---
triple:          'arm64-apple-darwin'
binary-path:     '/Users/cedric/orange/ran-llm-claude-flow/src/rust-pipeline/target/debug/deps/libpin_project_internal-9304f2882a7c2a99.dylib'
relocations:
  - { offset: 0x1E, size: 0x8, addend: 0x0, symName: __RINvNtNtCs6IAuOt8vWmF_3syn3gen9visit_mut13visit_abi_mutNtNtCscdP1gRbl3Ff_20pin_project_internal5utils15ReplaceReceiverEBV_, symObjAddr: 0x0, symBinAddr: 0xC58, symSize: 0x84 }
  - { offset: 0x975, size: 0x8, addend: 0x0, symName: __RINvNtNtCs6IAuOt8vWmF_3syn3gen9visit_mut13visit_abi_mutNtNtCscdP1gRbl3Ff_20pin_project_internal5utils15ReplaceReceiverEBV_, symObjAddr: 0x0, symBinAddr: 0xC58, symSize: 0x84 }
  - { offset: 0x9D5, size: 0x8, addend: 0x0, symName: __RINvNtNtCs6IAuOt8vWmF_3syn3gen9visit_mut13visit_abi_mutNtNvNtCscdP1gRbl3Ff_20pin_project_internal5utils23determine_lifetime_name16CollectLifetimesEBX_, symObjAddr: 0x84, symBinAddr: 0xCDC, symSize: 0x84 }
  - { offset: 0xA35, size: 0x8, addend: 0x0, symName: __RINvNtNtCs6IAuOt8vWmF_3syn3gen9visit_mut13visit_arm_mutNtNtCscdP1gRbl3Ff_20pin_project_internal5utils15ReplaceReceiverEBV_, symObjAddr: 0x108, symBinAddr: 0xD60, symSize: 0xFC }
  - { offset: 0xA8D, size: 0x8, addend: 0x0, symName: __RINvNtNtCs6IAuOt8vWmF_3syn3gen9visit_mut13visit_arm_mutNtNvNtCscdP1gRbl3Ff_20pin_project_internal5utils23determine_lifetime_name16CollectLifetimesEBX_, symObjAddr: 0x204, symBinAddr: 0xE5C, symSize: 0xFC }
  - { offset: 0xAE5, size: 0x8, addend: 0x0, symName: __RINvNtNtCs6IAuOt8vWmF_3syn3gen9visit_mut13visit_lit_mutNtNtCscdP1gRbl3Ff_20pin_project_internal5utils15ReplaceReceiverEBV_, symObjAddr: 0x300, symBinAddr: 0xF58, symSize: 0x264 }
  - { offset: 0xC17, size: 0x8, addend: 0x0, symName: __RINvNtNtCs6IAuOt8vWmF_3syn3gen9visit_mut13visit_lit_mutNtNvNtCscdP1gRbl3Ff_20pin_project_internal5utils23determine_lifetime_name16CollectLifetimesEBX_, symObjAddr: 0x564, symBinAddr: 0x11BC, symSize: 0x264 }
  - { offset: 0xD49, size: 0x8, addend: 0x0, symName: __RINvNtNtCs6IAuOt8vWmF_3syn3gen9visit_mut13visit_pat_mutNtNtCscdP1gRbl3Ff_20pin_project_internal5utils15ReplaceReceiverEBV_, symObjAddr: 0x7C8, symBinAddr: 0x1420, symSize: 0x390 }
  - { offset: 0xF87, size: 0x8, addend: 0x0, symName: __RINvNtNtCs6IAuOt8vWmF_3syn3gen9visit_mut13visit_pat_mutNtNvNtCscdP1gRbl3Ff_20pin_project_internal5utils23determine_lifetime_name16CollectLifetimesEBX_, symObjAddr: 0xB58, symBinAddr: 0x17B0, symSize: 0x390 }
  - { offset: 0x11C5, size: 0x8, addend: 0x0, symName: __RINvNtNtCs6IAuOt8vWmF_3syn3gen9visit_mut14visit_expr_mutNtNtCscdP1gRbl3Ff_20pin_project_internal5utils15ReplaceReceiverEBW_, symObjAddr: 0xEE8, symBinAddr: 0x1B40, symSize: 0x7D8 }
  - { offset: 0x16CF, size: 0x8, addend: 0x0, symName: __RINvNtNtCs6IAuOt8vWmF_3syn3gen9visit_mut14visit_expr_mutNtNvNtCscdP1gRbl3Ff_20pin_project_internal5utils23determine_lifetime_name16CollectLifetimesEBY_, symObjAddr: 0x16C0, symBinAddr: 0x2318, symSize: 0x7D8 }
  - { offset: 0x1BD9, size: 0x8, addend: 0x0, symName: __RINvNtNtCs6IAuOt8vWmF_3syn3gen9visit_mut14visit_item_mutNtNvNtCscdP1gRbl3Ff_20pin_project_internal5utils23determine_lifetime_name16CollectLifetimesEBY_, symObjAddr: 0x1E98, symBinAddr: 0x2AF0, symSize: 0x35C }
  - { offset: 0x1DF9, size: 0x8, addend: 0x0, symName: __RINvNtNtCs6IAuOt8vWmF_3syn3gen9visit_mut14visit_meta_mutNtNtCscdP1gRbl3Ff_20pin_project_internal5utils15ReplaceReceiverEBW_, symObjAddr: 0x21F4, symBinAddr: 0x2E4C, symSize: 0xE8 }
  - { offset: 0x1E8D, size: 0x8, addend: 0x0, symName: __RINvNtNtCs6IAuOt8vWmF_3syn3gen9visit_mut14visit_meta_mutNtNvNtCscdP1gRbl3Ff_20pin_project_internal5utils23determine_lifetime_name16CollectLifetimesEBY_, symObjAddr: 0x22DC, symBinAddr: 0x2F34, symSize: 0xE8 }
  - { offset: 0x1F21, size: 0x8, addend: 0x0, symName: __RINvNtNtCs6IAuOt8vWmF_3syn3gen9visit_mut14visit_path_mutNtNvNtCscdP1gRbl3Ff_20pin_project_internal5utils23determine_lifetime_name16CollectLifetimesEBY_, symObjAddr: 0x23C4, symBinAddr: 0x301C, symSize: 0xC8 }
  - { offset: 0x1FB6, size: 0x8, addend: 0x0, symName: __RINvNtNtCs6IAuOt8vWmF_3syn3gen9visit_mut14visit_stmt_mutNtNtCscdP1gRbl3Ff_20pin_project_internal5utils15ReplaceReceiverEBW_, symObjAddr: 0x248C, symBinAddr: 0x30E4, symSize: 0x12C }
  - { offset: 0x2078, size: 0x8, addend: 0x0, symName: __RINvNtNtCs6IAuOt8vWmF_3syn3gen9visit_mut14visit_stmt_mutNtNvNtCscdP1gRbl3Ff_20pin_project_internal5utils23determine_lifetime_name16CollectLifetimesEBY_, symObjAddr: 0x25B8, symBinAddr: 0x3210, symSize: 0x12C }
  - { offset: 0x213A, size: 0x8, addend: 0x0, symName: __RINvNtNtCs6IAuOt8vWmF_3syn3gen9visit_mut14visit_type_mutNtNtCscdP1gRbl3Ff_20pin_project_internal5utils15ReplaceReceiverEBW_, symObjAddr: 0x26E4, symBinAddr: 0x333C, symSize: 0x328 }
  - { offset: 0x233A, size: 0x8, addend: 0x0, symName: __RINvNtNtCs6IAuOt8vWmF_3syn3gen9visit_mut14visit_type_mutNtNvNtCscdP1gRbl3Ff_20pin_project_internal5utils23determine_lifetime_name16CollectLifetimesEBY_, symObjAddr: 0x2A0C, symBinAddr: 0x3664, symSize: 0x328 }
  - { offset: 0x253A, size: 0x8, addend: 0x0, symName: __RINvNtNtCs6IAuOt8vWmF_3syn3gen9visit_mut15visit_block_mutNtNtCscdP1gRbl3Ff_20pin_project_internal5utils15ReplaceReceiverEBX_, symObjAddr: 0x2D34, symBinAddr: 0x398C, symSize: 0x98 }
  - { offset: 0x25B0, size: 0x8, addend: 0x0, symName: __RINvNtNtCs6IAuOt8vWmF_3syn3gen9visit_mut15visit_block_mutNtNvNtCscdP1gRbl3Ff_20pin_project_internal5utils23determine_lifetime_name16CollectLifetimesEBZ_, symObjAddr: 0x2DCC, symBinAddr: 0x3A24, symSize: 0x98 }
  - { offset: 0x2626, size: 0x8, addend: 0x0, symName: __RINvNtNtCs6IAuOt8vWmF_3syn3gen9visit_mut15visit_field_mutNtNtCscdP1gRbl3Ff_20pin_project_internal5utils15ReplaceReceiverEBX_, symObjAddr: 0x2E64, symBinAddr: 0x3ABC, symSize: 0xC4 }
  - { offset: 0x2686, size: 0x8, addend: 0x0, symName: __RINvNtNtCs6IAuOt8vWmF_3syn3gen9visit_mut15visit_field_mutNtNvNtCscdP1gRbl3Ff_20pin_project_internal5utils23determine_lifetime_name16CollectLifetimesEBZ_, symObjAddr: 0x2F28, symBinAddr: 0x3B80, symSize: 0xC4 }
  - { offset: 0x26E6, size: 0x8, addend: 0x0, symName: __RINvNtNtCs6IAuOt8vWmF_3syn3gen9visit_mut15visit_ident_mutNtNtCscdP1gRbl3Ff_20pin_project_internal5utils15ReplaceReceiverEBX_, symObjAddr: 0x2FEC, symBinAddr: 0x3C44, symSize: 0x68 }
  - { offset: 0x2746, size: 0x8, addend: 0x0, symName: __RINvNtNtCs6IAuOt8vWmF_3syn3gen9visit_mut15visit_ident_mutNtNvNtCscdP1gRbl3Ff_20pin_project_internal5utils23determine_lifetime_name16CollectLifetimesEBZ_, symObjAddr: 0x3054, symBinAddr: 0x3CAC, symSize: 0x68 }
  - { offset: 0x27A6, size: 0x8, addend: 0x0, symName: __RINvNtNtCs6IAuOt8vWmF_3syn3gen9visit_mut15visit_index_mutNtNtCscdP1gRbl3Ff_20pin_project_internal5utils15ReplaceReceiverEBX_, symObjAddr: 0x30BC, symBinAddr: 0x3D14, symSize: 0x3C }
  - { offset: 0x27E8, size: 0x8, addend: 0x0, symName: __RINvNtNtCs6IAuOt8vWmF_3syn3gen9visit_mut15visit_index_mutNtNvNtCscdP1gRbl3Ff_20pin_project_internal5utils23determine_lifetime_name16CollectLifetimesEBZ_, symObjAddr: 0x30F8, symBinAddr: 0x3D50, symSize: 0x3C }
  - { offset: 0x282A, size: 0x8, addend: 0x0, symName: __RINvNtNtCs6IAuOt8vWmF_3syn3gen9visit_mut15visit_label_mutNtNtCscdP1gRbl3Ff_20pin_project_internal5utils15ReplaceReceiverEBX_, symObjAddr: 0x3134, symBinAddr: 0x3D8C, symSize: 0x3C }
  - { offset: 0x286C, size: 0x8, addend: 0x0, symName: __RINvNtNtCs6IAuOt8vWmF_3syn3gen9visit_mut15visit_label_mutNtNvNtCscdP1gRbl3Ff_20pin_project_internal5utils23determine_lifetime_name16CollectLifetimesEBZ_, symObjAddr: 0x3170, symBinAddr: 0x3DC8, symSize: 0x3C }
  - { offset: 0x28AE, size: 0x8, addend: 0x0, symName: __RINvNtNtCs6IAuOt8vWmF_3syn3gen9visit_mut15visit_local_mutNtNtCscdP1gRbl3Ff_20pin_project_internal5utils15ReplaceReceiverEBX_, symObjAddr: 0x31AC, symBinAddr: 0x3E04, symSize: 0xA4 }
  - { offset: 0x290E, size: 0x8, addend: 0x0, symName: __RINvNtNtCs6IAuOt8vWmF_3syn3gen9visit_mut15visit_local_mutNtNvNtCscdP1gRbl3Ff_20pin_project_internal5utils23determine_lifetime_name16CollectLifetimesEBZ_, symObjAddr: 0x3250, symBinAddr: 0x3EA8, symSize: 0xA4 }
  - { offset: 0x296E, size: 0x8, addend: 0x0, symName: __RINvNtNtCs6IAuOt8vWmF_3syn3gen9visit_mut15visit_macro_mutNtNvNtCscdP1gRbl3Ff_20pin_project_internal5utils23determine_lifetime_name16CollectLifetimesEBZ_, symObjAddr: 0x32F4, symBinAddr: 0x3F4C, symSize: 0x60 }
  - { offset: 0x29B0, size: 0x8, addend: 0x0, symName: __RINvNtNtCs6IAuOt8vWmF_3syn3gen9visit_mut15visit_qself_mutNtNtCscdP1gRbl3Ff_20pin_project_internal5utils15ReplaceReceiverEBX_, symObjAddr: 0x3354, symBinAddr: 0x3FAC, symSize: 0x68 }
  - { offset: 0x29F2, size: 0x8, addend: 0x0, symName: __RINvNtNtCs6IAuOt8vWmF_3syn3gen9visit_mut15visit_qself_mutNtNvNtCscdP1gRbl3Ff_20pin_project_internal5utils23determine_lifetime_name16CollectLifetimesEBZ_, symObjAddr: 0x33BC, symBinAddr: 0x4014, symSize: 0x68 }
  - { offset: 0x2A34, size: 0x8, addend: 0x0, symName: __RINvNtNtCs6IAuOt8vWmF_3syn3gen9visit_mut15visit_un_op_mutNtNtCscdP1gRbl3Ff_20pin_project_internal5utils15ReplaceReceiverEBX_, symObjAddr: 0x3424, symBinAddr: 0x407C, symSize: 0xA8 }
  - { offset: 0x2A76, size: 0x8, addend: 0x0, symName: __RINvNtNtCs6IAuOt8vWmF_3syn3gen9visit_mut15visit_un_op_mutNtNvNtCscdP1gRbl3Ff_20pin_project_internal5utils23determine_lifetime_name16CollectLifetimesEBZ_, symObjAddr: 0x34CC, symBinAddr: 0x4124, symSize: 0xA8 }
  - { offset: 0x2AB8, size: 0x8, addend: 0x0, symName: __RINvNtNtCs6IAuOt8vWmF_3syn3gen9visit_mut16visit_bin_op_mutNtNtCscdP1gRbl3Ff_20pin_project_internal5utils15ReplaceReceiverEBY_, symObjAddr: 0x3574, symBinAddr: 0x41CC, symSize: 0x438 }
  - { offset: 0x2AFA, size: 0x8, addend: 0x0, symName: __RINvNtNtCs6IAuOt8vWmF_3syn3gen9visit_mut16visit_bin_op_mutNtNvNtCscdP1gRbl3Ff_20pin_project_internal5utils23determine_lifetime_name16CollectLifetimesEB10_, symObjAddr: 0x39AC, symBinAddr: 0x4604, symSize: 0x438 }
  - { offset: 0x2B3C, size: 0x8, addend: 0x0, symName: __RINvNtNtCs6IAuOt8vWmF_3syn3gen9visit_mut16visit_fields_mutNtNtCscdP1gRbl3Ff_20pin_project_internal5utils15ReplaceReceiverEBY_, symObjAddr: 0x3DE4, symBinAddr: 0x4A3C, symSize: 0xC4 }
  - { offset: 0x2BBA, size: 0x8, addend: 0x0, symName: __RINvNtNtCs6IAuOt8vWmF_3syn3gen9visit_mut16visit_fields_mutNtNvNtCscdP1gRbl3Ff_20pin_project_internal5utils23determine_lifetime_name16CollectLifetimesEB10_, symObjAddr: 0x3EA8, symBinAddr: 0x4B00, symSize: 0xC4 }
  - { offset: 0x2C38, size: 0x8, addend: 0x0, symName: __RINvNtNtCs6IAuOt8vWmF_3syn3gen9visit_mut16visit_fn_arg_mutNtNtCscdP1gRbl3Ff_20pin_project_internal5utils15ReplaceReceiverEBY_, symObjAddr: 0x3F6C, symBinAddr: 0x4BC4, symSize: 0xA0 }
  - { offset: 0x2CAE, size: 0x8, addend: 0x0, symName: __RINvNtNtCs6IAuOt8vWmF_3syn3gen9visit_mut16visit_fn_arg_mutNtNvNtCscdP1gRbl3Ff_20pin_project_internal5utils23determine_lifetime_name16CollectLifetimesEB10_, symObjAddr: 0x400C, symBinAddr: 0x4C64, symSize: 0xA0 }
  - { offset: 0x2D24, size: 0x8, addend: 0x0, symName: __RINvNtNtCs6IAuOt8vWmF_3syn3gen9visit_mut16visit_member_mutNtNtCscdP1gRbl3Ff_20pin_project_internal5utils15ReplaceReceiverEBY_, symObjAddr: 0x40AC, symBinAddr: 0x4D04, symSize: 0x98 }
  - { offset: 0x2D9A, size: 0x8, addend: 0x0, symName: __RINvNtNtCs6IAuOt8vWmF_3syn3gen9visit_mut16visit_member_mutNtNvNtCscdP1gRbl3Ff_20pin_project_internal5utils23determine_lifetime_name16CollectLifetimesEB10_, symObjAddr: 0x4144, symBinAddr: 0x4D9C, symSize: 0x98 }
  - { offset: 0x2E10, size: 0x8, addend: 0x0, symName: __RINvNtNtCs6IAuOt8vWmF_3syn3gen9visit_mut16visit_pat_or_mutNtNtCscdP1gRbl3Ff_20pin_project_internal5utils15ReplaceReceiverEBY_, symObjAddr: 0x41DC, symBinAddr: 0x4E34, symSize: 0xD0 }
  - { offset: 0x2EA5, size: 0x8, addend: 0x0, symName: __RINvNtNtCs6IAuOt8vWmF_3syn3gen9visit_mut16visit_pat_or_mutNtNvNtCscdP1gRbl3Ff_20pin_project_internal5utils23determine_lifetime_name16CollectLifetimesEB10_, symObjAddr: 0x42AC, symBinAddr: 0x4F04, symSize: 0xD0 }
  - { offset: 0x2F3A, size: 0x8, addend: 0x0, symName: __RINvNtNtCs6IAuOt8vWmF_3syn3gen9visit_mut17visit_expr_if_mutNtNtCscdP1gRbl3Ff_20pin_project_internal5utils15ReplaceReceiverEBZ_, symObjAddr: 0x437C, symBinAddr: 0x4FD4, symSize: 0x104 }
  - { offset: 0x2F92, size: 0x8, addend: 0x0, symName: __RINvNtNtCs6IAuOt8vWmF_3syn3gen9visit_mut17visit_expr_if_mutNtNvNtCscdP1gRbl3Ff_20pin_project_internal5utils23determine_lifetime_name16CollectLifetimesEB11_, symObjAddr: 0x4480, symBinAddr: 0x50D8, symSize: 0x104 }
  - { offset: 0x2FEA, size: 0x8, addend: 0x0, symName: __RINvNtNtCs6IAuOt8vWmF_3syn3gen9visit_mut17visit_item_fn_mutNtNvNtCscdP1gRbl3Ff_20pin_project_internal5utils23determine_lifetime_name16CollectLifetimesEB11_, symObjAddr: 0x4584, symBinAddr: 0x51DC, symSize: 0x98 }
  - { offset: 0x302C, size: 0x8, addend: 0x0, symName: __RINvNtNtCs6IAuOt8vWmF_3syn3gen9visit_mut17visit_lit_int_mutNtNtCscdP1gRbl3Ff_20pin_project_internal5utils15ReplaceReceiverEBZ_, symObjAddr: 0x461C, symBinAddr: 0x5274, symSize: 0x24 }
  - { offset: 0x306E, size: 0x8, addend: 0x0, symName: __RINvNtNtCs6IAuOt8vWmF_3syn3gen9visit_mut17visit_lit_int_mutNtNvNtCscdP1gRbl3Ff_20pin_project_internal5utils23determine_lifetime_name16CollectLifetimesEB11_, symObjAddr: 0x4640, symBinAddr: 0x5298, symSize: 0x24 }
  - { offset: 0x30B0, size: 0x8, addend: 0x0, symName: __RINvNtNtCs6IAuOt8vWmF_3syn3gen9visit_mut17visit_lit_str_mutNtNtCscdP1gRbl3Ff_20pin_project_internal5utils15ReplaceReceiverEBZ_, symObjAddr: 0x4664, symBinAddr: 0x52BC, symSize: 0x24 }
  - { offset: 0x30F2, size: 0x8, addend: 0x0, symName: __RINvNtNtCs6IAuOt8vWmF_3syn3gen9visit_mut17visit_lit_str_mutNtNvNtCscdP1gRbl3Ff_20pin_project_internal5utils23determine_lifetime_name16CollectLifetimesEB11_, symObjAddr: 0x4688, symBinAddr: 0x52E0, symSize: 0x24 }
  - { offset: 0x3134, size: 0x8, addend: 0x0, symName: __RINvNtNtCs6IAuOt8vWmF_3syn3gen9visit_mut17visit_variant_mutNtNtCscdP1gRbl3Ff_20pin_project_internal5utils15ReplaceReceiverEBZ_, symObjAddr: 0x46AC, symBinAddr: 0x5304, symSize: 0xB4 }
  - { offset: 0x3194, size: 0x8, addend: 0x0, symName: __RINvNtNtCs6IAuOt8vWmF_3syn3gen9visit_mut17visit_variant_mutNtNvNtCscdP1gRbl3Ff_20pin_project_internal5utils23determine_lifetime_name16CollectLifetimesEB11_, symObjAddr: 0x4760, symBinAddr: 0x53B8, symSize: 0xB4 }
  - { offset: 0x31F4, size: 0x8, addend: 0x0, symName: __RINvNtNtCs6IAuOt8vWmF_3syn3gen9visit_mut18visit_expr_let_mutNtNtCscdP1gRbl3Ff_20pin_project_internal5utils15ReplaceReceiverEB10_, symObjAddr: 0x4814, symBinAddr: 0x546C, symSize: 0xAC }
  - { offset: 0x3236, size: 0x8, addend: 0x0, symName: __RINvNtNtCs6IAuOt8vWmF_3syn3gen9visit_mut18visit_expr_let_mutNtNvNtCscdP1gRbl3Ff_20pin_project_internal5utils23determine_lifetime_name16CollectLifetimesEB12_, symObjAddr: 0x48C0, symBinAddr: 0x5518, symSize: 0xAC }
  - { offset: 0x3278, size: 0x8, addend: 0x0, symName: __RINvNtNtCs6IAuOt8vWmF_3syn3gen9visit_mut18visit_expr_lit_mutNtNtCscdP1gRbl3Ff_20pin_project_internal5utils15ReplaceReceiverEB10_, symObjAddr: 0x496C, symBinAddr: 0x55C4, symSize: 0x50 }
  - { offset: 0x32BA, size: 0x8, addend: 0x0, symName: __RINvNtNtCs6IAuOt8vWmF_3syn3gen9visit_mut18visit_expr_lit_mutNtNvNtCscdP1gRbl3Ff_20pin_project_internal5utils23determine_lifetime_name16CollectLifetimesEB12_, symObjAddr: 0x49BC, symBinAddr: 0x5614, symSize: 0x50 }
  - { offset: 0x32FC, size: 0x8, addend: 0x0, symName: __RINvNtNtCs6IAuOt8vWmF_3syn3gen9visit_mut18visit_expr_try_mutNtNtCscdP1gRbl3Ff_20pin_project_internal5utils15ReplaceReceiverEB10_, symObjAddr: 0x4A0C, symBinAddr: 0x5664, symSize: 0x78 }
  - { offset: 0x333E, size: 0x8, addend: 0x0, symName: __RINvNtNtCs6IAuOt8vWmF_3syn3gen9visit_mut18visit_expr_try_mutNtNvNtCscdP1gRbl3Ff_20pin_project_internal5utils23determine_lifetime_name16CollectLifetimesEB12_, symObjAddr: 0x4A84, symBinAddr: 0x56DC, symSize: 0x78 }
  - { offset: 0x3380, size: 0x8, addend: 0x0, symName: __RINvNtNtCs6IAuOt8vWmF_3syn3gen9visit_mut18visit_generics_mutNtNtCscdP1gRbl3Ff_20pin_project_internal5utils15ReplaceReceiverEB10_, symObjAddr: 0x4AFC, symBinAddr: 0x5754, symSize: 0x124 }
  - { offset: 0x342B, size: 0x8, addend: 0x0, symName: __RINvNtNtCs6IAuOt8vWmF_3syn3gen9visit_mut18visit_generics_mutNtNvNtCscdP1gRbl3Ff_20pin_project_internal5utils23determine_lifetime_name16CollectLifetimesEB12_, symObjAddr: 0x4C20, symBinAddr: 0x5878, symSize: 0x124 }
  - { offset: 0x34D6, size: 0x8, addend: 0x0, symName: __RINvNtNtCs6IAuOt8vWmF_3syn3gen9visit_mut18visit_item_mod_mutNtNvNtCscdP1gRbl3Ff_20pin_project_internal5utils23determine_lifetime_name16CollectLifetimesEB12_, symObjAddr: 0x4D44, symBinAddr: 0x599C, symSize: 0x108 }
  - { offset: 0x3562, size: 0x8, addend: 0x0, symName: __RINvNtNtCs6IAuOt8vWmF_3syn3gen9visit_mut18visit_item_use_mutNtNvNtCscdP1gRbl3Ff_20pin_project_internal5utils23determine_lifetime_name16CollectLifetimesEB12_, symObjAddr: 0x4E4C, symBinAddr: 0x5AA4, symSize: 0x60 }
  - { offset: 0x35A4, size: 0x8, addend: 0x0, symName: __RINvNtNtCs6IAuOt8vWmF_3syn3gen9visit_mut18visit_lifetime_mutNtNtCscdP1gRbl3Ff_20pin_project_internal5utils15ReplaceReceiverEB10_, symObjAddr: 0x4EAC, symBinAddr: 0x5B04, symSize: 0x50 }
  - { offset: 0x35E6, size: 0x8, addend: 0x0, symName: __RINvNtNtCs6IAuOt8vWmF_3syn3gen9visit_mut18visit_lifetime_mutNtNvNtCscdP1gRbl3Ff_20pin_project_internal5utils23determine_lifetime_name16CollectLifetimesEB12_, symObjAddr: 0x4EFC, symBinAddr: 0x5B54, symSize: 0x50 }
  - { offset: 0x3628, size: 0x8, addend: 0x0, symName: __RINvNtNtCs6IAuOt8vWmF_3syn3gen9visit_mut18visit_lit_bool_mutNtNtCscdP1gRbl3Ff_20pin_project_internal5utils15ReplaceReceiverEB10_, symObjAddr: 0x4F4C, symBinAddr: 0x5BA4, symSize: 0x3C }
  - { offset: 0x366A, size: 0x8, addend: 0x0, symName: __RINvNtNtCs6IAuOt8vWmF_3syn3gen9visit_mut18visit_lit_bool_mutNtNvNtCscdP1gRbl3Ff_20pin_project_internal5utils23determine_lifetime_name16CollectLifetimesEB12_, symObjAddr: 0x4F88, symBinAddr: 0x5BE0, symSize: 0x3C }
  - { offset: 0x36AC, size: 0x8, addend: 0x0, symName: __RINvNtNtCs6IAuOt8vWmF_3syn3gen9visit_mut18visit_lit_byte_mutNtNtCscdP1gRbl3Ff_20pin_project_internal5utils15ReplaceReceiverEB10_, symObjAddr: 0x4FC4, symBinAddr: 0x5C1C, symSize: 0x24 }
  - { offset: 0x36EE, size: 0x8, addend: 0x0, symName: __RINvNtNtCs6IAuOt8vWmF_3syn3gen9visit_mut18visit_lit_byte_mutNtNvNtCscdP1gRbl3Ff_20pin_project_internal5utils23determine_lifetime_name16CollectLifetimesEB12_, symObjAddr: 0x4FE8, symBinAddr: 0x5C40, symSize: 0x24 }
  - { offset: 0x3730, size: 0x8, addend: 0x0, symName: __RINvNtNtCs6IAuOt8vWmF_3syn3gen9visit_mut18visit_lit_char_mutNtNtCscdP1gRbl3Ff_20pin_project_internal5utils15ReplaceReceiverEB10_, symObjAddr: 0x500C, symBinAddr: 0x5C64, symSize: 0x24 }
  - { offset: 0x3772, size: 0x8, addend: 0x0, symName: __RINvNtNtCs6IAuOt8vWmF_3syn3gen9visit_mut18visit_lit_char_mutNtNvNtCscdP1gRbl3Ff_20pin_project_internal5utils23determine_lifetime_name16CollectLifetimesEB12_, symObjAddr: 0x5030, symBinAddr: 0x5C88, symSize: 0x24 }
  - { offset: 0x37B4, size: 0x8, addend: 0x0, symName: __RINvNtNtCs6IAuOt8vWmF_3syn3gen9visit_mut18visit_lit_cstr_mutNtNtCscdP1gRbl3Ff_20pin_project_internal5utils15ReplaceReceiverEB10_, symObjAddr: 0x5054, symBinAddr: 0x5CAC, symSize: 0x24 }
  - { offset: 0x37F6, size: 0x8, addend: 0x0, symName: __RINvNtNtCs6IAuOt8vWmF_3syn3gen9visit_mut18visit_lit_cstr_mutNtNvNtCscdP1gRbl3Ff_20pin_project_internal5utils23determine_lifetime_name16CollectLifetimesEB12_, symObjAddr: 0x5078, symBinAddr: 0x5CD0, symSize: 0x24 }
  - { offset: 0x3838, size: 0x8, addend: 0x0, symName: __RINvNtNtCs6IAuOt8vWmF_3syn3gen9visit_mut18visit_pat_rest_mutNtNtCscdP1gRbl3Ff_20pin_project_internal5utils15ReplaceReceiverEB10_, symObjAddr: 0x509C, symBinAddr: 0x5CF4, symSize: 0x3C }
  - { offset: 0x387A, size: 0x8, addend: 0x0, symName: __RINvNtNtCs6IAuOt8vWmF_3syn3gen9visit_mut18visit_pat_rest_mutNtNvNtCscdP1gRbl3Ff_20pin_project_internal5utils23determine_lifetime_name16CollectLifetimesEB12_, symObjAddr: 0x50D8, symBinAddr: 0x5D30, symSize: 0x3C }
  - { offset: 0x38BC, size: 0x8, addend: 0x0, symName: __RINvNtNtCs6IAuOt8vWmF_3syn3gen9visit_mut18visit_pat_type_mutNtNtCscdP1gRbl3Ff_20pin_project_internal5utils15ReplaceReceiverEB10_, symObjAddr: 0x5114, symBinAddr: 0x5D6C, symSize: 0xAC }
  - { offset: 0x38FE, size: 0x8, addend: 0x0, symName: __RINvNtNtCs6IAuOt8vWmF_3syn3gen9visit_mut18visit_pat_type_mutNtNvNtCscdP1gRbl3Ff_20pin_project_internal5utils23determine_lifetime_name16CollectLifetimesEB12_, symObjAddr: 0x51C0, symBinAddr: 0x5E18, symSize: 0xAC }
  - { offset: 0x3940, size: 0x8, addend: 0x0, symName: __RINvNtNtCs6IAuOt8vWmF_3syn3gen9visit_mut18visit_pat_wild_mutNtNtCscdP1gRbl3Ff_20pin_project_internal5utils15ReplaceReceiverEB10_, symObjAddr: 0x526C, symBinAddr: 0x5EC4, symSize: 0x3C }
  - { offset: 0x3982, size: 0x8, addend: 0x0, symName: __RINvNtNtCs6IAuOt8vWmF_3syn3gen9visit_mut18visit_pat_wild_mutNtNvNtCscdP1gRbl3Ff_20pin_project_internal5utils23determine_lifetime_name16CollectLifetimesEB12_, symObjAddr: 0x52A8, symBinAddr: 0x5F00, symSize: 0x3C }
  - { offset: 0x39C4, size: 0x8, addend: 0x0, symName: __RINvNtNtCs6IAuOt8vWmF_3syn3gen9visit_mut18visit_receiver_mutNtNtCscdP1gRbl3Ff_20pin_project_internal5utils15ReplaceReceiverEB10_, symObjAddr: 0x52E4, symBinAddr: 0x5F3C, symSize: 0x10C }
  - { offset: 0x3A32, size: 0x8, addend: 0x0, symName: __RINvNtNtCs6IAuOt8vWmF_3syn3gen9visit_mut18visit_receiver_mutNtNvNtCscdP1gRbl3Ff_20pin_project_internal5utils23determine_lifetime_name16CollectLifetimesEB12_, symObjAddr: 0x53F0, symBinAddr: 0x6048, symSize: 0x10C }
  - { offset: 0x3AA0, size: 0x8, addend: 0x0, symName: __RINvNtNtCs6IAuOt8vWmF_3syn3gen9visit_mut18visit_type_ptr_mutNtNtCscdP1gRbl3Ff_20pin_project_internal5utils15ReplaceReceiverEB10_, symObjAddr: 0x54FC, symBinAddr: 0x6154, symSize: 0x68 }
  - { offset: 0x3AE2, size: 0x8, addend: 0x0, symName: __RINvNtNtCs6IAuOt8vWmF_3syn3gen9visit_mut18visit_type_ptr_mutNtNvNtCscdP1gRbl3Ff_20pin_project_internal5utils23determine_lifetime_name16CollectLifetimesEB12_, symObjAddr: 0x5564, symBinAddr: 0x61BC, symSize: 0x68 }
  - { offset: 0x3B24, size: 0x8, addend: 0x0, symName: __RINvNtNtCs6IAuOt8vWmF_3syn3gen9visit_mut18visit_use_glob_mutNtNvNtCscdP1gRbl3Ff_20pin_project_internal5utils23determine_lifetime_name16CollectLifetimesEB12_, symObjAddr: 0x55CC, symBinAddr: 0x6224, symSize: 0x24 }
  - { offset: 0x3B66, size: 0x8, addend: 0x0, symName: __RINvNtNtCs6IAuOt8vWmF_3syn3gen9visit_mut18visit_use_name_mutNtNvNtCscdP1gRbl3Ff_20pin_project_internal5utils23determine_lifetime_name16CollectLifetimesEB12_, symObjAddr: 0x55F0, symBinAddr: 0x6248, symSize: 0x3C }
  - { offset: 0x3BA8, size: 0x8, addend: 0x0, symName: __RINvNtNtCs6IAuOt8vWmF_3syn3gen9visit_mut18visit_use_path_mutNtNvNtCscdP1gRbl3Ff_20pin_project_internal5utils23determine_lifetime_name16CollectLifetimesEB12_, symObjAddr: 0x562C, symBinAddr: 0x6284, symSize: 0x7C }
  - { offset: 0x3BEA, size: 0x8, addend: 0x0, symName: __RINvNtNtCs6IAuOt8vWmF_3syn3gen9visit_mut18visit_use_tree_mutNtNvNtCscdP1gRbl3Ff_20pin_project_internal5utils23determine_lifetime_name16CollectLifetimesEB12_, symObjAddr: 0x56A8, symBinAddr: 0x6300, symSize: 0x15C }
  - { offset: 0x3CBA, size: 0x8, addend: 0x0, symName: __RINvNtNtCs6IAuOt8vWmF_3syn3gen9visit_mut18visit_variadic_mutNtNtCscdP1gRbl3Ff_20pin_project_internal5utils15ReplaceReceiverEB10_, symObjAddr: 0x5804, symBinAddr: 0x645C, symSize: 0xB8 }
  - { offset: 0x3D12, size: 0x8, addend: 0x0, symName: __RINvNtNtCs6IAuOt8vWmF_3syn3gen9visit_mut18visit_variadic_mutNtNvNtCscdP1gRbl3Ff_20pin_project_internal5utils23determine_lifetime_name16CollectLifetimesEB12_, symObjAddr: 0x58BC, symBinAddr: 0x6514, symSize: 0xB8 }
  - { offset: 0x3D6A, size: 0x8, addend: 0x0, symName: __RINvNtNtCs6IAuOt8vWmF_3syn3gen9visit_mut19visit_attribute_mutNtNtCscdP1gRbl3Ff_20pin_project_internal5utils15ReplaceReceiverEB11_, symObjAddr: 0x5974, symBinAddr: 0x65CC, symSize: 0x50 }
  - { offset: 0x3DAC, size: 0x8, addend: 0x0, symName: __RINvNtNtCs6IAuOt8vWmF_3syn3gen9visit_mut19visit_attribute_mutNtNvNtCscdP1gRbl3Ff_20pin_project_internal5utils23determine_lifetime_name16CollectLifetimesEB13_, symObjAddr: 0x59C4, symBinAddr: 0x661C, symSize: 0x50 }
  - { offset: 0x3DEE, size: 0x8, addend: 0x0, symName: __RINvNtNtCs6IAuOt8vWmF_3syn3gen9visit_mut19visit_expr_call_mutNtNtCscdP1gRbl3Ff_20pin_project_internal5utils15ReplaceReceiverEB11_, symObjAddr: 0x5A14, symBinAddr: 0x666C, symSize: 0x108 }
  - { offset: 0x3E83, size: 0x8, addend: 0x0, symName: __RINvNtNtCs6IAuOt8vWmF_3syn3gen9visit_mut19visit_expr_call_mutNtNvNtCscdP1gRbl3Ff_20pin_project_internal5utils23determine_lifetime_name16CollectLifetimesEB13_, symObjAddr: 0x5B1C, symBinAddr: 0x6774, symSize: 0x108 }
  - { offset: 0x3F18, size: 0x8, addend: 0x0, symName: __RINvNtNtCs6IAuOt8vWmF_3syn3gen9visit_mut19visit_expr_cast_mutNtNtCscdP1gRbl3Ff_20pin_project_internal5utils15ReplaceReceiverEB11_, symObjAddr: 0x5C24, symBinAddr: 0x687C, symSize: 0xAC }
  - { offset: 0x3F5A, size: 0x8, addend: 0x0, symName: __RINvNtNtCs6IAuOt8vWmF_3syn3gen9visit_mut19visit_expr_cast_mutNtNvNtCscdP1gRbl3Ff_20pin_project_internal5utils23determine_lifetime_name16CollectLifetimesEB13_, symObjAddr: 0x5CD0, symBinAddr: 0x6928, symSize: 0xAC }
  - { offset: 0x3F9C, size: 0x8, addend: 0x0, symName: __RINvNtNtCs6IAuOt8vWmF_3syn3gen9visit_mut19visit_expr_loop_mutNtNtCscdP1gRbl3Ff_20pin_project_internal5utils15ReplaceReceiverEB11_, symObjAddr: 0x5D7C, symBinAddr: 0x69D4, symSize: 0xA4 }
  - { offset: 0x3FFC, size: 0x8, addend: 0x0, symName: __RINvNtNtCs6IAuOt8vWmF_3syn3gen9visit_mut19visit_expr_loop_mutNtNvNtCscdP1gRbl3Ff_20pin_project_internal5utils23determine_lifetime_name16CollectLifetimesEB13_, symObjAddr: 0x5E20, symBinAddr: 0x6A78, symSize: 0xA4 }
  - { offset: 0x405C, size: 0x8, addend: 0x0, symName: __RINvNtNtCs6IAuOt8vWmF_3syn3gen9visit_mut19visit_expr_path_mutNtNtCscdP1gRbl3Ff_20pin_project_internal5utils15ReplaceReceiverEB11_, symObjAddr: 0x5EC4, symBinAddr: 0x6B1C, symSize: 0xA4 }
  - { offset: 0x40BC, size: 0x8, addend: 0x0, symName: __RINvNtNtCs6IAuOt8vWmF_3syn3gen9visit_mut19visit_expr_path_mutNtNvNtCscdP1gRbl3Ff_20pin_project_internal5utils23determine_lifetime_name16CollectLifetimesEB13_, symObjAddr: 0x5F68, symBinAddr: 0x6BC0, symSize: 0xA4 }
  - { offset: 0x411C, size: 0x8, addend: 0x0, symName: __RINvNtNtCs6IAuOt8vWmF_3syn3gen9visit_mut19visit_field_pat_mutNtNtCscdP1gRbl3Ff_20pin_project_internal5utils15ReplaceReceiverEB11_, symObjAddr: 0x600C, symBinAddr: 0x6C64, symSize: 0x88 }
  - { offset: 0x415E, size: 0x8, addend: 0x0, symName: __RINvNtNtCs6IAuOt8vWmF_3syn3gen9visit_mut19visit_field_pat_mutNtNvNtCscdP1gRbl3Ff_20pin_project_internal5utils23determine_lifetime_name16CollectLifetimesEB13_, symObjAddr: 0x6094, symBinAddr: 0x6CEC, symSize: 0x88 }
  - { offset: 0x41A0, size: 0x8, addend: 0x0, symName: __RINvNtNtCs6IAuOt8vWmF_3syn3gen9visit_mut19visit_impl_item_mutNtNvNtCscdP1gRbl3Ff_20pin_project_internal5utils23determine_lifetime_name16CollectLifetimesEB13_, symObjAddr: 0x611C, symBinAddr: 0x6D74, symSize: 0x168 }
  - { offset: 0x4270, size: 0x8, addend: 0x0, symName: __RINvNtNtCs6IAuOt8vWmF_3syn3gen9visit_mut19visit_item_enum_mutNtNtCscdP1gRbl3Ff_20pin_project_internal5utils15ReplaceReceiverEB11_, symObjAddr: 0x6284, symBinAddr: 0x6EDC, symSize: 0x100 }
  - { offset: 0x4305, size: 0x8, addend: 0x0, symName: __RINvNtNtCs6IAuOt8vWmF_3syn3gen9visit_mut19visit_item_enum_mutNtNvNtCscdP1gRbl3Ff_20pin_project_internal5utils23determine_lifetime_name16CollectLifetimesEB13_, symObjAddr: 0x6384, symBinAddr: 0x6FDC, symSize: 0x100 }
  - { offset: 0x439A, size: 0x8, addend: 0x0, symName: __RINvNtNtCs6IAuOt8vWmF_3syn3gen9visit_mut19visit_item_impl_mutNtNvNtCscdP1gRbl3Ff_20pin_project_internal5utils23determine_lifetime_name16CollectLifetimesEB13_, symObjAddr: 0x6484, symBinAddr: 0x70DC, symSize: 0x13C }
  - { offset: 0x442E, size: 0x8, addend: 0x0, symName: __RINvNtNtCs6IAuOt8vWmF_3syn3gen9visit_mut19visit_item_type_mutNtNvNtCscdP1gRbl3Ff_20pin_project_internal5utils23determine_lifetime_name16CollectLifetimesEB13_, symObjAddr: 0x65C0, symBinAddr: 0x7218, symSize: 0xA8 }
  - { offset: 0x4470, size: 0x8, addend: 0x0, symName: __RINvNtNtCs6IAuOt8vWmF_3syn3gen9visit_mut19visit_lit_float_mutNtNtCscdP1gRbl3Ff_20pin_project_internal5utils15ReplaceReceiverEB11_, symObjAddr: 0x6668, symBinAddr: 0x72C0, symSize: 0x24 }
  - { offset: 0x44B2, size: 0x8, addend: 0x0, symName: __RINvNtNtCs6IAuOt8vWmF_3syn3gen9visit_mut19visit_lit_float_mutNtNvNtCscdP1gRbl3Ff_20pin_project_internal5utils23determine_lifetime_name16CollectLifetimesEB13_, symObjAddr: 0x668C, symBinAddr: 0x72E4, symSize: 0x24 }
  - { offset: 0x44F4, size: 0x8, addend: 0x0, symName: __RINvNtNtCs6IAuOt8vWmF_3syn3gen9visit_mut19visit_meta_list_mutNtNtCscdP1gRbl3Ff_20pin_project_internal5utils15ReplaceReceiverEB11_, symObjAddr: 0x66B0, symBinAddr: 0x7308, symSize: 0x60 }
  - { offset: 0x4536, size: 0x8, addend: 0x0, symName: __RINvNtNtCs6IAuOt8vWmF_3syn3gen9visit_mut19visit_meta_list_mutNtNvNtCscdP1gRbl3Ff_20pin_project_internal5utils23determine_lifetime_name16CollectLifetimesEB13_, symObjAddr: 0x6710, symBinAddr: 0x7368, symSize: 0x60 }
  - { offset: 0x4578, size: 0x8, addend: 0x0, symName: __RINvNtNtCs6IAuOt8vWmF_3syn3gen9visit_mut19visit_pat_ident_mutNtNtCscdP1gRbl3Ff_20pin_project_internal5utils15ReplaceReceiverEB11_, symObjAddr: 0x6770, symBinAddr: 0x73C8, symSize: 0xC8 }
  - { offset: 0x45D0, size: 0x8, addend: 0x0, symName: __RINvNtNtCs6IAuOt8vWmF_3syn3gen9visit_mut19visit_pat_ident_mutNtNvNtCscdP1gRbl3Ff_20pin_project_internal5utils23determine_lifetime_name16CollectLifetimesEB13_, symObjAddr: 0x6838, symBinAddr: 0x7490, symSize: 0xC8 }
  - { offset: 0x4628, size: 0x8, addend: 0x0, symName: __RINvNtNtCs6IAuOt8vWmF_3syn3gen9visit_mut19visit_pat_paren_mutNtNtCscdP1gRbl3Ff_20pin_project_internal5utils15ReplaceReceiverEB11_, symObjAddr: 0x6900, symBinAddr: 0x7558, symSize: 0x78 }
  - { offset: 0x466A, size: 0x8, addend: 0x0, symName: __RINvNtNtCs6IAuOt8vWmF_3syn3gen9visit_mut19visit_pat_paren_mutNtNvNtCscdP1gRbl3Ff_20pin_project_internal5utils23determine_lifetime_name16CollectLifetimesEB13_, symObjAddr: 0x6978, symBinAddr: 0x75D0, symSize: 0x78 }
  - { offset: 0x46AC, size: 0x8, addend: 0x0, symName: __RINvNtNtCs6IAuOt8vWmF_3syn3gen9visit_mut19visit_pat_slice_mutNtNtCscdP1gRbl3Ff_20pin_project_internal5utils15ReplaceReceiverEB11_, symObjAddr: 0x69F0, symBinAddr: 0x7648, symSize: 0xD0 }
  - { offset: 0x4741, size: 0x8, addend: 0x0, symName: __RINvNtNtCs6IAuOt8vWmF_3syn3gen9visit_mut19visit_pat_slice_mutNtNvNtCscdP1gRbl3Ff_20pin_project_internal5utils23determine_lifetime_name16CollectLifetimesEB13_, symObjAddr: 0x6AC0, symBinAddr: 0x7718, symSize: 0xD0 }
  - { offset: 0x47D6, size: 0x8, addend: 0x0, symName: __RINvNtNtCs6IAuOt8vWmF_3syn3gen9visit_mut19visit_pat_tuple_mutNtNtCscdP1gRbl3Ff_20pin_project_internal5utils15ReplaceReceiverEB11_, symObjAddr: 0x6B90, symBinAddr: 0x77E8, symSize: 0xD0 }
  - { offset: 0x486B, size: 0x8, addend: 0x0, symName: __RINvNtNtCs6IAuOt8vWmF_3syn3gen9visit_mut19visit_pat_tuple_mutNtNvNtCscdP1gRbl3Ff_20pin_project_internal5utils23determine_lifetime_name16CollectLifetimesEB13_, symObjAddr: 0x6C60, symBinAddr: 0x78B8, symSize: 0xD0 }
  - { offset: 0x4900, size: 0x8, addend: 0x0, symName: __RINvNtNtCs6IAuOt8vWmF_3syn3gen9visit_mut19visit_signature_mutNtNtCscdP1gRbl3Ff_20pin_project_internal5utils15ReplaceReceiverEB11_, symObjAddr: 0x6D30, symBinAddr: 0x7988, symSize: 0x198 }
  - { offset: 0x49C9, size: 0x8, addend: 0x0, symName: __RINvNtNtCs6IAuOt8vWmF_3syn3gen9visit_mut19visit_signature_mutNtNvNtCscdP1gRbl3Ff_20pin_project_internal5utils23determine_lifetime_name16CollectLifetimesEB13_, symObjAddr: 0x6EC8, symBinAddr: 0x7B20, symSize: 0x198 }
  - { offset: 0x4A92, size: 0x8, addend: 0x0, symName: __RINvNtNtCs6IAuOt8vWmF_3syn3gen9visit_mut19visit_type_path_mutNtNtCscdP1gRbl3Ff_20pin_project_internal5utils15ReplaceReceiverEB11_, symObjAddr: 0x7060, symBinAddr: 0x7CB8, symSize: 0x94 }
  - { offset: 0x4AF2, size: 0x8, addend: 0x0, symName: __RINvNtNtCs6IAuOt8vWmF_3syn3gen9visit_mut19visit_type_path_mutNtNvNtCscdP1gRbl3Ff_20pin_project_internal5utils23determine_lifetime_name16CollectLifetimesEB13_, symObjAddr: 0x70F4, symBinAddr: 0x7D4C, symSize: 0x94 }
  - { offset: 0x4B52, size: 0x8, addend: 0x0, symName: __RINvNtNtCs6IAuOt8vWmF_3syn3gen9visit_mut19visit_use_group_mutNtNvNtCscdP1gRbl3Ff_20pin_project_internal5utils23determine_lifetime_name16CollectLifetimesEB13_, symObjAddr: 0x7188, symBinAddr: 0x7DE0, symSize: 0xC8 }
  - { offset: 0x4BE7, size: 0x8, addend: 0x0, symName: __RINvNtNtCs6IAuOt8vWmF_3syn3gen9visit_mut20visit_assoc_type_mutNtNtCscdP1gRbl3Ff_20pin_project_internal5utils15ReplaceReceiverEB12_, symObjAddr: 0x7250, symBinAddr: 0x7EA8, symSize: 0xA8 }
  - { offset: 0x4C47, size: 0x8, addend: 0x0, symName: __RINvNtNtCs6IAuOt8vWmF_3syn3gen9visit_mut20visit_assoc_type_mutNtNvNtCscdP1gRbl3Ff_20pin_project_internal5utils23determine_lifetime_name16CollectLifetimesEB14_, symObjAddr: 0x72F8, symBinAddr: 0x7F50, symSize: 0xA8 }
  - { offset: 0x4CA7, size: 0x8, addend: 0x0, symName: __RINvNtNtCs6IAuOt8vWmF_3syn3gen9visit_mut20visit_attr_style_mutNtNtCscdP1gRbl3Ff_20pin_project_internal5utils15ReplaceReceiverEB12_, symObjAddr: 0x73A0, symBinAddr: 0x7FF8, symSize: 0x60 }
  - { offset: 0x4CE9, size: 0x8, addend: 0x0, symName: __RINvNtNtCs6IAuOt8vWmF_3syn3gen9visit_mut20visit_attr_style_mutNtNvNtCscdP1gRbl3Ff_20pin_project_internal5utils23determine_lifetime_name16CollectLifetimesEB14_, symObjAddr: 0x7400, symBinAddr: 0x8058, symSize: 0x60 }
  - { offset: 0x4D2B, size: 0x8, addend: 0x0, symName: __RINvNtNtCs6IAuOt8vWmF_3syn3gen9visit_mut20visit_constraint_mutNtNtCscdP1gRbl3Ff_20pin_project_internal5utils15ReplaceReceiverEB12_, symObjAddr: 0x7460, symBinAddr: 0x80B8, symSize: 0x128 }
  - { offset: 0x4DDE, size: 0x8, addend: 0x0, symName: __RINvNtNtCs6IAuOt8vWmF_3syn3gen9visit_mut20visit_constraint_mutNtNvNtCscdP1gRbl3Ff_20pin_project_internal5utils23determine_lifetime_name16CollectLifetimesEB14_, symObjAddr: 0x7588, symBinAddr: 0x81E0, symSize: 0x128 }
  - { offset: 0x4E91, size: 0x8, addend: 0x0, symName: __RINvNtNtCs6IAuOt8vWmF_3syn3gen9visit_mut20visit_expr_array_mutNtNtCscdP1gRbl3Ff_20pin_project_internal5utils15ReplaceReceiverEB12_, symObjAddr: 0x76B0, symBinAddr: 0x8308, symSize: 0xD0 }
  - { offset: 0x4F26, size: 0x8, addend: 0x0, symName: __RINvNtNtCs6IAuOt8vWmF_3syn3gen9visit_mut20visit_expr_array_mutNtNvNtCscdP1gRbl3Ff_20pin_project_internal5utils23determine_lifetime_name16CollectLifetimesEB14_, symObjAddr: 0x7780, symBinAddr: 0x83D8, symSize: 0xD0 }
  - { offset: 0x4FBB, size: 0x8, addend: 0x0, symName: __RINvNtNtCs6IAuOt8vWmF_3syn3gen9visit_mut20visit_expr_async_mutNtNtCscdP1gRbl3Ff_20pin_project_internal5utils15ReplaceReceiverEB12_, symObjAddr: 0x7850, symBinAddr: 0x84A8, symSize: 0x50 }
  - { offset: 0x4FFD, size: 0x8, addend: 0x0, symName: __RINvNtNtCs6IAuOt8vWmF_3syn3gen9visit_mut20visit_expr_async_mutNtNvNtCscdP1gRbl3Ff_20pin_project_internal5utils23determine_lifetime_name16CollectLifetimesEB14_, symObjAddr: 0x78A0, symBinAddr: 0x84F8, symSize: 0x50 }
  - { offset: 0x503F, size: 0x8, addend: 0x0, symName: __RINvNtNtCs6IAuOt8vWmF_3syn3gen9visit_mut20visit_expr_await_mutNtNtCscdP1gRbl3Ff_20pin_project_internal5utils15ReplaceReceiverEB12_, symObjAddr: 0x78F0, symBinAddr: 0x8548, symSize: 0x78 }
  - { offset: 0x5081, size: 0x8, addend: 0x0, symName: __RINvNtNtCs6IAuOt8vWmF_3syn3gen9visit_mut20visit_expr_await_mutNtNvNtCscdP1gRbl3Ff_20pin_project_internal5utils23determine_lifetime_name16CollectLifetimesEB14_, symObjAddr: 0x7968, symBinAddr: 0x85C0, symSize: 0x78 }
  - { offset: 0x50C3, size: 0x8, addend: 0x0, symName: __RINvNtNtCs6IAuOt8vWmF_3syn3gen9visit_mut20visit_expr_block_mutNtNtCscdP1gRbl3Ff_20pin_project_internal5utils15ReplaceReceiverEB12_, symObjAddr: 0x79E0, symBinAddr: 0x8638, symSize: 0xA4 }
  - { offset: 0x5123, size: 0x8, addend: 0x0, symName: __RINvNtNtCs6IAuOt8vWmF_3syn3gen9visit_mut20visit_expr_block_mutNtNvNtCscdP1gRbl3Ff_20pin_project_internal5utils23determine_lifetime_name16CollectLifetimesEB14_, symObjAddr: 0x7A84, symBinAddr: 0x86DC, symSize: 0xA4 }
  - { offset: 0x5183, size: 0x8, addend: 0x0, symName: __RINvNtNtCs6IAuOt8vWmF_3syn3gen9visit_mut20visit_expr_break_mutNtNtCscdP1gRbl3Ff_20pin_project_internal5utils15ReplaceReceiverEB12_, symObjAddr: 0x7B28, symBinAddr: 0x8780, symSize: 0x110 }
  - { offset: 0x51F9, size: 0x8, addend: 0x0, symName: __RINvNtNtCs6IAuOt8vWmF_3syn3gen9visit_mut20visit_expr_break_mutNtNvNtCscdP1gRbl3Ff_20pin_project_internal5utils23determine_lifetime_name16CollectLifetimesEB14_, symObjAddr: 0x7C38, symBinAddr: 0x8890, symSize: 0x110 }
  - { offset: 0x526F, size: 0x8, addend: 0x0, symName: __RINvNtNtCs6IAuOt8vWmF_3syn3gen9visit_mut20visit_expr_const_mutNtNtCscdP1gRbl3Ff_20pin_project_internal5utils15ReplaceReceiverEB12_, symObjAddr: 0x7D48, symBinAddr: 0x89A0, symSize: 0x50 }
  - { offset: 0x52B1, size: 0x8, addend: 0x0, symName: __RINvNtNtCs6IAuOt8vWmF_3syn3gen9visit_mut20visit_expr_const_mutNtNvNtCscdP1gRbl3Ff_20pin_project_internal5utils23determine_lifetime_name16CollectLifetimesEB14_, symObjAddr: 0x7D98, symBinAddr: 0x89F0, symSize: 0x50 }
  - { offset: 0x52F3, size: 0x8, addend: 0x0, symName: __RINvNtNtCs6IAuOt8vWmF_3syn3gen9visit_mut20visit_expr_field_mutNtNtCscdP1gRbl3Ff_20pin_project_internal5utils15ReplaceReceiverEB12_, symObjAddr: 0x7DE8, symBinAddr: 0x8A40, symSize: 0x88 }
  - { offset: 0x5335, size: 0x8, addend: 0x0, symName: __RINvNtNtCs6IAuOt8vWmF_3syn3gen9visit_mut20visit_expr_field_mutNtNvNtCscdP1gRbl3Ff_20pin_project_internal5utils23determine_lifetime_name16CollectLifetimesEB14_, symObjAddr: 0x7E70, symBinAddr: 0x8AC8, symSize: 0x88 }
  - { offset: 0x5377, size: 0x8, addend: 0x0, symName: __RINvNtNtCs6IAuOt8vWmF_3syn3gen9visit_mut20visit_expr_group_mutNtNtCscdP1gRbl3Ff_20pin_project_internal5utils15ReplaceReceiverEB12_, symObjAddr: 0x7EF8, symBinAddr: 0x8B50, symSize: 0x78 }
  - { offset: 0x53B9, size: 0x8, addend: 0x0, symName: __RINvNtNtCs6IAuOt8vWmF_3syn3gen9visit_mut20visit_expr_group_mutNtNvNtCscdP1gRbl3Ff_20pin_project_internal5utils23determine_lifetime_name16CollectLifetimesEB14_, symObjAddr: 0x7F70, symBinAddr: 0x8BC8, symSize: 0x78 }
  - { offset: 0x53FB, size: 0x8, addend: 0x0, symName: __RINvNtNtCs6IAuOt8vWmF_3syn3gen9visit_mut20visit_expr_index_mutNtNtCscdP1gRbl3Ff_20pin_project_internal5utils15ReplaceReceiverEB12_, symObjAddr: 0x7FE8, symBinAddr: 0x8C40, symSize: 0xAC }
  - { offset: 0x543D, size: 0x8, addend: 0x0, symName: __RINvNtNtCs6IAuOt8vWmF_3syn3gen9visit_mut20visit_expr_index_mutNtNvNtCscdP1gRbl3Ff_20pin_project_internal5utils23determine_lifetime_name16CollectLifetimesEB14_, symObjAddr: 0x8094, symBinAddr: 0x8CEC, symSize: 0xAC }
  - { offset: 0x547F, size: 0x8, addend: 0x0, symName: __RINvNtNtCs6IAuOt8vWmF_3syn3gen9visit_mut20visit_expr_infer_mutNtNtCscdP1gRbl3Ff_20pin_project_internal5utils15ReplaceReceiverEB12_, symObjAddr: 0x8140, symBinAddr: 0x8D98, symSize: 0x3C }
  - { offset: 0x54C1, size: 0x8, addend: 0x0, symName: __RINvNtNtCs6IAuOt8vWmF_3syn3gen9visit_mut20visit_expr_infer_mutNtNvNtCscdP1gRbl3Ff_20pin_project_internal5utils23determine_lifetime_name16CollectLifetimesEB14_, symObjAddr: 0x817C, symBinAddr: 0x8DD4, symSize: 0x3C }
  - { offset: 0x5503, size: 0x8, addend: 0x0, symName: __RINvNtNtCs6IAuOt8vWmF_3syn3gen9visit_mut20visit_expr_macro_mutNtNtCscdP1gRbl3Ff_20pin_project_internal5utils15ReplaceReceiverEB12_, symObjAddr: 0x81B8, symBinAddr: 0x8E10, symSize: 0x50 }
  - { offset: 0x5545, size: 0x8, addend: 0x0, symName: __RINvNtNtCs6IAuOt8vWmF_3syn3gen9visit_mut20visit_expr_macro_mutNtNvNtCscdP1gRbl3Ff_20pin_project_internal5utils23determine_lifetime_name16CollectLifetimesEB14_, symObjAddr: 0x8208, symBinAddr: 0x8E60, symSize: 0x50 }
  - { offset: 0x5587, size: 0x8, addend: 0x0, symName: __RINvNtNtCs6IAuOt8vWmF_3syn3gen9visit_mut20visit_expr_match_mutNtNtCscdP1gRbl3Ff_20pin_project_internal5utils15ReplaceReceiverEB12_, symObjAddr: 0x8258, symBinAddr: 0x8EB0, symSize: 0xD8 }
  - { offset: 0x55FD, size: 0x8, addend: 0x0, symName: __RINvNtNtCs6IAuOt8vWmF_3syn3gen9visit_mut20visit_expr_match_mutNtNvNtCscdP1gRbl3Ff_20pin_project_internal5utils23determine_lifetime_name16CollectLifetimesEB14_, symObjAddr: 0x8330, symBinAddr: 0x8F88, symSize: 0xD8 }
  - { offset: 0x5673, size: 0x8, addend: 0x0, symName: __RINvNtNtCs6IAuOt8vWmF_3syn3gen9visit_mut20visit_expr_paren_mutNtNtCscdP1gRbl3Ff_20pin_project_internal5utils15ReplaceReceiverEB12_, symObjAddr: 0x8408, symBinAddr: 0x9060, symSize: 0x78 }
  - { offset: 0x56B5, size: 0x8, addend: 0x0, symName: __RINvNtNtCs6IAuOt8vWmF_3syn3gen9visit_mut20visit_expr_paren_mutNtNvNtCscdP1gRbl3Ff_20pin_project_internal5utils23determine_lifetime_name16CollectLifetimesEB14_, symObjAddr: 0x8480, symBinAddr: 0x90D8, symSize: 0x78 }
  - { offset: 0x56F7, size: 0x8, addend: 0x0, symName: __RINvNtNtCs6IAuOt8vWmF_3syn3gen9visit_mut20visit_expr_range_mutNtNtCscdP1gRbl3Ff_20pin_project_internal5utils15ReplaceReceiverEB12_, symObjAddr: 0x84F8, symBinAddr: 0x9150, symSize: 0x144 }
  - { offset: 0x5765, size: 0x8, addend: 0x0, symName: __RINvNtNtCs6IAuOt8vWmF_3syn3gen9visit_mut20visit_expr_range_mutNtNvNtCscdP1gRbl3Ff_20pin_project_internal5utils23determine_lifetime_name16CollectLifetimesEB14_, symObjAddr: 0x863C, symBinAddr: 0x9294, symSize: 0x144 }
  - { offset: 0x57D3, size: 0x8, addend: 0x0, symName: __RINvNtNtCs6IAuOt8vWmF_3syn3gen9visit_mut20visit_expr_tuple_mutNtNtCscdP1gRbl3Ff_20pin_project_internal5utils15ReplaceReceiverEB12_, symObjAddr: 0x8780, symBinAddr: 0x93D8, symSize: 0xD0 }
  - { offset: 0x5868, size: 0x8, addend: 0x0, symName: __RINvNtNtCs6IAuOt8vWmF_3syn3gen9visit_mut20visit_expr_tuple_mutNtNvNtCscdP1gRbl3Ff_20pin_project_internal5utils23determine_lifetime_name16CollectLifetimesEB14_, symObjAddr: 0x8850, symBinAddr: 0x94A8, symSize: 0xD0 }
  - { offset: 0x58FD, size: 0x8, addend: 0x0, symName: __RINvNtNtCs6IAuOt8vWmF_3syn3gen9visit_mut20visit_expr_unary_mutNtNtCscdP1gRbl3Ff_20pin_project_internal5utils15ReplaceReceiverEB12_, symObjAddr: 0x8920, symBinAddr: 0x9578, symSize: 0x88 }
  - { offset: 0x593F, size: 0x8, addend: 0x0, symName: __RINvNtNtCs6IAuOt8vWmF_3syn3gen9visit_mut20visit_expr_unary_mutNtNvNtCscdP1gRbl3Ff_20pin_project_internal5utils23determine_lifetime_name16CollectLifetimesEB14_, symObjAddr: 0x89A8, symBinAddr: 0x9600, symSize: 0x88 }
  - { offset: 0x5981, size: 0x8, addend: 0x0, symName: __RINvNtNtCs6IAuOt8vWmF_3syn3gen9visit_mut20visit_expr_while_mutNtNtCscdP1gRbl3Ff_20pin_project_internal5utils15ReplaceReceiverEB12_, symObjAddr: 0x8A30, symBinAddr: 0x9688, symSize: 0xD8 }
  - { offset: 0x59E1, size: 0x8, addend: 0x0, symName: __RINvNtNtCs6IAuOt8vWmF_3syn3gen9visit_mut20visit_expr_while_mutNtNvNtCscdP1gRbl3Ff_20pin_project_internal5utils23determine_lifetime_name16CollectLifetimesEB14_, symObjAddr: 0x8B08, symBinAddr: 0x9760, symSize: 0xD8 }
  - { offset: 0x5A41, size: 0x8, addend: 0x0, symName: __RINvNtNtCs6IAuOt8vWmF_3syn3gen9visit_mut20visit_expr_yield_mutNtNtCscdP1gRbl3Ff_20pin_project_internal5utils15ReplaceReceiverEB12_, symObjAddr: 0x8BE0, symBinAddr: 0x9838, symSize: 0xB8 }
  - { offset: 0x5A99, size: 0x8, addend: 0x0, symName: __RINvNtNtCs6IAuOt8vWmF_3syn3gen9visit_mut20visit_expr_yield_mutNtNvNtCscdP1gRbl3Ff_20pin_project_internal5utils23determine_lifetime_name16CollectLifetimesEB14_, symObjAddr: 0x8C98, symBinAddr: 0x98F0, symSize: 0xB8 }
  - { offset: 0x5AF1, size: 0x8, addend: 0x0, symName: __RINvNtNtCs6IAuOt8vWmF_3syn3gen9visit_mut20visit_item_const_mutNtNvNtCscdP1gRbl3Ff_20pin_project_internal5utils23determine_lifetime_name16CollectLifetimesEB14_, symObjAddr: 0x8D50, symBinAddr: 0x99A8, symSize: 0xDC }
  - { offset: 0x5B33, size: 0x8, addend: 0x0, symName: __RINvNtNtCs6IAuOt8vWmF_3syn3gen9visit_mut20visit_item_macro_mutNtNvNtCscdP1gRbl3Ff_20pin_project_internal5utils23determine_lifetime_name16CollectLifetimesEB14_, symObjAddr: 0x8E2C, symBinAddr: 0x9A84, symSize: 0xA4 }
  - { offset: 0x5B93, size: 0x8, addend: 0x0, symName: __RINvNtNtCs6IAuOt8vWmF_3syn3gen9visit_mut20visit_item_trait_mutNtNvNtCscdP1gRbl3Ff_20pin_project_internal5utils23determine_lifetime_name16CollectLifetimesEB14_, symObjAddr: 0x8ED0, symBinAddr: 0x9B28, symSize: 0x164 }
  - { offset: 0x5C78, size: 0x8, addend: 0x0, symName: __RINvNtNtCs6IAuOt8vWmF_3syn3gen9visit_mut20visit_item_union_mutNtNvNtCscdP1gRbl3Ff_20pin_project_internal5utils23determine_lifetime_name16CollectLifetimesEB14_, symObjAddr: 0x9034, symBinAddr: 0x9C8C, symSize: 0x80 }
  - { offset: 0x5CBA, size: 0x8, addend: 0x0, symName: __RINvNtNtCs6IAuOt8vWmF_3syn3gen9visit_mut20visit_local_init_mutNtNtCscdP1gRbl3Ff_20pin_project_internal5utils15ReplaceReceiverEB12_, symObjAddr: 0x90B4, symBinAddr: 0x9D0C, symSize: 0xE8 }
  - { offset: 0x5D12, size: 0x8, addend: 0x0, symName: __RINvNtNtCs6IAuOt8vWmF_3syn3gen9visit_mut20visit_local_init_mutNtNvNtCscdP1gRbl3Ff_20pin_project_internal5utils23determine_lifetime_name16CollectLifetimesEB14_, symObjAddr: 0x919C, symBinAddr: 0x9DF4, symSize: 0xE8 }
  - { offset: 0x5D6A, size: 0x8, addend: 0x0, symName: __RINvNtNtCs6IAuOt8vWmF_3syn3gen9visit_mut20visit_pat_struct_mutNtNtCscdP1gRbl3Ff_20pin_project_internal5utils15ReplaceReceiverEB12_, symObjAddr: 0x9284, symBinAddr: 0x9EDC, symSize: 0x18C }
  - { offset: 0x5E33, size: 0x8, addend: 0x0, symName: __RINvNtNtCs6IAuOt8vWmF_3syn3gen9visit_mut20visit_pat_struct_mutNtNvNtCscdP1gRbl3Ff_20pin_project_internal5utils23determine_lifetime_name16CollectLifetimesEB14_, symObjAddr: 0x9410, symBinAddr: 0xA068, symSize: 0x18C }
  - { offset: 0x5EFC, size: 0x8, addend: 0x0, symName: __RINvNtNtCs6IAuOt8vWmF_3syn3gen9visit_mut20visit_stmt_macro_mutNtNtCscdP1gRbl3Ff_20pin_project_internal5utils15ReplaceReceiverEB12_, symObjAddr: 0x959C, symBinAddr: 0xA1F4, symSize: 0x50 }
  - { offset: 0x5F3E, size: 0x8, addend: 0x0, symName: __RINvNtNtCs6IAuOt8vWmF_3syn3gen9visit_mut20visit_stmt_macro_mutNtNvNtCscdP1gRbl3Ff_20pin_project_internal5utils23determine_lifetime_name16CollectLifetimesEB14_, symObjAddr: 0x95EC, symBinAddr: 0xA244, symSize: 0x50 }
  - { offset: 0x5F80, size: 0x8, addend: 0x0, symName: __RINvNtNtCs6IAuOt8vWmF_3syn3gen9visit_mut20visit_trait_item_mutNtNvNtCscdP1gRbl3Ff_20pin_project_internal5utils23determine_lifetime_name16CollectLifetimesEB14_, symObjAddr: 0x963C, symBinAddr: 0xA294, symSize: 0x168 }
  - { offset: 0x6050, size: 0x8, addend: 0x0, symName: __RINvNtNtCs6IAuOt8vWmF_3syn3gen9visit_mut20visit_type_array_mutNtNtCscdP1gRbl3Ff_20pin_project_internal5utils15ReplaceReceiverEB12_, symObjAddr: 0x97A4, symBinAddr: 0xA3FC, symSize: 0x78 }
  - { offset: 0x6092, size: 0x8, addend: 0x0, symName: __RINvNtNtCs6IAuOt8vWmF_3syn3gen9visit_mut20visit_type_array_mutNtNvNtCscdP1gRbl3Ff_20pin_project_internal5utils23determine_lifetime_name16CollectLifetimesEB14_, symObjAddr: 0x981C, symBinAddr: 0xA474, symSize: 0x78 }
  - { offset: 0x60D4, size: 0x8, addend: 0x0, symName: __RINvNtNtCs6IAuOt8vWmF_3syn3gen9visit_mut20visit_type_group_mutNtNtCscdP1gRbl3Ff_20pin_project_internal5utils15ReplaceReceiverEB12_, symObjAddr: 0x9894, symBinAddr: 0xA4EC, symSize: 0x68 }
  - { offset: 0x6116, size: 0x8, addend: 0x0, symName: __RINvNtNtCs6IAuOt8vWmF_3syn3gen9visit_mut20visit_type_group_mutNtNvNtCscdP1gRbl3Ff_20pin_project_internal5utils23determine_lifetime_name16CollectLifetimesEB14_, symObjAddr: 0x98FC, symBinAddr: 0xA554, symSize: 0x68 }
  - { offset: 0x6158, size: 0x8, addend: 0x0, symName: __RINvNtNtCs6IAuOt8vWmF_3syn3gen9visit_mut20visit_type_infer_mutNtNtCscdP1gRbl3Ff_20pin_project_internal5utils15ReplaceReceiverEB12_, symObjAddr: 0x9964, symBinAddr: 0xA5BC, symSize: 0x24 }
  - { offset: 0x619A, size: 0x8, addend: 0x0, symName: __RINvNtNtCs6IAuOt8vWmF_3syn3gen9visit_mut20visit_type_infer_mutNtNvNtCscdP1gRbl3Ff_20pin_project_internal5utils23determine_lifetime_name16CollectLifetimesEB14_, symObjAddr: 0x9988, symBinAddr: 0xA5E0, symSize: 0x24 }
  - { offset: 0x61DC, size: 0x8, addend: 0x0, symName: __RINvNtNtCs6IAuOt8vWmF_3syn3gen9visit_mut20visit_type_macro_mutNtNtCscdP1gRbl3Ff_20pin_project_internal5utils15ReplaceReceiverEB12_, symObjAddr: 0x99AC, symBinAddr: 0xA604, symSize: 0x3C }
  - { offset: 0x621E, size: 0x8, addend: 0x0, symName: __RINvNtNtCs6IAuOt8vWmF_3syn3gen9visit_mut20visit_type_macro_mutNtNvNtCscdP1gRbl3Ff_20pin_project_internal5utils23determine_lifetime_name16CollectLifetimesEB14_, symObjAddr: 0x99E8, symBinAddr: 0xA640, symSize: 0x3C }
  - { offset: 0x6260, size: 0x8, addend: 0x0, symName: __RINvNtNtCs6IAuOt8vWmF_3syn3gen9visit_mut20visit_type_never_mutNtNtCscdP1gRbl3Ff_20pin_project_internal5utils15ReplaceReceiverEB12_, symObjAddr: 0x9A24, symBinAddr: 0xA67C, symSize: 0x24 }
  - { offset: 0x62A2, size: 0x8, addend: 0x0, symName: __RINvNtNtCs6IAuOt8vWmF_3syn3gen9visit_mut20visit_type_never_mutNtNvNtCscdP1gRbl3Ff_20pin_project_internal5utils23determine_lifetime_name16CollectLifetimesEB14_, symObjAddr: 0x9A48, symBinAddr: 0xA6A0, symSize: 0x24 }
  - { offset: 0x62E4, size: 0x8, addend: 0x0, symName: __RINvNtNtCs6IAuOt8vWmF_3syn3gen9visit_mut20visit_type_param_mutNtNtCscdP1gRbl3Ff_20pin_project_internal5utils15ReplaceReceiverEB12_, symObjAddr: 0x9A6C, symBinAddr: 0xA6C4, symSize: 0x134 }
  - { offset: 0x638F, size: 0x8, addend: 0x0, symName: __RINvNtNtCs6IAuOt8vWmF_3syn3gen9visit_mut20visit_type_param_mutNtNvNtCscdP1gRbl3Ff_20pin_project_internal5utils23determine_lifetime_name16CollectLifetimesEB14_, symObjAddr: 0x9BA0, symBinAddr: 0xA7F8, symSize: 0x134 }
  - { offset: 0x643A, size: 0x8, addend: 0x0, symName: __RINvNtNtCs6IAuOt8vWmF_3syn3gen9visit_mut20visit_type_paren_mutNtNtCscdP1gRbl3Ff_20pin_project_internal5utils15ReplaceReceiverEB12_, symObjAddr: 0x9CD4, symBinAddr: 0xA92C, symSize: 0x68 }
  - { offset: 0x647C, size: 0x8, addend: 0x0, symName: __RINvNtNtCs6IAuOt8vWmF_3syn3gen9visit_mut20visit_type_paren_mutNtNvNtCscdP1gRbl3Ff_20pin_project_internal5utils23determine_lifetime_name16CollectLifetimesEB14_, symObjAddr: 0x9D3C, symBinAddr: 0xA994, symSize: 0x68 }
  - { offset: 0x64BE, size: 0x8, addend: 0x0, symName: __RINvNtNtCs6IAuOt8vWmF_3syn3gen9visit_mut20visit_type_slice_mutNtNtCscdP1gRbl3Ff_20pin_project_internal5utils15ReplaceReceiverEB12_, symObjAddr: 0x9DA4, symBinAddr: 0xA9FC, symSize: 0x68 }
  - { offset: 0x6500, size: 0x8, addend: 0x0, symName: __RINvNtNtCs6IAuOt8vWmF_3syn3gen9visit_mut20visit_type_slice_mutNtNvNtCscdP1gRbl3Ff_20pin_project_internal5utils23determine_lifetime_name16CollectLifetimesEB14_, symObjAddr: 0x9E0C, symBinAddr: 0xAA64, symSize: 0x68 }
  - { offset: 0x6542, size: 0x8, addend: 0x0, symName: __RINvNtNtCs6IAuOt8vWmF_3syn3gen9visit_mut20visit_type_tuple_mutNtNtCscdP1gRbl3Ff_20pin_project_internal5utils15ReplaceReceiverEB12_, symObjAddr: 0x9E74, symBinAddr: 0xAACC, symSize: 0xC8 }
  - { offset: 0x65D7, size: 0x8, addend: 0x0, symName: __RINvNtNtCs6IAuOt8vWmF_3syn3gen9visit_mut20visit_type_tuple_mutNtNvNtCscdP1gRbl3Ff_20pin_project_internal5utils23determine_lifetime_name16CollectLifetimesEB14_, symObjAddr: 0x9F3C, symBinAddr: 0xAB94, symSize: 0xC8 }
  - { offset: 0x666C, size: 0x8, addend: 0x0, symName: __RINvNtNtCs6IAuOt8vWmF_3syn3gen9visit_mut20visit_use_rename_mutNtNvNtCscdP1gRbl3Ff_20pin_project_internal5utils23determine_lifetime_name16CollectLifetimesEB14_, symObjAddr: 0xA004, symBinAddr: 0xAC5C, symSize: 0x50 }
  - { offset: 0x66AE, size: 0x8, addend: 0x0, symName: __RINvNtNtCs6IAuOt8vWmF_3syn3gen9visit_mut20visit_visibility_mutNtNtCscdP1gRbl3Ff_20pin_project_internal5utils15ReplaceReceiverEB12_, symObjAddr: 0xA054, symBinAddr: 0xACAC, symSize: 0xC4 }
  - { offset: 0x670E, size: 0x8, addend: 0x0, symName: __RINvNtNtCs6IAuOt8vWmF_3syn3gen9visit_mut20visit_visibility_mutNtNvNtCscdP1gRbl3Ff_20pin_project_internal5utils23determine_lifetime_name16CollectLifetimesEB14_, symObjAddr: 0xA118, symBinAddr: 0xAD70, symSize: 0xC4 }
  - { offset: 0x676E, size: 0x8, addend: 0x0, symName: __RINvNtNtCs6IAuOt8vWmF_3syn3gen9visit_mut21visit_assoc_const_mutNtNtCscdP1gRbl3Ff_20pin_project_internal5utils15ReplaceReceiverEB13_, symObjAddr: 0xA1DC, symBinAddr: 0xAE34, symSize: 0xA8 }
  - { offset: 0x67CE, size: 0x8, addend: 0x0, symName: __RINvNtNtCs6IAuOt8vWmF_3syn3gen9visit_mut21visit_assoc_const_mutNtNvNtCscdP1gRbl3Ff_20pin_project_internal5utils23determine_lifetime_name16CollectLifetimesEB15_, symObjAddr: 0xA284, symBinAddr: 0xAEDC, symSize: 0xA8 }
  - { offset: 0x682E, size: 0x8, addend: 0x0, symName: __RINvNtNtCs6IAuOt8vWmF_3syn3gen9visit_mut21visit_bare_fn_arg_mutNtNtCscdP1gRbl3Ff_20pin_project_internal5utils15ReplaceReceiverEB13_, symObjAddr: 0xA32C, symBinAddr: 0xAF84, symSize: 0xA4 }
  - { offset: 0x688E, size: 0x8, addend: 0x0, symName: __RINvNtNtCs6IAuOt8vWmF_3syn3gen9visit_mut21visit_bare_fn_arg_mutNtNvNtCscdP1gRbl3Ff_20pin_project_internal5utils23determine_lifetime_name16CollectLifetimesEB15_, symObjAddr: 0xA3D0, symBinAddr: 0xB028, symSize: 0xA4 }
  - { offset: 0x68EE, size: 0x8, addend: 0x0, symName: __RINvNtNtCs6IAuOt8vWmF_3syn3gen9visit_mut21visit_const_param_mutNtNtCscdP1gRbl3Ff_20pin_project_internal5utils15ReplaceReceiverEB13_, symObjAddr: 0xA474, symBinAddr: 0xB0CC, symSize: 0xB4 }
  - { offset: 0x694E, size: 0x8, addend: 0x0, symName: __RINvNtNtCs6IAuOt8vWmF_3syn3gen9visit_mut21visit_const_param_mutNtNvNtCscdP1gRbl3Ff_20pin_project_internal5utils23determine_lifetime_name16CollectLifetimesEB15_, symObjAddr: 0xA528, symBinAddr: 0xB180, symSize: 0xB4 }
  - { offset: 0x69AE, size: 0x8, addend: 0x0, symName: __RINvNtNtCs6IAuOt8vWmF_3syn3gen9visit_mut21visit_expr_assign_mutNtNtCscdP1gRbl3Ff_20pin_project_internal5utils15ReplaceReceiverEB13_, symObjAddr: 0xA5DC, symBinAddr: 0xB234, symSize: 0xAC }
  - { offset: 0x69F0, size: 0x8, addend: 0x0, symName: __RINvNtNtCs6IAuOt8vWmF_3syn3gen9visit_mut21visit_expr_assign_mutNtNvNtCscdP1gRbl3Ff_20pin_project_internal5utils23determine_lifetime_name16CollectLifetimesEB15_, symObjAddr: 0xA688, symBinAddr: 0xB2E0, symSize: 0xAC }
  - { offset: 0x6A32, size: 0x8, addend: 0x0, symName: __RINvNtNtCs6IAuOt8vWmF_3syn3gen9visit_mut21visit_expr_binary_mutNtNtCscdP1gRbl3Ff_20pin_project_internal5utils15ReplaceReceiverEB13_, symObjAddr: 0xA734, symBinAddr: 0xB38C, symSize: 0xBC }
  - { offset: 0x6A74, size: 0x8, addend: 0x0, symName: __RINvNtNtCs6IAuOt8vWmF_3syn3gen9visit_mut21visit_expr_binary_mutNtNvNtCscdP1gRbl3Ff_20pin_project_internal5utils23determine_lifetime_name16CollectLifetimesEB15_, symObjAddr: 0xA7F0, symBinAddr: 0xB448, symSize: 0xBC }
  - { offset: 0x6AB6, size: 0x8, addend: 0x0, symName: __RINvNtNtCs6IAuOt8vWmF_3syn3gen9visit_mut21visit_expr_repeat_mutNtNtCscdP1gRbl3Ff_20pin_project_internal5utils15ReplaceReceiverEB13_, symObjAddr: 0xA8AC, symBinAddr: 0xB504, symSize: 0xAC }
  - { offset: 0x6AF8, size: 0x8, addend: 0x0, symName: __RINvNtNtCs6IAuOt8vWmF_3syn3gen9visit_mut21visit_expr_repeat_mutNtNvNtCscdP1gRbl3Ff_20pin_project_internal5utils23determine_lifetime_name16CollectLifetimesEB15_, symObjAddr: 0xA958, symBinAddr: 0xB5B0, symSize: 0xAC }
  - { offset: 0x6B3A, size: 0x8, addend: 0x0, symName: __RINvNtNtCs6IAuOt8vWmF_3syn3gen9visit_mut21visit_expr_return_mutNtNtCscdP1gRbl3Ff_20pin_project_internal5utils15ReplaceReceiverEB13_, symObjAddr: 0xAA04, symBinAddr: 0xB65C, symSize: 0xB8 }
  - { offset: 0x6B92, size: 0x8, addend: 0x0, symName: __RINvNtNtCs6IAuOt8vWmF_3syn3gen9visit_mut21visit_expr_return_mutNtNvNtCscdP1gRbl3Ff_20pin_project_internal5utils23determine_lifetime_name16CollectLifetimesEB15_, symObjAddr: 0xAABC, symBinAddr: 0xB714, symSize: 0xB8 }
  - { offset: 0x6BEA, size: 0x8, addend: 0x0, symName: __RINvNtNtCs6IAuOt8vWmF_3syn3gen9visit_mut21visit_expr_struct_mutNtNtCscdP1gRbl3Ff_20pin_project_internal5utils15ReplaceReceiverEB13_, symObjAddr: 0xAB74, symBinAddr: 0xB7CC, symSize: 0x1B0 }
  - { offset: 0x6CB3, size: 0x8, addend: 0x0, symName: __RINvNtNtCs6IAuOt8vWmF_3syn3gen9visit_mut21visit_expr_struct_mutNtNvNtCscdP1gRbl3Ff_20pin_project_internal5utils23determine_lifetime_name16CollectLifetimesEB15_, symObjAddr: 0xAD24, symBinAddr: 0xB97C, symSize: 0x1B0 }
  - { offset: 0x6D7C, size: 0x8, addend: 0x0, symName: __RINvNtNtCs6IAuOt8vWmF_3syn3gen9visit_mut21visit_expr_unsafe_mutNtNtCscdP1gRbl3Ff_20pin_project_internal5utils15ReplaceReceiverEB13_, symObjAddr: 0xAED4, symBinAddr: 0xBB2C, symSize: 0x50 }
  - { offset: 0x6DBE, size: 0x8, addend: 0x0, symName: __RINvNtNtCs6IAuOt8vWmF_3syn3gen9visit_mut21visit_expr_unsafe_mutNtNvNtCscdP1gRbl3Ff_20pin_project_internal5utils23determine_lifetime_name16CollectLifetimesEB15_, symObjAddr: 0xAF24, symBinAddr: 0xBB7C, symSize: 0x50 }
  - { offset: 0x6E00, size: 0x8, addend: 0x0, symName: __RINvNtNtCs6IAuOt8vWmF_3syn3gen9visit_mut21visit_field_value_mutNtNtCscdP1gRbl3Ff_20pin_project_internal5utils15ReplaceReceiverEB13_, symObjAddr: 0xAF74, symBinAddr: 0xBBCC, symSize: 0x60 }
  - { offset: 0x6E42, size: 0x8, addend: 0x0, symName: __RINvNtNtCs6IAuOt8vWmF_3syn3gen9visit_mut21visit_field_value_mutNtNvNtCscdP1gRbl3Ff_20pin_project_internal5utils23determine_lifetime_name16CollectLifetimesEB15_, symObjAddr: 0xAFD4, symBinAddr: 0xBC2C, symSize: 0x60 }
  - { offset: 0x6E84, size: 0x8, addend: 0x0, symName: __RINvNtNtCs6IAuOt8vWmF_3syn3gen9visit_mut21visit_item_static_mutNtNvNtCscdP1gRbl3Ff_20pin_project_internal5utils23determine_lifetime_name16CollectLifetimesEB15_, symObjAddr: 0xB034, symBinAddr: 0xBC8C, symSize: 0xDC }
  - { offset: 0x6EC6, size: 0x8, addend: 0x0, symName: __RINvNtNtCs6IAuOt8vWmF_3syn3gen9visit_mut21visit_item_struct_mutNtNtCscdP1gRbl3Ff_20pin_project_internal5utils15ReplaceReceiverEB13_, symObjAddr: 0xB110, symBinAddr: 0xBD68, symSize: 0x80 }
  - { offset: 0x6F08, size: 0x8, addend: 0x0, symName: __RINvNtNtCs6IAuOt8vWmF_3syn3gen9visit_mut21visit_item_struct_mutNtNvNtCscdP1gRbl3Ff_20pin_project_internal5utils23determine_lifetime_name16CollectLifetimesEB15_, symObjAddr: 0xB190, symBinAddr: 0xBDE8, symSize: 0x80 }
  - { offset: 0x6F4A, size: 0x8, addend: 0x0, symName: __RINvNtNtCs6IAuOt8vWmF_3syn3gen9visit_mut21visit_return_type_mutNtNtCscdP1gRbl3Ff_20pin_project_internal5utils15ReplaceReceiverEB13_, symObjAddr: 0xB210, symBinAddr: 0xBE68, symSize: 0xB0 }
  - { offset: 0x6FB2, size: 0x8, addend: 0x0, symName: __RINvNtNtCs6IAuOt8vWmF_3syn3gen9visit_mut21visit_return_type_mutNtNvNtCscdP1gRbl3Ff_20pin_project_internal5utils23determine_lifetime_name16CollectLifetimesEB15_, symObjAddr: 0xB2C0, symBinAddr: 0xBF18, symSize: 0xB0 }
  - { offset: 0x701A, size: 0x8, addend: 0x0, symName: __RINvNtNtCs6IAuOt8vWmF_3syn3gen9visit_mut21visit_trait_bound_mutNtNtCscdP1gRbl3Ff_20pin_project_internal5utils15ReplaceReceiverEB13_, symObjAddr: 0xB370, symBinAddr: 0xBFC8, symSize: 0xA8 }
  - { offset: 0x707A, size: 0x8, addend: 0x0, symName: __RINvNtNtCs6IAuOt8vWmF_3syn3gen9visit_mut21visit_trait_bound_mutNtNvNtCscdP1gRbl3Ff_20pin_project_internal5utils23determine_lifetime_name16CollectLifetimesEB15_, symObjAddr: 0xB418, symBinAddr: 0xC070, symSize: 0xA8 }
  - { offset: 0x70DA, size: 0x8, addend: 0x0, symName: __RINvNtNtCs6IAuOt8vWmF_3syn3gen9visit_mut22visit_expr_closure_mutNtNtCscdP1gRbl3Ff_20pin_project_internal5utils15ReplaceReceiverEB14_, symObjAddr: 0xB4C0, symBinAddr: 0xC118, symSize: 0x16C }
  - { offset: 0x718D, size: 0x8, addend: 0x0, symName: __RINvNtNtCs6IAuOt8vWmF_3syn3gen9visit_mut22visit_expr_closure_mutNtNvNtCscdP1gRbl3Ff_20pin_project_internal5utils23determine_lifetime_name16CollectLifetimesEB16_, symObjAddr: 0xB62C, symBinAddr: 0xC284, symSize: 0x16C }
  - { offset: 0x7240, size: 0x8, addend: 0x0, symName: __RINvNtNtCs6IAuOt8vWmF_3syn3gen9visit_mut22visit_fields_named_mutNtNtCscdP1gRbl3Ff_20pin_project_internal5utils15ReplaceReceiverEB14_, symObjAddr: 0xB798, symBinAddr: 0xC3F0, symSize: 0xC8 }
  - { offset: 0x72D5, size: 0x8, addend: 0x0, symName: __RINvNtNtCs6IAuOt8vWmF_3syn3gen9visit_mut22visit_fields_named_mutNtNvNtCscdP1gRbl3Ff_20pin_project_internal5utils23determine_lifetime_name16CollectLifetimesEB16_, symObjAddr: 0xB860, symBinAddr: 0xC4B8, symSize: 0xC8 }
  - { offset: 0x736A, size: 0x8, addend: 0x0, symName: __RINvNtNtCs6IAuOt8vWmF_3syn3gen9visit_mut22visit_foreign_item_mutNtNvNtCscdP1gRbl3Ff_20pin_project_internal5utils23determine_lifetime_name16CollectLifetimesEB16_, symObjAddr: 0xB928, symBinAddr: 0xC580, symSize: 0x168 }
  - { offset: 0x743A, size: 0x8, addend: 0x0, symName: __RINvNtNtCs6IAuOt8vWmF_3syn3gen9visit_mut22visit_impl_item_fn_mutNtNvNtCscdP1gRbl3Ff_20pin_project_internal5utils23determine_lifetime_name16CollectLifetimesEB16_, symObjAddr: 0xBA90, symBinAddr: 0xC6E8, symSize: 0x70 }
  - { offset: 0x747C, size: 0x8, addend: 0x0, symName: __RINvNtNtCs6IAuOt8vWmF_3syn3gen9visit_mut22visit_lit_byte_str_mutNtNtCscdP1gRbl3Ff_20pin_project_internal5utils15ReplaceReceiverEB14_, symObjAddr: 0xBB00, symBinAddr: 0xC758, symSize: 0x24 }
  - { offset: 0x74BE, size: 0x8, addend: 0x0, symName: __RINvNtNtCs6IAuOt8vWmF_3syn3gen9visit_mut22visit_lit_byte_str_mutNtNvNtCscdP1gRbl3Ff_20pin_project_internal5utils23determine_lifetime_name16CollectLifetimesEB16_, symObjAddr: 0xBB24, symBinAddr: 0xC77C, symSize: 0x24 }
  - { offset: 0x7500, size: 0x8, addend: 0x0, symName: __RINvNtNtCs6IAuOt8vWmF_3syn3gen9visit_mut22visit_path_segment_mutNtNvNtCscdP1gRbl3Ff_20pin_project_internal5utils23determine_lifetime_name16CollectLifetimesEB16_, symObjAddr: 0xBB48, symBinAddr: 0xC7A0, symSize: 0x50 }
  - { offset: 0x7542, size: 0x8, addend: 0x0, symName: __RINvNtNtCs6IAuOt8vWmF_3syn3gen9visit_mut22visit_range_limits_mutNtNtCscdP1gRbl3Ff_20pin_project_internal5utils15ReplaceReceiverEB14_, symObjAddr: 0xBB98, symBinAddr: 0xC7F0, symSize: 0x6C }
  - { offset: 0x7584, size: 0x8, addend: 0x0, symName: __RINvNtNtCs6IAuOt8vWmF_3syn3gen9visit_mut22visit_range_limits_mutNtNvNtCscdP1gRbl3Ff_20pin_project_internal5utils23determine_lifetime_name16CollectLifetimesEB16_, symObjAddr: 0xBC04, symBinAddr: 0xC85C, symSize: 0x6C }
  - { offset: 0x75C6, size: 0x8, addend: 0x0, symName: __RINvNtNtCs6IAuOt8vWmF_3syn3gen9visit_mut22visit_type_bare_fn_mutNtNtCscdP1gRbl3Ff_20pin_project_internal5utils15ReplaceReceiverEB14_, symObjAddr: 0xBC70, symBinAddr: 0xC8C8, symSize: 0x1CC }
  - { offset: 0x76AD, size: 0x8, addend: 0x0, symName: __RINvNtNtCs6IAuOt8vWmF_3syn3gen9visit_mut22visit_type_bare_fn_mutNtNvNtCscdP1gRbl3Ff_20pin_project_internal5utils23determine_lifetime_name16CollectLifetimesEB16_, symObjAddr: 0xBE3C, symBinAddr: 0xCA94, symSize: 0x1CC }
  - { offset: 0x7794, size: 0x8, addend: 0x0, symName: __RINvNtNtCs6IAuOt8vWmF_3syn3gen9visit_mut22visit_where_clause_mutNtNtCscdP1gRbl3Ff_20pin_project_internal5utils15ReplaceReceiverEB14_, symObjAddr: 0xC008, symBinAddr: 0xCC60, symSize: 0xC8 }
  - { offset: 0x7829, size: 0x8, addend: 0x0, symName: __RINvNtNtCs6IAuOt8vWmF_3syn3gen9visit_mut22visit_where_clause_mutNtNvNtCscdP1gRbl3Ff_20pin_project_internal5utils23determine_lifetime_name16CollectLifetimesEB16_, symObjAddr: 0xC0D0, symBinAddr: 0xCD28, symSize: 0xC8 }
  - { offset: 0x78BE, size: 0x8, addend: 0x0, symName: __RINvNtNtCs6IAuOt8vWmF_3syn3gen9visit_mut23visit_bare_variadic_mutNtNtCscdP1gRbl3Ff_20pin_project_internal5utils15ReplaceReceiverEB15_, symObjAddr: 0xC198, symBinAddr: 0xCDF0, symSize: 0x94 }
  - { offset: 0x791E, size: 0x8, addend: 0x0, symName: __RINvNtNtCs6IAuOt8vWmF_3syn3gen9visit_mut23visit_bare_variadic_mutNtNvNtCscdP1gRbl3Ff_20pin_project_internal5utils23determine_lifetime_name16CollectLifetimesEB17_, symObjAddr: 0xC22C, symBinAddr: 0xCE84, symSize: 0x94 }
  - { offset: 0x797E, size: 0x8, addend: 0x0, symName: __RINvNtNtCs6IAuOt8vWmF_3syn3gen9visit_mut23visit_expr_continue_mutNtNtCscdP1gRbl3Ff_20pin_project_internal5utils15ReplaceReceiverEB15_, symObjAddr: 0xC2C0, symBinAddr: 0xCF18, symSize: 0x94 }
  - { offset: 0x79DE, size: 0x8, addend: 0x0, symName: __RINvNtNtCs6IAuOt8vWmF_3syn3gen9visit_mut23visit_expr_continue_mutNtNvNtCscdP1gRbl3Ff_20pin_project_internal5utils23determine_lifetime_name16CollectLifetimesEB17_, symObjAddr: 0xC354, symBinAddr: 0xCFAC, symSize: 0x94 }
  - { offset: 0x7A3E, size: 0x8, addend: 0x0, symName: __RINvNtNtCs6IAuOt8vWmF_3syn3gen9visit_mut23visit_expr_for_loop_mutNtNtCscdP1gRbl3Ff_20pin_project_internal5utils15ReplaceReceiverEB15_, symObjAddr: 0xC3E8, symBinAddr: 0xD040, symSize: 0x10C }
  - { offset: 0x7A9E, size: 0x8, addend: 0x0, symName: __RINvNtNtCs6IAuOt8vWmF_3syn3gen9visit_mut23visit_expr_for_loop_mutNtNvNtCscdP1gRbl3Ff_20pin_project_internal5utils23determine_lifetime_name16CollectLifetimesEB17_, symObjAddr: 0xC4F4, symBinAddr: 0xD14C, symSize: 0x10C }
  - { offset: 0x7AFE, size: 0x8, addend: 0x0, symName: __RINvNtNtCs6IAuOt8vWmF_3syn3gen9visit_mut23visit_expr_raw_addr_mutNtNtCscdP1gRbl3Ff_20pin_project_internal5utils15ReplaceReceiverEB15_, symObjAddr: 0xC600, symBinAddr: 0xD258, symSize: 0x88 }
  - { offset: 0x7B40, size: 0x8, addend: 0x0, symName: __RINvNtNtCs6IAuOt8vWmF_3syn3gen9visit_mut23visit_expr_raw_addr_mutNtNvNtCscdP1gRbl3Ff_20pin_project_internal5utils23determine_lifetime_name16CollectLifetimesEB17_, symObjAddr: 0xC688, symBinAddr: 0xD2E0, symSize: 0x88 }
  - { offset: 0x7B82, size: 0x8, addend: 0x0, symName: __RINvNtNtCs6IAuOt8vWmF_3syn3gen9visit_mut23visit_generic_param_mutNtNtCscdP1gRbl3Ff_20pin_project_internal5utils15ReplaceReceiverEB15_, symObjAddr: 0xC710, symBinAddr: 0xD368, symSize: 0xE8 }
  - { offset: 0x7C16, size: 0x8, addend: 0x0, symName: __RINvNtNtCs6IAuOt8vWmF_3syn3gen9visit_mut23visit_generic_param_mutNtNvNtCscdP1gRbl3Ff_20pin_project_internal5utils23determine_lifetime_name16CollectLifetimesEB17_, symObjAddr: 0xC7F8, symBinAddr: 0xD450, symSize: 0xE8 }
  - { offset: 0x7CAA, size: 0x8, addend: 0x0, symName: __RINvNtNtCs6IAuOt8vWmF_3syn3gen9visit_mut23visit_pat_reference_mutNtNtCscdP1gRbl3Ff_20pin_project_internal5utils15ReplaceReceiverEB15_, symObjAddr: 0xC8E0, symBinAddr: 0xD538, symSize: 0x78 }
  - { offset: 0x7CEC, size: 0x8, addend: 0x0, symName: __RINvNtNtCs6IAuOt8vWmF_3syn3gen9visit_mut23visit_pat_reference_mutNtNvNtCscdP1gRbl3Ff_20pin_project_internal5utils23determine_lifetime_name16CollectLifetimesEB17_, symObjAddr: 0xC958, symBinAddr: 0xD5B0, symSize: 0x78 }
  - { offset: 0x7D2E, size: 0x8, addend: 0x0, symName: __RINvNtNtCs6IAuOt8vWmF_3syn3gen9visit_mut23visit_trait_item_fn_mutNtNvNtCscdP1gRbl3Ff_20pin_project_internal5utils23determine_lifetime_name16CollectLifetimesEB17_, symObjAddr: 0xC9D0, symBinAddr: 0xD628, symSize: 0xA8 }
  - { offset: 0x7D8E, size: 0x8, addend: 0x0, symName: __RINvNtNtCs6IAuOt8vWmF_3syn3gen9visit_mut24visit_captured_param_mutNtNtCscdP1gRbl3Ff_20pin_project_internal5utils15ReplaceReceiverEB16_, symObjAddr: 0xCA78, symBinAddr: 0xD6D0, symSize: 0x94 }
  - { offset: 0x7E04, size: 0x8, addend: 0x0, symName: __RINvNtNtCs6IAuOt8vWmF_3syn3gen9visit_mut24visit_captured_param_mutNtNvNtCscdP1gRbl3Ff_20pin_project_internal5utils23determine_lifetime_name16CollectLifetimesEB18_, symObjAddr: 0xCB0C, symBinAddr: 0xD764, symSize: 0x94 }
  - { offset: 0x7E7A, size: 0x8, addend: 0x0, symName: __RINvNtNtCs6IAuOt8vWmF_3syn3gen9visit_mut24visit_expr_reference_mutNtNtCscdP1gRbl3Ff_20pin_project_internal5utils15ReplaceReceiverEB16_, symObjAddr: 0xCBA0, symBinAddr: 0xD7F8, symSize: 0x78 }
  - { offset: 0x7EBC, size: 0x8, addend: 0x0, symName: __RINvNtNtCs6IAuOt8vWmF_3syn3gen9visit_mut24visit_expr_reference_mutNtNvNtCscdP1gRbl3Ff_20pin_project_internal5utils23determine_lifetime_name16CollectLifetimesEB18_, symObjAddr: 0xCC18, symBinAddr: 0xD870, symSize: 0x78 }
  - { offset: 0x7EFE, size: 0x8, addend: 0x0, symName: __RINvNtNtCs6IAuOt8vWmF_3syn3gen9visit_mut24visit_expr_try_block_mutNtNtCscdP1gRbl3Ff_20pin_project_internal5utils15ReplaceReceiverEB16_, symObjAddr: 0xCC90, symBinAddr: 0xD8E8, symSize: 0x50 }
  - { offset: 0x7F40, size: 0x8, addend: 0x0, symName: __RINvNtNtCs6IAuOt8vWmF_3syn3gen9visit_mut24visit_expr_try_block_mutNtNvNtCscdP1gRbl3Ff_20pin_project_internal5utils23determine_lifetime_name16CollectLifetimesEB18_, symObjAddr: 0xCCE0, symBinAddr: 0xD938, symSize: 0x50 }
  - { offset: 0x7F82, size: 0x8, addend: 0x0, symName: __RINvNtNtCs6IAuOt8vWmF_3syn3gen9visit_mut24visit_fields_unnamed_mutNtNtCscdP1gRbl3Ff_20pin_project_internal5utils15ReplaceReceiverEB16_, symObjAddr: 0xCD30, symBinAddr: 0xD988, symSize: 0xC8 }
  - { offset: 0x8017, size: 0x8, addend: 0x0, symName: __RINvNtNtCs6IAuOt8vWmF_3syn3gen9visit_mut24visit_fields_unnamed_mutNtNvNtCscdP1gRbl3Ff_20pin_project_internal5utils23determine_lifetime_name16CollectLifetimesEB18_, symObjAddr: 0xCDF8, symBinAddr: 0xDA50, symSize: 0xC8 }
  - { offset: 0x80AC, size: 0x8, addend: 0x0, symName: __RINvNtNtCs6IAuOt8vWmF_3syn3gen9visit_mut24visit_impl_item_type_mutNtNvNtCscdP1gRbl3Ff_20pin_project_internal5utils23determine_lifetime_name16CollectLifetimesEB18_, symObjAddr: 0xCEC0, symBinAddr: 0xDB18, symSize: 0x80 }
  - { offset: 0x80EE, size: 0x8, addend: 0x0, symName: __RINvNtNtCs6IAuOt8vWmF_3syn3gen9visit_mut24visit_lifetime_param_mutNtNtCscdP1gRbl3Ff_20pin_project_internal5utils15ReplaceReceiverEB16_, symObjAddr: 0xCF40, symBinAddr: 0xDB98, symSize: 0xE0 }
  - { offset: 0x8183, size: 0x8, addend: 0x0, symName: __RINvNtNtCs6IAuOt8vWmF_3syn3gen9visit_mut24visit_path_arguments_mutNtNtCscdP1gRbl3Ff_20pin_project_internal5utils15ReplaceReceiverEB16_, symObjAddr: 0xD020, symBinAddr: 0xDC78, symSize: 0xD4 }
  - { offset: 0x81F9, size: 0x8, addend: 0x0, symName: __RINvNtNtCs6IAuOt8vWmF_3syn3gen9visit_mut24visit_path_arguments_mutNtNvNtCscdP1gRbl3Ff_20pin_project_internal5utils23determine_lifetime_name16CollectLifetimesEB18_, symObjAddr: 0xD0F4, symBinAddr: 0xDD4C, symSize: 0xD4 }
  - { offset: 0x826F, size: 0x8, addend: 0x0, symName: __RINvNtNtCs6IAuOt8vWmF_3syn3gen9visit_mut24visit_predicate_type_mutNtNtCscdP1gRbl3Ff_20pin_project_internal5utils15ReplaceReceiverEB16_, symObjAddr: 0xD1C8, symBinAddr: 0xDE20, symSize: 0x128 }
  - { offset: 0x8322, size: 0x8, addend: 0x0, symName: __RINvNtNtCs6IAuOt8vWmF_3syn3gen9visit_mut24visit_predicate_type_mutNtNvNtCscdP1gRbl3Ff_20pin_project_internal5utils23determine_lifetime_name16CollectLifetimesEB18_, symObjAddr: 0xD2F0, symBinAddr: 0xDF48, symSize: 0x128 }
  - { offset: 0x83D5, size: 0x8, addend: 0x0, symName: __RINvNtNtCs6IAuOt8vWmF_3syn3gen9visit_mut24visit_type_reference_mutNtNtCscdP1gRbl3Ff_20pin_project_internal5utils15ReplaceReceiverEB16_, symObjAddr: 0xD418, symBinAddr: 0xE070, symSize: 0xBC }
  - { offset: 0x8435, size: 0x8, addend: 0x0, symName: __RINvNtNtCs6IAuOt8vWmF_3syn3gen9visit_mut24visit_type_reference_mutNtNvNtCscdP1gRbl3Ff_20pin_project_internal5utils23determine_lifetime_name16CollectLifetimesEB18_, symObjAddr: 0xD4D4, symBinAddr: 0xE12C, symSize: 0xBC }
  - { offset: 0x8495, size: 0x8, addend: 0x0, symName: __RINvNtNtCs6IAuOt8vWmF_3syn3gen9visit_mut24visit_vis_restricted_mutNtNtCscdP1gRbl3Ff_20pin_project_internal5utils15ReplaceReceiverEB16_, symObjAddr: 0xD590, symBinAddr: 0xE1E8, symSize: 0x68 }
  - { offset: 0x84D7, size: 0x8, addend: 0x0, symName: __RINvNtNtCs6IAuOt8vWmF_3syn3gen9visit_mut24visit_vis_restricted_mutNtNvNtCscdP1gRbl3Ff_20pin_project_internal5utils23determine_lifetime_name16CollectLifetimesEB18_, symObjAddr: 0xD5F8, symBinAddr: 0xE250, symSize: 0x68 }
  - { offset: 0x8519, size: 0x8, addend: 0x0, symName: __RINvNtNtCs6IAuOt8vWmF_3syn3gen9visit_mut25visit_bound_lifetimes_mutNtNtCscdP1gRbl3Ff_20pin_project_internal5utils15ReplaceReceiverEB17_, symObjAddr: 0xD660, symBinAddr: 0xE2B8, symSize: 0xC8 }
  - { offset: 0x85AE, size: 0x8, addend: 0x0, symName: __RINvNtNtCs6IAuOt8vWmF_3syn3gen9visit_mut25visit_bound_lifetimes_mutNtNvNtCscdP1gRbl3Ff_20pin_project_internal5utils23determine_lifetime_name16CollectLifetimesEB19_, symObjAddr: 0xD728, symBinAddr: 0xE380, symSize: 0xC8 }
  - { offset: 0x8643, size: 0x8, addend: 0x0, symName: __RINvNtNtCs6IAuOt8vWmF_3syn3gen9visit_mut25visit_foreign_item_fn_mutNtNvNtCscdP1gRbl3Ff_20pin_project_internal5utils23determine_lifetime_name16CollectLifetimesEB19_, symObjAddr: 0xD7F0, symBinAddr: 0xE448, symSize: 0x60 }
  - { offset: 0x8685, size: 0x8, addend: 0x0, symName: __RINvNtNtCs6IAuOt8vWmF_3syn3gen9visit_mut25visit_impl_item_const_mutNtNvNtCscdP1gRbl3Ff_20pin_project_internal5utils23determine_lifetime_name16CollectLifetimesEB19_, symObjAddr: 0xD850, symBinAddr: 0xE4A8, symSize: 0x90 }
  - { offset: 0x86C7, size: 0x8, addend: 0x0, symName: __RINvNtNtCs6IAuOt8vWmF_3syn3gen9visit_mut25visit_impl_item_macro_mutNtNvNtCscdP1gRbl3Ff_20pin_project_internal5utils23determine_lifetime_name16CollectLifetimesEB19_, symObjAddr: 0xD8E0, symBinAddr: 0xE538, symSize: 0x50 }
  - { offset: 0x8709, size: 0x8, addend: 0x0, symName: __RINvNtNtCs6IAuOt8vWmF_3syn3gen9visit_mut25visit_macro_delimiter_mutNtNtCscdP1gRbl3Ff_20pin_project_internal5utils15ReplaceReceiverEB17_, symObjAddr: 0xD930, symBinAddr: 0xE588, symSize: 0xA8 }
  - { offset: 0x874B, size: 0x8, addend: 0x0, symName: __RINvNtNtCs6IAuOt8vWmF_3syn3gen9visit_mut25visit_macro_delimiter_mutNtNvNtCscdP1gRbl3Ff_20pin_project_internal5utils23determine_lifetime_name16CollectLifetimesEB19_, symObjAddr: 0xD9D8, symBinAddr: 0xE630, symSize: 0xA8 }
  - { offset: 0x878D, size: 0x8, addend: 0x0, symName: __RINvNtNtCs6IAuOt8vWmF_3syn3gen9visit_mut25visit_meta_name_value_mutNtNtCscdP1gRbl3Ff_20pin_project_internal5utils15ReplaceReceiverEB17_, symObjAddr: 0xDA80, symBinAddr: 0xE6D8, symSize: 0x50 }
  - { offset: 0x87CF, size: 0x8, addend: 0x0, symName: __RINvNtNtCs6IAuOt8vWmF_3syn3gen9visit_mut25visit_meta_name_value_mutNtNvNtCscdP1gRbl3Ff_20pin_project_internal5utils23determine_lifetime_name16CollectLifetimesEB19_, symObjAddr: 0xDAD0, symBinAddr: 0xE728, symSize: 0x50 }
  - { offset: 0x8811, size: 0x8, addend: 0x0, symName: __RINvNtNtCs6IAuOt8vWmF_3syn3gen9visit_mut25visit_precise_capture_mutNtNtCscdP1gRbl3Ff_20pin_project_internal5utils15ReplaceReceiverEB17_, symObjAddr: 0xDB20, symBinAddr: 0xE778, symSize: 0xC8 }
  - { offset: 0x88A6, size: 0x8, addend: 0x0, symName: __RINvNtNtCs6IAuOt8vWmF_3syn3gen9visit_mut25visit_precise_capture_mutNtNvNtCscdP1gRbl3Ff_20pin_project_internal5utils23determine_lifetime_name16CollectLifetimesEB19_, symObjAddr: 0xDBE8, symBinAddr: 0xE840, symSize: 0xC8 }
  - { offset: 0x893B, size: 0x8, addend: 0x0, symName: __RINvNtNtCs6IAuOt8vWmF_3syn3gen9visit_mut25visit_trait_item_type_mutNtNvNtCscdP1gRbl3Ff_20pin_project_internal5utils23determine_lifetime_name16CollectLifetimesEB19_, symObjAddr: 0xDCB0, symBinAddr: 0xE908, symSize: 0x148 }
  - { offset: 0x89E6, size: 0x8, addend: 0x0, symName: __RINvNtNtCs6IAuOt8vWmF_3syn3gen9visit_mut25visit_type_impl_trait_mutNtNtCscdP1gRbl3Ff_20pin_project_internal5utils15ReplaceReceiverEB17_, symObjAddr: 0xDDF8, symBinAddr: 0xEA50, symSize: 0xC8 }
  - { offset: 0x8A7B, size: 0x8, addend: 0x0, symName: __RINvNtNtCs6IAuOt8vWmF_3syn3gen9visit_mut25visit_type_impl_trait_mutNtNvNtCscdP1gRbl3Ff_20pin_project_internal5utils23determine_lifetime_name16CollectLifetimesEB19_, symObjAddr: 0xDEC0, symBinAddr: 0xEB18, symSize: 0xC8 }
  - { offset: 0x8B10, size: 0x8, addend: 0x0, symName: __RINvNtNtCs6IAuOt8vWmF_3syn3gen9visit_mut25visit_where_predicate_mutNtNtCscdP1gRbl3Ff_20pin_project_internal5utils15ReplaceReceiverEB17_, symObjAddr: 0xDF88, symBinAddr: 0xEBE0, symSize: 0x98 }
  - { offset: 0x8B86, size: 0x8, addend: 0x0, symName: __RINvNtNtCs6IAuOt8vWmF_3syn3gen9visit_mut25visit_where_predicate_mutNtNvNtCscdP1gRbl3Ff_20pin_project_internal5utils23determine_lifetime_name16CollectLifetimesEB19_, symObjAddr: 0xE020, symBinAddr: 0xEC78, symSize: 0x98 }
  - { offset: 0x8BFC, size: 0x8, addend: 0x0, symName: __RINvNtNtCs6IAuOt8vWmF_3syn3gen9visit_mut26visit_expr_method_call_mutNtNtCscdP1gRbl3Ff_20pin_project_internal5utils15ReplaceReceiverEB18_, symObjAddr: 0xE0B8, symBinAddr: 0xED10, symSize: 0x170 }
  - { offset: 0x8CA7, size: 0x8, addend: 0x0, symName: __RINvNtNtCs6IAuOt8vWmF_3syn3gen9visit_mut26visit_expr_method_call_mutNtNvNtCscdP1gRbl3Ff_20pin_project_internal5utils23determine_lifetime_name16CollectLifetimesEB1a_, symObjAddr: 0xE228, symBinAddr: 0xEE80, symSize: 0x170 }
  - { offset: 0x8D52, size: 0x8, addend: 0x0, symName: __RINvNtNtCs6IAuOt8vWmF_3syn3gen9visit_mut26visit_field_mutability_mutNtNtCscdP1gRbl3Ff_20pin_project_internal5utils15ReplaceReceiverEB18_, symObjAddr: 0xE398, symBinAddr: 0xEFF0, symSize: 0x24 }
  - { offset: 0x8D94, size: 0x8, addend: 0x0, symName: __RINvNtNtCs6IAuOt8vWmF_3syn3gen9visit_mut26visit_field_mutability_mutNtNvNtCscdP1gRbl3Ff_20pin_project_internal5utils23determine_lifetime_name16CollectLifetimesEB1a_, symObjAddr: 0xE3BC, symBinAddr: 0xF014, symSize: 0x24 }
  - { offset: 0x8DD6, size: 0x8, addend: 0x0, symName: __RINvNtNtCs6IAuOt8vWmF_3syn3gen9visit_mut26visit_generic_argument_mutNtNtCscdP1gRbl3Ff_20pin_project_internal5utils15ReplaceReceiverEB18_, symObjAddr: 0xE3E0, symBinAddr: 0xF038, symSize: 0x1A8 }
  - { offset: 0x8EC4, size: 0x8, addend: 0x0, symName: __RINvNtNtCs6IAuOt8vWmF_3syn3gen9visit_mut26visit_generic_argument_mutNtNvNtCscdP1gRbl3Ff_20pin_project_internal5utils23determine_lifetime_name16CollectLifetimesEB1a_, symObjAddr: 0xE588, symBinAddr: 0xF1E0, symSize: 0x1A8 }
  - { offset: 0x8FB2, size: 0x8, addend: 0x0, symName: __RINvNtNtCs6IAuOt8vWmF_3syn3gen9visit_mut26visit_item_foreign_mod_mutNtNvNtCscdP1gRbl3Ff_20pin_project_internal5utils23determine_lifetime_name16CollectLifetimesEB1a_, symObjAddr: 0xE730, symBinAddr: 0xF388, symSize: 0xB0 }
  - { offset: 0x9028, size: 0x8, addend: 0x0, symName: __RINvNtNtCs6IAuOt8vWmF_3syn3gen9visit_mut26visit_item_trait_alias_mutNtNvNtCscdP1gRbl3Ff_20pin_project_internal5utils23determine_lifetime_name16CollectLifetimesEB1a_, symObjAddr: 0xE7E0, symBinAddr: 0xF438, symSize: 0x100 }
  - { offset: 0x90BD, size: 0x8, addend: 0x0, symName: __RINvNtNtCs6IAuOt8vWmF_3syn3gen9visit_mut26visit_pat_tuple_struct_mutNtNtCscdP1gRbl3Ff_20pin_project_internal5utils15ReplaceReceiverEB18_, symObjAddr: 0xE8E0, symBinAddr: 0xF538, symSize: 0x134 }
  - { offset: 0x9170, size: 0x8, addend: 0x0, symName: __RINvNtNtCs6IAuOt8vWmF_3syn3gen9visit_mut26visit_pat_tuple_struct_mutNtNvNtCscdP1gRbl3Ff_20pin_project_internal5utils23determine_lifetime_name16CollectLifetimesEB1a_, symObjAddr: 0xEA14, symBinAddr: 0xF66C, symSize: 0x134 }
  - { offset: 0x9223, size: 0x8, addend: 0x0, symName: __RINvNtNtCs6IAuOt8vWmF_3syn3gen9visit_mut26visit_trait_item_const_mutNtNvNtCscdP1gRbl3Ff_20pin_project_internal5utils23determine_lifetime_name16CollectLifetimesEB1a_, symObjAddr: 0xEB48, symBinAddr: 0xF7A0, symSize: 0xC4 }
  - { offset: 0x9283, size: 0x8, addend: 0x0, symName: __RINvNtNtCs6IAuOt8vWmF_3syn3gen9visit_mut26visit_trait_item_macro_mutNtNvNtCscdP1gRbl3Ff_20pin_project_internal5utils23determine_lifetime_name16CollectLifetimesEB1a_, symObjAddr: 0xEC0C, symBinAddr: 0xF864, symSize: 0x50 }
  - { offset: 0x92C5, size: 0x8, addend: 0x0, symName: __RINvNtNtCs6IAuOt8vWmF_3syn3gen9visit_mut26visit_type_param_bound_mutNtNtCscdP1gRbl3Ff_20pin_project_internal5utils15ReplaceReceiverEB18_, symObjAddr: 0xEC5C, symBinAddr: 0xF8B4, symSize: 0x12C }
  - { offset: 0x9377, size: 0x8, addend: 0x0, symName: __RINvNtNtCs6IAuOt8vWmF_3syn3gen9visit_mut26visit_type_param_bound_mutNtNvNtCscdP1gRbl3Ff_20pin_project_internal5utils23determine_lifetime_name16CollectLifetimesEB1a_, symObjAddr: 0xED88, symBinAddr: 0xF9E0, symSize: 0x12C }
  - { offset: 0x9429, size: 0x8, addend: 0x0, symName: __RINvNtNtCs6IAuOt8vWmF_3syn3gen9visit_mut27visit_foreign_item_type_mutNtNvNtCscdP1gRbl3Ff_20pin_project_internal5utils23determine_lifetime_name16CollectLifetimesEB1b_, symObjAddr: 0xEEB4, symBinAddr: 0xFB0C, symSize: 0x70 }
  - { offset: 0x946B, size: 0x8, addend: 0x0, symName: __RINvNtNtCs6IAuOt8vWmF_3syn3gen9visit_mut27visit_item_extern_crate_mutNtNvNtCscdP1gRbl3Ff_20pin_project_internal5utils23determine_lifetime_name16CollectLifetimesEB1b_, symObjAddr: 0xEF24, symBinAddr: 0xFB7C, symSize: 0xB4 }
  - { offset: 0x94CB, size: 0x8, addend: 0x0, symName: __RINvNtNtCs6IAuOt8vWmF_3syn3gen9visit_mut27visit_static_mutability_mutNtNvNtCscdP1gRbl3Ff_20pin_project_internal5utils23determine_lifetime_name16CollectLifetimesEB1b_, symObjAddr: 0xEFD8, symBinAddr: 0xFC30, symSize: 0x60 }
  - { offset: 0x950D, size: 0x8, addend: 0x0, symName: __RINvNtNtCs6IAuOt8vWmF_3syn3gen9visit_mut27visit_type_trait_object_mutNtNtCscdP1gRbl3Ff_20pin_project_internal5utils15ReplaceReceiverEB19_, symObjAddr: 0xF038, symBinAddr: 0xFC90, symSize: 0xC8 }
  - { offset: 0x95A2, size: 0x8, addend: 0x0, symName: __RINvNtNtCs6IAuOt8vWmF_3syn3gen9visit_mut27visit_type_trait_object_mutNtNvNtCscdP1gRbl3Ff_20pin_project_internal5utils23determine_lifetime_name16CollectLifetimesEB1b_, symObjAddr: 0xF100, symBinAddr: 0xFD58, symSize: 0xC8 }
  - { offset: 0x9637, size: 0x8, addend: 0x0, symName: __RINvNtNtCs6IAuOt8vWmF_3syn3gen9visit_mut28visit_foreign_item_macro_mutNtNvNtCscdP1gRbl3Ff_20pin_project_internal5utils23determine_lifetime_name16CollectLifetimesEB1c_, symObjAddr: 0xF1C8, symBinAddr: 0xFE20, symSize: 0x50 }
  - { offset: 0x9679, size: 0x8, addend: 0x0, symName: __RINvNtNtCs6IAuOt8vWmF_3syn3gen9visit_mut28visit_pointer_mutability_mutNtNtCscdP1gRbl3Ff_20pin_project_internal5utils15ReplaceReceiverEB1a_, symObjAddr: 0xF218, symBinAddr: 0xFE70, symSize: 0x6C }
  - { offset: 0x96BB, size: 0x8, addend: 0x0, symName: __RINvNtNtCs6IAuOt8vWmF_3syn3gen9visit_mut28visit_pointer_mutability_mutNtNvNtCscdP1gRbl3Ff_20pin_project_internal5utils23determine_lifetime_name16CollectLifetimesEB1c_, symObjAddr: 0xF284, symBinAddr: 0xFEDC, symSize: 0x6C }
  - { offset: 0x96FD, size: 0x8, addend: 0x0, symName: __RINvNtNtCs6IAuOt8vWmF_3syn3gen9visit_mut28visit_predicate_lifetime_mutNtNtCscdP1gRbl3Ff_20pin_project_internal5utils15ReplaceReceiverEB1a_, symObjAddr: 0xF2F0, symBinAddr: 0xFF48, symSize: 0xD0 }
  - { offset: 0x9792, size: 0x8, addend: 0x0, symName: __RINvNtNtCs6IAuOt8vWmF_3syn3gen9visit_mut28visit_predicate_lifetime_mutNtNvNtCscdP1gRbl3Ff_20pin_project_internal5utils23determine_lifetime_name16CollectLifetimesEB1c_, symObjAddr: 0xF3C0, symBinAddr: 0x10018, symSize: 0xD0 }
  - { offset: 0x9827, size: 0x8, addend: 0x0, symName: __RINvNtNtCs6IAuOt8vWmF_3syn3gen9visit_mut29visit_foreign_item_static_mutNtNvNtCscdP1gRbl3Ff_20pin_project_internal5utils23determine_lifetime_name16CollectLifetimesEB1d_, symObjAddr: 0xF490, symBinAddr: 0x100E8, symSize: 0xA8 }
  - { offset: 0x9869, size: 0x8, addend: 0x0, symName: __RINvNtNtCs6IAuOt8vWmF_3syn3gen9visit_mut30visit_trait_bound_modifier_mutNtNtCscdP1gRbl3Ff_20pin_project_internal5utils15ReplaceReceiverEB1c_, symObjAddr: 0xF538, symBinAddr: 0x10190, symSize: 0x60 }
  - { offset: 0x98AB, size: 0x8, addend: 0x0, symName: __RINvNtNtCs6IAuOt8vWmF_3syn3gen9visit_mut30visit_trait_bound_modifier_mutNtNvNtCscdP1gRbl3Ff_20pin_project_internal5utils23determine_lifetime_name16CollectLifetimesEB1e_, symObjAddr: 0xF598, symBinAddr: 0x101F0, symSize: 0x60 }
  - { offset: 0x98ED, size: 0x8, addend: 0x0, symName: __RINvNtNtCs6IAuOt8vWmF_3syn3gen9visit_mut41visit_parenthesized_generic_arguments_mutNtNtCscdP1gRbl3Ff_20pin_project_internal5utils15ReplaceReceiverEB1n_, symObjAddr: 0xF5F8, symBinAddr: 0x10250, symSize: 0xD8 }
  - { offset: 0x9982, size: 0x8, addend: 0x0, symName: __RINvNtNtCs6IAuOt8vWmF_3syn3gen9visit_mut41visit_parenthesized_generic_arguments_mutNtNvNtCscdP1gRbl3Ff_20pin_project_internal5utils23determine_lifetime_name16CollectLifetimesEB1p_, symObjAddr: 0xF6D0, symBinAddr: 0x10328, symSize: 0xD8 }
  - { offset: 0x9A17, size: 0x8, addend: 0x0, symName: __RINvNtNtCs6IAuOt8vWmF_3syn3gen9visit_mut43visit_angle_bracketed_generic_arguments_mutNtNtCscdP1gRbl3Ff_20pin_project_internal5utils15ReplaceReceiverEB1p_, symObjAddr: 0xF7A8, symBinAddr: 0x10400, symSize: 0xC8 }
  - { offset: 0x9AAC, size: 0x8, addend: 0x0, symName: __RINvNtNtCs6IAuOt8vWmF_3syn3gen9visit_mut43visit_angle_bracketed_generic_arguments_mutNtNvNtCscdP1gRbl3Ff_20pin_project_internal5utils23determine_lifetime_name16CollectLifetimesEB1r_, symObjAddr: 0xF870, symBinAddr: 0x104C8, symSize: 0xC8 }
  - { offset: 0x14846, size: 0x8, addend: 0x0, symName: __RNvXs2_NtNtNtCsfvfooZQ3Axs_4core3ops8function5implsQNCNvNtNtCscdP1gRbl3Ff_20pin_project_internal11pin_project6derive15make_unpin_impl0INtB7_6FnOnceTTjRRNtNtCs6IAuOt8vWmF_3syn2ty4TypeEEE9call_onceBW_, symObjAddr: 0x0, symBinAddr: 0x10590, symSize: 0x34 }
  - { offset: 0x1D11A, size: 0x8, addend: 0x0, symName: __RNvXs2_NtNtNtCsfvfooZQ3Axs_4core3ops8function5implsQNCNvNtNtCscdP1gRbl3Ff_20pin_project_internal11pin_project6derive15make_unpin_impl0INtB7_6FnOnceTTjRRNtNtCs6IAuOt8vWmF_3syn2ty4TypeEEE9call_onceBW_, symObjAddr: 0x0, symBinAddr: 0x10590, symSize: 0x34 }
  - { offset: 0x1D169, size: 0x8, addend: 0x0, symName: __RNvXs2_NtNtNtCsfvfooZQ3Axs_4core3ops8function5implsQNCNvNtNtCscdP1gRbl3Ff_20pin_project_internal11pin_project6derive15make_unpin_impls0_0INtB7_6FnOnceTRNtNtCs6IAuOt8vWmF_3syn8generics9TypeParamEE9call_onceBW_, symObjAddr: 0x34, symBinAddr: 0x105C4, symSize: 0x2C }
  - { offset: 0x1D1B8, size: 0x8, addend: 0x0, symName: __RNvXs2_NtNtNtCsfvfooZQ3Axs_4core3ops8function5implsQNCNvNtNtCscdP1gRbl3Ff_20pin_project_internal11pin_project6derive15make_unpin_impls_0INtB7_6FnOnceTTjRNtNtCs6IAuOt8vWmF_3syn8generics13LifetimeParamEEE9call_onceBW_, symObjAddr: 0x60, symBinAddr: 0x105F0, symSize: 0x34 }
  - { offset: 0x1DE9C, size: 0x8, addend: 0x0, symName: __RNvNtNtCscdP1gRbl3Ff_20pin_project_internal11pin_project6derive12parse_derive, symObjAddr: 0x94, symBinAddr: 0x10624, symSize: 0x7DC }
  - { offset: 0x1E239, size: 0x8, addend: 0x0, symName: __RNvNtNtCscdP1gRbl3Ff_20pin_project_internal11pin_project6derive20global_allowed_lints, symObjAddr: 0x1020, symBinAddr: 0x115B0, symSize: 0x3BC }
  - { offset: 0x1E26C, size: 0x8, addend: 0x0, symName: __RNvNtNtCscdP1gRbl3Ff_20pin_project_internal11pin_project6derive18proj_allowed_lints, symObjAddr: 0x13DC, symBinAddr: 0x1196C, symSize: 0x8C0 }
  - { offset: 0x1E43D, size: 0x8, addend: 0x0, symName: __RNCNvMs_NtNtCscdP1gRbl3Ff_20pin_project_internal11pin_project6deriveNtB6_7Context3new0Ba_, symObjAddr: 0x268C, symBinAddr: 0x12C1C, symSize: 0x48 }
  - { offset: 0x1E47A, size: 0x8, addend: 0x0, symName: __RNCNvMs_NtNtCscdP1gRbl3Ff_20pin_project_internal11pin_project6deriveNtB6_7Context3news_0Ba_, symObjAddr: 0x26D4, symBinAddr: 0x12C64, symSize: 0x118 }
  - { offset: 0x1E4DB, size: 0x8, addend: 0x0, symName: __RNCNvMs_NtNtCscdP1gRbl3Ff_20pin_project_internal11pin_project6deriveNtB6_7Context3news0_0Ba_, symObjAddr: 0x27EC, symBinAddr: 0x12D7C, symSize: 0x118 }
  - { offset: 0x1E53C, size: 0x8, addend: 0x0, symName: __RNCNvMs_NtNtCscdP1gRbl3Ff_20pin_project_internal11pin_project6deriveNtB6_7Context3news1_0Ba_, symObjAddr: 0x2904, symBinAddr: 0x12E94, symSize: 0x118 }
  - { offset: 0x1E59F, size: 0x8, addend: 0x0, symName: __RNvNtNtCscdP1gRbl3Ff_20pin_project_internal11pin_project6derive15validate_struct, symObjAddr: 0x2A1C, symBinAddr: 0x12FAC, symSize: 0x118 }
  - { offset: 0x1E5F2, size: 0x8, addend: 0x0, symName: __RNvNtNtCscdP1gRbl3Ff_20pin_project_internal11pin_project6derive13validate_enum, symObjAddr: 0x2B34, symBinAddr: 0x130C4, symSize: 0x1E0 }
  - { offset: 0x1E66A, size: 0x8, addend: 0x0, symName: __RNCNvNtNtCscdP1gRbl3Ff_20pin_project_internal11pin_project6derive13validate_enum0B7_, symObjAddr: 0x2D14, symBinAddr: 0x132A4, symSize: 0x1A8 }
  - { offset: 0x1E6EE, size: 0x8, addend: 0x0, symName: __RNvNtNtCscdP1gRbl3Ff_20pin_project_internal11pin_project6derive12parse_struct, symObjAddr: 0x2EBC, symBinAddr: 0x1344C, symSize: 0x11B0 }
  - { offset: 0x1EB01, size: 0x8, addend: 0x0, symName: __RNvNtNtCscdP1gRbl3Ff_20pin_project_internal11pin_project6derive10parse_enum, symObjAddr: 0x406C, symBinAddr: 0x145FC, symSize: 0xDBC }
  - { offset: 0x1EEB0, size: 0x8, addend: 0x0, symName: __RNvNtNtCscdP1gRbl3Ff_20pin_project_internal11pin_project6derive14visit_variants, symObjAddr: 0x4E28, symBinAddr: 0x153B8, symSize: 0xB7C }
  - { offset: 0x1F164, size: 0x8, addend: 0x0, symName: __RNvNtNtCscdP1gRbl3Ff_20pin_project_internal11pin_project6derive12visit_fields, symObjAddr: 0x59A4, symBinAddr: 0x15F34, symSize: 0x1578 }
  - { offset: 0x1F585, size: 0x8, addend: 0x0, symName: __RNvNvNtNtCscdP1gRbl3Ff_20pin_project_internal11pin_project6derive12visit_fields8surround, symObjAddr: 0x6F1C, symBinAddr: 0x174AC, symSize: 0x48 }
  - { offset: 0x1F5C3, size: 0x8, addend: 0x0, symName: __RNCNvNtNtCscdP1gRbl3Ff_20pin_project_internal11pin_project6derive12visit_fields0B7_, symObjAddr: 0x6F64, symBinAddr: 0x174F4, symSize: 0x118 }
  - { offset: 0x1F629, size: 0x8, addend: 0x0, symName: __RNvNtNtCscdP1gRbl3Ff_20pin_project_internal11pin_project6derive13proj_own_body, symObjAddr: 0x707C, symBinAddr: 0x1760C, symSize: 0x4B4 }
  - { offset: 0x1F7DE, size: 0x8, addend: 0x0, symName: __RNvNtNtCscdP1gRbl3Ff_20pin_project_internal11pin_project6derive15make_unpin_impl, symObjAddr: 0x7530, symBinAddr: 0x17AC0, symSize: 0x1CFC }
  - { offset: 0x1FEF3, size: 0x8, addend: 0x0, symName: __RNCNvNtNtCscdP1gRbl3Ff_20pin_project_internal11pin_project6derive15make_unpin_impl0B7_, symObjAddr: 0x922C, symBinAddr: 0x197BC, symSize: 0x1CC }
  - { offset: 0x1FFB4, size: 0x8, addend: 0x0, symName: __RNCNvNtNtCscdP1gRbl3Ff_20pin_project_internal11pin_project6derive15make_unpin_impls_0B7_, symObjAddr: 0x93F8, symBinAddr: 0x19988, symSize: 0x1F8 }
  - { offset: 0x20075, size: 0x8, addend: 0x0, symName: __RNCNvNtNtCscdP1gRbl3Ff_20pin_project_internal11pin_project6derive15make_unpin_impls0_0B7_, symObjAddr: 0x95F0, symBinAddr: 0x19B80, symSize: 0x28 }
  - { offset: 0x200AE, size: 0x8, addend: 0x0, symName: __RNCNvNtNtCscdP1gRbl3Ff_20pin_project_internal11pin_project6derive15make_unpin_impls1_0B7_, symObjAddr: 0xCBE0, symBinAddr: 0x1D170, symSize: 0x4C }
  - { offset: 0x200EA, size: 0x8, addend: 0x0, symName: __RINvNCNvNtNtCscdP1gRbl3Ff_20pin_project_internal11pin_project6derive15make_unpin_impls1_018panic_cold_displayNtNtCs6IAuOt8vWmF_3syn5error5ErrorEBa_, symObjAddr: 0xCC2C, symBinAddr: 0x1ACBE0, symSize: 0x28 }
  - { offset: 0x20139, size: 0x8, addend: 0x0, symName: __RNvNtNtCscdP1gRbl3Ff_20pin_project_internal11pin_project6derive14make_drop_impl, symObjAddr: 0x9618, symBinAddr: 0x19BA8, symSize: 0x1258 }
  - { offset: 0x204B1, size: 0x8, addend: 0x0, symName: __RNvNtNtCscdP1gRbl3Ff_20pin_project_internal11pin_project6derive14make_proj_impl, symObjAddr: 0xA870, symBinAddr: 0x1AE00, symSize: 0xDA0 }
  - { offset: 0x207D2, size: 0x8, addend: 0x0, symName: __RNCNvNtNtCscdP1gRbl3Ff_20pin_project_internal11pin_project6derive14make_proj_impl0B7_, symObjAddr: 0xB610, symBinAddr: 0x1BBA0, symSize: 0x7B8 }
  - { offset: 0x20949, size: 0x8, addend: 0x0, symName: __RNvNtNtCscdP1gRbl3Ff_20pin_project_internal11pin_project6derive17ensure_not_packed, symObjAddr: 0xBDC8, symBinAddr: 0x1C358, symSize: 0xC04 }
  - { offset: 0x20C95, size: 0x8, addend: 0x0, symName: __RNvXs0_NtNtCscdP1gRbl3Ff_20pin_project_internal11pin_project6deriveNtB5_14GenerateTokensNtNtCsfvfooZQ3Axs_4core7default7Default7defaultB9_, symObjAddr: 0xC9CC, symBinAddr: 0x1CF5C, symSize: 0x7C }
  - { offset: 0x20CB8, size: 0x8, addend: 0x0, symName: __RNvXs4_NtNtCscdP1gRbl3Ff_20pin_project_internal11pin_project6deriveNtB5_8TypeKindNtNtCsfvfooZQ3Axs_4core3cmp9PartialEq2eqB9_, symObjAddr: 0xCA48, symBinAddr: 0x1CFD8, symSize: 0x3C }
  - { offset: 0x20D32, size: 0x8, addend: 0x0, symName: __RNvXs5_NtNtCscdP1gRbl3Ff_20pin_project_internal11pin_project6deriveNtB5_15ProjectedFieldsNtNtCsfvfooZQ3Axs_4core7default7Default7defaultB9_, symObjAddr: 0xCA84, symBinAddr: 0x1D014, symSize: 0x15C }
  - { offset: 0x20F14, size: 0x8, addend: 0x0, symName: __RNvMNtNtCscdP1gRbl3Ff_20pin_project_internal11pin_project6deriveNtB2_14GenerateTokens6extend, symObjAddr: 0x870, symBinAddr: 0x10E00, symSize: 0x78 }
  - { offset: 0x20FAE, size: 0x8, addend: 0x0, symName: __RNvMNtNtCscdP1gRbl3Ff_20pin_project_internal11pin_project6deriveNtB2_14GenerateTokens11into_tokens, symObjAddr: 0x8E8, symBinAddr: 0x10E78, symSize: 0x738 }
  - { offset: 0x210FE, size: 0x8, addend: 0x0, symName: __RNvMs_NtNtCscdP1gRbl3Ff_20pin_project_internal11pin_project6deriveNtB4_7Context3new, symObjAddr: 0x1C9C, symBinAddr: 0x1222C, symSize: 0x9F0 }
  - { offset: 0x216DF, size: 0x8, addend: 0x0, symName: __RINvXs2U_NtNtCsfvfooZQ3Axs_4core5slice4iterINtB7_4IterNtNtCs6IAuOt8vWmF_3syn4attr9AttributeENtNtNtNtBb_4iter6traits8iterator8Iterator4findQNCNvNtNtCscdP1gRbl3Ff_20pin_project_internal11pin_project4args10parse_args0EB2l_, symObjAddr: 0x0, symBinAddr: 0x1D1BC, symSize: 0xB4 }
  - { offset: 0x2203B, size: 0x8, addend: 0x0, symName: __RINvXs2U_NtNtCsfvfooZQ3Axs_4core5slice4iterINtB7_4IterNtNtCs6IAuOt8vWmF_3syn4attr9AttributeENtNtNtNtBb_4iter6traits8iterator8Iterator4findQNCNvNtNtCscdP1gRbl3Ff_20pin_project_internal11pin_project4args10parse_args0EB2l_, symObjAddr: 0x0, symBinAddr: 0x1D1BC, symSize: 0xB4 }
  - { offset: 0x220A0, size: 0x8, addend: 0x0, symName: __RINvXs2U_NtNtCsfvfooZQ3Axs_4core5slice4iterINtB7_4IterNtNtCs6IAuOt8vWmF_3syn4attr9AttributeENtNtNtNtBb_4iter6traits8iterator8Iterator8positionNCNvXNtCscdP1gRbl3Ff_20pin_project_internal5utilsSBQ_NtB2l_8SliceExt4find0EB2n_, symObjAddr: 0xB4, symBinAddr: 0x1D270, symSize: 0x188 }
  - { offset: 0x2215E, size: 0x8, addend: 0x0, symName: __RINvXs2U_NtNtCsfvfooZQ3Axs_4core5slice4iterINtB7_4IterNtNtCse1nGBsou5OW_5alloc6string6StringENtNtNtNtBb_4iter6traits8iterator8Iterator3anyNCNvNtCscdP1gRbl3Ff_20pin_project_internal5utils23determine_lifetime_name0EB2i_, symObjAddr: 0x23C, symBinAddr: 0x1D3F8, symSize: 0xB4 }
  - { offset: 0x221C3, size: 0x8, addend: 0x0, symName: __RNvXs2U_NtNtCsfvfooZQ3Axs_4core5slice4iterINtB6_4IterINtNtBa_6option6OptionRNtCs3cP53eQoTwO_11proc_macro25IdentEENtNtNtNtBa_4iter6traits8iterator8Iterator4nextCscdP1gRbl3Ff_20pin_project_internal, symObjAddr: 0xE9C, symBinAddr: 0x1E058, symSize: 0xBC }
  - { offset: 0x22311, size: 0x8, addend: 0x0, symName: __RNvXs2U_NtNtCsfvfooZQ3Axs_4core5slice4iterINtB6_4IterNtCs3cP53eQoTwO_11proc_macro211TokenStreamENtNtNtNtBa_4iter6traits8iterator8Iterator4nextCscdP1gRbl3Ff_20pin_project_internal, symObjAddr: 0xF58, symBinAddr: 0x1E114, symSize: 0xBC }
  - { offset: 0x2245F, size: 0x8, addend: 0x0, symName: __RNvXs2U_NtNtCsfvfooZQ3Axs_4core5slice4iterINtB6_4IterNtNtCse1nGBsou5OW_5alloc6string6StringENtNtNtNtBa_4iter6traits8iterator8Iterator4nextCscdP1gRbl3Ff_20pin_project_internal, symObjAddr: 0x1014, symBinAddr: 0x1E1D0, symSize: 0xBC }
  - { offset: 0x225AD, size: 0x8, addend: 0x0, symName: __RNvXs2U_NtNtCsfvfooZQ3Axs_4core5slice4iterINtB6_4IterRNtNtCs6IAuOt8vWmF_3syn2ty4TypeENtNtNtNtBa_4iter6traits8iterator8Iterator4nextCscdP1gRbl3Ff_20pin_project_internal, symObjAddr: 0x10D0, symBinAddr: 0x1E28C, symSize: 0xBC }
  - { offset: 0x23161, size: 0x8, addend: 0x0, symName: __RNvXs2V_NtNtCsfvfooZQ3Axs_4core5slice4iterINtB6_4IterNtCs3cP53eQoTwO_11proc_macro25IdentENtNtNtNtBa_4iter6traits12double_ended19DoubleEndedIterator9next_backCscdP1gRbl3Ff_20pin_project_internal, symObjAddr: 0x118C, symBinAddr: 0x1E348, symSize: 0x100 }
  - { offset: 0x232BD, size: 0x8, addend: 0x0, symName: __RNvXs2V_NtNtCsfvfooZQ3Axs_4core5slice4iterINtB6_4IterTNtNtCs6IAuOt8vWmF_3syn4data7VariantNtNtBU_5token5CommaEENtNtNtNtBa_4iter6traits12double_ended19DoubleEndedIterator9next_backCscdP1gRbl3Ff_20pin_project_internal, symObjAddr: 0x128C, symBinAddr: 0x1E448, symSize: 0x100 }
  - { offset: 0x23419, size: 0x8, addend: 0x0, symName: __RNvXs2V_NtNtCsfvfooZQ3Axs_4core5slice4iterINtB6_4IterTNtNtCs6IAuOt8vWmF_3syn4path15GenericArgumentNtNtBU_5token5CommaEENtNtNtNtBa_4iter6traits12double_ended19DoubleEndedIterator9next_backCscdP1gRbl3Ff_20pin_project_internal, symObjAddr: 0x138C, symBinAddr: 0x1E548, symSize: 0x100 }
  - { offset: 0x23A22, size: 0x8, addend: 0x0, symName: __RNvXs32_NtNtCsfvfooZQ3Axs_4core5slice4iterINtB6_7IterMutNtNtCs6IAuOt8vWmF_3syn4attr9AttributeENtNtNtNtBa_4iter6traits8iterator8Iterator4nextCscdP1gRbl3Ff_20pin_project_internal, symObjAddr: 0x148C, symBinAddr: 0x1E648, symSize: 0xBC }
  - { offset: 0x23B5B, size: 0x8, addend: 0x0, symName: __RNvXs32_NtNtCsfvfooZQ3Axs_4core5slice4iterINtB6_7IterMutNtNtCs6IAuOt8vWmF_3syn4expr3ArmENtNtNtNtBa_4iter6traits8iterator8Iterator4nextCscdP1gRbl3Ff_20pin_project_internal, symObjAddr: 0x1548, symBinAddr: 0x1E704, symSize: 0xBC }
  - { offset: 0x23C94, size: 0x8, addend: 0x0, symName: __RNvXs32_NtNtCsfvfooZQ3Axs_4core5slice4iterINtB6_7IterMutNtNtCs6IAuOt8vWmF_3syn4item11ForeignItemENtNtNtNtBa_4iter6traits8iterator8Iterator4nextCscdP1gRbl3Ff_20pin_project_internal, symObjAddr: 0x1604, symBinAddr: 0x1E7C0, symSize: 0xBC }
  - { offset: 0x23DCD, size: 0x8, addend: 0x0, symName: __RNvXs32_NtNtCsfvfooZQ3Axs_4core5slice4iterINtB6_7IterMutNtNtCs6IAuOt8vWmF_3syn4item4ItemENtNtNtNtBa_4iter6traits8iterator8Iterator4nextCscdP1gRbl3Ff_20pin_project_internal, symObjAddr: 0x16C0, symBinAddr: 0x1E87C, symSize: 0xBC }
  - { offset: 0x23F06, size: 0x8, addend: 0x0, symName: __RNvXs32_NtNtCsfvfooZQ3Axs_4core5slice4iterINtB6_7IterMutNtNtCs6IAuOt8vWmF_3syn4item8ImplItemENtNtNtNtBa_4iter6traits8iterator8Iterator4nextCscdP1gRbl3Ff_20pin_project_internal, symObjAddr: 0x177C, symBinAddr: 0x1E938, symSize: 0xBC }
  - { offset: 0x2403F, size: 0x8, addend: 0x0, symName: __RNvXs32_NtNtCsfvfooZQ3Axs_4core5slice4iterINtB6_7IterMutNtNtCs6IAuOt8vWmF_3syn4item9TraitItemENtNtNtNtBa_4iter6traits8iterator8Iterator4nextCscdP1gRbl3Ff_20pin_project_internal, symObjAddr: 0x1838, symBinAddr: 0x1E9F4, symSize: 0xBC }
  - { offset: 0x24178, size: 0x8, addend: 0x0, symName: __RNvXs32_NtNtCsfvfooZQ3Axs_4core5slice4iterINtB6_7IterMutNtNtCs6IAuOt8vWmF_3syn4stmt4StmtENtNtNtNtBa_4iter6traits8iterator8Iterator4nextCscdP1gRbl3Ff_20pin_project_internal, symObjAddr: 0x18F4, symBinAddr: 0x1EAB0, symSize: 0xBC }
  - { offset: 0x242B1, size: 0x8, addend: 0x0, symName: __RNvXs32_NtNtCsfvfooZQ3Axs_4core5slice4iterINtB6_7IterMutTNtNtCs6IAuOt8vWmF_3syn2ty4TypeNtNtBX_5token5CommaEENtNtNtNtBa_4iter6traits8iterator8Iterator4nextCscdP1gRbl3Ff_20pin_project_internal, symObjAddr: 0x19B0, symBinAddr: 0x1EB6C, symSize: 0xBC }
  - { offset: 0x243EA, size: 0x8, addend: 0x0, symName: __RNvXs32_NtNtCsfvfooZQ3Axs_4core5slice4iterINtB6_7IterMutTNtNtCs6IAuOt8vWmF_3syn2ty9BareFnArgNtNtBX_5token5CommaEENtNtNtNtBa_4iter6traits8iterator8Iterator4nextCscdP1gRbl3Ff_20pin_project_internal, symObjAddr: 0x1A6C, symBinAddr: 0x1EC28, symSize: 0xBC }
  - { offset: 0x24523, size: 0x8, addend: 0x0, symName: __RNvXs32_NtNtCsfvfooZQ3Axs_4core5slice4iterINtB6_7IterMutTNtNtCs6IAuOt8vWmF_3syn3pat3PatNtNtBX_5token2OrEENtNtNtNtBa_4iter6traits8iterator8Iterator4nextCscdP1gRbl3Ff_20pin_project_internal, symObjAddr: 0x1B28, symBinAddr: 0x1ECE4, symSize: 0xBC }
  - { offset: 0x2465C, size: 0x8, addend: 0x0, symName: __RNvXs32_NtNtCsfvfooZQ3Axs_4core5slice4iterINtB6_7IterMutTNtNtCs6IAuOt8vWmF_3syn3pat3PatNtNtBX_5token5CommaEENtNtNtNtBa_4iter6traits8iterator8Iterator4nextCscdP1gRbl3Ff_20pin_project_internal, symObjAddr: 0x1BE4, symBinAddr: 0x1EDA0, symSize: 0xBC }
  - { offset: 0x24795, size: 0x8, addend: 0x0, symName: __RNvXs32_NtNtCsfvfooZQ3Axs_4core5slice4iterINtB6_7IterMutTNtNtCs6IAuOt8vWmF_3syn3pat8FieldPatNtNtBX_5token5CommaEENtNtNtNtBa_4iter6traits8iterator8Iterator4nextCscdP1gRbl3Ff_20pin_project_internal, symObjAddr: 0x1CA0, symBinAddr: 0x1EE5C, symSize: 0xBC }
  - { offset: 0x248CE, size: 0x8, addend: 0x0, symName: __RNvXs32_NtNtCsfvfooZQ3Axs_4core5slice4iterINtB6_7IterMutTNtNtCs6IAuOt8vWmF_3syn4data7VariantNtNtBX_5token5CommaEENtNtNtNtBa_4iter6traits8iterator8Iterator4nextCscdP1gRbl3Ff_20pin_project_internal, symObjAddr: 0x1D5C, symBinAddr: 0x1EF18, symSize: 0xBC }
  - { offset: 0x24A07, size: 0x8, addend: 0x0, symName: __RNvXs32_NtNtCsfvfooZQ3Axs_4core5slice4iterINtB6_7IterMutTNtNtCs6IAuOt8vWmF_3syn4expr10FieldValueNtNtBX_5token5CommaEENtNtNtNtBa_4iter6traits8iterator8Iterator4nextCscdP1gRbl3Ff_20pin_project_internal, symObjAddr: 0x1E18, symBinAddr: 0x1EFD4, symSize: 0xBC }
  - { offset: 0x24B40, size: 0x8, addend: 0x0, symName: __RNvXs32_NtNtCsfvfooZQ3Axs_4core5slice4iterINtB6_7IterMutTNtNtCs6IAuOt8vWmF_3syn4expr4ExprNtNtBX_5token5CommaEENtNtNtNtBa_4iter6traits8iterator8Iterator4nextCscdP1gRbl3Ff_20pin_project_internal, symObjAddr: 0x1ED4, symBinAddr: 0x1F090, symSize: 0xBC }
  - { offset: 0x24C79, size: 0x8, addend: 0x0, symName: __RNvXs32_NtNtCsfvfooZQ3Axs_4core5slice4iterINtB6_7IterMutTNtNtCs6IAuOt8vWmF_3syn4item5FnArgNtNtBX_5token5CommaEENtNtNtNtBa_4iter6traits8iterator8Iterator4nextCscdP1gRbl3Ff_20pin_project_internal, symObjAddr: 0x1F90, symBinAddr: 0x1F14C, symSize: 0xBC }
  - { offset: 0x24DB2, size: 0x8, addend: 0x0, symName: __RNvXs32_NtNtCsfvfooZQ3Axs_4core5slice4iterINtB6_7IterMutTNtNtCs6IAuOt8vWmF_3syn4item7UseTreeNtNtBX_5token5CommaEENtNtNtNtBa_4iter6traits8iterator8Iterator4nextCscdP1gRbl3Ff_20pin_project_internal, symObjAddr: 0x204C, symBinAddr: 0x1F208, symSize: 0xBC }
  - { offset: 0x24EEB, size: 0x8, addend: 0x0, symName: __RNvXs32_NtNtCsfvfooZQ3Axs_4core5slice4iterINtB6_7IterMutTNtNtCs6IAuOt8vWmF_3syn4path15GenericArgumentNtNtBX_5token5CommaEENtNtNtNtBa_4iter6traits8iterator8Iterator4nextCscdP1gRbl3Ff_20pin_project_internal, symObjAddr: 0x2108, symBinAddr: 0x1F2C4, symSize: 0xBC }
  - { offset: 0x25024, size: 0x8, addend: 0x0, symName: __RNvXs32_NtNtCsfvfooZQ3Axs_4core5slice4iterINtB6_7IterMutTNtNtCs6IAuOt8vWmF_3syn8generics13CapturedParamNtNtBX_5token5CommaEENtNtNtNtBa_4iter6traits8iterator8Iterator4nextCscdP1gRbl3Ff_20pin_project_internal, symObjAddr: 0x21C4, symBinAddr: 0x1F380, symSize: 0xBC }
  - { offset: 0x2515D, size: 0x8, addend: 0x0, symName: __RNvXs32_NtNtCsfvfooZQ3Axs_4core5slice4iterINtB6_7IterMutTNtNtCs6IAuOt8vWmF_3syn8generics14TypeParamBoundNtNtBX_5token4PlusEENtNtNtNtBa_4iter6traits8iterator8Iterator4nextCscdP1gRbl3Ff_20pin_project_internal, symObjAddr: 0x2280, symBinAddr: 0x1F43C, symSize: 0xBC }
  - { offset: 0x25296, size: 0x8, addend: 0x0, symName: __RNvXs32_NtNtCsfvfooZQ3Axs_4core5slice4iterINtB6_7IterMutTNtNtCs6IAuOt8vWmF_3syn8generics14WherePredicateNtNtBX_5token5CommaEENtNtNtNtBa_4iter6traits8iterator8Iterator4nextCscdP1gRbl3Ff_20pin_project_internal, symObjAddr: 0x233C, symBinAddr: 0x1F4F8, symSize: 0xBC }
  - { offset: 0x253CF, size: 0x8, addend: 0x0, symName: __RNvXs32_NtNtCsfvfooZQ3Axs_4core5slice4iterINtB6_7IterMutTNtNtCs6IAuOt8vWmF_3syn8lifetime8LifetimeNtNtBX_5token4PlusEENtNtNtNtBa_4iter6traits8iterator8Iterator4nextCscdP1gRbl3Ff_20pin_project_internal, symObjAddr: 0x23F8, symBinAddr: 0x1F5B4, symSize: 0xBC }
  - { offset: 0x25724, size: 0x8, addend: 0x0, symName: __RNvXs5_NtNtCsfvfooZQ3Axs_4core5slice4iterINtB5_4IterTNtNtCs6IAuOt8vWmF_3syn4data7VariantNtNtBT_5token5CommaEENtNtB9_5clone5Clone5cloneCscdP1gRbl3Ff_20pin_project_internal, symObjAddr: 0x24B4, symBinAddr: 0x1F670, symSize: 0x20 }
  - { offset: 0x25759, size: 0x8, addend: 0x0, symName: __RNvXs5_NtNtCsfvfooZQ3Axs_4core5slice4iterINtB5_4IterTNtNtCs6IAuOt8vWmF_3syn4path15GenericArgumentNtNtBT_5token5CommaEENtNtB9_5clone5Clone5cloneCscdP1gRbl3Ff_20pin_project_internal, symObjAddr: 0x24D4, symBinAddr: 0x1F690, symSize: 0x20 }
  - { offset: 0x257F9, size: 0x8, addend: 0x0, symName: __RINvYINtNtNtCsfvfooZQ3Axs_4core5slice4iter4IterINtNtBa_6option6OptionRNtCs3cP53eQoTwO_11proc_macro25IdentEENtNtNtNtBa_4iter6traits8iterator8Iterator10filter_mapRB15_NvMBM_BJ_6as_refECscdP1gRbl3Ff_20pin_project_internal, symObjAddr: 0x2F0, symBinAddr: 0x1D4AC, symSize: 0x1C }
  - { offset: 0x25851, size: 0x8, addend: 0x0, symName: __RINvYINtNtNtCsfvfooZQ3Axs_4core5slice4iter4IterINtNtBa_6option6OptionRNtCs3cP53eQoTwO_11proc_macro25IdentEENtNtNtNtBa_4iter6traits8iterator8Iterator8try_folduNCINvNtNtB1N_8adapters10filter_map19filter_map_try_foldRBJ_RB15_uINtNtNtBa_3ops12control_flow11ControlFlowB3t_ENvMBM_BJ_6as_refNCINvNvB1H_4find5checkB3t_NCNvMs_NtNtCscdP1gRbl3Ff_20pin_project_internal11pin_project6deriveNtB56_7Context3new0E0E0B3z_EB5a_, symObjAddr: 0x30C, symBinAddr: 0x1D4C8, symSize: 0x148 }
  - { offset: 0x2590C, size: 0x8, addend: 0x0, symName: __RINvYINtNtNtCsfvfooZQ3Axs_4core5slice4iter4IterNtNtCs6IAuOt8vWmF_3syn4attr9AttributeENtNtNtNtBa_4iter6traits8iterator8Iterator6filterNCNvNtNtCscdP1gRbl3Ff_20pin_project_internal11pin_project4args10parse_args0EB2f_, symObjAddr: 0x454, symBinAddr: 0x1D610, symSize: 0x1C }
  - { offset: 0x2595B, size: 0x8, addend: 0x0, symName: __RINvYINtNtNtCsfvfooZQ3Axs_4core5slice4iter4IterNtNtCs6IAuOt8vWmF_3syn4attr9AttributeENtNtNtNtBa_4iter6traits8iterator8Iterator8try_foldTjINtNtBa_6option6OptionjEENCNvXNtCscdP1gRbl3Ff_20pin_project_internal5utilsSBJ_NtB2F_8SliceExt14position_exact0INtNtBa_6result6ResultB29_NtNtBN_5error5ErrorEEB2H_, symObjAddr: 0x470, symBinAddr: 0x1D62C, symSize: 0x1D0 }
  - { offset: 0x25A18, size: 0x8, addend: 0x0, symName: __RINvYINtNtNtCsfvfooZQ3Axs_4core5slice4iter4IterNtNtCs6IAuOt8vWmF_3syn4item8ImplItemENtNtNtNtBa_4iter6traits8iterator8Iterator8try_folduNCINvNvXs_NtNtB1q_8adapters9enumerateINtB2j_9EnumeratepEB1k_8try_fold9enumerateRBJ_uINtNtBa_6result6ResultuNtNtBN_5error5ErrorENCINvNvB1k_12try_for_each4callTjB3q_EB3v_NCNvNtCscdP1gRbl3Ff_20pin_project_internal11pinned_drop13validate_impl0E0E0B3v_EB4X_, symObjAddr: 0x640, symBinAddr: 0x1D7FC, symSize: 0x144 }
  - { offset: 0x25AD3, size: 0x8, addend: 0x0, symName: __RNvYINtNtNtCsfvfooZQ3Axs_4core5slice4iter4IterNtCs3cP53eQoTwO_11proc_macro25IdentENtNtNtNtB9_4iter6traits8iterator8Iterator3revCscdP1gRbl3Ff_20pin_project_internal, symObjAddr: 0x24F4, symBinAddr: 0x1F6B0, symSize: 0x1C }
  - { offset: 0x25B0A, size: 0x8, addend: 0x0, symName: __RNvYINtNtNtCsfvfooZQ3Axs_4core5slice4iter4IterNtNtCs6IAuOt8vWmF_3syn4item8ImplItemENtNtNtNtB9_4iter6traits8iterator8Iterator9enumerateCscdP1gRbl3Ff_20pin_project_internal, symObjAddr: 0x2510, symBinAddr: 0x1F6CC, symSize: 0x28 }
  - { offset: 0x25B56, size: 0x8, addend: 0x0, symName: __RNvYINtNtNtCsfvfooZQ3Axs_4core5slice4iter4IterRNtNtCs6IAuOt8vWmF_3syn2ty4TypeENtNtNtNtB9_4iter6traits8iterator8Iterator9enumerateCscdP1gRbl3Ff_20pin_project_internal, symObjAddr: 0x2538, symBinAddr: 0x1F6F4, symSize: 0x28 }
  - { offset: 0x2C507, size: 0x8, addend: 0x0, symName: __RNvMs4_NtNtCsfvfooZQ3Axs_4core5slice4iterINtB5_4IterINtNtB9_6option6OptionRNtCs3cP53eQoTwO_11proc_macro25IdentEE3newCscdP1gRbl3Ff_20pin_project_internal, symObjAddr: 0x784, symBinAddr: 0x1D940, symSize: 0x50 }
  - { offset: 0x2C710, size: 0x8, addend: 0x0, symName: __RNvMs4_NtNtCsfvfooZQ3Axs_4core5slice4iterINtB5_4IterNtCs3cP53eQoTwO_11proc_macro211TokenStreamE3newCscdP1gRbl3Ff_20pin_project_internal, symObjAddr: 0x7D4, symBinAddr: 0x1D990, symSize: 0x50 }
  - { offset: 0x2C8EB, size: 0x8, addend: 0x0, symName: __RNvMs4_NtNtCsfvfooZQ3Axs_4core5slice4iterINtB5_4IterNtCs3cP53eQoTwO_11proc_macro25IdentE3newCscdP1gRbl3Ff_20pin_project_internal, symObjAddr: 0x824, symBinAddr: 0x1D9E0, symSize: 0x58 }
  - { offset: 0x31C48, size: 0x8, addend: 0x0, symName: __RNvMs4_NtNtCsfvfooZQ3Axs_4core5slice4iterINtB5_4IterNtNtCs6IAuOt8vWmF_3syn4item8ImplItemE3newCscdP1gRbl3Ff_20pin_project_internal, symObjAddr: 0x87C, symBinAddr: 0x1DA38, symSize: 0x58 }
  - { offset: 0x31E30, size: 0x8, addend: 0x0, symName: __RNvMs4_NtNtCsfvfooZQ3Axs_4core5slice4iterINtB5_4IterNtNtCse1nGBsou5OW_5alloc6string6StringE3newCscdP1gRbl3Ff_20pin_project_internal, symObjAddr: 0x8D4, symBinAddr: 0x1DA90, symSize: 0x58 }
  - { offset: 0x32025, size: 0x8, addend: 0x0, symName: __RNvMs4_NtNtCsfvfooZQ3Axs_4core5slice4iterINtB5_4IterRNtNtCs6IAuOt8vWmF_3syn2ty4TypeE3newCscdP1gRbl3Ff_20pin_project_internal, symObjAddr: 0x92C, symBinAddr: 0x1DAE8, symSize: 0x50 }
  - { offset: 0x3220D, size: 0x8, addend: 0x0, symName: __RNvMsa_NtNtCsfvfooZQ3Axs_4core5slice4iterINtB5_7IterMutTNtNtCs6IAuOt8vWmF_3syn2ty4TypeNtNtBW_5token5CommaEE3newCscdP1gRbl3Ff_20pin_project_internal, symObjAddr: 0x97C, symBinAddr: 0x1DB38, symSize: 0x58 }
  - { offset: 0x323F5, size: 0x8, addend: 0x0, symName: __RNvMsa_NtNtCsfvfooZQ3Axs_4core5slice4iterINtB5_7IterMutTNtNtCs6IAuOt8vWmF_3syn2ty9BareFnArgNtNtBW_5token5CommaEE3newCscdP1gRbl3Ff_20pin_project_internal, symObjAddr: 0x9D4, symBinAddr: 0x1DB90, symSize: 0x58 }
  - { offset: 0x325DD, size: 0x8, addend: 0x0, symName: __RNvMsa_NtNtCsfvfooZQ3Axs_4core5slice4iterINtB5_7IterMutTNtNtCs6IAuOt8vWmF_3syn3pat3PatNtNtBW_5token2OrEE3newCscdP1gRbl3Ff_20pin_project_internal, symObjAddr: 0xA2C, symBinAddr: 0x1DBE8, symSize: 0x58 }
  - { offset: 0x327C5, size: 0x8, addend: 0x0, symName: __RNvMsa_NtNtCsfvfooZQ3Axs_4core5slice4iterINtB5_7IterMutTNtNtCs6IAuOt8vWmF_3syn3pat3PatNtNtBW_5token5CommaEE3newCscdP1gRbl3Ff_20pin_project_internal, symObjAddr: 0xA84, symBinAddr: 0x1DC40, symSize: 0x58 }
  - { offset: 0x329AD, size: 0x8, addend: 0x0, symName: __RNvMsa_NtNtCsfvfooZQ3Axs_4core5slice4iterINtB5_7IterMutTNtNtCs6IAuOt8vWmF_3syn3pat8FieldPatNtNtBW_5token5CommaEE3newCscdP1gRbl3Ff_20pin_project_internal, symObjAddr: 0xADC, symBinAddr: 0x1DC98, symSize: 0x58 }
  - { offset: 0x32B95, size: 0x8, addend: 0x0, symName: __RNvMsa_NtNtCsfvfooZQ3Axs_4core5slice4iterINtB5_7IterMutTNtNtCs6IAuOt8vWmF_3syn4data7VariantNtNtBW_5token5CommaEE3newCscdP1gRbl3Ff_20pin_project_internal, symObjAddr: 0xB34, symBinAddr: 0x1DCF0, symSize: 0x58 }
  - { offset: 0x32D7D, size: 0x8, addend: 0x0, symName: __RNvMsa_NtNtCsfvfooZQ3Axs_4core5slice4iterINtB5_7IterMutTNtNtCs6IAuOt8vWmF_3syn4expr10FieldValueNtNtBW_5token5CommaEE3newCscdP1gRbl3Ff_20pin_project_internal, symObjAddr: 0xB8C, symBinAddr: 0x1DD48, symSize: 0x58 }
  - { offset: 0x32F65, size: 0x8, addend: 0x0, symName: __RNvMsa_NtNtCsfvfooZQ3Axs_4core5slice4iterINtB5_7IterMutTNtNtCs6IAuOt8vWmF_3syn4expr4ExprNtNtBW_5token5CommaEE3newCscdP1gRbl3Ff_20pin_project_internal, symObjAddr: 0xBE4, symBinAddr: 0x1DDA0, symSize: 0x58 }
  - { offset: 0x3314D, size: 0x8, addend: 0x0, symName: __RNvMsa_NtNtCsfvfooZQ3Axs_4core5slice4iterINtB5_7IterMutTNtNtCs6IAuOt8vWmF_3syn4item5FnArgNtNtBW_5token5CommaEE3newCscdP1gRbl3Ff_20pin_project_internal, symObjAddr: 0xC3C, symBinAddr: 0x1DDF8, symSize: 0x58 }
  - { offset: 0x33335, size: 0x8, addend: 0x0, symName: __RNvMsa_NtNtCsfvfooZQ3Axs_4core5slice4iterINtB5_7IterMutTNtNtCs6IAuOt8vWmF_3syn4item7UseTreeNtNtBW_5token5CommaEE3newCscdP1gRbl3Ff_20pin_project_internal, symObjAddr: 0xC94, symBinAddr: 0x1DE50, symSize: 0x58 }
  - { offset: 0x3351D, size: 0x8, addend: 0x0, symName: __RNvMsa_NtNtCsfvfooZQ3Axs_4core5slice4iterINtB5_7IterMutTNtNtCs6IAuOt8vWmF_3syn4path15GenericArgumentNtNtBW_5token5CommaEE3newCscdP1gRbl3Ff_20pin_project_internal, symObjAddr: 0xCEC, symBinAddr: 0x1DEA8, symSize: 0x58 }
  - { offset: 0x33705, size: 0x8, addend: 0x0, symName: __RNvMsa_NtNtCsfvfooZQ3Axs_4core5slice4iterINtB5_7IterMutTNtNtCs6IAuOt8vWmF_3syn8generics13CapturedParamNtNtBW_5token5CommaEE3newCscdP1gRbl3Ff_20pin_project_internal, symObjAddr: 0xD44, symBinAddr: 0x1DF00, symSize: 0x58 }
  - { offset: 0x338ED, size: 0x8, addend: 0x0, symName: __RNvMsa_NtNtCsfvfooZQ3Axs_4core5slice4iterINtB5_7IterMutTNtNtCs6IAuOt8vWmF_3syn8generics14TypeParamBoundNtNtBW_5token4PlusEE3newCscdP1gRbl3Ff_20pin_project_internal, symObjAddr: 0xD9C, symBinAddr: 0x1DF58, symSize: 0x50 }
  - { offset: 0x33AD5, size: 0x8, addend: 0x0, symName: __RNvMsa_NtNtCsfvfooZQ3Axs_4core5slice4iterINtB5_7IterMutTNtNtCs6IAuOt8vWmF_3syn8generics14WherePredicateNtNtBW_5token5CommaEE3newCscdP1gRbl3Ff_20pin_project_internal, symObjAddr: 0xDEC, symBinAddr: 0x1DFA8, symSize: 0x58 }
  - { offset: 0x33CBD, size: 0x8, addend: 0x0, symName: __RNvMsa_NtNtCsfvfooZQ3Axs_4core5slice4iterINtB5_7IterMutTNtNtCs6IAuOt8vWmF_3syn8lifetime8LifetimeNtNtBW_5token4PlusEE3newCscdP1gRbl3Ff_20pin_project_internal, symObjAddr: 0xE44, symBinAddr: 0x1E000, symSize: 0x58 }
  - { offset: 0x35B22, size: 0x8, addend: 0x0, symName: __RINvMs2_NtNtCscOYdFFY2T5N_3std6thread5localINtB6_8LocalKeyINtNtCsfvfooZQ3Axs_4core4cell4CellPuEE4withNCNvMs3_B6_BF_7replace0B1s_ECscdP1gRbl3Ff_20pin_project_internal, symObjAddr: 0x0, symBinAddr: 0x1F71C, symSize: 0x54 }
  - { offset: 0x3A8AD, size: 0x8, addend: 0x0, symName: __RNvYNtNtCscdP1gRbl3Ff_20pin_project_internal5utils15ReplaceReceiverNtNtNtCs6IAuOt8vWmF_3syn3gen9visit_mut8VisitMut13visit_abi_mutB6_, symObjAddr: 0x18D4, symBinAddr: 0x20FF0, symSize: 0x3C }
  - { offset: 0x3A8EC, size: 0x8, addend: 0x0, symName: __RNvYNtNtCscdP1gRbl3Ff_20pin_project_internal5utils15ReplaceReceiverNtNtNtCs6IAuOt8vWmF_3syn3gen9visit_mut8VisitMut13visit_arm_mutB6_, symObjAddr: 0x1910, symBinAddr: 0x2102C, symSize: 0x3C }
  - { offset: 0x3A92B, size: 0x8, addend: 0x0, symName: __RNvYNtNtCscdP1gRbl3Ff_20pin_project_internal5utils15ReplaceReceiverNtNtNtCs6IAuOt8vWmF_3syn3gen9visit_mut8VisitMut13visit_lit_mutB6_, symObjAddr: 0x194C, symBinAddr: 0x21068, symSize: 0x3C }
  - { offset: 0x3A96D, size: 0x8, addend: 0x0, symName: __RNvYNtNtCscdP1gRbl3Ff_20pin_project_internal5utils15ReplaceReceiverNtNtNtCs6IAuOt8vWmF_3syn3gen9visit_mut8VisitMut13visit_pat_mutB6_, symObjAddr: 0x1988, symBinAddr: 0x210A4, symSize: 0x3C }
  - { offset: 0x3A9AF, size: 0x8, addend: 0x0, symName: __RNvYNtNtCscdP1gRbl3Ff_20pin_project_internal5utils15ReplaceReceiverNtNtNtCs6IAuOt8vWmF_3syn3gen9visit_mut8VisitMut14visit_expr_mutB6_, symObjAddr: 0x19C4, symBinAddr: 0x210E0, symSize: 0x3C }
  - { offset: 0x3A9EE, size: 0x8, addend: 0x0, symName: __RNvYNtNtCscdP1gRbl3Ff_20pin_project_internal5utils15ReplaceReceiverNtNtNtCs6IAuOt8vWmF_3syn3gen9visit_mut8VisitMut14visit_meta_mutB6_, symObjAddr: 0x1A00, symBinAddr: 0x2111C, symSize: 0x3C }
  - { offset: 0x3AA30, size: 0x8, addend: 0x0, symName: __RNvYNtNtCscdP1gRbl3Ff_20pin_project_internal5utils15ReplaceReceiverNtNtNtCs6IAuOt8vWmF_3syn3gen9visit_mut8VisitMut14visit_span_mutB6_, symObjAddr: 0x1A3C, symBinAddr: 0x21158, symSize: 0x24 }
  - { offset: 0x3AA72, size: 0x8, addend: 0x0, symName: __RNvYNtNtCscdP1gRbl3Ff_20pin_project_internal5utils15ReplaceReceiverNtNtNtCs6IAuOt8vWmF_3syn3gen9visit_mut8VisitMut14visit_stmt_mutB6_, symObjAddr: 0x1A60, symBinAddr: 0x2117C, symSize: 0x3C }
  - { offset: 0x3AAB4, size: 0x8, addend: 0x0, symName: __RNvYNtNtCscdP1gRbl3Ff_20pin_project_internal5utils15ReplaceReceiverNtNtNtCs6IAuOt8vWmF_3syn3gen9visit_mut8VisitMut15visit_block_mutB6_, symObjAddr: 0x1A9C, symBinAddr: 0x211B8, symSize: 0x3C }
  - { offset: 0x3AAF3, size: 0x8, addend: 0x0, symName: __RNvYNtNtCscdP1gRbl3Ff_20pin_project_internal5utils15ReplaceReceiverNtNtNtCs6IAuOt8vWmF_3syn3gen9visit_mut8VisitMut15visit_field_mutB6_, symObjAddr: 0x1AD8, symBinAddr: 0x211F4, symSize: 0x3C }
  - { offset: 0x3AB35, size: 0x8, addend: 0x0, symName: __RNvYNtNtCscdP1gRbl3Ff_20pin_project_internal5utils15ReplaceReceiverNtNtNtCs6IAuOt8vWmF_3syn3gen9visit_mut8VisitMut15visit_ident_mutB6_, symObjAddr: 0x1B14, symBinAddr: 0x21230, symSize: 0x3C }
  - { offset: 0x3AB77, size: 0x8, addend: 0x0, symName: __RNvYNtNtCscdP1gRbl3Ff_20pin_project_internal5utils15ReplaceReceiverNtNtNtCs6IAuOt8vWmF_3syn3gen9visit_mut8VisitMut15visit_index_mutB6_, symObjAddr: 0x1B50, symBinAddr: 0x2126C, symSize: 0x3C }
  - { offset: 0x3ABB9, size: 0x8, addend: 0x0, symName: __RNvYNtNtCscdP1gRbl3Ff_20pin_project_internal5utils15ReplaceReceiverNtNtNtCs6IAuOt8vWmF_3syn3gen9visit_mut8VisitMut15visit_label_mutB6_, symObjAddr: 0x1B8C, symBinAddr: 0x212A8, symSize: 0x3C }
  - { offset: 0x3ABFB, size: 0x8, addend: 0x0, symName: __RNvYNtNtCscdP1gRbl3Ff_20pin_project_internal5utils15ReplaceReceiverNtNtNtCs6IAuOt8vWmF_3syn3gen9visit_mut8VisitMut15visit_local_mutB6_, symObjAddr: 0x1BC8, symBinAddr: 0x212E4, symSize: 0x3C }
  - { offset: 0x3AC3D, size: 0x8, addend: 0x0, symName: __RNvYNtNtCscdP1gRbl3Ff_20pin_project_internal5utils15ReplaceReceiverNtNtNtCs6IAuOt8vWmF_3syn3gen9visit_mut8VisitMut15visit_qself_mutB6_, symObjAddr: 0x1C04, symBinAddr: 0x21320, symSize: 0x3C }
  - { offset: 0x3AC7F, size: 0x8, addend: 0x0, symName: __RNvYNtNtCscdP1gRbl3Ff_20pin_project_internal5utils15ReplaceReceiverNtNtNtCs6IAuOt8vWmF_3syn3gen9visit_mut8VisitMut15visit_un_op_mutB6_, symObjAddr: 0x1C40, symBinAddr: 0x2135C, symSize: 0x3C }
  - { offset: 0x3ACC1, size: 0x8, addend: 0x0, symName: __RNvYNtNtCscdP1gRbl3Ff_20pin_project_internal5utils15ReplaceReceiverNtNtNtCs6IAuOt8vWmF_3syn3gen9visit_mut8VisitMut16visit_bin_op_mutB6_, symObjAddr: 0x1C7C, symBinAddr: 0x21398, symSize: 0x3C }
  - { offset: 0x3AD00, size: 0x8, addend: 0x0, symName: __RNvYNtNtCscdP1gRbl3Ff_20pin_project_internal5utils15ReplaceReceiverNtNtNtCs6IAuOt8vWmF_3syn3gen9visit_mut8VisitMut16visit_fields_mutB6_, symObjAddr: 0x1CB8, symBinAddr: 0x213D4, symSize: 0x3C }
  - { offset: 0x3AD42, size: 0x8, addend: 0x0, symName: __RNvYNtNtCscdP1gRbl3Ff_20pin_project_internal5utils15ReplaceReceiverNtNtNtCs6IAuOt8vWmF_3syn3gen9visit_mut8VisitMut16visit_fn_arg_mutB6_, symObjAddr: 0x1CF4, symBinAddr: 0x21410, symSize: 0x3C }
  - { offset: 0x3AD84, size: 0x8, addend: 0x0, symName: __RNvYNtNtCscdP1gRbl3Ff_20pin_project_internal5utils15ReplaceReceiverNtNtNtCs6IAuOt8vWmF_3syn3gen9visit_mut8VisitMut16visit_member_mutB6_, symObjAddr: 0x1D30, symBinAddr: 0x2144C, symSize: 0x3C }
  - { offset: 0x3ADC6, size: 0x8, addend: 0x0, symName: __RNvYNtNtCscdP1gRbl3Ff_20pin_project_internal5utils15ReplaceReceiverNtNtNtCs6IAuOt8vWmF_3syn3gen9visit_mut8VisitMut16visit_pat_or_mutB6_, symObjAddr: 0x1D6C, symBinAddr: 0x21488, symSize: 0x3C }
  - { offset: 0x3AE08, size: 0x8, addend: 0x0, symName: __RNvYNtNtCscdP1gRbl3Ff_20pin_project_internal5utils15ReplaceReceiverNtNtNtCs6IAuOt8vWmF_3syn3gen9visit_mut8VisitMut17visit_expr_if_mutB6_, symObjAddr: 0x1DA8, symBinAddr: 0x214C4, symSize: 0x3C }
  - { offset: 0x3AE47, size: 0x8, addend: 0x0, symName: __RNvYNtNtCscdP1gRbl3Ff_20pin_project_internal5utils15ReplaceReceiverNtNtNtCs6IAuOt8vWmF_3syn3gen9visit_mut8VisitMut17visit_lit_int_mutB6_, symObjAddr: 0x1DE4, symBinAddr: 0x21500, symSize: 0x3C }
  - { offset: 0x3AE89, size: 0x8, addend: 0x0, symName: __RNvYNtNtCscdP1gRbl3Ff_20pin_project_internal5utils15ReplaceReceiverNtNtNtCs6IAuOt8vWmF_3syn3gen9visit_mut8VisitMut17visit_lit_str_mutB6_, symObjAddr: 0x1E20, symBinAddr: 0x2153C, symSize: 0x3C }
  - { offset: 0x3AECB, size: 0x8, addend: 0x0, symName: __RNvYNtNtCscdP1gRbl3Ff_20pin_project_internal5utils15ReplaceReceiverNtNtNtCs6IAuOt8vWmF_3syn3gen9visit_mut8VisitMut17visit_variant_mutB6_, symObjAddr: 0x1E5C, symBinAddr: 0x21578, symSize: 0x3C }
  - { offset: 0x3AF0D, size: 0x8, addend: 0x0, symName: __RNvYNtNtCscdP1gRbl3Ff_20pin_project_internal5utils15ReplaceReceiverNtNtNtCs6IAuOt8vWmF_3syn3gen9visit_mut8VisitMut18visit_expr_let_mutB6_, symObjAddr: 0x1E98, symBinAddr: 0x215B4, symSize: 0x3C }
  - { offset: 0x3AF4C, size: 0x8, addend: 0x0, symName: __RNvYNtNtCscdP1gRbl3Ff_20pin_project_internal5utils15ReplaceReceiverNtNtNtCs6IAuOt8vWmF_3syn3gen9visit_mut8VisitMut18visit_expr_lit_mutB6_, symObjAddr: 0x1ED4, symBinAddr: 0x215F0, symSize: 0x3C }
  - { offset: 0x3AF8B, size: 0x8, addend: 0x0, symName: __RNvYNtNtCscdP1gRbl3Ff_20pin_project_internal5utils15ReplaceReceiverNtNtNtCs6IAuOt8vWmF_3syn3gen9visit_mut8VisitMut18visit_expr_try_mutB6_, symObjAddr: 0x1F10, symBinAddr: 0x2162C, symSize: 0x3C }
  - { offset: 0x3AFCD, size: 0x8, addend: 0x0, symName: __RNvYNtNtCscdP1gRbl3Ff_20pin_project_internal5utils15ReplaceReceiverNtNtNtCs6IAuOt8vWmF_3syn3gen9visit_mut8VisitMut18visit_generics_mutB6_, symObjAddr: 0x1F4C, symBinAddr: 0x21668, symSize: 0x3C }
  - { offset: 0x3B00F, size: 0x8, addend: 0x0, symName: __RNvYNtNtCscdP1gRbl3Ff_20pin_project_internal5utils15ReplaceReceiverNtNtNtCs6IAuOt8vWmF_3syn3gen9visit_mut8VisitMut18visit_lifetime_mutB6_, symObjAddr: 0x1F88, symBinAddr: 0x216A4, symSize: 0x3C }
  - { offset: 0x3B051, size: 0x8, addend: 0x0, symName: __RNvYNtNtCscdP1gRbl3Ff_20pin_project_internal5utils15ReplaceReceiverNtNtNtCs6IAuOt8vWmF_3syn3gen9visit_mut8VisitMut18visit_lit_bool_mutB6_, symObjAddr: 0x1FC4, symBinAddr: 0x216E0, symSize: 0x3C }
  - { offset: 0x3B093, size: 0x8, addend: 0x0, symName: __RNvYNtNtCscdP1gRbl3Ff_20pin_project_internal5utils15ReplaceReceiverNtNtNtCs6IAuOt8vWmF_3syn3gen9visit_mut8VisitMut18visit_lit_byte_mutB6_, symObjAddr: 0x2000, symBinAddr: 0x2171C, symSize: 0x3C }
  - { offset: 0x3B0D5, size: 0x8, addend: 0x0, symName: __RNvYNtNtCscdP1gRbl3Ff_20pin_project_internal5utils15ReplaceReceiverNtNtNtCs6IAuOt8vWmF_3syn3gen9visit_mut8VisitMut18visit_lit_char_mutB6_, symObjAddr: 0x203C, symBinAddr: 0x21758, symSize: 0x3C }
  - { offset: 0x3B117, size: 0x8, addend: 0x0, symName: __RNvYNtNtCscdP1gRbl3Ff_20pin_project_internal5utils15ReplaceReceiverNtNtNtCs6IAuOt8vWmF_3syn3gen9visit_mut8VisitMut18visit_lit_cstr_mutB6_, symObjAddr: 0x2078, symBinAddr: 0x21794, symSize: 0x3C }
  - { offset: 0x3B159, size: 0x8, addend: 0x0, symName: __RNvYNtNtCscdP1gRbl3Ff_20pin_project_internal5utils15ReplaceReceiverNtNtNtCs6IAuOt8vWmF_3syn3gen9visit_mut8VisitMut18visit_pat_rest_mutB6_, symObjAddr: 0x20B4, symBinAddr: 0x217D0, symSize: 0x3C }
  - { offset: 0x3B19B, size: 0x8, addend: 0x0, symName: __RNvYNtNtCscdP1gRbl3Ff_20pin_project_internal5utils15ReplaceReceiverNtNtNtCs6IAuOt8vWmF_3syn3gen9visit_mut8VisitMut18visit_pat_type_mutB6_, symObjAddr: 0x20F0, symBinAddr: 0x2180C, symSize: 0x3C }
  - { offset: 0x3B1DD, size: 0x8, addend: 0x0, symName: __RNvYNtNtCscdP1gRbl3Ff_20pin_project_internal5utils15ReplaceReceiverNtNtNtCs6IAuOt8vWmF_3syn3gen9visit_mut8VisitMut18visit_pat_wild_mutB6_, symObjAddr: 0x212C, symBinAddr: 0x21848, symSize: 0x3C }
  - { offset: 0x3B21F, size: 0x8, addend: 0x0, symName: __RNvYNtNtCscdP1gRbl3Ff_20pin_project_internal5utils15ReplaceReceiverNtNtNtCs6IAuOt8vWmF_3syn3gen9visit_mut8VisitMut18visit_receiver_mutB6_, symObjAddr: 0x2168, symBinAddr: 0x21884, symSize: 0x3C }
  - { offset: 0x3B261, size: 0x8, addend: 0x0, symName: __RNvYNtNtCscdP1gRbl3Ff_20pin_project_internal5utils15ReplaceReceiverNtNtNtCs6IAuOt8vWmF_3syn3gen9visit_mut8VisitMut18visit_type_ptr_mutB6_, symObjAddr: 0x21A4, symBinAddr: 0x218C0, symSize: 0x3C }
  - { offset: 0x3B2A3, size: 0x8, addend: 0x0, symName: __RNvYNtNtCscdP1gRbl3Ff_20pin_project_internal5utils15ReplaceReceiverNtNtNtCs6IAuOt8vWmF_3syn3gen9visit_mut8VisitMut18visit_variadic_mutB6_, symObjAddr: 0x21E0, symBinAddr: 0x218FC, symSize: 0x3C }
  - { offset: 0x3B2E5, size: 0x8, addend: 0x0, symName: __RNvYNtNtCscdP1gRbl3Ff_20pin_project_internal5utils15ReplaceReceiverNtNtNtCs6IAuOt8vWmF_3syn3gen9visit_mut8VisitMut19visit_attribute_mutB6_, symObjAddr: 0x221C, symBinAddr: 0x21938, symSize: 0x3C }
  - { offset: 0x3B324, size: 0x8, addend: 0x0, symName: __RNvYNtNtCscdP1gRbl3Ff_20pin_project_internal5utils15ReplaceReceiverNtNtNtCs6IAuOt8vWmF_3syn3gen9visit_mut8VisitMut19visit_expr_call_mutB6_, symObjAddr: 0x2258, symBinAddr: 0x21974, symSize: 0x3C }
  - { offset: 0x3B363, size: 0x8, addend: 0x0, symName: __RNvYNtNtCscdP1gRbl3Ff_20pin_project_internal5utils15ReplaceReceiverNtNtNtCs6IAuOt8vWmF_3syn3gen9visit_mut8VisitMut19visit_expr_cast_mutB6_, symObjAddr: 0x2294, symBinAddr: 0x219B0, symSize: 0x3C }
  - { offset: 0x3B3A2, size: 0x8, addend: 0x0, symName: __RNvYNtNtCscdP1gRbl3Ff_20pin_project_internal5utils15ReplaceReceiverNtNtNtCs6IAuOt8vWmF_3syn3gen9visit_mut8VisitMut19visit_expr_loop_mutB6_, symObjAddr: 0x22D0, symBinAddr: 0x219EC, symSize: 0x3C }
  - { offset: 0x3B3E1, size: 0x8, addend: 0x0, symName: __RNvYNtNtCscdP1gRbl3Ff_20pin_project_internal5utils15ReplaceReceiverNtNtNtCs6IAuOt8vWmF_3syn3gen9visit_mut8VisitMut19visit_field_pat_mutB6_, symObjAddr: 0x230C, symBinAddr: 0x21A28, symSize: 0x3C }
  - { offset: 0x3B423, size: 0x8, addend: 0x0, symName: __RNvYNtNtCscdP1gRbl3Ff_20pin_project_internal5utils15ReplaceReceiverNtNtNtCs6IAuOt8vWmF_3syn3gen9visit_mut8VisitMut19visit_item_enum_mutB6_, symObjAddr: 0x2348, symBinAddr: 0x21A64, symSize: 0x3C }
  - { offset: 0x3B465, size: 0x8, addend: 0x0, symName: __RNvYNtNtCscdP1gRbl3Ff_20pin_project_internal5utils15ReplaceReceiverNtNtNtCs6IAuOt8vWmF_3syn3gen9visit_mut8VisitMut19visit_lit_float_mutB6_, symObjAddr: 0x2384, symBinAddr: 0x21AA0, symSize: 0x3C }
  - { offset: 0x3B4A7, size: 0x8, addend: 0x0, symName: __RNvYNtNtCscdP1gRbl3Ff_20pin_project_internal5utils15ReplaceReceiverNtNtNtCs6IAuOt8vWmF_3syn3gen9visit_mut8VisitMut19visit_meta_list_mutB6_, symObjAddr: 0x23C0, symBinAddr: 0x21ADC, symSize: 0x3C }
  - { offset: 0x3B4E9, size: 0x8, addend: 0x0, symName: __RNvYNtNtCscdP1gRbl3Ff_20pin_project_internal5utils15ReplaceReceiverNtNtNtCs6IAuOt8vWmF_3syn3gen9visit_mut8VisitMut19visit_pat_ident_mutB6_, symObjAddr: 0x23FC, symBinAddr: 0x21B18, symSize: 0x3C }
  - { offset: 0x3B52B, size: 0x8, addend: 0x0, symName: __RNvYNtNtCscdP1gRbl3Ff_20pin_project_internal5utils15ReplaceReceiverNtNtNtCs6IAuOt8vWmF_3syn3gen9visit_mut8VisitMut19visit_pat_paren_mutB6_, symObjAddr: 0x2438, symBinAddr: 0x21B54, symSize: 0x3C }
  - { offset: 0x3B56D, size: 0x8, addend: 0x0, symName: __RNvYNtNtCscdP1gRbl3Ff_20pin_project_internal5utils15ReplaceReceiverNtNtNtCs6IAuOt8vWmF_3syn3gen9visit_mut8VisitMut19visit_pat_slice_mutB6_, symObjAddr: 0x2474, symBinAddr: 0x21B90, symSize: 0x3C }
  - { offset: 0x3B5AF, size: 0x8, addend: 0x0, symName: __RNvYNtNtCscdP1gRbl3Ff_20pin_project_internal5utils15ReplaceReceiverNtNtNtCs6IAuOt8vWmF_3syn3gen9visit_mut8VisitMut19visit_pat_tuple_mutB6_, symObjAddr: 0x24B0, symBinAddr: 0x21BCC, symSize: 0x3C }
  - { offset: 0x3B5F1, size: 0x8, addend: 0x0, symName: __RNvYNtNtCscdP1gRbl3Ff_20pin_project_internal5utils15ReplaceReceiverNtNtNtCs6IAuOt8vWmF_3syn3gen9visit_mut8VisitMut19visit_signature_mutB6_, symObjAddr: 0x24EC, symBinAddr: 0x21C08, symSize: 0x3C }
  - { offset: 0x3B633, size: 0x8, addend: 0x0, symName: __RNvYNtNtCscdP1gRbl3Ff_20pin_project_internal5utils15ReplaceReceiverNtNtNtCs6IAuOt8vWmF_3syn3gen9visit_mut8VisitMut20visit_assoc_type_mutB6_, symObjAddr: 0x2528, symBinAddr: 0x21C44, symSize: 0x3C }
  - { offset: 0x3B672, size: 0x8, addend: 0x0, symName: __RNvYNtNtCscdP1gRbl3Ff_20pin_project_internal5utils15ReplaceReceiverNtNtNtCs6IAuOt8vWmF_3syn3gen9visit_mut8VisitMut20visit_attr_style_mutB6_, symObjAddr: 0x2564, symBinAddr: 0x21C80, symSize: 0x3C }
  - { offset: 0x3B6B1, size: 0x8, addend: 0x0, symName: __RNvYNtNtCscdP1gRbl3Ff_20pin_project_internal5utils15ReplaceReceiverNtNtNtCs6IAuOt8vWmF_3syn3gen9visit_mut8VisitMut20visit_attributes_mutB6_, symObjAddr: 0x25A0, symBinAddr: 0x21CBC, symSize: 0x98 }
  - { offset: 0x3B722, size: 0x8, addend: 0x0, symName: __RNvYNtNtCscdP1gRbl3Ff_20pin_project_internal5utils15ReplaceReceiverNtNtNtCs6IAuOt8vWmF_3syn3gen9visit_mut8VisitMut20visit_constraint_mutB6_, symObjAddr: 0x2638, symBinAddr: 0x21D54, symSize: 0x3C }
  - { offset: 0x3B761, size: 0x8, addend: 0x0, symName: __RNvYNtNtCscdP1gRbl3Ff_20pin_project_internal5utils15ReplaceReceiverNtNtNtCs6IAuOt8vWmF_3syn3gen9visit_mut8VisitMut20visit_expr_array_mutB6_, symObjAddr: 0x2674, symBinAddr: 0x21D90, symSize: 0x3C }
  - { offset: 0x3B7A0, size: 0x8, addend: 0x0, symName: __RNvYNtNtCscdP1gRbl3Ff_20pin_project_internal5utils15ReplaceReceiverNtNtNtCs6IAuOt8vWmF_3syn3gen9visit_mut8VisitMut20visit_expr_async_mutB6_, symObjAddr: 0x26B0, symBinAddr: 0x21DCC, symSize: 0x3C }
  - { offset: 0x3B7DF, size: 0x8, addend: 0x0, symName: __RNvYNtNtCscdP1gRbl3Ff_20pin_project_internal5utils15ReplaceReceiverNtNtNtCs6IAuOt8vWmF_3syn3gen9visit_mut8VisitMut20visit_expr_await_mutB6_, symObjAddr: 0x26EC, symBinAddr: 0x21E08, symSize: 0x3C }
  - { offset: 0x3B81E, size: 0x8, addend: 0x0, symName: __RNvYNtNtCscdP1gRbl3Ff_20pin_project_internal5utils15ReplaceReceiverNtNtNtCs6IAuOt8vWmF_3syn3gen9visit_mut8VisitMut20visit_expr_block_mutB6_, symObjAddr: 0x2728, symBinAddr: 0x21E44, symSize: 0x3C }
  - { offset: 0x3B85D, size: 0x8, addend: 0x0, symName: __RNvYNtNtCscdP1gRbl3Ff_20pin_project_internal5utils15ReplaceReceiverNtNtNtCs6IAuOt8vWmF_3syn3gen9visit_mut8VisitMut20visit_expr_break_mutB6_, symObjAddr: 0x2764, symBinAddr: 0x21E80, symSize: 0x3C }
  - { offset: 0x3B89C, size: 0x8, addend: 0x0, symName: __RNvYNtNtCscdP1gRbl3Ff_20pin_project_internal5utils15ReplaceReceiverNtNtNtCs6IAuOt8vWmF_3syn3gen9visit_mut8VisitMut20visit_expr_const_mutB6_, symObjAddr: 0x27A0, symBinAddr: 0x21EBC, symSize: 0x3C }
  - { offset: 0x3B8DB, size: 0x8, addend: 0x0, symName: __RNvYNtNtCscdP1gRbl3Ff_20pin_project_internal5utils15ReplaceReceiverNtNtNtCs6IAuOt8vWmF_3syn3gen9visit_mut8VisitMut20visit_expr_field_mutB6_, symObjAddr: 0x27DC, symBinAddr: 0x21EF8, symSize: 0x3C }
  - { offset: 0x3B91A, size: 0x8, addend: 0x0, symName: __RNvYNtNtCscdP1gRbl3Ff_20pin_project_internal5utils15ReplaceReceiverNtNtNtCs6IAuOt8vWmF_3syn3gen9visit_mut8VisitMut20visit_expr_group_mutB6_, symObjAddr: 0x2818, symBinAddr: 0x21F34, symSize: 0x3C }
  - { offset: 0x3B959, size: 0x8, addend: 0x0, symName: __RNvYNtNtCscdP1gRbl3Ff_20pin_project_internal5utils15ReplaceReceiverNtNtNtCs6IAuOt8vWmF_3syn3gen9visit_mut8VisitMut20visit_expr_index_mutB6_, symObjAddr: 0x2854, symBinAddr: 0x21F70, symSize: 0x3C }
  - { offset: 0x3B998, size: 0x8, addend: 0x0, symName: __RNvYNtNtCscdP1gRbl3Ff_20pin_project_internal5utils15ReplaceReceiverNtNtNtCs6IAuOt8vWmF_3syn3gen9visit_mut8VisitMut20visit_expr_infer_mutB6_, symObjAddr: 0x2890, symBinAddr: 0x21FAC, symSize: 0x3C }
  - { offset: 0x3B9D7, size: 0x8, addend: 0x0, symName: __RNvYNtNtCscdP1gRbl3Ff_20pin_project_internal5utils15ReplaceReceiverNtNtNtCs6IAuOt8vWmF_3syn3gen9visit_mut8VisitMut20visit_expr_macro_mutB6_, symObjAddr: 0x28CC, symBinAddr: 0x21FE8, symSize: 0x3C }
  - { offset: 0x3BA16, size: 0x8, addend: 0x0, symName: __RNvYNtNtCscdP1gRbl3Ff_20pin_project_internal5utils15ReplaceReceiverNtNtNtCs6IAuOt8vWmF_3syn3gen9visit_mut8VisitMut20visit_expr_match_mutB6_, symObjAddr: 0x2908, symBinAddr: 0x22024, symSize: 0x3C }
  - { offset: 0x3BA58, size: 0x8, addend: 0x0, symName: __RNvYNtNtCscdP1gRbl3Ff_20pin_project_internal5utils15ReplaceReceiverNtNtNtCs6IAuOt8vWmF_3syn3gen9visit_mut8VisitMut20visit_expr_paren_mutB6_, symObjAddr: 0x2944, symBinAddr: 0x22060, symSize: 0x3C }
  - { offset: 0x3BA9A, size: 0x8, addend: 0x0, symName: __RNvYNtNtCscdP1gRbl3Ff_20pin_project_internal5utils15ReplaceReceiverNtNtNtCs6IAuOt8vWmF_3syn3gen9visit_mut8VisitMut20visit_expr_range_mutB6_, symObjAddr: 0x2980, symBinAddr: 0x2209C, symSize: 0x3C }
  - { offset: 0x3BADC, size: 0x8, addend: 0x0, symName: __RNvYNtNtCscdP1gRbl3Ff_20pin_project_internal5utils15ReplaceReceiverNtNtNtCs6IAuOt8vWmF_3syn3gen9visit_mut8VisitMut20visit_expr_tuple_mutB6_, symObjAddr: 0x29BC, symBinAddr: 0x220D8, symSize: 0x3C }
  - { offset: 0x3BB1E, size: 0x8, addend: 0x0, symName: __RNvYNtNtCscdP1gRbl3Ff_20pin_project_internal5utils15ReplaceReceiverNtNtNtCs6IAuOt8vWmF_3syn3gen9visit_mut8VisitMut20visit_expr_unary_mutB6_, symObjAddr: 0x29F8, symBinAddr: 0x22114, symSize: 0x3C }
  - { offset: 0x3BB60, size: 0x8, addend: 0x0, symName: __RNvYNtNtCscdP1gRbl3Ff_20pin_project_internal5utils15ReplaceReceiverNtNtNtCs6IAuOt8vWmF_3syn3gen9visit_mut8VisitMut20visit_expr_while_mutB6_, symObjAddr: 0x2A34, symBinAddr: 0x22150, symSize: 0x3C }
  - { offset: 0x3BBA2, size: 0x8, addend: 0x0, symName: __RNvYNtNtCscdP1gRbl3Ff_20pin_project_internal5utils15ReplaceReceiverNtNtNtCs6IAuOt8vWmF_3syn3gen9visit_mut8VisitMut20visit_expr_yield_mutB6_, symObjAddr: 0x2A70, symBinAddr: 0x2218C, symSize: 0x3C }
  - { offset: 0x3BBE4, size: 0x8, addend: 0x0, symName: __RNvYNtNtCscdP1gRbl3Ff_20pin_project_internal5utils15ReplaceReceiverNtNtNtCs6IAuOt8vWmF_3syn3gen9visit_mut8VisitMut20visit_local_init_mutB6_, symObjAddr: 0x2AAC, symBinAddr: 0x221C8, symSize: 0x3C }
  - { offset: 0x3BC26, size: 0x8, addend: 0x0, symName: __RNvYNtNtCscdP1gRbl3Ff_20pin_project_internal5utils15ReplaceReceiverNtNtNtCs6IAuOt8vWmF_3syn3gen9visit_mut8VisitMut20visit_stmt_macro_mutB6_, symObjAddr: 0x2AE8, symBinAddr: 0x22204, symSize: 0x3C }
  - { offset: 0x3BC68, size: 0x8, addend: 0x0, symName: __RNvYNtNtCscdP1gRbl3Ff_20pin_project_internal5utils15ReplaceReceiverNtNtNtCs6IAuOt8vWmF_3syn3gen9visit_mut8VisitMut20visit_type_array_mutB6_, symObjAddr: 0x2B24, symBinAddr: 0x22240, symSize: 0x3C }
  - { offset: 0x3BCAA, size: 0x8, addend: 0x0, symName: __RNvYNtNtCscdP1gRbl3Ff_20pin_project_internal5utils15ReplaceReceiverNtNtNtCs6IAuOt8vWmF_3syn3gen9visit_mut8VisitMut20visit_type_group_mutB6_, symObjAddr: 0x2B60, symBinAddr: 0x2227C, symSize: 0x3C }
  - { offset: 0x3BCEC, size: 0x8, addend: 0x0, symName: __RNvYNtNtCscdP1gRbl3Ff_20pin_project_internal5utils15ReplaceReceiverNtNtNtCs6IAuOt8vWmF_3syn3gen9visit_mut8VisitMut20visit_type_infer_mutB6_, symObjAddr: 0x2B9C, symBinAddr: 0x222B8, symSize: 0x3C }
  - { offset: 0x3BD2E, size: 0x8, addend: 0x0, symName: __RNvYNtNtCscdP1gRbl3Ff_20pin_project_internal5utils15ReplaceReceiverNtNtNtCs6IAuOt8vWmF_3syn3gen9visit_mut8VisitMut20visit_type_macro_mutB6_, symObjAddr: 0x2BD8, symBinAddr: 0x222F4, symSize: 0x3C }
  - { offset: 0x3BD70, size: 0x8, addend: 0x0, symName: __RNvYNtNtCscdP1gRbl3Ff_20pin_project_internal5utils15ReplaceReceiverNtNtNtCs6IAuOt8vWmF_3syn3gen9visit_mut8VisitMut20visit_type_never_mutB6_, symObjAddr: 0x2C14, symBinAddr: 0x22330, symSize: 0x3C }
  - { offset: 0x3BDB2, size: 0x8, addend: 0x0, symName: __RNvYNtNtCscdP1gRbl3Ff_20pin_project_internal5utils15ReplaceReceiverNtNtNtCs6IAuOt8vWmF_3syn3gen9visit_mut8VisitMut20visit_type_param_mutB6_, symObjAddr: 0x2C50, symBinAddr: 0x2236C, symSize: 0x3C }
  - { offset: 0x3BDF4, size: 0x8, addend: 0x0, symName: __RNvYNtNtCscdP1gRbl3Ff_20pin_project_internal5utils15ReplaceReceiverNtNtNtCs6IAuOt8vWmF_3syn3gen9visit_mut8VisitMut20visit_type_paren_mutB6_, symObjAddr: 0x2C8C, symBinAddr: 0x223A8, symSize: 0x3C }
  - { offset: 0x3BE36, size: 0x8, addend: 0x0, symName: __RNvYNtNtCscdP1gRbl3Ff_20pin_project_internal5utils15ReplaceReceiverNtNtNtCs6IAuOt8vWmF_3syn3gen9visit_mut8VisitMut20visit_type_slice_mutB6_, symObjAddr: 0x2CC8, symBinAddr: 0x223E4, symSize: 0x3C }
  - { offset: 0x3BE78, size: 0x8, addend: 0x0, symName: __RNvYNtNtCscdP1gRbl3Ff_20pin_project_internal5utils15ReplaceReceiverNtNtNtCs6IAuOt8vWmF_3syn3gen9visit_mut8VisitMut20visit_type_tuple_mutB6_, symObjAddr: 0x2D04, symBinAddr: 0x22420, symSize: 0x3C }
  - { offset: 0x3BEBA, size: 0x8, addend: 0x0, symName: __RNvYNtNtCscdP1gRbl3Ff_20pin_project_internal5utils15ReplaceReceiverNtNtNtCs6IAuOt8vWmF_3syn3gen9visit_mut8VisitMut20visit_visibility_mutB6_, symObjAddr: 0x2D40, symBinAddr: 0x2245C, symSize: 0x3C }
  - { offset: 0x3BEFC, size: 0x8, addend: 0x0, symName: __RNvYNtNtCscdP1gRbl3Ff_20pin_project_internal5utils15ReplaceReceiverNtNtNtCs6IAuOt8vWmF_3syn3gen9visit_mut8VisitMut21visit_assoc_const_mutB6_, symObjAddr: 0x2D7C, symBinAddr: 0x22498, symSize: 0x3C }
  - { offset: 0x3BF3B, size: 0x8, addend: 0x0, symName: __RNvYNtNtCscdP1gRbl3Ff_20pin_project_internal5utils15ReplaceReceiverNtNtNtCs6IAuOt8vWmF_3syn3gen9visit_mut8VisitMut21visit_bare_fn_arg_mutB6_, symObjAddr: 0x2DB8, symBinAddr: 0x224D4, symSize: 0x3C }
  - { offset: 0x3BF7A, size: 0x8, addend: 0x0, symName: __RNvYNtNtCscdP1gRbl3Ff_20pin_project_internal5utils15ReplaceReceiverNtNtNtCs6IAuOt8vWmF_3syn3gen9visit_mut8VisitMut21visit_const_param_mutB6_, symObjAddr: 0x2DF4, symBinAddr: 0x22510, symSize: 0x3C }
  - { offset: 0x3BFB9, size: 0x8, addend: 0x0, symName: __RNvYNtNtCscdP1gRbl3Ff_20pin_project_internal5utils15ReplaceReceiverNtNtNtCs6IAuOt8vWmF_3syn3gen9visit_mut8VisitMut21visit_expr_assign_mutB6_, symObjAddr: 0x2E30, symBinAddr: 0x2254C, symSize: 0x3C }
  - { offset: 0x3BFF8, size: 0x8, addend: 0x0, symName: __RNvYNtNtCscdP1gRbl3Ff_20pin_project_internal5utils15ReplaceReceiverNtNtNtCs6IAuOt8vWmF_3syn3gen9visit_mut8VisitMut21visit_expr_binary_mutB6_, symObjAddr: 0x2E6C, symBinAddr: 0x22588, symSize: 0x3C }
  - { offset: 0x3C037, size: 0x8, addend: 0x0, symName: __RNvYNtNtCscdP1gRbl3Ff_20pin_project_internal5utils15ReplaceReceiverNtNtNtCs6IAuOt8vWmF_3syn3gen9visit_mut8VisitMut21visit_expr_repeat_mutB6_, symObjAddr: 0x2EA8, symBinAddr: 0x225C4, symSize: 0x3C }
  - { offset: 0x3C079, size: 0x8, addend: 0x0, symName: __RNvYNtNtCscdP1gRbl3Ff_20pin_project_internal5utils15ReplaceReceiverNtNtNtCs6IAuOt8vWmF_3syn3gen9visit_mut8VisitMut21visit_expr_return_mutB6_, symObjAddr: 0x2EE4, symBinAddr: 0x22600, symSize: 0x3C }
  - { offset: 0x3C0BB, size: 0x8, addend: 0x0, symName: __RNvYNtNtCscdP1gRbl3Ff_20pin_project_internal5utils15ReplaceReceiverNtNtNtCs6IAuOt8vWmF_3syn3gen9visit_mut8VisitMut21visit_expr_unsafe_mutB6_, symObjAddr: 0x2F20, symBinAddr: 0x2263C, symSize: 0x3C }
  - { offset: 0x3C0FD, size: 0x8, addend: 0x0, symName: __RNvYNtNtCscdP1gRbl3Ff_20pin_project_internal5utils15ReplaceReceiverNtNtNtCs6IAuOt8vWmF_3syn3gen9visit_mut8VisitMut21visit_field_value_mutB6_, symObjAddr: 0x2F5C, symBinAddr: 0x22678, symSize: 0x3C }
  - { offset: 0x3C13F, size: 0x8, addend: 0x0, symName: __RNvYNtNtCscdP1gRbl3Ff_20pin_project_internal5utils15ReplaceReceiverNtNtNtCs6IAuOt8vWmF_3syn3gen9visit_mut8VisitMut21visit_item_struct_mutB6_, symObjAddr: 0x2F98, symBinAddr: 0x226B4, symSize: 0x3C }
  - { offset: 0x3C181, size: 0x8, addend: 0x0, symName: __RNvYNtNtCscdP1gRbl3Ff_20pin_project_internal5utils15ReplaceReceiverNtNtNtCs6IAuOt8vWmF_3syn3gen9visit_mut8VisitMut21visit_return_type_mutB6_, symObjAddr: 0x2FD4, symBinAddr: 0x226F0, symSize: 0x3C }
  - { offset: 0x3C1C3, size: 0x8, addend: 0x0, symName: __RNvYNtNtCscdP1gRbl3Ff_20pin_project_internal5utils15ReplaceReceiverNtNtNtCs6IAuOt8vWmF_3syn3gen9visit_mut8VisitMut21visit_trait_bound_mutB6_, symObjAddr: 0x3010, symBinAddr: 0x2272C, symSize: 0x3C }
  - { offset: 0x3C205, size: 0x8, addend: 0x0, symName: __RNvYNtNtCscdP1gRbl3Ff_20pin_project_internal5utils15ReplaceReceiverNtNtNtCs6IAuOt8vWmF_3syn3gen9visit_mut8VisitMut22visit_expr_closure_mutB6_, symObjAddr: 0x304C, symBinAddr: 0x22768, symSize: 0x3C }
  - { offset: 0x3C244, size: 0x8, addend: 0x0, symName: __RNvYNtNtCscdP1gRbl3Ff_20pin_project_internal5utils15ReplaceReceiverNtNtNtCs6IAuOt8vWmF_3syn3gen9visit_mut8VisitMut22visit_fields_named_mutB6_, symObjAddr: 0x3088, symBinAddr: 0x227A4, symSize: 0x3C }
  - { offset: 0x3C286, size: 0x8, addend: 0x0, symName: __RNvYNtNtCscdP1gRbl3Ff_20pin_project_internal5utils15ReplaceReceiverNtNtNtCs6IAuOt8vWmF_3syn3gen9visit_mut8VisitMut22visit_lit_byte_str_mutB6_, symObjAddr: 0x30C4, symBinAddr: 0x227E0, symSize: 0x3C }
  - { offset: 0x3C2C8, size: 0x8, addend: 0x0, symName: __RNvYNtNtCscdP1gRbl3Ff_20pin_project_internal5utils15ReplaceReceiverNtNtNtCs6IAuOt8vWmF_3syn3gen9visit_mut8VisitMut22visit_range_limits_mutB6_, symObjAddr: 0x3100, symBinAddr: 0x2281C, symSize: 0x3C }
  - { offset: 0x3C30A, size: 0x8, addend: 0x0, symName: __RNvYNtNtCscdP1gRbl3Ff_20pin_project_internal5utils15ReplaceReceiverNtNtNtCs6IAuOt8vWmF_3syn3gen9visit_mut8VisitMut22visit_token_stream_mutB6_, symObjAddr: 0x313C, symBinAddr: 0x22858, symSize: 0x24 }
  - { offset: 0x3C34C, size: 0x8, addend: 0x0, symName: __RNvYNtNtCscdP1gRbl3Ff_20pin_project_internal5utils15ReplaceReceiverNtNtNtCs6IAuOt8vWmF_3syn3gen9visit_mut8VisitMut22visit_type_bare_fn_mutB6_, symObjAddr: 0x3160, symBinAddr: 0x2287C, symSize: 0x3C }
  - { offset: 0x3C38E, size: 0x8, addend: 0x0, symName: __RNvYNtNtCscdP1gRbl3Ff_20pin_project_internal5utils15ReplaceReceiverNtNtNtCs6IAuOt8vWmF_3syn3gen9visit_mut8VisitMut22visit_where_clause_mutB6_, symObjAddr: 0x319C, symBinAddr: 0x228B8, symSize: 0x3C }
  - { offset: 0x3C3D0, size: 0x8, addend: 0x0, symName: __RNvYNtNtCscdP1gRbl3Ff_20pin_project_internal5utils15ReplaceReceiverNtNtNtCs6IAuOt8vWmF_3syn3gen9visit_mut8VisitMut23visit_bare_variadic_mutB6_, symObjAddr: 0x31D8, symBinAddr: 0x228F4, symSize: 0x3C }
  - { offset: 0x3C40F, size: 0x8, addend: 0x0, symName: __RNvYNtNtCscdP1gRbl3Ff_20pin_project_internal5utils15ReplaceReceiverNtNtNtCs6IAuOt8vWmF_3syn3gen9visit_mut8VisitMut23visit_expr_continue_mutB6_, symObjAddr: 0x3214, symBinAddr: 0x22930, symSize: 0x3C }
  - { offset: 0x3C44E, size: 0x8, addend: 0x0, symName: __RNvYNtNtCscdP1gRbl3Ff_20pin_project_internal5utils15ReplaceReceiverNtNtNtCs6IAuOt8vWmF_3syn3gen9visit_mut8VisitMut23visit_expr_for_loop_mutB6_, symObjAddr: 0x3250, symBinAddr: 0x2296C, symSize: 0x3C }
  - { offset: 0x3C48D, size: 0x8, addend: 0x0, symName: __RNvYNtNtCscdP1gRbl3Ff_20pin_project_internal5utils15ReplaceReceiverNtNtNtCs6IAuOt8vWmF_3syn3gen9visit_mut8VisitMut23visit_expr_raw_addr_mutB6_, symObjAddr: 0x328C, symBinAddr: 0x229A8, symSize: 0x3C }
  - { offset: 0x3C4CF, size: 0x8, addend: 0x0, symName: __RNvYNtNtCscdP1gRbl3Ff_20pin_project_internal5utils15ReplaceReceiverNtNtNtCs6IAuOt8vWmF_3syn3gen9visit_mut8VisitMut23visit_generic_param_mutB6_, symObjAddr: 0x32C8, symBinAddr: 0x229E4, symSize: 0x3C }
  - { offset: 0x3C511, size: 0x8, addend: 0x0, symName: __RNvYNtNtCscdP1gRbl3Ff_20pin_project_internal5utils15ReplaceReceiverNtNtNtCs6IAuOt8vWmF_3syn3gen9visit_mut8VisitMut23visit_pat_reference_mutB6_, symObjAddr: 0x3304, symBinAddr: 0x22A20, symSize: 0x3C }
  - { offset: 0x3C553, size: 0x8, addend: 0x0, symName: __RNvYNtNtCscdP1gRbl3Ff_20pin_project_internal5utils15ReplaceReceiverNtNtNtCs6IAuOt8vWmF_3syn3gen9visit_mut8VisitMut24visit_captured_param_mutB6_, symObjAddr: 0x3340, symBinAddr: 0x22A5C, symSize: 0x3C }
  - { offset: 0x3C592, size: 0x8, addend: 0x0, symName: __RNvYNtNtCscdP1gRbl3Ff_20pin_project_internal5utils15ReplaceReceiverNtNtNtCs6IAuOt8vWmF_3syn3gen9visit_mut8VisitMut24visit_expr_reference_mutB6_, symObjAddr: 0x337C, symBinAddr: 0x22A98, symSize: 0x3C }
  - { offset: 0x3C5D4, size: 0x8, addend: 0x0, symName: __RNvYNtNtCscdP1gRbl3Ff_20pin_project_internal5utils15ReplaceReceiverNtNtNtCs6IAuOt8vWmF_3syn3gen9visit_mut8VisitMut24visit_expr_try_block_mutB6_, symObjAddr: 0x33B8, symBinAddr: 0x22AD4, symSize: 0x3C }
  - { offset: 0x3C616, size: 0x8, addend: 0x0, symName: __RNvYNtNtCscdP1gRbl3Ff_20pin_project_internal5utils15ReplaceReceiverNtNtNtCs6IAuOt8vWmF_3syn3gen9visit_mut8VisitMut24visit_fields_unnamed_mutB6_, symObjAddr: 0x33F4, symBinAddr: 0x22B10, symSize: 0x3C }
  - { offset: 0x3C658, size: 0x8, addend: 0x0, symName: __RNvYNtNtCscdP1gRbl3Ff_20pin_project_internal5utils15ReplaceReceiverNtNtNtCs6IAuOt8vWmF_3syn3gen9visit_mut8VisitMut24visit_lifetime_param_mutB6_, symObjAddr: 0x3430, symBinAddr: 0x22B4C, symSize: 0x3C }
  - { offset: 0x3C69A, size: 0x8, addend: 0x0, symName: __RNvYNtNtCscdP1gRbl3Ff_20pin_project_internal5utils15ReplaceReceiverNtNtNtCs6IAuOt8vWmF_3syn3gen9visit_mut8VisitMut24visit_path_arguments_mutB6_, symObjAddr: 0x346C, symBinAddr: 0x22B88, symSize: 0x3C }
  - { offset: 0x3C6DC, size: 0x8, addend: 0x0, symName: __RNvYNtNtCscdP1gRbl3Ff_20pin_project_internal5utils15ReplaceReceiverNtNtNtCs6IAuOt8vWmF_3syn3gen9visit_mut8VisitMut24visit_predicate_type_mutB6_, symObjAddr: 0x34A8, symBinAddr: 0x22BC4, symSize: 0x3C }
  - { offset: 0x3C71E, size: 0x8, addend: 0x0, symName: __RNvYNtNtCscdP1gRbl3Ff_20pin_project_internal5utils15ReplaceReceiverNtNtNtCs6IAuOt8vWmF_3syn3gen9visit_mut8VisitMut24visit_type_reference_mutB6_, symObjAddr: 0x34E4, symBinAddr: 0x22C00, symSize: 0x3C }
  - { offset: 0x3C760, size: 0x8, addend: 0x0, symName: __RNvYNtNtCscdP1gRbl3Ff_20pin_project_internal5utils15ReplaceReceiverNtNtNtCs6IAuOt8vWmF_3syn3gen9visit_mut8VisitMut24visit_vis_restricted_mutB6_, symObjAddr: 0x3520, symBinAddr: 0x22C3C, symSize: 0x3C }
  - { offset: 0x3C7A2, size: 0x8, addend: 0x0, symName: __RNvYNtNtCscdP1gRbl3Ff_20pin_project_internal5utils15ReplaceReceiverNtNtNtCs6IAuOt8vWmF_3syn3gen9visit_mut8VisitMut25visit_bound_lifetimes_mutB6_, symObjAddr: 0x355C, symBinAddr: 0x22C78, symSize: 0x3C }
  - { offset: 0x3C7E1, size: 0x8, addend: 0x0, symName: __RNvYNtNtCscdP1gRbl3Ff_20pin_project_internal5utils15ReplaceReceiverNtNtNtCs6IAuOt8vWmF_3syn3gen9visit_mut8VisitMut25visit_macro_delimiter_mutB6_, symObjAddr: 0x3598, symBinAddr: 0x22CB4, symSize: 0x3C }
  - { offset: 0x3C823, size: 0x8, addend: 0x0, symName: __RNvYNtNtCscdP1gRbl3Ff_20pin_project_internal5utils15ReplaceReceiverNtNtNtCs6IAuOt8vWmF_3syn3gen9visit_mut8VisitMut25visit_meta_name_value_mutB6_, symObjAddr: 0x35D4, symBinAddr: 0x22CF0, symSize: 0x3C }
  - { offset: 0x3C865, size: 0x8, addend: 0x0, symName: __RNvYNtNtCscdP1gRbl3Ff_20pin_project_internal5utils15ReplaceReceiverNtNtNtCs6IAuOt8vWmF_3syn3gen9visit_mut8VisitMut25visit_precise_capture_mutB6_, symObjAddr: 0x3610, symBinAddr: 0x22D2C, symSize: 0x3C }
  - { offset: 0x3C8A7, size: 0x8, addend: 0x0, symName: __RNvYNtNtCscdP1gRbl3Ff_20pin_project_internal5utils15ReplaceReceiverNtNtNtCs6IAuOt8vWmF_3syn3gen9visit_mut8VisitMut25visit_type_impl_trait_mutB6_, symObjAddr: 0x364C, symBinAddr: 0x22D68, symSize: 0x3C }
  - { offset: 0x3C8E9, size: 0x8, addend: 0x0, symName: __RNvYNtNtCscdP1gRbl3Ff_20pin_project_internal5utils15ReplaceReceiverNtNtNtCs6IAuOt8vWmF_3syn3gen9visit_mut8VisitMut25visit_where_predicate_mutB6_, symObjAddr: 0x3688, symBinAddr: 0x22DA4, symSize: 0x3C }
  - { offset: 0x3C92B, size: 0x8, addend: 0x0, symName: __RNvYNtNtCscdP1gRbl3Ff_20pin_project_internal5utils15ReplaceReceiverNtNtNtCs6IAuOt8vWmF_3syn3gen9visit_mut8VisitMut26visit_expr_method_call_mutB6_, symObjAddr: 0x36C4, symBinAddr: 0x22DE0, symSize: 0x3C }
  - { offset: 0x3C96D, size: 0x8, addend: 0x0, symName: __RNvYNtNtCscdP1gRbl3Ff_20pin_project_internal5utils15ReplaceReceiverNtNtNtCs6IAuOt8vWmF_3syn3gen9visit_mut8VisitMut26visit_field_mutability_mutB6_, symObjAddr: 0x3700, symBinAddr: 0x22E1C, symSize: 0x3C }
  - { offset: 0x3C9AF, size: 0x8, addend: 0x0, symName: __RNvYNtNtCscdP1gRbl3Ff_20pin_project_internal5utils15ReplaceReceiverNtNtNtCs6IAuOt8vWmF_3syn3gen9visit_mut8VisitMut26visit_generic_argument_mutB6_, symObjAddr: 0x373C, symBinAddr: 0x22E58, symSize: 0x3C }
  - { offset: 0x3C9F1, size: 0x8, addend: 0x0, symName: __RNvYNtNtCscdP1gRbl3Ff_20pin_project_internal5utils15ReplaceReceiverNtNtNtCs6IAuOt8vWmF_3syn3gen9visit_mut8VisitMut26visit_type_param_bound_mutB6_, symObjAddr: 0x3778, symBinAddr: 0x22E94, symSize: 0x3C }
  - { offset: 0x3CA33, size: 0x8, addend: 0x0, symName: __RNvYNtNtCscdP1gRbl3Ff_20pin_project_internal5utils15ReplaceReceiverNtNtNtCs6IAuOt8vWmF_3syn3gen9visit_mut8VisitMut27visit_type_trait_object_mutB6_, symObjAddr: 0x37B4, symBinAddr: 0x22ED0, symSize: 0x3C }
  - { offset: 0x3CA75, size: 0x8, addend: 0x0, symName: __RNvYNtNtCscdP1gRbl3Ff_20pin_project_internal5utils15ReplaceReceiverNtNtNtCs6IAuOt8vWmF_3syn3gen9visit_mut8VisitMut28visit_pointer_mutability_mutB6_, symObjAddr: 0x37F0, symBinAddr: 0x22F0C, symSize: 0x3C }
  - { offset: 0x3CAB7, size: 0x8, addend: 0x0, symName: __RNvYNtNtCscdP1gRbl3Ff_20pin_project_internal5utils15ReplaceReceiverNtNtNtCs6IAuOt8vWmF_3syn3gen9visit_mut8VisitMut28visit_predicate_lifetime_mutB6_, symObjAddr: 0x382C, symBinAddr: 0x22F48, symSize: 0x3C }
  - { offset: 0x3CAF9, size: 0x8, addend: 0x0, symName: __RNvYNtNtCscdP1gRbl3Ff_20pin_project_internal5utils15ReplaceReceiverNtNtNtCs6IAuOt8vWmF_3syn3gen9visit_mut8VisitMut30visit_trait_bound_modifier_mutB6_, symObjAddr: 0x3868, symBinAddr: 0x22F84, symSize: 0x3C }
  - { offset: 0x3CB3B, size: 0x8, addend: 0x0, symName: __RNvYNtNtCscdP1gRbl3Ff_20pin_project_internal5utils15ReplaceReceiverNtNtNtCs6IAuOt8vWmF_3syn3gen9visit_mut8VisitMut41visit_parenthesized_generic_arguments_mutB6_, symObjAddr: 0x38A4, symBinAddr: 0x22FC0, symSize: 0x3C }
  - { offset: 0x3CB7D, size: 0x8, addend: 0x0, symName: __RNvYNtNtCscdP1gRbl3Ff_20pin_project_internal5utils15ReplaceReceiverNtNtNtCs6IAuOt8vWmF_3syn3gen9visit_mut8VisitMut43visit_angle_bracketed_generic_arguments_mutB6_, symObjAddr: 0x38E0, symBinAddr: 0x22FFC, symSize: 0x3C }
  - { offset: 0x3CBBC, size: 0x8, addend: 0x0, symName: __RNvYNtNvNtCscdP1gRbl3Ff_20pin_project_internal5utils23determine_lifetime_name16CollectLifetimesNtNtNtCs6IAuOt8vWmF_3syn3gen9visit_mut8VisitMut13visit_abi_mutB8_, symObjAddr: 0x391C, symBinAddr: 0x23038, symSize: 0x3C }
  - { offset: 0x3CBFB, size: 0x8, addend: 0x0, symName: __RNvYNtNvNtCscdP1gRbl3Ff_20pin_project_internal5utils23determine_lifetime_name16CollectLifetimesNtNtNtCs6IAuOt8vWmF_3syn3gen9visit_mut8VisitMut13visit_arm_mutB8_, symObjAddr: 0x3958, symBinAddr: 0x23074, symSize: 0x3C }
  - { offset: 0x3CC3A, size: 0x8, addend: 0x0, symName: __RNvYNtNvNtCscdP1gRbl3Ff_20pin_project_internal5utils23determine_lifetime_name16CollectLifetimesNtNtNtCs6IAuOt8vWmF_3syn3gen9visit_mut8VisitMut13visit_lit_mutB8_, symObjAddr: 0x3994, symBinAddr: 0x230B0, symSize: 0x3C }
  - { offset: 0x3CC7C, size: 0x8, addend: 0x0, symName: __RNvYNtNvNtCscdP1gRbl3Ff_20pin_project_internal5utils23determine_lifetime_name16CollectLifetimesNtNtNtCs6IAuOt8vWmF_3syn3gen9visit_mut8VisitMut13visit_pat_mutB8_, symObjAddr: 0x39D0, symBinAddr: 0x230EC, symSize: 0x3C }
  - { offset: 0x3CCBE, size: 0x8, addend: 0x0, symName: __RNvYNtNvNtCscdP1gRbl3Ff_20pin_project_internal5utils23determine_lifetime_name16CollectLifetimesNtNtNtCs6IAuOt8vWmF_3syn3gen9visit_mut8VisitMut14visit_expr_mutB8_, symObjAddr: 0x3A0C, symBinAddr: 0x23128, symSize: 0x3C }
  - { offset: 0x3CCFD, size: 0x8, addend: 0x0, symName: __RNvYNtNvNtCscdP1gRbl3Ff_20pin_project_internal5utils23determine_lifetime_name16CollectLifetimesNtNtNtCs6IAuOt8vWmF_3syn3gen9visit_mut8VisitMut14visit_item_mutB8_, symObjAddr: 0x3A48, symBinAddr: 0x23164, symSize: 0x3C }
  - { offset: 0x3CD3F, size: 0x8, addend: 0x0, symName: __RNvYNtNvNtCscdP1gRbl3Ff_20pin_project_internal5utils23determine_lifetime_name16CollectLifetimesNtNtNtCs6IAuOt8vWmF_3syn3gen9visit_mut8VisitMut14visit_meta_mutB8_, symObjAddr: 0x3A84, symBinAddr: 0x231A0, symSize: 0x3C }
  - { offset: 0x3CD81, size: 0x8, addend: 0x0, symName: __RNvYNtNvNtCscdP1gRbl3Ff_20pin_project_internal5utils23determine_lifetime_name16CollectLifetimesNtNtNtCs6IAuOt8vWmF_3syn3gen9visit_mut8VisitMut14visit_path_mutB8_, symObjAddr: 0x3AC0, symBinAddr: 0x231DC, symSize: 0x3C }
  - { offset: 0x3CDC3, size: 0x8, addend: 0x0, symName: __RNvYNtNvNtCscdP1gRbl3Ff_20pin_project_internal5utils23determine_lifetime_name16CollectLifetimesNtNtNtCs6IAuOt8vWmF_3syn3gen9visit_mut8VisitMut14visit_span_mutB8_, symObjAddr: 0x3AFC, symBinAddr: 0x23218, symSize: 0x24 }
  - { offset: 0x3CE05, size: 0x8, addend: 0x0, symName: __RNvYNtNvNtCscdP1gRbl3Ff_20pin_project_internal5utils23determine_lifetime_name16CollectLifetimesNtNtNtCs6IAuOt8vWmF_3syn3gen9visit_mut8VisitMut14visit_stmt_mutB8_, symObjAddr: 0x3B20, symBinAddr: 0x2323C, symSize: 0x3C }
  - { offset: 0x3CE47, size: 0x8, addend: 0x0, symName: __RNvYNtNvNtCscdP1gRbl3Ff_20pin_project_internal5utils23determine_lifetime_name16CollectLifetimesNtNtNtCs6IAuOt8vWmF_3syn3gen9visit_mut8VisitMut14visit_type_mutB8_, symObjAddr: 0x3B5C, symBinAddr: 0x23278, symSize: 0x3C }
  - { offset: 0x3CE89, size: 0x8, addend: 0x0, symName: __RNvYNtNvNtCscdP1gRbl3Ff_20pin_project_internal5utils23determine_lifetime_name16CollectLifetimesNtNtNtCs6IAuOt8vWmF_3syn3gen9visit_mut8VisitMut15visit_block_mutB8_, symObjAddr: 0x3B98, symBinAddr: 0x232B4, symSize: 0x3C }
  - { offset: 0x3CEC8, size: 0x8, addend: 0x0, symName: __RNvYNtNvNtCscdP1gRbl3Ff_20pin_project_internal5utils23determine_lifetime_name16CollectLifetimesNtNtNtCs6IAuOt8vWmF_3syn3gen9visit_mut8VisitMut15visit_field_mutB8_, symObjAddr: 0x3BD4, symBinAddr: 0x232F0, symSize: 0x3C }
  - { offset: 0x3CF0A, size: 0x8, addend: 0x0, symName: __RNvYNtNvNtCscdP1gRbl3Ff_20pin_project_internal5utils23determine_lifetime_name16CollectLifetimesNtNtNtCs6IAuOt8vWmF_3syn3gen9visit_mut8VisitMut15visit_ident_mutB8_, symObjAddr: 0x3C10, symBinAddr: 0x2332C, symSize: 0x3C }
  - { offset: 0x3CF4C, size: 0x8, addend: 0x0, symName: __RNvYNtNvNtCscdP1gRbl3Ff_20pin_project_internal5utils23determine_lifetime_name16CollectLifetimesNtNtNtCs6IAuOt8vWmF_3syn3gen9visit_mut8VisitMut15visit_index_mutB8_, symObjAddr: 0x3C4C, symBinAddr: 0x23368, symSize: 0x3C }
  - { offset: 0x3CF8E, size: 0x8, addend: 0x0, symName: __RNvYNtNvNtCscdP1gRbl3Ff_20pin_project_internal5utils23determine_lifetime_name16CollectLifetimesNtNtNtCs6IAuOt8vWmF_3syn3gen9visit_mut8VisitMut15visit_label_mutB8_, symObjAddr: 0x3C88, symBinAddr: 0x233A4, symSize: 0x3C }
  - { offset: 0x3CFD0, size: 0x8, addend: 0x0, symName: __RNvYNtNvNtCscdP1gRbl3Ff_20pin_project_internal5utils23determine_lifetime_name16CollectLifetimesNtNtNtCs6IAuOt8vWmF_3syn3gen9visit_mut8VisitMut15visit_local_mutB8_, symObjAddr: 0x3CC4, symBinAddr: 0x233E0, symSize: 0x3C }
  - { offset: 0x3D012, size: 0x8, addend: 0x0, symName: __RNvYNtNvNtCscdP1gRbl3Ff_20pin_project_internal5utils23determine_lifetime_name16CollectLifetimesNtNtNtCs6IAuOt8vWmF_3syn3gen9visit_mut8VisitMut15visit_macro_mutB8_, symObjAddr: 0x3D00, symBinAddr: 0x2341C, symSize: 0x3C }
  - { offset: 0x3D054, size: 0x8, addend: 0x0, symName: __RNvYNtNvNtCscdP1gRbl3Ff_20pin_project_internal5utils23determine_lifetime_name16CollectLifetimesNtNtNtCs6IAuOt8vWmF_3syn3gen9visit_mut8VisitMut15visit_qself_mutB8_, symObjAddr: 0x3D3C, symBinAddr: 0x23458, symSize: 0x3C }
  - { offset: 0x3D096, size: 0x8, addend: 0x0, symName: __RNvYNtNvNtCscdP1gRbl3Ff_20pin_project_internal5utils23determine_lifetime_name16CollectLifetimesNtNtNtCs6IAuOt8vWmF_3syn3gen9visit_mut8VisitMut15visit_un_op_mutB8_, symObjAddr: 0x3D78, symBinAddr: 0x23494, symSize: 0x3C }
  - { offset: 0x3D0D8, size: 0x8, addend: 0x0, symName: __RNvYNtNvNtCscdP1gRbl3Ff_20pin_project_internal5utils23determine_lifetime_name16CollectLifetimesNtNtNtCs6IAuOt8vWmF_3syn3gen9visit_mut8VisitMut16visit_bin_op_mutB8_, symObjAddr: 0x3DB4, symBinAddr: 0x234D0, symSize: 0x3C }
  - { offset: 0x3D117, size: 0x8, addend: 0x0, symName: __RNvYNtNvNtCscdP1gRbl3Ff_20pin_project_internal5utils23determine_lifetime_name16CollectLifetimesNtNtNtCs6IAuOt8vWmF_3syn3gen9visit_mut8VisitMut16visit_fields_mutB8_, symObjAddr: 0x3DF0, symBinAddr: 0x2350C, symSize: 0x3C }
  - { offset: 0x3D159, size: 0x8, addend: 0x0, symName: __RNvYNtNvNtCscdP1gRbl3Ff_20pin_project_internal5utils23determine_lifetime_name16CollectLifetimesNtNtNtCs6IAuOt8vWmF_3syn3gen9visit_mut8VisitMut16visit_fn_arg_mutB8_, symObjAddr: 0x3E2C, symBinAddr: 0x23548, symSize: 0x3C }
  - { offset: 0x3D19B, size: 0x8, addend: 0x0, symName: __RNvYNtNvNtCscdP1gRbl3Ff_20pin_project_internal5utils23determine_lifetime_name16CollectLifetimesNtNtNtCs6IAuOt8vWmF_3syn3gen9visit_mut8VisitMut16visit_member_mutB8_, symObjAddr: 0x3E68, symBinAddr: 0x23584, symSize: 0x3C }
  - { offset: 0x3D1DD, size: 0x8, addend: 0x0, symName: __RNvYNtNvNtCscdP1gRbl3Ff_20pin_project_internal5utils23determine_lifetime_name16CollectLifetimesNtNtNtCs6IAuOt8vWmF_3syn3gen9visit_mut8VisitMut16visit_pat_or_mutB8_, symObjAddr: 0x3EA4, symBinAddr: 0x235C0, symSize: 0x3C }
  - { offset: 0x3D21F, size: 0x8, addend: 0x0, symName: __RNvYNtNvNtCscdP1gRbl3Ff_20pin_project_internal5utils23determine_lifetime_name16CollectLifetimesNtNtNtCs6IAuOt8vWmF_3syn3gen9visit_mut8VisitMut17visit_expr_if_mutB8_, symObjAddr: 0x3EE0, symBinAddr: 0x235FC, symSize: 0x3C }
  - { offset: 0x3D25E, size: 0x8, addend: 0x0, symName: __RNvYNtNvNtCscdP1gRbl3Ff_20pin_project_internal5utils23determine_lifetime_name16CollectLifetimesNtNtNtCs6IAuOt8vWmF_3syn3gen9visit_mut8VisitMut17visit_item_fn_mutB8_, symObjAddr: 0x3F1C, symBinAddr: 0x23638, symSize: 0x3C }
  - { offset: 0x3D2A0, size: 0x8, addend: 0x0, symName: __RNvYNtNvNtCscdP1gRbl3Ff_20pin_project_internal5utils23determine_lifetime_name16CollectLifetimesNtNtNtCs6IAuOt8vWmF_3syn3gen9visit_mut8VisitMut17visit_lit_int_mutB8_, symObjAddr: 0x3F58, symBinAddr: 0x23674, symSize: 0x3C }
  - { offset: 0x3D2E2, size: 0x8, addend: 0x0, symName: __RNvYNtNvNtCscdP1gRbl3Ff_20pin_project_internal5utils23determine_lifetime_name16CollectLifetimesNtNtNtCs6IAuOt8vWmF_3syn3gen9visit_mut8VisitMut17visit_lit_str_mutB8_, symObjAddr: 0x3F94, symBinAddr: 0x236B0, symSize: 0x3C }
  - { offset: 0x3D324, size: 0x8, addend: 0x0, symName: __RNvYNtNvNtCscdP1gRbl3Ff_20pin_project_internal5utils23determine_lifetime_name16CollectLifetimesNtNtNtCs6IAuOt8vWmF_3syn3gen9visit_mut8VisitMut17visit_variant_mutB8_, symObjAddr: 0x3FD0, symBinAddr: 0x236EC, symSize: 0x3C }
  - { offset: 0x3D366, size: 0x8, addend: 0x0, symName: __RNvYNtNvNtCscdP1gRbl3Ff_20pin_project_internal5utils23determine_lifetime_name16CollectLifetimesNtNtNtCs6IAuOt8vWmF_3syn3gen9visit_mut8VisitMut18visit_expr_let_mutB8_, symObjAddr: 0x400C, symBinAddr: 0x23728, symSize: 0x3C }
  - { offset: 0x3D3A5, size: 0x8, addend: 0x0, symName: __RNvYNtNvNtCscdP1gRbl3Ff_20pin_project_internal5utils23determine_lifetime_name16CollectLifetimesNtNtNtCs6IAuOt8vWmF_3syn3gen9visit_mut8VisitMut18visit_expr_lit_mutB8_, symObjAddr: 0x4048, symBinAddr: 0x23764, symSize: 0x3C }
  - { offset: 0x3D3E4, size: 0x8, addend: 0x0, symName: __RNvYNtNvNtCscdP1gRbl3Ff_20pin_project_internal5utils23determine_lifetime_name16CollectLifetimesNtNtNtCs6IAuOt8vWmF_3syn3gen9visit_mut8VisitMut18visit_expr_try_mutB8_, symObjAddr: 0x4084, symBinAddr: 0x237A0, symSize: 0x3C }
  - { offset: 0x3D426, size: 0x8, addend: 0x0, symName: __RNvYNtNvNtCscdP1gRbl3Ff_20pin_project_internal5utils23determine_lifetime_name16CollectLifetimesNtNtNtCs6IAuOt8vWmF_3syn3gen9visit_mut8VisitMut18visit_generics_mutB8_, symObjAddr: 0x40C0, symBinAddr: 0x237DC, symSize: 0x3C }
  - { offset: 0x3D468, size: 0x8, addend: 0x0, symName: __RNvYNtNvNtCscdP1gRbl3Ff_20pin_project_internal5utils23determine_lifetime_name16CollectLifetimesNtNtNtCs6IAuOt8vWmF_3syn3gen9visit_mut8VisitMut18visit_item_mod_mutB8_, symObjAddr: 0x40FC, symBinAddr: 0x23818, symSize: 0x3C }
  - { offset: 0x3D4AA, size: 0x8, addend: 0x0, symName: __RNvYNtNvNtCscdP1gRbl3Ff_20pin_project_internal5utils23determine_lifetime_name16CollectLifetimesNtNtNtCs6IAuOt8vWmF_3syn3gen9visit_mut8VisitMut18visit_item_use_mutB8_, symObjAddr: 0x4138, symBinAddr: 0x23854, symSize: 0x3C }
  - { offset: 0x3D4EC, size: 0x8, addend: 0x0, symName: __RNvYNtNvNtCscdP1gRbl3Ff_20pin_project_internal5utils23determine_lifetime_name16CollectLifetimesNtNtNtCs6IAuOt8vWmF_3syn3gen9visit_mut8VisitMut18visit_lifetime_mutB8_, symObjAddr: 0x4174, symBinAddr: 0x23890, symSize: 0x3C }
  - { offset: 0x3D52E, size: 0x8, addend: 0x0, symName: __RNvYNtNvNtCscdP1gRbl3Ff_20pin_project_internal5utils23determine_lifetime_name16CollectLifetimesNtNtNtCs6IAuOt8vWmF_3syn3gen9visit_mut8VisitMut18visit_lit_bool_mutB8_, symObjAddr: 0x41B0, symBinAddr: 0x238CC, symSize: 0x3C }
  - { offset: 0x3D570, size: 0x8, addend: 0x0, symName: __RNvYNtNvNtCscdP1gRbl3Ff_20pin_project_internal5utils23determine_lifetime_name16CollectLifetimesNtNtNtCs6IAuOt8vWmF_3syn3gen9visit_mut8VisitMut18visit_lit_byte_mutB8_, symObjAddr: 0x41EC, symBinAddr: 0x23908, symSize: 0x3C }
  - { offset: 0x3D5B2, size: 0x8, addend: 0x0, symName: __RNvYNtNvNtCscdP1gRbl3Ff_20pin_project_internal5utils23determine_lifetime_name16CollectLifetimesNtNtNtCs6IAuOt8vWmF_3syn3gen9visit_mut8VisitMut18visit_lit_char_mutB8_, symObjAddr: 0x4228, symBinAddr: 0x23944, symSize: 0x3C }
  - { offset: 0x3D5F4, size: 0x8, addend: 0x0, symName: __RNvYNtNvNtCscdP1gRbl3Ff_20pin_project_internal5utils23determine_lifetime_name16CollectLifetimesNtNtNtCs6IAuOt8vWmF_3syn3gen9visit_mut8VisitMut18visit_lit_cstr_mutB8_, symObjAddr: 0x4264, symBinAddr: 0x23980, symSize: 0x3C }
  - { offset: 0x3D636, size: 0x8, addend: 0x0, symName: __RNvYNtNvNtCscdP1gRbl3Ff_20pin_project_internal5utils23determine_lifetime_name16CollectLifetimesNtNtNtCs6IAuOt8vWmF_3syn3gen9visit_mut8VisitMut18visit_pat_rest_mutB8_, symObjAddr: 0x42A0, symBinAddr: 0x239BC, symSize: 0x3C }
  - { offset: 0x3D678, size: 0x8, addend: 0x0, symName: __RNvYNtNvNtCscdP1gRbl3Ff_20pin_project_internal5utils23determine_lifetime_name16CollectLifetimesNtNtNtCs6IAuOt8vWmF_3syn3gen9visit_mut8VisitMut18visit_pat_type_mutB8_, symObjAddr: 0x42DC, symBinAddr: 0x239F8, symSize: 0x3C }
  - { offset: 0x3D6BA, size: 0x8, addend: 0x0, symName: __RNvYNtNvNtCscdP1gRbl3Ff_20pin_project_internal5utils23determine_lifetime_name16CollectLifetimesNtNtNtCs6IAuOt8vWmF_3syn3gen9visit_mut8VisitMut18visit_pat_wild_mutB8_, symObjAddr: 0x4318, symBinAddr: 0x23A34, symSize: 0x3C }
  - { offset: 0x3D6FC, size: 0x8, addend: 0x0, symName: __RNvYNtNvNtCscdP1gRbl3Ff_20pin_project_internal5utils23determine_lifetime_name16CollectLifetimesNtNtNtCs6IAuOt8vWmF_3syn3gen9visit_mut8VisitMut18visit_receiver_mutB8_, symObjAddr: 0x4354, symBinAddr: 0x23A70, symSize: 0x3C }
  - { offset: 0x3D73E, size: 0x8, addend: 0x0, symName: __RNvYNtNvNtCscdP1gRbl3Ff_20pin_project_internal5utils23determine_lifetime_name16CollectLifetimesNtNtNtCs6IAuOt8vWmF_3syn3gen9visit_mut8VisitMut18visit_type_ptr_mutB8_, symObjAddr: 0x4390, symBinAddr: 0x23AAC, symSize: 0x3C }
  - { offset: 0x3D780, size: 0x8, addend: 0x0, symName: __RNvYNtNvNtCscdP1gRbl3Ff_20pin_project_internal5utils23determine_lifetime_name16CollectLifetimesNtNtNtCs6IAuOt8vWmF_3syn3gen9visit_mut8VisitMut18visit_use_glob_mutB8_, symObjAddr: 0x43CC, symBinAddr: 0x23AE8, symSize: 0x3C }
  - { offset: 0x3D7C2, size: 0x8, addend: 0x0, symName: __RNvYNtNvNtCscdP1gRbl3Ff_20pin_project_internal5utils23determine_lifetime_name16CollectLifetimesNtNtNtCs6IAuOt8vWmF_3syn3gen9visit_mut8VisitMut18visit_use_name_mutB8_, symObjAddr: 0x4408, symBinAddr: 0x23B24, symSize: 0x3C }
  - { offset: 0x3D804, size: 0x8, addend: 0x0, symName: __RNvYNtNvNtCscdP1gRbl3Ff_20pin_project_internal5utils23determine_lifetime_name16CollectLifetimesNtNtNtCs6IAuOt8vWmF_3syn3gen9visit_mut8VisitMut18visit_use_path_mutB8_, symObjAddr: 0x4444, symBinAddr: 0x23B60, symSize: 0x3C }
  - { offset: 0x3D846, size: 0x8, addend: 0x0, symName: __RNvYNtNvNtCscdP1gRbl3Ff_20pin_project_internal5utils23determine_lifetime_name16CollectLifetimesNtNtNtCs6IAuOt8vWmF_3syn3gen9visit_mut8VisitMut18visit_use_tree_mutB8_, symObjAddr: 0x4480, symBinAddr: 0x23B9C, symSize: 0x3C }
  - { offset: 0x3D888, size: 0x8, addend: 0x0, symName: __RNvYNtNvNtCscdP1gRbl3Ff_20pin_project_internal5utils23determine_lifetime_name16CollectLifetimesNtNtNtCs6IAuOt8vWmF_3syn3gen9visit_mut8VisitMut18visit_variadic_mutB8_, symObjAddr: 0x44BC, symBinAddr: 0x23BD8, symSize: 0x3C }
  - { offset: 0x3D8CA, size: 0x8, addend: 0x0, symName: __RNvYNtNvNtCscdP1gRbl3Ff_20pin_project_internal5utils23determine_lifetime_name16CollectLifetimesNtNtNtCs6IAuOt8vWmF_3syn3gen9visit_mut8VisitMut19visit_attribute_mutB8_, symObjAddr: 0x44F8, symBinAddr: 0x23C14, symSize: 0x3C }
  - { offset: 0x3D909, size: 0x8, addend: 0x0, symName: __RNvYNtNvNtCscdP1gRbl3Ff_20pin_project_internal5utils23determine_lifetime_name16CollectLifetimesNtNtNtCs6IAuOt8vWmF_3syn3gen9visit_mut8VisitMut19visit_expr_call_mutB8_, symObjAddr: 0x4534, symBinAddr: 0x23C50, symSize: 0x3C }
  - { offset: 0x3D948, size: 0x8, addend: 0x0, symName: __RNvYNtNvNtCscdP1gRbl3Ff_20pin_project_internal5utils23determine_lifetime_name16CollectLifetimesNtNtNtCs6IAuOt8vWmF_3syn3gen9visit_mut8VisitMut19visit_expr_cast_mutB8_, symObjAddr: 0x4570, symBinAddr: 0x23C8C, symSize: 0x3C }
  - { offset: 0x3D987, size: 0x8, addend: 0x0, symName: __RNvYNtNvNtCscdP1gRbl3Ff_20pin_project_internal5utils23determine_lifetime_name16CollectLifetimesNtNtNtCs6IAuOt8vWmF_3syn3gen9visit_mut8VisitMut19visit_expr_loop_mutB8_, symObjAddr: 0x45AC, symBinAddr: 0x23CC8, symSize: 0x3C }
  - { offset: 0x3D9C6, size: 0x8, addend: 0x0, symName: __RNvYNtNvNtCscdP1gRbl3Ff_20pin_project_internal5utils23determine_lifetime_name16CollectLifetimesNtNtNtCs6IAuOt8vWmF_3syn3gen9visit_mut8VisitMut19visit_expr_path_mutB8_, symObjAddr: 0x45E8, symBinAddr: 0x23D04, symSize: 0x3C }
  - { offset: 0x3DA08, size: 0x8, addend: 0x0, symName: __RNvYNtNvNtCscdP1gRbl3Ff_20pin_project_internal5utils23determine_lifetime_name16CollectLifetimesNtNtNtCs6IAuOt8vWmF_3syn3gen9visit_mut8VisitMut19visit_field_pat_mutB8_, symObjAddr: 0x4624, symBinAddr: 0x23D40, symSize: 0x3C }
  - { offset: 0x3DA4A, size: 0x8, addend: 0x0, symName: __RNvYNtNvNtCscdP1gRbl3Ff_20pin_project_internal5utils23determine_lifetime_name16CollectLifetimesNtNtNtCs6IAuOt8vWmF_3syn3gen9visit_mut8VisitMut19visit_impl_item_mutB8_, symObjAddr: 0x4660, symBinAddr: 0x23D7C, symSize: 0x3C }
  - { offset: 0x3DA8C, size: 0x8, addend: 0x0, symName: __RNvYNtNvNtCscdP1gRbl3Ff_20pin_project_internal5utils23determine_lifetime_name16CollectLifetimesNtNtNtCs6IAuOt8vWmF_3syn3gen9visit_mut8VisitMut19visit_item_enum_mutB8_, symObjAddr: 0x469C, symBinAddr: 0x23DB8, symSize: 0x3C }
  - { offset: 0x3DACE, size: 0x8, addend: 0x0, symName: __RNvYNtNvNtCscdP1gRbl3Ff_20pin_project_internal5utils23determine_lifetime_name16CollectLifetimesNtNtNtCs6IAuOt8vWmF_3syn3gen9visit_mut8VisitMut19visit_item_impl_mutB8_, symObjAddr: 0x46D8, symBinAddr: 0x23DF4, symSize: 0x3C }
  - { offset: 0x3DB10, size: 0x8, addend: 0x0, symName: __RNvYNtNvNtCscdP1gRbl3Ff_20pin_project_internal5utils23determine_lifetime_name16CollectLifetimesNtNtNtCs6IAuOt8vWmF_3syn3gen9visit_mut8VisitMut19visit_item_type_mutB8_, symObjAddr: 0x4714, symBinAddr: 0x23E30, symSize: 0x3C }
  - { offset: 0x3DB52, size: 0x8, addend: 0x0, symName: __RNvYNtNvNtCscdP1gRbl3Ff_20pin_project_internal5utils23determine_lifetime_name16CollectLifetimesNtNtNtCs6IAuOt8vWmF_3syn3gen9visit_mut8VisitMut19visit_lit_float_mutB8_, symObjAddr: 0x4750, symBinAddr: 0x23E6C, symSize: 0x3C }
  - { offset: 0x3DB94, size: 0x8, addend: 0x0, symName: __RNvYNtNvNtCscdP1gRbl3Ff_20pin_project_internal5utils23determine_lifetime_name16CollectLifetimesNtNtNtCs6IAuOt8vWmF_3syn3gen9visit_mut8VisitMut19visit_meta_list_mutB8_, symObjAddr: 0x478C, symBinAddr: 0x23EA8, symSize: 0x3C }
  - { offset: 0x3DBD6, size: 0x8, addend: 0x0, symName: __RNvYNtNvNtCscdP1gRbl3Ff_20pin_project_internal5utils23determine_lifetime_name16CollectLifetimesNtNtNtCs6IAuOt8vWmF_3syn3gen9visit_mut8VisitMut19visit_pat_ident_mutB8_, symObjAddr: 0x47C8, symBinAddr: 0x23EE4, symSize: 0x3C }
  - { offset: 0x3DC18, size: 0x8, addend: 0x0, symName: __RNvYNtNvNtCscdP1gRbl3Ff_20pin_project_internal5utils23determine_lifetime_name16CollectLifetimesNtNtNtCs6IAuOt8vWmF_3syn3gen9visit_mut8VisitMut19visit_pat_paren_mutB8_, symObjAddr: 0x4804, symBinAddr: 0x23F20, symSize: 0x3C }
  - { offset: 0x3DC5A, size: 0x8, addend: 0x0, symName: __RNvYNtNvNtCscdP1gRbl3Ff_20pin_project_internal5utils23determine_lifetime_name16CollectLifetimesNtNtNtCs6IAuOt8vWmF_3syn3gen9visit_mut8VisitMut19visit_pat_slice_mutB8_, symObjAddr: 0x4840, symBinAddr: 0x23F5C, symSize: 0x3C }
  - { offset: 0x3DC9C, size: 0x8, addend: 0x0, symName: __RNvYNtNvNtCscdP1gRbl3Ff_20pin_project_internal5utils23determine_lifetime_name16CollectLifetimesNtNtNtCs6IAuOt8vWmF_3syn3gen9visit_mut8VisitMut19visit_pat_tuple_mutB8_, symObjAddr: 0x487C, symBinAddr: 0x23F98, symSize: 0x3C }
  - { offset: 0x3DCDE, size: 0x8, addend: 0x0, symName: __RNvYNtNvNtCscdP1gRbl3Ff_20pin_project_internal5utils23determine_lifetime_name16CollectLifetimesNtNtNtCs6IAuOt8vWmF_3syn3gen9visit_mut8VisitMut19visit_signature_mutB8_, symObjAddr: 0x48B8, symBinAddr: 0x23FD4, symSize: 0x3C }
  - { offset: 0x3DD20, size: 0x8, addend: 0x0, symName: __RNvYNtNvNtCscdP1gRbl3Ff_20pin_project_internal5utils23determine_lifetime_name16CollectLifetimesNtNtNtCs6IAuOt8vWmF_3syn3gen9visit_mut8VisitMut19visit_type_path_mutB8_, symObjAddr: 0x48F4, symBinAddr: 0x24010, symSize: 0x3C }
  - { offset: 0x3DD62, size: 0x8, addend: 0x0, symName: __RNvYNtNvNtCscdP1gRbl3Ff_20pin_project_internal5utils23determine_lifetime_name16CollectLifetimesNtNtNtCs6IAuOt8vWmF_3syn3gen9visit_mut8VisitMut19visit_use_group_mutB8_, symObjAddr: 0x4930, symBinAddr: 0x2404C, symSize: 0x3C }
  - { offset: 0x3DDA4, size: 0x8, addend: 0x0, symName: __RNvYNtNvNtCscdP1gRbl3Ff_20pin_project_internal5utils23determine_lifetime_name16CollectLifetimesNtNtNtCs6IAuOt8vWmF_3syn3gen9visit_mut8VisitMut20visit_assoc_type_mutB8_, symObjAddr: 0x496C, symBinAddr: 0x24088, symSize: 0x3C }
  - { offset: 0x3DDE3, size: 0x8, addend: 0x0, symName: __RNvYNtNvNtCscdP1gRbl3Ff_20pin_project_internal5utils23determine_lifetime_name16CollectLifetimesNtNtNtCs6IAuOt8vWmF_3syn3gen9visit_mut8VisitMut20visit_attr_style_mutB8_, symObjAddr: 0x49A8, symBinAddr: 0x240C4, symSize: 0x3C }
  - { offset: 0x3DE22, size: 0x8, addend: 0x0, symName: __RNvYNtNvNtCscdP1gRbl3Ff_20pin_project_internal5utils23determine_lifetime_name16CollectLifetimesNtNtNtCs6IAuOt8vWmF_3syn3gen9visit_mut8VisitMut20visit_attributes_mutB8_, symObjAddr: 0x49E4, symBinAddr: 0x24100, symSize: 0x98 }
  - { offset: 0x3DE93, size: 0x8, addend: 0x0, symName: __RNvYNtNvNtCscdP1gRbl3Ff_20pin_project_internal5utils23determine_lifetime_name16CollectLifetimesNtNtNtCs6IAuOt8vWmF_3syn3gen9visit_mut8VisitMut20visit_constraint_mutB8_, symObjAddr: 0x4A7C, symBinAddr: 0x24198, symSize: 0x3C }
  - { offset: 0x3DED2, size: 0x8, addend: 0x0, symName: __RNvYNtNvNtCscdP1gRbl3Ff_20pin_project_internal5utils23determine_lifetime_name16CollectLifetimesNtNtNtCs6IAuOt8vWmF_3syn3gen9visit_mut8VisitMut20visit_expr_array_mutB8_, symObjAddr: 0x4AB8, symBinAddr: 0x241D4, symSize: 0x3C }
  - { offset: 0x3DF11, size: 0x8, addend: 0x0, symName: __RNvYNtNvNtCscdP1gRbl3Ff_20pin_project_internal5utils23determine_lifetime_name16CollectLifetimesNtNtNtCs6IAuOt8vWmF_3syn3gen9visit_mut8VisitMut20visit_expr_async_mutB8_, symObjAddr: 0x4AF4, symBinAddr: 0x24210, symSize: 0x3C }
  - { offset: 0x3DF50, size: 0x8, addend: 0x0, symName: __RNvYNtNvNtCscdP1gRbl3Ff_20pin_project_internal5utils23determine_lifetime_name16CollectLifetimesNtNtNtCs6IAuOt8vWmF_3syn3gen9visit_mut8VisitMut20visit_expr_await_mutB8_, symObjAddr: 0x4B30, symBinAddr: 0x2424C, symSize: 0x3C }
  - { offset: 0x3DF8F, size: 0x8, addend: 0x0, symName: __RNvYNtNvNtCscdP1gRbl3Ff_20pin_project_internal5utils23determine_lifetime_name16CollectLifetimesNtNtNtCs6IAuOt8vWmF_3syn3gen9visit_mut8VisitMut20visit_expr_block_mutB8_, symObjAddr: 0x4B6C, symBinAddr: 0x24288, symSize: 0x3C }
  - { offset: 0x3DFCE, size: 0x8, addend: 0x0, symName: __RNvYNtNvNtCscdP1gRbl3Ff_20pin_project_internal5utils23determine_lifetime_name16CollectLifetimesNtNtNtCs6IAuOt8vWmF_3syn3gen9visit_mut8VisitMut20visit_expr_break_mutB8_, symObjAddr: 0x4BA8, symBinAddr: 0x242C4, symSize: 0x3C }
  - { offset: 0x3E00D, size: 0x8, addend: 0x0, symName: __RNvYNtNvNtCscdP1gRbl3Ff_20pin_project_internal5utils23determine_lifetime_name16CollectLifetimesNtNtNtCs6IAuOt8vWmF_3syn3gen9visit_mut8VisitMut20visit_expr_const_mutB8_, symObjAddr: 0x4BE4, symBinAddr: 0x24300, symSize: 0x3C }
  - { offset: 0x3E04C, size: 0x8, addend: 0x0, symName: __RNvYNtNvNtCscdP1gRbl3Ff_20pin_project_internal5utils23determine_lifetime_name16CollectLifetimesNtNtNtCs6IAuOt8vWmF_3syn3gen9visit_mut8VisitMut20visit_expr_field_mutB8_, symObjAddr: 0x4C20, symBinAddr: 0x2433C, symSize: 0x3C }
  - { offset: 0x3E08B, size: 0x8, addend: 0x0, symName: __RNvYNtNvNtCscdP1gRbl3Ff_20pin_project_internal5utils23determine_lifetime_name16CollectLifetimesNtNtNtCs6IAuOt8vWmF_3syn3gen9visit_mut8VisitMut20visit_expr_group_mutB8_, symObjAddr: 0x4C5C, symBinAddr: 0x24378, symSize: 0x3C }
  - { offset: 0x3E0CA, size: 0x8, addend: 0x0, symName: __RNvYNtNvNtCscdP1gRbl3Ff_20pin_project_internal5utils23determine_lifetime_name16CollectLifetimesNtNtNtCs6IAuOt8vWmF_3syn3gen9visit_mut8VisitMut20visit_expr_index_mutB8_, symObjAddr: 0x4C98, symBinAddr: 0x243B4, symSize: 0x3C }
  - { offset: 0x3E109, size: 0x8, addend: 0x0, symName: __RNvYNtNvNtCscdP1gRbl3Ff_20pin_project_internal5utils23determine_lifetime_name16CollectLifetimesNtNtNtCs6IAuOt8vWmF_3syn3gen9visit_mut8VisitMut20visit_expr_infer_mutB8_, symObjAddr: 0x4CD4, symBinAddr: 0x243F0, symSize: 0x3C }
  - { offset: 0x3E148, size: 0x8, addend: 0x0, symName: __RNvYNtNvNtCscdP1gRbl3Ff_20pin_project_internal5utils23determine_lifetime_name16CollectLifetimesNtNtNtCs6IAuOt8vWmF_3syn3gen9visit_mut8VisitMut20visit_expr_macro_mutB8_, symObjAddr: 0x4D10, symBinAddr: 0x2442C, symSize: 0x3C }
  - { offset: 0x3E187, size: 0x8, addend: 0x0, symName: __RNvYNtNvNtCscdP1gRbl3Ff_20pin_project_internal5utils23determine_lifetime_name16CollectLifetimesNtNtNtCs6IAuOt8vWmF_3syn3gen9visit_mut8VisitMut20visit_expr_match_mutB8_, symObjAddr: 0x4D4C, symBinAddr: 0x24468, symSize: 0x3C }
  - { offset: 0x3E1C9, size: 0x8, addend: 0x0, symName: __RNvYNtNvNtCscdP1gRbl3Ff_20pin_project_internal5utils23determine_lifetime_name16CollectLifetimesNtNtNtCs6IAuOt8vWmF_3syn3gen9visit_mut8VisitMut20visit_expr_paren_mutB8_, symObjAddr: 0x4D88, symBinAddr: 0x244A4, symSize: 0x3C }
  - { offset: 0x3E20B, size: 0x8, addend: 0x0, symName: __RNvYNtNvNtCscdP1gRbl3Ff_20pin_project_internal5utils23determine_lifetime_name16CollectLifetimesNtNtNtCs6IAuOt8vWmF_3syn3gen9visit_mut8VisitMut20visit_expr_range_mutB8_, symObjAddr: 0x4DC4, symBinAddr: 0x244E0, symSize: 0x3C }
  - { offset: 0x3E24D, size: 0x8, addend: 0x0, symName: __RNvYNtNvNtCscdP1gRbl3Ff_20pin_project_internal5utils23determine_lifetime_name16CollectLifetimesNtNtNtCs6IAuOt8vWmF_3syn3gen9visit_mut8VisitMut20visit_expr_tuple_mutB8_, symObjAddr: 0x4E00, symBinAddr: 0x2451C, symSize: 0x3C }
  - { offset: 0x3E28F, size: 0x8, addend: 0x0, symName: __RNvYNtNvNtCscdP1gRbl3Ff_20pin_project_internal5utils23determine_lifetime_name16CollectLifetimesNtNtNtCs6IAuOt8vWmF_3syn3gen9visit_mut8VisitMut20visit_expr_unary_mutB8_, symObjAddr: 0x4E3C, symBinAddr: 0x24558, symSize: 0x3C }
  - { offset: 0x3E2D1, size: 0x8, addend: 0x0, symName: __RNvYNtNvNtCscdP1gRbl3Ff_20pin_project_internal5utils23determine_lifetime_name16CollectLifetimesNtNtNtCs6IAuOt8vWmF_3syn3gen9visit_mut8VisitMut20visit_expr_while_mutB8_, symObjAddr: 0x4E78, symBinAddr: 0x24594, symSize: 0x3C }
  - { offset: 0x3E313, size: 0x8, addend: 0x0, symName: __RNvYNtNvNtCscdP1gRbl3Ff_20pin_project_internal5utils23determine_lifetime_name16CollectLifetimesNtNtNtCs6IAuOt8vWmF_3syn3gen9visit_mut8VisitMut20visit_expr_yield_mutB8_, symObjAddr: 0x4EB4, symBinAddr: 0x245D0, symSize: 0x3C }
  - { offset: 0x3E355, size: 0x8, addend: 0x0, symName: __RNvYNtNvNtCscdP1gRbl3Ff_20pin_project_internal5utils23determine_lifetime_name16CollectLifetimesNtNtNtCs6IAuOt8vWmF_3syn3gen9visit_mut8VisitMut20visit_item_const_mutB8_, symObjAddr: 0x4EF0, symBinAddr: 0x2460C, symSize: 0x3C }
  - { offset: 0x3E397, size: 0x8, addend: 0x0, symName: __RNvYNtNvNtCscdP1gRbl3Ff_20pin_project_internal5utils23determine_lifetime_name16CollectLifetimesNtNtNtCs6IAuOt8vWmF_3syn3gen9visit_mut8VisitMut20visit_item_macro_mutB8_, symObjAddr: 0x4F2C, symBinAddr: 0x24648, symSize: 0x3C }
  - { offset: 0x3E3D9, size: 0x8, addend: 0x0, symName: __RNvYNtNvNtCscdP1gRbl3Ff_20pin_project_internal5utils23determine_lifetime_name16CollectLifetimesNtNtNtCs6IAuOt8vWmF_3syn3gen9visit_mut8VisitMut20visit_item_trait_mutB8_, symObjAddr: 0x4F68, symBinAddr: 0x24684, symSize: 0x3C }
  - { offset: 0x3E41B, size: 0x8, addend: 0x0, symName: __RNvYNtNvNtCscdP1gRbl3Ff_20pin_project_internal5utils23determine_lifetime_name16CollectLifetimesNtNtNtCs6IAuOt8vWmF_3syn3gen9visit_mut8VisitMut20visit_item_union_mutB8_, symObjAddr: 0x4FA4, symBinAddr: 0x246C0, symSize: 0x3C }
  - { offset: 0x3E45D, size: 0x8, addend: 0x0, symName: __RNvYNtNvNtCscdP1gRbl3Ff_20pin_project_internal5utils23determine_lifetime_name16CollectLifetimesNtNtNtCs6IAuOt8vWmF_3syn3gen9visit_mut8VisitMut20visit_local_init_mutB8_, symObjAddr: 0x4FE0, symBinAddr: 0x246FC, symSize: 0x3C }
  - { offset: 0x3E49F, size: 0x8, addend: 0x0, symName: __RNvYNtNvNtCscdP1gRbl3Ff_20pin_project_internal5utils23determine_lifetime_name16CollectLifetimesNtNtNtCs6IAuOt8vWmF_3syn3gen9visit_mut8VisitMut20visit_pat_struct_mutB8_, symObjAddr: 0x501C, symBinAddr: 0x24738, symSize: 0x3C }
  - { offset: 0x3E4E1, size: 0x8, addend: 0x0, symName: __RNvYNtNvNtCscdP1gRbl3Ff_20pin_project_internal5utils23determine_lifetime_name16CollectLifetimesNtNtNtCs6IAuOt8vWmF_3syn3gen9visit_mut8VisitMut20visit_stmt_macro_mutB8_, symObjAddr: 0x5058, symBinAddr: 0x24774, symSize: 0x3C }
  - { offset: 0x3E523, size: 0x8, addend: 0x0, symName: __RNvYNtNvNtCscdP1gRbl3Ff_20pin_project_internal5utils23determine_lifetime_name16CollectLifetimesNtNtNtCs6IAuOt8vWmF_3syn3gen9visit_mut8VisitMut20visit_trait_item_mutB8_, symObjAddr: 0x5094, symBinAddr: 0x247B0, symSize: 0x3C }
  - { offset: 0x3E565, size: 0x8, addend: 0x0, symName: __RNvYNtNvNtCscdP1gRbl3Ff_20pin_project_internal5utils23determine_lifetime_name16CollectLifetimesNtNtNtCs6IAuOt8vWmF_3syn3gen9visit_mut8VisitMut20visit_type_array_mutB8_, symObjAddr: 0x50D0, symBinAddr: 0x247EC, symSize: 0x3C }
  - { offset: 0x3E5A7, size: 0x8, addend: 0x0, symName: __RNvYNtNvNtCscdP1gRbl3Ff_20pin_project_internal5utils23determine_lifetime_name16CollectLifetimesNtNtNtCs6IAuOt8vWmF_3syn3gen9visit_mut8VisitMut20visit_type_group_mutB8_, symObjAddr: 0x510C, symBinAddr: 0x24828, symSize: 0x3C }
  - { offset: 0x3E5E9, size: 0x8, addend: 0x0, symName: __RNvYNtNvNtCscdP1gRbl3Ff_20pin_project_internal5utils23determine_lifetime_name16CollectLifetimesNtNtNtCs6IAuOt8vWmF_3syn3gen9visit_mut8VisitMut20visit_type_infer_mutB8_, symObjAddr: 0x5148, symBinAddr: 0x24864, symSize: 0x3C }
  - { offset: 0x3E62B, size: 0x8, addend: 0x0, symName: __RNvYNtNvNtCscdP1gRbl3Ff_20pin_project_internal5utils23determine_lifetime_name16CollectLifetimesNtNtNtCs6IAuOt8vWmF_3syn3gen9visit_mut8VisitMut20visit_type_macro_mutB8_, symObjAddr: 0x5184, symBinAddr: 0x248A0, symSize: 0x3C }
  - { offset: 0x3E66D, size: 0x8, addend: 0x0, symName: __RNvYNtNvNtCscdP1gRbl3Ff_20pin_project_internal5utils23determine_lifetime_name16CollectLifetimesNtNtNtCs6IAuOt8vWmF_3syn3gen9visit_mut8VisitMut20visit_type_never_mutB8_, symObjAddr: 0x51C0, symBinAddr: 0x248DC, symSize: 0x3C }
  - { offset: 0x3E6AF, size: 0x8, addend: 0x0, symName: __RNvYNtNvNtCscdP1gRbl3Ff_20pin_project_internal5utils23determine_lifetime_name16CollectLifetimesNtNtNtCs6IAuOt8vWmF_3syn3gen9visit_mut8VisitMut20visit_type_param_mutB8_, symObjAddr: 0x51FC, symBinAddr: 0x24918, symSize: 0x3C }
  - { offset: 0x3E6F1, size: 0x8, addend: 0x0, symName: __RNvYNtNvNtCscdP1gRbl3Ff_20pin_project_internal5utils23determine_lifetime_name16CollectLifetimesNtNtNtCs6IAuOt8vWmF_3syn3gen9visit_mut8VisitMut20visit_type_paren_mutB8_, symObjAddr: 0x5238, symBinAddr: 0x24954, symSize: 0x3C }
  - { offset: 0x3E733, size: 0x8, addend: 0x0, symName: __RNvYNtNvNtCscdP1gRbl3Ff_20pin_project_internal5utils23determine_lifetime_name16CollectLifetimesNtNtNtCs6IAuOt8vWmF_3syn3gen9visit_mut8VisitMut20visit_type_slice_mutB8_, symObjAddr: 0x5274, symBinAddr: 0x24990, symSize: 0x3C }
  - { offset: 0x3E775, size: 0x8, addend: 0x0, symName: __RNvYNtNvNtCscdP1gRbl3Ff_20pin_project_internal5utils23determine_lifetime_name16CollectLifetimesNtNtNtCs6IAuOt8vWmF_3syn3gen9visit_mut8VisitMut20visit_type_tuple_mutB8_, symObjAddr: 0x52B0, symBinAddr: 0x249CC, symSize: 0x3C }
  - { offset: 0x3E7B7, size: 0x8, addend: 0x0, symName: __RNvYNtNvNtCscdP1gRbl3Ff_20pin_project_internal5utils23determine_lifetime_name16CollectLifetimesNtNtNtCs6IAuOt8vWmF_3syn3gen9visit_mut8VisitMut20visit_use_rename_mutB8_, symObjAddr: 0x52EC, symBinAddr: 0x24A08, symSize: 0x3C }
  - { offset: 0x3E7F9, size: 0x8, addend: 0x0, symName: __RNvYNtNvNtCscdP1gRbl3Ff_20pin_project_internal5utils23determine_lifetime_name16CollectLifetimesNtNtNtCs6IAuOt8vWmF_3syn3gen9visit_mut8VisitMut20visit_visibility_mutB8_, symObjAddr: 0x5328, symBinAddr: 0x24A44, symSize: 0x3C }
  - { offset: 0x3E83B, size: 0x8, addend: 0x0, symName: __RNvYNtNvNtCscdP1gRbl3Ff_20pin_project_internal5utils23determine_lifetime_name16CollectLifetimesNtNtNtCs6IAuOt8vWmF_3syn3gen9visit_mut8VisitMut21visit_assoc_const_mutB8_, symObjAddr: 0x5364, symBinAddr: 0x24A80, symSize: 0x3C }
  - { offset: 0x3E87A, size: 0x8, addend: 0x0, symName: __RNvYNtNvNtCscdP1gRbl3Ff_20pin_project_internal5utils23determine_lifetime_name16CollectLifetimesNtNtNtCs6IAuOt8vWmF_3syn3gen9visit_mut8VisitMut21visit_bare_fn_arg_mutB8_, symObjAddr: 0x53A0, symBinAddr: 0x24ABC, symSize: 0x3C }
  - { offset: 0x3E8B9, size: 0x8, addend: 0x0, symName: __RNvYNtNvNtCscdP1gRbl3Ff_20pin_project_internal5utils23determine_lifetime_name16CollectLifetimesNtNtNtCs6IAuOt8vWmF_3syn3gen9visit_mut8VisitMut21visit_const_param_mutB8_, symObjAddr: 0x53DC, symBinAddr: 0x24AF8, symSize: 0x3C }
  - { offset: 0x3E8F8, size: 0x8, addend: 0x0, symName: __RNvYNtNvNtCscdP1gRbl3Ff_20pin_project_internal5utils23determine_lifetime_name16CollectLifetimesNtNtNtCs6IAuOt8vWmF_3syn3gen9visit_mut8VisitMut21visit_expr_assign_mutB8_, symObjAddr: 0x5418, symBinAddr: 0x24B34, symSize: 0x3C }
  - { offset: 0x3E937, size: 0x8, addend: 0x0, symName: __RNvYNtNvNtCscdP1gRbl3Ff_20pin_project_internal5utils23determine_lifetime_name16CollectLifetimesNtNtNtCs6IAuOt8vWmF_3syn3gen9visit_mut8VisitMut21visit_expr_binary_mutB8_, symObjAddr: 0x5454, symBinAddr: 0x24B70, symSize: 0x3C }
  - { offset: 0x3E976, size: 0x8, addend: 0x0, symName: __RNvYNtNvNtCscdP1gRbl3Ff_20pin_project_internal5utils23determine_lifetime_name16CollectLifetimesNtNtNtCs6IAuOt8vWmF_3syn3gen9visit_mut8VisitMut21visit_expr_repeat_mutB8_, symObjAddr: 0x5490, symBinAddr: 0x24BAC, symSize: 0x3C }
  - { offset: 0x3E9B8, size: 0x8, addend: 0x0, symName: __RNvYNtNvNtCscdP1gRbl3Ff_20pin_project_internal5utils23determine_lifetime_name16CollectLifetimesNtNtNtCs6IAuOt8vWmF_3syn3gen9visit_mut8VisitMut21visit_expr_return_mutB8_, symObjAddr: 0x54CC, symBinAddr: 0x24BE8, symSize: 0x3C }
  - { offset: 0x3E9FA, size: 0x8, addend: 0x0, symName: __RNvYNtNvNtCscdP1gRbl3Ff_20pin_project_internal5utils23determine_lifetime_name16CollectLifetimesNtNtNtCs6IAuOt8vWmF_3syn3gen9visit_mut8VisitMut21visit_expr_struct_mutB8_, symObjAddr: 0x5508, symBinAddr: 0x24C24, symSize: 0x3C }
  - { offset: 0x3EA3C, size: 0x8, addend: 0x0, symName: __RNvYNtNvNtCscdP1gRbl3Ff_20pin_project_internal5utils23determine_lifetime_name16CollectLifetimesNtNtNtCs6IAuOt8vWmF_3syn3gen9visit_mut8VisitMut21visit_expr_unsafe_mutB8_, symObjAddr: 0x5544, symBinAddr: 0x24C60, symSize: 0x3C }
  - { offset: 0x3EA7E, size: 0x8, addend: 0x0, symName: __RNvYNtNvNtCscdP1gRbl3Ff_20pin_project_internal5utils23determine_lifetime_name16CollectLifetimesNtNtNtCs6IAuOt8vWmF_3syn3gen9visit_mut8VisitMut21visit_field_value_mutB8_, symObjAddr: 0x5580, symBinAddr: 0x24C9C, symSize: 0x3C }
  - { offset: 0x3EAC0, size: 0x8, addend: 0x0, symName: __RNvYNtNvNtCscdP1gRbl3Ff_20pin_project_internal5utils23determine_lifetime_name16CollectLifetimesNtNtNtCs6IAuOt8vWmF_3syn3gen9visit_mut8VisitMut21visit_item_static_mutB8_, symObjAddr: 0x55BC, symBinAddr: 0x24CD8, symSize: 0x3C }
  - { offset: 0x3EB02, size: 0x8, addend: 0x0, symName: __RNvYNtNvNtCscdP1gRbl3Ff_20pin_project_internal5utils23determine_lifetime_name16CollectLifetimesNtNtNtCs6IAuOt8vWmF_3syn3gen9visit_mut8VisitMut21visit_item_struct_mutB8_, symObjAddr: 0x55F8, symBinAddr: 0x24D14, symSize: 0x3C }
  - { offset: 0x3EB44, size: 0x8, addend: 0x0, symName: __RNvYNtNvNtCscdP1gRbl3Ff_20pin_project_internal5utils23determine_lifetime_name16CollectLifetimesNtNtNtCs6IAuOt8vWmF_3syn3gen9visit_mut8VisitMut21visit_return_type_mutB8_, symObjAddr: 0x5634, symBinAddr: 0x24D50, symSize: 0x3C }
  - { offset: 0x3EB86, size: 0x8, addend: 0x0, symName: __RNvYNtNvNtCscdP1gRbl3Ff_20pin_project_internal5utils23determine_lifetime_name16CollectLifetimesNtNtNtCs6IAuOt8vWmF_3syn3gen9visit_mut8VisitMut21visit_trait_bound_mutB8_, symObjAddr: 0x5670, symBinAddr: 0x24D8C, symSize: 0x3C }
  - { offset: 0x3EBC8, size: 0x8, addend: 0x0, symName: __RNvYNtNvNtCscdP1gRbl3Ff_20pin_project_internal5utils23determine_lifetime_name16CollectLifetimesNtNtNtCs6IAuOt8vWmF_3syn3gen9visit_mut8VisitMut22visit_expr_closure_mutB8_, symObjAddr: 0x56AC, symBinAddr: 0x24DC8, symSize: 0x3C }
  - { offset: 0x3EC07, size: 0x8, addend: 0x0, symName: __RNvYNtNvNtCscdP1gRbl3Ff_20pin_project_internal5utils23determine_lifetime_name16CollectLifetimesNtNtNtCs6IAuOt8vWmF_3syn3gen9visit_mut8VisitMut22visit_fields_named_mutB8_, symObjAddr: 0x56E8, symBinAddr: 0x24E04, symSize: 0x3C }
  - { offset: 0x3EC49, size: 0x8, addend: 0x0, symName: __RNvYNtNvNtCscdP1gRbl3Ff_20pin_project_internal5utils23determine_lifetime_name16CollectLifetimesNtNtNtCs6IAuOt8vWmF_3syn3gen9visit_mut8VisitMut22visit_foreign_item_mutB8_, symObjAddr: 0x5724, symBinAddr: 0x24E40, symSize: 0x3C }
  - { offset: 0x3EC8B, size: 0x8, addend: 0x0, symName: __RNvYNtNvNtCscdP1gRbl3Ff_20pin_project_internal5utils23determine_lifetime_name16CollectLifetimesNtNtNtCs6IAuOt8vWmF_3syn3gen9visit_mut8VisitMut22visit_impl_item_fn_mutB8_, symObjAddr: 0x5760, symBinAddr: 0x24E7C, symSize: 0x3C }
  - { offset: 0x3ECCD, size: 0x8, addend: 0x0, symName: __RNvYNtNvNtCscdP1gRbl3Ff_20pin_project_internal5utils23determine_lifetime_name16CollectLifetimesNtNtNtCs6IAuOt8vWmF_3syn3gen9visit_mut8VisitMut22visit_lit_byte_str_mutB8_, symObjAddr: 0x579C, symBinAddr: 0x24EB8, symSize: 0x3C }
  - { offset: 0x3ED0F, size: 0x8, addend: 0x0, symName: __RNvYNtNvNtCscdP1gRbl3Ff_20pin_project_internal5utils23determine_lifetime_name16CollectLifetimesNtNtNtCs6IAuOt8vWmF_3syn3gen9visit_mut8VisitMut22visit_path_segment_mutB8_, symObjAddr: 0x57D8, symBinAddr: 0x24EF4, symSize: 0x3C }
  - { offset: 0x3ED51, size: 0x8, addend: 0x0, symName: __RNvYNtNvNtCscdP1gRbl3Ff_20pin_project_internal5utils23determine_lifetime_name16CollectLifetimesNtNtNtCs6IAuOt8vWmF_3syn3gen9visit_mut8VisitMut22visit_range_limits_mutB8_, symObjAddr: 0x5814, symBinAddr: 0x24F30, symSize: 0x3C }
  - { offset: 0x3ED93, size: 0x8, addend: 0x0, symName: __RNvYNtNvNtCscdP1gRbl3Ff_20pin_project_internal5utils23determine_lifetime_name16CollectLifetimesNtNtNtCs6IAuOt8vWmF_3syn3gen9visit_mut8VisitMut22visit_token_stream_mutB8_, symObjAddr: 0x5850, symBinAddr: 0x24F6C, symSize: 0x24 }
  - { offset: 0x3EDD5, size: 0x8, addend: 0x0, symName: __RNvYNtNvNtCscdP1gRbl3Ff_20pin_project_internal5utils23determine_lifetime_name16CollectLifetimesNtNtNtCs6IAuOt8vWmF_3syn3gen9visit_mut8VisitMut22visit_type_bare_fn_mutB8_, symObjAddr: 0x5874, symBinAddr: 0x24F90, symSize: 0x3C }
  - { offset: 0x3EE17, size: 0x8, addend: 0x0, symName: __RNvYNtNvNtCscdP1gRbl3Ff_20pin_project_internal5utils23determine_lifetime_name16CollectLifetimesNtNtNtCs6IAuOt8vWmF_3syn3gen9visit_mut8VisitMut22visit_where_clause_mutB8_, symObjAddr: 0x58B0, symBinAddr: 0x24FCC, symSize: 0x3C }
  - { offset: 0x3EE59, size: 0x8, addend: 0x0, symName: __RNvYNtNvNtCscdP1gRbl3Ff_20pin_project_internal5utils23determine_lifetime_name16CollectLifetimesNtNtNtCs6IAuOt8vWmF_3syn3gen9visit_mut8VisitMut23visit_bare_variadic_mutB8_, symObjAddr: 0x58EC, symBinAddr: 0x25008, symSize: 0x3C }
  - { offset: 0x3EE98, size: 0x8, addend: 0x0, symName: __RNvYNtNvNtCscdP1gRbl3Ff_20pin_project_internal5utils23determine_lifetime_name16CollectLifetimesNtNtNtCs6IAuOt8vWmF_3syn3gen9visit_mut8VisitMut23visit_expr_continue_mutB8_, symObjAddr: 0x5928, symBinAddr: 0x25044, symSize: 0x3C }
  - { offset: 0x3EED7, size: 0x8, addend: 0x0, symName: __RNvYNtNvNtCscdP1gRbl3Ff_20pin_project_internal5utils23determine_lifetime_name16CollectLifetimesNtNtNtCs6IAuOt8vWmF_3syn3gen9visit_mut8VisitMut23visit_expr_for_loop_mutB8_, symObjAddr: 0x5964, symBinAddr: 0x25080, symSize: 0x3C }
  - { offset: 0x3EF16, size: 0x8, addend: 0x0, symName: __RNvYNtNvNtCscdP1gRbl3Ff_20pin_project_internal5utils23determine_lifetime_name16CollectLifetimesNtNtNtCs6IAuOt8vWmF_3syn3gen9visit_mut8VisitMut23visit_expr_raw_addr_mutB8_, symObjAddr: 0x59A0, symBinAddr: 0x250BC, symSize: 0x3C }
  - { offset: 0x3EF58, size: 0x8, addend: 0x0, symName: __RNvYNtNvNtCscdP1gRbl3Ff_20pin_project_internal5utils23determine_lifetime_name16CollectLifetimesNtNtNtCs6IAuOt8vWmF_3syn3gen9visit_mut8VisitMut23visit_generic_param_mutB8_, symObjAddr: 0x59DC, symBinAddr: 0x250F8, symSize: 0x3C }
  - { offset: 0x3EF9A, size: 0x8, addend: 0x0, symName: __RNvYNtNvNtCscdP1gRbl3Ff_20pin_project_internal5utils23determine_lifetime_name16CollectLifetimesNtNtNtCs6IAuOt8vWmF_3syn3gen9visit_mut8VisitMut23visit_pat_reference_mutB8_, symObjAddr: 0x5A18, symBinAddr: 0x25134, symSize: 0x3C }
  - { offset: 0x3EFDC, size: 0x8, addend: 0x0, symName: __RNvYNtNvNtCscdP1gRbl3Ff_20pin_project_internal5utils23determine_lifetime_name16CollectLifetimesNtNtNtCs6IAuOt8vWmF_3syn3gen9visit_mut8VisitMut23visit_trait_item_fn_mutB8_, symObjAddr: 0x5A54, symBinAddr: 0x25170, symSize: 0x3C }
  - { offset: 0x3F01E, size: 0x8, addend: 0x0, symName: __RNvYNtNvNtCscdP1gRbl3Ff_20pin_project_internal5utils23determine_lifetime_name16CollectLifetimesNtNtNtCs6IAuOt8vWmF_3syn3gen9visit_mut8VisitMut24visit_captured_param_mutB8_, symObjAddr: 0x5A90, symBinAddr: 0x251AC, symSize: 0x3C }
  - { offset: 0x3F05D, size: 0x8, addend: 0x0, symName: __RNvYNtNvNtCscdP1gRbl3Ff_20pin_project_internal5utils23determine_lifetime_name16CollectLifetimesNtNtNtCs6IAuOt8vWmF_3syn3gen9visit_mut8VisitMut24visit_expr_reference_mutB8_, symObjAddr: 0x5ACC, symBinAddr: 0x251E8, symSize: 0x3C }
  - { offset: 0x3F09F, size: 0x8, addend: 0x0, symName: __RNvYNtNvNtCscdP1gRbl3Ff_20pin_project_internal5utils23determine_lifetime_name16CollectLifetimesNtNtNtCs6IAuOt8vWmF_3syn3gen9visit_mut8VisitMut24visit_expr_try_block_mutB8_, symObjAddr: 0x5B08, symBinAddr: 0x25224, symSize: 0x3C }
  - { offset: 0x3F0E1, size: 0x8, addend: 0x0, symName: __RNvYNtNvNtCscdP1gRbl3Ff_20pin_project_internal5utils23determine_lifetime_name16CollectLifetimesNtNtNtCs6IAuOt8vWmF_3syn3gen9visit_mut8VisitMut24visit_fields_unnamed_mutB8_, symObjAddr: 0x5B44, symBinAddr: 0x25260, symSize: 0x3C }
  - { offset: 0x3F123, size: 0x8, addend: 0x0, symName: __RNvYNtNvNtCscdP1gRbl3Ff_20pin_project_internal5utils23determine_lifetime_name16CollectLifetimesNtNtNtCs6IAuOt8vWmF_3syn3gen9visit_mut8VisitMut24visit_impl_item_type_mutB8_, symObjAddr: 0x5B80, symBinAddr: 0x2529C, symSize: 0x3C }
  - { offset: 0x3F165, size: 0x8, addend: 0x0, symName: __RNvYNtNvNtCscdP1gRbl3Ff_20pin_project_internal5utils23determine_lifetime_name16CollectLifetimesNtNtNtCs6IAuOt8vWmF_3syn3gen9visit_mut8VisitMut24visit_path_arguments_mutB8_, symObjAddr: 0x5BBC, symBinAddr: 0x252D8, symSize: 0x3C }
  - { offset: 0x3F1A7, size: 0x8, addend: 0x0, symName: __RNvYNtNvNtCscdP1gRbl3Ff_20pin_project_internal5utils23determine_lifetime_name16CollectLifetimesNtNtNtCs6IAuOt8vWmF_3syn3gen9visit_mut8VisitMut24visit_predicate_type_mutB8_, symObjAddr: 0x5BF8, symBinAddr: 0x25314, symSize: 0x3C }
  - { offset: 0x3F1E9, size: 0x8, addend: 0x0, symName: __RNvYNtNvNtCscdP1gRbl3Ff_20pin_project_internal5utils23determine_lifetime_name16CollectLifetimesNtNtNtCs6IAuOt8vWmF_3syn3gen9visit_mut8VisitMut24visit_type_reference_mutB8_, symObjAddr: 0x5C34, symBinAddr: 0x25350, symSize: 0x3C }
  - { offset: 0x3F22B, size: 0x8, addend: 0x0, symName: __RNvYNtNvNtCscdP1gRbl3Ff_20pin_project_internal5utils23determine_lifetime_name16CollectLifetimesNtNtNtCs6IAuOt8vWmF_3syn3gen9visit_mut8VisitMut24visit_vis_restricted_mutB8_, symObjAddr: 0x5C70, symBinAddr: 0x2538C, symSize: 0x3C }
  - { offset: 0x3F26D, size: 0x8, addend: 0x0, symName: __RNvYNtNvNtCscdP1gRbl3Ff_20pin_project_internal5utils23determine_lifetime_name16CollectLifetimesNtNtNtCs6IAuOt8vWmF_3syn3gen9visit_mut8VisitMut25visit_bound_lifetimes_mutB8_, symObjAddr: 0x5CAC, symBinAddr: 0x253C8, symSize: 0x3C }
  - { offset: 0x3F2AC, size: 0x8, addend: 0x0, symName: __RNvYNtNvNtCscdP1gRbl3Ff_20pin_project_internal5utils23determine_lifetime_name16CollectLifetimesNtNtNtCs6IAuOt8vWmF_3syn3gen9visit_mut8VisitMut25visit_foreign_item_fn_mutB8_, symObjAddr: 0x5CE8, symBinAddr: 0x25404, symSize: 0x3C }
  - { offset: 0x3F2EE, size: 0x8, addend: 0x0, symName: __RNvYNtNvNtCscdP1gRbl3Ff_20pin_project_internal5utils23determine_lifetime_name16CollectLifetimesNtNtNtCs6IAuOt8vWmF_3syn3gen9visit_mut8VisitMut25visit_impl_item_const_mutB8_, symObjAddr: 0x5D24, symBinAddr: 0x25440, symSize: 0x3C }
  - { offset: 0x3F330, size: 0x8, addend: 0x0, symName: __RNvYNtNvNtCscdP1gRbl3Ff_20pin_project_internal5utils23determine_lifetime_name16CollectLifetimesNtNtNtCs6IAuOt8vWmF_3syn3gen9visit_mut8VisitMut25visit_impl_item_macro_mutB8_, symObjAddr: 0x5D60, symBinAddr: 0x2547C, symSize: 0x3C }
  - { offset: 0x3F372, size: 0x8, addend: 0x0, symName: __RNvYNtNvNtCscdP1gRbl3Ff_20pin_project_internal5utils23determine_lifetime_name16CollectLifetimesNtNtNtCs6IAuOt8vWmF_3syn3gen9visit_mut8VisitMut25visit_macro_delimiter_mutB8_, symObjAddr: 0x5D9C, symBinAddr: 0x254B8, symSize: 0x3C }
  - { offset: 0x3F3B4, size: 0x8, addend: 0x0, symName: __RNvYNtNvNtCscdP1gRbl3Ff_20pin_project_internal5utils23determine_lifetime_name16CollectLifetimesNtNtNtCs6IAuOt8vWmF_3syn3gen9visit_mut8VisitMut25visit_meta_name_value_mutB8_, symObjAddr: 0x5DD8, symBinAddr: 0x254F4, symSize: 0x3C }
  - { offset: 0x3F3F6, size: 0x8, addend: 0x0, symName: __RNvYNtNvNtCscdP1gRbl3Ff_20pin_project_internal5utils23determine_lifetime_name16CollectLifetimesNtNtNtCs6IAuOt8vWmF_3syn3gen9visit_mut8VisitMut25visit_precise_capture_mutB8_, symObjAddr: 0x5E14, symBinAddr: 0x25530, symSize: 0x3C }
  - { offset: 0x3F438, size: 0x8, addend: 0x0, symName: __RNvYNtNvNtCscdP1gRbl3Ff_20pin_project_internal5utils23determine_lifetime_name16CollectLifetimesNtNtNtCs6IAuOt8vWmF_3syn3gen9visit_mut8VisitMut25visit_trait_item_type_mutB8_, symObjAddr: 0x5E50, symBinAddr: 0x2556C, symSize: 0x3C }
  - { offset: 0x3F47A, size: 0x8, addend: 0x0, symName: __RNvYNtNvNtCscdP1gRbl3Ff_20pin_project_internal5utils23determine_lifetime_name16CollectLifetimesNtNtNtCs6IAuOt8vWmF_3syn3gen9visit_mut8VisitMut25visit_type_impl_trait_mutB8_, symObjAddr: 0x5E8C, symBinAddr: 0x255A8, symSize: 0x3C }
  - { offset: 0x3F4BC, size: 0x8, addend: 0x0, symName: __RNvYNtNvNtCscdP1gRbl3Ff_20pin_project_internal5utils23determine_lifetime_name16CollectLifetimesNtNtNtCs6IAuOt8vWmF_3syn3gen9visit_mut8VisitMut25visit_where_predicate_mutB8_, symObjAddr: 0x5EC8, symBinAddr: 0x255E4, symSize: 0x3C }
  - { offset: 0x3F4FE, size: 0x8, addend: 0x0, symName: __RNvYNtNvNtCscdP1gRbl3Ff_20pin_project_internal5utils23determine_lifetime_name16CollectLifetimesNtNtNtCs6IAuOt8vWmF_3syn3gen9visit_mut8VisitMut26visit_expr_method_call_mutB8_, symObjAddr: 0x5F04, symBinAddr: 0x25620, symSize: 0x3C }
  - { offset: 0x3F540, size: 0x8, addend: 0x0, symName: __RNvYNtNvNtCscdP1gRbl3Ff_20pin_project_internal5utils23determine_lifetime_name16CollectLifetimesNtNtNtCs6IAuOt8vWmF_3syn3gen9visit_mut8VisitMut26visit_field_mutability_mutB8_, symObjAddr: 0x5F40, symBinAddr: 0x2565C, symSize: 0x3C }
  - { offset: 0x3F582, size: 0x8, addend: 0x0, symName: __RNvYNtNvNtCscdP1gRbl3Ff_20pin_project_internal5utils23determine_lifetime_name16CollectLifetimesNtNtNtCs6IAuOt8vWmF_3syn3gen9visit_mut8VisitMut26visit_generic_argument_mutB8_, symObjAddr: 0x5F7C, symBinAddr: 0x25698, symSize: 0x3C }
  - { offset: 0x3F5C4, size: 0x8, addend: 0x0, symName: __RNvYNtNvNtCscdP1gRbl3Ff_20pin_project_internal5utils23determine_lifetime_name16CollectLifetimesNtNtNtCs6IAuOt8vWmF_3syn3gen9visit_mut8VisitMut26visit_item_foreign_mod_mutB8_, symObjAddr: 0x5FB8, symBinAddr: 0x256D4, symSize: 0x3C }
  - { offset: 0x3F606, size: 0x8, addend: 0x0, symName: __RNvYNtNvNtCscdP1gRbl3Ff_20pin_project_internal5utils23determine_lifetime_name16CollectLifetimesNtNtNtCs6IAuOt8vWmF_3syn3gen9visit_mut8VisitMut26visit_item_trait_alias_mutB8_, symObjAddr: 0x5FF4, symBinAddr: 0x25710, symSize: 0x3C }
  - { offset: 0x3F648, size: 0x8, addend: 0x0, symName: __RNvYNtNvNtCscdP1gRbl3Ff_20pin_project_internal5utils23determine_lifetime_name16CollectLifetimesNtNtNtCs6IAuOt8vWmF_3syn3gen9visit_mut8VisitMut26visit_pat_tuple_struct_mutB8_, symObjAddr: 0x6030, symBinAddr: 0x2574C, symSize: 0x3C }
  - { offset: 0x3F68A, size: 0x8, addend: 0x0, symName: __RNvYNtNvNtCscdP1gRbl3Ff_20pin_project_internal5utils23determine_lifetime_name16CollectLifetimesNtNtNtCs6IAuOt8vWmF_3syn3gen9visit_mut8VisitMut26visit_trait_item_const_mutB8_, symObjAddr: 0x606C, symBinAddr: 0x25788, symSize: 0x3C }
  - { offset: 0x3F6CC, size: 0x8, addend: 0x0, symName: __RNvYNtNvNtCscdP1gRbl3Ff_20pin_project_internal5utils23determine_lifetime_name16CollectLifetimesNtNtNtCs6IAuOt8vWmF_3syn3gen9visit_mut8VisitMut26visit_trait_item_macro_mutB8_, symObjAddr: 0x60A8, symBinAddr: 0x257C4, symSize: 0x3C }
  - { offset: 0x3F70E, size: 0x8, addend: 0x0, symName: __RNvYNtNvNtCscdP1gRbl3Ff_20pin_project_internal5utils23determine_lifetime_name16CollectLifetimesNtNtNtCs6IAuOt8vWmF_3syn3gen9visit_mut8VisitMut26visit_type_param_bound_mutB8_, symObjAddr: 0x60E4, symBinAddr: 0x25800, symSize: 0x3C }
  - { offset: 0x3F750, size: 0x8, addend: 0x0, symName: __RNvYNtNvNtCscdP1gRbl3Ff_20pin_project_internal5utils23determine_lifetime_name16CollectLifetimesNtNtNtCs6IAuOt8vWmF_3syn3gen9visit_mut8VisitMut27visit_foreign_item_type_mutB8_, symObjAddr: 0x6120, symBinAddr: 0x2583C, symSize: 0x3C }
  - { offset: 0x3F792, size: 0x8, addend: 0x0, symName: __RNvYNtNvNtCscdP1gRbl3Ff_20pin_project_internal5utils23determine_lifetime_name16CollectLifetimesNtNtNtCs6IAuOt8vWmF_3syn3gen9visit_mut8VisitMut27visit_item_extern_crate_mutB8_, symObjAddr: 0x615C, symBinAddr: 0x25878, symSize: 0x3C }
  - { offset: 0x3F7D4, size: 0x8, addend: 0x0, symName: __RNvYNtNvNtCscdP1gRbl3Ff_20pin_project_internal5utils23determine_lifetime_name16CollectLifetimesNtNtNtCs6IAuOt8vWmF_3syn3gen9visit_mut8VisitMut27visit_static_mutability_mutB8_, symObjAddr: 0x6198, symBinAddr: 0x258B4, symSize: 0x3C }
  - { offset: 0x3F816, size: 0x8, addend: 0x0, symName: __RNvYNtNvNtCscdP1gRbl3Ff_20pin_project_internal5utils23determine_lifetime_name16CollectLifetimesNtNtNtCs6IAuOt8vWmF_3syn3gen9visit_mut8VisitMut27visit_type_trait_object_mutB8_, symObjAddr: 0x61D4, symBinAddr: 0x258F0, symSize: 0x3C }
  - { offset: 0x3F858, size: 0x8, addend: 0x0, symName: __RNvYNtNvNtCscdP1gRbl3Ff_20pin_project_internal5utils23determine_lifetime_name16CollectLifetimesNtNtNtCs6IAuOt8vWmF_3syn3gen9visit_mut8VisitMut28visit_foreign_item_macro_mutB8_, symObjAddr: 0x6210, symBinAddr: 0x2592C, symSize: 0x3C }
  - { offset: 0x3F89A, size: 0x8, addend: 0x0, symName: __RNvYNtNvNtCscdP1gRbl3Ff_20pin_project_internal5utils23determine_lifetime_name16CollectLifetimesNtNtNtCs6IAuOt8vWmF_3syn3gen9visit_mut8VisitMut28visit_pointer_mutability_mutB8_, symObjAddr: 0x624C, symBinAddr: 0x25968, symSize: 0x3C }
  - { offset: 0x3F8DC, size: 0x8, addend: 0x0, symName: __RNvYNtNvNtCscdP1gRbl3Ff_20pin_project_internal5utils23determine_lifetime_name16CollectLifetimesNtNtNtCs6IAuOt8vWmF_3syn3gen9visit_mut8VisitMut28visit_predicate_lifetime_mutB8_, symObjAddr: 0x6288, symBinAddr: 0x259A4, symSize: 0x3C }
  - { offset: 0x3F91E, size: 0x8, addend: 0x0, symName: __RNvYNtNvNtCscdP1gRbl3Ff_20pin_project_internal5utils23determine_lifetime_name16CollectLifetimesNtNtNtCs6IAuOt8vWmF_3syn3gen9visit_mut8VisitMut29visit_foreign_item_static_mutB8_, symObjAddr: 0x62C4, symBinAddr: 0x259E0, symSize: 0x3C }
  - { offset: 0x3F960, size: 0x8, addend: 0x0, symName: __RNvYNtNvNtCscdP1gRbl3Ff_20pin_project_internal5utils23determine_lifetime_name16CollectLifetimesNtNtNtCs6IAuOt8vWmF_3syn3gen9visit_mut8VisitMut30visit_trait_bound_modifier_mutB8_, symObjAddr: 0x6300, symBinAddr: 0x25A1C, symSize: 0x3C }
  - { offset: 0x3F9A2, size: 0x8, addend: 0x0, symName: __RNvYNtNvNtCscdP1gRbl3Ff_20pin_project_internal5utils23determine_lifetime_name16CollectLifetimesNtNtNtCs6IAuOt8vWmF_3syn3gen9visit_mut8VisitMut41visit_parenthesized_generic_arguments_mutB8_, symObjAddr: 0x633C, symBinAddr: 0x25A58, symSize: 0x3C }
  - { offset: 0x3F9E4, size: 0x8, addend: 0x0, symName: __RNvYNtNvNtCscdP1gRbl3Ff_20pin_project_internal5utils23determine_lifetime_name16CollectLifetimesNtNtNtCs6IAuOt8vWmF_3syn3gen9visit_mut8VisitMut43visit_angle_bracketed_generic_arguments_mutB8_, symObjAddr: 0x6378, symBinAddr: 0x25A94, symSize: 0x3C }
  - { offset: 0x40870, size: 0x8, addend: 0x0, symName: __RNvNtCse1nGBsou5OW_5alloc3fmt6formatCscdP1gRbl3Ff_20pin_project_internal, symObjAddr: 0x15E8, symBinAddr: 0x20D04, symSize: 0xD4 }
  - { offset: 0x410CC, size: 0x8, addend: 0x0, symName: __RNCINvNtNtCs9i5KxIbZ5ph_10proc_macro6bridge6client10run_clientNtB4_11TokenStreamINtNtCsfvfooZQ3Axs_4core6option6OptionBY_ENCNCINvMs7_B4_INtB4_6ClientNtB8_11TokenStreamB2n_E7expand1NvCscdP1gRbl3Ff_20pin_project_internal29___pin_project_internal_deriveE00E0B2U_, symObjAddr: 0x8A4, symBinAddr: 0x1FFC0, symSize: 0x324 }
  - { offset: 0x4132F, size: 0x8, addend: 0x0, symName: __RNCINvNtNtCs9i5KxIbZ5ph_10proc_macro6bridge6client10run_clientTNtB4_11TokenStreamBZ_EINtNtCsfvfooZQ3Axs_4core6option6OptionBZ_ENCNCINvMs8_B4_INtB4_6ClientTNtB8_11TokenStreamB2t_EB2t_E7expand2NvCscdP1gRbl3Ff_20pin_project_internal11pin_projectE00E0B35_, symObjAddr: 0xBC8, symBinAddr: 0x202E4, symSize: 0x344 }
  - { offset: 0x41592, size: 0x8, addend: 0x0, symName: __RNCINvNtNtCs9i5KxIbZ5ph_10proc_macro6bridge6client10run_clientTNtB4_11TokenStreamBZ_EINtNtCsfvfooZQ3Axs_4core6option6OptionBZ_ENCNCINvMs8_B4_INtB4_6ClientTNtB8_11TokenStreamB2t_EB2t_E7expand2NvCscdP1gRbl3Ff_20pin_project_internal11pinned_dropE00E0B35_, symObjAddr: 0xF0C, symBinAddr: 0x20628, symSize: 0x344 }
  - { offset: 0x417FA, size: 0x8, addend: 0x0, symName: __RNCNCINvNtNtCs9i5KxIbZ5ph_10proc_macro6bridge6client10run_clientNtB6_11TokenStreamINtNtCsfvfooZQ3Axs_4core6option6OptionB10_ENCNCINvMs7_B6_INtB6_6ClientNtBa_11TokenStreamB2q_E7expand1NvCscdP1gRbl3Ff_20pin_project_internal29___pin_project_internal_deriveE00E00B2X_, symObjAddr: 0x1308, symBinAddr: 0x20A24, symSize: 0x28 }
  - { offset: 0x41854, size: 0x8, addend: 0x0, symName: __RNCNCINvNtNtCs9i5KxIbZ5ph_10proc_macro6bridge6client10run_clientTNtB6_11TokenStreamB11_EINtNtCsfvfooZQ3Axs_4core6option6OptionB11_ENCNCINvMs8_B6_INtB6_6ClientTNtBa_11TokenStreamB2x_EB2x_E7expand2NvCscdP1gRbl3Ff_20pin_project_internal11pin_projectE00E00B39_, symObjAddr: 0x1330, symBinAddr: 0x20A4C, symSize: 0x24 }
  - { offset: 0x418B0, size: 0x8, addend: 0x0, symName: __RNCNCINvNtNtCs9i5KxIbZ5ph_10proc_macro6bridge6client10run_clientTNtB6_11TokenStreamB11_EINtNtCsfvfooZQ3Axs_4core6option6OptionB11_ENCNCINvMs8_B6_INtB6_6ClientTNtBa_11TokenStreamB2x_EB2x_E7expand2NvCscdP1gRbl3Ff_20pin_project_internal11pinned_dropE00E00B39_, symObjAddr: 0x1354, symBinAddr: 0x20A70, symSize: 0x24 }
  - { offset: 0x41930, size: 0x8, addend: 0x0, symName: __RNCNCINvMs7_NtNtCs9i5KxIbZ5ph_10proc_macro6bridge6clientINtBa_6ClientNtBe_11TokenStreamB15_E7expand1NvCscdP1gRbl3Ff_20pin_project_internal29___pin_project_internal_deriveE00B1C_, symObjAddr: 0x1250, symBinAddr: 0x2096C, symSize: 0x30 }
  - { offset: 0x41979, size: 0x8, addend: 0x0, symName: __RNCINvMs7_NtNtCs9i5KxIbZ5ph_10proc_macro6bridge6clientINtB8_6ClientNtBc_11TokenStreamB13_E7expand1NvCscdP1gRbl3Ff_20pin_project_internal29___pin_project_internal_deriveE0B1A_, symObjAddr: 0x814, symBinAddr: 0x1FF30, symSize: 0x30 }
  - { offset: 0x419C4, size: 0x8, addend: 0x0, symName: __RINvNtNtCs9i5KxIbZ5ph_10proc_macro6bridge6client10run_clientNtB2_11TokenStreamINtNtCsfvfooZQ3Axs_4core6option6OptionBW_ENCNCINvMs7_B2_INtB2_6ClientNtB6_11TokenStreamB2l_E7expand1NvCscdP1gRbl3Ff_20pin_project_internal29___pin_project_internal_deriveE00EB2S_, symObjAddr: 0x1C0, symBinAddr: 0x1F8DC, symSize: 0x21C }
  - { offset: 0x41BB9, size: 0x8, addend: 0x0, symName: __RNCNCINvMs8_NtNtCs9i5KxIbZ5ph_10proc_macro6bridge6clientINtBa_6ClientTNtBe_11TokenStreamB16_EB16_E7expand2NvCscdP1gRbl3Ff_20pin_project_internal11pin_projectE00B1I_, symObjAddr: 0x1280, symBinAddr: 0x2099C, symSize: 0x44 }
  - { offset: 0x41C2B, size: 0x8, addend: 0x0, symName: __RNCNCINvMs8_NtNtCs9i5KxIbZ5ph_10proc_macro6bridge6clientINtBa_6ClientTNtBe_11TokenStreamB16_EB16_E7expand2NvCscdP1gRbl3Ff_20pin_project_internal11pinned_dropE00B1I_, symObjAddr: 0x12C4, symBinAddr: 0x209E0, symSize: 0x44 }
  - { offset: 0x41C9E, size: 0x8, addend: 0x0, symName: __RNCINvMs8_NtNtCs9i5KxIbZ5ph_10proc_macro6bridge6clientINtB8_6ClientTNtBc_11TokenStreamB14_EB14_E7expand2NvCscdP1gRbl3Ff_20pin_project_internal11pin_projectE0B1G_, symObjAddr: 0x844, symBinAddr: 0x1FF60, symSize: 0x30 }
  - { offset: 0x41CE7, size: 0x8, addend: 0x0, symName: __RNCINvMs8_NtNtCs9i5KxIbZ5ph_10proc_macro6bridge6clientINtB8_6ClientTNtBc_11TokenStreamB14_EB14_E7expand2NvCscdP1gRbl3Ff_20pin_project_internal11pinned_dropE0B1G_, symObjAddr: 0x874, symBinAddr: 0x1FF90, symSize: 0x30 }
  - { offset: 0x41D32, size: 0x8, addend: 0x0, symName: __RINvNtNtCs9i5KxIbZ5ph_10proc_macro6bridge6client10run_clientTNtB2_11TokenStreamBX_EINtNtCsfvfooZQ3Axs_4core6option6OptionBX_ENCNCINvMs8_B2_INtB2_6ClientTNtB6_11TokenStreamB2r_EB2r_E7expand2NvCscdP1gRbl3Ff_20pin_project_internal11pin_projectE00EB33_, symObjAddr: 0x3DC, symBinAddr: 0x1FAF8, symSize: 0x21C }
  - { offset: 0x41EF2, size: 0x8, addend: 0x0, symName: __RINvNtNtCs9i5KxIbZ5ph_10proc_macro6bridge6client10run_clientTNtB2_11TokenStreamBX_EINtNtCsfvfooZQ3Axs_4core6option6OptionBX_ENCNCINvMs8_B2_INtB2_6ClientTNtB6_11TokenStreamB2r_EB2r_E7expand2NvCscdP1gRbl3Ff_20pin_project_internal11pinned_dropE00EB33_, symObjAddr: 0x5F8, symBinAddr: 0x1FD14, symSize: 0x21C }
  - { offset: 0x420E4, size: 0x8, addend: 0x0, symName: __RNvXsg_NtNtCs9i5KxIbZ5ph_10proc_macro6bridge6clientNtB5_11TokenStreamINtNtB7_3rpc6EncodeuE6encodeCscdP1gRbl3Ff_20pin_project_internal, symObjAddr: 0x182C, symBinAddr: 0x20F48, symSize: 0x50 }
  - { offset: 0x421F5, size: 0x8, addend: 0x0, symName: __RNvXsj_NtNtCs9i5KxIbZ5ph_10proc_macro6bridge6clientNtB5_11TokenStreamINtNtB7_3rpc9DecodeMutuE6decodeCscdP1gRbl3Ff_20pin_project_internal, symObjAddr: 0x187C, symBinAddr: 0x20F98, symSize: 0x2C }
  - { offset: 0x4223E, size: 0x8, addend: 0x0, symName: __RNvXsq_NtNtCs9i5KxIbZ5ph_10proc_macro6bridge6clientNtB5_4SpanINtNtB7_3rpc9DecodeMutuE6decodeCscdP1gRbl3Ff_20pin_project_internal, symObjAddr: 0x18A8, symBinAddr: 0x20FC4, symSize: 0x2C }
  - { offset: 0x4270F, size: 0x8, addend: 0x0, symName: __RNvXs9_NtNtCs9i5KxIbZ5ph_10proc_macro6bridge3rpcTNtNtB7_6client11TokenStreamBL_EINtB5_9DecodeMutuE6decodeCscdP1gRbl3Ff_20pin_project_internal, symObjAddr: 0x1790, symBinAddr: 0x20EAC, symSize: 0x80 }
  - { offset: 0x4307A, size: 0x8, addend: 0x0, symName: __RNvNvMs1_NtNtCsfvfooZQ3Axs_4core3ptr8non_nullINtB7_7NonNullpE13new_unchecked18precondition_checkCscdP1gRbl3Ff_20pin_project_internal, symObjAddr: 0x16BC, symBinAddr: 0x20DD8, symSize: 0x38 }
  - { offset: 0x45FDD, size: 0x8, addend: 0x0, symName: __RNvXNtNtCsfvfooZQ3Axs_4core3ops12control_flowINtB2_11ControlFlowRRNtCs3cP53eQoTwO_11proc_macro25IdentENtNtB4_9try_trait3Try11from_outputCscdP1gRbl3Ff_20pin_project_internal, symObjAddr: 0x1734, symBinAddr: 0x20E50, symSize: 0x14 }
  - { offset: 0x4601B, size: 0x8, addend: 0x0, symName: __RNvXNtNtCsfvfooZQ3Axs_4core3ops12control_flowINtB2_11ControlFlowRRNtCs3cP53eQoTwO_11proc_macro25IdentENtNtB4_9try_trait3Try6branchCscdP1gRbl3Ff_20pin_project_internal, symObjAddr: 0x1748, symBinAddr: 0x20E64, symSize: 0x48 }
  - { offset: 0x46099, size: 0x8, addend: 0x0, symName: __RNvXs_NtNtCsfvfooZQ3Axs_4core3ops12control_flowINtB4_11ControlFlowRRNtCs3cP53eQoTwO_11proc_macro25IdentEINtNtB6_9try_trait12FromResidualIBK_B12_NtNtB8_7convert10InfallibleEE13from_residualCscdP1gRbl3Ff_20pin_project_internal, symObjAddr: 0x1810, symBinAddr: 0x20F2C, symSize: 0x1C }
  - { offset: 0x46250, size: 0x8, addend: 0x0, symName: __RINvNtCsfvfooZQ3Axs_4core9panicking13panic_displayNtNtCs6IAuOt8vWmF_3syn5error5ErrorECscdP1gRbl3Ff_20pin_project_internal, symObjAddr: 0x138, symBinAddr: 0x1F854, symSize: 0x88 }
  - { offset: 0x466BA, size: 0x8, addend: 0x0, symName: __RNvMNtCsfvfooZQ3Axs_4core5sliceSTNtNtCs6IAuOt8vWmF_3syn3pat3PatNtNtBz_5token2OrE8iter_mutCscdP1gRbl3Ff_20pin_project_internal, symObjAddr: 0x13A0, symBinAddr: 0x20ABC, symSize: 0x28 }
  - { offset: 0x466F1, size: 0x8, addend: 0x0, symName: __RNvMNtCsfvfooZQ3Axs_4core5sliceSTNtNtCs6IAuOt8vWmF_3syn3pat3PatNtNtBz_5token5CommaE8iter_mutCscdP1gRbl3Ff_20pin_project_internal, symObjAddr: 0x13C8, symBinAddr: 0x20AE4, symSize: 0x28 }
  - { offset: 0x46728, size: 0x8, addend: 0x0, symName: __RNvMNtCsfvfooZQ3Axs_4core5sliceSTNtNtCs6IAuOt8vWmF_3syn3pat8FieldPatNtNtBz_5token5CommaE8iter_mutCscdP1gRbl3Ff_20pin_project_internal, symObjAddr: 0x13F0, symBinAddr: 0x20B0C, symSize: 0x28 }
  - { offset: 0x4698E, size: 0x8, addend: 0x0, symName: __RNCNvMs3_NtNtCscOYdFFY2T5N_3std6thread5localINtB7_8LocalKeyINtNtCsfvfooZQ3Axs_4core4cell4CellPuEE7replace0CscdP1gRbl3Ff_20pin_project_internal, symObjAddr: 0x1378, symBinAddr: 0x20A94, symSize: 0x28 }
  - { offset: 0x471EF, size: 0x8, addend: 0x0, symName: __RINvMs2_NtNtCscOYdFFY2T5N_3std6thread5localINtB6_8LocalKeyINtNtCsfvfooZQ3Axs_4core4cell4CellPuEE4withNCNvMs3_B6_BF_7replace0B1s_ECscdP1gRbl3Ff_20pin_project_internal, symObjAddr: 0x0, symBinAddr: 0x1F71C, symSize: 0x54 }
  - { offset: 0x472A8, size: 0x8, addend: 0x0, symName: __RINvMs2_NtNtCscOYdFFY2T5N_3std6thread5localINtB6_8LocalKeyINtNtCsfvfooZQ3Axs_4core4cell4CellPuEE8try_withNCNvMs3_B6_BF_7replace0B1s_ECscdP1gRbl3Ff_20pin_project_internal, symObjAddr: 0x54, symBinAddr: 0x1F770, symSize: 0xE4 }
  - { offset: 0x47B56, size: 0x8, addend: 0x0, symName: __RNvMs1_NtNtCsfvfooZQ3Axs_4core3ptr8non_nullINtB5_7NonNullNtNtCs6IAuOt8vWmF_3syn4attr4MetaE7sub_ptrCscdP1gRbl3Ff_20pin_project_internal, symObjAddr: 0x1418, symBinAddr: 0x20B34, symSize: 0x74 }
  - { offset: 0x47C7A, size: 0x8, addend: 0x0, symName: __RNvMs1_NtNtCsfvfooZQ3Axs_4core3ptr8non_nullINtB5_7NonNullTNtNtCs6IAuOt8vWmF_3syn4attr4MetaNtNtBY_5token5CommaEE7sub_ptrCscdP1gRbl3Ff_20pin_project_internal, symObjAddr: 0x148C, symBinAddr: 0x20BA8, symSize: 0x74 }
  - { offset: 0x47D80, size: 0x8, addend: 0x0, symName: __RNvMs1_NtNtCsfvfooZQ3Axs_4core3ptr8non_nullINtB5_7NonNullTNtNtCs6IAuOt8vWmF_3syn4data7VariantNtNtBY_5token5CommaEE7sub_ptrCscdP1gRbl3Ff_20pin_project_internal, symObjAddr: 0x1500, symBinAddr: 0x20C1C, symSize: 0x74 }
  - { offset: 0x47E86, size: 0x8, addend: 0x0, symName: __RNvMs1_NtNtCsfvfooZQ3Axs_4core3ptr8non_nullINtB5_7NonNullTNtNtCs6IAuOt8vWmF_3syn4path15GenericArgumentNtNtBY_5token5CommaEE7sub_ptrCscdP1gRbl3Ff_20pin_project_internal, symObjAddr: 0x1574, symBinAddr: 0x20C90, symSize: 0x74 }
  - { offset: 0x47FA1, size: 0x8, addend: 0x0, symName: __RNvXNtCs2cqEZUIJimJ_5quote9to_tokensRNtNtCs6IAuOt8vWmF_3syn11restriction10VisibilityNtB2_8ToTokens9to_tokensCscdP1gRbl3Ff_20pin_project_internal, symObjAddr: 0x16F4, symBinAddr: 0x20E10, symSize: 0x40 }
  - { offset: 0x48031, size: 0x8, addend: 0x0, symName: __RNvNtCscdP1gRbl3Ff_20pin_project_internal5utils23determine_lifetime_name, symObjAddr: 0x63B4, symBinAddr: 0x25AD0, symSize: 0x184 }
  - { offset: 0x48087, size: 0x8, addend: 0x0, symName: __RNvXNvNtCscdP1gRbl3Ff_20pin_project_internal5utils23determine_lifetime_nameNtB2_16CollectLifetimesNtNtNtCs6IAuOt8vWmF_3syn3gen9visit_mut8VisitMut24visit_lifetime_param_mut, symObjAddr: 0x6538, symBinAddr: 0x25C54, symSize: 0x58 }
  - { offset: 0x480BE, size: 0x8, addend: 0x0, symName: __RNCNvNtCscdP1gRbl3Ff_20pin_project_internal5utils23determine_lifetime_name0B5_, symObjAddr: 0x6590, symBinAddr: 0x25CAC, symSize: 0x70 }
  - { offset: 0x48111, size: 0x8, addend: 0x0, symName: __RNvNtCscdP1gRbl3Ff_20pin_project_internal5utils25insert_lifetime_and_bound, symObjAddr: 0x6600, symBinAddr: 0x25D1C, symSize: 0x2A0 }
  - { offset: 0x481AA, size: 0x8, addend: 0x0, symName: __RNvNtCscdP1gRbl3Ff_20pin_project_internal5utils15insert_lifetime, symObjAddr: 0x68A0, symBinAddr: 0x25FBC, symSize: 0xEC }
  - { offset: 0x481E1, size: 0x8, addend: 0x0, symName: __RNvNtCscdP1gRbl3Ff_20pin_project_internal5utils20determine_visibility, symObjAddr: 0x698C, symBinAddr: 0x260A8, symSize: 0x1E0 }
  - { offset: 0x48288, size: 0x8, addend: 0x0, symName: __RINvNtCscdP1gRbl3Ff_20pin_project_internal5utils6respanNtNtCs6IAuOt8vWmF_3syn2ty8TypePathEB4_, symObjAddr: 0x6B6C, symBinAddr: 0x26288, symSize: 0x108 }
  - { offset: 0x4833C, size: 0x8, addend: 0x0, symName: __RNvNtCscdP1gRbl3Ff_20pin_project_internal5utils13respan_tokens, symObjAddr: 0x6C74, symBinAddr: 0x26390, symSize: 0x64 }
  - { offset: 0x4837C, size: 0x8, addend: 0x0, symName: __RNCNvNtCscdP1gRbl3Ff_20pin_project_internal5utils13respan_tokens0B5_, symObjAddr: 0x6CD8, symBinAddr: 0x263F4, symSize: 0x90 }
  - { offset: 0x483C5, size: 0x8, addend: 0x0, symName: __RNCNvXNtCscdP1gRbl3Ff_20pin_project_internal5utilsSNtNtCs6IAuOt8vWmF_3syn4attr9AttributeNtB4_8SliceExt14position_exact0B6_, symObjAddr: 0x6D68, symBinAddr: 0x26484, symSize: 0x26C }
  - { offset: 0x4846D, size: 0x8, addend: 0x0, symName: __RNCNvXNtCscdP1gRbl3Ff_20pin_project_internal5utilsSNtNtCs6IAuOt8vWmF_3syn4attr9AttributeNtB4_8SliceExt14position_exacts_0B6_, symObjAddr: 0x6FD4, symBinAddr: 0x266F0, symSize: 0x30 }
  - { offset: 0x484AC, size: 0x8, addend: 0x0, symName: __RNCNvXNtCscdP1gRbl3Ff_20pin_project_internal5utilsSNtNtCs6IAuOt8vWmF_3syn4attr9AttributeNtB4_8SliceExt4find0B6_, symObjAddr: 0x7004, symBinAddr: 0x26720, symSize: 0x54 }
  - { offset: 0x484E9, size: 0x8, addend: 0x0, symName: __RNCNvXNtCscdP1gRbl3Ff_20pin_project_internal5utilsSNtNtCs6IAuOt8vWmF_3syn4attr9AttributeNtB4_8SliceExt4finds_0B6_, symObjAddr: 0x7058, symBinAddr: 0x26774, symSize: 0x6C }
  - { offset: 0x485A6, size: 0x8, addend: 0x0, symName: __RNvXs2_NtCscdP1gRbl3Ff_20pin_project_internal5utilsNtB5_15ReplaceReceiverNtNtNtCs6IAuOt8vWmF_3syn3gen9visit_mut8VisitMut14visit_type_mut, symObjAddr: 0x8320, symBinAddr: 0x27A3C, symSize: 0x19C }
  - { offset: 0x485F5, size: 0x8, addend: 0x0, symName: __RNvXs2_NtCscdP1gRbl3Ff_20pin_project_internal5utilsNtB5_15ReplaceReceiverNtNtNtCs6IAuOt8vWmF_3syn3gen9visit_mut8VisitMut19visit_type_path_mut, symObjAddr: 0x84BC, symBinAddr: 0x27BD8, symSize: 0x84 }
  - { offset: 0x4862E, size: 0x8, addend: 0x0, symName: __RNvXs2_NtCscdP1gRbl3Ff_20pin_project_internal5utilsNtB5_15ReplaceReceiverNtNtNtCs6IAuOt8vWmF_3syn3gen9visit_mut8VisitMut19visit_expr_path_mut, symObjAddr: 0x8540, symBinAddr: 0x27C5C, symSize: 0x88 }
  - { offset: 0x48667, size: 0x8, addend: 0x0, symName: __RNvXs2_NtCscdP1gRbl3Ff_20pin_project_internal5utilsNtB5_15ReplaceReceiverNtNtNtCs6IAuOt8vWmF_3syn3gen9visit_mut8VisitMut21visit_expr_struct_mut, symObjAddr: 0x85C8, symBinAddr: 0x27CE4, symSize: 0x50 }
  - { offset: 0x486A0, size: 0x8, addend: 0x0, symName: __RNvXs2_NtCscdP1gRbl3Ff_20pin_project_internal5utilsNtB5_15ReplaceReceiverNtNtNtCs6IAuOt8vWmF_3syn3gen9visit_mut8VisitMut20visit_pat_struct_mut, symObjAddr: 0x8618, symBinAddr: 0x27D34, symSize: 0x50 }
  - { offset: 0x486D9, size: 0x8, addend: 0x0, symName: __RNvXs2_NtCscdP1gRbl3Ff_20pin_project_internal5utilsNtB5_15ReplaceReceiverNtNtNtCs6IAuOt8vWmF_3syn3gen9visit_mut8VisitMut26visit_pat_tuple_struct_mut, symObjAddr: 0x8668, symBinAddr: 0x27D84, symSize: 0x50 }
  - { offset: 0x48712, size: 0x8, addend: 0x0, symName: __RNvXs2_NtCscdP1gRbl3Ff_20pin_project_internal5utilsNtB5_15ReplaceReceiverNtNtNtCs6IAuOt8vWmF_3syn3gen9visit_mut8VisitMut14visit_path_mut, symObjAddr: 0x86B8, symBinAddr: 0x27DD4, symSize: 0x128 }
  - { offset: 0x4877F, size: 0x8, addend: 0x0, symName: __RNvXs2_NtCscdP1gRbl3Ff_20pin_project_internal5utilsNtB5_15ReplaceReceiverNtNtNtCs6IAuOt8vWmF_3syn3gen9visit_mut8VisitMut14visit_item_mut, symObjAddr: 0x87E0, symBinAddr: 0x27EFC, symSize: 0xD8 }
  - { offset: 0x487E6, size: 0x8, addend: 0x0, symName: __RNvXs2_NtCscdP1gRbl3Ff_20pin_project_internal5utilsNtB5_15ReplaceReceiverNtNtNtCs6IAuOt8vWmF_3syn3gen9visit_mut8VisitMut15visit_macro_mut, symObjAddr: 0x88B8, symBinAddr: 0x27FD4, symSize: 0x84 }
  - { offset: 0x48820, size: 0x8, addend: 0x0, symName: __RNvNtCscdP1gRbl3Ff_20pin_project_internal5utils11contains_fn, symObjAddr: 0x893C, symBinAddr: 0x28058, symSize: 0x78 }
  - { offset: 0x48854, size: 0x8, addend: 0x0, symName: __RNCNvNtCscdP1gRbl3Ff_20pin_project_internal5utils11contains_fn0B5_, symObjAddr: 0x89B4, symBinAddr: 0x280D0, symSize: 0x20C }
  - { offset: 0x488C3, size: 0x8, addend: 0x0, symName: __RNvNtCscdP1gRbl3Ff_20pin_project_internal5utils26prepend_underscore_to_self, symObjAddr: 0x8BC0, symBinAddr: 0x282DC, symSize: 0xE8 }
  - { offset: 0x4890C, size: 0x8, addend: 0x0, symName: __RNCNvNtCscdP1gRbl3Ff_20pin_project_internal5utils20determine_visibility0B5_, symObjAddr: 0x8CA8, symBinAddr: 0x283C4, symSize: 0x4C }
  - { offset: 0x48948, size: 0x8, addend: 0x0, symName: __RINvNCNvNtCscdP1gRbl3Ff_20pin_project_internal5utils20determine_visibility018panic_cold_displayNtNtCs6IAuOt8vWmF_3syn5error5ErrorEB8_, symObjAddr: 0x8CF4, symBinAddr: 0x1ACC08, symSize: 0x28 }
  - { offset: 0x489E1, size: 0x8, addend: 0x0, symName: __RNvMs1_NtCscdP1gRbl3Ff_20pin_project_internal5utilsNtB5_15ReplaceReceiver7self_ty, symObjAddr: 0x70C4, symBinAddr: 0x267E0, symSize: 0x3C }
  - { offset: 0x48AA8, size: 0x8, addend: 0x0, symName: __RNvMs1_NtCscdP1gRbl3Ff_20pin_project_internal5utilsNtB5_15ReplaceReceiver13self_to_qself, symObjAddr: 0x7100, symBinAddr: 0x2681C, symSize: 0x3F8 }
  - { offset: 0x48B8C, size: 0x8, addend: 0x0, symName: __RNvMs1_NtCscdP1gRbl3Ff_20pin_project_internal5utilsNtB5_15ReplaceReceiver17self_to_expr_path, symObjAddr: 0x74F8, symBinAddr: 0x26C14, symSize: 0x420 }
  - { offset: 0x48C78, size: 0x8, addend: 0x0, symName: __RNvMs1_NtCscdP1gRbl3Ff_20pin_project_internal5utilsNtB5_15ReplaceReceiver18visit_token_stream, symObjAddr: 0x7918, symBinAddr: 0x27034, symSize: 0xA08 }
  - { offset: 0x49A0C, size: 0x8, addend: 0x0, symName: __RINvMNtCsfvfooZQ3Axs_4core6optionINtB3_6OptionIBw_NtCs3cP53eQoTwO_11proc_macro29TokenTreeEE18get_or_insert_withNCNvMs3_NtNtNtB5_4iter8adapters8peekableINtB1T_8PeekableNtNtBO_12token_stream8IntoIterE4peek0ECscdP1gRbl3Ff_20pin_project_internal, symObjAddr: 0x0, symBinAddr: 0x28464, symSize: 0x138 }
  - { offset: 0x49EE6, size: 0x8, addend: 0x0, symName: __RNvXsR_NtCs9i5KxIbZ5ph_10proc_macro6bridgeINtNtCsfvfooZQ3Axs_4core6option6OptionNtNtB5_6client11TokenStreamEINtNtB5_3rpc6EncodeuE6encodeCscdP1gRbl3Ff_20pin_project_internal, symObjAddr: 0x3B90, symBinAddr: 0x2BFF4, symSize: 0xCC }
  - { offset: 0x49F8C, size: 0x8, addend: 0x0, symName: __RNvXsR_NtCs9i5KxIbZ5ph_10proc_macro6bridgeINtNtCsfvfooZQ3Axs_4core6option6OptionReEINtNtB5_3rpc6EncodeuE6encodeCscdP1gRbl3Ff_20pin_project_internal, symObjAddr: 0x3C5C, symBinAddr: 0x2C0C0, symSize: 0xD8 }
  - { offset: 0x5013B, size: 0x8, addend: 0x0, symName: __RNvXs5_NtCsfvfooZQ3Axs_4core6optionINtB5_6OptionNtNtCs6IAuOt8vWmF_3syn4attr4MetaENtNtNtNtB7_4iter6traits7collect12IntoIterator9into_iterCscdP1gRbl3Ff_20pin_project_internal, symObjAddr: 0x387C, symBinAddr: 0x2BCE0, symSize: 0x50 }
  - { offset: 0x50173, size: 0x8, addend: 0x0, symName: __RNvXs5_NtCsfvfooZQ3Axs_4core6optionINtB5_6OptionQNtNtCs6IAuOt8vWmF_3syn2ty4TypeENtNtNtNtB7_4iter6traits7collect12IntoIterator9into_iterCscdP1gRbl3Ff_20pin_project_internal, symObjAddr: 0x38CC, symBinAddr: 0x2BD30, symSize: 0x14 }
  - { offset: 0x501AA, size: 0x8, addend: 0x0, symName: __RNvXs5_NtCsfvfooZQ3Axs_4core6optionINtB5_6OptionQNtNtCs6IAuOt8vWmF_3syn2ty9BareFnArgENtNtNtNtB7_4iter6traits7collect12IntoIterator9into_iterCscdP1gRbl3Ff_20pin_project_internal, symObjAddr: 0x38E0, symBinAddr: 0x2BD44, symSize: 0x14 }
  - { offset: 0x501E1, size: 0x8, addend: 0x0, symName: __RNvXs5_NtCsfvfooZQ3Axs_4core6optionINtB5_6OptionQNtNtCs6IAuOt8vWmF_3syn3pat3PatENtNtNtNtB7_4iter6traits7collect12IntoIterator9into_iterCscdP1gRbl3Ff_20pin_project_internal, symObjAddr: 0x38F4, symBinAddr: 0x2BD58, symSize: 0x14 }
  - { offset: 0x50218, size: 0x8, addend: 0x0, symName: __RNvXs5_NtCsfvfooZQ3Axs_4core6optionINtB5_6OptionQNtNtCs6IAuOt8vWmF_3syn3pat8FieldPatENtNtNtNtB7_4iter6traits7collect12IntoIterator9into_iterCscdP1gRbl3Ff_20pin_project_internal, symObjAddr: 0x3908, symBinAddr: 0x2BD6C, symSize: 0x14 }
  - { offset: 0x5024F, size: 0x8, addend: 0x0, symName: __RNvXs5_NtCsfvfooZQ3Axs_4core6optionINtB5_6OptionQNtNtCs6IAuOt8vWmF_3syn4data7VariantENtNtNtNtB7_4iter6traits7collect12IntoIterator9into_iterCscdP1gRbl3Ff_20pin_project_internal, symObjAddr: 0x391C, symBinAddr: 0x2BD80, symSize: 0x14 }
  - { offset: 0x50286, size: 0x8, addend: 0x0, symName: __RNvXs5_NtCsfvfooZQ3Axs_4core6optionINtB5_6OptionQNtNtCs6IAuOt8vWmF_3syn4expr10FieldValueENtNtNtNtB7_4iter6traits7collect12IntoIterator9into_iterCscdP1gRbl3Ff_20pin_project_internal, symObjAddr: 0x3930, symBinAddr: 0x2BD94, symSize: 0x14 }
  - { offset: 0x502BD, size: 0x8, addend: 0x0, symName: __RNvXs5_NtCsfvfooZQ3Axs_4core6optionINtB5_6OptionQNtNtCs6IAuOt8vWmF_3syn4expr4ExprENtNtNtNtB7_4iter6traits7collect12IntoIterator9into_iterCscdP1gRbl3Ff_20pin_project_internal, symObjAddr: 0x3944, symBinAddr: 0x2BDA8, symSize: 0x14 }
  - { offset: 0x502F4, size: 0x8, addend: 0x0, symName: __RNvXs5_NtCsfvfooZQ3Axs_4core6optionINtB5_6OptionQNtNtCs6IAuOt8vWmF_3syn4item5FnArgENtNtNtNtB7_4iter6traits7collect12IntoIterator9into_iterCscdP1gRbl3Ff_20pin_project_internal, symObjAddr: 0x3958, symBinAddr: 0x2BDBC, symSize: 0x14 }
  - { offset: 0x5032B, size: 0x8, addend: 0x0, symName: __RNvXs5_NtCsfvfooZQ3Axs_4core6optionINtB5_6OptionQNtNtCs6IAuOt8vWmF_3syn4item7UseTreeENtNtNtNtB7_4iter6traits7collect12IntoIterator9into_iterCscdP1gRbl3Ff_20pin_project_internal, symObjAddr: 0x396C, symBinAddr: 0x2BDD0, symSize: 0x14 }
  - { offset: 0x50362, size: 0x8, addend: 0x0, symName: __RNvXs5_NtCsfvfooZQ3Axs_4core6optionINtB5_6OptionQNtNtCs6IAuOt8vWmF_3syn4path15GenericArgumentENtNtNtNtB7_4iter6traits7collect12IntoIterator9into_iterCscdP1gRbl3Ff_20pin_project_internal, symObjAddr: 0x3980, symBinAddr: 0x2BDE4, symSize: 0x14 }
  - { offset: 0x50399, size: 0x8, addend: 0x0, symName: __RNvXs5_NtCsfvfooZQ3Axs_4core6optionINtB5_6OptionQNtNtCs6IAuOt8vWmF_3syn8generics13CapturedParamENtNtNtNtB7_4iter6traits7collect12IntoIterator9into_iterCscdP1gRbl3Ff_20pin_project_internal, symObjAddr: 0x3994, symBinAddr: 0x2BDF8, symSize: 0x14 }
  - { offset: 0x503D0, size: 0x8, addend: 0x0, symName: __RNvXs5_NtCsfvfooZQ3Axs_4core6optionINtB5_6OptionQNtNtCs6IAuOt8vWmF_3syn8generics14TypeParamBoundENtNtNtNtB7_4iter6traits7collect12IntoIterator9into_iterCscdP1gRbl3Ff_20pin_project_internal, symObjAddr: 0x39A8, symBinAddr: 0x2BE0C, symSize: 0x14 }
  - { offset: 0x50407, size: 0x8, addend: 0x0, symName: __RNvXs5_NtCsfvfooZQ3Axs_4core6optionINtB5_6OptionQNtNtCs6IAuOt8vWmF_3syn8generics14WherePredicateENtNtNtNtB7_4iter6traits7collect12IntoIterator9into_iterCscdP1gRbl3Ff_20pin_project_internal, symObjAddr: 0x39BC, symBinAddr: 0x2BE20, symSize: 0x14 }
  - { offset: 0x5043E, size: 0x8, addend: 0x0, symName: __RNvXs5_NtCsfvfooZQ3Axs_4core6optionINtB5_6OptionQNtNtCs6IAuOt8vWmF_3syn8lifetime8LifetimeENtNtNtNtB7_4iter6traits7collect12IntoIterator9into_iterCscdP1gRbl3Ff_20pin_project_internal, symObjAddr: 0x39D0, symBinAddr: 0x2BE34, symSize: 0x14 }
  - { offset: 0x5047B, size: 0x8, addend: 0x0, symName: __RNvXsB_NtCsfvfooZQ3Axs_4core6optionINtB5_6OptionNtCs3cP53eQoTwO_11proc_macro25IdentENtNtNtB7_3ops9try_trait3Try6branchCscdP1gRbl3Ff_20pin_project_internal, symObjAddr: 0x39E4, symBinAddr: 0x2BE48, symSize: 0x64 }
  - { offset: 0x504D1, size: 0x8, addend: 0x0, symName: __RNvXsB_NtCsfvfooZQ3Axs_4core6optionINtB5_6OptionNtNtCs6IAuOt8vWmF_3syn5parse11ParseBufferENtNtNtB7_3ops9try_trait3Try6branchCscdP1gRbl3Ff_20pin_project_internal, symObjAddr: 0x3A48, symBinAddr: 0x2BEAC, symSize: 0x60 }
  - { offset: 0x5052D, size: 0x8, addend: 0x0, symName: __RNvXsC_NtCsfvfooZQ3Axs_4core6optionINtB5_6OptionNtCs3cP53eQoTwO_11proc_macro211TokenStreamEINtNtNtB7_3ops9try_trait12FromResidualIBy_NtNtB7_7convert10InfallibleEE13from_residualCscdP1gRbl3Ff_20pin_project_internal, symObjAddr: 0x3AA8, symBinAddr: 0x2BF0C, symSize: 0x18 }
  - { offset: 0x5062C, size: 0x8, addend: 0x0, symName: __RNvXsO_NtCsfvfooZQ3Axs_4core6optionINtB5_8IntoIterRNtNtCs6IAuOt8vWmF_3syn4data7VariantENtNtB7_5clone5Clone5cloneCscdP1gRbl3Ff_20pin_project_internal, symObjAddr: 0x3AC0, symBinAddr: 0x2BF24, symSize: 0x68 }
  - { offset: 0x506D3, size: 0x8, addend: 0x0, symName: __RNvXsO_NtCsfvfooZQ3Axs_4core6optionINtB5_8IntoIterRNtNtCs6IAuOt8vWmF_3syn4path15GenericArgumentENtNtB7_5clone5Clone5cloneCscdP1gRbl3Ff_20pin_project_internal, symObjAddr: 0x3B28, symBinAddr: 0x2BF8C, symSize: 0x68 }
  - { offset: 0x5096C, size: 0x8, addend: 0x0, symName: __RNvXsv_NtCsfvfooZQ3Axs_4core6optionINtB5_8IntoIterNtNtCs6IAuOt8vWmF_3syn4attr4MetaENtNtNtNtB7_4iter6traits8iterator8Iterator4nextCscdP1gRbl3Ff_20pin_project_internal, symObjAddr: 0x3D34, symBinAddr: 0x2C198, symSize: 0x68 }
  - { offset: 0x50A0F, size: 0x8, addend: 0x0, symName: __RNvXsv_NtCsfvfooZQ3Axs_4core6optionINtB5_8IntoIterNtNtCs6IAuOt8vWmF_3syn4attr4MetaENtNtNtNtB7_4iter6traits8iterator8Iterator9size_hintCscdP1gRbl3Ff_20pin_project_internal, symObjAddr: 0x3D9C, symBinAddr: 0x2C200, symSize: 0x44 }
  - { offset: 0x50A87, size: 0x8, addend: 0x0, symName: __RNvXsv_NtCsfvfooZQ3Axs_4core6optionINtB5_8IntoIterQNtNtCs6IAuOt8vWmF_3syn2ty4TypeENtNtNtNtB7_4iter6traits8iterator8Iterator4nextCscdP1gRbl3Ff_20pin_project_internal, symObjAddr: 0x3DE0, symBinAddr: 0x2C244, symSize: 0x28 }
  - { offset: 0x50B2A, size: 0x8, addend: 0x0, symName: __RNvXsv_NtCsfvfooZQ3Axs_4core6optionINtB5_8IntoIterQNtNtCs6IAuOt8vWmF_3syn2ty9BareFnArgENtNtNtNtB7_4iter6traits8iterator8Iterator4nextCscdP1gRbl3Ff_20pin_project_internal, symObjAddr: 0x3E08, symBinAddr: 0x2C26C, symSize: 0x28 }
  - { offset: 0x50BCD, size: 0x8, addend: 0x0, symName: __RNvXsv_NtCsfvfooZQ3Axs_4core6optionINtB5_8IntoIterQNtNtCs6IAuOt8vWmF_3syn3pat3PatENtNtNtNtB7_4iter6traits8iterator8Iterator4nextCscdP1gRbl3Ff_20pin_project_internal, symObjAddr: 0x3E30, symBinAddr: 0x2C294, symSize: 0x28 }
  - { offset: 0x50C70, size: 0x8, addend: 0x0, symName: __RNvXsv_NtCsfvfooZQ3Axs_4core6optionINtB5_8IntoIterQNtNtCs6IAuOt8vWmF_3syn3pat8FieldPatENtNtNtNtB7_4iter6traits8iterator8Iterator4nextCscdP1gRbl3Ff_20pin_project_internal, symObjAddr: 0x3E58, symBinAddr: 0x2C2BC, symSize: 0x28 }
  - { offset: 0x50D13, size: 0x8, addend: 0x0, symName: __RNvXsv_NtCsfvfooZQ3Axs_4core6optionINtB5_8IntoIterQNtNtCs6IAuOt8vWmF_3syn4data7VariantENtNtNtNtB7_4iter6traits8iterator8Iterator4nextCscdP1gRbl3Ff_20pin_project_internal, symObjAddr: 0x3E80, symBinAddr: 0x2C2E4, symSize: 0x28 }
  - { offset: 0x50DB6, size: 0x8, addend: 0x0, symName: __RNvXsv_NtCsfvfooZQ3Axs_4core6optionINtB5_8IntoIterQNtNtCs6IAuOt8vWmF_3syn4expr10FieldValueENtNtNtNtB7_4iter6traits8iterator8Iterator4nextCscdP1gRbl3Ff_20pin_project_internal, symObjAddr: 0x3EA8, symBinAddr: 0x2C30C, symSize: 0x28 }
  - { offset: 0x50E59, size: 0x8, addend: 0x0, symName: __RNvXsv_NtCsfvfooZQ3Axs_4core6optionINtB5_8IntoIterQNtNtCs6IAuOt8vWmF_3syn4expr4ExprENtNtNtNtB7_4iter6traits8iterator8Iterator4nextCscdP1gRbl3Ff_20pin_project_internal, symObjAddr: 0x3ED0, symBinAddr: 0x2C334, symSize: 0x28 }
  - { offset: 0x50EFC, size: 0x8, addend: 0x0, symName: __RNvXsv_NtCsfvfooZQ3Axs_4core6optionINtB5_8IntoIterQNtNtCs6IAuOt8vWmF_3syn4item5FnArgENtNtNtNtB7_4iter6traits8iterator8Iterator4nextCscdP1gRbl3Ff_20pin_project_internal, symObjAddr: 0x3EF8, symBinAddr: 0x2C35C, symSize: 0x28 }
  - { offset: 0x50F9F, size: 0x8, addend: 0x0, symName: __RNvXsv_NtCsfvfooZQ3Axs_4core6optionINtB5_8IntoIterQNtNtCs6IAuOt8vWmF_3syn4item7UseTreeENtNtNtNtB7_4iter6traits8iterator8Iterator4nextCscdP1gRbl3Ff_20pin_project_internal, symObjAddr: 0x3F20, symBinAddr: 0x2C384, symSize: 0x28 }
  - { offset: 0x51042, size: 0x8, addend: 0x0, symName: __RNvXsv_NtCsfvfooZQ3Axs_4core6optionINtB5_8IntoIterQNtNtCs6IAuOt8vWmF_3syn4path15GenericArgumentENtNtNtNtB7_4iter6traits8iterator8Iterator4nextCscdP1gRbl3Ff_20pin_project_internal, symObjAddr: 0x3F48, symBinAddr: 0x2C3AC, symSize: 0x28 }
  - { offset: 0x510E5, size: 0x8, addend: 0x0, symName: __RNvXsv_NtCsfvfooZQ3Axs_4core6optionINtB5_8IntoIterQNtNtCs6IAuOt8vWmF_3syn8generics13CapturedParamENtNtNtNtB7_4iter6traits8iterator8Iterator4nextCscdP1gRbl3Ff_20pin_project_internal, symObjAddr: 0x3F70, symBinAddr: 0x2C3D4, symSize: 0x28 }
  - { offset: 0x51188, size: 0x8, addend: 0x0, symName: __RNvXsv_NtCsfvfooZQ3Axs_4core6optionINtB5_8IntoIterQNtNtCs6IAuOt8vWmF_3syn8generics14TypeParamBoundENtNtNtNtB7_4iter6traits8iterator8Iterator4nextCscdP1gRbl3Ff_20pin_project_internal, symObjAddr: 0x3F98, symBinAddr: 0x2C3FC, symSize: 0x28 }
  - { offset: 0x5122B, size: 0x8, addend: 0x0, symName: __RNvXsv_NtCsfvfooZQ3Axs_4core6optionINtB5_8IntoIterQNtNtCs6IAuOt8vWmF_3syn8generics14WherePredicateENtNtNtNtB7_4iter6traits8iterator8Iterator4nextCscdP1gRbl3Ff_20pin_project_internal, symObjAddr: 0x3FC0, symBinAddr: 0x2C424, symSize: 0x28 }
  - { offset: 0x512CE, size: 0x8, addend: 0x0, symName: __RNvXsv_NtCsfvfooZQ3Axs_4core6optionINtB5_8IntoIterQNtNtCs6IAuOt8vWmF_3syn8lifetime8LifetimeENtNtNtNtB7_4iter6traits8iterator8Iterator4nextCscdP1gRbl3Ff_20pin_project_internal, symObjAddr: 0x3FE8, symBinAddr: 0x2C44C, symSize: 0x28 }
  - { offset: 0x51371, size: 0x8, addend: 0x0, symName: __RNvXsv_NtCsfvfooZQ3Axs_4core6optionINtB5_8IntoIterRNtNtCs6IAuOt8vWmF_3syn4data7VariantENtNtNtNtB7_4iter6traits8iterator8Iterator9size_hintCscdP1gRbl3Ff_20pin_project_internal, symObjAddr: 0x4010, symBinAddr: 0x2C474, symSize: 0x44 }
  - { offset: 0x513E9, size: 0x8, addend: 0x0, symName: __RNvXsv_NtCsfvfooZQ3Axs_4core6optionINtB5_8IntoIterRNtNtCs6IAuOt8vWmF_3syn4path15GenericArgumentENtNtNtNtB7_4iter6traits8iterator8Iterator9size_hintCscdP1gRbl3Ff_20pin_project_internal, symObjAddr: 0x4054, symBinAddr: 0x2C4B8, symSize: 0x44 }
  - { offset: 0x5224C, size: 0x8, addend: 0x0, symName: __RINvYINtNtCsfvfooZQ3Axs_4core6option8IntoIterNtNtCs6IAuOt8vWmF_3syn4attr4MetaENtNtNtNtB8_4iter6traits8iterator8Iterator4folduNCINvNvB1e_8for_each4callBH_NCINvMsi_NtCse1nGBsou5OW_5alloc3vecINtB2A_3VecBH_E14extend_trustedB3_E0E0ECscdP1gRbl3Ff_20pin_project_internal, symObjAddr: 0x2AA8, symBinAddr: 0x2AF0C, symSize: 0x144 }
  - { offset: 0x5232D, size: 0x8, addend: 0x0, symName: __RINvYINtNtCsfvfooZQ3Axs_4core6option8IntoIterNtNtCs6IAuOt8vWmF_3syn4attr4MetaENtNtNtNtB8_4iter6traits8iterator8Iterator8for_eachNCINvMsi_NtCse1nGBsou5OW_5alloc3vecINtB2b_3VecBH_E14extend_trustedB3_E0ECscdP1gRbl3Ff_20pin_project_internal, symObjAddr: 0x2BEC, symBinAddr: 0x2B050, symSize: 0x34 }
  - { offset: 0x523A5, size: 0x8, addend: 0x0, symName: __RNvYINtNtCsfvfooZQ3Axs_4core6option8IntoIterRNtNtCs6IAuOt8vWmF_3syn4data7VariantENtNtNtNtB7_4iter6traits10exact_size17ExactSizeIterator3lenCscdP1gRbl3Ff_20pin_project_internal, symObjAddr: 0x41B0, symBinAddr: 0x2C614, symSize: 0xF4 }
  - { offset: 0x52498, size: 0x8, addend: 0x0, symName: __RNvYINtNtCsfvfooZQ3Axs_4core6option8IntoIterRNtNtCs6IAuOt8vWmF_3syn4path15GenericArgumentENtNtNtNtB7_4iter6traits10exact_size17ExactSizeIterator3lenCscdP1gRbl3Ff_20pin_project_internal, symObjAddr: 0x42A4, symBinAddr: 0x2C708, symSize: 0xF4 }
  - { offset: 0x5289C, size: 0x8, addend: 0x0, symName: __RNvMNtCsfvfooZQ3Axs_4core5sliceSINtNtB4_6option6OptionRNtCs3cP53eQoTwO_11proc_macro25IdentE4iterCscdP1gRbl3Ff_20pin_project_internal, symObjAddr: 0x2C20, symBinAddr: 0x2B084, symSize: 0x28 }
  - { offset: 0x53A19, size: 0x8, addend: 0x0, symName: __RINvMNtCsfvfooZQ3Axs_4core6optionINtB3_6OptionIBw_NtCs3cP53eQoTwO_11proc_macro29TokenTreeEE18get_or_insert_withNCNvMs3_NtNtNtB5_4iter8adapters8peekableINtB1T_8PeekableNtNtBO_12token_stream8IntoIterE4peek0ECscdP1gRbl3Ff_20pin_project_internal, symObjAddr: 0x0, symBinAddr: 0x28464, symSize: 0x138 }
  - { offset: 0x599E3, size: 0x8, addend: 0x0, symName: __RINvMNtCsfvfooZQ3Axs_4core6optionINtB3_6OptionINtNtCs6IAuOt8vWmF_3syn10punctuated4PairQNtNtBN_2ty4TypeQNtNtBN_5token5CommaEE7or_elseNCNvXsg_BL_INtBL_8PairsMutB1n_B1D_ENtNtNtNtB5_4iter6traits8iterator8Iterator4nexts_0ECscdP1gRbl3Ff_20pin_project_internal, symObjAddr: 0x138, symBinAddr: 0x2859C, symSize: 0xB4 }
  - { offset: 0x59A60, size: 0x8, addend: 0x0, symName: __RINvMNtCsfvfooZQ3Axs_4core6optionINtB3_6OptionINtNtCs6IAuOt8vWmF_3syn10punctuated4PairQNtNtBN_2ty9BareFnArgQNtNtBN_5token5CommaEE7or_elseNCNvXsg_BL_INtBL_8PairsMutB1n_B1I_ENtNtNtNtB5_4iter6traits8iterator8Iterator4nexts_0ECscdP1gRbl3Ff_20pin_project_internal, symObjAddr: 0x1EC, symBinAddr: 0x28650, symSize: 0xB4 }
  - { offset: 0x59AEA, size: 0x8, addend: 0x0, symName: __RINvMNtCsfvfooZQ3Axs_4core6optionINtB3_6OptionINtNtCs6IAuOt8vWmF_3syn10punctuated4PairQNtNtBN_3pat3PatQNtNtBN_5token2OrEE7or_elseNCNvXsg_BL_INtBL_8PairsMutB1n_B1D_ENtNtNtNtB5_4iter6traits8iterator8Iterator4nexts_0ECscdP1gRbl3Ff_20pin_project_internal, symObjAddr: 0x2A0, symBinAddr: 0x28704, symSize: 0xB4 }
  - { offset: 0x59B4D, size: 0x8, addend: 0x0, symName: __RINvMNtCsfvfooZQ3Axs_4core6optionINtB3_6OptionINtNtCs6IAuOt8vWmF_3syn10punctuated4PairQNtNtBN_3pat3PatQNtNtBN_5token5CommaEE7or_elseNCNvXsg_BL_INtBL_8PairsMutB1n_B1D_ENtNtNtNtB5_4iter6traits8iterator8Iterator4nexts_0ECscdP1gRbl3Ff_20pin_project_internal, symObjAddr: 0x354, symBinAddr: 0x287B8, symSize: 0xB4 }
  - { offset: 0x59BCA, size: 0x8, addend: 0x0, symName: __RINvMNtCsfvfooZQ3Axs_4core6optionINtB3_6OptionINtNtCs6IAuOt8vWmF_3syn10punctuated4PairQNtNtBN_3pat8FieldPatQNtNtBN_5token5CommaEE7or_elseNCNvXsg_BL_INtBL_8PairsMutB1n_B1I_ENtNtNtNtB5_4iter6traits8iterator8Iterator4nexts_0ECscdP1gRbl3Ff_20pin_project_internal, symObjAddr: 0x408, symBinAddr: 0x2886C, symSize: 0xB4 }
  - { offset: 0x59C47, size: 0x8, addend: 0x0, symName: __RINvMNtCsfvfooZQ3Axs_4core6optionINtB3_6OptionINtNtCs6IAuOt8vWmF_3syn10punctuated4PairQNtNtBN_4data5FieldQNtNtBN_5token5CommaEE7or_elseNCNvXsg_BL_INtBL_8PairsMutB1n_B1G_ENtNtNtNtB5_4iter6traits8iterator8Iterator4nexts_0ECscdP1gRbl3Ff_20pin_project_internal, symObjAddr: 0x4BC, symBinAddr: 0x28920, symSize: 0xB4 }
  - { offset: 0x59CC4, size: 0x8, addend: 0x0, symName: __RINvMNtCsfvfooZQ3Axs_4core6optionINtB3_6OptionINtNtCs6IAuOt8vWmF_3syn10punctuated4PairQNtNtBN_4data7VariantQNtNtBN_5token5CommaEE7or_elseNCNvXsg_BL_INtBL_8PairsMutB1n_B1I_ENtNtNtNtB5_4iter6traits8iterator8Iterator4nexts_0ECscdP1gRbl3Ff_20pin_project_internal, symObjAddr: 0x570, symBinAddr: 0x289D4, symSize: 0xB4 }
  - { offset: 0x59D41, size: 0x8, addend: 0x0, symName: __RINvMNtCsfvfooZQ3Axs_4core6optionINtB3_6OptionINtNtCs6IAuOt8vWmF_3syn10punctuated4PairQNtNtBN_4expr10FieldValueQNtNtBN_5token5CommaEE7or_elseNCNvXsg_BL_INtBL_8PairsMutB1n_B1M_ENtNtNtNtB5_4iter6traits8iterator8Iterator4nexts_0ECscdP1gRbl3Ff_20pin_project_internal, symObjAddr: 0x624, symBinAddr: 0x28A88, symSize: 0xB4 }
  - { offset: 0x59DBE, size: 0x8, addend: 0x0, symName: __RINvMNtCsfvfooZQ3Axs_4core6optionINtB3_6OptionINtNtCs6IAuOt8vWmF_3syn10punctuated4PairQNtNtBN_4expr4ExprQNtNtBN_5token5CommaEE7or_elseNCNvXsg_BL_INtBL_8PairsMutB1n_B1F_ENtNtNtNtB5_4iter6traits8iterator8Iterator4nexts_0ECscdP1gRbl3Ff_20pin_project_internal, symObjAddr: 0x6D8, symBinAddr: 0x28B3C, symSize: 0xB4 }
  - { offset: 0x59E3B, size: 0x8, addend: 0x0, symName: __RINvMNtCsfvfooZQ3Axs_4core6optionINtB3_6OptionINtNtCs6IAuOt8vWmF_3syn10punctuated4PairQNtNtBN_4item5FnArgQNtNtBN_5token5CommaEE7or_elseNCNvXsg_BL_INtBL_8PairsMutB1n_B1G_ENtNtNtNtB5_4iter6traits8iterator8Iterator4nexts_0ECscdP1gRbl3Ff_20pin_project_internal, symObjAddr: 0x78C, symBinAddr: 0x28BF0, symSize: 0xB4 }
  - { offset: 0x59EB8, size: 0x8, addend: 0x0, symName: __RINvMNtCsfvfooZQ3Axs_4core6optionINtB3_6OptionINtNtCs6IAuOt8vWmF_3syn10punctuated4PairQNtNtBN_4item7UseTreeQNtNtBN_5token5CommaEE7or_elseNCNvXsg_BL_INtBL_8PairsMutB1n_B1I_ENtNtNtNtB5_4iter6traits8iterator8Iterator4nexts_0ECscdP1gRbl3Ff_20pin_project_internal, symObjAddr: 0x840, symBinAddr: 0x28CA4, symSize: 0xB4 }
  - { offset: 0x59F42, size: 0x8, addend: 0x0, symName: __RINvMNtCsfvfooZQ3Axs_4core6optionINtB3_6OptionINtNtCs6IAuOt8vWmF_3syn10punctuated4PairQNtNtBN_4path11PathSegmentQNtNtBN_5token7PathSepEE7or_elseNCNvXsg_BL_INtBL_8PairsMutB1n_B1N_ENtNtNtNtB5_4iter6traits8iterator8Iterator4nexts_0ECscdP1gRbl3Ff_20pin_project_internal, symObjAddr: 0x8F4, symBinAddr: 0x28D58, symSize: 0xB4 }
  - { offset: 0x59FBF, size: 0x8, addend: 0x0, symName: __RINvMNtCsfvfooZQ3Axs_4core6optionINtB3_6OptionINtNtCs6IAuOt8vWmF_3syn10punctuated4PairQNtNtBN_4path15GenericArgumentQNtNtBN_5token5CommaEE7or_elseNCNvXsg_BL_INtBL_8PairsMutB1n_B1R_ENtNtNtNtB5_4iter6traits8iterator8Iterator4nexts_0ECscdP1gRbl3Ff_20pin_project_internal, symObjAddr: 0x9A8, symBinAddr: 0x28E0C, symSize: 0xB4 }
  - { offset: 0x5A03C, size: 0x8, addend: 0x0, symName: __RINvMNtCsfvfooZQ3Axs_4core6optionINtB3_6OptionINtNtCs6IAuOt8vWmF_3syn10punctuated4PairQNtNtBN_8generics12GenericParamQNtNtBN_5token5CommaEE7or_elseNCNvXsg_BL_INtBL_8PairsMutB1n_B1S_ENtNtNtNtB5_4iter6traits8iterator8Iterator4nexts_0ECscdP1gRbl3Ff_20pin_project_internal, symObjAddr: 0xA5C, symBinAddr: 0x28EC0, symSize: 0xB4 }
  - { offset: 0x5A0B9, size: 0x8, addend: 0x0, symName: __RINvMNtCsfvfooZQ3Axs_4core6optionINtB3_6OptionINtNtCs6IAuOt8vWmF_3syn10punctuated4PairQNtNtBN_8generics13CapturedParamQNtNtBN_5token5CommaEE7or_elseNCNvXsg_BL_INtBL_8PairsMutB1n_B1T_ENtNtNtNtB5_4iter6traits8iterator8Iterator4nexts_0ECscdP1gRbl3Ff_20pin_project_internal, symObjAddr: 0xB10, symBinAddr: 0x28F74, symSize: 0xB4 }
  - { offset: 0x5A143, size: 0x8, addend: 0x0, symName: __RINvMNtCsfvfooZQ3Axs_4core6optionINtB3_6OptionINtNtCs6IAuOt8vWmF_3syn10punctuated4PairQNtNtBN_8generics14TypeParamBoundQNtNtBN_5token4PlusEE7or_elseNCNvXsg_BL_INtBL_8PairsMutB1n_B1U_ENtNtNtNtB5_4iter6traits8iterator8Iterator4nexts_0ECscdP1gRbl3Ff_20pin_project_internal, symObjAddr: 0xBC4, symBinAddr: 0x29028, symSize: 0xB4 }
  - { offset: 0x5A1C0, size: 0x8, addend: 0x0, symName: __RINvMNtCsfvfooZQ3Axs_4core6optionINtB3_6OptionINtNtCs6IAuOt8vWmF_3syn10punctuated4PairQNtNtBN_8generics14WherePredicateQNtNtBN_5token5CommaEE7or_elseNCNvXsg_BL_INtBL_8PairsMutB1n_B1U_ENtNtNtNtB5_4iter6traits8iterator8Iterator4nexts_0ECscdP1gRbl3Ff_20pin_project_internal, symObjAddr: 0xC78, symBinAddr: 0x290DC, symSize: 0xB4 }
  - { offset: 0x5A23D, size: 0x8, addend: 0x0, symName: __RINvMNtCsfvfooZQ3Axs_4core6optionINtB3_6OptionINtNtCs6IAuOt8vWmF_3syn10punctuated4PairQNtNtBN_8lifetime8LifetimeQNtNtBN_5token4PlusEE7or_elseNCNvXsg_BL_INtBL_8PairsMutB1n_B1N_ENtNtNtNtB5_4iter6traits8iterator8Iterator4nexts_0ECscdP1gRbl3Ff_20pin_project_internal, symObjAddr: 0xD2C, symBinAddr: 0x29190, symSize: 0xB4 }
  - { offset: 0x5A2AD, size: 0x8, addend: 0x0, symName: __RINvMNtCsfvfooZQ3Axs_4core6optionINtB3_6OptionINtNtCse1nGBsou5OW_5alloc5boxed3BoxNtNtCs6IAuOt8vWmF_3syn4attr4MetaEE3mapB1h_NCNvXs8_NtB1l_10punctuatedINtB25_10PunctuatedB1h_NtNtB1l_5token5CommaENtNtNtNtB5_4iter6traits7collect12IntoIterator9into_iters_0ECscdP1gRbl3Ff_20pin_project_internal, symObjAddr: 0xDE0, symBinAddr: 0x29244, symSize: 0x78 }
  - { offset: 0x5A46D, size: 0x8, addend: 0x0, symName: __RINvMNtCsfvfooZQ3Axs_4core6optionINtB3_6OptionNtCs3cP53eQoTwO_11proc_macro24SpanE3mapNtBK_11TokenStreamNCNvNtNtCscdP1gRbl3Ff_20pin_project_internal11pin_project6derive14make_proj_impl0EB1L_, symObjAddr: 0xE58, symBinAddr: 0x292BC, symSize: 0x90 }
  - { offset: 0x5A4D9, size: 0x8, addend: 0x0, symName: __RINvMNtCsfvfooZQ3Axs_4core6optionINtB3_6OptionNtCs3cP53eQoTwO_11proc_macro25IdentE14unwrap_or_elseNCNvMs_NtNtCscdP1gRbl3Ff_20pin_project_internal11pin_project6deriveNtB1F_7Context3news0_0EB1J_, symObjAddr: 0xEE8, symBinAddr: 0x2934C, symSize: 0x78 }
  - { offset: 0x5A53C, size: 0x8, addend: 0x0, symName: __RINvMNtCsfvfooZQ3Axs_4core6optionINtB3_6OptionNtCs3cP53eQoTwO_11proc_macro25IdentE14unwrap_or_elseNCNvMs_NtNtCscdP1gRbl3Ff_20pin_project_internal11pin_project6deriveNtB1F_7Context3news1_0EB1J_, symObjAddr: 0xF60, symBinAddr: 0x293C4, symSize: 0x78 }
  - { offset: 0x5A59F, size: 0x8, addend: 0x0, symName: __RINvMNtCsfvfooZQ3Axs_4core6optionINtB3_6OptionNtCs3cP53eQoTwO_11proc_macro25IdentE14unwrap_or_elseNCNvMs_NtNtCscdP1gRbl3Ff_20pin_project_internal11pin_project6deriveNtB1F_7Context3news_0EB1J_, symObjAddr: 0xFD8, symBinAddr: 0x2943C, symSize: 0x78 }
  - { offset: 0x5A60F, size: 0x8, addend: 0x0, symName: __RINvMNtCsfvfooZQ3Axs_4core6optionINtB3_6OptionNtCs3cP53eQoTwO_11proc_macro25IdentE14unwrap_or_elseNCNvNtNtCscdP1gRbl3Ff_20pin_project_internal11pin_project6derive12visit_fields0EB1G_, symObjAddr: 0x1050, symBinAddr: 0x294B4, symSize: 0x78 }
  - { offset: 0x5A6F4, size: 0x8, addend: 0x0, symName: __RINvMNtCsfvfooZQ3Axs_4core6optionINtB3_6OptionNtNtCs6IAuOt8vWmF_3syn5token2GtE18get_or_insert_withNvYBI_NtNtB5_7default7Default7defaultECscdP1gRbl3Ff_20pin_project_internal, symObjAddr: 0x10C8, symBinAddr: 0x2952C, symSize: 0xF8 }
  - { offset: 0x5A811, size: 0x8, addend: 0x0, symName: __RINvMNtCsfvfooZQ3Axs_4core6optionINtB3_6OptionNtNtCs6IAuOt8vWmF_3syn5token2LtE18get_or_insert_withNvYBI_NtNtB5_7default7Default7defaultECscdP1gRbl3Ff_20pin_project_internal, symObjAddr: 0x11C0, symBinAddr: 0x29624, symSize: 0xF8 }
  - { offset: 0x5A8D1, size: 0x8, addend: 0x0, symName: __RINvMNtCsfvfooZQ3Axs_4core6optionINtB3_6OptionQINtNtCse1nGBsou5OW_5alloc5boxed3BoxNtNtCs6IAuOt8vWmF_3syn2ty4TypeEE3mapQB1i_NvYBJ_INtNtB5_7convert5AsMutB1i_E6as_mutECscdP1gRbl3Ff_20pin_project_internal, symObjAddr: 0x12B8, symBinAddr: 0x2971C, symSize: 0x50 }
  - { offset: 0x5A961, size: 0x8, addend: 0x0, symName: __RINvMNtCsfvfooZQ3Axs_4core6optionINtB3_6OptionQINtNtCse1nGBsou5OW_5alloc5boxed3BoxNtNtCs6IAuOt8vWmF_3syn2ty9BareFnArgEE3mapQB1i_NvYBJ_INtNtB5_7convert5AsMutB1i_E6as_mutECscdP1gRbl3Ff_20pin_project_internal, symObjAddr: 0x1308, symBinAddr: 0x2976C, symSize: 0x50 }
  - { offset: 0x5A9F1, size: 0x8, addend: 0x0, symName: __RINvMNtCsfvfooZQ3Axs_4core6optionINtB3_6OptionQINtNtCse1nGBsou5OW_5alloc5boxed3BoxNtNtCs6IAuOt8vWmF_3syn3pat3PatEE3mapQB1i_NvYBJ_INtNtB5_7convert5AsMutB1i_E6as_mutECscdP1gRbl3Ff_20pin_project_internal, symObjAddr: 0x1358, symBinAddr: 0x297BC, symSize: 0x50 }
  - { offset: 0x5AA81, size: 0x8, addend: 0x0, symName: __RINvMNtCsfvfooZQ3Axs_4core6optionINtB3_6OptionQINtNtCse1nGBsou5OW_5alloc5boxed3BoxNtNtCs6IAuOt8vWmF_3syn3pat8FieldPatEE3mapQB1i_NvYBJ_INtNtB5_7convert5AsMutB1i_E6as_mutECscdP1gRbl3Ff_20pin_project_internal, symObjAddr: 0x13A8, symBinAddr: 0x2980C, symSize: 0x50 }
  - { offset: 0x5AB11, size: 0x8, addend: 0x0, symName: __RINvMNtCsfvfooZQ3Axs_4core6optionINtB3_6OptionQINtNtCse1nGBsou5OW_5alloc5boxed3BoxNtNtCs6IAuOt8vWmF_3syn4data7VariantEE3mapQB1i_NvYBJ_INtNtB5_7convert5AsMutB1i_E6as_mutECscdP1gRbl3Ff_20pin_project_internal, symObjAddr: 0x13F8, symBinAddr: 0x2985C, symSize: 0x50 }
  - { offset: 0x5ABA1, size: 0x8, addend: 0x0, symName: __RINvMNtCsfvfooZQ3Axs_4core6optionINtB3_6OptionQINtNtCse1nGBsou5OW_5alloc5boxed3BoxNtNtCs6IAuOt8vWmF_3syn4expr10FieldValueEE3mapQB1i_NvYBJ_INtNtB5_7convert5AsMutB1i_E6as_mutECscdP1gRbl3Ff_20pin_project_internal, symObjAddr: 0x1448, symBinAddr: 0x298AC, symSize: 0x50 }
  - { offset: 0x5AC31, size: 0x8, addend: 0x0, symName: __RINvMNtCsfvfooZQ3Axs_4core6optionINtB3_6OptionQINtNtCse1nGBsou5OW_5alloc5boxed3BoxNtNtCs6IAuOt8vWmF_3syn4expr4ExprEE3mapQB1i_NvYBJ_INtNtB5_7convert5AsMutB1i_E6as_mutECscdP1gRbl3Ff_20pin_project_internal, symObjAddr: 0x1498, symBinAddr: 0x298FC, symSize: 0x50 }
  - { offset: 0x5ACC1, size: 0x8, addend: 0x0, symName: __RINvMNtCsfvfooZQ3Axs_4core6optionINtB3_6OptionQINtNtCse1nGBsou5OW_5alloc5boxed3BoxNtNtCs6IAuOt8vWmF_3syn4item5FnArgEE3mapQB1i_NvYBJ_INtNtB5_7convert5AsMutB1i_E6as_mutECscdP1gRbl3Ff_20pin_project_internal, symObjAddr: 0x14E8, symBinAddr: 0x2994C, symSize: 0x50 }
  - { offset: 0x5AD51, size: 0x8, addend: 0x0, symName: __RINvMNtCsfvfooZQ3Axs_4core6optionINtB3_6OptionQINtNtCse1nGBsou5OW_5alloc5boxed3BoxNtNtCs6IAuOt8vWmF_3syn4item7UseTreeEE3mapQB1i_NvYBJ_INtNtB5_7convert5AsMutB1i_E6as_mutECscdP1gRbl3Ff_20pin_project_internal, symObjAddr: 0x1538, symBinAddr: 0x2999C, symSize: 0x50 }
  - { offset: 0x5ADE1, size: 0x8, addend: 0x0, symName: __RINvMNtCsfvfooZQ3Axs_4core6optionINtB3_6OptionQINtNtCse1nGBsou5OW_5alloc5boxed3BoxNtNtCs6IAuOt8vWmF_3syn4path15GenericArgumentEE3mapQB1i_NvYBJ_INtNtB5_7convert5AsMutB1i_E6as_mutECscdP1gRbl3Ff_20pin_project_internal, symObjAddr: 0x1588, symBinAddr: 0x299EC, symSize: 0x50 }
  - { offset: 0x5AE71, size: 0x8, addend: 0x0, symName: __RINvMNtCsfvfooZQ3Axs_4core6optionINtB3_6OptionQINtNtCse1nGBsou5OW_5alloc5boxed3BoxNtNtCs6IAuOt8vWmF_3syn8generics13CapturedParamEE3mapQB1i_NvYBJ_INtNtB5_7convert5AsMutB1i_E6as_mutECscdP1gRbl3Ff_20pin_project_internal, symObjAddr: 0x15D8, symBinAddr: 0x29A3C, symSize: 0x50 }
  - { offset: 0x5AF01, size: 0x8, addend: 0x0, symName: __RINvMNtCsfvfooZQ3Axs_4core6optionINtB3_6OptionQINtNtCse1nGBsou5OW_5alloc5boxed3BoxNtNtCs6IAuOt8vWmF_3syn8generics14TypeParamBoundEE3mapQB1i_NvYBJ_INtNtB5_7convert5AsMutB1i_E6as_mutECscdP1gRbl3Ff_20pin_project_internal, symObjAddr: 0x1628, symBinAddr: 0x29A8C, symSize: 0x50 }
  - { offset: 0x5AF91, size: 0x8, addend: 0x0, symName: __RINvMNtCsfvfooZQ3Axs_4core6optionINtB3_6OptionQINtNtCse1nGBsou5OW_5alloc5boxed3BoxNtNtCs6IAuOt8vWmF_3syn8generics14WherePredicateEE3mapQB1i_NvYBJ_INtNtB5_7convert5AsMutB1i_E6as_mutECscdP1gRbl3Ff_20pin_project_internal, symObjAddr: 0x1678, symBinAddr: 0x29ADC, symSize: 0x50 }
  - { offset: 0x5B021, size: 0x8, addend: 0x0, symName: __RINvMNtCsfvfooZQ3Axs_4core6optionINtB3_6OptionQINtNtCse1nGBsou5OW_5alloc5boxed3BoxNtNtCs6IAuOt8vWmF_3syn8lifetime8LifetimeEE3mapQB1i_NvYBJ_INtNtB5_7convert5AsMutB1i_E6as_mutECscdP1gRbl3Ff_20pin_project_internal, symObjAddr: 0x16C8, symBinAddr: 0x29B2C, symSize: 0x50 }
  - { offset: 0x5B0A4, size: 0x8, addend: 0x0, symName: __RINvMNtCsfvfooZQ3Axs_4core6optionINtB3_6OptionQNtNtCs6IAuOt8vWmF_3syn2ty4TypeE3mapINtNtBN_10punctuated4PairBI_QNtNtBN_5token5CommaENcNtB1i_3End0ECscdP1gRbl3Ff_20pin_project_internal, symObjAddr: 0x1718, symBinAddr: 0x29B7C, symSize: 0x68 }
  - { offset: 0x5B127, size: 0x8, addend: 0x0, symName: __RINvMNtCsfvfooZQ3Axs_4core6optionINtB3_6OptionQNtNtCs6IAuOt8vWmF_3syn2ty9BareFnArgE3mapINtNtBN_10punctuated4PairBI_QNtNtBN_5token5CommaENcNtB1n_3End0ECscdP1gRbl3Ff_20pin_project_internal, symObjAddr: 0x1780, symBinAddr: 0x29BE4, symSize: 0x68 }
  - { offset: 0x5B1AA, size: 0x8, addend: 0x0, symName: __RINvMNtCsfvfooZQ3Axs_4core6optionINtB3_6OptionQNtNtCs6IAuOt8vWmF_3syn3pat3PatE3mapINtNtBN_10punctuated4PairBI_QNtNtBN_5token2OrENcNtB1i_3End0ECscdP1gRbl3Ff_20pin_project_internal, symObjAddr: 0x17E8, symBinAddr: 0x29C4C, symSize: 0x68 }
  - { offset: 0x5B22D, size: 0x8, addend: 0x0, symName: __RINvMNtCsfvfooZQ3Axs_4core6optionINtB3_6OptionQNtNtCs6IAuOt8vWmF_3syn3pat3PatE3mapINtNtBN_10punctuated4PairBI_QNtNtBN_5token5CommaENcNtB1i_3End0ECscdP1gRbl3Ff_20pin_project_internal, symObjAddr: 0x1850, symBinAddr: 0x29CB4, symSize: 0x68 }
  - { offset: 0x5B2B0, size: 0x8, addend: 0x0, symName: __RINvMNtCsfvfooZQ3Axs_4core6optionINtB3_6OptionQNtNtCs6IAuOt8vWmF_3syn3pat8FieldPatE3mapINtNtBN_10punctuated4PairBI_QNtNtBN_5token5CommaENcNtB1n_3End0ECscdP1gRbl3Ff_20pin_project_internal, symObjAddr: 0x18B8, symBinAddr: 0x29D1C, symSize: 0x68 }
  - { offset: 0x5B333, size: 0x8, addend: 0x0, symName: __RINvMNtCsfvfooZQ3Axs_4core6optionINtB3_6OptionQNtNtCs6IAuOt8vWmF_3syn4data5FieldE3mapINtNtBN_10punctuated4PairBI_QNtNtBN_5token5CommaENcNtB1l_3End0ECscdP1gRbl3Ff_20pin_project_internal, symObjAddr: 0x1920, symBinAddr: 0x29D84, symSize: 0x68 }
  - { offset: 0x5B3B6, size: 0x8, addend: 0x0, symName: __RINvMNtCsfvfooZQ3Axs_4core6optionINtB3_6OptionQNtNtCs6IAuOt8vWmF_3syn4data7VariantE3mapINtNtBN_10punctuated4PairBI_QNtNtBN_5token5CommaENcNtB1n_3End0ECscdP1gRbl3Ff_20pin_project_internal, symObjAddr: 0x1988, symBinAddr: 0x29DEC, symSize: 0x68 }
  - { offset: 0x5B439, size: 0x8, addend: 0x0, symName: __RINvMNtCsfvfooZQ3Axs_4core6optionINtB3_6OptionQNtNtCs6IAuOt8vWmF_3syn4expr10FieldValueE3mapINtNtBN_10punctuated4PairBI_QNtNtBN_5token5CommaENcNtB1r_3End0ECscdP1gRbl3Ff_20pin_project_internal, symObjAddr: 0x19F0, symBinAddr: 0x29E54, symSize: 0x68 }
  - { offset: 0x5B4BC, size: 0x8, addend: 0x0, symName: __RINvMNtCsfvfooZQ3Axs_4core6optionINtB3_6OptionQNtNtCs6IAuOt8vWmF_3syn4expr4ExprE3mapINtNtBN_10punctuated4PairBI_QNtNtBN_5token5CommaENcNtB1k_3End0ECscdP1gRbl3Ff_20pin_project_internal, symObjAddr: 0x1A58, symBinAddr: 0x29EBC, symSize: 0x68 }
  - { offset: 0x5B53F, size: 0x8, addend: 0x0, symName: __RINvMNtCsfvfooZQ3Axs_4core6optionINtB3_6OptionQNtNtCs6IAuOt8vWmF_3syn4item5FnArgE3mapINtNtBN_10punctuated4PairBI_QNtNtBN_5token5CommaENcNtB1l_3End0ECscdP1gRbl3Ff_20pin_project_internal, symObjAddr: 0x1AC0, symBinAddr: 0x29F24, symSize: 0x68 }
  - { offset: 0x5B5C2, size: 0x8, addend: 0x0, symName: __RINvMNtCsfvfooZQ3Axs_4core6optionINtB3_6OptionQNtNtCs6IAuOt8vWmF_3syn4item7UseTreeE3mapINtNtBN_10punctuated4PairBI_QNtNtBN_5token5CommaENcNtB1n_3End0ECscdP1gRbl3Ff_20pin_project_internal, symObjAddr: 0x1B28, symBinAddr: 0x29F8C, symSize: 0x68 }
  - { offset: 0x5B645, size: 0x8, addend: 0x0, symName: __RINvMNtCsfvfooZQ3Axs_4core6optionINtB3_6OptionQNtNtCs6IAuOt8vWmF_3syn4path11PathSegmentE3mapINtNtBN_10punctuated4PairBI_QNtNtBN_5token7PathSepENcNtB1s_3End0ECscdP1gRbl3Ff_20pin_project_internal, symObjAddr: 0x1B90, symBinAddr: 0x29FF4, symSize: 0x68 }
  - { offset: 0x5B6C8, size: 0x8, addend: 0x0, symName: __RINvMNtCsfvfooZQ3Axs_4core6optionINtB3_6OptionQNtNtCs6IAuOt8vWmF_3syn4path15GenericArgumentE3mapINtNtBN_10punctuated4PairBI_QNtNtBN_5token5CommaENcNtB1w_3End0ECscdP1gRbl3Ff_20pin_project_internal, symObjAddr: 0x1BF8, symBinAddr: 0x2A05C, symSize: 0x68 }
  - { offset: 0x5B74B, size: 0x8, addend: 0x0, symName: __RINvMNtCsfvfooZQ3Axs_4core6optionINtB3_6OptionQNtNtCs6IAuOt8vWmF_3syn8generics12GenericParamE3mapINtNtBN_10punctuated4PairBI_QNtNtBN_5token5CommaENcNtB1x_3End0ECscdP1gRbl3Ff_20pin_project_internal, symObjAddr: 0x1C60, symBinAddr: 0x2A0C4, symSize: 0x68 }
  - { offset: 0x5B7CE, size: 0x8, addend: 0x0, symName: __RINvMNtCsfvfooZQ3Axs_4core6optionINtB3_6OptionQNtNtCs6IAuOt8vWmF_3syn8generics13CapturedParamE3mapINtNtBN_10punctuated4PairBI_QNtNtBN_5token5CommaENcNtB1y_3End0ECscdP1gRbl3Ff_20pin_project_internal, symObjAddr: 0x1CC8, symBinAddr: 0x2A12C, symSize: 0x68 }
  - { offset: 0x5B851, size: 0x8, addend: 0x0, symName: __RINvMNtCsfvfooZQ3Axs_4core6optionINtB3_6OptionQNtNtCs6IAuOt8vWmF_3syn8generics14TypeParamBoundE3mapINtNtBN_10punctuated4PairBI_QNtNtBN_5token4PlusENcNtB1z_3End0ECscdP1gRbl3Ff_20pin_project_internal, symObjAddr: 0x1D30, symBinAddr: 0x2A194, symSize: 0x68 }
  - { offset: 0x5B8D4, size: 0x8, addend: 0x0, symName: __RINvMNtCsfvfooZQ3Axs_4core6optionINtB3_6OptionQNtNtCs6IAuOt8vWmF_3syn8generics14WherePredicateE3mapINtNtBN_10punctuated4PairBI_QNtNtBN_5token5CommaENcNtB1z_3End0ECscdP1gRbl3Ff_20pin_project_internal, symObjAddr: 0x1D98, symBinAddr: 0x2A1FC, symSize: 0x68 }
  - { offset: 0x5B957, size: 0x8, addend: 0x0, symName: __RINvMNtCsfvfooZQ3Axs_4core6optionINtB3_6OptionQNtNtCs6IAuOt8vWmF_3syn8lifetime8LifetimeE3mapINtNtBN_10punctuated4PairBI_QNtNtBN_5token4PlusENcNtB1s_3End0ECscdP1gRbl3Ff_20pin_project_internal, symObjAddr: 0x1E00, symBinAddr: 0x2A264, symSize: 0x68 }
  - { offset: 0x5B9CF, size: 0x8, addend: 0x0, symName: __RINvMNtCsfvfooZQ3Axs_4core6optionINtB3_6OptionQTNtNtCs6IAuOt8vWmF_3syn2ty4TypeNtNtBO_5token5CommaEE3mapINtNtBO_10punctuated4PairQBK_QB1e_ENCNvXsg_B1G_INtB1G_8PairsMutBK_B1e_ENtNtNtNtB5_4iter6traits8iterator8Iterator4next0ECscdP1gRbl3Ff_20pin_project_internal, symObjAddr: 0x1E68, symBinAddr: 0x2A2CC, symSize: 0x68 }
  - { offset: 0x5BA47, size: 0x8, addend: 0x0, symName: __RINvMNtCsfvfooZQ3Axs_4core6optionINtB3_6OptionQTNtNtCs6IAuOt8vWmF_3syn2ty9BareFnArgNtNtBO_5token5CommaEE3mapINtNtBO_10punctuated4PairQBK_QB1j_ENCNvXsg_B1L_INtB1L_8PairsMutBK_B1j_ENtNtNtNtB5_4iter6traits8iterator8Iterator4next0ECscdP1gRbl3Ff_20pin_project_internal, symObjAddr: 0x1ED0, symBinAddr: 0x2A334, symSize: 0x68 }
  - { offset: 0x5BABF, size: 0x8, addend: 0x0, symName: __RINvMNtCsfvfooZQ3Axs_4core6optionINtB3_6OptionQTNtNtCs6IAuOt8vWmF_3syn3pat3PatNtNtBO_5token2OrEE3mapINtNtBO_10punctuated4PairQBK_QB1e_ENCNvXsg_B1D_INtB1D_8PairsMutBK_B1e_ENtNtNtNtB5_4iter6traits8iterator8Iterator4next0ECscdP1gRbl3Ff_20pin_project_internal, symObjAddr: 0x1F38, symBinAddr: 0x2A39C, symSize: 0x68 }
  - { offset: 0x5BB37, size: 0x8, addend: 0x0, symName: __RINvMNtCsfvfooZQ3Axs_4core6optionINtB3_6OptionQTNtNtCs6IAuOt8vWmF_3syn3pat3PatNtNtBO_5token5CommaEE3mapINtNtBO_10punctuated4PairQBK_QB1e_ENCNvXsg_B1G_INtB1G_8PairsMutBK_B1e_ENtNtNtNtB5_4iter6traits8iterator8Iterator4next0ECscdP1gRbl3Ff_20pin_project_internal, symObjAddr: 0x1FA0, symBinAddr: 0x2A404, symSize: 0x68 }
  - { offset: 0x5BBAF, size: 0x8, addend: 0x0, symName: __RINvMNtCsfvfooZQ3Axs_4core6optionINtB3_6OptionQTNtNtCs6IAuOt8vWmF_3syn3pat8FieldPatNtNtBO_5token5CommaEE3mapINtNtBO_10punctuated4PairQBK_QB1j_ENCNvXsg_B1L_INtB1L_8PairsMutBK_B1j_ENtNtNtNtB5_4iter6traits8iterator8Iterator4next0ECscdP1gRbl3Ff_20pin_project_internal, symObjAddr: 0x2008, symBinAddr: 0x2A46C, symSize: 0x68 }
  - { offset: 0x5BC27, size: 0x8, addend: 0x0, symName: __RINvMNtCsfvfooZQ3Axs_4core6optionINtB3_6OptionQTNtNtCs6IAuOt8vWmF_3syn4data5FieldNtNtBO_5token5CommaEE3mapINtNtBO_10punctuated4PairQBK_QB1h_ENCNvXsg_B1J_INtB1J_8PairsMutBK_B1h_ENtNtNtNtB5_4iter6traits8iterator8Iterator4next0ECscdP1gRbl3Ff_20pin_project_internal, symObjAddr: 0x2070, symBinAddr: 0x2A4D4, symSize: 0x68 }
  - { offset: 0x5BC9F, size: 0x8, addend: 0x0, symName: __RINvMNtCsfvfooZQ3Axs_4core6optionINtB3_6OptionQTNtNtCs6IAuOt8vWmF_3syn4data7VariantNtNtBO_5token5CommaEE3mapINtNtBO_10punctuated4PairQBK_QB1j_ENCNvXsg_B1L_INtB1L_8PairsMutBK_B1j_ENtNtNtNtB5_4iter6traits8iterator8Iterator4next0ECscdP1gRbl3Ff_20pin_project_internal, symObjAddr: 0x20D8, symBinAddr: 0x2A53C, symSize: 0x68 }
  - { offset: 0x5BD17, size: 0x8, addend: 0x0, symName: __RINvMNtCsfvfooZQ3Axs_4core6optionINtB3_6OptionQTNtNtCs6IAuOt8vWmF_3syn4expr10FieldValueNtNtBO_5token5CommaEE3mapINtNtBO_10punctuated4PairQBK_QB1n_ENCNvXsg_B1P_INtB1P_8PairsMutBK_B1n_ENtNtNtNtB5_4iter6traits8iterator8Iterator4next0ECscdP1gRbl3Ff_20pin_project_internal, symObjAddr: 0x2140, symBinAddr: 0x2A5A4, symSize: 0x68 }
  - { offset: 0x5BD8F, size: 0x8, addend: 0x0, symName: __RINvMNtCsfvfooZQ3Axs_4core6optionINtB3_6OptionQTNtNtCs6IAuOt8vWmF_3syn4expr4ExprNtNtBO_5token5CommaEE3mapINtNtBO_10punctuated4PairQBK_QB1g_ENCNvXsg_B1I_INtB1I_8PairsMutBK_B1g_ENtNtNtNtB5_4iter6traits8iterator8Iterator4next0ECscdP1gRbl3Ff_20pin_project_internal, symObjAddr: 0x21A8, symBinAddr: 0x2A60C, symSize: 0x68 }
  - { offset: 0x5BE07, size: 0x8, addend: 0x0, symName: __RINvMNtCsfvfooZQ3Axs_4core6optionINtB3_6OptionQTNtNtCs6IAuOt8vWmF_3syn4item5FnArgNtNtBO_5token5CommaEE3mapINtNtBO_10punctuated4PairQBK_QB1h_ENCNvXsg_B1J_INtB1J_8PairsMutBK_B1h_ENtNtNtNtB5_4iter6traits8iterator8Iterator4next0ECscdP1gRbl3Ff_20pin_project_internal, symObjAddr: 0x2210, symBinAddr: 0x2A674, symSize: 0x68 }
  - { offset: 0x5BE7F, size: 0x8, addend: 0x0, symName: __RINvMNtCsfvfooZQ3Axs_4core6optionINtB3_6OptionQTNtNtCs6IAuOt8vWmF_3syn4item7UseTreeNtNtBO_5token5CommaEE3mapINtNtBO_10punctuated4PairQBK_QB1j_ENCNvXsg_B1L_INtB1L_8PairsMutBK_B1j_ENtNtNtNtB5_4iter6traits8iterator8Iterator4next0ECscdP1gRbl3Ff_20pin_project_internal, symObjAddr: 0x2278, symBinAddr: 0x2A6DC, symSize: 0x68 }
  - { offset: 0x5BEF7, size: 0x8, addend: 0x0, symName: __RINvMNtCsfvfooZQ3Axs_4core6optionINtB3_6OptionQTNtNtCs6IAuOt8vWmF_3syn4path11PathSegmentNtNtBO_5token7PathSepEE3mapINtNtBO_10punctuated4PairQBK_QB1o_ENCNvXsg_B1S_INtB1S_8PairsMutBK_B1o_ENtNtNtNtB5_4iter6traits8iterator8Iterator4next0ECscdP1gRbl3Ff_20pin_project_internal, symObjAddr: 0x22E0, symBinAddr: 0x2A744, symSize: 0x68 }
  - { offset: 0x5BF6F, size: 0x8, addend: 0x0, symName: __RINvMNtCsfvfooZQ3Axs_4core6optionINtB3_6OptionQTNtNtCs6IAuOt8vWmF_3syn4path15GenericArgumentNtNtBO_5token5CommaEE3mapINtNtBO_10punctuated4PairQBK_QB1s_ENCNvXsg_B1U_INtB1U_8PairsMutBK_B1s_ENtNtNtNtB5_4iter6traits8iterator8Iterator4next0ECscdP1gRbl3Ff_20pin_project_internal, symObjAddr: 0x2348, symBinAddr: 0x2A7AC, symSize: 0x68 }
  - { offset: 0x5BFE7, size: 0x8, addend: 0x0, symName: __RINvMNtCsfvfooZQ3Axs_4core6optionINtB3_6OptionQTNtNtCs6IAuOt8vWmF_3syn8generics12GenericParamNtNtBO_5token5CommaEE3mapINtNtBO_10punctuated4PairQBK_QB1t_ENCNvXsg_B1V_INtB1V_8PairsMutBK_B1t_ENtNtNtNtB5_4iter6traits8iterator8Iterator4next0ECscdP1gRbl3Ff_20pin_project_internal, symObjAddr: 0x23B0, symBinAddr: 0x2A814, symSize: 0x68 }
  - { offset: 0x5C05F, size: 0x8, addend: 0x0, symName: __RINvMNtCsfvfooZQ3Axs_4core6optionINtB3_6OptionQTNtNtCs6IAuOt8vWmF_3syn8generics13CapturedParamNtNtBO_5token5CommaEE3mapINtNtBO_10punctuated4PairQBK_QB1u_ENCNvXsg_B1W_INtB1W_8PairsMutBK_B1u_ENtNtNtNtB5_4iter6traits8iterator8Iterator4next0ECscdP1gRbl3Ff_20pin_project_internal, symObjAddr: 0x2418, symBinAddr: 0x2A87C, symSize: 0x68 }
  - { offset: 0x5C0D7, size: 0x8, addend: 0x0, symName: __RINvMNtCsfvfooZQ3Axs_4core6optionINtB3_6OptionQTNtNtCs6IAuOt8vWmF_3syn8generics14TypeParamBoundNtNtBO_5token4PlusEE3mapINtNtBO_10punctuated4PairQBK_QB1v_ENCNvXsg_B1W_INtB1W_8PairsMutBK_B1v_ENtNtNtNtB5_4iter6traits8iterator8Iterator4next0ECscdP1gRbl3Ff_20pin_project_internal, symObjAddr: 0x2480, symBinAddr: 0x2A8E4, symSize: 0x68 }
  - { offset: 0x5C14F, size: 0x8, addend: 0x0, symName: __RINvMNtCsfvfooZQ3Axs_4core6optionINtB3_6OptionQTNtNtCs6IAuOt8vWmF_3syn8generics14WherePredicateNtNtBO_5token5CommaEE3mapINtNtBO_10punctuated4PairQBK_QB1v_ENCNvXsg_B1X_INtB1X_8PairsMutBK_B1v_ENtNtNtNtB5_4iter6traits8iterator8Iterator4next0ECscdP1gRbl3Ff_20pin_project_internal, symObjAddr: 0x24E8, symBinAddr: 0x2A94C, symSize: 0x68 }
  - { offset: 0x5C1C7, size: 0x8, addend: 0x0, symName: __RINvMNtCsfvfooZQ3Axs_4core6optionINtB3_6OptionQTNtNtCs6IAuOt8vWmF_3syn8lifetime8LifetimeNtNtBO_5token4PlusEE3mapINtNtBO_10punctuated4PairQBK_QB1o_ENCNvXsg_B1P_INtB1P_8PairsMutBK_B1o_ENtNtNtNtB5_4iter6traits8iterator8Iterator4next0ECscdP1gRbl3Ff_20pin_project_internal, symObjAddr: 0x2550, symBinAddr: 0x2A9B4, symSize: 0x68 }
  - { offset: 0x5C24C, size: 0x8, addend: 0x0, symName: __RINvMNtCsfvfooZQ3Axs_4core6optionINtB3_6OptionRNtNtCs6IAuOt8vWmF_3syn4data7VariantE7or_elseNCNvXsw_NtBN_10punctuatedINtB1z_11PrivateIterBJ_NtNtBN_5token5CommaENtNtNtNtB5_4iter6traits8iterator8Iterator4nexts_0ECscdP1gRbl3Ff_20pin_project_internal, symObjAddr: 0x25B8, symBinAddr: 0x2AA1C, symSize: 0xA8 }
  - { offset: 0x5C2D5, size: 0x8, addend: 0x0, symName: __RINvMNtCsfvfooZQ3Axs_4core6optionINtB3_6OptionRNtNtCs6IAuOt8vWmF_3syn4data7VariantE7or_elseNCNvXsx_NtBN_10punctuatedINtB1z_11PrivateIterBJ_NtNtBN_5token5CommaENtNtNtNtB5_4iter6traits12double_ended19DoubleEndedIterator9next_back0ECscdP1gRbl3Ff_20pin_project_internal, symObjAddr: 0x2660, symBinAddr: 0x2AAC4, symSize: 0xA8 }
  - { offset: 0x5C351, size: 0x8, addend: 0x0, symName: __RINvMNtCsfvfooZQ3Axs_4core6optionINtB3_6OptionRNtNtCs6IAuOt8vWmF_3syn4path15GenericArgumentE7or_elseNCNvXsw_NtBN_10punctuatedINtB1I_11PrivateIterBJ_NtNtBN_5token5CommaENtNtNtNtB5_4iter6traits8iterator8Iterator4nexts_0ECscdP1gRbl3Ff_20pin_project_internal, symObjAddr: 0x2708, symBinAddr: 0x2AB6C, symSize: 0xA8 }
  - { offset: 0x5C3DA, size: 0x8, addend: 0x0, symName: __RINvMNtCsfvfooZQ3Axs_4core6optionINtB3_6OptionRNtNtCs6IAuOt8vWmF_3syn4path15GenericArgumentE7or_elseNCNvXsx_NtBN_10punctuatedINtB1I_11PrivateIterBJ_NtNtBN_5token5CommaENtNtNtNtB5_4iter6traits12double_ended19DoubleEndedIterator9next_back0ECscdP1gRbl3Ff_20pin_project_internal, symObjAddr: 0x27B0, symBinAddr: 0x2AC14, symSize: 0xA8 }
  - { offset: 0x5C449, size: 0x8, addend: 0x0, symName: __RINvMNtCsfvfooZQ3Axs_4core6optionINtB3_6OptionRNtNtCs6IAuOt8vWmF_3syn4path4PathE6map_orbNCNvNtCscdP1gRbl3Ff_20pin_project_internal11pinned_drop12validate_sig0EB1u_, symObjAddr: 0x2858, symBinAddr: 0x2ACBC, symSize: 0xAC }
  - { offset: 0x5C4BB, size: 0x8, addend: 0x0, symName: __RINvMNtCsfvfooZQ3Axs_4core6optionINtB3_6OptionRTNtNtCs6IAuOt8vWmF_3syn4data7VariantNtNtBO_5token5CommaEE3mapRBK_NCNCNvXsx_NtBO_10punctuatedINtB1W_11PrivateIterBK_B1j_ENtNtNtNtB5_4iter6traits12double_ended19DoubleEndedIterator9next_back00ECscdP1gRbl3Ff_20pin_project_internal, symObjAddr: 0x2904, symBinAddr: 0x2AD68, symSize: 0x50 }
  - { offset: 0x5C526, size: 0x8, addend: 0x0, symName: __RINvMNtCsfvfooZQ3Axs_4core6optionINtB3_6OptionRTNtNtCs6IAuOt8vWmF_3syn4data7VariantNtNtBO_5token5CommaEE3mapRBK_NCNvXsw_NtBO_10punctuatedINtB1U_11PrivateIterBK_B1j_ENtNtNtNtB5_4iter6traits8iterator8Iterator4next0ECscdP1gRbl3Ff_20pin_project_internal, symObjAddr: 0x2954, symBinAddr: 0x2ADB8, symSize: 0x50 }
  - { offset: 0x5C591, size: 0x8, addend: 0x0, symName: __RINvMNtCsfvfooZQ3Axs_4core6optionINtB3_6OptionRTNtNtCs6IAuOt8vWmF_3syn4path15GenericArgumentNtNtBO_5token5CommaEE3mapRBK_NCNCNvXsx_NtBO_10punctuatedINtB25_11PrivateIterBK_B1s_ENtNtNtNtB5_4iter6traits12double_ended19DoubleEndedIterator9next_back00ECscdP1gRbl3Ff_20pin_project_internal, symObjAddr: 0x29A4, symBinAddr: 0x2AE08, symSize: 0x50 }
  - { offset: 0x5C5FC, size: 0x8, addend: 0x0, symName: __RINvMNtCsfvfooZQ3Axs_4core6optionINtB3_6OptionRTNtNtCs6IAuOt8vWmF_3syn4path15GenericArgumentNtNtBO_5token5CommaEE3mapRBK_NCNvXsw_NtBO_10punctuatedINtB23_11PrivateIterBK_B1s_ENtNtNtNtB5_4iter6traits8iterator8Iterator4next0ECscdP1gRbl3Ff_20pin_project_internal, symObjAddr: 0x29F4, symBinAddr: 0x2AE58, symSize: 0x50 }
  - { offset: 0x5C69B, size: 0x8, addend: 0x0, symName: __RINvMNtCsfvfooZQ3Axs_4core6optionINtB3_6OptionjE3mapRNtNtCs6IAuOt8vWmF_3syn4attr9AttributeNCNvXNtCscdP1gRbl3Ff_20pin_project_internal5utilsSBP_NtB1v_8SliceExt4finds_0EB1x_, symObjAddr: 0x2A44, symBinAddr: 0x2AEA8, symSize: 0x64 }
  - { offset: 0x5C72D, size: 0x8, addend: 0x0, symName: __RNvMNtCsfvfooZQ3Axs_4core6optionINtB2_6OptionINtNtCse1nGBsou5OW_5alloc5boxed3BoxNtNtCs6IAuOt8vWmF_3syn2ty4TypeEE6as_mutCscdP1gRbl3Ff_20pin_project_internal, symObjAddr: 0x2C48, symBinAddr: 0x2B0AC, symSize: 0x4C }
  - { offset: 0x5C784, size: 0x8, addend: 0x0, symName: __RNvMNtCsfvfooZQ3Axs_4core6optionINtB2_6OptionINtNtCse1nGBsou5OW_5alloc5boxed3BoxNtNtCs6IAuOt8vWmF_3syn2ty9BareFnArgEE6as_mutCscdP1gRbl3Ff_20pin_project_internal, symObjAddr: 0x2C94, symBinAddr: 0x2B0F8, symSize: 0x4C }
  - { offset: 0x5C7DB, size: 0x8, addend: 0x0, symName: __RNvMNtCsfvfooZQ3Axs_4core6optionINtB2_6OptionINtNtCse1nGBsou5OW_5alloc5boxed3BoxNtNtCs6IAuOt8vWmF_3syn3pat3PatEE6as_mutCscdP1gRbl3Ff_20pin_project_internal, symObjAddr: 0x2CE0, symBinAddr: 0x2B144, symSize: 0x4C }
  - { offset: 0x5C832, size: 0x8, addend: 0x0, symName: __RNvMNtCsfvfooZQ3Axs_4core6optionINtB2_6OptionINtNtCse1nGBsou5OW_5alloc5boxed3BoxNtNtCs6IAuOt8vWmF_3syn3pat8FieldPatEE6as_mutCscdP1gRbl3Ff_20pin_project_internal, symObjAddr: 0x2D2C, symBinAddr: 0x2B190, symSize: 0x4C }
  - { offset: 0x5C889, size: 0x8, addend: 0x0, symName: __RNvMNtCsfvfooZQ3Axs_4core6optionINtB2_6OptionINtNtCse1nGBsou5OW_5alloc5boxed3BoxNtNtCs6IAuOt8vWmF_3syn4attr4MetaEE4takeCscdP1gRbl3Ff_20pin_project_internal, symObjAddr: 0x2D78, symBinAddr: 0x2B1DC, symSize: 0x28 }
  - { offset: 0x5C938, size: 0x8, addend: 0x0, symName: __RNvMNtCsfvfooZQ3Axs_4core6optionINtB2_6OptionINtNtCse1nGBsou5OW_5alloc5boxed3BoxNtNtCs6IAuOt8vWmF_3syn4attr4MetaEE7is_noneCscdP1gRbl3Ff_20pin_project_internal, symObjAddr: 0x2DA0, symBinAddr: 0x2B204, symSize: 0x28 }
  - { offset: 0x5C982, size: 0x8, addend: 0x0, symName: __RNvMNtCsfvfooZQ3Axs_4core6optionINtB2_6OptionINtNtCse1nGBsou5OW_5alloc5boxed3BoxNtNtCs6IAuOt8vWmF_3syn4attr4MetaEE7is_someCscdP1gRbl3Ff_20pin_project_internal, symObjAddr: 0x2DC8, symBinAddr: 0x2B22C, symSize: 0x28 }
  - { offset: 0x5C9BB, size: 0x8, addend: 0x0, symName: __RNvMNtCsfvfooZQ3Axs_4core6optionINtB2_6OptionINtNtCse1nGBsou5OW_5alloc5boxed3BoxNtNtCs6IAuOt8vWmF_3syn4data7VariantEE6as_mutCscdP1gRbl3Ff_20pin_project_internal, symObjAddr: 0x2DF0, symBinAddr: 0x2B254, symSize: 0x4C }
  - { offset: 0x5CA12, size: 0x8, addend: 0x0, symName: __RNvMNtCsfvfooZQ3Axs_4core6optionINtB2_6OptionINtNtCse1nGBsou5OW_5alloc5boxed3BoxNtNtCs6IAuOt8vWmF_3syn4expr10FieldValueEE6as_mutCscdP1gRbl3Ff_20pin_project_internal, symObjAddr: 0x2E3C, symBinAddr: 0x2B2A0, symSize: 0x4C }
  - { offset: 0x5CA69, size: 0x8, addend: 0x0, symName: __RNvMNtCsfvfooZQ3Axs_4core6optionINtB2_6OptionINtNtCse1nGBsou5OW_5alloc5boxed3BoxNtNtCs6IAuOt8vWmF_3syn4expr4ExprEE6as_mutCscdP1gRbl3Ff_20pin_project_internal, symObjAddr: 0x2E88, symBinAddr: 0x2B2EC, symSize: 0x4C }
  - { offset: 0x5CAC0, size: 0x8, addend: 0x0, symName: __RNvMNtCsfvfooZQ3Axs_4core6optionINtB2_6OptionINtNtCse1nGBsou5OW_5alloc5boxed3BoxNtNtCs6IAuOt8vWmF_3syn4item5FnArgEE6as_mutCscdP1gRbl3Ff_20pin_project_internal, symObjAddr: 0x2ED4, symBinAddr: 0x2B338, symSize: 0x4C }
  - { offset: 0x5CB17, size: 0x8, addend: 0x0, symName: __RNvMNtCsfvfooZQ3Axs_4core6optionINtB2_6OptionINtNtCse1nGBsou5OW_5alloc5boxed3BoxNtNtCs6IAuOt8vWmF_3syn4item7UseTreeEE6as_mutCscdP1gRbl3Ff_20pin_project_internal, symObjAddr: 0x2F20, symBinAddr: 0x2B384, symSize: 0x4C }
  - { offset: 0x5CB6E, size: 0x8, addend: 0x0, symName: __RNvMNtCsfvfooZQ3Axs_4core6optionINtB2_6OptionINtNtCse1nGBsou5OW_5alloc5boxed3BoxNtNtCs6IAuOt8vWmF_3syn4path15GenericArgumentEE6as_mutCscdP1gRbl3Ff_20pin_project_internal, symObjAddr: 0x2F6C, symBinAddr: 0x2B3D0, symSize: 0x4C }
  - { offset: 0x5CBC5, size: 0x8, addend: 0x0, symName: __RNvMNtCsfvfooZQ3Axs_4core6optionINtB2_6OptionINtNtCse1nGBsou5OW_5alloc5boxed3BoxNtNtCs6IAuOt8vWmF_3syn8generics13CapturedParamEE6as_mutCscdP1gRbl3Ff_20pin_project_internal, symObjAddr: 0x2FB8, symBinAddr: 0x2B41C, symSize: 0x4C }
  - { offset: 0x5CC1C, size: 0x8, addend: 0x0, symName: __RNvMNtCsfvfooZQ3Axs_4core6optionINtB2_6OptionINtNtCse1nGBsou5OW_5alloc5boxed3BoxNtNtCs6IAuOt8vWmF_3syn8generics14TypeParamBoundEE6as_mutCscdP1gRbl3Ff_20pin_project_internal, symObjAddr: 0x3004, symBinAddr: 0x2B468, symSize: 0x4C }
  - { offset: 0x5CC73, size: 0x8, addend: 0x0, symName: __RNvMNtCsfvfooZQ3Axs_4core6optionINtB2_6OptionINtNtCse1nGBsou5OW_5alloc5boxed3BoxNtNtCs6IAuOt8vWmF_3syn8generics14WherePredicateEE6as_mutCscdP1gRbl3Ff_20pin_project_internal, symObjAddr: 0x3050, symBinAddr: 0x2B4B4, symSize: 0x4C }
  - { offset: 0x5CCCA, size: 0x8, addend: 0x0, symName: __RNvMNtCsfvfooZQ3Axs_4core6optionINtB2_6OptionINtNtCse1nGBsou5OW_5alloc5boxed3BoxNtNtCs6IAuOt8vWmF_3syn8lifetime8LifetimeEE6as_mutCscdP1gRbl3Ff_20pin_project_internal, symObjAddr: 0x309C, symBinAddr: 0x2B500, symSize: 0x4C }
  - { offset: 0x5CD14, size: 0x8, addend: 0x0, symName: __RNvMNtCsfvfooZQ3Axs_4core6optionINtB2_6OptionNtCs3cP53eQoTwO_11proc_macro24SpanE2orCscdP1gRbl3Ff_20pin_project_internal, symObjAddr: 0x30E8, symBinAddr: 0x2B54C, symSize: 0x80 }
  - { offset: 0x5CD7A, size: 0x8, addend: 0x0, symName: __RNvMNtCsfvfooZQ3Axs_4core6optionINtB2_6OptionNtCs3cP53eQoTwO_11proc_macro24SpanE7is_someCscdP1gRbl3Ff_20pin_project_internal, symObjAddr: 0x3168, symBinAddr: 0x2B5CC, symSize: 0x20 }
  - { offset: 0x5CDB3, size: 0x8, addend: 0x0, symName: __RNvMNtCsfvfooZQ3Axs_4core6optionINtB2_6OptionNtCs3cP53eQoTwO_11proc_macro24SpanE7replaceCscdP1gRbl3Ff_20pin_project_internal, symObjAddr: 0x3188, symBinAddr: 0x2B5EC, symSize: 0x40 }
  - { offset: 0x5CE55, size: 0x8, addend: 0x0, symName: __RNvMNtCsfvfooZQ3Axs_4core6optionINtB2_6OptionNtCs3cP53eQoTwO_11proc_macro25IdentE6as_refCscdP1gRbl3Ff_20pin_project_internal, symObjAddr: 0x31C8, symBinAddr: 0x2B62C, symSize: 0x4C }
  - { offset: 0x5CE9F, size: 0x8, addend: 0x0, symName: __RNvMNtCsfvfooZQ3Axs_4core6optionINtB2_6OptionNtCs3cP53eQoTwO_11proc_macro25IdentE7is_someCscdP1gRbl3Ff_20pin_project_internal, symObjAddr: 0x3214, symBinAddr: 0x2B678, symSize: 0x28 }
  - { offset: 0x5CED8, size: 0x8, addend: 0x0, symName: __RNvMNtCsfvfooZQ3Axs_4core6optionINtB2_6OptionNtNtCs6IAuOt8vWmF_3syn8generics11WhereClauseE4takeCscdP1gRbl3Ff_20pin_project_internal, symObjAddr: 0x323C, symBinAddr: 0x2B6A0, symSize: 0x60 }
  - { offset: 0x5CF6B, size: 0x8, addend: 0x0, symName: __RNvMNtCsfvfooZQ3Axs_4core6optionINtB2_6OptionQTIBv_NtNtCs6IAuOt8vWmF_3syn5token3NotENtNtBR_4path4PathNtBP_3ForEE6expectCscdP1gRbl3Ff_20pin_project_internal, symObjAddr: 0x329C, symBinAddr: 0x2B700, symSize: 0x5C }
  - { offset: 0x5CFB3, size: 0x8, addend: 0x0, symName: __RNvMNtCsfvfooZQ3Axs_4core6optionINtB2_6OptionRNtCs3cP53eQoTwO_11proc_macro25IdentE6as_refCscdP1gRbl3Ff_20pin_project_internal, symObjAddr: 0x32F8, symBinAddr: 0x2B75C, symSize: 0x4C }
  - { offset: 0x5D019, size: 0x8, addend: 0x0, symName: __RNvMNtCsfvfooZQ3Axs_4core6optionINtB2_6OptionRNtCs3cP53eQoTwO_11proc_macro25IdentE7is_noneCscdP1gRbl3Ff_20pin_project_internal, symObjAddr: 0x3344, symBinAddr: 0x2B7A8, symSize: 0x28 }
  - { offset: 0x5D099, size: 0x8, addend: 0x0, symName: __RNvMNtCsfvfooZQ3Axs_4core6optionINtB2_6OptionRNtNtCs6IAuOt8vWmF_3syn4data6FieldsE7is_noneCscdP1gRbl3Ff_20pin_project_internal, symObjAddr: 0x336C, symBinAddr: 0x2B7D0, symSize: 0x28 }
  - { offset: 0x5D0F0, size: 0x8, addend: 0x0, symName: __RNvMNtCsfvfooZQ3Axs_4core6optionINtB2_6OptionRNtNtCs6IAuOt8vWmF_3syn4item8ReceiverE6expectCscdP1gRbl3Ff_20pin_project_internal, symObjAddr: 0x3394, symBinAddr: 0x2B7F8, symSize: 0x5C }
  - { offset: 0x5D138, size: 0x8, addend: 0x0, symName: __RNvMNtCsfvfooZQ3Axs_4core6optionINtB2_6OptionRNtNtCs6IAuOt8vWmF_3syn4path11PathSegmentE6expectCscdP1gRbl3Ff_20pin_project_internal, symObjAddr: 0x33F0, symBinAddr: 0x2B854, symSize: 0x5C }
  - { offset: 0x5D180, size: 0x8, addend: 0x0, symName: __RNvMNtCsfvfooZQ3Axs_4core6optionINtB2_6OptionTIBv_NtNtCs6IAuOt8vWmF_3syn5token3NotENtNtBQ_4path4PathNtBO_3ForEE6as_mutCscdP1gRbl3Ff_20pin_project_internal, symObjAddr: 0x344C, symBinAddr: 0x2B8B0, symSize: 0x50 }
  - { offset: 0x5D1D7, size: 0x8, addend: 0x0, symName: __RNvMNtCsfvfooZQ3Axs_4core6optionINtB2_6OptionjE7is_someCscdP1gRbl3Ff_20pin_project_internal, symObjAddr: 0x349C, symBinAddr: 0x2B900, symSize: 0x20 }
  - { offset: 0x5D210, size: 0x8, addend: 0x0, symName: __RNvMNtCsfvfooZQ3Axs_4core6optionINtB2_6OptionjE7replaceCscdP1gRbl3Ff_20pin_project_internal, symObjAddr: 0x34BC, symBinAddr: 0x2B920, symSize: 0x40 }
  - { offset: 0x5D2A5, size: 0x8, addend: 0x0, symName: __RNvMs0_NtCsfvfooZQ3Axs_4core6optionINtB5_6OptionRNtCs3cP53eQoTwO_11proc_macro25IdentE6clonedCscdP1gRbl3Ff_20pin_project_internal, symObjAddr: 0x34FC, symBinAddr: 0x2B960, symSize: 0x6C }
  - { offset: 0x5D2FE, size: 0x8, addend: 0x0, symName: __RNvXNtCs2cqEZUIJimJ_5quote9to_tokensRINtNtCsfvfooZQ3Axs_4core6option6OptionNtCs3cP53eQoTwO_11proc_macro25IdentENtB2_8ToTokens9to_tokensCscdP1gRbl3Ff_20pin_project_internal, symObjAddr: 0x3568, symBinAddr: 0x2B9CC, symSize: 0x40 }
  - { offset: 0x5D33D, size: 0x8, addend: 0x0, symName: __RNvXNtCs2cqEZUIJimJ_5quote9to_tokensRINtNtCsfvfooZQ3Axs_4core6option6OptionNtNtCs6IAuOt8vWmF_3syn5token5ColonENtB2_8ToTokens9to_tokensCscdP1gRbl3Ff_20pin_project_internal, symObjAddr: 0x35A8, symBinAddr: 0x2BA0C, symSize: 0x40 }
  - { offset: 0x5D382, size: 0x8, addend: 0x0, symName: __RNvXs3_NtCs2cqEZUIJimJ_5quote9to_tokensINtNtCsfvfooZQ3Axs_4core6option6OptionNtCs3cP53eQoTwO_11proc_macro211TokenStreamENtB5_8ToTokens9to_tokensCscdP1gRbl3Ff_20pin_project_internal, symObjAddr: 0x35E8, symBinAddr: 0x2BA4C, symSize: 0x88 }
  - { offset: 0x5D3DE, size: 0x8, addend: 0x0, symName: __RNvXs3_NtCs2cqEZUIJimJ_5quote9to_tokensINtNtCsfvfooZQ3Axs_4core6option6OptionNtNtCs6IAuOt8vWmF_3syn5token5ColonENtB5_8ToTokens9to_tokensCscdP1gRbl3Ff_20pin_project_internal, symObjAddr: 0x3670, symBinAddr: 0x2BAD4, symSize: 0x80 }
  - { offset: 0x5D43A, size: 0x8, addend: 0x0, symName: __RNvXs3_NtCs2cqEZUIJimJ_5quote9to_tokensINtNtCsfvfooZQ3Axs_4core6option6OptionRNtCs3cP53eQoTwO_11proc_macro211TokenStreamENtB5_8ToTokens9to_tokensCscdP1gRbl3Ff_20pin_project_internal, symObjAddr: 0x36F0, symBinAddr: 0x2BB54, symSize: 0x84 }
  - { offset: 0x5D496, size: 0x8, addend: 0x0, symName: __RNvXs3_NtCs2cqEZUIJimJ_5quote9to_tokensINtNtCsfvfooZQ3Axs_4core6option6OptionRNtCs3cP53eQoTwO_11proc_macro25GroupENtB5_8ToTokens9to_tokensCscdP1gRbl3Ff_20pin_project_internal, symObjAddr: 0x3774, symBinAddr: 0x2BBD8, symSize: 0x84 }
  - { offset: 0x5D4F2, size: 0x8, addend: 0x0, symName: __RNvXs3_NtCs2cqEZUIJimJ_5quote9to_tokensINtNtCsfvfooZQ3Axs_4core6option6OptionRNtNtCs6IAuOt8vWmF_3syn8generics11WhereClauseENtB5_8ToTokens9to_tokensCscdP1gRbl3Ff_20pin_project_internal, symObjAddr: 0x37F8, symBinAddr: 0x2BC5C, symSize: 0x84 }
  - { offset: 0x5D554, size: 0x8, addend: 0x0, symName: __RNvYINtNtCsfvfooZQ3Axs_4core6option6OptionNtCs3cP53eQoTwO_11proc_macro25IdentENtNtCs2cqEZUIJimJ_5quote9to_tokens8ToTokens15to_token_streamCscdP1gRbl3Ff_20pin_project_internal, symObjAddr: 0x4098, symBinAddr: 0x2C4FC, symSize: 0x8C }
  - { offset: 0x5D59E, size: 0x8, addend: 0x0, symName: __RNvYINtNtCsfvfooZQ3Axs_4core6option6OptionNtNtCs6IAuOt8vWmF_3syn5token6UnsafeENtNtCs2cqEZUIJimJ_5quote9to_tokens8ToTokens15to_token_streamCscdP1gRbl3Ff_20pin_project_internal, symObjAddr: 0x4124, symBinAddr: 0x2C588, symSize: 0x8C }
  - { offset: 0x5DA09, size: 0x8, addend: 0x0, symName: __RINvNtCs6IAuOt8vWmF_3syn10punctuated9do_extendNtNtB4_4path11PathSegmentNtNtB4_5token7PathSepINtNtNtNtCsfvfooZQ3Axs_4core4iter8adapters4skip4SkipINtB2_9IntoPairsBI_B17_EEECscdP1gRbl3Ff_20pin_project_internal, symObjAddr: 0x0, symBinAddr: 0x2C7FC, symSize: 0x3B4 }
  - { offset: 0x5E29F, size: 0x8, addend: 0x0, symName: __RINvNtCs6IAuOt8vWmF_3syn10punctuated9do_extendNtNtB4_4path11PathSegmentNtNtB4_5token7PathSepINtNtNtNtCsfvfooZQ3Axs_4core4iter8adapters4skip4SkipINtB2_9IntoPairsBI_B17_EEECscdP1gRbl3Ff_20pin_project_internal, symObjAddr: 0x0, symBinAddr: 0x2C7FC, symSize: 0x3B4 }
  - { offset: 0x5E39C, size: 0x8, addend: 0x0, symName: __RINvXs6_NtCs6IAuOt8vWmF_3syn10punctuatedINtB6_10PunctuatedNtNtB8_4path11PathSegmentNtNtB8_5token7PathSepEINtNtNtNtCsfvfooZQ3Axs_4core4iter6traits7collect12FromIteratorINtB6_4PairBU_B1j_EE9from_iterINtNtNtB1M_8adapters4skip4SkipINtB6_9IntoPairsBU_B1j_EEECscdP1gRbl3Ff_20pin_project_internal, symObjAddr: 0x3B4, symBinAddr: 0x2CBB0, symSize: 0xF0 }
  - { offset: 0x5E402, size: 0x8, addend: 0x0, symName: __RINvXs7_NtCs6IAuOt8vWmF_3syn10punctuatedINtB6_10PunctuatedNtNtB8_4path11PathSegmentNtNtB8_5token7PathSepEINtNtNtNtCsfvfooZQ3Axs_4core4iter6traits7collect6ExtendINtB6_4PairBU_B1j_EE6extendINtNtNtB1M_8adapters4skip4SkipINtB6_9IntoPairsBU_B1j_EEECscdP1gRbl3Ff_20pin_project_internal, symObjAddr: 0x4A4, symBinAddr: 0x2CCA0, symSize: 0x124 }
  - { offset: 0x5E467, size: 0x8, addend: 0x0, symName: __RNCNCNvXsx_NtCs6IAuOt8vWmF_3syn10punctuatedINtB9_11PrivateIterNtNtBb_4data7VariantNtNtBb_5token5CommaENtNtNtNtCsfvfooZQ3Axs_4core4iter6traits12double_ended19DoubleEndedIterator9next_back00CscdP1gRbl3Ff_20pin_project_internal, symObjAddr: 0x738, symBinAddr: 0x2CF34, symSize: 0x24 }
  - { offset: 0x5E4B2, size: 0x8, addend: 0x0, symName: __RNCNCNvXsx_NtCs6IAuOt8vWmF_3syn10punctuatedINtB9_11PrivateIterNtNtBb_4path15GenericArgumentNtNtBb_5token5CommaENtNtNtNtCsfvfooZQ3Axs_4core4iter6traits12double_ended19DoubleEndedIterator9next_back00CscdP1gRbl3Ff_20pin_project_internal, symObjAddr: 0x75C, symBinAddr: 0x2CF58, symSize: 0x24 }
  - { offset: 0x5E50C, size: 0x8, addend: 0x0, symName: __RNCNvXsx_NtCs6IAuOt8vWmF_3syn10punctuatedINtB7_11PrivateIterNtNtB9_4data7VariantNtNtB9_5token5CommaENtNtNtNtCsfvfooZQ3Axs_4core4iter6traits12double_ended19DoubleEndedIterator9next_back0CscdP1gRbl3Ff_20pin_project_internal, symObjAddr: 0x120C, symBinAddr: 0x2DA08, symSize: 0x38 }
  - { offset: 0x5E54E, size: 0x8, addend: 0x0, symName: __RNCNvXsx_NtCs6IAuOt8vWmF_3syn10punctuatedINtB7_11PrivateIterNtNtB9_4path15GenericArgumentNtNtB9_5token5CommaENtNtNtNtCsfvfooZQ3Axs_4core4iter6traits12double_ended19DoubleEndedIterator9next_back0CscdP1gRbl3Ff_20pin_project_internal, symObjAddr: 0x1244, symBinAddr: 0x2DA40, symSize: 0x38 }
  - { offset: 0x5E591, size: 0x8, addend: 0x0, symName: __RNvXsx_NtCs6IAuOt8vWmF_3syn10punctuatedINtB5_11PrivateIterNtNtB7_4data7VariantNtNtB7_5token5CommaENtNtNtNtCsfvfooZQ3Axs_4core4iter6traits12double_ended19DoubleEndedIterator9next_backCscdP1gRbl3Ff_20pin_project_internal, symObjAddr: 0x4BA0, symBinAddr: 0x3139C, symSize: 0x40 }
  - { offset: 0x5E5D1, size: 0x8, addend: 0x0, symName: __RNvXsx_NtCs6IAuOt8vWmF_3syn10punctuatedINtB5_11PrivateIterNtNtB7_4path15GenericArgumentNtNtB7_5token5CommaENtNtNtNtCsfvfooZQ3Axs_4core4iter6traits12double_ended19DoubleEndedIterator9next_backCscdP1gRbl3Ff_20pin_project_internal, symObjAddr: 0x4BE0, symBinAddr: 0x313DC, symSize: 0x40 }
  - { offset: 0x5E61C, size: 0x8, addend: 0x0, symName: __RNCNvXs8_NtCs6IAuOt8vWmF_3syn10punctuatedINtB7_10PunctuatedNtNtB9_4attr4MetaNtNtB9_5token5CommaENtNtNtNtCsfvfooZQ3Axs_4core4iter6traits7collect12IntoIterator9into_iter0CscdP1gRbl3Ff_20pin_project_internal, symObjAddr: 0x780, symBinAddr: 0x2CF7C, symSize: 0x44 }
  - { offset: 0x5E668, size: 0x8, addend: 0x0, symName: __RNCNvXs8_NtCs6IAuOt8vWmF_3syn10punctuatedINtB7_10PunctuatedNtNtB9_4attr4MetaNtNtB9_5token5CommaENtNtNtNtCsfvfooZQ3Axs_4core4iter6traits7collect12IntoIterator9into_iters_0CscdP1gRbl3Ff_20pin_project_internal, symObjAddr: 0x7C4, symBinAddr: 0x2CFC0, symSize: 0x98 }
  - { offset: 0x5E6C2, size: 0x8, addend: 0x0, symName: __RNvXs8_NtCs6IAuOt8vWmF_3syn10punctuatedINtB5_10PunctuatedNtNtB7_4attr4MetaNtNtB7_5token5CommaENtNtNtNtCsfvfooZQ3Axs_4core4iter6traits7collect12IntoIterator9into_iterCscdP1gRbl3Ff_20pin_project_internal, symObjAddr: 0x38EC, symBinAddr: 0x300E8, symSize: 0x1C0 }
  - { offset: 0x5E724, size: 0x8, addend: 0x0, symName: __RNCNvXsg_NtCs6IAuOt8vWmF_3syn10punctuatedINtB7_8PairsMutNtNtB9_2ty4TypeNtNtB9_5token5CommaENtNtNtNtCsfvfooZQ3Axs_4core4iter6traits8iterator8Iterator4next0CscdP1gRbl3Ff_20pin_project_internal, symObjAddr: 0x85C, symBinAddr: 0x2D058, symSize: 0x40 }
  - { offset: 0x5E799, size: 0x8, addend: 0x0, symName: __RNCNvXsg_NtCs6IAuOt8vWmF_3syn10punctuatedINtB7_8PairsMutNtNtB9_2ty4TypeNtNtB9_5token5CommaENtNtNtNtCsfvfooZQ3Axs_4core4iter6traits8iterator8Iterator4nexts_0CscdP1gRbl3Ff_20pin_project_internal, symObjAddr: 0x89C, symBinAddr: 0x2D098, symSize: 0x40 }
  - { offset: 0x5E7DB, size: 0x8, addend: 0x0, symName: __RNCNvXsg_NtCs6IAuOt8vWmF_3syn10punctuatedINtB7_8PairsMutNtNtB9_2ty9BareFnArgNtNtB9_5token5CommaENtNtNtNtCsfvfooZQ3Axs_4core4iter6traits8iterator8Iterator4next0CscdP1gRbl3Ff_20pin_project_internal, symObjAddr: 0x8DC, symBinAddr: 0x2D0D8, symSize: 0x40 }
  - { offset: 0x5E850, size: 0x8, addend: 0x0, symName: __RNCNvXsg_NtCs6IAuOt8vWmF_3syn10punctuatedINtB7_8PairsMutNtNtB9_2ty9BareFnArgNtNtB9_5token5CommaENtNtNtNtCsfvfooZQ3Axs_4core4iter6traits8iterator8Iterator4nexts_0CscdP1gRbl3Ff_20pin_project_internal, symObjAddr: 0x91C, symBinAddr: 0x2D118, symSize: 0x40 }
  - { offset: 0x5E892, size: 0x8, addend: 0x0, symName: __RNCNvXsg_NtCs6IAuOt8vWmF_3syn10punctuatedINtB7_8PairsMutNtNtB9_3pat3PatNtNtB9_5token2OrENtNtNtNtCsfvfooZQ3Axs_4core4iter6traits8iterator8Iterator4next0CscdP1gRbl3Ff_20pin_project_internal, symObjAddr: 0x95C, symBinAddr: 0x2D158, symSize: 0x40 }
  - { offset: 0x5E907, size: 0x8, addend: 0x0, symName: __RNCNvXsg_NtCs6IAuOt8vWmF_3syn10punctuatedINtB7_8PairsMutNtNtB9_3pat3PatNtNtB9_5token2OrENtNtNtNtCsfvfooZQ3Axs_4core4iter6traits8iterator8Iterator4nexts_0CscdP1gRbl3Ff_20pin_project_internal, symObjAddr: 0x99C, symBinAddr: 0x2D198, symSize: 0x40 }
  - { offset: 0x5E949, size: 0x8, addend: 0x0, symName: __RNCNvXsg_NtCs6IAuOt8vWmF_3syn10punctuatedINtB7_8PairsMutNtNtB9_3pat3PatNtNtB9_5token5CommaENtNtNtNtCsfvfooZQ3Axs_4core4iter6traits8iterator8Iterator4next0CscdP1gRbl3Ff_20pin_project_internal, symObjAddr: 0x9DC, symBinAddr: 0x2D1D8, symSize: 0x40 }
  - { offset: 0x5E9BE, size: 0x8, addend: 0x0, symName: __RNCNvXsg_NtCs6IAuOt8vWmF_3syn10punctuatedINtB7_8PairsMutNtNtB9_3pat3PatNtNtB9_5token5CommaENtNtNtNtCsfvfooZQ3Axs_4core4iter6traits8iterator8Iterator4nexts_0CscdP1gRbl3Ff_20pin_project_internal, symObjAddr: 0xA1C, symBinAddr: 0x2D218, symSize: 0x40 }
  - { offset: 0x5EA00, size: 0x8, addend: 0x0, symName: __RNCNvXsg_NtCs6IAuOt8vWmF_3syn10punctuatedINtB7_8PairsMutNtNtB9_3pat8FieldPatNtNtB9_5token5CommaENtNtNtNtCsfvfooZQ3Axs_4core4iter6traits8iterator8Iterator4next0CscdP1gRbl3Ff_20pin_project_internal, symObjAddr: 0xA5C, symBinAddr: 0x2D258, symSize: 0x40 }
  - { offset: 0x5EA75, size: 0x8, addend: 0x0, symName: __RNCNvXsg_NtCs6IAuOt8vWmF_3syn10punctuatedINtB7_8PairsMutNtNtB9_3pat8FieldPatNtNtB9_5token5CommaENtNtNtNtCsfvfooZQ3Axs_4core4iter6traits8iterator8Iterator4nexts_0CscdP1gRbl3Ff_20pin_project_internal, symObjAddr: 0xA9C, symBinAddr: 0x2D298, symSize: 0x40 }
  - { offset: 0x5EAB7, size: 0x8, addend: 0x0, symName: __RNCNvXsg_NtCs6IAuOt8vWmF_3syn10punctuatedINtB7_8PairsMutNtNtB9_4data5FieldNtNtB9_5token5CommaENtNtNtNtCsfvfooZQ3Axs_4core4iter6traits8iterator8Iterator4next0CscdP1gRbl3Ff_20pin_project_internal, symObjAddr: 0xADC, symBinAddr: 0x2D2D8, symSize: 0x40 }
  - { offset: 0x5EB2C, size: 0x8, addend: 0x0, symName: __RNCNvXsg_NtCs6IAuOt8vWmF_3syn10punctuatedINtB7_8PairsMutNtNtB9_4data5FieldNtNtB9_5token5CommaENtNtNtNtCsfvfooZQ3Axs_4core4iter6traits8iterator8Iterator4nexts_0CscdP1gRbl3Ff_20pin_project_internal, symObjAddr: 0xB1C, symBinAddr: 0x2D318, symSize: 0x40 }
  - { offset: 0x5EB6E, size: 0x8, addend: 0x0, symName: __RNCNvXsg_NtCs6IAuOt8vWmF_3syn10punctuatedINtB7_8PairsMutNtNtB9_4data7VariantNtNtB9_5token5CommaENtNtNtNtCsfvfooZQ3Axs_4core4iter6traits8iterator8Iterator4next0CscdP1gRbl3Ff_20pin_project_internal, symObjAddr: 0xB5C, symBinAddr: 0x2D358, symSize: 0x40 }
  - { offset: 0x5EBE3, size: 0x8, addend: 0x0, symName: __RNCNvXsg_NtCs6IAuOt8vWmF_3syn10punctuatedINtB7_8PairsMutNtNtB9_4data7VariantNtNtB9_5token5CommaENtNtNtNtCsfvfooZQ3Axs_4core4iter6traits8iterator8Iterator4nexts_0CscdP1gRbl3Ff_20pin_project_internal, symObjAddr: 0xB9C, symBinAddr: 0x2D398, symSize: 0x40 }
  - { offset: 0x5EC25, size: 0x8, addend: 0x0, symName: __RNCNvXsg_NtCs6IAuOt8vWmF_3syn10punctuatedINtB7_8PairsMutNtNtB9_4expr10FieldValueNtNtB9_5token5CommaENtNtNtNtCsfvfooZQ3Axs_4core4iter6traits8iterator8Iterator4next0CscdP1gRbl3Ff_20pin_project_internal, symObjAddr: 0xBDC, symBinAddr: 0x2D3D8, symSize: 0x40 }
  - { offset: 0x5EC9A, size: 0x8, addend: 0x0, symName: __RNCNvXsg_NtCs6IAuOt8vWmF_3syn10punctuatedINtB7_8PairsMutNtNtB9_4expr10FieldValueNtNtB9_5token5CommaENtNtNtNtCsfvfooZQ3Axs_4core4iter6traits8iterator8Iterator4nexts_0CscdP1gRbl3Ff_20pin_project_internal, symObjAddr: 0xC1C, symBinAddr: 0x2D418, symSize: 0x40 }
  - { offset: 0x5ECDC, size: 0x8, addend: 0x0, symName: __RNCNvXsg_NtCs6IAuOt8vWmF_3syn10punctuatedINtB7_8PairsMutNtNtB9_4expr4ExprNtNtB9_5token5CommaENtNtNtNtCsfvfooZQ3Axs_4core4iter6traits8iterator8Iterator4next0CscdP1gRbl3Ff_20pin_project_internal, symObjAddr: 0xC5C, symBinAddr: 0x2D458, symSize: 0x40 }
  - { offset: 0x5ED51, size: 0x8, addend: 0x0, symName: __RNCNvXsg_NtCs6IAuOt8vWmF_3syn10punctuatedINtB7_8PairsMutNtNtB9_4expr4ExprNtNtB9_5token5CommaENtNtNtNtCsfvfooZQ3Axs_4core4iter6traits8iterator8Iterator4nexts_0CscdP1gRbl3Ff_20pin_project_internal, symObjAddr: 0xC9C, symBinAddr: 0x2D498, symSize: 0x40 }
  - { offset: 0x5ED93, size: 0x8, addend: 0x0, symName: __RNCNvXsg_NtCs6IAuOt8vWmF_3syn10punctuatedINtB7_8PairsMutNtNtB9_4item5FnArgNtNtB9_5token5CommaENtNtNtNtCsfvfooZQ3Axs_4core4iter6traits8iterator8Iterator4next0CscdP1gRbl3Ff_20pin_project_internal, symObjAddr: 0xCDC, symBinAddr: 0x2D4D8, symSize: 0x40 }
  - { offset: 0x5EE08, size: 0x8, addend: 0x0, symName: __RNCNvXsg_NtCs6IAuOt8vWmF_3syn10punctuatedINtB7_8PairsMutNtNtB9_4item5FnArgNtNtB9_5token5CommaENtNtNtNtCsfvfooZQ3Axs_4core4iter6traits8iterator8Iterator4nexts_0CscdP1gRbl3Ff_20pin_project_internal, symObjAddr: 0xD1C, symBinAddr: 0x2D518, symSize: 0x40 }
  - { offset: 0x5EE4A, size: 0x8, addend: 0x0, symName: __RNCNvXsg_NtCs6IAuOt8vWmF_3syn10punctuatedINtB7_8PairsMutNtNtB9_4item7UseTreeNtNtB9_5token5CommaENtNtNtNtCsfvfooZQ3Axs_4core4iter6traits8iterator8Iterator4next0CscdP1gRbl3Ff_20pin_project_internal, symObjAddr: 0xD5C, symBinAddr: 0x2D558, symSize: 0x40 }
  - { offset: 0x5EEBF, size: 0x8, addend: 0x0, symName: __RNCNvXsg_NtCs6IAuOt8vWmF_3syn10punctuatedINtB7_8PairsMutNtNtB9_4item7UseTreeNtNtB9_5token5CommaENtNtNtNtCsfvfooZQ3Axs_4core4iter6traits8iterator8Iterator4nexts_0CscdP1gRbl3Ff_20pin_project_internal, symObjAddr: 0xD9C, symBinAddr: 0x2D598, symSize: 0x40 }
  - { offset: 0x5EF01, size: 0x8, addend: 0x0, symName: __RNCNvXsg_NtCs6IAuOt8vWmF_3syn10punctuatedINtB7_8PairsMutNtNtB9_4path11PathSegmentNtNtB9_5token7PathSepENtNtNtNtCsfvfooZQ3Axs_4core4iter6traits8iterator8Iterator4next0CscdP1gRbl3Ff_20pin_project_internal, symObjAddr: 0xDDC, symBinAddr: 0x2D5D8, symSize: 0x40 }
  - { offset: 0x5EF76, size: 0x8, addend: 0x0, symName: __RNCNvXsg_NtCs6IAuOt8vWmF_3syn10punctuatedINtB7_8PairsMutNtNtB9_4path11PathSegmentNtNtB9_5token7PathSepENtNtNtNtCsfvfooZQ3Axs_4core4iter6traits8iterator8Iterator4nexts_0CscdP1gRbl3Ff_20pin_project_internal, symObjAddr: 0xE1C, symBinAddr: 0x2D618, symSize: 0x40 }
  - { offset: 0x5EFB8, size: 0x8, addend: 0x0, symName: __RNCNvXsg_NtCs6IAuOt8vWmF_3syn10punctuatedINtB7_8PairsMutNtNtB9_4path15GenericArgumentNtNtB9_5token5CommaENtNtNtNtCsfvfooZQ3Axs_4core4iter6traits8iterator8Iterator4next0CscdP1gRbl3Ff_20pin_project_internal, symObjAddr: 0xE5C, symBinAddr: 0x2D658, symSize: 0x40 }
  - { offset: 0x5F02D, size: 0x8, addend: 0x0, symName: __RNCNvXsg_NtCs6IAuOt8vWmF_3syn10punctuatedINtB7_8PairsMutNtNtB9_4path15GenericArgumentNtNtB9_5token5CommaENtNtNtNtCsfvfooZQ3Axs_4core4iter6traits8iterator8Iterator4nexts_0CscdP1gRbl3Ff_20pin_project_internal, symObjAddr: 0xE9C, symBinAddr: 0x2D698, symSize: 0x40 }
  - { offset: 0x5F06F, size: 0x8, addend: 0x0, symName: __RNCNvXsg_NtCs6IAuOt8vWmF_3syn10punctuatedINtB7_8PairsMutNtNtB9_8generics12GenericParamNtNtB9_5token5CommaENtNtNtNtCsfvfooZQ3Axs_4core4iter6traits8iterator8Iterator4next0CscdP1gRbl3Ff_20pin_project_internal, symObjAddr: 0xEDC, symBinAddr: 0x2D6D8, symSize: 0x40 }
  - { offset: 0x5F0E4, size: 0x8, addend: 0x0, symName: __RNCNvXsg_NtCs6IAuOt8vWmF_3syn10punctuatedINtB7_8PairsMutNtNtB9_8generics12GenericParamNtNtB9_5token5CommaENtNtNtNtCsfvfooZQ3Axs_4core4iter6traits8iterator8Iterator4nexts_0CscdP1gRbl3Ff_20pin_project_internal, symObjAddr: 0xF1C, symBinAddr: 0x2D718, symSize: 0x40 }
  - { offset: 0x5F126, size: 0x8, addend: 0x0, symName: __RNCNvXsg_NtCs6IAuOt8vWmF_3syn10punctuatedINtB7_8PairsMutNtNtB9_8generics13CapturedParamNtNtB9_5token5CommaENtNtNtNtCsfvfooZQ3Axs_4core4iter6traits8iterator8Iterator4next0CscdP1gRbl3Ff_20pin_project_internal, symObjAddr: 0xF5C, symBinAddr: 0x2D758, symSize: 0x40 }
  - { offset: 0x5F19B, size: 0x8, addend: 0x0, symName: __RNCNvXsg_NtCs6IAuOt8vWmF_3syn10punctuatedINtB7_8PairsMutNtNtB9_8generics13CapturedParamNtNtB9_5token5CommaENtNtNtNtCsfvfooZQ3Axs_4core4iter6traits8iterator8Iterator4nexts_0CscdP1gRbl3Ff_20pin_project_internal, symObjAddr: 0xF9C, symBinAddr: 0x2D798, symSize: 0x40 }
  - { offset: 0x5F1DD, size: 0x8, addend: 0x0, symName: __RNCNvXsg_NtCs6IAuOt8vWmF_3syn10punctuatedINtB7_8PairsMutNtNtB9_8generics14TypeParamBoundNtNtB9_5token4PlusENtNtNtNtCsfvfooZQ3Axs_4core4iter6traits8iterator8Iterator4next0CscdP1gRbl3Ff_20pin_project_internal, symObjAddr: 0xFDC, symBinAddr: 0x2D7D8, symSize: 0x40 }
  - { offset: 0x5F252, size: 0x8, addend: 0x0, symName: __RNCNvXsg_NtCs6IAuOt8vWmF_3syn10punctuatedINtB7_8PairsMutNtNtB9_8generics14TypeParamBoundNtNtB9_5token4PlusENtNtNtNtCsfvfooZQ3Axs_4core4iter6traits8iterator8Iterator4nexts_0CscdP1gRbl3Ff_20pin_project_internal, symObjAddr: 0x101C, symBinAddr: 0x2D818, symSize: 0x40 }
  - { offset: 0x5F294, size: 0x8, addend: 0x0, symName: __RNCNvXsg_NtCs6IAuOt8vWmF_3syn10punctuatedINtB7_8PairsMutNtNtB9_8generics14WherePredicateNtNtB9_5token5CommaENtNtNtNtCsfvfooZQ3Axs_4core4iter6traits8iterator8Iterator4next0CscdP1gRbl3Ff_20pin_project_internal, symObjAddr: 0x105C, symBinAddr: 0x2D858, symSize: 0x40 }
  - { offset: 0x5F309, size: 0x8, addend: 0x0, symName: __RNCNvXsg_NtCs6IAuOt8vWmF_3syn10punctuatedINtB7_8PairsMutNtNtB9_8generics14WherePredicateNtNtB9_5token5CommaENtNtNtNtCsfvfooZQ3Axs_4core4iter6traits8iterator8Iterator4nexts_0CscdP1gRbl3Ff_20pin_project_internal, symObjAddr: 0x109C, symBinAddr: 0x2D898, symSize: 0x40 }
  - { offset: 0x5F34B, size: 0x8, addend: 0x0, symName: __RNCNvXsg_NtCs6IAuOt8vWmF_3syn10punctuatedINtB7_8PairsMutNtNtB9_8lifetime8LifetimeNtNtB9_5token4PlusENtNtNtNtCsfvfooZQ3Axs_4core4iter6traits8iterator8Iterator4next0CscdP1gRbl3Ff_20pin_project_internal, symObjAddr: 0x10DC, symBinAddr: 0x2D8D8, symSize: 0x40 }
  - { offset: 0x5F3C0, size: 0x8, addend: 0x0, symName: __RNCNvXsg_NtCs6IAuOt8vWmF_3syn10punctuatedINtB7_8PairsMutNtNtB9_8lifetime8LifetimeNtNtB9_5token4PlusENtNtNtNtCsfvfooZQ3Axs_4core4iter6traits8iterator8Iterator4nexts_0CscdP1gRbl3Ff_20pin_project_internal, symObjAddr: 0x111C, symBinAddr: 0x2D918, symSize: 0x40 }
  - { offset: 0x5F481, size: 0x8, addend: 0x0, symName: __RNvXsg_NtCs6IAuOt8vWmF_3syn10punctuatedINtB5_8PairsMutNtNtB7_2ty4TypeNtNtB7_5token5CommaENtNtNtNtCsfvfooZQ3Axs_4core4iter6traits8iterator8Iterator4nextCscdP1gRbl3Ff_20pin_project_internal, symObjAddr: 0x4078, symBinAddr: 0x30874, symSize: 0x58 }
  - { offset: 0x5F4C1, size: 0x8, addend: 0x0, symName: __RNvXsg_NtCs6IAuOt8vWmF_3syn10punctuatedINtB5_8PairsMutNtNtB7_2ty9BareFnArgNtNtB7_5token5CommaENtNtNtNtCsfvfooZQ3Axs_4core4iter6traits8iterator8Iterator4nextCscdP1gRbl3Ff_20pin_project_internal, symObjAddr: 0x40D0, symBinAddr: 0x308CC, symSize: 0x58 }
  - { offset: 0x5F501, size: 0x8, addend: 0x0, symName: __RNvXsg_NtCs6IAuOt8vWmF_3syn10punctuatedINtB5_8PairsMutNtNtB7_3pat3PatNtNtB7_5token2OrENtNtNtNtCsfvfooZQ3Axs_4core4iter6traits8iterator8Iterator4nextCscdP1gRbl3Ff_20pin_project_internal, symObjAddr: 0x4128, symBinAddr: 0x30924, symSize: 0x58 }
  - { offset: 0x5F541, size: 0x8, addend: 0x0, symName: __RNvXsg_NtCs6IAuOt8vWmF_3syn10punctuatedINtB5_8PairsMutNtNtB7_3pat3PatNtNtB7_5token5CommaENtNtNtNtCsfvfooZQ3Axs_4core4iter6traits8iterator8Iterator4nextCscdP1gRbl3Ff_20pin_project_internal, symObjAddr: 0x4180, symBinAddr: 0x3097C, symSize: 0x58 }
  - { offset: 0x5F581, size: 0x8, addend: 0x0, symName: __RNvXsg_NtCs6IAuOt8vWmF_3syn10punctuatedINtB5_8PairsMutNtNtB7_3pat8FieldPatNtNtB7_5token5CommaENtNtNtNtCsfvfooZQ3Axs_4core4iter6traits8iterator8Iterator4nextCscdP1gRbl3Ff_20pin_project_internal, symObjAddr: 0x41D8, symBinAddr: 0x309D4, symSize: 0x58 }
  - { offset: 0x5F5C1, size: 0x8, addend: 0x0, symName: __RNvXsg_NtCs6IAuOt8vWmF_3syn10punctuatedINtB5_8PairsMutNtNtB7_4data5FieldNtNtB7_5token5CommaENtNtNtNtCsfvfooZQ3Axs_4core4iter6traits8iterator8Iterator4nextCscdP1gRbl3Ff_20pin_project_internal, symObjAddr: 0x4230, symBinAddr: 0x30A2C, symSize: 0x58 }
  - { offset: 0x5F601, size: 0x8, addend: 0x0, symName: __RNvXsg_NtCs6IAuOt8vWmF_3syn10punctuatedINtB5_8PairsMutNtNtB7_4data7VariantNtNtB7_5token5CommaENtNtNtNtCsfvfooZQ3Axs_4core4iter6traits8iterator8Iterator4nextCscdP1gRbl3Ff_20pin_project_internal, symObjAddr: 0x4288, symBinAddr: 0x30A84, symSize: 0x58 }
  - { offset: 0x5F641, size: 0x8, addend: 0x0, symName: __RNvXsg_NtCs6IAuOt8vWmF_3syn10punctuatedINtB5_8PairsMutNtNtB7_4expr10FieldValueNtNtB7_5token5CommaENtNtNtNtCsfvfooZQ3Axs_4core4iter6traits8iterator8Iterator4nextCscdP1gRbl3Ff_20pin_project_internal, symObjAddr: 0x42E0, symBinAddr: 0x30ADC, symSize: 0x58 }
  - { offset: 0x5F681, size: 0x8, addend: 0x0, symName: __RNvXsg_NtCs6IAuOt8vWmF_3syn10punctuatedINtB5_8PairsMutNtNtB7_4expr4ExprNtNtB7_5token5CommaENtNtNtNtCsfvfooZQ3Axs_4core4iter6traits8iterator8Iterator4nextCscdP1gRbl3Ff_20pin_project_internal, symObjAddr: 0x4338, symBinAddr: 0x30B34, symSize: 0x58 }
  - { offset: 0x5F6C1, size: 0x8, addend: 0x0, symName: __RNvXsg_NtCs6IAuOt8vWmF_3syn10punctuatedINtB5_8PairsMutNtNtB7_4item5FnArgNtNtB7_5token5CommaENtNtNtNtCsfvfooZQ3Axs_4core4iter6traits8iterator8Iterator4nextCscdP1gRbl3Ff_20pin_project_internal, symObjAddr: 0x4390, symBinAddr: 0x30B8C, symSize: 0x58 }
  - { offset: 0x5F701, size: 0x8, addend: 0x0, symName: __RNvXsg_NtCs6IAuOt8vWmF_3syn10punctuatedINtB5_8PairsMutNtNtB7_4item7UseTreeNtNtB7_5token5CommaENtNtNtNtCsfvfooZQ3Axs_4core4iter6traits8iterator8Iterator4nextCscdP1gRbl3Ff_20pin_project_internal, symObjAddr: 0x43E8, symBinAddr: 0x30BE4, symSize: 0x58 }
  - { offset: 0x5F741, size: 0x8, addend: 0x0, symName: __RNvXsg_NtCs6IAuOt8vWmF_3syn10punctuatedINtB5_8PairsMutNtNtB7_4path11PathSegmentNtNtB7_5token7PathSepENtNtNtNtCsfvfooZQ3Axs_4core4iter6traits8iterator8Iterator4nextCscdP1gRbl3Ff_20pin_project_internal, symObjAddr: 0x4440, symBinAddr: 0x30C3C, symSize: 0x58 }
  - { offset: 0x5F781, size: 0x8, addend: 0x0, symName: __RNvXsg_NtCs6IAuOt8vWmF_3syn10punctuatedINtB5_8PairsMutNtNtB7_4path15GenericArgumentNtNtB7_5token5CommaENtNtNtNtCsfvfooZQ3Axs_4core4iter6traits8iterator8Iterator4nextCscdP1gRbl3Ff_20pin_project_internal, symObjAddr: 0x4498, symBinAddr: 0x30C94, symSize: 0x58 }
  - { offset: 0x5F7C1, size: 0x8, addend: 0x0, symName: __RNvXsg_NtCs6IAuOt8vWmF_3syn10punctuatedINtB5_8PairsMutNtNtB7_8generics12GenericParamNtNtB7_5token5CommaENtNtNtNtCsfvfooZQ3Axs_4core4iter6traits8iterator8Iterator4nextCscdP1gRbl3Ff_20pin_project_internal, symObjAddr: 0x44F0, symBinAddr: 0x30CEC, symSize: 0x58 }
  - { offset: 0x5F801, size: 0x8, addend: 0x0, symName: __RNvXsg_NtCs6IAuOt8vWmF_3syn10punctuatedINtB5_8PairsMutNtNtB7_8generics13CapturedParamNtNtB7_5token5CommaENtNtNtNtCsfvfooZQ3Axs_4core4iter6traits8iterator8Iterator4nextCscdP1gRbl3Ff_20pin_project_internal, symObjAddr: 0x4548, symBinAddr: 0x30D44, symSize: 0x58 }
  - { offset: 0x5F841, size: 0x8, addend: 0x0, symName: __RNvXsg_NtCs6IAuOt8vWmF_3syn10punctuatedINtB5_8PairsMutNtNtB7_8generics14TypeParamBoundNtNtB7_5token4PlusENtNtNtNtCsfvfooZQ3Axs_4core4iter6traits8iterator8Iterator4nextCscdP1gRbl3Ff_20pin_project_internal, symObjAddr: 0x45A0, symBinAddr: 0x30D9C, symSize: 0x58 }
  - { offset: 0x5F881, size: 0x8, addend: 0x0, symName: __RNvXsg_NtCs6IAuOt8vWmF_3syn10punctuatedINtB5_8PairsMutNtNtB7_8generics14WherePredicateNtNtB7_5token5CommaENtNtNtNtCsfvfooZQ3Axs_4core4iter6traits8iterator8Iterator4nextCscdP1gRbl3Ff_20pin_project_internal, symObjAddr: 0x45F8, symBinAddr: 0x30DF4, symSize: 0x58 }
  - { offset: 0x5F8C1, size: 0x8, addend: 0x0, symName: __RNvXsg_NtCs6IAuOt8vWmF_3syn10punctuatedINtB5_8PairsMutNtNtB7_8lifetime8LifetimeNtNtB7_5token4PlusENtNtNtNtCsfvfooZQ3Axs_4core4iter6traits8iterator8Iterator4nextCscdP1gRbl3Ff_20pin_project_internal, symObjAddr: 0x4650, symBinAddr: 0x30E4C, symSize: 0x58 }
  - { offset: 0x5F90C, size: 0x8, addend: 0x0, symName: __RNCNvXsw_NtCs6IAuOt8vWmF_3syn10punctuatedINtB7_11PrivateIterNtNtB9_4data7VariantNtNtB9_5token5CommaENtNtNtNtCsfvfooZQ3Axs_4core4iter6traits8iterator8Iterator4next0CscdP1gRbl3Ff_20pin_project_internal, symObjAddr: 0x115C, symBinAddr: 0x2D958, symSize: 0x24 }
  - { offset: 0x5F957, size: 0x8, addend: 0x0, symName: __RNCNvXsw_NtCs6IAuOt8vWmF_3syn10punctuatedINtB7_11PrivateIterNtNtB9_4data7VariantNtNtB9_5token5CommaENtNtNtNtCsfvfooZQ3Axs_4core4iter6traits8iterator8Iterator4nexts_0CscdP1gRbl3Ff_20pin_project_internal, symObjAddr: 0x1180, symBinAddr: 0x2D97C, symSize: 0x34 }
  - { offset: 0x5F999, size: 0x8, addend: 0x0, symName: __RNCNvXsw_NtCs6IAuOt8vWmF_3syn10punctuatedINtB7_11PrivateIterNtNtB9_4path15GenericArgumentNtNtB9_5token5CommaENtNtNtNtCsfvfooZQ3Axs_4core4iter6traits8iterator8Iterator4next0CscdP1gRbl3Ff_20pin_project_internal, symObjAddr: 0x11B4, symBinAddr: 0x2D9B0, symSize: 0x24 }
  - { offset: 0x5F9E4, size: 0x8, addend: 0x0, symName: __RNCNvXsw_NtCs6IAuOt8vWmF_3syn10punctuatedINtB7_11PrivateIterNtNtB9_4path15GenericArgumentNtNtB9_5token5CommaENtNtNtNtCsfvfooZQ3Axs_4core4iter6traits8iterator8Iterator4nexts_0CscdP1gRbl3Ff_20pin_project_internal, symObjAddr: 0x11D8, symBinAddr: 0x2D9D4, symSize: 0x34 }
  - { offset: 0x5FA35, size: 0x8, addend: 0x0, symName: __RNvXsw_NtCs6IAuOt8vWmF_3syn10punctuatedINtB5_11PrivateIterNtNtB7_4data7VariantNtNtB7_5token5CommaENtNtNtNtCsfvfooZQ3Axs_4core4iter6traits8iterator8Iterator4nextCscdP1gRbl3Ff_20pin_project_internal, symObjAddr: 0x4B18, symBinAddr: 0x31314, symSize: 0x44 }
  - { offset: 0x5FA75, size: 0x8, addend: 0x0, symName: __RNvXsw_NtCs6IAuOt8vWmF_3syn10punctuatedINtB5_11PrivateIterNtNtB7_4path15GenericArgumentNtNtB7_5token5CommaENtNtNtNtCsfvfooZQ3Axs_4core4iter6traits8iterator8Iterator4nextCscdP1gRbl3Ff_20pin_project_internal, symObjAddr: 0x4B5C, symBinAddr: 0x31358, symSize: 0x44 }
  - { offset: 0x5FAC0, size: 0x8, addend: 0x0, symName: __RNcNtINtNtCs6IAuOt8vWmF_3syn10punctuated4PairQNtNtB8_2ty4TypeQNtNtB8_5token5CommaE3End0CscdP1gRbl3Ff_20pin_project_internal, symObjAddr: 0x127C, symBinAddr: 0x2DA78, symSize: 0x1C }
  - { offset: 0x5FAFC, size: 0x8, addend: 0x0, symName: __RNcNtINtNtCs6IAuOt8vWmF_3syn10punctuated4PairQNtNtB8_2ty9BareFnArgQNtNtB8_5token5CommaE3End0CscdP1gRbl3Ff_20pin_project_internal, symObjAddr: 0x1298, symBinAddr: 0x2DA94, symSize: 0x1C }
  - { offset: 0x5FB38, size: 0x8, addend: 0x0, symName: __RNcNtINtNtCs6IAuOt8vWmF_3syn10punctuated4PairQNtNtB8_3pat3PatQNtNtB8_5token2OrE3End0CscdP1gRbl3Ff_20pin_project_internal, symObjAddr: 0x12B4, symBinAddr: 0x2DAB0, symSize: 0x1C }
  - { offset: 0x5FB74, size: 0x8, addend: 0x0, symName: __RNcNtINtNtCs6IAuOt8vWmF_3syn10punctuated4PairQNtNtB8_3pat3PatQNtNtB8_5token5CommaE3End0CscdP1gRbl3Ff_20pin_project_internal, symObjAddr: 0x12D0, symBinAddr: 0x2DACC, symSize: 0x1C }
  - { offset: 0x5FBB0, size: 0x8, addend: 0x0, symName: __RNcNtINtNtCs6IAuOt8vWmF_3syn10punctuated4PairQNtNtB8_3pat8FieldPatQNtNtB8_5token5CommaE3End0CscdP1gRbl3Ff_20pin_project_internal, symObjAddr: 0x12EC, symBinAddr: 0x2DAE8, symSize: 0x1C }
  - { offset: 0x5FBEC, size: 0x8, addend: 0x0, symName: __RNcNtINtNtCs6IAuOt8vWmF_3syn10punctuated4PairQNtNtB8_4data5FieldQNtNtB8_5token5CommaE3End0CscdP1gRbl3Ff_20pin_project_internal, symObjAddr: 0x1308, symBinAddr: 0x2DB04, symSize: 0x1C }
  - { offset: 0x5FC28, size: 0x8, addend: 0x0, symName: __RNcNtINtNtCs6IAuOt8vWmF_3syn10punctuated4PairQNtNtB8_4data7VariantQNtNtB8_5token5CommaE3End0CscdP1gRbl3Ff_20pin_project_internal, symObjAddr: 0x1324, symBinAddr: 0x2DB20, symSize: 0x1C }
  - { offset: 0x5FC64, size: 0x8, addend: 0x0, symName: __RNcNtINtNtCs6IAuOt8vWmF_3syn10punctuated4PairQNtNtB8_4expr10FieldValueQNtNtB8_5token5CommaE3End0CscdP1gRbl3Ff_20pin_project_internal, symObjAddr: 0x1340, symBinAddr: 0x2DB3C, symSize: 0x1C }
  - { offset: 0x5FCA0, size: 0x8, addend: 0x0, symName: __RNcNtINtNtCs6IAuOt8vWmF_3syn10punctuated4PairQNtNtB8_4expr4ExprQNtNtB8_5token5CommaE3End0CscdP1gRbl3Ff_20pin_project_internal, symObjAddr: 0x135C, symBinAddr: 0x2DB58, symSize: 0x1C }
  - { offset: 0x5FCDC, size: 0x8, addend: 0x0, symName: __RNcNtINtNtCs6IAuOt8vWmF_3syn10punctuated4PairQNtNtB8_4item5FnArgQNtNtB8_5token5CommaE3End0CscdP1gRbl3Ff_20pin_project_internal, symObjAddr: 0x1378, symBinAddr: 0x2DB74, symSize: 0x1C }
  - { offset: 0x5FD18, size: 0x8, addend: 0x0, symName: __RNcNtINtNtCs6IAuOt8vWmF_3syn10punctuated4PairQNtNtB8_4item7UseTreeQNtNtB8_5token5CommaE3End0CscdP1gRbl3Ff_20pin_project_internal, symObjAddr: 0x1394, symBinAddr: 0x2DB90, symSize: 0x1C }
  - { offset: 0x5FD54, size: 0x8, addend: 0x0, symName: __RNcNtINtNtCs6IAuOt8vWmF_3syn10punctuated4PairQNtNtB8_4path11PathSegmentQNtNtB8_5token7PathSepE3End0CscdP1gRbl3Ff_20pin_project_internal, symObjAddr: 0x13B0, symBinAddr: 0x2DBAC, symSize: 0x1C }
  - { offset: 0x5FD90, size: 0x8, addend: 0x0, symName: __RNcNtINtNtCs6IAuOt8vWmF_3syn10punctuated4PairQNtNtB8_4path15GenericArgumentQNtNtB8_5token5CommaE3End0CscdP1gRbl3Ff_20pin_project_internal, symObjAddr: 0x13CC, symBinAddr: 0x2DBC8, symSize: 0x1C }
  - { offset: 0x5FDCC, size: 0x8, addend: 0x0, symName: __RNcNtINtNtCs6IAuOt8vWmF_3syn10punctuated4PairQNtNtB8_8generics12GenericParamQNtNtB8_5token5CommaE3End0CscdP1gRbl3Ff_20pin_project_internal, symObjAddr: 0x13E8, symBinAddr: 0x2DBE4, symSize: 0x1C }
  - { offset: 0x5FE08, size: 0x8, addend: 0x0, symName: __RNcNtINtNtCs6IAuOt8vWmF_3syn10punctuated4PairQNtNtB8_8generics13CapturedParamQNtNtB8_5token5CommaE3End0CscdP1gRbl3Ff_20pin_project_internal, symObjAddr: 0x1404, symBinAddr: 0x2DC00, symSize: 0x1C }
  - { offset: 0x5FE44, size: 0x8, addend: 0x0, symName: __RNcNtINtNtCs6IAuOt8vWmF_3syn10punctuated4PairQNtNtB8_8generics14TypeParamBoundQNtNtB8_5token4PlusE3End0CscdP1gRbl3Ff_20pin_project_internal, symObjAddr: 0x1420, symBinAddr: 0x2DC1C, symSize: 0x1C }
  - { offset: 0x5FE80, size: 0x8, addend: 0x0, symName: __RNcNtINtNtCs6IAuOt8vWmF_3syn10punctuated4PairQNtNtB8_8generics14WherePredicateQNtNtB8_5token5CommaE3End0CscdP1gRbl3Ff_20pin_project_internal, symObjAddr: 0x143C, symBinAddr: 0x2DC38, symSize: 0x1C }
  - { offset: 0x5FEBC, size: 0x8, addend: 0x0, symName: __RNcNtINtNtCs6IAuOt8vWmF_3syn10punctuated4PairQNtNtB8_8lifetime8LifetimeQNtNtB8_5token4PlusE3End0CscdP1gRbl3Ff_20pin_project_internal, symObjAddr: 0x1458, symBinAddr: 0x2DC54, symSize: 0x1C }
  - { offset: 0x610AF, size: 0x8, addend: 0x0, symName: __RNvXs9_NtCs6IAuOt8vWmF_3syn10punctuatedRINtB5_10PunctuatedNtNtB7_4data5FieldNtNtB7_5token5CommaENtNtNtNtCsfvfooZQ3Axs_4core4iter6traits7collect12IntoIterator9into_iterCscdP1gRbl3Ff_20pin_project_internal, symObjAddr: 0x3AAC, symBinAddr: 0x302A8, symSize: 0x34 }
  - { offset: 0x610EF, size: 0x8, addend: 0x0, symName: __RNvXs9_NtCs6IAuOt8vWmF_3syn10punctuatedRINtB5_10PunctuatedNtNtB7_4data7VariantNtNtB7_5token5CommaENtNtNtNtCsfvfooZQ3Axs_4core4iter6traits7collect12IntoIterator9into_iterCscdP1gRbl3Ff_20pin_project_internal, symObjAddr: 0x3AE0, symBinAddr: 0x302DC, symSize: 0x34 }
  - { offset: 0x61135, size: 0x8, addend: 0x0, symName: __RNvXsA_NtCs6IAuOt8vWmF_3syn10punctuatedINtB5_11PrivateIterNtNtB7_4data7VariantNtNtB7_5token5CommaEINtB5_9IterTraitBU_E9clone_boxCscdP1gRbl3Ff_20pin_project_internal, symObjAddr: 0x3B14, symBinAddr: 0x30310, symSize: 0x94 }
  - { offset: 0x61193, size: 0x8, addend: 0x0, symName: __RNvXsA_NtCs6IAuOt8vWmF_3syn10punctuatedINtB5_11PrivateIterNtNtB7_4path15GenericArgumentNtNtB7_5token5CommaEINtB5_9IterTraitBU_E9clone_boxCscdP1gRbl3Ff_20pin_project_internal, symObjAddr: 0x3BA8, symBinAddr: 0x303A4, symSize: 0x94 }
  - { offset: 0x611F7, size: 0x8, addend: 0x0, symName: __RNvXsC_NtCs6IAuOt8vWmF_3syn10punctuatedINtB5_7IterMutNtNtB7_4path11PathSegmentENtNtNtNtCsfvfooZQ3Axs_4core4iter6traits8iterator8Iterator4nextCscdP1gRbl3Ff_20pin_project_internal, symObjAddr: 0x3C3C, symBinAddr: 0x30438, symSize: 0x48 }
  - { offset: 0x61234, size: 0x8, addend: 0x0, symName: __RNvXsN_NtCs6IAuOt8vWmF_3syn10punctuatedINtB5_10PunctuatedNtNtB7_4item5FnArgNtNtB7_5token5CommaEINtNtNtCsfvfooZQ3Axs_4core3ops5index5IndexjE5indexCscdP1gRbl3Ff_20pin_project_internal, symObjAddr: 0x3C84, symBinAddr: 0x30480, symSize: 0x134 }
  - { offset: 0x6129F, size: 0x8, addend: 0x0, symName: __RNvXsO_NtCs6IAuOt8vWmF_3syn10punctuatedINtB5_10PunctuatedNtNtB7_4item5FnArgNtNtB7_5token5CommaEINtNtNtCsfvfooZQ3Axs_4core3ops5index8IndexMutjE9index_mutCscdP1gRbl3Ff_20pin_project_internal, symObjAddr: 0x3DB8, symBinAddr: 0x305B4, symSize: 0x134 }
  - { offset: 0x61304, size: 0x8, addend: 0x0, symName: __RNvXsO_NtCs6IAuOt8vWmF_3syn10punctuatedINtB5_10PunctuatedNtNtB7_4path11PathSegmentNtNtB7_5token7PathSepEINtNtNtCsfvfooZQ3Axs_4core3ops5index8IndexMutjE9index_mutCscdP1gRbl3Ff_20pin_project_internal, symObjAddr: 0x3EEC, symBinAddr: 0x306E8, symSize: 0x134 }
  - { offset: 0x6136F, size: 0x8, addend: 0x0, symName: __RNvXsa_NtCs6IAuOt8vWmF_3syn10punctuatedQINtB5_10PunctuatedNtNtB7_4path11PathSegmentNtNtB7_5token7PathSepENtNtNtNtCsfvfooZQ3Axs_4core4iter6traits7collect12IntoIterator9into_iterCscdP1gRbl3Ff_20pin_project_internal, symObjAddr: 0x4020, symBinAddr: 0x3081C, symSize: 0x34 }
  - { offset: 0x613B5, size: 0x8, addend: 0x0, symName: __RNvXsb_NtCs6IAuOt8vWmF_3syn10punctuatedINtB5_10PunctuatedNtNtB7_4path11PathSegmentNtNtB7_5token7PathSepENtNtCsfvfooZQ3Axs_4core7default7Default7defaultCscdP1gRbl3Ff_20pin_project_internal, symObjAddr: 0x4054, symBinAddr: 0x30850, symSize: 0x24 }
  - { offset: 0x613EC, size: 0x8, addend: 0x0, symName: __RNvXsn_NtCs6IAuOt8vWmF_3syn10punctuatedINtB5_8IntoIterNtNtB7_4attr4MetaENtNtNtNtCsfvfooZQ3Axs_4core4iter6traits8iterator8Iterator4nextCscdP1gRbl3Ff_20pin_project_internal, symObjAddr: 0x4A54, symBinAddr: 0x31250, symSize: 0x34 }
  - { offset: 0x61429, size: 0x8, addend: 0x0, symName: __RNvXst_NtCs6IAuOt8vWmF_3syn10punctuatedINtB5_4IterNtNtB7_4data7VariantENtNtNtNtCsfvfooZQ3Axs_4core4iter6traits8iterator8Iterator4nextCscdP1gRbl3Ff_20pin_project_internal, symObjAddr: 0x4A88, symBinAddr: 0x31284, symSize: 0x48 }
  - { offset: 0x61460, size: 0x8, addend: 0x0, symName: __RNvXst_NtCs6IAuOt8vWmF_3syn10punctuatedINtB5_4IterNtNtB7_4path15GenericArgumentENtNtNtNtCsfvfooZQ3Axs_4core4iter6traits8iterator8Iterator4nextCscdP1gRbl3Ff_20pin_project_internal, symObjAddr: 0x4AD0, symBinAddr: 0x312CC, symSize: 0x48 }
  - { offset: 0x6149D, size: 0x8, addend: 0x0, symName: __RNvXsy_NtCs6IAuOt8vWmF_3syn10punctuatedINtB5_11PrivateIterNtNtB7_4data7VariantNtNtB7_5token5CommaENtNtNtNtCsfvfooZQ3Axs_4core4iter6traits10exact_size17ExactSizeIterator3lenCscdP1gRbl3Ff_20pin_project_internal, symObjAddr: 0x4C20, symBinAddr: 0x3141C, symSize: 0x94 }
  - { offset: 0x61511, size: 0x8, addend: 0x0, symName: __RNvXsy_NtCs6IAuOt8vWmF_3syn10punctuatedINtB5_11PrivateIterNtNtB7_4path15GenericArgumentNtNtB7_5token5CommaENtNtNtNtCsfvfooZQ3Axs_4core4iter6traits10exact_size17ExactSizeIterator3lenCscdP1gRbl3Ff_20pin_project_internal, symObjAddr: 0x4CB4, symBinAddr: 0x314B0, symSize: 0x94 }
  - { offset: 0x6158B, size: 0x8, addend: 0x0, symName: __RNvXsz_NtCs6IAuOt8vWmF_3syn10punctuatedINtB5_11PrivateIterNtNtB7_4data7VariantNtNtB7_5token5CommaENtNtCsfvfooZQ3Axs_4core5clone5Clone5cloneCscdP1gRbl3Ff_20pin_project_internal, symObjAddr: 0x4D48, symBinAddr: 0x31544, symSize: 0x68 }
  - { offset: 0x615CB, size: 0x8, addend: 0x0, symName: __RNvXsz_NtCs6IAuOt8vWmF_3syn10punctuatedINtB5_11PrivateIterNtNtB7_4path15GenericArgumentNtNtB7_5token5CommaENtNtCsfvfooZQ3Axs_4core5clone5Clone5cloneCscdP1gRbl3Ff_20pin_project_internal, symObjAddr: 0x4DB0, symBinAddr: 0x315AC, symSize: 0x68 }
  - { offset: 0x660F7, size: 0x8, addend: 0x0, symName: __RNvXsh_NtCs6IAuOt8vWmF_3syn5parseNvMNtB7_10punctuatedINtBy_10PunctuatedNtNtB7_4attr4MetaNtNtB7_5token5CommaE16parse_terminatedNtB5_6Parser14___parse_scopedCscdP1gRbl3Ff_20pin_project_internal, symObjAddr: 0x46A8, symBinAddr: 0x30EA4, symSize: 0x3AC }
  - { offset: 0x6BDDA, size: 0x8, addend: 0x0, symName: __RINvYINtNtCs6IAuOt8vWmF_3syn10punctuated4IterNtNtB8_4data7VariantENtNtNtNtCsfvfooZQ3Axs_4core4iter6traits8iterator8Iterator8try_foldbNCNvNtNtCscdP1gRbl3Ff_20pin_project_internal11pin_project6derive13validate_enum0INtNtB1a_6result6ResultbNtNtB8_5error5ErrorEEB2f_, symObjAddr: 0x5C8, symBinAddr: 0x2CDC4, symSize: 0x170 }
  - { offset: 0x6BE95, size: 0x8, addend: 0x0, symName: __RNvYINtNtCs6IAuOt8vWmF_3syn10punctuated11PrivateIterNtNtB7_4data7VariantNtNtB7_5token5CommaENtNtNtNtCsfvfooZQ3Axs_4core4iter6traits8iterator8Iterator10advance_byCscdP1gRbl3Ff_20pin_project_internal, symObjAddr: 0x506C, symBinAddr: 0x31868, symSize: 0x134 }
  - { offset: 0x6BFEB, size: 0x8, addend: 0x0, symName: __RNvYINtNtCs6IAuOt8vWmF_3syn10punctuated11PrivateIterNtNtB7_4data7VariantNtNtB7_5token5CommaENtNtNtNtCsfvfooZQ3Axs_4core4iter6traits8iterator8Iterator3nthCscdP1gRbl3Ff_20pin_project_internal, symObjAddr: 0x51A0, symBinAddr: 0x3199C, symSize: 0x80 }
  - { offset: 0x6C0B7, size: 0x8, addend: 0x0, symName: __RNvYINtNtCs6IAuOt8vWmF_3syn10punctuated11PrivateIterNtNtB7_4data7VariantNtNtB7_5token5CommaENtNtNtNtCsfvfooZQ3Axs_4core4iter6traits8iterator8Iterator9size_hintCscdP1gRbl3Ff_20pin_project_internal, symObjAddr: 0x5220, symBinAddr: 0x31A1C, symSize: 0x34 }
  - { offset: 0x6C0EC, size: 0x8, addend: 0x0, symName: __RNvYINtNtCs6IAuOt8vWmF_3syn10punctuated11PrivateIterNtNtB7_4path15GenericArgumentNtNtB7_5token5CommaENtNtNtNtCsfvfooZQ3Axs_4core4iter6traits8iterator8Iterator10advance_byCscdP1gRbl3Ff_20pin_project_internal, symObjAddr: 0x541C, symBinAddr: 0x31C18, symSize: 0x134 }
  - { offset: 0x6C242, size: 0x8, addend: 0x0, symName: __RNvYINtNtCs6IAuOt8vWmF_3syn10punctuated11PrivateIterNtNtB7_4path15GenericArgumentNtNtB7_5token5CommaENtNtNtNtCsfvfooZQ3Axs_4core4iter6traits8iterator8Iterator3nthCscdP1gRbl3Ff_20pin_project_internal, symObjAddr: 0x5550, symBinAddr: 0x31D4C, symSize: 0x80 }
  - { offset: 0x6C30E, size: 0x8, addend: 0x0, symName: __RNvYINtNtCs6IAuOt8vWmF_3syn10punctuated11PrivateIterNtNtB7_4path15GenericArgumentNtNtB7_5token5CommaENtNtNtNtCsfvfooZQ3Axs_4core4iter6traits8iterator8Iterator9size_hintCscdP1gRbl3Ff_20pin_project_internal, symObjAddr: 0x55D0, symBinAddr: 0x31DCC, symSize: 0x34 }
  - { offset: 0x6C343, size: 0x8, addend: 0x0, symName: __RNvYINtNtCs6IAuOt8vWmF_3syn10punctuated4IterNtNtB7_4data5FieldENtNtNtNtCsfvfooZQ3Axs_4core4iter6traits8iterator8Iterator9enumerateCscdP1gRbl3Ff_20pin_project_internal, symObjAddr: 0x5604, symBinAddr: 0x31E00, symSize: 0x28 }
  - { offset: 0x6C38F, size: 0x8, addend: 0x0, symName: __RNvYINtNtCs6IAuOt8vWmF_3syn10punctuated9IntoPairsNtNtB7_4path11PathSegmentNtNtB7_5token7PathSepENtNtNtNtCsfvfooZQ3Axs_4core4iter6traits8iterator8Iterator10advance_byCscdP1gRbl3Ff_20pin_project_internal, symObjAddr: 0x562C, symBinAddr: 0x31E28, symSize: 0x15C }
  - { offset: 0x6C4E8, size: 0x8, addend: 0x0, symName: __RNvYINtNtCs6IAuOt8vWmF_3syn10punctuated9IntoPairsNtNtB7_4path11PathSegmentNtNtB7_5token7PathSepENtNtNtNtCsfvfooZQ3Axs_4core4iter6traits8iterator8Iterator3nthCscdP1gRbl3Ff_20pin_project_internal, symObjAddr: 0x5788, symBinAddr: 0x31F84, symSize: 0x88 }
  - { offset: 0x6C5B4, size: 0x8, addend: 0x0, symName: __RNvYINtNtCs6IAuOt8vWmF_3syn10punctuated9IntoPairsNtNtB7_4path11PathSegmentNtNtB7_5token7PathSepENtNtNtNtCsfvfooZQ3Axs_4core4iter6traits8iterator8Iterator4skipCscdP1gRbl3Ff_20pin_project_internal, symObjAddr: 0x5810, symBinAddr: 0x3200C, symSize: 0x50 }
  - { offset: 0x6C61C, size: 0x8, addend: 0x0, symName: __RNvXNtNtNtCsfvfooZQ3Axs_4core4iter6traits7collectINtNtCs6IAuOt8vWmF_3syn10punctuated8PairsMutNtNtBQ_2ty4TypeNtNtBQ_5token5CommaENtB2_12IntoIterator9into_iterCscdP1gRbl3Ff_20pin_project_internal, symObjAddr: 0x373C, symBinAddr: 0x2FF38, symSize: 0x18 }
  - { offset: 0x6C653, size: 0x8, addend: 0x0, symName: __RNvXNtNtNtCsfvfooZQ3Axs_4core4iter6traits7collectINtNtCs6IAuOt8vWmF_3syn10punctuated8PairsMutNtNtBQ_2ty9BareFnArgNtNtBQ_5token5CommaENtB2_12IntoIterator9into_iterCscdP1gRbl3Ff_20pin_project_internal, symObjAddr: 0x3754, symBinAddr: 0x2FF50, symSize: 0x18 }
  - { offset: 0x6C68A, size: 0x8, addend: 0x0, symName: __RNvXNtNtNtCsfvfooZQ3Axs_4core4iter6traits7collectINtNtCs6IAuOt8vWmF_3syn10punctuated8PairsMutNtNtBQ_3pat3PatNtNtBQ_5token2OrENtB2_12IntoIterator9into_iterCscdP1gRbl3Ff_20pin_project_internal, symObjAddr: 0x376C, symBinAddr: 0x2FF68, symSize: 0x18 }
  - { offset: 0x6C6C1, size: 0x8, addend: 0x0, symName: __RNvXNtNtNtCsfvfooZQ3Axs_4core4iter6traits7collectINtNtCs6IAuOt8vWmF_3syn10punctuated8PairsMutNtNtBQ_3pat3PatNtNtBQ_5token5CommaENtB2_12IntoIterator9into_iterCscdP1gRbl3Ff_20pin_project_internal, symObjAddr: 0x3784, symBinAddr: 0x2FF80, symSize: 0x18 }
  - { offset: 0x6C6F8, size: 0x8, addend: 0x0, symName: __RNvXNtNtNtCsfvfooZQ3Axs_4core4iter6traits7collectINtNtCs6IAuOt8vWmF_3syn10punctuated8PairsMutNtNtBQ_3pat8FieldPatNtNtBQ_5token5CommaENtB2_12IntoIterator9into_iterCscdP1gRbl3Ff_20pin_project_internal, symObjAddr: 0x379C, symBinAddr: 0x2FF98, symSize: 0x18 }
  - { offset: 0x6C72F, size: 0x8, addend: 0x0, symName: __RNvXNtNtNtCsfvfooZQ3Axs_4core4iter6traits7collectINtNtCs6IAuOt8vWmF_3syn10punctuated8PairsMutNtNtBQ_4data5FieldNtNtBQ_5token5CommaENtB2_12IntoIterator9into_iterCscdP1gRbl3Ff_20pin_project_internal, symObjAddr: 0x37B4, symBinAddr: 0x2FFB0, symSize: 0x18 }
  - { offset: 0x6C766, size: 0x8, addend: 0x0, symName: __RNvXNtNtNtCsfvfooZQ3Axs_4core4iter6traits7collectINtNtCs6IAuOt8vWmF_3syn10punctuated8PairsMutNtNtBQ_4data7VariantNtNtBQ_5token5CommaENtB2_12IntoIterator9into_iterCscdP1gRbl3Ff_20pin_project_internal, symObjAddr: 0x37CC, symBinAddr: 0x2FFC8, symSize: 0x18 }
  - { offset: 0x6C79D, size: 0x8, addend: 0x0, symName: __RNvXNtNtNtCsfvfooZQ3Axs_4core4iter6traits7collectINtNtCs6IAuOt8vWmF_3syn10punctuated8PairsMutNtNtBQ_4expr10FieldValueNtNtBQ_5token5CommaENtB2_12IntoIterator9into_iterCscdP1gRbl3Ff_20pin_project_internal, symObjAddr: 0x37E4, symBinAddr: 0x2FFE0, symSize: 0x18 }
  - { offset: 0x6C7D4, size: 0x8, addend: 0x0, symName: __RNvXNtNtNtCsfvfooZQ3Axs_4core4iter6traits7collectINtNtCs6IAuOt8vWmF_3syn10punctuated8PairsMutNtNtBQ_4expr4ExprNtNtBQ_5token5CommaENtB2_12IntoIterator9into_iterCscdP1gRbl3Ff_20pin_project_internal, symObjAddr: 0x37FC, symBinAddr: 0x2FFF8, symSize: 0x18 }
  - { offset: 0x6C80B, size: 0x8, addend: 0x0, symName: __RNvXNtNtNtCsfvfooZQ3Axs_4core4iter6traits7collectINtNtCs6IAuOt8vWmF_3syn10punctuated8PairsMutNtNtBQ_4item5FnArgNtNtBQ_5token5CommaENtB2_12IntoIterator9into_iterCscdP1gRbl3Ff_20pin_project_internal, symObjAddr: 0x3814, symBinAddr: 0x30010, symSize: 0x18 }
  - { offset: 0x6C842, size: 0x8, addend: 0x0, symName: __RNvXNtNtNtCsfvfooZQ3Axs_4core4iter6traits7collectINtNtCs6IAuOt8vWmF_3syn10punctuated8PairsMutNtNtBQ_4item7UseTreeNtNtBQ_5token5CommaENtB2_12IntoIterator9into_iterCscdP1gRbl3Ff_20pin_project_internal, symObjAddr: 0x382C, symBinAddr: 0x30028, symSize: 0x18 }
  - { offset: 0x6C879, size: 0x8, addend: 0x0, symName: __RNvXNtNtNtCsfvfooZQ3Axs_4core4iter6traits7collectINtNtCs6IAuOt8vWmF_3syn10punctuated8PairsMutNtNtBQ_4path11PathSegmentNtNtBQ_5token7PathSepENtB2_12IntoIterator9into_iterCscdP1gRbl3Ff_20pin_project_internal, symObjAddr: 0x3844, symBinAddr: 0x30040, symSize: 0x18 }
  - { offset: 0x6C8B0, size: 0x8, addend: 0x0, symName: __RNvXNtNtNtCsfvfooZQ3Axs_4core4iter6traits7collectINtNtCs6IAuOt8vWmF_3syn10punctuated8PairsMutNtNtBQ_4path15GenericArgumentNtNtBQ_5token5CommaENtB2_12IntoIterator9into_iterCscdP1gRbl3Ff_20pin_project_internal, symObjAddr: 0x385C, symBinAddr: 0x30058, symSize: 0x18 }
  - { offset: 0x6C8E7, size: 0x8, addend: 0x0, symName: __RNvXNtNtNtCsfvfooZQ3Axs_4core4iter6traits7collectINtNtCs6IAuOt8vWmF_3syn10punctuated8PairsMutNtNtBQ_8generics12GenericParamNtNtBQ_5token5CommaENtB2_12IntoIterator9into_iterCscdP1gRbl3Ff_20pin_project_internal, symObjAddr: 0x3874, symBinAddr: 0x30070, symSize: 0x18 }
  - { offset: 0x6C91E, size: 0x8, addend: 0x0, symName: __RNvXNtNtNtCsfvfooZQ3Axs_4core4iter6traits7collectINtNtCs6IAuOt8vWmF_3syn10punctuated8PairsMutNtNtBQ_8generics13CapturedParamNtNtBQ_5token5CommaENtB2_12IntoIterator9into_iterCscdP1gRbl3Ff_20pin_project_internal, symObjAddr: 0x388C, symBinAddr: 0x30088, symSize: 0x18 }
  - { offset: 0x6C955, size: 0x8, addend: 0x0, symName: __RNvXNtNtNtCsfvfooZQ3Axs_4core4iter6traits7collectINtNtCs6IAuOt8vWmF_3syn10punctuated8PairsMutNtNtBQ_8generics14TypeParamBoundNtNtBQ_5token4PlusENtB2_12IntoIterator9into_iterCscdP1gRbl3Ff_20pin_project_internal, symObjAddr: 0x38A4, symBinAddr: 0x300A0, symSize: 0x18 }
  - { offset: 0x6C98C, size: 0x8, addend: 0x0, symName: __RNvXNtNtNtCsfvfooZQ3Axs_4core4iter6traits7collectINtNtCs6IAuOt8vWmF_3syn10punctuated8PairsMutNtNtBQ_8generics14WherePredicateNtNtBQ_5token5CommaENtB2_12IntoIterator9into_iterCscdP1gRbl3Ff_20pin_project_internal, symObjAddr: 0x38BC, symBinAddr: 0x300B8, symSize: 0x18 }
  - { offset: 0x6C9C3, size: 0x8, addend: 0x0, symName: __RNvXNtNtNtCsfvfooZQ3Axs_4core4iter6traits7collectINtNtCs6IAuOt8vWmF_3syn10punctuated8PairsMutNtNtBQ_8lifetime8LifetimeNtNtBQ_5token4PlusENtB2_12IntoIterator9into_iterCscdP1gRbl3Ff_20pin_project_internal, symObjAddr: 0x38D4, symBinAddr: 0x300D0, symSize: 0x18 }
  - { offset: 0x6CA06, size: 0x8, addend: 0x0, symName: __RNvYINtNtCs6IAuOt8vWmF_3syn10punctuated11PrivateIterNtNtB7_4data7VariantNtNtB7_5token5CommaENtNtNtNtCsfvfooZQ3Axs_4core4iter6traits10exact_size17ExactSizeIterator8is_emptyCscdP1gRbl3Ff_20pin_project_internal, symObjAddr: 0x4EA4, symBinAddr: 0x316A0, symSize: 0x2C }
  - { offset: 0x6CA3B, size: 0x8, addend: 0x0, symName: __RNvYINtNtCs6IAuOt8vWmF_3syn10punctuated11PrivateIterNtNtB7_4path15GenericArgumentNtNtB7_5token5CommaENtNtNtNtCsfvfooZQ3Axs_4core4iter6traits10exact_size17ExactSizeIterator8is_emptyCscdP1gRbl3Ff_20pin_project_internal, symObjAddr: 0x5254, symBinAddr: 0x31A50, symSize: 0x2C }
  - { offset: 0x6CA7C, size: 0x8, addend: 0x0, symName: __RNvYINtNtCs6IAuOt8vWmF_3syn10punctuated11PrivateIterNtNtB7_4data7VariantNtNtB7_5token5CommaENtNtNtNtCsfvfooZQ3Axs_4core4iter6traits12double_ended19DoubleEndedIterator15advance_back_byCscdP1gRbl3Ff_20pin_project_internal, symObjAddr: 0x4ED0, symBinAddr: 0x316CC, symSize: 0x134 }
  - { offset: 0x6CBCA, size: 0x8, addend: 0x0, symName: __RNvYINtNtCs6IAuOt8vWmF_3syn10punctuated11PrivateIterNtNtB7_4data7VariantNtNtB7_5token5CommaENtNtNtNtCsfvfooZQ3Axs_4core4iter6traits12double_ended19DoubleEndedIterator8nth_backCscdP1gRbl3Ff_20pin_project_internal, symObjAddr: 0x5004, symBinAddr: 0x31800, symSize: 0x68 }
  - { offset: 0x6CC48, size: 0x8, addend: 0x0, symName: __RNvYINtNtCs6IAuOt8vWmF_3syn10punctuated11PrivateIterNtNtB7_4path15GenericArgumentNtNtB7_5token5CommaENtNtNtNtCsfvfooZQ3Axs_4core4iter6traits12double_ended19DoubleEndedIterator15advance_back_byCscdP1gRbl3Ff_20pin_project_internal, symObjAddr: 0x5280, symBinAddr: 0x31A7C, symSize: 0x134 }
  - { offset: 0x6CD96, size: 0x8, addend: 0x0, symName: __RNvYINtNtCs6IAuOt8vWmF_3syn10punctuated11PrivateIterNtNtB7_4path15GenericArgumentNtNtB7_5token5CommaENtNtNtNtCsfvfooZQ3Axs_4core4iter6traits12double_ended19DoubleEndedIterator8nth_backCscdP1gRbl3Ff_20pin_project_internal, symObjAddr: 0x53B4, symBinAddr: 0x31BB0, symSize: 0x68 }
  - { offset: 0x6DC27, size: 0x8, addend: 0x0, symName: __RNvMNtCs6IAuOt8vWmF_3syn10punctuatedINtB2_10PunctuatedNtNtB4_2ty4TypeNtNtB4_5token5CommaE9pairs_mutCscdP1gRbl3Ff_20pin_project_internal, symObjAddr: 0x1474, symBinAddr: 0x2DC70, symSize: 0x74 }
  - { offset: 0x6DC9C, size: 0x8, addend: 0x0, symName: __RNvMNtCs6IAuOt8vWmF_3syn10punctuatedINtB2_10PunctuatedNtNtB4_2ty9BareFnArgNtNtB4_5token5CommaE9pairs_mutCscdP1gRbl3Ff_20pin_project_internal, symObjAddr: 0x14E8, symBinAddr: 0x2DCE4, symSize: 0x74 }
  - { offset: 0x6DD11, size: 0x8, addend: 0x0, symName: __RNvMNtCs6IAuOt8vWmF_3syn10punctuatedINtB2_10PunctuatedNtNtB4_3pat3PatNtNtB4_5token2OrE9pairs_mutCscdP1gRbl3Ff_20pin_project_internal, symObjAddr: 0x155C, symBinAddr: 0x2DD58, symSize: 0x74 }
  - { offset: 0x6DD79, size: 0x8, addend: 0x0, symName: __RNvMNtCs6IAuOt8vWmF_3syn10punctuatedINtB2_10PunctuatedNtNtB4_3pat3PatNtNtB4_5token5CommaE9pairs_mutCscdP1gRbl3Ff_20pin_project_internal, symObjAddr: 0x15D0, symBinAddr: 0x2DDCC, symSize: 0x74 }
  - { offset: 0x6DDEE, size: 0x8, addend: 0x0, symName: __RNvMNtCs6IAuOt8vWmF_3syn10punctuatedINtB2_10PunctuatedNtNtB4_3pat8FieldPatNtNtB4_5token5CommaE9pairs_mutCscdP1gRbl3Ff_20pin_project_internal, symObjAddr: 0x1644, symBinAddr: 0x2DE40, symSize: 0x74 }
  - { offset: 0x6DEB0, size: 0x8, addend: 0x0, symName: __RNvMNtCs6IAuOt8vWmF_3syn10punctuatedINtB2_10PunctuatedNtNtB4_4attr4MetaNtNtB4_5token5CommaE10push_punctCscdP1gRbl3Ff_20pin_project_internal, symObjAddr: 0x16B8, symBinAddr: 0x2DEB4, symSize: 0x200 }
  - { offset: 0x6DF2E, size: 0x8, addend: 0x0, symName: __RNvMNtCs6IAuOt8vWmF_3syn10punctuatedINtB2_10PunctuatedNtNtB4_4attr4MetaNtNtB4_5token5CommaE10push_valueCscdP1gRbl3Ff_20pin_project_internal, symObjAddr: 0x18B8, symBinAddr: 0x2E0B4, symSize: 0x1B4 }
  - { offset: 0x6DFEB, size: 0x8, addend: 0x0, symName: __RNvMNtCs6IAuOt8vWmF_3syn10punctuatedINtB2_10PunctuatedNtNtB4_4attr4MetaNtNtB4_5token5CommaE16parse_terminatedCscdP1gRbl3Ff_20pin_project_internal, symObjAddr: 0x1A6C, symBinAddr: 0x2E268, symSize: 0x3C }
  - { offset: 0x6E02D, size: 0x8, addend: 0x0, symName: __RNvMNtCs6IAuOt8vWmF_3syn10punctuatedINtB2_10PunctuatedNtNtB4_4attr4MetaNtNtB4_5token5CommaE17empty_or_trailingCscdP1gRbl3Ff_20pin_project_internal, symObjAddr: 0x1AA8, symBinAddr: 0x2E2A4, symSize: 0x34 }
  - { offset: 0x6E079, size: 0x8, addend: 0x0, symName: __RNvMNtCs6IAuOt8vWmF_3syn10punctuatedINtB2_10PunctuatedNtNtB4_4attr4MetaNtNtB4_5token5CommaE21parse_terminated_withCscdP1gRbl3Ff_20pin_project_internal, symObjAddr: 0x1ADC, symBinAddr: 0x2E2D8, symSize: 0x370 }
  - { offset: 0x6E17E, size: 0x8, addend: 0x0, symName: __RNvMNtCs6IAuOt8vWmF_3syn10punctuatedINtB2_10PunctuatedNtNtB4_4attr4MetaNtNtB4_5token5CommaE3lenCscdP1gRbl3Ff_20pin_project_internal, symObjAddr: 0x1E4C, symBinAddr: 0x2E648, symSize: 0xA0 }
  - { offset: 0x6E1B2, size: 0x8, addend: 0x0, symName: __RNvMNtCs6IAuOt8vWmF_3syn10punctuatedINtB2_10PunctuatedNtNtB4_4attr4MetaNtNtB4_5token5CommaE3newCscdP1gRbl3Ff_20pin_project_internal, symObjAddr: 0x1EEC, symBinAddr: 0x2E6E8, symSize: 0x54 }
  - { offset: 0x6E219, size: 0x8, addend: 0x0, symName: __RNvMNtCs6IAuOt8vWmF_3syn10punctuatedINtB2_10PunctuatedNtNtB4_4data5FieldNtNtB4_5token5CommaE9pairs_mutCscdP1gRbl3Ff_20pin_project_internal, symObjAddr: 0x1F40, symBinAddr: 0x2E73C, symSize: 0x74 }
  - { offset: 0x6E2AF, size: 0x8, addend: 0x0, symName: __RNvMNtCs6IAuOt8vWmF_3syn10punctuatedINtB2_10PunctuatedNtNtB4_4data7VariantNtNtB4_5token5CommaE4iterCscdP1gRbl3Ff_20pin_project_internal, symObjAddr: 0x1FB4, symBinAddr: 0x2E7B0, symSize: 0xC8 }
  - { offset: 0x6E300, size: 0x8, addend: 0x0, symName: __RNvMNtCs6IAuOt8vWmF_3syn10punctuatedINtB2_10PunctuatedNtNtB4_4data7VariantNtNtB4_5token5CommaE8is_emptyCscdP1gRbl3Ff_20pin_project_internal, symObjAddr: 0x207C, symBinAddr: 0x2E878, symSize: 0x74 }
  - { offset: 0x6E368, size: 0x8, addend: 0x0, symName: __RNvMNtCs6IAuOt8vWmF_3syn10punctuatedINtB2_10PunctuatedNtNtB4_4data7VariantNtNtB4_5token5CommaE9pairs_mutCscdP1gRbl3Ff_20pin_project_internal, symObjAddr: 0x20F0, symBinAddr: 0x2E8EC, symSize: 0x74 }
  - { offset: 0x6E3DD, size: 0x8, addend: 0x0, symName: __RNvMNtCs6IAuOt8vWmF_3syn10punctuatedINtB2_10PunctuatedNtNtB4_4expr10FieldValueNtNtB4_5token5CommaE9pairs_mutCscdP1gRbl3Ff_20pin_project_internal, symObjAddr: 0x2164, symBinAddr: 0x2E960, symSize: 0x74 }
  - { offset: 0x6E452, size: 0x8, addend: 0x0, symName: __RNvMNtCs6IAuOt8vWmF_3syn10punctuatedINtB2_10PunctuatedNtNtB4_4expr4ExprNtNtB4_5token5CommaE9pairs_mutCscdP1gRbl3Ff_20pin_project_internal, symObjAddr: 0x21D8, symBinAddr: 0x2E9D4, symSize: 0x74 }
  - { offset: 0x6E493, size: 0x8, addend: 0x0, symName: __RNvMNtCs6IAuOt8vWmF_3syn10punctuatedINtB2_10PunctuatedNtNtB4_4item5FnArgNtNtB4_5token5CommaE3lenCscdP1gRbl3Ff_20pin_project_internal, symObjAddr: 0x224C, symBinAddr: 0x2EA48, symSize: 0xA0 }
  - { offset: 0x6E508, size: 0x8, addend: 0x0, symName: __RNvMNtCs6IAuOt8vWmF_3syn10punctuatedINtB2_10PunctuatedNtNtB4_4item5FnArgNtNtB4_5token5CommaE9pairs_mutCscdP1gRbl3Ff_20pin_project_internal, symObjAddr: 0x22EC, symBinAddr: 0x2EAE8, symSize: 0x74 }
  - { offset: 0x6E57D, size: 0x8, addend: 0x0, symName: __RNvMNtCs6IAuOt8vWmF_3syn10punctuatedINtB2_10PunctuatedNtNtB4_4item7UseTreeNtNtB4_5token5CommaE9pairs_mutCscdP1gRbl3Ff_20pin_project_internal, symObjAddr: 0x2360, symBinAddr: 0x2EB5C, symSize: 0x74 }
  - { offset: 0x6E5F2, size: 0x8, addend: 0x0, symName: __RNvMNtCs6IAuOt8vWmF_3syn10punctuatedINtB2_10PunctuatedNtNtB4_4path11PathSegmentNtNtB4_5token7PathSepE9pairs_mutCscdP1gRbl3Ff_20pin_project_internal, symObjAddr: 0x23D4, symBinAddr: 0x2EBD0, symSize: 0x74 }
  - { offset: 0x6E633, size: 0x8, addend: 0x0, symName: __RNvMNtCs6IAuOt8vWmF_3syn10punctuatedINtB2_10PunctuatedNtNtB4_4path15GenericArgumentNtNtB4_5token5CommaE3lenCscdP1gRbl3Ff_20pin_project_internal, symObjAddr: 0x2448, symBinAddr: 0x2EC44, symSize: 0xA0 }
  - { offset: 0x6E6A2, size: 0x8, addend: 0x0, symName: __RNvMNtCs6IAuOt8vWmF_3syn10punctuatedINtB2_10PunctuatedNtNtB4_4path15GenericArgumentNtNtB4_5token5CommaE4iterCscdP1gRbl3Ff_20pin_project_internal, symObjAddr: 0x24E8, symBinAddr: 0x2ECE4, symSize: 0xC8 }
  - { offset: 0x6E6F3, size: 0x8, addend: 0x0, symName: __RNvMNtCs6IAuOt8vWmF_3syn10punctuatedINtB2_10PunctuatedNtNtB4_4path15GenericArgumentNtNtB4_5token5CommaE5firstCscdP1gRbl3Ff_20pin_project_internal, symObjAddr: 0x25B0, symBinAddr: 0x2EDAC, symSize: 0x84 }
  - { offset: 0x6E75B, size: 0x8, addend: 0x0, symName: __RNvMNtCs6IAuOt8vWmF_3syn10punctuatedINtB2_10PunctuatedNtNtB4_4path15GenericArgumentNtNtB4_5token5CommaE9pairs_mutCscdP1gRbl3Ff_20pin_project_internal, symObjAddr: 0x2634, symBinAddr: 0x2EE30, symSize: 0x74 }
  - { offset: 0x6E79C, size: 0x8, addend: 0x0, symName: __RNvMNtCs6IAuOt8vWmF_3syn10punctuatedINtB2_10PunctuatedNtNtB4_8generics12GenericParamNtNtB4_5token5CommaE3lenCscdP1gRbl3Ff_20pin_project_internal, symObjAddr: 0x26A8, symBinAddr: 0x2EEA4, symSize: 0xA0 }
  - { offset: 0x6E7DD, size: 0x8, addend: 0x0, symName: __RNvMNtCs6IAuOt8vWmF_3syn10punctuatedINtB2_10PunctuatedNtNtB4_8generics12GenericParamNtNtB4_5token5CommaE4pushCscdP1gRbl3Ff_20pin_project_internal, symObjAddr: 0x2748, symBinAddr: 0x2EF44, symSize: 0x124 }
  - { offset: 0x6E820, size: 0x8, addend: 0x0, symName: __RNvMNtCs6IAuOt8vWmF_3syn10punctuatedINtB2_10PunctuatedNtNtB4_8generics12GenericParamNtNtB4_5token5CommaE6insertCscdP1gRbl3Ff_20pin_project_internal, symObjAddr: 0x286C, symBinAddr: 0x2F068, symSize: 0x1E4 }
  - { offset: 0x6E8A8, size: 0x8, addend: 0x0, symName: __RNvMNtCs6IAuOt8vWmF_3syn10punctuatedINtB2_10PunctuatedNtNtB4_8generics12GenericParamNtNtB4_5token5CommaE9pairs_mutCscdP1gRbl3Ff_20pin_project_internal, symObjAddr: 0x2A50, symBinAddr: 0x2F24C, symSize: 0x74 }
  - { offset: 0x6E91D, size: 0x8, addend: 0x0, symName: __RNvMNtCs6IAuOt8vWmF_3syn10punctuatedINtB2_10PunctuatedNtNtB4_8generics13CapturedParamNtNtB4_5token5CommaE9pairs_mutCscdP1gRbl3Ff_20pin_project_internal, symObjAddr: 0x2AC4, symBinAddr: 0x2F2C0, symSize: 0x74 }
  - { offset: 0x6E95E, size: 0x8, addend: 0x0, symName: __RNvMNtCs6IAuOt8vWmF_3syn10punctuatedINtB2_10PunctuatedNtNtB4_8generics14TypeParamBoundNtNtB4_5token4PlusE4pushCscdP1gRbl3Ff_20pin_project_internal, symObjAddr: 0x2B38, symBinAddr: 0x2F334, symSize: 0x11C }
  - { offset: 0x6E9D5, size: 0x8, addend: 0x0, symName: __RNvMNtCs6IAuOt8vWmF_3syn10punctuatedINtB2_10PunctuatedNtNtB4_8generics14TypeParamBoundNtNtB4_5token4PlusE9pairs_mutCscdP1gRbl3Ff_20pin_project_internal, symObjAddr: 0x2C54, symBinAddr: 0x2F450, symSize: 0x74 }
  - { offset: 0x6EA16, size: 0x8, addend: 0x0, symName: __RNvMNtCs6IAuOt8vWmF_3syn10punctuatedINtB2_10PunctuatedNtNtB4_8generics14WherePredicateNtNtB4_5token5CommaE4pushCscdP1gRbl3Ff_20pin_project_internal, symObjAddr: 0x2CC8, symBinAddr: 0x2F4C4, symSize: 0x124 }
  - { offset: 0x6EA8D, size: 0x8, addend: 0x0, symName: __RNvMNtCs6IAuOt8vWmF_3syn10punctuatedINtB2_10PunctuatedNtNtB4_8generics14WherePredicateNtNtB4_5token5CommaE9pairs_mutCscdP1gRbl3Ff_20pin_project_internal, symObjAddr: 0x2DEC, symBinAddr: 0x2F5E8, symSize: 0x74 }
  - { offset: 0x6EB02, size: 0x8, addend: 0x0, symName: __RNvMNtCs6IAuOt8vWmF_3syn10punctuatedINtB2_10PunctuatedNtNtB4_8lifetime8LifetimeNtNtB4_5token4PlusE9pairs_mutCscdP1gRbl3Ff_20pin_project_internal, symObjAddr: 0x2E60, symBinAddr: 0x2F65C, symSize: 0x74 }
  - { offset: 0x6EB5D, size: 0x8, addend: 0x0, symName: __RNvMsJ_NtCs6IAuOt8vWmF_3syn10punctuatedINtB5_4PairQNtNtB7_2ty4TypeQNtNtB7_5token5CommaE9value_mutCscdP1gRbl3Ff_20pin_project_internal, symObjAddr: 0x2ED4, symBinAddr: 0x2F6D0, symSize: 0x74 }
  - { offset: 0x6EBCA, size: 0x8, addend: 0x0, symName: __RNvMsJ_NtCs6IAuOt8vWmF_3syn10punctuatedINtB5_4PairQNtNtB7_2ty9BareFnArgQNtNtB7_5token5CommaE9value_mutCscdP1gRbl3Ff_20pin_project_internal, symObjAddr: 0x2F48, symBinAddr: 0x2F744, symSize: 0x74 }
  - { offset: 0x6EC44, size: 0x8, addend: 0x0, symName: __RNvMsJ_NtCs6IAuOt8vWmF_3syn10punctuatedINtB5_4PairQNtNtB7_3pat3PatQNtNtB7_5token2OrE9value_mutCscdP1gRbl3Ff_20pin_project_internal, symObjAddr: 0x2FBC, symBinAddr: 0x2F7B8, symSize: 0x74 }
  - { offset: 0x6ECA4, size: 0x8, addend: 0x0, symName: __RNvMsJ_NtCs6IAuOt8vWmF_3syn10punctuatedINtB5_4PairQNtNtB7_3pat3PatQNtNtB7_5token5CommaE9value_mutCscdP1gRbl3Ff_20pin_project_internal, symObjAddr: 0x3030, symBinAddr: 0x2F82C, symSize: 0x74 }
  - { offset: 0x6ED11, size: 0x8, addend: 0x0, symName: __RNvMsJ_NtCs6IAuOt8vWmF_3syn10punctuatedINtB5_4PairQNtNtB7_3pat8FieldPatQNtNtB7_5token5CommaE9value_mutCscdP1gRbl3Ff_20pin_project_internal, symObjAddr: 0x30A4, symBinAddr: 0x2F8A0, symSize: 0x74 }
  - { offset: 0x6ED7E, size: 0x8, addend: 0x0, symName: __RNvMsJ_NtCs6IAuOt8vWmF_3syn10punctuatedINtB5_4PairQNtNtB7_4data5FieldQNtNtB7_5token5CommaE9value_mutCscdP1gRbl3Ff_20pin_project_internal, symObjAddr: 0x3118, symBinAddr: 0x2F914, symSize: 0x74 }
  - { offset: 0x6EDEB, size: 0x8, addend: 0x0, symName: __RNvMsJ_NtCs6IAuOt8vWmF_3syn10punctuatedINtB5_4PairQNtNtB7_4data7VariantQNtNtB7_5token5CommaE9value_mutCscdP1gRbl3Ff_20pin_project_internal, symObjAddr: 0x318C, symBinAddr: 0x2F988, symSize: 0x74 }
  - { offset: 0x6EE58, size: 0x8, addend: 0x0, symName: __RNvMsJ_NtCs6IAuOt8vWmF_3syn10punctuatedINtB5_4PairQNtNtB7_4expr10FieldValueQNtNtB7_5token5CommaE9value_mutCscdP1gRbl3Ff_20pin_project_internal, symObjAddr: 0x3200, symBinAddr: 0x2F9FC, symSize: 0x74 }
  - { offset: 0x6EEC5, size: 0x8, addend: 0x0, symName: __RNvMsJ_NtCs6IAuOt8vWmF_3syn10punctuatedINtB5_4PairQNtNtB7_4expr4ExprQNtNtB7_5token5CommaE9value_mutCscdP1gRbl3Ff_20pin_project_internal, symObjAddr: 0x3274, symBinAddr: 0x2FA70, symSize: 0x74 }
  - { offset: 0x6EF32, size: 0x8, addend: 0x0, symName: __RNvMsJ_NtCs6IAuOt8vWmF_3syn10punctuatedINtB5_4PairQNtNtB7_4item5FnArgQNtNtB7_5token5CommaE9value_mutCscdP1gRbl3Ff_20pin_project_internal, symObjAddr: 0x32E8, symBinAddr: 0x2FAE4, symSize: 0x74 }
  - { offset: 0x6EF9F, size: 0x8, addend: 0x0, symName: __RNvMsJ_NtCs6IAuOt8vWmF_3syn10punctuatedINtB5_4PairQNtNtB7_4item7UseTreeQNtNtB7_5token5CommaE9value_mutCscdP1gRbl3Ff_20pin_project_internal, symObjAddr: 0x335C, symBinAddr: 0x2FB58, symSize: 0x74 }
  - { offset: 0x6F019, size: 0x8, addend: 0x0, symName: __RNvMsJ_NtCs6IAuOt8vWmF_3syn10punctuatedINtB5_4PairQNtNtB7_4path11PathSegmentQNtNtB7_5token7PathSepE9value_mutCscdP1gRbl3Ff_20pin_project_internal, symObjAddr: 0x33D0, symBinAddr: 0x2FBCC, symSize: 0x74 }
  - { offset: 0x6F086, size: 0x8, addend: 0x0, symName: __RNvMsJ_NtCs6IAuOt8vWmF_3syn10punctuatedINtB5_4PairQNtNtB7_4path15GenericArgumentQNtNtB7_5token5CommaE9value_mutCscdP1gRbl3Ff_20pin_project_internal, symObjAddr: 0x3444, symBinAddr: 0x2FC40, symSize: 0x74 }
  - { offset: 0x6F0F3, size: 0x8, addend: 0x0, symName: __RNvMsJ_NtCs6IAuOt8vWmF_3syn10punctuatedINtB5_4PairQNtNtB7_8generics12GenericParamQNtNtB7_5token5CommaE9value_mutCscdP1gRbl3Ff_20pin_project_internal, symObjAddr: 0x34B8, symBinAddr: 0x2FCB4, symSize: 0x74 }
  - { offset: 0x6F160, size: 0x8, addend: 0x0, symName: __RNvMsJ_NtCs6IAuOt8vWmF_3syn10punctuatedINtB5_4PairQNtNtB7_8generics13CapturedParamQNtNtB7_5token5CommaE9value_mutCscdP1gRbl3Ff_20pin_project_internal, symObjAddr: 0x352C, symBinAddr: 0x2FD28, symSize: 0x74 }
  - { offset: 0x6F1DA, size: 0x8, addend: 0x0, symName: __RNvMsJ_NtCs6IAuOt8vWmF_3syn10punctuatedINtB5_4PairQNtNtB7_8generics14TypeParamBoundQNtNtB7_5token4PlusE9value_mutCscdP1gRbl3Ff_20pin_project_internal, symObjAddr: 0x35A0, symBinAddr: 0x2FD9C, symSize: 0x74 }
  - { offset: 0x6F247, size: 0x8, addend: 0x0, symName: __RNvMsJ_NtCs6IAuOt8vWmF_3syn10punctuatedINtB5_4PairQNtNtB7_8generics14WherePredicateQNtNtB7_5token5CommaE9value_mutCscdP1gRbl3Ff_20pin_project_internal, symObjAddr: 0x3614, symBinAddr: 0x2FE10, symSize: 0x74 }
  - { offset: 0x6F2B4, size: 0x8, addend: 0x0, symName: __RNvMsJ_NtCs6IAuOt8vWmF_3syn10punctuatedINtB5_4PairQNtNtB7_8lifetime8LifetimeQNtNtB7_5token4PlusE9value_mutCscdP1gRbl3Ff_20pin_project_internal, symObjAddr: 0x3688, symBinAddr: 0x2FE84, symSize: 0x74 }
  - { offset: 0x6F316, size: 0x8, addend: 0x0, symName: __RNvXNtCs2cqEZUIJimJ_5quote9to_tokensRINtNtCs6IAuOt8vWmF_3syn10punctuated10PunctuatedNtNtBE_4data7VariantNtNtBE_5token5CommaENtB2_8ToTokens9to_tokensCscdP1gRbl3Ff_20pin_project_internal, symObjAddr: 0x36FC, symBinAddr: 0x2FEF8, symSize: 0x40 }
  - { offset: 0x6F35B, size: 0x8, addend: 0x0, symName: __RNvYINtNtCs6IAuOt8vWmF_3syn10punctuated10PunctuatedNtNtB7_4item5FnArgNtNtB7_5token5CommaENtNtCs2cqEZUIJimJ_5quote9to_tokens8ToTokens15to_token_streamCscdP1gRbl3Ff_20pin_project_internal, symObjAddr: 0x4E18, symBinAddr: 0x31614, symSize: 0x8C }
  - { offset: 0x6F3A5, size: 0x8, addend: 0x0, symName: __RNvYRINtNtCs6IAuOt8vWmF_3syn10punctuated10PunctuatedNtNtB8_4data7VariantNtNtB8_5token5CommaENtNtCs2cqEZUIJimJ_5quote9to_tokens8ToTokens15to_token_streamCscdP1gRbl3Ff_20pin_project_internal, symObjAddr: 0x5860, symBinAddr: 0x3205C, symSize: 0x8C }
  - { offset: 0x6FB09, size: 0x8, addend: 0x0, symName: __RINvMs0_NtCs6IAuOt8vWmF_3syn4attrNtB6_8MetaList15parse_args_withNvMNtB8_10punctuatedINtB13_10PunctuatedNtB6_4MetaNtNtB8_5token5CommaE16parse_terminatedECscdP1gRbl3Ff_20pin_project_internal, symObjAddr: 0x0, symBinAddr: 0x320E8, symSize: 0xF0 }
  - { offset: 0x755ED, size: 0x8, addend: 0x0, symName: __RNvXs0_NtCs6IAuOt8vWmF_3syn5dropsINtB5_6NoDropDINtNtB7_10punctuated9IterTraitNtNtB7_4data7VariantEp4ItemRB1d_EL_ENtNtNtCsfvfooZQ3Axs_4core3ops5deref8DerefMut9deref_mutCscdP1gRbl3Ff_20pin_project_internal, symObjAddr: 0x2988, symBinAddr: 0x348F8, symSize: 0x3C }
  - { offset: 0x75622, size: 0x8, addend: 0x0, symName: __RNvXs0_NtCs6IAuOt8vWmF_3syn5dropsINtB5_6NoDropDINtNtB7_10punctuated9IterTraitNtNtB7_4path15GenericArgumentEp4ItemRB1d_EL_ENtNtNtCsfvfooZQ3Axs_4core3ops5deref8DerefMut9deref_mutCscdP1gRbl3Ff_20pin_project_internal, symObjAddr: 0x29C4, symBinAddr: 0x34934, symSize: 0x3C }
  - { offset: 0x756DB, size: 0x8, addend: 0x0, symName: __RNvXNtCs6IAuOt8vWmF_3syn11parse_quoteNtNtB4_4stmt4StmtNtB2_10ParseQuote5parseCscdP1gRbl3Ff_20pin_project_internal, symObjAddr: 0x2800, symBinAddr: 0x34770, symSize: 0x34 }
  - { offset: 0x75710, size: 0x8, addend: 0x0, symName: __RNvXNtCs6IAuOt8vWmF_3syn11parse_quoteNtNtB4_8generics14WherePredicateNtB2_10ParseQuote5parseCscdP1gRbl3Ff_20pin_project_internal, symObjAddr: 0x2834, symBinAddr: 0x347A4, symSize: 0x34 }
  - { offset: 0x75745, size: 0x8, addend: 0x0, symName: __RNvXNtCs6IAuOt8vWmF_3syn11parse_quoteNtNtB4_8generics8GenericsNtB2_10ParseQuote5parseCscdP1gRbl3Ff_20pin_project_internal, symObjAddr: 0x2868, symBinAddr: 0x347D8, symSize: 0x34 }
  - { offset: 0x75786, size: 0x8, addend: 0x0, symName: __RNvXNtCs6IAuOt8vWmF_3syn7spannedQNtNtB4_4path4PathNtB2_7Spanned4spanCscdP1gRbl3Ff_20pin_project_internal, symObjAddr: 0x289C, symBinAddr: 0x3480C, symSize: 0x34 }
  - { offset: 0x76526, size: 0x8, addend: 0x0, symName: __RNvXs7_NtNtCs9i5KxIbZ5ph_10proc_macro6bridge3rpcINtNtNtCsfvfooZQ3Axs_4core3num7nonzero7NonZeromEINtB5_9DecodeMutuE6decodeCscdP1gRbl3Ff_20pin_project_internal, symObjAddr: 0x2EF8, symBinAddr: 0x34E68, symSize: 0x5C }
  - { offset: 0x7684D, size: 0x8, addend: 0x0, symName: __RNvNvMsc_NtNtCsfvfooZQ3Axs_4core3num7nonzeroINtB7_7NonZeropE13new_unchecked18precondition_checkCscdP1gRbl3Ff_20pin_project_internal, symObjAddr: 0x2550, symBinAddr: 0x344C0, symSize: 0x1C }
  - { offset: 0x772C0, size: 0x8, addend: 0x0, symName: __RINvNtCsfvfooZQ3Axs_4core3ptr13drop_in_placeINtNtB4_4cell10UnsafeCellNtNtNtCs9i5KxIbZ5ph_10proc_macro6bridge6client6BridgeEECscdP1gRbl3Ff_20pin_project_internal, symObjAddr: 0x208, symBinAddr: 0x322A8, symSize: 0x24 }
  - { offset: 0x772EF, size: 0x8, addend: 0x0, symName: __RINvNtCsfvfooZQ3Axs_4core3ptr13drop_in_placeINtNtB4_4cell7RefCellNtNtNtCs9i5KxIbZ5ph_10proc_macro6bridge6client6BridgeEECscdP1gRbl3Ff_20pin_project_internal, symObjAddr: 0x22C, symBinAddr: 0x322CC, symSize: 0x24 }
  - { offset: 0x7731E, size: 0x8, addend: 0x0, symName: __RINvNtCsfvfooZQ3Axs_4core3ptr13drop_in_placeINtNtB4_6option4ItemNtNtCs6IAuOt8vWmF_3syn4attr4MetaEECscdP1gRbl3Ff_20pin_project_internal, symObjAddr: 0x250, symBinAddr: 0x322F0, symSize: 0x24 }
  - { offset: 0x7734D, size: 0x8, addend: 0x0, symName: __RINvNtCsfvfooZQ3Axs_4core3ptr13drop_in_placeINtNtB4_6option6OptionIBH_NtCs3cP53eQoTwO_11proc_macro29TokenTreeEEECscdP1gRbl3Ff_20pin_project_internal, symObjAddr: 0x274, symBinAddr: 0x32314, symSize: 0x44 }
  - { offset: 0x7737C, size: 0x8, addend: 0x0, symName: __RINvNtCsfvfooZQ3Axs_4core3ptr13drop_in_placeINtNtB4_6option6OptionINtNtCse1nGBsou5OW_5alloc5boxed3BoxNtNtCs6IAuOt8vWmF_3syn4attr4MetaEEECscdP1gRbl3Ff_20pin_project_internal, symObjAddr: 0x2B8, symBinAddr: 0x32358, symSize: 0x44 }
  - { offset: 0x773AB, size: 0x8, addend: 0x0, symName: __RINvNtCsfvfooZQ3Axs_4core3ptr13drop_in_placeINtNtB4_6option6OptionNtNtCs6IAuOt8vWmF_3syn4attr4MetaEECscdP1gRbl3Ff_20pin_project_internal, symObjAddr: 0x2FC, symBinAddr: 0x3239C, symSize: 0x44 }
  - { offset: 0x773DA, size: 0x8, addend: 0x0, symName: __RINvNtCsfvfooZQ3Axs_4core3ptr13drop_in_placeINtNtB4_6option8IntoIterNtNtCs6IAuOt8vWmF_3syn4attr4MetaEECscdP1gRbl3Ff_20pin_project_internal, symObjAddr: 0x350, symBinAddr: 0x323E0, symSize: 0x24 }
  - { offset: 0x77409, size: 0x8, addend: 0x0, symName: __RINvNtCsfvfooZQ3Axs_4core3ptr13drop_in_placeINtNtB4_6result6ResultNtCs3cP53eQoTwO_11proc_macro211TokenStreamNtNtCs6IAuOt8vWmF_3syn5error5ErrorEECscdP1gRbl3Ff_20pin_project_internal, symObjAddr: 0x374, symBinAddr: 0x32404, symSize: 0x5C }
  - { offset: 0x77438, size: 0x8, addend: 0x0, symName: __RINvNtCsfvfooZQ3Axs_4core3ptr13drop_in_placeINtNtB4_6result6ResultNtCs3cP53eQoTwO_11proc_macro25IdentNtNtCs6IAuOt8vWmF_3syn5error5ErrorEECscdP1gRbl3Ff_20pin_project_internal, symObjAddr: 0x3D0, symBinAddr: 0x32460, symSize: 0x50 }
  - { offset: 0x77467, size: 0x8, addend: 0x0, symName: __RINvNtCsfvfooZQ3Axs_4core3ptr13drop_in_placeINtNtB4_6result6ResultNtNtCs6IAuOt8vWmF_3syn5parse11ParseBufferNtNtB16_5error5ErrorEECscdP1gRbl3Ff_20pin_project_internal, symObjAddr: 0x420, symBinAddr: 0x324B0, symSize: 0x50 }
  - { offset: 0x77496, size: 0x8, addend: 0x0, symName: __RINvNtCsfvfooZQ3Axs_4core3ptr13drop_in_placeINtNtB4_6result6ResultRNtNtCs6IAuOt8vWmF_3syn4attr13MetaNameValueNtNtB17_5error5ErrorEECscdP1gRbl3Ff_20pin_project_internal, symObjAddr: 0x470, symBinAddr: 0x32500, symSize: 0x48 }
  - { offset: 0x774C5, size: 0x8, addend: 0x0, symName: __RINvNtCsfvfooZQ3Axs_4core3ptr13drop_in_placeINtNtB4_6result6ResultuNtNtCs6IAuOt8vWmF_3syn5error5ErrorEECscdP1gRbl3Ff_20pin_project_internal, symObjAddr: 0x4B8, symBinAddr: 0x32548, symSize: 0x48 }
  - { offset: 0x774F4, size: 0x8, addend: 0x0, symName: __RINvNtCsfvfooZQ3Axs_4core3ptr13drop_in_placeINtNtCs2cqEZUIJimJ_5quote9___private9RepInterpNtCs3cP53eQoTwO_11proc_macro211TokenStreamEECscdP1gRbl3Ff_20pin_project_internal, symObjAddr: 0x500, symBinAddr: 0x32590, symSize: 0x24 }
  - { offset: 0x77523, size: 0x8, addend: 0x0, symName: __RINvNtCsfvfooZQ3Axs_4core3ptr13drop_in_placeINtNtCs6IAuOt8vWmF_3syn10punctuated10PunctuatedNtNtBL_4attr4MetaNtNtBL_5token5CommaEECscdP1gRbl3Ff_20pin_project_internal, symObjAddr: 0x524, symBinAddr: 0x325B4, symSize: 0x60 }
  - { offset: 0x77552, size: 0x8, addend: 0x0, symName: __RINvNtCsfvfooZQ3Axs_4core3ptr13drop_in_placeINtNtCs6IAuOt8vWmF_3syn10punctuated4IterNtNtBL_4data5FieldEECscdP1gRbl3Ff_20pin_project_internal, symObjAddr: 0x5A4, symBinAddr: 0x32614, symSize: 0x24 }
  - { offset: 0x77581, size: 0x8, addend: 0x0, symName: __RINvNtCsfvfooZQ3Axs_4core3ptr13drop_in_placeINtNtCs6IAuOt8vWmF_3syn10punctuated4IterNtNtBL_4data7VariantEECscdP1gRbl3Ff_20pin_project_internal, symObjAddr: 0x5C8, symBinAddr: 0x32638, symSize: 0x24 }
  - { offset: 0x775B0, size: 0x8, addend: 0x0, symName: __RINvNtCsfvfooZQ3Axs_4core3ptr13drop_in_placeINtNtCs6IAuOt8vWmF_3syn10punctuated4IterNtNtBL_4path15GenericArgumentEECscdP1gRbl3Ff_20pin_project_internal, symObjAddr: 0x5EC, symBinAddr: 0x3265C, symSize: 0x24 }
  - { offset: 0x775DF, size: 0x8, addend: 0x0, symName: __RINvNtCsfvfooZQ3Axs_4core3ptr13drop_in_placeINtNtCs6IAuOt8vWmF_3syn10punctuated4IterNtNtBL_8generics12GenericParamEECscdP1gRbl3Ff_20pin_project_internal, symObjAddr: 0x610, symBinAddr: 0x32680, symSize: 0x24 }
  - { offset: 0x7760E, size: 0x8, addend: 0x0, symName: __RINvNtCsfvfooZQ3Axs_4core3ptr13drop_in_placeINtNtCs6IAuOt8vWmF_3syn10punctuated8IntoIterNtNtBL_4attr4MetaEECscdP1gRbl3Ff_20pin_project_internal, symObjAddr: 0x634, symBinAddr: 0x326A4, symSize: 0x24 }
  - { offset: 0x7763D, size: 0x8, addend: 0x0, symName: __RINvNtCsfvfooZQ3Axs_4core3ptr13drop_in_placeINtNtCse1nGBsou5OW_5alloc3vec3VecNtCs3cP53eQoTwO_11proc_macro211TokenStreamEECscdP1gRbl3Ff_20pin_project_internal, symObjAddr: 0x658, symBinAddr: 0x326C8, symSize: 0x5C }
  - { offset: 0x7766C, size: 0x8, addend: 0x0, symName: __RINvNtCsfvfooZQ3Axs_4core3ptr13drop_in_placeINtNtCse1nGBsou5OW_5alloc3vec3VecNtCs3cP53eQoTwO_11proc_macro25IdentEECscdP1gRbl3Ff_20pin_project_internal, symObjAddr: 0x6B4, symBinAddr: 0x32724, symSize: 0x5C }
  - { offset: 0x7769B, size: 0x8, addend: 0x0, symName: __RINvNtCsfvfooZQ3Axs_4core3ptr13drop_in_placeINtNtCse1nGBsou5OW_5alloc3vec3VecNtNtBL_6string6StringEECscdP1gRbl3Ff_20pin_project_internal, symObjAddr: 0x710, symBinAddr: 0x32780, symSize: 0x5C }
  - { offset: 0x776CA, size: 0x8, addend: 0x0, symName: __RINvNtCsfvfooZQ3Axs_4core3ptr13drop_in_placeINtNtCse1nGBsou5OW_5alloc3vec3VecNtNtCs6IAuOt8vWmF_3syn4attr4MetaEECscdP1gRbl3Ff_20pin_project_internal, symObjAddr: 0x76C, symBinAddr: 0x327DC, symSize: 0x5C }
  - { offset: 0x776F9, size: 0x8, addend: 0x0, symName: __RINvNtCsfvfooZQ3Axs_4core3ptr13drop_in_placeINtNtCse1nGBsou5OW_5alloc3vec3VecRNtNtCs6IAuOt8vWmF_3syn2ty4TypeEECscdP1gRbl3Ff_20pin_project_internal, symObjAddr: 0x7C8, symBinAddr: 0x32838, symSize: 0x5C }
  - { offset: 0x77728, size: 0x8, addend: 0x0, symName: __RINvNtCsfvfooZQ3Axs_4core3ptr13drop_in_placeINtNtCse1nGBsou5OW_5alloc3vec3VecTNtNtCs6IAuOt8vWmF_3syn4attr4MetaNtNtB1i_5token5CommaEEECscdP1gRbl3Ff_20pin_project_internal, symObjAddr: 0x824, symBinAddr: 0x32894, symSize: 0x5C }
  - { offset: 0x77757, size: 0x8, addend: 0x0, symName: __RINvNtCsfvfooZQ3Axs_4core3ptr13drop_in_placeINtNtCse1nGBsou5OW_5alloc5boxed3BoxDNtNtB4_5error5ErrorNtNtB4_6marker4SendNtB1B_4SyncEL_EECscdP1gRbl3Ff_20pin_project_internal, symObjAddr: 0x880, symBinAddr: 0x328F0, symSize: 0x80 }
  - { offset: 0x77786, size: 0x8, addend: 0x0, symName: __RINvNtCsfvfooZQ3Axs_4core3ptr13drop_in_placeINtNtCse1nGBsou5OW_5alloc5boxed3BoxINtNtCs6IAuOt8vWmF_3syn5drops6NoDropDINtNtB1k_10punctuated9IterTraitNtNtB1k_4data5FieldEp4ItemRB2l_EL_EEECscdP1gRbl3Ff_20pin_project_internal, symObjAddr: 0x900, symBinAddr: 0x32970, symSize: 0x2C }
  - { offset: 0x777B5, size: 0x8, addend: 0x0, symName: __RINvNtCsfvfooZQ3Axs_4core3ptr13drop_in_placeINtNtCse1nGBsou5OW_5alloc5boxed3BoxINtNtCs6IAuOt8vWmF_3syn5drops6NoDropDINtNtB1k_10punctuated9IterTraitNtNtB1k_4data7VariantEp4ItemRB2l_EL_EEECscdP1gRbl3Ff_20pin_project_internal, symObjAddr: 0x92C, symBinAddr: 0x3299C, symSize: 0x2C }
  - { offset: 0x777E4, size: 0x8, addend: 0x0, symName: __RINvNtCsfvfooZQ3Axs_4core3ptr13drop_in_placeINtNtCse1nGBsou5OW_5alloc5boxed3BoxINtNtCs6IAuOt8vWmF_3syn5drops6NoDropDINtNtB1k_10punctuated9IterTraitNtNtB1k_4path15GenericArgumentEp4ItemRB2l_EL_EEECscdP1gRbl3Ff_20pin_project_internal, symObjAddr: 0x958, symBinAddr: 0x329C8, symSize: 0x2C }
  - { offset: 0x77813, size: 0x8, addend: 0x0, symName: __RINvNtCsfvfooZQ3Axs_4core3ptr13drop_in_placeINtNtCse1nGBsou5OW_5alloc5boxed3BoxINtNtCs6IAuOt8vWmF_3syn5drops6NoDropDINtNtB1k_10punctuated9IterTraitNtNtB1k_8generics12GenericParamEp4ItemRB2l_EL_EEECscdP1gRbl3Ff_20pin_project_internal, symObjAddr: 0x984, symBinAddr: 0x329F4, symSize: 0x2C }
  - { offset: 0x77842, size: 0x8, addend: 0x0, symName: __RINvNtCsfvfooZQ3Axs_4core3ptr13drop_in_placeINtNtCse1nGBsou5OW_5alloc5boxed3BoxNtNtCs6IAuOt8vWmF_3syn4attr4MetaEECscdP1gRbl3Ff_20pin_project_internal, symObjAddr: 0x9B0, symBinAddr: 0x32A20, symSize: 0x60 }
  - { offset: 0x77871, size: 0x8, addend: 0x0, symName: __RINvNtCsfvfooZQ3Axs_4core3ptr13drop_in_placeINtNtCse1nGBsou5OW_5alloc5boxed3BoxNtNtNtCscOYdFFY2T5N_3std2io5error6CustomEECscdP1gRbl3Ff_20pin_project_internal, symObjAddr: 0xA10, symBinAddr: 0x32A80, symSize: 0x60 }
  - { offset: 0x778A0, size: 0x8, addend: 0x0, symName: __RINvNtCsfvfooZQ3Axs_4core3ptr13drop_in_placeINtNtCse1nGBsou5OW_5alloc7raw_vec6RawVecNtCs3cP53eQoTwO_11proc_macro211TokenStreamEECscdP1gRbl3Ff_20pin_project_internal, symObjAddr: 0xA70, symBinAddr: 0x32AE0, symSize: 0x24 }
  - { offset: 0x778CF, size: 0x8, addend: 0x0, symName: __RINvNtCsfvfooZQ3Axs_4core3ptr13drop_in_placeINtNtCse1nGBsou5OW_5alloc7raw_vec6RawVecNtCs3cP53eQoTwO_11proc_macro25IdentEECscdP1gRbl3Ff_20pin_project_internal, symObjAddr: 0xA94, symBinAddr: 0x32B04, symSize: 0x24 }
  - { offset: 0x778FE, size: 0x8, addend: 0x0, symName: __RINvNtCsfvfooZQ3Axs_4core3ptr13drop_in_placeINtNtCse1nGBsou5OW_5alloc7raw_vec6RawVecNtNtBL_6string6StringEECscdP1gRbl3Ff_20pin_project_internal, symObjAddr: 0xAB8, symBinAddr: 0x32B28, symSize: 0x24 }
  - { offset: 0x7792D, size: 0x8, addend: 0x0, symName: __RINvNtCsfvfooZQ3Axs_4core3ptr13drop_in_placeINtNtCse1nGBsou5OW_5alloc7raw_vec6RawVecNtNtCs6IAuOt8vWmF_3syn4attr4MetaEECscdP1gRbl3Ff_20pin_project_internal, symObjAddr: 0xADC, symBinAddr: 0x32B4C, symSize: 0x24 }
  - { offset: 0x7795C, size: 0x8, addend: 0x0, symName: __RINvNtCsfvfooZQ3Axs_4core3ptr13drop_in_placeINtNtCse1nGBsou5OW_5alloc7raw_vec6RawVecRNtNtCs6IAuOt8vWmF_3syn2ty4TypeEECscdP1gRbl3Ff_20pin_project_internal, symObjAddr: 0xB00, symBinAddr: 0x32B70, symSize: 0x24 }
  - { offset: 0x7798B, size: 0x8, addend: 0x0, symName: __RINvNtCsfvfooZQ3Axs_4core3ptr13drop_in_placeINtNtCse1nGBsou5OW_5alloc7raw_vec6RawVecTNtNtCs6IAuOt8vWmF_3syn4attr4MetaNtNtB1p_5token5CommaEEECscdP1gRbl3Ff_20pin_project_internal, symObjAddr: 0xB24, symBinAddr: 0x32B94, symSize: 0x24 }
  - { offset: 0x779BA, size: 0x8, addend: 0x0, symName: __RINvNtCsfvfooZQ3Axs_4core3ptr13drop_in_placeINtNtNtCscOYdFFY2T5N_3std2io5error9ErrorDataINtNtCse1nGBsou5OW_5alloc5boxed3BoxNtBJ_6CustomEEECscdP1gRbl3Ff_20pin_project_internal, symObjAddr: 0xB48, symBinAddr: 0x32BB8, symSize: 0x48 }
  - { offset: 0x779E9, size: 0x8, addend: 0x0, symName: __RINvNtCsfvfooZQ3Axs_4core3ptr13drop_in_placeINtNtNtCse1nGBsou5OW_5alloc3vec9into_iter8IntoIterNtNtCs6IAuOt8vWmF_3syn4attr4MetaEECscdP1gRbl3Ff_20pin_project_internal, symObjAddr: 0xB90, symBinAddr: 0x32C00, symSize: 0x24 }
  - { offset: 0x77A18, size: 0x8, addend: 0x0, symName: __RINvNtCsfvfooZQ3Axs_4core3ptr13drop_in_placeINtNtNtCse1nGBsou5OW_5alloc3vec9into_iter8IntoIterTNtNtCs6IAuOt8vWmF_3syn4attr4MetaNtNtB1z_5token5CommaEEECscdP1gRbl3Ff_20pin_project_internal, symObjAddr: 0xBB4, symBinAddr: 0x32C24, symSize: 0x24 }
  - { offset: 0x77A47, size: 0x8, addend: 0x0, symName: __RINvNtCsfvfooZQ3Axs_4core3ptr13drop_in_placeINtNtNtNtB4_4iter8adapters3map3MapIBH_NtNtCs3cP53eQoTwO_11proc_macro212token_stream8IntoIterNCNvNtCscdP1gRbl3Ff_20pin_project_internal5utils13respan_tokens0ENvNtB1m_3imp19into_compiler_tokenEEB2g_, symObjAddr: 0xBD8, symBinAddr: 0x32C48, symSize: 0x24 }
  - { offset: 0x77A76, size: 0x8, addend: 0x0, symName: __RINvNtCsfvfooZQ3Axs_4core3ptr13drop_in_placeINtNtNtNtB4_4iter8adapters3map3MapINtNtBL_9enumerate9EnumerateNtNtCs6IAuOt8vWmF_3syn8generics9LifetimesENCNvNtNtCscdP1gRbl3Ff_20pin_project_internal11pin_project6derive15make_unpin_impls_0EEB2u_, symObjAddr: 0xBFC, symBinAddr: 0x32C6C, symSize: 0x24 }
  - { offset: 0x77AA5, size: 0x8, addend: 0x0, symName: __RINvNtCsfvfooZQ3Axs_4core3ptr13drop_in_placeINtNtNtNtB4_4iter8adapters3map3MapINtNtNtCse1nGBsou5OW_5alloc3vec9into_iter8IntoIterTNtNtCs6IAuOt8vWmF_3syn4attr4MetaNtNtB27_5token5CommaEENCNvXs8_NtB27_10punctuatedINtB33_10PunctuatedB23_B2z_ENtNtNtBN_6traits7collect12IntoIterator9into_iter0EECscdP1gRbl3Ff_20pin_project_internal, symObjAddr: 0xC20, symBinAddr: 0x32C90, symSize: 0x24 }
  - { offset: 0x77AD4, size: 0x8, addend: 0x0, symName: __RINvNtCsfvfooZQ3Axs_4core3ptr13drop_in_placeINtNtNtNtB4_4iter8adapters3map3MapNtNtCs3cP53eQoTwO_11proc_macro212token_stream8IntoIterNCNvNtCscdP1gRbl3Ff_20pin_project_internal5utils13respan_tokens0EEB2c_, symObjAddr: 0xC44, symBinAddr: 0x32CB4, symSize: 0x24 }
  - { offset: 0x77B03, size: 0x8, addend: 0x0, symName: __RINvNtCsfvfooZQ3Axs_4core3ptr13drop_in_placeINtNtNtNtB4_4iter8adapters3map3MapNtNtCs6IAuOt8vWmF_3syn8generics10TypeParamsNCNvNtNtCscdP1gRbl3Ff_20pin_project_internal11pin_project6derive15make_unpin_impls0_0EEB23_, symObjAddr: 0xC68, symBinAddr: 0x32CD8, symSize: 0x24 }
  - { offset: 0x77B32, size: 0x8, addend: 0x0, symName: __RINvNtCsfvfooZQ3Axs_4core3ptr13drop_in_placeINtNtNtNtB4_4iter8adapters4skip4SkipINtNtCs6IAuOt8vWmF_3syn10punctuated9IntoPairsNtNtB1l_4path11PathSegmentNtNtB1l_5token7PathSepEEECscdP1gRbl3Ff_20pin_project_internal, symObjAddr: 0xC8C, symBinAddr: 0x32CFC, symSize: 0x24 }
  - { offset: 0x77B61, size: 0x8, addend: 0x0, symName: __RINvNtCsfvfooZQ3Axs_4core3ptr13drop_in_placeINtNtNtNtB4_4iter8adapters8peekable8PeekableNtNtCs3cP53eQoTwO_11proc_macro212token_stream8IntoIterEECscdP1gRbl3Ff_20pin_project_internal, symObjAddr: 0xCB0, symBinAddr: 0x32D20, symSize: 0x60 }
  - { offset: 0x77B90, size: 0x8, addend: 0x0, symName: __RINvNtCsfvfooZQ3Axs_4core3ptr13drop_in_placeINtNtNtNtB4_4iter8adapters9enumerate9EnumerateINtNtCs6IAuOt8vWmF_3syn10punctuated4IterNtNtB1v_4data5FieldEEECscdP1gRbl3Ff_20pin_project_internal, symObjAddr: 0xD10, symBinAddr: 0x32D80, symSize: 0x24 }
  - { offset: 0x77BBF, size: 0x8, addend: 0x0, symName: __RINvNtCsfvfooZQ3Axs_4core3ptr13drop_in_placeINtNtNtNtB4_4iter8adapters9enumerate9EnumerateNtNtCs6IAuOt8vWmF_3syn8generics9LifetimesEECscdP1gRbl3Ff_20pin_project_internal, symObjAddr: 0xD34, symBinAddr: 0x32DA4, symSize: 0x24 }
  - { offset: 0x77BEE, size: 0x8, addend: 0x0, symName: __RINvNtCsfvfooZQ3Axs_4core3ptr13drop_in_placeINtNvXsd_NtNtCse1nGBsou5OW_5alloc3vec9into_iterINtBP_8IntoIterppENtNtNtB4_3ops4drop4Drop4drop9DropGuardNtNtCs6IAuOt8vWmF_3syn4attr4MetaNtNtBT_5alloc6GlobalEECscdP1gRbl3Ff_20pin_project_internal, symObjAddr: 0xD58, symBinAddr: 0x32DC8, symSize: 0x24 }
  - { offset: 0x77C1D, size: 0x8, addend: 0x0, symName: __RINvNtCsfvfooZQ3Axs_4core3ptr13drop_in_placeINtNvXsd_NtNtCse1nGBsou5OW_5alloc3vec9into_iterINtBP_8IntoIterppENtNtNtB4_3ops4drop4Drop4drop9DropGuardTNtNtCs6IAuOt8vWmF_3syn4attr4MetaNtNtB2q_5token5CommaENtNtBT_5alloc6GlobalEECscdP1gRbl3Ff_20pin_project_internal, symObjAddr: 0xD7C, symBinAddr: 0x32DEC, symSize: 0x24 }
  - { offset: 0x77C4C, size: 0x8, addend: 0x0, symName: __RINvNtCsfvfooZQ3Axs_4core3ptr13drop_in_placeNCINvMsi_NtCse1nGBsou5OW_5alloc3vecINtBP_3VecNtNtCs6IAuOt8vWmF_3syn4attr4MetaE14extend_trustedINtNtB4_6option8IntoIterB1p_EE0ECscdP1gRbl3Ff_20pin_project_internal, symObjAddr: 0xDA0, symBinAddr: 0x32E10, symSize: 0x24 }
  - { offset: 0x77C7B, size: 0x8, addend: 0x0, symName: __RINvNtCsfvfooZQ3Axs_4core3ptr13drop_in_placeNCINvMsi_NtCse1nGBsou5OW_5alloc3vecINtBP_3VecNtNtCs6IAuOt8vWmF_3syn4attr4MetaE14extend_trustedINtNtNtNtB4_4iter8adapters3map3MapINtNtBP_9into_iter8IntoIterTB1p_NtNtB1t_5token5CommaEENCNvXs8_NtB1t_10punctuatedINtB3K_10PunctuatedB1p_B3g_ENtNtNtB2j_6traits7collect12IntoIterator9into_iter0EE0ECscdP1gRbl3Ff_20pin_project_internal, symObjAddr: 0xDC4, symBinAddr: 0x32E34, symSize: 0x24 }
  - { offset: 0x77CAA, size: 0x8, addend: 0x0, symName: __RINvNtCsfvfooZQ3Axs_4core3ptr13drop_in_placeNCINvNtNtNtB4_4iter8adapters3map8map_foldTNtNtCs6IAuOt8vWmF_3syn4attr4MetaNtNtB1q_5token5CommaEB1m_uNCNvXs8_NtB1q_10punctuatedINtB2q_10PunctuatedB1m_B1S_ENtNtNtBP_6traits7collect12IntoIterator9into_iter0NCINvNvNtNtB3e_8iterator8Iterator8for_each4callB1m_NCINvMsi_NtCse1nGBsou5OW_5alloc3vecINtB4V_3VecB1m_E14extend_trustedINtBL_3MapINtNtB4V_9into_iter8IntoIterB1l_EB2i_EE0E0E0ECscdP1gRbl3Ff_20pin_project_internal, symObjAddr: 0xDE8, symBinAddr: 0x32E58, symSize: 0x24 }
  - { offset: 0x77CD9, size: 0x8, addend: 0x0, symName: __RINvNtCsfvfooZQ3Axs_4core3ptr13drop_in_placeNCINvNvNtNtNtNtB4_4iter6traits8iterator8Iterator8for_each4callNtNtCs6IAuOt8vWmF_3syn4attr4MetaNCINvMsi_NtCse1nGBsou5OW_5alloc3vecINtB2l_3VecB1G_E14extend_trustedINtNtB4_6option8IntoIterB1G_EE0E0ECscdP1gRbl3Ff_20pin_project_internal, symObjAddr: 0xE0C, symBinAddr: 0x32E7C, symSize: 0x24 }
  - { offset: 0x77D08, size: 0x8, addend: 0x0, symName: __RINvNtCsfvfooZQ3Axs_4core3ptr13drop_in_placeNCINvNvNtNtNtNtB4_4iter6traits8iterator8Iterator8for_each4callNtNtCs6IAuOt8vWmF_3syn4attr4MetaNCINvMsi_NtCse1nGBsou5OW_5alloc3vecINtB2l_3VecB1G_E14extend_trustedINtNtNtBT_8adapters3map3MapINtNtB2l_9into_iter8IntoIterTB1G_NtNtB1K_5token5CommaEENCNvXs8_NtB1K_10punctuatedINtB4J_10PunctuatedB1G_B4f_ENtNtBR_7collect12IntoIterator9into_iter0EE0E0ECscdP1gRbl3Ff_20pin_project_internal, symObjAddr: 0xE30, symBinAddr: 0x32EA0, symSize: 0x24 }
  - { offset: 0x77D37, size: 0x8, addend: 0x0, symName: __RINvNtCsfvfooZQ3Axs_4core3ptr13drop_in_placeNCNCINvNtNtCs9i5KxIbZ5ph_10proc_macro6bridge6client10run_clientNtBN_11TokenStreamINtNtB4_6option6OptionB1H_ENCNCINvMs7_BN_INtBN_6ClientNtBR_11TokenStreamB2R_E7expand1NvCscdP1gRbl3Ff_20pin_project_internal29___pin_project_internal_deriveE00E00EB3o_, symObjAddr: 0xE54, symBinAddr: 0x32EC4, symSize: 0x24 }
  - { offset: 0x77D66, size: 0x8, addend: 0x0, symName: __RINvNtCsfvfooZQ3Axs_4core3ptr13drop_in_placeNCNCINvNtNtCs9i5KxIbZ5ph_10proc_macro6bridge6client10run_clientTNtBN_11TokenStreamB1I_EINtNtB4_6option6OptionB1I_ENCNCINvMs8_BN_INtBN_6ClientTNtBR_11TokenStreamB2Y_EB2Y_E7expand2NvCscdP1gRbl3Ff_20pin_project_internal11pin_projectE00E00EB3A_, symObjAddr: 0xE78, symBinAddr: 0x32EE8, symSize: 0x24 }
  - { offset: 0x77D95, size: 0x8, addend: 0x0, symName: __RINvNtCsfvfooZQ3Axs_4core3ptr13drop_in_placeNCNCINvNtNtCs9i5KxIbZ5ph_10proc_macro6bridge6client10run_clientTNtBN_11TokenStreamB1I_EINtNtB4_6option6OptionB1I_ENCNCINvMs8_BN_INtBN_6ClientTNtBR_11TokenStreamB2Y_EB2Y_E7expand2NvCscdP1gRbl3Ff_20pin_project_internal11pinned_dropE00E00EB3A_, symObjAddr: 0xE9C, symBinAddr: 0x32F0C, symSize: 0x24 }
  - { offset: 0x77DC4, size: 0x8, addend: 0x0, symName: __RINvNtCsfvfooZQ3Axs_4core3ptr13drop_in_placeNtNtCs6IAuOt8vWmF_3syn8generics10TypeParamsECscdP1gRbl3Ff_20pin_project_internal, symObjAddr: 0xED0, symBinAddr: 0x32F30, symSize: 0x24 }
  - { offset: 0x77DF3, size: 0x8, addend: 0x0, symName: __RINvNtCsfvfooZQ3Axs_4core3ptr13drop_in_placeNtNtCs6IAuOt8vWmF_3syn8generics9LifetimesECscdP1gRbl3Ff_20pin_project_internal, symObjAddr: 0xEF4, symBinAddr: 0x32F54, symSize: 0x24 }
  - { offset: 0x77E22, size: 0x8, addend: 0x0, symName: __RINvNtCsfvfooZQ3Axs_4core3ptr13drop_in_placeNtNtNtCs9i5KxIbZ5ph_10proc_macro6bridge3rpc12PanicMessageECscdP1gRbl3Ff_20pin_project_internal, symObjAddr: 0xF18, symBinAddr: 0x32F78, symSize: 0x50 }
  - { offset: 0x77E51, size: 0x8, addend: 0x0, symName: __RINvNtCsfvfooZQ3Axs_4core3ptr13drop_in_placeNtNtNtCs9i5KxIbZ5ph_10proc_macro6bridge6buffer6BufferECscdP1gRbl3Ff_20pin_project_internal, symObjAddr: 0xF68, symBinAddr: 0x32FC8, symSize: 0x24 }
  - { offset: 0x77E80, size: 0x8, addend: 0x0, symName: __RINvNtCsfvfooZQ3Axs_4core3ptr13drop_in_placeNtNtNtCs9i5KxIbZ5ph_10proc_macro6bridge6client6BridgeECscdP1gRbl3Ff_20pin_project_internal, symObjAddr: 0xF8C, symBinAddr: 0x32FEC, symSize: 0x24 }
  - { offset: 0x77EAF, size: 0x8, addend: 0x0, symName: __RINvNtCsfvfooZQ3Axs_4core3ptr13drop_in_placeNtNtNtCscOYdFFY2T5N_3std2io5error5ErrorECscdP1gRbl3Ff_20pin_project_internal, symObjAddr: 0xFB0, symBinAddr: 0x33010, symSize: 0x24 }
  - { offset: 0x77EDE, size: 0x8, addend: 0x0, symName: __RINvNtCsfvfooZQ3Axs_4core3ptr13drop_in_placeNtNtNtCscOYdFFY2T5N_3std2io5error6CustomECscdP1gRbl3Ff_20pin_project_internal, symObjAddr: 0xFD4, symBinAddr: 0x33034, symSize: 0x24 }
  - { offset: 0x77F0D, size: 0x8, addend: 0x0, symName: __RINvNtCsfvfooZQ3Axs_4core3ptr13drop_in_placeNtNtNtCscdP1gRbl3Ff_20pin_project_internal11pin_project4args11ProjReplaceEBM_, symObjAddr: 0xFF8, symBinAddr: 0x33058, symSize: 0x48 }
  - { offset: 0x77F3C, size: 0x8, addend: 0x0, symName: __RINvNtCsfvfooZQ3Axs_4core3ptr13drop_in_placeNtNtNtCscdP1gRbl3Ff_20pin_project_internal11pin_project4args4ArgsEBM_, symObjAddr: 0x1040, symBinAddr: 0x330A0, symSize: 0x94 }
  - { offset: 0x77F6B, size: 0x8, addend: 0x0, symName: __RINvNtCsfvfooZQ3Axs_4core3ptr13drop_in_placeNtNtNtCscdP1gRbl3Ff_20pin_project_internal11pin_project6derive13ProjectedTypeEBM_, symObjAddr: 0x10D4, symBinAddr: 0x33134, symSize: 0x14C }
  - { offset: 0x77F9A, size: 0x8, addend: 0x0, symName: __RINvNtCsfvfooZQ3Axs_4core3ptr13drop_in_placeNtNtNtCscdP1gRbl3Ff_20pin_project_internal11pin_project6derive14GenerateTokensEBM_, symObjAddr: 0x1220, symBinAddr: 0x33280, symSize: 0x60 }
  - { offset: 0x77FC9, size: 0x8, addend: 0x0, symName: __RINvNtCsfvfooZQ3Axs_4core3ptr13drop_in_placeNtNtNtCscdP1gRbl3Ff_20pin_project_internal11pin_project6derive7ContextEBM_, symObjAddr: 0x1280, symBinAddr: 0x332E0, symSize: 0x90 }
  - { offset: 0x77FF8, size: 0x8, addend: 0x0, symName: __RINvNtCsfvfooZQ3Axs_4core3ptr13drop_in_placeNtNtNtCscdP1gRbl3Ff_20pin_project_internal11pin_project9attribute5InputEBM_, symObjAddr: 0x1310, symBinAddr: 0x33370, symSize: 0x60 }
  - { offset: 0x78027, size: 0x8, addend: 0x0, symName: __RINvNtCsfvfooZQ3Axs_4core3ptr13drop_in_placeNtNtNtNtCscOYdFFY2T5N_3std2io5error14repr_bitpacked4ReprECscdP1gRbl3Ff_20pin_project_internal, symObjAddr: 0x1370, symBinAddr: 0x333D0, symSize: 0x24 }
  - { offset: 0x78056, size: 0x8, addend: 0x0, symName: __RINvNtCsfvfooZQ3Axs_4core3ptr13drop_in_placeNtNvNtCscdP1gRbl3Ff_20pin_project_internal5utils23determine_lifetime_name16CollectLifetimesEBM_, symObjAddr: 0x1394, symBinAddr: 0x333F4, symSize: 0x24 }
  - { offset: 0x78085, size: 0x8, addend: 0x0, symName: __RINvNtCsfvfooZQ3Axs_4core3ptr13drop_in_placeNtNvNtNtCscdP1gRbl3Ff_20pin_project_internal11pin_project4args10parse_args5InputEBO_, symObjAddr: 0x13B8, symBinAddr: 0x33418, symSize: 0x24 }
  - { offset: 0x780B4, size: 0x8, addend: 0x0, symName: __RINvNtCsfvfooZQ3Axs_4core3ptr13drop_in_placeNtNvNtNtNtCs9i5KxIbZ5ph_10proc_macro6bridge6client5state3set13RestoreOnDropECscdP1gRbl3Ff_20pin_project_internal, symObjAddr: 0x13DC, symBinAddr: 0x3343C, symSize: 0x24 }
  - { offset: 0x780E3, size: 0x8, addend: 0x0, symName: __RINvNtCsfvfooZQ3Axs_4core3ptr13drop_in_placeSNtCs3cP53eQoTwO_11proc_macro211TokenStreamECscdP1gRbl3Ff_20pin_project_internal, symObjAddr: 0x14F0, symBinAddr: 0x33460, symSize: 0xB4 }
  - { offset: 0x78112, size: 0x8, addend: 0x0, symName: __RINvNtCsfvfooZQ3Axs_4core3ptr13drop_in_placeSNtCs3cP53eQoTwO_11proc_macro25IdentECscdP1gRbl3Ff_20pin_project_internal, symObjAddr: 0x15A4, symBinAddr: 0x33514, symSize: 0xC4 }
  - { offset: 0x78141, size: 0x8, addend: 0x0, symName: __RINvNtCsfvfooZQ3Axs_4core3ptr13drop_in_placeSNtNtCs6IAuOt8vWmF_3syn4attr4MetaECscdP1gRbl3Ff_20pin_project_internal, symObjAddr: 0x1668, symBinAddr: 0x335D8, symSize: 0xC4 }
  - { offset: 0x78170, size: 0x8, addend: 0x0, symName: __RINvNtCsfvfooZQ3Axs_4core3ptr13drop_in_placeSNtNtCse1nGBsou5OW_5alloc6string6StringECscdP1gRbl3Ff_20pin_project_internal, symObjAddr: 0x172C, symBinAddr: 0x3369C, symSize: 0xC4 }
  - { offset: 0x7819F, size: 0x8, addend: 0x0, symName: __RINvNtCsfvfooZQ3Axs_4core3ptr13drop_in_placeSTNtNtCs6IAuOt8vWmF_3syn4attr4MetaNtNtBM_5token5CommaEECscdP1gRbl3Ff_20pin_project_internal, symObjAddr: 0x17F0, symBinAddr: 0x33760, symSize: 0xC4 }
  - { offset: 0x781CE, size: 0x8, addend: 0x0, symName: __RINvNtCsfvfooZQ3Axs_4core3ptr13drop_in_placeTNtNtCs6IAuOt8vWmF_3syn4attr4MetaNtNtBL_5token5CommaEECscdP1gRbl3Ff_20pin_project_internal, symObjAddr: 0x18B4, symBinAddr: 0x33824, symSize: 0x24 }
  - { offset: 0x781FD, size: 0x8, addend: 0x0, symName: __RINvNtCsfvfooZQ3Axs_4core3ptr13drop_in_placeTNtNtNtCs9i5KxIbZ5ph_10proc_macro6bridge6client11TokenStreamBH_EECscdP1gRbl3Ff_20pin_project_internal, symObjAddr: 0x18D8, symBinAddr: 0x33848, symSize: 0x60 }
  - { offset: 0x7822C, size: 0x8, addend: 0x0, symName: __RINvNtCsfvfooZQ3Axs_4core3ptr13drop_in_placeTRINtNtB4_6option6OptionNtCs3cP53eQoTwO_11proc_macro211TokenStreamEBI_EECscdP1gRbl3Ff_20pin_project_internal, symObjAddr: 0x1938, symBinAddr: 0x338A8, symSize: 0x24 }
  - { offset: 0x7825B, size: 0x8, addend: 0x0, symName: __RINvNtCsfvfooZQ3Axs_4core3ptr13drop_in_placeTRNtNtCs6IAuOt8vWmF_3syn4attr9AttributeINtNtB4_6option6OptionNtCs3cP53eQoTwO_11proc_macro211TokenStreamEEECscdP1gRbl3Ff_20pin_project_internal, symObjAddr: 0x195C, symBinAddr: 0x338CC, symSize: 0x24 }
  - { offset: 0x7B7C6, size: 0x8, addend: 0x0, symName: __RINvNtCsfvfooZQ3Axs_4core3mem4takeINtNtCs6IAuOt8vWmF_3syn10punctuated10PunctuatedNtNtBB_4path11PathSegmentNtNtBB_5token7PathSepEECscdP1gRbl3Ff_20pin_project_internal, symObjAddr: 0x110, symBinAddr: 0x321F8, symSize: 0x54 }
  - { offset: 0x7B85F, size: 0x8, addend: 0x0, symName: __RINvNtCsfvfooZQ3Axs_4core3mem7replaceNtNtCs6IAuOt8vWmF_3syn4path4PathECscdP1gRbl3Ff_20pin_project_internal, symObjAddr: 0x164, symBinAddr: 0x3224C, symSize: 0x5C }
  - { offset: 0x7BA0B, size: 0x8, addend: 0x0, symName: __RINvXs0_NtNtNtCsfvfooZQ3Axs_4core4iter8adapters3mapINtB6_3MapIBO_NtNtCs3cP53eQoTwO_11proc_macro212token_stream8IntoIterNCNvNtCscdP1gRbl3Ff_20pin_project_internal5utils13respan_tokens0ENvNtB15_3imp19into_compiler_tokenENtNtNtBa_6traits8iterator8Iterator4folduNCINvNvB3u_8for_each4callNtCs9i5KxIbZ5ph_10proc_macro9TokenTreeNCINvXsg_B4z_NtB4z_11TokenStreamINtNtB3y_7collect12FromIteratorB4x_E9from_iterBN_E0E0EB1Z_, symObjAddr: 0x1980, symBinAddr: 0x338F0, symSize: 0x4C }
  - { offset: 0x7BA7D, size: 0x8, addend: 0x0, symName: __RINvXs0_NtNtNtCsfvfooZQ3Axs_4core4iter8adapters3mapINtB6_3MapINtNtNtCse1nGBsou5OW_5alloc3vec9into_iter8IntoIterTNtNtCs6IAuOt8vWmF_3syn4attr4MetaNtNtB1Q_5token5CommaEENCNvXs8_NtB1Q_10punctuatedINtB2M_10PunctuatedB1M_B2i_ENtNtNtBa_6traits7collect12IntoIterator9into_iter0ENtNtB3A_8iterator8Iterator4folduNCINvNvB4k_8for_each4callB1M_NCINvMsi_B12_INtB12_3VecB1M_E14extend_trustedBN_E0E0ECscdP1gRbl3Ff_20pin_project_internal, symObjAddr: 0x19CC, symBinAddr: 0x3393C, symSize: 0x4C }
  - { offset: 0x7BB16, size: 0x8, addend: 0x0, symName: __RINvXs0_NtNtNtCsfvfooZQ3Axs_4core4iter8adapters3mapINtB6_3MapNtNtCs3cP53eQoTwO_11proc_macro212token_stream8IntoIterNCNvNtCscdP1gRbl3Ff_20pin_project_internal5utils13respan_tokens0ENtNtNtBa_6traits8iterator8Iterator4folduNCINvB6_8map_foldNtB11_9TokenTreeNtCs9i5KxIbZ5ph_10proc_macro9TokenTreeuNvNtB11_3imp19into_compiler_tokenNCINvNvB2S_8for_each4callB43_NCINvXsg_B45_NtB45_11TokenStreamINtNtB2W_7collect12FromIteratorB43_E9from_iterIBO_BN_B4G_EE0E0E0EB1V_, symObjAddr: 0x1A18, symBinAddr: 0x33988, symSize: 0x58 }
  - { offset: 0x7BB88, size: 0x8, addend: 0x0, symName: __RINvXs0_NtNtNtCsfvfooZQ3Axs_4core4iter8adapters3mapINtB6_3MapNtNtCs3cP53eQoTwO_11proc_macro212token_stream8IntoIterNCNvNtCscdP1gRbl3Ff_20pin_project_internal5utils13respan_tokens0ENtNtNtBa_6traits8iterator8Iterator4folduNCINvNvB2S_8for_each4callNtB11_9TokenTreeNCINvXsa_NtB11_8fallbackNtB4k_11TokenStreamINtNtB2W_7collect6ExtendB3V_E6extendBN_E0E0EB1V_, symObjAddr: 0x1A70, symBinAddr: 0x339E0, symSize: 0x58 }
  - { offset: 0x7BBFA, size: 0x8, addend: 0x0, symName: __RNvXs0_NtNtNtCsfvfooZQ3Axs_4core4iter8adapters3mapINtB5_3MapIBN_NtNtCs3cP53eQoTwO_11proc_macro212token_stream8IntoIterNCNvNtCscdP1gRbl3Ff_20pin_project_internal5utils13respan_tokens0ENvNtB14_3imp19into_compiler_tokenENtNtNtB9_6traits8iterator8Iterator9size_hintB1Y_, symObjAddr: 0x2A00, symBinAddr: 0x34970, symSize: 0x24 }
  - { offset: 0x7BC41, size: 0x8, addend: 0x0, symName: __RNvXs0_NtNtNtCsfvfooZQ3Axs_4core4iter8adapters3mapINtB5_3MapINtNtB7_9enumerate9EnumerateINtNtNtBb_5slice4iter4IterRNtNtCs6IAuOt8vWmF_3syn2ty4TypeEENCNvNtNtCscdP1gRbl3Ff_20pin_project_internal11pin_project6derive15make_unpin_impl0ENtNtNtB9_6traits8iterator8Iterator4nextB2t_, symObjAddr: 0x2A24, symBinAddr: 0x34994, symSize: 0x9C }
  - { offset: 0x7BCBB, size: 0x8, addend: 0x0, symName: __RNvXs0_NtNtNtCsfvfooZQ3Axs_4core4iter8adapters3mapINtB5_3MapINtNtB7_9enumerate9EnumerateNtNtCs6IAuOt8vWmF_3syn8generics9LifetimesENCNvNtNtCscdP1gRbl3Ff_20pin_project_internal11pin_project6derive15make_unpin_impls_0ENtNtNtB9_6traits8iterator8Iterator4nextB2c_, symObjAddr: 0x2AC0, symBinAddr: 0x34A30, symSize: 0x9C }
  - { offset: 0x7BD35, size: 0x8, addend: 0x0, symName: __RNvXs0_NtNtNtCsfvfooZQ3Axs_4core4iter8adapters3mapINtB5_3MapINtNtNtCse1nGBsou5OW_5alloc3vec9into_iter8IntoIterTNtNtCs6IAuOt8vWmF_3syn4attr4MetaNtNtB1P_5token5CommaEENCNvXs8_NtB1P_10punctuatedINtB2L_10PunctuatedB1L_B2h_ENtNtNtB9_6traits7collect12IntoIterator9into_iter0ENtNtB3z_8iterator8Iterator9size_hintCscdP1gRbl3Ff_20pin_project_internal, symObjAddr: 0x2B5C, symBinAddr: 0x34ACC, symSize: 0x24 }
  - { offset: 0x7BD7C, size: 0x8, addend: 0x0, symName: __RNvXs0_NtNtNtCsfvfooZQ3Axs_4core4iter8adapters3mapINtB5_3MapNtNtCs3cP53eQoTwO_11proc_macro212token_stream8IntoIterNCNvNtCscdP1gRbl3Ff_20pin_project_internal5utils13respan_tokens0ENtNtNtB9_6traits8iterator8Iterator9size_hintB1U_, symObjAddr: 0x2B80, symBinAddr: 0x34AF0, symSize: 0x24 }
  - { offset: 0x7BDC3, size: 0x8, addend: 0x0, symName: __RNvXs0_NtNtNtCsfvfooZQ3Axs_4core4iter8adapters3mapINtB5_3MapNtNtCs6IAuOt8vWmF_3syn8generics10TypeParamsNCNvNtNtCscdP1gRbl3Ff_20pin_project_internal11pin_project6derive15make_unpin_impls0_0ENtNtNtB9_6traits8iterator8Iterator4nextB1L_, symObjAddr: 0x2BA4, symBinAddr: 0x34B14, symSize: 0x74 }
  - { offset: 0x7BEB5, size: 0x8, addend: 0x0, symName: __RNCINvNtNtNtCsfvfooZQ3Axs_4core4iter8adapters3map8map_foldNtCs3cP53eQoTwO_11proc_macro29TokenTreeBU_uNCNvNtCscdP1gRbl3Ff_20pin_project_internal5utils13respan_tokens0NCIB2_BU_NtCs9i5KxIbZ5ph_10proc_macro9TokenTreeuNvNtBW_3imp19into_compiler_tokenNCINvNvNtNtNtB8_6traits8iterator8Iterator8for_each4callB2M_NCINvXsg_B2O_NtB2O_11TokenStreamINtNtB46_7collect12FromIteratorB2M_E9from_iterINtB4_3MapIB69_NtNtBW_12token_stream8IntoIterB1B_EB3p_EE0E0E0E0B1H_, symObjAddr: 0x1BE0, symBinAddr: 0x33B50, symSize: 0x9C }
  - { offset: 0x7BF3B, size: 0x8, addend: 0x0, symName: __RNCINvNtNtNtCsfvfooZQ3Axs_4core4iter8adapters3map8map_foldNtCs3cP53eQoTwO_11proc_macro29TokenTreeBU_uNCNvNtCscdP1gRbl3Ff_20pin_project_internal5utils13respan_tokens0NCINvNvNtNtNtB8_6traits8iterator8Iterator8for_each4callBU_NCINvXsa_NtBW_8fallbackNtB3I_11TokenStreamINtNtB2O_7collect6ExtendBU_E6extendINtB4_3MapNtNtBW_12token_stream8IntoIterB1B_EE0E0E0B1H_, symObjAddr: 0x1C7C, symBinAddr: 0x33BEC, symSize: 0x9C }
  - { offset: 0x7BFC1, size: 0x8, addend: 0x0, symName: __RNCINvNtNtNtCsfvfooZQ3Axs_4core4iter8adapters3map8map_foldNtCs3cP53eQoTwO_11proc_macro29TokenTreeNtCs9i5KxIbZ5ph_10proc_macro9TokenTreeuNvNtBW_3imp19into_compiler_tokenNCINvNvNtNtNtB8_6traits8iterator8Iterator8for_each4callB1x_NCINvXsg_B1z_NtB1z_11TokenStreamINtNtB2R_7collect12FromIteratorB1x_E9from_iterINtB4_3MapIB4U_NtNtBW_12token_stream8IntoIterNCNvNtCscdP1gRbl3Ff_20pin_project_internal5utils13respan_tokens0EB2a_EE0E0E0B5I_, symObjAddr: 0x1D18, symBinAddr: 0x33C88, symSize: 0x9C }
  - { offset: 0x7C047, size: 0x8, addend: 0x0, symName: __RNCINvNtNtNtCsfvfooZQ3Axs_4core4iter8adapters3map8map_foldTNtNtCs6IAuOt8vWmF_3syn4attr4MetaNtNtBZ_5token5CommaEBV_uNCNvXs8_NtBZ_10punctuatedINtB1X_10PunctuatedBV_B1r_ENtNtNtB8_6traits7collect12IntoIterator9into_iter0NCINvNvNtNtB2J_8iterator8Iterator8for_each4callBV_NCINvMsi_NtCse1nGBsou5OW_5alloc3vecINtB4p_3VecBV_E14extend_trustedINtB4_3MapINtNtB4p_9into_iter8IntoIterBU_EB1P_EE0E0E0CscdP1gRbl3Ff_20pin_project_internal, symObjAddr: 0x1DB4, symBinAddr: 0x33D24, symSize: 0xB0 }
  - { offset: 0x7C41E, size: 0x8, addend: 0x0, symName: __RINvYINtNtNtNtCsfvfooZQ3Axs_4core4iter8adapters3map3MapIB4_NtNtCs3cP53eQoTwO_11proc_macro212token_stream8IntoIterNCNvNtCscdP1gRbl3Ff_20pin_project_internal5utils13respan_tokens0ENvNtBZ_3imp19into_compiler_tokenENtNtNtBa_6traits8iterator8Iterator7collectNtCs9i5KxIbZ5ph_10proc_macro11TokenStreamEB1T_, symObjAddr: 0x1AC8, symBinAddr: 0x33A38, symSize: 0x14 }
  - { offset: 0x7C45F, size: 0x8, addend: 0x0, symName: __RINvYINtNtNtNtCsfvfooZQ3Axs_4core4iter8adapters3map3MapIB4_NtNtCs3cP53eQoTwO_11proc_macro212token_stream8IntoIterNCNvNtCscdP1gRbl3Ff_20pin_project_internal5utils13respan_tokens0ENvNtBZ_3imp19into_compiler_tokenENtNtNtBa_6traits8iterator8Iterator8for_eachNCINvXsg_Cs9i5KxIbZ5ph_10proc_macroNtB4d_11TokenStreamINtNtB3r_7collect12FromIteratorNtB4d_9TokenTreeE9from_iterB3_E0EB1T_, symObjAddr: 0x1ADC, symBinAddr: 0x33A4C, symSize: 0x24 }
  - { offset: 0x7C4AB, size: 0x8, addend: 0x0, symName: __RINvYINtNtNtNtCsfvfooZQ3Axs_4core4iter8adapters3map3MapINtNtNtCse1nGBsou5OW_5alloc3vec9into_iter8IntoIterTNtNtCs6IAuOt8vWmF_3syn4attr4MetaNtNtB1K_5token5CommaEENCNvXs8_NtB1K_10punctuatedINtB2G_10PunctuatedB1G_B2c_ENtNtNtBa_6traits7collect12IntoIterator9into_iter0ENtNtB3u_8iterator8Iterator8for_eachNCINvMsi_BW_INtBW_3VecB1G_E14extend_trustedB3_E0ECscdP1gRbl3Ff_20pin_project_internal, symObjAddr: 0x1B00, symBinAddr: 0x33A70, symSize: 0x34 }
  - { offset: 0x7C517, size: 0x8, addend: 0x0, symName: __RINvYINtNtNtNtCsfvfooZQ3Axs_4core4iter8adapters3map3MapNtNtCs3cP53eQoTwO_11proc_macro212token_stream8IntoIterNCNvNtCscdP1gRbl3Ff_20pin_project_internal5utils13respan_tokens0ENtNtNtBa_6traits8iterator8Iterator3mapNtCs9i5KxIbZ5ph_10proc_macro9TokenTreeNvNtBV_3imp19into_compiler_tokenEB1P_, symObjAddr: 0x1B34, symBinAddr: 0x33AA4, symSize: 0x30 }
  - { offset: 0x7C585, size: 0x8, addend: 0x0, symName: __RINvYINtNtNtNtCsfvfooZQ3Axs_4core4iter8adapters3map3MapNtNtCs3cP53eQoTwO_11proc_macro212token_stream8IntoIterNCNvNtCscdP1gRbl3Ff_20pin_project_internal5utils13respan_tokens0ENtNtNtBa_6traits8iterator8Iterator7collectNtBV_11TokenStreamEB1P_, symObjAddr: 0x1B64, symBinAddr: 0x33AD4, symSize: 0x14 }
  - { offset: 0x7C5C6, size: 0x8, addend: 0x0, symName: __RINvYINtNtNtNtCsfvfooZQ3Axs_4core4iter8adapters3map3MapNtNtCs3cP53eQoTwO_11proc_macro212token_stream8IntoIterNCNvNtCscdP1gRbl3Ff_20pin_project_internal5utils13respan_tokens0ENtNtNtBa_6traits8iterator8Iterator7collectNtNtBV_3imp11TokenStreamEB1P_, symObjAddr: 0x1B78, symBinAddr: 0x33AE8, symSize: 0x14 }
  - { offset: 0x7C607, size: 0x8, addend: 0x0, symName: __RINvYINtNtNtNtCsfvfooZQ3Axs_4core4iter8adapters3map3MapNtNtCs3cP53eQoTwO_11proc_macro212token_stream8IntoIterNCNvNtCscdP1gRbl3Ff_20pin_project_internal5utils13respan_tokens0ENtNtNtBa_6traits8iterator8Iterator7collectNtNtBV_8fallback11TokenStreamEB1P_, symObjAddr: 0x1B8C, symBinAddr: 0x33AFC, symSize: 0x14 }
  - { offset: 0x7C648, size: 0x8, addend: 0x0, symName: __RINvYINtNtNtNtCsfvfooZQ3Axs_4core4iter8adapters3map3MapNtNtCs3cP53eQoTwO_11proc_macro212token_stream8IntoIterNCNvNtCscdP1gRbl3Ff_20pin_project_internal5utils13respan_tokens0ENtNtNtBa_6traits8iterator8Iterator8for_eachNCINvXsa_NtBV_8fallbackNtB3C_11TokenStreamINtNtB2Q_7collect6ExtendNtBV_9TokenTreeE6extendB3_E0EB1P_, symObjAddr: 0x1BA0, symBinAddr: 0x33B10, symSize: 0x24 }
  - { offset: 0x7C694, size: 0x8, addend: 0x0, symName: __RINvYNtNtCs6IAuOt8vWmF_3syn8generics10TypeParamsNtNtNtNtCsfvfooZQ3Axs_4core4iter6traits8iterator8Iterator3mapRNtCs3cP53eQoTwO_11proc_macro25IdentNCNvNtNtCscdP1gRbl3Ff_20pin_project_internal11pin_project6derive15make_unpin_impls0_0EB2r_, symObjAddr: 0x1BC4, symBinAddr: 0x33B34, symSize: 0x1C }
  - { offset: 0x7C6EC, size: 0x8, addend: 0x0, symName: __RNvYNtNtCs6IAuOt8vWmF_3syn8generics9LifetimesNtNtNtNtCsfvfooZQ3Axs_4core4iter6traits8iterator8Iterator9enumerateCscdP1gRbl3Ff_20pin_project_internal, symObjAddr: 0x3578, symBinAddr: 0x354E8, symSize: 0x28 }
  - { offset: 0x7C744, size: 0x8, addend: 0x0, symName: __RNvXNtNtNtCsfvfooZQ3Axs_4core4iter6traits7collectINtNtNtB6_8adapters3map3MapIBM_NtNtCs3cP53eQoTwO_11proc_macro212token_stream8IntoIterNCNvNtCscdP1gRbl3Ff_20pin_project_internal5utils13respan_tokens0ENvNtB1k_3imp19into_compiler_tokenENtB2_12IntoIterator9into_iterB2e_, symObjAddr: 0x28D0, symBinAddr: 0x34840, symSize: 0x30 }
  - { offset: 0x7C77C, size: 0x8, addend: 0x0, symName: __RNvXNtNtNtCsfvfooZQ3Axs_4core4iter6traits7collectINtNtNtB6_8adapters3map3MapINtNtNtCse1nGBsou5OW_5alloc3vec9into_iter8IntoIterTNtNtCs6IAuOt8vWmF_3syn4attr4MetaNtNtB25_5token5CommaEENCNvXs8_NtB25_10punctuatedINtB31_10PunctuatedB21_B2x_ENtB2_12IntoIterator9into_iter0EB3L_9into_iterCscdP1gRbl3Ff_20pin_project_internal, symObjAddr: 0x2900, symBinAddr: 0x34870, symSize: 0x14 }
  - { offset: 0x7C7B3, size: 0x8, addend: 0x0, symName: __RNvXNtNtNtCsfvfooZQ3Axs_4core4iter6traits7collectINtNtNtB6_8adapters3map3MapNtNtCs3cP53eQoTwO_11proc_macro212token_stream8IntoIterNCNvNtCscdP1gRbl3Ff_20pin_project_internal5utils13respan_tokens0ENtB2_12IntoIterator9into_iterB2a_, symObjAddr: 0x2914, symBinAddr: 0x34884, symSize: 0x30 }
  - { offset: 0x7CA87, size: 0x8, addend: 0x0, symName: __RNvMNtCsfvfooZQ3Axs_4core5sliceSNtNtCs6IAuOt8vWmF_3syn4item8ImplItem4iterCscdP1gRbl3Ff_20pin_project_internal, symObjAddr: 0x1EE4, symBinAddr: 0x33E54, symSize: 0x28 }
  - { offset: 0x7CABE, size: 0x8, addend: 0x0, symName: __RNvMNtCsfvfooZQ3Axs_4core5sliceSTNtNtCs6IAuOt8vWmF_3syn4data7VariantNtNtBz_5token5CommaE8iter_mutCscdP1gRbl3Ff_20pin_project_internal, symObjAddr: 0x1F0C, symBinAddr: 0x33E7C, symSize: 0x28 }
  - { offset: 0x7CAF5, size: 0x8, addend: 0x0, symName: __RNvMNtCsfvfooZQ3Axs_4core5sliceSTNtNtCs6IAuOt8vWmF_3syn4item5FnArgNtNtBz_5token5CommaE8iter_mutCscdP1gRbl3Ff_20pin_project_internal, symObjAddr: 0x1F34, symBinAddr: 0x33EA4, symSize: 0x28 }
  - { offset: 0x7CB2C, size: 0x8, addend: 0x0, symName: __RNvMNtCsfvfooZQ3Axs_4core5sliceSTNtNtCs6IAuOt8vWmF_3syn4item7UseTreeNtNtBz_5token5CommaE8iter_mutCscdP1gRbl3Ff_20pin_project_internal, symObjAddr: 0x1F5C, symBinAddr: 0x33ECC, symSize: 0x28 }
  - { offset: 0x7CB63, size: 0x8, addend: 0x0, symName: __RNvMNtCsfvfooZQ3Axs_4core5sliceSTNtNtCs6IAuOt8vWmF_3syn4path15GenericArgumentNtNtBz_5token5CommaE8iter_mutCscdP1gRbl3Ff_20pin_project_internal, symObjAddr: 0x1F84, symBinAddr: 0x33EF4, symSize: 0x28 }
  - { offset: 0x7CB9A, size: 0x8, addend: 0x0, symName: __RNvMNtCsfvfooZQ3Axs_4core5sliceSTNtNtCs6IAuOt8vWmF_3syn8generics13CapturedParamNtNtBz_5token5CommaE8iter_mutCscdP1gRbl3Ff_20pin_project_internal, symObjAddr: 0x1FAC, symBinAddr: 0x33F1C, symSize: 0x28 }
  - { offset: 0x7CBD1, size: 0x8, addend: 0x0, symName: __RNvMNtCsfvfooZQ3Axs_4core5sliceSTNtNtCs6IAuOt8vWmF_3syn8generics14TypeParamBoundNtNtBz_5token4PlusE8iter_mutCscdP1gRbl3Ff_20pin_project_internal, symObjAddr: 0x1FD4, symBinAddr: 0x33F44, symSize: 0x28 }
  - { offset: 0x7CC08, size: 0x8, addend: 0x0, symName: __RNvMNtCsfvfooZQ3Axs_4core5sliceSTNtNtCs6IAuOt8vWmF_3syn8generics14WherePredicateNtNtBz_5token5CommaE8iter_mutCscdP1gRbl3Ff_20pin_project_internal, symObjAddr: 0x1FFC, symBinAddr: 0x33F6C, symSize: 0x28 }
  - { offset: 0x7CCD3, size: 0x8, addend: 0x0, symName: __RNvNvMNtNtCsfvfooZQ3Axs_4core5alloc6layoutNtB4_6Layout25from_size_align_unchecked18precondition_checkCscdP1gRbl3Ff_20pin_project_internal, symObjAddr: 0x2500, symBinAddr: 0x34470, symSize: 0x50 }
  - { offset: 0x7CDA2, size: 0x8, addend: 0x0, symName: __RNvNtNtCsfvfooZQ3Axs_4core4char7methods15encode_utf8_rawCscdP1gRbl3Ff_20pin_project_internal, symObjAddr: 0x22D8, symBinAddr: 0x34248, symSize: 0x228 }
  - { offset: 0x7CF5E, size: 0x8, addend: 0x0, symName: __RNvNvNtCsfvfooZQ3Axs_4core4hint16assert_unchecked18precondition_checkCscdP1gRbl3Ff_20pin_project_internal, symObjAddr: 0x256C, symBinAddr: 0x344DC, symSize: 0x38 }
  - { offset: 0x7CF8C, size: 0x8, addend: 0x0, symName: __RNvNvNtCsfvfooZQ3Axs_4core4hint21unreachable_unchecked18precondition_checkCscdP1gRbl3Ff_20pin_project_internal, symObjAddr: 0x25A4, symBinAddr: 0x34514, symSize: 0x1C }
  - { offset: 0x7CFD8, size: 0x8, addend: 0x0, symName: __RNvXs1_NtCsfvfooZQ3Axs_4core7convertNtNtCs6IAuOt8vWmF_3syn8generics13LifetimeParamINtB5_4IntoNtBA_12GenericParamE4intoCscdP1gRbl3Ff_20pin_project_internal, symObjAddr: 0x2D4C, symBinAddr: 0x34CBC, symSize: 0x14 }
  - { offset: 0x7D039, size: 0x8, addend: 0x0, symName: __RNvXs1_NtNtNtCsfvfooZQ3Axs_4core3ops8function5implsQNCNvNtNtCscdP1gRbl3Ff_20pin_project_internal11pin_project4args10parse_args0INtB7_5FnMutTRRNtNtCs6IAuOt8vWmF_3syn4attr9AttributeEE8call_mutBW_, symObjAddr: 0x2D60, symBinAddr: 0x34CD0, symSize: 0x30 }
  - { offset: 0x7D08F, size: 0x8, addend: 0x0, symName: __RNvYNCNkNvNtNtNtCs9i5KxIbZ5ph_10proc_macro6bridge6client5state12BRIDGE_STATE0s_0INtNtNtCsfvfooZQ3Axs_4core3ops8function6FnOnceTINtNtB1n_6option6OptionQIB22_INtNtB1n_4cell4CellPuEEEEE9call_onceCscdP1gRbl3Ff_20pin_project_internal, symObjAddr: 0x3010, symBinAddr: 0x34F80, symSize: 0x4C }
  - { offset: 0x7D0D3, size: 0x8, addend: 0x0, symName: __RNvYNcNtINtNtCs6IAuOt8vWmF_3syn10punctuated4PairQNtNtBb_2ty4TypeQNtNtBb_5token5CommaE3End0INtNtNtCsfvfooZQ3Axs_4core3ops8function6FnOnceTBK_EE9call_onceCscdP1gRbl3Ff_20pin_project_internal, symObjAddr: 0x305C, symBinAddr: 0x34FCC, symSize: 0x24 }
  - { offset: 0x7D117, size: 0x8, addend: 0x0, symName: __RNvYNcNtINtNtCs6IAuOt8vWmF_3syn10punctuated4PairQNtNtBb_2ty9BareFnArgQNtNtBb_5token5CommaE3End0INtNtNtCsfvfooZQ3Axs_4core3ops8function6FnOnceTBK_EE9call_onceCscdP1gRbl3Ff_20pin_project_internal, symObjAddr: 0x3080, symBinAddr: 0x34FF0, symSize: 0x24 }
  - { offset: 0x7D15B, size: 0x8, addend: 0x0, symName: __RNvYNcNtINtNtCs6IAuOt8vWmF_3syn10punctuated4PairQNtNtBb_3pat3PatQNtNtBb_5token2OrE3End0INtNtNtCsfvfooZQ3Axs_4core3ops8function6FnOnceTBK_EE9call_onceCscdP1gRbl3Ff_20pin_project_internal, symObjAddr: 0x30A4, symBinAddr: 0x35014, symSize: 0x24 }
  - { offset: 0x7D19F, size: 0x8, addend: 0x0, symName: __RNvYNcNtINtNtCs6IAuOt8vWmF_3syn10punctuated4PairQNtNtBb_3pat3PatQNtNtBb_5token5CommaE3End0INtNtNtCsfvfooZQ3Axs_4core3ops8function6FnOnceTBK_EE9call_onceCscdP1gRbl3Ff_20pin_project_internal, symObjAddr: 0x30C8, symBinAddr: 0x35038, symSize: 0x24 }
  - { offset: 0x7D1E3, size: 0x8, addend: 0x0, symName: __RNvYNcNtINtNtCs6IAuOt8vWmF_3syn10punctuated4PairQNtNtBb_3pat8FieldPatQNtNtBb_5token5CommaE3End0INtNtNtCsfvfooZQ3Axs_4core3ops8function6FnOnceTBK_EE9call_onceCscdP1gRbl3Ff_20pin_project_internal, symObjAddr: 0x30EC, symBinAddr: 0x3505C, symSize: 0x24 }
  - { offset: 0x7D227, size: 0x8, addend: 0x0, symName: __RNvYNcNtINtNtCs6IAuOt8vWmF_3syn10punctuated4PairQNtNtBb_4data5FieldQNtNtBb_5token5CommaE3End0INtNtNtCsfvfooZQ3Axs_4core3ops8function6FnOnceTBK_EE9call_onceCscdP1gRbl3Ff_20pin_project_internal, symObjAddr: 0x3110, symBinAddr: 0x35080, symSize: 0x24 }
  - { offset: 0x7D26B, size: 0x8, addend: 0x0, symName: __RNvYNcNtINtNtCs6IAuOt8vWmF_3syn10punctuated4PairQNtNtBb_4data7VariantQNtNtBb_5token5CommaE3End0INtNtNtCsfvfooZQ3Axs_4core3ops8function6FnOnceTBK_EE9call_onceCscdP1gRbl3Ff_20pin_project_internal, symObjAddr: 0x3134, symBinAddr: 0x350A4, symSize: 0x24 }
  - { offset: 0x7D2AF, size: 0x8, addend: 0x0, symName: __RNvYNcNtINtNtCs6IAuOt8vWmF_3syn10punctuated4PairQNtNtBb_4expr10FieldValueQNtNtBb_5token5CommaE3End0INtNtNtCsfvfooZQ3Axs_4core3ops8function6FnOnceTBK_EE9call_onceCscdP1gRbl3Ff_20pin_project_internal, symObjAddr: 0x3158, symBinAddr: 0x350C8, symSize: 0x24 }
  - { offset: 0x7D2F3, size: 0x8, addend: 0x0, symName: __RNvYNcNtINtNtCs6IAuOt8vWmF_3syn10punctuated4PairQNtNtBb_4expr4ExprQNtNtBb_5token5CommaE3End0INtNtNtCsfvfooZQ3Axs_4core3ops8function6FnOnceTBK_EE9call_onceCscdP1gRbl3Ff_20pin_project_internal, symObjAddr: 0x317C, symBinAddr: 0x350EC, symSize: 0x24 }
  - { offset: 0x7D337, size: 0x8, addend: 0x0, symName: __RNvYNcNtINtNtCs6IAuOt8vWmF_3syn10punctuated4PairQNtNtBb_4item5FnArgQNtNtBb_5token5CommaE3End0INtNtNtCsfvfooZQ3Axs_4core3ops8function6FnOnceTBK_EE9call_onceCscdP1gRbl3Ff_20pin_project_internal, symObjAddr: 0x31A0, symBinAddr: 0x35110, symSize: 0x24 }
  - { offset: 0x7D37B, size: 0x8, addend: 0x0, symName: __RNvYNcNtINtNtCs6IAuOt8vWmF_3syn10punctuated4PairQNtNtBb_4item7UseTreeQNtNtBb_5token5CommaE3End0INtNtNtCsfvfooZQ3Axs_4core3ops8function6FnOnceTBK_EE9call_onceCscdP1gRbl3Ff_20pin_project_internal, symObjAddr: 0x31C4, symBinAddr: 0x35134, symSize: 0x24 }
  - { offset: 0x7D3BF, size: 0x8, addend: 0x0, symName: __RNvYNcNtINtNtCs6IAuOt8vWmF_3syn10punctuated4PairQNtNtBb_4path11PathSegmentQNtNtBb_5token7PathSepE3End0INtNtNtCsfvfooZQ3Axs_4core3ops8function6FnOnceTBK_EE9call_onceCscdP1gRbl3Ff_20pin_project_internal, symObjAddr: 0x31E8, symBinAddr: 0x35158, symSize: 0x24 }
  - { offset: 0x7D403, size: 0x8, addend: 0x0, symName: __RNvYNcNtINtNtCs6IAuOt8vWmF_3syn10punctuated4PairQNtNtBb_4path15GenericArgumentQNtNtBb_5token5CommaE3End0INtNtNtCsfvfooZQ3Axs_4core3ops8function6FnOnceTBK_EE9call_onceCscdP1gRbl3Ff_20pin_project_internal, symObjAddr: 0x320C, symBinAddr: 0x3517C, symSize: 0x24 }
  - { offset: 0x7D447, size: 0x8, addend: 0x0, symName: __RNvYNcNtINtNtCs6IAuOt8vWmF_3syn10punctuated4PairQNtNtBb_8generics12GenericParamQNtNtBb_5token5CommaE3End0INtNtNtCsfvfooZQ3Axs_4core3ops8function6FnOnceTBK_EE9call_onceCscdP1gRbl3Ff_20pin_project_internal, symObjAddr: 0x3230, symBinAddr: 0x351A0, symSize: 0x24 }
  - { offset: 0x7D48B, size: 0x8, addend: 0x0, symName: __RNvYNcNtINtNtCs6IAuOt8vWmF_3syn10punctuated4PairQNtNtBb_8generics13CapturedParamQNtNtBb_5token5CommaE3End0INtNtNtCsfvfooZQ3Axs_4core3ops8function6FnOnceTBK_EE9call_onceCscdP1gRbl3Ff_20pin_project_internal, symObjAddr: 0x3254, symBinAddr: 0x351C4, symSize: 0x24 }
  - { offset: 0x7D4CF, size: 0x8, addend: 0x0, symName: __RNvYNcNtINtNtCs6IAuOt8vWmF_3syn10punctuated4PairQNtNtBb_8generics14TypeParamBoundQNtNtBb_5token4PlusE3End0INtNtNtCsfvfooZQ3Axs_4core3ops8function6FnOnceTBK_EE9call_onceCscdP1gRbl3Ff_20pin_project_internal, symObjAddr: 0x3278, symBinAddr: 0x351E8, symSize: 0x24 }
  - { offset: 0x7D513, size: 0x8, addend: 0x0, symName: __RNvYNcNtINtNtCs6IAuOt8vWmF_3syn10punctuated4PairQNtNtBb_8generics14WherePredicateQNtNtBb_5token5CommaE3End0INtNtNtCsfvfooZQ3Axs_4core3ops8function6FnOnceTBK_EE9call_onceCscdP1gRbl3Ff_20pin_project_internal, symObjAddr: 0x329C, symBinAddr: 0x3520C, symSize: 0x24 }
  - { offset: 0x7D557, size: 0x8, addend: 0x0, symName: __RNvYNcNtINtNtCs6IAuOt8vWmF_3syn10punctuated4PairQNtNtBb_8lifetime8LifetimeQNtNtBb_5token4PlusE3End0INtNtNtCsfvfooZQ3Axs_4core3ops8function6FnOnceTBK_EE9call_onceCscdP1gRbl3Ff_20pin_project_internal, symObjAddr: 0x32C0, symBinAddr: 0x35230, symSize: 0x24 }
  - { offset: 0x7D59B, size: 0x8, addend: 0x0, symName: __RNvYNvMNtCs6IAuOt8vWmF_3syn10punctuatedINtB5_10PunctuatedNtNtB7_4attr4MetaNtNtB7_5token5CommaE16parse_terminatedINtNtNtCsfvfooZQ3Axs_4core3ops8function6FnOnceTRNtNtB7_5parse11ParseBufferEE9call_onceCscdP1gRbl3Ff_20pin_project_internal, symObjAddr: 0x3628, symBinAddr: 0x35598, symSize: 0x24 }
  - { offset: 0x7D5DF, size: 0x8, addend: 0x0, symName: __RNvYNvMNtCs6IAuOt8vWmF_3syn5errorNtB5_5Error18into_compile_errorINtNtNtCsfvfooZQ3Axs_4core3ops8function6FnOnceTBv_EE9call_onceCscdP1gRbl3Ff_20pin_project_internal, symObjAddr: 0x364C, symBinAddr: 0x355BC, symSize: 0x34 }
  - { offset: 0x7D623, size: 0x8, addend: 0x0, symName: __RNvYNvYINtNtCse1nGBsou5OW_5alloc3vec3VecNtNtCs6IAuOt8vWmF_3syn4stmt4StmtENtNtBG_11parse_quote10ParseQuote5parseINtNtNtCsfvfooZQ3Axs_4core3ops8function6FnOnceTRNtNtBG_5parse11ParseBufferEE9call_onceCscdP1gRbl3Ff_20pin_project_internal, symObjAddr: 0x36E0, symBinAddr: 0x35650, symSize: 0x24 }
  - { offset: 0x7D667, size: 0x8, addend: 0x0, symName: __RNvYNvYINtNtCse1nGBsou5OW_5alloc5boxed3BoxNtNtCs6IAuOt8vWmF_3syn2ty4TypeEINtNtCsfvfooZQ3Axs_4core7convert5AsMutBE_E6as_mutINtNtNtB1e_3ops8function6FnOnceTQB5_EE9call_onceCscdP1gRbl3Ff_20pin_project_internal, symObjAddr: 0x3704, symBinAddr: 0x35674, symSize: 0x24 }
  - { offset: 0x7D6AB, size: 0x8, addend: 0x0, symName: __RNvYNvYINtNtCse1nGBsou5OW_5alloc5boxed3BoxNtNtCs6IAuOt8vWmF_3syn2ty9BareFnArgEINtNtCsfvfooZQ3Axs_4core7convert5AsMutBE_E6as_mutINtNtNtB1j_3ops8function6FnOnceTQB5_EE9call_onceCscdP1gRbl3Ff_20pin_project_internal, symObjAddr: 0x3728, symBinAddr: 0x35698, symSize: 0x24 }
  - { offset: 0x7D6EF, size: 0x8, addend: 0x0, symName: __RNvYNvYINtNtCse1nGBsou5OW_5alloc5boxed3BoxNtNtCs6IAuOt8vWmF_3syn3pat3PatEINtNtCsfvfooZQ3Axs_4core7convert5AsMutBE_E6as_mutINtNtNtB1e_3ops8function6FnOnceTQB5_EE9call_onceCscdP1gRbl3Ff_20pin_project_internal, symObjAddr: 0x374C, symBinAddr: 0x356BC, symSize: 0x24 }
  - { offset: 0x7D733, size: 0x8, addend: 0x0, symName: __RNvYNvYINtNtCse1nGBsou5OW_5alloc5boxed3BoxNtNtCs6IAuOt8vWmF_3syn3pat8FieldPatEINtNtCsfvfooZQ3Axs_4core7convert5AsMutBE_E6as_mutINtNtNtB1j_3ops8function6FnOnceTQB5_EE9call_onceCscdP1gRbl3Ff_20pin_project_internal, symObjAddr: 0x3770, symBinAddr: 0x356E0, symSize: 0x24 }
  - { offset: 0x7D777, size: 0x8, addend: 0x0, symName: __RNvYNvYINtNtCse1nGBsou5OW_5alloc5boxed3BoxNtNtCs6IAuOt8vWmF_3syn4data7VariantEINtNtCsfvfooZQ3Axs_4core7convert5AsMutBE_E6as_mutINtNtNtB1j_3ops8function6FnOnceTQB5_EE9call_onceCscdP1gRbl3Ff_20pin_project_internal, symObjAddr: 0x3794, symBinAddr: 0x35704, symSize: 0x24 }
  - { offset: 0x7D7BB, size: 0x8, addend: 0x0, symName: __RNvYNvYINtNtCse1nGBsou5OW_5alloc5boxed3BoxNtNtCs6IAuOt8vWmF_3syn4expr10FieldValueEINtNtCsfvfooZQ3Axs_4core7convert5AsMutBE_E6as_mutINtNtNtB1n_3ops8function6FnOnceTQB5_EE9call_onceCscdP1gRbl3Ff_20pin_project_internal, symObjAddr: 0x37B8, symBinAddr: 0x35728, symSize: 0x24 }
  - { offset: 0x7D7FF, size: 0x8, addend: 0x0, symName: __RNvYNvYINtNtCse1nGBsou5OW_5alloc5boxed3BoxNtNtCs6IAuOt8vWmF_3syn4expr4ExprEINtNtCsfvfooZQ3Axs_4core7convert5AsMutBE_E6as_mutINtNtNtB1g_3ops8function6FnOnceTQB5_EE9call_onceCscdP1gRbl3Ff_20pin_project_internal, symObjAddr: 0x37DC, symBinAddr: 0x3574C, symSize: 0x24 }
  - { offset: 0x7D843, size: 0x8, addend: 0x0, symName: __RNvYNvYINtNtCse1nGBsou5OW_5alloc5boxed3BoxNtNtCs6IAuOt8vWmF_3syn4item5FnArgEINtNtCsfvfooZQ3Axs_4core7convert5AsMutBE_E6as_mutINtNtNtB1h_3ops8function6FnOnceTQB5_EE9call_onceCscdP1gRbl3Ff_20pin_project_internal, symObjAddr: 0x3800, symBinAddr: 0x35770, symSize: 0x24 }
  - { offset: 0x7D887, size: 0x8, addend: 0x0, symName: __RNvYNvYINtNtCse1nGBsou5OW_5alloc5boxed3BoxNtNtCs6IAuOt8vWmF_3syn4item7UseTreeEINtNtCsfvfooZQ3Axs_4core7convert5AsMutBE_E6as_mutINtNtNtB1j_3ops8function6FnOnceTQB5_EE9call_onceCscdP1gRbl3Ff_20pin_project_internal, symObjAddr: 0x3824, symBinAddr: 0x35794, symSize: 0x24 }
  - { offset: 0x7D8CB, size: 0x8, addend: 0x0, symName: __RNvYNvYINtNtCse1nGBsou5OW_5alloc5boxed3BoxNtNtCs6IAuOt8vWmF_3syn4path15GenericArgumentEINtNtCsfvfooZQ3Axs_4core7convert5AsMutBE_E6as_mutINtNtNtB1s_3ops8function6FnOnceTQB5_EE9call_onceCscdP1gRbl3Ff_20pin_project_internal, symObjAddr: 0x3848, symBinAddr: 0x357B8, symSize: 0x24 }
  - { offset: 0x7D90F, size: 0x8, addend: 0x0, symName: __RNvYNvYINtNtCse1nGBsou5OW_5alloc5boxed3BoxNtNtCs6IAuOt8vWmF_3syn8generics13CapturedParamEINtNtCsfvfooZQ3Axs_4core7convert5AsMutBE_E6as_mutINtNtNtB1u_3ops8function6FnOnceTQB5_EE9call_onceCscdP1gRbl3Ff_20pin_project_internal, symObjAddr: 0x386C, symBinAddr: 0x357DC, symSize: 0x24 }
  - { offset: 0x7D953, size: 0x8, addend: 0x0, symName: __RNvYNvYINtNtCse1nGBsou5OW_5alloc5boxed3BoxNtNtCs6IAuOt8vWmF_3syn8generics14TypeParamBoundEINtNtCsfvfooZQ3Axs_4core7convert5AsMutBE_E6as_mutINtNtNtB1v_3ops8function6FnOnceTQB5_EE9call_onceCscdP1gRbl3Ff_20pin_project_internal, symObjAddr: 0x3890, symBinAddr: 0x35800, symSize: 0x24 }
  - { offset: 0x7D997, size: 0x8, addend: 0x0, symName: __RNvYNvYINtNtCse1nGBsou5OW_5alloc5boxed3BoxNtNtCs6IAuOt8vWmF_3syn8generics14WherePredicateEINtNtCsfvfooZQ3Axs_4core7convert5AsMutBE_E6as_mutINtNtNtB1v_3ops8function6FnOnceTQB5_EE9call_onceCscdP1gRbl3Ff_20pin_project_internal, symObjAddr: 0x38B4, symBinAddr: 0x35824, symSize: 0x24 }
  - { offset: 0x7D9DB, size: 0x8, addend: 0x0, symName: __RNvYNvYINtNtCse1nGBsou5OW_5alloc5boxed3BoxNtNtCs6IAuOt8vWmF_3syn8lifetime8LifetimeEINtNtCsfvfooZQ3Axs_4core7convert5AsMutBE_E6as_mutINtNtNtB1o_3ops8function6FnOnceTQB5_EE9call_onceCscdP1gRbl3Ff_20pin_project_internal, symObjAddr: 0x38D8, symBinAddr: 0x35848, symSize: 0x24 }
  - { offset: 0x7DA1F, size: 0x8, addend: 0x0, symName: __RNvYNvYNtNtCs6IAuOt8vWmF_3syn11restriction10VisibilityNtNtB9_5parse5Parse5parseINtNtNtCsfvfooZQ3Axs_4core3ops8function6FnOnceTRNtBS_11ParseBufferEE9call_onceCscdP1gRbl3Ff_20pin_project_internal, symObjAddr: 0x38FC, symBinAddr: 0x3586C, symSize: 0x24 }
  - { offset: 0x7DA63, size: 0x8, addend: 0x0, symName: __RNvYNvYNtNtCs6IAuOt8vWmF_3syn2ty4TypeNtNtB9_11parse_quote10ParseQuote5parseINtNtNtCsfvfooZQ3Axs_4core3ops8function6FnOnceTRNtNtB9_5parse11ParseBufferEE9call_onceCscdP1gRbl3Ff_20pin_project_internal, symObjAddr: 0x3920, symBinAddr: 0x35890, symSize: 0x24 }
  - { offset: 0x7DAA7, size: 0x8, addend: 0x0, symName: __RNvYNvYNtNtCs6IAuOt8vWmF_3syn2ty8TypePathNtNtB9_11parse_quote10ParseQuote5parseINtNtNtCsfvfooZQ3Axs_4core3ops8function6FnOnceTRNtNtB9_5parse11ParseBufferEE9call_onceCscdP1gRbl3Ff_20pin_project_internal, symObjAddr: 0x3944, symBinAddr: 0x358B4, symSize: 0x24 }
  - { offset: 0x7DAEB, size: 0x8, addend: 0x0, symName: __RNvYNvYNtNtCs6IAuOt8vWmF_3syn2ty8TypePathNtNtB9_5parse5Parse5parseINtNtNtCsfvfooZQ3Axs_4core3ops8function6FnOnceTRNtBF_11ParseBufferEE9call_onceCscdP1gRbl3Ff_20pin_project_internal, symObjAddr: 0x3968, symBinAddr: 0x358D8, symSize: 0x24 }
  - { offset: 0x7DB2F, size: 0x8, addend: 0x0, symName: __RNvYNvYNtNtCs6IAuOt8vWmF_3syn4attr9AttributeNtNtB9_11parse_quote10ParseQuote5parseINtNtNtCsfvfooZQ3Axs_4core3ops8function6FnOnceTRNtNtB9_5parse11ParseBufferEE9call_onceCscdP1gRbl3Ff_20pin_project_internal, symObjAddr: 0x398C, symBinAddr: 0x358FC, symSize: 0x24 }
  - { offset: 0x7DB73, size: 0x8, addend: 0x0, symName: __RNvYNvYNtNtCs6IAuOt8vWmF_3syn4item4ItemNtNtB9_5parse5Parse5parseINtNtNtCsfvfooZQ3Axs_4core3ops8function6FnOnceTRNtBD_11ParseBufferEE9call_onceCscdP1gRbl3Ff_20pin_project_internal, symObjAddr: 0x39B0, symBinAddr: 0x35920, symSize: 0x24 }
  - { offset: 0x7DBB7, size: 0x8, addend: 0x0, symName: __RNvYNvYNtNtCs6IAuOt8vWmF_3syn4item8ItemImplNtNtB9_5parse5Parse5parseINtNtNtCsfvfooZQ3Axs_4core3ops8function6FnOnceTRNtBH_11ParseBufferEE9call_onceCscdP1gRbl3Ff_20pin_project_internal, symObjAddr: 0x39D4, symBinAddr: 0x35944, symSize: 0x24 }
  - { offset: 0x7DBFB, size: 0x8, addend: 0x0, symName: __RNvYNvYNtNtCs6IAuOt8vWmF_3syn4path4PathNtNtB9_5parse5Parse5parseINtNtNtCsfvfooZQ3Axs_4core3ops8function6FnOnceTRNtBD_11ParseBufferEE9call_onceCscdP1gRbl3Ff_20pin_project_internal, symObjAddr: 0x39F8, symBinAddr: 0x35968, symSize: 0x24 }
  - { offset: 0x7DC3F, size: 0x8, addend: 0x0, symName: __RNvYNvYNtNtCs6IAuOt8vWmF_3syn4stmt4StmtNtNtB9_11parse_quote10ParseQuote5parseINtNtNtCsfvfooZQ3Axs_4core3ops8function6FnOnceTRNtNtB9_5parse11ParseBufferEE9call_onceCscdP1gRbl3Ff_20pin_project_internal, symObjAddr: 0x3A1C, symBinAddr: 0x3598C, symSize: 0x24 }
  - { offset: 0x7DC83, size: 0x8, addend: 0x0, symName: __RNvYNvYNtNtCs6IAuOt8vWmF_3syn5token2GtNtNtCsfvfooZQ3Axs_4core7default7Default7defaultINtNtNtBE_3ops8function6FnOnceuE9call_onceCscdP1gRbl3Ff_20pin_project_internal, symObjAddr: 0x3A40, symBinAddr: 0x359B0, symSize: 0x2C }
  - { offset: 0x7DCC7, size: 0x8, addend: 0x0, symName: __RNvYNvYNtNtCs6IAuOt8vWmF_3syn5token2LtNtNtCsfvfooZQ3Axs_4core7default7Default7defaultINtNtNtBE_3ops8function6FnOnceuE9call_onceCscdP1gRbl3Ff_20pin_project_internal, symObjAddr: 0x3A6C, symBinAddr: 0x359DC, symSize: 0x2C }
  - { offset: 0x7DD0B, size: 0x8, addend: 0x0, symName: __RNvYNvYNtNtCs6IAuOt8vWmF_3syn8generics14WherePredicateNtNtB9_11parse_quote10ParseQuote5parseINtNtNtCsfvfooZQ3Axs_4core3ops8function6FnOnceTRNtNtB9_5parse11ParseBufferEE9call_onceCscdP1gRbl3Ff_20pin_project_internal, symObjAddr: 0x3A98, symBinAddr: 0x35A08, symSize: 0x24 }
  - { offset: 0x7DD4F, size: 0x8, addend: 0x0, symName: __RNvYNvYNtNtCs6IAuOt8vWmF_3syn8generics14WherePredicateNtNtB9_5parse5Parse5parseINtNtNtCsfvfooZQ3Axs_4core3ops8function6FnOnceTRNtBS_11ParseBufferEE9call_onceCscdP1gRbl3Ff_20pin_project_internal, symObjAddr: 0x3ABC, symBinAddr: 0x35A2C, symSize: 0x24 }
  - { offset: 0x7DD93, size: 0x8, addend: 0x0, symName: __RNvYNvYNtNtCs6IAuOt8vWmF_3syn8generics8GenericsNtNtB9_11parse_quote10ParseQuote5parseINtNtNtCsfvfooZQ3Axs_4core3ops8function6FnOnceTRNtNtB9_5parse11ParseBufferEE9call_onceCscdP1gRbl3Ff_20pin_project_internal, symObjAddr: 0x3AE0, symBinAddr: 0x35A50, symSize: 0x24 }
  - { offset: 0x7DDD7, size: 0x8, addend: 0x0, symName: __RNvYNvYNtNtNtCs9i5KxIbZ5ph_10proc_macro6bridge3rpc12PanicMessageINtNtCsfvfooZQ3Axs_4core7convert4FromINtNtCse1nGBsou5OW_5alloc5boxed3BoxDNtNtB15_3any3AnyNtNtB15_6marker4SendEL_EE4fromINtNtNtB15_3ops8function6FnOnceTB1B_EE9call_onceCscdP1gRbl3Ff_20pin_project_internal, symObjAddr: 0x3B04, symBinAddr: 0x35A74, symSize: 0x2C }
  - { offset: 0x7DE1B, size: 0x8, addend: 0x0, symName: __RNvYNvYNtNtNtCscdP1gRbl3Ff_20pin_project_internal11pin_project4args4ArgsNtNtCs6IAuOt8vWmF_3syn5parse5Parse5parseINtNtNtCsfvfooZQ3Axs_4core3ops8function6FnOnceTRNtB1a_11ParseBufferEE9call_onceBb_, symObjAddr: 0x3B30, symBinAddr: 0x35AA0, symSize: 0x24 }
  - { offset: 0x7DE5F, size: 0x8, addend: 0x0, symName: __RNvYNvYNtNtNtCscdP1gRbl3Ff_20pin_project_internal11pin_project9attribute5InputNtNtCs6IAuOt8vWmF_3syn5parse5Parse5parseINtNtNtCsfvfooZQ3Axs_4core3ops8function6FnOnceTRNtB1g_11ParseBufferEE9call_onceBb_, symObjAddr: 0x3B54, symBinAddr: 0x35AC4, symSize: 0x24 }
  - { offset: 0x7DEA3, size: 0x8, addend: 0x0, symName: __RNvYNvYNtNvNtNtCscdP1gRbl3Ff_20pin_project_internal11pin_project4args10parse_args5InputNtNtCs6IAuOt8vWmF_3syn5parse5Parse5parseINtNtNtCsfvfooZQ3Axs_4core3ops8function6FnOnceTRNtB1p_11ParseBufferEE9call_onceBd_, symObjAddr: 0x3B78, symBinAddr: 0x35AE8, symSize: 0x24 }
  - { offset: 0x7DEED, size: 0x8, addend: 0x0, symName: __RNvYNvCscdP1gRbl3Ff_20pin_project_internal11pin_projectINtNtNtCsfvfooZQ3Axs_4core3ops8function2FnTNtCs9i5KxIbZ5ph_10proc_macro11TokenStreamB1y_EE4callB4_, symObjAddr: 0x35A0, symBinAddr: 0x35510, symSize: 0x30 }
  - { offset: 0x7DF31, size: 0x8, addend: 0x0, symName: __RNvYNvCscdP1gRbl3Ff_20pin_project_internal11pinned_dropINtNtNtCsfvfooZQ3Axs_4core3ops8function2FnTNtCs9i5KxIbZ5ph_10proc_macro11TokenStreamB1y_EE4callB4_, symObjAddr: 0x35D0, symBinAddr: 0x35540, symSize: 0x30 }
  - { offset: 0x7DF75, size: 0x8, addend: 0x0, symName: __RNvYNvCscdP1gRbl3Ff_20pin_project_internal29___pin_project_internal_deriveINtNtNtCsfvfooZQ3Axs_4core3ops8function2FnTNtCs9i5KxIbZ5ph_10proc_macro11TokenStreamEE4callB4_, symObjAddr: 0x3600, symBinAddr: 0x35570, symSize: 0x28 }
  - { offset: 0x7DFBF, size: 0x8, addend: 0x0, symName: __RNvYNvMNtCsfvfooZQ3Axs_4core6optionINtB5_6OptionRNtCs3cP53eQoTwO_11proc_macro25IdentE6as_refINtNtNtB7_3ops8function5FnMutTRBx_EE8call_mutCscdP1gRbl3Ff_20pin_project_internal, symObjAddr: 0x3680, symBinAddr: 0x355F0, symSize: 0x28 }
  - { offset: 0x7E003, size: 0x8, addend: 0x0, symName: __RNvYNvNtCs3cP53eQoTwO_11proc_macro23imp19into_compiler_tokenINtNtNtCsfvfooZQ3Axs_4core3ops8function5FnMutTNtB6_9TokenTreeEE8call_mutCscdP1gRbl3Ff_20pin_project_internal, symObjAddr: 0x36A8, symBinAddr: 0x35618, symSize: 0x38 }
  - { offset: 0x7F35C, size: 0x8, addend: 0x0, symName: __RNvXs1_NtCse1nGBsou5OW_5alloc7raw_vecINtB5_6RawVecNtCs3cP53eQoTwO_11proc_macro211TokenStreamENtNtNtCsfvfooZQ3Axs_4core3ops4drop4Drop4dropCscdP1gRbl3Ff_20pin_project_internal, symObjAddr: 0x2C18, symBinAddr: 0x34B88, symSize: 0x34 }
  - { offset: 0x7F398, size: 0x8, addend: 0x0, symName: __RNvXs1_NtCse1nGBsou5OW_5alloc7raw_vecINtB5_6RawVecNtCs3cP53eQoTwO_11proc_macro25IdentENtNtNtCsfvfooZQ3Axs_4core3ops4drop4Drop4dropCscdP1gRbl3Ff_20pin_project_internal, symObjAddr: 0x2C4C, symBinAddr: 0x34BBC, symSize: 0x34 }
  - { offset: 0x7F3D4, size: 0x8, addend: 0x0, symName: __RNvXs1_NtCse1nGBsou5OW_5alloc7raw_vecINtB5_6RawVecNtNtB7_6string6StringENtNtNtCsfvfooZQ3Axs_4core3ops4drop4Drop4dropCscdP1gRbl3Ff_20pin_project_internal, symObjAddr: 0x2C80, symBinAddr: 0x34BF0, symSize: 0x34 }
  - { offset: 0x7F410, size: 0x8, addend: 0x0, symName: __RNvXs1_NtCse1nGBsou5OW_5alloc7raw_vecINtB5_6RawVecNtNtCs6IAuOt8vWmF_3syn4attr4MetaENtNtNtCsfvfooZQ3Axs_4core3ops4drop4Drop4dropCscdP1gRbl3Ff_20pin_project_internal, symObjAddr: 0x2CB4, symBinAddr: 0x34C24, symSize: 0x34 }
  - { offset: 0x7F44C, size: 0x8, addend: 0x0, symName: __RNvXs1_NtCse1nGBsou5OW_5alloc7raw_vecINtB5_6RawVecRNtNtCs6IAuOt8vWmF_3syn2ty4TypeENtNtNtCsfvfooZQ3Axs_4core3ops4drop4Drop4dropCscdP1gRbl3Ff_20pin_project_internal, symObjAddr: 0x2CE8, symBinAddr: 0x34C58, symSize: 0x30 }
  - { offset: 0x7F488, size: 0x8, addend: 0x0, symName: __RNvXs1_NtCse1nGBsou5OW_5alloc7raw_vecINtB5_6RawVecTNtNtCs6IAuOt8vWmF_3syn4attr4MetaNtNtBR_5token5CommaEENtNtNtCsfvfooZQ3Axs_4core3ops4drop4Drop4dropCscdP1gRbl3Ff_20pin_project_internal, symObjAddr: 0x2D18, symBinAddr: 0x34C88, symSize: 0x34 }
  - { offset: 0x7FB56, size: 0x8, addend: 0x0, symName: ___rustc_proc_macro_decls_8e5e4656dab9d7f3__, symObjAddr: 0x8678, symBinAddr: 0x2559F0, symSize: 0x0 }
  - { offset: 0x7FCDD, size: 0x8, addend: 0x0, symName: __RNvNtNtCscdP1gRbl3Ff_20pin_project_internal11pin_project4args10parse_args, symObjAddr: 0x4160, symBinAddr: 0x360D0, symSize: 0x688 }
  - { offset: 0x7FE67, size: 0x8, addend: 0x0, symName: __RNvXNvNtNtCscdP1gRbl3Ff_20pin_project_internal11pin_project4args10parse_argsNtB2_5InputNtNtCs6IAuOt8vWmF_3syn5parse5Parse5parse, symObjAddr: 0x47E8, symBinAddr: 0x36758, symSize: 0x6C }
  - { offset: 0x7FE98, size: 0x8, addend: 0x0, symName: __RNCNvXNvNtNtCscdP1gRbl3Ff_20pin_project_internal11pin_project4args10parse_argsNtB4_5InputNtNtCs6IAuOt8vWmF_3syn5parse5Parse5parse0Ba_, symObjAddr: 0x4854, symBinAddr: 0x367C4, symSize: 0x21C }
  - { offset: 0x7FF54, size: 0x8, addend: 0x0, symName: __RNCNvNtNtCscdP1gRbl3Ff_20pin_project_internal11pin_project4args10parse_args0B7_, symObjAddr: 0x4A70, symBinAddr: 0x369E0, symSize: 0x50 }
  - { offset: 0x7FFAC, size: 0x8, addend: 0x0, symName: __RNvXNtNtCscdP1gRbl3Ff_20pin_project_internal11pin_project4argsNtB2_4ArgsNtNtCs6IAuOt8vWmF_3syn5parse5Parse5parse, symObjAddr: 0x4AC0, symBinAddr: 0x36A30, symSize: 0x1840 }
  - { offset: 0x803D0, size: 0x8, addend: 0x0, symName: __RNvNvXNtNtCscdP1gRbl3Ff_20pin_project_internal11pin_project4argsNtB4_4ArgsNtNtCs6IAuOt8vWmF_3syn5parse5Parse5parse11parse_value, symObjAddr: 0x6300, symBinAddr: 0x38270, symSize: 0x760 }
  - { offset: 0x8057E, size: 0x8, addend: 0x0, symName: __RNvXs0_NvNtNvXNtNtCscdP1gRbl3Ff_20pin_project_internal11pin_project4argsNtBc_4ArgsNtNtCs6IAuOt8vWmF_3syn5parse5Parse5parse2kw1__NtB7_5UnpinB1i_5parse, symObjAddr: 0x6EF0, symBinAddr: 0x38E60, symSize: 0x34 }
  - { offset: 0x805AF, size: 0x8, addend: 0x0, symName: __RNCNvXs0_NvNtNvXNtNtCscdP1gRbl3Ff_20pin_project_internal11pin_project4argsNtBe_4ArgsNtNtCs6IAuOt8vWmF_3syn5parse5Parse5parse2kw1__NtB9_5UnpinB1k_5parse0Bi_, symObjAddr: 0x6F24, symBinAddr: 0x38E94, symSize: 0x1F8 }
  - { offset: 0x8061B, size: 0x8, addend: 0x0, symName: __RNvXs1_NvNtNvXNtNtCscdP1gRbl3Ff_20pin_project_internal11pin_project4argsNtBc_4ArgsNtNtCs6IAuOt8vWmF_3syn5parse5Parse5parse2kw1__NtB7_5UnpinNtNtCs2cqEZUIJimJ_5quote9to_tokens8ToTokens9to_tokens, symObjAddr: 0x711C, symBinAddr: 0x3908C, symSize: 0x6C }
  - { offset: 0x80833, size: 0x8, addend: 0x0, symName: __RNvXNtCscdP1gRbl3Ff_20pin_project_internal5utilsSNtNtCs6IAuOt8vWmF_3syn4attr9AttributeNtB2_8SliceExt14position_exact, symObjAddr: 0x4050, symBinAddr: 0x35FC0, symSize: 0x94 }
  - { offset: 0x8086D, size: 0x8, addend: 0x0, symName: __RNvXNtCscdP1gRbl3Ff_20pin_project_internal5utilsSNtNtCs6IAuOt8vWmF_3syn4attr9AttributeNtB2_8SliceExt4find, symObjAddr: 0x40E4, symBinAddr: 0x36054, symSize: 0x7C }
  - { offset: 0x808C4, size: 0x8, addend: 0x0, symName: __RNvCscdP1gRbl3Ff_20pin_project_internal11pin_project, symObjAddr: 0x6B8C, symBinAddr: 0x38AFC, symSize: 0xF8 }
  - { offset: 0x80901, size: 0x8, addend: 0x0, symName: __RNvCscdP1gRbl3Ff_20pin_project_internal11pinned_drop, symObjAddr: 0x6C84, symBinAddr: 0x38BF4, symSize: 0x20C }
  - { offset: 0x8098A, size: 0x8, addend: 0x0, symName: __RNvCscdP1gRbl3Ff_20pin_project_internal29___pin_project_internal_derive, symObjAddr: 0x6E90, symBinAddr: 0x38E00, symSize: 0x60 }
  - { offset: 0x80E00, size: 0x8, addend: 0x0, symName: __RINvMs0_NtCs6IAuOt8vWmF_3syn4attrNtB6_8MetaList15parse_args_withNvMNtB8_10punctuatedINtB13_10PunctuatedNtB6_4MetaNtNtB8_5token5CommaE16parse_terminatedECscdP1gRbl3Ff_20pin_project_internal, symObjAddr: 0x0, symBinAddr: 0x320E8, symSize: 0xF0 }
  - { offset: 0x80E5B, size: 0x8, addend: 0x0, symName: __RINvNtCs2cqEZUIJimJ_5quote9___private8get_spanNtCs3cP53eQoTwO_11proc_macro24SpanECscdP1gRbl3Ff_20pin_project_internal, symObjAddr: 0xF0, symBinAddr: 0x321D8, symSize: 0x20 }
  - { offset: 0x80F0F, size: 0x8, addend: 0x0, symName: __RNvXs4_NtCs2cqEZUIJimJ_5quote9___privateINtB5_9RepInterpNtCs3cP53eQoTwO_11proc_macro211TokenStreamENtNtB7_9to_tokens8ToTokens9to_tokensCscdP1gRbl3Ff_20pin_project_internal, symObjAddr: 0x2D90, symBinAddr: 0x34D00, symSize: 0x3C }
  - { offset: 0x80F4E, size: 0x8, addend: 0x0, symName: __RNvXs4_NtCs2cqEZUIJimJ_5quote9___privateINtB5_9RepInterpRNtCs3cP53eQoTwO_11proc_macro211TokenStreamENtNtB7_9to_tokens8ToTokens9to_tokensCscdP1gRbl3Ff_20pin_project_internal, symObjAddr: 0x2DCC, symBinAddr: 0x34D3C, symSize: 0x3C }
  - { offset: 0x80F8D, size: 0x8, addend: 0x0, symName: __RNvXs4_NtCs2cqEZUIJimJ_5quote9___privateINtB5_9RepInterpRNtCs3cP53eQoTwO_11proc_macro25IdentENtNtB7_9to_tokens8ToTokens9to_tokensCscdP1gRbl3Ff_20pin_project_internal, symObjAddr: 0x2E08, symBinAddr: 0x34D78, symSize: 0x3C }
  - { offset: 0x80FCC, size: 0x8, addend: 0x0, symName: __RNvXs4_NtCs2cqEZUIJimJ_5quote9___privateINtB5_9RepInterpRNtNtCs6IAuOt8vWmF_3syn4attr9AttributeENtNtB7_9to_tokens8ToTokens9to_tokensCscdP1gRbl3Ff_20pin_project_internal, symObjAddr: 0x2E44, symBinAddr: 0x34DB4, symSize: 0x3C }
  - { offset: 0x81011, size: 0x8, addend: 0x0, symName: __RNvXs6_NtCs2cqEZUIJimJ_5quote9___privateINtB5_20IdentFragmentAdapterRRNtCs3cP53eQoTwO_11proc_macro25IdentENtNtCsfvfooZQ3Axs_4core3fmt7Display3fmtCscdP1gRbl3Ff_20pin_project_internal, symObjAddr: 0x2E80, symBinAddr: 0x34DF0, symSize: 0x3C }
  - { offset: 0x81057, size: 0x8, addend: 0x0, symName: __RNvXs6_NtCs2cqEZUIJimJ_5quote9___privateINtB5_20IdentFragmentAdapterRjENtNtCsfvfooZQ3Axs_4core3fmt7Display3fmtCscdP1gRbl3Ff_20pin_project_internal, symObjAddr: 0x2EBC, symBinAddr: 0x34E2C, symSize: 0x3C }
  - { offset: 0x810A8, size: 0x8, addend: 0x0, symName: __RNvYINtNtNtNtCsfvfooZQ3Axs_4core4iter8adapters3map3MapINtNtB7_9enumerate9EnumerateINtNtNtBb_5slice4iter4IterRNtNtCs6IAuOt8vWmF_3syn2ty4TypeEENCNvNtNtCscdP1gRbl3Ff_20pin_project_internal11pin_project6derive15make_unpin_impl0ENtNtNtCs2cqEZUIJimJ_5quote9___private3ext14RepIteratorExt15quote_into_iterB2n_, symObjAddr: 0x2F94, symBinAddr: 0x34F04, symSize: 0x28 }
  - { offset: 0x810DD, size: 0x8, addend: 0x0, symName: __RNvYINtNtNtNtCsfvfooZQ3Axs_4core4iter8adapters3map3MapINtNtB7_9enumerate9EnumerateNtNtCs6IAuOt8vWmF_3syn8generics9LifetimesENCNvNtNtCscdP1gRbl3Ff_20pin_project_internal11pin_project6derive15make_unpin_impls_0ENtNtNtCs2cqEZUIJimJ_5quote9___private3ext14RepIteratorExt15quote_into_iterB26_, symObjAddr: 0x2FBC, symBinAddr: 0x34F2C, symSize: 0x28 }
  - { offset: 0x81112, size: 0x8, addend: 0x0, symName: __RNvYINtNtNtNtCsfvfooZQ3Axs_4core4iter8adapters3map3MapNtNtCs6IAuOt8vWmF_3syn8generics10TypeParamsNCNvNtNtCscdP1gRbl3Ff_20pin_project_internal11pin_project6derive15make_unpin_impls0_0ENtNtNtCs2cqEZUIJimJ_5quote9___private3ext14RepIteratorExt15quote_into_iterB1F_, symObjAddr: 0x2FE4, symBinAddr: 0x34F54, symSize: 0x2C }
  - { offset: 0x81234, size: 0x8, addend: 0x0, symName: __RNvXNtCs2cqEZUIJimJ_5quote9to_tokensRNtNtCs6IAuOt8vWmF_3syn4data6FieldsNtB2_8ToTokens9to_tokensCscdP1gRbl3Ff_20pin_project_internal, symObjAddr: 0x25C0, symBinAddr: 0x34530, symSize: 0x40 }
  - { offset: 0x81273, size: 0x8, addend: 0x0, symName: __RNvXNtCs2cqEZUIJimJ_5quote9to_tokensRNtNtCs6IAuOt8vWmF_3syn4item10ImplItemFnNtB2_8ToTokens9to_tokensCscdP1gRbl3Ff_20pin_project_internal, symObjAddr: 0x2600, symBinAddr: 0x34570, symSize: 0x40 }
  - { offset: 0x812B2, size: 0x8, addend: 0x0, symName: __RNvXNtCs2cqEZUIJimJ_5quote9to_tokensRNtNtCs6IAuOt8vWmF_3syn4item12ImplItemTypeNtB2_8ToTokens9to_tokensCscdP1gRbl3Ff_20pin_project_internal, symObjAddr: 0x2640, symBinAddr: 0x345B0, symSize: 0x40 }
  - { offset: 0x812F1, size: 0x8, addend: 0x0, symName: __RNvXNtCs2cqEZUIJimJ_5quote9to_tokensRNtNtCs6IAuOt8vWmF_3syn4item13ImplItemConstNtB2_8ToTokens9to_tokensCscdP1gRbl3Ff_20pin_project_internal, symObjAddr: 0x2680, symBinAddr: 0x345F0, symSize: 0x40 }
  - { offset: 0x81330, size: 0x8, addend: 0x0, symName: __RNvXNtCs2cqEZUIJimJ_5quote9to_tokensRNtNtCs6IAuOt8vWmF_3syn4item8ItemImplNtB2_8ToTokens9to_tokensCscdP1gRbl3Ff_20pin_project_internal, symObjAddr: 0x26C0, symBinAddr: 0x34630, symSize: 0x40 }
  - { offset: 0x8136F, size: 0x8, addend: 0x0, symName: __RNvXNtCs2cqEZUIJimJ_5quote9to_tokensRNtNtCs6IAuOt8vWmF_3syn4path4PathNtB2_8ToTokens9to_tokensCscdP1gRbl3Ff_20pin_project_internal, symObjAddr: 0x2700, symBinAddr: 0x34670, symSize: 0x40 }
  - { offset: 0x813AE, size: 0x8, addend: 0x0, symName: __RNvXNtCs2cqEZUIJimJ_5quote9to_tokensRNtNtCs6IAuOt8vWmF_3syn8generics11WhereClauseNtB2_8ToTokens9to_tokensCscdP1gRbl3Ff_20pin_project_internal, symObjAddr: 0x2740, symBinAddr: 0x346B0, symSize: 0x40 }
  - { offset: 0x813ED, size: 0x8, addend: 0x0, symName: __RNvXNtCs2cqEZUIJimJ_5quote9to_tokensRNtNtCs6IAuOt8vWmF_3syn8generics8GenericsNtB2_8ToTokens9to_tokensCscdP1gRbl3Ff_20pin_project_internal, symObjAddr: 0x2780, symBinAddr: 0x346F0, symSize: 0x40 }
  - { offset: 0x8142C, size: 0x8, addend: 0x0, symName: __RNvXNtCs2cqEZUIJimJ_5quote9to_tokensRQNtNtCs6IAuOt8vWmF_3syn4path4PathNtB2_8ToTokens9to_tokensCscdP1gRbl3Ff_20pin_project_internal, symObjAddr: 0x27C0, symBinAddr: 0x34730, symSize: 0x40 }
  - { offset: 0x81471, size: 0x8, addend: 0x0, symName: __RNvXs_NtCs2cqEZUIJimJ_5quote9to_tokensQNtNtCs6IAuOt8vWmF_3syn4path4PathNtB4_8ToTokens9to_tokensCscdP1gRbl3Ff_20pin_project_internal, symObjAddr: 0x2F54, symBinAddr: 0x34EC4, symSize: 0x40 }
  - { offset: 0x814B6, size: 0x8, addend: 0x0, symName: __RNvYNtNtCs6IAuOt8vWmF_3syn4attr4MetaNtNtCs2cqEZUIJimJ_5quote9to_tokens8ToTokens15to_token_streamCscdP1gRbl3Ff_20pin_project_internal, symObjAddr: 0x32E4, symBinAddr: 0x35254, symSize: 0x8C }
  - { offset: 0x81500, size: 0x8, addend: 0x0, symName: __RNvYNtNtCs6IAuOt8vWmF_3syn4item4ItemNtNtCs2cqEZUIJimJ_5quote9to_tokens8ToTokens15to_token_streamCscdP1gRbl3Ff_20pin_project_internal, symObjAddr: 0x3370, symBinAddr: 0x352E0, symSize: 0x8C }
  - { offset: 0x8154A, size: 0x8, addend: 0x0, symName: __RNvYNtNtCs6IAuOt8vWmF_3syn4item5FnArgNtNtCs2cqEZUIJimJ_5quote9to_tokens8ToTokens15to_token_streamCscdP1gRbl3Ff_20pin_project_internal, symObjAddr: 0x33FC, symBinAddr: 0x3536C, symSize: 0x8C }
  - { offset: 0x81594, size: 0x8, addend: 0x0, symName: __RNvYNtNtCs6IAuOt8vWmF_3syn4item8ItemImplNtNtCs2cqEZUIJimJ_5quote9to_tokens8ToTokens15to_token_streamCscdP1gRbl3Ff_20pin_project_internal, symObjAddr: 0x3488, symBinAddr: 0x353F8, symSize: 0x8C }
  - { offset: 0x815DE, size: 0x8, addend: 0x0, symName: __RNvYNtNtCs6IAuOt8vWmF_3syn4item8ItemImplNtNtCs2cqEZUIJimJ_5quote9to_tokens8ToTokens17into_token_streamCscdP1gRbl3Ff_20pin_project_internal, symObjAddr: 0x3514, symBinAddr: 0x35484, symSize: 0x64 }
  - { offset: 0x81614, size: 0x8, addend: 0x0, symName: __RNvYRNtNtCs6IAuOt8vWmF_3syn4attr9AttributeNtNtCs2cqEZUIJimJ_5quote9to_tokens8ToTokens15to_token_streamCscdP1gRbl3Ff_20pin_project_internal, symObjAddr: 0x3B9C, symBinAddr: 0x35B0C, symSize: 0x8C }
  - { offset: 0x8165E, size: 0x8, addend: 0x0, symName: __RNvYRNtNtCs6IAuOt8vWmF_3syn4data6FieldsNtNtCs2cqEZUIJimJ_5quote9to_tokens8ToTokens15to_token_streamCscdP1gRbl3Ff_20pin_project_internal, symObjAddr: 0x3C28, symBinAddr: 0x35B98, symSize: 0x8C }
  - { offset: 0x816A8, size: 0x8, addend: 0x0, symName: __RNvYRNtNtCs6IAuOt8vWmF_3syn4item10ImplItemFnNtNtCs2cqEZUIJimJ_5quote9to_tokens8ToTokens15to_token_streamCscdP1gRbl3Ff_20pin_project_internal, symObjAddr: 0x3CB4, symBinAddr: 0x35C24, symSize: 0x8C }
  - { offset: 0x816F2, size: 0x8, addend: 0x0, symName: __RNvYRNtNtCs6IAuOt8vWmF_3syn4item12ImplItemTypeNtNtCs2cqEZUIJimJ_5quote9to_tokens8ToTokens15to_token_streamCscdP1gRbl3Ff_20pin_project_internal, symObjAddr: 0x3D40, symBinAddr: 0x35CB0, symSize: 0x8C }
  - { offset: 0x8173C, size: 0x8, addend: 0x0, symName: __RNvYRNtNtCs6IAuOt8vWmF_3syn4item13ImplItemConstNtNtCs2cqEZUIJimJ_5quote9to_tokens8ToTokens15to_token_streamCscdP1gRbl3Ff_20pin_project_internal, symObjAddr: 0x3DCC, symBinAddr: 0x35D3C, symSize: 0x8C }
  - { offset: 0x81786, size: 0x8, addend: 0x0, symName: __RNvYRNtNtCs6IAuOt8vWmF_3syn4item8ItemImplNtNtCs2cqEZUIJimJ_5quote9to_tokens8ToTokens15to_token_streamCscdP1gRbl3Ff_20pin_project_internal, symObjAddr: 0x3E58, symBinAddr: 0x35DC8, symSize: 0x8C }
  - { offset: 0x817D0, size: 0x8, addend: 0x0, symName: __RNvYRNtNtCs6IAuOt8vWmF_3syn4path4PathNtNtCs2cqEZUIJimJ_5quote9to_tokens8ToTokens15to_token_streamCscdP1gRbl3Ff_20pin_project_internal, symObjAddr: 0x3EE4, symBinAddr: 0x35E54, symSize: 0x8C }
  - { offset: 0x8181A, size: 0x8, addend: 0x0, symName: __RNvYRQNtNtCs6IAuOt8vWmF_3syn4path4PathNtNtCs2cqEZUIJimJ_5quote9to_tokens8ToTokens15to_token_streamCscdP1gRbl3Ff_20pin_project_internal, symObjAddr: 0x3F70, symBinAddr: 0x35EE0, symSize: 0x8C }
  - { offset: 0x81864, size: 0x8, addend: 0x0, symName: __RNvYRQNtNtCs6IAuOt8vWmF_3syn4path4PathNtNtCs2cqEZUIJimJ_5quote9to_tokens8ToTokens17into_token_streamCscdP1gRbl3Ff_20pin_project_internal, symObjAddr: 0x3FFC, symBinAddr: 0x35F6C, symSize: 0x54 }
  - { offset: 0x818A5, size: 0x8, addend: 0x0, symName: __RNvXs0_NtCs2cqEZUIJimJ_5quote7spannedQNtNtCs6IAuOt8vWmF_3syn4path4PathNtB5_7Spanned6___spanCscdP1gRbl3Ff_20pin_project_internal, symObjAddr: 0x2944, symBinAddr: 0x348B4, symSize: 0x44 }
  - { offset: 0x819AB, size: 0x8, addend: 0x0, symName: __RNvMNtCs6IAuOt8vWmF_3syn5dropsINtB2_6NoDropINtNtB4_10punctuated11PrivateIterNtNtB4_4data7VariantNtNtB4_5token5CommaEE3newCscdP1gRbl3Ff_20pin_project_internal, symObjAddr: 0x1E64, symBinAddr: 0x33DD4, symSize: 0x40 }
  - { offset: 0x81A35, size: 0x8, addend: 0x0, symName: __RNvMNtCs6IAuOt8vWmF_3syn5dropsINtB2_6NoDropINtNtB4_10punctuated11PrivateIterNtNtB4_4path15GenericArgumentNtNtB4_5token5CommaEE3newCscdP1gRbl3Ff_20pin_project_internal, symObjAddr: 0x1EA4, symBinAddr: 0x33E14, symSize: 0x40 }
  - { offset: 0x81ADC, size: 0x8, addend: 0x0, symName: __RNvMs0_NtCse1nGBsou5OW_5alloc7raw_vecINtB5_6RawVecNtCs3cP53eQoTwO_11proc_macro211TokenStreamE8grow_oneCscdP1gRbl3Ff_20pin_project_internal, symObjAddr: 0x2024, symBinAddr: 0x33F94, symSize: 0x94 }
  - { offset: 0x81B8A, size: 0x8, addend: 0x0, symName: __RNvMs0_NtCse1nGBsou5OW_5alloc7raw_vecINtB5_6RawVecNtCs3cP53eQoTwO_11proc_macro25IdentE8grow_oneCscdP1gRbl3Ff_20pin_project_internal, symObjAddr: 0x20B8, symBinAddr: 0x34028, symSize: 0x94 }
  - { offset: 0x81C45, size: 0x8, addend: 0x0, symName: __RNvMs0_NtCse1nGBsou5OW_5alloc7raw_vecINtB5_6RawVecRNtNtCs6IAuOt8vWmF_3syn2ty4TypeE8grow_oneCscdP1gRbl3Ff_20pin_project_internal, symObjAddr: 0x214C, symBinAddr: 0x340BC, symSize: 0x90 }
  - { offset: 0x81CF3, size: 0x8, addend: 0x0, symName: __RNvMs0_NtCse1nGBsou5OW_5alloc7raw_vecINtB5_6RawVecTNtNtCs6IAuOt8vWmF_3syn4attr4MetaNtNtBR_5token5CommaEE8grow_oneCscdP1gRbl3Ff_20pin_project_internal, symObjAddr: 0x21DC, symBinAddr: 0x3414C, symSize: 0x94 }
  - { offset: 0x81D76, size: 0x8, addend: 0x0, symName: __RNvMs5_NtCs2cqEZUIJimJ_5quote9___privateINtB5_20IdentFragmentAdapterRRNtCs3cP53eQoTwO_11proc_macro25IdentE4spanCscdP1gRbl3Ff_20pin_project_internal, symObjAddr: 0x2270, symBinAddr: 0x341E0, symSize: 0x34 }
  - { offset: 0x81DBC, size: 0x8, addend: 0x0, symName: __RNvMs5_NtCs2cqEZUIJimJ_5quote9___privateINtB5_20IdentFragmentAdapterRjE4spanCscdP1gRbl3Ff_20pin_project_internal, symObjAddr: 0x22A4, symBinAddr: 0x34214, symSize: 0x34 }
  - { offset: 0x8206D, size: 0x8, addend: 0x0, symName: __RNvMs_NtNtCscdP1gRbl3Ff_20pin_project_internal11pin_project4argsNtB4_11ProjReplace4span, symObjAddr: 0x6A60, symBinAddr: 0x389D0, symSize: 0xBC }
  - { offset: 0x820AC, size: 0x8, addend: 0x0, symName: __RNvMs_NtNtCscdP1gRbl3Ff_20pin_project_internal11pin_project4argsNtB4_11ProjReplace5ident, symObjAddr: 0x6B1C, symBinAddr: 0x38A8C, symSize: 0x70 }
  - { offset: 0x83862, size: 0x8, addend: 0x0, symName: __RINvMNtCs6IAuOt8vWmF_3syn5errorNtB3_5Error11new_spannedRDNtNtCs2cqEZUIJimJ_5quote9to_tokens8ToTokensEL_RDNtNtCsfvfooZQ3Axs_4core3fmt7DisplayEL_ECscdP1gRbl3Ff_20pin_project_internal, symObjAddr: 0x0, symBinAddr: 0x390F8, symSize: 0xCC }
  - { offset: 0x83CB3, size: 0x8, addend: 0x0, symName: __RNvNvNtCsfvfooZQ3Axs_4core3ptr13read_volatile18precondition_checkCscdP1gRbl3Ff_20pin_project_internal, symObjAddr: 0xE80, symBinAddr: 0x39F78, symSize: 0x100 }
  - { offset: 0x8703C, size: 0x8, addend: 0x0, symName: __RINvXs0_NtNtNtCsfvfooZQ3Axs_4core4iter8adapters10filter_mapINtB6_9FilterMapINtNtNtBc_5slice4iter4IterINtNtBc_6option6OptionRNtCs3cP53eQoTwO_11proc_macro25IdentEENvMB1E_B1B_6as_refENtNtNtBa_6traits8iterator8Iterator8try_folduNCINvNvB2S_4find5checkRB1X_NCNvMs_NtNtCscdP1gRbl3Ff_20pin_project_internal11pin_project6deriveNtB48_7Context3new0E0INtNtNtBc_3ops12control_flow11ControlFlowB3W_EEB4c_, symObjAddr: 0x2BC, symBinAddr: 0x393B4, symSize: 0x3C }
  - { offset: 0x870C0, size: 0x8, addend: 0x0, symName: __RNCINvNtNtNtCsfvfooZQ3Axs_4core4iter8adapters10filter_map19filter_map_try_foldRINtNtBa_6option6OptionRNtCs3cP53eQoTwO_11proc_macro25IdentERB1B_uINtNtNtBa_3ops12control_flow11ControlFlowB2c_ENvMB1i_B1f_6as_refNCINvNvNtNtNtB8_6traits8iterator8Iterator4find5checkB2c_NCNvMs_NtNtCscdP1gRbl3Ff_20pin_project_internal11pin_project6deriveNtB4l_7Context3new0E0E0B4p_, symObjAddr: 0xC98, symBinAddr: 0x39D90, symSize: 0xD4 }
  - { offset: 0x8729E, size: 0x8, addend: 0x0, symName: __RNvXs_NtNtNtCsfvfooZQ3Axs_4core4iter8adapters4skipINtB4_4SkipINtNtCs6IAuOt8vWmF_3syn10punctuated9IntoPairsNtNtB12_4path11PathSegmentNtNtB12_5token7PathSepEENtNtNtB8_6traits8iterator8Iterator4nextCscdP1gRbl3Ff_20pin_project_internal, symObjAddr: 0x12B8, symBinAddr: 0x3A3B0, symSize: 0x78 }
  - { offset: 0x873E9, size: 0x8, addend: 0x0, symName: __RINvYINtNtNtNtCsfvfooZQ3Axs_4core4iter8adapters10filter_map9FilterMapINtNtNtBc_5slice4iter4IterINtNtBc_6option6OptionRNtCs3cP53eQoTwO_11proc_macro25IdentEENvMB1y_B1v_6as_refENtNtNtBa_6traits8iterator8Iterator4findNCNvMs_NtNtCscdP1gRbl3Ff_20pin_project_internal11pin_project6deriveNtB3w_7Context3new0EB3A_, symObjAddr: 0x6CC, symBinAddr: 0x397C4, symSize: 0x7C }
  - { offset: 0x87464, size: 0x8, addend: 0x0, symName: __RINvYINtNtNtNtCsfvfooZQ3Axs_4core4iter8adapters4skip4SkipINtNtCs6IAuOt8vWmF_3syn10punctuated9IntoPairsNtNtBY_4path11PathSegmentNtNtBY_5token7PathSepEENtNtNtBa_6traits8iterator8Iterator7collectINtBW_10PunctuatedB1C_B21_EECscdP1gRbl3Ff_20pin_project_internal, symObjAddr: 0x748, symBinAddr: 0x39840, symSize: 0x14 }
  - { offset: 0x874A5, size: 0x8, addend: 0x0, symName: __RINvYNtNtCs3cP53eQoTwO_11proc_macro212token_stream8IntoIterNtNtNtNtCsfvfooZQ3Axs_4core4iter6traits8iterator8Iterator3anyNCNvNtCscdP1gRbl3Ff_20pin_project_internal5utils11contains_fn0EB20_, symObjAddr: 0x75C, symBinAddr: 0x39854, symSize: 0x3C }
  - { offset: 0x874F4, size: 0x8, addend: 0x0, symName: __RINvYNtNtCs3cP53eQoTwO_11proc_macro212token_stream8IntoIterNtNtNtNtCsfvfooZQ3Axs_4core4iter6traits8iterator8Iterator3mapNtB7_9TokenTreeNCNvNtCscdP1gRbl3Ff_20pin_project_internal5utils13respan_tokens0EB2f_, symObjAddr: 0x798, symBinAddr: 0x39890, symSize: 0x50 }
  - { offset: 0x87562, size: 0x8, addend: 0x0, symName: __RINvYNtNtCs3cP53eQoTwO_11proc_macro212token_stream8IntoIterNtNtNtNtCsfvfooZQ3Axs_4core4iter6traits8iterator8Iterator4folduNCINvNtNtB11_8adapters3map8map_foldNtB7_9TokenTreeB2v_uNCNvNtCscdP1gRbl3Ff_20pin_project_internal5utils13respan_tokens0NCIB1Z_B2v_NtCs9i5KxIbZ5ph_10proc_macro9TokenTreeuNvNtB7_3imp19into_compiler_tokenNCINvNvBV_8for_each4callB42_NCINvXsg_B44_NtB44_11TokenStreamINtNtBZ_7collect12FromIteratorB42_E9from_iterINtB21_3MapIB6T_B3_B2P_EB4F_EE0E0E0E0EB2V_, symObjAddr: 0x7E8, symBinAddr: 0x398E0, symSize: 0x110 }
  - { offset: 0x875F3, size: 0x8, addend: 0x0, symName: __RINvYNtNtCs3cP53eQoTwO_11proc_macro212token_stream8IntoIterNtNtNtNtCsfvfooZQ3Axs_4core4iter6traits8iterator8Iterator4folduNCINvNtNtB11_8adapters3map8map_foldNtB7_9TokenTreeB2v_uNCNvNtCscdP1gRbl3Ff_20pin_project_internal5utils13respan_tokens0NCINvNvBV_8for_each4callB2v_NCINvXsa_NtB7_8fallbackNtB4s_11TokenStreamINtNtBZ_7collect6ExtendB2v_E6extendINtB21_3MapB3_B2P_EE0E0E0EB2V_, symObjAddr: 0x8F8, symBinAddr: 0x399F0, symSize: 0x110 }
  - { offset: 0x87684, size: 0x8, addend: 0x0, symName: __RINvYNtNtCs3cP53eQoTwO_11proc_macro212token_stream8IntoIterNtNtNtNtCsfvfooZQ3Axs_4core4iter6traits8iterator8Iterator4folduNCINvNvBV_8for_each4callNtB7_9TokenTreeNCINvXsa_NtB7_8fallbackNtB2I_11TokenStreamINtNtBZ_7collect6ExtendB2k_E6extendNtB7_11TokenStreamE0E0ECscdP1gRbl3Ff_20pin_project_internal, symObjAddr: 0xA08, symBinAddr: 0x39B00, symSize: 0x10C }
  - { offset: 0x87715, size: 0x8, addend: 0x0, symName: __RINvYNtNtCs3cP53eQoTwO_11proc_macro212token_stream8IntoIterNtNtNtNtCsfvfooZQ3Axs_4core4iter6traits8iterator8Iterator8for_eachNCINvXsa_NtB7_8fallbackNtB28_11TokenStreamINtNtBZ_7collect6ExtendNtB7_9TokenTreeE6extendNtB7_11TokenStreamE0ECscdP1gRbl3Ff_20pin_project_internal, symObjAddr: 0xB14, symBinAddr: 0x39C0C, symSize: 0x24 }
  - { offset: 0x87761, size: 0x8, addend: 0x0, symName: __RINvYNtNtCs3cP53eQoTwO_11proc_macro212token_stream8IntoIterNtNtNtNtCsfvfooZQ3Axs_4core4iter6traits8iterator8Iterator8try_folduNCINvNvBV_3any5checkNtB7_9TokenTreeNCNvNtCscdP1gRbl3Ff_20pin_project_internal5utils11contains_fn0E0INtNtNtB13_3ops12control_flow11ControlFlowuEEB2F_, symObjAddr: 0xB38, symBinAddr: 0x39C30, symSize: 0x160 }
  - { offset: 0x8781C, size: 0x8, addend: 0x0, symName: __RNvYNtNtCs3cP53eQoTwO_11proc_macro212token_stream8IntoIterNtNtNtNtCsfvfooZQ3Axs_4core4iter6traits8iterator8Iterator8peekableCscdP1gRbl3Ff_20pin_project_internal, symObjAddr: 0x3668, symBinAddr: 0x3C760, symSize: 0x4C }
  - { offset: 0x878F8, size: 0x8, addend: 0x0, symName: __RNvXNtNtNtCsfvfooZQ3Axs_4core4iter6traits7collectINtNtNtB6_8adapters4skip4SkipINtNtCs6IAuOt8vWmF_3syn10punctuated9IntoPairsNtNtB1j_4path11PathSegmentNtNtB1j_5token7PathSepEENtB2_12IntoIterator9into_iterCscdP1gRbl3Ff_20pin_project_internal, symObjAddr: 0x100C, symBinAddr: 0x3A104, symSize: 0x30 }
  - { offset: 0x8793D, size: 0x8, addend: 0x0, symName: __RNvXsF_NtNtCsfvfooZQ3Axs_4core4iter5rangejNtB5_4Step17forward_uncheckedCscdP1gRbl3Ff_20pin_project_internal, symObjAddr: 0x11A8, symBinAddr: 0x3A2A0, symSize: 0x48 }
  - { offset: 0x87C3F, size: 0x8, addend: 0x0, symName: __RNvMNtCsfvfooZQ3Axs_4core5sliceSTNtNtCs6IAuOt8vWmF_3syn8lifetime8LifetimeNtNtBz_5token4PlusE8iter_mutCscdP1gRbl3Ff_20pin_project_internal, symObjAddr: 0xD94, symBinAddr: 0x39E8C, symSize: 0x28 }
  - { offset: 0x87CC4, size: 0x8, addend: 0x0, symName: __RNvMNtCsfvfooZQ3Axs_4core5sliceSh15copy_from_sliceCscdP1gRbl3Ff_20pin_project_internal, symObjAddr: 0xDBC, symBinAddr: 0x39EB4, symSize: 0xA4 }
  - { offset: 0x8805F, size: 0x8, addend: 0x0, symName: __RNvXs_NtNtCsfvfooZQ3Axs_4core3str6traitseNtNtB8_3cmp9PartialEq2eqCscdP1gRbl3Ff_20pin_project_internal, symObjAddr: 0x1254, symBinAddr: 0x3A34C, symSize: 0x64 }
  - { offset: 0x882F2, size: 0x8, addend: 0x0, symName: __RNvXsw_NtCse1nGBsou5OW_5alloc6stringNtNtCs6IAuOt8vWmF_3syn8lifetime8LifetimeNtB5_8ToString9to_stringCscdP1gRbl3Ff_20pin_project_internal, symObjAddr: 0x3468, symBinAddr: 0x3C560, symSize: 0x24 }
  - { offset: 0x8832F, size: 0x8, addend: 0x0, symName: __RNvXsx_NtCse1nGBsou5OW_5alloc6stringNtNtCs6IAuOt8vWmF_3syn8lifetime8LifetimeNtB5_12SpecToString14spec_to_stringCscdP1gRbl3Ff_20pin_project_internal, symObjAddr: 0x348C, symBinAddr: 0x3C584, symSize: 0x144 }
  - { offset: 0x89691, size: 0x8, addend: 0x0, symName: __RINvXs5_NtCs3cP53eQoTwO_11proc_macro23impNtB6_11TokenStreamINtNtNtNtCsfvfooZQ3Axs_4core4iter6traits7collect12FromIteratorNtB8_9TokenTreeE9from_iterINtNtNtB12_8adapters3map3MapNtNtB8_12token_stream8IntoIterNCNvNtCscdP1gRbl3Ff_20pin_project_internal5utils13respan_tokens0EEB3n_, symObjAddr: 0x2F8, symBinAddr: 0x393F0, symSize: 0x16C }
  - { offset: 0x896CD, size: 0x8, addend: 0x0, symName: __RINvXs7_NtCs3cP53eQoTwO_11proc_macro23impNtB6_11TokenStreamINtNtNtNtCsfvfooZQ3Axs_4core4iter6traits7collect6ExtendNtB8_9TokenTreeE6extendNtB8_11TokenStreamECscdP1gRbl3Ff_20pin_project_internal, symObjAddr: 0x464, symBinAddr: 0x3955C, symSize: 0x164 }
  - { offset: 0x897C5, size: 0x8, addend: 0x0, symName: __RNvXsA_NtCs3cP53eQoTwO_11proc_macro23impNtB5_19DeferredTokenStreamNtNtCsfvfooZQ3Axs_4core5clone5Clone5cloneCscdP1gRbl3Ff_20pin_project_internal, symObjAddr: 0x107C, symBinAddr: 0x3A174, symSize: 0x90 }
  - { offset: 0x897F7, size: 0x8, addend: 0x0, symName: __RNvXsF_NtCs3cP53eQoTwO_11proc_macro23impNtB5_5IdentNtNtCsfvfooZQ3Axs_4core5clone5Clone5cloneCscdP1gRbl3Ff_20pin_project_internal, symObjAddr: 0x110C, symBinAddr: 0x3A204, symSize: 0x9C }
  - { offset: 0x89867, size: 0x8, addend: 0x0, symName: __RNvXsz_NtCs3cP53eQoTwO_11proc_macro23impNtB5_11TokenStreamNtNtCsfvfooZQ3Axs_4core5clone5Clone5cloneCscdP1gRbl3Ff_20pin_project_internal, symObjAddr: 0x35D0, symBinAddr: 0x3C6C8, symSize: 0x98 }
  - { offset: 0x8A063, size: 0x8, addend: 0x0, symName: __RNvXNtNtCs9i5KxIbZ5ph_10proc_macro6bridge3rpcuINtB2_6EncodeuE6encodeCscdP1gRbl3Ff_20pin_project_internal, symObjAddr: 0xFF8, symBinAddr: 0x3A0F0, symSize: 0x14 }
  - { offset: 0x8A0DC, size: 0x8, addend: 0x0, symName: __RNvXsa_NtNtCs9i5KxIbZ5ph_10proc_macro6bridge3rpcRShINtB5_6EncodeuE6encodeCscdP1gRbl3Ff_20pin_project_internal, symObjAddr: 0x1330, symBinAddr: 0x3A428, symSize: 0xD0 }
  - { offset: 0x8A1DE, size: 0x8, addend: 0x0, symName: __RNvXsc_NtNtCs9i5KxIbZ5ph_10proc_macro6bridge3rpcReINtB5_6EncodeuE6encodeCscdP1gRbl3Ff_20pin_project_internal, symObjAddr: 0x1400, symBinAddr: 0x3A4F8, symSize: 0x38 }
  - { offset: 0x8A2C6, size: 0x8, addend: 0x0, symName: __RNvXsl_NtNtCs9i5KxIbZ5ph_10proc_macro6bridge3rpcNtB5_12PanicMessageINtB5_6EncodeuE6encodeCscdP1gRbl3Ff_20pin_project_internal, symObjAddr: 0x3238, symBinAddr: 0x3C330, symSize: 0x128 }
  - { offset: 0x8A48C, size: 0x8, addend: 0x0, symName: __RNvXso_NtNtCs9i5KxIbZ5ph_10proc_macro6bridge3rpcmINtB5_9DecodeMutuE6decodeCscdP1gRbl3Ff_20pin_project_internal, symObjAddr: 0x3360, symBinAddr: 0x3C458, symSize: 0x108 }
  - { offset: 0x8A781, size: 0x8, addend: 0x0, symName: __RINvXsg_Cs9i5KxIbZ5ph_10proc_macroNtB6_11TokenStreamINtNtNtNtCsfvfooZQ3Axs_4core4iter6traits7collect12FromIteratorNtB6_9TokenTreeE9from_iterINtNtNtBV_8adapters3map3MapIB2f_NtNtCs3cP53eQoTwO_11proc_macro212token_stream8IntoIterNCNvNtCscdP1gRbl3Ff_20pin_project_internal5utils13respan_tokens0ENvNtB2O_3imp19into_compiler_tokenEEB3I_, symObjAddr: 0x5C8, symBinAddr: 0x396C0, symSize: 0x104 }
  - { offset: 0x8A7EB, size: 0x8, addend: 0x0, symName: __RNCINvXsg_Cs9i5KxIbZ5ph_10proc_macroNtB8_11TokenStreamINtNtNtNtCsfvfooZQ3Axs_4core4iter6traits7collect12FromIteratorNtB8_9TokenTreeE9from_iterINtNtNtBX_8adapters3map3MapIB2h_NtNtCs3cP53eQoTwO_11proc_macro212token_stream8IntoIterNCNvNtCscdP1gRbl3Ff_20pin_project_internal5utils13respan_tokens0ENvNtB2Q_3imp19into_compiler_tokenEE0B3K_, symObjAddr: 0xD6C, symBinAddr: 0x39E64, symSize: 0x28 }
  - { offset: 0x8A866, size: 0x8, addend: 0x0, symName: __RNvXs1f_Cs9i5KxIbZ5ph_10proc_macroNtB6_5IdentNtNtCsfvfooZQ3Axs_4core5clone5Clone5cloneCscdP1gRbl3Ff_20pin_project_internal, symObjAddr: 0x103C, symBinAddr: 0x3A134, symSize: 0x40 }
  - { offset: 0x8A89A, size: 0x8, addend: 0x0, symName: __RNvXsU_Cs9i5KxIbZ5ph_10proc_macroNtB5_11TokenStreamNtNtCsfvfooZQ3Axs_4core5clone5Clone5cloneCscdP1gRbl3Ff_20pin_project_internal, symObjAddr: 0x11F0, symBinAddr: 0x3A2E8, symSize: 0x64 }
  - { offset: 0x8F863, size: 0x8, addend: 0x0, symName: __RINvNtCs6IAuOt8vWmF_3syn5parse12parse_scopedNvMNtB4_10punctuatedINtBJ_10PunctuatedNtNtB4_4attr4MetaNtNtB4_5token5CommaE16parse_terminatedECscdP1gRbl3Ff_20pin_project_internal, symObjAddr: 0x28C, symBinAddr: 0x39384, symSize: 0x30 }
  - { offset: 0x8F8BE, size: 0x8, addend: 0x0, symName: __RNvXsh_NtCs6IAuOt8vWmF_3syn5parseNvYNtNtB7_11restriction10VisibilityNtB5_5Parse5parseNtB5_6Parser6parse2CscdP1gRbl3Ff_20pin_project_internal, symObjAddr: 0x1438, symBinAddr: 0x3A530, symSize: 0x33C }
  - { offset: 0x8F9CD, size: 0x8, addend: 0x0, symName: __RNvXsh_NtCs6IAuOt8vWmF_3syn5parseNvYNtNtB7_2ty8TypePathNtB5_5Parse5parseNtB5_6Parser6parse2CscdP1gRbl3Ff_20pin_project_internal, symObjAddr: 0x1774, symBinAddr: 0x3A86C, symSize: 0x354 }
  - { offset: 0x8FADD, size: 0x8, addend: 0x0, symName: __RNvXsh_NtCs6IAuOt8vWmF_3syn5parseNvYNtNtB7_4item4ItemNtB5_5Parse5parseNtB5_6Parser6parse2CscdP1gRbl3Ff_20pin_project_internal, symObjAddr: 0x1AC8, symBinAddr: 0x3ABC0, symSize: 0x358 }
  - { offset: 0x8FBED, size: 0x8, addend: 0x0, symName: __RNvXsh_NtCs6IAuOt8vWmF_3syn5parseNvYNtNtB7_4item8ItemImplNtB5_5Parse5parseNtB5_6Parser6parse2CscdP1gRbl3Ff_20pin_project_internal, symObjAddr: 0x1E20, symBinAddr: 0x3AF18, symSize: 0x35C }
  - { offset: 0x8FCFD, size: 0x8, addend: 0x0, symName: __RNvXsh_NtCs6IAuOt8vWmF_3syn5parseNvYNtNtB7_4path4PathNtB5_5Parse5parseNtB5_6Parser6parse2CscdP1gRbl3Ff_20pin_project_internal, symObjAddr: 0x217C, symBinAddr: 0x3B274, symSize: 0x354 }
  - { offset: 0x8FE0D, size: 0x8, addend: 0x0, symName: __RNvXsh_NtCs6IAuOt8vWmF_3syn5parseNvYNtNtB7_8generics14WherePredicateNtB5_5Parse5parseNtB5_6Parser6parse2CscdP1gRbl3Ff_20pin_project_internal, symObjAddr: 0x24D0, symBinAddr: 0x3B5C8, symSize: 0x368 }
  - { offset: 0x8FF1D, size: 0x8, addend: 0x0, symName: __RNvXsh_NtCs6IAuOt8vWmF_3syn5parseNvYNtNtNtCscdP1gRbl3Ff_20pin_project_internal11pin_project4args4ArgsNtB5_5Parse5parseNtB5_6Parser6parse2BE_, symObjAddr: 0x2838, symBinAddr: 0x3B930, symSize: 0x350 }
  - { offset: 0x9002D, size: 0x8, addend: 0x0, symName: __RNvXsh_NtCs6IAuOt8vWmF_3syn5parseNvYNtNtNtCscdP1gRbl3Ff_20pin_project_internal11pin_project9attribute5InputNtB5_5Parse5parseNtB5_6Parser6parse2BE_, symObjAddr: 0x2B88, symBinAddr: 0x3BC80, symSize: 0x368 }
  - { offset: 0x9013D, size: 0x8, addend: 0x0, symName: __RNvXsh_NtCs6IAuOt8vWmF_3syn5parseNvYNtNvNtNtCscdP1gRbl3Ff_20pin_project_internal11pin_project4args10parse_args5InputNtB5_5Parse5parseNtB5_6Parser6parse2BG_, symObjAddr: 0x2EF0, symBinAddr: 0x3BFE8, symSize: 0x348 }
  - { offset: 0x90252, size: 0x8, addend: 0x0, symName: __RNvYNvYNtNtCs6IAuOt8vWmF_3syn4item8ItemImplNtNtB9_5parse5Parse5parseNtBH_6Parser5parseCscdP1gRbl3Ff_20pin_project_internal, symObjAddr: 0x36B4, symBinAddr: 0x3C7AC, symSize: 0x88 }
  - { offset: 0x90993, size: 0x8, addend: 0x0, symName: __RINvMNtCs6IAuOt8vWmF_3syn5errorNtB3_5Error11new_spannedRDNtNtCs2cqEZUIJimJ_5quote9to_tokens8ToTokensEL_RDNtNtCsfvfooZQ3Axs_4core3fmt7DisplayEL_ECscdP1gRbl3Ff_20pin_project_internal, symObjAddr: 0x0, symBinAddr: 0x390F8, symSize: 0xCC }
  - { offset: 0x90C13, size: 0x8, addend: 0x0, symName: __RNvXs_NtCscdP1gRbl3Ff_20pin_project_internal5utilsRNtNtCs6IAuOt8vWmF_3syn5parse11ParseBufferNtB4_14ParseBufferExt13parenthesized, symObjAddr: 0x3768, symBinAddr: 0x3C860, symSize: 0x158 }
  - { offset: 0x90CB1, size: 0x8, addend: 0x0, symName: __RNvNtCscdP1gRbl3Ff_20pin_project_internal11pinned_drop9attribute, symObjAddr: 0x38C0, symBinAddr: 0x3C9B8, symSize: 0x5FC }
  - { offset: 0x90DB8, size: 0x8, addend: 0x0, symName: __RNCNvNtCscdP1gRbl3Ff_20pin_project_internal11pinned_drop9attribute0B5_, symObjAddr: 0x3EBC, symBinAddr: 0x3CFB4, symSize: 0x1C8 }
  - { offset: 0x90E37, size: 0x8, addend: 0x0, symName: __RNvNtCscdP1gRbl3Ff_20pin_project_internal11pinned_drop13validate_impl, symObjAddr: 0x4084, symBinAddr: 0x3D17C, symSize: 0x358 }
  - { offset: 0x90EB1, size: 0x8, addend: 0x0, symName: __RNCNvNtCscdP1gRbl3Ff_20pin_project_internal11pinned_drop13validate_impl0B5_, symObjAddr: 0x43DC, symBinAddr: 0x3D4D4, symSize: 0x38C }
  - { offset: 0x90FAD, size: 0x8, addend: 0x0, symName: __RNvNtCscdP1gRbl3Ff_20pin_project_internal11pinned_drop12validate_sig, symObjAddr: 0x4768, symBinAddr: 0x3D860, symSize: 0x68C }
  - { offset: 0x9107D, size: 0x8, addend: 0x0, symName: __RNvNvNtCscdP1gRbl3Ff_20pin_project_internal11pinned_drop12validate_sig11get_ty_path, symObjAddr: 0x4DF4, symBinAddr: 0x3DEEC, symSize: 0xA8 }
  - { offset: 0x910BE, size: 0x8, addend: 0x0, symName: __RNCNvNtCscdP1gRbl3Ff_20pin_project_internal11pinned_drop12validate_sig0B5_, symObjAddr: 0x4E9C, symBinAddr: 0x3DF94, symSize: 0x44 }
  - { offset: 0x910FC, size: 0x8, addend: 0x0, symName: __RNvNtCscdP1gRbl3Ff_20pin_project_internal11pinned_drop11expand_impl, symObjAddr: 0x4EE0, symBinAddr: 0x3DFD8, symSize: 0x1020 }
  - { offset: 0x9137C, size: 0x8, addend: 0x0, symName: __RNCNvNtCscdP1gRbl3Ff_20pin_project_internal11pinned_drop11expand_impl0B5_, symObjAddr: 0x5F00, symBinAddr: 0x3EFF8, symSize: 0x4C }
  - { offset: 0x913B8, size: 0x8, addend: 0x0, symName: __RINvNCNvNtCscdP1gRbl3Ff_20pin_project_internal11pinned_drop11expand_impl018panic_cold_displayNtNtCs6IAuOt8vWmF_3syn5error5ErrorEB8_, symObjAddr: 0x5F4C, symBinAddr: 0x1ACC30, symSize: 0x28 }
  - { offset: 0x91401, size: 0x8, addend: 0x0, symName: __RINvMs9_NtCs6IAuOt8vWmF_3syn5parseNtB6_11ParseBuffer4stepNCNvXs0_NvNtNvXNtNtCscdP1gRbl3Ff_20pin_project_internal11pin_project4argsNtB18_4ArgsNtB6_5Parse5parse2kw1__NtB13_5UnpinB2f_5parse0B2C_EB1c_, symObjAddr: 0xCC, symBinAddr: 0x391C4, symSize: 0x18C }
  - { offset: 0x9148B, size: 0x8, addend: 0x0, symName: __RINvMs9_NtCs6IAuOt8vWmF_3syn5parseNtB6_11ParseBuffer5parseNtNtNvXNtNtCscdP1gRbl3Ff_20pin_project_internal11pin_project4argsNtB11_4ArgsNtB6_5Parse5parse2kw5UnpinEB15_, symObjAddr: 0x258, symBinAddr: 0x39350, symSize: 0x34 }
  - { offset: 0x91616, size: 0x8, addend: 0x0, symName: __RNvXNtCs2cqEZUIJimJ_5quote14ident_fragmentRjNtB2_13IdentFragment3fmtCscdP1gRbl3Ff_20pin_project_internal, symObjAddr: 0xF80, symBinAddr: 0x3A078, symSize: 0x40 }
  - { offset: 0x91659, size: 0x8, addend: 0x0, symName: __RNvXNtCs2cqEZUIJimJ_5quote14ident_fragmentRjNtB2_13IdentFragment4spanCscdP1gRbl3Ff_20pin_project_internal, symObjAddr: 0xFC0, symBinAddr: 0x3A0B8, symSize: 0x38 }
  - { offset: 0x91694, size: 0x8, addend: 0x0, symName: __RNvYjNtNtCs2cqEZUIJimJ_5quote14ident_fragment13IdentFragment4spanCscdP1gRbl3Ff_20pin_project_internal, symObjAddr: 0x373C, symBinAddr: 0x3C834, symSize: 0x2C }
  - { offset: 0x916CC, size: 0x8, addend: 0x0, symName: __RNvMNtNtCs2cqEZUIJimJ_5quote9___private8get_spanINtB2_7GetSpanNtCs3cP53eQoTwO_11proc_macro24SpanE11___into_spanCscdP1gRbl3Ff_20pin_project_internal, symObjAddr: 0xE60, symBinAddr: 0x39F58, symSize: 0x20 }
  - { offset: 0x91E80, size: 0x8, addend: 0x0, symName: __RINvMNtCsfvfooZQ3Axs_4core6resultINtB3_6ResultNtCs3cP53eQoTwO_11proc_macro211TokenStreamNtNtCs6IAuOt8vWmF_3syn5error5ErrorE14unwrap_or_elseNvMB1q_B1o_18into_compile_errorECscdP1gRbl3Ff_20pin_project_internal, symObjAddr: 0x0, symBinAddr: 0x3F044, symSize: 0x9C }
  - { offset: 0x921C9, size: 0x8, addend: 0x0, symName: __RINvXs8_NtCs3cP53eQoTwO_11proc_macro28fallbackNtB6_11TokenStreamINtNtNtNtCsfvfooZQ3Axs_4core4iter6traits7collect12FromIteratorNtB8_9TokenTreeE9from_iterINtNtNtB17_8adapters3map3MapNtNtB8_12token_stream8IntoIterNCNvNtCscdP1gRbl3Ff_20pin_project_internal5utils13respan_tokens0EEB3s_, symObjAddr: 0x72C, symBinAddr: 0x3F770, symSize: 0xD4 }
  - { offset: 0x9221D, size: 0x8, addend: 0x0, symName: __RINvXsa_NtCs3cP53eQoTwO_11proc_macro28fallbackNtB6_11TokenStreamINtNtNtNtCsfvfooZQ3Axs_4core4iter6traits7collect6ExtendNtB8_9TokenTreeE6extendINtNtNtB17_8adapters3map3MapNtNtB8_12token_stream8IntoIterNCNvNtCscdP1gRbl3Ff_20pin_project_internal5utils13respan_tokens0EEB3i_, symObjAddr: 0x830, symBinAddr: 0x3F874, symSize: 0xC4 }
  - { offset: 0x9227E, size: 0x8, addend: 0x0, symName: __RINvXsa_NtCs3cP53eQoTwO_11proc_macro28fallbackNtB6_11TokenStreamINtNtNtNtCsfvfooZQ3Axs_4core4iter6traits7collect6ExtendNtB8_9TokenTreeE6extendNtB8_11TokenStreamECscdP1gRbl3Ff_20pin_project_internal, symObjAddr: 0x8F4, symBinAddr: 0x3F938, symSize: 0xC0 }
  - { offset: 0x922E4, size: 0x8, addend: 0x0, symName: __RNCINvXsa_NtCs3cP53eQoTwO_11proc_macro28fallbackNtB8_11TokenStreamINtNtNtNtCsfvfooZQ3Axs_4core4iter6traits7collect6ExtendNtBa_9TokenTreeE6extendINtNtNtB19_8adapters3map3MapNtNtBa_12token_stream8IntoIterNCNvNtCscdP1gRbl3Ff_20pin_project_internal5utils13respan_tokens0EE0B3k_, symObjAddr: 0xD44, symBinAddr: 0x3FD88, symSize: 0xAC }
  - { offset: 0x9232A, size: 0x8, addend: 0x0, symName: __RNCINvXsa_NtCs3cP53eQoTwO_11proc_macro28fallbackNtB8_11TokenStreamINtNtNtNtCsfvfooZQ3Axs_4core4iter6traits7collect6ExtendNtBa_9TokenTreeE6extendNtBa_11TokenStreamE0CscdP1gRbl3Ff_20pin_project_internal, symObjAddr: 0xDF0, symBinAddr: 0x3FE34, symSize: 0xAC }
  - { offset: 0x9239D, size: 0x8, addend: 0x0, symName: __RNvXsA_NtCs3cP53eQoTwO_11proc_macro28fallbackNtB5_5IdentNtNtCsfvfooZQ3Axs_4core5clone5Clone5cloneCscdP1gRbl3Ff_20pin_project_internal, symObjAddr: 0x1EA0, symBinAddr: 0x40EE4, symSize: 0x94 }
  - { offset: 0x923D1, size: 0x8, addend: 0x0, symName: __RNvXss_NtCs3cP53eQoTwO_11proc_macro28fallbackNtB5_11TokenStreamNtNtCsfvfooZQ3Axs_4core5clone5Clone5cloneCscdP1gRbl3Ff_20pin_project_internal, symObjAddr: 0x3488, symBinAddr: 0x424CC, symSize: 0x24 }
  - { offset: 0x92403, size: 0x8, addend: 0x0, symName: __RNvXsu_NtCs3cP53eQoTwO_11proc_macro28fallbackNtB5_4SpanNtNtCsfvfooZQ3Axs_4core5clone5Clone5cloneCscdP1gRbl3Ff_20pin_project_internal, symObjAddr: 0x34D0, symBinAddr: 0x42514, symSize: 0x10 }
  - { offset: 0x925AA, size: 0x8, addend: 0x0, symName: __RNvXs1_NtCs3cP53eQoTwO_11proc_macro26markerNtB5_19ProcMacroAutoTraitsNtNtCsfvfooZQ3Axs_4core5clone5Clone5cloneCscdP1gRbl3Ff_20pin_project_internal, symObjAddr: 0x1C94, symBinAddr: 0x40CD8, symSize: 0x10 }
  - { offset: 0x927BC, size: 0x8, addend: 0x0, symName: __RINvNtNtNtCs9i5KxIbZ5ph_10proc_macro6bridge6client5state3setINtNtCsfvfooZQ3Axs_4core6option6OptionNtB4_11TokenStreamENCNCINvB4_10run_clientB1y_BW_NCNCINvMs7_B4_INtB4_6ClientNtB8_11TokenStreamB2L_E7expand1NvCscdP1gRbl3Ff_20pin_project_internal29___pin_project_internal_deriveE00E00EB3i_, symObjAddr: 0x320, symBinAddr: 0x3F364, symSize: 0xE8 }
  - { offset: 0x92891, size: 0x8, addend: 0x0, symName: __RINvNtNtNtCs9i5KxIbZ5ph_10proc_macro6bridge6client5state3setINtNtCsfvfooZQ3Axs_4core6option6OptionNtB4_11TokenStreamENCNCINvB4_10run_clientTB1y_B1y_EBW_NCNCINvMs8_B4_INtB4_6ClientTNtB8_11TokenStreamB2S_EB2S_E7expand2NvCscdP1gRbl3Ff_20pin_project_internal11pin_projectE00E00EB3u_, symObjAddr: 0x408, symBinAddr: 0x3F44C, symSize: 0xEC }
  - { offset: 0x92967, size: 0x8, addend: 0x0, symName: __RINvNtNtNtCs9i5KxIbZ5ph_10proc_macro6bridge6client5state3setINtNtCsfvfooZQ3Axs_4core6option6OptionNtB4_11TokenStreamENCNCINvB4_10run_clientTB1y_B1y_EBW_NCNCINvMs8_B4_INtB4_6ClientTNtB8_11TokenStreamB2S_EB2S_E7expand2NvCscdP1gRbl3Ff_20pin_project_internal11pinned_dropE00E00EB3u_, symObjAddr: 0x4F4, symBinAddr: 0x3F538, symSize: 0xEC }
  - { offset: 0x92A47, size: 0x8, addend: 0x0, symName: __RNCNkNvNtNtNtCs9i5KxIbZ5ph_10proc_macro6bridge6client5state12BRIDGE_STATE0s_0CscdP1gRbl3Ff_20pin_project_internal, symObjAddr: 0xE9C, symBinAddr: 0x3FEE0, symSize: 0x34 }
  - { offset: 0x930A6, size: 0x8, addend: 0x0, symName: __RNvXsV_NtCs9i5KxIbZ5ph_10proc_macro6bridgeINtNtCsfvfooZQ3Axs_4core6result6ResultINtNtBJ_6option6OptionNtNtB5_6client11TokenStreamEuEINtNtB5_3rpc6EncodeuE6encodeCscdP1gRbl3Ff_20pin_project_internal, symObjAddr: 0x1F84, symBinAddr: 0x40FC8, symSize: 0x108 }
  - { offset: 0x9316A, size: 0x8, addend: 0x0, symName: __RNvXsV_NtCs9i5KxIbZ5ph_10proc_macro6bridgeINtNtCsfvfooZQ3Axs_4core6result6ResultuNtNtB5_3rpc12PanicMessageEINtB1j_6EncodeuE6encodeCscdP1gRbl3Ff_20pin_project_internal, symObjAddr: 0x208C, symBinAddr: 0x410D0, symSize: 0x12C }
  - { offset: 0x966D7, size: 0x8, addend: 0x0, symName: __RNvNvMNtNtCsfvfooZQ3Axs_4core3ptr9const_ptrPp7sub_ptr18precondition_checkCscdP1gRbl3Ff_20pin_project_internal, symObjAddr: 0x16F0, symBinAddr: 0x40734, symSize: 0x40 }
  - { offset: 0x971FE, size: 0x8, addend: 0x0, symName: __RNvXsp_NtCsfvfooZQ3Axs_4core6resultINtB5_6ResultINtNtCs6IAuOt8vWmF_3syn10punctuated10PunctuatedNtNtBP_4attr4MetaNtNtBP_5token5CommaENtNtBP_5error5ErrorEINtNtNtB7_3ops9try_trait12FromResidualIBy_NtNtB7_7convert10InfallibleB26_EE13from_residualCscdP1gRbl3Ff_20pin_project_internal, symObjAddr: 0x3174, symBinAddr: 0x421B8, symSize: 0x48 }
  - { offset: 0x97283, size: 0x8, addend: 0x0, symName: __RNvXsp_NtCsfvfooZQ3Axs_4core6resultINtB5_6ResultNtNtCs6IAuOt8vWmF_3syn4item8ItemImplNtNtBO_5error5ErrorEINtNtNtB7_3ops9try_trait12FromResidualIBy_NtNtB7_7convert10InfallibleB1k_EE13from_residualCscdP1gRbl3Ff_20pin_project_internal, symObjAddr: 0x31BC, symBinAddr: 0x42200, symSize: 0x48 }
  - { offset: 0x97308, size: 0x8, addend: 0x0, symName: __RNvXsp_NtCsfvfooZQ3Axs_4core6resultINtB5_6ResultNtNtNtCscdP1gRbl3Ff_20pin_project_internal11pin_project4args4ArgsNtNtCs6IAuOt8vWmF_3syn5error5ErrorEINtNtNtB7_3ops9try_trait12FromResidualIBy_NtNtB7_7convert10InfallibleB1N_EE13from_residualBQ_, symObjAddr: 0x3204, symBinAddr: 0x42248, symSize: 0x48 }
  - { offset: 0x9738D, size: 0x8, addend: 0x0, symName: __RNvXsp_NtCsfvfooZQ3Axs_4core6resultINtB5_6ResultNtNtNtCscdP1gRbl3Ff_20pin_project_internal11pin_project6derive15ProjectedFieldsNtNtCs6IAuOt8vWmF_3syn5error5ErrorEINtNtNtB7_3ops9try_trait12FromResidualIBy_NtNtB7_7convert10InfallibleB21_EE13from_residualBQ_, symObjAddr: 0x324C, symBinAddr: 0x42290, symSize: 0x48 }
  - { offset: 0x97412, size: 0x8, addend: 0x0, symName: __RNvXsp_NtCsfvfooZQ3Axs_4core6resultINtB5_6ResultNtNtNtCscdP1gRbl3Ff_20pin_project_internal11pin_project6derive17ProjectedVariantsNtNtCs6IAuOt8vWmF_3syn5error5ErrorEINtNtNtB7_3ops9try_trait12FromResidualIBy_NtNtB7_7convert10InfallibleB23_EE13from_residualBQ_, symObjAddr: 0x3294, symBinAddr: 0x422D8, symSize: 0x48 }
  - { offset: 0x97497, size: 0x8, addend: 0x0, symName: __RNvXsp_NtCsfvfooZQ3Axs_4core6resultINtB5_6ResultNtNtNtCscdP1gRbl3Ff_20pin_project_internal11pin_project6derive7ContextNtNtCs6IAuOt8vWmF_3syn5error5ErrorEINtNtNtB7_3ops9try_trait12FromResidualIBy_NtNtB7_7convert10InfallibleB1S_EE13from_residualBQ_, symObjAddr: 0x32DC, symBinAddr: 0x42320, symSize: 0x48 }
  - { offset: 0x9751C, size: 0x8, addend: 0x0, symName: __RNvXsp_NtCsfvfooZQ3Axs_4core6resultINtB5_6ResultNtNtNtCscdP1gRbl3Ff_20pin_project_internal11pin_project9attribute5InputNtNtCs6IAuOt8vWmF_3syn5error5ErrorEINtNtNtB7_3ops9try_trait12FromResidualIBy_NtNtB7_7convert10InfallibleB1T_EE13from_residualBQ_, symObjAddr: 0x3324, symBinAddr: 0x42368, symSize: 0x48 }
  - { offset: 0x975A1, size: 0x8, addend: 0x0, symName: __RNvXsp_NtCsfvfooZQ3Axs_4core6resultINtB5_6ResultNtNtNvXNtNtCscdP1gRbl3Ff_20pin_project_internal11pin_project4argsNtBR_4ArgsNtNtCs6IAuOt8vWmF_3syn5parse5Parse5parse2kw5UnpinNtNtB21_5error5ErrorEINtNtNtB7_3ops9try_trait12FromResidualIBy_NtNtB7_7convert10InfallibleB2K_EE13from_residualBV_, symObjAddr: 0x336C, symBinAddr: 0x423B0, symSize: 0x40 }
  - { offset: 0x97626, size: 0x8, addend: 0x0, symName: __RNvXsp_NtCsfvfooZQ3Axs_4core6resultINtB5_6ResultNtNvNtNtCscdP1gRbl3Ff_20pin_project_internal11pin_project4args10parse_args5InputNtNtCs6IAuOt8vWmF_3syn5error5ErrorEINtNtNtB7_3ops9try_trait12FromResidualIBy_NtNtB7_7convert10InfallibleB22_EE13from_residualBS_, symObjAddr: 0x33AC, symBinAddr: 0x423F0, symSize: 0x4C }
  - { offset: 0x976AB, size: 0x8, addend: 0x0, symName: __RNvXsp_NtCsfvfooZQ3Axs_4core6resultINtB5_6ResultTNtCs3cP53eQoTwO_11proc_macro25IdentNtBN_11TokenStreamENtNtCs6IAuOt8vWmF_3syn5error5ErrorEINtNtNtB7_3ops9try_trait12FromResidualIBy_NtNtB7_7convert10InfallibleB1D_EE13from_residualCscdP1gRbl3Ff_20pin_project_internal, symObjAddr: 0x33F8, symBinAddr: 0x4243C, symSize: 0x48 }
  - { offset: 0x97730, size: 0x8, addend: 0x0, symName: __RNvXsp_NtCsfvfooZQ3Axs_4core6resultINtB5_6ResultTjINtNtB7_6option6OptionjEENtNtCs6IAuOt8vWmF_3syn5error5ErrorEINtNtNtB7_3ops9try_trait12FromResidualIBy_NtNtB7_7convert10InfallibleB1b_EE13from_residualCscdP1gRbl3Ff_20pin_project_internal, symObjAddr: 0x3440, symBinAddr: 0x42484, symSize: 0x48 }
  - { offset: 0x978FB, size: 0x8, addend: 0x0, symName: __RNvXso_NtCsfvfooZQ3Axs_4core6resultINtB5_6ResultINtNtB7_6option6OptionjENtNtCs6IAuOt8vWmF_3syn5error5ErrorENtNtNtB7_3ops9try_trait3Try6branchCscdP1gRbl3Ff_20pin_project_internal, symObjAddr: 0x279C, symBinAddr: 0x417E0, symSize: 0x94 }
  - { offset: 0x97979, size: 0x8, addend: 0x0, symName: __RNvXso_NtCsfvfooZQ3Axs_4core6resultINtB5_6ResultINtNtCs6IAuOt8vWmF_3syn10punctuated10PunctuatedNtNtBP_4attr4MetaNtNtBP_5token5CommaENtNtBP_5error5ErrorENtNtNtB7_3ops9try_trait3Try6branchCscdP1gRbl3Ff_20pin_project_internal, symObjAddr: 0x2830, symBinAddr: 0x41874, symSize: 0xA0 }
  - { offset: 0x979F6, size: 0x8, addend: 0x0, symName: __RNvXso_NtCsfvfooZQ3Axs_4core6resultINtB5_6ResultNtNtCs6IAuOt8vWmF_3syn4item8ItemImplNtNtBO_5error5ErrorENtNtNtB7_3ops9try_trait3Try6branchCscdP1gRbl3Ff_20pin_project_internal, symObjAddr: 0x28D0, symBinAddr: 0x41914, symSize: 0xB8 }
  - { offset: 0x97A74, size: 0x8, addend: 0x0, symName: __RNvXso_NtCsfvfooZQ3Axs_4core6resultINtB5_6ResultNtNtNtCscdP1gRbl3Ff_20pin_project_internal11pin_project4args4ArgsNtNtCs6IAuOt8vWmF_3syn5error5ErrorENtNtNtB7_3ops9try_trait3Try6branchBQ_, symObjAddr: 0x2988, symBinAddr: 0x419CC, symSize: 0xAC }
  - { offset: 0x97AF1, size: 0x8, addend: 0x0, symName: __RNvXso_NtCsfvfooZQ3Axs_4core6resultINtB5_6ResultNtNtNtCscdP1gRbl3Ff_20pin_project_internal11pin_project6derive15ProjectedFieldsNtNtCs6IAuOt8vWmF_3syn5error5ErrorENtNtNtB7_3ops9try_trait3Try6branchBQ_, symObjAddr: 0x2A34, symBinAddr: 0x41A78, symSize: 0xB8 }
  - { offset: 0x97B6F, size: 0x8, addend: 0x0, symName: __RNvXso_NtCsfvfooZQ3Axs_4core6resultINtB5_6ResultNtNtNtCscdP1gRbl3Ff_20pin_project_internal11pin_project6derive17ProjectedVariantsNtNtCs6IAuOt8vWmF_3syn5error5ErrorENtNtNtB7_3ops9try_trait3Try6branchBQ_, symObjAddr: 0x2AEC, symBinAddr: 0x41B30, symSize: 0xB8 }
  - { offset: 0x97BED, size: 0x8, addend: 0x0, symName: __RNvXso_NtCsfvfooZQ3Axs_4core6resultINtB5_6ResultNtNtNtCscdP1gRbl3Ff_20pin_project_internal11pin_project6derive7ContextNtNtCs6IAuOt8vWmF_3syn5error5ErrorENtNtNtB7_3ops9try_trait3Try6branchBQ_, symObjAddr: 0x2BA4, symBinAddr: 0x41BE8, symSize: 0xB8 }
  - { offset: 0x97C6B, size: 0x8, addend: 0x0, symName: __RNvXso_NtCsfvfooZQ3Axs_4core6resultINtB5_6ResultNtNtNtCscdP1gRbl3Ff_20pin_project_internal11pin_project9attribute5InputNtNtCs6IAuOt8vWmF_3syn5error5ErrorENtNtNtB7_3ops9try_trait3Try6branchBQ_, symObjAddr: 0x2C5C, symBinAddr: 0x41CA0, symSize: 0xB0 }
  - { offset: 0x97CE8, size: 0x8, addend: 0x0, symName: __RNvXso_NtCsfvfooZQ3Axs_4core6resultINtB5_6ResultNtNtNvXNtNtCscdP1gRbl3Ff_20pin_project_internal11pin_project4argsNtBR_4ArgsNtNtCs6IAuOt8vWmF_3syn5parse5Parse5parse2kw5UnpinNtNtB21_5error5ErrorENtNtNtB7_3ops9try_trait3Try6branchBV_, symObjAddr: 0x2D0C, symBinAddr: 0x41D50, symSize: 0x88 }
  - { offset: 0x97D66, size: 0x8, addend: 0x0, symName: __RNvXso_NtCsfvfooZQ3Axs_4core6resultINtB5_6ResultNtNvNtNtCscdP1gRbl3Ff_20pin_project_internal11pin_project4args10parse_args5InputNtNtCs6IAuOt8vWmF_3syn5error5ErrorENtNtNtB7_3ops9try_trait3Try6branchBS_, symObjAddr: 0x2D94, symBinAddr: 0x41DD8, symSize: 0xA8 }
  - { offset: 0x97DE3, size: 0x8, addend: 0x0, symName: __RNvXso_NtCsfvfooZQ3Axs_4core6resultINtB5_6ResultRNtNtCs6IAuOt8vWmF_3syn4attr8MetaListNtNtBP_5error5ErrorENtNtNtB7_3ops9try_trait3Try6branchCscdP1gRbl3Ff_20pin_project_internal, symObjAddr: 0x2E3C, symBinAddr: 0x41E80, symSize: 0x88 }
  - { offset: 0x97E61, size: 0x8, addend: 0x0, symName: __RNvXso_NtCsfvfooZQ3Axs_4core6resultINtB5_6ResultRNtNtCs6IAuOt8vWmF_3syn4path4PathNtNtBP_5error5ErrorENtNtNtB7_3ops9try_trait3Try6branchCscdP1gRbl3Ff_20pin_project_internal, symObjAddr: 0x2EC4, symBinAddr: 0x41F08, symSize: 0x88 }
  - { offset: 0x97EDF, size: 0x8, addend: 0x0, symName: __RNvXso_NtCsfvfooZQ3Axs_4core6resultINtB5_6ResultTNtCs3cP53eQoTwO_11proc_macro25IdentNtBN_11TokenStreamENtNtCs6IAuOt8vWmF_3syn5error5ErrorENtNtNtB7_3ops9try_trait3Try6branchCscdP1gRbl3Ff_20pin_project_internal, symObjAddr: 0x2F4C, symBinAddr: 0x41F90, symSize: 0xB0 }
  - { offset: 0x97F5C, size: 0x8, addend: 0x0, symName: __RNvXso_NtCsfvfooZQ3Axs_4core6resultINtB5_6ResultTNtNtNvXNtNtCscdP1gRbl3Ff_20pin_project_internal11pin_project4argsNtBS_4ArgsNtNtCs6IAuOt8vWmF_3syn5parse5Parse5parse2kw5UnpinNtNtB22_6buffer6CursorENtNtB22_5error5ErrorENtNtNtB7_3ops9try_trait3Try6branchBW_, symObjAddr: 0x2FFC, symBinAddr: 0x42040, symSize: 0x94 }
  - { offset: 0x97FD9, size: 0x8, addend: 0x0, symName: __RNvXso_NtCsfvfooZQ3Axs_4core6resultINtB5_6ResultTjINtNtB7_6option6OptionjEENtNtCs6IAuOt8vWmF_3syn5error5ErrorENtNtNtB7_3ops9try_trait3Try11from_outputCscdP1gRbl3Ff_20pin_project_internal, symObjAddr: 0x3090, symBinAddr: 0x420D4, symSize: 0x18 }
  - { offset: 0x98019, size: 0x8, addend: 0x0, symName: __RNvXso_NtCsfvfooZQ3Axs_4core6resultINtB5_6ResultTjINtNtB7_6option6OptionjEENtNtCs6IAuOt8vWmF_3syn5error5ErrorENtNtNtB7_3ops9try_trait3Try6branchCscdP1gRbl3Ff_20pin_project_internal, symObjAddr: 0x30A8, symBinAddr: 0x420EC, symSize: 0x94 }
  - { offset: 0x98096, size: 0x8, addend: 0x0, symName: __RNvXso_NtCsfvfooZQ3Axs_4core6resultINtB5_6ResultbNtNtCs6IAuOt8vWmF_3syn5error5ErrorENtNtNtB7_3ops9try_trait3Try11from_outputCscdP1gRbl3Ff_20pin_project_internal, symObjAddr: 0x313C, symBinAddr: 0x42180, symSize: 0x20 }
  - { offset: 0x980D6, size: 0x8, addend: 0x0, symName: __RNvXso_NtCsfvfooZQ3Axs_4core6resultINtB5_6ResultuNtNtCs6IAuOt8vWmF_3syn5error5ErrorENtNtNtB7_3ops9try_trait3Try11from_outputCscdP1gRbl3Ff_20pin_project_internal, symObjAddr: 0x315C, symBinAddr: 0x421A0, symSize: 0x18 }
  - { offset: 0x98ED9, size: 0x8, addend: 0x0, symName: __RINvXs_NtNtNtCsfvfooZQ3Axs_4core4iter8adapters9enumerateINtB5_9EnumerateINtNtNtBb_5slice4iter4IterNtNtCs6IAuOt8vWmF_3syn4item8ImplItemEENtNtNtB9_6traits8iterator8Iterator8try_folduNCINvNvB2a_12try_for_each4callTjRB1y_EINtNtBb_6result6ResultuNtNtB1C_5error5ErrorENCNvNtCscdP1gRbl3Ff_20pin_project_internal11pinned_drop13validate_impl0E0B3u_EB4i_, symObjAddr: 0x800, symBinAddr: 0x3F844, symSize: 0x30 }
  - { offset: 0x98F4F, size: 0x8, addend: 0x0, symName: __RNCINvNvXs_NtNtNtCsfvfooZQ3Axs_4core4iter8adapters9enumerateINtB9_9EnumeratepENtNtNtBd_6traits8iterator8Iterator8try_fold9enumerateRNtNtCs6IAuOt8vWmF_3syn4item8ImplItemuINtNtBf_6result6ResultuNtNtB2a_5error5ErrorENCINvNvB1e_12try_for_each4callTjB25_EB2H_NCNvNtCscdP1gRbl3Ff_20pin_project_internal11pinned_drop13validate_impl0E0E0B4a_, symObjAddr: 0xC7C, symBinAddr: 0x3FCC0, symSize: 0xC8 }
  - { offset: 0x98FE6, size: 0x8, addend: 0x0, symName: __RNvXs_NtNtNtCsfvfooZQ3Axs_4core4iter8adapters9enumerateINtB4_9EnumerateINtNtCs6IAuOt8vWmF_3syn10punctuated4IterNtNtB1c_4data5FieldEENtNtNtB8_6traits8iterator8Iterator4nextCscdP1gRbl3Ff_20pin_project_internal, symObjAddr: 0x234C, symBinAddr: 0x41390, symSize: 0xE0 }
  - { offset: 0x990C0, size: 0x8, addend: 0x0, symName: __RNvXs_NtNtNtCsfvfooZQ3Axs_4core4iter8adapters9enumerateINtB4_9EnumerateINtNtNtBa_5slice4iter4IterRNtNtCs6IAuOt8vWmF_3syn2ty4TypeEENtNtNtB8_6traits8iterator8Iterator4nextCscdP1gRbl3Ff_20pin_project_internal, symObjAddr: 0x242C, symBinAddr: 0x41470, symSize: 0xE0 }
  - { offset: 0x9919A, size: 0x8, addend: 0x0, symName: __RNvXs_NtNtNtCsfvfooZQ3Axs_4core4iter8adapters9enumerateINtB4_9EnumerateNtNtCs6IAuOt8vWmF_3syn8generics9LifetimesENtNtNtB8_6traits8iterator8Iterator4nextCscdP1gRbl3Ff_20pin_project_internal, symObjAddr: 0x250C, symBinAddr: 0x41550, symSize: 0xE0 }
  - { offset: 0x994A7, size: 0x8, addend: 0x0, symName: __RNCNvMs3_NtNtNtCsfvfooZQ3Axs_4core4iter8adapters8peekableINtB7_8PeekableNtNtCs3cP53eQoTwO_11proc_macro212token_stream8IntoIterE4peek0CscdP1gRbl3Ff_20pin_project_internal, symObjAddr: 0xED0, symBinAddr: 0x3FF14, symSize: 0x24 }
  - { offset: 0x9952D, size: 0x8, addend: 0x0, symName: __RNvXs_NtNtNtCsfvfooZQ3Axs_4core4iter8adapters8peekableINtB4_8PeekableNtNtCs3cP53eQoTwO_11proc_macro212token_stream8IntoIterENtNtNtB8_6traits8iterator8Iterator4nextCscdP1gRbl3Ff_20pin_project_internal, symObjAddr: 0x22A8, symBinAddr: 0x412EC, symSize: 0xA4 }
  - { offset: 0x99602, size: 0x8, addend: 0x0, symName: __RNvXs1_NtNtNtCsfvfooZQ3Axs_4core4iter8adapters6filterINtB5_6FilterINtNtNtBb_5slice4iter4IterNtNtCs6IAuOt8vWmF_3syn4attr9AttributeENCNvNtNtCscdP1gRbl3Ff_20pin_project_internal11pin_project4args10parse_args0ENtNtNtB9_6traits8iterator8Iterator4nextB2c_, symObjAddr: 0x1CB8, symBinAddr: 0x40CFC, symSize: 0x2C }
  - { offset: 0x99685, size: 0x8, addend: 0x0, symName: __RINvYINtNtNtCse1nGBsou5OW_5alloc3vec9into_iter8IntoIterTNtNtCs6IAuOt8vWmF_3syn4attr4MetaNtNtBW_5token5CommaEENtNtNtNtCsfvfooZQ3Axs_4core4iter6traits8iterator8Iterator3mapBS_NCNvXs8_NtBW_10punctuatedINtB2T_10PunctuatedBS_B1o_ENtNtB1N_7collect12IntoIterator9into_iter0ECscdP1gRbl3Ff_20pin_project_internal, symObjAddr: 0x9B4, symBinAddr: 0x3F9F8, symSize: 0x1C }
  - { offset: 0x996F2, size: 0x8, addend: 0x0, symName: __RINvYINtNtNtNtCsfvfooZQ3Axs_4core4iter8adapters9enumerate9EnumerateINtNtNtBc_5slice4iter4IterNtNtCs6IAuOt8vWmF_3syn4item8ImplItemEENtNtNtBa_6traits8iterator8Iterator12try_for_eachNCNvNtCscdP1gRbl3Ff_20pin_project_internal11pinned_drop13validate_impl0INtNtBc_6result6ResultuNtNtB1x_5error5ErrorEEB2X_, symObjAddr: 0x9D0, symBinAddr: 0x3FA14, symSize: 0x24 }
  - { offset: 0x9974A, size: 0x8, addend: 0x0, symName: __RINvYINtNtNtNtCsfvfooZQ3Axs_4core4iter8adapters9enumerate9EnumerateINtNtNtBc_5slice4iter4IterRNtNtCs6IAuOt8vWmF_3syn2ty4TypeEENtNtNtBa_6traits8iterator8Iterator3mapNtCs3cP53eQoTwO_11proc_macro211TokenStreamNCNvNtNtCscdP1gRbl3Ff_20pin_project_internal11pin_project6derive15make_unpin_impl0EB3q_, symObjAddr: 0x9F4, symBinAddr: 0x3FA38, symSize: 0x20 }
  - { offset: 0x997B7, size: 0x8, addend: 0x0, symName: __RINvYINtNtNtNtCsfvfooZQ3Axs_4core4iter8adapters9enumerate9EnumerateNtNtCs6IAuOt8vWmF_3syn8generics9LifetimesENtNtNtBa_6traits8iterator8Iterator3mapNtCs3cP53eQoTwO_11proc_macro211TokenStreamNCNvNtNtCscdP1gRbl3Ff_20pin_project_internal11pin_project6derive15make_unpin_impls_0EB39_, symObjAddr: 0xA14, symBinAddr: 0x3FA58, symSize: 0x20 }
  - { offset: 0x9982E, size: 0x8, addend: 0x0, symName: __RNCINvNvNtNtNtNtCsfvfooZQ3Axs_4core4iter6traits8iterator8Iterator12try_for_each4callTjRNtNtCs6IAuOt8vWmF_3syn4item8ImplItemEINtNtBe_6result6ResultuNtNtB1r_5error5ErrorENCNvNtCscdP1gRbl3Ff_20pin_project_internal11pinned_drop13validate_impl0E0B2M_, symObjAddr: 0xA34, symBinAddr: 0x3FA78, symSize: 0x30 }
  - { offset: 0x998B2, size: 0x8, addend: 0x0, symName: __RNCINvNvNtNtNtNtCsfvfooZQ3Axs_4core4iter6traits8iterator8Iterator3any5checkNtCs3cP53eQoTwO_11proc_macro29TokenTreeNCNvNtCscdP1gRbl3Ff_20pin_project_internal5utils11contains_fn0E0B1U_, symObjAddr: 0xA64, symBinAddr: 0x3FAA8, symSize: 0x60 }
  - { offset: 0x9991B, size: 0x8, addend: 0x0, symName: __RNCINvNvNtNtNtNtCsfvfooZQ3Axs_4core4iter6traits8iterator8Iterator4find5checkRRNtCs3cP53eQoTwO_11proc_macro25IdentNCNvMs_NtNtCscdP1gRbl3Ff_20pin_project_internal11pin_project6deriveNtB1U_7Context3new0E0B1Y_, symObjAddr: 0xAC4, symBinAddr: 0x3FB08, symSize: 0x74 }
  - { offset: 0x99983, size: 0x8, addend: 0x0, symName: __RNCINvNvNtNtNtNtCsfvfooZQ3Axs_4core4iter6traits8iterator8Iterator8for_each4callNtCs3cP53eQoTwO_11proc_macro29TokenTreeNCINvXsa_NtB1h_8fallbackNtB21_11TokenStreamINtNtBa_7collect6ExtendB1f_E6extendINtNtNtBc_8adapters3map3MapNtNtB1h_12token_stream8IntoIterNCNvNtCscdP1gRbl3Ff_20pin_project_internal5utils13respan_tokens0EE0E0B4a_, symObjAddr: 0xB38, symBinAddr: 0x3FB7C, symSize: 0x3C }
  - { offset: 0x999DC, size: 0x8, addend: 0x0, symName: __RNCINvNvNtNtNtNtCsfvfooZQ3Axs_4core4iter6traits8iterator8Iterator8for_each4callNtCs3cP53eQoTwO_11proc_macro29TokenTreeNCINvXsa_NtB1h_8fallbackNtB21_11TokenStreamINtNtBa_7collect6ExtendB1f_E6extendNtB1h_11TokenStreamE0E0CscdP1gRbl3Ff_20pin_project_internal, symObjAddr: 0xB74, symBinAddr: 0x3FBB8, symSize: 0x3C }
  - { offset: 0x99A35, size: 0x8, addend: 0x0, symName: __RNCINvNvNtNtNtNtCsfvfooZQ3Axs_4core4iter6traits8iterator8Iterator8for_each4callNtCs9i5KxIbZ5ph_10proc_macro9TokenTreeNCINvXsg_B1h_NtB1h_11TokenStreamINtNtBa_7collect12FromIteratorB1f_E9from_iterINtNtNtBc_8adapters3map3MapIB37_NtNtCs3cP53eQoTwO_11proc_macro212token_stream8IntoIterNCNvNtCscdP1gRbl3Ff_20pin_project_internal5utils13respan_tokens0ENvNtB3G_3imp19into_compiler_tokenEE0E0B4A_, symObjAddr: 0xBB0, symBinAddr: 0x3FBF4, symSize: 0x3C }
  - { offset: 0x99A8E, size: 0x8, addend: 0x0, symName: __RNCINvNvNtNtNtNtCsfvfooZQ3Axs_4core4iter6traits8iterator8Iterator8for_each4callNtNtCs6IAuOt8vWmF_3syn4attr4MetaNCINvMsi_NtCse1nGBsou5OW_5alloc3vecINtB1U_3VecB1f_E14extend_trustedINtNtBe_6option8IntoIterB1f_EE0E0CscdP1gRbl3Ff_20pin_project_internal, symObjAddr: 0xBEC, symBinAddr: 0x3FC30, symSize: 0x48 }
  - { offset: 0x99AE7, size: 0x8, addend: 0x0, symName: __RNCINvNvNtNtNtNtCsfvfooZQ3Axs_4core4iter6traits8iterator8Iterator8for_each4callNtNtCs6IAuOt8vWmF_3syn4attr4MetaNCINvMsi_NtCse1nGBsou5OW_5alloc3vecINtB1U_3VecB1f_E14extend_trustedINtNtNtBc_8adapters3map3MapINtNtB1U_9into_iter8IntoIterTB1f_NtNtB1j_5token5CommaEENCNvXs8_NtB1j_10punctuatedINtB4i_10PunctuatedB1f_B3O_ENtNtBa_7collect12IntoIterator9into_iter0EE0E0CscdP1gRbl3Ff_20pin_project_internal, symObjAddr: 0xC34, symBinAddr: 0x3FC78, symSize: 0x48 }
  - { offset: 0x99B61, size: 0x8, addend: 0x0, symName: __RNvXNtNtNtCsfvfooZQ3Axs_4core4iter6traits7collectINtNtNtB6_8adapters9enumerate9EnumerateINtNtCs6IAuOt8vWmF_3syn10punctuated4IterNtNtB1t_4data5FieldEENtB2_12IntoIterator9into_iterCscdP1gRbl3Ff_20pin_project_internal, symObjAddr: 0x19B0, symBinAddr: 0x409F4, symSize: 0x18 }
  - { offset: 0x99BF4, size: 0x8, addend: 0x0, symName: __RNvYINtNtNtCse1nGBsou5OW_5alloc3vec9into_iter8IntoIterNtNtCs6IAuOt8vWmF_3syn4attr4MetaENtNtNtNtCsfvfooZQ3Axs_4core4iter6traits10exact_size17ExactSizeIterator3lenCscdP1gRbl3Ff_20pin_project_internal, symObjAddr: 0x34E0, symBinAddr: 0x42524, symSize: 0xF4 }
  - { offset: 0x99CE7, size: 0x8, addend: 0x0, symName: __RNvYINtNtNtCse1nGBsou5OW_5alloc3vec9into_iter8IntoIterTNtNtCs6IAuOt8vWmF_3syn4attr4MetaNtNtBV_5token5CommaEENtNtNtNtCsfvfooZQ3Axs_4core4iter6traits10exact_size17ExactSizeIterator3lenCscdP1gRbl3Ff_20pin_project_internal, symObjAddr: 0x35D4, symBinAddr: 0x42618, symSize: 0xF4 }
  - { offset: 0x9A061, size: 0x8, addend: 0x0, symName: __RNvMNtCsfvfooZQ3Axs_4core5sliceSNtNtCse1nGBsou5OW_5alloc6string6String4iterCscdP1gRbl3Ff_20pin_project_internal, symObjAddr: 0x1258, symBinAddr: 0x4029C, symSize: 0x28 }
  - { offset: 0x9A098, size: 0x8, addend: 0x0, symName: __RNvMNtCsfvfooZQ3Axs_4core5sliceSRNtNtCs6IAuOt8vWmF_3syn2ty4Type4iterCscdP1gRbl3Ff_20pin_project_internal, symObjAddr: 0x1280, symBinAddr: 0x402C4, symSize: 0x28 }
  - { offset: 0x9A0CF, size: 0x8, addend: 0x0, symName: __RNvMNtCsfvfooZQ3Axs_4core5sliceSTNtNtCs6IAuOt8vWmF_3syn2ty4TypeNtNtBz_5token5CommaE8iter_mutCscdP1gRbl3Ff_20pin_project_internal, symObjAddr: 0x12A8, symBinAddr: 0x402EC, symSize: 0x28 }
  - { offset: 0x9A106, size: 0x8, addend: 0x0, symName: __RNvMNtCsfvfooZQ3Axs_4core5sliceSTNtNtCs6IAuOt8vWmF_3syn2ty9BareFnArgNtNtBz_5token5CommaE8iter_mutCscdP1gRbl3Ff_20pin_project_internal, symObjAddr: 0x12D0, symBinAddr: 0x40314, symSize: 0x28 }
  - { offset: 0x9A1AE, size: 0x8, addend: 0x0, symName: __RNvXs0_NtNtCsfvfooZQ3Axs_4core5slice5indexjINtB5_10SliceIndexSNtNtCs6IAuOt8vWmF_3syn4item8ImplItemE9index_mutCscdP1gRbl3Ff_20pin_project_internal, symObjAddr: 0x1B04, symBinAddr: 0x40B48, symSize: 0x64 }
  - { offset: 0x9A1F4, size: 0x8, addend: 0x0, symName: __RNvXs0_NtNtCsfvfooZQ3Axs_4core5slice5indexjINtB5_10SliceIndexSTNtNtCs6IAuOt8vWmF_3syn4item5FnArgNtNtB13_5token5CommaEE5indexCscdP1gRbl3Ff_20pin_project_internal, symObjAddr: 0x1B68, symBinAddr: 0x40BAC, symSize: 0x64 }
  - { offset: 0x9A23A, size: 0x8, addend: 0x0, symName: __RNvXs0_NtNtCsfvfooZQ3Axs_4core5slice5indexjINtB5_10SliceIndexSTNtNtCs6IAuOt8vWmF_3syn4item5FnArgNtNtB13_5token5CommaEE9index_mutCscdP1gRbl3Ff_20pin_project_internal, symObjAddr: 0x1BCC, symBinAddr: 0x40C10, symSize: 0x64 }
  - { offset: 0x9A280, size: 0x8, addend: 0x0, symName: __RNvXs0_NtNtCsfvfooZQ3Axs_4core5slice5indexjINtB5_10SliceIndexSTNtNtCs6IAuOt8vWmF_3syn4path11PathSegmentNtNtB13_5token7PathSepEE9index_mutCscdP1gRbl3Ff_20pin_project_internal, symObjAddr: 0x1C30, symBinAddr: 0x40C74, symSize: 0x64 }
  - { offset: 0x9A36B, size: 0x8, addend: 0x0, symName: __RNvXs1_NtCsfvfooZQ3Axs_4core7convertNtNtCs6IAuOt8vWmF_3syn2ty8TypePathINtB5_4IntoNtBA_4TypeE4intoCscdP1gRbl3Ff_20pin_project_internal, symObjAddr: 0x1CA4, symBinAddr: 0x40CE8, symSize: 0x14 }
  - { offset: 0x9AFDA, size: 0x8, addend: 0x0, symName: __RNvNvNtCsfvfooZQ3Axs_4core9ub_checks23maybe_is_nonoverlapping7runtimeCscdP1gRbl3Ff_20pin_project_internal, symObjAddr: 0x1730, symBinAddr: 0x40774, symSize: 0xD8 }
  - { offset: 0x9B7F1, size: 0x8, addend: 0x0, symName: __RINvXs3_NtNtCse1nGBsou5OW_5alloc3vec9into_iterINtB6_8IntoIterTNtNtCs6IAuOt8vWmF_3syn4attr4MetaNtNtB12_5token5CommaEENtNtNtNtCsfvfooZQ3Axs_4core4iter6traits8iterator8Iterator4folduNCINvNtNtB1W_8adapters3map8map_foldBX_BY_uNCNvXs8_NtB12_10punctuatedINtB3F_10PunctuatedBY_B1u_ENtNtB1U_7collect12IntoIterator9into_iter0NCINvNvB1Q_8for_each4callBY_NCINvMsi_B8_INtB8_3VecBY_E14extend_trustedINtB2W_3MapBI_B3x_EE0E0E0ECscdP1gRbl3Ff_20pin_project_internal, symObjAddr: 0x5E0, symBinAddr: 0x3F624, symSize: 0x14C }
  - { offset: 0x9B9C1, size: 0x8, addend: 0x0, symName: __RNvXs3_NtNtCse1nGBsou5OW_5alloc3vec9into_iterINtB5_8IntoIterNtNtCs6IAuOt8vWmF_3syn4attr4MetaENtNtNtNtCsfvfooZQ3Axs_4core4iter6traits8iterator8Iterator4nextCscdP1gRbl3Ff_20pin_project_internal, symObjAddr: 0x1CE4, symBinAddr: 0x40D28, symSize: 0xE4 }
  - { offset: 0x9BB35, size: 0x8, addend: 0x0, symName: __RNvXs3_NtNtCse1nGBsou5OW_5alloc3vec9into_iterINtB5_8IntoIterNtNtCs6IAuOt8vWmF_3syn4attr4MetaENtNtNtNtCsfvfooZQ3Axs_4core4iter6traits8iterator8Iterator9size_hintCscdP1gRbl3Ff_20pin_project_internal, symObjAddr: 0x1DC8, symBinAddr: 0x40E0C, symSize: 0x6C }
  - { offset: 0x9BB90, size: 0x8, addend: 0x0, symName: __RNvXs3_NtNtCse1nGBsou5OW_5alloc3vec9into_iterINtB5_8IntoIterTNtNtCs6IAuOt8vWmF_3syn4attr4MetaNtNtB11_5token5CommaEENtNtNtNtCsfvfooZQ3Axs_4core4iter6traits8iterator8Iterator9size_hintCscdP1gRbl3Ff_20pin_project_internal, symObjAddr: 0x1E34, symBinAddr: 0x40E78, symSize: 0x6C }
  - { offset: 0x9BD4B, size: 0x8, addend: 0x0, symName: __RNvXNvXsd_NtNtCse1nGBsou5OW_5alloc3vec9into_iterINtB8_8IntoIterppENtNtNtCsfvfooZQ3Axs_4core3ops4drop4Drop4dropINtB2_9DropGuardNtNtCs6IAuOt8vWmF_3syn4attr4MetaNtNtBc_5alloc6GlobalEB12_4dropCscdP1gRbl3Ff_20pin_project_internal, symObjAddr: 0x19C8, symBinAddr: 0x40A0C, symSize: 0x7C }
  - { offset: 0x9BE58, size: 0x8, addend: 0x0, symName: __RNvXNvXsd_NtNtCse1nGBsou5OW_5alloc3vec9into_iterINtB8_8IntoIterppENtNtNtCsfvfooZQ3Axs_4core3ops4drop4Drop4dropINtB2_9DropGuardTNtNtCs6IAuOt8vWmF_3syn4attr4MetaNtNtB25_5token5CommaENtNtBc_5alloc6GlobalEB12_4dropCscdP1gRbl3Ff_20pin_project_internal, symObjAddr: 0x1A44, symBinAddr: 0x40A88, symSize: 0x7C }
  - { offset: 0x9BFB5, size: 0x8, addend: 0x0, symName: __RNvXsd_NtNtCse1nGBsou5OW_5alloc3vec9into_iterINtB5_8IntoIterNtNtCs6IAuOt8vWmF_3syn4attr4MetaENtNtNtCsfvfooZQ3Axs_4core3ops4drop4Drop4dropCscdP1gRbl3Ff_20pin_project_internal, symObjAddr: 0x25EC, symBinAddr: 0x41630, symSize: 0x98 }
  - { offset: 0x9C04F, size: 0x8, addend: 0x0, symName: __RNvXsd_NtNtCse1nGBsou5OW_5alloc3vec9into_iterINtB5_8IntoIterTNtNtCs6IAuOt8vWmF_3syn4attr4MetaNtNtB11_5token5CommaEENtNtNtCsfvfooZQ3Axs_4core3ops4drop4Drop4dropCscdP1gRbl3Ff_20pin_project_internal, symObjAddr: 0x2684, symBinAddr: 0x416C8, symSize: 0x98 }
  - { offset: 0x9C2AB, size: 0x8, addend: 0x0, symName: __RNvNtCse1nGBsou5OW_5alloc5alloc12alloc_zeroedCscdP1gRbl3Ff_20pin_project_internal, symObjAddr: 0x1544, symBinAddr: 0x40588, symSize: 0x84 }
  - { offset: 0x9C36F, size: 0x8, addend: 0x0, symName: __RNvXs_NtCse1nGBsou5OW_5alloc5allocNtB4_6GlobalNtNtCsfvfooZQ3Axs_4core5alloc9Allocator10deallocateCscdP1gRbl3Ff_20pin_project_internal, symObjAddr: 0x2220, symBinAddr: 0x41264, symSize: 0x88 }
  - { offset: 0x9C44B, size: 0x8, addend: 0x0, symName: __RNvNtCse1nGBsou5OW_5alloc5alloc15exchange_mallocCscdP1gRbl3Ff_20pin_project_internal, symObjAddr: 0x15C8, symBinAddr: 0x4060C, symSize: 0xA4 }
  - { offset: 0x9C4E2, size: 0x8, addend: 0x0, symName: __RNvNtCse1nGBsou5OW_5alloc5alloc5allocCscdP1gRbl3Ff_20pin_project_internal, symObjAddr: 0x166C, symBinAddr: 0x406B0, symSize: 0x84 }
  - { offset: 0x9CF70, size: 0x8, addend: 0x0, symName: __RNvXsJ_NtCse1nGBsou5OW_5alloc6stringNtB5_6StringINtNtCsfvfooZQ3Axs_4core7convert4FromReE4fromCscdP1gRbl3Ff_20pin_project_internal, symObjAddr: 0x1F34, symBinAddr: 0x40F78, symSize: 0x50 }
  - { offset: 0x9D083, size: 0x8, addend: 0x0, symName: __RNvXsW_NtCse1nGBsou5OW_5alloc6stringNtB5_6StringNtNtCsfvfooZQ3Axs_4core3fmt5Write10write_charCscdP1gRbl3Ff_20pin_project_internal, symObjAddr: 0x21B8, symBinAddr: 0x411FC, symSize: 0x30 }
  - { offset: 0x9D0C0, size: 0x8, addend: 0x0, symName: __RNvXsW_NtCse1nGBsou5OW_5alloc6stringNtB5_6StringNtNtCsfvfooZQ3Axs_4core3fmt5Write9write_strCscdP1gRbl3Ff_20pin_project_internal, symObjAddr: 0x21E8, symBinAddr: 0x4122C, symSize: 0x38 }
  - { offset: 0x9D121, size: 0x8, addend: 0x0, symName: __RNvXss_NtCse1nGBsou5OW_5alloc6stringNtB5_6StringNtNtNtCsfvfooZQ3Axs_4core3ops5deref5Deref5derefCscdP1gRbl3Ff_20pin_project_internal, symObjAddr: 0x34AC, symBinAddr: 0x424F0, symSize: 0x24 }
  - { offset: 0x9D155, size: 0x8, addend: 0x0, symName: __RNvXsl_NtCse1nGBsou5OW_5alloc6stringNtB5_6StringNtNtCsfvfooZQ3Axs_4core3fmt7Display3fmtCscdP1gRbl3Ff_20pin_project_internal, symObjAddr: 0x271C, symBinAddr: 0x41760, symSize: 0x80 }
  - { offset: 0xA23A4, size: 0x8, addend: 0x0, symName: __RNvXNtCs6IAuOt8vWmF_3syn11parse_quoteNtNtB4_2ty4TypeNtB2_10ParseQuote5parseCscdP1gRbl3Ff_20pin_project_internal, symObjAddr: 0x1914, symBinAddr: 0x40958, symSize: 0x34 }
  - { offset: 0xA23D9, size: 0x8, addend: 0x0, symName: __RNvXNtCs6IAuOt8vWmF_3syn11parse_quoteNtNtB4_2ty8TypePathNtB2_10ParseQuote5parseCscdP1gRbl3Ff_20pin_project_internal, symObjAddr: 0x1948, symBinAddr: 0x4098C, symSize: 0x34 }
  - { offset: 0xA241A, size: 0x8, addend: 0x0, symName: __RNvXNtCs6IAuOt8vWmF_3syn7spannedNtNtB4_5token9SelfValueNtB2_7Spanned4spanCscdP1gRbl3Ff_20pin_project_internal, symObjAddr: 0x197C, symBinAddr: 0x409C0, symSize: 0x34 }
  - { offset: 0xA2B39, size: 0x8, addend: 0x0, symName: __RNvNtNtCscdP1gRbl3Ff_20pin_project_internal11pin_project9attribute15parse_attribute, symObjAddr: 0x39A4, symBinAddr: 0x429E8, symSize: 0x514 }
  - { offset: 0xA2CC4, size: 0x8, addend: 0x0, symName: __RNvXNtNtCscdP1gRbl3Ff_20pin_project_internal11pin_project9attributeNtB2_5InputNtNtCs6IAuOt8vWmF_3syn5parse5Parse5parse, symObjAddr: 0x3EB8, symBinAddr: 0x42EFC, symSize: 0x6AC }
  - { offset: 0xA30C3, size: 0x8, addend: 0x0, symName: __RINvMNtCsfvfooZQ3Axs_4core6resultINtB3_6ResultNtCs3cP53eQoTwO_11proc_macro211TokenStreamNtNtCs6IAuOt8vWmF_3syn5error5ErrorE14unwrap_or_elseNvMB1q_B1o_18into_compile_errorECscdP1gRbl3Ff_20pin_project_internal, symObjAddr: 0x0, symBinAddr: 0x3F044, symSize: 0x9C }
  - { offset: 0xA314D, size: 0x8, addend: 0x0, symName: __RINvMNtCsfvfooZQ3Axs_4core6resultINtB3_6ResultNtNtCs6IAuOt8vWmF_3syn11restriction10VisibilityNtNtBM_5error5ErrorE14unwrap_or_elseNCNvNtCscdP1gRbl3Ff_20pin_project_internal5utils20determine_visibility0EB29_, symObjAddr: 0x9C, symBinAddr: 0x3F0E0, symSize: 0x98 }
  - { offset: 0xA31D7, size: 0x8, addend: 0x0, symName: __RINvMNtCsfvfooZQ3Axs_4core6resultINtB3_6ResultNtNtCs6IAuOt8vWmF_3syn4path4PathNtNtBM_5error5ErrorE14unwrap_or_elseNCNvNtCscdP1gRbl3Ff_20pin_project_internal11pinned_drop11expand_impl0EB1U_, symObjAddr: 0x134, symBinAddr: 0x3F178, symSize: 0xA0 }
  - { offset: 0xA3261, size: 0x8, addend: 0x0, symName: __RINvMNtCsfvfooZQ3Axs_4core6resultINtB3_6ResultNtNtCs6IAuOt8vWmF_3syn8generics14WherePredicateNtNtBM_5error5ErrorE14unwrap_or_elseNCNvNtNtCscdP1gRbl3Ff_20pin_project_internal11pin_project6derive15make_unpin_impls1_0EB2b_, symObjAddr: 0x1D4, symBinAddr: 0x3F218, symSize: 0xB0 }
  - { offset: 0xA330A, size: 0x8, addend: 0x0, symName: __RINvMNtCsfvfooZQ3Axs_4core6resultINtB3_6ResultTjINtNtB5_6option6OptionjEENtNtCs6IAuOt8vWmF_3syn5error5ErrorE3mapBK_NCNvXNtCscdP1gRbl3Ff_20pin_project_internal5utilsSNtNtB1d_4attr9AttributeNtB1U_8SliceExt14position_exacts_0EB1W_, symObjAddr: 0x284, symBinAddr: 0x3F2C8, symSize: 0x9C }
  - { offset: 0xA37BB, size: 0x8, addend: 0x0, symName: __RNvMNtCse1nGBsou5OW_5alloc5allocNtB2_6Global10alloc_implCscdP1gRbl3Ff_20pin_project_internal, symObjAddr: 0xEF4, symBinAddr: 0x3FF38, symSize: 0x194 }
  - { offset: 0xA3C3A, size: 0x8, addend: 0x0, symName: __RNvMNtCse1nGBsou5OW_5alloc6stringNtB2_6String4pushCscdP1gRbl3Ff_20pin_project_internal, symObjAddr: 0x1088, symBinAddr: 0x400CC, symSize: 0x100 }
  - { offset: 0xA3EED, size: 0x8, addend: 0x0, symName: __RNvMNtCse1nGBsou5OW_5alloc6stringNtB2_6String6as_strCscdP1gRbl3Ff_20pin_project_internal, symObjAddr: 0x1188, symBinAddr: 0x401CC, symSize: 0x70 }
  - { offset: 0xA40C9, size: 0x8, addend: 0x0, symName: __RNvMNtCse1nGBsou5OW_5alloc6stringNtB2_6String8push_strCscdP1gRbl3Ff_20pin_project_internal, symObjAddr: 0x11F8, symBinAddr: 0x4023C, symSize: 0x60 }
  - { offset: 0xA4241, size: 0x8, addend: 0x0, symName: __RNvMNtCsfvfooZQ3Axs_4core6resultINtB2_6ResultNtCs3cP53eQoTwO_11proc_macro211TokenStreamNtNtCs6IAuOt8vWmF_3syn5error5ErrorE2okCscdP1gRbl3Ff_20pin_project_internal, symObjAddr: 0x12F8, symBinAddr: 0x4033C, symSize: 0xA4 }
  - { offset: 0xA4295, size: 0x8, addend: 0x0, symName: __RNvMNtCsfvfooZQ3Axs_4core6resultINtB2_6ResultNtCs3cP53eQoTwO_11proc_macro25IdentNtNtCs6IAuOt8vWmF_3syn5error5ErrorE2okCscdP1gRbl3Ff_20pin_project_internal, symObjAddr: 0x139C, symBinAddr: 0x403E0, symSize: 0x84 }
  - { offset: 0xA4310, size: 0x8, addend: 0x0, symName: __RNvMNtCsfvfooZQ3Axs_4core6resultINtB2_6ResultNtNtCs6IAuOt8vWmF_3syn5parse11ParseBufferNtNtBL_5error5ErrorE2okCscdP1gRbl3Ff_20pin_project_internal, symObjAddr: 0x1420, symBinAddr: 0x40464, symSize: 0x88 }
  - { offset: 0xA437E, size: 0x8, addend: 0x0, symName: __RNvMNtCsfvfooZQ3Axs_4core6resultINtB2_6ResultRNtNtCs6IAuOt8vWmF_3syn4attr13MetaNameValueNtNtBM_5error5ErrorE5is_okCscdP1gRbl3Ff_20pin_project_internal, symObjAddr: 0x14A8, symBinAddr: 0x404EC, symSize: 0x2C }
  - { offset: 0xA442C, size: 0x8, addend: 0x0, symName: __RNvMs3_NtNtNtCsfvfooZQ3Axs_4core4iter8adapters8peekableINtB5_8PeekableNtNtCs3cP53eQoTwO_11proc_macro212token_stream8IntoIterE4peekCscdP1gRbl3Ff_20pin_project_internal, symObjAddr: 0x14D4, symBinAddr: 0x40518, symSize: 0x70 }
  - { offset: 0xA4545, size: 0x8, addend: 0x0, symName: __RNvXNtCs2cqEZUIJimJ_5quote9to_tokensRDNtB2_8ToTokensEL_BA_9to_tokensCscdP1gRbl3Ff_20pin_project_internal, symObjAddr: 0x1808, symBinAddr: 0x4084C, symSize: 0x4C }
  - { offset: 0xA4584, size: 0x8, addend: 0x0, symName: __RNvXNtCs2cqEZUIJimJ_5quote9to_tokensRNtNtCs6IAuOt8vWmF_3syn2ty8TypePathNtB2_8ToTokens9to_tokensCscdP1gRbl3Ff_20pin_project_internal, symObjAddr: 0x1854, symBinAddr: 0x40898, symSize: 0x40 }
  - { offset: 0xA45C3, size: 0x8, addend: 0x0, symName: __RNvXNtCs2cqEZUIJimJ_5quote9to_tokensRNtNtCs6IAuOt8vWmF_3syn5token9SelfValueNtB2_8ToTokens9to_tokensCscdP1gRbl3Ff_20pin_project_internal, symObjAddr: 0x1894, symBinAddr: 0x408D8, symSize: 0x40 }
  - { offset: 0xA4602, size: 0x8, addend: 0x0, symName: __RNvXNtCs2cqEZUIJimJ_5quote9to_tokensRRNtNtCs6IAuOt8vWmF_3syn2ty4TypeNtB2_8ToTokens9to_tokensCscdP1gRbl3Ff_20pin_project_internal, symObjAddr: 0x18D4, symBinAddr: 0x40918, symSize: 0x40 }
  - { offset: 0xA4647, size: 0x8, addend: 0x0, symName: __RNvYNtNtCs6IAuOt8vWmF_3syn2ty8TypePathNtNtCs2cqEZUIJimJ_5quote9to_tokens8ToTokens15to_token_streamCscdP1gRbl3Ff_20pin_project_internal, symObjAddr: 0x36C8, symBinAddr: 0x4270C, symSize: 0x8C }
  - { offset: 0xA4691, size: 0x8, addend: 0x0, symName: __RNvYNtNtCs6IAuOt8vWmF_3syn5token3NotNtNtCs2cqEZUIJimJ_5quote9to_tokens8ToTokens15to_token_streamCscdP1gRbl3Ff_20pin_project_internal, symObjAddr: 0x3754, symBinAddr: 0x42798, symSize: 0x8C }
  - { offset: 0xA46DB, size: 0x8, addend: 0x0, symName: __RNvYRDNtNtCs2cqEZUIJimJ_5quote9to_tokens8ToTokensEL_B4_15to_token_streamCscdP1gRbl3Ff_20pin_project_internal, symObjAddr: 0x37E0, symBinAddr: 0x42824, symSize: 0x8C }
  - { offset: 0xA4725, size: 0x8, addend: 0x0, symName: __RNvYRDNtNtCs2cqEZUIJimJ_5quote9to_tokens8ToTokensEL_B4_17into_token_streamCscdP1gRbl3Ff_20pin_project_internal, symObjAddr: 0x386C, symBinAddr: 0x428B0, symSize: 0x58 }
  - { offset: 0xA475A, size: 0x8, addend: 0x0, symName: __RNvYRNtNtCs6IAuOt8vWmF_3syn5token9SelfValueNtNtCs2cqEZUIJimJ_5quote9to_tokens8ToTokens15to_token_streamCscdP1gRbl3Ff_20pin_project_internal, symObjAddr: 0x38C4, symBinAddr: 0x42908, symSize: 0x8C }
  - { offset: 0xA47A4, size: 0x8, addend: 0x0, symName: __RNvYRNtNtCs6IAuOt8vWmF_3syn5token9SelfValueNtNtCs2cqEZUIJimJ_5quote9to_tokens8ToTokens17into_token_streamCscdP1gRbl3Ff_20pin_project_internal, symObjAddr: 0x3950, symBinAddr: 0x42994, symSize: 0x54 }
  - { offset: 0xA47E5, size: 0x8, addend: 0x0, symName: __RNvXs0_NtCs2cqEZUIJimJ_5quote7spannedNtNtCs6IAuOt8vWmF_3syn5token9SelfValueNtB5_7Spanned6___spanCscdP1gRbl3Ff_20pin_project_internal, symObjAddr: 0x1AC0, symBinAddr: 0x40B04, symSize: 0x44 }
  - { offset: 0xA526E, size: 0x8, addend: 0x0, symName: __RINvCs6IAuOt8vWmF_3syn5parseNtNtB2_4item8ItemImplECscdP1gRbl3Ff_20pin_project_internal, symObjAddr: 0x0, symBinAddr: 0x435A8, symSize: 0x30 }
  - { offset: 0xA52CA, size: 0x8, addend: 0x0, symName: __RNvXsw_NtCse1nGBsou5OW_5alloc6stringRDNtNtCsfvfooZQ3Axs_4core3fmt7DisplayEL_NtB5_8ToString9to_stringCscdP1gRbl3Ff_20pin_project_internal, symObjAddr: 0x4AC4, symBinAddr: 0x48040, symSize: 0x24 }
  - { offset: 0xA5307, size: 0x8, addend: 0x0, symName: __RNvXsx_NtCse1nGBsou5OW_5alloc6stringRDNtNtCsfvfooZQ3Axs_4core3fmt7DisplayEL_NtB5_12SpecToString14spec_to_stringCscdP1gRbl3Ff_20pin_project_internal, symObjAddr: 0x4AE8, symBinAddr: 0x48064, symSize: 0x144 }
  - { offset: 0xA6277, size: 0x8, addend: 0x0, symName: __RNvXs6_NtCse1nGBsou5OW_5alloc5boxedINtB5_3BoxDNtNtCsfvfooZQ3Axs_4core5error5ErrorNtNtBM_6marker4SendNtB1j_4SyncEL_ENtNtNtBM_3ops4drop4Drop4dropCscdP1gRbl3Ff_20pin_project_internal, symObjAddr: 0x2844, symBinAddr: 0x45DC0, symSize: 0xC4 }
  - { offset: 0xA63AE, size: 0x8, addend: 0x0, symName: __RNvXs6_NtCse1nGBsou5OW_5alloc5boxedINtB5_3BoxINtNtCs6IAuOt8vWmF_3syn5drops6NoDropDINtNtBM_10punctuated9IterTraitNtNtBM_4data5FieldEp4ItemRB1M_EL_EENtNtNtCsfvfooZQ3Axs_4core3ops4drop4Drop4dropCscdP1gRbl3Ff_20pin_project_internal, symObjAddr: 0x2908, symBinAddr: 0x45E84, symSize: 0x118 }
  - { offset: 0xA64E5, size: 0x8, addend: 0x0, symName: __RNvXs6_NtCse1nGBsou5OW_5alloc5boxedINtB5_3BoxINtNtCs6IAuOt8vWmF_3syn5drops6NoDropDINtNtBM_10punctuated9IterTraitNtNtBM_4data7VariantEp4ItemRB1M_EL_EENtNtNtCsfvfooZQ3Axs_4core3ops4drop4Drop4dropCscdP1gRbl3Ff_20pin_project_internal, symObjAddr: 0x2A20, symBinAddr: 0x45F9C, symSize: 0x118 }
  - { offset: 0xA661C, size: 0x8, addend: 0x0, symName: __RNvXs6_NtCse1nGBsou5OW_5alloc5boxedINtB5_3BoxINtNtCs6IAuOt8vWmF_3syn5drops6NoDropDINtNtBM_10punctuated9IterTraitNtNtBM_4path15GenericArgumentEp4ItemRB1M_EL_EENtNtNtCsfvfooZQ3Axs_4core3ops4drop4Drop4dropCscdP1gRbl3Ff_20pin_project_internal, symObjAddr: 0x2B38, symBinAddr: 0x460B4, symSize: 0x118 }
  - { offset: 0xA6753, size: 0x8, addend: 0x0, symName: __RNvXs6_NtCse1nGBsou5OW_5alloc5boxedINtB5_3BoxINtNtCs6IAuOt8vWmF_3syn5drops6NoDropDINtNtBM_10punctuated9IterTraitNtNtBM_8generics12GenericParamEp4ItemRB1M_EL_EENtNtNtCsfvfooZQ3Axs_4core3ops4drop4Drop4dropCscdP1gRbl3Ff_20pin_project_internal, symObjAddr: 0x2C50, symBinAddr: 0x461CC, symSize: 0x118 }
  - { offset: 0xA688A, size: 0x8, addend: 0x0, symName: __RNvXs6_NtCse1nGBsou5OW_5alloc5boxedINtB5_3BoxNtNtCs6IAuOt8vWmF_3syn4attr4MetaENtNtNtCsfvfooZQ3Axs_4core3ops4drop4Drop4dropCscdP1gRbl3Ff_20pin_project_internal, symObjAddr: 0x2D68, symBinAddr: 0x462E4, symSize: 0xB0 }
  - { offset: 0xA69C1, size: 0x8, addend: 0x0, symName: __RNvXs6_NtCse1nGBsou5OW_5alloc5boxedINtB5_3BoxNtNtNtCscOYdFFY2T5N_3std2io5error6CustomENtNtNtCsfvfooZQ3Axs_4core3ops4drop4Drop4dropCscdP1gRbl3Ff_20pin_project_internal, symObjAddr: 0x2E18, symBinAddr: 0x46394, symSize: 0xB0 }
  - { offset: 0xA6AFE, size: 0x8, addend: 0x0, symName: __RNvXsC_NtCse1nGBsou5OW_5alloc5boxedINtB5_3BoxNtNtCs6IAuOt8vWmF_3syn2ty4TypeEINtNtCsfvfooZQ3Axs_4core7convert5AsMutBH_E6as_mutCscdP1gRbl3Ff_20pin_project_internal, symObjAddr: 0x2FDC, symBinAddr: 0x46558, symSize: 0x18 }
  - { offset: 0xA6B3E, size: 0x8, addend: 0x0, symName: __RNvXsC_NtCse1nGBsou5OW_5alloc5boxedINtB5_3BoxNtNtCs6IAuOt8vWmF_3syn2ty9BareFnArgEINtNtCsfvfooZQ3Axs_4core7convert5AsMutBH_E6as_mutCscdP1gRbl3Ff_20pin_project_internal, symObjAddr: 0x2FF4, symBinAddr: 0x46570, symSize: 0x18 }
  - { offset: 0xA6B7E, size: 0x8, addend: 0x0, symName: __RNvXsC_NtCse1nGBsou5OW_5alloc5boxedINtB5_3BoxNtNtCs6IAuOt8vWmF_3syn3pat3PatEINtNtCsfvfooZQ3Axs_4core7convert5AsMutBH_E6as_mutCscdP1gRbl3Ff_20pin_project_internal, symObjAddr: 0x300C, symBinAddr: 0x46588, symSize: 0x18 }
  - { offset: 0xA6BBE, size: 0x8, addend: 0x0, symName: __RNvXsC_NtCse1nGBsou5OW_5alloc5boxedINtB5_3BoxNtNtCs6IAuOt8vWmF_3syn3pat8FieldPatEINtNtCsfvfooZQ3Axs_4core7convert5AsMutBH_E6as_mutCscdP1gRbl3Ff_20pin_project_internal, symObjAddr: 0x3024, symBinAddr: 0x465A0, symSize: 0x18 }
  - { offset: 0xA6BFE, size: 0x8, addend: 0x0, symName: __RNvXsC_NtCse1nGBsou5OW_5alloc5boxedINtB5_3BoxNtNtCs6IAuOt8vWmF_3syn4data7VariantEINtNtCsfvfooZQ3Axs_4core7convert5AsMutBH_E6as_mutCscdP1gRbl3Ff_20pin_project_internal, symObjAddr: 0x303C, symBinAddr: 0x465B8, symSize: 0x18 }
  - { offset: 0xA6C3E, size: 0x8, addend: 0x0, symName: __RNvXsC_NtCse1nGBsou5OW_5alloc5boxedINtB5_3BoxNtNtCs6IAuOt8vWmF_3syn4expr10FieldValueEINtNtCsfvfooZQ3Axs_4core7convert5AsMutBH_E6as_mutCscdP1gRbl3Ff_20pin_project_internal, symObjAddr: 0x3054, symBinAddr: 0x465D0, symSize: 0x18 }
  - { offset: 0xA6C7E, size: 0x8, addend: 0x0, symName: __RNvXsC_NtCse1nGBsou5OW_5alloc5boxedINtB5_3BoxNtNtCs6IAuOt8vWmF_3syn4expr4ExprEINtNtCsfvfooZQ3Axs_4core7convert5AsMutBH_E6as_mutCscdP1gRbl3Ff_20pin_project_internal, symObjAddr: 0x306C, symBinAddr: 0x465E8, symSize: 0x18 }
  - { offset: 0xA6CBE, size: 0x8, addend: 0x0, symName: __RNvXsC_NtCse1nGBsou5OW_5alloc5boxedINtB5_3BoxNtNtCs6IAuOt8vWmF_3syn4item5FnArgEINtNtCsfvfooZQ3Axs_4core7convert5AsMutBH_E6as_mutCscdP1gRbl3Ff_20pin_project_internal, symObjAddr: 0x3084, symBinAddr: 0x46600, symSize: 0x18 }
  - { offset: 0xA6CFE, size: 0x8, addend: 0x0, symName: __RNvXsC_NtCse1nGBsou5OW_5alloc5boxedINtB5_3BoxNtNtCs6IAuOt8vWmF_3syn4item7UseTreeEINtNtCsfvfooZQ3Axs_4core7convert5AsMutBH_E6as_mutCscdP1gRbl3Ff_20pin_project_internal, symObjAddr: 0x309C, symBinAddr: 0x46618, symSize: 0x18 }
  - { offset: 0xA6D3E, size: 0x8, addend: 0x0, symName: __RNvXsC_NtCse1nGBsou5OW_5alloc5boxedINtB5_3BoxNtNtCs6IAuOt8vWmF_3syn4path15GenericArgumentEINtNtCsfvfooZQ3Axs_4core7convert5AsMutBH_E6as_mutCscdP1gRbl3Ff_20pin_project_internal, symObjAddr: 0x30B4, symBinAddr: 0x46630, symSize: 0x18 }
  - { offset: 0xA6D7E, size: 0x8, addend: 0x0, symName: __RNvXsC_NtCse1nGBsou5OW_5alloc5boxedINtB5_3BoxNtNtCs6IAuOt8vWmF_3syn8generics13CapturedParamEINtNtCsfvfooZQ3Axs_4core7convert5AsMutBH_E6as_mutCscdP1gRbl3Ff_20pin_project_internal, symObjAddr: 0x30CC, symBinAddr: 0x46648, symSize: 0x18 }
  - { offset: 0xA6DBE, size: 0x8, addend: 0x0, symName: __RNvXsC_NtCse1nGBsou5OW_5alloc5boxedINtB5_3BoxNtNtCs6IAuOt8vWmF_3syn8generics14TypeParamBoundEINtNtCsfvfooZQ3Axs_4core7convert5AsMutBH_E6as_mutCscdP1gRbl3Ff_20pin_project_internal, symObjAddr: 0x30E4, symBinAddr: 0x46660, symSize: 0x18 }
  - { offset: 0xA6DFE, size: 0x8, addend: 0x0, symName: __RNvXsC_NtCse1nGBsou5OW_5alloc5boxedINtB5_3BoxNtNtCs6IAuOt8vWmF_3syn8generics14WherePredicateEINtNtCsfvfooZQ3Axs_4core7convert5AsMutBH_E6as_mutCscdP1gRbl3Ff_20pin_project_internal, symObjAddr: 0x30FC, symBinAddr: 0x46678, symSize: 0x18 }
  - { offset: 0xA6E3E, size: 0x8, addend: 0x0, symName: __RNvXsC_NtCse1nGBsou5OW_5alloc5boxedINtB5_3BoxNtNtCs6IAuOt8vWmF_3syn8lifetime8LifetimeEINtNtCsfvfooZQ3Axs_4core7convert5AsMutBH_E6as_mutCscdP1gRbl3Ff_20pin_project_internal, symObjAddr: 0x3114, symBinAddr: 0x46690, symSize: 0x18 }
  - { offset: 0xA819A, size: 0x8, addend: 0x0, symName: __RNvNvMs3_NtCsfvfooZQ3Axs_4core3numi13unchecked_neg18precondition_checkCscdP1gRbl3Ff_20pin_project_internal, symObjAddr: 0x1B68, symBinAddr: 0x450E4, symSize: 0x4C }
  - { offset: 0xA8234, size: 0x8, addend: 0x0, symName: __RNvNvMs9_NtCsfvfooZQ3Axs_4core3numj13unchecked_add18precondition_checkCscdP1gRbl3Ff_20pin_project_internal, symObjAddr: 0x1BB4, symBinAddr: 0x45130, symSize: 0x44 }
  - { offset: 0xA8791, size: 0x8, addend: 0x0, symName: __RNvXs1c_NtCsfvfooZQ3Axs_4core3fmtRDNtB6_7DisplayEL_Bx_3fmtCscdP1gRbl3Ff_20pin_project_internal, symObjAddr: 0x271C, symBinAddr: 0x45C98, symSize: 0x3C }
  - { offset: 0xA87D7, size: 0x8, addend: 0x0, symName: __RNvXs1c_NtCsfvfooZQ3Axs_4core3fmtRNtCs3cP53eQoTwO_11proc_macro211TokenStreamNtB6_7Display3fmtCscdP1gRbl3Ff_20pin_project_internal, symObjAddr: 0x2758, symBinAddr: 0x45CD4, symSize: 0x30 }
  - { offset: 0xA881D, size: 0x8, addend: 0x0, symName: __RNvXs1c_NtCsfvfooZQ3Axs_4core3fmtRRNtCs3cP53eQoTwO_11proc_macro25IdentNtB6_7Display3fmtCscdP1gRbl3Ff_20pin_project_internal, symObjAddr: 0x2788, symBinAddr: 0x45D04, symSize: 0x30 }
  - { offset: 0xAAF7C, size: 0x8, addend: 0x0, symName: __RNvNvNtCsfvfooZQ3Axs_4core10intrinsics19copy_nonoverlapping18precondition_checkCscdP1gRbl3Ff_20pin_project_internal, symObjAddr: 0x1BF8, symBinAddr: 0x45174, symSize: 0x2E4 }
  - { offset: 0xAB1F4, size: 0x8, addend: 0x0, symName: __RNvNvNtCsfvfooZQ3Axs_4core10intrinsics4copy18precondition_checkCscdP1gRbl3Ff_20pin_project_internal, symObjAddr: 0x1EDC, symBinAddr: 0x45458, symSize: 0x1CC }
  - { offset: 0xAB959, size: 0x8, addend: 0x0, symName: __RNvMNtCsfvfooZQ3Axs_4core5sliceSNtCs3cP53eQoTwO_11proc_macro211TokenStream4iterCscdP1gRbl3Ff_20pin_project_internal, symObjAddr: 0x1178, symBinAddr: 0x446F8, symSize: 0x28 }
  - { offset: 0xAB990, size: 0x8, addend: 0x0, symName: __RNvMNtCsfvfooZQ3Axs_4core5sliceSNtCs3cP53eQoTwO_11proc_macro25Ident4iterCscdP1gRbl3Ff_20pin_project_internal, symObjAddr: 0x11A0, symBinAddr: 0x44720, symSize: 0x28 }
  - { offset: 0xAB9C7, size: 0x8, addend: 0x0, symName: __RNvMNtCsfvfooZQ3Axs_4core5sliceSTNtNtCs6IAuOt8vWmF_3syn4expr10FieldValueNtNtBz_5token5CommaE8iter_mutCscdP1gRbl3Ff_20pin_project_internal, symObjAddr: 0x11C8, symBinAddr: 0x44748, symSize: 0x28 }
  - { offset: 0xAB9FE, size: 0x8, addend: 0x0, symName: __RNvMNtCsfvfooZQ3Axs_4core5sliceSTNtNtCs6IAuOt8vWmF_3syn4expr4ExprNtNtBz_5token5CommaE8iter_mutCscdP1gRbl3Ff_20pin_project_internal, symObjAddr: 0x11F0, symBinAddr: 0x44770, symSize: 0x28 }
  - { offset: 0xABA67, size: 0x8, addend: 0x0, symName: __RNvNvNtNtCsfvfooZQ3Axs_4core5slice3raw14from_raw_parts18precondition_checkCscdP1gRbl3Ff_20pin_project_internal, symObjAddr: 0x20A8, symBinAddr: 0x45624, symSize: 0x168 }
  - { offset: 0xABBAD, size: 0x8, addend: 0x0, symName: __RNvNvNtNtCsfvfooZQ3Axs_4core5slice3raw18from_raw_parts_mut18precondition_checkCscdP1gRbl3Ff_20pin_project_internal, symObjAddr: 0x2210, symBinAddr: 0x4578C, symSize: 0x168 }
  - { offset: 0xABF60, size: 0x8, addend: 0x0, symName: __RNvXsn_NtNtCsfvfooZQ3Axs_4core5panic11unwind_safeINtB5_16AssertUnwindSafeNCINvNtNtCs9i5KxIbZ5ph_10proc_macro6bridge6client10run_clientNtB1e_11TokenStreamINtNtB9_6option6OptionB28_ENCNCINvMs7_B1e_INtB1e_6ClientNtB1i_11TokenStreamB3l_E7expand1NvCscdP1gRbl3Ff_20pin_project_internal29___pin_project_internal_deriveE00E0EINtNtNtB9_3ops8function6FnOnceuE9call_onceB3T_, symObjAddr: 0x4A1C, symBinAddr: 0x47F98, symSize: 0x38 }
  - { offset: 0xABFB8, size: 0x8, addend: 0x0, symName: __RNvXsn_NtNtCsfvfooZQ3Axs_4core5panic11unwind_safeINtB5_16AssertUnwindSafeNCINvNtNtCs9i5KxIbZ5ph_10proc_macro6bridge6client10run_clientTNtB1e_11TokenStreamB29_EINtNtB9_6option6OptionB29_ENCNCINvMs8_B1e_INtB1e_6ClientTNtB1i_11TokenStreamB3s_EB3s_E7expand2NvCscdP1gRbl3Ff_20pin_project_internal11pin_projectE00E0EINtNtNtB9_3ops8function6FnOnceuE9call_onceB45_, symObjAddr: 0x4A54, symBinAddr: 0x47FD0, symSize: 0x38 }
  - { offset: 0xAC010, size: 0x8, addend: 0x0, symName: __RNvXsn_NtNtCsfvfooZQ3Axs_4core5panic11unwind_safeINtB5_16AssertUnwindSafeNCINvNtNtCs9i5KxIbZ5ph_10proc_macro6bridge6client10run_clientTNtB1e_11TokenStreamB29_EINtNtB9_6option6OptionB29_ENCNCINvMs8_B1e_INtB1e_6ClientTNtB1i_11TokenStreamB3s_EB3s_E7expand2NvCscdP1gRbl3Ff_20pin_project_internal11pinned_dropE00E0EINtNtNtB9_3ops8function6FnOnceuE9call_onceB45_, symObjAddr: 0x4A8C, symBinAddr: 0x48008, symSize: 0x38 }
  - { offset: 0xAC2DE, size: 0x8, addend: 0x0, symName: __RNvXs1_NtCsfvfooZQ3Axs_4core7convertNtCs3cP53eQoTwO_11proc_macro211TokenStreamINtB5_4IntoNtCs9i5KxIbZ5ph_10proc_macro11TokenStreamE4intoCscdP1gRbl3Ff_20pin_project_internal, symObjAddr: 0x26D0, symBinAddr: 0x45C4C, symSize: 0x14 }
  - { offset: 0xAC458, size: 0x8, addend: 0x0, symName: __RNvXs_NtNtNtCsfvfooZQ3Axs_4core4iter8adapters3revINtB4_3RevINtNtNtBa_5slice4iter4IterNtCs3cP53eQoTwO_11proc_macro25IdentEENtNtNtB8_6traits8iterator8Iterator4nextCscdP1gRbl3Ff_20pin_project_internal, symObjAddr: 0x3258, symBinAddr: 0x467D4, symSize: 0x24 }
  - { offset: 0xAC4F7, size: 0x8, addend: 0x0, symName: __RNvXsg_NtNtCsfvfooZQ3Axs_4core3cmp5implsQNtCs3cP53eQoTwO_11proc_macro25IdentINtB7_9PartialEqReE2eqCscdP1gRbl3Ff_20pin_project_internal, symObjAddr: 0x327C, symBinAddr: 0x467F8, symSize: 0x3C }
  - { offset: 0xAC54D, size: 0x8, addend: 0x0, symName: __RNvYNtCs3cP53eQoTwO_11proc_macro25IdentINtNtCsfvfooZQ3Axs_4core3cmp9PartialEqReE2neCscdP1gRbl3Ff_20pin_project_internal, symObjAddr: 0x4E60, symBinAddr: 0x483DC, symSize: 0x30 }
  - { offset: 0xAC742, size: 0x8, addend: 0x0, symName: __RNvXs5_NtNtCs9i5KxIbZ5ph_10proc_macro6bridge6bufferNtB5_6BufferNtNtNtCsfvfooZQ3Axs_4core3ops4drop4Drop4dropCscdP1gRbl3Ff_20pin_project_internal, symObjAddr: 0x27B8, symBinAddr: 0x45D34, symSize: 0x8C }
  - { offset: 0xACC9D, size: 0x8, addend: 0x0, symName: __RINvNvNtNtCs9i5KxIbZ5ph_10proc_macro6bridge14selfless_reify31reify_to_extern_c_fn_hrt_bridge7wrapperNtNtB6_6buffer6BufferNCINvMs7_NtB6_6clientINtB24_6ClientNtB8_11TokenStreamB2u_E7expand1NvCscdP1gRbl3Ff_20pin_project_internal29___pin_project_internal_deriveE0EB31_, symObjAddr: 0xF54, symBinAddr: 0x444D4, symSize: 0x5C }
  - { offset: 0xACCF9, size: 0x8, addend: 0x0, symName: __RINvNvNtNtCs9i5KxIbZ5ph_10proc_macro6bridge14selfless_reify31reify_to_extern_c_fn_hrt_bridge7wrapperNtNtB6_6buffer6BufferNCINvMs8_NtB6_6clientINtB24_6ClientTNtB8_11TokenStreamB2v_EB2v_E7expand2NvCscdP1gRbl3Ff_20pin_project_internal11pin_projectE0EB37_, symObjAddr: 0xFB0, symBinAddr: 0x44530, symSize: 0x5C }
  - { offset: 0xACD55, size: 0x8, addend: 0x0, symName: __RINvNvNtNtCs9i5KxIbZ5ph_10proc_macro6bridge14selfless_reify31reify_to_extern_c_fn_hrt_bridge7wrapperNtNtB6_6buffer6BufferNCINvMs8_NtB6_6clientINtB24_6ClientTNtB8_11TokenStreamB2v_EB2v_E7expand2NvCscdP1gRbl3Ff_20pin_project_internal11pinned_dropE0EB37_, symObjAddr: 0x100C, symBinAddr: 0x4458C, symSize: 0x5C }
  - { offset: 0xACDB8, size: 0x8, addend: 0x0, symName: __RNvXs1J_NtCs9i5KxIbZ5ph_10proc_macro6bridgeINtB6_11ExpnGlobalsNtNtB6_6client4SpanEINtNtB6_3rpc9DecodeMutuE6decodeCscdP1gRbl3Ff_20pin_project_internal, symObjAddr: 0x2620, symBinAddr: 0x45B9C, symSize: 0xB0 }
  - { offset: 0xACE0F, size: 0x8, addend: 0x0, symName: __RNvXs9_NtNtCs9i5KxIbZ5ph_10proc_macro6bridge3rpcTINtB7_11ExpnGlobalsNtNtB7_6client4SpanENtB16_11TokenStreamEINtB5_9DecodeMutuE6decodeCscdP1gRbl3Ff_20pin_project_internal, symObjAddr: 0x2EC8, symBinAddr: 0x46444, symSize: 0x84 }
  - { offset: 0xACE64, size: 0x8, addend: 0x0, symName: __RNvXs9_NtNtCs9i5KxIbZ5ph_10proc_macro6bridge3rpcTINtB7_11ExpnGlobalsNtNtB7_6client4SpanETNtB16_11TokenStreamB1p_EEINtB5_9DecodeMutuE6decodeCscdP1gRbl3Ff_20pin_project_internal, symObjAddr: 0x2F4C, symBinAddr: 0x464C8, symSize: 0x90 }
  - { offset: 0xAD675, size: 0x8, addend: 0x0, symName: __RINvXs4_Cs3cP53eQoTwO_11proc_macro2NtB6_11TokenStreamINtNtNtNtCsfvfooZQ3Axs_4core4iter6traits7collect6ExtendNtB6_9TokenTreeE6extendBx_ECscdP1gRbl3Ff_20pin_project_internal, symObjAddr: 0x1068, symBinAddr: 0x445E8, symSize: 0x34 }
  - { offset: 0xAD6BE, size: 0x8, addend: 0x0, symName: __RINvXs6_Cs3cP53eQoTwO_11proc_macro2NtB6_11TokenStreamINtNtNtNtCsfvfooZQ3Axs_4core4iter6traits7collect12FromIteratorNtB6_9TokenTreeE9from_iterINtNtCse1nGBsou5OW_5alloc3vec3VecB1P_EECscdP1gRbl3Ff_20pin_project_internal, symObjAddr: 0x109C, symBinAddr: 0x4461C, symSize: 0x54 }
  - { offset: 0xAD6F6, size: 0x8, addend: 0x0, symName: __RINvXs6_Cs3cP53eQoTwO_11proc_macro2NtB6_11TokenStreamINtNtNtNtCsfvfooZQ3Axs_4core4iter6traits7collect12FromIteratorNtB6_9TokenTreeE9from_iterINtNtNtBW_8adapters3map3MapNtNtB6_12token_stream8IntoIterNCNvNtCscdP1gRbl3Ff_20pin_project_internal5utils13respan_tokens0EEB3g_, symObjAddr: 0x10F0, symBinAddr: 0x44670, symSize: 0x54 }
  - { offset: 0xAD7CE, size: 0x8, addend: 0x0, symName: __RNvXsG_Cs3cP53eQoTwO_11proc_macro2NtB5_11TokenStreamNtNtCsfvfooZQ3Axs_4core5clone5Clone5cloneCscdP1gRbl3Ff_20pin_project_internal, symObjAddr: 0x312C, symBinAddr: 0x466A8, symSize: 0x78 }
  - { offset: 0xAD800, size: 0x8, addend: 0x0, symName: __RNvXsX_Cs3cP53eQoTwO_11proc_macro2NtB5_7SpacingNtNtCsfvfooZQ3Axs_4core3cmp9PartialEq2eqCscdP1gRbl3Ff_20pin_project_internal, symObjAddr: 0x31A4, symBinAddr: 0x46720, symSize: 0x3C }
  - { offset: 0xAD87F, size: 0x8, addend: 0x0, symName: __RNvXsY_Cs3cP53eQoTwO_11proc_macro2NtB5_5IdentNtNtCsfvfooZQ3Axs_4core5clone5Clone5cloneCscdP1gRbl3Ff_20pin_project_internal, symObjAddr: 0x31E0, symBinAddr: 0x4675C, symSize: 0x78 }
  - { offset: 0xADA4D, size: 0x8, addend: 0x0, symName: __RNCNvXs1_NtNtNtCscOYdFFY2T5N_3std2io5error14repr_bitpackedNtB7_4ReprNtNtNtCsfvfooZQ3Axs_4core3ops4drop4Drop4drop0CscdP1gRbl3Ff_20pin_project_internal, symObjAddr: 0x1144, symBinAddr: 0x446C4, symSize: 0x34 }
  - { offset: 0xADB02, size: 0x8, addend: 0x0, symName: __RNvXs1_NtNtNtCscOYdFFY2T5N_3std2io5error14repr_bitpackedNtB5_4ReprNtNtNtCsfvfooZQ3Axs_4core3ops4drop4Drop4dropCscdP1gRbl3Ff_20pin_project_internal, symObjAddr: 0x26E4, symBinAddr: 0x45C60, symSize: 0x38 }
  - { offset: 0xADB2B, size: 0x8, addend: 0x0, symName: __RINvNtNtNtCscOYdFFY2T5N_3std2io5error14repr_bitpacked11decode_reprINtNtCse1nGBsou5OW_5alloc5boxed3BoxNtB4_6CustomENCNvXs1_B2_NtB2_4ReprNtNtNtCsfvfooZQ3Axs_4core3ops4drop4Drop4drop0ECscdP1gRbl3Ff_20pin_project_internal, symObjAddr: 0xABC, symBinAddr: 0x44064, symSize: 0x230 }
  - { offset: 0xADDD0, size: 0x8, addend: 0x0, symName: __RNvNtNtNtCscOYdFFY2T5N_3std2io5error14repr_bitpacked14kind_from_primCscdP1gRbl3Ff_20pin_project_internal, symObjAddr: 0x1560, symBinAddr: 0x44ADC, symSize: 0x608 }
  - { offset: 0xAE6E4, size: 0x8, addend: 0x0, symName: __RINvNvNtCscOYdFFY2T5N_3std9panicking3try7do_callINtNtNtCsfvfooZQ3Axs_4core5panic11unwind_safe16AssertUnwindSafeNCINvNtNtCs9i5KxIbZ5ph_10proc_macro6bridge6client10run_clientNtB1Q_11TokenStreamINtNtBR_6option6OptionB2K_ENCNCINvMs7_B1Q_INtB1Q_6ClientNtB1U_11TokenStreamB3X_E7expand1NvCscdP1gRbl3Ff_20pin_project_internal29___pin_project_internal_deriveE00E0EuEB4v_, symObjAddr: 0xD14, symBinAddr: 0x44294, symSize: 0x50 }
  - { offset: 0xAE7AC, size: 0x8, addend: 0x0, symName: __RINvNvNtCscOYdFFY2T5N_3std9panicking3try7do_callINtNtNtCsfvfooZQ3Axs_4core5panic11unwind_safe16AssertUnwindSafeNCINvNtNtCs9i5KxIbZ5ph_10proc_macro6bridge6client10run_clientTNtB1Q_11TokenStreamB2L_EINtNtBR_6option6OptionB2L_ENCNCINvMs8_B1Q_INtB1Q_6ClientTNtB1U_11TokenStreamB44_EB44_E7expand2NvCscdP1gRbl3Ff_20pin_project_internal11pin_projectE00E0EuEB4H_, symObjAddr: 0xD64, symBinAddr: 0x442E4, symSize: 0x50 }
  - { offset: 0xAE874, size: 0x8, addend: 0x0, symName: __RINvNvNtCscOYdFFY2T5N_3std9panicking3try7do_callINtNtNtCsfvfooZQ3Axs_4core5panic11unwind_safe16AssertUnwindSafeNCINvNtNtCs9i5KxIbZ5ph_10proc_macro6bridge6client10run_clientTNtB1Q_11TokenStreamB2L_EINtNtBR_6option6OptionB2L_ENCNCINvMs8_B1Q_INtB1Q_6ClientTNtB1U_11TokenStreamB44_EB44_E7expand2NvCscdP1gRbl3Ff_20pin_project_internal11pinned_dropE00E0EuEB4H_, symObjAddr: 0xDB4, symBinAddr: 0x44334, symSize: 0x50 }
  - { offset: 0xAE93C, size: 0x8, addend: 0x0, symName: __RINvNvNtCscOYdFFY2T5N_3std9panicking3try8do_catchINtNtNtCsfvfooZQ3Axs_4core5panic11unwind_safe16AssertUnwindSafeNCINvNtNtCs9i5KxIbZ5ph_10proc_macro6bridge6client10run_clientNtB1R_11TokenStreamINtNtBS_6option6OptionB2L_ENCNCINvMs7_B1R_INtB1R_6ClientNtB1V_11TokenStreamB3Y_E7expand1NvCscdP1gRbl3Ff_20pin_project_internal29___pin_project_internal_deriveE00E0EuEB4w_, symObjAddr: 0xE04, symBinAddr: 0x44384, symSize: 0x70 }
  - { offset: 0xAE9D1, size: 0x8, addend: 0x0, symName: __RINvNvNtCscOYdFFY2T5N_3std9panicking3try8do_catchINtNtNtCsfvfooZQ3Axs_4core5panic11unwind_safe16AssertUnwindSafeNCINvNtNtCs9i5KxIbZ5ph_10proc_macro6bridge6client10run_clientTNtB1R_11TokenStreamB2M_EINtNtBS_6option6OptionB2M_ENCNCINvMs8_B1R_INtB1R_6ClientTNtB1V_11TokenStreamB45_EB45_E7expand2NvCscdP1gRbl3Ff_20pin_project_internal11pin_projectE00E0EuEB4I_, symObjAddr: 0xE74, symBinAddr: 0x443F4, symSize: 0x70 }
  - { offset: 0xAEA66, size: 0x8, addend: 0x0, symName: __RINvNvNtCscOYdFFY2T5N_3std9panicking3try8do_catchINtNtNtCsfvfooZQ3Axs_4core5panic11unwind_safe16AssertUnwindSafeNCINvNtNtCs9i5KxIbZ5ph_10proc_macro6bridge6client10run_clientTNtB1R_11TokenStreamB2M_EINtNtBS_6option6OptionB2M_ENCNCINvMs8_B1R_INtB1R_6ClientTNtB1V_11TokenStreamB45_EB45_E7expand2NvCscdP1gRbl3Ff_20pin_project_internal11pinned_dropE00E0EuEB4I_, symObjAddr: 0xEE4, symBinAddr: 0x44464, symSize: 0x70 }
  - { offset: 0xAEBD6, size: 0x8, addend: 0x0, symName: __RINvCs6IAuOt8vWmF_3syn5parseNtNtB2_4item8ItemImplECscdP1gRbl3Ff_20pin_project_internal, symObjAddr: 0x0, symBinAddr: 0x435A8, symSize: 0x30 }
  - { offset: 0xAEC0D, size: 0x8, addend: 0x0, symName: __RINvCs6IAuOt8vWmF_3syn6parse2NtNtB2_11restriction10VisibilityECscdP1gRbl3Ff_20pin_project_internal, symObjAddr: 0x30, symBinAddr: 0x435D8, symSize: 0x24 }
  - { offset: 0xAEC45, size: 0x8, addend: 0x0, symName: __RINvCs6IAuOt8vWmF_3syn6parse2NtNtB2_2ty8TypePathECscdP1gRbl3Ff_20pin_project_internal, symObjAddr: 0x54, symBinAddr: 0x435FC, symSize: 0x24 }
  - { offset: 0xAEC7D, size: 0x8, addend: 0x0, symName: __RINvCs6IAuOt8vWmF_3syn6parse2NtNtB2_4item4ItemECscdP1gRbl3Ff_20pin_project_internal, symObjAddr: 0x78, symBinAddr: 0x43620, symSize: 0x24 }
  - { offset: 0xAECB5, size: 0x8, addend: 0x0, symName: __RINvCs6IAuOt8vWmF_3syn6parse2NtNtB2_4path4PathECscdP1gRbl3Ff_20pin_project_internal, symObjAddr: 0x9C, symBinAddr: 0x43644, symSize: 0x24 }
  - { offset: 0xAECED, size: 0x8, addend: 0x0, symName: __RINvCs6IAuOt8vWmF_3syn6parse2NtNtB2_8generics14WherePredicateECscdP1gRbl3Ff_20pin_project_internal, symObjAddr: 0xC0, symBinAddr: 0x43668, symSize: 0x24 }
  - { offset: 0xAED25, size: 0x8, addend: 0x0, symName: __RINvCs6IAuOt8vWmF_3syn6parse2NtNtNtCscdP1gRbl3Ff_20pin_project_internal11pin_project4args4ArgsEBx_, symObjAddr: 0xE4, symBinAddr: 0x4368C, symSize: 0x24 }
  - { offset: 0xAED5D, size: 0x8, addend: 0x0, symName: __RINvCs6IAuOt8vWmF_3syn6parse2NtNtNtCscdP1gRbl3Ff_20pin_project_internal11pin_project9attribute5InputEBx_, symObjAddr: 0x108, symBinAddr: 0x436B0, symSize: 0x24 }
  - { offset: 0xAED95, size: 0x8, addend: 0x0, symName: __RINvCs6IAuOt8vWmF_3syn6parse2NtNvNtNtCscdP1gRbl3Ff_20pin_project_internal11pin_project4args10parse_args5InputEBz_, symObjAddr: 0x12C, symBinAddr: 0x436D4, symSize: 0x24 }
  - { offset: 0xAEDD2, size: 0x8, addend: 0x0, symName: __RINvNtCs6IAuOt8vWmF_3syn11parse_quote5parseINtNtCse1nGBsou5OW_5alloc3vec3VecNtNtB4_4stmt4StmtEECscdP1gRbl3Ff_20pin_project_internal, symObjAddr: 0x524, symBinAddr: 0x43ACC, symSize: 0xC0 }
  - { offset: 0xAEE32, size: 0x8, addend: 0x0, symName: __RINvNtCs6IAuOt8vWmF_3syn11parse_quote5parseNtNtB4_2ty4TypeECscdP1gRbl3Ff_20pin_project_internal, symObjAddr: 0x5E4, symBinAddr: 0x43B8C, symSize: 0xD0 }
  - { offset: 0xAEE92, size: 0x8, addend: 0x0, symName: __RINvNtCs6IAuOt8vWmF_3syn11parse_quote5parseNtNtB4_2ty8TypePathECscdP1gRbl3Ff_20pin_project_internal, symObjAddr: 0x6B4, symBinAddr: 0x43C5C, symSize: 0xCC }
  - { offset: 0xAEEF2, size: 0x8, addend: 0x0, symName: __RINvNtCs6IAuOt8vWmF_3syn11parse_quote5parseNtNtB4_4attr9AttributeECscdP1gRbl3Ff_20pin_project_internal, symObjAddr: 0x780, symBinAddr: 0x43D28, symSize: 0xD0 }
  - { offset: 0xAEF52, size: 0x8, addend: 0x0, symName: __RINvNtCs6IAuOt8vWmF_3syn11parse_quote5parseNtNtB4_4stmt4StmtECscdP1gRbl3Ff_20pin_project_internal, symObjAddr: 0x850, symBinAddr: 0x43DF8, symSize: 0xD0 }
  - { offset: 0xAEFB2, size: 0x8, addend: 0x0, symName: __RINvNtCs6IAuOt8vWmF_3syn11parse_quote5parseNtNtB4_8generics14WherePredicateECscdP1gRbl3Ff_20pin_project_internal, symObjAddr: 0x920, symBinAddr: 0x43EC8, symSize: 0xD0 }
  - { offset: 0xAF012, size: 0x8, addend: 0x0, symName: __RINvNtCs6IAuOt8vWmF_3syn11parse_quote5parseNtNtB4_8generics8GenericsECscdP1gRbl3Ff_20pin_project_internal, symObjAddr: 0x9F0, symBinAddr: 0x43F98, symSize: 0xCC }
  - { offset: 0xAF077, size: 0x8, addend: 0x0, symName: __RINvNvNtCs6IAuOt8vWmF_3syn11parse_quote5parse18panic_cold_displayNtNtB6_5error5ErrorECscdP1gRbl3Ff_20pin_project_internal, symObjAddr: 0xCEC, symBinAddr: 0x1ACC58, symSize: 0x28 }
  - { offset: 0xAF0B4, size: 0x8, addend: 0x0, symName: __RNvXNtCs6IAuOt8vWmF_3syn7spannedNtCs3cP53eQoTwO_11proc_macro211TokenStreamNtB2_7Spanned4spanCscdP1gRbl3Ff_20pin_project_internal, symObjAddr: 0x25A8, symBinAddr: 0x45B24, symSize: 0x34 }
  - { offset: 0xB3D8C, size: 0x8, addend: 0x0, symName: __RNvXsh_NtCs6IAuOt8vWmF_3syn5parseNvYINtNtCse1nGBsou5OW_5alloc3vec3VecNtNtB7_4stmt4StmtENtNtB7_11parse_quote10ParseQuote5parseNtB5_6Parser6parse2CscdP1gRbl3Ff_20pin_project_internal, symObjAddr: 0x32B8, symBinAddr: 0x46834, symSize: 0x338 }
  - { offset: 0xB3E9B, size: 0x8, addend: 0x0, symName: __RNvXsh_NtCs6IAuOt8vWmF_3syn5parseNvYNtNtB7_2ty4TypeNtNtB7_11parse_quote10ParseQuote5parseNtB5_6Parser6parse2CscdP1gRbl3Ff_20pin_project_internal, symObjAddr: 0x35F0, symBinAddr: 0x46B6C, symSize: 0x358 }
  - { offset: 0xB3FAB, size: 0x8, addend: 0x0, symName: __RNvXsh_NtCs6IAuOt8vWmF_3syn5parseNvYNtNtB7_2ty8TypePathNtNtB7_11parse_quote10ParseQuote5parseNtB5_6Parser6parse2CscdP1gRbl3Ff_20pin_project_internal, symObjAddr: 0x3948, symBinAddr: 0x46EC4, symSize: 0x354 }
  - { offset: 0xB40BB, size: 0x8, addend: 0x0, symName: __RNvXsh_NtCs6IAuOt8vWmF_3syn5parseNvYNtNtB7_4attr9AttributeNtNtB7_11parse_quote10ParseQuote5parseNtB5_6Parser6parse2CscdP1gRbl3Ff_20pin_project_internal, symObjAddr: 0x3C9C, symBinAddr: 0x47218, symSize: 0x358 }
  - { offset: 0xB41CB, size: 0x8, addend: 0x0, symName: __RNvXsh_NtCs6IAuOt8vWmF_3syn5parseNvYNtNtB7_4stmt4StmtNtNtB7_11parse_quote10ParseQuote5parseNtB5_6Parser6parse2CscdP1gRbl3Ff_20pin_project_internal, symObjAddr: 0x3FF4, symBinAddr: 0x47570, symSize: 0x358 }
  - { offset: 0xB42DB, size: 0x8, addend: 0x0, symName: __RNvXsh_NtCs6IAuOt8vWmF_3syn5parseNvYNtNtB7_8generics14WherePredicateNtNtB7_11parse_quote10ParseQuote5parseNtB5_6Parser6parse2CscdP1gRbl3Ff_20pin_project_internal, symObjAddr: 0x434C, symBinAddr: 0x478C8, symSize: 0x368 }
  - { offset: 0xB43EB, size: 0x8, addend: 0x0, symName: __RNvXsh_NtCs6IAuOt8vWmF_3syn5parseNvYNtNtB7_8generics8GenericsNtNtB7_11parse_quote10ParseQuote5parseNtB5_6Parser6parse2CscdP1gRbl3Ff_20pin_project_internal, symObjAddr: 0x46B4, symBinAddr: 0x47C30, symSize: 0x368 }
  - { offset: 0xB48CA, size: 0x8, addend: 0x0, symName: __RINvMs3_NtCsfvfooZQ3Axs_4core3fmtNtB6_9Arguments6new_v1Kj1_Kj0_ECscdP1gRbl3Ff_20pin_project_internal, symObjAddr: 0x150, symBinAddr: 0x436F8, symSize: 0x4C }
  - { offset: 0xB4991, size: 0x8, addend: 0x0, symName: __RINvMs3_NtNtCs9i5KxIbZ5ph_10proc_macro6bridge6bufferNtB6_6Buffer17extend_from_arrayKj4_ECscdP1gRbl3Ff_20pin_project_internal, symObjAddr: 0x19C, symBinAddr: 0x43744, symSize: 0x16C }
  - { offset: 0xB4B57, size: 0x8, addend: 0x0, symName: __RINvMs3_NtNtCs9i5KxIbZ5ph_10proc_macro6bridge6bufferNtB6_6Buffer17extend_from_arrayKj8_ECscdP1gRbl3Ff_20pin_project_internal, symObjAddr: 0x308, symBinAddr: 0x438B0, symSize: 0x16C }
  - { offset: 0xB4D41, size: 0x8, addend: 0x0, symName: __RNvYINtNtNtNtCsfvfooZQ3Axs_4core4iter8adapters3rev3RevINtNtNtBb_5slice4iter4IterNtCs3cP53eQoTwO_11proc_macro25IdentEENtNtNtCs2cqEZUIJimJ_5quote9___private3ext14RepIteratorExt15quote_into_iterCscdP1gRbl3Ff_20pin_project_internal, symObjAddr: 0x4CB8, symBinAddr: 0x48234, symSize: 0x2C }
  - { offset: 0xB4D8B, size: 0x8, addend: 0x0, symName: __RNvXNtCs2cqEZUIJimJ_5quote14ident_fragmentRNtCs3cP53eQoTwO_11proc_macro25IdentNtB2_13IdentFragment3fmtCscdP1gRbl3Ff_20pin_project_internal, symObjAddr: 0x2378, symBinAddr: 0x458F4, symSize: 0x40 }
  - { offset: 0xB4DCE, size: 0x8, addend: 0x0, symName: __RNvXNtCs2cqEZUIJimJ_5quote14ident_fragmentRNtCs3cP53eQoTwO_11proc_macro25IdentNtB2_13IdentFragment4spanCscdP1gRbl3Ff_20pin_project_internal, symObjAddr: 0x23B8, symBinAddr: 0x45934, symSize: 0x38 }
  - { offset: 0xB4E03, size: 0x8, addend: 0x0, symName: __RNvXNtCs2cqEZUIJimJ_5quote14ident_fragmentRRNtCs3cP53eQoTwO_11proc_macro25IdentNtB2_13IdentFragment3fmtCscdP1gRbl3Ff_20pin_project_internal, symObjAddr: 0x23F0, symBinAddr: 0x4596C, symSize: 0x40 }
  - { offset: 0xB4E46, size: 0x8, addend: 0x0, symName: __RNvXNtCs2cqEZUIJimJ_5quote14ident_fragmentRRNtCs3cP53eQoTwO_11proc_macro25IdentNtB2_13IdentFragment4spanCscdP1gRbl3Ff_20pin_project_internal, symObjAddr: 0x2430, symBinAddr: 0x459AC, symSize: 0x38 }
  - { offset: 0xB4E87, size: 0x8, addend: 0x0, symName: __RNvXNtCs2cqEZUIJimJ_5quote9to_tokensRINtNtCse1nGBsou5OW_5alloc5boxed3BoxNtNtCs6IAuOt8vWmF_3syn2ty4TypeENtB2_8ToTokens9to_tokensCscdP1gRbl3Ff_20pin_project_internal, symObjAddr: 0x2468, symBinAddr: 0x459E4, symSize: 0x40 }
  - { offset: 0xB4EC6, size: 0x8, addend: 0x0, symName: __RNvXNtCs2cqEZUIJimJ_5quote9to_tokensRNtCs3cP53eQoTwO_11proc_macro211TokenStreamNtB2_8ToTokens9to_tokensCscdP1gRbl3Ff_20pin_project_internal, symObjAddr: 0x24A8, symBinAddr: 0x45A24, symSize: 0x40 }
  - { offset: 0xB4F05, size: 0x8, addend: 0x0, symName: __RNvXNtCs2cqEZUIJimJ_5quote9to_tokensRNtCs3cP53eQoTwO_11proc_macro25GroupNtB2_8ToTokens9to_tokensCscdP1gRbl3Ff_20pin_project_internal, symObjAddr: 0x24E8, symBinAddr: 0x45A64, symSize: 0x40 }
  - { offset: 0xB4F44, size: 0x8, addend: 0x0, symName: __RNvXNtCs2cqEZUIJimJ_5quote9to_tokensRNtCs3cP53eQoTwO_11proc_macro25IdentNtB2_8ToTokens9to_tokensCscdP1gRbl3Ff_20pin_project_internal, symObjAddr: 0x2528, symBinAddr: 0x45AA4, symSize: 0x40 }
  - { offset: 0xB4F83, size: 0x8, addend: 0x0, symName: __RNvXNtCs2cqEZUIJimJ_5quote9to_tokensRRNtCs3cP53eQoTwO_11proc_macro25IdentNtB2_8ToTokens9to_tokensCscdP1gRbl3Ff_20pin_project_internal, symObjAddr: 0x2568, symBinAddr: 0x45AE4, symSize: 0x40 }
  - { offset: 0xB4FC8, size: 0x8, addend: 0x0, symName: __RNvYINtNtCse1nGBsou5OW_5alloc5boxed3BoxNtNtCs6IAuOt8vWmF_3syn2ty4TypeENtNtCs2cqEZUIJimJ_5quote9to_tokens8ToTokens15to_token_streamCscdP1gRbl3Ff_20pin_project_internal, symObjAddr: 0x4C2C, symBinAddr: 0x481A8, symSize: 0x8C }
  - { offset: 0xB5012, size: 0x8, addend: 0x0, symName: __RNvYNtCs3cP53eQoTwO_11proc_macro211TokenStreamNtNtCs2cqEZUIJimJ_5quote9to_tokens8ToTokens15to_token_streamCscdP1gRbl3Ff_20pin_project_internal, symObjAddr: 0x4CE4, symBinAddr: 0x48260, symSize: 0x8C }
  - { offset: 0xB505C, size: 0x8, addend: 0x0, symName: __RNvYNtCs3cP53eQoTwO_11proc_macro25GroupNtNtCs2cqEZUIJimJ_5quote9to_tokens8ToTokens15to_token_streamCscdP1gRbl3Ff_20pin_project_internal, symObjAddr: 0x4D70, symBinAddr: 0x482EC, symSize: 0x8C }
  - { offset: 0xB50A6, size: 0x8, addend: 0x0, symName: __RNvYNtCs3cP53eQoTwO_11proc_macro25GroupNtNtCs2cqEZUIJimJ_5quote9to_tokens8ToTokens17into_token_streamCscdP1gRbl3Ff_20pin_project_internal, symObjAddr: 0x4DFC, symBinAddr: 0x48378, symSize: 0x64 }
  - { offset: 0xB50DC, size: 0x8, addend: 0x0, symName: __RNvYNtCs3cP53eQoTwO_11proc_macro25IdentNtNtCs2cqEZUIJimJ_5quote9to_tokens8ToTokens15to_token_streamCscdP1gRbl3Ff_20pin_project_internal, symObjAddr: 0x4E90, symBinAddr: 0x4840C, symSize: 0x8C }
  - { offset: 0xB5126, size: 0x8, addend: 0x0, symName: __RNvYRINtNtCse1nGBsou5OW_5alloc5boxed3BoxNtNtCs6IAuOt8vWmF_3syn2ty4TypeENtNtCs2cqEZUIJimJ_5quote9to_tokens8ToTokens15to_token_streamCscdP1gRbl3Ff_20pin_project_internal, symObjAddr: 0x4F1C, symBinAddr: 0x48498, symSize: 0x8C }
  - { offset: 0xB5170, size: 0x8, addend: 0x0, symName: __RNvYRNtCs3cP53eQoTwO_11proc_macro211TokenStreamNtNtCs2cqEZUIJimJ_5quote9to_tokens8ToTokens15to_token_streamCscdP1gRbl3Ff_20pin_project_internal, symObjAddr: 0x4FA8, symBinAddr: 0x48524, symSize: 0x8C }
  - { offset: 0xB51BA, size: 0x8, addend: 0x0, symName: __RNvYRNtCs3cP53eQoTwO_11proc_macro211TokenStreamNtNtCs2cqEZUIJimJ_5quote9to_tokens8ToTokens17into_token_streamCscdP1gRbl3Ff_20pin_project_internal, symObjAddr: 0x5034, symBinAddr: 0x485B0, symSize: 0x54 }
  - { offset: 0xB51EF, size: 0x8, addend: 0x0, symName: __RNvYRNtCs3cP53eQoTwO_11proc_macro25IdentNtNtCs2cqEZUIJimJ_5quote9to_tokens8ToTokens15to_token_streamCscdP1gRbl3Ff_20pin_project_internal, symObjAddr: 0x5088, symBinAddr: 0x48604, symSize: 0x8C }
  - { offset: 0xB5239, size: 0x8, addend: 0x0, symName: __RNvYRNtNtCs6IAuOt8vWmF_3syn4expr4ExprNtNtCs2cqEZUIJimJ_5quote9to_tokens8ToTokens15to_token_streamCscdP1gRbl3Ff_20pin_project_internal, symObjAddr: 0x5114, symBinAddr: 0x48690, symSize: 0x8C }
  - { offset: 0xB5283, size: 0x8, addend: 0x0, symName: __RNvYRRNtCs3cP53eQoTwO_11proc_macro25IdentNtNtCs2cqEZUIJimJ_5quote9to_tokens8ToTokens15to_token_streamCscdP1gRbl3Ff_20pin_project_internal, symObjAddr: 0x51A0, symBinAddr: 0x4871C, symSize: 0x8C }
  - { offset: 0xB52D9, size: 0x8, addend: 0x0, symName: __RNvXs0_NtCs2cqEZUIJimJ_5quote7spannedNtCs3cP53eQoTwO_11proc_macro211TokenStreamNtB5_7Spanned6___spanCscdP1gRbl3Ff_20pin_project_internal, symObjAddr: 0x25DC, symBinAddr: 0x45B58, symSize: 0x44 }
  - { offset: 0xB53AF, size: 0x8, addend: 0x0, symName: __RINvMs_NtNtCsfvfooZQ3Axs_4core3fmt2rtNtB5_8Argument11new_displayINtNtCs2cqEZUIJimJ_5quote9___private20IdentFragmentAdapterRRNtCs3cP53eQoTwO_11proc_macro25IdentEECscdP1gRbl3Ff_20pin_project_internal, symObjAddr: 0x474, symBinAddr: 0x43A1C, symSize: 0x2C }
  - { offset: 0xB5449, size: 0x8, addend: 0x0, symName: __RINvMs_NtNtCsfvfooZQ3Axs_4core3fmt2rtNtB5_8Argument11new_displayINtNtCs2cqEZUIJimJ_5quote9___private20IdentFragmentAdapterRjEECscdP1gRbl3Ff_20pin_project_internal, symObjAddr: 0x4A0, symBinAddr: 0x43A48, symSize: 0x2C }
  - { offset: 0xB54F0, size: 0x8, addend: 0x0, symName: __RINvMs_NtNtCsfvfooZQ3Axs_4core3fmt2rtNtB5_8Argument11new_displayRNtCs3cP53eQoTwO_11proc_macro211TokenStreamECscdP1gRbl3Ff_20pin_project_internal, symObjAddr: 0x4CC, symBinAddr: 0x43A74, symSize: 0x2C }
  - { offset: 0xB557D, size: 0x8, addend: 0x0, symName: __RINvMs_NtNtCsfvfooZQ3Axs_4core3fmt2rtNtB5_8Argument11new_displayRRNtCs3cP53eQoTwO_11proc_macro25IdentECscdP1gRbl3Ff_20pin_project_internal, symObjAddr: 0x4F8, symBinAddr: 0x43AA0, symSize: 0x2C }
  - { offset: 0xB5874, size: 0x8, addend: 0x0, symName: __RNvMNtNtCsfvfooZQ3Axs_4core3fmt2rtNtB2_11Placeholder3newCscdP1gRbl3Ff_20pin_project_internal, symObjAddr: 0x1218, symBinAddr: 0x44798, symSize: 0x4C }
  - { offset: 0xB58DC, size: 0x8, addend: 0x0, symName: __RNvMs0_NtNtCsfvfooZQ3Axs_4core3fmt2rtNtB5_9UnsafeArg3newCscdP1gRbl3Ff_20pin_project_internal, symObjAddr: 0x1264, symBinAddr: 0x447E4, symSize: 0x4 }
