---
triple:          'arm64-apple-darwin'
binary-path:     '/Users/cedric/orange/ran-llm-claude-flow/src/rust-pipeline/target/debug/deps/libderive_more-9e81a7fa15ce993a.dylib'
relocations:
  - { offset: 0x1E, size: 0x8, addend: 0x0, symName: __RINvCs6IAuOt8vWmF_3syn5parseNtNtB2_6derive11DeriveInputECs31ZvrkAUscI_11derive_more, symObjAddr: 0x0, symBinAddr: 0xC50, symSize: 0x30 }
  - { offset: 0x49E, size: 0x8, addend: 0x0, symName: __RNCNCNvXsx_NtCs6IAuOt8vWmF_3syn10punctuatedINtB9_11PrivateIterNtNtBb_4data7VariantNtNtBb_5token5CommaENtNtNtNtCsfvfooZQ3Axs_4core4iter6traits12double_ended19DoubleEndedIterator9next_back00Cs31ZvrkAUscI_11derive_more, symObjAddr: 0x1E6C, symBinAddr: 0x2ABC, symSize: 0x24 }
  - { offset: 0x4F1, size: 0x8, addend: 0x0, symName: __RNCNvXsx_NtCs6IAuOt8vWmF_3syn10punctuatedINtB7_11PrivateIterNtNtB9_4data7VariantNtNtB9_5token5CommaENtNtNtNtCsfvfooZQ3Axs_4core4iter6traits12double_ended19DoubleEndedIterator9next_back0Cs31ZvrkAUscI_11derive_more, symObjAddr: 0x1F50, symBinAddr: 0x2BA0, symSize: 0x38 }
  - { offset: 0x534, size: 0x8, addend: 0x0, symName: __RNvXsx_NtCs6IAuOt8vWmF_3syn10punctuatedINtB5_11PrivateIterNtNtB7_4data7VariantNtNtB7_5token5CommaENtNtNtNtCsfvfooZQ3Axs_4core4iter6traits12double_ended19DoubleEndedIterator9next_backCs31ZvrkAUscI_11derive_more, symObjAddr: 0x4F84, symBinAddr: 0x5BD4, symSize: 0x40 }
  - { offset: 0x57F, size: 0x8, addend: 0x0, symName: __RNCNvXsw_NtCs6IAuOt8vWmF_3syn10punctuatedINtB7_11PrivateIterNtNtB9_4data7VariantNtNtB9_5token5CommaENtNtNtNtCsfvfooZQ3Axs_4core4iter6traits8iterator8Iterator4next0Cs31ZvrkAUscI_11derive_more, symObjAddr: 0x1EF8, symBinAddr: 0x2B48, symSize: 0x24 }
  - { offset: 0x5CA, size: 0x8, addend: 0x0, symName: __RNCNvXsw_NtCs6IAuOt8vWmF_3syn10punctuatedINtB7_11PrivateIterNtNtB9_4data7VariantNtNtB9_5token5CommaENtNtNtNtCsfvfooZQ3Axs_4core4iter6traits8iterator8Iterator4nexts_0Cs31ZvrkAUscI_11derive_more, symObjAddr: 0x1F1C, symBinAddr: 0x2B6C, symSize: 0x34 }
  - { offset: 0x614, size: 0x8, addend: 0x0, symName: __RNvXsw_NtCs6IAuOt8vWmF_3syn10punctuatedINtB5_11PrivateIterNtNtB7_4data7VariantNtNtB7_5token5CommaENtNtNtNtCsfvfooZQ3Axs_4core4iter6traits8iterator8Iterator4nextCs31ZvrkAUscI_11derive_more, symObjAddr: 0x4F40, symBinAddr: 0x5B90, symSize: 0x44 }
  - { offset: 0x678, size: 0x8, addend: 0x0, symName: __RNvXs9_NtCs6IAuOt8vWmF_3syn10punctuatedRINtB5_10PunctuatedNtNtB7_4data7VariantNtNtB7_5token5CommaENtNtNtNtCsfvfooZQ3Axs_4core4iter6traits7collect12IntoIterator9into_iterCs31ZvrkAUscI_11derive_more, symObjAddr: 0x414C, symBinAddr: 0x4D9C, symSize: 0x34 }
  - { offset: 0x6BE, size: 0x8, addend: 0x0, symName: __RNvXsA_NtCs6IAuOt8vWmF_3syn10punctuatedINtB5_11PrivateIterNtNtB7_4data7VariantNtNtB7_5token5CommaEINtB5_9IterTraitBU_E9clone_boxCs31ZvrkAUscI_11derive_more, symObjAddr: 0x4204, symBinAddr: 0x4E54, symSize: 0x94 }
  - { offset: 0x722, size: 0x8, addend: 0x0, symName: __RNvXst_NtCs6IAuOt8vWmF_3syn10punctuatedINtB5_4IterNtNtB7_4data5FieldENtNtNtNtCsfvfooZQ3Axs_4core4iter6traits8iterator8Iterator9size_hintCs31ZvrkAUscI_11derive_more, symObjAddr: 0x4E34, symBinAddr: 0x5A84, symSize: 0x7C }
  - { offset: 0x759, size: 0x8, addend: 0x0, symName: __RNvXst_NtCs6IAuOt8vWmF_3syn10punctuatedINtB5_4IterNtNtB7_4data7VariantENtNtNtNtCsfvfooZQ3Axs_4core4iter6traits8iterator8Iterator4nextCs31ZvrkAUscI_11derive_more, symObjAddr: 0x4EB0, symBinAddr: 0x5B00, symSize: 0x48 }
  - { offset: 0x796, size: 0x8, addend: 0x0, symName: __RNvXsv_NtCs6IAuOt8vWmF_3syn10punctuatedINtB5_4IterNtNtB7_4data5FieldENtNtNtNtCsfvfooZQ3Axs_4core4iter6traits10exact_size17ExactSizeIterator3lenCs31ZvrkAUscI_11derive_more, symObjAddr: 0x4EF8, symBinAddr: 0x5B48, symSize: 0x48 }
  - { offset: 0x7D3, size: 0x8, addend: 0x0, symName: __RNvXsy_NtCs6IAuOt8vWmF_3syn10punctuatedINtB5_11PrivateIterNtNtB7_4data7VariantNtNtB7_5token5CommaENtNtNtNtCsfvfooZQ3Axs_4core4iter6traits10exact_size17ExactSizeIterator3lenCs31ZvrkAUscI_11derive_more, symObjAddr: 0x4FC4, symBinAddr: 0x5C14, symSize: 0x94 }
  - { offset: 0x84D, size: 0x8, addend: 0x0, symName: __RNvXsz_NtCs6IAuOt8vWmF_3syn10punctuatedINtB5_11PrivateIterNtNtB7_4data7VariantNtNtB7_5token5CommaENtNtCsfvfooZQ3Axs_4core5clone5Clone5cloneCs31ZvrkAUscI_11derive_more, symObjAddr: 0x5058, symBinAddr: 0x5CA8, symSize: 0x68 }
  - { offset: 0x515D, size: 0x8, addend: 0x0, symName: __RINvCs6IAuOt8vWmF_3syn5parseNtNtB2_6derive11DeriveInputECs31ZvrkAUscI_11derive_more, symObjAddr: 0x0, symBinAddr: 0xC50, symSize: 0x30 }
  - { offset: 0x521C, size: 0x8, addend: 0x0, symName: __RNvXsh_NtCs6IAuOt8vWmF_3syn5parseNvYNtNtB7_6derive11DeriveInputNtB5_5Parse5parseNtB5_6Parser6parse2Cs31ZvrkAUscI_11derive_more, symObjAddr: 0x45AC, symBinAddr: 0x51FC, symSize: 0x358 }
  - { offset: 0x5332, size: 0x8, addend: 0x0, symName: __RNvYNvYNtNtCs6IAuOt8vWmF_3syn6derive11DeriveInputNtNtB9_5parse5Parse5parseNtBN_6Parser5parseCs31ZvrkAUscI_11derive_more, symObjAddr: 0x5484, symBinAddr: 0x60D4, symSize: 0x88 }
  - { offset: 0x6044, size: 0x8, addend: 0x0, symName: __RNvNtCse1nGBsou5OW_5alloc5alloc12alloc_zeroedCs31ZvrkAUscI_11derive_more, symObjAddr: 0x2954, symBinAddr: 0x35A4, symSize: 0x84 }
  - { offset: 0x6108, size: 0x8, addend: 0x0, symName: __RNvXs_NtCse1nGBsou5OW_5alloc5allocNtB4_6GlobalNtNtCsfvfooZQ3Axs_4core5alloc9Allocator10deallocateCs31ZvrkAUscI_11derive_more, symObjAddr: 0x43CC, symBinAddr: 0x501C, symSize: 0x88 }
  - { offset: 0x61E4, size: 0x8, addend: 0x0, symName: __RNvNtCse1nGBsou5OW_5alloc5alloc15exchange_mallocCs31ZvrkAUscI_11derive_more, symObjAddr: 0x29D8, symBinAddr: 0x3628, symSize: 0xA4 }
  - { offset: 0x627B, size: 0x8, addend: 0x0, symName: __RNvNtCse1nGBsou5OW_5alloc5alloc5allocCs31ZvrkAUscI_11derive_more, symObjAddr: 0x2A7C, symBinAddr: 0x36CC, symSize: 0x84 }
  - { offset: 0x6A03, size: 0x8, addend: 0x0, symName: __RNvXs1_NtCse1nGBsou5OW_5alloc7raw_vecINtB5_6RawVecNtCs3cP53eQoTwO_11proc_macro211TokenStreamENtNtNtCsfvfooZQ3Axs_4core3ops4drop4Drop4dropCs31ZvrkAUscI_11derive_more, symObjAddr: 0x3768, symBinAddr: 0x43B8, symSize: 0x34 }
  - { offset: 0x6A3F, size: 0x8, addend: 0x0, symName: __RNvXs1_NtCse1nGBsou5OW_5alloc7raw_vecINtB5_6RawVecNtCs3cP53eQoTwO_11proc_macro25IdentENtNtNtCsfvfooZQ3Axs_4core3ops4drop4Drop4dropCs31ZvrkAUscI_11derive_more, symObjAddr: 0x379C, symBinAddr: 0x43EC, symSize: 0x34 }
  - { offset: 0x6A7B, size: 0x8, addend: 0x0, symName: __RNvXs1_NtCse1nGBsou5OW_5alloc7raw_vecINtB5_6RawVecRNtCs3cP53eQoTwO_11proc_macro25IdentENtNtNtCsfvfooZQ3Axs_4core3ops4drop4Drop4dropCs31ZvrkAUscI_11derive_more, symObjAddr: 0x37D0, symBinAddr: 0x4420, symSize: 0x30 }
  - { offset: 0x6AB7, size: 0x8, addend: 0x0, symName: __RNvXs1_NtCse1nGBsou5OW_5alloc7raw_vecINtB5_6RawVecRNtNtCs6IAuOt8vWmF_3syn4data5FieldENtNtNtCsfvfooZQ3Axs_4core3ops4drop4Drop4dropCs31ZvrkAUscI_11derive_more, symObjAddr: 0x3800, symBinAddr: 0x4450, symSize: 0x30 }
  - { offset: 0x6C2B, size: 0x8, addend: 0x0, symName: __RNvXss_NtCse1nGBsou5OW_5alloc6stringNtB5_6StringNtNtNtCsfvfooZQ3Axs_4core3ops5deref5Deref5derefCs31ZvrkAUscI_11derive_more, symObjAddr: 0x4E10, symBinAddr: 0x5A60, symSize: 0x24 }
  - { offset: 0x6C5F, size: 0x8, addend: 0x0, symName: __RNvXso_NtCse1nGBsou5OW_5alloc6stringNtB5_6StringINtNtNtCsfvfooZQ3Axs_4core3ops5arith3AddReE3addCs31ZvrkAUscI_11derive_more, symObjAddr: 0x4C5C, symBinAddr: 0x58AC, symSize: 0xAC }
  - { offset: 0x6EB4, size: 0x8, addend: 0x0, symName: __RNvXs6_NtCse1nGBsou5OW_5alloc5boxedINtB5_3BoxDNtNtCsfvfooZQ3Axs_4core5error5ErrorNtNtBM_6marker4SendNtB1j_4SyncEL_ENtNtNtBM_3ops4drop4Drop4dropCs31ZvrkAUscI_11derive_more, symObjAddr: 0x3AFC, symBinAddr: 0x474C, symSize: 0xC4 }
  - { offset: 0x6FEB, size: 0x8, addend: 0x0, symName: __RNvXs6_NtCse1nGBsou5OW_5alloc5boxedINtB5_3BoxINtNtCs6IAuOt8vWmF_3syn5drops6NoDropDINtNtBM_10punctuated12IterMutTraitNtNtBM_8generics12GenericParamEp4ItemQB1Q_EL_EENtNtNtCsfvfooZQ3Axs_4core3ops4drop4Drop4dropCs31ZvrkAUscI_11derive_more, symObjAddr: 0x3BC0, symBinAddr: 0x4810, symSize: 0x118 }
  - { offset: 0x7122, size: 0x8, addend: 0x0, symName: __RNvXs6_NtCse1nGBsou5OW_5alloc5boxedINtB5_3BoxINtNtCs6IAuOt8vWmF_3syn5drops6NoDropDINtNtBM_10punctuated9IterTraitNtNtBM_4data5FieldEp4ItemRB1M_EL_EENtNtNtCsfvfooZQ3Axs_4core3ops4drop4Drop4dropCs31ZvrkAUscI_11derive_more, symObjAddr: 0x3CD8, symBinAddr: 0x4928, symSize: 0x118 }
  - { offset: 0x7259, size: 0x8, addend: 0x0, symName: __RNvXs6_NtCse1nGBsou5OW_5alloc5boxedINtB5_3BoxINtNtCs6IAuOt8vWmF_3syn5drops6NoDropDINtNtBM_10punctuated9IterTraitNtNtBM_4data7VariantEp4ItemRB1M_EL_EENtNtNtCsfvfooZQ3Axs_4core3ops4drop4Drop4dropCs31ZvrkAUscI_11derive_more, symObjAddr: 0x3DF0, symBinAddr: 0x4A40, symSize: 0x118 }
  - { offset: 0x7390, size: 0x8, addend: 0x0, symName: __RNvXs6_NtCse1nGBsou5OW_5alloc5boxedINtB5_3BoxNtNtNtCscOYdFFY2T5N_3std2io5error6CustomENtNtNtCsfvfooZQ3Axs_4core3ops4drop4Drop4dropCs31ZvrkAUscI_11derive_more, symObjAddr: 0x3F08, symBinAddr: 0x4B58, symSize: 0xB0 }
  - { offset: 0x7543, size: 0x8, addend: 0x0, symName: __RNvNtCse1nGBsou5OW_5alloc3fmt6formatCs31ZvrkAUscI_11derive_more, symObjAddr: 0x2880, symBinAddr: 0x34D0, symSize: 0xD4 }
  - { offset: 0x7B6A, size: 0x8, addend: 0x0, symName: __RINvNtNtNtCs9i5KxIbZ5ph_10proc_macro6bridge6client5state3setINtNtCsfvfooZQ3Axs_4core6option6OptionNtB4_11TokenStreamENCNCINvB4_10run_clientB1y_BW_NCNCINvMs7_B4_INtB4_6ClientNtB8_11TokenStreamB2L_E7expand1NvCs31ZvrkAUscI_11derive_more10add_deriveE00E00EB3i_, symObjAddr: 0x400, symBinAddr: 0x1050, symSize: 0xE8 }
  - { offset: 0x7C3F, size: 0x8, addend: 0x0, symName: __RINvNtNtNtCs9i5KxIbZ5ph_10proc_macro6bridge6client5state3setINtNtCsfvfooZQ3Axs_4core6option6OptionNtB4_11TokenStreamENCNCINvB4_10run_clientB1y_BW_NCNCINvMs7_B4_INtB4_6ClientNtB8_11TokenStreamB2L_E7expand1NvCs31ZvrkAUscI_11derive_more10sub_deriveE00E00EB3i_, symObjAddr: 0x4E8, symBinAddr: 0x1138, symSize: 0xE8 }
  - { offset: 0x7D14, size: 0x8, addend: 0x0, symName: __RINvNtNtNtCs9i5KxIbZ5ph_10proc_macro6bridge6client5state3setINtNtCsfvfooZQ3Axs_4core6option6OptionNtB4_11TokenStreamENCNCINvB4_10run_clientB1y_BW_NCNCINvMs7_B4_INtB4_6ClientNtB8_11TokenStreamB2L_E7expand1NvCs31ZvrkAUscI_11derive_more13bit_or_deriveE00E00EB3i_, symObjAddr: 0x5D0, symBinAddr: 0x1220, symSize: 0xE8 }
  - { offset: 0x7DE9, size: 0x8, addend: 0x0, symName: __RINvNtNtNtCs9i5KxIbZ5ph_10proc_macro6bridge6client5state3setINtNtCsfvfooZQ3Axs_4core6option6OptionNtB4_11TokenStreamENCNCINvB4_10run_clientB1y_BW_NCNCINvMs7_B4_INtB4_6ClientNtB8_11TokenStreamB2L_E7expand1NvCs31ZvrkAUscI_11derive_more14bit_and_deriveE00E00EB3i_, symObjAddr: 0x6B8, symBinAddr: 0x1308, symSize: 0xE8 }
  - { offset: 0x7EBE, size: 0x8, addend: 0x0, symName: __RINvNtNtNtCs9i5KxIbZ5ph_10proc_macro6bridge6client5state3setINtNtCsfvfooZQ3Axs_4core6option6OptionNtB4_11TokenStreamENCNCINvB4_10run_clientB1y_BW_NCNCINvMs7_B4_INtB4_6ClientNtB8_11TokenStreamB2L_E7expand1NvCs31ZvrkAUscI_11derive_more14bit_xor_deriveE00E00EB3i_, symObjAddr: 0x7A0, symBinAddr: 0x13F0, symSize: 0xE8 }
  - { offset: 0x7F93, size: 0x8, addend: 0x0, symName: __RINvNtNtNtCs9i5KxIbZ5ph_10proc_macro6bridge6client5state3setINtNtCsfvfooZQ3Axs_4core6option6OptionNtB4_11TokenStreamENCNCINvB4_10run_clientB1y_BW_NCNCINvMs7_B4_INtB4_6ClientNtB8_11TokenStreamB2L_E7expand1NvCs31ZvrkAUscI_11derive_more17add_assign_deriveE00E00EB3i_, symObjAddr: 0x888, symBinAddr: 0x14D8, symSize: 0xE8 }
  - { offset: 0x8068, size: 0x8, addend: 0x0, symName: __RINvNtNtNtCs9i5KxIbZ5ph_10proc_macro6bridge6client5state3setINtNtCsfvfooZQ3Axs_4core6option6OptionNtB4_11TokenStreamENCNCINvB4_10run_clientB1y_BW_NCNCINvMs7_B4_INtB4_6ClientNtB8_11TokenStreamB2L_E7expand1NvCs31ZvrkAUscI_11derive_more17sub_assign_deriveE00E00EB3i_, symObjAddr: 0x970, symBinAddr: 0x15C0, symSize: 0xE8 }
  - { offset: 0x813D, size: 0x8, addend: 0x0, symName: __RINvNtNtNtCs9i5KxIbZ5ph_10proc_macro6bridge6client5state3setINtNtCsfvfooZQ3Axs_4core6option6OptionNtB4_11TokenStreamENCNCINvB4_10run_clientB1y_BW_NCNCINvMs7_B4_INtB4_6ClientNtB8_11TokenStreamB2L_E7expand1NvCs31ZvrkAUscI_11derive_more20bit_or_assign_deriveE00E00EB3i_, symObjAddr: 0xA58, symBinAddr: 0x16A8, symSize: 0xE8 }
  - { offset: 0x8212, size: 0x8, addend: 0x0, symName: __RINvNtNtNtCs9i5KxIbZ5ph_10proc_macro6bridge6client5state3setINtNtCsfvfooZQ3Axs_4core6option6OptionNtB4_11TokenStreamENCNCINvB4_10run_clientB1y_BW_NCNCINvMs7_B4_INtB4_6ClientNtB8_11TokenStreamB2L_E7expand1NvCs31ZvrkAUscI_11derive_more21bit_and_assign_deriveE00E00EB3i_, symObjAddr: 0xB40, symBinAddr: 0x1790, symSize: 0xE8 }
  - { offset: 0x82E7, size: 0x8, addend: 0x0, symName: __RINvNtNtNtCs9i5KxIbZ5ph_10proc_macro6bridge6client5state3setINtNtCsfvfooZQ3Axs_4core6option6OptionNtB4_11TokenStreamENCNCINvB4_10run_clientB1y_BW_NCNCINvMs7_B4_INtB4_6ClientNtB8_11TokenStreamB2L_E7expand1NvCs31ZvrkAUscI_11derive_more21bit_xor_assign_deriveE00E00EB3i_, symObjAddr: 0xC28, symBinAddr: 0x1878, symSize: 0xE8 }
  - { offset: 0x83C6, size: 0x8, addend: 0x0, symName: __RNCNkNvNtNtNtCs9i5KxIbZ5ph_10proc_macro6bridge6client5state12BRIDGE_STATE0s_0Cs31ZvrkAUscI_11derive_more, symObjAddr: 0x1E90, symBinAddr: 0x2AE0, symSize: 0x34 }
  - { offset: 0x8CD3, size: 0x8, addend: 0x0, symName: __RNvXs5_NtNtCs9i5KxIbZ5ph_10proc_macro6bridge6bufferNtB5_6BufferNtNtNtCsfvfooZQ3Axs_4core3ops4drop4Drop4dropCs31ZvrkAUscI_11derive_more, symObjAddr: 0x3A70, symBinAddr: 0x46C0, symSize: 0x8C }
  - { offset: 0x8E92, size: 0x8, addend: 0x0, symName: __RINvNvNtNtCs9i5KxIbZ5ph_10proc_macro6bridge14selfless_reify31reify_to_extern_c_fn_hrt_bridge7wrapperNtNtB6_6buffer6BufferNCINvMs7_NtB6_6clientINtB24_6ClientNtB8_11TokenStreamB2u_E7expand1NvCs31ZvrkAUscI_11derive_more10add_deriveE0EB31_, symObjAddr: 0x16D4, symBinAddr: 0x2324, symSize: 0x5C }
  - { offset: 0x8EEE, size: 0x8, addend: 0x0, symName: __RINvNvNtNtCs9i5KxIbZ5ph_10proc_macro6bridge14selfless_reify31reify_to_extern_c_fn_hrt_bridge7wrapperNtNtB6_6buffer6BufferNCINvMs7_NtB6_6clientINtB24_6ClientNtB8_11TokenStreamB2u_E7expand1NvCs31ZvrkAUscI_11derive_more10sub_deriveE0EB31_, symObjAddr: 0x1730, symBinAddr: 0x2380, symSize: 0x5C }
  - { offset: 0x8F4A, size: 0x8, addend: 0x0, symName: __RINvNvNtNtCs9i5KxIbZ5ph_10proc_macro6bridge14selfless_reify31reify_to_extern_c_fn_hrt_bridge7wrapperNtNtB6_6buffer6BufferNCINvMs7_NtB6_6clientINtB24_6ClientNtB8_11TokenStreamB2u_E7expand1NvCs31ZvrkAUscI_11derive_more13bit_or_deriveE0EB31_, symObjAddr: 0x178C, symBinAddr: 0x23DC, symSize: 0x5C }
  - { offset: 0x8FA6, size: 0x8, addend: 0x0, symName: __RINvNvNtNtCs9i5KxIbZ5ph_10proc_macro6bridge14selfless_reify31reify_to_extern_c_fn_hrt_bridge7wrapperNtNtB6_6buffer6BufferNCINvMs7_NtB6_6clientINtB24_6ClientNtB8_11TokenStreamB2u_E7expand1NvCs31ZvrkAUscI_11derive_more14bit_and_deriveE0EB31_, symObjAddr: 0x17E8, symBinAddr: 0x2438, symSize: 0x5C }
  - { offset: 0x9002, size: 0x8, addend: 0x0, symName: __RINvNvNtNtCs9i5KxIbZ5ph_10proc_macro6bridge14selfless_reify31reify_to_extern_c_fn_hrt_bridge7wrapperNtNtB6_6buffer6BufferNCINvMs7_NtB6_6clientINtB24_6ClientNtB8_11TokenStreamB2u_E7expand1NvCs31ZvrkAUscI_11derive_more14bit_xor_deriveE0EB31_, symObjAddr: 0x1844, symBinAddr: 0x2494, symSize: 0x5C }
  - { offset: 0x905E, size: 0x8, addend: 0x0, symName: __RINvNvNtNtCs9i5KxIbZ5ph_10proc_macro6bridge14selfless_reify31reify_to_extern_c_fn_hrt_bridge7wrapperNtNtB6_6buffer6BufferNCINvMs7_NtB6_6clientINtB24_6ClientNtB8_11TokenStreamB2u_E7expand1NvCs31ZvrkAUscI_11derive_more17add_assign_deriveE0EB31_, symObjAddr: 0x18A0, symBinAddr: 0x24F0, symSize: 0x5C }
  - { offset: 0x90BA, size: 0x8, addend: 0x0, symName: __RINvNvNtNtCs9i5KxIbZ5ph_10proc_macro6bridge14selfless_reify31reify_to_extern_c_fn_hrt_bridge7wrapperNtNtB6_6buffer6BufferNCINvMs7_NtB6_6clientINtB24_6ClientNtB8_11TokenStreamB2u_E7expand1NvCs31ZvrkAUscI_11derive_more17sub_assign_deriveE0EB31_, symObjAddr: 0x18FC, symBinAddr: 0x254C, symSize: 0x5C }
  - { offset: 0x9116, size: 0x8, addend: 0x0, symName: __RINvNvNtNtCs9i5KxIbZ5ph_10proc_macro6bridge14selfless_reify31reify_to_extern_c_fn_hrt_bridge7wrapperNtNtB6_6buffer6BufferNCINvMs7_NtB6_6clientINtB24_6ClientNtB8_11TokenStreamB2u_E7expand1NvCs31ZvrkAUscI_11derive_more20bit_or_assign_deriveE0EB31_, symObjAddr: 0x1958, symBinAddr: 0x25A8, symSize: 0x5C }
  - { offset: 0x9172, size: 0x8, addend: 0x0, symName: __RINvNvNtNtCs9i5KxIbZ5ph_10proc_macro6bridge14selfless_reify31reify_to_extern_c_fn_hrt_bridge7wrapperNtNtB6_6buffer6BufferNCINvMs7_NtB6_6clientINtB24_6ClientNtB8_11TokenStreamB2u_E7expand1NvCs31ZvrkAUscI_11derive_more21bit_and_assign_deriveE0EB31_, symObjAddr: 0x19B4, symBinAddr: 0x2604, symSize: 0x5C }
  - { offset: 0x91CE, size: 0x8, addend: 0x0, symName: __RINvNvNtNtCs9i5KxIbZ5ph_10proc_macro6bridge14selfless_reify31reify_to_extern_c_fn_hrt_bridge7wrapperNtNtB6_6buffer6BufferNCINvMs7_NtB6_6clientINtB24_6ClientNtB8_11TokenStreamB2u_E7expand1NvCs31ZvrkAUscI_11derive_more21bit_xor_assign_deriveE0EB31_, symObjAddr: 0x1A10, symBinAddr: 0x2660, symSize: 0x5C }
  - { offset: 0x9236, size: 0x8, addend: 0x0, symName: __RNvXNtNtCs9i5KxIbZ5ph_10proc_macro6bridge3rpcuINtB2_6EncodeuE6encodeCs31ZvrkAUscI_11derive_more, symObjAddr: 0x35D0, symBinAddr: 0x4220, symSize: 0x14 }
  - { offset: 0x927D, size: 0x8, addend: 0x0, symName: __RNvXs7_NtNtCs9i5KxIbZ5ph_10proc_macro6bridge3rpcINtNtNtCsfvfooZQ3Axs_4core3num7nonzero7NonZeromEINtB5_9DecodeMutuE6decodeCs31ZvrkAUscI_11derive_more, symObjAddr: 0x3FB8, symBinAddr: 0x4C08, symSize: 0x5C }
  - { offset: 0x9300, size: 0x8, addend: 0x0, symName: __RNvXs9_NtNtCs9i5KxIbZ5ph_10proc_macro6bridge3rpcTINtB7_11ExpnGlobalsNtNtB7_6client4SpanENtB16_11TokenStreamEINtB5_9DecodeMutuE6decodeCs31ZvrkAUscI_11derive_more, symObjAddr: 0x4180, symBinAddr: 0x4DD0, symSize: 0x84 }
  - { offset: 0x938D, size: 0x8, addend: 0x0, symName: __RNvXsa_NtNtCs9i5KxIbZ5ph_10proc_macro6bridge3rpcRShINtB5_6EncodeuE6encodeCs31ZvrkAUscI_11derive_more, symObjAddr: 0x44A4, symBinAddr: 0x50F4, symSize: 0xD0 }
  - { offset: 0x948F, size: 0x8, addend: 0x0, symName: __RNvXsc_NtNtCs9i5KxIbZ5ph_10proc_macro6bridge3rpcReINtB5_6EncodeuE6encodeCs31ZvrkAUscI_11derive_more, symObjAddr: 0x4574, symBinAddr: 0x51C4, symSize: 0x38 }
  - { offset: 0x9577, size: 0x8, addend: 0x0, symName: __RNvXsl_NtNtCs9i5KxIbZ5ph_10proc_macro6bridge3rpcNtB5_12PanicMessageINtB5_6EncodeuE6encodeCs31ZvrkAUscI_11derive_more, symObjAddr: 0x4904, symBinAddr: 0x5554, symSize: 0x128 }
  - { offset: 0x973D, size: 0x8, addend: 0x0, symName: __RNvXso_NtNtCs9i5KxIbZ5ph_10proc_macro6bridge3rpcmINtB5_9DecodeMutuE6decodeCs31ZvrkAUscI_11derive_more, symObjAddr: 0x4D08, symBinAddr: 0x5958, symSize: 0x108 }
  - { offset: 0x988B, size: 0x8, addend: 0x0, symName: __RNvXs1J_NtCs9i5KxIbZ5ph_10proc_macro6bridgeINtB6_11ExpnGlobalsNtNtB6_6client4SpanEINtNtB6_3rpc9DecodeMutuE6decodeCs31ZvrkAUscI_11derive_more, symObjAddr: 0x36B8, symBinAddr: 0x4308, symSize: 0xB0 }
  - { offset: 0x9AF3, size: 0x8, addend: 0x0, symName: __RNvNvMsc_NtNtCsfvfooZQ3Axs_4core3num7nonzeroINtB7_7NonZeropE13new_unchecked18precondition_checkCs31ZvrkAUscI_11derive_more, symObjAddr: 0x3198, symBinAddr: 0x3DE8, symSize: 0x1C }
  - { offset: 0xADFE, size: 0x8, addend: 0x0, symName: __RNvNvMNtNtCsfvfooZQ3Axs_4core3ptr9const_ptrPp7sub_ptr18precondition_checkCs31ZvrkAUscI_11derive_more, symObjAddr: 0x3108, symBinAddr: 0x3D58, symSize: 0x40 }
  - { offset: 0xB549, size: 0x8, addend: 0x0, symName: __RNvNvNtCsfvfooZQ3Axs_4core3ptr13read_volatile18precondition_checkCs31ZvrkAUscI_11derive_more, symObjAddr: 0x31B4, symBinAddr: 0x3E04, symSize: 0x100 }
  - { offset: 0xDB21, size: 0x8, addend: 0x0, symName: __RNvXs_NtNtCsfvfooZQ3Axs_4core5slice4iterRSRNtNtCs6IAuOt8vWmF_3syn4data5FieldNtNtNtNtB8_4iter6traits7collect12IntoIterator9into_iterCs31ZvrkAUscI_11derive_more, symObjAddr: 0x4454, symBinAddr: 0x50A4, symSize: 0x50 }
  - { offset: 0xDE02, size: 0x8, addend: 0x0, symName: __RNvMNtCsfvfooZQ3Axs_4core5sliceSNtCs3cP53eQoTwO_11proc_macro211TokenStream4iterCs31ZvrkAUscI_11derive_more, symObjAddr: 0x2410, symBinAddr: 0x3060, symSize: 0x28 }
  - { offset: 0xDE39, size: 0x8, addend: 0x0, symName: __RNvMNtCsfvfooZQ3Axs_4core5sliceSNtCs3cP53eQoTwO_11proc_macro25Ident4iterCs31ZvrkAUscI_11derive_more, symObjAddr: 0x2438, symBinAddr: 0x3088, symSize: 0x28 }
  - { offset: 0xDE70, size: 0x8, addend: 0x0, symName: __RNvMNtCsfvfooZQ3Axs_4core5sliceSRNtCs3cP53eQoTwO_11proc_macro25Ident4iterCs31ZvrkAUscI_11derive_more, symObjAddr: 0x2460, symBinAddr: 0x30B0, symSize: 0x28 }
  - { offset: 0xDEA7, size: 0x8, addend: 0x0, symName: __RNvMNtCsfvfooZQ3Axs_4core5sliceSRNtNtCs6IAuOt8vWmF_3syn4data5Field4iterCs31ZvrkAUscI_11derive_more, symObjAddr: 0x2488, symBinAddr: 0x30D8, symSize: 0x28 }
  - { offset: 0xDF2C, size: 0x8, addend: 0x0, symName: __RNvMNtCsfvfooZQ3Axs_4core5sliceSh15copy_from_sliceCs31ZvrkAUscI_11derive_more, symObjAddr: 0x24B0, symBinAddr: 0x3100, symSize: 0xA4 }
  - { offset: 0xE080, size: 0x8, addend: 0x0, symName: __RNvNvNtNtCsfvfooZQ3Axs_4core5slice3raw14from_raw_parts18precondition_checkCs31ZvrkAUscI_11derive_more, symObjAddr: 0x33A8, symBinAddr: 0x3FF8, symSize: 0x168 }
  - { offset: 0xE5C1, size: 0x8, addend: 0x0, symName: __RINvMNtCsfvfooZQ3Axs_4core3stre16trim_end_matchesReECs31ZvrkAUscI_11derive_more, symObjAddr: 0x30, symBinAddr: 0xC80, symSize: 0xF8 }
  - { offset: 0xE802, size: 0x8, addend: 0x0, symName: __RNvXs8_NtNtCsfvfooZQ3Axs_4core3str6traitsINtNtNtB9_3ops5range7RangeTojEINtNtNtB9_5slice5index10SliceIndexeE3getCs31ZvrkAUscI_11derive_more, symObjAddr: 0x4014, symBinAddr: 0x4C64, symSize: 0x138 }
  - { offset: 0xF476, size: 0x8, addend: 0x0, symName: __RNvXsn_NtNtCsfvfooZQ3Axs_4core5panic11unwind_safeINtB5_16AssertUnwindSafeNCINvNtNtCs9i5KxIbZ5ph_10proc_macro6bridge6client10run_clientNtB1e_11TokenStreamINtNtB9_6option6OptionB28_ENCNCINvMs7_B1e_INtB1e_6ClientNtB1i_11TokenStreamB3l_E7expand1NvCs31ZvrkAUscI_11derive_more10add_deriveE00E0EINtNtNtB9_3ops8function6FnOnceuE9call_onceB3T_, symObjAddr: 0x4A2C, symBinAddr: 0x567C, symSize: 0x38 }
  - { offset: 0xF4CE, size: 0x8, addend: 0x0, symName: __RNvXsn_NtNtCsfvfooZQ3Axs_4core5panic11unwind_safeINtB5_16AssertUnwindSafeNCINvNtNtCs9i5KxIbZ5ph_10proc_macro6bridge6client10run_clientNtB1e_11TokenStreamINtNtB9_6option6OptionB28_ENCNCINvMs7_B1e_INtB1e_6ClientNtB1i_11TokenStreamB3l_E7expand1NvCs31ZvrkAUscI_11derive_more10sub_deriveE00E0EINtNtNtB9_3ops8function6FnOnceuE9call_onceB3T_, symObjAddr: 0x4A64, symBinAddr: 0x56B4, symSize: 0x38 }
  - { offset: 0xF526, size: 0x8, addend: 0x0, symName: __RNvXsn_NtNtCsfvfooZQ3Axs_4core5panic11unwind_safeINtB5_16AssertUnwindSafeNCINvNtNtCs9i5KxIbZ5ph_10proc_macro6bridge6client10run_clientNtB1e_11TokenStreamINtNtB9_6option6OptionB28_ENCNCINvMs7_B1e_INtB1e_6ClientNtB1i_11TokenStreamB3l_E7expand1NvCs31ZvrkAUscI_11derive_more13bit_or_deriveE00E0EINtNtNtB9_3ops8function6FnOnceuE9call_onceB3T_, symObjAddr: 0x4A9C, symBinAddr: 0x56EC, symSize: 0x38 }
  - { offset: 0xF57E, size: 0x8, addend: 0x0, symName: __RNvXsn_NtNtCsfvfooZQ3Axs_4core5panic11unwind_safeINtB5_16AssertUnwindSafeNCINvNtNtCs9i5KxIbZ5ph_10proc_macro6bridge6client10run_clientNtB1e_11TokenStreamINtNtB9_6option6OptionB28_ENCNCINvMs7_B1e_INtB1e_6ClientNtB1i_11TokenStreamB3l_E7expand1NvCs31ZvrkAUscI_11derive_more14bit_and_deriveE00E0EINtNtNtB9_3ops8function6FnOnceuE9call_onceB3T_, symObjAddr: 0x4AD4, symBinAddr: 0x5724, symSize: 0x38 }
  - { offset: 0xF5D6, size: 0x8, addend: 0x0, symName: __RNvXsn_NtNtCsfvfooZQ3Axs_4core5panic11unwind_safeINtB5_16AssertUnwindSafeNCINvNtNtCs9i5KxIbZ5ph_10proc_macro6bridge6client10run_clientNtB1e_11TokenStreamINtNtB9_6option6OptionB28_ENCNCINvMs7_B1e_INtB1e_6ClientNtB1i_11TokenStreamB3l_E7expand1NvCs31ZvrkAUscI_11derive_more14bit_xor_deriveE00E0EINtNtNtB9_3ops8function6FnOnceuE9call_onceB3T_, symObjAddr: 0x4B0C, symBinAddr: 0x575C, symSize: 0x38 }
  - { offset: 0xF62E, size: 0x8, addend: 0x0, symName: __RNvXsn_NtNtCsfvfooZQ3Axs_4core5panic11unwind_safeINtB5_16AssertUnwindSafeNCINvNtNtCs9i5KxIbZ5ph_10proc_macro6bridge6client10run_clientNtB1e_11TokenStreamINtNtB9_6option6OptionB28_ENCNCINvMs7_B1e_INtB1e_6ClientNtB1i_11TokenStreamB3l_E7expand1NvCs31ZvrkAUscI_11derive_more17add_assign_deriveE00E0EINtNtNtB9_3ops8function6FnOnceuE9call_onceB3T_, symObjAddr: 0x4B44, symBinAddr: 0x5794, symSize: 0x38 }
  - { offset: 0xF686, size: 0x8, addend: 0x0, symName: __RNvXsn_NtNtCsfvfooZQ3Axs_4core5panic11unwind_safeINtB5_16AssertUnwindSafeNCINvNtNtCs9i5KxIbZ5ph_10proc_macro6bridge6client10run_clientNtB1e_11TokenStreamINtNtB9_6option6OptionB28_ENCNCINvMs7_B1e_INtB1e_6ClientNtB1i_11TokenStreamB3l_E7expand1NvCs31ZvrkAUscI_11derive_more17sub_assign_deriveE00E0EINtNtNtB9_3ops8function6FnOnceuE9call_onceB3T_, symObjAddr: 0x4B7C, symBinAddr: 0x57CC, symSize: 0x38 }
  - { offset: 0xF6DE, size: 0x8, addend: 0x0, symName: __RNvXsn_NtNtCsfvfooZQ3Axs_4core5panic11unwind_safeINtB5_16AssertUnwindSafeNCINvNtNtCs9i5KxIbZ5ph_10proc_macro6bridge6client10run_clientNtB1e_11TokenStreamINtNtB9_6option6OptionB28_ENCNCINvMs7_B1e_INtB1e_6ClientNtB1i_11TokenStreamB3l_E7expand1NvCs31ZvrkAUscI_11derive_more20bit_or_assign_deriveE00E0EINtNtNtB9_3ops8function6FnOnceuE9call_onceB3T_, symObjAddr: 0x4BB4, symBinAddr: 0x5804, symSize: 0x38 }
  - { offset: 0xF736, size: 0x8, addend: 0x0, symName: __RNvXsn_NtNtCsfvfooZQ3Axs_4core5panic11unwind_safeINtB5_16AssertUnwindSafeNCINvNtNtCs9i5KxIbZ5ph_10proc_macro6bridge6client10run_clientNtB1e_11TokenStreamINtNtB9_6option6OptionB28_ENCNCINvMs7_B1e_INtB1e_6ClientNtB1i_11TokenStreamB3l_E7expand1NvCs31ZvrkAUscI_11derive_more21bit_and_assign_deriveE00E0EINtNtNtB9_3ops8function6FnOnceuE9call_onceB3T_, symObjAddr: 0x4BEC, symBinAddr: 0x583C, symSize: 0x38 }
  - { offset: 0xF78E, size: 0x8, addend: 0x0, symName: __RNvXsn_NtNtCsfvfooZQ3Axs_4core5panic11unwind_safeINtB5_16AssertUnwindSafeNCINvNtNtCs9i5KxIbZ5ph_10proc_macro6bridge6client10run_clientNtB1e_11TokenStreamINtNtB9_6option6OptionB28_ENCNCINvMs7_B1e_INtB1e_6ClientNtB1i_11TokenStreamB3l_E7expand1NvCs31ZvrkAUscI_11derive_more21bit_xor_assign_deriveE00E0EINtNtNtB9_3ops8function6FnOnceuE9call_onceB3T_, symObjAddr: 0x4C24, symBinAddr: 0x5874, symSize: 0x38 }
  - { offset: 0xF7FF, size: 0x8, addend: 0x0, symName: __RNvNvNtCsfvfooZQ3Axs_4core4hint21unreachable_unchecked18precondition_checkCs31ZvrkAUscI_11derive_more, symObjAddr: 0x32B4, symBinAddr: 0x3F04, symSize: 0x1C }
  - { offset: 0xF850, size: 0x8, addend: 0x0, symName: __RINvNtNtNtCsfvfooZQ3Axs_4core4iter7sources6repeat6repeatRNtCs3cP53eQoTwO_11proc_macro25IdentECs31ZvrkAUscI_11derive_more, symObjAddr: 0xF40, symBinAddr: 0x1B90, symSize: 0x14 }
  - { offset: 0xF88A, size: 0x8, addend: 0x0, symName: __RNvXNtNtNtCsfvfooZQ3Axs_4core4iter7sources6repeatINtB2_6RepeatRNtCs3cP53eQoTwO_11proc_macro25IdentENtNtNtB6_6traits8iterator8Iterator4nextCs31ZvrkAUscI_11derive_more, symObjAddr: 0x3648, symBinAddr: 0x4298, symSize: 0x28 }
  - { offset: 0xF99C, size: 0x8, addend: 0x0, symName: __RNCINvNtNtNtCsfvfooZQ3Axs_4core4iter8adapters3map8map_foldRRNtNtCs6IAuOt8vWmF_3syn4data5FieldRNtCs3cP53eQoTwO_11proc_macro25IdentuNCNvNtCs31ZvrkAUscI_11derive_more5utils12field_idents0NCINvNvNtNtNtB8_6traits8iterator8Iterator8for_each4callB1t_NCINvMsi_NtCse1nGBsou5OW_5alloc3vecINtB42_3VecB1t_E14extend_trustedINtB4_3MapINtNtNtBa_5slice4iter4IterBV_EB24_EE0E0E0B2a_, symObjAddr: 0x1D00, symBinAddr: 0x2950, symSize: 0x7C }
  - { offset: 0xFA21, size: 0x8, addend: 0x0, symName: __RNCINvNtNtNtCsfvfooZQ3Axs_4core4iter8adapters3map8map_foldjNtCs3cP53eQoTwO_11proc_macro25IdentuNCNvNtCs31ZvrkAUscI_11derive_more5utils13numbered_vars0NCINvNvNtNtNtB8_6traits8iterator8Iterator8for_each4callBV_NCINvMsi_NtCse1nGBsou5OW_5alloc3vecINtB3t_3VecBV_E14extend_trustedINtB4_3MapINtNtNtBa_3ops5range5RangejEB1v_EE0E0E0B1B_, symObjAddr: 0x1D7C, symBinAddr: 0x29CC, symSize: 0x88 }
  - { offset: 0xFAAC, size: 0x8, addend: 0x0, symName: __RINvXs0_NtNtNtCsfvfooZQ3Axs_4core4iter8adapters3mapINtB6_3MapINtNtNtBc_3ops5range5RangejENCNvNtCs31ZvrkAUscI_11derive_more5utils13numbered_vars0ENtNtNtBa_6traits8iterator8Iterator4folduNCINvNvB2j_8for_each4callNtCs3cP53eQoTwO_11proc_macro25IdentNCINvMsi_NtCse1nGBsou5OW_5alloc3vecINtB44_3VecB3m_E14extend_trustedBN_E0E0EB1v_, symObjAddr: 0x1A6C, symBinAddr: 0x26BC, symSize: 0x4C }
  - { offset: 0xFB45, size: 0x8, addend: 0x0, symName: __RINvXs0_NtNtNtCsfvfooZQ3Axs_4core4iter8adapters3mapINtB6_3MapINtNtNtBc_5slice4iter4IterRNtNtCs6IAuOt8vWmF_3syn4data5FieldENCNvNtCs31ZvrkAUscI_11derive_more5utils12field_idents0ENtNtNtBa_6traits8iterator8Iterator4folduNCINvNvB2P_8for_each4callRNtCs3cP53eQoTwO_11proc_macro25IdentNCINvMsi_NtCse1nGBsou5OW_5alloc3vecINtB4B_3VecB3S_E14extend_trustedBN_E0E0EB22_, symObjAddr: 0x1AB8, symBinAddr: 0x2708, symSize: 0x44 }
  - { offset: 0xFBDD, size: 0x8, addend: 0x0, symName: __RNvXs0_NtNtNtCsfvfooZQ3Axs_4core4iter8adapters3mapINtB5_3MapINtNtNtBb_3ops5range5RangejENCNvNtCs31ZvrkAUscI_11derive_more5utils13numbered_vars0ENtNtNtB9_6traits8iterator8Iterator9size_hintB1u_, symObjAddr: 0x3670, symBinAddr: 0x42C0, symSize: 0x24 }
  - { offset: 0xFC24, size: 0x8, addend: 0x0, symName: __RNvXs0_NtNtNtCsfvfooZQ3Axs_4core4iter8adapters3mapINtB5_3MapINtNtNtBb_5slice4iter4IterRNtNtCs6IAuOt8vWmF_3syn4data5FieldENCNvNtCs31ZvrkAUscI_11derive_more5utils12field_idents0ENtNtNtB9_6traits8iterator8Iterator9size_hintB21_, symObjAddr: 0x3694, symBinAddr: 0x42E4, symSize: 0x24 }
  - { offset: 0xFD93, size: 0x8, addend: 0x0, symName: __RNCINvNvNtNtNtNtCsfvfooZQ3Axs_4core4iter6traits8iterator8Iterator8for_each4callNtCs3cP53eQoTwO_11proc_macro25IdentNCINvMsi_NtCse1nGBsou5OW_5alloc3vecINtB1X_3VecB1f_E14extend_trustedINtNtNtBc_8adapters3map3MapINtNtNtBe_3ops5range5RangejENCNvNtCs31ZvrkAUscI_11derive_more5utils13numbered_vars0EE0E0B3S_, symObjAddr: 0x1E04, symBinAddr: 0x2A54, symSize: 0x3C }
  - { offset: 0xFDEC, size: 0x8, addend: 0x0, symName: __RNCINvNvNtNtNtNtCsfvfooZQ3Axs_4core4iter6traits8iterator8Iterator8for_each4callRNtCs3cP53eQoTwO_11proc_macro25IdentNCINvMsi_NtCse1nGBsou5OW_5alloc3vecINtB1Y_3VecB1f_E14extend_trustedINtNtNtBc_8adapters3map3MapINtNtNtBe_5slice4iter4IterRNtNtCs6IAuOt8vWmF_3syn4data5FieldENCNvNtCs31ZvrkAUscI_11derive_more5utils12field_idents0EE0E0B4q_, symObjAddr: 0x1E40, symBinAddr: 0x2A90, symSize: 0x2C }
  - { offset: 0xFEA6, size: 0x8, addend: 0x0, symName: __RINvYINtNtCs6IAuOt8vWmF_3syn10punctuated4IterNtNtB8_4data5FieldENtNtNtNtCsfvfooZQ3Axs_4core4iter6traits8iterator8Iterator7collectINtNtCse1nGBsou5OW_5alloc3vec3VecRBH_EECs31ZvrkAUscI_11derive_more, symObjAddr: 0x1AFC, symBinAddr: 0x274C, symSize: 0x34 }
  - { offset: 0xFEE6, size: 0x8, addend: 0x0, symName: __RINvYINtNtNtCsfvfooZQ3Axs_4core3ops5range5RangejENtNtNtNtBa_4iter6traits8iterator8Iterator3mapNtCs3cP53eQoTwO_11proc_macro25IdentNCNvNtCs31ZvrkAUscI_11derive_more5utils13numbered_vars0EB29_, symObjAddr: 0x1B30, symBinAddr: 0x2780, symSize: 0x28 }
  - { offset: 0xFF53, size: 0x8, addend: 0x0, symName: __RINvYINtNtNtCsfvfooZQ3Axs_4core3ops5range5RangejENtNtNtNtBa_4iter6traits8iterator8Iterator4folduNCINvNtNtBR_8adapters3map8map_foldjNtCs3cP53eQoTwO_11proc_macro25IdentuNCNvNtCs31ZvrkAUscI_11derive_more5utils13numbered_vars0NCINvNvBL_8for_each4callB25_NCINvMsi_NtCse1nGBsou5OW_5alloc3vecINtB49_3VecB25_E14extend_trustedINtB1B_3MapB3_B2F_EE0E0E0EB2L_, symObjAddr: 0x1B58, symBinAddr: 0x27A8, symSize: 0xE0 }
  - { offset: 0xFFE3, size: 0x8, addend: 0x0, symName: __RINvYINtNtNtNtCsfvfooZQ3Axs_4core4iter8adapters3map3MapINtNtNtBc_3ops5range5RangejENCNvNtCs31ZvrkAUscI_11derive_more5utils13numbered_vars0ENtNtNtBa_6traits8iterator8Iterator7collectINtNtCse1nGBsou5OW_5alloc3vec3VecNtCs3cP53eQoTwO_11proc_macro25IdentEEB1p_, symObjAddr: 0x1C38, symBinAddr: 0x2888, symSize: 0x1C }
  - { offset: 0x10024, size: 0x8, addend: 0x0, symName: __RINvYINtNtNtNtCsfvfooZQ3Axs_4core4iter8adapters3map3MapINtNtNtBc_3ops5range5RangejENCNvNtCs31ZvrkAUscI_11derive_more5utils13numbered_vars0ENtNtNtBa_6traits8iterator8Iterator8for_eachNCINvMsi_NtCse1nGBsou5OW_5alloc3vecINtB33_3VecNtCs3cP53eQoTwO_11proc_macro25IdentE14extend_trustedB3_E0EB1p_, symObjAddr: 0x1C54, symBinAddr: 0x28A4, symSize: 0x34 }
  - { offset: 0x10090, size: 0x8, addend: 0x0, symName: __RINvYINtNtNtNtCsfvfooZQ3Axs_4core4iter8adapters3map3MapINtNtNtBc_5slice4iter4IterRNtNtCs6IAuOt8vWmF_3syn4data5FieldENCNvNtCs31ZvrkAUscI_11derive_more5utils12field_idents0ENtNtNtBa_6traits8iterator8Iterator7collectINtNtCse1nGBsou5OW_5alloc3vec3VecRNtCs3cP53eQoTwO_11proc_macro25IdentEEB1W_, symObjAddr: 0x1C88, symBinAddr: 0x28D8, symSize: 0x34 }
  - { offset: 0x100D0, size: 0x8, addend: 0x0, symName: __RINvYINtNtNtNtCsfvfooZQ3Axs_4core4iter8adapters3map3MapINtNtNtBc_5slice4iter4IterRNtNtCs6IAuOt8vWmF_3syn4data5FieldENCNvNtCs31ZvrkAUscI_11derive_more5utils12field_idents0ENtNtNtBa_6traits8iterator8Iterator8for_eachNCINvMsi_NtCse1nGBsou5OW_5alloc3vecINtB3z_3VecRNtCs3cP53eQoTwO_11proc_macro25IdentE14extend_trustedB3_E0EB1W_, symObjAddr: 0x1CBC, symBinAddr: 0x290C, symSize: 0x44 }
  - { offset: 0x1013B, size: 0x8, addend: 0x0, symName: __RNvYINtNtCs6IAuOt8vWmF_3syn10punctuated11PrivateIterNtNtB7_4data7VariantNtNtB7_5token5CommaENtNtNtNtCsfvfooZQ3Axs_4core4iter6traits8iterator8Iterator10advance_byCs31ZvrkAUscI_11derive_more, symObjAddr: 0x5288, symBinAddr: 0x5ED8, symSize: 0x134 }
  - { offset: 0x10291, size: 0x8, addend: 0x0, symName: __RNvYINtNtCs6IAuOt8vWmF_3syn10punctuated11PrivateIterNtNtB7_4data7VariantNtNtB7_5token5CommaENtNtNtNtCsfvfooZQ3Axs_4core4iter6traits8iterator8Iterator3nthCs31ZvrkAUscI_11derive_more, symObjAddr: 0x53BC, symBinAddr: 0x600C, symSize: 0x80 }
  - { offset: 0x1035D, size: 0x8, addend: 0x0, symName: __RNvYINtNtCs6IAuOt8vWmF_3syn10punctuated11PrivateIterNtNtB7_4data7VariantNtNtB7_5token5CommaENtNtNtNtCsfvfooZQ3Axs_4core4iter6traits8iterator8Iterator9size_hintCs31ZvrkAUscI_11derive_more, symObjAddr: 0x543C, symBinAddr: 0x608C, symSize: 0x34 }
  - { offset: 0x10392, size: 0x8, addend: 0x0, symName: __RNvYINtNtNtNtCsfvfooZQ3Axs_4core4iter7sources6repeat6RepeatRNtCs3cP53eQoTwO_11proc_macro25IdentENtNtNtB9_6traits8iterator8Iterator6by_refCs31ZvrkAUscI_11derive_more, symObjAddr: 0x5470, symBinAddr: 0x60C0, symSize: 0x14 }
  - { offset: 0x103D5, size: 0x8, addend: 0x0, symName: __RNvXNtNtNtCsfvfooZQ3Axs_4core4iter6traits7collectINtNtCs6IAuOt8vWmF_3syn10punctuated4IterNtNtBQ_4data5FieldENtB2_12IntoIterator9into_iterCs31ZvrkAUscI_11derive_more, symObjAddr: 0x35E4, symBinAddr: 0x4234, symSize: 0x1C }
  - { offset: 0x1040C, size: 0x8, addend: 0x0, symName: __RNvXNtNtNtCsfvfooZQ3Axs_4core4iter6traits7collectINtNtNtB6_8adapters3map3MapINtNtNtB8_3ops5range5RangejENCNvNtCs31ZvrkAUscI_11derive_more5utils13numbered_vars0ENtB2_12IntoIterator9into_iterB1K_, symObjAddr: 0x3600, symBinAddr: 0x4250, symSize: 0x18 }
  - { offset: 0x10443, size: 0x8, addend: 0x0, symName: __RNvXNtNtNtCsfvfooZQ3Axs_4core4iter6traits7collectINtNtNtB6_8adapters3map3MapINtNtNtB8_5slice4iter4IterRNtNtCs6IAuOt8vWmF_3syn4data5FieldENCNvNtCs31ZvrkAUscI_11derive_more5utils12field_idents0ENtB2_12IntoIterator9into_iterB2h_, symObjAddr: 0x3618, symBinAddr: 0x4268, symSize: 0x1C }
  - { offset: 0x1047A, size: 0x8, addend: 0x0, symName: __RNvXNtNtNtCsfvfooZQ3Axs_4core4iter6traits7collectINtNtNtB8_3ops5range5RangejENtB2_12IntoIterator9into_iterCs31ZvrkAUscI_11derive_more, symObjAddr: 0x3634, symBinAddr: 0x4284, symSize: 0x14 }
  - { offset: 0x104BD, size: 0x8, addend: 0x0, symName: __RNvYINtNtCs6IAuOt8vWmF_3syn10punctuated11PrivateIterNtNtB7_4data7VariantNtNtB7_5token5CommaENtNtNtNtCsfvfooZQ3Axs_4core4iter6traits10exact_size17ExactSizeIterator8is_emptyCs31ZvrkAUscI_11derive_more, symObjAddr: 0x50C0, symBinAddr: 0x5D10, symSize: 0x2C }
  - { offset: 0x104FE, size: 0x8, addend: 0x0, symName: __RNvYINtNtCs6IAuOt8vWmF_3syn10punctuated11PrivateIterNtNtB7_4data7VariantNtNtB7_5token5CommaENtNtNtNtCsfvfooZQ3Axs_4core4iter6traits12double_ended19DoubleEndedIterator15advance_back_byCs31ZvrkAUscI_11derive_more, symObjAddr: 0x50EC, symBinAddr: 0x5D3C, symSize: 0x134 }
  - { offset: 0x1064C, size: 0x8, addend: 0x0, symName: __RNvYINtNtCs6IAuOt8vWmF_3syn10punctuated11PrivateIterNtNtB7_4data7VariantNtNtB7_5token5CommaENtNtNtNtCsfvfooZQ3Axs_4core4iter6traits12double_ended19DoubleEndedIterator8nth_backCs31ZvrkAUscI_11derive_more, symObjAddr: 0x5220, symBinAddr: 0x5E70, symSize: 0x68 }
  - { offset: 0x106D7, size: 0x8, addend: 0x0, symName: __RNvXs3_NtNtCsfvfooZQ3Axs_4core4iter5rangeINtNtNtB9_3ops5range5RangejENtB5_17RangeIteratorImpl9spec_nextCs31ZvrkAUscI_11derive_more, symObjAddr: 0x387C, symBinAddr: 0x44CC, symSize: 0x94 }
  - { offset: 0x107C4, size: 0x8, addend: 0x0, symName: __RNvXs4_NtNtCsfvfooZQ3Axs_4core4iter5rangeINtNtNtB9_3ops5range5RangejENtNtNtB7_6traits8iterator8Iterator4nextCs31ZvrkAUscI_11derive_more, symObjAddr: 0x39C4, symBinAddr: 0x4614, symSize: 0x24 }
  - { offset: 0x107FB, size: 0x8, addend: 0x0, symName: __RNvXs4_NtNtCsfvfooZQ3Axs_4core4iter5rangeINtNtNtB9_3ops5range5RangejENtNtNtB7_6traits8iterator8Iterator9size_hintCs31ZvrkAUscI_11derive_more, symObjAddr: 0x39E8, symBinAddr: 0x4638, symSize: 0x88 }
  - { offset: 0x108AC, size: 0x8, addend: 0x0, symName: __RNvXsF_NtNtCsfvfooZQ3Axs_4core4iter5rangejNtB5_4Step13steps_betweenCs31ZvrkAUscI_11derive_more, symObjAddr: 0x4298, symBinAddr: 0x4EE8, symSize: 0xA4 }
  - { offset: 0x10907, size: 0x8, addend: 0x0, symName: __RNvXsF_NtNtCsfvfooZQ3Axs_4core4iter5rangejNtB5_4Step17forward_uncheckedCs31ZvrkAUscI_11derive_more, symObjAddr: 0x433C, symBinAddr: 0x4F8C, symSize: 0x48 }
  - { offset: 0x10966, size: 0x8, addend: 0x0, symName: __RNvXsF_NtNtCsfvfooZQ3Axs_4core4iter5rangejNtB5_4Step18backward_uncheckedCs31ZvrkAUscI_11derive_more, symObjAddr: 0x4384, symBinAddr: 0x4FD4, symSize: 0x48 }
  - { offset: 0x10AEC, size: 0x8, addend: 0x0, symName: __RNvNvMNtNtCsfvfooZQ3Axs_4core5alloc6layoutNtB4_6Layout25from_size_align_unchecked18precondition_checkCs31ZvrkAUscI_11derive_more, symObjAddr: 0x3148, symBinAddr: 0x3D98, symSize: 0x50 }
  - { offset: 0x1106D, size: 0x8, addend: 0x0, symName: __RNvXs1_NtCsfvfooZQ3Axs_4core7convertNtCs3cP53eQoTwO_11proc_macro211TokenStreamINtB5_4IntoNtCs9i5KxIbZ5ph_10proc_macro11TokenStreamE4intoCs31ZvrkAUscI_11derive_more, symObjAddr: 0x3830, symBinAddr: 0x4480, symSize: 0x14 }
  - { offset: 0x1115F, size: 0x8, addend: 0x0, symName: __RNvNvNtCsfvfooZQ3Axs_4core9ub_checks23maybe_is_nonoverlapping7runtimeCs31ZvrkAUscI_11derive_more, symObjAddr: 0x32D0, symBinAddr: 0x3F20, symSize: 0xD8 }
  - { offset: 0x11A39, size: 0x8, addend: 0x0, symName: __RNCNvXs1_NtNtNtCscOYdFFY2T5N_3std2io5error14repr_bitpackedNtB7_4ReprNtNtNtCsfvfooZQ3Axs_4core3ops4drop4Drop4drop0Cs31ZvrkAUscI_11derive_more, symObjAddr: 0x1EC4, symBinAddr: 0x2B14, symSize: 0x34 }
  - { offset: 0x11AEE, size: 0x8, addend: 0x0, symName: __RNvXs1_NtNtNtCscOYdFFY2T5N_3std2io5error14repr_bitpackedNtB5_4ReprNtNtNtCsfvfooZQ3Axs_4core3ops4drop4Drop4dropCs31ZvrkAUscI_11derive_more, symObjAddr: 0x3844, symBinAddr: 0x4494, symSize: 0x38 }
  - { offset: 0x11B17, size: 0x8, addend: 0x0, symName: __RINvNtNtNtCscOYdFFY2T5N_3std2io5error14repr_bitpacked11decode_reprINtNtCse1nGBsou5OW_5alloc5boxed3BoxNtB4_6CustomENCNvXs1_B2_NtB2_4ReprNtNtNtCsfvfooZQ3Axs_4core3ops4drop4Drop4drop0ECs31ZvrkAUscI_11derive_more, symObjAddr: 0xD10, symBinAddr: 0x1960, symSize: 0x230 }
  - { offset: 0x11DBC, size: 0x8, addend: 0x0, symName: __RNvNtNtNtCscOYdFFY2T5N_3std2io5error14repr_bitpacked14kind_from_primCs31ZvrkAUscI_11derive_more, symObjAddr: 0x2B00, symBinAddr: 0x3750, symSize: 0x608 }
  - { offset: 0x1281A, size: 0x8, addend: 0x0, symName: __RINvNvNtCscOYdFFY2T5N_3std9panicking3try7do_callINtNtNtCsfvfooZQ3Axs_4core5panic11unwind_safe16AssertUnwindSafeNCINvNtNtCs9i5KxIbZ5ph_10proc_macro6bridge6client10run_clientNtB1Q_11TokenStreamINtNtBR_6option6OptionB2K_ENCNCINvMs7_B1Q_INtB1Q_6ClientNtB1U_11TokenStreamB3X_E7expand1NvCs31ZvrkAUscI_11derive_more10add_deriveE00E0EuEB4v_, symObjAddr: 0xF54, symBinAddr: 0x1BA4, symSize: 0x50 }
  - { offset: 0x128E2, size: 0x8, addend: 0x0, symName: __RINvNvNtCscOYdFFY2T5N_3std9panicking3try7do_callINtNtNtCsfvfooZQ3Axs_4core5panic11unwind_safe16AssertUnwindSafeNCINvNtNtCs9i5KxIbZ5ph_10proc_macro6bridge6client10run_clientNtB1Q_11TokenStreamINtNtBR_6option6OptionB2K_ENCNCINvMs7_B1Q_INtB1Q_6ClientNtB1U_11TokenStreamB3X_E7expand1NvCs31ZvrkAUscI_11derive_more10sub_deriveE00E0EuEB4v_, symObjAddr: 0xFA4, symBinAddr: 0x1BF4, symSize: 0x50 }
  - { offset: 0x129AA, size: 0x8, addend: 0x0, symName: __RINvNvNtCscOYdFFY2T5N_3std9panicking3try7do_callINtNtNtCsfvfooZQ3Axs_4core5panic11unwind_safe16AssertUnwindSafeNCINvNtNtCs9i5KxIbZ5ph_10proc_macro6bridge6client10run_clientNtB1Q_11TokenStreamINtNtBR_6option6OptionB2K_ENCNCINvMs7_B1Q_INtB1Q_6ClientNtB1U_11TokenStreamB3X_E7expand1NvCs31ZvrkAUscI_11derive_more13bit_or_deriveE00E0EuEB4v_, symObjAddr: 0xFF4, symBinAddr: 0x1C44, symSize: 0x50 }
  - { offset: 0x12A72, size: 0x8, addend: 0x0, symName: __RINvNvNtCscOYdFFY2T5N_3std9panicking3try7do_callINtNtNtCsfvfooZQ3Axs_4core5panic11unwind_safe16AssertUnwindSafeNCINvNtNtCs9i5KxIbZ5ph_10proc_macro6bridge6client10run_clientNtB1Q_11TokenStreamINtNtBR_6option6OptionB2K_ENCNCINvMs7_B1Q_INtB1Q_6ClientNtB1U_11TokenStreamB3X_E7expand1NvCs31ZvrkAUscI_11derive_more14bit_and_deriveE00E0EuEB4v_, symObjAddr: 0x1044, symBinAddr: 0x1C94, symSize: 0x50 }
  - { offset: 0x12B3A, size: 0x8, addend: 0x0, symName: __RINvNvNtCscOYdFFY2T5N_3std9panicking3try7do_callINtNtNtCsfvfooZQ3Axs_4core5panic11unwind_safe16AssertUnwindSafeNCINvNtNtCs9i5KxIbZ5ph_10proc_macro6bridge6client10run_clientNtB1Q_11TokenStreamINtNtBR_6option6OptionB2K_ENCNCINvMs7_B1Q_INtB1Q_6ClientNtB1U_11TokenStreamB3X_E7expand1NvCs31ZvrkAUscI_11derive_more14bit_xor_deriveE00E0EuEB4v_, symObjAddr: 0x1094, symBinAddr: 0x1CE4, symSize: 0x50 }
  - { offset: 0x12C02, size: 0x8, addend: 0x0, symName: __RINvNvNtCscOYdFFY2T5N_3std9panicking3try7do_callINtNtNtCsfvfooZQ3Axs_4core5panic11unwind_safe16AssertUnwindSafeNCINvNtNtCs9i5KxIbZ5ph_10proc_macro6bridge6client10run_clientNtB1Q_11TokenStreamINtNtBR_6option6OptionB2K_ENCNCINvMs7_B1Q_INtB1Q_6ClientNtB1U_11TokenStreamB3X_E7expand1NvCs31ZvrkAUscI_11derive_more17add_assign_deriveE00E0EuEB4v_, symObjAddr: 0x10E4, symBinAddr: 0x1D34, symSize: 0x50 }
  - { offset: 0x12CCA, size: 0x8, addend: 0x0, symName: __RINvNvNtCscOYdFFY2T5N_3std9panicking3try7do_callINtNtNtCsfvfooZQ3Axs_4core5panic11unwind_safe16AssertUnwindSafeNCINvNtNtCs9i5KxIbZ5ph_10proc_macro6bridge6client10run_clientNtB1Q_11TokenStreamINtNtBR_6option6OptionB2K_ENCNCINvMs7_B1Q_INtB1Q_6ClientNtB1U_11TokenStreamB3X_E7expand1NvCs31ZvrkAUscI_11derive_more17sub_assign_deriveE00E0EuEB4v_, symObjAddr: 0x1134, symBinAddr: 0x1D84, symSize: 0x50 }
  - { offset: 0x12D92, size: 0x8, addend: 0x0, symName: __RINvNvNtCscOYdFFY2T5N_3std9panicking3try7do_callINtNtNtCsfvfooZQ3Axs_4core5panic11unwind_safe16AssertUnwindSafeNCINvNtNtCs9i5KxIbZ5ph_10proc_macro6bridge6client10run_clientNtB1Q_11TokenStreamINtNtBR_6option6OptionB2K_ENCNCINvMs7_B1Q_INtB1Q_6ClientNtB1U_11TokenStreamB3X_E7expand1NvCs31ZvrkAUscI_11derive_more20bit_or_assign_deriveE00E0EuEB4v_, symObjAddr: 0x1184, symBinAddr: 0x1DD4, symSize: 0x50 }
  - { offset: 0x12E5A, size: 0x8, addend: 0x0, symName: __RINvNvNtCscOYdFFY2T5N_3std9panicking3try7do_callINtNtNtCsfvfooZQ3Axs_4core5panic11unwind_safe16AssertUnwindSafeNCINvNtNtCs9i5KxIbZ5ph_10proc_macro6bridge6client10run_clientNtB1Q_11TokenStreamINtNtBR_6option6OptionB2K_ENCNCINvMs7_B1Q_INtB1Q_6ClientNtB1U_11TokenStreamB3X_E7expand1NvCs31ZvrkAUscI_11derive_more21bit_and_assign_deriveE00E0EuEB4v_, symObjAddr: 0x11D4, symBinAddr: 0x1E24, symSize: 0x50 }
  - { offset: 0x12F22, size: 0x8, addend: 0x0, symName: __RINvNvNtCscOYdFFY2T5N_3std9panicking3try7do_callINtNtNtCsfvfooZQ3Axs_4core5panic11unwind_safe16AssertUnwindSafeNCINvNtNtCs9i5KxIbZ5ph_10proc_macro6bridge6client10run_clientNtB1Q_11TokenStreamINtNtBR_6option6OptionB2K_ENCNCINvMs7_B1Q_INtB1Q_6ClientNtB1U_11TokenStreamB3X_E7expand1NvCs31ZvrkAUscI_11derive_more21bit_xor_assign_deriveE00E0EuEB4v_, symObjAddr: 0x1224, symBinAddr: 0x1E74, symSize: 0x50 }
  - { offset: 0x12FEA, size: 0x8, addend: 0x0, symName: __RINvNvNtCscOYdFFY2T5N_3std9panicking3try8do_catchINtNtNtCsfvfooZQ3Axs_4core5panic11unwind_safe16AssertUnwindSafeNCINvNtNtCs9i5KxIbZ5ph_10proc_macro6bridge6client10run_clientNtB1R_11TokenStreamINtNtBS_6option6OptionB2L_ENCNCINvMs7_B1R_INtB1R_6ClientNtB1V_11TokenStreamB3Y_E7expand1NvCs31ZvrkAUscI_11derive_more10add_deriveE00E0EuEB4w_, symObjAddr: 0x1274, symBinAddr: 0x1EC4, symSize: 0x70 }
  - { offset: 0x1307F, size: 0x8, addend: 0x0, symName: __RINvNvNtCscOYdFFY2T5N_3std9panicking3try8do_catchINtNtNtCsfvfooZQ3Axs_4core5panic11unwind_safe16AssertUnwindSafeNCINvNtNtCs9i5KxIbZ5ph_10proc_macro6bridge6client10run_clientNtB1R_11TokenStreamINtNtBS_6option6OptionB2L_ENCNCINvMs7_B1R_INtB1R_6ClientNtB1V_11TokenStreamB3Y_E7expand1NvCs31ZvrkAUscI_11derive_more10sub_deriveE00E0EuEB4w_, symObjAddr: 0x12E4, symBinAddr: 0x1F34, symSize: 0x70 }
  - { offset: 0x13114, size: 0x8, addend: 0x0, symName: __RINvNvNtCscOYdFFY2T5N_3std9panicking3try8do_catchINtNtNtCsfvfooZQ3Axs_4core5panic11unwind_safe16AssertUnwindSafeNCINvNtNtCs9i5KxIbZ5ph_10proc_macro6bridge6client10run_clientNtB1R_11TokenStreamINtNtBS_6option6OptionB2L_ENCNCINvMs7_B1R_INtB1R_6ClientNtB1V_11TokenStreamB3Y_E7expand1NvCs31ZvrkAUscI_11derive_more13bit_or_deriveE00E0EuEB4w_, symObjAddr: 0x1354, symBinAddr: 0x1FA4, symSize: 0x70 }
  - { offset: 0x131A9, size: 0x8, addend: 0x0, symName: __RINvNvNtCscOYdFFY2T5N_3std9panicking3try8do_catchINtNtNtCsfvfooZQ3Axs_4core5panic11unwind_safe16AssertUnwindSafeNCINvNtNtCs9i5KxIbZ5ph_10proc_macro6bridge6client10run_clientNtB1R_11TokenStreamINtNtBS_6option6OptionB2L_ENCNCINvMs7_B1R_INtB1R_6ClientNtB1V_11TokenStreamB3Y_E7expand1NvCs31ZvrkAUscI_11derive_more14bit_and_deriveE00E0EuEB4w_, symObjAddr: 0x13C4, symBinAddr: 0x2014, symSize: 0x70 }
  - { offset: 0x1323E, size: 0x8, addend: 0x0, symName: __RINvNvNtCscOYdFFY2T5N_3std9panicking3try8do_catchINtNtNtCsfvfooZQ3Axs_4core5panic11unwind_safe16AssertUnwindSafeNCINvNtNtCs9i5KxIbZ5ph_10proc_macro6bridge6client10run_clientNtB1R_11TokenStreamINtNtBS_6option6OptionB2L_ENCNCINvMs7_B1R_INtB1R_6ClientNtB1V_11TokenStreamB3Y_E7expand1NvCs31ZvrkAUscI_11derive_more14bit_xor_deriveE00E0EuEB4w_, symObjAddr: 0x1434, symBinAddr: 0x2084, symSize: 0x70 }
  - { offset: 0x132D3, size: 0x8, addend: 0x0, symName: __RINvNvNtCscOYdFFY2T5N_3std9panicking3try8do_catchINtNtNtCsfvfooZQ3Axs_4core5panic11unwind_safe16AssertUnwindSafeNCINvNtNtCs9i5KxIbZ5ph_10proc_macro6bridge6client10run_clientNtB1R_11TokenStreamINtNtBS_6option6OptionB2L_ENCNCINvMs7_B1R_INtB1R_6ClientNtB1V_11TokenStreamB3Y_E7expand1NvCs31ZvrkAUscI_11derive_more17add_assign_deriveE00E0EuEB4w_, symObjAddr: 0x14A4, symBinAddr: 0x20F4, symSize: 0x70 }
  - { offset: 0x13368, size: 0x8, addend: 0x0, symName: __RINvNvNtCscOYdFFY2T5N_3std9panicking3try8do_catchINtNtNtCsfvfooZQ3Axs_4core5panic11unwind_safe16AssertUnwindSafeNCINvNtNtCs9i5KxIbZ5ph_10proc_macro6bridge6client10run_clientNtB1R_11TokenStreamINtNtBS_6option6OptionB2L_ENCNCINvMs7_B1R_INtB1R_6ClientNtB1V_11TokenStreamB3Y_E7expand1NvCs31ZvrkAUscI_11derive_more17sub_assign_deriveE00E0EuEB4w_, symObjAddr: 0x1514, symBinAddr: 0x2164, symSize: 0x70 }
  - { offset: 0x133FD, size: 0x8, addend: 0x0, symName: __RINvNvNtCscOYdFFY2T5N_3std9panicking3try8do_catchINtNtNtCsfvfooZQ3Axs_4core5panic11unwind_safe16AssertUnwindSafeNCINvNtNtCs9i5KxIbZ5ph_10proc_macro6bridge6client10run_clientNtB1R_11TokenStreamINtNtBS_6option6OptionB2L_ENCNCINvMs7_B1R_INtB1R_6ClientNtB1V_11TokenStreamB3Y_E7expand1NvCs31ZvrkAUscI_11derive_more20bit_or_assign_deriveE00E0EuEB4w_, symObjAddr: 0x1584, symBinAddr: 0x21D4, symSize: 0x70 }
  - { offset: 0x13492, size: 0x8, addend: 0x0, symName: __RINvNvNtCscOYdFFY2T5N_3std9panicking3try8do_catchINtNtNtCsfvfooZQ3Axs_4core5panic11unwind_safe16AssertUnwindSafeNCINvNtNtCs9i5KxIbZ5ph_10proc_macro6bridge6client10run_clientNtB1R_11TokenStreamINtNtBS_6option6OptionB2L_ENCNCINvMs7_B1R_INtB1R_6ClientNtB1V_11TokenStreamB3Y_E7expand1NvCs31ZvrkAUscI_11derive_more21bit_and_assign_deriveE00E0EuEB4w_, symObjAddr: 0x15F4, symBinAddr: 0x2244, symSize: 0x70 }
  - { offset: 0x13527, size: 0x8, addend: 0x0, symName: __RINvNvNtCscOYdFFY2T5N_3std9panicking3try8do_catchINtNtNtCsfvfooZQ3Axs_4core5panic11unwind_safe16AssertUnwindSafeNCINvNtNtCs9i5KxIbZ5ph_10proc_macro6bridge6client10run_clientNtB1R_11TokenStreamINtNtBS_6option6OptionB2L_ENCNCINvMs7_B1R_INtB1R_6ClientNtB1V_11TokenStreamB3Y_E7expand1NvCs31ZvrkAUscI_11derive_more21bit_xor_assign_deriveE00E0EuEB4w_, symObjAddr: 0x1664, symBinAddr: 0x22B4, symSize: 0x70 }
  - { offset: 0x13965, size: 0x8, addend: 0x0, symName: __RINvMs3_NtNtCs9i5KxIbZ5ph_10proc_macro6bridge6bufferNtB6_6Buffer17extend_from_arrayKj4_ECs31ZvrkAUscI_11derive_more, symObjAddr: 0x128, symBinAddr: 0xD78, symSize: 0x16C }
  - { offset: 0x13B2B, size: 0x8, addend: 0x0, symName: __RINvMs3_NtNtCs9i5KxIbZ5ph_10proc_macro6bridge6bufferNtB6_6Buffer17extend_from_arrayKj8_ECs31ZvrkAUscI_11derive_more, symObjAddr: 0x294, symBinAddr: 0xEE4, symSize: 0x16C }
  - { offset: 0x141DF, size: 0x8, addend: 0x0, symName: __RNCNvNtCs31ZvrkAUscI_11derive_more5utils13numbered_vars0B5_, symObjAddr: 0x5598, symBinAddr: 0x61E8, symSize: 0x114 }
  - { offset: 0x14247, size: 0x8, addend: 0x0, symName: __RNCNvNtCs31ZvrkAUscI_11derive_more5utils12field_idents0B5_, symObjAddr: 0x56F4, symBinAddr: 0x6344, symSize: 0x5C }
  - { offset: 0x1427E, size: 0x8, addend: 0x0, symName: __RNvNtCs31ZvrkAUscI_11derive_more5utils13numbered_vars, symObjAddr: 0x5530, symBinAddr: 0x6180, symSize: 0x68 }
  - { offset: 0x142B8, size: 0x8, addend: 0x0, symName: __RNvNtCs31ZvrkAUscI_11derive_more5utils12field_idents, symObjAddr: 0x56AC, symBinAddr: 0x62FC, symSize: 0x48 }
  - { offset: 0x142E4, size: 0x8, addend: 0x0, symName: __RNvNtCs31ZvrkAUscI_11derive_more5utils36add_extra_type_param_bound_op_output, symObjAddr: 0x5750, symBinAddr: 0x63A0, symSize: 0x28C }
  - { offset: 0x143AA, size: 0x8, addend: 0x0, symName: __RNvNtCs31ZvrkAUscI_11derive_more5utils27add_extra_ty_param_bound_op, symObjAddr: 0x59DC, symBinAddr: 0x662C, symSize: 0x120 }
  - { offset: 0x143F9, size: 0x8, addend: 0x0, symName: __RNvNtCs31ZvrkAUscI_11derive_more5utils24add_extra_ty_param_bound, symObjAddr: 0x5AFC, symBinAddr: 0x674C, symSize: 0x238 }
  - { offset: 0x144A1, size: 0x8, addend: 0x0, symName: __RNvNtCs31ZvrkAUscI_11derive_more5utils14unnamed_to_vec, symObjAddr: 0x5D34, symBinAddr: 0x6984, symSize: 0x40 }
  - { offset: 0x144CD, size: 0x8, addend: 0x0, symName: __RNvNtCs31ZvrkAUscI_11derive_more5utils12named_to_vec, symObjAddr: 0x5D74, symBinAddr: 0x69C4, symSize: 0x40 }
  - { offset: 0x144FF, size: 0x8, addend: 0x0, symName: __RNvNtCs31ZvrkAUscI_11derive_more11add_helpers11tuple_exprs, symObjAddr: 0x5DB4, symBinAddr: 0x6A04, symSize: 0x280 }
  - { offset: 0x145EB, size: 0x8, addend: 0x0, symName: __RNvNtCs31ZvrkAUscI_11derive_more11add_helpers12struct_exprs, symObjAddr: 0x6034, symBinAddr: 0x6C84, symSize: 0x2B8 }
  - { offset: 0x146FB, size: 0x8, addend: 0x0, symName: __RNvXCs31ZvrkAUscI_11derive_moreNtCs3cP53eQoTwO_11proc_macro211TokenStreamNtB2_6Output7process, symObjAddr: 0x62EC, symBinAddr: 0x6F3C, symSize: 0x2C }
  - { offset: 0x147F0, size: 0x8, addend: 0x0, symName: __RNvMNtCs6IAuOt8vWmF_3syn10punctuatedINtB2_10PunctuatedNtNtB4_4data7VariantNtNtB4_5token5CommaE3lenCs31ZvrkAUscI_11derive_more, symObjAddr: 0x1F88, symBinAddr: 0x2BD8, symSize: 0xA0 }
  - { offset: 0x14879, size: 0x8, addend: 0x0, symName: __RNvMNtCs6IAuOt8vWmF_3syn10punctuatedINtB2_10PunctuatedNtNtB4_4data7VariantNtNtB4_5token5CommaE4iterCs31ZvrkAUscI_11derive_more, symObjAddr: 0x2028, symBinAddr: 0x2C78, symSize: 0xC8 }
  - { offset: 0x148D7, size: 0x8, addend: 0x0, symName: __RNvMNtCs6IAuOt8vWmF_3syn10punctuatedINtB2_10PunctuatedNtNtB4_8generics14TypeParamBoundNtNtB4_5token4PlusE4pushCs31ZvrkAUscI_11derive_more, symObjAddr: 0x20F0, symBinAddr: 0x2D40, symSize: 0x11C }
  - { offset: 0x14A6A, size: 0x8, addend: 0x0, symName: __RNvMNtCse1nGBsou5OW_5alloc5allocNtB2_6Global10alloc_implCs31ZvrkAUscI_11derive_more, symObjAddr: 0x220C, symBinAddr: 0x2E5C, symSize: 0x194 }
  - { offset: 0x14E40, size: 0x8, addend: 0x0, symName: __RNvMNtCse1nGBsou5OW_5alloc6stringNtB2_6String6as_strCs31ZvrkAUscI_11derive_more, symObjAddr: 0x23A0, symBinAddr: 0x2FF0, symSize: 0x70 }
  - { offset: 0x14FB9, size: 0x8, addend: 0x0, symName: __RNvMs0_NtCse1nGBsou5OW_5alloc7raw_vecINtB5_6RawVecNtCs3cP53eQoTwO_11proc_macro211TokenStreamE8grow_oneCs31ZvrkAUscI_11derive_more, symObjAddr: 0x2554, symBinAddr: 0x31A4, symSize: 0x94 }
  - { offset: 0x15034, size: 0x8, addend: 0x0, symName: __RNvMs3_NtNtCs9i5KxIbZ5ph_10proc_macro6bridge6bufferNtB5_6Buffer17extend_from_sliceCs31ZvrkAUscI_11derive_more, symObjAddr: 0x25E8, symBinAddr: 0x3238, symSize: 0x164 }
  - { offset: 0x151F0, size: 0x8, addend: 0x0, symName: __RNvMs3_NtNtCs9i5KxIbZ5ph_10proc_macro6bridge6bufferNtB5_6Buffer4pushCs31ZvrkAUscI_11derive_more, symObjAddr: 0x274C, symBinAddr: 0x339C, symSize: 0x134 }
  - { offset: 0x154F6, size: 0x8, addend: 0x0, symName: __RNvXNtCs2cqEZUIJimJ_5quote9to_tokensRNtCs3cP53eQoTwO_11proc_macro211TokenStreamNtB2_8ToTokens9to_tokensCs31ZvrkAUscI_11derive_more, symObjAddr: 0x3510, symBinAddr: 0x4160, symSize: 0x40 }
  - { offset: 0x15535, size: 0x8, addend: 0x0, symName: __RNvXNtCs2cqEZUIJimJ_5quote9to_tokensRNtCs3cP53eQoTwO_11proc_macro25IdentNtB2_8ToTokens9to_tokensCs31ZvrkAUscI_11derive_more, symObjAddr: 0x3550, symBinAddr: 0x41A0, symSize: 0x40 }
  - { offset: 0x15574, size: 0x8, addend: 0x0, symName: __RNvXNtCs2cqEZUIJimJ_5quote9to_tokensRRNtCs3cP53eQoTwO_11proc_macro25IdentNtB2_8ToTokens9to_tokensCs31ZvrkAUscI_11derive_more, symObjAddr: 0x3590, symBinAddr: 0x41E0, symSize: 0x40 }
  - { offset: 0x155BF, size: 0x8, addend: 0x0, symName: __RNvXs4_NtCs2cqEZUIJimJ_5quote9___privateINtB5_9RepInterpRNtCs3cP53eQoTwO_11proc_macro211TokenStreamENtNtB7_9to_tokens8ToTokens9to_tokensCs31ZvrkAUscI_11derive_more, symObjAddr: 0x3910, symBinAddr: 0x4560, symSize: 0x3C }
  - { offset: 0x155FE, size: 0x8, addend: 0x0, symName: __RNvXs4_NtCs2cqEZUIJimJ_5quote9___privateINtB5_9RepInterpRNtCs3cP53eQoTwO_11proc_macro25IdentENtNtB7_9to_tokens8ToTokens9to_tokensCs31ZvrkAUscI_11derive_more, symObjAddr: 0x394C, symBinAddr: 0x459C, symSize: 0x3C }
  - { offset: 0x1563D, size: 0x8, addend: 0x0, symName: __RNvXs4_NtCs2cqEZUIJimJ_5quote9___privateINtB5_9RepInterpRRNtCs3cP53eQoTwO_11proc_macro25IdentENtNtB7_9to_tokens8ToTokens9to_tokensCs31ZvrkAUscI_11derive_more, symObjAddr: 0x3988, symBinAddr: 0x45D8, symSize: 0x3C }
  - { offset: 0x15687, size: 0x8, addend: 0x0, symName: __RNvYQINtNtNtNtCsfvfooZQ3Axs_4core4iter7sources6repeat6RepeatRNtCs3cP53eQoTwO_11proc_macro25IdentENtNtNtCs2cqEZUIJimJ_5quote9___private3ext14RepIteratorExt15quote_into_iterCs31ZvrkAUscI_11derive_more, symObjAddr: 0x550C, symBinAddr: 0x615C, symSize: 0x24 }
  - { offset: 0x164A8, size: 0x8, addend: 0x0, symName: __RINvNtNtCs9i5KxIbZ5ph_10proc_macro6bridge6client10run_clientNtB2_11TokenStreamINtNtCsfvfooZQ3Axs_4core6option6OptionBW_ENCNCINvMs7_B2_INtB2_6ClientNtB6_11TokenStreamB2l_E7expand1NvCs31ZvrkAUscI_11derive_more10add_deriveE00EB2S_, symObjAddr: 0x0, symBinAddr: 0x6F68, symSize: 0x21C }
  - { offset: 0x17DC5, size: 0x8, addend: 0x0, symName: __RNCINvNtNtCs9i5KxIbZ5ph_10proc_macro6bridge6client10run_clientNtB4_11TokenStreamINtNtCsfvfooZQ3Axs_4core6option6OptionBY_ENCNCINvMs7_B4_INtB4_6ClientNtB8_11TokenStreamB2n_E7expand1NvCs31ZvrkAUscI_11derive_more10add_deriveE00E0B2U_, symObjAddr: 0x16F8, symBinAddr: 0x8660, symSize: 0x324 }
  - { offset: 0x18028, size: 0x8, addend: 0x0, symName: __RNCINvNtNtCs9i5KxIbZ5ph_10proc_macro6bridge6client10run_clientNtB4_11TokenStreamINtNtCsfvfooZQ3Axs_4core6option6OptionBY_ENCNCINvMs7_B4_INtB4_6ClientNtB8_11TokenStreamB2n_E7expand1NvCs31ZvrkAUscI_11derive_more10sub_deriveE00E0B2U_, symObjAddr: 0x1A1C, symBinAddr: 0x8984, symSize: 0x324 }
  - { offset: 0x1828B, size: 0x8, addend: 0x0, symName: __RNCINvNtNtCs9i5KxIbZ5ph_10proc_macro6bridge6client10run_clientNtB4_11TokenStreamINtNtCsfvfooZQ3Axs_4core6option6OptionBY_ENCNCINvMs7_B4_INtB4_6ClientNtB8_11TokenStreamB2n_E7expand1NvCs31ZvrkAUscI_11derive_more13bit_or_deriveE00E0B2U_, symObjAddr: 0x1D40, symBinAddr: 0x8CA8, symSize: 0x324 }
  - { offset: 0x184EE, size: 0x8, addend: 0x0, symName: __RNCINvNtNtCs9i5KxIbZ5ph_10proc_macro6bridge6client10run_clientNtB4_11TokenStreamINtNtCsfvfooZQ3Axs_4core6option6OptionBY_ENCNCINvMs7_B4_INtB4_6ClientNtB8_11TokenStreamB2n_E7expand1NvCs31ZvrkAUscI_11derive_more14bit_and_deriveE00E0B2U_, symObjAddr: 0x2064, symBinAddr: 0x8FCC, symSize: 0x324 }
  - { offset: 0x18751, size: 0x8, addend: 0x0, symName: __RNCINvNtNtCs9i5KxIbZ5ph_10proc_macro6bridge6client10run_clientNtB4_11TokenStreamINtNtCsfvfooZQ3Axs_4core6option6OptionBY_ENCNCINvMs7_B4_INtB4_6ClientNtB8_11TokenStreamB2n_E7expand1NvCs31ZvrkAUscI_11derive_more14bit_xor_deriveE00E0B2U_, symObjAddr: 0x2388, symBinAddr: 0x92F0, symSize: 0x324 }
  - { offset: 0x189B4, size: 0x8, addend: 0x0, symName: __RNCINvNtNtCs9i5KxIbZ5ph_10proc_macro6bridge6client10run_clientNtB4_11TokenStreamINtNtCsfvfooZQ3Axs_4core6option6OptionBY_ENCNCINvMs7_B4_INtB4_6ClientNtB8_11TokenStreamB2n_E7expand1NvCs31ZvrkAUscI_11derive_more17add_assign_deriveE00E0B2U_, symObjAddr: 0x26AC, symBinAddr: 0x9614, symSize: 0x324 }
  - { offset: 0x18C17, size: 0x8, addend: 0x0, symName: __RNCINvNtNtCs9i5KxIbZ5ph_10proc_macro6bridge6client10run_clientNtB4_11TokenStreamINtNtCsfvfooZQ3Axs_4core6option6OptionBY_ENCNCINvMs7_B4_INtB4_6ClientNtB8_11TokenStreamB2n_E7expand1NvCs31ZvrkAUscI_11derive_more17sub_assign_deriveE00E0B2U_, symObjAddr: 0x29D0, symBinAddr: 0x9938, symSize: 0x324 }
  - { offset: 0x18E7A, size: 0x8, addend: 0x0, symName: __RNCINvNtNtCs9i5KxIbZ5ph_10proc_macro6bridge6client10run_clientNtB4_11TokenStreamINtNtCsfvfooZQ3Axs_4core6option6OptionBY_ENCNCINvMs7_B4_INtB4_6ClientNtB8_11TokenStreamB2n_E7expand1NvCs31ZvrkAUscI_11derive_more20bit_or_assign_deriveE00E0B2U_, symObjAddr: 0x2CF4, symBinAddr: 0x9C5C, symSize: 0x324 }
  - { offset: 0x190DD, size: 0x8, addend: 0x0, symName: __RNCINvNtNtCs9i5KxIbZ5ph_10proc_macro6bridge6client10run_clientNtB4_11TokenStreamINtNtCsfvfooZQ3Axs_4core6option6OptionBY_ENCNCINvMs7_B4_INtB4_6ClientNtB8_11TokenStreamB2n_E7expand1NvCs31ZvrkAUscI_11derive_more21bit_and_assign_deriveE00E0B2U_, symObjAddr: 0x3018, symBinAddr: 0x9F80, symSize: 0x324 }
  - { offset: 0x19340, size: 0x8, addend: 0x0, symName: __RNCINvNtNtCs9i5KxIbZ5ph_10proc_macro6bridge6client10run_clientNtB4_11TokenStreamINtNtCsfvfooZQ3Axs_4core6option6OptionBY_ENCNCINvMs7_B4_INtB4_6ClientNtB8_11TokenStreamB2n_E7expand1NvCs31ZvrkAUscI_11derive_more21bit_xor_assign_deriveE00E0B2U_, symObjAddr: 0x333C, symBinAddr: 0xA2A4, symSize: 0x324 }
  - { offset: 0x195A8, size: 0x8, addend: 0x0, symName: __RNCNCINvNtNtCs9i5KxIbZ5ph_10proc_macro6bridge6client10run_clientNtB6_11TokenStreamINtNtCsfvfooZQ3Axs_4core6option6OptionB10_ENCNCINvMs7_B6_INtB6_6ClientNtBa_11TokenStreamB2q_E7expand1NvCs31ZvrkAUscI_11derive_more10add_deriveE00E00B2X_, symObjAddr: 0x3840, symBinAddr: 0xA7A8, symSize: 0x28 }
  - { offset: 0x19602, size: 0x8, addend: 0x0, symName: __RNCNCINvNtNtCs9i5KxIbZ5ph_10proc_macro6bridge6client10run_clientNtB6_11TokenStreamINtNtCsfvfooZQ3Axs_4core6option6OptionB10_ENCNCINvMs7_B6_INtB6_6ClientNtBa_11TokenStreamB2q_E7expand1NvCs31ZvrkAUscI_11derive_more10sub_deriveE00E00B2X_, symObjAddr: 0x3868, symBinAddr: 0xA7D0, symSize: 0x28 }
  - { offset: 0x1965C, size: 0x8, addend: 0x0, symName: __RNCNCINvNtNtCs9i5KxIbZ5ph_10proc_macro6bridge6client10run_clientNtB6_11TokenStreamINtNtCsfvfooZQ3Axs_4core6option6OptionB10_ENCNCINvMs7_B6_INtB6_6ClientNtBa_11TokenStreamB2q_E7expand1NvCs31ZvrkAUscI_11derive_more13bit_or_deriveE00E00B2X_, symObjAddr: 0x3890, symBinAddr: 0xA7F8, symSize: 0x28 }
  - { offset: 0x196B6, size: 0x8, addend: 0x0, symName: __RNCNCINvNtNtCs9i5KxIbZ5ph_10proc_macro6bridge6client10run_clientNtB6_11TokenStreamINtNtCsfvfooZQ3Axs_4core6option6OptionB10_ENCNCINvMs7_B6_INtB6_6ClientNtBa_11TokenStreamB2q_E7expand1NvCs31ZvrkAUscI_11derive_more14bit_and_deriveE00E00B2X_, symObjAddr: 0x38B8, symBinAddr: 0xA820, symSize: 0x28 }
  - { offset: 0x19710, size: 0x8, addend: 0x0, symName: __RNCNCINvNtNtCs9i5KxIbZ5ph_10proc_macro6bridge6client10run_clientNtB6_11TokenStreamINtNtCsfvfooZQ3Axs_4core6option6OptionB10_ENCNCINvMs7_B6_INtB6_6ClientNtBa_11TokenStreamB2q_E7expand1NvCs31ZvrkAUscI_11derive_more14bit_xor_deriveE00E00B2X_, symObjAddr: 0x38E0, symBinAddr: 0xA848, symSize: 0x28 }
  - { offset: 0x1976A, size: 0x8, addend: 0x0, symName: __RNCNCINvNtNtCs9i5KxIbZ5ph_10proc_macro6bridge6client10run_clientNtB6_11TokenStreamINtNtCsfvfooZQ3Axs_4core6option6OptionB10_ENCNCINvMs7_B6_INtB6_6ClientNtBa_11TokenStreamB2q_E7expand1NvCs31ZvrkAUscI_11derive_more17add_assign_deriveE00E00B2X_, symObjAddr: 0x3908, symBinAddr: 0xA870, symSize: 0x28 }
  - { offset: 0x197C4, size: 0x8, addend: 0x0, symName: __RNCNCINvNtNtCs9i5KxIbZ5ph_10proc_macro6bridge6client10run_clientNtB6_11TokenStreamINtNtCsfvfooZQ3Axs_4core6option6OptionB10_ENCNCINvMs7_B6_INtB6_6ClientNtBa_11TokenStreamB2q_E7expand1NvCs31ZvrkAUscI_11derive_more17sub_assign_deriveE00E00B2X_, symObjAddr: 0x3930, symBinAddr: 0xA898, symSize: 0x28 }
  - { offset: 0x1981E, size: 0x8, addend: 0x0, symName: __RNCNCINvNtNtCs9i5KxIbZ5ph_10proc_macro6bridge6client10run_clientNtB6_11TokenStreamINtNtCsfvfooZQ3Axs_4core6option6OptionB10_ENCNCINvMs7_B6_INtB6_6ClientNtBa_11TokenStreamB2q_E7expand1NvCs31ZvrkAUscI_11derive_more20bit_or_assign_deriveE00E00B2X_, symObjAddr: 0x3958, symBinAddr: 0xA8C0, symSize: 0x28 }
  - { offset: 0x19878, size: 0x8, addend: 0x0, symName: __RNCNCINvNtNtCs9i5KxIbZ5ph_10proc_macro6bridge6client10run_clientNtB6_11TokenStreamINtNtCsfvfooZQ3Axs_4core6option6OptionB10_ENCNCINvMs7_B6_INtB6_6ClientNtBa_11TokenStreamB2q_E7expand1NvCs31ZvrkAUscI_11derive_more21bit_and_assign_deriveE00E00B2X_, symObjAddr: 0x3980, symBinAddr: 0xA8E8, symSize: 0x28 }
  - { offset: 0x198D2, size: 0x8, addend: 0x0, symName: __RNCNCINvNtNtCs9i5KxIbZ5ph_10proc_macro6bridge6client10run_clientNtB6_11TokenStreamINtNtCsfvfooZQ3Axs_4core6option6OptionB10_ENCNCINvMs7_B6_INtB6_6ClientNtBa_11TokenStreamB2q_E7expand1NvCs31ZvrkAUscI_11derive_more21bit_xor_assign_deriveE00E00B2X_, symObjAddr: 0x39A8, symBinAddr: 0xA910, symSize: 0x28 }
  - { offset: 0x199FB, size: 0x8, addend: 0x0, symName: __RNCNCINvMs7_NtNtCs9i5KxIbZ5ph_10proc_macro6bridge6clientINtBa_6ClientNtBe_11TokenStreamB15_E7expand1NvCs31ZvrkAUscI_11derive_more10add_deriveE00B1C_, symObjAddr: 0x3660, symBinAddr: 0xA5C8, symSize: 0x30 }
  - { offset: 0x19A43, size: 0x8, addend: 0x0, symName: __RNCNCINvMs7_NtNtCs9i5KxIbZ5ph_10proc_macro6bridge6clientINtBa_6ClientNtBe_11TokenStreamB15_E7expand1NvCs31ZvrkAUscI_11derive_more10sub_deriveE00B1C_, symObjAddr: 0x3690, symBinAddr: 0xA5F8, symSize: 0x30 }
  - { offset: 0x19A8B, size: 0x8, addend: 0x0, symName: __RNCNCINvMs7_NtNtCs9i5KxIbZ5ph_10proc_macro6bridge6clientINtBa_6ClientNtBe_11TokenStreamB15_E7expand1NvCs31ZvrkAUscI_11derive_more13bit_or_deriveE00B1C_, symObjAddr: 0x36C0, symBinAddr: 0xA628, symSize: 0x30 }
  - { offset: 0x19AD3, size: 0x8, addend: 0x0, symName: __RNCNCINvMs7_NtNtCs9i5KxIbZ5ph_10proc_macro6bridge6clientINtBa_6ClientNtBe_11TokenStreamB15_E7expand1NvCs31ZvrkAUscI_11derive_more14bit_and_deriveE00B1C_, symObjAddr: 0x36F0, symBinAddr: 0xA658, symSize: 0x30 }
  - { offset: 0x19B1B, size: 0x8, addend: 0x0, symName: __RNCNCINvMs7_NtNtCs9i5KxIbZ5ph_10proc_macro6bridge6clientINtBa_6ClientNtBe_11TokenStreamB15_E7expand1NvCs31ZvrkAUscI_11derive_more14bit_xor_deriveE00B1C_, symObjAddr: 0x3720, symBinAddr: 0xA688, symSize: 0x30 }
  - { offset: 0x19B63, size: 0x8, addend: 0x0, symName: __RNCNCINvMs7_NtNtCs9i5KxIbZ5ph_10proc_macro6bridge6clientINtBa_6ClientNtBe_11TokenStreamB15_E7expand1NvCs31ZvrkAUscI_11derive_more17add_assign_deriveE00B1C_, symObjAddr: 0x3750, symBinAddr: 0xA6B8, symSize: 0x30 }
  - { offset: 0x19BAB, size: 0x8, addend: 0x0, symName: __RNCNCINvMs7_NtNtCs9i5KxIbZ5ph_10proc_macro6bridge6clientINtBa_6ClientNtBe_11TokenStreamB15_E7expand1NvCs31ZvrkAUscI_11derive_more17sub_assign_deriveE00B1C_, symObjAddr: 0x3780, symBinAddr: 0xA6E8, symSize: 0x30 }
  - { offset: 0x19BF3, size: 0x8, addend: 0x0, symName: __RNCNCINvMs7_NtNtCs9i5KxIbZ5ph_10proc_macro6bridge6clientINtBa_6ClientNtBe_11TokenStreamB15_E7expand1NvCs31ZvrkAUscI_11derive_more20bit_or_assign_deriveE00B1C_, symObjAddr: 0x37B0, symBinAddr: 0xA718, symSize: 0x30 }
  - { offset: 0x19C3B, size: 0x8, addend: 0x0, symName: __RNCNCINvMs7_NtNtCs9i5KxIbZ5ph_10proc_macro6bridge6clientINtBa_6ClientNtBe_11TokenStreamB15_E7expand1NvCs31ZvrkAUscI_11derive_more21bit_and_assign_deriveE00B1C_, symObjAddr: 0x37E0, symBinAddr: 0xA748, symSize: 0x30 }
  - { offset: 0x19C83, size: 0x8, addend: 0x0, symName: __RNCNCINvMs7_NtNtCs9i5KxIbZ5ph_10proc_macro6bridge6clientINtBa_6ClientNtBe_11TokenStreamB15_E7expand1NvCs31ZvrkAUscI_11derive_more21bit_xor_assign_deriveE00B1C_, symObjAddr: 0x3810, symBinAddr: 0xA778, symSize: 0x30 }
  - { offset: 0x19CCC, size: 0x8, addend: 0x0, symName: __RNCINvMs7_NtNtCs9i5KxIbZ5ph_10proc_macro6bridge6clientINtB8_6ClientNtBc_11TokenStreamB13_E7expand1NvCs31ZvrkAUscI_11derive_more10add_deriveE0B1A_, symObjAddr: 0x1518, symBinAddr: 0x8480, symSize: 0x30 }
  - { offset: 0x19D15, size: 0x8, addend: 0x0, symName: __RNCINvMs7_NtNtCs9i5KxIbZ5ph_10proc_macro6bridge6clientINtB8_6ClientNtBc_11TokenStreamB13_E7expand1NvCs31ZvrkAUscI_11derive_more10sub_deriveE0B1A_, symObjAddr: 0x1548, symBinAddr: 0x84B0, symSize: 0x30 }
  - { offset: 0x19D5E, size: 0x8, addend: 0x0, symName: __RNCINvMs7_NtNtCs9i5KxIbZ5ph_10proc_macro6bridge6clientINtB8_6ClientNtBc_11TokenStreamB13_E7expand1NvCs31ZvrkAUscI_11derive_more13bit_or_deriveE0B1A_, symObjAddr: 0x1578, symBinAddr: 0x84E0, symSize: 0x30 }
  - { offset: 0x19DA7, size: 0x8, addend: 0x0, symName: __RNCINvMs7_NtNtCs9i5KxIbZ5ph_10proc_macro6bridge6clientINtB8_6ClientNtBc_11TokenStreamB13_E7expand1NvCs31ZvrkAUscI_11derive_more14bit_and_deriveE0B1A_, symObjAddr: 0x15A8, symBinAddr: 0x8510, symSize: 0x30 }
  - { offset: 0x19DF0, size: 0x8, addend: 0x0, symName: __RNCINvMs7_NtNtCs9i5KxIbZ5ph_10proc_macro6bridge6clientINtB8_6ClientNtBc_11TokenStreamB13_E7expand1NvCs31ZvrkAUscI_11derive_more14bit_xor_deriveE0B1A_, symObjAddr: 0x15D8, symBinAddr: 0x8540, symSize: 0x30 }
  - { offset: 0x19E39, size: 0x8, addend: 0x0, symName: __RNCINvMs7_NtNtCs9i5KxIbZ5ph_10proc_macro6bridge6clientINtB8_6ClientNtBc_11TokenStreamB13_E7expand1NvCs31ZvrkAUscI_11derive_more17add_assign_deriveE0B1A_, symObjAddr: 0x1608, symBinAddr: 0x8570, symSize: 0x30 }
  - { offset: 0x19E82, size: 0x8, addend: 0x0, symName: __RNCINvMs7_NtNtCs9i5KxIbZ5ph_10proc_macro6bridge6clientINtB8_6ClientNtBc_11TokenStreamB13_E7expand1NvCs31ZvrkAUscI_11derive_more17sub_assign_deriveE0B1A_, symObjAddr: 0x1638, symBinAddr: 0x85A0, symSize: 0x30 }
  - { offset: 0x19ECB, size: 0x8, addend: 0x0, symName: __RNCINvMs7_NtNtCs9i5KxIbZ5ph_10proc_macro6bridge6clientINtB8_6ClientNtBc_11TokenStreamB13_E7expand1NvCs31ZvrkAUscI_11derive_more20bit_or_assign_deriveE0B1A_, symObjAddr: 0x1668, symBinAddr: 0x85D0, symSize: 0x30 }
  - { offset: 0x19F14, size: 0x8, addend: 0x0, symName: __RNCINvMs7_NtNtCs9i5KxIbZ5ph_10proc_macro6bridge6clientINtB8_6ClientNtBc_11TokenStreamB13_E7expand1NvCs31ZvrkAUscI_11derive_more21bit_and_assign_deriveE0B1A_, symObjAddr: 0x1698, symBinAddr: 0x8600, symSize: 0x30 }
  - { offset: 0x19F5D, size: 0x8, addend: 0x0, symName: __RNCINvMs7_NtNtCs9i5KxIbZ5ph_10proc_macro6bridge6clientINtB8_6ClientNtBc_11TokenStreamB13_E7expand1NvCs31ZvrkAUscI_11derive_more21bit_xor_assign_deriveE0B1A_, symObjAddr: 0x16C8, symBinAddr: 0x8630, symSize: 0x30 }
  - { offset: 0x19FC9, size: 0x8, addend: 0x0, symName: __RINvNtNtCs9i5KxIbZ5ph_10proc_macro6bridge6client10run_clientNtB2_11TokenStreamINtNtCsfvfooZQ3Axs_4core6option6OptionBW_ENCNCINvMs7_B2_INtB2_6ClientNtB6_11TokenStreamB2l_E7expand1NvCs31ZvrkAUscI_11derive_more10add_deriveE00EB2S_, symObjAddr: 0x0, symBinAddr: 0x6F68, symSize: 0x21C }
  - { offset: 0x1A189, size: 0x8, addend: 0x0, symName: __RINvNtNtCs9i5KxIbZ5ph_10proc_macro6bridge6client10run_clientNtB2_11TokenStreamINtNtCsfvfooZQ3Axs_4core6option6OptionBW_ENCNCINvMs7_B2_INtB2_6ClientNtB6_11TokenStreamB2l_E7expand1NvCs31ZvrkAUscI_11derive_more10sub_deriveE00EB2S_, symObjAddr: 0x21C, symBinAddr: 0x7184, symSize: 0x21C }
  - { offset: 0x1A349, size: 0x8, addend: 0x0, symName: __RINvNtNtCs9i5KxIbZ5ph_10proc_macro6bridge6client10run_clientNtB2_11TokenStreamINtNtCsfvfooZQ3Axs_4core6option6OptionBW_ENCNCINvMs7_B2_INtB2_6ClientNtB6_11TokenStreamB2l_E7expand1NvCs31ZvrkAUscI_11derive_more13bit_or_deriveE00EB2S_, symObjAddr: 0x438, symBinAddr: 0x73A0, symSize: 0x21C }
  - { offset: 0x1A509, size: 0x8, addend: 0x0, symName: __RINvNtNtCs9i5KxIbZ5ph_10proc_macro6bridge6client10run_clientNtB2_11TokenStreamINtNtCsfvfooZQ3Axs_4core6option6OptionBW_ENCNCINvMs7_B2_INtB2_6ClientNtB6_11TokenStreamB2l_E7expand1NvCs31ZvrkAUscI_11derive_more14bit_and_deriveE00EB2S_, symObjAddr: 0x654, symBinAddr: 0x75BC, symSize: 0x21C }
  - { offset: 0x1A6C9, size: 0x8, addend: 0x0, symName: __RINvNtNtCs9i5KxIbZ5ph_10proc_macro6bridge6client10run_clientNtB2_11TokenStreamINtNtCsfvfooZQ3Axs_4core6option6OptionBW_ENCNCINvMs7_B2_INtB2_6ClientNtB6_11TokenStreamB2l_E7expand1NvCs31ZvrkAUscI_11derive_more14bit_xor_deriveE00EB2S_, symObjAddr: 0x870, symBinAddr: 0x77D8, symSize: 0x21C }
  - { offset: 0x1A889, size: 0x8, addend: 0x0, symName: __RINvNtNtCs9i5KxIbZ5ph_10proc_macro6bridge6client10run_clientNtB2_11TokenStreamINtNtCsfvfooZQ3Axs_4core6option6OptionBW_ENCNCINvMs7_B2_INtB2_6ClientNtB6_11TokenStreamB2l_E7expand1NvCs31ZvrkAUscI_11derive_more17add_assign_deriveE00EB2S_, symObjAddr: 0xA8C, symBinAddr: 0x79F4, symSize: 0x21C }
  - { offset: 0x1AA49, size: 0x8, addend: 0x0, symName: __RINvNtNtCs9i5KxIbZ5ph_10proc_macro6bridge6client10run_clientNtB2_11TokenStreamINtNtCsfvfooZQ3Axs_4core6option6OptionBW_ENCNCINvMs7_B2_INtB2_6ClientNtB6_11TokenStreamB2l_E7expand1NvCs31ZvrkAUscI_11derive_more17sub_assign_deriveE00EB2S_, symObjAddr: 0xCA8, symBinAddr: 0x7C10, symSize: 0x21C }
  - { offset: 0x1AC09, size: 0x8, addend: 0x0, symName: __RINvNtNtCs9i5KxIbZ5ph_10proc_macro6bridge6client10run_clientNtB2_11TokenStreamINtNtCsfvfooZQ3Axs_4core6option6OptionBW_ENCNCINvMs7_B2_INtB2_6ClientNtB6_11TokenStreamB2l_E7expand1NvCs31ZvrkAUscI_11derive_more20bit_or_assign_deriveE00EB2S_, symObjAddr: 0xEC4, symBinAddr: 0x7E2C, symSize: 0x21C }
  - { offset: 0x1ADC9, size: 0x8, addend: 0x0, symName: __RINvNtNtCs9i5KxIbZ5ph_10proc_macro6bridge6client10run_clientNtB2_11TokenStreamINtNtCsfvfooZQ3Axs_4core6option6OptionBW_ENCNCINvMs7_B2_INtB2_6ClientNtB6_11TokenStreamB2l_E7expand1NvCs31ZvrkAUscI_11derive_more21bit_and_assign_deriveE00EB2S_, symObjAddr: 0x10E0, symBinAddr: 0x8048, symSize: 0x21C }
  - { offset: 0x1AF89, size: 0x8, addend: 0x0, symName: __RINvNtNtCs9i5KxIbZ5ph_10proc_macro6bridge6client10run_clientNtB2_11TokenStreamINtNtCsfvfooZQ3Axs_4core6option6OptionBW_ENCNCINvMs7_B2_INtB2_6ClientNtB6_11TokenStreamB2l_E7expand1NvCs31ZvrkAUscI_11derive_more21bit_xor_assign_deriveE00EB2S_, symObjAddr: 0x12FC, symBinAddr: 0x8264, symSize: 0x21C }
  - { offset: 0x1B19C, size: 0x8, addend: 0x0, symName: __RNvXsg_NtNtCs9i5KxIbZ5ph_10proc_macro6bridge6clientNtB5_11TokenStreamINtNtB7_3rpc6EncodeuE6encodeCs31ZvrkAUscI_11derive_more, symObjAddr: 0x39D0, symBinAddr: 0xA938, symSize: 0x50 }
  - { offset: 0x1B2AD, size: 0x8, addend: 0x0, symName: __RNvXsj_NtNtCs9i5KxIbZ5ph_10proc_macro6bridge6clientNtB5_11TokenStreamINtNtB7_3rpc9DecodeMutuE6decodeCs31ZvrkAUscI_11derive_more, symObjAddr: 0x3A20, symBinAddr: 0xA988, symSize: 0x2C }
  - { offset: 0x1B2F6, size: 0x8, addend: 0x0, symName: __RNvXsq_NtNtCs9i5KxIbZ5ph_10proc_macro6bridge6clientNtB5_4SpanINtNtB7_3rpc9DecodeMutuE6decodeCs31ZvrkAUscI_11derive_more, symObjAddr: 0x3A4C, symBinAddr: 0xA9B4, symSize: 0x2C }
  - { offset: 0x1CE88, size: 0x8, addend: 0x0, symName: __RINvMsi_NtCse1nGBsou5OW_5alloc3vecINtB6_3VecNtCs3cP53eQoTwO_11proc_macro25IdentE14extend_trustedINtNtNtNtCsfvfooZQ3Axs_4core4iter8adapters3map3MapINtNtNtB1F_3ops5range5RangejENCNvNtCs31ZvrkAUscI_11derive_more5utils13numbered_vars0EEB2T_, symObjAddr: 0x0, symBinAddr: 0xAA34, symSize: 0x17C }
  - { offset: 0x2022B, size: 0x8, addend: 0x0, symName: __RINvYINtNtNtCsfvfooZQ3Axs_4core5slice4iter4IterRNtNtCs6IAuOt8vWmF_3syn4data5FieldENtNtNtNtBa_4iter6traits8iterator8Iterator3mapRNtCs3cP53eQoTwO_11proc_macro25IdentNCNvNtCs31ZvrkAUscI_11derive_more5utils12field_idents0EB2H_, symObjAddr: 0x6E8, symBinAddr: 0xB11C, symSize: 0x1C }
  - { offset: 0x203C5, size: 0x8, addend: 0x0, symName: __RINvXs2U_NtNtCsfvfooZQ3Axs_4core5slice4iterINtB7_4IterRNtNtCs6IAuOt8vWmF_3syn4data5FieldENtNtNtNtBb_4iter6traits8iterator8Iterator4folduNCINvNtNtB1v_8adapters3map8map_foldRBQ_RNtCs3cP53eQoTwO_11proc_macro25IdentuNCNvNtCs31ZvrkAUscI_11derive_more5utils12field_idents0NCINvNvB1p_8for_each4callB2N_NCINvMsi_NtCse1nGBsou5OW_5alloc3vecINtB4S_3VecB2N_E14extend_trustedINtB2f_3MapBF_B3o_EE0E0E0EB3u_, symObjAddr: 0x47C, symBinAddr: 0xAEB0, symSize: 0x1B0 }
  - { offset: 0x20519, size: 0x8, addend: 0x0, symName: __RNvXs2U_NtNtCsfvfooZQ3Axs_4core5slice4iterINtB6_4IterNtCs3cP53eQoTwO_11proc_macro211TokenStreamENtNtNtNtBa_4iter6traits8iterator8Iterator4nextCs31ZvrkAUscI_11derive_more, symObjAddr: 0x1074, symBinAddr: 0xBAA8, symSize: 0xBC }
  - { offset: 0x20667, size: 0x8, addend: 0x0, symName: __RNvXs2U_NtNtCsfvfooZQ3Axs_4core5slice4iterINtB6_4IterNtCs3cP53eQoTwO_11proc_macro25IdentENtNtNtNtBa_4iter6traits8iterator8Iterator4nextCs31ZvrkAUscI_11derive_more, symObjAddr: 0x1130, symBinAddr: 0xBB64, symSize: 0xBC }
  - { offset: 0x207B5, size: 0x8, addend: 0x0, symName: __RNvXs2U_NtNtCsfvfooZQ3Axs_4core5slice4iterINtB6_4IterRNtCs3cP53eQoTwO_11proc_macro25IdentENtNtNtNtBa_4iter6traits8iterator8Iterator4nextCs31ZvrkAUscI_11derive_more, symObjAddr: 0x11EC, symBinAddr: 0xBC20, symSize: 0xBC }
  - { offset: 0x20903, size: 0x8, addend: 0x0, symName: __RNvXs2U_NtNtCsfvfooZQ3Axs_4core5slice4iterINtB6_4IterRNtNtCs6IAuOt8vWmF_3syn4data5FieldENtNtNtNtBa_4iter6traits8iterator8Iterator4nextCs31ZvrkAUscI_11derive_more, symObjAddr: 0x12A8, symBinAddr: 0xBCDC, symSize: 0xBC }
  - { offset: 0x20A51, size: 0x8, addend: 0x0, symName: __RNvXs2U_NtNtCsfvfooZQ3Axs_4core5slice4iterINtB6_4IterRNtNtCs6IAuOt8vWmF_3syn4data5FieldENtNtNtNtBa_4iter6traits8iterator8Iterator9size_hintCs31ZvrkAUscI_11derive_more, symObjAddr: 0x1364, symBinAddr: 0xBD98, symSize: 0x70 }
  - { offset: 0x20D44, size: 0x8, addend: 0x0, symName: __RNvXs2V_NtNtCsfvfooZQ3Axs_4core5slice4iterINtB6_4IterTNtNtCs6IAuOt8vWmF_3syn4data7VariantNtNtBU_5token5CommaEENtNtNtNtBa_4iter6traits12double_ended19DoubleEndedIterator9next_backCs31ZvrkAUscI_11derive_more, symObjAddr: 0x13D4, symBinAddr: 0xBE08, symSize: 0x100 }
  - { offset: 0x20EA6, size: 0x8, addend: 0x0, symName: __RNvXs5_NtNtCsfvfooZQ3Axs_4core5slice4iterINtB5_4IterTNtNtCs6IAuOt8vWmF_3syn4data7VariantNtNtBT_5token5CommaEENtNtB9_5clone5Clone5cloneCs31ZvrkAUscI_11derive_more, symObjAddr: 0x157C, symBinAddr: 0xBFB0, symSize: 0x20 }
  - { offset: 0x2322F, size: 0x8, addend: 0x0, symName: __RINvXsd_NtCse1nGBsou5OW_5alloc3vecINtB6_3VecNtCs3cP53eQoTwO_11proc_macro25IdentEINtNtNtNtCsfvfooZQ3Axs_4core4iter6traits7collect12FromIteratorBG_E9from_iterINtNtNtB1n_8adapters3map3MapINtNtNtB1p_3ops5range5RangejENCNvNtCs31ZvrkAUscI_11derive_more5utils13numbered_vars0EEB3v_, symObjAddr: 0x62C, symBinAddr: 0xB060, symSize: 0x3C }
  - { offset: 0x23270, size: 0x8, addend: 0x0, symName: __RINvXsd_NtCse1nGBsou5OW_5alloc3vecINtB6_3VecRNtCs3cP53eQoTwO_11proc_macro25IdentEINtNtNtNtCsfvfooZQ3Axs_4core4iter6traits7collect12FromIteratorBG_E9from_iterINtNtNtB1o_8adapters3map3MapINtNtNtB1q_5slice4iter4IterRNtNtCs6IAuOt8vWmF_3syn4data5FieldENCNvNtCs31ZvrkAUscI_11derive_more5utils12field_idents0EEB43_, symObjAddr: 0x668, symBinAddr: 0xB09C, symSize: 0x40 }
  - { offset: 0x232B0, size: 0x8, addend: 0x0, symName: __RINvXsd_NtCse1nGBsou5OW_5alloc3vecINtB6_3VecRNtNtCs6IAuOt8vWmF_3syn4data5FieldEINtNtNtNtCsfvfooZQ3Axs_4core4iter6traits7collect12FromIteratorBG_E9from_iterINtNtBL_10punctuated4IterBH_EECs31ZvrkAUscI_11derive_more, symObjAddr: 0x6A8, symBinAddr: 0xB0DC, symSize: 0x40 }
  - { offset: 0x232FB, size: 0x8, addend: 0x0, symName: __RNCINvMsi_NtCse1nGBsou5OW_5alloc3vecINtB8_3VecNtCs3cP53eQoTwO_11proc_macro25IdentE14extend_trustedINtNtNtNtCsfvfooZQ3Axs_4core4iter8adapters3map3MapINtNtNtB1H_3ops5range5RangejENCNvNtCs31ZvrkAUscI_11derive_more5utils13numbered_vars0EE0B2V_, symObjAddr: 0x704, symBinAddr: 0xB138, symSize: 0x44 }
  - { offset: 0x233A8, size: 0x8, addend: 0x0, symName: __RNCINvMsi_NtCse1nGBsou5OW_5alloc3vecINtB8_3VecRNtCs3cP53eQoTwO_11proc_macro25IdentE14extend_trustedINtNtNtNtCsfvfooZQ3Axs_4core4iter8adapters3map3MapINtNtNtB1I_5slice4iter4IterRNtNtCs6IAuOt8vWmF_3syn4data5FieldENCNvNtCs31ZvrkAUscI_11derive_more5utils12field_idents0EE0B3t_, symObjAddr: 0x748, symBinAddr: 0xB17C, symSize: 0x34 }
  - { offset: 0x2356D, size: 0x8, addend: 0x0, symName: __RNvXNtNtCse1nGBsou5OW_5alloc3vec11spec_extendINtB4_3VecRNtNtCs6IAuOt8vWmF_3syn4data5FieldEINtB2_10SpecExtendBR_INtNtBW_10punctuated4IterBS_EE11spec_extendCs31ZvrkAUscI_11derive_more, symObjAddr: 0xDD0, symBinAddr: 0xB804, symSize: 0x34 }
  - { offset: 0x235C4, size: 0x8, addend: 0x0, symName: __RNvXs_NtNtCse1nGBsou5OW_5alloc3vec11spec_extendINtB6_3VecNtCs3cP53eQoTwO_11proc_macro25IdentEINtB4_10SpecExtendBT_INtNtNtNtCsfvfooZQ3Axs_4core4iter8adapters3map3MapINtNtNtB1X_3ops5range5RangejENCNvNtCs31ZvrkAUscI_11derive_more5utils13numbered_vars0EE11spec_extendB3b_, symObjAddr: 0x162C, symBinAddr: 0xC060, symSize: 0x24 }
  - { offset: 0x23616, size: 0x8, addend: 0x0, symName: __RNvXs_NtNtCse1nGBsou5OW_5alloc3vec11spec_extendINtB6_3VecRNtCs3cP53eQoTwO_11proc_macro25IdentEINtB4_10SpecExtendBT_INtNtNtNtCsfvfooZQ3Axs_4core4iter8adapters3map3MapINtNtNtB1Y_5slice4iter4IterRNtNtCs6IAuOt8vWmF_3syn4data5FieldENCNvNtCs31ZvrkAUscI_11derive_more5utils12field_idents0EE11spec_extendB3J_, symObjAddr: 0x1650, symBinAddr: 0xC084, symSize: 0x34 }
  - { offset: 0x23673, size: 0x8, addend: 0x0, symName: __RNvXNtNtCse1nGBsou5OW_5alloc3vec14spec_from_iterINtB4_3VecNtCs3cP53eQoTwO_11proc_macro25IdentEINtB2_12SpecFromIterBU_INtNtNtNtCsfvfooZQ3Axs_4core4iter8adapters3map3MapINtNtNtB20_3ops5range5RangejENCNvNtCs31ZvrkAUscI_11derive_more5utils13numbered_vars0EE9from_iterB3e_, symObjAddr: 0xE04, symBinAddr: 0xB838, symSize: 0x14 }
  - { offset: 0x236B2, size: 0x8, addend: 0x0, symName: __RNvXNtNtCse1nGBsou5OW_5alloc3vec14spec_from_iterINtB4_3VecRNtCs3cP53eQoTwO_11proc_macro25IdentEINtB2_12SpecFromIterBU_INtNtNtNtCsfvfooZQ3Axs_4core4iter8adapters3map3MapINtNtNtB21_5slice4iter4IterRNtNtCs6IAuOt8vWmF_3syn4data5FieldENCNvNtCs31ZvrkAUscI_11derive_more5utils12field_idents0EE9from_iterB3M_, symObjAddr: 0xE18, symBinAddr: 0xB84C, symSize: 0x2C }
  - { offset: 0x236F0, size: 0x8, addend: 0x0, symName: __RNvXNtNtCse1nGBsou5OW_5alloc3vec14spec_from_iterINtB4_3VecRNtNtCs6IAuOt8vWmF_3syn4data5FieldEINtB2_12SpecFromIterBU_INtNtBZ_10punctuated4IterBV_EE9from_iterCs31ZvrkAUscI_11derive_more, symObjAddr: 0xE44, symBinAddr: 0xB878, symSize: 0x2C }
  - { offset: 0x2373A, size: 0x8, addend: 0x0, symName: __RNvXNtNtCse1nGBsou5OW_5alloc3vec21spec_from_iter_nestedINtB4_3VecRNtNtCs6IAuOt8vWmF_3syn4data5FieldEINtB2_18SpecFromIterNestedB11_INtNtB16_10punctuated4IterB12_EE9from_iterCs31ZvrkAUscI_11derive_more, symObjAddr: 0xE70, symBinAddr: 0xB8A4, symSize: 0x204 }
  - { offset: 0x2395E, size: 0x8, addend: 0x0, symName: __RNvXs_NtNtCse1nGBsou5OW_5alloc3vec21spec_from_iter_nestedINtB6_3VecNtCs3cP53eQoTwO_11proc_macro25IdentEINtB4_18SpecFromIterNestedB13_INtNtNtNtCsfvfooZQ3Axs_4core4iter8adapters3map3MapINtNtNtB2g_3ops5range5RangejENCNvNtCs31ZvrkAUscI_11derive_more5utils13numbered_vars0EE9from_iterB3u_, symObjAddr: 0x1684, symBinAddr: 0xC0B8, symSize: 0x16C }
  - { offset: 0x23A35, size: 0x8, addend: 0x0, symName: __RNvXs_NtNtCse1nGBsou5OW_5alloc3vec21spec_from_iter_nestedINtB6_3VecRNtCs3cP53eQoTwO_11proc_macro25IdentEINtB4_18SpecFromIterNestedB13_INtNtNtNtCsfvfooZQ3Axs_4core4iter8adapters3map3MapINtNtNtB2h_5slice4iter4IterRNtNtCs6IAuOt8vWmF_3syn4data5FieldENCNvNtCs31ZvrkAUscI_11derive_more5utils12field_idents0EE9from_iterB42_, symObjAddr: 0x17F0, symBinAddr: 0xC224, symSize: 0x164 }
  - { offset: 0x23B12, size: 0x8, addend: 0x0, symName: __RNvXs6_NtCse1nGBsou5OW_5alloc3vecINtB5_3VecNtCs3cP53eQoTwO_11proc_macro211TokenStreamENtNtNtCsfvfooZQ3Axs_4core3ops5deref5Deref5derefCs31ZvrkAUscI_11derive_more, symObjAddr: 0x159C, symBinAddr: 0xBFD0, symSize: 0x24 }
  - { offset: 0x23B52, size: 0x8, addend: 0x0, symName: __RNvXs6_NtCse1nGBsou5OW_5alloc3vecINtB5_3VecNtCs3cP53eQoTwO_11proc_macro25IdentENtNtNtCsfvfooZQ3Axs_4core3ops5deref5Deref5derefCs31ZvrkAUscI_11derive_more, symObjAddr: 0x15C0, symBinAddr: 0xBFF4, symSize: 0x24 }
  - { offset: 0x23B92, size: 0x8, addend: 0x0, symName: __RNvXs6_NtCse1nGBsou5OW_5alloc3vecINtB5_3VecRNtCs3cP53eQoTwO_11proc_macro25IdentENtNtNtCsfvfooZQ3Axs_4core3ops5deref5Deref5derefCs31ZvrkAUscI_11derive_more, symObjAddr: 0x15E4, symBinAddr: 0xC018, symSize: 0x24 }
  - { offset: 0x23BD2, size: 0x8, addend: 0x0, symName: __RNvXs6_NtCse1nGBsou5OW_5alloc3vecINtB5_3VecRNtNtCs6IAuOt8vWmF_3syn4data5FieldENtNtNtCsfvfooZQ3Axs_4core3ops5deref5Deref5derefCs31ZvrkAUscI_11derive_more, symObjAddr: 0x1608, symBinAddr: 0xC03C, symSize: 0x24 }
  - { offset: 0x23C18, size: 0x8, addend: 0x0, symName: __RNvXsn_NtCse1nGBsou5OW_5alloc3vecINtB5_3VecNtCs3cP53eQoTwO_11proc_macro211TokenStreamENtNtNtCsfvfooZQ3Axs_4core3ops4drop4Drop4dropCs31ZvrkAUscI_11derive_more, symObjAddr: 0x1954, symBinAddr: 0xC388, symSize: 0x38 }
  - { offset: 0x23CC8, size: 0x8, addend: 0x0, symName: __RNvXsn_NtCse1nGBsou5OW_5alloc3vecINtB5_3VecNtCs3cP53eQoTwO_11proc_macro25IdentENtNtNtCsfvfooZQ3Axs_4core3ops4drop4Drop4dropCs31ZvrkAUscI_11derive_more, symObjAddr: 0x198C, symBinAddr: 0xC3C0, symSize: 0x38 }
  - { offset: 0x23D78, size: 0x8, addend: 0x0, symName: __RNvXsn_NtCse1nGBsou5OW_5alloc3vecINtB5_3VecRNtCs3cP53eQoTwO_11proc_macro25IdentENtNtNtCsfvfooZQ3Axs_4core3ops4drop4Drop4dropCs31ZvrkAUscI_11derive_more, symObjAddr: 0x19C4, symBinAddr: 0xC3F8, symSize: 0x24 }
  - { offset: 0x23E28, size: 0x8, addend: 0x0, symName: __RNvXsn_NtCse1nGBsou5OW_5alloc3vecINtB5_3VecRNtNtCs6IAuOt8vWmF_3syn4data5FieldENtNtNtCsfvfooZQ3Axs_4core3ops4drop4Drop4dropCs31ZvrkAUscI_11derive_more, symObjAddr: 0x19E8, symBinAddr: 0xC41C, symSize: 0x24 }
  - { offset: 0x24058, size: 0x8, addend: 0x0, symName: __RNvNtCs31ZvrkAUscI_11derive_more8add_like6expand, symObjAddr: 0x1A0C, symBinAddr: 0xC440, symSize: 0xB94 }
  - { offset: 0x24278, size: 0x8, addend: 0x0, symName: __RINvNtCs31ZvrkAUscI_11derive_more8add_like13tuple_contentNtCs3cP53eQoTwO_11proc_macro25IdentEB4_, symObjAddr: 0x25A0, symBinAddr: 0xCFD4, symSize: 0x22C }
  - { offset: 0x243A4, size: 0x8, addend: 0x0, symName: __RNvNtCs31ZvrkAUscI_11derive_more8add_like14struct_content, symObjAddr: 0x27CC, symBinAddr: 0xD200, symSize: 0x308 }
  - { offset: 0x2454B, size: 0x8, addend: 0x0, symName: __RNvNtCs31ZvrkAUscI_11derive_more8add_like12enum_content, symObjAddr: 0x2AD4, symBinAddr: 0xD508, symSize: 0x1CB0 }
  - { offset: 0x2515E, size: 0x8, addend: 0x0, symName: __RINvMsi_NtCse1nGBsou5OW_5alloc3vecINtB6_3VecNtCs3cP53eQoTwO_11proc_macro25IdentE14extend_trustedINtNtNtNtCsfvfooZQ3Axs_4core4iter8adapters3map3MapINtNtNtB1F_3ops5range5RangejENCNvNtCs31ZvrkAUscI_11derive_more5utils13numbered_vars0EEB2T_, symObjAddr: 0x0, symBinAddr: 0xAA34, symSize: 0x17C }
  - { offset: 0x2A73E, size: 0x8, addend: 0x0, symName: __RINvMsi_NtCse1nGBsou5OW_5alloc3vecINtB6_3VecRNtCs3cP53eQoTwO_11proc_macro25IdentE14extend_trustedINtNtNtNtCsfvfooZQ3Axs_4core4iter8adapters3map3MapINtNtNtB1G_5slice4iter4IterRNtNtCs6IAuOt8vWmF_3syn4data5FieldENCNvNtCs31ZvrkAUscI_11derive_more5utils12field_idents0EEB3r_, symObjAddr: 0x17C, symBinAddr: 0xABB0, symSize: 0x170 }
  - { offset: 0x2AAEB, size: 0x8, addend: 0x0, symName: __RINvMsi_NtCse1nGBsou5OW_5alloc3vecINtB6_3VecRNtNtCs6IAuOt8vWmF_3syn4data5FieldE16extend_desugaredINtNtBL_10punctuated4IterBH_EECs31ZvrkAUscI_11derive_more, symObjAddr: 0x2EC, symBinAddr: 0xAD20, symSize: 0x190 }
  - { offset: 0x2ADA7, size: 0x8, addend: 0x0, symName: __RNvMNtCse1nGBsou5OW_5alloc3vecINtB2_3VecNtCs3cP53eQoTwO_11proc_macro211TokenStreamE3newCs31ZvrkAUscI_11derive_more, symObjAddr: 0x77C, symBinAddr: 0xB1B0, symSize: 0x14 }
  - { offset: 0x2AE8D, size: 0x8, addend: 0x0, symName: __RNvMs4_NtNtCsfvfooZQ3Axs_4core5slice4iterINtB5_4IterNtCs3cP53eQoTwO_11proc_macro211TokenStreamE3newCs31ZvrkAUscI_11derive_more, symObjAddr: 0x790, symBinAddr: 0xB1C4, symSize: 0x50 }
  - { offset: 0x2B04E, size: 0x8, addend: 0x0, symName: __RNvMs4_NtNtCsfvfooZQ3Axs_4core5slice4iterINtB5_4IterNtCs3cP53eQoTwO_11proc_macro25IdentE3newCs31ZvrkAUscI_11derive_more, symObjAddr: 0x7E0, symBinAddr: 0xB214, symSize: 0x58 }
  - { offset: 0x2B21C, size: 0x8, addend: 0x0, symName: __RNvMs4_NtNtCsfvfooZQ3Axs_4core5slice4iterINtB5_4IterRNtCs3cP53eQoTwO_11proc_macro25IdentE3newCs31ZvrkAUscI_11derive_more, symObjAddr: 0x838, symBinAddr: 0xB26C, symSize: 0x50 }
  - { offset: 0x2B3DD, size: 0x8, addend: 0x0, symName: __RNvMs4_NtNtCsfvfooZQ3Axs_4core5slice4iterINtB5_4IterRNtNtCs6IAuOt8vWmF_3syn4data5FieldE3newCs31ZvrkAUscI_11derive_more, symObjAddr: 0x888, symBinAddr: 0xB2BC, symSize: 0x50 }
  - { offset: 0x2B5F5, size: 0x8, addend: 0x0, symName: __RNvMs_NtCse1nGBsou5OW_5alloc3vecINtB4_3VecNtCs3cP53eQoTwO_11proc_macro211TokenStreamE4pushCs31ZvrkAUscI_11derive_more, symObjAddr: 0x8D8, symBinAddr: 0xB30C, symSize: 0x100 }
  - { offset: 0x2B826, size: 0x8, addend: 0x0, symName: __RNvMs_NtCse1nGBsou5OW_5alloc3vecINtB4_3VecNtCs3cP53eQoTwO_11proc_macro211TokenStreamE8as_sliceCs31ZvrkAUscI_11derive_more, symObjAddr: 0x9D8, symBinAddr: 0xB40C, symSize: 0x64 }
  - { offset: 0x2BA10, size: 0x8, addend: 0x0, symName: __RNvMs_NtCse1nGBsou5OW_5alloc3vecINtB4_3VecNtCs3cP53eQoTwO_11proc_macro25IdentE7reserveCs31ZvrkAUscI_11derive_more, symObjAddr: 0xA3C, symBinAddr: 0xB470, symSize: 0xC8 }
  - { offset: 0x2BBF4, size: 0x8, addend: 0x0, symName: __RNvMs_NtCse1nGBsou5OW_5alloc3vecINtB4_3VecNtCs3cP53eQoTwO_11proc_macro25IdentE8as_sliceCs31ZvrkAUscI_11derive_more, symObjAddr: 0xB04, symBinAddr: 0xB538, symSize: 0x64 }
  - { offset: 0x2BDC4, size: 0x8, addend: 0x0, symName: __RNvMs_NtCse1nGBsou5OW_5alloc3vecINtB4_3VecRNtCs3cP53eQoTwO_11proc_macro25IdentE7reserveCs31ZvrkAUscI_11derive_more, symObjAddr: 0xB68, symBinAddr: 0xB59C, symSize: 0xBC }
  - { offset: 0x2BFA8, size: 0x8, addend: 0x0, symName: __RNvMs_NtCse1nGBsou5OW_5alloc3vecINtB4_3VecRNtCs3cP53eQoTwO_11proc_macro25IdentE8as_sliceCs31ZvrkAUscI_11derive_more, symObjAddr: 0xC24, symBinAddr: 0xB658, symSize: 0x60 }
  - { offset: 0x2C062, size: 0x8, addend: 0x0, symName: __RNvMs_NtCse1nGBsou5OW_5alloc3vecINtB4_3VecRNtNtCs6IAuOt8vWmF_3syn4data5FieldE3lenCs31ZvrkAUscI_11derive_more, symObjAddr: 0xC84, symBinAddr: 0xB6B8, symSize: 0x18 }
  - { offset: 0x2C1AD, size: 0x8, addend: 0x0, symName: __RNvMs_NtCse1nGBsou5OW_5alloc3vecINtB4_3VecRNtNtCs6IAuOt8vWmF_3syn4data5FieldE7reserveCs31ZvrkAUscI_11derive_more, symObjAddr: 0xC9C, symBinAddr: 0xB6D0, symSize: 0xBC }
  - { offset: 0x2C384, size: 0x8, addend: 0x0, symName: __RNvMs_NtCse1nGBsou5OW_5alloc3vecINtB4_3VecRNtNtCs6IAuOt8vWmF_3syn4data5FieldE8as_sliceCs31ZvrkAUscI_11derive_more, symObjAddr: 0xD58, symBinAddr: 0xB78C, symSize: 0x60 }
  - { offset: 0x2C44B, size: 0x8, addend: 0x0, symName: __RNvMs_NtCse1nGBsou5OW_5alloc3vecINtB4_3VecTNtNtCs6IAuOt8vWmF_3syn4data7VariantNtNtBJ_5token5CommaEE3lenCs31ZvrkAUscI_11derive_more, symObjAddr: 0xDB8, symBinAddr: 0xB7EC, symSize: 0x18 }
  - { offset: 0x2CA7A, size: 0x8, addend: 0x0, symName: __RNvXs4_NtNtCs2cqEZUIJimJ_5quote9___private3extINtNtCse1nGBsou5OW_5alloc3vec3VecNtCs3cP53eQoTwO_11proc_macro211TokenStreamENtB5_16RepAsIteratorExt15quote_into_iterCs31ZvrkAUscI_11derive_more, symObjAddr: 0x14D4, symBinAddr: 0xBF08, symSize: 0x38 }
  - { offset: 0x2CAAF, size: 0x8, addend: 0x0, symName: __RNvXs4_NtNtCs2cqEZUIJimJ_5quote9___private3extINtNtCse1nGBsou5OW_5alloc3vec3VecNtCs3cP53eQoTwO_11proc_macro25IdentENtB5_16RepAsIteratorExt15quote_into_iterCs31ZvrkAUscI_11derive_more, symObjAddr: 0x150C, symBinAddr: 0xBF40, symSize: 0x38 }
  - { offset: 0x2CAE4, size: 0x8, addend: 0x0, symName: __RNvXs4_NtNtCs2cqEZUIJimJ_5quote9___private3extINtNtCse1nGBsou5OW_5alloc3vec3VecRNtCs3cP53eQoTwO_11proc_macro25IdentENtB5_16RepAsIteratorExt15quote_into_iterCs31ZvrkAUscI_11derive_more, symObjAddr: 0x1544, symBinAddr: 0xBF78, symSize: 0x38 }
  - { offset: 0x2D00B, size: 0x8, addend: 0x0, symName: __RINvMNtCsfvfooZQ3Axs_4core6optionINtB3_6OptionRNtNtCs6IAuOt8vWmF_3syn4data7VariantE7or_elseNCNvXsw_NtBN_10punctuatedINtB1z_11PrivateIterBJ_NtNtBN_5token5CommaENtNtNtNtB5_4iter6traits8iterator8Iterator4nexts_0ECs31ZvrkAUscI_11derive_more, symObjAddr: 0x0, symBinAddr: 0xF1B8, symSize: 0xA8 }
  - { offset: 0x31E01, size: 0x8, addend: 0x0, symName: __RINvNtCs6IAuOt8vWmF_3syn11parse_quote5parseNtNtB4_8generics14TypeParamBoundECs31ZvrkAUscI_11derive_more, symObjAddr: 0x82C, symBinAddr: 0xF9E4, symSize: 0xCC }
  - { offset: 0x31E66, size: 0x8, addend: 0x0, symName: __RINvNvNtCs6IAuOt8vWmF_3syn11parse_quote5parse18panic_cold_displayNtNtB6_5error5ErrorECs31ZvrkAUscI_11derive_more, symObjAddr: 0x1428, symBinAddr: 0x16E2EC, symSize: 0x28 }
  - { offset: 0x31E9D, size: 0x8, addend: 0x0, symName: __RNvXNtCs6IAuOt8vWmF_3syn11parse_quoteNtNtB4_8generics14TypeParamBoundNtB2_10ParseQuote5parseCs31ZvrkAUscI_11derive_more, symObjAddr: 0x1B70, symBinAddr: 0x10CA4, symSize: 0x34 }
  - { offset: 0x31F1A, size: 0x8, addend: 0x0, symName: __RNvXs0_NtCs6IAuOt8vWmF_3syn5dropsINtB5_6NoDropDINtNtB7_10punctuated9IterTraitNtNtB7_4data7VariantEp4ItemRB1d_EL_ENtNtNtCsfvfooZQ3Axs_4core3ops5deref8DerefMut9deref_mutCs31ZvrkAUscI_11derive_more, symObjAddr: 0x1BE0, symBinAddr: 0x10D14, symSize: 0x3C }
  - { offset: 0x31FB5, size: 0x8, addend: 0x0, symName: __RNvXsh_NtCs6IAuOt8vWmF_3syn5parseNvYNtNtB7_8generics14TypeParamBoundNtNtB7_11parse_quote10ParseQuote5parseNtB5_6Parser6parse2Cs31ZvrkAUscI_11derive_more, symObjAddr: 0x20E0, symBinAddr: 0x11214, symSize: 0x368 }
  - { offset: 0x34141, size: 0x8, addend: 0x0, symName: __RNvXsR_NtCs9i5KxIbZ5ph_10proc_macro6bridgeINtNtCsfvfooZQ3Axs_4core6option6OptionNtNtB5_6client11TokenStreamEINtNtB5_3rpc6EncodeuE6encodeCs31ZvrkAUscI_11derive_more, symObjAddr: 0x1D08, symBinAddr: 0x10E3C, symSize: 0xCC }
  - { offset: 0x341E7, size: 0x8, addend: 0x0, symName: __RNvXsR_NtCs9i5KxIbZ5ph_10proc_macro6bridgeINtNtCsfvfooZQ3Axs_4core6option6OptionReEINtNtB5_3rpc6EncodeuE6encodeCs31ZvrkAUscI_11derive_more, symObjAddr: 0x1DD4, symBinAddr: 0x10F08, symSize: 0xD8 }
  - { offset: 0x34293, size: 0x8, addend: 0x0, symName: __RNvXsV_NtCs9i5KxIbZ5ph_10proc_macro6bridgeINtNtCsfvfooZQ3Axs_4core6result6ResultINtNtBJ_6option6OptionNtNtB5_6client11TokenStreamEuEINtNtB5_3rpc6EncodeuE6encodeCs31ZvrkAUscI_11derive_more, symObjAddr: 0x1EAC, symBinAddr: 0x10FE0, symSize: 0x108 }
  - { offset: 0x34357, size: 0x8, addend: 0x0, symName: __RNvXsV_NtCs9i5KxIbZ5ph_10proc_macro6bridgeINtNtCsfvfooZQ3Axs_4core6result6ResultuNtNtB5_3rpc12PanicMessageEINtB1j_6EncodeuE6encodeCs31ZvrkAUscI_11derive_more, symObjAddr: 0x1FB4, symBinAddr: 0x110E8, symSize: 0x12C }
  - { offset: 0x34672, size: 0x8, addend: 0x0, symName: __RNvNvMs9_NtCsfvfooZQ3Axs_4core3numj13unchecked_add18precondition_checkCs31ZvrkAUscI_11derive_more, symObjAddr: 0x16D0, symBinAddr: 0x10804, symSize: 0x44 }
  - { offset: 0x346D4, size: 0x8, addend: 0x0, symName: __RNvNvMs9_NtCsfvfooZQ3Axs_4core3numj13unchecked_sub18precondition_checkCs31ZvrkAUscI_11derive_more, symObjAddr: 0x1714, symBinAddr: 0x10848, symSize: 0x40 }
  - { offset: 0x3476E, size: 0x8, addend: 0x0, symName: __RNvNvMs3_NtCsfvfooZQ3Axs_4core3numi13unchecked_neg18precondition_checkCs31ZvrkAUscI_11derive_more, symObjAddr: 0x1684, symBinAddr: 0x107B8, symSize: 0x4C }
  - { offset: 0x34CDE, size: 0x8, addend: 0x0, symName: __RNvNvMs1_NtNtCsfvfooZQ3Axs_4core3ptr8non_nullINtB7_7NonNullpE13new_unchecked18precondition_checkCs31ZvrkAUscI_11derive_more, symObjAddr: 0x164C, symBinAddr: 0x10780, symSize: 0x38 }
  - { offset: 0x34EC0, size: 0x8, addend: 0x0, symName: __RINvNtCsfvfooZQ3Axs_4core3ptr13drop_in_placeINtNtB4_4cell10UnsafeCellNtNtNtCs9i5KxIbZ5ph_10proc_macro6bridge6client6BridgeEECs31ZvrkAUscI_11derive_more, symObjAddr: 0x940, symBinAddr: 0xFAB0, symSize: 0x24 }
  - { offset: 0x34EEF, size: 0x8, addend: 0x0, symName: __RINvNtCsfvfooZQ3Axs_4core3ptr13drop_in_placeINtNtB4_4cell7RefCellNtNtNtCs9i5KxIbZ5ph_10proc_macro6bridge6client6BridgeEECs31ZvrkAUscI_11derive_more, symObjAddr: 0x964, symBinAddr: 0xFAD4, symSize: 0x24 }
  - { offset: 0x34F1E, size: 0x8, addend: 0x0, symName: __RINvNtCsfvfooZQ3Axs_4core3ptr13drop_in_placeINtNtCs6IAuOt8vWmF_3syn10punctuated4IterNtNtBL_4data5FieldEECs31ZvrkAUscI_11derive_more, symObjAddr: 0x998, symBinAddr: 0xFAF8, symSize: 0x24 }
  - { offset: 0x34F4D, size: 0x8, addend: 0x0, symName: __RINvNtCsfvfooZQ3Axs_4core3ptr13drop_in_placeINtNtCs6IAuOt8vWmF_3syn10punctuated4IterNtNtBL_4data7VariantEECs31ZvrkAUscI_11derive_more, symObjAddr: 0x9BC, symBinAddr: 0xFB1C, symSize: 0x24 }
  - { offset: 0x34F7C, size: 0x8, addend: 0x0, symName: __RINvNtCsfvfooZQ3Axs_4core3ptr13drop_in_placeINtNtCs6IAuOt8vWmF_3syn10punctuated7IterMutNtNtBL_8generics12GenericParamEECs31ZvrkAUscI_11derive_more, symObjAddr: 0x9E0, symBinAddr: 0xFB40, symSize: 0x24 }
  - { offset: 0x34FAB, size: 0x8, addend: 0x0, symName: __RINvNtCsfvfooZQ3Axs_4core3ptr13drop_in_placeINtNtCse1nGBsou5OW_5alloc3vec3VecNtCs3cP53eQoTwO_11proc_macro211TokenStreamEECs31ZvrkAUscI_11derive_more, symObjAddr: 0xA04, symBinAddr: 0xFB64, symSize: 0x5C }
  - { offset: 0x34FDA, size: 0x8, addend: 0x0, symName: __RINvNtCsfvfooZQ3Axs_4core3ptr13drop_in_placeINtNtCse1nGBsou5OW_5alloc3vec3VecNtCs3cP53eQoTwO_11proc_macro25IdentEECs31ZvrkAUscI_11derive_more, symObjAddr: 0xA60, symBinAddr: 0xFBC0, symSize: 0x5C }
  - { offset: 0x35009, size: 0x8, addend: 0x0, symName: __RINvNtCsfvfooZQ3Axs_4core3ptr13drop_in_placeINtNtCse1nGBsou5OW_5alloc3vec3VecRNtCs3cP53eQoTwO_11proc_macro25IdentEECs31ZvrkAUscI_11derive_more, symObjAddr: 0xABC, symBinAddr: 0xFC1C, symSize: 0x5C }
  - { offset: 0x35038, size: 0x8, addend: 0x0, symName: __RINvNtCsfvfooZQ3Axs_4core3ptr13drop_in_placeINtNtCse1nGBsou5OW_5alloc3vec3VecRNtNtCs6IAuOt8vWmF_3syn4data5FieldEECs31ZvrkAUscI_11derive_more, symObjAddr: 0xB18, symBinAddr: 0xFC78, symSize: 0x5C }
  - { offset: 0x35067, size: 0x8, addend: 0x0, symName: __RINvNtCsfvfooZQ3Axs_4core3ptr13drop_in_placeINtNtCse1nGBsou5OW_5alloc5boxed3BoxDNtNtB4_5error5ErrorNtNtB4_6marker4SendNtB1B_4SyncEL_EECs31ZvrkAUscI_11derive_more, symObjAddr: 0xB74, symBinAddr: 0xFCD4, symSize: 0x80 }
  - { offset: 0x35096, size: 0x8, addend: 0x0, symName: __RINvNtCsfvfooZQ3Axs_4core3ptr13drop_in_placeINtNtCse1nGBsou5OW_5alloc5boxed3BoxINtNtCs6IAuOt8vWmF_3syn5drops6NoDropDINtNtB1k_10punctuated12IterMutTraitNtNtB1k_8generics12GenericParamEp4ItemQB2p_EL_EEECs31ZvrkAUscI_11derive_more, symObjAddr: 0xBF4, symBinAddr: 0xFD54, symSize: 0x2C }
  - { offset: 0x350C5, size: 0x8, addend: 0x0, symName: __RINvNtCsfvfooZQ3Axs_4core3ptr13drop_in_placeINtNtCse1nGBsou5OW_5alloc5boxed3BoxINtNtCs6IAuOt8vWmF_3syn5drops6NoDropDINtNtB1k_10punctuated9IterTraitNtNtB1k_4data5FieldEp4ItemRB2l_EL_EEECs31ZvrkAUscI_11derive_more, symObjAddr: 0xC20, symBinAddr: 0xFD80, symSize: 0x2C }
  - { offset: 0x350F4, size: 0x8, addend: 0x0, symName: __RINvNtCsfvfooZQ3Axs_4core3ptr13drop_in_placeINtNtCse1nGBsou5OW_5alloc5boxed3BoxINtNtCs6IAuOt8vWmF_3syn5drops6NoDropDINtNtB1k_10punctuated9IterTraitNtNtB1k_4data7VariantEp4ItemRB2l_EL_EEECs31ZvrkAUscI_11derive_more, symObjAddr: 0xC4C, symBinAddr: 0xFDAC, symSize: 0x2C }
  - { offset: 0x35123, size: 0x8, addend: 0x0, symName: __RINvNtCsfvfooZQ3Axs_4core3ptr13drop_in_placeINtNtCse1nGBsou5OW_5alloc5boxed3BoxNtNtNtCscOYdFFY2T5N_3std2io5error6CustomEECs31ZvrkAUscI_11derive_more, symObjAddr: 0xC78, symBinAddr: 0xFDD8, symSize: 0x60 }
  - { offset: 0x35152, size: 0x8, addend: 0x0, symName: __RINvNtCsfvfooZQ3Axs_4core3ptr13drop_in_placeINtNtCse1nGBsou5OW_5alloc7raw_vec6RawVecNtCs3cP53eQoTwO_11proc_macro211TokenStreamEECs31ZvrkAUscI_11derive_more, symObjAddr: 0xCD8, symBinAddr: 0xFE38, symSize: 0x24 }
  - { offset: 0x35181, size: 0x8, addend: 0x0, symName: __RINvNtCsfvfooZQ3Axs_4core3ptr13drop_in_placeINtNtCse1nGBsou5OW_5alloc7raw_vec6RawVecNtCs3cP53eQoTwO_11proc_macro25IdentEECs31ZvrkAUscI_11derive_more, symObjAddr: 0xCFC, symBinAddr: 0xFE5C, symSize: 0x24 }
  - { offset: 0x351B0, size: 0x8, addend: 0x0, symName: __RINvNtCsfvfooZQ3Axs_4core3ptr13drop_in_placeINtNtCse1nGBsou5OW_5alloc7raw_vec6RawVecRNtCs3cP53eQoTwO_11proc_macro25IdentEECs31ZvrkAUscI_11derive_more, symObjAddr: 0xD20, symBinAddr: 0xFE80, symSize: 0x24 }
  - { offset: 0x351DF, size: 0x8, addend: 0x0, symName: __RINvNtCsfvfooZQ3Axs_4core3ptr13drop_in_placeINtNtCse1nGBsou5OW_5alloc7raw_vec6RawVecRNtNtCs6IAuOt8vWmF_3syn4data5FieldEECs31ZvrkAUscI_11derive_more, symObjAddr: 0xD44, symBinAddr: 0xFEA4, symSize: 0x24 }
  - { offset: 0x3520E, size: 0x8, addend: 0x0, symName: __RINvNtCsfvfooZQ3Axs_4core3ptr13drop_in_placeINtNtNtCscOYdFFY2T5N_3std2io5error9ErrorDataINtNtCse1nGBsou5OW_5alloc5boxed3BoxNtBJ_6CustomEEECs31ZvrkAUscI_11derive_more, symObjAddr: 0xD68, symBinAddr: 0xFEC8, symSize: 0x48 }
  - { offset: 0x3523D, size: 0x8, addend: 0x0, symName: __RINvNtCsfvfooZQ3Axs_4core3ptr13drop_in_placeNCINvMsi_NtCse1nGBsou5OW_5alloc3vecINtBP_3VecNtCs3cP53eQoTwO_11proc_macro25IdentE14extend_trustedINtNtNtNtB4_4iter8adapters3map3MapINtNtNtB4_3ops5range5RangejENCNvNtCs31ZvrkAUscI_11derive_more5utils13numbered_vars0EE0EB3l_, symObjAddr: 0xDB0, symBinAddr: 0xFF10, symSize: 0x24 }
  - { offset: 0x3526C, size: 0x8, addend: 0x0, symName: __RINvNtCsfvfooZQ3Axs_4core3ptr13drop_in_placeNCINvMsi_NtCse1nGBsou5OW_5alloc3vecINtBP_3VecRNtCs3cP53eQoTwO_11proc_macro25IdentE14extend_trustedINtNtNtNtB4_4iter8adapters3map3MapINtNtNtB4_5slice4iter4IterRNtNtCs6IAuOt8vWmF_3syn4data5FieldENCNvNtCs31ZvrkAUscI_11derive_more5utils12field_idents0EE0EB3T_, symObjAddr: 0xDD4, symBinAddr: 0xFF34, symSize: 0x24 }
  - { offset: 0x3529B, size: 0x8, addend: 0x0, symName: __RINvNtCsfvfooZQ3Axs_4core3ptr13drop_in_placeNCINvNtNtNtB4_4iter8adapters3map8map_foldRRNtNtCs6IAuOt8vWmF_3syn4data5FieldRNtCs3cP53eQoTwO_11proc_macro25IdentuNCNvNtCs31ZvrkAUscI_11derive_more5utils12field_idents0NCINvNvNtNtNtBP_6traits8iterator8Iterator8for_each4callB1U_NCINvMsi_NtCse1nGBsou5OW_5alloc3vecINtB4t_3VecB1U_E14extend_trustedINtBL_3MapINtNtNtB4_5slice4iter4IterB1m_EB2v_EE0E0E0EB2B_, symObjAddr: 0xDF8, symBinAddr: 0xFF58, symSize: 0x24 }
  - { offset: 0x352CA, size: 0x8, addend: 0x0, symName: __RINvNtCsfvfooZQ3Axs_4core3ptr13drop_in_placeNCINvNtNtNtB4_4iter8adapters3map8map_foldjNtCs3cP53eQoTwO_11proc_macro25IdentuNCNvNtCs31ZvrkAUscI_11derive_more5utils13numbered_vars0NCINvNvNtNtNtBP_6traits8iterator8Iterator8for_each4callB1m_NCINvMsi_NtCse1nGBsou5OW_5alloc3vecINtB3V_3VecB1m_E14extend_trustedINtBL_3MapINtNtNtB4_3ops5range5RangejEB1W_EE0E0E0EB22_, symObjAddr: 0xE1C, symBinAddr: 0xFF7C, symSize: 0x24 }
  - { offset: 0x352F9, size: 0x8, addend: 0x0, symName: __RINvNtCsfvfooZQ3Axs_4core3ptr13drop_in_placeNCINvNvNtNtNtNtB4_4iter6traits8iterator8Iterator8for_each4callNtCs3cP53eQoTwO_11proc_macro25IdentNCINvMsi_NtCse1nGBsou5OW_5alloc3vecINtB2o_3VecB1G_E14extend_trustedINtNtNtBT_8adapters3map3MapINtNtNtB4_3ops5range5RangejENCNvNtCs31ZvrkAUscI_11derive_more5utils13numbered_vars0EE0E0EB4j_, symObjAddr: 0xE40, symBinAddr: 0xFFA0, symSize: 0x24 }
  - { offset: 0x35328, size: 0x8, addend: 0x0, symName: __RINvNtCsfvfooZQ3Axs_4core3ptr13drop_in_placeNCINvNvNtNtNtNtB4_4iter6traits8iterator8Iterator8for_each4callRNtCs3cP53eQoTwO_11proc_macro25IdentNCINvMsi_NtCse1nGBsou5OW_5alloc3vecINtB2p_3VecB1G_E14extend_trustedINtNtNtBT_8adapters3map3MapINtNtNtB4_5slice4iter4IterRNtNtCs6IAuOt8vWmF_3syn4data5FieldENCNvNtCs31ZvrkAUscI_11derive_more5utils12field_idents0EE0E0EB4R_, symObjAddr: 0xE64, symBinAddr: 0xFFC4, symSize: 0x24 }
  - { offset: 0x35357, size: 0x8, addend: 0x0, symName: __RINvNtCsfvfooZQ3Axs_4core3ptr13drop_in_placeNCNCINvNtNtCs9i5KxIbZ5ph_10proc_macro6bridge6client10run_clientNtBN_11TokenStreamINtNtB4_6option6OptionB1H_ENCNCINvMs7_BN_INtBN_6ClientNtBR_11TokenStreamB2R_E7expand1NvCs31ZvrkAUscI_11derive_more10add_deriveE00E00EB3o_, symObjAddr: 0xE88, symBinAddr: 0xFFE8, symSize: 0x24 }
  - { offset: 0x35386, size: 0x8, addend: 0x0, symName: __RINvNtCsfvfooZQ3Axs_4core3ptr13drop_in_placeNCNCINvNtNtCs9i5KxIbZ5ph_10proc_macro6bridge6client10run_clientNtBN_11TokenStreamINtNtB4_6option6OptionB1H_ENCNCINvMs7_BN_INtBN_6ClientNtBR_11TokenStreamB2R_E7expand1NvCs31ZvrkAUscI_11derive_more10sub_deriveE00E00EB3o_, symObjAddr: 0xEAC, symBinAddr: 0x1000C, symSize: 0x24 }
  - { offset: 0x353B5, size: 0x8, addend: 0x0, symName: __RINvNtCsfvfooZQ3Axs_4core3ptr13drop_in_placeNCNCINvNtNtCs9i5KxIbZ5ph_10proc_macro6bridge6client10run_clientNtBN_11TokenStreamINtNtB4_6option6OptionB1H_ENCNCINvMs7_BN_INtBN_6ClientNtBR_11TokenStreamB2R_E7expand1NvCs31ZvrkAUscI_11derive_more13bit_or_deriveE00E00EB3o_, symObjAddr: 0xED0, symBinAddr: 0x10030, symSize: 0x24 }
  - { offset: 0x353E4, size: 0x8, addend: 0x0, symName: __RINvNtCsfvfooZQ3Axs_4core3ptr13drop_in_placeNCNCINvNtNtCs9i5KxIbZ5ph_10proc_macro6bridge6client10run_clientNtBN_11TokenStreamINtNtB4_6option6OptionB1H_ENCNCINvMs7_BN_INtBN_6ClientNtBR_11TokenStreamB2R_E7expand1NvCs31ZvrkAUscI_11derive_more14bit_and_deriveE00E00EB3o_, symObjAddr: 0xEF4, symBinAddr: 0x10054, symSize: 0x24 }
  - { offset: 0x35413, size: 0x8, addend: 0x0, symName: __RINvNtCsfvfooZQ3Axs_4core3ptr13drop_in_placeNCNCINvNtNtCs9i5KxIbZ5ph_10proc_macro6bridge6client10run_clientNtBN_11TokenStreamINtNtB4_6option6OptionB1H_ENCNCINvMs7_BN_INtBN_6ClientNtBR_11TokenStreamB2R_E7expand1NvCs31ZvrkAUscI_11derive_more14bit_xor_deriveE00E00EB3o_, symObjAddr: 0xF18, symBinAddr: 0x10078, symSize: 0x24 }
  - { offset: 0x35442, size: 0x8, addend: 0x0, symName: __RINvNtCsfvfooZQ3Axs_4core3ptr13drop_in_placeNCNCINvNtNtCs9i5KxIbZ5ph_10proc_macro6bridge6client10run_clientNtBN_11TokenStreamINtNtB4_6option6OptionB1H_ENCNCINvMs7_BN_INtBN_6ClientNtBR_11TokenStreamB2R_E7expand1NvCs31ZvrkAUscI_11derive_more17add_assign_deriveE00E00EB3o_, symObjAddr: 0xF3C, symBinAddr: 0x1009C, symSize: 0x24 }
  - { offset: 0x35471, size: 0x8, addend: 0x0, symName: __RINvNtCsfvfooZQ3Axs_4core3ptr13drop_in_placeNCNCINvNtNtCs9i5KxIbZ5ph_10proc_macro6bridge6client10run_clientNtBN_11TokenStreamINtNtB4_6option6OptionB1H_ENCNCINvMs7_BN_INtBN_6ClientNtBR_11TokenStreamB2R_E7expand1NvCs31ZvrkAUscI_11derive_more17sub_assign_deriveE00E00EB3o_, symObjAddr: 0xF60, symBinAddr: 0x100C0, symSize: 0x24 }
  - { offset: 0x354A0, size: 0x8, addend: 0x0, symName: __RINvNtCsfvfooZQ3Axs_4core3ptr13drop_in_placeNCNCINvNtNtCs9i5KxIbZ5ph_10proc_macro6bridge6client10run_clientNtBN_11TokenStreamINtNtB4_6option6OptionB1H_ENCNCINvMs7_BN_INtBN_6ClientNtBR_11TokenStreamB2R_E7expand1NvCs31ZvrkAUscI_11derive_more20bit_or_assign_deriveE00E00EB3o_, symObjAddr: 0xF84, symBinAddr: 0x100E4, symSize: 0x24 }
  - { offset: 0x354CF, size: 0x8, addend: 0x0, symName: __RINvNtCsfvfooZQ3Axs_4core3ptr13drop_in_placeNCNCINvNtNtCs9i5KxIbZ5ph_10proc_macro6bridge6client10run_clientNtBN_11TokenStreamINtNtB4_6option6OptionB1H_ENCNCINvMs7_BN_INtBN_6ClientNtBR_11TokenStreamB2R_E7expand1NvCs31ZvrkAUscI_11derive_more21bit_and_assign_deriveE00E00EB3o_, symObjAddr: 0xFA8, symBinAddr: 0x10108, symSize: 0x24 }
  - { offset: 0x354FE, size: 0x8, addend: 0x0, symName: __RINvNtCsfvfooZQ3Axs_4core3ptr13drop_in_placeNCNCINvNtNtCs9i5KxIbZ5ph_10proc_macro6bridge6client10run_clientNtBN_11TokenStreamINtNtB4_6option6OptionB1H_ENCNCINvMs7_BN_INtBN_6ClientNtBR_11TokenStreamB2R_E7expand1NvCs31ZvrkAUscI_11derive_more21bit_xor_assign_deriveE00E00EB3o_, symObjAddr: 0xFCC, symBinAddr: 0x1012C, symSize: 0x24 }
  - { offset: 0x3552D, size: 0x8, addend: 0x0, symName: __RINvNtCsfvfooZQ3Axs_4core3ptr13drop_in_placeNtNtCs6IAuOt8vWmF_3syn6derive11DeriveInputECs31ZvrkAUscI_11derive_more, symObjAddr: 0xFF0, symBinAddr: 0x10150, symSize: 0xEC }
  - { offset: 0x3555C, size: 0x8, addend: 0x0, symName: __RINvNtCsfvfooZQ3Axs_4core3ptr13drop_in_placeNtNtCs6IAuOt8vWmF_3syn8generics13TypeParamsMutECs31ZvrkAUscI_11derive_more, symObjAddr: 0x10DC, symBinAddr: 0x1023C, symSize: 0x24 }
  - { offset: 0x3558B, size: 0x8, addend: 0x0, symName: __RINvNtCsfvfooZQ3Axs_4core3ptr13drop_in_placeNtNtNtCs9i5KxIbZ5ph_10proc_macro6bridge3rpc12PanicMessageECs31ZvrkAUscI_11derive_more, symObjAddr: 0x1100, symBinAddr: 0x10260, symSize: 0x50 }
  - { offset: 0x355BA, size: 0x8, addend: 0x0, symName: __RINvNtCsfvfooZQ3Axs_4core3ptr13drop_in_placeNtNtNtCs9i5KxIbZ5ph_10proc_macro6bridge6buffer6BufferECs31ZvrkAUscI_11derive_more, symObjAddr: 0x1150, symBinAddr: 0x102B0, symSize: 0x24 }
  - { offset: 0x355E9, size: 0x8, addend: 0x0, symName: __RINvNtCsfvfooZQ3Axs_4core3ptr13drop_in_placeNtNtNtCs9i5KxIbZ5ph_10proc_macro6bridge6client6BridgeECs31ZvrkAUscI_11derive_more, symObjAddr: 0x1174, symBinAddr: 0x102D4, symSize: 0x24 }
  - { offset: 0x35618, size: 0x8, addend: 0x0, symName: __RINvNtCsfvfooZQ3Axs_4core3ptr13drop_in_placeNtNtNtCscOYdFFY2T5N_3std2io5error5ErrorECs31ZvrkAUscI_11derive_more, symObjAddr: 0x1198, symBinAddr: 0x102F8, symSize: 0x24 }
  - { offset: 0x35647, size: 0x8, addend: 0x0, symName: __RINvNtCsfvfooZQ3Axs_4core3ptr13drop_in_placeNtNtNtCscOYdFFY2T5N_3std2io5error6CustomECs31ZvrkAUscI_11derive_more, symObjAddr: 0x11BC, symBinAddr: 0x1031C, symSize: 0x24 }
  - { offset: 0x35676, size: 0x8, addend: 0x0, symName: __RINvNtCsfvfooZQ3Axs_4core3ptr13drop_in_placeNtNtNtNtCscOYdFFY2T5N_3std2io5error14repr_bitpacked4ReprECs31ZvrkAUscI_11derive_more, symObjAddr: 0x11E0, symBinAddr: 0x10340, symSize: 0x24 }
  - { offset: 0x356A5, size: 0x8, addend: 0x0, symName: __RINvNtCsfvfooZQ3Axs_4core3ptr13drop_in_placeNtNvNtNtNtCs9i5KxIbZ5ph_10proc_macro6bridge6client5state3set13RestoreOnDropECs31ZvrkAUscI_11derive_more, symObjAddr: 0x1204, symBinAddr: 0x10364, symSize: 0x24 }
  - { offset: 0x356D4, size: 0x8, addend: 0x0, symName: __RINvNtCsfvfooZQ3Axs_4core3ptr13drop_in_placeSNtCs3cP53eQoTwO_11proc_macro211TokenStreamECs31ZvrkAUscI_11derive_more, symObjAddr: 0x1228, symBinAddr: 0x10388, symSize: 0xB4 }
  - { offset: 0x35703, size: 0x8, addend: 0x0, symName: __RINvNtCsfvfooZQ3Axs_4core3ptr13drop_in_placeSNtCs3cP53eQoTwO_11proc_macro25IdentECs31ZvrkAUscI_11derive_more, symObjAddr: 0x12DC, symBinAddr: 0x1043C, symSize: 0xC4 }
  - { offset: 0x37A90, size: 0x8, addend: 0x0, symName: __RNvXsO_NtCsfvfooZQ3Axs_4core6optionINtB5_8IntoIterRNtNtCs6IAuOt8vWmF_3syn4data7VariantENtNtB7_5clone5Clone5cloneCs31ZvrkAUscI_11derive_more, symObjAddr: 0x1CA0, symBinAddr: 0x10DD4, symSize: 0x68 }
  - { offset: 0x37B7F, size: 0x8, addend: 0x0, symName: __RNvXsv_NtCsfvfooZQ3Axs_4core6optionINtB5_8IntoIterRNtNtCs6IAuOt8vWmF_3syn4data7VariantENtNtNtNtB7_4iter6traits8iterator8Iterator9size_hintCs31ZvrkAUscI_11derive_more, symObjAddr: 0x2548, symBinAddr: 0x1167C, symSize: 0x44 }
  - { offset: 0x3821A, size: 0x8, addend: 0x0, symName: __RINvNtCsfvfooZQ3Axs_4core9panicking13panic_displayNtNtCs6IAuOt8vWmF_3syn5error5ErrorECs31ZvrkAUscI_11derive_more, symObjAddr: 0x13A0, symBinAddr: 0x10500, symSize: 0x88 }
  - { offset: 0x38656, size: 0x8, addend: 0x0, symName: __RNvXso_NtCsfvfooZQ3Axs_4core6resultINtB5_6ResultNtNtCs6IAuOt8vWmF_3syn6derive11DeriveInputNtNtBO_5error5ErrorENtNtNtB7_3ops9try_trait3Try6branchCs31ZvrkAUscI_11derive_more, symObjAddr: 0x2448, symBinAddr: 0x1157C, symSize: 0xB4 }
  - { offset: 0x38C1C, size: 0x8, addend: 0x0, symName: __RNvYNCNkNvNtNtNtCs9i5KxIbZ5ph_10proc_macro6bridge6client5state12BRIDGE_STATE0s_0INtNtNtCsfvfooZQ3Axs_4core3ops8function6FnOnceTINtNtB1n_6option6OptionQIB22_INtNtB1n_4cell4CellPuEEEEE9call_onceCs31ZvrkAUscI_11derive_more, symObjAddr: 0x2B00, symBinAddr: 0x11C34, symSize: 0x4C }
  - { offset: 0x38C60, size: 0x8, addend: 0x0, symName: __RNvYNvYNtNtCs6IAuOt8vWmF_3syn6derive11DeriveInputNtNtB9_5parse5Parse5parseINtNtNtCsfvfooZQ3Axs_4core3ops8function6FnOnceTRNtBN_11ParseBufferEE9call_onceCs31ZvrkAUscI_11derive_more, symObjAddr: 0x2D6C, symBinAddr: 0x11EA0, symSize: 0x24 }
  - { offset: 0x38CA4, size: 0x8, addend: 0x0, symName: __RNvYNvYNtNtCs6IAuOt8vWmF_3syn8generics14TypeParamBoundNtNtB9_11parse_quote10ParseQuote5parseINtNtNtCsfvfooZQ3Axs_4core3ops8function6FnOnceTRNtNtB9_5parse11ParseBufferEE9call_onceCs31ZvrkAUscI_11derive_more, symObjAddr: 0x2D90, symBinAddr: 0x11EC4, symSize: 0x24 }
  - { offset: 0x38CE8, size: 0x8, addend: 0x0, symName: __RNvYNvYNtNtNtCs9i5KxIbZ5ph_10proc_macro6bridge3rpc12PanicMessageINtNtCsfvfooZQ3Axs_4core7convert4FromINtNtCse1nGBsou5OW_5alloc5boxed3BoxDNtNtB15_3any3AnyNtNtB15_6marker4SendEL_EE4fromINtNtNtB15_3ops8function6FnOnceTB1B_EE9call_onceCs31ZvrkAUscI_11derive_more, symObjAddr: 0x2DB4, symBinAddr: 0x11EE8, symSize: 0x2C }
  - { offset: 0x38D32, size: 0x8, addend: 0x0, symName: __RNvYNvCs31ZvrkAUscI_11derive_more10add_deriveINtNtNtCsfvfooZQ3Axs_4core3ops8function2FnTNtCs9i5KxIbZ5ph_10proc_macro11TokenStreamEE4callB4_, symObjAddr: 0x2BDC, symBinAddr: 0x11D10, symSize: 0x28 }
  - { offset: 0x38D76, size: 0x8, addend: 0x0, symName: __RNvYNvCs31ZvrkAUscI_11derive_more10sub_deriveINtNtNtCsfvfooZQ3Axs_4core3ops8function2FnTNtCs9i5KxIbZ5ph_10proc_macro11TokenStreamEE4callB4_, symObjAddr: 0x2C04, symBinAddr: 0x11D38, symSize: 0x28 }
  - { offset: 0x38DBA, size: 0x8, addend: 0x0, symName: __RNvYNvCs31ZvrkAUscI_11derive_more13bit_or_deriveINtNtNtCsfvfooZQ3Axs_4core3ops8function2FnTNtCs9i5KxIbZ5ph_10proc_macro11TokenStreamEE4callB4_, symObjAddr: 0x2C2C, symBinAddr: 0x11D60, symSize: 0x28 }
  - { offset: 0x38DFE, size: 0x8, addend: 0x0, symName: __RNvYNvCs31ZvrkAUscI_11derive_more14bit_and_deriveINtNtNtCsfvfooZQ3Axs_4core3ops8function2FnTNtCs9i5KxIbZ5ph_10proc_macro11TokenStreamEE4callB4_, symObjAddr: 0x2C54, symBinAddr: 0x11D88, symSize: 0x28 }
  - { offset: 0x38E42, size: 0x8, addend: 0x0, symName: __RNvYNvCs31ZvrkAUscI_11derive_more14bit_xor_deriveINtNtNtCsfvfooZQ3Axs_4core3ops8function2FnTNtCs9i5KxIbZ5ph_10proc_macro11TokenStreamEE4callB4_, symObjAddr: 0x2C7C, symBinAddr: 0x11DB0, symSize: 0x28 }
  - { offset: 0x38E86, size: 0x8, addend: 0x0, symName: __RNvYNvCs31ZvrkAUscI_11derive_more17add_assign_deriveINtNtNtCsfvfooZQ3Axs_4core3ops8function2FnTNtCs9i5KxIbZ5ph_10proc_macro11TokenStreamEE4callB4_, symObjAddr: 0x2CA4, symBinAddr: 0x11DD8, symSize: 0x28 }
  - { offset: 0x38ECA, size: 0x8, addend: 0x0, symName: __RNvYNvCs31ZvrkAUscI_11derive_more17sub_assign_deriveINtNtNtCsfvfooZQ3Axs_4core3ops8function2FnTNtCs9i5KxIbZ5ph_10proc_macro11TokenStreamEE4callB4_, symObjAddr: 0x2CCC, symBinAddr: 0x11E00, symSize: 0x28 }
  - { offset: 0x38F0E, size: 0x8, addend: 0x0, symName: __RNvYNvCs31ZvrkAUscI_11derive_more20bit_or_assign_deriveINtNtNtCsfvfooZQ3Axs_4core3ops8function2FnTNtCs9i5KxIbZ5ph_10proc_macro11TokenStreamEE4callB4_, symObjAddr: 0x2CF4, symBinAddr: 0x11E28, symSize: 0x28 }
  - { offset: 0x38F52, size: 0x8, addend: 0x0, symName: __RNvYNvCs31ZvrkAUscI_11derive_more21bit_and_assign_deriveINtNtNtCsfvfooZQ3Axs_4core3ops8function2FnTNtCs9i5KxIbZ5ph_10proc_macro11TokenStreamEE4callB4_, symObjAddr: 0x2D1C, symBinAddr: 0x11E50, symSize: 0x28 }
  - { offset: 0x38F96, size: 0x8, addend: 0x0, symName: __RNvYNvCs31ZvrkAUscI_11derive_more21bit_xor_assign_deriveINtNtNtCsfvfooZQ3Axs_4core3ops8function2FnTNtCs9i5KxIbZ5ph_10proc_macro11TokenStreamEE4callB4_, symObjAddr: 0x2D44, symBinAddr: 0x11E78, symSize: 0x28 }
  - { offset: 0x39132, size: 0x8, addend: 0x0, symName: __RNvXst_NtNtCsfvfooZQ3Axs_4core3str7patternReNtB5_7Pattern13into_searcherCs31ZvrkAUscI_11derive_more, symObjAddr: 0x24FC, symBinAddr: 0x11630, symSize: 0x4C }
  - { offset: 0x39175, size: 0x8, addend: 0x0, symName: __RNvXsw_NtNtCsfvfooZQ3Axs_4core3str7patternNtB5_11StrSearcherNtB5_15ReverseSearcher9next_backCs31ZvrkAUscI_11derive_more, symObjAddr: 0x258C, symBinAddr: 0x116C0, symSize: 0x42C }
  - { offset: 0x39460, size: 0x8, addend: 0x0, symName: __RNvXsz_NtNtCsfvfooZQ3Axs_4core3str7patternNtB5_14RejectAndMatchNtB5_14TwoWayStrategy16use_early_rejectCs31ZvrkAUscI_11derive_more, symObjAddr: 0x29B8, symBinAddr: 0x11AEC, symSize: 0xC }
  - { offset: 0x3947E, size: 0x8, addend: 0x0, symName: __RNvXsz_NtNtCsfvfooZQ3Axs_4core3str7patternNtB5_14RejectAndMatchNtB5_14TwoWayStrategy8matchingCs31ZvrkAUscI_11derive_more, symObjAddr: 0x29C4, symBinAddr: 0x11AF8, symSize: 0x20 }
  - { offset: 0x394BB, size: 0x8, addend: 0x0, symName: __RNvXsz_NtNtCsfvfooZQ3Axs_4core3str7patternNtB5_14RejectAndMatchNtB5_14TwoWayStrategy9rejectingCs31ZvrkAUscI_11derive_more, symObjAddr: 0x29E4, symBinAddr: 0x11B18, symSize: 0x28 }
  - { offset: 0x394FE, size: 0x8, addend: 0x0, symName: __RNvYNtNtNtCsfvfooZQ3Axs_4core3str7pattern11StrSearcherNtB4_15ReverseSearcher16next_reject_backCs31ZvrkAUscI_11derive_more, symObjAddr: 0x2B4C, symBinAddr: 0x11C80, symSize: 0x90 }
  - { offset: 0x39642, size: 0x8, addend: 0x0, symName: __RNvNvXs5_NtNtCsfvfooZQ3Axs_4core3str6traitsINtNtNtBb_3ops5range5RangejEINtNtNtBb_5slice5index10SliceIndexeE13get_unchecked18precondition_checkCs31ZvrkAUscI_11derive_more, symObjAddr: 0x1AD0, symBinAddr: 0x10C04, symSize: 0x60 }
  - { offset: 0x399C2, size: 0x8, addend: 0x0, symName: __RNvXNtNtNtCsfvfooZQ3Axs_4core4iter6traits8iteratorQNtNtCs6IAuOt8vWmF_3syn8generics13TypeParamsMutNtB2_8Iterator4nextCs31ZvrkAUscI_11derive_more, symObjAddr: 0x1BB8, symBinAddr: 0x10CEC, symSize: 0x28 }
  - { offset: 0x39A05, size: 0x8, addend: 0x0, symName: __RNvXNtNtNtCsfvfooZQ3Axs_4core4iter6traits7collectQNtNtCs6IAuOt8vWmF_3syn8generics13TypeParamsMutNtB2_12IntoIterator9into_iterCs31ZvrkAUscI_11derive_more, symObjAddr: 0x1BA4, symBinAddr: 0x10CD8, symSize: 0x14 }
  - { offset: 0x39A48, size: 0x8, addend: 0x0, symName: __RNvYINtNtCsfvfooZQ3Axs_4core6option8IntoIterRNtNtCs6IAuOt8vWmF_3syn4data7VariantENtNtNtNtB7_4iter6traits10exact_size17ExactSizeIterator3lenCs31ZvrkAUscI_11derive_more, symObjAddr: 0x2A0C, symBinAddr: 0x11B40, symSize: 0xF4 }
  - { offset: 0x39D56, size: 0x8, addend: 0x0, symName: __RNvNvNtCsfvfooZQ3Axs_4core10intrinsics19copy_nonoverlapping18precondition_checkCs31ZvrkAUscI_11derive_more, symObjAddr: 0x1754, symBinAddr: 0x10888, symSize: 0x2E4 }
  - { offset: 0x3A0BB, size: 0x8, addend: 0x0, symName: __RNvNvNtNtCsfvfooZQ3Axs_4core4char7convert18from_u32_unchecked18precondition_checkCs31ZvrkAUscI_11derive_more, symObjAddr: 0x1A38, symBinAddr: 0x10B6C, symSize: 0x98 }
  - { offset: 0x3A2DC, size: 0x8, addend: 0x0, symName: __RNCNvMs3_NtNtCscOYdFFY2T5N_3std6thread5localINtB7_8LocalKeyINtNtCsfvfooZQ3Axs_4core4cell4CellPuEE7replace0Cs31ZvrkAUscI_11derive_more, symObjAddr: 0x1450, symBinAddr: 0x10588, symSize: 0x28 }
  - { offset: 0x3A616, size: 0x8, addend: 0x0, symName: ___rustc_proc_macro_decls_23512ceb329dbbc6__, symObjAddr: 0x5588, symBinAddr: 0x1FCA68, symSize: 0x0 }
  - { offset: 0x3A629, size: 0x8, addend: 0x0, symName: __RNvNtCs31ZvrkAUscI_11derive_more15add_assign_like6expand, symObjAddr: 0x2DE0, symBinAddr: 0x11F14, symSize: 0x890 }
  - { offset: 0x3A87D, size: 0x8, addend: 0x0, symName: __RNvCs31ZvrkAUscI_11derive_more10add_derive, symObjAddr: 0x3670, symBinAddr: 0x127A4, symSize: 0x148 }
  - { offset: 0x3A8F7, size: 0x8, addend: 0x0, symName: __RNvCs31ZvrkAUscI_11derive_more10sub_derive, symObjAddr: 0x37B8, symBinAddr: 0x128EC, symSize: 0x148 }
  - { offset: 0x3A971, size: 0x8, addend: 0x0, symName: __RNvCs31ZvrkAUscI_11derive_more14bit_and_derive, symObjAddr: 0x3900, symBinAddr: 0x12A34, symSize: 0x148 }
  - { offset: 0x3A9EB, size: 0x8, addend: 0x0, symName: __RNvCs31ZvrkAUscI_11derive_more13bit_or_derive, symObjAddr: 0x3A48, symBinAddr: 0x12B7C, symSize: 0x148 }
  - { offset: 0x3AA65, size: 0x8, addend: 0x0, symName: __RNvCs31ZvrkAUscI_11derive_more14bit_xor_derive, symObjAddr: 0x3B90, symBinAddr: 0x12CC4, symSize: 0x148 }
  - { offset: 0x3AADF, size: 0x8, addend: 0x0, symName: __RNvCs31ZvrkAUscI_11derive_more17add_assign_derive, symObjAddr: 0x3CD8, symBinAddr: 0x12E0C, symSize: 0x148 }
  - { offset: 0x3AB59, size: 0x8, addend: 0x0, symName: __RNvCs31ZvrkAUscI_11derive_more17sub_assign_derive, symObjAddr: 0x3E20, symBinAddr: 0x12F54, symSize: 0x148 }
  - { offset: 0x3ABD3, size: 0x8, addend: 0x0, symName: __RNvCs31ZvrkAUscI_11derive_more21bit_and_assign_derive, symObjAddr: 0x3F68, symBinAddr: 0x1309C, symSize: 0x148 }
  - { offset: 0x3AC4D, size: 0x8, addend: 0x0, symName: __RNvCs31ZvrkAUscI_11derive_more20bit_or_assign_derive, symObjAddr: 0x40B0, symBinAddr: 0x131E4, symSize: 0x148 }
  - { offset: 0x3ACC7, size: 0x8, addend: 0x0, symName: __RNvCs31ZvrkAUscI_11derive_more21bit_xor_assign_derive, symObjAddr: 0x41F8, symBinAddr: 0x1332C, symSize: 0x148 }
  - { offset: 0x3B3F4, size: 0x8, addend: 0x0, symName: __RINvMNtCsfvfooZQ3Axs_4core6optionINtB3_6OptionRNtNtCs6IAuOt8vWmF_3syn4data7VariantE7or_elseNCNvXsw_NtBN_10punctuatedINtB1z_11PrivateIterBJ_NtNtBN_5token5CommaENtNtNtNtB5_4iter6traits8iterator8Iterator4nexts_0ECs31ZvrkAUscI_11derive_more, symObjAddr: 0x0, symBinAddr: 0xF1B8, symSize: 0xA8 }
  - { offset: 0x3B47D, size: 0x8, addend: 0x0, symName: __RINvMNtCsfvfooZQ3Axs_4core6optionINtB3_6OptionRNtNtCs6IAuOt8vWmF_3syn4data7VariantE7or_elseNCNvXsx_NtBN_10punctuatedINtB1z_11PrivateIterBJ_NtNtBN_5token5CommaENtNtNtNtB5_4iter6traits12double_ended19DoubleEndedIterator9next_back0ECs31ZvrkAUscI_11derive_more, symObjAddr: 0xA8, symBinAddr: 0xF260, symSize: 0xA8 }
  - { offset: 0x3B4DF, size: 0x8, addend: 0x0, symName: __RINvMNtCsfvfooZQ3Axs_4core6optionINtB3_6OptionRTNtNtCs6IAuOt8vWmF_3syn4data7VariantNtNtBO_5token5CommaEE3mapRBK_NCNCNvXsx_NtBO_10punctuatedINtB1W_11PrivateIterBK_B1j_ENtNtNtNtB5_4iter6traits12double_ended19DoubleEndedIterator9next_back00ECs31ZvrkAUscI_11derive_more, symObjAddr: 0x150, symBinAddr: 0xF308, symSize: 0x50 }
  - { offset: 0x3B54A, size: 0x8, addend: 0x0, symName: __RINvMNtCsfvfooZQ3Axs_4core6optionINtB3_6OptionRTNtNtCs6IAuOt8vWmF_3syn4data7VariantNtNtBO_5token5CommaEE3mapRBK_NCNvXsw_NtBO_10punctuatedINtB1U_11PrivateIterBK_B1j_ENtNtNtNtB5_4iter6traits8iterator8Iterator4next0ECs31ZvrkAUscI_11derive_more, symObjAddr: 0x1A0, symBinAddr: 0xF358, symSize: 0x50 }
  - { offset: 0x3B5F4, size: 0x8, addend: 0x0, symName: __RINvMs2_NtNtCscOYdFFY2T5N_3std6thread5localINtB6_8LocalKeyINtNtCsfvfooZQ3Axs_4core4cell4CellPuEE4withNCNvMs3_B6_BF_7replace0B1s_ECs31ZvrkAUscI_11derive_more, symObjAddr: 0x1F0, symBinAddr: 0xF3A8, symSize: 0x54 }
  - { offset: 0x3B6AD, size: 0x8, addend: 0x0, symName: __RINvMs2_NtNtCscOYdFFY2T5N_3std6thread5localINtB6_8LocalKeyINtNtCsfvfooZQ3Axs_4core4cell4CellPuEE8try_withNCNvMs3_B6_BF_7replace0B1s_ECs31ZvrkAUscI_11derive_more, symObjAddr: 0x244, symBinAddr: 0xF3FC, symSize: 0xE4 }
  - { offset: 0x3B87D, size: 0x8, addend: 0x0, symName: __RINvMsx_NtNtCsfvfooZQ3Axs_4core3str7patternNtB6_14TwoWaySearcher9next_backNtB6_14RejectAndMatchECs31ZvrkAUscI_11derive_more, symObjAddr: 0x328, symBinAddr: 0xF4E0, symSize: 0x504 }
  - { offset: 0x3BD49, size: 0x8, addend: 0x0, symName: __RNvMNtCs6IAuOt8vWmF_3syn5dropsINtB2_6NoDropINtNtB4_10punctuated11PrivateIterNtNtB4_4data7VariantNtNtB4_5token5CommaEE3newCs31ZvrkAUscI_11derive_more, symObjAddr: 0x1478, symBinAddr: 0x105B0, symSize: 0x40 }
  - { offset: 0x3BDAB, size: 0x8, addend: 0x0, symName: __RNvMNtCsfvfooZQ3Axs_4core6optionINtB2_6OptionNtCs3cP53eQoTwO_11proc_macro25IdentE6as_refCs31ZvrkAUscI_11derive_more, symObjAddr: 0x14B8, symBinAddr: 0x105F0, symSize: 0x4C }
  - { offset: 0x3BE02, size: 0x8, addend: 0x0, symName: __RNvMNtCsfvfooZQ3Axs_4core6optionINtB2_6OptionRNtCs3cP53eQoTwO_11proc_macro25IdentE6expectCs31ZvrkAUscI_11derive_more, symObjAddr: 0x1504, symBinAddr: 0x1063C, symSize: 0x5C }
  - { offset: 0x3BE80, size: 0x8, addend: 0x0, symName: __RNvMs1_NtNtCsfvfooZQ3Axs_4core3ptr8non_nullINtB5_7NonNullRNtNtCs6IAuOt8vWmF_3syn4data5FieldE7sub_ptrCs31ZvrkAUscI_11derive_more, symObjAddr: 0x1560, symBinAddr: 0x10698, symSize: 0x74 }
  - { offset: 0x3BF79, size: 0x8, addend: 0x0, symName: __RNvMs1_NtNtCsfvfooZQ3Axs_4core3ptr8non_nullINtB5_7NonNullTNtNtCs6IAuOt8vWmF_3syn4data7VariantNtNtBY_5token5CommaEE7sub_ptrCs31ZvrkAUscI_11derive_more, symObjAddr: 0x15D4, symBinAddr: 0x1070C, symSize: 0x74 }
  - { offset: 0x3C0E1, size: 0x8, addend: 0x0, symName: __RNvXNtCs2cqEZUIJimJ_5quote9to_tokensRNtNtCs6IAuOt8vWmF_3syn8generics11WhereClauseNtB2_8ToTokens9to_tokensCs31ZvrkAUscI_11derive_more, symObjAddr: 0x1B30, symBinAddr: 0x10C64, symSize: 0x40 }
  - { offset: 0x3C126, size: 0x8, addend: 0x0, symName: __RNvXs3_NtCs2cqEZUIJimJ_5quote9to_tokensINtNtCsfvfooZQ3Axs_4core6option6OptionRNtNtCs6IAuOt8vWmF_3syn8generics11WhereClauseENtB5_8ToTokens9to_tokensCs31ZvrkAUscI_11derive_more, symObjAddr: 0x1C1C, symBinAddr: 0x10D50, symSize: 0x84 }
  - { offset: 0x3C966, size: 0x8, addend: 0x0, symName: __RINvXNtNtCse1nGBsou5OW_5alloc5slice4hackNtNtCs6IAuOt8vWmF_3syn4item11ForeignItemNtB3_10ConvertVec6to_vecNtNtB7_5alloc6GlobalEBG_, symObjAddr: 0x0, symBinAddr: 0x13488, symSize: 0x36C }
  - { offset: 0x3DEDD, size: 0x8, addend: 0x0, symName: __RNvXNtNtCs6IAuOt8vWmF_3syn4item7parsingNtB4_4ItemNtNtB6_5parse5Parse5parse, symObjAddr: 0x34B4, symBinAddr: 0x14E90, symSize: 0x1B4 }
  - { offset: 0x3DF83, size: 0x8, addend: 0x0, symName: __RNvXs0_NtNtCs6IAuOt8vWmF_3syn4item7parsingNtB7_9ItemMacroNtNtB9_5parse5Parse5parse, symObjAddr: 0x3668, symBinAddr: 0x15044, symSize: 0x620 }
  - { offset: 0x3E151, size: 0x8, addend: 0x0, symName: __RNvXs1_NtNtCs6IAuOt8vWmF_3syn4item7parsingNtB7_15ItemExternCrateNtNtB9_5parse5Parse5parse, symObjAddr: 0x3C88, symBinAddr: 0x15664, symSize: 0x93C }
  - { offset: 0x3E35B, size: 0x8, addend: 0x0, symName: __RNvXs3_NtNtCs6IAuOt8vWmF_3syn4item7parsingNtB7_7UseTreeNtNtB9_5parse5Parse5parse, symObjAddr: 0x461C, symBinAddr: 0x15FA0, symSize: 0x58 }
  - { offset: 0x3E3AD, size: 0x8, addend: 0x0, symName: __RNvXs6_NtNtCs6IAuOt8vWmF_3syn4item7parsingNtB7_9SignatureNtNtB9_5parse5Parse5parse, symObjAddr: 0x5B9C, symBinAddr: 0x15FF8, symSize: 0x60 }
  - { offset: 0x3E3FF, size: 0x8, addend: 0x0, symName: __RNvXs9_NtNtCs6IAuOt8vWmF_3syn4item7parsingNtB7_8ReceiverNtNtB9_5parse5Parse5parse, symObjAddr: 0x622C, symBinAddr: 0x16058, symSize: 0x95C }
  - { offset: 0x3E658, size: 0x8, addend: 0x0, symName: __RNvXsa_NtNtCs6IAuOt8vWmF_3syn4item7parsingNtB7_7ItemModNtNtB9_5parse5Parse5parse, symObjAddr: 0x6B88, symBinAddr: 0x169B4, symSize: 0xC34 }
  - { offset: 0x3E8BB, size: 0x8, addend: 0x0, symName: __RNvXsb_NtNtCs6IAuOt8vWmF_3syn4item7parsingNtB7_14ItemForeignModNtNtB9_5parse5Parse5parse, symObjAddr: 0x77BC, symBinAddr: 0x175E8, symSize: 0x610 }
  - { offset: 0x3EA6C, size: 0x8, addend: 0x0, symName: __RNvXsc_NtNtCs6IAuOt8vWmF_3syn4item7parsingNtB7_11ForeignItemNtNtB9_5parse5Parse5parse, symObjAddr: 0x7DCC, symBinAddr: 0x17BF8, symSize: 0x1D80 }
  - { offset: 0x3F0DC, size: 0x8, addend: 0x0, symName: __RNvXsg_NtNtCs6IAuOt8vWmF_3syn4item7parsingNtB7_16ForeignItemMacroNtNtB9_5parse5Parse5parse, symObjAddr: 0xAE74, symBinAddr: 0x19978, symSize: 0x32C }
  - { offset: 0x3F1F0, size: 0x8, addend: 0x0, symName: __RNvXsi_NtNtCs6IAuOt8vWmF_3syn4item7parsingNtB7_10ItemStructNtNtB9_5parse5Parse5parse, symObjAddr: 0xBB78, symBinAddr: 0x19CA4, symSize: 0x638 }
  - { offset: 0x3F3ED, size: 0x8, addend: 0x0, symName: __RNvXsj_NtNtCs6IAuOt8vWmF_3syn4item7parsingNtB7_8ItemEnumNtNtB9_5parse5Parse5parse, symObjAddr: 0xC1B0, symBinAddr: 0x1A2DC, symSize: 0x63C }
  - { offset: 0x3F5EA, size: 0x8, addend: 0x0, symName: __RNvXsk_NtNtCs6IAuOt8vWmF_3syn4item7parsingNtB7_9ItemUnionNtNtB9_5parse5Parse5parse, symObjAddr: 0xC7EC, symBinAddr: 0x1A918, symSize: 0x62C }
  - { offset: 0x3F7D6, size: 0x8, addend: 0x0, symName: __RNvXsl_NtNtCs6IAuOt8vWmF_3syn4item7parsingNtB7_9ItemTraitNtNtB9_5parse5Parse5parse, symObjAddr: 0xCE18, symBinAddr: 0x1AF44, symSize: 0x634 }
  - { offset: 0x3F9DD, size: 0x8, addend: 0x0, symName: __RNvXsn_NtNtCs6IAuOt8vWmF_3syn4item7parsingNtB7_9TraitItemNtNtB9_5parse5Parse5parse, symObjAddr: 0xD6BC, symBinAddr: 0x1B578, symSize: 0x1654 }
  - { offset: 0x3FE52, size: 0x8, addend: 0x0, symName: __RNvXsp_NtNtCs6IAuOt8vWmF_3syn4item7parsingNtB7_11TraitItemFnNtNtB9_5parse5Parse5parse, symObjAddr: 0xF584, symBinAddr: 0x1CBCC, symSize: 0x7DC }
  - { offset: 0x40056, size: 0x8, addend: 0x0, symName: __RNvXsr_NtNtCs6IAuOt8vWmF_3syn4item7parsingNtB7_14TraitItemMacroNtNtB9_5parse5Parse5parse, symObjAddr: 0x10484, symBinAddr: 0x1D3A8, symSize: 0x32C }
  - { offset: 0x4016A, size: 0x8, addend: 0x0, symName: __RNvXst_NtNtCs6IAuOt8vWmF_3syn4item7parsingNtB7_8ImplItemNtNtB9_5parse5Parse5parse, symObjAddr: 0x10810, symBinAddr: 0x1D6D4, symSize: 0x1A78 }
  - { offset: 0x4068C, size: 0x8, addend: 0x0, symName: __RNvXsx_NtNtCs6IAuOt8vWmF_3syn4item7parsingNtB7_13ImplItemMacroNtNtB9_5parse5Parse5parse, symObjAddr: 0x134F8, symBinAddr: 0x1F14C, symSize: 0x32C }
  - { offset: 0x407A0, size: 0x8, addend: 0x0, symName: __RNvXsz_NtNtCs6IAuOt8vWmF_3syn4item7parsingNtB7_16StaticMutabilityNtNtB9_5parse5Parse5parse, symObjAddr: 0x13824, symBinAddr: 0x1F478, symSize: 0xDC }
  - { offset: 0x40816, size: 0x8, addend: 0x0, symName: __RNvXNtNtCs6IAuOt8vWmF_3syn4item8printingNtB4_15ItemExternCrateNtNtCs2cqEZUIJimJ_5quote9to_tokens8ToTokens9to_tokens, symObjAddr: 0x13900, symBinAddr: 0x1F554, symSize: 0x110 }
  - { offset: 0x40883, size: 0x8, addend: 0x0, symName: __RNvXs_NtNtCs6IAuOt8vWmF_3syn4item8printingNtB6_7ItemUseNtNtCs2cqEZUIJimJ_5quote9to_tokens8ToTokens9to_tokens, symObjAddr: 0x13A10, symBinAddr: 0x1F664, symSize: 0xA4 }
  - { offset: 0x408C2, size: 0x8, addend: 0x0, symName: __RNvXs0_NtNtCs6IAuOt8vWmF_3syn4item8printingNtB7_10ItemStaticNtNtCs2cqEZUIJimJ_5quote9to_tokens8ToTokens9to_tokens, symObjAddr: 0x13AB4, symBinAddr: 0x1F708, symSize: 0xE4 }
  - { offset: 0x40901, size: 0x8, addend: 0x0, symName: __RNvXs1_NtNtCs6IAuOt8vWmF_3syn4item8printingNtB7_9ItemConstNtNtCs2cqEZUIJimJ_5quote9to_tokens8ToTokens9to_tokens, symObjAddr: 0x13B98, symBinAddr: 0x1F7EC, symSize: 0xD4 }
  - { offset: 0x40940, size: 0x8, addend: 0x0, symName: __RNvXs2_NtNtCs6IAuOt8vWmF_3syn4item8printingNtB7_6ItemFnNtNtCs2cqEZUIJimJ_5quote9to_tokens8ToTokens9to_tokens, symObjAddr: 0x13C6C, symBinAddr: 0x1F8C0, symSize: 0xB4 }
  - { offset: 0x4097F, size: 0x8, addend: 0x0, symName: __RNvXs3_NtNtCs6IAuOt8vWmF_3syn4item8printingNtB7_7ItemModNtNtCs2cqEZUIJimJ_5quote9to_tokens8ToTokens9to_tokens, symObjAddr: 0x13D20, symBinAddr: 0x1F974, symSize: 0x110 }
  - { offset: 0x409EC, size: 0x8, addend: 0x0, symName: __RNvXs4_NtNtCs6IAuOt8vWmF_3syn4item8printingNtB7_14ItemForeignModNtNtCs2cqEZUIJimJ_5quote9to_tokens8ToTokens9to_tokens, symObjAddr: 0x13E30, symBinAddr: 0x1FA84, symSize: 0x88 }
  - { offset: 0x40A2B, size: 0x8, addend: 0x0, symName: __RNvXs5_NtNtCs6IAuOt8vWmF_3syn4item8printingNtB7_8ItemTypeNtNtCs2cqEZUIJimJ_5quote9to_tokens8ToTokens9to_tokens, symObjAddr: 0x13EB8, symBinAddr: 0x1FB0C, symSize: 0xD4 }
  - { offset: 0x40A6A, size: 0x8, addend: 0x0, symName: __RNvXs6_NtNtCs6IAuOt8vWmF_3syn4item8printingNtB7_8ItemEnumNtNtCs2cqEZUIJimJ_5quote9to_tokens8ToTokens9to_tokens, symObjAddr: 0x13F8C, symBinAddr: 0x1FBE0, symSize: 0xB8 }
  - { offset: 0x40AA9, size: 0x8, addend: 0x0, symName: __RNvXs7_NtNtCs6IAuOt8vWmF_3syn4item8printingNtB7_10ItemStructNtNtCs2cqEZUIJimJ_5quote9to_tokens8ToTokens9to_tokens, symObjAddr: 0x14044, symBinAddr: 0x1FC98, symSize: 0x188 }
  - { offset: 0x40B24, size: 0x8, addend: 0x0, symName: __RNvXs8_NtNtCs6IAuOt8vWmF_3syn4item8printingNtB7_9ItemUnionNtNtCs2cqEZUIJimJ_5quote9to_tokens8ToTokens9to_tokens, symObjAddr: 0x141CC, symBinAddr: 0x1FE20, symSize: 0xB4 }
  - { offset: 0x40B63, size: 0x8, addend: 0x0, symName: __RNvXs9_NtNtCs6IAuOt8vWmF_3syn4item8printingNtB7_9ItemTraitNtNtCs2cqEZUIJimJ_5quote9to_tokens8ToTokens9to_tokens, symObjAddr: 0x14280, symBinAddr: 0x1FED4, symSize: 0x130 }
  - { offset: 0x40BA2, size: 0x8, addend: 0x0, symName: __RNvXsa_NtNtCs6IAuOt8vWmF_3syn4item8printingNtB7_14ItemTraitAliasNtNtCs2cqEZUIJimJ_5quote9to_tokens8ToTokens9to_tokens, symObjAddr: 0x143B0, symBinAddr: 0x20004, symSize: 0xD4 }
  - { offset: 0x40BE1, size: 0x8, addend: 0x0, symName: __RNvXsb_NtNtCs6IAuOt8vWmF_3syn4item8printingNtB7_8ItemImplNtNtCs2cqEZUIJimJ_5quote9to_tokens8ToTokens9to_tokens, symObjAddr: 0x14484, symBinAddr: 0x200D8, symSize: 0x14C }
  - { offset: 0x40C5E, size: 0x8, addend: 0x0, symName: __RNvXsc_NtNtCs6IAuOt8vWmF_3syn4item8printingNtB7_9ItemMacroNtNtCs2cqEZUIJimJ_5quote9to_tokens8ToTokens9to_tokens, symObjAddr: 0x145D0, symBinAddr: 0x20224, symSize: 0x148 }
  - { offset: 0x40CEF, size: 0x8, addend: 0x0, symName: __RNvXsd_NtNtCs6IAuOt8vWmF_3syn4item8printingNtB7_7UsePathNtNtCs2cqEZUIJimJ_5quote9to_tokens8ToTokens9to_tokens, symObjAddr: 0x14718, symBinAddr: 0x2036C, symSize: 0x60 }
  - { offset: 0x40D2E, size: 0x8, addend: 0x0, symName: __RNvXse_NtNtCs6IAuOt8vWmF_3syn4item8printingNtB7_7UseNameNtNtCs2cqEZUIJimJ_5quote9to_tokens8ToTokens9to_tokens, symObjAddr: 0x14778, symBinAddr: 0x203CC, symSize: 0x3C }
  - { offset: 0x40D6D, size: 0x8, addend: 0x0, symName: __RNvXsf_NtNtCs6IAuOt8vWmF_3syn4item8printingNtB7_9UseRenameNtNtCs2cqEZUIJimJ_5quote9to_tokens8ToTokens9to_tokens, symObjAddr: 0x147B4, symBinAddr: 0x20408, symSize: 0x60 }
  - { offset: 0x40DAC, size: 0x8, addend: 0x0, symName: __RNvXsg_NtNtCs6IAuOt8vWmF_3syn4item8printingNtB7_7UseGlobNtNtCs2cqEZUIJimJ_5quote9to_tokens8ToTokens9to_tokens, symObjAddr: 0x14814, symBinAddr: 0x20468, symSize: 0x3C }
  - { offset: 0x40DEB, size: 0x8, addend: 0x0, symName: __RNvXsh_NtNtCs6IAuOt8vWmF_3syn4item8printingNtB7_8UseGroupNtNtCs2cqEZUIJimJ_5quote9to_tokens8ToTokens9to_tokens, symObjAddr: 0x14850, symBinAddr: 0x204A4, symSize: 0x44 }
  - { offset: 0x40E2A, size: 0x8, addend: 0x0, symName: __RNvXsi_NtNtCs6IAuOt8vWmF_3syn4item8printingNtB7_14TraitItemConstNtNtCs2cqEZUIJimJ_5quote9to_tokens8ToTokens9to_tokens, symObjAddr: 0x14894, symBinAddr: 0x204E8, symSize: 0x110 }
  - { offset: 0x40E97, size: 0x8, addend: 0x0, symName: __RNvXsj_NtNtCs6IAuOt8vWmF_3syn4item8printingNtB7_11TraitItemFnNtNtCs2cqEZUIJimJ_5quote9to_tokens8ToTokens9to_tokens, symObjAddr: 0x149A4, symBinAddr: 0x205F8, symSize: 0xD4 }
  - { offset: 0x40EF4, size: 0x8, addend: 0x0, symName: __RNvXsk_NtNtCs6IAuOt8vWmF_3syn4item8printingNtB7_13TraitItemTypeNtNtCs2cqEZUIJimJ_5quote9to_tokens8ToTokens9to_tokens, symObjAddr: 0x14A78, symBinAddr: 0x206CC, symSize: 0x168 }
  - { offset: 0x40F61, size: 0x8, addend: 0x0, symName: __RNvXsl_NtNtCs6IAuOt8vWmF_3syn4item8printingNtB7_14TraitItemMacroNtNtCs2cqEZUIJimJ_5quote9to_tokens8ToTokens9to_tokens, symObjAddr: 0x14BE0, symBinAddr: 0x20834, symSize: 0x74 }
  - { offset: 0x40FA0, size: 0x8, addend: 0x0, symName: __RNvXsm_NtNtCs6IAuOt8vWmF_3syn4item8printingNtB7_13ImplItemConstNtNtCs2cqEZUIJimJ_5quote9to_tokens8ToTokens9to_tokens, symObjAddr: 0x14C54, symBinAddr: 0x208A8, symSize: 0xE4 }
  - { offset: 0x40FDF, size: 0x8, addend: 0x0, symName: __RNvXsn_NtNtCs6IAuOt8vWmF_3syn4item8printingNtB7_10ImplItemFnNtNtCs2cqEZUIJimJ_5quote9to_tokens8ToTokens9to_tokens, symObjAddr: 0x14D38, symBinAddr: 0x2098C, symSize: 0x98 }
  - { offset: 0x4101E, size: 0x8, addend: 0x0, symName: __RNvXso_NtNtCs6IAuOt8vWmF_3syn4item8printingNtB7_12ImplItemTypeNtNtCs2cqEZUIJimJ_5quote9to_tokens8ToTokens9to_tokens, symObjAddr: 0x14DD0, symBinAddr: 0x20A24, symSize: 0xE4 }
  - { offset: 0x4105D, size: 0x8, addend: 0x0, symName: __RNvXsp_NtNtCs6IAuOt8vWmF_3syn4item8printingNtB7_13ImplItemMacroNtNtCs2cqEZUIJimJ_5quote9to_tokens8ToTokens9to_tokens, symObjAddr: 0x14EB4, symBinAddr: 0x20B08, symSize: 0x74 }
  - { offset: 0x4109C, size: 0x8, addend: 0x0, symName: __RNvXsq_NtNtCs6IAuOt8vWmF_3syn4item8printingNtB7_13ForeignItemFnNtNtCs2cqEZUIJimJ_5quote9to_tokens8ToTokens9to_tokens, symObjAddr: 0x14F28, symBinAddr: 0x20B7C, symSize: 0x84 }
  - { offset: 0x410DB, size: 0x8, addend: 0x0, symName: __RNvXsr_NtNtCs6IAuOt8vWmF_3syn4item8printingNtB7_17ForeignItemStaticNtNtCs2cqEZUIJimJ_5quote9to_tokens8ToTokens9to_tokens, symObjAddr: 0x14FAC, symBinAddr: 0x20C00, symSize: 0xC4 }
  - { offset: 0x4111A, size: 0x8, addend: 0x0, symName: __RNvXss_NtNtCs6IAuOt8vWmF_3syn4item8printingNtB7_15ForeignItemTypeNtNtCs2cqEZUIJimJ_5quote9to_tokens8ToTokens9to_tokens, symObjAddr: 0x15070, symBinAddr: 0x20CC4, symSize: 0xB4 }
  - { offset: 0x41159, size: 0x8, addend: 0x0, symName: __RNvXst_NtNtCs6IAuOt8vWmF_3syn4item8printingNtB7_16ForeignItemMacroNtNtCs2cqEZUIJimJ_5quote9to_tokens8ToTokens9to_tokens, symObjAddr: 0x15124, symBinAddr: 0x20D78, symSize: 0x74 }
  - { offset: 0x41198, size: 0x8, addend: 0x0, symName: __RNvXsu_NtNtCs6IAuOt8vWmF_3syn4item8printingNtB7_9SignatureNtNtCs2cqEZUIJimJ_5quote9to_tokens8ToTokens9to_tokens, symObjAddr: 0x15198, symBinAddr: 0x20DEC, symSize: 0xD4 }
  - { offset: 0x411D7, size: 0x8, addend: 0x0, symName: __RNvXsv_NtNtCs6IAuOt8vWmF_3syn4item8printingNtB7_8ReceiverNtNtCs2cqEZUIJimJ_5quote9to_tokens8ToTokens9to_tokens, symObjAddr: 0x1526C, symBinAddr: 0x20EC0, symSize: 0x3FC }
  - { offset: 0x412CF, size: 0x8, addend: 0x0, symName: __RNvXsw_NtNtCs6IAuOt8vWmF_3syn4item8printingNtB7_8VariadicNtNtCs2cqEZUIJimJ_5quote9to_tokens8ToTokens9to_tokens, symObjAddr: 0x15668, symBinAddr: 0x212BC, symSize: 0xE0 }
  - { offset: 0x4133C, size: 0x8, addend: 0x0, symName: __RNvXsx_NtNtCs6IAuOt8vWmF_3syn4item8printingNtB7_16StaticMutabilityNtNtCs2cqEZUIJimJ_5quote9to_tokens8ToTokens9to_tokens, symObjAddr: 0x15748, symBinAddr: 0x2139C, symSize: 0x7C }
  - { offset: 0x4139F, size: 0x8, addend: 0x0, symName: __RNcNtNtNtCs6IAuOt8vWmF_3syn4item4Item4Enum0B7_, symObjAddr: 0x157C4, symBinAddr: 0x21418, symSize: 0x3C }
  - { offset: 0x413CE, size: 0x8, addend: 0x0, symName: __RNcNtNtNtCs6IAuOt8vWmF_3syn4item4Item11ExternCrate0B7_, symObjAddr: 0x15800, symBinAddr: 0x21454, symSize: 0x3C }
  - { offset: 0x413FD, size: 0x8, addend: 0x0, symName: __RNcNtNtNtCs6IAuOt8vWmF_3syn4item4Item2Fn0B7_, symObjAddr: 0x1583C, symBinAddr: 0x21490, symSize: 0x30 }
  - { offset: 0x4142C, size: 0x8, addend: 0x0, symName: __RNcNtNtNtCs6IAuOt8vWmF_3syn4item4Item10ForeignMod0B7_, symObjAddr: 0x1586C, symBinAddr: 0x214C0, symSize: 0x3C }
  - { offset: 0x4145B, size: 0x8, addend: 0x0, symName: __RNcNtNtNtCs6IAuOt8vWmF_3syn4item4Item5Macro0B7_, symObjAddr: 0x158A8, symBinAddr: 0x214FC, symSize: 0x3C }
  - { offset: 0x4148A, size: 0x8, addend: 0x0, symName: __RNcNtNtNtCs6IAuOt8vWmF_3syn4item4Item3Mod0B7_, symObjAddr: 0x158E4, symBinAddr: 0x21538, symSize: 0x3C }
  - { offset: 0x414B9, size: 0x8, addend: 0x0, symName: __RNcNtNtNtCs6IAuOt8vWmF_3syn4item4Item6Struct0B7_, symObjAddr: 0x15920, symBinAddr: 0x21574, symSize: 0x3C }
  - { offset: 0x414E8, size: 0x8, addend: 0x0, symName: __RNcNtNtNtCs6IAuOt8vWmF_3syn4item4Item5Trait0B7_, symObjAddr: 0x1595C, symBinAddr: 0x215B0, symSize: 0x3C }
  - { offset: 0x41517, size: 0x8, addend: 0x0, symName: __RNcNtNtNtCs6IAuOt8vWmF_3syn4item4Item10TraitAlias0B7_, symObjAddr: 0x15998, symBinAddr: 0x215EC, symSize: 0x3C }
  - { offset: 0x41546, size: 0x8, addend: 0x0, symName: __RNcNtNtNtCs6IAuOt8vWmF_3syn4item4Item5Union0B7_, symObjAddr: 0x159D4, symBinAddr: 0x21628, symSize: 0x3C }
  - { offset: 0x41576, size: 0x8, addend: 0x0, symName: __RNvXsk_NtCs6IAuOt8vWmF_3syn4itemNtB5_4ItemNtNtCs2cqEZUIJimJ_5quote9to_tokens8ToTokens9to_tokens, symObjAddr: 0x15E78, symBinAddr: 0x21664, symSize: 0x230 }
  - { offset: 0x41788, size: 0x8, addend: 0x0, symName: __RNvXsq_NtCs6IAuOt8vWmF_3syn4itemNtB5_7UseTreeNtNtCs2cqEZUIJimJ_5quote9to_tokens8ToTokens9to_tokens, symObjAddr: 0x161F4, symBinAddr: 0x21894, symSize: 0x10C }
  - { offset: 0x4185A, size: 0x8, addend: 0x0, symName: __RNcNtNtNtCs6IAuOt8vWmF_3syn4item11ForeignItem5Macro0B7_, symObjAddr: 0x16300, symBinAddr: 0x219A0, symSize: 0x3C }
  - { offset: 0x4188C, size: 0x8, addend: 0x0, symName: __RNvXsv_NtCs6IAuOt8vWmF_3syn4itemNtB5_11ForeignItemNtNtCs2cqEZUIJimJ_5quote9to_tokens8ToTokens9to_tokens, symObjAddr: 0x16460, symBinAddr: 0x219DC, symSize: 0x118 }
  - { offset: 0x4195E, size: 0x8, addend: 0x0, symName: __RNcNtNtNtCs6IAuOt8vWmF_3syn4item9TraitItem2Fn0B7_, symObjAddr: 0x16578, symBinAddr: 0x21AF4, symSize: 0x3C }
  - { offset: 0x4198F, size: 0x8, addend: 0x0, symName: __RNcNtNtNtCs6IAuOt8vWmF_3syn4item9TraitItem5Macro0B7_, symObjAddr: 0x165B4, symBinAddr: 0x21B30, symSize: 0x3C }
  - { offset: 0x419C1, size: 0x8, addend: 0x0, symName: __RNvXsA_NtCs6IAuOt8vWmF_3syn4itemNtB5_9TraitItemNtNtCs2cqEZUIJimJ_5quote9to_tokens8ToTokens9to_tokens, symObjAddr: 0x16714, symBinAddr: 0x21B6C, symSize: 0x118 }
  - { offset: 0x41A93, size: 0x8, addend: 0x0, symName: __RNcNtNtNtCs6IAuOt8vWmF_3syn4item8ImplItem5Macro0B7_, symObjAddr: 0x1682C, symBinAddr: 0x21C84, symSize: 0x3C }
  - { offset: 0x41AC5, size: 0x8, addend: 0x0, symName: __RNvXsF_NtCs6IAuOt8vWmF_3syn4itemNtB5_8ImplItemNtNtCs2cqEZUIJimJ_5quote9to_tokens8ToTokens9to_tokens, symObjAddr: 0x1698C, symBinAddr: 0x21CC0, symSize: 0x118 }
  - { offset: 0x41B92, size: 0x8, addend: 0x0, symName: __RNvXsI_NtCs6IAuOt8vWmF_3syn4itemNtB5_5FnArgNtNtCs2cqEZUIJimJ_5quote9to_tokens8ToTokens9to_tokens, symObjAddr: 0x16B30, symBinAddr: 0x21DD8, symSize: 0x8C }
  - { offset: 0x41C0D, size: 0x8, addend: 0x0, symName: __RNcNtNtNtCs6IAuOt8vWmF_3syn4item16StaticMutability3Mut0B7_, symObjAddr: 0x16BBC, symBinAddr: 0x21E64, symSize: 0x20 }
  - { offset: 0x456BB, size: 0x8, addend: 0x0, symName: __RNvXs16_NtNtCs6IAuOt8vWmF_3syn3gen5cloneNtNtBa_4item5FnArgNtNtCsfvfooZQ3Axs_4core5clone5Clone5clone, symObjAddr: 0x16BDC, symBinAddr: 0x21E84, symSize: 0xDC }
  - { offset: 0x45723, size: 0x8, addend: 0x0, symName: __RNvXs17_NtNtCs6IAuOt8vWmF_3syn3gen5cloneNtNtBa_4item11ForeignItemNtNtCsfvfooZQ3Axs_4core5clone5Clone5clone, symObjAddr: 0x16CB8, symBinAddr: 0x21F60, symSize: 0x224 }
  - { offset: 0x457E5, size: 0x8, addend: 0x0, symName: __RNvXs18_NtNtCs6IAuOt8vWmF_3syn3gen5cloneNtNtBa_4item13ForeignItemFnNtNtCsfvfooZQ3Axs_4core5clone5Clone5clone, symObjAddr: 0x16EDC, symBinAddr: 0x22184, symSize: 0x13C }
  - { offset: 0x45819, size: 0x8, addend: 0x0, symName: __RNvXs19_NtNtCs6IAuOt8vWmF_3syn3gen5cloneNtNtBa_4item16ForeignItemMacroNtNtCsfvfooZQ3Axs_4core5clone5Clone5clone, symObjAddr: 0x17018, symBinAddr: 0x222C0, symSize: 0xF4 }
  - { offset: 0x4584D, size: 0x8, addend: 0x0, symName: __RNvXs1a_NtNtCs6IAuOt8vWmF_3syn3gen5cloneNtNtBa_4item17ForeignItemStaticNtNtCsfvfooZQ3Axs_4core5clone5Clone5clone, symObjAddr: 0x1710C, symBinAddr: 0x223B4, symSize: 0x1DC }
  - { offset: 0x45881, size: 0x8, addend: 0x0, symName: __RNvXs1b_NtNtCs6IAuOt8vWmF_3syn3gen5cloneNtNtBa_4item15ForeignItemTypeNtNtCsfvfooZQ3Axs_4core5clone5Clone5clone, symObjAddr: 0x172E8, symBinAddr: 0x22590, symSize: 0x198 }
  - { offset: 0x458B5, size: 0x8, addend: 0x0, symName: __RNvXs1f_NtNtCs6IAuOt8vWmF_3syn3gen5cloneNtNtBa_4item8ImplItemNtNtCsfvfooZQ3Axs_4core5clone5Clone5clone, symObjAddr: 0x17480, symBinAddr: 0x22728, symSize: 0x21C }
  - { offset: 0x45977, size: 0x8, addend: 0x0, symName: __RNvXs1g_NtNtCs6IAuOt8vWmF_3syn3gen5cloneNtNtBa_4item13ImplItemConstNtNtCsfvfooZQ3Axs_4core5clone5Clone5clone, symObjAddr: 0x1769C, symBinAddr: 0x22944, symSize: 0x2AC }
  - { offset: 0x459AB, size: 0x8, addend: 0x0, symName: __RNvXs1h_NtNtCs6IAuOt8vWmF_3syn3gen5cloneNtNtBa_4item10ImplItemFnNtNtCsfvfooZQ3Axs_4core5clone5Clone5clone, symObjAddr: 0x17948, symBinAddr: 0x22BF0, symSize: 0x160 }
  - { offset: 0x459DF, size: 0x8, addend: 0x0, symName: __RNvXs1i_NtNtCs6IAuOt8vWmF_3syn3gen5cloneNtNtBa_4item13ImplItemMacroNtNtCsfvfooZQ3Axs_4core5clone5Clone5clone, symObjAddr: 0x17AA8, symBinAddr: 0x22D50, symSize: 0xF4 }
  - { offset: 0x45A13, size: 0x8, addend: 0x0, symName: __RNvXs1j_NtNtCs6IAuOt8vWmF_3syn3gen5cloneNtNtBa_4item12ImplItemTypeNtNtCsfvfooZQ3Axs_4core5clone5Clone5clone, symObjAddr: 0x17B9C, symBinAddr: 0x22E44, symSize: 0x238 }
  - { offset: 0x45A47, size: 0x8, addend: 0x0, symName: __RNvXs1m_NtNtCs6IAuOt8vWmF_3syn3gen5cloneNtNtBa_4item4ItemNtNtCsfvfooZQ3Axs_4core5clone5Clone5clone, symObjAddr: 0x17DE0, symBinAddr: 0x2307C, symSize: 0x5D0 }
  - { offset: 0x45C5E, size: 0x8, addend: 0x0, symName: __RNvXs1n_NtNtCs6IAuOt8vWmF_3syn3gen5cloneNtNtBa_4item9ItemConstNtNtCsfvfooZQ3Axs_4core5clone5Clone5clone, symObjAddr: 0x183B0, symBinAddr: 0x2364C, symSize: 0x270 }
  - { offset: 0x45C92, size: 0x8, addend: 0x0, symName: __RNvXs1o_NtNtCs6IAuOt8vWmF_3syn3gen5cloneNtNtBa_4item8ItemEnumNtNtCsfvfooZQ3Axs_4core5clone5Clone5clone, symObjAddr: 0x18620, symBinAddr: 0x238BC, symSize: 0x1C0 }
  - { offset: 0x45CC6, size: 0x8, addend: 0x0, symName: __RNvXs1p_NtNtCs6IAuOt8vWmF_3syn3gen5cloneNtNtBa_4item15ItemExternCrateNtNtCsfvfooZQ3Axs_4core5clone5Clone5clone, symObjAddr: 0x187E0, symBinAddr: 0x23A7C, symSize: 0x1A4 }
  - { offset: 0x45CFA, size: 0x8, addend: 0x0, symName: __RNvXs1q_NtNtCs6IAuOt8vWmF_3syn3gen5cloneNtNtBa_4item6ItemFnNtNtCsfvfooZQ3Axs_4core5clone5Clone5clone, symObjAddr: 0x18984, symBinAddr: 0x23C20, symSize: 0x12C }
  - { offset: 0x45D2E, size: 0x8, addend: 0x0, symName: __RNvXs1r_NtNtCs6IAuOt8vWmF_3syn3gen5cloneNtNtBa_4item14ItemForeignModNtNtCsfvfooZQ3Axs_4core5clone5Clone5clone, symObjAddr: 0x18AB0, symBinAddr: 0x23D4C, symSize: 0x14C }
  - { offset: 0x45D62, size: 0x8, addend: 0x0, symName: __RNvXs1s_NtNtCs6IAuOt8vWmF_3syn3gen5cloneNtNtBa_4item8ItemImplNtNtCsfvfooZQ3Axs_4core5clone5Clone5clone, symObjAddr: 0x18BFC, symBinAddr: 0x23E98, symSize: 0x220 }
  - { offset: 0x45D96, size: 0x8, addend: 0x0, symName: __RNvXs1t_NtNtCs6IAuOt8vWmF_3syn3gen5cloneNtNtBa_4item9ItemMacroNtNtCsfvfooZQ3Axs_4core5clone5Clone5clone, symObjAddr: 0x18E1C, symBinAddr: 0x240B8, symSize: 0x134 }
  - { offset: 0x45DCA, size: 0x8, addend: 0x0, symName: __RNvXs1u_NtNtCs6IAuOt8vWmF_3syn3gen5cloneNtNtBa_4item7ItemModNtNtCsfvfooZQ3Axs_4core5clone5Clone5clone, symObjAddr: 0x18F50, symBinAddr: 0x241EC, symSize: 0x1B8 }
  - { offset: 0x45DFE, size: 0x8, addend: 0x0, symName: __RNvXs1v_NtNtCs6IAuOt8vWmF_3syn3gen5cloneNtNtBa_4item10ItemStaticNtNtCsfvfooZQ3Axs_4core5clone5Clone5clone, symObjAddr: 0x19108, symBinAddr: 0x243A4, symSize: 0x248 }
  - { offset: 0x45E32, size: 0x8, addend: 0x0, symName: __RNvXs1w_NtNtCs6IAuOt8vWmF_3syn3gen5cloneNtNtBa_4item10ItemStructNtNtCsfvfooZQ3Axs_4core5clone5Clone5clone, symObjAddr: 0x19350, symBinAddr: 0x245EC, symSize: 0x1DC }
  - { offset: 0x45E66, size: 0x8, addend: 0x0, symName: __RNvXs1x_NtNtCs6IAuOt8vWmF_3syn3gen5cloneNtNtBa_4item9ItemTraitNtNtCsfvfooZQ3Axs_4core5clone5Clone5clone, symObjAddr: 0x1952C, symBinAddr: 0x247C8, symSize: 0x288 }
  - { offset: 0x45E9A, size: 0x8, addend: 0x0, symName: __RNvXs1y_NtNtCs6IAuOt8vWmF_3syn3gen5cloneNtNtBa_4item14ItemTraitAliasNtNtCsfvfooZQ3Axs_4core5clone5Clone5clone, symObjAddr: 0x197B4, symBinAddr: 0x24A50, symSize: 0x204 }
  - { offset: 0x45ECE, size: 0x8, addend: 0x0, symName: __RNvXs1z_NtNtCs6IAuOt8vWmF_3syn3gen5cloneNtNtBa_4item8ItemTypeNtNtCsfvfooZQ3Axs_4core5clone5Clone5clone, symObjAddr: 0x199B8, symBinAddr: 0x24C54, symSize: 0x204 }
  - { offset: 0x45F02, size: 0x8, addend: 0x0, symName: __RNvXs1A_NtNtCs6IAuOt8vWmF_3syn3gen5cloneNtNtBa_4item9ItemUnionNtNtCsfvfooZQ3Axs_4core5clone5Clone5clone, symObjAddr: 0x19BBC, symBinAddr: 0x24E58, symSize: 0x194 }
  - { offset: 0x45F36, size: 0x8, addend: 0x0, symName: __RNvXs1B_NtNtCs6IAuOt8vWmF_3syn3gen5cloneNtNtBa_4item7ItemUseNtNtCsfvfooZQ3Axs_4core5clone5Clone5clone, symObjAddr: 0x19D50, symBinAddr: 0x24FEC, symSize: 0x174 }
  - { offset: 0x45F6A, size: 0x8, addend: 0x0, symName: __RNvXs2b_NtNtCs6IAuOt8vWmF_3syn3gen5cloneNtNtBa_4item8ReceiverNtNtCsfvfooZQ3Axs_4core5clone5Clone5clone, symObjAddr: 0x19EC4, symBinAddr: 0x25160, symSize: 0x154 }
  - { offset: 0x45F9E, size: 0x8, addend: 0x0, symName: __RNvXs2d_NtNtCs6IAuOt8vWmF_3syn3gen5cloneNtNtBa_4item9SignatureNtNtCsfvfooZQ3Axs_4core5clone5Clone5clone, symObjAddr: 0x1A018, symBinAddr: 0x252B4, symSize: 0x278 }
  - { offset: 0x45FD2, size: 0x8, addend: 0x0, symName: __RNvXs2e_NtNtCs6IAuOt8vWmF_3syn3gen5cloneNtNtBa_4item16StaticMutabilityNtNtCsfvfooZQ3Axs_4core5clone5Clone5clone, symObjAddr: 0x1A290, symBinAddr: 0x2552C, symSize: 0x88 }
  - { offset: 0x46024, size: 0x8, addend: 0x0, symName: __RNvXs2k_NtNtCs6IAuOt8vWmF_3syn3gen5cloneNtNtBa_4item9TraitItemNtNtCsfvfooZQ3Axs_4core5clone5Clone5clone, symObjAddr: 0x1A318, symBinAddr: 0x255B4, symSize: 0x21C }
  - { offset: 0x460E6, size: 0x8, addend: 0x0, symName: __RNvXs2l_NtNtCs6IAuOt8vWmF_3syn3gen5cloneNtNtBa_4item14TraitItemConstNtNtCsfvfooZQ3Axs_4core5clone5Clone5clone, symObjAddr: 0x1A534, symBinAddr: 0x257D0, symSize: 0x218 }
  - { offset: 0x4611A, size: 0x8, addend: 0x0, symName: __RNvXs2m_NtNtCs6IAuOt8vWmF_3syn3gen5cloneNtNtBa_4item11TraitItemFnNtNtCsfvfooZQ3Axs_4core5clone5Clone5clone, symObjAddr: 0x1A74C, symBinAddr: 0x259E8, symSize: 0x140 }
  - { offset: 0x4614E, size: 0x8, addend: 0x0, symName: __RNvXs2n_NtNtCs6IAuOt8vWmF_3syn3gen5cloneNtNtBa_4item14TraitItemMacroNtNtCsfvfooZQ3Axs_4core5clone5Clone5clone, symObjAddr: 0x1A88C, symBinAddr: 0x25B28, symSize: 0xF4 }
  - { offset: 0x46182, size: 0x8, addend: 0x0, symName: __RNvXs2o_NtNtCs6IAuOt8vWmF_3syn3gen5cloneNtNtBa_4item13TraitItemTypeNtNtCsfvfooZQ3Axs_4core5clone5Clone5clone, symObjAddr: 0x1A980, symBinAddr: 0x25C1C, symSize: 0x20C }
  - { offset: 0x461B6, size: 0x8, addend: 0x0, symName: __RNvXs2I_NtNtCs6IAuOt8vWmF_3syn3gen5cloneNtNtBa_4item7UseGlobNtNtCsfvfooZQ3Axs_4core5clone5Clone5clone, symObjAddr: 0x1AB8C, symBinAddr: 0x25E28, symSize: 0x4C }
  - { offset: 0x461EA, size: 0x8, addend: 0x0, symName: __RNvXs2J_NtNtCs6IAuOt8vWmF_3syn3gen5cloneNtNtBa_4item8UseGroupNtNtCsfvfooZQ3Axs_4core5clone5Clone5clone, symObjAddr: 0x1ABD8, symBinAddr: 0x25E74, symSize: 0x70 }
  - { offset: 0x4621E, size: 0x8, addend: 0x0, symName: __RNvXs2K_NtNtCs6IAuOt8vWmF_3syn3gen5cloneNtNtBa_4item7UseNameNtNtCsfvfooZQ3Axs_4core5clone5Clone5clone, symObjAddr: 0x1AC48, symBinAddr: 0x25EE4, symSize: 0x50 }
  - { offset: 0x46252, size: 0x8, addend: 0x0, symName: __RNvXs2L_NtNtCs6IAuOt8vWmF_3syn3gen5cloneNtNtBa_4item7UsePathNtNtCsfvfooZQ3Axs_4core5clone5Clone5clone, symObjAddr: 0x1AC98, symBinAddr: 0x25F34, symSize: 0xC0 }
  - { offset: 0x46286, size: 0x8, addend: 0x0, symName: __RNvXs2M_NtNtCs6IAuOt8vWmF_3syn3gen5cloneNtNtBa_4item9UseRenameNtNtCsfvfooZQ3Axs_4core5clone5Clone5clone, symObjAddr: 0x1AD58, symBinAddr: 0x25FF4, symSize: 0xB8 }
  - { offset: 0x462BA, size: 0x8, addend: 0x0, symName: __RNvXs2N_NtNtCs6IAuOt8vWmF_3syn3gen5cloneNtNtBa_4item7UseTreeNtNtCsfvfooZQ3Axs_4core5clone5Clone5clone, symObjAddr: 0x1AE10, symBinAddr: 0x260AC, symSize: 0x20C }
  - { offset: 0x4637D, size: 0x8, addend: 0x0, symName: __RNvXs2O_NtNtCs6IAuOt8vWmF_3syn3gen5cloneNtNtBa_4item8VariadicNtNtCsfvfooZQ3Axs_4core5clone5Clone5clone, symObjAddr: 0x1B01C, symBinAddr: 0x262B8, symSize: 0x108 }
  - { offset: 0x47D46, size: 0x8, addend: 0x0, symName: __RINvXNtNtCse1nGBsou5OW_5alloc5slice4hackNtNtCs6IAuOt8vWmF_3syn4item11ForeignItemNtB3_10ConvertVec6to_vecNtNtB7_5alloc6GlobalEBG_, symObjAddr: 0x0, symBinAddr: 0x13488, symSize: 0x36C }
  - { offset: 0x48209, size: 0x8, addend: 0x0, symName: __RINvXNtNtCse1nGBsou5OW_5alloc5slice4hackNtNtCs6IAuOt8vWmF_3syn4item4ItemNtB3_10ConvertVec6to_vecNtNtB7_5alloc6GlobalEBG_, symObjAddr: 0x36C, symBinAddr: 0x137F4, symSize: 0x36C }
  - { offset: 0x486CC, size: 0x8, addend: 0x0, symName: __RINvXNtNtCse1nGBsou5OW_5alloc5slice4hackNtNtCs6IAuOt8vWmF_3syn4item8ImplItemNtB3_10ConvertVec6to_vecNtNtB7_5alloc6GlobalEBG_, symObjAddr: 0x6D8, symBinAddr: 0x13B60, symSize: 0x36C }
  - { offset: 0x48B8F, size: 0x8, addend: 0x0, symName: __RINvXNtNtCse1nGBsou5OW_5alloc5slice4hackNtNtCs6IAuOt8vWmF_3syn4item9TraitItemNtB3_10ConvertVec6to_vecNtNtB7_5alloc6GlobalEBG_, symObjAddr: 0xA44, symBinAddr: 0x13ECC, symSize: 0x36C }
  - { offset: 0x49052, size: 0x8, addend: 0x0, symName: __RINvXNtNtCse1nGBsou5OW_5alloc5slice4hackTNtNtCs6IAuOt8vWmF_3syn4item5FnArgNtNtBH_5token5CommaENtB3_10ConvertVec6to_vecNtNtB7_5alloc6GlobalEBH_, symObjAddr: 0xDB0, symBinAddr: 0x14238, symSize: 0x368 }
  - { offset: 0x49515, size: 0x8, addend: 0x0, symName: __RINvXNtNtCse1nGBsou5OW_5alloc5slice4hackTNtNtCs6IAuOt8vWmF_3syn4item7UseTreeNtNtBH_5token5CommaENtB3_10ConvertVec6to_vecNtNtB7_5alloc6GlobalEBH_, symObjAddr: 0x1118, symBinAddr: 0x145A0, symSize: 0x368 }
  - { offset: 0x4DCCA, size: 0x8, addend: 0x0, symName: __RNvMNtCsfvfooZQ3Axs_4core5sliceSTNtNtCs6IAuOt8vWmF_3syn4item5FnArgNtNtBz_5token5CommaE4iterBz_, symObjAddr: 0x1480, symBinAddr: 0x14908, symSize: 0x28 }
  - { offset: 0x4DD01, size: 0x8, addend: 0x0, symName: __RNvMNtCsfvfooZQ3Axs_4core5sliceSTNtNtCs6IAuOt8vWmF_3syn4item7UseTreeNtNtBz_5token5CommaE4iterBz_, symObjAddr: 0x14A8, symBinAddr: 0x14930, symSize: 0x28 }
  - { offset: 0x4E3F1, size: 0x8, addend: 0x0, symName: __RNvXNtNtCsfvfooZQ3Axs_4core5clone6uninitNtNtCs6IAuOt8vWmF_3syn4item5FnArgNtB2_8CopySpec9clone_oneBG_, symObjAddr: 0x1650, symBinAddr: 0x14AD8, symSize: 0x48 }
  - { offset: 0x4E455, size: 0x8, addend: 0x0, symName: __RNvXNtNtCsfvfooZQ3Axs_4core5clone6uninitNtNtCs6IAuOt8vWmF_3syn4item7UseTreeNtB2_8CopySpec9clone_oneBG_, symObjAddr: 0x1698, symBinAddr: 0x14B20, symSize: 0x48 }
  - { offset: 0x50BE5, size: 0x8, addend: 0x0, symName: __RNvXNtCs2cqEZUIJimJ_5quote9to_tokensRNtNtCs6IAuOt8vWmF_3syn4item11ForeignItemNtB2_8ToTokens9to_tokensBD_, symObjAddr: 0x14D0, symBinAddr: 0x14958, symSize: 0x40 }
  - { offset: 0x50C24, size: 0x8, addend: 0x0, symName: __RNvXNtCs2cqEZUIJimJ_5quote9to_tokensRNtNtCs6IAuOt8vWmF_3syn4item4ItemNtB2_8ToTokens9to_tokensBD_, symObjAddr: 0x1510, symBinAddr: 0x14998, symSize: 0x40 }
  - { offset: 0x50C63, size: 0x8, addend: 0x0, symName: __RNvXNtCs2cqEZUIJimJ_5quote9to_tokensRNtNtCs6IAuOt8vWmF_3syn4item5FnArgNtB2_8ToTokens9to_tokensBD_, symObjAddr: 0x1550, symBinAddr: 0x149D8, symSize: 0x40 }
  - { offset: 0x50CA2, size: 0x8, addend: 0x0, symName: __RNvXNtCs2cqEZUIJimJ_5quote9to_tokensRNtNtCs6IAuOt8vWmF_3syn4item7UseTreeNtB2_8ToTokens9to_tokensBD_, symObjAddr: 0x1590, symBinAddr: 0x14A18, symSize: 0x40 }
  - { offset: 0x50CE1, size: 0x8, addend: 0x0, symName: __RNvXNtCs2cqEZUIJimJ_5quote9to_tokensRNtNtCs6IAuOt8vWmF_3syn4item8ImplItemNtB2_8ToTokens9to_tokensBD_, symObjAddr: 0x15D0, symBinAddr: 0x14A58, symSize: 0x40 }
  - { offset: 0x50D20, size: 0x8, addend: 0x0, symName: __RNvXNtCs2cqEZUIJimJ_5quote9to_tokensRNtNtCs6IAuOt8vWmF_3syn4item9TraitItemNtB2_8ToTokens9to_tokensBD_, symObjAddr: 0x1610, symBinAddr: 0x14A98, symSize: 0x40 }
  - { offset: 0x50D7C, size: 0x8, addend: 0x0, symName: __RNvMNtCs6IAuOt8vWmF_3syn4itemNtB2_4Item13replace_attrs, symObjAddr: 0x2BF8, symBinAddr: 0x14B68, symSize: 0x328 }
  - { offset: 0x5132E, size: 0x8, addend: 0x0, symName: __RINvMs_NtCse1nGBsou5OW_5alloc3vecINtB5_3VecReE10retain_mutNCNvMNtCs6IAuOt8vWmF_3syn9lookaheadNtBZ_10Lookahead15error0EB11_, symObjAddr: 0x0, symBinAddr: 0x263C0, symSize: 0xE4 }
  - { offset: 0x520D3, size: 0x8, addend: 0x0, symName: __RNvXs1a_NtCsfvfooZQ3Axs_4core3fmtRINtNtCse1nGBsou5OW_5alloc3vec3VechENtB6_5Debug3fmtCs6IAuOt8vWmF_3syn, symObjAddr: 0x6C30, symBinAddr: 0x2A924, symSize: 0x30 }
  - { offset: 0x59707, size: 0x8, addend: 0x0, symName: __RNvXs1_NtCsfvfooZQ3Axs_4core7convertINtNtCse1nGBsou5OW_5alloc3vec3VechEINtB5_4IntoBy_E4intoCs6IAuOt8vWmF_3syn, symObjAddr: 0x6BE8, symBinAddr: 0x2A90C, symSize: 0x18 }
  - { offset: 0x59944, size: 0x8, addend: 0x0, symName: __RINvNvMs_NtCse1nGBsou5OW_5alloc3vecINtB7_3VecppE10retain_mut12process_loopNCNvMNtCs6IAuOt8vWmF_3syn9lookaheadNtB1f_10Lookahead15error0ReNtNtB9_5alloc6GlobalKb0_EB1h_, symObjAddr: 0xC64, symBinAddr: 0x267CC, symSize: 0xCC }
  - { offset: 0x59A98, size: 0x8, addend: 0x0, symName: __RINvNvMs_NtCse1nGBsou5OW_5alloc3vecINtB7_3VecppE10retain_mut12process_loopNCNvMNtCs6IAuOt8vWmF_3syn9lookaheadNtB1f_10Lookahead15error0ReNtNtB9_5alloc6GlobalKb1_EB1h_, symObjAddr: 0xD30, symBinAddr: 0x26898, symSize: 0x168 }
  - { offset: 0x59C8E, size: 0x8, addend: 0x0, symName: __RNvXNvMs_NtCse1nGBsou5OW_5alloc3vecINtB7_3VecppE10retain_mutINtB2_15BackshiftOnDropReNtNtB9_5alloc6GlobalENtNtNtCsfvfooZQ3Axs_4core3ops4drop4Drop4dropCs6IAuOt8vWmF_3syn, symObjAddr: 0x681C, symBinAddr: 0x2A5D8, symSize: 0x124 }
  - { offset: 0x5C6F9, size: 0x8, addend: 0x0, symName: __RINvXsh_NtCse1nGBsou5OW_5alloc3vecINtB6_3VecNtNtCs6IAuOt8vWmF_3syn4attr9AttributeEINtNtNtNtCsfvfooZQ3Axs_4core4iter6traits7collect6ExtendBG_E6extendBw_EBK_, symObjAddr: 0xF1C, symBinAddr: 0x26A00, symSize: 0x48 }
  - { offset: 0x5C74E, size: 0x8, addend: 0x0, symName: __RINvXsh_NtCse1nGBsou5OW_5alloc3vecINtB6_3VecNtNtCs6IAuOt8vWmF_3syn8generics14TypeParamBoundEINtNtNtNtCsfvfooZQ3Axs_4core4iter6traits7collect6ExtendBG_E6extendINtNtB1B_6option6OptionBG_EEBK_, symObjAddr: 0x108C, symBinAddr: 0x26A48, symSize: 0x48 }
  - { offset: 0x5C7A3, size: 0x8, addend: 0x0, symName: __RINvXsh_NtCse1nGBsou5OW_5alloc3vecINtB6_3VecNtNtCs6IAuOt8vWmF_3syn8generics14TypeParamBoundEINtNtNtNtCsfvfooZQ3Axs_4core4iter6traits7collect6ExtendBG_E6extendINtNtNtB1z_8adapters3map3MapINtNtB6_9into_iter8IntoIterTBG_NtNtBK_5token4PlusEENCNvXs8_NtBK_10punctuatedINtB3V_10PunctuatedBG_B3t_ENtB1v_12IntoIterator9into_iter0EEBK_, symObjAddr: 0x10D4, symBinAddr: 0x26A90, symSize: 0x48 }
  - { offset: 0x5C803, size: 0x8, addend: 0x0, symName: __RNCINvMsi_NtCse1nGBsou5OW_5alloc3vecINtB8_3VecNtNtCs6IAuOt8vWmF_3syn8generics14TypeParamBoundE14extend_trustedINtNtCsfvfooZQ3Axs_4core6option8IntoIterBI_EE0BM_, symObjAddr: 0x1218, symBinAddr: 0x26AD8, symSize: 0x54 }
  - { offset: 0x5C8C1, size: 0x8, addend: 0x0, symName: __RNCINvMsi_NtCse1nGBsou5OW_5alloc3vecINtB8_3VecNtNtCs6IAuOt8vWmF_3syn8generics14TypeParamBoundE14extend_trustedINtNtNtNtCsfvfooZQ3Axs_4core4iter8adapters3map3MapINtNtB8_9into_iter8IntoIterTBI_NtNtBM_5token4PlusEENCNvXs8_NtBM_10punctuatedINtB3v_10PunctuatedBI_B33_ENtNtNtB1R_6traits7collect12IntoIterator9into_iter0EE0BM_, symObjAddr: 0x126C, symBinAddr: 0x26B2C, symSize: 0x54 }
  - { offset: 0x5CDC1, size: 0x8, addend: 0x0, symName: __RNvXs6_NtCse1nGBsou5OW_5alloc3vecINtB5_3VecNtNtCs6IAuOt8vWmF_3syn4attr9AttributeENtNtNtCsfvfooZQ3Axs_4core3ops5deref5Deref5derefBJ_, symObjAddr: 0x6C60, symBinAddr: 0x2A954, symSize: 0x24 }
  - { offset: 0x5CE01, size: 0x8, addend: 0x0, symName: __RNvXs6_NtCse1nGBsou5OW_5alloc3vecINtB5_3VecNtNtCs6IAuOt8vWmF_3syn4expr3ArmENtNtNtCsfvfooZQ3Axs_4core3ops5deref5Deref5derefBJ_, symObjAddr: 0x6C84, symBinAddr: 0x2A978, symSize: 0x24 }
  - { offset: 0x5CE41, size: 0x8, addend: 0x0, symName: __RNvXs6_NtCse1nGBsou5OW_5alloc3vecINtB5_3VecReENtNtNtCsfvfooZQ3Axs_4core3ops5deref5Deref5derefCs6IAuOt8vWmF_3syn, symObjAddr: 0x6CCC, symBinAddr: 0x2A99C, symSize: 0x24 }
  - { offset: 0x5CE81, size: 0x8, addend: 0x0, symName: __RNvXs6_NtCse1nGBsou5OW_5alloc3vecINtB5_3VecTNtNtCs6IAuOt8vWmF_3syn2ty4TypeNtNtBK_5token5CommaEENtNtNtCsfvfooZQ3Axs_4core3ops5deref5Deref5derefBK_, symObjAddr: 0x6CF0, symBinAddr: 0x2A9C0, symSize: 0x24 }
  - { offset: 0x5CEC1, size: 0x8, addend: 0x0, symName: __RNvXs6_NtCse1nGBsou5OW_5alloc3vecINtB5_3VecTNtNtCs6IAuOt8vWmF_3syn2ty9BareFnArgNtNtBK_5token5CommaEENtNtNtCsfvfooZQ3Axs_4core3ops5deref5Deref5derefBK_, symObjAddr: 0x6D14, symBinAddr: 0x2A9E4, symSize: 0x24 }
  - { offset: 0x5CF01, size: 0x8, addend: 0x0, symName: __RNvXs6_NtCse1nGBsou5OW_5alloc3vecINtB5_3VecTNtNtCs6IAuOt8vWmF_3syn3pat3PatNtNtBK_5token2OrEENtNtNtCsfvfooZQ3Axs_4core3ops5deref5Deref5derefBK_, symObjAddr: 0x6D38, symBinAddr: 0x2AA08, symSize: 0x24 }
  - { offset: 0x5CF41, size: 0x8, addend: 0x0, symName: __RNvXs6_NtCse1nGBsou5OW_5alloc3vecINtB5_3VecTNtNtCs6IAuOt8vWmF_3syn3pat3PatNtNtBK_5token5CommaEENtNtNtCsfvfooZQ3Axs_4core3ops5deref5Deref5derefBK_, symObjAddr: 0x6D5C, symBinAddr: 0x2AA2C, symSize: 0x24 }
  - { offset: 0x5CF81, size: 0x8, addend: 0x0, symName: __RNvXs6_NtCse1nGBsou5OW_5alloc3vecINtB5_3VecTNtNtCs6IAuOt8vWmF_3syn3pat8FieldPatNtNtBK_5token5CommaEENtNtNtCsfvfooZQ3Axs_4core3ops5deref5Deref5derefBK_, symObjAddr: 0x6D80, symBinAddr: 0x2AA50, symSize: 0x24 }
  - { offset: 0x5CFC1, size: 0x8, addend: 0x0, symName: __RNvXs6_NtCse1nGBsou5OW_5alloc3vecINtB5_3VecTNtNtCs6IAuOt8vWmF_3syn4data5FieldNtNtBK_5token5CommaEENtNtNtCsfvfooZQ3Axs_4core3ops5deref5Deref5derefBK_, symObjAddr: 0x6DA4, symBinAddr: 0x2AA74, symSize: 0x24 }
  - { offset: 0x5D001, size: 0x8, addend: 0x0, symName: __RNvXs6_NtCse1nGBsou5OW_5alloc3vecINtB5_3VecTNtNtCs6IAuOt8vWmF_3syn4data7VariantNtNtBK_5token5CommaEENtNtNtCsfvfooZQ3Axs_4core3ops5deref5Deref5derefBK_, symObjAddr: 0x6DC8, symBinAddr: 0x2AA98, symSize: 0x24 }
  - { offset: 0x5D041, size: 0x8, addend: 0x0, symName: __RNvXs6_NtCse1nGBsou5OW_5alloc3vecINtB5_3VecTNtNtCs6IAuOt8vWmF_3syn4expr10FieldValueNtNtBK_5token5CommaEENtNtNtCsfvfooZQ3Axs_4core3ops5deref5Deref5derefBK_, symObjAddr: 0x6DEC, symBinAddr: 0x2AABC, symSize: 0x24 }
  - { offset: 0x5D081, size: 0x8, addend: 0x0, symName: __RNvXs6_NtCse1nGBsou5OW_5alloc3vecINtB5_3VecTNtNtCs6IAuOt8vWmF_3syn4expr4ExprNtNtBK_5token5CommaEENtNtNtCsfvfooZQ3Axs_4core3ops5deref5Deref5derefBK_, symObjAddr: 0x6E10, symBinAddr: 0x2AAE0, symSize: 0x24 }
  - { offset: 0x5D0C1, size: 0x8, addend: 0x0, symName: __RNvXs6_NtCse1nGBsou5OW_5alloc3vecINtB5_3VecTNtNtCs6IAuOt8vWmF_3syn4item5FnArgNtNtBK_5token5CommaEENtNtNtCsfvfooZQ3Axs_4core3ops5deref5Deref5derefBK_, symObjAddr: 0x6E34, symBinAddr: 0x2AB04, symSize: 0x24 }
  - { offset: 0x5D101, size: 0x8, addend: 0x0, symName: __RNvXs6_NtCse1nGBsou5OW_5alloc3vecINtB5_3VecTNtNtCs6IAuOt8vWmF_3syn4item7UseTreeNtNtBK_5token5CommaEENtNtNtCsfvfooZQ3Axs_4core3ops5deref5Deref5derefBK_, symObjAddr: 0x6E58, symBinAddr: 0x2AB28, symSize: 0x24 }
  - { offset: 0x5D141, size: 0x8, addend: 0x0, symName: __RNvXs6_NtCse1nGBsou5OW_5alloc3vecINtB5_3VecTNtNtCs6IAuOt8vWmF_3syn4path11PathSegmentNtNtBK_5token7PathSepEENtNtNtCsfvfooZQ3Axs_4core3ops5deref5Deref5derefBK_, symObjAddr: 0x6E7C, symBinAddr: 0x2AB4C, symSize: 0x24 }
  - { offset: 0x5D181, size: 0x8, addend: 0x0, symName: __RNvXs6_NtCse1nGBsou5OW_5alloc3vecINtB5_3VecTNtNtCs6IAuOt8vWmF_3syn4path15GenericArgumentNtNtBK_5token5CommaEENtNtNtCsfvfooZQ3Axs_4core3ops5deref5Deref5derefBK_, symObjAddr: 0x6EA0, symBinAddr: 0x2AB70, symSize: 0x24 }
  - { offset: 0x5D1C1, size: 0x8, addend: 0x0, symName: __RNvXs6_NtCse1nGBsou5OW_5alloc3vecINtB5_3VecTNtNtCs6IAuOt8vWmF_3syn8generics12GenericParamNtNtBK_5token5CommaEENtNtNtCsfvfooZQ3Axs_4core3ops5deref5Deref5derefBK_, symObjAddr: 0x6EC4, symBinAddr: 0x2AB94, symSize: 0x24 }
  - { offset: 0x5D201, size: 0x8, addend: 0x0, symName: __RNvXs6_NtCse1nGBsou5OW_5alloc3vecINtB5_3VecTNtNtCs6IAuOt8vWmF_3syn8generics13CapturedParamNtNtBK_5token5CommaEENtNtNtCsfvfooZQ3Axs_4core3ops5deref5Deref5derefBK_, symObjAddr: 0x6EE8, symBinAddr: 0x2ABB8, symSize: 0x24 }
  - { offset: 0x5D241, size: 0x8, addend: 0x0, symName: __RNvXs6_NtCse1nGBsou5OW_5alloc3vecINtB5_3VecTNtNtCs6IAuOt8vWmF_3syn8generics14TypeParamBoundNtNtBK_5token4PlusEENtNtNtCsfvfooZQ3Axs_4core3ops5deref5Deref5derefBK_, symObjAddr: 0x6F0C, symBinAddr: 0x2ABDC, symSize: 0x24 }
  - { offset: 0x5D281, size: 0x8, addend: 0x0, symName: __RNvXs6_NtCse1nGBsou5OW_5alloc3vecINtB5_3VecTNtNtCs6IAuOt8vWmF_3syn8generics14WherePredicateNtNtBK_5token5CommaEENtNtNtCsfvfooZQ3Axs_4core3ops5deref5Deref5derefBK_, symObjAddr: 0x6F30, symBinAddr: 0x2AC00, symSize: 0x24 }
  - { offset: 0x5D2C1, size: 0x8, addend: 0x0, symName: __RNvXs6_NtCse1nGBsou5OW_5alloc3vecINtB5_3VecTNtNtCs6IAuOt8vWmF_3syn8lifetime8LifetimeNtNtBK_5token4PlusEENtNtNtCsfvfooZQ3Axs_4core3ops5deref5Deref5derefBK_, symObjAddr: 0x6F54, symBinAddr: 0x2AC24, symSize: 0x24 }
  - { offset: 0x5D301, size: 0x8, addend: 0x0, symName: __RNvXs6_NtCse1nGBsou5OW_5alloc3vecINtB5_3VechENtNtNtCsfvfooZQ3Axs_4core3ops5deref5Deref5derefCs6IAuOt8vWmF_3syn, symObjAddr: 0x6F78, symBinAddr: 0x2AC48, symSize: 0x24 }
  - { offset: 0x5DA97, size: 0x8, addend: 0x0, symName: __RNvXsb_NtCse1nGBsou5OW_5alloc3vecINtB5_3VecNtNtCs6IAuOt8vWmF_3syn5error12ErrorMessageEINtNtNtCsfvfooZQ3Axs_4core3ops5index5IndexjE5indexBJ_, symObjAddr: 0x7EA4, symBinAddr: 0x2BA5C, symSize: 0x84 }
  - { offset: 0x5DC19, size: 0x8, addend: 0x0, symName: __RNvXsb_NtCse1nGBsou5OW_5alloc3vecINtB5_3VecReEINtNtNtCsfvfooZQ3Axs_4core3ops5index5IndexjE5indexCs6IAuOt8vWmF_3syn, symObjAddr: 0x7F28, symBinAddr: 0x2BAE0, symSize: 0x84 }
  - { offset: 0x5DD9B, size: 0x8, addend: 0x0, symName: __RNvXsb_NtCse1nGBsou5OW_5alloc3vecINtB5_3VecTNtNtCs6IAuOt8vWmF_3syn3pat3PatNtNtBK_5token5CommaEEINtNtNtCsfvfooZQ3Axs_4core3ops5index5IndexjE5indexBK_, symObjAddr: 0x7FAC, symBinAddr: 0x2BB64, symSize: 0x84 }
  - { offset: 0x5DF1D, size: 0x8, addend: 0x0, symName: __RNvXsb_NtCse1nGBsou5OW_5alloc3vecINtB5_3VecTNtNtCs6IAuOt8vWmF_3syn4path11PathSegmentNtNtBK_5token7PathSepEEINtNtNtCsfvfooZQ3Axs_4core3ops5index5IndexjE5indexBK_, symObjAddr: 0x8030, symBinAddr: 0x2BBE8, symSize: 0x84 }
  - { offset: 0x5E09F, size: 0x8, addend: 0x0, symName: __RNvXsb_NtCse1nGBsou5OW_5alloc3vecINtB5_3VechEINtNtNtCsfvfooZQ3Axs_4core3ops5index5IndexINtNtBM_5range9RangeFromjEE5indexCs6IAuOt8vWmF_3syn, symObjAddr: 0x80B4, symBinAddr: 0x2BC6C, symSize: 0x80 }
  - { offset: 0x5E221, size: 0x8, addend: 0x0, symName: __RNvXsb_NtCse1nGBsou5OW_5alloc3vecINtB5_3VechEINtNtNtCsfvfooZQ3Axs_4core3ops5index5IndexjE5indexCs6IAuOt8vWmF_3syn, symObjAddr: 0x8134, symBinAddr: 0x2BCEC, symSize: 0x80 }
  - { offset: 0x5E3AE, size: 0x8, addend: 0x0, symName: __RNvXs0_NtNtCse1nGBsou5OW_5alloc3vec11spec_extendINtB7_3VecNtNtCs6IAuOt8vWmF_3syn4attr9AttributeEINtB5_10SpecExtendBU_INtNtB7_9into_iter8IntoIterBU_EE11spec_extendBY_, symObjAddr: 0x6AB8, symBinAddr: 0x2A874, symSize: 0x98 }
  - { offset: 0x5E41A, size: 0x8, addend: 0x0, symName: __RNvXs_NtNtCse1nGBsou5OW_5alloc3vec11spec_extendINtB6_3VecNtNtCs6IAuOt8vWmF_3syn8generics14TypeParamBoundEINtB4_10SpecExtendBT_INtNtCsfvfooZQ3Axs_4core6option8IntoIterBT_EE11spec_extendBX_, symObjAddr: 0x7E5C, symBinAddr: 0x2BA14, symSize: 0x24 }
  - { offset: 0x5E46C, size: 0x8, addend: 0x0, symName: __RNvXs_NtNtCse1nGBsou5OW_5alloc3vec11spec_extendINtB6_3VecNtNtCs6IAuOt8vWmF_3syn8generics14TypeParamBoundEINtB4_10SpecExtendBT_INtNtNtNtCsfvfooZQ3Axs_4core4iter8adapters3map3MapINtNtB6_9into_iter8IntoIterTBT_NtNtBX_5token4PlusEENCNvXs8_NtBX_10punctuatedINtB3L_10PunctuatedBT_B3j_ENtNtNtB27_6traits7collect12IntoIterator9into_iter0EE11spec_extendBX_, symObjAddr: 0x7E80, symBinAddr: 0x2BA38, symSize: 0x24 }
  - { offset: 0x5E4C5, size: 0x8, addend: 0x0, symName: __RNvXs7_NtCse1nGBsou5OW_5alloc3vecINtB5_3VecTNtNtCs6IAuOt8vWmF_3syn4path11PathSegmentNtNtBK_5token7PathSepEENtNtNtCsfvfooZQ3Axs_4core3ops5deref8DerefMut9deref_mutBK_, symObjAddr: 0x6FC0, symBinAddr: 0x2AC6C, symSize: 0x24 }
  - { offset: 0x5E505, size: 0x8, addend: 0x0, symName: __RNvXs7_NtCse1nGBsou5OW_5alloc3vecINtB5_3VecTNtNtCs6IAuOt8vWmF_3syn8generics12GenericParamNtNtBK_5token5CommaEENtNtNtCsfvfooZQ3Axs_4core3ops5deref8DerefMut9deref_mutBK_, symObjAddr: 0x6FE4, symBinAddr: 0x2AC90, symSize: 0x24 }
  - { offset: 0x5E5DB, size: 0x8, addend: 0x0, symName: __RNvXs9_NtCse1nGBsou5OW_5alloc3vecINtB5_3VecNtNtCs6IAuOt8vWmF_3syn4attr9AttributeENtNtCsfvfooZQ3Axs_4core5clone5Clone5cloneBJ_, symObjAddr: 0x7008, symBinAddr: 0x2ACB4, symSize: 0x88 }
  - { offset: 0x5E7D2, size: 0x8, addend: 0x0, symName: __RNvXs9_NtCse1nGBsou5OW_5alloc3vecINtB5_3VecNtNtCs6IAuOt8vWmF_3syn4expr3ArmENtNtCsfvfooZQ3Axs_4core5clone5Clone5cloneBJ_, symObjAddr: 0x7090, symBinAddr: 0x2AD3C, symSize: 0x88 }
  - { offset: 0x5E9C9, size: 0x8, addend: 0x0, symName: __RNvXs9_NtCse1nGBsou5OW_5alloc3vecINtB5_3VecNtNtCs6IAuOt8vWmF_3syn4item11ForeignItemENtNtCsfvfooZQ3Axs_4core5clone5Clone5cloneBJ_, symObjAddr: 0x7118, symBinAddr: 0x2ADC4, symSize: 0x88 }
  - { offset: 0x5EBC0, size: 0x8, addend: 0x0, symName: __RNvXs9_NtCse1nGBsou5OW_5alloc3vecINtB5_3VecNtNtCs6IAuOt8vWmF_3syn4item4ItemENtNtCsfvfooZQ3Axs_4core5clone5Clone5cloneBJ_, symObjAddr: 0x71A0, symBinAddr: 0x2AE4C, symSize: 0x88 }
  - { offset: 0x5EDB7, size: 0x8, addend: 0x0, symName: __RNvXs9_NtCse1nGBsou5OW_5alloc3vecINtB5_3VecNtNtCs6IAuOt8vWmF_3syn4item8ImplItemENtNtCsfvfooZQ3Axs_4core5clone5Clone5cloneBJ_, symObjAddr: 0x7228, symBinAddr: 0x2AED4, symSize: 0x88 }
  - { offset: 0x5EFAE, size: 0x8, addend: 0x0, symName: __RNvXs9_NtCse1nGBsou5OW_5alloc3vecINtB5_3VecNtNtCs6IAuOt8vWmF_3syn4item9TraitItemENtNtCsfvfooZQ3Axs_4core5clone5Clone5cloneBJ_, symObjAddr: 0x72B0, symBinAddr: 0x2AF5C, symSize: 0x88 }
  - { offset: 0x5F1A5, size: 0x8, addend: 0x0, symName: __RNvXs9_NtCse1nGBsou5OW_5alloc3vecINtB5_3VecNtNtCs6IAuOt8vWmF_3syn4stmt4StmtENtNtCsfvfooZQ3Axs_4core5clone5Clone5cloneBJ_, symObjAddr: 0x7338, symBinAddr: 0x2AFE4, symSize: 0x88 }
  - { offset: 0x5F39C, size: 0x8, addend: 0x0, symName: __RNvXs9_NtCse1nGBsou5OW_5alloc3vecINtB5_3VecTNtNtCs6IAuOt8vWmF_3syn2ty4TypeNtNtBK_5token5CommaEENtNtCsfvfooZQ3Axs_4core5clone5Clone5cloneBK_, symObjAddr: 0x7448, symBinAddr: 0x2B06C, symSize: 0x88 }
  - { offset: 0x5F593, size: 0x8, addend: 0x0, symName: __RNvXs9_NtCse1nGBsou5OW_5alloc3vecINtB5_3VecTNtNtCs6IAuOt8vWmF_3syn2ty9BareFnArgNtNtBK_5token5CommaEENtNtCsfvfooZQ3Axs_4core5clone5Clone5cloneBK_, symObjAddr: 0x74D0, symBinAddr: 0x2B0F4, symSize: 0x88 }
  - { offset: 0x5F78A, size: 0x8, addend: 0x0, symName: __RNvXs9_NtCse1nGBsou5OW_5alloc3vecINtB5_3VecTNtNtCs6IAuOt8vWmF_3syn3pat3PatNtNtBK_5token2OrEENtNtCsfvfooZQ3Axs_4core5clone5Clone5cloneBK_, symObjAddr: 0x7558, symBinAddr: 0x2B17C, symSize: 0x88 }
  - { offset: 0x5F981, size: 0x8, addend: 0x0, symName: __RNvXs9_NtCse1nGBsou5OW_5alloc3vecINtB5_3VecTNtNtCs6IAuOt8vWmF_3syn3pat3PatNtNtBK_5token5CommaEENtNtCsfvfooZQ3Axs_4core5clone5Clone5cloneBK_, symObjAddr: 0x75E0, symBinAddr: 0x2B204, symSize: 0x88 }
  - { offset: 0x5FB78, size: 0x8, addend: 0x0, symName: __RNvXs9_NtCse1nGBsou5OW_5alloc3vecINtB5_3VecTNtNtCs6IAuOt8vWmF_3syn3pat8FieldPatNtNtBK_5token5CommaEENtNtCsfvfooZQ3Axs_4core5clone5Clone5cloneBK_, symObjAddr: 0x7668, symBinAddr: 0x2B28C, symSize: 0x88 }
  - { offset: 0x5FD6F, size: 0x8, addend: 0x0, symName: __RNvXs9_NtCse1nGBsou5OW_5alloc3vecINtB5_3VecTNtNtCs6IAuOt8vWmF_3syn4data5FieldNtNtBK_5token5CommaEENtNtCsfvfooZQ3Axs_4core5clone5Clone5cloneBK_, symObjAddr: 0x76F0, symBinAddr: 0x2B314, symSize: 0x88 }
  - { offset: 0x5FF66, size: 0x8, addend: 0x0, symName: __RNvXs9_NtCse1nGBsou5OW_5alloc3vecINtB5_3VecTNtNtCs6IAuOt8vWmF_3syn4data7VariantNtNtBK_5token5CommaEENtNtCsfvfooZQ3Axs_4core5clone5Clone5cloneBK_, symObjAddr: 0x7778, symBinAddr: 0x2B39C, symSize: 0x88 }
  - { offset: 0x6015D, size: 0x8, addend: 0x0, symName: __RNvXs9_NtCse1nGBsou5OW_5alloc3vecINtB5_3VecTNtNtCs6IAuOt8vWmF_3syn4expr10FieldValueNtNtBK_5token5CommaEENtNtCsfvfooZQ3Axs_4core5clone5Clone5cloneBK_, symObjAddr: 0x7800, symBinAddr: 0x2B424, symSize: 0x88 }
  - { offset: 0x60354, size: 0x8, addend: 0x0, symName: __RNvXs9_NtCse1nGBsou5OW_5alloc3vecINtB5_3VecTNtNtCs6IAuOt8vWmF_3syn4expr4ExprNtNtBK_5token5CommaEENtNtCsfvfooZQ3Axs_4core5clone5Clone5cloneBK_, symObjAddr: 0x7888, symBinAddr: 0x2B4AC, symSize: 0x88 }
  - { offset: 0x6054B, size: 0x8, addend: 0x0, symName: __RNvXs9_NtCse1nGBsou5OW_5alloc3vecINtB5_3VecTNtNtCs6IAuOt8vWmF_3syn4item5FnArgNtNtBK_5token5CommaEENtNtCsfvfooZQ3Axs_4core5clone5Clone5cloneBK_, symObjAddr: 0x7910, symBinAddr: 0x2B534, symSize: 0x88 }
  - { offset: 0x60742, size: 0x8, addend: 0x0, symName: __RNvXs9_NtCse1nGBsou5OW_5alloc3vecINtB5_3VecTNtNtCs6IAuOt8vWmF_3syn4item7UseTreeNtNtBK_5token5CommaEENtNtCsfvfooZQ3Axs_4core5clone5Clone5cloneBK_, symObjAddr: 0x7998, symBinAddr: 0x2B5BC, symSize: 0x88 }
  - { offset: 0x60939, size: 0x8, addend: 0x0, symName: __RNvXs9_NtCse1nGBsou5OW_5alloc3vecINtB5_3VecTNtNtCs6IAuOt8vWmF_3syn4path11PathSegmentNtNtBK_5token7PathSepEENtNtCsfvfooZQ3Axs_4core5clone5Clone5cloneBK_, symObjAddr: 0x7A20, symBinAddr: 0x2B644, symSize: 0x88 }
  - { offset: 0x60B30, size: 0x8, addend: 0x0, symName: __RNvXs9_NtCse1nGBsou5OW_5alloc3vecINtB5_3VecTNtNtCs6IAuOt8vWmF_3syn4path15GenericArgumentNtNtBK_5token5CommaEENtNtCsfvfooZQ3Axs_4core5clone5Clone5cloneBK_, symObjAddr: 0x7AA8, symBinAddr: 0x2B6CC, symSize: 0x88 }
  - { offset: 0x60D27, size: 0x8, addend: 0x0, symName: __RNvXs9_NtCse1nGBsou5OW_5alloc3vecINtB5_3VecTNtNtCs6IAuOt8vWmF_3syn8generics12GenericParamNtNtBK_5token5CommaEENtNtCsfvfooZQ3Axs_4core5clone5Clone5cloneBK_, symObjAddr: 0x7B30, symBinAddr: 0x2B754, symSize: 0x88 }
  - { offset: 0x60F1E, size: 0x8, addend: 0x0, symName: __RNvXs9_NtCse1nGBsou5OW_5alloc3vecINtB5_3VecTNtNtCs6IAuOt8vWmF_3syn8generics13CapturedParamNtNtBK_5token5CommaEENtNtCsfvfooZQ3Axs_4core5clone5Clone5cloneBK_, symObjAddr: 0x7BB8, symBinAddr: 0x2B7DC, symSize: 0x88 }
  - { offset: 0x61115, size: 0x8, addend: 0x0, symName: __RNvXs9_NtCse1nGBsou5OW_5alloc3vecINtB5_3VecTNtNtCs6IAuOt8vWmF_3syn8generics14TypeParamBoundNtNtBK_5token4PlusEENtNtCsfvfooZQ3Axs_4core5clone5Clone5cloneBK_, symObjAddr: 0x7C40, symBinAddr: 0x2B864, symSize: 0x88 }
  - { offset: 0x6130C, size: 0x8, addend: 0x0, symName: __RNvXs9_NtCse1nGBsou5OW_5alloc3vecINtB5_3VecTNtNtCs6IAuOt8vWmF_3syn8generics14WherePredicateNtNtBK_5token5CommaEENtNtCsfvfooZQ3Axs_4core5clone5Clone5cloneBK_, symObjAddr: 0x7CC8, symBinAddr: 0x2B8EC, symSize: 0x88 }
  - { offset: 0x61503, size: 0x8, addend: 0x0, symName: __RNvXs9_NtCse1nGBsou5OW_5alloc3vecINtB5_3VecTNtNtCs6IAuOt8vWmF_3syn8lifetime8LifetimeNtNtBK_5token4PlusEENtNtCsfvfooZQ3Axs_4core5clone5Clone5cloneBK_, symObjAddr: 0x7D50, symBinAddr: 0x2B974, symSize: 0x88 }
  - { offset: 0x61700, size: 0x8, addend: 0x0, symName: __RNvXsc_NtCse1nGBsou5OW_5alloc3vecINtB5_3VecNtNtCs6IAuOt8vWmF_3syn6buffer5EntryEINtNtNtCsfvfooZQ3Axs_4core3ops5index8IndexMutjE9index_mutBJ_, symObjAddr: 0x81B4, symBinAddr: 0x2BD6C, symSize: 0x84 }
  - { offset: 0x61854, size: 0x8, addend: 0x0, symName: __RNvXsc_NtCse1nGBsou5OW_5alloc3vecINtB5_3VechEINtNtNtCsfvfooZQ3Axs_4core3ops5index8IndexMutjE9index_mutCs6IAuOt8vWmF_3syn, symObjAddr: 0x8238, symBinAddr: 0x2BDF0, symSize: 0x80 }
  - { offset: 0x619AE, size: 0x8, addend: 0x0, symName: __RNvXse_NtCse1nGBsou5OW_5alloc3vecINtB5_3VecNtNtCs6IAuOt8vWmF_3syn4attr9AttributeENtNtNtNtCsfvfooZQ3Axs_4core4iter6traits7collect12IntoIterator9into_iterBJ_, symObjAddr: 0x82B8, symBinAddr: 0x2BE70, symSize: 0xDC }
  - { offset: 0x61C40, size: 0x8, addend: 0x0, symName: __RNvXse_NtCse1nGBsou5OW_5alloc3vecINtB5_3VecNtNtCs6IAuOt8vWmF_3syn8generics14TypeParamBoundENtNtNtNtCsfvfooZQ3Axs_4core4iter6traits7collect12IntoIterator9into_iterBJ_, symObjAddr: 0x855C, symBinAddr: 0x2BF4C, symSize: 0xE4 }
  - { offset: 0x61ED2, size: 0x8, addend: 0x0, symName: __RNvXse_NtCse1nGBsou5OW_5alloc3vecINtB5_3VecTNtNtCs6IAuOt8vWmF_3syn4path11PathSegmentNtNtBK_5token7PathSepEENtNtNtNtCsfvfooZQ3Axs_4core4iter6traits7collect12IntoIterator9into_iterBK_, symObjAddr: 0x8808, symBinAddr: 0x2C030, symSize: 0xE4 }
  - { offset: 0x62164, size: 0x8, addend: 0x0, symName: __RNvXse_NtCse1nGBsou5OW_5alloc3vecINtB5_3VecTNtNtCs6IAuOt8vWmF_3syn8generics14TypeParamBoundNtNtBK_5token4PlusEENtNtNtNtCsfvfooZQ3Axs_4core4iter6traits7collect12IntoIterator9into_iterBK_, symObjAddr: 0x88EC, symBinAddr: 0x2C114, symSize: 0xDC }
  - { offset: 0x623FC, size: 0x8, addend: 0x0, symName: __RNvXsf_NtCse1nGBsou5OW_5alloc3vecRINtB5_3VecNtNtCs6IAuOt8vWmF_3syn4attr9AttributeENtNtNtNtCsfvfooZQ3Axs_4core4iter6traits7collect12IntoIterator9into_iterBK_, symObjAddr: 0x89C8, symBinAddr: 0x2C1F0, symSize: 0x9C }
  - { offset: 0x62658, size: 0x8, addend: 0x0, symName: __RNvXsf_NtCse1nGBsou5OW_5alloc3vecRINtB5_3VecNtNtCs6IAuOt8vWmF_3syn4item11ForeignItemENtNtNtNtCsfvfooZQ3Axs_4core4iter6traits7collect12IntoIterator9into_iterBK_, symObjAddr: 0x8A64, symBinAddr: 0x2C28C, symSize: 0xA4 }
  - { offset: 0x628B4, size: 0x8, addend: 0x0, symName: __RNvXsf_NtCse1nGBsou5OW_5alloc3vecRINtB5_3VecNtNtCs6IAuOt8vWmF_3syn4item4ItemENtNtNtNtCsfvfooZQ3Axs_4core4iter6traits7collect12IntoIterator9into_iterBK_, symObjAddr: 0x8B08, symBinAddr: 0x2C330, symSize: 0xA4 }
  - { offset: 0x62B10, size: 0x8, addend: 0x0, symName: __RNvXsf_NtCse1nGBsou5OW_5alloc3vecRINtB5_3VecNtNtCs6IAuOt8vWmF_3syn4item8ImplItemENtNtNtNtCsfvfooZQ3Axs_4core4iter6traits7collect12IntoIterator9into_iterBK_, symObjAddr: 0x8BAC, symBinAddr: 0x2C3D4, symSize: 0xA4 }
  - { offset: 0x62D6C, size: 0x8, addend: 0x0, symName: __RNvXsf_NtCse1nGBsou5OW_5alloc3vecRINtB5_3VecNtNtCs6IAuOt8vWmF_3syn4item9TraitItemENtNtNtNtCsfvfooZQ3Axs_4core4iter6traits7collect12IntoIterator9into_iterBK_, symObjAddr: 0x8C50, symBinAddr: 0x2C478, symSize: 0xA4 }
  - { offset: 0x62FC8, size: 0x8, addend: 0x0, symName: __RNvXsf_NtCse1nGBsou5OW_5alloc3vecRINtB5_3VecNtNtCs6IAuOt8vWmF_3syn4stmt4StmtENtNtNtNtCsfvfooZQ3Axs_4core4iter6traits7collect12IntoIterator9into_iterBK_, symObjAddr: 0x8CF4, symBinAddr: 0x2C51C, symSize: 0xA4 }
  - { offset: 0x6322A, size: 0x8, addend: 0x0, symName: __RNvXsg_NtCse1nGBsou5OW_5alloc3vecQINtB5_3VechENtNtNtNtCsfvfooZQ3Axs_4core4iter6traits7collect12IntoIterator9into_iterCs6IAuOt8vWmF_3syn, symObjAddr: 0x9918, symBinAddr: 0x2C5C0, symSize: 0x98 }
  - { offset: 0x6345E, size: 0x8, addend: 0x0, symName: __RNvXsn_NtCse1nGBsou5OW_5alloc3vecINtB5_3VecNtNtCs6IAuOt8vWmF_3syn4attr9AttributeENtNtNtCsfvfooZQ3Axs_4core3ops4drop4Drop4dropBJ_, symObjAddr: 0x99B0, symBinAddr: 0x2C658, symSize: 0x38 }
  - { offset: 0x6350E, size: 0x8, addend: 0x0, symName: __RNvXsn_NtCse1nGBsou5OW_5alloc3vecINtB5_3VecNtNtCs6IAuOt8vWmF_3syn4expr3ArmENtNtNtCsfvfooZQ3Axs_4core3ops4drop4Drop4dropBJ_, symObjAddr: 0x9A20, symBinAddr: 0x2C690, symSize: 0x38 }
  - { offset: 0x635BE, size: 0x8, addend: 0x0, symName: __RNvXsn_NtCse1nGBsou5OW_5alloc3vecINtB5_3VecNtNtCs6IAuOt8vWmF_3syn4expr6ExprIfENtNtNtCsfvfooZQ3Axs_4core3ops4drop4Drop4dropBJ_, symObjAddr: 0x9A58, symBinAddr: 0x2C6C8, symSize: 0x38 }
  - { offset: 0x6366E, size: 0x8, addend: 0x0, symName: __RNvXsn_NtCse1nGBsou5OW_5alloc3vecINtB5_3VecNtNtCs6IAuOt8vWmF_3syn4item11ForeignItemENtNtNtCsfvfooZQ3Axs_4core3ops4drop4Drop4dropBJ_, symObjAddr: 0x9A90, symBinAddr: 0x2C700, symSize: 0x38 }
  - { offset: 0x6371E, size: 0x8, addend: 0x0, symName: __RNvXsn_NtCse1nGBsou5OW_5alloc3vecINtB5_3VecNtNtCs6IAuOt8vWmF_3syn4item4ItemENtNtNtCsfvfooZQ3Axs_4core3ops4drop4Drop4dropBJ_, symObjAddr: 0x9AC8, symBinAddr: 0x2C738, symSize: 0x38 }
  - { offset: 0x637CE, size: 0x8, addend: 0x0, symName: __RNvXsn_NtCse1nGBsou5OW_5alloc3vecINtB5_3VecNtNtCs6IAuOt8vWmF_3syn4item8ImplItemENtNtNtCsfvfooZQ3Axs_4core3ops4drop4Drop4dropBJ_, symObjAddr: 0x9B00, symBinAddr: 0x2C770, symSize: 0x38 }
  - { offset: 0x6387E, size: 0x8, addend: 0x0, symName: __RNvXsn_NtCse1nGBsou5OW_5alloc3vecINtB5_3VecNtNtCs6IAuOt8vWmF_3syn4item9TraitItemENtNtNtCsfvfooZQ3Axs_4core3ops4drop4Drop4dropBJ_, symObjAddr: 0x9B38, symBinAddr: 0x2C7A8, symSize: 0x38 }
  - { offset: 0x6392E, size: 0x8, addend: 0x0, symName: __RNvXsn_NtCse1nGBsou5OW_5alloc3vecINtB5_3VecNtNtCs6IAuOt8vWmF_3syn4stmt4StmtENtNtNtCsfvfooZQ3Axs_4core3ops4drop4Drop4dropBJ_, symObjAddr: 0x9B70, symBinAddr: 0x2C7E0, symSize: 0x38 }
  - { offset: 0x639DE, size: 0x8, addend: 0x0, symName: __RNvXsn_NtCse1nGBsou5OW_5alloc3vecINtB5_3VecNtNtCs6IAuOt8vWmF_3syn5error12ErrorMessageENtNtNtCsfvfooZQ3Axs_4core3ops4drop4Drop4dropBJ_, symObjAddr: 0x9BA8, symBinAddr: 0x2C818, symSize: 0x38 }
  - { offset: 0x63A8E, size: 0x8, addend: 0x0, symName: __RNvXsn_NtCse1nGBsou5OW_5alloc3vecINtB5_3VecNtNtCs6IAuOt8vWmF_3syn6buffer5EntryENtNtNtCsfvfooZQ3Axs_4core3ops4drop4Drop4dropBJ_, symObjAddr: 0x9BE0, symBinAddr: 0x2C850, symSize: 0x38 }
  - { offset: 0x63B3E, size: 0x8, addend: 0x0, symName: __RNvXsn_NtCse1nGBsou5OW_5alloc3vecINtB5_3VecNtNtCs6IAuOt8vWmF_3syn8generics14TypeParamBoundENtNtNtCsfvfooZQ3Axs_4core3ops4drop4Drop4dropBJ_, symObjAddr: 0x9C18, symBinAddr: 0x2C888, symSize: 0x38 }
  - { offset: 0x63BEE, size: 0x8, addend: 0x0, symName: __RNvXsn_NtCse1nGBsou5OW_5alloc3vecINtB5_3VecReENtNtNtCsfvfooZQ3Axs_4core3ops4drop4Drop4dropCs6IAuOt8vWmF_3syn, symObjAddr: 0x9C50, symBinAddr: 0x2C8C0, symSize: 0x24 }
  - { offset: 0x63C9E, size: 0x8, addend: 0x0, symName: __RNvXsn_NtCse1nGBsou5OW_5alloc3vecINtB5_3VecTNtNtCs6IAuOt8vWmF_3syn2ty4TypeNtNtBK_5token5CommaEENtNtNtCsfvfooZQ3Axs_4core3ops4drop4Drop4dropBK_, symObjAddr: 0x9C74, symBinAddr: 0x2C8E4, symSize: 0x38 }
  - { offset: 0x63D4E, size: 0x8, addend: 0x0, symName: __RNvXsn_NtCse1nGBsou5OW_5alloc3vecINtB5_3VecTNtNtCs6IAuOt8vWmF_3syn2ty9BareFnArgNtNtBK_5token5CommaEENtNtNtCsfvfooZQ3Axs_4core3ops4drop4Drop4dropBK_, symObjAddr: 0x9CAC, symBinAddr: 0x2C91C, symSize: 0x38 }
  - { offset: 0x63DFE, size: 0x8, addend: 0x0, symName: __RNvXsn_NtCse1nGBsou5OW_5alloc3vecINtB5_3VecTNtNtCs6IAuOt8vWmF_3syn3pat3PatNtNtBK_5token2OrEENtNtNtCsfvfooZQ3Axs_4core3ops4drop4Drop4dropBK_, symObjAddr: 0x9CE4, symBinAddr: 0x2C954, symSize: 0x38 }
  - { offset: 0x63EAE, size: 0x8, addend: 0x0, symName: __RNvXsn_NtCse1nGBsou5OW_5alloc3vecINtB5_3VecTNtNtCs6IAuOt8vWmF_3syn3pat3PatNtNtBK_5token5CommaEENtNtNtCsfvfooZQ3Axs_4core3ops4drop4Drop4dropBK_, symObjAddr: 0x9D1C, symBinAddr: 0x2C98C, symSize: 0x38 }
  - { offset: 0x63F5E, size: 0x8, addend: 0x0, symName: __RNvXsn_NtCse1nGBsou5OW_5alloc3vecINtB5_3VecTNtNtCs6IAuOt8vWmF_3syn3pat8FieldPatNtNtBK_5token5CommaEENtNtNtCsfvfooZQ3Axs_4core3ops4drop4Drop4dropBK_, symObjAddr: 0x9D54, symBinAddr: 0x2C9C4, symSize: 0x38 }
  - { offset: 0x6400E, size: 0x8, addend: 0x0, symName: __RNvXsn_NtCse1nGBsou5OW_5alloc3vecINtB5_3VecTNtNtCs6IAuOt8vWmF_3syn4data5FieldNtNtBK_5token5CommaEENtNtNtCsfvfooZQ3Axs_4core3ops4drop4Drop4dropBK_, symObjAddr: 0x9D8C, symBinAddr: 0x2C9FC, symSize: 0x38 }
  - { offset: 0x640BE, size: 0x8, addend: 0x0, symName: __RNvXsn_NtCse1nGBsou5OW_5alloc3vecINtB5_3VecTNtNtCs6IAuOt8vWmF_3syn4data7VariantNtNtBK_5token5CommaEENtNtNtCsfvfooZQ3Axs_4core3ops4drop4Drop4dropBK_, symObjAddr: 0x9DFC, symBinAddr: 0x2CA34, symSize: 0x38 }
  - { offset: 0x6416E, size: 0x8, addend: 0x0, symName: __RNvXsn_NtCse1nGBsou5OW_5alloc3vecINtB5_3VecTNtNtCs6IAuOt8vWmF_3syn4expr10FieldValueNtNtBK_5token5CommaEENtNtNtCsfvfooZQ3Axs_4core3ops4drop4Drop4dropBK_, symObjAddr: 0x9E34, symBinAddr: 0x2CA6C, symSize: 0x38 }
  - { offset: 0x6421E, size: 0x8, addend: 0x0, symName: __RNvXsn_NtCse1nGBsou5OW_5alloc3vecINtB5_3VecTNtNtCs6IAuOt8vWmF_3syn4expr4ExprNtNtBK_5token5CommaEENtNtNtCsfvfooZQ3Axs_4core3ops4drop4Drop4dropBK_, symObjAddr: 0x9E6C, symBinAddr: 0x2CAA4, symSize: 0x38 }
  - { offset: 0x642CE, size: 0x8, addend: 0x0, symName: __RNvXsn_NtCse1nGBsou5OW_5alloc3vecINtB5_3VecTNtNtCs6IAuOt8vWmF_3syn4item5FnArgNtNtBK_5token5CommaEENtNtNtCsfvfooZQ3Axs_4core3ops4drop4Drop4dropBK_, symObjAddr: 0x9EA4, symBinAddr: 0x2CADC, symSize: 0x38 }
  - { offset: 0x6437E, size: 0x8, addend: 0x0, symName: __RNvXsn_NtCse1nGBsou5OW_5alloc3vecINtB5_3VecTNtNtCs6IAuOt8vWmF_3syn4item7UseTreeNtNtBK_5token5CommaEENtNtNtCsfvfooZQ3Axs_4core3ops4drop4Drop4dropBK_, symObjAddr: 0x9EDC, symBinAddr: 0x2CB14, symSize: 0x38 }
  - { offset: 0x6442E, size: 0x8, addend: 0x0, symName: __RNvXsn_NtCse1nGBsou5OW_5alloc3vecINtB5_3VecTNtNtCs6IAuOt8vWmF_3syn4path11PathSegmentNtNtBK_5token7PathSepEENtNtNtCsfvfooZQ3Axs_4core3ops4drop4Drop4dropBK_, symObjAddr: 0x9F14, symBinAddr: 0x2CB4C, symSize: 0x38 }
  - { offset: 0x644DE, size: 0x8, addend: 0x0, symName: __RNvXsn_NtCse1nGBsou5OW_5alloc3vecINtB5_3VecTNtNtCs6IAuOt8vWmF_3syn4path15GenericArgumentNtNtBK_5token5CommaEENtNtNtCsfvfooZQ3Axs_4core3ops4drop4Drop4dropBK_, symObjAddr: 0x9F4C, symBinAddr: 0x2CB84, symSize: 0x38 }
  - { offset: 0x6458E, size: 0x8, addend: 0x0, symName: __RNvXsn_NtCse1nGBsou5OW_5alloc3vecINtB5_3VecTNtNtCs6IAuOt8vWmF_3syn8generics12GenericParamNtNtBK_5token5CommaEENtNtNtCsfvfooZQ3Axs_4core3ops4drop4Drop4dropBK_, symObjAddr: 0x9F84, symBinAddr: 0x2CBBC, symSize: 0x38 }
  - { offset: 0x6463E, size: 0x8, addend: 0x0, symName: __RNvXsn_NtCse1nGBsou5OW_5alloc3vecINtB5_3VecTNtNtCs6IAuOt8vWmF_3syn8generics13CapturedParamNtNtBK_5token5CommaEENtNtNtCsfvfooZQ3Axs_4core3ops4drop4Drop4dropBK_, symObjAddr: 0x9FBC, symBinAddr: 0x2CBF4, symSize: 0x38 }
  - { offset: 0x646EE, size: 0x8, addend: 0x0, symName: __RNvXsn_NtCse1nGBsou5OW_5alloc3vecINtB5_3VecTNtNtCs6IAuOt8vWmF_3syn8generics14TypeParamBoundNtNtBK_5token4PlusEENtNtNtCsfvfooZQ3Axs_4core3ops4drop4Drop4dropBK_, symObjAddr: 0x9FF4, symBinAddr: 0x2CC2C, symSize: 0x38 }
  - { offset: 0x6479E, size: 0x8, addend: 0x0, symName: __RNvXsn_NtCse1nGBsou5OW_5alloc3vecINtB5_3VecTNtNtCs6IAuOt8vWmF_3syn8generics14WherePredicateNtNtBK_5token5CommaEENtNtNtCsfvfooZQ3Axs_4core3ops4drop4Drop4dropBK_, symObjAddr: 0xA02C, symBinAddr: 0x2CC64, symSize: 0x38 }
  - { offset: 0x6484E, size: 0x8, addend: 0x0, symName: __RNvXsn_NtCse1nGBsou5OW_5alloc3vecINtB5_3VecTNtNtCs6IAuOt8vWmF_3syn8lifetime8LifetimeNtNtBK_5token4PlusEENtNtNtCsfvfooZQ3Axs_4core3ops4drop4Drop4dropBK_, symObjAddr: 0xA064, symBinAddr: 0x2CC9C, symSize: 0x38 }
  - { offset: 0x64904, size: 0x8, addend: 0x0, symName: __RNvXsp_NtCse1nGBsou5OW_5alloc3vecINtB5_3VecNtNtCs6IAuOt8vWmF_3syn5error12ErrorMessageENtNtCsfvfooZQ3Axs_4core3fmt5Debug3fmtBJ_, symObjAddr: 0xA3C8, symBinAddr: 0x2CCD4, symSize: 0x74 }
  - { offset: 0x64A14, size: 0x8, addend: 0x0, symName: __RNvXsp_NtCse1nGBsou5OW_5alloc3vecINtB5_3VechENtNtCsfvfooZQ3Axs_4core3fmt5Debug3fmtCs6IAuOt8vWmF_3syn, symObjAddr: 0xA43C, symBinAddr: 0x2CD48, symSize: 0x70 }
  - { offset: 0x66F42, size: 0x8, addend: 0x0, symName: __RNvXsV_NtCse1nGBsou5OW_5alloc6stringINtNtB7_3vec3VechEINtNtCsfvfooZQ3Axs_4core7convert4FromNtB5_6StringE4fromCs6IAuOt8vWmF_3syn, symObjAddr: 0x7DD8, symBinAddr: 0x2B9FC, symSize: 0x18 }
  - { offset: 0x67197, size: 0x8, addend: 0x0, symName: __RNvXNvMs_NtNtCse1nGBsou5OW_5alloc3ffi5c_strNtB7_7CString3newINtNtBb_3vec3VechENtB2_11SpecNewImpl13spec_new_implCs6IAuOt8vWmF_3syn, symObjAddr: 0x6940, symBinAddr: 0x2A6FC, symSize: 0x178 }
  - { offset: 0x6CD99, size: 0x8, addend: 0x0, symName: __RINvMs_NtCse1nGBsou5OW_5alloc3vecINtB5_3VecReE10retain_mutNCNvMNtCs6IAuOt8vWmF_3syn9lookaheadNtBZ_10Lookahead15error0EB11_, symObjAddr: 0x0, symBinAddr: 0x263C0, symSize: 0xE4 }
  - { offset: 0x6D681, size: 0x8, addend: 0x0, symName: __RINvMsi_NtCse1nGBsou5OW_5alloc3vecINtB6_3VecNtNtCs6IAuOt8vWmF_3syn8generics14TypeParamBoundE14extend_trustedINtNtCsfvfooZQ3Axs_4core6option8IntoIterBG_EEBK_, symObjAddr: 0x93C, symBinAddr: 0x264A4, symSize: 0x1A0 }
  - { offset: 0x6D92D, size: 0x8, addend: 0x0, symName: __RINvMsi_NtCse1nGBsou5OW_5alloc3vecINtB6_3VecNtNtCs6IAuOt8vWmF_3syn8generics14TypeParamBoundE14extend_trustedINtNtNtNtCsfvfooZQ3Axs_4core4iter8adapters3map3MapINtNtB6_9into_iter8IntoIterTBG_NtNtBK_5token4PlusEENCNvXs8_NtBK_10punctuatedINtB3t_10PunctuatedBG_B31_ENtNtNtB1P_6traits7collect12IntoIterator9into_iter0EEBK_, symObjAddr: 0xADC, symBinAddr: 0x26644, symSize: 0x188 }
  - { offset: 0x6DC6B, size: 0x8, addend: 0x0, symName: __RNvMNtCse1nGBsou5OW_5alloc3vecINtB2_3VecNtNtCs6IAuOt8vWmF_3syn4attr9AttributeE3newBG_, symObjAddr: 0x12C0, symBinAddr: 0x26B80, symSize: 0x14 }
  - { offset: 0x6DC88, size: 0x8, addend: 0x0, symName: __RNvMNtCse1nGBsou5OW_5alloc3vecINtB2_3VecNtNtCs6IAuOt8vWmF_3syn4expr3ArmE3newBG_, symObjAddr: 0x131C, symBinAddr: 0x26B94, symSize: 0x14 }
  - { offset: 0x6DCA5, size: 0x8, addend: 0x0, symName: __RNvMNtCse1nGBsou5OW_5alloc3vecINtB2_3VecNtNtCs6IAuOt8vWmF_3syn4expr6ExprIfE3newBG_, symObjAddr: 0x1330, symBinAddr: 0x26BA8, symSize: 0x14 }
  - { offset: 0x6DCC2, size: 0x8, addend: 0x0, symName: __RNvMNtCse1nGBsou5OW_5alloc3vecINtB2_3VecNtNtCs6IAuOt8vWmF_3syn4item11ForeignItemE3newBG_, symObjAddr: 0x1344, symBinAddr: 0x26BBC, symSize: 0x14 }
  - { offset: 0x6DCDF, size: 0x8, addend: 0x0, symName: __RNvMNtCse1nGBsou5OW_5alloc3vecINtB2_3VecNtNtCs6IAuOt8vWmF_3syn4item4ItemE3newBG_, symObjAddr: 0x1358, symBinAddr: 0x26BD0, symSize: 0x14 }
  - { offset: 0x6DCFC, size: 0x8, addend: 0x0, symName: __RNvMNtCse1nGBsou5OW_5alloc3vecINtB2_3VecNtNtCs6IAuOt8vWmF_3syn4item8ImplItemE3newBG_, symObjAddr: 0x136C, symBinAddr: 0x26BE4, symSize: 0x14 }
  - { offset: 0x6DD19, size: 0x8, addend: 0x0, symName: __RNvMNtCse1nGBsou5OW_5alloc3vecINtB2_3VecNtNtCs6IAuOt8vWmF_3syn4item9TraitItemE3newBG_, symObjAddr: 0x1380, symBinAddr: 0x26BF8, symSize: 0x14 }
  - { offset: 0x6DD36, size: 0x8, addend: 0x0, symName: __RNvMNtCse1nGBsou5OW_5alloc3vecINtB2_3VecNtNtCs6IAuOt8vWmF_3syn4stmt4StmtE3newBG_, symObjAddr: 0x1394, symBinAddr: 0x26C0C, symSize: 0x14 }
  - { offset: 0x6DD53, size: 0x8, addend: 0x0, symName: __RNvMNtCse1nGBsou5OW_5alloc3vecINtB2_3VecNtNtCs6IAuOt8vWmF_3syn6buffer5EntryE3newBG_, symObjAddr: 0x13A8, symBinAddr: 0x26C20, symSize: 0x14 }
  - { offset: 0x6DDD2, size: 0x8, addend: 0x0, symName: __RNvMNtCse1nGBsou5OW_5alloc3vecINtB2_3VecNtNtCs6IAuOt8vWmF_3syn8generics14TypeParamBoundE13with_capacityBG_, symObjAddr: 0x13BC, symBinAddr: 0x26C34, symSize: 0x48 }
  - { offset: 0x6DE4A, size: 0x8, addend: 0x0, symName: __RNvMNtCse1nGBsou5OW_5alloc3vecINtB2_3VecReE3newCs6IAuOt8vWmF_3syn, symObjAddr: 0x1404, symBinAddr: 0x26C7C, symSize: 0x14 }
  - { offset: 0x6DE67, size: 0x8, addend: 0x0, symName: __RNvMNtCse1nGBsou5OW_5alloc3vecINtB2_3VecTNtNtCs6IAuOt8vWmF_3syn2ty4TypeNtNtBH_5token5CommaEE3newBH_, symObjAddr: 0x1418, symBinAddr: 0x26C90, symSize: 0x14 }
  - { offset: 0x6DE84, size: 0x8, addend: 0x0, symName: __RNvMNtCse1nGBsou5OW_5alloc3vecINtB2_3VecTNtNtCs6IAuOt8vWmF_3syn2ty9BareFnArgNtNtBH_5token5CommaEE3newBH_, symObjAddr: 0x142C, symBinAddr: 0x26CA4, symSize: 0x14 }
  - { offset: 0x6DEA1, size: 0x8, addend: 0x0, symName: __RNvMNtCse1nGBsou5OW_5alloc3vecINtB2_3VecTNtNtCs6IAuOt8vWmF_3syn3pat3PatNtNtBH_5token2OrEE3newBH_, symObjAddr: 0x1440, symBinAddr: 0x26CB8, symSize: 0x14 }
  - { offset: 0x6DEBE, size: 0x8, addend: 0x0, symName: __RNvMNtCse1nGBsou5OW_5alloc3vecINtB2_3VecTNtNtCs6IAuOt8vWmF_3syn3pat3PatNtNtBH_5token5CommaEE3newBH_, symObjAddr: 0x1454, symBinAddr: 0x26CCC, symSize: 0x14 }
  - { offset: 0x6DEDB, size: 0x8, addend: 0x0, symName: __RNvMNtCse1nGBsou5OW_5alloc3vecINtB2_3VecTNtNtCs6IAuOt8vWmF_3syn3pat8FieldPatNtNtBH_5token5CommaEE3newBH_, symObjAddr: 0x1468, symBinAddr: 0x26CE0, symSize: 0x14 }
  - { offset: 0x6DEF8, size: 0x8, addend: 0x0, symName: __RNvMNtCse1nGBsou5OW_5alloc3vecINtB2_3VecTNtNtCs6IAuOt8vWmF_3syn4data5FieldNtNtBH_5token5CommaEE3newBH_, symObjAddr: 0x147C, symBinAddr: 0x26CF4, symSize: 0x14 }
  - { offset: 0x6DF15, size: 0x8, addend: 0x0, symName: __RNvMNtCse1nGBsou5OW_5alloc3vecINtB2_3VecTNtNtCs6IAuOt8vWmF_3syn4data7VariantNtNtBH_5token5CommaEE3newBH_, symObjAddr: 0x14A4, symBinAddr: 0x26D08, symSize: 0x14 }
  - { offset: 0x6DF32, size: 0x8, addend: 0x0, symName: __RNvMNtCse1nGBsou5OW_5alloc3vecINtB2_3VecTNtNtCs6IAuOt8vWmF_3syn4expr10FieldValueNtNtBH_5token5CommaEE3newBH_, symObjAddr: 0x14B8, symBinAddr: 0x26D1C, symSize: 0x14 }
  - { offset: 0x6DF4F, size: 0x8, addend: 0x0, symName: __RNvMNtCse1nGBsou5OW_5alloc3vecINtB2_3VecTNtNtCs6IAuOt8vWmF_3syn4expr4ExprNtNtBH_5token5CommaEE3newBH_, symObjAddr: 0x14CC, symBinAddr: 0x26D30, symSize: 0x14 }
  - { offset: 0x6DF6C, size: 0x8, addend: 0x0, symName: __RNvMNtCse1nGBsou5OW_5alloc3vecINtB2_3VecTNtNtCs6IAuOt8vWmF_3syn4item5FnArgNtNtBH_5token5CommaEE3newBH_, symObjAddr: 0x14E0, symBinAddr: 0x26D44, symSize: 0x14 }
  - { offset: 0x6DF89, size: 0x8, addend: 0x0, symName: __RNvMNtCse1nGBsou5OW_5alloc3vecINtB2_3VecTNtNtCs6IAuOt8vWmF_3syn4item7UseTreeNtNtBH_5token5CommaEE3newBH_, symObjAddr: 0x14F4, symBinAddr: 0x26D58, symSize: 0x14 }
  - { offset: 0x6DFA6, size: 0x8, addend: 0x0, symName: __RNvMNtCse1nGBsou5OW_5alloc3vecINtB2_3VecTNtNtCs6IAuOt8vWmF_3syn4path11PathSegmentNtNtBH_5token7PathSepEE3newBH_, symObjAddr: 0x1508, symBinAddr: 0x26D6C, symSize: 0x14 }
  - { offset: 0x6DFC3, size: 0x8, addend: 0x0, symName: __RNvMNtCse1nGBsou5OW_5alloc3vecINtB2_3VecTNtNtCs6IAuOt8vWmF_3syn4path15GenericArgumentNtNtBH_5token5CommaEE3newBH_, symObjAddr: 0x151C, symBinAddr: 0x26D80, symSize: 0x14 }
  - { offset: 0x6DFE0, size: 0x8, addend: 0x0, symName: __RNvMNtCse1nGBsou5OW_5alloc3vecINtB2_3VecTNtNtCs6IAuOt8vWmF_3syn8generics12GenericParamNtNtBH_5token5CommaEE3newBH_, symObjAddr: 0x1530, symBinAddr: 0x26D94, symSize: 0x14 }
  - { offset: 0x6DFFD, size: 0x8, addend: 0x0, symName: __RNvMNtCse1nGBsou5OW_5alloc3vecINtB2_3VecTNtNtCs6IAuOt8vWmF_3syn8generics13CapturedParamNtNtBH_5token5CommaEE3newBH_, symObjAddr: 0x1544, symBinAddr: 0x26DA8, symSize: 0x14 }
  - { offset: 0x6E01A, size: 0x8, addend: 0x0, symName: __RNvMNtCse1nGBsou5OW_5alloc3vecINtB2_3VecTNtNtCs6IAuOt8vWmF_3syn8generics14TypeParamBoundNtNtBH_5token4PlusEE3newBH_, symObjAddr: 0x1558, symBinAddr: 0x26DBC, symSize: 0x14 }
  - { offset: 0x6E037, size: 0x8, addend: 0x0, symName: __RNvMNtCse1nGBsou5OW_5alloc3vecINtB2_3VecTNtNtCs6IAuOt8vWmF_3syn8generics14WherePredicateNtNtBH_5token5CommaEE3newBH_, symObjAddr: 0x156C, symBinAddr: 0x26DD0, symSize: 0x14 }
  - { offset: 0x6E054, size: 0x8, addend: 0x0, symName: __RNvMNtCse1nGBsou5OW_5alloc3vecINtB2_3VecTNtNtCs6IAuOt8vWmF_3syn8lifetime8LifetimeNtNtBH_5token4PlusEE3newBH_, symObjAddr: 0x1580, symBinAddr: 0x26DE4, symSize: 0x14 }
  - { offset: 0x6E071, size: 0x8, addend: 0x0, symName: __RNvMNtCse1nGBsou5OW_5alloc3vecINtB2_3VechE3newCs6IAuOt8vWmF_3syn, symObjAddr: 0x1594, symBinAddr: 0x26DF8, symSize: 0x14 }
  - { offset: 0x6E193, size: 0x8, addend: 0x0, symName: __RNvMs0_NtCse1nGBsou5OW_5alloc3vecINtB5_3VechE17extend_from_sliceCs6IAuOt8vWmF_3syn, symObjAddr: 0x15A8, symBinAddr: 0x26E0C, symSize: 0x74 }
  - { offset: 0x6E41B, size: 0x8, addend: 0x0, symName: __RNvMs0_NtCse1nGBsou5OW_5alloc3vecINtB5_3VechE6resizeCs6IAuOt8vWmF_3syn, symObjAddr: 0x161C, symBinAddr: 0x26E80, symSize: 0x100 }
  - { offset: 0x6E6BC, size: 0x8, addend: 0x0, symName: __RNvMs2_NtCse1nGBsou5OW_5alloc3vecINtB5_3VechE11extend_withCs6IAuOt8vWmF_3syn, symObjAddr: 0x171C, symBinAddr: 0x26F80, symSize: 0x230 }
  - { offset: 0x6EA6D, size: 0x8, addend: 0x0, symName: __RNvMs_NtCse1nGBsou5OW_5alloc3vecINtB4_3VecNtNtCs6IAuOt8vWmF_3syn4attr9AttributeE15append_elementsBI_, symObjAddr: 0x194C, symBinAddr: 0x271B0, symSize: 0xD8 }
  - { offset: 0x6ECA2, size: 0x8, addend: 0x0, symName: __RNvMs_NtCse1nGBsou5OW_5alloc3vecINtB4_3VecNtNtCs6IAuOt8vWmF_3syn4attr9AttributeE4pushBI_, symObjAddr: 0x1A24, symBinAddr: 0x27288, symSize: 0x118 }
  - { offset: 0x6EF3E, size: 0x8, addend: 0x0, symName: __RNvMs_NtCse1nGBsou5OW_5alloc3vecINtB4_3VecNtNtCs6IAuOt8vWmF_3syn4attr9AttributeE6appendBI_, symObjAddr: 0x1B3C, symBinAddr: 0x273A0, symSize: 0x8C }
  - { offset: 0x6F173, size: 0x8, addend: 0x0, symName: __RNvMs_NtCse1nGBsou5OW_5alloc3vecINtB4_3VecNtNtCs6IAuOt8vWmF_3syn4attr9AttributeE7reserveBI_, symObjAddr: 0x1BC8, symBinAddr: 0x2742C, symSize: 0xC8 }
  - { offset: 0x6F34A, size: 0x8, addend: 0x0, symName: __RNvMs_NtCse1nGBsou5OW_5alloc3vecINtB4_3VecNtNtCs6IAuOt8vWmF_3syn4attr9AttributeE8as_sliceBI_, symObjAddr: 0x1C90, symBinAddr: 0x274F4, symSize: 0x64 }
  - { offset: 0x6F429, size: 0x8, addend: 0x0, symName: __RNvMs_NtCse1nGBsou5OW_5alloc3vecINtB4_3VecNtNtCs6IAuOt8vWmF_3syn4attr9AttributeE8is_emptyBI_, symObjAddr: 0x1CF4, symBinAddr: 0x27558, symSize: 0x20 }
  - { offset: 0x6F489, size: 0x8, addend: 0x0, symName: __RNvMs_NtCse1nGBsou5OW_5alloc3vecINtB4_3VecNtNtCs6IAuOt8vWmF_3syn4expr3ArmE3lenBI_, symObjAddr: 0x1DDC, symBinAddr: 0x27578, symSize: 0x18 }
  - { offset: 0x6F5D1, size: 0x8, addend: 0x0, symName: __RNvMs_NtCse1nGBsou5OW_5alloc3vecINtB4_3VecNtNtCs6IAuOt8vWmF_3syn4expr3ArmE4pushBI_, symObjAddr: 0x1DF4, symBinAddr: 0x27590, symSize: 0x120 }
  - { offset: 0x6F81F, size: 0x8, addend: 0x0, symName: __RNvMs_NtCse1nGBsou5OW_5alloc3vecINtB4_3VecNtNtCs6IAuOt8vWmF_3syn4expr3ArmE8as_sliceBI_, symObjAddr: 0x1F14, symBinAddr: 0x276B0, symSize: 0x64 }
  - { offset: 0x6FA33, size: 0x8, addend: 0x0, symName: __RNvMs_NtCse1nGBsou5OW_5alloc3vecINtB4_3VecNtNtCs6IAuOt8vWmF_3syn4expr6ExprIfE3popBI_, symObjAddr: 0x1F78, symBinAddr: 0x27714, symSize: 0x100 }
  - { offset: 0x6FCA7, size: 0x8, addend: 0x0, symName: __RNvMs_NtCse1nGBsou5OW_5alloc3vecINtB4_3VecNtNtCs6IAuOt8vWmF_3syn4expr6ExprIfE4pushBI_, symObjAddr: 0x2078, symBinAddr: 0x27814, symSize: 0x120 }
  - { offset: 0x6FF71, size: 0x8, addend: 0x0, symName: __RNvMs_NtCse1nGBsou5OW_5alloc3vecINtB4_3VecNtNtCs6IAuOt8vWmF_3syn4item11ForeignItemE4pushBI_, symObjAddr: 0x2198, symBinAddr: 0x27934, symSize: 0x120 }
  - { offset: 0x7023B, size: 0x8, addend: 0x0, symName: __RNvMs_NtCse1nGBsou5OW_5alloc3vecINtB4_3VecNtNtCs6IAuOt8vWmF_3syn4item4ItemE4pushBI_, symObjAddr: 0x22B8, symBinAddr: 0x27A54, symSize: 0x120 }
  - { offset: 0x70505, size: 0x8, addend: 0x0, symName: __RNvMs_NtCse1nGBsou5OW_5alloc3vecINtB4_3VecNtNtCs6IAuOt8vWmF_3syn4item8ImplItemE4pushBI_, symObjAddr: 0x23D8, symBinAddr: 0x27B74, symSize: 0x120 }
  - { offset: 0x707CF, size: 0x8, addend: 0x0, symName: __RNvMs_NtCse1nGBsou5OW_5alloc3vecINtB4_3VecNtNtCs6IAuOt8vWmF_3syn4item9TraitItemE4pushBI_, symObjAddr: 0x24F8, symBinAddr: 0x27C94, symSize: 0x120 }
  - { offset: 0x70A99, size: 0x8, addend: 0x0, symName: __RNvMs_NtCse1nGBsou5OW_5alloc3vecINtB4_3VecNtNtCs6IAuOt8vWmF_3syn4stmt4StmtE4pushBI_, symObjAddr: 0x2618, symBinAddr: 0x27DB4, symSize: 0x120 }
  - { offset: 0x70CAB, size: 0x8, addend: 0x0, symName: __RNvMs_NtCse1nGBsou5OW_5alloc3vecINtB4_3VecNtNtCs6IAuOt8vWmF_3syn5error12ErrorMessageE3lenBI_, symObjAddr: 0x2818, symBinAddr: 0x27ED4, symSize: 0x18 }
  - { offset: 0x70E38, size: 0x8, addend: 0x0, symName: __RNvMs_NtCse1nGBsou5OW_5alloc3vecINtB4_3VecNtNtCs6IAuOt8vWmF_3syn6buffer5EntryE13shrink_to_fitBI_, symObjAddr: 0x295C, symBinAddr: 0x27EEC, symSize: 0xEC }
  - { offset: 0x710AB, size: 0x8, addend: 0x0, symName: __RNvMs_NtCse1nGBsou5OW_5alloc3vecINtB4_3VecNtNtCs6IAuOt8vWmF_3syn6buffer5EntryE16into_boxed_sliceBI_, symObjAddr: 0x2A48, symBinAddr: 0x27FD8, symSize: 0x110 }
  - { offset: 0x71274, size: 0x8, addend: 0x0, symName: __RNvMs_NtCse1nGBsou5OW_5alloc3vecINtB4_3VecNtNtCs6IAuOt8vWmF_3syn6buffer5EntryE3lenBI_, symObjAddr: 0x2B58, symBinAddr: 0x280E8, symSize: 0x18 }
  - { offset: 0x71395, size: 0x8, addend: 0x0, symName: __RNvMs_NtCse1nGBsou5OW_5alloc3vecINtB4_3VecNtNtCs6IAuOt8vWmF_3syn6buffer5EntryE4pushBI_, symObjAddr: 0x2B70, symBinAddr: 0x28100, symSize: 0x100 }
  - { offset: 0x7165F, size: 0x8, addend: 0x0, symName: __RNvMs_NtCse1nGBsou5OW_5alloc3vecINtB4_3VecNtNtCs6IAuOt8vWmF_3syn8generics14TypeParamBoundE7reserveBI_, symObjAddr: 0x2C70, symBinAddr: 0x28200, symSize: 0xC8 }
  - { offset: 0x717C6, size: 0x8, addend: 0x0, symName: __RNvMs_NtCse1nGBsou5OW_5alloc3vecINtB4_3VecReE3lenCs6IAuOt8vWmF_3syn, symObjAddr: 0x2D38, symBinAddr: 0x282C8, symSize: 0x18 }
  - { offset: 0x718DA, size: 0x8, addend: 0x0, symName: __RNvMs_NtCse1nGBsou5OW_5alloc3vecINtB4_3VecReE4pushCs6IAuOt8vWmF_3syn, symObjAddr: 0x2D50, symBinAddr: 0x282E0, symSize: 0xF4 }
  - { offset: 0x71AFD, size: 0x8, addend: 0x0, symName: __RNvMs_NtCse1nGBsou5OW_5alloc3vecINtB4_3VecReE8as_sliceCs6IAuOt8vWmF_3syn, symObjAddr: 0x2E44, symBinAddr: 0x283D4, symSize: 0x64 }
  - { offset: 0x71BC4, size: 0x8, addend: 0x0, symName: __RNvMs_NtCse1nGBsou5OW_5alloc3vecINtB4_3VecTNtNtCs6IAuOt8vWmF_3syn2ty4TypeNtNtBJ_5token5CommaEE3lenBJ_, symObjAddr: 0x2EA8, symBinAddr: 0x28438, symSize: 0x18 }
  - { offset: 0x71D0C, size: 0x8, addend: 0x0, symName: __RNvMs_NtCse1nGBsou5OW_5alloc3vecINtB4_3VecTNtNtCs6IAuOt8vWmF_3syn2ty4TypeNtNtBJ_5token5CommaEE4pushBJ_, symObjAddr: 0x2EC0, symBinAddr: 0x28450, symSize: 0x120 }
  - { offset: 0x71F5A, size: 0x8, addend: 0x0, symName: __RNvMs_NtCse1nGBsou5OW_5alloc3vecINtB4_3VecTNtNtCs6IAuOt8vWmF_3syn2ty4TypeNtNtBJ_5token5CommaEE8as_sliceBJ_, symObjAddr: 0x2FE0, symBinAddr: 0x28570, symSize: 0x64 }
  - { offset: 0x72021, size: 0x8, addend: 0x0, symName: __RNvMs_NtCse1nGBsou5OW_5alloc3vecINtB4_3VecTNtNtCs6IAuOt8vWmF_3syn2ty9BareFnArgNtNtBJ_5token5CommaEE3lenBJ_, symObjAddr: 0x3044, symBinAddr: 0x285D4, symSize: 0x18 }
  - { offset: 0x72169, size: 0x8, addend: 0x0, symName: __RNvMs_NtCse1nGBsou5OW_5alloc3vecINtB4_3VecTNtNtCs6IAuOt8vWmF_3syn2ty9BareFnArgNtNtBJ_5token5CommaEE4pushBJ_, symObjAddr: 0x305C, symBinAddr: 0x285EC, symSize: 0x120 }
  - { offset: 0x723B7, size: 0x8, addend: 0x0, symName: __RNvMs_NtCse1nGBsou5OW_5alloc3vecINtB4_3VecTNtNtCs6IAuOt8vWmF_3syn2ty9BareFnArgNtNtBJ_5token5CommaEE8as_sliceBJ_, symObjAddr: 0x317C, symBinAddr: 0x2870C, symSize: 0x64 }
  - { offset: 0x72584, size: 0x8, addend: 0x0, symName: __RNvMs_NtCse1nGBsou5OW_5alloc3vecINtB4_3VecTNtNtCs6IAuOt8vWmF_3syn3pat3PatNtNtBJ_5token2OrEE4pushBJ_, symObjAddr: 0x31E0, symBinAddr: 0x28770, symSize: 0x120 }
  - { offset: 0x727DF, size: 0x8, addend: 0x0, symName: __RNvMs_NtCse1nGBsou5OW_5alloc3vecINtB4_3VecTNtNtCs6IAuOt8vWmF_3syn3pat3PatNtNtBJ_5token2OrEE8as_sliceBJ_, symObjAddr: 0x3300, symBinAddr: 0x28890, symSize: 0x64 }
  - { offset: 0x728A6, size: 0x8, addend: 0x0, symName: __RNvMs_NtCse1nGBsou5OW_5alloc3vecINtB4_3VecTNtNtCs6IAuOt8vWmF_3syn3pat3PatNtNtBJ_5token5CommaEE3lenBJ_, symObjAddr: 0x3364, symBinAddr: 0x288F4, symSize: 0x18 }
  - { offset: 0x729EE, size: 0x8, addend: 0x0, symName: __RNvMs_NtCse1nGBsou5OW_5alloc3vecINtB4_3VecTNtNtCs6IAuOt8vWmF_3syn3pat3PatNtNtBJ_5token5CommaEE4pushBJ_, symObjAddr: 0x337C, symBinAddr: 0x2890C, symSize: 0x120 }
  - { offset: 0x72C3C, size: 0x8, addend: 0x0, symName: __RNvMs_NtCse1nGBsou5OW_5alloc3vecINtB4_3VecTNtNtCs6IAuOt8vWmF_3syn3pat3PatNtNtBJ_5token5CommaEE8as_sliceBJ_, symObjAddr: 0x349C, symBinAddr: 0x28A2C, symSize: 0x64 }
  - { offset: 0x72E09, size: 0x8, addend: 0x0, symName: __RNvMs_NtCse1nGBsou5OW_5alloc3vecINtB4_3VecTNtNtCs6IAuOt8vWmF_3syn3pat8FieldPatNtNtBJ_5token5CommaEE4pushBJ_, symObjAddr: 0x3500, symBinAddr: 0x28A90, symSize: 0x118 }
  - { offset: 0x73062, size: 0x8, addend: 0x0, symName: __RNvMs_NtCse1nGBsou5OW_5alloc3vecINtB4_3VecTNtNtCs6IAuOt8vWmF_3syn3pat8FieldPatNtNtBJ_5token5CommaEE8as_sliceBJ_, symObjAddr: 0x3618, symBinAddr: 0x28BA8, symSize: 0x64 }
  - { offset: 0x73256, size: 0x8, addend: 0x0, symName: __RNvMs_NtCse1nGBsou5OW_5alloc3vecINtB4_3VecTNtNtCs6IAuOt8vWmF_3syn4data5FieldNtNtBJ_5token5CommaEE4pushBJ_, symObjAddr: 0x36F8, symBinAddr: 0x28C0C, symSize: 0x120 }
  - { offset: 0x7349B, size: 0x8, addend: 0x0, symName: __RNvMs_NtCse1nGBsou5OW_5alloc3vecINtB4_3VecTNtNtCs6IAuOt8vWmF_3syn4data5FieldNtNtBJ_5token5CommaEE8as_sliceBJ_, symObjAddr: 0x3818, symBinAddr: 0x28D2C, symSize: 0x64 }
  - { offset: 0x73668, size: 0x8, addend: 0x0, symName: __RNvMs_NtCse1nGBsou5OW_5alloc3vecINtB4_3VecTNtNtCs6IAuOt8vWmF_3syn4data7VariantNtNtBJ_5token5CommaEE4pushBJ_, symObjAddr: 0x3894, symBinAddr: 0x28D90, symSize: 0x120 }
  - { offset: 0x738C3, size: 0x8, addend: 0x0, symName: __RNvMs_NtCse1nGBsou5OW_5alloc3vecINtB4_3VecTNtNtCs6IAuOt8vWmF_3syn4data7VariantNtNtBJ_5token5CommaEE8as_sliceBJ_, symObjAddr: 0x39B4, symBinAddr: 0x28EB0, symSize: 0x64 }
  - { offset: 0x73A90, size: 0x8, addend: 0x0, symName: __RNvMs_NtCse1nGBsou5OW_5alloc3vecINtB4_3VecTNtNtCs6IAuOt8vWmF_3syn4expr10FieldValueNtNtBJ_5token5CommaEE4pushBJ_, symObjAddr: 0x3A18, symBinAddr: 0x28F14, symSize: 0x120 }
  - { offset: 0x73CEB, size: 0x8, addend: 0x0, symName: __RNvMs_NtCse1nGBsou5OW_5alloc3vecINtB4_3VecTNtNtCs6IAuOt8vWmF_3syn4expr10FieldValueNtNtBJ_5token5CommaEE8as_sliceBJ_, symObjAddr: 0x3B38, symBinAddr: 0x29034, symSize: 0x64 }
  - { offset: 0x73DB2, size: 0x8, addend: 0x0, symName: __RNvMs_NtCse1nGBsou5OW_5alloc3vecINtB4_3VecTNtNtCs6IAuOt8vWmF_3syn4expr4ExprNtNtBJ_5token5CommaEE3lenBJ_, symObjAddr: 0x3B9C, symBinAddr: 0x29098, symSize: 0x18 }
  - { offset: 0x73EFA, size: 0x8, addend: 0x0, symName: __RNvMs_NtCse1nGBsou5OW_5alloc3vecINtB4_3VecTNtNtCs6IAuOt8vWmF_3syn4expr4ExprNtNtBJ_5token5CommaEE4pushBJ_, symObjAddr: 0x3BB4, symBinAddr: 0x290B0, symSize: 0x120 }
  - { offset: 0x74148, size: 0x8, addend: 0x0, symName: __RNvMs_NtCse1nGBsou5OW_5alloc3vecINtB4_3VecTNtNtCs6IAuOt8vWmF_3syn4expr4ExprNtNtBJ_5token5CommaEE8as_sliceBJ_, symObjAddr: 0x3CD4, symBinAddr: 0x291D0, symSize: 0x64 }
  - { offset: 0x7420F, size: 0x8, addend: 0x0, symName: __RNvMs_NtCse1nGBsou5OW_5alloc3vecINtB4_3VecTNtNtCs6IAuOt8vWmF_3syn4item5FnArgNtNtBJ_5token5CommaEE3lenBJ_, symObjAddr: 0x3D38, symBinAddr: 0x29234, symSize: 0x18 }
  - { offset: 0x74357, size: 0x8, addend: 0x0, symName: __RNvMs_NtCse1nGBsou5OW_5alloc3vecINtB4_3VecTNtNtCs6IAuOt8vWmF_3syn4item5FnArgNtNtBJ_5token5CommaEE4pushBJ_, symObjAddr: 0x3D50, symBinAddr: 0x2924C, symSize: 0x120 }
  - { offset: 0x745A5, size: 0x8, addend: 0x0, symName: __RNvMs_NtCse1nGBsou5OW_5alloc3vecINtB4_3VecTNtNtCs6IAuOt8vWmF_3syn4item5FnArgNtNtBJ_5token5CommaEE8as_sliceBJ_, symObjAddr: 0x3E70, symBinAddr: 0x2936C, symSize: 0x64 }
  - { offset: 0x74772, size: 0x8, addend: 0x0, symName: __RNvMs_NtCse1nGBsou5OW_5alloc3vecINtB4_3VecTNtNtCs6IAuOt8vWmF_3syn4item7UseTreeNtNtBJ_5token5CommaEE4pushBJ_, symObjAddr: 0x3ED4, symBinAddr: 0x293D0, symSize: 0x118 }
  - { offset: 0x749CB, size: 0x8, addend: 0x0, symName: __RNvMs_NtCse1nGBsou5OW_5alloc3vecINtB4_3VecTNtNtCs6IAuOt8vWmF_3syn4item7UseTreeNtNtBJ_5token5CommaEE8as_sliceBJ_, symObjAddr: 0x3FEC, symBinAddr: 0x294E8, symSize: 0x64 }
  - { offset: 0x74B60, size: 0x8, addend: 0x0, symName: __RNvMs_NtCse1nGBsou5OW_5alloc3vecINtB4_3VecTNtNtCs6IAuOt8vWmF_3syn4path11PathSegmentNtNtBJ_5token7PathSepEE12as_mut_sliceBJ_, symObjAddr: 0x4050, symBinAddr: 0x2954C, symSize: 0x64 }
  - { offset: 0x74C3C, size: 0x8, addend: 0x0, symName: __RNvMs_NtCse1nGBsou5OW_5alloc3vecINtB4_3VecTNtNtCs6IAuOt8vWmF_3syn4path11PathSegmentNtNtBJ_5token7PathSepEE3lenBJ_, symObjAddr: 0x40B4, symBinAddr: 0x295B0, symSize: 0x18 }
  - { offset: 0x74D8A, size: 0x8, addend: 0x0, symName: __RNvMs_NtCse1nGBsou5OW_5alloc3vecINtB4_3VecTNtNtCs6IAuOt8vWmF_3syn4path11PathSegmentNtNtBJ_5token7PathSepEE3popBJ_, symObjAddr: 0x40CC, symBinAddr: 0x295C8, symSize: 0x104 }
  - { offset: 0x74FFE, size: 0x8, addend: 0x0, symName: __RNvMs_NtCse1nGBsou5OW_5alloc3vecINtB4_3VecTNtNtCs6IAuOt8vWmF_3syn4path11PathSegmentNtNtBJ_5token7PathSepEE4pushBJ_, symObjAddr: 0x41D0, symBinAddr: 0x296CC, symSize: 0x120 }
  - { offset: 0x75243, size: 0x8, addend: 0x0, symName: __RNvMs_NtCse1nGBsou5OW_5alloc3vecINtB4_3VecTNtNtCs6IAuOt8vWmF_3syn4path11PathSegmentNtNtBJ_5token7PathSepEE8as_sliceBJ_, symObjAddr: 0x42F0, symBinAddr: 0x297EC, symSize: 0x64 }
  - { offset: 0x7530A, size: 0x8, addend: 0x0, symName: __RNvMs_NtCse1nGBsou5OW_5alloc3vecINtB4_3VecTNtNtCs6IAuOt8vWmF_3syn4path15GenericArgumentNtNtBJ_5token5CommaEE3lenBJ_, symObjAddr: 0x4354, symBinAddr: 0x29850, symSize: 0x18 }
  - { offset: 0x75452, size: 0x8, addend: 0x0, symName: __RNvMs_NtCse1nGBsou5OW_5alloc3vecINtB4_3VecTNtNtCs6IAuOt8vWmF_3syn4path15GenericArgumentNtNtBJ_5token5CommaEE4pushBJ_, symObjAddr: 0x436C, symBinAddr: 0x29868, symSize: 0x120 }
  - { offset: 0x756A0, size: 0x8, addend: 0x0, symName: __RNvMs_NtCse1nGBsou5OW_5alloc3vecINtB4_3VecTNtNtCs6IAuOt8vWmF_3syn4path15GenericArgumentNtNtBJ_5token5CommaEE8as_sliceBJ_, symObjAddr: 0x448C, symBinAddr: 0x29988, symSize: 0x64 }
  - { offset: 0x75835, size: 0x8, addend: 0x0, symName: __RNvMs_NtCse1nGBsou5OW_5alloc3vecINtB4_3VecTNtNtCs6IAuOt8vWmF_3syn8generics12GenericParamNtNtBJ_5token5CommaEE12as_mut_sliceBJ_, symObjAddr: 0x44F0, symBinAddr: 0x299EC, symSize: 0x64 }
  - { offset: 0x75911, size: 0x8, addend: 0x0, symName: __RNvMs_NtCse1nGBsou5OW_5alloc3vecINtB4_3VecTNtNtCs6IAuOt8vWmF_3syn8generics12GenericParamNtNtBJ_5token5CommaEE3lenBJ_, symObjAddr: 0x4554, symBinAddr: 0x29A50, symSize: 0x18 }
  - { offset: 0x75A25, size: 0x8, addend: 0x0, symName: __RNvMs_NtCse1nGBsou5OW_5alloc3vecINtB4_3VecTNtNtCs6IAuOt8vWmF_3syn8generics12GenericParamNtNtBJ_5token5CommaEE4pushBJ_, symObjAddr: 0x456C, symBinAddr: 0x29A68, symSize: 0x120 }
  - { offset: 0x75C6A, size: 0x8, addend: 0x0, symName: __RNvMs_NtCse1nGBsou5OW_5alloc3vecINtB4_3VecTNtNtCs6IAuOt8vWmF_3syn8generics12GenericParamNtNtBJ_5token5CommaEE8as_sliceBJ_, symObjAddr: 0x468C, symBinAddr: 0x29B88, symSize: 0x64 }
  - { offset: 0x75E37, size: 0x8, addend: 0x0, symName: __RNvMs_NtCse1nGBsou5OW_5alloc3vecINtB4_3VecTNtNtCs6IAuOt8vWmF_3syn8generics13CapturedParamNtNtBJ_5token5CommaEE4pushBJ_, symObjAddr: 0x46F0, symBinAddr: 0x29BEC, symSize: 0x118 }
  - { offset: 0x76090, size: 0x8, addend: 0x0, symName: __RNvMs_NtCse1nGBsou5OW_5alloc3vecINtB4_3VecTNtNtCs6IAuOt8vWmF_3syn8generics13CapturedParamNtNtBJ_5token5CommaEE8as_sliceBJ_, symObjAddr: 0x4808, symBinAddr: 0x29D04, symSize: 0x64 }
  - { offset: 0x76157, size: 0x8, addend: 0x0, symName: __RNvMs_NtCse1nGBsou5OW_5alloc3vecINtB4_3VecTNtNtCs6IAuOt8vWmF_3syn8generics14TypeParamBoundNtNtBJ_5token4PlusEE3lenBJ_, symObjAddr: 0x486C, symBinAddr: 0x29D68, symSize: 0x18 }
  - { offset: 0x76292, size: 0x8, addend: 0x0, symName: __RNvMs_NtCse1nGBsou5OW_5alloc3vecINtB4_3VecTNtNtCs6IAuOt8vWmF_3syn8generics14TypeParamBoundNtNtBJ_5token4PlusEE4pushBJ_, symObjAddr: 0x4884, symBinAddr: 0x29D80, symSize: 0x118 }
  - { offset: 0x764E0, size: 0x8, addend: 0x0, symName: __RNvMs_NtCse1nGBsou5OW_5alloc3vecINtB4_3VecTNtNtCs6IAuOt8vWmF_3syn8generics14TypeParamBoundNtNtBJ_5token4PlusEE8as_sliceBJ_, symObjAddr: 0x499C, symBinAddr: 0x29E98, symSize: 0x64 }
  - { offset: 0x765A7, size: 0x8, addend: 0x0, symName: __RNvMs_NtCse1nGBsou5OW_5alloc3vecINtB4_3VecTNtNtCs6IAuOt8vWmF_3syn8generics14WherePredicateNtNtBJ_5token5CommaEE3lenBJ_, symObjAddr: 0x4A00, symBinAddr: 0x29EFC, symSize: 0x18 }
  - { offset: 0x766EF, size: 0x8, addend: 0x0, symName: __RNvMs_NtCse1nGBsou5OW_5alloc3vecINtB4_3VecTNtNtCs6IAuOt8vWmF_3syn8generics14WherePredicateNtNtBJ_5token5CommaEE4pushBJ_, symObjAddr: 0x4A18, symBinAddr: 0x29F14, symSize: 0x120 }
  - { offset: 0x7693D, size: 0x8, addend: 0x0, symName: __RNvMs_NtCse1nGBsou5OW_5alloc3vecINtB4_3VecTNtNtCs6IAuOt8vWmF_3syn8generics14WherePredicateNtNtBJ_5token5CommaEE8as_sliceBJ_, symObjAddr: 0x4B38, symBinAddr: 0x2A034, symSize: 0x64 }
  - { offset: 0x76A04, size: 0x8, addend: 0x0, symName: __RNvMs_NtCse1nGBsou5OW_5alloc3vecINtB4_3VecTNtNtCs6IAuOt8vWmF_3syn8lifetime8LifetimeNtNtBJ_5token4PlusEE3lenBJ_, symObjAddr: 0x4B9C, symBinAddr: 0x2A098, symSize: 0x18 }
  - { offset: 0x76B4C, size: 0x8, addend: 0x0, symName: __RNvMs_NtCse1nGBsou5OW_5alloc3vecINtB4_3VecTNtNtCs6IAuOt8vWmF_3syn8lifetime8LifetimeNtNtBJ_5token4PlusEE4pushBJ_, symObjAddr: 0x4BB4, symBinAddr: 0x2A0B0, symSize: 0x118 }
  - { offset: 0x76D98, size: 0x8, addend: 0x0, symName: __RNvMs_NtCse1nGBsou5OW_5alloc3vecINtB4_3VecTNtNtCs6IAuOt8vWmF_3syn8lifetime8LifetimeNtNtBJ_5token4PlusEE8as_sliceBJ_, symObjAddr: 0x4CCC, symBinAddr: 0x2A1C8, symSize: 0x64 }
  - { offset: 0x76F58, size: 0x8, addend: 0x0, symName: __RNvMs_NtCse1nGBsou5OW_5alloc3vecINtB4_3VechE13shrink_to_fitCs6IAuOt8vWmF_3syn, symObjAddr: 0x4D30, symBinAddr: 0x2A22C, symSize: 0xE4 }
  - { offset: 0x77186, size: 0x8, addend: 0x0, symName: __RNvMs_NtCse1nGBsou5OW_5alloc3vecINtB4_3VechE16into_boxed_sliceCs6IAuOt8vWmF_3syn, symObjAddr: 0x4E14, symBinAddr: 0x2A310, symSize: 0x110 }
  - { offset: 0x7734F, size: 0x8, addend: 0x0, symName: __RNvMs_NtCse1nGBsou5OW_5alloc3vecINtB4_3VechE3lenCs6IAuOt8vWmF_3syn, symObjAddr: 0x4F24, symBinAddr: 0x2A420, symSize: 0x18 }
  - { offset: 0x773F4, size: 0x8, addend: 0x0, symName: __RNvMs_NtCse1nGBsou5OW_5alloc3vecINtB4_3VechE8as_sliceCs6IAuOt8vWmF_3syn, symObjAddr: 0x4F3C, symBinAddr: 0x2A438, symSize: 0x60 }
  - { offset: 0x77664, size: 0x8, addend: 0x0, symName: __RNvMs_NtCse1nGBsou5OW_5alloc3vecINtB4_3VechE9split_offCs6IAuOt8vWmF_3syn, symObjAddr: 0x4F9C, symBinAddr: 0x2A498, symSize: 0x140 }
  - { offset: 0x7B879, size: 0x8, addend: 0x0, symName: __RINvXNtNtCse1nGBsou5OW_5alloc5slice4hackNtNtCs6IAuOt8vWmF_3syn4expr3ArmNtB3_10ConvertVec6to_vecNtNtB7_5alloc6GlobalEBG_, symObjAddr: 0x0, symBinAddr: 0x2CDB8, symSize: 0x36C }
  - { offset: 0x7CB6A, size: 0x8, addend: 0x0, symName: __RINvXNtNtCse1nGBsou5OW_5alloc5slice4hackNtNtCs6IAuOt8vWmF_3syn4expr3ArmNtB3_10ConvertVec6to_vecNtNtB7_5alloc6GlobalEBG_, symObjAddr: 0x0, symBinAddr: 0x2CDB8, symSize: 0x36C }
  - { offset: 0x7D02D, size: 0x8, addend: 0x0, symName: __RINvXNtNtCse1nGBsou5OW_5alloc5slice4hackTNtNtCs6IAuOt8vWmF_3syn4expr10FieldValueNtNtBH_5token5CommaENtB3_10ConvertVec6to_vecNtNtB7_5alloc6GlobalEBH_, symObjAddr: 0x36C, symBinAddr: 0x2D124, symSize: 0x36C }
  - { offset: 0x7D4F0, size: 0x8, addend: 0x0, symName: __RINvXNtNtCse1nGBsou5OW_5alloc5slice4hackTNtNtCs6IAuOt8vWmF_3syn4expr4ExprNtNtBH_5token5CommaENtB3_10ConvertVec6to_vecNtNtB7_5alloc6GlobalEBH_, symObjAddr: 0x6D8, symBinAddr: 0x2D490, symSize: 0x36C }
  - { offset: 0x8052E, size: 0x8, addend: 0x0, symName: __RNvXs7_NtCs6IAuOt8vWmF_3syn4exprNtB5_5IndexINtNtCsfvfooZQ3Axs_4core7convert4FromjE4from, symObjAddr: 0x2A70, symBinAddr: 0x2E4E8, symSize: 0x84 }
  - { offset: 0x80567, size: 0x8, addend: 0x0, symName: __RNvXNtNtCs6IAuOt8vWmF_3syn4expr7parsingNtB4_4ExprNtNtB6_5parse5Parse5parse, symObjAddr: 0x2BA8, symBinAddr: 0x2E56C, symSize: 0x3C }
  - { offset: 0x8059B, size: 0x8, addend: 0x0, symName: __RNvXs4_NtNtCs6IAuOt8vWmF_3syn4expr7parsingNtB7_7ExprLitNtNtB9_5parse5Parse5parse, symObjAddr: 0x3648, symBinAddr: 0x2E5A8, symSize: 0x14C }
  - { offset: 0x805EE, size: 0x8, addend: 0x0, symName: __RNvXs7_NtNtCs6IAuOt8vWmF_3syn4expr7parsingNtB7_6ExprIfNtNtB9_5parse5Parse5parse, symObjAddr: 0x3A7C, symBinAddr: 0x2E6F4, symSize: 0x103C }
  - { offset: 0x80864, size: 0x8, addend: 0x0, symName: __RNvXs8_NtNtCs6IAuOt8vWmF_3syn4expr7parsingNtB7_9ExprInferNtNtB9_5parse5Parse5parse, symObjAddr: 0x4AB8, symBinAddr: 0x2F730, symSize: 0x1D0 }
  - { offset: 0x808F5, size: 0x8, addend: 0x0, symName: __RNvXs9_NtNtCs6IAuOt8vWmF_3syn4expr7parsingNtB7_11ExprForLoopNtNtB9_5parse5Parse5parse, symObjAddr: 0x4C88, symBinAddr: 0x2F900, symSize: 0x9A4 }
  - { offset: 0x80BC4, size: 0x8, addend: 0x0, symName: __RNvXsa_NtNtCs6IAuOt8vWmF_3syn4expr7parsingNtB7_8ExprLoopNtNtB9_5parse5Parse5parse, symObjAddr: 0x562C, symBinAddr: 0x302A4, symSize: 0x590 }
  - { offset: 0x80D77, size: 0x8, addend: 0x0, symName: __RNvXsb_NtNtCs6IAuOt8vWmF_3syn4expr7parsingNtB7_9ExprMatchNtNtB9_5parse5Parse5parse, symObjAddr: 0x5BBC, symBinAddr: 0x30834, symSize: 0x60C }
  - { offset: 0x80F60, size: 0x8, addend: 0x0, symName: __RNvXsh_NtNtCs6IAuOt8vWmF_3syn4expr7parsingNtB7_10ExprReturnNtNtB9_5parse5Parse5parse, symObjAddr: 0x6A04, symBinAddr: 0x30E40, symSize: 0x210 }
  - { offset: 0x80FC2, size: 0x8, addend: 0x0, symName: __RNvXsi_NtNtCs6IAuOt8vWmF_3syn4expr7parsingNtB7_12ExprTryBlockNtNtB9_5parse5Parse5parse, symObjAddr: 0x6C14, symBinAddr: 0x31050, symSize: 0x220 }
  - { offset: 0x81034, size: 0x8, addend: 0x0, symName: __RNvXsj_NtNtCs6IAuOt8vWmF_3syn4expr7parsingNtB7_9ExprYieldNtNtB9_5parse5Parse5parse, symObjAddr: 0x6E34, symBinAddr: 0x31270, symSize: 0x210 }
  - { offset: 0x81096, size: 0x8, addend: 0x0, symName: __RNvXsk_NtNtCs6IAuOt8vWmF_3syn4expr7parsingNtB7_9ExprAsyncNtNtB9_5parse5Parse5parse, symObjAddr: 0x7044, symBinAddr: 0x31480, symSize: 0x2E8 }
  - { offset: 0x81127, size: 0x8, addend: 0x0, symName: __RNvXsl_NtNtCs6IAuOt8vWmF_3syn4expr7parsingNtB7_9ExprWhileNtNtB9_5parse5Parse5parse, symObjAddr: 0x732C, symBinAddr: 0x31768, symSize: 0x760 }
  - { offset: 0x8135D, size: 0x8, addend: 0x0, symName: __RNvXsm_NtNtCs6IAuOt8vWmF_3syn4expr7parsingNtB7_9ExprConstNtNtB9_5parse5Parse5parse, symObjAddr: 0x7A8C, symBinAddr: 0x31EC8, symSize: 0x3BC }
  - { offset: 0x814B3, size: 0x8, addend: 0x0, symName: __RNvXsn_NtNtCs6IAuOt8vWmF_3syn4expr7parsingNtB7_5LabelNtNtB9_5parse5Parse5parse, symObjAddr: 0x7E48, symBinAddr: 0x32284, symSize: 0x1D4 }
  - { offset: 0x81544, size: 0x8, addend: 0x0, symName: __RNvXsp_NtNtCs6IAuOt8vWmF_3syn4expr7parsingNtB7_12ExprContinueNtNtB9_5parse5Parse5parse, symObjAddr: 0x801C, symBinAddr: 0x32458, symSize: 0x200 }
  - { offset: 0x815B6, size: 0x8, addend: 0x0, symName: __RNvXsq_NtNtCs6IAuOt8vWmF_3syn4expr7parsingNtB7_10FieldValueNtNtB9_5parse5Parse5parse, symObjAddr: 0x821C, symBinAddr: 0x32658, symSize: 0x560 }
  - { offset: 0x81755, size: 0x8, addend: 0x0, symName: __RNvXss_NtNtCs6IAuOt8vWmF_3syn4expr7parsingNtB7_10ExprUnsafeNtNtB9_5parse5Parse5parse, symObjAddr: 0x893C, symBinAddr: 0x32BB8, symSize: 0x3BC }
  - { offset: 0x818AB, size: 0x8, addend: 0x0, symName: __RNvXst_NtNtCs6IAuOt8vWmF_3syn4expr7parsingNtB7_9ExprBlockNtNtB9_5parse5Parse5parse, symObjAddr: 0x8CF8, symBinAddr: 0x32F74, symSize: 0x4FC }
  - { offset: 0x81A31, size: 0x8, addend: 0x0, symName: __RNvXsu_NtNtCs6IAuOt8vWmF_3syn4expr7parsingNtB7_11RangeLimitsNtNtB9_5parse5Parse5parse, symObjAddr: 0x91F4, symBinAddr: 0x33470, symSize: 0x234 }
  - { offset: 0x81ABF, size: 0x8, addend: 0x0, symName: __RNvXsw_NtNtCs6IAuOt8vWmF_3syn4expr7parsingNtB7_8ExprPathNtNtB9_5parse5Parse5parse, symObjAddr: 0x975C, symBinAddr: 0x339D8, symSize: 0x238 }
  - { offset: 0x81BAD, size: 0x8, addend: 0x0, symName: __RNvXsx_NtNtCs6IAuOt8vWmF_3syn4expr7parsingNtB7_6MemberNtNtB9_5parse5Parse5parse, symObjAddr: 0x9994, symBinAddr: 0x33C10, symSize: 0xFC }
  - { offset: 0x81BE1, size: 0x8, addend: 0x0, symName: __RNvXsz_NtNtCs6IAuOt8vWmF_3syn4expr7parsingNtB7_3ArmNtNtB9_5parse5Parse5parse, symObjAddr: 0x9C54, symBinAddr: 0x33ED0, symSize: 0x8EC }
  - { offset: 0x81E19, size: 0x8, addend: 0x0, symName: __RNvXsA_NtNtCs6IAuOt8vWmF_3syn4expr7parsingNtB7_5IndexNtNtB9_5parse5Parse5parse, symObjAddr: 0xA540, symBinAddr: 0x347BC, symSize: 0x28C }
  - { offset: 0x81EC7, size: 0x8, addend: 0x0, symName: __RNvXNtNtCs6IAuOt8vWmF_3syn4expr8printingNtB4_9ExprArrayNtNtCs2cqEZUIJimJ_5quote9to_tokens8ToTokens9to_tokens, symObjAddr: 0xAA84, symBinAddr: 0x34A48, symSize: 0x58 }
  - { offset: 0x81F06, size: 0x8, addend: 0x0, symName: __RNvXs_NtNtCs6IAuOt8vWmF_3syn4expr8printingNtB6_10ExprAssignNtNtCs2cqEZUIJimJ_5quote9to_tokens8ToTokens9to_tokens, symObjAddr: 0xAADC, symBinAddr: 0x34AA0, symSize: 0x58 }
  - { offset: 0x81F45, size: 0x8, addend: 0x0, symName: __RNvXs0_NtNtCs6IAuOt8vWmF_3syn4expr8printingNtB7_9ExprAsyncNtNtCs2cqEZUIJimJ_5quote9to_tokens8ToTokens9to_tokens, symObjAddr: 0xAB34, symBinAddr: 0x34AF8, symSize: 0x74 }
  - { offset: 0x81F84, size: 0x8, addend: 0x0, symName: __RNvXs1_NtNtCs6IAuOt8vWmF_3syn4expr8printingNtB7_9ExprAwaitNtNtCs2cqEZUIJimJ_5quote9to_tokens8ToTokens9to_tokens, symObjAddr: 0xABA8, symBinAddr: 0x34B6C, symSize: 0x58 }
  - { offset: 0x81FC3, size: 0x8, addend: 0x0, symName: __RNvXs2_NtNtCs6IAuOt8vWmF_3syn4expr8printingNtB7_10ExprBinaryNtNtCs2cqEZUIJimJ_5quote9to_tokens8ToTokens9to_tokens, symObjAddr: 0xAC00, symBinAddr: 0x34BC4, symSize: 0x58 }
  - { offset: 0x82002, size: 0x8, addend: 0x0, symName: __RNvXs3_NtNtCs6IAuOt8vWmF_3syn4expr8printingNtB7_9ExprBlockNtNtCs2cqEZUIJimJ_5quote9to_tokens8ToTokens9to_tokens, symObjAddr: 0xAC58, symBinAddr: 0x34C1C, symSize: 0x68 }
  - { offset: 0x82041, size: 0x8, addend: 0x0, symName: __RNvXs4_NtNtCs6IAuOt8vWmF_3syn4expr8printingNtB7_9ExprBreakNtNtCs2cqEZUIJimJ_5quote9to_tokens8ToTokens9to_tokens, symObjAddr: 0xACC0, symBinAddr: 0x34C84, symSize: 0x58 }
  - { offset: 0x82080, size: 0x8, addend: 0x0, symName: __RNvXs5_NtNtCs6IAuOt8vWmF_3syn4expr8printingNtB7_8ExprCallNtNtCs2cqEZUIJimJ_5quote9to_tokens8ToTokens9to_tokens, symObjAddr: 0xAD18, symBinAddr: 0x34CDC, symSize: 0x58 }
  - { offset: 0x820BF, size: 0x8, addend: 0x0, symName: __RNvXs6_NtNtCs6IAuOt8vWmF_3syn4expr8printingNtB7_8ExprCastNtNtCs2cqEZUIJimJ_5quote9to_tokens8ToTokens9to_tokens, symObjAddr: 0xAD70, symBinAddr: 0x34D34, symSize: 0x58 }
  - { offset: 0x820FE, size: 0x8, addend: 0x0, symName: __RNvXs7_NtNtCs6IAuOt8vWmF_3syn4expr8printingNtB7_11ExprClosureNtNtCs2cqEZUIJimJ_5quote9to_tokens8ToTokens9to_tokens, symObjAddr: 0xADC8, symBinAddr: 0x34D8C, symSize: 0x58 }
  - { offset: 0x8213D, size: 0x8, addend: 0x0, symName: __RNvXs8_NtNtCs6IAuOt8vWmF_3syn4expr8printingNtB7_9ExprConstNtNtCs2cqEZUIJimJ_5quote9to_tokens8ToTokens9to_tokens, symObjAddr: 0xAE20, symBinAddr: 0x34DE4, symSize: 0x68 }
  - { offset: 0x8217C, size: 0x8, addend: 0x0, symName: __RNvXs9_NtNtCs6IAuOt8vWmF_3syn4expr8printingNtB7_12ExprContinueNtNtCs2cqEZUIJimJ_5quote9to_tokens8ToTokens9to_tokens, symObjAddr: 0xAE88, symBinAddr: 0x34E4C, symSize: 0x64 }
  - { offset: 0x821BB, size: 0x8, addend: 0x0, symName: __RNvXsa_NtNtCs6IAuOt8vWmF_3syn4expr8printingNtB7_9ExprFieldNtNtCs2cqEZUIJimJ_5quote9to_tokens8ToTokens9to_tokens, symObjAddr: 0xAEEC, symBinAddr: 0x34EB0, symSize: 0x58 }
  - { offset: 0x821FA, size: 0x8, addend: 0x0, symName: __RNvXsb_NtNtCs6IAuOt8vWmF_3syn4expr8printingNtB7_11ExprForLoopNtNtCs2cqEZUIJimJ_5quote9to_tokens8ToTokens9to_tokens, symObjAddr: 0xAF44, symBinAddr: 0x34F08, symSize: 0xDC }
  - { offset: 0x82239, size: 0x8, addend: 0x0, symName: __RNvXsc_NtNtCs6IAuOt8vWmF_3syn4expr8printingNtB7_9ExprGroupNtNtCs2cqEZUIJimJ_5quote9to_tokens8ToTokens9to_tokens, symObjAddr: 0xB020, symBinAddr: 0x34FE4, symSize: 0x58 }
  - { offset: 0x82278, size: 0x8, addend: 0x0, symName: __RNvXsd_NtNtCs6IAuOt8vWmF_3syn4expr8printingNtB7_6ExprIfNtNtCs2cqEZUIJimJ_5quote9to_tokens8ToTokens9to_tokens, symObjAddr: 0xB078, symBinAddr: 0x3503C, symSize: 0x208 }
  - { offset: 0x8234E, size: 0x8, addend: 0x0, symName: __RNvXse_NtNtCs6IAuOt8vWmF_3syn4expr8printingNtB7_9ExprIndexNtNtCs2cqEZUIJimJ_5quote9to_tokens8ToTokens9to_tokens, symObjAddr: 0xB280, symBinAddr: 0x35244, symSize: 0x58 }
  - { offset: 0x8238D, size: 0x8, addend: 0x0, symName: __RNvXsf_NtNtCs6IAuOt8vWmF_3syn4expr8printingNtB7_9ExprInferNtNtCs2cqEZUIJimJ_5quote9to_tokens8ToTokens9to_tokens, symObjAddr: 0xB2D8, symBinAddr: 0x3529C, symSize: 0x54 }
  - { offset: 0x823CC, size: 0x8, addend: 0x0, symName: __RNvXsg_NtNtCs6IAuOt8vWmF_3syn4expr8printingNtB7_7ExprLetNtNtCs2cqEZUIJimJ_5quote9to_tokens8ToTokens9to_tokens, symObjAddr: 0xB32C, symBinAddr: 0x352F0, symSize: 0x58 }
  - { offset: 0x8240B, size: 0x8, addend: 0x0, symName: __RNvXsh_NtNtCs6IAuOt8vWmF_3syn4expr8printingNtB7_7ExprLitNtNtCs2cqEZUIJimJ_5quote9to_tokens8ToTokens9to_tokens, symObjAddr: 0xB384, symBinAddr: 0x35348, symSize: 0x54 }
  - { offset: 0x8244A, size: 0x8, addend: 0x0, symName: __RNvXsi_NtNtCs6IAuOt8vWmF_3syn4expr8printingNtB7_8ExprLoopNtNtCs2cqEZUIJimJ_5quote9to_tokens8ToTokens9to_tokens, symObjAddr: 0xB3D8, symBinAddr: 0x3539C, symSize: 0x78 }
  - { offset: 0x82489, size: 0x8, addend: 0x0, symName: __RNvXsj_NtNtCs6IAuOt8vWmF_3syn4expr8printingNtB7_9ExprMacroNtNtCs2cqEZUIJimJ_5quote9to_tokens8ToTokens9to_tokens, symObjAddr: 0xB450, symBinAddr: 0x35414, symSize: 0x54 }
  - { offset: 0x824C8, size: 0x8, addend: 0x0, symName: __RNvXsk_NtNtCs6IAuOt8vWmF_3syn4expr8printingNtB7_9ExprMatchNtNtCs2cqEZUIJimJ_5quote9to_tokens8ToTokens9to_tokens, symObjAddr: 0xB4A4, symBinAddr: 0x35468, symSize: 0xAC }
  - { offset: 0x82507, size: 0x8, addend: 0x0, symName: __RNvXsl_NtNtCs6IAuOt8vWmF_3syn4expr8printingNtB7_14ExprMethodCallNtNtCs2cqEZUIJimJ_5quote9to_tokens8ToTokens9to_tokens, symObjAddr: 0xB550, symBinAddr: 0x35514, symSize: 0x58 }
  - { offset: 0x82546, size: 0x8, addend: 0x0, symName: __RNvXsm_NtNtCs6IAuOt8vWmF_3syn4expr8printingNtB7_9ExprParenNtNtCs2cqEZUIJimJ_5quote9to_tokens8ToTokens9to_tokens, symObjAddr: 0xB5A8, symBinAddr: 0x3556C, symSize: 0x58 }
  - { offset: 0x82585, size: 0x8, addend: 0x0, symName: __RNvXsn_NtNtCs6IAuOt8vWmF_3syn4expr8printingNtB7_8ExprPathNtNtCs2cqEZUIJimJ_5quote9to_tokens8ToTokens9to_tokens, symObjAddr: 0xB600, symBinAddr: 0x355C4, symSize: 0x64 }
  - { offset: 0x825C4, size: 0x8, addend: 0x0, symName: __RNvXso_NtNtCs6IAuOt8vWmF_3syn4expr8printingNtB7_9ExprRangeNtNtCs2cqEZUIJimJ_5quote9to_tokens8ToTokens9to_tokens, symObjAddr: 0xB664, symBinAddr: 0x35628, symSize: 0x58 }
  - { offset: 0x82603, size: 0x8, addend: 0x0, symName: __RNvXsp_NtNtCs6IAuOt8vWmF_3syn4expr8printingNtB7_11ExprRawAddrNtNtCs2cqEZUIJimJ_5quote9to_tokens8ToTokens9to_tokens, symObjAddr: 0xB6BC, symBinAddr: 0x35680, symSize: 0x58 }
  - { offset: 0x82642, size: 0x8, addend: 0x0, symName: __RNvXsq_NtNtCs6IAuOt8vWmF_3syn4expr8printingNtB7_13ExprReferenceNtNtCs2cqEZUIJimJ_5quote9to_tokens8ToTokens9to_tokens, symObjAddr: 0xB714, symBinAddr: 0x356D8, symSize: 0x58 }
  - { offset: 0x82681, size: 0x8, addend: 0x0, symName: __RNvXsr_NtNtCs6IAuOt8vWmF_3syn4expr8printingNtB7_10ExprRepeatNtNtCs2cqEZUIJimJ_5quote9to_tokens8ToTokens9to_tokens, symObjAddr: 0xB76C, symBinAddr: 0x35730, symSize: 0x58 }
  - { offset: 0x826C0, size: 0x8, addend: 0x0, symName: __RNvXss_NtNtCs6IAuOt8vWmF_3syn4expr8printingNtB7_10ExprReturnNtNtCs2cqEZUIJimJ_5quote9to_tokens8ToTokens9to_tokens, symObjAddr: 0xB7C4, symBinAddr: 0x35788, symSize: 0x58 }
  - { offset: 0x826FF, size: 0x8, addend: 0x0, symName: __RNvXst_NtNtCs6IAuOt8vWmF_3syn4expr8printingNtB7_10ExprStructNtNtCs2cqEZUIJimJ_5quote9to_tokens8ToTokens9to_tokens, symObjAddr: 0xB81C, symBinAddr: 0x357E0, symSize: 0x78 }
  - { offset: 0x8273E, size: 0x8, addend: 0x0, symName: __RNvXsu_NtNtCs6IAuOt8vWmF_3syn4expr8printingNtB7_7ExprTryNtNtCs2cqEZUIJimJ_5quote9to_tokens8ToTokens9to_tokens, symObjAddr: 0xB894, symBinAddr: 0x35858, symSize: 0x58 }
  - { offset: 0x8277D, size: 0x8, addend: 0x0, symName: __RNvXsv_NtNtCs6IAuOt8vWmF_3syn4expr8printingNtB7_12ExprTryBlockNtNtCs2cqEZUIJimJ_5quote9to_tokens8ToTokens9to_tokens, symObjAddr: 0xB8EC, symBinAddr: 0x358B0, symSize: 0x64 }
  - { offset: 0x827BC, size: 0x8, addend: 0x0, symName: __RNvXsw_NtNtCs6IAuOt8vWmF_3syn4expr8printingNtB7_9ExprTupleNtNtCs2cqEZUIJimJ_5quote9to_tokens8ToTokens9to_tokens, symObjAddr: 0xB950, symBinAddr: 0x35914, symSize: 0x58 }
  - { offset: 0x827FB, size: 0x8, addend: 0x0, symName: __RNvXsx_NtNtCs6IAuOt8vWmF_3syn4expr8printingNtB7_9ExprUnaryNtNtCs2cqEZUIJimJ_5quote9to_tokens8ToTokens9to_tokens, symObjAddr: 0xB9A8, symBinAddr: 0x3596C, symSize: 0x58 }
  - { offset: 0x8283A, size: 0x8, addend: 0x0, symName: __RNvXsy_NtNtCs6IAuOt8vWmF_3syn4expr8printingNtB7_10ExprUnsafeNtNtCs2cqEZUIJimJ_5quote9to_tokens8ToTokens9to_tokens, symObjAddr: 0xBA00, symBinAddr: 0x359C4, symSize: 0x68 }
  - { offset: 0x82879, size: 0x8, addend: 0x0, symName: __RNvXsz_NtNtCs6IAuOt8vWmF_3syn4expr8printingNtB7_9ExprWhileNtNtCs2cqEZUIJimJ_5quote9to_tokens8ToTokens9to_tokens, symObjAddr: 0xBA68, symBinAddr: 0x35A2C, symSize: 0xBC }
  - { offset: 0x828B8, size: 0x8, addend: 0x0, symName: __RNvXsA_NtNtCs6IAuOt8vWmF_3syn4expr8printingNtB7_9ExprYieldNtNtCs2cqEZUIJimJ_5quote9to_tokens8ToTokens9to_tokens, symObjAddr: 0xBB24, symBinAddr: 0x35AE8, symSize: 0x58 }
  - { offset: 0x828F7, size: 0x8, addend: 0x0, symName: __RNvXsB_NtNtCs6IAuOt8vWmF_3syn4expr8printingNtB7_3ArmNtNtCs2cqEZUIJimJ_5quote9to_tokens8ToTokens9to_tokens, symObjAddr: 0xBB7C, symBinAddr: 0x35B40, symSize: 0x128 }
  - { offset: 0x82964, size: 0x8, addend: 0x0, symName: __RNvXsC_NtNtCs6IAuOt8vWmF_3syn4expr8printingNtB7_10FieldValueNtNtCs2cqEZUIJimJ_5quote9to_tokens8ToTokens9to_tokens, symObjAddr: 0xBCA4, symBinAddr: 0x35C68, symSize: 0xB0 }
  - { offset: 0x829C1, size: 0x8, addend: 0x0, symName: __RNvXsD_NtNtCs6IAuOt8vWmF_3syn4expr8printingNtB7_5IndexNtNtCs2cqEZUIJimJ_5quote9to_tokens8ToTokens9to_tokens, symObjAddr: 0xBD54, symBinAddr: 0x35D18, symSize: 0xD4 }
  - { offset: 0x82A16, size: 0x8, addend: 0x0, symName: __RNvXsE_NtNtCs6IAuOt8vWmF_3syn4expr8printingNtB7_5LabelNtNtCs2cqEZUIJimJ_5quote9to_tokens8ToTokens9to_tokens, symObjAddr: 0xBE28, symBinAddr: 0x35DEC, symSize: 0x50 }
  - { offset: 0x82A55, size: 0x8, addend: 0x0, symName: __RNvXsF_NtNtCs6IAuOt8vWmF_3syn4expr8printingNtB7_6MemberNtNtCs2cqEZUIJimJ_5quote9to_tokens8ToTokens9to_tokens, symObjAddr: 0xBE78, symBinAddr: 0x35E3C, symSize: 0x98 }
  - { offset: 0x82AC8, size: 0x8, addend: 0x0, symName: __RNvXsG_NtNtCs6IAuOt8vWmF_3syn4expr8printingNtB7_11RangeLimitsNtNtCs2cqEZUIJimJ_5quote9to_tokens8ToTokens9to_tokens, symObjAddr: 0xBF10, symBinAddr: 0x35ED4, symSize: 0x94 }
  - { offset: 0x82B3B, size: 0x8, addend: 0x0, symName: __RNvXsH_NtNtCs6IAuOt8vWmF_3syn4expr8printingNtB7_17PointerMutabilityNtNtCs2cqEZUIJimJ_5quote9to_tokens8ToTokens9to_tokens, symObjAddr: 0xBFA4, symBinAddr: 0x35F68, symSize: 0x94 }
  - { offset: 0x82BB4, size: 0x8, addend: 0x0, symName: __RNcNtNtNtCs6IAuOt8vWmF_3syn4expr4Expr5Async0B7_, symObjAddr: 0xC038, symBinAddr: 0x35FFC, symSize: 0x3C }
  - { offset: 0x82BE3, size: 0x8, addend: 0x0, symName: __RNcNtNtNtCs6IAuOt8vWmF_3syn4expr4Expr5Block0B7_, symObjAddr: 0xC074, symBinAddr: 0x36038, symSize: 0x3C }
  - { offset: 0x82C12, size: 0x8, addend: 0x0, symName: __RNcNtNtNtCs6IAuOt8vWmF_3syn4expr4Expr5Break0B7_, symObjAddr: 0xC0B0, symBinAddr: 0x36074, symSize: 0x3C }
  - { offset: 0x82C41, size: 0x8, addend: 0x0, symName: __RNcNtNtNtCs6IAuOt8vWmF_3syn4expr4Expr7Closure0B7_, symObjAddr: 0xC0EC, symBinAddr: 0x360B0, symSize: 0x3C }
  - { offset: 0x82C70, size: 0x8, addend: 0x0, symName: __RNcNtNtNtCs6IAuOt8vWmF_3syn4expr4Expr5Const0B7_, symObjAddr: 0xC128, symBinAddr: 0x360EC, symSize: 0x3C }
  - { offset: 0x82C9F, size: 0x8, addend: 0x0, symName: __RNcNtNtNtCs6IAuOt8vWmF_3syn4expr4Expr8Continue0B7_, symObjAddr: 0xC164, symBinAddr: 0x36128, symSize: 0x3C }
  - { offset: 0x82CCE, size: 0x8, addend: 0x0, symName: __RNcNtNtNtCs6IAuOt8vWmF_3syn4expr4Expr7ForLoop0B7_, symObjAddr: 0xC1A0, symBinAddr: 0x36164, symSize: 0x3C }
  - { offset: 0x82CFD, size: 0x8, addend: 0x0, symName: __RNcNtNtNtCs6IAuOt8vWmF_3syn4expr4Expr2If0B7_, symObjAddr: 0xC1DC, symBinAddr: 0x361A0, symSize: 0x3C }
  - { offset: 0x82D2C, size: 0x8, addend: 0x0, symName: __RNcNtNtNtCs6IAuOt8vWmF_3syn4expr4Expr5Infer0B7_, symObjAddr: 0xC218, symBinAddr: 0x361DC, symSize: 0x20 }
  - { offset: 0x82D5A, size: 0x8, addend: 0x0, symName: __RNcNtNtNtCs6IAuOt8vWmF_3syn4expr4Expr3Let0B7_, symObjAddr: 0xC238, symBinAddr: 0x361FC, symSize: 0x3C }
  - { offset: 0x82D89, size: 0x8, addend: 0x0, symName: __RNcNtNtNtCs6IAuOt8vWmF_3syn4expr4Expr3Lit0B7_, symObjAddr: 0xC274, symBinAddr: 0x36238, symSize: 0x3C }
  - { offset: 0x82DB8, size: 0x8, addend: 0x0, symName: __RNcNtNtNtCs6IAuOt8vWmF_3syn4expr4Expr4Loop0B7_, symObjAddr: 0xC2B0, symBinAddr: 0x36274, symSize: 0x3C }
  - { offset: 0x82DE7, size: 0x8, addend: 0x0, symName: __RNcNtNtNtCs6IAuOt8vWmF_3syn4expr4Expr5Match0B7_, symObjAddr: 0xC2EC, symBinAddr: 0x362B0, symSize: 0x3C }
  - { offset: 0x82E16, size: 0x8, addend: 0x0, symName: __RNcNtNtNtCs6IAuOt8vWmF_3syn4expr4Expr5Range0B7_, symObjAddr: 0xC328, symBinAddr: 0x362EC, symSize: 0x3C }
  - { offset: 0x82E45, size: 0x8, addend: 0x0, symName: __RNcNtNtNtCs6IAuOt8vWmF_3syn4expr4Expr6Return0B7_, symObjAddr: 0xC364, symBinAddr: 0x36328, symSize: 0x3C }
  - { offset: 0x82E74, size: 0x8, addend: 0x0, symName: __RNcNtNtNtCs6IAuOt8vWmF_3syn4expr4Expr6Struct0B7_, symObjAddr: 0xC3A0, symBinAddr: 0x36364, symSize: 0x3C }
  - { offset: 0x82EA3, size: 0x8, addend: 0x0, symName: __RNcNtNtNtCs6IAuOt8vWmF_3syn4expr4Expr8TryBlock0B7_, symObjAddr: 0xC3DC, symBinAddr: 0x363A0, symSize: 0x3C }
  - { offset: 0x82ED2, size: 0x8, addend: 0x0, symName: __RNcNtNtNtCs6IAuOt8vWmF_3syn4expr4Expr5Unary0B7_, symObjAddr: 0xC418, symBinAddr: 0x363DC, symSize: 0x3C }
  - { offset: 0x82F01, size: 0x8, addend: 0x0, symName: __RNcNtNtNtCs6IAuOt8vWmF_3syn4expr4Expr6Unsafe0B7_, symObjAddr: 0xC454, symBinAddr: 0x36418, symSize: 0x3C }
  - { offset: 0x82F30, size: 0x8, addend: 0x0, symName: __RNcNtNtNtCs6IAuOt8vWmF_3syn4expr4Expr5While0B7_, symObjAddr: 0xC490, symBinAddr: 0x36454, symSize: 0x3C }
  - { offset: 0x82F5F, size: 0x8, addend: 0x0, symName: __RNcNtNtNtCs6IAuOt8vWmF_3syn4expr4Expr5Yield0B7_, symObjAddr: 0xC4CC, symBinAddr: 0x36490, symSize: 0x3C }
  - { offset: 0x82F8F, size: 0x8, addend: 0x0, symName: __RNvXsP_NtCs6IAuOt8vWmF_3syn4exprNtB5_4ExprNtNtCs2cqEZUIJimJ_5quote9to_tokens8ToTokens9to_tokens, symObjAddr: 0xD080, symBinAddr: 0x364CC, symSize: 0x4CC }
  - { offset: 0x83478, size: 0x8, addend: 0x0, symName: __RNcNtNtNtCs6IAuOt8vWmF_3syn4expr6Member5Named0B7_, symObjAddr: 0xD54C, symBinAddr: 0x36998, symSize: 0x18 }
  - { offset: 0x834A8, size: 0x8, addend: 0x0, symName: __RNcNtNtNtCs6IAuOt8vWmF_3syn4expr6Member7Unnamed0B7_, symObjAddr: 0xD564, symBinAddr: 0x369B0, symSize: 0x28 }
  - { offset: 0x834DE, size: 0x8, addend: 0x0, symName: __RNcNtNtNtCs6IAuOt8vWmF_3syn4expr11RangeLimits8HalfOpen0B7_, symObjAddr: 0xD58C, symBinAddr: 0x369D8, symSize: 0x24 }
  - { offset: 0x8350E, size: 0x8, addend: 0x0, symName: __RNcNtNtNtCs6IAuOt8vWmF_3syn4expr11RangeLimits6Closed0B7_, symObjAddr: 0xD5B0, symBinAddr: 0x369FC, symSize: 0x20 }
  - { offset: 0x85EC6, size: 0x8, addend: 0x0, symName: __RNvXs0_NtNtCs6IAuOt8vWmF_3syn3gen5cloneNtNtB9_4expr3ArmNtNtCsfvfooZQ3Axs_4core5clone5Clone5clone, symObjAddr: 0x105A0, symBinAddr: 0x36A1C, symSize: 0x1BC }
  - { offset: 0x85EF8, size: 0x8, addend: 0x0, symName: __RNvXsk_NtNtCs6IAuOt8vWmF_3syn3gen5cloneNtNtB9_4expr4ExprNtNtCsfvfooZQ3Axs_4core5clone5Clone5clone, symObjAddr: 0x1075C, symBinAddr: 0x36BD8, symSize: 0xE1C }
  - { offset: 0x863ED, size: 0x8, addend: 0x0, symName: __RNvXsl_NtNtCs6IAuOt8vWmF_3syn3gen5cloneNtNtB9_4expr9ExprArrayNtNtCsfvfooZQ3Axs_4core5clone5Clone5clone, symObjAddr: 0x11578, symBinAddr: 0x379F4, symSize: 0xC8 }
  - { offset: 0x86421, size: 0x8, addend: 0x0, symName: __RNvXsm_NtNtCs6IAuOt8vWmF_3syn3gen5cloneNtNtB9_4expr10ExprAssignNtNtCsfvfooZQ3Axs_4core5clone5Clone5clone, symObjAddr: 0x11640, symBinAddr: 0x37ABC, symSize: 0x108 }
  - { offset: 0x86455, size: 0x8, addend: 0x0, symName: __RNvXsn_NtNtCs6IAuOt8vWmF_3syn3gen5cloneNtNtB9_4expr9ExprAsyncNtNtCsfvfooZQ3Axs_4core5clone5Clone5clone, symObjAddr: 0x11748, symBinAddr: 0x37BC4, symSize: 0xEC }
  - { offset: 0x86489, size: 0x8, addend: 0x0, symName: __RNvXso_NtNtCs6IAuOt8vWmF_3syn3gen5cloneNtNtB9_4expr9ExprAwaitNtNtCsfvfooZQ3Axs_4core5clone5Clone5clone, symObjAddr: 0x11834, symBinAddr: 0x37CB0, symSize: 0x108 }
  - { offset: 0x864BD, size: 0x8, addend: 0x0, symName: __RNvXsp_NtNtCs6IAuOt8vWmF_3syn3gen5cloneNtNtB9_4expr10ExprBinaryNtNtCsfvfooZQ3Axs_4core5clone5Clone5clone, symObjAddr: 0x1193C, symBinAddr: 0x37DB8, symSize: 0xF8 }
  - { offset: 0x864F1, size: 0x8, addend: 0x0, symName: __RNvXsq_NtNtCs6IAuOt8vWmF_3syn3gen5cloneNtNtB9_4expr9ExprBlockNtNtCsfvfooZQ3Axs_4core5clone5Clone5clone, symObjAddr: 0x11A34, symBinAddr: 0x37EB0, symSize: 0xF0 }
  - { offset: 0x86525, size: 0x8, addend: 0x0, symName: __RNvXsr_NtNtCs6IAuOt8vWmF_3syn3gen5cloneNtNtB9_4expr9ExprBreakNtNtCsfvfooZQ3Axs_4core5clone5Clone5clone, symObjAddr: 0x11B24, symBinAddr: 0x37FA0, symSize: 0xF8 }
  - { offset: 0x86559, size: 0x8, addend: 0x0, symName: __RNvXss_NtNtCs6IAuOt8vWmF_3syn3gen5cloneNtNtB9_4expr8ExprCallNtNtCsfvfooZQ3Axs_4core5clone5Clone5clone, symObjAddr: 0x11C1C, symBinAddr: 0x38098, symSize: 0x108 }
  - { offset: 0x8658D, size: 0x8, addend: 0x0, symName: __RNvXst_NtNtCs6IAuOt8vWmF_3syn3gen5cloneNtNtB9_4expr8ExprCastNtNtCsfvfooZQ3Axs_4core5clone5Clone5clone, symObjAddr: 0x11D24, symBinAddr: 0x381A0, symSize: 0xF8 }
  - { offset: 0x865C1, size: 0x8, addend: 0x0, symName: __RNvXsu_NtNtCs6IAuOt8vWmF_3syn3gen5cloneNtNtB9_4expr11ExprClosureNtNtCsfvfooZQ3Axs_4core5clone5Clone5clone, symObjAddr: 0x11E1C, symBinAddr: 0x38298, symSize: 0x25C }
  - { offset: 0x865F5, size: 0x8, addend: 0x0, symName: __RNvXsv_NtNtCs6IAuOt8vWmF_3syn3gen5cloneNtNtB9_4expr9ExprConstNtNtCsfvfooZQ3Axs_4core5clone5Clone5clone, symObjAddr: 0x12078, symBinAddr: 0x384F4, symSize: 0xC4 }
  - { offset: 0x86629, size: 0x8, addend: 0x0, symName: __RNvXsw_NtNtCs6IAuOt8vWmF_3syn3gen5cloneNtNtB9_4expr12ExprContinueNtNtCsfvfooZQ3Axs_4core5clone5Clone5clone, symObjAddr: 0x1213C, symBinAddr: 0x385B8, symSize: 0xC0 }
  - { offset: 0x8665D, size: 0x8, addend: 0x0, symName: __RNvXsx_NtNtCs6IAuOt8vWmF_3syn3gen5cloneNtNtB9_4expr9ExprFieldNtNtCsfvfooZQ3Axs_4core5clone5Clone5clone, symObjAddr: 0x121FC, symBinAddr: 0x38678, symSize: 0x110 }
  - { offset: 0x86691, size: 0x8, addend: 0x0, symName: __RNvXsy_NtNtCs6IAuOt8vWmF_3syn3gen5cloneNtNtB9_4expr11ExprForLoopNtNtCsfvfooZQ3Axs_4core5clone5Clone5clone, symObjAddr: 0x1230C, symBinAddr: 0x38788, symSize: 0x1A8 }
  - { offset: 0x866C5, size: 0x8, addend: 0x0, symName: __RNvXsz_NtNtCs6IAuOt8vWmF_3syn3gen5cloneNtNtB9_4expr9ExprGroupNtNtCsfvfooZQ3Axs_4core5clone5Clone5clone, symObjAddr: 0x124B4, symBinAddr: 0x38930, symSize: 0xB8 }
  - { offset: 0x866F9, size: 0x8, addend: 0x0, symName: __RNvXsA_NtNtCs6IAuOt8vWmF_3syn3gen5cloneNtNtB9_4expr6ExprIfNtNtCsfvfooZQ3Axs_4core5clone5Clone5clone, symObjAddr: 0x1256C, symBinAddr: 0x389E8, symSize: 0x14C }
  - { offset: 0x8672D, size: 0x8, addend: 0x0, symName: __RNvXsB_NtNtCs6IAuOt8vWmF_3syn3gen5cloneNtNtB9_4expr9ExprIndexNtNtCsfvfooZQ3Axs_4core5clone5Clone5clone, symObjAddr: 0x126B8, symBinAddr: 0x38B34, symSize: 0x100 }
  - { offset: 0x86761, size: 0x8, addend: 0x0, symName: __RNvXsC_NtNtCs6IAuOt8vWmF_3syn3gen5cloneNtNtB9_4expr9ExprInferNtNtCsfvfooZQ3Axs_4core5clone5Clone5clone, symObjAddr: 0x127B8, symBinAddr: 0x38C34, symSize: 0xAC }
  - { offset: 0x86795, size: 0x8, addend: 0x0, symName: __RNvXsD_NtNtCs6IAuOt8vWmF_3syn3gen5cloneNtNtB9_4expr7ExprLetNtNtCsfvfooZQ3Axs_4core5clone5Clone5clone, symObjAddr: 0x12864, symBinAddr: 0x38CE0, symSize: 0x124 }
  - { offset: 0x867C9, size: 0x8, addend: 0x0, symName: __RNvXsE_NtNtCs6IAuOt8vWmF_3syn3gen5cloneNtNtB9_4expr7ExprLitNtNtCsfvfooZQ3Axs_4core5clone5Clone5clone, symObjAddr: 0x12988, symBinAddr: 0x38E04, symSize: 0xA4 }
  - { offset: 0x867FD, size: 0x8, addend: 0x0, symName: __RNvXsF_NtNtCs6IAuOt8vWmF_3syn3gen5cloneNtNtB9_4expr8ExprLoopNtNtCsfvfooZQ3Axs_4core5clone5Clone5clone, symObjAddr: 0x12A2C, symBinAddr: 0x38EA8, symSize: 0x10C }
  - { offset: 0x86831, size: 0x8, addend: 0x0, symName: __RNvXsG_NtNtCs6IAuOt8vWmF_3syn3gen5cloneNtNtB9_4expr9ExprMacroNtNtCsfvfooZQ3Axs_4core5clone5Clone5clone, symObjAddr: 0x12B38, symBinAddr: 0x38FB4, symSize: 0xA8 }
  - { offset: 0x86865, size: 0x8, addend: 0x0, symName: __RNvXsH_NtNtCs6IAuOt8vWmF_3syn3gen5cloneNtNtB9_4expr9ExprMatchNtNtCsfvfooZQ3Axs_4core5clone5Clone5clone, symObjAddr: 0x12BE0, symBinAddr: 0x3905C, symSize: 0x12C }
  - { offset: 0x86899, size: 0x8, addend: 0x0, symName: __RNvXsI_NtNtCs6IAuOt8vWmF_3syn3gen5cloneNtNtB9_4expr14ExprMethodCallNtNtCsfvfooZQ3Axs_4core5clone5Clone5clone, symObjAddr: 0x12D0C, symBinAddr: 0x39188, symSize: 0x1D0 }
  - { offset: 0x868CD, size: 0x8, addend: 0x0, symName: __RNvXsJ_NtNtCs6IAuOt8vWmF_3syn3gen5cloneNtNtB9_4expr9ExprParenNtNtCsfvfooZQ3Axs_4core5clone5Clone5clone, symObjAddr: 0x12EDC, symBinAddr: 0x39358, symSize: 0xC0 }
  - { offset: 0x86901, size: 0x8, addend: 0x0, symName: __RNvXsK_NtNtCs6IAuOt8vWmF_3syn3gen5cloneNtNtB9_4expr8ExprPathNtNtCsfvfooZQ3Axs_4core5clone5Clone5clone, symObjAddr: 0x12F9C, symBinAddr: 0x39418, symSize: 0xE8 }
  - { offset: 0x86935, size: 0x8, addend: 0x0, symName: __RNvXsL_NtNtCs6IAuOt8vWmF_3syn3gen5cloneNtNtB9_4expr9ExprRangeNtNtCsfvfooZQ3Axs_4core5clone5Clone5clone, symObjAddr: 0x13084, symBinAddr: 0x39500, symSize: 0xF8 }
  - { offset: 0x86969, size: 0x8, addend: 0x0, symName: __RNvXsM_NtNtCs6IAuOt8vWmF_3syn3gen5cloneNtNtB9_4expr11ExprRawAddrNtNtCsfvfooZQ3Axs_4core5clone5Clone5clone, symObjAddr: 0x1317C, symBinAddr: 0x395F8, symSize: 0x10C }
  - { offset: 0x8699D, size: 0x8, addend: 0x0, symName: __RNvXsN_NtNtCs6IAuOt8vWmF_3syn3gen5cloneNtNtB9_4expr13ExprReferenceNtNtCsfvfooZQ3Axs_4core5clone5Clone5clone, symObjAddr: 0x13288, symBinAddr: 0x39704, symSize: 0xF0 }
  - { offset: 0x869D1, size: 0x8, addend: 0x0, symName: __RNvXsO_NtNtCs6IAuOt8vWmF_3syn3gen5cloneNtNtB9_4expr10ExprRepeatNtNtCsfvfooZQ3Axs_4core5clone5Clone5clone, symObjAddr: 0x13378, symBinAddr: 0x397F4, symSize: 0x12C }
  - { offset: 0x86A05, size: 0x8, addend: 0x0, symName: __RNvXsP_NtNtCs6IAuOt8vWmF_3syn3gen5cloneNtNtB9_4expr10ExprReturnNtNtCsfvfooZQ3Axs_4core5clone5Clone5clone, symObjAddr: 0x134A4, symBinAddr: 0x39920, symSize: 0xB8 }
  - { offset: 0x86A39, size: 0x8, addend: 0x0, symName: __RNvXsQ_NtNtCs6IAuOt8vWmF_3syn3gen5cloneNtNtB9_4expr10ExprStructNtNtCsfvfooZQ3Axs_4core5clone5Clone5clone, symObjAddr: 0x1355C, symBinAddr: 0x399D8, symSize: 0x1B8 }
  - { offset: 0x86A6D, size: 0x8, addend: 0x0, symName: __RNvXsR_NtNtCs6IAuOt8vWmF_3syn3gen5cloneNtNtB9_4expr7ExprTryNtNtCsfvfooZQ3Axs_4core5clone5Clone5clone, symObjAddr: 0x13714, symBinAddr: 0x39B90, symSize: 0xEC }
  - { offset: 0x86AA1, size: 0x8, addend: 0x0, symName: __RNvXsS_NtNtCs6IAuOt8vWmF_3syn3gen5cloneNtNtB9_4expr12ExprTryBlockNtNtCsfvfooZQ3Axs_4core5clone5Clone5clone, symObjAddr: 0x13800, symBinAddr: 0x39C7C, symSize: 0xC4 }
  - { offset: 0x86AD5, size: 0x8, addend: 0x0, symName: __RNvXsT_NtNtCs6IAuOt8vWmF_3syn3gen5cloneNtNtB9_4expr9ExprTupleNtNtCsfvfooZQ3Axs_4core5clone5Clone5clone, symObjAddr: 0x138C4, symBinAddr: 0x39D40, symSize: 0xC8 }
  - { offset: 0x86B09, size: 0x8, addend: 0x0, symName: __RNvXsU_NtNtCs6IAuOt8vWmF_3syn3gen5cloneNtNtB9_4expr9ExprUnaryNtNtCsfvfooZQ3Axs_4core5clone5Clone5clone, symObjAddr: 0x1398C, symBinAddr: 0x39E08, symSize: 0xC8 }
  - { offset: 0x86B3D, size: 0x8, addend: 0x0, symName: __RNvXsV_NtNtCs6IAuOt8vWmF_3syn3gen5cloneNtNtB9_4expr10ExprUnsafeNtNtCsfvfooZQ3Axs_4core5clone5Clone5clone, symObjAddr: 0x13A54, symBinAddr: 0x39ED0, symSize: 0xC4 }
  - { offset: 0x86B71, size: 0x8, addend: 0x0, symName: __RNvXsW_NtNtCs6IAuOt8vWmF_3syn3gen5cloneNtNtB9_4expr9ExprWhileNtNtCsfvfooZQ3Axs_4core5clone5Clone5clone, symObjAddr: 0x13B18, symBinAddr: 0x39F94, symSize: 0x14C }
  - { offset: 0x86BA5, size: 0x8, addend: 0x0, symName: __RNvXsX_NtNtCs6IAuOt8vWmF_3syn3gen5cloneNtNtB9_4expr9ExprYieldNtNtCsfvfooZQ3Axs_4core5clone5Clone5clone, symObjAddr: 0x13C64, symBinAddr: 0x3A0E0, symSize: 0xB8 }
  - { offset: 0x86BD9, size: 0x8, addend: 0x0, symName: __RNvXs11_NtNtCs6IAuOt8vWmF_3syn3gen5cloneNtNtBa_4expr10FieldValueNtNtCsfvfooZQ3Axs_4core5clone5Clone5clone, symObjAddr: 0x13D1C, symBinAddr: 0x3A198, symSize: 0x118 }
  - { offset: 0x86C0D, size: 0x8, addend: 0x0, symName: __RNvXs1l_NtNtCs6IAuOt8vWmF_3syn3gen5cloneNtNtBa_4expr5IndexNtNtCsfvfooZQ3Axs_4core5clone5Clone5clone, symObjAddr: 0x13E34, symBinAddr: 0x3A2B0, symSize: 0x48 }
  - { offset: 0x86C41, size: 0x8, addend: 0x0, symName: __RNvXs1C_NtNtCs6IAuOt8vWmF_3syn3gen5cloneNtNtBa_4expr5LabelNtNtCsfvfooZQ3Axs_4core5clone5Clone5clone, symObjAddr: 0x13E7C, symBinAddr: 0x3A2F8, symSize: 0xA4 }
  - { offset: 0x86C75, size: 0x8, addend: 0x0, symName: __RNvXs1K_NtNtCs6IAuOt8vWmF_3syn3gen5cloneNtNtBa_4expr6MemberNtNtCsfvfooZQ3Axs_4core5clone5Clone5clone, symObjAddr: 0x13F20, symBinAddr: 0x3A39C, symSize: 0xB8 }
  - { offset: 0x86CDD, size: 0x8, addend: 0x0, symName: __RNvXs24_NtNtCs6IAuOt8vWmF_3syn3gen5cloneNtNtBa_4expr17PointerMutabilityNtNtCsfvfooZQ3Axs_4core5clone5Clone5clone, symObjAddr: 0x13FD8, symBinAddr: 0x3A454, symSize: 0xA0 }
  - { offset: 0x86D45, size: 0x8, addend: 0x0, symName: __RNvXs2a_NtNtCs6IAuOt8vWmF_3syn3gen5cloneNtNtBa_4expr11RangeLimitsNtNtCsfvfooZQ3Axs_4core5clone5Clone5clone, symObjAddr: 0x14078, symBinAddr: 0x3A4F4, symSize: 0x2C }
  - { offset: 0x8A41C, size: 0x8, addend: 0x0, symName: __RNvMNtCsfvfooZQ3Axs_4core5sliceSNtNtCs6IAuOt8vWmF_3syn4expr3Arm4iterBy_, symObjAddr: 0xA44, symBinAddr: 0x2D7FC, symSize: 0x28 }
  - { offset: 0x8A453, size: 0x8, addend: 0x0, symName: __RNvMNtCsfvfooZQ3Axs_4core5sliceSTNtNtCs6IAuOt8vWmF_3syn4expr10FieldValueNtNtBz_5token5CommaE4iterBz_, symObjAddr: 0xA6C, symBinAddr: 0x2D824, symSize: 0x28 }
  - { offset: 0x8A48A, size: 0x8, addend: 0x0, symName: __RNvMNtCsfvfooZQ3Axs_4core5sliceSTNtNtCs6IAuOt8vWmF_3syn4expr4ExprNtNtBz_5token5CommaE4iterBz_, symObjAddr: 0xA94, symBinAddr: 0x2D84C, symSize: 0x28 }
  - { offset: 0x8A83E, size: 0x8, addend: 0x0, symName: __RNvXNtNtCsfvfooZQ3Axs_4core5clone6uninitNtNtCs6IAuOt8vWmF_3syn4expr10FieldValueNtB2_8CopySpec9clone_oneBG_, symObjAddr: 0xB3C, symBinAddr: 0x2D8F4, symSize: 0x50 }
  - { offset: 0x8A8A2, size: 0x8, addend: 0x0, symName: __RNvXNtNtCsfvfooZQ3Axs_4core5clone6uninitNtNtCs6IAuOt8vWmF_3syn4expr4ExprNtB2_8CopySpec9clone_oneBG_, symObjAddr: 0xB8C, symBinAddr: 0x2D944, symSize: 0x48 }
  - { offset: 0x8C725, size: 0x8, addend: 0x0, symName: __RNvXNtCs2cqEZUIJimJ_5quote9to_tokensRNtNtCs6IAuOt8vWmF_3syn4expr10FieldValueNtB2_8ToTokens9to_tokensBD_, symObjAddr: 0xABC, symBinAddr: 0x2D874, symSize: 0x40 }
  - { offset: 0x8C764, size: 0x8, addend: 0x0, symName: __RNvXNtCs2cqEZUIJimJ_5quote9to_tokensRNtNtCs6IAuOt8vWmF_3syn4expr4ExprNtB2_8ToTokens9to_tokensBD_, symObjAddr: 0xAFC, symBinAddr: 0x2D8B4, symSize: 0x40 }
  - { offset: 0x8C81C, size: 0x8, addend: 0x0, symName: __RNvMNtCs6IAuOt8vWmF_3syn4exprNtB2_4Expr25parse_without_eager_brace, symObjAddr: 0x1C04, symBinAddr: 0x2D98C, symSize: 0x3C }
  - { offset: 0x8C83F, size: 0x8, addend: 0x0, symName: __RNvMNtCs6IAuOt8vWmF_3syn4exprNtB2_4Expr32parse_with_earlier_boundary_rule, symObjAddr: 0x1C40, symBinAddr: 0x2D9C8, symSize: 0x34 }
  - { offset: 0x8C862, size: 0x8, addend: 0x0, symName: __RNvMNtCs6IAuOt8vWmF_3syn4exprNtB2_4Expr4peek, symObjAddr: 0x1C74, symBinAddr: 0x2D9FC, symSize: 0x408 }
  - { offset: 0x8C892, size: 0x8, addend: 0x0, symName: __RNvMNtCs6IAuOt8vWmF_3syn4exprNtB2_4Expr13replace_attrs, symObjAddr: 0x207C, symBinAddr: 0x2DE04, symSize: 0x678 }
  - { offset: 0x8C8E8, size: 0x8, addend: 0x0, symName: __RNvMs6_NtCs6IAuOt8vWmF_3syn4exprNtB5_6Member8is_named, symObjAddr: 0x2A04, symBinAddr: 0x2E47C, symSize: 0x6C }
  - { offset: 0x8C943, size: 0x8, addend: 0x0, symName: __RNvMsv_NtNtCs6IAuOt8vWmF_3syn4expr7parsingNtB7_11RangeLimits14parse_obsolete, symObjAddr: 0x9428, symBinAddr: 0x336A4, symSize: 0x334 }
  - { offset: 0x8C9F6, size: 0x8, addend: 0x0, symName: __RNvMsy_NtNtCs6IAuOt8vWmF_3syn4expr7parsingNtB7_3Arm14parse_multiple, symObjAddr: 0x9A90, symBinAddr: 0x33D0C, symSize: 0x1C4 }
  - { offset: 0x8CDC0, size: 0x8, addend: 0x0, symName: __RINvXNtNtCse1nGBsou5OW_5alloc5slice4hackTNtNtCs6IAuOt8vWmF_3syn8lifetime8LifetimeNtNtBH_5token4PlusENtB3_10ConvertVec6to_vecNtNtB7_5alloc6GlobalEBH_, symObjAddr: 0x0, symBinAddr: 0x3A520, symSize: 0x368 }
  - { offset: 0x8EB63, size: 0x8, addend: 0x0, symName: __RNCNvMNtCs6IAuOt8vWmF_3syn10punctuatedINtB4_10PunctuatedNtNtB6_4path11PathSegmentNtNtB6_5token7PathSepE10into_pairs0B6_, symObjAddr: 0x5AA4, symBinAddr: 0x3E200, symSize: 0x98 }
  - { offset: 0x8EBB8, size: 0x8, addend: 0x0, symName: __RNCNvMNtCs6IAuOt8vWmF_3syn10punctuatedINtB4_10PunctuatedNtNtB6_4path11PathSegmentNtNtB6_5token7PathSepE3pop0B6_, symObjAddr: 0x9E58, symBinAddr: 0x425B4, symSize: 0xC4 }
  - { offset: 0x8EC00, size: 0x8, addend: 0x0, symName: __RNCNvMNtCs6IAuOt8vWmF_3syn10punctuatedINtB4_10PunctuatedNtNtB6_4path11PathSegmentNtNtB6_5token7PathSepE3pops_0B6_, symObjAddr: 0x9F1C, symBinAddr: 0x42678, symSize: 0x74 }
  - { offset: 0x8ED38, size: 0x8, addend: 0x0, symName: __RNvXs_NtCs6IAuOt8vWmF_3syn10punctuatedINtB4_10PunctuatedNtNtB6_2ty4TypeNtNtB6_5token5CommaENtNtCsfvfooZQ3Axs_4core5clone5Clone5cloneB6_, symObjAddr: 0xB460, symBinAddr: 0x43BBC, symSize: 0x9C }
  - { offset: 0x8ED78, size: 0x8, addend: 0x0, symName: __RNvXs_NtCs6IAuOt8vWmF_3syn10punctuatedINtB4_10PunctuatedNtNtB6_2ty9BareFnArgNtNtB6_5token5CommaENtNtCsfvfooZQ3Axs_4core5clone5Clone5cloneB6_, symObjAddr: 0xB4FC, symBinAddr: 0x43C58, symSize: 0x9C }
  - { offset: 0x8EDB8, size: 0x8, addend: 0x0, symName: __RNvXs_NtCs6IAuOt8vWmF_3syn10punctuatedINtB4_10PunctuatedNtNtB6_3pat3PatNtNtB6_5token2OrENtNtCsfvfooZQ3Axs_4core5clone5Clone5cloneB6_, symObjAddr: 0xB598, symBinAddr: 0x43CF4, symSize: 0x9C }
  - { offset: 0x8EDF8, size: 0x8, addend: 0x0, symName: __RNvXs_NtCs6IAuOt8vWmF_3syn10punctuatedINtB4_10PunctuatedNtNtB6_3pat3PatNtNtB6_5token5CommaENtNtCsfvfooZQ3Axs_4core5clone5Clone5cloneB6_, symObjAddr: 0xB634, symBinAddr: 0x43D90, symSize: 0x9C }
  - { offset: 0x8EE38, size: 0x8, addend: 0x0, symName: __RNvXs_NtCs6IAuOt8vWmF_3syn10punctuatedINtB4_10PunctuatedNtNtB6_3pat8FieldPatNtNtB6_5token5CommaENtNtCsfvfooZQ3Axs_4core5clone5Clone5cloneB6_, symObjAddr: 0xB6D0, symBinAddr: 0x43E2C, symSize: 0x9C }
  - { offset: 0x8EE78, size: 0x8, addend: 0x0, symName: __RNvXs_NtCs6IAuOt8vWmF_3syn10punctuatedINtB4_10PunctuatedNtNtB6_4data5FieldNtNtB6_5token5CommaENtNtCsfvfooZQ3Axs_4core5clone5Clone5cloneB6_, symObjAddr: 0xB76C, symBinAddr: 0x43EC8, symSize: 0x9C }
  - { offset: 0x8EEB8, size: 0x8, addend: 0x0, symName: __RNvXs_NtCs6IAuOt8vWmF_3syn10punctuatedINtB4_10PunctuatedNtNtB6_4data7VariantNtNtB6_5token5CommaENtNtCsfvfooZQ3Axs_4core5clone5Clone5cloneB6_, symObjAddr: 0xB808, symBinAddr: 0x43F64, symSize: 0x9C }
  - { offset: 0x8EEF8, size: 0x8, addend: 0x0, symName: __RNvXs_NtCs6IAuOt8vWmF_3syn10punctuatedINtB4_10PunctuatedNtNtB6_4expr10FieldValueNtNtB6_5token5CommaENtNtCsfvfooZQ3Axs_4core5clone5Clone5cloneB6_, symObjAddr: 0xB8A4, symBinAddr: 0x44000, symSize: 0x9C }
  - { offset: 0x8EF38, size: 0x8, addend: 0x0, symName: __RNvXs_NtCs6IAuOt8vWmF_3syn10punctuatedINtB4_10PunctuatedNtNtB6_4expr4ExprNtNtB6_5token5CommaENtNtCsfvfooZQ3Axs_4core5clone5Clone5cloneB6_, symObjAddr: 0xB940, symBinAddr: 0x4409C, symSize: 0x9C }
  - { offset: 0x8EF78, size: 0x8, addend: 0x0, symName: __RNvXs_NtCs6IAuOt8vWmF_3syn10punctuatedINtB4_10PunctuatedNtNtB6_4item5FnArgNtNtB6_5token5CommaENtNtCsfvfooZQ3Axs_4core5clone5Clone5cloneB6_, symObjAddr: 0xB9DC, symBinAddr: 0x44138, symSize: 0x9C }
  - { offset: 0x8EFB8, size: 0x8, addend: 0x0, symName: __RNvXs_NtCs6IAuOt8vWmF_3syn10punctuatedINtB4_10PunctuatedNtNtB6_4item7UseTreeNtNtB6_5token5CommaENtNtCsfvfooZQ3Axs_4core5clone5Clone5cloneB6_, symObjAddr: 0xBA78, symBinAddr: 0x441D4, symSize: 0x9C }
  - { offset: 0x8EFF8, size: 0x8, addend: 0x0, symName: __RNvXs_NtCs6IAuOt8vWmF_3syn10punctuatedINtB4_10PunctuatedNtNtB6_4path11PathSegmentNtNtB6_5token7PathSepENtNtCsfvfooZQ3Axs_4core5clone5Clone5cloneB6_, symObjAddr: 0xBB14, symBinAddr: 0x44270, symSize: 0x9C }
  - { offset: 0x8F038, size: 0x8, addend: 0x0, symName: __RNvXs_NtCs6IAuOt8vWmF_3syn10punctuatedINtB4_10PunctuatedNtNtB6_4path15GenericArgumentNtNtB6_5token5CommaENtNtCsfvfooZQ3Axs_4core5clone5Clone5cloneB6_, symObjAddr: 0xBBB0, symBinAddr: 0x4430C, symSize: 0x9C }
  - { offset: 0x8F078, size: 0x8, addend: 0x0, symName: __RNvXs_NtCs6IAuOt8vWmF_3syn10punctuatedINtB4_10PunctuatedNtNtB6_8generics12GenericParamNtNtB6_5token5CommaENtNtCsfvfooZQ3Axs_4core5clone5Clone5cloneB6_, symObjAddr: 0xBC4C, symBinAddr: 0x443A8, symSize: 0x9C }
  - { offset: 0x8F0B8, size: 0x8, addend: 0x0, symName: __RNvXs_NtCs6IAuOt8vWmF_3syn10punctuatedINtB4_10PunctuatedNtNtB6_8generics13CapturedParamNtNtB6_5token5CommaENtNtCsfvfooZQ3Axs_4core5clone5Clone5cloneB6_, symObjAddr: 0xBCE8, symBinAddr: 0x44444, symSize: 0x9C }
  - { offset: 0x8F0F8, size: 0x8, addend: 0x0, symName: __RNvXs_NtCs6IAuOt8vWmF_3syn10punctuatedINtB4_10PunctuatedNtNtB6_8generics14TypeParamBoundNtNtB6_5token4PlusENtNtCsfvfooZQ3Axs_4core5clone5Clone5cloneB6_, symObjAddr: 0xBD84, symBinAddr: 0x444E0, symSize: 0x9C }
  - { offset: 0x8F138, size: 0x8, addend: 0x0, symName: __RNvXs_NtCs6IAuOt8vWmF_3syn10punctuatedINtB4_10PunctuatedNtNtB6_8generics14WherePredicateNtNtB6_5token5CommaENtNtCsfvfooZQ3Axs_4core5clone5Clone5cloneB6_, symObjAddr: 0xBE20, symBinAddr: 0x4457C, symSize: 0x9C }
  - { offset: 0x8F178, size: 0x8, addend: 0x0, symName: __RNvXs_NtCs6IAuOt8vWmF_3syn10punctuatedINtB4_10PunctuatedNtNtB6_8lifetime8LifetimeNtNtB6_5token4PlusENtNtCsfvfooZQ3Axs_4core5clone5Clone5cloneB6_, symObjAddr: 0xBEBC, symBinAddr: 0x44618, symSize: 0x9C }
  - { offset: 0x8F1BE, size: 0x8, addend: 0x0, symName: __RINvXs7_NtCs6IAuOt8vWmF_3syn10punctuatedINtB6_10PunctuatedNtNtB8_4path11PathSegmentNtNtB8_5token7PathSepEINtNtNtNtCsfvfooZQ3Axs_4core4iter6traits7collect6ExtendINtB6_4PairBU_B1j_EE6extendINtB6_9IntoPairsBU_B1j_EEB8_, symObjAddr: 0xDFB0, symBinAddr: 0x446B4, symSize: 0x124 }
  - { offset: 0x8F214, size: 0x8, addend: 0x0, symName: __RINvNtCs6IAuOt8vWmF_3syn10punctuated9do_extendNtNtB4_4path11PathSegmentNtNtB4_5token7PathSepINtB2_9IntoPairsBI_B17_EEB4_, symObjAddr: 0xE0D4, symBinAddr: 0x447D8, symSize: 0x3B4 }
  - { offset: 0x8F311, size: 0x8, addend: 0x0, symName: __RNvXs8_NtCs6IAuOt8vWmF_3syn10punctuatedINtB5_10PunctuatedNtNtB7_8generics14TypeParamBoundNtNtB7_5token4PlusENtNtNtNtCsfvfooZQ3Axs_4core4iter6traits7collect12IntoIterator9into_iterB7_, symObjAddr: 0xE808, symBinAddr: 0x44B8C, symSize: 0x1C0 }
  - { offset: 0x8F36D, size: 0x8, addend: 0x0, symName: __RNCNvXs8_NtCs6IAuOt8vWmF_3syn10punctuatedINtB7_10PunctuatedNtNtB9_8generics14TypeParamBoundNtNtB9_5token4PlusENtNtNtNtCsfvfooZQ3Axs_4core4iter6traits7collect12IntoIterator9into_iter0B9_, symObjAddr: 0xEA50, symBinAddr: 0x44D4C, symSize: 0x44 }
  - { offset: 0x8F3B9, size: 0x8, addend: 0x0, symName: __RNCNvXs8_NtCs6IAuOt8vWmF_3syn10punctuatedINtB7_10PunctuatedNtNtB9_8generics14TypeParamBoundNtNtB9_5token4PlusENtNtNtNtCsfvfooZQ3Axs_4core4iter6traits7collect12IntoIterator9into_iters_0B9_, symObjAddr: 0xEBC4, symBinAddr: 0x44D90, symSize: 0x98 }
  - { offset: 0x8F419, size: 0x8, addend: 0x0, symName: __RNvXs9_NtCs6IAuOt8vWmF_3syn10punctuatedRINtB5_10PunctuatedNtNtB7_8generics14TypeParamBoundNtNtB7_5token4PlusENtNtNtNtCsfvfooZQ3Axs_4core4iter6traits7collect12IntoIterator9into_iterB7_, symObjAddr: 0xEC5C, symBinAddr: 0x44E28, symSize: 0x34 }
  - { offset: 0x8F45F, size: 0x8, addend: 0x0, symName: __RNvXsc_NtCs6IAuOt8vWmF_3syn10punctuatedINtB5_5PairsNtNtB7_2ty4TypeNtNtB7_5token5CommaENtNtNtNtCsfvfooZQ3Axs_4core4iter6traits8iterator8Iterator4nextB7_, symObjAddr: 0xEC90, symBinAddr: 0x44E5C, symSize: 0x58 }
  - { offset: 0x8F49F, size: 0x8, addend: 0x0, symName: __RNvXsc_NtCs6IAuOt8vWmF_3syn10punctuatedINtB5_5PairsNtNtB7_2ty9BareFnArgNtNtB7_5token5CommaENtNtNtNtCsfvfooZQ3Axs_4core4iter6traits8iterator8Iterator4nextB7_, symObjAddr: 0xECE8, symBinAddr: 0x44EB4, symSize: 0x58 }
  - { offset: 0x8F4DF, size: 0x8, addend: 0x0, symName: __RNvXsc_NtCs6IAuOt8vWmF_3syn10punctuatedINtB5_5PairsNtNtB7_3pat3PatNtNtB7_5token2OrENtNtNtNtCsfvfooZQ3Axs_4core4iter6traits8iterator8Iterator4nextB7_, symObjAddr: 0xED40, symBinAddr: 0x44F0C, symSize: 0x58 }
  - { offset: 0x8F51F, size: 0x8, addend: 0x0, symName: __RNvXsc_NtCs6IAuOt8vWmF_3syn10punctuatedINtB5_5PairsNtNtB7_3pat3PatNtNtB7_5token5CommaENtNtNtNtCsfvfooZQ3Axs_4core4iter6traits8iterator8Iterator4nextB7_, symObjAddr: 0xED98, symBinAddr: 0x44F64, symSize: 0x58 }
  - { offset: 0x8F55F, size: 0x8, addend: 0x0, symName: __RNvXsc_NtCs6IAuOt8vWmF_3syn10punctuatedINtB5_5PairsNtNtB7_3pat8FieldPatNtNtB7_5token5CommaENtNtNtNtCsfvfooZQ3Axs_4core4iter6traits8iterator8Iterator4nextB7_, symObjAddr: 0xEDF0, symBinAddr: 0x44FBC, symSize: 0x58 }
  - { offset: 0x8F59F, size: 0x8, addend: 0x0, symName: __RNvXsc_NtCs6IAuOt8vWmF_3syn10punctuatedINtB5_5PairsNtNtB7_4data5FieldNtNtB7_5token5CommaENtNtNtNtCsfvfooZQ3Axs_4core4iter6traits8iterator8Iterator4nextB7_, symObjAddr: 0xEE48, symBinAddr: 0x45014, symSize: 0x58 }
  - { offset: 0x8F5DF, size: 0x8, addend: 0x0, symName: __RNvXsc_NtCs6IAuOt8vWmF_3syn10punctuatedINtB5_5PairsNtNtB7_4data7VariantNtNtB7_5token5CommaENtNtNtNtCsfvfooZQ3Axs_4core4iter6traits8iterator8Iterator4nextB7_, symObjAddr: 0xEEA0, symBinAddr: 0x4506C, symSize: 0x58 }
  - { offset: 0x8F61F, size: 0x8, addend: 0x0, symName: __RNvXsc_NtCs6IAuOt8vWmF_3syn10punctuatedINtB5_5PairsNtNtB7_4expr10FieldValueNtNtB7_5token5CommaENtNtNtNtCsfvfooZQ3Axs_4core4iter6traits8iterator8Iterator4nextB7_, symObjAddr: 0xEEF8, symBinAddr: 0x450C4, symSize: 0x58 }
  - { offset: 0x8F65F, size: 0x8, addend: 0x0, symName: __RNvXsc_NtCs6IAuOt8vWmF_3syn10punctuatedINtB5_5PairsNtNtB7_4expr4ExprNtNtB7_5token5CommaENtNtNtNtCsfvfooZQ3Axs_4core4iter6traits8iterator8Iterator4nextB7_, symObjAddr: 0xEF50, symBinAddr: 0x4511C, symSize: 0x58 }
  - { offset: 0x8F69F, size: 0x8, addend: 0x0, symName: __RNvXsc_NtCs6IAuOt8vWmF_3syn10punctuatedINtB5_5PairsNtNtB7_4item5FnArgNtNtB7_5token5CommaENtNtNtNtCsfvfooZQ3Axs_4core4iter6traits8iterator8Iterator4nextB7_, symObjAddr: 0xEFA8, symBinAddr: 0x45174, symSize: 0x58 }
  - { offset: 0x8F6DF, size: 0x8, addend: 0x0, symName: __RNvXsc_NtCs6IAuOt8vWmF_3syn10punctuatedINtB5_5PairsNtNtB7_4item7UseTreeNtNtB7_5token5CommaENtNtNtNtCsfvfooZQ3Axs_4core4iter6traits8iterator8Iterator4nextB7_, symObjAddr: 0xF000, symBinAddr: 0x451CC, symSize: 0x58 }
  - { offset: 0x8F71F, size: 0x8, addend: 0x0, symName: __RNvXsc_NtCs6IAuOt8vWmF_3syn10punctuatedINtB5_5PairsNtNtB7_4path11PathSegmentNtNtB7_5token7PathSepENtNtNtNtCsfvfooZQ3Axs_4core4iter6traits8iterator8Iterator4nextB7_, symObjAddr: 0xF058, symBinAddr: 0x45224, symSize: 0x58 }
  - { offset: 0x8F75F, size: 0x8, addend: 0x0, symName: __RNvXsc_NtCs6IAuOt8vWmF_3syn10punctuatedINtB5_5PairsNtNtB7_4path15GenericArgumentNtNtB7_5token5CommaENtNtNtNtCsfvfooZQ3Axs_4core4iter6traits8iterator8Iterator4nextB7_, symObjAddr: 0xF0B0, symBinAddr: 0x4527C, symSize: 0x58 }
  - { offset: 0x8F79F, size: 0x8, addend: 0x0, symName: __RNvXsc_NtCs6IAuOt8vWmF_3syn10punctuatedINtB5_5PairsNtNtB7_8generics12GenericParamNtNtB7_5token5CommaENtNtNtNtCsfvfooZQ3Axs_4core4iter6traits8iterator8Iterator4nextB7_, symObjAddr: 0xF108, symBinAddr: 0x452D4, symSize: 0x58 }
  - { offset: 0x8F7DF, size: 0x8, addend: 0x0, symName: __RNvXsc_NtCs6IAuOt8vWmF_3syn10punctuatedINtB5_5PairsNtNtB7_8generics13CapturedParamNtNtB7_5token5CommaENtNtNtNtCsfvfooZQ3Axs_4core4iter6traits8iterator8Iterator4nextB7_, symObjAddr: 0xF160, symBinAddr: 0x4532C, symSize: 0x58 }
  - { offset: 0x8F81F, size: 0x8, addend: 0x0, symName: __RNvXsc_NtCs6IAuOt8vWmF_3syn10punctuatedINtB5_5PairsNtNtB7_8generics14TypeParamBoundNtNtB7_5token4PlusENtNtNtNtCsfvfooZQ3Axs_4core4iter6traits8iterator8Iterator4nextB7_, symObjAddr: 0xF1B8, symBinAddr: 0x45384, symSize: 0x58 }
  - { offset: 0x8F85F, size: 0x8, addend: 0x0, symName: __RNvXsc_NtCs6IAuOt8vWmF_3syn10punctuatedINtB5_5PairsNtNtB7_8generics14WherePredicateNtNtB7_5token5CommaENtNtNtNtCsfvfooZQ3Axs_4core4iter6traits8iterator8Iterator4nextB7_, symObjAddr: 0xF210, symBinAddr: 0x453DC, symSize: 0x58 }
  - { offset: 0x8F89F, size: 0x8, addend: 0x0, symName: __RNvXsc_NtCs6IAuOt8vWmF_3syn10punctuatedINtB5_5PairsNtNtB7_8lifetime8LifetimeNtNtB7_5token4PlusENtNtNtNtCsfvfooZQ3Axs_4core4iter6traits8iterator8Iterator4nextB7_, symObjAddr: 0xF268, symBinAddr: 0x45434, symSize: 0x58 }
  - { offset: 0x8F8E4, size: 0x8, addend: 0x0, symName: __RNCNvXsc_NtCs6IAuOt8vWmF_3syn10punctuatedINtB7_5PairsNtNtB9_2ty4TypeNtNtB9_5token5CommaENtNtNtNtCsfvfooZQ3Axs_4core4iter6traits8iterator8Iterator4next0B9_, symObjAddr: 0xF2C0, symBinAddr: 0x4548C, symSize: 0x40 }
  - { offset: 0x8F959, size: 0x8, addend: 0x0, symName: __RNCNvXsc_NtCs6IAuOt8vWmF_3syn10punctuatedINtB7_5PairsNtNtB9_2ty9BareFnArgNtNtB9_5token5CommaENtNtNtNtCsfvfooZQ3Axs_4core4iter6traits8iterator8Iterator4next0B9_, symObjAddr: 0xF300, symBinAddr: 0x454CC, symSize: 0x40 }
  - { offset: 0x8F9CE, size: 0x8, addend: 0x0, symName: __RNCNvXsc_NtCs6IAuOt8vWmF_3syn10punctuatedINtB7_5PairsNtNtB9_3pat3PatNtNtB9_5token2OrENtNtNtNtCsfvfooZQ3Axs_4core4iter6traits8iterator8Iterator4next0B9_, symObjAddr: 0xF340, symBinAddr: 0x4550C, symSize: 0x40 }
  - { offset: 0x8FA43, size: 0x8, addend: 0x0, symName: __RNCNvXsc_NtCs6IAuOt8vWmF_3syn10punctuatedINtB7_5PairsNtNtB9_3pat3PatNtNtB9_5token5CommaENtNtNtNtCsfvfooZQ3Axs_4core4iter6traits8iterator8Iterator4next0B9_, symObjAddr: 0xF380, symBinAddr: 0x4554C, symSize: 0x40 }
  - { offset: 0x8FAB8, size: 0x8, addend: 0x0, symName: __RNCNvXsc_NtCs6IAuOt8vWmF_3syn10punctuatedINtB7_5PairsNtNtB9_3pat8FieldPatNtNtB9_5token5CommaENtNtNtNtCsfvfooZQ3Axs_4core4iter6traits8iterator8Iterator4next0B9_, symObjAddr: 0xF3C0, symBinAddr: 0x4558C, symSize: 0x40 }
  - { offset: 0x8FB2D, size: 0x8, addend: 0x0, symName: __RNCNvXsc_NtCs6IAuOt8vWmF_3syn10punctuatedINtB7_5PairsNtNtB9_4data5FieldNtNtB9_5token5CommaENtNtNtNtCsfvfooZQ3Axs_4core4iter6traits8iterator8Iterator4next0B9_, symObjAddr: 0xF400, symBinAddr: 0x455CC, symSize: 0x40 }
  - { offset: 0x8FBA2, size: 0x8, addend: 0x0, symName: __RNCNvXsc_NtCs6IAuOt8vWmF_3syn10punctuatedINtB7_5PairsNtNtB9_4data7VariantNtNtB9_5token5CommaENtNtNtNtCsfvfooZQ3Axs_4core4iter6traits8iterator8Iterator4next0B9_, symObjAddr: 0xF440, symBinAddr: 0x4560C, symSize: 0x40 }
  - { offset: 0x8FC17, size: 0x8, addend: 0x0, symName: __RNCNvXsc_NtCs6IAuOt8vWmF_3syn10punctuatedINtB7_5PairsNtNtB9_4expr10FieldValueNtNtB9_5token5CommaENtNtNtNtCsfvfooZQ3Axs_4core4iter6traits8iterator8Iterator4next0B9_, symObjAddr: 0xF480, symBinAddr: 0x4564C, symSize: 0x40 }
  - { offset: 0x8FC8C, size: 0x8, addend: 0x0, symName: __RNCNvXsc_NtCs6IAuOt8vWmF_3syn10punctuatedINtB7_5PairsNtNtB9_4expr4ExprNtNtB9_5token5CommaENtNtNtNtCsfvfooZQ3Axs_4core4iter6traits8iterator8Iterator4next0B9_, symObjAddr: 0xF4C0, symBinAddr: 0x4568C, symSize: 0x40 }
  - { offset: 0x8FD01, size: 0x8, addend: 0x0, symName: __RNCNvXsc_NtCs6IAuOt8vWmF_3syn10punctuatedINtB7_5PairsNtNtB9_4item5FnArgNtNtB9_5token5CommaENtNtNtNtCsfvfooZQ3Axs_4core4iter6traits8iterator8Iterator4next0B9_, symObjAddr: 0xF500, symBinAddr: 0x456CC, symSize: 0x40 }
  - { offset: 0x8FD76, size: 0x8, addend: 0x0, symName: __RNCNvXsc_NtCs6IAuOt8vWmF_3syn10punctuatedINtB7_5PairsNtNtB9_4item7UseTreeNtNtB9_5token5CommaENtNtNtNtCsfvfooZQ3Axs_4core4iter6traits8iterator8Iterator4next0B9_, symObjAddr: 0xF540, symBinAddr: 0x4570C, symSize: 0x40 }
  - { offset: 0x8FDEB, size: 0x8, addend: 0x0, symName: __RNCNvXsc_NtCs6IAuOt8vWmF_3syn10punctuatedINtB7_5PairsNtNtB9_4path11PathSegmentNtNtB9_5token7PathSepENtNtNtNtCsfvfooZQ3Axs_4core4iter6traits8iterator8Iterator4next0B9_, symObjAddr: 0xF580, symBinAddr: 0x4574C, symSize: 0x40 }
  - { offset: 0x8FE60, size: 0x8, addend: 0x0, symName: __RNCNvXsc_NtCs6IAuOt8vWmF_3syn10punctuatedINtB7_5PairsNtNtB9_4path15GenericArgumentNtNtB9_5token5CommaENtNtNtNtCsfvfooZQ3Axs_4core4iter6traits8iterator8Iterator4next0B9_, symObjAddr: 0xF5C0, symBinAddr: 0x4578C, symSize: 0x40 }
  - { offset: 0x8FED5, size: 0x8, addend: 0x0, symName: __RNCNvXsc_NtCs6IAuOt8vWmF_3syn10punctuatedINtB7_5PairsNtNtB9_8generics12GenericParamNtNtB9_5token5CommaENtNtNtNtCsfvfooZQ3Axs_4core4iter6traits8iterator8Iterator4next0B9_, symObjAddr: 0xF600, symBinAddr: 0x457CC, symSize: 0x40 }
  - { offset: 0x8FF4A, size: 0x8, addend: 0x0, symName: __RNCNvXsc_NtCs6IAuOt8vWmF_3syn10punctuatedINtB7_5PairsNtNtB9_8generics13CapturedParamNtNtB9_5token5CommaENtNtNtNtCsfvfooZQ3Axs_4core4iter6traits8iterator8Iterator4next0B9_, symObjAddr: 0xF640, symBinAddr: 0x4580C, symSize: 0x40 }
  - { offset: 0x8FFBF, size: 0x8, addend: 0x0, symName: __RNCNvXsc_NtCs6IAuOt8vWmF_3syn10punctuatedINtB7_5PairsNtNtB9_8generics14TypeParamBoundNtNtB9_5token4PlusENtNtNtNtCsfvfooZQ3Axs_4core4iter6traits8iterator8Iterator4next0B9_, symObjAddr: 0xF680, symBinAddr: 0x4584C, symSize: 0x40 }
  - { offset: 0x90034, size: 0x8, addend: 0x0, symName: __RNCNvXsc_NtCs6IAuOt8vWmF_3syn10punctuatedINtB7_5PairsNtNtB9_8generics14WherePredicateNtNtB9_5token5CommaENtNtNtNtCsfvfooZQ3Axs_4core4iter6traits8iterator8Iterator4next0B9_, symObjAddr: 0xF6C0, symBinAddr: 0x4588C, symSize: 0x40 }
  - { offset: 0x900A9, size: 0x8, addend: 0x0, symName: __RNCNvXsc_NtCs6IAuOt8vWmF_3syn10punctuatedINtB7_5PairsNtNtB9_8lifetime8LifetimeNtNtB9_5token4PlusENtNtNtNtCsfvfooZQ3Axs_4core4iter6traits8iterator8Iterator4next0B9_, symObjAddr: 0xF700, symBinAddr: 0x458CC, symSize: 0x40 }
  - { offset: 0x9011E, size: 0x8, addend: 0x0, symName: __RNCNvXsc_NtCs6IAuOt8vWmF_3syn10punctuatedINtB7_5PairsNtNtB9_2ty4TypeNtNtB9_5token5CommaENtNtNtNtCsfvfooZQ3Axs_4core4iter6traits8iterator8Iterator4nexts_0B9_, symObjAddr: 0xF740, symBinAddr: 0x4590C, symSize: 0x40 }
  - { offset: 0x90160, size: 0x8, addend: 0x0, symName: __RNCNvXsc_NtCs6IAuOt8vWmF_3syn10punctuatedINtB7_5PairsNtNtB9_2ty9BareFnArgNtNtB9_5token5CommaENtNtNtNtCsfvfooZQ3Axs_4core4iter6traits8iterator8Iterator4nexts_0B9_, symObjAddr: 0xF780, symBinAddr: 0x4594C, symSize: 0x40 }
  - { offset: 0x901A2, size: 0x8, addend: 0x0, symName: __RNCNvXsc_NtCs6IAuOt8vWmF_3syn10punctuatedINtB7_5PairsNtNtB9_3pat3PatNtNtB9_5token2OrENtNtNtNtCsfvfooZQ3Axs_4core4iter6traits8iterator8Iterator4nexts_0B9_, symObjAddr: 0xF7C0, symBinAddr: 0x4598C, symSize: 0x40 }
  - { offset: 0x901E4, size: 0x8, addend: 0x0, symName: __RNCNvXsc_NtCs6IAuOt8vWmF_3syn10punctuatedINtB7_5PairsNtNtB9_3pat3PatNtNtB9_5token5CommaENtNtNtNtCsfvfooZQ3Axs_4core4iter6traits8iterator8Iterator4nexts_0B9_, symObjAddr: 0xF800, symBinAddr: 0x459CC, symSize: 0x40 }
  - { offset: 0x90226, size: 0x8, addend: 0x0, symName: __RNCNvXsc_NtCs6IAuOt8vWmF_3syn10punctuatedINtB7_5PairsNtNtB9_3pat8FieldPatNtNtB9_5token5CommaENtNtNtNtCsfvfooZQ3Axs_4core4iter6traits8iterator8Iterator4nexts_0B9_, symObjAddr: 0xF840, symBinAddr: 0x45A0C, symSize: 0x40 }
  - { offset: 0x90268, size: 0x8, addend: 0x0, symName: __RNCNvXsc_NtCs6IAuOt8vWmF_3syn10punctuatedINtB7_5PairsNtNtB9_4data5FieldNtNtB9_5token5CommaENtNtNtNtCsfvfooZQ3Axs_4core4iter6traits8iterator8Iterator4nexts_0B9_, symObjAddr: 0xF880, symBinAddr: 0x45A4C, symSize: 0x40 }
  - { offset: 0x902AA, size: 0x8, addend: 0x0, symName: __RNCNvXsc_NtCs6IAuOt8vWmF_3syn10punctuatedINtB7_5PairsNtNtB9_4data7VariantNtNtB9_5token5CommaENtNtNtNtCsfvfooZQ3Axs_4core4iter6traits8iterator8Iterator4nexts_0B9_, symObjAddr: 0xF8C0, symBinAddr: 0x45A8C, symSize: 0x40 }
  - { offset: 0x902EC, size: 0x8, addend: 0x0, symName: __RNCNvXsc_NtCs6IAuOt8vWmF_3syn10punctuatedINtB7_5PairsNtNtB9_4expr10FieldValueNtNtB9_5token5CommaENtNtNtNtCsfvfooZQ3Axs_4core4iter6traits8iterator8Iterator4nexts_0B9_, symObjAddr: 0xF900, symBinAddr: 0x45ACC, symSize: 0x40 }
  - { offset: 0x9032E, size: 0x8, addend: 0x0, symName: __RNCNvXsc_NtCs6IAuOt8vWmF_3syn10punctuatedINtB7_5PairsNtNtB9_4expr4ExprNtNtB9_5token5CommaENtNtNtNtCsfvfooZQ3Axs_4core4iter6traits8iterator8Iterator4nexts_0B9_, symObjAddr: 0xF940, symBinAddr: 0x45B0C, symSize: 0x40 }
  - { offset: 0x90370, size: 0x8, addend: 0x0, symName: __RNCNvXsc_NtCs6IAuOt8vWmF_3syn10punctuatedINtB7_5PairsNtNtB9_4item5FnArgNtNtB9_5token5CommaENtNtNtNtCsfvfooZQ3Axs_4core4iter6traits8iterator8Iterator4nexts_0B9_, symObjAddr: 0xF980, symBinAddr: 0x45B4C, symSize: 0x40 }
  - { offset: 0x903B2, size: 0x8, addend: 0x0, symName: __RNCNvXsc_NtCs6IAuOt8vWmF_3syn10punctuatedINtB7_5PairsNtNtB9_4item7UseTreeNtNtB9_5token5CommaENtNtNtNtCsfvfooZQ3Axs_4core4iter6traits8iterator8Iterator4nexts_0B9_, symObjAddr: 0xF9C0, symBinAddr: 0x45B8C, symSize: 0x40 }
  - { offset: 0x903F4, size: 0x8, addend: 0x0, symName: __RNCNvXsc_NtCs6IAuOt8vWmF_3syn10punctuatedINtB7_5PairsNtNtB9_4path11PathSegmentNtNtB9_5token7PathSepENtNtNtNtCsfvfooZQ3Axs_4core4iter6traits8iterator8Iterator4nexts_0B9_, symObjAddr: 0xFA00, symBinAddr: 0x45BCC, symSize: 0x40 }
  - { offset: 0x90436, size: 0x8, addend: 0x0, symName: __RNCNvXsc_NtCs6IAuOt8vWmF_3syn10punctuatedINtB7_5PairsNtNtB9_4path15GenericArgumentNtNtB9_5token5CommaENtNtNtNtCsfvfooZQ3Axs_4core4iter6traits8iterator8Iterator4nexts_0B9_, symObjAddr: 0xFA40, symBinAddr: 0x45C0C, symSize: 0x40 }
  - { offset: 0x90478, size: 0x8, addend: 0x0, symName: __RNCNvXsc_NtCs6IAuOt8vWmF_3syn10punctuatedINtB7_5PairsNtNtB9_8generics12GenericParamNtNtB9_5token5CommaENtNtNtNtCsfvfooZQ3Axs_4core4iter6traits8iterator8Iterator4nexts_0B9_, symObjAddr: 0xFA80, symBinAddr: 0x45C4C, symSize: 0x40 }
  - { offset: 0x904BA, size: 0x8, addend: 0x0, symName: __RNCNvXsc_NtCs6IAuOt8vWmF_3syn10punctuatedINtB7_5PairsNtNtB9_8generics13CapturedParamNtNtB9_5token5CommaENtNtNtNtCsfvfooZQ3Axs_4core4iter6traits8iterator8Iterator4nexts_0B9_, symObjAddr: 0xFAC0, symBinAddr: 0x45C8C, symSize: 0x40 }
  - { offset: 0x904FC, size: 0x8, addend: 0x0, symName: __RNCNvXsc_NtCs6IAuOt8vWmF_3syn10punctuatedINtB7_5PairsNtNtB9_8generics14TypeParamBoundNtNtB9_5token4PlusENtNtNtNtCsfvfooZQ3Axs_4core4iter6traits8iterator8Iterator4nexts_0B9_, symObjAddr: 0xFB00, symBinAddr: 0x45CCC, symSize: 0x40 }
  - { offset: 0x9053E, size: 0x8, addend: 0x0, symName: __RNCNvXsc_NtCs6IAuOt8vWmF_3syn10punctuatedINtB7_5PairsNtNtB9_8generics14WherePredicateNtNtB9_5token5CommaENtNtNtNtCsfvfooZQ3Axs_4core4iter6traits8iterator8Iterator4nexts_0B9_, symObjAddr: 0xFB40, symBinAddr: 0x45D0C, symSize: 0x40 }
  - { offset: 0x90580, size: 0x8, addend: 0x0, symName: __RNCNvXsc_NtCs6IAuOt8vWmF_3syn10punctuatedINtB7_5PairsNtNtB9_8lifetime8LifetimeNtNtB9_5token4PlusENtNtNtNtCsfvfooZQ3Axs_4core4iter6traits8iterator8Iterator4nexts_0B9_, symObjAddr: 0xFB80, symBinAddr: 0x45D4C, symSize: 0x40 }
  - { offset: 0x90647, size: 0x8, addend: 0x0, symName: __RNvXsj_NtCs6IAuOt8vWmF_3syn10punctuatedINtB5_9IntoPairsNtNtB7_4path11PathSegmentNtNtB7_5token7PathSepENtNtNtNtCsfvfooZQ3Axs_4core4iter6traits8iterator8Iterator4nextB7_, symObjAddr: 0xFBC0, symBinAddr: 0x45D8C, symSize: 0x6C }
  - { offset: 0x9068C, size: 0x8, addend: 0x0, symName: __RNCNvXsj_NtCs6IAuOt8vWmF_3syn10punctuatedINtB7_9IntoPairsNtNtB9_4path11PathSegmentNtNtB9_5token7PathSepENtNtNtNtCsfvfooZQ3Axs_4core4iter6traits8iterator8Iterator4next0B9_, symObjAddr: 0xFC2C, symBinAddr: 0x45DF8, symSize: 0x74 }
  - { offset: 0x906FA, size: 0x8, addend: 0x0, symName: __RNCNvXsj_NtCs6IAuOt8vWmF_3syn10punctuatedINtB7_9IntoPairsNtNtB9_4path11PathSegmentNtNtB9_5token7PathSepENtNtNtNtCsfvfooZQ3Axs_4core4iter6traits8iterator8Iterator4nexts_0B9_, symObjAddr: 0xFCA0, symBinAddr: 0x45E6C, symSize: 0x4C }
  - { offset: 0x9074A, size: 0x8, addend: 0x0, symName: __RNvXsn_NtCs6IAuOt8vWmF_3syn10punctuatedINtB5_8IntoIterNtNtB7_8generics14TypeParamBoundENtNtNtNtCsfvfooZQ3Axs_4core4iter6traits8iterator8Iterator4nextB7_, symObjAddr: 0xFCEC, symBinAddr: 0x45EB8, symSize: 0x34 }
  - { offset: 0x90787, size: 0x8, addend: 0x0, symName: __RNvXst_NtCs6IAuOt8vWmF_3syn10punctuatedINtB5_4IterNtNtB7_4data5FieldENtNtNtNtCsfvfooZQ3Axs_4core4iter6traits8iterator8Iterator4nextB7_, symObjAddr: 0xFDD0, symBinAddr: 0x45EEC, symSize: 0x48 }
  - { offset: 0x907BE, size: 0x8, addend: 0x0, symName: __RNvXst_NtCs6IAuOt8vWmF_3syn10punctuatedINtB5_4IterNtNtB7_4path11PathSegmentENtNtNtNtCsfvfooZQ3Axs_4core4iter6traits8iterator8Iterator4nextB7_, symObjAddr: 0xFE60, symBinAddr: 0x45F34, symSize: 0x48 }
  - { offset: 0x907F5, size: 0x8, addend: 0x0, symName: __RNvXst_NtCs6IAuOt8vWmF_3syn10punctuatedINtB5_4IterNtNtB7_8generics14TypeParamBoundENtNtNtNtCsfvfooZQ3Axs_4core4iter6traits8iterator8Iterator4nextB7_, symObjAddr: 0xFEF0, symBinAddr: 0x45F7C, symSize: 0x48 }
  - { offset: 0x90832, size: 0x8, addend: 0x0, symName: __RNvXsu_NtCs6IAuOt8vWmF_3syn10punctuatedINtB5_4IterNtNtB7_4path11PathSegmentENtNtNtNtCsfvfooZQ3Axs_4core4iter6traits12double_ended19DoubleEndedIterator9next_backB7_, symObjAddr: 0xFF38, symBinAddr: 0x45FC4, symSize: 0x48 }
  - { offset: 0x90869, size: 0x8, addend: 0x0, symName: __RNvXsu_NtCs6IAuOt8vWmF_3syn10punctuatedINtB5_4IterNtNtB7_8generics14TypeParamBoundENtNtNtNtCsfvfooZQ3Axs_4core4iter6traits12double_ended19DoubleEndedIterator9next_backB7_, symObjAddr: 0xFF80, symBinAddr: 0x4600C, symSize: 0x48 }
  - { offset: 0x908A6, size: 0x8, addend: 0x0, symName: __RNvXsw_NtCs6IAuOt8vWmF_3syn10punctuatedINtB5_11PrivateIterNtNtB7_4data5FieldNtNtB7_5token5CommaENtNtNtNtCsfvfooZQ3Axs_4core4iter6traits8iterator8Iterator4nextB7_, symObjAddr: 0xFFC8, symBinAddr: 0x46054, symSize: 0x44 }
  - { offset: 0x908E6, size: 0x8, addend: 0x0, symName: __RNvXsw_NtCs6IAuOt8vWmF_3syn10punctuatedINtB5_11PrivateIterNtNtB7_4path11PathSegmentNtNtB7_5token7PathSepENtNtNtNtCsfvfooZQ3Axs_4core4iter6traits8iterator8Iterator4nextB7_, symObjAddr: 0x10050, symBinAddr: 0x46098, symSize: 0x44 }
  - { offset: 0x90926, size: 0x8, addend: 0x0, symName: __RNvXsw_NtCs6IAuOt8vWmF_3syn10punctuatedINtB5_11PrivateIterNtNtB7_8generics14TypeParamBoundNtNtB7_5token4PlusENtNtNtNtCsfvfooZQ3Axs_4core4iter6traits8iterator8Iterator4nextB7_, symObjAddr: 0x100D8, symBinAddr: 0x460DC, symSize: 0x44 }
  - { offset: 0x9096B, size: 0x8, addend: 0x0, symName: __RNCNvXsw_NtCs6IAuOt8vWmF_3syn10punctuatedINtB7_11PrivateIterNtNtB9_4data5FieldNtNtB9_5token5CommaENtNtNtNtCsfvfooZQ3Axs_4core4iter6traits8iterator8Iterator4next0B9_, symObjAddr: 0x1011C, symBinAddr: 0x46120, symSize: 0x24 }
  - { offset: 0x909B6, size: 0x8, addend: 0x0, symName: __RNCNvXsw_NtCs6IAuOt8vWmF_3syn10punctuatedINtB7_11PrivateIterNtNtB9_4path11PathSegmentNtNtB9_5token7PathSepENtNtNtNtCsfvfooZQ3Axs_4core4iter6traits8iterator8Iterator4next0B9_, symObjAddr: 0x10164, symBinAddr: 0x46144, symSize: 0x24 }
  - { offset: 0x90A01, size: 0x8, addend: 0x0, symName: __RNCNvXsw_NtCs6IAuOt8vWmF_3syn10punctuatedINtB7_11PrivateIterNtNtB9_8generics14TypeParamBoundNtNtB9_5token4PlusENtNtNtNtCsfvfooZQ3Axs_4core4iter6traits8iterator8Iterator4next0B9_, symObjAddr: 0x101AC, symBinAddr: 0x46168, symSize: 0x24 }
  - { offset: 0x90A4C, size: 0x8, addend: 0x0, symName: __RNCNvXsw_NtCs6IAuOt8vWmF_3syn10punctuatedINtB7_11PrivateIterNtNtB9_4data5FieldNtNtB9_5token5CommaENtNtNtNtCsfvfooZQ3Axs_4core4iter6traits8iterator8Iterator4nexts_0B9_, symObjAddr: 0x101D0, symBinAddr: 0x4618C, symSize: 0x34 }
  - { offset: 0x90A8E, size: 0x8, addend: 0x0, symName: __RNCNvXsw_NtCs6IAuOt8vWmF_3syn10punctuatedINtB7_11PrivateIterNtNtB9_4path11PathSegmentNtNtB9_5token7PathSepENtNtNtNtCsfvfooZQ3Axs_4core4iter6traits8iterator8Iterator4nexts_0B9_, symObjAddr: 0x10238, symBinAddr: 0x461C0, symSize: 0x34 }
  - { offset: 0x90AD0, size: 0x8, addend: 0x0, symName: __RNCNvXsw_NtCs6IAuOt8vWmF_3syn10punctuatedINtB7_11PrivateIterNtNtB9_8generics14TypeParamBoundNtNtB9_5token4PlusENtNtNtNtCsfvfooZQ3Axs_4core4iter6traits8iterator8Iterator4nexts_0B9_, symObjAddr: 0x102A0, symBinAddr: 0x461F4, symSize: 0x34 }
  - { offset: 0x90B2E, size: 0x8, addend: 0x0, symName: __RNvXsx_NtCs6IAuOt8vWmF_3syn10punctuatedINtB5_11PrivateIterNtNtB7_4data5FieldNtNtB7_5token5CommaENtNtNtNtCsfvfooZQ3Axs_4core4iter6traits12double_ended19DoubleEndedIterator9next_backB7_, symObjAddr: 0x102D4, symBinAddr: 0x46228, symSize: 0x40 }
  - { offset: 0x90B6E, size: 0x8, addend: 0x0, symName: __RNvXsx_NtCs6IAuOt8vWmF_3syn10punctuatedINtB5_11PrivateIterNtNtB7_4path11PathSegmentNtNtB7_5token7PathSepENtNtNtNtCsfvfooZQ3Axs_4core4iter6traits12double_ended19DoubleEndedIterator9next_backB7_, symObjAddr: 0x10354, symBinAddr: 0x46268, symSize: 0x40 }
  - { offset: 0x90BAE, size: 0x8, addend: 0x0, symName: __RNvXsx_NtCs6IAuOt8vWmF_3syn10punctuatedINtB5_11PrivateIterNtNtB7_8generics14TypeParamBoundNtNtB7_5token4PlusENtNtNtNtCsfvfooZQ3Axs_4core4iter6traits12double_ended19DoubleEndedIterator9next_backB7_, symObjAddr: 0x103D4, symBinAddr: 0x462A8, symSize: 0x40 }
  - { offset: 0x90BF3, size: 0x8, addend: 0x0, symName: __RNCNvXsx_NtCs6IAuOt8vWmF_3syn10punctuatedINtB7_11PrivateIterNtNtB9_4data5FieldNtNtB9_5token5CommaENtNtNtNtCsfvfooZQ3Axs_4core4iter6traits12double_ended19DoubleEndedIterator9next_back0B9_, symObjAddr: 0x10414, symBinAddr: 0x462E8, symSize: 0x38 }
  - { offset: 0x90C35, size: 0x8, addend: 0x0, symName: __RNCNvXsx_NtCs6IAuOt8vWmF_3syn10punctuatedINtB7_11PrivateIterNtNtB9_4path11PathSegmentNtNtB9_5token7PathSepENtNtNtNtCsfvfooZQ3Axs_4core4iter6traits12double_ended19DoubleEndedIterator9next_back0B9_, symObjAddr: 0x10484, symBinAddr: 0x46320, symSize: 0x38 }
  - { offset: 0x90C77, size: 0x8, addend: 0x0, symName: __RNCNvXsx_NtCs6IAuOt8vWmF_3syn10punctuatedINtB7_11PrivateIterNtNtB9_8generics14TypeParamBoundNtNtB9_5token4PlusENtNtNtNtCsfvfooZQ3Axs_4core4iter6traits12double_ended19DoubleEndedIterator9next_back0B9_, symObjAddr: 0x104F4, symBinAddr: 0x46358, symSize: 0x38 }
  - { offset: 0x90CBE, size: 0x8, addend: 0x0, symName: __RNCNCNvXsx_NtCs6IAuOt8vWmF_3syn10punctuatedINtB9_11PrivateIterNtNtBb_4data5FieldNtNtBb_5token5CommaENtNtNtNtCsfvfooZQ3Axs_4core4iter6traits12double_ended19DoubleEndedIterator9next_back00Bb_, symObjAddr: 0x1052C, symBinAddr: 0x46390, symSize: 0x24 }
  - { offset: 0x90D09, size: 0x8, addend: 0x0, symName: __RNCNCNvXsx_NtCs6IAuOt8vWmF_3syn10punctuatedINtB9_11PrivateIterNtNtBb_4path11PathSegmentNtNtBb_5token7PathSepENtNtNtNtCsfvfooZQ3Axs_4core4iter6traits12double_ended19DoubleEndedIterator9next_back00Bb_, symObjAddr: 0x10574, symBinAddr: 0x463B4, symSize: 0x24 }
  - { offset: 0x90D54, size: 0x8, addend: 0x0, symName: __RNCNCNvXsx_NtCs6IAuOt8vWmF_3syn10punctuatedINtB9_11PrivateIterNtNtBb_8generics14TypeParamBoundNtNtBb_5token4PlusENtNtNtNtCsfvfooZQ3Axs_4core4iter6traits12double_ended19DoubleEndedIterator9next_back00Bb_, symObjAddr: 0x105BC, symBinAddr: 0x463D8, symSize: 0x24 }
  - { offset: 0x90DBC, size: 0x8, addend: 0x0, symName: __RNvXsy_NtCs6IAuOt8vWmF_3syn10punctuatedINtB5_11PrivateIterNtNtB7_4data5FieldNtNtB7_5token5CommaENtNtNtNtCsfvfooZQ3Axs_4core4iter6traits10exact_size17ExactSizeIterator3lenB7_, symObjAddr: 0x105E0, symBinAddr: 0x463FC, symSize: 0x94 }
  - { offset: 0x90E30, size: 0x8, addend: 0x0, symName: __RNvXsy_NtCs6IAuOt8vWmF_3syn10punctuatedINtB5_11PrivateIterNtNtB7_4path11PathSegmentNtNtB7_5token7PathSepENtNtNtNtCsfvfooZQ3Axs_4core4iter6traits10exact_size17ExactSizeIterator3lenB7_, symObjAddr: 0x10708, symBinAddr: 0x46490, symSize: 0x94 }
  - { offset: 0x90EA4, size: 0x8, addend: 0x0, symName: __RNvXsy_NtCs6IAuOt8vWmF_3syn10punctuatedINtB5_11PrivateIterNtNtB7_8generics14TypeParamBoundNtNtB7_5token4PlusENtNtNtNtCsfvfooZQ3Axs_4core4iter6traits10exact_size17ExactSizeIterator3lenB7_, symObjAddr: 0x10830, symBinAddr: 0x46524, symSize: 0x94 }
  - { offset: 0x90F1E, size: 0x8, addend: 0x0, symName: __RNvXsz_NtCs6IAuOt8vWmF_3syn10punctuatedINtB5_11PrivateIterNtNtB7_4data5FieldNtNtB7_5token5CommaENtNtCsfvfooZQ3Axs_4core5clone5Clone5cloneB7_, symObjAddr: 0x108C4, symBinAddr: 0x465B8, symSize: 0x68 }
  - { offset: 0x90F5E, size: 0x8, addend: 0x0, symName: __RNvXsz_NtCs6IAuOt8vWmF_3syn10punctuatedINtB5_11PrivateIterNtNtB7_4path11PathSegmentNtNtB7_5token7PathSepENtNtCsfvfooZQ3Axs_4core5clone5Clone5cloneB7_, symObjAddr: 0x10994, symBinAddr: 0x46620, symSize: 0x68 }
  - { offset: 0x90F9E, size: 0x8, addend: 0x0, symName: __RNvXsz_NtCs6IAuOt8vWmF_3syn10punctuatedINtB5_11PrivateIterNtNtB7_8generics14TypeParamBoundNtNtB7_5token4PlusENtNtCsfvfooZQ3Axs_4core5clone5Clone5cloneB7_, symObjAddr: 0x10A64, symBinAddr: 0x46688, symSize: 0x68 }
  - { offset: 0x90FE4, size: 0x8, addend: 0x0, symName: __RNvXsA_NtCs6IAuOt8vWmF_3syn10punctuatedINtB5_11PrivateIterNtNtB7_4data5FieldNtNtB7_5token5CommaEINtB5_9IterTraitBU_E9clone_boxB7_, symObjAddr: 0x10ACC, symBinAddr: 0x466F0, symSize: 0x94 }
  - { offset: 0x91042, size: 0x8, addend: 0x0, symName: __RNvXsA_NtCs6IAuOt8vWmF_3syn10punctuatedINtB5_11PrivateIterNtNtB7_4path11PathSegmentNtNtB7_5token7PathSepEINtB5_9IterTraitBU_E9clone_boxB7_, symObjAddr: 0x10BF4, symBinAddr: 0x46784, symSize: 0x94 }
  - { offset: 0x910A0, size: 0x8, addend: 0x0, symName: __RNvXsA_NtCs6IAuOt8vWmF_3syn10punctuatedINtB5_11PrivateIterNtNtB7_8generics14TypeParamBoundNtNtB7_5token4PlusEINtB5_9IterTraitBU_E9clone_boxB7_, symObjAddr: 0x10D1C, symBinAddr: 0x46818, symSize: 0x94 }
  - { offset: 0x91104, size: 0x8, addend: 0x0, symName: __RNvXsC_NtCs6IAuOt8vWmF_3syn10punctuatedINtB5_7IterMutNtNtB7_8generics12GenericParamENtNtNtNtCsfvfooZQ3Axs_4core4iter6traits8iterator8Iterator4nextB7_, symObjAddr: 0x10E18, symBinAddr: 0x468AC, symSize: 0x48 }
  - { offset: 0x91141, size: 0x8, addend: 0x0, symName: __RNvXsD_NtCs6IAuOt8vWmF_3syn10punctuatedINtB5_7IterMutNtNtB7_4path11PathSegmentENtNtNtNtCsfvfooZQ3Axs_4core4iter6traits12double_ended19DoubleEndedIterator9next_backB7_, symObjAddr: 0x10E60, symBinAddr: 0x468F4, symSize: 0x48 }
  - { offset: 0x9117E, size: 0x8, addend: 0x0, symName: __RNvXsF_NtCs6IAuOt8vWmF_3syn10punctuatedINtB5_14PrivateIterMutNtNtB7_4path11PathSegmentNtNtB7_5token7PathSepENtNtNtNtCsfvfooZQ3Axs_4core4iter6traits8iterator8Iterator4nextB7_, symObjAddr: 0x10EEC, symBinAddr: 0x4693C, symSize: 0x44 }
  - { offset: 0x911BE, size: 0x8, addend: 0x0, symName: __RNvXsF_NtCs6IAuOt8vWmF_3syn10punctuatedINtB5_14PrivateIterMutNtNtB7_8generics12GenericParamNtNtB7_5token5CommaENtNtNtNtCsfvfooZQ3Axs_4core4iter6traits8iterator8Iterator4nextB7_, symObjAddr: 0x10F30, symBinAddr: 0x46980, symSize: 0x44 }
  - { offset: 0x91203, size: 0x8, addend: 0x0, symName: __RNCNvXsF_NtCs6IAuOt8vWmF_3syn10punctuatedINtB7_14PrivateIterMutNtNtB9_4path11PathSegmentNtNtB9_5token7PathSepENtNtNtNtCsfvfooZQ3Axs_4core4iter6traits8iterator8Iterator4next0B9_, symObjAddr: 0x10F98, symBinAddr: 0x469C4, symSize: 0x24 }
  - { offset: 0x9124E, size: 0x8, addend: 0x0, symName: __RNCNvXsF_NtCs6IAuOt8vWmF_3syn10punctuatedINtB7_14PrivateIterMutNtNtB9_8generics12GenericParamNtNtB9_5token5CommaENtNtNtNtCsfvfooZQ3Axs_4core4iter6traits8iterator8Iterator4next0B9_, symObjAddr: 0x10FBC, symBinAddr: 0x469E8, symSize: 0x24 }
  - { offset: 0x91299, size: 0x8, addend: 0x0, symName: __RNCNvXsF_NtCs6IAuOt8vWmF_3syn10punctuatedINtB7_14PrivateIterMutNtNtB9_4path11PathSegmentNtNtB9_5token7PathSepENtNtNtNtCsfvfooZQ3Axs_4core4iter6traits8iterator8Iterator4nexts_0B9_, symObjAddr: 0x11014, symBinAddr: 0x46A0C, symSize: 0x34 }
  - { offset: 0x912DB, size: 0x8, addend: 0x0, symName: __RNCNvXsF_NtCs6IAuOt8vWmF_3syn10punctuatedINtB7_14PrivateIterMutNtNtB9_8generics12GenericParamNtNtB9_5token5CommaENtNtNtNtCsfvfooZQ3Axs_4core4iter6traits8iterator8Iterator4nexts_0B9_, symObjAddr: 0x11048, symBinAddr: 0x46A40, symSize: 0x34 }
  - { offset: 0x91332, size: 0x8, addend: 0x0, symName: __RNvXsG_NtCs6IAuOt8vWmF_3syn10punctuatedINtB5_14PrivateIterMutNtNtB7_4path11PathSegmentNtNtB7_5token7PathSepENtNtNtNtCsfvfooZQ3Axs_4core4iter6traits12double_ended19DoubleEndedIterator9next_backB7_, symObjAddr: 0x110BC, symBinAddr: 0x46A74, symSize: 0x40 }
  - { offset: 0x91372, size: 0x8, addend: 0x0, symName: __RNvXsG_NtCs6IAuOt8vWmF_3syn10punctuatedINtB5_14PrivateIterMutNtNtB7_8generics12GenericParamNtNtB7_5token5CommaENtNtNtNtCsfvfooZQ3Axs_4core4iter6traits12double_ended19DoubleEndedIterator9next_backB7_, symObjAddr: 0x110FC, symBinAddr: 0x46AB4, symSize: 0x40 }
  - { offset: 0x913B7, size: 0x8, addend: 0x0, symName: __RNCNvXsG_NtCs6IAuOt8vWmF_3syn10punctuatedINtB7_14PrivateIterMutNtNtB9_4path11PathSegmentNtNtB9_5token7PathSepENtNtNtNtCsfvfooZQ3Axs_4core4iter6traits12double_ended19DoubleEndedIterator9next_back0B9_, symObjAddr: 0x11174, symBinAddr: 0x46AF4, symSize: 0x38 }
  - { offset: 0x913F9, size: 0x8, addend: 0x0, symName: __RNCNvXsG_NtCs6IAuOt8vWmF_3syn10punctuatedINtB7_14PrivateIterMutNtNtB9_8generics12GenericParamNtNtB9_5token5CommaENtNtNtNtCsfvfooZQ3Axs_4core4iter6traits12double_ended19DoubleEndedIterator9next_back0B9_, symObjAddr: 0x111AC, symBinAddr: 0x46B2C, symSize: 0x38 }
  - { offset: 0x91440, size: 0x8, addend: 0x0, symName: __RNCNCNvXsG_NtCs6IAuOt8vWmF_3syn10punctuatedINtB9_14PrivateIterMutNtNtBb_4path11PathSegmentNtNtBb_5token7PathSepENtNtNtNtCsfvfooZQ3Axs_4core4iter6traits12double_ended19DoubleEndedIterator9next_back00Bb_, symObjAddr: 0x11208, symBinAddr: 0x46B64, symSize: 0x24 }
  - { offset: 0x9148B, size: 0x8, addend: 0x0, symName: __RNCNCNvXsG_NtCs6IAuOt8vWmF_3syn10punctuatedINtB9_14PrivateIterMutNtNtBb_8generics12GenericParamNtNtBb_5token5CommaENtNtNtNtCsfvfooZQ3Axs_4core4iter6traits12double_ended19DoubleEndedIterator9next_back00Bb_, symObjAddr: 0x1122C, symBinAddr: 0x46B88, symSize: 0x24 }
  - { offset: 0x914EC, size: 0x8, addend: 0x0, symName: __RNvXsH_NtCs6IAuOt8vWmF_3syn10punctuatedINtB5_14PrivateIterMutNtNtB7_4path11PathSegmentNtNtB7_5token7PathSepENtNtNtNtCsfvfooZQ3Axs_4core4iter6traits10exact_size17ExactSizeIterator3lenB7_, symObjAddr: 0x112E4, symBinAddr: 0x46BAC, symSize: 0x94 }
  - { offset: 0x91560, size: 0x8, addend: 0x0, symName: __RNvXsH_NtCs6IAuOt8vWmF_3syn10punctuatedINtB5_14PrivateIterMutNtNtB7_8generics12GenericParamNtNtB7_5token5CommaENtNtNtNtCsfvfooZQ3Axs_4core4iter6traits10exact_size17ExactSizeIterator3lenB7_, symObjAddr: 0x11378, symBinAddr: 0x46C40, symSize: 0x94 }
  - { offset: 0x915DF, size: 0x8, addend: 0x0, symName: __RNcNtINtNtCs6IAuOt8vWmF_3syn10punctuated4PairNtNtB8_4path11PathSegmentNtNtB8_5token7PathSepE3End0B8_, symObjAddr: 0x1140C, symBinAddr: 0x46CD4, symSize: 0x40 }
  - { offset: 0x9161C, size: 0x8, addend: 0x0, symName: __RNcNtINtNtCs6IAuOt8vWmF_3syn10punctuated4PairRNtNtB8_2ty4TypeRNtNtB8_5token5CommaE3End0B8_, symObjAddr: 0x1144C, symBinAddr: 0x46D14, symSize: 0x1C }
  - { offset: 0x91658, size: 0x8, addend: 0x0, symName: __RNcNtINtNtCs6IAuOt8vWmF_3syn10punctuated4PairRNtNtB8_2ty9BareFnArgRNtNtB8_5token5CommaE3End0B8_, symObjAddr: 0x11468, symBinAddr: 0x46D30, symSize: 0x1C }
  - { offset: 0x91694, size: 0x8, addend: 0x0, symName: __RNcNtINtNtCs6IAuOt8vWmF_3syn10punctuated4PairRNtNtB8_3pat3PatRNtNtB8_5token2OrE3End0B8_, symObjAddr: 0x11484, symBinAddr: 0x46D4C, symSize: 0x1C }
  - { offset: 0x916D0, size: 0x8, addend: 0x0, symName: __RNcNtINtNtCs6IAuOt8vWmF_3syn10punctuated4PairRNtNtB8_3pat3PatRNtNtB8_5token5CommaE3End0B8_, symObjAddr: 0x114A0, symBinAddr: 0x46D68, symSize: 0x1C }
  - { offset: 0x9170C, size: 0x8, addend: 0x0, symName: __RNcNtINtNtCs6IAuOt8vWmF_3syn10punctuated4PairRNtNtB8_3pat8FieldPatRNtNtB8_5token5CommaE3End0B8_, symObjAddr: 0x114BC, symBinAddr: 0x46D84, symSize: 0x1C }
  - { offset: 0x91748, size: 0x8, addend: 0x0, symName: __RNcNtINtNtCs6IAuOt8vWmF_3syn10punctuated4PairRNtNtB8_4data5FieldRNtNtB8_5token5CommaE3End0B8_, symObjAddr: 0x114D8, symBinAddr: 0x46DA0, symSize: 0x1C }
  - { offset: 0x91784, size: 0x8, addend: 0x0, symName: __RNcNtINtNtCs6IAuOt8vWmF_3syn10punctuated4PairRNtNtB8_4data7VariantRNtNtB8_5token5CommaE3End0B8_, symObjAddr: 0x114F4, symBinAddr: 0x46DBC, symSize: 0x1C }
  - { offset: 0x917C0, size: 0x8, addend: 0x0, symName: __RNcNtINtNtCs6IAuOt8vWmF_3syn10punctuated4PairRNtNtB8_4expr10FieldValueRNtNtB8_5token5CommaE3End0B8_, symObjAddr: 0x11510, symBinAddr: 0x46DD8, symSize: 0x1C }
  - { offset: 0x917FC, size: 0x8, addend: 0x0, symName: __RNcNtINtNtCs6IAuOt8vWmF_3syn10punctuated4PairRNtNtB8_4expr4ExprRNtNtB8_5token5CommaE3End0B8_, symObjAddr: 0x1152C, symBinAddr: 0x46DF4, symSize: 0x1C }
  - { offset: 0x91838, size: 0x8, addend: 0x0, symName: __RNcNtINtNtCs6IAuOt8vWmF_3syn10punctuated4PairRNtNtB8_4item5FnArgRNtNtB8_5token5CommaE3End0B8_, symObjAddr: 0x11548, symBinAddr: 0x46E10, symSize: 0x1C }
  - { offset: 0x91874, size: 0x8, addend: 0x0, symName: __RNcNtINtNtCs6IAuOt8vWmF_3syn10punctuated4PairRNtNtB8_4item7UseTreeRNtNtB8_5token5CommaE3End0B8_, symObjAddr: 0x11564, symBinAddr: 0x46E2C, symSize: 0x1C }
  - { offset: 0x918B0, size: 0x8, addend: 0x0, symName: __RNcNtINtNtCs6IAuOt8vWmF_3syn10punctuated4PairRNtNtB8_4path11PathSegmentRNtNtB8_5token7PathSepE3End0B8_, symObjAddr: 0x11580, symBinAddr: 0x46E48, symSize: 0x1C }
  - { offset: 0x918EC, size: 0x8, addend: 0x0, symName: __RNcNtINtNtCs6IAuOt8vWmF_3syn10punctuated4PairRNtNtB8_4path15GenericArgumentRNtNtB8_5token5CommaE3End0B8_, symObjAddr: 0x1159C, symBinAddr: 0x46E64, symSize: 0x1C }
  - { offset: 0x91928, size: 0x8, addend: 0x0, symName: __RNcNtINtNtCs6IAuOt8vWmF_3syn10punctuated4PairRNtNtB8_8generics12GenericParamRNtNtB8_5token5CommaE3End0B8_, symObjAddr: 0x115B8, symBinAddr: 0x46E80, symSize: 0x1C }
  - { offset: 0x91964, size: 0x8, addend: 0x0, symName: __RNcNtINtNtCs6IAuOt8vWmF_3syn10punctuated4PairRNtNtB8_8generics13CapturedParamRNtNtB8_5token5CommaE3End0B8_, symObjAddr: 0x115D4, symBinAddr: 0x46E9C, symSize: 0x1C }
  - { offset: 0x919A0, size: 0x8, addend: 0x0, symName: __RNcNtINtNtCs6IAuOt8vWmF_3syn10punctuated4PairRNtNtB8_8generics14TypeParamBoundRNtNtB8_5token4PlusE3End0B8_, symObjAddr: 0x115F0, symBinAddr: 0x46EB8, symSize: 0x1C }
  - { offset: 0x919DC, size: 0x8, addend: 0x0, symName: __RNcNtINtNtCs6IAuOt8vWmF_3syn10punctuated4PairRNtNtB8_8generics14WherePredicateRNtNtB8_5token5CommaE3End0B8_, symObjAddr: 0x1160C, symBinAddr: 0x46ED4, symSize: 0x1C }
  - { offset: 0x91A18, size: 0x8, addend: 0x0, symName: __RNcNtINtNtCs6IAuOt8vWmF_3syn10punctuated4PairRNtNtB8_8lifetime8LifetimeRNtNtB8_5token4PlusE3End0B8_, symObjAddr: 0x11628, symBinAddr: 0x46EF0, symSize: 0x1C }
  - { offset: 0x91DC7, size: 0x8, addend: 0x0, symName: __RNvXsN_NtCs6IAuOt8vWmF_3syn10punctuatedINtB5_10PunctuatedNtNtB7_3pat3PatNtNtB7_5token5CommaEINtNtNtCsfvfooZQ3Axs_4core3ops5index5IndexjE5indexB7_, symObjAddr: 0x11AC8, symBinAddr: 0x47390, symSize: 0x134 }
  - { offset: 0x91E2C, size: 0x8, addend: 0x0, symName: __RNvXsN_NtCs6IAuOt8vWmF_3syn10punctuatedINtB5_10PunctuatedNtNtB7_4path11PathSegmentNtNtB7_5token7PathSepEINtNtNtCsfvfooZQ3Axs_4core3ops5index5IndexjE5indexB7_, symObjAddr: 0x11BFC, symBinAddr: 0x474C4, symSize: 0x134 }
  - { offset: 0x91E9C, size: 0x8, addend: 0x0, symName: __RNvXNtNtCs6IAuOt8vWmF_3syn10punctuated8printingINtB4_10PunctuatedNtNtB6_2ty4TypeNtNtB6_5token5CommaENtNtCs2cqEZUIJimJ_5quote9to_tokens8ToTokens9to_tokensB6_, symObjAddr: 0x11D30, symBinAddr: 0x475F8, symSize: 0x50 }
  - { offset: 0x91EE7, size: 0x8, addend: 0x0, symName: __RNvXNtNtCs6IAuOt8vWmF_3syn10punctuated8printingINtB4_10PunctuatedNtNtB6_2ty9BareFnArgNtNtB6_5token5CommaENtNtCs2cqEZUIJimJ_5quote9to_tokens8ToTokens9to_tokensB6_, symObjAddr: 0x11D80, symBinAddr: 0x47648, symSize: 0x50 }
  - { offset: 0x91F32, size: 0x8, addend: 0x0, symName: __RNvXNtNtCs6IAuOt8vWmF_3syn10punctuated8printingINtB4_10PunctuatedNtNtB6_3pat3PatNtNtB6_5token2OrENtNtCs2cqEZUIJimJ_5quote9to_tokens8ToTokens9to_tokensB6_, symObjAddr: 0x11DD0, symBinAddr: 0x47698, symSize: 0x50 }
  - { offset: 0x91F7D, size: 0x8, addend: 0x0, symName: __RNvXNtNtCs6IAuOt8vWmF_3syn10punctuated8printingINtB4_10PunctuatedNtNtB6_3pat3PatNtNtB6_5token5CommaENtNtCs2cqEZUIJimJ_5quote9to_tokens8ToTokens9to_tokensB6_, symObjAddr: 0x11E20, symBinAddr: 0x476E8, symSize: 0x50 }
  - { offset: 0x91FC8, size: 0x8, addend: 0x0, symName: __RNvXNtNtCs6IAuOt8vWmF_3syn10punctuated8printingINtB4_10PunctuatedNtNtB6_3pat8FieldPatNtNtB6_5token5CommaENtNtCs2cqEZUIJimJ_5quote9to_tokens8ToTokens9to_tokensB6_, symObjAddr: 0x11E70, symBinAddr: 0x47738, symSize: 0x50 }
  - { offset: 0x92013, size: 0x8, addend: 0x0, symName: __RNvXNtNtCs6IAuOt8vWmF_3syn10punctuated8printingINtB4_10PunctuatedNtNtB6_4data5FieldNtNtB6_5token5CommaENtNtCs2cqEZUIJimJ_5quote9to_tokens8ToTokens9to_tokensB6_, symObjAddr: 0x11EC0, symBinAddr: 0x47788, symSize: 0x50 }
  - { offset: 0x9205E, size: 0x8, addend: 0x0, symName: __RNvXNtNtCs6IAuOt8vWmF_3syn10punctuated8printingINtB4_10PunctuatedNtNtB6_4data7VariantNtNtB6_5token5CommaENtNtCs2cqEZUIJimJ_5quote9to_tokens8ToTokens9to_tokensB6_, symObjAddr: 0x11F10, symBinAddr: 0x477D8, symSize: 0x50 }
  - { offset: 0x920A9, size: 0x8, addend: 0x0, symName: __RNvXNtNtCs6IAuOt8vWmF_3syn10punctuated8printingINtB4_10PunctuatedNtNtB6_4expr10FieldValueNtNtB6_5token5CommaENtNtCs2cqEZUIJimJ_5quote9to_tokens8ToTokens9to_tokensB6_, symObjAddr: 0x11F60, symBinAddr: 0x47828, symSize: 0x50 }
  - { offset: 0x920F4, size: 0x8, addend: 0x0, symName: __RNvXNtNtCs6IAuOt8vWmF_3syn10punctuated8printingINtB4_10PunctuatedNtNtB6_4expr4ExprNtNtB6_5token5CommaENtNtCs2cqEZUIJimJ_5quote9to_tokens8ToTokens9to_tokensB6_, symObjAddr: 0x11FB0, symBinAddr: 0x47878, symSize: 0x50 }
  - { offset: 0x9213F, size: 0x8, addend: 0x0, symName: __RNvXNtNtCs6IAuOt8vWmF_3syn10punctuated8printingINtB4_10PunctuatedNtNtB6_4item5FnArgNtNtB6_5token5CommaENtNtCs2cqEZUIJimJ_5quote9to_tokens8ToTokens9to_tokensB6_, symObjAddr: 0x12000, symBinAddr: 0x478C8, symSize: 0x50 }
  - { offset: 0x9218A, size: 0x8, addend: 0x0, symName: __RNvXNtNtCs6IAuOt8vWmF_3syn10punctuated8printingINtB4_10PunctuatedNtNtB6_4item7UseTreeNtNtB6_5token5CommaENtNtCs2cqEZUIJimJ_5quote9to_tokens8ToTokens9to_tokensB6_, symObjAddr: 0x12050, symBinAddr: 0x47918, symSize: 0x50 }
  - { offset: 0x921D5, size: 0x8, addend: 0x0, symName: __RNvXNtNtCs6IAuOt8vWmF_3syn10punctuated8printingINtB4_10PunctuatedNtNtB6_8generics12GenericParamNtNtB6_5token5CommaENtNtCs2cqEZUIJimJ_5quote9to_tokens8ToTokens9to_tokensB6_, symObjAddr: 0x120A0, symBinAddr: 0x47968, symSize: 0x50 }
  - { offset: 0x92220, size: 0x8, addend: 0x0, symName: __RNvXNtNtCs6IAuOt8vWmF_3syn10punctuated8printingINtB4_10PunctuatedNtNtB6_8generics14TypeParamBoundNtNtB6_5token4PlusENtNtCs2cqEZUIJimJ_5quote9to_tokens8ToTokens9to_tokensB6_, symObjAddr: 0x120F0, symBinAddr: 0x479B8, symSize: 0x50 }
  - { offset: 0x9226B, size: 0x8, addend: 0x0, symName: __RNvXNtNtCs6IAuOt8vWmF_3syn10punctuated8printingINtB4_10PunctuatedNtNtB6_8generics14WherePredicateNtNtB6_5token5CommaENtNtCs2cqEZUIJimJ_5quote9to_tokens8ToTokens9to_tokensB6_, symObjAddr: 0x12140, symBinAddr: 0x47A08, symSize: 0x50 }
  - { offset: 0x922B6, size: 0x8, addend: 0x0, symName: __RNvXNtNtCs6IAuOt8vWmF_3syn10punctuated8printingINtB4_10PunctuatedNtNtB6_8lifetime8LifetimeNtNtB6_5token4PlusENtNtCs2cqEZUIJimJ_5quote9to_tokens8ToTokens9to_tokensB6_, symObjAddr: 0x12190, symBinAddr: 0x47A58, symSize: 0x50 }
  - { offset: 0x92307, size: 0x8, addend: 0x0, symName: __RNvXs_NtNtCs6IAuOt8vWmF_3syn10punctuated8printingINtB6_4PairRNtNtB8_2ty4TypeRNtNtB8_5token5CommaENtNtCs2cqEZUIJimJ_5quote9to_tokens8ToTokens9to_tokensB8_, symObjAddr: 0x121E0, symBinAddr: 0x47AA8, symSize: 0xB4 }
  - { offset: 0x92396, size: 0x8, addend: 0x0, symName: __RNvXs_NtNtCs6IAuOt8vWmF_3syn10punctuated8printingINtB6_4PairRNtNtB8_2ty9BareFnArgRNtNtB8_5token5CommaENtNtCs2cqEZUIJimJ_5quote9to_tokens8ToTokens9to_tokensB8_, symObjAddr: 0x12294, symBinAddr: 0x47B5C, symSize: 0xB4 }
  - { offset: 0x92425, size: 0x8, addend: 0x0, symName: __RNvXs_NtNtCs6IAuOt8vWmF_3syn10punctuated8printingINtB6_4PairRNtNtB8_3pat3PatRNtNtB8_5token2OrENtNtCs2cqEZUIJimJ_5quote9to_tokens8ToTokens9to_tokensB8_, symObjAddr: 0x12348, symBinAddr: 0x47C10, symSize: 0xB4 }
  - { offset: 0x924B4, size: 0x8, addend: 0x0, symName: __RNvXs_NtNtCs6IAuOt8vWmF_3syn10punctuated8printingINtB6_4PairRNtNtB8_3pat3PatRNtNtB8_5token5CommaENtNtCs2cqEZUIJimJ_5quote9to_tokens8ToTokens9to_tokensB8_, symObjAddr: 0x123FC, symBinAddr: 0x47CC4, symSize: 0xB4 }
  - { offset: 0x92543, size: 0x8, addend: 0x0, symName: __RNvXs_NtNtCs6IAuOt8vWmF_3syn10punctuated8printingINtB6_4PairRNtNtB8_3pat8FieldPatRNtNtB8_5token5CommaENtNtCs2cqEZUIJimJ_5quote9to_tokens8ToTokens9to_tokensB8_, symObjAddr: 0x124B0, symBinAddr: 0x47D78, symSize: 0xB4 }
  - { offset: 0x925D2, size: 0x8, addend: 0x0, symName: __RNvXs_NtNtCs6IAuOt8vWmF_3syn10punctuated8printingINtB6_4PairRNtNtB8_4data5FieldRNtNtB8_5token5CommaENtNtCs2cqEZUIJimJ_5quote9to_tokens8ToTokens9to_tokensB8_, symObjAddr: 0x12564, symBinAddr: 0x47E2C, symSize: 0xB4 }
  - { offset: 0x92661, size: 0x8, addend: 0x0, symName: __RNvXs_NtNtCs6IAuOt8vWmF_3syn10punctuated8printingINtB6_4PairRNtNtB8_4data7VariantRNtNtB8_5token5CommaENtNtCs2cqEZUIJimJ_5quote9to_tokens8ToTokens9to_tokensB8_, symObjAddr: 0x12618, symBinAddr: 0x47EE0, symSize: 0xB4 }
  - { offset: 0x926F0, size: 0x8, addend: 0x0, symName: __RNvXs_NtNtCs6IAuOt8vWmF_3syn10punctuated8printingINtB6_4PairRNtNtB8_4expr10FieldValueRNtNtB8_5token5CommaENtNtCs2cqEZUIJimJ_5quote9to_tokens8ToTokens9to_tokensB8_, symObjAddr: 0x126CC, symBinAddr: 0x47F94, symSize: 0xB4 }
  - { offset: 0x9277F, size: 0x8, addend: 0x0, symName: __RNvXs_NtNtCs6IAuOt8vWmF_3syn10punctuated8printingINtB6_4PairRNtNtB8_4expr4ExprRNtNtB8_5token5CommaENtNtCs2cqEZUIJimJ_5quote9to_tokens8ToTokens9to_tokensB8_, symObjAddr: 0x12780, symBinAddr: 0x48048, symSize: 0xB4 }
  - { offset: 0x9280E, size: 0x8, addend: 0x0, symName: __RNvXs_NtNtCs6IAuOt8vWmF_3syn10punctuated8printingINtB6_4PairRNtNtB8_4item5FnArgRNtNtB8_5token5CommaENtNtCs2cqEZUIJimJ_5quote9to_tokens8ToTokens9to_tokensB8_, symObjAddr: 0x12834, symBinAddr: 0x480FC, symSize: 0xB4 }
  - { offset: 0x9289D, size: 0x8, addend: 0x0, symName: __RNvXs_NtNtCs6IAuOt8vWmF_3syn10punctuated8printingINtB6_4PairRNtNtB8_4item7UseTreeRNtNtB8_5token5CommaENtNtCs2cqEZUIJimJ_5quote9to_tokens8ToTokens9to_tokensB8_, symObjAddr: 0x128E8, symBinAddr: 0x481B0, symSize: 0xB4 }
  - { offset: 0x9292C, size: 0x8, addend: 0x0, symName: __RNvXs_NtNtCs6IAuOt8vWmF_3syn10punctuated8printingINtB6_4PairRNtNtB8_4path15GenericArgumentRNtNtB8_5token5CommaENtNtCs2cqEZUIJimJ_5quote9to_tokens8ToTokens9to_tokensB8_, symObjAddr: 0x1299C, symBinAddr: 0x48264, symSize: 0xB4 }
  - { offset: 0x929BB, size: 0x8, addend: 0x0, symName: __RNvXs_NtNtCs6IAuOt8vWmF_3syn10punctuated8printingINtB6_4PairRNtNtB8_8generics12GenericParamRNtNtB8_5token5CommaENtNtCs2cqEZUIJimJ_5quote9to_tokens8ToTokens9to_tokensB8_, symObjAddr: 0x12A50, symBinAddr: 0x48318, symSize: 0xB4 }
  - { offset: 0x92A4A, size: 0x8, addend: 0x0, symName: __RNvXs_NtNtCs6IAuOt8vWmF_3syn10punctuated8printingINtB6_4PairRNtNtB8_8generics13CapturedParamRNtNtB8_5token5CommaENtNtCs2cqEZUIJimJ_5quote9to_tokens8ToTokens9to_tokensB8_, symObjAddr: 0x12B04, symBinAddr: 0x483CC, symSize: 0xB4 }
  - { offset: 0x92AD9, size: 0x8, addend: 0x0, symName: __RNvXs_NtNtCs6IAuOt8vWmF_3syn10punctuated8printingINtB6_4PairRNtNtB8_8generics14TypeParamBoundRNtNtB8_5token4PlusENtNtCs2cqEZUIJimJ_5quote9to_tokens8ToTokens9to_tokensB8_, symObjAddr: 0x12BB8, symBinAddr: 0x48480, symSize: 0xB4 }
  - { offset: 0x92B68, size: 0x8, addend: 0x0, symName: __RNvXs_NtNtCs6IAuOt8vWmF_3syn10punctuated8printingINtB6_4PairRNtNtB8_8generics14WherePredicateRNtNtB8_5token5CommaENtNtCs2cqEZUIJimJ_5quote9to_tokens8ToTokens9to_tokensB8_, symObjAddr: 0x12C6C, symBinAddr: 0x48534, symSize: 0xB4 }
  - { offset: 0x92BF7, size: 0x8, addend: 0x0, symName: __RNvXs_NtNtCs6IAuOt8vWmF_3syn10punctuated8printingINtB6_4PairRNtNtB8_8lifetime8LifetimeRNtNtB8_5token4PlusENtNtCs2cqEZUIJimJ_5quote9to_tokens8ToTokens9to_tokensB8_, symObjAddr: 0x12D20, symBinAddr: 0x485E8, symSize: 0xB4 }
  - { offset: 0x93E34, size: 0x8, addend: 0x0, symName: __RNvXsq_NtCs6IAuOt8vWmF_3syn5tokenNtNtB7_8lifetime8LifetimeNtB5_5Token4peek, symObjAddr: 0x13338, symBinAddr: 0x486D4, symSize: 0x88 }
  - { offset: 0x93E60, size: 0x8, addend: 0x0, symName: __RNvXsq_NtCs6IAuOt8vWmF_3syn5tokenNtNtB7_8lifetime8LifetimeNtB5_5Token7display, symObjAddr: 0x133C0, symBinAddr: 0x4875C, symSize: 0x24 }
  - { offset: 0x94238, size: 0x8, addend: 0x0, symName: __RNvXs0_NtCs6IAuOt8vWmF_3syn8lifetimeNtB5_8LifetimeNtNtCsfvfooZQ3Axs_4core5clone5Clone5clone, symObjAddr: 0x3030, symBinAddr: 0x3C434, symSize: 0x60 }
  - { offset: 0x9426F, size: 0x8, addend: 0x0, symName: __RNvXNtNtCs6IAuOt8vWmF_3syn8lifetime7parsingNtB4_8LifetimeNtNtB6_5parse5Parse5parse, symObjAddr: 0x314C, symBinAddr: 0x3C494, symSize: 0x34 }
  - { offset: 0x942A7, size: 0x8, addend: 0x0, symName: __RNvXNtNtCs6IAuOt8vWmF_3syn8lifetime8printingNtB4_8LifetimeNtNtCs2cqEZUIJimJ_5quote9to_tokens8ToTokens9to_tokens, symObjAddr: 0x3180, symBinAddr: 0x3C4C8, symSize: 0x90 }
  - { offset: 0x98239, size: 0x8, addend: 0x0, symName: __RINvCs6IAuOt8vWmF_3syn9parse_strNtNtB2_4expr5IndexEB2_, symObjAddr: 0x12DD4, symBinAddr: 0x4869C, symSize: 0x38 }
  - { offset: 0x98D22, size: 0x8, addend: 0x0, symName: __RNvYINtNtCse1nGBsou5OW_5alloc2rc7RcInnerINtNtCsfvfooZQ3Axs_4core4cell4CellNtNtCs6IAuOt8vWmF_3syn5parse10UnexpectedEENtB5_10RcInnerPtr10inc_strongB1e_, symObjAddr: 0x2C3C, symBinAddr: 0x3C360, symSize: 0x94 }
  - { offset: 0x98E5A, size: 0x8, addend: 0x0, symName: __RNvYINtNtCse1nGBsou5OW_5alloc2rc7RcInnerINtNtCsfvfooZQ3Axs_4core4cell4CellNtNtCs6IAuOt8vWmF_3syn5parse10UnexpectedEENtB5_10RcInnerPtr6strongB1e_, symObjAddr: 0x2CD0, symBinAddr: 0x3C3F4, symSize: 0x28 }
  - { offset: 0x98EB5, size: 0x8, addend: 0x0, symName: __RNvXs17_NtCse1nGBsou5OW_5alloc2rcINtB6_4WeakINtNtCsfvfooZQ3Axs_4core4cell4CellNtNtCs6IAuOt8vWmF_3syn5parse10UnexpectedERNtNtB8_5alloc6GlobalENtNtNtBL_3ops4drop4Drop4dropB1i_, symObjAddr: 0x924, symBinAddr: 0x3AE44, symSize: 0x148 }
  - { offset: 0x9912A, size: 0x8, addend: 0x0, symName: __RNvXsu_NtCse1nGBsou5OW_5alloc2rcINtB5_2RcINtNtCsfvfooZQ3Axs_4core4cell4CellNtNtCs6IAuOt8vWmF_3syn5parse10UnexpectedEENtNtNtBI_3ops4drop4Drop4dropB1f_, symObjAddr: 0xDB0, symBinAddr: 0x3B00C, symSize: 0x88 }
  - { offset: 0x9930D, size: 0x8, addend: 0x0, symName: __RNvXsv_NtCse1nGBsou5OW_5alloc2rcINtB5_2RcINtNtCsfvfooZQ3Axs_4core4cell4CellNtNtCs6IAuOt8vWmF_3syn5parse10UnexpectedEENtNtBI_5clone5Clone5cloneB1f_, symObjAddr: 0xE38, symBinAddr: 0x3B094, symSize: 0x48 }
  - { offset: 0x99AE5, size: 0x8, addend: 0x0, symName: __RINvXNtNtCse1nGBsou5OW_5alloc5slice4hackTNtNtCs6IAuOt8vWmF_3syn8lifetime8LifetimeNtNtBH_5token4PlusENtB3_10ConvertVec6to_vecNtNtB7_5alloc6GlobalEBH_, symObjAddr: 0x0, symBinAddr: 0x3A520, symSize: 0x368 }
  - { offset: 0x9FA9E, size: 0x8, addend: 0x0, symName: __RNvMNtCsfvfooZQ3Axs_4core5sliceSTNtNtCs6IAuOt8vWmF_3syn8lifetime8LifetimeNtNtBz_5token4PlusE4iterBz_, symObjAddr: 0x4D8, symBinAddr: 0x3A9F8, symSize: 0x28 }
  - { offset: 0x9FC41, size: 0x8, addend: 0x0, symName: __RINvYINtNtCs6IAuOt8vWmF_3syn10punctuated4IterNtNtB8_4path11PathSegmentENtNtNtNtCsfvfooZQ3Axs_4core4iter6traits8iterator8Iterator3allNCNvMs5_NtBJ_7parsingNtBJ_4Path12is_mod_style0EB8_, symObjAddr: 0x368, symBinAddr: 0x3A888, symSize: 0x3C }
  - { offset: 0x9FC90, size: 0x8, addend: 0x0, symName: __RINvYINtNtCs6IAuOt8vWmF_3syn10punctuated4IterNtNtB8_4path11PathSegmentENtNtNtNtCsfvfooZQ3Axs_4core4iter6traits8iterator8Iterator8try_folduNCINvNvB17_3all5checkRBH_NCNvMs5_NtBJ_7parsingNtBJ_4Path12is_mod_style0E0INtNtNtB1f_3ops12control_flow11ControlFlowuEEB8_, symObjAddr: 0x3A4, symBinAddr: 0x3A8C4, symSize: 0x134 }
  - { offset: 0x9FD4A, size: 0x8, addend: 0x0, symName: __RNvYINtNtCs6IAuOt8vWmF_3syn10punctuated11PrivateIterNtNtB7_4data5FieldNtNtB7_5token5CommaENtNtNtNtCsfvfooZQ3Axs_4core4iter6traits8iterator8Iterator10advance_byB7_, symObjAddr: 0x1048, symBinAddr: 0x3B2A4, symSize: 0x134 }
  - { offset: 0x9FEA0, size: 0x8, addend: 0x0, symName: __RNvYINtNtCs6IAuOt8vWmF_3syn10punctuated11PrivateIterNtNtB7_4data5FieldNtNtB7_5token5CommaENtNtNtNtCsfvfooZQ3Axs_4core4iter6traits8iterator8Iterator3nthB7_, symObjAddr: 0x117C, symBinAddr: 0x3B3D8, symSize: 0x80 }
  - { offset: 0x9FF6C, size: 0x8, addend: 0x0, symName: __RNvYINtNtCs6IAuOt8vWmF_3syn10punctuated11PrivateIterNtNtB7_4data5FieldNtNtB7_5token5CommaENtNtNtNtCsfvfooZQ3Axs_4core4iter6traits8iterator8Iterator9size_hintB7_, symObjAddr: 0x11FC, symBinAddr: 0x3B458, symSize: 0x34 }
  - { offset: 0x9FFA1, size: 0x8, addend: 0x0, symName: __RNvYINtNtCs6IAuOt8vWmF_3syn10punctuated11PrivateIterNtNtB7_4path11PathSegmentNtNtB7_5token7PathSepENtNtNtNtCsfvfooZQ3Axs_4core4iter6traits8iterator8Iterator10advance_byB7_, symObjAddr: 0x17A8, symBinAddr: 0x3B654, symSize: 0x134 }
  - { offset: 0xA00F7, size: 0x8, addend: 0x0, symName: __RNvYINtNtCs6IAuOt8vWmF_3syn10punctuated11PrivateIterNtNtB7_4path11PathSegmentNtNtB7_5token7PathSepENtNtNtNtCsfvfooZQ3Axs_4core4iter6traits8iterator8Iterator3nthB7_, symObjAddr: 0x18DC, symBinAddr: 0x3B788, symSize: 0x80 }
  - { offset: 0xA01C3, size: 0x8, addend: 0x0, symName: __RNvYINtNtCs6IAuOt8vWmF_3syn10punctuated11PrivateIterNtNtB7_4path11PathSegmentNtNtB7_5token7PathSepENtNtNtNtCsfvfooZQ3Axs_4core4iter6traits8iterator8Iterator9size_hintB7_, symObjAddr: 0x195C, symBinAddr: 0x3B808, symSize: 0x34 }
  - { offset: 0xA01F8, size: 0x8, addend: 0x0, symName: __RNvYINtNtCs6IAuOt8vWmF_3syn10punctuated11PrivateIterNtNtB7_8generics14TypeParamBoundNtNtB7_5token4PlusENtNtNtNtCsfvfooZQ3Axs_4core4iter6traits8iterator8Iterator10advance_byB7_, symObjAddr: 0x1F08, symBinAddr: 0x3BA04, symSize: 0x134 }
  - { offset: 0xA034E, size: 0x8, addend: 0x0, symName: __RNvYINtNtCs6IAuOt8vWmF_3syn10punctuated11PrivateIterNtNtB7_8generics14TypeParamBoundNtNtB7_5token4PlusENtNtNtNtCsfvfooZQ3Axs_4core4iter6traits8iterator8Iterator3nthB7_, symObjAddr: 0x203C, symBinAddr: 0x3BB38, symSize: 0x80 }
  - { offset: 0xA041A, size: 0x8, addend: 0x0, symName: __RNvYINtNtCs6IAuOt8vWmF_3syn10punctuated11PrivateIterNtNtB7_8generics14TypeParamBoundNtNtB7_5token4PlusENtNtNtNtCsfvfooZQ3Axs_4core4iter6traits8iterator8Iterator9size_hintB7_, symObjAddr: 0x20BC, symBinAddr: 0x3BBB8, symSize: 0x34 }
  - { offset: 0xA044F, size: 0x8, addend: 0x0, symName: __RNvYINtNtCs6IAuOt8vWmF_3syn10punctuated14PrivateIterMutNtNtB7_4path11PathSegmentNtNtB7_5token7PathSepENtNtNtNtCsfvfooZQ3Axs_4core4iter6traits8iterator8Iterator10advance_byB7_, symObjAddr: 0x2668, symBinAddr: 0x3BDB4, symSize: 0x134 }
  - { offset: 0xA05A5, size: 0x8, addend: 0x0, symName: __RNvYINtNtCs6IAuOt8vWmF_3syn10punctuated14PrivateIterMutNtNtB7_4path11PathSegmentNtNtB7_5token7PathSepENtNtNtNtCsfvfooZQ3Axs_4core4iter6traits8iterator8Iterator3nthB7_, symObjAddr: 0x279C, symBinAddr: 0x3BEE8, symSize: 0x80 }
  - { offset: 0xA0671, size: 0x8, addend: 0x0, symName: __RNvYINtNtCs6IAuOt8vWmF_3syn10punctuated14PrivateIterMutNtNtB7_4path11PathSegmentNtNtB7_5token7PathSepENtNtNtNtCsfvfooZQ3Axs_4core4iter6traits8iterator8Iterator9size_hintB7_, symObjAddr: 0x281C, symBinAddr: 0x3BF68, symSize: 0x34 }
  - { offset: 0xA06A6, size: 0x8, addend: 0x0, symName: __RNvYINtNtCs6IAuOt8vWmF_3syn10punctuated14PrivateIterMutNtNtB7_8generics12GenericParamNtNtB7_5token5CommaENtNtNtNtCsfvfooZQ3Axs_4core4iter6traits8iterator8Iterator10advance_byB7_, symObjAddr: 0x2A18, symBinAddr: 0x3C164, symSize: 0x134 }
  - { offset: 0xA07FC, size: 0x8, addend: 0x0, symName: __RNvYINtNtCs6IAuOt8vWmF_3syn10punctuated14PrivateIterMutNtNtB7_8generics12GenericParamNtNtB7_5token5CommaENtNtNtNtCsfvfooZQ3Axs_4core4iter6traits8iterator8Iterator3nthB7_, symObjAddr: 0x2B4C, symBinAddr: 0x3C298, symSize: 0x80 }
  - { offset: 0xA08C8, size: 0x8, addend: 0x0, symName: __RNvYINtNtCs6IAuOt8vWmF_3syn10punctuated14PrivateIterMutNtNtB7_8generics12GenericParamNtNtB7_5token5CommaENtNtNtNtCsfvfooZQ3Axs_4core4iter6traits8iterator8Iterator9size_hintB7_, symObjAddr: 0x2BCC, symBinAddr: 0x3C318, symSize: 0x34 }
  - { offset: 0xA08FD, size: 0x8, addend: 0x0, symName: __RNvYINtNtCs6IAuOt8vWmF_3syn10punctuated5PairsNtNtB7_4path11PathSegmentNtNtB7_5token7PathSepENtNtNtNtCsfvfooZQ3Axs_4core4iter6traits8iterator8Iterator6by_refB7_, symObjAddr: 0x2C28, symBinAddr: 0x3C34C, symSize: 0x14 }
  - { offset: 0xA0934, size: 0x8, addend: 0x0, symName: __RNvYQINtNtCs6IAuOt8vWmF_3syn10punctuated5PairsNtNtB8_4path11PathSegmentNtNtB8_5token7PathSepENtNtNtNtCsfvfooZQ3Axs_4core4iter6traits8iterator8Iterator4takeB8_, symObjAddr: 0x2D28, symBinAddr: 0x3C41C, symSize: 0x18 }
  - { offset: 0xA099F, size: 0x8, addend: 0x0, symName: __RNvXNtNtNtCsfvfooZQ3Axs_4core4iter6traits8iteratorQINtNtCs6IAuOt8vWmF_3syn10punctuated5PairsNtNtBS_4path11PathSegmentNtNtBS_5token7PathSepENtB2_8Iterator4nextBS_, symObjAddr: 0x8FC, symBinAddr: 0x3AE1C, symSize: 0x28 }
  - { offset: 0xA09E2, size: 0x8, addend: 0x0, symName: __RNvXNtNtNtCsfvfooZQ3Axs_4core4iter6traits7collectINtNtCs6IAuOt8vWmF_3syn10punctuated5PairsNtNtBQ_2ty4TypeNtNtBQ_5token5CommaENtB2_12IntoIterator9into_iterBQ_, symObjAddr: 0x71C, symBinAddr: 0x3AC3C, symSize: 0x18 }
  - { offset: 0xA0A19, size: 0x8, addend: 0x0, symName: __RNvXNtNtNtCsfvfooZQ3Axs_4core4iter6traits7collectINtNtCs6IAuOt8vWmF_3syn10punctuated5PairsNtNtBQ_2ty9BareFnArgNtNtBQ_5token5CommaENtB2_12IntoIterator9into_iterBQ_, symObjAddr: 0x734, symBinAddr: 0x3AC54, symSize: 0x18 }
  - { offset: 0xA0A50, size: 0x8, addend: 0x0, symName: __RNvXNtNtNtCsfvfooZQ3Axs_4core4iter6traits7collectINtNtCs6IAuOt8vWmF_3syn10punctuated5PairsNtNtBQ_3pat3PatNtNtBQ_5token2OrENtB2_12IntoIterator9into_iterBQ_, symObjAddr: 0x74C, symBinAddr: 0x3AC6C, symSize: 0x18 }
  - { offset: 0xA0A87, size: 0x8, addend: 0x0, symName: __RNvXNtNtNtCsfvfooZQ3Axs_4core4iter6traits7collectINtNtCs6IAuOt8vWmF_3syn10punctuated5PairsNtNtBQ_3pat3PatNtNtBQ_5token5CommaENtB2_12IntoIterator9into_iterBQ_, symObjAddr: 0x764, symBinAddr: 0x3AC84, symSize: 0x18 }
  - { offset: 0xA0ABE, size: 0x8, addend: 0x0, symName: __RNvXNtNtNtCsfvfooZQ3Axs_4core4iter6traits7collectINtNtCs6IAuOt8vWmF_3syn10punctuated5PairsNtNtBQ_3pat8FieldPatNtNtBQ_5token5CommaENtB2_12IntoIterator9into_iterBQ_, symObjAddr: 0x77C, symBinAddr: 0x3AC9C, symSize: 0x18 }
  - { offset: 0xA0AF5, size: 0x8, addend: 0x0, symName: __RNvXNtNtNtCsfvfooZQ3Axs_4core4iter6traits7collectINtNtCs6IAuOt8vWmF_3syn10punctuated5PairsNtNtBQ_4data5FieldNtNtBQ_5token5CommaENtB2_12IntoIterator9into_iterBQ_, symObjAddr: 0x794, symBinAddr: 0x3ACB4, symSize: 0x18 }
  - { offset: 0xA0B2C, size: 0x8, addend: 0x0, symName: __RNvXNtNtNtCsfvfooZQ3Axs_4core4iter6traits7collectINtNtCs6IAuOt8vWmF_3syn10punctuated5PairsNtNtBQ_4data7VariantNtNtBQ_5token5CommaENtB2_12IntoIterator9into_iterBQ_, symObjAddr: 0x7AC, symBinAddr: 0x3ACCC, symSize: 0x18 }
  - { offset: 0xA0B63, size: 0x8, addend: 0x0, symName: __RNvXNtNtNtCsfvfooZQ3Axs_4core4iter6traits7collectINtNtCs6IAuOt8vWmF_3syn10punctuated5PairsNtNtBQ_4expr10FieldValueNtNtBQ_5token5CommaENtB2_12IntoIterator9into_iterBQ_, symObjAddr: 0x7C4, symBinAddr: 0x3ACE4, symSize: 0x18 }
  - { offset: 0xA0B9A, size: 0x8, addend: 0x0, symName: __RNvXNtNtNtCsfvfooZQ3Axs_4core4iter6traits7collectINtNtCs6IAuOt8vWmF_3syn10punctuated5PairsNtNtBQ_4expr4ExprNtNtBQ_5token5CommaENtB2_12IntoIterator9into_iterBQ_, symObjAddr: 0x7DC, symBinAddr: 0x3ACFC, symSize: 0x18 }
  - { offset: 0xA0BD1, size: 0x8, addend: 0x0, symName: __RNvXNtNtNtCsfvfooZQ3Axs_4core4iter6traits7collectINtNtCs6IAuOt8vWmF_3syn10punctuated5PairsNtNtBQ_4item5FnArgNtNtBQ_5token5CommaENtB2_12IntoIterator9into_iterBQ_, symObjAddr: 0x7F4, symBinAddr: 0x3AD14, symSize: 0x18 }
  - { offset: 0xA0C08, size: 0x8, addend: 0x0, symName: __RNvXNtNtNtCsfvfooZQ3Axs_4core4iter6traits7collectINtNtCs6IAuOt8vWmF_3syn10punctuated5PairsNtNtBQ_4item7UseTreeNtNtBQ_5token5CommaENtB2_12IntoIterator9into_iterBQ_, symObjAddr: 0x80C, symBinAddr: 0x3AD2C, symSize: 0x18 }
  - { offset: 0xA0C3F, size: 0x8, addend: 0x0, symName: __RNvXNtNtNtCsfvfooZQ3Axs_4core4iter6traits7collectINtNtCs6IAuOt8vWmF_3syn10punctuated5PairsNtNtBQ_4path11PathSegmentNtNtBQ_5token7PathSepENtB2_12IntoIterator9into_iterBQ_, symObjAddr: 0x824, symBinAddr: 0x3AD44, symSize: 0x18 }
  - { offset: 0xA0C76, size: 0x8, addend: 0x0, symName: __RNvXNtNtNtCsfvfooZQ3Axs_4core4iter6traits7collectINtNtCs6IAuOt8vWmF_3syn10punctuated5PairsNtNtBQ_4path15GenericArgumentNtNtBQ_5token5CommaENtB2_12IntoIterator9into_iterBQ_, symObjAddr: 0x83C, symBinAddr: 0x3AD5C, symSize: 0x18 }
  - { offset: 0xA0CAD, size: 0x8, addend: 0x0, symName: __RNvXNtNtNtCsfvfooZQ3Axs_4core4iter6traits7collectINtNtCs6IAuOt8vWmF_3syn10punctuated5PairsNtNtBQ_8generics12GenericParamNtNtBQ_5token5CommaENtB2_12IntoIterator9into_iterBQ_, symObjAddr: 0x854, symBinAddr: 0x3AD74, symSize: 0x18 }
  - { offset: 0xA0CE4, size: 0x8, addend: 0x0, symName: __RNvXNtNtNtCsfvfooZQ3Axs_4core4iter6traits7collectINtNtCs6IAuOt8vWmF_3syn10punctuated5PairsNtNtBQ_8generics13CapturedParamNtNtBQ_5token5CommaENtB2_12IntoIterator9into_iterBQ_, symObjAddr: 0x86C, symBinAddr: 0x3AD8C, symSize: 0x18 }
  - { offset: 0xA0D1B, size: 0x8, addend: 0x0, symName: __RNvXNtNtNtCsfvfooZQ3Axs_4core4iter6traits7collectINtNtCs6IAuOt8vWmF_3syn10punctuated5PairsNtNtBQ_8generics14TypeParamBoundNtNtBQ_5token4PlusENtB2_12IntoIterator9into_iterBQ_, symObjAddr: 0x884, symBinAddr: 0x3ADA4, symSize: 0x18 }
  - { offset: 0xA0D52, size: 0x8, addend: 0x0, symName: __RNvXNtNtNtCsfvfooZQ3Axs_4core4iter6traits7collectINtNtCs6IAuOt8vWmF_3syn10punctuated5PairsNtNtBQ_8generics14WherePredicateNtNtBQ_5token5CommaENtB2_12IntoIterator9into_iterBQ_, symObjAddr: 0x89C, symBinAddr: 0x3ADBC, symSize: 0x18 }
  - { offset: 0xA0D89, size: 0x8, addend: 0x0, symName: __RNvXNtNtNtCsfvfooZQ3Axs_4core4iter6traits7collectINtNtCs6IAuOt8vWmF_3syn10punctuated5PairsNtNtBQ_8lifetime8LifetimeNtNtBQ_5token4PlusENtB2_12IntoIterator9into_iterBQ_, symObjAddr: 0x8B4, symBinAddr: 0x3ADD4, symSize: 0x18 }
  - { offset: 0xA0DC0, size: 0x8, addend: 0x0, symName: __RNvXNtNtNtCsfvfooZQ3Axs_4core4iter6traits7collectINtNtCs6IAuOt8vWmF_3syn10punctuated9IntoPairsNtNtBQ_4path11PathSegmentNtNtBQ_5token7PathSepENtB2_12IntoIterator9into_iterBQ_, symObjAddr: 0x8CC, symBinAddr: 0x3ADEC, symSize: 0x30 }
  - { offset: 0xA0E04, size: 0x8, addend: 0x0, symName: __RNvYINtNtCs6IAuOt8vWmF_3syn10punctuated11PrivateIterNtNtB7_4data5FieldNtNtB7_5token5CommaENtNtNtNtCsfvfooZQ3Axs_4core4iter6traits10exact_size17ExactSizeIterator8is_emptyB7_, symObjAddr: 0xE80, symBinAddr: 0x3B0DC, symSize: 0x2C }
  - { offset: 0xA0E39, size: 0x8, addend: 0x0, symName: __RNvYINtNtCs6IAuOt8vWmF_3syn10punctuated11PrivateIterNtNtB7_4path11PathSegmentNtNtB7_5token7PathSepENtNtNtNtCsfvfooZQ3Axs_4core4iter6traits10exact_size17ExactSizeIterator8is_emptyB7_, symObjAddr: 0x15E0, symBinAddr: 0x3B48C, symSize: 0x2C }
  - { offset: 0xA0E6E, size: 0x8, addend: 0x0, symName: __RNvYINtNtCs6IAuOt8vWmF_3syn10punctuated11PrivateIterNtNtB7_8generics14TypeParamBoundNtNtB7_5token4PlusENtNtNtNtCsfvfooZQ3Axs_4core4iter6traits10exact_size17ExactSizeIterator8is_emptyB7_, symObjAddr: 0x1D40, symBinAddr: 0x3B83C, symSize: 0x2C }
  - { offset: 0xA0EA3, size: 0x8, addend: 0x0, symName: __RNvYINtNtCs6IAuOt8vWmF_3syn10punctuated14PrivateIterMutNtNtB7_4path11PathSegmentNtNtB7_5token7PathSepENtNtNtNtCsfvfooZQ3Axs_4core4iter6traits10exact_size17ExactSizeIterator8is_emptyB7_, symObjAddr: 0x24A0, symBinAddr: 0x3BBEC, symSize: 0x2C }
  - { offset: 0xA0ED8, size: 0x8, addend: 0x0, symName: __RNvYINtNtCs6IAuOt8vWmF_3syn10punctuated14PrivateIterMutNtNtB7_8generics12GenericParamNtNtB7_5token5CommaENtNtNtNtCsfvfooZQ3Axs_4core4iter6traits10exact_size17ExactSizeIterator8is_emptyB7_, symObjAddr: 0x2850, symBinAddr: 0x3BF9C, symSize: 0x2C }
  - { offset: 0xA0F19, size: 0x8, addend: 0x0, symName: __RNvYINtNtCs6IAuOt8vWmF_3syn10punctuated11PrivateIterNtNtB7_4data5FieldNtNtB7_5token5CommaENtNtNtNtCsfvfooZQ3Axs_4core4iter6traits12double_ended19DoubleEndedIterator15advance_back_byB7_, symObjAddr: 0xEAC, symBinAddr: 0x3B108, symSize: 0x134 }
  - { offset: 0xA1067, size: 0x8, addend: 0x0, symName: __RNvYINtNtCs6IAuOt8vWmF_3syn10punctuated11PrivateIterNtNtB7_4data5FieldNtNtB7_5token5CommaENtNtNtNtCsfvfooZQ3Axs_4core4iter6traits12double_ended19DoubleEndedIterator8nth_backB7_, symObjAddr: 0xFE0, symBinAddr: 0x3B23C, symSize: 0x68 }
  - { offset: 0xA10E5, size: 0x8, addend: 0x0, symName: __RNvYINtNtCs6IAuOt8vWmF_3syn10punctuated11PrivateIterNtNtB7_4path11PathSegmentNtNtB7_5token7PathSepENtNtNtNtCsfvfooZQ3Axs_4core4iter6traits12double_ended19DoubleEndedIterator15advance_back_byB7_, symObjAddr: 0x160C, symBinAddr: 0x3B4B8, symSize: 0x134 }
  - { offset: 0xA1233, size: 0x8, addend: 0x0, symName: __RNvYINtNtCs6IAuOt8vWmF_3syn10punctuated11PrivateIterNtNtB7_4path11PathSegmentNtNtB7_5token7PathSepENtNtNtNtCsfvfooZQ3Axs_4core4iter6traits12double_ended19DoubleEndedIterator8nth_backB7_, symObjAddr: 0x1740, symBinAddr: 0x3B5EC, symSize: 0x68 }
  - { offset: 0xA12B1, size: 0x8, addend: 0x0, symName: __RNvYINtNtCs6IAuOt8vWmF_3syn10punctuated11PrivateIterNtNtB7_8generics14TypeParamBoundNtNtB7_5token4PlusENtNtNtNtCsfvfooZQ3Axs_4core4iter6traits12double_ended19DoubleEndedIterator15advance_back_byB7_, symObjAddr: 0x1D6C, symBinAddr: 0x3B868, symSize: 0x134 }
  - { offset: 0xA13FF, size: 0x8, addend: 0x0, symName: __RNvYINtNtCs6IAuOt8vWmF_3syn10punctuated11PrivateIterNtNtB7_8generics14TypeParamBoundNtNtB7_5token4PlusENtNtNtNtCsfvfooZQ3Axs_4core4iter6traits12double_ended19DoubleEndedIterator8nth_backB7_, symObjAddr: 0x1EA0, symBinAddr: 0x3B99C, symSize: 0x68 }
  - { offset: 0xA147D, size: 0x8, addend: 0x0, symName: __RNvYINtNtCs6IAuOt8vWmF_3syn10punctuated14PrivateIterMutNtNtB7_4path11PathSegmentNtNtB7_5token7PathSepENtNtNtNtCsfvfooZQ3Axs_4core4iter6traits12double_ended19DoubleEndedIterator15advance_back_byB7_, symObjAddr: 0x24CC, symBinAddr: 0x3BC18, symSize: 0x134 }
  - { offset: 0xA15CB, size: 0x8, addend: 0x0, symName: __RNvYINtNtCs6IAuOt8vWmF_3syn10punctuated14PrivateIterMutNtNtB7_4path11PathSegmentNtNtB7_5token7PathSepENtNtNtNtCsfvfooZQ3Axs_4core4iter6traits12double_ended19DoubleEndedIterator8nth_backB7_, symObjAddr: 0x2600, symBinAddr: 0x3BD4C, symSize: 0x68 }
  - { offset: 0xA1649, size: 0x8, addend: 0x0, symName: __RNvYINtNtCs6IAuOt8vWmF_3syn10punctuated14PrivateIterMutNtNtB7_8generics12GenericParamNtNtB7_5token5CommaENtNtNtNtCsfvfooZQ3Axs_4core4iter6traits12double_ended19DoubleEndedIterator15advance_back_byB7_, symObjAddr: 0x287C, symBinAddr: 0x3BFC8, symSize: 0x134 }
  - { offset: 0xA1797, size: 0x8, addend: 0x0, symName: __RNvYINtNtCs6IAuOt8vWmF_3syn10punctuated14PrivateIterMutNtNtB7_8generics12GenericParamNtNtB7_5token5CommaENtNtNtNtCsfvfooZQ3Axs_4core4iter6traits12double_ended19DoubleEndedIterator8nth_backB7_, symObjAddr: 0x29B0, symBinAddr: 0x3C0FC, symSize: 0x68 }
  - { offset: 0xA1E36, size: 0x8, addend: 0x0, symName: __RNvXs7_NtNtCsfvfooZQ3Axs_4core3cmp5implsReNtB7_9PartialEq2eqCs6IAuOt8vWmF_3syn, symObjAddr: 0xC4C, symBinAddr: 0x3AF8C, symSize: 0x44 }
  - { offset: 0xA1E8B, size: 0x8, addend: 0x0, symName: __RNvXsX_NtNtCsfvfooZQ3Axs_4core3cmp5implshNtB7_3Ord3cmpCs6IAuOt8vWmF_3syn, symObjAddr: 0xD74, symBinAddr: 0x3AFD0, symSize: 0x3C }
  - { offset: 0xA2274, size: 0x8, addend: 0x0, symName: __RNvNvMNtNtCsfvfooZQ3Axs_4core5alloc6layoutNtB4_6Layout25from_size_align_unchecked18precondition_checkCs6IAuOt8vWmF_3syn, symObjAddr: 0x648, symBinAddr: 0x3AB68, symSize: 0x50 }
  - { offset: 0xA2316, size: 0x8, addend: 0x0, symName: __RNvXNtNtCsfvfooZQ3Axs_4core5clone6uninitNtNtCs6IAuOt8vWmF_3syn8lifetime8LifetimeNtB2_8CopySpec9clone_oneBG_, symObjAddr: 0x6D8, symBinAddr: 0x3ABF8, symSize: 0x44 }
  - { offset: 0xA36D4, size: 0x8, addend: 0x0, symName: __RNvMs5_NtCse1nGBsou5OW_5alloc2rcINtB5_2RcINtNtCsfvfooZQ3Axs_4core4cell4CellNtNtCs6IAuOt8vWmF_3syn5parse10UnexpectedEE9drop_slowB1f_, symObjAddr: 0x500, symBinAddr: 0x3AA20, symSize: 0x74 }
  - { offset: 0xA37A5, size: 0x8, addend: 0x0, symName: __RNvMs6_NtCse1nGBsou5OW_5alloc2rcINtB5_2RcINtNtCsfvfooZQ3Axs_4core4cell4CellNtNtCs6IAuOt8vWmF_3syn5parse10UnexpectedEE3newB1f_, symObjAddr: 0x574, symBinAddr: 0x3AA94, symSize: 0xA8 }
  - { offset: 0xA38ED, size: 0x8, addend: 0x0, symName: __RNvMsd_NtCse1nGBsou5OW_5alloc2rcINtB5_2RcINtNtCsfvfooZQ3Axs_4core4cell4CellNtNtCs6IAuOt8vWmF_3syn5parse10UnexpectedEE6ptr_eqB1f_, symObjAddr: 0x61C, symBinAddr: 0x3AB3C, symSize: 0x2C }
  - { offset: 0xA3955, size: 0x8, addend: 0x0, symName: __RNvXNtCs2cqEZUIJimJ_5quote9to_tokensRNtNtCs6IAuOt8vWmF_3syn8lifetime8LifetimeNtB2_8ToTokens9to_tokensBD_, symObjAddr: 0x698, symBinAddr: 0x3ABB8, symSize: 0x40 }
  - { offset: 0xA44EE, size: 0x8, addend: 0x0, symName: __RNvMNtCs6IAuOt8vWmF_3syn10punctuatedINtB2_10PunctuatedNtNtB4_2ty4TypeNtNtB4_5token5CommaE3newB4_, symObjAddr: 0x3894, symBinAddr: 0x3C558, symSize: 0x54 }
  - { offset: 0xA4514, size: 0x8, addend: 0x0, symName: __RNvMNtCs6IAuOt8vWmF_3syn10punctuatedINtB2_10PunctuatedNtNtB4_2ty9BareFnArgNtNtB4_5token5CommaE3newB4_, symObjAddr: 0x38E8, symBinAddr: 0x3C5AC, symSize: 0x54 }
  - { offset: 0xA453A, size: 0x8, addend: 0x0, symName: __RNvMNtCs6IAuOt8vWmF_3syn10punctuatedINtB2_10PunctuatedNtNtB4_3pat3PatNtNtB4_5token2OrE3newB4_, symObjAddr: 0x393C, symBinAddr: 0x3C600, symSize: 0x54 }
  - { offset: 0xA4560, size: 0x8, addend: 0x0, symName: __RNvMNtCs6IAuOt8vWmF_3syn10punctuatedINtB2_10PunctuatedNtNtB4_3pat3PatNtNtB4_5token5CommaE3newB4_, symObjAddr: 0x3990, symBinAddr: 0x3C654, symSize: 0x54 }
  - { offset: 0xA4586, size: 0x8, addend: 0x0, symName: __RNvMNtCs6IAuOt8vWmF_3syn10punctuatedINtB2_10PunctuatedNtNtB4_3pat8FieldPatNtNtB4_5token5CommaE3newB4_, symObjAddr: 0x39E4, symBinAddr: 0x3C6A8, symSize: 0x54 }
  - { offset: 0xA45AC, size: 0x8, addend: 0x0, symName: __RNvMNtCs6IAuOt8vWmF_3syn10punctuatedINtB2_10PunctuatedNtNtB4_4data5FieldNtNtB4_5token5CommaE3newB4_, symObjAddr: 0x3A38, symBinAddr: 0x3C6FC, symSize: 0x54 }
  - { offset: 0xA45D2, size: 0x8, addend: 0x0, symName: __RNvMNtCs6IAuOt8vWmF_3syn10punctuatedINtB2_10PunctuatedNtNtB4_4data7VariantNtNtB4_5token5CommaE3newB4_, symObjAddr: 0x3AE0, symBinAddr: 0x3C750, symSize: 0x54 }
  - { offset: 0xA45F8, size: 0x8, addend: 0x0, symName: __RNvMNtCs6IAuOt8vWmF_3syn10punctuatedINtB2_10PunctuatedNtNtB4_4expr10FieldValueNtNtB4_5token5CommaE3newB4_, symObjAddr: 0x3B34, symBinAddr: 0x3C7A4, symSize: 0x54 }
  - { offset: 0xA461E, size: 0x8, addend: 0x0, symName: __RNvMNtCs6IAuOt8vWmF_3syn10punctuatedINtB2_10PunctuatedNtNtB4_4expr4ExprNtNtB4_5token5CommaE3newB4_, symObjAddr: 0x3B88, symBinAddr: 0x3C7F8, symSize: 0x54 }
  - { offset: 0xA4644, size: 0x8, addend: 0x0, symName: __RNvMNtCs6IAuOt8vWmF_3syn10punctuatedINtB2_10PunctuatedNtNtB4_4item5FnArgNtNtB4_5token5CommaE3newB4_, symObjAddr: 0x3BDC, symBinAddr: 0x3C84C, symSize: 0x54 }
  - { offset: 0xA466A, size: 0x8, addend: 0x0, symName: __RNvMNtCs6IAuOt8vWmF_3syn10punctuatedINtB2_10PunctuatedNtNtB4_4item7UseTreeNtNtB4_5token5CommaE3newB4_, symObjAddr: 0x3C30, symBinAddr: 0x3C8A0, symSize: 0x54 }
  - { offset: 0xA4690, size: 0x8, addend: 0x0, symName: __RNvMNtCs6IAuOt8vWmF_3syn10punctuatedINtB2_10PunctuatedNtNtB4_4path11PathSegmentNtNtB4_5token7PathSepE3newB4_, symObjAddr: 0x3C84, symBinAddr: 0x3C8F4, symSize: 0x54 }
  - { offset: 0xA46B6, size: 0x8, addend: 0x0, symName: __RNvMNtCs6IAuOt8vWmF_3syn10punctuatedINtB2_10PunctuatedNtNtB4_4path15GenericArgumentNtNtB4_5token5CommaE3newB4_, symObjAddr: 0x3CD8, symBinAddr: 0x3C948, symSize: 0x54 }
  - { offset: 0xA46DC, size: 0x8, addend: 0x0, symName: __RNvMNtCs6IAuOt8vWmF_3syn10punctuatedINtB2_10PunctuatedNtNtB4_8generics12GenericParamNtNtB4_5token5CommaE3newB4_, symObjAddr: 0x3D2C, symBinAddr: 0x3C99C, symSize: 0x54 }
  - { offset: 0xA4702, size: 0x8, addend: 0x0, symName: __RNvMNtCs6IAuOt8vWmF_3syn10punctuatedINtB2_10PunctuatedNtNtB4_8generics13CapturedParamNtNtB4_5token5CommaE3newB4_, symObjAddr: 0x3D80, symBinAddr: 0x3C9F0, symSize: 0x54 }
  - { offset: 0xA4728, size: 0x8, addend: 0x0, symName: __RNvMNtCs6IAuOt8vWmF_3syn10punctuatedINtB2_10PunctuatedNtNtB4_8generics14TypeParamBoundNtNtB4_5token4PlusE3newB4_, symObjAddr: 0x3DD4, symBinAddr: 0x3CA44, symSize: 0x54 }
  - { offset: 0xA474E, size: 0x8, addend: 0x0, symName: __RNvMNtCs6IAuOt8vWmF_3syn10punctuatedINtB2_10PunctuatedNtNtB4_8generics14WherePredicateNtNtB4_5token5CommaE3newB4_, symObjAddr: 0x3E28, symBinAddr: 0x3CA98, symSize: 0x54 }
  - { offset: 0xA4774, size: 0x8, addend: 0x0, symName: __RNvMNtCs6IAuOt8vWmF_3syn10punctuatedINtB2_10PunctuatedNtNtB4_8lifetime8LifetimeNtNtB4_5token4PlusE3newB4_, symObjAddr: 0x3E7C, symBinAddr: 0x3CAEC, symSize: 0x54 }
  - { offset: 0xA47A7, size: 0x8, addend: 0x0, symName: __RNvMNtCs6IAuOt8vWmF_3syn10punctuatedINtB2_10PunctuatedNtNtB4_2ty4TypeNtNtB4_5token5CommaE8is_emptyB4_, symObjAddr: 0x3ED0, symBinAddr: 0x3CB40, symSize: 0x74 }
  - { offset: 0xA47E8, size: 0x8, addend: 0x0, symName: __RNvMNtCs6IAuOt8vWmF_3syn10punctuatedINtB2_10PunctuatedNtNtB4_2ty9BareFnArgNtNtB4_5token5CommaE8is_emptyB4_, symObjAddr: 0x3F44, symBinAddr: 0x3CBB4, symSize: 0x74 }
  - { offset: 0xA4829, size: 0x8, addend: 0x0, symName: __RNvMNtCs6IAuOt8vWmF_3syn10punctuatedINtB2_10PunctuatedNtNtB4_3pat3PatNtNtB4_5token5CommaE8is_emptyB4_, symObjAddr: 0x3FB8, symBinAddr: 0x3CC28, symSize: 0x74 }
  - { offset: 0xA4877, size: 0x8, addend: 0x0, symName: __RNvMNtCs6IAuOt8vWmF_3syn10punctuatedINtB2_10PunctuatedNtNtB4_4expr4ExprNtNtB4_5token5CommaE8is_emptyB4_, symObjAddr: 0x40A0, symBinAddr: 0x3CC9C, symSize: 0x74 }
  - { offset: 0xA48B8, size: 0x8, addend: 0x0, symName: __RNvMNtCs6IAuOt8vWmF_3syn10punctuatedINtB2_10PunctuatedNtNtB4_4item5FnArgNtNtB4_5token5CommaE8is_emptyB4_, symObjAddr: 0x4114, symBinAddr: 0x3CD10, symSize: 0x74 }
  - { offset: 0xA48F9, size: 0x8, addend: 0x0, symName: __RNvMNtCs6IAuOt8vWmF_3syn10punctuatedINtB2_10PunctuatedNtNtB4_4path11PathSegmentNtNtB4_5token7PathSepE8is_emptyB4_, symObjAddr: 0x4188, symBinAddr: 0x3CD84, symSize: 0x74 }
  - { offset: 0xA493A, size: 0x8, addend: 0x0, symName: __RNvMNtCs6IAuOt8vWmF_3syn10punctuatedINtB2_10PunctuatedNtNtB4_4path15GenericArgumentNtNtB4_5token5CommaE8is_emptyB4_, symObjAddr: 0x41FC, symBinAddr: 0x3CDF8, symSize: 0x74 }
  - { offset: 0xA497B, size: 0x8, addend: 0x0, symName: __RNvMNtCs6IAuOt8vWmF_3syn10punctuatedINtB2_10PunctuatedNtNtB4_8generics12GenericParamNtNtB4_5token5CommaE8is_emptyB4_, symObjAddr: 0x4270, symBinAddr: 0x3CE6C, symSize: 0x74 }
  - { offset: 0xA49BC, size: 0x8, addend: 0x0, symName: __RNvMNtCs6IAuOt8vWmF_3syn10punctuatedINtB2_10PunctuatedNtNtB4_8generics14TypeParamBoundNtNtB4_5token4PlusE8is_emptyB4_, symObjAddr: 0x42E4, symBinAddr: 0x3CEE0, symSize: 0x74 }
  - { offset: 0xA49FD, size: 0x8, addend: 0x0, symName: __RNvMNtCs6IAuOt8vWmF_3syn10punctuatedINtB2_10PunctuatedNtNtB4_8generics14WherePredicateNtNtB4_5token5CommaE8is_emptyB4_, symObjAddr: 0x4358, symBinAddr: 0x3CF54, symSize: 0x74 }
  - { offset: 0xA4A3E, size: 0x8, addend: 0x0, symName: __RNvMNtCs6IAuOt8vWmF_3syn10punctuatedINtB2_10PunctuatedNtNtB4_8lifetime8LifetimeNtNtB4_5token4PlusE8is_emptyB4_, symObjAddr: 0x43CC, symBinAddr: 0x3CFC8, symSize: 0x74 }
  - { offset: 0xA4A72, size: 0x8, addend: 0x0, symName: __RNvMNtCs6IAuOt8vWmF_3syn10punctuatedINtB2_10PunctuatedNtNtB4_2ty4TypeNtNtB4_5token5CommaE3lenB4_, symObjAddr: 0x4440, symBinAddr: 0x3D03C, symSize: 0xA0 }
  - { offset: 0xA4AA6, size: 0x8, addend: 0x0, symName: __RNvMNtCs6IAuOt8vWmF_3syn10punctuatedINtB2_10PunctuatedNtNtB4_3pat3PatNtNtB4_5token5CommaE3lenB4_, symObjAddr: 0x44E0, symBinAddr: 0x3D0DC, symSize: 0xA0 }
  - { offset: 0xA4ADA, size: 0x8, addend: 0x0, symName: __RNvMNtCs6IAuOt8vWmF_3syn10punctuatedINtB2_10PunctuatedNtNtB4_4expr4ExprNtNtB4_5token5CommaE3lenB4_, symObjAddr: 0x46C0, symBinAddr: 0x3D17C, symSize: 0xA0 }
  - { offset: 0xA4B0E, size: 0x8, addend: 0x0, symName: __RNvMNtCs6IAuOt8vWmF_3syn10punctuatedINtB2_10PunctuatedNtNtB4_4path11PathSegmentNtNtB4_5token7PathSepE3lenB4_, symObjAddr: 0x4760, symBinAddr: 0x3D21C, symSize: 0xA0 }
  - { offset: 0xA4B42, size: 0x8, addend: 0x0, symName: __RNvMNtCs6IAuOt8vWmF_3syn10punctuatedINtB2_10PunctuatedNtNtB4_8generics14TypeParamBoundNtNtB4_5token4PlusE3lenB4_, symObjAddr: 0x4800, symBinAddr: 0x3D2BC, symSize: 0xA0 }
  - { offset: 0xA4B76, size: 0x8, addend: 0x0, symName: __RNvMNtCs6IAuOt8vWmF_3syn10punctuatedINtB2_10PunctuatedNtNtB4_4path11PathSegmentNtNtB4_5token7PathSepE4lastB4_, symObjAddr: 0x49A8, symBinAddr: 0x3D35C, symSize: 0x84 }
  - { offset: 0xA4BAA, size: 0x8, addend: 0x0, symName: __RNvMNtCs6IAuOt8vWmF_3syn10punctuatedINtB2_10PunctuatedNtNtB4_8generics14TypeParamBoundNtNtB4_5token4PlusE4lastB4_, symObjAddr: 0x4A2C, symBinAddr: 0x3D3E0, symSize: 0x84 }
  - { offset: 0xA4BEB, size: 0x8, addend: 0x0, symName: __RNvMNtCs6IAuOt8vWmF_3syn10punctuatedINtB2_10PunctuatedNtNtB4_4path11PathSegmentNtNtB4_5token7PathSepE8last_mutB4_, symObjAddr: 0x4AB0, symBinAddr: 0x3D464, symSize: 0x84 }
  - { offset: 0xA4C5A, size: 0x8, addend: 0x0, symName: __RNvMNtCs6IAuOt8vWmF_3syn10punctuatedINtB2_10PunctuatedNtNtB4_4data5FieldNtNtB4_5token5CommaE4iterB4_, symObjAddr: 0x4B34, symBinAddr: 0x3D4E8, symSize: 0xC8 }
  - { offset: 0xA4CE6, size: 0x8, addend: 0x0, symName: __RNvMNtCs6IAuOt8vWmF_3syn10punctuatedINtB2_10PunctuatedNtNtB4_4path11PathSegmentNtNtB4_5token7PathSepE4iterB4_, symObjAddr: 0x4CC4, symBinAddr: 0x3D5B0, symSize: 0xC8 }
  - { offset: 0xA4DA0, size: 0x8, addend: 0x0, symName: __RNvMNtCs6IAuOt8vWmF_3syn10punctuatedINtB2_10PunctuatedNtNtB4_8generics14TypeParamBoundNtNtB4_5token4PlusE4iterB4_, symObjAddr: 0x4E54, symBinAddr: 0x3D678, symSize: 0xC8 }
  - { offset: 0xA4E81, size: 0x8, addend: 0x0, symName: __RNvMNtCs6IAuOt8vWmF_3syn10punctuatedINtB2_10PunctuatedNtNtB4_4path11PathSegmentNtNtB4_5token7PathSepE8iter_mutB4_, symObjAddr: 0x4FE4, symBinAddr: 0x3D740, symSize: 0xC8 }
  - { offset: 0xA4F1A, size: 0x8, addend: 0x0, symName: __RNvMNtCs6IAuOt8vWmF_3syn10punctuatedINtB2_10PunctuatedNtNtB4_8generics12GenericParamNtNtB4_5token5CommaE8iter_mutB4_, symObjAddr: 0x50AC, symBinAddr: 0x3D808, symSize: 0xC8 }
  - { offset: 0xA4F92, size: 0x8, addend: 0x0, symName: __RNvMNtCs6IAuOt8vWmF_3syn10punctuatedINtB2_10PunctuatedNtNtB4_2ty4TypeNtNtB4_5token5CommaE5pairsB4_, symObjAddr: 0x5174, symBinAddr: 0x3D8D0, symSize: 0x74 }
  - { offset: 0xA4FED, size: 0x8, addend: 0x0, symName: __RNvMNtCs6IAuOt8vWmF_3syn10punctuatedINtB2_10PunctuatedNtNtB4_2ty9BareFnArgNtNtB4_5token5CommaE5pairsB4_, symObjAddr: 0x51E8, symBinAddr: 0x3D944, symSize: 0x74 }
  - { offset: 0xA5055, size: 0x8, addend: 0x0, symName: __RNvMNtCs6IAuOt8vWmF_3syn10punctuatedINtB2_10PunctuatedNtNtB4_3pat3PatNtNtB4_5token2OrE5pairsB4_, symObjAddr: 0x525C, symBinAddr: 0x3D9B8, symSize: 0x74 }
  - { offset: 0xA50A3, size: 0x8, addend: 0x0, symName: __RNvMNtCs6IAuOt8vWmF_3syn10punctuatedINtB2_10PunctuatedNtNtB4_3pat3PatNtNtB4_5token5CommaE5pairsB4_, symObjAddr: 0x52D0, symBinAddr: 0x3DA2C, symSize: 0x74 }
  - { offset: 0xA510B, size: 0x8, addend: 0x0, symName: __RNvMNtCs6IAuOt8vWmF_3syn10punctuatedINtB2_10PunctuatedNtNtB4_3pat8FieldPatNtNtB4_5token5CommaE5pairsB4_, symObjAddr: 0x5344, symBinAddr: 0x3DAA0, symSize: 0x74 }
  - { offset: 0xA513F, size: 0x8, addend: 0x0, symName: __RNvMNtCs6IAuOt8vWmF_3syn10punctuatedINtB2_10PunctuatedNtNtB4_4data5FieldNtNtB4_5token5CommaE5pairsB4_, symObjAddr: 0x53B8, symBinAddr: 0x3DB14, symSize: 0x74 }
  - { offset: 0xA51A7, size: 0x8, addend: 0x0, symName: __RNvMNtCs6IAuOt8vWmF_3syn10punctuatedINtB2_10PunctuatedNtNtB4_4data7VariantNtNtB4_5token5CommaE5pairsB4_, symObjAddr: 0x542C, symBinAddr: 0x3DB88, symSize: 0x74 }
  - { offset: 0xA520F, size: 0x8, addend: 0x0, symName: __RNvMNtCs6IAuOt8vWmF_3syn10punctuatedINtB2_10PunctuatedNtNtB4_4expr10FieldValueNtNtB4_5token5CommaE5pairsB4_, symObjAddr: 0x54A0, symBinAddr: 0x3DBFC, symSize: 0x74 }
  - { offset: 0xA526A, size: 0x8, addend: 0x0, symName: __RNvMNtCs6IAuOt8vWmF_3syn10punctuatedINtB2_10PunctuatedNtNtB4_4expr4ExprNtNtB4_5token5CommaE5pairsB4_, symObjAddr: 0x5514, symBinAddr: 0x3DC70, symSize: 0x74 }
  - { offset: 0xA529E, size: 0x8, addend: 0x0, symName: __RNvMNtCs6IAuOt8vWmF_3syn10punctuatedINtB2_10PunctuatedNtNtB4_4item5FnArgNtNtB4_5token5CommaE5pairsB4_, symObjAddr: 0x5588, symBinAddr: 0x3DCE4, symSize: 0x74 }
  - { offset: 0xA5306, size: 0x8, addend: 0x0, symName: __RNvMNtCs6IAuOt8vWmF_3syn10punctuatedINtB2_10PunctuatedNtNtB4_4item7UseTreeNtNtB4_5token5CommaE5pairsB4_, symObjAddr: 0x55FC, symBinAddr: 0x3DD58, symSize: 0x74 }
  - { offset: 0xA533A, size: 0x8, addend: 0x0, symName: __RNvMNtCs6IAuOt8vWmF_3syn10punctuatedINtB2_10PunctuatedNtNtB4_4path11PathSegmentNtNtB4_5token7PathSepE5pairsB4_, symObjAddr: 0x5670, symBinAddr: 0x3DDCC, symSize: 0x74 }
  - { offset: 0xA5395, size: 0x8, addend: 0x0, symName: __RNvMNtCs6IAuOt8vWmF_3syn10punctuatedINtB2_10PunctuatedNtNtB4_4path15GenericArgumentNtNtB4_5token5CommaE5pairsB4_, symObjAddr: 0x56E4, symBinAddr: 0x3DE40, symSize: 0x74 }
  - { offset: 0xA53C9, size: 0x8, addend: 0x0, symName: __RNvMNtCs6IAuOt8vWmF_3syn10punctuatedINtB2_10PunctuatedNtNtB4_8generics12GenericParamNtNtB4_5token5CommaE5pairsB4_, symObjAddr: 0x5758, symBinAddr: 0x3DEB4, symSize: 0x74 }
  - { offset: 0xA5431, size: 0x8, addend: 0x0, symName: __RNvMNtCs6IAuOt8vWmF_3syn10punctuatedINtB2_10PunctuatedNtNtB4_8generics13CapturedParamNtNtB4_5token5CommaE5pairsB4_, symObjAddr: 0x57CC, symBinAddr: 0x3DF28, symSize: 0x74 }
  - { offset: 0xA5465, size: 0x8, addend: 0x0, symName: __RNvMNtCs6IAuOt8vWmF_3syn10punctuatedINtB2_10PunctuatedNtNtB4_8generics14TypeParamBoundNtNtB4_5token4PlusE5pairsB4_, symObjAddr: 0x5840, symBinAddr: 0x3DF9C, symSize: 0x74 }
  - { offset: 0xA54C0, size: 0x8, addend: 0x0, symName: __RNvMNtCs6IAuOt8vWmF_3syn10punctuatedINtB2_10PunctuatedNtNtB4_8generics14WherePredicateNtNtB4_5token5CommaE5pairsB4_, symObjAddr: 0x58B4, symBinAddr: 0x3E010, symSize: 0x74 }
  - { offset: 0xA54F4, size: 0x8, addend: 0x0, symName: __RNvMNtCs6IAuOt8vWmF_3syn10punctuatedINtB2_10PunctuatedNtNtB4_8lifetime8LifetimeNtNtB4_5token4PlusE5pairsB4_, symObjAddr: 0x5928, symBinAddr: 0x3E084, symSize: 0x74 }
  - { offset: 0xA5528, size: 0x8, addend: 0x0, symName: __RNvMNtCs6IAuOt8vWmF_3syn10punctuatedINtB2_10PunctuatedNtNtB4_4path11PathSegmentNtNtB4_5token7PathSepE10into_pairsB4_, symObjAddr: 0x599C, symBinAddr: 0x3E0F8, symSize: 0x108 }
  - { offset: 0xA556A, size: 0x8, addend: 0x0, symName: __RNvMNtCs6IAuOt8vWmF_3syn10punctuatedINtB2_10PunctuatedNtNtB4_2ty4TypeNtNtB4_5token5CommaE10push_valueB4_, symObjAddr: 0x5B3C, symBinAddr: 0x3E298, symSize: 0x1B4 }
  - { offset: 0xA55D8, size: 0x8, addend: 0x0, symName: __RNvMNtCs6IAuOt8vWmF_3syn10punctuatedINtB2_10PunctuatedNtNtB4_2ty9BareFnArgNtNtB4_5token5CommaE10push_valueB4_, symObjAddr: 0x5CF0, symBinAddr: 0x3E44C, symSize: 0x1B4 }
  - { offset: 0xA5646, size: 0x8, addend: 0x0, symName: __RNvMNtCs6IAuOt8vWmF_3syn10punctuatedINtB2_10PunctuatedNtNtB4_3pat3PatNtNtB4_5token2OrE10push_valueB4_, symObjAddr: 0x5EA4, symBinAddr: 0x3E600, symSize: 0x1B4 }
  - { offset: 0xA56B4, size: 0x8, addend: 0x0, symName: __RNvMNtCs6IAuOt8vWmF_3syn10punctuatedINtB2_10PunctuatedNtNtB4_3pat3PatNtNtB4_5token5CommaE10push_valueB4_, symObjAddr: 0x6058, symBinAddr: 0x3E7B4, symSize: 0x1B4 }
  - { offset: 0xA5722, size: 0x8, addend: 0x0, symName: __RNvMNtCs6IAuOt8vWmF_3syn10punctuatedINtB2_10PunctuatedNtNtB4_3pat8FieldPatNtNtB4_5token5CommaE10push_valueB4_, symObjAddr: 0x620C, symBinAddr: 0x3E968, symSize: 0x1B4 }
  - { offset: 0xA5783, size: 0x8, addend: 0x0, symName: __RNvMNtCs6IAuOt8vWmF_3syn10punctuatedINtB2_10PunctuatedNtNtB4_4data5FieldNtNtB4_5token5CommaE10push_valueB4_, symObjAddr: 0x63C0, symBinAddr: 0x3EB1C, symSize: 0x1B4 }
  - { offset: 0xA57F1, size: 0x8, addend: 0x0, symName: __RNvMNtCs6IAuOt8vWmF_3syn10punctuatedINtB2_10PunctuatedNtNtB4_4data7VariantNtNtB4_5token5CommaE10push_valueB4_, symObjAddr: 0x6574, symBinAddr: 0x3ECD0, symSize: 0x1B4 }
  - { offset: 0xA585F, size: 0x8, addend: 0x0, symName: __RNvMNtCs6IAuOt8vWmF_3syn10punctuatedINtB2_10PunctuatedNtNtB4_4expr10FieldValueNtNtB4_5token5CommaE10push_valueB4_, symObjAddr: 0x6728, symBinAddr: 0x3EE84, symSize: 0x1B4 }
  - { offset: 0xA58CD, size: 0x8, addend: 0x0, symName: __RNvMNtCs6IAuOt8vWmF_3syn10punctuatedINtB2_10PunctuatedNtNtB4_4expr4ExprNtNtB4_5token5CommaE10push_valueB4_, symObjAddr: 0x68DC, symBinAddr: 0x3F038, symSize: 0x1B4 }
  - { offset: 0xA593B, size: 0x8, addend: 0x0, symName: __RNvMNtCs6IAuOt8vWmF_3syn10punctuatedINtB2_10PunctuatedNtNtB4_4item5FnArgNtNtB4_5token5CommaE10push_valueB4_, symObjAddr: 0x6A90, symBinAddr: 0x3F1EC, symSize: 0x1B4 }
  - { offset: 0xA59A9, size: 0x8, addend: 0x0, symName: __RNvMNtCs6IAuOt8vWmF_3syn10punctuatedINtB2_10PunctuatedNtNtB4_4item7UseTreeNtNtB4_5token5CommaE10push_valueB4_, symObjAddr: 0x6C44, symBinAddr: 0x3F3A0, symSize: 0x1B4 }
  - { offset: 0xA5A0A, size: 0x8, addend: 0x0, symName: __RNvMNtCs6IAuOt8vWmF_3syn10punctuatedINtB2_10PunctuatedNtNtB4_4path11PathSegmentNtNtB4_5token7PathSepE10push_valueB4_, symObjAddr: 0x6DF8, symBinAddr: 0x3F554, symSize: 0x1B4 }
  - { offset: 0xA5A78, size: 0x8, addend: 0x0, symName: __RNvMNtCs6IAuOt8vWmF_3syn10punctuatedINtB2_10PunctuatedNtNtB4_4path15GenericArgumentNtNtB4_5token5CommaE10push_valueB4_, symObjAddr: 0x6FAC, symBinAddr: 0x3F708, symSize: 0x1B4 }
  - { offset: 0xA5AD9, size: 0x8, addend: 0x0, symName: __RNvMNtCs6IAuOt8vWmF_3syn10punctuatedINtB2_10PunctuatedNtNtB4_8generics12GenericParamNtNtB4_5token5CommaE10push_valueB4_, symObjAddr: 0x7160, symBinAddr: 0x3F8BC, symSize: 0x1B4 }
  - { offset: 0xA5B47, size: 0x8, addend: 0x0, symName: __RNvMNtCs6IAuOt8vWmF_3syn10punctuatedINtB2_10PunctuatedNtNtB4_8generics13CapturedParamNtNtB4_5token5CommaE10push_valueB4_, symObjAddr: 0x7314, symBinAddr: 0x3FA70, symSize: 0x1AC }
  - { offset: 0xA5BB5, size: 0x8, addend: 0x0, symName: __RNvMNtCs6IAuOt8vWmF_3syn10punctuatedINtB2_10PunctuatedNtNtB4_8generics14TypeParamBoundNtNtB4_5token4PlusE10push_valueB4_, symObjAddr: 0x74C0, symBinAddr: 0x3FC1C, symSize: 0x1B4 }
  - { offset: 0xA5C23, size: 0x8, addend: 0x0, symName: __RNvMNtCs6IAuOt8vWmF_3syn10punctuatedINtB2_10PunctuatedNtNtB4_8generics14WherePredicateNtNtB4_5token5CommaE10push_valueB4_, symObjAddr: 0x7674, symBinAddr: 0x3FDD0, symSize: 0x1B4 }
  - { offset: 0xA5C91, size: 0x8, addend: 0x0, symName: __RNvMNtCs6IAuOt8vWmF_3syn10punctuatedINtB2_10PunctuatedNtNtB4_8lifetime8LifetimeNtNtB4_5token4PlusE10push_valueB4_, symObjAddr: 0x7828, symBinAddr: 0x3FF84, symSize: 0x1A4 }
  - { offset: 0xA5D1D, size: 0x8, addend: 0x0, symName: __RNvMNtCs6IAuOt8vWmF_3syn10punctuatedINtB2_10PunctuatedNtNtB4_2ty4TypeNtNtB4_5token5CommaE10push_punctB4_, symObjAddr: 0x79CC, symBinAddr: 0x40128, symSize: 0x200 }
  - { offset: 0xA5DC6, size: 0x8, addend: 0x0, symName: __RNvMNtCs6IAuOt8vWmF_3syn10punctuatedINtB2_10PunctuatedNtNtB4_2ty9BareFnArgNtNtB4_5token5CommaE10push_punctB4_, symObjAddr: 0x7BCC, symBinAddr: 0x40328, symSize: 0x200 }
  - { offset: 0xA5E6F, size: 0x8, addend: 0x0, symName: __RNvMNtCs6IAuOt8vWmF_3syn10punctuatedINtB2_10PunctuatedNtNtB4_3pat3PatNtNtB4_5token2OrE10push_punctB4_, symObjAddr: 0x7DCC, symBinAddr: 0x40528, symSize: 0x200 }
  - { offset: 0xA5EED, size: 0x8, addend: 0x0, symName: __RNvMNtCs6IAuOt8vWmF_3syn10punctuatedINtB2_10PunctuatedNtNtB4_3pat3PatNtNtB4_5token5CommaE10push_punctB4_, symObjAddr: 0x7FCC, symBinAddr: 0x40728, symSize: 0x200 }
  - { offset: 0xA5F96, size: 0x8, addend: 0x0, symName: __RNvMNtCs6IAuOt8vWmF_3syn10punctuatedINtB2_10PunctuatedNtNtB4_3pat8FieldPatNtNtB4_5token5CommaE10push_punctB4_, symObjAddr: 0x81CC, symBinAddr: 0x40928, symSize: 0x200 }
  - { offset: 0xA603F, size: 0x8, addend: 0x0, symName: __RNvMNtCs6IAuOt8vWmF_3syn10punctuatedINtB2_10PunctuatedNtNtB4_4data5FieldNtNtB4_5token5CommaE10push_punctB4_, symObjAddr: 0x83CC, symBinAddr: 0x40B28, symSize: 0x200 }
  - { offset: 0xA60E8, size: 0x8, addend: 0x0, symName: __RNvMNtCs6IAuOt8vWmF_3syn10punctuatedINtB2_10PunctuatedNtNtB4_4data7VariantNtNtB4_5token5CommaE10push_punctB4_, symObjAddr: 0x85CC, symBinAddr: 0x40D28, symSize: 0x200 }
  - { offset: 0xA6191, size: 0x8, addend: 0x0, symName: __RNvMNtCs6IAuOt8vWmF_3syn10punctuatedINtB2_10PunctuatedNtNtB4_4expr10FieldValueNtNtB4_5token5CommaE10push_punctB4_, symObjAddr: 0x87CC, symBinAddr: 0x40F28, symSize: 0x200 }
  - { offset: 0xA623A, size: 0x8, addend: 0x0, symName: __RNvMNtCs6IAuOt8vWmF_3syn10punctuatedINtB2_10PunctuatedNtNtB4_4expr4ExprNtNtB4_5token5CommaE10push_punctB4_, symObjAddr: 0x89CC, symBinAddr: 0x41128, symSize: 0x200 }
  - { offset: 0xA62E3, size: 0x8, addend: 0x0, symName: __RNvMNtCs6IAuOt8vWmF_3syn10punctuatedINtB2_10PunctuatedNtNtB4_4item5FnArgNtNtB4_5token5CommaE10push_punctB4_, symObjAddr: 0x8BCC, symBinAddr: 0x41328, symSize: 0x200 }
  - { offset: 0xA638C, size: 0x8, addend: 0x0, symName: __RNvMNtCs6IAuOt8vWmF_3syn10punctuatedINtB2_10PunctuatedNtNtB4_4item7UseTreeNtNtB4_5token5CommaE10push_punctB4_, symObjAddr: 0x8DCC, symBinAddr: 0x41528, symSize: 0x200 }
  - { offset: 0xA6435, size: 0x8, addend: 0x0, symName: __RNvMNtCs6IAuOt8vWmF_3syn10punctuatedINtB2_10PunctuatedNtNtB4_4path11PathSegmentNtNtB4_5token7PathSepE10push_punctB4_, symObjAddr: 0x8FCC, symBinAddr: 0x41728, symSize: 0x200 }
  - { offset: 0xA64DE, size: 0x8, addend: 0x0, symName: __RNvMNtCs6IAuOt8vWmF_3syn10punctuatedINtB2_10PunctuatedNtNtB4_4path15GenericArgumentNtNtB4_5token5CommaE10push_punctB4_, symObjAddr: 0x91CC, symBinAddr: 0x41928, symSize: 0x200 }
  - { offset: 0xA6587, size: 0x8, addend: 0x0, symName: __RNvMNtCs6IAuOt8vWmF_3syn10punctuatedINtB2_10PunctuatedNtNtB4_8generics12GenericParamNtNtB4_5token5CommaE10push_punctB4_, symObjAddr: 0x93CC, symBinAddr: 0x41B28, symSize: 0x204 }
  - { offset: 0xA6630, size: 0x8, addend: 0x0, symName: __RNvMNtCs6IAuOt8vWmF_3syn10punctuatedINtB2_10PunctuatedNtNtB4_8generics13CapturedParamNtNtB4_5token5CommaE10push_punctB4_, symObjAddr: 0x95D0, symBinAddr: 0x41D2C, symSize: 0x200 }
  - { offset: 0xA66D9, size: 0x8, addend: 0x0, symName: __RNvMNtCs6IAuOt8vWmF_3syn10punctuatedINtB2_10PunctuatedNtNtB4_8generics14TypeParamBoundNtNtB4_5token4PlusE10push_punctB4_, symObjAddr: 0x97D0, symBinAddr: 0x41F2C, symSize: 0x200 }
  - { offset: 0xA6782, size: 0x8, addend: 0x0, symName: __RNvMNtCs6IAuOt8vWmF_3syn10punctuatedINtB2_10PunctuatedNtNtB4_8generics14WherePredicateNtNtB4_5token5CommaE10push_punctB4_, symObjAddr: 0x99D0, symBinAddr: 0x4212C, symSize: 0x200 }
  - { offset: 0xA682B, size: 0x8, addend: 0x0, symName: __RNvMNtCs6IAuOt8vWmF_3syn10punctuatedINtB2_10PunctuatedNtNtB4_8lifetime8LifetimeNtNtB4_5token4PlusE10push_punctB4_, symObjAddr: 0x9BD0, symBinAddr: 0x4232C, symSize: 0x1F8 }
  - { offset: 0xA68A8, size: 0x8, addend: 0x0, symName: __RNvMNtCs6IAuOt8vWmF_3syn10punctuatedINtB2_10PunctuatedNtNtB4_4path11PathSegmentNtNtB4_5token7PathSepE3popB4_, symObjAddr: 0x9DC8, symBinAddr: 0x42524, symSize: 0x90 }
  - { offset: 0xA68DC, size: 0x8, addend: 0x0, symName: __RNvMNtCs6IAuOt8vWmF_3syn10punctuatedINtB2_10PunctuatedNtNtB4_2ty4TypeNtNtB4_5token5CommaE14trailing_punctB4_, symObjAddr: 0x9F90, symBinAddr: 0x426EC, symSize: 0x80 }
  - { offset: 0xA6910, size: 0x8, addend: 0x0, symName: __RNvMNtCs6IAuOt8vWmF_3syn10punctuatedINtB2_10PunctuatedNtNtB4_3pat3PatNtNtB4_5token5CommaE14trailing_punctB4_, symObjAddr: 0xA010, symBinAddr: 0x4276C, symSize: 0x80 }
  - { offset: 0xA6944, size: 0x8, addend: 0x0, symName: __RNvMNtCs6IAuOt8vWmF_3syn10punctuatedINtB2_10PunctuatedNtNtB4_4expr4ExprNtNtB4_5token5CommaE14trailing_punctB4_, symObjAddr: 0xA090, symBinAddr: 0x427EC, symSize: 0x80 }
  - { offset: 0xA6978, size: 0x8, addend: 0x0, symName: __RNvMNtCs6IAuOt8vWmF_3syn10punctuatedINtB2_10PunctuatedNtNtB4_4path11PathSegmentNtNtB4_5token7PathSepE14trailing_punctB4_, symObjAddr: 0xA110, symBinAddr: 0x4286C, symSize: 0x80 }
  - { offset: 0xA69AC, size: 0x8, addend: 0x0, symName: __RNvMNtCs6IAuOt8vWmF_3syn10punctuatedINtB2_10PunctuatedNtNtB4_8generics14TypeParamBoundNtNtB4_5token4PlusE14trailing_punctB4_, symObjAddr: 0xA190, symBinAddr: 0x428EC, symSize: 0x80 }
  - { offset: 0xA69E0, size: 0x8, addend: 0x0, symName: __RNvMNtCs6IAuOt8vWmF_3syn10punctuatedINtB2_10PunctuatedNtNtB4_2ty4TypeNtNtB4_5token5CommaE17empty_or_trailingB4_, symObjAddr: 0xA210, symBinAddr: 0x4296C, symSize: 0x34 }
  - { offset: 0xA6A14, size: 0x8, addend: 0x0, symName: __RNvMNtCs6IAuOt8vWmF_3syn10punctuatedINtB2_10PunctuatedNtNtB4_2ty9BareFnArgNtNtB4_5token5CommaE17empty_or_trailingB4_, symObjAddr: 0xA244, symBinAddr: 0x429A0, symSize: 0x34 }
  - { offset: 0xA6A48, size: 0x8, addend: 0x0, symName: __RNvMNtCs6IAuOt8vWmF_3syn10punctuatedINtB2_10PunctuatedNtNtB4_3pat3PatNtNtB4_5token2OrE17empty_or_trailingB4_, symObjAddr: 0xA278, symBinAddr: 0x429D4, symSize: 0x34 }
  - { offset: 0xA6A7C, size: 0x8, addend: 0x0, symName: __RNvMNtCs6IAuOt8vWmF_3syn10punctuatedINtB2_10PunctuatedNtNtB4_3pat3PatNtNtB4_5token5CommaE17empty_or_trailingB4_, symObjAddr: 0xA2AC, symBinAddr: 0x42A08, symSize: 0x34 }
  - { offset: 0xA6AB0, size: 0x8, addend: 0x0, symName: __RNvMNtCs6IAuOt8vWmF_3syn10punctuatedINtB2_10PunctuatedNtNtB4_3pat8FieldPatNtNtB4_5token5CommaE17empty_or_trailingB4_, symObjAddr: 0xA2E0, symBinAddr: 0x42A3C, symSize: 0x34 }
  - { offset: 0xA6AE4, size: 0x8, addend: 0x0, symName: __RNvMNtCs6IAuOt8vWmF_3syn10punctuatedINtB2_10PunctuatedNtNtB4_4data5FieldNtNtB4_5token5CommaE17empty_or_trailingB4_, symObjAddr: 0xA314, symBinAddr: 0x42A70, symSize: 0x34 }
  - { offset: 0xA6B18, size: 0x8, addend: 0x0, symName: __RNvMNtCs6IAuOt8vWmF_3syn10punctuatedINtB2_10PunctuatedNtNtB4_4data7VariantNtNtB4_5token5CommaE17empty_or_trailingB4_, symObjAddr: 0xA348, symBinAddr: 0x42AA4, symSize: 0x34 }
  - { offset: 0xA6B4C, size: 0x8, addend: 0x0, symName: __RNvMNtCs6IAuOt8vWmF_3syn10punctuatedINtB2_10PunctuatedNtNtB4_4expr10FieldValueNtNtB4_5token5CommaE17empty_or_trailingB4_, symObjAddr: 0xA37C, symBinAddr: 0x42AD8, symSize: 0x34 }
  - { offset: 0xA6B80, size: 0x8, addend: 0x0, symName: __RNvMNtCs6IAuOt8vWmF_3syn10punctuatedINtB2_10PunctuatedNtNtB4_4expr4ExprNtNtB4_5token5CommaE17empty_or_trailingB4_, symObjAddr: 0xA3B0, symBinAddr: 0x42B0C, symSize: 0x34 }
  - { offset: 0xA6BB4, size: 0x8, addend: 0x0, symName: __RNvMNtCs6IAuOt8vWmF_3syn10punctuatedINtB2_10PunctuatedNtNtB4_4item5FnArgNtNtB4_5token5CommaE17empty_or_trailingB4_, symObjAddr: 0xA3E4, symBinAddr: 0x42B40, symSize: 0x34 }
  - { offset: 0xA6BE8, size: 0x8, addend: 0x0, symName: __RNvMNtCs6IAuOt8vWmF_3syn10punctuatedINtB2_10PunctuatedNtNtB4_4item7UseTreeNtNtB4_5token5CommaE17empty_or_trailingB4_, symObjAddr: 0xA418, symBinAddr: 0x42B74, symSize: 0x34 }
  - { offset: 0xA6C1C, size: 0x8, addend: 0x0, symName: __RNvMNtCs6IAuOt8vWmF_3syn10punctuatedINtB2_10PunctuatedNtNtB4_4path11PathSegmentNtNtB4_5token7PathSepE17empty_or_trailingB4_, symObjAddr: 0xA44C, symBinAddr: 0x42BA8, symSize: 0x34 }
  - { offset: 0xA6C50, size: 0x8, addend: 0x0, symName: __RNvMNtCs6IAuOt8vWmF_3syn10punctuatedINtB2_10PunctuatedNtNtB4_4path15GenericArgumentNtNtB4_5token5CommaE17empty_or_trailingB4_, symObjAddr: 0xA480, symBinAddr: 0x42BDC, symSize: 0x34 }
  - { offset: 0xA6C84, size: 0x8, addend: 0x0, symName: __RNvMNtCs6IAuOt8vWmF_3syn10punctuatedINtB2_10PunctuatedNtNtB4_8generics12GenericParamNtNtB4_5token5CommaE17empty_or_trailingB4_, symObjAddr: 0xA4B4, symBinAddr: 0x42C10, symSize: 0x34 }
  - { offset: 0xA6CB8, size: 0x8, addend: 0x0, symName: __RNvMNtCs6IAuOt8vWmF_3syn10punctuatedINtB2_10PunctuatedNtNtB4_8generics13CapturedParamNtNtB4_5token5CommaE17empty_or_trailingB4_, symObjAddr: 0xA4E8, symBinAddr: 0x42C44, symSize: 0x34 }
  - { offset: 0xA6CEC, size: 0x8, addend: 0x0, symName: __RNvMNtCs6IAuOt8vWmF_3syn10punctuatedINtB2_10PunctuatedNtNtB4_8generics14TypeParamBoundNtNtB4_5token4PlusE17empty_or_trailingB4_, symObjAddr: 0xA51C, symBinAddr: 0x42C78, symSize: 0x34 }
  - { offset: 0xA6D20, size: 0x8, addend: 0x0, symName: __RNvMNtCs6IAuOt8vWmF_3syn10punctuatedINtB2_10PunctuatedNtNtB4_8generics14WherePredicateNtNtB4_5token5CommaE17empty_or_trailingB4_, symObjAddr: 0xA550, symBinAddr: 0x42CAC, symSize: 0x34 }
  - { offset: 0xA6D54, size: 0x8, addend: 0x0, symName: __RNvMNtCs6IAuOt8vWmF_3syn10punctuatedINtB2_10PunctuatedNtNtB4_8lifetime8LifetimeNtNtB4_5token4PlusE17empty_or_trailingB4_, symObjAddr: 0xA584, symBinAddr: 0x42CE0, symSize: 0x34 }
  - { offset: 0xA6D88, size: 0x8, addend: 0x0, symName: __RNvMNtCs6IAuOt8vWmF_3syn10punctuatedINtB2_10PunctuatedNtNtB4_4expr10FieldValueNtNtB4_5token5CommaE4pushB4_, symObjAddr: 0xA5B8, symBinAddr: 0x42D14, symSize: 0x124 }
  - { offset: 0xA6DE3, size: 0x8, addend: 0x0, symName: __RNvMNtCs6IAuOt8vWmF_3syn10punctuatedINtB2_10PunctuatedNtNtB4_2ty4TypeNtNtB4_5token5CommaE21parse_terminated_withB4_, symObjAddr: 0xA6DC, symBinAddr: 0x42E38, symSize: 0x35C }
  - { offset: 0xA6F00, size: 0x8, addend: 0x0, symName: __RNvMNtCs6IAuOt8vWmF_3syn10punctuatedINtB2_10PunctuatedNtNtB4_4data5FieldNtNtB4_5token5CommaE21parse_terminated_withB4_, symObjAddr: 0xAA38, symBinAddr: 0x43194, symSize: 0x370 }
  - { offset: 0xA701D, size: 0x8, addend: 0x0, symName: __RNvMNtCs6IAuOt8vWmF_3syn10punctuatedINtB2_10PunctuatedNtNtB4_4data7VariantNtNtB4_5token5CommaE21parse_terminated_withB4_, symObjAddr: 0xADA8, symBinAddr: 0x43504, symSize: 0x35C }
  - { offset: 0xA713A, size: 0x8, addend: 0x0, symName: __RNvMNtCs6IAuOt8vWmF_3syn10punctuatedINtB2_10PunctuatedNtNtB4_4expr4ExprNtNtB4_5token5CommaE21parse_terminated_withB4_, symObjAddr: 0xB104, symBinAddr: 0x43860, symSize: 0x35C }
  - { offset: 0xA7280, size: 0x8, addend: 0x0, symName: __RNvMsJ_NtCs6IAuOt8vWmF_3syn10punctuatedINtB5_4PairNtNtB7_4path11PathSegmentNtNtB7_5token7PathSepE10into_valueB7_, symObjAddr: 0x11644, symBinAddr: 0x46F0C, symSize: 0xD4 }
  - { offset: 0xA72FB, size: 0x8, addend: 0x0, symName: __RNvMsJ_NtCs6IAuOt8vWmF_3syn10punctuatedINtB5_4PairRNtNtB7_4path11PathSegmentRNtNtB7_5token7PathSepE5valueB7_, symObjAddr: 0x11718, symBinAddr: 0x46FE0, symSize: 0x74 }
  - { offset: 0xA7375, size: 0x8, addend: 0x0, symName: __RNvMsJ_NtCs6IAuOt8vWmF_3syn10punctuatedINtB5_4PairRNtNtB7_4path15GenericArgumentRNtNtB7_5token5CommaE5valueB7_, symObjAddr: 0x1178C, symBinAddr: 0x47054, symSize: 0x74 }
  - { offset: 0xA73E2, size: 0x8, addend: 0x0, symName: __RNvMsJ_NtCs6IAuOt8vWmF_3syn10punctuatedINtB5_4PairRNtNtB7_8generics12GenericParamRNtNtB7_5token5CommaE5valueB7_, symObjAddr: 0x11800, symBinAddr: 0x470C8, symSize: 0x74 }
  - { offset: 0xA744F, size: 0x8, addend: 0x0, symName: __RNvMsJ_NtCs6IAuOt8vWmF_3syn10punctuatedINtB5_4PairRNtNtB7_8generics13CapturedParamRNtNtB7_5token5CommaE5valueB7_, symObjAddr: 0x11874, symBinAddr: 0x4713C, symSize: 0x74 }
  - { offset: 0xA74AF, size: 0x8, addend: 0x0, symName: __RNvMsJ_NtCs6IAuOt8vWmF_3syn10punctuatedINtB5_4PairRNtNtB7_4path11PathSegmentRNtNtB7_5token7PathSepE5punctB7_, symObjAddr: 0x118E8, symBinAddr: 0x471B0, symSize: 0x78 }
  - { offset: 0xA750F, size: 0x8, addend: 0x0, symName: __RNvMsJ_NtCs6IAuOt8vWmF_3syn10punctuatedINtB5_4PairRNtNtB7_4path15GenericArgumentRNtNtB7_5token5CommaE5punctB7_, symObjAddr: 0x11960, symBinAddr: 0x47228, symSize: 0x78 }
  - { offset: 0xA7562, size: 0x8, addend: 0x0, symName: __RNvMsJ_NtCs6IAuOt8vWmF_3syn10punctuatedINtB5_4PairRNtNtB7_8generics12GenericParamRNtNtB7_5token5CommaE5punctB7_, symObjAddr: 0x119D8, symBinAddr: 0x472A0, symSize: 0x78 }
  - { offset: 0xA75B5, size: 0x8, addend: 0x0, symName: __RNvMsJ_NtCs6IAuOt8vWmF_3syn10punctuatedINtB5_4PairRNtNtB7_8generics13CapturedParamRNtNtB7_5token5CommaE5punctB7_, symObjAddr: 0x11A50, symBinAddr: 0x47318, symSize: 0x78 }
  - { offset: 0xA7A5B, size: 0x8, addend: 0x0, symName: __RINvMNtCsfvfooZQ3Axs_4core6optionINtB3_6OptionINtNtCs6IAuOt8vWmF_3syn10punctuated4PairNtNtBN_4path11PathSegmentNtNtBN_5token7PathSepEE7or_elseNCNvXsj_BL_INtBL_9IntoPairsB1m_B1L_ENtNtNtNtB5_4iter6traits8iterator8Iterator4nexts_0EBN_, symObjAddr: 0x0, symBinAddr: 0x48780, symSize: 0xD8 }
  - { offset: 0xAEAFF, size: 0x8, addend: 0x0, symName: __RNcNtINtNtCsfvfooZQ3Axs_4core6option6OptionNtCs3cP53eQoTwO_11proc_macro25IdentE4Some0Cs6IAuOt8vWmF_3syn, symObjAddr: 0x44F4, symBinAddr: 0x4BE58, symSize: 0x18 }
  - { offset: 0xAEB32, size: 0x8, addend: 0x0, symName: __RNcNtINtNtCsfvfooZQ3Axs_4core6option6OptionNtNtCs6IAuOt8vWmF_3syn2ty3AbiE4Some0BJ_, symObjAddr: 0x450C, symBinAddr: 0x4BE70, symSize: 0x2C }
  - { offset: 0xAEB65, size: 0x8, addend: 0x0, symName: __RNcNtINtNtCsfvfooZQ3Axs_4core6option6OptionNtNtCs6IAuOt8vWmF_3syn4expr5LabelE4Some0BJ_, symObjAddr: 0x4538, symBinAddr: 0x4BE9C, symSize: 0x30 }
  - { offset: 0xAEB99, size: 0x8, addend: 0x0, symName: __RNcNtINtNtCsfvfooZQ3Axs_4core6option6OptionNtNtCs6IAuOt8vWmF_3syn8generics11WhereClauseE4Some0BJ_, symObjAddr: 0x4568, symBinAddr: 0x4BECC, symSize: 0x30 }
  - { offset: 0xAEBCD, size: 0x8, addend: 0x0, symName: __RNcNtINtNtCsfvfooZQ3Axs_4core6option6OptionNtNtCs6IAuOt8vWmF_3syn8generics14BoundLifetimesE4Some0BJ_, symObjAddr: 0x4598, symBinAddr: 0x4BEFC, symSize: 0x30 }
  - { offset: 0xAF361, size: 0x8, addend: 0x0, symName: __RNvXs3_NtCsfvfooZQ3Axs_4core6optionINtB5_6OptionINtNtCse1nGBsou5OW_5alloc2rc2RcINtNtB7_4cell4CellNtNtCs6IAuOt8vWmF_3syn5parse10UnexpectedEEENtNtB7_5clone5Clone5cloneB1B_, symObjAddr: 0x6F90, symBinAddr: 0x4E4C8, symSize: 0x5C }
  - { offset: 0xAF3B6, size: 0x8, addend: 0x0, symName: __RNvXs3_NtCsfvfooZQ3Axs_4core6optionINtB5_6OptionINtNtCse1nGBsou5OW_5alloc5boxed3BoxNtNtCs6IAuOt8vWmF_3syn2ty4TypeEENtNtB7_5clone5Clone5cloneB1n_, symObjAddr: 0x6FEC, symBinAddr: 0x4E524, symSize: 0x5C }
  - { offset: 0xAF40B, size: 0x8, addend: 0x0, symName: __RNvXs3_NtCsfvfooZQ3Axs_4core6optionINtB5_6OptionINtNtCse1nGBsou5OW_5alloc5boxed3BoxNtNtCs6IAuOt8vWmF_3syn2ty9BareFnArgEENtNtB7_5clone5Clone5cloneB1n_, symObjAddr: 0x7048, symBinAddr: 0x4E580, symSize: 0x5C }
  - { offset: 0xAF460, size: 0x8, addend: 0x0, symName: __RNvXs3_NtCsfvfooZQ3Axs_4core6optionINtB5_6OptionINtNtCse1nGBsou5OW_5alloc5boxed3BoxNtNtCs6IAuOt8vWmF_3syn3pat3PatEENtNtB7_5clone5Clone5cloneB1n_, symObjAddr: 0x70A4, symBinAddr: 0x4E5DC, symSize: 0x5C }
  - { offset: 0xAF4B5, size: 0x8, addend: 0x0, symName: __RNvXs3_NtCsfvfooZQ3Axs_4core6optionINtB5_6OptionINtNtCse1nGBsou5OW_5alloc5boxed3BoxNtNtCs6IAuOt8vWmF_3syn3pat8FieldPatEENtNtB7_5clone5Clone5cloneB1n_, symObjAddr: 0x7100, symBinAddr: 0x4E638, symSize: 0x5C }
  - { offset: 0xAF50A, size: 0x8, addend: 0x0, symName: __RNvXs3_NtCsfvfooZQ3Axs_4core6optionINtB5_6OptionINtNtCse1nGBsou5OW_5alloc5boxed3BoxNtNtCs6IAuOt8vWmF_3syn4data5FieldEENtNtB7_5clone5Clone5cloneB1n_, symObjAddr: 0x715C, symBinAddr: 0x4E694, symSize: 0x5C }
  - { offset: 0xAF55F, size: 0x8, addend: 0x0, symName: __RNvXs3_NtCsfvfooZQ3Axs_4core6optionINtB5_6OptionINtNtCse1nGBsou5OW_5alloc5boxed3BoxNtNtCs6IAuOt8vWmF_3syn4data7VariantEENtNtB7_5clone5Clone5cloneB1n_, symObjAddr: 0x71B8, symBinAddr: 0x4E6F0, symSize: 0x5C }
  - { offset: 0xAF5B4, size: 0x8, addend: 0x0, symName: __RNvXs3_NtCsfvfooZQ3Axs_4core6optionINtB5_6OptionINtNtCse1nGBsou5OW_5alloc5boxed3BoxNtNtCs6IAuOt8vWmF_3syn4expr10FieldValueEENtNtB7_5clone5Clone5cloneB1n_, symObjAddr: 0x7214, symBinAddr: 0x4E74C, symSize: 0x5C }
  - { offset: 0xAF609, size: 0x8, addend: 0x0, symName: __RNvXs3_NtCsfvfooZQ3Axs_4core6optionINtB5_6OptionINtNtCse1nGBsou5OW_5alloc5boxed3BoxNtNtCs6IAuOt8vWmF_3syn4expr4ExprEENtNtB7_5clone5Clone5cloneB1n_, symObjAddr: 0x7270, symBinAddr: 0x4E7A8, symSize: 0x5C }
  - { offset: 0xAF65E, size: 0x8, addend: 0x0, symName: __RNvXs3_NtCsfvfooZQ3Axs_4core6optionINtB5_6OptionINtNtCse1nGBsou5OW_5alloc5boxed3BoxNtNtCs6IAuOt8vWmF_3syn4item5FnArgEENtNtB7_5clone5Clone5cloneB1n_, symObjAddr: 0x72CC, symBinAddr: 0x4E804, symSize: 0x5C }
  - { offset: 0xAF6B3, size: 0x8, addend: 0x0, symName: __RNvXs3_NtCsfvfooZQ3Axs_4core6optionINtB5_6OptionINtNtCse1nGBsou5OW_5alloc5boxed3BoxNtNtCs6IAuOt8vWmF_3syn4item7UseTreeEENtNtB7_5clone5Clone5cloneB1n_, symObjAddr: 0x7328, symBinAddr: 0x4E860, symSize: 0x5C }
  - { offset: 0xAF708, size: 0x8, addend: 0x0, symName: __RNvXs3_NtCsfvfooZQ3Axs_4core6optionINtB5_6OptionINtNtCse1nGBsou5OW_5alloc5boxed3BoxNtNtCs6IAuOt8vWmF_3syn4path11PathSegmentEENtNtB7_5clone5Clone5cloneB1n_, symObjAddr: 0x7384, symBinAddr: 0x4E8BC, symSize: 0x5C }
  - { offset: 0xAF75D, size: 0x8, addend: 0x0, symName: __RNvXs3_NtCsfvfooZQ3Axs_4core6optionINtB5_6OptionINtNtCse1nGBsou5OW_5alloc5boxed3BoxNtNtCs6IAuOt8vWmF_3syn4path15GenericArgumentEENtNtB7_5clone5Clone5cloneB1n_, symObjAddr: 0x73E0, symBinAddr: 0x4E918, symSize: 0x5C }
  - { offset: 0xAF7B2, size: 0x8, addend: 0x0, symName: __RNvXs3_NtCsfvfooZQ3Axs_4core6optionINtB5_6OptionINtNtCse1nGBsou5OW_5alloc5boxed3BoxNtNtCs6IAuOt8vWmF_3syn8generics12GenericParamEENtNtB7_5clone5Clone5cloneB1n_, symObjAddr: 0x743C, symBinAddr: 0x4E974, symSize: 0x5C }
  - { offset: 0xAF807, size: 0x8, addend: 0x0, symName: __RNvXs3_NtCsfvfooZQ3Axs_4core6optionINtB5_6OptionINtNtCse1nGBsou5OW_5alloc5boxed3BoxNtNtCs6IAuOt8vWmF_3syn8generics13CapturedParamEENtNtB7_5clone5Clone5cloneB1n_, symObjAddr: 0x7498, symBinAddr: 0x4E9D0, symSize: 0x5C }
  - { offset: 0xAF85C, size: 0x8, addend: 0x0, symName: __RNvXs3_NtCsfvfooZQ3Axs_4core6optionINtB5_6OptionINtNtCse1nGBsou5OW_5alloc5boxed3BoxNtNtCs6IAuOt8vWmF_3syn8generics14TypeParamBoundEENtNtB7_5clone5Clone5cloneB1n_, symObjAddr: 0x74F4, symBinAddr: 0x4EA2C, symSize: 0x5C }
  - { offset: 0xAF8B1, size: 0x8, addend: 0x0, symName: __RNvXs3_NtCsfvfooZQ3Axs_4core6optionINtB5_6OptionINtNtCse1nGBsou5OW_5alloc5boxed3BoxNtNtCs6IAuOt8vWmF_3syn8generics14WherePredicateEENtNtB7_5clone5Clone5cloneB1n_, symObjAddr: 0x7550, symBinAddr: 0x4EA88, symSize: 0x5C }
  - { offset: 0xAF906, size: 0x8, addend: 0x0, symName: __RNvXs3_NtCsfvfooZQ3Axs_4core6optionINtB5_6OptionINtNtCse1nGBsou5OW_5alloc5boxed3BoxNtNtCs6IAuOt8vWmF_3syn8lifetime8LifetimeEENtNtB7_5clone5Clone5cloneB1n_, symObjAddr: 0x75AC, symBinAddr: 0x4EAE4, symSize: 0x5C }
  - { offset: 0xAF95B, size: 0x8, addend: 0x0, symName: __RNvXs3_NtCsfvfooZQ3Axs_4core6optionINtB5_6OptionNtCs3cP53eQoTwO_11proc_macro25IdentENtNtB7_5clone5Clone5cloneCs6IAuOt8vWmF_3syn, symObjAddr: 0x7608, symBinAddr: 0x4EB40, symSize: 0x78 }
  - { offset: 0xAF9B0, size: 0x8, addend: 0x0, symName: __RNvXs3_NtCsfvfooZQ3Axs_4core6optionINtB5_6OptionNtNtCs6IAuOt8vWmF_3syn2ty12BareVariadicENtNtB7_5clone5Clone5cloneBO_, symObjAddr: 0x7680, symBinAddr: 0x4EBB8, symSize: 0x80 }
  - { offset: 0xAFA05, size: 0x8, addend: 0x0, symName: __RNvXs3_NtCsfvfooZQ3Axs_4core6optionINtB5_6OptionNtNtCs6IAuOt8vWmF_3syn2ty3AbiENtNtB7_5clone5Clone5cloneBO_, symObjAddr: 0x7700, symBinAddr: 0x4EC38, symSize: 0x6C }
  - { offset: 0xAFA5A, size: 0x8, addend: 0x0, symName: __RNvXs3_NtCsfvfooZQ3Axs_4core6optionINtB5_6OptionNtNtCs6IAuOt8vWmF_3syn2ty4TypeENtNtB7_5clone5Clone5cloneBO_, symObjAddr: 0x776C, symBinAddr: 0x4ECA4, symSize: 0x84 }
  - { offset: 0xAFAAF, size: 0x8, addend: 0x0, symName: __RNvXs3_NtCsfvfooZQ3Axs_4core6optionINtB5_6OptionNtNtCs6IAuOt8vWmF_3syn3lit6LitStrENtNtB7_5clone5Clone5cloneBO_, symObjAddr: 0x77F0, symBinAddr: 0x4ED28, symSize: 0x5C }
  - { offset: 0xAFB04, size: 0x8, addend: 0x0, symName: __RNvXs3_NtCsfvfooZQ3Axs_4core6optionINtB5_6OptionNtNtCs6IAuOt8vWmF_3syn3pat7PatRestENtNtB7_5clone5Clone5cloneBO_, symObjAddr: 0x784C, symBinAddr: 0x4ED84, symSize: 0x7C }
  - { offset: 0xAFB59, size: 0x8, addend: 0x0, symName: __RNvXs3_NtCsfvfooZQ3Axs_4core6optionINtB5_6OptionNtNtCs6IAuOt8vWmF_3syn4expr4ExprENtNtB7_5clone5Clone5cloneBO_, symObjAddr: 0x78C8, symBinAddr: 0x4EE00, symSize: 0x7C }
  - { offset: 0xAFBAE, size: 0x8, addend: 0x0, symName: __RNvXs3_NtCsfvfooZQ3Axs_4core6optionINtB5_6OptionNtNtCs6IAuOt8vWmF_3syn4expr5LabelENtNtB7_5clone5Clone5cloneBO_, symObjAddr: 0x7944, symBinAddr: 0x4EE7C, symSize: 0x7C }
  - { offset: 0xAFC03, size: 0x8, addend: 0x0, symName: __RNvXs3_NtCsfvfooZQ3Axs_4core6optionINtB5_6OptionNtNtCs6IAuOt8vWmF_3syn4item15ImplRestrictionENtNtB7_5clone5Clone5cloneBO_, symObjAddr: 0x79C0, symBinAddr: 0x4EEF8, symSize: 0x18 }
  - { offset: 0xAFC36, size: 0x8, addend: 0x0, symName: __RNvXs3_NtCsfvfooZQ3Axs_4core6optionINtB5_6OptionNtNtCs6IAuOt8vWmF_3syn4item8VariadicENtNtB7_5clone5Clone5cloneBO_, symObjAddr: 0x79D8, symBinAddr: 0x4EF10, symSize: 0x80 }
  - { offset: 0xAFC8B, size: 0x8, addend: 0x0, symName: __RNvXs3_NtCsfvfooZQ3Axs_4core6optionINtB5_6OptionNtNtCs6IAuOt8vWmF_3syn4path30AngleBracketedGenericArgumentsENtNtB7_5clone5Clone5cloneBO_, symObjAddr: 0x7A58, symBinAddr: 0x4EF90, symSize: 0x80 }
  - { offset: 0xAFCE0, size: 0x8, addend: 0x0, symName: __RNvXs3_NtCsfvfooZQ3Axs_4core6optionINtB5_6OptionNtNtCs6IAuOt8vWmF_3syn4path5QSelfENtNtB7_5clone5Clone5cloneBO_, symObjAddr: 0x7AD8, symBinAddr: 0x4F010, symSize: 0x78 }
  - { offset: 0xAFD35, size: 0x8, addend: 0x0, symName: __RNvXs3_NtCsfvfooZQ3Axs_4core6optionINtB5_6OptionNtNtCs6IAuOt8vWmF_3syn4stmt5BlockENtNtB7_5clone5Clone5cloneBO_, symObjAddr: 0x7B50, symBinAddr: 0x4F088, symSize: 0x80 }
  - { offset: 0xAFD8A, size: 0x8, addend: 0x0, symName: __RNvXs3_NtCsfvfooZQ3Axs_4core6optionINtB5_6OptionNtNtCs6IAuOt8vWmF_3syn4stmt9LocalInitENtNtB7_5clone5Clone5cloneBO_, symObjAddr: 0x7BD0, symBinAddr: 0x4F108, symSize: 0x74 }
  - { offset: 0xAFDDF, size: 0x8, addend: 0x0, symName: __RNvXs3_NtCsfvfooZQ3Axs_4core6optionINtB5_6OptionNtNtCs6IAuOt8vWmF_3syn5token2AsENtNtB7_5clone5Clone5cloneBO_, symObjAddr: 0x7C44, symBinAddr: 0x4F17C, symSize: 0x64 }
  - { offset: 0xAFE34, size: 0x8, addend: 0x0, symName: __RNvXs3_NtCsfvfooZQ3Axs_4core6optionINtB5_6OptionNtNtCs6IAuOt8vWmF_3syn5token2EqENtNtB7_5clone5Clone5cloneBO_, symObjAddr: 0x7CA8, symBinAddr: 0x4F1E0, symSize: 0x70 }
  - { offset: 0xAFE89, size: 0x8, addend: 0x0, symName: __RNvXs3_NtCsfvfooZQ3Axs_4core6optionINtB5_6OptionNtNtCs6IAuOt8vWmF_3syn5token2GtENtNtB7_5clone5Clone5cloneBO_, symObjAddr: 0x7D18, symBinAddr: 0x4F250, symSize: 0x70 }
  - { offset: 0xAFEDE, size: 0x8, addend: 0x0, symName: __RNvXs3_NtCsfvfooZQ3Axs_4core6optionINtB5_6OptionNtNtCs6IAuOt8vWmF_3syn5token2InENtNtB7_5clone5Clone5cloneBO_, symObjAddr: 0x7D88, symBinAddr: 0x4F2C0, symSize: 0x64 }
  - { offset: 0xAFF33, size: 0x8, addend: 0x0, symName: __RNvXs3_NtCsfvfooZQ3Axs_4core6optionINtB5_6OptionNtNtCs6IAuOt8vWmF_3syn5token2LtENtNtB7_5clone5Clone5cloneBO_, symObjAddr: 0x7DEC, symBinAddr: 0x4F324, symSize: 0x70 }
  - { offset: 0xAFF88, size: 0x8, addend: 0x0, symName: __RNvXs3_NtCsfvfooZQ3Axs_4core6optionINtB5_6OptionNtNtCs6IAuOt8vWmF_3syn5token2OrENtNtB7_5clone5Clone5cloneBO_, symObjAddr: 0x7E5C, symBinAddr: 0x4F394, symSize: 0x70 }
  - { offset: 0xAFFDD, size: 0x8, addend: 0x0, symName: __RNvXs3_NtCsfvfooZQ3Axs_4core6optionINtB5_6OptionNtNtCs6IAuOt8vWmF_3syn5token3DynENtNtB7_5clone5Clone5cloneBO_, symObjAddr: 0x7ECC, symBinAddr: 0x4F404, symSize: 0x64 }
  - { offset: 0xB0032, size: 0x8, addend: 0x0, symName: __RNvXs3_NtCsfvfooZQ3Axs_4core6optionINtB5_6OptionNtNtCs6IAuOt8vWmF_3syn5token3MutENtNtB7_5clone5Clone5cloneBO_, symObjAddr: 0x7F30, symBinAddr: 0x4F468, symSize: 0x64 }
  - { offset: 0xB0087, size: 0x8, addend: 0x0, symName: __RNvXs3_NtCsfvfooZQ3Axs_4core6optionINtB5_6OptionNtNtCs6IAuOt8vWmF_3syn5token3NotENtNtB7_5clone5Clone5cloneBO_, symObjAddr: 0x7F94, symBinAddr: 0x4F4CC, symSize: 0x70 }
  - { offset: 0xB00DC, size: 0x8, addend: 0x0, symName: __RNvXs3_NtCsfvfooZQ3Axs_4core6optionINtB5_6OptionNtNtCs6IAuOt8vWmF_3syn5token3RefENtNtB7_5clone5Clone5cloneBO_, symObjAddr: 0x8004, symBinAddr: 0x4F53C, symSize: 0x64 }
  - { offset: 0xB0131, size: 0x8, addend: 0x0, symName: __RNvXs3_NtCsfvfooZQ3Axs_4core6optionINtB5_6OptionNtNtCs6IAuOt8vWmF_3syn5token4AutoENtNtB7_5clone5Clone5cloneBO_, symObjAddr: 0x8068, symBinAddr: 0x4F5A0, symSize: 0x64 }
  - { offset: 0xB0186, size: 0x8, addend: 0x0, symName: __RNvXs3_NtCsfvfooZQ3Axs_4core6optionINtB5_6OptionNtNtCs6IAuOt8vWmF_3syn5token4MoveENtNtB7_5clone5Clone5cloneBO_, symObjAddr: 0x80CC, symBinAddr: 0x4F604, symSize: 0x64 }
  - { offset: 0xB01DB, size: 0x8, addend: 0x0, symName: __RNvXs3_NtCsfvfooZQ3Axs_4core6optionINtB5_6OptionNtNtCs6IAuOt8vWmF_3syn5token4SemiENtNtB7_5clone5Clone5cloneBO_, symObjAddr: 0x8130, symBinAddr: 0x4F668, symSize: 0x70 }
  - { offset: 0xB0230, size: 0x8, addend: 0x0, symName: __RNvXs3_NtCsfvfooZQ3Axs_4core6optionINtB5_6OptionNtNtCs6IAuOt8vWmF_3syn5token5AsyncENtNtB7_5clone5Clone5cloneBO_, symObjAddr: 0x81A0, symBinAddr: 0x4F6D8, symSize: 0x64 }
  - { offset: 0xB0285, size: 0x8, addend: 0x0, symName: __RNvXs3_NtCsfvfooZQ3Axs_4core6optionINtB5_6OptionNtNtCs6IAuOt8vWmF_3syn5token5ColonENtNtB7_5clone5Clone5cloneBO_, symObjAddr: 0x8204, symBinAddr: 0x4F73C, symSize: 0x70 }
  - { offset: 0xB02DA, size: 0x8, addend: 0x0, symName: __RNvXs3_NtCsfvfooZQ3Axs_4core6optionINtB5_6OptionNtNtCs6IAuOt8vWmF_3syn5token5CommaENtNtB7_5clone5Clone5cloneBO_, symObjAddr: 0x8274, symBinAddr: 0x4F7AC, symSize: 0x70 }
  - { offset: 0xB032F, size: 0x8, addend: 0x0, symName: __RNvXs3_NtCsfvfooZQ3Axs_4core6optionINtB5_6OptionNtNtCs6IAuOt8vWmF_3syn5token5ConstENtNtB7_5clone5Clone5cloneBO_, symObjAddr: 0x82E4, symBinAddr: 0x4F81C, symSize: 0x64 }
  - { offset: 0xB0384, size: 0x8, addend: 0x0, symName: __RNvXs3_NtCsfvfooZQ3Axs_4core6optionINtB5_6OptionNtNtCs6IAuOt8vWmF_3syn5token5ParenENtNtB7_5clone5Clone5cloneBO_, symObjAddr: 0x8348, symBinAddr: 0x4F880, symSize: 0x78 }
  - { offset: 0xB03D9, size: 0x8, addend: 0x0, symName: __RNvXs3_NtCsfvfooZQ3Axs_4core6optionINtB5_6OptionNtNtCs6IAuOt8vWmF_3syn5token6DotDotENtNtB7_5clone5Clone5cloneBO_, symObjAddr: 0x83C0, symBinAddr: 0x4F8F8, symSize: 0x78 }
  - { offset: 0xB042E, size: 0x8, addend: 0x0, symName: __RNvXs3_NtCsfvfooZQ3Axs_4core6optionINtB5_6OptionNtNtCs6IAuOt8vWmF_3syn5token6StaticENtNtB7_5clone5Clone5cloneBO_, symObjAddr: 0x8438, symBinAddr: 0x4F970, symSize: 0x64 }
  - { offset: 0xB0483, size: 0x8, addend: 0x0, symName: __RNvXs3_NtCsfvfooZQ3Axs_4core6optionINtB5_6OptionNtNtCs6IAuOt8vWmF_3syn5token6UnsafeENtNtB7_5clone5Clone5cloneBO_, symObjAddr: 0x849C, symBinAddr: 0x4F9D4, symSize: 0x64 }
  - { offset: 0xB04D8, size: 0x8, addend: 0x0, symName: __RNvXs3_NtCsfvfooZQ3Axs_4core6optionINtB5_6OptionNtNtCs6IAuOt8vWmF_3syn5token7DefaultENtNtB7_5clone5Clone5cloneBO_, symObjAddr: 0x8500, symBinAddr: 0x4FA38, symSize: 0x64 }
  - { offset: 0xB052D, size: 0x8, addend: 0x0, symName: __RNvXs3_NtCsfvfooZQ3Axs_4core6optionINtB5_6OptionNtNtCs6IAuOt8vWmF_3syn5token7PathSepENtNtB7_5clone5Clone5cloneBO_, symObjAddr: 0x8564, symBinAddr: 0x4FA9C, symSize: 0x78 }
  - { offset: 0xB0582, size: 0x8, addend: 0x0, symName: __RNvXs3_NtCsfvfooZQ3Axs_4core6optionINtB5_6OptionNtNtCs6IAuOt8vWmF_3syn8generics11WhereClauseENtNtB7_5clone5Clone5cloneBO_, symObjAddr: 0x85DC, symBinAddr: 0x4FB14, symSize: 0x80 }
  - { offset: 0xB05D7, size: 0x8, addend: 0x0, symName: __RNvXs3_NtCsfvfooZQ3Axs_4core6optionINtB5_6OptionNtNtCs6IAuOt8vWmF_3syn8generics14BoundLifetimesENtNtB7_5clone5Clone5cloneBO_, symObjAddr: 0x865C, symBinAddr: 0x4FB94, symSize: 0x80 }
  - { offset: 0xB062C, size: 0x8, addend: 0x0, symName: __RNvXs3_NtCsfvfooZQ3Axs_4core6optionINtB5_6OptionNtNtCs6IAuOt8vWmF_3syn8lifetime8LifetimeENtNtB7_5clone5Clone5cloneBO_, symObjAddr: 0x86DC, symBinAddr: 0x4FC14, symSize: 0x78 }
  - { offset: 0xB0681, size: 0x8, addend: 0x0, symName: __RNvXs3_NtCsfvfooZQ3Axs_4core6optionINtB5_6OptionTIBy_NtNtCs6IAuOt8vWmF_3syn5token3NotENtNtBT_4path4PathNtBR_3ForEENtNtB7_5clone5Clone5cloneBT_, symObjAddr: 0x87D0, symBinAddr: 0x4FC8C, symSize: 0x80 }
  - { offset: 0xB06D6, size: 0x8, addend: 0x0, symName: __RNvXs3_NtCsfvfooZQ3Axs_4core6optionINtB5_6OptionTINtNtCse1nGBsou5OW_5alloc5boxed3BoxNtNtCs6IAuOt8vWmF_3syn3pat3PatENtNtB1o_5token5ColonEENtNtB7_5clone5Clone5cloneB1o_, symObjAddr: 0x8850, symBinAddr: 0x4FD0C, symSize: 0x6C }
  - { offset: 0xB072B, size: 0x8, addend: 0x0, symName: __RNvXs3_NtCsfvfooZQ3Axs_4core6optionINtB5_6OptionTNtCs3cP53eQoTwO_11proc_macro25IdentNtNtCs6IAuOt8vWmF_3syn5token5ColonEENtNtB7_5clone5Clone5cloneB1o_, symObjAddr: 0x88BC, symBinAddr: 0x4FD78, symSize: 0x78 }
  - { offset: 0xB0780, size: 0x8, addend: 0x0, symName: __RNvXs3_NtCsfvfooZQ3Axs_4core6optionINtB5_6OptionTNtNtCs6IAuOt8vWmF_3syn5token2AsNtCs3cP53eQoTwO_11proc_macro25IdentEENtNtB7_5clone5Clone5cloneBP_, symObjAddr: 0x8934, symBinAddr: 0x4FDF0, symSize: 0x78 }
  - { offset: 0xB07D5, size: 0x8, addend: 0x0, symName: __RNvXs3_NtCsfvfooZQ3Axs_4core6optionINtB5_6OptionTNtNtCs6IAuOt8vWmF_3syn5token2AtINtNtCse1nGBsou5OW_5alloc5boxed3BoxNtNtBP_3pat3PatEEENtNtB7_5clone5Clone5cloneBP_, symObjAddr: 0x89AC, symBinAddr: 0x4FE68, symSize: 0x6C }
  - { offset: 0xB082A, size: 0x8, addend: 0x0, symName: __RNvXs3_NtCsfvfooZQ3Axs_4core6optionINtB5_6OptionTNtNtCs6IAuOt8vWmF_3syn5token2EqNtNtBP_2ty4TypeEENtNtB7_5clone5Clone5cloneBP_, symObjAddr: 0x8A18, symBinAddr: 0x4FED4, symSize: 0x84 }
  - { offset: 0xB087F, size: 0x8, addend: 0x0, symName: __RNvXs3_NtCsfvfooZQ3Axs_4core6optionINtB5_6OptionTNtNtCs6IAuOt8vWmF_3syn5token2EqNtNtBP_4expr4ExprEENtNtB7_5clone5Clone5cloneBP_, symObjAddr: 0x8A9C, symBinAddr: 0x4FF58, symSize: 0x7C }
  - { offset: 0xB08D4, size: 0x8, addend: 0x0, symName: __RNvXs3_NtCsfvfooZQ3Axs_4core6optionINtB5_6OptionTNtNtCs6IAuOt8vWmF_3syn5token2IfINtNtCse1nGBsou5OW_5alloc5boxed3BoxNtNtBP_4expr4ExprEEENtNtB7_5clone5Clone5cloneBP_, symObjAddr: 0x8B18, symBinAddr: 0x4FFD4, symSize: 0x64 }
  - { offset: 0xB0929, size: 0x8, addend: 0x0, symName: __RNvXs3_NtCsfvfooZQ3Axs_4core6optionINtB5_6OptionTNtNtCs6IAuOt8vWmF_3syn5token3AndIBy_NtNtBP_8lifetime8LifetimeEEENtNtB7_5clone5Clone5cloneBP_, symObjAddr: 0x8B7C, symBinAddr: 0x50038, symSize: 0x7C }
  - { offset: 0xB097E, size: 0x8, addend: 0x0, symName: __RNvXs3_NtCsfvfooZQ3Axs_4core6optionINtB5_6OptionTNtNtCs6IAuOt8vWmF_3syn5token4ElseINtNtCse1nGBsou5OW_5alloc5boxed3BoxNtNtBP_4expr4ExprEEENtNtB7_5clone5Clone5cloneBP_, symObjAddr: 0x8BF8, symBinAddr: 0x500B4, symSize: 0x64 }
  - { offset: 0xB09D3, size: 0x8, addend: 0x0, symName: __RNvXs3_NtCsfvfooZQ3Axs_4core6optionINtB5_6OptionTNtNtCs6IAuOt8vWmF_3syn5token5BraceINtNtCse1nGBsou5OW_5alloc3vec3VecNtNtBP_4item4ItemEEENtNtB7_5clone5Clone5cloneBP_, symObjAddr: 0x8C5C, symBinAddr: 0x50118, symSize: 0x80 }
  - { offset: 0xB0AD0, size: 0x8, addend: 0x0, symName: __RNvXs4_NtCsfvfooZQ3Axs_4core6optionINtB5_6OptionINtNtCse1nGBsou5OW_5alloc2rc2RcINtNtB7_4cell4CellNtNtCs6IAuOt8vWmF_3syn5parse10UnexpectedEEENtNtB7_7default7Default7defaultB1B_, symObjAddr: 0x8CDC, symBinAddr: 0x50198, symSize: 0x14 }
  - { offset: 0xB0AFE, size: 0x8, addend: 0x0, symName: __RNvXs5_NtCsfvfooZQ3Axs_4core6optionINtB5_6OptionNtNtCs6IAuOt8vWmF_3syn4path11PathSegmentENtNtNtNtB7_4iter6traits7collect12IntoIterator9into_iterBO_, symObjAddr: 0x8D40, symBinAddr: 0x501AC, symSize: 0x48 }
  - { offset: 0xB0B36, size: 0x8, addend: 0x0, symName: __RNvXs5_NtCsfvfooZQ3Axs_4core6optionINtB5_6OptionNtNtCs6IAuOt8vWmF_3syn8generics14TypeParamBoundENtNtNtNtB7_4iter6traits7collect12IntoIterator9into_iterBO_, symObjAddr: 0x8D88, symBinAddr: 0x501F4, symSize: 0x48 }
  - { offset: 0xB0B6E, size: 0x8, addend: 0x0, symName: __RNvXs5_NtCsfvfooZQ3Axs_4core6optionINtB5_6OptionQNtNtCs6IAuOt8vWmF_3syn4path11PathSegmentENtNtNtNtB7_4iter6traits7collect12IntoIterator9into_iterBP_, symObjAddr: 0x8DE4, symBinAddr: 0x5023C, symSize: 0x14 }
  - { offset: 0xB0BA5, size: 0x8, addend: 0x0, symName: __RNvXs5_NtCsfvfooZQ3Axs_4core6optionINtB5_6OptionQNtNtCs6IAuOt8vWmF_3syn8generics12GenericParamENtNtNtNtB7_4iter6traits7collect12IntoIterator9into_iterBP_, symObjAddr: 0x8DF8, symBinAddr: 0x50250, symSize: 0x14 }
  - { offset: 0xB0BDC, size: 0x8, addend: 0x0, symName: __RNvXs5_NtCsfvfooZQ3Axs_4core6optionINtB5_6OptionRNtNtCs6IAuOt8vWmF_3syn2ty4TypeENtNtNtNtB7_4iter6traits7collect12IntoIterator9into_iterBP_, symObjAddr: 0x8E0C, symBinAddr: 0x50264, symSize: 0x14 }
  - { offset: 0xB0C13, size: 0x8, addend: 0x0, symName: __RNvXs5_NtCsfvfooZQ3Axs_4core6optionINtB5_6OptionRNtNtCs6IAuOt8vWmF_3syn2ty9BareFnArgENtNtNtNtB7_4iter6traits7collect12IntoIterator9into_iterBP_, symObjAddr: 0x8E20, symBinAddr: 0x50278, symSize: 0x14 }
  - { offset: 0xB0C4A, size: 0x8, addend: 0x0, symName: __RNvXs5_NtCsfvfooZQ3Axs_4core6optionINtB5_6OptionRNtNtCs6IAuOt8vWmF_3syn3pat3PatENtNtNtNtB7_4iter6traits7collect12IntoIterator9into_iterBP_, symObjAddr: 0x8E34, symBinAddr: 0x5028C, symSize: 0x14 }
  - { offset: 0xB0C81, size: 0x8, addend: 0x0, symName: __RNvXs5_NtCsfvfooZQ3Axs_4core6optionINtB5_6OptionRNtNtCs6IAuOt8vWmF_3syn3pat8FieldPatENtNtNtNtB7_4iter6traits7collect12IntoIterator9into_iterBP_, symObjAddr: 0x8E48, symBinAddr: 0x502A0, symSize: 0x14 }
  - { offset: 0xB0CB8, size: 0x8, addend: 0x0, symName: __RNvXs5_NtCsfvfooZQ3Axs_4core6optionINtB5_6OptionRNtNtCs6IAuOt8vWmF_3syn4data5FieldENtNtNtNtB7_4iter6traits7collect12IntoIterator9into_iterBP_, symObjAddr: 0x8E5C, symBinAddr: 0x502B4, symSize: 0x14 }
  - { offset: 0xB0CEF, size: 0x8, addend: 0x0, symName: __RNvXs5_NtCsfvfooZQ3Axs_4core6optionINtB5_6OptionRNtNtCs6IAuOt8vWmF_3syn4data7VariantENtNtNtNtB7_4iter6traits7collect12IntoIterator9into_iterBP_, symObjAddr: 0x8E70, symBinAddr: 0x502C8, symSize: 0x14 }
  - { offset: 0xB0D26, size: 0x8, addend: 0x0, symName: __RNvXs5_NtCsfvfooZQ3Axs_4core6optionINtB5_6OptionRNtNtCs6IAuOt8vWmF_3syn4expr10FieldValueENtNtNtNtB7_4iter6traits7collect12IntoIterator9into_iterBP_, symObjAddr: 0x8E84, symBinAddr: 0x502DC, symSize: 0x14 }
  - { offset: 0xB0D5D, size: 0x8, addend: 0x0, symName: __RNvXs5_NtCsfvfooZQ3Axs_4core6optionINtB5_6OptionRNtNtCs6IAuOt8vWmF_3syn4expr4ExprENtNtNtNtB7_4iter6traits7collect12IntoIterator9into_iterBP_, symObjAddr: 0x8E98, symBinAddr: 0x502F0, symSize: 0x14 }
  - { offset: 0xB0D94, size: 0x8, addend: 0x0, symName: __RNvXs5_NtCsfvfooZQ3Axs_4core6optionINtB5_6OptionRNtNtCs6IAuOt8vWmF_3syn4item5FnArgENtNtNtNtB7_4iter6traits7collect12IntoIterator9into_iterBP_, symObjAddr: 0x8EAC, symBinAddr: 0x50304, symSize: 0x14 }
  - { offset: 0xB0DCB, size: 0x8, addend: 0x0, symName: __RNvXs5_NtCsfvfooZQ3Axs_4core6optionINtB5_6OptionRNtNtCs6IAuOt8vWmF_3syn4item7UseTreeENtNtNtNtB7_4iter6traits7collect12IntoIterator9into_iterBP_, symObjAddr: 0x8EC0, symBinAddr: 0x50318, symSize: 0x14 }
  - { offset: 0xB0E02, size: 0x8, addend: 0x0, symName: __RNvXs5_NtCsfvfooZQ3Axs_4core6optionINtB5_6OptionRNtNtCs6IAuOt8vWmF_3syn4path11PathSegmentENtNtNtNtB7_4iter6traits7collect12IntoIterator9into_iterBP_, symObjAddr: 0x8ED4, symBinAddr: 0x5032C, symSize: 0x14 }
  - { offset: 0xB0E39, size: 0x8, addend: 0x0, symName: __RNvXs5_NtCsfvfooZQ3Axs_4core6optionINtB5_6OptionRNtNtCs6IAuOt8vWmF_3syn4path15GenericArgumentENtNtNtNtB7_4iter6traits7collect12IntoIterator9into_iterBP_, symObjAddr: 0x8EE8, symBinAddr: 0x50340, symSize: 0x14 }
  - { offset: 0xB0E70, size: 0x8, addend: 0x0, symName: __RNvXs5_NtCsfvfooZQ3Axs_4core6optionINtB5_6OptionRNtNtCs6IAuOt8vWmF_3syn8generics12GenericParamENtNtNtNtB7_4iter6traits7collect12IntoIterator9into_iterBP_, symObjAddr: 0x8EFC, symBinAddr: 0x50354, symSize: 0x14 }
  - { offset: 0xB0EA7, size: 0x8, addend: 0x0, symName: __RNvXs5_NtCsfvfooZQ3Axs_4core6optionINtB5_6OptionRNtNtCs6IAuOt8vWmF_3syn8generics13CapturedParamENtNtNtNtB7_4iter6traits7collect12IntoIterator9into_iterBP_, symObjAddr: 0x8F10, symBinAddr: 0x50368, symSize: 0x14 }
  - { offset: 0xB0EDE, size: 0x8, addend: 0x0, symName: __RNvXs5_NtCsfvfooZQ3Axs_4core6optionINtB5_6OptionRNtNtCs6IAuOt8vWmF_3syn8generics14TypeParamBoundENtNtNtNtB7_4iter6traits7collect12IntoIterator9into_iterBP_, symObjAddr: 0x8F24, symBinAddr: 0x5037C, symSize: 0x14 }
  - { offset: 0xB0F15, size: 0x8, addend: 0x0, symName: __RNvXs5_NtCsfvfooZQ3Axs_4core6optionINtB5_6OptionRNtNtCs6IAuOt8vWmF_3syn8generics14WherePredicateENtNtNtNtB7_4iter6traits7collect12IntoIterator9into_iterBP_, symObjAddr: 0x8F38, symBinAddr: 0x50390, symSize: 0x14 }
  - { offset: 0xB0F4C, size: 0x8, addend: 0x0, symName: __RNvXs5_NtCsfvfooZQ3Axs_4core6optionINtB5_6OptionRNtNtCs6IAuOt8vWmF_3syn8lifetime8LifetimeENtNtNtNtB7_4iter6traits7collect12IntoIterator9into_iterBP_, symObjAddr: 0x8F4C, symBinAddr: 0x503A4, symSize: 0x14 }
  - { offset: 0xB0F89, size: 0x8, addend: 0x0, symName: __RNvXsB_NtCsfvfooZQ3Axs_4core6optionINtB5_6OptionQNtNtCs6IAuOt8vWmF_3syn8generics12GenericParamENtNtNtB7_3ops9try_trait3Try6branchBP_, symObjAddr: 0x900C, symBinAddr: 0x503B8, symSize: 0x40 }
  - { offset: 0xB0FDE, size: 0x8, addend: 0x0, symName: __RNvXsB_NtCsfvfooZQ3Axs_4core6optionINtB5_6OptionRhENtNtNtB7_3ops9try_trait3Try6branchCs6IAuOt8vWmF_3syn, symObjAddr: 0x918C, symBinAddr: 0x503F8, symSize: 0x40 }
  - { offset: 0xB1033, size: 0x8, addend: 0x0, symName: __RNvXsB_NtCsfvfooZQ3Axs_4core6optionINtB5_6OptionTINtNtCse1nGBsou5OW_5alloc5boxed3BoxeEBL_EENtNtNtB7_3ops9try_trait3Try6branchCs6IAuOt8vWmF_3syn, symObjAddr: 0x91CC, symBinAddr: 0x50438, symSize: 0x60 }
  - { offset: 0xB1089, size: 0x8, addend: 0x0, symName: __RNvXsB_NtCsfvfooZQ3Axs_4core6optionINtB5_6OptionTNtCs3cP53eQoTwO_11proc_macro25IdentNtNtCs6IAuOt8vWmF_3syn6buffer6CursorEENtNtNtB7_3ops9try_trait3Try6branchB1o_, symObjAddr: 0x922C, symBinAddr: 0x50498, symSize: 0x74 }
  - { offset: 0xB10DF, size: 0x8, addend: 0x0, symName: __RNvXsB_NtCsfvfooZQ3Axs_4core6optionINtB5_6OptionTNtCs3cP53eQoTwO_11proc_macro27LiteralNtNtCs6IAuOt8vWmF_3syn6buffer6CursorEENtNtNtB7_3ops9try_trait3Try6branchB1q_, symObjAddr: 0x92A0, symBinAddr: 0x5050C, symSize: 0x78 }
  - { offset: 0xB1135, size: 0x8, addend: 0x0, symName: __RNvXsB_NtCsfvfooZQ3Axs_4core6optionINtB5_6OptionjENtNtNtB7_3ops9try_trait3Try11from_outputCs6IAuOt8vWmF_3syn, symObjAddr: 0x9318, symBinAddr: 0x50584, symSize: 0x24 }
  - { offset: 0xB116C, size: 0x8, addend: 0x0, symName: __RNvXsB_NtCsfvfooZQ3Axs_4core6optionINtB5_6OptionjENtNtNtB7_3ops9try_trait3Try6branchCs6IAuOt8vWmF_3syn, symObjAddr: 0x933C, symBinAddr: 0x505A8, symSize: 0x48 }
  - { offset: 0xB11C7, size: 0x8, addend: 0x0, symName: __RNvXsC_NtCsfvfooZQ3Axs_4core6optionINtB5_6OptionQNtNtCs6IAuOt8vWmF_3syn8generics9TypeParamEINtNtNtB7_3ops9try_trait12FromResidualIBy_NtNtB7_7convert10InfallibleEE13from_residualBP_, symObjAddr: 0x93DC, symBinAddr: 0x505F0, symSize: 0x14 }
  - { offset: 0xB11FA, size: 0x8, addend: 0x0, symName: __RNvXsC_NtCsfvfooZQ3Axs_4core6optionINtB5_6OptionTINtNtCse1nGBsou5OW_5alloc5boxed3BoxeEBL_EEINtNtNtB7_3ops9try_trait12FromResidualIBy_NtNtB7_7convert10InfallibleEE13from_residualCs6IAuOt8vWmF_3syn, symObjAddr: 0x9454, symBinAddr: 0x50604, symSize: 0x10 }
  - { offset: 0xB122D, size: 0x8, addend: 0x0, symName: __RNvXsC_NtCsfvfooZQ3Axs_4core6optionINtB5_6OptionTNtNtCs6IAuOt8vWmF_3syn3lit3LitNtNtBP_6buffer6CursorEEINtNtNtB7_3ops9try_trait12FromResidualIBy_NtNtB7_7convert10InfallibleEE13from_residualBP_, symObjAddr: 0x9464, symBinAddr: 0x50614, symSize: 0x1C }
  - { offset: 0xB1260, size: 0x8, addend: 0x0, symName: __RNvXsC_NtCsfvfooZQ3Axs_4core6optionINtB5_6OptionTNtNtCs6IAuOt8vWmF_3syn8lifetime8LifetimeNtNtBP_6buffer6CursorEEINtNtNtB7_3ops9try_trait12FromResidualIBy_NtNtB7_7convert10InfallibleEE13from_residualBP_, symObjAddr: 0x9480, symBinAddr: 0x50630, symSize: 0x18 }
  - { offset: 0xB1293, size: 0x8, addend: 0x0, symName: __RNvXsC_NtCsfvfooZQ3Axs_4core6optionINtB5_6OptionjEINtNtNtB7_3ops9try_trait12FromResidualIBy_NtNtB7_7convert10InfallibleEE13from_residualCs6IAuOt8vWmF_3syn, symObjAddr: 0x9498, symBinAddr: 0x50648, symSize: 0x18 }
  - { offset: 0xB1347, size: 0x8, addend: 0x0, symName: __RNvXsO_NtCsfvfooZQ3Axs_4core6optionINtB5_8IntoIterRNtNtCs6IAuOt8vWmF_3syn4data5FieldENtNtB7_5clone5Clone5cloneBR_, symObjAddr: 0xB4C0, symBinAddr: 0x506A8, symSize: 0x68 }
  - { offset: 0xB13EE, size: 0x8, addend: 0x0, symName: __RNvXsO_NtCsfvfooZQ3Axs_4core6optionINtB5_8IntoIterRNtNtCs6IAuOt8vWmF_3syn4path11PathSegmentENtNtB7_5clone5Clone5cloneBR_, symObjAddr: 0xB590, symBinAddr: 0x50710, symSize: 0x68 }
  - { offset: 0xB1495, size: 0x8, addend: 0x0, symName: __RNvXsO_NtCsfvfooZQ3Axs_4core6optionINtB5_8IntoIterRNtNtCs6IAuOt8vWmF_3syn8generics14TypeParamBoundENtNtB7_5clone5Clone5cloneBR_, symObjAddr: 0xB660, symBinAddr: 0x50778, symSize: 0x68 }
  - { offset: 0xB19B2, size: 0x8, addend: 0x0, symName: __RNvXsv_NtCsfvfooZQ3Axs_4core6optionINtB5_8IntoIterNtNtCs6IAuOt8vWmF_3syn4path11PathSegmentENtNtNtNtB7_4iter6traits8iterator8Iterator4nextBQ_, symObjAddr: 0xE660, symBinAddr: 0x5088C, symSize: 0x64 }
  - { offset: 0xB1A55, size: 0x8, addend: 0x0, symName: __RNvXsv_NtCsfvfooZQ3Axs_4core6optionINtB5_8IntoIterNtNtCs6IAuOt8vWmF_3syn8generics14TypeParamBoundENtNtNtNtB7_4iter6traits8iterator8Iterator4nextBQ_, symObjAddr: 0xE6C4, symBinAddr: 0x508F0, symSize: 0x60 }
  - { offset: 0xB1AF8, size: 0x8, addend: 0x0, symName: __RNvXsv_NtCsfvfooZQ3Axs_4core6optionINtB5_8IntoIterNtNtCs6IAuOt8vWmF_3syn8generics14TypeParamBoundENtNtNtNtB7_4iter6traits8iterator8Iterator9size_hintBQ_, symObjAddr: 0xE724, symBinAddr: 0x50950, symSize: 0x48 }
  - { offset: 0xB1B70, size: 0x8, addend: 0x0, symName: __RNvXsv_NtCsfvfooZQ3Axs_4core6optionINtB5_8IntoIterQNtNtCs6IAuOt8vWmF_3syn4path11PathSegmentENtNtNtNtB7_4iter6traits8iterator8Iterator4nextBR_, symObjAddr: 0xE7D8, symBinAddr: 0x50998, symSize: 0x28 }
  - { offset: 0xB1C13, size: 0x8, addend: 0x0, symName: __RNvXsv_NtCsfvfooZQ3Axs_4core6optionINtB5_8IntoIterQNtNtCs6IAuOt8vWmF_3syn4path11PathSegmentENtNtNtNtB7_4iter6traits8iterator8Iterator9size_hintBR_, symObjAddr: 0xE800, symBinAddr: 0x509C0, symSize: 0x44 }
  - { offset: 0xB1C8B, size: 0x8, addend: 0x0, symName: __RNvXsv_NtCsfvfooZQ3Axs_4core6optionINtB5_8IntoIterQNtNtCs6IAuOt8vWmF_3syn8generics12GenericParamENtNtNtNtB7_4iter6traits8iterator8Iterator4nextBR_, symObjAddr: 0xE844, symBinAddr: 0x50A04, symSize: 0x28 }
  - { offset: 0xB1D2E, size: 0x8, addend: 0x0, symName: __RNvXsv_NtCsfvfooZQ3Axs_4core6optionINtB5_8IntoIterQNtNtCs6IAuOt8vWmF_3syn8generics12GenericParamENtNtNtNtB7_4iter6traits8iterator8Iterator9size_hintBR_, symObjAddr: 0xE86C, symBinAddr: 0x50A2C, symSize: 0x44 }
  - { offset: 0xB1DA6, size: 0x8, addend: 0x0, symName: __RNvXsv_NtCsfvfooZQ3Axs_4core6optionINtB5_8IntoIterRNtNtCs6IAuOt8vWmF_3syn2ty4TypeENtNtNtNtB7_4iter6traits8iterator8Iterator4nextBR_, symObjAddr: 0xE8B0, symBinAddr: 0x50A70, symSize: 0x28 }
  - { offset: 0xB1E49, size: 0x8, addend: 0x0, symName: __RNvXsv_NtCsfvfooZQ3Axs_4core6optionINtB5_8IntoIterRNtNtCs6IAuOt8vWmF_3syn2ty9BareFnArgENtNtNtNtB7_4iter6traits8iterator8Iterator4nextBR_, symObjAddr: 0xE8D8, symBinAddr: 0x50A98, symSize: 0x28 }
  - { offset: 0xB1EEC, size: 0x8, addend: 0x0, symName: __RNvXsv_NtCsfvfooZQ3Axs_4core6optionINtB5_8IntoIterRNtNtCs6IAuOt8vWmF_3syn3pat3PatENtNtNtNtB7_4iter6traits8iterator8Iterator4nextBR_, symObjAddr: 0xE900, symBinAddr: 0x50AC0, symSize: 0x28 }
  - { offset: 0xB1F8F, size: 0x8, addend: 0x0, symName: __RNvXsv_NtCsfvfooZQ3Axs_4core6optionINtB5_8IntoIterRNtNtCs6IAuOt8vWmF_3syn3pat8FieldPatENtNtNtNtB7_4iter6traits8iterator8Iterator4nextBR_, symObjAddr: 0xE928, symBinAddr: 0x50AE8, symSize: 0x28 }
  - { offset: 0xB2032, size: 0x8, addend: 0x0, symName: __RNvXsv_NtCsfvfooZQ3Axs_4core6optionINtB5_8IntoIterRNtNtCs6IAuOt8vWmF_3syn4data5FieldENtNtNtNtB7_4iter6traits8iterator8Iterator4nextBR_, symObjAddr: 0xE950, symBinAddr: 0x50B10, symSize: 0x28 }
  - { offset: 0xB20D5, size: 0x8, addend: 0x0, symName: __RNvXsv_NtCsfvfooZQ3Axs_4core6optionINtB5_8IntoIterRNtNtCs6IAuOt8vWmF_3syn4data5FieldENtNtNtNtB7_4iter6traits8iterator8Iterator9size_hintBR_, symObjAddr: 0xE978, symBinAddr: 0x50B38, symSize: 0x44 }
  - { offset: 0xB214D, size: 0x8, addend: 0x0, symName: __RNvXsv_NtCsfvfooZQ3Axs_4core6optionINtB5_8IntoIterRNtNtCs6IAuOt8vWmF_3syn4data7VariantENtNtNtNtB7_4iter6traits8iterator8Iterator4nextBR_, symObjAddr: 0xE9BC, symBinAddr: 0x50B7C, symSize: 0x28 }
  - { offset: 0xB21F0, size: 0x8, addend: 0x0, symName: __RNvXsv_NtCsfvfooZQ3Axs_4core6optionINtB5_8IntoIterRNtNtCs6IAuOt8vWmF_3syn4expr10FieldValueENtNtNtNtB7_4iter6traits8iterator8Iterator4nextBR_, symObjAddr: 0xE9E4, symBinAddr: 0x50BA4, symSize: 0x28 }
  - { offset: 0xB2293, size: 0x8, addend: 0x0, symName: __RNvXsv_NtCsfvfooZQ3Axs_4core6optionINtB5_8IntoIterRNtNtCs6IAuOt8vWmF_3syn4expr4ExprENtNtNtNtB7_4iter6traits8iterator8Iterator4nextBR_, symObjAddr: 0xEA0C, symBinAddr: 0x50BCC, symSize: 0x28 }
  - { offset: 0xB2336, size: 0x8, addend: 0x0, symName: __RNvXsv_NtCsfvfooZQ3Axs_4core6optionINtB5_8IntoIterRNtNtCs6IAuOt8vWmF_3syn4item5FnArgENtNtNtNtB7_4iter6traits8iterator8Iterator4nextBR_, symObjAddr: 0xEA34, symBinAddr: 0x50BF4, symSize: 0x28 }
  - { offset: 0xB23D9, size: 0x8, addend: 0x0, symName: __RNvXsv_NtCsfvfooZQ3Axs_4core6optionINtB5_8IntoIterRNtNtCs6IAuOt8vWmF_3syn4item7UseTreeENtNtNtNtB7_4iter6traits8iterator8Iterator4nextBR_, symObjAddr: 0xEAA0, symBinAddr: 0x50C1C, symSize: 0x28 }
  - { offset: 0xB247C, size: 0x8, addend: 0x0, symName: __RNvXsv_NtCsfvfooZQ3Axs_4core6optionINtB5_8IntoIterRNtNtCs6IAuOt8vWmF_3syn4path11PathSegmentENtNtNtNtB7_4iter6traits8iterator8Iterator4nextBR_, symObjAddr: 0xEAC8, symBinAddr: 0x50C44, symSize: 0x28 }
  - { offset: 0xB251F, size: 0x8, addend: 0x0, symName: __RNvXsv_NtCsfvfooZQ3Axs_4core6optionINtB5_8IntoIterRNtNtCs6IAuOt8vWmF_3syn4path11PathSegmentENtNtNtNtB7_4iter6traits8iterator8Iterator9size_hintBR_, symObjAddr: 0xEAF0, symBinAddr: 0x50C6C, symSize: 0x44 }
  - { offset: 0xB2597, size: 0x8, addend: 0x0, symName: __RNvXsv_NtCsfvfooZQ3Axs_4core6optionINtB5_8IntoIterRNtNtCs6IAuOt8vWmF_3syn4path15GenericArgumentENtNtNtNtB7_4iter6traits8iterator8Iterator4nextBR_, symObjAddr: 0xEB34, symBinAddr: 0x50CB0, symSize: 0x28 }
  - { offset: 0xB263A, size: 0x8, addend: 0x0, symName: __RNvXsv_NtCsfvfooZQ3Axs_4core6optionINtB5_8IntoIterRNtNtCs6IAuOt8vWmF_3syn8generics12GenericParamENtNtNtNtB7_4iter6traits8iterator8Iterator4nextBR_, symObjAddr: 0xEB5C, symBinAddr: 0x50CD8, symSize: 0x28 }
  - { offset: 0xB26DD, size: 0x8, addend: 0x0, symName: __RNvXsv_NtCsfvfooZQ3Axs_4core6optionINtB5_8IntoIterRNtNtCs6IAuOt8vWmF_3syn8generics13CapturedParamENtNtNtNtB7_4iter6traits8iterator8Iterator4nextBR_, symObjAddr: 0xEBC8, symBinAddr: 0x50D00, symSize: 0x28 }
  - { offset: 0xB2780, size: 0x8, addend: 0x0, symName: __RNvXsv_NtCsfvfooZQ3Axs_4core6optionINtB5_8IntoIterRNtNtCs6IAuOt8vWmF_3syn8generics14TypeParamBoundENtNtNtNtB7_4iter6traits8iterator8Iterator4nextBR_, symObjAddr: 0xEBF0, symBinAddr: 0x50D28, symSize: 0x28 }
  - { offset: 0xB2823, size: 0x8, addend: 0x0, symName: __RNvXsv_NtCsfvfooZQ3Axs_4core6optionINtB5_8IntoIterRNtNtCs6IAuOt8vWmF_3syn8generics14TypeParamBoundENtNtNtNtB7_4iter6traits8iterator8Iterator9size_hintBR_, symObjAddr: 0xEC18, symBinAddr: 0x50D50, symSize: 0x44 }
  - { offset: 0xB289B, size: 0x8, addend: 0x0, symName: __RNvXsv_NtCsfvfooZQ3Axs_4core6optionINtB5_8IntoIterRNtNtCs6IAuOt8vWmF_3syn8generics14WherePredicateENtNtNtNtB7_4iter6traits8iterator8Iterator4nextBR_, symObjAddr: 0xEC5C, symBinAddr: 0x50D94, symSize: 0x28 }
  - { offset: 0xB293E, size: 0x8, addend: 0x0, symName: __RNvXsv_NtCsfvfooZQ3Axs_4core6optionINtB5_8IntoIterRNtNtCs6IAuOt8vWmF_3syn8lifetime8LifetimeENtNtNtNtB7_4iter6traits8iterator8Iterator4nextBR_, symObjAddr: 0xEC84, symBinAddr: 0x50DBC, symSize: 0x28 }
  - { offset: 0xB3BF3, size: 0x8, addend: 0x0, symName: __RNvNvMNtNtCsfvfooZQ3Axs_4core3ptr9const_ptrPp6offset18precondition_checkCs6IAuOt8vWmF_3syn, symObjAddr: 0x5F10, symBinAddr: 0x4D590, symSize: 0xA0 }
  - { offset: 0xB3DB5, size: 0x8, addend: 0x0, symName: __RNvNvMNtNtCsfvfooZQ3Axs_4core3ptr9const_ptrPp7sub_ptr18precondition_checkCs6IAuOt8vWmF_3syn, symObjAddr: 0x5FB0, symBinAddr: 0x4D630, symSize: 0x40 }
  - { offset: 0xB45D8, size: 0x8, addend: 0x0, symName: __RNvXsr_NtCsfvfooZQ3Axs_4core3fmtShNtB5_5Debug3fmtCs6IAuOt8vWmF_3syn, symObjAddr: 0xE52C, symBinAddr: 0x50804, symSize: 0x88 }
  - { offset: 0xB5C4F, size: 0x8, addend: 0x0, symName: __RINvYINtNtCsfvfooZQ3Axs_4core6option8IntoIterNtNtCs6IAuOt8vWmF_3syn8generics14TypeParamBoundENtNtNtNtB8_4iter6traits8iterator8Iterator4folduNCINvNvB1t_8for_each4callBH_NCINvMsi_NtCse1nGBsou5OW_5alloc3vecINtB2P_3VecBH_E14extend_trustedB3_E0E0EBL_, symObjAddr: 0x3F98, symBinAddr: 0x4BCDC, symSize: 0x148 }
  - { offset: 0xB5CE1, size: 0x8, addend: 0x0, symName: __RINvYINtNtCsfvfooZQ3Axs_4core6option8IntoIterNtNtCs6IAuOt8vWmF_3syn8generics14TypeParamBoundENtNtNtNtB8_4iter6traits8iterator8Iterator8for_eachNCINvMsi_NtCse1nGBsou5OW_5alloc3vecINtB2q_3VecBH_E14extend_trustedB3_E0EBL_, symObjAddr: 0x40E0, symBinAddr: 0x4BE24, symSize: 0x34 }
  - { offset: 0xB5D59, size: 0x8, addend: 0x0, symName: __RNvXNtNtNtCsfvfooZQ3Axs_4core4iter6traits7collectINtNtNtB6_8adapters3rev3RevINtNtNtB8_5slice4iter4IterhEENtB2_12IntoIterator9into_iterCs6IAuOt8vWmF_3syn, symObjAddr: 0x5FF0, symBinAddr: 0x4D670, symSize: 0x1C }
  - { offset: 0xB5D9C, size: 0x8, addend: 0x0, symName: __RNvYINtNtCsfvfooZQ3Axs_4core6option8IntoIterQNtNtCs6IAuOt8vWmF_3syn4path11PathSegmentENtNtNtNtB7_4iter6traits10exact_size17ExactSizeIterator3lenBL_, symObjAddr: 0xEDC4, symBinAddr: 0x50E08, symSize: 0xF4 }
  - { offset: 0xB5E8F, size: 0x8, addend: 0x0, symName: __RNvYINtNtCsfvfooZQ3Axs_4core6option8IntoIterQNtNtCs6IAuOt8vWmF_3syn8generics12GenericParamENtNtNtNtB7_4iter6traits10exact_size17ExactSizeIterator3lenBL_, symObjAddr: 0xEEB8, symBinAddr: 0x50EFC, symSize: 0xF4 }
  - { offset: 0xB5F82, size: 0x8, addend: 0x0, symName: __RNvYINtNtCsfvfooZQ3Axs_4core6option8IntoIterRNtNtCs6IAuOt8vWmF_3syn4data5FieldENtNtNtNtB7_4iter6traits10exact_size17ExactSizeIterator3lenBL_, symObjAddr: 0xEFAC, symBinAddr: 0x50FF0, symSize: 0xF4 }
  - { offset: 0xB6075, size: 0x8, addend: 0x0, symName: __RNvYINtNtCsfvfooZQ3Axs_4core6option8IntoIterRNtNtCs6IAuOt8vWmF_3syn4path11PathSegmentENtNtNtNtB7_4iter6traits10exact_size17ExactSizeIterator3lenBL_, symObjAddr: 0xF194, symBinAddr: 0x510E4, symSize: 0xF4 }
  - { offset: 0xB6168, size: 0x8, addend: 0x0, symName: __RNvYINtNtCsfvfooZQ3Axs_4core6option8IntoIterRNtNtCs6IAuOt8vWmF_3syn8generics14TypeParamBoundENtNtNtNtB7_4iter6traits10exact_size17ExactSizeIterator3lenBL_, symObjAddr: 0xF37C, symBinAddr: 0x511D8, symSize: 0xF4 }
  - { offset: 0xB626D, size: 0x8, addend: 0x0, symName: __RNvXs_NtNtNtCsfvfooZQ3Axs_4core4iter8adapters3revINtB4_3RevINtNtNtBa_5slice4iter4IterhEENtNtNtB8_6traits8iterator8Iterator4nextCs6IAuOt8vWmF_3syn, symObjAddr: 0xB784, symBinAddr: 0x507E0, symSize: 0x24 }
  - { offset: 0xB8E83, size: 0x8, addend: 0x0, symName: __RNvXsl_NtNtCs6IAuOt8vWmF_3syn2ty7parsingINtNtCsfvfooZQ3Axs_4core6option6OptionNtB7_3AbiENtNtB9_5parse5Parse5parse, symObjAddr: 0x115DC, symBinAddr: 0x53438, symSize: 0x98 }
  - { offset: 0xB9EF7, size: 0x8, addend: 0x0, symName: __RNvXso_NtNtCs6IAuOt8vWmF_3syn4expr7parsingINtNtCsfvfooZQ3Axs_4core6option6OptionNtB7_5LabelENtNtB9_5parse5Parse5parse, symObjAddr: 0xF4AC, symBinAddr: 0x51308, symSize: 0xA4 }
  - { offset: 0xBA09D, size: 0x8, addend: 0x0, symName: __RNCNvXNtNtCs6IAuOt8vWmF_3syn4attr8printingNtB6_9AttributeNtNtCs2cqEZUIJimJ_5quote9to_tokens8ToTokens9to_tokens0B8_, symObjAddr: 0xF470, symBinAddr: 0x512CC, symSize: 0x3C }
  - { offset: 0xBBE78, size: 0x8, addend: 0x0, symName: __RNCNvXs_NtNtCs6IAuOt8vWmF_3syn11restriction8printingNtB8_13VisRestrictedNtNtCs2cqEZUIJimJ_5quote9to_tokens8ToTokens9to_tokens0Ba_, symObjAddr: 0x1155C, symBinAddr: 0x533B8, symSize: 0x80 }
  - { offset: 0xBC376, size: 0x8, addend: 0x0, symName: __RNvXs2_NtNtCs6IAuOt8vWmF_3syn8generics7parsingINtNtCsfvfooZQ3Axs_4core6option6OptionNtB7_14BoundLifetimesENtNtB9_5parse5Parse5parse, symObjAddr: 0xF550, symBinAddr: 0x513AC, symSize: 0x98 }
  - { offset: 0xBC3AA, size: 0x8, addend: 0x0, symName: __RNvXsb_NtNtCs6IAuOt8vWmF_3syn8generics7parsingINtNtCsfvfooZQ3Axs_4core6option6OptionNtB7_11WhereClauseENtNtB9_5parse5Parse5parse, symObjAddr: 0xF5E8, symBinAddr: 0x51444, symSize: 0x98 }
  - { offset: 0xBCB87, size: 0x8, addend: 0x0, symName: __RNvXsb_NtCs6IAuOt8vWmF_3syn5parseINtNtCsfvfooZQ3Axs_4core6option6OptionNtCs3cP53eQoTwO_11proc_macro25IdentENtB5_5Parse5parseB7_, symObjAddr: 0xF680, symBinAddr: 0x514DC, symSize: 0x12C }
  - { offset: 0xBCBDD, size: 0x8, addend: 0x0, symName: __RNvXsb_NtCs6IAuOt8vWmF_3syn5parseINtNtCsfvfooZQ3Axs_4core6option6OptionNtNtB7_3lit3LitENtB5_5Parse5parseB7_, symObjAddr: 0xF7AC, symBinAddr: 0x51608, symSize: 0x130 }
  - { offset: 0xBCC33, size: 0x8, addend: 0x0, symName: __RNvXsb_NtCs6IAuOt8vWmF_3syn5parseINtNtCsfvfooZQ3Axs_4core6option6OptionNtNtB7_3lit6LitStrENtB5_5Parse5parseB7_, symObjAddr: 0xF8DC, symBinAddr: 0x51738, symSize: 0x110 }
  - { offset: 0xBCC88, size: 0x8, addend: 0x0, symName: __RNvXsb_NtCs6IAuOt8vWmF_3syn5parseINtNtCsfvfooZQ3Axs_4core6option6OptionNtNtB7_3lit8LitFloatENtB5_5Parse5parseB7_, symObjAddr: 0xF9EC, symBinAddr: 0x51848, symSize: 0x110 }
  - { offset: 0xBCCDD, size: 0x8, addend: 0x0, symName: __RNvXsb_NtCs6IAuOt8vWmF_3syn5parseINtNtCsfvfooZQ3Axs_4core6option6OptionNtNtB7_5token2EqENtB5_5Parse5parseB7_, symObjAddr: 0xFAFC, symBinAddr: 0x51958, symSize: 0x11C }
  - { offset: 0xBCD32, size: 0x8, addend: 0x0, symName: __RNvXsb_NtCs6IAuOt8vWmF_3syn5parseINtNtCsfvfooZQ3Axs_4core6option6OptionNtNtB7_5token2OrENtB5_5Parse5parseB7_, symObjAddr: 0xFC18, symBinAddr: 0x51A74, symSize: 0x11C }
  - { offset: 0xBCD87, size: 0x8, addend: 0x0, symName: __RNvXsb_NtCs6IAuOt8vWmF_3syn5parseINtNtCsfvfooZQ3Axs_4core6option6OptionNtNtB7_5token3BoxENtB5_5Parse5parseB7_, symObjAddr: 0xFD34, symBinAddr: 0x51B90, symSize: 0x128 }
  - { offset: 0xBCDDC, size: 0x8, addend: 0x0, symName: __RNvXsb_NtCs6IAuOt8vWmF_3syn5parseINtNtCsfvfooZQ3Axs_4core6option6OptionNtNtB7_5token3DynENtB5_5Parse5parseB7_, symObjAddr: 0xFE5C, symBinAddr: 0x51CB8, symSize: 0x128 }
  - { offset: 0xBCE31, size: 0x8, addend: 0x0, symName: __RNvXsb_NtCs6IAuOt8vWmF_3syn5parseINtNtCsfvfooZQ3Axs_4core6option6OptionNtNtB7_5token3MutENtB5_5Parse5parseB7_, symObjAddr: 0xFF84, symBinAddr: 0x51DE0, symSize: 0x128 }
  - { offset: 0xBCE86, size: 0x8, addend: 0x0, symName: __RNvXsb_NtCs6IAuOt8vWmF_3syn5parseINtNtCsfvfooZQ3Axs_4core6option6OptionNtNtB7_5token3RefENtB5_5Parse5parseB7_, symObjAddr: 0x100AC, symBinAddr: 0x51F08, symSize: 0x128 }
  - { offset: 0xBCEDB, size: 0x8, addend: 0x0, symName: __RNvXsb_NtCs6IAuOt8vWmF_3syn5parseINtNtCsfvfooZQ3Axs_4core6option6OptionNtNtB7_5token4AutoENtB5_5Parse5parseB7_, symObjAddr: 0x101D4, symBinAddr: 0x52030, symSize: 0x128 }
  - { offset: 0xBCF30, size: 0x8, addend: 0x0, symName: __RNvXsb_NtCs6IAuOt8vWmF_3syn5parseINtNtCsfvfooZQ3Axs_4core6option6OptionNtNtB7_5token4MoveENtB5_5Parse5parseB7_, symObjAddr: 0x102FC, symBinAddr: 0x52158, symSize: 0x128 }
  - { offset: 0xBCF85, size: 0x8, addend: 0x0, symName: __RNvXsb_NtCs6IAuOt8vWmF_3syn5parseINtNtCsfvfooZQ3Axs_4core6option6OptionNtNtB7_5token4PlusENtB5_5Parse5parseB7_, symObjAddr: 0x10424, symBinAddr: 0x52280, symSize: 0x11C }
  - { offset: 0xBCFDA, size: 0x8, addend: 0x0, symName: __RNvXsb_NtCs6IAuOt8vWmF_3syn5parseINtNtCsfvfooZQ3Axs_4core6option6OptionNtNtB7_5token4SemiENtB5_5Parse5parseB7_, symObjAddr: 0x10540, symBinAddr: 0x5239C, symSize: 0x11C }
  - { offset: 0xBD02F, size: 0x8, addend: 0x0, symName: __RNvXsb_NtCs6IAuOt8vWmF_3syn5parseINtNtCsfvfooZQ3Axs_4core6option6OptionNtNtB7_5token4StarENtB5_5Parse5parseB7_, symObjAddr: 0x1065C, symBinAddr: 0x524B8, symSize: 0x11C }
  - { offset: 0xBD084, size: 0x8, addend: 0x0, symName: __RNvXsb_NtCs6IAuOt8vWmF_3syn5parseINtNtCsfvfooZQ3Axs_4core6option6OptionNtNtB7_5token5AsyncENtB5_5Parse5parseB7_, symObjAddr: 0x10778, symBinAddr: 0x525D4, symSize: 0x128 }
  - { offset: 0xBD0D9, size: 0x8, addend: 0x0, symName: __RNvXsb_NtCs6IAuOt8vWmF_3syn5parseINtNtCsfvfooZQ3Axs_4core6option6OptionNtNtB7_5token5AwaitENtB5_5Parse5parseB7_, symObjAddr: 0x108A0, symBinAddr: 0x526FC, symSize: 0x128 }
  - { offset: 0xBD12E, size: 0x8, addend: 0x0, symName: __RNvXsb_NtCs6IAuOt8vWmF_3syn5parseINtNtCsfvfooZQ3Axs_4core6option6OptionNtNtB7_5token5ColonENtB5_5Parse5parseB7_, symObjAddr: 0x109C8, symBinAddr: 0x52824, symSize: 0x11C }
  - { offset: 0xBD183, size: 0x8, addend: 0x0, symName: __RNvXsb_NtCs6IAuOt8vWmF_3syn5parseINtNtCsfvfooZQ3Axs_4core6option6OptionNtNtB7_5token5CommaENtB5_5Parse5parseB7_, symObjAddr: 0x10AE4, symBinAddr: 0x52940, symSize: 0x11C }
  - { offset: 0xBD1D8, size: 0x8, addend: 0x0, symName: __RNvXsb_NtCs6IAuOt8vWmF_3syn5parseINtNtCsfvfooZQ3Axs_4core6option6OptionNtNtB7_5token5ConstENtB5_5Parse5parseB7_, symObjAddr: 0x10C00, symBinAddr: 0x52A5C, symSize: 0x128 }
  - { offset: 0xBD22D, size: 0x8, addend: 0x0, symName: __RNvXsb_NtCs6IAuOt8vWmF_3syn5parseINtNtCsfvfooZQ3Axs_4core6option6OptionNtNtB7_5token6StaticENtB5_5Parse5parseB7_, symObjAddr: 0x10D28, symBinAddr: 0x52B84, symSize: 0x128 }
  - { offset: 0xBD282, size: 0x8, addend: 0x0, symName: __RNvXsb_NtCs6IAuOt8vWmF_3syn5parseINtNtCsfvfooZQ3Axs_4core6option6OptionNtNtB7_5token6UnsafeENtB5_5Parse5parseB7_, symObjAddr: 0x10E50, symBinAddr: 0x52CAC, symSize: 0x128 }
  - { offset: 0xBD2D7, size: 0x8, addend: 0x0, symName: __RNvXsb_NtCs6IAuOt8vWmF_3syn5parseINtNtCsfvfooZQ3Axs_4core6option6OptionNtNtB7_5token7DefaultENtB5_5Parse5parseB7_, symObjAddr: 0x10F78, symBinAddr: 0x52DD4, symSize: 0x128 }
  - { offset: 0xBD32C, size: 0x8, addend: 0x0, symName: __RNvXsb_NtCs6IAuOt8vWmF_3syn5parseINtNtCsfvfooZQ3Axs_4core6option6OptionNtNtB7_5token7PathSepENtB5_5Parse5parseB7_, symObjAddr: 0x110A0, symBinAddr: 0x52EFC, symSize: 0x130 }
  - { offset: 0xBD381, size: 0x8, addend: 0x0, symName: __RNvXsb_NtCs6IAuOt8vWmF_3syn5parseINtNtCsfvfooZQ3Axs_4core6option6OptionNtNtB7_5token8QuestionENtB5_5Parse5parseB7_, symObjAddr: 0x111D0, symBinAddr: 0x5302C, symSize: 0x11C }
  - { offset: 0xBD3D6, size: 0x8, addend: 0x0, symName: __RNvXsb_NtCs6IAuOt8vWmF_3syn5parseINtNtCsfvfooZQ3Axs_4core6option6OptionNtNtB7_5token9DotDotDotENtB5_5Parse5parseB7_, symObjAddr: 0x112EC, symBinAddr: 0x53148, symSize: 0x130 }
  - { offset: 0xBD42B, size: 0x8, addend: 0x0, symName: __RNvXsb_NtCs6IAuOt8vWmF_3syn5parseINtNtCsfvfooZQ3Axs_4core6option6OptionNtNtB7_8lifetime8LifetimeENtB5_5Parse5parseB7_, symObjAddr: 0x1141C, symBinAddr: 0x53278, symSize: 0x140 }
  - { offset: 0xBEC41, size: 0x8, addend: 0x0, symName: __RNvXsF_NtCse1nGBsou5OW_5alloc6stringNtNtCsfvfooZQ3Axs_4core3fmt9ArgumentsNtB5_12SpecToString14spec_to_stringCs6IAuOt8vWmF_3syn, symObjAddr: 0x94B0, symBinAddr: 0x50660, symSize: 0x48 }
  - { offset: 0xBEC75, size: 0x8, addend: 0x0, symName: __RNvXsw_NtCse1nGBsou5OW_5alloc6stringNtNtCsfvfooZQ3Axs_4core3fmt9ArgumentsNtB5_8ToString9to_stringCs6IAuOt8vWmF_3syn, symObjAddr: 0xECAC, symBinAddr: 0x50DE4, symSize: 0x24 }
  - { offset: 0xBECB3, size: 0x8, addend: 0x0, symName: __RNvNtCse1nGBsou5OW_5alloc3fmt6formatCs6IAuOt8vWmF_3syn, symObjAddr: 0x5E3C, symBinAddr: 0x4D4BC, symSize: 0xD4 }
  - { offset: 0xBF4E7, size: 0x8, addend: 0x0, symName: __RINvMNtCsfvfooZQ3Axs_4core6optionINtB3_6OptionINtNtCs6IAuOt8vWmF_3syn10punctuated4PairNtNtBN_4path11PathSegmentNtNtBN_5token7PathSepEE7or_elseNCNvXsj_BL_INtBL_9IntoPairsB1m_B1L_ENtNtNtNtB5_4iter6traits8iterator8Iterator4nexts_0EBN_, symObjAddr: 0x0, symBinAddr: 0x48780, symSize: 0xD8 }
  - { offset: 0xBF557, size: 0x8, addend: 0x0, symName: __RINvMNtCsfvfooZQ3Axs_4core6optionINtB3_6OptionINtNtCs6IAuOt8vWmF_3syn10punctuated4PairRNtNtBN_2ty4TypeRNtNtBN_5token5CommaEE7or_elseNCNvXsc_BL_INtBL_5PairsB1n_B1D_ENtNtNtNtB5_4iter6traits8iterator8Iterator4nexts_0EBN_, symObjAddr: 0xD8, symBinAddr: 0x48858, symSize: 0xB4 }
  - { offset: 0xBF5D4, size: 0x8, addend: 0x0, symName: __RINvMNtCsfvfooZQ3Axs_4core6optionINtB3_6OptionINtNtCs6IAuOt8vWmF_3syn10punctuated4PairRNtNtBN_2ty9BareFnArgRNtNtBN_5token5CommaEE7or_elseNCNvXsc_BL_INtBL_5PairsB1n_B1I_ENtNtNtNtB5_4iter6traits8iterator8Iterator4nexts_0EBN_, symObjAddr: 0x18C, symBinAddr: 0x4890C, symSize: 0xB4 }
  - { offset: 0xBF651, size: 0x8, addend: 0x0, symName: __RINvMNtCsfvfooZQ3Axs_4core6optionINtB3_6OptionINtNtCs6IAuOt8vWmF_3syn10punctuated4PairRNtNtBN_3pat3PatRNtNtBN_5token2OrEE7or_elseNCNvXsc_BL_INtBL_5PairsB1n_B1D_ENtNtNtNtB5_4iter6traits8iterator8Iterator4nexts_0EBN_, symObjAddr: 0x240, symBinAddr: 0x489C0, symSize: 0xB4 }
  - { offset: 0xBF6B4, size: 0x8, addend: 0x0, symName: __RINvMNtCsfvfooZQ3Axs_4core6optionINtB3_6OptionINtNtCs6IAuOt8vWmF_3syn10punctuated4PairRNtNtBN_3pat3PatRNtNtBN_5token5CommaEE7or_elseNCNvXsc_BL_INtBL_5PairsB1n_B1D_ENtNtNtNtB5_4iter6traits8iterator8Iterator4nexts_0EBN_, symObjAddr: 0x2F4, symBinAddr: 0x48A74, symSize: 0xB4 }
  - { offset: 0xBF731, size: 0x8, addend: 0x0, symName: __RINvMNtCsfvfooZQ3Axs_4core6optionINtB3_6OptionINtNtCs6IAuOt8vWmF_3syn10punctuated4PairRNtNtBN_3pat8FieldPatRNtNtBN_5token5CommaEE7or_elseNCNvXsc_BL_INtBL_5PairsB1n_B1I_ENtNtNtNtB5_4iter6traits8iterator8Iterator4nexts_0EBN_, symObjAddr: 0x3A8, symBinAddr: 0x48B28, symSize: 0xB4 }
  - { offset: 0xBF7AE, size: 0x8, addend: 0x0, symName: __RINvMNtCsfvfooZQ3Axs_4core6optionINtB3_6OptionINtNtCs6IAuOt8vWmF_3syn10punctuated4PairRNtNtBN_4data5FieldRNtNtBN_5token5CommaEE7or_elseNCNvXsc_BL_INtBL_5PairsB1n_B1G_ENtNtNtNtB5_4iter6traits8iterator8Iterator4nexts_0EBN_, symObjAddr: 0x45C, symBinAddr: 0x48BDC, symSize: 0xB4 }
  - { offset: 0xBF82B, size: 0x8, addend: 0x0, symName: __RINvMNtCsfvfooZQ3Axs_4core6optionINtB3_6OptionINtNtCs6IAuOt8vWmF_3syn10punctuated4PairRNtNtBN_4data7VariantRNtNtBN_5token5CommaEE7or_elseNCNvXsc_BL_INtBL_5PairsB1n_B1I_ENtNtNtNtB5_4iter6traits8iterator8Iterator4nexts_0EBN_, symObjAddr: 0x510, symBinAddr: 0x48C90, symSize: 0xB4 }
  - { offset: 0xBF8A8, size: 0x8, addend: 0x0, symName: __RINvMNtCsfvfooZQ3Axs_4core6optionINtB3_6OptionINtNtCs6IAuOt8vWmF_3syn10punctuated4PairRNtNtBN_4expr10FieldValueRNtNtBN_5token5CommaEE7or_elseNCNvXsc_BL_INtBL_5PairsB1n_B1M_ENtNtNtNtB5_4iter6traits8iterator8Iterator4nexts_0EBN_, symObjAddr: 0x5C4, symBinAddr: 0x48D44, symSize: 0xB4 }
  - { offset: 0xBF918, size: 0x8, addend: 0x0, symName: __RINvMNtCsfvfooZQ3Axs_4core6optionINtB3_6OptionINtNtCs6IAuOt8vWmF_3syn10punctuated4PairRNtNtBN_4expr4ExprRNtNtBN_5token5CommaEE7or_elseNCNvXsc_BL_INtBL_5PairsB1n_B1F_ENtNtNtNtB5_4iter6traits8iterator8Iterator4nexts_0EBN_, symObjAddr: 0x678, symBinAddr: 0x48DF8, symSize: 0xB4 }
  - { offset: 0xBF995, size: 0x8, addend: 0x0, symName: __RINvMNtCsfvfooZQ3Axs_4core6optionINtB3_6OptionINtNtCs6IAuOt8vWmF_3syn10punctuated4PairRNtNtBN_4item5FnArgRNtNtBN_5token5CommaEE7or_elseNCNvXsc_BL_INtBL_5PairsB1n_B1G_ENtNtNtNtB5_4iter6traits8iterator8Iterator4nexts_0EBN_, symObjAddr: 0x72C, symBinAddr: 0x48EAC, symSize: 0xB4 }
  - { offset: 0xBFA12, size: 0x8, addend: 0x0, symName: __RINvMNtCsfvfooZQ3Axs_4core6optionINtB3_6OptionINtNtCs6IAuOt8vWmF_3syn10punctuated4PairRNtNtBN_4item7UseTreeRNtNtBN_5token5CommaEE7or_elseNCNvXsc_BL_INtBL_5PairsB1n_B1I_ENtNtNtNtB5_4iter6traits8iterator8Iterator4nexts_0EBN_, symObjAddr: 0x7E0, symBinAddr: 0x48F60, symSize: 0xB4 }
  - { offset: 0xBFA8F, size: 0x8, addend: 0x0, symName: __RINvMNtCsfvfooZQ3Axs_4core6optionINtB3_6OptionINtNtCs6IAuOt8vWmF_3syn10punctuated4PairRNtNtBN_4path11PathSegmentRNtNtBN_5token7PathSepEE7or_elseNCNvXsc_BL_INtBL_5PairsB1n_B1N_ENtNtNtNtB5_4iter6traits8iterator8Iterator4nexts_0EBN_, symObjAddr: 0x894, symBinAddr: 0x49014, symSize: 0xB4 }
  - { offset: 0xBFB0C, size: 0x8, addend: 0x0, symName: __RINvMNtCsfvfooZQ3Axs_4core6optionINtB3_6OptionINtNtCs6IAuOt8vWmF_3syn10punctuated4PairRNtNtBN_4path15GenericArgumentRNtNtBN_5token5CommaEE7or_elseNCNvXsc_BL_INtBL_5PairsB1n_B1R_ENtNtNtNtB5_4iter6traits8iterator8Iterator4nexts_0EBN_, symObjAddr: 0x948, symBinAddr: 0x490C8, symSize: 0xB4 }
  - { offset: 0xBFB89, size: 0x8, addend: 0x0, symName: __RINvMNtCsfvfooZQ3Axs_4core6optionINtB3_6OptionINtNtCs6IAuOt8vWmF_3syn10punctuated4PairRNtNtBN_8generics12GenericParamRNtNtBN_5token5CommaEE7or_elseNCNvXsc_BL_INtBL_5PairsB1n_B1S_ENtNtNtNtB5_4iter6traits8iterator8Iterator4nexts_0EBN_, symObjAddr: 0x9FC, symBinAddr: 0x4917C, symSize: 0xB4 }
  - { offset: 0xBFC06, size: 0x8, addend: 0x0, symName: __RINvMNtCsfvfooZQ3Axs_4core6optionINtB3_6OptionINtNtCs6IAuOt8vWmF_3syn10punctuated4PairRNtNtBN_8generics13CapturedParamRNtNtBN_5token5CommaEE7or_elseNCNvXsc_BL_INtBL_5PairsB1n_B1T_ENtNtNtNtB5_4iter6traits8iterator8Iterator4nexts_0EBN_, symObjAddr: 0xAB0, symBinAddr: 0x49230, symSize: 0xB4 }
  - { offset: 0xBFC90, size: 0x8, addend: 0x0, symName: __RINvMNtCsfvfooZQ3Axs_4core6optionINtB3_6OptionINtNtCs6IAuOt8vWmF_3syn10punctuated4PairRNtNtBN_8generics14TypeParamBoundRNtNtBN_5token4PlusEE7or_elseNCNvXsc_BL_INtBL_5PairsB1n_B1U_ENtNtNtNtB5_4iter6traits8iterator8Iterator4nexts_0EBN_, symObjAddr: 0xB64, symBinAddr: 0x492E4, symSize: 0xB4 }
  - { offset: 0xBFD0D, size: 0x8, addend: 0x0, symName: __RINvMNtCsfvfooZQ3Axs_4core6optionINtB3_6OptionINtNtCs6IAuOt8vWmF_3syn10punctuated4PairRNtNtBN_8generics14WherePredicateRNtNtBN_5token5CommaEE7or_elseNCNvXsc_BL_INtBL_5PairsB1n_B1U_ENtNtNtNtB5_4iter6traits8iterator8Iterator4nexts_0EBN_, symObjAddr: 0xC18, symBinAddr: 0x49398, symSize: 0xB4 }
  - { offset: 0xBFD7D, size: 0x8, addend: 0x0, symName: __RINvMNtCsfvfooZQ3Axs_4core6optionINtB3_6OptionINtNtCs6IAuOt8vWmF_3syn10punctuated4PairRNtNtBN_8lifetime8LifetimeRNtNtBN_5token4PlusEE7or_elseNCNvXsc_BL_INtBL_5PairsB1n_B1N_ENtNtNtNtB5_4iter6traits8iterator8Iterator4nexts_0EBN_, symObjAddr: 0xCCC, symBinAddr: 0x4944C, symSize: 0xB4 }
  - { offset: 0xBFDE0, size: 0x8, addend: 0x0, symName: __RINvMNtCsfvfooZQ3Axs_4core6optionINtB3_6OptionINtNtCse1nGBsou5OW_5alloc5boxed3BoxNtNtCs6IAuOt8vWmF_3syn4path11PathSegmentEE3mapB1h_NCNvMNtB1l_10punctuatedINtB2a_10PunctuatedB1h_NtNtB1l_5token7PathSepE10into_pairs0EB1l_, symObjAddr: 0xE70, symBinAddr: 0x49500, symSize: 0x74 }
  - { offset: 0xBFE4B, size: 0x8, addend: 0x0, symName: __RINvMNtCsfvfooZQ3Axs_4core6optionINtB3_6OptionINtNtCse1nGBsou5OW_5alloc5boxed3BoxNtNtCs6IAuOt8vWmF_3syn4path11PathSegmentEE3mapINtNtB1l_10punctuated4PairB1h_NtNtB1l_5token7PathSepENCNvMB24_INtB24_10PunctuatedB1h_B2v_E3pop0EB1l_, symObjAddr: 0xEE4, symBinAddr: 0x49574, symSize: 0x70 }
  - { offset: 0xBFEB6, size: 0x8, addend: 0x0, symName: __RINvMNtCsfvfooZQ3Axs_4core6optionINtB3_6OptionINtNtCse1nGBsou5OW_5alloc5boxed3BoxNtNtCs6IAuOt8vWmF_3syn8generics14TypeParamBoundEE3mapB1h_NCNvXs8_NtB1l_10punctuatedINtB2k_10PunctuatedB1h_NtNtB1l_5token4PlusENtNtNtNtB5_4iter6traits7collect12IntoIterator9into_iters_0EB1l_, symObjAddr: 0xF54, symBinAddr: 0x495E4, symSize: 0x70 }
  - { offset: 0xBFF33, size: 0x8, addend: 0x0, symName: __RINvMNtCsfvfooZQ3Axs_4core6optionINtB3_6OptionNtCs3cP53eQoTwO_11proc_macro29TokenTreeE11map_or_elseNtBK_4SpanNvMse_BK_B1z_9call_siteNCNvNvMNtCs6IAuOt8vWmF_3syn5errorNtB2d_5Error11new_spanned11new_spanned0EB2f_, symObjAddr: 0xFC4, symBinAddr: 0x49654, symSize: 0xE4 }
  - { offset: 0xBFFAF, size: 0x8, addend: 0x0, symName: __RINvMNtCsfvfooZQ3Axs_4core6optionINtB3_6OptionNtCs3cP53eQoTwO_11proc_macro29TokenTreeE6map_orNtBK_4SpanNCNvNvMNtCs6IAuOt8vWmF_3syn5errorNtB1K_5Error11new_spanned11new_spanneds_0EB1M_, symObjAddr: 0x10A8, symBinAddr: 0x49738, symSize: 0xC8 }
  - { offset: 0xC003A, size: 0x8, addend: 0x0, symName: __RINvMNtCsfvfooZQ3Axs_4core6optionINtB3_6OptionNtNtCs3cP53eQoTwO_11proc_macro28fallback4SpanE3mapNtNtBM_3imp4SpanNcNtB1w_8Fallback0ECs6IAuOt8vWmF_3syn, symObjAddr: 0x1170, symBinAddr: 0x49800, symSize: 0x4C }
  - { offset: 0xC00BD, size: 0x8, addend: 0x0, symName: __RINvMNtCsfvfooZQ3Axs_4core6optionINtB3_6OptionNtNtCs6IAuOt8vWmF_3syn4path11PathSegmentE3mapINtNtBM_10punctuated4PairBI_NtNtBM_5token7PathSepENcNtB1r_3End0EBM_, symObjAddr: 0x11BC, symBinAddr: 0x4984C, symSize: 0xAC }
  - { offset: 0xC0141, size: 0x8, addend: 0x0, symName: __RINvMNtCsfvfooZQ3Axs_4core6optionINtB3_6OptionNtNtCs6IAuOt8vWmF_3syn5token3MutE6map_orNtNtBM_4item16StaticMutabilityNcNtB1m_3Mut0EBM_, symObjAddr: 0x1268, symBinAddr: 0x498F8, symSize: 0xC4 }
  - { offset: 0xC01B3, size: 0x8, addend: 0x0, symName: __RINvMNtCsfvfooZQ3Axs_4core6optionINtB3_6OptionNtNtCs6IAuOt8vWmF_3syn5token5BraceE3mapNtNtBM_4stmt5BlockNCNvXsp_NtNtBM_4item7parsingNtB1N_11TraitItemFnNtNtBM_5parse5Parse5parse0EBM_, symObjAddr: 0x132C, symBinAddr: 0x499BC, symSize: 0xAC }
  - { offset: 0xC0259, size: 0x8, addend: 0x0, symName: __RINvMNtCsfvfooZQ3Axs_4core6optionINtB3_6OptionNtNtCs6IAuOt8vWmF_3syn6buffer6CursorE6map_orbFG_IBI_L0_EEbEBM_, symObjAddr: 0x13D8, symBinAddr: 0x49A68, symSize: 0xBC }
  - { offset: 0xC02E4, size: 0x8, addend: 0x0, symName: __RINvMNtCsfvfooZQ3Axs_4core6optionINtB3_6OptionNtNtCs6IAuOt8vWmF_3syn6buffer6CursorE8and_thenBI_NvMs_BK_BI_4skipEBM_, symObjAddr: 0x1494, symBinAddr: 0x49B24, symSize: 0x58 }
  - { offset: 0xC03AD, size: 0x8, addend: 0x0, symName: __RINvMNtCsfvfooZQ3Axs_4core6optionINtB3_6OptionNtNtNtCs6IAuOt8vWmF_3syn3pat7parsing13PatRangeBoundE3mapINtNtCse1nGBsou5OW_5alloc5boxed3BoxNtNtBO_4expr4ExprENvMs0_BK_BI_9into_exprEBO_, symObjAddr: 0x1624, symBinAddr: 0x49B7C, symSize: 0x8C }
  - { offset: 0xC047D, size: 0x8, addend: 0x0, symName: __RINvMNtCsfvfooZQ3Axs_4core6optionINtB3_6OptionQINtNtCse1nGBsou5OW_5alloc5boxed3BoxNtNtCs6IAuOt8vWmF_3syn4path11PathSegmentEE3mapQB1i_NvYBJ_INtNtB5_7convert5AsMutB1i_E6as_mutEB1m_, symObjAddr: 0x1700, symBinAddr: 0x49C08, symSize: 0x50 }
  - { offset: 0xC051A, size: 0x8, addend: 0x0, symName: __RINvMNtCsfvfooZQ3Axs_4core6optionINtB3_6OptionQINtNtCse1nGBsou5OW_5alloc5boxed3BoxNtNtCs6IAuOt8vWmF_3syn8generics12GenericParamEE3mapQB1i_NvYBJ_INtNtB5_7convert5AsMutB1i_E6as_mutEB1m_, symObjAddr: 0x1750, symBinAddr: 0x49C58, symSize: 0x50 }
  - { offset: 0xC05D3, size: 0x8, addend: 0x0, symName: __RINvMNtCsfvfooZQ3Axs_4core6optionINtB3_6OptionQNtNtCs6IAuOt8vWmF_3syn4path11PathSegmentE7or_elseNCNvXsF_NtBN_10punctuatedINtB1E_14PrivateIterMutBJ_NtNtBN_5token7PathSepENtNtNtNtB5_4iter6traits8iterator8Iterator4nexts_0EBN_, symObjAddr: 0x18F0, symBinAddr: 0x49CA8, symSize: 0xA8 }
  - { offset: 0xC0669, size: 0x8, addend: 0x0, symName: __RINvMNtCsfvfooZQ3Axs_4core6optionINtB3_6OptionQNtNtCs6IAuOt8vWmF_3syn4path11PathSegmentE7or_elseNCNvXsG_NtBN_10punctuatedINtB1E_14PrivateIterMutBJ_NtNtBN_5token7PathSepENtNtNtNtB5_4iter6traits12double_ended19DoubleEndedIterator9next_back0EBN_, symObjAddr: 0x1998, symBinAddr: 0x49D50, symSize: 0xA8 }
  - { offset: 0xC06D8, size: 0x8, addend: 0x0, symName: __RINvMNtCsfvfooZQ3Axs_4core6optionINtB3_6OptionQNtNtCs6IAuOt8vWmF_3syn8generics12GenericParamE7or_elseNCNvXsF_NtBN_10punctuatedINtB1J_14PrivateIterMutBJ_NtNtBN_5token5CommaENtNtNtNtB5_4iter6traits8iterator8Iterator4nexts_0EBN_, symObjAddr: 0x1A40, symBinAddr: 0x49DF8, symSize: 0xA8 }
  - { offset: 0xC076E, size: 0x8, addend: 0x0, symName: __RINvMNtCsfvfooZQ3Axs_4core6optionINtB3_6OptionQNtNtCs6IAuOt8vWmF_3syn8generics12GenericParamE7or_elseNCNvXsG_NtBN_10punctuatedINtB1J_14PrivateIterMutBJ_NtNtBN_5token5CommaENtNtNtNtB5_4iter6traits12double_ended19DoubleEndedIterator9next_back0EBN_, symObjAddr: 0x1AE8, symBinAddr: 0x49EA0, symSize: 0xA8 }
  - { offset: 0xC07D0, size: 0x8, addend: 0x0, symName: __RINvMNtCsfvfooZQ3Axs_4core6optionINtB3_6OptionQTNtNtCs6IAuOt8vWmF_3syn4path11PathSegmentNtNtBO_5token7PathSepEE3mapQBK_NCNCNvXsG_NtBO_10punctuatedINtB23_14PrivateIterMutBK_B1o_ENtNtNtNtB5_4iter6traits12double_ended19DoubleEndedIterator9next_back00EBO_, symObjAddr: 0x1C30, symBinAddr: 0x49F48, symSize: 0x50 }
  - { offset: 0xC083B, size: 0x8, addend: 0x0, symName: __RINvMNtCsfvfooZQ3Axs_4core6optionINtB3_6OptionQTNtNtCs6IAuOt8vWmF_3syn4path11PathSegmentNtNtBO_5token7PathSepEE3mapQBK_NCNvXsF_NtBO_10punctuatedINtB21_14PrivateIterMutBK_B1o_ENtNtNtNtB5_4iter6traits8iterator8Iterator4next0EBO_, symObjAddr: 0x1C80, symBinAddr: 0x49F98, symSize: 0x50 }
  - { offset: 0xC08A6, size: 0x8, addend: 0x0, symName: __RINvMNtCsfvfooZQ3Axs_4core6optionINtB3_6OptionQTNtNtCs6IAuOt8vWmF_3syn8generics12GenericParamNtNtBO_5token5CommaEE3mapQBK_NCNCNvXsG_NtBO_10punctuatedINtB26_14PrivateIterMutBK_B1t_ENtNtNtNtB5_4iter6traits12double_ended19DoubleEndedIterator9next_back00EBO_, symObjAddr: 0x1CD0, symBinAddr: 0x49FE8, symSize: 0x50 }
  - { offset: 0xC0911, size: 0x8, addend: 0x0, symName: __RINvMNtCsfvfooZQ3Axs_4core6optionINtB3_6OptionQTNtNtCs6IAuOt8vWmF_3syn8generics12GenericParamNtNtBO_5token5CommaEE3mapQBK_NCNvXsF_NtBO_10punctuatedINtB24_14PrivateIterMutBK_B1t_ENtNtNtNtB5_4iter6traits8iterator8Iterator4next0EBO_, symObjAddr: 0x1D20, symBinAddr: 0x4A038, symSize: 0x50 }
  - { offset: 0xC09A1, size: 0x8, addend: 0x0, symName: __RINvMNtCsfvfooZQ3Axs_4core6optionINtB3_6OptionRINtNtCse1nGBsou5OW_5alloc5boxed3BoxNtNtCs6IAuOt8vWmF_3syn2ty4TypeEE3mapRB1i_NvYBJ_INtNtB5_7convert5AsRefB1i_E6as_refEB1m_, symObjAddr: 0x1D70, symBinAddr: 0x4A088, symSize: 0x50 }
  - { offset: 0xC0A31, size: 0x8, addend: 0x0, symName: __RINvMNtCsfvfooZQ3Axs_4core6optionINtB3_6OptionRINtNtCse1nGBsou5OW_5alloc5boxed3BoxNtNtCs6IAuOt8vWmF_3syn2ty9BareFnArgEE3mapRB1i_NvYBJ_INtNtB5_7convert5AsRefB1i_E6as_refEB1m_, symObjAddr: 0x1DC0, symBinAddr: 0x4A0D8, symSize: 0x50 }
  - { offset: 0xC0AC1, size: 0x8, addend: 0x0, symName: __RINvMNtCsfvfooZQ3Axs_4core6optionINtB3_6OptionRINtNtCse1nGBsou5OW_5alloc5boxed3BoxNtNtCs6IAuOt8vWmF_3syn3pat3PatEE3mapRB1i_NvYBJ_INtNtB5_7convert5AsRefB1i_E6as_refEB1m_, symObjAddr: 0x1E10, symBinAddr: 0x4A128, symSize: 0x50 }
  - { offset: 0xC0B51, size: 0x8, addend: 0x0, symName: __RINvMNtCsfvfooZQ3Axs_4core6optionINtB3_6OptionRINtNtCse1nGBsou5OW_5alloc5boxed3BoxNtNtCs6IAuOt8vWmF_3syn3pat8FieldPatEE3mapRB1i_NvYBJ_INtNtB5_7convert5AsRefB1i_E6as_refEB1m_, symObjAddr: 0x1E60, symBinAddr: 0x4A178, symSize: 0x50 }
  - { offset: 0xC0BE1, size: 0x8, addend: 0x0, symName: __RINvMNtCsfvfooZQ3Axs_4core6optionINtB3_6OptionRINtNtCse1nGBsou5OW_5alloc5boxed3BoxNtNtCs6IAuOt8vWmF_3syn4data5FieldEE3mapRB1i_NvYBJ_INtNtB5_7convert5AsRefB1i_E6as_refEB1m_, symObjAddr: 0x1EB0, symBinAddr: 0x4A1C8, symSize: 0x50 }
  - { offset: 0xC0C71, size: 0x8, addend: 0x0, symName: __RINvMNtCsfvfooZQ3Axs_4core6optionINtB3_6OptionRINtNtCse1nGBsou5OW_5alloc5boxed3BoxNtNtCs6IAuOt8vWmF_3syn4data7VariantEE3mapRB1i_NvYBJ_INtNtB5_7convert5AsRefB1i_E6as_refEB1m_, symObjAddr: 0x1F00, symBinAddr: 0x4A218, symSize: 0x50 }
  - { offset: 0xC0D01, size: 0x8, addend: 0x0, symName: __RINvMNtCsfvfooZQ3Axs_4core6optionINtB3_6OptionRINtNtCse1nGBsou5OW_5alloc5boxed3BoxNtNtCs6IAuOt8vWmF_3syn4expr10FieldValueEE3mapRB1i_NvYBJ_INtNtB5_7convert5AsRefB1i_E6as_refEB1m_, symObjAddr: 0x1F50, symBinAddr: 0x4A268, symSize: 0x50 }
  - { offset: 0xC0D84, size: 0x8, addend: 0x0, symName: __RINvMNtCsfvfooZQ3Axs_4core6optionINtB3_6OptionRINtNtCse1nGBsou5OW_5alloc5boxed3BoxNtNtCs6IAuOt8vWmF_3syn4expr4ExprEE3mapRB1i_NvYBJ_INtNtB5_7convert5AsRefB1i_E6as_refEB1m_, symObjAddr: 0x1FA0, symBinAddr: 0x4A2B8, symSize: 0x50 }
  - { offset: 0xC0E14, size: 0x8, addend: 0x0, symName: __RINvMNtCsfvfooZQ3Axs_4core6optionINtB3_6OptionRINtNtCse1nGBsou5OW_5alloc5boxed3BoxNtNtCs6IAuOt8vWmF_3syn4item5FnArgEE3mapRB1i_NvYBJ_INtNtB5_7convert5AsRefB1i_E6as_refEB1m_, symObjAddr: 0x1FF0, symBinAddr: 0x4A308, symSize: 0x50 }
  - { offset: 0xC0EA4, size: 0x8, addend: 0x0, symName: __RINvMNtCsfvfooZQ3Axs_4core6optionINtB3_6OptionRINtNtCse1nGBsou5OW_5alloc5boxed3BoxNtNtCs6IAuOt8vWmF_3syn4item7UseTreeEE3mapRB1i_NvYBJ_INtNtB5_7convert5AsRefB1i_E6as_refEB1m_, symObjAddr: 0x2040, symBinAddr: 0x4A358, symSize: 0x50 }
  - { offset: 0xC0F34, size: 0x8, addend: 0x0, symName: __RINvMNtCsfvfooZQ3Axs_4core6optionINtB3_6OptionRINtNtCse1nGBsou5OW_5alloc5boxed3BoxNtNtCs6IAuOt8vWmF_3syn4path11PathSegmentEE3mapRB1i_NvYBJ_INtNtB5_7convert5AsRefB1i_E6as_refEB1m_, symObjAddr: 0x2090, symBinAddr: 0x4A3A8, symSize: 0x50 }
  - { offset: 0xC0FC4, size: 0x8, addend: 0x0, symName: __RINvMNtCsfvfooZQ3Axs_4core6optionINtB3_6OptionRINtNtCse1nGBsou5OW_5alloc5boxed3BoxNtNtCs6IAuOt8vWmF_3syn4path15GenericArgumentEE3mapRB1i_NvYBJ_INtNtB5_7convert5AsRefB1i_E6as_refEB1m_, symObjAddr: 0x20E0, symBinAddr: 0x4A3F8, symSize: 0x50 }
  - { offset: 0xC1054, size: 0x8, addend: 0x0, symName: __RINvMNtCsfvfooZQ3Axs_4core6optionINtB3_6OptionRINtNtCse1nGBsou5OW_5alloc5boxed3BoxNtNtCs6IAuOt8vWmF_3syn8generics12GenericParamEE3mapRB1i_NvYBJ_INtNtB5_7convert5AsRefB1i_E6as_refEB1m_, symObjAddr: 0x2130, symBinAddr: 0x4A448, symSize: 0x50 }
  - { offset: 0xC10E4, size: 0x8, addend: 0x0, symName: __RINvMNtCsfvfooZQ3Axs_4core6optionINtB3_6OptionRINtNtCse1nGBsou5OW_5alloc5boxed3BoxNtNtCs6IAuOt8vWmF_3syn8generics13CapturedParamEE3mapRB1i_NvYBJ_INtNtB5_7convert5AsRefB1i_E6as_refEB1m_, symObjAddr: 0x2180, symBinAddr: 0x4A498, symSize: 0x50 }
  - { offset: 0xC1174, size: 0x8, addend: 0x0, symName: __RINvMNtCsfvfooZQ3Axs_4core6optionINtB3_6OptionRINtNtCse1nGBsou5OW_5alloc5boxed3BoxNtNtCs6IAuOt8vWmF_3syn8generics14TypeParamBoundEE3mapRB1i_NvYBJ_INtNtB5_7convert5AsRefB1i_E6as_refEB1m_, symObjAddr: 0x21D0, symBinAddr: 0x4A4E8, symSize: 0x50 }
  - { offset: 0xC1204, size: 0x8, addend: 0x0, symName: __RINvMNtCsfvfooZQ3Axs_4core6optionINtB3_6OptionRINtNtCse1nGBsou5OW_5alloc5boxed3BoxNtNtCs6IAuOt8vWmF_3syn8generics14WherePredicateEE3mapRB1i_NvYBJ_INtNtB5_7convert5AsRefB1i_E6as_refEB1m_, symObjAddr: 0x2220, symBinAddr: 0x4A538, symSize: 0x50 }
  - { offset: 0xC1294, size: 0x8, addend: 0x0, symName: __RINvMNtCsfvfooZQ3Axs_4core6optionINtB3_6OptionRINtNtCse1nGBsou5OW_5alloc5boxed3BoxNtNtCs6IAuOt8vWmF_3syn8lifetime8LifetimeEE3mapRB1i_NvYBJ_INtNtB5_7convert5AsRefB1i_E6as_refEB1m_, symObjAddr: 0x2270, symBinAddr: 0x4A588, symSize: 0x50 }
  - { offset: 0xC1338, size: 0x8, addend: 0x0, symName: __RINvMNtCsfvfooZQ3Axs_4core6optionINtB3_6OptionRNtNtCs6IAuOt8vWmF_3syn2ty4TypeE3mapINtNtBN_10punctuated4PairBI_RNtNtBN_5token5CommaENcNtB1i_3End0EBN_, symObjAddr: 0x233C, symBinAddr: 0x4A5D8, symSize: 0x68 }
  - { offset: 0xC13BB, size: 0x8, addend: 0x0, symName: __RINvMNtCsfvfooZQ3Axs_4core6optionINtB3_6OptionRNtNtCs6IAuOt8vWmF_3syn2ty9BareFnArgE3mapINtNtBN_10punctuated4PairBI_RNtNtBN_5token5CommaENcNtB1n_3End0EBN_, symObjAddr: 0x23A4, symBinAddr: 0x4A640, symSize: 0x68 }
  - { offset: 0xC143E, size: 0x8, addend: 0x0, symName: __RINvMNtCsfvfooZQ3Axs_4core6optionINtB3_6OptionRNtNtCs6IAuOt8vWmF_3syn3pat3PatE3mapINtNtBN_10punctuated4PairBI_RNtNtBN_5token2OrENcNtB1i_3End0EBN_, symObjAddr: 0x240C, symBinAddr: 0x4A6A8, symSize: 0x68 }
  - { offset: 0xC14C1, size: 0x8, addend: 0x0, symName: __RINvMNtCsfvfooZQ3Axs_4core6optionINtB3_6OptionRNtNtCs6IAuOt8vWmF_3syn3pat3PatE3mapINtNtBN_10punctuated4PairBI_RNtNtBN_5token5CommaENcNtB1i_3End0EBN_, symObjAddr: 0x2474, symBinAddr: 0x4A710, symSize: 0x68 }
  - { offset: 0xC1544, size: 0x8, addend: 0x0, symName: __RINvMNtCsfvfooZQ3Axs_4core6optionINtB3_6OptionRNtNtCs6IAuOt8vWmF_3syn3pat8FieldPatE3mapINtNtBN_10punctuated4PairBI_RNtNtBN_5token5CommaENcNtB1n_3End0EBN_, symObjAddr: 0x24DC, symBinAddr: 0x4A778, symSize: 0x68 }
  - { offset: 0xC15C7, size: 0x8, addend: 0x0, symName: __RINvMNtCsfvfooZQ3Axs_4core6optionINtB3_6OptionRNtNtCs6IAuOt8vWmF_3syn4data5FieldE3mapINtNtBN_10punctuated4PairBI_RNtNtBN_5token5CommaENcNtB1l_3End0EBN_, symObjAddr: 0x2544, symBinAddr: 0x4A7E0, symSize: 0x68 }
  - { offset: 0xC1632, size: 0x8, addend: 0x0, symName: __RINvMNtCsfvfooZQ3Axs_4core6optionINtB3_6OptionRNtNtCs6IAuOt8vWmF_3syn4data5FieldE7or_elseNCNvXsw_NtBN_10punctuatedINtB1x_11PrivateIterBJ_NtNtBN_5token5CommaENtNtNtNtB5_4iter6traits8iterator8Iterator4nexts_0EBN_, symObjAddr: 0x25AC, symBinAddr: 0x4A848, symSize: 0xA8 }
  - { offset: 0xC16AE, size: 0x8, addend: 0x0, symName: __RINvMNtCsfvfooZQ3Axs_4core6optionINtB3_6OptionRNtNtCs6IAuOt8vWmF_3syn4data5FieldE7or_elseNCNvXsx_NtBN_10punctuatedINtB1x_11PrivateIterBJ_NtNtBN_5token5CommaENtNtNtNtB5_4iter6traits12double_ended19DoubleEndedIterator9next_back0EBN_, symObjAddr: 0x2654, symBinAddr: 0x4A8F0, symSize: 0xA8 }
  - { offset: 0xC1728, size: 0x8, addend: 0x0, symName: __RINvMNtCsfvfooZQ3Axs_4core6optionINtB3_6OptionRNtNtCs6IAuOt8vWmF_3syn4data7VariantE3mapINtNtBN_10punctuated4PairBI_RNtNtBN_5token5CommaENcNtB1n_3End0EBN_, symObjAddr: 0x26FC, symBinAddr: 0x4A998, symSize: 0x68 }
  - { offset: 0xC17AB, size: 0x8, addend: 0x0, symName: __RINvMNtCsfvfooZQ3Axs_4core6optionINtB3_6OptionRNtNtCs6IAuOt8vWmF_3syn4expr10FieldValueE3mapINtNtBN_10punctuated4PairBI_RNtNtBN_5token5CommaENcNtB1r_3End0EBN_, symObjAddr: 0x2764, symBinAddr: 0x4AA00, symSize: 0x68 }
  - { offset: 0xC182E, size: 0x8, addend: 0x0, symName: __RINvMNtCsfvfooZQ3Axs_4core6optionINtB3_6OptionRNtNtCs6IAuOt8vWmF_3syn4expr4ExprE3mapINtNtBN_10punctuated4PairBI_RNtNtBN_5token5CommaENcNtB1k_3End0EBN_, symObjAddr: 0x27CC, symBinAddr: 0x4AA68, symSize: 0x68 }
  - { offset: 0xC18B1, size: 0x8, addend: 0x0, symName: __RINvMNtCsfvfooZQ3Axs_4core6optionINtB3_6OptionRNtNtCs6IAuOt8vWmF_3syn4item5FnArgE3mapINtNtBN_10punctuated4PairBI_RNtNtBN_5token5CommaENcNtB1l_3End0EBN_, symObjAddr: 0x2834, symBinAddr: 0x4AAD0, symSize: 0x68 }
  - { offset: 0xC195B, size: 0x8, addend: 0x0, symName: __RINvMNtCsfvfooZQ3Axs_4core6optionINtB3_6OptionRNtNtCs6IAuOt8vWmF_3syn4item7UseTreeE3mapINtNtBN_10punctuated4PairBI_RNtNtBN_5token5CommaENcNtB1n_3End0EBN_, symObjAddr: 0x29EC, symBinAddr: 0x4AB38, symSize: 0x68 }
  - { offset: 0xC19DE, size: 0x8, addend: 0x0, symName: __RINvMNtCsfvfooZQ3Axs_4core6optionINtB3_6OptionRNtNtCs6IAuOt8vWmF_3syn4path11PathSegmentE3mapINtNtBN_10punctuated4PairBI_RNtNtBN_5token7PathSepENcNtB1s_3End0EBN_, symObjAddr: 0x2A54, symBinAddr: 0x4ABA0, symSize: 0x68 }
  - { offset: 0xC1A49, size: 0x8, addend: 0x0, symName: __RINvMNtCsfvfooZQ3Axs_4core6optionINtB3_6OptionRNtNtCs6IAuOt8vWmF_3syn4path11PathSegmentE7or_elseNCNvXsw_NtBN_10punctuatedINtB1E_11PrivateIterBJ_NtNtBN_5token7PathSepENtNtNtNtB5_4iter6traits8iterator8Iterator4nexts_0EBN_, symObjAddr: 0x2ABC, symBinAddr: 0x4AC08, symSize: 0xA8 }
  - { offset: 0xC1AC5, size: 0x8, addend: 0x0, symName: __RINvMNtCsfvfooZQ3Axs_4core6optionINtB3_6OptionRNtNtCs6IAuOt8vWmF_3syn4path11PathSegmentE7or_elseNCNvXsx_NtBN_10punctuatedINtB1E_11PrivateIterBJ_NtNtBN_5token7PathSepENtNtNtNtB5_4iter6traits12double_ended19DoubleEndedIterator9next_back0EBN_, symObjAddr: 0x2B64, symBinAddr: 0x4ACB0, symSize: 0xA8 }
  - { offset: 0xC1B3F, size: 0x8, addend: 0x0, symName: __RINvMNtCsfvfooZQ3Axs_4core6optionINtB3_6OptionRNtNtCs6IAuOt8vWmF_3syn4path15GenericArgumentE3mapINtNtBN_10punctuated4PairBI_RNtNtBN_5token5CommaENcNtB1w_3End0EBN_, symObjAddr: 0x2C0C, symBinAddr: 0x4AD58, symSize: 0x68 }
  - { offset: 0xC1BAA, size: 0x8, addend: 0x0, symName: __RINvMNtCsfvfooZQ3Axs_4core6optionINtB3_6OptionRNtNtCs6IAuOt8vWmF_3syn5token3MutE3mapBJ_NCNvXs9_NtNtBN_4item7parsingNtB1x_8ReceiverNtNtBN_5parse5Parse5parse0EBN_, symObjAddr: 0x2C74, symBinAddr: 0x4ADC0, symSize: 0x5C }
  - { offset: 0xC1C2D, size: 0x8, addend: 0x0, symName: __RINvMNtCsfvfooZQ3Axs_4core6optionINtB3_6OptionRNtNtCs6IAuOt8vWmF_3syn8generics12GenericParamE3mapINtNtBN_10punctuated4PairBI_RNtNtBN_5token5CommaENcNtB1x_3End0EBN_, symObjAddr: 0x2CD0, symBinAddr: 0x4AE1C, symSize: 0x68 }
  - { offset: 0xC1CCA, size: 0x8, addend: 0x0, symName: __RINvMNtCsfvfooZQ3Axs_4core6optionINtB3_6OptionRNtNtCs6IAuOt8vWmF_3syn8generics13CapturedParamE3mapINtNtBN_10punctuated4PairBI_RNtNtBN_5token5CommaENcNtB1y_3End0EBN_, symObjAddr: 0x2E88, symBinAddr: 0x4AE84, symSize: 0x68 }
  - { offset: 0xC1D4D, size: 0x8, addend: 0x0, symName: __RINvMNtCsfvfooZQ3Axs_4core6optionINtB3_6OptionRNtNtCs6IAuOt8vWmF_3syn8generics14TypeParamBoundE3mapINtNtBN_10punctuated4PairBI_RNtNtBN_5token4PlusENcNtB1z_3End0EBN_, symObjAddr: 0x2EF0, symBinAddr: 0x4AEEC, symSize: 0x68 }
  - { offset: 0xC1DB8, size: 0x8, addend: 0x0, symName: __RINvMNtCsfvfooZQ3Axs_4core6optionINtB3_6OptionRNtNtCs6IAuOt8vWmF_3syn8generics14TypeParamBoundE7or_elseNCNvXsw_NtBN_10punctuatedINtB1L_11PrivateIterBJ_NtNtBN_5token4PlusENtNtNtNtB5_4iter6traits8iterator8Iterator4nexts_0EBN_, symObjAddr: 0x2F58, symBinAddr: 0x4AF54, symSize: 0xA8 }
  - { offset: 0xC1E41, size: 0x8, addend: 0x0, symName: __RINvMNtCsfvfooZQ3Axs_4core6optionINtB3_6OptionRNtNtCs6IAuOt8vWmF_3syn8generics14TypeParamBoundE7or_elseNCNvXsx_NtBN_10punctuatedINtB1L_11PrivateIterBJ_NtNtBN_5token4PlusENtNtNtNtB5_4iter6traits12double_ended19DoubleEndedIterator9next_back0EBN_, symObjAddr: 0x3000, symBinAddr: 0x4AFFC, symSize: 0xA8 }
  - { offset: 0xC1EBB, size: 0x8, addend: 0x0, symName: __RINvMNtCsfvfooZQ3Axs_4core6optionINtB3_6OptionRNtNtCs6IAuOt8vWmF_3syn8generics14WherePredicateE3mapINtNtBN_10punctuated4PairBI_RNtNtBN_5token5CommaENcNtB1z_3End0EBN_, symObjAddr: 0x30A8, symBinAddr: 0x4B0A4, symSize: 0x68 }
  - { offset: 0xC1F3E, size: 0x8, addend: 0x0, symName: __RINvMNtCsfvfooZQ3Axs_4core6optionINtB3_6OptionRNtNtCs6IAuOt8vWmF_3syn8lifetime8LifetimeE3mapINtNtBN_10punctuated4PairBI_RNtNtBN_5token4PlusENcNtB1s_3End0EBN_, symObjAddr: 0x3110, symBinAddr: 0x4B10C, symSize: 0x68 }
  - { offset: 0xC1FB6, size: 0x8, addend: 0x0, symName: __RINvMNtCsfvfooZQ3Axs_4core6optionINtB3_6OptionRTNtNtCs6IAuOt8vWmF_3syn2ty4TypeNtNtBO_5token5CommaEE3mapINtNtBO_10punctuated4PairRBK_RB1e_ENCNvXsc_B1G_INtB1G_5PairsBK_B1e_ENtNtNtNtB5_4iter6traits8iterator8Iterator4next0EBO_, symObjAddr: 0x3178, symBinAddr: 0x4B174, symSize: 0x68 }
  - { offset: 0xC202E, size: 0x8, addend: 0x0, symName: __RINvMNtCsfvfooZQ3Axs_4core6optionINtB3_6OptionRTNtNtCs6IAuOt8vWmF_3syn2ty9BareFnArgNtNtBO_5token5CommaEE3mapINtNtBO_10punctuated4PairRBK_RB1j_ENCNvXsc_B1L_INtB1L_5PairsBK_B1j_ENtNtNtNtB5_4iter6traits8iterator8Iterator4next0EBO_, symObjAddr: 0x31E0, symBinAddr: 0x4B1DC, symSize: 0x68 }
  - { offset: 0xC20A6, size: 0x8, addend: 0x0, symName: __RINvMNtCsfvfooZQ3Axs_4core6optionINtB3_6OptionRTNtNtCs6IAuOt8vWmF_3syn3pat3PatNtNtBO_5token2OrEE3mapINtNtBO_10punctuated4PairRBK_RB1e_ENCNvXsc_B1D_INtB1D_5PairsBK_B1e_ENtNtNtNtB5_4iter6traits8iterator8Iterator4next0EBO_, symObjAddr: 0x3248, symBinAddr: 0x4B244, symSize: 0x68 }
  - { offset: 0xC211E, size: 0x8, addend: 0x0, symName: __RINvMNtCsfvfooZQ3Axs_4core6optionINtB3_6OptionRTNtNtCs6IAuOt8vWmF_3syn3pat3PatNtNtBO_5token5CommaEE3mapINtNtBO_10punctuated4PairRBK_RB1e_ENCNvXsc_B1G_INtB1G_5PairsBK_B1e_ENtNtNtNtB5_4iter6traits8iterator8Iterator4next0EBO_, symObjAddr: 0x32B0, symBinAddr: 0x4B2AC, symSize: 0x68 }
  - { offset: 0xC2196, size: 0x8, addend: 0x0, symName: __RINvMNtCsfvfooZQ3Axs_4core6optionINtB3_6OptionRTNtNtCs6IAuOt8vWmF_3syn3pat8FieldPatNtNtBO_5token5CommaEE3mapINtNtBO_10punctuated4PairRBK_RB1j_ENCNvXsc_B1L_INtB1L_5PairsBK_B1j_ENtNtNtNtB5_4iter6traits8iterator8Iterator4next0EBO_, symObjAddr: 0x3318, symBinAddr: 0x4B314, symSize: 0x68 }
  - { offset: 0xC2201, size: 0x8, addend: 0x0, symName: __RINvMNtCsfvfooZQ3Axs_4core6optionINtB3_6OptionRTNtNtCs6IAuOt8vWmF_3syn4data5FieldNtNtBO_5token5CommaEE3mapINtNtBO_10punctuated4PairRBK_RB1h_ENCNvXsc_B1J_INtB1J_5PairsBK_B1h_ENtNtNtNtB5_4iter6traits8iterator8Iterator4next0EBO_, symObjAddr: 0x3380, symBinAddr: 0x4B37C, symSize: 0x68 }
  - { offset: 0xC226C, size: 0x8, addend: 0x0, symName: __RINvMNtCsfvfooZQ3Axs_4core6optionINtB3_6OptionRTNtNtCs6IAuOt8vWmF_3syn4data5FieldNtNtBO_5token5CommaEE3mapRBK_NCNCNvXsx_NtBO_10punctuatedINtB1U_11PrivateIterBK_B1h_ENtNtNtNtB5_4iter6traits12double_ended19DoubleEndedIterator9next_back00EBO_, symObjAddr: 0x33E8, symBinAddr: 0x4B3E4, symSize: 0x50 }
  - { offset: 0xC22D7, size: 0x8, addend: 0x0, symName: __RINvMNtCsfvfooZQ3Axs_4core6optionINtB3_6OptionRTNtNtCs6IAuOt8vWmF_3syn4data5FieldNtNtBO_5token5CommaEE3mapRBK_NCNvXsw_NtBO_10punctuatedINtB1S_11PrivateIterBK_B1h_ENtNtNtNtB5_4iter6traits8iterator8Iterator4next0EBO_, symObjAddr: 0x3438, symBinAddr: 0x4B434, symSize: 0x50 }
  - { offset: 0xC234F, size: 0x8, addend: 0x0, symName: __RINvMNtCsfvfooZQ3Axs_4core6optionINtB3_6OptionRTNtNtCs6IAuOt8vWmF_3syn4data7VariantNtNtBO_5token5CommaEE3mapINtNtBO_10punctuated4PairRBK_RB1j_ENCNvXsc_B1L_INtB1L_5PairsBK_B1j_ENtNtNtNtB5_4iter6traits8iterator8Iterator4next0EBO_, symObjAddr: 0x3488, symBinAddr: 0x4B484, symSize: 0x68 }
  - { offset: 0xC23C7, size: 0x8, addend: 0x0, symName: __RINvMNtCsfvfooZQ3Axs_4core6optionINtB3_6OptionRTNtNtCs6IAuOt8vWmF_3syn4expr10FieldValueNtNtBO_5token5CommaEE3mapINtNtBO_10punctuated4PairRBK_RB1n_ENCNvXsc_B1P_INtB1P_5PairsBK_B1n_ENtNtNtNtB5_4iter6traits8iterator8Iterator4next0EBO_, symObjAddr: 0x34F0, symBinAddr: 0x4B4EC, symSize: 0x68 }
  - { offset: 0xC243F, size: 0x8, addend: 0x0, symName: __RINvMNtCsfvfooZQ3Axs_4core6optionINtB3_6OptionRTNtNtCs6IAuOt8vWmF_3syn4expr4ExprNtNtBO_5token5CommaEE3mapINtNtBO_10punctuated4PairRBK_RB1g_ENCNvXsc_B1I_INtB1I_5PairsBK_B1g_ENtNtNtNtB5_4iter6traits8iterator8Iterator4next0EBO_, symObjAddr: 0x3558, symBinAddr: 0x4B554, symSize: 0x68 }
  - { offset: 0xC24AA, size: 0x8, addend: 0x0, symName: __RINvMNtCsfvfooZQ3Axs_4core6optionINtB3_6OptionRTNtNtCs6IAuOt8vWmF_3syn4item5FnArgNtNtBO_5token5CommaEE3mapINtNtBO_10punctuated4PairRBK_RB1h_ENCNvXsc_B1J_INtB1J_5PairsBK_B1h_ENtNtNtNtB5_4iter6traits8iterator8Iterator4next0EBO_, symObjAddr: 0x35C0, symBinAddr: 0x4B5BC, symSize: 0x68 }
  - { offset: 0xC2522, size: 0x8, addend: 0x0, symName: __RINvMNtCsfvfooZQ3Axs_4core6optionINtB3_6OptionRTNtNtCs6IAuOt8vWmF_3syn4item7UseTreeNtNtBO_5token5CommaEE3mapINtNtBO_10punctuated4PairRBK_RB1j_ENCNvXsc_B1L_INtB1L_5PairsBK_B1j_ENtNtNtNtB5_4iter6traits8iterator8Iterator4next0EBO_, symObjAddr: 0x36C8, symBinAddr: 0x4B624, symSize: 0x68 }
  - { offset: 0xC258D, size: 0x8, addend: 0x0, symName: __RINvMNtCsfvfooZQ3Axs_4core6optionINtB3_6OptionRTNtNtCs6IAuOt8vWmF_3syn4path11PathSegmentNtNtBO_5token7PathSepEE3mapINtNtBO_10punctuated4PairRBK_RB1o_ENCNvXsc_B1S_INtB1S_5PairsBK_B1o_ENtNtNtNtB5_4iter6traits8iterator8Iterator4next0EBO_, symObjAddr: 0x3730, symBinAddr: 0x4B68C, symSize: 0x68 }
  - { offset: 0xC25F8, size: 0x8, addend: 0x0, symName: __RINvMNtCsfvfooZQ3Axs_4core6optionINtB3_6OptionRTNtNtCs6IAuOt8vWmF_3syn4path11PathSegmentNtNtBO_5token7PathSepEE3mapRBK_NCNCNvXsx_NtBO_10punctuatedINtB23_11PrivateIterBK_B1o_ENtNtNtNtB5_4iter6traits12double_ended19DoubleEndedIterator9next_back00EBO_, symObjAddr: 0x3798, symBinAddr: 0x4B6F4, symSize: 0x50 }
  - { offset: 0xC2663, size: 0x8, addend: 0x0, symName: __RINvMNtCsfvfooZQ3Axs_4core6optionINtB3_6OptionRTNtNtCs6IAuOt8vWmF_3syn4path11PathSegmentNtNtBO_5token7PathSepEE3mapRBK_NCNvXsw_NtBO_10punctuatedINtB21_11PrivateIterBK_B1o_ENtNtNtNtB5_4iter6traits8iterator8Iterator4next0EBO_, symObjAddr: 0x37E8, symBinAddr: 0x4B744, symSize: 0x50 }
  - { offset: 0xC26DB, size: 0x8, addend: 0x0, symName: __RINvMNtCsfvfooZQ3Axs_4core6optionINtB3_6OptionRTNtNtCs6IAuOt8vWmF_3syn4path15GenericArgumentNtNtBO_5token5CommaEE3mapINtNtBO_10punctuated4PairRBK_RB1s_ENCNvXsc_B1U_INtB1U_5PairsBK_B1s_ENtNtNtNtB5_4iter6traits8iterator8Iterator4next0EBO_, symObjAddr: 0x3838, symBinAddr: 0x4B794, symSize: 0x68 }
  - { offset: 0xC2746, size: 0x8, addend: 0x0, symName: __RINvMNtCsfvfooZQ3Axs_4core6optionINtB3_6OptionRTNtNtCs6IAuOt8vWmF_3syn8generics12GenericParamNtNtBO_5token5CommaEE3mapINtNtBO_10punctuated4PairRBK_RB1t_ENCNvXsc_B1V_INtB1V_5PairsBK_B1t_ENtNtNtNtB5_4iter6traits8iterator8Iterator4next0EBO_, symObjAddr: 0x38A0, symBinAddr: 0x4B7FC, symSize: 0x68 }
  - { offset: 0xC27BE, size: 0x8, addend: 0x0, symName: __RINvMNtCsfvfooZQ3Axs_4core6optionINtB3_6OptionRTNtNtCs6IAuOt8vWmF_3syn8generics13CapturedParamNtNtBO_5token5CommaEE3mapINtNtBO_10punctuated4PairRBK_RB1u_ENCNvXsc_B1W_INtB1W_5PairsBK_B1u_ENtNtNtNtB5_4iter6traits8iterator8Iterator4next0EBO_, symObjAddr: 0x39A8, symBinAddr: 0x4B864, symSize: 0x68 }
  - { offset: 0xC2829, size: 0x8, addend: 0x0, symName: __RINvMNtCsfvfooZQ3Axs_4core6optionINtB3_6OptionRTNtNtCs6IAuOt8vWmF_3syn8generics14TypeParamBoundNtNtBO_5token4PlusEE3mapINtNtBO_10punctuated4PairRBK_RB1v_ENCNvXsc_B1W_INtB1W_5PairsBK_B1v_ENtNtNtNtB5_4iter6traits8iterator8Iterator4next0EBO_, symObjAddr: 0x3A10, symBinAddr: 0x4B8CC, symSize: 0x68 }
  - { offset: 0xC2894, size: 0x8, addend: 0x0, symName: __RINvMNtCsfvfooZQ3Axs_4core6optionINtB3_6OptionRTNtNtCs6IAuOt8vWmF_3syn8generics14TypeParamBoundNtNtBO_5token4PlusEE3mapRBK_NCNCNvXsx_NtBO_10punctuatedINtB27_11PrivateIterBK_B1v_ENtNtNtNtB5_4iter6traits12double_ended19DoubleEndedIterator9next_back00EBO_, symObjAddr: 0x3A78, symBinAddr: 0x4B934, symSize: 0x50 }
  - { offset: 0xC28FF, size: 0x8, addend: 0x0, symName: __RINvMNtCsfvfooZQ3Axs_4core6optionINtB3_6OptionRTNtNtCs6IAuOt8vWmF_3syn8generics14TypeParamBoundNtNtBO_5token4PlusEE3mapRBK_NCNvXsw_NtBO_10punctuatedINtB25_11PrivateIterBK_B1v_ENtNtNtNtB5_4iter6traits8iterator8Iterator4next0EBO_, symObjAddr: 0x3AC8, symBinAddr: 0x4B984, symSize: 0x50 }
  - { offset: 0xC2977, size: 0x8, addend: 0x0, symName: __RINvMNtCsfvfooZQ3Axs_4core6optionINtB3_6OptionRTNtNtCs6IAuOt8vWmF_3syn8generics14WherePredicateNtNtBO_5token5CommaEE3mapINtNtBO_10punctuated4PairRBK_RB1v_ENCNvXsc_B1X_INtB1X_5PairsBK_B1v_ENtNtNtNtB5_4iter6traits8iterator8Iterator4next0EBO_, symObjAddr: 0x3B18, symBinAddr: 0x4B9D4, symSize: 0x68 }
  - { offset: 0xC29EF, size: 0x8, addend: 0x0, symName: __RINvMNtCsfvfooZQ3Axs_4core6optionINtB3_6OptionRTNtNtCs6IAuOt8vWmF_3syn8lifetime8LifetimeNtNtBO_5token4PlusEE3mapINtNtBO_10punctuated4PairRBK_RB1o_ENCNvXsc_B1P_INtB1P_5PairsBK_B1o_ENtNtNtNtB5_4iter6traits8iterator8Iterator4next0EBO_, symObjAddr: 0x3B80, symBinAddr: 0x4BA3C, symSize: 0x68 }
  - { offset: 0xC2A5A, size: 0x8, addend: 0x0, symName: __RINvMNtCsfvfooZQ3Axs_4core6optionINtB3_6OptionTNtNtCs6IAuOt8vWmF_3syn4path11PathSegmentNtNtBN_5token7PathSepEE3mapINtNtBN_10punctuated4PairBJ_B1n_ENCNvMB1R_INtB1R_10PunctuatedBJ_B1n_E3pops_0EBN_, symObjAddr: 0x3BE8, symBinAddr: 0x4BAA4, symSize: 0xA8 }
  - { offset: 0xC2AC6, size: 0x8, addend: 0x0, symName: __RINvMNtCsfvfooZQ3Axs_4core6optionINtB3_6OptionTNtNtCs6IAuOt8vWmF_3syn4path11PathSegmentNtNtBN_5token7PathSepEE3mapINtNtBN_10punctuated4PairBJ_B1n_ENCNvXsj_B1R_INtB1R_9IntoPairsBJ_B1n_ENtNtNtNtB5_4iter6traits8iterator8Iterator4next0EBN_, symObjAddr: 0x3C90, symBinAddr: 0x4BB4C, symSize: 0xA8 }
  - { offset: 0xC2B75, size: 0x8, addend: 0x0, symName: __RINvMNtCsfvfooZQ3Axs_4core6optionINtB3_6OptionTNtNtCs6IAuOt8vWmF_3syn8lifetime8LifetimeNtNtBN_6buffer6CursorEE10ok_or_elseNtNtBN_5error5ErrorNCNCNvXNtBL_7parsingBJ_NtNtBN_5parse5Parse5parse00EBN_, symObjAddr: 0x3D38, symBinAddr: 0x4BBF4, symSize: 0x98 }
  - { offset: 0xC2D09, size: 0x8, addend: 0x0, symName: __RINvMs3_NtCsfvfooZQ3Axs_4core3fmtNtB6_9Arguments6new_v1Kj2_KBS_ECs6IAuOt8vWmF_3syn, symObjAddr: 0x3DD0, symBinAddr: 0x4BC8C, symSize: 0x50 }
  - { offset: 0xC2D62, size: 0x8, addend: 0x0, symName: __RNvMNtCsfvfooZQ3Axs_4core6optionINtB2_6OptionINtNtCse1nGBsou5OW_5alloc5boxed3BoxNtNtCs6IAuOt8vWmF_3syn2ty4TypeEE4takeB1k_, symObjAddr: 0x45C8, symBinAddr: 0x4BF2C, symSize: 0x28 }
  - { offset: 0xC2DF5, size: 0x8, addend: 0x0, symName: __RNvMNtCsfvfooZQ3Axs_4core6optionINtB2_6OptionINtNtCse1nGBsou5OW_5alloc5boxed3BoxNtNtCs6IAuOt8vWmF_3syn2ty4TypeEE6as_refB1k_, symObjAddr: 0x45F0, symBinAddr: 0x4BF54, symSize: 0x4C }
  - { offset: 0xC2E5B, size: 0x8, addend: 0x0, symName: __RNvMNtCsfvfooZQ3Axs_4core6optionINtB2_6OptionINtNtCse1nGBsou5OW_5alloc5boxed3BoxNtNtCs6IAuOt8vWmF_3syn2ty4TypeEE7is_noneB1k_, symObjAddr: 0x463C, symBinAddr: 0x4BFA0, symSize: 0x28 }
  - { offset: 0xC2EA5, size: 0x8, addend: 0x0, symName: __RNvMNtCsfvfooZQ3Axs_4core6optionINtB2_6OptionINtNtCse1nGBsou5OW_5alloc5boxed3BoxNtNtCs6IAuOt8vWmF_3syn2ty4TypeEE7is_someB1k_, symObjAddr: 0x4664, symBinAddr: 0x4BFC8, symSize: 0x28 }
  - { offset: 0xC2EDE, size: 0x8, addend: 0x0, symName: __RNvMNtCsfvfooZQ3Axs_4core6optionINtB2_6OptionINtNtCse1nGBsou5OW_5alloc5boxed3BoxNtNtCs6IAuOt8vWmF_3syn2ty9BareFnArgEE4takeB1k_, symObjAddr: 0x468C, symBinAddr: 0x4BFF0, symSize: 0x28 }
  - { offset: 0xC2F71, size: 0x8, addend: 0x0, symName: __RNvMNtCsfvfooZQ3Axs_4core6optionINtB2_6OptionINtNtCse1nGBsou5OW_5alloc5boxed3BoxNtNtCs6IAuOt8vWmF_3syn2ty9BareFnArgEE6as_refB1k_, symObjAddr: 0x46B4, symBinAddr: 0x4C018, symSize: 0x4C }
  - { offset: 0xC2FD7, size: 0x8, addend: 0x0, symName: __RNvMNtCsfvfooZQ3Axs_4core6optionINtB2_6OptionINtNtCse1nGBsou5OW_5alloc5boxed3BoxNtNtCs6IAuOt8vWmF_3syn2ty9BareFnArgEE7is_noneB1k_, symObjAddr: 0x4700, symBinAddr: 0x4C064, symSize: 0x28 }
  - { offset: 0xC3021, size: 0x8, addend: 0x0, symName: __RNvMNtCsfvfooZQ3Axs_4core6optionINtB2_6OptionINtNtCse1nGBsou5OW_5alloc5boxed3BoxNtNtCs6IAuOt8vWmF_3syn2ty9BareFnArgEE7is_someB1k_, symObjAddr: 0x4728, symBinAddr: 0x4C08C, symSize: 0x28 }
  - { offset: 0xC305A, size: 0x8, addend: 0x0, symName: __RNvMNtCsfvfooZQ3Axs_4core6optionINtB2_6OptionINtNtCse1nGBsou5OW_5alloc5boxed3BoxNtNtCs6IAuOt8vWmF_3syn3pat3PatEE4takeB1k_, symObjAddr: 0x4750, symBinAddr: 0x4C0B4, symSize: 0x28 }
  - { offset: 0xC30ED, size: 0x8, addend: 0x0, symName: __RNvMNtCsfvfooZQ3Axs_4core6optionINtB2_6OptionINtNtCse1nGBsou5OW_5alloc5boxed3BoxNtNtCs6IAuOt8vWmF_3syn3pat3PatEE6as_refB1k_, symObjAddr: 0x4778, symBinAddr: 0x4C0DC, symSize: 0x4C }
  - { offset: 0xC3153, size: 0x8, addend: 0x0, symName: __RNvMNtCsfvfooZQ3Axs_4core6optionINtB2_6OptionINtNtCse1nGBsou5OW_5alloc5boxed3BoxNtNtCs6IAuOt8vWmF_3syn3pat3PatEE7is_noneB1k_, symObjAddr: 0x47C4, symBinAddr: 0x4C128, symSize: 0x28 }
  - { offset: 0xC319D, size: 0x8, addend: 0x0, symName: __RNvMNtCsfvfooZQ3Axs_4core6optionINtB2_6OptionINtNtCse1nGBsou5OW_5alloc5boxed3BoxNtNtCs6IAuOt8vWmF_3syn3pat3PatEE7is_someB1k_, symObjAddr: 0x47EC, symBinAddr: 0x4C150, symSize: 0x28 }
  - { offset: 0xC31D6, size: 0x8, addend: 0x0, symName: __RNvMNtCsfvfooZQ3Axs_4core6optionINtB2_6OptionINtNtCse1nGBsou5OW_5alloc5boxed3BoxNtNtCs6IAuOt8vWmF_3syn3pat8FieldPatEE4takeB1k_, symObjAddr: 0x4814, symBinAddr: 0x4C178, symSize: 0x28 }
  - { offset: 0xC3269, size: 0x8, addend: 0x0, symName: __RNvMNtCsfvfooZQ3Axs_4core6optionINtB2_6OptionINtNtCse1nGBsou5OW_5alloc5boxed3BoxNtNtCs6IAuOt8vWmF_3syn3pat8FieldPatEE6as_refB1k_, symObjAddr: 0x483C, symBinAddr: 0x4C1A0, symSize: 0x4C }
  - { offset: 0xC32CF, size: 0x8, addend: 0x0, symName: __RNvMNtCsfvfooZQ3Axs_4core6optionINtB2_6OptionINtNtCse1nGBsou5OW_5alloc5boxed3BoxNtNtCs6IAuOt8vWmF_3syn3pat8FieldPatEE7is_noneB1k_, symObjAddr: 0x4888, symBinAddr: 0x4C1EC, symSize: 0x28 }
  - { offset: 0xC3319, size: 0x8, addend: 0x0, symName: __RNvMNtCsfvfooZQ3Axs_4core6optionINtB2_6OptionINtNtCse1nGBsou5OW_5alloc5boxed3BoxNtNtCs6IAuOt8vWmF_3syn3pat8FieldPatEE7is_someB1k_, symObjAddr: 0x48B0, symBinAddr: 0x4C214, symSize: 0x28 }
  - { offset: 0xC3352, size: 0x8, addend: 0x0, symName: __RNvMNtCsfvfooZQ3Axs_4core6optionINtB2_6OptionINtNtCse1nGBsou5OW_5alloc5boxed3BoxNtNtCs6IAuOt8vWmF_3syn4data5FieldEE4takeB1k_, symObjAddr: 0x48D8, symBinAddr: 0x4C23C, symSize: 0x28 }
  - { offset: 0xC33E5, size: 0x8, addend: 0x0, symName: __RNvMNtCsfvfooZQ3Axs_4core6optionINtB2_6OptionINtNtCse1nGBsou5OW_5alloc5boxed3BoxNtNtCs6IAuOt8vWmF_3syn4data5FieldEE6as_refB1k_, symObjAddr: 0x494C, symBinAddr: 0x4C264, symSize: 0x4C }
  - { offset: 0xC344B, size: 0x8, addend: 0x0, symName: __RNvMNtCsfvfooZQ3Axs_4core6optionINtB2_6OptionINtNtCse1nGBsou5OW_5alloc5boxed3BoxNtNtCs6IAuOt8vWmF_3syn4data5FieldEE7is_noneB1k_, symObjAddr: 0x4998, symBinAddr: 0x4C2B0, symSize: 0x28 }
  - { offset: 0xC3495, size: 0x8, addend: 0x0, symName: __RNvMNtCsfvfooZQ3Axs_4core6optionINtB2_6OptionINtNtCse1nGBsou5OW_5alloc5boxed3BoxNtNtCs6IAuOt8vWmF_3syn4data5FieldEE7is_someB1k_, symObjAddr: 0x49C0, symBinAddr: 0x4C2D8, symSize: 0x28 }
  - { offset: 0xC34CE, size: 0x8, addend: 0x0, symName: __RNvMNtCsfvfooZQ3Axs_4core6optionINtB2_6OptionINtNtCse1nGBsou5OW_5alloc5boxed3BoxNtNtCs6IAuOt8vWmF_3syn4data7VariantEE4takeB1k_, symObjAddr: 0x49E8, symBinAddr: 0x4C300, symSize: 0x28 }
  - { offset: 0xC3561, size: 0x8, addend: 0x0, symName: __RNvMNtCsfvfooZQ3Axs_4core6optionINtB2_6OptionINtNtCse1nGBsou5OW_5alloc5boxed3BoxNtNtCs6IAuOt8vWmF_3syn4data7VariantEE6as_refB1k_, symObjAddr: 0x4A10, symBinAddr: 0x4C328, symSize: 0x4C }
  - { offset: 0xC35C7, size: 0x8, addend: 0x0, symName: __RNvMNtCsfvfooZQ3Axs_4core6optionINtB2_6OptionINtNtCse1nGBsou5OW_5alloc5boxed3BoxNtNtCs6IAuOt8vWmF_3syn4data7VariantEE7is_noneB1k_, symObjAddr: 0x4A5C, symBinAddr: 0x4C374, symSize: 0x28 }
  - { offset: 0xC3611, size: 0x8, addend: 0x0, symName: __RNvMNtCsfvfooZQ3Axs_4core6optionINtB2_6OptionINtNtCse1nGBsou5OW_5alloc5boxed3BoxNtNtCs6IAuOt8vWmF_3syn4data7VariantEE7is_someB1k_, symObjAddr: 0x4A84, symBinAddr: 0x4C39C, symSize: 0x28 }
  - { offset: 0xC364A, size: 0x8, addend: 0x0, symName: __RNvMNtCsfvfooZQ3Axs_4core6optionINtB2_6OptionINtNtCse1nGBsou5OW_5alloc5boxed3BoxNtNtCs6IAuOt8vWmF_3syn4expr10FieldValueEE4takeB1k_, symObjAddr: 0x4AAC, symBinAddr: 0x4C3C4, symSize: 0x28 }
  - { offset: 0xC36DD, size: 0x8, addend: 0x0, symName: __RNvMNtCsfvfooZQ3Axs_4core6optionINtB2_6OptionINtNtCse1nGBsou5OW_5alloc5boxed3BoxNtNtCs6IAuOt8vWmF_3syn4expr10FieldValueEE6as_refB1k_, symObjAddr: 0x4AD4, symBinAddr: 0x4C3EC, symSize: 0x4C }
  - { offset: 0xC3743, size: 0x8, addend: 0x0, symName: __RNvMNtCsfvfooZQ3Axs_4core6optionINtB2_6OptionINtNtCse1nGBsou5OW_5alloc5boxed3BoxNtNtCs6IAuOt8vWmF_3syn4expr10FieldValueEE7is_noneB1k_, symObjAddr: 0x4B20, symBinAddr: 0x4C438, symSize: 0x28 }
  - { offset: 0xC378D, size: 0x8, addend: 0x0, symName: __RNvMNtCsfvfooZQ3Axs_4core6optionINtB2_6OptionINtNtCse1nGBsou5OW_5alloc5boxed3BoxNtNtCs6IAuOt8vWmF_3syn4expr10FieldValueEE7is_someB1k_, symObjAddr: 0x4B48, symBinAddr: 0x4C460, symSize: 0x28 }
  - { offset: 0xC37C6, size: 0x8, addend: 0x0, symName: __RNvMNtCsfvfooZQ3Axs_4core6optionINtB2_6OptionINtNtCse1nGBsou5OW_5alloc5boxed3BoxNtNtCs6IAuOt8vWmF_3syn4expr4ExprEE4takeB1k_, symObjAddr: 0x4B70, symBinAddr: 0x4C488, symSize: 0x28 }
  - { offset: 0xC3859, size: 0x8, addend: 0x0, symName: __RNvMNtCsfvfooZQ3Axs_4core6optionINtB2_6OptionINtNtCse1nGBsou5OW_5alloc5boxed3BoxNtNtCs6IAuOt8vWmF_3syn4expr4ExprEE6as_refB1k_, symObjAddr: 0x4B98, symBinAddr: 0x4C4B0, symSize: 0x4C }
  - { offset: 0xC38BF, size: 0x8, addend: 0x0, symName: __RNvMNtCsfvfooZQ3Axs_4core6optionINtB2_6OptionINtNtCse1nGBsou5OW_5alloc5boxed3BoxNtNtCs6IAuOt8vWmF_3syn4expr4ExprEE7is_noneB1k_, symObjAddr: 0x4BE4, symBinAddr: 0x4C4FC, symSize: 0x28 }
  - { offset: 0xC3909, size: 0x8, addend: 0x0, symName: __RNvMNtCsfvfooZQ3Axs_4core6optionINtB2_6OptionINtNtCse1nGBsou5OW_5alloc5boxed3BoxNtNtCs6IAuOt8vWmF_3syn4expr4ExprEE7is_someB1k_, symObjAddr: 0x4C0C, symBinAddr: 0x4C524, symSize: 0x28 }
  - { offset: 0xC3942, size: 0x8, addend: 0x0, symName: __RNvMNtCsfvfooZQ3Axs_4core6optionINtB2_6OptionINtNtCse1nGBsou5OW_5alloc5boxed3BoxNtNtCs6IAuOt8vWmF_3syn4item5FnArgEE4takeB1k_, symObjAddr: 0x4C34, symBinAddr: 0x4C54C, symSize: 0x28 }
  - { offset: 0xC39D5, size: 0x8, addend: 0x0, symName: __RNvMNtCsfvfooZQ3Axs_4core6optionINtB2_6OptionINtNtCse1nGBsou5OW_5alloc5boxed3BoxNtNtCs6IAuOt8vWmF_3syn4item5FnArgEE6as_refB1k_, symObjAddr: 0x4C5C, symBinAddr: 0x4C574, symSize: 0x4C }
  - { offset: 0xC3A3B, size: 0x8, addend: 0x0, symName: __RNvMNtCsfvfooZQ3Axs_4core6optionINtB2_6OptionINtNtCse1nGBsou5OW_5alloc5boxed3BoxNtNtCs6IAuOt8vWmF_3syn4item5FnArgEE7is_noneB1k_, symObjAddr: 0x4CA8, symBinAddr: 0x4C5C0, symSize: 0x28 }
  - { offset: 0xC3A85, size: 0x8, addend: 0x0, symName: __RNvMNtCsfvfooZQ3Axs_4core6optionINtB2_6OptionINtNtCse1nGBsou5OW_5alloc5boxed3BoxNtNtCs6IAuOt8vWmF_3syn4item5FnArgEE7is_someB1k_, symObjAddr: 0x4CD0, symBinAddr: 0x4C5E8, symSize: 0x28 }
  - { offset: 0xC3ABE, size: 0x8, addend: 0x0, symName: __RNvMNtCsfvfooZQ3Axs_4core6optionINtB2_6OptionINtNtCse1nGBsou5OW_5alloc5boxed3BoxNtNtCs6IAuOt8vWmF_3syn4item7UseTreeEE4takeB1k_, symObjAddr: 0x4CF8, symBinAddr: 0x4C610, symSize: 0x28 }
  - { offset: 0xC3B51, size: 0x8, addend: 0x0, symName: __RNvMNtCsfvfooZQ3Axs_4core6optionINtB2_6OptionINtNtCse1nGBsou5OW_5alloc5boxed3BoxNtNtCs6IAuOt8vWmF_3syn4item7UseTreeEE6as_refB1k_, symObjAddr: 0x4D20, symBinAddr: 0x4C638, symSize: 0x4C }
  - { offset: 0xC3BB7, size: 0x8, addend: 0x0, symName: __RNvMNtCsfvfooZQ3Axs_4core6optionINtB2_6OptionINtNtCse1nGBsou5OW_5alloc5boxed3BoxNtNtCs6IAuOt8vWmF_3syn4item7UseTreeEE7is_noneB1k_, symObjAddr: 0x4D6C, symBinAddr: 0x4C684, symSize: 0x28 }
  - { offset: 0xC3C01, size: 0x8, addend: 0x0, symName: __RNvMNtCsfvfooZQ3Axs_4core6optionINtB2_6OptionINtNtCse1nGBsou5OW_5alloc5boxed3BoxNtNtCs6IAuOt8vWmF_3syn4item7UseTreeEE7is_someB1k_, symObjAddr: 0x4D94, symBinAddr: 0x4C6AC, symSize: 0x28 }
  - { offset: 0xC3C3A, size: 0x8, addend: 0x0, symName: __RNvMNtCsfvfooZQ3Axs_4core6optionINtB2_6OptionINtNtCse1nGBsou5OW_5alloc5boxed3BoxNtNtCs6IAuOt8vWmF_3syn4path11PathSegmentEE4takeB1k_, symObjAddr: 0x4DBC, symBinAddr: 0x4C6D4, symSize: 0x28 }
  - { offset: 0xC3CC0, size: 0x8, addend: 0x0, symName: __RNvMNtCsfvfooZQ3Axs_4core6optionINtB2_6OptionINtNtCse1nGBsou5OW_5alloc5boxed3BoxNtNtCs6IAuOt8vWmF_3syn4path11PathSegmentEE6as_mutB1k_, symObjAddr: 0x4DE4, symBinAddr: 0x4C6FC, symSize: 0x4C }
  - { offset: 0xC3D17, size: 0x8, addend: 0x0, symName: __RNvMNtCsfvfooZQ3Axs_4core6optionINtB2_6OptionINtNtCse1nGBsou5OW_5alloc5boxed3BoxNtNtCs6IAuOt8vWmF_3syn4path11PathSegmentEE6as_refB1k_, symObjAddr: 0x4E30, symBinAddr: 0x4C748, symSize: 0x4C }
  - { offset: 0xC3D7D, size: 0x8, addend: 0x0, symName: __RNvMNtCsfvfooZQ3Axs_4core6optionINtB2_6OptionINtNtCse1nGBsou5OW_5alloc5boxed3BoxNtNtCs6IAuOt8vWmF_3syn4path11PathSegmentEE7is_noneB1k_, symObjAddr: 0x4E7C, symBinAddr: 0x4C794, symSize: 0x28 }
  - { offset: 0xC3DC7, size: 0x8, addend: 0x0, symName: __RNvMNtCsfvfooZQ3Axs_4core6optionINtB2_6OptionINtNtCse1nGBsou5OW_5alloc5boxed3BoxNtNtCs6IAuOt8vWmF_3syn4path11PathSegmentEE7is_someB1k_, symObjAddr: 0x4EA4, symBinAddr: 0x4C7BC, symSize: 0x28 }
  - { offset: 0xC3E00, size: 0x8, addend: 0x0, symName: __RNvMNtCsfvfooZQ3Axs_4core6optionINtB2_6OptionINtNtCse1nGBsou5OW_5alloc5boxed3BoxNtNtCs6IAuOt8vWmF_3syn4path15GenericArgumentEE4takeB1k_, symObjAddr: 0x4ECC, symBinAddr: 0x4C7E4, symSize: 0x28 }
  - { offset: 0xC3E93, size: 0x8, addend: 0x0, symName: __RNvMNtCsfvfooZQ3Axs_4core6optionINtB2_6OptionINtNtCse1nGBsou5OW_5alloc5boxed3BoxNtNtCs6IAuOt8vWmF_3syn4path15GenericArgumentEE6as_refB1k_, symObjAddr: 0x4EF4, symBinAddr: 0x4C80C, symSize: 0x4C }
  - { offset: 0xC3EF9, size: 0x8, addend: 0x0, symName: __RNvMNtCsfvfooZQ3Axs_4core6optionINtB2_6OptionINtNtCse1nGBsou5OW_5alloc5boxed3BoxNtNtCs6IAuOt8vWmF_3syn4path15GenericArgumentEE7is_noneB1k_, symObjAddr: 0x4F40, symBinAddr: 0x4C858, symSize: 0x28 }
  - { offset: 0xC3F43, size: 0x8, addend: 0x0, symName: __RNvMNtCsfvfooZQ3Axs_4core6optionINtB2_6OptionINtNtCse1nGBsou5OW_5alloc5boxed3BoxNtNtCs6IAuOt8vWmF_3syn4path15GenericArgumentEE7is_someB1k_, symObjAddr: 0x4F68, symBinAddr: 0x4C880, symSize: 0x28 }
  - { offset: 0xC3F7C, size: 0x8, addend: 0x0, symName: __RNvMNtCsfvfooZQ3Axs_4core6optionINtB2_6OptionINtNtCse1nGBsou5OW_5alloc5boxed3BoxNtNtCs6IAuOt8vWmF_3syn8generics12GenericParamEE4takeB1k_, symObjAddr: 0x4F90, symBinAddr: 0x4C8A8, symSize: 0x28 }
  - { offset: 0xC4002, size: 0x8, addend: 0x0, symName: __RNvMNtCsfvfooZQ3Axs_4core6optionINtB2_6OptionINtNtCse1nGBsou5OW_5alloc5boxed3BoxNtNtCs6IAuOt8vWmF_3syn8generics12GenericParamEE6as_mutB1k_, symObjAddr: 0x4FB8, symBinAddr: 0x4C8D0, symSize: 0x4C }
  - { offset: 0xC4059, size: 0x8, addend: 0x0, symName: __RNvMNtCsfvfooZQ3Axs_4core6optionINtB2_6OptionINtNtCse1nGBsou5OW_5alloc5boxed3BoxNtNtCs6IAuOt8vWmF_3syn8generics12GenericParamEE6as_refB1k_, symObjAddr: 0x5004, symBinAddr: 0x4C91C, symSize: 0x4C }
  - { offset: 0xC40BF, size: 0x8, addend: 0x0, symName: __RNvMNtCsfvfooZQ3Axs_4core6optionINtB2_6OptionINtNtCse1nGBsou5OW_5alloc5boxed3BoxNtNtCs6IAuOt8vWmF_3syn8generics12GenericParamEE7is_noneB1k_, symObjAddr: 0x5050, symBinAddr: 0x4C968, symSize: 0x28 }
  - { offset: 0xC4109, size: 0x8, addend: 0x0, symName: __RNvMNtCsfvfooZQ3Axs_4core6optionINtB2_6OptionINtNtCse1nGBsou5OW_5alloc5boxed3BoxNtNtCs6IAuOt8vWmF_3syn8generics12GenericParamEE7is_someB1k_, symObjAddr: 0x5078, symBinAddr: 0x4C990, symSize: 0x28 }
  - { offset: 0xC4142, size: 0x8, addend: 0x0, symName: __RNvMNtCsfvfooZQ3Axs_4core6optionINtB2_6OptionINtNtCse1nGBsou5OW_5alloc5boxed3BoxNtNtCs6IAuOt8vWmF_3syn8generics13CapturedParamEE4takeB1k_, symObjAddr: 0x50A0, symBinAddr: 0x4C9B8, symSize: 0x28 }
  - { offset: 0xC41D5, size: 0x8, addend: 0x0, symName: __RNvMNtCsfvfooZQ3Axs_4core6optionINtB2_6OptionINtNtCse1nGBsou5OW_5alloc5boxed3BoxNtNtCs6IAuOt8vWmF_3syn8generics13CapturedParamEE6as_refB1k_, symObjAddr: 0x50C8, symBinAddr: 0x4C9E0, symSize: 0x4C }
  - { offset: 0xC423B, size: 0x8, addend: 0x0, symName: __RNvMNtCsfvfooZQ3Axs_4core6optionINtB2_6OptionINtNtCse1nGBsou5OW_5alloc5boxed3BoxNtNtCs6IAuOt8vWmF_3syn8generics13CapturedParamEE7is_noneB1k_, symObjAddr: 0x5114, symBinAddr: 0x4CA2C, symSize: 0x28 }
  - { offset: 0xC4285, size: 0x8, addend: 0x0, symName: __RNvMNtCsfvfooZQ3Axs_4core6optionINtB2_6OptionINtNtCse1nGBsou5OW_5alloc5boxed3BoxNtNtCs6IAuOt8vWmF_3syn8generics13CapturedParamEE7is_someB1k_, symObjAddr: 0x513C, symBinAddr: 0x4CA54, symSize: 0x28 }
  - { offset: 0xC42BE, size: 0x8, addend: 0x0, symName: __RNvMNtCsfvfooZQ3Axs_4core6optionINtB2_6OptionINtNtCse1nGBsou5OW_5alloc5boxed3BoxNtNtCs6IAuOt8vWmF_3syn8generics14TypeParamBoundEE4takeB1k_, symObjAddr: 0x5164, symBinAddr: 0x4CA7C, symSize: 0x28 }
  - { offset: 0xC4351, size: 0x8, addend: 0x0, symName: __RNvMNtCsfvfooZQ3Axs_4core6optionINtB2_6OptionINtNtCse1nGBsou5OW_5alloc5boxed3BoxNtNtCs6IAuOt8vWmF_3syn8generics14TypeParamBoundEE6as_refB1k_, symObjAddr: 0x518C, symBinAddr: 0x4CAA4, symSize: 0x4C }
  - { offset: 0xC43B7, size: 0x8, addend: 0x0, symName: __RNvMNtCsfvfooZQ3Axs_4core6optionINtB2_6OptionINtNtCse1nGBsou5OW_5alloc5boxed3BoxNtNtCs6IAuOt8vWmF_3syn8generics14TypeParamBoundEE7is_noneB1k_, symObjAddr: 0x51D8, symBinAddr: 0x4CAF0, symSize: 0x28 }
  - { offset: 0xC4401, size: 0x8, addend: 0x0, symName: __RNvMNtCsfvfooZQ3Axs_4core6optionINtB2_6OptionINtNtCse1nGBsou5OW_5alloc5boxed3BoxNtNtCs6IAuOt8vWmF_3syn8generics14TypeParamBoundEE7is_someB1k_, symObjAddr: 0x5200, symBinAddr: 0x4CB18, symSize: 0x28 }
  - { offset: 0xC443A, size: 0x8, addend: 0x0, symName: __RNvMNtCsfvfooZQ3Axs_4core6optionINtB2_6OptionINtNtCse1nGBsou5OW_5alloc5boxed3BoxNtNtCs6IAuOt8vWmF_3syn8generics14WherePredicateEE4takeB1k_, symObjAddr: 0x5228, symBinAddr: 0x4CB40, symSize: 0x28 }
  - { offset: 0xC44CD, size: 0x8, addend: 0x0, symName: __RNvMNtCsfvfooZQ3Axs_4core6optionINtB2_6OptionINtNtCse1nGBsou5OW_5alloc5boxed3BoxNtNtCs6IAuOt8vWmF_3syn8generics14WherePredicateEE6as_refB1k_, symObjAddr: 0x5250, symBinAddr: 0x4CB68, symSize: 0x4C }
  - { offset: 0xC4533, size: 0x8, addend: 0x0, symName: __RNvMNtCsfvfooZQ3Axs_4core6optionINtB2_6OptionINtNtCse1nGBsou5OW_5alloc5boxed3BoxNtNtCs6IAuOt8vWmF_3syn8generics14WherePredicateEE7is_noneB1k_, symObjAddr: 0x529C, symBinAddr: 0x4CBB4, symSize: 0x28 }
  - { offset: 0xC457D, size: 0x8, addend: 0x0, symName: __RNvMNtCsfvfooZQ3Axs_4core6optionINtB2_6OptionINtNtCse1nGBsou5OW_5alloc5boxed3BoxNtNtCs6IAuOt8vWmF_3syn8generics14WherePredicateEE7is_someB1k_, symObjAddr: 0x52C4, symBinAddr: 0x4CBDC, symSize: 0x28 }
  - { offset: 0xC45B6, size: 0x8, addend: 0x0, symName: __RNvMNtCsfvfooZQ3Axs_4core6optionINtB2_6OptionINtNtCse1nGBsou5OW_5alloc5boxed3BoxNtNtCs6IAuOt8vWmF_3syn8lifetime8LifetimeEE4takeB1k_, symObjAddr: 0x52EC, symBinAddr: 0x4CC04, symSize: 0x28 }
  - { offset: 0xC4649, size: 0x8, addend: 0x0, symName: __RNvMNtCsfvfooZQ3Axs_4core6optionINtB2_6OptionINtNtCse1nGBsou5OW_5alloc5boxed3BoxNtNtCs6IAuOt8vWmF_3syn8lifetime8LifetimeEE6as_refB1k_, symObjAddr: 0x5314, symBinAddr: 0x4CC2C, symSize: 0x4C }
  - { offset: 0xC46AF, size: 0x8, addend: 0x0, symName: __RNvMNtCsfvfooZQ3Axs_4core6optionINtB2_6OptionINtNtCse1nGBsou5OW_5alloc5boxed3BoxNtNtCs6IAuOt8vWmF_3syn8lifetime8LifetimeEE7is_noneB1k_, symObjAddr: 0x5360, symBinAddr: 0x4CC78, symSize: 0x28 }
  - { offset: 0xC46F9, size: 0x8, addend: 0x0, symName: __RNvMNtCsfvfooZQ3Axs_4core6optionINtB2_6OptionINtNtCse1nGBsou5OW_5alloc5boxed3BoxNtNtCs6IAuOt8vWmF_3syn8lifetime8LifetimeEE7is_someB1k_, symObjAddr: 0x5388, symBinAddr: 0x4CCA0, symSize: 0x28 }
  - { offset: 0xC473F, size: 0x8, addend: 0x0, symName: __RNvMNtCsfvfooZQ3Axs_4core6optionINtB2_6OptionNtNtCs6IAuOt8vWmF_3syn3pat7PatRestE7is_someBL_, symObjAddr: 0x53D8, symBinAddr: 0x4CCC8, symSize: 0x2C }
  - { offset: 0xC4794, size: 0x8, addend: 0x0, symName: __RNvMNtCsfvfooZQ3Axs_4core6optionINtB2_6OptionNtNtCs6IAuOt8vWmF_3syn4expr5LabelE7is_noneBL_, symObjAddr: 0x5404, symBinAddr: 0x4CCF4, symSize: 0x28 }
  - { offset: 0xC47DE, size: 0x8, addend: 0x0, symName: __RNvMNtCsfvfooZQ3Axs_4core6optionINtB2_6OptionNtNtCs6IAuOt8vWmF_3syn4expr5LabelE7is_someBL_, symObjAddr: 0x542C, symBinAddr: 0x4CD1C, symSize: 0x28 }
  - { offset: 0xC4833, size: 0x8, addend: 0x0, symName: __RNvMNtCsfvfooZQ3Axs_4core6optionINtB2_6OptionNtNtCs6IAuOt8vWmF_3syn4item9SignatureE7is_noneBL_, symObjAddr: 0x5454, symBinAddr: 0x4CD44, symSize: 0x28 }
  - { offset: 0xC488A, size: 0x8, addend: 0x0, symName: __RNvMNtCsfvfooZQ3Axs_4core6optionINtB2_6OptionNtNtCs6IAuOt8vWmF_3syn4path30AngleBracketedGenericArgumentsE7is_someBL_, symObjAddr: 0x547C, symBinAddr: 0x4CD6C, symSize: 0x2C }
  - { offset: 0xC48DF, size: 0x8, addend: 0x0, symName: __RNvMNtCsfvfooZQ3Axs_4core6optionINtB2_6OptionNtNtCs6IAuOt8vWmF_3syn4path5QSelfE7is_noneBL_, symObjAddr: 0x54A8, symBinAddr: 0x4CD98, symSize: 0x28 }
  - { offset: 0xC4929, size: 0x8, addend: 0x0, symName: __RNvMNtCsfvfooZQ3Axs_4core6optionINtB2_6OptionNtNtCs6IAuOt8vWmF_3syn4path5QSelfE7is_someBL_, symObjAddr: 0x54D0, symBinAddr: 0x4CDC0, symSize: 0x28 }
  - { offset: 0xC4962, size: 0x8, addend: 0x0, symName: __RNvMNtCsfvfooZQ3Axs_4core6optionINtB2_6OptionNtNtCs6IAuOt8vWmF_3syn5token2EqE7is_someBL_, symObjAddr: 0x54F8, symBinAddr: 0x4CDE8, symSize: 0x20 }
  - { offset: 0xC49B7, size: 0x8, addend: 0x0, symName: __RNvMNtCsfvfooZQ3Axs_4core6optionINtB2_6OptionNtNtCs6IAuOt8vWmF_3syn5token2LtE7is_noneBL_, symObjAddr: 0x5518, symBinAddr: 0x4CE08, symSize: 0x20 }
  - { offset: 0xC4A0E, size: 0x8, addend: 0x0, symName: __RNvMNtCsfvfooZQ3Axs_4core6optionINtB2_6OptionNtNtCs6IAuOt8vWmF_3syn5token2OrE7is_someBL_, symObjAddr: 0x5538, symBinAddr: 0x4CE28, symSize: 0x20 }
  - { offset: 0xC4A63, size: 0x8, addend: 0x0, symName: __RNvMNtCsfvfooZQ3Axs_4core6optionINtB2_6OptionNtNtCs6IAuOt8vWmF_3syn5token3BoxE7is_noneBL_, symObjAddr: 0x5558, symBinAddr: 0x4CE48, symSize: 0x20 }
  - { offset: 0xC4AAD, size: 0x8, addend: 0x0, symName: __RNvMNtCsfvfooZQ3Axs_4core6optionINtB2_6OptionNtNtCs6IAuOt8vWmF_3syn5token3BoxE7is_someBL_, symObjAddr: 0x5578, symBinAddr: 0x4CE68, symSize: 0x20 }
  - { offset: 0xC4AE6, size: 0x8, addend: 0x0, symName: __RNvMNtCsfvfooZQ3Axs_4core6optionINtB2_6OptionNtNtCs6IAuOt8vWmF_3syn5token3MutE6as_refBL_, symObjAddr: 0x5598, symBinAddr: 0x4CE88, symSize: 0x48 }
  - { offset: 0xC4B4C, size: 0x8, addend: 0x0, symName: __RNvMNtCsfvfooZQ3Axs_4core6optionINtB2_6OptionNtNtCs6IAuOt8vWmF_3syn5token3MutE7is_noneBL_, symObjAddr: 0x55E0, symBinAddr: 0x4CED0, symSize: 0x20 }
  - { offset: 0xC4B96, size: 0x8, addend: 0x0, symName: __RNvMNtCsfvfooZQ3Axs_4core6optionINtB2_6OptionNtNtCs6IAuOt8vWmF_3syn5token3MutE7is_someBL_, symObjAddr: 0x5600, symBinAddr: 0x4CEF0, symSize: 0x20 }
  - { offset: 0xC4BCF, size: 0x8, addend: 0x0, symName: __RNvMNtCsfvfooZQ3Axs_4core6optionINtB2_6OptionNtNtCs6IAuOt8vWmF_3syn5token3RawE7is_someBL_, symObjAddr: 0x5620, symBinAddr: 0x4CF10, symSize: 0x20 }
  - { offset: 0xC4C24, size: 0x8, addend: 0x0, symName: __RNvMNtCsfvfooZQ3Axs_4core6optionINtB2_6OptionNtNtCs6IAuOt8vWmF_3syn5token3RefE7is_noneBL_, symObjAddr: 0x5640, symBinAddr: 0x4CF30, symSize: 0x20 }
  - { offset: 0xC4C6E, size: 0x8, addend: 0x0, symName: __RNvMNtCsfvfooZQ3Axs_4core6optionINtB2_6OptionNtNtCs6IAuOt8vWmF_3syn5token3RefE7is_someBL_, symObjAddr: 0x5660, symBinAddr: 0x4CF50, symSize: 0x20 }
  - { offset: 0xC4CC3, size: 0x8, addend: 0x0, symName: __RNvMNtCsfvfooZQ3Axs_4core6optionINtB2_6OptionNtNtCs6IAuOt8vWmF_3syn5token4SemiE7is_noneBL_, symObjAddr: 0x5680, symBinAddr: 0x4CF70, symSize: 0x20 }
  - { offset: 0xC4D0D, size: 0x8, addend: 0x0, symName: __RNvMNtCsfvfooZQ3Axs_4core6optionINtB2_6OptionNtNtCs6IAuOt8vWmF_3syn5token4SemiE7is_someBL_, symObjAddr: 0x56A0, symBinAddr: 0x4CF90, symSize: 0x20 }
  - { offset: 0xC4D46, size: 0x8, addend: 0x0, symName: __RNvMNtCsfvfooZQ3Axs_4core6optionINtB2_6OptionNtNtCs6IAuOt8vWmF_3syn5token4StarE7is_someBL_, symObjAddr: 0x56C0, symBinAddr: 0x4CFB0, symSize: 0x20 }
  - { offset: 0xC4D9B, size: 0x8, addend: 0x0, symName: __RNvMNtCsfvfooZQ3Axs_4core6optionINtB2_6OptionNtNtCs6IAuOt8vWmF_3syn5token5ColonE7is_noneBL_, symObjAddr: 0x56E0, symBinAddr: 0x4CFD0, symSize: 0x20 }
  - { offset: 0xC4DE5, size: 0x8, addend: 0x0, symName: __RNvMNtCsfvfooZQ3Axs_4core6optionINtB2_6OptionNtNtCs6IAuOt8vWmF_3syn5token5ColonE7is_someBL_, symObjAddr: 0x5700, symBinAddr: 0x4CFF0, symSize: 0x20 }
  - { offset: 0xC4E3A, size: 0x8, addend: 0x0, symName: __RNvMNtCsfvfooZQ3Axs_4core6optionINtB2_6OptionNtNtCs6IAuOt8vWmF_3syn5token5CommaE7is_noneBL_, symObjAddr: 0x5720, symBinAddr: 0x4D010, symSize: 0x20 }
  - { offset: 0xC4EAD, size: 0x8, addend: 0x0, symName: __RNvMNtCsfvfooZQ3Axs_4core6optionINtB2_6OptionNtNtCs6IAuOt8vWmF_3syn5token6UnsafeE7is_noneBL_, symObjAddr: 0x5740, symBinAddr: 0x4D030, symSize: 0x20 }
  - { offset: 0xC4EF7, size: 0x8, addend: 0x0, symName: __RNvMNtCsfvfooZQ3Axs_4core6optionINtB2_6OptionNtNtCs6IAuOt8vWmF_3syn5token6UnsafeE7is_someBL_, symObjAddr: 0x5760, symBinAddr: 0x4D050, symSize: 0x20 }
  - { offset: 0xC4F4C, size: 0x8, addend: 0x0, symName: __RNvMNtCsfvfooZQ3Axs_4core6optionINtB2_6OptionNtNtCs6IAuOt8vWmF_3syn5token7DefaultE7is_noneBL_, symObjAddr: 0x5780, symBinAddr: 0x4D070, symSize: 0x20 }
  - { offset: 0xC4FBF, size: 0x8, addend: 0x0, symName: __RNvMNtCsfvfooZQ3Axs_4core6optionINtB2_6OptionNtNtCs6IAuOt8vWmF_3syn5token7PathSepE7is_noneBL_, symObjAddr: 0x57A0, symBinAddr: 0x4D090, symSize: 0x20 }
  - { offset: 0xC5009, size: 0x8, addend: 0x0, symName: __RNvMNtCsfvfooZQ3Axs_4core6optionINtB2_6OptionNtNtCs6IAuOt8vWmF_3syn5token7PathSepE7is_someBL_, symObjAddr: 0x57C0, symBinAddr: 0x4D0B0, symSize: 0x20 }
  - { offset: 0xC5042, size: 0x8, addend: 0x0, symName: __RNvMNtCsfvfooZQ3Axs_4core6optionINtB2_6OptionNtNtCs6IAuOt8vWmF_3syn8generics11WhereClauseE6as_refBL_, symObjAddr: 0x57E0, symBinAddr: 0x4D0D0, symSize: 0x50 }
  - { offset: 0xC50A8, size: 0x8, addend: 0x0, symName: __RNvMNtCsfvfooZQ3Axs_4core6optionINtB2_6OptionNtNtCs6IAuOt8vWmF_3syn8generics11WhereClauseE7is_noneBL_, symObjAddr: 0x5830, symBinAddr: 0x4D120, symSize: 0x2C }
  - { offset: 0xC511B, size: 0x8, addend: 0x0, symName: __RNvMNtCsfvfooZQ3Axs_4core6optionINtB2_6OptionNtNtCs6IAuOt8vWmF_3syn8generics14BoundLifetimesE7is_noneBL_, symObjAddr: 0x585C, symBinAddr: 0x4D14C, symSize: 0x2C }
  - { offset: 0xC5165, size: 0x8, addend: 0x0, symName: __RNvMNtCsfvfooZQ3Axs_4core6optionINtB2_6OptionNtNtCs6IAuOt8vWmF_3syn8generics14BoundLifetimesE7is_someBL_, symObjAddr: 0x5888, symBinAddr: 0x4D178, symSize: 0x2C }
  - { offset: 0xC51BA, size: 0x8, addend: 0x0, symName: __RNvMNtCsfvfooZQ3Axs_4core6optionINtB2_6OptionNtNtCs6IAuOt8vWmF_3syn8lifetime8LifetimeE7is_noneBL_, symObjAddr: 0x5900, symBinAddr: 0x4D1A4, symSize: 0x28 }
  - { offset: 0xC5204, size: 0x8, addend: 0x0, symName: __RNvMNtCsfvfooZQ3Axs_4core6optionINtB2_6OptionNtNtCs6IAuOt8vWmF_3syn8lifetime8LifetimeE7is_someBL_, symObjAddr: 0x5928, symBinAddr: 0x4D1CC, symSize: 0x28 }
  - { offset: 0xC523D, size: 0x8, addend: 0x0, symName: __RNvMNtCsfvfooZQ3Axs_4core6optionINtB2_6OptionNtNtNtCs6IAuOt8vWmF_3syn3pat7parsing13PatRangeBoundE7is_someBN_, symObjAddr: 0x5950, symBinAddr: 0x4D1F4, symSize: 0x30 }
  - { offset: 0xC5276, size: 0x8, addend: 0x0, symName: __RNvMNtCsfvfooZQ3Axs_4core6optionINtB2_6OptionRNtCs3cP53eQoTwO_11proc_macro25IdentE7is_someCs6IAuOt8vWmF_3syn, symObjAddr: 0x5980, symBinAddr: 0x4D224, symSize: 0x28 }
  - { offset: 0xC52BC, size: 0x8, addend: 0x0, symName: __RNvMNtCsfvfooZQ3Axs_4core6optionINtB2_6OptionRRNtNtCs6IAuOt8vWmF_3syn5token5CommaE7is_someBN_, symObjAddr: 0x59A8, symBinAddr: 0x4D24C, symSize: 0x28 }
  - { offset: 0xC5311, size: 0x8, addend: 0x0, symName: __RNvMNtCsfvfooZQ3Axs_4core6optionINtB2_6OptionTIBv_NtNtCs6IAuOt8vWmF_3syn5token3NotENtNtBQ_4path4PathNtBO_3ForEE7is_noneBQ_, symObjAddr: 0x59D0, symBinAddr: 0x4D274, symSize: 0x2C }
  - { offset: 0xC53A2, size: 0x8, addend: 0x0, symName: __RNvMNtCsfvfooZQ3Axs_4core6optionINtB2_6OptionTNtCs3cP53eQoTwO_11proc_macro24SpanNtBK_9DelimiterEE7is_noneCs6IAuOt8vWmF_3syn, symObjAddr: 0x59FC, symBinAddr: 0x4D2A0, symSize: 0x28 }
  - { offset: 0xC5415, size: 0x8, addend: 0x0, symName: __RNvMNtCsfvfooZQ3Axs_4core6optionINtB2_6OptionTNtCs3cP53eQoTwO_11proc_macro25IdentNtNtCs6IAuOt8vWmF_3syn5token5ColonEE7is_noneB1l_, symObjAddr: 0x5A24, symBinAddr: 0x4D2C8, symSize: 0x28 }
  - { offset: 0xC548A, size: 0x8, addend: 0x0, symName: __RNvMNtCsfvfooZQ3Axs_4core6optionINtB2_6OptionTNtCs3cP53eQoTwO_11proc_macro25IdentNtNtCs6IAuOt8vWmF_3syn6buffer6CursorEE7is_someB1l_, symObjAddr: 0x5A4C, symBinAddr: 0x4D2F0, symSize: 0x28 }
  - { offset: 0xC54EE, size: 0x8, addend: 0x0, symName: __RNvMNtCsfvfooZQ3Axs_4core6optionINtB2_6OptionTNtNtCs6IAuOt8vWmF_3syn5token2EqNtNtBM_2ty4TypeEE7is_someBM_, symObjAddr: 0x5AF0, symBinAddr: 0x4D318, symSize: 0x28 }
  - { offset: 0xC5527, size: 0x8, addend: 0x0, symName: __RNvMNtCsfvfooZQ3Axs_4core6optionINtB2_6OptionTNtNtCs6IAuOt8vWmF_3syn5token3AndIBv_NtNtBM_8lifetime8LifetimeEEE6as_refBM_, symObjAddr: 0x5B18, symBinAddr: 0x4D340, symSize: 0x4C }
  - { offset: 0xC5571, size: 0x8, addend: 0x0, symName: __RNvMNtCsfvfooZQ3Axs_4core6optionINtB2_6OptionTNtNtCs6IAuOt8vWmF_3syn5token3AndIBv_NtNtBM_8lifetime8LifetimeEEE7is_someBM_, symObjAddr: 0x5B64, symBinAddr: 0x4D38C, symSize: 0x28 }
  - { offset: 0xC55B7, size: 0x8, addend: 0x0, symName: __RNvMNtCsfvfooZQ3Axs_4core6optionINtB2_6OptionTNtNtCs6IAuOt8vWmF_3syn5token4ElseINtNtCse1nGBsou5OW_5alloc5boxed3BoxNtNtBM_4expr4ExprEEE6as_mutBM_, symObjAddr: 0x5B8C, symBinAddr: 0x4D3B4, symSize: 0x4C }
  - { offset: 0xC560E, size: 0x8, addend: 0x0, symName: __RNvMNtCsfvfooZQ3Axs_4core6optionINtB2_6OptionTNtNtCs6IAuOt8vWmF_3syn5token4ElseINtNtCse1nGBsou5OW_5alloc5boxed3BoxNtNtBM_4expr4ExprEEE7is_someBM_, symObjAddr: 0x5BD8, symBinAddr: 0x4D400, symSize: 0x28 }
  - { offset: 0xC5670, size: 0x8, addend: 0x0, symName: __RNvMNtCsfvfooZQ3Axs_4core6optionINtB2_6OptionTNtNtCs6IAuOt8vWmF_3syn6buffer6CursorNtNtCs3cP53eQoTwO_11proc_macro25extra9DelimSpanBI_EE7is_someBM_, symObjAddr: 0x5C28, symBinAddr: 0x4D428, symSize: 0x20 }
  - { offset: 0xC56A9, size: 0x8, addend: 0x0, symName: __RNvMNtCsfvfooZQ3Axs_4core6optionINtB2_6OptionTNtNtCs6IAuOt8vWmF_3syn8lifetime8LifetimeNtNtBM_6buffer6CursorEE7is_someBM_, symObjAddr: 0x5C48, symBinAddr: 0x4D448, symSize: 0x28 }
  - { offset: 0xC56D5, size: 0x8, addend: 0x0, symName: __RNvMNtCsfvfooZQ3Axs_4core6optionINtB2_6OptioncE9unwrap_orCs6IAuOt8vWmF_3syn, symObjAddr: 0x5C70, symBinAddr: 0x4D470, symSize: 0x4C }
  - { offset: 0xC57B5, size: 0x8, addend: 0x0, symName: __RNvXs3_NtCs2cqEZUIJimJ_5quote9to_tokensINtNtCsfvfooZQ3Axs_4core6option6OptionINtNtCse1nGBsou5OW_5alloc5boxed3BoxNtNtCs6IAuOt8vWmF_3syn4expr4ExprEENtB5_8ToTokens9to_tokensB1Q_, symObjAddr: 0x6154, symBinAddr: 0x4D68C, symSize: 0x84 }
  - { offset: 0xC5811, size: 0x8, addend: 0x0, symName: __RNvXs3_NtCs2cqEZUIJimJ_5quote9to_tokensINtNtCsfvfooZQ3Axs_4core6option6OptionNtCs3cP53eQoTwO_11proc_macro25IdentENtB5_8ToTokens9to_tokensCs6IAuOt8vWmF_3syn, symObjAddr: 0x61D8, symBinAddr: 0x4D710, symSize: 0x84 }
  - { offset: 0xC586D, size: 0x8, addend: 0x0, symName: __RNvXs3_NtCs2cqEZUIJimJ_5quote9to_tokensINtNtCsfvfooZQ3Axs_4core6option6OptionNtNtCs6IAuOt8vWmF_3syn2ty3AbiENtB5_8ToTokens9to_tokensB1h_, symObjAddr: 0x625C, symBinAddr: 0x4D794, symSize: 0x80 }
  - { offset: 0xC58C9, size: 0x8, addend: 0x0, symName: __RNvXs3_NtCs2cqEZUIJimJ_5quote9to_tokensINtNtCsfvfooZQ3Axs_4core6option6OptionNtNtCs6IAuOt8vWmF_3syn3lit6LitStrENtB5_8ToTokens9to_tokensB1h_, symObjAddr: 0x62DC, symBinAddr: 0x4D814, symSize: 0x84 }
  - { offset: 0xC5925, size: 0x8, addend: 0x0, symName: __RNvXs3_NtCs2cqEZUIJimJ_5quote9to_tokensINtNtCsfvfooZQ3Axs_4core6option6OptionNtNtCs6IAuOt8vWmF_3syn3pat7PatRestENtB5_8ToTokens9to_tokensB1h_, symObjAddr: 0x6360, symBinAddr: 0x4D898, symSize: 0x88 }
  - { offset: 0xC5981, size: 0x8, addend: 0x0, symName: __RNvXs3_NtCs2cqEZUIJimJ_5quote9to_tokensINtNtCsfvfooZQ3Axs_4core6option6OptionNtNtCs6IAuOt8vWmF_3syn4expr5LabelENtB5_8ToTokens9to_tokensB1h_, symObjAddr: 0x63E8, symBinAddr: 0x4D920, symSize: 0x84 }
  - { offset: 0xC59DD, size: 0x8, addend: 0x0, symName: __RNvXs3_NtCs2cqEZUIJimJ_5quote9to_tokensINtNtCsfvfooZQ3Axs_4core6option6OptionNtNtCs6IAuOt8vWmF_3syn4path30AngleBracketedGenericArgumentsENtB5_8ToTokens9to_tokensB1h_, symObjAddr: 0x646C, symBinAddr: 0x4D9A4, symSize: 0x88 }
  - { offset: 0xC5A39, size: 0x8, addend: 0x0, symName: __RNvXs3_NtCs2cqEZUIJimJ_5quote9to_tokensINtNtCsfvfooZQ3Axs_4core6option6OptionNtNtCs6IAuOt8vWmF_3syn5token2InENtB5_8ToTokens9to_tokensB1h_, symObjAddr: 0x64F4, symBinAddr: 0x4DA2C, symSize: 0x80 }
  - { offset: 0xC5A95, size: 0x8, addend: 0x0, symName: __RNvXs3_NtCs2cqEZUIJimJ_5quote9to_tokensINtNtCsfvfooZQ3Axs_4core6option6OptionNtNtCs6IAuOt8vWmF_3syn5token2OrENtB5_8ToTokens9to_tokensB1h_, symObjAddr: 0x6574, symBinAddr: 0x4DAAC, symSize: 0x80 }
  - { offset: 0xC5AF1, size: 0x8, addend: 0x0, symName: __RNvXs3_NtCs2cqEZUIJimJ_5quote9to_tokensINtNtCsfvfooZQ3Axs_4core6option6OptionNtNtCs6IAuOt8vWmF_3syn5token3DynENtB5_8ToTokens9to_tokensB1h_, symObjAddr: 0x65F4, symBinAddr: 0x4DB2C, symSize: 0x80 }
  - { offset: 0xC5B4D, size: 0x8, addend: 0x0, symName: __RNvXs3_NtCs2cqEZUIJimJ_5quote9to_tokensINtNtCsfvfooZQ3Axs_4core6option6OptionNtNtCs6IAuOt8vWmF_3syn5token3MutENtB5_8ToTokens9to_tokensB1h_, symObjAddr: 0x6674, symBinAddr: 0x4DBAC, symSize: 0x80 }
  - { offset: 0xC5BA9, size: 0x8, addend: 0x0, symName: __RNvXs3_NtCs2cqEZUIJimJ_5quote9to_tokensINtNtCsfvfooZQ3Axs_4core6option6OptionNtNtCs6IAuOt8vWmF_3syn5token3NotENtB5_8ToTokens9to_tokensB1h_, symObjAddr: 0x66F4, symBinAddr: 0x4DC2C, symSize: 0x80 }
  - { offset: 0xC5C05, size: 0x8, addend: 0x0, symName: __RNvXs3_NtCs2cqEZUIJimJ_5quote9to_tokensINtNtCsfvfooZQ3Axs_4core6option6OptionNtNtCs6IAuOt8vWmF_3syn5token3RefENtB5_8ToTokens9to_tokensB1h_, symObjAddr: 0x6774, symBinAddr: 0x4DCAC, symSize: 0x80 }
  - { offset: 0xC5C61, size: 0x8, addend: 0x0, symName: __RNvXs3_NtCs2cqEZUIJimJ_5quote9to_tokensINtNtCsfvfooZQ3Axs_4core6option6OptionNtNtCs6IAuOt8vWmF_3syn5token4AutoENtB5_8ToTokens9to_tokensB1h_, symObjAddr: 0x67F4, symBinAddr: 0x4DD2C, symSize: 0x80 }
  - { offset: 0xC5CBD, size: 0x8, addend: 0x0, symName: __RNvXs3_NtCs2cqEZUIJimJ_5quote9to_tokensINtNtCsfvfooZQ3Axs_4core6option6OptionNtNtCs6IAuOt8vWmF_3syn5token4MoveENtB5_8ToTokens9to_tokensB1h_, symObjAddr: 0x6874, symBinAddr: 0x4DDAC, symSize: 0x80 }
  - { offset: 0xC5D19, size: 0x8, addend: 0x0, symName: __RNvXs3_NtCs2cqEZUIJimJ_5quote9to_tokensINtNtCsfvfooZQ3Axs_4core6option6OptionNtNtCs6IAuOt8vWmF_3syn5token4SemiENtB5_8ToTokens9to_tokensB1h_, symObjAddr: 0x68F4, symBinAddr: 0x4DE2C, symSize: 0x80 }
  - { offset: 0xC5D75, size: 0x8, addend: 0x0, symName: __RNvXs3_NtCs2cqEZUIJimJ_5quote9to_tokensINtNtCsfvfooZQ3Axs_4core6option6OptionNtNtCs6IAuOt8vWmF_3syn5token5AsyncENtB5_8ToTokens9to_tokensB1h_, symObjAddr: 0x6974, symBinAddr: 0x4DEAC, symSize: 0x80 }
  - { offset: 0xC5DD1, size: 0x8, addend: 0x0, symName: __RNvXs3_NtCs2cqEZUIJimJ_5quote9to_tokensINtNtCsfvfooZQ3Axs_4core6option6OptionNtNtCs6IAuOt8vWmF_3syn5token5CommaENtB5_8ToTokens9to_tokensB1h_, symObjAddr: 0x69F4, symBinAddr: 0x4DF2C, symSize: 0x80 }
  - { offset: 0xC5E2D, size: 0x8, addend: 0x0, symName: __RNvXs3_NtCs2cqEZUIJimJ_5quote9to_tokensINtNtCsfvfooZQ3Axs_4core6option6OptionNtNtCs6IAuOt8vWmF_3syn5token5ConstENtB5_8ToTokens9to_tokensB1h_, symObjAddr: 0x6A74, symBinAddr: 0x4DFAC, symSize: 0x80 }
  - { offset: 0xC5E89, size: 0x8, addend: 0x0, symName: __RNvXs3_NtCs2cqEZUIJimJ_5quote9to_tokensINtNtCsfvfooZQ3Axs_4core6option6OptionNtNtCs6IAuOt8vWmF_3syn5token6StaticENtB5_8ToTokens9to_tokensB1h_, symObjAddr: 0x6AF4, symBinAddr: 0x4E02C, symSize: 0x80 }
  - { offset: 0xC5EE5, size: 0x8, addend: 0x0, symName: __RNvXs3_NtCs2cqEZUIJimJ_5quote9to_tokensINtNtCsfvfooZQ3Axs_4core6option6OptionNtNtCs6IAuOt8vWmF_3syn5token6UnsafeENtB5_8ToTokens9to_tokensB1h_, symObjAddr: 0x6B74, symBinAddr: 0x4E0AC, symSize: 0x80 }
  - { offset: 0xC5F41, size: 0x8, addend: 0x0, symName: __RNvXs3_NtCs2cqEZUIJimJ_5quote9to_tokensINtNtCsfvfooZQ3Axs_4core6option6OptionNtNtCs6IAuOt8vWmF_3syn5token7DefaultENtB5_8ToTokens9to_tokensB1h_, symObjAddr: 0x6BF4, symBinAddr: 0x4E12C, symSize: 0x80 }
  - { offset: 0xC5F9D, size: 0x8, addend: 0x0, symName: __RNvXs3_NtCs2cqEZUIJimJ_5quote9to_tokensINtNtCsfvfooZQ3Axs_4core6option6OptionNtNtCs6IAuOt8vWmF_3syn5token7PathSepENtB5_8ToTokens9to_tokensB1h_, symObjAddr: 0x6C74, symBinAddr: 0x4E1AC, symSize: 0x80 }
  - { offset: 0xC5FF9, size: 0x8, addend: 0x0, symName: __RNvXs3_NtCs2cqEZUIJimJ_5quote9to_tokensINtNtCsfvfooZQ3Axs_4core6option6OptionNtNtCs6IAuOt8vWmF_3syn8generics11WhereClauseENtB5_8ToTokens9to_tokensB1h_, symObjAddr: 0x6CF4, symBinAddr: 0x4E22C, symSize: 0x88 }
  - { offset: 0xC6055, size: 0x8, addend: 0x0, symName: __RNvXs3_NtCs2cqEZUIJimJ_5quote9to_tokensINtNtCsfvfooZQ3Axs_4core6option6OptionNtNtCs6IAuOt8vWmF_3syn8generics14BoundLifetimesENtB5_8ToTokens9to_tokensB1h_, symObjAddr: 0x6D7C, symBinAddr: 0x4E2B4, symSize: 0x88 }
  - { offset: 0xC60B1, size: 0x8, addend: 0x0, symName: __RNvXs3_NtCs2cqEZUIJimJ_5quote9to_tokensINtNtCsfvfooZQ3Axs_4core6option6OptionNtNtCs6IAuOt8vWmF_3syn8lifetime8LifetimeENtB5_8ToTokens9to_tokensB1h_, symObjAddr: 0x6E04, symBinAddr: 0x4E33C, symSize: 0x84 }
  - { offset: 0xC610D, size: 0x8, addend: 0x0, symName: __RNvXs3_NtCs2cqEZUIJimJ_5quote9to_tokensINtNtCsfvfooZQ3Axs_4core6option6OptionRRNtNtCs6IAuOt8vWmF_3syn5token5CommaENtB5_8ToTokens9to_tokensB1j_, symObjAddr: 0x6E88, symBinAddr: 0x4E3C0, symSize: 0x84 }
  - { offset: 0xC6169, size: 0x8, addend: 0x0, symName: __RNvXs3_NtCs2cqEZUIJimJ_5quote9to_tokensINtNtCsfvfooZQ3Axs_4core6option6OptionRRNtNtCs6IAuOt8vWmF_3syn5token7PathSepENtB5_8ToTokens9to_tokensB1j_, symObjAddr: 0x6F0C, symBinAddr: 0x4E444, symSize: 0x84 }
  - { offset: 0xC6946, size: 0x8, addend: 0x0, symName: __RINvNtCse1nGBsou5OW_5alloc3str17join_generic_copyehReECs6IAuOt8vWmF_3syn, symObjAddr: 0x0, symBinAddr: 0x534D0, symSize: 0x160C }
  - { offset: 0xC9841, size: 0x8, addend: 0x0, symName: __RNvNtNtCs6IAuOt8vWmF_3syn3pat7parsing14multi_pat_impl, symObjAddr: 0xB210, symBinAddr: 0x5CFA0, symSize: 0x5DC }
  - { offset: 0xC9976, size: 0x8, addend: 0x0, symName: __RNvNtNtCs6IAuOt8vWmF_3syn3pat7parsing36pat_path_or_macro_or_struct_or_range, symObjAddr: 0xB7EC, symBinAddr: 0x5D57C, symSize: 0x728 }
  - { offset: 0xC9A6E, size: 0x8, addend: 0x0, symName: __RNvNtNtCs6IAuOt8vWmF_3syn3pat7parsing8pat_wild, symObjAddr: 0xBF14, symBinAddr: 0x5DCA4, symSize: 0x138 }
  - { offset: 0xC9ABA, size: 0x8, addend: 0x0, symName: __RNvNtNtCs6IAuOt8vWmF_3syn3pat7parsing7pat_box, symObjAddr: 0xC04C, symBinAddr: 0x5DDDC, symSize: 0x208 }
  - { offset: 0xC9B45, size: 0x8, addend: 0x0, symName: __RNvNtNtCs6IAuOt8vWmF_3syn3pat7parsing9pat_ident, symObjAddr: 0xC254, symBinAddr: 0x5DFE4, symSize: 0x618 }
  - { offset: 0xC9CB8, size: 0x8, addend: 0x0, symName: __RNvNtNtCs6IAuOt8vWmF_3syn3pat7parsing16pat_tuple_struct, symObjAddr: 0xC86C, symBinAddr: 0x5E5FC, symSize: 0x570 }
  - { offset: 0xC9E03, size: 0x8, addend: 0x0, symName: __RNvNtNtCs6IAuOt8vWmF_3syn3pat7parsing10pat_struct, symObjAddr: 0xCDDC, symBinAddr: 0x5EB6C, symSize: 0x92C }
  - { offset: 0xC9FD1, size: 0x8, addend: 0x0, symName: __RNvNtNtCs6IAuOt8vWmF_3syn3pat7parsing9field_pat, symObjAddr: 0xD708, symBinAddr: 0x5F498, symSize: 0xB80 }
  - { offset: 0xCA213, size: 0x8, addend: 0x0, symName: __RNvNtNtCs6IAuOt8vWmF_3syn3pat7parsing9pat_range, symObjAddr: 0xE288, symBinAddr: 0x60018, symSize: 0x4F4 }
  - { offset: 0xCA31A, size: 0x8, addend: 0x0, symName: __RNvNtNtCs6IAuOt8vWmF_3syn3pat7parsing19pat_range_half_open, symObjAddr: 0xE77C, symBinAddr: 0x6050C, symSize: 0x3A4 }
  - { offset: 0xCA3EA, size: 0x8, addend: 0x0, symName: __RNvNtNtCs6IAuOt8vWmF_3syn3pat7parsing18pat_paren_or_tuple, symObjAddr: 0xEB20, symBinAddr: 0x608B0, symSize: 0x694 }
  - { offset: 0xCA534, size: 0x8, addend: 0x0, symName: __RNvNtNtCs6IAuOt8vWmF_3syn3pat7parsing13pat_reference, symObjAddr: 0xF1B4, symBinAddr: 0x60F44, symSize: 0x348 }
  - { offset: 0xCA696, size: 0x8, addend: 0x0, symName: __RNvNtNtCs6IAuOt8vWmF_3syn3pat7parsing16pat_lit_or_range, symObjAddr: 0xF4FC, symBinAddr: 0x6128C, symSize: 0x538 }
  - { offset: 0xCA7B3, size: 0x8, addend: 0x0, symName: __RNvNtNtCs6IAuOt8vWmF_3syn3pat7parsing15pat_range_bound, symObjAddr: 0xFD44, symBinAddr: 0x61AD4, symSize: 0x6CC }
  - { offset: 0xCA85C, size: 0x8, addend: 0x0, symName: __RNvNtNtCs6IAuOt8vWmF_3syn3pat7parsing9pat_slice, symObjAddr: 0x10410, symBinAddr: 0x621A0, symSize: 0x700 }
  - { offset: 0xCAA1B, size: 0x8, addend: 0x0, symName: __RNvNtNtCs6IAuOt8vWmF_3syn3pat7parsing9pat_const, symObjAddr: 0x10B10, symBinAddr: 0x628A0, symSize: 0x3A0 }
  - { offset: 0xCAB38, size: 0x8, addend: 0x0, symName: __RNvXNtNtCs6IAuOt8vWmF_3syn3pat8printingNtB4_8PatIdentNtNtCs2cqEZUIJimJ_5quote9to_tokens8ToTokens9to_tokens, symObjAddr: 0x10EB0, symBinAddr: 0x62C40, symSize: 0xF0 }
  - { offset: 0xCABA5, size: 0x8, addend: 0x0, symName: __RNvXs_NtNtCs6IAuOt8vWmF_3syn3pat8printingNtB6_5PatOrNtNtCs2cqEZUIJimJ_5quote9to_tokens8ToTokens9to_tokens, symObjAddr: 0x10FA0, symBinAddr: 0x62D30, symSize: 0x74 }
  - { offset: 0xCABE4, size: 0x8, addend: 0x0, symName: __RNvXs0_NtNtCs6IAuOt8vWmF_3syn3pat8printingNtB7_8PatParenNtNtCs2cqEZUIJimJ_5quote9to_tokens8ToTokens9to_tokens, symObjAddr: 0x11014, symBinAddr: 0x62DA4, symSize: 0x68 }
  - { offset: 0xCAC23, size: 0x8, addend: 0x0, symName: __RNvXs1_NtNtCs6IAuOt8vWmF_3syn3pat8printingNtB7_12PatReferenceNtNtCs2cqEZUIJimJ_5quote9to_tokens8ToTokens9to_tokens, symObjAddr: 0x1107C, symBinAddr: 0x62E0C, symSize: 0x84 }
  - { offset: 0xCAC62, size: 0x8, addend: 0x0, symName: __RNvXs2_NtNtCs6IAuOt8vWmF_3syn3pat8printingNtB7_7PatRestNtNtCs2cqEZUIJimJ_5quote9to_tokens8ToTokens9to_tokens, symObjAddr: 0x11100, symBinAddr: 0x62E90, symSize: 0x64 }
  - { offset: 0xCACA1, size: 0x8, addend: 0x0, symName: __RNvXs3_NtNtCs6IAuOt8vWmF_3syn3pat8printingNtB7_8PatSliceNtNtCs2cqEZUIJimJ_5quote9to_tokens8ToTokens9to_tokens, symObjAddr: 0x11164, symBinAddr: 0x62EF4, symSize: 0x68 }
  - { offset: 0xCACE0, size: 0x8, addend: 0x0, symName: __RNvXs4_NtNtCs6IAuOt8vWmF_3syn3pat8printingNtB7_9PatStructNtNtCs2cqEZUIJimJ_5quote9to_tokens8ToTokens9to_tokens, symObjAddr: 0x111CC, symBinAddr: 0x62F5C, symSize: 0x88 }
  - { offset: 0xCAD1F, size: 0x8, addend: 0x0, symName: __RNvXs5_NtNtCs6IAuOt8vWmF_3syn3pat8printingNtB7_8PatTupleNtNtCs2cqEZUIJimJ_5quote9to_tokens8ToTokens9to_tokens, symObjAddr: 0x11254, symBinAddr: 0x62FE4, symSize: 0x68 }
  - { offset: 0xCAD5E, size: 0x8, addend: 0x0, symName: __RNvXs6_NtNtCs6IAuOt8vWmF_3syn3pat8printingNtB7_14PatTupleStructNtNtCs2cqEZUIJimJ_5quote9to_tokens8ToTokens9to_tokens, symObjAddr: 0x112BC, symBinAddr: 0x6304C, symSize: 0x88 }
  - { offset: 0xCAD9D, size: 0x8, addend: 0x0, symName: __RNvXs7_NtNtCs6IAuOt8vWmF_3syn3pat8printingNtB7_7PatTypeNtNtCs2cqEZUIJimJ_5quote9to_tokens8ToTokens9to_tokens, symObjAddr: 0x11344, symBinAddr: 0x630D4, symSize: 0x84 }
  - { offset: 0xCADDC, size: 0x8, addend: 0x0, symName: __RNvXs8_NtNtCs6IAuOt8vWmF_3syn3pat8printingNtB7_7PatWildNtNtCs2cqEZUIJimJ_5quote9to_tokens8ToTokens9to_tokens, symObjAddr: 0x113C8, symBinAddr: 0x63158, symSize: 0x64 }
  - { offset: 0xCAE1B, size: 0x8, addend: 0x0, symName: __RNvXs9_NtNtCs6IAuOt8vWmF_3syn3pat8printingNtB7_8FieldPatNtNtCs2cqEZUIJimJ_5quote9to_tokens8ToTokens9to_tokens, symObjAddr: 0x1142C, symBinAddr: 0x631BC, symSize: 0xC0 }
  - { offset: 0xCAE7E, size: 0x8, addend: 0x0, symName: __RNcNtNtNtCs6IAuOt8vWmF_3syn3pat3Pat5Ident0B7_, symObjAddr: 0x1204C, symBinAddr: 0x6327C, symSize: 0x3C }
  - { offset: 0xCAEAD, size: 0x8, addend: 0x0, symName: __RNcNtNtNtCs6IAuOt8vWmF_3syn3pat3Pat9Reference0B7_, symObjAddr: 0x12088, symBinAddr: 0x632B8, symSize: 0x40 }
  - { offset: 0xCAEDC, size: 0x8, addend: 0x0, symName: __RNcNtNtNtCs6IAuOt8vWmF_3syn3pat3Pat5Slice0B7_, symObjAddr: 0x120C8, symBinAddr: 0x632F8, symSize: 0x40 }
  - { offset: 0xCAF0B, size: 0x8, addend: 0x0, symName: __RNcNtNtNtCs6IAuOt8vWmF_3syn3pat3Pat6Struct0B7_, symObjAddr: 0x12108, symBinAddr: 0x63338, symSize: 0x30 }
  - { offset: 0xCAF3A, size: 0x8, addend: 0x0, symName: __RNcNtNtNtCs6IAuOt8vWmF_3syn3pat3Pat11TupleStruct0B7_, symObjAddr: 0x12138, symBinAddr: 0x63368, symSize: 0x40 }
  - { offset: 0xCAF69, size: 0x8, addend: 0x0, symName: __RNcNtNtNtCs6IAuOt8vWmF_3syn3pat3Pat8Verbatim0B7_, symObjAddr: 0x12178, symBinAddr: 0x633A8, symSize: 0x20 }
  - { offset: 0xCAF97, size: 0x8, addend: 0x0, symName: __RNcNtNtNtCs6IAuOt8vWmF_3syn3pat3Pat4Wild0B7_, symObjAddr: 0x12198, symBinAddr: 0x633C8, symSize: 0x24 }
  - { offset: 0xCAFC6, size: 0x8, addend: 0x0, symName: __RNvXse_NtCs6IAuOt8vWmF_3syn3patNtB5_3PatNtNtCs2cqEZUIJimJ_5quote9to_tokens8ToTokens9to_tokens, symObjAddr: 0x12664, symBinAddr: 0x633EC, symSize: 0x250 }
  - { offset: 0xCB4B2, size: 0x8, addend: 0x0, symName: __RINvNtNtCs6IAuOt8vWmF_3syn3lit5value4byteNtNtCse1nGBsou5OW_5alloc6string6StringEB6_, symObjAddr: 0x3CE4, symBinAddr: 0x55E8C, symSize: 0xC0 }
  - { offset: 0xCB50E, size: 0x8, addend: 0x0, symName: __RINvNtNtCs6IAuOt8vWmF_3syn3lit5value4byteShEB6_, symObjAddr: 0x3DA4, symBinAddr: 0x55F4C, symSize: 0xBC }
  - { offset: 0xCB56A, size: 0x8, addend: 0x0, symName: __RINvNtNtCs6IAuOt8vWmF_3syn3lit5value4byteeEB6_, symObjAddr: 0x3E60, symBinAddr: 0x56008, symSize: 0xC0 }
  - { offset: 0xCB5C6, size: 0x8, addend: 0x0, symName: __RNvNtNtCs6IAuOt8vWmF_3syn3lit5value8next_chr, symObjAddr: 0x3F20, symBinAddr: 0x560C8, symSize: 0x54 }
  - { offset: 0xCB5F4, size: 0x8, addend: 0x0, symName: __RNvNtNtCs6IAuOt8vWmF_3syn3lit5value13parse_lit_str, symObjAddr: 0x3F74, symBinAddr: 0x5611C, symSize: 0xDC }
  - { offset: 0xCB622, size: 0x8, addend: 0x0, symName: __RNvNtNtCs6IAuOt8vWmF_3syn3lit5value20parse_lit_str_cooked, symObjAddr: 0x4050, symBinAddr: 0x561F8, symSize: 0x968 }
  - { offset: 0xCB83F, size: 0x8, addend: 0x0, symName: __RNvNtNtCs6IAuOt8vWmF_3syn3lit5value17parse_lit_str_raw, symObjAddr: 0x49B8, symBinAddr: 0x56B60, symSize: 0x4CC }
  - { offset: 0xCB9F9, size: 0x8, addend: 0x0, symName: __RNvNtNtCs6IAuOt8vWmF_3syn3lit5value18parse_lit_byte_str, symObjAddr: 0x4E84, symBinAddr: 0x5702C, symSize: 0x158 }
  - { offset: 0xCBA73, size: 0x8, addend: 0x0, symName: __RNvNtNtCs6IAuOt8vWmF_3syn3lit5value25parse_lit_byte_str_cooked, symObjAddr: 0x4FDC, symBinAddr: 0x57184, symSize: 0x974 }
  - { offset: 0xCBD5B, size: 0x8, addend: 0x0, symName: __RNvNtNtCs6IAuOt8vWmF_3syn3lit5value22parse_lit_byte_str_raw, symObjAddr: 0x5950, symBinAddr: 0x57AF8, symSize: 0x1B8 }
  - { offset: 0xCBDFD, size: 0x8, addend: 0x0, symName: __RNvNtNtCs6IAuOt8vWmF_3syn3lit5value15parse_lit_c_str, symObjAddr: 0x5B08, symBinAddr: 0x57CB0, symSize: 0x158 }
  - { offset: 0xCBE77, size: 0x8, addend: 0x0, symName: __RNvNtNtCs6IAuOt8vWmF_3syn3lit5value22parse_lit_c_str_cooked, symObjAddr: 0x5C60, symBinAddr: 0x57E08, symSize: 0xBD0 }
  - { offset: 0xCC1D5, size: 0x8, addend: 0x0, symName: __RNvNtNtCs6IAuOt8vWmF_3syn3lit5value19parse_lit_c_str_raw, symObjAddr: 0x6830, symBinAddr: 0x589D8, symSize: 0x278 }
  - { offset: 0xCC2B1, size: 0x8, addend: 0x0, symName: __RNvNtNtCs6IAuOt8vWmF_3syn3lit5value14parse_lit_byte, symObjAddr: 0x6AA8, symBinAddr: 0x58C50, symSize: 0x5C4 }
  - { offset: 0xCC514, size: 0x8, addend: 0x0, symName: __RNvNtNtCs6IAuOt8vWmF_3syn3lit5value14parse_lit_char, symObjAddr: 0x706C, symBinAddr: 0x59214, symSize: 0x57C }
  - { offset: 0xCC6E7, size: 0x8, addend: 0x0, symName: __RINvNtNtCs6IAuOt8vWmF_3syn3lit5value11backslash_xShEB6_, symObjAddr: 0x75E8, symBinAddr: 0x59790, symSize: 0x560 }
  - { offset: 0xCC787, size: 0x8, addend: 0x0, symName: __RINvNtNtCs6IAuOt8vWmF_3syn3lit5value11backslash_xeEB6_, symObjAddr: 0x7B48, symBinAddr: 0x59CF0, symSize: 0x544 }
  - { offset: 0xCC801, size: 0x8, addend: 0x0, symName: __RINvNtNtCs6IAuOt8vWmF_3syn3lit5value11backslash_uShEB6_, symObjAddr: 0x808C, symBinAddr: 0x5A234, symSize: 0x5F8 }
  - { offset: 0xCC949, size: 0x8, addend: 0x0, symName: __RINvNtNtCs6IAuOt8vWmF_3syn3lit5value11backslash_ueEB6_, symObjAddr: 0x8684, symBinAddr: 0x5A82C, symSize: 0x5C8 }
  - { offset: 0xCC9F2, size: 0x8, addend: 0x0, symName: __RNvNtNtCs6IAuOt8vWmF_3syn3lit5value13parse_lit_int, symObjAddr: 0x8C4C, symBinAddr: 0x5ADF4, symSize: 0xC44 }
  - { offset: 0xCCB42, size: 0x8, addend: 0x0, symName: __RNvNtNtCs6IAuOt8vWmF_3syn3lit5value15parse_lit_float, symObjAddr: 0x9890, symBinAddr: 0x5BA38, symSize: 0xBD8 }
  - { offset: 0xCCCC0, size: 0x8, addend: 0x0, symName: __RNCNvNtNtCs6IAuOt8vWmF_3syn3lit5value15parse_lit_float0B7_, symObjAddr: 0xA468, symBinAddr: 0x5C610, symSize: 0x38 }
  - { offset: 0xCCD06, size: 0x8, addend: 0x0, symName: __RINvNvNtNtCs6IAuOt8vWmF_3syn3lit5value11backslash_u18panic_cold_displayReEB8_, symObjAddr: 0x12024, symBinAddr: 0x16E314, symSize: 0x28 }
  - { offset: 0xCE519, size: 0x8, addend: 0x0, symName: __RNvNtNtCs6IAuOt8vWmF_3syn8generics7parsing26choose_generics_over_qpath, symObjAddr: 0x399C, symBinAddr: 0x55B44, symSize: 0x1F8 }
  - { offset: 0xCE547, size: 0x8, addend: 0x0, symName: __RNvNtNtCs6IAuOt8vWmF_3syn8generics7parsing40choose_generics_over_qpath_after_keyword, symObjAddr: 0x3B94, symBinAddr: 0x55D3C, symSize: 0x150 }
  - { offset: 0xCED57, size: 0x8, addend: 0x0, symName: __RNvXs10_NtNtCs6IAuOt8vWmF_3syn3gen5cloneNtNtBa_3pat8FieldPatNtNtCsfvfooZQ3Axs_4core5clone5Clone5clone, symObjAddr: 0x128B4, symBinAddr: 0x6363C, symSize: 0x108 }
  - { offset: 0xCED8B, size: 0x8, addend: 0x0, symName: __RNvXs1P_NtNtCs6IAuOt8vWmF_3syn3gen5cloneNtNtBa_3pat3PatNtNtCsfvfooZQ3Axs_4core5clone5Clone5clone, symObjAddr: 0x129BC, symBinAddr: 0x63744, symSize: 0x64C }
  - { offset: 0xCEFC1, size: 0x8, addend: 0x0, symName: __RNvXs1Q_NtNtCs6IAuOt8vWmF_3syn3gen5cloneNtNtBa_3pat8PatIdentNtNtCsfvfooZQ3Axs_4core5clone5Clone5clone, symObjAddr: 0x13008, symBinAddr: 0x63D90, symSize: 0x12C }
  - { offset: 0xCEFF5, size: 0x8, addend: 0x0, symName: __RNvXs1R_NtNtCs6IAuOt8vWmF_3syn3gen5cloneNtNtBa_3pat5PatOrNtNtCsfvfooZQ3Axs_4core5clone5Clone5clone, symObjAddr: 0x13134, symBinAddr: 0x63EBC, symSize: 0xD0 }
  - { offset: 0xCF029, size: 0x8, addend: 0x0, symName: __RNvXs1S_NtNtCs6IAuOt8vWmF_3syn3gen5cloneNtNtBa_3pat8PatParenNtNtCsfvfooZQ3Axs_4core5clone5Clone5clone, symObjAddr: 0x13204, symBinAddr: 0x63F8C, symSize: 0xC0 }
  - { offset: 0xCF05D, size: 0x8, addend: 0x0, symName: __RNvXs1T_NtNtCs6IAuOt8vWmF_3syn3gen5cloneNtNtBa_3pat12PatReferenceNtNtCsfvfooZQ3Axs_4core5clone5Clone5clone, symObjAddr: 0x132C4, symBinAddr: 0x6404C, symSize: 0xF0 }
  - { offset: 0xCF091, size: 0x8, addend: 0x0, symName: __RNvXs1U_NtNtCs6IAuOt8vWmF_3syn3gen5cloneNtNtBa_3pat7PatRestNtNtCsfvfooZQ3Axs_4core5clone5Clone5clone, symObjAddr: 0x133B4, symBinAddr: 0x6413C, symSize: 0xAC }
  - { offset: 0xCF0C5, size: 0x8, addend: 0x0, symName: __RNvXs1V_NtNtCs6IAuOt8vWmF_3syn3gen5cloneNtNtBa_3pat8PatSliceNtNtCsfvfooZQ3Axs_4core5clone5Clone5clone, symObjAddr: 0x13460, symBinAddr: 0x641E8, symSize: 0xC8 }
  - { offset: 0xCF0F9, size: 0x8, addend: 0x0, symName: __RNvXs1W_NtNtCs6IAuOt8vWmF_3syn3gen5cloneNtNtBa_3pat9PatStructNtNtCsfvfooZQ3Axs_4core5clone5Clone5clone, symObjAddr: 0x13528, symBinAddr: 0x642B0, symSize: 0x1A4 }
  - { offset: 0xCF12D, size: 0x8, addend: 0x0, symName: __RNvXs1X_NtNtCs6IAuOt8vWmF_3syn3gen5cloneNtNtBa_3pat8PatTupleNtNtCsfvfooZQ3Axs_4core5clone5Clone5clone, symObjAddr: 0x136CC, symBinAddr: 0x64454, symSize: 0xC8 }
  - { offset: 0xCF161, size: 0x8, addend: 0x0, symName: __RNvXs1Y_NtNtCs6IAuOt8vWmF_3syn3gen5cloneNtNtBa_3pat14PatTupleStructNtNtCsfvfooZQ3Axs_4core5clone5Clone5clone, symObjAddr: 0x13794, symBinAddr: 0x6451C, symSize: 0x150 }
  - { offset: 0xCF195, size: 0x8, addend: 0x0, symName: __RNvXs1Z_NtNtCs6IAuOt8vWmF_3syn3gen5cloneNtNtBa_3pat7PatTypeNtNtCsfvfooZQ3Axs_4core5clone5Clone5clone, symObjAddr: 0x138E4, symBinAddr: 0x6466C, symSize: 0x108 }
  - { offset: 0xCF1C9, size: 0x8, addend: 0x0, symName: __RNvXs20_NtNtCs6IAuOt8vWmF_3syn3gen5cloneNtNtBa_3pat7PatWildNtNtCsfvfooZQ3Axs_4core5clone5Clone5clone, symObjAddr: 0x139EC, symBinAddr: 0x64774, symSize: 0xAC }
  - { offset: 0xD0808, size: 0x8, addend: 0x0, symName: __RNCNCINvNtCse1nGBsou5OW_5alloc3str17join_generic_copyehReE00Cs6IAuOt8vWmF_3syn, symObjAddr: 0x26A8, symBinAddr: 0x555C0, symSize: 0x38 }
  - { offset: 0xD0861, size: 0x8, addend: 0x0, symName: __RNCINvNtCse1nGBsou5OW_5alloc3str17join_generic_copyehReEs_0Cs6IAuOt8vWmF_3syn, symObjAddr: 0x2398, symBinAddr: 0x55540, symSize: 0x80 }
  - { offset: 0xD092F, size: 0x8, addend: 0x0, symName: __RINvNtCse1nGBsou5OW_5alloc3str17join_generic_copyehReECs6IAuOt8vWmF_3syn, symObjAddr: 0x0, symBinAddr: 0x534D0, symSize: 0x160C }
  - { offset: 0xD1E2A, size: 0x8, addend: 0x0, symName: __RNvXs2_NtCse1nGBsou5OW_5alloc3streNtNtB7_6borrow7ToOwned8to_ownedCs6IAuOt8vWmF_3syn, symObjAddr: 0x2E1C, symBinAddr: 0x558E0, symSize: 0x50 }
  - { offset: 0xD1F1D, size: 0x8, addend: 0x0, symName: __RNvXs_NtCse1nGBsou5OW_5alloc3strSReINtNtB6_5slice4JoinBv_E4joinCs6IAuOt8vWmF_3syn, symObjAddr: 0x3738, symBinAddr: 0x559D0, symSize: 0x50 }
  - { offset: 0xD1F8E, size: 0x8, addend: 0x0, symName: __RINvXNtNtCse1nGBsou5OW_5alloc5slice4hackTNtNtCs6IAuOt8vWmF_3syn3pat3PatNtNtBH_5token2OrENtB3_10ConvertVec6to_vecNtNtB7_5alloc6GlobalEBH_, symObjAddr: 0x1630, symBinAddr: 0x54B00, symSize: 0x36C }
  - { offset: 0xD2451, size: 0x8, addend: 0x0, symName: __RINvXNtNtCse1nGBsou5OW_5alloc5slice4hackTNtNtCs6IAuOt8vWmF_3syn3pat3PatNtNtBH_5token5CommaENtB3_10ConvertVec6to_vecNtNtB7_5alloc6GlobalEBH_, symObjAddr: 0x199C, symBinAddr: 0x54E6C, symSize: 0x36C }
  - { offset: 0xD2914, size: 0x8, addend: 0x0, symName: __RINvXNtNtCse1nGBsou5OW_5alloc5slice4hackTNtNtCs6IAuOt8vWmF_3syn3pat8FieldPatNtNtBH_5token5CommaENtB3_10ConvertVec6to_vecNtNtB7_5alloc6GlobalEBH_, symObjAddr: 0x1D08, symBinAddr: 0x551D8, symSize: 0x368 }
  - { offset: 0xD6E90, size: 0x8, addend: 0x0, symName: __RINvNtCsfvfooZQ3Axs_4core3cmp3minjECs6IAuOt8vWmF_3syn, symObjAddr: 0x160C, symBinAddr: 0x54ADC, symSize: 0x24 }
  - { offset: 0xD6F11, size: 0x8, addend: 0x0, symName: __RNvXs5_NtCsfvfooZQ3Axs_4core3cmpNtB5_8OrderingNtB5_9PartialEq2eqCs6IAuOt8vWmF_3syn, symObjAddr: 0x335C, symBinAddr: 0x5595C, symSize: 0x2C }
  - { offset: 0xD6F54, size: 0x8, addend: 0x0, symName: __RNvYjNtNtCsfvfooZQ3Axs_4core3cmp3Ord3minCs6IAuOt8vWmF_3syn, symObjAddr: 0x38E0, symBinAddr: 0x55AC4, symSize: 0x80 }
  - { offset: 0xD7397, size: 0x8, addend: 0x0, symName: __RNvMNtCsfvfooZQ3Axs_4core5sliceSTNtNtCs6IAuOt8vWmF_3syn3pat3PatNtNtBz_5token2OrE4iterBz_, symObjAddr: 0x26E0, symBinAddr: 0x555F8, symSize: 0x28 }
  - { offset: 0xD73CE, size: 0x8, addend: 0x0, symName: __RNvMNtCsfvfooZQ3Axs_4core5sliceSTNtNtCs6IAuOt8vWmF_3syn3pat3PatNtNtBz_5token5CommaE4iterBz_, symObjAddr: 0x2708, symBinAddr: 0x55620, symSize: 0x28 }
  - { offset: 0xD7405, size: 0x8, addend: 0x0, symName: __RNvMNtCsfvfooZQ3Axs_4core5sliceSTNtNtCs6IAuOt8vWmF_3syn3pat8FieldPatNtNtBz_5token5CommaE4iterBz_, symObjAddr: 0x2730, symBinAddr: 0x55648, symSize: 0x28 }
  - { offset: 0xD7BFD, size: 0x8, addend: 0x0, symName: __RNvXs2_NtNtNtCsfvfooZQ3Axs_4core3ops8function5implsQNCINvNtCse1nGBsou5OW_5alloc3str17join_generic_copyehReEs_0INtB7_6FnOnceTRB1E_EE9call_onceCs6IAuOt8vWmF_3syn, symObjAddr: 0x3330, symBinAddr: 0x55930, symSize: 0x2C }
  - { offset: 0xD8846, size: 0x8, addend: 0x0, symName: __RNvXs_NtNtNtCsfvfooZQ3Axs_4core4iter8adapters4takeINtB4_4TakeQINtNtCs6IAuOt8vWmF_3syn10punctuated5PairsNtNtB13_4path11PathSegmentNtNtB13_5token7PathSepEENtNtNtB8_6traits8iterator8Iterator4nextB13_, symObjAddr: 0x37D0, symBinAddr: 0x55A44, symSize: 0x5C }
  - { offset: 0xD894B, size: 0x8, addend: 0x0, symName: __RNvXs1_NtNtNtCsfvfooZQ3Axs_4core4iter8adapters3zipINtB5_3ZipNtNtNtBb_3str4iter5CharsINtNtNtBb_5slice4iter4IterNtCs3cP53eQoTwO_11proc_macro24SpanEEINtB5_7ZipImplBW_B1k_E3newCs6IAuOt8vWmF_3syn, symObjAddr: 0x2CBC, symBinAddr: 0x557B0, symSize: 0x48 }
  - { offset: 0xD8997, size: 0x8, addend: 0x0, symName: __RNvXs1_NtNtNtCsfvfooZQ3Axs_4core4iter8adapters3zipINtB5_3ZipNtNtNtBb_3str4iter5CharsINtNtNtBb_5slice4iter4IterNtCs3cP53eQoTwO_11proc_macro24SpanEEINtB5_7ZipImplBW_B1k_E4nextCs6IAuOt8vWmF_3syn, symObjAddr: 0x2D04, symBinAddr: 0x557F8, symSize: 0xE8 }
  - { offset: 0xD8AE5, size: 0x8, addend: 0x0, symName: __RNvXs_NtNtNtCsfvfooZQ3Axs_4core4iter8adapters3zipINtB4_3ZipNtNtNtBa_3str4iter5CharsINtNtNtBa_5slice4iter4IterNtCs3cP53eQoTwO_11proc_macro24SpanEENtNtNtB8_6traits8iterator8Iterator4nextCs6IAuOt8vWmF_3syn, symObjAddr: 0x37AC, symBinAddr: 0x55A20, symSize: 0x24 }
  - { offset: 0xD8D4A, size: 0x8, addend: 0x0, symName: __RNvYINtNtNtNtCsfvfooZQ3Axs_4core4iter8adapters4take4TakeQINtNtCs6IAuOt8vWmF_3syn10punctuated5PairsNtNtBY_4path11PathSegmentNtNtBY_5token7PathSepEENtNtNtB9_6traits8iterator8Iterator9enumerateBY_, symObjAddr: 0x382C, symBinAddr: 0x55AA0, symSize: 0x24 }
  - { offset: 0xD8DA2, size: 0x8, addend: 0x0, symName: __RNvXNtNtNtCsfvfooZQ3Axs_4core4iter6traits7collectINtNtNtB6_8adapters3zip3ZipNtNtNtB8_3str4iter5CharsINtNtNtB8_5slice4iter4IterNtCs3cP53eQoTwO_11proc_macro24SpanEENtB2_12IntoIterator9into_iterCs6IAuOt8vWmF_3syn, symObjAddr: 0x29F8, symBinAddr: 0x55780, symSize: 0x30 }
  - { offset: 0xD8DE7, size: 0x8, addend: 0x0, symName: __RNvXsF_NtNtCsfvfooZQ3Axs_4core4iter5rangejNtB5_4Step17forward_uncheckedCs6IAuOt8vWmF_3syn, symObjAddr: 0x36F0, symBinAddr: 0x55988, symSize: 0x48 }
  - { offset: 0xD8E58, size: 0x8, addend: 0x0, symName: __RNvXNtNtCsfvfooZQ3Axs_4core5clone6uninitNtNtCs6IAuOt8vWmF_3syn3pat3PatNtB2_8CopySpec9clone_oneBG_, symObjAddr: 0x2938, symBinAddr: 0x556F0, symSize: 0x48 }
  - { offset: 0xD8EBC, size: 0x8, addend: 0x0, symName: __RNvXNtNtCsfvfooZQ3Axs_4core5clone6uninitNtNtCs6IAuOt8vWmF_3syn3pat8FieldPatNtB2_8CopySpec9clone_oneBG_, symObjAddr: 0x2980, symBinAddr: 0x55738, symSize: 0x48 }
  - { offset: 0xDA7FE, size: 0x8, addend: 0x0, symName: __RNvXNtCs2cqEZUIJimJ_5quote9to_tokensRNtNtCs6IAuOt8vWmF_3syn3pat3PatNtB2_8ToTokens9to_tokensBD_, symObjAddr: 0x28B8, symBinAddr: 0x55670, symSize: 0x40 }
  - { offset: 0xDA83D, size: 0x8, addend: 0x0, symName: __RNvXNtCs2cqEZUIJimJ_5quote9to_tokensRNtNtCs6IAuOt8vWmF_3syn3pat8FieldPatNtB2_8ToTokens9to_tokensBD_, symObjAddr: 0x28F8, symBinAddr: 0x556B0, symSize: 0x40 }
  - { offset: 0xDAAB3, size: 0x8, addend: 0x0, symName: __RNvMNtNtCs6IAuOt8vWmF_3syn3pat7parsingNtB4_3Pat12parse_single, symObjAddr: 0xA4D4, symBinAddr: 0x5C648, symSize: 0x888 }
  - { offset: 0xDAB04, size: 0x8, addend: 0x0, symName: __RNvMNtNtCs6IAuOt8vWmF_3syn3pat7parsingNtB4_3Pat29parse_multi_with_leading_vert, symObjAddr: 0xADA0, symBinAddr: 0x5CED0, symSize: 0xD0 }
  - { offset: 0xDAB8E, size: 0x8, addend: 0x0, symName: __RNvMs0_NtNtCs6IAuOt8vWmF_3syn3pat7parsingNtB5_13PatRangeBound9into_expr, symObjAddr: 0xFA34, symBinAddr: 0x617C4, symSize: 0x1A8 }
  - { offset: 0xDAC26, size: 0x8, addend: 0x0, symName: __RNvMs0_NtNtCs6IAuOt8vWmF_3syn3pat7parsingNtB5_13PatRangeBound8into_pat, symObjAddr: 0xFBDC, symBinAddr: 0x6196C, symSize: 0x168 }
  - { offset: 0xDAF9F, size: 0x8, addend: 0x0, symName: __RINvMNtCse1nGBsou5OW_5alloc5sliceSRe4joinBw_ECs6IAuOt8vWmF_3syn, symObjAddr: 0x0, symBinAddr: 0x64820, symSize: 0x34 }
  - { offset: 0xDB411, size: 0x8, addend: 0x0, symName: __RINvXs6_Cs3cP53eQoTwO_11proc_macro2NtB6_11TokenStreamINtNtNtNtCsfvfooZQ3Axs_4core4iter6traits7collect12FromIteratorNtB6_9TokenTreeE9from_iterINtNtNtCse1nGBsou5OW_5alloc3vec9into_iter8IntoIterB1P_EECs6IAuOt8vWmF_3syn, symObjAddr: 0x13B8, symBinAddr: 0x65AD4, symSize: 0x54 }
  - { offset: 0xDB630, size: 0x8, addend: 0x0, symName: __RNvXsG_Cs3cP53eQoTwO_11proc_macro2NtB5_11TokenStreamNtNtCsfvfooZQ3Axs_4core5clone5Clone5cloneCs6IAuOt8vWmF_3syn, symObjAddr: 0x248C, symBinAddr: 0x66284, symSize: 0x78 }
  - { offset: 0xDB662, size: 0x8, addend: 0x0, symName: __RNvXsI_Cs3cP53eQoTwO_11proc_macro2NtB5_4SpanNtNtCsfvfooZQ3Axs_4core5clone5Clone5cloneCs6IAuOt8vWmF_3syn, symObjAddr: 0x2504, symBinAddr: 0x662FC, symSize: 0x18 }
  - { offset: 0xDB696, size: 0x8, addend: 0x0, symName: __RNvXsK_Cs3cP53eQoTwO_11proc_macro2NtB5_5GroupNtNtCsfvfooZQ3Axs_4core5clone5Clone5cloneCs6IAuOt8vWmF_3syn, symObjAddr: 0x251C, symBinAddr: 0x66314, symSize: 0x40 }
  - { offset: 0xDB6CA, size: 0x8, addend: 0x0, symName: __RNvXsM_Cs3cP53eQoTwO_11proc_macro2NtB5_9DelimiterNtNtCsfvfooZQ3Axs_4core5clone5Clone5cloneCs6IAuOt8vWmF_3syn, symObjAddr: 0x255C, symBinAddr: 0x66354, symSize: 0x18 }
  - { offset: 0xDB6FE, size: 0x8, addend: 0x0, symName: __RNvXsQ_Cs3cP53eQoTwO_11proc_macro2NtB5_9DelimiterNtNtCsfvfooZQ3Axs_4core3cmp9PartialEq2eqCs6IAuOt8vWmF_3syn, symObjAddr: 0x2574, symBinAddr: 0x6636C, symSize: 0x34 }
  - { offset: 0xDB77D, size: 0x8, addend: 0x0, symName: __RNvXsR_Cs3cP53eQoTwO_11proc_macro2NtB5_5PunctNtNtCsfvfooZQ3Axs_4core5clone5Clone5cloneCs6IAuOt8vWmF_3syn, symObjAddr: 0x25A8, symBinAddr: 0x663A0, symSize: 0x64 }
  - { offset: 0xDB7B1, size: 0x8, addend: 0x0, symName: __RNvXsT_Cs3cP53eQoTwO_11proc_macro2NtB5_7SpacingNtNtCsfvfooZQ3Axs_4core5clone5Clone5cloneCs6IAuOt8vWmF_3syn, symObjAddr: 0x260C, symBinAddr: 0x66404, symSize: 0x1C }
  - { offset: 0xDB7E5, size: 0x8, addend: 0x0, symName: __RNvXsX_Cs3cP53eQoTwO_11proc_macro2NtB5_7SpacingNtNtCsfvfooZQ3Axs_4core3cmp9PartialEq2eqCs6IAuOt8vWmF_3syn, symObjAddr: 0x2628, symBinAddr: 0x66420, symSize: 0x3C }
  - { offset: 0xDB864, size: 0x8, addend: 0x0, symName: __RNvXsY_Cs3cP53eQoTwO_11proc_macro2NtB5_5IdentNtNtCsfvfooZQ3Axs_4core5clone5Clone5cloneCs6IAuOt8vWmF_3syn, symObjAddr: 0x2664, symBinAddr: 0x6645C, symSize: 0x78 }
  - { offset: 0xDB898, size: 0x8, addend: 0x0, symName: __RNvXsZ_Cs3cP53eQoTwO_11proc_macro2NtB5_7LiteralNtNtCsfvfooZQ3Axs_4core5clone5Clone5cloneCs6IAuOt8vWmF_3syn, symObjAddr: 0x26DC, symBinAddr: 0x664D4, symSize: 0x78 }
  - { offset: 0xDB8CC, size: 0x8, addend: 0x0, symName: __RNvXsv_Cs3cP53eQoTwO_11proc_macro2NtB5_5IdentINtNtCsfvfooZQ3Axs_4core3cmp9PartialEqReE2eqCs6IAuOt8vWmF_3syn, symObjAddr: 0x40E8, symBinAddr: 0x67D20, symSize: 0x40 }
  - { offset: 0xDB912, size: 0x8, addend: 0x0, symName: __RNvXsv_Cs3cP53eQoTwO_11proc_macro2NtB5_5IdentINtNtCsfvfooZQ3Axs_4core3cmp9PartialEqeE2eqCs6IAuOt8vWmF_3syn, symObjAddr: 0x4128, symBinAddr: 0x67D60, symSize: 0x44 }
  - { offset: 0xDC715, size: 0x8, addend: 0x0, symName: __RNvNvMs1_NtNtCsfvfooZQ3Axs_4core3ptr8non_nullINtB7_7NonNullpE13new_unchecked18precondition_checkCs6IAuOt8vWmF_3syn, symObjAddr: 0x1D48, symBinAddr: 0x66014, symSize: 0x38 }
  - { offset: 0xDD297, size: 0x8, addend: 0x0, symName: __RNvXs1p_NtNtCsfvfooZQ3Axs_4core3fmt3numjNtB8_5Debug3fmtCs6IAuOt8vWmF_3syn, symObjAddr: 0x2150, symBinAddr: 0x661B8, symSize: 0x90 }
  - { offset: 0xEA603, size: 0x8, addend: 0x0, symName: __RINvNvNtNtNtNtCsfvfooZQ3Axs_4core4iter6traits8iterator8Iterator4last4someNtCs3cP53eQoTwO_11proc_macro29TokenTreeECs6IAuOt8vWmF_3syn, symObjAddr: 0x74, symBinAddr: 0x64894, symSize: 0x24 }
  - { offset: 0xEA64F, size: 0x8, addend: 0x0, symName: __RNCINvNvNtNtNtNtCsfvfooZQ3Axs_4core4iter6traits8iterator8Iterator3all5checkRNtNtCs6IAuOt8vWmF_3syn4path11PathSegmentNCNvMs5_NtB1e_7parsingNtB1e_4Path12is_mod_style0E0B1g_, symObjAddr: 0x1468, symBinAddr: 0x65B28, symSize: 0x50 }
  - { offset: 0xEA6B7, size: 0x8, addend: 0x0, symName: __RNCINvNvNtNtNtNtCsfvfooZQ3Axs_4core4iter6traits8iterator8Iterator8for_each4callNtCs3cP53eQoTwO_11proc_macro29TokenTreeNCINvXsa_NtB1h_8fallbackNtB21_11TokenStreamINtNtBa_7collect6ExtendB1f_E6extendINtNtNtCse1nGBsou5OW_5alloc3vec9into_iter8IntoIterB1f_EE0E0Cs6IAuOt8vWmF_3syn, symObjAddr: 0x156C, symBinAddr: 0x65B78, symSize: 0x3C }
  - { offset: 0xEA710, size: 0x8, addend: 0x0, symName: __RNCINvNvNtNtNtNtCsfvfooZQ3Axs_4core4iter6traits8iterator8Iterator8for_each4callNtCs9i5KxIbZ5ph_10proc_macro9TokenTreeNCINvXsg_B1h_NtB1h_11TokenStreamINtNtBa_7collect12FromIteratorB1f_E9from_iterINtNtNtBc_8adapters3map3MapINtNtNtCse1nGBsou5OW_5alloc3vec9into_iter8IntoIterNtCs3cP53eQoTwO_11proc_macro29TokenTreeENvNtB4n_3imp19into_compiler_tokenEE0E0Cs6IAuOt8vWmF_3syn, symObjAddr: 0x1684, symBinAddr: 0x65BB4, symSize: 0x3C }
  - { offset: 0xEA769, size: 0x8, addend: 0x0, symName: __RNCINvNvNtNtNtNtCsfvfooZQ3Axs_4core4iter6traits8iterator8Iterator8for_each4callNtNtCs6IAuOt8vWmF_3syn8generics14TypeParamBoundNCINvMsi_NtCse1nGBsou5OW_5alloc3vecINtB29_3VecB1f_E14extend_trustedINtNtBe_6option8IntoIterB1f_EE0E0B1j_, symObjAddr: 0x1798, symBinAddr: 0x65BF0, symSize: 0x40 }
  - { offset: 0xEA7C2, size: 0x8, addend: 0x0, symName: __RNCINvNvNtNtNtNtCsfvfooZQ3Axs_4core4iter6traits8iterator8Iterator8for_each4callNtNtCs6IAuOt8vWmF_3syn8generics14TypeParamBoundNCINvMsi_NtCse1nGBsou5OW_5alloc3vecINtB29_3VecB1f_E14extend_trustedINtNtNtBc_8adapters3map3MapINtNtB29_9into_iter8IntoIterTB1f_NtNtB1j_5token4PlusEENCNvXs8_NtB1j_10punctuatedINtB4w_10PunctuatedB1f_B43_ENtNtBa_7collect12IntoIterator9into_iter0EE0E0B1j_, symObjAddr: 0x17D8, symBinAddr: 0x65C30, symSize: 0x40 }
  - { offset: 0xEA829, size: 0x8, addend: 0x0, symName: __RNvXNtNtNtCsfvfooZQ3Axs_4core4iter6traits7collectINtNtNtB6_8adapters9enumerate9EnumerateINtNtBQ_4take4TakeQINtNtCs6IAuOt8vWmF_3syn10punctuated5PairsNtNtB1M_4path11PathSegmentNtNtB1M_5token7PathSepEEENtB2_12IntoIterator9into_iterB1M_, symObjAddr: 0x1EF4, symBinAddr: 0x66124, symSize: 0x18 }
  - { offset: 0xEA860, size: 0x8, addend: 0x0, symName: __RNvXNtNtNtCsfvfooZQ3Axs_4core4iter6traits7collectINtNtNtB6_8adapters9enumerate9EnumerateINtNtNtB8_5slice4iter4IterNtNtCs6IAuOt8vWmF_3syn4expr3ArmEENtB2_12IntoIterator9into_iterB1S_, symObjAddr: 0x1F24, symBinAddr: 0x6613C, symSize: 0x18 }
  - { offset: 0xEA897, size: 0x8, addend: 0x0, symName: __RNvXNtNtNtCsfvfooZQ3Axs_4core4iter6traits7collectINtNtNtB6_8adapters9enumerate9EnumerateNtNtNtB8_3str4iter5CharsENtB2_12IntoIterator9into_iterCs6IAuOt8vWmF_3syn, symObjAddr: 0x1F3C, symBinAddr: 0x66154, symSize: 0x18 }
  - { offset: 0xEA8E0, size: 0x8, addend: 0x0, symName: __RNvXs_NtNtNtCsfvfooZQ3Axs_4core4iter8adapters9enumerateINtB4_9EnumerateINtNtB6_4take4TakeQINtNtCs6IAuOt8vWmF_3syn10punctuated5PairsNtNtB1v_4path11PathSegmentNtNtB1v_5token7PathSepEEENtNtNtB8_6traits8iterator8Iterator4nextB1v_, symObjAddr: 0x2754, symBinAddr: 0x6654C, symSize: 0x110 }
  - { offset: 0xEA9BB, size: 0x8, addend: 0x0, symName: __RNvXs_NtNtNtCsfvfooZQ3Axs_4core4iter8adapters9enumerateINtB4_9EnumerateINtNtNtBa_5slice4iter4IterNtNtCs6IAuOt8vWmF_3syn4attr9AttributeEENtNtNtB8_6traits8iterator8Iterator4nextB1B_, symObjAddr: 0x2944, symBinAddr: 0x6665C, symSize: 0xE0 }
  - { offset: 0xEAA95, size: 0x8, addend: 0x0, symName: __RNvXs_NtNtNtCsfvfooZQ3Axs_4core4iter8adapters9enumerateINtB4_9EnumerateINtNtNtBa_5slice4iter4IterNtNtCs6IAuOt8vWmF_3syn4expr3ArmEENtNtNtB8_6traits8iterator8Iterator4nextB1B_, symObjAddr: 0x2A24, symBinAddr: 0x6673C, symSize: 0xE0 }
  - { offset: 0xEAB6F, size: 0x8, addend: 0x0, symName: __RNvXs_NtNtNtCsfvfooZQ3Axs_4core4iter8adapters9enumerateINtB4_9EnumerateINtNtNtBa_5slice4iter4IterNtNtCs6IAuOt8vWmF_3syn4item11ForeignItemEENtNtNtB8_6traits8iterator8Iterator4nextB1B_, symObjAddr: 0x2B04, symBinAddr: 0x6681C, symSize: 0xE0 }
  - { offset: 0xEAC49, size: 0x8, addend: 0x0, symName: __RNvXs_NtNtNtCsfvfooZQ3Axs_4core4iter8adapters9enumerateINtB4_9EnumerateINtNtNtBa_5slice4iter4IterNtNtCs6IAuOt8vWmF_3syn4item4ItemEENtNtNtB8_6traits8iterator8Iterator4nextB1B_, symObjAddr: 0x2BE4, symBinAddr: 0x668FC, symSize: 0xE0 }
  - { offset: 0xEAD23, size: 0x8, addend: 0x0, symName: __RNvXs_NtNtNtCsfvfooZQ3Axs_4core4iter8adapters9enumerateINtB4_9EnumerateINtNtNtBa_5slice4iter4IterNtNtCs6IAuOt8vWmF_3syn4item8ImplItemEENtNtNtB8_6traits8iterator8Iterator4nextB1B_, symObjAddr: 0x2CC4, symBinAddr: 0x669DC, symSize: 0xE0 }
  - { offset: 0xEADFD, size: 0x8, addend: 0x0, symName: __RNvXs_NtNtNtCsfvfooZQ3Axs_4core4iter8adapters9enumerateINtB4_9EnumerateINtNtNtBa_5slice4iter4IterNtNtCs6IAuOt8vWmF_3syn4item9TraitItemEENtNtNtB8_6traits8iterator8Iterator4nextB1B_, symObjAddr: 0x2DA4, symBinAddr: 0x66ABC, symSize: 0xE0 }
  - { offset: 0xEAED7, size: 0x8, addend: 0x0, symName: __RNvXs_NtNtNtCsfvfooZQ3Axs_4core4iter8adapters9enumerateINtB4_9EnumerateINtNtNtBa_5slice4iter4IterNtNtCs6IAuOt8vWmF_3syn4stmt4StmtEENtNtNtB8_6traits8iterator8Iterator4nextB1B_, symObjAddr: 0x2E84, symBinAddr: 0x66B9C, symSize: 0xE0 }
  - { offset: 0xEAFB1, size: 0x8, addend: 0x0, symName: __RNvXs_NtNtNtCsfvfooZQ3Axs_4core4iter8adapters9enumerateINtB4_9EnumerateINtNtNtBa_5slice4iter4IterTNtNtCs6IAuOt8vWmF_3syn2ty4TypeNtNtB1C_5token5CommaEEENtNtNtB8_6traits8iterator8Iterator4nextB1C_, symObjAddr: 0x3044, symBinAddr: 0x66C7C, symSize: 0xE0 }
  - { offset: 0xEB08B, size: 0x8, addend: 0x0, symName: __RNvXs_NtNtNtCsfvfooZQ3Axs_4core4iter8adapters9enumerateINtB4_9EnumerateINtNtNtBa_5slice4iter4IterTNtNtCs6IAuOt8vWmF_3syn2ty9BareFnArgNtNtB1C_5token5CommaEEENtNtNtB8_6traits8iterator8Iterator4nextB1C_, symObjAddr: 0x3124, symBinAddr: 0x66D5C, symSize: 0xE0 }
  - { offset: 0xEB165, size: 0x8, addend: 0x0, symName: __RNvXs_NtNtNtCsfvfooZQ3Axs_4core4iter8adapters9enumerateINtB4_9EnumerateINtNtNtBa_5slice4iter4IterTNtNtCs6IAuOt8vWmF_3syn3pat3PatNtNtB1C_5token2OrEEENtNtNtB8_6traits8iterator8Iterator4nextB1C_, symObjAddr: 0x3204, symBinAddr: 0x66E3C, symSize: 0xE0 }
  - { offset: 0xEB23F, size: 0x8, addend: 0x0, symName: __RNvXs_NtNtNtCsfvfooZQ3Axs_4core4iter8adapters9enumerateINtB4_9EnumerateINtNtNtBa_5slice4iter4IterTNtNtCs6IAuOt8vWmF_3syn3pat3PatNtNtB1C_5token5CommaEEENtNtNtB8_6traits8iterator8Iterator4nextB1C_, symObjAddr: 0x32E4, symBinAddr: 0x66F1C, symSize: 0xE0 }
  - { offset: 0xEB319, size: 0x8, addend: 0x0, symName: __RNvXs_NtNtNtCsfvfooZQ3Axs_4core4iter8adapters9enumerateINtB4_9EnumerateINtNtNtBa_5slice4iter4IterTNtNtCs6IAuOt8vWmF_3syn3pat8FieldPatNtNtB1C_5token5CommaEEENtNtNtB8_6traits8iterator8Iterator4nextB1C_, symObjAddr: 0x33C4, symBinAddr: 0x66FFC, symSize: 0xE0 }
  - { offset: 0xEB3F3, size: 0x8, addend: 0x0, symName: __RNvXs_NtNtNtCsfvfooZQ3Axs_4core4iter8adapters9enumerateINtB4_9EnumerateINtNtNtBa_5slice4iter4IterTNtNtCs6IAuOt8vWmF_3syn4data5FieldNtNtB1C_5token5CommaEEENtNtNtB8_6traits8iterator8Iterator4nextB1C_, symObjAddr: 0x34A4, symBinAddr: 0x670DC, symSize: 0xE0 }
  - { offset: 0xEB4CD, size: 0x8, addend: 0x0, symName: __RNvXs_NtNtNtCsfvfooZQ3Axs_4core4iter8adapters9enumerateINtB4_9EnumerateINtNtNtBa_5slice4iter4IterTNtNtCs6IAuOt8vWmF_3syn4data7VariantNtNtB1C_5token5CommaEEENtNtNtB8_6traits8iterator8Iterator4nextB1C_, symObjAddr: 0x3584, symBinAddr: 0x671BC, symSize: 0xE0 }
  - { offset: 0xEB5A7, size: 0x8, addend: 0x0, symName: __RNvXs_NtNtNtCsfvfooZQ3Axs_4core4iter8adapters9enumerateINtB4_9EnumerateINtNtNtBa_5slice4iter4IterTNtNtCs6IAuOt8vWmF_3syn4expr10FieldValueNtNtB1C_5token5CommaEEENtNtNtB8_6traits8iterator8Iterator4nextB1C_, symObjAddr: 0x3664, symBinAddr: 0x6729C, symSize: 0xE0 }
  - { offset: 0xEB681, size: 0x8, addend: 0x0, symName: __RNvXs_NtNtNtCsfvfooZQ3Axs_4core4iter8adapters9enumerateINtB4_9EnumerateINtNtNtBa_5slice4iter4IterTNtNtCs6IAuOt8vWmF_3syn4expr4ExprNtNtB1C_5token5CommaEEENtNtNtB8_6traits8iterator8Iterator4nextB1C_, symObjAddr: 0x3744, symBinAddr: 0x6737C, symSize: 0xE0 }
  - { offset: 0xEB75B, size: 0x8, addend: 0x0, symName: __RNvXs_NtNtNtCsfvfooZQ3Axs_4core4iter8adapters9enumerateINtB4_9EnumerateINtNtNtBa_5slice4iter4IterTNtNtCs6IAuOt8vWmF_3syn4item5FnArgNtNtB1C_5token5CommaEEENtNtNtB8_6traits8iterator8Iterator4nextB1C_, symObjAddr: 0x3824, symBinAddr: 0x6745C, symSize: 0xE0 }
  - { offset: 0xEB835, size: 0x8, addend: 0x0, symName: __RNvXs_NtNtNtCsfvfooZQ3Axs_4core4iter8adapters9enumerateINtB4_9EnumerateINtNtNtBa_5slice4iter4IterTNtNtCs6IAuOt8vWmF_3syn4item7UseTreeNtNtB1C_5token5CommaEEENtNtNtB8_6traits8iterator8Iterator4nextB1C_, symObjAddr: 0x3904, symBinAddr: 0x6753C, symSize: 0xE0 }
  - { offset: 0xEB90F, size: 0x8, addend: 0x0, symName: __RNvXs_NtNtNtCsfvfooZQ3Axs_4core4iter8adapters9enumerateINtB4_9EnumerateINtNtNtBa_5slice4iter4IterTNtNtCs6IAuOt8vWmF_3syn4path11PathSegmentNtNtB1C_5token7PathSepEEENtNtNtB8_6traits8iterator8Iterator4nextB1C_, symObjAddr: 0x39E4, symBinAddr: 0x6761C, symSize: 0xE0 }
  - { offset: 0xEB9E9, size: 0x8, addend: 0x0, symName: __RNvXs_NtNtNtCsfvfooZQ3Axs_4core4iter8adapters9enumerateINtB4_9EnumerateINtNtNtBa_5slice4iter4IterTNtNtCs6IAuOt8vWmF_3syn4path15GenericArgumentNtNtB1C_5token5CommaEEENtNtNtB8_6traits8iterator8Iterator4nextB1C_, symObjAddr: 0x3AC4, symBinAddr: 0x676FC, symSize: 0xE0 }
  - { offset: 0xEBAC3, size: 0x8, addend: 0x0, symName: __RNvXs_NtNtNtCsfvfooZQ3Axs_4core4iter8adapters9enumerateINtB4_9EnumerateINtNtNtBa_5slice4iter4IterTNtNtCs6IAuOt8vWmF_3syn8generics12GenericParamNtNtB1C_5token5CommaEEENtNtNtB8_6traits8iterator8Iterator4nextB1C_, symObjAddr: 0x3BA4, symBinAddr: 0x677DC, symSize: 0xE0 }
  - { offset: 0xEBB9D, size: 0x8, addend: 0x0, symName: __RNvXs_NtNtNtCsfvfooZQ3Axs_4core4iter8adapters9enumerateINtB4_9EnumerateINtNtNtBa_5slice4iter4IterTNtNtCs6IAuOt8vWmF_3syn8generics13CapturedParamNtNtB1C_5token5CommaEEENtNtNtB8_6traits8iterator8Iterator4nextB1C_, symObjAddr: 0x3C84, symBinAddr: 0x678BC, symSize: 0xE0 }
  - { offset: 0xEBC77, size: 0x8, addend: 0x0, symName: __RNvXs_NtNtNtCsfvfooZQ3Axs_4core4iter8adapters9enumerateINtB4_9EnumerateINtNtNtBa_5slice4iter4IterTNtNtCs6IAuOt8vWmF_3syn8generics14TypeParamBoundNtNtB1C_5token4PlusEEENtNtNtB8_6traits8iterator8Iterator4nextB1C_, symObjAddr: 0x3D64, symBinAddr: 0x6799C, symSize: 0xE0 }
  - { offset: 0xEBD51, size: 0x8, addend: 0x0, symName: __RNvXs_NtNtNtCsfvfooZQ3Axs_4core4iter8adapters9enumerateINtB4_9EnumerateINtNtNtBa_5slice4iter4IterTNtNtCs6IAuOt8vWmF_3syn8generics14WherePredicateNtNtB1C_5token5CommaEEENtNtNtB8_6traits8iterator8Iterator4nextB1C_, symObjAddr: 0x3E44, symBinAddr: 0x67A7C, symSize: 0xE0 }
  - { offset: 0xEBE2B, size: 0x8, addend: 0x0, symName: __RNvXs_NtNtNtCsfvfooZQ3Axs_4core4iter8adapters9enumerateINtB4_9EnumerateINtNtNtBa_5slice4iter4IterTNtNtCs6IAuOt8vWmF_3syn8lifetime8LifetimeNtNtB1C_5token4PlusEEENtNtNtB8_6traits8iterator8Iterator4nextB1C_, symObjAddr: 0x3F24, symBinAddr: 0x67B5C, symSize: 0xE0 }
  - { offset: 0xEBF05, size: 0x8, addend: 0x0, symName: __RNvXs_NtNtNtCsfvfooZQ3Axs_4core4iter8adapters9enumerateINtB4_9EnumerateNtNtNtBa_3str4iter5CharsENtNtNtB8_6traits8iterator8Iterator4nextCs6IAuOt8vWmF_3syn, symObjAddr: 0x4004, symBinAddr: 0x67C3C, symSize: 0xE4 }
  - { offset: 0xEC4C3, size: 0x8, addend: 0x0, symName: __RNvMNtCsfvfooZQ3Axs_4core5sliceSNtCs3cP53eQoTwO_11proc_macro24Span4iterCs6IAuOt8vWmF_3syn, symObjAddr: 0x1848, symBinAddr: 0x65C70, symSize: 0x28 }
  - { offset: 0xEC4FA, size: 0x8, addend: 0x0, symName: __RNvMNtCsfvfooZQ3Axs_4core5sliceSNtCs3cP53eQoTwO_11proc_macro24Span4lastCs6IAuOt8vWmF_3syn, symObjAddr: 0x1870, symBinAddr: 0x65C98, symSize: 0x50 }
  - { offset: 0xECBF7, size: 0x8, addend: 0x0, symName: __RNvXNtNtCsfvfooZQ3Axs_4core5clone6uninitNtNtCs6IAuOt8vWmF_3syn3lit10LitIntReprNtB2_8CopySpec9clone_oneBG_, symObjAddr: 0x1E1C, symBinAddr: 0x6604C, symSize: 0x48 }
  - { offset: 0xECC5B, size: 0x8, addend: 0x0, symName: __RNvXNtNtCsfvfooZQ3Axs_4core5clone6uninitNtNtCs6IAuOt8vWmF_3syn3lit12LitFloatReprNtB2_8CopySpec9clone_oneBG_, symObjAddr: 0x1E64, symBinAddr: 0x66094, symSize: 0x48 }
  - { offset: 0xECCBF, size: 0x8, addend: 0x0, symName: __RNvXNtNtCsfvfooZQ3Axs_4core5clone6uninitNtNtCs6IAuOt8vWmF_3syn3lit7LitReprNtB2_8CopySpec9clone_oneBG_, symObjAddr: 0x1EAC, symBinAddr: 0x660DC, symSize: 0x48 }
  - { offset: 0xECD30, size: 0x8, addend: 0x0, symName: __RNvXs0_NtCsfvfooZQ3Axs_4core6borrowReINtB5_6BorroweE6borrowCs6IAuOt8vWmF_3syn, symObjAddr: 0x1F54, symBinAddr: 0x6616C, symSize: 0x20 }
  - { offset: 0xECD9E, size: 0x8, addend: 0x0, symName: __RNvXs1_NtCsfvfooZQ3Axs_4core7convertNtCs3cP53eQoTwO_11proc_macro25IdentINtB5_4IntoBy_E4intoCs6IAuOt8vWmF_3syn, symObjAddr: 0x2004, symBinAddr: 0x6618C, symSize: 0x18 }
  - { offset: 0xECDFC, size: 0x8, addend: 0x0, symName: __RNvXs1_NtCsfvfooZQ3Axs_4core7convertNtCs3cP53eQoTwO_11proc_macro25IdentINtB5_4IntoNtNtCs6IAuOt8vWmF_3syn4path11PathSegmentE4intoB1m_, symObjAddr: 0x201C, symBinAddr: 0x661A4, symSize: 0x14 }
  - { offset: 0xECE58, size: 0x8, addend: 0x0, symName: __RNvXs7_NtNtCsfvfooZQ3Axs_4core3cmp5implsRNtCs3cP53eQoTwO_11proc_macro25IdentINtB7_9PartialEqReE2eqCs6IAuOt8vWmF_3syn, symObjAddr: 0x221C, symBinAddr: 0x66248, symSize: 0x3C }
  - { offset: 0xECEAE, size: 0x8, addend: 0x0, symName: __RNvYNtCs3cP53eQoTwO_11proc_macro27SpacingNtNtCsfvfooZQ3Axs_4core3cmp9PartialEq2neCs6IAuOt8vWmF_3syn, symObjAddr: 0x443C, symBinAddr: 0x68074, symSize: 0x30 }
  - { offset: 0xED180, size: 0x8, addend: 0x0, symName: __RNvXsw_NtCse1nGBsou5OW_5alloc6stringNtCs3cP53eQoTwO_11proc_macro27LiteralNtB5_8ToString9to_stringCs6IAuOt8vWmF_3syn, symObjAddr: 0x416C, symBinAddr: 0x67DA4, symSize: 0x24 }
  - { offset: 0xED1B7, size: 0x8, addend: 0x0, symName: __RNvXsw_NtCse1nGBsou5OW_5alloc6stringNtCs3cP53eQoTwO_11proc_macro28LexErrorNtB5_8ToString9to_stringCs6IAuOt8vWmF_3syn, symObjAddr: 0x4190, symBinAddr: 0x67DC8, symSize: 0x24 }
  - { offset: 0xED1F4, size: 0x8, addend: 0x0, symName: __RNvXsx_NtCse1nGBsou5OW_5alloc6stringNtCs3cP53eQoTwO_11proc_macro27LiteralNtB5_12SpecToString14spec_to_stringCs6IAuOt8vWmF_3syn, symObjAddr: 0x41B4, symBinAddr: 0x67DEC, symSize: 0x144 }
  - { offset: 0xED2BF, size: 0x8, addend: 0x0, symName: __RNvXsx_NtCse1nGBsou5OW_5alloc6stringNtCs3cP53eQoTwO_11proc_macro28LexErrorNtB5_12SpecToString14spec_to_stringCs6IAuOt8vWmF_3syn, symObjAddr: 0x42F8, symBinAddr: 0x67F30, symSize: 0x144 }
  - { offset: 0xEE124, size: 0x8, addend: 0x0, symName: __RINvMNtCse1nGBsou5OW_5alloc5sliceSRe4joinBw_ECs6IAuOt8vWmF_3syn, symObjAddr: 0x0, symBinAddr: 0x64820, symSize: 0x34 }
  - { offset: 0xF23F6, size: 0x8, addend: 0x0, symName: __RNvXsa_NtCs6IAuOt8vWmF_3syn3litNtB5_7LitReprNtNtCsfvfooZQ3Axs_4core5clone5Clone5clone, symObjAddr: 0x8A68, symBinAddr: 0x69644, symSize: 0xA0 }
  - { offset: 0xF242A, size: 0x8, addend: 0x0, symName: __RNvXsb_NtCs6IAuOt8vWmF_3syn3litNtB5_10LitIntReprNtNtCsfvfooZQ3Axs_4core5clone5Clone5clone, symObjAddr: 0x8B08, symBinAddr: 0x696E4, symSize: 0xF4 }
  - { offset: 0xF245E, size: 0x8, addend: 0x0, symName: __RNvXsc_NtCs6IAuOt8vWmF_3syn3litNtB5_12LitFloatReprNtNtCsfvfooZQ3Axs_4core5clone5Clone5clone, symObjAddr: 0x8BFC, symBinAddr: 0x697D8, symSize: 0xF4 }
