---
triple:          'arm64-apple-darwin'
binary-path:     '/Users/cedric/orange/ran-llm-claude-flow/src/rust-pipeline/target/debug/deps/libsnafu_derive-533afa5d41ef3f46.dylib'
relocations:
  - { offset: 0x1E, size: 0x8, addend: 0x0, symName: __RINvMNtNtNtCse1nGBsou5OW_5alloc11collections5btree4nodeINtB3_8LeafNodeNtCs3cP53eQoTwO_11proc_macro25IdentNtNtB5_7set_val9SetValZSTE3newNtNtB9_5alloc6GlobalECsf44oge9wsd6_12snafu_derive, symObjAddr: 0x0, symBinAddr: 0xC50, symSize: 0x68 }
  - { offset: 0x7964, size: 0x8, addend: 0x0, symName: __RNCINvMss_NtNtNtCse1nGBsou5OW_5alloc11collections5btree4nodeINtB8_7NodeRefNtNtB8_6marker5OwnedNtCs3cP53eQoTwO_11proc_macro25IdentNtNtBa_7set_val9SetValZSTNtB1c_14LeafOrInternalE19push_internal_levelNtNtBe_5alloc6GlobalE0Csf44oge9wsd6_12snafu_derive, symObjAddr: 0x4194, symBinAddr: 0x4DE4, symSize: 0x34 }
  - { offset: 0x79BD, size: 0x8, addend: 0x0, symName: __RNCINvMss_NtNtNtCse1nGBsou5OW_5alloc11collections5btree4nodeINtB8_7NodeRefNtNtB8_6marker5OwnedRNtCs3cP53eQoTwO_11proc_macro25IdentNtNtBa_7set_val9SetValZSTNtB1c_14LeafOrInternalE19push_internal_levelNtNtBe_5alloc6GlobalE0Csf44oge9wsd6_12snafu_derive, symObjAddr: 0x41C8, symBinAddr: 0x4E18, symSize: 0x34 }
  - { offset: 0xAD11, size: 0x8, addend: 0x0, symName: __RINvNtNtNtCse1nGBsou5OW_5alloc11collections5btree4node12slice_insertINtNtNtCsfvfooZQ3Axs_4core3ptr8non_null7NonNullINtB2_8LeafNodeNtCs3cP53eQoTwO_11proc_macro25IdentNtNtB4_7set_val9SetValZSTEEECsf44oge9wsd6_12snafu_derive, symObjAddr: 0x391C, symBinAddr: 0x456C, symSize: 0x114 }
  - { offset: 0xAE95, size: 0x8, addend: 0x0, symName: __RINvNtNtNtCse1nGBsou5OW_5alloc11collections5btree4node12slice_insertNtCs3cP53eQoTwO_11proc_macro25IdentECsf44oge9wsd6_12snafu_derive, symObjAddr: 0x3A30, symBinAddr: 0x4680, symSize: 0x150 }
  - { offset: 0xB01C, size: 0x8, addend: 0x0, symName: __RINvNtNtNtCse1nGBsou5OW_5alloc11collections5btree4node12slice_insertNtNtB4_7set_val9SetValZSTECsf44oge9wsd6_12snafu_derive, symObjAddr: 0x3B80, symBinAddr: 0x47D0, symSize: 0xD0 }
  - { offset: 0xB131, size: 0x8, addend: 0x0, symName: __RINvNtNtNtCse1nGBsou5OW_5alloc11collections5btree4node13move_to_sliceINtNtNtCsfvfooZQ3Axs_4core3ptr8non_null7NonNullINtB2_8LeafNodeNtCs3cP53eQoTwO_11proc_macro25IdentNtNtB4_7set_val9SetValZSTEEECsf44oge9wsd6_12snafu_derive, symObjAddr: 0x3C50, symBinAddr: 0x48A0, symSize: 0xA8 }
  - { offset: 0xB1DD, size: 0x8, addend: 0x0, symName: __RINvNtNtNtCse1nGBsou5OW_5alloc11collections5btree4node13move_to_sliceINtNtNtCsfvfooZQ3Axs_4core3ptr8non_null7NonNullINtB2_8LeafNodeRNtCs3cP53eQoTwO_11proc_macro25IdentNtNtB4_7set_val9SetValZSTEEECsf44oge9wsd6_12snafu_derive, symObjAddr: 0x3CF8, symBinAddr: 0x4948, symSize: 0xA8 }
  - { offset: 0xB289, size: 0x8, addend: 0x0, symName: __RINvNtNtNtCse1nGBsou5OW_5alloc11collections5btree4node13move_to_sliceNtCs3cP53eQoTwO_11proc_macro25IdentECsf44oge9wsd6_12snafu_derive, symObjAddr: 0x3DA0, symBinAddr: 0x49F0, symSize: 0xB0 }
  - { offset: 0xB335, size: 0x8, addend: 0x0, symName: __RINvNtNtNtCse1nGBsou5OW_5alloc11collections5btree4node13move_to_sliceNtNtB4_7set_val9SetValZSTECsf44oge9wsd6_12snafu_derive, symObjAddr: 0x3E50, symBinAddr: 0x4AA0, symSize: 0xAC }
  - { offset: 0xB3E1, size: 0x8, addend: 0x0, symName: __RINvNtNtNtCse1nGBsou5OW_5alloc11collections5btree4node13move_to_sliceRNtCs3cP53eQoTwO_11proc_macro25IdentECsf44oge9wsd6_12snafu_derive, symObjAddr: 0x3EFC, symBinAddr: 0x4B4C, symSize: 0xA8 }
  - { offset: 0xB48D, size: 0x8, addend: 0x0, symName: __RINvNtNtNtCse1nGBsou5OW_5alloc11collections5btree4node9slice_shrINtNtNtCsfvfooZQ3Axs_4core3ptr8non_null7NonNullINtB2_8LeafNodeRNtCs3cP53eQoTwO_11proc_macro25IdentNtNtB4_7set_val9SetValZSTEEECsf44oge9wsd6_12snafu_derive, symObjAddr: 0x3FA4, symBinAddr: 0x4BF4, symSize: 0xAC }
  - { offset: 0xB54F, size: 0x8, addend: 0x0, symName: __RINvNtNtNtCse1nGBsou5OW_5alloc11collections5btree4node9slice_shrNtNtB4_7set_val9SetValZSTECsf44oge9wsd6_12snafu_derive, symObjAddr: 0x4050, symBinAddr: 0x4CA0, symSize: 0x98 }
  - { offset: 0xB621, size: 0x8, addend: 0x0, symName: __RINvNtNtNtCse1nGBsou5OW_5alloc11collections5btree4node9slice_shrRNtCs3cP53eQoTwO_11proc_macro25IdentECsf44oge9wsd6_12snafu_derive, symObjAddr: 0x40E8, symBinAddr: 0x4D38, symSize: 0xAC }
  - { offset: 0xC9E5, size: 0x8, addend: 0x0, symName: __RNvXNvMsT_NtNtNtCse1nGBsou5OW_5alloc11collections5btree4nodeINtB8_6HandleINtB8_7NodeRefNtNtB8_6marker5DyingpppENtB1p_2KVE12drop_key_valINtB2_7DropperNtNtBa_7set_val9SetValZSTENtNtNtCsfvfooZQ3Axs_4core3ops4drop4Drop4dropCsf44oge9wsd6_12snafu_derive, symObjAddr: 0x8860, symBinAddr: 0x94B0, symSize: 0x1C }
  - { offset: 0xDC3E, size: 0x8, addend: 0x0, symName: __RINvMNtNtNtCse1nGBsou5OW_5alloc11collections5btree4nodeINtB3_8LeafNodeNtCs3cP53eQoTwO_11proc_macro25IdentNtNtB5_7set_val9SetValZSTE3newNtNtB9_5alloc6GlobalECsf44oge9wsd6_12snafu_derive, symObjAddr: 0x0, symBinAddr: 0xC50, symSize: 0x68 }
  - { offset: 0xDF04, size: 0x8, addend: 0x0, symName: __RINvMNtNtNtCse1nGBsou5OW_5alloc11collections5btree4nodeINtB3_8LeafNodeRNtCs3cP53eQoTwO_11proc_macro25IdentNtNtB5_7set_val9SetValZSTE3newNtNtB9_5alloc6GlobalECsf44oge9wsd6_12snafu_derive, symObjAddr: 0x68, symBinAddr: 0xCB8, symSize: 0x68 }
  - { offset: 0xE4CE, size: 0x8, addend: 0x0, symName: __RINvMNtNtNtCse1nGBsou5OW_5alloc11collections5btree6appendINtNtB5_4node7NodeRefNtNtBW_6marker5OwnedRNtCs3cP53eQoTwO_11proc_macro25IdentNtNtB5_7set_val9SetValZSTNtB1g_14LeafOrInternalE9bulk_pushINtNtB5_17dedup_sorted_iter15DedupSortedIterB1y_B28_INtNtNtNtCsfvfooZQ3Axs_4core4iter8adapters3map3MapINtNtB3Z_6cloned6ClonedINtNtB5_3set10DifferenceB1y_EENCINvMse_B58_INtB58_8BTreeSetB1y_E16from_sorted_iterB4I_E0EENtNtB9_5alloc6GlobalECsf44oge9wsd6_12snafu_derive, symObjAddr: 0xD0, symBinAddr: 0xD20, symSize: 0x49C }
  - { offset: 0xEB64, size: 0x8, addend: 0x0, symName: __RINvMNtNtNtCse1nGBsou5OW_5alloc11collections5btree6appendINtNtB5_4node7NodeRefNtNtBW_6marker5OwnedRNtCs3cP53eQoTwO_11proc_macro25IdentNtNtB5_7set_val9SetValZSTNtB1g_14LeafOrInternalE9bulk_pushINtNtB5_17dedup_sorted_iter15DedupSortedIterB1y_B28_INtNtNtNtCsfvfooZQ3Axs_4core4iter8adapters3map3MapINtNtB3Z_6cloned6ClonedINtNtB5_3set12IntersectionB1y_EENCINvMse_B58_INtB58_8BTreeSetB1y_E16from_sorted_iterB4I_E0EENtNtB9_5alloc6GlobalECsf44oge9wsd6_12snafu_derive, symObjAddr: 0x56C, symBinAddr: 0x11BC, symSize: 0x49C }
  - { offset: 0xF207, size: 0x8, addend: 0x0, symName: __RINvMNtNtNtCse1nGBsou5OW_5alloc11collections5btree6appendINtNtB5_4node7NodeRefNtNtBW_6marker5OwnedRNtCs3cP53eQoTwO_11proc_macro25IdentNtNtB5_7set_val9SetValZSTNtB1g_14LeafOrInternalE9bulk_pushINtNtB5_17dedup_sorted_iter15DedupSortedIterB1y_B28_INtNtNtNtCsfvfooZQ3Axs_4core4iter8adapters3map3MapINtNtNtB9_3vec9into_iter8IntoIterB1y_ENCINvMse_NtB5_3setINtB5t_8BTreeSetB1y_E16from_sorted_iterB4I_E0EENtNtB9_5alloc6GlobalECsf44oge9wsd6_12snafu_derive, symObjAddr: 0xA08, symBinAddr: 0x1658, symSize: 0x4B8 }
  - { offset: 0xF764, size: 0x8, addend: 0x0, symName: __RINvMs0_NtNtNtCse1nGBsou5OW_5alloc11collections5btree6searchINtNtB8_4node7NodeRefNtNtBZ_6marker3MutNtCs3cP53eQoTwO_11proc_macro25IdentNtNtB8_7set_val9SetValZSTNtB1j_14LeafOrInternalE14find_key_indexB1z_ECsf44oge9wsd6_12snafu_derive, symObjAddr: 0xEC0, symBinAddr: 0x1B10, symSize: 0x1E4 }
  - { offset: 0xFC11, size: 0x8, addend: 0x0, symName: __RINvMs0_NtNtNtCse1nGBsou5OW_5alloc11collections5btree6searchINtNtB8_4node7NodeRefNtNtBZ_6marker5ImmutRNtCs3cP53eQoTwO_11proc_macro25IdentNtNtB8_7set_val9SetValZSTNtB1j_14LeafOrInternalE14find_key_indexB1B_ECsf44oge9wsd6_12snafu_derive, symObjAddr: 0x10A4, symBinAddr: 0x1CF4, symSize: 0x1D4 }
  - { offset: 0xFFB0, size: 0x8, addend: 0x0, symName: __RINvMs8_NtNtNtCse1nGBsou5OW_5alloc11collections5btree4nodeINtB6_7NodeRefNtNtB6_6marker5OwnedNtCs3cP53eQoTwO_11proc_macro25IdentNtNtB8_7set_val9SetValZSTNtB1a_4LeafE8new_leafNtNtBc_5alloc6GlobalECsf44oge9wsd6_12snafu_derive, symObjAddr: 0x1278, symBinAddr: 0x1EC8, symSize: 0x38 }
  - { offset: 0x1007F, size: 0x8, addend: 0x0, symName: __RINvMs8_NtNtNtCse1nGBsou5OW_5alloc11collections5btree4nodeINtB6_7NodeRefNtNtB6_6marker5OwnedRNtCs3cP53eQoTwO_11proc_macro25IdentNtNtB8_7set_val9SetValZSTNtB1a_4LeafE8new_leafNtNtBc_5alloc6GlobalECsf44oge9wsd6_12snafu_derive, symObjAddr: 0x12B0, symBinAddr: 0x1F00, symSize: 0x38 }
  - { offset: 0x10190, size: 0x8, addend: 0x0, symName: __RINvMs9_NtNtNtCse1nGBsou5OW_5alloc11collections5btree4nodeINtB6_7NodeRefNtNtB6_6marker5OwnedNtCs3cP53eQoTwO_11proc_macro25IdentNtNtB8_7set_val9SetValZSTNtB1a_8InternalE12new_internalNtNtBc_5alloc6GlobalECsf44oge9wsd6_12snafu_derive, symObjAddr: 0x12E8, symBinAddr: 0x1F38, symSize: 0x98 }
  - { offset: 0x103C3, size: 0x8, addend: 0x0, symName: __RINvMs9_NtNtNtCse1nGBsou5OW_5alloc11collections5btree4nodeINtB6_7NodeRefNtNtB6_6marker5OwnedNtCs3cP53eQoTwO_11proc_macro25IdentNtNtB8_7set_val9SetValZSTNtB1a_8InternalE17from_new_internalNtNtBc_5alloc6GlobalECsf44oge9wsd6_12snafu_derive, symObjAddr: 0x1380, symBinAddr: 0x1FD0, symSize: 0xC0 }
  - { offset: 0x105DC, size: 0x8, addend: 0x0, symName: __RINvMs9_NtNtNtCse1nGBsou5OW_5alloc11collections5btree4nodeINtB6_7NodeRefNtNtB6_6marker5OwnedRNtCs3cP53eQoTwO_11proc_macro25IdentNtNtB8_7set_val9SetValZSTNtB1a_8InternalE12new_internalNtNtBc_5alloc6GlobalECsf44oge9wsd6_12snafu_derive, symObjAddr: 0x1440, symBinAddr: 0x2090, symSize: 0x98 }
  - { offset: 0x10802, size: 0x8, addend: 0x0, symName: __RINvMs9_NtNtNtCse1nGBsou5OW_5alloc11collections5btree4nodeINtB6_7NodeRefNtNtB6_6marker5OwnedRNtCs3cP53eQoTwO_11proc_macro25IdentNtNtB8_7set_val9SetValZSTNtB1a_8InternalE17from_new_internalNtNtBc_5alloc6GlobalECsf44oge9wsd6_12snafu_derive, symObjAddr: 0x14D8, symBinAddr: 0x2128, symSize: 0xC0 }
  - { offset: 0x10C12, size: 0x8, addend: 0x0, symName: __RINvMsK_NtNtNtCse1nGBsou5OW_5alloc11collections5btree4nodeINtB6_6HandleINtB6_7NodeRefNtNtB6_6marker3MutNtCs3cP53eQoTwO_11proc_macro25IdentNtNtB8_7set_val9SetValZSTNtB1n_4LeafENtB1n_4EdgeE6insertNtNtBc_5alloc6GlobalECsf44oge9wsd6_12snafu_derive, symObjAddr: 0x1598, symBinAddr: 0x21E8, symSize: 0x508 }
  - { offset: 0x11024, size: 0x8, addend: 0x0, symName: __RINvMsM_NtNtNtCse1nGBsou5OW_5alloc11collections5btree4nodeINtB6_6HandleINtB6_7NodeRefNtNtB6_6marker3MutNtCs3cP53eQoTwO_11proc_macro25IdentNtNtB8_7set_val9SetValZSTNtB1n_8InternalENtB1n_4EdgeE6insertNtNtBc_5alloc6GlobalECsf44oge9wsd6_12snafu_derive, symObjAddr: 0x1AA0, symBinAddr: 0x26F0, symSize: 0x574 }
  - { offset: 0x112F7, size: 0x8, addend: 0x0, symName: __RINvMsN_NtNtNtCse1nGBsou5OW_5alloc11collections5btree4nodeINtB6_6HandleINtB6_7NodeRefNtNtB6_6marker3MutNtCs3cP53eQoTwO_11proc_macro25IdentNtNtB8_7set_val9SetValZSTNtB1n_4LeafENtB1n_4EdgeE16insert_recursingNtNtBc_5alloc6GlobalNCNvMs6_NtNtB8_3map5entryINtB3J_11VacantEntryB1D_B2c_E12insert_entry0ECsf44oge9wsd6_12snafu_derive, symObjAddr: 0x2014, symBinAddr: 0x2C64, symSize: 0x480 }
  - { offset: 0x115A3, size: 0x8, addend: 0x0, symName: __RINvMsV_NtNtNtCse1nGBsou5OW_5alloc11collections5btree4nodeINtB6_6HandleINtB6_7NodeRefNtNtB6_6marker3MutNtCs3cP53eQoTwO_11proc_macro25IdentNtNtB8_7set_val9SetValZSTNtB1n_4LeafENtB1n_2KVE5splitNtNtBc_5alloc6GlobalECsf44oge9wsd6_12snafu_derive, symObjAddr: 0x2494, symBinAddr: 0x30E4, symSize: 0xE0 }
  - { offset: 0x11800, size: 0x8, addend: 0x0, symName: __RINvMsW_NtNtNtCse1nGBsou5OW_5alloc11collections5btree4nodeINtB6_6HandleINtB6_7NodeRefNtNtB6_6marker3MutNtCs3cP53eQoTwO_11proc_macro25IdentNtNtB8_7set_val9SetValZSTNtB1n_8InternalENtB1n_2KVE5splitNtNtBc_5alloc6GlobalECsf44oge9wsd6_12snafu_derive, symObjAddr: 0x2574, symBinAddr: 0x31C4, symSize: 0x240 }
  - { offset: 0x11BA3, size: 0x8, addend: 0x0, symName: __RINvMs_NtNtNtCse1nGBsou5OW_5alloc11collections5btree4nodeINtB5_12InternalNodeNtCs3cP53eQoTwO_11proc_macro25IdentNtNtB7_7set_val9SetValZSTE3newNtNtBb_5alloc6GlobalECsf44oge9wsd6_12snafu_derive, symObjAddr: 0x27B4, symBinAddr: 0x3404, symSize: 0x68 }
  - { offset: 0x11DBB, size: 0x8, addend: 0x0, symName: __RINvMs_NtNtNtCse1nGBsou5OW_5alloc11collections5btree4nodeINtB5_12InternalNodeRNtCs3cP53eQoTwO_11proc_macro25IdentNtNtB7_7set_val9SetValZSTE3newNtNtBb_5alloc6GlobalECsf44oge9wsd6_12snafu_derive, symObjAddr: 0x281C, symBinAddr: 0x346C, symSize: 0x68 }
  - { offset: 0x120B2, size: 0x8, addend: 0x0, symName: __RINvMs_NtNtNtCse1nGBsou5OW_5alloc11collections5btree6searchINtNtB7_4node7NodeRefNtNtBY_6marker3MutNtCs3cP53eQoTwO_11proc_macro25IdentNtNtB7_7set_val9SetValZSTNtB1i_14LeafOrInternalE11search_treeB1y_ECsf44oge9wsd6_12snafu_derive, symObjAddr: 0x2884, symBinAddr: 0x34D4, symSize: 0x240 }
  - { offset: 0x12415, size: 0x8, addend: 0x0, symName: __RINvMs_NtNtNtCse1nGBsou5OW_5alloc11collections5btree6searchINtNtB7_4node7NodeRefNtNtBY_6marker5ImmutRNtCs3cP53eQoTwO_11proc_macro25IdentNtNtB7_7set_val9SetValZSTNtB1i_14LeafOrInternalE11search_treeB1A_ECsf44oge9wsd6_12snafu_derive, symObjAddr: 0x2AC4, symBinAddr: 0x3714, symSize: 0x240 }
  - { offset: 0x126E8, size: 0x8, addend: 0x0, symName: __RINvMsh_NtNtNtCse1nGBsou5OW_5alloc11collections5btree4nodeINtB6_7NodeRefNtNtB6_6marker5DyingNtCs3cP53eQoTwO_11proc_macro25IdentNtNtB8_7set_val9SetValZSTNtB1a_14LeafOrInternalE21deallocate_and_ascendNtNtBc_5alloc6GlobalECsf44oge9wsd6_12snafu_derive, symObjAddr: 0x2D04, symBinAddr: 0x3954, symSize: 0x178 }
  - { offset: 0x1295B, size: 0x8, addend: 0x0, symName: __RINvMsh_NtNtNtCse1nGBsou5OW_5alloc11collections5btree4nodeINtB6_7NodeRefNtNtB6_6marker5DyingRNtCs3cP53eQoTwO_11proc_macro25IdentNtNtB8_7set_val9SetValZSTNtB1a_14LeafOrInternalE21deallocate_and_ascendNtNtBc_5alloc6GlobalECsf44oge9wsd6_12snafu_derive, symObjAddr: 0x2E7C, symBinAddr: 0x3ACC, symSize: 0x178 }
  - { offset: 0x12BA1, size: 0x8, addend: 0x0, symName: __RINvMsj_NtNtNtCse1nGBsou5OW_5alloc11collections5btree8navigateINtNtB8_4node6HandleINtB11_7NodeRefNtNtB11_6marker5DyingNtCs3cP53eQoTwO_11proc_macro25IdentNtNtB8_7set_val9SetValZSTNtB1z_4LeafENtB1z_4EdgeE16deallocating_endNtNtBc_5alloc6GlobalECsf44oge9wsd6_12snafu_derive, symObjAddr: 0x2FF4, symBinAddr: 0x3C44, symSize: 0xD8 }
  - { offset: 0x12E15, size: 0x8, addend: 0x0, symName: __RINvMsj_NtNtNtCse1nGBsou5OW_5alloc11collections5btree8navigateINtNtB8_4node6HandleINtB11_7NodeRefNtNtB11_6marker5DyingNtCs3cP53eQoTwO_11proc_macro25IdentNtNtB8_7set_val9SetValZSTNtB1z_4LeafENtB1z_4EdgeE17deallocating_nextNtNtBc_5alloc6GlobalECsf44oge9wsd6_12snafu_derive, symObjAddr: 0x30CC, symBinAddr: 0x3D1C, symSize: 0x254 }
  - { offset: 0x13049, size: 0x8, addend: 0x0, symName: __RINvMsj_NtNtNtCse1nGBsou5OW_5alloc11collections5btree8navigateINtNtB8_4node6HandleINtB11_7NodeRefNtNtB11_6marker5DyingRNtCs3cP53eQoTwO_11proc_macro25IdentNtNtB8_7set_val9SetValZSTNtB1z_4LeafENtB1z_4EdgeE16deallocating_endNtNtBc_5alloc6GlobalECsf44oge9wsd6_12snafu_derive, symObjAddr: 0x3320, symBinAddr: 0x3F70, symSize: 0xD8 }
  - { offset: 0x132BD, size: 0x8, addend: 0x0, symName: __RINvMsj_NtNtNtCse1nGBsou5OW_5alloc11collections5btree8navigateINtNtB8_4node6HandleINtB11_7NodeRefNtNtB11_6marker5DyingRNtCs3cP53eQoTwO_11proc_macro25IdentNtNtB8_7set_val9SetValZSTNtB1z_4LeafENtB1z_4EdgeE17deallocating_nextNtNtBc_5alloc6GlobalECsf44oge9wsd6_12snafu_derive, symObjAddr: 0x33F8, symBinAddr: 0x4048, symSize: 0x254 }
  - { offset: 0x13508, size: 0x8, addend: 0x0, symName: __RINvMsp_NtNtNtCse1nGBsou5OW_5alloc11collections5btree4nodeINtB6_7NodeRefNtNtB6_6marker3MutNtCs3cP53eQoTwO_11proc_macro25IdentNtNtB8_7set_val9SetValZSTNtB1a_8InternalE30correct_childrens_parent_linksINtNtNtCsfvfooZQ3Axs_4core3ops5range14RangeInclusivejEECsf44oge9wsd6_12snafu_derive, symObjAddr: 0x364C, symBinAddr: 0x429C, symSize: 0xB4 }
  - { offset: 0x1363F, size: 0x8, addend: 0x0, symName: __RINvMsp_NtNtNtCse1nGBsou5OW_5alloc11collections5btree4nodeINtB6_7NodeRefNtNtB6_6marker3MutNtCs3cP53eQoTwO_11proc_macro25IdentNtNtB8_7set_val9SetValZSTNtB1a_8InternalE30correct_childrens_parent_linksINtNtNtCsfvfooZQ3Axs_4core3ops5range5RangejEECsf44oge9wsd6_12snafu_derive, symObjAddr: 0x3700, symBinAddr: 0x4350, symSize: 0xB4 }
  - { offset: 0x13775, size: 0x8, addend: 0x0, symName: __RINvMsp_NtNtNtCse1nGBsou5OW_5alloc11collections5btree4nodeINtB6_7NodeRefNtNtB6_6marker3MutRNtCs3cP53eQoTwO_11proc_macro25IdentNtNtB8_7set_val9SetValZSTNtB1a_8InternalE30correct_childrens_parent_linksINtNtNtCsfvfooZQ3Axs_4core3ops5range14RangeInclusivejEECsf44oge9wsd6_12snafu_derive, symObjAddr: 0x37B4, symBinAddr: 0x4404, symSize: 0xB4 }
  - { offset: 0x138AC, size: 0x8, addend: 0x0, symName: __RINvMsp_NtNtNtCse1nGBsou5OW_5alloc11collections5btree4nodeINtB6_7NodeRefNtNtB6_6marker3MutRNtCs3cP53eQoTwO_11proc_macro25IdentNtNtB8_7set_val9SetValZSTNtB1a_8InternalE30correct_childrens_parent_linksINtNtNtCsfvfooZQ3Axs_4core3ops5range5RangejEECsf44oge9wsd6_12snafu_derive, symObjAddr: 0x3868, symBinAddr: 0x44B8, symSize: 0xB4 }
  - { offset: 0x13CE6, size: 0x8, addend: 0x0, symName: __RNvMs0_NtNtNtCse1nGBsou5OW_5alloc11collections5btree3fixINtNtB7_4node7NodeRefNtNtBV_6marker5OwnedRNtCs3cP53eQoTwO_11proc_macro25IdentNtNtB7_7set_val9SetValZSTNtB1f_14LeafOrInternalE29fix_right_border_of_plentifulCsf44oge9wsd6_12snafu_derive, symObjAddr: 0x41FC, symBinAddr: 0x4E4C, symSize: 0x188 }
  - { offset: 0x14459, size: 0x8, addend: 0x0, symName: __RNvMs10_NtNtNtCse1nGBsou5OW_5alloc11collections5btree4nodeINtB6_16BalancingContextRNtCs3cP53eQoTwO_11proc_macro25IdentNtNtB8_7set_val9SetValZSTE15bulk_steal_leftCsf44oge9wsd6_12snafu_derive, symObjAddr: 0x4384, symBinAddr: 0x4FD4, symSize: 0x8E4 }
  - { offset: 0x159BD, size: 0x8, addend: 0x0, symName: __RNvMsJ_NtNtNtCse1nGBsou5OW_5alloc11collections5btree4nodeINtB5_6HandleINtB5_7NodeRefNtNtB5_6marker3MutNtCs3cP53eQoTwO_11proc_macro25IdentNtNtB7_7set_val9SetValZSTNtB1m_4LeafENtB1m_4EdgeE10insert_fitCsf44oge9wsd6_12snafu_derive, symObjAddr: 0x4C68, symBinAddr: 0x58B8, symSize: 0x1E4 }
  - { offset: 0x15E41, size: 0x8, addend: 0x0, symName: __RNvMsL_NtNtNtCse1nGBsou5OW_5alloc11collections5btree4nodeINtB5_6HandleINtB5_7NodeRefNtNtB5_6marker3MutNtCs3cP53eQoTwO_11proc_macro25IdentNtNtB7_7set_val9SetValZSTNtB1m_8InternalENtB1m_4EdgeE19correct_parent_linkCsf44oge9wsd6_12snafu_derive, symObjAddr: 0x4E4C, symBinAddr: 0x5A9C, symSize: 0xA4 }
  - { offset: 0x16062, size: 0x8, addend: 0x0, symName: __RNvMsL_NtNtNtCse1nGBsou5OW_5alloc11collections5btree4nodeINtB5_6HandleINtB5_7NodeRefNtNtB5_6marker3MutRNtCs3cP53eQoTwO_11proc_macro25IdentNtNtB7_7set_val9SetValZSTNtB1m_8InternalENtB1m_4EdgeE19correct_parent_linkCsf44oge9wsd6_12snafu_derive, symObjAddr: 0x4EF0, symBinAddr: 0x5B40, symSize: 0xA4 }
  - { offset: 0x163AE, size: 0x8, addend: 0x0, symName: __RNvMsM_NtNtNtCse1nGBsou5OW_5alloc11collections5btree4nodeINtB5_6HandleINtB5_7NodeRefNtNtB5_6marker3MutNtCs3cP53eQoTwO_11proc_macro25IdentNtNtB7_7set_val9SetValZSTNtB1m_8InternalENtB1m_4EdgeE10insert_fitCsf44oge9wsd6_12snafu_derive, symObjAddr: 0x4F94, symBinAddr: 0x5BE4, symSize: 0x27C }
  - { offset: 0x168F3, size: 0x8, addend: 0x0, symName: __RNvMsO_NtNtNtCse1nGBsou5OW_5alloc11collections5btree4nodeINtB5_6HandleINtB5_7NodeRefNtNtB5_6marker3MutNtCs3cP53eQoTwO_11proc_macro25IdentNtNtB7_7set_val9SetValZSTNtB1m_8InternalENtB1m_4EdgeE7descendCsf44oge9wsd6_12snafu_derive, symObjAddr: 0x5210, symBinAddr: 0x5E60, symSize: 0x94 }
  - { offset: 0x16B04, size: 0x8, addend: 0x0, symName: __RNvMsO_NtNtNtCse1nGBsou5OW_5alloc11collections5btree4nodeINtB5_6HandleINtB5_7NodeRefNtNtB5_6marker3MutRNtCs3cP53eQoTwO_11proc_macro25IdentNtNtB7_7set_val9SetValZSTNtB1m_8InternalENtB1m_4EdgeE7descendCsf44oge9wsd6_12snafu_derive, symObjAddr: 0x52A4, symBinAddr: 0x5EF4, symSize: 0x94 }
  - { offset: 0x16CEA, size: 0x8, addend: 0x0, symName: __RNvMsO_NtNtNtCse1nGBsou5OW_5alloc11collections5btree4nodeINtB5_6HandleINtB5_7NodeRefNtNtB5_6marker5DyingNtCs3cP53eQoTwO_11proc_macro25IdentNtNtB7_7set_val9SetValZSTNtB1m_8InternalENtB1m_4EdgeE7descendCsf44oge9wsd6_12snafu_derive, symObjAddr: 0x5338, symBinAddr: 0x5F88, symSize: 0x94 }
  - { offset: 0x16ED0, size: 0x8, addend: 0x0, symName: __RNvMsO_NtNtNtCse1nGBsou5OW_5alloc11collections5btree4nodeINtB5_6HandleINtB5_7NodeRefNtNtB5_6marker5DyingRNtCs3cP53eQoTwO_11proc_macro25IdentNtNtB7_7set_val9SetValZSTNtB1m_8InternalENtB1m_4EdgeE7descendCsf44oge9wsd6_12snafu_derive, symObjAddr: 0x53CC, symBinAddr: 0x601C, symSize: 0x94 }
  - { offset: 0x170B6, size: 0x8, addend: 0x0, symName: __RNvMsO_NtNtNtCse1nGBsou5OW_5alloc11collections5btree4nodeINtB5_6HandleINtB5_7NodeRefNtNtB5_6marker5ImmutNtCs3cP53eQoTwO_11proc_macro25IdentNtNtB7_7set_val9SetValZSTNtB1m_8InternalENtB1m_4EdgeE7descendCsf44oge9wsd6_12snafu_derive, symObjAddr: 0x5460, symBinAddr: 0x60B0, symSize: 0x94 }
  - { offset: 0x1729C, size: 0x8, addend: 0x0, symName: __RNvMsO_NtNtNtCse1nGBsou5OW_5alloc11collections5btree4nodeINtB5_6HandleINtB5_7NodeRefNtNtB5_6marker5ImmutRNtCs3cP53eQoTwO_11proc_macro25IdentNtNtB7_7set_val9SetValZSTNtB1m_8InternalENtB1m_4EdgeE7descendCsf44oge9wsd6_12snafu_derive, symObjAddr: 0x54F4, symBinAddr: 0x6144, symSize: 0x94 }
  - { offset: 0x17583, size: 0x8, addend: 0x0, symName: __RNvMsP_NtNtNtCse1nGBsou5OW_5alloc11collections5btree4nodeINtB5_6HandleINtB5_7NodeRefNtNtB5_6marker5ImmutNtCs3cP53eQoTwO_11proc_macro25IdentNtNtB7_7set_val9SetValZSTNtB1m_14LeafOrInternalENtB1m_2KVE7into_kvCsf44oge9wsd6_12snafu_derive, symObjAddr: 0x5588, symBinAddr: 0x61D8, symSize: 0xE0 }
  - { offset: 0x178E7, size: 0x8, addend: 0x0, symName: __RNvMsP_NtNtNtCse1nGBsou5OW_5alloc11collections5btree4nodeINtB5_6HandleINtB5_7NodeRefNtNtB5_6marker5ImmutRNtCs3cP53eQoTwO_11proc_macro25IdentNtNtB7_7set_val9SetValZSTNtB1m_14LeafOrInternalENtB1m_2KVE7into_kvCsf44oge9wsd6_12snafu_derive, symObjAddr: 0x5668, symBinAddr: 0x62B8, symSize: 0xD8 }
  - { offset: 0x17C17, size: 0x8, addend: 0x0, symName: __RNvMsP_NtNtNtCse1nGBsou5OW_5alloc11collections5btree4nodeINtB5_6HandleINtB5_7NodeRefNtNtB5_6marker5ImmutRNtCs3cP53eQoTwO_11proc_macro25IdentNtNtB7_7set_val9SetValZSTNtB1m_4LeafENtB1m_2KVE7into_kvCsf44oge9wsd6_12snafu_derive, symObjAddr: 0x5740, symBinAddr: 0x6390, symSize: 0xD8 }
  - { offset: 0x17ED7, size: 0x8, addend: 0x0, symName: __RNvMsQ_NtNtNtCse1nGBsou5OW_5alloc11collections5btree4nodeINtB5_6HandleINtB5_7NodeRefNtNtB5_6marker3MutNtCs3cP53eQoTwO_11proc_macro25IdentNtNtB7_7set_val9SetValZSTNtB1m_14LeafOrInternalENtB1m_2KVE12into_val_mutCsf44oge9wsd6_12snafu_derive, symObjAddr: 0x5818, symBinAddr: 0x6468, symSize: 0x80 }
  - { offset: 0x1805C, size: 0x8, addend: 0x0, symName: __RNvMsQ_NtNtNtCse1nGBsou5OW_5alloc11collections5btree4nodeINtB5_6HandleINtB5_7NodeRefNtNtB5_6marker3MutRNtCs3cP53eQoTwO_11proc_macro25IdentNtNtB7_7set_val9SetValZSTNtB1m_4LeafENtB1m_2KVE12into_val_mutCsf44oge9wsd6_12snafu_derive, symObjAddr: 0x5898, symBinAddr: 0x64E8, symSize: 0x80 }
  - { offset: 0x18243, size: 0x8, addend: 0x0, symName: __RNvMsS_NtNtNtCse1nGBsou5OW_5alloc11collections5btree4nodeINtB5_6HandleINtB5_7NodeRefNtNtB5_6marker3MutNtCs3cP53eQoTwO_11proc_macro25IdentNtNtB7_7set_val9SetValZSTNtB1m_14LeafOrInternalENtB1m_2KVE6kv_mutCsf44oge9wsd6_12snafu_derive, symObjAddr: 0x5918, symBinAddr: 0x6568, symSize: 0xEC }
  - { offset: 0x18449, size: 0x8, addend: 0x0, symName: __RNvMsS_NtNtNtCse1nGBsou5OW_5alloc11collections5btree4nodeINtB5_6HandleINtB5_7NodeRefNtNtB5_6marker3MutRNtCs3cP53eQoTwO_11proc_macro25IdentNtNtB7_7set_val9SetValZSTNtB1m_8InternalENtB1m_2KVE10replace_kvCsf44oge9wsd6_12snafu_derive, symObjAddr: 0x5A04, symBinAddr: 0x6654, symSize: 0x78 }
  - { offset: 0x18600, size: 0x8, addend: 0x0, symName: __RNvMsS_NtNtNtCse1nGBsou5OW_5alloc11collections5btree4nodeINtB5_6HandleINtB5_7NodeRefNtNtB5_6marker3MutRNtCs3cP53eQoTwO_11proc_macro25IdentNtNtB7_7set_val9SetValZSTNtB1m_8InternalENtB1m_2KVE6kv_mutCsf44oge9wsd6_12snafu_derive, symObjAddr: 0x5A7C, symBinAddr: 0x66CC, symSize: 0xE4 }
  - { offset: 0x188BB, size: 0x8, addend: 0x0, symName: __RNvMsT_NtNtNtCse1nGBsou5OW_5alloc11collections5btree4nodeINtB5_6HandleINtB5_7NodeRefNtNtB5_6marker5DyingNtCs3cP53eQoTwO_11proc_macro25IdentNtNtB7_7set_val9SetValZSTNtB1m_14LeafOrInternalENtB1m_2KVE12drop_key_valCsf44oge9wsd6_12snafu_derive, symObjAddr: 0x5B60, symBinAddr: 0x67B0, symSize: 0x118 }
  - { offset: 0x18B72, size: 0x8, addend: 0x0, symName: __RNvMsT_NtNtNtCse1nGBsou5OW_5alloc11collections5btree4nodeINtB5_6HandleINtB5_7NodeRefNtNtB5_6marker5DyingRNtCs3cP53eQoTwO_11proc_macro25IdentNtNtB7_7set_val9SetValZSTNtB1m_14LeafOrInternalENtB1m_2KVE12drop_key_valCsf44oge9wsd6_12snafu_derive, symObjAddr: 0x5C78, symBinAddr: 0x68C8, symSize: 0xE0 }
  - { offset: 0x18FEE, size: 0x8, addend: 0x0, symName: __RNvMsU_NtNtNtCse1nGBsou5OW_5alloc11collections5btree4nodeINtB5_6HandleINtB5_7NodeRefNtNtB5_6marker3MutNtCs3cP53eQoTwO_11proc_macro25IdentNtNtB7_7set_val9SetValZSTNtB1m_4LeafENtB1m_2KVE15split_leaf_dataCsf44oge9wsd6_12snafu_derive, symObjAddr: 0x5D58, symBinAddr: 0x69A8, symSize: 0x3B4 }
  - { offset: 0x199F4, size: 0x8, addend: 0x0, symName: __RNvMsU_NtNtNtCse1nGBsou5OW_5alloc11collections5btree4nodeINtB5_6HandleINtB5_7NodeRefNtNtB5_6marker3MutNtCs3cP53eQoTwO_11proc_macro25IdentNtNtB7_7set_val9SetValZSTNtB1m_8InternalENtB1m_2KVE15split_leaf_dataCsf44oge9wsd6_12snafu_derive, symObjAddr: 0x610C, symBinAddr: 0x6D5C, symSize: 0x3B4 }
  - { offset: 0x1A229, size: 0x8, addend: 0x0, symName: __RNvMsX_NtNtNtCse1nGBsou5OW_5alloc11collections5btree4nodeINtB5_6HandleINtB5_7NodeRefNtNtB5_6marker3MutRNtCs3cP53eQoTwO_11proc_macro25IdentNtNtB7_7set_val9SetValZSTNtB1m_8InternalENtB1m_2KVE22consider_for_balancingCsf44oge9wsd6_12snafu_derive, symObjAddr: 0x64C0, symBinAddr: 0x7110, symSize: 0xE4 }
  - { offset: 0x1A468, size: 0x8, addend: 0x0, symName: __RNvMse_NtNtNtCse1nGBsou5OW_5alloc11collections5btree4nodeINtB5_7NodeRefNtNtB5_6marker3MutNtCs3cP53eQoTwO_11proc_macro25IdentNtNtB7_7set_val9SetValZSTNtB19_14LeafOrInternalE6ascendCsf44oge9wsd6_12snafu_derive, symObjAddr: 0x65A4, symBinAddr: 0x71F4, symSize: 0x168 }
  - { offset: 0x1A6D3, size: 0x8, addend: 0x0, symName: __RNvMse_NtNtNtCse1nGBsou5OW_5alloc11collections5btree4nodeINtB5_7NodeRefNtNtB5_6marker3MutRNtCs3cP53eQoTwO_11proc_macro25IdentNtNtB7_7set_val9SetValZSTNtB19_14LeafOrInternalE6ascendCsf44oge9wsd6_12snafu_derive, symObjAddr: 0x670C, symBinAddr: 0x735C, symSize: 0x168 }
  - { offset: 0x1A917, size: 0x8, addend: 0x0, symName: __RNvMse_NtNtNtCse1nGBsou5OW_5alloc11collections5btree4nodeINtB5_7NodeRefNtNtB5_6marker5DyingNtCs3cP53eQoTwO_11proc_macro25IdentNtNtB7_7set_val9SetValZSTNtB19_14LeafOrInternalE6ascendCsf44oge9wsd6_12snafu_derive, symObjAddr: 0x6874, symBinAddr: 0x74C4, symSize: 0x168 }
  - { offset: 0x1AB5B, size: 0x8, addend: 0x0, symName: __RNvMse_NtNtNtCse1nGBsou5OW_5alloc11collections5btree4nodeINtB5_7NodeRefNtNtB5_6marker5DyingRNtCs3cP53eQoTwO_11proc_macro25IdentNtNtB7_7set_val9SetValZSTNtB19_14LeafOrInternalE6ascendCsf44oge9wsd6_12snafu_derive, symObjAddr: 0x69DC, symBinAddr: 0x762C, symSize: 0x168 }
  - { offset: 0x1AD9F, size: 0x8, addend: 0x0, symName: __RNvMse_NtNtNtCse1nGBsou5OW_5alloc11collections5btree4nodeINtB5_7NodeRefNtNtB5_6marker5ImmutNtCs3cP53eQoTwO_11proc_macro25IdentNtNtB7_7set_val9SetValZSTNtB19_14LeafOrInternalE6ascendCsf44oge9wsd6_12snafu_derive, symObjAddr: 0x6B44, symBinAddr: 0x7794, symSize: 0x168 }
  - { offset: 0x1AFE3, size: 0x8, addend: 0x0, symName: __RNvMse_NtNtNtCse1nGBsou5OW_5alloc11collections5btree4nodeINtB5_7NodeRefNtNtB5_6marker5ImmutRNtCs3cP53eQoTwO_11proc_macro25IdentNtNtB7_7set_val9SetValZSTNtB19_14LeafOrInternalE6ascendCsf44oge9wsd6_12snafu_derive, symObjAddr: 0x6CAC, symBinAddr: 0x78FC, symSize: 0x168 }
  - { offset: 0x1B1C3, size: 0x8, addend: 0x0, symName: __RNvMsg_NtNtNtCse1nGBsou5OW_5alloc11collections5btree4nodeINtB5_7NodeRefNtNtB5_6marker5ImmutNtCs3cP53eQoTwO_11proc_macro25IdentNtNtB7_7set_val9SetValZSTNtB19_14LeafOrInternalE4keysCsf44oge9wsd6_12snafu_derive, symObjAddr: 0x6E14, symBinAddr: 0x7A64, symSize: 0xA0 }
  - { offset: 0x1B3A0, size: 0x8, addend: 0x0, symName: __RNvMsg_NtNtNtCse1nGBsou5OW_5alloc11collections5btree4nodeINtB5_7NodeRefNtNtB5_6marker5ImmutRNtCs3cP53eQoTwO_11proc_macro25IdentNtNtB7_7set_val9SetValZSTNtB19_14LeafOrInternalE4keysCsf44oge9wsd6_12snafu_derive, symObjAddr: 0x6EB4, symBinAddr: 0x7B04, symSize: 0xA0 }
  - { offset: 0x1B666, size: 0x8, addend: 0x0, symName: __RNvMsh_NtNtNtCse1nGBsou5OW_5alloc11collections5btree8navigateINtNtB7_4node6HandleINtB10_7NodeRefNtNtB10_6marker5ImmutNtCs3cP53eQoTwO_11proc_macro25IdentNtNtB7_7set_val9SetValZSTNtB1y_4LeafENtB1y_4EdgeE7next_kvCsf44oge9wsd6_12snafu_derive, symObjAddr: 0x6F54, symBinAddr: 0x7BA4, symSize: 0x194 }
  - { offset: 0x1B945, size: 0x8, addend: 0x0, symName: __RNvMsh_NtNtNtCse1nGBsou5OW_5alloc11collections5btree8navigateINtNtB7_4node6HandleINtB10_7NodeRefNtNtB10_6marker5ImmutRNtCs3cP53eQoTwO_11proc_macro25IdentNtNtB7_7set_val9SetValZSTNtB1y_4LeafENtB1y_4EdgeE12next_back_kvCsf44oge9wsd6_12snafu_derive, symObjAddr: 0x70E8, symBinAddr: 0x7D38, symSize: 0x188 }
  - { offset: 0x1BC54, size: 0x8, addend: 0x0, symName: __RNvMsh_NtNtNtCse1nGBsou5OW_5alloc11collections5btree8navigateINtNtB7_4node6HandleINtB10_7NodeRefNtNtB10_6marker5ImmutRNtCs3cP53eQoTwO_11proc_macro25IdentNtNtB7_7set_val9SetValZSTNtB1y_4LeafENtB1y_4EdgeE7next_kvCsf44oge9wsd6_12snafu_derive, symObjAddr: 0x7270, symBinAddr: 0x7EC0, symSize: 0x194 }
  - { offset: 0x1BF79, size: 0x8, addend: 0x0, symName: __RNvMsn_NtNtNtCse1nGBsou5OW_5alloc11collections5btree8navigateINtNtB7_4node7NodeRefNtNtB10_6marker3MutRNtCs3cP53eQoTwO_11proc_macro25IdentNtNtB7_7set_val9SetValZSTNtB1k_14LeafOrInternalE14last_leaf_edgeCsf44oge9wsd6_12snafu_derive, symObjAddr: 0x7404, symBinAddr: 0x8054, symSize: 0xEC }
  - { offset: 0x1C208, size: 0x8, addend: 0x0, symName: __RNvMsn_NtNtNtCse1nGBsou5OW_5alloc11collections5btree8navigateINtNtB7_4node7NodeRefNtNtB10_6marker5ImmutRNtCs3cP53eQoTwO_11proc_macro25IdentNtNtB7_7set_val9SetValZSTNtB1k_14LeafOrInternalE14last_leaf_edgeCsf44oge9wsd6_12snafu_derive, symObjAddr: 0x74F0, symBinAddr: 0x8140, symSize: 0xEC }
  - { offset: 0x1C562, size: 0x8, addend: 0x0, symName: __RNvMsp_NtNtNtCse1nGBsou5OW_5alloc11collections5btree8navigateINtNtB7_4node6HandleINtB10_7NodeRefNtNtB10_6marker5DyingNtCs3cP53eQoTwO_11proc_macro25IdentNtNtB7_7set_val9SetValZSTNtB1y_14LeafOrInternalENtB1y_2KVE14next_leaf_edgeCsf44oge9wsd6_12snafu_derive, symObjAddr: 0x75DC, symBinAddr: 0x822C, symSize: 0x210 }
  - { offset: 0x1C9D2, size: 0x8, addend: 0x0, symName: __RNvMsp_NtNtNtCse1nGBsou5OW_5alloc11collections5btree8navigateINtNtB7_4node6HandleINtB10_7NodeRefNtNtB10_6marker5DyingRNtCs3cP53eQoTwO_11proc_macro25IdentNtNtB7_7set_val9SetValZSTNtB1y_14LeafOrInternalENtB1y_2KVE14next_leaf_edgeCsf44oge9wsd6_12snafu_derive, symObjAddr: 0x77EC, symBinAddr: 0x843C, symSize: 0x210 }
  - { offset: 0x1CE42, size: 0x8, addend: 0x0, symName: __RNvMsp_NtNtNtCse1nGBsou5OW_5alloc11collections5btree8navigateINtNtB7_4node6HandleINtB10_7NodeRefNtNtB10_6marker5ImmutNtCs3cP53eQoTwO_11proc_macro25IdentNtNtB7_7set_val9SetValZSTNtB1y_14LeafOrInternalENtB1y_2KVE14next_leaf_edgeCsf44oge9wsd6_12snafu_derive, symObjAddr: 0x79FC, symBinAddr: 0x864C, symSize: 0x210 }
  - { offset: 0x1D2B2, size: 0x8, addend: 0x0, symName: __RNvMsp_NtNtNtCse1nGBsou5OW_5alloc11collections5btree8navigateINtNtB7_4node6HandleINtB10_7NodeRefNtNtB10_6marker5ImmutRNtCs3cP53eQoTwO_11proc_macro25IdentNtNtB7_7set_val9SetValZSTNtB1y_14LeafOrInternalENtB1y_2KVE14next_leaf_edgeCsf44oge9wsd6_12snafu_derive, symObjAddr: 0x7C0C, symBinAddr: 0x885C, symSize: 0x210 }
  - { offset: 0x1D659, size: 0x8, addend: 0x0, symName: __RNvMsp_NtNtNtCse1nGBsou5OW_5alloc11collections5btree8navigateINtNtB7_4node6HandleINtB10_7NodeRefNtNtB10_6marker5ImmutRNtCs3cP53eQoTwO_11proc_macro25IdentNtNtB7_7set_val9SetValZSTNtB1y_14LeafOrInternalENtB1y_2KVE19next_back_leaf_edgeCsf44oge9wsd6_12snafu_derive, symObjAddr: 0x7E1C, symBinAddr: 0x8A6C, symSize: 0x150 }
  - { offset: 0x1D9A4, size: 0x8, addend: 0x0, symName: __RNvMsu_NtNtNtCse1nGBsou5OW_5alloc11collections5btree4nodeINtB5_7NodeRefNtNtB5_6marker3MutNtCs3cP53eQoTwO_11proc_macro25IdentNtNtB7_7set_val9SetValZSTNtB19_4LeafE16push_with_handleCsf44oge9wsd6_12snafu_derive, symObjAddr: 0x7F6C, symBinAddr: 0x8BBC, symSize: 0x1E0 }
  - { offset: 0x1DEBD, size: 0x8, addend: 0x0, symName: __RNvMsu_NtNtNtCse1nGBsou5OW_5alloc11collections5btree4nodeINtB5_7NodeRefNtNtB5_6marker3MutRNtCs3cP53eQoTwO_11proc_macro25IdentNtNtB7_7set_val9SetValZSTNtB19_4LeafE16push_with_handleCsf44oge9wsd6_12snafu_derive, symObjAddr: 0x814C, symBinAddr: 0x8D9C, symSize: 0x1A0 }
  - { offset: 0x1E4D9, size: 0x8, addend: 0x0, symName: __RNvMsv_NtNtNtCse1nGBsou5OW_5alloc11collections5btree4nodeINtB5_7NodeRefNtNtB5_6marker3MutNtCs3cP53eQoTwO_11proc_macro25IdentNtNtB7_7set_val9SetValZSTNtB19_8InternalE4pushCsf44oge9wsd6_12snafu_derive, symObjAddr: 0x82EC, symBinAddr: 0x8F3C, symSize: 0x2D8 }
  - { offset: 0x1EC86, size: 0x8, addend: 0x0, symName: __RNvMsv_NtNtNtCse1nGBsou5OW_5alloc11collections5btree4nodeINtB5_7NodeRefNtNtB5_6marker3MutRNtCs3cP53eQoTwO_11proc_macro25IdentNtNtB7_7set_val9SetValZSTNtB19_8InternalE4pushCsf44oge9wsd6_12snafu_derive, symObjAddr: 0x85C4, symBinAddr: 0x9214, symSize: 0x29C }
  - { offset: 0x1F18B, size: 0x8, addend: 0x0, symName: __RINvMsi_NtCse1nGBsou5OW_5alloc3vecINtB6_3VecNtCs3cP53eQoTwO_11proc_macro211TokenStreamE14extend_trustedINtNtNtNtCsfvfooZQ3Axs_4core4iter8adapters3map3MapINtNtB6_9into_iter8IntoIterRNtBI_5IdentENCNvMs_NtNtCsf44oge9wsd6_12snafu_derive6shared16context_selectorNtB3c_15ContextSelector20transfer_user_fields0EEB3g_, symObjAddr: 0x0, symBinAddr: 0x94CC, symSize: 0x188 }
  - { offset: 0x2EE59, size: 0x8, addend: 0x0, symName: __RINvXsd_NtCse1nGBsou5OW_5alloc3vecINtB6_3VecNtCs3cP53eQoTwO_11proc_macro211TokenStreamEINtNtNtNtCsfvfooZQ3Axs_4core4iter6traits7collect12FromIteratorBG_E9from_iterINtNtNtB1u_8adapters3map3MapINtNtB6_9into_iter8IntoIterRNtBI_5IdentENCNvMs_NtNtCsf44oge9wsd6_12snafu_derive6shared16context_selectorNtB3O_15ContextSelector20transfer_user_fields0EEB3S_, symObjAddr: 0x3F2C, symBinAddr: 0xD3F8, symSize: 0x3C }
  - { offset: 0x2EE9A, size: 0x8, addend: 0x0, symName: __RINvXsd_NtCse1nGBsou5OW_5alloc3vecINtB6_3VecNtCs3cP53eQoTwO_11proc_macro211TokenStreamEINtNtNtNtCsfvfooZQ3Axs_4core4iter6traits7collect12FromIteratorBG_E9from_iterINtNtNtB1u_8adapters3map3MapINtNtCs5AlOhPCr03V_3syn10punctuated4IterNtNtB38_8generics12GenericParamENCNvYNtCsf44oge9wsd6_12snafu_derive15NamedStructInfoNtB4k_17GenericAwareNames22provided_generic_names0EEB4k_, symObjAddr: 0x3F68, symBinAddr: 0xD434, symSize: 0x40 }
  - { offset: 0x2EEDA, size: 0x8, addend: 0x0, symName: __RINvXsd_NtCse1nGBsou5OW_5alloc3vecINtB6_3VecNtCs3cP53eQoTwO_11proc_macro211TokenStreamEINtNtNtNtCsfvfooZQ3Axs_4core4iter6traits7collect12FromIteratorBG_E9from_iterINtNtNtB1u_8adapters3map3MapINtNtCs5AlOhPCr03V_3syn10punctuated4IterNtNtB38_8generics12GenericParamENCNvYNtCsf44oge9wsd6_12snafu_derive15TupleStructInfoNtB4k_17GenericAwareNames22provided_generic_names0EEB4k_, symObjAddr: 0x3FA8, symBinAddr: 0xD474, symSize: 0x40 }
  - { offset: 0x2EF1A, size: 0x8, addend: 0x0, symName: __RINvXsd_NtCse1nGBsou5OW_5alloc3vecINtB6_3VecNtCs3cP53eQoTwO_11proc_macro211TokenStreamEINtNtNtNtCsfvfooZQ3Axs_4core4iter6traits7collect12FromIteratorBG_E9from_iterINtNtNtB1u_8adapters3map3MapINtNtCs5AlOhPCr03V_3syn10punctuated4IterNtNtB38_8generics12GenericParamENCNvYNtCsf44oge9wsd6_12snafu_derive8EnumInfoNtB4k_17GenericAwareNames22provided_generic_names0EEB4k_, symObjAddr: 0x3FE8, symBinAddr: 0xD4B4, symSize: 0x40 }
  - { offset: 0x2EF5A, size: 0x8, addend: 0x0, symName: __RINvXsd_NtCse1nGBsou5OW_5alloc3vecINtB6_3VecNtCs3cP53eQoTwO_11proc_macro211TokenStreamEINtNtNtNtCsfvfooZQ3Axs_4core4iter6traits7collect12FromIteratorBG_E9from_iterINtNtNtB1u_8adapters3map3MapINtNtNtB1w_5slice4iter4IterNtCsf44oge9wsd6_12snafu_derive14FieldContainerENCNvXsm_B3w_NtB3w_11DisplayImplNtNtCs2cqEZUIJimJ_5quote9to_tokens8ToTokens9to_tokens0EEB3w_, symObjAddr: 0x4028, symBinAddr: 0xD4F4, symSize: 0x3C }
  - { offset: 0x2EF9B, size: 0x8, addend: 0x0, symName: __RINvXsd_NtCse1nGBsou5OW_5alloc3vecINtB6_3VecNtCs3cP53eQoTwO_11proc_macro211TokenStreamEINtNtNtNtCsfvfooZQ3Axs_4core4iter6traits7collect12FromIteratorBG_E9from_iterINtNtNtB1u_8adapters3map3MapINtNtNtB1w_5slice4iter4IterNtCsf44oge9wsd6_12snafu_derive14FieldContainerENCNvXso_B3w_NtB3w_15ErrorCompatImplNtNtCs2cqEZUIJimJ_5quote9to_tokens8ToTokens9to_tokens0EEB3w_, symObjAddr: 0x4064, symBinAddr: 0xD530, symSize: 0x3C }
  - { offset: 0x2EFDC, size: 0x8, addend: 0x0, symName: __RINvXsd_NtCse1nGBsou5OW_5alloc3vecINtB6_3VecNtCs3cP53eQoTwO_11proc_macro211TokenStreamEINtNtNtNtCsfvfooZQ3Axs_4core4iter6traits7collect12FromIteratorBG_E9from_iterINtNtNtB1u_8adapters3map3MapNtNtCs5AlOhPCr03V_3syn8generics10TypeParamsNCNvYNtCsf44oge9wsd6_12snafu_derive15NamedStructInfoNtB3R_17GenericAwareNames39provided_generic_types_without_defaults0EEB3R_, symObjAddr: 0x40A0, symBinAddr: 0xD56C, symSize: 0x40 }
  - { offset: 0x2F01C, size: 0x8, addend: 0x0, symName: __RINvXsd_NtCse1nGBsou5OW_5alloc3vecINtB6_3VecNtCs3cP53eQoTwO_11proc_macro211TokenStreamEINtNtNtNtCsfvfooZQ3Axs_4core4iter6traits7collect12FromIteratorBG_E9from_iterINtNtNtB1u_8adapters3map3MapNtNtCs5AlOhPCr03V_3syn8generics10TypeParamsNCNvYNtCsf44oge9wsd6_12snafu_derive8EnumInfoNtB3R_17GenericAwareNames39provided_generic_types_without_defaults0EEB3R_, symObjAddr: 0x40E0, symBinAddr: 0xD5AC, symSize: 0x40 }
  - { offset: 0x2F05C, size: 0x8, addend: 0x0, symName: __RINvXsd_NtCse1nGBsou5OW_5alloc3vecINtB6_3VecNtCs3cP53eQoTwO_11proc_macro211TokenStreamEINtNtNtNtCsfvfooZQ3Axs_4core4iter6traits7collect12FromIteratorBG_E9from_iterINtNtNtB1u_8adapters5chain5ChainINtNtB2G_3map3MapINtNtB2G_3zip3ZipINtNtB6_9into_iter8IntoIterNtBI_5IdentEIB38_INtNtNtB1w_5slice4iter4IterNtCsf44oge9wsd6_12snafu_derive5FieldENCNvMs_NtNtB4Q_6shared16context_selectorNtB5w_15ContextSelector22extended_where_clauses0EENCB5r_s_0EINtNtB2G_6cloned6ClonedIB4o_BG_EEEEB4Q_, symObjAddr: 0x4120, symBinAddr: 0xD5EC, symSize: 0x3C }
  - { offset: 0x2F09D, size: 0x8, addend: 0x0, symName: __RINvXsd_NtCse1nGBsou5OW_5alloc3vecINtB6_3VecNtCs3cP53eQoTwO_11proc_macro211TokenStreamEINtNtNtNtCsfvfooZQ3Axs_4core4iter6traits7collect12FromIteratorBG_E9from_iterINtNtNtB1u_8adapters5chain5ChainINtNtB6_9into_iter8IntoIterBG_EB37_EECsf44oge9wsd6_12snafu_derive, symObjAddr: 0x415C, symBinAddr: 0xD628, symSize: 0x3C }
  - { offset: 0x2F0DE, size: 0x8, addend: 0x0, symName: __RINvXsd_NtCse1nGBsou5OW_5alloc3vecINtB6_3VecNtCs3cP53eQoTwO_11proc_macro211TokenStreamEINtNtNtNtCsfvfooZQ3Axs_4core4iter6traits7collect12FromIteratorBG_E9from_iterINtNtNtB1u_8adapters7flatten7FlatMapINtNtB1w_6option4IterNtNtCs5AlOhPCr03V_3syn8generics11WhereClauseEINtNtB2G_3map3MapINtNtB3A_10punctuated4IterNtB3y_14WherePredicateENCNCNvMsr_Csf44oge9wsd6_12snafu_deriveNtB5t_15TupleStructInfo14generate_snafu00ENCB5n_0EEB5t_, symObjAddr: 0x4198, symBinAddr: 0xD664, symSize: 0x3C }
  - { offset: 0x2F11F, size: 0x8, addend: 0x0, symName: __RINvXsd_NtCse1nGBsou5OW_5alloc3vecINtB6_3VecNtCs3cP53eQoTwO_11proc_macro211TokenStreamEINtNtNtNtCsfvfooZQ3Axs_4core4iter6traits7collect12FromIteratorBG_E9from_iterINtNtNtB1u_8adapters7flatten7FlatMapINtNtB1w_6option4IterNtNtCs5AlOhPCr03V_3syn8generics11WhereClauseEINtNtB2G_3map3MapINtNtB3A_10punctuated4IterNtB3y_14WherePredicateENCNCNvYNtCsf44oge9wsd6_12snafu_derive15NamedStructInfoNtB5s_17GenericAwareNames22provided_where_clauses00ENCB5n_0EEB5s_, symObjAddr: 0x41D4, symBinAddr: 0xD6A0, symSize: 0x3C }
  - { offset: 0x2F160, size: 0x8, addend: 0x0, symName: __RINvXsd_NtCse1nGBsou5OW_5alloc3vecINtB6_3VecNtCs3cP53eQoTwO_11proc_macro211TokenStreamEINtNtNtNtCsfvfooZQ3Axs_4core4iter6traits7collect12FromIteratorBG_E9from_iterINtNtNtB1u_8adapters7flatten7FlatMapINtNtB1w_6option4IterNtNtCs5AlOhPCr03V_3syn8generics11WhereClauseEINtNtB2G_3map3MapINtNtB3A_10punctuated4IterNtB3y_14WherePredicateENCNCNvYNtCsf44oge9wsd6_12snafu_derive8EnumInfoNtB5s_17GenericAwareNames22provided_where_clauses00ENCB5n_0EEB5s_, symObjAddr: 0x4210, symBinAddr: 0xD6DC, symSize: 0x3C }
  - { offset: 0x2F1A1, size: 0x8, addend: 0x0, symName: __RINvXsd_NtCse1nGBsou5OW_5alloc3vecINtB6_3VecNtCs3cP53eQoTwO_11proc_macro211TokenStreamEINtNtNtNtCsfvfooZQ3Axs_4core4iter6traits7collect12FromIteratorBG_E9from_iterINtNtNtB1u_8adapters7flatten7FlatMapINtNtCs5AlOhPCr03V_3syn10punctuated4IterNtNtB3g_8generics12GenericParamEINtNtB1w_6option6OptionBG_ENCNvYNtCsf44oge9wsd6_12snafu_derive15NamedStructInfoNtB4T_17GenericAwareNames26provided_generic_lifetimes0EEB4T_, symObjAddr: 0x424C, symBinAddr: 0xD718, symSize: 0x3C }
  - { offset: 0x2F1E2, size: 0x8, addend: 0x0, symName: __RINvXsd_NtCse1nGBsou5OW_5alloc3vecINtB6_3VecNtCs3cP53eQoTwO_11proc_macro211TokenStreamEINtNtNtNtCsfvfooZQ3Axs_4core4iter6traits7collect12FromIteratorBG_E9from_iterINtNtNtB1u_8adapters7flatten7FlatMapINtNtCs5AlOhPCr03V_3syn10punctuated4IterNtNtB3g_8generics12GenericParamEINtNtB1w_6option6OptionBG_ENCNvYNtCsf44oge9wsd6_12snafu_derive8EnumInfoNtB4T_17GenericAwareNames26provided_generic_lifetimes0EEB4T_, symObjAddr: 0x4288, symBinAddr: 0xD754, symSize: 0x3C }
  - { offset: 0x2F223, size: 0x8, addend: 0x0, symName: __RINvXsd_NtCse1nGBsou5OW_5alloc3vecINtB6_3VecNtCs3cP53eQoTwO_11proc_macro25IdentEINtNtNtNtCsfvfooZQ3Axs_4core4iter6traits7collect12FromIteratorBG_E9from_iterINtNtNtB1n_8adapters3map3MapINtNtNtB1p_3ops5range5RangejENCNvMs_NtNtCsf44oge9wsd6_12snafu_derive6shared16context_selectorNtB3w_15ContextSelector19user_field_generics0EEB3A_, symObjAddr: 0x42C4, symBinAddr: 0xD790, symSize: 0x38 }
  - { offset: 0x2F263, size: 0x8, addend: 0x0, symName: __RINvXsd_NtCse1nGBsou5OW_5alloc3vecINtB6_3VecNtCsf44oge9wsd6_12snafu_derive14FieldContainerEINtNtNtNtCsfvfooZQ3Axs_4core4iter6traits7collect12FromIteratorBG_E9from_iterINtNtNtB1y_8adapters7flatten7FlatMapINtNtB2K_3map3MapINtNtCs5AlOhPCr03V_3syn10punctuated8IntoIterNtNtB3B_4data7VariantENCNvBI_16parse_snafu_enum0EINtNtB1A_6result6ResultBG_uENCINvXs0_NtBI_6spongeINtB5C_9AllErrorsBw_NtNtB3B_5error5ErrorEIB1s_IB52_BG_IBx_B68_EEE9from_iterB3f_E0EEBI_, symObjAddr: 0x42FC, symBinAddr: 0xD7C8, symSize: 0x50 }
  - { offset: 0x2F2A4, size: 0x8, addend: 0x0, symName: __RINvXsd_NtCse1nGBsou5OW_5alloc3vecINtB6_3VecNtCsf44oge9wsd6_12snafu_derive14SnafuAttributeEINtNtNtNtCsfvfooZQ3Axs_4core4iter6traits7collect12FromIteratorBG_E9from_iterINtNtNtB1y_8adapters7flatten7FlatMapINtNtB6_9into_iter8IntoIterBG_EINtNtB1A_6option6OptionBG_ENCNvBI_24parse_snafu_named_struct0EEBI_, symObjAddr: 0x434C, symBinAddr: 0xD818, symSize: 0x48 }
  - { offset: 0x2F2E5, size: 0x8, addend: 0x0, symName: __RINvXsd_NtCse1nGBsou5OW_5alloc3vecINtB6_3VecNtCsf44oge9wsd6_12snafu_derive6SourceEINtNtNtNtCsfvfooZQ3Axs_4core4iter6traits7collect12FromIteratorBG_E9from_iterINtNtNtB1p_8adapters3map3MapINtNtCs5AlOhPCr03V_3syn10punctuated8IntoIterNtNtBI_5parse9SourceArgENCNvMsB_B3I_NtB3I_6Source15into_components0EEBI_, symObjAddr: 0x4394, symBinAddr: 0xD860, symSize: 0x3C }
  - { offset: 0x2F326, size: 0x8, addend: 0x0, symName: __RINvXsd_NtCse1nGBsou5OW_5alloc3vecINtB6_3VecNtNtB8_6string6StringEINtNtNtNtCsfvfooZQ3Axs_4core4iter6traits7collect12FromIteratorBG_E9from_iterINtNtNtB19_8adapters3map3MapINtNtNtB1b_5slice4iter4IterReENCNvXs9_Csf44oge9wsd6_12snafu_deriveNtB3k_22IncompatibleAttributesNtB3k_16ErrorForLocation12for_location0EEB3k_, symObjAddr: 0x43D0, symBinAddr: 0xD89C, symSize: 0x40 }
  - { offset: 0x2F366, size: 0x8, addend: 0x0, symName: __RINvXsd_NtCse1nGBsou5OW_5alloc3vecINtB6_3VecNtNtCs5AlOhPCr03V_3syn4data5FieldEINtNtNtNtCsfvfooZQ3Axs_4core4iter6traits7collect12FromIteratorBG_E9from_iterINtNtBK_10punctuated8IntoIterBG_EECsf44oge9wsd6_12snafu_derive, symObjAddr: 0x4410, symBinAddr: 0xD8DC, symSize: 0x3C }
  - { offset: 0x2F3A7, size: 0x8, addend: 0x0, symName: __RINvXsd_NtCse1nGBsou5OW_5alloc3vecINtB6_3VecNtNtCs5AlOhPCr03V_3syn4expr4ExprEINtNtNtNtCsfvfooZQ3Axs_4core4iter6traits7collect12FromIteratorBG_E9from_iterINtNtBK_10punctuated8IntoIterBG_EECsf44oge9wsd6_12snafu_derive, symObjAddr: 0x444C, symBinAddr: 0xD918, symSize: 0x3C }
  - { offset: 0x2F3E8, size: 0x8, addend: 0x0, symName: __RINvXsd_NtCse1nGBsou5OW_5alloc3vecINtB6_3VecNtNtNtCsf44oge9wsd6_12snafu_derive6shared5error11ProvidePlusEINtNtNtNtCsfvfooZQ3Axs_4core4iter6traits7collect12FromIteratorBG_E9from_iterINtNtNtB1M_8adapters3map3MapINtNtB2Y_9enumerate9EnumerateINtNtNtB1O_5slice4iter4IterNtBM_7ProvideEENCNvBI_21enhance_provider_list0EEBM_, symObjAddr: 0x4488, symBinAddr: 0xD954, symSize: 0x3C }
  - { offset: 0x2F429, size: 0x8, addend: 0x0, symName: __RINvXsd_NtCse1nGBsou5OW_5alloc3vecINtB6_3VecRNtCs3cP53eQoTwO_11proc_macro25IdentEINtNtNtNtCsfvfooZQ3Axs_4core4iter6traits7collect12FromIteratorBG_E9from_iterINtNtNtB1o_8adapters3map3MapINtNtNtB1q_5slice4iter4IterNtCsf44oge9wsd6_12snafu_derive5FieldENCNvMs_NtNtB3q_6shared16context_selectorNtB46_15ContextSelector16user_field_names0EEB3q_, symObjAddr: 0x44C4, symBinAddr: 0xD990, symSize: 0x40 }
  - { offset: 0x2F469, size: 0x8, addend: 0x0, symName: __RINvXsd_NtCse1nGBsou5OW_5alloc3vecINtB6_3VecRNtCs3cP53eQoTwO_11proc_macro25IdentEINtNtNtNtCsfvfooZQ3Axs_4core4iter6traits7collect12FromIteratorBG_E9from_iterINtNtNtB1o_8adapters5chain5ChainINtNtB2A_3map3MapIB2w_IB2w_IB2w_INtNtNtB1q_5slice4iter4IterNtCsf44oge9wsd6_12snafu_derive5FieldEINtNtB1q_6option8IntoIterRB3Y_EEB3x_EB4z_ENvMs1_B40_B3Y_4nameEIB4A_BG_EEEB40_, symObjAddr: 0x4504, symBinAddr: 0xD9D0, symSize: 0x3C }
  - { offset: 0x2F4AA, size: 0x8, addend: 0x0, symName: __RINvXsd_NtCse1nGBsou5OW_5alloc3vecINtB6_3VecRNtCs3cP53eQoTwO_11proc_macro25IdentEINtNtNtNtCsfvfooZQ3Axs_4core4iter6traits7collect12FromIteratorBG_E9from_iterINtNtNtNtB8_11collections5btree3set4IterBH_EECsf44oge9wsd6_12snafu_derive, symObjAddr: 0x4540, symBinAddr: 0xDA0C, symSize: 0x3C }
  - { offset: 0x2F4F1, size: 0x8, addend: 0x0, symName: __RINvXsh_NtCse1nGBsou5OW_5alloc3vecINtB6_3VecNtCs3cP53eQoTwO_11proc_macro29TokenTreeEINtNtNtNtCsfvfooZQ3Axs_4core4iter6traits7collect6ExtendBG_E6extendINtNtNtB1r_8adapters7flatten7FlattenINtNtB2t_3map3MapIB2Z_IB2Z_INtNtB2t_5chain5ChainINtNtNtB1t_5slice4iter4IterNtCsf44oge9wsd6_12snafu_derive5FieldEINtNtB1t_6option8IntoIterRB4b_EENCNvMs_NtNtB4d_6shared16context_selectorNtB5p_15ContextSelector41construct_implicit_fields_with_expression0ENCINvXs7_BI_NtBI_11TokenStreamINtB1n_12FromIteratorB7e_E9from_iterB3k_E0ENCINvXs6_NtBI_3impNtB8m_11TokenStreamIB7x_B8v_E9from_iterB3f_Es_0EEEB4d_, symObjAddr: 0x457C, symBinAddr: 0xDA48, symSize: 0x48 }
  - { offset: 0x2F546, size: 0x8, addend: 0x0, symName: __RINvXsh_NtCse1nGBsou5OW_5alloc3vecINtB6_3VecNtCsf44oge9wsd6_12snafu_derive14SnafuAttributeEINtNtNtNtCsfvfooZQ3Axs_4core4iter6traits7collect6ExtendBG_E6extendINtNtNtB1y_8adapters3map3MapINtNtCs5AlOhPCr03V_3syn10punctuated8IntoIterNtNtBI_5parse9AttributeENvYB3F_INtNtB1A_7convert4IntoBG_E4intoEEBI_, symObjAddr: 0x45C4, symBinAddr: 0xDA90, symSize: 0x48 }
  - { offset: 0x2F59B, size: 0x8, addend: 0x0, symName: __RINvXsh_NtCse1nGBsou5OW_5alloc3vecINtB6_3VecNtNtCs5AlOhPCr03V_3syn4data7VariantEINtNtNtNtCsfvfooZQ3Axs_4core4iter6traits7collect6ExtendBG_E6extendINtNtB1p_6option6OptionBG_EECsf44oge9wsd6_12snafu_derive, symObjAddr: 0x460C, symBinAddr: 0xDAD8, symSize: 0x50 }
  - { offset: 0x2F5F0, size: 0x8, addend: 0x0, symName: __RINvXsh_NtCse1nGBsou5OW_5alloc3vecINtB6_3VecNtNtCs5AlOhPCr03V_3syn4data7VariantEINtNtNtNtCsfvfooZQ3Axs_4core4iter6traits7collect6ExtendBG_E6extendINtNtNtB1n_8adapters3map3MapINtNtB6_9into_iter8IntoIterTBG_NtNtBK_5token5CommaEENCNvXs8_NtBK_10punctuatedINtB3K_10PunctuatedBG_B3h_ENtB1j_12IntoIterator9into_iter0EECsf44oge9wsd6_12snafu_derive, symObjAddr: 0x465C, symBinAddr: 0xDB28, symSize: 0x48 }
  - { offset: 0x2F645, size: 0x8, addend: 0x0, symName: __RINvXsh_NtCse1nGBsou5OW_5alloc3vecINtB6_3VecNtNtCs5AlOhPCr03V_3syn4expr4ExprEINtNtNtNtCsfvfooZQ3Axs_4core4iter6traits7collect6ExtendBG_E6extendINtNtB1m_6option6OptionBG_EECsf44oge9wsd6_12snafu_derive, symObjAddr: 0x46A4, symBinAddr: 0xDB70, symSize: 0x50 }
  - { offset: 0x2F69A, size: 0x8, addend: 0x0, symName: __RINvXsh_NtCse1nGBsou5OW_5alloc3vecINtB6_3VecNtNtCs5AlOhPCr03V_3syn4expr4ExprEINtNtNtNtCsfvfooZQ3Axs_4core4iter6traits7collect6ExtendBG_E6extendINtNtNtB1k_8adapters3map3MapINtNtB6_9into_iter8IntoIterTBG_NtNtBK_5token5CommaEENCNvXs8_NtBK_10punctuatedINtB3H_10PunctuatedBG_B3e_ENtB1g_12IntoIterator9into_iter0EECsf44oge9wsd6_12snafu_derive, symObjAddr: 0x46F4, symBinAddr: 0xDBC0, symSize: 0x48 }
  - { offset: 0x2F6EF, size: 0x8, addend: 0x0, symName: __RINvXsh_NtCse1nGBsou5OW_5alloc3vecINtB6_3VecNtNtCs5AlOhPCr03V_3syn5error5ErrorEINtNtNtNtCsfvfooZQ3Axs_4core4iter6traits7collect6ExtendBG_E6extendBw_ECsf44oge9wsd6_12snafu_derive, symObjAddr: 0x473C, symBinAddr: 0xDC08, symSize: 0x48 }
  - { offset: 0x2F744, size: 0x8, addend: 0x0, symName: __RINvXsh_NtCse1nGBsou5OW_5alloc3vecINtB6_3VecNtNtCs5AlOhPCr03V_3syn5error5ErrorEINtNtNtNtCsfvfooZQ3Axs_4core4iter6traits7collect6ExtendBG_E6extendINtNtNtB1m_8adapters3map3MapINtNtB6_9into_iter8IntoIterNtCsf44oge9wsd6_12snafu_derive5FieldENCNvB3e_15field_containers7_0EEB3e_, symObjAddr: 0x4784, symBinAddr: 0xDC50, symSize: 0x48 }
  - { offset: 0x2F799, size: 0x8, addend: 0x0, symName: __RINvXsh_NtCse1nGBsou5OW_5alloc3vecINtB6_3VecNtNtCsf44oge9wsd6_12snafu_derive5parse9AttributeEINtNtNtNtCsfvfooZQ3Axs_4core4iter6traits7collect6ExtendBG_E6extendINtNtB1C_6option6OptionBG_EEBK_, symObjAddr: 0x47CC, symBinAddr: 0xDC98, symSize: 0x50 }
  - { offset: 0x2F7EE, size: 0x8, addend: 0x0, symName: __RINvXsh_NtCse1nGBsou5OW_5alloc3vecINtB6_3VecNtNtCsf44oge9wsd6_12snafu_derive5parse9AttributeEINtNtNtNtCsfvfooZQ3Axs_4core4iter6traits7collect6ExtendBG_E6extendINtNtNtB1A_8adapters3map3MapINtNtB6_9into_iter8IntoIterTBG_NtNtCs5AlOhPCr03V_3syn5token5CommaEENCNvXs8_NtB3y_10punctuatedINtB4c_10PunctuatedBG_B3u_ENtB1w_12IntoIterator9into_iter0EEBK_, symObjAddr: 0x481C, symBinAddr: 0xDCE8, symSize: 0x48 }
  - { offset: 0x2F843, size: 0x8, addend: 0x0, symName: __RINvXsh_NtCse1nGBsou5OW_5alloc3vecINtB6_3VecNtNtCsf44oge9wsd6_12snafu_derive5parse9SourceArgEINtNtNtNtCsfvfooZQ3Axs_4core4iter6traits7collect6ExtendBG_E6extendINtNtB1C_6option6OptionBG_EEBK_, symObjAddr: 0x4864, symBinAddr: 0xDD30, symSize: 0x50 }
  - { offset: 0x2F898, size: 0x8, addend: 0x0, symName: __RINvXsh_NtCse1nGBsou5OW_5alloc3vecINtB6_3VecNtNtCsf44oge9wsd6_12snafu_derive5parse9SourceArgEINtNtNtNtCsfvfooZQ3Axs_4core4iter6traits7collect6ExtendBG_E6extendINtNtNtB1A_8adapters3map3MapINtNtB6_9into_iter8IntoIterTBG_NtNtCs5AlOhPCr03V_3syn5token5CommaEENCNvXs8_NtB3y_10punctuatedINtB4c_10PunctuatedBG_B3u_ENtB1w_12IntoIterator9into_iter0EEBK_, symObjAddr: 0x48B4, symBinAddr: 0xDD80, symSize: 0x48 }
  - { offset: 0x2F8ED, size: 0x8, addend: 0x0, symName: __RNvXsh_NtCse1nGBsou5OW_5alloc3vecINtB5_3VecRNtNtNtCsf44oge9wsd6_12snafu_derive6shared5error11ProvidePlusEINtNtNtNtCsfvfooZQ3Axs_4core4iter6traits7collect6ExtendBF_E10extend_oneBM_, symObjAddr: 0xB9DC, symBinAddr: 0x14EA8, symSize: 0x2C }
  - { offset: 0x2F943, size: 0x8, addend: 0x0, symName: __RNCINvMsi_NtCse1nGBsou5OW_5alloc3vecINtB8_3VecNtCs3cP53eQoTwO_11proc_macro211TokenStreamE14extend_trustedINtNtNtNtCsfvfooZQ3Axs_4core4iter8adapters3map3MapINtNtB8_9into_iter8IntoIterRNtBK_5IdentENCNvMs_NtNtCsf44oge9wsd6_12snafu_derive6shared16context_selectorNtB3e_15ContextSelector20transfer_user_fields0EE0B3i_, symObjAddr: 0x48FC, symBinAddr: 0xDDC8, symSize: 0x3C }
  - { offset: 0x2F9F8, size: 0x8, addend: 0x0, symName: __RNCINvMsi_NtCse1nGBsou5OW_5alloc3vecINtB8_3VecNtCs3cP53eQoTwO_11proc_macro211TokenStreamE14extend_trustedINtNtNtNtCsfvfooZQ3Axs_4core4iter8adapters3map3MapINtNtNtB1O_5slice4iter4IterNtCsf44oge9wsd6_12snafu_derive14FieldContainerENCNvXsm_B2W_NtB2W_11DisplayImplNtNtCs2cqEZUIJimJ_5quote9to_tokens8ToTokens9to_tokens0EE0B2W_, symObjAddr: 0x4938, symBinAddr: 0xDE04, symSize: 0x3C }
  - { offset: 0x2FAAD, size: 0x8, addend: 0x0, symName: __RNCINvMsi_NtCse1nGBsou5OW_5alloc3vecINtB8_3VecNtCs3cP53eQoTwO_11proc_macro211TokenStreamE14extend_trustedINtNtNtNtCsfvfooZQ3Axs_4core4iter8adapters3map3MapINtNtNtB1O_5slice4iter4IterNtCsf44oge9wsd6_12snafu_derive14FieldContainerENCNvXso_B2W_NtB2W_15ErrorCompatImplNtNtCs2cqEZUIJimJ_5quote9to_tokens8ToTokens9to_tokens0EE0B2W_, symObjAddr: 0x4974, symBinAddr: 0xDE40, symSize: 0x3C }
  - { offset: 0x2FB62, size: 0x8, addend: 0x0, symName: __RNCINvMsi_NtCse1nGBsou5OW_5alloc3vecINtB8_3VecNtCs3cP53eQoTwO_11proc_macro211TokenStreamE14extend_trustedINtNtNtNtCsfvfooZQ3Axs_4core4iter8adapters5chain5ChainINtNtB1K_3map3MapINtNtB1K_3zip3ZipINtNtB8_9into_iter8IntoIterNtBK_5IdentEIB2y_INtNtNtB1O_5slice4iter4IterNtCsf44oge9wsd6_12snafu_derive5FieldENCNvMs_NtNtB4g_6shared16context_selectorNtB4W_15ContextSelector22extended_where_clauses0EENCB4R_s_0EINtNtB1K_6cloned6ClonedIB3O_BI_EEEE0B4g_, symObjAddr: 0x49B0, symBinAddr: 0xDE7C, symSize: 0x3C }
  - { offset: 0x2FC17, size: 0x8, addend: 0x0, symName: __RNCINvMsi_NtCse1nGBsou5OW_5alloc3vecINtB8_3VecNtCs3cP53eQoTwO_11proc_macro211TokenStreamE14extend_trustedINtNtNtNtCsfvfooZQ3Axs_4core4iter8adapters5chain5ChainINtNtB8_9into_iter8IntoIterBI_EB2x_EE0Csf44oge9wsd6_12snafu_derive, symObjAddr: 0x49EC, symBinAddr: 0xDEB8, symSize: 0x3C }
  - { offset: 0x2FCCC, size: 0x8, addend: 0x0, symName: __RNCINvMsi_NtCse1nGBsou5OW_5alloc3vecINtB8_3VecNtCs3cP53eQoTwO_11proc_macro25IdentE14extend_trustedINtNtNtNtCsfvfooZQ3Axs_4core4iter8adapters3map3MapINtNtNtB1H_3ops5range5RangejENCNvMs_NtNtCsf44oge9wsd6_12snafu_derive6shared16context_selectorNtB2W_15ContextSelector19user_field_generics0EE0B30_, symObjAddr: 0x4A28, symBinAddr: 0xDEF4, symSize: 0x44 }
  - { offset: 0x2FD79, size: 0x8, addend: 0x0, symName: __RNCINvMsi_NtCse1nGBsou5OW_5alloc3vecINtB8_3VecNtNtBa_6string6StringE14extend_trustedINtNtNtNtCsfvfooZQ3Axs_4core4iter8adapters3map3MapINtNtNtB1t_5slice4iter4IterReENCNvXs9_Csf44oge9wsd6_12snafu_deriveNtB2K_22IncompatibleAttributesNtB2K_16ErrorForLocation12for_location0EE0B2K_, symObjAddr: 0x4A6C, symBinAddr: 0xDF38, symSize: 0x44 }
  - { offset: 0x2FE26, size: 0x8, addend: 0x0, symName: __RNCINvMsi_NtCse1nGBsou5OW_5alloc3vecINtB8_3VecNtNtCs5AlOhPCr03V_3syn4data7VariantE14extend_trustedINtNtCsfvfooZQ3Axs_4core6option8IntoIterBI_EE0Csf44oge9wsd6_12snafu_derive, symObjAddr: 0x4AB0, symBinAddr: 0xDF7C, symSize: 0x54 }
  - { offset: 0x2FEE4, size: 0x8, addend: 0x0, symName: __RNCINvMsi_NtCse1nGBsou5OW_5alloc3vecINtB8_3VecNtNtCs5AlOhPCr03V_3syn4data7VariantE14extend_trustedINtNtNtNtCsfvfooZQ3Axs_4core4iter8adapters3map3MapINtNtB8_9into_iter8IntoIterTBI_NtNtBM_5token5CommaEENCNvXs8_NtBM_10punctuatedINtB3k_10PunctuatedBI_B2R_ENtNtNtB1F_6traits7collect12IntoIterator9into_iter0EE0Csf44oge9wsd6_12snafu_derive, symObjAddr: 0x4B04, symBinAddr: 0xDFD0, symSize: 0x54 }
  - { offset: 0x2FFA2, size: 0x8, addend: 0x0, symName: __RNCINvMsi_NtCse1nGBsou5OW_5alloc3vecINtB8_3VecNtNtCs5AlOhPCr03V_3syn4expr4ExprE14extend_trustedINtNtCsfvfooZQ3Axs_4core6option8IntoIterBI_EE0Csf44oge9wsd6_12snafu_derive, symObjAddr: 0x4B58, symBinAddr: 0xE024, symSize: 0x54 }
  - { offset: 0x30060, size: 0x8, addend: 0x0, symName: __RNCINvMsi_NtCse1nGBsou5OW_5alloc3vecINtB8_3VecNtNtCs5AlOhPCr03V_3syn4expr4ExprE14extend_trustedINtNtNtNtCsfvfooZQ3Axs_4core4iter8adapters3map3MapINtNtB8_9into_iter8IntoIterTBI_NtNtBM_5token5CommaEENCNvXs8_NtBM_10punctuatedINtB3h_10PunctuatedBI_B2O_ENtNtNtB1C_6traits7collect12IntoIterator9into_iter0EE0Csf44oge9wsd6_12snafu_derive, symObjAddr: 0x4BAC, symBinAddr: 0xE078, symSize: 0x54 }
  - { offset: 0x3011E, size: 0x8, addend: 0x0, symName: __RNCINvMsi_NtCse1nGBsou5OW_5alloc3vecINtB8_3VecNtNtCs5AlOhPCr03V_3syn5error5ErrorE14extend_trustedINtNtNtNtCsfvfooZQ3Axs_4core4iter8adapters3map3MapINtNtB8_9into_iter8IntoIterNtCsf44oge9wsd6_12snafu_derive5FieldENCNvB2O_15field_containers7_0EE0B2O_, symObjAddr: 0x4C00, symBinAddr: 0xE0CC, symSize: 0x44 }
  - { offset: 0x301CB, size: 0x8, addend: 0x0, symName: __RNCINvMsi_NtCse1nGBsou5OW_5alloc3vecINtB8_3VecNtNtCsf44oge9wsd6_12snafu_derive5parse9AttributeE14extend_trustedINtNtCsfvfooZQ3Axs_4core6option8IntoIterBI_EE0BM_, symObjAddr: 0x4C44, symBinAddr: 0xE110, symSize: 0x54 }
  - { offset: 0x30289, size: 0x8, addend: 0x0, symName: __RNCINvMsi_NtCse1nGBsou5OW_5alloc3vecINtB8_3VecNtNtCsf44oge9wsd6_12snafu_derive5parse9AttributeE14extend_trustedINtNtNtNtCsfvfooZQ3Axs_4core4iter8adapters3map3MapINtNtB8_9into_iter8IntoIterTBI_NtNtCs5AlOhPCr03V_3syn5token5CommaEENCNvXs8_NtB38_10punctuatedINtB3M_10PunctuatedBI_B34_ENtNtNtB1S_6traits7collect12IntoIterator9into_iter0EE0BM_, symObjAddr: 0x4C98, symBinAddr: 0xE164, symSize: 0x54 }
  - { offset: 0x30347, size: 0x8, addend: 0x0, symName: __RNCINvMsi_NtCse1nGBsou5OW_5alloc3vecINtB8_3VecNtNtCsf44oge9wsd6_12snafu_derive5parse9SourceArgE14extend_trustedINtNtCsfvfooZQ3Axs_4core6option8IntoIterBI_EE0BM_, symObjAddr: 0x4CEC, symBinAddr: 0xE1B8, symSize: 0x54 }
  - { offset: 0x30405, size: 0x8, addend: 0x0, symName: __RNCINvMsi_NtCse1nGBsou5OW_5alloc3vecINtB8_3VecNtNtCsf44oge9wsd6_12snafu_derive5parse9SourceArgE14extend_trustedINtNtNtNtCsfvfooZQ3Axs_4core4iter8adapters3map3MapINtNtB8_9into_iter8IntoIterTBI_NtNtCs5AlOhPCr03V_3syn5token5CommaEENCNvXs8_NtB38_10punctuatedINtB3M_10PunctuatedBI_B34_ENtNtNtB1S_6traits7collect12IntoIterator9into_iter0EE0BM_, symObjAddr: 0x4D40, symBinAddr: 0xE20C, symSize: 0x54 }
  - { offset: 0x304C3, size: 0x8, addend: 0x0, symName: __RNCINvMsi_NtCse1nGBsou5OW_5alloc3vecINtB8_3VecNtNtNtCsf44oge9wsd6_12snafu_derive6shared5error11ProvidePlusE14extend_trustedINtNtNtNtCsfvfooZQ3Axs_4core4iter8adapters3map3MapINtNtB22_9enumerate9EnumerateINtNtNtB26_5slice4iter4IterNtBO_7ProvideEENCNvBK_21enhance_provider_list0EE0BO_, symObjAddr: 0x4D94, symBinAddr: 0xE260, symSize: 0x3C }
  - { offset: 0x30578, size: 0x8, addend: 0x0, symName: __RNCINvMsi_NtCse1nGBsou5OW_5alloc3vecINtB8_3VecRNtCs3cP53eQoTwO_11proc_macro25IdentE14extend_trustedINtNtNtNtCsfvfooZQ3Axs_4core4iter8adapters3map3MapINtNtNtB1I_5slice4iter4IterNtCsf44oge9wsd6_12snafu_derive5FieldENCNvMs_NtNtB2Q_6shared16context_selectorNtB3w_15ContextSelector16user_field_names0EE0B2Q_, symObjAddr: 0x4DD0, symBinAddr: 0xE29C, symSize: 0x34 }
  - { offset: 0x30620, size: 0x8, addend: 0x0, symName: __RNCINvMsi_NtCse1nGBsou5OW_5alloc3vecINtB8_3VecRNtCs3cP53eQoTwO_11proc_macro25IdentE14extend_trustedINtNtNtNtCsfvfooZQ3Axs_4core4iter8adapters5chain5ChainINtNtB1E_3map3MapIB1A_IB1A_IB1A_INtNtNtB1I_5slice4iter4IterNtCsf44oge9wsd6_12snafu_derive5FieldEINtNtB1I_6option8IntoIterRB3o_EEB2X_EB3Z_ENvMs1_B3q_B3o_4nameEIB40_BI_EEE0B3q_, symObjAddr: 0x4E04, symBinAddr: 0xE2D0, symSize: 0x34 }
  - { offset: 0x3086A, size: 0x8, addend: 0x0, symName: __RNvXNtNtCse1nGBsou5OW_5alloc3vec11spec_extendINtB4_3VecNtCs3cP53eQoTwO_11proc_macro211TokenStreamEINtB2_10SpecExtendBR_INtNtNtNtCsfvfooZQ3Axs_4core4iter8adapters3map3MapINtNtCs5AlOhPCr03V_3syn10punctuated4IterNtNtB2M_8generics12GenericParamENCNvYNtCsf44oge9wsd6_12snafu_derive15NamedStructInfoNtB3Y_17GenericAwareNames22provided_generic_names0EE11spec_extendB3Y_, symObjAddr: 0x6B14, symBinAddr: 0xFFE0, symSize: 0x34 }
  - { offset: 0x308BB, size: 0x8, addend: 0x0, symName: __RNvXNtNtCse1nGBsou5OW_5alloc3vec11spec_extendINtB4_3VecNtCs3cP53eQoTwO_11proc_macro211TokenStreamEINtB2_10SpecExtendBR_INtNtNtNtCsfvfooZQ3Axs_4core4iter8adapters3map3MapINtNtCs5AlOhPCr03V_3syn10punctuated4IterNtNtB2M_8generics12GenericParamENCNvYNtCsf44oge9wsd6_12snafu_derive15TupleStructInfoNtB3Y_17GenericAwareNames22provided_generic_names0EE11spec_extendB3Y_, symObjAddr: 0x6B48, symBinAddr: 0x10014, symSize: 0x34 }
  - { offset: 0x3090C, size: 0x8, addend: 0x0, symName: __RNvXNtNtCse1nGBsou5OW_5alloc3vec11spec_extendINtB4_3VecNtCs3cP53eQoTwO_11proc_macro211TokenStreamEINtB2_10SpecExtendBR_INtNtNtNtCsfvfooZQ3Axs_4core4iter8adapters3map3MapINtNtCs5AlOhPCr03V_3syn10punctuated4IterNtNtB2M_8generics12GenericParamENCNvYNtCsf44oge9wsd6_12snafu_derive8EnumInfoNtB3Y_17GenericAwareNames22provided_generic_names0EE11spec_extendB3Y_, symObjAddr: 0x6B7C, symBinAddr: 0x10048, symSize: 0x34 }
  - { offset: 0x3095D, size: 0x8, addend: 0x0, symName: __RNvXNtNtCse1nGBsou5OW_5alloc3vec11spec_extendINtB4_3VecNtCs3cP53eQoTwO_11proc_macro211TokenStreamEINtB2_10SpecExtendBR_INtNtNtNtCsfvfooZQ3Axs_4core4iter8adapters3map3MapNtNtCs5AlOhPCr03V_3syn8generics10TypeParamsNCNvYNtCsf44oge9wsd6_12snafu_derive15NamedStructInfoNtB3v_17GenericAwareNames39provided_generic_types_without_defaults0EE11spec_extendB3v_, symObjAddr: 0x6BB0, symBinAddr: 0x1007C, symSize: 0x34 }
  - { offset: 0x309AE, size: 0x8, addend: 0x0, symName: __RNvXNtNtCse1nGBsou5OW_5alloc3vec11spec_extendINtB4_3VecNtCs3cP53eQoTwO_11proc_macro211TokenStreamEINtB2_10SpecExtendBR_INtNtNtNtCsfvfooZQ3Axs_4core4iter8adapters3map3MapNtNtCs5AlOhPCr03V_3syn8generics10TypeParamsNCNvYNtCsf44oge9wsd6_12snafu_derive8EnumInfoNtB3v_17GenericAwareNames39provided_generic_types_without_defaults0EE11spec_extendB3v_, symObjAddr: 0x6BE4, symBinAddr: 0x100B0, symSize: 0x34 }
  - { offset: 0x309FF, size: 0x8, addend: 0x0, symName: __RNvXNtNtCse1nGBsou5OW_5alloc3vec11spec_extendINtB4_3VecNtCs3cP53eQoTwO_11proc_macro211TokenStreamEINtB2_10SpecExtendBR_INtNtNtNtCsfvfooZQ3Axs_4core4iter8adapters7flatten7FlatMapINtNtB22_6option4IterNtNtCs5AlOhPCr03V_3syn8generics11WhereClauseEINtNtB1Y_3map3MapINtNtB3e_10punctuated4IterNtB3c_14WherePredicateENCNCNvMsr_Csf44oge9wsd6_12snafu_deriveNtB57_15TupleStructInfo14generate_snafu00ENCB51_0EE11spec_extendB57_, symObjAddr: 0x6C18, symBinAddr: 0x100E4, symSize: 0x24 }
  - { offset: 0x30A51, size: 0x8, addend: 0x0, symName: __RNvXNtNtCse1nGBsou5OW_5alloc3vec11spec_extendINtB4_3VecNtCs3cP53eQoTwO_11proc_macro211TokenStreamEINtB2_10SpecExtendBR_INtNtNtNtCsfvfooZQ3Axs_4core4iter8adapters7flatten7FlatMapINtNtB22_6option4IterNtNtCs5AlOhPCr03V_3syn8generics11WhereClauseEINtNtB1Y_3map3MapINtNtB3e_10punctuated4IterNtB3c_14WherePredicateENCNCNvYNtCsf44oge9wsd6_12snafu_derive15NamedStructInfoNtB56_17GenericAwareNames22provided_where_clauses00ENCB51_0EE11spec_extendB56_, symObjAddr: 0x6C3C, symBinAddr: 0x10108, symSize: 0x24 }
  - { offset: 0x30AA3, size: 0x8, addend: 0x0, symName: __RNvXNtNtCse1nGBsou5OW_5alloc3vec11spec_extendINtB4_3VecNtCs3cP53eQoTwO_11proc_macro211TokenStreamEINtB2_10SpecExtendBR_INtNtNtNtCsfvfooZQ3Axs_4core4iter8adapters7flatten7FlatMapINtNtB22_6option4IterNtNtCs5AlOhPCr03V_3syn8generics11WhereClauseEINtNtB1Y_3map3MapINtNtB3e_10punctuated4IterNtB3c_14WherePredicateENCNCNvYNtCsf44oge9wsd6_12snafu_derive8EnumInfoNtB56_17GenericAwareNames22provided_where_clauses00ENCB51_0EE11spec_extendB56_, symObjAddr: 0x6C60, symBinAddr: 0x1012C, symSize: 0x24 }
  - { offset: 0x30AF5, size: 0x8, addend: 0x0, symName: __RNvXNtNtCse1nGBsou5OW_5alloc3vec11spec_extendINtB4_3VecNtCs3cP53eQoTwO_11proc_macro211TokenStreamEINtB2_10SpecExtendBR_INtNtNtNtCsfvfooZQ3Axs_4core4iter8adapters7flatten7FlatMapINtNtCs5AlOhPCr03V_3syn10punctuated4IterNtNtB2U_8generics12GenericParamEINtNtB22_6option6OptionBR_ENCNvYNtCsf44oge9wsd6_12snafu_derive15NamedStructInfoNtB4x_17GenericAwareNames26provided_generic_lifetimes0EE11spec_extendB4x_, symObjAddr: 0x6C84, symBinAddr: 0x10150, symSize: 0x24 }
  - { offset: 0x30B47, size: 0x8, addend: 0x0, symName: __RNvXNtNtCse1nGBsou5OW_5alloc3vec11spec_extendINtB4_3VecNtCs3cP53eQoTwO_11proc_macro211TokenStreamEINtB2_10SpecExtendBR_INtNtNtNtCsfvfooZQ3Axs_4core4iter8adapters7flatten7FlatMapINtNtCs5AlOhPCr03V_3syn10punctuated4IterNtNtB2U_8generics12GenericParamEINtNtB22_6option6OptionBR_ENCNvYNtCsf44oge9wsd6_12snafu_derive8EnumInfoNtB4x_17GenericAwareNames26provided_generic_lifetimes0EE11spec_extendB4x_, symObjAddr: 0x6CA8, symBinAddr: 0x10174, symSize: 0x24 }
  - { offset: 0x30B99, size: 0x8, addend: 0x0, symName: __RNvXNtNtCse1nGBsou5OW_5alloc3vec11spec_extendINtB4_3VecNtCs3cP53eQoTwO_11proc_macro29TokenTreeEINtB2_10SpecExtendBR_INtNtNtNtCsfvfooZQ3Axs_4core4iter8adapters7flatten7FlattenINtNtB1V_3map3MapIB2N_IB2N_INtNtB1V_5chain5ChainINtNtNtB1Z_5slice4iter4IterNtCsf44oge9wsd6_12snafu_derive5FieldEINtNtB1Z_6option8IntoIterRB3Z_EENCNvMs_NtNtB41_6shared16context_selectorNtB5d_15ContextSelector41construct_implicit_fields_with_expression0ENCINvXs7_BT_NtBT_11TokenStreamINtNtNtB1X_6traits7collect12FromIteratorB72_E9from_iterB38_E0ENCINvXs6_NtBT_3impNtB8t_11TokenStreamIB7l_B8C_E9from_iterB33_Es_0EEE11spec_extendB41_, symObjAddr: 0x6CCC, symBinAddr: 0x10198, symSize: 0x24 }
  - { offset: 0x30BEB, size: 0x8, addend: 0x0, symName: __RNvXNtNtCse1nGBsou5OW_5alloc3vec11spec_extendINtB4_3VecNtCsf44oge9wsd6_12snafu_derive14FieldContainerEINtB2_10SpecExtendBR_INtNtNtNtCsfvfooZQ3Axs_4core4iter8adapters7flatten7FlatMapINtNtB22_3map3MapINtNtCs5AlOhPCr03V_3syn10punctuated8IntoIterNtNtB3f_4data7VariantENCNvBT_16parse_snafu_enum0EINtNtB26_6result6ResultBR_uENCINvXs0_NtBT_6spongeINtB5g_9AllErrorsBH_NtNtB3f_5error5ErrorEINtNtNtB24_6traits7collect12FromIteratorIB4G_BR_IBI_B5M_EEE9from_iterB2T_E0EE11spec_extendBT_, symObjAddr: 0x6CF0, symBinAddr: 0x101BC, symSize: 0x24 }
  - { offset: 0x30C3D, size: 0x8, addend: 0x0, symName: __RNvXNtNtCse1nGBsou5OW_5alloc3vec11spec_extendINtB4_3VecNtCsf44oge9wsd6_12snafu_derive14SnafuAttributeEINtB2_10SpecExtendBR_INtNtNtNtCsfvfooZQ3Axs_4core4iter8adapters3map3MapINtNtCs5AlOhPCr03V_3syn10punctuated8IntoIterNtNtBT_5parse9AttributeENvYB3t_INtNtB26_7convert4IntoBR_E4intoEE11spec_extendBT_, symObjAddr: 0x6D14, symBinAddr: 0x101E0, symSize: 0x24 }
  - { offset: 0x30C8F, size: 0x8, addend: 0x0, symName: __RNvXNtNtCse1nGBsou5OW_5alloc3vec11spec_extendINtB4_3VecNtCsf44oge9wsd6_12snafu_derive14SnafuAttributeEINtB2_10SpecExtendBR_INtNtNtNtCsfvfooZQ3Axs_4core4iter8adapters7flatten7FlatMapINtNtB4_9into_iter8IntoIterBR_EINtNtB26_6option6OptionBR_ENCNvBT_24parse_snafu_named_struct0EE11spec_extendBT_, symObjAddr: 0x6D38, symBinAddr: 0x10204, symSize: 0x24 }
  - { offset: 0x30CE1, size: 0x8, addend: 0x0, symName: __RNvXNtNtCse1nGBsou5OW_5alloc3vec11spec_extendINtB4_3VecNtCsf44oge9wsd6_12snafu_derive6SourceEINtB2_10SpecExtendBR_INtNtNtNtCsfvfooZQ3Axs_4core4iter8adapters3map3MapINtNtCs5AlOhPCr03V_3syn10punctuated8IntoIterNtNtBT_5parse9SourceArgENCNvMsB_B3m_NtB3m_6Source15into_components0EE11spec_extendBT_, symObjAddr: 0x6D5C, symBinAddr: 0x10228, symSize: 0x24 }
  - { offset: 0x30D33, size: 0x8, addend: 0x0, symName: __RNvXNtNtCse1nGBsou5OW_5alloc3vec11spec_extendINtB4_3VecNtNtCs5AlOhPCr03V_3syn4data5FieldEINtB2_10SpecExtendBR_INtNtBV_10punctuated8IntoIterBR_EE11spec_extendCsf44oge9wsd6_12snafu_derive, symObjAddr: 0x6D80, symBinAddr: 0x1024C, symSize: 0x24 }
  - { offset: 0x30D85, size: 0x8, addend: 0x0, symName: __RNvXNtNtCse1nGBsou5OW_5alloc3vec11spec_extendINtB4_3VecNtNtCs5AlOhPCr03V_3syn4expr4ExprEINtB2_10SpecExtendBR_INtNtBV_10punctuated8IntoIterBR_EE11spec_extendCsf44oge9wsd6_12snafu_derive, symObjAddr: 0x6DA4, symBinAddr: 0x10270, symSize: 0x24 }
  - { offset: 0x30DD7, size: 0x8, addend: 0x0, symName: __RNvXNtNtCse1nGBsou5OW_5alloc3vec11spec_extendINtB4_3VecRNtCs3cP53eQoTwO_11proc_macro25IdentEINtB2_10SpecExtendBR_INtNtNtNtB6_11collections5btree3set4IterBS_EE11spec_extendCsf44oge9wsd6_12snafu_derive, symObjAddr: 0x6DC8, symBinAddr: 0x10294, symSize: 0x24 }
  - { offset: 0x30E2F, size: 0x8, addend: 0x0, symName: __RNvXs0_NtNtCse1nGBsou5OW_5alloc3vec11spec_extendINtB7_3VecNtNtCs5AlOhPCr03V_3syn5error5ErrorEINtB5_10SpecExtendBU_INtNtB7_9into_iter8IntoIterBU_EE11spec_extendCsf44oge9wsd6_12snafu_derive, symObjAddr: 0x93F8, symBinAddr: 0x128C4, symSize: 0x98 }
  - { offset: 0x30E9B, size: 0x8, addend: 0x0, symName: __RNvXs_NtNtCse1nGBsou5OW_5alloc3vec11spec_extendINtB6_3VecNtCs3cP53eQoTwO_11proc_macro211TokenStreamEINtB4_10SpecExtendBT_INtNtNtNtCsfvfooZQ3Axs_4core4iter8adapters3map3MapINtNtB6_9into_iter8IntoIterRNtBV_5IdentENCNvMs_NtNtCsf44oge9wsd6_12snafu_derive6shared16context_selectorNtB3u_15ContextSelector20transfer_user_fields0EE11spec_extendB3y_, symObjAddr: 0x9864, symBinAddr: 0x12D30, symSize: 0x24 }
  - { offset: 0x30EED, size: 0x8, addend: 0x0, symName: __RNvXs_NtNtCse1nGBsou5OW_5alloc3vec11spec_extendINtB6_3VecNtCs3cP53eQoTwO_11proc_macro211TokenStreamEINtB4_10SpecExtendBT_INtNtNtNtCsfvfooZQ3Axs_4core4iter8adapters3map3MapINtNtNtB24_5slice4iter4IterNtCsf44oge9wsd6_12snafu_derive14FieldContainerENCNvXsm_B3c_NtB3c_11DisplayImplNtNtCs2cqEZUIJimJ_5quote9to_tokens8ToTokens9to_tokens0EE11spec_extendB3c_, symObjAddr: 0x9888, symBinAddr: 0x12D54, symSize: 0x24 }
  - { offset: 0x30F3F, size: 0x8, addend: 0x0, symName: __RNvXs_NtNtCse1nGBsou5OW_5alloc3vec11spec_extendINtB6_3VecNtCs3cP53eQoTwO_11proc_macro211TokenStreamEINtB4_10SpecExtendBT_INtNtNtNtCsfvfooZQ3Axs_4core4iter8adapters3map3MapINtNtNtB24_5slice4iter4IterNtCsf44oge9wsd6_12snafu_derive14FieldContainerENCNvXso_B3c_NtB3c_15ErrorCompatImplNtNtCs2cqEZUIJimJ_5quote9to_tokens8ToTokens9to_tokens0EE11spec_extendB3c_, symObjAddr: 0x98AC, symBinAddr: 0x12D78, symSize: 0x24 }
  - { offset: 0x30F91, size: 0x8, addend: 0x0, symName: __RNvXs_NtNtCse1nGBsou5OW_5alloc3vec11spec_extendINtB6_3VecNtCs3cP53eQoTwO_11proc_macro211TokenStreamEINtB4_10SpecExtendBT_INtNtNtNtCsfvfooZQ3Axs_4core4iter8adapters5chain5ChainINtNtB20_3map3MapINtNtB20_3zip3ZipINtNtB6_9into_iter8IntoIterNtBV_5IdentEIB2O_INtNtNtB24_5slice4iter4IterNtCsf44oge9wsd6_12snafu_derive5FieldENCNvMs_NtNtB4w_6shared16context_selectorNtB5c_15ContextSelector22extended_where_clauses0EENCB57_s_0EINtNtB20_6cloned6ClonedIB44_BT_EEEE11spec_extendB4w_, symObjAddr: 0x98D0, symBinAddr: 0x12D9C, symSize: 0x24 }
  - { offset: 0x30FE3, size: 0x8, addend: 0x0, symName: __RNvXs_NtNtCse1nGBsou5OW_5alloc3vec11spec_extendINtB6_3VecNtCs3cP53eQoTwO_11proc_macro211TokenStreamEINtB4_10SpecExtendBT_INtNtNtNtCsfvfooZQ3Axs_4core4iter8adapters5chain5ChainINtNtB6_9into_iter8IntoIterBT_EB2N_EE11spec_extendCsf44oge9wsd6_12snafu_derive, symObjAddr: 0x98F4, symBinAddr: 0x12DC0, symSize: 0x24 }
  - { offset: 0x31035, size: 0x8, addend: 0x0, symName: __RNvXs_NtNtCse1nGBsou5OW_5alloc3vec11spec_extendINtB6_3VecNtCs3cP53eQoTwO_11proc_macro25IdentEINtB4_10SpecExtendBT_INtNtNtNtCsfvfooZQ3Axs_4core4iter8adapters3map3MapINtNtNtB1X_3ops5range5RangejENCNvMs_NtNtCsf44oge9wsd6_12snafu_derive6shared16context_selectorNtB3c_15ContextSelector19user_field_generics0EE11spec_extendB3g_, symObjAddr: 0x9918, symBinAddr: 0x12DE4, symSize: 0x2C }
  - { offset: 0x31086, size: 0x8, addend: 0x0, symName: __RNvXs_NtNtCse1nGBsou5OW_5alloc3vec11spec_extendINtB6_3VecNtNtB8_6string6StringEINtB4_10SpecExtendBT_INtNtNtNtCsfvfooZQ3Axs_4core4iter8adapters3map3MapINtNtNtB1J_5slice4iter4IterReENCNvXs9_Csf44oge9wsd6_12snafu_deriveNtB30_22IncompatibleAttributesNtB30_16ErrorForLocation12for_location0EE11spec_extendB30_, symObjAddr: 0x9944, symBinAddr: 0x12E10, symSize: 0x34 }
  - { offset: 0x310D7, size: 0x8, addend: 0x0, symName: __RNvXs_NtNtCse1nGBsou5OW_5alloc3vec11spec_extendINtB6_3VecNtNtCs5AlOhPCr03V_3syn4data7VariantEINtB4_10SpecExtendBT_INtNtCsfvfooZQ3Axs_4core6option8IntoIterBT_EE11spec_extendCsf44oge9wsd6_12snafu_derive, symObjAddr: 0x9978, symBinAddr: 0x12E44, symSize: 0x24 }
  - { offset: 0x31129, size: 0x8, addend: 0x0, symName: __RNvXs_NtNtCse1nGBsou5OW_5alloc3vec11spec_extendINtB6_3VecNtNtCs5AlOhPCr03V_3syn4data7VariantEINtB4_10SpecExtendBT_INtNtNtNtCsfvfooZQ3Axs_4core4iter8adapters3map3MapINtNtB6_9into_iter8IntoIterTBT_NtNtBX_5token5CommaEENCNvXs8_NtBX_10punctuatedINtB3A_10PunctuatedBT_B37_ENtNtNtB1V_6traits7collect12IntoIterator9into_iter0EE11spec_extendCsf44oge9wsd6_12snafu_derive, symObjAddr: 0x999C, symBinAddr: 0x12E68, symSize: 0x24 }
  - { offset: 0x3117B, size: 0x8, addend: 0x0, symName: __RNvXs_NtNtCse1nGBsou5OW_5alloc3vec11spec_extendINtB6_3VecNtNtCs5AlOhPCr03V_3syn4expr4ExprEINtB4_10SpecExtendBT_INtNtCsfvfooZQ3Axs_4core6option8IntoIterBT_EE11spec_extendCsf44oge9wsd6_12snafu_derive, symObjAddr: 0x99C0, symBinAddr: 0x12E8C, symSize: 0x24 }
  - { offset: 0x311CD, size: 0x8, addend: 0x0, symName: __RNvXs_NtNtCse1nGBsou5OW_5alloc3vec11spec_extendINtB6_3VecNtNtCs5AlOhPCr03V_3syn4expr4ExprEINtB4_10SpecExtendBT_INtNtNtNtCsfvfooZQ3Axs_4core4iter8adapters3map3MapINtNtB6_9into_iter8IntoIterTBT_NtNtBX_5token5CommaEENCNvXs8_NtBX_10punctuatedINtB3x_10PunctuatedBT_B34_ENtNtNtB1S_6traits7collect12IntoIterator9into_iter0EE11spec_extendCsf44oge9wsd6_12snafu_derive, symObjAddr: 0x99E4, symBinAddr: 0x12EB0, symSize: 0x24 }
  - { offset: 0x3121F, size: 0x8, addend: 0x0, symName: __RNvXs_NtNtCse1nGBsou5OW_5alloc3vec11spec_extendINtB6_3VecNtNtCs5AlOhPCr03V_3syn5error5ErrorEINtB4_10SpecExtendBT_INtNtNtNtCsfvfooZQ3Axs_4core4iter8adapters3map3MapINtNtB6_9into_iter8IntoIterNtCsf44oge9wsd6_12snafu_derive5FieldENCNvB34_15field_containers7_0EE11spec_extendB34_, symObjAddr: 0x9A08, symBinAddr: 0x12ED4, symSize: 0x24 }
  - { offset: 0x31271, size: 0x8, addend: 0x0, symName: __RNvXs_NtNtCse1nGBsou5OW_5alloc3vec11spec_extendINtB6_3VecNtNtCsf44oge9wsd6_12snafu_derive5parse9AttributeEINtB4_10SpecExtendBT_INtNtCsfvfooZQ3Axs_4core6option8IntoIterBT_EE11spec_extendBX_, symObjAddr: 0x9A2C, symBinAddr: 0x12EF8, symSize: 0x24 }
  - { offset: 0x312C3, size: 0x8, addend: 0x0, symName: __RNvXs_NtNtCse1nGBsou5OW_5alloc3vec11spec_extendINtB6_3VecNtNtCsf44oge9wsd6_12snafu_derive5parse9AttributeEINtB4_10SpecExtendBT_INtNtNtNtCsfvfooZQ3Axs_4core4iter8adapters3map3MapINtNtB6_9into_iter8IntoIterTBT_NtNtCs5AlOhPCr03V_3syn5token5CommaEENCNvXs8_NtB3o_10punctuatedINtB42_10PunctuatedBT_B3k_ENtNtNtB28_6traits7collect12IntoIterator9into_iter0EE11spec_extendBX_, symObjAddr: 0x9A50, symBinAddr: 0x12F1C, symSize: 0x24 }
  - { offset: 0x31315, size: 0x8, addend: 0x0, symName: __RNvXs_NtNtCse1nGBsou5OW_5alloc3vec11spec_extendINtB6_3VecNtNtCsf44oge9wsd6_12snafu_derive5parse9SourceArgEINtB4_10SpecExtendBT_INtNtCsfvfooZQ3Axs_4core6option8IntoIterBT_EE11spec_extendBX_, symObjAddr: 0x9A74, symBinAddr: 0x12F40, symSize: 0x24 }
  - { offset: 0x31367, size: 0x8, addend: 0x0, symName: __RNvXs_NtNtCse1nGBsou5OW_5alloc3vec11spec_extendINtB6_3VecNtNtCsf44oge9wsd6_12snafu_derive5parse9SourceArgEINtB4_10SpecExtendBT_INtNtNtNtCsfvfooZQ3Axs_4core4iter8adapters3map3MapINtNtB6_9into_iter8IntoIterTBT_NtNtCs5AlOhPCr03V_3syn5token5CommaEENCNvXs8_NtB3o_10punctuatedINtB42_10PunctuatedBT_B3k_ENtNtNtB28_6traits7collect12IntoIterator9into_iter0EE11spec_extendBX_, symObjAddr: 0x9A98, symBinAddr: 0x12F64, symSize: 0x24 }
  - { offset: 0x313B9, size: 0x8, addend: 0x0, symName: __RNvXs_NtNtCse1nGBsou5OW_5alloc3vec11spec_extendINtB6_3VecNtNtNtCsf44oge9wsd6_12snafu_derive6shared5error11ProvidePlusEINtB4_10SpecExtendBT_INtNtNtNtCsfvfooZQ3Axs_4core4iter8adapters3map3MapINtNtB2i_9enumerate9EnumerateINtNtNtB2m_5slice4iter4IterNtBZ_7ProvideEENCNvBV_21enhance_provider_list0EE11spec_extendBZ_, symObjAddr: 0x9ABC, symBinAddr: 0x12F88, symSize: 0x24 }
  - { offset: 0x3140B, size: 0x8, addend: 0x0, symName: __RNvXs_NtNtCse1nGBsou5OW_5alloc3vec11spec_extendINtB6_3VecRNtCs3cP53eQoTwO_11proc_macro25IdentEINtB4_10SpecExtendBT_INtNtNtNtCsfvfooZQ3Axs_4core4iter8adapters3map3MapINtNtNtB1Y_5slice4iter4IterNtCsf44oge9wsd6_12snafu_derive5FieldENCNvMs_NtNtB36_6shared16context_selectorNtB3M_15ContextSelector16user_field_names0EE11spec_extendB36_, symObjAddr: 0x9AE0, symBinAddr: 0x12FAC, symSize: 0x34 }
  - { offset: 0x3145C, size: 0x8, addend: 0x0, symName: __RNvXs_NtNtCse1nGBsou5OW_5alloc3vec11spec_extendINtB6_3VecRNtCs3cP53eQoTwO_11proc_macro25IdentEINtB4_10SpecExtendBT_INtNtNtNtCsfvfooZQ3Axs_4core4iter8adapters5chain5ChainINtNtB1U_3map3MapIB1Q_IB1Q_IB1Q_INtNtNtB1Y_5slice4iter4IterNtCsf44oge9wsd6_12snafu_derive5FieldEINtNtB1Y_6option8IntoIterRB3E_EEB3d_EB4f_ENvMs1_B3G_B3E_4nameEIB4g_BT_EEE11spec_extendB3G_, symObjAddr: 0x9B14, symBinAddr: 0x12FE0, symSize: 0x24 }
  - { offset: 0x314BA, size: 0x8, addend: 0x0, symName: __RNvXNtNtCse1nGBsou5OW_5alloc3vec14spec_from_iterINtB4_3VecNtCs3cP53eQoTwO_11proc_macro211TokenStreamEINtB2_12SpecFromIterBU_INtNtNtNtCsfvfooZQ3Axs_4core4iter8adapters3map3MapINtNtCs5AlOhPCr03V_3syn10punctuated4IterNtNtB2R_8generics12GenericParamENCNvYNtCsf44oge9wsd6_12snafu_derive15NamedStructInfoNtB43_17GenericAwareNames22provided_generic_names0EE9from_iterB43_, symObjAddr: 0x6DEC, symBinAddr: 0x102B8, symSize: 0x2C }
  - { offset: 0x314F8, size: 0x8, addend: 0x0, symName: __RNvXNtNtCse1nGBsou5OW_5alloc3vec14spec_from_iterINtB4_3VecNtCs3cP53eQoTwO_11proc_macro211TokenStreamEINtB2_12SpecFromIterBU_INtNtNtNtCsfvfooZQ3Axs_4core4iter8adapters3map3MapINtNtCs5AlOhPCr03V_3syn10punctuated4IterNtNtB2R_8generics12GenericParamENCNvYNtCsf44oge9wsd6_12snafu_derive15TupleStructInfoNtB43_17GenericAwareNames22provided_generic_names0EE9from_iterB43_, symObjAddr: 0x6E18, symBinAddr: 0x102E4, symSize: 0x2C }
  - { offset: 0x31536, size: 0x8, addend: 0x0, symName: __RNvXNtNtCse1nGBsou5OW_5alloc3vec14spec_from_iterINtB4_3VecNtCs3cP53eQoTwO_11proc_macro211TokenStreamEINtB2_12SpecFromIterBU_INtNtNtNtCsfvfooZQ3Axs_4core4iter8adapters3map3MapINtNtCs5AlOhPCr03V_3syn10punctuated4IterNtNtB2R_8generics12GenericParamENCNvYNtCsf44oge9wsd6_12snafu_derive8EnumInfoNtB43_17GenericAwareNames22provided_generic_names0EE9from_iterB43_, symObjAddr: 0x6E44, symBinAddr: 0x10310, symSize: 0x2C }
  - { offset: 0x31574, size: 0x8, addend: 0x0, symName: __RNvXNtNtCse1nGBsou5OW_5alloc3vec14spec_from_iterINtB4_3VecNtCs3cP53eQoTwO_11proc_macro211TokenStreamEINtB2_12SpecFromIterBU_INtNtNtNtCsfvfooZQ3Axs_4core4iter8adapters3map3MapINtNtNtB27_5slice4iter4IterNtCsf44oge9wsd6_12snafu_derive14FieldContainerENCNvXsm_B3f_NtB3f_11DisplayImplNtNtCs2cqEZUIJimJ_5quote9to_tokens8ToTokens9to_tokens0EE9from_iterB3f_, symObjAddr: 0x6E70, symBinAddr: 0x1033C, symSize: 0x14 }
  - { offset: 0x315B3, size: 0x8, addend: 0x0, symName: __RNvXNtNtCse1nGBsou5OW_5alloc3vec14spec_from_iterINtB4_3VecNtCs3cP53eQoTwO_11proc_macro211TokenStreamEINtB2_12SpecFromIterBU_INtNtNtNtCsfvfooZQ3Axs_4core4iter8adapters3map3MapINtNtNtB27_5slice4iter4IterNtCsf44oge9wsd6_12snafu_derive14FieldContainerENCNvXso_B3f_NtB3f_15ErrorCompatImplNtNtCs2cqEZUIJimJ_5quote9to_tokens8ToTokens9to_tokens0EE9from_iterB3f_, symObjAddr: 0x6E84, symBinAddr: 0x10350, symSize: 0x14 }
  - { offset: 0x315F2, size: 0x8, addend: 0x0, symName: __RNvXNtNtCse1nGBsou5OW_5alloc3vec14spec_from_iterINtB4_3VecNtCs3cP53eQoTwO_11proc_macro211TokenStreamEINtB2_12SpecFromIterBU_INtNtNtNtCsfvfooZQ3Axs_4core4iter8adapters3map3MapNtNtCs5AlOhPCr03V_3syn8generics10TypeParamsNCNvYNtCsf44oge9wsd6_12snafu_derive15NamedStructInfoNtB3A_17GenericAwareNames39provided_generic_types_without_defaults0EE9from_iterB3A_, symObjAddr: 0x6E98, symBinAddr: 0x10364, symSize: 0x2C }
  - { offset: 0x31630, size: 0x8, addend: 0x0, symName: __RNvXNtNtCse1nGBsou5OW_5alloc3vec14spec_from_iterINtB4_3VecNtCs3cP53eQoTwO_11proc_macro211TokenStreamEINtB2_12SpecFromIterBU_INtNtNtNtCsfvfooZQ3Axs_4core4iter8adapters3map3MapNtNtCs5AlOhPCr03V_3syn8generics10TypeParamsNCNvYNtCsf44oge9wsd6_12snafu_derive8EnumInfoNtB3A_17GenericAwareNames39provided_generic_types_without_defaults0EE9from_iterB3A_, symObjAddr: 0x6EC4, symBinAddr: 0x10390, symSize: 0x2C }
  - { offset: 0x3166E, size: 0x8, addend: 0x0, symName: __RNvXNtNtCse1nGBsou5OW_5alloc3vec14spec_from_iterINtB4_3VecNtCs3cP53eQoTwO_11proc_macro211TokenStreamEINtB2_12SpecFromIterBU_INtNtNtNtCsfvfooZQ3Axs_4core4iter8adapters5chain5ChainINtNtB23_3map3MapINtNtB23_3zip3ZipINtNtB4_9into_iter8IntoIterNtBW_5IdentEIB2R_INtNtNtB27_5slice4iter4IterNtCsf44oge9wsd6_12snafu_derive5FieldENCNvMs_NtNtB4z_6shared16context_selectorNtB5f_15ContextSelector22extended_where_clauses0EENCB5a_s_0EINtNtB23_6cloned6ClonedIB47_BU_EEEE9from_iterB4z_, symObjAddr: 0x6EF0, symBinAddr: 0x103BC, symSize: 0x14 }
  - { offset: 0x316AD, size: 0x8, addend: 0x0, symName: __RNvXNtNtCse1nGBsou5OW_5alloc3vec14spec_from_iterINtB4_3VecNtCs3cP53eQoTwO_11proc_macro211TokenStreamEINtB2_12SpecFromIterBU_INtNtNtNtCsfvfooZQ3Axs_4core4iter8adapters5chain5ChainINtNtB4_9into_iter8IntoIterBU_EB2Q_EE9from_iterCsf44oge9wsd6_12snafu_derive, symObjAddr: 0x6F04, symBinAddr: 0x103D0, symSize: 0x14 }
  - { offset: 0x316EC, size: 0x8, addend: 0x0, symName: __RNvXNtNtCse1nGBsou5OW_5alloc3vec14spec_from_iterINtB4_3VecNtCs3cP53eQoTwO_11proc_macro211TokenStreamEINtB2_12SpecFromIterBU_INtNtNtNtCsfvfooZQ3Axs_4core4iter8adapters7flatten7FlatMapINtNtB27_6option4IterNtNtCs5AlOhPCr03V_3syn8generics11WhereClauseEINtNtB23_3map3MapINtNtB3j_10punctuated4IterNtB3h_14WherePredicateENCNCNvMsr_Csf44oge9wsd6_12snafu_deriveNtB5c_15TupleStructInfo14generate_snafu00ENCB56_0EE9from_iterB5c_, symObjAddr: 0x6F18, symBinAddr: 0x103E4, symSize: 0x14 }
  - { offset: 0x3172B, size: 0x8, addend: 0x0, symName: __RNvXNtNtCse1nGBsou5OW_5alloc3vec14spec_from_iterINtB4_3VecNtCs3cP53eQoTwO_11proc_macro211TokenStreamEINtB2_12SpecFromIterBU_INtNtNtNtCsfvfooZQ3Axs_4core4iter8adapters7flatten7FlatMapINtNtB27_6option4IterNtNtCs5AlOhPCr03V_3syn8generics11WhereClauseEINtNtB23_3map3MapINtNtB3j_10punctuated4IterNtB3h_14WherePredicateENCNCNvYNtCsf44oge9wsd6_12snafu_derive15NamedStructInfoNtB5b_17GenericAwareNames22provided_where_clauses00ENCB56_0EE9from_iterB5b_, symObjAddr: 0x6F2C, symBinAddr: 0x103F8, symSize: 0x14 }
  - { offset: 0x3176A, size: 0x8, addend: 0x0, symName: __RNvXNtNtCse1nGBsou5OW_5alloc3vec14spec_from_iterINtB4_3VecNtCs3cP53eQoTwO_11proc_macro211TokenStreamEINtB2_12SpecFromIterBU_INtNtNtNtCsfvfooZQ3Axs_4core4iter8adapters7flatten7FlatMapINtNtB27_6option4IterNtNtCs5AlOhPCr03V_3syn8generics11WhereClauseEINtNtB23_3map3MapINtNtB3j_10punctuated4IterNtB3h_14WherePredicateENCNCNvYNtCsf44oge9wsd6_12snafu_derive8EnumInfoNtB5b_17GenericAwareNames22provided_where_clauses00ENCB56_0EE9from_iterB5b_, symObjAddr: 0x6F40, symBinAddr: 0x1040C, symSize: 0x14 }
  - { offset: 0x317A9, size: 0x8, addend: 0x0, symName: __RNvXNtNtCse1nGBsou5OW_5alloc3vec14spec_from_iterINtB4_3VecNtCs3cP53eQoTwO_11proc_macro211TokenStreamEINtB2_12SpecFromIterBU_INtNtNtNtCsfvfooZQ3Axs_4core4iter8adapters7flatten7FlatMapINtNtCs5AlOhPCr03V_3syn10punctuated4IterNtNtB2Z_8generics12GenericParamEINtNtB27_6option6OptionBU_ENCNvYNtCsf44oge9wsd6_12snafu_derive15NamedStructInfoNtB4C_17GenericAwareNames26provided_generic_lifetimes0EE9from_iterB4C_, symObjAddr: 0x6F54, symBinAddr: 0x10420, symSize: 0x14 }
  - { offset: 0x317E8, size: 0x8, addend: 0x0, symName: __RNvXNtNtCse1nGBsou5OW_5alloc3vec14spec_from_iterINtB4_3VecNtCs3cP53eQoTwO_11proc_macro211TokenStreamEINtB2_12SpecFromIterBU_INtNtNtNtCsfvfooZQ3Axs_4core4iter8adapters7flatten7FlatMapINtNtCs5AlOhPCr03V_3syn10punctuated4IterNtNtB2Z_8generics12GenericParamEINtNtB27_6option6OptionBU_ENCNvYNtCsf44oge9wsd6_12snafu_derive8EnumInfoNtB4C_17GenericAwareNames26provided_generic_lifetimes0EE9from_iterB4C_, symObjAddr: 0x6F68, symBinAddr: 0x10434, symSize: 0x14 }
  - { offset: 0x31827, size: 0x8, addend: 0x0, symName: __RNvXNtNtCse1nGBsou5OW_5alloc3vec14spec_from_iterINtB4_3VecNtCs3cP53eQoTwO_11proc_macro25IdentEINtB2_12SpecFromIterBU_INtNtNtNtCsfvfooZQ3Axs_4core4iter8adapters3map3MapINtNtNtB20_3ops5range5RangejENCNvMs_NtNtCsf44oge9wsd6_12snafu_derive6shared16context_selectorNtB3f_15ContextSelector19user_field_generics0EE9from_iterB3j_, symObjAddr: 0x6F7C, symBinAddr: 0x10448, symSize: 0x24 }
  - { offset: 0x31865, size: 0x8, addend: 0x0, symName: __RNvXNtNtCse1nGBsou5OW_5alloc3vec14spec_from_iterINtB4_3VecNtCsf44oge9wsd6_12snafu_derive14FieldContainerEINtB2_12SpecFromIterBU_INtNtNtNtCsfvfooZQ3Axs_4core4iter8adapters7flatten7FlatMapINtNtB27_3map3MapINtNtCs5AlOhPCr03V_3syn10punctuated8IntoIterNtNtB3k_4data7VariantENCNvBW_16parse_snafu_enum0EINtNtB2b_6result6ResultBU_uENCINvXs0_NtBW_6spongeINtB5l_9AllErrorsBK_NtNtB3k_5error5ErrorEINtNtNtB29_6traits7collect12FromIteratorIB4L_BU_IBL_B5R_EEE9from_iterB2Y_E0EE9from_iterBW_, symObjAddr: 0x6FA0, symBinAddr: 0x1046C, symSize: 0x14 }
  - { offset: 0x318A4, size: 0x8, addend: 0x0, symName: __RNvXNtNtCse1nGBsou5OW_5alloc3vec14spec_from_iterINtB4_3VecNtCsf44oge9wsd6_12snafu_derive14SnafuAttributeEINtB2_12SpecFromIterBU_INtNtNtNtCsfvfooZQ3Axs_4core4iter8adapters7flatten7FlatMapINtNtB4_9into_iter8IntoIterBU_EINtNtB2b_6option6OptionBU_ENCNvBW_24parse_snafu_named_struct0EE9from_iterBW_, symObjAddr: 0x6FB4, symBinAddr: 0x10480, symSize: 0x14 }
  - { offset: 0x318E3, size: 0x8, addend: 0x0, symName: __RNvXNtNtCse1nGBsou5OW_5alloc3vec14spec_from_iterINtB4_3VecNtCsf44oge9wsd6_12snafu_derive6SourceEINtB2_12SpecFromIterBU_INtNtNtNtCsfvfooZQ3Axs_4core4iter8adapters3map3MapINtNtCs5AlOhPCr03V_3syn10punctuated8IntoIterNtNtBW_5parse9SourceArgENCNvMsB_B3r_NtB3r_6Source15into_components0EE9from_iterBW_, symObjAddr: 0x6FC8, symBinAddr: 0x10494, symSize: 0x14 }
  - { offset: 0x31922, size: 0x8, addend: 0x0, symName: __RNvXNtNtCse1nGBsou5OW_5alloc3vec14spec_from_iterINtB4_3VecNtNtB6_6string6StringEINtB2_12SpecFromIterBU_INtNtNtNtCsfvfooZQ3Axs_4core4iter8adapters3map3MapINtNtNtB1M_5slice4iter4IterReENCNvXs9_Csf44oge9wsd6_12snafu_deriveNtB33_22IncompatibleAttributesNtB33_16ErrorForLocation12for_location0EE9from_iterB33_, symObjAddr: 0x6FDC, symBinAddr: 0x104A8, symSize: 0x2C }
  - { offset: 0x31960, size: 0x8, addend: 0x0, symName: __RNvXNtNtCse1nGBsou5OW_5alloc3vec14spec_from_iterINtB4_3VecNtNtCs5AlOhPCr03V_3syn4data5FieldEINtB2_12SpecFromIterBU_INtNtBY_10punctuated8IntoIterBU_EE9from_iterCsf44oge9wsd6_12snafu_derive, symObjAddr: 0x7008, symBinAddr: 0x104D4, symSize: 0x14 }
  - { offset: 0x3199F, size: 0x8, addend: 0x0, symName: __RNvXNtNtCse1nGBsou5OW_5alloc3vec14spec_from_iterINtB4_3VecNtNtCs5AlOhPCr03V_3syn4expr4ExprEINtB2_12SpecFromIterBU_INtNtBY_10punctuated8IntoIterBU_EE9from_iterCsf44oge9wsd6_12snafu_derive, symObjAddr: 0x701C, symBinAddr: 0x104E8, symSize: 0x14 }
  - { offset: 0x319DE, size: 0x8, addend: 0x0, symName: __RNvXNtNtCse1nGBsou5OW_5alloc3vec14spec_from_iterINtB4_3VecNtNtNtCsf44oge9wsd6_12snafu_derive6shared5error11ProvidePlusEINtB2_12SpecFromIterBU_INtNtNtNtCsfvfooZQ3Axs_4core4iter8adapters3map3MapINtNtB2l_9enumerate9EnumerateINtNtNtB2p_5slice4iter4IterNtB10_7ProvideEENCNvBW_21enhance_provider_list0EE9from_iterB10_, symObjAddr: 0x7030, symBinAddr: 0x104FC, symSize: 0x14 }
  - { offset: 0x31A1D, size: 0x8, addend: 0x0, symName: __RNvXNtNtCse1nGBsou5OW_5alloc3vec14spec_from_iterINtB4_3VecRNtCs3cP53eQoTwO_11proc_macro25IdentEINtB2_12SpecFromIterBU_INtNtNtNtB6_11collections5btree3set4IterBV_EE9from_iterCsf44oge9wsd6_12snafu_derive, symObjAddr: 0x7044, symBinAddr: 0x10510, symSize: 0x14 }
  - { offset: 0x31A5C, size: 0x8, addend: 0x0, symName: __RNvXNtNtCse1nGBsou5OW_5alloc3vec14spec_from_iterINtB4_3VecRNtCs3cP53eQoTwO_11proc_macro25IdentEINtB2_12SpecFromIterBU_INtNtNtNtCsfvfooZQ3Axs_4core4iter8adapters3map3MapINtNtNtB21_5slice4iter4IterNtCsf44oge9wsd6_12snafu_derive5FieldENCNvMs_NtNtB39_6shared16context_selectorNtB3P_15ContextSelector16user_field_names0EE9from_iterB39_, symObjAddr: 0x7058, symBinAddr: 0x10524, symSize: 0x2C }
  - { offset: 0x31A9A, size: 0x8, addend: 0x0, symName: __RNvXNtNtCse1nGBsou5OW_5alloc3vec14spec_from_iterINtB4_3VecRNtCs3cP53eQoTwO_11proc_macro25IdentEINtB2_12SpecFromIterBU_INtNtNtNtCsfvfooZQ3Axs_4core4iter8adapters5chain5ChainINtNtB1X_3map3MapIB1T_IB1T_IB1T_INtNtNtB21_5slice4iter4IterNtCsf44oge9wsd6_12snafu_derive5FieldEINtNtB21_6option8IntoIterRB3H_EEB3g_EB4i_ENvMs1_B3J_B3H_4nameEIB4j_BU_EEE9from_iterB3J_, symObjAddr: 0x7084, symBinAddr: 0x10550, symSize: 0x14 }
  - { offset: 0x31AE5, size: 0x8, addend: 0x0, symName: __RNvXNtNtCse1nGBsou5OW_5alloc3vec21spec_from_iter_nestedINtB4_3VecNtCs3cP53eQoTwO_11proc_macro211TokenStreamEINtB2_18SpecFromIterNestedB11_INtNtNtNtCsfvfooZQ3Axs_4core4iter8adapters3map3MapINtNtCs5AlOhPCr03V_3syn10punctuated4IterNtNtB35_8generics12GenericParamENCNvYNtCsf44oge9wsd6_12snafu_derive15NamedStructInfoNtB4h_17GenericAwareNames22provided_generic_names0EE9from_iterB4h_, symObjAddr: 0x7098, symBinAddr: 0x10564, symSize: 0x224 }
  - { offset: 0x31D03, size: 0x8, addend: 0x0, symName: __RNvXNtNtCse1nGBsou5OW_5alloc3vec21spec_from_iter_nestedINtB4_3VecNtCs3cP53eQoTwO_11proc_macro211TokenStreamEINtB2_18SpecFromIterNestedB11_INtNtNtNtCsfvfooZQ3Axs_4core4iter8adapters3map3MapINtNtCs5AlOhPCr03V_3syn10punctuated4IterNtNtB35_8generics12GenericParamENCNvYNtCsf44oge9wsd6_12snafu_derive15TupleStructInfoNtB4h_17GenericAwareNames22provided_generic_names0EE9from_iterB4h_, symObjAddr: 0x72BC, symBinAddr: 0x10788, symSize: 0x224 }
  - { offset: 0x31F21, size: 0x8, addend: 0x0, symName: __RNvXNtNtCse1nGBsou5OW_5alloc3vec21spec_from_iter_nestedINtB4_3VecNtCs3cP53eQoTwO_11proc_macro211TokenStreamEINtB2_18SpecFromIterNestedB11_INtNtNtNtCsfvfooZQ3Axs_4core4iter8adapters3map3MapINtNtCs5AlOhPCr03V_3syn10punctuated4IterNtNtB35_8generics12GenericParamENCNvYNtCsf44oge9wsd6_12snafu_derive8EnumInfoNtB4h_17GenericAwareNames22provided_generic_names0EE9from_iterB4h_, symObjAddr: 0x74E0, symBinAddr: 0x109AC, symSize: 0x224 }
  - { offset: 0x3213F, size: 0x8, addend: 0x0, symName: __RNvXNtNtCse1nGBsou5OW_5alloc3vec21spec_from_iter_nestedINtB4_3VecNtCs3cP53eQoTwO_11proc_macro211TokenStreamEINtB2_18SpecFromIterNestedB11_INtNtNtNtCsfvfooZQ3Axs_4core4iter8adapters3map3MapNtNtCs5AlOhPCr03V_3syn8generics10TypeParamsNCNvYNtCsf44oge9wsd6_12snafu_derive15NamedStructInfoNtB3O_17GenericAwareNames39provided_generic_types_without_defaults0EE9from_iterB3O_, symObjAddr: 0x7704, symBinAddr: 0x10BD0, symSize: 0x224 }
  - { offset: 0x3235D, size: 0x8, addend: 0x0, symName: __RNvXNtNtCse1nGBsou5OW_5alloc3vec21spec_from_iter_nestedINtB4_3VecNtCs3cP53eQoTwO_11proc_macro211TokenStreamEINtB2_18SpecFromIterNestedB11_INtNtNtNtCsfvfooZQ3Axs_4core4iter8adapters3map3MapNtNtCs5AlOhPCr03V_3syn8generics10TypeParamsNCNvYNtCsf44oge9wsd6_12snafu_derive8EnumInfoNtB3O_17GenericAwareNames39provided_generic_types_without_defaults0EE9from_iterB3O_, symObjAddr: 0x7928, symBinAddr: 0x10DF4, symSize: 0x224 }
  - { offset: 0x3257B, size: 0x8, addend: 0x0, symName: __RNvXNtNtCse1nGBsou5OW_5alloc3vec21spec_from_iter_nestedINtB4_3VecNtCs3cP53eQoTwO_11proc_macro211TokenStreamEINtB2_18SpecFromIterNestedB11_INtNtNtNtCsfvfooZQ3Axs_4core4iter8adapters7flatten7FlatMapINtNtB2l_6option4IterNtNtCs5AlOhPCr03V_3syn8generics11WhereClauseEINtNtB2h_3map3MapINtNtB3x_10punctuated4IterNtB3v_14WherePredicateENCNCNvMsr_Csf44oge9wsd6_12snafu_deriveNtB5q_15TupleStructInfo14generate_snafu00ENCB5k_0EE9from_iterB5q_, symObjAddr: 0x7B4C, symBinAddr: 0x11018, symSize: 0x234 }
  - { offset: 0x3279A, size: 0x8, addend: 0x0, symName: __RNvXNtNtCse1nGBsou5OW_5alloc3vec21spec_from_iter_nestedINtB4_3VecNtCs3cP53eQoTwO_11proc_macro211TokenStreamEINtB2_18SpecFromIterNestedB11_INtNtNtNtCsfvfooZQ3Axs_4core4iter8adapters7flatten7FlatMapINtNtB2l_6option4IterNtNtCs5AlOhPCr03V_3syn8generics11WhereClauseEINtNtB2h_3map3MapINtNtB3x_10punctuated4IterNtB3v_14WherePredicateENCNCNvYNtCsf44oge9wsd6_12snafu_derive15NamedStructInfoNtB5p_17GenericAwareNames22provided_where_clauses00ENCB5k_0EE9from_iterB5p_, symObjAddr: 0x7D80, symBinAddr: 0x1124C, symSize: 0x234 }
  - { offset: 0x329B9, size: 0x8, addend: 0x0, symName: __RNvXNtNtCse1nGBsou5OW_5alloc3vec21spec_from_iter_nestedINtB4_3VecNtCs3cP53eQoTwO_11proc_macro211TokenStreamEINtB2_18SpecFromIterNestedB11_INtNtNtNtCsfvfooZQ3Axs_4core4iter8adapters7flatten7FlatMapINtNtB2l_6option4IterNtNtCs5AlOhPCr03V_3syn8generics11WhereClauseEINtNtB2h_3map3MapINtNtB3x_10punctuated4IterNtB3v_14WherePredicateENCNCNvYNtCsf44oge9wsd6_12snafu_derive8EnumInfoNtB5p_17GenericAwareNames22provided_where_clauses00ENCB5k_0EE9from_iterB5p_, symObjAddr: 0x7FB4, symBinAddr: 0x11480, symSize: 0x234 }
  - { offset: 0x32BD8, size: 0x8, addend: 0x0, symName: __RNvXNtNtCse1nGBsou5OW_5alloc3vec21spec_from_iter_nestedINtB4_3VecNtCs3cP53eQoTwO_11proc_macro211TokenStreamEINtB2_18SpecFromIterNestedB11_INtNtNtNtCsfvfooZQ3Axs_4core4iter8adapters7flatten7FlatMapINtNtCs5AlOhPCr03V_3syn10punctuated4IterNtNtB3d_8generics12GenericParamEINtNtB2l_6option6OptionB11_ENCNvYNtCsf44oge9wsd6_12snafu_derive15NamedStructInfoNtB4R_17GenericAwareNames26provided_generic_lifetimes0EE9from_iterB4R_, symObjAddr: 0x81E8, symBinAddr: 0x116B4, symSize: 0x234 }
  - { offset: 0x32DF7, size: 0x8, addend: 0x0, symName: __RNvXNtNtCse1nGBsou5OW_5alloc3vec21spec_from_iter_nestedINtB4_3VecNtCs3cP53eQoTwO_11proc_macro211TokenStreamEINtB2_18SpecFromIterNestedB11_INtNtNtNtCsfvfooZQ3Axs_4core4iter8adapters7flatten7FlatMapINtNtCs5AlOhPCr03V_3syn10punctuated4IterNtNtB3d_8generics12GenericParamEINtNtB2l_6option6OptionB11_ENCNvYNtCsf44oge9wsd6_12snafu_derive8EnumInfoNtB4R_17GenericAwareNames26provided_generic_lifetimes0EE9from_iterB4R_, symObjAddr: 0x841C, symBinAddr: 0x118E8, symSize: 0x234 }
  - { offset: 0x33016, size: 0x8, addend: 0x0, symName: __RNvXNtNtCse1nGBsou5OW_5alloc3vec21spec_from_iter_nestedINtB4_3VecNtCsf44oge9wsd6_12snafu_derive14FieldContainerEINtB2_18SpecFromIterNestedB11_INtNtNtNtCsfvfooZQ3Axs_4core4iter8adapters7flatten7FlatMapINtNtB2l_3map3MapINtNtCs5AlOhPCr03V_3syn10punctuated8IntoIterNtNtB3y_4data7VariantENCNvB13_16parse_snafu_enum0EINtNtB2p_6result6ResultB11_uENCINvXs0_NtB13_6spongeINtB5B_9AllErrorsBR_NtNtB3y_5error5ErrorEINtNtNtB2n_6traits7collect12FromIteratorIB50_B11_IBS_B68_EEE9from_iterB3c_E0EE9from_iterB13_, symObjAddr: 0x8650, symBinAddr: 0x11B1C, symSize: 0x284 }
  - { offset: 0x33235, size: 0x8, addend: 0x0, symName: __RNvXNtNtCse1nGBsou5OW_5alloc3vec21spec_from_iter_nestedINtB4_3VecNtCsf44oge9wsd6_12snafu_derive14SnafuAttributeEINtB2_18SpecFromIterNestedB11_INtNtNtNtCsfvfooZQ3Axs_4core4iter8adapters7flatten7FlatMapINtNtB4_9into_iter8IntoIterB11_EINtNtB2p_6option6OptionB11_ENCNvB13_24parse_snafu_named_struct0EE9from_iterB13_, symObjAddr: 0x88D4, symBinAddr: 0x11DA0, symSize: 0x254 }
  - { offset: 0x33454, size: 0x8, addend: 0x0, symName: __RNvXNtNtCse1nGBsou5OW_5alloc3vec21spec_from_iter_nestedINtB4_3VecNtCsf44oge9wsd6_12snafu_derive6SourceEINtB2_18SpecFromIterNestedB11_INtNtNtNtCsfvfooZQ3Axs_4core4iter8adapters3map3MapINtNtCs5AlOhPCr03V_3syn10punctuated8IntoIterNtNtB13_5parse9SourceArgENCNvMsB_B3F_NtB3F_6Source15into_components0EE9from_iterB13_, symObjAddr: 0x8B28, symBinAddr: 0x11FF4, symSize: 0x248 }
  - { offset: 0x33673, size: 0x8, addend: 0x0, symName: __RNvXNtNtCse1nGBsou5OW_5alloc3vec21spec_from_iter_nestedINtB4_3VecNtNtCs5AlOhPCr03V_3syn4data5FieldEINtB2_18SpecFromIterNestedB11_INtNtB15_10punctuated8IntoIterB11_EE9from_iterCsf44oge9wsd6_12snafu_derive, symObjAddr: 0x8D70, symBinAddr: 0x1223C, symSize: 0x240 }
  - { offset: 0x33892, size: 0x8, addend: 0x0, symName: __RNvXNtNtCse1nGBsou5OW_5alloc3vec21spec_from_iter_nestedINtB4_3VecNtNtCs5AlOhPCr03V_3syn4expr4ExprEINtB2_18SpecFromIterNestedB11_INtNtB15_10punctuated8IntoIterB11_EE9from_iterCsf44oge9wsd6_12snafu_derive, symObjAddr: 0x8FB0, symBinAddr: 0x1247C, symSize: 0x244 }
  - { offset: 0x33AB1, size: 0x8, addend: 0x0, symName: __RNvXNtNtCse1nGBsou5OW_5alloc3vec21spec_from_iter_nestedINtB4_3VecRNtCs3cP53eQoTwO_11proc_macro25IdentEINtB2_18SpecFromIterNestedB11_INtNtNtNtB6_11collections5btree3set4IterB12_EE9from_iterCsf44oge9wsd6_12snafu_derive, symObjAddr: 0x91F4, symBinAddr: 0x126C0, symSize: 0x204 }
  - { offset: 0x33CD5, size: 0x8, addend: 0x0, symName: __RNvXs_NtNtCse1nGBsou5OW_5alloc3vec21spec_from_iter_nestedINtB6_3VecNtCs3cP53eQoTwO_11proc_macro211TokenStreamEINtB4_18SpecFromIterNestedB13_INtNtNtNtCsfvfooZQ3Axs_4core4iter8adapters3map3MapINtNtB6_9into_iter8IntoIterRNtB15_5IdentENCNvMs_NtNtCsf44oge9wsd6_12snafu_derive6shared16context_selectorNtB3O_15ContextSelector20transfer_user_fields0EE9from_iterB3S_, symObjAddr: 0x9B60, symBinAddr: 0x1302C, symSize: 0x174 }
  - { offset: 0x33DAC, size: 0x8, addend: 0x0, symName: __RNvXs_NtNtCse1nGBsou5OW_5alloc3vec21spec_from_iter_nestedINtB6_3VecNtCs3cP53eQoTwO_11proc_macro211TokenStreamEINtB4_18SpecFromIterNestedB13_INtNtNtNtCsfvfooZQ3Axs_4core4iter8adapters3map3MapINtNtNtB2n_5slice4iter4IterNtCsf44oge9wsd6_12snafu_derive14FieldContainerENCNvXsm_B3v_NtB3v_11DisplayImplNtNtCs2cqEZUIJimJ_5quote9to_tokens8ToTokens9to_tokens0EE9from_iterB3v_, symObjAddr: 0x9CD4, symBinAddr: 0x131A0, symSize: 0x16C }
  - { offset: 0x33E83, size: 0x8, addend: 0x0, symName: __RNvXs_NtNtCse1nGBsou5OW_5alloc3vec21spec_from_iter_nestedINtB6_3VecNtCs3cP53eQoTwO_11proc_macro211TokenStreamEINtB4_18SpecFromIterNestedB13_INtNtNtNtCsfvfooZQ3Axs_4core4iter8adapters3map3MapINtNtNtB2n_5slice4iter4IterNtCsf44oge9wsd6_12snafu_derive14FieldContainerENCNvXso_B3v_NtB3v_15ErrorCompatImplNtNtCs2cqEZUIJimJ_5quote9to_tokens8ToTokens9to_tokens0EE9from_iterB3v_, symObjAddr: 0x9E40, symBinAddr: 0x1330C, symSize: 0x16C }
  - { offset: 0x33F5A, size: 0x8, addend: 0x0, symName: __RNvXs_NtNtCse1nGBsou5OW_5alloc3vec21spec_from_iter_nestedINtB6_3VecNtCs3cP53eQoTwO_11proc_macro211TokenStreamEINtB4_18SpecFromIterNestedB13_INtNtNtNtCsfvfooZQ3Axs_4core4iter8adapters5chain5ChainINtNtB2j_3map3MapINtNtB2j_3zip3ZipINtNtB6_9into_iter8IntoIterNtB15_5IdentEIB37_INtNtNtB2n_5slice4iter4IterNtCsf44oge9wsd6_12snafu_derive5FieldENCNvMs_NtNtB4Q_6shared16context_selectorNtB5w_15ContextSelector22extended_where_clauses0EENCB5r_s_0EINtNtB2j_6cloned6ClonedIB4o_B13_EEEE9from_iterB4Q_, symObjAddr: 0x9FAC, symBinAddr: 0x13478, symSize: 0x188 }
  - { offset: 0x34031, size: 0x8, addend: 0x0, symName: __RNvXs_NtNtCse1nGBsou5OW_5alloc3vec21spec_from_iter_nestedINtB6_3VecNtCs3cP53eQoTwO_11proc_macro211TokenStreamEINtB4_18SpecFromIterNestedB13_INtNtNtNtCsfvfooZQ3Axs_4core4iter8adapters5chain5ChainINtNtB6_9into_iter8IntoIterB13_EB36_EE9from_iterCsf44oge9wsd6_12snafu_derive, symObjAddr: 0xA134, symBinAddr: 0x13600, symSize: 0x188 }
  - { offset: 0x34109, size: 0x8, addend: 0x0, symName: __RNvXs_NtNtCse1nGBsou5OW_5alloc3vec21spec_from_iter_nestedINtB6_3VecNtCs3cP53eQoTwO_11proc_macro25IdentEINtB4_18SpecFromIterNestedB13_INtNtNtNtCsfvfooZQ3Axs_4core4iter8adapters3map3MapINtNtNtB2g_3ops5range5RangejENCNvMs_NtNtCsf44oge9wsd6_12snafu_derive6shared16context_selectorNtB3v_15ContextSelector19user_field_generics0EE9from_iterB3z_, symObjAddr: 0xA2BC, symBinAddr: 0x13788, symSize: 0x168 }
  - { offset: 0x341DF, size: 0x8, addend: 0x0, symName: __RNvXs_NtNtCse1nGBsou5OW_5alloc3vec21spec_from_iter_nestedINtB6_3VecNtNtB8_6string6StringEINtB4_18SpecFromIterNestedB13_INtNtNtNtCsfvfooZQ3Axs_4core4iter8adapters3map3MapINtNtNtB22_5slice4iter4IterReENCNvXs9_Csf44oge9wsd6_12snafu_deriveNtB3j_22IncompatibleAttributesNtB3j_16ErrorForLocation12for_location0EE9from_iterB3j_, symObjAddr: 0xA424, symBinAddr: 0x138F0, symSize: 0x168 }
  - { offset: 0x342B5, size: 0x8, addend: 0x0, symName: __RNvXs_NtNtCse1nGBsou5OW_5alloc3vec21spec_from_iter_nestedINtB6_3VecNtNtNtCsf44oge9wsd6_12snafu_derive6shared5error11ProvidePlusEINtB4_18SpecFromIterNestedB13_INtNtNtNtCsfvfooZQ3Axs_4core4iter8adapters3map3MapINtNtB2B_9enumerate9EnumerateINtNtNtB2F_5slice4iter4IterNtB19_7ProvideEENCNvB15_21enhance_provider_list0EE9from_iterB19_, symObjAddr: 0xA58C, symBinAddr: 0x13A58, symSize: 0x16C }
  - { offset: 0x3438C, size: 0x8, addend: 0x0, symName: __RNvXs_NtNtCse1nGBsou5OW_5alloc3vec21spec_from_iter_nestedINtB6_3VecRNtCs3cP53eQoTwO_11proc_macro25IdentEINtB4_18SpecFromIterNestedB13_INtNtNtNtCsfvfooZQ3Axs_4core4iter8adapters3map3MapINtNtNtB2h_5slice4iter4IterNtCsf44oge9wsd6_12snafu_derive5FieldENCNvMs_NtNtB3p_6shared16context_selectorNtB45_15ContextSelector16user_field_names0EE9from_iterB3p_, symObjAddr: 0xA6F8, symBinAddr: 0x13BC4, symSize: 0x164 }
  - { offset: 0x34462, size: 0x8, addend: 0x0, symName: __RNvXs_NtNtCse1nGBsou5OW_5alloc3vec21spec_from_iter_nestedINtB6_3VecRNtCs3cP53eQoTwO_11proc_macro25IdentEINtB4_18SpecFromIterNestedB13_INtNtNtNtCsfvfooZQ3Axs_4core4iter8adapters5chain5ChainINtNtB2d_3map3MapIB29_IB29_IB29_INtNtNtB2h_5slice4iter4IterNtCsf44oge9wsd6_12snafu_derive5FieldEINtNtB2h_6option8IntoIterRB3X_EEB3w_EB4y_ENvMs1_B3Z_B3X_4nameEIB4z_B13_EEE9from_iterB3Z_, symObjAddr: 0xA85C, symBinAddr: 0x13D28, symSize: 0x17C }
  - { offset: 0x34541, size: 0x8, addend: 0x0, symName: __RNvXs6_NtCse1nGBsou5OW_5alloc3vecINtB5_3VecNtCs3cP53eQoTwO_11proc_macro211TokenStreamENtNtNtCsfvfooZQ3Axs_4core3ops5deref5Deref5derefCsf44oge9wsd6_12snafu_derive, symObjAddr: 0x95A8, symBinAddr: 0x12A74, symSize: 0x24 }
  - { offset: 0x34581, size: 0x8, addend: 0x0, symName: __RNvXs6_NtCse1nGBsou5OW_5alloc3vecINtB5_3VecNtCs3cP53eQoTwO_11proc_macro25IdentENtNtNtCsfvfooZQ3Axs_4core3ops5deref5Deref5derefCsf44oge9wsd6_12snafu_derive, symObjAddr: 0x95CC, symBinAddr: 0x12A98, symSize: 0x24 }
  - { offset: 0x345C1, size: 0x8, addend: 0x0, symName: __RNvXs6_NtCse1nGBsou5OW_5alloc3vecINtB5_3VecNtCsf44oge9wsd6_12snafu_derive14FieldContainerENtNtNtCsfvfooZQ3Axs_4core3ops5deref5Deref5derefBH_, symObjAddr: 0x95F0, symBinAddr: 0x12ABC, symSize: 0x24 }
  - { offset: 0x34601, size: 0x8, addend: 0x0, symName: __RNvXs6_NtCse1nGBsou5OW_5alloc3vecINtB5_3VecNtCsf44oge9wsd6_12snafu_derive5FieldENtNtNtCsfvfooZQ3Axs_4core3ops5deref5Deref5derefBH_, symObjAddr: 0x9614, symBinAddr: 0x12AE0, symSize: 0x24 }
  - { offset: 0x34641, size: 0x8, addend: 0x0, symName: __RNvXs6_NtCse1nGBsou5OW_5alloc3vecINtB5_3VecNtCsf44oge9wsd6_12snafu_derive7ProvideENtNtNtCsfvfooZQ3Axs_4core3ops5deref5Deref5derefBH_, symObjAddr: 0x9638, symBinAddr: 0x12B04, symSize: 0x24 }
  - { offset: 0x34681, size: 0x8, addend: 0x0, symName: __RNvXs6_NtCse1nGBsou5OW_5alloc3vecINtB5_3VecNtNtB7_6string6StringENtNtNtCsfvfooZQ3Axs_4core3ops5deref5Deref5derefCsf44oge9wsd6_12snafu_derive, symObjAddr: 0x965C, symBinAddr: 0x12B28, symSize: 0x24 }
  - { offset: 0x346C1, size: 0x8, addend: 0x0, symName: __RNvXs6_NtCse1nGBsou5OW_5alloc3vecINtB5_3VecNtNtCs5AlOhPCr03V_3syn4expr4ExprENtNtNtCsfvfooZQ3Axs_4core3ops5deref5Deref5derefCsf44oge9wsd6_12snafu_derive, symObjAddr: 0x9680, symBinAddr: 0x12B4C, symSize: 0x24 }
  - { offset: 0x34701, size: 0x8, addend: 0x0, symName: __RNvXs6_NtCse1nGBsou5OW_5alloc3vecINtB5_3VecNtNtCs5AlOhPCr03V_3syn5error5ErrorENtNtNtCsfvfooZQ3Axs_4core3ops5deref5Deref5derefCsf44oge9wsd6_12snafu_derive, symObjAddr: 0x96A4, symBinAddr: 0x12B70, symSize: 0x24 }
  - { offset: 0x34741, size: 0x8, addend: 0x0, symName: __RNvXs6_NtCse1nGBsou5OW_5alloc3vecINtB5_3VecNtNtNtCsf44oge9wsd6_12snafu_derive6shared5error11ProvidePlusENtNtNtCsfvfooZQ3Axs_4core3ops5deref5Deref5derefBL_, symObjAddr: 0x96C8, symBinAddr: 0x12B94, symSize: 0x24 }
  - { offset: 0x34781, size: 0x8, addend: 0x0, symName: __RNvXs6_NtCse1nGBsou5OW_5alloc3vecINtB5_3VecRNtCs3cP53eQoTwO_11proc_macro25IdentENtNtNtCsfvfooZQ3Axs_4core3ops5deref5Deref5derefCsf44oge9wsd6_12snafu_derive, symObjAddr: 0x96EC, symBinAddr: 0x12BB8, symSize: 0x24 }
  - { offset: 0x347C1, size: 0x8, addend: 0x0, symName: __RNvXs6_NtCse1nGBsou5OW_5alloc3vecINtB5_3VecTNtNtCsf44oge9wsd6_12snafu_derive5parse11ProvideFlagNtNtCs5AlOhPCr03V_3syn5token5CommaEENtNtNtCsfvfooZQ3Axs_4core3ops5deref5Deref5derefBK_, symObjAddr: 0x9710, symBinAddr: 0x12BDC, symSize: 0x24 }
  - { offset: 0x34801, size: 0x8, addend: 0x0, symName: __RNvXs6_NtCse1nGBsou5OW_5alloc3vecINtB5_3VecTNtNtCsf44oge9wsd6_12snafu_derive5parse9SourceArgNtNtCs5AlOhPCr03V_3syn5token5CommaEENtNtNtCsfvfooZQ3Axs_4core3ops5deref5Deref5derefBK_, symObjAddr: 0x9734, symBinAddr: 0x12C00, symSize: 0x24 }
  - { offset: 0x348DC, size: 0x8, addend: 0x0, symName: __RNvXs_NtNtCse1nGBsou5OW_5alloc3vec16in_place_collectINtB6_3VecNtCs3cP53eQoTwO_11proc_macro211TokenStreamEINtNtB6_14spec_from_iter12SpecFromIterBY_INtNtNtNtCsfvfooZQ3Axs_4core4iter8adapters3map3MapINtNtB6_9into_iter8IntoIterRNtB10_5IdentENCNvMs_NtNtCsf44oge9wsd6_12snafu_derive6shared16context_selectorNtB3U_15ContextSelector20transfer_user_fields0EE9from_iterB3Y_, symObjAddr: 0x9B38, symBinAddr: 0x13004, symSize: 0x28 }
  - { offset: 0x3493F, size: 0x8, addend: 0x0, symName: __RNvXse_NtCse1nGBsou5OW_5alloc3vecINtB5_3VecNtCs3cP53eQoTwO_11proc_macro211TokenStreamENtNtNtNtCsfvfooZQ3Axs_4core4iter6traits7collect12IntoIterator9into_iterCsf44oge9wsd6_12snafu_derive, symObjAddr: 0xA9D8, symBinAddr: 0x13EA4, symSize: 0xDC }
  - { offset: 0x34BD1, size: 0x8, addend: 0x0, symName: __RNvXse_NtCse1nGBsou5OW_5alloc3vecINtB5_3VecNtCs3cP53eQoTwO_11proc_macro25IdentENtNtNtNtCsfvfooZQ3Axs_4core4iter6traits7collect12IntoIterator9into_iterCsf44oge9wsd6_12snafu_derive, symObjAddr: 0xAAB4, symBinAddr: 0x13F80, symSize: 0xE4 }
  - { offset: 0x34E63, size: 0x8, addend: 0x0, symName: __RNvXse_NtCse1nGBsou5OW_5alloc3vecINtB5_3VecNtCsf44oge9wsd6_12snafu_derive14SnafuAttributeENtNtNtNtCsfvfooZQ3Axs_4core4iter6traits7collect12IntoIterator9into_iterBH_, symObjAddr: 0xAB98, symBinAddr: 0x14064, symSize: 0xE4 }
  - { offset: 0x350F5, size: 0x8, addend: 0x0, symName: __RNvXse_NtCse1nGBsou5OW_5alloc3vecINtB5_3VecNtCsf44oge9wsd6_12snafu_derive5FieldENtNtNtNtCsfvfooZQ3Axs_4core4iter6traits7collect12IntoIterator9into_iterBH_, symObjAddr: 0xAC7C, symBinAddr: 0x14148, symSize: 0xE4 }
  - { offset: 0x35387, size: 0x8, addend: 0x0, symName: __RNvXse_NtCse1nGBsou5OW_5alloc3vecINtB5_3VecNtCsf44oge9wsd6_12snafu_derive6SourceENtNtNtNtCsfvfooZQ3Axs_4core4iter6traits7collect12IntoIterator9into_iterBH_, symObjAddr: 0xAD60, symBinAddr: 0x1422C, symSize: 0xDC }
  - { offset: 0x35619, size: 0x8, addend: 0x0, symName: __RNvXse_NtCse1nGBsou5OW_5alloc3vecINtB5_3VecNtNtCs5AlOhPCr03V_3syn4data7VariantENtNtNtNtCsfvfooZQ3Axs_4core4iter6traits7collect12IntoIterator9into_iterCsf44oge9wsd6_12snafu_derive, symObjAddr: 0xAE3C, symBinAddr: 0x14308, symSize: 0xE4 }
  - { offset: 0x358AB, size: 0x8, addend: 0x0, symName: __RNvXse_NtCse1nGBsou5OW_5alloc3vecINtB5_3VecNtNtCs5AlOhPCr03V_3syn4expr4ExprENtNtNtNtCsfvfooZQ3Axs_4core4iter6traits7collect12IntoIterator9into_iterCsf44oge9wsd6_12snafu_derive, symObjAddr: 0xAF20, symBinAddr: 0x143EC, symSize: 0xE4 }
  - { offset: 0x35B3D, size: 0x8, addend: 0x0, symName: __RNvXse_NtCse1nGBsou5OW_5alloc3vecINtB5_3VecNtNtCs5AlOhPCr03V_3syn5error5ErrorENtNtNtNtCsfvfooZQ3Axs_4core4iter6traits7collect12IntoIterator9into_iterCsf44oge9wsd6_12snafu_derive, symObjAddr: 0xB004, symBinAddr: 0x144D0, symSize: 0xE4 }
  - { offset: 0x35DCF, size: 0x8, addend: 0x0, symName: __RNvXse_NtCse1nGBsou5OW_5alloc3vecINtB5_3VecNtNtCsf44oge9wsd6_12snafu_derive5parse9AttributeENtNtNtNtCsfvfooZQ3Axs_4core4iter6traits7collect12IntoIterator9into_iterBJ_, symObjAddr: 0xB0E8, symBinAddr: 0x145B4, symSize: 0xE4 }
  - { offset: 0x36061, size: 0x8, addend: 0x0, symName: __RNvXse_NtCse1nGBsou5OW_5alloc3vecINtB5_3VecNtNtCsf44oge9wsd6_12snafu_derive5parse9SourceArgENtNtNtNtCsfvfooZQ3Axs_4core4iter6traits7collect12IntoIterator9into_iterBJ_, symObjAddr: 0xB1CC, symBinAddr: 0x14698, symSize: 0xE4 }
  - { offset: 0x362F3, size: 0x8, addend: 0x0, symName: __RNvXse_NtCse1nGBsou5OW_5alloc3vecINtB5_3VecRNtCs3cP53eQoTwO_11proc_macro25IdentENtNtNtNtCsfvfooZQ3Axs_4core4iter6traits7collect12IntoIterator9into_iterCsf44oge9wsd6_12snafu_derive, symObjAddr: 0xB2B0, symBinAddr: 0x1477C, symSize: 0xDC }
  - { offset: 0x36585, size: 0x8, addend: 0x0, symName: __RNvXse_NtCse1nGBsou5OW_5alloc3vecINtB5_3VecRNtNtNtCsf44oge9wsd6_12snafu_derive6shared5error11ProvidePlusENtNtNtNtCsfvfooZQ3Axs_4core4iter6traits7collect12IntoIterator9into_iterBM_, symObjAddr: 0xB38C, symBinAddr: 0x14858, symSize: 0xDC }
  - { offset: 0x36817, size: 0x8, addend: 0x0, symName: __RNvXse_NtCse1nGBsou5OW_5alloc3vecINtB5_3VecTNtNtCs5AlOhPCr03V_3syn4data7VariantNtNtBK_5token5CommaEENtNtNtNtCsfvfooZQ3Axs_4core4iter6traits7collect12IntoIterator9into_iterCsf44oge9wsd6_12snafu_derive, symObjAddr: 0xB468, symBinAddr: 0x14934, symSize: 0xE4 }
  - { offset: 0x36AA9, size: 0x8, addend: 0x0, symName: __RNvXse_NtCse1nGBsou5OW_5alloc3vecINtB5_3VecTNtNtCs5AlOhPCr03V_3syn4expr4ExprNtNtBK_5token5CommaEENtNtNtNtCsfvfooZQ3Axs_4core4iter6traits7collect12IntoIterator9into_iterCsf44oge9wsd6_12snafu_derive, symObjAddr: 0xB54C, symBinAddr: 0x14A18, symSize: 0xDC }
  - { offset: 0x36D3B, size: 0x8, addend: 0x0, symName: __RNvXse_NtCse1nGBsou5OW_5alloc3vecINtB5_3VecTNtNtCsf44oge9wsd6_12snafu_derive5parse9AttributeNtNtCs5AlOhPCr03V_3syn5token5CommaEENtNtNtNtCsfvfooZQ3Axs_4core4iter6traits7collect12IntoIterator9into_iterBK_, symObjAddr: 0xB628, symBinAddr: 0x14AF4, symSize: 0xE4 }
  - { offset: 0x36FCD, size: 0x8, addend: 0x0, symName: __RNvXse_NtCse1nGBsou5OW_5alloc3vecINtB5_3VecTNtNtCsf44oge9wsd6_12snafu_derive5parse9SourceArgNtNtCs5AlOhPCr03V_3syn5token5CommaEENtNtNtNtCsfvfooZQ3Axs_4core4iter6traits7collect12IntoIterator9into_iterBK_, symObjAddr: 0xB70C, symBinAddr: 0x14BD8, symSize: 0xE4 }
  - { offset: 0x37265, size: 0x8, addend: 0x0, symName: __RNvXsf_NtCse1nGBsou5OW_5alloc3vecRINtB5_3VecNtCsf44oge9wsd6_12snafu_derive14FieldContainerENtNtNtNtCsfvfooZQ3Axs_4core4iter6traits7collect12IntoIterator9into_iterBI_, symObjAddr: 0xB7F0, symBinAddr: 0x14CBC, symSize: 0xA4 }
  - { offset: 0x374C1, size: 0x8, addend: 0x0, symName: __RNvXsf_NtCse1nGBsou5OW_5alloc3vecRINtB5_3VecNtCsf44oge9wsd6_12snafu_derive14SnafuAttributeENtNtNtNtCsfvfooZQ3Axs_4core4iter6traits7collect12IntoIterator9into_iterBI_, symObjAddr: 0xB894, symBinAddr: 0x14D60, symSize: 0xA4 }
  - { offset: 0x3771D, size: 0x8, addend: 0x0, symName: __RNvXsf_NtCse1nGBsou5OW_5alloc3vecRINtB5_3VecNtCsf44oge9wsd6_12snafu_derive5FieldENtNtNtNtCsfvfooZQ3Axs_4core4iter6traits7collect12IntoIterator9into_iterBI_, symObjAddr: 0xB938, symBinAddr: 0x14E04, symSize: 0xA4 }
  - { offset: 0x3797F, size: 0x8, addend: 0x0, symName: __RNvXsn_NtCse1nGBsou5OW_5alloc3vecINtB5_3VecNtCs3cP53eQoTwO_11proc_macro211TokenStreamENtNtNtCsfvfooZQ3Axs_4core3ops4drop4Drop4dropCsf44oge9wsd6_12snafu_derive, symObjAddr: 0xBA08, symBinAddr: 0x14ED4, symSize: 0x38 }
  - { offset: 0x37A2F, size: 0x8, addend: 0x0, symName: __RNvXsn_NtCse1nGBsou5OW_5alloc3vecINtB5_3VecNtCs3cP53eQoTwO_11proc_macro25IdentENtNtNtCsfvfooZQ3Axs_4core3ops4drop4Drop4dropCsf44oge9wsd6_12snafu_derive, symObjAddr: 0xBA40, symBinAddr: 0x14F0C, symSize: 0x38 }
  - { offset: 0x37ADF, size: 0x8, addend: 0x0, symName: __RNvXsn_NtCse1nGBsou5OW_5alloc3vecINtB5_3VecNtCsf44oge9wsd6_12snafu_derive14FieldContainerENtNtNtCsfvfooZQ3Axs_4core3ops4drop4Drop4dropBH_, symObjAddr: 0xBA78, symBinAddr: 0x14F44, symSize: 0x38 }
  - { offset: 0x37B8F, size: 0x8, addend: 0x0, symName: __RNvXsn_NtCse1nGBsou5OW_5alloc3vecINtB5_3VecNtCsf44oge9wsd6_12snafu_derive14SnafuAttributeENtNtNtCsfvfooZQ3Axs_4core3ops4drop4Drop4dropBH_, symObjAddr: 0xBAB0, symBinAddr: 0x14F7C, symSize: 0x38 }
  - { offset: 0x37C3F, size: 0x8, addend: 0x0, symName: __RNvXsn_NtCse1nGBsou5OW_5alloc3vecINtB5_3VecNtCsf44oge9wsd6_12snafu_derive5FieldENtNtNtCsfvfooZQ3Axs_4core3ops4drop4Drop4dropBH_, symObjAddr: 0xBAE8, symBinAddr: 0x14FB4, symSize: 0x38 }
  - { offset: 0x37CEF, size: 0x8, addend: 0x0, symName: __RNvXsn_NtCse1nGBsou5OW_5alloc3vecINtB5_3VecNtCsf44oge9wsd6_12snafu_derive6SourceENtNtNtCsfvfooZQ3Axs_4core3ops4drop4Drop4dropBH_, symObjAddr: 0xBB20, symBinAddr: 0x14FEC, symSize: 0x38 }
  - { offset: 0x37D9F, size: 0x8, addend: 0x0, symName: __RNvXsn_NtCse1nGBsou5OW_5alloc3vecINtB5_3VecNtCsf44oge9wsd6_12snafu_derive7ProvideENtNtNtCsfvfooZQ3Axs_4core3ops4drop4Drop4dropBH_, symObjAddr: 0xBB58, symBinAddr: 0x15024, symSize: 0x38 }
  - { offset: 0x37E4F, size: 0x8, addend: 0x0, symName: __RNvXsn_NtCse1nGBsou5OW_5alloc3vecINtB5_3VecNtNtB7_6string6StringENtNtNtCsfvfooZQ3Axs_4core3ops4drop4Drop4dropCsf44oge9wsd6_12snafu_derive, symObjAddr: 0xBB90, symBinAddr: 0x1505C, symSize: 0x38 }
  - { offset: 0x37EFF, size: 0x8, addend: 0x0, symName: __RNvXsn_NtCse1nGBsou5OW_5alloc3vecINtB5_3VecNtNtCs5AlOhPCr03V_3syn4data7VariantENtNtNtCsfvfooZQ3Axs_4core3ops4drop4Drop4dropCsf44oge9wsd6_12snafu_derive, symObjAddr: 0xBBC8, symBinAddr: 0x15094, symSize: 0x38 }
  - { offset: 0x37FAF, size: 0x8, addend: 0x0, symName: __RNvXsn_NtCse1nGBsou5OW_5alloc3vecINtB5_3VecNtNtCs5AlOhPCr03V_3syn4expr4ExprENtNtNtCsfvfooZQ3Axs_4core3ops4drop4Drop4dropCsf44oge9wsd6_12snafu_derive, symObjAddr: 0xBC00, symBinAddr: 0x150CC, symSize: 0x38 }
  - { offset: 0x3805F, size: 0x8, addend: 0x0, symName: __RNvXsn_NtCse1nGBsou5OW_5alloc3vecINtB5_3VecNtNtCs5AlOhPCr03V_3syn5error5ErrorENtNtNtCsfvfooZQ3Axs_4core3ops4drop4Drop4dropCsf44oge9wsd6_12snafu_derive, symObjAddr: 0xBC38, symBinAddr: 0x15104, symSize: 0x38 }
  - { offset: 0x3810F, size: 0x8, addend: 0x0, symName: __RNvXsn_NtCse1nGBsou5OW_5alloc3vecINtB5_3VecNtNtCsf44oge9wsd6_12snafu_derive5parse9AttributeENtNtNtCsfvfooZQ3Axs_4core3ops4drop4Drop4dropBJ_, symObjAddr: 0xBC70, symBinAddr: 0x1513C, symSize: 0x38 }
  - { offset: 0x381BF, size: 0x8, addend: 0x0, symName: __RNvXsn_NtCse1nGBsou5OW_5alloc3vecINtB5_3VecNtNtCsf44oge9wsd6_12snafu_derive5parse9SourceArgENtNtNtCsfvfooZQ3Axs_4core3ops4drop4Drop4dropBJ_, symObjAddr: 0xBCA8, symBinAddr: 0x15174, symSize: 0x38 }
  - { offset: 0x3826F, size: 0x8, addend: 0x0, symName: __RNvXsn_NtCse1nGBsou5OW_5alloc3vecINtB5_3VecNtNtNtCsf44oge9wsd6_12snafu_derive6shared5error11ProvidePlusENtNtNtCsfvfooZQ3Axs_4core3ops4drop4Drop4dropBL_, symObjAddr: 0xBCE0, symBinAddr: 0x151AC, symSize: 0x38 }
  - { offset: 0x3831F, size: 0x8, addend: 0x0, symName: __RNvXsn_NtCse1nGBsou5OW_5alloc3vecINtB5_3VecRNtCs3cP53eQoTwO_11proc_macro25IdentENtNtNtCsfvfooZQ3Axs_4core3ops4drop4Drop4dropCsf44oge9wsd6_12snafu_derive, symObjAddr: 0xBD18, symBinAddr: 0x151E4, symSize: 0x24 }
  - { offset: 0x383CF, size: 0x8, addend: 0x0, symName: __RNvXsn_NtCse1nGBsou5OW_5alloc3vecINtB5_3VecRNtNtNtCsf44oge9wsd6_12snafu_derive6shared5error11ProvidePlusENtNtNtCsfvfooZQ3Axs_4core3ops4drop4Drop4dropBM_, symObjAddr: 0xBD3C, symBinAddr: 0x15208, symSize: 0x24 }
  - { offset: 0x3847F, size: 0x8, addend: 0x0, symName: __RNvXsn_NtCse1nGBsou5OW_5alloc3vecINtB5_3VecTNtNtCsf44oge9wsd6_12snafu_derive5parse11ProvideFlagNtNtCs5AlOhPCr03V_3syn5token5CommaEENtNtNtCsfvfooZQ3Axs_4core3ops4drop4Drop4dropBK_, symObjAddr: 0xBD60, symBinAddr: 0x1522C, symSize: 0x24 }
  - { offset: 0x3852F, size: 0x8, addend: 0x0, symName: __RNvXsn_NtCse1nGBsou5OW_5alloc3vecINtB5_3VecTNtNtCsf44oge9wsd6_12snafu_derive5parse9AttributeNtNtCs5AlOhPCr03V_3syn5token5CommaEENtNtNtCsfvfooZQ3Axs_4core3ops4drop4Drop4dropBK_, symObjAddr: 0xBD84, symBinAddr: 0x15250, symSize: 0x38 }
  - { offset: 0x385DF, size: 0x8, addend: 0x0, symName: __RNvXsn_NtCse1nGBsou5OW_5alloc3vecINtB5_3VecTNtNtCsf44oge9wsd6_12snafu_derive5parse9SourceArgNtNtCs5AlOhPCr03V_3syn5token5CommaEENtNtNtCsfvfooZQ3Axs_4core3ops4drop4Drop4dropBK_, symObjAddr: 0xBDBC, symBinAddr: 0x15288, symSize: 0x38 }
  - { offset: 0x38695, size: 0x8, addend: 0x0, symName: __RNvXso_NtCse1nGBsou5OW_5alloc3vecINtB5_3VecNtNtCs5AlOhPCr03V_3syn5error5ErrorENtNtCsfvfooZQ3Axs_4core7default7Default7defaultCsf44oge9wsd6_12snafu_derive, symObjAddr: 0xBDF4, symBinAddr: 0x152C0, symSize: 0x14 }
  - { offset: 0x386B7, size: 0x8, addend: 0x0, symName: __RNvXso_NtCse1nGBsou5OW_5alloc3vecINtB5_3VecNtNtCs5AlOhPCr03V_3syn5error5ErrorENtNtCsfvfooZQ3Axs_4core7default7Default7defaultCsf44oge9wsd6_12snafu_derive, symObjAddr: 0xBDF4, symBinAddr: 0x152C0, symSize: 0x14 }
  - { offset: 0x386D2, size: 0x8, addend: 0x0, symName: __RNvXso_NtCse1nGBsou5OW_5alloc3vecINtB5_3VecRNtNtNtCsf44oge9wsd6_12snafu_derive6shared5error11ProvidePlusENtNtCsfvfooZQ3Axs_4core7default7Default7defaultBM_, symObjAddr: 0xBE08, symBinAddr: 0x152D4, symSize: 0x14 }
  - { offset: 0x386F4, size: 0x8, addend: 0x0, symName: __RNvXso_NtCse1nGBsou5OW_5alloc3vecINtB5_3VecRNtNtNtCsf44oge9wsd6_12snafu_derive6shared5error11ProvidePlusENtNtCsfvfooZQ3Axs_4core7default7Default7defaultBM_, symObjAddr: 0xBE08, symBinAddr: 0x152D4, symSize: 0x14 }
  - { offset: 0x38C62, size: 0x8, addend: 0x0, symName: __RNvXs8_NtCse1nGBsou5OW_5alloc5sliceINtNtB7_3vec3VecRNtCs3cP53eQoTwO_11proc_macro25IdentEINtNtNtNtCsfvfooZQ3Axs_4core5slice4sort6stable8BufGuardBN_E13with_capacityCsf44oge9wsd6_12snafu_derive, symObjAddr: 0x9758, symBinAddr: 0x12C24, symSize: 0x48 }
  - { offset: 0x38D03, size: 0x8, addend: 0x0, symName: __RNvXs8_NtCse1nGBsou5OW_5alloc5sliceINtNtB7_3vec3VecRNtCs3cP53eQoTwO_11proc_macro25IdentEINtNtNtNtCsfvfooZQ3Axs_4core5slice4sort6stable8BufGuardBN_E19as_uninit_slice_mutCsf44oge9wsd6_12snafu_derive, symObjAddr: 0x97A0, symBinAddr: 0x12C6C, symSize: 0xC4 }
  - { offset: 0x38FE2, size: 0x8, addend: 0x0, symName: __RINvMsi_NtCse1nGBsou5OW_5alloc3vecINtB6_3VecNtCs3cP53eQoTwO_11proc_macro211TokenStreamE14extend_trustedINtNtNtNtCsfvfooZQ3Axs_4core4iter8adapters3map3MapINtNtB6_9into_iter8IntoIterRNtBI_5IdentENCNvMs_NtNtCsf44oge9wsd6_12snafu_derive6shared16context_selectorNtB3c_15ContextSelector20transfer_user_fields0EEB3g_, symObjAddr: 0x0, symBinAddr: 0x94CC, symSize: 0x188 }
  - { offset: 0x3E695, size: 0x8, addend: 0x0, symName: __RINvMsi_NtCse1nGBsou5OW_5alloc3vecINtB6_3VecNtCs3cP53eQoTwO_11proc_macro211TokenStreamE14extend_trustedINtNtNtNtCsfvfooZQ3Axs_4core4iter8adapters3map3MapINtNtNtB1M_5slice4iter4IterNtCsf44oge9wsd6_12snafu_derive14FieldContainerENCNvXsm_B2U_NtB2U_11DisplayImplNtNtCs2cqEZUIJimJ_5quote9to_tokens8ToTokens9to_tokens0EEB2U_, symObjAddr: 0x188, symBinAddr: 0x9654, symSize: 0x17C }
  - { offset: 0x3E95A, size: 0x8, addend: 0x0, symName: __RINvMsi_NtCse1nGBsou5OW_5alloc3vecINtB6_3VecNtCs3cP53eQoTwO_11proc_macro211TokenStreamE14extend_trustedINtNtNtNtCsfvfooZQ3Axs_4core4iter8adapters3map3MapINtNtNtB1M_5slice4iter4IterNtCsf44oge9wsd6_12snafu_derive14FieldContainerENCNvXso_B2U_NtB2U_15ErrorCompatImplNtNtCs2cqEZUIJimJ_5quote9to_tokens8ToTokens9to_tokens0EEB2U_, symObjAddr: 0x304, symBinAddr: 0x97D0, symSize: 0x17C }
  - { offset: 0x3EC2C, size: 0x8, addend: 0x0, symName: __RINvMsi_NtCse1nGBsou5OW_5alloc3vecINtB6_3VecNtCs3cP53eQoTwO_11proc_macro211TokenStreamE14extend_trustedINtNtNtNtCsfvfooZQ3Axs_4core4iter8adapters5chain5ChainINtNtB1I_3map3MapINtNtB1I_3zip3ZipINtNtB6_9into_iter8IntoIterNtBI_5IdentEIB2w_INtNtNtB1M_5slice4iter4IterNtCsf44oge9wsd6_12snafu_derive5FieldENCNvMs_NtNtB4e_6shared16context_selectorNtB4U_15ContextSelector22extended_where_clauses0EENCB4P_s_0EINtNtB1I_6cloned6ClonedIB3M_BG_EEEEB4e_, symObjAddr: 0x480, symBinAddr: 0x994C, symSize: 0x1A0 }
  - { offset: 0x3EECB, size: 0x8, addend: 0x0, symName: __RINvMsi_NtCse1nGBsou5OW_5alloc3vecINtB6_3VecNtCs3cP53eQoTwO_11proc_macro211TokenStreamE14extend_trustedINtNtNtNtCsfvfooZQ3Axs_4core4iter8adapters5chain5ChainINtNtB6_9into_iter8IntoIterBG_EB2v_EECsf44oge9wsd6_12snafu_derive, symObjAddr: 0x620, symBinAddr: 0x9AEC, symSize: 0x1A0 }
  - { offset: 0x3F252, size: 0x8, addend: 0x0, symName: __RINvMsi_NtCse1nGBsou5OW_5alloc3vecINtB6_3VecNtCs3cP53eQoTwO_11proc_macro211TokenStreamE16extend_desugaredINtNtNtNtCsfvfooZQ3Axs_4core4iter8adapters3map3MapINtNtCs5AlOhPCr03V_3syn10punctuated4IterNtNtB2y_8generics12GenericParamENCNvYNtCsf44oge9wsd6_12snafu_derive15NamedStructInfoNtB3K_17GenericAwareNames22provided_generic_names0EEB3K_, symObjAddr: 0x7C0, symBinAddr: 0x9C8C, symSize: 0x1DC }
  - { offset: 0x3F5E7, size: 0x8, addend: 0x0, symName: __RINvMsi_NtCse1nGBsou5OW_5alloc3vecINtB6_3VecNtCs3cP53eQoTwO_11proc_macro211TokenStreamE16extend_desugaredINtNtNtNtCsfvfooZQ3Axs_4core4iter8adapters3map3MapINtNtCs5AlOhPCr03V_3syn10punctuated4IterNtNtB2y_8generics12GenericParamENCNvYNtCsf44oge9wsd6_12snafu_derive15TupleStructInfoNtB3K_17GenericAwareNames22provided_generic_names0EEB3K_, symObjAddr: 0x99C, symBinAddr: 0x9E68, symSize: 0x1DC }
  - { offset: 0x3F97C, size: 0x8, addend: 0x0, symName: __RINvMsi_NtCse1nGBsou5OW_5alloc3vecINtB6_3VecNtCs3cP53eQoTwO_11proc_macro211TokenStreamE16extend_desugaredINtNtNtNtCsfvfooZQ3Axs_4core4iter8adapters3map3MapINtNtCs5AlOhPCr03V_3syn10punctuated4IterNtNtB2y_8generics12GenericParamENCNvYNtCsf44oge9wsd6_12snafu_derive8EnumInfoNtB3K_17GenericAwareNames22provided_generic_names0EEB3K_, symObjAddr: 0xB78, symBinAddr: 0xA044, symSize: 0x1DC }
  - { offset: 0x3FD11, size: 0x8, addend: 0x0, symName: __RINvMsi_NtCse1nGBsou5OW_5alloc3vecINtB6_3VecNtCs3cP53eQoTwO_11proc_macro211TokenStreamE16extend_desugaredINtNtNtNtCsfvfooZQ3Axs_4core4iter8adapters3map3MapNtNtCs5AlOhPCr03V_3syn8generics10TypeParamsNCNvYNtCsf44oge9wsd6_12snafu_derive15NamedStructInfoNtB3h_17GenericAwareNames39provided_generic_types_without_defaults0EEB3h_, symObjAddr: 0xD54, symBinAddr: 0xA220, symSize: 0x1DC }
  - { offset: 0x400A6, size: 0x8, addend: 0x0, symName: __RINvMsi_NtCse1nGBsou5OW_5alloc3vecINtB6_3VecNtCs3cP53eQoTwO_11proc_macro211TokenStreamE16extend_desugaredINtNtNtNtCsfvfooZQ3Axs_4core4iter8adapters3map3MapNtNtCs5AlOhPCr03V_3syn8generics10TypeParamsNCNvYNtCsf44oge9wsd6_12snafu_derive8EnumInfoNtB3h_17GenericAwareNames39provided_generic_types_without_defaults0EEB3h_, symObjAddr: 0xF30, symBinAddr: 0xA3FC, symSize: 0x1DC }
  - { offset: 0x40476, size: 0x8, addend: 0x0, symName: __RINvMsi_NtCse1nGBsou5OW_5alloc3vecINtB6_3VecNtCs3cP53eQoTwO_11proc_macro211TokenStreamE16extend_desugaredINtNtNtNtCsfvfooZQ3Axs_4core4iter8adapters7flatten7FlatMapINtNtB1O_6option4IterNtNtCs5AlOhPCr03V_3syn8generics11WhereClauseEINtNtB1K_3map3MapINtNtB30_10punctuated4IterNtB2Y_14WherePredicateENCNCNvMsr_Csf44oge9wsd6_12snafu_deriveNtB4T_15TupleStructInfo14generate_snafu00ENCB4N_0EEB4T_, symObjAddr: 0x110C, symBinAddr: 0xA5D8, symSize: 0x1D8 }
  - { offset: 0x4080C, size: 0x8, addend: 0x0, symName: __RINvMsi_NtCse1nGBsou5OW_5alloc3vecINtB6_3VecNtCs3cP53eQoTwO_11proc_macro211TokenStreamE16extend_desugaredINtNtNtNtCsfvfooZQ3Axs_4core4iter8adapters7flatten7FlatMapINtNtB1O_6option4IterNtNtCs5AlOhPCr03V_3syn8generics11WhereClauseEINtNtB1K_3map3MapINtNtB30_10punctuated4IterNtB2Y_14WherePredicateENCNCNvYNtCsf44oge9wsd6_12snafu_derive15NamedStructInfoNtB4S_17GenericAwareNames22provided_where_clauses00ENCB4N_0EEB4S_, symObjAddr: 0x12E4, symBinAddr: 0xA7B0, symSize: 0x1D8 }
  - { offset: 0x40BA2, size: 0x8, addend: 0x0, symName: __RINvMsi_NtCse1nGBsou5OW_5alloc3vecINtB6_3VecNtCs3cP53eQoTwO_11proc_macro211TokenStreamE16extend_desugaredINtNtNtNtCsfvfooZQ3Axs_4core4iter8adapters7flatten7FlatMapINtNtB1O_6option4IterNtNtCs5AlOhPCr03V_3syn8generics11WhereClauseEINtNtB1K_3map3MapINtNtB30_10punctuated4IterNtB2Y_14WherePredicateENCNCNvYNtCsf44oge9wsd6_12snafu_derive8EnumInfoNtB4S_17GenericAwareNames22provided_where_clauses00ENCB4N_0EEB4S_, symObjAddr: 0x14BC, symBinAddr: 0xA988, symSize: 0x1D8 }
  - { offset: 0x40F38, size: 0x8, addend: 0x0, symName: __RINvMsi_NtCse1nGBsou5OW_5alloc3vecINtB6_3VecNtCs3cP53eQoTwO_11proc_macro211TokenStreamE16extend_desugaredINtNtNtNtCsfvfooZQ3Axs_4core4iter8adapters7flatten7FlatMapINtNtCs5AlOhPCr03V_3syn10punctuated4IterNtNtB2G_8generics12GenericParamEINtNtB1O_6option6OptionBG_ENCNvYNtCsf44oge9wsd6_12snafu_derive15NamedStructInfoNtB4j_17GenericAwareNames26provided_generic_lifetimes0EEB4j_, symObjAddr: 0x1694, symBinAddr: 0xAB60, symSize: 0x1D8 }
  - { offset: 0x412CE, size: 0x8, addend: 0x0, symName: __RINvMsi_NtCse1nGBsou5OW_5alloc3vecINtB6_3VecNtCs3cP53eQoTwO_11proc_macro211TokenStreamE16extend_desugaredINtNtNtNtCsfvfooZQ3Axs_4core4iter8adapters7flatten7FlatMapINtNtCs5AlOhPCr03V_3syn10punctuated4IterNtNtB2G_8generics12GenericParamEINtNtB1O_6option6OptionBG_ENCNvYNtCsf44oge9wsd6_12snafu_derive8EnumInfoNtB4j_17GenericAwareNames26provided_generic_lifetimes0EEB4j_, symObjAddr: 0x186C, symBinAddr: 0xAD38, symSize: 0x1D8 }
  - { offset: 0x415F7, size: 0x8, addend: 0x0, symName: __RINvMsi_NtCse1nGBsou5OW_5alloc3vecINtB6_3VecNtCs3cP53eQoTwO_11proc_macro25IdentE14extend_trustedINtNtNtNtCsfvfooZQ3Axs_4core4iter8adapters3map3MapINtNtNtB1F_3ops5range5RangejENCNvMs_NtNtCsf44oge9wsd6_12snafu_derive6shared16context_selectorNtB2U_15ContextSelector19user_field_generics0EEB2Y_, symObjAddr: 0x1A44, symBinAddr: 0xAF10, symSize: 0x170 }
  - { offset: 0x41969, size: 0x8, addend: 0x0, symName: __RINvMsi_NtCse1nGBsou5OW_5alloc3vecINtB6_3VecNtCs3cP53eQoTwO_11proc_macro29TokenTreeE16extend_desugaredINtNtNtNtCsfvfooZQ3Axs_4core4iter8adapters7flatten7FlattenINtNtB1H_3map3MapIB2z_IB2z_INtNtB1H_5chain5ChainINtNtNtB1L_5slice4iter4IterNtCsf44oge9wsd6_12snafu_derive5FieldEINtNtB1L_6option8IntoIterRB3L_EENCNvMs_NtNtB3N_6shared16context_selectorNtB4Z_15ContextSelector41construct_implicit_fields_with_expression0ENCINvXs7_BI_NtBI_11TokenStreamINtNtNtB1J_6traits7collect12FromIteratorB6O_E9from_iterB2U_E0ENCINvXs6_NtBI_3impNtB8f_11TokenStreamIB77_B8o_E9from_iterB2P_Es_0EEEB3N_, symObjAddr: 0x1BB4, symBinAddr: 0xB080, symSize: 0x1D4 }
  - { offset: 0x41D7B, size: 0x8, addend: 0x0, symName: __RINvMsi_NtCse1nGBsou5OW_5alloc3vecINtB6_3VecNtCsf44oge9wsd6_12snafu_derive14FieldContainerE16extend_desugaredINtNtNtNtCsfvfooZQ3Axs_4core4iter8adapters7flatten7FlatMapINtNtB1O_3map3MapINtNtCs5AlOhPCr03V_3syn10punctuated8IntoIterNtNtB31_4data7VariantENCNvBI_16parse_snafu_enum0EINtNtB1S_6result6ResultBG_uENCINvXs0_NtBI_6spongeINtB52_9AllErrorsBw_NtNtB31_5error5ErrorEINtNtNtB1Q_6traits7collect12FromIteratorIB4s_BG_IBx_B5y_EEE9from_iterB2F_E0EEBI_, symObjAddr: 0x1D88, symBinAddr: 0xB254, symSize: 0x214 }
  - { offset: 0x421CF, size: 0x8, addend: 0x0, symName: __RINvMsi_NtCse1nGBsou5OW_5alloc3vecINtB6_3VecNtCsf44oge9wsd6_12snafu_derive14SnafuAttributeE16extend_desugaredINtNtNtNtCsfvfooZQ3Axs_4core4iter8adapters3map3MapINtNtCs5AlOhPCr03V_3syn10punctuated8IntoIterNtNtBI_5parse9AttributeENvYB3f_INtNtB1S_7convert4IntoBG_E4intoEEBI_, symObjAddr: 0x1F9C, symBinAddr: 0xB468, symSize: 0x204 }
  - { offset: 0x42590, size: 0x8, addend: 0x0, symName: __RINvMsi_NtCse1nGBsou5OW_5alloc3vecINtB6_3VecNtCsf44oge9wsd6_12snafu_derive14SnafuAttributeE16extend_desugaredINtNtNtNtCsfvfooZQ3Axs_4core4iter8adapters7flatten7FlatMapINtNtB6_9into_iter8IntoIterBG_EINtNtB1S_6option6OptionBG_ENCNvBI_24parse_snafu_named_struct0EEBI_, symObjAddr: 0x21A0, symBinAddr: 0xB66C, symSize: 0x204 }
  - { offset: 0x42974, size: 0x8, addend: 0x0, symName: __RINvMsi_NtCse1nGBsou5OW_5alloc3vecINtB6_3VecNtCsf44oge9wsd6_12snafu_derive6SourceE16extend_desugaredINtNtNtNtCsfvfooZQ3Axs_4core4iter8adapters3map3MapINtNtCs5AlOhPCr03V_3syn10punctuated8IntoIterNtNtBI_5parse9SourceArgENCNvMsB_B38_NtB38_6Source15into_components0EEBI_, symObjAddr: 0x23A4, symBinAddr: 0xB870, symSize: 0x1FC }
  - { offset: 0x42CC4, size: 0x8, addend: 0x0, symName: __RINvMsi_NtCse1nGBsou5OW_5alloc3vecINtB6_3VecNtNtB8_6string6StringE14extend_trustedINtNtNtNtCsfvfooZQ3Axs_4core4iter8adapters3map3MapINtNtNtB1r_5slice4iter4IterReENCNvXs9_Csf44oge9wsd6_12snafu_deriveNtB2I_22IncompatibleAttributesNtB2I_16ErrorForLocation12for_location0EEB2I_, symObjAddr: 0x25A0, symBinAddr: 0xBA6C, symSize: 0x170 }
  - { offset: 0x43036, size: 0x8, addend: 0x0, symName: __RINvMsi_NtCse1nGBsou5OW_5alloc3vecINtB6_3VecNtNtCs5AlOhPCr03V_3syn4data5FieldE16extend_desugaredINtNtBK_10punctuated8IntoIterBG_EECsf44oge9wsd6_12snafu_derive, symObjAddr: 0x2710, symBinAddr: 0xBBDC, symSize: 0x200 }
  - { offset: 0x4335F, size: 0x8, addend: 0x0, symName: __RINvMsi_NtCse1nGBsou5OW_5alloc3vecINtB6_3VecNtNtCs5AlOhPCr03V_3syn4data7VariantE14extend_trustedINtNtCsfvfooZQ3Axs_4core6option8IntoIterBG_EECsf44oge9wsd6_12snafu_derive, symObjAddr: 0x2910, symBinAddr: 0xBDDC, symSize: 0x1A0 }
  - { offset: 0x4360A, size: 0x8, addend: 0x0, symName: __RINvMsi_NtCse1nGBsou5OW_5alloc3vecINtB6_3VecNtNtCs5AlOhPCr03V_3syn4data7VariantE14extend_trustedINtNtNtNtCsfvfooZQ3Axs_4core4iter8adapters3map3MapINtNtB6_9into_iter8IntoIterTBG_NtNtBK_5token5CommaEENCNvXs8_NtBK_10punctuatedINtB3i_10PunctuatedBG_B2P_ENtNtNtB1D_6traits7collect12IntoIterator9into_iter0EECsf44oge9wsd6_12snafu_derive, symObjAddr: 0x2AB0, symBinAddr: 0xBF7C, symSize: 0x188 }
  - { offset: 0x438DC, size: 0x8, addend: 0x0, symName: __RINvMsi_NtCse1nGBsou5OW_5alloc3vecINtB6_3VecNtNtCs5AlOhPCr03V_3syn4expr4ExprE14extend_trustedINtNtCsfvfooZQ3Axs_4core6option8IntoIterBG_EECsf44oge9wsd6_12snafu_derive, symObjAddr: 0x2C38, symBinAddr: 0xC104, symSize: 0x1A0 }
  - { offset: 0x43B88, size: 0x8, addend: 0x0, symName: __RINvMsi_NtCse1nGBsou5OW_5alloc3vecINtB6_3VecNtNtCs5AlOhPCr03V_3syn4expr4ExprE14extend_trustedINtNtNtNtCsfvfooZQ3Axs_4core4iter8adapters3map3MapINtNtB6_9into_iter8IntoIterTBG_NtNtBK_5token5CommaEENCNvXs8_NtBK_10punctuatedINtB3f_10PunctuatedBG_B2M_ENtNtNtB1A_6traits7collect12IntoIterator9into_iter0EECsf44oge9wsd6_12snafu_derive, symObjAddr: 0x2DD8, symBinAddr: 0xC2A4, symSize: 0x188 }
  - { offset: 0x43EC7, size: 0x8, addend: 0x0, symName: __RINvMsi_NtCse1nGBsou5OW_5alloc3vecINtB6_3VecNtNtCs5AlOhPCr03V_3syn4expr4ExprE16extend_desugaredINtNtBK_10punctuated8IntoIterBG_EECsf44oge9wsd6_12snafu_derive, symObjAddr: 0x2F60, symBinAddr: 0xC42C, symSize: 0x200 }
  - { offset: 0x441F0, size: 0x8, addend: 0x0, symName: __RINvMsi_NtCse1nGBsou5OW_5alloc3vecINtB6_3VecNtNtCs5AlOhPCr03V_3syn5error5ErrorE14extend_trustedINtNtNtNtCsfvfooZQ3Axs_4core4iter8adapters3map3MapINtNtB6_9into_iter8IntoIterNtCsf44oge9wsd6_12snafu_derive5FieldENCNvB2M_15field_containers7_0EEB2M_, symObjAddr: 0x3160, symBinAddr: 0xC62C, symSize: 0x188 }
  - { offset: 0x444B5, size: 0x8, addend: 0x0, symName: __RINvMsi_NtCse1nGBsou5OW_5alloc3vecINtB6_3VecNtNtCsf44oge9wsd6_12snafu_derive5parse9AttributeE14extend_trustedINtNtCsfvfooZQ3Axs_4core6option8IntoIterBG_EEBK_, symObjAddr: 0x32E8, symBinAddr: 0xC7B4, symSize: 0x1A0 }
  - { offset: 0x44781, size: 0x8, addend: 0x0, symName: __RINvMsi_NtCse1nGBsou5OW_5alloc3vecINtB6_3VecNtNtCsf44oge9wsd6_12snafu_derive5parse9AttributeE14extend_trustedINtNtNtNtCsfvfooZQ3Axs_4core4iter8adapters3map3MapINtNtB6_9into_iter8IntoIterTBG_NtNtCs5AlOhPCr03V_3syn5token5CommaEENCNvXs8_NtB36_10punctuatedINtB3K_10PunctuatedBG_B32_ENtNtNtB1Q_6traits7collect12IntoIterator9into_iter0EEBK_, symObjAddr: 0x3488, symBinAddr: 0xC954, symSize: 0x188 }
  - { offset: 0x44A46, size: 0x8, addend: 0x0, symName: __RINvMsi_NtCse1nGBsou5OW_5alloc3vecINtB6_3VecNtNtCsf44oge9wsd6_12snafu_derive5parse9SourceArgE14extend_trustedINtNtCsfvfooZQ3Axs_4core6option8IntoIterBG_EEBK_, symObjAddr: 0x3610, symBinAddr: 0xCADC, symSize: 0x1A0 }
  - { offset: 0x44CF1, size: 0x8, addend: 0x0, symName: __RINvMsi_NtCse1nGBsou5OW_5alloc3vecINtB6_3VecNtNtCsf44oge9wsd6_12snafu_derive5parse9SourceArgE14extend_trustedINtNtNtNtCsfvfooZQ3Axs_4core4iter8adapters3map3MapINtNtB6_9into_iter8IntoIterTBG_NtNtCs5AlOhPCr03V_3syn5token5CommaEENCNvXs8_NtB36_10punctuatedINtB3K_10PunctuatedBG_B32_ENtNtNtB1Q_6traits7collect12IntoIterator9into_iter0EEBK_, symObjAddr: 0x37B0, symBinAddr: 0xCC7C, symSize: 0x188 }
  - { offset: 0x44FDD, size: 0x8, addend: 0x0, symName: __RINvMsi_NtCse1nGBsou5OW_5alloc3vecINtB6_3VecNtNtNtCsf44oge9wsd6_12snafu_derive6shared5error11ProvidePlusE14extend_trustedINtNtNtNtCsfvfooZQ3Axs_4core4iter8adapters3map3MapINtNtB20_9enumerate9EnumerateINtNtNtB24_5slice4iter4IterNtBM_7ProvideEENCNvBI_21enhance_provider_list0EEBM_, symObjAddr: 0x3938, symBinAddr: 0xCE04, symSize: 0x17C }
  - { offset: 0x452A2, size: 0x8, addend: 0x0, symName: __RINvMsi_NtCse1nGBsou5OW_5alloc3vecINtB6_3VecRNtCs3cP53eQoTwO_11proc_macro25IdentE14extend_trustedINtNtNtNtCsfvfooZQ3Axs_4core4iter8adapters3map3MapINtNtNtB1G_5slice4iter4IterNtCsf44oge9wsd6_12snafu_derive5FieldENCNvMs_NtNtB2O_6shared16context_selectorNtB3u_15ContextSelector16user_field_names0EEB2O_, symObjAddr: 0x3AB4, symBinAddr: 0xCF80, symSize: 0x170 }
  - { offset: 0x45557, size: 0x8, addend: 0x0, symName: __RINvMsi_NtCse1nGBsou5OW_5alloc3vecINtB6_3VecRNtCs3cP53eQoTwO_11proc_macro25IdentE14extend_trustedINtNtNtNtCsfvfooZQ3Axs_4core4iter8adapters5chain5ChainINtNtB1C_3map3MapIB1y_IB1y_IB1y_INtNtNtB1G_5slice4iter4IterNtCsf44oge9wsd6_12snafu_derive5FieldEINtNtB1G_6option8IntoIterRB3m_EEB2V_EB3X_ENvMs1_B3o_B3m_4nameEIB3Y_BG_EEEB3o_, symObjAddr: 0x3C24, symBinAddr: 0xD0F0, symSize: 0x194 }
  - { offset: 0x458D2, size: 0x8, addend: 0x0, symName: __RINvMsi_NtCse1nGBsou5OW_5alloc3vecINtB6_3VecRNtCs3cP53eQoTwO_11proc_macro25IdentE16extend_desugaredINtNtNtNtB8_11collections5btree3set4IterBH_EECsf44oge9wsd6_12snafu_derive, symObjAddr: 0x3DB8, symBinAddr: 0xD284, symSize: 0x174 }
  - { offset: 0x45C6C, size: 0x8, addend: 0x0, symName: __RNvMNtCse1nGBsou5OW_5alloc3vecINtB2_3VecNtCs3cP53eQoTwO_11proc_macro211TokenStreamE13with_capacityCsf44oge9wsd6_12snafu_derive, symObjAddr: 0x4E38, symBinAddr: 0xE304, symSize: 0x48 }
  - { offset: 0x45CE4, size: 0x8, addend: 0x0, symName: __RNvMNtCse1nGBsou5OW_5alloc3vecINtB2_3VecNtCsf44oge9wsd6_12snafu_derive14SnafuAttributeE3newBE_, symObjAddr: 0x4E80, symBinAddr: 0xE34C, symSize: 0x14 }
  - { offset: 0x45D01, size: 0x8, addend: 0x0, symName: __RNvMNtCse1nGBsou5OW_5alloc3vecINtB2_3VecNtCsf44oge9wsd6_12snafu_derive5FieldE3newBE_, symObjAddr: 0x4E94, symBinAddr: 0xE360, symSize: 0x14 }
  - { offset: 0x45D1E, size: 0x8, addend: 0x0, symName: __RNvMNtCse1nGBsou5OW_5alloc3vecINtB2_3VecNtCsf44oge9wsd6_12snafu_derive7ProvideE3newBE_, symObjAddr: 0x4EA8, symBinAddr: 0xE374, symSize: 0x14 }
  - { offset: 0x45D3B, size: 0x8, addend: 0x0, symName: __RNvMNtCse1nGBsou5OW_5alloc3vecINtB2_3VecNtNtCs5AlOhPCr03V_3syn4data5FieldE3newCsf44oge9wsd6_12snafu_derive, symObjAddr: 0x4EBC, symBinAddr: 0xE388, symSize: 0x14 }
  - { offset: 0x45DBA, size: 0x8, addend: 0x0, symName: __RNvMNtCse1nGBsou5OW_5alloc3vecINtB2_3VecNtNtCs5AlOhPCr03V_3syn4data7VariantE13with_capacityCsf44oge9wsd6_12snafu_derive, symObjAddr: 0x4ED0, symBinAddr: 0xE39C, symSize: 0x48 }
  - { offset: 0x45E94, size: 0x8, addend: 0x0, symName: __RNvMNtCse1nGBsou5OW_5alloc3vecINtB2_3VecNtNtCs5AlOhPCr03V_3syn4expr4ExprE13with_capacityCsf44oge9wsd6_12snafu_derive, symObjAddr: 0x4F18, symBinAddr: 0xE3E4, symSize: 0x48 }
  - { offset: 0x45F0C, size: 0x8, addend: 0x0, symName: __RNvMNtCse1nGBsou5OW_5alloc3vecINtB2_3VecNtNtCs5AlOhPCr03V_3syn5error5ErrorE3newCsf44oge9wsd6_12snafu_derive, symObjAddr: 0x4F60, symBinAddr: 0xE42C, symSize: 0x14 }
  - { offset: 0x45F8B, size: 0x8, addend: 0x0, symName: __RNvMNtCse1nGBsou5OW_5alloc3vecINtB2_3VecNtNtCsf44oge9wsd6_12snafu_derive5parse9AttributeE13with_capacityBG_, symObjAddr: 0x4F74, symBinAddr: 0xE440, symSize: 0x48 }
  - { offset: 0x46065, size: 0x8, addend: 0x0, symName: __RNvMNtCse1nGBsou5OW_5alloc3vecINtB2_3VecNtNtCsf44oge9wsd6_12snafu_derive5parse9SourceArgE13with_capacityBG_, symObjAddr: 0x4FBC, symBinAddr: 0xE488, symSize: 0x48 }
  - { offset: 0x460DD, size: 0x8, addend: 0x0, symName: __RNvMNtCse1nGBsou5OW_5alloc3vecINtB2_3VecTNtNtCsf44oge9wsd6_12snafu_derive5parse11ProvideFlagNtNtCs5AlOhPCr03V_3syn5token5CommaEE3newBH_, symObjAddr: 0x5004, symBinAddr: 0xE4D0, symSize: 0x14 }
  - { offset: 0x460FA, size: 0x8, addend: 0x0, symName: __RNvMNtCse1nGBsou5OW_5alloc3vecINtB2_3VecTNtNtCsf44oge9wsd6_12snafu_derive5parse9AttributeNtNtCs5AlOhPCr03V_3syn5token5CommaEE3newBH_, symObjAddr: 0x5018, symBinAddr: 0xE4E4, symSize: 0x14 }
  - { offset: 0x46117, size: 0x8, addend: 0x0, symName: __RNvMNtCse1nGBsou5OW_5alloc3vecINtB2_3VecTNtNtCsf44oge9wsd6_12snafu_derive5parse9SourceArgNtNtCs5AlOhPCr03V_3syn5token5CommaEE3newBH_, symObjAddr: 0x502C, symBinAddr: 0xE4F8, symSize: 0x14 }
  - { offset: 0x46213, size: 0x8, addend: 0x0, symName: __RNvMs_NtCse1nGBsou5OW_5alloc3vecINtB4_3VecNtCs3cP53eQoTwO_11proc_macro211TokenStreamE4pushCsf44oge9wsd6_12snafu_derive, symObjAddr: 0x5040, symBinAddr: 0xE50C, symSize: 0x100 }
  - { offset: 0x464F7, size: 0x8, addend: 0x0, symName: __RNvMs_NtCse1nGBsou5OW_5alloc3vecINtB4_3VecNtCs3cP53eQoTwO_11proc_macro211TokenStreamE7reserveCsf44oge9wsd6_12snafu_derive, symObjAddr: 0x5140, symBinAddr: 0xE60C, symSize: 0xC8 }
  - { offset: 0x466F5, size: 0x8, addend: 0x0, symName: __RNvMs_NtCse1nGBsou5OW_5alloc3vecINtB4_3VecNtCs3cP53eQoTwO_11proc_macro211TokenStreamE8as_sliceCsf44oge9wsd6_12snafu_derive, symObjAddr: 0x5208, symBinAddr: 0xE6D4, symSize: 0x64 }
  - { offset: 0x468C5, size: 0x8, addend: 0x0, symName: __RNvMs_NtCse1nGBsou5OW_5alloc3vecINtB4_3VecNtCs3cP53eQoTwO_11proc_macro25IdentE7reserveCsf44oge9wsd6_12snafu_derive, symObjAddr: 0x526C, symBinAddr: 0xE738, symSize: 0xC8 }
  - { offset: 0x46AD0, size: 0x8, addend: 0x0, symName: __RNvMs_NtCse1nGBsou5OW_5alloc3vecINtB4_3VecNtCs3cP53eQoTwO_11proc_macro25IdentE8as_sliceCsf44oge9wsd6_12snafu_derive, symObjAddr: 0x5334, symBinAddr: 0xE800, symSize: 0x64 }
  - { offset: 0x46B8A, size: 0x8, addend: 0x0, symName: __RNvMs_NtCse1nGBsou5OW_5alloc3vecINtB4_3VecNtCsf44oge9wsd6_12snafu_derive14FieldContainerE3lenBG_, symObjAddr: 0x5398, symBinAddr: 0xE864, symSize: 0x18 }
  - { offset: 0x46CD5, size: 0x8, addend: 0x0, symName: __RNvMs_NtCse1nGBsou5OW_5alloc3vecINtB4_3VecNtCsf44oge9wsd6_12snafu_derive14FieldContainerE7reserveBG_, symObjAddr: 0x53B0, symBinAddr: 0xE87C, symSize: 0xC8 }
  - { offset: 0x46ED3, size: 0x8, addend: 0x0, symName: __RNvMs_NtCse1nGBsou5OW_5alloc3vecINtB4_3VecNtCsf44oge9wsd6_12snafu_derive14FieldContainerE8as_sliceBG_, symObjAddr: 0x5478, symBinAddr: 0xE944, symSize: 0x64 }
  - { offset: 0x4706C, size: 0x8, addend: 0x0, symName: __RNvMs_NtCse1nGBsou5OW_5alloc3vecINtB4_3VecNtCsf44oge9wsd6_12snafu_derive14SnafuAttributeE4pushBG_, symObjAddr: 0x54DC, symBinAddr: 0xE9A8, symSize: 0x120 }
  - { offset: 0x47339, size: 0x8, addend: 0x0, symName: __RNvMs_NtCse1nGBsou5OW_5alloc3vecINtB4_3VecNtCsf44oge9wsd6_12snafu_derive14SnafuAttributeE7reserveBG_, symObjAddr: 0x55FC, symBinAddr: 0xEAC8, symSize: 0xC8 }
  - { offset: 0x475A6, size: 0x8, addend: 0x0, symName: __RNvMs_NtCse1nGBsou5OW_5alloc3vecINtB4_3VecNtCsf44oge9wsd6_12snafu_derive5FieldE4pushBG_, symObjAddr: 0x56C4, symBinAddr: 0xEB90, symSize: 0x120 }
  - { offset: 0x47801, size: 0x8, addend: 0x0, symName: __RNvMs_NtCse1nGBsou5OW_5alloc3vecINtB4_3VecNtCsf44oge9wsd6_12snafu_derive5FieldE8as_sliceBG_, symObjAddr: 0x57E4, symBinAddr: 0xECB0, symSize: 0x64 }
  - { offset: 0x479D1, size: 0x8, addend: 0x0, symName: __RNvMs_NtCse1nGBsou5OW_5alloc3vecINtB4_3VecNtCsf44oge9wsd6_12snafu_derive6SourceE7reserveBG_, symObjAddr: 0x5848, symBinAddr: 0xED14, symSize: 0xC8 }
  - { offset: 0x47C3E, size: 0x8, addend: 0x0, symName: __RNvMs_NtCse1nGBsou5OW_5alloc3vecINtB4_3VecNtCsf44oge9wsd6_12snafu_derive7ProvideE4pushBG_, symObjAddr: 0x5910, symBinAddr: 0xEDDC, symSize: 0x120 }
  - { offset: 0x47E99, size: 0x8, addend: 0x0, symName: __RNvMs_NtCse1nGBsou5OW_5alloc3vecINtB4_3VecNtCsf44oge9wsd6_12snafu_derive7ProvideE8as_sliceBG_, symObjAddr: 0x5A30, symBinAddr: 0xEEFC, symSize: 0x64 }
  - { offset: 0x48069, size: 0x8, addend: 0x0, symName: __RNvMs_NtCse1nGBsou5OW_5alloc3vecINtB4_3VecNtNtB6_6string6StringE7reserveCsf44oge9wsd6_12snafu_derive, symObjAddr: 0x5A94, symBinAddr: 0xEF60, symSize: 0xC8 }
  - { offset: 0x48274, size: 0x8, addend: 0x0, symName: __RNvMs_NtCse1nGBsou5OW_5alloc3vecINtB4_3VecNtNtB6_6string6StringE8as_sliceCsf44oge9wsd6_12snafu_derive, symObjAddr: 0x5B5C, symBinAddr: 0xF028, symSize: 0x64 }
  - { offset: 0x48444, size: 0x8, addend: 0x0, symName: __RNvMs_NtCse1nGBsou5OW_5alloc3vecINtB4_3VecNtNtCs5AlOhPCr03V_3syn4data7VariantE7reserveCsf44oge9wsd6_12snafu_derive, symObjAddr: 0x5BC0, symBinAddr: 0xF08C, symSize: 0xC8 }
  - { offset: 0x486C1, size: 0x8, addend: 0x0, symName: __RNvMs_NtCse1nGBsou5OW_5alloc3vecINtB4_3VecNtNtCs5AlOhPCr03V_3syn4expr4ExprE7reserveCsf44oge9wsd6_12snafu_derive, symObjAddr: 0x5C88, symBinAddr: 0xF154, symSize: 0xC8 }
  - { offset: 0x488BF, size: 0x8, addend: 0x0, symName: __RNvMs_NtCse1nGBsou5OW_5alloc3vecINtB4_3VecNtNtCs5AlOhPCr03V_3syn4expr4ExprE8as_sliceCsf44oge9wsd6_12snafu_derive, symObjAddr: 0x5D50, symBinAddr: 0xF21C, symSize: 0x64 }
  - { offset: 0x48A52, size: 0x8, addend: 0x0, symName: __RNvMs_NtCse1nGBsou5OW_5alloc3vecINtB4_3VecNtNtCs5AlOhPCr03V_3syn5error5ErrorE15append_elementsCsf44oge9wsd6_12snafu_derive, symObjAddr: 0x5DB4, symBinAddr: 0xF280, symSize: 0xE0 }
  - { offset: 0x48C87, size: 0x8, addend: 0x0, symName: __RNvMs_NtCse1nGBsou5OW_5alloc3vecINtB4_3VecNtNtCs5AlOhPCr03V_3syn5error5ErrorE4pushCsf44oge9wsd6_12snafu_derive, symObjAddr: 0x5E94, symBinAddr: 0xF360, symSize: 0x108 }
  - { offset: 0x48F51, size: 0x8, addend: 0x0, symName: __RNvMs_NtCse1nGBsou5OW_5alloc3vecINtB4_3VecNtNtCs5AlOhPCr03V_3syn5error5ErrorE7reserveCsf44oge9wsd6_12snafu_derive, symObjAddr: 0x5F9C, symBinAddr: 0xF468, symSize: 0xC8 }
  - { offset: 0x49146, size: 0x8, addend: 0x0, symName: __RNvMs_NtCse1nGBsou5OW_5alloc3vecINtB4_3VecNtNtCs5AlOhPCr03V_3syn5error5ErrorE8as_sliceCsf44oge9wsd6_12snafu_derive, symObjAddr: 0x6064, symBinAddr: 0xF530, symSize: 0x64 }
  - { offset: 0x49225, size: 0x8, addend: 0x0, symName: __RNvMs_NtCse1nGBsou5OW_5alloc3vecINtB4_3VecNtNtCs5AlOhPCr03V_3syn5error5ErrorE8is_emptyCsf44oge9wsd6_12snafu_derive, symObjAddr: 0x60C8, symBinAddr: 0xF594, symSize: 0x20 }
  - { offset: 0x4938E, size: 0x8, addend: 0x0, symName: __RNvMs_NtCse1nGBsou5OW_5alloc3vecINtB4_3VecNtNtCsf44oge9wsd6_12snafu_derive5parse9AttributeE7reserveBI_, symObjAddr: 0x60E8, symBinAddr: 0xF5B4, symSize: 0xC8 }
  - { offset: 0x4960B, size: 0x8, addend: 0x0, symName: __RNvMs_NtCse1nGBsou5OW_5alloc3vecINtB4_3VecNtNtCsf44oge9wsd6_12snafu_derive5parse9SourceArgE7reserveBI_, symObjAddr: 0x61B0, symBinAddr: 0xF67C, symSize: 0xC8 }
  - { offset: 0x49888, size: 0x8, addend: 0x0, symName: __RNvMs_NtCse1nGBsou5OW_5alloc3vecINtB4_3VecNtNtNtCsf44oge9wsd6_12snafu_derive6shared5error11ProvidePlusE7reserveBK_, symObjAddr: 0x6278, symBinAddr: 0xF744, symSize: 0xC8 }
  - { offset: 0x49A93, size: 0x8, addend: 0x0, symName: __RNvMs_NtCse1nGBsou5OW_5alloc3vecINtB4_3VecNtNtNtCsf44oge9wsd6_12snafu_derive6shared5error11ProvidePlusE8as_sliceBK_, symObjAddr: 0x6340, symBinAddr: 0xF80C, symSize: 0x64 }
  - { offset: 0x49C63, size: 0x8, addend: 0x0, symName: __RNvMs_NtCse1nGBsou5OW_5alloc3vecINtB4_3VecRNtCs3cP53eQoTwO_11proc_macro25IdentE7reserveCsf44oge9wsd6_12snafu_derive, symObjAddr: 0x63A4, symBinAddr: 0xF870, symSize: 0xBC }
  - { offset: 0x49E61, size: 0x8, addend: 0x0, symName: __RNvMs_NtCse1nGBsou5OW_5alloc3vecINtB4_3VecRNtCs3cP53eQoTwO_11proc_macro25IdentE8as_sliceCsf44oge9wsd6_12snafu_derive, symObjAddr: 0x6460, symBinAddr: 0xF92C, symSize: 0x60 }
  - { offset: 0x49F40, size: 0x8, addend: 0x0, symName: __RNvMs_NtCse1nGBsou5OW_5alloc3vecINtB4_3VecRNtCs3cP53eQoTwO_11proc_macro25IdentE8is_emptyCsf44oge9wsd6_12snafu_derive, symObjAddr: 0x64C0, symBinAddr: 0xF98C, symSize: 0x20 }
  - { offset: 0x4A0B3, size: 0x8, addend: 0x0, symName: __RNvMs_NtCse1nGBsou5OW_5alloc3vecINtB4_3VecRNtNtNtCsf44oge9wsd6_12snafu_derive6shared5error11ProvidePlusE4pushBL_, symObjAddr: 0x64E0, symBinAddr: 0xF9AC, symSize: 0xE4 }
  - { offset: 0x4A3BF, size: 0x8, addend: 0x0, symName: __RNvMs_NtCse1nGBsou5OW_5alloc3vecINtB4_3VecTNtNtCs5AlOhPCr03V_3syn4data5FieldNtNtBJ_5token5CommaEE3popCsf44oge9wsd6_12snafu_derive, symObjAddr: 0x65C4, symBinAddr: 0xFA90, symSize: 0x108 }
  - { offset: 0x4A563, size: 0x8, addend: 0x0, symName: __RNvMs_NtCse1nGBsou5OW_5alloc3vecINtB4_3VecTNtNtCs5AlOhPCr03V_3syn4data7VariantNtNtBJ_5token5CommaEE3lenCsf44oge9wsd6_12snafu_derive, symObjAddr: 0x66CC, symBinAddr: 0xFB98, symSize: 0x18 }
  - { offset: 0x4A6AB, size: 0x8, addend: 0x0, symName: __RNvMs_NtCse1nGBsou5OW_5alloc3vecINtB4_3VecTNtNtCsf44oge9wsd6_12snafu_derive5parse11ProvideFlagNtNtCs5AlOhPCr03V_3syn5token5CommaEE4pushBJ_, symObjAddr: 0x66E4, symBinAddr: 0xFBB0, symSize: 0xF8 }
  - { offset: 0x4A903, size: 0x8, addend: 0x0, symName: __RNvMs_NtCse1nGBsou5OW_5alloc3vecINtB4_3VecTNtNtCsf44oge9wsd6_12snafu_derive5parse11ProvideFlagNtNtCs5AlOhPCr03V_3syn5token5CommaEE8as_sliceBJ_, symObjAddr: 0x67DC, symBinAddr: 0xFCA8, symSize: 0x64 }
  - { offset: 0x4A9CA, size: 0x8, addend: 0x0, symName: __RNvMs_NtCse1nGBsou5OW_5alloc3vecINtB4_3VecTNtNtCsf44oge9wsd6_12snafu_derive5parse9AttributeNtNtCs5AlOhPCr03V_3syn5token5CommaEE3lenBJ_, symObjAddr: 0x6840, symBinAddr: 0xFD0C, symSize: 0x18 }
  - { offset: 0x4AB05, size: 0x8, addend: 0x0, symName: __RNvMs_NtCse1nGBsou5OW_5alloc3vecINtB4_3VecTNtNtCsf44oge9wsd6_12snafu_derive5parse9AttributeNtNtCs5AlOhPCr03V_3syn5token5CommaEE4pushBJ_, symObjAddr: 0x6858, symBinAddr: 0xFD24, symSize: 0x120 }
  - { offset: 0x4ACC9, size: 0x8, addend: 0x0, symName: __RNvMs_NtCse1nGBsou5OW_5alloc3vecINtB4_3VecTNtNtCsf44oge9wsd6_12snafu_derive5parse9SourceArgNtNtCs5AlOhPCr03V_3syn5token5CommaEE3lenBJ_, symObjAddr: 0x6978, symBinAddr: 0xFE44, symSize: 0x18 }
  - { offset: 0x4AE04, size: 0x8, addend: 0x0, symName: __RNvMs_NtCse1nGBsou5OW_5alloc3vecINtB4_3VecTNtNtCsf44oge9wsd6_12snafu_derive5parse9SourceArgNtNtCs5AlOhPCr03V_3syn5token5CommaEE4pushBJ_, symObjAddr: 0x6990, symBinAddr: 0xFE5C, symSize: 0x120 }
  - { offset: 0x4B052, size: 0x8, addend: 0x0, symName: __RNvMs_NtCse1nGBsou5OW_5alloc3vecINtB4_3VecTNtNtCsf44oge9wsd6_12snafu_derive5parse9SourceArgNtNtCs5AlOhPCr03V_3syn5token5CommaEE8as_sliceBJ_, symObjAddr: 0x6AB0, symBinAddr: 0xFF7C, symSize: 0x64 }
  - { offset: 0x4C551, size: 0x8, addend: 0x0, symName: __RNvXs4_NtNtCs2cqEZUIJimJ_5quote9___private3extINtNtCse1nGBsou5OW_5alloc3vec3VecNtCs3cP53eQoTwO_11proc_macro211TokenStreamENtB5_16RepAsIteratorExt15quote_into_iterCsf44oge9wsd6_12snafu_derive, symObjAddr: 0x9490, symBinAddr: 0x1295C, symSize: 0x38 }
  - { offset: 0x4C586, size: 0x8, addend: 0x0, symName: __RNvXs4_NtNtCs2cqEZUIJimJ_5quote9___private3extINtNtCse1nGBsou5OW_5alloc3vec3VecNtCs3cP53eQoTwO_11proc_macro25IdentENtB5_16RepAsIteratorExt15quote_into_iterCsf44oge9wsd6_12snafu_derive, symObjAddr: 0x94C8, symBinAddr: 0x12994, symSize: 0x38 }
  - { offset: 0x4C5BB, size: 0x8, addend: 0x0, symName: __RNvXs4_NtNtCs2cqEZUIJimJ_5quote9___private3extINtNtCse1nGBsou5OW_5alloc3vec3VecNtNtCs5AlOhPCr03V_3syn4attr9AttributeENtB5_16RepAsIteratorExt15quote_into_iterCsf44oge9wsd6_12snafu_derive, symObjAddr: 0x9500, symBinAddr: 0x129CC, symSize: 0x38 }
  - { offset: 0x4C5F0, size: 0x8, addend: 0x0, symName: __RNvXs4_NtNtCs2cqEZUIJimJ_5quote9___private3extINtNtCse1nGBsou5OW_5alloc3vec3VecNtNtCs5AlOhPCr03V_3syn4expr4ExprENtB5_16RepAsIteratorExt15quote_into_iterCsf44oge9wsd6_12snafu_derive, symObjAddr: 0x9538, symBinAddr: 0x12A04, symSize: 0x38 }
  - { offset: 0x4C625, size: 0x8, addend: 0x0, symName: __RNvXs4_NtNtCs2cqEZUIJimJ_5quote9___private3extINtNtCse1nGBsou5OW_5alloc3vec3VecRNtCs3cP53eQoTwO_11proc_macro25IdentENtB5_16RepAsIteratorExt15quote_into_iterCsf44oge9wsd6_12snafu_derive, symObjAddr: 0x9570, symBinAddr: 0x12A3C, symSize: 0x38 }
  - { offset: 0x4F0A5, size: 0x8, addend: 0x0, symName: __RINvMs3_NtNtCse1nGBsou5OW_5alloc11collections9vec_dequeINtB6_8VecDequeTINtNtBa_5boxed3BoxDNtNtCs2cqEZUIJimJ_5quote9to_tokens8ToTokensEL_ENtCs3cP53eQoTwO_11proc_macro211TokenStreamEE12slice_rangesNtNtNtCsfvfooZQ3Axs_4core3ops5range9RangeFullECsf44oge9wsd6_12snafu_derive, symObjAddr: 0x0, symBinAddr: 0x152E8, symSize: 0x204 }
  - { offset: 0x56BD6, size: 0x8, addend: 0x0, symName: __RNvXNvXs_NtNtCse1nGBsou5OW_5alloc11collections9vec_dequeINtB7_8VecDequeppENtNtNtCsfvfooZQ3Axs_4core3ops4drop4Drop4dropINtB2_7DropperTINtNtB1g_6option6OptionTNtNtCs5AlOhPCr03V_3syn2ty4TypeNtNtB2z_4expr4ExprEENtCs3cP53eQoTwO_11proc_macro211TokenStreamEEB1a_4dropCsf44oge9wsd6_12snafu_derive, symObjAddr: 0x5C7C, symBinAddr: 0x1AF64, symSize: 0x30 }
  - { offset: 0x56C07, size: 0x8, addend: 0x0, symName: __RNvXNvXs_NtNtCse1nGBsou5OW_5alloc11collections9vec_dequeINtB7_8VecDequeppENtNtNtCsfvfooZQ3Axs_4core3ops4drop4Drop4dropINtB2_7DropperTINtNtBb_5boxed3BoxDNtNtCs2cqEZUIJimJ_5quote9to_tokens8ToTokensEL_ENtCs3cP53eQoTwO_11proc_macro211TokenStreamEEB1a_4dropCsf44oge9wsd6_12snafu_derive, symObjAddr: 0x5CAC, symBinAddr: 0x1AF94, symSize: 0x30 }
  - { offset: 0x56C38, size: 0x8, addend: 0x0, symName: __RNvXNvXs_NtNtCse1nGBsou5OW_5alloc11collections9vec_dequeINtB7_8VecDequeppENtNtNtCsfvfooZQ3Axs_4core3ops4drop4Drop4dropINtB2_7DropperTNtCsf44oge9wsd6_12snafu_derive10ModuleNameNtCs3cP53eQoTwO_11proc_macro211TokenStreamEEB1a_4dropB29_, symObjAddr: 0x5CDC, symBinAddr: 0x1AFC4, symSize: 0x30 }
  - { offset: 0x56C69, size: 0x8, addend: 0x0, symName: __RNvXNvXs_NtNtCse1nGBsou5OW_5alloc11collections9vec_dequeINtB7_8VecDequeppENtNtNtCsfvfooZQ3Axs_4core3ops4drop4Drop4dropINtB2_7DropperTNtCsf44oge9wsd6_12snafu_derive10SuffixKindNtCs3cP53eQoTwO_11proc_macro211TokenStreamEEB1a_4dropB29_, symObjAddr: 0x5D0C, symBinAddr: 0x1AFF4, symSize: 0x30 }
  - { offset: 0x56C9A, size: 0x8, addend: 0x0, symName: __RNvXNvXs_NtNtCse1nGBsou5OW_5alloc11collections9vec_dequeINtB7_8VecDequeppENtNtNtCsfvfooZQ3Axs_4core3ops4drop4Drop4dropINtB2_7DropperTNtCsf44oge9wsd6_12snafu_derive11SourceFieldNtCs3cP53eQoTwO_11proc_macro211TokenStreamEEB1a_4dropB29_, symObjAddr: 0x5D3C, symBinAddr: 0x1B024, symSize: 0x30 }
  - { offset: 0x56CCB, size: 0x8, addend: 0x0, symName: __RNvXNvXs_NtNtCse1nGBsou5OW_5alloc11collections9vec_dequeINtB7_8VecDequeppENtNtNtCsfvfooZQ3Axs_4core3ops4drop4Drop4dropINtB2_7DropperTNtCsf44oge9wsd6_12snafu_derive5FieldNtCs3cP53eQoTwO_11proc_macro211TokenStreamEEB1a_4dropB29_, symObjAddr: 0x5D6C, symBinAddr: 0x1B054, symSize: 0x30 }
  - { offset: 0x56CFC, size: 0x8, addend: 0x0, symName: __RNvXNvXs_NtNtCse1nGBsou5OW_5alloc11collections9vec_dequeINtB7_8VecDequeppENtNtNtCsfvfooZQ3Axs_4core3ops4drop4Drop4dropINtB2_7DropperTNtCsf44oge9wsd6_12snafu_derive5FieldNtNtCs5AlOhPCr03V_3syn4data5FieldEEB1a_4dropB29_, symObjAddr: 0x5D9C, symBinAddr: 0x1B084, symSize: 0x30 }
  - { offset: 0x56D2D, size: 0x8, addend: 0x0, symName: __RNvXNvXs_NtNtCse1nGBsou5OW_5alloc11collections9vec_dequeINtB7_8VecDequeppENtNtNtCsfvfooZQ3Axs_4core3ops4drop4Drop4dropINtB2_7DropperTNtCsf44oge9wsd6_12snafu_derive7ContextNtCs3cP53eQoTwO_11proc_macro211TokenStreamEEB1a_4dropB29_, symObjAddr: 0x5DCC, symBinAddr: 0x1B0B4, symSize: 0x30 }
  - { offset: 0x56D5E, size: 0x8, addend: 0x0, symName: __RNvXNvXs_NtNtCse1nGBsou5OW_5alloc11collections9vec_dequeINtB7_8VecDequeppENtNtNtCsfvfooZQ3Axs_4core3ops4drop4Drop4dropINtB2_7DropperTNtCsf44oge9wsd6_12snafu_derive7DisplayNtCs3cP53eQoTwO_11proc_macro211TokenStreamEEB1a_4dropB29_, symObjAddr: 0x5DFC, symBinAddr: 0x1B0E4, symSize: 0x30 }
  - { offset: 0x56D8F, size: 0x8, addend: 0x0, symName: __RNvXNvXs_NtNtCse1nGBsou5OW_5alloc11collections9vec_dequeINtB7_8VecDequeppENtNtNtCsfvfooZQ3Axs_4core3ops4drop4Drop4dropINtB2_7DropperTTNtNtCs5AlOhPCr03V_3syn2ty4TypeNtNtB2c_4expr4ExprENtCs3cP53eQoTwO_11proc_macro211TokenStreamEEB1a_4dropCsf44oge9wsd6_12snafu_derive, symObjAddr: 0x5E2C, symBinAddr: 0x1B114, symSize: 0x30 }
  - { offset: 0x56DC0, size: 0x8, addend: 0x0, symName: __RNvXNvXs_NtNtCse1nGBsou5OW_5alloc11collections9vec_dequeINtB7_8VecDequeppENtNtNtCsfvfooZQ3Axs_4core3ops4drop4Drop4dropINtB2_7DropperTuNtCs3cP53eQoTwO_11proc_macro211TokenStreamEEB1a_4dropCsf44oge9wsd6_12snafu_derive, symObjAddr: 0x5E5C, symBinAddr: 0x1B144, symSize: 0x30 }
  - { offset: 0x56F3D, size: 0x8, addend: 0x0, symName: __RNvXs_NtNtCse1nGBsou5OW_5alloc11collections9vec_dequeINtB4_8VecDequeTINtNtB8_5boxed3BoxDNtNtCs2cqEZUIJimJ_5quote9to_tokens8ToTokensEL_ENtCs3cP53eQoTwO_11proc_macro211TokenStreamEENtNtNtCsfvfooZQ3Axs_4core3ops4drop4Drop4dropCsf44oge9wsd6_12snafu_derive, symObjAddr: 0x5E8C, symBinAddr: 0x1B174, symSize: 0xC8 }
  - { offset: 0x5713A, size: 0x8, addend: 0x0, symName: __RNvXs_NtNtCse1nGBsou5OW_5alloc11collections9vec_dequeINtB4_8VecDequeTINtNtCsfvfooZQ3Axs_4core6option6OptionTNtNtCs5AlOhPCr03V_3syn2ty4TypeNtNtB1M_4expr4ExprEENtCs3cP53eQoTwO_11proc_macro211TokenStreamEENtNtNtB1a_3ops4drop4Drop4dropCsf44oge9wsd6_12snafu_derive, symObjAddr: 0x5F54, symBinAddr: 0x1B23C, symSize: 0xC8 }
  - { offset: 0x57337, size: 0x8, addend: 0x0, symName: __RNvXs_NtNtCse1nGBsou5OW_5alloc11collections9vec_dequeINtB4_8VecDequeTNtCsf44oge9wsd6_12snafu_derive10ModuleNameNtCs3cP53eQoTwO_11proc_macro211TokenStreamEENtNtNtCsfvfooZQ3Axs_4core3ops4drop4Drop4dropB17_, symObjAddr: 0x601C, symBinAddr: 0x1B304, symSize: 0xC8 }
  - { offset: 0x57534, size: 0x8, addend: 0x0, symName: __RNvXs_NtNtCse1nGBsou5OW_5alloc11collections9vec_dequeINtB4_8VecDequeTNtCsf44oge9wsd6_12snafu_derive10SuffixKindNtCs3cP53eQoTwO_11proc_macro211TokenStreamEENtNtNtCsfvfooZQ3Axs_4core3ops4drop4Drop4dropB17_, symObjAddr: 0x60E4, symBinAddr: 0x1B3CC, symSize: 0xC8 }
  - { offset: 0x57731, size: 0x8, addend: 0x0, symName: __RNvXs_NtNtCse1nGBsou5OW_5alloc11collections9vec_dequeINtB4_8VecDequeTNtCsf44oge9wsd6_12snafu_derive11SourceFieldNtCs3cP53eQoTwO_11proc_macro211TokenStreamEENtNtNtCsfvfooZQ3Axs_4core3ops4drop4Drop4dropB17_, symObjAddr: 0x61AC, symBinAddr: 0x1B494, symSize: 0xC8 }
  - { offset: 0x5792E, size: 0x8, addend: 0x0, symName: __RNvXs_NtNtCse1nGBsou5OW_5alloc11collections9vec_dequeINtB4_8VecDequeTNtCsf44oge9wsd6_12snafu_derive5FieldNtCs3cP53eQoTwO_11proc_macro211TokenStreamEENtNtNtCsfvfooZQ3Axs_4core3ops4drop4Drop4dropB17_, symObjAddr: 0x6274, symBinAddr: 0x1B55C, symSize: 0xC8 }
  - { offset: 0x57B2B, size: 0x8, addend: 0x0, symName: __RNvXs_NtNtCse1nGBsou5OW_5alloc11collections9vec_dequeINtB4_8VecDequeTNtCsf44oge9wsd6_12snafu_derive5FieldNtNtCs5AlOhPCr03V_3syn4data5FieldEENtNtNtCsfvfooZQ3Axs_4core3ops4drop4Drop4dropB17_, symObjAddr: 0x633C, symBinAddr: 0x1B624, symSize: 0xC8 }
  - { offset: 0x57D28, size: 0x8, addend: 0x0, symName: __RNvXs_NtNtCse1nGBsou5OW_5alloc11collections9vec_dequeINtB4_8VecDequeTNtCsf44oge9wsd6_12snafu_derive7ContextNtCs3cP53eQoTwO_11proc_macro211TokenStreamEENtNtNtCsfvfooZQ3Axs_4core3ops4drop4Drop4dropB17_, symObjAddr: 0x6404, symBinAddr: 0x1B6EC, symSize: 0xC8 }
  - { offset: 0x57F25, size: 0x8, addend: 0x0, symName: __RNvXs_NtNtCse1nGBsou5OW_5alloc11collections9vec_dequeINtB4_8VecDequeTNtCsf44oge9wsd6_12snafu_derive7DisplayNtCs3cP53eQoTwO_11proc_macro211TokenStreamEENtNtNtCsfvfooZQ3Axs_4core3ops4drop4Drop4dropB17_, symObjAddr: 0x64CC, symBinAddr: 0x1B7B4, symSize: 0xC8 }
  - { offset: 0x58122, size: 0x8, addend: 0x0, symName: __RNvXs_NtNtCse1nGBsou5OW_5alloc11collections9vec_dequeINtB4_8VecDequeTTNtNtCs5AlOhPCr03V_3syn2ty4TypeNtNtB1a_4expr4ExprENtCs3cP53eQoTwO_11proc_macro211TokenStreamEENtNtNtCsfvfooZQ3Axs_4core3ops4drop4Drop4dropCsf44oge9wsd6_12snafu_derive, symObjAddr: 0x6594, symBinAddr: 0x1B87C, symSize: 0xC8 }
  - { offset: 0x5831F, size: 0x8, addend: 0x0, symName: __RNvXs_NtNtCse1nGBsou5OW_5alloc11collections9vec_dequeINtB4_8VecDequeTuNtCs3cP53eQoTwO_11proc_macro211TokenStreamEENtNtNtCsfvfooZQ3Axs_4core3ops4drop4Drop4dropCsf44oge9wsd6_12snafu_derive, symObjAddr: 0x665C, symBinAddr: 0x1B944, symSize: 0xBC }
  - { offset: 0x59F74, size: 0x8, addend: 0x0, symName: __RINvMs3_NtNtCse1nGBsou5OW_5alloc11collections9vec_dequeINtB6_8VecDequeTINtNtBa_5boxed3BoxDNtNtCs2cqEZUIJimJ_5quote9to_tokens8ToTokensEL_ENtCs3cP53eQoTwO_11proc_macro211TokenStreamEE12slice_rangesNtNtNtCsfvfooZQ3Axs_4core3ops5range9RangeFullECsf44oge9wsd6_12snafu_derive, symObjAddr: 0x0, symBinAddr: 0x152E8, symSize: 0x204 }
  - { offset: 0x5F4E9, size: 0x8, addend: 0x0, symName: __RINvMs3_NtNtCse1nGBsou5OW_5alloc11collections9vec_dequeINtB6_8VecDequeTINtNtCsfvfooZQ3Axs_4core6option6OptionTNtNtCs5AlOhPCr03V_3syn2ty4TypeNtNtB1O_4expr4ExprEENtCs3cP53eQoTwO_11proc_macro211TokenStreamEE12slice_rangesNtNtNtB1c_3ops5range9RangeFullECsf44oge9wsd6_12snafu_derive, symObjAddr: 0x204, symBinAddr: 0x154EC, symSize: 0x204 }
  - { offset: 0x5FB8E, size: 0x8, addend: 0x0, symName: __RINvMs3_NtNtCse1nGBsou5OW_5alloc11collections9vec_dequeINtB6_8VecDequeTNtCsf44oge9wsd6_12snafu_derive10ModuleNameNtCs3cP53eQoTwO_11proc_macro211TokenStreamEE12slice_rangesNtNtNtCsfvfooZQ3Axs_4core3ops5range9RangeFullEB19_, symObjAddr: 0x408, symBinAddr: 0x156F0, symSize: 0x204 }
  - { offset: 0x5FFFB, size: 0x8, addend: 0x0, symName: __RINvMs3_NtNtCse1nGBsou5OW_5alloc11collections9vec_dequeINtB6_8VecDequeTNtCsf44oge9wsd6_12snafu_derive10SuffixKindNtCs3cP53eQoTwO_11proc_macro211TokenStreamEE12slice_rangesNtNtNtCsfvfooZQ3Axs_4core3ops5range9RangeFullEB19_, symObjAddr: 0x60C, symBinAddr: 0x158F4, symSize: 0x204 }
  - { offset: 0x6046A, size: 0x8, addend: 0x0, symName: __RINvMs3_NtNtCse1nGBsou5OW_5alloc11collections9vec_dequeINtB6_8VecDequeTNtCsf44oge9wsd6_12snafu_derive11SourceFieldNtCs3cP53eQoTwO_11proc_macro211TokenStreamEE12slice_rangesNtNtNtCsfvfooZQ3Axs_4core3ops5range9RangeFullEB19_, symObjAddr: 0x810, symBinAddr: 0x15AF8, symSize: 0x204 }
  - { offset: 0x608D9, size: 0x8, addend: 0x0, symName: __RINvMs3_NtNtCse1nGBsou5OW_5alloc11collections9vec_dequeINtB6_8VecDequeTNtCsf44oge9wsd6_12snafu_derive5FieldNtCs3cP53eQoTwO_11proc_macro211TokenStreamEE12slice_rangesNtNtNtCsfvfooZQ3Axs_4core3ops5range9RangeFullEB19_, symObjAddr: 0xA14, symBinAddr: 0x15CFC, symSize: 0x204 }
  - { offset: 0x60D48, size: 0x8, addend: 0x0, symName: __RINvMs3_NtNtCse1nGBsou5OW_5alloc11collections9vec_dequeINtB6_8VecDequeTNtCsf44oge9wsd6_12snafu_derive5FieldNtNtCs5AlOhPCr03V_3syn4data5FieldEE12slice_rangesNtNtNtCsfvfooZQ3Axs_4core3ops5range9RangeFullEB19_, symObjAddr: 0xC18, symBinAddr: 0x15F00, symSize: 0x204 }
  - { offset: 0x611B5, size: 0x8, addend: 0x0, symName: __RINvMs3_NtNtCse1nGBsou5OW_5alloc11collections9vec_dequeINtB6_8VecDequeTNtCsf44oge9wsd6_12snafu_derive7ContextNtCs3cP53eQoTwO_11proc_macro211TokenStreamEE12slice_rangesNtNtNtCsfvfooZQ3Axs_4core3ops5range9RangeFullEB19_, symObjAddr: 0xE1C, symBinAddr: 0x16104, symSize: 0x204 }
  - { offset: 0x616B3, size: 0x8, addend: 0x0, symName: __RINvMs3_NtNtCse1nGBsou5OW_5alloc11collections9vec_dequeINtB6_8VecDequeTNtCsf44oge9wsd6_12snafu_derive7DisplayNtCs3cP53eQoTwO_11proc_macro211TokenStreamEE12slice_rangesNtNtNtCsfvfooZQ3Axs_4core3ops5range9RangeFullEB19_, symObjAddr: 0x1020, symBinAddr: 0x16308, symSize: 0x204 }
  - { offset: 0x61B22, size: 0x8, addend: 0x0, symName: __RINvMs3_NtNtCse1nGBsou5OW_5alloc11collections9vec_dequeINtB6_8VecDequeTTNtNtCs5AlOhPCr03V_3syn2ty4TypeNtNtB1c_4expr4ExprENtCs3cP53eQoTwO_11proc_macro211TokenStreamEE12slice_rangesNtNtNtCsfvfooZQ3Axs_4core3ops5range9RangeFullECsf44oge9wsd6_12snafu_derive, symObjAddr: 0x1224, symBinAddr: 0x1650C, symSize: 0x204 }
  - { offset: 0x61F8F, size: 0x8, addend: 0x0, symName: __RINvMs3_NtNtCse1nGBsou5OW_5alloc11collections9vec_dequeINtB6_8VecDequeTuNtCs3cP53eQoTwO_11proc_macro211TokenStreamEE12slice_rangesNtNtNtCsfvfooZQ3Axs_4core3ops5range9RangeFullECsf44oge9wsd6_12snafu_derive, symObjAddr: 0x1428, symBinAddr: 0x16710, symSize: 0x204 }
  - { offset: 0x625FF, size: 0x8, addend: 0x0, symName: __RNvMs1_NtNtCse1nGBsou5OW_5alloc11collections9vec_dequeINtB5_8VecDequeTINtNtB9_5boxed3BoxDNtNtCs2cqEZUIJimJ_5quote9to_tokens8ToTokensEL_ENtCs3cP53eQoTwO_11proc_macro211TokenStreamEE24handle_capacity_increaseCsf44oge9wsd6_12snafu_derive, symObjAddr: 0x162C, symBinAddr: 0x16914, symSize: 0x244 }
  - { offset: 0x62CB4, size: 0x8, addend: 0x0, symName: __RNvMs1_NtNtCse1nGBsou5OW_5alloc11collections9vec_dequeINtB5_8VecDequeTINtNtCsfvfooZQ3Axs_4core6option6OptionTNtNtCs5AlOhPCr03V_3syn2ty4TypeNtNtB1N_4expr4ExprEENtCs3cP53eQoTwO_11proc_macro211TokenStreamEE24handle_capacity_increaseCsf44oge9wsd6_12snafu_derive, symObjAddr: 0x1870, symBinAddr: 0x16B58, symSize: 0x244 }
  - { offset: 0x63369, size: 0x8, addend: 0x0, symName: __RNvMs1_NtNtCse1nGBsou5OW_5alloc11collections9vec_dequeINtB5_8VecDequeTNtCsf44oge9wsd6_12snafu_derive10ModuleNameNtCs3cP53eQoTwO_11proc_macro211TokenStreamEE24handle_capacity_increaseB18_, symObjAddr: 0x1AB4, symBinAddr: 0x16D9C, symSize: 0x244 }
  - { offset: 0x63A1E, size: 0x8, addend: 0x0, symName: __RNvMs1_NtNtCse1nGBsou5OW_5alloc11collections9vec_dequeINtB5_8VecDequeTNtCsf44oge9wsd6_12snafu_derive10SuffixKindNtCs3cP53eQoTwO_11proc_macro211TokenStreamEE24handle_capacity_increaseB18_, symObjAddr: 0x1CF8, symBinAddr: 0x16FE0, symSize: 0x244 }
  - { offset: 0x640D3, size: 0x8, addend: 0x0, symName: __RNvMs1_NtNtCse1nGBsou5OW_5alloc11collections9vec_dequeINtB5_8VecDequeTNtCsf44oge9wsd6_12snafu_derive11SourceFieldNtCs3cP53eQoTwO_11proc_macro211TokenStreamEE24handle_capacity_increaseB18_, symObjAddr: 0x1F3C, symBinAddr: 0x17224, symSize: 0x244 }
  - { offset: 0x64788, size: 0x8, addend: 0x0, symName: __RNvMs1_NtNtCse1nGBsou5OW_5alloc11collections9vec_dequeINtB5_8VecDequeTNtCsf44oge9wsd6_12snafu_derive5FieldNtCs3cP53eQoTwO_11proc_macro211TokenStreamEE24handle_capacity_increaseB18_, symObjAddr: 0x2180, symBinAddr: 0x17468, symSize: 0x244 }
  - { offset: 0x64E3D, size: 0x8, addend: 0x0, symName: __RNvMs1_NtNtCse1nGBsou5OW_5alloc11collections9vec_dequeINtB5_8VecDequeTNtCsf44oge9wsd6_12snafu_derive5FieldNtNtCs5AlOhPCr03V_3syn4data5FieldEE24handle_capacity_increaseB18_, symObjAddr: 0x23C4, symBinAddr: 0x176AC, symSize: 0x244 }
  - { offset: 0x654F2, size: 0x8, addend: 0x0, symName: __RNvMs1_NtNtCse1nGBsou5OW_5alloc11collections9vec_dequeINtB5_8VecDequeTNtCsf44oge9wsd6_12snafu_derive7ContextNtCs3cP53eQoTwO_11proc_macro211TokenStreamEE24handle_capacity_increaseB18_, symObjAddr: 0x2608, symBinAddr: 0x178F0, symSize: 0x244 }
  - { offset: 0x65BA7, size: 0x8, addend: 0x0, symName: __RNvMs1_NtNtCse1nGBsou5OW_5alloc11collections9vec_dequeINtB5_8VecDequeTNtCsf44oge9wsd6_12snafu_derive7DisplayNtCs3cP53eQoTwO_11proc_macro211TokenStreamEE24handle_capacity_increaseB18_, symObjAddr: 0x284C, symBinAddr: 0x17B34, symSize: 0x244 }
  - { offset: 0x6625C, size: 0x8, addend: 0x0, symName: __RNvMs1_NtNtCse1nGBsou5OW_5alloc11collections9vec_dequeINtB5_8VecDequeTTNtNtCs5AlOhPCr03V_3syn2ty4TypeNtNtB1b_4expr4ExprENtCs3cP53eQoTwO_11proc_macro211TokenStreamEE24handle_capacity_increaseCsf44oge9wsd6_12snafu_derive, symObjAddr: 0x2A90, symBinAddr: 0x17D78, symSize: 0x244 }
  - { offset: 0x66911, size: 0x8, addend: 0x0, symName: __RNvMs1_NtNtCse1nGBsou5OW_5alloc11collections9vec_dequeINtB5_8VecDequeTuNtCs3cP53eQoTwO_11proc_macro211TokenStreamEE24handle_capacity_increaseCsf44oge9wsd6_12snafu_derive, symObjAddr: 0x2CD4, symBinAddr: 0x17FBC, symSize: 0x22C }
  - { offset: 0x66DF1, size: 0x8, addend: 0x0, symName: __RNvMs2_NtNtCse1nGBsou5OW_5alloc11collections9vec_dequeINtB5_8VecDequeTINtNtB9_5boxed3BoxDNtNtCs2cqEZUIJimJ_5quote9to_tokens8ToTokensEL_ENtCs3cP53eQoTwO_11proc_macro211TokenStreamEE3newCsf44oge9wsd6_12snafu_derive, symObjAddr: 0x2F00, symBinAddr: 0x181E8, symSize: 0x1C }
  - { offset: 0x66E0E, size: 0x8, addend: 0x0, symName: __RNvMs2_NtNtCse1nGBsou5OW_5alloc11collections9vec_dequeINtB5_8VecDequeTINtNtCsfvfooZQ3Axs_4core6option6OptionTNtNtCs5AlOhPCr03V_3syn2ty4TypeNtNtB1N_4expr4ExprEENtCs3cP53eQoTwO_11proc_macro211TokenStreamEE3newCsf44oge9wsd6_12snafu_derive, symObjAddr: 0x2F1C, symBinAddr: 0x18204, symSize: 0x1C }
  - { offset: 0x66E2B, size: 0x8, addend: 0x0, symName: __RNvMs2_NtNtCse1nGBsou5OW_5alloc11collections9vec_dequeINtB5_8VecDequeTNtCsf44oge9wsd6_12snafu_derive10ModuleNameNtCs3cP53eQoTwO_11proc_macro211TokenStreamEE3newB18_, symObjAddr: 0x2F38, symBinAddr: 0x18220, symSize: 0x1C }
  - { offset: 0x66E48, size: 0x8, addend: 0x0, symName: __RNvMs2_NtNtCse1nGBsou5OW_5alloc11collections9vec_dequeINtB5_8VecDequeTNtCsf44oge9wsd6_12snafu_derive10SuffixKindNtCs3cP53eQoTwO_11proc_macro211TokenStreamEE3newB18_, symObjAddr: 0x2F54, symBinAddr: 0x1823C, symSize: 0x1C }
  - { offset: 0x66E65, size: 0x8, addend: 0x0, symName: __RNvMs2_NtNtCse1nGBsou5OW_5alloc11collections9vec_dequeINtB5_8VecDequeTNtCsf44oge9wsd6_12snafu_derive11SourceFieldNtCs3cP53eQoTwO_11proc_macro211TokenStreamEE3newB18_, symObjAddr: 0x2F70, symBinAddr: 0x18258, symSize: 0x1C }
  - { offset: 0x66E82, size: 0x8, addend: 0x0, symName: __RNvMs2_NtNtCse1nGBsou5OW_5alloc11collections9vec_dequeINtB5_8VecDequeTNtCsf44oge9wsd6_12snafu_derive5FieldNtCs3cP53eQoTwO_11proc_macro211TokenStreamEE3newB18_, symObjAddr: 0x2F8C, symBinAddr: 0x18274, symSize: 0x1C }
  - { offset: 0x66E9F, size: 0x8, addend: 0x0, symName: __RNvMs2_NtNtCse1nGBsou5OW_5alloc11collections9vec_dequeINtB5_8VecDequeTNtCsf44oge9wsd6_12snafu_derive5FieldNtNtCs5AlOhPCr03V_3syn4data5FieldEE3newB18_, symObjAddr: 0x2FA8, symBinAddr: 0x18290, symSize: 0x1C }
  - { offset: 0x66EBC, size: 0x8, addend: 0x0, symName: __RNvMs2_NtNtCse1nGBsou5OW_5alloc11collections9vec_dequeINtB5_8VecDequeTNtCsf44oge9wsd6_12snafu_derive7ContextNtCs3cP53eQoTwO_11proc_macro211TokenStreamEE3newB18_, symObjAddr: 0x2FC4, symBinAddr: 0x182AC, symSize: 0x1C }
  - { offset: 0x66ED9, size: 0x8, addend: 0x0, symName: __RNvMs2_NtNtCse1nGBsou5OW_5alloc11collections9vec_dequeINtB5_8VecDequeTNtCsf44oge9wsd6_12snafu_derive7DisplayNtCs3cP53eQoTwO_11proc_macro211TokenStreamEE3newB18_, symObjAddr: 0x2FE0, symBinAddr: 0x182C8, symSize: 0x1C }
  - { offset: 0x66EF6, size: 0x8, addend: 0x0, symName: __RNvMs2_NtNtCse1nGBsou5OW_5alloc11collections9vec_dequeINtB5_8VecDequeTTNtNtCs5AlOhPCr03V_3syn2ty4TypeNtNtB1b_4expr4ExprENtCs3cP53eQoTwO_11proc_macro211TokenStreamEE3newCsf44oge9wsd6_12snafu_derive, symObjAddr: 0x2FFC, symBinAddr: 0x182E4, symSize: 0x1C }
  - { offset: 0x66F13, size: 0x8, addend: 0x0, symName: __RNvMs2_NtNtCse1nGBsou5OW_5alloc11collections9vec_dequeINtB5_8VecDequeTuNtCs3cP53eQoTwO_11proc_macro211TokenStreamEE3newCsf44oge9wsd6_12snafu_derive, symObjAddr: 0x3018, symBinAddr: 0x18300, symSize: 0x1C }
  - { offset: 0x66FC1, size: 0x8, addend: 0x0, symName: __RNvMs3_NtNtCse1nGBsou5OW_5alloc11collections9vec_dequeINtB5_8VecDequeTINtNtB9_5boxed3BoxDNtNtCs2cqEZUIJimJ_5quote9to_tokens8ToTokensEL_ENtCs3cP53eQoTwO_11proc_macro211TokenStreamEE4growCsf44oge9wsd6_12snafu_derive, symObjAddr: 0x3034, symBinAddr: 0x1831C, symSize: 0x74 }
  - { offset: 0x670AD, size: 0x8, addend: 0x0, symName: __RNvMs3_NtNtCse1nGBsou5OW_5alloc11collections9vec_dequeINtB5_8VecDequeTINtNtB9_5boxed3BoxDNtNtCs2cqEZUIJimJ_5quote9to_tokens8ToTokensEL_ENtCs3cP53eQoTwO_11proc_macro211TokenStreamEE8is_emptyCsf44oge9wsd6_12snafu_derive, symObjAddr: 0x30A8, symBinAddr: 0x18390, symSize: 0x20 }
  - { offset: 0x67294, size: 0x8, addend: 0x0, symName: __RNvMs3_NtNtCse1nGBsou5OW_5alloc11collections9vec_dequeINtB5_8VecDequeTINtNtB9_5boxed3BoxDNtNtCs2cqEZUIJimJ_5quote9to_tokens8ToTokensEL_ENtCs3cP53eQoTwO_11proc_macro211TokenStreamEE9pop_frontCsf44oge9wsd6_12snafu_derive, symObjAddr: 0x30C8, symBinAddr: 0x183B0, symSize: 0x1B0 }
  - { offset: 0x6773E, size: 0x8, addend: 0x0, symName: __RNvMs3_NtNtCse1nGBsou5OW_5alloc11collections9vec_dequeINtB5_8VecDequeTINtNtB9_5boxed3BoxDNtNtCs2cqEZUIJimJ_5quote9to_tokens8ToTokensEL_ENtCs3cP53eQoTwO_11proc_macro211TokenStreamEE9push_backCsf44oge9wsd6_12snafu_derive, symObjAddr: 0x3278, symBinAddr: 0x18560, symSize: 0x1A0 }
  - { offset: 0x67A9A, size: 0x8, addend: 0x0, symName: __RNvMs3_NtNtCse1nGBsou5OW_5alloc11collections9vec_dequeINtB5_8VecDequeTINtNtCsfvfooZQ3Axs_4core6option6OptionTNtNtCs5AlOhPCr03V_3syn2ty4TypeNtNtB1N_4expr4ExprEENtCs3cP53eQoTwO_11proc_macro211TokenStreamEE4growCsf44oge9wsd6_12snafu_derive, symObjAddr: 0x3418, symBinAddr: 0x18700, symSize: 0x74 }
  - { offset: 0x67DE6, size: 0x8, addend: 0x0, symName: __RNvMs3_NtNtCse1nGBsou5OW_5alloc11collections9vec_dequeINtB5_8VecDequeTINtNtCsfvfooZQ3Axs_4core6option6OptionTNtNtCs5AlOhPCr03V_3syn2ty4TypeNtNtB1N_4expr4ExprEENtCs3cP53eQoTwO_11proc_macro211TokenStreamEE4iterCsf44oge9wsd6_12snafu_derive, symObjAddr: 0x348C, symBinAddr: 0x18774, symSize: 0x190 }
  - { offset: 0x681C7, size: 0x8, addend: 0x0, symName: __RNvMs3_NtNtCse1nGBsou5OW_5alloc11collections9vec_dequeINtB5_8VecDequeTINtNtCsfvfooZQ3Axs_4core6option6OptionTNtNtCs5AlOhPCr03V_3syn2ty4TypeNtNtB1N_4expr4ExprEENtCs3cP53eQoTwO_11proc_macro211TokenStreamEE8is_emptyCsf44oge9wsd6_12snafu_derive, symObjAddr: 0x361C, symBinAddr: 0x18904, symSize: 0x20 }
  - { offset: 0x683AE, size: 0x8, addend: 0x0, symName: __RNvMs3_NtNtCse1nGBsou5OW_5alloc11collections9vec_dequeINtB5_8VecDequeTINtNtCsfvfooZQ3Axs_4core6option6OptionTNtNtCs5AlOhPCr03V_3syn2ty4TypeNtNtB1N_4expr4ExprEENtCs3cP53eQoTwO_11proc_macro211TokenStreamEE9pop_frontCsf44oge9wsd6_12snafu_derive, symObjAddr: 0x363C, symBinAddr: 0x18924, symSize: 0x1B0 }
  - { offset: 0x68858, size: 0x8, addend: 0x0, symName: __RNvMs3_NtNtCse1nGBsou5OW_5alloc11collections9vec_dequeINtB5_8VecDequeTINtNtCsfvfooZQ3Axs_4core6option6OptionTNtNtCs5AlOhPCr03V_3syn2ty4TypeNtNtB1N_4expr4ExprEENtCs3cP53eQoTwO_11proc_macro211TokenStreamEE9push_backCsf44oge9wsd6_12snafu_derive, symObjAddr: 0x37EC, symBinAddr: 0x18AD4, symSize: 0x1A0 }
  - { offset: 0x68BB4, size: 0x8, addend: 0x0, symName: __RNvMs3_NtNtCse1nGBsou5OW_5alloc11collections9vec_dequeINtB5_8VecDequeTNtCsf44oge9wsd6_12snafu_derive10ModuleNameNtCs3cP53eQoTwO_11proc_macro211TokenStreamEE4growB18_, symObjAddr: 0x398C, symBinAddr: 0x18C74, symSize: 0x74 }
  - { offset: 0x68CA0, size: 0x8, addend: 0x0, symName: __RNvMs3_NtNtCse1nGBsou5OW_5alloc11collections9vec_dequeINtB5_8VecDequeTNtCsf44oge9wsd6_12snafu_derive10ModuleNameNtCs3cP53eQoTwO_11proc_macro211TokenStreamEE8is_emptyB18_, symObjAddr: 0x3A00, symBinAddr: 0x18CE8, symSize: 0x20 }
  - { offset: 0x68E87, size: 0x8, addend: 0x0, symName: __RNvMs3_NtNtCse1nGBsou5OW_5alloc11collections9vec_dequeINtB5_8VecDequeTNtCsf44oge9wsd6_12snafu_derive10ModuleNameNtCs3cP53eQoTwO_11proc_macro211TokenStreamEE9pop_frontB18_, symObjAddr: 0x3A20, symBinAddr: 0x18D08, symSize: 0x1B0 }
  - { offset: 0x69331, size: 0x8, addend: 0x0, symName: __RNvMs3_NtNtCse1nGBsou5OW_5alloc11collections9vec_dequeINtB5_8VecDequeTNtCsf44oge9wsd6_12snafu_derive10ModuleNameNtCs3cP53eQoTwO_11proc_macro211TokenStreamEE9push_backB18_, symObjAddr: 0x3BD0, symBinAddr: 0x18EB8, symSize: 0x1A0 }
  - { offset: 0x6968E, size: 0x8, addend: 0x0, symName: __RNvMs3_NtNtCse1nGBsou5OW_5alloc11collections9vec_dequeINtB5_8VecDequeTNtCsf44oge9wsd6_12snafu_derive10SuffixKindNtCs3cP53eQoTwO_11proc_macro211TokenStreamEE4growB18_, symObjAddr: 0x3D70, symBinAddr: 0x19058, symSize: 0x74 }
  - { offset: 0x6977A, size: 0x8, addend: 0x0, symName: __RNvMs3_NtNtCse1nGBsou5OW_5alloc11collections9vec_dequeINtB5_8VecDequeTNtCsf44oge9wsd6_12snafu_derive10SuffixKindNtCs3cP53eQoTwO_11proc_macro211TokenStreamEE8is_emptyB18_, symObjAddr: 0x3DE4, symBinAddr: 0x190CC, symSize: 0x20 }
  - { offset: 0x69961, size: 0x8, addend: 0x0, symName: __RNvMs3_NtNtCse1nGBsou5OW_5alloc11collections9vec_dequeINtB5_8VecDequeTNtCsf44oge9wsd6_12snafu_derive10SuffixKindNtCs3cP53eQoTwO_11proc_macro211TokenStreamEE9pop_frontB18_, symObjAddr: 0x3E04, symBinAddr: 0x190EC, symSize: 0x1B0 }
  - { offset: 0x69E0B, size: 0x8, addend: 0x0, symName: __RNvMs3_NtNtCse1nGBsou5OW_5alloc11collections9vec_dequeINtB5_8VecDequeTNtCsf44oge9wsd6_12snafu_derive10SuffixKindNtCs3cP53eQoTwO_11proc_macro211TokenStreamEE9push_backB18_, symObjAddr: 0x3FB4, symBinAddr: 0x1929C, symSize: 0x1A0 }
  - { offset: 0x6A168, size: 0x8, addend: 0x0, symName: __RNvMs3_NtNtCse1nGBsou5OW_5alloc11collections9vec_dequeINtB5_8VecDequeTNtCsf44oge9wsd6_12snafu_derive11SourceFieldNtCs3cP53eQoTwO_11proc_macro211TokenStreamEE4growB18_, symObjAddr: 0x4154, symBinAddr: 0x1943C, symSize: 0x74 }
  - { offset: 0x6A254, size: 0x8, addend: 0x0, symName: __RNvMs3_NtNtCse1nGBsou5OW_5alloc11collections9vec_dequeINtB5_8VecDequeTNtCsf44oge9wsd6_12snafu_derive11SourceFieldNtCs3cP53eQoTwO_11proc_macro211TokenStreamEE8is_emptyB18_, symObjAddr: 0x41C8, symBinAddr: 0x194B0, symSize: 0x20 }
  - { offset: 0x6A43B, size: 0x8, addend: 0x0, symName: __RNvMs3_NtNtCse1nGBsou5OW_5alloc11collections9vec_dequeINtB5_8VecDequeTNtCsf44oge9wsd6_12snafu_derive11SourceFieldNtCs3cP53eQoTwO_11proc_macro211TokenStreamEE9pop_frontB18_, symObjAddr: 0x41E8, symBinAddr: 0x194D0, symSize: 0x1B4 }
  - { offset: 0x6A8E5, size: 0x8, addend: 0x0, symName: __RNvMs3_NtNtCse1nGBsou5OW_5alloc11collections9vec_dequeINtB5_8VecDequeTNtCsf44oge9wsd6_12snafu_derive11SourceFieldNtCs3cP53eQoTwO_11proc_macro211TokenStreamEE9push_backB18_, symObjAddr: 0x439C, symBinAddr: 0x19684, symSize: 0x1A4 }
  - { offset: 0x6AC42, size: 0x8, addend: 0x0, symName: __RNvMs3_NtNtCse1nGBsou5OW_5alloc11collections9vec_dequeINtB5_8VecDequeTNtCsf44oge9wsd6_12snafu_derive5FieldNtCs3cP53eQoTwO_11proc_macro211TokenStreamEE4growB18_, symObjAddr: 0x4540, symBinAddr: 0x19828, symSize: 0x74 }
  - { offset: 0x6AD2E, size: 0x8, addend: 0x0, symName: __RNvMs3_NtNtCse1nGBsou5OW_5alloc11collections9vec_dequeINtB5_8VecDequeTNtCsf44oge9wsd6_12snafu_derive5FieldNtCs3cP53eQoTwO_11proc_macro211TokenStreamEE8is_emptyB18_, symObjAddr: 0x45B4, symBinAddr: 0x1989C, symSize: 0x20 }
  - { offset: 0x6AF15, size: 0x8, addend: 0x0, symName: __RNvMs3_NtNtCse1nGBsou5OW_5alloc11collections9vec_dequeINtB5_8VecDequeTNtCsf44oge9wsd6_12snafu_derive5FieldNtCs3cP53eQoTwO_11proc_macro211TokenStreamEE9pop_frontB18_, symObjAddr: 0x45D4, symBinAddr: 0x198BC, symSize: 0x1B0 }
  - { offset: 0x6B3BF, size: 0x8, addend: 0x0, symName: __RNvMs3_NtNtCse1nGBsou5OW_5alloc11collections9vec_dequeINtB5_8VecDequeTNtCsf44oge9wsd6_12snafu_derive5FieldNtCs3cP53eQoTwO_11proc_macro211TokenStreamEE9push_backB18_, symObjAddr: 0x4784, symBinAddr: 0x19A6C, symSize: 0x1A0 }
  - { offset: 0x6B71B, size: 0x8, addend: 0x0, symName: __RNvMs3_NtNtCse1nGBsou5OW_5alloc11collections9vec_dequeINtB5_8VecDequeTNtCsf44oge9wsd6_12snafu_derive5FieldNtNtCs5AlOhPCr03V_3syn4data5FieldEE4growB18_, symObjAddr: 0x4924, symBinAddr: 0x19C0C, symSize: 0x74 }
  - { offset: 0x6B807, size: 0x8, addend: 0x0, symName: __RNvMs3_NtNtCse1nGBsou5OW_5alloc11collections9vec_dequeINtB5_8VecDequeTNtCsf44oge9wsd6_12snafu_derive5FieldNtNtCs5AlOhPCr03V_3syn4data5FieldEE8is_emptyB18_, symObjAddr: 0x4998, symBinAddr: 0x19C80, symSize: 0x20 }
  - { offset: 0x6B9EE, size: 0x8, addend: 0x0, symName: __RNvMs3_NtNtCse1nGBsou5OW_5alloc11collections9vec_dequeINtB5_8VecDequeTNtCsf44oge9wsd6_12snafu_derive5FieldNtNtCs5AlOhPCr03V_3syn4data5FieldEE9pop_frontB18_, symObjAddr: 0x49B8, symBinAddr: 0x19CA0, symSize: 0x1B4 }
  - { offset: 0x6BE98, size: 0x8, addend: 0x0, symName: __RNvMs3_NtNtCse1nGBsou5OW_5alloc11collections9vec_dequeINtB5_8VecDequeTNtCsf44oge9wsd6_12snafu_derive5FieldNtNtCs5AlOhPCr03V_3syn4data5FieldEE9push_backB18_, symObjAddr: 0x4B6C, symBinAddr: 0x19E54, symSize: 0x1A4 }
  - { offset: 0x6C1F5, size: 0x8, addend: 0x0, symName: __RNvMs3_NtNtCse1nGBsou5OW_5alloc11collections9vec_dequeINtB5_8VecDequeTNtCsf44oge9wsd6_12snafu_derive7ContextNtCs3cP53eQoTwO_11proc_macro211TokenStreamEE4growB18_, symObjAddr: 0x4D10, symBinAddr: 0x19FF8, symSize: 0x74 }
  - { offset: 0x6C2E1, size: 0x8, addend: 0x0, symName: __RNvMs3_NtNtCse1nGBsou5OW_5alloc11collections9vec_dequeINtB5_8VecDequeTNtCsf44oge9wsd6_12snafu_derive7ContextNtCs3cP53eQoTwO_11proc_macro211TokenStreamEE8is_emptyB18_, symObjAddr: 0x4D84, symBinAddr: 0x1A06C, symSize: 0x20 }
  - { offset: 0x6C4C8, size: 0x8, addend: 0x0, symName: __RNvMs3_NtNtCse1nGBsou5OW_5alloc11collections9vec_dequeINtB5_8VecDequeTNtCsf44oge9wsd6_12snafu_derive7ContextNtCs3cP53eQoTwO_11proc_macro211TokenStreamEE9pop_frontB18_, symObjAddr: 0x4DA4, symBinAddr: 0x1A08C, symSize: 0x1B0 }
  - { offset: 0x6C972, size: 0x8, addend: 0x0, symName: __RNvMs3_NtNtCse1nGBsou5OW_5alloc11collections9vec_dequeINtB5_8VecDequeTNtCsf44oge9wsd6_12snafu_derive7ContextNtCs3cP53eQoTwO_11proc_macro211TokenStreamEE9push_backB18_, symObjAddr: 0x4F54, symBinAddr: 0x1A23C, symSize: 0x1A0 }
  - { offset: 0x6CCCF, size: 0x8, addend: 0x0, symName: __RNvMs3_NtNtCse1nGBsou5OW_5alloc11collections9vec_dequeINtB5_8VecDequeTNtCsf44oge9wsd6_12snafu_derive7DisplayNtCs3cP53eQoTwO_11proc_macro211TokenStreamEE4growB18_, symObjAddr: 0x50F4, symBinAddr: 0x1A3DC, symSize: 0x74 }
  - { offset: 0x6CDBB, size: 0x8, addend: 0x0, symName: __RNvMs3_NtNtCse1nGBsou5OW_5alloc11collections9vec_dequeINtB5_8VecDequeTNtCsf44oge9wsd6_12snafu_derive7DisplayNtCs3cP53eQoTwO_11proc_macro211TokenStreamEE8is_emptyB18_, symObjAddr: 0x5168, symBinAddr: 0x1A450, symSize: 0x20 }
  - { offset: 0x6CFA2, size: 0x8, addend: 0x0, symName: __RNvMs3_NtNtCse1nGBsou5OW_5alloc11collections9vec_dequeINtB5_8VecDequeTNtCsf44oge9wsd6_12snafu_derive7DisplayNtCs3cP53eQoTwO_11proc_macro211TokenStreamEE9pop_frontB18_, symObjAddr: 0x5188, symBinAddr: 0x1A470, symSize: 0x1B0 }
  - { offset: 0x6D44C, size: 0x8, addend: 0x0, symName: __RNvMs3_NtNtCse1nGBsou5OW_5alloc11collections9vec_dequeINtB5_8VecDequeTNtCsf44oge9wsd6_12snafu_derive7DisplayNtCs3cP53eQoTwO_11proc_macro211TokenStreamEE9push_backB18_, symObjAddr: 0x5338, symBinAddr: 0x1A620, symSize: 0x1A0 }
  - { offset: 0x6D7A9, size: 0x8, addend: 0x0, symName: __RNvMs3_NtNtCse1nGBsou5OW_5alloc11collections9vec_dequeINtB5_8VecDequeTTNtNtCs5AlOhPCr03V_3syn2ty4TypeNtNtB1b_4expr4ExprENtCs3cP53eQoTwO_11proc_macro211TokenStreamEE4growCsf44oge9wsd6_12snafu_derive, symObjAddr: 0x54D8, symBinAddr: 0x1A7C0, symSize: 0x74 }
  - { offset: 0x6D895, size: 0x8, addend: 0x0, symName: __RNvMs3_NtNtCse1nGBsou5OW_5alloc11collections9vec_dequeINtB5_8VecDequeTTNtNtCs5AlOhPCr03V_3syn2ty4TypeNtNtB1b_4expr4ExprENtCs3cP53eQoTwO_11proc_macro211TokenStreamEE8is_emptyCsf44oge9wsd6_12snafu_derive, symObjAddr: 0x554C, symBinAddr: 0x1A834, symSize: 0x20 }
  - { offset: 0x6DA7C, size: 0x8, addend: 0x0, symName: __RNvMs3_NtNtCse1nGBsou5OW_5alloc11collections9vec_dequeINtB5_8VecDequeTTNtNtCs5AlOhPCr03V_3syn2ty4TypeNtNtB1b_4expr4ExprENtCs3cP53eQoTwO_11proc_macro211TokenStreamEE9pop_frontCsf44oge9wsd6_12snafu_derive, symObjAddr: 0x556C, symBinAddr: 0x1A854, symSize: 0x1B0 }
  - { offset: 0x6DF26, size: 0x8, addend: 0x0, symName: __RNvMs3_NtNtCse1nGBsou5OW_5alloc11collections9vec_dequeINtB5_8VecDequeTTNtNtCs5AlOhPCr03V_3syn2ty4TypeNtNtB1b_4expr4ExprENtCs3cP53eQoTwO_11proc_macro211TokenStreamEE9push_backCsf44oge9wsd6_12snafu_derive, symObjAddr: 0x571C, symBinAddr: 0x1AA04, symSize: 0x1A0 }
  - { offset: 0x6E282, size: 0x8, addend: 0x0, symName: __RNvMs3_NtNtCse1nGBsou5OW_5alloc11collections9vec_dequeINtB5_8VecDequeTuNtCs3cP53eQoTwO_11proc_macro211TokenStreamEE4growCsf44oge9wsd6_12snafu_derive, symObjAddr: 0x58BC, symBinAddr: 0x1ABA4, symSize: 0x74 }
  - { offset: 0x6E36E, size: 0x8, addend: 0x0, symName: __RNvMs3_NtNtCse1nGBsou5OW_5alloc11collections9vec_dequeINtB5_8VecDequeTuNtCs3cP53eQoTwO_11proc_macro211TokenStreamEE8is_emptyCsf44oge9wsd6_12snafu_derive, symObjAddr: 0x5930, symBinAddr: 0x1AC18, symSize: 0x20 }
  - { offset: 0x6E555, size: 0x8, addend: 0x0, symName: __RNvMs3_NtNtCse1nGBsou5OW_5alloc11collections9vec_dequeINtB5_8VecDequeTuNtCs3cP53eQoTwO_11proc_macro211TokenStreamEE9pop_frontCsf44oge9wsd6_12snafu_derive, symObjAddr: 0x5950, symBinAddr: 0x1AC38, symSize: 0x1A4 }
  - { offset: 0x6E9FF, size: 0x8, addend: 0x0, symName: __RNvMs3_NtNtCse1nGBsou5OW_5alloc11collections9vec_dequeINtB5_8VecDequeTuNtCs3cP53eQoTwO_11proc_macro211TokenStreamEE9push_backCsf44oge9wsd6_12snafu_derive, symObjAddr: 0x5AF4, symBinAddr: 0x1ADDC, symSize: 0x188 }
  - { offset: 0x6FB3A, size: 0x8, addend: 0x0, symName: __RINvMNtCse1nGBsou5OW_5alloc5sliceSNtCsf44oge9wsd6_12snafu_derive6Source8into_vecNtNtB5_5alloc6GlobalEBy_, symObjAddr: 0x0, symBinAddr: 0x1BA00, symSize: 0x28 }
  - { offset: 0x6FB89, size: 0x8, addend: 0x0, symName: __RNvXsw_NtCse1nGBsou5OW_5alloc6stringNtCsf44oge9wsd6_12snafu_derive18DuplicateAttributeNtB5_8ToString9to_stringBA_, symObjAddr: 0x440, symBinAddr: 0x1BE40, symSize: 0x24 }
  - { offset: 0x6FBC6, size: 0x8, addend: 0x0, symName: __RNvXsx_NtCse1nGBsou5OW_5alloc6stringNtCsf44oge9wsd6_12snafu_derive18DuplicateAttributeNtB5_12SpecToString14spec_to_stringBA_, symObjAddr: 0x464, symBinAddr: 0x1BE64, symSize: 0x144 }
  - { offset: 0x71210, size: 0x8, addend: 0x0, symName: __RINvMNtCse1nGBsou5OW_5alloc5sliceSNtCsf44oge9wsd6_12snafu_derive6Source8into_vecNtNtB5_5alloc6GlobalEBy_, symObjAddr: 0x0, symBinAddr: 0x1BA00, symSize: 0x28 }
  - { offset: 0x74731, size: 0x8, addend: 0x0, symName: __RNvMNtCsfvfooZQ3Axs_4core5sliceSNtCsf44oge9wsd6_12snafu_derive14FieldContainer4iterBw_, symObjAddr: 0x28, symBinAddr: 0x1BA28, symSize: 0x28 }
  - { offset: 0x74768, size: 0x8, addend: 0x0, symName: __RNvMNtCsfvfooZQ3Axs_4core5sliceSNtCsf44oge9wsd6_12snafu_derive5Field4iterBw_, symObjAddr: 0x50, symBinAddr: 0x1BA50, symSize: 0x28 }
  - { offset: 0x7479F, size: 0x8, addend: 0x0, symName: __RNvMNtCsfvfooZQ3Axs_4core5sliceSNtCsf44oge9wsd6_12snafu_derive7Provide4iterBw_, symObjAddr: 0x78, symBinAddr: 0x1BA78, symSize: 0x28 }
  - { offset: 0x74962, size: 0x8, addend: 0x0, symName: __RNvXs1_NtCsfvfooZQ3Axs_4core7convertNtCsf44oge9wsd6_12snafu_derive15NamedStructInfoINtB5_4IntoNtCs9i5KxIbZ5ph_10proc_macro11TokenStreamE4intoBA_, symObjAddr: 0xE0, symBinAddr: 0x1BAE0, symSize: 0x14 }
  - { offset: 0x749A3, size: 0x8, addend: 0x0, symName: __RNvXs1_NtCsfvfooZQ3Axs_4core7convertNtCsf44oge9wsd6_12snafu_derive15TupleStructInfoINtB5_4IntoNtCs9i5KxIbZ5ph_10proc_macro11TokenStreamE4intoBA_, symObjAddr: 0xF4, symBinAddr: 0x1BAF4, symSize: 0x14 }
  - { offset: 0x749E4, size: 0x8, addend: 0x0, symName: __RNvXs1_NtCsfvfooZQ3Axs_4core7convertNtCsf44oge9wsd6_12snafu_derive8EnumInfoINtB5_4IntoNtCs9i5KxIbZ5ph_10proc_macro11TokenStreamE4intoBA_, symObjAddr: 0x108, symBinAddr: 0x1BB08, symSize: 0x14 }
  - { offset: 0x74A25, size: 0x8, addend: 0x0, symName: __RNvXs1_NtCsfvfooZQ3Axs_4core7convertNtCsf44oge9wsd6_12snafu_derive9SnafuInfoINtB5_4IntoNtCs9i5KxIbZ5ph_10proc_macro11TokenStreamE4intoBA_, symObjAddr: 0x11C, symBinAddr: 0x1BB1C, symSize: 0x14 }
  - { offset: 0x74A86, size: 0x8, addend: 0x0, symName: __RNvXs2_NtNtNtCsfvfooZQ3Axs_4core3ops8function5implsQNCNCNvMsr_Csf44oge9wsd6_12snafu_deriveNtBY_15TupleStructInfo14generate_snafu00INtB7_6FnOnceTRNtNtCs5AlOhPCr03V_3syn8generics14WherePredicateEE9call_onceBY_, symObjAddr: 0x130, symBinAddr: 0x1BB30, symSize: 0x2C }
  - { offset: 0x74AD5, size: 0x8, addend: 0x0, symName: __RNvXs2_NtNtNtCsfvfooZQ3Axs_4core3ops8function5implsQNCNCNvYNtCsf44oge9wsd6_12snafu_derive15NamedStructInfoNtBX_17GenericAwareNames22provided_where_clauses00INtB7_6FnOnceTRNtNtCs5AlOhPCr03V_3syn8generics14WherePredicateEE9call_onceBX_, symObjAddr: 0x15C, symBinAddr: 0x1BB5C, symSize: 0x2C }
  - { offset: 0x74B24, size: 0x8, addend: 0x0, symName: __RNvXs2_NtNtNtCsfvfooZQ3Axs_4core3ops8function5implsQNCNCNvYNtCsf44oge9wsd6_12snafu_derive8EnumInfoNtBX_17GenericAwareNames22provided_where_clauses00INtB7_6FnOnceTRNtNtCs5AlOhPCr03V_3syn8generics14WherePredicateEE9call_onceBX_, symObjAddr: 0x188, symBinAddr: 0x1BB88, symSize: 0x2C }
  - { offset: 0x74B73, size: 0x8, addend: 0x0, symName: __RNvXs2_NtNtNtCsfvfooZQ3Axs_4core3ops8function5implsQNCNvCsf44oge9wsd6_12snafu_derive16parse_snafu_enum0INtB7_6FnOnceTNtNtCs5AlOhPCr03V_3syn4data7VariantEE9call_onceBS_, symObjAddr: 0x1B4, symBinAddr: 0x1BBB4, symSize: 0x54 }
  - { offset: 0x74BC2, size: 0x8, addend: 0x0, symName: __RNvXs2_NtNtNtCsfvfooZQ3Axs_4core3ops8function5implsQNCNvCsf44oge9wsd6_12snafu_derive24parse_snafu_named_struct0INtB7_6FnOnceTNtBS_14SnafuAttributeEE9call_onceBS_, symObjAddr: 0x208, symBinAddr: 0x1BC08, symSize: 0x54 }
  - { offset: 0x74C11, size: 0x8, addend: 0x0, symName: __RNvXs2_NtNtNtCsfvfooZQ3Axs_4core3ops8function5implsQNCNvMsr_Csf44oge9wsd6_12snafu_deriveNtBW_15TupleStructInfo14generate_snafu0INtB7_6FnOnceTRNtNtCs5AlOhPCr03V_3syn8generics11WhereClauseEE9call_onceBW_, symObjAddr: 0x25C, symBinAddr: 0x1BC5C, symSize: 0x2C }
  - { offset: 0x74C60, size: 0x8, addend: 0x0, symName: __RNvXs2_NtNtNtCsfvfooZQ3Axs_4core3ops8function5implsQNCNvXsk_Csf44oge9wsd6_12snafu_deriveNtBW_16ContextSelectorsNtNtCs2cqEZUIJimJ_5quote9to_tokens8ToTokens9to_tokens0INtB7_6FnOnceTRNtBW_14FieldContainerEE9call_onceBW_, symObjAddr: 0x288, symBinAddr: 0x1BC88, symSize: 0x2C }
  - { offset: 0x74CAF, size: 0x8, addend: 0x0, symName: __RNvXs2_NtNtNtCsfvfooZQ3Axs_4core3ops8function5implsQNCNvYNtCsf44oge9wsd6_12snafu_derive15NamedStructInfoNtBV_17GenericAwareNames22provided_generic_names0INtB7_6FnOnceTRNtNtCs5AlOhPCr03V_3syn8generics12GenericParamEE9call_onceBV_, symObjAddr: 0x2B4, symBinAddr: 0x1BCB4, symSize: 0x2C }
  - { offset: 0x74CFE, size: 0x8, addend: 0x0, symName: __RNvXs2_NtNtNtCsfvfooZQ3Axs_4core3ops8function5implsQNCNvYNtCsf44oge9wsd6_12snafu_derive15NamedStructInfoNtBV_17GenericAwareNames22provided_where_clauses0INtB7_6FnOnceTRNtNtCs5AlOhPCr03V_3syn8generics11WhereClauseEE9call_onceBV_, symObjAddr: 0x2E0, symBinAddr: 0x1BCE0, symSize: 0x2C }
  - { offset: 0x74D4D, size: 0x8, addend: 0x0, symName: __RNvXs2_NtNtNtCsfvfooZQ3Axs_4core3ops8function5implsQNCNvYNtCsf44oge9wsd6_12snafu_derive15NamedStructInfoNtBV_17GenericAwareNames26provided_generic_lifetimes0INtB7_6FnOnceTRNtNtCs5AlOhPCr03V_3syn8generics12GenericParamEE9call_onceBV_, symObjAddr: 0x30C, symBinAddr: 0x1BD0C, symSize: 0x2C }
  - { offset: 0x74D9C, size: 0x8, addend: 0x0, symName: __RNvXs2_NtNtNtCsfvfooZQ3Axs_4core3ops8function5implsQNCNvYNtCsf44oge9wsd6_12snafu_derive15NamedStructInfoNtBV_17GenericAwareNames39provided_generic_types_without_defaults0INtB7_6FnOnceTRNtNtCs5AlOhPCr03V_3syn8generics9TypeParamEE9call_onceBV_, symObjAddr: 0x338, symBinAddr: 0x1BD38, symSize: 0x2C }
  - { offset: 0x74DEB, size: 0x8, addend: 0x0, symName: __RNvXs2_NtNtNtCsfvfooZQ3Axs_4core3ops8function5implsQNCNvYNtCsf44oge9wsd6_12snafu_derive15TupleStructInfoNtBV_17GenericAwareNames22provided_generic_names0INtB7_6FnOnceTRNtNtCs5AlOhPCr03V_3syn8generics12GenericParamEE9call_onceBV_, symObjAddr: 0x364, symBinAddr: 0x1BD64, symSize: 0x2C }
  - { offset: 0x74E3A, size: 0x8, addend: 0x0, symName: __RNvXs2_NtNtNtCsfvfooZQ3Axs_4core3ops8function5implsQNCNvYNtCsf44oge9wsd6_12snafu_derive8EnumInfoNtBV_17GenericAwareNames22provided_generic_names0INtB7_6FnOnceTRNtNtCs5AlOhPCr03V_3syn8generics12GenericParamEE9call_onceBV_, symObjAddr: 0x390, symBinAddr: 0x1BD90, symSize: 0x2C }
  - { offset: 0x74E89, size: 0x8, addend: 0x0, symName: __RNvXs2_NtNtNtCsfvfooZQ3Axs_4core3ops8function5implsQNCNvYNtCsf44oge9wsd6_12snafu_derive8EnumInfoNtBV_17GenericAwareNames22provided_where_clauses0INtB7_6FnOnceTRNtNtCs5AlOhPCr03V_3syn8generics11WhereClauseEE9call_onceBV_, symObjAddr: 0x3BC, symBinAddr: 0x1BDBC, symSize: 0x2C }
  - { offset: 0x74ED8, size: 0x8, addend: 0x0, symName: __RNvXs2_NtNtNtCsfvfooZQ3Axs_4core3ops8function5implsQNCNvYNtCsf44oge9wsd6_12snafu_derive8EnumInfoNtBV_17GenericAwareNames26provided_generic_lifetimes0INtB7_6FnOnceTRNtNtCs5AlOhPCr03V_3syn8generics12GenericParamEE9call_onceBV_, symObjAddr: 0x3E8, symBinAddr: 0x1BDE8, symSize: 0x2C }
  - { offset: 0x74F27, size: 0x8, addend: 0x0, symName: __RNvXs2_NtNtNtCsfvfooZQ3Axs_4core3ops8function5implsQNCNvYNtCsf44oge9wsd6_12snafu_derive8EnumInfoNtBV_17GenericAwareNames39provided_generic_types_without_defaults0INtB7_6FnOnceTRNtNtCs5AlOhPCr03V_3syn8generics9TypeParamEE9call_onceBV_, symObjAddr: 0x414, symBinAddr: 0x1BE14, symSize: 0x2C }
  - { offset: 0x762BD, size: 0x8, addend: 0x0, symName: ___rustc_proc_macro_decls_af7aa28e2310056e__, symObjAddr: 0x1A030, symBinAddr: 0x2B4C30, symSize: 0x0 }
  - { offset: 0x7630B, size: 0x8, addend: 0x0, symName: __RNvXNtCsf44oge9wsd6_12snafu_derive5parseNtB4_14SnafuAttributeINtNtCsfvfooZQ3Axs_4core7convert4FromNtB2_9AttributeE4from, symObjAddr: 0x5A8, symBinAddr: 0x1BFA8, symSize: 0x900 }
  - { offset: 0x7641A, size: 0x8, addend: 0x0, symName: __RNvXsh_NtCsf44oge9wsd6_12snafu_derive5parseNtB7_14SnafuAttributeINtNtCsfvfooZQ3Axs_4core7convert4FromNtB5_10DocCommentE4from, symObjAddr: 0xEA8, symBinAddr: 0x1C8A8, symSize: 0xE8 }
  - { offset: 0x76E0D, size: 0x8, addend: 0x0, symName: __RNvCsf44oge9wsd6_12snafu_derive12snafu_derive, symObjAddr: 0xF90, symBinAddr: 0x1C990, symSize: 0x70 }
  - { offset: 0x76E56, size: 0x8, addend: 0x0, symName: __RNvCsf44oge9wsd6_12snafu_derive6report, symObjAddr: 0x1000, symBinAddr: 0x1CA00, symSize: 0x64 }
  - { offset: 0x76E95, size: 0x8, addend: 0x0, symName: __RNCNvCsf44oge9wsd6_12snafu_derive6report0B3_, symObjAddr: 0x1064, symBinAddr: 0x1CA64, symSize: 0x64 }
  - { offset: 0x76EDE, size: 0x8, addend: 0x0, symName: __RNcNtNtCsf44oge9wsd6_12snafu_derive9SnafuInfo4Enum0B5_, symObjAddr: 0x10C8, symBinAddr: 0x1CAC8, symSize: 0x3C }
  - { offset: 0x76F0D, size: 0x8, addend: 0x0, symName: __RNcNtNtCsf44oge9wsd6_12snafu_derive9SnafuInfo11NamedStruct0B5_, symObjAddr: 0x1104, symBinAddr: 0x1CB04, symSize: 0x30 }
  - { offset: 0x76F3C, size: 0x8, addend: 0x0, symName: __RNcNtNtCsf44oge9wsd6_12snafu_derive9SnafuInfo11TupleStruct0B5_, symObjAddr: 0x1134, symBinAddr: 0x1CB34, symSize: 0x40 }
  - { offset: 0x77677, size: 0x8, addend: 0x0, symName: __RNCNvCsf44oge9wsd6_12snafu_derive15field_container0B3_, symObjAddr: 0xCFA8, symBinAddr: 0x289A8, symSize: 0x10C }
  - { offset: 0x776A7, size: 0x8, addend: 0x0, symName: __RNCNvCsf44oge9wsd6_12snafu_derive15field_containers_0B3_, symObjAddr: 0xD0B4, symBinAddr: 0x28AB4, symSize: 0x3C }
  - { offset: 0x776DC, size: 0x8, addend: 0x0, symName: __RNCNvCsf44oge9wsd6_12snafu_derive15field_containers0_0B3_, symObjAddr: 0xD0F0, symBinAddr: 0x28AF0, symSize: 0x148 }
  - { offset: 0x7772E, size: 0x8, addend: 0x0, symName: __RNCNvCsf44oge9wsd6_12snafu_derive15field_containers1_0B3_, symObjAddr: 0xD238, symBinAddr: 0x28C38, symSize: 0xE4 }
  - { offset: 0x77780, size: 0x8, addend: 0x0, symName: __RNCNvCsf44oge9wsd6_12snafu_derive15field_containers2_0B3_, symObjAddr: 0xD31C, symBinAddr: 0x28D1C, symSize: 0x120 }
  - { offset: 0x777E5, size: 0x8, addend: 0x0, symName: __RNCNvCsf44oge9wsd6_12snafu_derive15field_containers3_0B3_, symObjAddr: 0xD43C, symBinAddr: 0x28E3C, symSize: 0x74 }
  - { offset: 0x77815, size: 0x8, addend: 0x0, symName: __RNCNvCsf44oge9wsd6_12snafu_derive15field_containers4_0B3_, symObjAddr: 0xD4B0, symBinAddr: 0x28EB0, symSize: 0xBC }
  - { offset: 0x77871, size: 0x8, addend: 0x0, symName: __RNCNvCsf44oge9wsd6_12snafu_derive15field_containers5_0B3_, symObjAddr: 0xD56C, symBinAddr: 0x28F6C, symSize: 0x64 }
  - { offset: 0x778A7, size: 0x8, addend: 0x0, symName: __RNCNvCsf44oge9wsd6_12snafu_derive15field_containers6_0B3_, symObjAddr: 0xD5D0, symBinAddr: 0x28FD0, symSize: 0x10C }
  - { offset: 0x778D7, size: 0x8, addend: 0x0, symName: __RNCNvCsf44oge9wsd6_12snafu_derive15field_containers7_0B3_, symObjAddr: 0xD6DC, symBinAddr: 0x290DC, symSize: 0xE8 }
  - { offset: 0x77923, size: 0x8, addend: 0x0, symName: __RNCNvCsf44oge9wsd6_12snafu_derive15field_containers8_0B3_, symObjAddr: 0xD7C4, symBinAddr: 0x291C4, symSize: 0x10C }
  - { offset: 0x77953, size: 0x8, addend: 0x0, symName: __RNCNvCsf44oge9wsd6_12snafu_derive15field_containers9_0B3_, symObjAddr: 0xD8D0, symBinAddr: 0x292D0, symSize: 0x60 }
  - { offset: 0x779B0, size: 0x8, addend: 0x0, symName: __RNCINvMs4_Csf44oge9wsd6_12snafu_deriveNtB8_12SyntaxErrors6absorbINtNtCse1nGBsou5OW_5alloc3vec3VecNtB8_14FieldContainerEE0B8_, symObjAddr: 0x1D48, symBinAddr: 0x1D748, symSize: 0x30 }
  - { offset: 0x779FA, size: 0x8, addend: 0x0, symName: __RNvXs5_Csf44oge9wsd6_12snafu_deriveNtB5_13ErrorLocationNtNtCsfvfooZQ3Axs_4core3fmt7Display3fmt, symObjAddr: 0x1D78, symBinAddr: 0x1D778, symSize: 0x1FC }
  - { offset: 0x77A94, size: 0x8, addend: 0x0, symName: __RNvXs7_Csf44oge9wsd6_12snafu_deriveNtB5_11OnlyValidOnNtB5_16ErrorForLocation12for_location, symObjAddr: 0x21D4, symBinAddr: 0x1DBD4, symSize: 0xD0 }
  - { offset: 0x77AF5, size: 0x8, addend: 0x0, symName: __RNvXs8_Csf44oge9wsd6_12snafu_deriveNtB5_10WrongFieldNtB5_16ErrorForLocation12for_location, symObjAddr: 0x22A4, symBinAddr: 0x1DCA4, symSize: 0x98 }
  - { offset: 0x77B56, size: 0x8, addend: 0x0, symName: __RNvXs9_Csf44oge9wsd6_12snafu_deriveNtB5_22IncompatibleAttributesNtB5_16ErrorForLocation12for_location, symObjAddr: 0x233C, symBinAddr: 0x1DD3C, symSize: 0x178 }
  - { offset: 0x77BD5, size: 0x8, addend: 0x0, symName: __RNCNvXs9_Csf44oge9wsd6_12snafu_deriveNtB7_22IncompatibleAttributesNtB7_16ErrorForLocation12for_location0B7_, symObjAddr: 0x24B4, symBinAddr: 0x1DEB4, symSize: 0x84 }
  - { offset: 0x77C3A, size: 0x8, addend: 0x0, symName: __RNvXsa_Csf44oge9wsd6_12snafu_deriveNtB5_18DuplicateAttributeNtNtCsfvfooZQ3Axs_4core3fmt7Display3fmt, symObjAddr: 0x2538, symBinAddr: 0x1DF38, symSize: 0x84 }
  - { offset: 0x7870D, size: 0x8, addend: 0x0, symName: __RNCNvMsb_Csf44oge9wsd6_12snafu_deriveINtB7_9AtMostOneINtNtCse1nGBsou5OW_5alloc5boxed3BoxDNtNtCs2cqEZUIJimJ_5quote9to_tokens8ToTokensEL_ENtCs3cP53eQoTwO_11proc_macro211TokenStreamE6finish0B7_, symObjAddr: 0x4794, symBinAddr: 0x20194, symSize: 0x64 }
  - { offset: 0x78755, size: 0x8, addend: 0x0, symName: __RNCNvMsb_Csf44oge9wsd6_12snafu_deriveINtB7_9AtMostOneNtB7_10ModuleNameNtCs3cP53eQoTwO_11proc_macro211TokenStreamE6finish0B7_, symObjAddr: 0x47F8, symBinAddr: 0x201F8, symSize: 0x58 }
  - { offset: 0x7879D, size: 0x8, addend: 0x0, symName: __RNCNvMsb_Csf44oge9wsd6_12snafu_deriveINtB7_9AtMostOneNtB7_10SuffixKindNtCs3cP53eQoTwO_11proc_macro211TokenStreamE6finish0B7_, symObjAddr: 0x4850, symBinAddr: 0x20250, symSize: 0x58 }
  - { offset: 0x787E5, size: 0x8, addend: 0x0, symName: __RNCNvMsb_Csf44oge9wsd6_12snafu_deriveINtB7_9AtMostOneNtB7_5FieldNtNtCs5AlOhPCr03V_3syn4data5FieldE6finish0B7_, symObjAddr: 0x48A8, symBinAddr: 0x202A8, symSize: 0x70 }
  - { offset: 0x7882D, size: 0x8, addend: 0x0, symName: __RNCNvMsb_Csf44oge9wsd6_12snafu_deriveINtB7_9AtMostOneNtB7_7DisplayNtCs3cP53eQoTwO_11proc_macro211TokenStreamE6finish0B7_, symObjAddr: 0x4918, symBinAddr: 0x20318, symSize: 0x60 }
  - { offset: 0x78875, size: 0x8, addend: 0x0, symName: __RNCNvMsb_Csf44oge9wsd6_12snafu_deriveINtB7_9AtMostOneTNtNtCs5AlOhPCr03V_3syn2ty4TypeNtNtBU_4expr4ExprENtCs3cP53eQoTwO_11proc_macro211TokenStreamE6finish0B7_, symObjAddr: 0x4978, symBinAddr: 0x20378, symSize: 0x60 }
  - { offset: 0x788BD, size: 0x8, addend: 0x0, symName: __RNCNvMsb_Csf44oge9wsd6_12snafu_deriveINtB7_9AtMostOneuNtCs3cP53eQoTwO_11proc_macro211TokenStreamE6finish0B7_, symObjAddr: 0x49D8, symBinAddr: 0x203D8, symSize: 0x44 }
  - { offset: 0x78934, size: 0x8, addend: 0x0, symName: __RNvCsf44oge9wsd6_12snafu_derive16impl_snafu_macro, symObjAddr: 0x586C, symBinAddr: 0x2126C, symSize: 0xF0 }
  - { offset: 0x78999, size: 0x8, addend: 0x0, symName: __RNvCsf44oge9wsd6_12snafu_derive17to_compile_errors, symObjAddr: 0x595C, symBinAddr: 0x2135C, symSize: 0x1CC }
  - { offset: 0x78A86, size: 0x8, addend: 0x0, symName: __RNvCsf44oge9wsd6_12snafu_derive23parse_snafu_information, symObjAddr: 0x5B28, symBinAddr: 0x21528, symSize: 0x5FC }
  - { offset: 0x78B43, size: 0x8, addend: 0x0, symName: __RNvCsf44oge9wsd6_12snafu_derive16parse_snafu_enum, symObjAddr: 0x6124, symBinAddr: 0x21B24, symSize: 0x13E0 }
  - { offset: 0x78F2F, size: 0x8, addend: 0x0, symName: __RNCNvCsf44oge9wsd6_12snafu_derive16parse_snafu_enum0B3_, symObjAddr: 0x7504, symBinAddr: 0x22F04, symSize: 0x5E8 }
  - { offset: 0x7903C, size: 0x8, addend: 0x0, symName: __RNvCsf44oge9wsd6_12snafu_derive15field_container, symObjAddr: 0x7AEC, symBinAddr: 0x234EC, symSize: 0x54BC }
  - { offset: 0x79C52, size: 0x8, addend: 0x0, symName: __RNvCsf44oge9wsd6_12snafu_derive18is_implicit_source, symObjAddr: 0xD930, symBinAddr: 0x29330, symSize: 0x40 }
  - { offset: 0x79C80, size: 0x8, addend: 0x0, symName: __RNvCsf44oge9wsd6_12snafu_derive21is_implicit_backtrace, symObjAddr: 0xD970, symBinAddr: 0x29370, symSize: 0x40 }
  - { offset: 0x79CAE, size: 0x8, addend: 0x0, symName: __RNvCsf44oge9wsd6_12snafu_derive19is_implicit_message, symObjAddr: 0xD9B0, symBinAddr: 0x293B0, symSize: 0x40 }
  - { offset: 0x79CDC, size: 0x8, addend: 0x0, symName: __RNvCsf44oge9wsd6_12snafu_derive20is_implicit_location, symObjAddr: 0xD9F0, symBinAddr: 0x293F0, symSize: 0x40 }
  - { offset: 0x79D0A, size: 0x8, addend: 0x0, symName: __RNvCsf44oge9wsd6_12snafu_derive19is_implicit_provide, symObjAddr: 0xDA30, symBinAddr: 0x29430, symSize: 0x78 }
  - { offset: 0x79D38, size: 0x8, addend: 0x0, symName: __RNvCsf44oge9wsd6_12snafu_derive18parse_snafu_struct, symObjAddr: 0xDAA8, symBinAddr: 0x294A8, symSize: 0x35C }
  - { offset: 0x79DF3, size: 0x8, addend: 0x0, symName: __RNvCsf44oge9wsd6_12snafu_derive24parse_snafu_named_struct, symObjAddr: 0xDE04, symBinAddr: 0x29804, symSize: 0x7E8 }
  - { offset: 0x79FA3, size: 0x8, addend: 0x0, symName: __RNCNvCsf44oge9wsd6_12snafu_derive24parse_snafu_named_struct0B3_, symObjAddr: 0xE5EC, symBinAddr: 0x29FEC, symSize: 0x198 }
  - { offset: 0x7A035, size: 0x8, addend: 0x0, symName: __RNvCsf44oge9wsd6_12snafu_derive24parse_snafu_tuple_struct, symObjAddr: 0xE784, symBinAddr: 0x2A184, symSize: 0x1754 }
  - { offset: 0x7A3F0, size: 0x8, addend: 0x0, symName: __RNvNvCsf44oge9wsd6_12snafu_derive24parse_snafu_tuple_struct15one_field_error, symObjAddr: 0xFED8, symBinAddr: 0x2B8D8, symSize: 0x40 }
  - { offset: 0x7A41E, size: 0x8, addend: 0x0, symName: __RNCNvCsf44oge9wsd6_12snafu_derive24parse_snafu_tuple_struct0B3_, symObjAddr: 0xFF18, symBinAddr: 0x2B918, symSize: 0xFC }
  - { offset: 0x7A44E, size: 0x8, addend: 0x0, symName: __RNCNvCsf44oge9wsd6_12snafu_derive24parse_snafu_tuple_structs_0B3_, symObjAddr: 0x10014, symBinAddr: 0x2BA14, symSize: 0x120 }
  - { offset: 0x7A4B3, size: 0x8, addend: 0x0, symName: __RNCNvCsf44oge9wsd6_12snafu_derive24parse_snafu_tuple_structs0_0B3_, symObjAddr: 0x10134, symBinAddr: 0x2BB34, symSize: 0x74 }
  - { offset: 0x7A4EE, size: 0x8, addend: 0x0, symName: __RNCNvMsd_Csf44oge9wsd6_12snafu_deriveNtB7_10DocComment6finish0B7_, symObjAddr: 0x10448, symBinAddr: 0x2BE48, symSize: 0x128 }
  - { offset: 0x7A566, size: 0x8, addend: 0x0, symName: __RNvCsf44oge9wsd6_12snafu_derive18default_crate_root, symObjAddr: 0x10570, symBinAddr: 0x2BF70, symSize: 0x100 }
  - { offset: 0x7A5BA, size: 0x8, addend: 0x0, symName: __RNvCsf44oge9wsd6_12snafu_derive18private_visibility, symObjAddr: 0x10670, symBinAddr: 0x2C070, symSize: 0x8C }
  - { offset: 0x7A5F7, size: 0x8, addend: 0x0, symName: __RNvCsf44oge9wsd6_12snafu_derive45default_context_selector_visibility_in_module, symObjAddr: 0x106FC, symBinAddr: 0x2C0FC, symSize: 0xFC }
  - { offset: 0x7A647, size: 0x8, addend: 0x0, symName: __RNvYNtCsf44oge9wsd6_12snafu_derive15NamedStructInfoNtB4_17GenericAwareNames18parameterized_nameB4_, symObjAddr: 0x107F8, symBinAddr: 0x2C1F8, symSize: 0x214 }
  - { offset: 0x7A76B, size: 0x8, addend: 0x0, symName: __RNvYNtCsf44oge9wsd6_12snafu_derive15TupleStructInfoNtB4_17GenericAwareNames18parameterized_nameB4_, symObjAddr: 0x10A0C, symBinAddr: 0x2C40C, symSize: 0x214 }
  - { offset: 0x7A88F, size: 0x8, addend: 0x0, symName: __RNvYNtCsf44oge9wsd6_12snafu_derive8EnumInfoNtB4_17GenericAwareNames18parameterized_nameB4_, symObjAddr: 0x10C20, symBinAddr: 0x2C620, symSize: 0x214 }
  - { offset: 0x7A9B3, size: 0x8, addend: 0x0, symName: __RNvYNtCsf44oge9wsd6_12snafu_derive15NamedStructInfoNtB4_17GenericAwareNames39provided_generic_types_without_defaultsB4_, symObjAddr: 0x10E34, symBinAddr: 0x2C834, symSize: 0x48 }
  - { offset: 0x7A9EA, size: 0x8, addend: 0x0, symName: __RNvYNtCsf44oge9wsd6_12snafu_derive8EnumInfoNtB4_17GenericAwareNames39provided_generic_types_without_defaultsB4_, symObjAddr: 0x10E7C, symBinAddr: 0x2C87C, symSize: 0x48 }
  - { offset: 0x7AA26, size: 0x8, addend: 0x0, symName: __RNCNvYNtCsf44oge9wsd6_12snafu_derive15NamedStructInfoNtB6_17GenericAwareNames39provided_generic_types_without_defaults0B6_, symObjAddr: 0x10EC4, symBinAddr: 0x2C8C4, symSize: 0x170 }
  - { offset: 0x7AB50, size: 0x8, addend: 0x0, symName: __RNCNvYNtCsf44oge9wsd6_12snafu_derive8EnumInfoNtB6_17GenericAwareNames39provided_generic_types_without_defaults0B6_, symObjAddr: 0x11034, symBinAddr: 0x2CA34, symSize: 0x170 }
  - { offset: 0x7AC89, size: 0x8, addend: 0x0, symName: __RNvYNtCsf44oge9wsd6_12snafu_derive15NamedStructInfoNtB4_17GenericAwareNames34provided_generics_without_defaultsB4_, symObjAddr: 0x111A4, symBinAddr: 0x2CBA4, symSize: 0xE0 }
  - { offset: 0x7ACC0, size: 0x8, addend: 0x0, symName: __RNvYNtCsf44oge9wsd6_12snafu_derive8EnumInfoNtB4_17GenericAwareNames34provided_generics_without_defaultsB4_, symObjAddr: 0x11284, symBinAddr: 0x2CC84, symSize: 0xE0 }
  - { offset: 0x7ACF7, size: 0x8, addend: 0x0, symName: __RNvYNtCsf44oge9wsd6_12snafu_derive15NamedStructInfoNtB4_17GenericAwareNames26provided_generic_lifetimesB4_, symObjAddr: 0x11364, symBinAddr: 0x2CD64, symSize: 0x54 }
  - { offset: 0x7AD2E, size: 0x8, addend: 0x0, symName: __RNvYNtCsf44oge9wsd6_12snafu_derive8EnumInfoNtB4_17GenericAwareNames26provided_generic_lifetimesB4_, symObjAddr: 0x113B8, symBinAddr: 0x2CDB8, symSize: 0x54 }
  - { offset: 0x7AD6A, size: 0x8, addend: 0x0, symName: __RNCNvYNtCsf44oge9wsd6_12snafu_derive15NamedStructInfoNtB6_17GenericAwareNames26provided_generic_lifetimes0B6_, symObjAddr: 0x1140C, symBinAddr: 0x2CE0C, symSize: 0x104 }
  - { offset: 0x7ADD8, size: 0x8, addend: 0x0, symName: __RNCNvYNtCsf44oge9wsd6_12snafu_derive8EnumInfoNtB6_17GenericAwareNames26provided_generic_lifetimes0B6_, symObjAddr: 0x11510, symBinAddr: 0x2CF10, symSize: 0x104 }
  - { offset: 0x7AE55, size: 0x8, addend: 0x0, symName: __RNvYNtCsf44oge9wsd6_12snafu_derive15NamedStructInfoNtB4_17GenericAwareNames22provided_generic_namesB4_, symObjAddr: 0x11614, symBinAddr: 0x2D014, symSize: 0x48 }
  - { offset: 0x7AE8C, size: 0x8, addend: 0x0, symName: __RNvYNtCsf44oge9wsd6_12snafu_derive15TupleStructInfoNtB4_17GenericAwareNames22provided_generic_namesB4_, symObjAddr: 0x1165C, symBinAddr: 0x2D05C, symSize: 0x48 }
  - { offset: 0x7AEC3, size: 0x8, addend: 0x0, symName: __RNvYNtCsf44oge9wsd6_12snafu_derive8EnumInfoNtB4_17GenericAwareNames22provided_generic_namesB4_, symObjAddr: 0x116A4, symBinAddr: 0x2D0A4, symSize: 0x48 }
  - { offset: 0x7AEFF, size: 0x8, addend: 0x0, symName: __RNCNvYNtCsf44oge9wsd6_12snafu_derive15NamedStructInfoNtB6_17GenericAwareNames22provided_generic_names0B6_, symObjAddr: 0x116EC, symBinAddr: 0x2D0EC, symSize: 0x1D4 }
  - { offset: 0x7AFCA, size: 0x8, addend: 0x0, symName: __RNCNvYNtCsf44oge9wsd6_12snafu_derive15TupleStructInfoNtB6_17GenericAwareNames22provided_generic_names0B6_, symObjAddr: 0x118C0, symBinAddr: 0x2D2C0, symSize: 0x1D4 }
  - { offset: 0x7B095, size: 0x8, addend: 0x0, symName: __RNCNvYNtCsf44oge9wsd6_12snafu_derive8EnumInfoNtB6_17GenericAwareNames22provided_generic_names0B6_, symObjAddr: 0x11A94, symBinAddr: 0x2D494, symSize: 0x1D4 }
  - { offset: 0x7B176, size: 0x8, addend: 0x0, symName: __RNvYNtCsf44oge9wsd6_12snafu_derive15NamedStructInfoNtB4_17GenericAwareNames22provided_where_clausesB4_, symObjAddr: 0x11C68, symBinAddr: 0x2D668, symSize: 0x58 }
  - { offset: 0x7B1AD, size: 0x8, addend: 0x0, symName: __RNvYNtCsf44oge9wsd6_12snafu_derive8EnumInfoNtB4_17GenericAwareNames22provided_where_clausesB4_, symObjAddr: 0x11CC0, symBinAddr: 0x2D6C0, symSize: 0x58 }
  - { offset: 0x7B1E9, size: 0x8, addend: 0x0, symName: __RNCNvYNtCsf44oge9wsd6_12snafu_derive15NamedStructInfoNtB6_17GenericAwareNames22provided_where_clauses0B6_, symObjAddr: 0x11D18, symBinAddr: 0x2D718, symSize: 0x44 }
  - { offset: 0x7B22B, size: 0x8, addend: 0x0, symName: __RNCNvYNtCsf44oge9wsd6_12snafu_derive8EnumInfoNtB6_17GenericAwareNames22provided_where_clauses0B6_, symObjAddr: 0x11D5C, symBinAddr: 0x2D75C, symSize: 0x44 }
  - { offset: 0x7B272, size: 0x8, addend: 0x0, symName: __RNCNCNvYNtCsf44oge9wsd6_12snafu_derive15NamedStructInfoNtB8_17GenericAwareNames22provided_where_clauses00B8_, symObjAddr: 0x11DA0, symBinAddr: 0x2D7A0, symSize: 0x94 }
  - { offset: 0x7B2CA, size: 0x8, addend: 0x0, symName: __RNCNCNvYNtCsf44oge9wsd6_12snafu_derive8EnumInfoNtB8_17GenericAwareNames22provided_where_clauses00B8_, symObjAddr: 0x11E34, symBinAddr: 0x2D834, symSize: 0x94 }
  - { offset: 0x7B3B9, size: 0x8, addend: 0x0, symName: __RNvXsj_Csf44oge9wsd6_12snafu_deriveNtB5_8EnumInfoNtB5_17GenericAwareNames4name, symObjAddr: 0x1211C, symBinAddr: 0x2DB1C, symSize: 0x24 }
  - { offset: 0x7B3E7, size: 0x8, addend: 0x0, symName: __RNvXsj_Csf44oge9wsd6_12snafu_deriveNtB5_8EnumInfoNtB5_17GenericAwareNames8generics, symObjAddr: 0x12140, symBinAddr: 0x2DB40, symSize: 0x24 }
  - { offset: 0x7B41B, size: 0x8, addend: 0x0, symName: __RNvXsk_Csf44oge9wsd6_12snafu_deriveNtB5_16ContextSelectorsNtNtCs2cqEZUIJimJ_5quote9to_tokens8ToTokens9to_tokens, symObjAddr: 0x12164, symBinAddr: 0x2DB64, symSize: 0x168 }
  - { offset: 0x7B518, size: 0x8, addend: 0x0, symName: __RNCNvXsk_Csf44oge9wsd6_12snafu_deriveNtB7_16ContextSelectorsNtNtCs2cqEZUIJimJ_5quote9to_tokens8ToTokens9to_tokens0B7_, symObjAddr: 0x122CC, symBinAddr: 0x2DCCC, symSize: 0x38 }
  - { offset: 0x7B572, size: 0x8, addend: 0x0, symName: __RNvXsl_Csf44oge9wsd6_12snafu_deriveNtB5_15ContextSelectorNtNtCs2cqEZUIJimJ_5quote9to_tokens8ToTokens9to_tokens, symObjAddr: 0x12304, symBinAddr: 0x2DD04, symSize: 0x5E8 }
  - { offset: 0x7B6D6, size: 0x8, addend: 0x0, symName: __RNvXsm_Csf44oge9wsd6_12snafu_deriveNtB5_11DisplayImplNtNtCs2cqEZUIJimJ_5quote9to_tokens8ToTokens9to_tokens, symObjAddr: 0x128EC, symBinAddr: 0x2E2EC, symSize: 0x264 }
  - { offset: 0x7B797, size: 0x8, addend: 0x0, symName: __RNCNvXsm_Csf44oge9wsd6_12snafu_deriveNtB7_11DisplayImplNtNtCs2cqEZUIJimJ_5quote9to_tokens8ToTokens9to_tokens0B7_, symObjAddr: 0x12B50, symBinAddr: 0x2E550, symSize: 0x1BC }
  - { offset: 0x7B86A, size: 0x8, addend: 0x0, symName: __RNvXsn_Csf44oge9wsd6_12snafu_deriveNtB5_9ErrorImplNtNtCs2cqEZUIJimJ_5quote9to_tokens8ToTokens9to_tokens, symObjAddr: 0x12D0C, symBinAddr: 0x2E70C, symSize: 0x83C }
  - { offset: 0x7BAC8, size: 0x8, addend: 0x0, symName: __RNvXso_Csf44oge9wsd6_12snafu_deriveNtB5_15ErrorCompatImplNtNtCs2cqEZUIJimJ_5quote9to_tokens8ToTokens9to_tokens, symObjAddr: 0x13548, symBinAddr: 0x2EF48, symSize: 0x270 }
  - { offset: 0x7BB73, size: 0x8, addend: 0x0, symName: __RNCNvXso_Csf44oge9wsd6_12snafu_deriveNtB7_15ErrorCompatImplNtNtCs2cqEZUIJimJ_5quote9to_tokens8ToTokens9to_tokens0B7_, symObjAddr: 0x137B8, symBinAddr: 0x2F1B8, symSize: 0x194 }
  - { offset: 0x7BC8B, size: 0x8, addend: 0x0, symName: __RNCNvMsp_Csf44oge9wsd6_12snafu_deriveNtB7_15NamedStructInfo14generate_snafu0B7_, symObjAddr: 0x148D8, symBinAddr: 0x302D8, symSize: 0x30 }
  - { offset: 0x7BCD2, size: 0x8, addend: 0x0, symName: __RNvXsq_Csf44oge9wsd6_12snafu_deriveNtB5_15NamedStructInfoNtB5_17GenericAwareNames4name, symObjAddr: 0x14908, symBinAddr: 0x30308, symSize: 0x24 }
  - { offset: 0x7BD00, size: 0x8, addend: 0x0, symName: __RNvXsq_Csf44oge9wsd6_12snafu_deriveNtB5_15NamedStructInfoNtB5_17GenericAwareNames8generics, symObjAddr: 0x1492C, symBinAddr: 0x3032C, symSize: 0x24 }
  - { offset: 0x7BD97, size: 0x8, addend: 0x0, symName: __RNCNvMsr_Csf44oge9wsd6_12snafu_deriveNtB7_15TupleStructInfo14generate_snafu0B7_, symObjAddr: 0x16FD8, symBinAddr: 0x329D8, symSize: 0x44 }
  - { offset: 0x7BDD5, size: 0x8, addend: 0x0, symName: __RNCNCNvMsr_Csf44oge9wsd6_12snafu_deriveNtB9_15TupleStructInfo14generate_snafu00B9_, symObjAddr: 0x1701C, symBinAddr: 0x32A1C, symSize: 0x94 }
  - { offset: 0x7BE3A, size: 0x8, addend: 0x0, symName: __RNvXss_Csf44oge9wsd6_12snafu_deriveNtB5_15TupleStructInfoNtB5_17GenericAwareNames4name, symObjAddr: 0x170B0, symBinAddr: 0x32AB0, symSize: 0x24 }
  - { offset: 0x7BE68, size: 0x8, addend: 0x0, symName: __RNvXss_Csf44oge9wsd6_12snafu_deriveNtB5_15TupleStructInfoNtB5_17GenericAwareNames8generics, symObjAddr: 0x170D4, symBinAddr: 0x32AD4, symSize: 0x24 }
  - { offset: 0x7BE9C, size: 0x8, addend: 0x0, symName: __RNvXsw_Csf44oge9wsd6_12snafu_deriveNtB5_12SyntaxErrorsNtNtCsfvfooZQ3Axs_4core7default7Default7defaultB5_, symObjAddr: 0x170F8, symBinAddr: 0x32AF8, symSize: 0x38 }
  - { offset: 0x7BEBF, size: 0x8, addend: 0x0, symName: __RNvXsF_Csf44oge9wsd6_12snafu_deriveNtB5_10DocCommentNtNtCsfvfooZQ3Axs_4core7default7Default7defaultB5_, symObjAddr: 0x17130, symBinAddr: 0x32B30, symSize: 0x7C }
  - { offset: 0x7C7AB, size: 0x8, addend: 0x0, symName: __RNvXNtCs2cqEZUIJimJ_5quote9to_tokensRNtCsf44oge9wsd6_12snafu_derive16ContextSelectorsNtB2_8ToTokens9to_tokensBB_, symObjAddr: 0xA0, symBinAddr: 0x1BAA0, symSize: 0x40 }
  - { offset: 0x81DC1, size: 0x8, addend: 0x0, symName: __RNvMCsf44oge9wsd6_12snafu_deriveNtB2_14FieldContainer11user_fields, symObjAddr: 0x1174, symBinAddr: 0x1CB74, symSize: 0x34 }
  - { offset: 0x81E0A, size: 0x8, addend: 0x0, symName: __RNvMCsf44oge9wsd6_12snafu_deriveNtB2_14FieldContainer8provides, symObjAddr: 0x11A8, symBinAddr: 0x1CBA8, symSize: 0x34 }
  - { offset: 0x81E39, size: 0x8, addend: 0x0, symName: __RNvMs_Csf44oge9wsd6_12snafu_deriveNtB4_10SuffixKind20resolve_with_default, symObjAddr: 0x11DC, symBinAddr: 0x1CBDC, symSize: 0xC0 }
  - { offset: 0x81E76, size: 0x8, addend: 0x0, symName: __RNvMs0_Csf44oge9wsd6_12snafu_deriveNtB5_19ContextSelectorKind11is_whatever, symObjAddr: 0x129C, symBinAddr: 0x1CC9C, symSize: 0x74 }
  - { offset: 0x81E98, size: 0x8, addend: 0x0, symName: __RNvMs0_Csf44oge9wsd6_12snafu_deriveNtB5_19ContextSelectorKind11user_fields, symObjAddr: 0x1310, symBinAddr: 0x1CD10, symSize: 0xD8 }
  - { offset: 0x81EE4, size: 0x8, addend: 0x0, symName: __RNvMs0_Csf44oge9wsd6_12snafu_deriveNtB5_19ContextSelectorKind12source_field, symObjAddr: 0x13E8, symBinAddr: 0x1CDE8, symSize: 0xE4 }
  - { offset: 0x81F6A, size: 0x8, addend: 0x0, symName: __RNvMs0_Csf44oge9wsd6_12snafu_deriveNtB5_19ContextSelectorKind13message_field, symObjAddr: 0x14CC, symBinAddr: 0x1CECC, symSize: 0xAC }
  - { offset: 0x81FA9, size: 0x8, addend: 0x0, symName: __RNvMs1_Csf44oge9wsd6_12snafu_deriveNtB5_5Field4name, symObjAddr: 0x1578, symBinAddr: 0x1CF78, symSize: 0x24 }
  - { offset: 0x81FCB, size: 0x8, addend: 0x0, symName: __RNvMs2_Csf44oge9wsd6_12snafu_deriveNtB5_11SourceField4name, symObjAddr: 0x159C, symBinAddr: 0x1CF9C, symSize: 0x24 }
  - { offset: 0x82007, size: 0x8, addend: 0x0, symName: __RNvMs3_Csf44oge9wsd6_12snafu_deriveNtB5_14Transformation9source_ty, symObjAddr: 0x15C0, symBinAddr: 0x1CFC0, symSize: 0x8C }
  - { offset: 0x82063, size: 0x8, addend: 0x0, symName: __RNvMs3_Csf44oge9wsd6_12snafu_deriveNtB5_14Transformation9target_ty, symObjAddr: 0x164C, symBinAddr: 0x1D04C, symSize: 0x8C }
  - { offset: 0x820BF, size: 0x8, addend: 0x0, symName: __RNvMs3_Csf44oge9wsd6_12snafu_deriveNtB5_14Transformation14transformation, symObjAddr: 0x16D8, symBinAddr: 0x1D0D8, symSize: 0x164 }
  - { offset: 0x8214E, size: 0x8, addend: 0x0, symName: __RNvMs4_Csf44oge9wsd6_12snafu_deriveNtB5_12SyntaxErrors6scoped, symObjAddr: 0x183C, symBinAddr: 0x1D23C, symSize: 0x28 }
  - { offset: 0x8217E, size: 0x8, addend: 0x0, symName: __RINvMs4_Csf44oge9wsd6_12snafu_deriveNtB6_12SyntaxErrors3addNtCs3cP53eQoTwO_11proc_macro211TokenStreamNtB6_18DuplicateAttributeEB6_, symObjAddr: 0x1864, symBinAddr: 0x1D264, symSize: 0x5C }
  - { offset: 0x821D0, size: 0x8, addend: 0x0, symName: __RINvMs4_Csf44oge9wsd6_12snafu_deriveNtB6_12SyntaxErrors3addNtCs3cP53eQoTwO_11proc_macro211TokenStreamNtNtCse1nGBsou5OW_5alloc6string6StringEB6_, symObjAddr: 0x18C0, symBinAddr: 0x1D2C0, symSize: 0x5C }
  - { offset: 0x82222, size: 0x8, addend: 0x0, symName: __RINvMs4_Csf44oge9wsd6_12snafu_deriveNtB6_12SyntaxErrors3addNtCs3cP53eQoTwO_11proc_macro211TokenStreamReEB6_, symObjAddr: 0x191C, symBinAddr: 0x1D31C, symSize: 0x6C }
  - { offset: 0x82273, size: 0x8, addend: 0x0, symName: __RINvMs4_Csf44oge9wsd6_12snafu_deriveNtB6_12SyntaxErrors3addNtNtCs5AlOhPCr03V_3syn4data5FieldNtB6_18DuplicateAttributeEB6_, symObjAddr: 0x1988, symBinAddr: 0x1D388, symSize: 0x5C }
  - { offset: 0x822C5, size: 0x8, addend: 0x0, symName: __RINvMs4_Csf44oge9wsd6_12snafu_deriveNtB6_12SyntaxErrors3addNtNtCs5AlOhPCr03V_3syn4data5FieldReEB6_, symObjAddr: 0x19E4, symBinAddr: 0x1D3E4, symSize: 0x6C }
  - { offset: 0x82316, size: 0x8, addend: 0x0, symName: __RINvMs4_Csf44oge9wsd6_12snafu_deriveNtB6_12SyntaxErrors6extendINtNtCse1nGBsou5OW_5alloc3vec3VecNtNtCs5AlOhPCr03V_3syn5error5ErrorEEB6_, symObjAddr: 0x1A50, symBinAddr: 0x1D450, symSize: 0x3C }
  - { offset: 0x8235F, size: 0x8, addend: 0x0, symName: __RINvMs4_Csf44oge9wsd6_12snafu_deriveNtB6_12SyntaxErrors6extendINtNtNtNtCsfvfooZQ3Axs_4core4iter8adapters3map3MapINtNtNtCse1nGBsou5OW_5alloc3vec9into_iter8IntoIterNtB6_5FieldENCNvB6_15field_containers7_0EEB6_, symObjAddr: 0x1A8C, symBinAddr: 0x1D48C, symSize: 0x3C }
  - { offset: 0x8239B, size: 0x8, addend: 0x0, symName: __RNvMs4_Csf44oge9wsd6_12snafu_deriveNtB5_12SyntaxErrors6finish, symObjAddr: 0x1AC8, symBinAddr: 0x1D4C8, symSize: 0xE8 }
  - { offset: 0x823BF, size: 0x8, addend: 0x0, symName: __RINvMs4_Csf44oge9wsd6_12snafu_deriveNtB6_12SyntaxErrors6absorbINtNtCse1nGBsou5OW_5alloc3vec3VecNtB6_14FieldContainerEEB6_, symObjAddr: 0x1BB0, symBinAddr: 0x1D5B0, symSize: 0x198 }
  - { offset: 0x82436, size: 0x8, addend: 0x0, symName: __RINvMs6_Csf44oge9wsd6_12snafu_deriveNtB6_18SyntaxErrorsScoped3addNtCs3cP53eQoTwO_11proc_macro211TokenStreamNtB6_10WrongFieldEB6_, symObjAddr: 0x1F74, symBinAddr: 0x1D974, symSize: 0xC8 }
  - { offset: 0x824A9, size: 0x8, addend: 0x0, symName: __RINvMs6_Csf44oge9wsd6_12snafu_deriveNtB6_18SyntaxErrorsScoped3addNtCs3cP53eQoTwO_11proc_macro211TokenStreamNtB6_11OnlyValidOnEB6_, symObjAddr: 0x203C, symBinAddr: 0x1DA3C, symSize: 0xC8 }
  - { offset: 0x8251C, size: 0x8, addend: 0x0, symName: __RINvMs6_Csf44oge9wsd6_12snafu_deriveNtB6_18SyntaxErrorsScoped3addNtCs3cP53eQoTwO_11proc_macro211TokenStreamNtB6_22IncompatibleAttributesEB6_, symObjAddr: 0x2104, symBinAddr: 0x1DB04, symSize: 0xD0 }
  - { offset: 0x825AC, size: 0x8, addend: 0x0, symName: __RNvMsb_Csf44oge9wsd6_12snafu_deriveINtB5_9AtMostOneINtNtCse1nGBsou5OW_5alloc5boxed3BoxDNtNtCs2cqEZUIJimJ_5quote9to_tokens8ToTokensEL_ENtCs3cP53eQoTwO_11proc_macro211TokenStreamE3newB5_, symObjAddr: 0x25BC, symBinAddr: 0x1DFBC, symSize: 0xBC }
  - { offset: 0x82630, size: 0x8, addend: 0x0, symName: __RNvMsb_Csf44oge9wsd6_12snafu_deriveINtB5_9AtMostOneINtNtCsfvfooZQ3Axs_4core6option6OptionTNtNtCs5AlOhPCr03V_3syn2ty4TypeNtNtB1u_4expr4ExprEENtCs3cP53eQoTwO_11proc_macro211TokenStreamE3newB5_, symObjAddr: 0x2678, symBinAddr: 0x1E078, symSize: 0xBC }
  - { offset: 0x82692, size: 0x8, addend: 0x0, symName: __RNvMsb_Csf44oge9wsd6_12snafu_deriveINtB5_9AtMostOneNtB5_10ModuleNameNtCs3cP53eQoTwO_11proc_macro211TokenStreamE3newB5_, symObjAddr: 0x2734, symBinAddr: 0x1E134, symSize: 0xBC }
  - { offset: 0x826F4, size: 0x8, addend: 0x0, symName: __RNvMsb_Csf44oge9wsd6_12snafu_deriveINtB5_9AtMostOneNtB5_10SuffixKindNtCs3cP53eQoTwO_11proc_macro211TokenStreamE3newB5_, symObjAddr: 0x27F0, symBinAddr: 0x1E1F0, symSize: 0xBC }
  - { offset: 0x82758, size: 0x8, addend: 0x0, symName: __RNvMsb_Csf44oge9wsd6_12snafu_deriveINtB5_9AtMostOneNtB5_11SourceFieldNtCs3cP53eQoTwO_11proc_macro211TokenStreamE3newB5_, symObjAddr: 0x28AC, symBinAddr: 0x1E2AC, symSize: 0xBC }
  - { offset: 0x827BC, size: 0x8, addend: 0x0, symName: __RNvMsb_Csf44oge9wsd6_12snafu_deriveINtB5_9AtMostOneNtB5_5FieldNtCs3cP53eQoTwO_11proc_macro211TokenStreamE3newB5_, symObjAddr: 0x2968, symBinAddr: 0x1E368, symSize: 0xBC }
  - { offset: 0x82820, size: 0x8, addend: 0x0, symName: __RNvMsb_Csf44oge9wsd6_12snafu_deriveINtB5_9AtMostOneNtB5_5FieldNtNtCs5AlOhPCr03V_3syn4data5FieldE3newB5_, symObjAddr: 0x2A24, symBinAddr: 0x1E424, symSize: 0xBC }
  - { offset: 0x82882, size: 0x8, addend: 0x0, symName: __RNvMsb_Csf44oge9wsd6_12snafu_deriveINtB5_9AtMostOneNtB5_7ContextNtCs3cP53eQoTwO_11proc_macro211TokenStreamE3newB5_, symObjAddr: 0x2AE0, symBinAddr: 0x1E4E0, symSize: 0xBC }
  - { offset: 0x828E4, size: 0x8, addend: 0x0, symName: __RNvMsb_Csf44oge9wsd6_12snafu_deriveINtB5_9AtMostOneNtB5_7DisplayNtCs3cP53eQoTwO_11proc_macro211TokenStreamE3newB5_, symObjAddr: 0x2B9C, symBinAddr: 0x1E59C, symSize: 0xBC }
  - { offset: 0x82948, size: 0x8, addend: 0x0, symName: __RNvMsb_Csf44oge9wsd6_12snafu_deriveINtB5_9AtMostOneTNtNtCs5AlOhPCr03V_3syn2ty4TypeNtNtBS_4expr4ExprENtCs3cP53eQoTwO_11proc_macro211TokenStreamE3newB5_, symObjAddr: 0x2C58, symBinAddr: 0x1E658, symSize: 0xBC }
  - { offset: 0x829AA, size: 0x8, addend: 0x0, symName: __RNvMsb_Csf44oge9wsd6_12snafu_deriveINtB5_9AtMostOneuNtCs3cP53eQoTwO_11proc_macro211TokenStreamE3newB5_, symObjAddr: 0x2D14, symBinAddr: 0x1E714, symSize: 0xBC }
  - { offset: 0x829FB, size: 0x8, addend: 0x0, symName: __RNvMsb_Csf44oge9wsd6_12snafu_deriveINtB5_9AtMostOneINtNtCse1nGBsou5OW_5alloc5boxed3BoxDNtNtCs2cqEZUIJimJ_5quote9to_tokens8ToTokensEL_ENtCs3cP53eQoTwO_11proc_macro211TokenStreamE3addB5_, symObjAddr: 0x2DD0, symBinAddr: 0x1E7D0, symSize: 0x180 }
  - { offset: 0x82A5C, size: 0x8, addend: 0x0, symName: __RNvMsb_Csf44oge9wsd6_12snafu_deriveINtB5_9AtMostOneINtNtCsfvfooZQ3Axs_4core6option6OptionTNtNtCs5AlOhPCr03V_3syn2ty4TypeNtNtB1u_4expr4ExprEENtCs3cP53eQoTwO_11proc_macro211TokenStreamE3addB5_, symObjAddr: 0x2F50, symBinAddr: 0x1E950, symSize: 0x1AC }
  - { offset: 0x82ABE, size: 0x8, addend: 0x0, symName: __RNvMsb_Csf44oge9wsd6_12snafu_deriveINtB5_9AtMostOneNtB5_10ModuleNameNtCs3cP53eQoTwO_11proc_macro211TokenStreamE3addB5_, symObjAddr: 0x30FC, symBinAddr: 0x1EAFC, symSize: 0x198 }
  - { offset: 0x82B20, size: 0x8, addend: 0x0, symName: __RNvMsb_Csf44oge9wsd6_12snafu_deriveINtB5_9AtMostOneNtB5_10SuffixKindNtCs3cP53eQoTwO_11proc_macro211TokenStreamE3addB5_, symObjAddr: 0x3294, symBinAddr: 0x1EC94, symSize: 0x198 }
  - { offset: 0x82B82, size: 0x8, addend: 0x0, symName: __RNvMsb_Csf44oge9wsd6_12snafu_deriveINtB5_9AtMostOneNtB5_11SourceFieldNtCs3cP53eQoTwO_11proc_macro211TokenStreamE3addB5_, symObjAddr: 0x342C, symBinAddr: 0x1EE2C, symSize: 0x1B0 }
  - { offset: 0x82BE4, size: 0x8, addend: 0x0, symName: __RNvMsb_Csf44oge9wsd6_12snafu_deriveINtB5_9AtMostOneNtB5_5FieldNtCs3cP53eQoTwO_11proc_macro211TokenStreamE3addB5_, symObjAddr: 0x35DC, symBinAddr: 0x1EFDC, symSize: 0x1AC }
  - { offset: 0x82C46, size: 0x8, addend: 0x0, symName: __RNvMsb_Csf44oge9wsd6_12snafu_deriveINtB5_9AtMostOneNtB5_5FieldNtNtCs5AlOhPCr03V_3syn4data5FieldE3addB5_, symObjAddr: 0x3788, symBinAddr: 0x1F188, symSize: 0x1A8 }
  - { offset: 0x82CA8, size: 0x8, addend: 0x0, symName: __RNvMsb_Csf44oge9wsd6_12snafu_deriveINtB5_9AtMostOneNtB5_7ContextNtCs3cP53eQoTwO_11proc_macro211TokenStreamE3addB5_, symObjAddr: 0x3930, symBinAddr: 0x1F330, symSize: 0x198 }
  - { offset: 0x82D0A, size: 0x8, addend: 0x0, symName: __RNvMsb_Csf44oge9wsd6_12snafu_deriveINtB5_9AtMostOneNtB5_7DisplayNtCs3cP53eQoTwO_11proc_macro211TokenStreamE3addB5_, symObjAddr: 0x3AC8, symBinAddr: 0x1F4C8, symSize: 0x1A8 }
  - { offset: 0x82D6C, size: 0x8, addend: 0x0, symName: __RNvMsb_Csf44oge9wsd6_12snafu_deriveINtB5_9AtMostOneTNtNtCs5AlOhPCr03V_3syn2ty4TypeNtNtBS_4expr4ExprENtCs3cP53eQoTwO_11proc_macro211TokenStreamE3addB5_, symObjAddr: 0x3C70, symBinAddr: 0x1F670, symSize: 0x1AC }
  - { offset: 0x82DCE, size: 0x8, addend: 0x0, symName: __RNvMsb_Csf44oge9wsd6_12snafu_deriveINtB5_9AtMostOneuNtCs3cP53eQoTwO_11proc_macro211TokenStreamE3addB5_, symObjAddr: 0x3E1C, symBinAddr: 0x1F81C, symSize: 0x154 }
  - { offset: 0x82E49, size: 0x8, addend: 0x0, symName: __RNvMsb_Csf44oge9wsd6_12snafu_deriveINtB5_9AtMostOneINtNtCsfvfooZQ3Axs_4core6option6OptionTNtNtCs5AlOhPCr03V_3syn2ty4TypeNtNtB1u_4expr4ExprEENtCs3cP53eQoTwO_11proc_macro211TokenStreamE4iterB5_, symObjAddr: 0x3F70, symBinAddr: 0x1F970, symSize: 0x34 }
  - { offset: 0x82E9C, size: 0x8, addend: 0x0, symName: __RNvMsb_Csf44oge9wsd6_12snafu_deriveINtB5_9AtMostOneINtNtCse1nGBsou5OW_5alloc5boxed3BoxDNtNtCs2cqEZUIJimJ_5quote9to_tokens8ToTokensEL_ENtCs3cP53eQoTwO_11proc_macro211TokenStreamE6finishB5_, symObjAddr: 0x3FA4, symBinAddr: 0x1F9A4, symSize: 0x11C }
  - { offset: 0x82F18, size: 0x8, addend: 0x0, symName: __RNvMsb_Csf44oge9wsd6_12snafu_deriveINtB5_9AtMostOneNtB5_10ModuleNameNtCs3cP53eQoTwO_11proc_macro211TokenStreamE6finishB5_, symObjAddr: 0x40C0, symBinAddr: 0x1FAC0, symSize: 0x128 }
  - { offset: 0x82F93, size: 0x8, addend: 0x0, symName: __RNvMsb_Csf44oge9wsd6_12snafu_deriveINtB5_9AtMostOneNtB5_10SuffixKindNtCs3cP53eQoTwO_11proc_macro211TokenStreamE6finishB5_, symObjAddr: 0x41E8, symBinAddr: 0x1FBE8, symSize: 0x128 }
  - { offset: 0x83010, size: 0x8, addend: 0x0, symName: __RNvMsb_Csf44oge9wsd6_12snafu_deriveINtB5_9AtMostOneNtB5_5FieldNtNtCs5AlOhPCr03V_3syn4data5FieldE6finishB5_, symObjAddr: 0x4310, symBinAddr: 0x1FD10, symSize: 0x13C }
  - { offset: 0x8308B, size: 0x8, addend: 0x0, symName: __RNvMsb_Csf44oge9wsd6_12snafu_deriveINtB5_9AtMostOneNtB5_7DisplayNtCs3cP53eQoTwO_11proc_macro211TokenStreamE6finishB5_, symObjAddr: 0x444C, symBinAddr: 0x1FE4C, symSize: 0x130 }
  - { offset: 0x83108, size: 0x8, addend: 0x0, symName: __RNvMsb_Csf44oge9wsd6_12snafu_deriveINtB5_9AtMostOneTNtNtCs5AlOhPCr03V_3syn2ty4TypeNtNtBS_4expr4ExprENtCs3cP53eQoTwO_11proc_macro211TokenStreamE6finishB5_, symObjAddr: 0x457C, symBinAddr: 0x1FF7C, symSize: 0x124 }
  - { offset: 0x83183, size: 0x8, addend: 0x0, symName: __RNvMsb_Csf44oge9wsd6_12snafu_deriveINtB5_9AtMostOneuNtCs3cP53eQoTwO_11proc_macro211TokenStreamE6finishB5_, symObjAddr: 0x46A0, symBinAddr: 0x200A0, symSize: 0xF4 }
  - { offset: 0x831FD, size: 0x8, addend: 0x0, symName: __RNvMsb_Csf44oge9wsd6_12snafu_deriveINtB5_9AtMostOneINtNtCse1nGBsou5OW_5alloc5boxed3BoxDNtNtCs2cqEZUIJimJ_5quote9to_tokens8ToTokensEL_ENtCs3cP53eQoTwO_11proc_macro211TokenStreamE20finish_with_locationB5_, symObjAddr: 0x4A1C, symBinAddr: 0x2041C, symSize: 0x148 }
  - { offset: 0x83288, size: 0x8, addend: 0x0, symName: __RNvMsb_Csf44oge9wsd6_12snafu_deriveINtB5_9AtMostOneINtNtCsfvfooZQ3Axs_4core6option6OptionTNtNtCs5AlOhPCr03V_3syn2ty4TypeNtNtB1u_4expr4ExprEENtCs3cP53eQoTwO_11proc_macro211TokenStreamE20finish_with_locationB5_, symObjAddr: 0x4B64, symBinAddr: 0x20564, symSize: 0x150 }
  - { offset: 0x83311, size: 0x8, addend: 0x0, symName: __RNvMsb_Csf44oge9wsd6_12snafu_deriveINtB5_9AtMostOneNtB5_10ModuleNameNtCs3cP53eQoTwO_11proc_macro211TokenStreamE20finish_with_locationB5_, symObjAddr: 0x4CB4, symBinAddr: 0x206B4, symSize: 0x148 }
  - { offset: 0x8339A, size: 0x8, addend: 0x0, symName: __RNvMsb_Csf44oge9wsd6_12snafu_deriveINtB5_9AtMostOneNtB5_10SuffixKindNtCs3cP53eQoTwO_11proc_macro211TokenStreamE20finish_with_locationB5_, symObjAddr: 0x4DFC, symBinAddr: 0x207FC, symSize: 0x148 }
  - { offset: 0x83425, size: 0x8, addend: 0x0, symName: __RNvMsb_Csf44oge9wsd6_12snafu_deriveINtB5_9AtMostOneNtB5_11SourceFieldNtCs3cP53eQoTwO_11proc_macro211TokenStreamE20finish_with_locationB5_, symObjAddr: 0x4F44, symBinAddr: 0x20944, symSize: 0x154 }
  - { offset: 0x834B0, size: 0x8, addend: 0x0, symName: __RNvMsb_Csf44oge9wsd6_12snafu_deriveINtB5_9AtMostOneNtB5_5FieldNtCs3cP53eQoTwO_11proc_macro211TokenStreamE20finish_with_locationB5_, symObjAddr: 0x5098, symBinAddr: 0x20A98, symSize: 0x150 }
  - { offset: 0x8353B, size: 0x8, addend: 0x0, symName: __RNvMsb_Csf44oge9wsd6_12snafu_deriveINtB5_9AtMostOneNtB5_5FieldNtNtCs5AlOhPCr03V_3syn4data5FieldE20finish_with_locationB5_, symObjAddr: 0x51E8, symBinAddr: 0x20BE8, symSize: 0x158 }
  - { offset: 0x835C4, size: 0x8, addend: 0x0, symName: __RNvMsb_Csf44oge9wsd6_12snafu_deriveINtB5_9AtMostOneNtB5_7ContextNtCs3cP53eQoTwO_11proc_macro211TokenStreamE20finish_with_locationB5_, symObjAddr: 0x5340, symBinAddr: 0x20D40, symSize: 0x148 }
  - { offset: 0x8364D, size: 0x8, addend: 0x0, symName: __RNvMsb_Csf44oge9wsd6_12snafu_deriveINtB5_9AtMostOneNtB5_7DisplayNtCs3cP53eQoTwO_11proc_macro211TokenStreamE20finish_with_locationB5_, symObjAddr: 0x5488, symBinAddr: 0x20E88, symSize: 0x150 }
  - { offset: 0x836D8, size: 0x8, addend: 0x0, symName: __RNvMsb_Csf44oge9wsd6_12snafu_deriveINtB5_9AtMostOneTNtNtCs5AlOhPCr03V_3syn2ty4TypeNtNtBS_4expr4ExprENtCs3cP53eQoTwO_11proc_macro211TokenStreamE20finish_with_locationB5_, symObjAddr: 0x55D8, symBinAddr: 0x20FD8, symSize: 0x150 }
  - { offset: 0x83761, size: 0x8, addend: 0x0, symName: __RNvMsb_Csf44oge9wsd6_12snafu_deriveINtB5_9AtMostOneuNtCs3cP53eQoTwO_11proc_macro211TokenStreamE20finish_with_locationB5_, symObjAddr: 0x5728, symBinAddr: 0x21128, symSize: 0x144 }
  - { offset: 0x837EA, size: 0x8, addend: 0x0, symName: __RNvMsc_Csf44oge9wsd6_12snafu_deriveNtB5_7Context12into_enabled, symObjAddr: 0x101A8, symBinAddr: 0x2BBA8, symSize: 0xBC }
  - { offset: 0x83850, size: 0x8, addend: 0x0, symName: __RNvMsd_Csf44oge9wsd6_12snafu_deriveNtB5_10DocComment8push_str, symObjAddr: 0x10264, symBinAddr: 0x2BC64, symSize: 0x94 }
  - { offset: 0x83882, size: 0x8, addend: 0x0, symName: __RNvMsd_Csf44oge9wsd6_12snafu_deriveNtB5_10DocComment6finish, symObjAddr: 0x102F8, symBinAddr: 0x2BCF8, symSize: 0x150 }
  - { offset: 0x838B3, size: 0x8, addend: 0x0, symName: __RNvMsi_Csf44oge9wsd6_12snafu_deriveNtB5_8EnumInfo14generate_snafu, symObjAddr: 0x11EC8, symBinAddr: 0x2D8C8, symSize: 0x254 }
  - { offset: 0x839C0, size: 0x8, addend: 0x0, symName: __RNvMsp_Csf44oge9wsd6_12snafu_deriveNtB5_15NamedStructInfo14generate_snafu, symObjAddr: 0x1394C, symBinAddr: 0x2F34C, symSize: 0xF8C }
  - { offset: 0x83E5B, size: 0x8, addend: 0x0, symName: __RNvMsr_Csf44oge9wsd6_12snafu_deriveNtB5_15TupleStructInfo14generate_snafu, symObjAddr: 0x14950, symBinAddr: 0x30350, symSize: 0x2688 }
  - { offset: 0x84C19, size: 0x8, addend: 0x0, symName: __RINvXs3_NtNtCse1nGBsou5OW_5alloc3vec9into_iterINtB6_8IntoIterNtCs3cP53eQoTwO_11proc_macro211TokenStreamENtNtNtNtCsfvfooZQ3Axs_4core4iter6traits8iterator8Iterator4folduNCINvNvB1E_8for_each4callBX_NCINvMsi_B8_INtB8_3VecBX_E14extend_trustedINtNtNtB1K_8adapters5chain5ChainBI_BI_EE0E0ECsf44oge9wsd6_12snafu_derive, symObjAddr: 0x0, symBinAddr: 0x32BAC, symSize: 0x138 }
  - { offset: 0x8BC30, size: 0x8, addend: 0x0, symName: __RINvYINtNtNtCse1nGBsou5OW_5alloc3vec9into_iter8IntoIterNtCs3cP53eQoTwO_11proc_macro211TokenStreamENtNtNtNtCsfvfooZQ3Axs_4core4iter6traits8iterator8Iterator5chainB3_ECsf44oge9wsd6_12snafu_derive, symObjAddr: 0x9F4, symBinAddr: 0x335A0, symSize: 0xAC }
  - { offset: 0x8BCA7, size: 0x8, addend: 0x0, symName: __RINvYINtNtNtCse1nGBsou5OW_5alloc3vec9into_iter8IntoIterNtCs3cP53eQoTwO_11proc_macro25IdentENtNtNtNtCsfvfooZQ3Axs_4core4iter6traits8iterator8Iterator3zipINtNtNtB1x_8adapters3map3MapINtNtNtB1z_5slice4iter4IterNtCsf44oge9wsd6_12snafu_derive5FieldENCNvMs_NtNtB3l_6shared16context_selectorNtB41_15ContextSelector22extended_where_clauses0EEB3l_, symObjAddr: 0xAA0, symBinAddr: 0x3364C, symSize: 0xC0 }
  - { offset: 0x8BD1D, size: 0x8, addend: 0x0, symName: __RINvYINtNtNtCse1nGBsou5OW_5alloc3vec9into_iter8IntoIterNtCsf44oge9wsd6_12snafu_derive14SnafuAttributeENtNtNtNtCsfvfooZQ3Axs_4core4iter6traits8iterator8Iterator3mapINtNtB1K_6option6OptionBR_ENCNvBT_24parse_snafu_named_struct0EBT_, symObjAddr: 0xB60, symBinAddr: 0x3370C, symSize: 0x28 }
  - { offset: 0x8BDB1, size: 0x8, addend: 0x0, symName: __RINvYINtNtNtCse1nGBsou5OW_5alloc3vec9into_iter8IntoIterNtCsf44oge9wsd6_12snafu_derive14SnafuAttributeENtNtNtNtCsfvfooZQ3Axs_4core4iter6traits8iterator8Iterator8flat_mapINtNtB1K_6option6OptionBR_ENCNvBT_24parse_snafu_named_struct0EBT_, symObjAddr: 0xB88, symBinAddr: 0x33734, symSize: 0xD8 }
  - { offset: 0x8BE83, size: 0x8, addend: 0x0, symName: __RINvYINtNtNtCse1nGBsou5OW_5alloc3vec9into_iter8IntoIterNtCsf44oge9wsd6_12snafu_derive5FieldENtNtNtNtCsfvfooZQ3Axs_4core4iter6traits8iterator8Iterator3mapNtNtCs5AlOhPCr03V_3syn5error5ErrorNCNvBT_15field_containers7_0EBT_, symObjAddr: 0xC60, symBinAddr: 0x3380C, symSize: 0x1C }
  - { offset: 0x8BEF0, size: 0x8, addend: 0x0, symName: __RINvYINtNtNtCse1nGBsou5OW_5alloc3vec9into_iter8IntoIterRNtCs3cP53eQoTwO_11proc_macro25IdentENtNtNtNtCsfvfooZQ3Axs_4core4iter6traits8iterator8Iterator3mapNtBU_11TokenStreamNCNvMs_NtNtCsf44oge9wsd6_12snafu_derive6shared16context_selectorNtB2Q_15ContextSelector20transfer_user_fields0EB2U_, symObjAddr: 0xC7C, symBinAddr: 0x33828, symSize: 0x1C }
  - { offset: 0x8BF5D, size: 0x8, addend: 0x0, symName: __RINvYINtNtNtCse1nGBsou5OW_5alloc3vec9into_iter8IntoIterRNtCs3cP53eQoTwO_11proc_macro25IdentENtNtNtNtCsfvfooZQ3Axs_4core4iter6traits8iterator8Iterator3mapTBR_NtNtNtNtBa_11collections5btree7set_val9SetValZSTENCINvMse_NtB2z_3setINtB3r_8BTreeSetBR_E16from_sorted_iterB3_E0ECsf44oge9wsd6_12snafu_derive, symObjAddr: 0xC98, symBinAddr: 0x33844, symSize: 0x1C }
  - { offset: 0x8BFCA, size: 0x8, addend: 0x0, symName: __RINvYINtNtNtCse1nGBsou5OW_5alloc3vec9into_iter8IntoIterRNtNtNtCsf44oge9wsd6_12snafu_derive6shared5error11ProvidePlusENtNtNtNtCsfvfooZQ3Axs_4core4iter6traits8iterator8Iterator3mapNtCs3cP53eQoTwO_11proc_macro211TokenStreamNCINvBU_14quote_providesINtB8_3VecBR_EE0EBY_, symObjAddr: 0xCB4, symBinAddr: 0x33860, symSize: 0x1C }
  - { offset: 0x8C037, size: 0x8, addend: 0x0, symName: __RINvYINtNtNtCse1nGBsou5OW_5alloc3vec9into_iter8IntoIterTNtNtCs5AlOhPCr03V_3syn4data7VariantNtNtBW_5token5CommaEENtNtNtNtCsfvfooZQ3Axs_4core4iter6traits8iterator8Iterator3mapBS_NCNvXs8_NtBW_10punctuatedINtB2W_10PunctuatedBS_B1r_ENtNtB1Q_7collect12IntoIterator9into_iter0ECsf44oge9wsd6_12snafu_derive, symObjAddr: 0xCD0, symBinAddr: 0x3387C, symSize: 0x1C }
  - { offset: 0x8C0A4, size: 0x8, addend: 0x0, symName: __RINvYINtNtNtCse1nGBsou5OW_5alloc3vec9into_iter8IntoIterTNtNtCs5AlOhPCr03V_3syn4expr4ExprNtNtBW_5token5CommaEENtNtNtNtCsfvfooZQ3Axs_4core4iter6traits8iterator8Iterator3mapBS_NCNvXs8_NtBW_10punctuatedINtB2T_10PunctuatedBS_B1o_ENtNtB1N_7collect12IntoIterator9into_iter0ECsf44oge9wsd6_12snafu_derive, symObjAddr: 0xCEC, symBinAddr: 0x33898, symSize: 0x1C }
  - { offset: 0x8C111, size: 0x8, addend: 0x0, symName: __RINvYINtNtNtCse1nGBsou5OW_5alloc3vec9into_iter8IntoIterTNtNtCsf44oge9wsd6_12snafu_derive5parse9AttributeNtNtCs5AlOhPCr03V_3syn5token5CommaEENtNtNtNtCsfvfooZQ3Axs_4core4iter6traits8iterator8Iterator3mapBS_NCNvXs8_NtB1I_10punctuatedINtB3o_10PunctuatedBS_B1E_ENtNtB2i_7collect12IntoIterator9into_iter0EBW_, symObjAddr: 0xD08, symBinAddr: 0x338B4, symSize: 0x1C }
  - { offset: 0x8C17E, size: 0x8, addend: 0x0, symName: __RINvYINtNtNtCse1nGBsou5OW_5alloc3vec9into_iter8IntoIterTNtNtCsf44oge9wsd6_12snafu_derive5parse9SourceArgNtNtCs5AlOhPCr03V_3syn5token5CommaEENtNtNtNtCsfvfooZQ3Axs_4core4iter6traits8iterator8Iterator3mapBS_NCNvXs8_NtB1I_10punctuatedINtB3o_10PunctuatedBS_B1E_ENtNtB2i_7collect12IntoIterator9into_iter0EBW_, symObjAddr: 0xD24, symBinAddr: 0x338D0, symSize: 0x1C }
  - { offset: 0x8C288, size: 0x8, addend: 0x0, symName: __RNvXNtNtNtCsfvfooZQ3Axs_4core4iter6traits7collectINtNtNtCse1nGBsou5OW_5alloc3vec9into_iter8IntoIterNtCs3cP53eQoTwO_11proc_macro211TokenStreamENtB2_12IntoIterator9into_iterCsf44oge9wsd6_12snafu_derive, symObjAddr: 0xDA8, symBinAddr: 0x33954, symSize: 0x14 }
  - { offset: 0x8C546, size: 0x8, addend: 0x0, symName: __RNvYINtNtNtCse1nGBsou5OW_5alloc3vec9into_iter8IntoIterNtCs3cP53eQoTwO_11proc_macro211TokenStreamENtNtNtNtCsfvfooZQ3Axs_4core4iter6traits10exact_size17ExactSizeIterator3lenCsf44oge9wsd6_12snafu_derive, symObjAddr: 0x315C, symBinAddr: 0x35D08, symSize: 0xF4 }
  - { offset: 0x8C639, size: 0x8, addend: 0x0, symName: __RNvYINtNtNtCse1nGBsou5OW_5alloc3vec9into_iter8IntoIterNtCs3cP53eQoTwO_11proc_macro25IdentENtNtNtNtCsfvfooZQ3Axs_4core4iter6traits10exact_size17ExactSizeIterator3lenCsf44oge9wsd6_12snafu_derive, symObjAddr: 0x3250, symBinAddr: 0x35DFC, symSize: 0xF4 }
  - { offset: 0x8C72C, size: 0x8, addend: 0x0, symName: __RNvYINtNtNtCse1nGBsou5OW_5alloc3vec9into_iter8IntoIterNtCsf44oge9wsd6_12snafu_derive14SnafuAttributeENtNtNtNtCsfvfooZQ3Axs_4core4iter6traits10exact_size17ExactSizeIterator3lenBS_, symObjAddr: 0x3344, symBinAddr: 0x35EF0, symSize: 0xF4 }
  - { offset: 0x8C81F, size: 0x8, addend: 0x0, symName: __RNvYINtNtNtCse1nGBsou5OW_5alloc3vec9into_iter8IntoIterNtCsf44oge9wsd6_12snafu_derive5FieldENtNtNtNtCsfvfooZQ3Axs_4core4iter6traits10exact_size17ExactSizeIterator3lenBS_, symObjAddr: 0x3438, symBinAddr: 0x35FE4, symSize: 0xF4 }
  - { offset: 0x8C912, size: 0x8, addend: 0x0, symName: __RNvYINtNtNtCse1nGBsou5OW_5alloc3vec9into_iter8IntoIterNtCsf44oge9wsd6_12snafu_derive6SourceENtNtNtNtCsfvfooZQ3Axs_4core4iter6traits10exact_size17ExactSizeIterator3lenBS_, symObjAddr: 0x352C, symBinAddr: 0x360D8, symSize: 0xF4 }
  - { offset: 0x8CA05, size: 0x8, addend: 0x0, symName: __RNvYINtNtNtCse1nGBsou5OW_5alloc3vec9into_iter8IntoIterNtNtCs5AlOhPCr03V_3syn4data5FieldENtNtNtNtCsfvfooZQ3Axs_4core4iter6traits10exact_size17ExactSizeIterator3lenCsf44oge9wsd6_12snafu_derive, symObjAddr: 0x3620, symBinAddr: 0x361CC, symSize: 0xF4 }
  - { offset: 0x8CAF8, size: 0x8, addend: 0x0, symName: __RNvYINtNtNtCse1nGBsou5OW_5alloc3vec9into_iter8IntoIterNtNtCs5AlOhPCr03V_3syn4data7VariantENtNtNtNtCsfvfooZQ3Axs_4core4iter6traits10exact_size17ExactSizeIterator3lenCsf44oge9wsd6_12snafu_derive, symObjAddr: 0x3714, symBinAddr: 0x362C0, symSize: 0xF4 }
  - { offset: 0x8CBEB, size: 0x8, addend: 0x0, symName: __RNvYINtNtNtCse1nGBsou5OW_5alloc3vec9into_iter8IntoIterNtNtCs5AlOhPCr03V_3syn4expr4ExprENtNtNtNtCsfvfooZQ3Axs_4core4iter6traits10exact_size17ExactSizeIterator3lenCsf44oge9wsd6_12snafu_derive, symObjAddr: 0x3808, symBinAddr: 0x363B4, symSize: 0xF4 }
  - { offset: 0x8CCDE, size: 0x8, addend: 0x0, symName: __RNvYINtNtNtCse1nGBsou5OW_5alloc3vec9into_iter8IntoIterNtNtCs5AlOhPCr03V_3syn5error5ErrorENtNtNtNtCsfvfooZQ3Axs_4core4iter6traits10exact_size17ExactSizeIterator3lenCsf44oge9wsd6_12snafu_derive, symObjAddr: 0x38FC, symBinAddr: 0x364A8, symSize: 0xF4 }
  - { offset: 0x8CDD1, size: 0x8, addend: 0x0, symName: __RNvYINtNtNtCse1nGBsou5OW_5alloc3vec9into_iter8IntoIterNtNtCsf44oge9wsd6_12snafu_derive5parse9AttributeENtNtNtNtCsfvfooZQ3Axs_4core4iter6traits10exact_size17ExactSizeIterator3lenBU_, symObjAddr: 0x39F0, symBinAddr: 0x3659C, symSize: 0xF4 }
  - { offset: 0x8CEC4, size: 0x8, addend: 0x0, symName: __RNvYINtNtNtCse1nGBsou5OW_5alloc3vec9into_iter8IntoIterNtNtCsf44oge9wsd6_12snafu_derive5parse9SourceArgENtNtNtNtCsfvfooZQ3Axs_4core4iter6traits10exact_size17ExactSizeIterator3lenBU_, symObjAddr: 0x3AE4, symBinAddr: 0x36690, symSize: 0xF4 }
  - { offset: 0x8CFB7, size: 0x8, addend: 0x0, symName: __RNvYINtNtNtCse1nGBsou5OW_5alloc3vec9into_iter8IntoIterRNtCs3cP53eQoTwO_11proc_macro25IdentENtNtNtNtCsfvfooZQ3Axs_4core4iter6traits10exact_size17ExactSizeIterator3lenCsf44oge9wsd6_12snafu_derive, symObjAddr: 0x3BD8, symBinAddr: 0x36784, symSize: 0xF4 }
  - { offset: 0x8D0AA, size: 0x8, addend: 0x0, symName: __RNvYINtNtNtCse1nGBsou5OW_5alloc3vec9into_iter8IntoIterRNtNtNtCsf44oge9wsd6_12snafu_derive6shared5error11ProvidePlusENtNtNtNtCsfvfooZQ3Axs_4core4iter6traits10exact_size17ExactSizeIterator3lenBX_, symObjAddr: 0x3CCC, symBinAddr: 0x36878, symSize: 0xF4 }
  - { offset: 0x8D19D, size: 0x8, addend: 0x0, symName: __RNvYINtNtNtCse1nGBsou5OW_5alloc3vec9into_iter8IntoIterTNtNtCs5AlOhPCr03V_3syn4data7VariantNtNtBV_5token5CommaEENtNtNtNtCsfvfooZQ3Axs_4core4iter6traits10exact_size17ExactSizeIterator3lenCsf44oge9wsd6_12snafu_derive, symObjAddr: 0x3DC0, symBinAddr: 0x3696C, symSize: 0xF4 }
  - { offset: 0x8D290, size: 0x8, addend: 0x0, symName: __RNvYINtNtNtCse1nGBsou5OW_5alloc3vec9into_iter8IntoIterTNtNtCs5AlOhPCr03V_3syn4expr4ExprNtNtBV_5token5CommaEENtNtNtNtCsfvfooZQ3Axs_4core4iter6traits10exact_size17ExactSizeIterator3lenCsf44oge9wsd6_12snafu_derive, symObjAddr: 0x3EB4, symBinAddr: 0x36A60, symSize: 0xF4 }
  - { offset: 0x8D383, size: 0x8, addend: 0x0, symName: __RNvYINtNtNtCse1nGBsou5OW_5alloc3vec9into_iter8IntoIterTNtNtCsf44oge9wsd6_12snafu_derive5parse9AttributeNtNtCs5AlOhPCr03V_3syn5token5CommaEENtNtNtNtCsfvfooZQ3Axs_4core4iter6traits10exact_size17ExactSizeIterator3lenBV_, symObjAddr: 0x3FA8, symBinAddr: 0x36B54, symSize: 0xF4 }
  - { offset: 0x8D476, size: 0x8, addend: 0x0, symName: __RNvYINtNtNtCse1nGBsou5OW_5alloc3vec9into_iter8IntoIterTNtNtCsf44oge9wsd6_12snafu_derive5parse9SourceArgNtNtCs5AlOhPCr03V_3syn5token5CommaEENtNtNtNtCsfvfooZQ3Axs_4core4iter6traits10exact_size17ExactSizeIterator3lenBV_, symObjAddr: 0x409C, symBinAddr: 0x36C48, symSize: 0xF4 }
  - { offset: 0x8D7F9, size: 0x8, addend: 0x0, symName: __RINvXs3_NtNtCse1nGBsou5OW_5alloc3vec9into_iterINtB6_8IntoIterNtCs3cP53eQoTwO_11proc_macro211TokenStreamENtNtNtNtCsfvfooZQ3Axs_4core4iter6traits8iterator8Iterator4folduNCINvNvB1E_8for_each4callBX_NCINvMsi_B8_INtB8_3VecBX_E14extend_trustedINtNtNtB1K_8adapters5chain5ChainBI_BI_EE0E0ECsf44oge9wsd6_12snafu_derive, symObjAddr: 0x0, symBinAddr: 0x32BAC, symSize: 0x138 }
  - { offset: 0x8D9C7, size: 0x8, addend: 0x0, symName: __RINvXs3_NtNtCse1nGBsou5OW_5alloc3vec9into_iterINtB6_8IntoIterNtCs3cP53eQoTwO_11proc_macro211TokenStreamENtNtNtNtCsfvfooZQ3Axs_4core4iter6traits8iterator8Iterator4folduQNCINvNvB1E_8for_each4callBX_NCINvMsi_B8_INtB8_3VecBX_E14extend_trustedINtNtNtB1K_8adapters5chain5ChainBI_BI_EE0E0ECsf44oge9wsd6_12snafu_derive, symObjAddr: 0x138, symBinAddr: 0x32CE4, symSize: 0x118 }
  - { offset: 0x8DB94, size: 0x8, addend: 0x0, symName: __RINvXs3_NtNtCse1nGBsou5OW_5alloc3vec9into_iterINtB6_8IntoIterNtCsf44oge9wsd6_12snafu_derive5FieldENtNtNtNtCsfvfooZQ3Axs_4core4iter6traits8iterator8Iterator4folduNCINvNtNtB1E_8adapters3map8map_foldBX_NtNtCs5AlOhPCr03V_3syn5error5ErroruNCNvBZ_15field_containers7_0NCINvNvB1y_8for_each4callB3b_NCINvMsi_B8_INtB8_3VecB3b_E14extend_trustedINtB2E_3MapBI_B3K_EE0E0E0EBZ_, symObjAddr: 0x250, symBinAddr: 0x32DFC, symSize: 0x150 }
  - { offset: 0x8DD64, size: 0x8, addend: 0x0, symName: __RINvXs3_NtNtCse1nGBsou5OW_5alloc3vec9into_iterINtB6_8IntoIterRNtCs3cP53eQoTwO_11proc_macro25IdentENtNtNtNtCsfvfooZQ3Axs_4core4iter6traits8iterator8Iterator4folduNCINvNtNtB1E_8adapters3map8map_foldBX_NtB10_11TokenStreamuNCNvMs_NtNtCsf44oge9wsd6_12snafu_derive6shared16context_selectorNtB3C_15ContextSelector20transfer_user_fields0NCINvNvB1y_8for_each4callB3b_NCINvMsi_B8_INtB8_3VecB3b_E14extend_trustedINtB2E_3MapBI_B3v_EE0E0E0EB3G_, symObjAddr: 0x3A0, symBinAddr: 0x32F4C, symSize: 0x11C }
  - { offset: 0x8DF2F, size: 0x8, addend: 0x0, symName: __RINvXs3_NtNtCse1nGBsou5OW_5alloc3vec9into_iterINtB6_8IntoIterTNtNtCs5AlOhPCr03V_3syn4data7VariantNtNtB12_5token5CommaEENtNtNtNtCsfvfooZQ3Axs_4core4iter6traits8iterator8Iterator4folduNCINvNtNtB1Z_8adapters3map8map_foldBX_BY_uNCNvXs8_NtB12_10punctuatedINtB3I_10PunctuatedBY_B1x_ENtNtB1X_7collect12IntoIterator9into_iter0NCINvNvB1T_8for_each4callBY_NCINvMsi_B8_INtB8_3VecBY_E14extend_trustedINtB2Z_3MapBI_B3A_EE0E0E0ECsf44oge9wsd6_12snafu_derive, symObjAddr: 0x4BC, symBinAddr: 0x33068, symSize: 0x14C }
  - { offset: 0x8E0FF, size: 0x8, addend: 0x0, symName: __RINvXs3_NtNtCse1nGBsou5OW_5alloc3vec9into_iterINtB6_8IntoIterTNtNtCs5AlOhPCr03V_3syn4expr4ExprNtNtB12_5token5CommaEENtNtNtNtCsfvfooZQ3Axs_4core4iter6traits8iterator8Iterator4folduNCINvNtNtB1W_8adapters3map8map_foldBX_BY_uNCNvXs8_NtB12_10punctuatedINtB3F_10PunctuatedBY_B1u_ENtNtB1U_7collect12IntoIterator9into_iter0NCINvNvB1Q_8for_each4callBY_NCINvMsi_B8_INtB8_3VecBY_E14extend_trustedINtB2W_3MapBI_B3x_EE0E0E0ECsf44oge9wsd6_12snafu_derive, symObjAddr: 0x608, symBinAddr: 0x331B4, symSize: 0x14C }
  - { offset: 0x8E2CF, size: 0x8, addend: 0x0, symName: __RINvXs3_NtNtCse1nGBsou5OW_5alloc3vec9into_iterINtB6_8IntoIterTNtNtCsf44oge9wsd6_12snafu_derive5parse9AttributeNtNtCs5AlOhPCr03V_3syn5token5CommaEENtNtNtNtCsfvfooZQ3Axs_4core4iter6traits8iterator8Iterator4folduNCINvNtNtB2q_8adapters3map8map_foldBX_BY_uNCNvXs8_NtB1O_10punctuatedINtB49_10PunctuatedBY_B1K_ENtNtB2o_7collect12IntoIterator9into_iter0NCINvNvB2k_8for_each4callBY_NCINvMsi_B8_INtB8_3VecBY_E14extend_trustedINtB3q_3MapBI_B41_EE0E0E0EB12_, symObjAddr: 0x754, symBinAddr: 0x33300, symSize: 0x150 }
  - { offset: 0x8E49F, size: 0x8, addend: 0x0, symName: __RINvXs3_NtNtCse1nGBsou5OW_5alloc3vec9into_iterINtB6_8IntoIterTNtNtCsf44oge9wsd6_12snafu_derive5parse9SourceArgNtNtCs5AlOhPCr03V_3syn5token5CommaEENtNtNtNtCsfvfooZQ3Axs_4core4iter6traits8iterator8Iterator4folduNCINvNtNtB2q_8adapters3map8map_foldBX_BY_uNCNvXs8_NtB1O_10punctuatedINtB49_10PunctuatedBY_B1K_ENtNtB2o_7collect12IntoIterator9into_iter0NCINvNvB2k_8for_each4callBY_NCINvMsi_B8_INtB8_3VecBY_E14extend_trustedINtB3q_3MapBI_B41_EE0E0E0EB12_, symObjAddr: 0x8A4, symBinAddr: 0x33450, symSize: 0x150 }
  - { offset: 0x8E66F, size: 0x8, addend: 0x0, symName: __RNvXs3_NtNtCse1nGBsou5OW_5alloc3vec9into_iterINtB5_8IntoIterNtCs3cP53eQoTwO_11proc_macro211TokenStreamENtNtNtNtCsfvfooZQ3Axs_4core4iter6traits8iterator8Iterator9size_hintCsf44oge9wsd6_12snafu_derive, symObjAddr: 0x15F8, symBinAddr: 0x341A4, symSize: 0x6C }
  - { offset: 0x8E6CA, size: 0x8, addend: 0x0, symName: __RNvXs3_NtNtCse1nGBsou5OW_5alloc3vec9into_iterINtB5_8IntoIterNtCs3cP53eQoTwO_11proc_macro25IdentENtNtNtNtCsfvfooZQ3Axs_4core4iter6traits8iterator8Iterator4nextCsf44oge9wsd6_12snafu_derive, symObjAddr: 0x1664, symBinAddr: 0x34210, symSize: 0xD0 }
  - { offset: 0x8E845, size: 0x8, addend: 0x0, symName: __RNvXs3_NtNtCse1nGBsou5OW_5alloc3vec9into_iterINtB5_8IntoIterNtCs3cP53eQoTwO_11proc_macro25IdentENtNtNtNtCsfvfooZQ3Axs_4core4iter6traits8iterator8Iterator9size_hintCsf44oge9wsd6_12snafu_derive, symObjAddr: 0x1734, symBinAddr: 0x342E0, symSize: 0x6C }
  - { offset: 0x8E8A0, size: 0x8, addend: 0x0, symName: __RNvXs3_NtNtCse1nGBsou5OW_5alloc3vec9into_iterINtB5_8IntoIterNtCsf44oge9wsd6_12snafu_derive14SnafuAttributeENtNtNtNtCsfvfooZQ3Axs_4core4iter6traits8iterator8Iterator4nextBY_, symObjAddr: 0x17A0, symBinAddr: 0x3434C, symSize: 0xE8 }
  - { offset: 0x8EA14, size: 0x8, addend: 0x0, symName: __RNvXs3_NtNtCse1nGBsou5OW_5alloc3vec9into_iterINtB5_8IntoIterNtCsf44oge9wsd6_12snafu_derive14SnafuAttributeENtNtNtNtCsfvfooZQ3Axs_4core4iter6traits8iterator8Iterator9size_hintBY_, symObjAddr: 0x1888, symBinAddr: 0x34434, symSize: 0x6C }
  - { offset: 0x8EA6F, size: 0x8, addend: 0x0, symName: __RNvXs3_NtNtCse1nGBsou5OW_5alloc3vec9into_iterINtB5_8IntoIterNtCsf44oge9wsd6_12snafu_derive5FieldENtNtNtNtCsfvfooZQ3Axs_4core4iter6traits8iterator8Iterator4nextBY_, symObjAddr: 0x18F4, symBinAddr: 0x344A0, symSize: 0xE4 }
  - { offset: 0x8EBE3, size: 0x8, addend: 0x0, symName: __RNvXs3_NtNtCse1nGBsou5OW_5alloc3vec9into_iterINtB5_8IntoIterNtCsf44oge9wsd6_12snafu_derive5FieldENtNtNtNtCsfvfooZQ3Axs_4core4iter6traits8iterator8Iterator9size_hintBY_, symObjAddr: 0x19D8, symBinAddr: 0x34584, symSize: 0x6C }
  - { offset: 0x8EC3E, size: 0x8, addend: 0x0, symName: __RNvXs3_NtNtCse1nGBsou5OW_5alloc3vec9into_iterINtB5_8IntoIterNtCsf44oge9wsd6_12snafu_derive6SourceENtNtNtNtCsfvfooZQ3Axs_4core4iter6traits8iterator8Iterator4nextBY_, symObjAddr: 0x1A44, symBinAddr: 0x345F0, symSize: 0xE8 }
  - { offset: 0x8EDB2, size: 0x8, addend: 0x0, symName: __RNvXs3_NtNtCse1nGBsou5OW_5alloc3vec9into_iterINtB5_8IntoIterNtCsf44oge9wsd6_12snafu_derive6SourceENtNtNtNtCsfvfooZQ3Axs_4core4iter6traits8iterator8Iterator9size_hintBY_, symObjAddr: 0x1B2C, symBinAddr: 0x346D8, symSize: 0x6C }
  - { offset: 0x8EE0D, size: 0x8, addend: 0x0, symName: __RNvXs3_NtNtCse1nGBsou5OW_5alloc3vec9into_iterINtB5_8IntoIterNtNtCs5AlOhPCr03V_3syn4attr9AttributeENtNtNtNtCsfvfooZQ3Axs_4core4iter6traits8iterator8Iterator4nextCsf44oge9wsd6_12snafu_derive, symObjAddr: 0x1B98, symBinAddr: 0x34744, symSize: 0xDC }
  - { offset: 0x8EF7F, size: 0x8, addend: 0x0, symName: __RNvXs3_NtNtCse1nGBsou5OW_5alloc3vec9into_iterINtB5_8IntoIterNtNtCs5AlOhPCr03V_3syn4data5FieldENtNtNtNtCsfvfooZQ3Axs_4core4iter6traits8iterator8Iterator4nextCsf44oge9wsd6_12snafu_derive, symObjAddr: 0x1C74, symBinAddr: 0x34820, symSize: 0xE4 }
  - { offset: 0x8F0F3, size: 0x8, addend: 0x0, symName: __RNvXs3_NtNtCse1nGBsou5OW_5alloc3vec9into_iterINtB5_8IntoIterNtNtCs5AlOhPCr03V_3syn4data5FieldENtNtNtNtCsfvfooZQ3Axs_4core4iter6traits8iterator8Iterator9size_hintCsf44oge9wsd6_12snafu_derive, symObjAddr: 0x1D58, symBinAddr: 0x34904, symSize: 0x6C }
  - { offset: 0x8F14E, size: 0x8, addend: 0x0, symName: __RNvXs3_NtNtCse1nGBsou5OW_5alloc3vec9into_iterINtB5_8IntoIterNtNtCs5AlOhPCr03V_3syn4data7VariantENtNtNtNtCsfvfooZQ3Axs_4core4iter6traits8iterator8Iterator4nextCsf44oge9wsd6_12snafu_derive, symObjAddr: 0x1DC4, symBinAddr: 0x34970, symSize: 0xE4 }
  - { offset: 0x8F2C2, size: 0x8, addend: 0x0, symName: __RNvXs3_NtNtCse1nGBsou5OW_5alloc3vec9into_iterINtB5_8IntoIterNtNtCs5AlOhPCr03V_3syn4data7VariantENtNtNtNtCsfvfooZQ3Axs_4core4iter6traits8iterator8Iterator9size_hintCsf44oge9wsd6_12snafu_derive, symObjAddr: 0x1EA8, symBinAddr: 0x34A54, symSize: 0x6C }
  - { offset: 0x8F31D, size: 0x8, addend: 0x0, symName: __RNvXs3_NtNtCse1nGBsou5OW_5alloc3vec9into_iterINtB5_8IntoIterNtNtCs5AlOhPCr03V_3syn4expr4ExprENtNtNtNtCsfvfooZQ3Axs_4core4iter6traits8iterator8Iterator4nextCsf44oge9wsd6_12snafu_derive, symObjAddr: 0x1F14, symBinAddr: 0x34AC0, symSize: 0xE8 }
  - { offset: 0x8F491, size: 0x8, addend: 0x0, symName: __RNvXs3_NtNtCse1nGBsou5OW_5alloc3vec9into_iterINtB5_8IntoIterNtNtCs5AlOhPCr03V_3syn4expr4ExprENtNtNtNtCsfvfooZQ3Axs_4core4iter6traits8iterator8Iterator9size_hintCsf44oge9wsd6_12snafu_derive, symObjAddr: 0x1FFC, symBinAddr: 0x34BA8, symSize: 0x6C }
  - { offset: 0x8F4EC, size: 0x8, addend: 0x0, symName: __RNvXs3_NtNtCse1nGBsou5OW_5alloc3vec9into_iterINtB5_8IntoIterNtNtCs5AlOhPCr03V_3syn5error5ErrorENtNtNtNtCsfvfooZQ3Axs_4core4iter6traits8iterator8Iterator9size_hintCsf44oge9wsd6_12snafu_derive, symObjAddr: 0x2068, symBinAddr: 0x34C14, symSize: 0x6C }
  - { offset: 0x8F547, size: 0x8, addend: 0x0, symName: __RNvXs3_NtNtCse1nGBsou5OW_5alloc3vec9into_iterINtB5_8IntoIterNtNtCsf44oge9wsd6_12snafu_derive5parse9AttributeENtNtNtNtCsfvfooZQ3Axs_4core4iter6traits8iterator8Iterator4nextB10_, symObjAddr: 0x20D4, symBinAddr: 0x34C80, symSize: 0xE8 }
  - { offset: 0x8F6BB, size: 0x8, addend: 0x0, symName: __RNvXs3_NtNtCse1nGBsou5OW_5alloc3vec9into_iterINtB5_8IntoIterNtNtCsf44oge9wsd6_12snafu_derive5parse9AttributeENtNtNtNtCsfvfooZQ3Axs_4core4iter6traits8iterator8Iterator9size_hintB10_, symObjAddr: 0x21BC, symBinAddr: 0x34D68, symSize: 0x6C }
  - { offset: 0x8F716, size: 0x8, addend: 0x0, symName: __RNvXs3_NtNtCse1nGBsou5OW_5alloc3vec9into_iterINtB5_8IntoIterNtNtCsf44oge9wsd6_12snafu_derive5parse9SourceArgENtNtNtNtCsfvfooZQ3Axs_4core4iter6traits8iterator8Iterator4nextB10_, symObjAddr: 0x2228, symBinAddr: 0x34DD4, symSize: 0xE8 }
  - { offset: 0x8F88A, size: 0x8, addend: 0x0, symName: __RNvXs3_NtNtCse1nGBsou5OW_5alloc3vec9into_iterINtB5_8IntoIterNtNtCsf44oge9wsd6_12snafu_derive5parse9SourceArgENtNtNtNtCsfvfooZQ3Axs_4core4iter6traits8iterator8Iterator9size_hintB10_, symObjAddr: 0x2310, symBinAddr: 0x34EBC, symSize: 0x6C }
  - { offset: 0x8F8E5, size: 0x8, addend: 0x0, symName: __RNvXs3_NtNtCse1nGBsou5OW_5alloc3vec9into_iterINtB5_8IntoIterRNtCs3cP53eQoTwO_11proc_macro25IdentENtNtNtNtCsfvfooZQ3Axs_4core4iter6traits8iterator8Iterator4nextCsf44oge9wsd6_12snafu_derive, symObjAddr: 0x237C, symBinAddr: 0x34F28, symSize: 0xAC }
  - { offset: 0x8FA5C, size: 0x8, addend: 0x0, symName: __RNvXs3_NtNtCse1nGBsou5OW_5alloc3vec9into_iterINtB5_8IntoIterRNtCs3cP53eQoTwO_11proc_macro25IdentENtNtNtNtCsfvfooZQ3Axs_4core4iter6traits8iterator8Iterator9size_hintCsf44oge9wsd6_12snafu_derive, symObjAddr: 0x2428, symBinAddr: 0x34FD4, symSize: 0x6C }
  - { offset: 0x8FAB7, size: 0x8, addend: 0x0, symName: __RNvXs3_NtNtCse1nGBsou5OW_5alloc3vec9into_iterINtB5_8IntoIterRNtNtNtCsf44oge9wsd6_12snafu_derive6shared5error11ProvidePlusENtNtNtNtCsfvfooZQ3Axs_4core4iter6traits8iterator8Iterator4nextB13_, symObjAddr: 0x2494, symBinAddr: 0x35040, symSize: 0xAC }
  - { offset: 0x8FC2E, size: 0x8, addend: 0x0, symName: __RNvXs3_NtNtCse1nGBsou5OW_5alloc3vec9into_iterINtB5_8IntoIterRNtNtNtCsf44oge9wsd6_12snafu_derive6shared5error11ProvidePlusENtNtNtNtCsfvfooZQ3Axs_4core4iter6traits8iterator8Iterator9size_hintB13_, symObjAddr: 0x2540, symBinAddr: 0x350EC, symSize: 0x6C }
  - { offset: 0x8FC89, size: 0x8, addend: 0x0, symName: __RNvXs3_NtNtCse1nGBsou5OW_5alloc3vec9into_iterINtB5_8IntoIterTNtNtCs5AlOhPCr03V_3syn4data7VariantNtNtB11_5token5CommaEENtNtNtNtCsfvfooZQ3Axs_4core4iter6traits8iterator8Iterator9size_hintCsf44oge9wsd6_12snafu_derive, symObjAddr: 0x25AC, symBinAddr: 0x35158, symSize: 0x6C }
  - { offset: 0x8FCE4, size: 0x8, addend: 0x0, symName: __RNvXs3_NtNtCse1nGBsou5OW_5alloc3vec9into_iterINtB5_8IntoIterTNtNtCs5AlOhPCr03V_3syn4expr4ExprNtNtB11_5token5CommaEENtNtNtNtCsfvfooZQ3Axs_4core4iter6traits8iterator8Iterator9size_hintCsf44oge9wsd6_12snafu_derive, symObjAddr: 0x2618, symBinAddr: 0x351C4, symSize: 0x6C }
  - { offset: 0x8FD3F, size: 0x8, addend: 0x0, symName: __RNvXs3_NtNtCse1nGBsou5OW_5alloc3vec9into_iterINtB5_8IntoIterTNtNtCsf44oge9wsd6_12snafu_derive5parse9AttributeNtNtCs5AlOhPCr03V_3syn5token5CommaEENtNtNtNtCsfvfooZQ3Axs_4core4iter6traits8iterator8Iterator9size_hintB11_, symObjAddr: 0x2684, symBinAddr: 0x35230, symSize: 0x6C }
  - { offset: 0x8FD9A, size: 0x8, addend: 0x0, symName: __RNvXs3_NtNtCse1nGBsou5OW_5alloc3vec9into_iterINtB5_8IntoIterTNtNtCsf44oge9wsd6_12snafu_derive5parse9SourceArgNtNtCs5AlOhPCr03V_3syn5token5CommaEENtNtNtNtCsfvfooZQ3Axs_4core4iter6traits8iterator8Iterator9size_hintB11_, symObjAddr: 0x26F0, symBinAddr: 0x3529C, symSize: 0x6C }
  - { offset: 0x9041A, size: 0x8, addend: 0x0, symName: __RNvXNvXsd_NtNtCse1nGBsou5OW_5alloc3vec9into_iterINtB8_8IntoIterppENtNtNtCsfvfooZQ3Axs_4core3ops4drop4Drop4dropINtB2_9DropGuardNtCs3cP53eQoTwO_11proc_macro211TokenStreamNtNtBc_5alloc6GlobalEB12_4dropCsf44oge9wsd6_12snafu_derive, symObjAddr: 0xDBC, symBinAddr: 0x33968, symSize: 0x7C }
  - { offset: 0x90527, size: 0x8, addend: 0x0, symName: __RNvXNvXsd_NtNtCse1nGBsou5OW_5alloc3vec9into_iterINtB8_8IntoIterppENtNtNtCsfvfooZQ3Axs_4core3ops4drop4Drop4dropINtB2_9DropGuardNtCs3cP53eQoTwO_11proc_macro25IdentNtNtBc_5alloc6GlobalEB12_4dropCsf44oge9wsd6_12snafu_derive, symObjAddr: 0xE38, symBinAddr: 0x339E4, symSize: 0x7C }
  - { offset: 0x90634, size: 0x8, addend: 0x0, symName: __RNvXNvXsd_NtNtCse1nGBsou5OW_5alloc3vec9into_iterINtB8_8IntoIterppENtNtNtCsfvfooZQ3Axs_4core3ops4drop4Drop4dropINtB2_9DropGuardNtCsf44oge9wsd6_12snafu_derive14SnafuAttributeNtNtBc_5alloc6GlobalEB12_4dropB22_, symObjAddr: 0xEB4, symBinAddr: 0x33A60, symSize: 0x7C }
  - { offset: 0x90741, size: 0x8, addend: 0x0, symName: __RNvXNvXsd_NtNtCse1nGBsou5OW_5alloc3vec9into_iterINtB8_8IntoIterppENtNtNtCsfvfooZQ3Axs_4core3ops4drop4Drop4dropINtB2_9DropGuardNtCsf44oge9wsd6_12snafu_derive5FieldNtNtBc_5alloc6GlobalEB12_4dropB22_, symObjAddr: 0xF30, symBinAddr: 0x33ADC, symSize: 0x7C }
  - { offset: 0x9084E, size: 0x8, addend: 0x0, symName: __RNvXNvXsd_NtNtCse1nGBsou5OW_5alloc3vec9into_iterINtB8_8IntoIterppENtNtNtCsfvfooZQ3Axs_4core3ops4drop4Drop4dropINtB2_9DropGuardNtCsf44oge9wsd6_12snafu_derive6SourceNtNtBc_5alloc6GlobalEB12_4dropB22_, symObjAddr: 0xFAC, symBinAddr: 0x33B58, symSize: 0x7C }
  - { offset: 0x9095B, size: 0x8, addend: 0x0, symName: __RNvXNvXsd_NtNtCse1nGBsou5OW_5alloc3vec9into_iterINtB8_8IntoIterppENtNtNtCsfvfooZQ3Axs_4core3ops4drop4Drop4dropINtB2_9DropGuardNtNtCs5AlOhPCr03V_3syn4data5FieldNtNtBc_5alloc6GlobalEB12_4dropCsf44oge9wsd6_12snafu_derive, symObjAddr: 0x1028, symBinAddr: 0x33BD4, symSize: 0x7C }
  - { offset: 0x90A68, size: 0x8, addend: 0x0, symName: __RNvXNvXsd_NtNtCse1nGBsou5OW_5alloc3vec9into_iterINtB8_8IntoIterppENtNtNtCsfvfooZQ3Axs_4core3ops4drop4Drop4dropINtB2_9DropGuardNtNtCs5AlOhPCr03V_3syn4data7VariantNtNtBc_5alloc6GlobalEB12_4dropCsf44oge9wsd6_12snafu_derive, symObjAddr: 0x10A4, symBinAddr: 0x33C50, symSize: 0x7C }
  - { offset: 0x90B75, size: 0x8, addend: 0x0, symName: __RNvXNvXsd_NtNtCse1nGBsou5OW_5alloc3vec9into_iterINtB8_8IntoIterppENtNtNtCsfvfooZQ3Axs_4core3ops4drop4Drop4dropINtB2_9DropGuardNtNtCs5AlOhPCr03V_3syn4expr4ExprNtNtBc_5alloc6GlobalEB12_4dropCsf44oge9wsd6_12snafu_derive, symObjAddr: 0x1120, symBinAddr: 0x33CCC, symSize: 0x7C }
  - { offset: 0x90C82, size: 0x8, addend: 0x0, symName: __RNvXNvXsd_NtNtCse1nGBsou5OW_5alloc3vec9into_iterINtB8_8IntoIterppENtNtNtCsfvfooZQ3Axs_4core3ops4drop4Drop4dropINtB2_9DropGuardNtNtCs5AlOhPCr03V_3syn5error5ErrorNtNtBc_5alloc6GlobalEB12_4dropCsf44oge9wsd6_12snafu_derive, symObjAddr: 0x119C, symBinAddr: 0x33D48, symSize: 0x7C }
  - { offset: 0x90D8F, size: 0x8, addend: 0x0, symName: __RNvXNvXsd_NtNtCse1nGBsou5OW_5alloc3vec9into_iterINtB8_8IntoIterppENtNtNtCsfvfooZQ3Axs_4core3ops4drop4Drop4dropINtB2_9DropGuardNtNtCsf44oge9wsd6_12snafu_derive5parse9AttributeNtNtBc_5alloc6GlobalEB12_4dropB24_, symObjAddr: 0x1218, symBinAddr: 0x33DC4, symSize: 0x7C }
  - { offset: 0x90E9C, size: 0x8, addend: 0x0, symName: __RNvXNvXsd_NtNtCse1nGBsou5OW_5alloc3vec9into_iterINtB8_8IntoIterppENtNtNtCsfvfooZQ3Axs_4core3ops4drop4Drop4dropINtB2_9DropGuardNtNtCsf44oge9wsd6_12snafu_derive5parse9SourceArgNtNtBc_5alloc6GlobalEB12_4dropB24_, symObjAddr: 0x1294, symBinAddr: 0x33E40, symSize: 0x7C }
  - { offset: 0x90FA9, size: 0x8, addend: 0x0, symName: __RNvXNvXsd_NtNtCse1nGBsou5OW_5alloc3vec9into_iterINtB8_8IntoIterppENtNtNtCsfvfooZQ3Axs_4core3ops4drop4Drop4dropINtB2_9DropGuardRNtCs3cP53eQoTwO_11proc_macro25IdentNtNtBc_5alloc6GlobalEB12_4dropCsf44oge9wsd6_12snafu_derive, symObjAddr: 0x1310, symBinAddr: 0x33EBC, symSize: 0x7C }
  - { offset: 0x910B6, size: 0x8, addend: 0x0, symName: __RNvXNvXsd_NtNtCse1nGBsou5OW_5alloc3vec9into_iterINtB8_8IntoIterppENtNtNtCsfvfooZQ3Axs_4core3ops4drop4Drop4dropINtB2_9DropGuardRNtNtNtCsf44oge9wsd6_12snafu_derive6shared5error11ProvidePlusNtNtBc_5alloc6GlobalEB12_4dropB27_, symObjAddr: 0x138C, symBinAddr: 0x33F38, symSize: 0x7C }
  - { offset: 0x911C3, size: 0x8, addend: 0x0, symName: __RNvXNvXsd_NtNtCse1nGBsou5OW_5alloc3vec9into_iterINtB8_8IntoIterppENtNtNtCsfvfooZQ3Axs_4core3ops4drop4Drop4dropINtB2_9DropGuardTNtNtCs5AlOhPCr03V_3syn4data7VariantNtNtB25_5token5CommaENtNtBc_5alloc6GlobalEB12_4dropCsf44oge9wsd6_12snafu_derive, symObjAddr: 0x1408, symBinAddr: 0x33FB4, symSize: 0x7C }
  - { offset: 0x912D0, size: 0x8, addend: 0x0, symName: __RNvXNvXsd_NtNtCse1nGBsou5OW_5alloc3vec9into_iterINtB8_8IntoIterppENtNtNtCsfvfooZQ3Axs_4core3ops4drop4Drop4dropINtB2_9DropGuardTNtNtCs5AlOhPCr03V_3syn4expr4ExprNtNtB25_5token5CommaENtNtBc_5alloc6GlobalEB12_4dropCsf44oge9wsd6_12snafu_derive, symObjAddr: 0x1484, symBinAddr: 0x34030, symSize: 0x7C }
  - { offset: 0x913DD, size: 0x8, addend: 0x0, symName: __RNvXNvXsd_NtNtCse1nGBsou5OW_5alloc3vec9into_iterINtB8_8IntoIterppENtNtNtCsfvfooZQ3Axs_4core3ops4drop4Drop4dropINtB2_9DropGuardTNtNtCsf44oge9wsd6_12snafu_derive5parse9AttributeNtNtCs5AlOhPCr03V_3syn5token5CommaENtNtBc_5alloc6GlobalEB12_4dropB25_, symObjAddr: 0x1500, symBinAddr: 0x340AC, symSize: 0x7C }
  - { offset: 0x914EA, size: 0x8, addend: 0x0, symName: __RNvXNvXsd_NtNtCse1nGBsou5OW_5alloc3vec9into_iterINtB8_8IntoIterppENtNtNtCsfvfooZQ3Axs_4core3ops4drop4Drop4dropINtB2_9DropGuardTNtNtCsf44oge9wsd6_12snafu_derive5parse9SourceArgNtNtCs5AlOhPCr03V_3syn5token5CommaENtNtBc_5alloc6GlobalEB12_4dropB25_, symObjAddr: 0x157C, symBinAddr: 0x34128, symSize: 0x7C }
  - { offset: 0x91890, size: 0x8, addend: 0x0, symName: __RNvXsd_NtNtCse1nGBsou5OW_5alloc3vec9into_iterINtB5_8IntoIterNtCs3cP53eQoTwO_11proc_macro211TokenStreamENtNtNtCsfvfooZQ3Axs_4core3ops4drop4Drop4dropCsf44oge9wsd6_12snafu_derive, symObjAddr: 0x275C, symBinAddr: 0x35308, symSize: 0x98 }
  - { offset: 0x9192A, size: 0x8, addend: 0x0, symName: __RNvXsd_NtNtCse1nGBsou5OW_5alloc3vec9into_iterINtB5_8IntoIterNtCs3cP53eQoTwO_11proc_macro25IdentENtNtNtCsfvfooZQ3Axs_4core3ops4drop4Drop4dropCsf44oge9wsd6_12snafu_derive, symObjAddr: 0x27F4, symBinAddr: 0x353A0, symSize: 0x98 }
  - { offset: 0x919C4, size: 0x8, addend: 0x0, symName: __RNvXsd_NtNtCse1nGBsou5OW_5alloc3vec9into_iterINtB5_8IntoIterNtCsf44oge9wsd6_12snafu_derive14SnafuAttributeENtNtNtCsfvfooZQ3Axs_4core3ops4drop4Drop4dropBY_, symObjAddr: 0x288C, symBinAddr: 0x35438, symSize: 0x98 }
  - { offset: 0x91A5E, size: 0x8, addend: 0x0, symName: __RNvXsd_NtNtCse1nGBsou5OW_5alloc3vec9into_iterINtB5_8IntoIterNtCsf44oge9wsd6_12snafu_derive5FieldENtNtNtCsfvfooZQ3Axs_4core3ops4drop4Drop4dropBY_, symObjAddr: 0x2924, symBinAddr: 0x354D0, symSize: 0x98 }
  - { offset: 0x91AF8, size: 0x8, addend: 0x0, symName: __RNvXsd_NtNtCse1nGBsou5OW_5alloc3vec9into_iterINtB5_8IntoIterNtCsf44oge9wsd6_12snafu_derive6SourceENtNtNtCsfvfooZQ3Axs_4core3ops4drop4Drop4dropBY_, symObjAddr: 0x29BC, symBinAddr: 0x35568, symSize: 0x98 }
  - { offset: 0x91B92, size: 0x8, addend: 0x0, symName: __RNvXsd_NtNtCse1nGBsou5OW_5alloc3vec9into_iterINtB5_8IntoIterNtNtCs5AlOhPCr03V_3syn4data5FieldENtNtNtCsfvfooZQ3Axs_4core3ops4drop4Drop4dropCsf44oge9wsd6_12snafu_derive, symObjAddr: 0x2A54, symBinAddr: 0x35600, symSize: 0x98 }
  - { offset: 0x91C2C, size: 0x8, addend: 0x0, symName: __RNvXsd_NtNtCse1nGBsou5OW_5alloc3vec9into_iterINtB5_8IntoIterNtNtCs5AlOhPCr03V_3syn4data7VariantENtNtNtCsfvfooZQ3Axs_4core3ops4drop4Drop4dropCsf44oge9wsd6_12snafu_derive, symObjAddr: 0x2AEC, symBinAddr: 0x35698, symSize: 0x98 }
  - { offset: 0x91CC6, size: 0x8, addend: 0x0, symName: __RNvXsd_NtNtCse1nGBsou5OW_5alloc3vec9into_iterINtB5_8IntoIterNtNtCs5AlOhPCr03V_3syn4expr4ExprENtNtNtCsfvfooZQ3Axs_4core3ops4drop4Drop4dropCsf44oge9wsd6_12snafu_derive, symObjAddr: 0x2B84, symBinAddr: 0x35730, symSize: 0x98 }
  - { offset: 0x91D60, size: 0x8, addend: 0x0, symName: __RNvXsd_NtNtCse1nGBsou5OW_5alloc3vec9into_iterINtB5_8IntoIterNtNtCs5AlOhPCr03V_3syn5error5ErrorENtNtNtCsfvfooZQ3Axs_4core3ops4drop4Drop4dropCsf44oge9wsd6_12snafu_derive, symObjAddr: 0x2C1C, symBinAddr: 0x357C8, symSize: 0x98 }
  - { offset: 0x91DFA, size: 0x8, addend: 0x0, symName: __RNvXsd_NtNtCse1nGBsou5OW_5alloc3vec9into_iterINtB5_8IntoIterNtNtCsf44oge9wsd6_12snafu_derive5parse9AttributeENtNtNtCsfvfooZQ3Axs_4core3ops4drop4Drop4dropB10_, symObjAddr: 0x2CB4, symBinAddr: 0x35860, symSize: 0x98 }
  - { offset: 0x91E94, size: 0x8, addend: 0x0, symName: __RNvXsd_NtNtCse1nGBsou5OW_5alloc3vec9into_iterINtB5_8IntoIterNtNtCsf44oge9wsd6_12snafu_derive5parse9SourceArgENtNtNtCsfvfooZQ3Axs_4core3ops4drop4Drop4dropB10_, symObjAddr: 0x2D4C, symBinAddr: 0x358F8, symSize: 0x98 }
  - { offset: 0x91F2E, size: 0x8, addend: 0x0, symName: __RNvXsd_NtNtCse1nGBsou5OW_5alloc3vec9into_iterINtB5_8IntoIterRNtCs3cP53eQoTwO_11proc_macro25IdentENtNtNtCsfvfooZQ3Axs_4core3ops4drop4Drop4dropCsf44oge9wsd6_12snafu_derive, symObjAddr: 0x2DE4, symBinAddr: 0x35990, symSize: 0x8C }
  - { offset: 0x91FC8, size: 0x8, addend: 0x0, symName: __RNvXsd_NtNtCse1nGBsou5OW_5alloc3vec9into_iterINtB5_8IntoIterRNtNtNtCsf44oge9wsd6_12snafu_derive6shared5error11ProvidePlusENtNtNtCsfvfooZQ3Axs_4core3ops4drop4Drop4dropB13_, symObjAddr: 0x2E70, symBinAddr: 0x35A1C, symSize: 0x8C }
  - { offset: 0x92062, size: 0x8, addend: 0x0, symName: __RNvXsd_NtNtCse1nGBsou5OW_5alloc3vec9into_iterINtB5_8IntoIterTNtNtCs5AlOhPCr03V_3syn4data7VariantNtNtB11_5token5CommaEENtNtNtCsfvfooZQ3Axs_4core3ops4drop4Drop4dropCsf44oge9wsd6_12snafu_derive, symObjAddr: 0x2EFC, symBinAddr: 0x35AA8, symSize: 0x98 }
  - { offset: 0x920FC, size: 0x8, addend: 0x0, symName: __RNvXsd_NtNtCse1nGBsou5OW_5alloc3vec9into_iterINtB5_8IntoIterTNtNtCs5AlOhPCr03V_3syn4expr4ExprNtNtB11_5token5CommaEENtNtNtCsfvfooZQ3Axs_4core3ops4drop4Drop4dropCsf44oge9wsd6_12snafu_derive, symObjAddr: 0x2F94, symBinAddr: 0x35B40, symSize: 0x98 }
  - { offset: 0x92196, size: 0x8, addend: 0x0, symName: __RNvXsd_NtNtCse1nGBsou5OW_5alloc3vec9into_iterINtB5_8IntoIterTNtNtCsf44oge9wsd6_12snafu_derive5parse9AttributeNtNtCs5AlOhPCr03V_3syn5token5CommaEENtNtNtCsfvfooZQ3Axs_4core3ops4drop4Drop4dropB11_, symObjAddr: 0x302C, symBinAddr: 0x35BD8, symSize: 0x98 }
  - { offset: 0x92230, size: 0x8, addend: 0x0, symName: __RNvXsd_NtNtCse1nGBsou5OW_5alloc3vec9into_iterINtB5_8IntoIterTNtNtCsf44oge9wsd6_12snafu_derive5parse9SourceArgNtNtCs5AlOhPCr03V_3syn5token5CommaEENtNtNtCsfvfooZQ3Axs_4core3ops4drop4Drop4dropB11_, symObjAddr: 0x30C4, symBinAddr: 0x35C70, symSize: 0x98 }
  - { offset: 0x99ABE, size: 0x8, addend: 0x0, symName: __RNvMs_NtNtCse1nGBsou5OW_5alloc3vec9into_iterINtB4_8IntoIterNtNtCs5AlOhPCr03V_3syn5error5ErrorE8as_sliceCsf44oge9wsd6_12snafu_derive, symObjAddr: 0xD40, symBinAddr: 0x338EC, symSize: 0x68 }
  - { offset: 0x9B591, size: 0x8, addend: 0x0, symName: __RINvMNtCs5AlOhPCr03V_3syn4attrNtB3_9Attribute15parse_args_withNvMNtB5_10punctuatedINtB11_10PunctuatedNtNtCsf44oge9wsd6_12snafu_derive5parse9AttributeNtNtB5_5token5CommaE16parse_terminatedEB1F_, symObjAddr: 0x0, symBinAddr: 0x36D3C, symSize: 0x9C }
  - { offset: 0x9B6FC, size: 0x8, addend: 0x0, symName: __RNCINvMNtCs5AlOhPCr03V_3syn4attrNtB5_9Attribute15parse_args_withNvMNtB7_10punctuatedINtB13_10PunctuatedNtNtCsf44oge9wsd6_12snafu_derive5parse9AttributeNtNtB7_5token5CommaE16parse_terminatedE0B1H_, symObjAddr: 0x1A14, symBinAddr: 0x38540, symSize: 0x158 }
  - { offset: 0x9C095, size: 0x8, addend: 0x0, symName: __RNvXs0_NtCs5AlOhPCr03V_3syn5tokenNtNtNtCsf44oge9wsd6_12snafu_derive5parse2kw10crate_rootNtB5_5Token4peekBB_, symObjAddr: 0x2248, symBinAddr: 0x38A74, symSize: 0x3C }
  - { offset: 0x9C0CA, size: 0x8, addend: 0x0, symName: __RNvXs0_NtCs5AlOhPCr03V_3syn5tokenNtNtNtCsf44oge9wsd6_12snafu_derive5parse2kw10crate_rootNtB5_5Token7displayBB_, symObjAddr: 0x2284, symBinAddr: 0x38AB0, symSize: 0x24 }
  - { offset: 0x9C0F1, size: 0x8, addend: 0x0, symName: __RNvXs0_NtCs5AlOhPCr03V_3syn5tokenNtNtNtCsf44oge9wsd6_12snafu_derive5parse2kw10visibilityNtB5_5Token4peekBB_, symObjAddr: 0x22A8, symBinAddr: 0x38AD4, symSize: 0x3C }
  - { offset: 0x9C126, size: 0x8, addend: 0x0, symName: __RNvXs0_NtCs5AlOhPCr03V_3syn5tokenNtNtNtCsf44oge9wsd6_12snafu_derive5parse2kw10visibilityNtB5_5Token7displayBB_, symObjAddr: 0x22E4, symBinAddr: 0x38B10, symSize: 0x24 }
  - { offset: 0x9C14D, size: 0x8, addend: 0x0, symName: __RNvXs0_NtCs5AlOhPCr03V_3syn5tokenNtNtNtCsf44oge9wsd6_12snafu_derive5parse2kw3optNtB5_5Token4peekBB_, symObjAddr: 0x2308, symBinAddr: 0x38B34, symSize: 0x3C }
  - { offset: 0x9C182, size: 0x8, addend: 0x0, symName: __RNvXs0_NtCs5AlOhPCr03V_3syn5tokenNtNtNtCsf44oge9wsd6_12snafu_derive5parse2kw3optNtB5_5Token7displayBB_, symObjAddr: 0x2344, symBinAddr: 0x38B70, symSize: 0x24 }
  - { offset: 0x9C1A9, size: 0x8, addend: 0x0, symName: __RNvXs0_NtCs5AlOhPCr03V_3syn5tokenNtNtNtCsf44oge9wsd6_12snafu_derive5parse2kw4fromNtB5_5Token4peekBB_, symObjAddr: 0x2368, symBinAddr: 0x38B94, symSize: 0x3C }
  - { offset: 0x9C1DE, size: 0x8, addend: 0x0, symName: __RNvXs0_NtCs5AlOhPCr03V_3syn5tokenNtNtNtCsf44oge9wsd6_12snafu_derive5parse2kw4fromNtB5_5Token7displayBB_, symObjAddr: 0x23A4, symBinAddr: 0x38BD0, symSize: 0x24 }
  - { offset: 0x9C205, size: 0x8, addend: 0x0, symName: __RNvXs0_NtCs5AlOhPCr03V_3syn5tokenNtNtNtCsf44oge9wsd6_12snafu_derive5parse2kw5chainNtB5_5Token4peekBB_, symObjAddr: 0x23C8, symBinAddr: 0x38BF4, symSize: 0x3C }
  - { offset: 0x9C23A, size: 0x8, addend: 0x0, symName: __RNvXs0_NtCs5AlOhPCr03V_3syn5tokenNtNtNtCsf44oge9wsd6_12snafu_derive5parse2kw5chainNtB5_5Token7displayBB_, symObjAddr: 0x2404, symBinAddr: 0x38C30, symSize: 0x24 }
  - { offset: 0x9C261, size: 0x8, addend: 0x0, symName: __RNvXs0_NtCs5AlOhPCr03V_3syn5tokenNtNtNtCsf44oge9wsd6_12snafu_derive5parse2kw6moduleNtB5_5Token4peekBB_, symObjAddr: 0x2428, symBinAddr: 0x38C54, symSize: 0x3C }
  - { offset: 0x9C296, size: 0x8, addend: 0x0, symName: __RNvXs0_NtCs5AlOhPCr03V_3syn5tokenNtNtNtCsf44oge9wsd6_12snafu_derive5parse2kw6moduleNtB5_5Token7displayBB_, symObjAddr: 0x2464, symBinAddr: 0x38C90, symSize: 0x24 }
  - { offset: 0x9C2BD, size: 0x8, addend: 0x0, symName: __RNvXs0_NtCs5AlOhPCr03V_3syn5tokenNtNtNtCsf44oge9wsd6_12snafu_derive5parse2kw6sourceNtB5_5Token4peekBB_, symObjAddr: 0x2488, symBinAddr: 0x38CB4, symSize: 0x3C }
  - { offset: 0x9C2F2, size: 0x8, addend: 0x0, symName: __RNvXs0_NtCs5AlOhPCr03V_3syn5tokenNtNtNtCsf44oge9wsd6_12snafu_derive5parse2kw6sourceNtB5_5Token7displayBB_, symObjAddr: 0x24C4, symBinAddr: 0x38CF0, symSize: 0x24 }
  - { offset: 0x9C319, size: 0x8, addend: 0x0, symName: __RNvXs0_NtCs5AlOhPCr03V_3syn5tokenNtNtNtCsf44oge9wsd6_12snafu_derive5parse2kw6suffixNtB5_5Token4peekBB_, symObjAddr: 0x24E8, symBinAddr: 0x38D14, symSize: 0x3C }
  - { offset: 0x9C34E, size: 0x8, addend: 0x0, symName: __RNvXs0_NtCs5AlOhPCr03V_3syn5tokenNtNtNtCsf44oge9wsd6_12snafu_derive5parse2kw6suffixNtB5_5Token7displayBB_, symObjAddr: 0x2524, symBinAddr: 0x38D50, symSize: 0x24 }
  - { offset: 0x9C375, size: 0x8, addend: 0x0, symName: __RNvXs0_NtCs5AlOhPCr03V_3syn5tokenNtNtNtCsf44oge9wsd6_12snafu_derive5parse2kw7contextNtB5_5Token4peekBB_, symObjAddr: 0x2548, symBinAddr: 0x38D74, symSize: 0x3C }
  - { offset: 0x9C3AA, size: 0x8, addend: 0x0, symName: __RNvXs0_NtCs5AlOhPCr03V_3syn5tokenNtNtNtCsf44oge9wsd6_12snafu_derive5parse2kw7contextNtB5_5Token7displayBB_, symObjAddr: 0x2584, symBinAddr: 0x38DB0, symSize: 0x24 }
  - { offset: 0x9C3D1, size: 0x8, addend: 0x0, symName: __RNvXs0_NtCs5AlOhPCr03V_3syn5tokenNtNtNtCsf44oge9wsd6_12snafu_derive5parse2kw7displayNtB5_5Token4peekBB_, symObjAddr: 0x25A8, symBinAddr: 0x38DD4, symSize: 0x3C }
  - { offset: 0x9C406, size: 0x8, addend: 0x0, symName: __RNvXs0_NtCs5AlOhPCr03V_3syn5tokenNtNtNtCsf44oge9wsd6_12snafu_derive5parse2kw7displayNtB5_5Token7displayBB_, symObjAddr: 0x25E4, symBinAddr: 0x38E10, symSize: 0x24 }
  - { offset: 0x9C42D, size: 0x8, addend: 0x0, symName: __RNvXs0_NtCs5AlOhPCr03V_3syn5tokenNtNtNtCsf44oge9wsd6_12snafu_derive5parse2kw7provideNtB5_5Token4peekBB_, symObjAddr: 0x2608, symBinAddr: 0x38E34, symSize: 0x3C }
  - { offset: 0x9C462, size: 0x8, addend: 0x0, symName: __RNvXs0_NtCs5AlOhPCr03V_3syn5tokenNtNtNtCsf44oge9wsd6_12snafu_derive5parse2kw7provideNtB5_5Token7displayBB_, symObjAddr: 0x2644, symBinAddr: 0x38E70, symSize: 0x24 }
  - { offset: 0x9C489, size: 0x8, addend: 0x0, symName: __RNvXs0_NtCs5AlOhPCr03V_3syn5tokenNtNtNtCsf44oge9wsd6_12snafu_derive5parse2kw8implicitNtB5_5Token4peekBB_, symObjAddr: 0x2668, symBinAddr: 0x38E94, symSize: 0x3C }
  - { offset: 0x9C4BE, size: 0x8, addend: 0x0, symName: __RNvXs0_NtCs5AlOhPCr03V_3syn5tokenNtNtNtCsf44oge9wsd6_12snafu_derive5parse2kw8implicitNtB5_5Token7displayBB_, symObjAddr: 0x26A4, symBinAddr: 0x38ED0, symSize: 0x24 }
  - { offset: 0x9C4E5, size: 0x8, addend: 0x0, symName: __RNvXs0_NtCs5AlOhPCr03V_3syn5tokenNtNtNtCsf44oge9wsd6_12snafu_derive5parse2kw8priorityNtB5_5Token4peekBB_, symObjAddr: 0x26C8, symBinAddr: 0x38EF4, symSize: 0x3C }
  - { offset: 0x9C51A, size: 0x8, addend: 0x0, symName: __RNvXs0_NtCs5AlOhPCr03V_3syn5tokenNtNtNtCsf44oge9wsd6_12snafu_derive5parse2kw8priorityNtB5_5Token7displayBB_, symObjAddr: 0x2704, symBinAddr: 0x38F30, symSize: 0x24 }
  - { offset: 0x9C541, size: 0x8, addend: 0x0, symName: __RNvXs0_NtCs5AlOhPCr03V_3syn5tokenNtNtNtCsf44oge9wsd6_12snafu_derive5parse2kw8whateverNtB5_5Token4peekBB_, symObjAddr: 0x2728, symBinAddr: 0x38F54, symSize: 0x3C }
  - { offset: 0x9C576, size: 0x8, addend: 0x0, symName: __RNvXs0_NtCs5AlOhPCr03V_3syn5tokenNtNtNtCsf44oge9wsd6_12snafu_derive5parse2kw8whateverNtB5_5Token7displayBB_, symObjAddr: 0x2764, symBinAddr: 0x38F90, symSize: 0x24 }
  - { offset: 0x9C59D, size: 0x8, addend: 0x0, symName: __RNvXs0_NtCs5AlOhPCr03V_3syn5tokenNtNtNtCsf44oge9wsd6_12snafu_derive5parse2kw9backtraceNtB5_5Token4peekBB_, symObjAddr: 0x2788, symBinAddr: 0x38FB4, symSize: 0x3C }
  - { offset: 0x9C5D2, size: 0x8, addend: 0x0, symName: __RNvXs0_NtCs5AlOhPCr03V_3syn5tokenNtNtNtCsf44oge9wsd6_12snafu_derive5parse2kw9backtraceNtB5_5Token7displayBB_, symObjAddr: 0x27C4, symBinAddr: 0x38FF0, symSize: 0x24 }
  - { offset: 0xA0C42, size: 0x8, addend: 0x0, symName: __RNvXsf_NtCs5AlOhPCr03V_3syn5parseNCINvMNtB7_4attrNtBB_9Attribute15parse_args_withNvMNtB7_10punctuatedINtB1k_10PunctuatedNtNtCsf44oge9wsd6_12snafu_derive5parse9AttributeNtNtB7_5token5CommaE16parse_terminatedE0NtB5_6Parser6parse2B1Y_, symObjAddr: 0x3078, symBinAddr: 0x398A4, symSize: 0x354 }
  - { offset: 0xA0F0B, size: 0x8, addend: 0x0, symName: __RNvXs0_NtCs5AlOhPCr03V_3syn5dropsINtB5_6NoDropDINtNtB7_10punctuated9IterTraitNtNtB7_8generics14WherePredicateEp4ItemRB1d_EL_ENtNtNtCsfvfooZQ3Axs_4core3ops5deref8DerefMut9deref_mutCsf44oge9wsd6_12snafu_derive, symObjAddr: 0x21D0, symBinAddr: 0x389FC, symSize: 0x3C }
  - { offset: 0xA0F40, size: 0x8, addend: 0x0, symName: __RNvXs0_NtCs5AlOhPCr03V_3syn5dropsINtB5_6NoDropDINtNtB7_10punctuated9IterTraitNtNtCsf44oge9wsd6_12snafu_derive5parse11ProvideFlagEp4ItemRB1d_EL_ENtNtNtCsfvfooZQ3Axs_4core3ops5deref8DerefMut9deref_mutB1h_, symObjAddr: 0x220C, symBinAddr: 0x38A38, symSize: 0x3C }
  - { offset: 0xA0F7B, size: 0x8, addend: 0x0, symName: __RNvXs_NtCs5AlOhPCr03V_3syn5dropsINtB4_6NoDropDINtNtB6_10punctuated9IterTraitNtNtB6_8generics12GenericParamEp4ItemRB1c_EL_ENtNtNtCsfvfooZQ3Axs_4core3ops5deref5Deref5derefCsf44oge9wsd6_12snafu_derive, symObjAddr: 0x2E1C, symBinAddr: 0x39648, symSize: 0x3C }
  - { offset: 0xA0FB0, size: 0x8, addend: 0x0, symName: __RNvXs_NtCs5AlOhPCr03V_3syn5dropsINtB4_6NoDropDINtNtB6_10punctuated9IterTraitNtNtB6_8generics14WherePredicateEp4ItemRB1c_EL_ENtNtNtCsfvfooZQ3Axs_4core3ops5deref5Deref5derefCsf44oge9wsd6_12snafu_derive, symObjAddr: 0x2E58, symBinAddr: 0x39684, symSize: 0x3C }
  - { offset: 0xA2DE5, size: 0x8, addend: 0x0, symName: __RNvXsV_NtCs9i5KxIbZ5ph_10proc_macro6bridgeINtNtCsfvfooZQ3Axs_4core6result6ResultINtNtBJ_6option6OptionNtNtB5_6client11TokenStreamEuEINtNtB5_3rpc6EncodeuE6encodeCsf44oge9wsd6_12snafu_derive, symObjAddr: 0x2BE8, symBinAddr: 0x39414, symSize: 0x108 }
  - { offset: 0xA2EA9, size: 0x8, addend: 0x0, symName: __RNvXsV_NtCs9i5KxIbZ5ph_10proc_macro6bridgeINtNtCsfvfooZQ3Axs_4core6result6ResultuNtNtB5_3rpc12PanicMessageEINtB1j_6EncodeuE6encodeCsf44oge9wsd6_12snafu_derive, symObjAddr: 0x2CF0, symBinAddr: 0x3951C, symSize: 0x12C }
  - { offset: 0xA3818, size: 0x8, addend: 0x0, symName: __RNvNvNtCsfvfooZQ3Axs_4core3ptr13read_volatile18precondition_checkCsf44oge9wsd6_12snafu_derive, symObjAddr: 0x1D38, symBinAddr: 0x38864, symSize: 0x100 }
  - { offset: 0xA7611, size: 0x8, addend: 0x0, symName: __RNvXs4_NtCsfvfooZQ3Axs_4core6resultINtB5_6ResultNtCsf44oge9wsd6_12snafu_derive14FieldContaineruENtNtNtNtB7_4iter6traits7collect12IntoIterator9into_iterBM_, symObjAddr: 0x27E8, symBinAddr: 0x39014, symSize: 0xE0 }
  - { offset: 0xA7686, size: 0x8, addend: 0x0, symName: __RNvXsi_NtCsfvfooZQ3Axs_4core6resultINtB5_8IntoIterNtCsf44oge9wsd6_12snafu_derive14FieldContainerENtNtNtNtB7_4iter6traits8iterator8Iterator4nextBO_, symObjAddr: 0x33CC, symBinAddr: 0x39BF8, symSize: 0x6C }
  - { offset: 0xA7719, size: 0x8, addend: 0x0, symName: __RNvXso_NtCsfvfooZQ3Axs_4core6resultINtB5_6ResultINtNtCs5AlOhPCr03V_3syn10punctuated10PunctuatedNtNtCsf44oge9wsd6_12snafu_derive5parse9AttributeNtNtBP_5token5CommaENtNtBP_5error5ErrorENtNtNtB7_3ops9try_trait3Try6branchB1z_, symObjAddr: 0x3438, symBinAddr: 0x39C64, symSize: 0xA0 }
  - { offset: 0xA7796, size: 0x8, addend: 0x0, symName: __RNvXso_NtCsfvfooZQ3Axs_4core6resultINtB5_6ResultINtNtCs5AlOhPCr03V_3syn10punctuated10PunctuatedNtNtCsf44oge9wsd6_12snafu_derive5parse9SourceArgNtNtBP_5token5CommaENtNtBP_5error5ErrorENtNtNtB7_3ops9try_trait3Try6branchB1z_, symObjAddr: 0x34D8, symBinAddr: 0x39D04, symSize: 0xA0 }
  - { offset: 0xA7813, size: 0x8, addend: 0x0, symName: __RNvXso_NtCsfvfooZQ3Axs_4core6resultINtB5_6ResultINtNtCs5AlOhPCr03V_3syn10punctuated4PairNtNtBP_4data5FieldNtNtBP_5token5CommaEINtNtCse1nGBsou5OW_5alloc3vec3VecNtNtBP_5error5ErrorEENtNtNtB7_3ops9try_trait3Try6branchCsf44oge9wsd6_12snafu_derive, symObjAddr: 0x3578, symBinAddr: 0x39DA4, symSize: 0xB8 }
  - { offset: 0xA7891, size: 0x8, addend: 0x0, symName: __RNvXso_NtCsfvfooZQ3Axs_4core6resultINtB5_6ResultINtNtCse1nGBsou5OW_5alloc3vec3VecNtCsf44oge9wsd6_12snafu_derive14FieldContainerEIBL_NtNtCs5AlOhPCr03V_3syn5error5ErrorEENtNtNtB7_3ops9try_trait3Try6branchB1j_, symObjAddr: 0x3630, symBinAddr: 0x39E5C, symSize: 0x94 }
  - { offset: 0xA790E, size: 0x8, addend: 0x0, symName: __RNvXso_NtCsfvfooZQ3Axs_4core6resultINtB5_6ResultINtNtCse1nGBsou5OW_5alloc3vec3VecNtCsf44oge9wsd6_12snafu_derive14SnafuAttributeEIBL_NtNtCs5AlOhPCr03V_3syn5error5ErrorEENtNtNtB7_3ops9try_trait3Try6branchB1j_, symObjAddr: 0x36C4, symBinAddr: 0x39EF0, symSize: 0x94 }
  - { offset: 0xA798B, size: 0x8, addend: 0x0, symName: __RNvXso_NtCsfvfooZQ3Axs_4core6resultINtB5_6ResultINtNtCsf44oge9wsd6_12snafu_derive5parse8MaybeArgINtNtCs5AlOhPCr03V_3syn10punctuated10PunctuatedNtBN_9SourceArgNtNtB1B_5token5CommaEENtNtB1B_5error5ErrorENtNtNtB7_3ops9try_trait3Try6branchBP_, symObjAddr: 0x3758, symBinAddr: 0x39F84, symSize: 0xB0 }
  - { offset: 0xA7A08, size: 0x8, addend: 0x0, symName: __RNvXso_NtCsfvfooZQ3Axs_4core6resultINtB5_6ResultINtNtCsf44oge9wsd6_12snafu_derive5parse8MaybeArgNtBN_10ContextArgENtNtCs5AlOhPCr03V_3syn5error5ErrorENtNtNtB7_3ops9try_trait3Try6branchBP_, symObjAddr: 0x3808, symBinAddr: 0x3A034, symSize: 0xAC }
  - { offset: 0xA7A85, size: 0x8, addend: 0x0, symName: __RNvXso_NtCsfvfooZQ3Axs_4core6resultINtB5_6ResultINtNtCsf44oge9wsd6_12snafu_derive5parse8MaybeArgNtBN_10ProvideArgENtNtCs5AlOhPCr03V_3syn5error5ErrorENtNtNtB7_3ops9try_trait3Try6branchBP_, symObjAddr: 0x38B4, symBinAddr: 0x3A0E0, symSize: 0xC0 }
  - { offset: 0xA7B03, size: 0x8, addend: 0x0, symName: __RNvXso_NtCsfvfooZQ3Axs_4core6resultINtB5_6ResultINtNtCsf44oge9wsd6_12snafu_derive5parse8MaybeArgNtCs3cP53eQoTwO_11proc_macro25IdentENtNtCs5AlOhPCr03V_3syn5error5ErrorENtNtNtB7_3ops9try_trait3Try6branchBP_, symObjAddr: 0x3974, symBinAddr: 0x3A1A0, symSize: 0x9C }
  - { offset: 0xA7B80, size: 0x8, addend: 0x0, symName: __RNvXso_NtCsfvfooZQ3Axs_4core6resultINtB5_6ResultINtNtCsf44oge9wsd6_12snafu_derive5parse8MaybeArgNtNtCs5AlOhPCr03V_3syn3lit7LitBoolENtNtB1A_5error5ErrorENtNtNtB7_3ops9try_trait3Try6branchBP_, symObjAddr: 0x3A10, symBinAddr: 0x3A23C, symSize: 0x9C }
  - { offset: 0xA7BFD, size: 0x8, addend: 0x0, symName: __RNvXso_NtCsfvfooZQ3Axs_4core6resultINtB5_6ResultINtNtCsf44oge9wsd6_12snafu_derive5parse8MaybeArgNtNtCs5AlOhPCr03V_3syn4data10VisibilityENtNtB1A_5error5ErrorENtNtNtB7_3ops9try_trait3Try6branchBP_, symObjAddr: 0x3AAC, symBinAddr: 0x3A2D8, symSize: 0x9C }
  - { offset: 0xA7C7A, size: 0x8, addend: 0x0, symName: __RNvXso_NtCsfvfooZQ3Axs_4core6resultINtB5_6ResultNtCsf44oge9wsd6_12snafu_derive11SourceFieldINtNtCse1nGBsou5OW_5alloc3vec3VecNtNtCs5AlOhPCr03V_3syn5error5ErrorEENtNtNtB7_3ops9try_trait3Try6branchBM_, symObjAddr: 0x3B48, symBinAddr: 0x3A374, symSize: 0xCC }
  - { offset: 0xA7CF8, size: 0x8, addend: 0x0, symName: __RNvXso_NtCsfvfooZQ3Axs_4core6resultINtB5_6ResultNtCsf44oge9wsd6_12snafu_derive14FieldContainerINtNtCse1nGBsou5OW_5alloc3vec3VecNtNtCs5AlOhPCr03V_3syn5error5ErrorEENtNtNtB7_3ops9try_trait3Try6branchBM_, symObjAddr: 0x3C14, symBinAddr: 0x3A440, symSize: 0xBC }
  - { offset: 0xA7D76, size: 0x8, addend: 0x0, symName: __RNvXso_NtCsfvfooZQ3Axs_4core6resultINtB5_6ResultNtCsf44oge9wsd6_12snafu_derive5FieldINtNtCse1nGBsou5OW_5alloc3vec3VecNtNtCs5AlOhPCr03V_3syn5error5ErrorEENtNtNtB7_3ops9try_trait3Try6branchBM_, symObjAddr: 0x3CD0, symBinAddr: 0x3A4FC, symSize: 0xB8 }
  - { offset: 0xA7DF4, size: 0x8, addend: 0x0, symName: __RNvXso_NtCsfvfooZQ3Axs_4core6resultINtB5_6ResultNtNtCs5AlOhPCr03V_3syn3lit7LitBoolNtNtBO_5error5ErrorENtNtNtB7_3ops9try_trait3Try6branchCsf44oge9wsd6_12snafu_derive, symObjAddr: 0x3D88, symBinAddr: 0x3A5B4, symSize: 0xA0 }
  - { offset: 0xA7E72, size: 0x8, addend: 0x0, symName: __RNvXso_NtCsfvfooZQ3Axs_4core6resultINtB5_6ResultNtNtCs5AlOhPCr03V_3syn5parse11ParseBufferNtNtBO_5error5ErrorENtNtNtB7_3ops9try_trait3Try6branchCsf44oge9wsd6_12snafu_derive, symObjAddr: 0x3E28, symBinAddr: 0x3A654, symSize: 0x94 }
  - { offset: 0xA7EEF, size: 0x8, addend: 0x0, symName: __RNvXso_NtCsfvfooZQ3Axs_4core6resultINtB5_6ResultNtNtCs5AlOhPCr03V_3syn6derive11DeriveInputNtNtBO_5error5ErrorENtNtNtB7_3ops9try_trait3Try6branchCsf44oge9wsd6_12snafu_derive, symObjAddr: 0x3EBC, symBinAddr: 0x3A6E8, symSize: 0xB4 }
  - { offset: 0xA7F6D, size: 0x8, addend: 0x0, symName: __RNvXso_NtCsfvfooZQ3Axs_4core6resultINtB5_6ResultNtNtCsf44oge9wsd6_12snafu_derive5parse10ContextArgNtNtCs5AlOhPCr03V_3syn5error5ErrorENtNtNtB7_3ops9try_trait3Try6branchBO_, symObjAddr: 0x3F70, symBinAddr: 0x3A79C, symSize: 0x94 }
  - { offset: 0xA7FEA, size: 0x8, addend: 0x0, symName: __RNvXso_NtCsfvfooZQ3Axs_4core6resultINtB5_6ResultNtNtCsf44oge9wsd6_12snafu_derive5parse10DocCommentNtNtCs5AlOhPCr03V_3syn5error5ErrorENtNtNtB7_3ops9try_trait3Try6branchBO_, symObjAddr: 0x4004, symBinAddr: 0x3A830, symSize: 0x8C }
  - { offset: 0xA8067, size: 0x8, addend: 0x0, symName: __RNvXso_NtCsfvfooZQ3Axs_4core6resultINtB5_6ResultNtNtCsf44oge9wsd6_12snafu_derive5parse10ProvideArgNtNtCs5AlOhPCr03V_3syn5error5ErrorENtNtNtB7_3ops9try_trait3Try6branchBO_, symObjAddr: 0x4090, symBinAddr: 0x3A8BC, symSize: 0xC4 }
  - { offset: 0xA80E5, size: 0x8, addend: 0x0, symName: __RNvXso_NtCsfvfooZQ3Axs_4core6resultINtB5_6ResultNtNtCsf44oge9wsd6_12snafu_derive5parse11ProvideFlagNtNtCs5AlOhPCr03V_3syn5error5ErrorENtNtNtB7_3ops9try_trait3Try6branchBO_, symObjAddr: 0x4154, symBinAddr: 0x3A980, symSize: 0x94 }
  - { offset: 0xA8163, size: 0x8, addend: 0x0, symName: __RNvXso_NtCsfvfooZQ3Axs_4core6resultINtB5_6ResultNtNtCsf44oge9wsd6_12snafu_derive5parse12ProvideFlagsNtNtCs5AlOhPCr03V_3syn5error5ErrorENtNtNtB7_3ops9try_trait3Try6branchBO_, symObjAddr: 0x41E8, symBinAddr: 0x3AA14, symSize: 0xA0 }
  - { offset: 0xA81E0, size: 0x8, addend: 0x0, symName: __RNvXso_NtCsfvfooZQ3Axs_4core6resultINtB5_6ResultNtNtCsf44oge9wsd6_12snafu_derive5parse9AttributeNtNtCs5AlOhPCr03V_3syn5error5ErrorENtNtNtB7_3ops9try_trait3Try6branchBO_, symObjAddr: 0x4288, symBinAddr: 0x3AAB4, symSize: 0xCC }
  - { offset: 0xA825E, size: 0x8, addend: 0x0, symName: __RNvXso_NtCsfvfooZQ3Axs_4core6resultINtB5_6ResultNtNtCsf44oge9wsd6_12snafu_derive5parse9SourceArgNtNtCs5AlOhPCr03V_3syn5error5ErrorENtNtNtB7_3ops9try_trait3Try6branchBO_, symObjAddr: 0x4354, symBinAddr: 0x3AB80, symSize: 0xC0 }
  - { offset: 0xA82DC, size: 0x8, addend: 0x0, symName: __RNvXso_NtCsfvfooZQ3Axs_4core6resultINtB5_6ResultNtNtCsf44oge9wsd6_12snafu_derive5parse9SuffixArgNtNtCs5AlOhPCr03V_3syn5error5ErrorENtNtNtB7_3ops9try_trait3Try6branchBO_, symObjAddr: 0x4414, symBinAddr: 0x3AC40, symSize: 0x94 }
  - { offset: 0xA8359, size: 0x8, addend: 0x0, symName: __RNvXso_NtCsfvfooZQ3Axs_4core6resultINtB5_6ResultNtNtNtCsf44oge9wsd6_12snafu_derive5parse2kw10crate_rootNtNtCs5AlOhPCr03V_3syn5error5ErrorENtNtNtB7_3ops9try_trait3Try6branchBQ_, symObjAddr: 0x44A8, symBinAddr: 0x3ACD4, symSize: 0x88 }
  - { offset: 0xA83D7, size: 0x8, addend: 0x0, symName: __RNvXso_NtCsfvfooZQ3Axs_4core6resultINtB5_6ResultNtNtNtCsf44oge9wsd6_12snafu_derive5parse2kw10visibilityNtNtCs5AlOhPCr03V_3syn5error5ErrorENtNtNtB7_3ops9try_trait3Try6branchBQ_, symObjAddr: 0x4530, symBinAddr: 0x3AD5C, symSize: 0x88 }
  - { offset: 0xA8455, size: 0x8, addend: 0x0, symName: __RNvXso_NtCsfvfooZQ3Axs_4core6resultINtB5_6ResultNtNtNtCsf44oge9wsd6_12snafu_derive5parse2kw4fromNtNtCs5AlOhPCr03V_3syn5error5ErrorENtNtNtB7_3ops9try_trait3Try6branchBQ_, symObjAddr: 0x45B8, symBinAddr: 0x3ADE4, symSize: 0x88 }
  - { offset: 0xA84D3, size: 0x8, addend: 0x0, symName: __RNvXso_NtCsfvfooZQ3Axs_4core6resultINtB5_6ResultNtNtNtCsf44oge9wsd6_12snafu_derive5parse2kw6moduleNtNtCs5AlOhPCr03V_3syn5error5ErrorENtNtNtB7_3ops9try_trait3Try6branchBQ_, symObjAddr: 0x4640, symBinAddr: 0x3AE6C, symSize: 0x88 }
  - { offset: 0xA8551, size: 0x8, addend: 0x0, symName: __RNvXso_NtCsfvfooZQ3Axs_4core6resultINtB5_6ResultNtNtNtCsf44oge9wsd6_12snafu_derive5parse2kw6sourceNtNtCs5AlOhPCr03V_3syn5error5ErrorENtNtNtB7_3ops9try_trait3Try6branchBQ_, symObjAddr: 0x46C8, symBinAddr: 0x3AEF4, symSize: 0x88 }
  - { offset: 0xA85CF, size: 0x8, addend: 0x0, symName: __RNvXso_NtCsfvfooZQ3Axs_4core6resultINtB5_6ResultNtNtNtCsf44oge9wsd6_12snafu_derive5parse2kw6suffixNtNtCs5AlOhPCr03V_3syn5error5ErrorENtNtNtB7_3ops9try_trait3Try6branchBQ_, symObjAddr: 0x4750, symBinAddr: 0x3AF7C, symSize: 0x88 }
  - { offset: 0xA864D, size: 0x8, addend: 0x0, symName: __RNvXso_NtCsfvfooZQ3Axs_4core6resultINtB5_6ResultNtNtNtCsf44oge9wsd6_12snafu_derive5parse2kw7contextNtNtCs5AlOhPCr03V_3syn5error5ErrorENtNtNtB7_3ops9try_trait3Try6branchBQ_, symObjAddr: 0x47D8, symBinAddr: 0x3B004, symSize: 0x88 }
  - { offset: 0xA86CB, size: 0x8, addend: 0x0, symName: __RNvXso_NtCsfvfooZQ3Axs_4core6resultINtB5_6ResultNtNtNtCsf44oge9wsd6_12snafu_derive5parse2kw7displayNtNtCs5AlOhPCr03V_3syn5error5ErrorENtNtNtB7_3ops9try_trait3Try6branchBQ_, symObjAddr: 0x4860, symBinAddr: 0x3B08C, symSize: 0x88 }
  - { offset: 0xA8749, size: 0x8, addend: 0x0, symName: __RNvXso_NtCsfvfooZQ3Axs_4core6resultINtB5_6ResultNtNtNtCsf44oge9wsd6_12snafu_derive5parse2kw7provideNtNtCs5AlOhPCr03V_3syn5error5ErrorENtNtNtB7_3ops9try_trait3Try6branchBQ_, symObjAddr: 0x48E8, symBinAddr: 0x3B114, symSize: 0x88 }
  - { offset: 0xA87C7, size: 0x8, addend: 0x0, symName: __RNvXso_NtCsfvfooZQ3Axs_4core6resultINtB5_6ResultNtNtNtCsf44oge9wsd6_12snafu_derive5parse2kw8implicitNtNtCs5AlOhPCr03V_3syn5error5ErrorENtNtNtB7_3ops9try_trait3Try6branchBQ_, symObjAddr: 0x4970, symBinAddr: 0x3B19C, symSize: 0x88 }
  - { offset: 0xA8845, size: 0x8, addend: 0x0, symName: __RNvXso_NtCsfvfooZQ3Axs_4core6resultINtB5_6ResultNtNtNtCsf44oge9wsd6_12snafu_derive5parse2kw8whateverNtNtCs5AlOhPCr03V_3syn5error5ErrorENtNtNtB7_3ops9try_trait3Try6branchBQ_, symObjAddr: 0x49F8, symBinAddr: 0x3B224, symSize: 0x88 }
  - { offset: 0xA88C3, size: 0x8, addend: 0x0, symName: __RNvXso_NtCsfvfooZQ3Axs_4core6resultINtB5_6ResultNtNtNtCsf44oge9wsd6_12snafu_derive5parse2kw9backtraceNtNtCs5AlOhPCr03V_3syn5error5ErrorENtNtNtB7_3ops9try_trait3Try6branchBQ_, symObjAddr: 0x4A80, symBinAddr: 0x3B2AC, symSize: 0x88 }
  - { offset: 0xA8941, size: 0x8, addend: 0x0, symName: __RNvXso_NtCsfvfooZQ3Axs_4core6resultINtB5_6ResultRNtCs3cP53eQoTwO_11proc_macro25IdentINtNtCse1nGBsou5OW_5alloc3vec3VecNtNtCs5AlOhPCr03V_3syn5error5ErrorEENtNtNtB7_3ops9try_trait3Try6branchCsf44oge9wsd6_12snafu_derive, symObjAddr: 0x4B08, symBinAddr: 0x3B334, symSize: 0x88 }
  - { offset: 0xA89BF, size: 0x8, addend: 0x0, symName: __RNvXso_NtCsfvfooZQ3Axs_4core6resultINtB5_6ResultTNtNtNtCsf44oge9wsd6_12snafu_derive5parse2kw10crate_rootNtNtCs5AlOhPCr03V_3syn6buffer6CursorENtNtB1I_5error5ErrorENtNtNtB7_3ops9try_trait3Try6branchBR_, symObjAddr: 0x4B90, symBinAddr: 0x3B3BC, symSize: 0x94 }
  - { offset: 0xA8A3C, size: 0x8, addend: 0x0, symName: __RNvXso_NtCsfvfooZQ3Axs_4core6resultINtB5_6ResultTNtNtNtCsf44oge9wsd6_12snafu_derive5parse2kw10visibilityNtNtCs5AlOhPCr03V_3syn6buffer6CursorENtNtB1I_5error5ErrorENtNtNtB7_3ops9try_trait3Try6branchBR_, symObjAddr: 0x4C24, symBinAddr: 0x3B450, symSize: 0x94 }
  - { offset: 0xA8AB9, size: 0x8, addend: 0x0, symName: __RNvXso_NtCsfvfooZQ3Axs_4core6resultINtB5_6ResultTNtNtNtCsf44oge9wsd6_12snafu_derive5parse2kw3optNtNtCs5AlOhPCr03V_3syn6buffer6CursorENtNtB1A_5error5ErrorENtNtNtB7_3ops9try_trait3Try6branchBR_, symObjAddr: 0x4CB8, symBinAddr: 0x3B4E4, symSize: 0x94 }
  - { offset: 0xA8B36, size: 0x8, addend: 0x0, symName: __RNvXso_NtCsfvfooZQ3Axs_4core6resultINtB5_6ResultTNtNtNtCsf44oge9wsd6_12snafu_derive5parse2kw4fromNtNtCs5AlOhPCr03V_3syn6buffer6CursorENtNtB1B_5error5ErrorENtNtNtB7_3ops9try_trait3Try6branchBR_, symObjAddr: 0x4D4C, symBinAddr: 0x3B578, symSize: 0x94 }
  - { offset: 0xA8BB3, size: 0x8, addend: 0x0, symName: __RNvXso_NtCsfvfooZQ3Axs_4core6resultINtB5_6ResultTNtNtNtCsf44oge9wsd6_12snafu_derive5parse2kw5chainNtNtCs5AlOhPCr03V_3syn6buffer6CursorENtNtB1C_5error5ErrorENtNtNtB7_3ops9try_trait3Try6branchBR_, symObjAddr: 0x4DE0, symBinAddr: 0x3B60C, symSize: 0x94 }
  - { offset: 0xA8C30, size: 0x8, addend: 0x0, symName: __RNvXso_NtCsfvfooZQ3Axs_4core6resultINtB5_6ResultTNtNtNtCsf44oge9wsd6_12snafu_derive5parse2kw6moduleNtNtCs5AlOhPCr03V_3syn6buffer6CursorENtNtB1D_5error5ErrorENtNtNtB7_3ops9try_trait3Try6branchBR_, symObjAddr: 0x4E74, symBinAddr: 0x3B6A0, symSize: 0x94 }
  - { offset: 0xA8CAD, size: 0x8, addend: 0x0, symName: __RNvXso_NtCsfvfooZQ3Axs_4core6resultINtB5_6ResultTNtNtNtCsf44oge9wsd6_12snafu_derive5parse2kw6sourceNtNtCs5AlOhPCr03V_3syn6buffer6CursorENtNtB1D_5error5ErrorENtNtNtB7_3ops9try_trait3Try6branchBR_, symObjAddr: 0x4F08, symBinAddr: 0x3B734, symSize: 0x94 }
  - { offset: 0xA8D2A, size: 0x8, addend: 0x0, symName: __RNvXso_NtCsfvfooZQ3Axs_4core6resultINtB5_6ResultTNtNtNtCsf44oge9wsd6_12snafu_derive5parse2kw6suffixNtNtCs5AlOhPCr03V_3syn6buffer6CursorENtNtB1D_5error5ErrorENtNtNtB7_3ops9try_trait3Try6branchBR_, symObjAddr: 0x4F9C, symBinAddr: 0x3B7C8, symSize: 0x94 }
  - { offset: 0xA8DA7, size: 0x8, addend: 0x0, symName: __RNvXso_NtCsfvfooZQ3Axs_4core6resultINtB5_6ResultTNtNtNtCsf44oge9wsd6_12snafu_derive5parse2kw7contextNtNtCs5AlOhPCr03V_3syn6buffer6CursorENtNtB1E_5error5ErrorENtNtNtB7_3ops9try_trait3Try6branchBR_, symObjAddr: 0x5030, symBinAddr: 0x3B85C, symSize: 0x94 }
  - { offset: 0xA8E24, size: 0x8, addend: 0x0, symName: __RNvXso_NtCsfvfooZQ3Axs_4core6resultINtB5_6ResultTNtNtNtCsf44oge9wsd6_12snafu_derive5parse2kw7displayNtNtCs5AlOhPCr03V_3syn6buffer6CursorENtNtB1E_5error5ErrorENtNtNtB7_3ops9try_trait3Try6branchBR_, symObjAddr: 0x50C4, symBinAddr: 0x3B8F0, symSize: 0x94 }
  - { offset: 0xA8EA1, size: 0x8, addend: 0x0, symName: __RNvXso_NtCsfvfooZQ3Axs_4core6resultINtB5_6ResultTNtNtNtCsf44oge9wsd6_12snafu_derive5parse2kw7provideNtNtCs5AlOhPCr03V_3syn6buffer6CursorENtNtB1E_5error5ErrorENtNtNtB7_3ops9try_trait3Try6branchBR_, symObjAddr: 0x5158, symBinAddr: 0x3B984, symSize: 0x94 }
  - { offset: 0xA8F1E, size: 0x8, addend: 0x0, symName: __RNvXso_NtCsfvfooZQ3Axs_4core6resultINtB5_6ResultTNtNtNtCsf44oge9wsd6_12snafu_derive5parse2kw8implicitNtNtCs5AlOhPCr03V_3syn6buffer6CursorENtNtB1F_5error5ErrorENtNtNtB7_3ops9try_trait3Try6branchBR_, symObjAddr: 0x51EC, symBinAddr: 0x3BA18, symSize: 0x94 }
  - { offset: 0xA8F9B, size: 0x8, addend: 0x0, symName: __RNvXso_NtCsfvfooZQ3Axs_4core6resultINtB5_6ResultTNtNtNtCsf44oge9wsd6_12snafu_derive5parse2kw8priorityNtNtCs5AlOhPCr03V_3syn6buffer6CursorENtNtB1F_5error5ErrorENtNtNtB7_3ops9try_trait3Try6branchBR_, symObjAddr: 0x5280, symBinAddr: 0x3BAAC, symSize: 0x94 }
  - { offset: 0xA9018, size: 0x8, addend: 0x0, symName: __RNvXso_NtCsfvfooZQ3Axs_4core6resultINtB5_6ResultTNtNtNtCsf44oge9wsd6_12snafu_derive5parse2kw8whateverNtNtCs5AlOhPCr03V_3syn6buffer6CursorENtNtB1F_5error5ErrorENtNtNtB7_3ops9try_trait3Try6branchBR_, symObjAddr: 0x5314, symBinAddr: 0x3BB40, symSize: 0x94 }
  - { offset: 0xA9095, size: 0x8, addend: 0x0, symName: __RNvXso_NtCsfvfooZQ3Axs_4core6resultINtB5_6ResultTNtNtNtCsf44oge9wsd6_12snafu_derive5parse2kw9backtraceNtNtCs5AlOhPCr03V_3syn6buffer6CursorENtNtB1G_5error5ErrorENtNtNtB7_3ops9try_trait3Try6branchBR_, symObjAddr: 0x53A8, symBinAddr: 0x3BBD4, symSize: 0x94 }
  - { offset: 0xA9112, size: 0x8, addend: 0x0, symName: __RNvXso_NtCsfvfooZQ3Axs_4core6resultINtB5_6ResultuINtNtCse1nGBsou5OW_5alloc3vec3VecNtNtCs5AlOhPCr03V_3syn5error5ErrorEENtNtNtB7_3ops9try_trait3Try6branchCsf44oge9wsd6_12snafu_derive, symObjAddr: 0x543C, symBinAddr: 0x3BC68, symSize: 0x78 }
  - { offset: 0xA9196, size: 0x8, addend: 0x0, symName: __RNvXsp_NtCsfvfooZQ3Axs_4core6resultINtB5_6ResultINtNtCs5AlOhPCr03V_3syn10punctuated10PunctuatedNtNtCsf44oge9wsd6_12snafu_derive5parse9AttributeNtNtBP_5token5CommaENtNtBP_5error5ErrorEINtNtNtB7_3ops9try_trait12FromResidualIBy_NtNtB7_7convert10InfallibleB2B_EE13from_residualB1z_, symObjAddr: 0x54D8, symBinAddr: 0x3BD04, symSize: 0x48 }
  - { offset: 0xA921B, size: 0x8, addend: 0x0, symName: __RNvXsp_NtCsfvfooZQ3Axs_4core6resultINtB5_6ResultINtNtCs5AlOhPCr03V_3syn10punctuated10PunctuatedNtNtCsf44oge9wsd6_12snafu_derive5parse9SourceArgNtNtBP_5token5CommaENtNtBP_5error5ErrorEINtNtNtB7_3ops9try_trait12FromResidualIBy_NtNtB7_7convert10InfallibleB2B_EE13from_residualB1z_, symObjAddr: 0x5520, symBinAddr: 0x3BD4C, symSize: 0x48 }
  - { offset: 0xA92A0, size: 0x8, addend: 0x0, symName: __RNvXsp_NtCsfvfooZQ3Axs_4core6resultINtB5_6ResultINtNtCsf44oge9wsd6_12snafu_derive5parse8MaybeArgINtNtCs5AlOhPCr03V_3syn10punctuated10PunctuatedNtBN_9SourceArgNtNtB1B_5token5CommaEENtNtB1B_5error5ErrorEINtNtNtB7_3ops9try_trait12FromResidualIBy_NtNtB7_7convert10InfallibleB2S_EE13from_residualBP_, symObjAddr: 0x5568, symBinAddr: 0x3BD94, symSize: 0x48 }
  - { offset: 0xA9325, size: 0x8, addend: 0x0, symName: __RNvXsp_NtCsfvfooZQ3Axs_4core6resultINtB5_6ResultINtNtCsf44oge9wsd6_12snafu_derive5parse8MaybeArgNtBN_10ContextArgENtNtCs5AlOhPCr03V_3syn5error5ErrorEINtNtNtB7_3ops9try_trait12FromResidualIBy_NtNtB7_7convert10InfallibleB1O_EE13from_residualBP_, symObjAddr: 0x55B0, symBinAddr: 0x3BDDC, symSize: 0x48 }
  - { offset: 0xA93AA, size: 0x8, addend: 0x0, symName: __RNvXsp_NtCsfvfooZQ3Axs_4core6resultINtB5_6ResultINtNtCsf44oge9wsd6_12snafu_derive5parse8MaybeArgNtBN_10ProvideArgENtNtCs5AlOhPCr03V_3syn5error5ErrorEINtNtNtB7_3ops9try_trait12FromResidualIBy_NtNtB7_7convert10InfallibleB1O_EE13from_residualBP_, symObjAddr: 0x55F8, symBinAddr: 0x3BE24, symSize: 0x4C }
  - { offset: 0xA942F, size: 0x8, addend: 0x0, symName: __RNvXsp_NtCsfvfooZQ3Axs_4core6resultINtB5_6ResultINtNtCsf44oge9wsd6_12snafu_derive5parse8MaybeArgNtCs3cP53eQoTwO_11proc_macro25IdentENtNtCs5AlOhPCr03V_3syn5error5ErrorEINtNtNtB7_3ops9try_trait12FromResidualIBy_NtNtB7_7convert10InfallibleB26_EE13from_residualBP_, symObjAddr: 0x5644, symBinAddr: 0x3BE70, symSize: 0x48 }
  - { offset: 0xA94B4, size: 0x8, addend: 0x0, symName: __RNvXsp_NtCsfvfooZQ3Axs_4core6resultINtB5_6ResultINtNtCsf44oge9wsd6_12snafu_derive5parse8MaybeArgNtNtCs5AlOhPCr03V_3syn3lit7LitBoolENtNtB1A_5error5ErrorEINtNtNtB7_3ops9try_trait12FromResidualIBy_NtNtB7_7convert10InfallibleB25_EE13from_residualBP_, symObjAddr: 0x568C, symBinAddr: 0x3BEB8, symSize: 0x40 }
  - { offset: 0xA9539, size: 0x8, addend: 0x0, symName: __RNvXsp_NtCsfvfooZQ3Axs_4core6resultINtB5_6ResultINtNtCsf44oge9wsd6_12snafu_derive5parse8MaybeArgNtNtCs5AlOhPCr03V_3syn4data10VisibilityENtNtB1A_5error5ErrorEINtNtNtB7_3ops9try_trait12FromResidualIBy_NtNtB7_7convert10InfallibleB2a_EE13from_residualBP_, symObjAddr: 0x56CC, symBinAddr: 0x3BEF8, symSize: 0x48 }
  - { offset: 0xA95BE, size: 0x8, addend: 0x0, symName: __RNvXsp_NtCsfvfooZQ3Axs_4core6resultINtB5_6ResultNtCsf44oge9wsd6_12snafu_derive14FieldContainerINtNtCse1nGBsou5OW_5alloc3vec3VecNtNtCs5AlOhPCr03V_3syn5error5ErrorEEINtNtNtB7_3ops9try_trait12FromResidualIBy_NtNtB7_7convert10InfallibleB1u_EE13from_residualBM_, symObjAddr: 0x5714, symBinAddr: 0x3BF40, symSize: 0x48 }
  - { offset: 0xA9643, size: 0x8, addend: 0x0, symName: __RNvXsp_NtCsfvfooZQ3Axs_4core6resultINtB5_6ResultNtCsf44oge9wsd6_12snafu_derive15NamedStructInfoINtNtCse1nGBsou5OW_5alloc3vec3VecNtNtCs5AlOhPCr03V_3syn5error5ErrorEEINtNtNtB7_3ops9try_trait12FromResidualIBy_NtNtB7_7convert10InfallibleB1v_EE13from_residualBM_, symObjAddr: 0x575C, symBinAddr: 0x3BF88, symSize: 0x48 }
  - { offset: 0xA96C8, size: 0x8, addend: 0x0, symName: __RNvXsp_NtCsfvfooZQ3Axs_4core6resultINtB5_6ResultNtCsf44oge9wsd6_12snafu_derive15TupleStructInfoINtNtCse1nGBsou5OW_5alloc3vec3VecNtNtCs5AlOhPCr03V_3syn5error5ErrorEEINtNtNtB7_3ops9try_trait12FromResidualIBy_NtNtB7_7convert10InfallibleB1v_EE13from_residualBM_, symObjAddr: 0x57A4, symBinAddr: 0x3BFD0, symSize: 0x48 }
  - { offset: 0xA974D, size: 0x8, addend: 0x0, symName: __RNvXsp_NtCsfvfooZQ3Axs_4core6resultINtB5_6ResultNtCsf44oge9wsd6_12snafu_derive8EnumInfoINtNtCse1nGBsou5OW_5alloc3vec3VecNtNtCs5AlOhPCr03V_3syn5error5ErrorEEINtNtNtB7_3ops9try_trait12FromResidualIBy_NtNtB7_7convert10InfallibleB1n_EE13from_residualBM_, symObjAddr: 0x57EC, symBinAddr: 0x3C018, symSize: 0x48 }
  - { offset: 0xA97D2, size: 0x8, addend: 0x0, symName: __RNvXsp_NtCsfvfooZQ3Axs_4core6resultINtB5_6ResultNtNtCsf44oge9wsd6_12snafu_derive5parse10ContextArgNtNtCs5AlOhPCr03V_3syn5error5ErrorEINtNtNtB7_3ops9try_trait12FromResidualIBy_NtNtB7_7convert10InfallibleB1y_EE13from_residualBO_, symObjAddr: 0x5834, symBinAddr: 0x3C060, symSize: 0x48 }
  - { offset: 0xA9857, size: 0x8, addend: 0x0, symName: __RNvXsp_NtCsfvfooZQ3Axs_4core6resultINtB5_6ResultNtNtCsf44oge9wsd6_12snafu_derive5parse10DocCommentNtNtCs5AlOhPCr03V_3syn5error5ErrorEINtNtNtB7_3ops9try_trait12FromResidualIBy_NtNtB7_7convert10InfallibleB1y_EE13from_residualBO_, symObjAddr: 0x587C, symBinAddr: 0x3C0A8, symSize: 0x40 }
  - { offset: 0xA98DC, size: 0x8, addend: 0x0, symName: __RNvXsp_NtCsfvfooZQ3Axs_4core6resultINtB5_6ResultNtNtCsf44oge9wsd6_12snafu_derive5parse10ProvideArgNtNtCs5AlOhPCr03V_3syn5error5ErrorEINtNtNtB7_3ops9try_trait12FromResidualIBy_NtNtB7_7convert10InfallibleB1y_EE13from_residualBO_, symObjAddr: 0x58BC, symBinAddr: 0x3C0E8, symSize: 0x48 }
  - { offset: 0xA9961, size: 0x8, addend: 0x0, symName: __RNvXsp_NtCsfvfooZQ3Axs_4core6resultINtB5_6ResultNtNtCsf44oge9wsd6_12snafu_derive5parse10VisibilityNtNtCs5AlOhPCr03V_3syn5error5ErrorEINtNtNtB7_3ops9try_trait12FromResidualIBy_NtNtB7_7convert10InfallibleB1y_EE13from_residualBO_, symObjAddr: 0x5904, symBinAddr: 0x3C130, symSize: 0x48 }
  - { offset: 0xA99E6, size: 0x8, addend: 0x0, symName: __RNvXsp_NtCsfvfooZQ3Axs_4core6resultINtB5_6ResultNtNtCsf44oge9wsd6_12snafu_derive5parse12ProvideFlagsNtNtCs5AlOhPCr03V_3syn5error5ErrorEINtNtNtB7_3ops9try_trait12FromResidualIBy_NtNtB7_7convert10InfallibleB1A_EE13from_residualBO_, symObjAddr: 0x594C, symBinAddr: 0x3C178, symSize: 0x48 }
  - { offset: 0xA9A6B, size: 0x8, addend: 0x0, symName: __RNvXsp_NtCsfvfooZQ3Axs_4core6resultINtB5_6ResultNtNtCsf44oge9wsd6_12snafu_derive5parse6ModuleNtNtCs5AlOhPCr03V_3syn5error5ErrorEINtNtNtB7_3ops9try_trait12FromResidualIBy_NtNtB7_7convert10InfallibleB1t_EE13from_residualBO_, symObjAddr: 0x5994, symBinAddr: 0x3C1C0, symSize: 0x48 }
  - { offset: 0xA9AF0, size: 0x8, addend: 0x0, symName: __RNvXsp_NtCsfvfooZQ3Axs_4core6resultINtB5_6ResultNtNtCsf44oge9wsd6_12snafu_derive5parse6SourceNtNtCs5AlOhPCr03V_3syn5error5ErrorEINtNtNtB7_3ops9try_trait12FromResidualIBy_NtNtB7_7convert10InfallibleB1t_EE13from_residualBO_, symObjAddr: 0x59DC, symBinAddr: 0x3C208, symSize: 0x48 }
  - { offset: 0xA9B75, size: 0x8, addend: 0x0, symName: __RNvXsp_NtCsfvfooZQ3Axs_4core6resultINtB5_6ResultNtNtCsf44oge9wsd6_12snafu_derive5parse7ContextNtNtCs5AlOhPCr03V_3syn5error5ErrorEINtNtNtB7_3ops9try_trait12FromResidualIBy_NtNtB7_7convert10InfallibleB1u_EE13from_residualBO_, symObjAddr: 0x5A24, symBinAddr: 0x3C250, symSize: 0x48 }
  - { offset: 0xA9BFA, size: 0x8, addend: 0x0, symName: __RNvXsp_NtCsfvfooZQ3Axs_4core6resultINtB5_6ResultNtNtCsf44oge9wsd6_12snafu_derive5parse7DisplayNtNtCs5AlOhPCr03V_3syn5error5ErrorEINtNtNtB7_3ops9try_trait12FromResidualIBy_NtNtB7_7convert10InfallibleB1u_EE13from_residualBO_, symObjAddr: 0x5A6C, symBinAddr: 0x3C298, symSize: 0x48 }
  - { offset: 0xA9C7F, size: 0x8, addend: 0x0, symName: __RNvXsp_NtCsfvfooZQ3Axs_4core6resultINtB5_6ResultNtNtCsf44oge9wsd6_12snafu_derive5parse7ProvideNtNtCs5AlOhPCr03V_3syn5error5ErrorEINtNtNtB7_3ops9try_trait12FromResidualIBy_NtNtB7_7convert10InfallibleB1u_EE13from_residualBO_, symObjAddr: 0x5AB4, symBinAddr: 0x3C2E0, symSize: 0x4C }
  - { offset: 0xA9D04, size: 0x8, addend: 0x0, symName: __RNvXsp_NtCsfvfooZQ3Axs_4core6resultINtB5_6ResultNtNtCsf44oge9wsd6_12snafu_derive5parse8ImplicitNtNtCs5AlOhPCr03V_3syn5error5ErrorEINtNtNtB7_3ops9try_trait12FromResidualIBy_NtNtB7_7convert10InfallibleB1v_EE13from_residualBO_, symObjAddr: 0x5B00, symBinAddr: 0x3C32C, symSize: 0x40 }
  - { offset: 0xA9D89, size: 0x8, addend: 0x0, symName: __RNvXsp_NtCsfvfooZQ3Axs_4core6resultINtB5_6ResultNtNtCsf44oge9wsd6_12snafu_derive5parse8WhateverNtNtCs5AlOhPCr03V_3syn5error5ErrorEINtNtNtB7_3ops9try_trait12FromResidualIBy_NtNtB7_7convert10InfallibleB1v_EE13from_residualBO_, symObjAddr: 0x5B40, symBinAddr: 0x3C36C, symSize: 0x40 }
  - { offset: 0xA9E0E, size: 0x8, addend: 0x0, symName: __RNvXsp_NtCsfvfooZQ3Axs_4core6resultINtB5_6ResultNtNtCsf44oge9wsd6_12snafu_derive5parse9BacktraceNtNtCs5AlOhPCr03V_3syn5error5ErrorEINtNtNtB7_3ops9try_trait12FromResidualIBy_NtNtB7_7convert10InfallibleB1w_EE13from_residualBO_, symObjAddr: 0x5B80, symBinAddr: 0x3C3AC, symSize: 0x40 }
  - { offset: 0xA9E93, size: 0x8, addend: 0x0, symName: __RNvXsp_NtCsfvfooZQ3Axs_4core6resultINtB5_6ResultNtNtCsf44oge9wsd6_12snafu_derive5parse9CrateRootNtNtCs5AlOhPCr03V_3syn5error5ErrorEINtNtNtB7_3ops9try_trait12FromResidualIBy_NtNtB7_7convert10InfallibleB1w_EE13from_residualBO_, symObjAddr: 0x5BC0, symBinAddr: 0x3C3EC, symSize: 0x48 }
  - { offset: 0xA9F18, size: 0x8, addend: 0x0, symName: __RNvXsp_NtCsfvfooZQ3Axs_4core6resultINtB5_6ResultNtNtCsf44oge9wsd6_12snafu_derive5parse9SourceArgNtNtCs5AlOhPCr03V_3syn5error5ErrorEINtNtNtB7_3ops9try_trait12FromResidualIBy_NtNtB7_7convert10InfallibleB1w_EE13from_residualBO_, symObjAddr: 0x5C08, symBinAddr: 0x3C434, symSize: 0x4C }
  - { offset: 0xA9F9D, size: 0x8, addend: 0x0, symName: __RNvXsp_NtCsfvfooZQ3Axs_4core6resultINtB5_6ResultNtNtCsf44oge9wsd6_12snafu_derive5parse9SuffixArgNtNtCs5AlOhPCr03V_3syn5error5ErrorEINtNtNtB7_3ops9try_trait12FromResidualIBy_NtNtB7_7convert10InfallibleB1w_EE13from_residualBO_, symObjAddr: 0x5C54, symBinAddr: 0x3C480, symSize: 0x48 }
  - { offset: 0xAA022, size: 0x8, addend: 0x0, symName: __RNvXsp_NtCsfvfooZQ3Axs_4core6resultINtB5_6ResultNtNtNtCsf44oge9wsd6_12snafu_derive5parse2kw10crate_rootNtNtCs5AlOhPCr03V_3syn5error5ErrorEINtNtNtB7_3ops9try_trait12FromResidualIBy_NtNtB7_7convert10InfallibleB1D_EE13from_residualBQ_, symObjAddr: 0x5C9C, symBinAddr: 0x3C4C8, symSize: 0x40 }
  - { offset: 0xAA0A7, size: 0x8, addend: 0x0, symName: __RNvXsp_NtCsfvfooZQ3Axs_4core6resultINtB5_6ResultNtNtNtCsf44oge9wsd6_12snafu_derive5parse2kw10visibilityNtNtCs5AlOhPCr03V_3syn5error5ErrorEINtNtNtB7_3ops9try_trait12FromResidualIBy_NtNtB7_7convert10InfallibleB1D_EE13from_residualBQ_, symObjAddr: 0x5CDC, symBinAddr: 0x3C508, symSize: 0x40 }
  - { offset: 0xAA12C, size: 0x8, addend: 0x0, symName: __RNvXsp_NtCsfvfooZQ3Axs_4core6resultINtB5_6ResultNtNtNtCsf44oge9wsd6_12snafu_derive5parse2kw3optNtNtCs5AlOhPCr03V_3syn5error5ErrorEINtNtNtB7_3ops9try_trait12FromResidualIBy_NtNtB7_7convert10InfallibleB1v_EE13from_residualBQ_, symObjAddr: 0x5D1C, symBinAddr: 0x3C548, symSize: 0x40 }
  - { offset: 0xAA1B1, size: 0x8, addend: 0x0, symName: __RNvXsp_NtCsfvfooZQ3Axs_4core6resultINtB5_6ResultNtNtNtCsf44oge9wsd6_12snafu_derive5parse2kw4fromNtNtCs5AlOhPCr03V_3syn5error5ErrorEINtNtNtB7_3ops9try_trait12FromResidualIBy_NtNtB7_7convert10InfallibleB1w_EE13from_residualBQ_, symObjAddr: 0x5D5C, symBinAddr: 0x3C588, symSize: 0x40 }
  - { offset: 0xAA236, size: 0x8, addend: 0x0, symName: __RNvXsp_NtCsfvfooZQ3Axs_4core6resultINtB5_6ResultNtNtNtCsf44oge9wsd6_12snafu_derive5parse2kw5chainNtNtCs5AlOhPCr03V_3syn5error5ErrorEINtNtNtB7_3ops9try_trait12FromResidualIBy_NtNtB7_7convert10InfallibleB1x_EE13from_residualBQ_, symObjAddr: 0x5D9C, symBinAddr: 0x3C5C8, symSize: 0x40 }
  - { offset: 0xAA2BB, size: 0x8, addend: 0x0, symName: __RNvXsp_NtCsfvfooZQ3Axs_4core6resultINtB5_6ResultNtNtNtCsf44oge9wsd6_12snafu_derive5parse2kw6moduleNtNtCs5AlOhPCr03V_3syn5error5ErrorEINtNtNtB7_3ops9try_trait12FromResidualIBy_NtNtB7_7convert10InfallibleB1y_EE13from_residualBQ_, symObjAddr: 0x5DDC, symBinAddr: 0x3C608, symSize: 0x40 }
  - { offset: 0xAA340, size: 0x8, addend: 0x0, symName: __RNvXsp_NtCsfvfooZQ3Axs_4core6resultINtB5_6ResultNtNtNtCsf44oge9wsd6_12snafu_derive5parse2kw6sourceNtNtCs5AlOhPCr03V_3syn5error5ErrorEINtNtNtB7_3ops9try_trait12FromResidualIBy_NtNtB7_7convert10InfallibleB1y_EE13from_residualBQ_, symObjAddr: 0x5E1C, symBinAddr: 0x3C648, symSize: 0x40 }
  - { offset: 0xAA3C5, size: 0x8, addend: 0x0, symName: __RNvXsp_NtCsfvfooZQ3Axs_4core6resultINtB5_6ResultNtNtNtCsf44oge9wsd6_12snafu_derive5parse2kw6suffixNtNtCs5AlOhPCr03V_3syn5error5ErrorEINtNtNtB7_3ops9try_trait12FromResidualIBy_NtNtB7_7convert10InfallibleB1y_EE13from_residualBQ_, symObjAddr: 0x5E5C, symBinAddr: 0x3C688, symSize: 0x40 }
  - { offset: 0xAA44A, size: 0x8, addend: 0x0, symName: __RNvXsp_NtCsfvfooZQ3Axs_4core6resultINtB5_6ResultNtNtNtCsf44oge9wsd6_12snafu_derive5parse2kw7contextNtNtCs5AlOhPCr03V_3syn5error5ErrorEINtNtNtB7_3ops9try_trait12FromResidualIBy_NtNtB7_7convert10InfallibleB1z_EE13from_residualBQ_, symObjAddr: 0x5E9C, symBinAddr: 0x3C6C8, symSize: 0x40 }
  - { offset: 0xAA4CF, size: 0x8, addend: 0x0, symName: __RNvXsp_NtCsfvfooZQ3Axs_4core6resultINtB5_6ResultNtNtNtCsf44oge9wsd6_12snafu_derive5parse2kw7displayNtNtCs5AlOhPCr03V_3syn5error5ErrorEINtNtNtB7_3ops9try_trait12FromResidualIBy_NtNtB7_7convert10InfallibleB1z_EE13from_residualBQ_, symObjAddr: 0x5EDC, symBinAddr: 0x3C708, symSize: 0x40 }
  - { offset: 0xAA554, size: 0x8, addend: 0x0, symName: __RNvXsp_NtCsfvfooZQ3Axs_4core6resultINtB5_6ResultNtNtNtCsf44oge9wsd6_12snafu_derive5parse2kw7provideNtNtCs5AlOhPCr03V_3syn5error5ErrorEINtNtNtB7_3ops9try_trait12FromResidualIBy_NtNtB7_7convert10InfallibleB1z_EE13from_residualBQ_, symObjAddr: 0x5F1C, symBinAddr: 0x3C748, symSize: 0x40 }
  - { offset: 0xAA5D9, size: 0x8, addend: 0x0, symName: __RNvXsp_NtCsfvfooZQ3Axs_4core6resultINtB5_6ResultNtNtNtCsf44oge9wsd6_12snafu_derive5parse2kw8implicitNtNtCs5AlOhPCr03V_3syn5error5ErrorEINtNtNtB7_3ops9try_trait12FromResidualIBy_NtNtB7_7convert10InfallibleB1A_EE13from_residualBQ_, symObjAddr: 0x5F5C, symBinAddr: 0x3C788, symSize: 0x40 }
  - { offset: 0xAA65E, size: 0x8, addend: 0x0, symName: __RNvXsp_NtCsfvfooZQ3Axs_4core6resultINtB5_6ResultNtNtNtCsf44oge9wsd6_12snafu_derive5parse2kw8priorityNtNtCs5AlOhPCr03V_3syn5error5ErrorEINtNtNtB7_3ops9try_trait12FromResidualIBy_NtNtB7_7convert10InfallibleB1A_EE13from_residualBQ_, symObjAddr: 0x5F9C, symBinAddr: 0x3C7C8, symSize: 0x40 }
  - { offset: 0xAA6E3, size: 0x8, addend: 0x0, symName: __RNvXsp_NtCsfvfooZQ3Axs_4core6resultINtB5_6ResultNtNtNtCsf44oge9wsd6_12snafu_derive5parse2kw8whateverNtNtCs5AlOhPCr03V_3syn5error5ErrorEINtNtNtB7_3ops9try_trait12FromResidualIBy_NtNtB7_7convert10InfallibleB1A_EE13from_residualBQ_, symObjAddr: 0x5FDC, symBinAddr: 0x3C808, symSize: 0x40 }
  - { offset: 0xAA768, size: 0x8, addend: 0x0, symName: __RNvXsp_NtCsfvfooZQ3Axs_4core6resultINtB5_6ResultNtNtNtCsf44oge9wsd6_12snafu_derive5parse2kw9backtraceNtNtCs5AlOhPCr03V_3syn5error5ErrorEINtNtNtB7_3ops9try_trait12FromResidualIBy_NtNtB7_7convert10InfallibleB1B_EE13from_residualBQ_, symObjAddr: 0x601C, symBinAddr: 0x3C848, symSize: 0x40 }
  - { offset: 0xAC95E, size: 0x8, addend: 0x0, symName: __RNvXs7_NtNtCsfvfooZQ3Axs_4core3str7patternINtB5_18MultiCharEqPatternNCNvMB7_e4trim0ENtB5_7Pattern13into_searcherCsf44oge9wsd6_12snafu_derive, symObjAddr: 0x28C8, symBinAddr: 0x390F4, symSize: 0x90 }
  - { offset: 0xAC9C0, size: 0x8, addend: 0x0, symName: __RNvXs8_NtNtCsfvfooZQ3Axs_4core3str7patternINtB5_19MultiCharEqSearcherNCNvMB7_e4trim0ENtB5_8Searcher4nextCsf44oge9wsd6_12snafu_derive, symObjAddr: 0x2958, symBinAddr: 0x39184, symSize: 0x13C }
  - { offset: 0xACAE6, size: 0x8, addend: 0x0, symName: __RNvXs9_NtNtCsfvfooZQ3Axs_4core3str7patternINtB5_19MultiCharEqSearcherNCNvMB7_e4trim0ENtB5_15ReverseSearcher9next_backCsf44oge9wsd6_12snafu_derive, symObjAddr: 0x2A94, symBinAddr: 0x392C0, symSize: 0x13C }
  - { offset: 0xACC0C, size: 0x8, addend: 0x0, symName: __RNvXso_NtNtCsfvfooZQ3Axs_4core3str7patternINtB5_21CharPredicateSearcherNCNvMB7_e4trim0ENtB5_8Searcher11next_rejectCsf44oge9wsd6_12snafu_derive, symObjAddr: 0x54B4, symBinAddr: 0x3BCE0, symSize: 0x24 }
  - { offset: 0xACC49, size: 0x8, addend: 0x0, symName: __RNvXsp_NtNtCsfvfooZQ3Axs_4core3str7patternINtB5_21CharPredicateSearcherNCNvMB7_e4trim0ENtB5_15ReverseSearcher16next_reject_backCsf44oge9wsd6_12snafu_derive, symObjAddr: 0x605C, symBinAddr: 0x3C888, symSize: 0x24 }
  - { offset: 0xACC86, size: 0x8, addend: 0x0, symName: __RNvXst_NtNtCsfvfooZQ3Axs_4core3str7patternReNtB5_7Pattern13into_searcherCsf44oge9wsd6_12snafu_derive, symObjAddr: 0x6080, symBinAddr: 0x3C8AC, symSize: 0x4C }
  - { offset: 0xACCC9, size: 0x8, addend: 0x0, symName: __RNvXsw_NtNtCsfvfooZQ3Axs_4core3str7patternNtB5_11StrSearcherNtB5_15ReverseSearcher9next_backCsf44oge9wsd6_12snafu_derive, symObjAddr: 0x60CC, symBinAddr: 0x3C8F8, symSize: 0x42C }
  - { offset: 0xACFB4, size: 0x8, addend: 0x0, symName: __RNvXsz_NtNtCsfvfooZQ3Axs_4core3str7patternNtB5_14RejectAndMatchNtB5_14TwoWayStrategy16use_early_rejectCsf44oge9wsd6_12snafu_derive, symObjAddr: 0x64F8, symBinAddr: 0x3CD24, symSize: 0xC }
  - { offset: 0xACFD2, size: 0x8, addend: 0x0, symName: __RNvXsz_NtNtCsfvfooZQ3Axs_4core3str7patternNtB5_14RejectAndMatchNtB5_14TwoWayStrategy8matchingCsf44oge9wsd6_12snafu_derive, symObjAddr: 0x6504, symBinAddr: 0x3CD30, symSize: 0x20 }
  - { offset: 0xAD00F, size: 0x8, addend: 0x0, symName: __RNvXsz_NtNtCsfvfooZQ3Axs_4core3str7patternNtB5_14RejectAndMatchNtB5_14TwoWayStrategy9rejectingCsf44oge9wsd6_12snafu_derive, symObjAddr: 0x6524, symBinAddr: 0x3CD50, symSize: 0x28 }
  - { offset: 0xAD052, size: 0x8, addend: 0x0, symName: __RNvYINtNtNtCsfvfooZQ3Axs_4core3str7pattern19MultiCharEqSearcherNCNvMB7_e4trim0ENtB5_15ReverseSearcher16next_reject_backCsf44oge9wsd6_12snafu_derive, symObjAddr: 0x654C, symBinAddr: 0x3CD78, symSize: 0x90 }
  - { offset: 0xAD0B7, size: 0x8, addend: 0x0, symName: __RNvYNtNtNtCsfvfooZQ3Axs_4core3str7pattern11StrSearcherNtB4_15ReverseSearcher16next_reject_backCsf44oge9wsd6_12snafu_derive, symObjAddr: 0x666C, symBinAddr: 0x3CE98, symSize: 0x90 }
  - { offset: 0xAD122, size: 0x8, addend: 0x0, symName: __RNvYINtNtNtCsfvfooZQ3Axs_4core3str7pattern19MultiCharEqSearcherNCNvMB7_e4trim0ENtB5_8Searcher11next_rejectCsf44oge9wsd6_12snafu_derive, symObjAddr: 0x65DC, symBinAddr: 0x3CE08, symSize: 0x90 }
  - { offset: 0xAD5E1, size: 0x8, addend: 0x0, symName: __RNCINvNvXs_NtNtNtCsfvfooZQ3Axs_4core4iter8adapters9enumerateINtB9_9EnumeratepENtNtNtBd_6traits8iterator8Iterator4fold9enumerateRNtCsf44oge9wsd6_12snafu_derive7ProvideuNCINvNtBb_3map8map_foldTjB21_ENtNtNtB24_6shared5error11ProvidePlusuNCNvB3b_21enhance_provider_list0NCINvNvB1e_8for_each4callB39_NCINvMsi_NtCse1nGBsou5OW_5alloc3vecINtB4S_3VecB39_E14extend_trustedINtB2K_3MapIBX_INtNtNtBf_5slice4iter4IterB22_EEB3K_EE0E0E0E0B24_, symObjAddr: 0x1B6C, symBinAddr: 0x38698, symSize: 0x8C }
  - { offset: 0xAD66B, size: 0x8, addend: 0x0, symName: __RINvXs_NtNtNtCsfvfooZQ3Axs_4core4iter8adapters9enumerateINtB5_9EnumerateINtNtNtBb_5slice4iter4IterNtCsf44oge9wsd6_12snafu_derive7ProvideEENtNtNtB9_6traits8iterator8Iterator4folduNCINvNtB7_3map8map_foldTjRB1y_ENtNtNtB1A_6shared5error11ProvidePlusuNCNvB3n_21enhance_provider_list0NCINvNvB2c_8for_each4callB3l_NCINvMsi_NtCse1nGBsou5OW_5alloc3vecINtB54_3VecB3l_E14extend_trustedINtB2V_3MapBS_B3W_EE0E0E0EB1A_, symObjAddr: 0x19A8, symBinAddr: 0x384D4, symSize: 0x4C }
  - { offset: 0xAD6F2, size: 0x8, addend: 0x0, symName: __RNvXs_NtNtNtCsfvfooZQ3Axs_4core4iter8adapters9enumerateINtB4_9EnumerateINtNtNtBa_5slice4iter4IterNtCs3cP53eQoTwO_11proc_macro25IdentEENtNtNtB8_6traits8iterator8Iterator4nextCsf44oge9wsd6_12snafu_derive, symObjAddr: 0x2E94, symBinAddr: 0x396C0, symSize: 0xE0 }
  - { offset: 0xAD7CC, size: 0x8, addend: 0x0, symName: __RNvXs_NtNtNtCsfvfooZQ3Axs_4core4iter8adapters9enumerateINtB4_9EnumerateINtNtNtBa_5slice4iter4IterNtCsf44oge9wsd6_12snafu_derive7ProvideEENtNtNtB8_6traits8iterator8Iterator9size_hintB1z_, symObjAddr: 0x2F74, symBinAddr: 0x397A0, symSize: 0x24 }
  - { offset: 0xAD801, size: 0x8, addend: 0x0, symName: __RNvXs_NtNtNtCsfvfooZQ3Axs_4core4iter8adapters9enumerateINtB4_9EnumerateINtNtNtBa_5slice4iter4IterRNtCs3cP53eQoTwO_11proc_macro25IdentEENtNtNtB8_6traits8iterator8Iterator4nextCsf44oge9wsd6_12snafu_derive, symObjAddr: 0x2F98, symBinAddr: 0x397C4, symSize: 0xE0 }
  - { offset: 0xAD9EE, size: 0x8, addend: 0x0, symName: __RNvXsA_NtNtNtCsfvfooZQ3Axs_4core4iter8adapters7flattenINtNtBb_6result6ResultNtCsf44oge9wsd6_12snafu_derive14FieldContaineruENtB5_21ConstSizeIntoIterator4sizeB1e_, symObjAddr: 0x2BD0, symBinAddr: 0x393FC, symSize: 0x18 }
  - { offset: 0xADA6E, size: 0x8, addend: 0x0, symName: __RINvYINtNtNtNtCsfvfooZQ3Axs_4core4iter8adapters9enumerate9EnumerateINtNtNtBc_5slice4iter4IterNtCsf44oge9wsd6_12snafu_derive7ProvideEENtNtNtBa_6traits8iterator8Iterator3mapNtNtNtB1v_6shared5error11ProvidePlusNCNvB2L_21enhance_provider_list0EB1v_, symObjAddr: 0x19F4, symBinAddr: 0x38520, symSize: 0x20 }
  - { offset: 0xAF976, size: 0x8, addend: 0x0, symName: __RNvNvNtNtCsfvfooZQ3Axs_4core4char7convert18from_u32_unchecked18precondition_checkCsf44oge9wsd6_12snafu_derive, symObjAddr: 0x2138, symBinAddr: 0x38964, symSize: 0x98 }
  - { offset: 0xB03B7, size: 0x8, addend: 0x0, symName: __RNvXs_NtNtCsf44oge9wsd6_12snafu_derive5parse2kwNtB4_9backtraceNtNtCs5AlOhPCr03V_3syn5token11CustomToken4peek, symObjAddr: 0x66FC, symBinAddr: 0x3CF28, symSize: 0x134 }
  - { offset: 0xB0407, size: 0x8, addend: 0x0, symName: __RNvXs_NtNtCsf44oge9wsd6_12snafu_derive5parse2kwNtB4_9backtraceNtNtCs5AlOhPCr03V_3syn5token11CustomToken7display, symObjAddr: 0x6830, symBinAddr: 0x3D05C, symSize: 0x24 }
  - { offset: 0xB042A, size: 0x8, addend: 0x0, symName: __RNvXs0_NtNtCsf44oge9wsd6_12snafu_derive5parse2kwNtB5_9backtraceNtNtCs5AlOhPCr03V_3syn5parse5Parse5parse, symObjAddr: 0x6854, symBinAddr: 0x3D080, symSize: 0x34 }
  - { offset: 0xB045B, size: 0x8, addend: 0x0, symName: __RNCNvXs0_NtNtCsf44oge9wsd6_12snafu_derive5parse2kwNtB7_9backtraceNtNtCs5AlOhPCr03V_3syn5parse5Parse5parse0Bb_, symObjAddr: 0x6888, symBinAddr: 0x3D0B4, symSize: 0x1F8 }
  - { offset: 0xB04C7, size: 0x8, addend: 0x0, symName: __RNvXs1_NtNtCsf44oge9wsd6_12snafu_derive5parse2kwNtB5_9backtraceNtNtCs2cqEZUIJimJ_5quote9to_tokens8ToTokens9to_tokens, symObjAddr: 0x6A80, symBinAddr: 0x3D2AC, symSize: 0x6C }
  - { offset: 0xB0520, size: 0x8, addend: 0x0, symName: __RNvXs9_NtNtCsf44oge9wsd6_12snafu_derive5parse2kwNtB5_7contextNtNtCs5AlOhPCr03V_3syn5token11CustomToken4peek, symObjAddr: 0x6AEC, symBinAddr: 0x3D318, symSize: 0x134 }
  - { offset: 0xB0570, size: 0x8, addend: 0x0, symName: __RNvXs9_NtNtCsf44oge9wsd6_12snafu_derive5parse2kwNtB5_7contextNtNtCs5AlOhPCr03V_3syn5token11CustomToken7display, symObjAddr: 0x6C20, symBinAddr: 0x3D44C, symSize: 0x24 }
  - { offset: 0xB0593, size: 0x8, addend: 0x0, symName: __RNvXsa_NtNtCsf44oge9wsd6_12snafu_derive5parse2kwNtB5_7contextNtNtCs5AlOhPCr03V_3syn5parse5Parse5parse, symObjAddr: 0x6C44, symBinAddr: 0x3D470, symSize: 0x34 }
  - { offset: 0xB05C4, size: 0x8, addend: 0x0, symName: __RNCNvXsa_NtNtCsf44oge9wsd6_12snafu_derive5parse2kwNtB7_7contextNtNtCs5AlOhPCr03V_3syn5parse5Parse5parse0Bb_, symObjAddr: 0x6C78, symBinAddr: 0x3D4A4, symSize: 0x1F8 }
  - { offset: 0xB0630, size: 0x8, addend: 0x0, symName: __RNvXsb_NtNtCsf44oge9wsd6_12snafu_derive5parse2kwNtB5_7contextNtNtCs2cqEZUIJimJ_5quote9to_tokens8ToTokens9to_tokens, symObjAddr: 0x6E70, symBinAddr: 0x3D69C, symSize: 0x6C }
  - { offset: 0xB0689, size: 0x8, addend: 0x0, symName: __RNvXsj_NtNtCsf44oge9wsd6_12snafu_derive5parse2kwNtB5_10crate_rootNtNtCs5AlOhPCr03V_3syn5token11CustomToken4peek, symObjAddr: 0x6EDC, symBinAddr: 0x3D708, symSize: 0x134 }
  - { offset: 0xB06D9, size: 0x8, addend: 0x0, symName: __RNvXsj_NtNtCsf44oge9wsd6_12snafu_derive5parse2kwNtB5_10crate_rootNtNtCs5AlOhPCr03V_3syn5token11CustomToken7display, symObjAddr: 0x7010, symBinAddr: 0x3D83C, symSize: 0x24 }
  - { offset: 0xB06FC, size: 0x8, addend: 0x0, symName: __RNvXsk_NtNtCsf44oge9wsd6_12snafu_derive5parse2kwNtB5_10crate_rootNtNtCs5AlOhPCr03V_3syn5parse5Parse5parse, symObjAddr: 0x7034, symBinAddr: 0x3D860, symSize: 0x34 }
  - { offset: 0xB072D, size: 0x8, addend: 0x0, symName: __RNCNvXsk_NtNtCsf44oge9wsd6_12snafu_derive5parse2kwNtB7_10crate_rootNtNtCs5AlOhPCr03V_3syn5parse5Parse5parse0Bb_, symObjAddr: 0x7068, symBinAddr: 0x3D894, symSize: 0x1F8 }
  - { offset: 0xB0799, size: 0x8, addend: 0x0, symName: __RNvXsl_NtNtCsf44oge9wsd6_12snafu_derive5parse2kwNtB5_10crate_rootNtNtCs2cqEZUIJimJ_5quote9to_tokens8ToTokens9to_tokens, symObjAddr: 0x7260, symBinAddr: 0x3DA8C, symSize: 0x6C }
  - { offset: 0xB07F2, size: 0x8, addend: 0x0, symName: __RNvXst_NtNtCsf44oge9wsd6_12snafu_derive5parse2kwNtB5_7displayNtNtCs5AlOhPCr03V_3syn5token11CustomToken4peek, symObjAddr: 0x72CC, symBinAddr: 0x3DAF8, symSize: 0x134 }
  - { offset: 0xB0842, size: 0x8, addend: 0x0, symName: __RNvXst_NtNtCsf44oge9wsd6_12snafu_derive5parse2kwNtB5_7displayNtNtCs5AlOhPCr03V_3syn5token11CustomToken7display, symObjAddr: 0x7400, symBinAddr: 0x3DC2C, symSize: 0x24 }
  - { offset: 0xB0865, size: 0x8, addend: 0x0, symName: __RNvXsu_NtNtCsf44oge9wsd6_12snafu_derive5parse2kwNtB5_7displayNtNtCs5AlOhPCr03V_3syn5parse5Parse5parse, symObjAddr: 0x7424, symBinAddr: 0x3DC50, symSize: 0x34 }
  - { offset: 0xB0896, size: 0x8, addend: 0x0, symName: __RNCNvXsu_NtNtCsf44oge9wsd6_12snafu_derive5parse2kwNtB7_7displayNtNtCs5AlOhPCr03V_3syn5parse5Parse5parse0Bb_, symObjAddr: 0x7458, symBinAddr: 0x3DC84, symSize: 0x1F8 }
  - { offset: 0xB0902, size: 0x8, addend: 0x0, symName: __RNvXsv_NtNtCsf44oge9wsd6_12snafu_derive5parse2kwNtB5_7displayNtNtCs2cqEZUIJimJ_5quote9to_tokens8ToTokens9to_tokens, symObjAddr: 0x7650, symBinAddr: 0x3DE7C, symSize: 0x6C }
  - { offset: 0xB095B, size: 0x8, addend: 0x0, symName: __RNvXsD_NtNtCsf44oge9wsd6_12snafu_derive5parse2kwNtB5_8implicitNtNtCs5AlOhPCr03V_3syn5token11CustomToken4peek, symObjAddr: 0x76BC, symBinAddr: 0x3DEE8, symSize: 0x134 }
  - { offset: 0xB09AB, size: 0x8, addend: 0x0, symName: __RNvXsD_NtNtCsf44oge9wsd6_12snafu_derive5parse2kwNtB5_8implicitNtNtCs5AlOhPCr03V_3syn5token11CustomToken7display, symObjAddr: 0x77F0, symBinAddr: 0x3E01C, symSize: 0x24 }
  - { offset: 0xB09CE, size: 0x8, addend: 0x0, symName: __RNvXsE_NtNtCsf44oge9wsd6_12snafu_derive5parse2kwNtB5_8implicitNtNtCs5AlOhPCr03V_3syn5parse5Parse5parse, symObjAddr: 0x7814, symBinAddr: 0x3E040, symSize: 0x34 }
  - { offset: 0xB09FF, size: 0x8, addend: 0x0, symName: __RNCNvXsE_NtNtCsf44oge9wsd6_12snafu_derive5parse2kwNtB7_8implicitNtNtCs5AlOhPCr03V_3syn5parse5Parse5parse0Bb_, symObjAddr: 0x7848, symBinAddr: 0x3E074, symSize: 0x1F8 }
  - { offset: 0xB0A6B, size: 0x8, addend: 0x0, symName: __RNvXsF_NtNtCsf44oge9wsd6_12snafu_derive5parse2kwNtB5_8implicitNtNtCs2cqEZUIJimJ_5quote9to_tokens8ToTokens9to_tokens, symObjAddr: 0x7A40, symBinAddr: 0x3E26C, symSize: 0x6C }
  - { offset: 0xB0AC4, size: 0x8, addend: 0x0, symName: __RNvXsN_NtNtCsf44oge9wsd6_12snafu_derive5parse2kwNtB5_6moduleNtNtCs5AlOhPCr03V_3syn5token11CustomToken4peek, symObjAddr: 0x7AAC, symBinAddr: 0x3E2D8, symSize: 0x134 }
  - { offset: 0xB0B14, size: 0x8, addend: 0x0, symName: __RNvXsN_NtNtCsf44oge9wsd6_12snafu_derive5parse2kwNtB5_6moduleNtNtCs5AlOhPCr03V_3syn5token11CustomToken7display, symObjAddr: 0x7BE0, symBinAddr: 0x3E40C, symSize: 0x24 }
  - { offset: 0xB0B37, size: 0x8, addend: 0x0, symName: __RNvXsO_NtNtCsf44oge9wsd6_12snafu_derive5parse2kwNtB5_6moduleNtNtCs5AlOhPCr03V_3syn5parse5Parse5parse, symObjAddr: 0x7C04, symBinAddr: 0x3E430, symSize: 0x34 }
  - { offset: 0xB0B68, size: 0x8, addend: 0x0, symName: __RNCNvXsO_NtNtCsf44oge9wsd6_12snafu_derive5parse2kwNtB7_6moduleNtNtCs5AlOhPCr03V_3syn5parse5Parse5parse0Bb_, symObjAddr: 0x7C38, symBinAddr: 0x3E464, symSize: 0x1F8 }
  - { offset: 0xB0BD4, size: 0x8, addend: 0x0, symName: __RNvXsP_NtNtCsf44oge9wsd6_12snafu_derive5parse2kwNtB5_6moduleNtNtCs2cqEZUIJimJ_5quote9to_tokens8ToTokens9to_tokens, symObjAddr: 0x7E30, symBinAddr: 0x3E65C, symSize: 0x6C }
  - { offset: 0xB0C2D, size: 0x8, addend: 0x0, symName: __RNvXsX_NtNtCsf44oge9wsd6_12snafu_derive5parse2kwNtB5_7provideNtNtCs5AlOhPCr03V_3syn5token11CustomToken4peek, symObjAddr: 0x7E9C, symBinAddr: 0x3E6C8, symSize: 0x134 }
  - { offset: 0xB0C7D, size: 0x8, addend: 0x0, symName: __RNvXsX_NtNtCsf44oge9wsd6_12snafu_derive5parse2kwNtB5_7provideNtNtCs5AlOhPCr03V_3syn5token11CustomToken7display, symObjAddr: 0x7FD0, symBinAddr: 0x3E7FC, symSize: 0x24 }
  - { offset: 0xB0CA0, size: 0x8, addend: 0x0, symName: __RNvXsY_NtNtCsf44oge9wsd6_12snafu_derive5parse2kwNtB5_7provideNtNtCs5AlOhPCr03V_3syn5parse5Parse5parse, symObjAddr: 0x7FF4, symBinAddr: 0x3E820, symSize: 0x34 }
  - { offset: 0xB0CD1, size: 0x8, addend: 0x0, symName: __RNCNvXsY_NtNtCsf44oge9wsd6_12snafu_derive5parse2kwNtB7_7provideNtNtCs5AlOhPCr03V_3syn5parse5Parse5parse0Bb_, symObjAddr: 0x8028, symBinAddr: 0x3E854, symSize: 0x1F8 }
  - { offset: 0xB0D3D, size: 0x8, addend: 0x0, symName: __RNvXsZ_NtNtCsf44oge9wsd6_12snafu_derive5parse2kwNtB5_7provideNtNtCs2cqEZUIJimJ_5quote9to_tokens8ToTokens9to_tokens, symObjAddr: 0x8220, symBinAddr: 0x3EA4C, symSize: 0x6C }
  - { offset: 0xB0D96, size: 0x8, addend: 0x0, symName: __RNvXs17_NtNtCsf44oge9wsd6_12snafu_derive5parse2kwNtB6_6sourceNtNtCs5AlOhPCr03V_3syn5token11CustomToken4peek, symObjAddr: 0x828C, symBinAddr: 0x3EAB8, symSize: 0x134 }
  - { offset: 0xB0DE6, size: 0x8, addend: 0x0, symName: __RNvXs17_NtNtCsf44oge9wsd6_12snafu_derive5parse2kwNtB6_6sourceNtNtCs5AlOhPCr03V_3syn5token11CustomToken7display, symObjAddr: 0x83C0, symBinAddr: 0x3EBEC, symSize: 0x24 }
  - { offset: 0xB0E09, size: 0x8, addend: 0x0, symName: __RNvXs18_NtNtCsf44oge9wsd6_12snafu_derive5parse2kwNtB6_6sourceNtNtCs5AlOhPCr03V_3syn5parse5Parse5parse, symObjAddr: 0x83E4, symBinAddr: 0x3EC10, symSize: 0x34 }
  - { offset: 0xB0E3A, size: 0x8, addend: 0x0, symName: __RNCNvXs18_NtNtCsf44oge9wsd6_12snafu_derive5parse2kwNtB8_6sourceNtNtCs5AlOhPCr03V_3syn5parse5Parse5parse0Bc_, symObjAddr: 0x8418, symBinAddr: 0x3EC44, symSize: 0x1F8 }
  - { offset: 0xB0EA6, size: 0x8, addend: 0x0, symName: __RNvXs19_NtNtCsf44oge9wsd6_12snafu_derive5parse2kwNtB6_6sourceNtNtCs2cqEZUIJimJ_5quote9to_tokens8ToTokens9to_tokens, symObjAddr: 0x8610, symBinAddr: 0x3EE3C, symSize: 0x6C }
  - { offset: 0xB0EFF, size: 0x8, addend: 0x0, symName: __RNvXs1h_NtNtCsf44oge9wsd6_12snafu_derive5parse2kwNtB6_10visibilityNtNtCs5AlOhPCr03V_3syn5token11CustomToken4peek, symObjAddr: 0x867C, symBinAddr: 0x3EEA8, symSize: 0x134 }
  - { offset: 0xB0F4F, size: 0x8, addend: 0x0, symName: __RNvXs1h_NtNtCsf44oge9wsd6_12snafu_derive5parse2kwNtB6_10visibilityNtNtCs5AlOhPCr03V_3syn5token11CustomToken7display, symObjAddr: 0x87B0, symBinAddr: 0x3EFDC, symSize: 0x24 }
  - { offset: 0xB0F72, size: 0x8, addend: 0x0, symName: __RNvXs1i_NtNtCsf44oge9wsd6_12snafu_derive5parse2kwNtB6_10visibilityNtNtCs5AlOhPCr03V_3syn5parse5Parse5parse, symObjAddr: 0x87D4, symBinAddr: 0x3F000, symSize: 0x34 }
  - { offset: 0xB0FA3, size: 0x8, addend: 0x0, symName: __RNCNvXs1i_NtNtCsf44oge9wsd6_12snafu_derive5parse2kwNtB8_10visibilityNtNtCs5AlOhPCr03V_3syn5parse5Parse5parse0Bc_, symObjAddr: 0x8808, symBinAddr: 0x3F034, symSize: 0x1F8 }
  - { offset: 0xB100F, size: 0x8, addend: 0x0, symName: __RNvXs1j_NtNtCsf44oge9wsd6_12snafu_derive5parse2kwNtB6_10visibilityNtNtCs2cqEZUIJimJ_5quote9to_tokens8ToTokens9to_tokens, symObjAddr: 0x8A00, symBinAddr: 0x3F22C, symSize: 0x6C }
  - { offset: 0xB1068, size: 0x8, addend: 0x0, symName: __RNvXs1r_NtNtCsf44oge9wsd6_12snafu_derive5parse2kwNtB6_8whateverNtNtCs5AlOhPCr03V_3syn5token11CustomToken4peek, symObjAddr: 0x8A6C, symBinAddr: 0x3F298, symSize: 0x134 }
  - { offset: 0xB10B8, size: 0x8, addend: 0x0, symName: __RNvXs1r_NtNtCsf44oge9wsd6_12snafu_derive5parse2kwNtB6_8whateverNtNtCs5AlOhPCr03V_3syn5token11CustomToken7display, symObjAddr: 0x8BA0, symBinAddr: 0x3F3CC, symSize: 0x24 }
  - { offset: 0xB10DB, size: 0x8, addend: 0x0, symName: __RNvXs1s_NtNtCsf44oge9wsd6_12snafu_derive5parse2kwNtB6_8whateverNtNtCs5AlOhPCr03V_3syn5parse5Parse5parse, symObjAddr: 0x8BC4, symBinAddr: 0x3F3F0, symSize: 0x34 }
  - { offset: 0xB110C, size: 0x8, addend: 0x0, symName: __RNCNvXs1s_NtNtCsf44oge9wsd6_12snafu_derive5parse2kwNtB8_8whateverNtNtCs5AlOhPCr03V_3syn5parse5Parse5parse0Bc_, symObjAddr: 0x8BF8, symBinAddr: 0x3F424, symSize: 0x1F8 }
  - { offset: 0xB1178, size: 0x8, addend: 0x0, symName: __RNvXs1t_NtNtCsf44oge9wsd6_12snafu_derive5parse2kwNtB6_8whateverNtNtCs2cqEZUIJimJ_5quote9to_tokens8ToTokens9to_tokens, symObjAddr: 0x8DF0, symBinAddr: 0x3F61C, symSize: 0x6C }
  - { offset: 0xB11D1, size: 0x8, addend: 0x0, symName: __RNvXs1B_NtNtCsf44oge9wsd6_12snafu_derive5parse2kwNtB6_4fromNtNtCs5AlOhPCr03V_3syn5token11CustomToken4peek, symObjAddr: 0x8E5C, symBinAddr: 0x3F688, symSize: 0x134 }
  - { offset: 0xB1221, size: 0x8, addend: 0x0, symName: __RNvXs1B_NtNtCsf44oge9wsd6_12snafu_derive5parse2kwNtB6_4fromNtNtCs5AlOhPCr03V_3syn5token11CustomToken7display, symObjAddr: 0x8F90, symBinAddr: 0x3F7BC, symSize: 0x24 }
  - { offset: 0xB1244, size: 0x8, addend: 0x0, symName: __RNvXs1C_NtNtCsf44oge9wsd6_12snafu_derive5parse2kwNtB6_4fromNtNtCs5AlOhPCr03V_3syn5parse5Parse5parse, symObjAddr: 0x8FB4, symBinAddr: 0x3F7E0, symSize: 0x34 }
  - { offset: 0xB1275, size: 0x8, addend: 0x0, symName: __RNCNvXs1C_NtNtCsf44oge9wsd6_12snafu_derive5parse2kwNtB8_4fromNtNtCs5AlOhPCr03V_3syn5parse5Parse5parse0Bc_, symObjAddr: 0x8FE8, symBinAddr: 0x3F814, symSize: 0x1F8 }
  - { offset: 0xB12E1, size: 0x8, addend: 0x0, symName: __RNvXs1D_NtNtCsf44oge9wsd6_12snafu_derive5parse2kwNtB6_4fromNtNtCs2cqEZUIJimJ_5quote9to_tokens8ToTokens9to_tokens, symObjAddr: 0x91E0, symBinAddr: 0x3FA0C, symSize: 0x6C }
  - { offset: 0xB133A, size: 0x8, addend: 0x0, symName: __RNvXs1L_NtNtCsf44oge9wsd6_12snafu_derive5parse2kwNtB6_6suffixNtNtCs5AlOhPCr03V_3syn5token11CustomToken4peek, symObjAddr: 0x924C, symBinAddr: 0x3FA78, symSize: 0x134 }
  - { offset: 0xB138A, size: 0x8, addend: 0x0, symName: __RNvXs1L_NtNtCsf44oge9wsd6_12snafu_derive5parse2kwNtB6_6suffixNtNtCs5AlOhPCr03V_3syn5token11CustomToken7display, symObjAddr: 0x9380, symBinAddr: 0x3FBAC, symSize: 0x24 }
  - { offset: 0xB13AD, size: 0x8, addend: 0x0, symName: __RNvXs1M_NtNtCsf44oge9wsd6_12snafu_derive5parse2kwNtB6_6suffixNtNtCs5AlOhPCr03V_3syn5parse5Parse5parse, symObjAddr: 0x93A4, symBinAddr: 0x3FBD0, symSize: 0x34 }
  - { offset: 0xB13DE, size: 0x8, addend: 0x0, symName: __RNCNvXs1M_NtNtCsf44oge9wsd6_12snafu_derive5parse2kwNtB8_6suffixNtNtCs5AlOhPCr03V_3syn5parse5Parse5parse0Bc_, symObjAddr: 0x93D8, symBinAddr: 0x3FC04, symSize: 0x1F8 }
  - { offset: 0xB144A, size: 0x8, addend: 0x0, symName: __RNvXs1N_NtNtCsf44oge9wsd6_12snafu_derive5parse2kwNtB6_6suffixNtNtCs2cqEZUIJimJ_5quote9to_tokens8ToTokens9to_tokens, symObjAddr: 0x95D0, symBinAddr: 0x3FDFC, symSize: 0x6C }
  - { offset: 0xB14A3, size: 0x8, addend: 0x0, symName: __RNvXs1V_NtNtCsf44oge9wsd6_12snafu_derive5parse2kwNtB6_5chainNtNtCs5AlOhPCr03V_3syn5token11CustomToken4peek, symObjAddr: 0x963C, symBinAddr: 0x3FE68, symSize: 0x134 }
  - { offset: 0xB14F3, size: 0x8, addend: 0x0, symName: __RNvXs1V_NtNtCsf44oge9wsd6_12snafu_derive5parse2kwNtB6_5chainNtNtCs5AlOhPCr03V_3syn5token11CustomToken7display, symObjAddr: 0x9770, symBinAddr: 0x3FF9C, symSize: 0x24 }
  - { offset: 0xB1516, size: 0x8, addend: 0x0, symName: __RNvXs1W_NtNtCsf44oge9wsd6_12snafu_derive5parse2kwNtB6_5chainNtNtCs5AlOhPCr03V_3syn5parse5Parse5parse, symObjAddr: 0x9794, symBinAddr: 0x3FFC0, symSize: 0x34 }
  - { offset: 0xB1547, size: 0x8, addend: 0x0, symName: __RNCNvXs1W_NtNtCsf44oge9wsd6_12snafu_derive5parse2kwNtB8_5chainNtNtCs5AlOhPCr03V_3syn5parse5Parse5parse0Bc_, symObjAddr: 0x97C8, symBinAddr: 0x3FFF4, symSize: 0x1F8 }
  - { offset: 0xB15B3, size: 0x8, addend: 0x0, symName: __RNvXs1X_NtNtCsf44oge9wsd6_12snafu_derive5parse2kwNtB6_5chainNtNtCs2cqEZUIJimJ_5quote9to_tokens8ToTokens9to_tokens, symObjAddr: 0x99C0, symBinAddr: 0x401EC, symSize: 0x6C }
  - { offset: 0xB160C, size: 0x8, addend: 0x0, symName: __RNvXs25_NtNtCsf44oge9wsd6_12snafu_derive5parse2kwNtB6_3optNtNtCs5AlOhPCr03V_3syn5token11CustomToken4peek, symObjAddr: 0x9A2C, symBinAddr: 0x40258, symSize: 0x134 }
  - { offset: 0xB165C, size: 0x8, addend: 0x0, symName: __RNvXs25_NtNtCsf44oge9wsd6_12snafu_derive5parse2kwNtB6_3optNtNtCs5AlOhPCr03V_3syn5token11CustomToken7display, symObjAddr: 0x9B60, symBinAddr: 0x4038C, symSize: 0x24 }
  - { offset: 0xB167F, size: 0x8, addend: 0x0, symName: __RNvXs26_NtNtCsf44oge9wsd6_12snafu_derive5parse2kwNtB6_3optNtNtCs5AlOhPCr03V_3syn5parse5Parse5parse, symObjAddr: 0x9B84, symBinAddr: 0x403B0, symSize: 0x34 }
  - { offset: 0xB16B0, size: 0x8, addend: 0x0, symName: __RNCNvXs26_NtNtCsf44oge9wsd6_12snafu_derive5parse2kwNtB8_3optNtNtCs5AlOhPCr03V_3syn5parse5Parse5parse0Bc_, symObjAddr: 0x9BB8, symBinAddr: 0x403E4, symSize: 0x1F8 }
  - { offset: 0xB171C, size: 0x8, addend: 0x0, symName: __RNvXs27_NtNtCsf44oge9wsd6_12snafu_derive5parse2kwNtB6_3optNtNtCs2cqEZUIJimJ_5quote9to_tokens8ToTokens9to_tokens, symObjAddr: 0x9DB0, symBinAddr: 0x405DC, symSize: 0x6C }
  - { offset: 0xB1775, size: 0x8, addend: 0x0, symName: __RNvXs2f_NtNtCsf44oge9wsd6_12snafu_derive5parse2kwNtB6_8priorityNtNtCs5AlOhPCr03V_3syn5token11CustomToken4peek, symObjAddr: 0x9E1C, symBinAddr: 0x40648, symSize: 0x134 }
  - { offset: 0xB17C5, size: 0x8, addend: 0x0, symName: __RNvXs2f_NtNtCsf44oge9wsd6_12snafu_derive5parse2kwNtB6_8priorityNtNtCs5AlOhPCr03V_3syn5token11CustomToken7display, symObjAddr: 0x9F50, symBinAddr: 0x4077C, symSize: 0x24 }
  - { offset: 0xB17E8, size: 0x8, addend: 0x0, symName: __RNvXs2g_NtNtCsf44oge9wsd6_12snafu_derive5parse2kwNtB6_8priorityNtNtCs5AlOhPCr03V_3syn5parse5Parse5parse, symObjAddr: 0x9F74, symBinAddr: 0x407A0, symSize: 0x34 }
  - { offset: 0xB1819, size: 0x8, addend: 0x0, symName: __RNCNvXs2g_NtNtCsf44oge9wsd6_12snafu_derive5parse2kwNtB8_8priorityNtNtCs5AlOhPCr03V_3syn5parse5Parse5parse0Bc_, symObjAddr: 0x9FA8, symBinAddr: 0x407D4, symSize: 0x1F8 }
  - { offset: 0xB1885, size: 0x8, addend: 0x0, symName: __RNvXs2h_NtNtCsf44oge9wsd6_12snafu_derive5parse2kwNtB6_8priorityNtNtCs2cqEZUIJimJ_5quote9to_tokens8ToTokens9to_tokens, symObjAddr: 0xA1A0, symBinAddr: 0x409CC, symSize: 0x6C }
  - { offset: 0xB2A38, size: 0x8, addend: 0x0, symName: __RINvMNtCs5AlOhPCr03V_3syn4attrNtB3_9Attribute15parse_args_withNvMNtB5_10punctuatedINtB11_10PunctuatedNtNtCsf44oge9wsd6_12snafu_derive5parse9AttributeNtNtB5_5token5CommaE16parse_terminatedEB1F_, symObjAddr: 0x0, symBinAddr: 0x36D3C, symSize: 0x9C }
  - { offset: 0xB2AB1, size: 0x8, addend: 0x0, symName: __RINvMNtCsfvfooZQ3Axs_4core6resultINtB3_6ResultNtCs3cP53eQoTwO_11proc_macro211TokenStreamNtNtCs5AlOhPCr03V_3syn5error5ErrorE14unwrap_or_elseNCNvCsf44oge9wsd6_12snafu_derive6report0EB2h_, symObjAddr: 0x9C, symBinAddr: 0x36DD8, symSize: 0x9C }
  - { offset: 0xB2C2C, size: 0x8, addend: 0x0, symName: __RINvMNtCsfvfooZQ3Axs_4core6resultINtB3_6ResultNtCsf44oge9wsd6_12snafu_derive15NamedStructInfoINtNtCse1nGBsou5OW_5alloc3vec3VecNtNtCs5AlOhPCr03V_3syn5error5ErrorEE3mapNtBK_9SnafuInfoNcNtB2E_11NamedStruct0EBK_, symObjAddr: 0x138, symBinAddr: 0x36E74, symSize: 0xEC }
  - { offset: 0xB2CD7, size: 0x8, addend: 0x0, symName: __RINvMNtCsfvfooZQ3Axs_4core6resultINtB3_6ResultNtCsf44oge9wsd6_12snafu_derive15TupleStructInfoINtNtCse1nGBsou5OW_5alloc3vec3VecNtNtCs5AlOhPCr03V_3syn5error5ErrorEE3mapNtBK_9SnafuInfoNcNtB2E_11TupleStruct0EBK_, symObjAddr: 0x224, symBinAddr: 0x36F60, symSize: 0xE8 }
  - { offset: 0xB2D82, size: 0x8, addend: 0x0, symName: __RINvMNtCsfvfooZQ3Axs_4core6resultINtB3_6ResultNtCsf44oge9wsd6_12snafu_derive8EnumInfoINtNtCse1nGBsou5OW_5alloc3vec3VecNtNtCs5AlOhPCr03V_3syn5error5ErrorEE3mapNtBK_9SnafuInfoNcNtB2w_4Enum0EBK_, symObjAddr: 0x30C, symBinAddr: 0x37048, symSize: 0xE0 }
  - { offset: 0xB2E2D, size: 0x8, addend: 0x0, symName: __RINvMNtCsfvfooZQ3Axs_4core6resultINtB3_6ResultNtNtCs5AlOhPCr03V_3syn5token3RefNtNtBM_5error5ErrorE3mapNtNtCsf44oge9wsd6_12snafu_derive5parse11ProvideFlagNcNtB1C_3Ref0EB1G_, symObjAddr: 0x3EC, symBinAddr: 0x37128, symSize: 0x8C }
  - { offset: 0xB2ED8, size: 0x8, addend: 0x0, symName: __RINvMNtCsfvfooZQ3Axs_4core6resultINtB3_6ResultNtNtCsf44oge9wsd6_12snafu_derive5parse10VisibilityNtNtCs5AlOhPCr03V_3syn5error5ErrorE3mapNtBK_9AttributeNcNtB29_10Visibility0EBM_, symObjAddr: 0x478, symBinAddr: 0x371B4, symSize: 0xDC }
  - { offset: 0xB2F83, size: 0x8, addend: 0x0, symName: __RINvMNtCsfvfooZQ3Axs_4core6resultINtB3_6ResultNtNtCsf44oge9wsd6_12snafu_derive5parse6ModuleNtNtCs5AlOhPCr03V_3syn5error5ErrorE3mapNtBK_9AttributeNcNtB24_6Module0EBM_, symObjAddr: 0x554, symBinAddr: 0x37290, symSize: 0xDC }
  - { offset: 0xB302E, size: 0x8, addend: 0x0, symName: __RINvMNtCsfvfooZQ3Axs_4core6resultINtB3_6ResultNtNtCsf44oge9wsd6_12snafu_derive5parse6SourceNtNtCs5AlOhPCr03V_3syn5error5ErrorE3mapNtBK_9AttributeNcNtB24_6Source0EBM_, symObjAddr: 0x630, symBinAddr: 0x3736C, symSize: 0xE0 }
  - { offset: 0xB30D9, size: 0x8, addend: 0x0, symName: __RINvMNtCsfvfooZQ3Axs_4core6resultINtB3_6ResultNtNtCsf44oge9wsd6_12snafu_derive5parse7ContextNtNtCs5AlOhPCr03V_3syn5error5ErrorE3mapNtBK_9AttributeNcNtB25_7Context0EBM_, symObjAddr: 0x710, symBinAddr: 0x3744C, symSize: 0xDC }
  - { offset: 0xB3184, size: 0x8, addend: 0x0, symName: __RINvMNtCsfvfooZQ3Axs_4core6resultINtB3_6ResultNtNtCsf44oge9wsd6_12snafu_derive5parse7DisplayNtNtCs5AlOhPCr03V_3syn5error5ErrorE3mapNtBK_9AttributeNcNtB25_7Display0EBM_, symObjAddr: 0x7EC, symBinAddr: 0x37528, symSize: 0xE0 }
  - { offset: 0xB322F, size: 0x8, addend: 0x0, symName: __RINvMNtCsfvfooZQ3Axs_4core6resultINtB3_6ResultNtNtCsf44oge9wsd6_12snafu_derive5parse7ProvideNtNtCs5AlOhPCr03V_3syn5error5ErrorE3mapNtBK_9AttributeNcNtB25_7Provide0EBM_, symObjAddr: 0x8CC, symBinAddr: 0x37608, symSize: 0xE4 }
  - { offset: 0xB32DA, size: 0x8, addend: 0x0, symName: __RINvMNtCsfvfooZQ3Axs_4core6resultINtB3_6ResultNtNtCsf44oge9wsd6_12snafu_derive5parse8ImplicitNtNtCs5AlOhPCr03V_3syn5error5ErrorE3mapNtBK_9AttributeNcNtB26_8Implicit0EBM_, symObjAddr: 0x9B0, symBinAddr: 0x376EC, symSize: 0xB4 }
  - { offset: 0xB3385, size: 0x8, addend: 0x0, symName: __RINvMNtCsfvfooZQ3Axs_4core6resultINtB3_6ResultNtNtCsf44oge9wsd6_12snafu_derive5parse8WhateverNtNtCs5AlOhPCr03V_3syn5error5ErrorE3mapNtBK_9AttributeNcNtB26_8Whatever0EBM_, symObjAddr: 0xA64, symBinAddr: 0x377A0, symSize: 0xB4 }
  - { offset: 0xB3430, size: 0x8, addend: 0x0, symName: __RINvMNtCsfvfooZQ3Axs_4core6resultINtB3_6ResultNtNtCsf44oge9wsd6_12snafu_derive5parse9BacktraceNtNtCs5AlOhPCr03V_3syn5error5ErrorE3mapNtBK_9AttributeNcNtB27_9Backtrace0EBM_, symObjAddr: 0xB18, symBinAddr: 0x37854, symSize: 0xB4 }
  - { offset: 0xB34DB, size: 0x8, addend: 0x0, symName: __RINvMNtCsfvfooZQ3Axs_4core6resultINtB3_6ResultNtNtCsf44oge9wsd6_12snafu_derive5parse9CrateRootNtNtCs5AlOhPCr03V_3syn5error5ErrorE3mapNtBK_9AttributeNcNtB27_9CrateRoot0EBM_, symObjAddr: 0xBCC, symBinAddr: 0x37908, symSize: 0xE0 }
  - { offset: 0xB3586, size: 0x8, addend: 0x0, symName: __RINvMNtCsfvfooZQ3Axs_4core6resultINtB3_6ResultNtNtNtCsf44oge9wsd6_12snafu_derive5parse2kw3optNtNtCs5AlOhPCr03V_3syn5error5ErrorE3mapNtBM_11ProvideFlagNcNtB26_3Opt0EBO_, symObjAddr: 0xCAC, symBinAddr: 0x379E8, symSize: 0x8C }
  - { offset: 0xB3631, size: 0x8, addend: 0x0, symName: __RINvMNtCsfvfooZQ3Axs_4core6resultINtB3_6ResultNtNtNtCsf44oge9wsd6_12snafu_derive5parse2kw5chainNtNtCs5AlOhPCr03V_3syn5error5ErrorE3mapNtBM_11ProvideFlagNcNtB28_5Chain0EBO_, symObjAddr: 0xD38, symBinAddr: 0x37A74, symSize: 0x8C }
  - { offset: 0xB36DC, size: 0x8, addend: 0x0, symName: __RINvMNtCsfvfooZQ3Axs_4core6resultINtB3_6ResultNtNtNtCsf44oge9wsd6_12snafu_derive5parse2kw8priorityNtNtCs5AlOhPCr03V_3syn5error5ErrorE3mapNtBM_11ProvideFlagNcNtB2b_8Priority0EBO_, symObjAddr: 0xDC4, symBinAddr: 0x37B00, symSize: 0x8C }
  - { offset: 0xB376F, size: 0x8, addend: 0x0, symName: __RINvMNtCsfvfooZQ3Axs_4core6resultINtB3_6ResultuINtNtCse1nGBsou5OW_5alloc3vec3VecNtNtCs5AlOhPCr03V_3syn5error5ErrorEE3mapIBK_NtCsf44oge9wsd6_12snafu_derive14FieldContainerENCINvMs4_B20_NtB20_12SyntaxErrors6absorbB1U_E0EB20_, symObjAddr: 0xE50, symBinAddr: 0x37B8C, symSize: 0xB4 }
  - { offset: 0xB3837, size: 0x8, addend: 0x0, symName: __RINvMsjb_NtCs5AlOhPCr03V_3syn5tokenNtB7_5Paren8surroundNCNvXs7_NtCsf44oge9wsd6_12snafu_derive5parseNtBZ_10ContextArgNtNtCs2cqEZUIJimJ_5quote9to_tokens8ToTokens9to_tokens0EB11_, symObjAddr: 0xF04, symBinAddr: 0x37C40, symSize: 0x5C }
  - { offset: 0xB38CF, size: 0x8, addend: 0x0, symName: __RINvMsjb_NtCs5AlOhPCr03V_3syn5tokenNtB7_5Paren8surroundNCNvXsF_NtCsf44oge9wsd6_12snafu_derive5parseNtBZ_9SourceArgNtNtCs2cqEZUIJimJ_5quote9to_tokens8ToTokens9to_tokens0EB11_, symObjAddr: 0xF60, symBinAddr: 0x37C9C, symSize: 0x54 }
  - { offset: 0xB3934, size: 0x8, addend: 0x0, symName: __RINvMsjb_NtCs5AlOhPCr03V_3syn5tokenNtB7_5Paren8surroundNCNvXsN_NtCsf44oge9wsd6_12snafu_derive5parseINtBZ_8MaybeArgINtNtB9_10punctuated10PunctuatedNtBZ_9SourceArgNtB7_5CommaEENtNtCs2cqEZUIJimJ_5quote9to_tokens8ToTokens9to_tokens0EB11_, symObjAddr: 0xFB4, symBinAddr: 0x37CF0, symSize: 0x5C }
  - { offset: 0xB3998, size: 0x8, addend: 0x0, symName: __RINvMsjb_NtCs5AlOhPCr03V_3syn5tokenNtB7_5Paren8surroundNCNvXsN_NtCsf44oge9wsd6_12snafu_derive5parseINtBZ_8MaybeArgNtBZ_10ContextArgENtNtCs2cqEZUIJimJ_5quote9to_tokens8ToTokens9to_tokens0EB11_, symObjAddr: 0x1010, symBinAddr: 0x37D4C, symSize: 0x5C }
  - { offset: 0xB39FC, size: 0x8, addend: 0x0, symName: __RINvMsjb_NtCs5AlOhPCr03V_3syn5tokenNtB7_5Paren8surroundNCNvXsN_NtCsf44oge9wsd6_12snafu_derive5parseINtBZ_8MaybeArgNtBZ_10ProvideArgENtNtCs2cqEZUIJimJ_5quote9to_tokens8ToTokens9to_tokens0EB11_, symObjAddr: 0x106C, symBinAddr: 0x37DA8, symSize: 0x5C }
  - { offset: 0xB3A60, size: 0x8, addend: 0x0, symName: __RINvMsjb_NtCs5AlOhPCr03V_3syn5tokenNtB7_5Paren8surroundNCNvXsN_NtCsf44oge9wsd6_12snafu_derive5parseINtBZ_8MaybeArgNtCs3cP53eQoTwO_11proc_macro25IdentENtNtCs2cqEZUIJimJ_5quote9to_tokens8ToTokens9to_tokens0EB11_, symObjAddr: 0x10C8, symBinAddr: 0x37E04, symSize: 0x5C }
  - { offset: 0xB3AC4, size: 0x8, addend: 0x0, symName: __RINvMsjb_NtCs5AlOhPCr03V_3syn5tokenNtB7_5Paren8surroundNCNvXsN_NtCsf44oge9wsd6_12snafu_derive5parseINtBZ_8MaybeArgNtNtB9_3lit7LitBoolENtNtCs2cqEZUIJimJ_5quote9to_tokens8ToTokens9to_tokens0EB11_, symObjAddr: 0x1124, symBinAddr: 0x37E60, symSize: 0x5C }
  - { offset: 0xB3B28, size: 0x8, addend: 0x0, symName: __RINvMsjb_NtCs5AlOhPCr03V_3syn5tokenNtB7_5Paren8surroundNCNvXsN_NtCsf44oge9wsd6_12snafu_derive5parseINtBZ_8MaybeArgNtNtB9_4data10VisibilityENtNtCs2cqEZUIJimJ_5quote9to_tokens8ToTokens9to_tokens0EB11_, symObjAddr: 0x1180, symBinAddr: 0x37EBC, symSize: 0x5C }
  - { offset: 0xB3B8C, size: 0x8, addend: 0x0, symName: __RINvMsjb_NtCs5AlOhPCr03V_3syn5tokenNtB7_5Paren8surroundNCNvXsc_NtCsf44oge9wsd6_12snafu_derive5parseNtBZ_9CrateRootNtNtCs2cqEZUIJimJ_5quote9to_tokens8ToTokens9to_tokens0EB11_, symObjAddr: 0x11DC, symBinAddr: 0x37F18, symSize: 0x5C }
  - { offset: 0xB3BF0, size: 0x8, addend: 0x0, symName: __RINvMsjb_NtCs5AlOhPCr03V_3syn5tokenNtB7_5Paren8surroundNCNvXsf_NtCsf44oge9wsd6_12snafu_derive5parseNtBZ_7DisplayNtNtCs2cqEZUIJimJ_5quote9to_tokens8ToTokens9to_tokens0EB11_, symObjAddr: 0x1238, symBinAddr: 0x37F74, symSize: 0x5C }
  - { offset: 0xB3CD5, size: 0x8, addend: 0x0, symName: __RINvMsx_NtNtCsfvfooZQ3Axs_4core3str7patternNtB6_14TwoWaySearcher9next_backNtB6_14RejectAndMatchECsf44oge9wsd6_12snafu_derive, symObjAddr: 0x1294, symBinAddr: 0x37FD0, symSize: 0x504 }
  - { offset: 0xB4078, size: 0x8, addend: 0x0, symName: __RNvMNtCs5AlOhPCr03V_3syn5dropsINtB2_6NoDropINtNtB4_10punctuated11PrivateIterNtNtB4_8generics14WherePredicateNtNtB4_5token5CommaEE3newCsf44oge9wsd6_12snafu_derive, symObjAddr: 0x1BF8, symBinAddr: 0x38724, symSize: 0x40 }
  - { offset: 0xB4102, size: 0x8, addend: 0x0, symName: __RNvMNtCs5AlOhPCr03V_3syn5dropsINtB2_6NoDropINtNtB4_10punctuated11PrivateIterNtNtCsf44oge9wsd6_12snafu_derive5parse11ProvideFlagNtNtB4_5token5CommaEE3newB1g_, symObjAddr: 0x1C38, symBinAddr: 0x38764, symSize: 0x40 }
  - { offset: 0xB414A, size: 0x8, addend: 0x0, symName: __RNvMNtCsfvfooZQ3Axs_4core6resultINtB2_6ResultNtNtCs5AlOhPCr03V_3syn6derive11DeriveInputNtNtBL_5error5ErrorE6expectCsf44oge9wsd6_12snafu_derive, symObjAddr: 0x1C78, symBinAddr: 0x387A4, symSize: 0xC0 }
  - { offset: 0xB4969, size: 0x8, addend: 0x0, symName: __RINvMNtCsfvfooZQ3Axs_4core6optionINtB3_6OptionIBw_RRNtCs3cP53eQoTwO_11proc_macro25IdentEE18get_or_insert_withNCNvMs3_NtNtNtB5_4iter8adapters8peekableINtB1R_8PeekableINtNtNtNtCse1nGBsou5OW_5alloc11collections5btree3set4IterBN_EE4peek0ECsf44oge9wsd6_12snafu_derive, symObjAddr: 0x0, symBinAddr: 0x40A38, symSize: 0xFC }
  - { offset: 0xB4A36, size: 0x8, addend: 0x0, symName: __RNCNvXs1_NtNtNtCscOYdFFY2T5N_3std2io5error14repr_bitpackedNtB7_4ReprNtNtNtCsfvfooZQ3Axs_4core3ops4drop4Drop4drop0Csf44oge9wsd6_12snafu_derive, symObjAddr: 0x3E5C, symBinAddr: 0x44858, symSize: 0x34 }
  - { offset: 0xB4AEB, size: 0x8, addend: 0x0, symName: __RNvXs1_NtNtNtCscOYdFFY2T5N_3std2io5error14repr_bitpackedNtB5_4ReprNtNtNtCsfvfooZQ3Axs_4core3ops4drop4Drop4dropCsf44oge9wsd6_12snafu_derive, symObjAddr: 0x5DD4, symBinAddr: 0x467CC, symSize: 0x38 }
  - { offset: 0xB4B14, size: 0x8, addend: 0x0, symName: __RINvNtNtNtCscOYdFFY2T5N_3std2io5error14repr_bitpacked11decode_reprINtNtCse1nGBsou5OW_5alloc5boxed3BoxNtB4_6CustomENCNvXs1_B2_NtB2_4ReprNtNtNtCsfvfooZQ3Axs_4core3ops4drop4Drop4drop0ECsf44oge9wsd6_12snafu_derive, symObjAddr: 0x2AFC, symBinAddr: 0x434F8, symSize: 0x230 }
  - { offset: 0xB4DB9, size: 0x8, addend: 0x0, symName: __RNvNtNtNtCscOYdFFY2T5N_3std2io5error14repr_bitpacked14kind_from_primCsf44oge9wsd6_12snafu_derive, symObjAddr: 0x50A0, symBinAddr: 0x45A98, symSize: 0x608 }
  - { offset: 0xB5E1B, size: 0x8, addend: 0x0, symName: __RNvNvMNtNtCsfvfooZQ3Axs_4core3ptr9const_ptrPp7sub_ptr18precondition_checkCsf44oge9wsd6_12snafu_derive, symObjAddr: 0x56A8, symBinAddr: 0x460A0, symSize: 0x40 }
  - { offset: 0xBBC92, size: 0x8, addend: 0x0, symName: __RNvXsC_NtCsfvfooZQ3Axs_4core6optionINtB5_6OptionReEINtNtNtB7_3ops9try_trait12FromResidualIBy_NtNtB7_7convert10InfallibleEE13from_residualCsf44oge9wsd6_12snafu_derive, symObjAddr: 0x62A4, symBinAddr: 0x46C9C, symSize: 0x18 }
  - { offset: 0xBBF73, size: 0x8, addend: 0x0, symName: __RNvXs5_NtCsfvfooZQ3Axs_4core6optionINtB5_6OptionNtCs3cP53eQoTwO_11proc_macro211TokenStreamENtNtNtNtB7_4iter6traits7collect12IntoIterator9into_iterCsf44oge9wsd6_12snafu_derive, symObjAddr: 0x601C, symBinAddr: 0x46A14, symSize: 0x2C }
  - { offset: 0xBBFAA, size: 0x8, addend: 0x0, symName: __RNvXs5_NtCsfvfooZQ3Axs_4core6optionINtB5_6OptionNtCs3cP53eQoTwO_11proc_macro25IdentENtNtNtNtB7_4iter6traits7collect12IntoIterator9into_iterCsf44oge9wsd6_12snafu_derive, symObjAddr: 0x6048, symBinAddr: 0x46A40, symSize: 0x30 }
  - { offset: 0xBBFE1, size: 0x8, addend: 0x0, symName: __RNvXs5_NtCsfvfooZQ3Axs_4core6optionINtB5_6OptionNtCsf44oge9wsd6_12snafu_derive14SnafuAttributeENtNtNtNtB7_4iter6traits7collect12IntoIterator9into_iterBM_, symObjAddr: 0x6078, symBinAddr: 0x46A70, symSize: 0x50 }
  - { offset: 0xBC019, size: 0x8, addend: 0x0, symName: __RNvXs5_NtCsfvfooZQ3Axs_4core6optionINtB5_6OptionNtNtCs5AlOhPCr03V_3syn4data7VariantENtNtNtNtB7_4iter6traits7collect12IntoIterator9into_iterCsf44oge9wsd6_12snafu_derive, symObjAddr: 0x60C8, symBinAddr: 0x46AC0, symSize: 0x50 }
  - { offset: 0xBC051, size: 0x8, addend: 0x0, symName: __RNvXs5_NtCsfvfooZQ3Axs_4core6optionINtB5_6OptionNtNtCs5AlOhPCr03V_3syn4expr4ExprENtNtNtNtB7_4iter6traits7collect12IntoIterator9into_iterCsf44oge9wsd6_12snafu_derive, symObjAddr: 0x6118, symBinAddr: 0x46B10, symSize: 0x50 }
  - { offset: 0xBC089, size: 0x8, addend: 0x0, symName: __RNvXs5_NtCsfvfooZQ3Axs_4core6optionINtB5_6OptionNtNtCsf44oge9wsd6_12snafu_derive5parse9AttributeENtNtNtNtB7_4iter6traits7collect12IntoIterator9into_iterBO_, symObjAddr: 0x6168, symBinAddr: 0x46B60, symSize: 0x50 }
  - { offset: 0xBC0C1, size: 0x8, addend: 0x0, symName: __RNvXs5_NtCsfvfooZQ3Axs_4core6optionINtB5_6OptionNtNtCsf44oge9wsd6_12snafu_derive5parse9SourceArgENtNtNtNtB7_4iter6traits7collect12IntoIterator9into_iterBO_, symObjAddr: 0x61B8, symBinAddr: 0x46BB0, symSize: 0x50 }
  - { offset: 0xBC0F9, size: 0x8, addend: 0x0, symName: __RNvXs5_NtCsfvfooZQ3Axs_4core6optionINtB5_6OptionRNtCs3cP53eQoTwO_11proc_macro25IdentENtNtNtNtB7_4iter6traits7collect12IntoIterator9into_iterCsf44oge9wsd6_12snafu_derive, symObjAddr: 0x6208, symBinAddr: 0x46C00, symSize: 0x14 }
  - { offset: 0xBC130, size: 0x8, addend: 0x0, symName: __RNvXs5_NtCsfvfooZQ3Axs_4core6optionINtB5_6OptionRNtCsf44oge9wsd6_12snafu_derive5FieldENtNtNtNtB7_4iter6traits7collect12IntoIterator9into_iterBN_, symObjAddr: 0x621C, symBinAddr: 0x46C14, symSize: 0x14 }
  - { offset: 0xBC167, size: 0x8, addend: 0x0, symName: __RNvXs5_NtCsfvfooZQ3Axs_4core6optionINtB5_6OptionRNtNtCsf44oge9wsd6_12snafu_derive5parse11ProvideFlagENtNtNtNtB7_4iter6traits7collect12IntoIterator9into_iterBP_, symObjAddr: 0x6230, symBinAddr: 0x46C28, symSize: 0x14 }
  - { offset: 0xBC19E, size: 0x8, addend: 0x0, symName: __RNvXs5_NtCsfvfooZQ3Axs_4core6optionINtB5_6OptionRNtNtCsf44oge9wsd6_12snafu_derive5parse9SourceArgENtNtNtNtB7_4iter6traits7collect12IntoIterator9into_iterBP_, symObjAddr: 0x6244, symBinAddr: 0x46C3C, symSize: 0x14 }
  - { offset: 0xBC1D5, size: 0x8, addend: 0x0, symName: __RNvXs5_NtCsfvfooZQ3Axs_4core6optionINtB5_6OptionTRNtNtCs5AlOhPCr03V_3syn2ty4TypeRNtCs3cP53eQoTwO_11proc_macro25IdentEENtNtNtNtB7_4iter6traits7collect12IntoIterator9into_iterCsf44oge9wsd6_12snafu_derive, symObjAddr: 0x6258, symBinAddr: 0x46C50, symSize: 0x1C }
  - { offset: 0xBC2D8, size: 0x8, addend: 0x0, symName: __RNvXsO_NtCsfvfooZQ3Axs_4core6optionINtB5_8IntoIterRNtNtCs5AlOhPCr03V_3syn8generics14WherePredicateENtNtB7_5clone5Clone5cloneCsf44oge9wsd6_12snafu_derive, symObjAddr: 0x62BC, symBinAddr: 0x46CB4, symSize: 0x68 }
  - { offset: 0xBC37F, size: 0x8, addend: 0x0, symName: __RNvXsO_NtCsfvfooZQ3Axs_4core6optionINtB5_8IntoIterRNtNtCsf44oge9wsd6_12snafu_derive5parse11ProvideFlagENtNtB7_5clone5Clone5cloneBR_, symObjAddr: 0x6324, symBinAddr: 0x46D1C, symSize: 0x68 }
  - { offset: 0xBC684, size: 0x8, addend: 0x0, symName: __RNvXsk_NtCsfvfooZQ3Axs_4core6optionINtB5_4IterNtNtCs5AlOhPCr03V_3syn8generics11WhereClauseENtNtNtNtB7_4iter6traits8iterator8Iterator4nextCsf44oge9wsd6_12snafu_derive, symObjAddr: 0x6638, symBinAddr: 0x47030, symSize: 0x20 }
  - { offset: 0xBC727, size: 0x8, addend: 0x0, symName: __RNvXsk_NtCsfvfooZQ3Axs_4core6optionINtB5_4IterNtNtCs5AlOhPCr03V_3syn8generics11WhereClauseENtNtNtNtB7_4iter6traits8iterator8Iterator9size_hintCsf44oge9wsd6_12snafu_derive, symObjAddr: 0x6658, symBinAddr: 0x47050, symSize: 0x44 }
  - { offset: 0xBC8FF, size: 0x8, addend: 0x0, symName: __RNvXsv_NtCsfvfooZQ3Axs_4core6optionINtB5_8IntoIterNtCs3cP53eQoTwO_11proc_macro211TokenStreamENtNtNtNtB7_4iter6traits8iterator8Iterator4nextCsf44oge9wsd6_12snafu_derive, symObjAddr: 0x693C, symBinAddr: 0x47334, symSize: 0x3C }
  - { offset: 0xBC9A2, size: 0x8, addend: 0x0, symName: __RNvXsv_NtCsfvfooZQ3Axs_4core6optionINtB5_8IntoIterNtCs3cP53eQoTwO_11proc_macro25IdentENtNtNtNtB7_4iter6traits8iterator8Iterator4nextCsf44oge9wsd6_12snafu_derive, symObjAddr: 0x6978, symBinAddr: 0x47370, symSize: 0x40 }
  - { offset: 0xBCA45, size: 0x8, addend: 0x0, symName: __RNvXsv_NtCsfvfooZQ3Axs_4core6optionINtB5_8IntoIterNtCsf44oge9wsd6_12snafu_derive14SnafuAttributeENtNtNtNtB7_4iter6traits8iterator8Iterator4nextBO_, symObjAddr: 0x69B8, symBinAddr: 0x473B0, symSize: 0x6C }
  - { offset: 0xBCAE8, size: 0x8, addend: 0x0, symName: __RNvXsv_NtCsfvfooZQ3Axs_4core6optionINtB5_8IntoIterNtNtCs5AlOhPCr03V_3syn4data7VariantENtNtNtNtB7_4iter6traits8iterator8Iterator4nextCsf44oge9wsd6_12snafu_derive, symObjAddr: 0x6A24, symBinAddr: 0x4741C, symSize: 0x68 }
  - { offset: 0xBCB8B, size: 0x8, addend: 0x0, symName: __RNvXsv_NtCsfvfooZQ3Axs_4core6optionINtB5_8IntoIterNtNtCs5AlOhPCr03V_3syn4data7VariantENtNtNtNtB7_4iter6traits8iterator8Iterator9size_hintCsf44oge9wsd6_12snafu_derive, symObjAddr: 0x6A8C, symBinAddr: 0x47484, symSize: 0x44 }
  - { offset: 0xBCC03, size: 0x8, addend: 0x0, symName: __RNvXsv_NtCsfvfooZQ3Axs_4core6optionINtB5_8IntoIterNtNtCs5AlOhPCr03V_3syn4expr4ExprENtNtNtNtB7_4iter6traits8iterator8Iterator4nextCsf44oge9wsd6_12snafu_derive, symObjAddr: 0x6AD0, symBinAddr: 0x474C8, symSize: 0x6C }
  - { offset: 0xBCCA6, size: 0x8, addend: 0x0, symName: __RNvXsv_NtCsfvfooZQ3Axs_4core6optionINtB5_8IntoIterNtNtCs5AlOhPCr03V_3syn4expr4ExprENtNtNtNtB7_4iter6traits8iterator8Iterator9size_hintCsf44oge9wsd6_12snafu_derive, symObjAddr: 0x6B3C, symBinAddr: 0x47534, symSize: 0x4C }
  - { offset: 0xBCD1E, size: 0x8, addend: 0x0, symName: __RNvXsv_NtCsfvfooZQ3Axs_4core6optionINtB5_8IntoIterNtNtCsf44oge9wsd6_12snafu_derive5parse9AttributeENtNtNtNtB7_4iter6traits8iterator8Iterator4nextBQ_, symObjAddr: 0x6B88, symBinAddr: 0x47580, symSize: 0x6C }
  - { offset: 0xBCDC1, size: 0x8, addend: 0x0, symName: __RNvXsv_NtCsfvfooZQ3Axs_4core6optionINtB5_8IntoIterNtNtCsf44oge9wsd6_12snafu_derive5parse9AttributeENtNtNtNtB7_4iter6traits8iterator8Iterator9size_hintBQ_, symObjAddr: 0x6BF4, symBinAddr: 0x475EC, symSize: 0x4C }
  - { offset: 0xBCE39, size: 0x8, addend: 0x0, symName: __RNvXsv_NtCsfvfooZQ3Axs_4core6optionINtB5_8IntoIterNtNtCsf44oge9wsd6_12snafu_derive5parse9SourceArgENtNtNtNtB7_4iter6traits8iterator8Iterator4nextBQ_, symObjAddr: 0x6C40, symBinAddr: 0x47638, symSize: 0x6C }
  - { offset: 0xBCEDC, size: 0x8, addend: 0x0, symName: __RNvXsv_NtCsfvfooZQ3Axs_4core6optionINtB5_8IntoIterNtNtCsf44oge9wsd6_12snafu_derive5parse9SourceArgENtNtNtNtB7_4iter6traits8iterator8Iterator9size_hintBQ_, symObjAddr: 0x6CAC, symBinAddr: 0x476A4, symSize: 0x4C }
  - { offset: 0xBCF54, size: 0x8, addend: 0x0, symName: __RNvXsv_NtCsfvfooZQ3Axs_4core6optionINtB5_8IntoIterRNtCs3cP53eQoTwO_11proc_macro25IdentENtNtNtNtB7_4iter6traits8iterator8Iterator4nextCsf44oge9wsd6_12snafu_derive, symObjAddr: 0x6CF8, symBinAddr: 0x476F0, symSize: 0x28 }
  - { offset: 0xBCFF7, size: 0x8, addend: 0x0, symName: __RNvXsv_NtCsfvfooZQ3Axs_4core6optionINtB5_8IntoIterRNtCs3cP53eQoTwO_11proc_macro25IdentENtNtNtNtB7_4iter6traits8iterator8Iterator9size_hintCsf44oge9wsd6_12snafu_derive, symObjAddr: 0x6D20, symBinAddr: 0x47718, symSize: 0x44 }
  - { offset: 0xBD06F, size: 0x8, addend: 0x0, symName: __RNvXsv_NtCsfvfooZQ3Axs_4core6optionINtB5_8IntoIterRNtCsf44oge9wsd6_12snafu_derive5FieldENtNtNtNtB7_4iter6traits8iterator8Iterator4nextBP_, symObjAddr: 0x6D64, symBinAddr: 0x4775C, symSize: 0x28 }
  - { offset: 0xBD112, size: 0x8, addend: 0x0, symName: __RNvXsv_NtCsfvfooZQ3Axs_4core6optionINtB5_8IntoIterRNtCsf44oge9wsd6_12snafu_derive5FieldENtNtNtNtB7_4iter6traits8iterator8Iterator9size_hintBP_, symObjAddr: 0x6D8C, symBinAddr: 0x47784, symSize: 0x44 }
  - { offset: 0xBD18A, size: 0x8, addend: 0x0, symName: __RNvXsv_NtCsfvfooZQ3Axs_4core6optionINtB5_8IntoIterRNtNtCs5AlOhPCr03V_3syn8generics14WherePredicateENtNtNtNtB7_4iter6traits8iterator8Iterator9size_hintCsf44oge9wsd6_12snafu_derive, symObjAddr: 0x6DD0, symBinAddr: 0x477C8, symSize: 0x44 }
  - { offset: 0xBD202, size: 0x8, addend: 0x0, symName: __RNvXsv_NtCsfvfooZQ3Axs_4core6optionINtB5_8IntoIterRNtNtCsf44oge9wsd6_12snafu_derive5parse11ProvideFlagENtNtNtNtB7_4iter6traits8iterator8Iterator4nextBR_, symObjAddr: 0x6E14, symBinAddr: 0x4780C, symSize: 0x28 }
  - { offset: 0xBD2A5, size: 0x8, addend: 0x0, symName: __RNvXsv_NtCsfvfooZQ3Axs_4core6optionINtB5_8IntoIterRNtNtCsf44oge9wsd6_12snafu_derive5parse11ProvideFlagENtNtNtNtB7_4iter6traits8iterator8Iterator9size_hintBR_, symObjAddr: 0x6E3C, symBinAddr: 0x47834, symSize: 0x44 }
  - { offset: 0xBD31D, size: 0x8, addend: 0x0, symName: __RNvXsv_NtCsfvfooZQ3Axs_4core6optionINtB5_8IntoIterRNtNtCsf44oge9wsd6_12snafu_derive5parse9SourceArgENtNtNtNtB7_4iter6traits8iterator8Iterator4nextBR_, symObjAddr: 0x6E80, symBinAddr: 0x47878, symSize: 0x28 }
  - { offset: 0xBD3C0, size: 0x8, addend: 0x0, symName: __RNvXsv_NtCsfvfooZQ3Axs_4core6optionINtB5_8IntoIterTRNtNtCs5AlOhPCr03V_3syn2ty4TypeRNtCs3cP53eQoTwO_11proc_macro25IdentEENtNtNtNtB7_4iter6traits8iterator8Iterator4nextCsf44oge9wsd6_12snafu_derive, symObjAddr: 0x6EA8, symBinAddr: 0x478A0, symSize: 0x34 }
  - { offset: 0xBDA5A, size: 0x8, addend: 0x0, symName: __RNvNvNtCsfvfooZQ3Axs_4core4hint16assert_unchecked18precondition_checkCsf44oge9wsd6_12snafu_derive, symObjAddr: 0x5B98, symBinAddr: 0x46590, symSize: 0x38 }
  - { offset: 0xBDA88, size: 0x8, addend: 0x0, symName: __RNvNvNtCsfvfooZQ3Axs_4core4hint21unreachable_unchecked18precondition_checkCsf44oge9wsd6_12snafu_derive, symObjAddr: 0x5BD0, symBinAddr: 0x465C8, symSize: 0x1C }
  - { offset: 0xBDAE5, size: 0x8, addend: 0x0, symName: __RNvXsn_NtNtCsfvfooZQ3Axs_4core5panic11unwind_safeINtB5_16AssertUnwindSafeNCINvNtNtCs9i5KxIbZ5ph_10proc_macro6bridge6client10run_clientNtB1e_11TokenStreamINtNtB9_6option6OptionB28_ENCNCINvMs7_B1e_INtB1e_6ClientNtB1i_11TokenStreamB3l_E7expand1NvCsf44oge9wsd6_12snafu_derive12snafu_deriveE00E0EINtNtNtB9_3ops8function6FnOnceuE9call_onceB3T_, symObjAddr: 0x67C4, symBinAddr: 0x471BC, symSize: 0x38 }
  - { offset: 0xBDB3D, size: 0x8, addend: 0x0, symName: __RNvXsn_NtNtCsfvfooZQ3Axs_4core5panic11unwind_safeINtB5_16AssertUnwindSafeNCINvNtNtCs9i5KxIbZ5ph_10proc_macro6bridge6client10run_clientTNtB1e_11TokenStreamB29_EINtNtB9_6option6OptionB29_ENCNCINvMs8_B1e_INtB1e_6ClientTNtB1i_11TokenStreamB3s_EB3s_E7expand2NvCsf44oge9wsd6_12snafu_derive6reportE00E0EINtNtNtB9_3ops8function6FnOnceuE9call_onceB45_, symObjAddr: 0x67FC, symBinAddr: 0x471F4, symSize: 0x38 }
  - { offset: 0xBE265, size: 0x8, addend: 0x0, symName: __RNvXsA_NtNtNtCsfvfooZQ3Axs_4core4iter8adapters7flattenINtNtBb_6option6OptionNtCs3cP53eQoTwO_11proc_macro211TokenStreamENtB5_21ConstSizeIntoIterator4sizeCsf44oge9wsd6_12snafu_derive, symObjAddr: 0x6274, symBinAddr: 0x46C6C, symSize: 0x18 }
  - { offset: 0xBE28D, size: 0x8, addend: 0x0, symName: __RNvXsA_NtNtNtCsfvfooZQ3Axs_4core4iter8adapters7flattenINtNtBb_6option6OptionNtCsf44oge9wsd6_12snafu_derive14SnafuAttributeENtB5_21ConstSizeIntoIterator4sizeB1e_, symObjAddr: 0x628C, symBinAddr: 0x46C84, symSize: 0x18 }
  - { offset: 0xBE37C, size: 0x8, addend: 0x0, symName: __RINvNtNtNtCsfvfooZQ3Axs_4core4iter7sources7from_fn7from_fnReNCNvNtCsf44oge9wsd6_12snafu_derive5parse19extract_field_names0EB12_, symObjAddr: 0x2D2C, symBinAddr: 0x43728, symSize: 0x18 }
  - { offset: 0xBE3BF, size: 0x8, addend: 0x0, symName: __RNvXNtNtNtCsfvfooZQ3Axs_4core4iter7sources7from_fnINtB2_6FromFnNCNvNtCsf44oge9wsd6_12snafu_derive5parse19extract_field_names0ENtNtNtB6_6traits8iterator8Iterator4nextB15_, symObjAddr: 0x5D28, symBinAddr: 0x46720, symSize: 0x24 }
  - { offset: 0xBE42D, size: 0x8, addend: 0x0, symName: __RINvYINtNtCsfvfooZQ3Axs_4core6option4IterNtNtCs5AlOhPCr03V_3syn8generics11WhereClauseENtNtNtNtB8_4iter6traits8iterator8Iterator3mapINtNtNtB1s_8adapters3map3MapINtNtBH_10punctuated4IterNtBF_14WherePredicateENCNCNvMsr_Csf44oge9wsd6_12snafu_deriveNtB3s_15TupleStructInfo14generate_snafu00ENCB3m_0EB3s_, symObjAddr: 0x2D44, symBinAddr: 0x43740, symSize: 0x14 }
  - { offset: 0xBE485, size: 0x8, addend: 0x0, symName: __RINvYINtNtCsfvfooZQ3Axs_4core6option4IterNtNtCs5AlOhPCr03V_3syn8generics11WhereClauseENtNtNtNtB8_4iter6traits8iterator8Iterator3mapINtNtNtB1s_8adapters3map3MapINtNtBH_10punctuated4IterNtBF_14WherePredicateENCNCNvYNtCsf44oge9wsd6_12snafu_derive15NamedStructInfoNtB3r_17GenericAwareNames22provided_where_clauses00ENCB3m_0EB3r_, symObjAddr: 0x2D58, symBinAddr: 0x43754, symSize: 0x14 }
  - { offset: 0xBE4DD, size: 0x8, addend: 0x0, symName: __RINvYINtNtCsfvfooZQ3Axs_4core6option4IterNtNtCs5AlOhPCr03V_3syn8generics11WhereClauseENtNtNtNtB8_4iter6traits8iterator8Iterator3mapINtNtNtB1s_8adapters3map3MapINtNtBH_10punctuated4IterNtBF_14WherePredicateENCNCNvYNtCsf44oge9wsd6_12snafu_derive8EnumInfoNtB3r_17GenericAwareNames22provided_where_clauses00ENCB3m_0EB3r_, symObjAddr: 0x2D6C, symBinAddr: 0x43768, symSize: 0x14 }
  - { offset: 0xBE55C, size: 0x8, addend: 0x0, symName: __RINvYINtNtCsfvfooZQ3Axs_4core6option4IterNtNtCs5AlOhPCr03V_3syn8generics11WhereClauseENtNtNtNtB8_4iter6traits8iterator8Iterator8flat_mapINtNtNtB1s_8adapters3map3MapINtNtBH_10punctuated4IterNtBF_14WherePredicateENCNCNvMsr_Csf44oge9wsd6_12snafu_deriveNtB3x_15TupleStructInfo14generate_snafu00ENCB3r_0EB3x_, symObjAddr: 0x2D80, symBinAddr: 0x4377C, symSize: 0x88 }
  - { offset: 0xBE651, size: 0x8, addend: 0x0, symName: __RINvYINtNtCsfvfooZQ3Axs_4core6option4IterNtNtCs5AlOhPCr03V_3syn8generics11WhereClauseENtNtNtNtB8_4iter6traits8iterator8Iterator8flat_mapINtNtNtB1s_8adapters3map3MapINtNtBH_10punctuated4IterNtBF_14WherePredicateENCNCNvYNtCsf44oge9wsd6_12snafu_derive15NamedStructInfoNtB3w_17GenericAwareNames22provided_where_clauses00ENCB3r_0EB3w_, symObjAddr: 0x2E08, symBinAddr: 0x43804, symSize: 0x88 }
  - { offset: 0xBE746, size: 0x8, addend: 0x0, symName: __RINvYINtNtCsfvfooZQ3Axs_4core6option4IterNtNtCs5AlOhPCr03V_3syn8generics11WhereClauseENtNtNtNtB8_4iter6traits8iterator8Iterator8flat_mapINtNtNtB1s_8adapters3map3MapINtNtBH_10punctuated4IterNtBF_14WherePredicateENCNCNvYNtCsf44oge9wsd6_12snafu_derive8EnumInfoNtB3w_17GenericAwareNames22provided_where_clauses00ENCB3r_0EB3w_, symObjAddr: 0x2E90, symBinAddr: 0x4388C, symSize: 0x88 }
  - { offset: 0xBE814, size: 0x8, addend: 0x0, symName: __RINvYINtNtCsfvfooZQ3Axs_4core6option8IntoIterNtCs3cP53eQoTwO_11proc_macro25IdentENtNtNtNtB8_4iter6traits8iterator8Iterator4folduNCINvNvB1h_8for_each4callBH_NCINvXsl_NtNtNtCse1nGBsou5OW_5alloc11collections5btree3setINtB2D_8BTreeSetBH_EINtNtB1l_7collect6ExtendBH_E6extendINtB6_6OptionBH_EE0E0ECsf44oge9wsd6_12snafu_derive, symObjAddr: 0x2F18, symBinAddr: 0x43914, symSize: 0x10C }
  - { offset: 0xBE8A5, size: 0x8, addend: 0x0, symName: __RINvYINtNtCsfvfooZQ3Axs_4core6option8IntoIterNtCs3cP53eQoTwO_11proc_macro25IdentENtNtNtNtB8_4iter6traits8iterator8Iterator8for_eachNCINvXsl_NtNtNtCse1nGBsou5OW_5alloc11collections5btree3setINtB2e_8BTreeSetBH_EINtNtB1l_7collect6ExtendBH_E6extendINtB6_6OptionBH_EE0ECsf44oge9wsd6_12snafu_derive, symObjAddr: 0x3024, symBinAddr: 0x43A20, symSize: 0x24 }
  - { offset: 0xBE8F1, size: 0x8, addend: 0x0, symName: __RINvYINtNtCsfvfooZQ3Axs_4core6option8IntoIterNtNtCs5AlOhPCr03V_3syn4data7VariantENtNtNtNtB8_4iter6traits8iterator8Iterator4folduNCINvNvB1h_8for_each4callBH_NCINvMsi_NtCse1nGBsou5OW_5alloc3vecINtB2D_3VecBH_E14extend_trustedB3_E0E0ECsf44oge9wsd6_12snafu_derive, symObjAddr: 0x3048, symBinAddr: 0x43A44, symSize: 0x148 }
  - { offset: 0xBEAFA, size: 0x8, addend: 0x0, symName: __RINvYINtNtCsfvfooZQ3Axs_4core6option8IntoIterNtNtCs5AlOhPCr03V_3syn4data7VariantENtNtNtNtB8_4iter6traits8iterator8Iterator8for_eachNCINvMsi_NtCse1nGBsou5OW_5alloc3vecINtB2e_3VecBH_E14extend_trustedB3_E0ECsf44oge9wsd6_12snafu_derive, symObjAddr: 0x3190, symBinAddr: 0x43B8C, symSize: 0x34 }
  - { offset: 0xBEB66, size: 0x8, addend: 0x0, symName: __RINvYINtNtCsfvfooZQ3Axs_4core6option8IntoIterNtNtCs5AlOhPCr03V_3syn4expr4ExprENtNtNtNtB8_4iter6traits8iterator8Iterator4folduNCINvNvB1e_8for_each4callBH_NCINvMsi_NtCse1nGBsou5OW_5alloc3vecINtB2A_3VecBH_E14extend_trustedB3_E0E0ECsf44oge9wsd6_12snafu_derive, symObjAddr: 0x31C4, symBinAddr: 0x43BC0, symSize: 0x14C }
  - { offset: 0xBEBF8, size: 0x8, addend: 0x0, symName: __RINvYINtNtCsfvfooZQ3Axs_4core6option8IntoIterNtNtCs5AlOhPCr03V_3syn4expr4ExprENtNtNtNtB8_4iter6traits8iterator8Iterator8for_eachNCINvMsi_NtCse1nGBsou5OW_5alloc3vecINtB2b_3VecBH_E14extend_trustedB3_E0ECsf44oge9wsd6_12snafu_derive, symObjAddr: 0x3310, symBinAddr: 0x43D0C, symSize: 0x34 }
  - { offset: 0xBEC64, size: 0x8, addend: 0x0, symName: __RINvYINtNtCsfvfooZQ3Axs_4core6option8IntoIterNtNtCsf44oge9wsd6_12snafu_derive5parse9AttributeENtNtNtNtB8_4iter6traits8iterator8Iterator4folduNCINvNvB1u_8for_each4callBH_NCINvMsi_NtCse1nGBsou5OW_5alloc3vecINtB2Q_3VecBH_E14extend_trustedB3_E0E0EBL_, symObjAddr: 0x3344, symBinAddr: 0x43D40, symSize: 0x150 }
  - { offset: 0xBECF6, size: 0x8, addend: 0x0, symName: __RINvYINtNtCsfvfooZQ3Axs_4core6option8IntoIterNtNtCsf44oge9wsd6_12snafu_derive5parse9AttributeENtNtNtNtB8_4iter6traits8iterator8Iterator8for_eachNCINvMsi_NtCse1nGBsou5OW_5alloc3vecINtB2r_3VecBH_E14extend_trustedB3_E0EBL_, symObjAddr: 0x3494, symBinAddr: 0x43E90, symSize: 0x34 }
  - { offset: 0xBED62, size: 0x8, addend: 0x0, symName: __RINvYINtNtCsfvfooZQ3Axs_4core6option8IntoIterNtNtCsf44oge9wsd6_12snafu_derive5parse9SourceArgENtNtNtNtB8_4iter6traits8iterator8Iterator4folduNCINvNvB1u_8for_each4callBH_NCINvMsi_NtCse1nGBsou5OW_5alloc3vecINtB2Q_3VecBH_E14extend_trustedB3_E0E0EBL_, symObjAddr: 0x34C8, symBinAddr: 0x43EC4, symSize: 0x150 }
  - { offset: 0xBEDF4, size: 0x8, addend: 0x0, symName: __RINvYINtNtCsfvfooZQ3Axs_4core6option8IntoIterNtNtCsf44oge9wsd6_12snafu_derive5parse9SourceArgENtNtNtNtB8_4iter6traits8iterator8Iterator8for_eachNCINvMsi_NtCse1nGBsou5OW_5alloc3vecINtB2r_3VecBH_E14extend_trustedB3_E0EBL_, symObjAddr: 0x3618, symBinAddr: 0x44014, symSize: 0x34 }
  - { offset: 0xBEE60, size: 0x8, addend: 0x0, symName: __RINvYINtNtCsfvfooZQ3Axs_4core6option8IntoIterRNtCs3cP53eQoTwO_11proc_macro25IdentENtNtNtNtB8_4iter6traits8iterator8Iterator4folduNCINvNvB1i_8for_each4callBH_NCINvMsi_NtCse1nGBsou5OW_5alloc3vecINtB2E_3VecBH_E14extend_trustedINtNtNtB1o_8adapters5chain5ChainINtNtB3E_3map3MapIB3A_IB3A_IB3A_INtNtNtB8_5slice4iter4IterNtCsf44oge9wsd6_12snafu_derive5FieldEIB4_RB51_EEB4B_EB5C_ENvMs1_B53_B51_4nameEB3_EE0E0EB53_, symObjAddr: 0x364C, symBinAddr: 0x44048, symSize: 0xD8 }
  - { offset: 0xBEEF0, size: 0x8, addend: 0x0, symName: __RINvYINtNtCsfvfooZQ3Axs_4core6option8IntoIterRNtCsf44oge9wsd6_12snafu_derive5FieldENtNtNtNtB8_4iter6traits8iterator8Iterator4folduNCINvNtNtB1p_8adapters3map8map_foldBH_NtCs3cP53eQoTwO_11proc_macro211TokenStreamuNCNvMs_NtNtBK_6shared16context_selectorNtB3u_15ContextSelector41construct_implicit_fields_with_expression0NCIB27_B2G_NtNtB2I_3imp11TokenStreamuNCINvXs7_B2I_B2G_INtNtB1n_7collect12FromIteratorB2G_E9from_iterINtB29_3MapINtNtB2b_5chain5ChainINtNtNtB8_5slice4iter4IterBI_EB3_EB3n_EE0NCIB27_B5g_NtCs9i5KxIbZ5ph_10proc_macro11TokenStreamuNCINvXs6_B5i_B5g_IB5Y_B5g_E9from_iterIB6I_B6H_B5G_EE0NCINvNvB1j_8for_each4callB83_NCINvXsj_B85_B83_INtB60_6ExtendB83_E6extendIB6I_B9k_B8J_EE0E0E0E0E0EBK_, symObjAddr: 0x3724, symBinAddr: 0x44120, symSize: 0xB8 }
  - { offset: 0xBEF7F, size: 0x8, addend: 0x0, symName: __RINvYINtNtCsfvfooZQ3Axs_4core6option8IntoIterRNtCsf44oge9wsd6_12snafu_derive5FieldENtNtNtNtB8_4iter6traits8iterator8Iterator4folduNCINvNtNtB1p_8adapters3map8map_foldBH_RNtCs3cP53eQoTwO_11proc_macro25IdentuNvMs1_BK_BI_4nameQNCINvNvB1j_8for_each4callB2G_NCINvMsi_NtCse1nGBsou5OW_5alloc3vecINtB4b_3VecB2G_E14extend_trustedINtNtB2b_5chain5ChainINtB29_3MapIB58_IB58_IB58_INtNtNtB8_5slice4iter4IterBI_EB3_EB5S_EB3_EB3h_EIB4_B2G_EEE0E0E0EBK_, symObjAddr: 0x37DC, symBinAddr: 0x441D8, symSize: 0xB4 }
  - { offset: 0xBF00E, size: 0x8, addend: 0x0, symName: __RINvYINtNtCsfvfooZQ3Axs_4core6option8IntoIterRNtCsf44oge9wsd6_12snafu_derive5FieldENtNtNtNtB8_4iter6traits8iterator8Iterator4folduQQNCINvNtNtB1p_8adapters3map8map_foldBH_RNtCs3cP53eQoTwO_11proc_macro25IdentuNvMs1_BK_BI_4nameQNCINvNvB1j_8for_each4callB2I_NCINvMsi_NtCse1nGBsou5OW_5alloc3vecINtB4d_3VecB2I_E14extend_trustedINtNtB2d_5chain5ChainINtB2b_3MapIB5a_IB5a_IB5a_INtNtNtB8_5slice4iter4IterBI_EB3_EB5U_EB3_EB3j_EIB4_B2I_EEE0E0E0EBK_, symObjAddr: 0x3890, symBinAddr: 0x4428C, symSize: 0xB4 }
  - { offset: 0xBF09D, size: 0x8, addend: 0x0, symName: __RINvYINtNtNtNtCsfvfooZQ3Axs_4core4iter7sources7from_fn6FromFnNCNvNtCsf44oge9wsd6_12snafu_derive5parse19extract_field_names0ENtNtNtBa_6traits8iterator8Iterator3mapNtCs3cP53eQoTwO_11proc_macro25IdentNCNvMsd_B11_NtB11_7Display12into_display0EB13_, symObjAddr: 0x3944, symBinAddr: 0x44340, symSize: 0x18 }
  - { offset: 0xBF0F5, size: 0x8, addend: 0x0, symName: __RINvYINtNtNtNtCsfvfooZQ3Axs_4core4iter7sources7from_fn6FromFnNCNvNtCsf44oge9wsd6_12snafu_derive5parse19extract_field_names0ENtNtNtBa_6traits8iterator8Iterator3mapNtCs3cP53eQoTwO_11proc_macro25IdentNCNvMsd_B13_NtB13_10DocComment6finish0EB13_, symObjAddr: 0x395C, symBinAddr: 0x44358, symSize: 0x18 }
  - { offset: 0xBF14D, size: 0x8, addend: 0x0, symName: __RINvYINtNtNtNtCsfvfooZQ3Axs_4core4iter7sources7from_fn6FromFnNCNvNtCsf44oge9wsd6_12snafu_derive5parse19extract_field_names0ENtNtNtBa_6traits8iterator8Iterator4folduNCINvNtNtBa_8adapters3map8map_foldReNtCs3cP53eQoTwO_11proc_macro25IdentuNCNvMsd_B11_NtB11_7Display12into_display0NCINvNvB1Y_8for_each4callB3c_NCINvXsl_NtNtNtCse1nGBsou5OW_5alloc11collections5btree3setINtB53_8BTreeSetB3c_EINtNtB22_7collect6ExtendB3c_E6extendINtB2H_3MapB3_B3M_EE0E0E0EB13_, symObjAddr: 0x3974, symBinAddr: 0x44370, symSize: 0xCC }
  - { offset: 0xBF1DC, size: 0x8, addend: 0x0, symName: __RINvYINtNtNtNtCsfvfooZQ3Axs_4core4iter7sources7from_fn6FromFnNCNvNtCsf44oge9wsd6_12snafu_derive5parse19extract_field_names0ENtNtNtBa_6traits8iterator8Iterator4folduNCINvNtNtBa_8adapters3map8map_foldReNtCs3cP53eQoTwO_11proc_macro25IdentuNCNvMsd_B13_NtB13_10DocComment6finish0NCINvNvB1Y_8for_each4callB3c_NCINvXsl_NtNtNtCse1nGBsou5OW_5alloc11collections5btree3setINtB50_8BTreeSetB3c_EINtNtB22_7collect6ExtendB3c_E6extendINtB2H_3MapB3_B3M_EE0E0E0EB13_, symObjAddr: 0x3A40, symBinAddr: 0x4443C, symSize: 0xCC }
  - { offset: 0xBF277, size: 0x8, addend: 0x0, symName: __RNvYINtNtCsfvfooZQ3Axs_4core6option8IntoIterRNtNtCs5AlOhPCr03V_3syn8generics14WherePredicateENtNtNtNtB7_4iter6traits10exact_size17ExactSizeIterator3lenCsf44oge9wsd6_12snafu_derive, symObjAddr: 0x6FB8, symBinAddr: 0x479B0, symSize: 0xF4 }
  - { offset: 0xBF36A, size: 0x8, addend: 0x0, symName: __RNvYINtNtCsfvfooZQ3Axs_4core6option8IntoIterRNtNtCsf44oge9wsd6_12snafu_derive5parse11ProvideFlagENtNtNtNtB7_4iter6traits10exact_size17ExactSizeIterator3lenBL_, symObjAddr: 0x70AC, symBinAddr: 0x47AA4, symSize: 0xF4 }
  - { offset: 0xBFF32, size: 0x8, addend: 0x0, symName: __RNvNvNtCsfvfooZQ3Axs_4core10intrinsics19copy_nonoverlapping18precondition_checkCsf44oge9wsd6_12snafu_derive, symObjAddr: 0x56E8, symBinAddr: 0x460E0, symSize: 0x2E4 }
  - { offset: 0xC01AA, size: 0x8, addend: 0x0, symName: __RNvNvNtCsfvfooZQ3Axs_4core10intrinsics4copy18precondition_checkCsf44oge9wsd6_12snafu_derive, symObjAddr: 0x59CC, symBinAddr: 0x463C4, symSize: 0x1CC }
  - { offset: 0xC0AE9, size: 0x8, addend: 0x0, symName: __RNvXNtNtCs9i5KxIbZ5ph_10proc_macro6bridge3rpcuINtB2_6EncodeuE6encodeCsf44oge9wsd6_12snafu_derive, symObjAddr: 0x5D14, symBinAddr: 0x4670C, symSize: 0x14 }
  - { offset: 0xC0BC2, size: 0x8, addend: 0x0, symName: __RNvXsa_NtNtCs9i5KxIbZ5ph_10proc_macro6bridge3rpcRShINtB5_6EncodeuE6encodeCsf44oge9wsd6_12snafu_derive, symObjAddr: 0x6530, symBinAddr: 0x46F28, symSize: 0xD0 }
  - { offset: 0xC0CC4, size: 0x8, addend: 0x0, symName: __RNvXsc_NtNtCs9i5KxIbZ5ph_10proc_macro6bridge3rpcReINtB5_6EncodeuE6encodeCsf44oge9wsd6_12snafu_derive, symObjAddr: 0x6600, symBinAddr: 0x46FF8, symSize: 0x38 }
  - { offset: 0xC0DAC, size: 0x8, addend: 0x0, symName: __RNvXsl_NtNtCs9i5KxIbZ5ph_10proc_macro6bridge3rpcNtB5_12PanicMessageINtB5_6EncodeuE6encodeCsf44oge9wsd6_12snafu_derive, symObjAddr: 0x669C, symBinAddr: 0x47094, symSize: 0x128 }
  - { offset: 0xC0F72, size: 0x8, addend: 0x0, symName: __RNvXso_NtNtCs9i5KxIbZ5ph_10proc_macro6bridge3rpcmINtB5_9DecodeMutuE6decodeCsf44oge9wsd6_12snafu_derive, symObjAddr: 0x6834, symBinAddr: 0x4722C, symSize: 0x108 }
  - { offset: 0xC1138, size: 0x8, addend: 0x0, symName: __RNvXsR_NtCs9i5KxIbZ5ph_10proc_macro6bridgeINtNtCsfvfooZQ3Axs_4core6option6OptionNtNtB5_6client11TokenStreamEINtNtB5_3rpc6EncodeuE6encodeCsf44oge9wsd6_12snafu_derive, symObjAddr: 0x638C, symBinAddr: 0x46D84, symSize: 0xCC }
  - { offset: 0xC11DE, size: 0x8, addend: 0x0, symName: __RNvXsR_NtCs9i5KxIbZ5ph_10proc_macro6bridgeINtNtCsfvfooZQ3Axs_4core6option6OptionReEINtNtB5_3rpc6EncodeuE6encodeCsf44oge9wsd6_12snafu_derive, symObjAddr: 0x6458, symBinAddr: 0x46E50, symSize: 0xD8 }
  - { offset: 0xC226D, size: 0x8, addend: 0x0, symName: __RNCINvMsm_NtNtNtCse1nGBsou5OW_5alloc11collections5btree8navigateINtNtBa_4node6HandleINtB13_7NodeRefNtNtB13_6marker5DyingNtCs3cP53eQoTwO_11proc_macro25IdentNtNtBa_7set_val9SetValZSTNtB1B_4LeafENtB1B_4EdgeE27deallocating_next_uncheckedNtNtBe_5alloc6GlobalE0Csf44oge9wsd6_12snafu_derive, symObjAddr: 0x3B0C, symBinAddr: 0x44508, symSize: 0x58 }
  - { offset: 0xC22E5, size: 0x8, addend: 0x0, symName: __RNCINvMsm_NtNtNtCse1nGBsou5OW_5alloc11collections5btree8navigateINtNtBa_4node6HandleINtB13_7NodeRefNtNtB13_6marker5DyingRNtCs3cP53eQoTwO_11proc_macro25IdentNtNtBa_7set_val9SetValZSTNtB1B_4LeafENtB1B_4EdgeE27deallocating_next_uncheckedNtNtBe_5alloc6GlobalE0Csf44oge9wsd6_12snafu_derive, symObjAddr: 0x3B64, symBinAddr: 0x44560, symSize: 0x58 }
  - { offset: 0xC2369, size: 0x8, addend: 0x0, symName: __RNCNvMsk_NtNtNtCse1nGBsou5OW_5alloc11collections5btree8navigateINtNtB9_4node6HandleINtB12_7NodeRefNtNtB12_6marker5ImmutNtCs3cP53eQoTwO_11proc_macro25IdentNtNtB9_7set_val9SetValZSTNtB1A_4LeafENtB1A_4EdgeE14next_unchecked0Csf44oge9wsd6_12snafu_derive, symObjAddr: 0x3BBC, symBinAddr: 0x445B8, symSize: 0xE0 }
  - { offset: 0xC2426, size: 0x8, addend: 0x0, symName: __RNCNvMsk_NtNtNtCse1nGBsou5OW_5alloc11collections5btree8navigateINtNtB9_4node6HandleINtB12_7NodeRefNtNtB12_6marker5ImmutRNtCs3cP53eQoTwO_11proc_macro25IdentNtNtB9_7set_val9SetValZSTNtB1A_4LeafENtB1A_4EdgeE14next_unchecked0Csf44oge9wsd6_12snafu_derive, symObjAddr: 0x3C9C, symBinAddr: 0x44698, symSize: 0xE0 }
  - { offset: 0xC24F7, size: 0x8, addend: 0x0, symName: __RNCNvMsk_NtNtNtCse1nGBsou5OW_5alloc11collections5btree8navigateINtNtB9_4node6HandleINtB12_7NodeRefNtNtB12_6marker5ImmutRNtCs3cP53eQoTwO_11proc_macro25IdentNtNtB9_7set_val9SetValZSTNtB1A_4LeafENtB1A_4EdgeE19next_back_unchecked0Csf44oge9wsd6_12snafu_derive, symObjAddr: 0x3D7C, symBinAddr: 0x44778, symSize: 0xE0 }
  - { offset: 0xC4AB0, size: 0x8, addend: 0x0, symName: __RINvMNtCsfvfooZQ3Axs_4core6optionINtB3_6OptionIBw_RRNtCs3cP53eQoTwO_11proc_macro25IdentEE18get_or_insert_withNCNvMs3_NtNtNtB5_4iter8adapters8peekableINtB1R_8PeekableINtNtNtNtCse1nGBsou5OW_5alloc11collections5btree3set4IterBN_EE4peek0ECsf44oge9wsd6_12snafu_derive, symObjAddr: 0x0, symBinAddr: 0x40A38, symSize: 0xFC }
  - { offset: 0xC4C1E, size: 0x8, addend: 0x0, symName: __RINvMNtCsfvfooZQ3Axs_4core6optionINtB3_6OptionIBw_TRNtCs3cP53eQoTwO_11proc_macro25IdentNtNtNtNtCse1nGBsou5OW_5alloc11collections5btree7set_val9SetValZSTEEE18get_or_insert_withNCNvMs3_NtNtNtB5_4iter8adapters8peekableINtB2V_8PeekableINtNtB2X_3map3MapINtNtB2X_6cloned6ClonedINtNtB1r_3set10DifferenceBN_EENCINvMse_B4o_INtB4o_8BTreeSetBN_E16from_sorted_iterB3Y_E0EE4peek0ECsf44oge9wsd6_12snafu_derive, symObjAddr: 0xFC, symBinAddr: 0x40B34, symSize: 0xFC }
  - { offset: 0xC4D1C, size: 0x8, addend: 0x0, symName: __RINvMNtCsfvfooZQ3Axs_4core6optionINtB3_6OptionIBw_TRNtCs3cP53eQoTwO_11proc_macro25IdentNtNtNtNtCse1nGBsou5OW_5alloc11collections5btree7set_val9SetValZSTEEE18get_or_insert_withNCNvMs3_NtNtNtB5_4iter8adapters8peekableINtB2V_8PeekableINtNtB2X_3map3MapINtNtB2X_6cloned6ClonedINtNtB1r_3set12IntersectionBN_EENCINvMse_B4o_INtB4o_8BTreeSetBN_E16from_sorted_iterB3Y_E0EE4peek0ECsf44oge9wsd6_12snafu_derive, symObjAddr: 0x1F8, symBinAddr: 0x40C30, symSize: 0xFC }
  - { offset: 0xC4E27, size: 0x8, addend: 0x0, symName: __RINvMNtCsfvfooZQ3Axs_4core6optionINtB3_6OptionIBw_TRNtCs3cP53eQoTwO_11proc_macro25IdentNtNtNtNtCse1nGBsou5OW_5alloc11collections5btree7set_val9SetValZSTEEE18get_or_insert_withNCNvMs3_NtNtNtB5_4iter8adapters8peekableINtB2V_8PeekableINtNtB2X_3map3MapINtNtNtB1v_3vec9into_iter8IntoIterBN_ENCINvMse_NtB1r_3setINtB4J_8BTreeSetBN_E16from_sorted_iterB3Y_E0EE4peek0ECsf44oge9wsd6_12snafu_derive, symObjAddr: 0x2F4, symBinAddr: 0x40D2C, symSize: 0xFC }
  - { offset: 0xC9F5B, size: 0x8, addend: 0x0, symName: __RNvXNtCs5AlOhPCr03V_3syn7spannedNtNtB4_4data5FieldNtB2_7Spanned4spanCsf44oge9wsd6_12snafu_derive, symObjAddr: 0x5CAC, symBinAddr: 0x466A4, symSize: 0x34 }
  - { offset: 0xC9F90, size: 0x8, addend: 0x0, symName: __RNvXNtCs5AlOhPCr03V_3syn7spannedNtNtB4_4data6FieldsNtB2_7Spanned4spanCsf44oge9wsd6_12snafu_derive, symObjAddr: 0x5CE0, symBinAddr: 0x466D8, symSize: 0x34 }
  - { offset: 0xCB1A1, size: 0x8, addend: 0x0, symName: __RNvXNtCsf44oge9wsd6_12snafu_derive6sharedNtB2_11StaticIdentNtNtCs2cqEZUIJimJ_5quote9to_tokens8ToTokens9to_tokens, symObjAddr: 0x74DC, symBinAddr: 0x47ED4, symSize: 0xAC }
  - { offset: 0xCB8B4, size: 0x8, addend: 0x0, symName: __RINvMNtCsfvfooZQ3Axs_4core6optionINtB3_6OptionINtNtCs5AlOhPCr03V_3syn10punctuated4PairNtNtBN_4data5FieldNtNtBN_5token5CommaEE10ok_or_elseINtNtCse1nGBsou5OW_5alloc3vec3VecNtNtBN_5error5ErrorENCNvCsf44oge9wsd6_12snafu_derive24parse_snafu_tuple_struct0EB36_, symObjAddr: 0x3F0, symBinAddr: 0x40E28, symSize: 0xA4 }
  - { offset: 0xCB98C, size: 0x8, addend: 0x0, symName: __RINvMNtCsfvfooZQ3Axs_4core6optionINtB3_6OptionINtNtCs5AlOhPCr03V_3syn10punctuated4PairRNtNtCsf44oge9wsd6_12snafu_derive5parse11ProvideFlagRNtNtBN_5token5CommaEE7or_elseNCNvXsc_BL_INtBL_5PairsB1n_B2d_ENtNtNtNtB5_4iter6traits8iterator8Iterator4nexts_0EB1r_, symObjAddr: 0x494, symBinAddr: 0x40ECC, symSize: 0xB4 }
  - { offset: 0xCBA50, size: 0x8, addend: 0x0, symName: __RINvMNtCsfvfooZQ3Axs_4core6optionINtB3_6OptionINtNtCs5AlOhPCr03V_3syn10punctuated4PairRNtNtCsf44oge9wsd6_12snafu_derive5parse9SourceArgRNtNtBN_5token5CommaEE7or_elseNCNvXsc_BL_INtBL_5PairsB1n_B2a_ENtNtNtNtB5_4iter6traits8iterator8Iterator4nexts_0EB1r_, symObjAddr: 0x548, symBinAddr: 0x40F80, symSize: 0xB4 }
  - { offset: 0xCBB0D, size: 0x8, addend: 0x0, symName: __RINvMNtCsfvfooZQ3Axs_4core6optionINtB3_6OptionINtNtCse1nGBsou5OW_5alloc5boxed3BoxDNtNtCs2cqEZUIJimJ_5quote9to_tokens8ToTokensEL_EE14unwrap_or_elseNvCsf44oge9wsd6_12snafu_derive18default_crate_rootEB2m_, symObjAddr: 0x5FC, symBinAddr: 0x41034, symSize: 0x68 }
  - { offset: 0xCBB6F, size: 0x8, addend: 0x0, symName: __RINvMNtCsfvfooZQ3Axs_4core6optionINtB3_6OptionINtNtCse1nGBsou5OW_5alloc5boxed3BoxNtNtCs5AlOhPCr03V_3syn4data5FieldEE3mapINtNtB1l_10punctuated4PairB1h_NtNtB1l_5token5CommaENCNvMB1X_INtB1X_10PunctuatedB1h_B2o_E3pop0ECsf44oge9wsd6_12snafu_derive, symObjAddr: 0x664, symBinAddr: 0x4109C, symSize: 0x78 }
  - { offset: 0xCBBDA, size: 0x8, addend: 0x0, symName: __RINvMNtCsfvfooZQ3Axs_4core6optionINtB3_6OptionINtNtCse1nGBsou5OW_5alloc5boxed3BoxNtNtCs5AlOhPCr03V_3syn4data7VariantEE3mapB1h_NCNvXs8_NtB1l_10punctuatedINtB28_10PunctuatedB1h_NtNtB1l_5token5CommaENtNtNtNtB5_4iter6traits7collect12IntoIterator9into_iters_0ECsf44oge9wsd6_12snafu_derive, symObjAddr: 0x6DC, symBinAddr: 0x41114, symSize: 0x78 }
  - { offset: 0xCBC45, size: 0x8, addend: 0x0, symName: __RINvMNtCsfvfooZQ3Axs_4core6optionINtB3_6OptionINtNtCse1nGBsou5OW_5alloc5boxed3BoxNtNtCs5AlOhPCr03V_3syn4expr4ExprEE3mapB1h_NCNvXs8_NtB1l_10punctuatedINtB25_10PunctuatedB1h_NtNtB1l_5token5CommaENtNtNtNtB5_4iter6traits7collect12IntoIterator9into_iters_0ECsf44oge9wsd6_12snafu_derive, symObjAddr: 0x754, symBinAddr: 0x4118C, symSize: 0x7C }
  - { offset: 0xCBCD7, size: 0x8, addend: 0x0, symName: __RINvMNtCsfvfooZQ3Axs_4core6optionINtB3_6OptionINtNtCse1nGBsou5OW_5alloc5boxed3BoxNtNtCsf44oge9wsd6_12snafu_derive5parse9AttributeEE3mapB1h_NCNvXs8_NtCs5AlOhPCr03V_3syn10punctuatedINtB2l_10PunctuatedB1h_NtNtB2n_5token5CommaENtNtNtNtB5_4iter6traits7collect12IntoIterator9into_iters_0EB1l_, symObjAddr: 0x7D0, symBinAddr: 0x41208, symSize: 0x7C }
  - { offset: 0xCBD42, size: 0x8, addend: 0x0, symName: __RINvMNtCsfvfooZQ3Axs_4core6optionINtB3_6OptionINtNtCse1nGBsou5OW_5alloc5boxed3BoxNtNtCsf44oge9wsd6_12snafu_derive5parse9SourceArgEE3mapB1h_NCNvXs8_NtCs5AlOhPCr03V_3syn10punctuatedINtB2l_10PunctuatedB1h_NtNtB2n_5token5CommaENtNtNtNtB5_4iter6traits7collect12IntoIterator9into_iters_0EB1l_, symObjAddr: 0x84C, symBinAddr: 0x41284, symSize: 0x7C }
  - { offset: 0xCBDAD, size: 0x8, addend: 0x0, symName: __RINvMNtCsfvfooZQ3Axs_4core6optionINtB3_6OptionNtCsf44oge9wsd6_12snafu_derive11SourceFieldE10ok_or_elseINtNtCse1nGBsou5OW_5alloc3vec3VecNtNtCs5AlOhPCr03V_3syn5error5ErrorENCNvBK_15field_containers8_0EBK_, symObjAddr: 0x8C8, symBinAddr: 0x41300, symSize: 0xAC }
  - { offset: 0xCBE19, size: 0x8, addend: 0x0, symName: __RINvMNtCsfvfooZQ3Axs_4core6optionINtB3_6OptionNtCsf44oge9wsd6_12snafu_derive14TransformationE14unwrap_or_elseNCNvBK_15field_containers3_0EBK_, symObjAddr: 0x974, symBinAddr: 0x413AC, symSize: 0xAC }
  - { offset: 0xCBE7D, size: 0x8, addend: 0x0, symName: __RINvMNtCsfvfooZQ3Axs_4core6optionINtB3_6OptionNtCsf44oge9wsd6_12snafu_derive14TransformationE14unwrap_or_elseNCNvBK_24parse_snafu_tuple_structs0_0EBK_, symObjAddr: 0xA20, symBinAddr: 0x41458, symSize: 0xAC }
  - { offset: 0xCBEE1, size: 0x8, addend: 0x0, symName: __RINvMNtCsfvfooZQ3Axs_4core6optionINtB3_6OptionNtCsf44oge9wsd6_12snafu_derive5FieldE10ok_or_elseINtNtCse1nGBsou5OW_5alloc3vec3VecNtNtCs5AlOhPCr03V_3syn5error5ErrorENCNvBK_15field_containers6_0EBK_, symObjAddr: 0xACC, symBinAddr: 0x41504, symSize: 0xA4 }
  - { offset: 0xCBF4D, size: 0x8, addend: 0x0, symName: __RINvMNtCsfvfooZQ3Axs_4core6optionINtB3_6OptionNtNtCs5AlOhPCr03V_3syn3lit7LitBoolE6map_orbNCNvMs0_NtCsf44oge9wsd6_12snafu_derive5parseNtB1x_9Backtrace9into_bool0EB1z_, symObjAddr: 0xB70, symBinAddr: 0x415A8, symSize: 0xC4 }
  - { offset: 0xCBFBF, size: 0x8, addend: 0x0, symName: __RINvMNtCsfvfooZQ3Axs_4core6optionINtB3_6OptionNtNtCs5AlOhPCr03V_3syn3lit7LitBoolE6map_orbNCNvMsk_NtCsf44oge9wsd6_12snafu_derive5parseNtB1x_8Implicit9into_bool0EB1z_, symObjAddr: 0xC34, symBinAddr: 0x4166C, symSize: 0xC4 }
  - { offset: 0xCC031, size: 0x8, addend: 0x0, symName: __RINvMNtCsfvfooZQ3Axs_4core6optionINtB3_6OptionNtNtCs5AlOhPCr03V_3syn4data10VisibilityE11map_or_elseINtNtCse1nGBsou5OW_5alloc5boxed3BoxDNtNtCs2cqEZUIJimJ_5quote9to_tokens8ToTokensEL_ENvCsf44oge9wsd6_12snafu_derive18private_visibilityNCNvMsG_NtB2W_5parseNtB3Q_10Visibility14into_arbitrary0EB2W_, symObjAddr: 0xCF8, symBinAddr: 0x41730, symSize: 0x100 }
  - { offset: 0xCC0D9, size: 0x8, addend: 0x0, symName: __RINvMNtCsfvfooZQ3Axs_4core6optionINtB3_6OptionRINtNtCse1nGBsou5OW_5alloc5boxed3BoxDNtNtCs2cqEZUIJimJ_5quote9to_tokens8ToTokensEL_EE3mapRB1i_NCNvMsp_Csf44oge9wsd6_12snafu_deriveNtB2m_15NamedStructInfo14generate_snafu0EB2m_, symObjAddr: 0xDF8, symBinAddr: 0x41830, symSize: 0x58 }
  - { offset: 0xCC169, size: 0x8, addend: 0x0, symName: __RINvMNtCsfvfooZQ3Axs_4core6optionINtB3_6OptionRINtNtCse1nGBsou5OW_5alloc5boxed3BoxNtNtCsf44oge9wsd6_12snafu_derive5parse11ProvideFlagEE3mapRB1i_NvYBJ_INtNtB5_7convert5AsRefB1i_E6as_refEB1m_, symObjAddr: 0xE50, symBinAddr: 0x41888, symSize: 0x50 }
  - { offset: 0xCC1F9, size: 0x8, addend: 0x0, symName: __RINvMNtCsfvfooZQ3Axs_4core6optionINtB3_6OptionRINtNtCse1nGBsou5OW_5alloc5boxed3BoxNtNtCsf44oge9wsd6_12snafu_derive5parse9SourceArgEE3mapRB1i_NvYBJ_INtNtB5_7convert5AsRefB1i_E6as_refEB1m_, symObjAddr: 0xEA0, symBinAddr: 0x418D8, symSize: 0x50 }
  - { offset: 0xCC2EF, size: 0x8, addend: 0x0, symName: __RINvMNtCsfvfooZQ3Axs_4core6optionINtB3_6OptionRINtNtNtNtB5_4iter8adapters3map3MapINtNtCs5AlOhPCr03V_3syn10punctuated4IterNtNtB1m_8generics14WherePredicateENCNCNvMsr_Csf44oge9wsd6_12snafu_deriveNtB2D_15TupleStructInfo14generate_snafu00EE6map_orTjIBw_jEENvYBJ_NtNtNtBQ_6traits8iterator8Iterator9size_hintEB2D_, symObjAddr: 0xEF0, symBinAddr: 0x41928, symSize: 0xAC }
  - { offset: 0xCC38F, size: 0x8, addend: 0x0, symName: __RINvMNtCsfvfooZQ3Axs_4core6optionINtB3_6OptionRINtNtNtNtB5_4iter8adapters3map3MapINtNtCs5AlOhPCr03V_3syn10punctuated4IterNtNtB1m_8generics14WherePredicateENCNCNvYNtCsf44oge9wsd6_12snafu_derive15NamedStructInfoNtB2C_17GenericAwareNames22provided_where_clauses00EE6map_orTjIBw_jEENvYBJ_NtNtNtBQ_6traits8iterator8Iterator9size_hintEB2C_, symObjAddr: 0xF9C, symBinAddr: 0x419D4, symSize: 0xAC }
  - { offset: 0xCC42F, size: 0x8, addend: 0x0, symName: __RINvMNtCsfvfooZQ3Axs_4core6optionINtB3_6OptionRINtNtNtNtB5_4iter8adapters3map3MapINtNtCs5AlOhPCr03V_3syn10punctuated4IterNtNtB1m_8generics14WherePredicateENCNCNvYNtCsf44oge9wsd6_12snafu_derive8EnumInfoNtB2C_17GenericAwareNames22provided_where_clauses00EE6map_orTjIBw_jEENvYBJ_NtNtNtBQ_6traits8iterator8Iterator9size_hintEB2C_, symObjAddr: 0x1048, symBinAddr: 0x41A80, symSize: 0xAC }
  - { offset: 0xCC4AA, size: 0x8, addend: 0x0, symName: __RINvMNtCsfvfooZQ3Axs_4core6optionINtB3_6OptionRNtCs3cP53eQoTwO_11proc_macro25IdentE10ok_or_elseINtNtCse1nGBsou5OW_5alloc3vec3VecNtNtCs5AlOhPCr03V_3syn5error5ErrorENCNvCsf44oge9wsd6_12snafu_derive15field_container0EB2F_, symObjAddr: 0x10F4, symBinAddr: 0x41B2C, symSize: 0x7C }
  - { offset: 0xCC522, size: 0x8, addend: 0x0, symName: __RINvMNtCsfvfooZQ3Axs_4core6optionINtB3_6OptionRNtCsf44oge9wsd6_12snafu_derive11SourceFieldE3mapNtCs3cP53eQoTwO_11proc_macro211TokenStreamNCNvXs0_NtNtBL_6shared5errorNtB2j_20ErrorProvideMatchArmNtNtCs2cqEZUIJimJ_5quote9to_tokens8ToTokens9to_tokenss1_0EBL_, symObjAddr: 0x1170, symBinAddr: 0x41BA8, symSize: 0x6C }
  - { offset: 0xCC5A5, size: 0x8, addend: 0x0, symName: __RINvMNtCsfvfooZQ3Axs_4core6optionINtB3_6OptionRNtCsf44oge9wsd6_12snafu_derive11SourceFieldE3mapRNtCs3cP53eQoTwO_11proc_macro25IdentNvMs2_BL_BJ_4nameEBL_, symObjAddr: 0x11DC, symBinAddr: 0x41C14, symSize: 0x50 }
  - { offset: 0xCC63B, size: 0x8, addend: 0x0, symName: __RINvMNtCsfvfooZQ3Axs_4core6optionINtB3_6OptionRNtCsf44oge9wsd6_12snafu_derive11SourceFieldE3mapTRNtNtCs5AlOhPCr03V_3syn2ty4TypeRNtCs3cP53eQoTwO_11proc_macro25IdentENCNvXs0_NtNtBL_6shared5errorNtB2K_20ErrorProvideMatchArmNtNtCs2cqEZUIJimJ_5quote9to_tokens8ToTokens9to_tokenss0_0EBL_, symObjAddr: 0x122C, symBinAddr: 0x41C64, symSize: 0x58 }
  - { offset: 0xCC6A6, size: 0x8, addend: 0x0, symName: __RINvMNtCsfvfooZQ3Axs_4core6optionINtB3_6OptionRNtCsf44oge9wsd6_12snafu_derive11SourceFieldE6filterNCNvXs0_NtNtBL_6shared5errorNtB1G_20ErrorProvideMatchArmNtNtCs2cqEZUIJimJ_5quote9to_tokens8ToTokens9to_tokenss_0EBL_, symObjAddr: 0x1284, symBinAddr: 0x41CBC, symSize: 0xF8 }
  - { offset: 0xCC71A, size: 0x8, addend: 0x0, symName: __RINvMNtCsfvfooZQ3Axs_4core6optionINtB3_6OptionRNtCsf44oge9wsd6_12snafu_derive5FieldE3mapNtCs3cP53eQoTwO_11proc_macro211TokenStreamNCNvXs0_NtNtBL_6shared5errorNtB2c_20ErrorProvideMatchArmNtNtCs2cqEZUIJimJ_5quote9to_tokens8ToTokens9to_tokenss4_0EBL_, symObjAddr: 0x137C, symBinAddr: 0x41DB4, symSize: 0x78 }
  - { offset: 0xCC785, size: 0x8, addend: 0x0, symName: __RINvMNtCsfvfooZQ3Axs_4core6optionINtB3_6OptionRNtCsf44oge9wsd6_12snafu_derive5FieldE6filterNCNvXs0_NtNtBL_6shared5errorNtB1z_20ErrorProvideMatchArmNtNtCs2cqEZUIJimJ_5quote9to_tokens8ToTokens9to_tokenss3_0EBL_, symObjAddr: 0x13F4, symBinAddr: 0x41E2C, symSize: 0xF8 }
  - { offset: 0xCC7EC, size: 0x8, addend: 0x0, symName: __RINvMNtCsfvfooZQ3Axs_4core6optionINtB3_6OptionRNtCsf44oge9wsd6_12snafu_derive5FieldE7or_elseNCNvXs_NtNtNtB5_4iter8adapters5chainINtB1z_5ChainIB23_INtNtNtB5_5slice4iter4IterBJ_EB2k_EINtB3_8IntoIterBI_EENtNtNtB1D_6traits8iterator8Iterator4next0EBL_, symObjAddr: 0x14EC, symBinAddr: 0x41F24, symSize: 0xA8 }
  - { offset: 0xCC868, size: 0x8, addend: 0x0, symName: __RINvMNtCsfvfooZQ3Axs_4core6optionINtB3_6OptionRNtCsf44oge9wsd6_12snafu_derive5FieldE7or_elseNCNvXs_NtNtNtB5_4iter8adapters5chainINtB1z_5ChainINtNtNtB5_5slice4iter4IterBJ_EB2f_ENtNtNtB1D_6traits8iterator8Iterator4next0EBL_, symObjAddr: 0x1594, symBinAddr: 0x41FCC, symSize: 0xA8 }
  - { offset: 0xCC8CA, size: 0x8, addend: 0x0, symName: __RINvMNtCsfvfooZQ3Axs_4core6optionINtB3_6OptionRNtCsf44oge9wsd6_12snafu_derive5FieldE7or_elseNCNvXs_NtNtNtB5_4iter8adapters5chainINtB1z_5ChainINtNtNtB5_5slice4iter4IterBJ_EINtB3_8IntoIterBI_EENtNtNtB1D_6traits8iterator8Iterator4next0EBL_, symObjAddr: 0x163C, symBinAddr: 0x42074, symSize: 0xA8 }
  - { offset: 0xCC96D, size: 0x8, addend: 0x0, symName: __RINvMNtCsfvfooZQ3Axs_4core6optionINtB3_6OptionRNtNtCs5AlOhPCr03V_3syn8generics14WherePredicateE7or_elseNCNvXsw_NtBN_10punctuatedINtB1L_11PrivateIterBJ_NtNtBN_5token5CommaENtNtNtNtB5_4iter6traits8iterator8Iterator4nexts_0ECsf44oge9wsd6_12snafu_derive, symObjAddr: 0x16E4, symBinAddr: 0x4211C, symSize: 0xA8 }
  - { offset: 0xCC9CF, size: 0x8, addend: 0x0, symName: __RINvMNtCsfvfooZQ3Axs_4core6optionINtB3_6OptionRNtNtCs5AlOhPCr03V_3syn8generics14WherePredicateE7or_elseNCNvXsx_NtBN_10punctuatedINtB1L_11PrivateIterBJ_NtNtBN_5token5CommaENtNtNtNtB5_4iter6traits12double_ended19DoubleEndedIterator9next_back0ECsf44oge9wsd6_12snafu_derive, symObjAddr: 0x178C, symBinAddr: 0x421C4, symSize: 0xA8 }
  - { offset: 0xCCA49, size: 0x8, addend: 0x0, symName: __RINvMNtCsfvfooZQ3Axs_4core6optionINtB3_6OptionRNtNtCsf44oge9wsd6_12snafu_derive5parse11ProvideFlagE3mapINtNtCs5AlOhPCr03V_3syn10punctuated4PairBI_RNtNtB1I_5token5CommaENcNtB1D_3End0EBN_, symObjAddr: 0x1834, symBinAddr: 0x4226C, symSize: 0x68 }
  - { offset: 0xCCACE, size: 0x8, addend: 0x0, symName: __RINvMNtCsfvfooZQ3Axs_4core6optionINtB3_6OptionRNtNtCsf44oge9wsd6_12snafu_derive5parse11ProvideFlagE7or_elseNCNvXsw_NtCs5AlOhPCr03V_3syn10punctuatedINtB1P_11PrivateIterBJ_NtNtB1R_5token5CommaENtNtNtNtB5_4iter6traits8iterator8Iterator4nexts_0EBN_, symObjAddr: 0x189C, symBinAddr: 0x422D4, symSize: 0xA8 }
  - { offset: 0xCCB30, size: 0x8, addend: 0x0, symName: __RINvMNtCsfvfooZQ3Axs_4core6optionINtB3_6OptionRNtNtCsf44oge9wsd6_12snafu_derive5parse11ProvideFlagE7or_elseNCNvXsx_NtCs5AlOhPCr03V_3syn10punctuatedINtB1P_11PrivateIterBJ_NtNtB1R_5token5CommaENtNtNtNtB5_4iter6traits12double_ended19DoubleEndedIterator9next_back0EBN_, symObjAddr: 0x1944, symBinAddr: 0x4237C, symSize: 0xA8 }
  - { offset: 0xCCBAA, size: 0x8, addend: 0x0, symName: __RINvMNtCsfvfooZQ3Axs_4core6optionINtB3_6OptionRNtNtCsf44oge9wsd6_12snafu_derive5parse9SourceArgE3mapINtNtCs5AlOhPCr03V_3syn10punctuated4PairBI_RNtNtB1F_5token5CommaENcNtB1A_3End0EBN_, symObjAddr: 0x19EC, symBinAddr: 0x42424, symSize: 0x68 }
  - { offset: 0xCCC22, size: 0x8, addend: 0x0, symName: __RINvMNtCsfvfooZQ3Axs_4core6optionINtB3_6OptionRRRNtCs3cP53eQoTwO_11proc_macro25IdentE6map_orNtNtB5_3cmp8OrderingNCNvXsK_NtNtNtCse1nGBsou5OW_5alloc11collections5btree3setINtB1U_10DifferenceBK_ENtNtNtNtB5_4iter6traits8iterator8Iterator4next0ECsf44oge9wsd6_12snafu_derive, symObjAddr: 0x1A54, symBinAddr: 0x4248C, symSize: 0xB4 }
  - { offset: 0xCCC94, size: 0x8, addend: 0x0, symName: __RINvMNtCsfvfooZQ3Axs_4core6optionINtB3_6OptionRTNtNtCs5AlOhPCr03V_3syn8generics14WherePredicateNtNtBO_5token5CommaEE3mapRBK_NCNCNvXsx_NtBO_10punctuatedINtB28_11PrivateIterBK_B1v_ENtNtNtNtB5_4iter6traits12double_ended19DoubleEndedIterator9next_back00ECsf44oge9wsd6_12snafu_derive, symObjAddr: 0x1B08, symBinAddr: 0x42540, symSize: 0x50 }
  - { offset: 0xCCCFF, size: 0x8, addend: 0x0, symName: __RINvMNtCsfvfooZQ3Axs_4core6optionINtB3_6OptionRTNtNtCs5AlOhPCr03V_3syn8generics14WherePredicateNtNtBO_5token5CommaEE3mapRBK_NCNvXsw_NtBO_10punctuatedINtB26_11PrivateIterBK_B1v_ENtNtNtNtB5_4iter6traits8iterator8Iterator4next0ECsf44oge9wsd6_12snafu_derive, symObjAddr: 0x1B58, symBinAddr: 0x42590, symSize: 0x50 }
  - { offset: 0xCCD6A, size: 0x8, addend: 0x0, symName: __RINvMNtCsfvfooZQ3Axs_4core6optionINtB3_6OptionRTNtNtCsf44oge9wsd6_12snafu_derive5parse11ProvideFlagNtNtCs5AlOhPCr03V_3syn5token5CommaEE3mapINtNtB1D_10punctuated4PairRBK_RB1z_ENCNvXsc_B2g_INtB2g_5PairsBK_B1z_ENtNtNtNtB5_4iter6traits8iterator8Iterator4next0EBO_, symObjAddr: 0x1BA8, symBinAddr: 0x425E0, symSize: 0x68 }
  - { offset: 0xCCDD5, size: 0x8, addend: 0x0, symName: __RINvMNtCsfvfooZQ3Axs_4core6optionINtB3_6OptionRTNtNtCsf44oge9wsd6_12snafu_derive5parse11ProvideFlagNtNtCs5AlOhPCr03V_3syn5token5CommaEE3mapRBK_NCNCNvXsx_NtB1D_10punctuatedINtB2r_11PrivateIterBK_B1z_ENtNtNtNtB5_4iter6traits12double_ended19DoubleEndedIterator9next_back00EBO_, symObjAddr: 0x1C10, symBinAddr: 0x42648, symSize: 0x50 }
  - { offset: 0xCCE40, size: 0x8, addend: 0x0, symName: __RINvMNtCsfvfooZQ3Axs_4core6optionINtB3_6OptionRTNtNtCsf44oge9wsd6_12snafu_derive5parse11ProvideFlagNtNtCs5AlOhPCr03V_3syn5token5CommaEE3mapRBK_NCNvXsw_NtB1D_10punctuatedINtB2p_11PrivateIterBK_B1z_ENtNtNtNtB5_4iter6traits8iterator8Iterator4next0EBO_, symObjAddr: 0x1C60, symBinAddr: 0x42698, symSize: 0x50 }
  - { offset: 0xCCEAB, size: 0x8, addend: 0x0, symName: __RINvMNtCsfvfooZQ3Axs_4core6optionINtB3_6OptionRTNtNtCsf44oge9wsd6_12snafu_derive5parse9SourceArgNtNtCs5AlOhPCr03V_3syn5token5CommaEE3mapINtNtB1A_10punctuated4PairRBK_RB1w_ENCNvXsc_B2d_INtB2d_5PairsBK_B1w_ENtNtNtNtB5_4iter6traits8iterator8Iterator4next0EBO_, symObjAddr: 0x1CB0, symBinAddr: 0x426E8, symSize: 0x68 }
  - { offset: 0xCCF70, size: 0x8, addend: 0x0, symName: __RINvMNtCsfvfooZQ3Axs_4core6optionINtB3_6OptionTIBw_TNtNtCs5AlOhPCr03V_3syn2ty4TypeNtNtBS_4expr4ExprEENtCs3cP53eQoTwO_11proc_macro211TokenStreamEE7or_elseNCNvCsf44oge9wsd6_12snafu_derive15field_containers0_0EB2v_, symObjAddr: 0x1D18, symBinAddr: 0x42750, symSize: 0xF0 }
  - { offset: 0xCCFF2, size: 0x8, addend: 0x0, symName: __RINvMNtCsfvfooZQ3Axs_4core6optionINtB3_6OptionTINtNtCse1nGBsou5OW_5alloc5boxed3BoxDNtNtCs2cqEZUIJimJ_5quote9to_tokens8ToTokensEL_ENtCs3cP53eQoTwO_11proc_macro211TokenStreamEE3mapBJ_NCNvMsb_Csf44oge9wsd6_12snafu_deriveINtB31_9AtMostOneBJ_B24_E6finish0EB31_, symObjAddr: 0x1E08, symBinAddr: 0x42840, symSize: 0x88 }
  - { offset: 0xCD07C, size: 0x8, addend: 0x0, symName: __RINvMNtCsfvfooZQ3Axs_4core6optionINtB3_6OptionTNtCsf44oge9wsd6_12snafu_derive10ModuleNameNtCs3cP53eQoTwO_11proc_macro211TokenStreamEE3mapBJ_NCNvMsb_BL_INtBL_9AtMostOneBJ_B1p_E6finish0EBL_, symObjAddr: 0x1E90, symBinAddr: 0x428C8, symSize: 0x9C }
  - { offset: 0xCD106, size: 0x8, addend: 0x0, symName: __RINvMNtCsfvfooZQ3Axs_4core6optionINtB3_6OptionTNtCsf44oge9wsd6_12snafu_derive10SuffixKindNtCs3cP53eQoTwO_11proc_macro211TokenStreamEE3mapBJ_NCNvMsb_BL_INtBL_9AtMostOneBJ_B1p_E6finish0EBL_, symObjAddr: 0x1F2C, symBinAddr: 0x42964, symSize: 0x9C }
  - { offset: 0xCD192, size: 0x8, addend: 0x0, symName: __RINvMNtCsfvfooZQ3Axs_4core6optionINtB3_6OptionTNtCsf44oge9wsd6_12snafu_derive11SourceFieldNtCs3cP53eQoTwO_11proc_macro211TokenStreamEE3mapBJ_NCNvBL_15field_containers5_0EBL_, symObjAddr: 0x1FC8, symBinAddr: 0x42A00, symSize: 0xB0 }
  - { offset: 0xCD21E, size: 0x8, addend: 0x0, symName: __RINvMNtCsfvfooZQ3Axs_4core6optionINtB3_6OptionTNtCsf44oge9wsd6_12snafu_derive5FieldNtCs3cP53eQoTwO_11proc_macro211TokenStreamEE3mapBJ_NCNvBL_15field_containers9_0EBL_, symObjAddr: 0x2078, symBinAddr: 0x42AB0, symSize: 0xAC }
  - { offset: 0xCD2AA, size: 0x8, addend: 0x0, symName: __RINvMNtCsfvfooZQ3Axs_4core6optionINtB3_6OptionTNtCsf44oge9wsd6_12snafu_derive5FieldNtNtCs5AlOhPCr03V_3syn4data5FieldEE3mapBJ_NCNvMsb_BL_INtBL_9AtMostOneBJ_B1j_E6finish0EBL_, symObjAddr: 0x2124, symBinAddr: 0x42B5C, symSize: 0xAC }
  - { offset: 0xCD370, size: 0x8, addend: 0x0, symName: __RINvMNtCsfvfooZQ3Axs_4core6optionINtB3_6OptionTNtCsf44oge9wsd6_12snafu_derive7ContextNtCs3cP53eQoTwO_11proc_macro211TokenStreamEE3mapTTbNtBL_10SuffixKindEB1l_ENCNvBL_15field_containers4_0EBL_, symObjAddr: 0x21D0, symBinAddr: 0x42C08, symSize: 0xA8 }
  - { offset: 0xCD459, size: 0x8, addend: 0x0, symName: __RINvMNtCsfvfooZQ3Axs_4core6optionINtB3_6OptionTNtCsf44oge9wsd6_12snafu_derive7DisplayNtCs3cP53eQoTwO_11proc_macro211TokenStreamEE3mapBJ_NCNvMsb_BL_INtBL_9AtMostOneBJ_B1l_E6finish0EBL_, symObjAddr: 0x2278, symBinAddr: 0x42CB0, symSize: 0xA8 }
  - { offset: 0xCD4C5, size: 0x8, addend: 0x0, symName: __RINvMNtCsfvfooZQ3Axs_4core6optionINtB3_6OptionTNtNtCs5AlOhPCr03V_3syn2ty4TypeNtNtBN_4expr4ExprEE3mapNtCsf44oge9wsd6_12snafu_derive14TransformationNCNvB1C_15field_containers2_0EB1C_, symObjAddr: 0x2320, symBinAddr: 0x42D58, symSize: 0xC0 }
  - { offset: 0xCD532, size: 0x8, addend: 0x0, symName: __RINvMNtCsfvfooZQ3Axs_4core6optionINtB3_6OptionTNtNtCs5AlOhPCr03V_3syn2ty4TypeNtNtBN_4expr4ExprEE3mapNtCsf44oge9wsd6_12snafu_derive14TransformationNCNvB1C_24parse_snafu_tuple_structs_0EB1C_, symObjAddr: 0x23E0, symBinAddr: 0x42E18, symSize: 0xC0 }
  - { offset: 0xCD59F, size: 0x8, addend: 0x0, symName: __RINvMNtCsfvfooZQ3Axs_4core6optionINtB3_6OptionTNtNtCs5AlOhPCr03V_3syn4data5FieldNtNtBN_5token5CommaEE3mapINtNtBN_10punctuated4PairBJ_B1g_ENCNvMB1I_INtB1I_10PunctuatedBJ_B1g_E3pops_0ECsf44oge9wsd6_12snafu_derive, symObjAddr: 0x24A0, symBinAddr: 0x42ED8, symSize: 0xA8 }
  - { offset: 0xCD618, size: 0x8, addend: 0x0, symName: __RINvMNtCsfvfooZQ3Axs_4core6optionINtB3_6OptionTRNtNtCs5AlOhPCr03V_3syn2ty4TypeRNtCs3cP53eQoTwO_11proc_macro25IdentEE7or_elseNCNvXs_NtNtNtB5_4iter8adapters5chainINtB25_5ChainINtNtB27_7flatten7FlatMapIB2z_IB2z_INtNtNtB5_5slice4iter4IterNtCsf44oge9wsd6_12snafu_derive5FieldEB3k_EINtB3_8IntoIterRB3K_EEBv_NCNvXs0_NtNtB3M_6shared5errorNtB4X_20ErrorProvideMatchArmNtNtCs2cqEZUIJimJ_5quote9to_tokens8ToTokens9to_tokens0EIB4r_BI_EENtNtNtB29_6traits8iterator8Iterator4next0EB3M_, symObjAddr: 0x2548, symBinAddr: 0x42F80, symSize: 0xC8 }
  - { offset: 0xCD69A, size: 0x8, addend: 0x0, symName: __RINvMNtCsfvfooZQ3Axs_4core6optionINtB3_6OptionTTNtNtCs5AlOhPCr03V_3syn2ty4TypeNtNtBO_4expr4ExprENtCs3cP53eQoTwO_11proc_macro211TokenStreamEE3mapBJ_NCNvMsb_Csf44oge9wsd6_12snafu_deriveINtB2t_9AtMostOneBJ_B1w_E6finish0EB2t_, symObjAddr: 0x2610, symBinAddr: 0x43048, symSize: 0xB0 }
  - { offset: 0xCD724, size: 0x8, addend: 0x0, symName: __RINvMNtCsfvfooZQ3Axs_4core6optionINtB3_6OptionTuNtCs3cP53eQoTwO_11proc_macro211TokenStreamEE3mapuNCNvMsb_Csf44oge9wsd6_12snafu_deriveINtB1F_9AtMostOneuBK_E6finish0EB1F_, symObjAddr: 0x26C0, symBinAddr: 0x430F8, symSize: 0x7C }
  - { offset: 0xCD790, size: 0x8, addend: 0x0, symName: __RINvMNtCsfvfooZQ3Axs_4core6optionINtB3_6OptionTuNtCs3cP53eQoTwO_11proc_macro211TokenStreamEE7or_elseNCNvCsf44oge9wsd6_12snafu_derive15field_containers1_0EB1E_, symObjAddr: 0x273C, symBinAddr: 0x43174, symSize: 0xE4 }
  - { offset: 0xCD83D, size: 0x8, addend: 0x0, symName: __RINvMsb_NtNtNtCse1nGBsou5OW_5alloc11collections5btree8navigateINtB6_13LazyLeafRangeNtNtNtB8_4node6marker5DyingNtCs3cP53eQoTwO_11proc_macro25IdentNtNtB8_7set_val9SetValZSTE16deallocating_endNtNtBc_5alloc6GlobalECsf44oge9wsd6_12snafu_derive, symObjAddr: 0x2820, symBinAddr: 0x43258, symSize: 0xA8 }
  - { offset: 0xCD90F, size: 0x8, addend: 0x0, symName: __RINvMsb_NtNtNtCse1nGBsou5OW_5alloc11collections5btree8navigateINtB6_13LazyLeafRangeNtNtNtB8_4node6marker5DyingNtCs3cP53eQoTwO_11proc_macro25IdentNtNtB8_7set_val9SetValZSTE27deallocating_next_uncheckedNtNtBc_5alloc6GlobalECsf44oge9wsd6_12snafu_derive, symObjAddr: 0x28C8, symBinAddr: 0x43300, symSize: 0xA8 }
  - { offset: 0xCD9C6, size: 0x8, addend: 0x0, symName: __RINvMsb_NtNtNtCse1nGBsou5OW_5alloc11collections5btree8navigateINtB6_13LazyLeafRangeNtNtNtB8_4node6marker5DyingRNtCs3cP53eQoTwO_11proc_macro25IdentNtNtB8_7set_val9SetValZSTE16deallocating_endNtNtBc_5alloc6GlobalECsf44oge9wsd6_12snafu_derive, symObjAddr: 0x2970, symBinAddr: 0x433A8, symSize: 0xA8 }
  - { offset: 0xCDA98, size: 0x8, addend: 0x0, symName: __RINvMsb_NtNtNtCse1nGBsou5OW_5alloc11collections5btree8navigateINtB6_13LazyLeafRangeNtNtNtB8_4node6marker5DyingRNtCs3cP53eQoTwO_11proc_macro25IdentNtNtB8_7set_val9SetValZSTE27deallocating_next_uncheckedNtNtBc_5alloc6GlobalECsf44oge9wsd6_12snafu_derive, symObjAddr: 0x2A18, symBinAddr: 0x43450, symSize: 0xA8 }
  - { offset: 0xCDFE2, size: 0x8, addend: 0x0, symName: __RNvMNtCsfvfooZQ3Axs_4core6optionINtB2_6OptionINtNtCse1nGBsou5OW_5alloc5boxed3BoxDNtNtCs2cqEZUIJimJ_5quote9to_tokens8ToTokensEL_EE6as_refCsf44oge9wsd6_12snafu_derive, symObjAddr: 0x3E90, symBinAddr: 0x4488C, symSize: 0x4C }
  - { offset: 0xCE039, size: 0x8, addend: 0x0, symName: __RNvMNtCsfvfooZQ3Axs_4core6optionINtB2_6OptionINtNtCse1nGBsou5OW_5alloc5boxed3BoxNtNtCsf44oge9wsd6_12snafu_derive5parse11ProvideFlagEE4takeB1k_, symObjAddr: 0x3EDC, symBinAddr: 0x448D8, symSize: 0x28 }
  - { offset: 0xCE0CC, size: 0x8, addend: 0x0, symName: __RNvMNtCsfvfooZQ3Axs_4core6optionINtB2_6OptionINtNtCse1nGBsou5OW_5alloc5boxed3BoxNtNtCsf44oge9wsd6_12snafu_derive5parse11ProvideFlagEE6as_refB1k_, symObjAddr: 0x3F04, symBinAddr: 0x44900, symSize: 0x4C }
  - { offset: 0xCE132, size: 0x8, addend: 0x0, symName: __RNvMNtCsfvfooZQ3Axs_4core6optionINtB2_6OptionINtNtCse1nGBsou5OW_5alloc5boxed3BoxNtNtCsf44oge9wsd6_12snafu_derive5parse11ProvideFlagEE7is_noneB1k_, symObjAddr: 0x3F50, symBinAddr: 0x4494C, symSize: 0x28 }
  - { offset: 0xCE17C, size: 0x8, addend: 0x0, symName: __RNvMNtCsfvfooZQ3Axs_4core6optionINtB2_6OptionINtNtCse1nGBsou5OW_5alloc5boxed3BoxNtNtCsf44oge9wsd6_12snafu_derive5parse11ProvideFlagEE7is_someB1k_, symObjAddr: 0x3F78, symBinAddr: 0x44974, symSize: 0x28 }
  - { offset: 0xCE1B5, size: 0x8, addend: 0x0, symName: __RNvMNtCsfvfooZQ3Axs_4core6optionINtB2_6OptionINtNtCse1nGBsou5OW_5alloc5boxed3BoxNtNtCsf44oge9wsd6_12snafu_derive5parse9AttributeEE4takeB1k_, symObjAddr: 0x3FA0, symBinAddr: 0x4499C, symSize: 0x28 }
  - { offset: 0xCE264, size: 0x8, addend: 0x0, symName: __RNvMNtCsfvfooZQ3Axs_4core6optionINtB2_6OptionINtNtCse1nGBsou5OW_5alloc5boxed3BoxNtNtCsf44oge9wsd6_12snafu_derive5parse9AttributeEE7is_noneB1k_, symObjAddr: 0x3FC8, symBinAddr: 0x449C4, symSize: 0x28 }
  - { offset: 0xCE2AE, size: 0x8, addend: 0x0, symName: __RNvMNtCsfvfooZQ3Axs_4core6optionINtB2_6OptionINtNtCse1nGBsou5OW_5alloc5boxed3BoxNtNtCsf44oge9wsd6_12snafu_derive5parse9AttributeEE7is_someB1k_, symObjAddr: 0x3FF0, symBinAddr: 0x449EC, symSize: 0x28 }
  - { offset: 0xCE2E7, size: 0x8, addend: 0x0, symName: __RNvMNtCsfvfooZQ3Axs_4core6optionINtB2_6OptionINtNtCse1nGBsou5OW_5alloc5boxed3BoxNtNtCsf44oge9wsd6_12snafu_derive5parse9SourceArgEE4takeB1k_, symObjAddr: 0x4018, symBinAddr: 0x44A14, symSize: 0x28 }
  - { offset: 0xCE37A, size: 0x8, addend: 0x0, symName: __RNvMNtCsfvfooZQ3Axs_4core6optionINtB2_6OptionINtNtCse1nGBsou5OW_5alloc5boxed3BoxNtNtCsf44oge9wsd6_12snafu_derive5parse9SourceArgEE6as_refB1k_, symObjAddr: 0x4040, symBinAddr: 0x44A3C, symSize: 0x4C }
  - { offset: 0xCE3E0, size: 0x8, addend: 0x0, symName: __RNvMNtCsfvfooZQ3Axs_4core6optionINtB2_6OptionINtNtCse1nGBsou5OW_5alloc5boxed3BoxNtNtCsf44oge9wsd6_12snafu_derive5parse9SourceArgEE7is_noneB1k_, symObjAddr: 0x408C, symBinAddr: 0x44A88, symSize: 0x28 }
  - { offset: 0xCE42A, size: 0x8, addend: 0x0, symName: __RNvMNtCsfvfooZQ3Axs_4core6optionINtB2_6OptionINtNtCse1nGBsou5OW_5alloc5boxed3BoxNtNtCsf44oge9wsd6_12snafu_derive5parse9SourceArgEE7is_someB1k_, symObjAddr: 0x40B4, symBinAddr: 0x44AB0, symSize: 0x28 }
  - { offset: 0xCE456, size: 0x8, addend: 0x0, symName: __RNvMNtCsfvfooZQ3Axs_4core6optionINtB2_6OptionNtCs3cP53eQoTwO_11proc_macro24SpanE2orCsf44oge9wsd6_12snafu_derive, symObjAddr: 0x40DC, symBinAddr: 0x44AD8, symSize: 0x80 }
  - { offset: 0xCE4BC, size: 0x8, addend: 0x0, symName: __RNvMNtCsfvfooZQ3Axs_4core6optionINtB2_6OptionNtCs3cP53eQoTwO_11proc_macro25IdentE6as_refCsf44oge9wsd6_12snafu_derive, symObjAddr: 0x415C, symBinAddr: 0x44B58, symSize: 0x4C }
  - { offset: 0xCE520, size: 0x8, addend: 0x0, symName: __RNvMNtCsfvfooZQ3Axs_4core6optionINtB2_6OptionNtCsf44oge9wsd6_12snafu_derive10DocCommentE6as_refBJ_, symObjAddr: 0x41A8, symBinAddr: 0x44BA4, symSize: 0x50 }
  - { offset: 0xCE56A, size: 0x8, addend: 0x0, symName: __RNvMNtCsfvfooZQ3Axs_4core6optionINtB2_6OptionNtCsf44oge9wsd6_12snafu_derive10SuffixKindE9unwrap_orBJ_, symObjAddr: 0x41F8, symBinAddr: 0x44BF4, symSize: 0x88 }
  - { offset: 0xCE5D2, size: 0x8, addend: 0x0, symName: __RNvMNtCsfvfooZQ3Axs_4core6optionINtB2_6OptionNtCsf44oge9wsd6_12snafu_derive11SourceFieldE6as_refBJ_, symObjAddr: 0x4280, symBinAddr: 0x44C7C, symSize: 0x54 }
  - { offset: 0xCE629, size: 0x8, addend: 0x0, symName: __RNvMNtCsfvfooZQ3Axs_4core6optionINtB2_6OptionNtCsf44oge9wsd6_12snafu_derive5FieldE6as_refBJ_, symObjAddr: 0x42D4, symBinAddr: 0x44CD0, symSize: 0x50 }
  - { offset: 0xCE68D, size: 0x8, addend: 0x0, symName: __RNvMNtCsfvfooZQ3Axs_4core6optionINtB2_6OptionNtCsf44oge9wsd6_12snafu_derive7DisplayE6as_refBJ_, symObjAddr: 0x4324, symBinAddr: 0x44D20, symSize: 0x50 }
  - { offset: 0xCE6E4, size: 0x8, addend: 0x0, symName: __RNvMNtCsfvfooZQ3Axs_4core6optionINtB2_6OptionNtNtCs5AlOhPCr03V_3syn5token5AsyncE7is_someCsf44oge9wsd6_12snafu_derive, symObjAddr: 0x4374, symBinAddr: 0x44D70, symSize: 0x20 }
  - { offset: 0xCE748, size: 0x8, addend: 0x0, symName: __RNvMNtCsfvfooZQ3Axs_4core6optionINtB2_6OptionNtNtCs5AlOhPCr03V_3syn8generics11WhereClauseE4iterCsf44oge9wsd6_12snafu_derive, symObjAddr: 0x4394, symBinAddr: 0x44D90, symSize: 0x50 }
  - { offset: 0xCE7B5, size: 0x8, addend: 0x0, symName: __RNvMNtCsfvfooZQ3Axs_4core6optionINtB2_6OptionRNtCsf44oge9wsd6_12snafu_derive11SourceFieldE7is_someBK_, symObjAddr: 0x43E4, symBinAddr: 0x44DE0, symSize: 0x28 }
  - { offset: 0xCE7EE, size: 0x8, addend: 0x0, symName: __RNvMNtCsfvfooZQ3Axs_4core6optionINtB2_6OptionTNtNtCs5AlOhPCr03V_3syn2ty4TypeNtNtBM_4expr4ExprEE7is_someCsf44oge9wsd6_12snafu_derive, symObjAddr: 0x440C, symBinAddr: 0x44E08, symSize: 0x30 }
  - { offset: 0xCE827, size: 0x8, addend: 0x0, symName: __RNvMNtCsfvfooZQ3Axs_4core6optionINtB2_6OptionTuNtCs3cP53eQoTwO_11proc_macro211TokenStreamEE7is_someCsf44oge9wsd6_12snafu_derive, symObjAddr: 0x443C, symBinAddr: 0x44E38, symSize: 0x2C }
  - { offset: 0xCE860, size: 0x8, addend: 0x0, symName: __RNvMNtCsfvfooZQ3Axs_4core6optionINtB2_6OptionuE7is_someCsf44oge9wsd6_12snafu_derive, symObjAddr: 0x4468, symBinAddr: 0x44E64, symSize: 0x24 }
  - { offset: 0xCE88C, size: 0x8, addend: 0x0, symName: __RNvMs0_NtCsfvfooZQ3Axs_4core6optionINtB5_6OptionRNtCs3cP53eQoTwO_11proc_macro25IdentE6clonedCsf44oge9wsd6_12snafu_derive, symObjAddr: 0x448C, symBinAddr: 0x44E88, symSize: 0x6C }
  - { offset: 0xCEA6C, size: 0x8, addend: 0x0, symName: __RNvMsb_NtNtNtCse1nGBsou5OW_5alloc11collections5btree8navigateINtB5_13LazyLeafRangeNtNtNtB7_4node6marker5DyingNtCs3cP53eQoTwO_11proc_macro25IdentNtNtB7_7set_val9SetValZSTE10take_frontCsf44oge9wsd6_12snafu_derive, symObjAddr: 0x44F8, symBinAddr: 0x44EF4, symSize: 0x1C4 }
  - { offset: 0xCEE11, size: 0x8, addend: 0x0, symName: __RNvMsb_NtNtNtCse1nGBsou5OW_5alloc11collections5btree8navigateINtB5_13LazyLeafRangeNtNtNtB7_4node6marker5DyingRNtCs3cP53eQoTwO_11proc_macro25IdentNtNtB7_7set_val9SetValZSTE10take_frontCsf44oge9wsd6_12snafu_derive, symObjAddr: 0x46BC, symBinAddr: 0x450B8, symSize: 0x1C4 }
  - { offset: 0xCF19A, size: 0x8, addend: 0x0, symName: __RNvMsc_NtNtNtCse1nGBsou5OW_5alloc11collections5btree8navigateINtB5_13LazyLeafRangeNtNtNtB7_4node6marker5DyingNtCs3cP53eQoTwO_11proc_macro25IdentNtNtB7_7set_val9SetValZSTE10init_frontCsf44oge9wsd6_12snafu_derive, symObjAddr: 0x4880, symBinAddr: 0x4527C, symSize: 0x1C4 }
  - { offset: 0xCF47C, size: 0x8, addend: 0x0, symName: __RNvMsc_NtNtNtCse1nGBsou5OW_5alloc11collections5btree8navigateINtB5_13LazyLeafRangeNtNtNtB7_4node6marker5DyingRNtCs3cP53eQoTwO_11proc_macro25IdentNtNtB7_7set_val9SetValZSTE10init_frontCsf44oge9wsd6_12snafu_derive, symObjAddr: 0x4A44, symBinAddr: 0x45440, symSize: 0x1C4 }
  - { offset: 0xCF796, size: 0x8, addend: 0x0, symName: __RNvMsc_NtNtNtCse1nGBsou5OW_5alloc11collections5btree8navigateINtB5_13LazyLeafRangeNtNtNtB7_4node6marker5ImmutNtCs3cP53eQoTwO_11proc_macro25IdentNtNtB7_7set_val9SetValZSTE10init_frontCsf44oge9wsd6_12snafu_derive, symObjAddr: 0x4C08, symBinAddr: 0x45604, symSize: 0x1C4 }
  - { offset: 0xCFA92, size: 0x8, addend: 0x0, symName: __RNvMsc_NtNtNtCse1nGBsou5OW_5alloc11collections5btree8navigateINtB5_13LazyLeafRangeNtNtNtB7_4node6marker5ImmutRNtCs3cP53eQoTwO_11proc_macro25IdentNtNtB7_7set_val9SetValZSTE10init_frontCsf44oge9wsd6_12snafu_derive, symObjAddr: 0x4DCC, symBinAddr: 0x457C8, symSize: 0x1C4 }
  - { offset: 0xCFC18, size: 0x8, addend: 0x0, symName: __RNvMsc_NtNtNtCse1nGBsou5OW_5alloc11collections5btree8navigateINtB5_13LazyLeafRangeNtNtNtB7_4node6marker5ImmutRNtCs3cP53eQoTwO_11proc_macro25IdentNtNtB7_7set_val9SetValZSTE9init_backCsf44oge9wsd6_12snafu_derive, symObjAddr: 0x4F90, symBinAddr: 0x4598C, symSize: 0x10C }
  - { offset: 0xCFDF0, size: 0x8, addend: 0x0, symName: __RNvXNtCs2cqEZUIJimJ_5quote9to_tokensRINtNtCsfvfooZQ3Axs_4core6option6OptionNtNtCs5AlOhPCr03V_3syn5token5ColonENtB2_8ToTokens9to_tokensCsf44oge9wsd6_12snafu_derive, symObjAddr: 0x5BEC, symBinAddr: 0x465E4, symSize: 0x40 }
  - { offset: 0xCFE2F, size: 0x8, addend: 0x0, symName: __RNvXNtCs2cqEZUIJimJ_5quote9to_tokensRINtNtCsfvfooZQ3Axs_4core6option6OptionRDNtB2_8ToTokensEL_EB1d_9to_tokensCsf44oge9wsd6_12snafu_derive, symObjAddr: 0x5C2C, symBinAddr: 0x46624, symSize: 0x40 }
  - { offset: 0xCFE6E, size: 0x8, addend: 0x0, symName: __RNvXNtCs2cqEZUIJimJ_5quote9to_tokensRNtNtCs5AlOhPCr03V_3syn4data6FieldsNtB2_8ToTokens9to_tokensCsf44oge9wsd6_12snafu_derive, symObjAddr: 0x5C6C, symBinAddr: 0x46664, symSize: 0x40 }
  - { offset: 0xCFEB3, size: 0x8, addend: 0x0, symName: __RNvXs3_NtCs2cqEZUIJimJ_5quote9to_tokensINtNtCsfvfooZQ3Axs_4core6option6OptionINtNtCse1nGBsou5OW_5alloc5boxed3BoxDNtB5_8ToTokensEL_EEB1N_9to_tokensCsf44oge9wsd6_12snafu_derive, symObjAddr: 0x5E0C, symBinAddr: 0x46804, symSize: 0x84 }
  - { offset: 0xCFF0F, size: 0x8, addend: 0x0, symName: __RNvXs3_NtCs2cqEZUIJimJ_5quote9to_tokensINtNtCsfvfooZQ3Axs_4core6option6OptionNtCs3cP53eQoTwO_11proc_macro211TokenStreamENtB5_8ToTokens9to_tokensCsf44oge9wsd6_12snafu_derive, symObjAddr: 0x5E90, symBinAddr: 0x46888, symSize: 0x88 }
  - { offset: 0xCFF6B, size: 0x8, addend: 0x0, symName: __RNvXs3_NtCs2cqEZUIJimJ_5quote9to_tokensINtNtCsfvfooZQ3Axs_4core6option6OptionNtNtCs5AlOhPCr03V_3syn5token5ColonENtB5_8ToTokens9to_tokensCsf44oge9wsd6_12snafu_derive, symObjAddr: 0x5F18, symBinAddr: 0x46910, symSize: 0x80 }
  - { offset: 0xCFFC7, size: 0x8, addend: 0x0, symName: __RNvXs3_NtCs2cqEZUIJimJ_5quote9to_tokensINtNtCsfvfooZQ3Axs_4core6option6OptionRDNtB5_8ToTokensEL_EB1f_9to_tokensCsf44oge9wsd6_12snafu_derive, symObjAddr: 0x5F98, symBinAddr: 0x46990, symSize: 0x84 }
  - { offset: 0xD0029, size: 0x8, addend: 0x0, symName: __RNvYINtNtCsfvfooZQ3Axs_4core6option6OptionINtNtCse1nGBsou5OW_5alloc5boxed3BoxDNtNtCs2cqEZUIJimJ_5quote9to_tokens8ToTokensEL_EEB1e_15to_token_streamCsf44oge9wsd6_12snafu_derive, symObjAddr: 0x6EDC, symBinAddr: 0x478D4, symSize: 0x8C }
  - { offset: 0xD0073, size: 0x8, addend: 0x0, symName: __RNvYNtNtCs5AlOhPCr03V_3syn4data10VisibilityNtNtCs2cqEZUIJimJ_5quote9to_tokens8ToTokens15to_token_streamCsf44oge9wsd6_12snafu_derive, symObjAddr: 0x71A0, symBinAddr: 0x47B98, symSize: 0x8C }
  - { offset: 0xD00BD, size: 0x8, addend: 0x0, symName: __RNvYNtNtCs5AlOhPCr03V_3syn4data5FieldNtNtCs2cqEZUIJimJ_5quote9to_tokens8ToTokens15to_token_streamCsf44oge9wsd6_12snafu_derive, symObjAddr: 0x722C, symBinAddr: 0x47C24, symSize: 0x8C }
  - { offset: 0xD0107, size: 0x8, addend: 0x0, symName: __RNvYNtNtCs5AlOhPCr03V_3syn4data5FieldNtNtCs2cqEZUIJimJ_5quote9to_tokens8ToTokens17into_token_streamCsf44oge9wsd6_12snafu_derive, symObjAddr: 0x72B8, symBinAddr: 0x47CB0, symSize: 0x64 }
  - { offset: 0xD013D, size: 0x8, addend: 0x0, symName: __RNvYRNtNtCs5AlOhPCr03V_3syn4data5FieldNtNtCs2cqEZUIJimJ_5quote9to_tokens8ToTokens15to_token_streamCsf44oge9wsd6_12snafu_derive, symObjAddr: 0x731C, symBinAddr: 0x47D14, symSize: 0x8C }
  - { offset: 0xD0187, size: 0x8, addend: 0x0, symName: __RNvYRNtNtCs5AlOhPCr03V_3syn4data5FieldNtNtCs2cqEZUIJimJ_5quote9to_tokens8ToTokens17into_token_streamCsf44oge9wsd6_12snafu_derive, symObjAddr: 0x73A8, symBinAddr: 0x47DA0, symSize: 0x54 }
  - { offset: 0xD01BC, size: 0x8, addend: 0x0, symName: __RNvYRNtNtCs5AlOhPCr03V_3syn4data6FieldsNtNtCs2cqEZUIJimJ_5quote9to_tokens8ToTokens15to_token_streamCsf44oge9wsd6_12snafu_derive, symObjAddr: 0x73FC, symBinAddr: 0x47DF4, symSize: 0x8C }
  - { offset: 0xD0206, size: 0x8, addend: 0x0, symName: __RNvYRNtNtCs5AlOhPCr03V_3syn4data6FieldsNtNtCs2cqEZUIJimJ_5quote9to_tokens8ToTokens17into_token_streamCsf44oge9wsd6_12snafu_derive, symObjAddr: 0x7488, symBinAddr: 0x47E80, symSize: 0x54 }
  - { offset: 0xD0247, size: 0x8, addend: 0x0, symName: __RNvXs0_NtCs2cqEZUIJimJ_5quote7spannedNtNtCs5AlOhPCr03V_3syn4data5FieldNtB5_7Spanned6___spanCsf44oge9wsd6_12snafu_derive, symObjAddr: 0x5D4C, symBinAddr: 0x46744, symSize: 0x44 }
  - { offset: 0xD027C, size: 0x8, addend: 0x0, symName: __RNvXs0_NtCs2cqEZUIJimJ_5quote7spannedNtNtCs5AlOhPCr03V_3syn4data6FieldsNtB5_7Spanned6___spanCsf44oge9wsd6_12snafu_derive, symObjAddr: 0x5D90, symBinAddr: 0x46788, symSize: 0x44 }
  - { offset: 0xD02C2, size: 0x8, addend: 0x0, symName: __RNvYINtNtCsfvfooZQ3Axs_4core6option6OptionRDNtNtCs2cqEZUIJimJ_5quote9to_tokens8ToTokensEL_ENtNtNtBK_9___private3ext14RepToTokensExt15quote_into_iterCsf44oge9wsd6_12snafu_derive, symObjAddr: 0x6F68, symBinAddr: 0x47960, symSize: 0x24 }
  - { offset: 0xD02F7, size: 0x8, addend: 0x0, symName: __RNvYINtNtCsfvfooZQ3Axs_4core6option6OptionRDNtNtCs2cqEZUIJimJ_5quote9to_tokens8ToTokensEL_ENtNtNtBK_9___private3ext14RepToTokensExt4nextCsf44oge9wsd6_12snafu_derive, symObjAddr: 0x6F8C, symBinAddr: 0x47984, symSize: 0x2C }
  - { offset: 0xD080F, size: 0x8, addend: 0x0, symName: __RNvMs_NtCsf44oge9wsd6_12snafu_derive6sharedNtB4_13AllFieldNames11field_names, symObjAddr: 0x7588, symBinAddr: 0x47F80, symSize: 0x13C }
  - { offset: 0xD0CE0, size: 0x8, addend: 0x0, symName: __RINvMNtCs5AlOhPCr03V_3syn9lookaheadNtB3_10Lookahead14peekINvNtNtCsf44oge9wsd6_12snafu_derive5parse2kw10crate_rootNtB3_11TokenMarkerEEB10_, symObjAddr: 0x0, symBinAddr: 0x480BC, symSize: 0x44 }
  - { offset: 0xD1765, size: 0x8, addend: 0x0, symName: __RNCINvXs7_Cs3cP53eQoTwO_11proc_macro2NtB8_11TokenStreamINtNtNtNtCsfvfooZQ3Axs_4core4iter6traits7collect12FromIteratorBz_E9from_iterINtNtNtBY_8adapters3map3MapINtNtB2a_5chain5ChainINtNtNtB10_5slice4iter4IterNtCsf44oge9wsd6_12snafu_derive5FieldEINtNtB10_6option8IntoIterRB3i_EENCNvMs_NtNtB3k_6shared16context_selectorNtB4w_15ContextSelector41construct_implicit_fields_with_expression0EE0B3k_, symObjAddr: 0x1DA4, symBinAddr: 0x49E60, symSize: 0x30 }
  - { offset: 0xD17A8, size: 0x8, addend: 0x0, symName: __RINvXs7_Cs3cP53eQoTwO_11proc_macro2NtB6_11TokenStreamINtNtNtNtCsfvfooZQ3Axs_4core4iter6traits7collect12FromIteratorBx_E9from_iterINtNtNtBW_8adapters3map3MapINtNtB28_5chain5ChainINtNtNtBY_5slice4iter4IterNtCsf44oge9wsd6_12snafu_derive5FieldEINtNtBY_6option8IntoIterRB3f_EENCNvMs_NtNtB3h_6shared16context_selectorNtB4s_15ContextSelector41construct_implicit_fields_with_expression0EEB3h_, symObjAddr: 0x1B48, symBinAddr: 0x49C04, symSize: 0x64 }
  - { offset: 0xD17E6, size: 0x8, addend: 0x0, symName: __RINvXs4_Cs3cP53eQoTwO_11proc_macro2NtB6_11TokenStreamINtNtNtNtCsfvfooZQ3Axs_4core4iter6traits7collect6ExtendNtB6_9TokenTreeE6extendBx_ECsf44oge9wsd6_12snafu_derive, symObjAddr: 0x1B14, symBinAddr: 0x49BD0, symSize: 0x34 }
  - { offset: 0xD182F, size: 0x8, addend: 0x0, symName: __RNvXsG_Cs3cP53eQoTwO_11proc_macro2NtB5_11TokenStreamNtNtCsfvfooZQ3Axs_4core5clone5Clone5cloneCsf44oge9wsd6_12snafu_derive, symObjAddr: 0x2B6C, symBinAddr: 0x4AC28, symSize: 0x78 }
  - { offset: 0xD1861, size: 0x8, addend: 0x0, symName: __RNvXsY_Cs3cP53eQoTwO_11proc_macro2NtB5_5IdentNtNtCsfvfooZQ3Axs_4core5clone5Clone5cloneCsf44oge9wsd6_12snafu_derive, symObjAddr: 0x3744, symBinAddr: 0x4B800, symSize: 0x78 }
  - { offset: 0xD1BDA, size: 0x8, addend: 0x0, symName: __RNvXs7_NtNtCsfvfooZQ3Axs_4core3cmp5implsRNtCs3cP53eQoTwO_11proc_macro25IdentNtB7_9PartialEq2neCsf44oge9wsd6_12snafu_derive, symObjAddr: 0x2AD0, symBinAddr: 0x4AB8C, symSize: 0x34 }
  - { offset: 0xD1C6B, size: 0x8, addend: 0x0, symName: __RNvXs8_NtNtCsfvfooZQ3Axs_4core3cmp5implsRNtCs3cP53eQoTwO_11proc_macro25IdentNtB7_10PartialOrd2ltCsf44oge9wsd6_12snafu_derive, symObjAddr: 0x2B04, symBinAddr: 0x4ABC0, symSize: 0x34 }
  - { offset: 0xD1CC0, size: 0x8, addend: 0x0, symName: __RNvXs9_NtNtCsfvfooZQ3Axs_4core3cmp5implsRNtCs3cP53eQoTwO_11proc_macro25IdentNtB7_3Ord3cmpCsf44oge9wsd6_12snafu_derive, symObjAddr: 0x2B38, symBinAddr: 0x4ABF4, symSize: 0x34 }
  - { offset: 0xD1D0D, size: 0x8, addend: 0x0, symName: __RNvYNtCs3cP53eQoTwO_11proc_macro25IdentNtNtCsfvfooZQ3Axs_4core3cmp10PartialOrd2ltCsf44oge9wsd6_12snafu_derive, symObjAddr: 0x5BC0, symBinAddr: 0x4DC7C, symSize: 0x6C }
  - { offset: 0xD1D62, size: 0x8, addend: 0x0, symName: __RNvYNtCs3cP53eQoTwO_11proc_macro25IdentNtNtCsfvfooZQ3Axs_4core3cmp9PartialEq2neCsf44oge9wsd6_12snafu_derive, symObjAddr: 0x5C2C, symBinAddr: 0x4DCE8, symSize: 0x30 }
  - { offset: 0xD6753, size: 0x8, addend: 0x0, symName: __RINvNtNtNtCsfvfooZQ3Axs_4core4iter8adapters7flatten17and_then_or_clearINtNtB4_3map3MapINtNtCs5AlOhPCr03V_3syn10punctuated4IterNtNtB1r_8generics14WherePredicateENCNCNvMsr_Csf44oge9wsd6_12snafu_deriveNtB2I_15TupleStructInfo14generate_snafu00ENtCs3cP53eQoTwO_11proc_macro211TokenStreamNvYB16_NtNtNtB6_6traits8iterator8Iterator4nextEB2I_, symObjAddr: 0x480, symBinAddr: 0x4853C, symSize: 0x124 }
  - { offset: 0xD6892, size: 0x8, addend: 0x0, symName: __RINvNtNtNtCsfvfooZQ3Axs_4core4iter8adapters7flatten17and_then_or_clearINtNtB4_3map3MapINtNtCs5AlOhPCr03V_3syn10punctuated4IterNtNtB1r_8generics14WherePredicateENCNCNvYNtCsf44oge9wsd6_12snafu_derive15NamedStructInfoNtB2H_17GenericAwareNames22provided_where_clauses00ENtCs3cP53eQoTwO_11proc_macro211TokenStreamNvYB16_NtNtNtB6_6traits8iterator8Iterator4nextEB2H_, symObjAddr: 0x5A4, symBinAddr: 0x48660, symSize: 0x124 }
  - { offset: 0xD69D1, size: 0x8, addend: 0x0, symName: __RINvNtNtNtCsfvfooZQ3Axs_4core4iter8adapters7flatten17and_then_or_clearINtNtB4_3map3MapINtNtCs5AlOhPCr03V_3syn10punctuated4IterNtNtB1r_8generics14WherePredicateENCNCNvYNtCsf44oge9wsd6_12snafu_derive8EnumInfoNtB2H_17GenericAwareNames22provided_where_clauses00ENtCs3cP53eQoTwO_11proc_macro211TokenStreamNvYB16_NtNtNtB6_6traits8iterator8Iterator4nextEB2H_, symObjAddr: 0x6C8, symBinAddr: 0x48784, symSize: 0x124 }
  - { offset: 0xD6B84, size: 0x8, addend: 0x0, symName: __RNvXs1_NtNtNtCsfvfooZQ3Axs_4core4iter8adapters7flattenINtB5_7FlatMapINtNtB7_3map3MapINtNtCs5AlOhPCr03V_3syn10punctuated8IntoIterNtNtB1p_4data7VariantENCNvCsf44oge9wsd6_12snafu_derive16parse_snafu_enum0EINtNtBb_6result6ResultNtB2s_14FieldContaineruENCINvXs0_NtB2s_6spongeINtB47_9AllErrorsINtNtCse1nGBsou5OW_5alloc3vec3VecB3A_ENtNtB1p_5error5ErrorEINtNtNtB9_6traits7collect12FromIteratorIB3f_B3A_IB4C_B5d_EEE9from_iterB14_E0ENtNtB5D_8iterator8Iterator4nextB2s_, symObjAddr: 0x2840, symBinAddr: 0x4A8FC, symSize: 0x24 }
  - { offset: 0xD6BCB, size: 0x8, addend: 0x0, symName: __RNvXs1_NtNtNtCsfvfooZQ3Axs_4core4iter8adapters7flattenINtB5_7FlatMapINtNtB7_3map3MapINtNtCs5AlOhPCr03V_3syn10punctuated8IntoIterNtNtB1p_4data7VariantENCNvCsf44oge9wsd6_12snafu_derive16parse_snafu_enum0EINtNtBb_6result6ResultNtB2s_14FieldContaineruENCINvXs0_NtB2s_6spongeINtB47_9AllErrorsINtNtCse1nGBsou5OW_5alloc3vec3VecB3A_ENtNtB1p_5error5ErrorEINtNtNtB9_6traits7collect12FromIteratorIB3f_B3A_IB4C_B5d_EEE9from_iterB14_E0ENtNtB5D_8iterator8Iterator9size_hintB2s_, symObjAddr: 0x2864, symBinAddr: 0x4A920, symSize: 0x24 }
  - { offset: 0xD6C12, size: 0x8, addend: 0x0, symName: __RNvXs1_NtNtNtCsfvfooZQ3Axs_4core4iter8adapters7flattenINtB5_7FlatMapINtNtB7_5chain5ChainIB15_INtNtNtBb_5slice4iter4IterNtCsf44oge9wsd6_12snafu_derive5FieldEB1t_EINtNtBb_6option8IntoIterRB1T_EEINtB2C_6OptionTRNtNtCs5AlOhPCr03V_3syn2ty4TypeRNtCs3cP53eQoTwO_11proc_macro25IdentEENCNvXs0_NtNtB1V_6shared5errorNtB4y_20ErrorProvideMatchArmNtNtCs2cqEZUIJimJ_5quote9to_tokens8ToTokens9to_tokens0ENtNtNtB9_6traits8iterator8Iterator4nextB1V_, symObjAddr: 0x2888, symBinAddr: 0x4A944, symSize: 0x24 }
  - { offset: 0xD6C59, size: 0x8, addend: 0x0, symName: __RNvXs1_NtNtNtCsfvfooZQ3Axs_4core4iter8adapters7flattenINtB5_7FlatMapINtNtBb_6option4IterNtNtCs5AlOhPCr03V_3syn8generics11WhereClauseEINtNtB7_3map3MapINtNtB1s_10punctuated4IterNtB1q_14WherePredicateENCNCNvMsr_Csf44oge9wsd6_12snafu_deriveNtB3k_15TupleStructInfo14generate_snafu00ENCB3e_0ENtNtNtB9_6traits8iterator8Iterator4nextB3k_, symObjAddr: 0x28AC, symBinAddr: 0x4A968, symSize: 0x24 }
  - { offset: 0xD6CA0, size: 0x8, addend: 0x0, symName: __RNvXs1_NtNtNtCsfvfooZQ3Axs_4core4iter8adapters7flattenINtB5_7FlatMapINtNtBb_6option4IterNtNtCs5AlOhPCr03V_3syn8generics11WhereClauseEINtNtB7_3map3MapINtNtB1s_10punctuated4IterNtB1q_14WherePredicateENCNCNvMsr_Csf44oge9wsd6_12snafu_deriveNtB3k_15TupleStructInfo14generate_snafu00ENCB3e_0ENtNtNtB9_6traits8iterator8Iterator9size_hintB3k_, symObjAddr: 0x28D0, symBinAddr: 0x4A98C, symSize: 0x24 }
  - { offset: 0xD6CE7, size: 0x8, addend: 0x0, symName: __RNvXs1_NtNtNtCsfvfooZQ3Axs_4core4iter8adapters7flattenINtB5_7FlatMapINtNtBb_6option4IterNtNtCs5AlOhPCr03V_3syn8generics11WhereClauseEINtNtB7_3map3MapINtNtB1s_10punctuated4IterNtB1q_14WherePredicateENCNCNvYNtCsf44oge9wsd6_12snafu_derive15NamedStructInfoNtB3j_17GenericAwareNames22provided_where_clauses00ENCB3e_0ENtNtNtB9_6traits8iterator8Iterator4nextB3j_, symObjAddr: 0x28F4, symBinAddr: 0x4A9B0, symSize: 0x24 }
  - { offset: 0xD6D2E, size: 0x8, addend: 0x0, symName: __RNvXs1_NtNtNtCsfvfooZQ3Axs_4core4iter8adapters7flattenINtB5_7FlatMapINtNtBb_6option4IterNtNtCs5AlOhPCr03V_3syn8generics11WhereClauseEINtNtB7_3map3MapINtNtB1s_10punctuated4IterNtB1q_14WherePredicateENCNCNvYNtCsf44oge9wsd6_12snafu_derive15NamedStructInfoNtB3j_17GenericAwareNames22provided_where_clauses00ENCB3e_0ENtNtNtB9_6traits8iterator8Iterator9size_hintB3j_, symObjAddr: 0x2918, symBinAddr: 0x4A9D4, symSize: 0x24 }
  - { offset: 0xD6D75, size: 0x8, addend: 0x0, symName: __RNvXs1_NtNtNtCsfvfooZQ3Axs_4core4iter8adapters7flattenINtB5_7FlatMapINtNtBb_6option4IterNtNtCs5AlOhPCr03V_3syn8generics11WhereClauseEINtNtB7_3map3MapINtNtB1s_10punctuated4IterNtB1q_14WherePredicateENCNCNvYNtCsf44oge9wsd6_12snafu_derive8EnumInfoNtB3j_17GenericAwareNames22provided_where_clauses00ENCB3e_0ENtNtNtB9_6traits8iterator8Iterator4nextB3j_, symObjAddr: 0x293C, symBinAddr: 0x4A9F8, symSize: 0x24 }
  - { offset: 0xD6DBC, size: 0x8, addend: 0x0, symName: __RNvXs1_NtNtNtCsfvfooZQ3Axs_4core4iter8adapters7flattenINtB5_7FlatMapINtNtBb_6option4IterNtNtCs5AlOhPCr03V_3syn8generics11WhereClauseEINtNtB7_3map3MapINtNtB1s_10punctuated4IterNtB1q_14WherePredicateENCNCNvYNtCsf44oge9wsd6_12snafu_derive8EnumInfoNtB3j_17GenericAwareNames22provided_where_clauses00ENCB3e_0ENtNtNtB9_6traits8iterator8Iterator9size_hintB3j_, symObjAddr: 0x2960, symBinAddr: 0x4AA1C, symSize: 0x24 }
  - { offset: 0xD6E03, size: 0x8, addend: 0x0, symName: __RNvXs1_NtNtNtCsfvfooZQ3Axs_4core4iter8adapters7flattenINtB5_7FlatMapINtNtCs5AlOhPCr03V_3syn10punctuated4IterNtNtB19_8generics12GenericParamEINtNtBb_6option6OptionNtCs3cP53eQoTwO_11proc_macro211TokenStreamENCNvYNtCsf44oge9wsd6_12snafu_derive15NamedStructInfoNtB3o_17GenericAwareNames26provided_generic_lifetimes0ENtNtNtB9_6traits8iterator8Iterator4nextB3o_, symObjAddr: 0x2984, symBinAddr: 0x4AA40, symSize: 0x24 }
  - { offset: 0xD6E4A, size: 0x8, addend: 0x0, symName: __RNvXs1_NtNtNtCsfvfooZQ3Axs_4core4iter8adapters7flattenINtB5_7FlatMapINtNtCs5AlOhPCr03V_3syn10punctuated4IterNtNtB19_8generics12GenericParamEINtNtBb_6option6OptionNtCs3cP53eQoTwO_11proc_macro211TokenStreamENCNvYNtCsf44oge9wsd6_12snafu_derive15NamedStructInfoNtB3o_17GenericAwareNames26provided_generic_lifetimes0ENtNtNtB9_6traits8iterator8Iterator9size_hintB3o_, symObjAddr: 0x29A8, symBinAddr: 0x4AA64, symSize: 0x24 }
  - { offset: 0xD6E91, size: 0x8, addend: 0x0, symName: __RNvXs1_NtNtNtCsfvfooZQ3Axs_4core4iter8adapters7flattenINtB5_7FlatMapINtNtCs5AlOhPCr03V_3syn10punctuated4IterNtNtB19_8generics12GenericParamEINtNtBb_6option6OptionNtCs3cP53eQoTwO_11proc_macro211TokenStreamENCNvYNtCsf44oge9wsd6_12snafu_derive8EnumInfoNtB3o_17GenericAwareNames26provided_generic_lifetimes0ENtNtNtB9_6traits8iterator8Iterator4nextB3o_, symObjAddr: 0x29CC, symBinAddr: 0x4AA88, symSize: 0x24 }
  - { offset: 0xD6ED8, size: 0x8, addend: 0x0, symName: __RNvXs1_NtNtNtCsfvfooZQ3Axs_4core4iter8adapters7flattenINtB5_7FlatMapINtNtCs5AlOhPCr03V_3syn10punctuated4IterNtNtB19_8generics12GenericParamEINtNtBb_6option6OptionNtCs3cP53eQoTwO_11proc_macro211TokenStreamENCNvYNtCsf44oge9wsd6_12snafu_derive8EnumInfoNtB3o_17GenericAwareNames26provided_generic_lifetimes0ENtNtNtB9_6traits8iterator8Iterator9size_hintB3o_, symObjAddr: 0x29F0, symBinAddr: 0x4AAAC, symSize: 0x24 }
  - { offset: 0xD6F1F, size: 0x8, addend: 0x0, symName: __RNvXs1_NtNtNtCsfvfooZQ3Axs_4core4iter8adapters7flattenINtB5_7FlatMapINtNtNtCse1nGBsou5OW_5alloc3vec9into_iter8IntoIterNtCsf44oge9wsd6_12snafu_derive14SnafuAttributeEINtNtBb_6option6OptionB1S_ENCNvB1U_24parse_snafu_named_struct0ENtNtNtB9_6traits8iterator8Iterator4nextB1U_, symObjAddr: 0x2A14, symBinAddr: 0x4AAD0, symSize: 0x24 }
  - { offset: 0xD6F66, size: 0x8, addend: 0x0, symName: __RNvXs1_NtNtNtCsfvfooZQ3Axs_4core4iter8adapters7flattenINtB5_7FlatMapINtNtNtCse1nGBsou5OW_5alloc3vec9into_iter8IntoIterNtCsf44oge9wsd6_12snafu_derive14SnafuAttributeEINtNtBb_6option6OptionB1S_ENCNvB1U_24parse_snafu_named_struct0ENtNtNtB9_6traits8iterator8Iterator9size_hintB1U_, symObjAddr: 0x2A38, symBinAddr: 0x4AAF4, symSize: 0x24 }
  - { offset: 0xD6FB3, size: 0x8, addend: 0x0, symName: __RNvXsV_NtNtNtCsfvfooZQ3Axs_4core4iter8adapters7flattenINtB5_13FlattenCompatINtNtB7_3map3MapIB1c_INtNtCs5AlOhPCr03V_3syn10punctuated8IntoIterNtNtB1B_4data7VariantENCNvCsf44oge9wsd6_12snafu_derive16parse_snafu_enum0ENCINvXs0_NtB2E_6spongeINtB3z_9AllErrorsINtNtCse1nGBsou5OW_5alloc3vec3VecNtB2E_14FieldContainerENtNtB1B_5error5ErrorEINtNtNtB9_6traits7collect12FromIteratorINtNtBb_6result6ResultB4A_IB44_B4X_EEE9from_iterB1r_E0EINtB5Y_8IntoIterB4A_EENtNtB5n_8iterator8Iterator4nextB2E_, symObjAddr: 0x2BE4, symBinAddr: 0x4ACA0, symSize: 0x180 }
  - { offset: 0xD703F, size: 0x8, addend: 0x0, symName: __RNvXsV_NtNtNtCsfvfooZQ3Axs_4core4iter8adapters7flattenINtB5_13FlattenCompatINtNtB7_3map3MapIB1c_INtNtCs5AlOhPCr03V_3syn10punctuated8IntoIterNtNtB1B_4data7VariantENCNvCsf44oge9wsd6_12snafu_derive16parse_snafu_enum0ENCINvXs0_NtB2E_6spongeINtB3z_9AllErrorsINtNtCse1nGBsou5OW_5alloc3vec3VecNtB2E_14FieldContainerENtNtB1B_5error5ErrorEINtNtNtB9_6traits7collect12FromIteratorINtNtBb_6result6ResultB4A_IB44_B4X_EEE9from_iterB1r_E0EINtB5Y_8IntoIterB4A_EENtNtB5n_8iterator8Iterator9size_hintB2E_, symObjAddr: 0x2D64, symBinAddr: 0x4AE20, symSize: 0x154 }
  - { offset: 0xD70E1, size: 0x8, addend: 0x0, symName: __RNvXsV_NtNtNtCsfvfooZQ3Axs_4core4iter8adapters7flattenINtB5_13FlattenCompatINtNtB7_3map3MapINtNtB7_5chain5ChainIB1s_INtNtNtBb_5slice4iter4IterNtCsf44oge9wsd6_12snafu_derive5FieldEB1Q_EINtNtBb_6option8IntoIterRB2g_EENCNvXs0_NtNtB2i_6shared5errorNtB3z_20ErrorProvideMatchArmNtNtCs2cqEZUIJimJ_5quote9to_tokens8ToTokens9to_tokens0EIB2X_TRNtNtCs5AlOhPCr03V_3syn2ty4TypeRNtCs3cP53eQoTwO_11proc_macro25IdentEEENtNtNtB9_6traits8iterator8Iterator4nextB2i_, symObjAddr: 0x2EB8, symBinAddr: 0x4AF74, symSize: 0xF4 }
  - { offset: 0xD716B, size: 0x8, addend: 0x0, symName: __RNvXsV_NtNtNtCsfvfooZQ3Axs_4core4iter8adapters7flattenINtB5_13FlattenCompatINtNtB7_3map3MapINtNtCs5AlOhPCr03V_3syn10punctuated4IterNtNtB1w_8generics12GenericParamENCNvYNtCsf44oge9wsd6_12snafu_derive15NamedStructInfoNtB2I_17GenericAwareNames26provided_generic_lifetimes0EINtNtBb_6option8IntoIterNtCs3cP53eQoTwO_11proc_macro211TokenStreamEENtNtNtB9_6traits8iterator8Iterator4nextB2I_, symObjAddr: 0x2FAC, symBinAddr: 0x4B068, symSize: 0x134 }
  - { offset: 0xD71F6, size: 0x8, addend: 0x0, symName: __RNvXsV_NtNtNtCsfvfooZQ3Axs_4core4iter8adapters7flattenINtB5_13FlattenCompatINtNtB7_3map3MapINtNtCs5AlOhPCr03V_3syn10punctuated4IterNtNtB1w_8generics12GenericParamENCNvYNtCsf44oge9wsd6_12snafu_derive15NamedStructInfoNtB2I_17GenericAwareNames26provided_generic_lifetimes0EINtNtBb_6option8IntoIterNtCs3cP53eQoTwO_11proc_macro211TokenStreamEENtNtNtB9_6traits8iterator8Iterator9size_hintB2I_, symObjAddr: 0x30E0, symBinAddr: 0x4B19C, symSize: 0x148 }
  - { offset: 0xD7298, size: 0x8, addend: 0x0, symName: __RNvXsV_NtNtNtCsfvfooZQ3Axs_4core4iter8adapters7flattenINtB5_13FlattenCompatINtNtB7_3map3MapINtNtCs5AlOhPCr03V_3syn10punctuated4IterNtNtB1w_8generics12GenericParamENCNvYNtCsf44oge9wsd6_12snafu_derive8EnumInfoNtB2I_17GenericAwareNames26provided_generic_lifetimes0EINtNtBb_6option8IntoIterNtCs3cP53eQoTwO_11proc_macro211TokenStreamEENtNtNtB9_6traits8iterator8Iterator4nextB2I_, symObjAddr: 0x3228, symBinAddr: 0x4B2E4, symSize: 0x134 }
  - { offset: 0xD7323, size: 0x8, addend: 0x0, symName: __RNvXsV_NtNtNtCsfvfooZQ3Axs_4core4iter8adapters7flattenINtB5_13FlattenCompatINtNtB7_3map3MapINtNtCs5AlOhPCr03V_3syn10punctuated4IterNtNtB1w_8generics12GenericParamENCNvYNtCsf44oge9wsd6_12snafu_derive8EnumInfoNtB2I_17GenericAwareNames26provided_generic_lifetimes0EINtNtBb_6option8IntoIterNtCs3cP53eQoTwO_11proc_macro211TokenStreamEENtNtNtB9_6traits8iterator8Iterator9size_hintB2I_, symObjAddr: 0x335C, symBinAddr: 0x4B418, symSize: 0x148 }
  - { offset: 0xD73C5, size: 0x8, addend: 0x0, symName: __RNvXsV_NtNtNtCsfvfooZQ3Axs_4core4iter8adapters7flattenINtB5_13FlattenCompatINtNtB7_3map3MapINtNtNtCse1nGBsou5OW_5alloc3vec9into_iter8IntoIterNtCsf44oge9wsd6_12snafu_derive14SnafuAttributeENCNvB2h_24parse_snafu_named_struct0EINtNtBb_6option8IntoIterB2f_EENtNtNtB9_6traits8iterator8Iterator4nextB2h_, symObjAddr: 0x34A4, symBinAddr: 0x4B560, symSize: 0x158 }
  - { offset: 0xD7451, size: 0x8, addend: 0x0, symName: __RNvXsV_NtNtNtCsfvfooZQ3Axs_4core4iter8adapters7flattenINtB5_13FlattenCompatINtNtB7_3map3MapINtNtNtCse1nGBsou5OW_5alloc3vec9into_iter8IntoIterNtCsf44oge9wsd6_12snafu_derive14SnafuAttributeENCNvB2h_24parse_snafu_named_struct0EINtNtBb_6option8IntoIterB2f_EENtNtNtB9_6traits8iterator8Iterator9size_hintB2h_, symObjAddr: 0x35FC, symBinAddr: 0x4B6B8, symSize: 0x148 }
  - { offset: 0xD74F9, size: 0x8, addend: 0x0, symName: __RNvXsm_NtNtNtCsfvfooZQ3Axs_4core4iter8adapters7flattenINtB5_7FlattenINtNtB7_3map3MapIB15_IB15_INtNtB7_5chain5ChainINtNtNtBb_5slice4iter4IterNtCsf44oge9wsd6_12snafu_derive5FieldEINtNtBb_6option8IntoIterRB2e_EENCNvMs_NtNtB2g_6shared16context_selectorNtB3r_15ContextSelector41construct_implicit_fields_with_expression0ENCINvXs7_Cs3cP53eQoTwO_11proc_macro2NtB5d_11TokenStreamINtNtNtB9_6traits7collect12FromIteratorB5E_E9from_iterB1p_E0ENCINvXs6_NtB5d_3impNtB75_11TokenStreamIB5Y_B7f_E9from_iterB1k_Es_0EENtNtB62_8iterator8Iterator4nextB2g_, symObjAddr: 0x3878, symBinAddr: 0x4B934, symSize: 0x24 }
  - { offset: 0xD7539, size: 0x8, addend: 0x0, symName: __RNvXsm_NtNtNtCsfvfooZQ3Axs_4core4iter8adapters7flattenINtB5_7FlattenINtNtB7_3map3MapIB15_IB15_INtNtB7_5chain5ChainINtNtNtBb_5slice4iter4IterNtCsf44oge9wsd6_12snafu_derive5FieldEINtNtBb_6option8IntoIterRB2e_EENCNvMs_NtNtB2g_6shared16context_selectorNtB3r_15ContextSelector41construct_implicit_fields_with_expression0ENCINvXs7_Cs3cP53eQoTwO_11proc_macro2NtB5d_11TokenStreamINtNtNtB9_6traits7collect12FromIteratorB5E_E9from_iterB1p_E0ENCINvXs6_NtB5d_3impNtB75_11TokenStreamIB5Y_B7f_E9from_iterB1k_Es_0EENtNtB62_8iterator8Iterator9size_hintB2g_, symObjAddr: 0x389C, symBinAddr: 0x4B958, symSize: 0x24 }
  - { offset: 0xD757F, size: 0x8, addend: 0x0, symName: __RNvXsv_NtNtNtCsfvfooZQ3Axs_4core4iter8adapters7flattenINtB5_13FlattenCompatINtNtB7_3map3MapIB1c_IB1c_INtNtB7_5chain5ChainINtNtNtBb_5slice4iter4IterNtCsf44oge9wsd6_12snafu_derive5FieldEINtNtBb_6option8IntoIterRB2l_EENCNvMs_NtNtB2n_6shared16context_selectorNtB3y_15ContextSelector41construct_implicit_fields_with_expression0ENCINvXs7_Cs3cP53eQoTwO_11proc_macro2NtB5k_11TokenStreamINtNtNtB9_6traits7collect12FromIteratorB5L_E9from_iterB1w_E0ENCINvXs6_NtB5k_3impNtB7c_11TokenStreamIB65_B7m_E9from_iterB1r_Es_0EINtNtB5k_5rcvec13RcVecIntoIterNtB5k_9TokenTreeEENtNtB69_8iterator8Iterator4nextB2n_, symObjAddr: 0x38C0, symBinAddr: 0x4B97C, symSize: 0x130 }
  - { offset: 0xD7611, size: 0x8, addend: 0x0, symName: __RNvXsv_NtNtNtCsfvfooZQ3Axs_4core4iter8adapters7flattenINtB5_13FlattenCompatINtNtB7_3map3MapIB1c_IB1c_INtNtB7_5chain5ChainINtNtNtBb_5slice4iter4IterNtCsf44oge9wsd6_12snafu_derive5FieldEINtNtBb_6option8IntoIterRB2l_EENCNvMs_NtNtB2n_6shared16context_selectorNtB3y_15ContextSelector41construct_implicit_fields_with_expression0ENCINvXs7_Cs3cP53eQoTwO_11proc_macro2NtB5k_11TokenStreamINtNtNtB9_6traits7collect12FromIteratorB5L_E9from_iterB1w_E0ENCINvXs6_NtB5k_3impNtB7c_11TokenStreamIB65_B7m_E9from_iterB1r_Es_0EINtNtB5k_5rcvec13RcVecIntoIterNtB5k_9TokenTreeEENtNtB69_8iterator8Iterator9size_hintB2n_, symObjAddr: 0x39F0, symBinAddr: 0x4BAAC, symSize: 0x770 }
  - { offset: 0xD7D10, size: 0x8, addend: 0x0, symName: __RNvXsv_NtNtNtCsfvfooZQ3Axs_4core4iter8adapters7flattenINtB5_13FlattenCompatINtNtB7_3map3MapINtNtBb_6option4IterNtNtCs5AlOhPCr03V_3syn8generics11WhereClauseENCNvMsr_Csf44oge9wsd6_12snafu_deriveNtB2C_15TupleStructInfo14generate_snafu0EIB1c_INtNtB1P_10punctuated4IterNtB1N_14WherePredicateENCNCB2w_00EENtNtNtB9_6traits8iterator8Iterator4nextB2C_, symObjAddr: 0x4160, symBinAddr: 0x4C21C, symSize: 0x134 }
  - { offset: 0xD7DA2, size: 0x8, addend: 0x0, symName: __RNvXsv_NtNtNtCsfvfooZQ3Axs_4core4iter8adapters7flattenINtB5_13FlattenCompatINtNtB7_3map3MapINtNtBb_6option4IterNtNtCs5AlOhPCr03V_3syn8generics11WhereClauseENCNvMsr_Csf44oge9wsd6_12snafu_deriveNtB2C_15TupleStructInfo14generate_snafu0EIB1c_INtNtB1P_10punctuated4IterNtB1N_14WherePredicateENCNCB2w_00EENtNtNtB9_6traits8iterator8Iterator9size_hintB2C_, symObjAddr: 0x4294, symBinAddr: 0x4C350, symSize: 0x768 }
  - { offset: 0xD84A1, size: 0x8, addend: 0x0, symName: __RNvXsv_NtNtNtCsfvfooZQ3Axs_4core4iter8adapters7flattenINtB5_13FlattenCompatINtNtB7_3map3MapINtNtBb_6option4IterNtNtCs5AlOhPCr03V_3syn8generics11WhereClauseENCNvYNtCsf44oge9wsd6_12snafu_derive15NamedStructInfoNtB2B_17GenericAwareNames22provided_where_clauses0EIB1c_INtNtB1P_10punctuated4IterNtB1N_14WherePredicateENCNCB2w_00EENtNtNtB9_6traits8iterator8Iterator4nextB2B_, symObjAddr: 0x49FC, symBinAddr: 0x4CAB8, symSize: 0x134 }
  - { offset: 0xD8533, size: 0x8, addend: 0x0, symName: __RNvXsv_NtNtNtCsfvfooZQ3Axs_4core4iter8adapters7flattenINtB5_13FlattenCompatINtNtB7_3map3MapINtNtBb_6option4IterNtNtCs5AlOhPCr03V_3syn8generics11WhereClauseENCNvYNtCsf44oge9wsd6_12snafu_derive15NamedStructInfoNtB2B_17GenericAwareNames22provided_where_clauses0EIB1c_INtNtB1P_10punctuated4IterNtB1N_14WherePredicateENCNCB2w_00EENtNtNtB9_6traits8iterator8Iterator9size_hintB2B_, symObjAddr: 0x4B30, symBinAddr: 0x4CBEC, symSize: 0x768 }
  - { offset: 0xD8C32, size: 0x8, addend: 0x0, symName: __RNvXsv_NtNtNtCsfvfooZQ3Axs_4core4iter8adapters7flattenINtB5_13FlattenCompatINtNtB7_3map3MapINtNtBb_6option4IterNtNtCs5AlOhPCr03V_3syn8generics11WhereClauseENCNvYNtCsf44oge9wsd6_12snafu_derive8EnumInfoNtB2B_17GenericAwareNames22provided_where_clauses0EIB1c_INtNtB1P_10punctuated4IterNtB1N_14WherePredicateENCNCB2w_00EENtNtNtB9_6traits8iterator8Iterator4nextB2B_, symObjAddr: 0x5298, symBinAddr: 0x4D354, symSize: 0x134 }
  - { offset: 0xD8CC4, size: 0x8, addend: 0x0, symName: __RNvXsv_NtNtNtCsfvfooZQ3Axs_4core4iter8adapters7flattenINtB5_13FlattenCompatINtNtB7_3map3MapINtNtBb_6option4IterNtNtCs5AlOhPCr03V_3syn8generics11WhereClauseENCNvYNtCsf44oge9wsd6_12snafu_derive8EnumInfoNtB2B_17GenericAwareNames22provided_where_clauses0EIB1c_INtNtB1P_10punctuated4IterNtB1N_14WherePredicateENCNCB2w_00EENtNtNtB9_6traits8iterator8Iterator9size_hintB2B_, symObjAddr: 0x53CC, symBinAddr: 0x4D488, symSize: 0x768 }
  - { offset: 0xD9FEA, size: 0x8, addend: 0x0, symName: __RINvYINtNtNtNtCsfvfooZQ3Axs_4core4iter8adapters7flatten7FlatMapINtNtB8_3map3MapINtNtCs5AlOhPCr03V_3syn10punctuated8IntoIterNtNtB1k_4data7VariantENCNvCsf44oge9wsd6_12snafu_derive16parse_snafu_enum0EINtNtBc_6result6ResultNtB2n_14FieldContaineruENCINvXs0_NtB2n_6spongeINtB42_9AllErrorsINtNtCse1nGBsou5OW_5alloc3vec3VecB3v_ENtNtB1k_5error5ErrorEINtNtNtBa_6traits7collect12FromIteratorIB3a_B3v_IB4x_B58_EEE9from_iterBZ_E0ENtNtB5y_8iterator8Iterator7collectB4w_EB2n_, symObjAddr: 0x1BAC, symBinAddr: 0x49C68, symSize: 0x1C }
  - { offset: 0xDA02B, size: 0x8, addend: 0x0, symName: __RINvYINtNtNtNtCsfvfooZQ3Axs_4core4iter8adapters7flatten7FlatMapINtNtB8_5chain5ChainIB10_INtNtNtBc_5slice4iter4IterNtCsf44oge9wsd6_12snafu_derive5FieldEB1o_EINtNtBc_6option8IntoIterRB1O_EEINtB2x_6OptionTRNtNtCs5AlOhPCr03V_3syn2ty4TypeRNtCs3cP53eQoTwO_11proc_macro25IdentEENCNvXs0_NtNtB1Q_6shared5errorNtB4t_20ErrorProvideMatchArmNtNtCs2cqEZUIJimJ_5quote9to_tokens8ToTokens9to_tokens0ENtNtNtBa_6traits8iterator8Iterator5chainB2Z_EB1Q_, symObjAddr: 0x1BC8, symBinAddr: 0x49C84, symSize: 0xEC }
  - { offset: 0xDA0A2, size: 0x8, addend: 0x0, symName: __RINvYINtNtNtNtCsfvfooZQ3Axs_4core4iter8adapters7flatten7FlatMapINtNtBc_6option4IterNtNtCs5AlOhPCr03V_3syn8generics11WhereClauseEINtNtB8_3map3MapINtNtB1n_10punctuated4IterNtB1l_14WherePredicateENCNCNvMsr_Csf44oge9wsd6_12snafu_deriveNtB3f_15TupleStructInfo14generate_snafu00ENCB39_0ENtNtNtBa_6traits8iterator8Iterator7collectINtNtCse1nGBsou5OW_5alloc3vec3VecNtCs3cP53eQoTwO_11proc_macro211TokenStreamEEB3f_, symObjAddr: 0x1CB4, symBinAddr: 0x49D70, symSize: 0x1C }
  - { offset: 0xDA0E3, size: 0x8, addend: 0x0, symName: __RINvYINtNtNtNtCsfvfooZQ3Axs_4core4iter8adapters7flatten7FlatMapINtNtBc_6option4IterNtNtCs5AlOhPCr03V_3syn8generics11WhereClauseEINtNtB8_3map3MapINtNtB1n_10punctuated4IterNtB1l_14WherePredicateENCNCNvYNtCsf44oge9wsd6_12snafu_derive15NamedStructInfoNtB3e_17GenericAwareNames22provided_where_clauses00ENCB39_0ENtNtNtBa_6traits8iterator8Iterator7collectINtNtCse1nGBsou5OW_5alloc3vec3VecNtCs3cP53eQoTwO_11proc_macro211TokenStreamEEB3e_, symObjAddr: 0x1CD0, symBinAddr: 0x49D8C, symSize: 0x1C }
  - { offset: 0xDA124, size: 0x8, addend: 0x0, symName: __RINvYINtNtNtNtCsfvfooZQ3Axs_4core4iter8adapters7flatten7FlatMapINtNtBc_6option4IterNtNtCs5AlOhPCr03V_3syn8generics11WhereClauseEINtNtB8_3map3MapINtNtB1n_10punctuated4IterNtB1l_14WherePredicateENCNCNvYNtCsf44oge9wsd6_12snafu_derive8EnumInfoNtB3e_17GenericAwareNames22provided_where_clauses00ENCB39_0ENtNtNtBa_6traits8iterator8Iterator7collectINtNtCse1nGBsou5OW_5alloc3vec3VecNtCs3cP53eQoTwO_11proc_macro211TokenStreamEEB3e_, symObjAddr: 0x1CEC, symBinAddr: 0x49DA8, symSize: 0x1C }
  - { offset: 0xDA165, size: 0x8, addend: 0x0, symName: __RINvYINtNtNtNtCsfvfooZQ3Axs_4core4iter8adapters7flatten7FlatMapINtNtCs5AlOhPCr03V_3syn10punctuated4IterNtNtB14_8generics12GenericParamEINtNtBc_6option6OptionNtCs3cP53eQoTwO_11proc_macro211TokenStreamENCNvYNtCsf44oge9wsd6_12snafu_derive15NamedStructInfoNtB3j_17GenericAwareNames26provided_generic_lifetimes0ENtNtNtBa_6traits8iterator8Iterator7collectINtNtCse1nGBsou5OW_5alloc3vec3VecB2v_EEB3j_, symObjAddr: 0x1D08, symBinAddr: 0x49DC4, symSize: 0x1C }
  - { offset: 0xDA1A6, size: 0x8, addend: 0x0, symName: __RINvYINtNtNtNtCsfvfooZQ3Axs_4core4iter8adapters7flatten7FlatMapINtNtCs5AlOhPCr03V_3syn10punctuated4IterNtNtB14_8generics12GenericParamEINtNtBc_6option6OptionNtCs3cP53eQoTwO_11proc_macro211TokenStreamENCNvYNtCsf44oge9wsd6_12snafu_derive8EnumInfoNtB3j_17GenericAwareNames26provided_generic_lifetimes0ENtNtNtBa_6traits8iterator8Iterator7collectINtNtCse1nGBsou5OW_5alloc3vec3VecB2v_EEB3j_, symObjAddr: 0x1D24, symBinAddr: 0x49DE0, symSize: 0x1C }
  - { offset: 0xDA1E7, size: 0x8, addend: 0x0, symName: __RINvYINtNtNtNtCsfvfooZQ3Axs_4core4iter8adapters7flatten7FlatMapINtNtNtCse1nGBsou5OW_5alloc3vec9into_iter8IntoIterNtCsf44oge9wsd6_12snafu_derive14SnafuAttributeEINtNtBc_6option6OptionB1N_ENCNvB1P_24parse_snafu_named_struct0ENtNtNtBa_6traits8iterator8Iterator7collectINtB14_3VecB1N_EEB1P_, symObjAddr: 0x1D40, symBinAddr: 0x49DFC, symSize: 0x1C }
  - { offset: 0xDA234, size: 0x8, addend: 0x0, symName: __RNvXNtNtNtCsfvfooZQ3Axs_4core4iter6traits7collectINtNtNtB6_8adapters7flatten7FlatMapINtNtB8_6option4IterNtNtCs5AlOhPCr03V_3syn8generics11WhereClauseEINtNtBQ_3map3MapINtNtB1I_10punctuated4IterNtB1G_14WherePredicateENCNCNvMsr_Csf44oge9wsd6_12snafu_deriveNtB3A_15TupleStructInfo14generate_snafu00ENCB3u_0ENtB2_12IntoIterator9into_iterB3A_, symObjAddr: 0x26A0, symBinAddr: 0x4A75C, symSize: 0x30 }
  - { offset: 0xDA26C, size: 0x8, addend: 0x0, symName: __RNvXNtNtNtCsfvfooZQ3Axs_4core4iter6traits7collectINtNtNtB6_8adapters7flatten7FlatMapINtNtB8_6option4IterNtNtCs5AlOhPCr03V_3syn8generics11WhereClauseEINtNtBQ_3map3MapINtNtB1I_10punctuated4IterNtB1G_14WherePredicateENCNCNvYNtCsf44oge9wsd6_12snafu_derive15NamedStructInfoNtB3z_17GenericAwareNames22provided_where_clauses00ENCB3u_0ENtB2_12IntoIterator9into_iterB3z_, symObjAddr: 0x26D0, symBinAddr: 0x4A78C, symSize: 0x30 }
  - { offset: 0xDA2A4, size: 0x8, addend: 0x0, symName: __RNvXNtNtNtCsfvfooZQ3Axs_4core4iter6traits7collectINtNtNtB6_8adapters7flatten7FlatMapINtNtB8_6option4IterNtNtCs5AlOhPCr03V_3syn8generics11WhereClauseEINtNtBQ_3map3MapINtNtB1I_10punctuated4IterNtB1G_14WherePredicateENCNCNvYNtCsf44oge9wsd6_12snafu_derive8EnumInfoNtB3z_17GenericAwareNames22provided_where_clauses00ENCB3u_0ENtB2_12IntoIterator9into_iterB3z_, symObjAddr: 0x2700, symBinAddr: 0x4A7BC, symSize: 0x30 }
  - { offset: 0xDA2DC, size: 0x8, addend: 0x0, symName: __RNvXNtNtNtCsfvfooZQ3Axs_4core4iter6traits7collectINtNtNtB6_8adapters7flatten7FlatMapINtNtBQ_3map3MapINtNtCs5AlOhPCr03V_3syn10punctuated8IntoIterNtNtB1F_4data7VariantENCNvCsf44oge9wsd6_12snafu_derive16parse_snafu_enum0EINtNtB8_6result6ResultNtB2I_14FieldContaineruENCINvXs0_NtB2I_6spongeINtB4n_9AllErrorsINtNtCse1nGBsou5OW_5alloc3vec3VecB3Q_ENtNtB1F_5error5ErrorEINtB2_12FromIteratorIB3v_B3Q_IB4S_B5t_EEE9from_iterB1k_E0ENtB2_12IntoIterator9into_iterB2I_, symObjAddr: 0x2730, symBinAddr: 0x4A7EC, symSize: 0x30 }
  - { offset: 0xDA314, size: 0x8, addend: 0x0, symName: __RNvXNtNtNtCsfvfooZQ3Axs_4core4iter6traits7collectINtNtNtB6_8adapters7flatten7FlatMapINtNtCs5AlOhPCr03V_3syn10punctuated4IterNtNtB1p_8generics12GenericParamEINtNtB8_6option6OptionNtCs3cP53eQoTwO_11proc_macro211TokenStreamENCNvYNtCsf44oge9wsd6_12snafu_derive15NamedStructInfoNtB3E_17GenericAwareNames26provided_generic_lifetimes0ENtB2_12IntoIterator9into_iterB3E_, symObjAddr: 0x2760, symBinAddr: 0x4A81C, symSize: 0x30 }
  - { offset: 0xDA34C, size: 0x8, addend: 0x0, symName: __RNvXNtNtNtCsfvfooZQ3Axs_4core4iter6traits7collectINtNtNtB6_8adapters7flatten7FlatMapINtNtCs5AlOhPCr03V_3syn10punctuated4IterNtNtB1p_8generics12GenericParamEINtNtB8_6option6OptionNtCs3cP53eQoTwO_11proc_macro211TokenStreamENCNvYNtCsf44oge9wsd6_12snafu_derive8EnumInfoNtB3E_17GenericAwareNames26provided_generic_lifetimes0ENtB2_12IntoIterator9into_iterB3E_, symObjAddr: 0x2790, symBinAddr: 0x4A84C, symSize: 0x30 }
  - { offset: 0xDA384, size: 0x8, addend: 0x0, symName: __RNvXNtNtNtCsfvfooZQ3Axs_4core4iter6traits7collectINtNtNtB6_8adapters7flatten7FlatMapINtNtNtCse1nGBsou5OW_5alloc3vec9into_iter8IntoIterNtCsf44oge9wsd6_12snafu_derive14SnafuAttributeEINtNtB8_6option6OptionB28_ENCNvB2a_24parse_snafu_named_struct0ENtB2_12IntoIterator9into_iterB2a_, symObjAddr: 0x27C0, symBinAddr: 0x4A87C, symSize: 0x30 }
  - { offset: 0xDA3BC, size: 0x8, addend: 0x0, symName: __RNvXNtNtNtCsfvfooZQ3Axs_4core4iter6traits7collectINtNtNtB6_8adapters7flatten7FlattenINtNtBQ_3map3MapIB1l_IB1l_INtNtBQ_5chain5ChainINtNtNtB8_5slice4iter4IterNtCsf44oge9wsd6_12snafu_derive5FieldEINtNtB8_6option8IntoIterRB2u_EENCNvMs_NtNtB2w_6shared16context_selectorNtB3H_15ContextSelector41construct_implicit_fields_with_expression0ENCINvXs7_Cs3cP53eQoTwO_11proc_macro2NtB5t_11TokenStreamINtB2_12FromIteratorB5U_E9from_iterB1F_E0ENCINvXs6_NtB5t_3impNtB72_11TokenStreamIB6e_B7c_E9from_iterB1A_Es_0EENtB2_12IntoIterator9into_iterB2w_, symObjAddr: 0x27F0, symBinAddr: 0x4A8AC, symSize: 0x30 }
  - { offset: 0xDA491, size: 0x8, addend: 0x0, symName: __RNvXs_NtNtCsfvfooZQ3Axs_4core5slice4iterRSNtNtCs5AlOhPCr03V_3syn4expr4ExprNtNtNtNtB8_4iter6traits7collect12IntoIterator9into_iterCsf44oge9wsd6_12snafu_derive, symObjAddr: 0x3820, symBinAddr: 0x4B8DC, symSize: 0x58 }
  - { offset: 0xDA792, size: 0x8, addend: 0x0, symName: __RINvNtNtNtCsfvfooZQ3Axs_4core5slice4sort6stable14driftsort_mainRNtCs3cP53eQoTwO_11proc_macro25IdentNvYBZ_NtNtB8_3cmp10PartialOrd2ltINtNtCse1nGBsou5OW_5alloc3vec3VecBZ_EECsf44oge9wsd6_12snafu_derive, symObjAddr: 0x7EC, symBinAddr: 0x488A8, symSize: 0x2AC }
  - { offset: 0xDA9E7, size: 0x8, addend: 0x0, symName: __RINvNtNtNtNtCsfvfooZQ3Axs_4core5slice4sort6stable9quicksort16stable_partitionRNtCs3cP53eQoTwO_11proc_macro25IdentNCINvB2_9quicksortB1d_NvYB1d_NtNtBa_3cmp10PartialOrd2ltE0ECsf44oge9wsd6_12snafu_derive, symObjAddr: 0xA98, symBinAddr: 0x48B54, symSize: 0x474 }
  - { offset: 0xDAE4F, size: 0x8, addend: 0x0, symName: __RINvNtNtNtNtCsfvfooZQ3Axs_4core5slice4sort6stable9quicksort16stable_partitionRNtCs3cP53eQoTwO_11proc_macro25IdentNvYB1d_NtNtBa_3cmp10PartialOrd2ltECsf44oge9wsd6_12snafu_derive, symObjAddr: 0xF0C, symBinAddr: 0x48FC8, symSize: 0x474 }
  - { offset: 0xDB2B7, size: 0x8, addend: 0x0, symName: __RINvNtNtNtNtCsfvfooZQ3Axs_4core5slice4sort6stable9quicksort9quicksortRNtCs3cP53eQoTwO_11proc_macro25IdentNvYB15_NtNtBa_3cmp10PartialOrd2ltECsf44oge9wsd6_12snafu_derive, symObjAddr: 0x1380, symBinAddr: 0x4943C, symSize: 0x3A4 }
  - { offset: 0xDB54F, size: 0x8, addend: 0x0, symName: __RNCINvNtNtNtNtCsfvfooZQ3Axs_4core5slice4sort6stable9quicksort9quicksortRNtCs3cP53eQoTwO_11proc_macro25IdentNvYB17_NtNtBc_3cmp10PartialOrd2ltE0Csf44oge9wsd6_12snafu_derive, symObjAddr: 0x1D5C, symBinAddr: 0x49E18, symSize: 0x48 }
  - { offset: 0xDB5C5, size: 0x8, addend: 0x0, symName: __RNvXs0_NtNtNtNtCsfvfooZQ3Axs_4core5slice4sort6stable9quicksortRNtCs3cP53eQoTwO_11proc_macro25IdentNtB5_8IsFreeze9is_freezeCsf44oge9wsd6_12snafu_derive, symObjAddr: 0x2820, symBinAddr: 0x4A8DC, symSize: 0xC }
  - { offset: 0xDB772, size: 0x8, addend: 0x0, symName: __RNvMNtCsfvfooZQ3Axs_4core5sliceSNtCs3cP53eQoTwO_11proc_macro211TokenStream4iterCsf44oge9wsd6_12snafu_derive, symObjAddr: 0x1DD4, symBinAddr: 0x49E90, symSize: 0x28 }
  - { offset: 0xDB7A9, size: 0x8, addend: 0x0, symName: __RNvMNtCsfvfooZQ3Axs_4core5sliceSNtCs3cP53eQoTwO_11proc_macro25Ident4iterCsf44oge9wsd6_12snafu_derive, symObjAddr: 0x1DFC, symBinAddr: 0x49EB8, symSize: 0x28 }
  - { offset: 0xDB7E0, size: 0x8, addend: 0x0, symName: __RNvMNtCsfvfooZQ3Axs_4core5sliceSNtNtCs5AlOhPCr03V_3syn4expr4Expr11split_firstCsf44oge9wsd6_12snafu_derive, symObjAddr: 0x1E24, symBinAddr: 0x49EE0, symSize: 0x80 }
  - { offset: 0xDB83B, size: 0x8, addend: 0x0, symName: __RNvMNtCsfvfooZQ3Axs_4core5sliceSNtNtCs5AlOhPCr03V_3syn4expr4Expr4iterCsf44oge9wsd6_12snafu_derive, symObjAddr: 0x1EA4, symBinAddr: 0x49F60, symSize: 0x28 }
  - { offset: 0xDB899, size: 0x8, addend: 0x0, symName: __RNvMNtCsfvfooZQ3Axs_4core5sliceSRNtCs3cP53eQoTwO_11proc_macro25Ident22split_at_mut_uncheckedCsf44oge9wsd6_12snafu_derive, symObjAddr: 0x1ECC, symBinAddr: 0x49F88, symSize: 0xE8 }
  - { offset: 0xDB9EB, size: 0x8, addend: 0x0, symName: __RNvMNtCsfvfooZQ3Axs_4core5sliceSRNtCs3cP53eQoTwO_11proc_macro25Ident4iterCsf44oge9wsd6_12snafu_derive, symObjAddr: 0x1FB4, symBinAddr: 0x4A070, symSize: 0x28 }
  - { offset: 0xDBA70, size: 0x8, addend: 0x0, symName: __RNvMNtCsfvfooZQ3Axs_4core5sliceSRNtCs3cP53eQoTwO_11proc_macro25Ident7reverseCsf44oge9wsd6_12snafu_derive, symObjAddr: 0x1FDC, symBinAddr: 0x4A098, symSize: 0xFC }
  - { offset: 0xDBD2E, size: 0x8, addend: 0x0, symName: __RNvNvNtNtCsfvfooZQ3Axs_4core5slice3raw14from_raw_parts18precondition_checkCsf44oge9wsd6_12snafu_derive, symObjAddr: 0x2288, symBinAddr: 0x4A344, symSize: 0x168 }
  - { offset: 0xDBE74, size: 0x8, addend: 0x0, symName: __RNvNvNtNtCsfvfooZQ3Axs_4core5slice3raw18from_raw_parts_mut18precondition_checkCsf44oge9wsd6_12snafu_derive, symObjAddr: 0x23F0, symBinAddr: 0x4A4AC, symSize: 0x168 }
  - { offset: 0xDC5B3, size: 0x8, addend: 0x0, symName: __RNvXs2_NtNtNtCsfvfooZQ3Axs_4core3ops8function5implsQNCINvXs7_Cs3cP53eQoTwO_11proc_macro2NtBX_11TokenStreamINtNtNtNtBb_4iter6traits7collect12FromIteratorB1o_E9from_iterINtNtNtB1N_8adapters3map3MapINtNtB2K_5chain5ChainINtNtNtBb_5slice4iter4IterNtCsf44oge9wsd6_12snafu_derive5FieldEINtNtBb_6option8IntoIterRB3S_EENCNvMs_NtNtB3U_6shared16context_selectorNtB55_15ContextSelector41construct_implicit_fields_with_expression0EE0INtB7_6FnOnceTB1o_EE9call_onceB3U_, symObjAddr: 0x2A94, symBinAddr: 0x4AB50, symSize: 0x3C }
  - { offset: 0xDC61A, size: 0x8, addend: 0x0, symName: __RNvXs1_NtCsfvfooZQ3Axs_4core7convertNtCs3cP53eQoTwO_11proc_macro211TokenStreamINtB5_4IntoNtCs9i5KxIbZ5ph_10proc_macro11TokenStreamE4intoCsf44oge9wsd6_12snafu_derive, symObjAddr: 0x282C, symBinAddr: 0x4A8E8, symSize: 0x14 }
  - { offset: 0xDCAF3, size: 0x8, addend: 0x0, symName: __RNvNvXs5_NtNtCsfvfooZQ3Axs_4core3str6traitsINtNtNtBb_3ops5range5RangejEINtNtNtBb_5slice5index10SliceIndexeE13get_unchecked18precondition_checkCsf44oge9wsd6_12snafu_derive, symObjAddr: 0x2558, symBinAddr: 0x4A614, symSize: 0x60 }
  - { offset: 0xDCB3E, size: 0x8, addend: 0x0, symName: __RNvXs_NtNtCsfvfooZQ3Axs_4core3str6traitseNtNtB8_3cmp9PartialEq2eqCsf44oge9wsd6_12snafu_derive, symObjAddr: 0x37BC, symBinAddr: 0x4B878, symSize: 0x64 }
  - { offset: 0xDCC2E, size: 0x8, addend: 0x0, symName: __RNvXNtCsfvfooZQ3Axs_4core6borrowNtCs3cP53eQoTwO_11proc_macro25IdentINtB2_6BorrowBu_E6borrowCsf44oge9wsd6_12snafu_derive, symObjAddr: 0x2678, symBinAddr: 0x4A734, symSize: 0x14 }
  - { offset: 0xDCC63, size: 0x8, addend: 0x0, symName: __RNvXNtCsfvfooZQ3Axs_4core6borrowRNtCs3cP53eQoTwO_11proc_macro25IdentINtB2_6BorrowBu_E6borrowCsf44oge9wsd6_12snafu_derive, symObjAddr: 0x268C, symBinAddr: 0x4A748, symSize: 0x14 }
  - { offset: 0xDCFE1, size: 0x8, addend: 0x0, symName: __RNvXNtNtCsf44oge9wsd6_12snafu_derive6shared12error_compatNtB2_11ErrorCompatNtNtCs2cqEZUIJimJ_5quote9to_tokens8ToTokens9to_tokens, symObjAddr: 0x5DC8, symBinAddr: 0x4DE84, symSize: 0x900 }
  - { offset: 0xDD351, size: 0x8, addend: 0x0, symName: __RNvXs_NtNtCsf44oge9wsd6_12snafu_derive6shared12error_compatNtB4_28ErrorCompatBacktraceMatchArmNtNtCs2cqEZUIJimJ_5quote9to_tokens8ToTokens9to_tokens, symObjAddr: 0x66C8, symBinAddr: 0x4E784, symSize: 0x734 }
  - { offset: 0xE45F5, size: 0x8, addend: 0x0, symName: __RINvMNtCs5AlOhPCr03V_3syn9lookaheadNtB3_10Lookahead14peekINvNtNtCsf44oge9wsd6_12snafu_derive5parse2kw10crate_rootNtB3_11TokenMarkerEEB10_, symObjAddr: 0x0, symBinAddr: 0x480BC, symSize: 0x44 }
  - { offset: 0xE4646, size: 0x8, addend: 0x0, symName: __RINvMNtCs5AlOhPCr03V_3syn9lookaheadNtB3_10Lookahead14peekINvNtNtCsf44oge9wsd6_12snafu_derive5parse2kw10visibilityNtB3_11TokenMarkerEEB10_, symObjAddr: 0x44, symBinAddr: 0x48100, symSize: 0x44 }
  - { offset: 0xE4697, size: 0x8, addend: 0x0, symName: __RINvMNtCs5AlOhPCr03V_3syn9lookaheadNtB3_10Lookahead14peekINvNtNtCsf44oge9wsd6_12snafu_derive5parse2kw3optNtB3_11TokenMarkerEEB10_, symObjAddr: 0x88, symBinAddr: 0x48144, symSize: 0x44 }
  - { offset: 0xE46E8, size: 0x8, addend: 0x0, symName: __RINvMNtCs5AlOhPCr03V_3syn9lookaheadNtB3_10Lookahead14peekINvNtNtCsf44oge9wsd6_12snafu_derive5parse2kw4fromNtB3_11TokenMarkerEEB10_, symObjAddr: 0xCC, symBinAddr: 0x48188, symSize: 0x44 }
  - { offset: 0xE4739, size: 0x8, addend: 0x0, symName: __RINvMNtCs5AlOhPCr03V_3syn9lookaheadNtB3_10Lookahead14peekINvNtNtCsf44oge9wsd6_12snafu_derive5parse2kw5chainNtB3_11TokenMarkerEEB10_, symObjAddr: 0x110, symBinAddr: 0x481CC, symSize: 0x44 }
  - { offset: 0xE478A, size: 0x8, addend: 0x0, symName: __RINvMNtCs5AlOhPCr03V_3syn9lookaheadNtB3_10Lookahead14peekINvNtNtCsf44oge9wsd6_12snafu_derive5parse2kw6moduleNtB3_11TokenMarkerEEB10_, symObjAddr: 0x154, symBinAddr: 0x48210, symSize: 0x44 }
  - { offset: 0xE47DB, size: 0x8, addend: 0x0, symName: __RINvMNtCs5AlOhPCr03V_3syn9lookaheadNtB3_10Lookahead14peekINvNtNtCsf44oge9wsd6_12snafu_derive5parse2kw6sourceNtB3_11TokenMarkerEEB10_, symObjAddr: 0x198, symBinAddr: 0x48254, symSize: 0x44 }
  - { offset: 0xE482C, size: 0x8, addend: 0x0, symName: __RINvMNtCs5AlOhPCr03V_3syn9lookaheadNtB3_10Lookahead14peekINvNtNtCsf44oge9wsd6_12snafu_derive5parse2kw6suffixNtB3_11TokenMarkerEEB10_, symObjAddr: 0x1DC, symBinAddr: 0x48298, symSize: 0x44 }
  - { offset: 0xE487D, size: 0x8, addend: 0x0, symName: __RINvMNtCs5AlOhPCr03V_3syn9lookaheadNtB3_10Lookahead14peekINvNtNtCsf44oge9wsd6_12snafu_derive5parse2kw7contextNtB3_11TokenMarkerEEB10_, symObjAddr: 0x220, symBinAddr: 0x482DC, symSize: 0x44 }
  - { offset: 0xE48CE, size: 0x8, addend: 0x0, symName: __RINvMNtCs5AlOhPCr03V_3syn9lookaheadNtB3_10Lookahead14peekINvNtNtCsf44oge9wsd6_12snafu_derive5parse2kw7displayNtB3_11TokenMarkerEEB10_, symObjAddr: 0x264, symBinAddr: 0x48320, symSize: 0x44 }
  - { offset: 0xE491F, size: 0x8, addend: 0x0, symName: __RINvMNtCs5AlOhPCr03V_3syn9lookaheadNtB3_10Lookahead14peekINvNtNtCsf44oge9wsd6_12snafu_derive5parse2kw7provideNtB3_11TokenMarkerEEB10_, symObjAddr: 0x2A8, symBinAddr: 0x48364, symSize: 0x44 }
  - { offset: 0xE4970, size: 0x8, addend: 0x0, symName: __RINvMNtCs5AlOhPCr03V_3syn9lookaheadNtB3_10Lookahead14peekINvNtNtCsf44oge9wsd6_12snafu_derive5parse2kw8implicitNtB3_11TokenMarkerEEB10_, symObjAddr: 0x2EC, symBinAddr: 0x483A8, symSize: 0x44 }
  - { offset: 0xE49C1, size: 0x8, addend: 0x0, symName: __RINvMNtCs5AlOhPCr03V_3syn9lookaheadNtB3_10Lookahead14peekINvNtNtCsf44oge9wsd6_12snafu_derive5parse2kw8priorityNtB3_11TokenMarkerEEB10_, symObjAddr: 0x330, symBinAddr: 0x483EC, symSize: 0x44 }
  - { offset: 0xE4A12, size: 0x8, addend: 0x0, symName: __RINvMNtCs5AlOhPCr03V_3syn9lookaheadNtB3_10Lookahead14peekINvNtNtCsf44oge9wsd6_12snafu_derive5parse2kw8whateverNtB3_11TokenMarkerEEB10_, symObjAddr: 0x374, symBinAddr: 0x48430, symSize: 0x44 }
  - { offset: 0xE4A63, size: 0x8, addend: 0x0, symName: __RINvMNtCs5AlOhPCr03V_3syn9lookaheadNtB3_10Lookahead14peekINvNtNtCsf44oge9wsd6_12snafu_derive5parse2kw9backtraceNtB3_11TokenMarkerEEB10_, symObjAddr: 0x3B8, symBinAddr: 0x48474, symSize: 0x44 }
  - { offset: 0xE4AB4, size: 0x8, addend: 0x0, symName: __RINvMNtCs5AlOhPCr03V_3syn9lookaheadNtB3_10Lookahead14peekNvNtB5_3lit7LitBoolECsf44oge9wsd6_12snafu_derive, symObjAddr: 0x3FC, symBinAddr: 0x484B8, symSize: 0x44 }
  - { offset: 0xE5038, size: 0x8, addend: 0x0, symName: __RINvMs0_NtCs3cP53eQoTwO_11proc_macro25rcvecINtB6_8RcVecMutNtB8_9TokenTreeE6extendINtNtNtNtCsfvfooZQ3Axs_4core4iter8adapters7flatten7FlattenINtNtB1m_3map3MapIB2e_IB2e_INtNtB1m_5chain5ChainINtNtNtB1q_5slice4iter4IterNtCsf44oge9wsd6_12snafu_derive5FieldEINtNtB1q_6option8IntoIterRB3q_EENCNvMs_NtNtB3s_6shared16context_selectorNtB4E_15ContextSelector41construct_implicit_fields_with_expression0ENCINvXs7_B8_NtB8_11TokenStreamINtNtNtB1o_6traits7collect12FromIteratorB6t_E9from_iterB2z_E0ENCINvXs6_NtB8_3impNtB7U_11TokenStreamIB6M_B83_E9from_iterB2u_Es_0EEEB3s_, symObjAddr: 0x440, symBinAddr: 0x484FC, symSize: 0x40 }
  - { offset: 0xE563F, size: 0x8, addend: 0x0, symName: __RINvNvNtCscOYdFFY2T5N_3std9panicking3try7do_callINtNtNtCsfvfooZQ3Axs_4core5panic11unwind_safe16AssertUnwindSafeNCINvNtNtCs9i5KxIbZ5ph_10proc_macro6bridge6client10run_clientNtB1Q_11TokenStreamINtNtBR_6option6OptionB2K_ENCNCINvMs7_B1Q_INtB1Q_6ClientNtB1U_11TokenStreamB3X_E7expand1NvCsf44oge9wsd6_12snafu_derive12snafu_deriveE00E0EuEB4v_, symObjAddr: 0x1724, symBinAddr: 0x497E0, symSize: 0x50 }
  - { offset: 0xE5707, size: 0x8, addend: 0x0, symName: __RINvNvNtCscOYdFFY2T5N_3std9panicking3try7do_callINtNtNtCsfvfooZQ3Axs_4core5panic11unwind_safe16AssertUnwindSafeNCINvNtNtCs9i5KxIbZ5ph_10proc_macro6bridge6client10run_clientTNtB1Q_11TokenStreamB2L_EINtNtBR_6option6OptionB2L_ENCNCINvMs8_B1Q_INtB1Q_6ClientTNtB1U_11TokenStreamB44_EB44_E7expand2NvCsf44oge9wsd6_12snafu_derive6reportE00E0EuEB4H_, symObjAddr: 0x1774, symBinAddr: 0x49830, symSize: 0x50 }
  - { offset: 0xE57CF, size: 0x8, addend: 0x0, symName: __RINvNvNtCscOYdFFY2T5N_3std9panicking3try8do_catchINtNtNtCsfvfooZQ3Axs_4core5panic11unwind_safe16AssertUnwindSafeNCINvNtNtCs9i5KxIbZ5ph_10proc_macro6bridge6client10run_clientNtB1R_11TokenStreamINtNtBS_6option6OptionB2L_ENCNCINvMs7_B1R_INtB1R_6ClientNtB1V_11TokenStreamB3Y_E7expand1NvCsf44oge9wsd6_12snafu_derive12snafu_deriveE00E0EuEB4w_, symObjAddr: 0x17C4, symBinAddr: 0x49880, symSize: 0x70 }
  - { offset: 0xE5864, size: 0x8, addend: 0x0, symName: __RINvNvNtCscOYdFFY2T5N_3std9panicking3try8do_catchINtNtNtCsfvfooZQ3Axs_4core5panic11unwind_safe16AssertUnwindSafeNCINvNtNtCs9i5KxIbZ5ph_10proc_macro6bridge6client10run_clientTNtB1R_11TokenStreamB2M_EINtNtBS_6option6OptionB2M_ENCNCINvMs8_B1R_INtB1R_6ClientTNtB1V_11TokenStreamB45_EB45_E7expand2NvCsf44oge9wsd6_12snafu_derive6reportE00E0EuEB4I_, symObjAddr: 0x1834, symBinAddr: 0x498F0, symSize: 0x70 }
  - { offset: 0xE59EE, size: 0x8, addend: 0x0, symName: __RINvXNtCs2cqEZUIJimJ_5quote3extNtCs3cP53eQoTwO_11proc_macro211TokenStreamNtB3_14TokenStreamExt10append_allINtNtCs5AlOhPCr03V_3syn10punctuated5PairsNtNtB1L_4item5FnArgNtNtB1L_5token5CommaEECsf44oge9wsd6_12snafu_derive, symObjAddr: 0x18A4, symBinAddr: 0x49960, symSize: 0xD0 }
  - { offset: 0xE5A60, size: 0x8, addend: 0x0, symName: __RINvXNtCs2cqEZUIJimJ_5quote3extNtCs3cP53eQoTwO_11proc_macro211TokenStreamNtB3_14TokenStreamExt10append_allINtNtCs5AlOhPCr03V_3syn10punctuated5PairsNtNtCsf44oge9wsd6_12snafu_derive5parse11ProvideFlagNtNtB1L_5token5CommaEEB2p_, symObjAddr: 0x1974, symBinAddr: 0x49A30, symSize: 0xD0 }
  - { offset: 0xE5AD2, size: 0x8, addend: 0x0, symName: __RINvXNtCs2cqEZUIJimJ_5quote3extNtCs3cP53eQoTwO_11proc_macro211TokenStreamNtB3_14TokenStreamExt10append_allINtNtCs5AlOhPCr03V_3syn10punctuated5PairsNtNtCsf44oge9wsd6_12snafu_derive5parse9SourceArgNtNtB1L_5token5CommaEEB2p_, symObjAddr: 0x1A44, symBinAddr: 0x49B00, symSize: 0xD0 }
  - { offset: 0xE5B50, size: 0x8, addend: 0x0, symName: __RNvXNtCs2cqEZUIJimJ_5quote9to_tokensRNtCs3cP53eQoTwO_11proc_macro211TokenStreamNtB2_8ToTokens9to_tokensCsf44oge9wsd6_12snafu_derive, symObjAddr: 0x25B8, symBinAddr: 0x4A674, symSize: 0x40 }
  - { offset: 0xE5B8F, size: 0x8, addend: 0x0, symName: __RNvXNtCs2cqEZUIJimJ_5quote9to_tokensRNtCs3cP53eQoTwO_11proc_macro25IdentNtB2_8ToTokens9to_tokensCsf44oge9wsd6_12snafu_derive, symObjAddr: 0x25F8, symBinAddr: 0x4A6B4, symSize: 0x40 }
  - { offset: 0xE5BCE, size: 0x8, addend: 0x0, symName: __RNvXNtCs2cqEZUIJimJ_5quote9to_tokensRRNtCs3cP53eQoTwO_11proc_macro25IdentNtB2_8ToTokens9to_tokensCsf44oge9wsd6_12snafu_derive, symObjAddr: 0x2638, symBinAddr: 0x4A6F4, symSize: 0x40 }
  - { offset: 0xE5C13, size: 0x8, addend: 0x0, symName: __RNvYNtCs3cP53eQoTwO_11proc_macro211TokenStreamNtNtCs2cqEZUIJimJ_5quote9to_tokens8ToTokens15to_token_streamCsf44oge9wsd6_12snafu_derive, symObjAddr: 0x5B34, symBinAddr: 0x4DBF0, symSize: 0x8C }
  - { offset: 0xE5C5D, size: 0x8, addend: 0x0, symName: __RNvYRNtCs3cP53eQoTwO_11proc_macro211TokenStreamNtNtCs2cqEZUIJimJ_5quote9to_tokens8ToTokens15to_token_streamCsf44oge9wsd6_12snafu_derive, symObjAddr: 0x5C5C, symBinAddr: 0x4DD18, symSize: 0x8C }
  - { offset: 0xE5CA7, size: 0x8, addend: 0x0, symName: __RNvYRNtCs3cP53eQoTwO_11proc_macro211TokenStreamNtNtCs2cqEZUIJimJ_5quote9to_tokens8ToTokens17into_token_streamCsf44oge9wsd6_12snafu_derive, symObjAddr: 0x5CE8, symBinAddr: 0x4DDA4, symSize: 0x54 }
  - { offset: 0xE5CDC, size: 0x8, addend: 0x0, symName: __RNvYRNtCs3cP53eQoTwO_11proc_macro25IdentNtNtCs2cqEZUIJimJ_5quote9to_tokens8ToTokens15to_token_streamCsf44oge9wsd6_12snafu_derive, symObjAddr: 0x5D3C, symBinAddr: 0x4DDF8, symSize: 0x8C }
  - { offset: 0xE5D37, size: 0x8, addend: 0x0, symName: __RNvXs2_NtNtCs2cqEZUIJimJ_5quote9___private3extSNtCs3cP53eQoTwO_11proc_macro211TokenStreamNtB5_16RepAsIteratorExt15quote_into_iterCsf44oge9wsd6_12snafu_derive, symObjAddr: 0x2A5C, symBinAddr: 0x4AB18, symSize: 0x38 }
  - { offset: 0xE5E64, size: 0x8, addend: 0x0, symName: __RNvMNtNtNtCsfvfooZQ3Axs_4core5slice4sort6stableINtB2_14AlignedStorageRNtCs3cP53eQoTwO_11proc_macro25IdentKj1000_E19as_uninit_slice_mutCsf44oge9wsd6_12snafu_derive, symObjAddr: 0x20D8, symBinAddr: 0x4A194, symSize: 0x78 }
  - { offset: 0xE5F18, size: 0x8, addend: 0x0, symName: __RNvMNtNtNtNtCsfvfooZQ3Axs_4core5slice4sort6stable9quicksortINtB2_14PartitionStateRNtCs3cP53eQoTwO_11proc_macro25IdentE13partition_oneCsf44oge9wsd6_12snafu_derive, symObjAddr: 0x2150, symBinAddr: 0x4A20C, symSize: 0x138 }
  - { offset: 0xE6A79, size: 0x8, addend: 0x0, symName: __RINvMNtCse1nGBsou5OW_5alloc5sliceSNtNtB5_6string6String4joinReECsf44oge9wsd6_12snafu_derive, symObjAddr: 0x0, symBinAddr: 0x4EEB8, symSize: 0x34 }
  - { offset: 0xE71F2, size: 0x8, addend: 0x0, symName: __RINvXsa_NtCs3cP53eQoTwO_11proc_macro28fallbackNtB6_11TokenStreamINtNtNtNtCsfvfooZQ3Axs_4core4iter6traits7collect6ExtendNtB8_9TokenTreeE6extendNtB8_11TokenStreamECsf44oge9wsd6_12snafu_derive, symObjAddr: 0x1590, symBinAddr: 0x50448, symSize: 0xC0 }
  - { offset: 0xE7258, size: 0x8, addend: 0x0, symName: __RNCINvXsa_NtCs3cP53eQoTwO_11proc_macro28fallbackNtB8_11TokenStreamINtNtNtNtCsfvfooZQ3Axs_4core4iter6traits7collect6ExtendNtBa_9TokenTreeE6extendNtBa_11TokenStreamE0Csf44oge9wsd6_12snafu_derive, symObjAddr: 0x1E04, symBinAddr: 0x50CBC, symSize: 0xAC }
  - { offset: 0xE72A5, size: 0x8, addend: 0x0, symName: __RINvXsb_NtCs3cP53eQoTwO_11proc_macro28fallbackNtB6_11TokenStreamINtNtNtNtCsfvfooZQ3Axs_4core4iter6traits7collect6ExtendBI_E6extendINtNtNtB17_8adapters3map3MapIB25_IB25_INtNtB29_5chain5ChainINtNtNtB19_5slice4iter4IterNtCsf44oge9wsd6_12snafu_derive5FieldEINtNtB19_6option8IntoIterRB3s_EENCNvMs_NtNtB3u_6shared16context_selectorNtB4G_15ContextSelector41construct_implicit_fields_with_expression0ENCINvXs7_B8_NtB8_11TokenStreamINtB13_12FromIteratorB6v_E9from_iterB2B_E0ENCINvXs6_NtB8_3impNtB7D_11TokenStreamIB6O_B7M_E9from_iterB2w_Es_0EEB3u_, symObjAddr: 0x1650, symBinAddr: 0x50508, symSize: 0xD0 }
  - { offset: 0xE72EE, size: 0x8, addend: 0x0, symName: __RNvXsA_NtCs3cP53eQoTwO_11proc_macro28fallbackNtB5_5IdentNtNtCsfvfooZQ3Axs_4core5clone5Clone5cloneCsf44oge9wsd6_12snafu_derive, symObjAddr: 0x3D0C, symBinAddr: 0x52BC4, symSize: 0x94 }
  - { offset: 0xE7322, size: 0x8, addend: 0x0, symName: __RNvXss_NtCs3cP53eQoTwO_11proc_macro28fallbackNtB5_11TokenStreamNtNtCsfvfooZQ3Axs_4core5clone5Clone5cloneCsf44oge9wsd6_12snafu_derive, symObjAddr: 0x3E88, symBinAddr: 0x52D40, symSize: 0x24 }
  - { offset: 0xE7354, size: 0x8, addend: 0x0, symName: __RNvXsu_NtCs3cP53eQoTwO_11proc_macro28fallbackNtB5_4SpanNtNtCsfvfooZQ3Axs_4core5clone5Clone5cloneCsf44oge9wsd6_12snafu_derive, symObjAddr: 0x3ED0, symBinAddr: 0x52D88, symSize: 0x10 }
  - { offset: 0xE80D8, size: 0x8, addend: 0x0, symName: __RNvNtNtCsf44oge9wsd6_12snafu_derive6report9yes_async10async_body, symObjAddr: 0x3FE8, symBinAddr: 0x52EA0, symSize: 0x348 }
  - { offset: 0xE8198, size: 0x8, addend: 0x0, symName: __RINvMNtCse1nGBsou5OW_5alloc5sliceSNtNtB5_6string6String4joinReECsf44oge9wsd6_12snafu_derive, symObjAddr: 0x0, symBinAddr: 0x4EEB8, symSize: 0x34 }
  - { offset: 0xE963E, size: 0x8, addend: 0x0, symName: __RNvXsW_NtCse1nGBsou5OW_5alloc6stringNtB5_6StringNtNtCsfvfooZQ3Axs_4core3fmt5Write10write_charCsf44oge9wsd6_12snafu_derive, symObjAddr: 0x3DA0, symBinAddr: 0x52C58, symSize: 0x30 }
  - { offset: 0xE967B, size: 0x8, addend: 0x0, symName: __RNvXsW_NtCse1nGBsou5OW_5alloc6stringNtB5_6StringNtNtCsfvfooZQ3Axs_4core3fmt5Write9write_strCsf44oge9wsd6_12snafu_derive, symObjAddr: 0x3DD0, symBinAddr: 0x52C88, symSize: 0x38 }
  - { offset: 0xE96BE, size: 0x8, addend: 0x0, symName: __RNvXsk_NtCse1nGBsou5OW_5alloc6stringNtB5_6StringNtNtCsfvfooZQ3Axs_4core7default7Default7defaultCsf44oge9wsd6_12snafu_derive, symObjAddr: 0x3E58, symBinAddr: 0x52D10, symSize: 0x30 }
  - { offset: 0xE970E, size: 0x8, addend: 0x0, symName: __RNvXss_NtCse1nGBsou5OW_5alloc6stringNtB5_6StringNtNtNtCsfvfooZQ3Axs_4core3ops5deref5Deref5derefCsf44oge9wsd6_12snafu_derive, symObjAddr: 0x3EAC, symBinAddr: 0x52D64, symSize: 0x24 }
  - { offset: 0xE97DD, size: 0x8, addend: 0x0, symName: __RNCNvMs6_NtNtNtNtCse1nGBsou5OW_5alloc11collections5btree3map5entryINtB7_11VacantEntryNtCs3cP53eQoTwO_11proc_macro25IdentNtNtBb_7set_val9SetValZSTE12insert_entry0Csf44oge9wsd6_12snafu_derive, symObjAddr: 0x1EB0, symBinAddr: 0x50D68, symSize: 0x158 }
  - { offset: 0xEA077, size: 0x8, addend: 0x0, symName: __RNvXs0_NtCse1nGBsou5OW_5alloc3strNtNtB7_6string6StringINtNtCsfvfooZQ3Axs_4core6borrow6BorroweE6borrowCsf44oge9wsd6_12snafu_derive, symObjAddr: 0x2B5C, symBinAddr: 0x51A14, symSize: 0x2C }
  - { offset: 0xEA0A9, size: 0x8, addend: 0x0, symName: __RNvXs_NtCse1nGBsou5OW_5alloc3strSNtNtB6_6string6StringINtNtB6_5slice4JoinReE4joinCsf44oge9wsd6_12snafu_derive, symObjAddr: 0x3E08, symBinAddr: 0x52CC0, symSize: 0x50 }
  - { offset: 0xEDE28, size: 0x8, addend: 0x0, symName: __RINvNtNtNtCsfvfooZQ3Axs_4core4iter8adapters4fuse17and_then_or_clearINtNtB4_3map3MapIB14_INtNtCs5AlOhPCr03V_3syn10punctuated8IntoIterNtNtB1t_4data7VariantENCNvCsf44oge9wsd6_12snafu_derive16parse_snafu_enum0ENCINvXs0_NtB2w_6spongeINtB3r_9AllErrorsINtNtCse1nGBsou5OW_5alloc3vec3VecNtB2w_14FieldContainerENtNtB1t_5error5ErrorEINtNtNtB6_6traits7collect12FromIteratorINtNtB8_6result6ResultB4s_IB3W_B4P_EEE9from_iterB1j_E0EIB5O_B4s_uENvYB13_NtNtB5f_8iterator8Iterator4nextEB2w_, symObjAddr: 0x34, symBinAddr: 0x4EEEC, symSize: 0x130 }
  - { offset: 0xEDF6B, size: 0x8, addend: 0x0, symName: __RINvNtNtNtCsfvfooZQ3Axs_4core4iter8adapters4fuse17and_then_or_clearINtNtB4_3map3MapINtNtCs5AlOhPCr03V_3syn10punctuated4IterNtNtB1o_8generics12GenericParamENCNvYNtCsf44oge9wsd6_12snafu_derive15NamedStructInfoNtB2A_17GenericAwareNames26provided_generic_lifetimes0EINtNtB8_6option6OptionNtCs3cP53eQoTwO_11proc_macro211TokenStreamENvYB13_NtNtNtB6_6traits8iterator8Iterator4nextEB2A_, symObjAddr: 0x164, symBinAddr: 0x4F01C, symSize: 0x12C }
  - { offset: 0xEE0AA, size: 0x8, addend: 0x0, symName: __RINvNtNtNtCsfvfooZQ3Axs_4core4iter8adapters4fuse17and_then_or_clearINtNtB4_3map3MapINtNtCs5AlOhPCr03V_3syn10punctuated4IterNtNtB1o_8generics12GenericParamENCNvYNtCsf44oge9wsd6_12snafu_derive8EnumInfoNtB2A_17GenericAwareNames26provided_generic_lifetimes0EINtNtB8_6option6OptionNtCs3cP53eQoTwO_11proc_macro211TokenStreamENvYB13_NtNtNtB6_6traits8iterator8Iterator4nextEB2A_, symObjAddr: 0x290, symBinAddr: 0x4F148, symSize: 0x12C }
  - { offset: 0xEE1EE, size: 0x8, addend: 0x0, symName: __RNvXs8_NtNtNtCsfvfooZQ3Axs_4core4iter8adapters4fuseINtB5_4FuseINtNtB7_3map3MapIBZ_INtNtCs5AlOhPCr03V_3syn10punctuated8IntoIterNtNtB1n_4data7VariantENCNvCsf44oge9wsd6_12snafu_derive16parse_snafu_enum0ENCINvXs0_NtB2q_6spongeINtB3l_9AllErrorsINtNtCse1nGBsou5OW_5alloc3vec3VecNtB2q_14FieldContainerENtNtB1n_5error5ErrorEINtNtNtB9_6traits7collect12FromIteratorINtNtBb_6result6ResultB4m_IB3Q_B4J_EEE9from_iterB1e_E0EEINtB5_8FuseImplBY_E4nextB2q_, symObjAddr: 0x3984, symBinAddr: 0x5283C, symSize: 0x24 }
  - { offset: 0xEE225, size: 0x8, addend: 0x0, symName: __RNvXs8_NtNtNtCsfvfooZQ3Axs_4core4iter8adapters4fuseINtB5_4FuseINtNtB7_3map3MapINtNtCs5AlOhPCr03V_3syn10punctuated4IterNtNtB1j_8generics12GenericParamENCNvYNtCsf44oge9wsd6_12snafu_derive15NamedStructInfoNtB2v_17GenericAwareNames26provided_generic_lifetimes0EEINtB5_8FuseImplBY_E4nextB2v_, symObjAddr: 0x39A8, symBinAddr: 0x52860, symSize: 0x24 }
  - { offset: 0xEE25C, size: 0x8, addend: 0x0, symName: __RNvXs8_NtNtNtCsfvfooZQ3Axs_4core4iter8adapters4fuseINtB5_4FuseINtNtB7_3map3MapINtNtCs5AlOhPCr03V_3syn10punctuated4IterNtNtB1j_8generics12GenericParamENCNvYNtCsf44oge9wsd6_12snafu_derive8EnumInfoNtB2v_17GenericAwareNames26provided_generic_lifetimes0EEINtB5_8FuseImplBY_E4nextB2v_, symObjAddr: 0x39CC, symBinAddr: 0x52884, symSize: 0x24 }
  - { offset: 0xEE299, size: 0x8, addend: 0x0, symName: __RNvXs9_NtNtNtCsfvfooZQ3Axs_4core4iter8adapters4fuseINtB5_4FuseINtNtB7_3map3MapIBZ_IBZ_INtNtB7_5chain5ChainINtNtNtBb_5slice4iter4IterNtCsf44oge9wsd6_12snafu_derive5FieldEINtNtBb_6option8IntoIterRB26_EENCNvMs_NtNtB28_6shared16context_selectorNtB3j_15ContextSelector41construct_implicit_fields_with_expression0ENCINvXs7_Cs3cP53eQoTwO_11proc_macro2NtB55_11TokenStreamINtNtNtB9_6traits7collect12FromIteratorB5w_E9from_iterB1i_E0ENCINvXs6_NtB55_3impNtB6X_11TokenStreamIB5Q_B77_E9from_iterB1e_Es_0EEINtB5_8FuseImplBY_E4nextB28_, symObjAddr: 0x39F0, symBinAddr: 0x528A8, symSize: 0x80 }
  - { offset: 0xEE364, size: 0x8, addend: 0x0, symName: __RNvXs9_NtNtNtCsfvfooZQ3Axs_4core4iter8adapters4fuseINtB5_4FuseINtNtB7_3map3MapINtNtB7_5chain5ChainIB1f_INtNtNtBb_5slice4iter4IterNtCsf44oge9wsd6_12snafu_derive5FieldEB1D_EINtNtBb_6option8IntoIterRB23_EENCNvXs0_NtNtB25_6shared5errorNtB3m_20ErrorProvideMatchArmNtNtCs2cqEZUIJimJ_5quote9to_tokens8ToTokens9to_tokens0EEINtB5_8FuseImplBY_E4nextB25_, symObjAddr: 0x3A70, symBinAddr: 0x52928, symSize: 0x84 }
  - { offset: 0xEE42F, size: 0x8, addend: 0x0, symName: __RNvXs9_NtNtNtCsfvfooZQ3Axs_4core4iter8adapters4fuseINtB5_4FuseINtNtB7_3map3MapINtNtBb_6option4IterNtNtCs5AlOhPCr03V_3syn8generics11WhereClauseENCNvMsr_Csf44oge9wsd6_12snafu_deriveNtB2p_15TupleStructInfo14generate_snafu0EEINtB5_8FuseImplBY_E4nextB2p_, symObjAddr: 0x3AF4, symBinAddr: 0x529AC, symSize: 0x84 }
  - { offset: 0xEE4FA, size: 0x8, addend: 0x0, symName: __RNvXs9_NtNtNtCsfvfooZQ3Axs_4core4iter8adapters4fuseINtB5_4FuseINtNtB7_3map3MapINtNtBb_6option4IterNtNtCs5AlOhPCr03V_3syn8generics11WhereClauseENCNvYNtCsf44oge9wsd6_12snafu_derive15NamedStructInfoNtB2o_17GenericAwareNames22provided_where_clauses0EEINtB5_8FuseImplBY_E4nextB2o_, symObjAddr: 0x3B78, symBinAddr: 0x52A30, symSize: 0x84 }
  - { offset: 0xEE5C5, size: 0x8, addend: 0x0, symName: __RNvXs9_NtNtNtCsfvfooZQ3Axs_4core4iter8adapters4fuseINtB5_4FuseINtNtB7_3map3MapINtNtBb_6option4IterNtNtCs5AlOhPCr03V_3syn8generics11WhereClauseENCNvYNtCsf44oge9wsd6_12snafu_derive8EnumInfoNtB2o_17GenericAwareNames22provided_where_clauses0EEINtB5_8FuseImplBY_E4nextB2o_, symObjAddr: 0x3BFC, symBinAddr: 0x52AB4, symSize: 0x84 }
  - { offset: 0xEE690, size: 0x8, addend: 0x0, symName: __RNvXs9_NtNtNtCsfvfooZQ3Axs_4core4iter8adapters4fuseINtB5_4FuseINtNtB7_3map3MapINtNtNtCse1nGBsou5OW_5alloc3vec9into_iter8IntoIterNtCsf44oge9wsd6_12snafu_derive14SnafuAttributeENCNvB24_24parse_snafu_named_struct0EEINtB5_8FuseImplBY_E4nextB24_, symObjAddr: 0x3C80, symBinAddr: 0x52B38, symSize: 0x8C }
  - { offset: 0xEEA80, size: 0x8, addend: 0x0, symName: __RINvYINtNtNtCsfvfooZQ3Axs_4core5slice4iter4IterNtCs3cP53eQoTwO_11proc_macro211TokenStreamENtNtNtNtBa_4iter6traits8iterator8Iterator3mapBJ_NvYBJ_NtNtBa_5clone5Clone5cloneECsf44oge9wsd6_12snafu_derive, symObjAddr: 0x1720, symBinAddr: 0x505D8, symSize: 0x1C }
  - { offset: 0xEEAD8, size: 0x8, addend: 0x0, symName: __RINvYINtNtNtCsfvfooZQ3Axs_4core5slice4iter4IterNtCs3cP53eQoTwO_11proc_macro211TokenStreamENtNtNtNtBa_4iter6traits8iterator8Iterator6clonedBJ_ECsf44oge9wsd6_12snafu_derive, symObjAddr: 0x173C, symBinAddr: 0x505F4, symSize: 0x1C }
  - { offset: 0xEEB18, size: 0x8, addend: 0x0, symName: __RINvYINtNtNtCsfvfooZQ3Axs_4core5slice4iter4IterNtCsf44oge9wsd6_12snafu_derive14FieldContainerENtNtNtNtBa_4iter6traits8iterator8Iterator3mapNtBL_15ContextSelectorNCNvXsk_BL_NtBL_16ContextSelectorsNtNtCs2cqEZUIJimJ_5quote9to_tokens8ToTokens9to_tokens0EBL_, symObjAddr: 0x1758, symBinAddr: 0x50610, symSize: 0x30 }
  - { offset: 0xEEB85, size: 0x8, addend: 0x0, symName: __RINvYINtNtNtCsfvfooZQ3Axs_4core5slice4iter4IterNtCsf44oge9wsd6_12snafu_derive14FieldContainerENtNtNtNtBa_4iter6traits8iterator8Iterator3mapNtCs3cP53eQoTwO_11proc_macro211TokenStreamNCNvXsm_BL_NtBL_11DisplayImplNtNtCs2cqEZUIJimJ_5quote9to_tokens8ToTokens9to_tokens0EBL_, symObjAddr: 0x1788, symBinAddr: 0x50640, symSize: 0x30 }
  - { offset: 0xEEBF2, size: 0x8, addend: 0x0, symName: __RINvYINtNtNtCsfvfooZQ3Axs_4core5slice4iter4IterNtCsf44oge9wsd6_12snafu_derive14FieldContainerENtNtNtNtBa_4iter6traits8iterator8Iterator3mapNtCs3cP53eQoTwO_11proc_macro211TokenStreamNCNvXso_BL_NtBL_15ErrorCompatImplNtNtCs2cqEZUIJimJ_5quote9to_tokens8ToTokens9to_tokens0EBL_, symObjAddr: 0x17B8, symBinAddr: 0x50670, symSize: 0x30 }
  - { offset: 0xEEC5F, size: 0x8, addend: 0x0, symName: __RINvYINtNtNtCsfvfooZQ3Axs_4core5slice4iter4IterNtCsf44oge9wsd6_12snafu_derive5FieldENtNtNtNtBa_4iter6traits8iterator8Iterator3mapNtCs3cP53eQoTwO_11proc_macro211TokenStreamNCNvMs_NtNtBL_6shared16context_selectorNtB2Q_15ContextSelector22extended_where_clauses0EBL_, symObjAddr: 0x17E8, symBinAddr: 0x506A0, symSize: 0x1C }
  - { offset: 0xEECB7, size: 0x8, addend: 0x0, symName: __RINvYINtNtNtCsfvfooZQ3Axs_4core5slice4iter4IterNtCsf44oge9wsd6_12snafu_derive5FieldENtNtNtNtBa_4iter6traits8iterator8Iterator3mapRNtCs3cP53eQoTwO_11proc_macro25IdentNCNvMs_NtNtBL_6shared16context_selectorNtB2K_15ContextSelector16user_field_names0EBL_, symObjAddr: 0x1804, symBinAddr: 0x506BC, symSize: 0x1C }
  - { offset: 0xEED0F, size: 0x8, addend: 0x0, symName: __RINvYINtNtNtCsfvfooZQ3Axs_4core5slice4iter4IterNtCsf44oge9wsd6_12snafu_derive5FieldENtNtNtNtBa_4iter6traits8iterator8Iterator5chainINtNtBa_6option6OptionRBJ_EEBL_, symObjAddr: 0x1820, symBinAddr: 0x506D8, symSize: 0xBC }
  - { offset: 0xEED85, size: 0x8, addend: 0x0, symName: __RINvYINtNtNtCsfvfooZQ3Axs_4core5slice4iter4IterNtCsf44oge9wsd6_12snafu_derive5FieldENtNtNtNtBa_4iter6traits8iterator8Iterator5chainRINtNtCse1nGBsou5OW_5alloc3vec3VecBJ_EEBL_, symObjAddr: 0x18DC, symBinAddr: 0x50794, symSize: 0xC8 }
  - { offset: 0xEEDFB, size: 0x8, addend: 0x0, symName: __RINvYINtNtNtCsfvfooZQ3Axs_4core5slice4iter4IterNtNtCs5AlOhPCr03V_3syn5error5ErrorENtNtNtNtBa_4iter6traits8iterator8Iterator3mapNtCs3cP53eQoTwO_11proc_macro211TokenStreamNvMBL_BJ_16to_compile_errorECsf44oge9wsd6_12snafu_derive, symObjAddr: 0x19A4, symBinAddr: 0x5085C, symSize: 0x1C }
  - { offset: 0xEEE53, size: 0x8, addend: 0x0, symName: __RINvYINtNtNtCsfvfooZQ3Axs_4core5slice4iter4IterNtNtCse1nGBsou5OW_5alloc6string6StringENtNtNtNtBa_4iter6traits8iterator8Iterator8try_foldjNCINvNtNtB1s_8adapters3map12map_try_foldRBJ_jjINtNtBa_6option6OptionjENCNCINvNtBN_3str17join_generic_copyehBJ_E00NvMs9_NtBa_3numj11checked_addE0B2V_ECsf44oge9wsd6_12snafu_derive, symObjAddr: 0x19C0, symBinAddr: 0x50878, symSize: 0x180 }
  - { offset: 0xEEF0F, size: 0x8, addend: 0x0, symName: __RINvYINtNtNtCsfvfooZQ3Axs_4core5slice4iter4IterNtNtNtCsf44oge9wsd6_12snafu_derive6shared5error11ProvidePlusENtNtNtNtBa_4iter6traits8iterator8Iterator6filterNCNvBL_13quote_chained0EBP_, symObjAddr: 0x1B40, symBinAddr: 0x509F8, symSize: 0x1C }
  - { offset: 0xEEF5E, size: 0x8, addend: 0x0, symName: __RINvYINtNtNtCsfvfooZQ3Axs_4core5slice4iter4IterNtNtNtCsf44oge9wsd6_12snafu_derive6shared5error11ProvidePlusENtNtNtNtBa_4iter6traits8iterator8Iterator6filterNCNvBL_24quote_cached_expressions0EBP_, symObjAddr: 0x1B5C, symBinAddr: 0x50A14, symSize: 0x1C }
  - { offset: 0xEEFAD, size: 0x8, addend: 0x0, symName: __RINvYINtNtNtCsfvfooZQ3Axs_4core5slice4iter4IterNtNtNtCsf44oge9wsd6_12snafu_derive6shared5error11ProvidePlusENtNtNtNtBa_4iter6traits8iterator8Iterator9partitionINtNtCse1nGBsou5OW_5alloc3vec3VecRBJ_ENCNvBL_28build_explicit_provide_calls0EBP_, symObjAddr: 0x1B78, symBinAddr: 0x50A30, symSize: 0x138 }
  - { offset: 0xEF031, size: 0x8, addend: 0x0, symName: __RINvYINtNtNtCsfvfooZQ3Axs_4core5slice4iter4IterReENtNtNtNtBa_4iter6traits8iterator8Iterator3mapNtNtCse1nGBsou5OW_5alloc6string6StringNCNvXs9_Csf44oge9wsd6_12snafu_deriveNtB2f_22IncompatibleAttributesNtB2f_16ErrorForLocation12for_location0EB2f_, symObjAddr: 0x1CB0, symBinAddr: 0x50B68, symSize: 0x1C }
  - { offset: 0xEF089, size: 0x8, addend: 0x0, symName: __RINvYINtNtNtCsfvfooZQ3Axs_4core5slice4iter4IterTINtNtBa_6option6OptionTNtNtCs5AlOhPCr03V_3syn2ty4TypeNtNtB1b_4expr4ExprEENtCs3cP53eQoTwO_11proc_macro211TokenStreamEENtNtNtNtBa_4iter6traits8iterator8Iterator8try_folduQNCINvNtNtB2J_8adapters3map12map_try_foldRBJ_RBK_uINtNtNtBa_3ops12control_flow11ControlFlowuENCNvCsf44oge9wsd6_12snafu_derive15field_containers_0NCINvNvB2D_3any5checkB4b_NvMBN_BK_7is_someE0E0B4g_EB51_, symObjAddr: 0x1CCC, symBinAddr: 0x50B84, symSize: 0x138 }
  - { offset: 0xEF143, size: 0x8, addend: 0x0, symName: __RNvYINtNtNtCsfvfooZQ3Axs_4core5slice4iter4IterNtCsf44oge9wsd6_12snafu_derive7ProvideENtNtNtNtB9_4iter6traits8iterator8Iterator9enumerateBK_, symObjAddr: 0x3EE0, symBinAddr: 0x52D98, symSize: 0x28 }
  - { offset: 0xF1F6A, size: 0x8, addend: 0x0, symName: __RINvXs2U_NtNtCsfvfooZQ3Axs_4core5slice4iterINtB7_4IterNtCs3cP53eQoTwO_11proc_macro211TokenStreamENtNtNtNtBb_4iter6traits8iterator8Iterator4folduNCINvNtNtB1D_8adapters3map8map_foldRBQ_BQ_uNvYBQ_NtNtBb_5clone5Clone5cloneNCINvNvB1x_8for_each4callBQ_NCINvMsi_NtCse1nGBsou5OW_5alloc3vecINtB45_3VecBQ_E14extend_trustedINtNtB2p_5chain5ChainINtB2n_3MapINtNtB2p_3zip3ZipINtNtB45_9into_iter8IntoIterNtBS_5IdentEIB5m_IBG_NtCsf44oge9wsd6_12snafu_derive5FieldENCNvMs_NtNtB6C_6shared16context_selectorNtB7i_15ContextSelector22extended_where_clauses0EENCB7d_s_0EINtNtB2p_6cloned6ClonedBF_EEE0E0E0EB6C_, symObjAddr: 0x3BC, symBinAddr: 0x4F274, symSize: 0x1B0 }
  - { offset: 0xF20BE, size: 0x8, addend: 0x0, symName: __RINvXs2U_NtNtCsfvfooZQ3Axs_4core5slice4iterINtB7_4IterNtCsf44oge9wsd6_12snafu_derive14FieldContainerENtNtNtNtBb_4iter6traits8iterator8Iterator4folduNCINvNtNtB1H_8adapters3map8map_foldRBQ_NtCs3cP53eQoTwO_11proc_macro211TokenStreamuNCNvXsm_BS_NtBS_11DisplayImplNtNtCs2cqEZUIJimJ_5quote9to_tokens8ToTokens9to_tokens0NCINvNvB1B_8for_each4callB2Z_NCINvMsi_NtCse1nGBsou5OW_5alloc3vecINtB5D_3VecB2Z_E14extend_trustedINtB2r_3MapBF_B3G_EE0E0E0EBS_, symObjAddr: 0x56C, symBinAddr: 0x4F424, symSize: 0x1B8 }
  - { offset: 0xF2212, size: 0x8, addend: 0x0, symName: __RINvXs2U_NtNtCsfvfooZQ3Axs_4core5slice4iterINtB7_4IterNtCsf44oge9wsd6_12snafu_derive14FieldContainerENtNtNtNtBb_4iter6traits8iterator8Iterator4folduNCINvNtNtB1H_8adapters3map8map_foldRBQ_NtCs3cP53eQoTwO_11proc_macro211TokenStreamuNCNvXso_BS_NtBS_15ErrorCompatImplNtNtCs2cqEZUIJimJ_5quote9to_tokens8ToTokens9to_tokens0NCINvNvB1B_8for_each4callB2Z_NCINvMsi_NtCse1nGBsou5OW_5alloc3vecINtB5H_3VecB2Z_E14extend_trustedINtB2r_3MapBF_B3G_EE0E0E0EBS_, symObjAddr: 0x724, symBinAddr: 0x4F5DC, symSize: 0x1B8 }
  - { offset: 0xF2366, size: 0x8, addend: 0x0, symName: __RINvXs2U_NtNtCsfvfooZQ3Axs_4core5slice4iterINtB7_4IterNtCsf44oge9wsd6_12snafu_derive5FieldENtNtNtNtBb_4iter6traits8iterator8Iterator4folduNCINvNtNtB1x_8adapters3map8map_foldRBQ_RNtCs3cP53eQoTwO_11proc_macro25IdentuNCNvMs_NtNtBS_6shared16context_selectorNtB3x_15ContextSelector16user_field_names0NCINvNvB1r_8for_each4callB2P_NCINvMsi_NtCse1nGBsou5OW_5alloc3vecINtB5l_3VecB2P_E14extend_trustedINtB2h_3MapBF_B3q_EE0E0E0EBS_, symObjAddr: 0x8DC, symBinAddr: 0x4F794, symSize: 0x1B8 }
  - { offset: 0xF24BA, size: 0x8, addend: 0x0, symName: __RINvXs2U_NtNtCsfvfooZQ3Axs_4core5slice4iterINtB7_4IterNtCsf44oge9wsd6_12snafu_derive5FieldENtNtNtNtBb_4iter6traits8iterator8Iterator4folduQNCINvNtNtB1x_8adapters3map8map_foldRBQ_NtCs3cP53eQoTwO_11proc_macro211TokenStreamuNCNvMs_NtNtBS_6shared16context_selectorNtB3E_15ContextSelector41construct_implicit_fields_with_expression0NCIB2g_B2Q_NtNtB2S_3imp11TokenStreamuNCINvXs7_B2S_B2Q_INtNtB1v_7collect12FromIteratorB2Q_E9from_iterINtB2i_3MapINtNtB2k_5chain5ChainBF_INtNtBb_6option8IntoIterB2M_EEB3x_EE0NCIB2g_B5q_NtCs9i5KxIbZ5ph_10proc_macro11TokenStreamuNCINvXs6_B5s_B5q_IB68_B5q_E9from_iterIB6S_B6R_B5Q_EE0NCINvNvB1r_8for_each4callB8c_NCINvXsj_B8e_B8c_INtB6a_6ExtendB8c_E6extendIB6S_B9t_B8S_EE0E0E0E0E0EBS_, symObjAddr: 0xA94, symBinAddr: 0x4F94C, symSize: 0x18C }
  - { offset: 0xF260D, size: 0x8, addend: 0x0, symName: __RINvXs2U_NtNtCsfvfooZQ3Axs_4core5slice4iterINtB7_4IterNtCsf44oge9wsd6_12snafu_derive5FieldENtNtNtNtBb_4iter6traits8iterator8Iterator4folduQNCINvNtNtB1x_8adapters3map8map_foldRBQ_RNtCs3cP53eQoTwO_11proc_macro25IdentuNvMs1_BS_BQ_4nameQNCINvNvB1r_8for_each4callB2Q_NCINvMsi_NtCse1nGBsou5OW_5alloc3vecINtB4l_3VecB2Q_E14extend_trustedINtNtB2k_5chain5ChainINtB2i_3MapIB5i_IB5i_IB5i_BF_INtNtBb_6option8IntoIterB2M_EEBF_EB65_EB3r_EIB66_B2Q_EEE0E0E0EBS_, symObjAddr: 0xC20, symBinAddr: 0x4FAD8, symSize: 0x18C }
  - { offset: 0xF2760, size: 0x8, addend: 0x0, symName: __RINvXs2U_NtNtCsfvfooZQ3Axs_4core5slice4iterINtB7_4IterNtCsf44oge9wsd6_12snafu_derive5FieldENtNtNtNtBb_4iter6traits8iterator8Iterator4folduQQQNCINvNtNtB1x_8adapters3map8map_foldRBQ_RNtCs3cP53eQoTwO_11proc_macro25IdentuNvMs1_BS_BQ_4nameQNCINvNvB1r_8for_each4callB2S_NCINvMsi_NtCse1nGBsou5OW_5alloc3vecINtB4n_3VecB2S_E14extend_trustedINtNtB2m_5chain5ChainINtB2k_3MapIB5k_IB5k_IB5k_BF_INtNtBb_6option8IntoIterB2O_EEBF_EB67_EB3t_EIB68_B2S_EEE0E0E0EBS_, symObjAddr: 0xDAC, symBinAddr: 0x4FC64, symSize: 0x18C }
  - { offset: 0xF28B3, size: 0x8, addend: 0x0, symName: __RINvXs2U_NtNtCsfvfooZQ3Axs_4core5slice4iterINtB7_4IterNtCsf44oge9wsd6_12snafu_derive7ProvideENtNtNtNtBb_4iter6traits8iterator8Iterator4folduNCINvNvXs_NtNtB1z_8adapters9enumerateINtB2o_9EnumeratepEB1t_4fold9enumerateRBQ_uNCINvNtB2q_3map8map_foldTjB3r_ENtNtNtBS_6shared5error11ProvidePlusuNCNvB43_21enhance_provider_list0NCINvNvB1t_8for_each4callB41_NCINvMsi_NtCse1nGBsou5OW_5alloc3vecINtB5J_3VecB41_E14extend_trustedINtB3B_3MapIB2Q_BF_EB4B_EE0E0E0E0EBS_, symObjAddr: 0xF38, symBinAddr: 0x4FDF0, symSize: 0x1B8 }
  - { offset: 0xF2A07, size: 0x8, addend: 0x0, symName: __RINvXs2U_NtNtCsfvfooZQ3Axs_4core5slice4iterINtB7_4IterNtNtNtCsf44oge9wsd6_12snafu_derive6shared5error11ProvidePlusENtNtNtNtBb_4iter6traits8iterator8Iterator4findQNCNvBS_13quote_chained0EBW_, symObjAddr: 0x10F0, symBinAddr: 0x4FFA8, symSize: 0xB4 }
  - { offset: 0xF2A6C, size: 0x8, addend: 0x0, symName: __RINvXs2U_NtNtCsfvfooZQ3Axs_4core5slice4iterINtB7_4IterNtNtNtCsf44oge9wsd6_12snafu_derive6shared5error11ProvidePlusENtNtNtNtBb_4iter6traits8iterator8Iterator4findQNCNvBS_24quote_cached_expressions0EBW_, symObjAddr: 0x11A4, symBinAddr: 0x5005C, symSize: 0xB4 }
  - { offset: 0xF2AD1, size: 0x8, addend: 0x0, symName: __RINvXs2U_NtNtCsfvfooZQ3Axs_4core5slice4iterINtB7_4IterNtNtNtCsf44oge9wsd6_12snafu_derive6shared5error11ProvidePlusENtNtNtNtBb_4iter6traits8iterator8Iterator4folduNCINvNvB1P_9partition6extendRBQ_INtNtCse1nGBsou5OW_5alloc3vec3VecB32_ENCNvBS_28build_explicit_provide_calls0E0EBW_, symObjAddr: 0x1258, symBinAddr: 0x50110, symSize: 0x188 }
  - { offset: 0xF2C24, size: 0x8, addend: 0x0, symName: __RINvXs2U_NtNtCsfvfooZQ3Axs_4core5slice4iterINtB7_4IterReENtNtNtNtBb_4iter6traits8iterator8Iterator4folduNCINvNtNtBZ_8adapters3map8map_foldRBQ_NtNtCse1nGBsou5OW_5alloc6string6StringuNCNvXs9_Csf44oge9wsd6_12snafu_deriveNtB31_22IncompatibleAttributesNtB31_16ErrorForLocation12for_location0NCINvNvBT_8for_each4callB2g_NCINvMsi_NtB2k_3vecINtB5b_3VecB2g_E14extend_trustedINtB1J_3MapBF_B2T_EE0E0E0EB31_, symObjAddr: 0x13E0, symBinAddr: 0x50298, symSize: 0x1B0 }
  - { offset: 0xF2D78, size: 0x8, addend: 0x0, symName: __RNvXs2U_NtNtCsfvfooZQ3Axs_4core5slice4iterINtB6_4IterNtCs3cP53eQoTwO_11proc_macro211TokenStreamENtNtNtNtBa_4iter6traits8iterator8Iterator4nextCsf44oge9wsd6_12snafu_derive, symObjAddr: 0x2B88, symBinAddr: 0x51A40, symSize: 0xBC }
  - { offset: 0xF2EC6, size: 0x8, addend: 0x0, symName: __RNvXs2U_NtNtCsfvfooZQ3Axs_4core5slice4iterINtB6_4IterNtCs3cP53eQoTwO_11proc_macro211TokenStreamENtNtNtNtBa_4iter6traits8iterator8Iterator9size_hintCsf44oge9wsd6_12snafu_derive, symObjAddr: 0x2C44, symBinAddr: 0x51AFC, symSize: 0x70 }
  - { offset: 0xF2F35, size: 0x8, addend: 0x0, symName: __RNvXs2U_NtNtCsfvfooZQ3Axs_4core5slice4iterINtB6_4IterNtCs3cP53eQoTwO_11proc_macro25IdentENtNtNtNtBa_4iter6traits8iterator8Iterator4nextCsf44oge9wsd6_12snafu_derive, symObjAddr: 0x2CB4, symBinAddr: 0x51B6C, symSize: 0xBC }
  - { offset: 0xF3083, size: 0x8, addend: 0x0, symName: __RNvXs2U_NtNtCsfvfooZQ3Axs_4core5slice4iterINtB6_4IterNtCsf44oge9wsd6_12snafu_derive14FieldContainerENtNtNtNtBa_4iter6traits8iterator8Iterator4nextBR_, symObjAddr: 0x2D70, symBinAddr: 0x51C28, symSize: 0xBC }
  - { offset: 0xF31D1, size: 0x8, addend: 0x0, symName: __RNvXs2U_NtNtCsfvfooZQ3Axs_4core5slice4iterINtB6_4IterNtCsf44oge9wsd6_12snafu_derive14FieldContainerENtNtNtNtBa_4iter6traits8iterator8Iterator9size_hintBR_, symObjAddr: 0x2E2C, symBinAddr: 0x51CE4, symSize: 0x70 }
  - { offset: 0xF3240, size: 0x8, addend: 0x0, symName: __RNvXs2U_NtNtCsfvfooZQ3Axs_4core5slice4iterINtB6_4IterNtCsf44oge9wsd6_12snafu_derive14SnafuAttributeENtNtNtNtBa_4iter6traits8iterator8Iterator4nextBR_, symObjAddr: 0x2E9C, symBinAddr: 0x51D54, symSize: 0xBC }
  - { offset: 0xF338E, size: 0x8, addend: 0x0, symName: __RNvXs2U_NtNtCsfvfooZQ3Axs_4core5slice4iterINtB6_4IterNtCsf44oge9wsd6_12snafu_derive5FieldENtNtNtNtBa_4iter6traits8iterator8Iterator4nextBR_, symObjAddr: 0x2F58, symBinAddr: 0x51E10, symSize: 0xBC }
  - { offset: 0xF34DC, size: 0x8, addend: 0x0, symName: __RNvXs2U_NtNtCsfvfooZQ3Axs_4core5slice4iterINtB6_4IterNtCsf44oge9wsd6_12snafu_derive5FieldENtNtNtNtBa_4iter6traits8iterator8Iterator9size_hintBR_, symObjAddr: 0x3014, symBinAddr: 0x51ECC, symSize: 0x70 }
  - { offset: 0xF354B, size: 0x8, addend: 0x0, symName: __RNvXs2U_NtNtCsfvfooZQ3Axs_4core5slice4iterINtB6_4IterNtCsf44oge9wsd6_12snafu_derive7ProvideENtNtNtNtBa_4iter6traits8iterator8Iterator9size_hintBR_, symObjAddr: 0x3084, symBinAddr: 0x51F3C, symSize: 0x70 }
  - { offset: 0xF35BA, size: 0x8, addend: 0x0, symName: __RNvXs2U_NtNtCsfvfooZQ3Axs_4core5slice4iterINtB6_4IterNtNtCs5AlOhPCr03V_3syn4expr4ExprENtNtNtNtBa_4iter6traits8iterator8Iterator4nextCsf44oge9wsd6_12snafu_derive, symObjAddr: 0x30F4, symBinAddr: 0x51FAC, symSize: 0xBC }
  - { offset: 0xF3708, size: 0x8, addend: 0x0, symName: __RNvXs2U_NtNtCsfvfooZQ3Axs_4core5slice4iterINtB6_4IterNtNtCs5AlOhPCr03V_3syn5error5ErrorENtNtNtNtBa_4iter6traits8iterator8Iterator4nextCsf44oge9wsd6_12snafu_derive, symObjAddr: 0x31B0, symBinAddr: 0x52068, symSize: 0xBC }
  - { offset: 0xF3856, size: 0x8, addend: 0x0, symName: __RNvXs2U_NtNtCsfvfooZQ3Axs_4core5slice4iterINtB6_4IterNtNtCse1nGBsou5OW_5alloc6string6StringENtNtNtNtBa_4iter6traits8iterator8Iterator4nextCsf44oge9wsd6_12snafu_derive, symObjAddr: 0x326C, symBinAddr: 0x52124, symSize: 0xBC }
  - { offset: 0xF39A4, size: 0x8, addend: 0x0, symName: __RNvXs2U_NtNtCsfvfooZQ3Axs_4core5slice4iterINtB6_4IterNtNtNtCsf44oge9wsd6_12snafu_derive6shared5error11ProvidePlusENtNtNtNtBa_4iter6traits8iterator8Iterator4nextBV_, symObjAddr: 0x3328, symBinAddr: 0x521E0, symSize: 0xBC }
  - { offset: 0xF3AF2, size: 0x8, addend: 0x0, symName: __RNvXs2U_NtNtCsfvfooZQ3Axs_4core5slice4iterINtB6_4IterRNtCs3cP53eQoTwO_11proc_macro25IdentENtNtNtNtBa_4iter6traits8iterator8Iterator4nextCsf44oge9wsd6_12snafu_derive, symObjAddr: 0x33E4, symBinAddr: 0x5229C, symSize: 0xBC }
  - { offset: 0xF3C40, size: 0x8, addend: 0x0, symName: __RNvXs2U_NtNtCsfvfooZQ3Axs_4core5slice4iterINtB6_4IterReENtNtNtNtBa_4iter6traits8iterator8Iterator9size_hintCsf44oge9wsd6_12snafu_derive, symObjAddr: 0x34A0, symBinAddr: 0x52358, symSize: 0x70 }
  - { offset: 0xF3CAF, size: 0x8, addend: 0x0, symName: __RNvXs2U_NtNtCsfvfooZQ3Axs_4core5slice4iterINtB6_4IterTINtNtBa_6option6OptionTNtNtCs5AlOhPCr03V_3syn2ty4TypeNtNtB1h_4expr4ExprEENtCs3cP53eQoTwO_11proc_macro211TokenStreamEENtNtNtNtBa_4iter6traits8iterator8Iterator4nextCsf44oge9wsd6_12snafu_derive, symObjAddr: 0x3510, symBinAddr: 0x523C8, symSize: 0xBC }
  - { offset: 0xF3DFD, size: 0x8, addend: 0x0, symName: __RNvXs2U_NtNtCsfvfooZQ3Axs_4core5slice4iterINtB6_4IterTNtNtCsf44oge9wsd6_12snafu_derive5parse11ProvideFlagNtNtCs5AlOhPCr03V_3syn5token5CommaEENtNtNtNtBa_4iter6traits8iterator8Iterator4nextBU_, symObjAddr: 0x35CC, symBinAddr: 0x52484, symSize: 0xBC }
  - { offset: 0xF3F4B, size: 0x8, addend: 0x0, symName: __RNvXs2U_NtNtCsfvfooZQ3Axs_4core5slice4iterINtB6_4IterTNtNtCsf44oge9wsd6_12snafu_derive5parse9SourceArgNtNtCs5AlOhPCr03V_3syn5token5CommaEENtNtNtNtBa_4iter6traits8iterator8Iterator4nextBU_, symObjAddr: 0x3688, symBinAddr: 0x52540, symSize: 0xBC }
  - { offset: 0xF49B1, size: 0x8, addend: 0x0, symName: __RNvXs2V_NtNtCsfvfooZQ3Axs_4core5slice4iterINtB6_4IterTNtNtCs5AlOhPCr03V_3syn8generics14WherePredicateNtNtBU_5token5CommaEENtNtNtNtBa_4iter6traits12double_ended19DoubleEndedIterator9next_backCsf44oge9wsd6_12snafu_derive, symObjAddr: 0x3744, symBinAddr: 0x525FC, symSize: 0x100 }
  - { offset: 0xF4B0D, size: 0x8, addend: 0x0, symName: __RNvXs2V_NtNtCsfvfooZQ3Axs_4core5slice4iterINtB6_4IterTNtNtCsf44oge9wsd6_12snafu_derive5parse11ProvideFlagNtNtCs5AlOhPCr03V_3syn5token5CommaEENtNtNtNtBa_4iter6traits12double_ended19DoubleEndedIterator9next_backBU_, symObjAddr: 0x3844, symBinAddr: 0x526FC, symSize: 0x100 }
  - { offset: 0xF4C6F, size: 0x8, addend: 0x0, symName: __RNvXs5_NtNtCsfvfooZQ3Axs_4core5slice4iterINtB5_4IterTNtNtCs5AlOhPCr03V_3syn8generics14WherePredicateNtNtBT_5token5CommaEENtNtB9_5clone5Clone5cloneCsf44oge9wsd6_12snafu_derive, symObjAddr: 0x3944, symBinAddr: 0x527FC, symSize: 0x20 }
  - { offset: 0xF4CA4, size: 0x8, addend: 0x0, symName: __RNvXs5_NtNtCsfvfooZQ3Axs_4core5slice4iterINtB5_4IterTNtNtCsf44oge9wsd6_12snafu_derive5parse11ProvideFlagNtNtCs5AlOhPCr03V_3syn5token5CommaEENtNtB9_5clone5Clone5cloneBT_, symObjAddr: 0x3964, symBinAddr: 0x5281C, symSize: 0x20 }
  - { offset: 0xF4DAA, size: 0x8, addend: 0x0, symName: __RNvNvXs0_NtNtCsfvfooZQ3Axs_4core5slice5indexjINtB7_10SliceIndexSpE13get_unchecked18precondition_checkCsf44oge9wsd6_12snafu_derive, symObjAddr: 0x28E4, symBinAddr: 0x5179C, symSize: 0x40 }
  - { offset: 0xF4DE6, size: 0x8, addend: 0x0, symName: __RNvNvXs0_NtNtCsfvfooZQ3Axs_4core5slice5indexjINtB7_10SliceIndexSpE17get_unchecked_mut18precondition_checkCsf44oge9wsd6_12snafu_derive, symObjAddr: 0x2924, symBinAddr: 0x517DC, symSize: 0x40 }
  - { offset: 0xF4E28, size: 0x8, addend: 0x0, symName: __RNvNvXs1_NtNtCsfvfooZQ3Axs_4core5slice5indexNtNtNtBb_3ops11index_range10IndexRangeINtB7_10SliceIndexSpE17get_unchecked_mut18precondition_checkCsf44oge9wsd6_12snafu_derive, symObjAddr: 0x2964, symBinAddr: 0x5181C, symSize: 0x40 }
  - { offset: 0xF4E6A, size: 0x8, addend: 0x0, symName: __RNvNvXs2_NtNtCsfvfooZQ3Axs_4core5slice5indexINtNtNtBb_3ops5range5RangejEINtB7_10SliceIndexSpE13get_unchecked18precondition_checkCsf44oge9wsd6_12snafu_derive, symObjAddr: 0x29A4, symBinAddr: 0x5185C, symSize: 0x60 }
  - { offset: 0xF4EB4, size: 0x8, addend: 0x0, symName: __RNvNvXs2_NtNtCsfvfooZQ3Axs_4core5slice5indexINtNtNtBb_3ops5range5RangejEINtB7_10SliceIndexSpE17get_unchecked_mut18precondition_checkCsf44oge9wsd6_12snafu_derive, symObjAddr: 0x2A04, symBinAddr: 0x518BC, symSize: 0x60 }
  - { offset: 0xF9D4C, size: 0x8, addend: 0x0, symName: __RNvXNtCs5AlOhPCr03V_3syn7spannedNtNtB4_4item4ItemNtB2_7Spanned4spanCsf44oge9wsd6_12snafu_derive, symObjAddr: 0x2AE4, symBinAddr: 0x5199C, symSize: 0x34 }
  - { offset: 0xFADB2, size: 0x8, addend: 0x0, symName: __RNvMNtCse1nGBsou5OW_5alloc6stringNtB2_6String4pushCsf44oge9wsd6_12snafu_derive, symObjAddr: 0x2008, symBinAddr: 0x50EC0, symSize: 0x100 }
  - { offset: 0xFB065, size: 0x8, addend: 0x0, symName: __RNvMNtCse1nGBsou5OW_5alloc6stringNtB2_6String6as_strCsf44oge9wsd6_12snafu_derive, symObjAddr: 0x2108, symBinAddr: 0x50FC0, symSize: 0x70 }
  - { offset: 0xFB19A, size: 0x8, addend: 0x0, symName: __RNvMNtCse1nGBsou5OW_5alloc6stringNtB2_6String8is_emptyCsf44oge9wsd6_12snafu_derive, symObjAddr: 0x2178, symBinAddr: 0x51030, symSize: 0x20 }
  - { offset: 0xFB2C3, size: 0x8, addend: 0x0, symName: __RNvMNtCse1nGBsou5OW_5alloc6stringNtB2_6String8push_strCsf44oge9wsd6_12snafu_derive, symObjAddr: 0x2198, symBinAddr: 0x51050, symSize: 0x60 }
  - { offset: 0xFB4EA, size: 0x8, addend: 0x0, symName: __RNvMs4_NtNtCsfvfooZQ3Axs_4core5slice4iterINtB5_4IterNtCs3cP53eQoTwO_11proc_macro211TokenStreamE3newCsf44oge9wsd6_12snafu_derive, symObjAddr: 0x21F8, symBinAddr: 0x510B0, symSize: 0x50 }
  - { offset: 0xFB6C5, size: 0x8, addend: 0x0, symName: __RNvMs4_NtNtCsfvfooZQ3Axs_4core5slice4iterINtB5_4IterNtCs3cP53eQoTwO_11proc_macro25IdentE3newCsf44oge9wsd6_12snafu_derive, symObjAddr: 0x2248, symBinAddr: 0x51100, symSize: 0x58 }
  - { offset: 0xFB886, size: 0x8, addend: 0x0, symName: __RNvMs4_NtNtCsfvfooZQ3Axs_4core5slice4iterINtB5_4IterNtCsf44oge9wsd6_12snafu_derive14FieldContainerE3newBQ_, symObjAddr: 0x22A0, symBinAddr: 0x51158, symSize: 0x58 }
  - { offset: 0xFBA47, size: 0x8, addend: 0x0, symName: __RNvMs4_NtNtCsfvfooZQ3Axs_4core5slice4iterINtB5_4IterNtCsf44oge9wsd6_12snafu_derive5FieldE3newBQ_, symObjAddr: 0x22F8, symBinAddr: 0x511B0, symSize: 0x58 }
  - { offset: 0xFBC08, size: 0x8, addend: 0x0, symName: __RNvMs4_NtNtCsfvfooZQ3Axs_4core5slice4iterINtB5_4IterNtCsf44oge9wsd6_12snafu_derive7ProvideE3newBQ_, symObjAddr: 0x2350, symBinAddr: 0x51208, symSize: 0x58 }
  - { offset: 0xFBDF0, size: 0x8, addend: 0x0, symName: __RNvMs4_NtNtCsfvfooZQ3Axs_4core5slice4iterINtB5_4IterNtNtCs5AlOhPCr03V_3syn4expr4ExprE3newCsf44oge9wsd6_12snafu_derive, symObjAddr: 0x23A8, symBinAddr: 0x51260, symSize: 0x58 }
  - { offset: 0xFBFD8, size: 0x8, addend: 0x0, symName: __RNvMs4_NtNtCsfvfooZQ3Axs_4core5slice4iterINtB5_4IterNtNtCs5AlOhPCr03V_3syn5error5ErrorE3newCsf44oge9wsd6_12snafu_derive, symObjAddr: 0x2400, symBinAddr: 0x512B8, symSize: 0x58 }
  - { offset: 0xFC1A6, size: 0x8, addend: 0x0, symName: __RNvMs4_NtNtCsfvfooZQ3Axs_4core5slice4iterINtB5_4IterNtNtNtCsf44oge9wsd6_12snafu_derive6shared5error11ProvidePlusE3newBU_, symObjAddr: 0x2458, symBinAddr: 0x51310, symSize: 0x50 }
  - { offset: 0xFC381, size: 0x8, addend: 0x0, symName: __RNvMs4_NtNtCsfvfooZQ3Axs_4core5slice4iterINtB5_4IterRNtCs3cP53eQoTwO_11proc_macro25IdentE3newCsf44oge9wsd6_12snafu_derive, symObjAddr: 0x24A8, symBinAddr: 0x51360, symSize: 0x50 }
  - { offset: 0xFC587, size: 0x8, addend: 0x0, symName: __RNvMs4_NtNtCsfvfooZQ3Axs_4core5slice4iterINtB5_4IterTNtNtCsf44oge9wsd6_12snafu_derive5parse11ProvideFlagNtNtCs5AlOhPCr03V_3syn5token5CommaEE3newBT_, symObjAddr: 0x24F8, symBinAddr: 0x513B0, symSize: 0x58 }
  - { offset: 0xFC78F, size: 0x8, addend: 0x0, symName: __RNvMs4_NtNtCsfvfooZQ3Axs_4core5slice4iterINtB5_4IterTNtNtCsf44oge9wsd6_12snafu_derive5parse9SourceArgNtNtCs5AlOhPCr03V_3syn5token5CommaEE3newBT_, symObjAddr: 0x2550, symBinAddr: 0x51408, symSize: 0x58 }
  - { offset: 0xFCA9A, size: 0x8, addend: 0x0, symName: __RNvMs6_NtNtNtNtCse1nGBsou5OW_5alloc11collections5btree3map5entryINtB5_11VacantEntryNtCs3cP53eQoTwO_11proc_macro25IdentNtNtB9_7set_val9SetValZSTE12insert_entryCsf44oge9wsd6_12snafu_derive, symObjAddr: 0x25A8, symBinAddr: 0x51460, symSize: 0x298 }
  - { offset: 0xFCD2D, size: 0x8, addend: 0x0, symName: __RNvMs7_NtNtNtNtCse1nGBsou5OW_5alloc11collections5btree3map5entryINtB5_13OccupiedEntryNtCs3cP53eQoTwO_11proc_macro25IdentNtNtB9_7set_val9SetValZSTE6insertCsf44oge9wsd6_12snafu_derive, symObjAddr: 0x2840, symBinAddr: 0x516F8, symSize: 0x4C }
  - { offset: 0xFCD90, size: 0x8, addend: 0x0, symName: __RNvMs7_NtNtNtNtCse1nGBsou5OW_5alloc11collections5btree3map5entryINtB5_13OccupiedEntryNtCs3cP53eQoTwO_11proc_macro25IdentNtNtB9_7set_val9SetValZSTE8into_mutCsf44oge9wsd6_12snafu_derive, symObjAddr: 0x288C, symBinAddr: 0x51744, symSize: 0x58 }
  - { offset: 0xFCDDE, size: 0x8, addend: 0x0, symName: __RNvXNtCs2cqEZUIJimJ_5quote9to_tokensRNtNtCs5AlOhPCr03V_3syn4item5FnArgNtB2_8ToTokens9to_tokensCsf44oge9wsd6_12snafu_derive, symObjAddr: 0x2A64, symBinAddr: 0x5191C, symSize: 0x40 }
  - { offset: 0xFCE1D, size: 0x8, addend: 0x0, symName: __RNvXNtCs2cqEZUIJimJ_5quote9to_tokensRNtNtCse1nGBsou5OW_5alloc6string6StringNtB2_8ToTokens9to_tokensCsf44oge9wsd6_12snafu_derive, symObjAddr: 0x2AA4, symBinAddr: 0x5195C, symSize: 0x40 }
  - { offset: 0xFCE62, size: 0x8, addend: 0x0, symName: __RNvYRNtNtCs5AlOhPCr03V_3syn4item4ItemNtNtCs2cqEZUIJimJ_5quote9to_tokens8ToTokens15to_token_streamCsf44oge9wsd6_12snafu_derive, symObjAddr: 0x3F08, symBinAddr: 0x52DC0, symSize: 0x8C }
  - { offset: 0xFCEAC, size: 0x8, addend: 0x0, symName: __RNvYRNtNtCs5AlOhPCr03V_3syn4item4ItemNtNtCs2cqEZUIJimJ_5quote9to_tokens8ToTokens17into_token_streamCsf44oge9wsd6_12snafu_derive, symObjAddr: 0x3F94, symBinAddr: 0x52E4C, symSize: 0x54 }
  - { offset: 0xFCEED, size: 0x8, addend: 0x0, symName: __RNvXs0_NtCs2cqEZUIJimJ_5quote7spannedNtNtCs5AlOhPCr03V_3syn4item4ItemNtB5_7Spanned6___spanCsf44oge9wsd6_12snafu_derive, symObjAddr: 0x2B18, symBinAddr: 0x519D0, symSize: 0x44 }
  - { offset: 0xFE2AF, size: 0x8, addend: 0x0, symName: __RINvMsi_NtNtNtCse1nGBsou5OW_5alloc11collections5btree3mapINtB6_8BTreeMapRNtCs3cP53eQoTwO_11proc_macro25IdentNtNtB8_7set_val9SetValZSTE27bulk_build_from_sorted_iterINtNtNtNtCsfvfooZQ3Axs_4core4iter8adapters3map3MapINtNtB2G_6cloned6ClonedINtNtB8_3set10DifferenceB18_EENCINvMse_B3P_INtB3P_8BTreeSetB18_E16from_sorted_iterB3p_E0EECsf44oge9wsd6_12snafu_derive, symObjAddr: 0x0, symBinAddr: 0x531E8, symSize: 0x178 }
  - { offset: 0xFE885, size: 0x8, addend: 0x0, symName: __RINvNvNtNtCs9i5KxIbZ5ph_10proc_macro6bridge14selfless_reify31reify_to_extern_c_fn_hrt_bridge7wrapperNtNtB6_6buffer6BufferNCINvMs7_NtB6_6clientINtB24_6ClientNtB8_11TokenStreamB2u_E7expand1NvCsf44oge9wsd6_12snafu_derive12snafu_deriveE0EB31_, symObjAddr: 0x614, symBinAddr: 0x537FC, symSize: 0x5C }
  - { offset: 0xFE8E1, size: 0x8, addend: 0x0, symName: __RINvNvNtNtCs9i5KxIbZ5ph_10proc_macro6bridge14selfless_reify31reify_to_extern_c_fn_hrt_bridge7wrapperNtNtB6_6buffer6BufferNCINvMs8_NtB6_6clientINtB24_6ClientTNtB8_11TokenStreamB2v_EB2v_E7expand2NvCsf44oge9wsd6_12snafu_derive6reportE0EB37_, symObjAddr: 0x670, symBinAddr: 0x53858, symSize: 0x5C }
  - { offset: 0x102E70, size: 0x8, addend: 0x0, symName: __RINvXs_NtNtNtCsfvfooZQ3Axs_4core4iter8adapters6clonedINtB5_6ClonedINtNtNtBb_5slice4iter4IterNtCs3cP53eQoTwO_11proc_macro211TokenStreamEENtNtNtB9_6traits8iterator8Iterator4folduNCINvNvB2a_8for_each4callB1s_NCINvMsi_NtCse1nGBsou5OW_5alloc3vecINtB3q_3VecB1s_E14extend_trustedINtNtB7_5chain5ChainINtNtB7_3map3MapINtNtB7_3zip3ZipINtNtB3q_9into_iter8IntoIterNtB1u_5IdentEIB4H_IB13_NtCsf44oge9wsd6_12snafu_derive5FieldENCNvMs_NtNtB63_6shared16context_selectorNtB6J_15ContextSelector22extended_where_clauses0EENCB6E_s_0EBP_EE0E0EB63_, symObjAddr: 0x714, symBinAddr: 0x538FC, symSize: 0xDC }
  - { offset: 0x102F2B, size: 0x8, addend: 0x0, symName: __RNvXs_NtNtNtCsfvfooZQ3Axs_4core4iter8adapters6clonedINtB4_6ClonedINtNtNtBa_5slice4iter4IterNtCs3cP53eQoTwO_11proc_macro211TokenStreamEENtNtNtB8_6traits8iterator8Iterator9size_hintCsf44oge9wsd6_12snafu_derive, symObjAddr: 0x3078, symBinAddr: 0x56260, symSize: 0x24 }
  - { offset: 0x102F69, size: 0x8, addend: 0x0, symName: __RNvXs_NtNtNtCsfvfooZQ3Axs_4core4iter8adapters6clonedINtB4_6ClonedINtNtNtNtCse1nGBsou5OW_5alloc11collections5btree3set10DifferenceRNtCs3cP53eQoTwO_11proc_macro25IdentEENtNtNtB8_6traits8iterator8Iterator4nextCsf44oge9wsd6_12snafu_derive, symObjAddr: 0x309C, symBinAddr: 0x56284, symSize: 0x68 }
  - { offset: 0x102FF8, size: 0x8, addend: 0x0, symName: __RNvXs_NtNtNtCsfvfooZQ3Axs_4core4iter8adapters6clonedINtB4_6ClonedINtNtNtNtCse1nGBsou5OW_5alloc11collections5btree3set12IntersectionRNtCs3cP53eQoTwO_11proc_macro25IdentEENtNtNtB8_6traits8iterator8Iterator4nextCsf44oge9wsd6_12snafu_derive, symObjAddr: 0x3104, symBinAddr: 0x562EC, symSize: 0x68 }
  - { offset: 0x10315F, size: 0x8, addend: 0x0, symName: __RINvXs1_NtNtNtCsfvfooZQ3Axs_4core4iter8adapters3zipINtB6_3ZipINtNtNtCse1nGBsou5OW_5alloc3vec9into_iter8IntoIterNtCs3cP53eQoTwO_11proc_macro25IdentEINtNtB8_3map3MapINtNtNtBc_5slice4iter4IterNtCsf44oge9wsd6_12snafu_derive5FieldENCNvMs_NtNtB33_6shared16context_selectorNtB3J_15ContextSelector22extended_where_clauses0EEINtB6_7ZipImplBX_B2l_E4folduNCINvB2o_8map_foldTB1L_NtB1N_11TokenStreamEB5T_uNCB3E_s_0QNCINvNvNtNtNtBa_6traits8iterator8Iterator8for_each4callB5T_NCINvMsi_B12_INtB12_3VecB5T_E14extend_trustedINtNtB8_5chain5ChainIB2m_BN_B6i_EINtNtB8_6cloned6ClonedIB2C_B5T_EEEE0E0E0EB33_, symObjAddr: 0x6CC, symBinAddr: 0x538B4, symSize: 0x24 }
  - { offset: 0x1031C8, size: 0x8, addend: 0x0, symName: __RNvXs1_NtNtNtCsfvfooZQ3Axs_4core4iter8adapters3zipINtB5_3ZipINtNtNtCse1nGBsou5OW_5alloc3vec9into_iter8IntoIterNtCs3cP53eQoTwO_11proc_macro25IdentEINtNtB7_3map3MapINtNtNtBb_5slice4iter4IterNtCsf44oge9wsd6_12snafu_derive5FieldENCNvMs_NtNtB32_6shared16context_selectorNtB3I_15ContextSelector22extended_where_clauses0EEINtB5_7ZipImplBW_B2k_E3newB32_, symObjAddr: 0x2B38, symBinAddr: 0x55D20, symSize: 0x40 }
  - { offset: 0x103214, size: 0x8, addend: 0x0, symName: __RNvXs1_NtNtNtCsfvfooZQ3Axs_4core4iter8adapters3zipINtB5_3ZipINtNtNtCse1nGBsou5OW_5alloc3vec9into_iter8IntoIterNtCs3cP53eQoTwO_11proc_macro25IdentEINtNtB7_3map3MapINtNtNtBb_5slice4iter4IterNtCsf44oge9wsd6_12snafu_derive5FieldENCNvMs_NtNtB32_6shared16context_selectorNtB3I_15ContextSelector22extended_where_clauses0EEINtB5_7ZipImplBW_B2k_E9size_hintB32_, symObjAddr: 0x2B78, symBinAddr: 0x55D60, symSize: 0x134 }
  - { offset: 0x103384, size: 0x8, addend: 0x0, symName: __RINvXs_NtNtNtCsfvfooZQ3Axs_4core4iter8adapters3zipINtB5_3ZipINtNtNtCse1nGBsou5OW_5alloc3vec9into_iter8IntoIterNtCs3cP53eQoTwO_11proc_macro25IdentEINtNtB7_3map3MapINtNtNtBb_5slice4iter4IterNtCsf44oge9wsd6_12snafu_derive5FieldENCNvMs_NtNtB32_6shared16context_selectorNtB3I_15ContextSelector22extended_where_clauses0EENtNtNtB9_6traits8iterator8Iterator4folduNCINvB2n_8map_foldTB1K_NtB1M_11TokenStreamEB64_uNCB3D_s_0QNCINvNvB53_8for_each4callB64_NCINvMsi_B11_INtB11_3VecB64_E14extend_trustedINtNtB7_5chain5ChainIB2l_BM_B6t_EINtNtB7_6cloned6ClonedIB2B_B64_EEEE0E0E0EB32_, symObjAddr: 0x6F0, symBinAddr: 0x538D8, symSize: 0x24 }
  - { offset: 0x1033ED, size: 0x8, addend: 0x0, symName: __RNvXs_NtNtNtCsfvfooZQ3Axs_4core4iter8adapters3zipINtB4_3ZipINtNtNtCse1nGBsou5OW_5alloc3vec9into_iter8IntoIterNtCs3cP53eQoTwO_11proc_macro25IdentEINtNtB6_3map3MapINtNtNtBa_5slice4iter4IterNtCsf44oge9wsd6_12snafu_derive5FieldENCNvMs_NtNtB31_6shared16context_selectorNtB3H_15ContextSelector22extended_where_clauses0EENtNtNtB8_6traits8iterator8Iterator9size_hintB31_, symObjAddr: 0x3054, symBinAddr: 0x5623C, symSize: 0x24 }
  - { offset: 0x103431, size: 0x8, addend: 0x0, symName: __RINvXsj_NtNtNtCsfvfooZQ3Axs_4core4iter8adapters3zipINtB6_3ZipINtNtNtCse1nGBsou5OW_5alloc3vec9into_iter8IntoIterNtCs3cP53eQoTwO_11proc_macro25IdentEINtNtB8_3map3MapINtNtNtBc_5slice4iter4IterNtCsf44oge9wsd6_12snafu_derive5FieldENCNvMs_NtNtB33_6shared16context_selectorNtB3J_15ContextSelector22extended_where_clauses0EENtB6_8SpecFold9spec_folduNCINvB2o_8map_foldTB1L_NtB1N_11TokenStreamEB5Q_uNCB3E_s_0QNCINvNvNtNtNtBa_6traits8iterator8Iterator8for_each4callB5Q_NCINvMsi_B12_INtB12_3VecB5Q_E14extend_trustedINtNtB8_5chain5ChainIB2m_BN_B6f_EINtNtB8_6cloned6ClonedIB2C_B5Q_EEEE0E0E0EB33_, symObjAddr: 0x7F0, symBinAddr: 0x539D8, symSize: 0x27C }
  - { offset: 0x10367E, size: 0x8, addend: 0x0, symName: __RINvYINtNtNtNtCsfvfooZQ3Axs_4core4iter8adapters3zip3ZipINtNtNtCse1nGBsou5OW_5alloc3vec9into_iter8IntoIterNtCs3cP53eQoTwO_11proc_macro25IdentEINtNtB8_3map3MapINtNtNtBc_5slice4iter4IterNtCsf44oge9wsd6_12snafu_derive5FieldENCNvMs_NtNtB2X_6shared16context_selectorNtB3D_15ContextSelector22extended_where_clauses0EENtNtNtBa_6traits8iterator8Iterator3mapNtB1H_11TokenStreamNCB3y_s_0EB2X_, symObjAddr: 0xA6C, symBinAddr: 0x53C54, symSize: 0x30 }
  - { offset: 0x1036EC, size: 0x8, addend: 0x0, symName: __RINvYINtNtNtNtCsfvfooZQ3Axs_4core4iter8adapters6cloned6ClonedINtNtNtNtCse1nGBsou5OW_5alloc11collections5btree3set10DifferenceRNtCs3cP53eQoTwO_11proc_macro25IdentEENtNtNtBa_6traits8iterator8Iterator3mapTB1Z_NtNtB12_7set_val9SetValZSTENCINvMse_B10_INtB10_8BTreeSetB1Z_E16from_sorted_iterB3_E0ECsf44oge9wsd6_12snafu_derive, symObjAddr: 0xA9C, symBinAddr: 0x53C84, symSize: 0x30 }
  - { offset: 0x10375A, size: 0x8, addend: 0x0, symName: __RINvYINtNtNtNtCsfvfooZQ3Axs_4core4iter8adapters6cloned6ClonedINtNtNtNtCse1nGBsou5OW_5alloc11collections5btree3set12IntersectionRNtCs3cP53eQoTwO_11proc_macro25IdentEENtNtNtBa_6traits8iterator8Iterator3mapTB21_NtNtB12_7set_val9SetValZSTENCINvMse_B10_INtB10_8BTreeSetB21_E16from_sorted_iterB3_E0ECsf44oge9wsd6_12snafu_derive, symObjAddr: 0xACC, symBinAddr: 0x53CB4, symSize: 0x30 }
  - { offset: 0x1037D4, size: 0x8, addend: 0x0, symName: __RNvXNtNtNtCsfvfooZQ3Axs_4core4iter6traits7collectINtNtNtB6_8adapters6cloned6ClonedINtNtNtB8_5slice4iter4IterNtCs3cP53eQoTwO_11proc_macro211TokenStreamEENtB2_12IntoIterator9into_iterCsf44oge9wsd6_12snafu_derive, symObjAddr: 0x242C, symBinAddr: 0x55614, symSize: 0x1C }
  - { offset: 0x1039C6, size: 0x8, addend: 0x0, symName: __RNvXs2_NtNtNtCsfvfooZQ3Axs_4core3ops8function5implsQNCNvMs_NtNtCsf44oge9wsd6_12snafu_derive6shared16context_selectorNtBV_15ContextSelector22extended_where_clauses0INtB7_6FnOnceTRNtBZ_5FieldEE9call_onceBZ_, symObjAddr: 0x2CAC, symBinAddr: 0x55E94, symSize: 0x2C }
  - { offset: 0x103A15, size: 0x8, addend: 0x0, symName: __RNvXs2_NtNtNtCsfvfooZQ3Axs_4core3ops8function5implsQNCNvMs_NtNtCsf44oge9wsd6_12snafu_derive6shared16context_selectorNtBV_15ContextSelector41construct_implicit_fields_with_expression0INtB7_6FnOnceTRNtBZ_5FieldEE9call_onceBZ_, symObjAddr: 0x2CD8, symBinAddr: 0x55EC0, symSize: 0x2C }
  - { offset: 0x10421E, size: 0x8, addend: 0x0, symName: __RNvNtCse1nGBsou5OW_5alloc5alloc12alloc_zeroedCsf44oge9wsd6_12snafu_derive, symObjAddr: 0x21A8, symBinAddr: 0x55390, symSize: 0x84 }
  - { offset: 0x1042E2, size: 0x8, addend: 0x0, symName: __RNvXs_NtCse1nGBsou5OW_5alloc5allocNtB4_6GlobalNtNtCsfvfooZQ3Axs_4core5alloc9Allocator10deallocateCsf44oge9wsd6_12snafu_derive, symObjAddr: 0x2F98, symBinAddr: 0x56180, symSize: 0x88 }
  - { offset: 0x1043BD, size: 0x8, addend: 0x0, symName: __RNvXs_NtCse1nGBsou5OW_5alloc5allocNtB4_6GlobalNtNtCsfvfooZQ3Axs_4core5alloc9Allocator8allocateCsf44oge9wsd6_12snafu_derive, symObjAddr: 0x3020, symBinAddr: 0x56208, symSize: 0x34 }
  - { offset: 0x1043F8, size: 0x8, addend: 0x0, symName: __RNvNtCse1nGBsou5OW_5alloc5alloc15exchange_mallocCsf44oge9wsd6_12snafu_derive, symObjAddr: 0x222C, symBinAddr: 0x55414, symSize: 0xA4 }
  - { offset: 0x10448F, size: 0x8, addend: 0x0, symName: __RNvNtCse1nGBsou5OW_5alloc5alloc5allocCsf44oge9wsd6_12snafu_derive, symObjAddr: 0x22D0, symBinAddr: 0x554B8, symSize: 0x84 }
  - { offset: 0x10452B, size: 0x8, addend: 0x0, symName: __RNvXs1_NtCse1nGBsou5OW_5alloc5allocNtB5_6GlobalNtNtCsfvfooZQ3Axs_4core5clone5Clone5cloneCsf44oge9wsd6_12snafu_derive, symObjAddr: 0x2518, symBinAddr: 0x55700, symSize: 0x10 }
  - { offset: 0x105BEE, size: 0x8, addend: 0x0, symName: __RNvXNtNtNtCse1nGBsou5OW_5alloc11collections5btree3mapINtB2_8BTreeMapNtCs3cP53eQoTwO_11proc_macro25IdentNtNtB4_7set_val9SetValZSTENtNtNtCsfvfooZQ3Axs_4core3ops4drop4Drop4dropCsf44oge9wsd6_12snafu_derive, symObjAddr: 0x2394, symBinAddr: 0x5557C, symSize: 0x4C }
  - { offset: 0x105C6B, size: 0x8, addend: 0x0, symName: __RNvXNtNtNtCse1nGBsou5OW_5alloc11collections5btree3mapINtB2_8BTreeMapRNtCs3cP53eQoTwO_11proc_macro25IdentNtNtB4_7set_val9SetValZSTENtNtNtCsfvfooZQ3Axs_4core3ops4drop4Drop4dropCsf44oge9wsd6_12snafu_derive, symObjAddr: 0x23E0, symBinAddr: 0x555C8, symSize: 0x4C }
  - { offset: 0x105CF8, size: 0x8, addend: 0x0, symName: __RNvXNvXsw_NtNtNtCse1nGBsou5OW_5alloc11collections5btree3mapINtB8_8IntoIterpppENtNtNtCsfvfooZQ3Axs_4core3ops4drop4Drop4dropINtB2_9DropGuardNtCs3cP53eQoTwO_11proc_macro25IdentNtNtBa_7set_val9SetValZSTNtNtBe_5alloc6GlobalEB1e_4dropCsf44oge9wsd6_12snafu_derive, symObjAddr: 0x2448, symBinAddr: 0x55630, symSize: 0x68 }
  - { offset: 0x105D5B, size: 0x8, addend: 0x0, symName: __RNvXNvXsw_NtNtNtCse1nGBsou5OW_5alloc11collections5btree3mapINtB8_8IntoIterpppENtNtNtCsfvfooZQ3Axs_4core3ops4drop4Drop4dropINtB2_9DropGuardRNtCs3cP53eQoTwO_11proc_macro25IdentNtNtBa_7set_val9SetValZSTNtNtBe_5alloc6GlobalEB1e_4dropCsf44oge9wsd6_12snafu_derive, symObjAddr: 0x24B0, symBinAddr: 0x55698, symSize: 0x68 }
  - { offset: 0x105E20, size: 0x8, addend: 0x0, symName: __RNvXsw_NtNtNtCse1nGBsou5OW_5alloc11collections5btree3mapINtB5_8IntoIterNtCs3cP53eQoTwO_11proc_macro25IdentNtNtB7_7set_val9SetValZSTENtNtNtCsfvfooZQ3Axs_4core3ops4drop4Drop4dropCsf44oge9wsd6_12snafu_derive, symObjAddr: 0x36A4, symBinAddr: 0x5688C, symSize: 0xA0 }
  - { offset: 0x105E91, size: 0x8, addend: 0x0, symName: __RNvXsw_NtNtNtCse1nGBsou5OW_5alloc11collections5btree3mapINtB5_8IntoIterRNtCs3cP53eQoTwO_11proc_macro25IdentNtNtB7_7set_val9SetValZSTENtNtNtCsfvfooZQ3Axs_4core3ops4drop4Drop4dropCsf44oge9wsd6_12snafu_derive, symObjAddr: 0x3744, symBinAddr: 0x5692C, symSize: 0xA0 }
  - { offset: 0x105F08, size: 0x8, addend: 0x0, symName: __RNvXsk_NtNtNtCse1nGBsou5OW_5alloc11collections5btree3mapINtB5_4IterNtCs3cP53eQoTwO_11proc_macro25IdentNtNtB7_7set_val9SetValZSTENtNtNtNtCsfvfooZQ3Axs_4core4iter6traits8iterator8Iterator4nextCsf44oge9wsd6_12snafu_derive, symObjAddr: 0x316C, symBinAddr: 0x56354, symSize: 0xB0 }
  - { offset: 0x105F90, size: 0x8, addend: 0x0, symName: __RNvXsk_NtNtNtCse1nGBsou5OW_5alloc11collections5btree3mapINtB5_4IterRNtCs3cP53eQoTwO_11proc_macro25IdentNtNtB7_7set_val9SetValZSTENtNtNtNtCsfvfooZQ3Axs_4core4iter6traits8iterator8Iterator4nextCsf44oge9wsd6_12snafu_derive, symObjAddr: 0x321C, symBinAddr: 0x56404, symSize: 0xB0 }
  - { offset: 0x10601E, size: 0x8, addend: 0x0, symName: __RNvXsm_NtNtNtCse1nGBsou5OW_5alloc11collections5btree3mapINtB5_4IterRNtCs3cP53eQoTwO_11proc_macro25IdentNtNtB7_7set_val9SetValZSTENtNtNtNtCsfvfooZQ3Axs_4core4iter6traits12double_ended19DoubleEndedIterator9next_backCsf44oge9wsd6_12snafu_derive, symObjAddr: 0x32CC, symBinAddr: 0x564B4, symSize: 0xB0 }
  - { offset: 0x1060AC, size: 0x8, addend: 0x0, symName: __RNvXsv_NtNtNtCse1nGBsou5OW_5alloc11collections5btree3mapINtB5_8BTreeMapNtCs3cP53eQoTwO_11proc_macro25IdentNtNtB7_7set_val9SetValZSTENtNtNtNtCsfvfooZQ3Axs_4core4iter6traits7collect12IntoIterator9into_iterCsf44oge9wsd6_12snafu_derive, symObjAddr: 0x337C, symBinAddr: 0x56564, symSize: 0x194 }
  - { offset: 0x106262, size: 0x8, addend: 0x0, symName: __RNvXsv_NtNtNtCse1nGBsou5OW_5alloc11collections5btree3mapINtB5_8BTreeMapRNtCs3cP53eQoTwO_11proc_macro25IdentNtNtB7_7set_val9SetValZSTENtNtNtNtCsfvfooZQ3Axs_4core4iter6traits7collect12IntoIterator9into_iterCsf44oge9wsd6_12snafu_derive, symObjAddr: 0x3510, symBinAddr: 0x566F8, symSize: 0x194 }
  - { offset: 0x1080AE, size: 0x8, addend: 0x0, symName: __RNvXs1_NtCse1nGBsou5OW_5alloc7raw_vecINtB5_6RawVecNtCs3cP53eQoTwO_11proc_macro211TokenStreamENtNtNtCsfvfooZQ3Axs_4core3ops4drop4Drop4dropCsf44oge9wsd6_12snafu_derive, symObjAddr: 0x2528, symBinAddr: 0x55710, symSize: 0x34 }
  - { offset: 0x1080EA, size: 0x8, addend: 0x0, symName: __RNvXs1_NtCse1nGBsou5OW_5alloc7raw_vecINtB5_6RawVecNtCs3cP53eQoTwO_11proc_macro25IdentENtNtNtCsfvfooZQ3Axs_4core3ops4drop4Drop4dropCsf44oge9wsd6_12snafu_derive, symObjAddr: 0x255C, symBinAddr: 0x55744, symSize: 0x34 }
  - { offset: 0x108126, size: 0x8, addend: 0x0, symName: __RNvXs1_NtCse1nGBsou5OW_5alloc7raw_vecINtB5_6RawVecNtCsf44oge9wsd6_12snafu_derive14FieldContainerENtNtNtCsfvfooZQ3Axs_4core3ops4drop4Drop4dropBO_, symObjAddr: 0x2590, symBinAddr: 0x55778, symSize: 0x34 }
  - { offset: 0x108162, size: 0x8, addend: 0x0, symName: __RNvXs1_NtCse1nGBsou5OW_5alloc7raw_vecINtB5_6RawVecNtCsf44oge9wsd6_12snafu_derive14SnafuAttributeENtNtNtCsfvfooZQ3Axs_4core3ops4drop4Drop4dropBO_, symObjAddr: 0x25C4, symBinAddr: 0x557AC, symSize: 0x34 }
  - { offset: 0x10819E, size: 0x8, addend: 0x0, symName: __RNvXs1_NtCse1nGBsou5OW_5alloc7raw_vecINtB5_6RawVecNtCsf44oge9wsd6_12snafu_derive5FieldENtNtNtCsfvfooZQ3Axs_4core3ops4drop4Drop4dropBO_, symObjAddr: 0x25F8, symBinAddr: 0x557E0, symSize: 0x34 }
  - { offset: 0x1081DA, size: 0x8, addend: 0x0, symName: __RNvXs1_NtCse1nGBsou5OW_5alloc7raw_vecINtB5_6RawVecNtCsf44oge9wsd6_12snafu_derive6SourceENtNtNtCsfvfooZQ3Axs_4core3ops4drop4Drop4dropBO_, symObjAddr: 0x262C, symBinAddr: 0x55814, symSize: 0x34 }
  - { offset: 0x108216, size: 0x8, addend: 0x0, symName: __RNvXs1_NtCse1nGBsou5OW_5alloc7raw_vecINtB5_6RawVecNtCsf44oge9wsd6_12snafu_derive7ProvideENtNtNtCsfvfooZQ3Axs_4core3ops4drop4Drop4dropBO_, symObjAddr: 0x2660, symBinAddr: 0x55848, symSize: 0x34 }
  - { offset: 0x108252, size: 0x8, addend: 0x0, symName: __RNvXs1_NtCse1nGBsou5OW_5alloc7raw_vecINtB5_6RawVecNtNtB7_6string6StringENtNtNtCsfvfooZQ3Axs_4core3ops4drop4Drop4dropCsf44oge9wsd6_12snafu_derive, symObjAddr: 0x2694, symBinAddr: 0x5587C, symSize: 0x34 }
  - { offset: 0x10828E, size: 0x8, addend: 0x0, symName: __RNvXs1_NtCse1nGBsou5OW_5alloc7raw_vecINtB5_6RawVecNtNtCs5AlOhPCr03V_3syn4data7VariantENtNtNtCsfvfooZQ3Axs_4core3ops4drop4Drop4dropCsf44oge9wsd6_12snafu_derive, symObjAddr: 0x26C8, symBinAddr: 0x558B0, symSize: 0x34 }
  - { offset: 0x1082CA, size: 0x8, addend: 0x0, symName: __RNvXs1_NtCse1nGBsou5OW_5alloc7raw_vecINtB5_6RawVecNtNtCs5AlOhPCr03V_3syn4expr4ExprENtNtNtCsfvfooZQ3Axs_4core3ops4drop4Drop4dropCsf44oge9wsd6_12snafu_derive, symObjAddr: 0x26FC, symBinAddr: 0x558E4, symSize: 0x34 }
  - { offset: 0x108306, size: 0x8, addend: 0x0, symName: __RNvXs1_NtCse1nGBsou5OW_5alloc7raw_vecINtB5_6RawVecNtNtCs5AlOhPCr03V_3syn5error5ErrorENtNtNtCsfvfooZQ3Axs_4core3ops4drop4Drop4dropCsf44oge9wsd6_12snafu_derive, symObjAddr: 0x2730, symBinAddr: 0x55918, symSize: 0x34 }
  - { offset: 0x108342, size: 0x8, addend: 0x0, symName: __RNvXs1_NtCse1nGBsou5OW_5alloc7raw_vecINtB5_6RawVecNtNtCsf44oge9wsd6_12snafu_derive5parse9AttributeENtNtNtCsfvfooZQ3Axs_4core3ops4drop4Drop4dropBQ_, symObjAddr: 0x2764, symBinAddr: 0x5594C, symSize: 0x34 }
  - { offset: 0x10837E, size: 0x8, addend: 0x0, symName: __RNvXs1_NtCse1nGBsou5OW_5alloc7raw_vecINtB5_6RawVecNtNtCsf44oge9wsd6_12snafu_derive5parse9SourceArgENtNtNtCsfvfooZQ3Axs_4core3ops4drop4Drop4dropBQ_, symObjAddr: 0x2798, symBinAddr: 0x55980, symSize: 0x34 }
  - { offset: 0x1083BA, size: 0x8, addend: 0x0, symName: __RNvXs1_NtCse1nGBsou5OW_5alloc7raw_vecINtB5_6RawVecNtNtNtCsf44oge9wsd6_12snafu_derive6shared5error11ProvidePlusENtNtNtCsfvfooZQ3Axs_4core3ops4drop4Drop4dropBS_, symObjAddr: 0x27CC, symBinAddr: 0x559B4, symSize: 0x34 }
  - { offset: 0x1083F6, size: 0x8, addend: 0x0, symName: __RNvXs1_NtCse1nGBsou5OW_5alloc7raw_vecINtB5_6RawVecRNtCs3cP53eQoTwO_11proc_macro25IdentENtNtNtCsfvfooZQ3Axs_4core3ops4drop4Drop4dropCsf44oge9wsd6_12snafu_derive, symObjAddr: 0x2800, symBinAddr: 0x559E8, symSize: 0x30 }
  - { offset: 0x108432, size: 0x8, addend: 0x0, symName: __RNvXs1_NtCse1nGBsou5OW_5alloc7raw_vecINtB5_6RawVecRNtNtNtCsf44oge9wsd6_12snafu_derive6shared5error11ProvidePlusENtNtNtCsfvfooZQ3Axs_4core3ops4drop4Drop4dropBT_, symObjAddr: 0x2830, symBinAddr: 0x55A18, symSize: 0x30 }
  - { offset: 0x10846E, size: 0x8, addend: 0x0, symName: __RNvXs1_NtCse1nGBsou5OW_5alloc7raw_vecINtB5_6RawVecTINtNtB7_5boxed3BoxDNtNtCs2cqEZUIJimJ_5quote9to_tokens8ToTokensEL_ENtCs3cP53eQoTwO_11proc_macro211TokenStreamEENtNtNtCsfvfooZQ3Axs_4core3ops4drop4Drop4dropCsf44oge9wsd6_12snafu_derive, symObjAddr: 0x2860, symBinAddr: 0x55A48, symSize: 0x34 }
