---
triple:          'arm64-apple-darwin'
binary-path:     '/Users/cedric/orange/ran-llm-claude-flow/src/rust-pipeline/target/debug/deps/libmockall_derive-0b8cb574e9f6df52.dylib'
relocations:
  - { offset: 0x1E, size: 0x8, addend: 0x0, symName: __RINvXNtNtCse1nGBsou5OW_5alloc5slice4hackNtNtCs2nm8mGoL06A_14mockall_derive13mock_function12MockFunctionNtB3_10ConvertVec6to_vecNtNtB7_5alloc6GlobalEBG_, symObjAddr: 0x0, symBinAddr: 0xC50, symSize: 0x378 }
  - { offset: 0x6014, size: 0x8, addend: 0x0, symName: __RINvXNtNtCse1nGBsou5OW_5alloc5slice4hackNtNtCs2nm8mGoL06A_14mockall_derive13mock_function12MockFunctionNtB3_10ConvertVec6to_vecNtNtB7_5alloc6GlobalEBG_, symObjAddr: 0x0, symBinAddr: 0xC50, symSize: 0x378 }
  - { offset: 0x9940, size: 0x8, addend: 0x0, symName: __RNvMNtCsfvfooZQ3Axs_4core5sliceSNtNtCs2nm8mGoL06A_14mockall_derive13mock_function12MockFunction4iterBy_, symObjAddr: 0x378, symBinAddr: 0xFC8, symSize: 0x28 }
  - { offset: 0x9AD1, size: 0x8, addend: 0x0, symName: __RNvXs2_NtNtNtCsfvfooZQ3Axs_4core3ops8function5implsQNCNvMNtCs2nm8mGoL06A_14mockall_derive13mock_functionNtBT_7Builder5builds_0INtB7_6FnOnceTRNtNtCs6IAuOt8vWmF_3syn8generics9TypeParamEE9call_onceBV_, symObjAddr: 0x460, symBinAddr: 0x10B0, symSize: 0x2C }
  - { offset: 0x9B20, size: 0x8, addend: 0x0, symName: __RNvXs2_NtNtNtCsfvfooZQ3Axs_4core3ops8function5implsQNCNvXs0_NtCs2nm8mGoL06A_14mockall_derive13mock_functionNtBW_6CommonNtNtCs2cqEZUIJimJ_5quote9to_tokens8ToTokens9to_tokenss0_0INtB7_6FnOnceTTRNtNtCs6IAuOt8vWmF_3syn3pat3PatRNtCs3cP53eQoTwO_11proc_macro25IdentEEE9call_onceBY_, symObjAddr: 0x48C, symBinAddr: 0x10DC, symSize: 0x34 }
  - { offset: 0x9B6F, size: 0x8, addend: 0x0, symName: __RNvXs2_NtNtNtCsfvfooZQ3Axs_4core3ops8function5implsQNCNvXs0_NtCs2nm8mGoL06A_14mockall_derive13mock_functionNtBW_6CommonNtNtCs2cqEZUIJimJ_5quote9to_tokens8ToTokens9to_tokenss1_0INtB7_6FnOnceTRNtNtCs6IAuOt8vWmF_3syn3pat3PatEE9call_onceBY_, symObjAddr: 0x4C0, symBinAddr: 0x1110, symSize: 0x2C }
  - { offset: 0x9BBE, size: 0x8, addend: 0x0, symName: __RNvXs2_NtNtNtCsfvfooZQ3Axs_4core3ops8function5implsQNCNvXs0_NtCs2nm8mGoL06A_14mockall_derive13mock_functionNtBW_6CommonNtNtCs2cqEZUIJimJ_5quote9to_tokens8ToTokens9to_tokenss_0INtB7_6FnOnceTTRNtCs3cP53eQoTwO_11proc_macro25IdentRNtNtCs6IAuOt8vWmF_3syn2ty4TypeEEE9call_onceBY_, symObjAddr: 0x4EC, symBinAddr: 0x113C, symSize: 0x34 }
  - { offset: 0x9C0D, size: 0x8, addend: 0x0, symName: __RNvXs2_NtNtNtCsfvfooZQ3Axs_4core3ops8function5implsQNCNvXs1_NtCs2nm8mGoL06A_14mockall_derive13mock_functionNtBW_24CommonExpectationMethodsNtNtCs2cqEZUIJimJ_5quote9to_tokens8ToTokens9to_tokenss0_0INtB7_6FnOnceTTRNtNtCs6IAuOt8vWmF_3syn3pat3PatRNtCs3cP53eQoTwO_11proc_macro25IdentEEE9call_onceBY_, symObjAddr: 0x520, symBinAddr: 0x1170, symSize: 0x34 }
  - { offset: 0x9C5C, size: 0x8, addend: 0x0, symName: __RNvXs2_NtNtNtCsfvfooZQ3Axs_4core3ops8function5implsQNCNvXs1_NtCs2nm8mGoL06A_14mockall_derive13mock_functionNtBW_24CommonExpectationMethodsNtNtCs2cqEZUIJimJ_5quote9to_tokens8ToTokens9to_tokenss_0INtB7_6FnOnceTTRNtCs3cP53eQoTwO_11proc_macro25IdentRNtNtCs6IAuOt8vWmF_3syn2ty4TypeEEE9call_onceBY_, symObjAddr: 0x554, symBinAddr: 0x11A4, symSize: 0x34 }
  - { offset: 0x9CAB, size: 0x8, addend: 0x0, symName: __RNvXs2_NtNtNtCsfvfooZQ3Axs_4core3ops8function5implsQNCNvXs3_NtCs2nm8mGoL06A_14mockall_derive13mock_functionNtBW_29ExpectationGuardCommonMethodsNtNtCs2cqEZUIJimJ_5quote9to_tokens8ToTokens9to_tokenss0_0INtB7_6FnOnceTTRNtNtCs6IAuOt8vWmF_3syn3pat3PatRNtCs3cP53eQoTwO_11proc_macro25IdentEEE9call_onceBY_, symObjAddr: 0x588, symBinAddr: 0x11D8, symSize: 0x34 }
  - { offset: 0x9CFA, size: 0x8, addend: 0x0, symName: __RNvXs2_NtNtNtCsfvfooZQ3Axs_4core3ops8function5implsQNCNvXs3_NtCs2nm8mGoL06A_14mockall_derive13mock_functionNtBW_29ExpectationGuardCommonMethodsNtNtCs2cqEZUIJimJ_5quote9to_tokens8ToTokens9to_tokenss_0INtB7_6FnOnceTTRNtCs3cP53eQoTwO_11proc_macro25IdentRNtNtCs6IAuOt8vWmF_3syn2ty4TypeEEE9call_onceBY_, symObjAddr: 0x5BC, symBinAddr: 0x120C, symSize: 0x34 }
  - { offset: 0x9D49, size: 0x8, addend: 0x0, symName: __RNvXs2_NtNtNtCsfvfooZQ3Axs_4core3ops8function5implsQNCNvXs6_NtCs2nm8mGoL06A_14mockall_derive13mock_functionNtBW_7ContextNtNtCs2cqEZUIJimJ_5quote9to_tokens8ToTokens9to_tokens0INtB7_6FnOnceTRNtNtCs6IAuOt8vWmF_3syn8generics9TypeParamEE9call_onceBY_, symObjAddr: 0x5F0, symBinAddr: 0x1240, symSize: 0x2C }
  - { offset: 0x9D98, size: 0x8, addend: 0x0, symName: __RNvXs2_NtNtNtCsfvfooZQ3Axs_4core3ops8function5implsQNCNvXs7_NtCs2nm8mGoL06A_14mockall_derive13mock_functionNtBW_7MatcherNtNtCs2cqEZUIJimJ_5quote9to_tokens8ToTokens9to_tokenss0_0INtB7_6FnOnceTTjRNtNtCs6IAuOt8vWmF_3syn3pat3PatEEE9call_onceBY_, symObjAddr: 0x61C, symBinAddr: 0x126C, symSize: 0x34 }
  - { offset: 0x9DE7, size: 0x8, addend: 0x0, symName: __RNvXs2_NtNtNtCsfvfooZQ3Axs_4core3ops8function5implsQNCNvXs7_NtCs2nm8mGoL06A_14mockall_derive13mock_functionNtBW_7MatcherNtNtCs2cqEZUIJimJ_5quote9to_tokens8ToTokens9to_tokenss1_0INtB7_6FnOnceTRNtNtCs6IAuOt8vWmF_3syn2ty4TypeEE9call_onceBY_, symObjAddr: 0x650, symBinAddr: 0x12A0, symSize: 0x2C }
  - { offset: 0xA415, size: 0x8, addend: 0x0, symName: __RNvNtCs2nm8mGoL06A_14mockall_derive13mock_function8dedynify, symObjAddr: 0xC80, symBinAddr: 0x18D0, symSize: 0x620 }
  - { offset: 0xA52F, size: 0x8, addend: 0x0, symName: __RNvNtCs2nm8mGoL06A_14mockall_derive13mock_function8destrify, symObjAddr: 0x12A0, symBinAddr: 0x1EF0, symSize: 0x1BAC }
  - { offset: 0xA9EB, size: 0x8, addend: 0x0, symName: __RNvNtCs2nm8mGoL06A_14mockall_derive13mock_function6ownify, symObjAddr: 0x2E4C, symBinAddr: 0x3A9C, symSize: 0x148 }
  - { offset: 0xAA31, size: 0x8, addend: 0x0, symName: __RNCNvNtCs2nm8mGoL06A_14mockall_derive13mock_function6ownify0B5_, symObjAddr: 0x2F94, symBinAddr: 0x3BE4, symSize: 0x3C }
  - { offset: 0xAA6F, size: 0x8, addend: 0x0, symName: __RNvNtCs2nm8mGoL06A_14mockall_derive13mock_function12send_syncify, symObjAddr: 0x2FD0, symBinAddr: 0x3C20, symSize: 0x578 }
  - { offset: 0xAC8C, size: 0x8, addend: 0x0, symName: __RNCNvMNtCs2nm8mGoL06A_14mockall_derive13mock_functionNtB4_7Builder5build0B6_, symObjAddr: 0x5530, symBinAddr: 0x6180, symSize: 0x3C }
  - { offset: 0xACC2, size: 0x8, addend: 0x0, symName: __RNCNvMNtCs2nm8mGoL06A_14mockall_derive13mock_functionNtB4_7Builder5builds_0B6_, symObjAddr: 0x556C, symBinAddr: 0x61BC, symSize: 0x38 }
  - { offset: 0xAD15, size: 0x8, addend: 0x0, symName: __RNCNvMs_NtCs2nm8mGoL06A_14mockall_derive13mock_functionNtB6_12MockFunction22is_expectation_generic0B8_, symObjAddr: 0x9C00, symBinAddr: 0xA850, symSize: 0x78 }
  - { offset: 0xAD5B, size: 0x8, addend: 0x0, symName: __RNCNvMs_NtCs2nm8mGoL06A_14mockall_derive13mock_functionNtB6_12MockFunction17is_method_generic0B8_, symObjAddr: 0x9D4C, symBinAddr: 0xA99C, symSize: 0x78 }
  - { offset: 0xADA1, size: 0x8, addend: 0x0, symName: __RNCNvMs_NtCs2nm8mGoL06A_14mockall_derive13mock_functionNtB6_12MockFunction10context_fn0B8_, symObjAddr: 0x3B364, symBinAddr: 0x3BFB4, symSize: 0x80 }
  - { offset: 0xAE06, size: 0x8, addend: 0x0, symName: __RNvXs0_NtCs2nm8mGoL06A_14mockall_derive13mock_functionNtB5_6CommonNtNtCs2cqEZUIJimJ_5quote9to_tokens8ToTokens9to_tokens, symObjAddr: 0xB1E8, symBinAddr: 0xBE38, symSize: 0x5798 }
  - { offset: 0xB87C, size: 0x8, addend: 0x0, symName: __RNCNvXs0_NtCs2nm8mGoL06A_14mockall_derive13mock_functionNtB7_6CommonNtNtCs2cqEZUIJimJ_5quote9to_tokens8ToTokens9to_tokens0B9_, symObjAddr: 0x10980, symBinAddr: 0x115D0, symSize: 0xE4 }
  - { offset: 0xB8D4, size: 0x8, addend: 0x0, symName: __RNCNvXs0_NtCs2nm8mGoL06A_14mockall_derive13mock_functionNtB7_6CommonNtNtCs2cqEZUIJimJ_5quote9to_tokens8ToTokens9to_tokenss_0B9_, symObjAddr: 0x10A64, symBinAddr: 0x116B4, symSize: 0x1A0 }
  - { offset: 0xB94C, size: 0x8, addend: 0x0, symName: __RNCNvXs0_NtCs2nm8mGoL06A_14mockall_derive13mock_functionNtB7_6CommonNtNtCs2cqEZUIJimJ_5quote9to_tokens8ToTokens9to_tokenss0_0B9_, symObjAddr: 0x10C04, symBinAddr: 0x11854, symSize: 0xD0 }
  - { offset: 0xB9BD, size: 0x8, addend: 0x0, symName: __RNCNvXs0_NtCs2nm8mGoL06A_14mockall_derive13mock_functionNtB7_6CommonNtNtCs2cqEZUIJimJ_5quote9to_tokens8ToTokens9to_tokenss1_0B9_, symObjAddr: 0x10CD4, symBinAddr: 0x11924, symSize: 0x12C }
  - { offset: 0xBA51, size: 0x8, addend: 0x0, symName: __RNvXs1_NtCs2nm8mGoL06A_14mockall_derive13mock_functionNtB5_24CommonExpectationMethodsNtNtCs2cqEZUIJimJ_5quote9to_tokens8ToTokens9to_tokens, symObjAddr: 0x10E00, symBinAddr: 0x11A50, symSize: 0x3B04 }
  - { offset: 0xC406, size: 0x8, addend: 0x0, symName: __RNCNvXs1_NtCs2nm8mGoL06A_14mockall_derive13mock_functionNtB7_24CommonExpectationMethodsNtNtCs2cqEZUIJimJ_5quote9to_tokens8ToTokens9to_tokens0B9_, symObjAddr: 0x14904, symBinAddr: 0x15554, symSize: 0xE4 }
  - { offset: 0xC45E, size: 0x8, addend: 0x0, symName: __RNCNvXs1_NtCs2nm8mGoL06A_14mockall_derive13mock_functionNtB7_24CommonExpectationMethodsNtNtCs2cqEZUIJimJ_5quote9to_tokens8ToTokens9to_tokenss_0B9_, symObjAddr: 0x149E8, symBinAddr: 0x15638, symSize: 0x1A0 }
  - { offset: 0xC4D6, size: 0x8, addend: 0x0, symName: __RNCNvXs1_NtCs2nm8mGoL06A_14mockall_derive13mock_functionNtB7_24CommonExpectationMethodsNtNtCs2cqEZUIJimJ_5quote9to_tokens8ToTokens9to_tokenss0_0B9_, symObjAddr: 0x14B88, symBinAddr: 0x157D8, symSize: 0xD0 }
  - { offset: 0xC56F, size: 0x8, addend: 0x0, symName: __RNvXs2_NtCs2nm8mGoL06A_14mockall_derive13mock_functionNtB5_25CommonExpectationsMethodsNtNtCs2cqEZUIJimJ_5quote9to_tokens8ToTokens9to_tokens, symObjAddr: 0x14C58, symBinAddr: 0x158A8, symSize: 0x1304 }
  - { offset: 0xC7EE, size: 0x8, addend: 0x0, symName: __RNvXs3_NtCs2nm8mGoL06A_14mockall_derive13mock_functionNtB5_29ExpectationGuardCommonMethodsNtNtCs2cqEZUIJimJ_5quote9to_tokens8ToTokens9to_tokens, symObjAddr: 0x15F5C, symBinAddr: 0x16BAC, symSize: 0x5A18 }
  - { offset: 0xD4F8, size: 0x8, addend: 0x0, symName: __RNCNvXs3_NtCs2nm8mGoL06A_14mockall_derive13mock_functionNtB7_29ExpectationGuardCommonMethodsNtNtCs2cqEZUIJimJ_5quote9to_tokens8ToTokens9to_tokens0B9_, symObjAddr: 0x1B974, symBinAddr: 0x1C5C4, symSize: 0xE4 }
  - { offset: 0xD550, size: 0x8, addend: 0x0, symName: __RNCNvXs3_NtCs2nm8mGoL06A_14mockall_derive13mock_functionNtB7_29ExpectationGuardCommonMethodsNtNtCs2cqEZUIJimJ_5quote9to_tokens8ToTokens9to_tokenss_0B9_, symObjAddr: 0x1BA58, symBinAddr: 0x1C6A8, symSize: 0x1A0 }
  - { offset: 0xD5C8, size: 0x8, addend: 0x0, symName: __RNCNvXs3_NtCs2nm8mGoL06A_14mockall_derive13mock_functionNtB7_29ExpectationGuardCommonMethodsNtNtCs2cqEZUIJimJ_5quote9to_tokens8ToTokens9to_tokenss0_0B9_, symObjAddr: 0x1BBF8, symBinAddr: 0x1C848, symSize: 0xD0 }
  - { offset: 0xD661, size: 0x8, addend: 0x0, symName: __RNvXs4_NtCs2nm8mGoL06A_14mockall_derive13mock_functionNtB5_24ConcreteExpectationGuardNtNtCs2cqEZUIJimJ_5quote9to_tokens8ToTokens9to_tokens, symObjAddr: 0x1BCC8, symBinAddr: 0x1C918, symSize: 0x12A0 }
  - { offset: 0xD902, size: 0x8, addend: 0x0, symName: __RNvXs5_NtCs2nm8mGoL06A_14mockall_derive13mock_functionNtB5_23GenericExpectationGuardNtNtCs2cqEZUIJimJ_5quote9to_tokens8ToTokens9to_tokens, symObjAddr: 0x1CF68, symBinAddr: 0x1DBB8, symSize: 0x1824 }
  - { offset: 0xDC73, size: 0x8, addend: 0x0, symName: __RNvXs6_NtCs2nm8mGoL06A_14mockall_derive13mock_functionNtB5_7ContextNtNtCs2cqEZUIJimJ_5quote9to_tokens8ToTokens9to_tokens, symObjAddr: 0x1E78C, symBinAddr: 0x1F3DC, symSize: 0x21EC }
  - { offset: 0xE0F2, size: 0x8, addend: 0x0, symName: __RNCNvXs6_NtCs2nm8mGoL06A_14mockall_derive13mock_functionNtB7_7ContextNtNtCs2cqEZUIJimJ_5quote9to_tokens8ToTokens9to_tokens0B9_, symObjAddr: 0x20978, symBinAddr: 0x215C8, symSize: 0x38 }
  - { offset: 0xE139, size: 0x8, addend: 0x0, symName: __RNvXs7_NtCs2nm8mGoL06A_14mockall_derive13mock_functionNtB5_7MatcherNtNtCs2cqEZUIJimJ_5quote9to_tokens8ToTokens9to_tokens, symObjAddr: 0x209B0, symBinAddr: 0x21600, symSize: 0x2AA0 }
  - { offset: 0xEAE6, size: 0x8, addend: 0x0, symName: __RNCNvXs7_NtCs2nm8mGoL06A_14mockall_derive13mock_functionNtB7_7MatcherNtNtCs2cqEZUIJimJ_5quote9to_tokens8ToTokens9to_tokens0B9_, symObjAddr: 0x23450, symBinAddr: 0x240A0, symSize: 0xEC }
  - { offset: 0xEB2F, size: 0x8, addend: 0x0, symName: __RNCNvXs7_NtCs2nm8mGoL06A_14mockall_derive13mock_functionNtB7_7MatcherNtNtCs2cqEZUIJimJ_5quote9to_tokens8ToTokens9to_tokenss_0B9_, symObjAddr: 0x2353C, symBinAddr: 0x2418C, symSize: 0x3C }
  - { offset: 0xEB68, size: 0x8, addend: 0x0, symName: __RNCNvXs7_NtCs2nm8mGoL06A_14mockall_derive13mock_functionNtB7_7MatcherNtNtCs2cqEZUIJimJ_5quote9to_tokens8ToTokens9to_tokenss0_0B9_, symObjAddr: 0x23578, symBinAddr: 0x241C8, symSize: 0x16C }
  - { offset: 0xEC0E, size: 0x8, addend: 0x0, symName: __RNCNvXs7_NtCs2nm8mGoL06A_14mockall_derive13mock_functionNtB7_7MatcherNtNtCs2cqEZUIJimJ_5quote9to_tokens8ToTokens9to_tokenss1_0B9_, symObjAddr: 0x236E4, symBinAddr: 0x24334, symSize: 0x190 }
  - { offset: 0xEC93, size: 0x8, addend: 0x0, symName: __RNvXs8_NtCs2nm8mGoL06A_14mockall_derive13mock_functionNtB5_8RefRfuncNtNtCs2cqEZUIJimJ_5quote9to_tokens8ToTokens9to_tokens, symObjAddr: 0x23874, symBinAddr: 0x244C4, symSize: 0x14A0 }
  - { offset: 0xF017, size: 0x8, addend: 0x0, symName: __RNvXs9_NtCs2nm8mGoL06A_14mockall_derive13mock_functionNtB5_11RefMutRfuncNtNtCs2cqEZUIJimJ_5quote9to_tokens8ToTokens9to_tokens, symObjAddr: 0x24D14, symBinAddr: 0x25964, symSize: 0x2E6C }
  - { offset: 0xF950, size: 0x8, addend: 0x0, symName: __RNvXsa_NtCs2nm8mGoL06A_14mockall_derive13mock_functionNtB5_11StaticRfuncNtNtCs2cqEZUIJimJ_5quote9to_tokens8ToTokens9to_tokens, symObjAddr: 0x27B80, symBinAddr: 0x287D0, symSize: 0x30D4 }
  - { offset: 0x104B9, size: 0x8, addend: 0x0, symName: __RNvXsb_NtCs2nm8mGoL06A_14mockall_derive13mock_functionNtB5_14RefExpectationNtNtCs2cqEZUIJimJ_5quote9to_tokens8ToTokens9to_tokens, symObjAddr: 0x2AC54, symBinAddr: 0x2B8A4, symSize: 0x1868 }
  - { offset: 0x1093E, size: 0x8, addend: 0x0, symName: __RNvXsc_NtCs2nm8mGoL06A_14mockall_derive13mock_functionNtB5_17RefMutExpectationNtNtCs2cqEZUIJimJ_5quote9to_tokens8ToTokens9to_tokens, symObjAddr: 0x2C4BC, symBinAddr: 0x2D10C, symSize: 0x2BD4 }
  - { offset: 0x11104, size: 0x8, addend: 0x0, symName: __RNvXsd_NtCs2nm8mGoL06A_14mockall_derive13mock_functionNtB5_17StaticExpectationNtNtCs2cqEZUIJimJ_5quote9to_tokens8ToTokens9to_tokens, symObjAddr: 0x2F090, symBinAddr: 0x2FCE0, symSize: 0x6AF4 }
  - { offset: 0x12001, size: 0x8, addend: 0x0, symName: __RNvXse_NtCs2nm8mGoL06A_14mockall_derive13mock_functionNtB5_15RefExpectationsNtNtCs2cqEZUIJimJ_5quote9to_tokens8ToTokens9to_tokens, symObjAddr: 0x35B84, symBinAddr: 0x367D4, symSize: 0xD8C }
  - { offset: 0x1245C, size: 0x8, addend: 0x0, symName: __RNvXsf_NtCs2nm8mGoL06A_14mockall_derive13mock_functionNtB5_18RefMutExpectationsNtNtCs2cqEZUIJimJ_5quote9to_tokens8ToTokens9to_tokens, symObjAddr: 0x36910, symBinAddr: 0x37560, symSize: 0xDC8 }
  - { offset: 0x128A0, size: 0x8, addend: 0x0, symName: __RNvXsg_NtCs2nm8mGoL06A_14mockall_derive13mock_functionNtB5_18StaticExpectationsNtNtCs2cqEZUIJimJ_5quote9to_tokens8ToTokens9to_tokens, symObjAddr: 0x376D8, symBinAddr: 0x38328, symSize: 0xD40 }
  - { offset: 0x12CE4, size: 0x8, addend: 0x0, symName: __RNvXsh_NtCs2nm8mGoL06A_14mockall_derive13mock_functionNtB5_19GenericExpectationsNtNtCs2cqEZUIJimJ_5quote9to_tokens8ToTokens9to_tokens, symObjAddr: 0x38418, symBinAddr: 0x39068, symSize: 0xE58 }
  - { offset: 0x12EB8, size: 0x8, addend: 0x0, symName: __RNvXsi_NtCs2nm8mGoL06A_14mockall_derive13mock_functionNtB5_25StaticGenericExpectationsNtNtCs2cqEZUIJimJ_5quote9to_tokens8ToTokens9to_tokens, symObjAddr: 0x39270, symBinAddr: 0x39EC0, symSize: 0x1A34 }
  - { offset: 0x133E7, size: 0x8, addend: 0x0, symName: __RNvXsm_NtCs2nm8mGoL06A_14mockall_derive13mock_functionNtB5_12MockFunctionNtNtCsfvfooZQ3Axs_4core5clone5Clone5cloneB7_, symObjAddr: 0x3ACA4, symBinAddr: 0x3B8F4, symSize: 0x6C0 }
  - { offset: 0x13DF5, size: 0x8, addend: 0x0, symName: __RNvXNtCs2cqEZUIJimJ_5quote9to_tokensRNtNtCs2nm8mGoL06A_14mockall_derive13mock_function6CommonNtB2_8ToTokens9to_tokensBD_, symObjAddr: 0x3A0, symBinAddr: 0xFF0, symSize: 0x40 }
  - { offset: 0x13E34, size: 0x8, addend: 0x0, symName: __RNvXNtCs2cqEZUIJimJ_5quote9to_tokensRNtNtCs2nm8mGoL06A_14mockall_derive13mock_function7ContextNtB2_8ToTokens9to_tokensBD_, symObjAddr: 0x3E0, symBinAddr: 0x1030, symSize: 0x40 }
  - { offset: 0x13E73, size: 0x8, addend: 0x0, symName: __RNvXNtCs2cqEZUIJimJ_5quote9to_tokensRNtNtCs2nm8mGoL06A_14mockall_derive13mock_function7MatcherNtB2_8ToTokens9to_tokensBD_, symObjAddr: 0x420, symBinAddr: 0x1070, symSize: 0x40 }
  - { offset: 0x13EB8, size: 0x8, addend: 0x0, symName: __RNvYNtNtCs2nm8mGoL06A_14mockall_derive13mock_function11RefMutRfuncNtNtCs2cqEZUIJimJ_5quote9to_tokens8ToTokens15to_token_streamB6_, symObjAddr: 0x67C, symBinAddr: 0x12CC, symSize: 0x8C }
  - { offset: 0x13F02, size: 0x8, addend: 0x0, symName: __RNvYNtNtCs2nm8mGoL06A_14mockall_derive13mock_function11StaticRfuncNtNtCs2cqEZUIJimJ_5quote9to_tokens8ToTokens15to_token_streamB6_, symObjAddr: 0x708, symBinAddr: 0x1358, symSize: 0x8C }
  - { offset: 0x13F4C, size: 0x8, addend: 0x0, symName: __RNvYNtNtCs2nm8mGoL06A_14mockall_derive13mock_function14RefExpectationNtNtCs2cqEZUIJimJ_5quote9to_tokens8ToTokens15to_token_streamB6_, symObjAddr: 0x794, symBinAddr: 0x13E4, symSize: 0x8C }
  - { offset: 0x13F96, size: 0x8, addend: 0x0, symName: __RNvYNtNtCs2nm8mGoL06A_14mockall_derive13mock_function15RefExpectationsNtNtCs2cqEZUIJimJ_5quote9to_tokens8ToTokens15to_token_streamB6_, symObjAddr: 0x820, symBinAddr: 0x1470, symSize: 0x8C }
  - { offset: 0x13FE0, size: 0x8, addend: 0x0, symName: __RNvYNtNtCs2nm8mGoL06A_14mockall_derive13mock_function17RefMutExpectationNtNtCs2cqEZUIJimJ_5quote9to_tokens8ToTokens15to_token_streamB6_, symObjAddr: 0x8AC, symBinAddr: 0x14FC, symSize: 0x8C }
  - { offset: 0x1402A, size: 0x8, addend: 0x0, symName: __RNvYNtNtCs2nm8mGoL06A_14mockall_derive13mock_function17StaticExpectationNtNtCs2cqEZUIJimJ_5quote9to_tokens8ToTokens15to_token_streamB6_, symObjAddr: 0x938, symBinAddr: 0x1588, symSize: 0x8C }
  - { offset: 0x14074, size: 0x8, addend: 0x0, symName: __RNvYNtNtCs2nm8mGoL06A_14mockall_derive13mock_function18RefMutExpectationsNtNtCs2cqEZUIJimJ_5quote9to_tokens8ToTokens15to_token_streamB6_, symObjAddr: 0x9C4, symBinAddr: 0x1614, symSize: 0x8C }
  - { offset: 0x140BE, size: 0x8, addend: 0x0, symName: __RNvYNtNtCs2nm8mGoL06A_14mockall_derive13mock_function18StaticExpectationsNtNtCs2cqEZUIJimJ_5quote9to_tokens8ToTokens15to_token_streamB6_, symObjAddr: 0xA50, symBinAddr: 0x16A0, symSize: 0x8C }
  - { offset: 0x14108, size: 0x8, addend: 0x0, symName: __RNvYNtNtCs2nm8mGoL06A_14mockall_derive13mock_function23GenericExpectationGuardNtNtCs2cqEZUIJimJ_5quote9to_tokens8ToTokens15to_token_streamB6_, symObjAddr: 0xADC, symBinAddr: 0x172C, symSize: 0x8C }
  - { offset: 0x14152, size: 0x8, addend: 0x0, symName: __RNvYNtNtCs2nm8mGoL06A_14mockall_derive13mock_function24ConcreteExpectationGuardNtNtCs2cqEZUIJimJ_5quote9to_tokens8ToTokens15to_token_streamB6_, symObjAddr: 0xB68, symBinAddr: 0x17B8, symSize: 0x8C }
  - { offset: 0x1419C, size: 0x8, addend: 0x0, symName: __RNvYNtNtCs2nm8mGoL06A_14mockall_derive13mock_function8RefRfuncNtNtCs2cqEZUIJimJ_5quote9to_tokens8ToTokens15to_token_streamB6_, symObjAddr: 0xBF4, symBinAddr: 0x1844, symSize: 0x8C }
  - { offset: 0x14415, size: 0x8, addend: 0x0, symName: __RNvMNtCs2nm8mGoL06A_14mockall_derive13mock_functionNtB2_7Builder5attrs, symObjAddr: 0x3548, symBinAddr: 0x4198, symSize: 0xA4 }
  - { offset: 0x14445, size: 0x8, addend: 0x0, symName: __RNvMNtCs2nm8mGoL06A_14mockall_derive13mock_functionNtB2_7Builder5build, symObjAddr: 0x35EC, symBinAddr: 0x423C, symSize: 0x1F44 }
  - { offset: 0x1485C, size: 0x8, addend: 0x0, symName: __RNvMNtCs2nm8mGoL06A_14mockall_derive13mock_functionNtB2_7Builder11call_levels, symObjAddr: 0x55A4, symBinAddr: 0x61F4, symSize: 0x40 }
  - { offset: 0x1488E, size: 0x8, addend: 0x0, symName: __RNvMNtCs2nm8mGoL06A_14mockall_derive13mock_functionNtB2_7Builder6levels, symObjAddr: 0x55E4, symBinAddr: 0x6234, symSize: 0x2C }
  - { offset: 0x148C0, size: 0x8, addend: 0x0, symName: __RNvMNtCs2nm8mGoL06A_14mockall_derive13mock_functionNtB2_7Builder3new, symObjAddr: 0x5610, symBinAddr: 0x6260, symSize: 0x8C }
  - { offset: 0x148F2, size: 0x8, addend: 0x0, symName: __RNvMNtCs2nm8mGoL06A_14mockall_derive13mock_functionNtB2_7Builder6parent, symObjAddr: 0x569C, symBinAddr: 0x62EC, symSize: 0x38 }
  - { offset: 0x14924, size: 0x8, addend: 0x0, symName: __RNvMNtCs2nm8mGoL06A_14mockall_derive13mock_functionNtB2_7Builder7struct_, symObjAddr: 0x56D4, symBinAddr: 0x6324, symSize: 0x38 }
  - { offset: 0x14956, size: 0x8, addend: 0x0, symName: __RNvMNtCs2nm8mGoL06A_14mockall_derive13mock_functionNtB2_7Builder15struct_generics, symObjAddr: 0x570C, symBinAddr: 0x635C, symSize: 0x38 }
  - { offset: 0x14988, size: 0x8, addend: 0x0, symName: __RNvMNtCs2nm8mGoL06A_14mockall_derive13mock_functionNtB2_7Builder6trait_, symObjAddr: 0x5744, symBinAddr: 0x6394, symSize: 0x38 }
  - { offset: 0x149BA, size: 0x8, addend: 0x0, symName: __RNvMs_NtCs2nm8mGoL06A_14mockall_derive13mock_functionNtB4_12MockFunction4call, symObjAddr: 0x577C, symBinAddr: 0x63CC, symSize: 0x191C }
  - { offset: 0x1502D, size: 0x8, addend: 0x0, symName: __RNvMs_NtCs2nm8mGoL06A_14mockall_derive13mock_functionNtB4_12MockFunction10checkpoint, symObjAddr: 0x7098, symBinAddr: 0x7CE8, symSize: 0x634 }
  - { offset: 0x15201, size: 0x8, addend: 0x0, symName: __RNvMs_NtCs2nm8mGoL06A_14mockall_derive13mock_functionNtB4_12MockFunction10context_fn, symObjAddr: 0x76CC, symBinAddr: 0x831C, symSize: 0x6DC }
  - { offset: 0x153FE, size: 0x8, addend: 0x0, symName: __RNvMs_NtCs2nm8mGoL06A_14mockall_derive13mock_functionNtB4_12MockFunction4desc, symObjAddr: 0x7DA8, symBinAddr: 0x89F8, symSize: 0x648 }
  - { offset: 0x155F8, size: 0x8, addend: 0x0, symName: __RNvMs_NtCs2nm8mGoL06A_14mockall_derive13mock_functionNtB4_12MockFunction6expect, symObjAddr: 0x83F0, symBinAddr: 0x9040, symSize: 0xB58 }
  - { offset: 0x15968, size: 0x8, addend: 0x0, symName: __RNvMs_NtCs2nm8mGoL06A_14mockall_derive13mock_functionNtB4_12MockFunction15expectation_obj, symObjAddr: 0x8F48, symBinAddr: 0x9B98, symSize: 0x3F0 }
  - { offset: 0x15A98, size: 0x8, addend: 0x0, symName: __RNvMs_NtCs2nm8mGoL06A_14mockall_derive13mock_functionNtB4_12MockFunction16expectations_obj, symObjAddr: 0x9338, symBinAddr: 0x9F88, symSize: 0x190 }
  - { offset: 0x15AFD, size: 0x8, addend: 0x0, symName: __RNvMs_NtCs2nm8mGoL06A_14mockall_derive13mock_functionNtB4_12MockFunction16field_definition, symObjAddr: 0x94C8, symBinAddr: 0xA118, symSize: 0x3CC }
  - { offset: 0x15CE1, size: 0x8, addend: 0x0, symName: __RNvMs_NtCs2nm8mGoL06A_14mockall_derive13mock_functionNtB4_12MockFunction8funcname, symObjAddr: 0x9894, symBinAddr: 0xA4E4, symSize: 0x14C }
  - { offset: 0x15D5F, size: 0x8, addend: 0x0, symName: __RNvMs_NtCs2nm8mGoL06A_14mockall_derive13mock_functionNtB4_12MockFunction4hrtb, symObjAddr: 0x99E0, symBinAddr: 0xA630, symSize: 0x14C }
  - { offset: 0x15D98, size: 0x8, addend: 0x0, symName: __RNvMs_NtCs2nm8mGoL06A_14mockall_derive13mock_functionNtB4_12MockFunction22is_expectation_generic, symObjAddr: 0x9B2C, symBinAddr: 0xA77C, symSize: 0xD4 }
  - { offset: 0x15DBB, size: 0x8, addend: 0x0, symName: __RNvMs_NtCs2nm8mGoL06A_14mockall_derive13mock_functionNtB4_12MockFunction17is_method_generic, symObjAddr: 0x9C78, symBinAddr: 0xA8C8, symSize: 0xD4 }
  - { offset: 0x15DDE, size: 0x8, addend: 0x0, symName: __RNvMs_NtCs2nm8mGoL06A_14mockall_derive13mock_functionNtB4_12MockFunction14outer_mod_path, symObjAddr: 0x9DC4, symBinAddr: 0xAA14, symSize: 0x148 }
  - { offset: 0x15E44, size: 0x8, addend: 0x0, symName: __RNvMs_NtCs2nm8mGoL06A_14mockall_derive13mock_functionNtB4_12MockFunction15inner_mod_ident, symObjAddr: 0x9F0C, symBinAddr: 0xAB5C, symSize: 0x134 }
  - { offset: 0x15E9D, size: 0x8, addend: 0x0, symName: __RNvMs_NtCs2nm8mGoL06A_14mockall_derive13mock_functionNtB4_12MockFunction9is_static, symObjAddr: 0xA040, symBinAddr: 0xAC90, symSize: 0x2C }
  - { offset: 0x15EC0, size: 0x8, addend: 0x0, symName: __RNvMs_NtCs2nm8mGoL06A_14mockall_derive13mock_functionNtB4_12MockFunction4name, symObjAddr: 0xA06C, symBinAddr: 0xACBC, symSize: 0x24 }
  - { offset: 0x15F72, size: 0x8, addend: 0x0, symName: __RNvMs_NtCs2nm8mGoL06A_14mockall_derive13mock_functionNtB4_12MockFunction11priv_module, symObjAddr: 0xA090, symBinAddr: 0xACE0, symSize: 0x1158 }
  - { offset: 0x168DC, size: 0x8, addend: 0x0, symName: __RINvMsi_NtCse1nGBsou5OW_5alloc3vecINtB6_3VecNtCs3cP53eQoTwO_11proc_macro211TokenStreamE14extend_trustedINtNtNtNtCsfvfooZQ3Axs_4core4iter8adapters3map3MapINtNtNtB1M_5slice4iter4IterNtNtCs2nm8mGoL06A_14mockall_derive10mock_trait9MockTraitENCNvXs1_NtB2W_16mock_item_structNtB3V_14MockItemStructNtNtCs2cqEZUIJimJ_5quote9to_tokens8ToTokens9to_tokenssa_0EEB2W_, symObjAddr: 0x0, symBinAddr: 0x3C034, symSize: 0x17C }
  - { offset: 0x2786C, size: 0x8, addend: 0x0, symName: __RINvNtCse1nGBsou5OW_5alloc3vec9from_elemReECs2nm8mGoL06A_14mockall_derive, symObjAddr: 0x4B80, symBinAddr: 0x40BB4, symSize: 0x2C }
  - { offset: 0x27D67, size: 0x8, addend: 0x0, symName: __RNvXs6_NtCse1nGBsou5OW_5alloc3vecINtB5_3VecNtCs3cP53eQoTwO_11proc_macro211TokenStreamENtNtNtCsfvfooZQ3Axs_4core3ops5deref5Deref5derefCs2nm8mGoL06A_14mockall_derive, symObjAddr: 0xC2D8, symBinAddr: 0x4830C, symSize: 0x24 }
  - { offset: 0x27DA7, size: 0x8, addend: 0x0, symName: __RNvXs6_NtCse1nGBsou5OW_5alloc3vecINtB5_3VecNtCs3cP53eQoTwO_11proc_macro25IdentENtNtNtCsfvfooZQ3Axs_4core3ops5deref5Deref5derefCs2nm8mGoL06A_14mockall_derive, symObjAddr: 0xC2FC, symBinAddr: 0x48330, symSize: 0x24 }
  - { offset: 0x27DE7, size: 0x8, addend: 0x0, symName: __RNvXs6_NtCse1nGBsou5OW_5alloc3vecINtB5_3VecNtNtCs2nm8mGoL06A_14mockall_derive10mock_trait9MockTraitENtNtNtCsfvfooZQ3Axs_4core3ops5deref5Deref5derefBJ_, symObjAddr: 0xC320, symBinAddr: 0x48354, symSize: 0x24 }
  - { offset: 0x27E27, size: 0x8, addend: 0x0, symName: __RNvXs6_NtCse1nGBsou5OW_5alloc3vecINtB5_3VecNtNtCs2nm8mGoL06A_14mockall_derive13mock_function12MockFunctionENtNtNtCsfvfooZQ3Axs_4core3ops5deref5Deref5derefBJ_, symObjAddr: 0xC344, symBinAddr: 0x48378, symSize: 0x24 }
  - { offset: 0x27E67, size: 0x8, addend: 0x0, symName: __RNvXs6_NtCse1nGBsou5OW_5alloc3vecINtB5_3VecNtNtCs2nm8mGoL06A_14mockall_derive16mock_item_struct17MockItemTraitImplENtNtNtCsfvfooZQ3Axs_4core3ops5deref5Deref5derefBJ_, symObjAddr: 0xC368, symBinAddr: 0x4839C, symSize: 0x24 }
  - { offset: 0x27EA7, size: 0x8, addend: 0x0, symName: __RNvXs6_NtCse1nGBsou5OW_5alloc3vecINtB5_3VecNtNtCs2nm8mGoL06A_14mockall_derive9mock_item15MockItemContentENtNtNtCsfvfooZQ3Axs_4core3ops5deref5Deref5derefBJ_, symObjAddr: 0xC38C, symBinAddr: 0x483C0, symSize: 0x24 }
  - { offset: 0x27EE7, size: 0x8, addend: 0x0, symName: __RNvXs6_NtCse1nGBsou5OW_5alloc3vecINtB5_3VecNtNtCs6IAuOt8vWmF_3syn2ty4TypeENtNtNtCsfvfooZQ3Axs_4core3ops5deref5Deref5derefCs2nm8mGoL06A_14mockall_derive, symObjAddr: 0xC3B0, symBinAddr: 0x483E4, symSize: 0x24 }
  - { offset: 0x27F27, size: 0x8, addend: 0x0, symName: __RNvXs6_NtCse1nGBsou5OW_5alloc3vecINtB5_3VecNtNtCs6IAuOt8vWmF_3syn3pat3PatENtNtNtCsfvfooZQ3Axs_4core3ops5deref5Deref5derefCs2nm8mGoL06A_14mockall_derive, symObjAddr: 0xC3D4, symBinAddr: 0x48408, symSize: 0x24 }
  - { offset: 0x27F67, size: 0x8, addend: 0x0, symName: __RNvXs6_NtCse1nGBsou5OW_5alloc3vecINtB5_3VecNtNtCs6IAuOt8vWmF_3syn4expr5IndexENtNtNtCsfvfooZQ3Axs_4core3ops5deref5Deref5derefCs2nm8mGoL06A_14mockall_derive, symObjAddr: 0xC3F8, symBinAddr: 0x4842C, symSize: 0x24 }
  - { offset: 0x27FA7, size: 0x8, addend: 0x0, symName: __RNvXs6_NtCse1nGBsou5OW_5alloc3vecINtB5_3VecNtNtCs6IAuOt8vWmF_3syn4item10ImplItemFnENtNtNtCsfvfooZQ3Axs_4core3ops5deref5Deref5derefCs2nm8mGoL06A_14mockall_derive, symObjAddr: 0xC41C, symBinAddr: 0x48450, symSize: 0x24 }
  - { offset: 0x27FE7, size: 0x8, addend: 0x0, symName: __RNvXs6_NtCse1nGBsou5OW_5alloc3vecINtB5_3VecNtNtCs6IAuOt8vWmF_3syn4item12ImplItemTypeENtNtNtCsfvfooZQ3Axs_4core3ops5deref5Deref5derefCs2nm8mGoL06A_14mockall_derive, symObjAddr: 0xC440, symBinAddr: 0x48474, symSize: 0x24 }
  - { offset: 0x28027, size: 0x8, addend: 0x0, symName: __RNvXs6_NtCse1nGBsou5OW_5alloc3vecINtB5_3VecNtNtCs6IAuOt8vWmF_3syn4item13ImplItemConstENtNtNtCsfvfooZQ3Axs_4core3ops5deref5Deref5derefCs2nm8mGoL06A_14mockall_derive, symObjAddr: 0xC464, symBinAddr: 0x48498, symSize: 0x24 }
  - { offset: 0x28067, size: 0x8, addend: 0x0, symName: __RNvXs6_NtCse1nGBsou5OW_5alloc3vecINtB5_3VecNtNtCs6IAuOt8vWmF_3syn4item5FnArgENtNtNtCsfvfooZQ3Axs_4core3ops5deref5Deref5derefCs2nm8mGoL06A_14mockall_derive, symObjAddr: 0xC488, symBinAddr: 0x484BC, symSize: 0x24 }
  - { offset: 0x280A7, size: 0x8, addend: 0x0, symName: __RNvXs6_NtCse1nGBsou5OW_5alloc3vecINtB5_3VecNtNtCs6IAuOt8vWmF_3syn4item8ImplItemENtNtNtCsfvfooZQ3Axs_4core3ops5deref5Deref5derefCs2nm8mGoL06A_14mockall_derive, symObjAddr: 0xC4AC, symBinAddr: 0x484E0, symSize: 0x24 }
  - { offset: 0x280E7, size: 0x8, addend: 0x0, symName: __RNvXs6_NtCse1nGBsou5OW_5alloc3vecINtB5_3VecNtNtCs6IAuOt8vWmF_3syn4item8ItemImplENtNtNtCsfvfooZQ3Axs_4core3ops5deref5Deref5derefCs2nm8mGoL06A_14mockall_derive, symObjAddr: 0xC4D0, symBinAddr: 0x48504, symSize: 0x24 }
  - { offset: 0x28127, size: 0x8, addend: 0x0, symName: __RNvXs6_NtCse1nGBsou5OW_5alloc3vecINtB5_3VecTNtCs3cP53eQoTwO_11proc_macro25IdentNtNtCs6IAuOt8vWmF_3syn5token5CommaEENtNtNtCsfvfooZQ3Axs_4core3ops5deref5Deref5derefCs2nm8mGoL06A_14mockall_derive, symObjAddr: 0xC4F4, symBinAddr: 0x48528, symSize: 0x24 }
  - { offset: 0x28167, size: 0x8, addend: 0x0, symName: __RNvXs6_NtCse1nGBsou5OW_5alloc3vecINtB5_3VecTNtNtCs6IAuOt8vWmF_3syn8generics13LifetimeParamNtNtBK_5token5CommaEENtNtNtCsfvfooZQ3Axs_4core3ops5deref5Deref5derefCs2nm8mGoL06A_14mockall_derive, symObjAddr: 0xC518, symBinAddr: 0x4854C, symSize: 0x24 }
  - { offset: 0x282FD, size: 0x8, addend: 0x0, symName: __RINvXsa_NtCse1nGBsou5OW_5alloc3vecINtB6_3VecNtNtCs6IAuOt8vWmF_3syn4attr9AttributeENtNtCsfvfooZQ3Axs_4core4hash4Hash4hashNtNtNtCscOYdFFY2T5N_3std4hash6random13DefaultHasherECs2nm8mGoL06A_14mockall_derive, symObjAddr: 0x4BAC, symBinAddr: 0x40BE0, symSize: 0x8C }
  - { offset: 0x2847B, size: 0x8, addend: 0x0, symName: __RINvXsa_NtCse1nGBsou5OW_5alloc3vecINtB6_3VecNtNtCs6IAuOt8vWmF_3syn4expr3ArmENtNtCsfvfooZQ3Axs_4core4hash4Hash4hashNtNtNtCscOYdFFY2T5N_3std4hash6random13DefaultHasherECs2nm8mGoL06A_14mockall_derive, symObjAddr: 0x4C38, symBinAddr: 0x40C6C, symSize: 0x8C }
  - { offset: 0x285F9, size: 0x8, addend: 0x0, symName: __RINvXsa_NtCse1nGBsou5OW_5alloc3vecINtB6_3VecNtNtCs6IAuOt8vWmF_3syn4item11ForeignItemENtNtCsfvfooZQ3Axs_4core4hash4Hash4hashNtNtNtCscOYdFFY2T5N_3std4hash6random13DefaultHasherECs2nm8mGoL06A_14mockall_derive, symObjAddr: 0x4CC4, symBinAddr: 0x40CF8, symSize: 0x8C }
  - { offset: 0x28777, size: 0x8, addend: 0x0, symName: __RINvXsa_NtCse1nGBsou5OW_5alloc3vecINtB6_3VecNtNtCs6IAuOt8vWmF_3syn4item4ItemENtNtCsfvfooZQ3Axs_4core4hash4Hash4hashNtNtNtCscOYdFFY2T5N_3std4hash6random13DefaultHasherECs2nm8mGoL06A_14mockall_derive, symObjAddr: 0x4D50, symBinAddr: 0x40D84, symSize: 0x8C }
  - { offset: 0x288F5, size: 0x8, addend: 0x0, symName: __RINvXsa_NtCse1nGBsou5OW_5alloc3vecINtB6_3VecNtNtCs6IAuOt8vWmF_3syn4item8ImplItemENtNtCsfvfooZQ3Axs_4core4hash4Hash4hashNtNtNtCscOYdFFY2T5N_3std4hash6random13DefaultHasherECs2nm8mGoL06A_14mockall_derive, symObjAddr: 0x4DDC, symBinAddr: 0x40E10, symSize: 0x8C }
  - { offset: 0x28A73, size: 0x8, addend: 0x0, symName: __RINvXsa_NtCse1nGBsou5OW_5alloc3vecINtB6_3VecNtNtCs6IAuOt8vWmF_3syn4item9TraitItemENtNtCsfvfooZQ3Axs_4core4hash4Hash4hashNtNtNtCscOYdFFY2T5N_3std4hash6random13DefaultHasherECs2nm8mGoL06A_14mockall_derive, symObjAddr: 0x4E68, symBinAddr: 0x40E9C, symSize: 0x8C }
  - { offset: 0x28BF1, size: 0x8, addend: 0x0, symName: __RINvXsa_NtCse1nGBsou5OW_5alloc3vecINtB6_3VecNtNtCs6IAuOt8vWmF_3syn4stmt4StmtENtNtCsfvfooZQ3Axs_4core4hash4Hash4hashNtNtNtCscOYdFFY2T5N_3std4hash6random13DefaultHasherECs2nm8mGoL06A_14mockall_derive, symObjAddr: 0x4EF4, symBinAddr: 0x40F28, symSize: 0x8C }
  - { offset: 0x28D6F, size: 0x8, addend: 0x0, symName: __RINvXsa_NtCse1nGBsou5OW_5alloc3vecINtB6_3VecTNtNtCs6IAuOt8vWmF_3syn2ty4TypeNtNtBL_5token5CommaEENtNtCsfvfooZQ3Axs_4core4hash4Hash4hashNtNtNtCscOYdFFY2T5N_3std4hash6random13DefaultHasherECs2nm8mGoL06A_14mockall_derive, symObjAddr: 0x4F80, symBinAddr: 0x40FB4, symSize: 0x8C }
  - { offset: 0x28EED, size: 0x8, addend: 0x0, symName: __RINvXsa_NtCse1nGBsou5OW_5alloc3vecINtB6_3VecTNtNtCs6IAuOt8vWmF_3syn2ty9BareFnArgNtNtBL_5token5CommaEENtNtCsfvfooZQ3Axs_4core4hash4Hash4hashNtNtNtCscOYdFFY2T5N_3std4hash6random13DefaultHasherECs2nm8mGoL06A_14mockall_derive, symObjAddr: 0x500C, symBinAddr: 0x41040, symSize: 0x8C }
  - { offset: 0x2906B, size: 0x8, addend: 0x0, symName: __RINvXsa_NtCse1nGBsou5OW_5alloc3vecINtB6_3VecTNtNtCs6IAuOt8vWmF_3syn3pat3PatNtNtBL_5token2OrEENtNtCsfvfooZQ3Axs_4core4hash4Hash4hashNtNtNtCscOYdFFY2T5N_3std4hash6random13DefaultHasherECs2nm8mGoL06A_14mockall_derive, symObjAddr: 0x5098, symBinAddr: 0x410CC, symSize: 0x8C }
  - { offset: 0x291E9, size: 0x8, addend: 0x0, symName: __RINvXsa_NtCse1nGBsou5OW_5alloc3vecINtB6_3VecTNtNtCs6IAuOt8vWmF_3syn3pat3PatNtNtBL_5token5CommaEENtNtCsfvfooZQ3Axs_4core4hash4Hash4hashNtNtNtCscOYdFFY2T5N_3std4hash6random13DefaultHasherECs2nm8mGoL06A_14mockall_derive, symObjAddr: 0x5124, symBinAddr: 0x41158, symSize: 0x8C }
  - { offset: 0x29367, size: 0x8, addend: 0x0, symName: __RINvXsa_NtCse1nGBsou5OW_5alloc3vecINtB6_3VecTNtNtCs6IAuOt8vWmF_3syn3pat8FieldPatNtNtBL_5token5CommaEENtNtCsfvfooZQ3Axs_4core4hash4Hash4hashNtNtNtCscOYdFFY2T5N_3std4hash6random13DefaultHasherECs2nm8mGoL06A_14mockall_derive, symObjAddr: 0x51B0, symBinAddr: 0x411E4, symSize: 0x8C }
  - { offset: 0x294E5, size: 0x8, addend: 0x0, symName: __RINvXsa_NtCse1nGBsou5OW_5alloc3vecINtB6_3VecTNtNtCs6IAuOt8vWmF_3syn4data5FieldNtNtBL_5token5CommaEENtNtCsfvfooZQ3Axs_4core4hash4Hash4hashNtNtNtCscOYdFFY2T5N_3std4hash6random13DefaultHasherECs2nm8mGoL06A_14mockall_derive, symObjAddr: 0x523C, symBinAddr: 0x41270, symSize: 0x8C }
  - { offset: 0x29663, size: 0x8, addend: 0x0, symName: __RINvXsa_NtCse1nGBsou5OW_5alloc3vecINtB6_3VecTNtNtCs6IAuOt8vWmF_3syn4data7VariantNtNtBL_5token5CommaEENtNtCsfvfooZQ3Axs_4core4hash4Hash4hashNtNtNtCscOYdFFY2T5N_3std4hash6random13DefaultHasherECs2nm8mGoL06A_14mockall_derive, symObjAddr: 0x52C8, symBinAddr: 0x412FC, symSize: 0x8C }
  - { offset: 0x297E1, size: 0x8, addend: 0x0, symName: __RINvXsa_NtCse1nGBsou5OW_5alloc3vecINtB6_3VecTNtNtCs6IAuOt8vWmF_3syn4expr10FieldValueNtNtBL_5token5CommaEENtNtCsfvfooZQ3Axs_4core4hash4Hash4hashNtNtNtCscOYdFFY2T5N_3std4hash6random13DefaultHasherECs2nm8mGoL06A_14mockall_derive, symObjAddr: 0x5354, symBinAddr: 0x41388, symSize: 0x8C }
  - { offset: 0x2995F, size: 0x8, addend: 0x0, symName: __RINvXsa_NtCse1nGBsou5OW_5alloc3vecINtB6_3VecTNtNtCs6IAuOt8vWmF_3syn4expr4ExprNtNtBL_5token5CommaEENtNtCsfvfooZQ3Axs_4core4hash4Hash4hashNtNtNtCscOYdFFY2T5N_3std4hash6random13DefaultHasherECs2nm8mGoL06A_14mockall_derive, symObjAddr: 0x53E0, symBinAddr: 0x41414, symSize: 0x8C }
  - { offset: 0x29ADD, size: 0x8, addend: 0x0, symName: __RINvXsa_NtCse1nGBsou5OW_5alloc3vecINtB6_3VecTNtNtCs6IAuOt8vWmF_3syn4item5FnArgNtNtBL_5token5CommaEENtNtCsfvfooZQ3Axs_4core4hash4Hash4hashNtNtNtCscOYdFFY2T5N_3std4hash6random13DefaultHasherECs2nm8mGoL06A_14mockall_derive, symObjAddr: 0x546C, symBinAddr: 0x414A0, symSize: 0x8C }
  - { offset: 0x29C5B, size: 0x8, addend: 0x0, symName: __RINvXsa_NtCse1nGBsou5OW_5alloc3vecINtB6_3VecTNtNtCs6IAuOt8vWmF_3syn4item7UseTreeNtNtBL_5token5CommaEENtNtCsfvfooZQ3Axs_4core4hash4Hash4hashNtNtNtCscOYdFFY2T5N_3std4hash6random13DefaultHasherECs2nm8mGoL06A_14mockall_derive, symObjAddr: 0x54F8, symBinAddr: 0x4152C, symSize: 0x8C }
  - { offset: 0x29DD9, size: 0x8, addend: 0x0, symName: __RINvXsa_NtCse1nGBsou5OW_5alloc3vecINtB6_3VecTNtNtCs6IAuOt8vWmF_3syn4path11PathSegmentNtNtBL_5token7PathSepEENtNtCsfvfooZQ3Axs_4core4hash4Hash4hashNtNtNtCscOYdFFY2T5N_3std4hash6random13DefaultHasherECs2nm8mGoL06A_14mockall_derive, symObjAddr: 0x5584, symBinAddr: 0x415B8, symSize: 0x8C }
  - { offset: 0x29F57, size: 0x8, addend: 0x0, symName: __RINvXsa_NtCse1nGBsou5OW_5alloc3vecINtB6_3VecTNtNtCs6IAuOt8vWmF_3syn4path15GenericArgumentNtNtBL_5token5CommaEENtNtCsfvfooZQ3Axs_4core4hash4Hash4hashNtNtNtCscOYdFFY2T5N_3std4hash6random13DefaultHasherECs2nm8mGoL06A_14mockall_derive, symObjAddr: 0x5610, symBinAddr: 0x41644, symSize: 0x8C }
  - { offset: 0x2A0D5, size: 0x8, addend: 0x0, symName: __RINvXsa_NtCse1nGBsou5OW_5alloc3vecINtB6_3VecTNtNtCs6IAuOt8vWmF_3syn8generics12GenericParamNtNtBL_5token5CommaEENtNtCsfvfooZQ3Axs_4core4hash4Hash4hashNtNtNtCscOYdFFY2T5N_3std4hash6random13DefaultHasherECs2nm8mGoL06A_14mockall_derive, symObjAddr: 0x569C, symBinAddr: 0x416D0, symSize: 0x8C }
  - { offset: 0x2A253, size: 0x8, addend: 0x0, symName: __RINvXsa_NtCse1nGBsou5OW_5alloc3vecINtB6_3VecTNtNtCs6IAuOt8vWmF_3syn8generics13CapturedParamNtNtBL_5token5CommaEENtNtCsfvfooZQ3Axs_4core4hash4Hash4hashNtNtNtCscOYdFFY2T5N_3std4hash6random13DefaultHasherECs2nm8mGoL06A_14mockall_derive, symObjAddr: 0x5728, symBinAddr: 0x4175C, symSize: 0x8C }
  - { offset: 0x2A3D1, size: 0x8, addend: 0x0, symName: __RINvXsa_NtCse1nGBsou5OW_5alloc3vecINtB6_3VecTNtNtCs6IAuOt8vWmF_3syn8generics14TypeParamBoundNtNtBL_5token4PlusEENtNtCsfvfooZQ3Axs_4core4hash4Hash4hashNtNtNtCscOYdFFY2T5N_3std4hash6random13DefaultHasherECs2nm8mGoL06A_14mockall_derive, symObjAddr: 0x57B4, symBinAddr: 0x417E8, symSize: 0x8C }
  - { offset: 0x2A54F, size: 0x8, addend: 0x0, symName: __RINvXsa_NtCse1nGBsou5OW_5alloc3vecINtB6_3VecTNtNtCs6IAuOt8vWmF_3syn8generics14WherePredicateNtNtBL_5token5CommaEENtNtCsfvfooZQ3Axs_4core4hash4Hash4hashNtNtNtCscOYdFFY2T5N_3std4hash6random13DefaultHasherECs2nm8mGoL06A_14mockall_derive, symObjAddr: 0x5840, symBinAddr: 0x41874, symSize: 0x8C }
  - { offset: 0x2A6CD, size: 0x8, addend: 0x0, symName: __RINvXsa_NtCse1nGBsou5OW_5alloc3vecINtB6_3VecTNtNtCs6IAuOt8vWmF_3syn8lifetime8LifetimeNtNtBL_5token4PlusEENtNtCsfvfooZQ3Axs_4core4hash4Hash4hashNtNtNtCscOYdFFY2T5N_3std4hash6random13DefaultHasherECs2nm8mGoL06A_14mockall_derive, symObjAddr: 0x58CC, symBinAddr: 0x41900, symSize: 0x8C }
  - { offset: 0x2A851, size: 0x8, addend: 0x0, symName: __RINvXsd_NtCse1nGBsou5OW_5alloc3vecINtB6_3VecNtCs3cP53eQoTwO_11proc_macro211TokenStreamEINtNtNtNtCsfvfooZQ3Axs_4core4iter6traits7collect12FromIteratorBG_E9from_iterINtNtNtB1u_8adapters10filter_map9FilterMapINtNtB2G_9enumerate9EnumerateINtNtCs6IAuOt8vWmF_3syn10punctuated4IterNtNtB3P_8generics12GenericParamEENCNvNtCs2nm8mGoL06A_14mockall_derive16mock_item_struct14phantom_fields0EEB51_, symObjAddr: 0x5958, symBinAddr: 0x4198C, symSize: 0x3C }
  - { offset: 0x2A892, size: 0x8, addend: 0x0, symName: __RINvXsd_NtCse1nGBsou5OW_5alloc3vecINtB6_3VecNtCs3cP53eQoTwO_11proc_macro211TokenStreamEINtNtNtNtCsfvfooZQ3Axs_4core4iter6traits7collect12FromIteratorBG_E9from_iterINtNtNtB1u_8adapters10filter_map9FilterMapINtNtCs6IAuOt8vWmF_3syn10punctuated4IterNtNtB3m_4item5FnArgENCNvCs2nm8mGoL06A_14mockall_derive11declosurefys3_0EEB4j_, symObjAddr: 0x5994, symBinAddr: 0x419C8, symSize: 0x3C }
  - { offset: 0x2A8D3, size: 0x8, addend: 0x0, symName: __RINvXsd_NtCse1nGBsou5OW_5alloc3vecINtB6_3VecNtCs3cP53eQoTwO_11proc_macro211TokenStreamEINtNtNtNtCsfvfooZQ3Axs_4core4iter6traits7collect12FromIteratorBG_E9from_iterINtNtNtB1u_8adapters10filter_map9FilterMapINtNtCs6IAuOt8vWmF_3syn10punctuated4IterNtNtB3m_4item5FnArgENCNvCs2nm8mGoL06A_14mockall_derive15concretize_argss0_0EEB4j_, symObjAddr: 0x59D0, symBinAddr: 0x41A04, symSize: 0x3C }
  - { offset: 0x2A914, size: 0x8, addend: 0x0, symName: __RINvXsd_NtCse1nGBsou5OW_5alloc3vecINtB6_3VecNtCs3cP53eQoTwO_11proc_macro211TokenStreamEINtNtNtNtCsfvfooZQ3Axs_4core4iter6traits7collect12FromIteratorBG_E9from_iterINtNtNtB1u_8adapters3map3MapINtNtB2G_6filter6FilterINtNtNtB1w_5slice4iter4IterNtNtCs2nm8mGoL06A_14mockall_derive13mock_function12MockFunctionENCNvMNtB3V_10mock_traitNtB4Y_9MockTrait10trait_impls1_0ENCB4V_s2_0EEB3V_, symObjAddr: 0x5A0C, symBinAddr: 0x41A40, symSize: 0x3C }
  - { offset: 0x2A955, size: 0x8, addend: 0x0, symName: __RINvXsd_NtCse1nGBsou5OW_5alloc3vecINtB6_3VecNtCs3cP53eQoTwO_11proc_macro211TokenStreamEINtNtNtNtCsfvfooZQ3Axs_4core4iter6traits7collect12FromIteratorBG_E9from_iterINtNtNtB1u_8adapters3map3MapINtNtB2G_6filter6FilterINtNtNtB1w_5slice4iter4IterNtNtCs2nm8mGoL06A_14mockall_derive13mock_function12MockFunctionENCNvMNtB3V_10mock_traitNtB4Y_9MockTrait10trait_impls_0ENCB4V_s0_0EEB3V_, symObjAddr: 0x5A48, symBinAddr: 0x41A7C, symSize: 0x3C }
  - { offset: 0x2A996, size: 0x8, addend: 0x0, symName: __RINvXsd_NtCse1nGBsou5OW_5alloc3vecINtB6_3VecNtCs3cP53eQoTwO_11proc_macro211TokenStreamEINtNtNtNtCsfvfooZQ3Axs_4core4iter6traits7collect12FromIteratorBG_E9from_iterINtNtNtB1u_8adapters3map3MapINtNtB2G_6filter6FilterINtNtNtB1w_5slice4iter4IterNtNtCs2nm8mGoL06A_14mockall_derive13mock_function12MockFunctionENCNvMNtB3V_16mock_item_structNtB4Y_7Methods11checkpoints0ENCB4V_s_0EEB3V_, symObjAddr: 0x5A84, symBinAddr: 0x41AB8, symSize: 0x40 }
  - { offset: 0x2A9D6, size: 0x8, addend: 0x0, symName: __RINvXsd_NtCse1nGBsou5OW_5alloc3vecINtB6_3VecNtCs3cP53eQoTwO_11proc_macro211TokenStreamEINtNtNtNtCsfvfooZQ3Axs_4core4iter6traits7collect12FromIteratorBG_E9from_iterINtNtNtB1u_8adapters3map3MapINtNtB2G_6filter6FilterINtNtNtB1w_5slice4iter4IterNtNtCs2nm8mGoL06A_14mockall_derive13mock_function12MockFunctionENCNvMNtB3V_16mock_item_structNtB4Y_7Methods13default_inits0ENCB4V_s_0EEB3V_, symObjAddr: 0x5AC4, symBinAddr: 0x41AF8, symSize: 0x40 }
  - { offset: 0x2AA16, size: 0x8, addend: 0x0, symName: __RINvXsd_NtCse1nGBsou5OW_5alloc3vecINtB6_3VecNtCs3cP53eQoTwO_11proc_macro211TokenStreamEINtNtNtNtCsfvfooZQ3Axs_4core4iter6traits7collect12FromIteratorBG_E9from_iterINtNtNtB1u_8adapters3map3MapINtNtB2G_6filter6FilterINtNtNtB1w_5slice4iter4IterNtNtCs2nm8mGoL06A_14mockall_derive13mock_function12MockFunctionENCNvMNtB3V_16mock_item_structNtB4Y_7Methods17field_definitions0ENCB4V_s_0EEB3V_, symObjAddr: 0x5B04, symBinAddr: 0x41B38, symSize: 0x3C }
  - { offset: 0x2AA57, size: 0x8, addend: 0x0, symName: __RINvXsd_NtCse1nGBsou5OW_5alloc3vecINtB6_3VecNtCs3cP53eQoTwO_11proc_macro211TokenStreamEINtNtNtNtCsfvfooZQ3Axs_4core4iter6traits7collect12FromIteratorBG_E9from_iterINtNtNtB1u_8adapters3map3MapINtNtB2G_6filter6FilterINtNtNtB1w_5slice4iter4IterNtNtCs2nm8mGoL06A_14mockall_derive13mock_function12MockFunctionENCNvXs1_NtB3V_16mock_item_structNtB51_14MockItemStructNtNtCs2cqEZUIJimJ_5quote9to_tokens8ToTokens9to_tokenss1_0ENCB4V_s2_0EEB3V_, symObjAddr: 0x5B40, symBinAddr: 0x41B74, symSize: 0x3C }
  - { offset: 0x2AA98, size: 0x8, addend: 0x0, symName: __RINvXsd_NtCse1nGBsou5OW_5alloc3vecINtB6_3VecNtCs3cP53eQoTwO_11proc_macro211TokenStreamEINtNtNtNtCsfvfooZQ3Axs_4core4iter6traits7collect12FromIteratorBG_E9from_iterINtNtNtB1u_8adapters3map3MapINtNtB2G_6filter6FilterINtNtNtB1w_5slice4iter4IterNtNtCs2nm8mGoL06A_14mockall_derive13mock_function12MockFunctionENCNvXs1_NtB3V_16mock_item_structNtB51_14MockItemStructNtNtCs2cqEZUIJimJ_5quote9to_tokens8ToTokens9to_tokenss_0ENCB4V_s0_0EEB3V_, symObjAddr: 0x5B7C, symBinAddr: 0x41BB0, symSize: 0x3C }
  - { offset: 0x2AAD9, size: 0x8, addend: 0x0, symName: __RINvXsd_NtCse1nGBsou5OW_5alloc3vecINtB6_3VecNtCs3cP53eQoTwO_11proc_macro211TokenStreamEINtNtNtNtCsfvfooZQ3Axs_4core4iter6traits7collect12FromIteratorBG_E9from_iterINtNtNtB1u_8adapters3map3MapINtNtB2G_6filter6FilterINtNtNtB1w_5slice4iter4IterNtNtCs2nm8mGoL06A_14mockall_derive16mock_item_struct17MockItemTraitImplENCNvXs1_B3T_NtB3T_14MockItemStructNtNtCs2cqEZUIJimJ_5quote9to_tokens8ToTokens9to_tokenss4_0ENCB53_s5_0EEB3V_, symObjAddr: 0x5BB8, symBinAddr: 0x41BEC, symSize: 0x40 }
  - { offset: 0x2AB19, size: 0x8, addend: 0x0, symName: __RINvXsd_NtCse1nGBsou5OW_5alloc3vecINtB6_3VecNtCs3cP53eQoTwO_11proc_macro211TokenStreamEINtNtNtNtCsfvfooZQ3Axs_4core4iter6traits7collect12FromIteratorBG_E9from_iterINtNtNtB1u_8adapters3map3MapINtNtB2G_6filter6FilterINtNtNtB1w_5slice4iter4IterNtNtCs2nm8mGoL06A_14mockall_derive16mock_item_struct17MockItemTraitImplENCNvXs1_B3T_NtB3T_14MockItemStructNtNtCs2cqEZUIJimJ_5quote9to_tokens8ToTokens9to_tokenss6_0ENCB53_s7_0EEB3V_, symObjAddr: 0x5BF8, symBinAddr: 0x41C2C, symSize: 0x3C }
  - { offset: 0x2AB5A, size: 0x8, addend: 0x0, symName: __RINvXsd_NtCse1nGBsou5OW_5alloc3vecINtB6_3VecNtCs3cP53eQoTwO_11proc_macro211TokenStreamEINtNtNtNtCsfvfooZQ3Axs_4core4iter6traits7collect12FromIteratorBG_E9from_iterINtNtNtB1u_8adapters3map3MapINtNtB2G_6filter6FilterINtNtNtB1w_5slice4iter4IterNtNtCs2nm8mGoL06A_14mockall_derive16mock_item_struct17MockItemTraitImplENCNvXs1_B3T_NtB3T_14MockItemStructNtNtCs2cqEZUIJimJ_5quote9to_tokens8ToTokens9to_tokenss8_0ENCB53_s9_0EEB3V_, symObjAddr: 0x5C34, symBinAddr: 0x41C68, symSize: 0x40 }
  - { offset: 0x2AB9A, size: 0x8, addend: 0x0, symName: __RINvXsd_NtCse1nGBsou5OW_5alloc3vecINtB6_3VecNtCs3cP53eQoTwO_11proc_macro211TokenStreamEINtNtNtNtCsfvfooZQ3Axs_4core4iter6traits7collect12FromIteratorBG_E9from_iterINtNtNtB1u_8adapters3map3MapINtNtB2G_9enumerate9EnumerateINtNtCs6IAuOt8vWmF_3syn10punctuated4IterNtNtB3B_8generics12GenericParamEENCNvNtCs2nm8mGoL06A_14mockall_derive16mock_item_struct21phantom_default_inits0EEB4N_, symObjAddr: 0x5C74, symBinAddr: 0x41CA8, symSize: 0x3C }
  - { offset: 0x2ABDB, size: 0x8, addend: 0x0, symName: __RINvXsd_NtCse1nGBsou5OW_5alloc3vecINtB6_3VecNtCs3cP53eQoTwO_11proc_macro211TokenStreamEINtNtNtNtCsfvfooZQ3Axs_4core4iter6traits7collect12FromIteratorBG_E9from_iterINtNtNtB1u_8adapters3map3MapINtNtNtB1w_5slice4iter4IterNtNtCs2nm8mGoL06A_14mockall_derive10mock_trait9MockTraitENCNvXs1_NtB3y_16mock_item_structNtB4x_14MockItemStructNtNtCs2cqEZUIJimJ_5quote9to_tokens8ToTokens9to_tokenssa_0EEB3y_, symObjAddr: 0x5CB0, symBinAddr: 0x41CE4, symSize: 0x3C }
  - { offset: 0x2AC1C, size: 0x8, addend: 0x0, symName: __RINvXsd_NtCse1nGBsou5OW_5alloc3vecINtB6_3VecNtCs3cP53eQoTwO_11proc_macro211TokenStreamEINtNtNtNtCsfvfooZQ3Axs_4core4iter6traits7collect12FromIteratorBG_E9from_iterINtNtNtB1u_8adapters3map3MapINtNtNtB1w_5slice4iter4IterNtNtCs2nm8mGoL06A_14mockall_derive13mock_function12MockFunctionENCNvMNtB3y_10mock_traitNtB4B_9MockTrait10trait_impl0EEB3y_, symObjAddr: 0x5CEC, symBinAddr: 0x41D20, symSize: 0x3C }
  - { offset: 0x2AC5D, size: 0x8, addend: 0x0, symName: __RINvXsd_NtCse1nGBsou5OW_5alloc3vecINtB6_3VecNtCs3cP53eQoTwO_11proc_macro211TokenStreamEINtNtNtNtCsfvfooZQ3Axs_4core4iter6traits7collect12FromIteratorBG_E9from_iterINtNtNtB1u_8adapters3map3MapINtNtNtB1w_5slice4iter4IterNtNtCs2nm8mGoL06A_14mockall_derive13mock_function12MockFunctionENCNvMNtB3y_16mock_item_structNtB4B_7Methods9priv_mods0EEB3y_, symObjAddr: 0x5D28, symBinAddr: 0x41D5C, symSize: 0x40 }
  - { offset: 0x2AC9D, size: 0x8, addend: 0x0, symName: __RINvXsd_NtCse1nGBsou5OW_5alloc3vecINtB6_3VecNtCs3cP53eQoTwO_11proc_macro211TokenStreamEINtNtNtNtCsfvfooZQ3Axs_4core4iter6traits7collect12FromIteratorBG_E9from_iterINtNtNtB1u_8adapters3map3MapINtNtNtB1w_5slice4iter4IterNtNtCs2nm8mGoL06A_14mockall_derive13mock_function12MockFunctionENCNvXs1_NtB3y_16mock_item_structNtB4E_14MockItemStructNtNtCs2cqEZUIJimJ_5quote9to_tokens8ToTokens9to_tokens0EEB3y_, symObjAddr: 0x5D68, symBinAddr: 0x41D9C, symSize: 0x3C }
  - { offset: 0x2ACDE, size: 0x8, addend: 0x0, symName: __RINvXsd_NtCse1nGBsou5OW_5alloc3vecINtB6_3VecNtCs3cP53eQoTwO_11proc_macro25IdentEINtNtNtNtCsfvfooZQ3Axs_4core4iter6traits7collect12FromIteratorBG_E9from_iterINtNtNtB1n_8adapters3map3MapINtNtNtB1p_3ops5range5RangejENCNvXs0_NtCs2nm8mGoL06A_14mockall_derive13mock_functionNtB3x_6CommonNtNtCs2cqEZUIJimJ_5quote9to_tokens8ToTokens9to_tokens0EEB3z_, symObjAddr: 0x5DA4, symBinAddr: 0x41DD8, symSize: 0x38 }
  - { offset: 0x2AD1E, size: 0x8, addend: 0x0, symName: __RINvXsd_NtCse1nGBsou5OW_5alloc3vecINtB6_3VecNtCs3cP53eQoTwO_11proc_macro25IdentEINtNtNtNtCsfvfooZQ3Axs_4core4iter6traits7collect12FromIteratorBG_E9from_iterINtNtNtB1n_8adapters3map3MapINtNtNtB1p_3ops5range5RangejENCNvXs1_NtCs2nm8mGoL06A_14mockall_derive13mock_functionNtB3x_24CommonExpectationMethodsNtNtCs2cqEZUIJimJ_5quote9to_tokens8ToTokens9to_tokens0EEB3z_, symObjAddr: 0x5DDC, symBinAddr: 0x41E10, symSize: 0x38 }
  - { offset: 0x2AD5E, size: 0x8, addend: 0x0, symName: __RINvXsd_NtCse1nGBsou5OW_5alloc3vecINtB6_3VecNtCs3cP53eQoTwO_11proc_macro25IdentEINtNtNtNtCsfvfooZQ3Axs_4core4iter6traits7collect12FromIteratorBG_E9from_iterINtNtNtB1n_8adapters3map3MapINtNtNtB1p_3ops5range5RangejENCNvXs3_NtCs2nm8mGoL06A_14mockall_derive13mock_functionNtB3x_29ExpectationGuardCommonMethodsNtNtCs2cqEZUIJimJ_5quote9to_tokens8ToTokens9to_tokens0EEB3z_, symObjAddr: 0x5E14, symBinAddr: 0x41E48, symSize: 0x38 }
  - { offset: 0x2AD9E, size: 0x8, addend: 0x0, symName: __RINvXsd_NtCse1nGBsou5OW_5alloc3vecINtB6_3VecNtCs3cP53eQoTwO_11proc_macro25IdentEINtNtNtNtCsfvfooZQ3Axs_4core4iter6traits7collect12FromIteratorBG_E9from_iterINtNtNtB1n_8adapters3map3MapNtNtCs6IAuOt8vWmF_3syn8generics10TypeParamsNCNvMNtCs2nm8mGoL06A_14mockall_derive13mock_functionNtB3I_7Builder5builds_0EEB3K_, symObjAddr: 0x5E4C, symBinAddr: 0x41E80, symSize: 0x40 }
  - { offset: 0x2ADDE, size: 0x8, addend: 0x0, symName: __RINvXsd_NtCse1nGBsou5OW_5alloc3vecINtB6_3VecNtNtCs2nm8mGoL06A_14mockall_derive10mock_trait9MockTraitEINtNtNtNtCsfvfooZQ3Axs_4core4iter6traits7collect12FromIteratorBG_E9from_iterINtNtNtB1I_8adapters3map3MapINtNtB6_9into_iter8IntoIterNtNtCs6IAuOt8vWmF_3syn4item8ItemImplENCNvXs0_NtBK_16mock_item_structNtB4r_14MockItemStructINtNtB1K_7convert4FromNtNtBK_15mockable_struct14MockableStructE4froms1_0EEBK_, symObjAddr: 0x5E8C, symBinAddr: 0x41EC0, symSize: 0x3C }
  - { offset: 0x2AE1F, size: 0x8, addend: 0x0, symName: __RINvXsd_NtCse1nGBsou5OW_5alloc3vecINtB6_3VecNtNtCs2nm8mGoL06A_14mockall_derive13mock_function12MockFunctionEINtNtNtNtCsfvfooZQ3Axs_4core4iter6traits7collect12FromIteratorBG_E9from_iterINtNtNtB1P_8adapters3map3MapINtNtB6_9into_iter8IntoIterNtNtCs6IAuOt8vWmF_3syn4item10ImplItemFnENCNvXs0_NtBK_16mock_item_structNtB4B_14MockItemStructINtNtB1R_7convert4FromNtNtBK_15mockable_struct14MockableStructE4froms0_0EEBK_, symObjAddr: 0x5EC8, symBinAddr: 0x41EFC, symSize: 0x3C }
  - { offset: 0x2AE60, size: 0x8, addend: 0x0, symName: __RINvXsd_NtCse1nGBsou5OW_5alloc3vecINtB6_3VecNtNtCs2nm8mGoL06A_14mockall_derive16mock_item_struct17MockItemTraitImplEINtNtNtNtCsfvfooZQ3Axs_4core4iter6traits7collect12FromIteratorBG_E9from_iterINtNtNtB1X_8adapters3map3MapINtNtB39_6filter6FilterINtNtNtB1Z_5slice4iter4IterNtNtBK_10mock_trait9MockTraitENCINvBI_17unique_trait_iterB3T_E0ENCNvXs1_BI_NtBI_14MockItemStructNtNtCs2cqEZUIJimJ_5quote9to_tokens8ToTokens9to_tokenss3_0EEBK_, symObjAddr: 0x5F04, symBinAddr: 0x41F38, symSize: 0x3C }
  - { offset: 0x2AEA1, size: 0x8, addend: 0x0, symName: __RINvXsd_NtCse1nGBsou5OW_5alloc3vecINtB6_3VecNtNtCs6IAuOt8vWmF_3syn4attr9AttributeEINtNtNtNtCsfvfooZQ3Axs_4core4iter6traits7collect12FromIteratorBG_E9from_iterINtNtNtB1p_8adapters6cloned6ClonedINtNtB2B_6filter6FilterINtNtNtB1r_5slice4iter4IterBG_ENCNvMCs2nm8mGoL06A_14mockall_deriveNtB41_13AttrFormatter6format0EEEB41_, symObjAddr: 0x5F40, symBinAddr: 0x41F74, symSize: 0x3C }
  - { offset: 0x2AEE2, size: 0x8, addend: 0x0, symName: __RINvXsd_NtCse1nGBsou5OW_5alloc3vecINtB6_3VecNtNtCs6IAuOt8vWmF_3syn4expr5IndexEINtNtNtNtCsfvfooZQ3Axs_4core4iter6traits7collect12FromIteratorBG_E9from_iterINtNtNtB1l_8adapters3map3MapINtNtNtB1n_3ops5range5RangejENCNvXs7_NtCs2nm8mGoL06A_14mockall_derive13mock_functionNtB3v_7MatcherNtNtCs2cqEZUIJimJ_5quote9to_tokens8ToTokens9to_tokenss_0EEB3x_, symObjAddr: 0x5F7C, symBinAddr: 0x41FB0, symSize: 0x38 }
  - { offset: 0x2AF22, size: 0x8, addend: 0x0, symName: __RINvXsd_NtCse1nGBsou5OW_5alloc3vecINtB6_3VecNtNtCs6IAuOt8vWmF_3syn4item4ItemEINtNtNtNtCsfvfooZQ3Axs_4core4iter6traits7collect12FromIteratorBG_E9from_iterINtNtNtB1k_8adapters3map3MapINtNtB6_9into_iter8IntoIterBG_ENvNtCs2nm8mGoL06A_14mockall_derive13mockable_item13mockable_itemEEB3s_, symObjAddr: 0x5FB4, symBinAddr: 0x41FE8, symSize: 0x3C }
  - { offset: 0x2AF63, size: 0x8, addend: 0x0, symName: __RINvXsd_NtCse1nGBsou5OW_5alloc3vecINtB6_3VecNtNtCs6IAuOt8vWmF_3syn4item5FnArgEINtNtNtNtCsfvfooZQ3Axs_4core4iter6traits7collect12FromIteratorBG_E9from_iterINtNtNtB1l_8adapters3map3MapINtNtBK_10punctuated4IterBG_ENCNvCs2nm8mGoL06A_14mockall_derive11declosurefys2_0EEB3r_, symObjAddr: 0x5FF0, symBinAddr: 0x42024, symSize: 0x3C }
  - { offset: 0x2AFA4, size: 0x8, addend: 0x0, symName: __RINvXsd_NtCse1nGBsou5OW_5alloc3vecINtB6_3VecNtNtCs6IAuOt8vWmF_3syn4item5FnArgEINtNtNtNtCsfvfooZQ3Axs_4core4iter6traits7collect12FromIteratorBG_E9from_iterINtNtNtB1l_8adapters3map3MapINtNtBK_10punctuated4IterBG_ENCNvCs2nm8mGoL06A_14mockall_derive15concretize_argss_0EEB3r_, symObjAddr: 0x602C, symBinAddr: 0x42060, symSize: 0x3C }
  - { offset: 0x2AFE5, size: 0x8, addend: 0x0, symName: __RINvXsd_NtCse1nGBsou5OW_5alloc3vecINtB6_3VecNtNtCs6IAuOt8vWmF_3syn4item8ImplItemEINtNtNtNtCsfvfooZQ3Axs_4core4iter6traits7collect12FromIteratorBG_E9from_iterINtNtNtB1o_8adapters3map3MapINtNtB6_9into_iter8IntoIterNtBI_9TraitItemENCNvNtCs2nm8mGoL06A_14mockall_derive15mockable_struct14mockable_trait0EEB3K_, symObjAddr: 0x6068, symBinAddr: 0x4209C, symSize: 0x3C }
  - { offset: 0x2B02C, size: 0x8, addend: 0x0, symName: __RINvXsh_NtCse1nGBsou5OW_5alloc3vecINtB6_3VecNtCs3cP53eQoTwO_11proc_macro211TokenStreamEINtNtNtNtCsfvfooZQ3Axs_4core4iter6traits7collect6ExtendBG_E6extendBw_ECs2nm8mGoL06A_14mockall_derive, symObjAddr: 0x60A4, symBinAddr: 0x420D8, symSize: 0x48 }
  - { offset: 0x2B081, size: 0x8, addend: 0x0, symName: __RINvXsh_NtCse1nGBsou5OW_5alloc3vecINtB6_3VecNtCs3cP53eQoTwO_11proc_macro29TokenTreeEINtNtNtNtCsfvfooZQ3Axs_4core4iter6traits7collect6ExtendBG_E6extendINtNtNtB1r_8adapters7flatten7FlattenINtNtB2t_3map3MapIB2Z_IB2Z_INtNtB2t_3zip3ZipINtNtNtB1t_5slice4iter4IterNtBI_5IdentEIB3H_NtNtCs6IAuOt8vWmF_3syn2ty4TypeEENCNvXs0_NtCs2nm8mGoL06A_14mockall_derive13mock_functionNtB52_6CommonNtNtCs2cqEZUIJimJ_5quote9to_tokens8ToTokens9to_tokenss_0ENCINvXs7_BI_NtBI_11TokenStreamINtB1n_12FromIteratorB77_E9from_iterB3k_E0ENCINvXs6_NtBI_3impNtB8f_11TokenStreamIB7q_B8o_E9from_iterB3f_Es_0EEEB54_, symObjAddr: 0x60EC, symBinAddr: 0x42120, symSize: 0x48 }
  - { offset: 0x2B0D6, size: 0x8, addend: 0x0, symName: __RINvXsh_NtCse1nGBsou5OW_5alloc3vecINtB6_3VecNtCs3cP53eQoTwO_11proc_macro29TokenTreeEINtNtNtNtCsfvfooZQ3Axs_4core4iter6traits7collect6ExtendBG_E6extendINtNtNtB1r_8adapters7flatten7FlattenINtNtB2t_3map3MapIB2Z_IB2Z_INtNtB2t_3zip3ZipINtNtNtB1t_5slice4iter4IterNtBI_5IdentEIB3H_NtNtCs6IAuOt8vWmF_3syn2ty4TypeEENCNvXs1_NtCs2nm8mGoL06A_14mockall_derive13mock_functionNtB52_24CommonExpectationMethodsNtNtCs2cqEZUIJimJ_5quote9to_tokens8ToTokens9to_tokenss_0ENCINvXs7_BI_NtBI_11TokenStreamINtB1n_12FromIteratorB7q_E9from_iterB3k_E0ENCINvXs6_NtBI_3impNtB8y_11TokenStreamIB7J_B8H_E9from_iterB3f_Es_0EEEB54_, symObjAddr: 0x6134, symBinAddr: 0x42168, symSize: 0x48 }
  - { offset: 0x2B12B, size: 0x8, addend: 0x0, symName: __RINvXsh_NtCse1nGBsou5OW_5alloc3vecINtB6_3VecNtCs3cP53eQoTwO_11proc_macro29TokenTreeEINtNtNtNtCsfvfooZQ3Axs_4core4iter6traits7collect6ExtendBG_E6extendINtNtNtB1r_8adapters7flatten7FlattenINtNtB2t_3map3MapIB2Z_IB2Z_INtNtB2t_3zip3ZipINtNtNtB1t_5slice4iter4IterNtBI_5IdentEIB3H_NtNtCs6IAuOt8vWmF_3syn2ty4TypeEENCNvXs3_NtCs2nm8mGoL06A_14mockall_derive13mock_functionNtB52_29ExpectationGuardCommonMethodsNtNtCs2cqEZUIJimJ_5quote9to_tokens8ToTokens9to_tokenss_0ENCINvXs7_BI_NtBI_11TokenStreamINtB1n_12FromIteratorB7v_E9from_iterB3k_E0ENCINvXs6_NtBI_3impNtB8D_11TokenStreamIB7O_B8M_E9from_iterB3f_Es_0EEEB54_, symObjAddr: 0x617C, symBinAddr: 0x421B0, symSize: 0x48 }
  - { offset: 0x2B180, size: 0x8, addend: 0x0, symName: __RINvXsh_NtCse1nGBsou5OW_5alloc3vecINtB6_3VecNtCs3cP53eQoTwO_11proc_macro29TokenTreeEINtNtNtNtCsfvfooZQ3Axs_4core4iter6traits7collect6ExtendBG_E6extendINtNtNtB1r_8adapters7flatten7FlattenINtNtB2t_3map3MapIB2Z_IB2Z_INtNtB2t_3zip3ZipINtNtNtB1t_5slice4iter4IterNtNtCs6IAuOt8vWmF_3syn3pat3PatEIB3H_NtBI_5IdentEENCNvXs0_NtCs2nm8mGoL06A_14mockall_derive13mock_functionNtB52_6CommonNtNtCs2cqEZUIJimJ_5quote9to_tokens8ToTokens9to_tokenss0_0ENCINvXs7_BI_NtBI_11TokenStreamINtB1n_12FromIteratorB78_E9from_iterB3k_E0ENCINvXs6_NtBI_3impNtB8g_11TokenStreamIB7r_B8p_E9from_iterB3f_Es_0EEEB54_, symObjAddr: 0x61C4, symBinAddr: 0x421F8, symSize: 0x48 }
  - { offset: 0x2B1D5, size: 0x8, addend: 0x0, symName: __RINvXsh_NtCse1nGBsou5OW_5alloc3vecINtB6_3VecNtCs3cP53eQoTwO_11proc_macro29TokenTreeEINtNtNtNtCsfvfooZQ3Axs_4core4iter6traits7collect6ExtendBG_E6extendINtNtNtB1r_8adapters7flatten7FlattenINtNtB2t_3map3MapIB2Z_IB2Z_INtNtB2t_3zip3ZipINtNtNtB1t_5slice4iter4IterNtNtCs6IAuOt8vWmF_3syn3pat3PatEIB3H_NtBI_5IdentEENCNvXs1_NtCs2nm8mGoL06A_14mockall_derive13mock_functionNtB52_24CommonExpectationMethodsNtNtCs2cqEZUIJimJ_5quote9to_tokens8ToTokens9to_tokenss0_0ENCINvXs7_BI_NtBI_11TokenStreamINtB1n_12FromIteratorB7r_E9from_iterB3k_E0ENCINvXs6_NtBI_3impNtB8z_11TokenStreamIB7K_B8I_E9from_iterB3f_Es_0EEEB54_, symObjAddr: 0x620C, symBinAddr: 0x42240, symSize: 0x48 }
  - { offset: 0x2B22A, size: 0x8, addend: 0x0, symName: __RINvXsh_NtCse1nGBsou5OW_5alloc3vecINtB6_3VecNtCs3cP53eQoTwO_11proc_macro29TokenTreeEINtNtNtNtCsfvfooZQ3Axs_4core4iter6traits7collect6ExtendBG_E6extendINtNtNtB1r_8adapters7flatten7FlattenINtNtB2t_3map3MapIB2Z_IB2Z_INtNtB2t_3zip3ZipINtNtNtB1t_5slice4iter4IterNtNtCs6IAuOt8vWmF_3syn3pat3PatEIB3H_NtBI_5IdentEENCNvXs3_NtCs2nm8mGoL06A_14mockall_derive13mock_functionNtB52_29ExpectationGuardCommonMethodsNtNtCs2cqEZUIJimJ_5quote9to_tokens8ToTokens9to_tokenss0_0ENCINvXs7_BI_NtBI_11TokenStreamINtB1n_12FromIteratorB7w_E9from_iterB3k_E0ENCINvXs6_NtBI_3impNtB8E_11TokenStreamIB7P_B8N_E9from_iterB3f_Es_0EEEB54_, symObjAddr: 0x6254, symBinAddr: 0x42288, symSize: 0x48 }
  - { offset: 0x2B27F, size: 0x8, addend: 0x0, symName: __RINvXsh_NtCse1nGBsou5OW_5alloc3vecINtB6_3VecNtCs3cP53eQoTwO_11proc_macro29TokenTreeEINtNtNtNtCsfvfooZQ3Axs_4core4iter6traits7collect6ExtendBG_E6extendINtNtNtB1r_8adapters7flatten7FlattenINtNtB2t_3map3MapIB2Z_IB2Z_INtNtB2t_9enumerate9EnumerateINtNtNtB1t_5slice4iter4IterNtNtCs6IAuOt8vWmF_3syn3pat3PatEENCNvXs7_NtCs2nm8mGoL06A_14mockall_derive13mock_functionNtB4X_7MatcherNtNtCs2cqEZUIJimJ_5quote9to_tokens8ToTokens9to_tokenss0_0ENCINvXs7_BI_NtBI_11TokenStreamINtB1n_12FromIteratorB74_E9from_iterB3k_E0ENCINvXs6_NtBI_3impNtB8c_11TokenStreamIB7n_B8l_E9from_iterB3f_Es_0EEEB4Z_, symObjAddr: 0x629C, symBinAddr: 0x422D0, symSize: 0x48 }
  - { offset: 0x2B2D4, size: 0x8, addend: 0x0, symName: __RINvXsh_NtCse1nGBsou5OW_5alloc3vecINtB6_3VecNtCs3cP53eQoTwO_11proc_macro29TokenTreeEINtNtNtNtCsfvfooZQ3Axs_4core4iter6traits7collect6ExtendBG_E6extendINtNtNtB1r_8adapters7flatten7FlattenINtNtB2t_3map3MapIB2Z_IB2Z_INtNtNtB1t_5slice4iter4IterNtNtCs6IAuOt8vWmF_3syn2ty4TypeENCNvXs7_NtCs2nm8mGoL06A_14mockall_derive13mock_functionNtB4t_7MatcherNtNtCs2cqEZUIJimJ_5quote9to_tokens8ToTokens9to_tokenss1_0ENCINvXs7_BI_NtBI_11TokenStreamINtB1n_12FromIteratorB6A_E9from_iterB3k_E0ENCINvXs6_NtBI_3impNtB7I_11TokenStreamIB6T_B7R_E9from_iterB3f_Es_0EEEB4v_, symObjAddr: 0x62E4, symBinAddr: 0x42318, symSize: 0x48 }
  - { offset: 0x2B329, size: 0x8, addend: 0x0, symName: __RINvXsh_NtCse1nGBsou5OW_5alloc3vecINtB6_3VecNtCs3cP53eQoTwO_11proc_macro29TokenTreeEINtNtNtNtCsfvfooZQ3Axs_4core4iter6traits7collect6ExtendBG_E6extendINtNtNtB1r_8adapters7flatten7FlattenINtNtB2t_3map3MapIB2Z_IB2Z_INtNtNtB1t_5slice4iter4IterNtNtCs6IAuOt8vWmF_3syn3pat3PatENCNvXs0_NtCs2nm8mGoL06A_14mockall_derive13mock_functionNtB4t_6CommonNtNtCs2cqEZUIJimJ_5quote9to_tokens8ToTokens9to_tokenss1_0ENCINvXs7_BI_NtBI_11TokenStreamINtB1n_12FromIteratorB6z_E9from_iterB3k_E0ENCINvXs6_NtBI_3impNtB7H_11TokenStreamIB6S_B7Q_E9from_iterB3f_Es_0EEEB4v_, symObjAddr: 0x632C, symBinAddr: 0x42360, symSize: 0x48 }
  - { offset: 0x2B37E, size: 0x8, addend: 0x0, symName: __RINvXsh_NtCse1nGBsou5OW_5alloc3vecINtB6_3VecNtNtCs6IAuOt8vWmF_3syn4attr9AttributeEINtNtNtNtCsfvfooZQ3Axs_4core4iter6traits7collect6ExtendBG_E6extendINtNtNtB1p_8adapters6cloned6ClonedINtNtNtB1r_5slice4iter4IterBG_EEECs2nm8mGoL06A_14mockall_derive, symObjAddr: 0x6374, symBinAddr: 0x423A8, symSize: 0x60 }
  - { offset: 0x2B3D2, size: 0x8, addend: 0x0, symName: __RINvXsh_NtCse1nGBsou5OW_5alloc3vecINtB6_3VecNtNtCs6IAuOt8vWmF_3syn8generics12GenericParamEINtNtNtNtCsfvfooZQ3Axs_4core4iter6traits7collect6ExtendBG_E6extendINtNtB1z_6option6OptionBG_EECs2nm8mGoL06A_14mockall_derive, symObjAddr: 0x63D4, symBinAddr: 0x42408, symSize: 0x50 }
  - { offset: 0x2B427, size: 0x8, addend: 0x0, symName: __RINvXsh_NtCse1nGBsou5OW_5alloc3vecINtB6_3VecNtNtCs6IAuOt8vWmF_3syn8generics12GenericParamEINtNtNtNtCsfvfooZQ3Axs_4core4iter6traits7collect6ExtendBG_E6extendINtNtNtB1x_8adapters3map3MapINtNtB6_9into_iter8IntoIterTBG_NtNtBK_5token5CommaEENCNvXs8_NtBK_10punctuatedINtB3U_10PunctuatedBG_B3r_ENtB1t_12IntoIterator9into_iter0EECs2nm8mGoL06A_14mockall_derive, symObjAddr: 0x6424, symBinAddr: 0x42458, symSize: 0x48 }
  - { offset: 0x2B47C, size: 0x8, addend: 0x0, symName: __RINvXsh_NtCse1nGBsou5OW_5alloc3vecINtB6_3VecNtNtCs6IAuOt8vWmF_3syn8generics13LifetimeParamEINtNtNtNtCsfvfooZQ3Axs_4core4iter6traits7collect6ExtendBG_E6extendINtNtB1A_6option6OptionBG_EECs2nm8mGoL06A_14mockall_derive, symObjAddr: 0x646C, symBinAddr: 0x424A0, symSize: 0x48 }
  - { offset: 0x2B4D1, size: 0x8, addend: 0x0, symName: __RINvXsh_NtCse1nGBsou5OW_5alloc3vecINtB6_3VecNtNtCs6IAuOt8vWmF_3syn8generics13LifetimeParamEINtNtNtNtCsfvfooZQ3Axs_4core4iter6traits7collect6ExtendBG_E6extendINtNtNtB1y_8adapters3map3MapINtNtB6_9into_iter8IntoIterTBG_NtNtBK_5token5CommaEENCNvXs8_NtBK_10punctuatedINtB3V_10PunctuatedBG_B3s_ENtB1u_12IntoIterator9into_iter0EECs2nm8mGoL06A_14mockall_derive, symObjAddr: 0x64B4, symBinAddr: 0x424E8, symSize: 0x48 }
  - { offset: 0x2B531, size: 0x8, addend: 0x0, symName: __RNCINvMsi_NtCse1nGBsou5OW_5alloc3vecINtB8_3VecNtCs3cP53eQoTwO_11proc_macro211TokenStreamE14extend_trustedINtNtNtNtCsfvfooZQ3Axs_4core4iter8adapters3map3MapINtNtNtB1O_5slice4iter4IterNtNtCs2nm8mGoL06A_14mockall_derive10mock_trait9MockTraitENCNvXs1_NtB2Y_16mock_item_structNtB3X_14MockItemStructNtNtCs2cqEZUIJimJ_5quote9to_tokens8ToTokens9to_tokenssa_0EE0B2Y_, symObjAddr: 0x64FC, symBinAddr: 0x42530, symSize: 0x3C }
  - { offset: 0x2B5E6, size: 0x8, addend: 0x0, symName: __RNCINvMsi_NtCse1nGBsou5OW_5alloc3vecINtB8_3VecNtCs3cP53eQoTwO_11proc_macro211TokenStreamE14extend_trustedINtNtNtNtCsfvfooZQ3Axs_4core4iter8adapters3map3MapINtNtNtB1O_5slice4iter4IterNtNtCs2nm8mGoL06A_14mockall_derive13mock_function12MockFunctionENCNvMNtB2Y_10mock_traitNtB41_9MockTrait10trait_impl0EE0B2Y_, symObjAddr: 0x6538, symBinAddr: 0x4256C, symSize: 0x3C }
  - { offset: 0x2B69B, size: 0x8, addend: 0x0, symName: __RNCINvMsi_NtCse1nGBsou5OW_5alloc3vecINtB8_3VecNtCs3cP53eQoTwO_11proc_macro211TokenStreamE14extend_trustedINtNtNtNtCsfvfooZQ3Axs_4core4iter8adapters3map3MapINtNtNtB1O_5slice4iter4IterNtNtCs2nm8mGoL06A_14mockall_derive13mock_function12MockFunctionENCNvMNtB2Y_16mock_item_structNtB41_7Methods9priv_mods0EE0B2Y_, symObjAddr: 0x6574, symBinAddr: 0x425A8, symSize: 0x3C }
  - { offset: 0x2B750, size: 0x8, addend: 0x0, symName: __RNCINvMsi_NtCse1nGBsou5OW_5alloc3vecINtB8_3VecNtCs3cP53eQoTwO_11proc_macro211TokenStreamE14extend_trustedINtNtNtNtCsfvfooZQ3Axs_4core4iter8adapters3map3MapINtNtNtB1O_5slice4iter4IterNtNtCs2nm8mGoL06A_14mockall_derive13mock_function12MockFunctionENCNvXs1_NtB2Y_16mock_item_structNtB44_14MockItemStructNtNtCs2cqEZUIJimJ_5quote9to_tokens8ToTokens9to_tokens0EE0B2Y_, symObjAddr: 0x65B0, symBinAddr: 0x425E4, symSize: 0x3C }
  - { offset: 0x2B805, size: 0x8, addend: 0x0, symName: __RNCINvMsi_NtCse1nGBsou5OW_5alloc3vecINtB8_3VecNtCs3cP53eQoTwO_11proc_macro25IdentE14extend_trustedINtNtNtNtCsfvfooZQ3Axs_4core4iter8adapters3map3MapINtNtNtB1H_3ops5range5RangejENCNvXs0_NtCs2nm8mGoL06A_14mockall_derive13mock_functionNtB2X_6CommonNtNtCs2cqEZUIJimJ_5quote9to_tokens8ToTokens9to_tokens0EE0B2Z_, symObjAddr: 0x65EC, symBinAddr: 0x42620, symSize: 0x44 }
  - { offset: 0x2B8B2, size: 0x8, addend: 0x0, symName: __RNCINvMsi_NtCse1nGBsou5OW_5alloc3vecINtB8_3VecNtCs3cP53eQoTwO_11proc_macro25IdentE14extend_trustedINtNtNtNtCsfvfooZQ3Axs_4core4iter8adapters3map3MapINtNtNtB1H_3ops5range5RangejENCNvXs1_NtCs2nm8mGoL06A_14mockall_derive13mock_functionNtB2X_24CommonExpectationMethodsNtNtCs2cqEZUIJimJ_5quote9to_tokens8ToTokens9to_tokens0EE0B2Z_, symObjAddr: 0x6630, symBinAddr: 0x42664, symSize: 0x44 }
  - { offset: 0x2B95F, size: 0x8, addend: 0x0, symName: __RNCINvMsi_NtCse1nGBsou5OW_5alloc3vecINtB8_3VecNtCs3cP53eQoTwO_11proc_macro25IdentE14extend_trustedINtNtNtNtCsfvfooZQ3Axs_4core4iter8adapters3map3MapINtNtNtB1H_3ops5range5RangejENCNvXs3_NtCs2nm8mGoL06A_14mockall_derive13mock_functionNtB2X_29ExpectationGuardCommonMethodsNtNtCs2cqEZUIJimJ_5quote9to_tokens8ToTokens9to_tokens0EE0B2Z_, symObjAddr: 0x6674, symBinAddr: 0x426A8, symSize: 0x44 }
  - { offset: 0x2BA0C, size: 0x8, addend: 0x0, symName: __RNCINvMsi_NtCse1nGBsou5OW_5alloc3vecINtB8_3VecNtNtCs2nm8mGoL06A_14mockall_derive10mock_trait9MockTraitE14extend_trustedINtNtNtNtCsfvfooZQ3Axs_4core4iter8adapters3map3MapINtNtB8_9into_iter8IntoIterNtNtCs6IAuOt8vWmF_3syn4item8ItemImplENCNvXs0_NtBM_16mock_item_structNtB3R_14MockItemStructINtNtB22_7convert4FromNtNtBM_15mockable_struct14MockableStructE4froms1_0EE0BM_, symObjAddr: 0x66B8, symBinAddr: 0x426EC, symSize: 0x54 }
  - { offset: 0x2BACA, size: 0x8, addend: 0x0, symName: __RNCINvMsi_NtCse1nGBsou5OW_5alloc3vecINtB8_3VecNtNtCs2nm8mGoL06A_14mockall_derive13mock_function12MockFunctionE14extend_trustedINtNtNtNtCsfvfooZQ3Axs_4core4iter8adapters3map3MapINtNtB8_9into_iter8IntoIterNtNtCs6IAuOt8vWmF_3syn4item10ImplItemFnENCNvXs0_NtBM_16mock_item_structNtB41_14MockItemStructINtNtB29_7convert4FromNtNtBM_15mockable_struct14MockableStructE4froms0_0EE0BM_, symObjAddr: 0x670C, symBinAddr: 0x42740, symSize: 0x54 }
  - { offset: 0x2BB88, size: 0x8, addend: 0x0, symName: __RNCINvMsi_NtCse1nGBsou5OW_5alloc3vecINtB8_3VecNtNtCs6IAuOt8vWmF_3syn4attr9AttributeE14extend_trustedINtNtNtNtCsfvfooZQ3Axs_4core4iter8adapters6cloned6ClonedINtNtNtB1J_5slice4iter4IterBI_EEE0Cs2nm8mGoL06A_14mockall_derive, symObjAddr: 0x6760, symBinAddr: 0x42794, symSize: 0x4C }
  - { offset: 0x2BC46, size: 0x8, addend: 0x0, symName: __RNCINvMsi_NtCse1nGBsou5OW_5alloc3vecINtB8_3VecNtNtCs6IAuOt8vWmF_3syn4expr5IndexE14extend_trustedINtNtNtNtCsfvfooZQ3Axs_4core4iter8adapters3map3MapINtNtNtB1F_3ops5range5RangejENCNvXs7_NtCs2nm8mGoL06A_14mockall_derive13mock_functionNtB2V_7MatcherNtNtCs2cqEZUIJimJ_5quote9to_tokens8ToTokens9to_tokenss_0EE0B2X_, symObjAddr: 0x67AC, symBinAddr: 0x427E0, symSize: 0x3C }
  - { offset: 0x2BD03, size: 0x8, addend: 0x0, symName: __RNCINvMsi_NtCse1nGBsou5OW_5alloc3vecINtB8_3VecNtNtCs6IAuOt8vWmF_3syn4item8ImplItemE14extend_trustedINtNtNtNtCsfvfooZQ3Axs_4core4iter8adapters3map3MapINtNtB8_9into_iter8IntoIterNtBK_9TraitItemENCNvNtCs2nm8mGoL06A_14mockall_derive15mockable_struct14mockable_trait0EE0B3a_, symObjAddr: 0x67E8, symBinAddr: 0x4281C, symSize: 0x54 }
  - { offset: 0x2BDC1, size: 0x8, addend: 0x0, symName: __RNCINvMsi_NtCse1nGBsou5OW_5alloc3vecINtB8_3VecNtNtCs6IAuOt8vWmF_3syn8generics12GenericParamE14extend_trustedINtNtCsfvfooZQ3Axs_4core6option8IntoIterBI_EE0Cs2nm8mGoL06A_14mockall_derive, symObjAddr: 0x683C, symBinAddr: 0x42870, symSize: 0x54 }
  - { offset: 0x2BE7F, size: 0x8, addend: 0x0, symName: __RNCINvMsi_NtCse1nGBsou5OW_5alloc3vecINtB8_3VecNtNtCs6IAuOt8vWmF_3syn8generics12GenericParamE14extend_trustedINtNtNtNtCsfvfooZQ3Axs_4core4iter8adapters3map3MapINtNtB8_9into_iter8IntoIterTBI_NtNtBM_5token5CommaEENCNvXs8_NtBM_10punctuatedINtB3u_10PunctuatedBI_B31_ENtNtNtB1P_6traits7collect12IntoIterator9into_iter0EE0Cs2nm8mGoL06A_14mockall_derive, symObjAddr: 0x6890, symBinAddr: 0x428C4, symSize: 0x54 }
  - { offset: 0x2BF3D, size: 0x8, addend: 0x0, symName: __RNCINvMsi_NtCse1nGBsou5OW_5alloc3vecINtB8_3VecNtNtCs6IAuOt8vWmF_3syn8generics13LifetimeParamE14extend_trustedINtNtCsfvfooZQ3Axs_4core6option8IntoIterBI_EE0Cs2nm8mGoL06A_14mockall_derive, symObjAddr: 0x68E4, symBinAddr: 0x42918, symSize: 0x54 }
  - { offset: 0x2BFFB, size: 0x8, addend: 0x0, symName: __RNCINvMsi_NtCse1nGBsou5OW_5alloc3vecINtB8_3VecNtNtCs6IAuOt8vWmF_3syn8generics13LifetimeParamE14extend_trustedINtNtNtNtCsfvfooZQ3Axs_4core4iter8adapters3map3MapINtNtB8_9into_iter8IntoIterTBI_NtNtBM_5token5CommaEENCNvXs8_NtBM_10punctuatedINtB3v_10PunctuatedBI_B32_ENtNtNtB1Q_6traits7collect12IntoIterator9into_iter0EE0Cs2nm8mGoL06A_14mockall_derive, symObjAddr: 0x6938, symBinAddr: 0x4296C, symSize: 0x54 }
  - { offset: 0x2C5C5, size: 0x8, addend: 0x0, symName: __RNvXNtNtCse1nGBsou5OW_5alloc3vec11spec_extendINtB4_3VecNtCs3cP53eQoTwO_11proc_macro211TokenStreamEINtB2_10SpecExtendBR_INtNtNtNtCsfvfooZQ3Axs_4core4iter8adapters10filter_map9FilterMapINtNtB1Y_9enumerate9EnumerateINtNtCs6IAuOt8vWmF_3syn10punctuated4IterNtNtB3t_8generics12GenericParamEENCNvNtCs2nm8mGoL06A_14mockall_derive16mock_item_struct14phantom_fields0EE11spec_extendB4F_, symObjAddr: 0x9084, symBinAddr: 0x450B8, symSize: 0x24 }
  - { offset: 0x2C617, size: 0x8, addend: 0x0, symName: __RNvXNtNtCse1nGBsou5OW_5alloc3vec11spec_extendINtB4_3VecNtCs3cP53eQoTwO_11proc_macro211TokenStreamEINtB2_10SpecExtendBR_INtNtNtNtCsfvfooZQ3Axs_4core4iter8adapters10filter_map9FilterMapINtNtCs6IAuOt8vWmF_3syn10punctuated4IterNtNtB30_4item5FnArgENCNvCs2nm8mGoL06A_14mockall_derive11declosurefys3_0EE11spec_extendB3X_, symObjAddr: 0x90A8, symBinAddr: 0x450DC, symSize: 0x24 }
  - { offset: 0x2C669, size: 0x8, addend: 0x0, symName: __RNvXNtNtCse1nGBsou5OW_5alloc3vec11spec_extendINtB4_3VecNtCs3cP53eQoTwO_11proc_macro211TokenStreamEINtB2_10SpecExtendBR_INtNtNtNtCsfvfooZQ3Axs_4core4iter8adapters10filter_map9FilterMapINtNtCs6IAuOt8vWmF_3syn10punctuated4IterNtNtB30_4item5FnArgENCNvCs2nm8mGoL06A_14mockall_derive15concretize_argss0_0EE11spec_extendB3X_, symObjAddr: 0x90CC, symBinAddr: 0x45100, symSize: 0x24 }
  - { offset: 0x2C6BB, size: 0x8, addend: 0x0, symName: __RNvXNtNtCse1nGBsou5OW_5alloc3vec11spec_extendINtB4_3VecNtCs3cP53eQoTwO_11proc_macro211TokenStreamEINtB2_10SpecExtendBR_INtNtNtNtCsfvfooZQ3Axs_4core4iter8adapters3map3MapINtNtB1Y_6filter6FilterINtNtNtB22_5slice4iter4IterNtNtCs2nm8mGoL06A_14mockall_derive13mock_function12MockFunctionENCNvMNtB3z_10mock_traitNtB4C_9MockTrait10trait_impls1_0ENCB4z_s2_0EE11spec_extendB3z_, symObjAddr: 0x90F0, symBinAddr: 0x45124, symSize: 0x24 }
  - { offset: 0x2C70D, size: 0x8, addend: 0x0, symName: __RNvXNtNtCse1nGBsou5OW_5alloc3vec11spec_extendINtB4_3VecNtCs3cP53eQoTwO_11proc_macro211TokenStreamEINtB2_10SpecExtendBR_INtNtNtNtCsfvfooZQ3Axs_4core4iter8adapters3map3MapINtNtB1Y_6filter6FilterINtNtNtB22_5slice4iter4IterNtNtCs2nm8mGoL06A_14mockall_derive13mock_function12MockFunctionENCNvMNtB3z_10mock_traitNtB4C_9MockTrait10trait_impls_0ENCB4z_s0_0EE11spec_extendB3z_, symObjAddr: 0x9114, symBinAddr: 0x45148, symSize: 0x24 }
  - { offset: 0x2C75F, size: 0x8, addend: 0x0, symName: __RNvXNtNtCse1nGBsou5OW_5alloc3vec11spec_extendINtB4_3VecNtCs3cP53eQoTwO_11proc_macro211TokenStreamEINtB2_10SpecExtendBR_INtNtNtNtCsfvfooZQ3Axs_4core4iter8adapters3map3MapINtNtB1Y_6filter6FilterINtNtNtB22_5slice4iter4IterNtNtCs2nm8mGoL06A_14mockall_derive13mock_function12MockFunctionENCNvMNtB3z_16mock_item_structNtB4C_7Methods11checkpoints0ENCB4z_s_0EE11spec_extendB3z_, symObjAddr: 0x9138, symBinAddr: 0x4516C, symSize: 0x34 }
  - { offset: 0x2C7B0, size: 0x8, addend: 0x0, symName: __RNvXNtNtCse1nGBsou5OW_5alloc3vec11spec_extendINtB4_3VecNtCs3cP53eQoTwO_11proc_macro211TokenStreamEINtB2_10SpecExtendBR_INtNtNtNtCsfvfooZQ3Axs_4core4iter8adapters3map3MapINtNtB1Y_6filter6FilterINtNtNtB22_5slice4iter4IterNtNtCs2nm8mGoL06A_14mockall_derive13mock_function12MockFunctionENCNvMNtB3z_16mock_item_structNtB4C_7Methods13default_inits0ENCB4z_s_0EE11spec_extendB3z_, symObjAddr: 0x916C, symBinAddr: 0x451A0, symSize: 0x34 }
  - { offset: 0x2C801, size: 0x8, addend: 0x0, symName: __RNvXNtNtCse1nGBsou5OW_5alloc3vec11spec_extendINtB4_3VecNtCs3cP53eQoTwO_11proc_macro211TokenStreamEINtB2_10SpecExtendBR_INtNtNtNtCsfvfooZQ3Axs_4core4iter8adapters3map3MapINtNtB1Y_6filter6FilterINtNtNtB22_5slice4iter4IterNtNtCs2nm8mGoL06A_14mockall_derive13mock_function12MockFunctionENCNvMNtB3z_16mock_item_structNtB4C_7Methods17field_definitions0ENCB4z_s_0EE11spec_extendB3z_, symObjAddr: 0x91A0, symBinAddr: 0x451D4, symSize: 0x24 }
  - { offset: 0x2C853, size: 0x8, addend: 0x0, symName: __RNvXNtNtCse1nGBsou5OW_5alloc3vec11spec_extendINtB4_3VecNtCs3cP53eQoTwO_11proc_macro211TokenStreamEINtB2_10SpecExtendBR_INtNtNtNtCsfvfooZQ3Axs_4core4iter8adapters3map3MapINtNtB1Y_6filter6FilterINtNtNtB22_5slice4iter4IterNtNtCs2nm8mGoL06A_14mockall_derive13mock_function12MockFunctionENCNvXs1_NtB3z_16mock_item_structNtB4F_14MockItemStructNtNtCs2cqEZUIJimJ_5quote9to_tokens8ToTokens9to_tokenss1_0ENCB4z_s2_0EE11spec_extendB3z_, symObjAddr: 0x91C4, symBinAddr: 0x451F8, symSize: 0x24 }
  - { offset: 0x2C8A5, size: 0x8, addend: 0x0, symName: __RNvXNtNtCse1nGBsou5OW_5alloc3vec11spec_extendINtB4_3VecNtCs3cP53eQoTwO_11proc_macro211TokenStreamEINtB2_10SpecExtendBR_INtNtNtNtCsfvfooZQ3Axs_4core4iter8adapters3map3MapINtNtB1Y_6filter6FilterINtNtNtB22_5slice4iter4IterNtNtCs2nm8mGoL06A_14mockall_derive13mock_function12MockFunctionENCNvXs1_NtB3z_16mock_item_structNtB4F_14MockItemStructNtNtCs2cqEZUIJimJ_5quote9to_tokens8ToTokens9to_tokenss_0ENCB4z_s0_0EE11spec_extendB3z_, symObjAddr: 0x91E8, symBinAddr: 0x4521C, symSize: 0x24 }
  - { offset: 0x2C8F7, size: 0x8, addend: 0x0, symName: __RNvXNtNtCse1nGBsou5OW_5alloc3vec11spec_extendINtB4_3VecNtCs3cP53eQoTwO_11proc_macro211TokenStreamEINtB2_10SpecExtendBR_INtNtNtNtCsfvfooZQ3Axs_4core4iter8adapters3map3MapINtNtB1Y_6filter6FilterINtNtNtB22_5slice4iter4IterNtNtCs2nm8mGoL06A_14mockall_derive16mock_item_struct17MockItemTraitImplENCNvXs1_B3x_NtB3x_14MockItemStructNtNtCs2cqEZUIJimJ_5quote9to_tokens8ToTokens9to_tokenss4_0ENCB4H_s5_0EE11spec_extendB3z_, symObjAddr: 0x920C, symBinAddr: 0x45240, symSize: 0x34 }
  - { offset: 0x2C948, size: 0x8, addend: 0x0, symName: __RNvXNtNtCse1nGBsou5OW_5alloc3vec11spec_extendINtB4_3VecNtCs3cP53eQoTwO_11proc_macro211TokenStreamEINtB2_10SpecExtendBR_INtNtNtNtCsfvfooZQ3Axs_4core4iter8adapters3map3MapINtNtB1Y_6filter6FilterINtNtNtB22_5slice4iter4IterNtNtCs2nm8mGoL06A_14mockall_derive16mock_item_struct17MockItemTraitImplENCNvXs1_B3x_NtB3x_14MockItemStructNtNtCs2cqEZUIJimJ_5quote9to_tokens8ToTokens9to_tokenss6_0ENCB4H_s7_0EE11spec_extendB3z_, symObjAddr: 0x9240, symBinAddr: 0x45274, symSize: 0x24 }
  - { offset: 0x2C99A, size: 0x8, addend: 0x0, symName: __RNvXNtNtCse1nGBsou5OW_5alloc3vec11spec_extendINtB4_3VecNtCs3cP53eQoTwO_11proc_macro211TokenStreamEINtB2_10SpecExtendBR_INtNtNtNtCsfvfooZQ3Axs_4core4iter8adapters3map3MapINtNtB1Y_6filter6FilterINtNtNtB22_5slice4iter4IterNtNtCs2nm8mGoL06A_14mockall_derive16mock_item_struct17MockItemTraitImplENCNvXs1_B3x_NtB3x_14MockItemStructNtNtCs2cqEZUIJimJ_5quote9to_tokens8ToTokens9to_tokenss8_0ENCB4H_s9_0EE11spec_extendB3z_, symObjAddr: 0x9264, symBinAddr: 0x45298, symSize: 0x34 }
  - { offset: 0x2C9EB, size: 0x8, addend: 0x0, symName: __RNvXNtNtCse1nGBsou5OW_5alloc3vec11spec_extendINtB4_3VecNtCs3cP53eQoTwO_11proc_macro211TokenStreamEINtB2_10SpecExtendBR_INtNtNtNtCsfvfooZQ3Axs_4core4iter8adapters3map3MapINtNtB1Y_9enumerate9EnumerateINtNtCs6IAuOt8vWmF_3syn10punctuated4IterNtNtB3f_8generics12GenericParamEENCNvNtCs2nm8mGoL06A_14mockall_derive16mock_item_struct21phantom_default_inits0EE11spec_extendB4r_, symObjAddr: 0x9298, symBinAddr: 0x452CC, symSize: 0x24 }
  - { offset: 0x2CA3D, size: 0x8, addend: 0x0, symName: __RNvXNtNtCse1nGBsou5OW_5alloc3vec11spec_extendINtB4_3VecNtCs3cP53eQoTwO_11proc_macro25IdentEINtB2_10SpecExtendBR_INtNtNtNtCsfvfooZQ3Axs_4core4iter8adapters3map3MapNtNtCs6IAuOt8vWmF_3syn8generics10TypeParamsNCNvMNtCs2nm8mGoL06A_14mockall_derive13mock_functionNtB3m_7Builder5builds_0EE11spec_extendB3o_, symObjAddr: 0x92BC, symBinAddr: 0x452F0, symSize: 0x34 }
  - { offset: 0x2CA8E, size: 0x8, addend: 0x0, symName: __RNvXNtNtCse1nGBsou5OW_5alloc3vec11spec_extendINtB4_3VecNtCs3cP53eQoTwO_11proc_macro29TokenTreeEINtB2_10SpecExtendBR_INtNtNtNtCsfvfooZQ3Axs_4core4iter8adapters7flatten7FlattenINtNtB1V_3map3MapIB2N_IB2N_INtNtB1V_3zip3ZipINtNtNtB1Z_5slice4iter4IterNtBT_5IdentEIB3v_NtNtCs6IAuOt8vWmF_3syn2ty4TypeEENCNvXs0_NtCs2nm8mGoL06A_14mockall_derive13mock_functionNtB4Q_6CommonNtNtCs2cqEZUIJimJ_5quote9to_tokens8ToTokens9to_tokenss_0ENCINvXs7_BT_NtBT_11TokenStreamINtNtNtB1X_6traits7collect12FromIteratorB6V_E9from_iterB38_E0ENCINvXs6_NtBT_3impNtB8m_11TokenStreamIB7e_B8v_E9from_iterB33_Es_0EEE11spec_extendB4S_, symObjAddr: 0x92F0, symBinAddr: 0x45324, symSize: 0x24 }
  - { offset: 0x2CAE0, size: 0x8, addend: 0x0, symName: __RNvXNtNtCse1nGBsou5OW_5alloc3vec11spec_extendINtB4_3VecNtCs3cP53eQoTwO_11proc_macro29TokenTreeEINtB2_10SpecExtendBR_INtNtNtNtCsfvfooZQ3Axs_4core4iter8adapters7flatten7FlattenINtNtB1V_3map3MapIB2N_IB2N_INtNtB1V_3zip3ZipINtNtNtB1Z_5slice4iter4IterNtBT_5IdentEIB3v_NtNtCs6IAuOt8vWmF_3syn2ty4TypeEENCNvXs1_NtCs2nm8mGoL06A_14mockall_derive13mock_functionNtB4Q_24CommonExpectationMethodsNtNtCs2cqEZUIJimJ_5quote9to_tokens8ToTokens9to_tokenss_0ENCINvXs7_BT_NtBT_11TokenStreamINtNtNtB1X_6traits7collect12FromIteratorB7e_E9from_iterB38_E0ENCINvXs6_NtBT_3impNtB8F_11TokenStreamIB7x_B8O_E9from_iterB33_Es_0EEE11spec_extendB4S_, symObjAddr: 0x9314, symBinAddr: 0x45348, symSize: 0x24 }
  - { offset: 0x2CB32, size: 0x8, addend: 0x0, symName: __RNvXNtNtCse1nGBsou5OW_5alloc3vec11spec_extendINtB4_3VecNtCs3cP53eQoTwO_11proc_macro29TokenTreeEINtB2_10SpecExtendBR_INtNtNtNtCsfvfooZQ3Axs_4core4iter8adapters7flatten7FlattenINtNtB1V_3map3MapIB2N_IB2N_INtNtB1V_3zip3ZipINtNtNtB1Z_5slice4iter4IterNtBT_5IdentEIB3v_NtNtCs6IAuOt8vWmF_3syn2ty4TypeEENCNvXs3_NtCs2nm8mGoL06A_14mockall_derive13mock_functionNtB4Q_29ExpectationGuardCommonMethodsNtNtCs2cqEZUIJimJ_5quote9to_tokens8ToTokens9to_tokenss_0ENCINvXs7_BT_NtBT_11TokenStreamINtNtNtB1X_6traits7collect12FromIteratorB7j_E9from_iterB38_E0ENCINvXs6_NtBT_3impNtB8K_11TokenStreamIB7C_B8T_E9from_iterB33_Es_0EEE11spec_extendB4S_, symObjAddr: 0x9338, symBinAddr: 0x4536C, symSize: 0x24 }
  - { offset: 0x2CB84, size: 0x8, addend: 0x0, symName: __RNvXNtNtCse1nGBsou5OW_5alloc3vec11spec_extendINtB4_3VecNtCs3cP53eQoTwO_11proc_macro29TokenTreeEINtB2_10SpecExtendBR_INtNtNtNtCsfvfooZQ3Axs_4core4iter8adapters7flatten7FlattenINtNtB1V_3map3MapIB2N_IB2N_INtNtB1V_3zip3ZipINtNtNtB1Z_5slice4iter4IterNtNtCs6IAuOt8vWmF_3syn3pat3PatEIB3v_NtBT_5IdentEENCNvXs0_NtCs2nm8mGoL06A_14mockall_derive13mock_functionNtB4Q_6CommonNtNtCs2cqEZUIJimJ_5quote9to_tokens8ToTokens9to_tokenss0_0ENCINvXs7_BT_NtBT_11TokenStreamINtNtNtB1X_6traits7collect12FromIteratorB6W_E9from_iterB38_E0ENCINvXs6_NtBT_3impNtB8n_11TokenStreamIB7f_B8w_E9from_iterB33_Es_0EEE11spec_extendB4S_, symObjAddr: 0x935C, symBinAddr: 0x45390, symSize: 0x24 }
  - { offset: 0x2CBD6, size: 0x8, addend: 0x0, symName: __RNvXNtNtCse1nGBsou5OW_5alloc3vec11spec_extendINtB4_3VecNtCs3cP53eQoTwO_11proc_macro29TokenTreeEINtB2_10SpecExtendBR_INtNtNtNtCsfvfooZQ3Axs_4core4iter8adapters7flatten7FlattenINtNtB1V_3map3MapIB2N_IB2N_INtNtB1V_3zip3ZipINtNtNtB1Z_5slice4iter4IterNtNtCs6IAuOt8vWmF_3syn3pat3PatEIB3v_NtBT_5IdentEENCNvXs1_NtCs2nm8mGoL06A_14mockall_derive13mock_functionNtB4Q_24CommonExpectationMethodsNtNtCs2cqEZUIJimJ_5quote9to_tokens8ToTokens9to_tokenss0_0ENCINvXs7_BT_NtBT_11TokenStreamINtNtNtB1X_6traits7collect12FromIteratorB7f_E9from_iterB38_E0ENCINvXs6_NtBT_3impNtB8G_11TokenStreamIB7y_B8P_E9from_iterB33_Es_0EEE11spec_extendB4S_, symObjAddr: 0x9380, symBinAddr: 0x453B4, symSize: 0x24 }
  - { offset: 0x2CC28, size: 0x8, addend: 0x0, symName: __RNvXNtNtCse1nGBsou5OW_5alloc3vec11spec_extendINtB4_3VecNtCs3cP53eQoTwO_11proc_macro29TokenTreeEINtB2_10SpecExtendBR_INtNtNtNtCsfvfooZQ3Axs_4core4iter8adapters7flatten7FlattenINtNtB1V_3map3MapIB2N_IB2N_INtNtB1V_3zip3ZipINtNtNtB1Z_5slice4iter4IterNtNtCs6IAuOt8vWmF_3syn3pat3PatEIB3v_NtBT_5IdentEENCNvXs3_NtCs2nm8mGoL06A_14mockall_derive13mock_functionNtB4Q_29ExpectationGuardCommonMethodsNtNtCs2cqEZUIJimJ_5quote9to_tokens8ToTokens9to_tokenss0_0ENCINvXs7_BT_NtBT_11TokenStreamINtNtNtB1X_6traits7collect12FromIteratorB7k_E9from_iterB38_E0ENCINvXs6_NtBT_3impNtB8L_11TokenStreamIB7D_B8U_E9from_iterB33_Es_0EEE11spec_extendB4S_, symObjAddr: 0x93A4, symBinAddr: 0x453D8, symSize: 0x24 }
  - { offset: 0x2CC7A, size: 0x8, addend: 0x0, symName: __RNvXNtNtCse1nGBsou5OW_5alloc3vec11spec_extendINtB4_3VecNtCs3cP53eQoTwO_11proc_macro29TokenTreeEINtB2_10SpecExtendBR_INtNtNtNtCsfvfooZQ3Axs_4core4iter8adapters7flatten7FlattenINtNtB1V_3map3MapIB2N_IB2N_INtNtB1V_9enumerate9EnumerateINtNtNtB1Z_5slice4iter4IterNtNtCs6IAuOt8vWmF_3syn3pat3PatEENCNvXs7_NtCs2nm8mGoL06A_14mockall_derive13mock_functionNtB4L_7MatcherNtNtCs2cqEZUIJimJ_5quote9to_tokens8ToTokens9to_tokenss0_0ENCINvXs7_BT_NtBT_11TokenStreamINtNtNtB1X_6traits7collect12FromIteratorB6S_E9from_iterB38_E0ENCINvXs6_NtBT_3impNtB8j_11TokenStreamIB7b_B8s_E9from_iterB33_Es_0EEE11spec_extendB4N_, symObjAddr: 0x93C8, symBinAddr: 0x453FC, symSize: 0x24 }
  - { offset: 0x2CCCC, size: 0x8, addend: 0x0, symName: __RNvXNtNtCse1nGBsou5OW_5alloc3vec11spec_extendINtB4_3VecNtCs3cP53eQoTwO_11proc_macro29TokenTreeEINtB2_10SpecExtendBR_INtNtNtNtCsfvfooZQ3Axs_4core4iter8adapters7flatten7FlattenINtNtB1V_3map3MapIB2N_IB2N_INtNtNtB1Z_5slice4iter4IterNtNtCs6IAuOt8vWmF_3syn2ty4TypeENCNvXs7_NtCs2nm8mGoL06A_14mockall_derive13mock_functionNtB4h_7MatcherNtNtCs2cqEZUIJimJ_5quote9to_tokens8ToTokens9to_tokenss1_0ENCINvXs7_BT_NtBT_11TokenStreamINtNtNtB1X_6traits7collect12FromIteratorB6o_E9from_iterB38_E0ENCINvXs6_NtBT_3impNtB7P_11TokenStreamIB6H_B7Y_E9from_iterB33_Es_0EEE11spec_extendB4j_, symObjAddr: 0x93EC, symBinAddr: 0x45420, symSize: 0x24 }
  - { offset: 0x2CD1E, size: 0x8, addend: 0x0, symName: __RNvXNtNtCse1nGBsou5OW_5alloc3vec11spec_extendINtB4_3VecNtCs3cP53eQoTwO_11proc_macro29TokenTreeEINtB2_10SpecExtendBR_INtNtNtNtCsfvfooZQ3Axs_4core4iter8adapters7flatten7FlattenINtNtB1V_3map3MapIB2N_IB2N_INtNtNtB1Z_5slice4iter4IterNtNtCs6IAuOt8vWmF_3syn3pat3PatENCNvXs0_NtCs2nm8mGoL06A_14mockall_derive13mock_functionNtB4h_6CommonNtNtCs2cqEZUIJimJ_5quote9to_tokens8ToTokens9to_tokenss1_0ENCINvXs7_BT_NtBT_11TokenStreamINtNtNtB1X_6traits7collect12FromIteratorB6n_E9from_iterB38_E0ENCINvXs6_NtBT_3impNtB7O_11TokenStreamIB6G_B7X_E9from_iterB33_Es_0EEE11spec_extendB4j_, symObjAddr: 0x9410, symBinAddr: 0x45444, symSize: 0x24 }
  - { offset: 0x2CD70, size: 0x8, addend: 0x0, symName: __RNvXNtNtCse1nGBsou5OW_5alloc3vec11spec_extendINtB4_3VecNtNtCs2nm8mGoL06A_14mockall_derive16mock_item_struct17MockItemTraitImplEINtB2_10SpecExtendBR_INtNtNtNtCsfvfooZQ3Axs_4core4iter8adapters3map3MapINtNtB2r_6filter6FilterINtNtNtB2v_5slice4iter4IterNtNtBV_10mock_trait9MockTraitENCINvBT_17unique_trait_iterB3x_E0ENCNvXs1_BT_NtBT_14MockItemStructNtNtCs2cqEZUIJimJ_5quote9to_tokens8ToTokens9to_tokenss3_0EE11spec_extendBV_, symObjAddr: 0x9434, symBinAddr: 0x45468, symSize: 0x24 }
  - { offset: 0x2CDC2, size: 0x8, addend: 0x0, symName: __RNvXNtNtCse1nGBsou5OW_5alloc3vec11spec_extendINtB4_3VecNtNtCs6IAuOt8vWmF_3syn4attr9AttributeEINtB2_10SpecExtendBR_INtNtNtNtCsfvfooZQ3Axs_4core4iter8adapters6cloned6ClonedINtNtB1T_6filter6FilterINtNtNtB1X_5slice4iter4IterBR_ENCNvMCs2nm8mGoL06A_14mockall_deriveNtB3F_13AttrFormatter6format0EEE11spec_extendB3F_, symObjAddr: 0x9458, symBinAddr: 0x4548C, symSize: 0x24 }
  - { offset: 0x2CE14, size: 0x8, addend: 0x0, symName: __RNvXNtNtCse1nGBsou5OW_5alloc3vec11spec_extendINtB4_3VecNtNtCs6IAuOt8vWmF_3syn4item5FnArgEINtB2_10SpecExtendBR_INtNtNtNtCsfvfooZQ3Axs_4core4iter8adapters3map3MapINtNtBV_10punctuated4IterBR_ENCNvCs2nm8mGoL06A_14mockall_derive11declosurefys2_0EE11spec_extendB35_, symObjAddr: 0x947C, symBinAddr: 0x454B0, symSize: 0x24 }
  - { offset: 0x2CE66, size: 0x8, addend: 0x0, symName: __RNvXNtNtCse1nGBsou5OW_5alloc3vec11spec_extendINtB4_3VecNtNtCs6IAuOt8vWmF_3syn4item5FnArgEINtB2_10SpecExtendBR_INtNtNtNtCsfvfooZQ3Axs_4core4iter8adapters3map3MapINtNtBV_10punctuated4IterBR_ENCNvCs2nm8mGoL06A_14mockall_derive15concretize_argss_0EE11spec_extendB35_, symObjAddr: 0x94A0, symBinAddr: 0x454D4, symSize: 0x24 }
  - { offset: 0x2CEBE, size: 0x8, addend: 0x0, symName: __RNvXs0_NtNtCse1nGBsou5OW_5alloc3vec11spec_extendINtB7_3VecNtCs3cP53eQoTwO_11proc_macro211TokenStreamEINtB5_10SpecExtendBU_INtNtB7_9into_iter8IntoIterBU_EE11spec_extendCs2nm8mGoL06A_14mockall_derive, symObjAddr: 0xC048, symBinAddr: 0x4807C, symSize: 0x98 }
  - { offset: 0x2CF2A, size: 0x8, addend: 0x0, symName: __RNvXs_NtNtCse1nGBsou5OW_5alloc3vec11spec_extendINtB6_3VecNtCs3cP53eQoTwO_11proc_macro211TokenStreamEINtB4_10SpecExtendBT_INtNtNtNtCsfvfooZQ3Axs_4core4iter8adapters3map3MapINtNtNtB24_5slice4iter4IterNtNtCs2nm8mGoL06A_14mockall_derive10mock_trait9MockTraitENCNvXs1_NtB3e_16mock_item_structNtB4d_14MockItemStructNtNtCs2cqEZUIJimJ_5quote9to_tokens8ToTokens9to_tokenssa_0EE11spec_extendB3e_, symObjAddr: 0xC98C, symBinAddr: 0x489C0, symSize: 0x24 }
  - { offset: 0x2CF7C, size: 0x8, addend: 0x0, symName: __RNvXs_NtNtCse1nGBsou5OW_5alloc3vec11spec_extendINtB6_3VecNtCs3cP53eQoTwO_11proc_macro211TokenStreamEINtB4_10SpecExtendBT_INtNtNtNtCsfvfooZQ3Axs_4core4iter8adapters3map3MapINtNtNtB24_5slice4iter4IterNtNtCs2nm8mGoL06A_14mockall_derive13mock_function12MockFunctionENCNvMNtB3e_10mock_traitNtB4h_9MockTrait10trait_impl0EE11spec_extendB3e_, symObjAddr: 0xC9B0, symBinAddr: 0x489E4, symSize: 0x24 }
  - { offset: 0x2CFCE, size: 0x8, addend: 0x0, symName: __RNvXs_NtNtCse1nGBsou5OW_5alloc3vec11spec_extendINtB6_3VecNtCs3cP53eQoTwO_11proc_macro211TokenStreamEINtB4_10SpecExtendBT_INtNtNtNtCsfvfooZQ3Axs_4core4iter8adapters3map3MapINtNtNtB24_5slice4iter4IterNtNtCs2nm8mGoL06A_14mockall_derive13mock_function12MockFunctionENCNvMNtB3e_16mock_item_structNtB4h_7Methods9priv_mods0EE11spec_extendB3e_, symObjAddr: 0xC9D4, symBinAddr: 0x48A08, symSize: 0x34 }
  - { offset: 0x2D01F, size: 0x8, addend: 0x0, symName: __RNvXs_NtNtCse1nGBsou5OW_5alloc3vec11spec_extendINtB6_3VecNtCs3cP53eQoTwO_11proc_macro211TokenStreamEINtB4_10SpecExtendBT_INtNtNtNtCsfvfooZQ3Axs_4core4iter8adapters3map3MapINtNtNtB24_5slice4iter4IterNtNtCs2nm8mGoL06A_14mockall_derive13mock_function12MockFunctionENCNvXs1_NtB3e_16mock_item_structNtB4k_14MockItemStructNtNtCs2cqEZUIJimJ_5quote9to_tokens8ToTokens9to_tokens0EE11spec_extendB3e_, symObjAddr: 0xCA08, symBinAddr: 0x48A3C, symSize: 0x24 }
  - { offset: 0x2D071, size: 0x8, addend: 0x0, symName: __RNvXs_NtNtCse1nGBsou5OW_5alloc3vec11spec_extendINtB6_3VecNtCs3cP53eQoTwO_11proc_macro25IdentEINtB4_10SpecExtendBT_INtNtNtNtCsfvfooZQ3Axs_4core4iter8adapters3map3MapINtNtNtB1X_3ops5range5RangejENCNvXs0_NtCs2nm8mGoL06A_14mockall_derive13mock_functionNtB3d_6CommonNtNtCs2cqEZUIJimJ_5quote9to_tokens8ToTokens9to_tokens0EE11spec_extendB3f_, symObjAddr: 0xCA2C, symBinAddr: 0x48A60, symSize: 0x2C }
  - { offset: 0x2D0C2, size: 0x8, addend: 0x0, symName: __RNvXs_NtNtCse1nGBsou5OW_5alloc3vec11spec_extendINtB6_3VecNtCs3cP53eQoTwO_11proc_macro25IdentEINtB4_10SpecExtendBT_INtNtNtNtCsfvfooZQ3Axs_4core4iter8adapters3map3MapINtNtNtB1X_3ops5range5RangejENCNvXs1_NtCs2nm8mGoL06A_14mockall_derive13mock_functionNtB3d_24CommonExpectationMethodsNtNtCs2cqEZUIJimJ_5quote9to_tokens8ToTokens9to_tokens0EE11spec_extendB3f_, symObjAddr: 0xCA58, symBinAddr: 0x48A8C, symSize: 0x2C }
  - { offset: 0x2D113, size: 0x8, addend: 0x0, symName: __RNvXs_NtNtCse1nGBsou5OW_5alloc3vec11spec_extendINtB6_3VecNtCs3cP53eQoTwO_11proc_macro25IdentEINtB4_10SpecExtendBT_INtNtNtNtCsfvfooZQ3Axs_4core4iter8adapters3map3MapINtNtNtB1X_3ops5range5RangejENCNvXs3_NtCs2nm8mGoL06A_14mockall_derive13mock_functionNtB3d_29ExpectationGuardCommonMethodsNtNtCs2cqEZUIJimJ_5quote9to_tokens8ToTokens9to_tokens0EE11spec_extendB3f_, symObjAddr: 0xCA84, symBinAddr: 0x48AB8, symSize: 0x2C }
  - { offset: 0x2D164, size: 0x8, addend: 0x0, symName: __RNvXs_NtNtCse1nGBsou5OW_5alloc3vec11spec_extendINtB6_3VecNtNtCs2nm8mGoL06A_14mockall_derive10mock_trait9MockTraitEINtB4_10SpecExtendBT_INtNtNtNtCsfvfooZQ3Axs_4core4iter8adapters3map3MapINtNtB6_9into_iter8IntoIterNtNtCs6IAuOt8vWmF_3syn4item8ItemImplENCNvXs0_NtBX_16mock_item_structNtB47_14MockItemStructINtNtB2i_7convert4FromNtNtBX_15mockable_struct14MockableStructE4froms1_0EE11spec_extendBX_, symObjAddr: 0xCAB0, symBinAddr: 0x48AE4, symSize: 0x24 }
  - { offset: 0x2D1B6, size: 0x8, addend: 0x0, symName: __RNvXs_NtNtCse1nGBsou5OW_5alloc3vec11spec_extendINtB6_3VecNtNtCs2nm8mGoL06A_14mockall_derive13mock_function12MockFunctionEINtB4_10SpecExtendBT_INtNtNtNtCsfvfooZQ3Axs_4core4iter8adapters3map3MapINtNtB6_9into_iter8IntoIterNtNtCs6IAuOt8vWmF_3syn4item10ImplItemFnENCNvXs0_NtBX_16mock_item_structNtB4h_14MockItemStructINtNtB2p_7convert4FromNtNtBX_15mockable_struct14MockableStructE4froms0_0EE11spec_extendBX_, symObjAddr: 0xCAD4, symBinAddr: 0x48B08, symSize: 0x24 }
  - { offset: 0x2D208, size: 0x8, addend: 0x0, symName: __RNvXs_NtNtCse1nGBsou5OW_5alloc3vec11spec_extendINtB6_3VecNtNtCs6IAuOt8vWmF_3syn4attr9AttributeEINtB4_10SpecExtendBT_INtNtNtNtCsfvfooZQ3Axs_4core4iter8adapters6cloned6ClonedINtNtNtB1Z_5slice4iter4IterBT_EEE11spec_extendCs2nm8mGoL06A_14mockall_derive, symObjAddr: 0xCAF8, symBinAddr: 0x48B2C, symSize: 0x34 }
  - { offset: 0x2D259, size: 0x8, addend: 0x0, symName: __RNvXs_NtNtCse1nGBsou5OW_5alloc3vec11spec_extendINtB6_3VecNtNtCs6IAuOt8vWmF_3syn4expr5IndexEINtB4_10SpecExtendBT_INtNtNtNtCsfvfooZQ3Axs_4core4iter8adapters3map3MapINtNtNtB1V_3ops5range5RangejENCNvXs7_NtCs2nm8mGoL06A_14mockall_derive13mock_functionNtB3b_7MatcherNtNtCs2cqEZUIJimJ_5quote9to_tokens8ToTokens9to_tokenss_0EE11spec_extendB3d_, symObjAddr: 0xCB2C, symBinAddr: 0x48B60, symSize: 0x2C }
  - { offset: 0x2D2AA, size: 0x8, addend: 0x0, symName: __RNvXs_NtNtCse1nGBsou5OW_5alloc3vec11spec_extendINtB6_3VecNtNtCs6IAuOt8vWmF_3syn4item8ImplItemEINtB4_10SpecExtendBT_INtNtNtNtCsfvfooZQ3Axs_4core4iter8adapters3map3MapINtNtB6_9into_iter8IntoIterNtBV_9TraitItemENCNvNtCs2nm8mGoL06A_14mockall_derive15mockable_struct14mockable_trait0EE11spec_extendB3q_, symObjAddr: 0xCB58, symBinAddr: 0x48B8C, symSize: 0x24 }
  - { offset: 0x2D2FC, size: 0x8, addend: 0x0, symName: __RNvXs_NtNtCse1nGBsou5OW_5alloc3vec11spec_extendINtB6_3VecNtNtCs6IAuOt8vWmF_3syn8generics12GenericParamEINtB4_10SpecExtendBT_INtNtCsfvfooZQ3Axs_4core6option8IntoIterBT_EE11spec_extendCs2nm8mGoL06A_14mockall_derive, symObjAddr: 0xCB7C, symBinAddr: 0x48BB0, symSize: 0x24 }
  - { offset: 0x2D34E, size: 0x8, addend: 0x0, symName: __RNvXs_NtNtCse1nGBsou5OW_5alloc3vec11spec_extendINtB6_3VecNtNtCs6IAuOt8vWmF_3syn8generics12GenericParamEINtB4_10SpecExtendBT_INtNtNtNtCsfvfooZQ3Axs_4core4iter8adapters3map3MapINtNtB6_9into_iter8IntoIterTBT_NtNtBX_5token5CommaEENCNvXs8_NtBX_10punctuatedINtB3K_10PunctuatedBT_B3h_ENtNtNtB25_6traits7collect12IntoIterator9into_iter0EE11spec_extendCs2nm8mGoL06A_14mockall_derive, symObjAddr: 0xCBA0, symBinAddr: 0x48BD4, symSize: 0x24 }
  - { offset: 0x2D3A0, size: 0x8, addend: 0x0, symName: __RNvXs_NtNtCse1nGBsou5OW_5alloc3vec11spec_extendINtB6_3VecNtNtCs6IAuOt8vWmF_3syn8generics13LifetimeParamEINtB4_10SpecExtendBT_INtNtCsfvfooZQ3Axs_4core6option8IntoIterBT_EE11spec_extendCs2nm8mGoL06A_14mockall_derive, symObjAddr: 0xCBC4, symBinAddr: 0x48BF8, symSize: 0x24 }
  - { offset: 0x2D3F2, size: 0x8, addend: 0x0, symName: __RNvXs_NtNtCse1nGBsou5OW_5alloc3vec11spec_extendINtB6_3VecNtNtCs6IAuOt8vWmF_3syn8generics13LifetimeParamEINtB4_10SpecExtendBT_INtNtNtNtCsfvfooZQ3Axs_4core4iter8adapters3map3MapINtNtB6_9into_iter8IntoIterTBT_NtNtBX_5token5CommaEENCNvXs8_NtBX_10punctuatedINtB3L_10PunctuatedBT_B3i_ENtNtNtB26_6traits7collect12IntoIterator9into_iter0EE11spec_extendCs2nm8mGoL06A_14mockall_derive, symObjAddr: 0xCBE8, symBinAddr: 0x48C1C, symSize: 0x24 }
  - { offset: 0x2D450, size: 0x8, addend: 0x0, symName: __RNvXNtNtCse1nGBsou5OW_5alloc3vec14spec_from_iterINtB4_3VecNtCs3cP53eQoTwO_11proc_macro211TokenStreamEINtB2_12SpecFromIterBU_INtNtNtNtCsfvfooZQ3Axs_4core4iter8adapters10filter_map9FilterMapINtNtB23_9enumerate9EnumerateINtNtCs6IAuOt8vWmF_3syn10punctuated4IterNtNtB3y_8generics12GenericParamEENCNvNtCs2nm8mGoL06A_14mockall_derive16mock_item_struct14phantom_fields0EE9from_iterB4K_, symObjAddr: 0x94C4, symBinAddr: 0x454F8, symSize: 0x14 }
  - { offset: 0x2D48F, size: 0x8, addend: 0x0, symName: __RNvXNtNtCse1nGBsou5OW_5alloc3vec14spec_from_iterINtB4_3VecNtCs3cP53eQoTwO_11proc_macro211TokenStreamEINtB2_12SpecFromIterBU_INtNtNtNtCsfvfooZQ3Axs_4core4iter8adapters10filter_map9FilterMapINtNtCs6IAuOt8vWmF_3syn10punctuated4IterNtNtB35_4item5FnArgENCNvCs2nm8mGoL06A_14mockall_derive11declosurefys3_0EE9from_iterB42_, symObjAddr: 0x94D8, symBinAddr: 0x4550C, symSize: 0x14 }
  - { offset: 0x2D4CE, size: 0x8, addend: 0x0, symName: __RNvXNtNtCse1nGBsou5OW_5alloc3vec14spec_from_iterINtB4_3VecNtCs3cP53eQoTwO_11proc_macro211TokenStreamEINtB2_12SpecFromIterBU_INtNtNtNtCsfvfooZQ3Axs_4core4iter8adapters10filter_map9FilterMapINtNtCs6IAuOt8vWmF_3syn10punctuated4IterNtNtB35_4item5FnArgENCNvCs2nm8mGoL06A_14mockall_derive15concretize_argss0_0EE9from_iterB42_, symObjAddr: 0x94EC, symBinAddr: 0x45520, symSize: 0x14 }
  - { offset: 0x2D50D, size: 0x8, addend: 0x0, symName: __RNvXNtNtCse1nGBsou5OW_5alloc3vec14spec_from_iterINtB4_3VecNtCs3cP53eQoTwO_11proc_macro211TokenStreamEINtB2_12SpecFromIterBU_INtNtNtNtCsfvfooZQ3Axs_4core4iter8adapters3map3MapINtNtB23_6filter6FilterINtNtNtB27_5slice4iter4IterNtNtCs2nm8mGoL06A_14mockall_derive13mock_function12MockFunctionENCNvMNtB3E_10mock_traitNtB4H_9MockTrait10trait_impls1_0ENCB4E_s2_0EE9from_iterB3E_, symObjAddr: 0x9500, symBinAddr: 0x45534, symSize: 0x14 }
  - { offset: 0x2D54C, size: 0x8, addend: 0x0, symName: __RNvXNtNtCse1nGBsou5OW_5alloc3vec14spec_from_iterINtB4_3VecNtCs3cP53eQoTwO_11proc_macro211TokenStreamEINtB2_12SpecFromIterBU_INtNtNtNtCsfvfooZQ3Axs_4core4iter8adapters3map3MapINtNtB23_6filter6FilterINtNtNtB27_5slice4iter4IterNtNtCs2nm8mGoL06A_14mockall_derive13mock_function12MockFunctionENCNvMNtB3E_10mock_traitNtB4H_9MockTrait10trait_impls_0ENCB4E_s0_0EE9from_iterB3E_, symObjAddr: 0x9514, symBinAddr: 0x45548, symSize: 0x14 }
  - { offset: 0x2D58B, size: 0x8, addend: 0x0, symName: __RNvXNtNtCse1nGBsou5OW_5alloc3vec14spec_from_iterINtB4_3VecNtCs3cP53eQoTwO_11proc_macro211TokenStreamEINtB2_12SpecFromIterBU_INtNtNtNtCsfvfooZQ3Axs_4core4iter8adapters3map3MapINtNtB23_6filter6FilterINtNtNtB27_5slice4iter4IterNtNtCs2nm8mGoL06A_14mockall_derive13mock_function12MockFunctionENCNvMNtB3E_16mock_item_structNtB4H_7Methods11checkpoints0ENCB4E_s_0EE9from_iterB3E_, symObjAddr: 0x9528, symBinAddr: 0x4555C, symSize: 0x2C }
  - { offset: 0x2D5C9, size: 0x8, addend: 0x0, symName: __RNvXNtNtCse1nGBsou5OW_5alloc3vec14spec_from_iterINtB4_3VecNtCs3cP53eQoTwO_11proc_macro211TokenStreamEINtB2_12SpecFromIterBU_INtNtNtNtCsfvfooZQ3Axs_4core4iter8adapters3map3MapINtNtB23_6filter6FilterINtNtNtB27_5slice4iter4IterNtNtCs2nm8mGoL06A_14mockall_derive13mock_function12MockFunctionENCNvMNtB3E_16mock_item_structNtB4H_7Methods13default_inits0ENCB4E_s_0EE9from_iterB3E_, symObjAddr: 0x9554, symBinAddr: 0x45588, symSize: 0x2C }
  - { offset: 0x2D607, size: 0x8, addend: 0x0, symName: __RNvXNtNtCse1nGBsou5OW_5alloc3vec14spec_from_iterINtB4_3VecNtCs3cP53eQoTwO_11proc_macro211TokenStreamEINtB2_12SpecFromIterBU_INtNtNtNtCsfvfooZQ3Axs_4core4iter8adapters3map3MapINtNtB23_6filter6FilterINtNtNtB27_5slice4iter4IterNtNtCs2nm8mGoL06A_14mockall_derive13mock_function12MockFunctionENCNvMNtB3E_16mock_item_structNtB4H_7Methods17field_definitions0ENCB4E_s_0EE9from_iterB3E_, symObjAddr: 0x9580, symBinAddr: 0x455B4, symSize: 0x14 }
  - { offset: 0x2D646, size: 0x8, addend: 0x0, symName: __RNvXNtNtCse1nGBsou5OW_5alloc3vec14spec_from_iterINtB4_3VecNtCs3cP53eQoTwO_11proc_macro211TokenStreamEINtB2_12SpecFromIterBU_INtNtNtNtCsfvfooZQ3Axs_4core4iter8adapters3map3MapINtNtB23_6filter6FilterINtNtNtB27_5slice4iter4IterNtNtCs2nm8mGoL06A_14mockall_derive13mock_function12MockFunctionENCNvXs1_NtB3E_16mock_item_structNtB4K_14MockItemStructNtNtCs2cqEZUIJimJ_5quote9to_tokens8ToTokens9to_tokenss1_0ENCB4E_s2_0EE9from_iterB3E_, symObjAddr: 0x9594, symBinAddr: 0x455C8, symSize: 0x14 }
  - { offset: 0x2D685, size: 0x8, addend: 0x0, symName: __RNvXNtNtCse1nGBsou5OW_5alloc3vec14spec_from_iterINtB4_3VecNtCs3cP53eQoTwO_11proc_macro211TokenStreamEINtB2_12SpecFromIterBU_INtNtNtNtCsfvfooZQ3Axs_4core4iter8adapters3map3MapINtNtB23_6filter6FilterINtNtNtB27_5slice4iter4IterNtNtCs2nm8mGoL06A_14mockall_derive13mock_function12MockFunctionENCNvXs1_NtB3E_16mock_item_structNtB4K_14MockItemStructNtNtCs2cqEZUIJimJ_5quote9to_tokens8ToTokens9to_tokenss_0ENCB4E_s0_0EE9from_iterB3E_, symObjAddr: 0x95A8, symBinAddr: 0x455DC, symSize: 0x14 }
  - { offset: 0x2D6C4, size: 0x8, addend: 0x0, symName: __RNvXNtNtCse1nGBsou5OW_5alloc3vec14spec_from_iterINtB4_3VecNtCs3cP53eQoTwO_11proc_macro211TokenStreamEINtB2_12SpecFromIterBU_INtNtNtNtCsfvfooZQ3Axs_4core4iter8adapters3map3MapINtNtB23_6filter6FilterINtNtNtB27_5slice4iter4IterNtNtCs2nm8mGoL06A_14mockall_derive16mock_item_struct17MockItemTraitImplENCNvXs1_B3C_NtB3C_14MockItemStructNtNtCs2cqEZUIJimJ_5quote9to_tokens8ToTokens9to_tokenss4_0ENCB4M_s5_0EE9from_iterB3E_, symObjAddr: 0x95BC, symBinAddr: 0x455F0, symSize: 0x2C }
  - { offset: 0x2D702, size: 0x8, addend: 0x0, symName: __RNvXNtNtCse1nGBsou5OW_5alloc3vec14spec_from_iterINtB4_3VecNtCs3cP53eQoTwO_11proc_macro211TokenStreamEINtB2_12SpecFromIterBU_INtNtNtNtCsfvfooZQ3Axs_4core4iter8adapters3map3MapINtNtB23_6filter6FilterINtNtNtB27_5slice4iter4IterNtNtCs2nm8mGoL06A_14mockall_derive16mock_item_struct17MockItemTraitImplENCNvXs1_B3C_NtB3C_14MockItemStructNtNtCs2cqEZUIJimJ_5quote9to_tokens8ToTokens9to_tokenss6_0ENCB4M_s7_0EE9from_iterB3E_, symObjAddr: 0x95E8, symBinAddr: 0x4561C, symSize: 0x14 }
  - { offset: 0x2D741, size: 0x8, addend: 0x0, symName: __RNvXNtNtCse1nGBsou5OW_5alloc3vec14spec_from_iterINtB4_3VecNtCs3cP53eQoTwO_11proc_macro211TokenStreamEINtB2_12SpecFromIterBU_INtNtNtNtCsfvfooZQ3Axs_4core4iter8adapters3map3MapINtNtB23_6filter6FilterINtNtNtB27_5slice4iter4IterNtNtCs2nm8mGoL06A_14mockall_derive16mock_item_struct17MockItemTraitImplENCNvXs1_B3C_NtB3C_14MockItemStructNtNtCs2cqEZUIJimJ_5quote9to_tokens8ToTokens9to_tokenss8_0ENCB4M_s9_0EE9from_iterB3E_, symObjAddr: 0x95FC, symBinAddr: 0x45630, symSize: 0x2C }
  - { offset: 0x2D77F, size: 0x8, addend: 0x0, symName: __RNvXNtNtCse1nGBsou5OW_5alloc3vec14spec_from_iterINtB4_3VecNtCs3cP53eQoTwO_11proc_macro211TokenStreamEINtB2_12SpecFromIterBU_INtNtNtNtCsfvfooZQ3Axs_4core4iter8adapters3map3MapINtNtB23_9enumerate9EnumerateINtNtCs6IAuOt8vWmF_3syn10punctuated4IterNtNtB3k_8generics12GenericParamEENCNvNtCs2nm8mGoL06A_14mockall_derive16mock_item_struct21phantom_default_inits0EE9from_iterB4w_, symObjAddr: 0x9628, symBinAddr: 0x4565C, symSize: 0x14 }
  - { offset: 0x2D7BE, size: 0x8, addend: 0x0, symName: __RNvXNtNtCse1nGBsou5OW_5alloc3vec14spec_from_iterINtB4_3VecNtCs3cP53eQoTwO_11proc_macro211TokenStreamEINtB2_12SpecFromIterBU_INtNtNtNtCsfvfooZQ3Axs_4core4iter8adapters3map3MapINtNtNtB27_5slice4iter4IterNtNtCs2nm8mGoL06A_14mockall_derive10mock_trait9MockTraitENCNvXs1_NtB3h_16mock_item_structNtB4g_14MockItemStructNtNtCs2cqEZUIJimJ_5quote9to_tokens8ToTokens9to_tokenssa_0EE9from_iterB3h_, symObjAddr: 0x963C, symBinAddr: 0x45670, symSize: 0x14 }
  - { offset: 0x2D7FD, size: 0x8, addend: 0x0, symName: __RNvXNtNtCse1nGBsou5OW_5alloc3vec14spec_from_iterINtB4_3VecNtCs3cP53eQoTwO_11proc_macro211TokenStreamEINtB2_12SpecFromIterBU_INtNtNtNtCsfvfooZQ3Axs_4core4iter8adapters3map3MapINtNtNtB27_5slice4iter4IterNtNtCs2nm8mGoL06A_14mockall_derive13mock_function12MockFunctionENCNvMNtB3h_10mock_traitNtB4k_9MockTrait10trait_impl0EE9from_iterB3h_, symObjAddr: 0x9650, symBinAddr: 0x45684, symSize: 0x14 }
  - { offset: 0x2D83C, size: 0x8, addend: 0x0, symName: __RNvXNtNtCse1nGBsou5OW_5alloc3vec14spec_from_iterINtB4_3VecNtCs3cP53eQoTwO_11proc_macro211TokenStreamEINtB2_12SpecFromIterBU_INtNtNtNtCsfvfooZQ3Axs_4core4iter8adapters3map3MapINtNtNtB27_5slice4iter4IterNtNtCs2nm8mGoL06A_14mockall_derive13mock_function12MockFunctionENCNvMNtB3h_16mock_item_structNtB4k_7Methods9priv_mods0EE9from_iterB3h_, symObjAddr: 0x9664, symBinAddr: 0x45698, symSize: 0x2C }
  - { offset: 0x2D87A, size: 0x8, addend: 0x0, symName: __RNvXNtNtCse1nGBsou5OW_5alloc3vec14spec_from_iterINtB4_3VecNtCs3cP53eQoTwO_11proc_macro211TokenStreamEINtB2_12SpecFromIterBU_INtNtNtNtCsfvfooZQ3Axs_4core4iter8adapters3map3MapINtNtNtB27_5slice4iter4IterNtNtCs2nm8mGoL06A_14mockall_derive13mock_function12MockFunctionENCNvXs1_NtB3h_16mock_item_structNtB4n_14MockItemStructNtNtCs2cqEZUIJimJ_5quote9to_tokens8ToTokens9to_tokens0EE9from_iterB3h_, symObjAddr: 0x9690, symBinAddr: 0x456C4, symSize: 0x14 }
  - { offset: 0x2D8B9, size: 0x8, addend: 0x0, symName: __RNvXNtNtCse1nGBsou5OW_5alloc3vec14spec_from_iterINtB4_3VecNtCs3cP53eQoTwO_11proc_macro25IdentEINtB2_12SpecFromIterBU_INtNtNtNtCsfvfooZQ3Axs_4core4iter8adapters3map3MapINtNtNtB20_3ops5range5RangejENCNvXs0_NtCs2nm8mGoL06A_14mockall_derive13mock_functionNtB3g_6CommonNtNtCs2cqEZUIJimJ_5quote9to_tokens8ToTokens9to_tokens0EE9from_iterB3i_, symObjAddr: 0x96A4, symBinAddr: 0x456D8, symSize: 0x24 }
  - { offset: 0x2D8F7, size: 0x8, addend: 0x0, symName: __RNvXNtNtCse1nGBsou5OW_5alloc3vec14spec_from_iterINtB4_3VecNtCs3cP53eQoTwO_11proc_macro25IdentEINtB2_12SpecFromIterBU_INtNtNtNtCsfvfooZQ3Axs_4core4iter8adapters3map3MapINtNtNtB20_3ops5range5RangejENCNvXs1_NtCs2nm8mGoL06A_14mockall_derive13mock_functionNtB3g_24CommonExpectationMethodsNtNtCs2cqEZUIJimJ_5quote9to_tokens8ToTokens9to_tokens0EE9from_iterB3i_, symObjAddr: 0x96C8, symBinAddr: 0x456FC, symSize: 0x24 }
  - { offset: 0x2D935, size: 0x8, addend: 0x0, symName: __RNvXNtNtCse1nGBsou5OW_5alloc3vec14spec_from_iterINtB4_3VecNtCs3cP53eQoTwO_11proc_macro25IdentEINtB2_12SpecFromIterBU_INtNtNtNtCsfvfooZQ3Axs_4core4iter8adapters3map3MapINtNtNtB20_3ops5range5RangejENCNvXs3_NtCs2nm8mGoL06A_14mockall_derive13mock_functionNtB3g_29ExpectationGuardCommonMethodsNtNtCs2cqEZUIJimJ_5quote9to_tokens8ToTokens9to_tokens0EE9from_iterB3i_, symObjAddr: 0x96EC, symBinAddr: 0x45720, symSize: 0x24 }
  - { offset: 0x2D973, size: 0x8, addend: 0x0, symName: __RNvXNtNtCse1nGBsou5OW_5alloc3vec14spec_from_iterINtB4_3VecNtCs3cP53eQoTwO_11proc_macro25IdentEINtB2_12SpecFromIterBU_INtNtNtNtCsfvfooZQ3Axs_4core4iter8adapters3map3MapNtNtCs6IAuOt8vWmF_3syn8generics10TypeParamsNCNvMNtCs2nm8mGoL06A_14mockall_derive13mock_functionNtB3r_7Builder5builds_0EE9from_iterB3t_, symObjAddr: 0x9710, symBinAddr: 0x45744, symSize: 0x2C }
  - { offset: 0x2D9B1, size: 0x8, addend: 0x0, symName: __RNvXNtNtCse1nGBsou5OW_5alloc3vec14spec_from_iterINtB4_3VecNtNtCs2nm8mGoL06A_14mockall_derive16mock_item_struct17MockItemTraitImplEINtB2_12SpecFromIterBU_INtNtNtNtCsfvfooZQ3Axs_4core4iter8adapters3map3MapINtNtB2w_6filter6FilterINtNtNtB2A_5slice4iter4IterNtNtBY_10mock_trait9MockTraitENCINvBW_17unique_trait_iterB3C_E0ENCNvXs1_BW_NtBW_14MockItemStructNtNtCs2cqEZUIJimJ_5quote9to_tokens8ToTokens9to_tokenss3_0EE9from_iterBY_, symObjAddr: 0x973C, symBinAddr: 0x45770, symSize: 0x14 }
  - { offset: 0x2D9F0, size: 0x8, addend: 0x0, symName: __RNvXNtNtCse1nGBsou5OW_5alloc3vec14spec_from_iterINtB4_3VecNtNtCs6IAuOt8vWmF_3syn4attr9AttributeEINtB2_12SpecFromIterBU_INtNtNtNtCsfvfooZQ3Axs_4core4iter8adapters6cloned6ClonedINtNtB1Y_6filter6FilterINtNtNtB22_5slice4iter4IterBU_ENCNvMCs2nm8mGoL06A_14mockall_deriveNtB3K_13AttrFormatter6format0EEE9from_iterB3K_, symObjAddr: 0x9750, symBinAddr: 0x45784, symSize: 0x14 }
  - { offset: 0x2DA2F, size: 0x8, addend: 0x0, symName: __RNvXNtNtCse1nGBsou5OW_5alloc3vec14spec_from_iterINtB4_3VecNtNtCs6IAuOt8vWmF_3syn4expr5IndexEINtB2_12SpecFromIterBU_INtNtNtNtCsfvfooZQ3Axs_4core4iter8adapters3map3MapINtNtNtB1Y_3ops5range5RangejENCNvXs7_NtCs2nm8mGoL06A_14mockall_derive13mock_functionNtB3e_7MatcherNtNtCs2cqEZUIJimJ_5quote9to_tokens8ToTokens9to_tokenss_0EE9from_iterB3g_, symObjAddr: 0x9764, symBinAddr: 0x45798, symSize: 0x24 }
  - { offset: 0x2DA6D, size: 0x8, addend: 0x0, symName: __RNvXNtNtCse1nGBsou5OW_5alloc3vec14spec_from_iterINtB4_3VecNtNtCs6IAuOt8vWmF_3syn4item5FnArgEINtB2_12SpecFromIterBU_INtNtNtNtCsfvfooZQ3Axs_4core4iter8adapters3map3MapINtNtBY_10punctuated4IterBU_ENCNvCs2nm8mGoL06A_14mockall_derive11declosurefys2_0EE9from_iterB3a_, symObjAddr: 0x9788, symBinAddr: 0x457BC, symSize: 0x14 }
  - { offset: 0x2DAAC, size: 0x8, addend: 0x0, symName: __RNvXNtNtCse1nGBsou5OW_5alloc3vec14spec_from_iterINtB4_3VecNtNtCs6IAuOt8vWmF_3syn4item5FnArgEINtB2_12SpecFromIterBU_INtNtNtNtCsfvfooZQ3Axs_4core4iter8adapters3map3MapINtNtBY_10punctuated4IterBU_ENCNvCs2nm8mGoL06A_14mockall_derive15concretize_argss_0EE9from_iterB3a_, symObjAddr: 0x979C, symBinAddr: 0x457D0, symSize: 0x14 }
  - { offset: 0x2DAF7, size: 0x8, addend: 0x0, symName: __RNvXNtNtCse1nGBsou5OW_5alloc3vec21spec_from_iter_nestedINtB4_3VecNtCs3cP53eQoTwO_11proc_macro211TokenStreamEINtB2_18SpecFromIterNestedB11_INtNtNtNtCsfvfooZQ3Axs_4core4iter8adapters10filter_map9FilterMapINtNtB2h_9enumerate9EnumerateINtNtCs6IAuOt8vWmF_3syn10punctuated4IterNtNtB3M_8generics12GenericParamEENCNvNtCs2nm8mGoL06A_14mockall_derive16mock_item_struct14phantom_fields0EE9from_iterB4Y_, symObjAddr: 0x97B0, symBinAddr: 0x457E4, symSize: 0x228 }
  - { offset: 0x2DD15, size: 0x8, addend: 0x0, symName: __RNvXNtNtCse1nGBsou5OW_5alloc3vec21spec_from_iter_nestedINtB4_3VecNtCs3cP53eQoTwO_11proc_macro211TokenStreamEINtB2_18SpecFromIterNestedB11_INtNtNtNtCsfvfooZQ3Axs_4core4iter8adapters10filter_map9FilterMapINtNtCs6IAuOt8vWmF_3syn10punctuated4IterNtNtB3j_4item5FnArgENCNvCs2nm8mGoL06A_14mockall_derive11declosurefys3_0EE9from_iterB4g_, symObjAddr: 0x99D8, symBinAddr: 0x45A0C, symSize: 0x228 }
  - { offset: 0x2DF33, size: 0x8, addend: 0x0, symName: __RNvXNtNtCse1nGBsou5OW_5alloc3vec21spec_from_iter_nestedINtB4_3VecNtCs3cP53eQoTwO_11proc_macro211TokenStreamEINtB2_18SpecFromIterNestedB11_INtNtNtNtCsfvfooZQ3Axs_4core4iter8adapters10filter_map9FilterMapINtNtCs6IAuOt8vWmF_3syn10punctuated4IterNtNtB3j_4item5FnArgENCNvCs2nm8mGoL06A_14mockall_derive15concretize_argss0_0EE9from_iterB4g_, symObjAddr: 0x9C00, symBinAddr: 0x45C34, symSize: 0x228 }
  - { offset: 0x2E151, size: 0x8, addend: 0x0, symName: __RNvXNtNtCse1nGBsou5OW_5alloc3vec21spec_from_iter_nestedINtB4_3VecNtCs3cP53eQoTwO_11proc_macro211TokenStreamEINtB2_18SpecFromIterNestedB11_INtNtNtNtCsfvfooZQ3Axs_4core4iter8adapters3map3MapINtNtB2h_6filter6FilterINtNtNtB2l_5slice4iter4IterNtNtCs2nm8mGoL06A_14mockall_derive13mock_function12MockFunctionENCNvMNtB3S_10mock_traitNtB4V_9MockTrait10trait_impls1_0ENCB4S_s2_0EE9from_iterB3S_, symObjAddr: 0x9E28, symBinAddr: 0x45E5C, symSize: 0x218 }
  - { offset: 0x2E36F, size: 0x8, addend: 0x0, symName: __RNvXNtNtCse1nGBsou5OW_5alloc3vec21spec_from_iter_nestedINtB4_3VecNtCs3cP53eQoTwO_11proc_macro211TokenStreamEINtB2_18SpecFromIterNestedB11_INtNtNtNtCsfvfooZQ3Axs_4core4iter8adapters3map3MapINtNtB2h_6filter6FilterINtNtNtB2l_5slice4iter4IterNtNtCs2nm8mGoL06A_14mockall_derive13mock_function12MockFunctionENCNvMNtB3S_10mock_traitNtB4V_9MockTrait10trait_impls_0ENCB4S_s0_0EE9from_iterB3S_, symObjAddr: 0xA040, symBinAddr: 0x46074, symSize: 0x218 }
  - { offset: 0x2E58D, size: 0x8, addend: 0x0, symName: __RNvXNtNtCse1nGBsou5OW_5alloc3vec21spec_from_iter_nestedINtB4_3VecNtCs3cP53eQoTwO_11proc_macro211TokenStreamEINtB2_18SpecFromIterNestedB11_INtNtNtNtCsfvfooZQ3Axs_4core4iter8adapters3map3MapINtNtB2h_6filter6FilterINtNtNtB2l_5slice4iter4IterNtNtCs2nm8mGoL06A_14mockall_derive13mock_function12MockFunctionENCNvMNtB3S_16mock_item_structNtB4V_7Methods11checkpoints0ENCB4S_s_0EE9from_iterB3S_, symObjAddr: 0xA258, symBinAddr: 0x4628C, symSize: 0x214 }
  - { offset: 0x2E7AB, size: 0x8, addend: 0x0, symName: __RNvXNtNtCse1nGBsou5OW_5alloc3vec21spec_from_iter_nestedINtB4_3VecNtCs3cP53eQoTwO_11proc_macro211TokenStreamEINtB2_18SpecFromIterNestedB11_INtNtNtNtCsfvfooZQ3Axs_4core4iter8adapters3map3MapINtNtB2h_6filter6FilterINtNtNtB2l_5slice4iter4IterNtNtCs2nm8mGoL06A_14mockall_derive13mock_function12MockFunctionENCNvMNtB3S_16mock_item_structNtB4V_7Methods13default_inits0ENCB4S_s_0EE9from_iterB3S_, symObjAddr: 0xA46C, symBinAddr: 0x464A0, symSize: 0x214 }
  - { offset: 0x2E9C9, size: 0x8, addend: 0x0, symName: __RNvXNtNtCse1nGBsou5OW_5alloc3vec21spec_from_iter_nestedINtB4_3VecNtCs3cP53eQoTwO_11proc_macro211TokenStreamEINtB2_18SpecFromIterNestedB11_INtNtNtNtCsfvfooZQ3Axs_4core4iter8adapters3map3MapINtNtB2h_6filter6FilterINtNtNtB2l_5slice4iter4IterNtNtCs2nm8mGoL06A_14mockall_derive13mock_function12MockFunctionENCNvMNtB3S_16mock_item_structNtB4V_7Methods17field_definitions0ENCB4S_s_0EE9from_iterB3S_, symObjAddr: 0xA680, symBinAddr: 0x466B4, symSize: 0x218 }
  - { offset: 0x2EBE7, size: 0x8, addend: 0x0, symName: __RNvXNtNtCse1nGBsou5OW_5alloc3vec21spec_from_iter_nestedINtB4_3VecNtCs3cP53eQoTwO_11proc_macro211TokenStreamEINtB2_18SpecFromIterNestedB11_INtNtNtNtCsfvfooZQ3Axs_4core4iter8adapters3map3MapINtNtB2h_6filter6FilterINtNtNtB2l_5slice4iter4IterNtNtCs2nm8mGoL06A_14mockall_derive13mock_function12MockFunctionENCNvXs1_NtB3S_16mock_item_structNtB4Y_14MockItemStructNtNtCs2cqEZUIJimJ_5quote9to_tokens8ToTokens9to_tokenss1_0ENCB4S_s2_0EE9from_iterB3S_, symObjAddr: 0xA898, symBinAddr: 0x468CC, symSize: 0x218 }
  - { offset: 0x2EE05, size: 0x8, addend: 0x0, symName: __RNvXNtNtCse1nGBsou5OW_5alloc3vec21spec_from_iter_nestedINtB4_3VecNtCs3cP53eQoTwO_11proc_macro211TokenStreamEINtB2_18SpecFromIterNestedB11_INtNtNtNtCsfvfooZQ3Axs_4core4iter8adapters3map3MapINtNtB2h_6filter6FilterINtNtNtB2l_5slice4iter4IterNtNtCs2nm8mGoL06A_14mockall_derive13mock_function12MockFunctionENCNvXs1_NtB3S_16mock_item_structNtB4Y_14MockItemStructNtNtCs2cqEZUIJimJ_5quote9to_tokens8ToTokens9to_tokenss_0ENCB4S_s0_0EE9from_iterB3S_, symObjAddr: 0xAAB0, symBinAddr: 0x46AE4, symSize: 0x218 }
  - { offset: 0x2F023, size: 0x8, addend: 0x0, symName: __RNvXNtNtCse1nGBsou5OW_5alloc3vec21spec_from_iter_nestedINtB4_3VecNtCs3cP53eQoTwO_11proc_macro211TokenStreamEINtB2_18SpecFromIterNestedB11_INtNtNtNtCsfvfooZQ3Axs_4core4iter8adapters3map3MapINtNtB2h_6filter6FilterINtNtNtB2l_5slice4iter4IterNtNtCs2nm8mGoL06A_14mockall_derive16mock_item_struct17MockItemTraitImplENCNvXs1_B3Q_NtB3Q_14MockItemStructNtNtCs2cqEZUIJimJ_5quote9to_tokens8ToTokens9to_tokenss4_0ENCB50_s5_0EE9from_iterB3S_, symObjAddr: 0xACC8, symBinAddr: 0x46CFC, symSize: 0x214 }
  - { offset: 0x2F241, size: 0x8, addend: 0x0, symName: __RNvXNtNtCse1nGBsou5OW_5alloc3vec21spec_from_iter_nestedINtB4_3VecNtCs3cP53eQoTwO_11proc_macro211TokenStreamEINtB2_18SpecFromIterNestedB11_INtNtNtNtCsfvfooZQ3Axs_4core4iter8adapters3map3MapINtNtB2h_6filter6FilterINtNtNtB2l_5slice4iter4IterNtNtCs2nm8mGoL06A_14mockall_derive16mock_item_struct17MockItemTraitImplENCNvXs1_B3Q_NtB3Q_14MockItemStructNtNtCs2cqEZUIJimJ_5quote9to_tokens8ToTokens9to_tokenss6_0ENCB50_s7_0EE9from_iterB3S_, symObjAddr: 0xAEDC, symBinAddr: 0x46F10, symSize: 0x218 }
  - { offset: 0x2F45F, size: 0x8, addend: 0x0, symName: __RNvXNtNtCse1nGBsou5OW_5alloc3vec21spec_from_iter_nestedINtB4_3VecNtCs3cP53eQoTwO_11proc_macro211TokenStreamEINtB2_18SpecFromIterNestedB11_INtNtNtNtCsfvfooZQ3Axs_4core4iter8adapters3map3MapINtNtB2h_6filter6FilterINtNtNtB2l_5slice4iter4IterNtNtCs2nm8mGoL06A_14mockall_derive16mock_item_struct17MockItemTraitImplENCNvXs1_B3Q_NtB3Q_14MockItemStructNtNtCs2cqEZUIJimJ_5quote9to_tokens8ToTokens9to_tokenss8_0ENCB50_s9_0EE9from_iterB3S_, symObjAddr: 0xB0F4, symBinAddr: 0x47128, symSize: 0x214 }
  - { offset: 0x2F67D, size: 0x8, addend: 0x0, symName: __RNvXNtNtCse1nGBsou5OW_5alloc3vec21spec_from_iter_nestedINtB4_3VecNtCs3cP53eQoTwO_11proc_macro211TokenStreamEINtB2_18SpecFromIterNestedB11_INtNtNtNtCsfvfooZQ3Axs_4core4iter8adapters3map3MapINtNtB2h_9enumerate9EnumerateINtNtCs6IAuOt8vWmF_3syn10punctuated4IterNtNtB3y_8generics12GenericParamEENCNvNtCs2nm8mGoL06A_14mockall_derive16mock_item_struct21phantom_default_inits0EE9from_iterB4K_, symObjAddr: 0xB308, symBinAddr: 0x4733C, symSize: 0x228 }
  - { offset: 0x2F89B, size: 0x8, addend: 0x0, symName: __RNvXNtNtCse1nGBsou5OW_5alloc3vec21spec_from_iter_nestedINtB4_3VecNtCs3cP53eQoTwO_11proc_macro25IdentEINtB2_18SpecFromIterNestedB11_INtNtNtNtCsfvfooZQ3Axs_4core4iter8adapters3map3MapNtNtCs6IAuOt8vWmF_3syn8generics10TypeParamsNCNvMNtCs2nm8mGoL06A_14mockall_derive13mock_functionNtB3F_7Builder5builds_0EE9from_iterB3H_, symObjAddr: 0xB530, symBinAddr: 0x47564, symSize: 0x220 }
  - { offset: 0x2FAB9, size: 0x8, addend: 0x0, symName: __RNvXNtNtCse1nGBsou5OW_5alloc3vec21spec_from_iter_nestedINtB4_3VecNtNtCs2nm8mGoL06A_14mockall_derive16mock_item_struct17MockItemTraitImplEINtB2_18SpecFromIterNestedB11_INtNtNtNtCsfvfooZQ3Axs_4core4iter8adapters3map3MapINtNtB2K_6filter6FilterINtNtNtB2O_5slice4iter4IterNtNtB15_10mock_trait9MockTraitENCINvB13_17unique_trait_iterB3Q_E0ENCNvXs1_B13_NtB13_14MockItemStructNtNtCs2cqEZUIJimJ_5quote9to_tokens8ToTokens9to_tokenss3_0EE9from_iterB15_, symObjAddr: 0xB750, symBinAddr: 0x47784, symSize: 0x248 }
  - { offset: 0x2FCD8, size: 0x8, addend: 0x0, symName: __RNvXNtNtCse1nGBsou5OW_5alloc3vec21spec_from_iter_nestedINtB4_3VecNtNtCs6IAuOt8vWmF_3syn4attr9AttributeEINtB2_18SpecFromIterNestedB11_INtNtNtNtCsfvfooZQ3Axs_4core4iter8adapters6cloned6ClonedINtNtB2c_6filter6FilterINtNtNtB2g_5slice4iter4IterB11_ENCNvMCs2nm8mGoL06A_14mockall_deriveNtB3Z_13AttrFormatter6format0EEE9from_iterB3Z_, symObjAddr: 0xB998, symBinAddr: 0x479CC, symSize: 0x230 }
  - { offset: 0x2FEF7, size: 0x8, addend: 0x0, symName: __RNvXNtNtCse1nGBsou5OW_5alloc3vec21spec_from_iter_nestedINtB4_3VecNtNtCs6IAuOt8vWmF_3syn4item5FnArgEINtB2_18SpecFromIterNestedB11_INtNtNtNtCsfvfooZQ3Axs_4core4iter8adapters3map3MapINtNtB15_10punctuated4IterB11_ENCNvCs2nm8mGoL06A_14mockall_derive11declosurefys2_0EE9from_iterB3q_, symObjAddr: 0xBBC8, symBinAddr: 0x47BFC, symSize: 0x240 }
  - { offset: 0x30116, size: 0x8, addend: 0x0, symName: __RNvXNtNtCse1nGBsou5OW_5alloc3vec21spec_from_iter_nestedINtB4_3VecNtNtCs6IAuOt8vWmF_3syn4item5FnArgEINtB2_18SpecFromIterNestedB11_INtNtNtNtCsfvfooZQ3Axs_4core4iter8adapters3map3MapINtNtB15_10punctuated4IterB11_ENCNvCs2nm8mGoL06A_14mockall_derive15concretize_argss_0EE9from_iterB3q_, symObjAddr: 0xBE08, symBinAddr: 0x47E3C, symSize: 0x240 }
  - { offset: 0x3033B, size: 0x8, addend: 0x0, symName: __RNvXs_NtNtCse1nGBsou5OW_5alloc3vec21spec_from_iter_nestedINtB6_3VecNtCs3cP53eQoTwO_11proc_macro211TokenStreamEINtB4_18SpecFromIterNestedB13_INtNtNtNtCsfvfooZQ3Axs_4core4iter8adapters3map3MapINtNtNtB2n_5slice4iter4IterNtNtCs2nm8mGoL06A_14mockall_derive10mock_trait9MockTraitENCNvXs1_NtB3x_16mock_item_structNtB4w_14MockItemStructNtNtCs2cqEZUIJimJ_5quote9to_tokens8ToTokens9to_tokenssa_0EE9from_iterB3x_, symObjAddr: 0xCCAC, symBinAddr: 0x48CE0, symSize: 0x16C }
  - { offset: 0x30412, size: 0x8, addend: 0x0, symName: __RNvXs_NtNtCse1nGBsou5OW_5alloc3vec21spec_from_iter_nestedINtB6_3VecNtCs3cP53eQoTwO_11proc_macro211TokenStreamEINtB4_18SpecFromIterNestedB13_INtNtNtNtCsfvfooZQ3Axs_4core4iter8adapters3map3MapINtNtNtB2n_5slice4iter4IterNtNtCs2nm8mGoL06A_14mockall_derive13mock_function12MockFunctionENCNvMNtB3x_10mock_traitNtB4A_9MockTrait10trait_impl0EE9from_iterB3x_, symObjAddr: 0xCE18, symBinAddr: 0x48E4C, symSize: 0x16C }
  - { offset: 0x304E9, size: 0x8, addend: 0x0, symName: __RNvXs_NtNtCse1nGBsou5OW_5alloc3vec21spec_from_iter_nestedINtB6_3VecNtCs3cP53eQoTwO_11proc_macro211TokenStreamEINtB4_18SpecFromIterNestedB13_INtNtNtNtCsfvfooZQ3Axs_4core4iter8adapters3map3MapINtNtNtB2n_5slice4iter4IterNtNtCs2nm8mGoL06A_14mockall_derive13mock_function12MockFunctionENCNvMNtB3x_16mock_item_structNtB4A_7Methods9priv_mods0EE9from_iterB3x_, symObjAddr: 0xCF84, symBinAddr: 0x48FB8, symSize: 0x168 }
  - { offset: 0x305BF, size: 0x8, addend: 0x0, symName: __RNvXs_NtNtCse1nGBsou5OW_5alloc3vec21spec_from_iter_nestedINtB6_3VecNtCs3cP53eQoTwO_11proc_macro211TokenStreamEINtB4_18SpecFromIterNestedB13_INtNtNtNtCsfvfooZQ3Axs_4core4iter8adapters3map3MapINtNtNtB2n_5slice4iter4IterNtNtCs2nm8mGoL06A_14mockall_derive13mock_function12MockFunctionENCNvXs1_NtB3x_16mock_item_structNtB4D_14MockItemStructNtNtCs2cqEZUIJimJ_5quote9to_tokens8ToTokens9to_tokens0EE9from_iterB3x_, symObjAddr: 0xD0EC, symBinAddr: 0x49120, symSize: 0x16C }
  - { offset: 0x30696, size: 0x8, addend: 0x0, symName: __RNvXs_NtNtCse1nGBsou5OW_5alloc3vec21spec_from_iter_nestedINtB6_3VecNtCs3cP53eQoTwO_11proc_macro25IdentEINtB4_18SpecFromIterNestedB13_INtNtNtNtCsfvfooZQ3Axs_4core4iter8adapters3map3MapINtNtNtB2g_3ops5range5RangejENCNvXs0_NtCs2nm8mGoL06A_14mockall_derive13mock_functionNtB3w_6CommonNtNtCs2cqEZUIJimJ_5quote9to_tokens8ToTokens9to_tokens0EE9from_iterB3y_, symObjAddr: 0xD258, symBinAddr: 0x4928C, symSize: 0x168 }
  - { offset: 0x3076C, size: 0x8, addend: 0x0, symName: __RNvXs_NtNtCse1nGBsou5OW_5alloc3vec21spec_from_iter_nestedINtB6_3VecNtCs3cP53eQoTwO_11proc_macro25IdentEINtB4_18SpecFromIterNestedB13_INtNtNtNtCsfvfooZQ3Axs_4core4iter8adapters3map3MapINtNtNtB2g_3ops5range5RangejENCNvXs1_NtCs2nm8mGoL06A_14mockall_derive13mock_functionNtB3w_24CommonExpectationMethodsNtNtCs2cqEZUIJimJ_5quote9to_tokens8ToTokens9to_tokens0EE9from_iterB3y_, symObjAddr: 0xD3C0, symBinAddr: 0x493F4, symSize: 0x168 }
  - { offset: 0x30842, size: 0x8, addend: 0x0, symName: __RNvXs_NtNtCse1nGBsou5OW_5alloc3vec21spec_from_iter_nestedINtB6_3VecNtCs3cP53eQoTwO_11proc_macro25IdentEINtB4_18SpecFromIterNestedB13_INtNtNtNtCsfvfooZQ3Axs_4core4iter8adapters3map3MapINtNtNtB2g_3ops5range5RangejENCNvXs3_NtCs2nm8mGoL06A_14mockall_derive13mock_functionNtB3w_29ExpectationGuardCommonMethodsNtNtCs2cqEZUIJimJ_5quote9to_tokens8ToTokens9to_tokens0EE9from_iterB3y_, symObjAddr: 0xD528, symBinAddr: 0x4955C, symSize: 0x168 }
  - { offset: 0x30918, size: 0x8, addend: 0x0, symName: __RNvXs_NtNtCse1nGBsou5OW_5alloc3vec21spec_from_iter_nestedINtB6_3VecNtNtCs2nm8mGoL06A_14mockall_derive10mock_trait9MockTraitEINtB4_18SpecFromIterNestedB13_INtNtNtNtCsfvfooZQ3Axs_4core4iter8adapters3map3MapINtNtB6_9into_iter8IntoIterNtNtCs6IAuOt8vWmF_3syn4item8ItemImplENCNvXs0_NtB17_16mock_item_structNtB4q_14MockItemStructINtNtB2B_7convert4FromNtNtB17_15mockable_struct14MockableStructE4froms1_0EE9from_iterB17_, symObjAddr: 0xD690, symBinAddr: 0x496C4, symSize: 0x188 }
  - { offset: 0x309EF, size: 0x8, addend: 0x0, symName: __RNvXs_NtNtCse1nGBsou5OW_5alloc3vec21spec_from_iter_nestedINtB6_3VecNtNtCs2nm8mGoL06A_14mockall_derive13mock_function12MockFunctionEINtB4_18SpecFromIterNestedB13_INtNtNtNtCsfvfooZQ3Axs_4core4iter8adapters3map3MapINtNtB6_9into_iter8IntoIterNtNtCs6IAuOt8vWmF_3syn4item10ImplItemFnENCNvXs0_NtB17_16mock_item_structNtB4A_14MockItemStructINtNtB2I_7convert4FromNtNtB17_15mockable_struct14MockableStructE4froms0_0EE9from_iterB17_, symObjAddr: 0xD818, symBinAddr: 0x4984C, symSize: 0x188 }
  - { offset: 0x30AC7, size: 0x8, addend: 0x0, symName: __RNvXs_NtNtCse1nGBsou5OW_5alloc3vec21spec_from_iter_nestedINtB6_3VecNtNtCs6IAuOt8vWmF_3syn4expr5IndexEINtB4_18SpecFromIterNestedB13_INtNtNtNtCsfvfooZQ3Axs_4core4iter8adapters3map3MapINtNtNtB2e_3ops5range5RangejENCNvXs7_NtCs2nm8mGoL06A_14mockall_derive13mock_functionNtB3u_7MatcherNtNtCs2cqEZUIJimJ_5quote9to_tokens8ToTokens9to_tokenss_0EE9from_iterB3w_, symObjAddr: 0xD9A0, symBinAddr: 0x499D4, symSize: 0x168 }
  - { offset: 0x30B9D, size: 0x8, addend: 0x0, symName: __RNvXs_NtNtCse1nGBsou5OW_5alloc3vec21spec_from_iter_nestedINtB6_3VecNtNtCs6IAuOt8vWmF_3syn4item8ImplItemEINtB4_18SpecFromIterNestedB13_INtNtNtNtCsfvfooZQ3Axs_4core4iter8adapters3map3MapINtNtB6_9into_iter8IntoIterNtB15_9TraitItemENCNvNtCs2nm8mGoL06A_14mockall_derive15mockable_struct14mockable_trait0EE9from_iterB3K_, symObjAddr: 0xDB08, symBinAddr: 0x49B3C, symSize: 0x188 }
  - { offset: 0x30C7C, size: 0x8, addend: 0x0, symName: __RNvXs7_NtCse1nGBsou5OW_5alloc3vecINtB5_3VecNtNtCs6IAuOt8vWmF_3syn4item8ImplItemENtNtNtCsfvfooZQ3Axs_4core3ops5deref8DerefMut9deref_mutCs2nm8mGoL06A_14mockall_derive, symObjAddr: 0xC53C, symBinAddr: 0x48570, symSize: 0x24 }
  - { offset: 0x30CBC, size: 0x8, addend: 0x0, symName: __RNvXs7_NtCse1nGBsou5OW_5alloc3vecINtB5_3VecNtNtCs6IAuOt8vWmF_3syn4item9TraitItemENtNtNtCsfvfooZQ3Axs_4core3ops5deref8DerefMut9deref_mutCs2nm8mGoL06A_14mockall_derive, symObjAddr: 0xC560, symBinAddr: 0x48594, symSize: 0x24 }
  - { offset: 0x30CFC, size: 0x8, addend: 0x0, symName: __RNvXs7_NtCse1nGBsou5OW_5alloc3vecINtB5_3VecTNtNtCs6IAuOt8vWmF_3syn2ty4TypeNtNtBK_5token5CommaEENtNtNtCsfvfooZQ3Axs_4core3ops5deref8DerefMut9deref_mutCs2nm8mGoL06A_14mockall_derive, symObjAddr: 0xC584, symBinAddr: 0x485B8, symSize: 0x24 }
  - { offset: 0x30D3C, size: 0x8, addend: 0x0, symName: __RNvXs7_NtCse1nGBsou5OW_5alloc3vecINtB5_3VecTNtNtCs6IAuOt8vWmF_3syn2ty9BareFnArgNtNtBK_5token5CommaEENtNtNtCsfvfooZQ3Axs_4core3ops5deref8DerefMut9deref_mutCs2nm8mGoL06A_14mockall_derive, symObjAddr: 0xC5A8, symBinAddr: 0x485DC, symSize: 0x24 }
  - { offset: 0x30D7C, size: 0x8, addend: 0x0, symName: __RNvXs7_NtCse1nGBsou5OW_5alloc3vecINtB5_3VecTNtNtCs6IAuOt8vWmF_3syn4item5FnArgNtNtBK_5token5CommaEENtNtNtCsfvfooZQ3Axs_4core3ops5deref8DerefMut9deref_mutCs2nm8mGoL06A_14mockall_derive, symObjAddr: 0xC5CC, symBinAddr: 0x48600, symSize: 0x24 }
  - { offset: 0x30DBC, size: 0x8, addend: 0x0, symName: __RNvXs7_NtCse1nGBsou5OW_5alloc3vecINtB5_3VecTNtNtCs6IAuOt8vWmF_3syn4path15GenericArgumentNtNtBK_5token5CommaEENtNtNtCsfvfooZQ3Axs_4core3ops5deref8DerefMut9deref_mutCs2nm8mGoL06A_14mockall_derive, symObjAddr: 0xC5F0, symBinAddr: 0x48624, symSize: 0x24 }
  - { offset: 0x30DFC, size: 0x8, addend: 0x0, symName: __RNvXs7_NtCse1nGBsou5OW_5alloc3vecINtB5_3VecTNtNtCs6IAuOt8vWmF_3syn8generics14TypeParamBoundNtNtBK_5token4PlusEENtNtNtCsfvfooZQ3Axs_4core3ops5deref8DerefMut9deref_mutCs2nm8mGoL06A_14mockall_derive, symObjAddr: 0xC614, symBinAddr: 0x48648, symSize: 0x24 }
  - { offset: 0x30E3C, size: 0x8, addend: 0x0, symName: __RNvXs7_NtCse1nGBsou5OW_5alloc3vecINtB5_3VecTNtNtCs6IAuOt8vWmF_3syn8generics14WherePredicateNtNtBK_5token5CommaEENtNtNtCsfvfooZQ3Axs_4core3ops5deref8DerefMut9deref_mutCs2nm8mGoL06A_14mockall_derive, symObjAddr: 0xC638, symBinAddr: 0x4866C, symSize: 0x24 }
  - { offset: 0x30E82, size: 0x8, addend: 0x0, symName: __RNvXs9_NtCse1nGBsou5OW_5alloc3vecINtB5_3VecNtCs3cP53eQoTwO_11proc_macro211TokenStreamENtNtCsfvfooZQ3Axs_4core5clone5Clone5cloneCs2nm8mGoL06A_14mockall_derive, symObjAddr: 0xC65C, symBinAddr: 0x48690, symSize: 0x88 }
  - { offset: 0x31079, size: 0x8, addend: 0x0, symName: __RNvXs9_NtCse1nGBsou5OW_5alloc3vecINtB5_3VecNtCs3cP53eQoTwO_11proc_macro25IdentENtNtCsfvfooZQ3Axs_4core5clone5Clone5cloneCs2nm8mGoL06A_14mockall_derive, symObjAddr: 0xC6E4, symBinAddr: 0x48718, symSize: 0x88 }
  - { offset: 0x31270, size: 0x8, addend: 0x0, symName: __RNvXs9_NtCse1nGBsou5OW_5alloc3vecINtB5_3VecNtNtCs2nm8mGoL06A_14mockall_derive13mock_function12MockFunctionENtNtCsfvfooZQ3Axs_4core5clone5Clone5cloneBJ_, symObjAddr: 0xC76C, symBinAddr: 0x487A0, symSize: 0x88 }
  - { offset: 0x31467, size: 0x8, addend: 0x0, symName: __RNvXs9_NtCse1nGBsou5OW_5alloc3vecINtB5_3VecNtNtCs6IAuOt8vWmF_3syn2ty4TypeENtNtCsfvfooZQ3Axs_4core5clone5Clone5cloneCs2nm8mGoL06A_14mockall_derive, symObjAddr: 0xC7F4, symBinAddr: 0x48828, symSize: 0x88 }
  - { offset: 0x3165E, size: 0x8, addend: 0x0, symName: __RNvXs9_NtCse1nGBsou5OW_5alloc3vecINtB5_3VecNtNtCs6IAuOt8vWmF_3syn3pat3PatENtNtCsfvfooZQ3Axs_4core5clone5Clone5cloneCs2nm8mGoL06A_14mockall_derive, symObjAddr: 0xC87C, symBinAddr: 0x488B0, symSize: 0x88 }
  - { offset: 0x31855, size: 0x8, addend: 0x0, symName: __RNvXs9_NtCse1nGBsou5OW_5alloc3vecINtB5_3VecTNtNtCs6IAuOt8vWmF_3syn8generics13LifetimeParamNtNtBK_5token5CommaEENtNtCsfvfooZQ3Axs_4core5clone5Clone5cloneCs2nm8mGoL06A_14mockall_derive, symObjAddr: 0xC904, symBinAddr: 0x48938, symSize: 0x88 }
  - { offset: 0x31A57, size: 0x8, addend: 0x0, symName: __RNvXs_NtNtCse1nGBsou5OW_5alloc3vec16in_place_collectINtB6_3VecNtNtCs2nm8mGoL06A_14mockall_derive10mock_trait9MockTraitEINtNtB6_14spec_from_iter12SpecFromIterBY_INtNtNtNtCsfvfooZQ3Axs_4core4iter8adapters3map3MapINtNtB6_9into_iter8IntoIterNtNtCs6IAuOt8vWmF_3syn4item8ItemImplENCNvXs0_NtB12_16mock_item_structNtB4w_14MockItemStructINtNtB2H_7convert4FromNtNtB12_15mockable_struct14MockableStructE4froms1_0EE9from_iterB12_, symObjAddr: 0xCC0C, symBinAddr: 0x48C40, symSize: 0x28 }
  - { offset: 0x31AB3, size: 0x8, addend: 0x0, symName: __RNvXs_NtNtCse1nGBsou5OW_5alloc3vec16in_place_collectINtB6_3VecNtNtCs2nm8mGoL06A_14mockall_derive13mock_function12MockFunctionEINtNtB6_14spec_from_iter12SpecFromIterBY_INtNtNtNtCsfvfooZQ3Axs_4core4iter8adapters3map3MapINtNtB6_9into_iter8IntoIterNtNtCs6IAuOt8vWmF_3syn4item10ImplItemFnENCNvXs0_NtB12_16mock_item_structNtB4G_14MockItemStructINtNtB2O_7convert4FromNtNtB12_15mockable_struct14MockableStructE4froms0_0EE9from_iterB12_, symObjAddr: 0xCC34, symBinAddr: 0x48C68, symSize: 0x28 }
  - { offset: 0x31B0F, size: 0x8, addend: 0x0, symName: __RNvXs_NtNtCse1nGBsou5OW_5alloc3vec16in_place_collectINtB6_3VecNtNtCs6IAuOt8vWmF_3syn4item4ItemEINtNtB6_14spec_from_iter12SpecFromIterBY_INtNtNtNtCsfvfooZQ3Axs_4core4iter8adapters3map3MapINtNtB6_9into_iter8IntoIterBY_ENvNtCs2nm8mGoL06A_14mockall_derive13mockable_item13mockable_itemEE9from_iterB3x_, symObjAddr: 0xCC5C, symBinAddr: 0x48C90, symSize: 0x28 }
  - { offset: 0x31B6B, size: 0x8, addend: 0x0, symName: __RNvXs_NtNtCse1nGBsou5OW_5alloc3vec16in_place_collectINtB6_3VecNtNtCs6IAuOt8vWmF_3syn4item8ImplItemEINtNtB6_14spec_from_iter12SpecFromIterBY_INtNtNtNtCsfvfooZQ3Axs_4core4iter8adapters3map3MapINtNtB6_9into_iter8IntoIterNtB10_9TraitItemENCNvNtCs2nm8mGoL06A_14mockall_derive15mockable_struct14mockable_trait0EE9from_iterB3Q_, symObjAddr: 0xCC84, symBinAddr: 0x48CB8, symSize: 0x28 }
  - { offset: 0x31BCE, size: 0x8, addend: 0x0, symName: __RNvXsb_NtCse1nGBsou5OW_5alloc3vecINtB5_3VecTNtNtCs6IAuOt8vWmF_3syn8generics13LifetimeParamNtNtBK_5token5CommaEEINtNtNtCsfvfooZQ3Axs_4core3ops5index5IndexjE5indexCs2nm8mGoL06A_14mockall_derive, symObjAddr: 0xDC90, symBinAddr: 0x49CC4, symSize: 0x84 }
  - { offset: 0x31D56, size: 0x8, addend: 0x0, symName: __RNvXse_NtCse1nGBsou5OW_5alloc3vecINtB5_3VecNtCs3cP53eQoTwO_11proc_macro211TokenStreamENtNtNtNtCsfvfooZQ3Axs_4core4iter6traits7collect12IntoIterator9into_iterCs2nm8mGoL06A_14mockall_derive, symObjAddr: 0xDD14, symBinAddr: 0x49D48, symSize: 0xDC }
  - { offset: 0x31FE8, size: 0x8, addend: 0x0, symName: __RNvXse_NtCse1nGBsou5OW_5alloc3vecINtB5_3VecNtNtCs6IAuOt8vWmF_3syn4item10ImplItemFnENtNtNtNtCsfvfooZQ3Axs_4core4iter6traits7collect12IntoIterator9into_iterCs2nm8mGoL06A_14mockall_derive, symObjAddr: 0xDDF0, symBinAddr: 0x49E24, symSize: 0xE4 }
  - { offset: 0x3227A, size: 0x8, addend: 0x0, symName: __RNvXse_NtCse1nGBsou5OW_5alloc3vecINtB5_3VecNtNtCs6IAuOt8vWmF_3syn4item11ForeignItemENtNtNtNtCsfvfooZQ3Axs_4core4iter6traits7collect12IntoIterator9into_iterCs2nm8mGoL06A_14mockall_derive, symObjAddr: 0xDED4, symBinAddr: 0x49F08, symSize: 0xE4 }
  - { offset: 0x3250C, size: 0x8, addend: 0x0, symName: __RNvXse_NtCse1nGBsou5OW_5alloc3vecINtB5_3VecNtNtCs6IAuOt8vWmF_3syn4item4ItemENtNtNtNtCsfvfooZQ3Axs_4core4iter6traits7collect12IntoIterator9into_iterCs2nm8mGoL06A_14mockall_derive, symObjAddr: 0xDFB8, symBinAddr: 0x49FEC, symSize: 0xE4 }
  - { offset: 0x3279E, size: 0x8, addend: 0x0, symName: __RNvXse_NtCse1nGBsou5OW_5alloc3vecINtB5_3VecNtNtCs6IAuOt8vWmF_3syn4item8ImplItemENtNtNtNtCsfvfooZQ3Axs_4core4iter6traits7collect12IntoIterator9into_iterCs2nm8mGoL06A_14mockall_derive, symObjAddr: 0xE09C, symBinAddr: 0x4A0D0, symSize: 0xE4 }
  - { offset: 0x32A30, size: 0x8, addend: 0x0, symName: __RNvXse_NtCse1nGBsou5OW_5alloc3vecINtB5_3VecNtNtCs6IAuOt8vWmF_3syn4item8ItemImplENtNtNtNtCsfvfooZQ3Axs_4core4iter6traits7collect12IntoIterator9into_iterCs2nm8mGoL06A_14mockall_derive, symObjAddr: 0xE180, symBinAddr: 0x4A1B4, symSize: 0xE4 }
  - { offset: 0x32CC2, size: 0x8, addend: 0x0, symName: __RNvXse_NtCse1nGBsou5OW_5alloc3vecINtB5_3VecNtNtCs6IAuOt8vWmF_3syn4item9TraitItemENtNtNtNtCsfvfooZQ3Axs_4core4iter6traits7collect12IntoIterator9into_iterCs2nm8mGoL06A_14mockall_derive, symObjAddr: 0xE264, symBinAddr: 0x4A298, symSize: 0xE4 }
  - { offset: 0x32F54, size: 0x8, addend: 0x0, symName: __RNvXse_NtCse1nGBsou5OW_5alloc3vecINtB5_3VecNtNtCs6IAuOt8vWmF_3syn8generics12GenericParamENtNtNtNtCsfvfooZQ3Axs_4core4iter6traits7collect12IntoIterator9into_iterCs2nm8mGoL06A_14mockall_derive, symObjAddr: 0xE348, symBinAddr: 0x4A37C, symSize: 0xE4 }
  - { offset: 0x331E6, size: 0x8, addend: 0x0, symName: __RNvXse_NtCse1nGBsou5OW_5alloc3vecINtB5_3VecNtNtCs6IAuOt8vWmF_3syn8generics13LifetimeParamENtNtNtNtCsfvfooZQ3Axs_4core4iter6traits7collect12IntoIterator9into_iterCs2nm8mGoL06A_14mockall_derive, symObjAddr: 0xE42C, symBinAddr: 0x4A460, symSize: 0xE4 }
  - { offset: 0x33478, size: 0x8, addend: 0x0, symName: __RNvXse_NtCse1nGBsou5OW_5alloc3vecINtB5_3VecTNtNtCs6IAuOt8vWmF_3syn8generics12GenericParamNtNtBK_5token5CommaEENtNtNtNtCsfvfooZQ3Axs_4core4iter6traits7collect12IntoIterator9into_iterCs2nm8mGoL06A_14mockall_derive, symObjAddr: 0xE510, symBinAddr: 0x4A544, symSize: 0xE4 }
  - { offset: 0x3370A, size: 0x8, addend: 0x0, symName: __RNvXse_NtCse1nGBsou5OW_5alloc3vecINtB5_3VecTNtNtCs6IAuOt8vWmF_3syn8generics13LifetimeParamNtNtBK_5token5CommaEENtNtNtNtCsfvfooZQ3Axs_4core4iter6traits7collect12IntoIterator9into_iterCs2nm8mGoL06A_14mockall_derive, symObjAddr: 0xE5F4, symBinAddr: 0x4A628, symSize: 0xE4 }
  - { offset: 0x339A2, size: 0x8, addend: 0x0, symName: __RNvXsn_NtCse1nGBsou5OW_5alloc3vecINtB5_3VecNtCs3cP53eQoTwO_11proc_macro211TokenStreamENtNtNtCsfvfooZQ3Axs_4core3ops4drop4Drop4dropCs2nm8mGoL06A_14mockall_derive, symObjAddr: 0xE6D8, symBinAddr: 0x4A70C, symSize: 0x38 }
  - { offset: 0x33A52, size: 0x8, addend: 0x0, symName: __RNvXsn_NtCse1nGBsou5OW_5alloc3vecINtB5_3VecNtCs3cP53eQoTwO_11proc_macro25IdentENtNtNtCsfvfooZQ3Axs_4core3ops4drop4Drop4dropCs2nm8mGoL06A_14mockall_derive, symObjAddr: 0xE710, symBinAddr: 0x4A744, symSize: 0x38 }
  - { offset: 0x33B02, size: 0x8, addend: 0x0, symName: __RNvXsn_NtCse1nGBsou5OW_5alloc3vecINtB5_3VecNtNtCs2nm8mGoL06A_14mockall_derive10mock_trait9MockTraitENtNtNtCsfvfooZQ3Axs_4core3ops4drop4Drop4dropBJ_, symObjAddr: 0xE748, symBinAddr: 0x4A77C, symSize: 0x38 }
  - { offset: 0x33BB2, size: 0x8, addend: 0x0, symName: __RNvXsn_NtCse1nGBsou5OW_5alloc3vecINtB5_3VecNtNtCs2nm8mGoL06A_14mockall_derive13mock_function12MockFunctionENtNtNtCsfvfooZQ3Axs_4core3ops4drop4Drop4dropBJ_, symObjAddr: 0xE780, symBinAddr: 0x4A7B4, symSize: 0x38 }
  - { offset: 0x33C62, size: 0x8, addend: 0x0, symName: __RNvXsn_NtCse1nGBsou5OW_5alloc3vecINtB5_3VecNtNtCs2nm8mGoL06A_14mockall_derive16mock_item_struct17MockItemTraitImplENtNtNtCsfvfooZQ3Axs_4core3ops4drop4Drop4dropBJ_, symObjAddr: 0xE7B8, symBinAddr: 0x4A7EC, symSize: 0x38 }
  - { offset: 0x33D12, size: 0x8, addend: 0x0, symName: __RNvXsn_NtCse1nGBsou5OW_5alloc3vecINtB5_3VecNtNtCs2nm8mGoL06A_14mockall_derive9mock_item15MockItemContentENtNtNtCsfvfooZQ3Axs_4core3ops4drop4Drop4dropBJ_, symObjAddr: 0xE7F0, symBinAddr: 0x4A824, symSize: 0x38 }
  - { offset: 0x33DC2, size: 0x8, addend: 0x0, symName: __RNvXsn_NtCse1nGBsou5OW_5alloc3vecINtB5_3VecNtNtCs6IAuOt8vWmF_3syn2ty4TypeENtNtNtCsfvfooZQ3Axs_4core3ops4drop4Drop4dropCs2nm8mGoL06A_14mockall_derive, symObjAddr: 0xE828, symBinAddr: 0x4A85C, symSize: 0x38 }
  - { offset: 0x33E72, size: 0x8, addend: 0x0, symName: __RNvXsn_NtCse1nGBsou5OW_5alloc3vecINtB5_3VecNtNtCs6IAuOt8vWmF_3syn3pat3PatENtNtNtCsfvfooZQ3Axs_4core3ops4drop4Drop4dropCs2nm8mGoL06A_14mockall_derive, symObjAddr: 0xE860, symBinAddr: 0x4A894, symSize: 0x38 }
  - { offset: 0x33F22, size: 0x8, addend: 0x0, symName: __RNvXsn_NtCse1nGBsou5OW_5alloc3vecINtB5_3VecNtNtCs6IAuOt8vWmF_3syn4expr5IndexENtNtNtCsfvfooZQ3Axs_4core3ops4drop4Drop4dropCs2nm8mGoL06A_14mockall_derive, symObjAddr: 0xE898, symBinAddr: 0x4A8CC, symSize: 0x24 }
  - { offset: 0x33FD2, size: 0x8, addend: 0x0, symName: __RNvXsn_NtCse1nGBsou5OW_5alloc3vecINtB5_3VecNtNtCs6IAuOt8vWmF_3syn4item10ImplItemFnENtNtNtCsfvfooZQ3Axs_4core3ops4drop4Drop4dropCs2nm8mGoL06A_14mockall_derive, symObjAddr: 0xE8BC, symBinAddr: 0x4A8F0, symSize: 0x38 }
  - { offset: 0x34082, size: 0x8, addend: 0x0, symName: __RNvXsn_NtCse1nGBsou5OW_5alloc3vecINtB5_3VecNtNtCs6IAuOt8vWmF_3syn4item12ImplItemTypeENtNtNtCsfvfooZQ3Axs_4core3ops4drop4Drop4dropCs2nm8mGoL06A_14mockall_derive, symObjAddr: 0xE8F4, symBinAddr: 0x4A928, symSize: 0x38 }
  - { offset: 0x34132, size: 0x8, addend: 0x0, symName: __RNvXsn_NtCse1nGBsou5OW_5alloc3vecINtB5_3VecNtNtCs6IAuOt8vWmF_3syn4item13ImplItemConstENtNtNtCsfvfooZQ3Axs_4core3ops4drop4Drop4dropCs2nm8mGoL06A_14mockall_derive, symObjAddr: 0xE92C, symBinAddr: 0x4A960, symSize: 0x38 }
  - { offset: 0x341E2, size: 0x8, addend: 0x0, symName: __RNvXsn_NtCse1nGBsou5OW_5alloc3vecINtB5_3VecNtNtCs6IAuOt8vWmF_3syn4item5FnArgENtNtNtCsfvfooZQ3Axs_4core3ops4drop4Drop4dropCs2nm8mGoL06A_14mockall_derive, symObjAddr: 0xE964, symBinAddr: 0x4A998, symSize: 0x38 }
  - { offset: 0x34292, size: 0x8, addend: 0x0, symName: __RNvXsn_NtCse1nGBsou5OW_5alloc3vecINtB5_3VecNtNtCs6IAuOt8vWmF_3syn4item8ItemImplENtNtNtCsfvfooZQ3Axs_4core3ops4drop4Drop4dropCs2nm8mGoL06A_14mockall_derive, symObjAddr: 0xE99C, symBinAddr: 0x4A9D0, symSize: 0x38 }
  - { offset: 0x34342, size: 0x8, addend: 0x0, symName: __RNvXsn_NtCse1nGBsou5OW_5alloc3vecINtB5_3VecNtNtCs6IAuOt8vWmF_3syn8generics12GenericParamENtNtNtCsfvfooZQ3Axs_4core3ops4drop4Drop4dropCs2nm8mGoL06A_14mockall_derive, symObjAddr: 0xE9D4, symBinAddr: 0x4AA08, symSize: 0x38 }
  - { offset: 0x343F2, size: 0x8, addend: 0x0, symName: __RNvXsn_NtCse1nGBsou5OW_5alloc3vecINtB5_3VecNtNtCs6IAuOt8vWmF_3syn8generics13LifetimeParamENtNtNtCsfvfooZQ3Axs_4core3ops4drop4Drop4dropCs2nm8mGoL06A_14mockall_derive, symObjAddr: 0xEA0C, symBinAddr: 0x4AA40, symSize: 0x38 }
  - { offset: 0x344A2, size: 0x8, addend: 0x0, symName: __RNvXsn_NtCse1nGBsou5OW_5alloc3vecINtB5_3VecTNtCs3cP53eQoTwO_11proc_macro25IdentNtNtCs6IAuOt8vWmF_3syn5token5CommaEENtNtNtCsfvfooZQ3Axs_4core3ops4drop4Drop4dropCs2nm8mGoL06A_14mockall_derive, symObjAddr: 0xEA44, symBinAddr: 0x4AA78, symSize: 0x38 }
  - { offset: 0x34552, size: 0x8, addend: 0x0, symName: __RNvXsn_NtCse1nGBsou5OW_5alloc3vecINtB5_3VecTNtNtCs6IAuOt8vWmF_3syn8generics13LifetimeParamNtNtBK_5token5CommaEENtNtNtCsfvfooZQ3Axs_4core3ops4drop4Drop4dropCs2nm8mGoL06A_14mockall_derive, symObjAddr: 0xEA7C, symBinAddr: 0x4AAB0, symSize: 0x38 }
  - { offset: 0x34608, size: 0x8, addend: 0x0, symName: __RNvXso_NtCse1nGBsou5OW_5alloc3vecINtB5_3VecNtNtCs6IAuOt8vWmF_3syn4attr9AttributeENtNtCsfvfooZQ3Axs_4core7default7Default7defaultCs2nm8mGoL06A_14mockall_derive, symObjAddr: 0xEAB4, symBinAddr: 0x4AAE8, symSize: 0x14 }
  - { offset: 0x3462A, size: 0x8, addend: 0x0, symName: __RNvXso_NtCse1nGBsou5OW_5alloc3vecINtB5_3VecNtNtCs6IAuOt8vWmF_3syn4attr9AttributeENtNtCsfvfooZQ3Axs_4core7default7Default7defaultCs2nm8mGoL06A_14mockall_derive, symObjAddr: 0xEAB4, symBinAddr: 0x4AAE8, symSize: 0x14 }
  - { offset: 0x3A443, size: 0x8, addend: 0x0, symName: __RINvMsi_NtCse1nGBsou5OW_5alloc3vecINtB6_3VecNtCs3cP53eQoTwO_11proc_macro211TokenStreamE14extend_trustedINtNtNtNtCsfvfooZQ3Axs_4core4iter8adapters3map3MapINtNtNtB1M_5slice4iter4IterNtNtCs2nm8mGoL06A_14mockall_derive10mock_trait9MockTraitENCNvXs1_NtB2W_16mock_item_structNtB3V_14MockItemStructNtNtCs2cqEZUIJimJ_5quote9to_tokens8ToTokens9to_tokenssa_0EEB2W_, symObjAddr: 0x0, symBinAddr: 0x3C034, symSize: 0x17C }
  - { offset: 0x3A708, size: 0x8, addend: 0x0, symName: __RINvMsi_NtCse1nGBsou5OW_5alloc3vecINtB6_3VecNtCs3cP53eQoTwO_11proc_macro211TokenStreamE14extend_trustedINtNtNtNtCsfvfooZQ3Axs_4core4iter8adapters3map3MapINtNtNtB1M_5slice4iter4IterNtNtCs2nm8mGoL06A_14mockall_derive13mock_function12MockFunctionENCNvMNtB2W_10mock_traitNtB3Z_9MockTrait10trait_impl0EEB2W_, symObjAddr: 0x17C, symBinAddr: 0x3C1B0, symSize: 0x17C }
  - { offset: 0x3A9A6, size: 0x8, addend: 0x0, symName: __RINvMsi_NtCse1nGBsou5OW_5alloc3vecINtB6_3VecNtCs3cP53eQoTwO_11proc_macro211TokenStreamE14extend_trustedINtNtNtNtCsfvfooZQ3Axs_4core4iter8adapters3map3MapINtNtNtB1M_5slice4iter4IterNtNtCs2nm8mGoL06A_14mockall_derive13mock_function12MockFunctionENCNvMNtB2W_16mock_item_structNtB3Z_7Methods9priv_mods0EEB2W_, symObjAddr: 0x2F8, symBinAddr: 0x3C32C, symSize: 0x170 }
  - { offset: 0x3AC43, size: 0x8, addend: 0x0, symName: __RINvMsi_NtCse1nGBsou5OW_5alloc3vecINtB6_3VecNtCs3cP53eQoTwO_11proc_macro211TokenStreamE14extend_trustedINtNtNtNtCsfvfooZQ3Axs_4core4iter8adapters3map3MapINtNtNtB1M_5slice4iter4IterNtNtCs2nm8mGoL06A_14mockall_derive13mock_function12MockFunctionENCNvXs1_NtB2W_16mock_item_structNtB42_14MockItemStructNtNtCs2cqEZUIJimJ_5quote9to_tokens8ToTokens9to_tokens0EEB2W_, symObjAddr: 0x468, symBinAddr: 0x3C49C, symSize: 0x17C }
  - { offset: 0x3AFCA, size: 0x8, addend: 0x0, symName: __RINvMsi_NtCse1nGBsou5OW_5alloc3vecINtB6_3VecNtCs3cP53eQoTwO_11proc_macro211TokenStreamE16extend_desugaredINtNtNtNtCsfvfooZQ3Axs_4core4iter8adapters10filter_map9FilterMapINtNtB1K_9enumerate9EnumerateINtNtCs6IAuOt8vWmF_3syn10punctuated4IterNtNtB3f_8generics12GenericParamEENCNvNtCs2nm8mGoL06A_14mockall_derive16mock_item_struct14phantom_fields0EEB4r_, symObjAddr: 0x5E4, symBinAddr: 0x3C618, symSize: 0x1D8 }
  - { offset: 0x3B6C0, size: 0x8, addend: 0x0, symName: __RINvMsi_NtCse1nGBsou5OW_5alloc3vecINtB6_3VecNtCs3cP53eQoTwO_11proc_macro211TokenStreamE16extend_desugaredINtNtNtNtCsfvfooZQ3Axs_4core4iter8adapters10filter_map9FilterMapINtNtCs6IAuOt8vWmF_3syn10punctuated4IterNtNtB2M_4item5FnArgENCNvCs2nm8mGoL06A_14mockall_derive11declosurefys3_0EEB3J_, symObjAddr: 0x7BC, symBinAddr: 0x3C7F0, symSize: 0x1D8 }
  - { offset: 0x3BAA1, size: 0x8, addend: 0x0, symName: __RINvMsi_NtCse1nGBsou5OW_5alloc3vecINtB6_3VecNtCs3cP53eQoTwO_11proc_macro211TokenStreamE16extend_desugaredINtNtNtNtCsfvfooZQ3Axs_4core4iter8adapters10filter_map9FilterMapINtNtCs6IAuOt8vWmF_3syn10punctuated4IterNtNtB2M_4item5FnArgENCNvCs2nm8mGoL06A_14mockall_derive15concretize_argss0_0EEB3J_, symObjAddr: 0x994, symBinAddr: 0x3C9C8, symSize: 0x1D8 }
  - { offset: 0x3BE44, size: 0x8, addend: 0x0, symName: __RINvMsi_NtCse1nGBsou5OW_5alloc3vecINtB6_3VecNtCs3cP53eQoTwO_11proc_macro211TokenStreamE16extend_desugaredINtNtNtNtCsfvfooZQ3Axs_4core4iter8adapters3map3MapINtNtB1K_6filter6FilterINtNtNtB1O_5slice4iter4IterNtNtCs2nm8mGoL06A_14mockall_derive13mock_function12MockFunctionENCNvMNtB3l_10mock_traitNtB4o_9MockTrait10trait_impls1_0ENCB4l_s2_0EEB3l_, symObjAddr: 0xB6C, symBinAddr: 0x3CBA0, symSize: 0x1C4 }
  - { offset: 0x3C1DA, size: 0x8, addend: 0x0, symName: __RINvMsi_NtCse1nGBsou5OW_5alloc3vecINtB6_3VecNtCs3cP53eQoTwO_11proc_macro211TokenStreamE16extend_desugaredINtNtNtNtCsfvfooZQ3Axs_4core4iter8adapters3map3MapINtNtB1K_6filter6FilterINtNtNtB1O_5slice4iter4IterNtNtCs2nm8mGoL06A_14mockall_derive13mock_function12MockFunctionENCNvMNtB3l_10mock_traitNtB4o_9MockTrait10trait_impls_0ENCB4l_s0_0EEB3l_, symObjAddr: 0xD30, symBinAddr: 0x3CD64, symSize: 0x1C4 }
  - { offset: 0x3C570, size: 0x8, addend: 0x0, symName: __RINvMsi_NtCse1nGBsou5OW_5alloc3vecINtB6_3VecNtCs3cP53eQoTwO_11proc_macro211TokenStreamE16extend_desugaredINtNtNtNtCsfvfooZQ3Axs_4core4iter8adapters3map3MapINtNtB1K_6filter6FilterINtNtNtB1O_5slice4iter4IterNtNtCs2nm8mGoL06A_14mockall_derive13mock_function12MockFunctionENCNvMNtB3l_16mock_item_structNtB4o_7Methods11checkpoints0ENCB4l_s_0EEB3l_, symObjAddr: 0xEF4, symBinAddr: 0x3CF28, symSize: 0x1C8 }
  - { offset: 0x3C905, size: 0x8, addend: 0x0, symName: __RINvMsi_NtCse1nGBsou5OW_5alloc3vecINtB6_3VecNtCs3cP53eQoTwO_11proc_macro211TokenStreamE16extend_desugaredINtNtNtNtCsfvfooZQ3Axs_4core4iter8adapters3map3MapINtNtB1K_6filter6FilterINtNtNtB1O_5slice4iter4IterNtNtCs2nm8mGoL06A_14mockall_derive13mock_function12MockFunctionENCNvMNtB3l_16mock_item_structNtB4o_7Methods13default_inits0ENCB4l_s_0EEB3l_, symObjAddr: 0x10BC, symBinAddr: 0x3D0F0, symSize: 0x1C8 }
  - { offset: 0x3CC9A, size: 0x8, addend: 0x0, symName: __RINvMsi_NtCse1nGBsou5OW_5alloc3vecINtB6_3VecNtCs3cP53eQoTwO_11proc_macro211TokenStreamE16extend_desugaredINtNtNtNtCsfvfooZQ3Axs_4core4iter8adapters3map3MapINtNtB1K_6filter6FilterINtNtNtB1O_5slice4iter4IterNtNtCs2nm8mGoL06A_14mockall_derive13mock_function12MockFunctionENCNvMNtB3l_16mock_item_structNtB4o_7Methods17field_definitions0ENCB4l_s_0EEB3l_, symObjAddr: 0x1284, symBinAddr: 0x3D2B8, symSize: 0x1C4 }
  - { offset: 0x3D030, size: 0x8, addend: 0x0, symName: __RINvMsi_NtCse1nGBsou5OW_5alloc3vecINtB6_3VecNtCs3cP53eQoTwO_11proc_macro211TokenStreamE16extend_desugaredINtNtNtNtCsfvfooZQ3Axs_4core4iter8adapters3map3MapINtNtB1K_6filter6FilterINtNtNtB1O_5slice4iter4IterNtNtCs2nm8mGoL06A_14mockall_derive13mock_function12MockFunctionENCNvXs1_NtB3l_16mock_item_structNtB4r_14MockItemStructNtNtCs2cqEZUIJimJ_5quote9to_tokens8ToTokens9to_tokenss1_0ENCB4l_s2_0EEB3l_, symObjAddr: 0x1448, symBinAddr: 0x3D47C, symSize: 0x1C4 }
  - { offset: 0x3D3C6, size: 0x8, addend: 0x0, symName: __RINvMsi_NtCse1nGBsou5OW_5alloc3vecINtB6_3VecNtCs3cP53eQoTwO_11proc_macro211TokenStreamE16extend_desugaredINtNtNtNtCsfvfooZQ3Axs_4core4iter8adapters3map3MapINtNtB1K_6filter6FilterINtNtNtB1O_5slice4iter4IterNtNtCs2nm8mGoL06A_14mockall_derive13mock_function12MockFunctionENCNvXs1_NtB3l_16mock_item_structNtB4r_14MockItemStructNtNtCs2cqEZUIJimJ_5quote9to_tokens8ToTokens9to_tokenss_0ENCB4l_s0_0EEB3l_, symObjAddr: 0x160C, symBinAddr: 0x3D640, symSize: 0x1C4 }
  - { offset: 0x3D776, size: 0x8, addend: 0x0, symName: __RINvMsi_NtCse1nGBsou5OW_5alloc3vecINtB6_3VecNtCs3cP53eQoTwO_11proc_macro211TokenStreamE16extend_desugaredINtNtNtNtCsfvfooZQ3Axs_4core4iter8adapters3map3MapINtNtB1K_6filter6FilterINtNtNtB1O_5slice4iter4IterNtNtCs2nm8mGoL06A_14mockall_derive16mock_item_struct17MockItemTraitImplENCNvXs1_B3j_NtB3j_14MockItemStructNtNtCs2cqEZUIJimJ_5quote9to_tokens8ToTokens9to_tokenss4_0ENCB4t_s5_0EEB3l_, symObjAddr: 0x17D0, symBinAddr: 0x3D804, symSize: 0x1C8 }
  - { offset: 0x3DB25, size: 0x8, addend: 0x0, symName: __RINvMsi_NtCse1nGBsou5OW_5alloc3vecINtB6_3VecNtCs3cP53eQoTwO_11proc_macro211TokenStreamE16extend_desugaredINtNtNtNtCsfvfooZQ3Axs_4core4iter8adapters3map3MapINtNtB1K_6filter6FilterINtNtNtB1O_5slice4iter4IterNtNtCs2nm8mGoL06A_14mockall_derive16mock_item_struct17MockItemTraitImplENCNvXs1_B3j_NtB3j_14MockItemStructNtNtCs2cqEZUIJimJ_5quote9to_tokens8ToTokens9to_tokenss6_0ENCB4t_s7_0EEB3l_, symObjAddr: 0x1998, symBinAddr: 0x3D9CC, symSize: 0x1C4 }
  - { offset: 0x3DEBB, size: 0x8, addend: 0x0, symName: __RINvMsi_NtCse1nGBsou5OW_5alloc3vecINtB6_3VecNtCs3cP53eQoTwO_11proc_macro211TokenStreamE16extend_desugaredINtNtNtNtCsfvfooZQ3Axs_4core4iter8adapters3map3MapINtNtB1K_6filter6FilterINtNtNtB1O_5slice4iter4IterNtNtCs2nm8mGoL06A_14mockall_derive16mock_item_struct17MockItemTraitImplENCNvXs1_B3j_NtB3j_14MockItemStructNtNtCs2cqEZUIJimJ_5quote9to_tokens8ToTokens9to_tokenss8_0ENCB4t_s9_0EEB3l_, symObjAddr: 0x1B5C, symBinAddr: 0x3DB90, symSize: 0x1C8 }
  - { offset: 0x3E250, size: 0x8, addend: 0x0, symName: __RINvMsi_NtCse1nGBsou5OW_5alloc3vecINtB6_3VecNtCs3cP53eQoTwO_11proc_macro211TokenStreamE16extend_desugaredINtNtNtNtCsfvfooZQ3Axs_4core4iter8adapters3map3MapINtNtB1K_9enumerate9EnumerateINtNtCs6IAuOt8vWmF_3syn10punctuated4IterNtNtB31_8generics12GenericParamEENCNvNtCs2nm8mGoL06A_14mockall_derive16mock_item_struct21phantom_default_inits0EEB4d_, symObjAddr: 0x1D24, symBinAddr: 0x3DD58, symSize: 0x1D8 }
  - { offset: 0x3E586, size: 0x8, addend: 0x0, symName: __RINvMsi_NtCse1nGBsou5OW_5alloc3vecINtB6_3VecNtCs3cP53eQoTwO_11proc_macro25IdentE14extend_trustedINtNtNtNtCsfvfooZQ3Axs_4core4iter8adapters3map3MapINtNtNtB1F_3ops5range5RangejENCNvXs0_NtCs2nm8mGoL06A_14mockall_derive13mock_functionNtB2V_6CommonNtNtCs2cqEZUIJimJ_5quote9to_tokens8ToTokens9to_tokens0EEB2X_, symObjAddr: 0x1EFC, symBinAddr: 0x3DF30, symSize: 0x170 }
  - { offset: 0x3E823, size: 0x8, addend: 0x0, symName: __RINvMsi_NtCse1nGBsou5OW_5alloc3vecINtB6_3VecNtCs3cP53eQoTwO_11proc_macro25IdentE14extend_trustedINtNtNtNtCsfvfooZQ3Axs_4core4iter8adapters3map3MapINtNtNtB1F_3ops5range5RangejENCNvXs1_NtCs2nm8mGoL06A_14mockall_derive13mock_functionNtB2V_24CommonExpectationMethodsNtNtCs2cqEZUIJimJ_5quote9to_tokens8ToTokens9to_tokens0EEB2X_, symObjAddr: 0x206C, symBinAddr: 0x3E0A0, symSize: 0x170 }
  - { offset: 0x3EAC0, size: 0x8, addend: 0x0, symName: __RINvMsi_NtCse1nGBsou5OW_5alloc3vecINtB6_3VecNtCs3cP53eQoTwO_11proc_macro25IdentE14extend_trustedINtNtNtNtCsfvfooZQ3Axs_4core4iter8adapters3map3MapINtNtNtB1F_3ops5range5RangejENCNvXs3_NtCs2nm8mGoL06A_14mockall_derive13mock_functionNtB2V_29ExpectationGuardCommonMethodsNtNtCs2cqEZUIJimJ_5quote9to_tokens8ToTokens9to_tokens0EEB2X_, symObjAddr: 0x21DC, symBinAddr: 0x3E210, symSize: 0x170 }
  - { offset: 0x3EDFE, size: 0x8, addend: 0x0, symName: __RINvMsi_NtCse1nGBsou5OW_5alloc3vecINtB6_3VecNtCs3cP53eQoTwO_11proc_macro25IdentE16extend_desugaredINtNtNtNtCsfvfooZQ3Axs_4core4iter8adapters3map3MapNtNtCs6IAuOt8vWmF_3syn8generics10TypeParamsNCNvMNtCs2nm8mGoL06A_14mockall_derive13mock_functionNtB38_7Builder5builds_0EEB3a_, symObjAddr: 0x234C, symBinAddr: 0x3E380, symSize: 0x1E0 }
  - { offset: 0x3F1FB, size: 0x8, addend: 0x0, symName: __RINvMsi_NtCse1nGBsou5OW_5alloc3vecINtB6_3VecNtCs3cP53eQoTwO_11proc_macro29TokenTreeE16extend_desugaredINtNtNtNtCsfvfooZQ3Axs_4core4iter8adapters7flatten7FlattenINtNtB1H_3map3MapIB2z_IB2z_INtNtB1H_3zip3ZipINtNtNtB1L_5slice4iter4IterNtBI_5IdentEIB3h_NtNtCs6IAuOt8vWmF_3syn2ty4TypeEENCNvXs0_NtCs2nm8mGoL06A_14mockall_derive13mock_functionNtB4C_6CommonNtNtCs2cqEZUIJimJ_5quote9to_tokens8ToTokens9to_tokenss_0ENCINvXs7_BI_NtBI_11TokenStreamINtNtNtB1J_6traits7collect12FromIteratorB6H_E9from_iterB2U_E0ENCINvXs6_NtBI_3impNtB88_11TokenStreamIB70_B8h_E9from_iterB2P_Es_0EEEB4E_, symObjAddr: 0x252C, symBinAddr: 0x3E560, symSize: 0x1D4 }
  - { offset: 0x3F591, size: 0x8, addend: 0x0, symName: __RINvMsi_NtCse1nGBsou5OW_5alloc3vecINtB6_3VecNtCs3cP53eQoTwO_11proc_macro29TokenTreeE16extend_desugaredINtNtNtNtCsfvfooZQ3Axs_4core4iter8adapters7flatten7FlattenINtNtB1H_3map3MapIB2z_IB2z_INtNtB1H_3zip3ZipINtNtNtB1L_5slice4iter4IterNtBI_5IdentEIB3h_NtNtCs6IAuOt8vWmF_3syn2ty4TypeEENCNvXs1_NtCs2nm8mGoL06A_14mockall_derive13mock_functionNtB4C_24CommonExpectationMethodsNtNtCs2cqEZUIJimJ_5quote9to_tokens8ToTokens9to_tokenss_0ENCINvXs7_BI_NtBI_11TokenStreamINtNtNtB1J_6traits7collect12FromIteratorB70_E9from_iterB2U_E0ENCINvXs6_NtBI_3impNtB8r_11TokenStreamIB7j_B8A_E9from_iterB2P_Es_0EEEB4E_, symObjAddr: 0x2700, symBinAddr: 0x3E734, symSize: 0x1D4 }
  - { offset: 0x3F927, size: 0x8, addend: 0x0, symName: __RINvMsi_NtCse1nGBsou5OW_5alloc3vecINtB6_3VecNtCs3cP53eQoTwO_11proc_macro29TokenTreeE16extend_desugaredINtNtNtNtCsfvfooZQ3Axs_4core4iter8adapters7flatten7FlattenINtNtB1H_3map3MapIB2z_IB2z_INtNtB1H_3zip3ZipINtNtNtB1L_5slice4iter4IterNtBI_5IdentEIB3h_NtNtCs6IAuOt8vWmF_3syn2ty4TypeEENCNvXs3_NtCs2nm8mGoL06A_14mockall_derive13mock_functionNtB4C_29ExpectationGuardCommonMethodsNtNtCs2cqEZUIJimJ_5quote9to_tokens8ToTokens9to_tokenss_0ENCINvXs7_BI_NtBI_11TokenStreamINtNtNtB1J_6traits7collect12FromIteratorB75_E9from_iterB2U_E0ENCINvXs6_NtBI_3impNtB8w_11TokenStreamIB7o_B8F_E9from_iterB2P_Es_0EEEB4E_, symObjAddr: 0x28D4, symBinAddr: 0x3E908, symSize: 0x1D4 }
  - { offset: 0x3FCD7, size: 0x8, addend: 0x0, symName: __RINvMsi_NtCse1nGBsou5OW_5alloc3vecINtB6_3VecNtCs3cP53eQoTwO_11proc_macro29TokenTreeE16extend_desugaredINtNtNtNtCsfvfooZQ3Axs_4core4iter8adapters7flatten7FlattenINtNtB1H_3map3MapIB2z_IB2z_INtNtB1H_3zip3ZipINtNtNtB1L_5slice4iter4IterNtNtCs6IAuOt8vWmF_3syn3pat3PatEIB3h_NtBI_5IdentEENCNvXs0_NtCs2nm8mGoL06A_14mockall_derive13mock_functionNtB4C_6CommonNtNtCs2cqEZUIJimJ_5quote9to_tokens8ToTokens9to_tokenss0_0ENCINvXs7_BI_NtBI_11TokenStreamINtNtNtB1J_6traits7collect12FromIteratorB6I_E9from_iterB2U_E0ENCINvXs6_NtBI_3impNtB89_11TokenStreamIB71_B8i_E9from_iterB2P_Es_0EEEB4E_, symObjAddr: 0x2AA8, symBinAddr: 0x3EADC, symSize: 0x1D4 }
  - { offset: 0x4006D, size: 0x8, addend: 0x0, symName: __RINvMsi_NtCse1nGBsou5OW_5alloc3vecINtB6_3VecNtCs3cP53eQoTwO_11proc_macro29TokenTreeE16extend_desugaredINtNtNtNtCsfvfooZQ3Axs_4core4iter8adapters7flatten7FlattenINtNtB1H_3map3MapIB2z_IB2z_INtNtB1H_3zip3ZipINtNtNtB1L_5slice4iter4IterNtNtCs6IAuOt8vWmF_3syn3pat3PatEIB3h_NtBI_5IdentEENCNvXs1_NtCs2nm8mGoL06A_14mockall_derive13mock_functionNtB4C_24CommonExpectationMethodsNtNtCs2cqEZUIJimJ_5quote9to_tokens8ToTokens9to_tokenss0_0ENCINvXs7_BI_NtBI_11TokenStreamINtNtNtB1J_6traits7collect12FromIteratorB71_E9from_iterB2U_E0ENCINvXs6_NtBI_3impNtB8s_11TokenStreamIB7k_B8B_E9from_iterB2P_Es_0EEEB4E_, symObjAddr: 0x2C7C, symBinAddr: 0x3ECB0, symSize: 0x1D4 }
  - { offset: 0x40403, size: 0x8, addend: 0x0, symName: __RINvMsi_NtCse1nGBsou5OW_5alloc3vecINtB6_3VecNtCs3cP53eQoTwO_11proc_macro29TokenTreeE16extend_desugaredINtNtNtNtCsfvfooZQ3Axs_4core4iter8adapters7flatten7FlattenINtNtB1H_3map3MapIB2z_IB2z_INtNtB1H_3zip3ZipINtNtNtB1L_5slice4iter4IterNtNtCs6IAuOt8vWmF_3syn3pat3PatEIB3h_NtBI_5IdentEENCNvXs3_NtCs2nm8mGoL06A_14mockall_derive13mock_functionNtB4C_29ExpectationGuardCommonMethodsNtNtCs2cqEZUIJimJ_5quote9to_tokens8ToTokens9to_tokenss0_0ENCINvXs7_BI_NtBI_11TokenStreamINtNtNtB1J_6traits7collect12FromIteratorB76_E9from_iterB2U_E0ENCINvXs6_NtBI_3impNtB8x_11TokenStreamIB7p_B8G_E9from_iterB2P_Es_0EEEB4E_, symObjAddr: 0x2E50, symBinAddr: 0x3EE84, symSize: 0x1D4 }
  - { offset: 0x40799, size: 0x8, addend: 0x0, symName: __RINvMsi_NtCse1nGBsou5OW_5alloc3vecINtB6_3VecNtCs3cP53eQoTwO_11proc_macro29TokenTreeE16extend_desugaredINtNtNtNtCsfvfooZQ3Axs_4core4iter8adapters7flatten7FlattenINtNtB1H_3map3MapIB2z_IB2z_INtNtB1H_9enumerate9EnumerateINtNtNtB1L_5slice4iter4IterNtNtCs6IAuOt8vWmF_3syn3pat3PatEENCNvXs7_NtCs2nm8mGoL06A_14mockall_derive13mock_functionNtB4x_7MatcherNtNtCs2cqEZUIJimJ_5quote9to_tokens8ToTokens9to_tokenss0_0ENCINvXs7_BI_NtBI_11TokenStreamINtNtNtB1J_6traits7collect12FromIteratorB6E_E9from_iterB2U_E0ENCINvXs6_NtBI_3impNtB85_11TokenStreamIB6X_B8e_E9from_iterB2P_Es_0EEEB4z_, symObjAddr: 0x3024, symBinAddr: 0x3F058, symSize: 0x1D4 }
  - { offset: 0x40B2F, size: 0x8, addend: 0x0, symName: __RINvMsi_NtCse1nGBsou5OW_5alloc3vecINtB6_3VecNtCs3cP53eQoTwO_11proc_macro29TokenTreeE16extend_desugaredINtNtNtNtCsfvfooZQ3Axs_4core4iter8adapters7flatten7FlattenINtNtB1H_3map3MapIB2z_IB2z_INtNtNtB1L_5slice4iter4IterNtNtCs6IAuOt8vWmF_3syn2ty4TypeENCNvXs7_NtCs2nm8mGoL06A_14mockall_derive13mock_functionNtB43_7MatcherNtNtCs2cqEZUIJimJ_5quote9to_tokens8ToTokens9to_tokenss1_0ENCINvXs7_BI_NtBI_11TokenStreamINtNtNtB1J_6traits7collect12FromIteratorB6a_E9from_iterB2U_E0ENCINvXs6_NtBI_3impNtB7B_11TokenStreamIB6t_B7K_E9from_iterB2P_Es_0EEEB45_, symObjAddr: 0x31F8, symBinAddr: 0x3F22C, symSize: 0x1D4 }
  - { offset: 0x40EC5, size: 0x8, addend: 0x0, symName: __RINvMsi_NtCse1nGBsou5OW_5alloc3vecINtB6_3VecNtCs3cP53eQoTwO_11proc_macro29TokenTreeE16extend_desugaredINtNtNtNtCsfvfooZQ3Axs_4core4iter8adapters7flatten7FlattenINtNtB1H_3map3MapIB2z_IB2z_INtNtNtB1L_5slice4iter4IterNtNtCs6IAuOt8vWmF_3syn3pat3PatENCNvXs0_NtCs2nm8mGoL06A_14mockall_derive13mock_functionNtB43_6CommonNtNtCs2cqEZUIJimJ_5quote9to_tokens8ToTokens9to_tokenss1_0ENCINvXs7_BI_NtBI_11TokenStreamINtNtNtB1J_6traits7collect12FromIteratorB69_E9from_iterB2U_E0ENCINvXs6_NtBI_3impNtB7A_11TokenStreamIB6s_B7J_E9from_iterB2P_Es_0EEEB45_, symObjAddr: 0x33CC, symBinAddr: 0x3F400, symSize: 0x1D4 }
  - { offset: 0x41208, size: 0x8, addend: 0x0, symName: __RINvMsi_NtCse1nGBsou5OW_5alloc3vecINtB6_3VecNtNtCs2nm8mGoL06A_14mockall_derive10mock_trait9MockTraitE14extend_trustedINtNtNtNtCsfvfooZQ3Axs_4core4iter8adapters3map3MapINtNtB6_9into_iter8IntoIterNtNtCs6IAuOt8vWmF_3syn4item8ItemImplENCNvXs0_NtBK_16mock_item_structNtB3P_14MockItemStructINtNtB20_7convert4FromNtNtBK_15mockable_struct14MockableStructE4froms1_0EEBK_, symObjAddr: 0x35A0, symBinAddr: 0x3F5D4, symSize: 0x1A0 }
  - { offset: 0x414DB, size: 0x8, addend: 0x0, symName: __RINvMsi_NtCse1nGBsou5OW_5alloc3vecINtB6_3VecNtNtCs2nm8mGoL06A_14mockall_derive13mock_function12MockFunctionE14extend_trustedINtNtNtNtCsfvfooZQ3Axs_4core4iter8adapters3map3MapINtNtB6_9into_iter8IntoIterNtNtCs6IAuOt8vWmF_3syn4item10ImplItemFnENCNvXs0_NtBK_16mock_item_structNtB3Z_14MockItemStructINtNtB27_7convert4FromNtNtBK_15mockable_struct14MockableStructE4froms0_0EEBK_, symObjAddr: 0x3740, symBinAddr: 0x3F774, symSize: 0x1A0 }
  - { offset: 0x4187D, size: 0x8, addend: 0x0, symName: __RINvMsi_NtCse1nGBsou5OW_5alloc3vecINtB6_3VecNtNtCs2nm8mGoL06A_14mockall_derive16mock_item_struct17MockItemTraitImplE16extend_desugaredINtNtNtNtCsfvfooZQ3Axs_4core4iter8adapters3map3MapINtNtB2d_6filter6FilterINtNtNtB2h_5slice4iter4IterNtNtBK_10mock_trait9MockTraitENCINvBI_17unique_trait_iterB3j_E0ENCNvXs1_BI_NtBI_14MockItemStructNtNtCs2cqEZUIJimJ_5quote9to_tokens8ToTokens9to_tokenss3_0EEBK_, symObjAddr: 0x38E0, symBinAddr: 0x3F914, symSize: 0x1FC }
  - { offset: 0x41BC0, size: 0x8, addend: 0x0, symName: __RINvMsi_NtCse1nGBsou5OW_5alloc3vecINtB6_3VecNtNtCs6IAuOt8vWmF_3syn4attr9AttributeE14extend_trustedINtNtNtNtCsfvfooZQ3Axs_4core4iter8adapters6cloned6ClonedINtNtNtB1H_5slice4iter4IterBG_EEECs2nm8mGoL06A_14mockall_derive, symObjAddr: 0x3ADC, symBinAddr: 0x3FB10, symSize: 0x170 }
  - { offset: 0x41F0B, size: 0x8, addend: 0x0, symName: __RINvMsi_NtCse1nGBsou5OW_5alloc3vecINtB6_3VecNtNtCs6IAuOt8vWmF_3syn4attr9AttributeE16extend_desugaredINtNtNtNtCsfvfooZQ3Axs_4core4iter8adapters6cloned6ClonedINtNtB1F_6filter6FilterINtNtNtB1J_5slice4iter4IterBG_ENCNvMCs2nm8mGoL06A_14mockall_deriveNtB3r_13AttrFormatter6format0EEEB3r_, symObjAddr: 0x3C4C, symBinAddr: 0x3FC80, symSize: 0x1DC }
  - { offset: 0x42241, size: 0x8, addend: 0x0, symName: __RINvMsi_NtCse1nGBsou5OW_5alloc3vecINtB6_3VecNtNtCs6IAuOt8vWmF_3syn4expr5IndexE14extend_trustedINtNtNtNtCsfvfooZQ3Axs_4core4iter8adapters3map3MapINtNtNtB1D_3ops5range5RangejENCNvXs7_NtCs2nm8mGoL06A_14mockall_derive13mock_functionNtB2T_7MatcherNtNtCs2cqEZUIJimJ_5quote9to_tokens8ToTokens9to_tokenss_0EEB2V_, symObjAddr: 0x3E28, symBinAddr: 0x3FE5C, symSize: 0x170 }
  - { offset: 0x425B3, size: 0x8, addend: 0x0, symName: __RINvMsi_NtCse1nGBsou5OW_5alloc3vecINtB6_3VecNtNtCs6IAuOt8vWmF_3syn4item5FnArgE16extend_desugaredINtNtNtNtCsfvfooZQ3Axs_4core4iter8adapters3map3MapINtNtBK_10punctuated4IterBG_ENCNvCs2nm8mGoL06A_14mockall_derive11declosurefys2_0EEB2R_, symObjAddr: 0x3F98, symBinAddr: 0x3FFCC, symSize: 0x1FC }
  - { offset: 0x42949, size: 0x8, addend: 0x0, symName: __RINvMsi_NtCse1nGBsou5OW_5alloc3vecINtB6_3VecNtNtCs6IAuOt8vWmF_3syn4item5FnArgE16extend_desugaredINtNtNtNtCsfvfooZQ3Axs_4core4iter8adapters3map3MapINtNtBK_10punctuated4IterBG_ENCNvCs2nm8mGoL06A_14mockall_derive15concretize_argss_0EEB2R_, symObjAddr: 0x4194, symBinAddr: 0x401C8, symSize: 0x1FC }
  - { offset: 0x42C8C, size: 0x8, addend: 0x0, symName: __RINvMsi_NtCse1nGBsou5OW_5alloc3vecINtB6_3VecNtNtCs6IAuOt8vWmF_3syn4item8ImplItemE14extend_trustedINtNtNtNtCsfvfooZQ3Axs_4core4iter8adapters3map3MapINtNtB6_9into_iter8IntoIterNtBI_9TraitItemENCNvNtCs2nm8mGoL06A_14mockall_derive15mockable_struct14mockable_trait0EEB38_, symObjAddr: 0x4390, symBinAddr: 0x403C4, symSize: 0x1A0 }
  - { offset: 0x42F5E, size: 0x8, addend: 0x0, symName: __RINvMsi_NtCse1nGBsou5OW_5alloc3vecINtB6_3VecNtNtCs6IAuOt8vWmF_3syn8generics12GenericParamE14extend_trustedINtNtCsfvfooZQ3Axs_4core6option8IntoIterBG_EECs2nm8mGoL06A_14mockall_derive, symObjAddr: 0x4530, symBinAddr: 0x40564, symSize: 0x1A0 }
  - { offset: 0x43209, size: 0x8, addend: 0x0, symName: __RINvMsi_NtCse1nGBsou5OW_5alloc3vecINtB6_3VecNtNtCs6IAuOt8vWmF_3syn8generics12GenericParamE14extend_trustedINtNtNtNtCsfvfooZQ3Axs_4core4iter8adapters3map3MapINtNtB6_9into_iter8IntoIterTBG_NtNtBK_5token5CommaEENCNvXs8_NtBK_10punctuatedINtB3s_10PunctuatedBG_B2Z_ENtNtNtB1N_6traits7collect12IntoIterator9into_iter0EECs2nm8mGoL06A_14mockall_derive, symObjAddr: 0x46D0, symBinAddr: 0x40704, symSize: 0x188 }
  - { offset: 0x434DB, size: 0x8, addend: 0x0, symName: __RINvMsi_NtCse1nGBsou5OW_5alloc3vecINtB6_3VecNtNtCs6IAuOt8vWmF_3syn8generics13LifetimeParamE14extend_trustedINtNtCsfvfooZQ3Axs_4core6option8IntoIterBG_EECs2nm8mGoL06A_14mockall_derive, symObjAddr: 0x4858, symBinAddr: 0x4088C, symSize: 0x1A0 }
  - { offset: 0x43786, size: 0x8, addend: 0x0, symName: __RINvMsi_NtCse1nGBsou5OW_5alloc3vecINtB6_3VecNtNtCs6IAuOt8vWmF_3syn8generics13LifetimeParamE14extend_trustedINtNtNtNtCsfvfooZQ3Axs_4core4iter8adapters3map3MapINtNtB6_9into_iter8IntoIterTBG_NtNtBK_5token5CommaEENCNvXs8_NtBK_10punctuatedINtB3t_10PunctuatedBG_B30_ENtNtNtB1O_6traits7collect12IntoIterator9into_iter0EECs2nm8mGoL06A_14mockall_derive, symObjAddr: 0x49F8, symBinAddr: 0x40A2C, symSize: 0x188 }
  - { offset: 0x4542E, size: 0x8, addend: 0x0, symName: __RNvMNtCse1nGBsou5OW_5alloc3vecINtB2_3VecNtCs3cP53eQoTwO_11proc_macro211TokenStreamE3newCs2nm8mGoL06A_14mockall_derive, symObjAddr: 0x698C, symBinAddr: 0x429C0, symSize: 0x14 }
  - { offset: 0x4544B, size: 0x8, addend: 0x0, symName: __RNvMNtCse1nGBsou5OW_5alloc3vecINtB2_3VecNtNtCs2nm8mGoL06A_14mockall_derive13mock_function12MockFunctionE3newBG_, symObjAddr: 0x69A0, symBinAddr: 0x429D4, symSize: 0x14 }
  - { offset: 0x45475, size: 0x8, addend: 0x0, symName: __RNvMNtCse1nGBsou5OW_5alloc3vecINtB2_3VecNtNtCs2nm8mGoL06A_14mockall_derive9mock_item15MockItemContentE3newBG_, symObjAddr: 0x69B4, symBinAddr: 0x429E8, symSize: 0x14 }
  - { offset: 0x45492, size: 0x8, addend: 0x0, symName: __RNvMNtCse1nGBsou5OW_5alloc3vecINtB2_3VecNtNtCs6IAuOt8vWmF_3syn2ty4TypeE3newCs2nm8mGoL06A_14mockall_derive, symObjAddr: 0x69C8, symBinAddr: 0x429FC, symSize: 0x14 }
  - { offset: 0x454AF, size: 0x8, addend: 0x0, symName: __RNvMNtCse1nGBsou5OW_5alloc3vecINtB2_3VecNtNtCs6IAuOt8vWmF_3syn3pat3PatE3newCs2nm8mGoL06A_14mockall_derive, symObjAddr: 0x69DC, symBinAddr: 0x42A10, symSize: 0x14 }
  - { offset: 0x454CC, size: 0x8, addend: 0x0, symName: __RNvMNtCse1nGBsou5OW_5alloc3vecINtB2_3VecNtNtCs6IAuOt8vWmF_3syn4item10ImplItemFnE3newCs2nm8mGoL06A_14mockall_derive, symObjAddr: 0x69F0, symBinAddr: 0x42A24, symSize: 0x14 }
  - { offset: 0x454E9, size: 0x8, addend: 0x0, symName: __RNvMNtCse1nGBsou5OW_5alloc3vecINtB2_3VecNtNtCs6IAuOt8vWmF_3syn4item12ImplItemTypeE3newCs2nm8mGoL06A_14mockall_derive, symObjAddr: 0x6A04, symBinAddr: 0x42A38, symSize: 0x14 }
  - { offset: 0x45506, size: 0x8, addend: 0x0, symName: __RNvMNtCse1nGBsou5OW_5alloc3vecINtB2_3VecNtNtCs6IAuOt8vWmF_3syn4item13ImplItemConstE3newCs2nm8mGoL06A_14mockall_derive, symObjAddr: 0x6A18, symBinAddr: 0x42A4C, symSize: 0x14 }
  - { offset: 0x45523, size: 0x8, addend: 0x0, symName: __RNvMNtCse1nGBsou5OW_5alloc3vecINtB2_3VecNtNtCs6IAuOt8vWmF_3syn4item8ItemImplE3newCs2nm8mGoL06A_14mockall_derive, symObjAddr: 0x6A2C, symBinAddr: 0x42A60, symSize: 0x14 }
  - { offset: 0x455A2, size: 0x8, addend: 0x0, symName: __RNvMNtCse1nGBsou5OW_5alloc3vecINtB2_3VecNtNtCs6IAuOt8vWmF_3syn8generics12GenericParamE13with_capacityCs2nm8mGoL06A_14mockall_derive, symObjAddr: 0x6A40, symBinAddr: 0x42A74, symSize: 0x48 }
  - { offset: 0x4567C, size: 0x8, addend: 0x0, symName: __RNvMNtCse1nGBsou5OW_5alloc3vecINtB2_3VecNtNtCs6IAuOt8vWmF_3syn8generics13LifetimeParamE13with_capacityCs2nm8mGoL06A_14mockall_derive, symObjAddr: 0x6A88, symBinAddr: 0x42ABC, symSize: 0x48 }
  - { offset: 0x45712, size: 0x8, addend: 0x0, symName: __RNvMNtCse1nGBsou5OW_5alloc3vecINtB2_3VecTNtCs3cP53eQoTwO_11proc_macro25IdentNtNtCs6IAuOt8vWmF_3syn5token5CommaEE3newCs2nm8mGoL06A_14mockall_derive, symObjAddr: 0x6AD0, symBinAddr: 0x42B04, symSize: 0x14 }
  - { offset: 0x4572F, size: 0x8, addend: 0x0, symName: __RNvMNtCse1nGBsou5OW_5alloc3vecINtB2_3VecTNtNtCs6IAuOt8vWmF_3syn8generics13LifetimeParamNtNtBH_5token5CommaEE3newCs2nm8mGoL06A_14mockall_derive, symObjAddr: 0x6AE4, symBinAddr: 0x42B18, symSize: 0x14 }
  - { offset: 0x45889, size: 0x8, addend: 0x0, symName: __RNvMs2_NtCse1nGBsou5OW_5alloc3vecINtB5_3VecReE11extend_withCs2nm8mGoL06A_14mockall_derive, symObjAddr: 0x6AF8, symBinAddr: 0x42B2C, symSize: 0x234 }
  - { offset: 0x45BFA, size: 0x8, addend: 0x0, symName: __RNvMs_NtCse1nGBsou5OW_5alloc3vecINtB4_3VecNtCs3cP53eQoTwO_11proc_macro211TokenStreamE15append_elementsCs2nm8mGoL06A_14mockall_derive, symObjAddr: 0x6D2C, symBinAddr: 0x42D60, symSize: 0xD8 }
  - { offset: 0x45E2F, size: 0x8, addend: 0x0, symName: __RNvMs_NtCse1nGBsou5OW_5alloc3vecINtB4_3VecNtCs3cP53eQoTwO_11proc_macro211TokenStreamE4pushCs2nm8mGoL06A_14mockall_derive, symObjAddr: 0x6E04, symBinAddr: 0x42E38, symSize: 0x100 }
  - { offset: 0x46113, size: 0x8, addend: 0x0, symName: __RNvMs_NtCse1nGBsou5OW_5alloc3vecINtB4_3VecNtCs3cP53eQoTwO_11proc_macro211TokenStreamE7reserveCs2nm8mGoL06A_14mockall_derive, symObjAddr: 0x6F04, symBinAddr: 0x42F38, symSize: 0xC8 }
  - { offset: 0x46308, size: 0x8, addend: 0x0, symName: __RNvMs_NtCse1nGBsou5OW_5alloc3vecINtB4_3VecNtCs3cP53eQoTwO_11proc_macro211TokenStreamE8as_sliceCs2nm8mGoL06A_14mockall_derive, symObjAddr: 0x6FCC, symBinAddr: 0x43000, symSize: 0x64 }
  - { offset: 0x464D8, size: 0x8, addend: 0x0, symName: __RNvMs_NtCse1nGBsou5OW_5alloc3vecINtB4_3VecNtCs3cP53eQoTwO_11proc_macro25IdentE7reserveCs2nm8mGoL06A_14mockall_derive, symObjAddr: 0x7030, symBinAddr: 0x43064, symSize: 0xC8 }
  - { offset: 0x466D6, size: 0x8, addend: 0x0, symName: __RNvMs_NtCse1nGBsou5OW_5alloc3vecINtB4_3VecNtCs3cP53eQoTwO_11proc_macro25IdentE8as_sliceCs2nm8mGoL06A_14mockall_derive, symObjAddr: 0x70F8, symBinAddr: 0x4312C, symSize: 0x64 }
  - { offset: 0x468A6, size: 0x8, addend: 0x0, symName: __RNvMs_NtCse1nGBsou5OW_5alloc3vecINtB4_3VecNtNtCs2nm8mGoL06A_14mockall_derive10mock_trait9MockTraitE7reserveBI_, symObjAddr: 0x715C, symBinAddr: 0x43190, symSize: 0xC8 }
  - { offset: 0x46AB1, size: 0x8, addend: 0x0, symName: __RNvMs_NtCse1nGBsou5OW_5alloc3vecINtB4_3VecNtNtCs2nm8mGoL06A_14mockall_derive10mock_trait9MockTraitE8as_sliceBI_, symObjAddr: 0x7224, symBinAddr: 0x43258, symSize: 0x64 }
  - { offset: 0x46C4A, size: 0x8, addend: 0x0, symName: __RNvMs_NtCse1nGBsou5OW_5alloc3vecINtB4_3VecNtNtCs2nm8mGoL06A_14mockall_derive13mock_function12MockFunctionE4pushBI_, symObjAddr: 0x7288, symBinAddr: 0x432BC, symSize: 0x124 }
  - { offset: 0x46F17, size: 0x8, addend: 0x0, symName: __RNvMs_NtCse1nGBsou5OW_5alloc3vecINtB4_3VecNtNtCs2nm8mGoL06A_14mockall_derive13mock_function12MockFunctionE7reserveBI_, symObjAddr: 0x73AC, symBinAddr: 0x433E0, symSize: 0xC8 }
  - { offset: 0x47122, size: 0x8, addend: 0x0, symName: __RNvMs_NtCse1nGBsou5OW_5alloc3vecINtB4_3VecNtNtCs2nm8mGoL06A_14mockall_derive13mock_function12MockFunctionE8as_sliceBI_, symObjAddr: 0x7474, symBinAddr: 0x434A8, symSize: 0x64 }
  - { offset: 0x472F2, size: 0x8, addend: 0x0, symName: __RNvMs_NtCse1nGBsou5OW_5alloc3vecINtB4_3VecNtNtCs2nm8mGoL06A_14mockall_derive16mock_item_struct17MockItemTraitImplE7reserveBI_, symObjAddr: 0x74D8, symBinAddr: 0x4350C, symSize: 0xC8 }
  - { offset: 0x474F0, size: 0x8, addend: 0x0, symName: __RNvMs_NtCse1nGBsou5OW_5alloc3vecINtB4_3VecNtNtCs2nm8mGoL06A_14mockall_derive16mock_item_struct17MockItemTraitImplE8as_sliceBI_, symObjAddr: 0x75A0, symBinAddr: 0x435D4, symSize: 0x64 }
  - { offset: 0x476BD, size: 0x8, addend: 0x0, symName: __RNvMs_NtCse1nGBsou5OW_5alloc3vecINtB4_3VecNtNtCs2nm8mGoL06A_14mockall_derive9mock_item15MockItemContentE4pushBI_, symObjAddr: 0x7604, symBinAddr: 0x43638, symSize: 0x100 }
  - { offset: 0x47915, size: 0x8, addend: 0x0, symName: __RNvMs_NtCse1nGBsou5OW_5alloc3vecINtB4_3VecNtNtCs2nm8mGoL06A_14mockall_derive9mock_item15MockItemContentE8as_sliceBI_, symObjAddr: 0x7704, symBinAddr: 0x43738, symSize: 0x64 }
  - { offset: 0x479DC, size: 0x8, addend: 0x0, symName: __RNvMs_NtCse1nGBsou5OW_5alloc3vecINtB4_3VecNtNtCs6IAuOt8vWmF_3syn2ty4TypeE3lenCs2nm8mGoL06A_14mockall_derive, symObjAddr: 0x7768, symBinAddr: 0x4379C, symSize: 0x18 }
  - { offset: 0x47B17, size: 0x8, addend: 0x0, symName: __RNvMs_NtCse1nGBsou5OW_5alloc3vecINtB4_3VecNtNtCs6IAuOt8vWmF_3syn2ty4TypeE4pushCs2nm8mGoL06A_14mockall_derive, symObjAddr: 0x7780, symBinAddr: 0x437B4, symSize: 0x120 }
  - { offset: 0x47D65, size: 0x8, addend: 0x0, symName: __RNvMs_NtCse1nGBsou5OW_5alloc3vecINtB4_3VecNtNtCs6IAuOt8vWmF_3syn2ty4TypeE8as_sliceCs2nm8mGoL06A_14mockall_derive, symObjAddr: 0x78A0, symBinAddr: 0x438D4, symSize: 0x64 }
  - { offset: 0x47E2C, size: 0x8, addend: 0x0, symName: __RNvMs_NtCse1nGBsou5OW_5alloc3vecINtB4_3VecNtNtCs6IAuOt8vWmF_3syn3pat3PatE3lenCs2nm8mGoL06A_14mockall_derive, symObjAddr: 0x7904, symBinAddr: 0x43938, symSize: 0x18 }
  - { offset: 0x47F67, size: 0x8, addend: 0x0, symName: __RNvMs_NtCse1nGBsou5OW_5alloc3vecINtB4_3VecNtNtCs6IAuOt8vWmF_3syn3pat3PatE4pushCs2nm8mGoL06A_14mockall_derive, symObjAddr: 0x791C, symBinAddr: 0x43950, symSize: 0x120 }
  - { offset: 0x481B5, size: 0x8, addend: 0x0, symName: __RNvMs_NtCse1nGBsou5OW_5alloc3vecINtB4_3VecNtNtCs6IAuOt8vWmF_3syn3pat3PatE8as_sliceCs2nm8mGoL06A_14mockall_derive, symObjAddr: 0x7A3C, symBinAddr: 0x43A70, symSize: 0x64 }
  - { offset: 0x48385, size: 0x8, addend: 0x0, symName: __RNvMs_NtCse1nGBsou5OW_5alloc3vecINtB4_3VecNtNtCs6IAuOt8vWmF_3syn4expr5IndexE7reserveCs2nm8mGoL06A_14mockall_derive, symObjAddr: 0x7AA0, symBinAddr: 0x43AD4, symSize: 0xC8 }
  - { offset: 0x48590, size: 0x8, addend: 0x0, symName: __RNvMs_NtCse1nGBsou5OW_5alloc3vecINtB4_3VecNtNtCs6IAuOt8vWmF_3syn4expr5IndexE8as_sliceCs2nm8mGoL06A_14mockall_derive, symObjAddr: 0x7B68, symBinAddr: 0x43B9C, symSize: 0x64 }
  - { offset: 0x48750, size: 0x8, addend: 0x0, symName: __RNvMs_NtCse1nGBsou5OW_5alloc3vecINtB4_3VecNtNtCs6IAuOt8vWmF_3syn4item10ImplItemFnE4pushCs2nm8mGoL06A_14mockall_derive, symObjAddr: 0x7BCC, symBinAddr: 0x43C00, symSize: 0x120 }
  - { offset: 0x489AB, size: 0x8, addend: 0x0, symName: __RNvMs_NtCse1nGBsou5OW_5alloc3vecINtB4_3VecNtNtCs6IAuOt8vWmF_3syn4item10ImplItemFnE8as_sliceCs2nm8mGoL06A_14mockall_derive, symObjAddr: 0x7CEC, symBinAddr: 0x43D20, symSize: 0x64 }
  - { offset: 0x48B78, size: 0x8, addend: 0x0, symName: __RNvMs_NtCse1nGBsou5OW_5alloc3vecINtB4_3VecNtNtCs6IAuOt8vWmF_3syn4item12ImplItemTypeE4pushCs2nm8mGoL06A_14mockall_derive, symObjAddr: 0x7D50, symBinAddr: 0x43D84, symSize: 0x120 }
  - { offset: 0x48DD3, size: 0x8, addend: 0x0, symName: __RNvMs_NtCse1nGBsou5OW_5alloc3vecINtB4_3VecNtNtCs6IAuOt8vWmF_3syn4item12ImplItemTypeE8as_sliceCs2nm8mGoL06A_14mockall_derive, symObjAddr: 0x7E70, symBinAddr: 0x43EA4, symSize: 0x64 }
  - { offset: 0x48FA0, size: 0x8, addend: 0x0, symName: __RNvMs_NtCse1nGBsou5OW_5alloc3vecINtB4_3VecNtNtCs6IAuOt8vWmF_3syn4item13ImplItemConstE4pushCs2nm8mGoL06A_14mockall_derive, symObjAddr: 0x7ED4, symBinAddr: 0x43F08, symSize: 0x120 }
  - { offset: 0x491FB, size: 0x8, addend: 0x0, symName: __RNvMs_NtCse1nGBsou5OW_5alloc3vecINtB4_3VecNtNtCs6IAuOt8vWmF_3syn4item13ImplItemConstE8as_sliceCs2nm8mGoL06A_14mockall_derive, symObjAddr: 0x7FF4, symBinAddr: 0x44028, symSize: 0x64 }
  - { offset: 0x493CB, size: 0x8, addend: 0x0, symName: __RNvMs_NtCse1nGBsou5OW_5alloc3vecINtB4_3VecNtNtCs6IAuOt8vWmF_3syn4item5FnArgE7reserveCs2nm8mGoL06A_14mockall_derive, symObjAddr: 0x8058, symBinAddr: 0x4408C, symSize: 0xC8 }
  - { offset: 0x495C9, size: 0x8, addend: 0x0, symName: __RNvMs_NtCse1nGBsou5OW_5alloc3vecINtB4_3VecNtNtCs6IAuOt8vWmF_3syn4item5FnArgE8as_sliceCs2nm8mGoL06A_14mockall_derive, symObjAddr: 0x8120, symBinAddr: 0x44154, symSize: 0x64 }
  - { offset: 0x49721, size: 0x8, addend: 0x0, symName: __RNvMs_NtCse1nGBsou5OW_5alloc3vecINtB4_3VecNtNtCs6IAuOt8vWmF_3syn4item8ImplItemE12as_mut_sliceCs2nm8mGoL06A_14mockall_derive, symObjAddr: 0x8184, symBinAddr: 0x441B8, symSize: 0x64 }
  - { offset: 0x49906, size: 0x8, addend: 0x0, symName: __RNvMs_NtCse1nGBsou5OW_5alloc3vecINtB4_3VecNtNtCs6IAuOt8vWmF_3syn4item8ImplItemE7reserveCs2nm8mGoL06A_14mockall_derive, symObjAddr: 0x81E8, symBinAddr: 0x4421C, symSize: 0xC8 }
  - { offset: 0x49ADD, size: 0x8, addend: 0x0, symName: __RNvMs_NtCse1nGBsou5OW_5alloc3vecINtB4_3VecNtNtCs6IAuOt8vWmF_3syn4item8ImplItemE8as_sliceCs2nm8mGoL06A_14mockall_derive, symObjAddr: 0x82B0, symBinAddr: 0x442E4, symSize: 0x64 }
  - { offset: 0x49C9D, size: 0x8, addend: 0x0, symName: __RNvMs_NtCse1nGBsou5OW_5alloc3vecINtB4_3VecNtNtCs6IAuOt8vWmF_3syn4item8ItemImplE4pushCs2nm8mGoL06A_14mockall_derive, symObjAddr: 0x8314, symBinAddr: 0x44348, symSize: 0x120 }
  - { offset: 0x49EF8, size: 0x8, addend: 0x0, symName: __RNvMs_NtCse1nGBsou5OW_5alloc3vecINtB4_3VecNtNtCs6IAuOt8vWmF_3syn4item8ItemImplE8as_sliceCs2nm8mGoL06A_14mockall_derive, symObjAddr: 0x8434, symBinAddr: 0x44468, symSize: 0x64 }
  - { offset: 0x4A05D, size: 0x8, addend: 0x0, symName: __RNvMs_NtCse1nGBsou5OW_5alloc3vecINtB4_3VecNtNtCs6IAuOt8vWmF_3syn4item9TraitItemE12as_mut_sliceCs2nm8mGoL06A_14mockall_derive, symObjAddr: 0x8498, symBinAddr: 0x444CC, symSize: 0x64 }
  - { offset: 0x4A242, size: 0x8, addend: 0x0, symName: __RNvMs_NtCse1nGBsou5OW_5alloc3vecINtB4_3VecNtNtCs6IAuOt8vWmF_3syn8generics12GenericParamE7reserveCs2nm8mGoL06A_14mockall_derive, symObjAddr: 0x84FC, symBinAddr: 0x44530, symSize: 0xC8 }
  - { offset: 0x4A4BF, size: 0x8, addend: 0x0, symName: __RNvMs_NtCse1nGBsou5OW_5alloc3vecINtB4_3VecNtNtCs6IAuOt8vWmF_3syn8generics13LifetimeParamE7reserveCs2nm8mGoL06A_14mockall_derive, symObjAddr: 0x85C4, symBinAddr: 0x445F8, symSize: 0xC8 }
  - { offset: 0x4A73C, size: 0x8, addend: 0x0, symName: __RNvMs_NtCse1nGBsou5OW_5alloc3vecINtB4_3VecReE7reserveCs2nm8mGoL06A_14mockall_derive, symObjAddr: 0x868C, symBinAddr: 0x446C0, symSize: 0xC8 }
  - { offset: 0x4A9B6, size: 0x8, addend: 0x0, symName: __RNvMs_NtCse1nGBsou5OW_5alloc3vecINtB4_3VecTNtCs3cP53eQoTwO_11proc_macro25IdentNtNtCs6IAuOt8vWmF_3syn5token5CommaEE4pushCs2nm8mGoL06A_14mockall_derive, symObjAddr: 0x8754, symBinAddr: 0x44788, symSize: 0x100 }
  - { offset: 0x4AC0E, size: 0x8, addend: 0x0, symName: __RNvMs_NtCse1nGBsou5OW_5alloc3vecINtB4_3VecTNtCs3cP53eQoTwO_11proc_macro25IdentNtNtCs6IAuOt8vWmF_3syn5token5CommaEE8as_sliceCs2nm8mGoL06A_14mockall_derive, symObjAddr: 0x8854, symBinAddr: 0x44888, symSize: 0x64 }
  - { offset: 0x4AD73, size: 0x8, addend: 0x0, symName: __RNvMs_NtCse1nGBsou5OW_5alloc3vecINtB4_3VecTNtNtCs6IAuOt8vWmF_3syn2ty4TypeNtNtBJ_5token5CommaEE12as_mut_sliceCs2nm8mGoL06A_14mockall_derive, symObjAddr: 0x88B8, symBinAddr: 0x448EC, symSize: 0x64 }
  - { offset: 0x4AEED, size: 0x8, addend: 0x0, symName: __RNvMs_NtCse1nGBsou5OW_5alloc3vecINtB4_3VecTNtNtCs6IAuOt8vWmF_3syn2ty9BareFnArgNtNtBJ_5token5CommaEE12as_mut_sliceCs2nm8mGoL06A_14mockall_derive, symObjAddr: 0x891C, symBinAddr: 0x44950, symSize: 0x64 }
  - { offset: 0x4B067, size: 0x8, addend: 0x0, symName: __RNvMs_NtCse1nGBsou5OW_5alloc3vecINtB4_3VecTNtNtCs6IAuOt8vWmF_3syn4item5FnArgNtNtBJ_5token5CommaEE12as_mut_sliceCs2nm8mGoL06A_14mockall_derive, symObjAddr: 0x8980, symBinAddr: 0x449B4, symSize: 0x64 }
  - { offset: 0x4B278, size: 0x8, addend: 0x0, symName: __RNvMs_NtCse1nGBsou5OW_5alloc3vecINtB4_3VecTNtNtCs6IAuOt8vWmF_3syn4path11PathSegmentNtNtBJ_5token7PathSepEE6insertCs2nm8mGoL06A_14mockall_derive, symObjAddr: 0x89E4, symBinAddr: 0x44A18, symSize: 0x1EC }
  - { offset: 0x4B567, size: 0x8, addend: 0x0, symName: __RNvMs_NtCse1nGBsou5OW_5alloc3vecINtB4_3VecTNtNtCs6IAuOt8vWmF_3syn4path15GenericArgumentNtNtBJ_5token5CommaEE12as_mut_sliceCs2nm8mGoL06A_14mockall_derive, symObjAddr: 0x8BD0, symBinAddr: 0x44C04, symSize: 0x64 }
  - { offset: 0x4B76B, size: 0x8, addend: 0x0, symName: __RNvMs_NtCse1nGBsou5OW_5alloc3vecINtB4_3VecTNtNtCs6IAuOt8vWmF_3syn4path15GenericArgumentNtNtBJ_5token5CommaEE6insertCs2nm8mGoL06A_14mockall_derive, symObjAddr: 0x8C34, symBinAddr: 0x44C68, symSize: 0x1EC }
  - { offset: 0x4B9BC, size: 0x8, addend: 0x0, symName: __RNvMs_NtCse1nGBsou5OW_5alloc3vecINtB4_3VecTNtNtCs6IAuOt8vWmF_3syn8generics13LifetimeParamNtNtBJ_5token5CommaEE3lenCs2nm8mGoL06A_14mockall_derive, symObjAddr: 0x8E20, symBinAddr: 0x44E54, symSize: 0x18 }
  - { offset: 0x4BAF7, size: 0x8, addend: 0x0, symName: __RNvMs_NtCse1nGBsou5OW_5alloc3vecINtB4_3VecTNtNtCs6IAuOt8vWmF_3syn8generics13LifetimeParamNtNtBJ_5token5CommaEE4pushCs2nm8mGoL06A_14mockall_derive, symObjAddr: 0x8E38, symBinAddr: 0x44E6C, symSize: 0x120 }
  - { offset: 0x4BD45, size: 0x8, addend: 0x0, symName: __RNvMs_NtCse1nGBsou5OW_5alloc3vecINtB4_3VecTNtNtCs6IAuOt8vWmF_3syn8generics13LifetimeParamNtNtBJ_5token5CommaEE8as_sliceCs2nm8mGoL06A_14mockall_derive, symObjAddr: 0x8F58, symBinAddr: 0x44F8C, symSize: 0x64 }
  - { offset: 0x4BEAA, size: 0x8, addend: 0x0, symName: __RNvMs_NtCse1nGBsou5OW_5alloc3vecINtB4_3VecTNtNtCs6IAuOt8vWmF_3syn8generics14TypeParamBoundNtNtBJ_5token4PlusEE12as_mut_sliceCs2nm8mGoL06A_14mockall_derive, symObjAddr: 0x8FBC, symBinAddr: 0x44FF0, symSize: 0x64 }
  - { offset: 0x4C024, size: 0x8, addend: 0x0, symName: __RNvMs_NtCse1nGBsou5OW_5alloc3vecINtB4_3VecTNtNtCs6IAuOt8vWmF_3syn8generics14WherePredicateNtNtBJ_5token5CommaEE12as_mut_sliceCs2nm8mGoL06A_14mockall_derive, symObjAddr: 0x9020, symBinAddr: 0x45054, symSize: 0x64 }
  - { offset: 0x4D8F8, size: 0x8, addend: 0x0, symName: __RNvXs4_NtNtCs2cqEZUIJimJ_5quote9___private3extINtNtCse1nGBsou5OW_5alloc3vec3VecNtCs3cP53eQoTwO_11proc_macro211TokenStreamENtB5_16RepAsIteratorExt15quote_into_iterCs2nm8mGoL06A_14mockall_derive, symObjAddr: 0xC0E0, symBinAddr: 0x48114, symSize: 0x38 }
  - { offset: 0x4D92D, size: 0x8, addend: 0x0, symName: __RNvXs4_NtNtCs2cqEZUIJimJ_5quote9___private3extINtNtCse1nGBsou5OW_5alloc3vec3VecNtCs3cP53eQoTwO_11proc_macro25IdentENtB5_16RepAsIteratorExt15quote_into_iterCs2nm8mGoL06A_14mockall_derive, symObjAddr: 0xC118, symBinAddr: 0x4814C, symSize: 0x38 }
  - { offset: 0x4D962, size: 0x8, addend: 0x0, symName: __RNvXs4_NtNtCs2cqEZUIJimJ_5quote9___private3extINtNtCse1nGBsou5OW_5alloc3vec3VecNtNtCs2nm8mGoL06A_14mockall_derive16mock_item_struct17MockItemTraitImplENtB5_16RepAsIteratorExt15quote_into_iterB1j_, symObjAddr: 0xC150, symBinAddr: 0x48184, symSize: 0x38 }
  - { offset: 0x4D997, size: 0x8, addend: 0x0, symName: __RNvXs4_NtNtCs2cqEZUIJimJ_5quote9___private3extINtNtCse1nGBsou5OW_5alloc3vec3VecNtNtCs6IAuOt8vWmF_3syn2ty4TypeENtB5_16RepAsIteratorExt15quote_into_iterCs2nm8mGoL06A_14mockall_derive, symObjAddr: 0xC188, symBinAddr: 0x481BC, symSize: 0x38 }
  - { offset: 0x4D9CC, size: 0x8, addend: 0x0, symName: __RNvXs4_NtNtCs2cqEZUIJimJ_5quote9___private3extINtNtCse1nGBsou5OW_5alloc3vec3VecNtNtCs6IAuOt8vWmF_3syn3pat3PatENtB5_16RepAsIteratorExt15quote_into_iterCs2nm8mGoL06A_14mockall_derive, symObjAddr: 0xC1C0, symBinAddr: 0x481F4, symSize: 0x38 }
  - { offset: 0x4DA01, size: 0x8, addend: 0x0, symName: __RNvXs4_NtNtCs2cqEZUIJimJ_5quote9___private3extINtNtCse1nGBsou5OW_5alloc3vec3VecNtNtCs6IAuOt8vWmF_3syn4attr9AttributeENtB5_16RepAsIteratorExt15quote_into_iterCs2nm8mGoL06A_14mockall_derive, symObjAddr: 0xC1F8, symBinAddr: 0x4822C, symSize: 0x38 }
  - { offset: 0x4DA36, size: 0x8, addend: 0x0, symName: __RNvXs4_NtNtCs2cqEZUIJimJ_5quote9___private3extINtNtCse1nGBsou5OW_5alloc3vec3VecNtNtCs6IAuOt8vWmF_3syn4expr5IndexENtB5_16RepAsIteratorExt15quote_into_iterCs2nm8mGoL06A_14mockall_derive, symObjAddr: 0xC230, symBinAddr: 0x48264, symSize: 0x38 }
  - { offset: 0x4DA6B, size: 0x8, addend: 0x0, symName: __RNvXs4_NtNtCs2cqEZUIJimJ_5quote9___private3extINtNtCse1nGBsou5OW_5alloc3vec3VecNtNtCs6IAuOt8vWmF_3syn4item12ImplItemTypeENtB5_16RepAsIteratorExt15quote_into_iterCs2nm8mGoL06A_14mockall_derive, symObjAddr: 0xC268, symBinAddr: 0x4829C, symSize: 0x38 }
  - { offset: 0x4DAA0, size: 0x8, addend: 0x0, symName: __RNvXs4_NtNtCs2cqEZUIJimJ_5quote9___private3extINtNtCse1nGBsou5OW_5alloc3vec3VecNtNtCs6IAuOt8vWmF_3syn4item13ImplItemConstENtB5_16RepAsIteratorExt15quote_into_iterCs2nm8mGoL06A_14mockall_derive, symObjAddr: 0xC2A0, symBinAddr: 0x482D4, symSize: 0x38 }
  - { offset: 0x50028, size: 0x8, addend: 0x0, symName: __RINvMs6_NtCsloNvcHxBCre_9hashbrown3rawINtB6_8RawTableTNtCs3cP53eQoTwO_11proc_macro25IdentNtNtCs6IAuOt8vWmF_3syn2ty4TypeEE14reserve_rehashNCINvNtB8_3map11make_hasherBQ_B1p_NtNtNtCscOYdFFY2T5N_3std4hash6random11RandomStateE0ECs2nm8mGoL06A_14mockall_derive, symObjAddr: 0x0, symBinAddr: 0x23CF48, symSize: 0x830 }
  - { offset: 0x50064, size: 0x8, addend: 0x0, symName: __RNCINvMs6_NtCsloNvcHxBCre_9hashbrown3rawINtB8_8RawTableTNtCs3cP53eQoTwO_11proc_macro25IdentNtNtCs6IAuOt8vWmF_3syn2ty4TypeEE14reserve_rehashNCINvNtBa_3map11make_hasherBS_B1r_NtNtNtCscOYdFFY2T5N_3std4hash6random11RandomStateE0E0Cs2nm8mGoL06A_14mockall_derive, symObjAddr: 0x6E5C, symBinAddr: 0x4E828, symSize: 0xC0 }
  - { offset: 0x50221, size: 0x8, addend: 0x0, symName: __RNCINvMs6_NtCsloNvcHxBCre_9hashbrown3rawINtB8_8RawTableTNtCs3cP53eQoTwO_11proc_macro25IdentNtNtCs6IAuOt8vWmF_3syn2ty4TypeEE14reserve_rehashNCINvNtBa_3map11make_hasherBS_B1r_NtNtNtCscOYdFFY2T5N_3std4hash6random11RandomStateE0Es_0Cs2nm8mGoL06A_14mockall_derive, symObjAddr: 0x6F1C, symBinAddr: 0x4E8E8, symSize: 0x30 }
  - { offset: 0x50271, size: 0x8, addend: 0x0, symName: __RNCINvMs6_NtCsloNvcHxBCre_9hashbrown3rawINtB8_8RawTableTNtNtCs6IAuOt8vWmF_3syn2ty4TypeBS_EE14reserve_rehashNCINvNtBa_3map11make_hasherBS_BS_INtNtCsfvfooZQ3Axs_4core4hash18BuildHasherDefaultNtNtNtCscOYdFFY2T5N_3std4hash6random13DefaultHasherEE0E0Cs2nm8mGoL06A_14mockall_derive, symObjAddr: 0x70D4, symBinAddr: 0x4EAA0, symSize: 0xC0 }
  - { offset: 0x5042E, size: 0x8, addend: 0x0, symName: __RNCINvMs6_NtCsloNvcHxBCre_9hashbrown3rawINtB8_8RawTableTNtNtCs6IAuOt8vWmF_3syn2ty4TypeBS_EE14reserve_rehashNCINvNtBa_3map11make_hasherBS_BS_INtNtCsfvfooZQ3Axs_4core4hash18BuildHasherDefaultNtNtNtCscOYdFFY2T5N_3std4hash6random13DefaultHasherEE0Es_0Cs2nm8mGoL06A_14mockall_derive, symObjAddr: 0x7194, symBinAddr: 0x4EB60, symSize: 0x30 }
  - { offset: 0x5047E, size: 0x8, addend: 0x0, symName: __RNCINvMs6_NtCsloNvcHxBCre_9hashbrown3rawINtB8_8RawTableTNtNtCs6IAuOt8vWmF_3syn2ty4TypeTBS_INtNtCsfvfooZQ3Axs_4core6option6OptionINtNtBW_10punctuated10PunctuatedNtNtBW_8generics14TypeParamBoundNtNtBW_5token4PlusEEEEE14reserve_rehashNCINvNtBa_3map11make_hasherBS_B1m_INtNtB1v_4hash18BuildHasherDefaultNtNtNtCscOYdFFY2T5N_3std4hash6random13DefaultHasherEE0E0Cs2nm8mGoL06A_14mockall_derive, symObjAddr: 0x734C, symBinAddr: 0x4ED18, symSize: 0xC0 }
  - { offset: 0x5063B, size: 0x8, addend: 0x0, symName: __RNCINvMs6_NtCsloNvcHxBCre_9hashbrown3rawINtB8_8RawTableTNtNtCs6IAuOt8vWmF_3syn2ty4TypeTBS_INtNtCsfvfooZQ3Axs_4core6option6OptionINtNtBW_10punctuated10PunctuatedNtNtBW_8generics14TypeParamBoundNtNtBW_5token4PlusEEEEE14reserve_rehashNCINvNtBa_3map11make_hasherBS_B1m_INtNtB1v_4hash18BuildHasherDefaultNtNtNtCscOYdFFY2T5N_3std4hash6random13DefaultHasherEE0Es_0Cs2nm8mGoL06A_14mockall_derive, symObjAddr: 0x740C, symBinAddr: 0x4EDD8, symSize: 0x30 }
  - { offset: 0x5068B, size: 0x8, addend: 0x0, symName: __RNCINvMs6_NtCsloNvcHxBCre_9hashbrown3rawINtB8_8RawTableTNtNtCs6IAuOt8vWmF_3syn8generics13LifetimeParamuEE14reserve_rehashNCINvNtBa_3map11make_hasherBS_uINtNtCsfvfooZQ3Axs_4core4hash18BuildHasherDefaultNtNtNtCscOYdFFY2T5N_3std4hash6random13DefaultHasherEE0E0Cs2nm8mGoL06A_14mockall_derive, symObjAddr: 0x75C4, symBinAddr: 0x4EF90, symSize: 0xC0 }
  - { offset: 0x50848, size: 0x8, addend: 0x0, symName: __RNCINvMs6_NtCsloNvcHxBCre_9hashbrown3rawINtB8_8RawTableTNtNtCs6IAuOt8vWmF_3syn8generics13LifetimeParamuEE14reserve_rehashNCINvNtBa_3map11make_hasherBS_uINtNtCsfvfooZQ3Axs_4core4hash18BuildHasherDefaultNtNtNtCscOYdFFY2T5N_3std4hash6random13DefaultHasherEE0Es_0Cs2nm8mGoL06A_14mockall_derive, symObjAddr: 0x7684, symBinAddr: 0x4F050, symSize: 0x30 }
  - { offset: 0x50898, size: 0x8, addend: 0x0, symName: __RNCINvMs6_NtCsloNvcHxBCre_9hashbrown3rawINtB8_8RawTableTNtNtCs6IAuOt8vWmF_3syn8lifetime8LifetimeuEE14reserve_rehashNCINvNtBa_3map11make_hasherBS_uINtNtCsfvfooZQ3Axs_4core4hash18BuildHasherDefaultNtNtNtCscOYdFFY2T5N_3std4hash6random13DefaultHasherEE0E0Cs2nm8mGoL06A_14mockall_derive, symObjAddr: 0x783C, symBinAddr: 0x4F208, symSize: 0xC0 }
  - { offset: 0x50A55, size: 0x8, addend: 0x0, symName: __RNCINvMs6_NtCsloNvcHxBCre_9hashbrown3rawINtB8_8RawTableTNtNtCs6IAuOt8vWmF_3syn8lifetime8LifetimeuEE14reserve_rehashNCINvNtBa_3map11make_hasherBS_uINtNtCsfvfooZQ3Axs_4core4hash18BuildHasherDefaultNtNtNtCscOYdFFY2T5N_3std4hash6random13DefaultHasherEE0Es_0Cs2nm8mGoL06A_14mockall_derive, symObjAddr: 0x78FC, symBinAddr: 0x4F2C8, symSize: 0x30 }
  - { offset: 0x50AA5, size: 0x8, addend: 0x0, symName: __RNCINvMs6_NtCsloNvcHxBCre_9hashbrown3rawINtB8_8RawTableTTNtNtCs6IAuOt8vWmF_3syn4path4PathINtNtCse1nGBsou5OW_5alloc3vec3VecNtNtBX_4attr9AttributeEEuEE14reserve_rehashNCINvNtBa_3map11make_hasherBS_uNtNtNtCscOYdFFY2T5N_3std4hash6random11RandomStateE0E0Cs2nm8mGoL06A_14mockall_derive, symObjAddr: 0x7AB4, symBinAddr: 0x4F480, symSize: 0xC0 }
  - { offset: 0x50C62, size: 0x8, addend: 0x0, symName: __RNCINvMs6_NtCsloNvcHxBCre_9hashbrown3rawINtB8_8RawTableTTNtNtCs6IAuOt8vWmF_3syn4path4PathINtNtCse1nGBsou5OW_5alloc3vec3VecNtNtBX_4attr9AttributeEEuEE14reserve_rehashNCINvNtBa_3map11make_hasherBS_uNtNtNtCscOYdFFY2T5N_3std4hash6random11RandomStateE0Es_0Cs2nm8mGoL06A_14mockall_derive, symObjAddr: 0x7B74, symBinAddr: 0x4F540, symSize: 0x30 }
  - { offset: 0x50CE2, size: 0x8, addend: 0x0, symName: __RNCINvMs6_NtCsloNvcHxBCre_9hashbrown3rawINtB8_8RawTableTNtCs3cP53eQoTwO_11proc_macro25IdentNtNtCs6IAuOt8vWmF_3syn2ty4TypeEE24find_or_find_insert_slotNCINvNtBa_3map14equivalent_keyBS_BS_B1r_E0NCINvB2s_11make_hasherBS_B1r_NtNtNtCscOYdFFY2T5N_3std4hash6random11RandomStateE0E0Cs2nm8mGoL06A_14mockall_derive, symObjAddr: 0x6F4C, symBinAddr: 0x4E918, symSize: 0xC4 }
  - { offset: 0x50EAF, size: 0x8, addend: 0x0, symName: __RNCINvMs6_NtCsloNvcHxBCre_9hashbrown3rawINtB8_8RawTableTNtNtCs6IAuOt8vWmF_3syn2ty4TypeBS_EE24find_or_find_insert_slotNCINvNtBa_3map14equivalent_keyBS_BS_BS_E0NCINvB1W_11make_hasherBS_BS_INtNtCsfvfooZQ3Axs_4core4hash18BuildHasherDefaultNtNtNtCscOYdFFY2T5N_3std4hash6random13DefaultHasherEE0E0Cs2nm8mGoL06A_14mockall_derive, symObjAddr: 0x71C4, symBinAddr: 0x4EB90, symSize: 0xC4 }
  - { offset: 0x5107C, size: 0x8, addend: 0x0, symName: __RNCINvMs6_NtCsloNvcHxBCre_9hashbrown3rawINtB8_8RawTableTNtNtCs6IAuOt8vWmF_3syn2ty4TypeTBS_INtNtCsfvfooZQ3Axs_4core6option6OptionINtNtBW_10punctuated10PunctuatedNtNtBW_8generics14TypeParamBoundNtNtBW_5token4PlusEEEEE24find_or_find_insert_slotNCINvNtBa_3map14equivalent_keyBS_BS_B1m_E0NCINvB3W_11make_hasherBS_B1m_INtNtB1v_4hash18BuildHasherDefaultNtNtNtCscOYdFFY2T5N_3std4hash6random13DefaultHasherEE0E0Cs2nm8mGoL06A_14mockall_derive, symObjAddr: 0x743C, symBinAddr: 0x4EE08, symSize: 0xC4 }
  - { offset: 0x51249, size: 0x8, addend: 0x0, symName: __RNCINvMs6_NtCsloNvcHxBCre_9hashbrown3rawINtB8_8RawTableTNtNtCs6IAuOt8vWmF_3syn8generics13LifetimeParamuEE24find_or_find_insert_slotNCINvNtBa_3map14equivalent_keyBS_BS_uE0NCINvB2a_11make_hasherBS_uINtNtCsfvfooZQ3Axs_4core4hash18BuildHasherDefaultNtNtNtCscOYdFFY2T5N_3std4hash6random13DefaultHasherEE0E0Cs2nm8mGoL06A_14mockall_derive, symObjAddr: 0x76B4, symBinAddr: 0x4F080, symSize: 0xC4 }
  - { offset: 0x51416, size: 0x8, addend: 0x0, symName: __RNCINvMs6_NtCsloNvcHxBCre_9hashbrown3rawINtB8_8RawTableTNtNtCs6IAuOt8vWmF_3syn8lifetime8LifetimeuEE24find_or_find_insert_slotNCINvNtBa_3map14equivalent_keyBS_BS_uE0NCINvB24_11make_hasherBS_uINtNtCsfvfooZQ3Axs_4core4hash18BuildHasherDefaultNtNtNtCscOYdFFY2T5N_3std4hash6random13DefaultHasherEE0E0Cs2nm8mGoL06A_14mockall_derive, symObjAddr: 0x792C, symBinAddr: 0x4F2F8, symSize: 0xC4 }
  - { offset: 0x515E3, size: 0x8, addend: 0x0, symName: __RNCINvMs6_NtCsloNvcHxBCre_9hashbrown3rawINtB8_8RawTableTTNtNtCs6IAuOt8vWmF_3syn4path4PathINtNtCse1nGBsou5OW_5alloc3vec3VecNtNtBX_4attr9AttributeEEuEE24find_or_find_insert_slotNCINvNtBa_3map14equivalent_keyBS_BS_uE0NCINvB2S_11make_hasherBS_uNtNtNtCscOYdFFY2T5N_3std4hash6random11RandomStateE0E0Cs2nm8mGoL06A_14mockall_derive, symObjAddr: 0x7BA4, symBinAddr: 0x4F570, symSize: 0xC4 }
  - { offset: 0x517B6, size: 0x8, addend: 0x0, symName: __RNCINvMs6_NtCsloNvcHxBCre_9hashbrown3rawINtB8_8RawTableTNtCs3cP53eQoTwO_11proc_macro25IdentNtNtCs6IAuOt8vWmF_3syn2ty4TypeEE4findNCINvNtBa_3map14equivalent_keyBS_BS_B1r_E0E0Cs2nm8mGoL06A_14mockall_derive, symObjAddr: 0x7010, symBinAddr: 0x4E9DC, symSize: 0xC4 }
  - { offset: 0x5197A, size: 0x8, addend: 0x0, symName: __RNCINvMs6_NtCsloNvcHxBCre_9hashbrown3rawINtB8_8RawTableTNtNtCs6IAuOt8vWmF_3syn2ty4TypeBS_EE4findNCINvNtBa_3map14equivalent_keyBS_BS_BS_E0E0Cs2nm8mGoL06A_14mockall_derive, symObjAddr: 0x7288, symBinAddr: 0x4EC54, symSize: 0xC4 }
  - { offset: 0x51B3E, size: 0x8, addend: 0x0, symName: __RNCINvMs6_NtCsloNvcHxBCre_9hashbrown3rawINtB8_8RawTableTNtNtCs6IAuOt8vWmF_3syn2ty4TypeTBS_INtNtCsfvfooZQ3Axs_4core6option6OptionINtNtBW_10punctuated10PunctuatedNtNtBW_8generics14TypeParamBoundNtNtBW_5token4PlusEEEEE4findNCINvNtBa_3map14equivalent_keyBS_BS_B1m_E0E0Cs2nm8mGoL06A_14mockall_derive, symObjAddr: 0x7500, symBinAddr: 0x4EECC, symSize: 0xC4 }
  - { offset: 0x51D02, size: 0x8, addend: 0x0, symName: __RNCINvMs6_NtCsloNvcHxBCre_9hashbrown3rawINtB8_8RawTableTNtNtCs6IAuOt8vWmF_3syn8generics13LifetimeParamuEE4findNCINvNtBa_3map14equivalent_keyBS_BS_uE0E0Cs2nm8mGoL06A_14mockall_derive, symObjAddr: 0x7778, symBinAddr: 0x4F144, symSize: 0xC4 }
  - { offset: 0x51EC6, size: 0x8, addend: 0x0, symName: __RNCINvMs6_NtCsloNvcHxBCre_9hashbrown3rawINtB8_8RawTableTNtNtCs6IAuOt8vWmF_3syn8lifetime8LifetimeuEE4findNCINvNtBa_3map14equivalent_keyBS_BS_uE0E0Cs2nm8mGoL06A_14mockall_derive, symObjAddr: 0x79F0, symBinAddr: 0x4F3BC, symSize: 0xC4 }
  - { offset: 0x5208A, size: 0x8, addend: 0x0, symName: __RNCINvMs6_NtCsloNvcHxBCre_9hashbrown3rawINtB8_8RawTableTTNtNtCs6IAuOt8vWmF_3syn4path4PathINtNtCse1nGBsou5OW_5alloc3vec3VecNtNtBX_4attr9AttributeEEuEE4findNCINvNtBa_3map14equivalent_keyBS_BS_uE0E0Cs2nm8mGoL06A_14mockall_derive, symObjAddr: 0x7C68, symBinAddr: 0x4F634, symSize: 0xC4 }
  - { offset: 0x53656, size: 0x8, addend: 0x0, symName: __RNCINvMsa_NtCsloNvcHxBCre_9hashbrown3rawNtB8_13RawTableInner14prepare_resizeNtNtCse1nGBsou5OW_5alloc5alloc6GlobalE0Cs2nm8mGoL06A_14mockall_derive, symObjAddr: 0x7D2C, symBinAddr: 0x4F6F8, symSize: 0xBC }
  - { offset: 0x53839, size: 0x8, addend: 0x0, symName: __RNCNvMsa_NtCsloNvcHxBCre_9hashbrown3rawNtB7_13RawTableInner15rehash_in_place0Cs2nm8mGoL06A_14mockall_derive, symObjAddr: 0x7DE8, symBinAddr: 0x4F7B4, symSize: 0x23C }
  - { offset: 0x547E6, size: 0x8, addend: 0x0, symName: __RNvNtCsloNvcHxBCre_9hashbrown3raw19capacity_to_bucketsCs2nm8mGoL06A_14mockall_derive, symObjAddr: 0x9EF0, symBinAddr: 0x518BC, symSize: 0x198 }
  - { offset: 0x549A1, size: 0x8, addend: 0x0, symName: __RNvXsB_NtCsloNvcHxBCre_9hashbrown3rawINtB5_11RawIntoIterTNtNtCs6IAuOt8vWmF_3syn8lifetime8LifetimeuEENtNtNtCsfvfooZQ3Axs_4core3ops4drop4Drop4dropCs2nm8mGoL06A_14mockall_derive, symObjAddr: 0xA088, symBinAddr: 0x51A54, symSize: 0x78 }
  - { offset: 0x54A21, size: 0x8, addend: 0x0, symName: __RNvXsD_NtCsloNvcHxBCre_9hashbrown3rawINtB5_11RawIntoIterTNtNtCs6IAuOt8vWmF_3syn8lifetime8LifetimeuEENtNtNtNtCsfvfooZQ3Axs_4core4iter6traits8iterator8Iterator4nextCs2nm8mGoL06A_14mockall_derive, symObjAddr: 0xA100, symBinAddr: 0x51ACC, symSize: 0x10C }
  - { offset: 0x54BB0, size: 0x8, addend: 0x0, symName: __RNvXsg_NtCsloNvcHxBCre_9hashbrown3rawINtB5_8RawTableTNtCs3cP53eQoTwO_11proc_macro25IdentNtNtCs6IAuOt8vWmF_3syn2ty4TypeEENtNtNtCsfvfooZQ3Axs_4core3ops4drop4Drop4dropCs2nm8mGoL06A_14mockall_derive, symObjAddr: 0xA20C, symBinAddr: 0x51BD8, symSize: 0x3C }
  - { offset: 0x54BEC, size: 0x8, addend: 0x0, symName: __RNvXsg_NtCsloNvcHxBCre_9hashbrown3rawINtB5_8RawTableTNtNtCs6IAuOt8vWmF_3syn2ty4TypeBP_EENtNtNtCsfvfooZQ3Axs_4core3ops4drop4Drop4dropCs2nm8mGoL06A_14mockall_derive, symObjAddr: 0xA248, symBinAddr: 0x51C14, symSize: 0x3C }
  - { offset: 0x54C28, size: 0x8, addend: 0x0, symName: __RNvXsg_NtCsloNvcHxBCre_9hashbrown3rawINtB5_8RawTableTNtNtCs6IAuOt8vWmF_3syn2ty4TypeTBP_INtNtCsfvfooZQ3Axs_4core6option6OptionINtNtBT_10punctuated10PunctuatedNtNtBT_8generics14TypeParamBoundNtNtBT_5token4PlusEEEEENtNtNtB1s_3ops4drop4Drop4dropCs2nm8mGoL06A_14mockall_derive, symObjAddr: 0xA284, symBinAddr: 0x51C50, symSize: 0x3C }
  - { offset: 0x54C64, size: 0x8, addend: 0x0, symName: __RNvXsg_NtCsloNvcHxBCre_9hashbrown3rawINtB5_8RawTableTNtNtCs6IAuOt8vWmF_3syn8generics13LifetimeParamuEENtNtNtCsfvfooZQ3Axs_4core3ops4drop4Drop4dropCs2nm8mGoL06A_14mockall_derive, symObjAddr: 0xA2C0, symBinAddr: 0x51C8C, symSize: 0x3C }
  - { offset: 0x54CA0, size: 0x8, addend: 0x0, symName: __RNvXsg_NtCsloNvcHxBCre_9hashbrown3rawINtB5_8RawTableTNtNtCs6IAuOt8vWmF_3syn8lifetime8LifetimeuEENtNtNtCsfvfooZQ3Axs_4core3ops4drop4Drop4dropCs2nm8mGoL06A_14mockall_derive, symObjAddr: 0xA2FC, symBinAddr: 0x51CC8, symSize: 0x3C }
  - { offset: 0x54CDC, size: 0x8, addend: 0x0, symName: __RNvXsg_NtCsloNvcHxBCre_9hashbrown3rawINtB5_8RawTableTTNtNtCs6IAuOt8vWmF_3syn4path4PathINtNtCse1nGBsou5OW_5alloc3vec3VecNtNtBU_4attr9AttributeEEuEENtNtNtCsfvfooZQ3Axs_4core3ops4drop4Drop4dropCs2nm8mGoL06A_14mockall_derive, symObjAddr: 0xA338, symBinAddr: 0x51D04, symSize: 0x3C }
  - { offset: 0x54D1E, size: 0x8, addend: 0x0, symName: __RNvXsh_NtCsloNvcHxBCre_9hashbrown3rawINtB5_8RawTableTNtNtCs6IAuOt8vWmF_3syn8lifetime8LifetimeuEENtNtNtNtCsfvfooZQ3Axs_4core4iter6traits7collect12IntoIterator9into_iterCs2nm8mGoL06A_14mockall_derive, symObjAddr: 0xA374, symBinAddr: 0x51D40, symSize: 0x11C }
  - { offset: 0x5CBEF, size: 0x8, addend: 0x0, symName: __RINvYINtNtCsloNvcHxBCre_9hashbrown3raw11RawIntoIterTNtNtCs6IAuOt8vWmF_3syn8lifetime8LifetimeuEENtNtNtNtCsfvfooZQ3Axs_4core4iter6traits8iterator8Iterator4folduNCINvXss_NtB8_3setINtB2F_8IntoIterBO_EB1v_4folduNCINvNtNtB1B_8adapters3map8map_foldBO_BN_uNCINvXs8_B2F_INtB2F_7HashSetBO_INtNtB1D_4hash18BuildHasherDefaultNtNtNtCscOYdFFY2T5N_3std4hash6random13DefaultHasherEEINtNtB1z_7collect6ExtendBO_E6extendINtNtNtNtB57_11collections4hash3set7HashSetBO_B4t_EE0NCINvNvB1v_8for_each4callBN_NCINvXs1i_NtB8_3mapINtB7U_7HashMapBO_uB4t_EIB5T_BN_E6extendINtB3n_3MapINtB6u_8IntoIterBO_EB3Y_EE0E0E0E0ECs2nm8mGoL06A_14mockall_derive, symObjAddr: 0x6D50, symBinAddr: 0x4E71C, symSize: 0x10C }
  - { offset: 0x6352C, size: 0x8, addend: 0x0, symName: __RINvMs6_NtCsloNvcHxBCre_9hashbrown3rawINtB6_8RawTableTNtCs3cP53eQoTwO_11proc_macro25IdentNtNtCs6IAuOt8vWmF_3syn2ty4TypeEE14reserve_rehashNCINvNtB8_3map11make_hasherBQ_B1p_NtNtNtCscOYdFFY2T5N_3std4hash6random11RandomStateE0ECs2nm8mGoL06A_14mockall_derive, symObjAddr: 0x0, symBinAddr: 0x23CF48, symSize: 0x830 }
  - { offset: 0x63F1C, size: 0x8, addend: 0x0, symName: __RINvMs6_NtCsloNvcHxBCre_9hashbrown3rawINtB6_8RawTableTNtCs3cP53eQoTwO_11proc_macro25IdentNtNtCs6IAuOt8vWmF_3syn2ty4TypeEE24find_or_find_insert_slotNCINvNtB8_3map14equivalent_keyBQ_BQ_B1p_E0NCINvB2q_11make_hasherBQ_B1p_NtNtNtCscOYdFFY2T5N_3std4hash6random11RandomStateE0ECs2nm8mGoL06A_14mockall_derive, symObjAddr: 0x830, symBinAddr: 0x4AAFC, symSize: 0x13C }
  - { offset: 0x64396, size: 0x8, addend: 0x0, symName: __RINvMs6_NtCsloNvcHxBCre_9hashbrown3rawINtB6_8RawTableTNtCs3cP53eQoTwO_11proc_macro25IdentNtNtCs6IAuOt8vWmF_3syn2ty4TypeEE4findNCINvNtB8_3map14equivalent_keyBQ_BQ_B1p_E0ECs2nm8mGoL06A_14mockall_derive, symObjAddr: 0x96C, symBinAddr: 0x4AC38, symSize: 0x330 }
  - { offset: 0x64851, size: 0x8, addend: 0x0, symName: __RINvMs6_NtCsloNvcHxBCre_9hashbrown3rawINtB6_8RawTableTNtCs3cP53eQoTwO_11proc_macro25IdentNtNtCs6IAuOt8vWmF_3syn2ty4TypeEE7reserveNCINvNtB8_3map11make_hasherBQ_B1p_NtNtNtCscOYdFFY2T5N_3std4hash6random11RandomStateE0ECs2nm8mGoL06A_14mockall_derive, symObjAddr: 0xC9C, symBinAddr: 0x4AF68, symSize: 0xCC }
  - { offset: 0x64929, size: 0x8, addend: 0x0, symName: __RINvMs6_NtCsloNvcHxBCre_9hashbrown3rawINtB6_8RawTableTNtNtCs6IAuOt8vWmF_3syn2ty4TypeBQ_EE14reserve_rehashNCINvNtB8_3map11make_hasherBQ_BQ_INtNtCsfvfooZQ3Axs_4core4hash18BuildHasherDefaultNtNtNtCscOYdFFY2T5N_3std4hash6random13DefaultHasherEE0ECs2nm8mGoL06A_14mockall_derive, symObjAddr: 0xD68, symBinAddr: 0x23D778, symSize: 0x830 }
  - { offset: 0x65319, size: 0x8, addend: 0x0, symName: __RINvMs6_NtCsloNvcHxBCre_9hashbrown3rawINtB6_8RawTableTNtNtCs6IAuOt8vWmF_3syn2ty4TypeBQ_EE24find_or_find_insert_slotNCINvNtB8_3map14equivalent_keyBQ_BQ_BQ_E0NCINvB1U_11make_hasherBQ_BQ_INtNtCsfvfooZQ3Axs_4core4hash18BuildHasherDefaultNtNtNtCscOYdFFY2T5N_3std4hash6random13DefaultHasherEE0ECs2nm8mGoL06A_14mockall_derive, symObjAddr: 0x1598, symBinAddr: 0x4B034, symSize: 0x13C }
  - { offset: 0x65593, size: 0x8, addend: 0x0, symName: __RINvMs6_NtCsloNvcHxBCre_9hashbrown3rawINtB6_8RawTableTNtNtCs6IAuOt8vWmF_3syn2ty4TypeBQ_EE4findNCINvNtB8_3map14equivalent_keyBQ_BQ_BQ_E0ECs2nm8mGoL06A_14mockall_derive, symObjAddr: 0x16D4, symBinAddr: 0x4B170, symSize: 0x330 }
  - { offset: 0x65A41, size: 0x8, addend: 0x0, symName: __RINvMs6_NtCsloNvcHxBCre_9hashbrown3rawINtB6_8RawTableTNtNtCs6IAuOt8vWmF_3syn2ty4TypeBQ_EE7reserveNCINvNtB8_3map11make_hasherBQ_BQ_INtNtCsfvfooZQ3Axs_4core4hash18BuildHasherDefaultNtNtNtCscOYdFFY2T5N_3std4hash6random13DefaultHasherEE0ECs2nm8mGoL06A_14mockall_derive, symObjAddr: 0x1A04, symBinAddr: 0x4B4A0, symSize: 0xCC }
  - { offset: 0x65B19, size: 0x8, addend: 0x0, symName: __RINvMs6_NtCsloNvcHxBCre_9hashbrown3rawINtB6_8RawTableTNtNtCs6IAuOt8vWmF_3syn2ty4TypeTBQ_INtNtCsfvfooZQ3Axs_4core6option6OptionINtNtBU_10punctuated10PunctuatedNtNtBU_8generics14TypeParamBoundNtNtBU_5token4PlusEEEEE14reserve_rehashNCINvNtB8_3map11make_hasherBQ_B1k_INtNtB1t_4hash18BuildHasherDefaultNtNtNtCscOYdFFY2T5N_3std4hash6random13DefaultHasherEE0ECs2nm8mGoL06A_14mockall_derive, symObjAddr: 0x1AD0, symBinAddr: 0x23DFA8, symSize: 0x830 }
  - { offset: 0x66509, size: 0x8, addend: 0x0, symName: __RINvMs6_NtCsloNvcHxBCre_9hashbrown3rawINtB6_8RawTableTNtNtCs6IAuOt8vWmF_3syn2ty4TypeTBQ_INtNtCsfvfooZQ3Axs_4core6option6OptionINtNtBU_10punctuated10PunctuatedNtNtBU_8generics14TypeParamBoundNtNtBU_5token4PlusEEEEE24find_or_find_insert_slotNCINvNtB8_3map14equivalent_keyBQ_BQ_B1k_E0NCINvB3U_11make_hasherBQ_B1k_INtNtB1t_4hash18BuildHasherDefaultNtNtNtCscOYdFFY2T5N_3std4hash6random13DefaultHasherEE0ECs2nm8mGoL06A_14mockall_derive, symObjAddr: 0x2300, symBinAddr: 0x4B56C, symSize: 0x13C }
  - { offset: 0x66783, size: 0x8, addend: 0x0, symName: __RINvMs6_NtCsloNvcHxBCre_9hashbrown3rawINtB6_8RawTableTNtNtCs6IAuOt8vWmF_3syn2ty4TypeTBQ_INtNtCsfvfooZQ3Axs_4core6option6OptionINtNtBU_10punctuated10PunctuatedNtNtBU_8generics14TypeParamBoundNtNtBU_5token4PlusEEEEE4findNCINvNtB8_3map14equivalent_keyBQ_BQ_B1k_E0ECs2nm8mGoL06A_14mockall_derive, symObjAddr: 0x243C, symBinAddr: 0x4B6A8, symSize: 0x330 }
  - { offset: 0x66C31, size: 0x8, addend: 0x0, symName: __RINvMs6_NtCsloNvcHxBCre_9hashbrown3rawINtB6_8RawTableTNtNtCs6IAuOt8vWmF_3syn2ty4TypeTBQ_INtNtCsfvfooZQ3Axs_4core6option6OptionINtNtBU_10punctuated10PunctuatedNtNtBU_8generics14TypeParamBoundNtNtBU_5token4PlusEEEEE7reserveNCINvNtB8_3map11make_hasherBQ_B1k_INtNtB1t_4hash18BuildHasherDefaultNtNtNtCscOYdFFY2T5N_3std4hash6random13DefaultHasherEE0ECs2nm8mGoL06A_14mockall_derive, symObjAddr: 0x276C, symBinAddr: 0x4B9D8, symSize: 0xCC }
  - { offset: 0x66D09, size: 0x8, addend: 0x0, symName: __RINvMs6_NtCsloNvcHxBCre_9hashbrown3rawINtB6_8RawTableTNtNtCs6IAuOt8vWmF_3syn8generics13LifetimeParamuEE14reserve_rehashNCINvNtB8_3map11make_hasherBQ_uINtNtCsfvfooZQ3Axs_4core4hash18BuildHasherDefaultNtNtNtCscOYdFFY2T5N_3std4hash6random13DefaultHasherEE0ECs2nm8mGoL06A_14mockall_derive, symObjAddr: 0x2838, symBinAddr: 0x23E7D8, symSize: 0x830 }
  - { offset: 0x676F9, size: 0x8, addend: 0x0, symName: __RINvMs6_NtCsloNvcHxBCre_9hashbrown3rawINtB6_8RawTableTNtNtCs6IAuOt8vWmF_3syn8generics13LifetimeParamuEE24find_or_find_insert_slotNCINvNtB8_3map14equivalent_keyBQ_BQ_uE0NCINvB28_11make_hasherBQ_uINtNtCsfvfooZQ3Axs_4core4hash18BuildHasherDefaultNtNtNtCscOYdFFY2T5N_3std4hash6random13DefaultHasherEE0ECs2nm8mGoL06A_14mockall_derive, symObjAddr: 0x3068, symBinAddr: 0x4BAA4, symSize: 0x13C }
  - { offset: 0x67973, size: 0x8, addend: 0x0, symName: __RINvMs6_NtCsloNvcHxBCre_9hashbrown3rawINtB6_8RawTableTNtNtCs6IAuOt8vWmF_3syn8generics13LifetimeParamuEE4findNCINvNtB8_3map14equivalent_keyBQ_BQ_uE0ECs2nm8mGoL06A_14mockall_derive, symObjAddr: 0x31A4, symBinAddr: 0x4BBE0, symSize: 0x330 }
  - { offset: 0x67E21, size: 0x8, addend: 0x0, symName: __RINvMs6_NtCsloNvcHxBCre_9hashbrown3rawINtB6_8RawTableTNtNtCs6IAuOt8vWmF_3syn8generics13LifetimeParamuEE7reserveNCINvNtB8_3map11make_hasherBQ_uINtNtCsfvfooZQ3Axs_4core4hash18BuildHasherDefaultNtNtNtCscOYdFFY2T5N_3std4hash6random13DefaultHasherEE0ECs2nm8mGoL06A_14mockall_derive, symObjAddr: 0x34D4, symBinAddr: 0x4BF10, symSize: 0xCC }
  - { offset: 0x67EF9, size: 0x8, addend: 0x0, symName: __RINvMs6_NtCsloNvcHxBCre_9hashbrown3rawINtB6_8RawTableTNtNtCs6IAuOt8vWmF_3syn8lifetime8LifetimeuEE14reserve_rehashNCINvNtB8_3map11make_hasherBQ_uINtNtCsfvfooZQ3Axs_4core4hash18BuildHasherDefaultNtNtNtCscOYdFFY2T5N_3std4hash6random13DefaultHasherEE0ECs2nm8mGoL06A_14mockall_derive, symObjAddr: 0x35A0, symBinAddr: 0x23F008, symSize: 0x840 }
  - { offset: 0x688E9, size: 0x8, addend: 0x0, symName: __RINvMs6_NtCsloNvcHxBCre_9hashbrown3rawINtB6_8RawTableTNtNtCs6IAuOt8vWmF_3syn8lifetime8LifetimeuEE24find_or_find_insert_slotNCINvNtB8_3map14equivalent_keyBQ_BQ_uE0NCINvB22_11make_hasherBQ_uINtNtCsfvfooZQ3Axs_4core4hash18BuildHasherDefaultNtNtNtCscOYdFFY2T5N_3std4hash6random13DefaultHasherEE0ECs2nm8mGoL06A_14mockall_derive, symObjAddr: 0x3DE0, symBinAddr: 0x4BFDC, symSize: 0x13C }
  - { offset: 0x68B63, size: 0x8, addend: 0x0, symName: __RINvMs6_NtCsloNvcHxBCre_9hashbrown3rawINtB6_8RawTableTNtNtCs6IAuOt8vWmF_3syn8lifetime8LifetimeuEE4findNCINvNtB8_3map14equivalent_keyBQ_BQ_uE0ECs2nm8mGoL06A_14mockall_derive, symObjAddr: 0x3F1C, symBinAddr: 0x4C118, symSize: 0x330 }
  - { offset: 0x69011, size: 0x8, addend: 0x0, symName: __RINvMs6_NtCsloNvcHxBCre_9hashbrown3rawINtB6_8RawTableTNtNtCs6IAuOt8vWmF_3syn8lifetime8LifetimeuEE7reserveNCINvNtB8_3map11make_hasherBQ_uINtNtCsfvfooZQ3Axs_4core4hash18BuildHasherDefaultNtNtNtCscOYdFFY2T5N_3std4hash6random13DefaultHasherEE0ECs2nm8mGoL06A_14mockall_derive, symObjAddr: 0x424C, symBinAddr: 0x4C448, symSize: 0xCC }
  - { offset: 0x690E9, size: 0x8, addend: 0x0, symName: __RINvMs6_NtCsloNvcHxBCre_9hashbrown3rawINtB6_8RawTableTTNtNtCs6IAuOt8vWmF_3syn4path4PathINtNtCse1nGBsou5OW_5alloc3vec3VecNtNtBV_4attr9AttributeEEuEE14reserve_rehashNCINvNtB8_3map11make_hasherBQ_uNtNtNtCscOYdFFY2T5N_3std4hash6random11RandomStateE0ECs2nm8mGoL06A_14mockall_derive, symObjAddr: 0x4318, symBinAddr: 0x23F848, symSize: 0x830 }
  - { offset: 0x69AD9, size: 0x8, addend: 0x0, symName: __RINvMs6_NtCsloNvcHxBCre_9hashbrown3rawINtB6_8RawTableTTNtNtCs6IAuOt8vWmF_3syn4path4PathINtNtCse1nGBsou5OW_5alloc3vec3VecNtNtBV_4attr9AttributeEEuEE24find_or_find_insert_slotNCINvNtB8_3map14equivalent_keyBQ_BQ_uE0NCINvB2Q_11make_hasherBQ_uNtNtNtCscOYdFFY2T5N_3std4hash6random11RandomStateE0ECs2nm8mGoL06A_14mockall_derive, symObjAddr: 0x4B48, symBinAddr: 0x4C514, symSize: 0x13C }
  - { offset: 0x69D53, size: 0x8, addend: 0x0, symName: __RINvMs6_NtCsloNvcHxBCre_9hashbrown3rawINtB6_8RawTableTTNtNtCs6IAuOt8vWmF_3syn4path4PathINtNtCse1nGBsou5OW_5alloc3vec3VecNtNtBV_4attr9AttributeEEuEE4findNCINvNtB8_3map14equivalent_keyBQ_BQ_uE0ECs2nm8mGoL06A_14mockall_derive, symObjAddr: 0x4C84, symBinAddr: 0x4C650, symSize: 0x330 }
  - { offset: 0x6A201, size: 0x8, addend: 0x0, symName: __RINvMs6_NtCsloNvcHxBCre_9hashbrown3rawINtB6_8RawTableTTNtNtCs6IAuOt8vWmF_3syn4path4PathINtNtCse1nGBsou5OW_5alloc3vec3VecNtNtBV_4attr9AttributeEEuEE7reserveNCINvNtB8_3map11make_hasherBQ_uNtNtNtCscOYdFFY2T5N_3std4hash6random11RandomStateE0ECs2nm8mGoL06A_14mockall_derive, symObjAddr: 0x4FB4, symBinAddr: 0x4C980, symSize: 0xCC }
  - { offset: 0x6A3E5, size: 0x8, addend: 0x0, symName: __RINvMsa_NtCsloNvcHxBCre_9hashbrown3rawNtB6_13RawTableInner13drop_elementsTNtCs3cP53eQoTwO_11proc_macro25IdentNtNtCs6IAuOt8vWmF_3syn2ty4TypeEECs2nm8mGoL06A_14mockall_derive, symObjAddr: 0x5080, symBinAddr: 0x4CA4C, symSize: 0x174 }
  - { offset: 0x6A724, size: 0x8, addend: 0x0, symName: __RINvMsa_NtCsloNvcHxBCre_9hashbrown3rawNtB6_13RawTableInner13drop_elementsTNtNtCs6IAuOt8vWmF_3syn2ty4TypeB1a_EECs2nm8mGoL06A_14mockall_derive, symObjAddr: 0x51F4, symBinAddr: 0x4CBC0, symSize: 0x174 }
  - { offset: 0x6AA63, size: 0x8, addend: 0x0, symName: __RINvMsa_NtCsloNvcHxBCre_9hashbrown3rawNtB6_13RawTableInner13drop_elementsTNtNtCs6IAuOt8vWmF_3syn2ty4TypeTB1a_INtNtCsfvfooZQ3Axs_4core6option6OptionINtNtB1e_10punctuated10PunctuatedNtNtB1e_8generics14TypeParamBoundNtNtB1e_5token4PlusEEEEECs2nm8mGoL06A_14mockall_derive, symObjAddr: 0x5368, symBinAddr: 0x4CD34, symSize: 0x174 }
  - { offset: 0x6ADA2, size: 0x8, addend: 0x0, symName: __RINvMsa_NtCsloNvcHxBCre_9hashbrown3rawNtB6_13RawTableInner13drop_elementsTNtNtCs6IAuOt8vWmF_3syn8generics13LifetimeParamuEECs2nm8mGoL06A_14mockall_derive, symObjAddr: 0x54DC, symBinAddr: 0x4CEA8, symSize: 0x174 }
  - { offset: 0x6B0E1, size: 0x8, addend: 0x0, symName: __RINvMsa_NtCsloNvcHxBCre_9hashbrown3rawNtB6_13RawTableInner13drop_elementsTNtNtCs6IAuOt8vWmF_3syn8lifetime8LifetimeuEECs2nm8mGoL06A_14mockall_derive, symObjAddr: 0x5650, symBinAddr: 0x4D01C, symSize: 0x174 }
  - { offset: 0x6B420, size: 0x8, addend: 0x0, symName: __RINvMsa_NtCsloNvcHxBCre_9hashbrown3rawNtB6_13RawTableInner13drop_elementsTTNtNtCs6IAuOt8vWmF_3syn4path4PathINtNtCse1nGBsou5OW_5alloc3vec3VecNtNtB1f_4attr9AttributeEEuEECs2nm8mGoL06A_14mockall_derive, symObjAddr: 0x57C4, symBinAddr: 0x4D190, symSize: 0x174 }
  - { offset: 0x6B78D, size: 0x8, addend: 0x0, symName: __RINvMsa_NtCsloNvcHxBCre_9hashbrown3rawNtB6_13RawTableInner16drop_inner_tableTNtCs3cP53eQoTwO_11proc_macro25IdentNtNtCs6IAuOt8vWmF_3syn2ty4TypeENtNtCse1nGBsou5OW_5alloc5alloc6GlobalECs2nm8mGoL06A_14mockall_derive, symObjAddr: 0x5938, symBinAddr: 0x4D304, symSize: 0xBC }
  - { offset: 0x6BA31, size: 0x8, addend: 0x0, symName: __RINvMsa_NtCsloNvcHxBCre_9hashbrown3rawNtB6_13RawTableInner16drop_inner_tableTNtNtCs6IAuOt8vWmF_3syn2ty4TypeB1d_ENtNtCse1nGBsou5OW_5alloc5alloc6GlobalECs2nm8mGoL06A_14mockall_derive, symObjAddr: 0x59F4, symBinAddr: 0x4D3C0, symSize: 0xBC }
  - { offset: 0x6BCD5, size: 0x8, addend: 0x0, symName: __RINvMsa_NtCsloNvcHxBCre_9hashbrown3rawNtB6_13RawTableInner16drop_inner_tableTNtNtCs6IAuOt8vWmF_3syn2ty4TypeTB1d_INtNtCsfvfooZQ3Axs_4core6option6OptionINtNtB1h_10punctuated10PunctuatedNtNtB1h_8generics14TypeParamBoundNtNtB1h_5token4PlusEEEENtNtCse1nGBsou5OW_5alloc5alloc6GlobalECs2nm8mGoL06A_14mockall_derive, symObjAddr: 0x5AB0, symBinAddr: 0x4D47C, symSize: 0xBC }
  - { offset: 0x6BF79, size: 0x8, addend: 0x0, symName: __RINvMsa_NtCsloNvcHxBCre_9hashbrown3rawNtB6_13RawTableInner16drop_inner_tableTNtNtCs6IAuOt8vWmF_3syn8generics13LifetimeParamuENtNtCse1nGBsou5OW_5alloc5alloc6GlobalECs2nm8mGoL06A_14mockall_derive, symObjAddr: 0x5B6C, symBinAddr: 0x4D538, symSize: 0xBC }
  - { offset: 0x6C21D, size: 0x8, addend: 0x0, symName: __RINvMsa_NtCsloNvcHxBCre_9hashbrown3rawNtB6_13RawTableInner16drop_inner_tableTNtNtCs6IAuOt8vWmF_3syn8lifetime8LifetimeuENtNtCse1nGBsou5OW_5alloc5alloc6GlobalECs2nm8mGoL06A_14mockall_derive, symObjAddr: 0x5C28, symBinAddr: 0x4D5F4, symSize: 0xBC }
  - { offset: 0x6C4C1, size: 0x8, addend: 0x0, symName: __RINvMsa_NtCsloNvcHxBCre_9hashbrown3rawNtB6_13RawTableInner16drop_inner_tableTTNtNtCs6IAuOt8vWmF_3syn4path4PathINtNtCse1nGBsou5OW_5alloc3vec3VecNtNtB1i_4attr9AttributeEEuENtNtB1P_5alloc6GlobalECs2nm8mGoL06A_14mockall_derive, symObjAddr: 0x5CE4, symBinAddr: 0x4D6B0, symSize: 0xBC }
  - { offset: 0x6C6D4, size: 0x8, addend: 0x0, symName: __RINvMsa_NtCsloNvcHxBCre_9hashbrown3rawNtB6_13RawTableInner17new_uninitializedNtNtCse1nGBsou5OW_5alloc5alloc6GlobalECs2nm8mGoL06A_14mockall_derive, symObjAddr: 0x5DA0, symBinAddr: 0x4D76C, symSize: 0x1B0 }
  - { offset: 0x6C90D, size: 0x8, addend: 0x0, symName: __RINvMsa_NtCsloNvcHxBCre_9hashbrown3rawNtB6_13RawTableInner22fallible_with_capacityNtNtCse1nGBsou5OW_5alloc5alloc6GlobalECs2nm8mGoL06A_14mockall_derive, symObjAddr: 0x5F50, symBinAddr: 0x4D91C, symSize: 0x2A8 }
  - { offset: 0x6CD84, size: 0x8, addend: 0x0, symName: __RINvMsi_NtCsloNvcHxBCre_9hashbrown3rawINtB6_12RawIterRangeTNtCs3cP53eQoTwO_11proc_macro25IdentNtNtCs6IAuOt8vWmF_3syn2ty4TypeEE9next_implKb0_ECs2nm8mGoL06A_14mockall_derive, symObjAddr: 0x61F8, symBinAddr: 0x4DBC4, symSize: 0x1E4 }
  - { offset: 0x6D206, size: 0x8, addend: 0x0, symName: __RINvMsi_NtCsloNvcHxBCre_9hashbrown3rawINtB6_12RawIterRangeTNtNtCs6IAuOt8vWmF_3syn2ty4TypeBV_EE9next_implKb0_ECs2nm8mGoL06A_14mockall_derive, symObjAddr: 0x63DC, symBinAddr: 0x4DDA8, symSize: 0x1E4 }
  - { offset: 0x6D688, size: 0x8, addend: 0x0, symName: __RINvMsi_NtCsloNvcHxBCre_9hashbrown3rawINtB6_12RawIterRangeTNtNtCs6IAuOt8vWmF_3syn2ty4TypeTBV_INtNtCsfvfooZQ3Axs_4core6option6OptionINtNtBZ_10punctuated10PunctuatedNtNtBZ_8generics14TypeParamBoundNtNtBZ_5token4PlusEEEEE9next_implKb0_ECs2nm8mGoL06A_14mockall_derive, symObjAddr: 0x65C0, symBinAddr: 0x4DF8C, symSize: 0x1E4 }
  - { offset: 0x6DB0A, size: 0x8, addend: 0x0, symName: __RINvMsi_NtCsloNvcHxBCre_9hashbrown3rawINtB6_12RawIterRangeTNtNtCs6IAuOt8vWmF_3syn8generics13LifetimeParamuEE9next_implKb0_ECs2nm8mGoL06A_14mockall_derive, symObjAddr: 0x67A4, symBinAddr: 0x4E170, symSize: 0x1E4 }
  - { offset: 0x6DF8C, size: 0x8, addend: 0x0, symName: __RINvMsi_NtCsloNvcHxBCre_9hashbrown3rawINtB6_12RawIterRangeTNtNtCs6IAuOt8vWmF_3syn8lifetime8LifetimeuEE9next_implKb0_ECs2nm8mGoL06A_14mockall_derive, symObjAddr: 0x6988, symBinAddr: 0x4E354, symSize: 0x1E4 }
  - { offset: 0x6E40E, size: 0x8, addend: 0x0, symName: __RINvMsi_NtCsloNvcHxBCre_9hashbrown3rawINtB6_12RawIterRangeTTNtNtCs6IAuOt8vWmF_3syn4path4PathINtNtCse1nGBsou5OW_5alloc3vec3VecNtNtB10_4attr9AttributeEEuEE9next_implKb0_ECs2nm8mGoL06A_14mockall_derive, symObjAddr: 0x6B6C, symBinAddr: 0x4E538, symSize: 0x1E4 }
  - { offset: 0x6FF8D, size: 0x8, addend: 0x0, symName: __RNvMs1_NtCsloNvcHxBCre_9hashbrown3rawNtB5_11TableLayout20calculate_layout_forCs2nm8mGoL06A_14mockall_derive, symObjAddr: 0x8024, symBinAddr: 0x4F9F0, symSize: 0x210 }
  - { offset: 0x7041A, size: 0x8, addend: 0x0, symName: __RNvMs6_NtCsloNvcHxBCre_9hashbrown3rawINtB5_8RawTableTNtCs3cP53eQoTwO_11proc_macro25IdentNtNtCs6IAuOt8vWmF_3syn2ty4TypeEE14insert_in_slotCs2nm8mGoL06A_14mockall_derive, symObjAddr: 0x8234, symBinAddr: 0x4FC00, symSize: 0x140 }
  - { offset: 0x70958, size: 0x8, addend: 0x0, symName: __RNvMs6_NtCsloNvcHxBCre_9hashbrown3rawINtB5_8RawTableTNtNtCs6IAuOt8vWmF_3syn2ty4TypeBP_EE14insert_in_slotCs2nm8mGoL06A_14mockall_derive, symObjAddr: 0x8374, symBinAddr: 0x4FD40, symSize: 0x140 }
  - { offset: 0x70E96, size: 0x8, addend: 0x0, symName: __RNvMs6_NtCsloNvcHxBCre_9hashbrown3rawINtB5_8RawTableTNtNtCs6IAuOt8vWmF_3syn2ty4TypeTBP_INtNtCsfvfooZQ3Axs_4core6option6OptionINtNtBT_10punctuated10PunctuatedNtNtBT_8generics14TypeParamBoundNtNtBT_5token4PlusEEEEE14insert_in_slotCs2nm8mGoL06A_14mockall_derive, symObjAddr: 0x84B4, symBinAddr: 0x4FE80, symSize: 0x140 }
  - { offset: 0x713D4, size: 0x8, addend: 0x0, symName: __RNvMs6_NtCsloNvcHxBCre_9hashbrown3rawINtB5_8RawTableTNtNtCs6IAuOt8vWmF_3syn8generics13LifetimeParamuEE14insert_in_slotCs2nm8mGoL06A_14mockall_derive, symObjAddr: 0x85F4, symBinAddr: 0x4FFC0, symSize: 0x140 }
  - { offset: 0x71912, size: 0x8, addend: 0x0, symName: __RNvMs6_NtCsloNvcHxBCre_9hashbrown3rawINtB5_8RawTableTNtNtCs6IAuOt8vWmF_3syn8lifetime8LifetimeuEE14insert_in_slotCs2nm8mGoL06A_14mockall_derive, symObjAddr: 0x8734, symBinAddr: 0x50100, symSize: 0x138 }
  - { offset: 0x71CB7, size: 0x8, addend: 0x0, symName: __RNvMs6_NtCsloNvcHxBCre_9hashbrown3rawINtB5_8RawTableTNtNtCs6IAuOt8vWmF_3syn8lifetime8LifetimeuEE14into_iter_fromCs2nm8mGoL06A_14mockall_derive, symObjAddr: 0x886C, symBinAddr: 0x50238, symSize: 0x90 }
  - { offset: 0x71DA3, size: 0x8, addend: 0x0, symName: __RNvMs6_NtCsloNvcHxBCre_9hashbrown3rawINtB5_8RawTableTNtNtCs6IAuOt8vWmF_3syn8lifetime8LifetimeuEE15into_allocationCs2nm8mGoL06A_14mockall_derive, symObjAddr: 0x88FC, symBinAddr: 0x502C8, symSize: 0x13C }
  - { offset: 0x7207F, size: 0x8, addend: 0x0, symName: __RNvMs6_NtCsloNvcHxBCre_9hashbrown3rawINtB5_8RawTableTTNtNtCs6IAuOt8vWmF_3syn4path4PathINtNtCse1nGBsou5OW_5alloc3vec3VecNtNtBU_4attr9AttributeEEuEE14insert_in_slotCs2nm8mGoL06A_14mockall_derive, symObjAddr: 0x8A38, symBinAddr: 0x50404, symSize: 0x140 }
  - { offset: 0x72522, size: 0x8, addend: 0x0, symName: __RNvMsa_NtCsloNvcHxBCre_9hashbrown3rawNtB5_13RawTableInner15fix_insert_slotCs2nm8mGoL06A_14mockall_derive, symObjAddr: 0x8B78, symBinAddr: 0x50544, symSize: 0x128 }
  - { offset: 0x728A0, size: 0x8, addend: 0x0, symName: __RNvMsa_NtCsloNvcHxBCre_9hashbrown3rawNtB5_13RawTableInner15rehash_in_placeCs2nm8mGoL06A_14mockall_derive, symObjAddr: 0x8CA0, symBinAddr: 0x5066C, symSize: 0x4E8 }
  - { offset: 0x730AA, size: 0x8, addend: 0x0, symName: __RNvMsa_NtCsloNvcHxBCre_9hashbrown3rawNtB5_13RawTableInner16find_insert_slotCs2nm8mGoL06A_14mockall_derive, symObjAddr: 0x9188, symBinAddr: 0x50B54, symSize: 0x10C }
  - { offset: 0x7329B, size: 0x8, addend: 0x0, symName: __RNvMsa_NtCsloNvcHxBCre_9hashbrown3rawNtB5_13RawTableInner19prepare_insert_slotCs2nm8mGoL06A_14mockall_derive, symObjAddr: 0x9294, symBinAddr: 0x50C60, symSize: 0x74 }
  - { offset: 0x7358D, size: 0x8, addend: 0x0, symName: __RNvMsa_NtCsloNvcHxBCre_9hashbrown3rawNtB5_13RawTableInner23prepare_rehash_in_placeCs2nm8mGoL06A_14mockall_derive, symObjAddr: 0x9308, symBinAddr: 0x50CD4, symSize: 0x254 }
  - { offset: 0x73C89, size: 0x8, addend: 0x0, symName: __RNvMsa_NtCsloNvcHxBCre_9hashbrown3rawNtB5_13RawTableInner25find_insert_slot_in_groupCs2nm8mGoL06A_14mockall_derive, symObjAddr: 0x955C, symBinAddr: 0x50F28, symSize: 0x160 }
  - { offset: 0x73F52, size: 0x8, addend: 0x0, symName: __RNvMsa_NtCsloNvcHxBCre_9hashbrown3rawNtB5_13RawTableInner30find_or_find_insert_slot_innerCs2nm8mGoL06A_14mockall_derive, symObjAddr: 0x96BC, symBinAddr: 0x51088, symSize: 0x2BC }
  - { offset: 0x7434D, size: 0x8, addend: 0x0, symName: __RNvMsi_NtCsloNvcHxBCre_9hashbrown3rawINtB5_12RawIterRangeTNtCs3cP53eQoTwO_11proc_macro25IdentNtNtCs6IAuOt8vWmF_3syn2ty4TypeEE3newCs2nm8mGoL06A_14mockall_derive, symObjAddr: 0x9978, symBinAddr: 0x51344, symSize: 0xC0 }
  - { offset: 0x745EA, size: 0x8, addend: 0x0, symName: __RNvMsi_NtCsloNvcHxBCre_9hashbrown3rawINtB5_12RawIterRangeTNtNtCs6IAuOt8vWmF_3syn2ty4TypeBU_EE3newCs2nm8mGoL06A_14mockall_derive, symObjAddr: 0x9A38, symBinAddr: 0x51404, symSize: 0xC0 }
  - { offset: 0x74887, size: 0x8, addend: 0x0, symName: __RNvMsi_NtCsloNvcHxBCre_9hashbrown3rawINtB5_12RawIterRangeTNtNtCs6IAuOt8vWmF_3syn2ty4TypeTBU_INtNtCsfvfooZQ3Axs_4core6option6OptionINtNtBY_10punctuated10PunctuatedNtNtBY_8generics14TypeParamBoundNtNtBY_5token4PlusEEEEE3newCs2nm8mGoL06A_14mockall_derive, symObjAddr: 0x9AF8, symBinAddr: 0x514C4, symSize: 0xC0 }
  - { offset: 0x74B24, size: 0x8, addend: 0x0, symName: __RNvMsi_NtCsloNvcHxBCre_9hashbrown3rawINtB5_12RawIterRangeTNtNtCs6IAuOt8vWmF_3syn8generics13LifetimeParamuEE3newCs2nm8mGoL06A_14mockall_derive, symObjAddr: 0x9BB8, symBinAddr: 0x51584, symSize: 0xC0 }
  - { offset: 0x74DC1, size: 0x8, addend: 0x0, symName: __RNvMsi_NtCsloNvcHxBCre_9hashbrown3rawINtB5_12RawIterRangeTNtNtCs6IAuOt8vWmF_3syn8lifetime8LifetimeuEE3newCs2nm8mGoL06A_14mockall_derive, symObjAddr: 0x9C78, symBinAddr: 0x51644, symSize: 0xC0 }
  - { offset: 0x7505E, size: 0x8, addend: 0x0, symName: __RNvMsi_NtCsloNvcHxBCre_9hashbrown3rawINtB5_12RawIterRangeTTNtNtCs6IAuOt8vWmF_3syn4path4PathINtNtCse1nGBsou5OW_5alloc3vec3VecNtNtBZ_4attr9AttributeEEuEE3newCs2nm8mGoL06A_14mockall_derive, symObjAddr: 0x9D38, symBinAddr: 0x51704, symSize: 0xC0 }
  - { offset: 0x7530E, size: 0x8, addend: 0x0, symName: __RNvMso_NtCsloNvcHxBCre_9hashbrown3rawINtB5_7RawIterTNtNtCs6IAuOt8vWmF_3syn8lifetime8LifetimeuEE13drop_elementsCs2nm8mGoL06A_14mockall_derive, symObjAddr: 0x9DF8, symBinAddr: 0x517C4, symSize: 0xF8 }
  - { offset: 0x75610, size: 0x8, addend: 0x0, symName: __RINvXs2U_NtNtCsfvfooZQ3Axs_4core5slice4iterINtB7_4IterNtNtCs2nm8mGoL06A_14mockall_derive10mock_trait9MockTraitENtNtNtNtBb_4iter6traits8iterator8Iterator4findQNCINvNtBU_16mock_item_struct17unique_trait_iterBF_E0EBU_, symObjAddr: 0x0, symBinAddr: 0x51E5C, symSize: 0xB4 }
  - { offset: 0x76008, size: 0x8, addend: 0x0, symName: __RINvXs2U_NtNtCsfvfooZQ3Axs_4core5slice4iterINtB7_4IterNtNtCs2nm8mGoL06A_14mockall_derive10mock_trait9MockTraitENtNtNtNtBb_4iter6traits8iterator8Iterator4findQNCINvNtBU_16mock_item_struct17unique_trait_iterBF_E0EBU_, symObjAddr: 0x0, symBinAddr: 0x51E5C, symSize: 0xB4 }
  - { offset: 0x7606D, size: 0x8, addend: 0x0, symName: __RINvXs2U_NtNtCsfvfooZQ3Axs_4core5slice4iterINtB7_4IterNtNtCs2nm8mGoL06A_14mockall_derive10mock_trait9MockTraitENtNtNtNtBb_4iter6traits8iterator8Iterator4folduNCINvNtNtB1R_8adapters3map8map_foldRBQ_NtCs3cP53eQoTwO_11proc_macro211TokenStreamuNCNvXs1_NtBU_16mock_item_structNtB3Y_14MockItemStructNtNtCs2cqEZUIJimJ_5quote9to_tokens8ToTokens9to_tokenssa_0NCINvNvB1L_8for_each4callB39_NCINvMsi_NtCse1nGBsou5OW_5alloc3vecINtB6e_3VecB39_E14extend_trustedINtB2B_3MapBF_B3Q_EE0E0E0EBU_, symObjAddr: 0xB4, symBinAddr: 0x51F10, symSize: 0x1B8 }
  - { offset: 0x761C1, size: 0x8, addend: 0x0, symName: __RINvXs2U_NtNtCsfvfooZQ3Axs_4core5slice4iterINtB7_4IterNtNtCs2nm8mGoL06A_14mockall_derive13mock_function12MockFunctionENtNtNtNtBb_4iter6traits8iterator8Iterator3allNCNvMNtBU_16mock_item_structNtB2G_7Methods10all_static0EBU_, symObjAddr: 0x26C, symBinAddr: 0x520C8, symSize: 0xB0 }
  - { offset: 0x76226, size: 0x8, addend: 0x0, symName: __RINvXs2U_NtNtCsfvfooZQ3Axs_4core5slice4iterINtB7_4IterNtNtCs2nm8mGoL06A_14mockall_derive13mock_function12MockFunctionENtNtNtNtBb_4iter6traits8iterator8Iterator4findQNCNvMNtBU_10mock_traitNtB2I_9MockTrait10trait_impls1_0EBU_, symObjAddr: 0x31C, symBinAddr: 0x52178, symSize: 0xB4 }
  - { offset: 0x7628B, size: 0x8, addend: 0x0, symName: __RINvXs2U_NtNtCsfvfooZQ3Axs_4core5slice4iterINtB7_4IterNtNtCs2nm8mGoL06A_14mockall_derive13mock_function12MockFunctionENtNtNtNtBb_4iter6traits8iterator8Iterator4findQNCNvMNtBU_10mock_traitNtB2I_9MockTrait10trait_impls_0EBU_, symObjAddr: 0x3D0, symBinAddr: 0x5222C, symSize: 0xB4 }
  - { offset: 0x762F0, size: 0x8, addend: 0x0, symName: __RINvXs2U_NtNtCsfvfooZQ3Axs_4core5slice4iterINtB7_4IterNtNtCs2nm8mGoL06A_14mockall_derive13mock_function12MockFunctionENtNtNtNtBb_4iter6traits8iterator8Iterator4findQNCNvMNtBU_16mock_item_structNtB2I_7Methods11checkpoints0EBU_, symObjAddr: 0x484, symBinAddr: 0x522E0, symSize: 0xB4 }
  - { offset: 0x76355, size: 0x8, addend: 0x0, symName: __RINvXs2U_NtNtCsfvfooZQ3Axs_4core5slice4iterINtB7_4IterNtNtCs2nm8mGoL06A_14mockall_derive13mock_function12MockFunctionENtNtNtNtBb_4iter6traits8iterator8Iterator4findQNCNvMNtBU_16mock_item_structNtB2I_7Methods13default_inits0EBU_, symObjAddr: 0x538, symBinAddr: 0x52394, symSize: 0xB4 }
  - { offset: 0x763BA, size: 0x8, addend: 0x0, symName: __RINvXs2U_NtNtCsfvfooZQ3Axs_4core5slice4iterINtB7_4IterNtNtCs2nm8mGoL06A_14mockall_derive13mock_function12MockFunctionENtNtNtNtBb_4iter6traits8iterator8Iterator4findQNCNvMNtBU_16mock_item_structNtB2I_7Methods17field_definitions0EBU_, symObjAddr: 0x5EC, symBinAddr: 0x52448, symSize: 0xB4 }
  - { offset: 0x7641F, size: 0x8, addend: 0x0, symName: __RINvXs2U_NtNtCsfvfooZQ3Axs_4core5slice4iterINtB7_4IterNtNtCs2nm8mGoL06A_14mockall_derive13mock_function12MockFunctionENtNtNtNtBb_4iter6traits8iterator8Iterator4findQNCNvXs1_NtBU_16mock_item_structNtB2L_14MockItemStructNtNtCs2cqEZUIJimJ_5quote9to_tokens8ToTokens9to_tokenss1_0EBU_, symObjAddr: 0x6A0, symBinAddr: 0x524FC, symSize: 0xB4 }
  - { offset: 0x76484, size: 0x8, addend: 0x0, symName: __RINvXs2U_NtNtCsfvfooZQ3Axs_4core5slice4iterINtB7_4IterNtNtCs2nm8mGoL06A_14mockall_derive13mock_function12MockFunctionENtNtNtNtBb_4iter6traits8iterator8Iterator4findQNCNvXs1_NtBU_16mock_item_structNtB2L_14MockItemStructNtNtCs2cqEZUIJimJ_5quote9to_tokens8ToTokens9to_tokenss_0EBU_, symObjAddr: 0x754, symBinAddr: 0x525B0, symSize: 0xB4 }
  - { offset: 0x764E9, size: 0x8, addend: 0x0, symName: __RINvXs2U_NtNtCsfvfooZQ3Axs_4core5slice4iterINtB7_4IterNtNtCs2nm8mGoL06A_14mockall_derive13mock_function12MockFunctionENtNtNtNtBb_4iter6traits8iterator8Iterator4folduNCINvNtNtB1Y_8adapters3map8map_foldRBQ_NtCs3cP53eQoTwO_11proc_macro211TokenStreamuNCNvMNtBU_10mock_traitNtB42_9MockTrait10trait_impl0NCINvNvB1S_8for_each4callB3g_NCINvMsi_NtCse1nGBsou5OW_5alloc3vecINtB5o_3VecB3g_E14extend_trustedINtB2I_3MapBF_B3X_EE0E0E0EBU_, symObjAddr: 0x808, symBinAddr: 0x52664, symSize: 0x1B8 }
  - { offset: 0x7663D, size: 0x8, addend: 0x0, symName: __RINvXs2U_NtNtCsfvfooZQ3Axs_4core5slice4iterINtB7_4IterNtNtCs2nm8mGoL06A_14mockall_derive13mock_function12MockFunctionENtNtNtNtBb_4iter6traits8iterator8Iterator4folduNCINvNtNtB1Y_8adapters3map8map_foldRBQ_NtCs3cP53eQoTwO_11proc_macro211TokenStreamuNCNvMNtBU_16mock_item_structNtB42_7Methods9priv_mods0NCINvNvB1S_8for_each4callB3g_NCINvMsi_NtCse1nGBsou5OW_5alloc3vecINtB5q_3VecB3g_E14extend_trustedINtB2I_3MapBF_B3X_EE0E0E0EBU_, symObjAddr: 0x9C0, symBinAddr: 0x5281C, symSize: 0x1B8 }
  - { offset: 0x76791, size: 0x8, addend: 0x0, symName: __RINvXs2U_NtNtCsfvfooZQ3Axs_4core5slice4iterINtB7_4IterNtNtCs2nm8mGoL06A_14mockall_derive13mock_function12MockFunctionENtNtNtNtBb_4iter6traits8iterator8Iterator4folduNCINvNtNtB1Y_8adapters3map8map_foldRBQ_NtCs3cP53eQoTwO_11proc_macro211TokenStreamuNCNvXs1_NtBU_16mock_item_structNtB45_14MockItemStructNtNtCs2cqEZUIJimJ_5quote9to_tokens8ToTokens9to_tokens0NCINvNvB1S_8for_each4callB3g_NCINvMsi_NtCse1nGBsou5OW_5alloc3vecINtB6i_3VecB3g_E14extend_trustedINtB2I_3MapBF_B3X_EE0E0E0EBU_, symObjAddr: 0xB78, symBinAddr: 0x529D4, symSize: 0x1B8 }
  - { offset: 0x768E5, size: 0x8, addend: 0x0, symName: __RINvXs2U_NtNtCsfvfooZQ3Axs_4core5slice4iterINtB7_4IterNtNtCs2nm8mGoL06A_14mockall_derive16mock_item_struct17MockItemTraitImplENtNtNtNtBb_4iter6traits8iterator8Iterator4findQNCNvXs1_BS_NtBS_14MockItemStructNtNtCs2cqEZUIJimJ_5quote9to_tokens8ToTokens9to_tokenss4_0EBU_, symObjAddr: 0xD30, symBinAddr: 0x52B8C, symSize: 0xB4 }
  - { offset: 0x7694A, size: 0x8, addend: 0x0, symName: __RINvXs2U_NtNtCsfvfooZQ3Axs_4core5slice4iterINtB7_4IterNtNtCs2nm8mGoL06A_14mockall_derive16mock_item_struct17MockItemTraitImplENtNtNtNtBb_4iter6traits8iterator8Iterator4findQNCNvXs1_BS_NtBS_14MockItemStructNtNtCs2cqEZUIJimJ_5quote9to_tokens8ToTokens9to_tokenss6_0EBU_, symObjAddr: 0xDE4, symBinAddr: 0x52C40, symSize: 0xB4 }
  - { offset: 0x769AF, size: 0x8, addend: 0x0, symName: __RINvXs2U_NtNtCsfvfooZQ3Axs_4core5slice4iterINtB7_4IterNtNtCs2nm8mGoL06A_14mockall_derive16mock_item_struct17MockItemTraitImplENtNtNtNtBb_4iter6traits8iterator8Iterator4findQNCNvXs1_BS_NtBS_14MockItemStructNtNtCs2cqEZUIJimJ_5quote9to_tokens8ToTokens9to_tokenss8_0EBU_, symObjAddr: 0xE98, symBinAddr: 0x52CF4, symSize: 0xB4 }
  - { offset: 0x76A14, size: 0x8, addend: 0x0, symName: __RINvXs2U_NtNtCsfvfooZQ3Axs_4core5slice4iterINtB7_4IterNtNtCs6IAuOt8vWmF_3syn2ty4TypeENtNtNtNtBb_4iter6traits8iterator8Iterator4folduNCINvNtNtB1r_8adapters3map8map_foldRBQ_NtCs3cP53eQoTwO_11proc_macro211TokenStreamuNCNvXs7_NtCs2nm8mGoL06A_14mockall_derive13mock_functionNtB3y_7MatcherNtNtCs2cqEZUIJimJ_5quote9to_tokens8ToTokens9to_tokenss1_0NCIB29_B2J_NtNtB2L_3imp11TokenStreamuNCINvXs7_B2L_B2J_INtNtB1p_7collect12FromIteratorB2J_E9from_iterINtB2b_3MapBF_B3q_EE0NCIB29_B5D_NtCs9i5KxIbZ5ph_10proc_macro11TokenStreamuNCINvXs6_B5F_B5D_IB6l_B5D_E9from_iterIB75_B74_B63_EE0NCINvNvB1l_8for_each4callB7A_NCINvXsj_B7C_B7A_INtB6n_6ExtendB7A_E6extendIB75_B8R_B8g_EE0E0E0E0E0EB3A_, symObjAddr: 0xF4C, symBinAddr: 0x52DA8, symSize: 0x190 }
  - { offset: 0x76B67, size: 0x8, addend: 0x0, symName: __RINvXs2U_NtNtCsfvfooZQ3Axs_4core5slice4iterINtB7_4IterNtNtCs6IAuOt8vWmF_3syn3pat3PatENtNtNtNtBb_4iter6traits8iterator8Iterator4foldNtNtCse1nGBsou5OW_5alloc6string6StringNCNvXs7_NtCs2nm8mGoL06A_14mockall_derive13mock_functionNtB2P_7MatcherNtNtCs2cqEZUIJimJ_5quote9to_tokens8ToTokens9to_tokens0EB2R_, symObjAddr: 0x10DC, symBinAddr: 0x52F38, symSize: 0x22C }
  - { offset: 0x76CC1, size: 0x8, addend: 0x0, symName: __RINvXs2U_NtNtCsfvfooZQ3Axs_4core5slice4iterINtB7_4IterNtNtCs6IAuOt8vWmF_3syn3pat3PatENtNtNtNtBb_4iter6traits8iterator8Iterator4folduNCINvNtNtB1r_8adapters3map8map_foldRBQ_NtCs3cP53eQoTwO_11proc_macro211TokenStreamuNCNvXs0_NtCs2nm8mGoL06A_14mockall_derive13mock_functionNtB3y_6CommonNtNtCs2cqEZUIJimJ_5quote9to_tokens8ToTokens9to_tokenss1_0NCIB29_B2J_NtNtB2L_3imp11TokenStreamuNCINvXs7_B2L_B2J_INtNtB1p_7collect12FromIteratorB2J_E9from_iterINtB2b_3MapBF_B3q_EE0NCIB29_B5C_NtCs9i5KxIbZ5ph_10proc_macro11TokenStreamuNCINvXs6_B5E_B5C_IB6k_B5C_E9from_iterIB74_B73_B62_EE0NCINvNvB1l_8for_each4callB7z_NCINvXsj_B7B_B7z_INtB6m_6ExtendB7z_E6extendIB74_B8Q_B8f_EE0E0E0E0E0EB3A_, symObjAddr: 0x1308, symBinAddr: 0x53164, symSize: 0x18C }
  - { offset: 0x76E14, size: 0x8, addend: 0x0, symName: __RINvXs2U_NtNtCsfvfooZQ3Axs_4core5slice4iterINtB7_4IterNtNtCs6IAuOt8vWmF_3syn3pat3PatENtNtNtNtBb_4iter6traits8iterator8Iterator4folduNCINvNvXs_NtNtB1r_8adapters9enumerateINtB2g_9EnumeratepEB1l_4fold9enumerateRBQ_uNCINvNtB2i_3map8map_foldTjB3j_ENtCs3cP53eQoTwO_11proc_macro211TokenStreamuNCNvXs7_NtCs2nm8mGoL06A_14mockall_derive13mock_functionNtB4I_7MatcherNtNtCs2cqEZUIJimJ_5quote9to_tokens8ToTokens9to_tokenss0_0NCIB3r_B3T_NtNtB3V_3imp11TokenStreamuNCINvXs7_B3V_B3T_INtNtB1p_7collect12FromIteratorB3T_E9from_iterINtB3t_3MapIB2I_BF_EB4A_EE0NCIB3r_B6N_NtCs9i5KxIbZ5ph_10proc_macro11TokenStreamuNCINvXs6_B6P_B6N_IB7v_B6N_E9from_iterIB8f_B8e_B7d_EE0NCINvNvB1l_8for_each4callB8Q_NCINvXsj_B8S_B8Q_INtB7x_6ExtendB8Q_E6extendIB8f_Ba7_B9w_EE0E0E0E0E0E0EB4K_, symObjAddr: 0x1494, symBinAddr: 0x532F0, symSize: 0x190 }
  - { offset: 0x76F67, size: 0x8, addend: 0x0, symName: __RINvXs2U_NtNtCsfvfooZQ3Axs_4core5slice4iterINtB7_4IterNtNtCs6IAuOt8vWmF_3syn4attr9AttributeENtNtNtNtBb_4iter6traits8iterator8Iterator3anyNCNvMs_NtCs2nm8mGoL06A_14mockall_derive15mockable_structNtB2i_14MockableStruct13derives_debug0EB2k_, symObjAddr: 0x1624, symBinAddr: 0x53480, symSize: 0xB0 }
  - { offset: 0x76FCC, size: 0x8, addend: 0x0, symName: __RINvXs2U_NtNtCsfvfooZQ3Axs_4core5slice4iterINtB7_4IterNtNtCs6IAuOt8vWmF_3syn4attr9AttributeENtNtNtNtBb_4iter6traits8iterator8Iterator3anyNvCs2nm8mGoL06A_14mockall_derive13is_concretizeEB2d_, symObjAddr: 0x16D4, symBinAddr: 0x53530, symSize: 0xB0 }
  - { offset: 0x77031, size: 0x8, addend: 0x0, symName: __RINvXs2U_NtNtCsfvfooZQ3Axs_4core5slice4iterINtB7_4IterNtNtCs6IAuOt8vWmF_3syn4attr9AttributeENtNtNtNtBb_4iter6traits8iterator8Iterator4findQNCNvMCs2nm8mGoL06A_14mockall_deriveNtB2i_13AttrFormatter6format0EB2i_, symObjAddr: 0x1784, symBinAddr: 0x535E0, symSize: 0xB4 }
  - { offset: 0x77096, size: 0x8, addend: 0x0, symName: __RINvXs2U_NtNtCsfvfooZQ3Axs_4core5slice4iterINtB7_4IterNtNtCs6IAuOt8vWmF_3syn4attr9AttributeENtNtNtNtBb_4iter6traits8iterator8Iterator4folduNCINvNtNtB1y_8adapters3map8map_foldRBQ_BQ_uNvYBQ_NtNtBb_5clone5Clone5cloneNCINvNvB1s_8for_each4callBQ_NCINvMsi_NtCse1nGBsou5OW_5alloc3vecINtB40_3VecBQ_E14extend_trustedINtNtB2k_6cloned6ClonedBF_EE0E0E0ECs2nm8mGoL06A_14mockall_derive, symObjAddr: 0x1838, symBinAddr: 0x53694, symSize: 0x1B0 }
  - { offset: 0x771EA, size: 0x8, addend: 0x0, symName: __RINvXs2U_NtNtCsfvfooZQ3Axs_4core5slice4iterINtB7_4IterNtNtCs6IAuOt8vWmF_3syn4item10ImplItemFnENtNtNtNtBb_4iter6traits8iterator8Iterator3anyNCNvXs0_NtCs2nm8mGoL06A_14mockall_derive16mock_item_structNtB2l_14MockItemStructINtNtBb_7convert4FromNtNtB2n_15mockable_struct14MockableStructE4from0EB2n_, symObjAddr: 0x19E8, symBinAddr: 0x53844, symSize: 0xB0 }
  - { offset: 0x7724F, size: 0x8, addend: 0x0, symName: __RINvXs2U_NtNtCsfvfooZQ3Axs_4core5slice4iterINtB7_4IterNtNtCs6IAuOt8vWmF_3syn4item8ImplItemENtNtNtNtBb_4iter6traits8iterator8Iterator3anyNCNCNvXs0_NtCs2nm8mGoL06A_14mockall_derive16mock_item_structNtB2k_14MockItemStructINtNtBb_7convert4FromNtNtB2m_15mockable_struct14MockableStructE4froms_00EB2m_, symObjAddr: 0x1A98, symBinAddr: 0x538F4, symSize: 0xB0 }
  - { offset: 0x772B4, size: 0x8, addend: 0x0, symName: __RINvXs2U_NtNtCsfvfooZQ3Axs_4core5slice4iterINtB7_4IterNtNtCs6IAuOt8vWmF_3syn4item8ItemImplENtNtNtNtBb_4iter6traits8iterator8Iterator3anyNCNvXs0_NtCs2nm8mGoL06A_14mockall_derive16mock_item_structNtB2i_14MockItemStructINtNtBb_7convert4FromNtNtB2k_15mockable_struct14MockableStructE4froms_0EB2k_, symObjAddr: 0x1B48, symBinAddr: 0x539A4, symSize: 0xB0 }
  - { offset: 0x77319, size: 0x8, addend: 0x0, symName: __RINvXs2U_NtNtCsfvfooZQ3Axs_4core5slice4iterINtB7_4IterReENtNtNtNtBb_4iter6traits8iterator8Iterator3anyNCNCNvCs2nm8mGoL06A_14mockall_derive11declosurefy00EB1I_, symObjAddr: 0x1BF8, symBinAddr: 0x53A54, symSize: 0xB4 }
  - { offset: 0x7737E, size: 0x8, addend: 0x0, symName: __RNvXs2U_NtNtCsfvfooZQ3Axs_4core5slice4iterINtB6_4IterNtCs3cP53eQoTwO_11proc_macro211TokenStreamENtNtNtNtBa_4iter6traits8iterator8Iterator4nextCs2nm8mGoL06A_14mockall_derive, symObjAddr: 0x2A28, symBinAddr: 0x54884, symSize: 0xBC }
  - { offset: 0x774CC, size: 0x8, addend: 0x0, symName: __RNvXs2U_NtNtCsfvfooZQ3Axs_4core5slice4iterINtB6_4IterNtCs3cP53eQoTwO_11proc_macro25IdentENtNtNtNtBa_4iter6traits8iterator8Iterator24___iterator_get_uncheckedCs2nm8mGoL06A_14mockall_derive, symObjAddr: 0x2AE4, symBinAddr: 0x54940, symSize: 0x28 }
  - { offset: 0x77527, size: 0x8, addend: 0x0, symName: __RNvXs2U_NtNtCsfvfooZQ3Axs_4core5slice4iterINtB6_4IterNtCs3cP53eQoTwO_11proc_macro25IdentENtNtNtNtBa_4iter6traits8iterator8Iterator4nextCs2nm8mGoL06A_14mockall_derive, symObjAddr: 0x2B0C, symBinAddr: 0x54968, symSize: 0xBC }
  - { offset: 0x77675, size: 0x8, addend: 0x0, symName: __RNvXs2U_NtNtCsfvfooZQ3Axs_4core5slice4iterINtB6_4IterNtCs3cP53eQoTwO_11proc_macro25IdentENtNtNtNtBa_4iter6traits8iterator8Iterator9size_hintCs2nm8mGoL06A_14mockall_derive, symObjAddr: 0x2BC8, symBinAddr: 0x54A24, symSize: 0x70 }
  - { offset: 0x776E4, size: 0x8, addend: 0x0, symName: __RNvXs2U_NtNtCsfvfooZQ3Axs_4core5slice4iterINtB6_4IterNtNtCs2nm8mGoL06A_14mockall_derive10mock_trait9MockTraitENtNtNtNtBa_4iter6traits8iterator8Iterator4nextBT_, symObjAddr: 0x2C38, symBinAddr: 0x54A94, symSize: 0xBC }
  - { offset: 0x77832, size: 0x8, addend: 0x0, symName: __RNvXs2U_NtNtCsfvfooZQ3Axs_4core5slice4iterINtB6_4IterNtNtCs2nm8mGoL06A_14mockall_derive10mock_trait9MockTraitENtNtNtNtBa_4iter6traits8iterator8Iterator9size_hintBT_, symObjAddr: 0x2CF4, symBinAddr: 0x54B50, symSize: 0x70 }
  - { offset: 0x778A1, size: 0x8, addend: 0x0, symName: __RNvXs2U_NtNtCsfvfooZQ3Axs_4core5slice4iterINtB6_4IterNtNtCs2nm8mGoL06A_14mockall_derive13mock_function12MockFunctionENtNtNtNtBa_4iter6traits8iterator8Iterator4nextBT_, symObjAddr: 0x2D64, symBinAddr: 0x54BC0, symSize: 0xBC }
  - { offset: 0x779EF, size: 0x8, addend: 0x0, symName: __RNvXs2U_NtNtCsfvfooZQ3Axs_4core5slice4iterINtB6_4IterNtNtCs2nm8mGoL06A_14mockall_derive13mock_function12MockFunctionENtNtNtNtBa_4iter6traits8iterator8Iterator9size_hintBT_, symObjAddr: 0x2E20, symBinAddr: 0x54C7C, symSize: 0x70 }
  - { offset: 0x77A5E, size: 0x8, addend: 0x0, symName: __RNvXs2U_NtNtCsfvfooZQ3Axs_4core5slice4iterINtB6_4IterNtNtCs2nm8mGoL06A_14mockall_derive16mock_item_struct17MockItemTraitImplENtNtNtNtBa_4iter6traits8iterator8Iterator4nextBT_, symObjAddr: 0x2E90, symBinAddr: 0x54CEC, symSize: 0xBC }
  - { offset: 0x77BAC, size: 0x8, addend: 0x0, symName: __RNvXs2U_NtNtCsfvfooZQ3Axs_4core5slice4iterINtB6_4IterNtNtCs2nm8mGoL06A_14mockall_derive16mock_item_struct17MockItemTraitImplENtNtNtNtBa_4iter6traits8iterator8Iterator9size_hintBT_, symObjAddr: 0x2F4C, symBinAddr: 0x54DA8, symSize: 0x70 }
  - { offset: 0x77C1B, size: 0x8, addend: 0x0, symName: __RNvXs2U_NtNtCsfvfooZQ3Axs_4core5slice4iterINtB6_4IterNtNtCs2nm8mGoL06A_14mockall_derive9mock_item15MockItemContentENtNtNtNtBa_4iter6traits8iterator8Iterator4nextBT_, symObjAddr: 0x2FBC, symBinAddr: 0x54E18, symSize: 0xBC }
  - { offset: 0x77D69, size: 0x8, addend: 0x0, symName: __RNvXs2U_NtNtCsfvfooZQ3Axs_4core5slice4iterINtB6_4IterNtNtCs6IAuOt8vWmF_3syn2ty4TypeENtNtNtNtBa_4iter6traits8iterator8Iterator24___iterator_get_uncheckedCs2nm8mGoL06A_14mockall_derive, symObjAddr: 0x3078, symBinAddr: 0x54ED4, symSize: 0x28 }
  - { offset: 0x77DC4, size: 0x8, addend: 0x0, symName: __RNvXs2U_NtNtCsfvfooZQ3Axs_4core5slice4iterINtB6_4IterNtNtCs6IAuOt8vWmF_3syn2ty4TypeENtNtNtNtBa_4iter6traits8iterator8Iterator4nextCs2nm8mGoL06A_14mockall_derive, symObjAddr: 0x30A0, symBinAddr: 0x54EFC, symSize: 0xBC }
  - { offset: 0x77F12, size: 0x8, addend: 0x0, symName: __RNvXs2U_NtNtCsfvfooZQ3Axs_4core5slice4iterINtB6_4IterNtNtCs6IAuOt8vWmF_3syn2ty4TypeENtNtNtNtBa_4iter6traits8iterator8Iterator9size_hintCs2nm8mGoL06A_14mockall_derive, symObjAddr: 0x315C, symBinAddr: 0x54FB8, symSize: 0x70 }
  - { offset: 0x77F81, size: 0x8, addend: 0x0, symName: __RNvXs2U_NtNtCsfvfooZQ3Axs_4core5slice4iterINtB6_4IterNtNtCs6IAuOt8vWmF_3syn3pat3PatENtNtNtNtBa_4iter6traits8iterator8Iterator24___iterator_get_uncheckedCs2nm8mGoL06A_14mockall_derive, symObjAddr: 0x31CC, symBinAddr: 0x55028, symSize: 0x28 }
  - { offset: 0x77FDC, size: 0x8, addend: 0x0, symName: __RNvXs2U_NtNtCsfvfooZQ3Axs_4core5slice4iterINtB6_4IterNtNtCs6IAuOt8vWmF_3syn3pat3PatENtNtNtNtBa_4iter6traits8iterator8Iterator4nextCs2nm8mGoL06A_14mockall_derive, symObjAddr: 0x31F4, symBinAddr: 0x55050, symSize: 0xBC }
  - { offset: 0x7812A, size: 0x8, addend: 0x0, symName: __RNvXs2U_NtNtCsfvfooZQ3Axs_4core5slice4iterINtB6_4IterNtNtCs6IAuOt8vWmF_3syn3pat3PatENtNtNtNtBa_4iter6traits8iterator8Iterator9size_hintCs2nm8mGoL06A_14mockall_derive, symObjAddr: 0x32B0, symBinAddr: 0x5510C, symSize: 0x70 }
  - { offset: 0x78199, size: 0x8, addend: 0x0, symName: __RNvXs2U_NtNtCsfvfooZQ3Axs_4core5slice4iterINtB6_4IterNtNtCs6IAuOt8vWmF_3syn4attr9AttributeENtNtNtNtBa_4iter6traits8iterator8Iterator9size_hintCs2nm8mGoL06A_14mockall_derive, symObjAddr: 0x3320, symBinAddr: 0x5517C, symSize: 0x70 }
  - { offset: 0x78208, size: 0x8, addend: 0x0, symName: __RNvXs2U_NtNtCsfvfooZQ3Axs_4core5slice4iterINtB6_4IterNtNtCs6IAuOt8vWmF_3syn4expr5IndexENtNtNtNtBa_4iter6traits8iterator8Iterator4nextCs2nm8mGoL06A_14mockall_derive, symObjAddr: 0x3390, symBinAddr: 0x551EC, symSize: 0xBC }
  - { offset: 0x78356, size: 0x8, addend: 0x0, symName: __RNvXs2U_NtNtCsfvfooZQ3Axs_4core5slice4iterINtB6_4IterNtNtCs6IAuOt8vWmF_3syn4item10ImplItemFnENtNtNtNtBa_4iter6traits8iterator8Iterator4nextCs2nm8mGoL06A_14mockall_derive, symObjAddr: 0x344C, symBinAddr: 0x552A8, symSize: 0xBC }
  - { offset: 0x784A4, size: 0x8, addend: 0x0, symName: __RNvXs2U_NtNtCsfvfooZQ3Axs_4core5slice4iterINtB6_4IterNtNtCs6IAuOt8vWmF_3syn4item12ImplItemTypeENtNtNtNtBa_4iter6traits8iterator8Iterator4nextCs2nm8mGoL06A_14mockall_derive, symObjAddr: 0x3508, symBinAddr: 0x55364, symSize: 0xBC }
  - { offset: 0x785F2, size: 0x8, addend: 0x0, symName: __RNvXs2U_NtNtCsfvfooZQ3Axs_4core5slice4iterINtB6_4IterNtNtCs6IAuOt8vWmF_3syn4item13ImplItemConstENtNtNtNtBa_4iter6traits8iterator8Iterator4nextCs2nm8mGoL06A_14mockall_derive, symObjAddr: 0x35C4, symBinAddr: 0x55420, symSize: 0xBC }
  - { offset: 0x78740, size: 0x8, addend: 0x0, symName: __RNvXs2U_NtNtCsfvfooZQ3Axs_4core5slice4iterINtB6_4IterNtNtCs6IAuOt8vWmF_3syn4item5FnArgENtNtNtNtBa_4iter6traits8iterator8Iterator4nextCs2nm8mGoL06A_14mockall_derive, symObjAddr: 0x3680, symBinAddr: 0x554DC, symSize: 0xBC }
  - { offset: 0x7888E, size: 0x8, addend: 0x0, symName: __RNvXs2U_NtNtCsfvfooZQ3Axs_4core5slice4iterINtB6_4IterNtNtCs6IAuOt8vWmF_3syn4item8ItemImplENtNtNtNtBa_4iter6traits8iterator8Iterator4nextCs2nm8mGoL06A_14mockall_derive, symObjAddr: 0x373C, symBinAddr: 0x55598, symSize: 0xBC }
  - { offset: 0x789DC, size: 0x8, addend: 0x0, symName: __RNvXs2U_NtNtCsfvfooZQ3Axs_4core5slice4iterINtB6_4IterTNtCs3cP53eQoTwO_11proc_macro25IdentNtNtCs6IAuOt8vWmF_3syn5token5CommaEENtNtNtNtBa_4iter6traits8iterator8Iterator4nextCs2nm8mGoL06A_14mockall_derive, symObjAddr: 0x37F8, symBinAddr: 0x55654, symSize: 0xBC }
  - { offset: 0x78B2A, size: 0x8, addend: 0x0, symName: __RNvXs2U_NtNtCsfvfooZQ3Axs_4core5slice4iterINtB6_4IterTNtNtCs6IAuOt8vWmF_3syn8generics13LifetimeParamNtNtBU_5token5CommaEENtNtNtNtBa_4iter6traits8iterator8Iterator4nextCs2nm8mGoL06A_14mockall_derive, symObjAddr: 0x38B4, symBinAddr: 0x55710, symSize: 0xBC }
  - { offset: 0x79CE4, size: 0x8, addend: 0x0, symName: __RNvXs2V_NtNtCsfvfooZQ3Axs_4core5slice4iterINtB6_4IterTNtNtCs6IAuOt8vWmF_3syn2ty4TypeNtNtBU_5token5CommaEENtNtNtNtBa_4iter6traits12double_ended19DoubleEndedIterator9next_backCs2nm8mGoL06A_14mockall_derive, symObjAddr: 0x3970, symBinAddr: 0x557CC, symSize: 0x100 }
  - { offset: 0x79E40, size: 0x8, addend: 0x0, symName: __RNvXs2V_NtNtCsfvfooZQ3Axs_4core5slice4iterINtB6_4IterTNtNtCs6IAuOt8vWmF_3syn4path15GenericArgumentNtNtBU_5token5CommaEENtNtNtNtBa_4iter6traits12double_ended19DoubleEndedIterator9next_backCs2nm8mGoL06A_14mockall_derive, symObjAddr: 0x3A70, symBinAddr: 0x558CC, symSize: 0x100 }
  - { offset: 0x79F9C, size: 0x8, addend: 0x0, symName: __RNvXs2V_NtNtCsfvfooZQ3Axs_4core5slice4iterINtB6_4IterTNtNtCs6IAuOt8vWmF_3syn8generics13LifetimeParamNtNtBU_5token5CommaEENtNtNtNtBa_4iter6traits12double_ended19DoubleEndedIterator9next_backCs2nm8mGoL06A_14mockall_derive, symObjAddr: 0x3B70, symBinAddr: 0x559CC, symSize: 0x100 }
  - { offset: 0x7A0F8, size: 0x8, addend: 0x0, symName: __RNvXs2V_NtNtCsfvfooZQ3Axs_4core5slice4iterINtB6_4IterTNtNtCs6IAuOt8vWmF_3syn8generics14WherePredicateNtNtBU_5token5CommaEENtNtNtNtBa_4iter6traits12double_ended19DoubleEndedIterator9next_backCs2nm8mGoL06A_14mockall_derive, symObjAddr: 0x3C70, symBinAddr: 0x55ACC, symSize: 0x100 }
  - { offset: 0x7A486, size: 0x8, addend: 0x0, symName: __RNvXs32_NtNtCsfvfooZQ3Axs_4core5slice4iterINtB6_7IterMutNtNtCs6IAuOt8vWmF_3syn4item8ImplItemENtNtNtNtBa_4iter6traits8iterator8Iterator4nextCs2nm8mGoL06A_14mockall_derive, symObjAddr: 0x3D70, symBinAddr: 0x55BCC, symSize: 0xBC }
  - { offset: 0x7A5BF, size: 0x8, addend: 0x0, symName: __RNvXs32_NtNtCsfvfooZQ3Axs_4core5slice4iterINtB6_7IterMutNtNtCs6IAuOt8vWmF_3syn4item9TraitItemENtNtNtNtBa_4iter6traits8iterator8Iterator4nextCs2nm8mGoL06A_14mockall_derive, symObjAddr: 0x3E2C, symBinAddr: 0x55C88, symSize: 0xBC }
  - { offset: 0x7A6F8, size: 0x8, addend: 0x0, symName: __RNvXs32_NtNtCsfvfooZQ3Axs_4core5slice4iterINtB6_7IterMutTNtNtCs6IAuOt8vWmF_3syn2ty4TypeNtNtBX_5token5CommaEENtNtNtNtBa_4iter6traits8iterator8Iterator4nextCs2nm8mGoL06A_14mockall_derive, symObjAddr: 0x3EE8, symBinAddr: 0x55D44, symSize: 0xBC }
  - { offset: 0x7A831, size: 0x8, addend: 0x0, symName: __RNvXs32_NtNtCsfvfooZQ3Axs_4core5slice4iterINtB6_7IterMutTNtNtCs6IAuOt8vWmF_3syn2ty9BareFnArgNtNtBX_5token5CommaEENtNtNtNtBa_4iter6traits8iterator8Iterator4nextCs2nm8mGoL06A_14mockall_derive, symObjAddr: 0x3FA4, symBinAddr: 0x55E00, symSize: 0xBC }
  - { offset: 0x7A96A, size: 0x8, addend: 0x0, symName: __RNvXs32_NtNtCsfvfooZQ3Axs_4core5slice4iterINtB6_7IterMutTNtNtCs6IAuOt8vWmF_3syn4item5FnArgNtNtBX_5token5CommaEENtNtNtNtBa_4iter6traits8iterator8Iterator4nextCs2nm8mGoL06A_14mockall_derive, symObjAddr: 0x4060, symBinAddr: 0x55EBC, symSize: 0xBC }
  - { offset: 0x7AAA3, size: 0x8, addend: 0x0, symName: __RNvXs32_NtNtCsfvfooZQ3Axs_4core5slice4iterINtB6_7IterMutTNtNtCs6IAuOt8vWmF_3syn4path15GenericArgumentNtNtBX_5token5CommaEENtNtNtNtBa_4iter6traits8iterator8Iterator4nextCs2nm8mGoL06A_14mockall_derive, symObjAddr: 0x411C, symBinAddr: 0x55F78, symSize: 0xBC }
  - { offset: 0x7ABDC, size: 0x8, addend: 0x0, symName: __RNvXs32_NtNtCsfvfooZQ3Axs_4core5slice4iterINtB6_7IterMutTNtNtCs6IAuOt8vWmF_3syn8generics14TypeParamBoundNtNtBX_5token4PlusEENtNtNtNtBa_4iter6traits8iterator8Iterator4nextCs2nm8mGoL06A_14mockall_derive, symObjAddr: 0x41D8, symBinAddr: 0x56034, symSize: 0xBC }
  - { offset: 0x7AD15, size: 0x8, addend: 0x0, symName: __RNvXs32_NtNtCsfvfooZQ3Axs_4core5slice4iterINtB6_7IterMutTNtNtCs6IAuOt8vWmF_3syn8generics14WherePredicateNtNtBX_5token5CommaEENtNtNtNtBa_4iter6traits8iterator8Iterator4nextCs2nm8mGoL06A_14mockall_derive, symObjAddr: 0x4294, symBinAddr: 0x560F0, symSize: 0xBC }
  - { offset: 0x7AE54, size: 0x8, addend: 0x0, symName: __RNvXs33_NtNtCsfvfooZQ3Axs_4core5slice4iterINtB6_7IterMutTNtNtCs6IAuOt8vWmF_3syn2ty4TypeNtNtBX_5token5CommaEENtNtNtNtBa_4iter6traits12double_ended19DoubleEndedIterator9next_backCs2nm8mGoL06A_14mockall_derive, symObjAddr: 0x4350, symBinAddr: 0x561AC, symSize: 0x100 }
  - { offset: 0x7AFB0, size: 0x8, addend: 0x0, symName: __RNvXs33_NtNtCsfvfooZQ3Axs_4core5slice4iterINtB6_7IterMutTNtNtCs6IAuOt8vWmF_3syn2ty9BareFnArgNtNtBX_5token5CommaEENtNtNtNtBa_4iter6traits12double_ended19DoubleEndedIterator9next_backCs2nm8mGoL06A_14mockall_derive, symObjAddr: 0x4450, symBinAddr: 0x562AC, symSize: 0x100 }
  - { offset: 0x7B10C, size: 0x8, addend: 0x0, symName: __RNvXs33_NtNtCsfvfooZQ3Axs_4core5slice4iterINtB6_7IterMutTNtNtCs6IAuOt8vWmF_3syn4item5FnArgNtNtBX_5token5CommaEENtNtNtNtBa_4iter6traits12double_ended19DoubleEndedIterator9next_backCs2nm8mGoL06A_14mockall_derive, symObjAddr: 0x4550, symBinAddr: 0x563AC, symSize: 0x100 }
  - { offset: 0x7B268, size: 0x8, addend: 0x0, symName: __RNvXs33_NtNtCsfvfooZQ3Axs_4core5slice4iterINtB6_7IterMutTNtNtCs6IAuOt8vWmF_3syn4path15GenericArgumentNtNtBX_5token5CommaEENtNtNtNtBa_4iter6traits12double_ended19DoubleEndedIterator9next_backCs2nm8mGoL06A_14mockall_derive, symObjAddr: 0x4650, symBinAddr: 0x564AC, symSize: 0x100 }
  - { offset: 0x7B3C4, size: 0x8, addend: 0x0, symName: __RNvXs33_NtNtCsfvfooZQ3Axs_4core5slice4iterINtB6_7IterMutTNtNtCs6IAuOt8vWmF_3syn8generics14TypeParamBoundNtNtBX_5token4PlusEENtNtNtNtBa_4iter6traits12double_ended19DoubleEndedIterator9next_backCs2nm8mGoL06A_14mockall_derive, symObjAddr: 0x4750, symBinAddr: 0x565AC, symSize: 0x100 }
  - { offset: 0x7B520, size: 0x8, addend: 0x0, symName: __RNvXs33_NtNtCsfvfooZQ3Axs_4core5slice4iterINtB6_7IterMutTNtNtCs6IAuOt8vWmF_3syn8generics14WherePredicateNtNtBX_5token5CommaEENtNtNtNtBa_4iter6traits12double_ended19DoubleEndedIterator9next_backCs2nm8mGoL06A_14mockall_derive, symObjAddr: 0x4850, symBinAddr: 0x566AC, symSize: 0x100 }
  - { offset: 0x7B682, size: 0x8, addend: 0x0, symName: __RNvXs5_NtNtCsfvfooZQ3Axs_4core5slice4iterINtB5_4IterTNtNtCs6IAuOt8vWmF_3syn2ty4TypeNtNtBT_5token5CommaEENtNtB9_5clone5Clone5cloneCs2nm8mGoL06A_14mockall_derive, symObjAddr: 0x4950, symBinAddr: 0x567AC, symSize: 0x20 }
  - { offset: 0x7B6B7, size: 0x8, addend: 0x0, symName: __RNvXs5_NtNtCsfvfooZQ3Axs_4core5slice4iterINtB5_4IterTNtNtCs6IAuOt8vWmF_3syn4path15GenericArgumentNtNtBT_5token5CommaEENtNtB9_5clone5Clone5cloneCs2nm8mGoL06A_14mockall_derive, symObjAddr: 0x4970, symBinAddr: 0x567CC, symSize: 0x20 }
  - { offset: 0x7B6EC, size: 0x8, addend: 0x0, symName: __RNvXs5_NtNtCsfvfooZQ3Axs_4core5slice4iterINtB5_4IterTNtNtCs6IAuOt8vWmF_3syn8generics13LifetimeParamNtNtBT_5token5CommaEENtNtB9_5clone5Clone5cloneCs2nm8mGoL06A_14mockall_derive, symObjAddr: 0x4990, symBinAddr: 0x567EC, symSize: 0x20 }
  - { offset: 0x7B721, size: 0x8, addend: 0x0, symName: __RNvXs5_NtNtCsfvfooZQ3Axs_4core5slice4iterINtB5_4IterTNtNtCs6IAuOt8vWmF_3syn8generics14WherePredicateNtNtBT_5token5CommaEENtNtB9_5clone5Clone5cloneCs2nm8mGoL06A_14mockall_derive, symObjAddr: 0x49B0, symBinAddr: 0x5680C, symSize: 0x20 }
  - { offset: 0x819EF, size: 0x8, addend: 0x0, symName: __RNvYINtNtNtCsfvfooZQ3Axs_4core5slice4iter4IterNtCs3cP53eQoTwO_11proc_macro25IdentENtNtNtNtB9_4iter8adapters3zip27TrustedRandomAccessNoCoerce4sizeCs2nm8mGoL06A_14mockall_derive, symObjAddr: 0x49D0, symBinAddr: 0x5682C, symSize: 0x2C }
  - { offset: 0x81A26, size: 0x8, addend: 0x0, symName: __RNvYINtNtNtCsfvfooZQ3Axs_4core5slice4iter4IterNtNtCs6IAuOt8vWmF_3syn2ty4TypeENtNtNtNtB9_4iter8adapters3zip27TrustedRandomAccessNoCoerce4sizeCs2nm8mGoL06A_14mockall_derive, symObjAddr: 0x49FC, symBinAddr: 0x56858, symSize: 0x2C }
  - { offset: 0x81A5D, size: 0x8, addend: 0x0, symName: __RNvYINtNtNtCsfvfooZQ3Axs_4core5slice4iter4IterNtNtCs6IAuOt8vWmF_3syn3pat3PatENtNtNtNtB9_4iter8adapters3zip27TrustedRandomAccessNoCoerce4sizeCs2nm8mGoL06A_14mockall_derive, symObjAddr: 0x4A50, symBinAddr: 0x568AC, symSize: 0x2C }
  - { offset: 0x821CF, size: 0x8, addend: 0x0, symName: __RINvYINtNtNtCsfvfooZQ3Axs_4core5slice4iter4IterNtCs3cP53eQoTwO_11proc_macro25IdentENtNtNtNtBa_4iter6traits8iterator8Iterator3zipIB4_NtNtCs6IAuOt8vWmF_3syn2ty4TypeEECs2nm8mGoL06A_14mockall_derive, symObjAddr: 0x1CAC, symBinAddr: 0x53B08, symSize: 0xCC }
  - { offset: 0x82245, size: 0x8, addend: 0x0, symName: __RINvYINtNtNtCsfvfooZQ3Axs_4core5slice4iter4IterNtNtCs2nm8mGoL06A_14mockall_derive10mock_trait9MockTraitENtNtNtNtBa_4iter6traits8iterator8Iterator3mapNtCs3cP53eQoTwO_11proc_macro211TokenStreamNCNvXs1_NtBN_16mock_item_structNtB3b_14MockItemStructNtNtCs2cqEZUIJimJ_5quote9to_tokens8ToTokens9to_tokenssa_0EBN_, symObjAddr: 0x1D78, symBinAddr: 0x53BD4, symSize: 0x30 }
  - { offset: 0x822B2, size: 0x8, addend: 0x0, symName: __RINvYINtNtNtCsfvfooZQ3Axs_4core5slice4iter4IterNtNtCs2nm8mGoL06A_14mockall_derive10mock_trait9MockTraitENtNtNtNtBa_4iter6traits8iterator8Iterator6filterNCINvNtBN_16mock_item_struct17unique_trait_iterB3_E0EBN_, symObjAddr: 0x1DA8, symBinAddr: 0x53C04, symSize: 0x48 }
  - { offset: 0x82317, size: 0x8, addend: 0x0, symName: __RINvYINtNtNtCsfvfooZQ3Axs_4core5slice4iter4IterNtNtCs2nm8mGoL06A_14mockall_derive13mock_function12MockFunctionENtNtNtNtBa_4iter6traits8iterator8Iterator3mapNtCs3cP53eQoTwO_11proc_macro211TokenStreamNCNvMNtBN_10mock_traitNtB3f_9MockTrait10trait_impl0EBN_, symObjAddr: 0x1DF0, symBinAddr: 0x53C4C, symSize: 0x30 }
  - { offset: 0x82384, size: 0x8, addend: 0x0, symName: __RINvYINtNtNtCsfvfooZQ3Axs_4core5slice4iter4IterNtNtCs2nm8mGoL06A_14mockall_derive13mock_function12MockFunctionENtNtNtNtBa_4iter6traits8iterator8Iterator3mapNtCs3cP53eQoTwO_11proc_macro211TokenStreamNCNvMNtBN_16mock_item_structNtB3f_7Methods9priv_mods0EBN_, symObjAddr: 0x1E20, symBinAddr: 0x53C7C, symSize: 0x1C }
  - { offset: 0x823DC, size: 0x8, addend: 0x0, symName: __RINvYINtNtNtCsfvfooZQ3Axs_4core5slice4iter4IterNtNtCs2nm8mGoL06A_14mockall_derive13mock_function12MockFunctionENtNtNtNtBa_4iter6traits8iterator8Iterator3mapNtCs3cP53eQoTwO_11proc_macro211TokenStreamNCNvXs1_NtBN_16mock_item_structNtB3i_14MockItemStructNtNtCs2cqEZUIJimJ_5quote9to_tokens8ToTokens9to_tokens0EBN_, symObjAddr: 0x1E3C, symBinAddr: 0x53C98, symSize: 0x30 }
  - { offset: 0x82449, size: 0x8, addend: 0x0, symName: __RINvYINtNtNtCsfvfooZQ3Axs_4core5slice4iter4IterNtNtCs2nm8mGoL06A_14mockall_derive13mock_function12MockFunctionENtNtNtNtBa_4iter6traits8iterator8Iterator6filterNCNvMNtBN_10mock_traitNtB2C_9MockTrait10trait_impls1_0EBN_, symObjAddr: 0x1E6C, symBinAddr: 0x53CC8, symSize: 0x1C }
  - { offset: 0x82498, size: 0x8, addend: 0x0, symName: __RINvYINtNtNtCsfvfooZQ3Axs_4core5slice4iter4IterNtNtCs2nm8mGoL06A_14mockall_derive13mock_function12MockFunctionENtNtNtNtBa_4iter6traits8iterator8Iterator6filterNCNvMNtBN_10mock_traitNtB2C_9MockTrait10trait_impls_0EBN_, symObjAddr: 0x1E88, symBinAddr: 0x53CE4, symSize: 0x1C }
  - { offset: 0x824E7, size: 0x8, addend: 0x0, symName: __RINvYINtNtNtCsfvfooZQ3Axs_4core5slice4iter4IterNtNtCs2nm8mGoL06A_14mockall_derive13mock_function12MockFunctionENtNtNtNtBa_4iter6traits8iterator8Iterator6filterNCNvMNtBN_16mock_item_structNtB2C_7Methods11checkpoints0EBN_, symObjAddr: 0x1EA4, symBinAddr: 0x53D00, symSize: 0x1C }
  - { offset: 0x82536, size: 0x8, addend: 0x0, symName: __RINvYINtNtNtCsfvfooZQ3Axs_4core5slice4iter4IterNtNtCs2nm8mGoL06A_14mockall_derive13mock_function12MockFunctionENtNtNtNtBa_4iter6traits8iterator8Iterator6filterNCNvMNtBN_16mock_item_structNtB2C_7Methods13default_inits0EBN_, symObjAddr: 0x1EC0, symBinAddr: 0x53D1C, symSize: 0x1C }
  - { offset: 0x82585, size: 0x8, addend: 0x0, symName: __RINvYINtNtNtCsfvfooZQ3Axs_4core5slice4iter4IterNtNtCs2nm8mGoL06A_14mockall_derive13mock_function12MockFunctionENtNtNtNtBa_4iter6traits8iterator8Iterator6filterNCNvMNtBN_16mock_item_structNtB2C_7Methods17field_definitions0EBN_, symObjAddr: 0x1EDC, symBinAddr: 0x53D38, symSize: 0x1C }
  - { offset: 0x825D4, size: 0x8, addend: 0x0, symName: __RINvYINtNtNtCsfvfooZQ3Axs_4core5slice4iter4IterNtNtCs2nm8mGoL06A_14mockall_derive13mock_function12MockFunctionENtNtNtNtBa_4iter6traits8iterator8Iterator6filterNCNvXs1_NtBN_16mock_item_structNtB2F_14MockItemStructNtNtCs2cqEZUIJimJ_5quote9to_tokens8ToTokens9to_tokenss1_0EBN_, symObjAddr: 0x1EF8, symBinAddr: 0x53D54, symSize: 0x1C }
  - { offset: 0x82623, size: 0x8, addend: 0x0, symName: __RINvYINtNtNtCsfvfooZQ3Axs_4core5slice4iter4IterNtNtCs2nm8mGoL06A_14mockall_derive13mock_function12MockFunctionENtNtNtNtBa_4iter6traits8iterator8Iterator6filterNCNvXs1_NtBN_16mock_item_structNtB2F_14MockItemStructNtNtCs2cqEZUIJimJ_5quote9to_tokens8ToTokens9to_tokenss_0EBN_, symObjAddr: 0x1F14, symBinAddr: 0x53D70, symSize: 0x1C }
  - { offset: 0x82672, size: 0x8, addend: 0x0, symName: __RINvYINtNtNtCsfvfooZQ3Axs_4core5slice4iter4IterNtNtCs2nm8mGoL06A_14mockall_derive16mock_item_struct17MockItemTraitImplENtNtNtNtBa_4iter6traits8iterator8Iterator6filterNCNvXs1_BL_NtBL_14MockItemStructNtNtCs2cqEZUIJimJ_5quote9to_tokens8ToTokens9to_tokenss4_0EBN_, symObjAddr: 0x1F30, symBinAddr: 0x53D8C, symSize: 0x1C }
  - { offset: 0x826C1, size: 0x8, addend: 0x0, symName: __RINvYINtNtNtCsfvfooZQ3Axs_4core5slice4iter4IterNtNtCs2nm8mGoL06A_14mockall_derive16mock_item_struct17MockItemTraitImplENtNtNtNtBa_4iter6traits8iterator8Iterator6filterNCNvXs1_BL_NtBL_14MockItemStructNtNtCs2cqEZUIJimJ_5quote9to_tokens8ToTokens9to_tokenss6_0EBN_, symObjAddr: 0x1F4C, symBinAddr: 0x53DA8, symSize: 0x1C }
  - { offset: 0x82710, size: 0x8, addend: 0x0, symName: __RINvYINtNtNtCsfvfooZQ3Axs_4core5slice4iter4IterNtNtCs2nm8mGoL06A_14mockall_derive16mock_item_struct17MockItemTraitImplENtNtNtNtBa_4iter6traits8iterator8Iterator6filterNCNvXs1_BL_NtBL_14MockItemStructNtNtCs2cqEZUIJimJ_5quote9to_tokens8ToTokens9to_tokenss8_0EBN_, symObjAddr: 0x1F68, symBinAddr: 0x53DC4, symSize: 0x1C }
  - { offset: 0x8275F, size: 0x8, addend: 0x0, symName: __RINvYINtNtNtCsfvfooZQ3Axs_4core5slice4iter4IterNtNtCs6IAuOt8vWmF_3syn2ty4TypeENtNtNtNtBa_4iter6traits8iterator8Iterator3mapNtCs3cP53eQoTwO_11proc_macro211TokenStreamNCNvXs7_NtCs2nm8mGoL06A_14mockall_derive13mock_functionNtB2L_7MatcherNtNtCs2cqEZUIJimJ_5quote9to_tokens8ToTokens9to_tokenss1_0EB2N_, symObjAddr: 0x1F84, symBinAddr: 0x53DE0, symSize: 0x30 }
  - { offset: 0x827CC, size: 0x8, addend: 0x0, symName: __RINvYINtNtNtCsfvfooZQ3Axs_4core5slice4iter4IterNtNtCs6IAuOt8vWmF_3syn3pat3PatENtNtNtNtBa_4iter6traits8iterator8Iterator3mapNtCs3cP53eQoTwO_11proc_macro211TokenStreamNCNvXs0_NtCs2nm8mGoL06A_14mockall_derive13mock_functionNtB2L_6CommonNtNtCs2cqEZUIJimJ_5quote9to_tokens8ToTokens9to_tokenss1_0EB2N_, symObjAddr: 0x1FB4, symBinAddr: 0x53E10, symSize: 0x1C }
  - { offset: 0x82824, size: 0x8, addend: 0x0, symName: __RINvYINtNtNtCsfvfooZQ3Axs_4core5slice4iter4IterNtNtCs6IAuOt8vWmF_3syn3pat3PatENtNtNtNtBa_4iter6traits8iterator8Iterator3zipIB4_NtCs3cP53eQoTwO_11proc_macro25IdentEECs2nm8mGoL06A_14mockall_derive, symObjAddr: 0x1FD0, symBinAddr: 0x53E2C, symSize: 0xCC }
  - { offset: 0x8289A, size: 0x8, addend: 0x0, symName: __RINvYINtNtNtCsfvfooZQ3Axs_4core5slice4iter4IterNtNtCs6IAuOt8vWmF_3syn4attr9AttributeENtNtNtNtBa_4iter6traits8iterator8Iterator3mapBJ_NvYBJ_NtNtBa_5clone5Clone5cloneECs2nm8mGoL06A_14mockall_derive, symObjAddr: 0x209C, symBinAddr: 0x53EF8, symSize: 0x1C }
  - { offset: 0x828F2, size: 0x8, addend: 0x0, symName: __RINvYINtNtNtCsfvfooZQ3Axs_4core5slice4iter4IterNtNtCs6IAuOt8vWmF_3syn4attr9AttributeENtNtNtNtBa_4iter6traits8iterator8Iterator6clonedBJ_ECs2nm8mGoL06A_14mockall_derive, symObjAddr: 0x20B8, symBinAddr: 0x53F14, symSize: 0x1C }
  - { offset: 0x82932, size: 0x8, addend: 0x0, symName: __RINvYINtNtNtCsfvfooZQ3Axs_4core5slice4iter4IterNtNtCs6IAuOt8vWmF_3syn4attr9AttributeENtNtNtNtBa_4iter6traits8iterator8Iterator6filterNCNvMCs2nm8mGoL06A_14mockall_deriveNtB2c_13AttrFormatter6format0EB2c_, symObjAddr: 0x20D4, symBinAddr: 0x53F30, symSize: 0x3C }
  - { offset: 0x82996, size: 0x8, addend: 0x0, symName: __RNvYINtNtNtCsfvfooZQ3Axs_4core5slice4iter4IterNtNtCs6IAuOt8vWmF_3syn3pat3PatENtNtNtNtB9_4iter6traits8iterator8Iterator9enumerateCs2nm8mGoL06A_14mockall_derive, symObjAddr: 0x4A28, symBinAddr: 0x56884, symSize: 0x28 }
  - { offset: 0x82A92, size: 0x8, addend: 0x0, symName: __RNvXNtNtNtCsfvfooZQ3Axs_4core4iter6traits7collectINtNtNtB8_5slice4iter4IterNtCs3cP53eQoTwO_11proc_macro25IdentENtB2_12IntoIterator9into_iterCs2nm8mGoL06A_14mockall_derive, symObjAddr: 0x2980, symBinAddr: 0x547DC, symSize: 0x1C }
  - { offset: 0x82AC9, size: 0x8, addend: 0x0, symName: __RNvXNtNtNtCsfvfooZQ3Axs_4core4iter6traits7collectINtNtNtB8_5slice4iter4IterNtNtCs2nm8mGoL06A_14mockall_derive9mock_item15MockItemContentENtB2_12IntoIterator9into_iterB1f_, symObjAddr: 0x299C, symBinAddr: 0x547F8, symSize: 0x1C }
  - { offset: 0x82B00, size: 0x8, addend: 0x0, symName: __RNvXNtNtNtCsfvfooZQ3Axs_4core4iter6traits7collectINtNtNtB8_5slice4iter4IterNtNtCs6IAuOt8vWmF_3syn2ty4TypeENtB2_12IntoIterator9into_iterCs2nm8mGoL06A_14mockall_derive, symObjAddr: 0x29B8, symBinAddr: 0x54814, symSize: 0x1C }
  - { offset: 0x82B37, size: 0x8, addend: 0x0, symName: __RNvXNtNtNtCsfvfooZQ3Axs_4core4iter6traits7collectINtNtNtB8_5slice4iter4IterNtNtCs6IAuOt8vWmF_3syn4item5FnArgENtB2_12IntoIterator9into_iterCs2nm8mGoL06A_14mockall_derive, symObjAddr: 0x29D4, symBinAddr: 0x54830, symSize: 0x1C }
  - { offset: 0x82B6E, size: 0x8, addend: 0x0, symName: __RNvXNtNtNtCsfvfooZQ3Axs_4core4iter6traits7collectINtNtNtB8_5slice4iter7IterMutNtNtCs6IAuOt8vWmF_3syn4item8ImplItemENtB2_12IntoIterator9into_iterCs2nm8mGoL06A_14mockall_derive, symObjAddr: 0x29F0, symBinAddr: 0x5484C, symSize: 0x1C }
  - { offset: 0x82BA5, size: 0x8, addend: 0x0, symName: __RNvXNtNtNtCsfvfooZQ3Axs_4core4iter6traits7collectINtNtNtB8_5slice4iter7IterMutNtNtCs6IAuOt8vWmF_3syn4item9TraitItemENtB2_12IntoIterator9into_iterCs2nm8mGoL06A_14mockall_derive, symObjAddr: 0x2A0C, symBinAddr: 0x54868, symSize: 0x1C }
  - { offset: 0x89B02, size: 0x8, addend: 0x0, symName: __RNvMs4_NtNtCsfvfooZQ3Axs_4core5slice4iterINtB5_4IterNtCs3cP53eQoTwO_11proc_macro211TokenStreamE3newCs2nm8mGoL06A_14mockall_derive, symObjAddr: 0x2110, symBinAddr: 0x53F6C, symSize: 0x50 }
  - { offset: 0x89CD0, size: 0x8, addend: 0x0, symName: __RNvMs4_NtNtCsfvfooZQ3Axs_4core5slice4iterINtB5_4IterNtCs3cP53eQoTwO_11proc_macro25IdentE3newCs2nm8mGoL06A_14mockall_derive, symObjAddr: 0x2160, symBinAddr: 0x53FBC, symSize: 0x58 }
  - { offset: 0x89E91, size: 0x8, addend: 0x0, symName: __RNvMs4_NtNtCsfvfooZQ3Axs_4core5slice4iterINtB5_4IterNtNtCs2nm8mGoL06A_14mockall_derive10mock_trait9MockTraitE3newBS_, symObjAddr: 0x21B8, symBinAddr: 0x54014, symSize: 0x58 }
  - { offset: 0x8A052, size: 0x8, addend: 0x0, symName: __RNvMs4_NtNtCsfvfooZQ3Axs_4core5slice4iterINtB5_4IterNtNtCs2nm8mGoL06A_14mockall_derive13mock_function12MockFunctionE3newBS_, symObjAddr: 0x2210, symBinAddr: 0x5406C, symSize: 0x58 }
  - { offset: 0x8A23A, size: 0x8, addend: 0x0, symName: __RNvMs4_NtNtCsfvfooZQ3Axs_4core5slice4iterINtB5_4IterNtNtCs2nm8mGoL06A_14mockall_derive16mock_item_struct17MockItemTraitImplE3newBS_, symObjAddr: 0x2268, symBinAddr: 0x540C4, symSize: 0x58 }
  - { offset: 0x8A42F, size: 0x8, addend: 0x0, symName: __RNvMs4_NtNtCsfvfooZQ3Axs_4core5slice4iterINtB5_4IterNtNtCs2nm8mGoL06A_14mockall_derive9mock_item15MockItemContentE3newBS_, symObjAddr: 0x22C0, symBinAddr: 0x5411C, symSize: 0x50 }
  - { offset: 0x8A5F0, size: 0x8, addend: 0x0, symName: __RNvMs4_NtNtCsfvfooZQ3Axs_4core5slice4iterINtB5_4IterNtNtCs6IAuOt8vWmF_3syn2ty4TypeE3newCs2nm8mGoL06A_14mockall_derive, symObjAddr: 0x2310, symBinAddr: 0x5416C, symSize: 0x58 }
  - { offset: 0x8A7B1, size: 0x8, addend: 0x0, symName: __RNvMs4_NtNtCsfvfooZQ3Axs_4core5slice4iterINtB5_4IterNtNtCs6IAuOt8vWmF_3syn3pat3PatE3newCs2nm8mGoL06A_14mockall_derive, symObjAddr: 0x2368, symBinAddr: 0x541C4, symSize: 0x58 }
  - { offset: 0x8A999, size: 0x8, addend: 0x0, symName: __RNvMs4_NtNtCsfvfooZQ3Axs_4core5slice4iterINtB5_4IterNtNtCs6IAuOt8vWmF_3syn4expr5IndexE3newCs2nm8mGoL06A_14mockall_derive, symObjAddr: 0x23C0, symBinAddr: 0x5421C, symSize: 0x50 }
  - { offset: 0x8AB81, size: 0x8, addend: 0x0, symName: __RNvMs4_NtNtCsfvfooZQ3Axs_4core5slice4iterINtB5_4IterNtNtCs6IAuOt8vWmF_3syn4item10ImplItemFnE3newCs2nm8mGoL06A_14mockall_derive, symObjAddr: 0x2410, symBinAddr: 0x5426C, symSize: 0x58 }
  - { offset: 0x8AD69, size: 0x8, addend: 0x0, symName: __RNvMs4_NtNtCsfvfooZQ3Axs_4core5slice4iterINtB5_4IterNtNtCs6IAuOt8vWmF_3syn4item12ImplItemTypeE3newCs2nm8mGoL06A_14mockall_derive, symObjAddr: 0x2468, symBinAddr: 0x542C4, symSize: 0x58 }
  - { offset: 0x8AF51, size: 0x8, addend: 0x0, symName: __RNvMs4_NtNtCsfvfooZQ3Axs_4core5slice4iterINtB5_4IterNtNtCs6IAuOt8vWmF_3syn4item13ImplItemConstE3newCs2nm8mGoL06A_14mockall_derive, symObjAddr: 0x24C0, symBinAddr: 0x5431C, symSize: 0x58 }
  - { offset: 0x8B139, size: 0x8, addend: 0x0, symName: __RNvMs4_NtNtCsfvfooZQ3Axs_4core5slice4iterINtB5_4IterNtNtCs6IAuOt8vWmF_3syn4item5FnArgE3newCs2nm8mGoL06A_14mockall_derive, symObjAddr: 0x2518, symBinAddr: 0x54374, symSize: 0x58 }
  - { offset: 0x8B321, size: 0x8, addend: 0x0, symName: __RNvMs4_NtNtCsfvfooZQ3Axs_4core5slice4iterINtB5_4IterNtNtCs6IAuOt8vWmF_3syn4item8ImplItemE3newCs2nm8mGoL06A_14mockall_derive, symObjAddr: 0x2570, symBinAddr: 0x543CC, symSize: 0x58 }
  - { offset: 0x8B509, size: 0x8, addend: 0x0, symName: __RNvMs4_NtNtCsfvfooZQ3Axs_4core5slice4iterINtB5_4IterNtNtCs6IAuOt8vWmF_3syn4item8ItemImplE3newCs2nm8mGoL06A_14mockall_derive, symObjAddr: 0x25C8, symBinAddr: 0x54424, symSize: 0x58 }
  - { offset: 0x8B70F, size: 0x8, addend: 0x0, symName: __RNvMs4_NtNtCsfvfooZQ3Axs_4core5slice4iterINtB5_4IterTNtCs3cP53eQoTwO_11proc_macro25IdentNtNtCs6IAuOt8vWmF_3syn5token5CommaEE3newCs2nm8mGoL06A_14mockall_derive, symObjAddr: 0x2620, symBinAddr: 0x5447C, symSize: 0x50 }
  - { offset: 0x8B8F7, size: 0x8, addend: 0x0, symName: __RNvMs4_NtNtCsfvfooZQ3Axs_4core5slice4iterINtB5_4IterTNtNtCs6IAuOt8vWmF_3syn8generics13LifetimeParamNtNtBT_5token5CommaEE3newCs2nm8mGoL06A_14mockall_derive, symObjAddr: 0x2670, symBinAddr: 0x544CC, symSize: 0x58 }
  - { offset: 0x8BA9E, size: 0x8, addend: 0x0, symName: __RNvMsa_NtNtCsfvfooZQ3Axs_4core5slice4iterINtB5_7IterMutNtNtCs6IAuOt8vWmF_3syn4item8ImplItemE3newCs2nm8mGoL06A_14mockall_derive, symObjAddr: 0x26C8, symBinAddr: 0x54524, symSize: 0x58 }
  - { offset: 0x8BC86, size: 0x8, addend: 0x0, symName: __RNvMsa_NtNtCsfvfooZQ3Axs_4core5slice4iterINtB5_7IterMutNtNtCs6IAuOt8vWmF_3syn4item9TraitItemE3newCs2nm8mGoL06A_14mockall_derive, symObjAddr: 0x2720, symBinAddr: 0x5457C, symSize: 0x58 }
  - { offset: 0x8BE6E, size: 0x8, addend: 0x0, symName: __RNvMsa_NtNtCsfvfooZQ3Axs_4core5slice4iterINtB5_7IterMutTNtNtCs6IAuOt8vWmF_3syn2ty4TypeNtNtBW_5token5CommaEE3newCs2nm8mGoL06A_14mockall_derive, symObjAddr: 0x2778, symBinAddr: 0x545D4, symSize: 0x58 }
  - { offset: 0x8C056, size: 0x8, addend: 0x0, symName: __RNvMsa_NtNtCsfvfooZQ3Axs_4core5slice4iterINtB5_7IterMutTNtNtCs6IAuOt8vWmF_3syn2ty9BareFnArgNtNtBW_5token5CommaEE3newCs2nm8mGoL06A_14mockall_derive, symObjAddr: 0x27D0, symBinAddr: 0x5462C, symSize: 0x58 }
  - { offset: 0x8C23E, size: 0x8, addend: 0x0, symName: __RNvMsa_NtNtCsfvfooZQ3Axs_4core5slice4iterINtB5_7IterMutTNtNtCs6IAuOt8vWmF_3syn4item5FnArgNtNtBW_5token5CommaEE3newCs2nm8mGoL06A_14mockall_derive, symObjAddr: 0x2828, symBinAddr: 0x54684, symSize: 0x58 }
  - { offset: 0x8C426, size: 0x8, addend: 0x0, symName: __RNvMsa_NtNtCsfvfooZQ3Axs_4core5slice4iterINtB5_7IterMutTNtNtCs6IAuOt8vWmF_3syn4path15GenericArgumentNtNtBW_5token5CommaEE3newCs2nm8mGoL06A_14mockall_derive, symObjAddr: 0x2880, symBinAddr: 0x546DC, symSize: 0x58 }
  - { offset: 0x8C60E, size: 0x8, addend: 0x0, symName: __RNvMsa_NtNtCsfvfooZQ3Axs_4core5slice4iterINtB5_7IterMutTNtNtCs6IAuOt8vWmF_3syn8generics14TypeParamBoundNtNtBW_5token4PlusEE3newCs2nm8mGoL06A_14mockall_derive, symObjAddr: 0x28D8, symBinAddr: 0x54734, symSize: 0x50 }
  - { offset: 0x8C7F6, size: 0x8, addend: 0x0, symName: __RNvMsa_NtNtCsfvfooZQ3Axs_4core5slice4iterINtB5_7IterMutTNtNtCs6IAuOt8vWmF_3syn8generics14WherePredicateNtNtBW_5token5CommaEE3newCs2nm8mGoL06A_14mockall_derive, symObjAddr: 0x2928, symBinAddr: 0x54784, symSize: 0x58 }
  - { offset: 0x8E907, size: 0x8, addend: 0x0, symName: __RINvXs2_NtCs6IAuOt8vWmF_3syn10punctuatedINtB6_10PunctuatedNtNtB8_2ty4TypeNtNtB8_5token5CommaENtNtCsfvfooZQ3Axs_4core4hash4Hash4hashNtNtNtCscOYdFFY2T5N_3std4hash6random13DefaultHasherECs2nm8mGoL06A_14mockall_derive, symObjAddr: 0x0, symBinAddr: 0x568D8, symSize: 0x5C }
  - { offset: 0x8F196, size: 0x8, addend: 0x0, symName: __RINvXs2_NtCs6IAuOt8vWmF_3syn10punctuatedINtB6_10PunctuatedNtNtB8_2ty4TypeNtNtB8_5token5CommaENtNtCsfvfooZQ3Axs_4core4hash4Hash4hashNtNtNtCscOYdFFY2T5N_3std4hash6random13DefaultHasherECs2nm8mGoL06A_14mockall_derive, symObjAddr: 0x0, symBinAddr: 0x568D8, symSize: 0x5C }
  - { offset: 0x8F210, size: 0x8, addend: 0x0, symName: __RINvXs2_NtCs6IAuOt8vWmF_3syn10punctuatedINtB6_10PunctuatedNtNtB8_2ty9BareFnArgNtNtB8_5token5CommaENtNtCsfvfooZQ3Axs_4core4hash4Hash4hashNtNtNtCscOYdFFY2T5N_3std4hash6random13DefaultHasherECs2nm8mGoL06A_14mockall_derive, symObjAddr: 0x5C, symBinAddr: 0x56934, symSize: 0x5C }
  - { offset: 0x8F28A, size: 0x8, addend: 0x0, symName: __RINvXs2_NtCs6IAuOt8vWmF_3syn10punctuatedINtB6_10PunctuatedNtNtB8_3pat3PatNtNtB8_5token2OrENtNtCsfvfooZQ3Axs_4core4hash4Hash4hashNtNtNtCscOYdFFY2T5N_3std4hash6random13DefaultHasherECs2nm8mGoL06A_14mockall_derive, symObjAddr: 0xB8, symBinAddr: 0x56990, symSize: 0x5C }
  - { offset: 0x8F304, size: 0x8, addend: 0x0, symName: __RINvXs2_NtCs6IAuOt8vWmF_3syn10punctuatedINtB6_10PunctuatedNtNtB8_3pat3PatNtNtB8_5token5CommaENtNtCsfvfooZQ3Axs_4core4hash4Hash4hashNtNtNtCscOYdFFY2T5N_3std4hash6random13DefaultHasherECs2nm8mGoL06A_14mockall_derive, symObjAddr: 0x114, symBinAddr: 0x569EC, symSize: 0x5C }
  - { offset: 0x8F37E, size: 0x8, addend: 0x0, symName: __RINvXs2_NtCs6IAuOt8vWmF_3syn10punctuatedINtB6_10PunctuatedNtNtB8_3pat8FieldPatNtNtB8_5token5CommaENtNtCsfvfooZQ3Axs_4core4hash4Hash4hashNtNtNtCscOYdFFY2T5N_3std4hash6random13DefaultHasherECs2nm8mGoL06A_14mockall_derive, symObjAddr: 0x170, symBinAddr: 0x56A48, symSize: 0x5C }
  - { offset: 0x8F3F8, size: 0x8, addend: 0x0, symName: __RINvXs2_NtCs6IAuOt8vWmF_3syn10punctuatedINtB6_10PunctuatedNtNtB8_4data5FieldNtNtB8_5token5CommaENtNtCsfvfooZQ3Axs_4core4hash4Hash4hashNtNtNtCscOYdFFY2T5N_3std4hash6random13DefaultHasherECs2nm8mGoL06A_14mockall_derive, symObjAddr: 0x1CC, symBinAddr: 0x56AA4, symSize: 0x5C }
  - { offset: 0x8F472, size: 0x8, addend: 0x0, symName: __RINvXs2_NtCs6IAuOt8vWmF_3syn10punctuatedINtB6_10PunctuatedNtNtB8_4data7VariantNtNtB8_5token5CommaENtNtCsfvfooZQ3Axs_4core4hash4Hash4hashNtNtNtCscOYdFFY2T5N_3std4hash6random13DefaultHasherECs2nm8mGoL06A_14mockall_derive, symObjAddr: 0x228, symBinAddr: 0x56B00, symSize: 0x5C }
  - { offset: 0x8F4EC, size: 0x8, addend: 0x0, symName: __RINvXs2_NtCs6IAuOt8vWmF_3syn10punctuatedINtB6_10PunctuatedNtNtB8_4expr10FieldValueNtNtB8_5token5CommaENtNtCsfvfooZQ3Axs_4core4hash4Hash4hashNtNtNtCscOYdFFY2T5N_3std4hash6random13DefaultHasherECs2nm8mGoL06A_14mockall_derive, symObjAddr: 0x284, symBinAddr: 0x56B5C, symSize: 0x5C }
  - { offset: 0x8F566, size: 0x8, addend: 0x0, symName: __RINvXs2_NtCs6IAuOt8vWmF_3syn10punctuatedINtB6_10PunctuatedNtNtB8_4expr4ExprNtNtB8_5token5CommaENtNtCsfvfooZQ3Axs_4core4hash4Hash4hashNtNtNtCscOYdFFY2T5N_3std4hash6random13DefaultHasherECs2nm8mGoL06A_14mockall_derive, symObjAddr: 0x2E0, symBinAddr: 0x56BB8, symSize: 0x5C }
  - { offset: 0x8F5E0, size: 0x8, addend: 0x0, symName: __RINvXs2_NtCs6IAuOt8vWmF_3syn10punctuatedINtB6_10PunctuatedNtNtB8_4item5FnArgNtNtB8_5token5CommaENtNtCsfvfooZQ3Axs_4core4hash4Hash4hashNtNtNtCscOYdFFY2T5N_3std4hash6random13DefaultHasherECs2nm8mGoL06A_14mockall_derive, symObjAddr: 0x33C, symBinAddr: 0x56C14, symSize: 0x5C }
  - { offset: 0x8F65A, size: 0x8, addend: 0x0, symName: __RINvXs2_NtCs6IAuOt8vWmF_3syn10punctuatedINtB6_10PunctuatedNtNtB8_4item7UseTreeNtNtB8_5token5CommaENtNtCsfvfooZQ3Axs_4core4hash4Hash4hashNtNtNtCscOYdFFY2T5N_3std4hash6random13DefaultHasherECs2nm8mGoL06A_14mockall_derive, symObjAddr: 0x398, symBinAddr: 0x56C70, symSize: 0x5C }
  - { offset: 0x8F6D4, size: 0x8, addend: 0x0, symName: __RINvXs2_NtCs6IAuOt8vWmF_3syn10punctuatedINtB6_10PunctuatedNtNtB8_4path11PathSegmentNtNtB8_5token7PathSepENtNtCsfvfooZQ3Axs_4core4hash4Hash4hashNtNtNtCscOYdFFY2T5N_3std4hash6random13DefaultHasherECs2nm8mGoL06A_14mockall_derive, symObjAddr: 0x3F4, symBinAddr: 0x56CCC, symSize: 0x5C }
  - { offset: 0x8F74E, size: 0x8, addend: 0x0, symName: __RINvXs2_NtCs6IAuOt8vWmF_3syn10punctuatedINtB6_10PunctuatedNtNtB8_4path15GenericArgumentNtNtB8_5token5CommaENtNtCsfvfooZQ3Axs_4core4hash4Hash4hashNtNtNtCscOYdFFY2T5N_3std4hash6random13DefaultHasherECs2nm8mGoL06A_14mockall_derive, symObjAddr: 0x450, symBinAddr: 0x56D28, symSize: 0x5C }
  - { offset: 0x8F7C8, size: 0x8, addend: 0x0, symName: __RINvXs2_NtCs6IAuOt8vWmF_3syn10punctuatedINtB6_10PunctuatedNtNtB8_8generics12GenericParamNtNtB8_5token5CommaENtNtCsfvfooZQ3Axs_4core4hash4Hash4hashNtNtNtCscOYdFFY2T5N_3std4hash6random13DefaultHasherECs2nm8mGoL06A_14mockall_derive, symObjAddr: 0x4AC, symBinAddr: 0x56D84, symSize: 0x5C }
  - { offset: 0x8F842, size: 0x8, addend: 0x0, symName: __RINvXs2_NtCs6IAuOt8vWmF_3syn10punctuatedINtB6_10PunctuatedNtNtB8_8generics13CapturedParamNtNtB8_5token5CommaENtNtCsfvfooZQ3Axs_4core4hash4Hash4hashNtNtNtCscOYdFFY2T5N_3std4hash6random13DefaultHasherECs2nm8mGoL06A_14mockall_derive, symObjAddr: 0x508, symBinAddr: 0x56DE0, symSize: 0x5C }
  - { offset: 0x8F8BC, size: 0x8, addend: 0x0, symName: __RINvXs2_NtCs6IAuOt8vWmF_3syn10punctuatedINtB6_10PunctuatedNtNtB8_8generics14TypeParamBoundNtNtB8_5token4PlusENtNtCsfvfooZQ3Axs_4core4hash4Hash4hashNtNtNtCscOYdFFY2T5N_3std4hash6random13DefaultHasherECs2nm8mGoL06A_14mockall_derive, symObjAddr: 0x564, symBinAddr: 0x56E3C, symSize: 0x5C }
  - { offset: 0x8F936, size: 0x8, addend: 0x0, symName: __RINvXs2_NtCs6IAuOt8vWmF_3syn10punctuatedINtB6_10PunctuatedNtNtB8_8generics14WherePredicateNtNtB8_5token5CommaENtNtCsfvfooZQ3Axs_4core4hash4Hash4hashNtNtNtCscOYdFFY2T5N_3std4hash6random13DefaultHasherECs2nm8mGoL06A_14mockall_derive, symObjAddr: 0x5C0, symBinAddr: 0x56E98, symSize: 0x5C }
  - { offset: 0x8F9B0, size: 0x8, addend: 0x0, symName: __RINvXs2_NtCs6IAuOt8vWmF_3syn10punctuatedINtB6_10PunctuatedNtNtB8_8lifetime8LifetimeNtNtB8_5token4PlusENtNtCsfvfooZQ3Axs_4core4hash4Hash4hashNtNtNtCscOYdFFY2T5N_3std4hash6random13DefaultHasherECs2nm8mGoL06A_14mockall_derive, symObjAddr: 0x61C, symBinAddr: 0x56EF4, symSize: 0x5C }
  - { offset: 0x8FA30, size: 0x8, addend: 0x0, symName: __RINvXs4_NtCs6IAuOt8vWmF_3syn10punctuatedINtB6_10PunctuatedNtCs3cP53eQoTwO_11proc_macro25IdentNtNtB8_5token5CommaEINtNtNtNtCsfvfooZQ3Axs_4core4iter6traits7collect12FromIteratorBU_E9from_iterINtNtNtB1U_8adapters3map3MapNtNtB8_8generics10TypeParamsNCNvCs2nm8mGoL06A_14mockall_derive9gen_keyid0EEB3Z_, symObjAddr: 0x678, symBinAddr: 0x56F50, symSize: 0xC8 }
  - { offset: 0x8FA8F, size: 0x8, addend: 0x0, symName: __RINvXs4_NtCs6IAuOt8vWmF_3syn10punctuatedINtB6_10PunctuatedNtCs3cP53eQoTwO_11proc_macro25IdentNtNtB8_5token5CommaEINtNtNtNtCsfvfooZQ3Axs_4core4iter6traits7collect12FromIteratorBU_E9from_iterINtNtNtB1U_8adapters3map3MapNtNtB8_8generics10TypeParamsNCNvXs6_NtCs2nm8mGoL06A_14mockall_derive13mock_functionNtB43_7ContextNtNtCs2cqEZUIJimJ_5quote9to_tokens8ToTokens9to_tokens0EEB45_, symObjAddr: 0x740, symBinAddr: 0x57018, symSize: 0xC8 }
  - { offset: 0x8FAEE, size: 0x8, addend: 0x0, symName: __RINvXs4_NtCs6IAuOt8vWmF_3syn10punctuatedINtB6_10PunctuatedNtNtB8_4path15GenericArgumentNtNtB8_5token5CommaEINtNtNtNtCsfvfooZQ3Axs_4core4iter6traits7collect12FromIteratorBU_E9from_iterINtNtNtB1O_8adapters3map3MapINtB6_4IterNtNtB8_8generics12GenericParamENCNvCs2nm8mGoL06A_14mockall_derive14deselfify_path0EEB47_, symObjAddr: 0x808, symBinAddr: 0x570E0, symSize: 0xC8 }
  - { offset: 0x8FB4D, size: 0x8, addend: 0x0, symName: __RINvXs4_NtCs6IAuOt8vWmF_3syn10punctuatedINtB6_10PunctuatedNtNtB8_8generics12GenericParamNtNtB8_5token5CommaEINtNtNtNtCsfvfooZQ3Axs_4core4iter6traits7collect12FromIteratorBU_E9from_iterINtNtNtB1P_8adapters3map3MapINtB6_4IterNtBW_13LifetimeParamENCNvCs2nm8mGoL06A_14mockall_derive27lifetimes_to_generic_params0EEB3Y_, symObjAddr: 0x8D0, symBinAddr: 0x571A8, symSize: 0xC8 }
  - { offset: 0x8FBAC, size: 0x8, addend: 0x0, symName: __RINvXs4_NtCs6IAuOt8vWmF_3syn10punctuatedINtB6_10PunctuatedNtNtB8_8generics12GenericParamNtNtB8_5token5CommaEINtNtNtNtCsfvfooZQ3Axs_4core4iter6traits7collect12FromIteratorBU_E9from_iterINtNtNtB1P_8adapters6cloned6ClonedINtNtB31_6filter6FilterINtB6_4IterBU_ENCNvCs2nm8mGoL06A_14mockall_derive11declosurefys0_0EEEB4a_, symObjAddr: 0x998, symBinAddr: 0x57270, symSize: 0xD4 }
  - { offset: 0x8FC0C, size: 0x8, addend: 0x0, symName: __RINvXs4_NtCs6IAuOt8vWmF_3syn10punctuatedINtB6_10PunctuatedNtNtB8_8generics13LifetimeParamNtNtB8_5token5CommaEINtNtNtNtCsfvfooZQ3Axs_4core4iter6traits7collect12FromIteratorBU_E9from_iterINtNtNtB1Q_8adapters6cloned6ClonedINtNtNtNtCscOYdFFY2T5N_3std11collections4hash3set5UnionBU_INtNtB1S_4hash18BuildHasherDefaultNtNtNtB3E_4hash6random13DefaultHasherEEEECs2nm8mGoL06A_14mockall_derive, symObjAddr: 0xA6C, symBinAddr: 0x57344, symSize: 0xD0 }
  - { offset: 0x8FC6C, size: 0x8, addend: 0x0, symName: __RINvXs4_NtCs6IAuOt8vWmF_3syn10punctuatedINtB6_10PunctuatedNtNtB8_8generics14WherePredicateNtNtB8_5token5CommaEINtNtNtNtCsfvfooZQ3Axs_4core4iter6traits7collect12FromIteratorBU_E9from_iterINtNtNtB1R_8adapters6cloned6ClonedINtNtB33_6filter6FilterINtB6_4IterBU_ENCNvCs2nm8mGoL06A_14mockall_derive11declosurefys1_0EEEB4c_, symObjAddr: 0xB3C, symBinAddr: 0x57414, symSize: 0xD4 }
  - { offset: 0x8FCCC, size: 0x8, addend: 0x0, symName: __RINvXs4_NtCs6IAuOt8vWmF_3syn10punctuatedINtB6_10PunctuatedNtNtB8_8generics14WherePredicateNtNtB8_5token5CommaEINtNtNtNtCsfvfooZQ3Axs_4core4iter6traits7collect12FromIteratorBU_E9from_iterINtNtNtB1R_8adapters6cloned6ClonedINtNtB33_6filter6FilterINtB6_4IterBU_ENCNvCs2nm8mGoL06A_14mockall_derive14dewhereselfify0EEEB4c_, symObjAddr: 0xC10, symBinAddr: 0x574E8, symSize: 0xC8 }
  - { offset: 0x8FD31, size: 0x8, addend: 0x0, symName: __RINvXs5_NtCs6IAuOt8vWmF_3syn10punctuatedINtB6_10PunctuatedNtCs3cP53eQoTwO_11proc_macro25IdentNtNtB8_5token5CommaEINtNtNtNtCsfvfooZQ3Axs_4core4iter6traits7collect6ExtendBU_E6extendINtNtNtB1U_8adapters3map3MapNtNtB8_8generics10TypeParamsNCNvCs2nm8mGoL06A_14mockall_derive9gen_keyid0EEB3P_, symObjAddr: 0xCD8, symBinAddr: 0x575B0, symSize: 0xE8 }
  - { offset: 0x8FDB9, size: 0x8, addend: 0x0, symName: __RINvXs5_NtCs6IAuOt8vWmF_3syn10punctuatedINtB6_10PunctuatedNtCs3cP53eQoTwO_11proc_macro25IdentNtNtB8_5token5CommaEINtNtNtNtCsfvfooZQ3Axs_4core4iter6traits7collect6ExtendBU_E6extendINtNtNtB1U_8adapters3map3MapNtNtB8_8generics10TypeParamsNCNvXs6_NtCs2nm8mGoL06A_14mockall_derive13mock_functionNtB3T_7ContextNtNtCs2cqEZUIJimJ_5quote9to_tokens8ToTokens9to_tokens0EEB3V_, symObjAddr: 0xDC0, symBinAddr: 0x57698, symSize: 0xE8 }
  - { offset: 0x8FE41, size: 0x8, addend: 0x0, symName: __RINvXs5_NtCs6IAuOt8vWmF_3syn10punctuatedINtB6_10PunctuatedNtNtB8_4path15GenericArgumentNtNtB8_5token5CommaEINtNtNtNtCsfvfooZQ3Axs_4core4iter6traits7collect6ExtendBU_E6extendINtNtNtB1O_8adapters3map3MapINtB6_4IterNtNtB8_8generics12GenericParamENCNvCs2nm8mGoL06A_14mockall_derive14deselfify_path0EEB3X_, symObjAddr: 0xEA8, symBinAddr: 0x57780, symSize: 0xF8 }
  - { offset: 0x8FECA, size: 0x8, addend: 0x0, symName: __RINvXs5_NtCs6IAuOt8vWmF_3syn10punctuatedINtB6_10PunctuatedNtNtB8_8generics12GenericParamNtNtB8_5token5CommaEINtNtNtNtCsfvfooZQ3Axs_4core4iter6traits7collect6ExtendBU_E6extendINtNtNtB1P_8adapters3map3MapINtB6_4IterNtBW_13LifetimeParamENCNvCs2nm8mGoL06A_14mockall_derive27lifetimes_to_generic_params0EEB3O_, symObjAddr: 0xFA0, symBinAddr: 0x57878, symSize: 0xF8 }
  - { offset: 0x8FF53, size: 0x8, addend: 0x0, symName: __RINvXs5_NtCs6IAuOt8vWmF_3syn10punctuatedINtB6_10PunctuatedNtNtB8_8generics12GenericParamNtNtB8_5token5CommaEINtNtNtNtCsfvfooZQ3Axs_4core4iter6traits7collect6ExtendBU_E6extendINtNtNtB1P_8adapters6cloned6ClonedINtB6_4IterBU_EEECs2nm8mGoL06A_14mockall_derive, symObjAddr: 0x1098, symBinAddr: 0x57970, symSize: 0xF8 }
  - { offset: 0x8FFDC, size: 0x8, addend: 0x0, symName: __RINvXs5_NtCs6IAuOt8vWmF_3syn10punctuatedINtB6_10PunctuatedNtNtB8_8generics12GenericParamNtNtB8_5token5CommaEINtNtNtNtCsfvfooZQ3Axs_4core4iter6traits7collect6ExtendBU_E6extendINtNtNtB1P_8adapters6cloned6ClonedINtNtB2R_6filter6FilterINtB6_4IterBU_ENCNvCs2nm8mGoL06A_14mockall_derive11declosurefys0_0EEEB40_, symObjAddr: 0x1190, symBinAddr: 0x57A68, symSize: 0xF0 }
  - { offset: 0x90066, size: 0x8, addend: 0x0, symName: __RINvXs5_NtCs6IAuOt8vWmF_3syn10punctuatedINtB6_10PunctuatedNtNtB8_8generics13LifetimeParamNtNtB8_5token5CommaEINtNtNtNtCsfvfooZQ3Axs_4core4iter6traits7collect6ExtendBU_E6extendINtNtNtB1Q_8adapters6cloned6ClonedINtNtNtNtCscOYdFFY2T5N_3std11collections4hash3set5UnionBU_INtNtB1S_4hash18BuildHasherDefaultNtNtNtB3u_4hash6random13DefaultHasherEEEECs2nm8mGoL06A_14mockall_derive, symObjAddr: 0x1280, symBinAddr: 0x57B58, symSize: 0xE4 }
  - { offset: 0x900F1, size: 0x8, addend: 0x0, symName: __RINvXs5_NtCs6IAuOt8vWmF_3syn10punctuatedINtB6_10PunctuatedNtNtB8_8generics14TypeParamBoundNtNtB8_5token4PlusEINtNtNtNtCsfvfooZQ3Axs_4core4iter6traits7collect6ExtendBU_E6extendINtNtNtB1Q_8adapters6cloned6ClonedINtB6_4IterBU_EEECs2nm8mGoL06A_14mockall_derive, symObjAddr: 0x1364, symBinAddr: 0x57C3C, symSize: 0xFC }
  - { offset: 0x9017A, size: 0x8, addend: 0x0, symName: __RINvXs5_NtCs6IAuOt8vWmF_3syn10punctuatedINtB6_10PunctuatedNtNtB8_8generics14WherePredicateNtNtB8_5token5CommaEINtNtNtNtCsfvfooZQ3Axs_4core4iter6traits7collect6ExtendBU_E6extendINtNtNtB1R_8adapters6cloned6ClonedINtNtB2T_6filter6FilterINtB6_4IterBU_ENCNvCs2nm8mGoL06A_14mockall_derive11declosurefys1_0EEEB42_, symObjAddr: 0x1460, symBinAddr: 0x57D38, symSize: 0xF0 }
  - { offset: 0x90204, size: 0x8, addend: 0x0, symName: __RINvXs5_NtCs6IAuOt8vWmF_3syn10punctuatedINtB6_10PunctuatedNtNtB8_8generics14WherePredicateNtNtB8_5token5CommaEINtNtNtNtCsfvfooZQ3Axs_4core4iter6traits7collect6ExtendBU_E6extendINtNtNtB1R_8adapters6cloned6ClonedINtNtB2T_6filter6FilterINtB6_4IterBU_ENCNvCs2nm8mGoL06A_14mockall_derive14dewhereselfify0EEEB42_, symObjAddr: 0x1550, symBinAddr: 0x57E28, symSize: 0xF8 }
  - { offset: 0x90315, size: 0x8, addend: 0x0, symName: __RNCNCNvXsG_NtCs6IAuOt8vWmF_3syn10punctuatedINtB9_14PrivateIterMutNtNtBb_2ty4TypeNtNtBb_5token5CommaENtNtNtNtCsfvfooZQ3Axs_4core4iter6traits12double_ended19DoubleEndedIterator9next_back00Cs2nm8mGoL06A_14mockall_derive, symObjAddr: 0x27EC, symBinAddr: 0x590C4, symSize: 0x24 }
  - { offset: 0x90360, size: 0x8, addend: 0x0, symName: __RNCNCNvXsG_NtCs6IAuOt8vWmF_3syn10punctuatedINtB9_14PrivateIterMutNtNtBb_2ty9BareFnArgNtNtBb_5token5CommaENtNtNtNtCsfvfooZQ3Axs_4core4iter6traits12double_ended19DoubleEndedIterator9next_back00Cs2nm8mGoL06A_14mockall_derive, symObjAddr: 0x2810, symBinAddr: 0x590E8, symSize: 0x24 }
  - { offset: 0x903AB, size: 0x8, addend: 0x0, symName: __RNCNCNvXsG_NtCs6IAuOt8vWmF_3syn10punctuatedINtB9_14PrivateIterMutNtNtBb_4item5FnArgNtNtBb_5token5CommaENtNtNtNtCsfvfooZQ3Axs_4core4iter6traits12double_ended19DoubleEndedIterator9next_back00Cs2nm8mGoL06A_14mockall_derive, symObjAddr: 0x2834, symBinAddr: 0x5910C, symSize: 0x24 }
  - { offset: 0x903F6, size: 0x8, addend: 0x0, symName: __RNCNCNvXsG_NtCs6IAuOt8vWmF_3syn10punctuatedINtB9_14PrivateIterMutNtNtBb_4path15GenericArgumentNtNtBb_5token5CommaENtNtNtNtCsfvfooZQ3Axs_4core4iter6traits12double_ended19DoubleEndedIterator9next_back00Cs2nm8mGoL06A_14mockall_derive, symObjAddr: 0x2858, symBinAddr: 0x59130, symSize: 0x24 }
  - { offset: 0x90441, size: 0x8, addend: 0x0, symName: __RNCNCNvXsG_NtCs6IAuOt8vWmF_3syn10punctuatedINtB9_14PrivateIterMutNtNtBb_8generics14TypeParamBoundNtNtBb_5token4PlusENtNtNtNtCsfvfooZQ3Axs_4core4iter6traits12double_ended19DoubleEndedIterator9next_back00Cs2nm8mGoL06A_14mockall_derive, symObjAddr: 0x287C, symBinAddr: 0x59154, symSize: 0x24 }
  - { offset: 0x9048C, size: 0x8, addend: 0x0, symName: __RNCNCNvXsG_NtCs6IAuOt8vWmF_3syn10punctuatedINtB9_14PrivateIterMutNtNtBb_8generics14WherePredicateNtNtBb_5token5CommaENtNtNtNtCsfvfooZQ3Axs_4core4iter6traits12double_ended19DoubleEndedIterator9next_back00Cs2nm8mGoL06A_14mockall_derive, symObjAddr: 0x28A0, symBinAddr: 0x59178, symSize: 0x24 }
  - { offset: 0x90502, size: 0x8, addend: 0x0, symName: __RNCNvXsG_NtCs6IAuOt8vWmF_3syn10punctuatedINtB7_14PrivateIterMutNtNtB9_2ty4TypeNtNtB9_5token5CommaENtNtNtNtCsfvfooZQ3Axs_4core4iter6traits12double_ended19DoubleEndedIterator9next_back0Cs2nm8mGoL06A_14mockall_derive, symObjAddr: 0x2D1C, symBinAddr: 0x595F4, symSize: 0x38 }
  - { offset: 0x90544, size: 0x8, addend: 0x0, symName: __RNCNvXsG_NtCs6IAuOt8vWmF_3syn10punctuatedINtB7_14PrivateIterMutNtNtB9_2ty9BareFnArgNtNtB9_5token5CommaENtNtNtNtCsfvfooZQ3Axs_4core4iter6traits12double_ended19DoubleEndedIterator9next_back0Cs2nm8mGoL06A_14mockall_derive, symObjAddr: 0x2D54, symBinAddr: 0x5962C, symSize: 0x38 }
  - { offset: 0x90586, size: 0x8, addend: 0x0, symName: __RNCNvXsG_NtCs6IAuOt8vWmF_3syn10punctuatedINtB7_14PrivateIterMutNtNtB9_4item5FnArgNtNtB9_5token5CommaENtNtNtNtCsfvfooZQ3Axs_4core4iter6traits12double_ended19DoubleEndedIterator9next_back0Cs2nm8mGoL06A_14mockall_derive, symObjAddr: 0x2D8C, symBinAddr: 0x59664, symSize: 0x38 }
  - { offset: 0x905C8, size: 0x8, addend: 0x0, symName: __RNCNvXsG_NtCs6IAuOt8vWmF_3syn10punctuatedINtB7_14PrivateIterMutNtNtB9_4path15GenericArgumentNtNtB9_5token5CommaENtNtNtNtCsfvfooZQ3Axs_4core4iter6traits12double_ended19DoubleEndedIterator9next_back0Cs2nm8mGoL06A_14mockall_derive, symObjAddr: 0x2DC4, symBinAddr: 0x5969C, symSize: 0x38 }
  - { offset: 0x9060A, size: 0x8, addend: 0x0, symName: __RNCNvXsG_NtCs6IAuOt8vWmF_3syn10punctuatedINtB7_14PrivateIterMutNtNtB9_8generics14TypeParamBoundNtNtB9_5token4PlusENtNtNtNtCsfvfooZQ3Axs_4core4iter6traits12double_ended19DoubleEndedIterator9next_back0Cs2nm8mGoL06A_14mockall_derive, symObjAddr: 0x2DFC, symBinAddr: 0x596D4, symSize: 0x38 }
  - { offset: 0x9064C, size: 0x8, addend: 0x0, symName: __RNCNvXsG_NtCs6IAuOt8vWmF_3syn10punctuatedINtB7_14PrivateIterMutNtNtB9_8generics14WherePredicateNtNtB9_5token5CommaENtNtNtNtCsfvfooZQ3Axs_4core4iter6traits12double_ended19DoubleEndedIterator9next_back0Cs2nm8mGoL06A_14mockall_derive, symObjAddr: 0x2E34, symBinAddr: 0x5970C, symSize: 0x38 }
  - { offset: 0x9068F, size: 0x8, addend: 0x0, symName: __RNvXsG_NtCs6IAuOt8vWmF_3syn10punctuatedINtB5_14PrivateIterMutNtNtB7_2ty4TypeNtNtB7_5token5CommaENtNtNtNtCsfvfooZQ3Axs_4core4iter6traits12double_ended19DoubleEndedIterator9next_backCs2nm8mGoL06A_14mockall_derive, symObjAddr: 0x5DB0, symBinAddr: 0x5C688, symSize: 0x40 }
  - { offset: 0x906CF, size: 0x8, addend: 0x0, symName: __RNvXsG_NtCs6IAuOt8vWmF_3syn10punctuatedINtB5_14PrivateIterMutNtNtB7_2ty9BareFnArgNtNtB7_5token5CommaENtNtNtNtCsfvfooZQ3Axs_4core4iter6traits12double_ended19DoubleEndedIterator9next_backCs2nm8mGoL06A_14mockall_derive, symObjAddr: 0x5DF0, symBinAddr: 0x5C6C8, symSize: 0x40 }
  - { offset: 0x9070F, size: 0x8, addend: 0x0, symName: __RNvXsG_NtCs6IAuOt8vWmF_3syn10punctuatedINtB5_14PrivateIterMutNtNtB7_4item5FnArgNtNtB7_5token5CommaENtNtNtNtCsfvfooZQ3Axs_4core4iter6traits12double_ended19DoubleEndedIterator9next_backCs2nm8mGoL06A_14mockall_derive, symObjAddr: 0x5E30, symBinAddr: 0x5C708, symSize: 0x40 }
  - { offset: 0x9074F, size: 0x8, addend: 0x0, symName: __RNvXsG_NtCs6IAuOt8vWmF_3syn10punctuatedINtB5_14PrivateIterMutNtNtB7_4path15GenericArgumentNtNtB7_5token5CommaENtNtNtNtCsfvfooZQ3Axs_4core4iter6traits12double_ended19DoubleEndedIterator9next_backCs2nm8mGoL06A_14mockall_derive, symObjAddr: 0x5E70, symBinAddr: 0x5C748, symSize: 0x40 }
  - { offset: 0x9078F, size: 0x8, addend: 0x0, symName: __RNvXsG_NtCs6IAuOt8vWmF_3syn10punctuatedINtB5_14PrivateIterMutNtNtB7_8generics14TypeParamBoundNtNtB7_5token4PlusENtNtNtNtCsfvfooZQ3Axs_4core4iter6traits12double_ended19DoubleEndedIterator9next_backCs2nm8mGoL06A_14mockall_derive, symObjAddr: 0x5EB0, symBinAddr: 0x5C788, symSize: 0x40 }
  - { offset: 0x907CF, size: 0x8, addend: 0x0, symName: __RNvXsG_NtCs6IAuOt8vWmF_3syn10punctuatedINtB5_14PrivateIterMutNtNtB7_8generics14WherePredicateNtNtB7_5token5CommaENtNtNtNtCsfvfooZQ3Axs_4core4iter6traits12double_ended19DoubleEndedIterator9next_backCs2nm8mGoL06A_14mockall_derive, symObjAddr: 0x5EF0, symBinAddr: 0x5C7C8, symSize: 0x40 }
  - { offset: 0x9081F, size: 0x8, addend: 0x0, symName: __RNCNCNvXsx_NtCs6IAuOt8vWmF_3syn10punctuatedINtB9_11PrivateIterNtNtBb_2ty4TypeNtNtBb_5token5CommaENtNtNtNtCsfvfooZQ3Axs_4core4iter6traits12double_ended19DoubleEndedIterator9next_back00Cs2nm8mGoL06A_14mockall_derive, symObjAddr: 0x28C4, symBinAddr: 0x5919C, symSize: 0x24 }
  - { offset: 0x9086A, size: 0x8, addend: 0x0, symName: __RNCNCNvXsx_NtCs6IAuOt8vWmF_3syn10punctuatedINtB9_11PrivateIterNtNtBb_4path15GenericArgumentNtNtBb_5token5CommaENtNtNtNtCsfvfooZQ3Axs_4core4iter6traits12double_ended19DoubleEndedIterator9next_back00Cs2nm8mGoL06A_14mockall_derive, symObjAddr: 0x28E8, symBinAddr: 0x591C0, symSize: 0x24 }
  - { offset: 0x908B5, size: 0x8, addend: 0x0, symName: __RNCNCNvXsx_NtCs6IAuOt8vWmF_3syn10punctuatedINtB9_11PrivateIterNtNtBb_8generics13LifetimeParamNtNtBb_5token5CommaENtNtNtNtCsfvfooZQ3Axs_4core4iter6traits12double_ended19DoubleEndedIterator9next_back00Cs2nm8mGoL06A_14mockall_derive, symObjAddr: 0x290C, symBinAddr: 0x591E4, symSize: 0x24 }
  - { offset: 0x90900, size: 0x8, addend: 0x0, symName: __RNCNCNvXsx_NtCs6IAuOt8vWmF_3syn10punctuatedINtB9_11PrivateIterNtNtBb_8generics14WherePredicateNtNtBb_5token5CommaENtNtNtNtCsfvfooZQ3Axs_4core4iter6traits12double_ended19DoubleEndedIterator9next_back00Cs2nm8mGoL06A_14mockall_derive, symObjAddr: 0x2930, symBinAddr: 0x59208, symSize: 0x24 }
  - { offset: 0x90968, size: 0x8, addend: 0x0, symName: __RNCNvXsx_NtCs6IAuOt8vWmF_3syn10punctuatedINtB7_11PrivateIterNtNtB9_2ty4TypeNtNtB9_5token5CommaENtNtNtNtCsfvfooZQ3Axs_4core4iter6traits12double_ended19DoubleEndedIterator9next_back0Cs2nm8mGoL06A_14mockall_derive, symObjAddr: 0x304C, symBinAddr: 0x59924, symSize: 0x38 }
  - { offset: 0x909AA, size: 0x8, addend: 0x0, symName: __RNCNvXsx_NtCs6IAuOt8vWmF_3syn10punctuatedINtB7_11PrivateIterNtNtB9_4path15GenericArgumentNtNtB9_5token5CommaENtNtNtNtCsfvfooZQ3Axs_4core4iter6traits12double_ended19DoubleEndedIterator9next_back0Cs2nm8mGoL06A_14mockall_derive, symObjAddr: 0x3084, symBinAddr: 0x5995C, symSize: 0x38 }
  - { offset: 0x909EC, size: 0x8, addend: 0x0, symName: __RNCNvXsx_NtCs6IAuOt8vWmF_3syn10punctuatedINtB7_11PrivateIterNtNtB9_8generics13LifetimeParamNtNtB9_5token5CommaENtNtNtNtCsfvfooZQ3Axs_4core4iter6traits12double_ended19DoubleEndedIterator9next_back0Cs2nm8mGoL06A_14mockall_derive, symObjAddr: 0x30BC, symBinAddr: 0x59994, symSize: 0x38 }
  - { offset: 0x90A2E, size: 0x8, addend: 0x0, symName: __RNCNvXsx_NtCs6IAuOt8vWmF_3syn10punctuatedINtB7_11PrivateIterNtNtB9_8generics14WherePredicateNtNtB9_5token5CommaENtNtNtNtCsfvfooZQ3Axs_4core4iter6traits12double_ended19DoubleEndedIterator9next_back0Cs2nm8mGoL06A_14mockall_derive, symObjAddr: 0x30F4, symBinAddr: 0x599CC, symSize: 0x38 }
  - { offset: 0x90A71, size: 0x8, addend: 0x0, symName: __RNvXsx_NtCs6IAuOt8vWmF_3syn10punctuatedINtB5_11PrivateIterNtNtB7_2ty4TypeNtNtB7_5token5CommaENtNtNtNtCsfvfooZQ3Axs_4core4iter6traits12double_ended19DoubleEndedIterator9next_backCs2nm8mGoL06A_14mockall_derive, symObjAddr: 0x6B2C, symBinAddr: 0x5D404, symSize: 0x40 }
  - { offset: 0x90AB1, size: 0x8, addend: 0x0, symName: __RNvXsx_NtCs6IAuOt8vWmF_3syn10punctuatedINtB5_11PrivateIterNtNtB7_4path15GenericArgumentNtNtB7_5token5CommaENtNtNtNtCsfvfooZQ3Axs_4core4iter6traits12double_ended19DoubleEndedIterator9next_backCs2nm8mGoL06A_14mockall_derive, symObjAddr: 0x6B6C, symBinAddr: 0x5D444, symSize: 0x40 }
  - { offset: 0x90AF1, size: 0x8, addend: 0x0, symName: __RNvXsx_NtCs6IAuOt8vWmF_3syn10punctuatedINtB5_11PrivateIterNtNtB7_8generics13LifetimeParamNtNtB7_5token5CommaENtNtNtNtCsfvfooZQ3Axs_4core4iter6traits12double_ended19DoubleEndedIterator9next_backCs2nm8mGoL06A_14mockall_derive, symObjAddr: 0x6BAC, symBinAddr: 0x5D484, symSize: 0x40 }
  - { offset: 0x90B31, size: 0x8, addend: 0x0, symName: __RNvXsx_NtCs6IAuOt8vWmF_3syn10punctuatedINtB5_11PrivateIterNtNtB7_8generics14WherePredicateNtNtB7_5token5CommaENtNtNtNtCsfvfooZQ3Axs_4core4iter6traits12double_ended19DoubleEndedIterator9next_backCs2nm8mGoL06A_14mockall_derive, symObjAddr: 0x6BEC, symBinAddr: 0x5D4C4, symSize: 0x40 }
  - { offset: 0x90B7C, size: 0x8, addend: 0x0, symName: __RNCNvXs8_NtCs6IAuOt8vWmF_3syn10punctuatedINtB7_10PunctuatedNtNtB9_8generics12GenericParamNtNtB9_5token5CommaENtNtNtNtCsfvfooZQ3Axs_4core4iter6traits7collect12IntoIterator9into_iter0Cs2nm8mGoL06A_14mockall_derive, symObjAddr: 0x2954, symBinAddr: 0x5922C, symSize: 0x44 }
  - { offset: 0x90BC8, size: 0x8, addend: 0x0, symName: __RNCNvXs8_NtCs6IAuOt8vWmF_3syn10punctuatedINtB7_10PunctuatedNtNtB9_8generics12GenericParamNtNtB9_5token5CommaENtNtNtNtCsfvfooZQ3Axs_4core4iter6traits7collect12IntoIterator9into_iters_0Cs2nm8mGoL06A_14mockall_derive, symObjAddr: 0x2998, symBinAddr: 0x59270, symSize: 0x98 }
  - { offset: 0x90C13, size: 0x8, addend: 0x0, symName: __RNCNvXs8_NtCs6IAuOt8vWmF_3syn10punctuatedINtB7_10PunctuatedNtNtB9_8generics13LifetimeParamNtNtB9_5token5CommaENtNtNtNtCsfvfooZQ3Axs_4core4iter6traits7collect12IntoIterator9into_iter0Cs2nm8mGoL06A_14mockall_derive, symObjAddr: 0x2A30, symBinAddr: 0x59308, symSize: 0x44 }
  - { offset: 0x90C5F, size: 0x8, addend: 0x0, symName: __RNCNvXs8_NtCs6IAuOt8vWmF_3syn10punctuatedINtB7_10PunctuatedNtNtB9_8generics13LifetimeParamNtNtB9_5token5CommaENtNtNtNtCsfvfooZQ3Axs_4core4iter6traits7collect12IntoIterator9into_iters_0Cs2nm8mGoL06A_14mockall_derive, symObjAddr: 0x2A74, symBinAddr: 0x5934C, symSize: 0x98 }
  - { offset: 0x90CC7, size: 0x8, addend: 0x0, symName: __RNvXs8_NtCs6IAuOt8vWmF_3syn10punctuatedINtB5_10PunctuatedNtNtB7_8generics12GenericParamNtNtB7_5token5CommaENtNtNtNtCsfvfooZQ3Axs_4core4iter6traits7collect12IntoIterator9into_iterCs2nm8mGoL06A_14mockall_derive, symObjAddr: 0x5450, symBinAddr: 0x5BD28, symSize: 0x1C0 }
  - { offset: 0x90D1E, size: 0x8, addend: 0x0, symName: __RNvXs8_NtCs6IAuOt8vWmF_3syn10punctuatedINtB5_10PunctuatedNtNtB7_8generics13LifetimeParamNtNtB7_5token5CommaENtNtNtNtCsfvfooZQ3Axs_4core4iter6traits7collect12IntoIterator9into_iterCs2nm8mGoL06A_14mockall_derive, symObjAddr: 0x5610, symBinAddr: 0x5BEE8, symSize: 0x1C0 }
  - { offset: 0x90D80, size: 0x8, addend: 0x0, symName: __RNCNvXsF_NtCs6IAuOt8vWmF_3syn10punctuatedINtB7_14PrivateIterMutNtNtB9_2ty4TypeNtNtB9_5token5CommaENtNtNtNtCsfvfooZQ3Axs_4core4iter6traits8iterator8Iterator4next0Cs2nm8mGoL06A_14mockall_derive, symObjAddr: 0x2B0C, symBinAddr: 0x593E4, symSize: 0x24 }
  - { offset: 0x90DCB, size: 0x8, addend: 0x0, symName: __RNCNvXsF_NtCs6IAuOt8vWmF_3syn10punctuatedINtB7_14PrivateIterMutNtNtB9_2ty4TypeNtNtB9_5token5CommaENtNtNtNtCsfvfooZQ3Axs_4core4iter6traits8iterator8Iterator4nexts_0Cs2nm8mGoL06A_14mockall_derive, symObjAddr: 0x2B30, symBinAddr: 0x59408, symSize: 0x34 }
  - { offset: 0x90E0D, size: 0x8, addend: 0x0, symName: __RNCNvXsF_NtCs6IAuOt8vWmF_3syn10punctuatedINtB7_14PrivateIterMutNtNtB9_2ty9BareFnArgNtNtB9_5token5CommaENtNtNtNtCsfvfooZQ3Axs_4core4iter6traits8iterator8Iterator4next0Cs2nm8mGoL06A_14mockall_derive, symObjAddr: 0x2B64, symBinAddr: 0x5943C, symSize: 0x24 }
  - { offset: 0x90E58, size: 0x8, addend: 0x0, symName: __RNCNvXsF_NtCs6IAuOt8vWmF_3syn10punctuatedINtB7_14PrivateIterMutNtNtB9_2ty9BareFnArgNtNtB9_5token5CommaENtNtNtNtCsfvfooZQ3Axs_4core4iter6traits8iterator8Iterator4nexts_0Cs2nm8mGoL06A_14mockall_derive, symObjAddr: 0x2B88, symBinAddr: 0x59460, symSize: 0x34 }
  - { offset: 0x90E9A, size: 0x8, addend: 0x0, symName: __RNCNvXsF_NtCs6IAuOt8vWmF_3syn10punctuatedINtB7_14PrivateIterMutNtNtB9_4item5FnArgNtNtB9_5token5CommaENtNtNtNtCsfvfooZQ3Axs_4core4iter6traits8iterator8Iterator4next0Cs2nm8mGoL06A_14mockall_derive, symObjAddr: 0x2BBC, symBinAddr: 0x59494, symSize: 0x24 }
  - { offset: 0x90EE5, size: 0x8, addend: 0x0, symName: __RNCNvXsF_NtCs6IAuOt8vWmF_3syn10punctuatedINtB7_14PrivateIterMutNtNtB9_4item5FnArgNtNtB9_5token5CommaENtNtNtNtCsfvfooZQ3Axs_4core4iter6traits8iterator8Iterator4nexts_0Cs2nm8mGoL06A_14mockall_derive, symObjAddr: 0x2BE0, symBinAddr: 0x594B8, symSize: 0x34 }
  - { offset: 0x90F27, size: 0x8, addend: 0x0, symName: __RNCNvXsF_NtCs6IAuOt8vWmF_3syn10punctuatedINtB7_14PrivateIterMutNtNtB9_4path15GenericArgumentNtNtB9_5token5CommaENtNtNtNtCsfvfooZQ3Axs_4core4iter6traits8iterator8Iterator4next0Cs2nm8mGoL06A_14mockall_derive, symObjAddr: 0x2C14, symBinAddr: 0x594EC, symSize: 0x24 }
  - { offset: 0x90F72, size: 0x8, addend: 0x0, symName: __RNCNvXsF_NtCs6IAuOt8vWmF_3syn10punctuatedINtB7_14PrivateIterMutNtNtB9_4path15GenericArgumentNtNtB9_5token5CommaENtNtNtNtCsfvfooZQ3Axs_4core4iter6traits8iterator8Iterator4nexts_0Cs2nm8mGoL06A_14mockall_derive, symObjAddr: 0x2C38, symBinAddr: 0x59510, symSize: 0x34 }
  - { offset: 0x90FB4, size: 0x8, addend: 0x0, symName: __RNCNvXsF_NtCs6IAuOt8vWmF_3syn10punctuatedINtB7_14PrivateIterMutNtNtB9_8generics14TypeParamBoundNtNtB9_5token4PlusENtNtNtNtCsfvfooZQ3Axs_4core4iter6traits8iterator8Iterator4next0Cs2nm8mGoL06A_14mockall_derive, symObjAddr: 0x2C6C, symBinAddr: 0x59544, symSize: 0x24 }
  - { offset: 0x90FFF, size: 0x8, addend: 0x0, symName: __RNCNvXsF_NtCs6IAuOt8vWmF_3syn10punctuatedINtB7_14PrivateIterMutNtNtB9_8generics14TypeParamBoundNtNtB9_5token4PlusENtNtNtNtCsfvfooZQ3Axs_4core4iter6traits8iterator8Iterator4nexts_0Cs2nm8mGoL06A_14mockall_derive, symObjAddr: 0x2C90, symBinAddr: 0x59568, symSize: 0x34 }
  - { offset: 0x91041, size: 0x8, addend: 0x0, symName: __RNCNvXsF_NtCs6IAuOt8vWmF_3syn10punctuatedINtB7_14PrivateIterMutNtNtB9_8generics14WherePredicateNtNtB9_5token5CommaENtNtNtNtCsfvfooZQ3Axs_4core4iter6traits8iterator8Iterator4next0Cs2nm8mGoL06A_14mockall_derive, symObjAddr: 0x2CC4, symBinAddr: 0x5959C, symSize: 0x24 }
  - { offset: 0x9108C, size: 0x8, addend: 0x0, symName: __RNCNvXsF_NtCs6IAuOt8vWmF_3syn10punctuatedINtB7_14PrivateIterMutNtNtB9_8generics14WherePredicateNtNtB9_5token5CommaENtNtNtNtCsfvfooZQ3Axs_4core4iter6traits8iterator8Iterator4nexts_0Cs2nm8mGoL06A_14mockall_derive, symObjAddr: 0x2CE8, symBinAddr: 0x595C0, symSize: 0x34 }
  - { offset: 0x910F9, size: 0x8, addend: 0x0, symName: __RNvXsF_NtCs6IAuOt8vWmF_3syn10punctuatedINtB5_14PrivateIterMutNtNtB7_2ty4TypeNtNtB7_5token5CommaENtNtNtNtCsfvfooZQ3Axs_4core4iter6traits8iterator8Iterator4nextCs2nm8mGoL06A_14mockall_derive, symObjAddr: 0x5C18, symBinAddr: 0x5C4F0, symSize: 0x44 }
  - { offset: 0x91139, size: 0x8, addend: 0x0, symName: __RNvXsF_NtCs6IAuOt8vWmF_3syn10punctuatedINtB5_14PrivateIterMutNtNtB7_2ty9BareFnArgNtNtB7_5token5CommaENtNtNtNtCsfvfooZQ3Axs_4core4iter6traits8iterator8Iterator4nextCs2nm8mGoL06A_14mockall_derive, symObjAddr: 0x5C5C, symBinAddr: 0x5C534, symSize: 0x44 }
  - { offset: 0x91179, size: 0x8, addend: 0x0, symName: __RNvXsF_NtCs6IAuOt8vWmF_3syn10punctuatedINtB5_14PrivateIterMutNtNtB7_4item5FnArgNtNtB7_5token5CommaENtNtNtNtCsfvfooZQ3Axs_4core4iter6traits8iterator8Iterator4nextCs2nm8mGoL06A_14mockall_derive, symObjAddr: 0x5CA0, symBinAddr: 0x5C578, symSize: 0x44 }
  - { offset: 0x911B9, size: 0x8, addend: 0x0, symName: __RNvXsF_NtCs6IAuOt8vWmF_3syn10punctuatedINtB5_14PrivateIterMutNtNtB7_4path15GenericArgumentNtNtB7_5token5CommaENtNtNtNtCsfvfooZQ3Axs_4core4iter6traits8iterator8Iterator4nextCs2nm8mGoL06A_14mockall_derive, symObjAddr: 0x5CE4, symBinAddr: 0x5C5BC, symSize: 0x44 }
  - { offset: 0x911F9, size: 0x8, addend: 0x0, symName: __RNvXsF_NtCs6IAuOt8vWmF_3syn10punctuatedINtB5_14PrivateIterMutNtNtB7_8generics14TypeParamBoundNtNtB7_5token4PlusENtNtNtNtCsfvfooZQ3Axs_4core4iter6traits8iterator8Iterator4nextCs2nm8mGoL06A_14mockall_derive, symObjAddr: 0x5D28, symBinAddr: 0x5C600, symSize: 0x44 }
  - { offset: 0x91239, size: 0x8, addend: 0x0, symName: __RNvXsF_NtCs6IAuOt8vWmF_3syn10punctuatedINtB5_14PrivateIterMutNtNtB7_8generics14WherePredicateNtNtB7_5token5CommaENtNtNtNtCsfvfooZQ3Axs_4core4iter6traits8iterator8Iterator4nextCs2nm8mGoL06A_14mockall_derive, symObjAddr: 0x5D6C, symBinAddr: 0x5C644, symSize: 0x44 }
  - { offset: 0x91284, size: 0x8, addend: 0x0, symName: __RNCNvXsc_NtCs6IAuOt8vWmF_3syn10punctuatedINtB7_5PairsNtCs3cP53eQoTwO_11proc_macro25IdentNtNtB9_5token5CommaENtNtNtNtCsfvfooZQ3Axs_4core4iter6traits8iterator8Iterator4next0Cs2nm8mGoL06A_14mockall_derive, symObjAddr: 0x2E6C, symBinAddr: 0x59744, symSize: 0x40 }
  - { offset: 0x912F9, size: 0x8, addend: 0x0, symName: __RNCNvXsc_NtCs6IAuOt8vWmF_3syn10punctuatedINtB7_5PairsNtCs3cP53eQoTwO_11proc_macro25IdentNtNtB9_5token5CommaENtNtNtNtCsfvfooZQ3Axs_4core4iter6traits8iterator8Iterator4nexts_0Cs2nm8mGoL06A_14mockall_derive, symObjAddr: 0x2EAC, symBinAddr: 0x59784, symSize: 0x40 }
  - { offset: 0x91343, size: 0x8, addend: 0x0, symName: __RNvXsc_NtCs6IAuOt8vWmF_3syn10punctuatedINtB5_5PairsNtCs3cP53eQoTwO_11proc_macro25IdentNtNtB7_5token5CommaENtNtNtNtCsfvfooZQ3Axs_4core4iter6traits8iterator8Iterator4nextCs2nm8mGoL06A_14mockall_derive, symObjAddr: 0x6604, symBinAddr: 0x5CEDC, symSize: 0x58 }
  - { offset: 0x9138E, size: 0x8, addend: 0x0, symName: __RNCNvXsw_NtCs6IAuOt8vWmF_3syn10punctuatedINtB7_11PrivateIterNtNtB9_2ty4TypeNtNtB9_5token5CommaENtNtNtNtCsfvfooZQ3Axs_4core4iter6traits8iterator8Iterator4next0Cs2nm8mGoL06A_14mockall_derive, symObjAddr: 0x2EEC, symBinAddr: 0x597C4, symSize: 0x24 }
  - { offset: 0x913D9, size: 0x8, addend: 0x0, symName: __RNCNvXsw_NtCs6IAuOt8vWmF_3syn10punctuatedINtB7_11PrivateIterNtNtB9_2ty4TypeNtNtB9_5token5CommaENtNtNtNtCsfvfooZQ3Axs_4core4iter6traits8iterator8Iterator4nexts_0Cs2nm8mGoL06A_14mockall_derive, symObjAddr: 0x2F10, symBinAddr: 0x597E8, symSize: 0x34 }
  - { offset: 0x9141B, size: 0x8, addend: 0x0, symName: __RNCNvXsw_NtCs6IAuOt8vWmF_3syn10punctuatedINtB7_11PrivateIterNtNtB9_4path15GenericArgumentNtNtB9_5token5CommaENtNtNtNtCsfvfooZQ3Axs_4core4iter6traits8iterator8Iterator4next0Cs2nm8mGoL06A_14mockall_derive, symObjAddr: 0x2F44, symBinAddr: 0x5981C, symSize: 0x24 }
  - { offset: 0x91466, size: 0x8, addend: 0x0, symName: __RNCNvXsw_NtCs6IAuOt8vWmF_3syn10punctuatedINtB7_11PrivateIterNtNtB9_4path15GenericArgumentNtNtB9_5token5CommaENtNtNtNtCsfvfooZQ3Axs_4core4iter6traits8iterator8Iterator4nexts_0Cs2nm8mGoL06A_14mockall_derive, symObjAddr: 0x2F68, symBinAddr: 0x59840, symSize: 0x34 }
  - { offset: 0x914A8, size: 0x8, addend: 0x0, symName: __RNCNvXsw_NtCs6IAuOt8vWmF_3syn10punctuatedINtB7_11PrivateIterNtNtB9_8generics13LifetimeParamNtNtB9_5token5CommaENtNtNtNtCsfvfooZQ3Axs_4core4iter6traits8iterator8Iterator4next0Cs2nm8mGoL06A_14mockall_derive, symObjAddr: 0x2F9C, symBinAddr: 0x59874, symSize: 0x24 }
  - { offset: 0x914F3, size: 0x8, addend: 0x0, symName: __RNCNvXsw_NtCs6IAuOt8vWmF_3syn10punctuatedINtB7_11PrivateIterNtNtB9_8generics13LifetimeParamNtNtB9_5token5CommaENtNtNtNtCsfvfooZQ3Axs_4core4iter6traits8iterator8Iterator4nexts_0Cs2nm8mGoL06A_14mockall_derive, symObjAddr: 0x2FC0, symBinAddr: 0x59898, symSize: 0x34 }
  - { offset: 0x91535, size: 0x8, addend: 0x0, symName: __RNCNvXsw_NtCs6IAuOt8vWmF_3syn10punctuatedINtB7_11PrivateIterNtNtB9_8generics14WherePredicateNtNtB9_5token5CommaENtNtNtNtCsfvfooZQ3Axs_4core4iter6traits8iterator8Iterator4next0Cs2nm8mGoL06A_14mockall_derive, symObjAddr: 0x2FF4, symBinAddr: 0x598CC, symSize: 0x24 }
  - { offset: 0x91580, size: 0x8, addend: 0x0, symName: __RNCNvXsw_NtCs6IAuOt8vWmF_3syn10punctuatedINtB7_11PrivateIterNtNtB9_8generics14WherePredicateNtNtB9_5token5CommaENtNtNtNtCsfvfooZQ3Axs_4core4iter6traits8iterator8Iterator4nexts_0Cs2nm8mGoL06A_14mockall_derive, symObjAddr: 0x3018, symBinAddr: 0x598F0, symSize: 0x34 }
  - { offset: 0x915DF, size: 0x8, addend: 0x0, symName: __RNvXsw_NtCs6IAuOt8vWmF_3syn10punctuatedINtB5_11PrivateIterNtNtB7_2ty4TypeNtNtB7_5token5CommaENtNtNtNtCsfvfooZQ3Axs_4core4iter6traits8iterator8Iterator4nextCs2nm8mGoL06A_14mockall_derive, symObjAddr: 0x6A1C, symBinAddr: 0x5D2F4, symSize: 0x44 }
  - { offset: 0x9161F, size: 0x8, addend: 0x0, symName: __RNvXsw_NtCs6IAuOt8vWmF_3syn10punctuatedINtB5_11PrivateIterNtNtB7_4path15GenericArgumentNtNtB7_5token5CommaENtNtNtNtCsfvfooZQ3Axs_4core4iter6traits8iterator8Iterator4nextCs2nm8mGoL06A_14mockall_derive, symObjAddr: 0x6A60, symBinAddr: 0x5D338, symSize: 0x44 }
  - { offset: 0x9165F, size: 0x8, addend: 0x0, symName: __RNvXsw_NtCs6IAuOt8vWmF_3syn10punctuatedINtB5_11PrivateIterNtNtB7_8generics13LifetimeParamNtNtB7_5token5CommaENtNtNtNtCsfvfooZQ3Axs_4core4iter6traits8iterator8Iterator4nextCs2nm8mGoL06A_14mockall_derive, symObjAddr: 0x6AA4, symBinAddr: 0x5D37C, symSize: 0x44 }
  - { offset: 0x9169F, size: 0x8, addend: 0x0, symName: __RNvXsw_NtCs6IAuOt8vWmF_3syn10punctuatedINtB5_11PrivateIterNtNtB7_8generics14WherePredicateNtNtB7_5token5CommaENtNtNtNtCsfvfooZQ3Axs_4core4iter6traits8iterator8Iterator4nextCs2nm8mGoL06A_14mockall_derive, symObjAddr: 0x6AE8, symBinAddr: 0x5D3C0, symSize: 0x44 }
  - { offset: 0x916EA, size: 0x8, addend: 0x0, symName: __RNcNtINtNtCs6IAuOt8vWmF_3syn10punctuated4PairRNtCs3cP53eQoTwO_11proc_macro25IdentRNtNtB8_5token5CommaE3End0Cs2nm8mGoL06A_14mockall_derive, symObjAddr: 0x312C, symBinAddr: 0x59A04, symSize: 0x1C }
  - { offset: 0x91AF7, size: 0x8, addend: 0x0, symName: __RNvXNtNtCs6IAuOt8vWmF_3syn10punctuated8printingINtB4_10PunctuatedNtCs3cP53eQoTwO_11proc_macro25IdentNtNtB6_5token5CommaENtNtCs2cqEZUIJimJ_5quote9to_tokens8ToTokens9to_tokensCs2nm8mGoL06A_14mockall_derive, symObjAddr: 0x5100, symBinAddr: 0x5B9D8, symSize: 0x50 }
  - { offset: 0x91B42, size: 0x8, addend: 0x0, symName: __RNvXNtNtCs6IAuOt8vWmF_3syn10punctuated8printingINtB4_10PunctuatedNtNtB6_4path11PathSegmentNtNtB6_5token7PathSepENtNtCs2cqEZUIJimJ_5quote9to_tokens8ToTokens9to_tokensCs2nm8mGoL06A_14mockall_derive, symObjAddr: 0x5150, symBinAddr: 0x5BA28, symSize: 0x50 }
  - { offset: 0x91B93, size: 0x8, addend: 0x0, symName: __RNvXs_NtNtCs6IAuOt8vWmF_3syn10punctuated8printingINtB6_4PairRNtCs3cP53eQoTwO_11proc_macro25IdentRNtNtB8_5token5CommaENtNtCs2cqEZUIJimJ_5quote9to_tokens8ToTokens9to_tokensCs2nm8mGoL06A_14mockall_derive, symObjAddr: 0x6478, symBinAddr: 0x5CD50, symSize: 0xB4 }
  - { offset: 0x91C22, size: 0x8, addend: 0x0, symName: __RNvXs_NtNtCs6IAuOt8vWmF_3syn10punctuated8printingINtB6_4PairRNtNtB8_4path11PathSegmentRNtNtB8_5token7PathSepENtNtCs2cqEZUIJimJ_5quote9to_tokens8ToTokens9to_tokensCs2nm8mGoL06A_14mockall_derive, symObjAddr: 0x652C, symBinAddr: 0x5CE04, symSize: 0xB4 }
  - { offset: 0x91CB8, size: 0x8, addend: 0x0, symName: __RNvXsA_NtCs6IAuOt8vWmF_3syn10punctuatedINtB5_11PrivateIterNtNtB7_2ty4TypeNtNtB7_5token5CommaEINtB5_9IterTraitBU_E9clone_boxCs2nm8mGoL06A_14mockall_derive, symObjAddr: 0x57D0, symBinAddr: 0x5C0A8, symSize: 0x94 }
  - { offset: 0x91D16, size: 0x8, addend: 0x0, symName: __RNvXsA_NtCs6IAuOt8vWmF_3syn10punctuatedINtB5_11PrivateIterNtNtB7_4path15GenericArgumentNtNtB7_5token5CommaEINtB5_9IterTraitBU_E9clone_boxCs2nm8mGoL06A_14mockall_derive, symObjAddr: 0x5864, symBinAddr: 0x5C13C, symSize: 0x94 }
  - { offset: 0x91D74, size: 0x8, addend: 0x0, symName: __RNvXsA_NtCs6IAuOt8vWmF_3syn10punctuatedINtB5_11PrivateIterNtNtB7_8generics13LifetimeParamNtNtB7_5token5CommaEINtB5_9IterTraitBU_E9clone_boxCs2nm8mGoL06A_14mockall_derive, symObjAddr: 0x58F8, symBinAddr: 0x5C1D0, symSize: 0x94 }
  - { offset: 0x91DD2, size: 0x8, addend: 0x0, symName: __RNvXsA_NtCs6IAuOt8vWmF_3syn10punctuatedINtB5_11PrivateIterNtNtB7_8generics14WherePredicateNtNtB7_5token5CommaEINtB5_9IterTraitBU_E9clone_boxCs2nm8mGoL06A_14mockall_derive, symObjAddr: 0x598C, symBinAddr: 0x5C264, symSize: 0x94 }
  - { offset: 0x91E36, size: 0x8, addend: 0x0, symName: __RNvXsC_NtCs6IAuOt8vWmF_3syn10punctuatedINtB5_7IterMutNtNtB7_2ty4TypeENtNtNtNtCsfvfooZQ3Axs_4core4iter6traits8iterator8Iterator4nextCs2nm8mGoL06A_14mockall_derive, symObjAddr: 0x5A20, symBinAddr: 0x5C2F8, symSize: 0x48 }
  - { offset: 0x91E6D, size: 0x8, addend: 0x0, symName: __RNvXsC_NtCs6IAuOt8vWmF_3syn10punctuatedINtB5_7IterMutNtNtB7_2ty9BareFnArgENtNtNtNtCsfvfooZQ3Axs_4core4iter6traits8iterator8Iterator4nextCs2nm8mGoL06A_14mockall_derive, symObjAddr: 0x5A68, symBinAddr: 0x5C340, symSize: 0x48 }
  - { offset: 0x91EA4, size: 0x8, addend: 0x0, symName: __RNvXsC_NtCs6IAuOt8vWmF_3syn10punctuatedINtB5_7IterMutNtNtB7_4item5FnArgENtNtNtNtCsfvfooZQ3Axs_4core4iter6traits8iterator8Iterator4nextCs2nm8mGoL06A_14mockall_derive, symObjAddr: 0x5AB0, symBinAddr: 0x5C388, symSize: 0x48 }
  - { offset: 0x91EDB, size: 0x8, addend: 0x0, symName: __RNvXsC_NtCs6IAuOt8vWmF_3syn10punctuatedINtB5_7IterMutNtNtB7_4path11PathSegmentENtNtNtNtCsfvfooZQ3Axs_4core4iter6traits8iterator8Iterator4nextCs2nm8mGoL06A_14mockall_derive, symObjAddr: 0x5AF8, symBinAddr: 0x5C3D0, symSize: 0x48 }
  - { offset: 0x91F12, size: 0x8, addend: 0x0, symName: __RNvXsC_NtCs6IAuOt8vWmF_3syn10punctuatedINtB5_7IterMutNtNtB7_4path15GenericArgumentENtNtNtNtCsfvfooZQ3Axs_4core4iter6traits8iterator8Iterator4nextCs2nm8mGoL06A_14mockall_derive, symObjAddr: 0x5B40, symBinAddr: 0x5C418, symSize: 0x48 }
  - { offset: 0x91F49, size: 0x8, addend: 0x0, symName: __RNvXsC_NtCs6IAuOt8vWmF_3syn10punctuatedINtB5_7IterMutNtNtB7_8generics14TypeParamBoundENtNtNtNtCsfvfooZQ3Axs_4core4iter6traits8iterator8Iterator4nextCs2nm8mGoL06A_14mockall_derive, symObjAddr: 0x5B88, symBinAddr: 0x5C460, symSize: 0x48 }
  - { offset: 0x91F80, size: 0x8, addend: 0x0, symName: __RNvXsC_NtCs6IAuOt8vWmF_3syn10punctuatedINtB5_7IterMutNtNtB7_8generics14WherePredicateENtNtNtNtCsfvfooZQ3Axs_4core4iter6traits8iterator8Iterator4nextCs2nm8mGoL06A_14mockall_derive, symObjAddr: 0x5BD0, symBinAddr: 0x5C4A8, symSize: 0x48 }
  - { offset: 0x91FBD, size: 0x8, addend: 0x0, symName: __RNvXsH_NtCs6IAuOt8vWmF_3syn10punctuatedINtB5_14PrivateIterMutNtNtB7_2ty4TypeNtNtB7_5token5CommaENtNtNtNtCsfvfooZQ3Axs_4core4iter6traits10exact_size17ExactSizeIterator3lenCs2nm8mGoL06A_14mockall_derive, symObjAddr: 0x5F30, symBinAddr: 0x5C808, symSize: 0x94 }
  - { offset: 0x92031, size: 0x8, addend: 0x0, symName: __RNvXsH_NtCs6IAuOt8vWmF_3syn10punctuatedINtB5_14PrivateIterMutNtNtB7_2ty9BareFnArgNtNtB7_5token5CommaENtNtNtNtCsfvfooZQ3Axs_4core4iter6traits10exact_size17ExactSizeIterator3lenCs2nm8mGoL06A_14mockall_derive, symObjAddr: 0x5FC4, symBinAddr: 0x5C89C, symSize: 0x94 }
  - { offset: 0x920A5, size: 0x8, addend: 0x0, symName: __RNvXsH_NtCs6IAuOt8vWmF_3syn10punctuatedINtB5_14PrivateIterMutNtNtB7_4item5FnArgNtNtB7_5token5CommaENtNtNtNtCsfvfooZQ3Axs_4core4iter6traits10exact_size17ExactSizeIterator3lenCs2nm8mGoL06A_14mockall_derive, symObjAddr: 0x6058, symBinAddr: 0x5C930, symSize: 0x94 }
  - { offset: 0x92119, size: 0x8, addend: 0x0, symName: __RNvXsH_NtCs6IAuOt8vWmF_3syn10punctuatedINtB5_14PrivateIterMutNtNtB7_4path15GenericArgumentNtNtB7_5token5CommaENtNtNtNtCsfvfooZQ3Axs_4core4iter6traits10exact_size17ExactSizeIterator3lenCs2nm8mGoL06A_14mockall_derive, symObjAddr: 0x60EC, symBinAddr: 0x5C9C4, symSize: 0x94 }
  - { offset: 0x9218D, size: 0x8, addend: 0x0, symName: __RNvXsH_NtCs6IAuOt8vWmF_3syn10punctuatedINtB5_14PrivateIterMutNtNtB7_8generics14TypeParamBoundNtNtB7_5token4PlusENtNtNtNtCsfvfooZQ3Axs_4core4iter6traits10exact_size17ExactSizeIterator3lenCs2nm8mGoL06A_14mockall_derive, symObjAddr: 0x6180, symBinAddr: 0x5CA58, symSize: 0x94 }
  - { offset: 0x92201, size: 0x8, addend: 0x0, symName: __RNvXsH_NtCs6IAuOt8vWmF_3syn10punctuatedINtB5_14PrivateIterMutNtNtB7_8generics14WherePredicateNtNtB7_5token5CommaENtNtNtNtCsfvfooZQ3Axs_4core4iter6traits10exact_size17ExactSizeIterator3lenCs2nm8mGoL06A_14mockall_derive, symObjAddr: 0x6214, symBinAddr: 0x5CAEC, symSize: 0x94 }
  - { offset: 0x9227B, size: 0x8, addend: 0x0, symName: __RNvXsN_NtCs6IAuOt8vWmF_3syn10punctuatedINtB5_10PunctuatedNtNtB7_8generics13LifetimeParamNtNtB7_5token5CommaEINtNtNtCsfvfooZQ3Axs_4core3ops5index5IndexjE5indexCs2nm8mGoL06A_14mockall_derive, symObjAddr: 0x62A8, symBinAddr: 0x5CB80, symSize: 0x134 }
  - { offset: 0x922E6, size: 0x8, addend: 0x0, symName: __RNvXs_NtCs6IAuOt8vWmF_3syn10punctuatedINtB4_10PunctuatedNtNtB6_8generics13LifetimeParamNtNtB6_5token5CommaENtNtCsfvfooZQ3Axs_4core5clone5Clone5cloneCs2nm8mGoL06A_14mockall_derive, symObjAddr: 0x63DC, symBinAddr: 0x5CCB4, symSize: 0x9C }
  - { offset: 0x9232C, size: 0x8, addend: 0x0, symName: __RNvXsb_NtCs6IAuOt8vWmF_3syn10punctuatedINtB5_10PunctuatedNtNtB7_8generics13LifetimeParamNtNtB7_5token5CommaENtNtCsfvfooZQ3Axs_4core7default7Default7defaultCs2nm8mGoL06A_14mockall_derive, symObjAddr: 0x65E0, symBinAddr: 0x5CEB8, symSize: 0x24 }
  - { offset: 0x92363, size: 0x8, addend: 0x0, symName: __RNvXsn_NtCs6IAuOt8vWmF_3syn10punctuatedINtB5_8IntoIterNtNtB7_8generics12GenericParamENtNtNtNtCsfvfooZQ3Axs_4core4iter6traits8iterator8Iterator4nextCs2nm8mGoL06A_14mockall_derive, symObjAddr: 0x665C, symBinAddr: 0x5CF34, symSize: 0x34 }
  - { offset: 0x9239A, size: 0x8, addend: 0x0, symName: __RNvXsn_NtCs6IAuOt8vWmF_3syn10punctuatedINtB5_8IntoIterNtNtB7_8generics13LifetimeParamENtNtNtNtCsfvfooZQ3Axs_4core4iter6traits8iterator8Iterator4nextCs2nm8mGoL06A_14mockall_derive, symObjAddr: 0x6690, symBinAddr: 0x5CF68, symSize: 0x34 }
  - { offset: 0x923D1, size: 0x8, addend: 0x0, symName: __RNvXsn_NtCs6IAuOt8vWmF_3syn10punctuatedINtB5_8IntoIterNtNtB7_8generics13LifetimeParamENtNtNtNtCsfvfooZQ3Axs_4core4iter6traits8iterator8Iterator9size_hintCs2nm8mGoL06A_14mockall_derive, symObjAddr: 0x66C4, symBinAddr: 0x5CF9C, symSize: 0x7C }
  - { offset: 0x9240E, size: 0x8, addend: 0x0, symName: __RNvXsp_NtCs6IAuOt8vWmF_3syn10punctuatedINtB5_8IntoIterNtNtB7_8generics13LifetimeParamENtNtNtNtCsfvfooZQ3Axs_4core4iter6traits10exact_size17ExactSizeIterator3lenCs2nm8mGoL06A_14mockall_derive, symObjAddr: 0x6740, symBinAddr: 0x5D018, symSize: 0x34 }
  - { offset: 0x9244B, size: 0x8, addend: 0x0, symName: __RNvXst_NtCs6IAuOt8vWmF_3syn10punctuatedINtB5_4IterNtNtB7_2ty4TypeENtNtNtNtCsfvfooZQ3Axs_4core4iter6traits8iterator8Iterator4nextCs2nm8mGoL06A_14mockall_derive, symObjAddr: 0x6774, symBinAddr: 0x5D04C, symSize: 0x48 }
  - { offset: 0x92482, size: 0x8, addend: 0x0, symName: __RNvXst_NtCs6IAuOt8vWmF_3syn10punctuatedINtB5_4IterNtNtB7_4item5FnArgENtNtNtNtCsfvfooZQ3Axs_4core4iter6traits8iterator8Iterator9size_hintCs2nm8mGoL06A_14mockall_derive, symObjAddr: 0x67BC, symBinAddr: 0x5D094, symSize: 0x7C }
  - { offset: 0x924B9, size: 0x8, addend: 0x0, symName: __RNvXst_NtCs6IAuOt8vWmF_3syn10punctuatedINtB5_4IterNtNtB7_4path15GenericArgumentENtNtNtNtCsfvfooZQ3Axs_4core4iter6traits8iterator8Iterator4nextCs2nm8mGoL06A_14mockall_derive, symObjAddr: 0x6838, symBinAddr: 0x5D110, symSize: 0x48 }
  - { offset: 0x924F0, size: 0x8, addend: 0x0, symName: __RNvXst_NtCs6IAuOt8vWmF_3syn10punctuatedINtB5_4IterNtNtB7_8generics12GenericParamENtNtNtNtCsfvfooZQ3Axs_4core4iter6traits8iterator8Iterator9size_hintCs2nm8mGoL06A_14mockall_derive, symObjAddr: 0x6880, symBinAddr: 0x5D158, symSize: 0x7C }
  - { offset: 0x92527, size: 0x8, addend: 0x0, symName: __RNvXst_NtCs6IAuOt8vWmF_3syn10punctuatedINtB5_4IterNtNtB7_8generics13LifetimeParamENtNtNtNtCsfvfooZQ3Axs_4core4iter6traits8iterator8Iterator4nextCs2nm8mGoL06A_14mockall_derive, symObjAddr: 0x68FC, symBinAddr: 0x5D1D4, symSize: 0x48 }
  - { offset: 0x9255E, size: 0x8, addend: 0x0, symName: __RNvXst_NtCs6IAuOt8vWmF_3syn10punctuatedINtB5_4IterNtNtB7_8generics14WherePredicateENtNtNtNtCsfvfooZQ3Axs_4core4iter6traits8iterator8Iterator4nextCs2nm8mGoL06A_14mockall_derive, symObjAddr: 0x6944, symBinAddr: 0x5D21C, symSize: 0x48 }
  - { offset: 0x9259B, size: 0x8, addend: 0x0, symName: __RNvXsv_NtCs6IAuOt8vWmF_3syn10punctuatedINtB5_4IterNtNtB7_4item5FnArgENtNtNtNtCsfvfooZQ3Axs_4core4iter6traits10exact_size17ExactSizeIterator3lenCs2nm8mGoL06A_14mockall_derive, symObjAddr: 0x698C, symBinAddr: 0x5D264, symSize: 0x48 }
  - { offset: 0x925D2, size: 0x8, addend: 0x0, symName: __RNvXsv_NtCs6IAuOt8vWmF_3syn10punctuatedINtB5_4IterNtNtB7_8generics12GenericParamENtNtNtNtCsfvfooZQ3Axs_4core4iter6traits10exact_size17ExactSizeIterator3lenCs2nm8mGoL06A_14mockall_derive, symObjAddr: 0x69D4, symBinAddr: 0x5D2AC, symSize: 0x48 }
  - { offset: 0x9260F, size: 0x8, addend: 0x0, symName: __RNvXsy_NtCs6IAuOt8vWmF_3syn10punctuatedINtB5_11PrivateIterNtNtB7_2ty4TypeNtNtB7_5token5CommaENtNtNtNtCsfvfooZQ3Axs_4core4iter6traits10exact_size17ExactSizeIterator3lenCs2nm8mGoL06A_14mockall_derive, symObjAddr: 0x6C2C, symBinAddr: 0x5D504, symSize: 0x94 }
  - { offset: 0x92683, size: 0x8, addend: 0x0, symName: __RNvXsy_NtCs6IAuOt8vWmF_3syn10punctuatedINtB5_11PrivateIterNtNtB7_4path15GenericArgumentNtNtB7_5token5CommaENtNtNtNtCsfvfooZQ3Axs_4core4iter6traits10exact_size17ExactSizeIterator3lenCs2nm8mGoL06A_14mockall_derive, symObjAddr: 0x6CC0, symBinAddr: 0x5D598, symSize: 0x94 }
  - { offset: 0x926F7, size: 0x8, addend: 0x0, symName: __RNvXsy_NtCs6IAuOt8vWmF_3syn10punctuatedINtB5_11PrivateIterNtNtB7_8generics13LifetimeParamNtNtB7_5token5CommaENtNtNtNtCsfvfooZQ3Axs_4core4iter6traits10exact_size17ExactSizeIterator3lenCs2nm8mGoL06A_14mockall_derive, symObjAddr: 0x6D54, symBinAddr: 0x5D62C, symSize: 0x94 }
  - { offset: 0x9276B, size: 0x8, addend: 0x0, symName: __RNvXsy_NtCs6IAuOt8vWmF_3syn10punctuatedINtB5_11PrivateIterNtNtB7_8generics14WherePredicateNtNtB7_5token5CommaENtNtNtNtCsfvfooZQ3Axs_4core4iter6traits10exact_size17ExactSizeIterator3lenCs2nm8mGoL06A_14mockall_derive, symObjAddr: 0x6DE8, symBinAddr: 0x5D6C0, symSize: 0x94 }
  - { offset: 0x927E5, size: 0x8, addend: 0x0, symName: __RNvXsz_NtCs6IAuOt8vWmF_3syn10punctuatedINtB5_11PrivateIterNtNtB7_2ty4TypeNtNtB7_5token5CommaENtNtCsfvfooZQ3Axs_4core5clone5Clone5cloneCs2nm8mGoL06A_14mockall_derive, symObjAddr: 0x6E7C, symBinAddr: 0x5D754, symSize: 0x68 }
  - { offset: 0x92825, size: 0x8, addend: 0x0, symName: __RNvXsz_NtCs6IAuOt8vWmF_3syn10punctuatedINtB5_11PrivateIterNtNtB7_4path15GenericArgumentNtNtB7_5token5CommaENtNtCsfvfooZQ3Axs_4core5clone5Clone5cloneCs2nm8mGoL06A_14mockall_derive, symObjAddr: 0x6EE4, symBinAddr: 0x5D7BC, symSize: 0x68 }
  - { offset: 0x92865, size: 0x8, addend: 0x0, symName: __RNvXsz_NtCs6IAuOt8vWmF_3syn10punctuatedINtB5_11PrivateIterNtNtB7_8generics13LifetimeParamNtNtB7_5token5CommaENtNtCsfvfooZQ3Axs_4core5clone5Clone5cloneCs2nm8mGoL06A_14mockall_derive, symObjAddr: 0x6F4C, symBinAddr: 0x5D824, symSize: 0x68 }
  - { offset: 0x928A5, size: 0x8, addend: 0x0, symName: __RNvXsz_NtCs6IAuOt8vWmF_3syn10punctuatedINtB5_11PrivateIterNtNtB7_8generics14WherePredicateNtNtB7_5token5CommaENtNtCsfvfooZQ3Axs_4core5clone5Clone5cloneCs2nm8mGoL06A_14mockall_derive, symObjAddr: 0x6FB4, symBinAddr: 0x5D88C, symSize: 0x68 }
  - { offset: 0x97641, size: 0x8, addend: 0x0, symName: __RNvXNtCs6IAuOt8vWmF_3syn7spannedINtNtB4_10punctuated10PunctuatedNtNtB4_4path11PathSegmentNtNtB4_5token7PathSepENtB2_7Spanned4spanCs2nm8mGoL06A_14mockall_derive, symObjAddr: 0x5064, symBinAddr: 0x5B93C, symSize: 0x34 }
  - { offset: 0x97676, size: 0x8, addend: 0x0, symName: __RNvXNtCs6IAuOt8vWmF_3syn7spannedINtNtB4_10punctuated10PunctuatedNtNtB4_8generics14TypeParamBoundNtNtB4_5token4PlusENtB2_7Spanned4spanCs2nm8mGoL06A_14mockall_derive, symObjAddr: 0x5098, symBinAddr: 0x5B970, symSize: 0x34 }
  - { offset: 0x976AB, size: 0x8, addend: 0x0, symName: __RNvXNtCs6IAuOt8vWmF_3syn7spannedINtNtB4_10punctuated10PunctuatedNtNtB4_8lifetime8LifetimeNtNtB4_5token4PlusENtB2_7Spanned4spanCs2nm8mGoL06A_14mockall_derive, symObjAddr: 0x50CC, symBinAddr: 0x5B9A4, symSize: 0x34 }
  - { offset: 0x9BE86, size: 0x8, addend: 0x0, symName: __RINvYINtNtCs6IAuOt8vWmF_3syn10punctuated4IterNtNtB8_4item5FnArgENtNtNtNtCsfvfooZQ3Axs_4core4iter6traits8iterator8Iterator10filter_mapNtCs3cP53eQoTwO_11proc_macro211TokenStreamNCNvCs2nm8mGoL06A_14mockall_derive11declosurefys3_0EB2R_, symObjAddr: 0x1648, symBinAddr: 0x57F20, symSize: 0x30 }
  - { offset: 0x9BEF3, size: 0x8, addend: 0x0, symName: __RINvYINtNtCs6IAuOt8vWmF_3syn10punctuated4IterNtNtB8_4item5FnArgENtNtNtNtCsfvfooZQ3Axs_4core4iter6traits8iterator8Iterator10filter_mapNtCs3cP53eQoTwO_11proc_macro211TokenStreamNCNvCs2nm8mGoL06A_14mockall_derive15concretize_argss0_0EB2R_, symObjAddr: 0x1678, symBinAddr: 0x57F50, symSize: 0x30 }
  - { offset: 0x9BF60, size: 0x8, addend: 0x0, symName: __RINvYINtNtCs6IAuOt8vWmF_3syn10punctuated4IterNtNtB8_4item5FnArgENtNtNtNtCsfvfooZQ3Axs_4core4iter6traits8iterator8Iterator3mapBH_NCNvCs2nm8mGoL06A_14mockall_derive11declosurefys2_0EB26_, symObjAddr: 0x16A8, symBinAddr: 0x57F80, symSize: 0x30 }
  - { offset: 0x9BFCD, size: 0x8, addend: 0x0, symName: __RINvYINtNtCs6IAuOt8vWmF_3syn10punctuated4IterNtNtB8_4item5FnArgENtNtNtNtCsfvfooZQ3Axs_4core4iter6traits8iterator8Iterator3mapBH_NCNvCs2nm8mGoL06A_14mockall_derive15concretize_argss_0EB26_, symObjAddr: 0x16D8, symBinAddr: 0x57FB0, symSize: 0x30 }
  - { offset: 0x9C03A, size: 0x8, addend: 0x0, symName: __RINvYINtNtCs6IAuOt8vWmF_3syn10punctuated4IterNtNtB8_4item5FnArgENtNtNtNtCsfvfooZQ3Axs_4core4iter6traits8iterator8Iterator8find_mapNtCs3cP53eQoTwO_11proc_macro211TokenStreamQNCNvCs2nm8mGoL06A_14mockall_derive11declosurefys3_0EB2P_, symObjAddr: 0x1708, symBinAddr: 0x57FE0, symSize: 0xAC }
  - { offset: 0x9C0BE, size: 0x8, addend: 0x0, symName: __RINvYINtNtCs6IAuOt8vWmF_3syn10punctuated4IterNtNtB8_4item5FnArgENtNtNtNtCsfvfooZQ3Axs_4core4iter6traits8iterator8Iterator8find_mapNtCs3cP53eQoTwO_11proc_macro211TokenStreamQNCNvCs2nm8mGoL06A_14mockall_derive15concretize_argss0_0EB2P_, symObjAddr: 0x17B4, symBinAddr: 0x5808C, symSize: 0xAC }
  - { offset: 0x9C142, size: 0x8, addend: 0x0, symName: __RINvYINtNtCs6IAuOt8vWmF_3syn10punctuated4IterNtNtB8_4item5FnArgENtNtNtNtCsfvfooZQ3Axs_4core4iter6traits8iterator8Iterator8try_folduNCINvNvB10_8find_map5checkRBH_NtCs3cP53eQoTwO_11proc_macro211TokenStreamQNCNvCs2nm8mGoL06A_14mockall_derive11declosurefys3_0E0INtNtNtB18_3ops12control_flow11ControlFlowB2z_EEB3k_, symObjAddr: 0x1860, symBinAddr: 0x58138, symSize: 0x13C }
  - { offset: 0x9C1FD, size: 0x8, addend: 0x0, symName: __RINvYINtNtCs6IAuOt8vWmF_3syn10punctuated4IterNtNtB8_4item5FnArgENtNtNtNtCsfvfooZQ3Axs_4core4iter6traits8iterator8Iterator8try_folduNCINvNvB10_8find_map5checkRBH_NtCs3cP53eQoTwO_11proc_macro211TokenStreamQNCNvCs2nm8mGoL06A_14mockall_derive15concretize_argss0_0E0INtNtNtB18_3ops12control_flow11ControlFlowB2z_EEB3k_, symObjAddr: 0x199C, symBinAddr: 0x58274, symSize: 0x13C }
  - { offset: 0x9C2B8, size: 0x8, addend: 0x0, symName: __RINvYINtNtCs6IAuOt8vWmF_3syn10punctuated4IterNtNtB8_8generics12GenericParamENtNtNtNtCsfvfooZQ3Axs_4core4iter6traits8iterator8Iterator3anyNCNvMs_NtCs2nm8mGoL06A_14mockall_derive13mock_functionNtB2i_12MockFunction17is_method_generic0EB2k_, symObjAddr: 0x1AD8, symBinAddr: 0x583B0, symSize: 0x3C }
  - { offset: 0x9C307, size: 0x8, addend: 0x0, symName: __RINvYINtNtCs6IAuOt8vWmF_3syn10punctuated4IterNtNtB8_8generics12GenericParamENtNtNtNtCsfvfooZQ3Axs_4core4iter6traits8iterator8Iterator3anyNCNvMs_NtCs2nm8mGoL06A_14mockall_derive13mock_functionNtB2i_12MockFunction22is_expectation_generic0EB2k_, symObjAddr: 0x1B14, symBinAddr: 0x583EC, symSize: 0x3C }
  - { offset: 0x9C356, size: 0x8, addend: 0x0, symName: __RINvYINtNtCs6IAuOt8vWmF_3syn10punctuated4IterNtNtB8_8generics12GenericParamENtNtNtNtCsfvfooZQ3Axs_4core4iter6traits8iterator8Iterator3mapNtNtB8_4path15GenericArgumentNCNvCs2nm8mGoL06A_14mockall_derive14deselfify_path0EB2I_, symObjAddr: 0x1B50, symBinAddr: 0x58428, symSize: 0x1C }
  - { offset: 0x9C3AE, size: 0x8, addend: 0x0, symName: __RINvYINtNtCs6IAuOt8vWmF_3syn10punctuated4IterNtNtB8_8generics12GenericParamENtNtNtNtCsfvfooZQ3Axs_4core4iter6traits8iterator8Iterator4findQNCNvCs2nm8mGoL06A_14mockall_derive11declosurefys0_0EB2h_, symObjAddr: 0x1B6C, symBinAddr: 0x58444, symSize: 0x7C }
  - { offset: 0x9C429, size: 0x8, addend: 0x0, symName: __RINvYINtNtCs6IAuOt8vWmF_3syn10punctuated4IterNtNtB8_8generics12GenericParamENtNtNtNtCsfvfooZQ3Axs_4core4iter6traits8iterator8Iterator6clonedBH_ECs2nm8mGoL06A_14mockall_derive, symObjAddr: 0x1BE8, symBinAddr: 0x584C0, symSize: 0x1C }
  - { offset: 0x9C469, size: 0x8, addend: 0x0, symName: __RINvYINtNtCs6IAuOt8vWmF_3syn10punctuated4IterNtNtB8_8generics12GenericParamENtNtNtNtCsfvfooZQ3Axs_4core4iter6traits8iterator8Iterator6filterNCNvCs2nm8mGoL06A_14mockall_derive11declosurefys0_0EB2i_, symObjAddr: 0x1C04, symBinAddr: 0x584DC, symSize: 0x30 }
  - { offset: 0x9C4CD, size: 0x8, addend: 0x0, symName: __RINvYINtNtCs6IAuOt8vWmF_3syn10punctuated4IterNtNtB8_8generics12GenericParamENtNtNtNtCsfvfooZQ3Axs_4core4iter6traits8iterator8Iterator8try_folduNCINvNvB1c_3any5checkRBH_NCNvMs_NtCs2nm8mGoL06A_14mockall_derive13mock_functionNtB2N_12MockFunction17is_method_generic0E0INtNtNtB1k_3ops12control_flow11ControlFlowuEEB2P_, symObjAddr: 0x1C34, symBinAddr: 0x5850C, symSize: 0x134 }
  - { offset: 0x9C587, size: 0x8, addend: 0x0, symName: __RINvYINtNtCs6IAuOt8vWmF_3syn10punctuated4IterNtNtB8_8generics12GenericParamENtNtNtNtCsfvfooZQ3Axs_4core4iter6traits8iterator8Iterator8try_folduNCINvNvB1c_3any5checkRBH_NCNvMs_NtCs2nm8mGoL06A_14mockall_derive13mock_functionNtB2N_12MockFunction22is_expectation_generic0E0INtNtNtB1k_3ops12control_flow11ControlFlowuEEB2P_, symObjAddr: 0x1D68, symBinAddr: 0x58640, symSize: 0x134 }
  - { offset: 0x9C641, size: 0x8, addend: 0x0, symName: __RINvYINtNtCs6IAuOt8vWmF_3syn10punctuated4IterNtNtB8_8generics12GenericParamENtNtNtNtCsfvfooZQ3Axs_4core4iter6traits8iterator8Iterator8try_folduNCINvNvB1c_4find5checkRBH_QNCNvCs2nm8mGoL06A_14mockall_derive11declosurefys0_0E0INtNtNtB1k_3ops12control_flow11ControlFlowB2D_EEB2M_, symObjAddr: 0x1E9C, symBinAddr: 0x58774, symSize: 0x144 }
  - { offset: 0x9C6FC, size: 0x8, addend: 0x0, symName: __RINvYINtNtCs6IAuOt8vWmF_3syn10punctuated4IterNtNtB8_8generics12GenericParamENtNtNtNtCsfvfooZQ3Axs_4core4iter6traits8iterator8Iterator8try_folduNCINvNvXs_NtNtB1i_8adapters9enumerateINtB2r_9EnumeratepEB1c_8try_fold9enumerateRBH_uINtNtNtB1k_3ops12control_flow11ControlFlowNtCs3cP53eQoTwO_11proc_macro211TokenStreamENCINvNvB1c_8find_map5checkTjB3y_EB4j_QNCNvNtCs2nm8mGoL06A_14mockall_derive16mock_item_struct14phantom_fields0E0E0B3D_EB5I_, symObjAddr: 0x1FE0, symBinAddr: 0x588B8, symSize: 0x140 }
  - { offset: 0x9C7B7, size: 0x8, addend: 0x0, symName: __RINvYINtNtCs6IAuOt8vWmF_3syn10punctuated4IterNtNtB8_8generics13LifetimeParamENtNtNtNtCsfvfooZQ3Axs_4core4iter6traits8iterator8Iterator3mapNtBJ_12GenericParamNCNvCs2nm8mGoL06A_14mockall_derive27lifetimes_to_generic_params0EB2z_, symObjAddr: 0x2120, symBinAddr: 0x589F8, symSize: 0x1C }
  - { offset: 0x9C80F, size: 0x8, addend: 0x0, symName: __RINvYINtNtCs6IAuOt8vWmF_3syn10punctuated4IterNtNtB8_8generics14TypeParamBoundENtNtNtNtCsfvfooZQ3Axs_4core4iter6traits8iterator8Iterator3anyNCNvCs2nm8mGoL06A_14mockall_derive9deimplify0EB2h_, symObjAddr: 0x213C, symBinAddr: 0x58A14, symSize: 0x3C }
  - { offset: 0x9C85E, size: 0x8, addend: 0x0, symName: __RINvYINtNtCs6IAuOt8vWmF_3syn10punctuated4IterNtNtB8_8generics14TypeParamBoundENtNtNtNtCsfvfooZQ3Axs_4core4iter6traits8iterator8Iterator6clonedBH_ECs2nm8mGoL06A_14mockall_derive, symObjAddr: 0x2178, symBinAddr: 0x58A50, symSize: 0x1C }
  - { offset: 0x9C89E, size: 0x8, addend: 0x0, symName: __RINvYINtNtCs6IAuOt8vWmF_3syn10punctuated4IterNtNtB8_8generics14TypeParamBoundENtNtNtNtCsfvfooZQ3Axs_4core4iter6traits8iterator8Iterator8try_folduNCINvNvB1e_3any5checkRBH_NCNvCs2nm8mGoL06A_14mockall_derive9deimplify0E0INtNtNtB1m_3ops12control_flow11ControlFlowuEEB2M_, symObjAddr: 0x2194, symBinAddr: 0x58A6C, symSize: 0x134 }
  - { offset: 0x9C958, size: 0x8, addend: 0x0, symName: __RINvYINtNtCs6IAuOt8vWmF_3syn10punctuated4IterNtNtB8_8generics14WherePredicateENtNtNtNtCsfvfooZQ3Axs_4core4iter6traits8iterator8Iterator4findQNCNvCs2nm8mGoL06A_14mockall_derive11declosurefys1_0EB2j_, symObjAddr: 0x22C8, symBinAddr: 0x58BA0, symSize: 0x7C }
  - { offset: 0x9C9D3, size: 0x8, addend: 0x0, symName: __RINvYINtNtCs6IAuOt8vWmF_3syn10punctuated4IterNtNtB8_8generics14WherePredicateENtNtNtNtCsfvfooZQ3Axs_4core4iter6traits8iterator8Iterator4findQNCNvCs2nm8mGoL06A_14mockall_derive14dewhereselfify0EB2j_, symObjAddr: 0x2344, symBinAddr: 0x58C1C, symSize: 0x7C }
  - { offset: 0x9CA4E, size: 0x8, addend: 0x0, symName: __RINvYINtNtCs6IAuOt8vWmF_3syn10punctuated4IterNtNtB8_8generics14WherePredicateENtNtNtNtCsfvfooZQ3Axs_4core4iter6traits8iterator8Iterator6filterNCNvCs2nm8mGoL06A_14mockall_derive11declosurefys1_0EB2k_, symObjAddr: 0x23C0, symBinAddr: 0x58C98, symSize: 0x30 }
  - { offset: 0x9CAB2, size: 0x8, addend: 0x0, symName: __RINvYINtNtCs6IAuOt8vWmF_3syn10punctuated4IterNtNtB8_8generics14WherePredicateENtNtNtNtCsfvfooZQ3Axs_4core4iter6traits8iterator8Iterator6filterNCNvCs2nm8mGoL06A_14mockall_derive14dewhereselfify0EB2k_, symObjAddr: 0x23F0, symBinAddr: 0x58CC8, symSize: 0x1C }
  - { offset: 0x9CB01, size: 0x8, addend: 0x0, symName: __RINvYINtNtCs6IAuOt8vWmF_3syn10punctuated4IterNtNtB8_8generics14WherePredicateENtNtNtNtCsfvfooZQ3Axs_4core4iter6traits8iterator8Iterator8try_folduNCINvNvB1e_4find5checkRBH_QNCNvCs2nm8mGoL06A_14mockall_derive11declosurefys1_0E0INtNtNtB1m_3ops12control_flow11ControlFlowB2F_EEB2O_, symObjAddr: 0x240C, symBinAddr: 0x58CE4, symSize: 0x144 }
  - { offset: 0x9CBBC, size: 0x8, addend: 0x0, symName: __RINvYINtNtCs6IAuOt8vWmF_3syn10punctuated4IterNtNtB8_8generics14WherePredicateENtNtNtNtCsfvfooZQ3Axs_4core4iter6traits8iterator8Iterator8try_folduNCINvNvB1e_4find5checkRBH_QNCNvCs2nm8mGoL06A_14mockall_derive14dewhereselfify0E0INtNtNtB1m_3ops12control_flow11ControlFlowB2F_EEB2O_, symObjAddr: 0x2550, symBinAddr: 0x58E28, symSize: 0x144 }
  - { offset: 0x9CC77, size: 0x8, addend: 0x0, symName: __RINvYINtNtCs6IAuOt8vWmF_3syn10punctuated8IntoIterNtNtB8_8generics13LifetimeParamENtNtNtNtCsfvfooZQ3Axs_4core4iter6traits8iterator8Iterator3mapTBL_uENCINvXs8_NtCsloNvcHxBCre_9hashbrown3setINtB2v_7HashSetBL_INtNtB1p_4hash18BuildHasherDefaultNtNtNtCscOYdFFY2T5N_3std4hash6random13DefaultHasherEEINtNtB1l_7collect6ExtendBL_E6extendB3_E0ECs2nm8mGoL06A_14mockall_derive, symObjAddr: 0x2694, symBinAddr: 0x58F6C, symSize: 0x1C }
  - { offset: 0x9CCE4, size: 0x8, addend: 0x0, symName: __RINvYINtNtCs6IAuOt8vWmF_3syn10punctuated8IntoIterNtNtB8_8generics13LifetimeParamENtNtNtNtCsfvfooZQ3Axs_4core4iter6traits8iterator8Iterator4folduNCINvNtNtB1n_8adapters3map8map_foldBL_TBL_uEuNCINvXs8_NtCsloNvcHxBCre_9hashbrown3setINtB3a_7HashSetBL_INtNtB1p_4hash18BuildHasherDefaultNtNtNtCscOYdFFY2T5N_3std4hash6random13DefaultHasherEEINtNtB1l_7collect6ExtendBL_E6extendB3_E0NCINvNvB1h_8for_each4callB2U_NCINvXs1i_NtB3c_3mapINtB6C_7HashMapBL_uB3W_EIB5m_B2U_E6extendINtB2n_3MapB3_B31_EE0E0E0ECs2nm8mGoL06A_14mockall_derive, symObjAddr: 0x26B0, symBinAddr: 0x58F88, symSize: 0x128 }
  - { offset: 0x9CD75, size: 0x8, addend: 0x0, symName: __RINvYINtNtCs6IAuOt8vWmF_3syn10punctuated8IntoIterNtNtB8_8generics13LifetimeParamENtNtNtNtCsfvfooZQ3Axs_4core4iter6traits8iterator8Iterator7collectINtNtNtNtCscOYdFFY2T5N_3std11collections4hash3set7HashSetBL_INtNtB1p_4hash18BuildHasherDefaultNtNtNtB2t_4hash6random13DefaultHasherEEECs2nm8mGoL06A_14mockall_derive, symObjAddr: 0x27D8, symBinAddr: 0x590B0, symSize: 0x14 }
  - { offset: 0x9CDB6, size: 0x8, addend: 0x0, symName: __RNvYINtNtCs6IAuOt8vWmF_3syn10punctuated11PrivateIterNtNtB7_2ty4TypeNtNtB7_5token5CommaENtNtNtNtCsfvfooZQ3Axs_4core4iter6traits8iterator8Iterator10advance_byCs2nm8mGoL06A_14mockall_derive, symObjAddr: 0x7214, symBinAddr: 0x5DAEC, symSize: 0x134 }
  - { offset: 0x9CF0C, size: 0x8, addend: 0x0, symName: __RNvYINtNtCs6IAuOt8vWmF_3syn10punctuated11PrivateIterNtNtB7_2ty4TypeNtNtB7_5token5CommaENtNtNtNtCsfvfooZQ3Axs_4core4iter6traits8iterator8Iterator3nthCs2nm8mGoL06A_14mockall_derive, symObjAddr: 0x7348, symBinAddr: 0x5DC20, symSize: 0x80 }
  - { offset: 0x9CFD8, size: 0x8, addend: 0x0, symName: __RNvYINtNtCs6IAuOt8vWmF_3syn10punctuated11PrivateIterNtNtB7_2ty4TypeNtNtB7_5token5CommaENtNtNtNtCsfvfooZQ3Axs_4core4iter6traits8iterator8Iterator9size_hintCs2nm8mGoL06A_14mockall_derive, symObjAddr: 0x73C8, symBinAddr: 0x5DCA0, symSize: 0x34 }
  - { offset: 0x9D00D, size: 0x8, addend: 0x0, symName: __RNvYINtNtCs6IAuOt8vWmF_3syn10punctuated11PrivateIterNtNtB7_4path15GenericArgumentNtNtB7_5token5CommaENtNtNtNtCsfvfooZQ3Axs_4core4iter6traits8iterator8Iterator10advance_byCs2nm8mGoL06A_14mockall_derive, symObjAddr: 0x75C4, symBinAddr: 0x5DE9C, symSize: 0x134 }
  - { offset: 0x9D163, size: 0x8, addend: 0x0, symName: __RNvYINtNtCs6IAuOt8vWmF_3syn10punctuated11PrivateIterNtNtB7_4path15GenericArgumentNtNtB7_5token5CommaENtNtNtNtCsfvfooZQ3Axs_4core4iter6traits8iterator8Iterator3nthCs2nm8mGoL06A_14mockall_derive, symObjAddr: 0x76F8, symBinAddr: 0x5DFD0, symSize: 0x80 }
  - { offset: 0x9D22F, size: 0x8, addend: 0x0, symName: __RNvYINtNtCs6IAuOt8vWmF_3syn10punctuated11PrivateIterNtNtB7_4path15GenericArgumentNtNtB7_5token5CommaENtNtNtNtCsfvfooZQ3Axs_4core4iter6traits8iterator8Iterator9size_hintCs2nm8mGoL06A_14mockall_derive, symObjAddr: 0x7778, symBinAddr: 0x5E050, symSize: 0x34 }
  - { offset: 0x9D264, size: 0x8, addend: 0x0, symName: __RNvYINtNtCs6IAuOt8vWmF_3syn10punctuated11PrivateIterNtNtB7_8generics13LifetimeParamNtNtB7_5token5CommaENtNtNtNtCsfvfooZQ3Axs_4core4iter6traits8iterator8Iterator10advance_byCs2nm8mGoL06A_14mockall_derive, symObjAddr: 0x7974, symBinAddr: 0x5E24C, symSize: 0x134 }
  - { offset: 0x9D3BA, size: 0x8, addend: 0x0, symName: __RNvYINtNtCs6IAuOt8vWmF_3syn10punctuated11PrivateIterNtNtB7_8generics13LifetimeParamNtNtB7_5token5CommaENtNtNtNtCsfvfooZQ3Axs_4core4iter6traits8iterator8Iterator3nthCs2nm8mGoL06A_14mockall_derive, symObjAddr: 0x7AA8, symBinAddr: 0x5E380, symSize: 0x80 }
  - { offset: 0x9D486, size: 0x8, addend: 0x0, symName: __RNvYINtNtCs6IAuOt8vWmF_3syn10punctuated11PrivateIterNtNtB7_8generics13LifetimeParamNtNtB7_5token5CommaENtNtNtNtCsfvfooZQ3Axs_4core4iter6traits8iterator8Iterator9size_hintCs2nm8mGoL06A_14mockall_derive, symObjAddr: 0x7B28, symBinAddr: 0x5E400, symSize: 0x34 }
  - { offset: 0x9D4BB, size: 0x8, addend: 0x0, symName: __RNvYINtNtCs6IAuOt8vWmF_3syn10punctuated11PrivateIterNtNtB7_8generics14WherePredicateNtNtB7_5token5CommaENtNtNtNtCsfvfooZQ3Axs_4core4iter6traits8iterator8Iterator10advance_byCs2nm8mGoL06A_14mockall_derive, symObjAddr: 0x7D24, symBinAddr: 0x5E5FC, symSize: 0x134 }
  - { offset: 0x9D611, size: 0x8, addend: 0x0, symName: __RNvYINtNtCs6IAuOt8vWmF_3syn10punctuated11PrivateIterNtNtB7_8generics14WherePredicateNtNtB7_5token5CommaENtNtNtNtCsfvfooZQ3Axs_4core4iter6traits8iterator8Iterator3nthCs2nm8mGoL06A_14mockall_derive, symObjAddr: 0x7E58, symBinAddr: 0x5E730, symSize: 0x80 }
  - { offset: 0x9D6DD, size: 0x8, addend: 0x0, symName: __RNvYINtNtCs6IAuOt8vWmF_3syn10punctuated11PrivateIterNtNtB7_8generics14WherePredicateNtNtB7_5token5CommaENtNtNtNtCsfvfooZQ3Axs_4core4iter6traits8iterator8Iterator9size_hintCs2nm8mGoL06A_14mockall_derive, symObjAddr: 0x7ED8, symBinAddr: 0x5E7B0, symSize: 0x34 }
  - { offset: 0x9D712, size: 0x8, addend: 0x0, symName: __RNvYINtNtCs6IAuOt8vWmF_3syn10punctuated14PrivateIterMutNtNtB7_2ty4TypeNtNtB7_5token5CommaENtNtNtNtCsfvfooZQ3Axs_4core4iter6traits8iterator8Iterator10advance_byCs2nm8mGoL06A_14mockall_derive, symObjAddr: 0x80D4, symBinAddr: 0x5E9AC, symSize: 0x134 }
  - { offset: 0x9D868, size: 0x8, addend: 0x0, symName: __RNvYINtNtCs6IAuOt8vWmF_3syn10punctuated14PrivateIterMutNtNtB7_2ty4TypeNtNtB7_5token5CommaENtNtNtNtCsfvfooZQ3Axs_4core4iter6traits8iterator8Iterator3nthCs2nm8mGoL06A_14mockall_derive, symObjAddr: 0x8208, symBinAddr: 0x5EAE0, symSize: 0x80 }
  - { offset: 0x9D934, size: 0x8, addend: 0x0, symName: __RNvYINtNtCs6IAuOt8vWmF_3syn10punctuated14PrivateIterMutNtNtB7_2ty4TypeNtNtB7_5token5CommaENtNtNtNtCsfvfooZQ3Axs_4core4iter6traits8iterator8Iterator9size_hintCs2nm8mGoL06A_14mockall_derive, symObjAddr: 0x8288, symBinAddr: 0x5EB60, symSize: 0x34 }
  - { offset: 0x9D969, size: 0x8, addend: 0x0, symName: __RNvYINtNtCs6IAuOt8vWmF_3syn10punctuated14PrivateIterMutNtNtB7_2ty9BareFnArgNtNtB7_5token5CommaENtNtNtNtCsfvfooZQ3Axs_4core4iter6traits8iterator8Iterator10advance_byCs2nm8mGoL06A_14mockall_derive, symObjAddr: 0x8484, symBinAddr: 0x5ED5C, symSize: 0x134 }
  - { offset: 0x9DABF, size: 0x8, addend: 0x0, symName: __RNvYINtNtCs6IAuOt8vWmF_3syn10punctuated14PrivateIterMutNtNtB7_2ty9BareFnArgNtNtB7_5token5CommaENtNtNtNtCsfvfooZQ3Axs_4core4iter6traits8iterator8Iterator3nthCs2nm8mGoL06A_14mockall_derive, symObjAddr: 0x85B8, symBinAddr: 0x5EE90, symSize: 0x80 }
  - { offset: 0x9DB8B, size: 0x8, addend: 0x0, symName: __RNvYINtNtCs6IAuOt8vWmF_3syn10punctuated14PrivateIterMutNtNtB7_2ty9BareFnArgNtNtB7_5token5CommaENtNtNtNtCsfvfooZQ3Axs_4core4iter6traits8iterator8Iterator9size_hintCs2nm8mGoL06A_14mockall_derive, symObjAddr: 0x8638, symBinAddr: 0x5EF10, symSize: 0x34 }
  - { offset: 0x9DBC0, size: 0x8, addend: 0x0, symName: __RNvYINtNtCs6IAuOt8vWmF_3syn10punctuated14PrivateIterMutNtNtB7_4item5FnArgNtNtB7_5token5CommaENtNtNtNtCsfvfooZQ3Axs_4core4iter6traits8iterator8Iterator10advance_byCs2nm8mGoL06A_14mockall_derive, symObjAddr: 0x8834, symBinAddr: 0x5F10C, symSize: 0x134 }
  - { offset: 0x9DD16, size: 0x8, addend: 0x0, symName: __RNvYINtNtCs6IAuOt8vWmF_3syn10punctuated14PrivateIterMutNtNtB7_4item5FnArgNtNtB7_5token5CommaENtNtNtNtCsfvfooZQ3Axs_4core4iter6traits8iterator8Iterator3nthCs2nm8mGoL06A_14mockall_derive, symObjAddr: 0x8968, symBinAddr: 0x5F240, symSize: 0x80 }
  - { offset: 0x9DDE2, size: 0x8, addend: 0x0, symName: __RNvYINtNtCs6IAuOt8vWmF_3syn10punctuated14PrivateIterMutNtNtB7_4item5FnArgNtNtB7_5token5CommaENtNtNtNtCsfvfooZQ3Axs_4core4iter6traits8iterator8Iterator9size_hintCs2nm8mGoL06A_14mockall_derive, symObjAddr: 0x89E8, symBinAddr: 0x5F2C0, symSize: 0x34 }
  - { offset: 0x9DE17, size: 0x8, addend: 0x0, symName: __RNvYINtNtCs6IAuOt8vWmF_3syn10punctuated14PrivateIterMutNtNtB7_4path15GenericArgumentNtNtB7_5token5CommaENtNtNtNtCsfvfooZQ3Axs_4core4iter6traits8iterator8Iterator10advance_byCs2nm8mGoL06A_14mockall_derive, symObjAddr: 0x8BE4, symBinAddr: 0x5F4BC, symSize: 0x134 }
  - { offset: 0x9DF6D, size: 0x8, addend: 0x0, symName: __RNvYINtNtCs6IAuOt8vWmF_3syn10punctuated14PrivateIterMutNtNtB7_4path15GenericArgumentNtNtB7_5token5CommaENtNtNtNtCsfvfooZQ3Axs_4core4iter6traits8iterator8Iterator3nthCs2nm8mGoL06A_14mockall_derive, symObjAddr: 0x8D18, symBinAddr: 0x5F5F0, symSize: 0x80 }
  - { offset: 0x9E039, size: 0x8, addend: 0x0, symName: __RNvYINtNtCs6IAuOt8vWmF_3syn10punctuated14PrivateIterMutNtNtB7_4path15GenericArgumentNtNtB7_5token5CommaENtNtNtNtCsfvfooZQ3Axs_4core4iter6traits8iterator8Iterator9size_hintCs2nm8mGoL06A_14mockall_derive, symObjAddr: 0x8D98, symBinAddr: 0x5F670, symSize: 0x34 }
  - { offset: 0x9E06E, size: 0x8, addend: 0x0, symName: __RNvYINtNtCs6IAuOt8vWmF_3syn10punctuated14PrivateIterMutNtNtB7_8generics14TypeParamBoundNtNtB7_5token4PlusENtNtNtNtCsfvfooZQ3Axs_4core4iter6traits8iterator8Iterator10advance_byCs2nm8mGoL06A_14mockall_derive, symObjAddr: 0x8F94, symBinAddr: 0x5F86C, symSize: 0x134 }
  - { offset: 0x9E1C4, size: 0x8, addend: 0x0, symName: __RNvYINtNtCs6IAuOt8vWmF_3syn10punctuated14PrivateIterMutNtNtB7_8generics14TypeParamBoundNtNtB7_5token4PlusENtNtNtNtCsfvfooZQ3Axs_4core4iter6traits8iterator8Iterator3nthCs2nm8mGoL06A_14mockall_derive, symObjAddr: 0x90C8, symBinAddr: 0x5F9A0, symSize: 0x80 }
  - { offset: 0x9E290, size: 0x8, addend: 0x0, symName: __RNvYINtNtCs6IAuOt8vWmF_3syn10punctuated14PrivateIterMutNtNtB7_8generics14TypeParamBoundNtNtB7_5token4PlusENtNtNtNtCsfvfooZQ3Axs_4core4iter6traits8iterator8Iterator9size_hintCs2nm8mGoL06A_14mockall_derive, symObjAddr: 0x9148, symBinAddr: 0x5FA20, symSize: 0x34 }
  - { offset: 0x9E2C5, size: 0x8, addend: 0x0, symName: __RNvYINtNtCs6IAuOt8vWmF_3syn10punctuated14PrivateIterMutNtNtB7_8generics14WherePredicateNtNtB7_5token5CommaENtNtNtNtCsfvfooZQ3Axs_4core4iter6traits8iterator8Iterator10advance_byCs2nm8mGoL06A_14mockall_derive, symObjAddr: 0x9344, symBinAddr: 0x5FC1C, symSize: 0x134 }
  - { offset: 0x9E41B, size: 0x8, addend: 0x0, symName: __RNvYINtNtCs6IAuOt8vWmF_3syn10punctuated14PrivateIterMutNtNtB7_8generics14WherePredicateNtNtB7_5token5CommaENtNtNtNtCsfvfooZQ3Axs_4core4iter6traits8iterator8Iterator3nthCs2nm8mGoL06A_14mockall_derive, symObjAddr: 0x9478, symBinAddr: 0x5FD50, symSize: 0x80 }
  - { offset: 0x9E4E7, size: 0x8, addend: 0x0, symName: __RNvYINtNtCs6IAuOt8vWmF_3syn10punctuated14PrivateIterMutNtNtB7_8generics14WherePredicateNtNtB7_5token5CommaENtNtNtNtCsfvfooZQ3Axs_4core4iter6traits8iterator8Iterator9size_hintCs2nm8mGoL06A_14mockall_derive, symObjAddr: 0x94F8, symBinAddr: 0x5FDD0, symSize: 0x34 }
  - { offset: 0x9E51C, size: 0x8, addend: 0x0, symName: __RNvYINtNtCs6IAuOt8vWmF_3syn10punctuated4IterNtNtB7_4path11PathSegmentENtNtNtNtCsfvfooZQ3Axs_4core4iter6traits8iterator8Iterator3revCs2nm8mGoL06A_14mockall_derive, symObjAddr: 0x952C, symBinAddr: 0x5FE04, symSize: 0x1C }
  - { offset: 0x9E553, size: 0x8, addend: 0x0, symName: __RNvYINtNtCs6IAuOt8vWmF_3syn10punctuated4IterNtNtB7_8generics12GenericParamENtNtNtNtCsfvfooZQ3Axs_4core4iter6traits8iterator8Iterator9enumerateCs2nm8mGoL06A_14mockall_derive, symObjAddr: 0x9548, symBinAddr: 0x5FE20, symSize: 0x28 }
  - { offset: 0x9E699, size: 0x8, addend: 0x0, symName: __RNvXNtNtNtCsfvfooZQ3Axs_4core4iter6traits7collectINtNtCs6IAuOt8vWmF_3syn10punctuated4IterNtNtBQ_2ty4TypeENtB2_12IntoIterator9into_iterCs2nm8mGoL06A_14mockall_derive, symObjAddr: 0x51A0, symBinAddr: 0x5BA78, symSize: 0x1C }
  - { offset: 0x9E6D0, size: 0x8, addend: 0x0, symName: __RNvXNtNtNtCsfvfooZQ3Axs_4core4iter6traits7collectINtNtCs6IAuOt8vWmF_3syn10punctuated4IterNtNtBQ_4item5FnArgENtB2_12IntoIterator9into_iterCs2nm8mGoL06A_14mockall_derive, symObjAddr: 0x51BC, symBinAddr: 0x5BA94, symSize: 0x1C }
  - { offset: 0x9E707, size: 0x8, addend: 0x0, symName: __RNvXNtNtNtCsfvfooZQ3Axs_4core4iter6traits7collectINtNtCs6IAuOt8vWmF_3syn10punctuated4IterNtNtBQ_4path11PathSegmentENtB2_12IntoIterator9into_iterCs2nm8mGoL06A_14mockall_derive, symObjAddr: 0x51D8, symBinAddr: 0x5BAB0, symSize: 0x1C }
  - { offset: 0x9E73E, size: 0x8, addend: 0x0, symName: __RNvXNtNtNtCsfvfooZQ3Axs_4core4iter6traits7collectINtNtCs6IAuOt8vWmF_3syn10punctuated4IterNtNtBQ_4path15GenericArgumentENtB2_12IntoIterator9into_iterCs2nm8mGoL06A_14mockall_derive, symObjAddr: 0x51F4, symBinAddr: 0x5BACC, symSize: 0x1C }
  - { offset: 0x9E775, size: 0x8, addend: 0x0, symName: __RNvXNtNtNtCsfvfooZQ3Axs_4core4iter6traits7collectINtNtCs6IAuOt8vWmF_3syn10punctuated4IterNtNtBQ_8generics12GenericParamENtB2_12IntoIterator9into_iterCs2nm8mGoL06A_14mockall_derive, symObjAddr: 0x5210, symBinAddr: 0x5BAE8, symSize: 0x1C }
  - { offset: 0x9E7AC, size: 0x8, addend: 0x0, symName: __RNvXNtNtNtCsfvfooZQ3Axs_4core4iter6traits7collectINtNtCs6IAuOt8vWmF_3syn10punctuated4IterNtNtBQ_8generics14TypeParamBoundENtB2_12IntoIterator9into_iterCs2nm8mGoL06A_14mockall_derive, symObjAddr: 0x522C, symBinAddr: 0x5BB04, symSize: 0x1C }
  - { offset: 0x9E7E3, size: 0x8, addend: 0x0, symName: __RNvXNtNtNtCsfvfooZQ3Axs_4core4iter6traits7collectINtNtCs6IAuOt8vWmF_3syn10punctuated4IterNtNtBQ_8generics14WherePredicateENtB2_12IntoIterator9into_iterCs2nm8mGoL06A_14mockall_derive, symObjAddr: 0x5248, symBinAddr: 0x5BB20, symSize: 0x1C }
  - { offset: 0x9E81A, size: 0x8, addend: 0x0, symName: __RNvXNtNtNtCsfvfooZQ3Axs_4core4iter6traits7collectINtNtCs6IAuOt8vWmF_3syn10punctuated5PairsNtCs3cP53eQoTwO_11proc_macro25IdentNtNtBQ_5token5CommaENtB2_12IntoIterator9into_iterCs2nm8mGoL06A_14mockall_derive, symObjAddr: 0x5264, symBinAddr: 0x5BB3C, symSize: 0x18 }
  - { offset: 0x9E851, size: 0x8, addend: 0x0, symName: __RNvXNtNtNtCsfvfooZQ3Axs_4core4iter6traits7collectINtNtCs6IAuOt8vWmF_3syn10punctuated7IterMutNtNtBQ_2ty4TypeENtB2_12IntoIterator9into_iterCs2nm8mGoL06A_14mockall_derive, symObjAddr: 0x527C, symBinAddr: 0x5BB54, symSize: 0x1C }
  - { offset: 0x9E888, size: 0x8, addend: 0x0, symName: __RNvXNtNtNtCsfvfooZQ3Axs_4core4iter6traits7collectINtNtCs6IAuOt8vWmF_3syn10punctuated7IterMutNtNtBQ_2ty9BareFnArgENtB2_12IntoIterator9into_iterCs2nm8mGoL06A_14mockall_derive, symObjAddr: 0x5298, symBinAddr: 0x5BB70, symSize: 0x1C }
  - { offset: 0x9E8BF, size: 0x8, addend: 0x0, symName: __RNvXNtNtNtCsfvfooZQ3Axs_4core4iter6traits7collectINtNtCs6IAuOt8vWmF_3syn10punctuated7IterMutNtNtBQ_4item5FnArgENtB2_12IntoIterator9into_iterCs2nm8mGoL06A_14mockall_derive, symObjAddr: 0x52B4, symBinAddr: 0x5BB8C, symSize: 0x1C }
  - { offset: 0x9E8F6, size: 0x8, addend: 0x0, symName: __RNvXNtNtNtCsfvfooZQ3Axs_4core4iter6traits7collectINtNtCs6IAuOt8vWmF_3syn10punctuated7IterMutNtNtBQ_4path11PathSegmentENtB2_12IntoIterator9into_iterCs2nm8mGoL06A_14mockall_derive, symObjAddr: 0x52D0, symBinAddr: 0x5BBA8, symSize: 0x1C }
  - { offset: 0x9E92D, size: 0x8, addend: 0x0, symName: __RNvXNtNtNtCsfvfooZQ3Axs_4core4iter6traits7collectINtNtCs6IAuOt8vWmF_3syn10punctuated7IterMutNtNtBQ_4path15GenericArgumentENtB2_12IntoIterator9into_iterCs2nm8mGoL06A_14mockall_derive, symObjAddr: 0x52EC, symBinAddr: 0x5BBC4, symSize: 0x1C }
  - { offset: 0x9E964, size: 0x8, addend: 0x0, symName: __RNvXNtNtNtCsfvfooZQ3Axs_4core4iter6traits7collectINtNtCs6IAuOt8vWmF_3syn10punctuated7IterMutNtNtBQ_8generics12GenericParamENtB2_12IntoIterator9into_iterCs2nm8mGoL06A_14mockall_derive, symObjAddr: 0x5308, symBinAddr: 0x5BBE0, symSize: 0x1C }
  - { offset: 0x9E99B, size: 0x8, addend: 0x0, symName: __RNvXNtNtNtCsfvfooZQ3Axs_4core4iter6traits7collectINtNtCs6IAuOt8vWmF_3syn10punctuated7IterMutNtNtBQ_8generics14TypeParamBoundENtB2_12IntoIterator9into_iterCs2nm8mGoL06A_14mockall_derive, symObjAddr: 0x5324, symBinAddr: 0x5BBFC, symSize: 0x1C }
  - { offset: 0x9E9D2, size: 0x8, addend: 0x0, symName: __RNvXNtNtNtCsfvfooZQ3Axs_4core4iter6traits7collectINtNtCs6IAuOt8vWmF_3syn10punctuated7IterMutNtNtBQ_8generics14WherePredicateENtB2_12IntoIterator9into_iterCs2nm8mGoL06A_14mockall_derive, symObjAddr: 0x5340, symBinAddr: 0x5BC18, symSize: 0x1C }
  - { offset: 0x9EA09, size: 0x8, addend: 0x0, symName: __RNvXNtNtNtCsfvfooZQ3Axs_4core4iter6traits7collectINtNtCs6IAuOt8vWmF_3syn10punctuated8IntoIterNtNtBQ_8generics12GenericParamENtB2_12IntoIterator9into_iterCs2nm8mGoL06A_14mockall_derive, symObjAddr: 0x535C, symBinAddr: 0x5BC34, symSize: 0x14 }
  - { offset: 0x9EA40, size: 0x8, addend: 0x0, symName: __RNvXNtNtNtCsfvfooZQ3Axs_4core4iter6traits7collectINtNtCs6IAuOt8vWmF_3syn10punctuated8IntoIterNtNtBQ_8generics13LifetimeParamENtB2_12IntoIterator9into_iterCs2nm8mGoL06A_14mockall_derive, symObjAddr: 0x5370, symBinAddr: 0x5BC48, symSize: 0x14 }
  - { offset: 0x9EA83, size: 0x8, addend: 0x0, symName: __RNvYINtNtCs6IAuOt8vWmF_3syn10punctuated11PrivateIterNtNtB7_2ty4TypeNtNtB7_5token5CommaENtNtNtNtCsfvfooZQ3Axs_4core4iter6traits10exact_size17ExactSizeIterator8is_emptyCs2nm8mGoL06A_14mockall_derive, symObjAddr: 0x704C, symBinAddr: 0x5D924, symSize: 0x2C }
  - { offset: 0x9EAB8, size: 0x8, addend: 0x0, symName: __RNvYINtNtCs6IAuOt8vWmF_3syn10punctuated11PrivateIterNtNtB7_4path15GenericArgumentNtNtB7_5token5CommaENtNtNtNtCsfvfooZQ3Axs_4core4iter6traits10exact_size17ExactSizeIterator8is_emptyCs2nm8mGoL06A_14mockall_derive, symObjAddr: 0x73FC, symBinAddr: 0x5DCD4, symSize: 0x2C }
  - { offset: 0x9EAED, size: 0x8, addend: 0x0, symName: __RNvYINtNtCs6IAuOt8vWmF_3syn10punctuated11PrivateIterNtNtB7_8generics13LifetimeParamNtNtB7_5token5CommaENtNtNtNtCsfvfooZQ3Axs_4core4iter6traits10exact_size17ExactSizeIterator8is_emptyCs2nm8mGoL06A_14mockall_derive, symObjAddr: 0x77AC, symBinAddr: 0x5E084, symSize: 0x2C }
  - { offset: 0x9EB22, size: 0x8, addend: 0x0, symName: __RNvYINtNtCs6IAuOt8vWmF_3syn10punctuated11PrivateIterNtNtB7_8generics14WherePredicateNtNtB7_5token5CommaENtNtNtNtCsfvfooZQ3Axs_4core4iter6traits10exact_size17ExactSizeIterator8is_emptyCs2nm8mGoL06A_14mockall_derive, symObjAddr: 0x7B5C, symBinAddr: 0x5E434, symSize: 0x2C }
  - { offset: 0x9EB57, size: 0x8, addend: 0x0, symName: __RNvYINtNtCs6IAuOt8vWmF_3syn10punctuated14PrivateIterMutNtNtB7_2ty4TypeNtNtB7_5token5CommaENtNtNtNtCsfvfooZQ3Axs_4core4iter6traits10exact_size17ExactSizeIterator8is_emptyCs2nm8mGoL06A_14mockall_derive, symObjAddr: 0x7F0C, symBinAddr: 0x5E7E4, symSize: 0x2C }
  - { offset: 0x9EB8C, size: 0x8, addend: 0x0, symName: __RNvYINtNtCs6IAuOt8vWmF_3syn10punctuated14PrivateIterMutNtNtB7_2ty9BareFnArgNtNtB7_5token5CommaENtNtNtNtCsfvfooZQ3Axs_4core4iter6traits10exact_size17ExactSizeIterator8is_emptyCs2nm8mGoL06A_14mockall_derive, symObjAddr: 0x82BC, symBinAddr: 0x5EB94, symSize: 0x2C }
  - { offset: 0x9EBC1, size: 0x8, addend: 0x0, symName: __RNvYINtNtCs6IAuOt8vWmF_3syn10punctuated14PrivateIterMutNtNtB7_4item5FnArgNtNtB7_5token5CommaENtNtNtNtCsfvfooZQ3Axs_4core4iter6traits10exact_size17ExactSizeIterator8is_emptyCs2nm8mGoL06A_14mockall_derive, symObjAddr: 0x866C, symBinAddr: 0x5EF44, symSize: 0x2C }
  - { offset: 0x9EBF6, size: 0x8, addend: 0x0, symName: __RNvYINtNtCs6IAuOt8vWmF_3syn10punctuated14PrivateIterMutNtNtB7_4path15GenericArgumentNtNtB7_5token5CommaENtNtNtNtCsfvfooZQ3Axs_4core4iter6traits10exact_size17ExactSizeIterator8is_emptyCs2nm8mGoL06A_14mockall_derive, symObjAddr: 0x8A1C, symBinAddr: 0x5F2F4, symSize: 0x2C }
  - { offset: 0x9EC2B, size: 0x8, addend: 0x0, symName: __RNvYINtNtCs6IAuOt8vWmF_3syn10punctuated14PrivateIterMutNtNtB7_8generics14TypeParamBoundNtNtB7_5token4PlusENtNtNtNtCsfvfooZQ3Axs_4core4iter6traits10exact_size17ExactSizeIterator8is_emptyCs2nm8mGoL06A_14mockall_derive, symObjAddr: 0x8DCC, symBinAddr: 0x5F6A4, symSize: 0x2C }
  - { offset: 0x9EC60, size: 0x8, addend: 0x0, symName: __RNvYINtNtCs6IAuOt8vWmF_3syn10punctuated14PrivateIterMutNtNtB7_8generics14WherePredicateNtNtB7_5token5CommaENtNtNtNtCsfvfooZQ3Axs_4core4iter6traits10exact_size17ExactSizeIterator8is_emptyCs2nm8mGoL06A_14mockall_derive, symObjAddr: 0x917C, symBinAddr: 0x5FA54, symSize: 0x2C }
  - { offset: 0x9ECA1, size: 0x8, addend: 0x0, symName: __RNvYINtNtCs6IAuOt8vWmF_3syn10punctuated11PrivateIterNtNtB7_2ty4TypeNtNtB7_5token5CommaENtNtNtNtCsfvfooZQ3Axs_4core4iter6traits12double_ended19DoubleEndedIterator15advance_back_byCs2nm8mGoL06A_14mockall_derive, symObjAddr: 0x7078, symBinAddr: 0x5D950, symSize: 0x134 }
  - { offset: 0x9EDEF, size: 0x8, addend: 0x0, symName: __RNvYINtNtCs6IAuOt8vWmF_3syn10punctuated11PrivateIterNtNtB7_2ty4TypeNtNtB7_5token5CommaENtNtNtNtCsfvfooZQ3Axs_4core4iter6traits12double_ended19DoubleEndedIterator8nth_backCs2nm8mGoL06A_14mockall_derive, symObjAddr: 0x71AC, symBinAddr: 0x5DA84, symSize: 0x68 }
  - { offset: 0x9EE6D, size: 0x8, addend: 0x0, symName: __RNvYINtNtCs6IAuOt8vWmF_3syn10punctuated11PrivateIterNtNtB7_4path15GenericArgumentNtNtB7_5token5CommaENtNtNtNtCsfvfooZQ3Axs_4core4iter6traits12double_ended19DoubleEndedIterator15advance_back_byCs2nm8mGoL06A_14mockall_derive, symObjAddr: 0x7428, symBinAddr: 0x5DD00, symSize: 0x134 }
  - { offset: 0x9EFBB, size: 0x8, addend: 0x0, symName: __RNvYINtNtCs6IAuOt8vWmF_3syn10punctuated11PrivateIterNtNtB7_4path15GenericArgumentNtNtB7_5token5CommaENtNtNtNtCsfvfooZQ3Axs_4core4iter6traits12double_ended19DoubleEndedIterator8nth_backCs2nm8mGoL06A_14mockall_derive, symObjAddr: 0x755C, symBinAddr: 0x5DE34, symSize: 0x68 }
  - { offset: 0x9F039, size: 0x8, addend: 0x0, symName: __RNvYINtNtCs6IAuOt8vWmF_3syn10punctuated11PrivateIterNtNtB7_8generics13LifetimeParamNtNtB7_5token5CommaENtNtNtNtCsfvfooZQ3Axs_4core4iter6traits12double_ended19DoubleEndedIterator15advance_back_byCs2nm8mGoL06A_14mockall_derive, symObjAddr: 0x77D8, symBinAddr: 0x5E0B0, symSize: 0x134 }
  - { offset: 0x9F187, size: 0x8, addend: 0x0, symName: __RNvYINtNtCs6IAuOt8vWmF_3syn10punctuated11PrivateIterNtNtB7_8generics13LifetimeParamNtNtB7_5token5CommaENtNtNtNtCsfvfooZQ3Axs_4core4iter6traits12double_ended19DoubleEndedIterator8nth_backCs2nm8mGoL06A_14mockall_derive, symObjAddr: 0x790C, symBinAddr: 0x5E1E4, symSize: 0x68 }
  - { offset: 0x9F205, size: 0x8, addend: 0x0, symName: __RNvYINtNtCs6IAuOt8vWmF_3syn10punctuated11PrivateIterNtNtB7_8generics14WherePredicateNtNtB7_5token5CommaENtNtNtNtCsfvfooZQ3Axs_4core4iter6traits12double_ended19DoubleEndedIterator15advance_back_byCs2nm8mGoL06A_14mockall_derive, symObjAddr: 0x7B88, symBinAddr: 0x5E460, symSize: 0x134 }
  - { offset: 0x9F353, size: 0x8, addend: 0x0, symName: __RNvYINtNtCs6IAuOt8vWmF_3syn10punctuated11PrivateIterNtNtB7_8generics14WherePredicateNtNtB7_5token5CommaENtNtNtNtCsfvfooZQ3Axs_4core4iter6traits12double_ended19DoubleEndedIterator8nth_backCs2nm8mGoL06A_14mockall_derive, symObjAddr: 0x7CBC, symBinAddr: 0x5E594, symSize: 0x68 }
  - { offset: 0x9F3D1, size: 0x8, addend: 0x0, symName: __RNvYINtNtCs6IAuOt8vWmF_3syn10punctuated14PrivateIterMutNtNtB7_2ty4TypeNtNtB7_5token5CommaENtNtNtNtCsfvfooZQ3Axs_4core4iter6traits12double_ended19DoubleEndedIterator15advance_back_byCs2nm8mGoL06A_14mockall_derive, symObjAddr: 0x7F38, symBinAddr: 0x5E810, symSize: 0x134 }
  - { offset: 0x9F51F, size: 0x8, addend: 0x0, symName: __RNvYINtNtCs6IAuOt8vWmF_3syn10punctuated14PrivateIterMutNtNtB7_2ty4TypeNtNtB7_5token5CommaENtNtNtNtCsfvfooZQ3Axs_4core4iter6traits12double_ended19DoubleEndedIterator8nth_backCs2nm8mGoL06A_14mockall_derive, symObjAddr: 0x806C, symBinAddr: 0x5E944, symSize: 0x68 }
  - { offset: 0x9F59D, size: 0x8, addend: 0x0, symName: __RNvYINtNtCs6IAuOt8vWmF_3syn10punctuated14PrivateIterMutNtNtB7_2ty9BareFnArgNtNtB7_5token5CommaENtNtNtNtCsfvfooZQ3Axs_4core4iter6traits12double_ended19DoubleEndedIterator15advance_back_byCs2nm8mGoL06A_14mockall_derive, symObjAddr: 0x82E8, symBinAddr: 0x5EBC0, symSize: 0x134 }
  - { offset: 0x9F6EB, size: 0x8, addend: 0x0, symName: __RNvYINtNtCs6IAuOt8vWmF_3syn10punctuated14PrivateIterMutNtNtB7_2ty9BareFnArgNtNtB7_5token5CommaENtNtNtNtCsfvfooZQ3Axs_4core4iter6traits12double_ended19DoubleEndedIterator8nth_backCs2nm8mGoL06A_14mockall_derive, symObjAddr: 0x841C, symBinAddr: 0x5ECF4, symSize: 0x68 }
  - { offset: 0x9F769, size: 0x8, addend: 0x0, symName: __RNvYINtNtCs6IAuOt8vWmF_3syn10punctuated14PrivateIterMutNtNtB7_4item5FnArgNtNtB7_5token5CommaENtNtNtNtCsfvfooZQ3Axs_4core4iter6traits12double_ended19DoubleEndedIterator15advance_back_byCs2nm8mGoL06A_14mockall_derive, symObjAddr: 0x8698, symBinAddr: 0x5EF70, symSize: 0x134 }
  - { offset: 0x9F8B7, size: 0x8, addend: 0x0, symName: __RNvYINtNtCs6IAuOt8vWmF_3syn10punctuated14PrivateIterMutNtNtB7_4item5FnArgNtNtB7_5token5CommaENtNtNtNtCsfvfooZQ3Axs_4core4iter6traits12double_ended19DoubleEndedIterator8nth_backCs2nm8mGoL06A_14mockall_derive, symObjAddr: 0x87CC, symBinAddr: 0x5F0A4, symSize: 0x68 }
  - { offset: 0x9F935, size: 0x8, addend: 0x0, symName: __RNvYINtNtCs6IAuOt8vWmF_3syn10punctuated14PrivateIterMutNtNtB7_4path15GenericArgumentNtNtB7_5token5CommaENtNtNtNtCsfvfooZQ3Axs_4core4iter6traits12double_ended19DoubleEndedIterator15advance_back_byCs2nm8mGoL06A_14mockall_derive, symObjAddr: 0x8A48, symBinAddr: 0x5F320, symSize: 0x134 }
  - { offset: 0x9FA83, size: 0x8, addend: 0x0, symName: __RNvYINtNtCs6IAuOt8vWmF_3syn10punctuated14PrivateIterMutNtNtB7_4path15GenericArgumentNtNtB7_5token5CommaENtNtNtNtCsfvfooZQ3Axs_4core4iter6traits12double_ended19DoubleEndedIterator8nth_backCs2nm8mGoL06A_14mockall_derive, symObjAddr: 0x8B7C, symBinAddr: 0x5F454, symSize: 0x68 }
  - { offset: 0x9FB01, size: 0x8, addend: 0x0, symName: __RNvYINtNtCs6IAuOt8vWmF_3syn10punctuated14PrivateIterMutNtNtB7_8generics14TypeParamBoundNtNtB7_5token4PlusENtNtNtNtCsfvfooZQ3Axs_4core4iter6traits12double_ended19DoubleEndedIterator15advance_back_byCs2nm8mGoL06A_14mockall_derive, symObjAddr: 0x8DF8, symBinAddr: 0x5F6D0, symSize: 0x134 }
  - { offset: 0x9FC4F, size: 0x8, addend: 0x0, symName: __RNvYINtNtCs6IAuOt8vWmF_3syn10punctuated14PrivateIterMutNtNtB7_8generics14TypeParamBoundNtNtB7_5token4PlusENtNtNtNtCsfvfooZQ3Axs_4core4iter6traits12double_ended19DoubleEndedIterator8nth_backCs2nm8mGoL06A_14mockall_derive, symObjAddr: 0x8F2C, symBinAddr: 0x5F804, symSize: 0x68 }
  - { offset: 0x9FCCD, size: 0x8, addend: 0x0, symName: __RNvYINtNtCs6IAuOt8vWmF_3syn10punctuated14PrivateIterMutNtNtB7_8generics14WherePredicateNtNtB7_5token5CommaENtNtNtNtCsfvfooZQ3Axs_4core4iter6traits12double_ended19DoubleEndedIterator15advance_back_byCs2nm8mGoL06A_14mockall_derive, symObjAddr: 0x91A8, symBinAddr: 0x5FA80, symSize: 0x134 }
  - { offset: 0x9FE1B, size: 0x8, addend: 0x0, symName: __RNvYINtNtCs6IAuOt8vWmF_3syn10punctuated14PrivateIterMutNtNtB7_8generics14WherePredicateNtNtB7_5token5CommaENtNtNtNtCsfvfooZQ3Axs_4core4iter6traits12double_ended19DoubleEndedIterator8nth_backCs2nm8mGoL06A_14mockall_derive, symObjAddr: 0x92DC, symBinAddr: 0x5FBB4, symSize: 0x68 }
  - { offset: 0xA0F53, size: 0x8, addend: 0x0, symName: __RNvYINtNtCs6IAuOt8vWmF_3syn10punctuated10PunctuatedNtNtB7_8generics14TypeParamBoundNtNtB7_5token4PlusENtNtCsfvfooZQ3Axs_4core3cmp9PartialEq2neCs2nm8mGoL06A_14mockall_derive, symObjAddr: 0x701C, symBinAddr: 0x5D8F4, symSize: 0x30 }
  - { offset: 0xA353B, size: 0x8, addend: 0x0, symName: __RNvMNtCs6IAuOt8vWmF_3syn10punctuatedINtB2_10PunctuatedNtCs3cP53eQoTwO_11proc_macro25IdentNtNtB4_5token5CommaE10push_punctCs2nm8mGoL06A_14mockall_derive, symObjAddr: 0x3148, symBinAddr: 0x59A20, symSize: 0x1F0 }
  - { offset: 0xA35B8, size: 0x8, addend: 0x0, symName: __RNvMNtCs6IAuOt8vWmF_3syn10punctuatedINtB2_10PunctuatedNtCs3cP53eQoTwO_11proc_macro25IdentNtNtB4_5token5CommaE10push_valueCs2nm8mGoL06A_14mockall_derive, symObjAddr: 0x3338, symBinAddr: 0x59C10, symSize: 0x1A4 }
  - { offset: 0xA3626, size: 0x8, addend: 0x0, symName: __RNvMNtCs6IAuOt8vWmF_3syn10punctuatedINtB2_10PunctuatedNtCs3cP53eQoTwO_11proc_macro25IdentNtNtB4_5token5CommaE17empty_or_trailingCs2nm8mGoL06A_14mockall_derive, symObjAddr: 0x34DC, symBinAddr: 0x59DB4, symSize: 0x34 }
  - { offset: 0xA365A, size: 0x8, addend: 0x0, symName: __RNvMNtCs6IAuOt8vWmF_3syn10punctuatedINtB2_10PunctuatedNtCs3cP53eQoTwO_11proc_macro25IdentNtNtB4_5token5CommaE3newCs2nm8mGoL06A_14mockall_derive, symObjAddr: 0x3510, symBinAddr: 0x59DE8, symSize: 0x54 }
  - { offset: 0xA3680, size: 0x8, addend: 0x0, symName: __RNvMNtCs6IAuOt8vWmF_3syn10punctuatedINtB2_10PunctuatedNtCs3cP53eQoTwO_11proc_macro25IdentNtNtB4_5token5CommaE4pushCs2nm8mGoL06A_14mockall_derive, symObjAddr: 0x3564, symBinAddr: 0x59E3C, symSize: 0x108 }
  - { offset: 0xA36EA, size: 0x8, addend: 0x0, symName: __RNvMNtCs6IAuOt8vWmF_3syn10punctuatedINtB2_10PunctuatedNtCs3cP53eQoTwO_11proc_macro25IdentNtNtB4_5token5CommaE5pairsCs2nm8mGoL06A_14mockall_derive, symObjAddr: 0x366C, symBinAddr: 0x59F44, symSize: 0x74 }
  - { offset: 0xA3766, size: 0x8, addend: 0x0, symName: __RNvMNtCs6IAuOt8vWmF_3syn10punctuatedINtB2_10PunctuatedNtNtB4_2ty4TypeNtNtB4_5token5CommaE4iterCs2nm8mGoL06A_14mockall_derive, symObjAddr: 0x36E0, symBinAddr: 0x59FB8, symSize: 0xC8 }
  - { offset: 0xA3819, size: 0x8, addend: 0x0, symName: __RNvMNtCs6IAuOt8vWmF_3syn10punctuatedINtB2_10PunctuatedNtNtB4_2ty4TypeNtNtB4_5token5CommaE8iter_mutCs2nm8mGoL06A_14mockall_derive, symObjAddr: 0x37A8, symBinAddr: 0x5A080, symSize: 0xC8 }
  - { offset: 0xA38B2, size: 0x8, addend: 0x0, symName: __RNvMNtCs6IAuOt8vWmF_3syn10punctuatedINtB2_10PunctuatedNtNtB4_2ty9BareFnArgNtNtB4_5token5CommaE8iter_mutCs2nm8mGoL06A_14mockall_derive, symObjAddr: 0x3870, symBinAddr: 0x5A148, symSize: 0xC8 }
  - { offset: 0xA394B, size: 0x8, addend: 0x0, symName: __RNvMNtCs6IAuOt8vWmF_3syn10punctuatedINtB2_10PunctuatedNtNtB4_4item5FnArgNtNtB4_5token5CommaE8iter_mutCs2nm8mGoL06A_14mockall_derive, symObjAddr: 0x3938, symBinAddr: 0x5A210, symSize: 0xC8 }
  - { offset: 0xA39A9, size: 0x8, addend: 0x0, symName: __RNvMNtCs6IAuOt8vWmF_3syn10punctuatedINtB2_10PunctuatedNtNtB4_4path11PathSegmentNtNtB4_5token7PathSepE4pushCs2nm8mGoL06A_14mockall_derive, symObjAddr: 0x3A00, symBinAddr: 0x5A2D8, symSize: 0x10C }
  - { offset: 0xA39EC, size: 0x8, addend: 0x0, symName: __RNvMNtCs6IAuOt8vWmF_3syn10punctuatedINtB2_10PunctuatedNtNtB4_4path11PathSegmentNtNtB4_5token7PathSepE6insertCs2nm8mGoL06A_14mockall_derive, symObjAddr: 0x3B0C, symBinAddr: 0x5A3E4, symSize: 0x1E0 }
  - { offset: 0xA3A4D, size: 0x8, addend: 0x0, symName: __RNvMNtCs6IAuOt8vWmF_3syn10punctuatedINtB2_10PunctuatedNtNtB4_4path15GenericArgumentNtNtB4_5token5CommaE3lenCs2nm8mGoL06A_14mockall_derive, symObjAddr: 0x3CEC, symBinAddr: 0x5A5C4, symSize: 0xA0 }
  - { offset: 0xA3ABC, size: 0x8, addend: 0x0, symName: __RNvMNtCs6IAuOt8vWmF_3syn10punctuatedINtB2_10PunctuatedNtNtB4_4path15GenericArgumentNtNtB4_5token5CommaE4iterCs2nm8mGoL06A_14mockall_derive, symObjAddr: 0x3D8C, symBinAddr: 0x5A664, symSize: 0xC8 }
  - { offset: 0xA3B1A, size: 0x8, addend: 0x0, symName: __RNvMNtCs6IAuOt8vWmF_3syn10punctuatedINtB2_10PunctuatedNtNtB4_4path15GenericArgumentNtNtB4_5token5CommaE4pushCs2nm8mGoL06A_14mockall_derive, symObjAddr: 0x3E54, symBinAddr: 0x5A72C, symSize: 0x124 }
  - { offset: 0xA3B5D, size: 0x8, addend: 0x0, symName: __RNvMNtCs6IAuOt8vWmF_3syn10punctuatedINtB2_10PunctuatedNtNtB4_4path15GenericArgumentNtNtB4_5token5CommaE6insertCs2nm8mGoL06A_14mockall_derive, symObjAddr: 0x3F78, symBinAddr: 0x5A850, symSize: 0x1E4 }
  - { offset: 0xA3BEC, size: 0x8, addend: 0x0, symName: __RNvMNtCs6IAuOt8vWmF_3syn10punctuatedINtB2_10PunctuatedNtNtB4_4path15GenericArgumentNtNtB4_5token5CommaE8iter_mutCs2nm8mGoL06A_14mockall_derive, symObjAddr: 0x415C, symBinAddr: 0x5AA34, symSize: 0xC8 }
  - { offset: 0xA3C4A, size: 0x8, addend: 0x0, symName: __RNvMNtCs6IAuOt8vWmF_3syn10punctuatedINtB2_10PunctuatedNtNtB4_8generics12GenericParamNtNtB4_5token5CommaE3lenCs2nm8mGoL06A_14mockall_derive, symObjAddr: 0x4224, symBinAddr: 0x5AAFC, symSize: 0xA0 }
  - { offset: 0xA3C8B, size: 0x8, addend: 0x0, symName: __RNvMNtCs6IAuOt8vWmF_3syn10punctuatedINtB2_10PunctuatedNtNtB4_8generics12GenericParamNtNtB4_5token5CommaE4pushCs2nm8mGoL06A_14mockall_derive, symObjAddr: 0x42C4, symBinAddr: 0x5AB9C, symSize: 0x124 }
  - { offset: 0xA3D13, size: 0x8, addend: 0x0, symName: __RNvMNtCs6IAuOt8vWmF_3syn10punctuatedINtB2_10PunctuatedNtNtB4_8generics13LifetimeParamNtNtB4_5token5CommaE10push_punctCs2nm8mGoL06A_14mockall_derive, symObjAddr: 0x43E8, symBinAddr: 0x5ACC0, symSize: 0x200 }
  - { offset: 0xA3D91, size: 0x8, addend: 0x0, symName: __RNvMNtCs6IAuOt8vWmF_3syn10punctuatedINtB2_10PunctuatedNtNtB4_8generics13LifetimeParamNtNtB4_5token5CommaE10push_valueCs2nm8mGoL06A_14mockall_derive, symObjAddr: 0x45E8, symBinAddr: 0x5AEC0, symSize: 0x1B4 }
  - { offset: 0xA3DFF, size: 0x8, addend: 0x0, symName: __RNvMNtCs6IAuOt8vWmF_3syn10punctuatedINtB2_10PunctuatedNtNtB4_8generics13LifetimeParamNtNtB4_5token5CommaE17empty_or_trailingCs2nm8mGoL06A_14mockall_derive, symObjAddr: 0x479C, symBinAddr: 0x5B074, symSize: 0x34 }
  - { offset: 0xA3E33, size: 0x8, addend: 0x0, symName: __RNvMNtCs6IAuOt8vWmF_3syn10punctuatedINtB2_10PunctuatedNtNtB4_8generics13LifetimeParamNtNtB4_5token5CommaE3lenCs2nm8mGoL06A_14mockall_derive, symObjAddr: 0x47D0, symBinAddr: 0x5B0A8, symSize: 0xA0 }
  - { offset: 0xA3E67, size: 0x8, addend: 0x0, symName: __RNvMNtCs6IAuOt8vWmF_3syn10punctuatedINtB2_10PunctuatedNtNtB4_8generics13LifetimeParamNtNtB4_5token5CommaE3newCs2nm8mGoL06A_14mockall_derive, symObjAddr: 0x4870, symBinAddr: 0x5B148, symSize: 0x54 }
  - { offset: 0xA3EC8, size: 0x8, addend: 0x0, symName: __RNvMNtCs6IAuOt8vWmF_3syn10punctuatedINtB2_10PunctuatedNtNtB4_8generics13LifetimeParamNtNtB4_5token5CommaE4iterCs2nm8mGoL06A_14mockall_derive, symObjAddr: 0x48C4, symBinAddr: 0x5B19C, symSize: 0xC8 }
  - { offset: 0xA3F19, size: 0x8, addend: 0x0, symName: __RNvMNtCs6IAuOt8vWmF_3syn10punctuatedINtB2_10PunctuatedNtNtB4_8generics13LifetimeParamNtNtB4_5token5CommaE4pushCs2nm8mGoL06A_14mockall_derive, symObjAddr: 0x498C, symBinAddr: 0x5B264, symSize: 0x10C }
  - { offset: 0xA3F5C, size: 0x8, addend: 0x0, symName: __RNvMNtCs6IAuOt8vWmF_3syn10punctuatedINtB2_10PunctuatedNtNtB4_8generics13LifetimeParamNtNtB4_5token5CommaE8is_emptyCs2nm8mGoL06A_14mockall_derive, symObjAddr: 0x4A98, symBinAddr: 0x5B370, symSize: 0x74 }
  - { offset: 0xA3F9D, size: 0x8, addend: 0x0, symName: __RNvMNtCs6IAuOt8vWmF_3syn10punctuatedINtB2_10PunctuatedNtNtB4_8generics14TypeParamBoundNtNtB4_5token4PlusE4pushCs2nm8mGoL06A_14mockall_derive, symObjAddr: 0x4B0C, symBinAddr: 0x5B3E4, symSize: 0x11C }
  - { offset: 0xA401B, size: 0x8, addend: 0x0, symName: __RNvMNtCs6IAuOt8vWmF_3syn10punctuatedINtB2_10PunctuatedNtNtB4_8generics14TypeParamBoundNtNtB4_5token4PlusE8iter_mutCs2nm8mGoL06A_14mockall_derive, symObjAddr: 0x4C28, symBinAddr: 0x5B500, symSize: 0xC8 }
  - { offset: 0xA4086, size: 0x8, addend: 0x0, symName: __RNvMNtCs6IAuOt8vWmF_3syn10punctuatedINtB2_10PunctuatedNtNtB4_8generics14WherePredicateNtNtB4_5token5CommaE4iterCs2nm8mGoL06A_14mockall_derive, symObjAddr: 0x4CF0, symBinAddr: 0x5B5C8, symSize: 0xC8 }
  - { offset: 0xA40E4, size: 0x8, addend: 0x0, symName: __RNvMNtCs6IAuOt8vWmF_3syn10punctuatedINtB2_10PunctuatedNtNtB4_8generics14WherePredicateNtNtB4_5token5CommaE4pushCs2nm8mGoL06A_14mockall_derive, symObjAddr: 0x4DB8, symBinAddr: 0x5B690, symSize: 0x124 }
  - { offset: 0xA4162, size: 0x8, addend: 0x0, symName: __RNvMNtCs6IAuOt8vWmF_3syn10punctuatedINtB2_10PunctuatedNtNtB4_8generics14WherePredicateNtNtB4_5token5CommaE8iter_mutCs2nm8mGoL06A_14mockall_derive, symObjAddr: 0x4EDC, symBinAddr: 0x5B7B4, symSize: 0xC8 }
  - { offset: 0xA41C2, size: 0x8, addend: 0x0, symName: __RNvXNtCs2cqEZUIJimJ_5quote9to_tokensRINtNtCs6IAuOt8vWmF_3syn10punctuated10PunctuatedNtNtBE_4path11PathSegmentNtNtBE_5token7PathSepENtB2_8ToTokens9to_tokensCs2nm8mGoL06A_14mockall_derive, symObjAddr: 0x4FA4, symBinAddr: 0x5B87C, symSize: 0x40 }
  - { offset: 0xA4201, size: 0x8, addend: 0x0, symName: __RNvXNtCs2cqEZUIJimJ_5quote9to_tokensRINtNtCs6IAuOt8vWmF_3syn10punctuated10PunctuatedNtNtBE_8generics14TypeParamBoundNtNtBE_5token4PlusENtB2_8ToTokens9to_tokensCs2nm8mGoL06A_14mockall_derive, symObjAddr: 0x4FE4, symBinAddr: 0x5B8BC, symSize: 0x40 }
  - { offset: 0xA4240, size: 0x8, addend: 0x0, symName: __RNvXNtCs2cqEZUIJimJ_5quote9to_tokensRINtNtCs6IAuOt8vWmF_3syn10punctuated10PunctuatedNtNtBE_8lifetime8LifetimeNtNtBE_5token4PlusENtB2_8ToTokens9to_tokensCs2nm8mGoL06A_14mockall_derive, symObjAddr: 0x5024, symBinAddr: 0x5B8FC, symSize: 0x40 }
  - { offset: 0xA4285, size: 0x8, addend: 0x0, symName: __RNvYRINtNtCs6IAuOt8vWmF_3syn10punctuated10PunctuatedNtNtB8_4path11PathSegmentNtNtB8_5token7PathSepENtNtCs2cqEZUIJimJ_5quote9to_tokens8ToTokens15to_token_streamCs2nm8mGoL06A_14mockall_derive, symObjAddr: 0x9570, symBinAddr: 0x5FE48, symSize: 0x8C }
  - { offset: 0xA42CF, size: 0x8, addend: 0x0, symName: __RNvYRINtNtCs6IAuOt8vWmF_3syn10punctuated10PunctuatedNtNtB8_4path11PathSegmentNtNtB8_5token7PathSepENtNtCs2cqEZUIJimJ_5quote9to_tokens8ToTokens17into_token_streamCs2nm8mGoL06A_14mockall_derive, symObjAddr: 0x95FC, symBinAddr: 0x5FED4, symSize: 0x54 }
  - { offset: 0xA4304, size: 0x8, addend: 0x0, symName: __RNvYRINtNtCs6IAuOt8vWmF_3syn10punctuated10PunctuatedNtNtB8_8generics14TypeParamBoundNtNtB8_5token4PlusENtNtCs2cqEZUIJimJ_5quote9to_tokens8ToTokens15to_token_streamCs2nm8mGoL06A_14mockall_derive, symObjAddr: 0x9650, symBinAddr: 0x5FF28, symSize: 0x8C }
  - { offset: 0xA434E, size: 0x8, addend: 0x0, symName: __RNvYRINtNtCs6IAuOt8vWmF_3syn10punctuated10PunctuatedNtNtB8_8generics14TypeParamBoundNtNtB8_5token4PlusENtNtCs2cqEZUIJimJ_5quote9to_tokens8ToTokens17into_token_streamCs2nm8mGoL06A_14mockall_derive, symObjAddr: 0x96DC, symBinAddr: 0x5FFB4, symSize: 0x54 }
  - { offset: 0xA4383, size: 0x8, addend: 0x0, symName: __RNvYRINtNtCs6IAuOt8vWmF_3syn10punctuated10PunctuatedNtNtB8_8lifetime8LifetimeNtNtB8_5token4PlusENtNtCs2cqEZUIJimJ_5quote9to_tokens8ToTokens15to_token_streamCs2nm8mGoL06A_14mockall_derive, symObjAddr: 0x9730, symBinAddr: 0x60008, symSize: 0x8C }
  - { offset: 0xA43CD, size: 0x8, addend: 0x0, symName: __RNvYRINtNtCs6IAuOt8vWmF_3syn10punctuated10PunctuatedNtNtB8_8lifetime8LifetimeNtNtB8_5token4PlusENtNtCs2cqEZUIJimJ_5quote9to_tokens8ToTokens17into_token_streamCs2nm8mGoL06A_14mockall_derive, symObjAddr: 0x97BC, symBinAddr: 0x60094, symSize: 0x54 }
  - { offset: 0xA440E, size: 0x8, addend: 0x0, symName: __RNvXs0_NtCs2cqEZUIJimJ_5quote7spannedINtNtCs6IAuOt8vWmF_3syn10punctuated10PunctuatedNtNtBE_4path11PathSegmentNtNtBE_5token7PathSepENtB5_7Spanned6___spanCs2nm8mGoL06A_14mockall_derive, symObjAddr: 0x5384, symBinAddr: 0x5BC5C, symSize: 0x44 }
  - { offset: 0xA4443, size: 0x8, addend: 0x0, symName: __RNvXs0_NtCs2cqEZUIJimJ_5quote7spannedINtNtCs6IAuOt8vWmF_3syn10punctuated10PunctuatedNtNtBE_8generics14TypeParamBoundNtNtBE_5token4PlusENtB5_7Spanned6___spanCs2nm8mGoL06A_14mockall_derive, symObjAddr: 0x53C8, symBinAddr: 0x5BCA0, symSize: 0x44 }
  - { offset: 0xA4478, size: 0x8, addend: 0x0, symName: __RNvXs0_NtCs2cqEZUIJimJ_5quote7spannedINtNtCs6IAuOt8vWmF_3syn10punctuated10PunctuatedNtNtBE_8lifetime8LifetimeNtNtBE_5token4PlusENtB5_7Spanned6___spanCs2nm8mGoL06A_14mockall_derive, symObjAddr: 0x540C, symBinAddr: 0x5BCE4, symSize: 0x44 }
  - { offset: 0xA5C18, size: 0x8, addend: 0x0, symName: __RINvCs6IAuOt8vWmF_3syn6parse2INtNtCse1nGBsou5OW_5alloc5boxed3BoxNtNtB2_2ty4TypeEECs2nm8mGoL06A_14mockall_derive, symObjAddr: 0x0, symBinAddr: 0x600E8, symSize: 0x24 }
  - { offset: 0xA5F8A, size: 0x8, addend: 0x0, symName: __RINvNvNtNtCs9i5KxIbZ5ph_10proc_macro6bridge14selfless_reify31reify_to_extern_c_fn_hrt_bridge7wrapperNtNtB6_6buffer6BufferNCINvMs7_NtB6_6clientINtB24_6ClientNtB8_11TokenStreamB2u_E7expand1NvCs2nm8mGoL06A_14mockall_derive4mockE0EB31_, symObjAddr: 0xA30, symBinAddr: 0x608B4, symSize: 0x5C }
  - { offset: 0xA5FE6, size: 0x8, addend: 0x0, symName: __RINvNvNtNtCs9i5KxIbZ5ph_10proc_macro6bridge14selfless_reify31reify_to_extern_c_fn_hrt_bridge7wrapperNtNtB6_6buffer6BufferNCINvMs8_NtB6_6clientINtB24_6ClientTNtB8_11TokenStreamB2v_EB2v_E7expand2NvCs2nm8mGoL06A_14mockall_derive10concretizeE0EB37_, symObjAddr: 0xA8C, symBinAddr: 0x60910, symSize: 0x5C }
  - { offset: 0xA6042, size: 0x8, addend: 0x0, symName: __RINvNvNtNtCs9i5KxIbZ5ph_10proc_macro6bridge14selfless_reify31reify_to_extern_c_fn_hrt_bridge7wrapperNtNtB6_6buffer6BufferNCINvMs8_NtB6_6clientINtB24_6ClientTNtB8_11TokenStreamB2v_EB2v_E7expand2NvCs2nm8mGoL06A_14mockall_derive8automockE0EB37_, symObjAddr: 0xAE8, symBinAddr: 0x6096C, symSize: 0x5C }
  - { offset: 0xAA9BA, size: 0x8, addend: 0x0, symName: __RINvNtNtNtCsfvfooZQ3Axs_4core9core_arch10arm_shared4neon13vget_lane_u64Kl0_ECs2nm8mGoL06A_14mockall_derive, symObjAddr: 0xA18, symBinAddr: 0x6089C, symSize: 0x18 }
  - { offset: 0xAAA34, size: 0x8, addend: 0x0, symName: __RNvNtNtNtCsfvfooZQ3Axs_4core9core_arch10arm_shared4neon9vdup_n_u8Cs2nm8mGoL06A_14mockall_derive, symObjAddr: 0x49E0, symBinAddr: 0x64854, symSize: 0x34 }
  - { offset: 0xAAAB7, size: 0x8, addend: 0x0, symName: __RNvNtNtNtCsfvfooZQ3Axs_4core9core_arch7aarch644neon7vld1_u8Cs2nm8mGoL06A_14mockall_derive, symObjAddr: 0x4A14, symBinAddr: 0x64888, symSize: 0x2C }
  - { offset: 0xAAAE5, size: 0x8, addend: 0x0, symName: __RNvNtNtNtCsfvfooZQ3Axs_4core9core_arch7aarch644neon7vst1_u8Cs2nm8mGoL06A_14mockall_derive, symObjAddr: 0x4A40, symBinAddr: 0x648B4, symSize: 0x38 }
  - { offset: 0xAAD81, size: 0x8, addend: 0x0, symName: __RNvXs_NtNtCsfvfooZQ3Axs_4core5slice4iterRSNtNtCs6IAuOt8vWmF_3syn4item5FnArgNtNtNtNtB8_4iter6traits7collect12IntoIterator9into_iterCs2nm8mGoL06A_14mockall_derive, symObjAddr: 0x5A68, symBinAddr: 0x658DC, symSize: 0x58 }
  - { offset: 0xAB57C, size: 0x8, addend: 0x0, symName: __RNvMNtCsfvfooZQ3Axs_4core5sliceSNtNtCs2nm8mGoL06A_14mockall_derive9mock_item15MockItemContent4iterBy_, symObjAddr: 0x4118, symBinAddr: 0x63F8C, symSize: 0x28 }
  - { offset: 0xAB5B3, size: 0x8, addend: 0x0, symName: __RNvMNtCsfvfooZQ3Axs_4core5sliceSNtNtCs6IAuOt8vWmF_3syn3pat3Pat4iterCs2nm8mGoL06A_14mockall_derive, symObjAddr: 0x4140, symBinAddr: 0x63FB4, symSize: 0x28 }
  - { offset: 0xAB5EA, size: 0x8, addend: 0x0, symName: __RNvMNtCsfvfooZQ3Axs_4core5sliceSNtNtCs6IAuOt8vWmF_3syn4item10ImplItemFn4iterCs2nm8mGoL06A_14mockall_derive, symObjAddr: 0x4168, symBinAddr: 0x63FDC, symSize: 0x28 }
  - { offset: 0xAB621, size: 0x8, addend: 0x0, symName: __RNvMNtCsfvfooZQ3Axs_4core5sliceSNtNtCs6IAuOt8vWmF_3syn4item12ImplItemType4iterCs2nm8mGoL06A_14mockall_derive, symObjAddr: 0x4190, symBinAddr: 0x64004, symSize: 0x28 }
  - { offset: 0xAB658, size: 0x8, addend: 0x0, symName: __RNvMNtCsfvfooZQ3Axs_4core5sliceSNtNtCs6IAuOt8vWmF_3syn4item13ImplItemConst4iterCs2nm8mGoL06A_14mockall_derive, symObjAddr: 0x41B8, symBinAddr: 0x6402C, symSize: 0x28 }
  - { offset: 0xAB68F, size: 0x8, addend: 0x0, symName: __RNvMNtCsfvfooZQ3Axs_4core5sliceSNtNtCs6IAuOt8vWmF_3syn4item5FnArg4iterCs2nm8mGoL06A_14mockall_derive, symObjAddr: 0x41E0, symBinAddr: 0x64054, symSize: 0x28 }
  - { offset: 0xAB6C6, size: 0x8, addend: 0x0, symName: __RNvMNtCsfvfooZQ3Axs_4core5sliceSNtNtCs6IAuOt8vWmF_3syn4item8ImplItem4iterCs2nm8mGoL06A_14mockall_derive, symObjAddr: 0x4208, symBinAddr: 0x6407C, symSize: 0x28 }
  - { offset: 0xAB6FD, size: 0x8, addend: 0x0, symName: __RNvMNtCsfvfooZQ3Axs_4core5sliceSNtNtCs6IAuOt8vWmF_3syn4item8ImplItem8iter_mutCs2nm8mGoL06A_14mockall_derive, symObjAddr: 0x4230, symBinAddr: 0x640A4, symSize: 0x28 }
  - { offset: 0xAB734, size: 0x8, addend: 0x0, symName: __RNvMNtCsfvfooZQ3Axs_4core5sliceSNtNtCs6IAuOt8vWmF_3syn4item8ItemImpl4iterCs2nm8mGoL06A_14mockall_derive, symObjAddr: 0x4258, symBinAddr: 0x640CC, symSize: 0x28 }
  - { offset: 0xAB76B, size: 0x8, addend: 0x0, symName: __RNvMNtCsfvfooZQ3Axs_4core5sliceSNtNtCs6IAuOt8vWmF_3syn4item9TraitItem8iter_mutCs2nm8mGoL06A_14mockall_derive, symObjAddr: 0x4280, symBinAddr: 0x640F4, symSize: 0x28 }
  - { offset: 0xAB7A2, size: 0x8, addend: 0x0, symName: __RNvMNtCsfvfooZQ3Axs_4core5sliceSTNtNtCs6IAuOt8vWmF_3syn4item5FnArgNtNtBz_5token5CommaE8iter_mutCs2nm8mGoL06A_14mockall_derive, symObjAddr: 0x42A8, symBinAddr: 0x6411C, symSize: 0x28 }
  - { offset: 0xAB979, size: 0x8, addend: 0x0, symName: __RINvXsl_NtNtCsfvfooZQ3Axs_4core4hash5implsTNtNtCs6IAuOt8vWmF_3syn3pat3PatNtNtBJ_5token2OrENtB8_4Hash4hashNtNtNtCscOYdFFY2T5N_3std4hash6random13DefaultHasherECs2nm8mGoL06A_14mockall_derive, symObjAddr: 0x3754, symBinAddr: 0x635C8, symSize: 0x4C }
  - { offset: 0xAB9FB, size: 0x8, addend: 0x0, symName: __RINvXsl_NtNtCsfvfooZQ3Axs_4core4hash5implsTNtNtCs6IAuOt8vWmF_3syn3pat3PatNtNtBJ_5token5CommaENtB8_4Hash4hashNtNtNtCscOYdFFY2T5N_3std4hash6random13DefaultHasherECs2nm8mGoL06A_14mockall_derive, symObjAddr: 0x37A0, symBinAddr: 0x63614, symSize: 0x4C }
  - { offset: 0xABA7D, size: 0x8, addend: 0x0, symName: __RINvXsl_NtNtCsfvfooZQ3Axs_4core4hash5implsTNtNtCs6IAuOt8vWmF_3syn3pat8FieldPatNtNtBJ_5token5CommaENtB8_4Hash4hashNtNtNtCscOYdFFY2T5N_3std4hash6random13DefaultHasherECs2nm8mGoL06A_14mockall_derive, symObjAddr: 0x37EC, symBinAddr: 0x63660, symSize: 0x4C }
  - { offset: 0xABAFF, size: 0x8, addend: 0x0, symName: __RINvXsl_NtNtCsfvfooZQ3Axs_4core4hash5implsTNtNtCs6IAuOt8vWmF_3syn4item5FnArgNtNtBJ_5token5CommaENtB8_4Hash4hashNtNtNtCscOYdFFY2T5N_3std4hash6random13DefaultHasherECs2nm8mGoL06A_14mockall_derive, symObjAddr: 0x3838, symBinAddr: 0x636AC, symSize: 0x4C }
  - { offset: 0xABB81, size: 0x8, addend: 0x0, symName: __RINvXsl_NtNtCsfvfooZQ3Axs_4core4hash5implsTNtNtCs6IAuOt8vWmF_3syn4item7UseTreeNtNtBJ_5token5CommaENtB8_4Hash4hashNtNtNtCscOYdFFY2T5N_3std4hash6random13DefaultHasherECs2nm8mGoL06A_14mockall_derive, symObjAddr: 0x3884, symBinAddr: 0x636F8, symSize: 0x4C }
  - { offset: 0xABC0A, size: 0x8, addend: 0x0, symName: __RINvYNtNtCs6IAuOt8vWmF_3syn4attr9AttributeNtNtCsfvfooZQ3Axs_4core4hash4Hash10hash_sliceNtNtNtCscOYdFFY2T5N_3std4hash6random13DefaultHasherECs2nm8mGoL06A_14mockall_derive, symObjAddr: 0x38D0, symBinAddr: 0x63744, symSize: 0xA4 }
  - { offset: 0xABDB8, size: 0x8, addend: 0x0, symName: __RINvYNtNtCs6IAuOt8vWmF_3syn4item11ForeignItemNtNtCsfvfooZQ3Axs_4core4hash4Hash10hash_sliceNtNtNtCscOYdFFY2T5N_3std4hash6random13DefaultHasherECs2nm8mGoL06A_14mockall_derive, symObjAddr: 0x3974, symBinAddr: 0x637E8, symSize: 0xAC }
  - { offset: 0xABF66, size: 0x8, addend: 0x0, symName: __RINvYNtNtCs6IAuOt8vWmF_3syn4item4ItemNtNtCsfvfooZQ3Axs_4core4hash4Hash10hash_sliceNtNtNtCscOYdFFY2T5N_3std4hash6random13DefaultHasherECs2nm8mGoL06A_14mockall_derive, symObjAddr: 0x3A20, symBinAddr: 0x63894, symSize: 0xAC }
  - { offset: 0xAC114, size: 0x8, addend: 0x0, symName: __RINvYNtNtCs6IAuOt8vWmF_3syn4item8ImplItemNtNtCsfvfooZQ3Axs_4core4hash4Hash10hash_sliceNtNtNtCscOYdFFY2T5N_3std4hash6random13DefaultHasherECs2nm8mGoL06A_14mockall_derive, symObjAddr: 0x3ACC, symBinAddr: 0x63940, symSize: 0xAC }
  - { offset: 0xAC2C2, size: 0x8, addend: 0x0, symName: __RINvYNtNtCs6IAuOt8vWmF_3syn4item9TraitItemNtNtCsfvfooZQ3Axs_4core4hash4Hash10hash_sliceNtNtNtCscOYdFFY2T5N_3std4hash6random13DefaultHasherECs2nm8mGoL06A_14mockall_derive, symObjAddr: 0x3B78, symBinAddr: 0x639EC, symSize: 0xAC }
  - { offset: 0xAC470, size: 0x8, addend: 0x0, symName: __RINvYTNtNtCs6IAuOt8vWmF_3syn3pat3PatNtNtB8_5token2OrENtNtCsfvfooZQ3Axs_4core4hash4Hash10hash_sliceNtNtNtCscOYdFFY2T5N_3std4hash6random13DefaultHasherECs2nm8mGoL06A_14mockall_derive, symObjAddr: 0x3D2C, symBinAddr: 0x63BA0, symSize: 0xAC }
  - { offset: 0xAC61E, size: 0x8, addend: 0x0, symName: __RINvYTNtNtCs6IAuOt8vWmF_3syn3pat3PatNtNtB8_5token5CommaENtNtCsfvfooZQ3Axs_4core4hash4Hash10hash_sliceNtNtNtCscOYdFFY2T5N_3std4hash6random13DefaultHasherECs2nm8mGoL06A_14mockall_derive, symObjAddr: 0x3DD8, symBinAddr: 0x63C4C, symSize: 0xAC }
  - { offset: 0xAC7CC, size: 0x8, addend: 0x0, symName: __RINvYTNtNtCs6IAuOt8vWmF_3syn3pat8FieldPatNtNtB8_5token5CommaENtNtCsfvfooZQ3Axs_4core4hash4Hash10hash_sliceNtNtNtCscOYdFFY2T5N_3std4hash6random13DefaultHasherECs2nm8mGoL06A_14mockall_derive, symObjAddr: 0x3E84, symBinAddr: 0x63CF8, symSize: 0xAC }
  - { offset: 0xAC97A, size: 0x8, addend: 0x0, symName: __RINvYTNtNtCs6IAuOt8vWmF_3syn4item5FnArgNtNtB8_5token5CommaENtNtCsfvfooZQ3Axs_4core4hash4Hash10hash_sliceNtNtNtCscOYdFFY2T5N_3std4hash6random13DefaultHasherECs2nm8mGoL06A_14mockall_derive, symObjAddr: 0x3F30, symBinAddr: 0x63DA4, symSize: 0xAC }
  - { offset: 0xACB28, size: 0x8, addend: 0x0, symName: __RINvYTNtNtCs6IAuOt8vWmF_3syn4item7UseTreeNtNtB8_5token5CommaENtNtCsfvfooZQ3Axs_4core4hash4Hash10hash_sliceNtNtNtCscOYdFFY2T5N_3std4hash6random13DefaultHasherECs2nm8mGoL06A_14mockall_derive, symObjAddr: 0x3FDC, symBinAddr: 0x63E50, symSize: 0xAC }
  - { offset: 0xACCDC, size: 0x8, addend: 0x0, symName: __RINvYNtNtNtCscOYdFFY2T5N_3std4hash6random11RandomStateNtNtCsfvfooZQ3Axs_4core4hash11BuildHasher8hash_oneRNtCs3cP53eQoTwO_11proc_macro25IdentECs2nm8mGoL06A_14mockall_derive, symObjAddr: 0x3C24, symBinAddr: 0x63A98, symSize: 0x84 }
  - { offset: 0xACD41, size: 0x8, addend: 0x0, symName: __RINvYNtNtNtCscOYdFFY2T5N_3std4hash6random11RandomStateNtNtCsfvfooZQ3Axs_4core4hash11BuildHasher8hash_oneRTNtNtCs6IAuOt8vWmF_3syn4path4PathINtNtCse1nGBsou5OW_5alloc3vec3VecNtNtB1K_4attr9AttributeEEECs2nm8mGoL06A_14mockall_derive, symObjAddr: 0x3CA8, symBinAddr: 0x63B1C, symSize: 0x84 }
  - { offset: 0xACF13, size: 0x8, addend: 0x0, symName: __RNvYNtNtNtCscOYdFFY2T5N_3std4hash6random13DefaultHasherNtNtCsfvfooZQ3Axs_4core4hash6Hasher11write_isizeCs2nm8mGoL06A_14mockall_derive, symObjAddr: 0x6060, symBinAddr: 0x65ED4, symSize: 0x28 }
  - { offset: 0xACF55, size: 0x8, addend: 0x0, symName: __RNvYNtNtNtCscOYdFFY2T5N_3std4hash6random13DefaultHasherNtNtCsfvfooZQ3Axs_4core4hash6Hasher11write_usizeCs2nm8mGoL06A_14mockall_derive, symObjAddr: 0x6088, symBinAddr: 0x65EFC, symSize: 0x3C }
  - { offset: 0xACFB5, size: 0x8, addend: 0x0, symName: __RNvYNtNtNtCscOYdFFY2T5N_3std4hash6random13DefaultHasherNtNtCsfvfooZQ3Axs_4core4hash6Hasher19write_length_prefixCs2nm8mGoL06A_14mockall_derive, symObjAddr: 0x60C4, symBinAddr: 0x65F38, symSize: 0x28 }
  - { offset: 0xACFF7, size: 0x8, addend: 0x0, symName: __RNvYNtNtNtCscOYdFFY2T5N_3std4hash6random13DefaultHasherNtNtCsfvfooZQ3Axs_4core4hash6Hasher8write_u8Cs2nm8mGoL06A_14mockall_derive, symObjAddr: 0x60EC, symBinAddr: 0x65F60, symSize: 0x3C }
  - { offset: 0xAD039, size: 0x8, addend: 0x0, symName: __RNvYNtNtNtCscOYdFFY2T5N_3std4hash6random13DefaultHasherNtNtCsfvfooZQ3Axs_4core4hash6Hasher9write_u32Cs2nm8mGoL06A_14mockall_derive, symObjAddr: 0x6128, symBinAddr: 0x65F9C, symSize: 0x3C }
  - { offset: 0xAD0D2, size: 0x8, addend: 0x0, symName: __RNvXs1_NtCsfvfooZQ3Axs_4core7convertTNtNtCs2nm8mGoL06A_14mockall_derive8automock5AttrsNtNtCs6IAuOt8vWmF_3syn4item4ItemEINtB5_4IntoNtNtBD_13mockable_item12MockableItemE4intoBD_, symObjAddr: 0x579C, symBinAddr: 0x65610, symSize: 0x14 }
  - { offset: 0xAD12C, size: 0x8, addend: 0x0, symName: __RINvCs6IAuOt8vWmF_3syn6parse2INtNtCse1nGBsou5OW_5alloc5boxed3BoxNtNtB2_2ty4TypeEECs2nm8mGoL06A_14mockall_derive, symObjAddr: 0x0, symBinAddr: 0x600E8, symSize: 0x24 }
  - { offset: 0xAD164, size: 0x8, addend: 0x0, symName: __RINvCs6IAuOt8vWmF_3syn6parse2NtCs3cP53eQoTwO_11proc_macro25IdentECs2nm8mGoL06A_14mockall_derive, symObjAddr: 0x24, symBinAddr: 0x6010C, symSize: 0x24 }
  - { offset: 0xAD19C, size: 0x8, addend: 0x0, symName: __RINvCs6IAuOt8vWmF_3syn6parse2NtNtB2_2ty4TypeECs2nm8mGoL06A_14mockall_derive, symObjAddr: 0x48, symBinAddr: 0x60130, symSize: 0x24 }
  - { offset: 0xAD1D4, size: 0x8, addend: 0x0, symName: __RINvCs6IAuOt8vWmF_3syn6parse2NtNtB2_2ty8TypePathECs2nm8mGoL06A_14mockall_derive, symObjAddr: 0x6C, symBinAddr: 0x60154, symSize: 0x24 }
  - { offset: 0xAD20C, size: 0x8, addend: 0x0, symName: __RINvCs6IAuOt8vWmF_3syn6parse2NtNtB2_4attr8MetaListECs2nm8mGoL06A_14mockall_derive, symObjAddr: 0x90, symBinAddr: 0x60178, symSize: 0x24 }
  - { offset: 0xAD244, size: 0x8, addend: 0x0, symName: __RINvCs6IAuOt8vWmF_3syn6parse2NtNtB2_4item11TraitItemFnECs2nm8mGoL06A_14mockall_derive, symObjAddr: 0xB4, symBinAddr: 0x6019C, symSize: 0x24 }
  - { offset: 0xAD27C, size: 0x8, addend: 0x0, symName: __RINvCs6IAuOt8vWmF_3syn6parse2NtNtB2_4item4ItemECs2nm8mGoL06A_14mockall_derive, symObjAddr: 0xD8, symBinAddr: 0x601C0, symSize: 0x24 }
  - { offset: 0xAD2B4, size: 0x8, addend: 0x0, symName: __RINvCs6IAuOt8vWmF_3syn6parse2NtNtB2_4path30AngleBracketedGenericArgumentsECs2nm8mGoL06A_14mockall_derive, symObjAddr: 0xFC, symBinAddr: 0x601E4, symSize: 0x24 }
  - { offset: 0xAD2EC, size: 0x8, addend: 0x0, symName: __RINvCs6IAuOt8vWmF_3syn6parse2NtNtCs2nm8mGoL06A_14mockall_derive15mockable_struct12TraitItemVFnEBv_, symObjAddr: 0x120, symBinAddr: 0x60208, symSize: 0x24 }
  - { offset: 0xAD324, size: 0x8, addend: 0x0, symName: __RINvCs6IAuOt8vWmF_3syn6parse2NtNtCs2nm8mGoL06A_14mockall_derive15mockable_struct14MockableStructEBv_, symObjAddr: 0x144, symBinAddr: 0x6022C, symSize: 0x24 }
  - { offset: 0xAD35C, size: 0x8, addend: 0x0, symName: __RINvCs6IAuOt8vWmF_3syn6parse2NtNtCs2nm8mGoL06A_14mockall_derive8automock5AttrsEBv_, symObjAddr: 0x168, symBinAddr: 0x60250, symSize: 0x24 }
  - { offset: 0xB21D8, size: 0x8, addend: 0x0, symName: __RINvXs14_NtNtCs6IAuOt8vWmF_3syn3gen4hashNtNtBb_4item5FnArgNtNtCsfvfooZQ3Axs_4core4hash4Hash4hashNtNtNtCscOYdFFY2T5N_3std4hash6random13DefaultHasherECs2nm8mGoL06A_14mockall_derive, symObjAddr: 0xEC0, symBinAddr: 0x60D44, symSize: 0xBC }
  - { offset: 0xB2254, size: 0x8, addend: 0x0, symName: __RINvXs15_NtNtCs6IAuOt8vWmF_3syn3gen4hashNtNtBb_4item11ForeignItemNtNtCsfvfooZQ3Axs_4core4hash4Hash4hashNtNtNtCscOYdFFY2T5N_3std4hash6random13DefaultHasherECs2nm8mGoL06A_14mockall_derive, symObjAddr: 0xF7C, symBinAddr: 0x60E00, symSize: 0x1BC }
  - { offset: 0xB232A, size: 0x8, addend: 0x0, symName: __RINvXs16_NtNtCs6IAuOt8vWmF_3syn3gen4hashNtNtBb_4item13ForeignItemFnNtNtCsfvfooZQ3Axs_4core4hash4Hash4hashNtNtNtCscOYdFFY2T5N_3std4hash6random13DefaultHasherECs2nm8mGoL06A_14mockall_derive, symObjAddr: 0x1138, symBinAddr: 0x60FBC, symSize: 0x60 }
  - { offset: 0xB2372, size: 0x8, addend: 0x0, symName: __RINvXs17_NtNtCs6IAuOt8vWmF_3syn3gen4hashNtNtBb_4item16ForeignItemMacroNtNtCsfvfooZQ3Axs_4core4hash4Hash4hashNtNtNtCscOYdFFY2T5N_3std4hash6random13DefaultHasherECs2nm8mGoL06A_14mockall_derive, symObjAddr: 0x1198, symBinAddr: 0x6101C, symSize: 0x60 }
  - { offset: 0xB23BA, size: 0x8, addend: 0x0, symName: __RINvXs18_NtNtCs6IAuOt8vWmF_3syn3gen4hashNtNtBb_4item17ForeignItemStaticNtNtCsfvfooZQ3Axs_4core4hash4Hash4hashNtNtNtCscOYdFFY2T5N_3std4hash6random13DefaultHasherECs2nm8mGoL06A_14mockall_derive, symObjAddr: 0x11F8, symBinAddr: 0x6107C, symSize: 0x80 }
  - { offset: 0xB2402, size: 0x8, addend: 0x0, symName: __RINvXs19_NtNtCs6IAuOt8vWmF_3syn3gen4hashNtNtBb_4item15ForeignItemTypeNtNtCsfvfooZQ3Axs_4core4hash4Hash4hashNtNtNtCscOYdFFY2T5N_3std4hash6random13DefaultHasherECs2nm8mGoL06A_14mockall_derive, symObjAddr: 0x1278, symBinAddr: 0x610FC, symSize: 0x70 }
  - { offset: 0xB244A, size: 0x8, addend: 0x0, symName: __RINvXs1H_NtNtCs6IAuOt8vWmF_3syn3gen4hashNtNtBb_4attr4MetaNtNtCsfvfooZQ3Axs_4core4hash4Hash4hashNtNtNtCscOYdFFY2T5N_3std4hash6random13DefaultHasherECs2nm8mGoL06A_14mockall_derive, symObjAddr: 0x12E8, symBinAddr: 0x6116C, symSize: 0x114 }
  - { offset: 0xB24E4, size: 0x8, addend: 0x0, symName: __RINvXs1I_NtNtCs6IAuOt8vWmF_3syn3gen4hashNtNtBb_4attr8MetaListNtNtCsfvfooZQ3Axs_4core4hash4Hash4hashNtNtNtCscOYdFFY2T5N_3std4hash6random13DefaultHasherECs2nm8mGoL06A_14mockall_derive, symObjAddr: 0x13FC, symBinAddr: 0x61280, symSize: 0x68 }
  - { offset: 0xB252C, size: 0x8, addend: 0x0, symName: __RINvXs1J_NtNtCs6IAuOt8vWmF_3syn3gen4hashNtNtBb_4attr13MetaNameValueNtNtCsfvfooZQ3Axs_4core4hash4Hash4hashNtNtNtCscOYdFFY2T5N_3std4hash6random13DefaultHasherECs2nm8mGoL06A_14mockall_derive, symObjAddr: 0x1464, symBinAddr: 0x612E8, symSize: 0x50 }
  - { offset: 0xB2574, size: 0x8, addend: 0x0, symName: __RINvXs1L_NtNtCs6IAuOt8vWmF_3syn3gen4hashNtNtBb_3pat3PatNtNtCsfvfooZQ3Axs_4core4hash4Hash4hashNtNtNtCscOYdFFY2T5N_3std4hash6random13DefaultHasherECs2nm8mGoL06A_14mockall_derive, symObjAddr: 0x14B4, symBinAddr: 0x61338, symSize: 0x4AC }
  - { offset: 0xB27BF, size: 0x8, addend: 0x0, symName: __RINvXs1M_NtNtCs6IAuOt8vWmF_3syn3gen4hashNtNtBb_3pat8PatIdentNtNtCsfvfooZQ3Axs_4core4hash4Hash4hashNtNtNtCscOYdFFY2T5N_3std4hash6random13DefaultHasherECs2nm8mGoL06A_14mockall_derive, symObjAddr: 0x1960, symBinAddr: 0x617E4, symSize: 0x80 }
  - { offset: 0xB2807, size: 0x8, addend: 0x0, symName: __RINvXs1N_NtNtCs6IAuOt8vWmF_3syn3gen4hashNtNtBb_3pat5PatOrNtNtCsfvfooZQ3Axs_4core4hash4Hash4hashNtNtNtCscOYdFFY2T5N_3std4hash6random13DefaultHasherECs2nm8mGoL06A_14mockall_derive, symObjAddr: 0x19E0, symBinAddr: 0x61864, symSize: 0x60 }
  - { offset: 0xB284F, size: 0x8, addend: 0x0, symName: __RINvXs1O_NtNtCs6IAuOt8vWmF_3syn3gen4hashNtNtBb_3pat8PatParenNtNtCsfvfooZQ3Axs_4core4hash4Hash4hashNtNtNtCscOYdFFY2T5N_3std4hash6random13DefaultHasherECs2nm8mGoL06A_14mockall_derive, symObjAddr: 0x1A40, symBinAddr: 0x618C4, symSize: 0x50 }
  - { offset: 0xB2897, size: 0x8, addend: 0x0, symName: __RINvXs1P_NtNtCs6IAuOt8vWmF_3syn3gen4hashNtNtBb_3pat12PatReferenceNtNtCsfvfooZQ3Axs_4core4hash4Hash4hashNtNtNtCscOYdFFY2T5N_3std4hash6random13DefaultHasherECs2nm8mGoL06A_14mockall_derive, symObjAddr: 0x1A90, symBinAddr: 0x61914, symSize: 0x60 }
  - { offset: 0xB28DF, size: 0x8, addend: 0x0, symName: __RINvXs1Q_NtNtCs6IAuOt8vWmF_3syn3gen4hashNtNtBb_3pat7PatRestNtNtCsfvfooZQ3Axs_4core4hash4Hash4hashNtNtNtCscOYdFFY2T5N_3std4hash6random13DefaultHasherECs2nm8mGoL06A_14mockall_derive, symObjAddr: 0x1AF0, symBinAddr: 0x61974, symSize: 0x3C }
  - { offset: 0xB2927, size: 0x8, addend: 0x0, symName: __RINvXs1R_NtNtCs6IAuOt8vWmF_3syn3gen4hashNtNtBb_3pat8PatSliceNtNtCsfvfooZQ3Axs_4core4hash4Hash4hashNtNtNtCscOYdFFY2T5N_3std4hash6random13DefaultHasherECs2nm8mGoL06A_14mockall_derive, symObjAddr: 0x1B2C, symBinAddr: 0x619B0, symSize: 0x50 }
  - { offset: 0xB296F, size: 0x8, addend: 0x0, symName: __RINvXs1S_NtNtCs6IAuOt8vWmF_3syn3gen4hashNtNtBb_3pat9PatStructNtNtCsfvfooZQ3Axs_4core4hash4Hash4hashNtNtNtCscOYdFFY2T5N_3std4hash6random13DefaultHasherECs2nm8mGoL06A_14mockall_derive, symObjAddr: 0x1B7C, symBinAddr: 0x61A00, symSize: 0x80 }
  - { offset: 0xB29B7, size: 0x8, addend: 0x0, symName: __RINvXs1T_NtNtCs6IAuOt8vWmF_3syn3gen4hashNtNtBb_3pat8PatTupleNtNtCsfvfooZQ3Axs_4core4hash4Hash4hashNtNtNtCscOYdFFY2T5N_3std4hash6random13DefaultHasherECs2nm8mGoL06A_14mockall_derive, symObjAddr: 0x1BFC, symBinAddr: 0x61A80, symSize: 0x50 }
  - { offset: 0xB29FF, size: 0x8, addend: 0x0, symName: __RINvXs1U_NtNtCs6IAuOt8vWmF_3syn3gen4hashNtNtBb_3pat14PatTupleStructNtNtCsfvfooZQ3Axs_4core4hash4Hash4hashNtNtNtCscOYdFFY2T5N_3std4hash6random13DefaultHasherECs2nm8mGoL06A_14mockall_derive, symObjAddr: 0x1C4C, symBinAddr: 0x61AD0, symSize: 0x70 }
  - { offset: 0xB2A47, size: 0x8, addend: 0x0, symName: __RINvXs1V_NtNtCs6IAuOt8vWmF_3syn3gen4hashNtNtBb_3pat7PatTypeNtNtCsfvfooZQ3Axs_4core4hash4Hash4hashNtNtNtCscOYdFFY2T5N_3std4hash6random13DefaultHasherECs2nm8mGoL06A_14mockall_derive, symObjAddr: 0x1CBC, symBinAddr: 0x61B40, symSize: 0x60 }
  - { offset: 0xB2A8F, size: 0x8, addend: 0x0, symName: __RINvXs1W_NtNtCs6IAuOt8vWmF_3syn3gen4hashNtNtBb_3pat7PatWildNtNtCsfvfooZQ3Axs_4core4hash4Hash4hashNtNtNtCscOYdFFY2T5N_3std4hash6random13DefaultHasherECs2nm8mGoL06A_14mockall_derive, symObjAddr: 0x1D1C, symBinAddr: 0x61BA0, symSize: 0x3C }
  - { offset: 0xB2AD7, size: 0x8, addend: 0x0, symName: __RINvXs1d_NtNtCs6IAuOt8vWmF_3syn3gen4hashNtNtBb_4item8ImplItemNtNtCsfvfooZQ3Axs_4core4hash4Hash4hashNtNtNtCscOYdFFY2T5N_3std4hash6random13DefaultHasherECs2nm8mGoL06A_14mockall_derive, symObjAddr: 0x1D58, symBinAddr: 0x61BDC, symSize: 0x1BC }
  - { offset: 0xB2BAD, size: 0x8, addend: 0x0, symName: __RINvXs1e_NtNtCs6IAuOt8vWmF_3syn3gen4hashNtNtBb_4item13ImplItemConstNtNtCsfvfooZQ3Axs_4core4hash4Hash4hashNtNtNtCscOYdFFY2T5N_3std4hash6random13DefaultHasherECs2nm8mGoL06A_14mockall_derive, symObjAddr: 0x1F14, symBinAddr: 0x61D98, symSize: 0xA0 }
  - { offset: 0xB2BF5, size: 0x8, addend: 0x0, symName: __RINvXs1f_NtNtCs6IAuOt8vWmF_3syn3gen4hashNtNtBb_4item10ImplItemFnNtNtCsfvfooZQ3Axs_4core4hash4Hash4hashNtNtNtCscOYdFFY2T5N_3std4hash6random13DefaultHasherECs2nm8mGoL06A_14mockall_derive, symObjAddr: 0x1FB4, symBinAddr: 0x61E38, symSize: 0x80 }
  - { offset: 0xB2C3D, size: 0x8, addend: 0x0, symName: __RINvXs1g_NtNtCs6IAuOt8vWmF_3syn3gen4hashNtNtBb_4item13ImplItemMacroNtNtCsfvfooZQ3Axs_4core4hash4Hash4hashNtNtNtCscOYdFFY2T5N_3std4hash6random13DefaultHasherECs2nm8mGoL06A_14mockall_derive, symObjAddr: 0x2034, symBinAddr: 0x61EB8, symSize: 0x60 }
  - { offset: 0xB2C85, size: 0x8, addend: 0x0, symName: __RINvXs1h_NtNtCs6IAuOt8vWmF_3syn3gen4hashNtNtBb_4item12ImplItemTypeNtNtCsfvfooZQ3Axs_4core4hash4Hash4hashNtNtNtCscOYdFFY2T5N_3std4hash6random13DefaultHasherECs2nm8mGoL06A_14mockall_derive, symObjAddr: 0x2094, symBinAddr: 0x61F18, symSize: 0x90 }
  - { offset: 0xB2CCD, size: 0x8, addend: 0x0, symName: __RINvXs1j_NtNtCs6IAuOt8vWmF_3syn3gen4hashNtNtBb_4item4ItemNtNtCsfvfooZQ3Axs_4core4hash4Hash4hashNtNtNtCscOYdFFY2T5N_3std4hash6random13DefaultHasherECs2nm8mGoL06A_14mockall_derive, symObjAddr: 0x2134, symBinAddr: 0x61FA8, symSize: 0x468 }
  - { offset: 0xB2EF9, size: 0x8, addend: 0x0, symName: __RINvXs1k_NtNtCs6IAuOt8vWmF_3syn3gen4hashNtNtBb_4item9ItemConstNtNtCsfvfooZQ3Axs_4core4hash4Hash4hashNtNtNtCscOYdFFY2T5N_3std4hash6random13DefaultHasherECs2nm8mGoL06A_14mockall_derive, symObjAddr: 0x259C, symBinAddr: 0x62410, symSize: 0x90 }
  - { offset: 0xB2F41, size: 0x8, addend: 0x0, symName: __RINvXs1l_NtNtCs6IAuOt8vWmF_3syn3gen4hashNtNtBb_4item8ItemEnumNtNtCsfvfooZQ3Axs_4core4hash4Hash4hashNtNtNtCscOYdFFY2T5N_3std4hash6random13DefaultHasherECs2nm8mGoL06A_14mockall_derive, symObjAddr: 0x262C, symBinAddr: 0x624A0, symSize: 0x80 }
  - { offset: 0xB2F89, size: 0x8, addend: 0x0, symName: __RINvXs1m_NtNtCs6IAuOt8vWmF_3syn3gen4hashNtNtBb_4item15ItemExternCrateNtNtCsfvfooZQ3Axs_4core4hash4Hash4hashNtNtNtCscOYdFFY2T5N_3std4hash6random13DefaultHasherECs2nm8mGoL06A_14mockall_derive, symObjAddr: 0x26AC, symBinAddr: 0x62520, symSize: 0x70 }
  - { offset: 0xB2FD1, size: 0x8, addend: 0x0, symName: __RINvXs1n_NtNtCs6IAuOt8vWmF_3syn3gen4hashNtNtBb_4item6ItemFnNtNtCsfvfooZQ3Axs_4core4hash4Hash4hashNtNtNtCscOYdFFY2T5N_3std4hash6random13DefaultHasherECs2nm8mGoL06A_14mockall_derive, symObjAddr: 0x271C, symBinAddr: 0x62590, symSize: 0x70 }
  - { offset: 0xB3019, size: 0x8, addend: 0x0, symName: __RINvXs1o_NtNtCs6IAuOt8vWmF_3syn3gen4hashNtNtBb_4item14ItemForeignModNtNtCsfvfooZQ3Axs_4core4hash4Hash4hashNtNtNtCscOYdFFY2T5N_3std4hash6random13DefaultHasherECs2nm8mGoL06A_14mockall_derive, symObjAddr: 0x278C, symBinAddr: 0x62600, symSize: 0x70 }
  - { offset: 0xB3061, size: 0x8, addend: 0x0, symName: __RINvXs1p_NtNtCs6IAuOt8vWmF_3syn3gen4hashNtNtBb_4item8ItemImplNtNtCsfvfooZQ3Axs_4core4hash4Hash4hashNtNtNtCscOYdFFY2T5N_3std4hash6random13DefaultHasherECs2nm8mGoL06A_14mockall_derive, symObjAddr: 0x27FC, symBinAddr: 0x62670, symSize: 0xA0 }
  - { offset: 0xB30A9, size: 0x8, addend: 0x0, symName: __RINvXs1q_NtNtCs6IAuOt8vWmF_3syn3gen4hashNtNtBb_4item9ItemMacroNtNtCsfvfooZQ3Axs_4core4hash4Hash4hashNtNtNtCscOYdFFY2T5N_3std4hash6random13DefaultHasherECs2nm8mGoL06A_14mockall_derive, symObjAddr: 0x289C, symBinAddr: 0x62710, symSize: 0x70 }
  - { offset: 0xB30F1, size: 0x8, addend: 0x0, symName: __RINvXs1r_NtNtCs6IAuOt8vWmF_3syn3gen4hashNtNtBb_4item7ItemModNtNtCsfvfooZQ3Axs_4core4hash4Hash4hashNtNtNtCscOYdFFY2T5N_3std4hash6random13DefaultHasherECs2nm8mGoL06A_14mockall_derive, symObjAddr: 0x290C, symBinAddr: 0x62780, symSize: 0x90 }
  - { offset: 0xB3139, size: 0x8, addend: 0x0, symName: __RINvXs1s_NtNtCs6IAuOt8vWmF_3syn3gen4hashNtNtBb_4item10ItemStaticNtNtCsfvfooZQ3Axs_4core4hash4Hash4hashNtNtNtCscOYdFFY2T5N_3std4hash6random13DefaultHasherECs2nm8mGoL06A_14mockall_derive, symObjAddr: 0x299C, symBinAddr: 0x62810, symSize: 0x90 }
  - { offset: 0xB3181, size: 0x8, addend: 0x0, symName: __RINvXs1t_NtNtCs6IAuOt8vWmF_3syn3gen4hashNtNtBb_4item10ItemStructNtNtCsfvfooZQ3Axs_4core4hash4Hash4hashNtNtNtCscOYdFFY2T5N_3std4hash6random13DefaultHasherECs2nm8mGoL06A_14mockall_derive, symObjAddr: 0x2A2C, symBinAddr: 0x628A0, symSize: 0x90 }
  - { offset: 0xB31C9, size: 0x8, addend: 0x0, symName: __RINvXs1u_NtNtCs6IAuOt8vWmF_3syn3gen4hashNtNtBb_4item9ItemTraitNtNtCsfvfooZQ3Axs_4core4hash4Hash4hashNtNtNtCscOYdFFY2T5N_3std4hash6random13DefaultHasherECs2nm8mGoL06A_14mockall_derive, symObjAddr: 0x2ABC, symBinAddr: 0x62930, symSize: 0xD0 }
  - { offset: 0xB3211, size: 0x8, addend: 0x0, symName: __RINvXs1v_NtNtCs6IAuOt8vWmF_3syn3gen4hashNtNtBb_4item14ItemTraitAliasNtNtCsfvfooZQ3Axs_4core4hash4Hash4hashNtNtNtCscOYdFFY2T5N_3std4hash6random13DefaultHasherECs2nm8mGoL06A_14mockall_derive, symObjAddr: 0x2B8C, symBinAddr: 0x62A00, symSize: 0x80 }
  - { offset: 0xB3259, size: 0x8, addend: 0x0, symName: __RINvXs1w_NtNtCs6IAuOt8vWmF_3syn3gen4hashNtNtBb_4item8ItemTypeNtNtCsfvfooZQ3Axs_4core4hash4Hash4hashNtNtNtCscOYdFFY2T5N_3std4hash6random13DefaultHasherECs2nm8mGoL06A_14mockall_derive, symObjAddr: 0x2C0C, symBinAddr: 0x62A80, symSize: 0x80 }
  - { offset: 0xB32A1, size: 0x8, addend: 0x0, symName: __RINvXs1x_NtNtCs6IAuOt8vWmF_3syn3gen4hashNtNtBb_4item9ItemUnionNtNtCsfvfooZQ3Axs_4core4hash4Hash4hashNtNtNtCscOYdFFY2T5N_3std4hash6random13DefaultHasherECs2nm8mGoL06A_14mockall_derive, symObjAddr: 0x2C8C, symBinAddr: 0x62B00, symSize: 0x80 }
  - { offset: 0xB32E9, size: 0x8, addend: 0x0, symName: __RINvXs1y_NtNtCs6IAuOt8vWmF_3syn3gen4hashNtNtBb_4item7ItemUseNtNtCsfvfooZQ3Axs_4core4hash4Hash4hashNtNtNtCscOYdFFY2T5N_3std4hash6random13DefaultHasherECs2nm8mGoL06A_14mockall_derive, symObjAddr: 0x2D0C, symBinAddr: 0x62B80, symSize: 0x70 }
  - { offset: 0xB3331, size: 0x8, addend: 0x0, symName: __RINvXs26_NtNtCs6IAuOt8vWmF_3syn3gen4hashNtNtBb_4item8ReceiverNtNtCsfvfooZQ3Axs_4core4hash4Hash4hashNtNtNtCscOYdFFY2T5N_3std4hash6random13DefaultHasherECs2nm8mGoL06A_14mockall_derive, symObjAddr: 0x2D7C, symBinAddr: 0x62BF0, symSize: 0x80 }
  - { offset: 0xB3379, size: 0x8, addend: 0x0, symName: __RINvXs28_NtNtCs6IAuOt8vWmF_3syn3gen4hashNtNtBb_4item9SignatureNtNtCsfvfooZQ3Axs_4core4hash4Hash4hashNtNtNtCscOYdFFY2T5N_3std4hash6random13DefaultHasherECs2nm8mGoL06A_14mockall_derive, symObjAddr: 0x2DFC, symBinAddr: 0x62C70, symSize: 0xC0 }
  - { offset: 0xB33C1, size: 0x8, addend: 0x0, symName: __RINvXs29_NtNtCs6IAuOt8vWmF_3syn3gen4hashNtNtBb_4item16StaticMutabilityNtNtCsfvfooZQ3Axs_4core4hash4Hash4hashNtNtNtCscOYdFFY2T5N_3std4hash6random13DefaultHasherECs2nm8mGoL06A_14mockall_derive, symObjAddr: 0x2EBC, symBinAddr: 0x62D30, symSize: 0x78 }
  - { offset: 0xB3409, size: 0x8, addend: 0x0, symName: __RINvXs2B_NtNtCs6IAuOt8vWmF_3syn3gen4hashNtNtBb_4item7UseGlobNtNtCsfvfooZQ3Axs_4core4hash4Hash4hashNtNtNtCscOYdFFY2T5N_3std4hash6random13DefaultHasherECs2nm8mGoL06A_14mockall_derive, symObjAddr: 0x2F34, symBinAddr: 0x62DA8, symSize: 0x24 }
  - { offset: 0xB3451, size: 0x8, addend: 0x0, symName: __RINvXs2C_NtNtCs6IAuOt8vWmF_3syn3gen4hashNtNtBb_4item8UseGroupNtNtCsfvfooZQ3Axs_4core4hash4Hash4hashNtNtNtCscOYdFFY2T5N_3std4hash6random13DefaultHasherECs2nm8mGoL06A_14mockall_derive, symObjAddr: 0x2F58, symBinAddr: 0x62DCC, symSize: 0x3C }
  - { offset: 0xB3499, size: 0x8, addend: 0x0, symName: __RINvXs2D_NtNtCs6IAuOt8vWmF_3syn3gen4hashNtNtBb_4item7UseNameNtNtCsfvfooZQ3Axs_4core4hash4Hash4hashNtNtNtCscOYdFFY2T5N_3std4hash6random13DefaultHasherECs2nm8mGoL06A_14mockall_derive, symObjAddr: 0x2F94, symBinAddr: 0x62E08, symSize: 0x3C }
  - { offset: 0xB34E1, size: 0x8, addend: 0x0, symName: __RINvXs2E_NtNtCs6IAuOt8vWmF_3syn3gen4hashNtNtBb_4item7UsePathNtNtCsfvfooZQ3Axs_4core4hash4Hash4hashNtNtNtCscOYdFFY2T5N_3std4hash6random13DefaultHasherECs2nm8mGoL06A_14mockall_derive, symObjAddr: 0x2FD0, symBinAddr: 0x62E44, symSize: 0x54 }
  - { offset: 0xB3529, size: 0x8, addend: 0x0, symName: __RINvXs2F_NtNtCs6IAuOt8vWmF_3syn3gen4hashNtNtBb_4item9UseRenameNtNtCsfvfooZQ3Axs_4core4hash4Hash4hashNtNtNtCscOYdFFY2T5N_3std4hash6random13DefaultHasherECs2nm8mGoL06A_14mockall_derive, symObjAddr: 0x3024, symBinAddr: 0x62E98, symSize: 0x50 }
  - { offset: 0xB3571, size: 0x8, addend: 0x0, symName: __RINvXs2G_NtNtCs6IAuOt8vWmF_3syn3gen4hashNtNtBb_4item7UseTreeNtNtCsfvfooZQ3Axs_4core4hash4Hash4hashNtNtNtCscOYdFFY2T5N_3std4hash6random13DefaultHasherECs2nm8mGoL06A_14mockall_derive, symObjAddr: 0x3074, symBinAddr: 0x62EE8, symSize: 0x1AC }
  - { offset: 0xB3647, size: 0x8, addend: 0x0, symName: __RINvXs2H_NtNtCs6IAuOt8vWmF_3syn3gen4hashNtNtBb_4item8VariadicNtNtCsfvfooZQ3Axs_4core4hash4Hash4hashNtNtNtCscOYdFFY2T5N_3std4hash6random13DefaultHasherECs2nm8mGoL06A_14mockall_derive, symObjAddr: 0x3220, symBinAddr: 0x63094, symSize: 0x60 }
  - { offset: 0xB368F, size: 0x8, addend: 0x0, symName: __RINvXs2e_NtNtCs6IAuOt8vWmF_3syn3gen4hashNtNtBb_4item9TraitItemNtNtCsfvfooZQ3Axs_4core4hash4Hash4hashNtNtNtCscOYdFFY2T5N_3std4hash6random13DefaultHasherECs2nm8mGoL06A_14mockall_derive, symObjAddr: 0x3280, symBinAddr: 0x630F4, symSize: 0x1BC }
  - { offset: 0xB3765, size: 0x8, addend: 0x0, symName: __RINvXs2f_NtNtCs6IAuOt8vWmF_3syn3gen4hashNtNtBb_4item14TraitItemConstNtNtCsfvfooZQ3Axs_4core4hash4Hash4hashNtNtNtCscOYdFFY2T5N_3std4hash6random13DefaultHasherECs2nm8mGoL06A_14mockall_derive, symObjAddr: 0x343C, symBinAddr: 0x632B0, symSize: 0x80 }
  - { offset: 0xB37AD, size: 0x8, addend: 0x0, symName: __RINvXs2g_NtNtCs6IAuOt8vWmF_3syn3gen4hashNtNtBb_4item11TraitItemFnNtNtCsfvfooZQ3Axs_4core4hash4Hash4hashNtNtNtCscOYdFFY2T5N_3std4hash6random13DefaultHasherECs2nm8mGoL06A_14mockall_derive, symObjAddr: 0x34BC, symBinAddr: 0x63330, symSize: 0x70 }
  - { offset: 0xB37F5, size: 0x8, addend: 0x0, symName: __RINvXs2h_NtNtCs6IAuOt8vWmF_3syn3gen4hashNtNtBb_4item14TraitItemMacroNtNtCsfvfooZQ3Axs_4core4hash4Hash4hashNtNtNtCscOYdFFY2T5N_3std4hash6random13DefaultHasherECs2nm8mGoL06A_14mockall_derive, symObjAddr: 0x352C, symBinAddr: 0x633A0, symSize: 0x60 }
  - { offset: 0xB383D, size: 0x8, addend: 0x0, symName: __RINvXs2i_NtNtCs6IAuOt8vWmF_3syn3gen4hashNtNtBb_4item13TraitItemTypeNtNtCsfvfooZQ3Axs_4core4hash4Hash4hashNtNtNtCscOYdFFY2T5N_3std4hash6random13DefaultHasherECs2nm8mGoL06A_14mockall_derive, symObjAddr: 0x358C, symBinAddr: 0x63400, symSize: 0x90 }
  - { offset: 0xB3885, size: 0x8, addend: 0x0, symName: __RINvXs3_NtNtCs6IAuOt8vWmF_3syn3gen4hashNtNtBa_4attr9AttrStyleNtNtCsfvfooZQ3Axs_4core4hash4Hash4hashNtNtNtCscOYdFFY2T5N_3std4hash6random13DefaultHasherECs2nm8mGoL06A_14mockall_derive, symObjAddr: 0x361C, symBinAddr: 0x63490, symSize: 0x78 }
  - { offset: 0xB38CA, size: 0x8, addend: 0x0, symName: __RINvXs4_NtNtCs6IAuOt8vWmF_3syn3gen4hashNtNtBa_4attr9AttributeNtNtCsfvfooZQ3Axs_4core4hash4Hash4hashNtNtNtCscOYdFFY2T5N_3std4hash6random13DefaultHasherECs2nm8mGoL06A_14mockall_derive, symObjAddr: 0x3694, symBinAddr: 0x63508, symSize: 0x50 }
  - { offset: 0xB390F, size: 0x8, addend: 0x0, symName: __RINvXsY_NtNtCs6IAuOt8vWmF_3syn3gen4hashNtNtBa_3pat8FieldPatNtNtCsfvfooZQ3Axs_4core4hash4Hash4hashNtNtNtCscOYdFFY2T5N_3std4hash6random13DefaultHasherECs2nm8mGoL06A_14mockall_derive, symObjAddr: 0x36E4, symBinAddr: 0x63558, symSize: 0x70 }
  - { offset: 0xB395E, size: 0x8, addend: 0x0, symName: __RNvXNtCs6IAuOt8vWmF_3syn7spannedNtNtB4_3pat3PatNtB2_7Spanned4spanCs2nm8mGoL06A_14mockall_derive, symObjAddr: 0x4D1C, symBinAddr: 0x64B90, symSize: 0x34 }
  - { offset: 0xB3993, size: 0x8, addend: 0x0, symName: __RNvXNtCs6IAuOt8vWmF_3syn7spannedNtNtB4_4item11ForeignItemNtB2_7Spanned4spanCs2nm8mGoL06A_14mockall_derive, symObjAddr: 0x4D50, symBinAddr: 0x64BC4, symSize: 0x34 }
  - { offset: 0xB39C8, size: 0x8, addend: 0x0, symName: __RNvXNtCs6IAuOt8vWmF_3syn7spannedNtNtB4_4item13ForeignItemFnNtB2_7Spanned4spanCs2nm8mGoL06A_14mockall_derive, symObjAddr: 0x4D84, symBinAddr: 0x64BF8, symSize: 0x34 }
  - { offset: 0xB39FD, size: 0x8, addend: 0x0, symName: __RNvXNtCs6IAuOt8vWmF_3syn7spannedNtNtB4_4item13TraitItemTypeNtB2_7Spanned4spanCs2nm8mGoL06A_14mockall_derive, symObjAddr: 0x4DB8, symBinAddr: 0x64C2C, symSize: 0x34 }
  - { offset: 0xB3A32, size: 0x8, addend: 0x0, symName: __RNvXNtCs6IAuOt8vWmF_3syn7spannedNtNtB4_4item14TraitItemConstNtB2_7Spanned4spanCs2nm8mGoL06A_14mockall_derive, symObjAddr: 0x4DEC, symBinAddr: 0x64C60, symSize: 0x34 }
  - { offset: 0xB3A67, size: 0x8, addend: 0x0, symName: __RNvXNtCs6IAuOt8vWmF_3syn7spannedNtNtB4_4item4ItemNtB2_7Spanned4spanCs2nm8mGoL06A_14mockall_derive, symObjAddr: 0x4E20, symBinAddr: 0x64C94, symSize: 0x34 }
  - { offset: 0xB3A9C, size: 0x8, addend: 0x0, symName: __RNvXNtCs6IAuOt8vWmF_3syn7spannedNtNtB4_4item7ItemModNtB2_7Spanned4spanCs2nm8mGoL06A_14mockall_derive, symObjAddr: 0x4E54, symBinAddr: 0x64CC8, symSize: 0x34 }
  - { offset: 0xB3AD1, size: 0x8, addend: 0x0, symName: __RNvXNtCs6IAuOt8vWmF_3syn7spannedNtNtB4_4item8ImplItemNtB2_7Spanned4spanCs2nm8mGoL06A_14mockall_derive, symObjAddr: 0x4E88, symBinAddr: 0x64CFC, symSize: 0x34 }
  - { offset: 0xB3B06, size: 0x8, addend: 0x0, symName: __RNvXNtCs6IAuOt8vWmF_3syn7spannedNtNtB4_4item8ItemImplNtB2_7Spanned4spanCs2nm8mGoL06A_14mockall_derive, symObjAddr: 0x4EBC, symBinAddr: 0x64D30, symSize: 0x34 }
  - { offset: 0xB3B3B, size: 0x8, addend: 0x0, symName: __RNvXNtCs6IAuOt8vWmF_3syn7spannedNtNtB4_4item9SignatureNtB2_7Spanned4spanCs2nm8mGoL06A_14mockall_derive, symObjAddr: 0x4EF0, symBinAddr: 0x64D64, symSize: 0x34 }
  - { offset: 0xB3B70, size: 0x8, addend: 0x0, symName: __RNvXNtCs6IAuOt8vWmF_3syn7spannedNtNtB4_4item9TraitItemNtB2_7Spanned4spanCs2nm8mGoL06A_14mockall_derive, symObjAddr: 0x4F24, symBinAddr: 0x64D98, symSize: 0x34 }
  - { offset: 0xB3BA5, size: 0x8, addend: 0x0, symName: __RNvXNtCs6IAuOt8vWmF_3syn7spannedQNtNtB4_3pat7PatTypeNtB2_7Spanned4spanCs2nm8mGoL06A_14mockall_derive, symObjAddr: 0x4F58, symBinAddr: 0x64DCC, symSize: 0x34 }
  - { offset: 0xB3BDA, size: 0x8, addend: 0x0, symName: __RNvXNtCs6IAuOt8vWmF_3syn7spannedQNtNtB4_4item13TraitItemTypeNtB2_7Spanned4spanCs2nm8mGoL06A_14mockall_derive, symObjAddr: 0x4F8C, symBinAddr: 0x64E00, symSize: 0x34 }
  - { offset: 0xB5764, size: 0x8, addend: 0x0, symName: __RNvXs1_NtCse1nGBsou5OW_5alloc7raw_vecINtB5_6RawVecNtCs3cP53eQoTwO_11proc_macro211TokenStreamENtNtNtCsfvfooZQ3Axs_4core3ops4drop4Drop4dropCs2nm8mGoL06A_14mockall_derive, symObjAddr: 0x53F4, symBinAddr: 0x65268, symSize: 0x34 }
  - { offset: 0xB57A0, size: 0x8, addend: 0x0, symName: __RNvXs1_NtCse1nGBsou5OW_5alloc7raw_vecINtB5_6RawVecNtCs3cP53eQoTwO_11proc_macro25IdentENtNtNtCsfvfooZQ3Axs_4core3ops4drop4Drop4dropCs2nm8mGoL06A_14mockall_derive, symObjAddr: 0x5428, symBinAddr: 0x6529C, symSize: 0x34 }
  - { offset: 0xB57DC, size: 0x8, addend: 0x0, symName: __RNvXs1_NtCse1nGBsou5OW_5alloc7raw_vecINtB5_6RawVecNtNtCs2nm8mGoL06A_14mockall_derive10mock_trait9MockTraitENtNtNtCsfvfooZQ3Axs_4core3ops4drop4Drop4dropBQ_, symObjAddr: 0x545C, symBinAddr: 0x652D0, symSize: 0x34 }
  - { offset: 0xB5818, size: 0x8, addend: 0x0, symName: __RNvXs1_NtCse1nGBsou5OW_5alloc7raw_vecINtB5_6RawVecNtNtCs2nm8mGoL06A_14mockall_derive13mock_function12MockFunctionENtNtNtCsfvfooZQ3Axs_4core3ops4drop4Drop4dropBQ_, symObjAddr: 0x5490, symBinAddr: 0x65304, symSize: 0x34 }
  - { offset: 0xB5854, size: 0x8, addend: 0x0, symName: __RNvXs1_NtCse1nGBsou5OW_5alloc7raw_vecINtB5_6RawVecNtNtCs2nm8mGoL06A_14mockall_derive16mock_item_struct17MockItemTraitImplENtNtNtCsfvfooZQ3Axs_4core3ops4drop4Drop4dropBQ_, symObjAddr: 0x54C4, symBinAddr: 0x65338, symSize: 0x34 }
  - { offset: 0xB5890, size: 0x8, addend: 0x0, symName: __RNvXs1_NtCse1nGBsou5OW_5alloc7raw_vecINtB5_6RawVecNtNtCs2nm8mGoL06A_14mockall_derive9mock_item15MockItemContentENtNtNtCsfvfooZQ3Axs_4core3ops4drop4Drop4dropBQ_, symObjAddr: 0x54F8, symBinAddr: 0x6536C, symSize: 0x34 }
  - { offset: 0xB58CC, size: 0x8, addend: 0x0, symName: __RNvXs1_NtCse1nGBsou5OW_5alloc7raw_vecINtB5_6RawVecNtNtCs6IAuOt8vWmF_3syn2ty4TypeENtNtNtCsfvfooZQ3Axs_4core3ops4drop4Drop4dropCs2nm8mGoL06A_14mockall_derive, symObjAddr: 0x552C, symBinAddr: 0x653A0, symSize: 0x34 }
  - { offset: 0xB5908, size: 0x8, addend: 0x0, symName: __RNvXs1_NtCse1nGBsou5OW_5alloc7raw_vecINtB5_6RawVecNtNtCs6IAuOt8vWmF_3syn3pat3PatENtNtNtCsfvfooZQ3Axs_4core3ops4drop4Drop4dropCs2nm8mGoL06A_14mockall_derive, symObjAddr: 0x5560, symBinAddr: 0x653D4, symSize: 0x34 }
  - { offset: 0xB5944, size: 0x8, addend: 0x0, symName: __RNvXs1_NtCse1nGBsou5OW_5alloc7raw_vecINtB5_6RawVecNtNtCs6IAuOt8vWmF_3syn4expr5IndexENtNtNtCsfvfooZQ3Axs_4core3ops4drop4Drop4dropCs2nm8mGoL06A_14mockall_derive, symObjAddr: 0x5594, symBinAddr: 0x65408, symSize: 0x34 }
  - { offset: 0xB5980, size: 0x8, addend: 0x0, symName: __RNvXs1_NtCse1nGBsou5OW_5alloc7raw_vecINtB5_6RawVecNtNtCs6IAuOt8vWmF_3syn4item10ImplItemFnENtNtNtCsfvfooZQ3Axs_4core3ops4drop4Drop4dropCs2nm8mGoL06A_14mockall_derive, symObjAddr: 0x55C8, symBinAddr: 0x6543C, symSize: 0x34 }
  - { offset: 0xB59BC, size: 0x8, addend: 0x0, symName: __RNvXs1_NtCse1nGBsou5OW_5alloc7raw_vecINtB5_6RawVecNtNtCs6IAuOt8vWmF_3syn4item12ImplItemTypeENtNtNtCsfvfooZQ3Axs_4core3ops4drop4Drop4dropCs2nm8mGoL06A_14mockall_derive, symObjAddr: 0x55FC, symBinAddr: 0x65470, symSize: 0x34 }
  - { offset: 0xB59F8, size: 0x8, addend: 0x0, symName: __RNvXs1_NtCse1nGBsou5OW_5alloc7raw_vecINtB5_6RawVecNtNtCs6IAuOt8vWmF_3syn4item13ImplItemConstENtNtNtCsfvfooZQ3Axs_4core3ops4drop4Drop4dropCs2nm8mGoL06A_14mockall_derive, symObjAddr: 0x5630, symBinAddr: 0x654A4, symSize: 0x34 }
  - { offset: 0xB5A34, size: 0x8, addend: 0x0, symName: __RNvXs1_NtCse1nGBsou5OW_5alloc7raw_vecINtB5_6RawVecNtNtCs6IAuOt8vWmF_3syn4item5FnArgENtNtNtCsfvfooZQ3Axs_4core3ops4drop4Drop4dropCs2nm8mGoL06A_14mockall_derive, symObjAddr: 0x5664, symBinAddr: 0x654D8, symSize: 0x34 }
  - { offset: 0xB5A70, size: 0x8, addend: 0x0, symName: __RNvXs1_NtCse1nGBsou5OW_5alloc7raw_vecINtB5_6RawVecNtNtCs6IAuOt8vWmF_3syn4item8ItemImplENtNtNtCsfvfooZQ3Axs_4core3ops4drop4Drop4dropCs2nm8mGoL06A_14mockall_derive, symObjAddr: 0x5698, symBinAddr: 0x6550C, symSize: 0x34 }
  - { offset: 0xB5AAC, size: 0x8, addend: 0x0, symName: __RNvXs1_NtCse1nGBsou5OW_5alloc7raw_vecINtB5_6RawVecNtNtCs6IAuOt8vWmF_3syn8generics12GenericParamENtNtNtCsfvfooZQ3Axs_4core3ops4drop4Drop4dropCs2nm8mGoL06A_14mockall_derive, symObjAddr: 0x56CC, symBinAddr: 0x65540, symSize: 0x34 }
  - { offset: 0xB5AE8, size: 0x8, addend: 0x0, symName: __RNvXs1_NtCse1nGBsou5OW_5alloc7raw_vecINtB5_6RawVecNtNtCs6IAuOt8vWmF_3syn8generics13LifetimeParamENtNtNtCsfvfooZQ3Axs_4core3ops4drop4Drop4dropCs2nm8mGoL06A_14mockall_derive, symObjAddr: 0x5700, symBinAddr: 0x65574, symSize: 0x34 }
  - { offset: 0xB5B24, size: 0x8, addend: 0x0, symName: __RNvXs1_NtCse1nGBsou5OW_5alloc7raw_vecINtB5_6RawVecTNtCs3cP53eQoTwO_11proc_macro25IdentNtNtCs6IAuOt8vWmF_3syn5token5CommaEENtNtNtCsfvfooZQ3Axs_4core3ops4drop4Drop4dropCs2nm8mGoL06A_14mockall_derive, symObjAddr: 0x5734, symBinAddr: 0x655A8, symSize: 0x34 }
  - { offset: 0xB5B60, size: 0x8, addend: 0x0, symName: __RNvXs1_NtCse1nGBsou5OW_5alloc7raw_vecINtB5_6RawVecTNtNtCs6IAuOt8vWmF_3syn8generics13LifetimeParamNtNtBR_5token5CommaEENtNtNtCsfvfooZQ3Axs_4core3ops4drop4Drop4dropCs2nm8mGoL06A_14mockall_derive, symObjAddr: 0x5768, symBinAddr: 0x655DC, symSize: 0x34 }
  - { offset: 0xB5D28, size: 0x8, addend: 0x0, symName: __RINvMNtCse1nGBsou5OW_5alloc5sliceSNtNtCs6IAuOt8vWmF_3syn4item8ItemImpl8into_vecNtNtB5_5alloc6GlobalECs2nm8mGoL06A_14mockall_derive, symObjAddr: 0x538, symBinAddr: 0x60620, symSize: 0x28 }
  - { offset: 0xB5DA5, size: 0x8, addend: 0x0, symName: __RNvMNtCse1nGBsou5OW_5alloc5sliceSNtNtCs6IAuOt8vWmF_3syn4attr9Attribute6to_vecCs2nm8mGoL06A_14mockall_derive, symObjAddr: 0x40F0, symBinAddr: 0x63F64, symSize: 0x28 }
  - { offset: 0xB5E2E, size: 0x8, addend: 0x0, symName: __RINvNtNtCse1nGBsou5OW_5alloc5slice4hack8into_vecNtNtCs6IAuOt8vWmF_3syn4item8ItemImplNtNtB6_5alloc6GlobalECs2nm8mGoL06A_14mockall_derive, symObjAddr: 0x984, symBinAddr: 0x60808, symSize: 0x94 }
  - { offset: 0xB6026, size: 0x8, addend: 0x0, symName: __RINvXNtNtCse1nGBsou5OW_5alloc5slice4hackNtNtCs6IAuOt8vWmF_3syn3pat3PatNtB3_10ConvertVec6to_vecNtNtB7_5alloc6GlobalECs2nm8mGoL06A_14mockall_derive, symObjAddr: 0xB44, symBinAddr: 0x609C8, symSize: 0x36C }
  - { offset: 0xB64F3, size: 0x8, addend: 0x0, symName: __RNvXNvXNtNtCse1nGBsou5OW_5alloc5slice4hackpNtB5_10ConvertVec6to_vecINtB2_9DropGuardNtCs3cP53eQoTwO_11proc_macro211TokenStreamNtNtB9_5alloc6GlobalENtNtNtCsfvfooZQ3Axs_4core3ops4drop4Drop4dropCs2nm8mGoL06A_14mockall_derive, symObjAddr: 0x4FC0, symBinAddr: 0x64E34, symSize: 0x20 }
  - { offset: 0xB6541, size: 0x8, addend: 0x0, symName: __RNvXNvXNtNtCse1nGBsou5OW_5alloc5slice4hackpNtB5_10ConvertVec6to_vecINtB2_9DropGuardNtCs3cP53eQoTwO_11proc_macro25IdentNtNtB9_5alloc6GlobalENtNtNtCsfvfooZQ3Axs_4core3ops4drop4Drop4dropCs2nm8mGoL06A_14mockall_derive, symObjAddr: 0x4FE0, symBinAddr: 0x64E54, symSize: 0x20 }
  - { offset: 0xB658F, size: 0x8, addend: 0x0, symName: __RNvXNvXNtNtCse1nGBsou5OW_5alloc5slice4hackpNtB5_10ConvertVec6to_vecINtB2_9DropGuardNtNtCs2nm8mGoL06A_14mockall_derive13mock_function12MockFunctionNtNtB9_5alloc6GlobalENtNtNtCsfvfooZQ3Axs_4core3ops4drop4Drop4dropB1n_, symObjAddr: 0x5000, symBinAddr: 0x64E74, symSize: 0x20 }
  - { offset: 0xB65DD, size: 0x8, addend: 0x0, symName: __RNvXNvXNtNtCse1nGBsou5OW_5alloc5slice4hackpNtB5_10ConvertVec6to_vecINtB2_9DropGuardNtNtCs6IAuOt8vWmF_3syn2ty4TypeNtNtB9_5alloc6GlobalENtNtNtCsfvfooZQ3Axs_4core3ops4drop4Drop4dropCs2nm8mGoL06A_14mockall_derive, symObjAddr: 0x5020, symBinAddr: 0x64E94, symSize: 0x20 }
  - { offset: 0xB662B, size: 0x8, addend: 0x0, symName: __RNvXNvXNtNtCse1nGBsou5OW_5alloc5slice4hackpNtB5_10ConvertVec6to_vecINtB2_9DropGuardNtNtCs6IAuOt8vWmF_3syn3pat3PatNtNtB9_5alloc6GlobalENtNtNtCsfvfooZQ3Axs_4core3ops4drop4Drop4dropCs2nm8mGoL06A_14mockall_derive, symObjAddr: 0x5040, symBinAddr: 0x64EB4, symSize: 0x20 }
  - { offset: 0xB6679, size: 0x8, addend: 0x0, symName: __RNvXNvXNtNtCse1nGBsou5OW_5alloc5slice4hackpNtB5_10ConvertVec6to_vecINtB2_9DropGuardTNtNtCs6IAuOt8vWmF_3syn8generics13LifetimeParamNtNtB1o_5token5CommaENtNtB9_5alloc6GlobalENtNtNtCsfvfooZQ3Axs_4core3ops4drop4Drop4dropCs2nm8mGoL06A_14mockall_derive, symObjAddr: 0x5060, symBinAddr: 0x64ED4, symSize: 0x20 }
  - { offset: 0xB70EE, size: 0x8, addend: 0x0, symName: __RNvXNtCs2nm8mGoL06A_14mockall_derive9mock_itemNtB2_8MockItemINtNtCsfvfooZQ3Axs_4core7convert4FromNtNtB4_13mockable_item12MockableItemE4from, symObjAddr: 0x8FE0, symBinAddr: 0x68E54, symSize: 0xF8 }
  - { offset: 0xB715D, size: 0x8, addend: 0x0, symName: __RNvXs_NtCs2nm8mGoL06A_14mockall_derive9mock_itemNtB4_8MockItemNtNtCs2cqEZUIJimJ_5quote9to_tokens8ToTokens9to_tokens, symObjAddr: 0x90D8, symBinAddr: 0x68F4C, symSize: 0x9C }
  - { offset: 0xB71CB, size: 0x8, addend: 0x0, symName: __RNvXs0_NtCs2nm8mGoL06A_14mockall_derive9mock_itemNtB5_14MockItemModuleINtNtCsfvfooZQ3Axs_4core7convert4FromNtNtB7_13mockable_item14MockableModuleE4from, symObjAddr: 0x9174, symBinAddr: 0x68FE8, symSize: 0x109C }
  - { offset: 0xB73D5, size: 0x8, addend: 0x0, symName: __RNvXs1_NtCs2nm8mGoL06A_14mockall_derive9mock_itemNtB5_14MockItemModuleNtNtCs2cqEZUIJimJ_5quote9to_tokens8ToTokens9to_tokens, symObjAddr: 0xA210, symBinAddr: 0x6A084, symSize: 0xBE4 }
  - { offset: 0xB7760, size: 0x8, addend: 0x0, symName: __RNcNtNtNtCs2nm8mGoL06A_14mockall_derive8automock4Attr4Type0B7_, symObjAddr: 0x6CC4, symBinAddr: 0x66B38, symSize: 0x30 }
  - { offset: 0xB7790, size: 0x8, addend: 0x0, symName: __RNvXNtCs2nm8mGoL06A_14mockall_derive8automockNtB2_4AttrNtNtCs6IAuOt8vWmF_3syn5parse5Parse5parse, symObjAddr: 0x6CF4, symBinAddr: 0x66B68, symSize: 0x148 }
  - { offset: 0xB7887, size: 0x8, addend: 0x0, symName: __RNvXs0_NtCs2nm8mGoL06A_14mockall_derive8automockNtB5_5AttrsNtNtCs6IAuOt8vWmF_3syn5parse5Parse5parse, symObjAddr: 0x8A8C, symBinAddr: 0x68900, symSize: 0x554 }
  - { offset: 0xB7969, size: 0x8, addend: 0x0, symName: __RNvXs2_NtCs2nm8mGoL06A_14mockall_derive8automockNtB5_5AttrsNtNtCsfvfooZQ3Axs_4core7default7Default7defaultB7_, symObjAddr: 0xADF4, symBinAddr: 0x6AC68, symSize: 0x3C }
  - { offset: 0xB7D5D, size: 0x8, addend: 0x0, symName: __RINvXNtNtNtNtCscOYdFFY2T5N_3std3sys12thread_local6native4lazyzNtB3_14DestroyedState13register_dtorINtNtCsfvfooZQ3Axs_4core4cell4CellTyyEEECs2nm8mGoL06A_14mockall_derive, symObjAddr: 0xEB0, symBinAddr: 0x60D34, symSize: 0x10 }
  - { offset: 0xB7DAD, size: 0x8, addend: 0x0, symName: __RNCNkNvNvMNtNtCscOYdFFY2T5N_3std4hash6randomNtB8_11RandomState3new4KEYS0s_0Cs2nm8mGoL06A_14mockall_derive, symObjAddr: 0x4088, symBinAddr: 0x63EFC, symSize: 0x3C }
  - { offset: 0xB7DEB, size: 0x8, addend: 0x0, symName: __RNvNvNvMNtNtCscOYdFFY2T5N_3std4hash6randomNtB6_11RandomState3new4KEYS6___initCs2nm8mGoL06A_14mockall_derive, symObjAddr: 0x4A78, symBinAddr: 0x648EC, symSize: 0x24 }
  - { offset: 0xB7E09, size: 0x8, addend: 0x0, symName: __RNCNvMNtNtCscOYdFFY2T5N_3std4hash6randomNtB4_11RandomState3new0Cs2nm8mGoL06A_14mockall_derive, symObjAddr: 0x40C4, symBinAddr: 0x63F38, symSize: 0x2C }
  - { offset: 0xB7F08, size: 0x8, addend: 0x0, symName: __RNvXs1_NtNtCscOYdFFY2T5N_3std4hash6randomNtB5_13DefaultHasherNtNtCsfvfooZQ3Axs_4core7default7Default7defaultCs2nm8mGoL06A_14mockall_derive, symObjAddr: 0x57B0, symBinAddr: 0x65624, symSize: 0xB4 }
  - { offset: 0xB7FA2, size: 0x8, addend: 0x0, symName: __RNvXs2_NtNtCscOYdFFY2T5N_3std4hash6randomNtB5_13DefaultHasherNtNtCsfvfooZQ3Axs_4core4hash6Hasher5writeCs2nm8mGoL06A_14mockall_derive, symObjAddr: 0x5864, symBinAddr: 0x656D8, symSize: 0x38 }
  - { offset: 0xB7FFD, size: 0x8, addend: 0x0, symName: __RNvXs2_NtNtCscOYdFFY2T5N_3std4hash6randomNtB5_13DefaultHasherNtNtCsfvfooZQ3Axs_4core4hash6Hasher6finishCs2nm8mGoL06A_14mockall_derive, symObjAddr: 0x589C, symBinAddr: 0x65710, symSize: 0x2C }
  - { offset: 0xB8046, size: 0x8, addend: 0x0, symName: __RNvXs2_NtNtCscOYdFFY2T5N_3std4hash6randomNtB5_13DefaultHasherNtNtCsfvfooZQ3Axs_4core4hash6Hasher9write_strCs2nm8mGoL06A_14mockall_derive, symObjAddr: 0x58C8, symBinAddr: 0x6573C, symSize: 0x38 }
  - { offset: 0xB80D7, size: 0x8, addend: 0x0, symName: __RNvXs3_NtNtCscOYdFFY2T5N_3std4hash6randomNtB5_11RandomStateNtNtCsfvfooZQ3Axs_4core7default7Default7defaultCs2nm8mGoL06A_14mockall_derive, symObjAddr: 0x5900, symBinAddr: 0x65774, symSize: 0x1C }
  - { offset: 0xB810F, size: 0x8, addend: 0x0, symName: __RNvXs_NtNtCscOYdFFY2T5N_3std4hash6randomNtB4_11RandomStateNtNtCsfvfooZQ3Axs_4core4hash11BuildHasher12build_hasherCs2nm8mGoL06A_14mockall_derive, symObjAddr: 0x599C, symBinAddr: 0x65810, symSize: 0xCC }
  - { offset: 0xB81EF, size: 0x8, addend: 0x0, symName: __RINvMNtCs6IAuOt8vWmF_3syn4attrNtB3_9Attribute15parse_args_withNCINvNtB5_4meta6parserNCNCNvMs_NtCs2nm8mGoL06A_14mockall_derive15mockable_structNtB1t_14MockableStruct13derives_debug00E0EB1v_, symObjAddr: 0x18C, symBinAddr: 0x60274, symSize: 0x354 }
  - { offset: 0xB82C4, size: 0x8, addend: 0x0, symName: __RINvMNtCs6IAuOt8vWmF_3syn4attrNtB3_9Attribute17parse_nested_metaNCNCNvMs_NtCs2nm8mGoL06A_14mockall_derive15mockable_structNtB19_14MockableStruct13derives_debug00EB1b_, symObjAddr: 0x4E0, symBinAddr: 0x605C8, symSize: 0x58 }
  - { offset: 0xB830C, size: 0x8, addend: 0x0, symName: __RINvMs0_NtCs6IAuOt8vWmF_3syn4attrNtB6_8MetaList15parse_args_withNCINvNtB8_4meta6parserNCNCNvMs_NtCs2nm8mGoL06A_14mockall_derive15mockable_structNtB1v_14MockableStruct13derives_debug00E0EB1x_, symObjAddr: 0x560, symBinAddr: 0x60648, symSize: 0xFC }
  - { offset: 0xB8493, size: 0x8, addend: 0x0, symName: __RINvMs0_NtNtNtNtCscOYdFFY2T5N_3std3sys12thread_local6native4lazyINtB6_7StorageINtNtCsfvfooZQ3Axs_4core4cell4CellTyyEEzE10initializeNvNvNvMNtNtBe_4hash6randomNtB2c_11RandomState3new4KEYS6___initECs2nm8mGoL06A_14mockall_derive, symObjAddr: 0x65C, symBinAddr: 0x240078, symSize: 0x264 }
  - { offset: 0xB86E7, size: 0x8, addend: 0x0, symName: __RINvMs0_NtNtNtNtCscOYdFFY2T5N_3std3sys12thread_local6native4lazyINtB6_7StorageINtNtCsfvfooZQ3Axs_4core4cell4CellTyyEEzE11get_or_initNvNvNvMNtNtBe_4hash6randomNtB2d_11RandomState3new4KEYS6___initECs2nm8mGoL06A_14mockall_derive, symObjAddr: 0x8C0, symBinAddr: 0x60744, symSize: 0xC4 }
  - { offset: 0xB9848, size: 0x8, addend: 0x0, symName: __RNvMs0_NtCse1nGBsou5OW_5alloc7raw_vecINtB5_6RawVecNtCs3cP53eQoTwO_11proc_macro211TokenStreamE8grow_oneCs2nm8mGoL06A_14mockall_derive, symObjAddr: 0x42D0, symBinAddr: 0x64144, symSize: 0x94 }
  - { offset: 0xB9921, size: 0x8, addend: 0x0, symName: __RNvMs0_NtCse1nGBsou5OW_5alloc7raw_vecINtB5_6RawVecNtNtCs2nm8mGoL06A_14mockall_derive13mock_function12MockFunctionE8grow_oneBQ_, symObjAddr: 0x4364, symBinAddr: 0x641D8, symSize: 0x94 }
  - { offset: 0xB99DC, size: 0x8, addend: 0x0, symName: __RNvMs0_NtCse1nGBsou5OW_5alloc7raw_vecINtB5_6RawVecNtNtCs2nm8mGoL06A_14mockall_derive9mock_item15MockItemContentE8grow_oneBQ_, symObjAddr: 0x43F8, symBinAddr: 0x6426C, symSize: 0x94 }
  - { offset: 0xB9A8A, size: 0x8, addend: 0x0, symName: __RNvMs0_NtCse1nGBsou5OW_5alloc7raw_vecINtB5_6RawVecNtNtCs6IAuOt8vWmF_3syn2ty4TypeE8grow_oneCs2nm8mGoL06A_14mockall_derive, symObjAddr: 0x448C, symBinAddr: 0x64300, symSize: 0x94 }
  - { offset: 0xB9B38, size: 0x8, addend: 0x0, symName: __RNvMs0_NtCse1nGBsou5OW_5alloc7raw_vecINtB5_6RawVecNtNtCs6IAuOt8vWmF_3syn3pat3PatE8grow_oneCs2nm8mGoL06A_14mockall_derive, symObjAddr: 0x4520, symBinAddr: 0x64394, symSize: 0x94 }
  - { offset: 0xB9BE6, size: 0x8, addend: 0x0, symName: __RNvMs0_NtCse1nGBsou5OW_5alloc7raw_vecINtB5_6RawVecNtNtCs6IAuOt8vWmF_3syn4item10ImplItemFnE8grow_oneCs2nm8mGoL06A_14mockall_derive, symObjAddr: 0x45B4, symBinAddr: 0x64428, symSize: 0x94 }
  - { offset: 0xB9C94, size: 0x8, addend: 0x0, symName: __RNvMs0_NtCse1nGBsou5OW_5alloc7raw_vecINtB5_6RawVecNtNtCs6IAuOt8vWmF_3syn4item12ImplItemTypeE8grow_oneCs2nm8mGoL06A_14mockall_derive, symObjAddr: 0x4648, symBinAddr: 0x644BC, symSize: 0x94 }
  - { offset: 0xB9D42, size: 0x8, addend: 0x0, symName: __RNvMs0_NtCse1nGBsou5OW_5alloc7raw_vecINtB5_6RawVecNtNtCs6IAuOt8vWmF_3syn4item13ImplItemConstE8grow_oneCs2nm8mGoL06A_14mockall_derive, symObjAddr: 0x46DC, symBinAddr: 0x64550, symSize: 0x94 }
  - { offset: 0xB9DF0, size: 0x8, addend: 0x0, symName: __RNvMs0_NtCse1nGBsou5OW_5alloc7raw_vecINtB5_6RawVecNtNtCs6IAuOt8vWmF_3syn4item8ItemImplE8grow_oneCs2nm8mGoL06A_14mockall_derive, symObjAddr: 0x4770, symBinAddr: 0x645E4, symSize: 0x94 }
  - { offset: 0xB9EBC, size: 0x8, addend: 0x0, symName: __RNvMs0_NtCse1nGBsou5OW_5alloc7raw_vecINtB5_6RawVecTNtCs3cP53eQoTwO_11proc_macro25IdentNtNtCs6IAuOt8vWmF_3syn5token5CommaEE8grow_oneCs2nm8mGoL06A_14mockall_derive, symObjAddr: 0x4804, symBinAddr: 0x64678, symSize: 0x94 }
  - { offset: 0xB9F6A, size: 0x8, addend: 0x0, symName: __RNvMs0_NtCse1nGBsou5OW_5alloc7raw_vecINtB5_6RawVecTNtNtCs6IAuOt8vWmF_3syn8generics13LifetimeParamNtNtBR_5token5CommaEE8grow_oneCs2nm8mGoL06A_14mockall_derive, symObjAddr: 0x4898, symBinAddr: 0x6470C, symSize: 0x94 }
  - { offset: 0xBA028, size: 0x8, addend: 0x0, symName: __RNvMs0_NtNtCscOYdFFY2T5N_3std4hash6randomNtB5_13DefaultHasher3newCs2nm8mGoL06A_14mockall_derive, symObjAddr: 0x492C, symBinAddr: 0x647A0, symSize: 0xB4 }
  - { offset: 0xBA0E6, size: 0x8, addend: 0x0, symName: __RNvXNtCs2cqEZUIJimJ_5quote9to_tokensRNtNtCs6IAuOt8vWmF_3syn4item12ImplItemTypeNtB2_8ToTokens9to_tokensCs2nm8mGoL06A_14mockall_derive, symObjAddr: 0x4A9C, symBinAddr: 0x64910, symSize: 0x40 }
  - { offset: 0xBA125, size: 0x8, addend: 0x0, symName: __RNvXNtCs2cqEZUIJimJ_5quote9to_tokensRNtNtCs6IAuOt8vWmF_3syn4item13ForeignItemFnNtB2_8ToTokens9to_tokensCs2nm8mGoL06A_14mockall_derive, symObjAddr: 0x4ADC, symBinAddr: 0x64950, symSize: 0x40 }
  - { offset: 0xBA164, size: 0x8, addend: 0x0, symName: __RNvXNtCs2cqEZUIJimJ_5quote9to_tokensRNtNtCs6IAuOt8vWmF_3syn4item13ImplItemConstNtB2_8ToTokens9to_tokensCs2nm8mGoL06A_14mockall_derive, symObjAddr: 0x4B1C, symBinAddr: 0x64990, symSize: 0x40 }
  - { offset: 0xBA1A3, size: 0x8, addend: 0x0, symName: __RNvXNtCs2cqEZUIJimJ_5quote9to_tokensRNtNtCs6IAuOt8vWmF_3syn4item13TraitItemTypeNtB2_8ToTokens9to_tokensCs2nm8mGoL06A_14mockall_derive, symObjAddr: 0x4B5C, symBinAddr: 0x649D0, symSize: 0x40 }
  - { offset: 0xBA1E2, size: 0x8, addend: 0x0, symName: __RNvXNtCs2cqEZUIJimJ_5quote9to_tokensRNtNtCs6IAuOt8vWmF_3syn4item14TraitItemConstNtB2_8ToTokens9to_tokensCs2nm8mGoL06A_14mockall_derive, symObjAddr: 0x4B9C, symBinAddr: 0x64A10, symSize: 0x40 }
  - { offset: 0xBA221, size: 0x8, addend: 0x0, symName: __RNvXNtCs2cqEZUIJimJ_5quote9to_tokensRNtNtCs6IAuOt8vWmF_3syn4item7ItemModNtB2_8ToTokens9to_tokensCs2nm8mGoL06A_14mockall_derive, symObjAddr: 0x4BDC, symBinAddr: 0x64A50, symSize: 0x40 }
  - { offset: 0xBA260, size: 0x8, addend: 0x0, symName: __RNvXNtCs2cqEZUIJimJ_5quote9to_tokensRNtNtCs6IAuOt8vWmF_3syn4item8ItemImplNtB2_8ToTokens9to_tokensCs2nm8mGoL06A_14mockall_derive, symObjAddr: 0x4C1C, symBinAddr: 0x64A90, symSize: 0x40 }
  - { offset: 0xBA29F, size: 0x8, addend: 0x0, symName: __RNvXNtCs2cqEZUIJimJ_5quote9to_tokensRNtNtCs6IAuOt8vWmF_3syn4item9SignatureNtB2_8ToTokens9to_tokensCs2nm8mGoL06A_14mockall_derive, symObjAddr: 0x4C5C, symBinAddr: 0x64AD0, symSize: 0x40 }
  - { offset: 0xBA2DE, size: 0x8, addend: 0x0, symName: __RNvXNtCs2cqEZUIJimJ_5quote9to_tokensRQNtNtCs6IAuOt8vWmF_3syn3pat7PatTypeNtB2_8ToTokens9to_tokensCs2nm8mGoL06A_14mockall_derive, symObjAddr: 0x4C9C, symBinAddr: 0x64B10, symSize: 0x40 }
  - { offset: 0xBA31D, size: 0x8, addend: 0x0, symName: __RNvXNtCs2cqEZUIJimJ_5quote9to_tokensRQNtNtCs6IAuOt8vWmF_3syn4item13TraitItemTypeNtB2_8ToTokens9to_tokensCs2nm8mGoL06A_14mockall_derive, symObjAddr: 0x4CDC, symBinAddr: 0x64B50, symSize: 0x40 }
  - { offset: 0xBA362, size: 0x8, addend: 0x0, symName: __RNvXs_NtCs2cqEZUIJimJ_5quote9to_tokensQNtNtCs6IAuOt8vWmF_3syn3pat7PatTypeNtB4_8ToTokens9to_tokensCs2nm8mGoL06A_14mockall_derive, symObjAddr: 0x591C, symBinAddr: 0x65790, symSize: 0x40 }
  - { offset: 0xBA3A1, size: 0x8, addend: 0x0, symName: __RNvXs_NtCs2cqEZUIJimJ_5quote9to_tokensQNtNtCs6IAuOt8vWmF_3syn4item13TraitItemTypeNtB4_8ToTokens9to_tokensCs2nm8mGoL06A_14mockall_derive, symObjAddr: 0x595C, symBinAddr: 0x657D0, symSize: 0x40 }
  - { offset: 0xBA3E6, size: 0x8, addend: 0x0, symName: __RNvYNtNtCs2nm8mGoL06A_14mockall_derive9mock_item8MockItemNtNtCs2cqEZUIJimJ_5quote9to_tokens8ToTokens15to_token_streamB6_, symObjAddr: 0x5AC0, symBinAddr: 0x65934, symSize: 0x8C }
  - { offset: 0xBA430, size: 0x8, addend: 0x0, symName: __RNvYNtNtCs2nm8mGoL06A_14mockall_derive9mock_item8MockItemNtNtCs2cqEZUIJimJ_5quote9to_tokens8ToTokens17into_token_streamB6_, symObjAddr: 0x5B4C, symBinAddr: 0x659C0, symSize: 0x64 }
  - { offset: 0xBA466, size: 0x8, addend: 0x0, symName: __RNvYNtNtCs6IAuOt8vWmF_3syn4item10ItemStaticNtNtCs2cqEZUIJimJ_5quote9to_tokens8ToTokens15to_token_streamCs2nm8mGoL06A_14mockall_derive, symObjAddr: 0x5BB0, symBinAddr: 0x65A24, symSize: 0x8C }
  - { offset: 0xBA4B0, size: 0x8, addend: 0x0, symName: __RNvYNtNtCs6IAuOt8vWmF_3syn4item10ItemStaticNtNtCs2cqEZUIJimJ_5quote9to_tokens8ToTokens17into_token_streamCs2nm8mGoL06A_14mockall_derive, symObjAddr: 0x5C3C, symBinAddr: 0x65AB0, symSize: 0x64 }
  - { offset: 0xBA4E6, size: 0x8, addend: 0x0, symName: __RNvYNtNtCs6IAuOt8vWmF_3syn4item14ItemTraitAliasNtNtCs2cqEZUIJimJ_5quote9to_tokens8ToTokens15to_token_streamCs2nm8mGoL06A_14mockall_derive, symObjAddr: 0x5CA0, symBinAddr: 0x65B14, symSize: 0x8C }
  - { offset: 0xBA530, size: 0x8, addend: 0x0, symName: __RNvYNtNtCs6IAuOt8vWmF_3syn4item14ItemTraitAliasNtNtCs2cqEZUIJimJ_5quote9to_tokens8ToTokens17into_token_streamCs2nm8mGoL06A_14mockall_derive, symObjAddr: 0x5D2C, symBinAddr: 0x65BA0, symSize: 0x64 }
  - { offset: 0xBA566, size: 0x8, addend: 0x0, symName: __RNvYNtNtCs6IAuOt8vWmF_3syn4item7ItemUseNtNtCs2cqEZUIJimJ_5quote9to_tokens8ToTokens15to_token_streamCs2nm8mGoL06A_14mockall_derive, symObjAddr: 0x5D90, symBinAddr: 0x65C04, symSize: 0x8C }
  - { offset: 0xBA5B0, size: 0x8, addend: 0x0, symName: __RNvYNtNtCs6IAuOt8vWmF_3syn4item7ItemUseNtNtCs2cqEZUIJimJ_5quote9to_tokens8ToTokens17into_token_streamCs2nm8mGoL06A_14mockall_derive, symObjAddr: 0x5E1C, symBinAddr: 0x65C90, symSize: 0x64 }
  - { offset: 0xBA5E6, size: 0x8, addend: 0x0, symName: __RNvYNtNtCs6IAuOt8vWmF_3syn4item8ItemTypeNtNtCs2cqEZUIJimJ_5quote9to_tokens8ToTokens15to_token_streamCs2nm8mGoL06A_14mockall_derive, symObjAddr: 0x5E80, symBinAddr: 0x65CF4, symSize: 0x8C }
  - { offset: 0xBA630, size: 0x8, addend: 0x0, symName: __RNvYNtNtCs6IAuOt8vWmF_3syn4item8ItemTypeNtNtCs2cqEZUIJimJ_5quote9to_tokens8ToTokens17into_token_streamCs2nm8mGoL06A_14mockall_derive, symObjAddr: 0x5F0C, symBinAddr: 0x65D80, symSize: 0x64 }
  - { offset: 0xBA666, size: 0x8, addend: 0x0, symName: __RNvYNtNtCs6IAuOt8vWmF_3syn4item9ItemConstNtNtCs2cqEZUIJimJ_5quote9to_tokens8ToTokens15to_token_streamCs2nm8mGoL06A_14mockall_derive, symObjAddr: 0x5F70, symBinAddr: 0x65DE4, symSize: 0x8C }
  - { offset: 0xBA6B0, size: 0x8, addend: 0x0, symName: __RNvYNtNtCs6IAuOt8vWmF_3syn4item9ItemConstNtNtCs2cqEZUIJimJ_5quote9to_tokens8ToTokens17into_token_streamCs2nm8mGoL06A_14mockall_derive, symObjAddr: 0x5FFC, symBinAddr: 0x65E70, symSize: 0x64 }
  - { offset: 0xBA6E6, size: 0x8, addend: 0x0, symName: __RNvYRNtNtCs6IAuOt8vWmF_3syn3pat3PatNtNtCs2cqEZUIJimJ_5quote9to_tokens8ToTokens15to_token_streamCs2nm8mGoL06A_14mockall_derive, symObjAddr: 0x6164, symBinAddr: 0x65FD8, symSize: 0x8C }
  - { offset: 0xBA730, size: 0x8, addend: 0x0, symName: __RNvYRNtNtCs6IAuOt8vWmF_3syn3pat3PatNtNtCs2cqEZUIJimJ_5quote9to_tokens8ToTokens17into_token_streamCs2nm8mGoL06A_14mockall_derive, symObjAddr: 0x61F0, symBinAddr: 0x66064, symSize: 0x54 }
  - { offset: 0xBA765, size: 0x8, addend: 0x0, symName: __RNvYRNtNtCs6IAuOt8vWmF_3syn4item11ForeignItemNtNtCs2cqEZUIJimJ_5quote9to_tokens8ToTokens15to_token_streamCs2nm8mGoL06A_14mockall_derive, symObjAddr: 0x6244, symBinAddr: 0x660B8, symSize: 0x8C }
  - { offset: 0xBA7AF, size: 0x8, addend: 0x0, symName: __RNvYRNtNtCs6IAuOt8vWmF_3syn4item11ForeignItemNtNtCs2cqEZUIJimJ_5quote9to_tokens8ToTokens17into_token_streamCs2nm8mGoL06A_14mockall_derive, symObjAddr: 0x62D0, symBinAddr: 0x66144, symSize: 0x54 }
  - { offset: 0xBA7E4, size: 0x8, addend: 0x0, symName: __RNvYRNtNtCs6IAuOt8vWmF_3syn4item13ForeignItemFnNtNtCs2cqEZUIJimJ_5quote9to_tokens8ToTokens15to_token_streamCs2nm8mGoL06A_14mockall_derive, symObjAddr: 0x6324, symBinAddr: 0x66198, symSize: 0x8C }
  - { offset: 0xBA82E, size: 0x8, addend: 0x0, symName: __RNvYRNtNtCs6IAuOt8vWmF_3syn4item13ForeignItemFnNtNtCs2cqEZUIJimJ_5quote9to_tokens8ToTokens17into_token_streamCs2nm8mGoL06A_14mockall_derive, symObjAddr: 0x63B0, symBinAddr: 0x66224, symSize: 0x54 }
  - { offset: 0xBA863, size: 0x8, addend: 0x0, symName: __RNvYRNtNtCs6IAuOt8vWmF_3syn4item13TraitItemTypeNtNtCs2cqEZUIJimJ_5quote9to_tokens8ToTokens15to_token_streamCs2nm8mGoL06A_14mockall_derive, symObjAddr: 0x6404, symBinAddr: 0x66278, symSize: 0x8C }
  - { offset: 0xBA8AD, size: 0x8, addend: 0x0, symName: __RNvYRNtNtCs6IAuOt8vWmF_3syn4item13TraitItemTypeNtNtCs2cqEZUIJimJ_5quote9to_tokens8ToTokens17into_token_streamCs2nm8mGoL06A_14mockall_derive, symObjAddr: 0x6490, symBinAddr: 0x66304, symSize: 0x54 }
  - { offset: 0xBA8E2, size: 0x8, addend: 0x0, symName: __RNvYRNtNtCs6IAuOt8vWmF_3syn4item14TraitItemConstNtNtCs2cqEZUIJimJ_5quote9to_tokens8ToTokens15to_token_streamCs2nm8mGoL06A_14mockall_derive, symObjAddr: 0x64E4, symBinAddr: 0x66358, symSize: 0x8C }
  - { offset: 0xBA92C, size: 0x8, addend: 0x0, symName: __RNvYRNtNtCs6IAuOt8vWmF_3syn4item14TraitItemConstNtNtCs2cqEZUIJimJ_5quote9to_tokens8ToTokens17into_token_streamCs2nm8mGoL06A_14mockall_derive, symObjAddr: 0x6570, symBinAddr: 0x663E4, symSize: 0x54 }
  - { offset: 0xBA961, size: 0x8, addend: 0x0, symName: __RNvYRNtNtCs6IAuOt8vWmF_3syn4item4ItemNtNtCs2cqEZUIJimJ_5quote9to_tokens8ToTokens15to_token_streamCs2nm8mGoL06A_14mockall_derive, symObjAddr: 0x65C4, symBinAddr: 0x66438, symSize: 0x8C }
  - { offset: 0xBA9AB, size: 0x8, addend: 0x0, symName: __RNvYRNtNtCs6IAuOt8vWmF_3syn4item4ItemNtNtCs2cqEZUIJimJ_5quote9to_tokens8ToTokens17into_token_streamCs2nm8mGoL06A_14mockall_derive, symObjAddr: 0x6650, symBinAddr: 0x664C4, symSize: 0x54 }
  - { offset: 0xBA9E0, size: 0x8, addend: 0x0, symName: __RNvYRNtNtCs6IAuOt8vWmF_3syn4item7ItemModNtNtCs2cqEZUIJimJ_5quote9to_tokens8ToTokens15to_token_streamCs2nm8mGoL06A_14mockall_derive, symObjAddr: 0x66A4, symBinAddr: 0x66518, symSize: 0x8C }
  - { offset: 0xBAA2A, size: 0x8, addend: 0x0, symName: __RNvYRNtNtCs6IAuOt8vWmF_3syn4item7ItemModNtNtCs2cqEZUIJimJ_5quote9to_tokens8ToTokens17into_token_streamCs2nm8mGoL06A_14mockall_derive, symObjAddr: 0x6730, symBinAddr: 0x665A4, symSize: 0x54 }
  - { offset: 0xBAA5F, size: 0x8, addend: 0x0, symName: __RNvYRNtNtCs6IAuOt8vWmF_3syn4item8ImplItemNtNtCs2cqEZUIJimJ_5quote9to_tokens8ToTokens15to_token_streamCs2nm8mGoL06A_14mockall_derive, symObjAddr: 0x6784, symBinAddr: 0x665F8, symSize: 0x8C }
  - { offset: 0xBAAA9, size: 0x8, addend: 0x0, symName: __RNvYRNtNtCs6IAuOt8vWmF_3syn4item8ImplItemNtNtCs2cqEZUIJimJ_5quote9to_tokens8ToTokens17into_token_streamCs2nm8mGoL06A_14mockall_derive, symObjAddr: 0x6810, symBinAddr: 0x66684, symSize: 0x54 }
  - { offset: 0xBAADE, size: 0x8, addend: 0x0, symName: __RNvYRNtNtCs6IAuOt8vWmF_3syn4item8ItemImplNtNtCs2cqEZUIJimJ_5quote9to_tokens8ToTokens15to_token_streamCs2nm8mGoL06A_14mockall_derive, symObjAddr: 0x6864, symBinAddr: 0x666D8, symSize: 0x8C }
  - { offset: 0xBAB28, size: 0x8, addend: 0x0, symName: __RNvYRNtNtCs6IAuOt8vWmF_3syn4item8ItemImplNtNtCs2cqEZUIJimJ_5quote9to_tokens8ToTokens17into_token_streamCs2nm8mGoL06A_14mockall_derive, symObjAddr: 0x68F0, symBinAddr: 0x66764, symSize: 0x54 }
  - { offset: 0xBAB5D, size: 0x8, addend: 0x0, symName: __RNvYRNtNtCs6IAuOt8vWmF_3syn4item9SignatureNtNtCs2cqEZUIJimJ_5quote9to_tokens8ToTokens15to_token_streamCs2nm8mGoL06A_14mockall_derive, symObjAddr: 0x6944, symBinAddr: 0x667B8, symSize: 0x8C }
  - { offset: 0xBABA7, size: 0x8, addend: 0x0, symName: __RNvYRNtNtCs6IAuOt8vWmF_3syn4item9SignatureNtNtCs2cqEZUIJimJ_5quote9to_tokens8ToTokens17into_token_streamCs2nm8mGoL06A_14mockall_derive, symObjAddr: 0x69D0, symBinAddr: 0x66844, symSize: 0x54 }
  - { offset: 0xBABDC, size: 0x8, addend: 0x0, symName: __RNvYRNtNtCs6IAuOt8vWmF_3syn4item9TraitItemNtNtCs2cqEZUIJimJ_5quote9to_tokens8ToTokens15to_token_streamCs2nm8mGoL06A_14mockall_derive, symObjAddr: 0x6A24, symBinAddr: 0x66898, symSize: 0x8C }
  - { offset: 0xBAC26, size: 0x8, addend: 0x0, symName: __RNvYRNtNtCs6IAuOt8vWmF_3syn4item9TraitItemNtNtCs2cqEZUIJimJ_5quote9to_tokens8ToTokens17into_token_streamCs2nm8mGoL06A_14mockall_derive, symObjAddr: 0x6AB0, symBinAddr: 0x66924, symSize: 0x54 }
  - { offset: 0xBAC5B, size: 0x8, addend: 0x0, symName: __RNvYRQNtNtCs6IAuOt8vWmF_3syn3pat7PatTypeNtNtCs2cqEZUIJimJ_5quote9to_tokens8ToTokens15to_token_streamCs2nm8mGoL06A_14mockall_derive, symObjAddr: 0x6B04, symBinAddr: 0x66978, symSize: 0x8C }
  - { offset: 0xBACA5, size: 0x8, addend: 0x0, symName: __RNvYRQNtNtCs6IAuOt8vWmF_3syn3pat7PatTypeNtNtCs2cqEZUIJimJ_5quote9to_tokens8ToTokens17into_token_streamCs2nm8mGoL06A_14mockall_derive, symObjAddr: 0x6B90, symBinAddr: 0x66A04, symSize: 0x54 }
  - { offset: 0xBACDA, size: 0x8, addend: 0x0, symName: __RNvYRQNtNtCs6IAuOt8vWmF_3syn4item13TraitItemTypeNtNtCs2cqEZUIJimJ_5quote9to_tokens8ToTokens15to_token_streamCs2nm8mGoL06A_14mockall_derive, symObjAddr: 0x6BE4, symBinAddr: 0x66A58, symSize: 0x8C }
  - { offset: 0xBAD24, size: 0x8, addend: 0x0, symName: __RNvYRQNtNtCs6IAuOt8vWmF_3syn4item13TraitItemTypeNtNtCs2cqEZUIJimJ_5quote9to_tokens8ToTokens17into_token_streamCs2nm8mGoL06A_14mockall_derive, symObjAddr: 0x6C70, symBinAddr: 0x66AE4, symSize: 0x54 }
  - { offset: 0xBAD65, size: 0x8, addend: 0x0, symName: __RNvXs0_NtCs2cqEZUIJimJ_5quote7spannedNtNtCs6IAuOt8vWmF_3syn3pat3PatNtB5_7Spanned6___spanCs2nm8mGoL06A_14mockall_derive, symObjAddr: 0x5080, symBinAddr: 0x64EF4, symSize: 0x44 }
  - { offset: 0xBAD9A, size: 0x8, addend: 0x0, symName: __RNvXs0_NtCs2cqEZUIJimJ_5quote7spannedNtNtCs6IAuOt8vWmF_3syn4item11ForeignItemNtB5_7Spanned6___spanCs2nm8mGoL06A_14mockall_derive, symObjAddr: 0x50C4, symBinAddr: 0x64F38, symSize: 0x44 }
  - { offset: 0xBADCF, size: 0x8, addend: 0x0, symName: __RNvXs0_NtCs2cqEZUIJimJ_5quote7spannedNtNtCs6IAuOt8vWmF_3syn4item13ForeignItemFnNtB5_7Spanned6___spanCs2nm8mGoL06A_14mockall_derive, symObjAddr: 0x5108, symBinAddr: 0x64F7C, symSize: 0x44 }
  - { offset: 0xBAE04, size: 0x8, addend: 0x0, symName: __RNvXs0_NtCs2cqEZUIJimJ_5quote7spannedNtNtCs6IAuOt8vWmF_3syn4item13TraitItemTypeNtB5_7Spanned6___spanCs2nm8mGoL06A_14mockall_derive, symObjAddr: 0x514C, symBinAddr: 0x64FC0, symSize: 0x44 }
  - { offset: 0xBAE39, size: 0x8, addend: 0x0, symName: __RNvXs0_NtCs2cqEZUIJimJ_5quote7spannedNtNtCs6IAuOt8vWmF_3syn4item14TraitItemConstNtB5_7Spanned6___spanCs2nm8mGoL06A_14mockall_derive, symObjAddr: 0x5190, symBinAddr: 0x65004, symSize: 0x44 }
  - { offset: 0xBAE6E, size: 0x8, addend: 0x0, symName: __RNvXs0_NtCs2cqEZUIJimJ_5quote7spannedNtNtCs6IAuOt8vWmF_3syn4item4ItemNtB5_7Spanned6___spanCs2nm8mGoL06A_14mockall_derive, symObjAddr: 0x51D4, symBinAddr: 0x65048, symSize: 0x44 }
  - { offset: 0xBAEA3, size: 0x8, addend: 0x0, symName: __RNvXs0_NtCs2cqEZUIJimJ_5quote7spannedNtNtCs6IAuOt8vWmF_3syn4item7ItemModNtB5_7Spanned6___spanCs2nm8mGoL06A_14mockall_derive, symObjAddr: 0x5218, symBinAddr: 0x6508C, symSize: 0x44 }
  - { offset: 0xBAED8, size: 0x8, addend: 0x0, symName: __RNvXs0_NtCs2cqEZUIJimJ_5quote7spannedNtNtCs6IAuOt8vWmF_3syn4item8ImplItemNtB5_7Spanned6___spanCs2nm8mGoL06A_14mockall_derive, symObjAddr: 0x525C, symBinAddr: 0x650D0, symSize: 0x44 }
  - { offset: 0xBAF0D, size: 0x8, addend: 0x0, symName: __RNvXs0_NtCs2cqEZUIJimJ_5quote7spannedNtNtCs6IAuOt8vWmF_3syn4item8ItemImplNtB5_7Spanned6___spanCs2nm8mGoL06A_14mockall_derive, symObjAddr: 0x52A0, symBinAddr: 0x65114, symSize: 0x44 }
  - { offset: 0xBAF42, size: 0x8, addend: 0x0, symName: __RNvXs0_NtCs2cqEZUIJimJ_5quote7spannedNtNtCs6IAuOt8vWmF_3syn4item9SignatureNtB5_7Spanned6___spanCs2nm8mGoL06A_14mockall_derive, symObjAddr: 0x52E4, symBinAddr: 0x65158, symSize: 0x44 }
  - { offset: 0xBAF77, size: 0x8, addend: 0x0, symName: __RNvXs0_NtCs2cqEZUIJimJ_5quote7spannedNtNtCs6IAuOt8vWmF_3syn4item9TraitItemNtB5_7Spanned6___spanCs2nm8mGoL06A_14mockall_derive, symObjAddr: 0x5328, symBinAddr: 0x6519C, symSize: 0x44 }
  - { offset: 0xBAFAC, size: 0x8, addend: 0x0, symName: __RNvXs0_NtCs2cqEZUIJimJ_5quote7spannedQNtNtCs6IAuOt8vWmF_3syn3pat7PatTypeNtB5_7Spanned6___spanCs2nm8mGoL06A_14mockall_derive, symObjAddr: 0x536C, symBinAddr: 0x651E0, symSize: 0x44 }
  - { offset: 0xBAFE1, size: 0x8, addend: 0x0, symName: __RNvXs0_NtCs2cqEZUIJimJ_5quote7spannedQNtNtCs6IAuOt8vWmF_3syn4item13TraitItemTypeNtB5_7Spanned6___spanCs2nm8mGoL06A_14mockall_derive, symObjAddr: 0x53B0, symBinAddr: 0x65224, symSize: 0x44 }
  - { offset: 0xBB3FC, size: 0x8, addend: 0x0, symName: __RNvMs_NtCs2nm8mGoL06A_14mockall_derive8automockNtB4_5Attrs8get_path, symObjAddr: 0x6E3C, symBinAddr: 0x66CB0, symSize: 0x154 }
  - { offset: 0xBB490, size: 0x8, addend: 0x0, symName: __RNvMs_NtCs2nm8mGoL06A_14mockall_derive8automockNtB4_5Attrs20substitute_item_impl, symObjAddr: 0x6F90, symBinAddr: 0x66E04, symSize: 0x3AC }
  - { offset: 0xBB5B2, size: 0x8, addend: 0x0, symName: __RNvMs_NtCs2nm8mGoL06A_14mockall_derive8automockNtB4_5Attrs23substitute_path_segment, symObjAddr: 0x733C, symBinAddr: 0x671B0, symSize: 0x26C }
  - { offset: 0xBB685, size: 0x8, addend: 0x0, symName: __RNvMs_NtCs2nm8mGoL06A_14mockall_derive8automockNtB4_5Attrs15substitute_type, symObjAddr: 0x75A8, symBinAddr: 0x6741C, symSize: 0xBD4 }
  - { offset: 0xBBA48, size: 0x8, addend: 0x0, symName: __RNvMs_NtCs2nm8mGoL06A_14mockall_derive8automockNtB4_5Attrs27substitute_type_param_bound, symObjAddr: 0x817C, symBinAddr: 0x67FF0, symSize: 0x394 }
  - { offset: 0xBBAEA, size: 0x8, addend: 0x0, symName: __RNvMs_NtCs2nm8mGoL06A_14mockall_derive8automockNtB4_5Attrs16substitute_trait, symObjAddr: 0x8510, symBinAddr: 0x68384, symSize: 0x57C }
  - { offset: 0xBC6E5, size: 0x8, addend: 0x0, symName: __RINvMNtCsfvfooZQ3Axs_4core6resultINtB3_6ResultNtNtCs6IAuOt8vWmF_3syn4item13TraitItemTypeNtNtBM_5error5ErrorE3mapNtNtCs2nm8mGoL06A_14mockall_derive8automock4AttrNcNtB1M_4Type0EB1Q_, symObjAddr: 0x0, symBinAddr: 0x6ACA4, symSize: 0xCC }
  - { offset: 0xBC741, size: 0x8, addend: 0x0, symName: __RNvXsw_NtCse1nGBsou5OW_5alloc6stringNtCs3cP53eQoTwO_11proc_macro211TokenStreamNtB5_8ToString9to_stringCs2nm8mGoL06A_14mockall_derive, symObjAddr: 0x9F88, symBinAddr: 0x74C24, symSize: 0x24 }
  - { offset: 0xBC77E, size: 0x8, addend: 0x0, symName: __RNvXsx_NtCse1nGBsou5OW_5alloc6stringNtCs3cP53eQoTwO_11proc_macro211TokenStreamNtB5_12SpecToString14spec_to_stringCs2nm8mGoL06A_14mockall_derive, symObjAddr: 0x9FAC, symBinAddr: 0x74C48, symSize: 0x144 }
  - { offset: 0xBDC30, size: 0x8, addend: 0x0, symName: __RINvXNtNtCse1nGBsou5OW_5alloc5slice4hackNtCs3cP53eQoTwO_11proc_macro211TokenStreamNtB3_10ConvertVec6to_vecNtNtB7_5alloc6GlobalECs2nm8mGoL06A_14mockall_derive, symObjAddr: 0xC04, symBinAddr: 0x6B8A8, symSize: 0x354 }
  - { offset: 0xBE0F3, size: 0x8, addend: 0x0, symName: __RINvXNtNtCse1nGBsou5OW_5alloc5slice4hackNtCs3cP53eQoTwO_11proc_macro25IdentNtB3_10ConvertVec6to_vecNtNtB7_5alloc6GlobalECs2nm8mGoL06A_14mockall_derive, symObjAddr: 0xF58, symBinAddr: 0x6BBFC, symSize: 0x36C }
  - { offset: 0xBFACF, size: 0x8, addend: 0x0, symName: __RNvXsp_NtCsfvfooZQ3Axs_4core6resultINtB5_6ResultINtNtCse1nGBsou5OW_5alloc5boxed3BoxNtNtCs6IAuOt8vWmF_3syn2ty4TypeENtNtB1n_5error5ErrorEINtNtNtB7_3ops9try_trait12FromResidualIBy_NtNtB7_7convert10InfallibleB1O_EE13from_residualCs2nm8mGoL06A_14mockall_derive, symObjAddr: 0x9E70, symBinAddr: 0x74B14, symSize: 0x40 }
  - { offset: 0xBFB54, size: 0x8, addend: 0x0, symName: __RNvXsp_NtCsfvfooZQ3Axs_4core6resultINtB5_6ResultNtNtCs2nm8mGoL06A_14mockall_derive15mockable_struct12TraitItemVFnNtNtCs6IAuOt8vWmF_3syn5error5ErrorEINtNtNtB7_3ops9try_trait12FromResidualIBy_NtNtB7_7convert10InfallibleB1N_EE13from_residualBO_, symObjAddr: 0x9EB8, symBinAddr: 0x74B54, symSize: 0x48 }
  - { offset: 0xBFBD9, size: 0x8, addend: 0x0, symName: __RNvXsp_NtCsfvfooZQ3Axs_4core6resultINtB5_6ResultNtNtCs2nm8mGoL06A_14mockall_derive15mockable_struct14MockableStructNtNtCs6IAuOt8vWmF_3syn5error5ErrorEINtNtNtB7_3ops9try_trait12FromResidualIBy_NtNtB7_7convert10InfallibleB1P_EE13from_residualBO_, symObjAddr: 0x9F00, symBinAddr: 0x74B9C, symSize: 0x48 }
  - { offset: 0xBFC5E, size: 0x8, addend: 0x0, symName: __RNvXsp_NtCsfvfooZQ3Axs_4core6resultINtB5_6ResultNtNtCs2nm8mGoL06A_14mockall_derive8automock5AttrsNtNtCs6IAuOt8vWmF_3syn5error5ErrorEINtNtNtB7_3ops9try_trait12FromResidualIBy_NtNtB7_7convert10InfallibleB1x_EE13from_residualBO_, symObjAddr: 0x9F48, symBinAddr: 0x74BE4, symSize: 0x40 }
  - { offset: 0xBFE78, size: 0x8, addend: 0x0, symName: __RNvXso_NtCsfvfooZQ3Axs_4core6resultINtB5_6ResultINtNtNtCse1nGBsou5OW_5alloc3vec13in_place_drop11InPlaceDropNtNtCs6IAuOt8vWmF_3syn4item4ItemEzENtNtNtB7_3ops9try_trait3Try11from_outputCs2nm8mGoL06A_14mockall_derive, symObjAddr: 0x99C4, symBinAddr: 0x74668, symSize: 0x2C }
  - { offset: 0xBFEB8, size: 0x8, addend: 0x0, symName: __RNvXso_NtCsfvfooZQ3Axs_4core6resultINtB5_6ResultINtNtNtCse1nGBsou5OW_5alloc3vec13in_place_drop11InPlaceDropNtNtCs6IAuOt8vWmF_3syn4item4ItemEzENtNtNtB7_3ops9try_trait3Try6branchCs2nm8mGoL06A_14mockall_derive, symObjAddr: 0x99F0, symBinAddr: 0x74694, symSize: 0x3C }
  - { offset: 0xBFF16, size: 0x8, addend: 0x0, symName: __RNvXso_NtCsfvfooZQ3Axs_4core6resultINtB5_6ResultNtNtCs2nm8mGoL06A_14mockall_derive15mockable_struct12TraitItemVFnNtNtCs6IAuOt8vWmF_3syn5error5ErrorENtNtNtB7_3ops9try_trait3Try6branchBO_, symObjAddr: 0x9A2C, symBinAddr: 0x746D0, symSize: 0xC0 }
  - { offset: 0xBFF94, size: 0x8, addend: 0x0, symName: __RNvXso_NtCsfvfooZQ3Axs_4core6resultINtB5_6ResultNtNtCs2nm8mGoL06A_14mockall_derive15mockable_struct14MockableStructNtNtCs6IAuOt8vWmF_3syn5error5ErrorENtNtNtB7_3ops9try_trait3Try6branchBO_, symObjAddr: 0x9AEC, symBinAddr: 0x74790, symSize: 0xB8 }
  - { offset: 0xC0012, size: 0x8, addend: 0x0, symName: __RNvXso_NtCsfvfooZQ3Axs_4core6resultINtB5_6ResultNtNtCs2nm8mGoL06A_14mockall_derive8automock4AttrNtNtCs6IAuOt8vWmF_3syn5error5ErrorENtNtNtB7_3ops9try_trait3Try6branchBO_, symObjAddr: 0x9BA4, symBinAddr: 0x74848, symSize: 0xB4 }
  - { offset: 0xC0090, size: 0x8, addend: 0x0, symName: __RNvXso_NtCsfvfooZQ3Axs_4core6resultINtB5_6ResultNtNtCs2nm8mGoL06A_14mockall_derive8automock5AttrsNtNtCs6IAuOt8vWmF_3syn5error5ErrorENtNtNtB7_3ops9try_trait3Try6branchBO_, symObjAddr: 0x9C58, symBinAddr: 0x748FC, symSize: 0xA8 }
  - { offset: 0xC010D, size: 0x8, addend: 0x0, symName: __RNvXso_NtCsfvfooZQ3Axs_4core6resultINtB5_6ResultNtNtCs6IAuOt8vWmF_3syn4attr8MetaListNtNtBO_5error5ErrorENtNtNtB7_3ops9try_trait3Try6branchCs2nm8mGoL06A_14mockall_derive, symObjAddr: 0x9D00, symBinAddr: 0x749A4, symSize: 0xB0 }
  - { offset: 0xC018A, size: 0x8, addend: 0x0, symName: __RNvXso_NtCsfvfooZQ3Axs_4core6resultINtB5_6ResultNtNtCs6IAuOt8vWmF_3syn4item11TraitItemFnNtNtBO_5error5ErrorENtNtNtB7_3ops9try_trait3Try6branchCs2nm8mGoL06A_14mockall_derive, symObjAddr: 0x9DB0, symBinAddr: 0x74A54, symSize: 0xC0 }
  - { offset: 0xC3A3B, size: 0x8, addend: 0x0, symName: __RINvXs3_NtNtCsfvfooZQ3Axs_4core4hash5implsRNtCs3cP53eQoTwO_11proc_macro25IdentNtB8_4Hash4hashNtNtNtCscOYdFFY2T5N_3std4hash6random13DefaultHasherECs2nm8mGoL06A_14mockall_derive, symObjAddr: 0x1590, symBinAddr: 0x6C234, symSize: 0x30 }
  - { offset: 0xC3A8C, size: 0x8, addend: 0x0, symName: __RINvXsl_NtNtCsfvfooZQ3Axs_4core4hash5implsTNtCs3cP53eQoTwO_11proc_macro25IdentNtNtCs6IAuOt8vWmF_3syn5token5ColonENtB8_4Hash4hashNtNtNtCscOYdFFY2T5N_3std4hash6random13DefaultHasherECs2nm8mGoL06A_14mockall_derive, symObjAddr: 0x3594, symBinAddr: 0x6E238, symSize: 0x4C }
  - { offset: 0xC3B0E, size: 0x8, addend: 0x0, symName: __RINvXsl_NtNtCsfvfooZQ3Axs_4core4hash5implsThRNtCs3cP53eQoTwO_11proc_macro25IdentENtB8_4Hash4hashNtNtNtCscOYdFFY2T5N_3std4hash6random13DefaultHasherECs2nm8mGoL06A_14mockall_derive, symObjAddr: 0x35E0, symBinAddr: 0x6E284, symSize: 0x4C }
  - { offset: 0xC3B97, size: 0x8, addend: 0x0, symName: __RINvYINtNtCsfvfooZQ3Axs_4core4hash18BuildHasherDefaultNtNtNtCscOYdFFY2T5N_3std4hash6random13DefaultHasherENtB6_11BuildHasher8hash_oneRNtNtCs6IAuOt8vWmF_3syn2ty4TypeECs2nm8mGoL06A_14mockall_derive, symObjAddr: 0x36FC, symBinAddr: 0x6E3A0, symSize: 0x84 }
  - { offset: 0xC3BFC, size: 0x8, addend: 0x0, symName: __RINvYINtNtCsfvfooZQ3Axs_4core4hash18BuildHasherDefaultNtNtNtCscOYdFFY2T5N_3std4hash6random13DefaultHasherENtB6_11BuildHasher8hash_oneRNtNtCs6IAuOt8vWmF_3syn8generics13LifetimeParamECs2nm8mGoL06A_14mockall_derive, symObjAddr: 0x3780, symBinAddr: 0x6E424, symSize: 0x84 }
  - { offset: 0xC3C61, size: 0x8, addend: 0x0, symName: __RINvYINtNtCsfvfooZQ3Axs_4core4hash18BuildHasherDefaultNtNtNtCscOYdFFY2T5N_3std4hash6random13DefaultHasherENtB6_11BuildHasher8hash_oneRNtNtCs6IAuOt8vWmF_3syn8lifetime8LifetimeECs2nm8mGoL06A_14mockall_derive, symObjAddr: 0x3804, symBinAddr: 0x6E4A8, symSize: 0x84 }
  - { offset: 0xC3CCC, size: 0x8, addend: 0x0, symName: __RNvXs1_NtCsfvfooZQ3Axs_4core4hashINtB5_18BuildHasherDefaultNtNtNtCscOYdFFY2T5N_3std4hash6random13DefaultHasherENtB5_11BuildHasher12build_hasherCs2nm8mGoL06A_14mockall_derive, symObjAddr: 0x65B4, symBinAddr: 0x71258, symSize: 0x20 }
  - { offset: 0xC3D09, size: 0x8, addend: 0x0, symName: __RNvXs3_NtCsfvfooZQ3Axs_4core4hashINtB5_18BuildHasherDefaultNtNtNtCscOYdFFY2T5N_3std4hash6random13DefaultHasherENtNtB7_7default7Default7defaultCs2nm8mGoL06A_14mockall_derive, symObjAddr: 0x6A20, symBinAddr: 0x716C4, symSize: 0x4 }
  - { offset: 0xC3D43, size: 0x8, addend: 0x0, symName: __RNvXs1_NtCsfvfooZQ3Axs_4core7convertNtCs3cP53eQoTwO_11proc_macro211TokenStreamINtB5_4IntoNtCs9i5KxIbZ5ph_10proc_macro11TokenStreamE4intoCs2nm8mGoL06A_14mockall_derive, symObjAddr: 0x65D4, symBinAddr: 0x71278, symSize: 0x14 }
  - { offset: 0xC42CE, size: 0x8, addend: 0x0, symName: __RNvXs2_NtNtNtCsfvfooZQ3Axs_4core3ops8function5implsQNCINvXs6_NtCs3cP53eQoTwO_11proc_macro23impNtBX_11TokenStreamINtNtNtNtBb_4iter6traits7collect12FromIteratorB1u_E9from_iterINtNtNtB1T_8adapters3map3MapIB2M_INtNtB2Q_3zip3ZipINtNtNtBb_5slice4iter4IterNtBZ_5IdentEIB3A_NtNtCs6IAuOt8vWmF_3syn2ty4TypeEENCNvXs0_NtCs2nm8mGoL06A_14mockall_derive13mock_functionNtB4U_6CommonNtNtCs2cqEZUIJimJ_5quote9to_tokens8ToTokens9to_tokenss_0ENCINvXs7_BZ_NtBZ_11TokenStreamIB1N_B6Z_E9from_iterB3d_E0EEs_0INtB7_6FnOnceTB1u_EE9call_onceB4W_, symObjAddr: 0x65E8, symBinAddr: 0x7128C, symSize: 0x3C }
  - { offset: 0xC431D, size: 0x8, addend: 0x0, symName: __RNvXs2_NtNtNtCsfvfooZQ3Axs_4core3ops8function5implsQNCINvXs6_NtCs3cP53eQoTwO_11proc_macro23impNtBX_11TokenStreamINtNtNtNtBb_4iter6traits7collect12FromIteratorB1u_E9from_iterINtNtNtB1T_8adapters3map3MapIB2M_INtNtB2Q_3zip3ZipINtNtNtBb_5slice4iter4IterNtBZ_5IdentEIB3A_NtNtCs6IAuOt8vWmF_3syn2ty4TypeEENCNvXs1_NtCs2nm8mGoL06A_14mockall_derive13mock_functionNtB4U_24CommonExpectationMethodsNtNtCs2cqEZUIJimJ_5quote9to_tokens8ToTokens9to_tokenss_0ENCINvXs7_BZ_NtBZ_11TokenStreamIB1N_B7i_E9from_iterB3d_E0EEs_0INtB7_6FnOnceTB1u_EE9call_onceB4W_, symObjAddr: 0x6624, symBinAddr: 0x712C8, symSize: 0x3C }
  - { offset: 0xC436C, size: 0x8, addend: 0x0, symName: __RNvXs2_NtNtNtCsfvfooZQ3Axs_4core3ops8function5implsQNCINvXs6_NtCs3cP53eQoTwO_11proc_macro23impNtBX_11TokenStreamINtNtNtNtBb_4iter6traits7collect12FromIteratorB1u_E9from_iterINtNtNtB1T_8adapters3map3MapIB2M_INtNtB2Q_3zip3ZipINtNtNtBb_5slice4iter4IterNtBZ_5IdentEIB3A_NtNtCs6IAuOt8vWmF_3syn2ty4TypeEENCNvXs3_NtCs2nm8mGoL06A_14mockall_derive13mock_functionNtB4U_29ExpectationGuardCommonMethodsNtNtCs2cqEZUIJimJ_5quote9to_tokens8ToTokens9to_tokenss_0ENCINvXs7_BZ_NtBZ_11TokenStreamIB1N_B7n_E9from_iterB3d_E0EEs_0INtB7_6FnOnceTB1u_EE9call_onceB4W_, symObjAddr: 0x6660, symBinAddr: 0x71304, symSize: 0x3C }
  - { offset: 0xC43BB, size: 0x8, addend: 0x0, symName: __RNvXs2_NtNtNtCsfvfooZQ3Axs_4core3ops8function5implsQNCINvXs6_NtCs3cP53eQoTwO_11proc_macro23impNtBX_11TokenStreamINtNtNtNtBb_4iter6traits7collect12FromIteratorB1u_E9from_iterINtNtNtB1T_8adapters3map3MapIB2M_INtNtB2Q_3zip3ZipINtNtNtBb_5slice4iter4IterNtNtCs6IAuOt8vWmF_3syn3pat3PatEIB3A_NtBZ_5IdentEENCNvXs0_NtCs2nm8mGoL06A_14mockall_derive13mock_functionNtB4U_6CommonNtNtCs2cqEZUIJimJ_5quote9to_tokens8ToTokens9to_tokenss0_0ENCINvXs7_BZ_NtBZ_11TokenStreamIB1N_B70_E9from_iterB3d_E0EEs_0INtB7_6FnOnceTB1u_EE9call_onceB4W_, symObjAddr: 0x669C, symBinAddr: 0x71340, symSize: 0x3C }
  - { offset: 0xC440A, size: 0x8, addend: 0x0, symName: __RNvXs2_NtNtNtCsfvfooZQ3Axs_4core3ops8function5implsQNCINvXs6_NtCs3cP53eQoTwO_11proc_macro23impNtBX_11TokenStreamINtNtNtNtBb_4iter6traits7collect12FromIteratorB1u_E9from_iterINtNtNtB1T_8adapters3map3MapIB2M_INtNtB2Q_3zip3ZipINtNtNtBb_5slice4iter4IterNtNtCs6IAuOt8vWmF_3syn3pat3PatEIB3A_NtBZ_5IdentEENCNvXs1_NtCs2nm8mGoL06A_14mockall_derive13mock_functionNtB4U_24CommonExpectationMethodsNtNtCs2cqEZUIJimJ_5quote9to_tokens8ToTokens9to_tokenss0_0ENCINvXs7_BZ_NtBZ_11TokenStreamIB1N_B7j_E9from_iterB3d_E0EEs_0INtB7_6FnOnceTB1u_EE9call_onceB4W_, symObjAddr: 0x66D8, symBinAddr: 0x7137C, symSize: 0x3C }
  - { offset: 0xC4459, size: 0x8, addend: 0x0, symName: __RNvXs2_NtNtNtCsfvfooZQ3Axs_4core3ops8function5implsQNCINvXs6_NtCs3cP53eQoTwO_11proc_macro23impNtBX_11TokenStreamINtNtNtNtBb_4iter6traits7collect12FromIteratorB1u_E9from_iterINtNtNtB1T_8adapters3map3MapIB2M_INtNtB2Q_3zip3ZipINtNtNtBb_5slice4iter4IterNtNtCs6IAuOt8vWmF_3syn3pat3PatEIB3A_NtBZ_5IdentEENCNvXs3_NtCs2nm8mGoL06A_14mockall_derive13mock_functionNtB4U_29ExpectationGuardCommonMethodsNtNtCs2cqEZUIJimJ_5quote9to_tokens8ToTokens9to_tokenss0_0ENCINvXs7_BZ_NtBZ_11TokenStreamIB1N_B7o_E9from_iterB3d_E0EEs_0INtB7_6FnOnceTB1u_EE9call_onceB4W_, symObjAddr: 0x6714, symBinAddr: 0x713B8, symSize: 0x3C }
  - { offset: 0xC44A8, size: 0x8, addend: 0x0, symName: __RNvXs2_NtNtNtCsfvfooZQ3Axs_4core3ops8function5implsQNCINvXs6_NtCs3cP53eQoTwO_11proc_macro23impNtBX_11TokenStreamINtNtNtNtBb_4iter6traits7collect12FromIteratorB1u_E9from_iterINtNtNtB1T_8adapters3map3MapIB2M_INtNtB2Q_9enumerate9EnumerateINtNtNtBb_5slice4iter4IterNtNtCs6IAuOt8vWmF_3syn3pat3PatEENCNvXs7_NtCs2nm8mGoL06A_14mockall_derive13mock_functionNtB4P_7MatcherNtNtCs2cqEZUIJimJ_5quote9to_tokens8ToTokens9to_tokenss0_0ENCINvXs7_BZ_NtBZ_11TokenStreamIB1N_B6W_E9from_iterB3d_E0EEs_0INtB7_6FnOnceTB1u_EE9call_onceB4R_, symObjAddr: 0x6750, symBinAddr: 0x713F4, symSize: 0x3C }
  - { offset: 0xC44F7, size: 0x8, addend: 0x0, symName: __RNvXs2_NtNtNtCsfvfooZQ3Axs_4core3ops8function5implsQNCINvXs6_NtCs3cP53eQoTwO_11proc_macro23impNtBX_11TokenStreamINtNtNtNtBb_4iter6traits7collect12FromIteratorB1u_E9from_iterINtNtNtB1T_8adapters3map3MapIB2M_INtNtNtBb_5slice4iter4IterNtNtCs6IAuOt8vWmF_3syn2ty4TypeENCNvXs7_NtCs2nm8mGoL06A_14mockall_derive13mock_functionNtB4l_7MatcherNtNtCs2cqEZUIJimJ_5quote9to_tokens8ToTokens9to_tokenss1_0ENCINvXs7_BZ_NtBZ_11TokenStreamIB1N_B6s_E9from_iterB3d_E0EEs_0INtB7_6FnOnceTB1u_EE9call_onceB4n_, symObjAddr: 0x678C, symBinAddr: 0x71430, symSize: 0x3C }
  - { offset: 0xC4546, size: 0x8, addend: 0x0, symName: __RNvXs2_NtNtNtCsfvfooZQ3Axs_4core3ops8function5implsQNCINvXs6_NtCs3cP53eQoTwO_11proc_macro23impNtBX_11TokenStreamINtNtNtNtBb_4iter6traits7collect12FromIteratorB1u_E9from_iterINtNtNtB1T_8adapters3map3MapIB2M_INtNtNtBb_5slice4iter4IterNtNtCs6IAuOt8vWmF_3syn3pat3PatENCNvXs0_NtCs2nm8mGoL06A_14mockall_derive13mock_functionNtB4l_6CommonNtNtCs2cqEZUIJimJ_5quote9to_tokens8ToTokens9to_tokenss1_0ENCINvXs7_BZ_NtBZ_11TokenStreamIB1N_B6r_E9from_iterB3d_E0EEs_0INtB7_6FnOnceTB1u_EE9call_onceB4n_, symObjAddr: 0x67C8, symBinAddr: 0x7146C, symSize: 0x3C }
  - { offset: 0xC4595, size: 0x8, addend: 0x0, symName: __RNvXs2_NtNtNtCsfvfooZQ3Axs_4core3ops8function5implsQNCINvXs7_Cs3cP53eQoTwO_11proc_macro2NtBX_11TokenStreamINtNtNtNtBb_4iter6traits7collect12FromIteratorB1o_E9from_iterINtNtNtB1N_8adapters3map3MapINtNtB2K_3zip3ZipINtNtNtBb_5slice4iter4IterNtBX_5IdentEIB3p_NtNtCs6IAuOt8vWmF_3syn2ty4TypeEENCNvXs0_NtCs2nm8mGoL06A_14mockall_derive13mock_functionNtB4J_6CommonNtNtCs2cqEZUIJimJ_5quote9to_tokens8ToTokens9to_tokenss_0EE0INtB7_6FnOnceTB1o_EE9call_onceB4L_, symObjAddr: 0x6804, symBinAddr: 0x714A8, symSize: 0x3C }
  - { offset: 0xC45E4, size: 0x8, addend: 0x0, symName: __RNvXs2_NtNtNtCsfvfooZQ3Axs_4core3ops8function5implsQNCINvXs7_Cs3cP53eQoTwO_11proc_macro2NtBX_11TokenStreamINtNtNtNtBb_4iter6traits7collect12FromIteratorB1o_E9from_iterINtNtNtB1N_8adapters3map3MapINtNtB2K_3zip3ZipINtNtNtBb_5slice4iter4IterNtBX_5IdentEIB3p_NtNtCs6IAuOt8vWmF_3syn2ty4TypeEENCNvXs1_NtCs2nm8mGoL06A_14mockall_derive13mock_functionNtB4J_24CommonExpectationMethodsNtNtCs2cqEZUIJimJ_5quote9to_tokens8ToTokens9to_tokenss_0EE0INtB7_6FnOnceTB1o_EE9call_onceB4L_, symObjAddr: 0x6840, symBinAddr: 0x714E4, symSize: 0x3C }
  - { offset: 0xC4633, size: 0x8, addend: 0x0, symName: __RNvXs2_NtNtNtCsfvfooZQ3Axs_4core3ops8function5implsQNCINvXs7_Cs3cP53eQoTwO_11proc_macro2NtBX_11TokenStreamINtNtNtNtBb_4iter6traits7collect12FromIteratorB1o_E9from_iterINtNtNtB1N_8adapters3map3MapINtNtB2K_3zip3ZipINtNtNtBb_5slice4iter4IterNtBX_5IdentEIB3p_NtNtCs6IAuOt8vWmF_3syn2ty4TypeEENCNvXs3_NtCs2nm8mGoL06A_14mockall_derive13mock_functionNtB4J_29ExpectationGuardCommonMethodsNtNtCs2cqEZUIJimJ_5quote9to_tokens8ToTokens9to_tokenss_0EE0INtB7_6FnOnceTB1o_EE9call_onceB4L_, symObjAddr: 0x687C, symBinAddr: 0x71520, symSize: 0x3C }
  - { offset: 0xC4682, size: 0x8, addend: 0x0, symName: __RNvXs2_NtNtNtCsfvfooZQ3Axs_4core3ops8function5implsQNCINvXs7_Cs3cP53eQoTwO_11proc_macro2NtBX_11TokenStreamINtNtNtNtBb_4iter6traits7collect12FromIteratorB1o_E9from_iterINtNtNtB1N_8adapters3map3MapINtNtB2K_3zip3ZipINtNtNtBb_5slice4iter4IterNtNtCs6IAuOt8vWmF_3syn3pat3PatEIB3p_NtBX_5IdentEENCNvXs0_NtCs2nm8mGoL06A_14mockall_derive13mock_functionNtB4J_6CommonNtNtCs2cqEZUIJimJ_5quote9to_tokens8ToTokens9to_tokenss0_0EE0INtB7_6FnOnceTB1o_EE9call_onceB4L_, symObjAddr: 0x68B8, symBinAddr: 0x7155C, symSize: 0x3C }
  - { offset: 0xC46D1, size: 0x8, addend: 0x0, symName: __RNvXs2_NtNtNtCsfvfooZQ3Axs_4core3ops8function5implsQNCINvXs7_Cs3cP53eQoTwO_11proc_macro2NtBX_11TokenStreamINtNtNtNtBb_4iter6traits7collect12FromIteratorB1o_E9from_iterINtNtNtB1N_8adapters3map3MapINtNtB2K_3zip3ZipINtNtNtBb_5slice4iter4IterNtNtCs6IAuOt8vWmF_3syn3pat3PatEIB3p_NtBX_5IdentEENCNvXs1_NtCs2nm8mGoL06A_14mockall_derive13mock_functionNtB4J_24CommonExpectationMethodsNtNtCs2cqEZUIJimJ_5quote9to_tokens8ToTokens9to_tokenss0_0EE0INtB7_6FnOnceTB1o_EE9call_onceB4L_, symObjAddr: 0x68F4, symBinAddr: 0x71598, symSize: 0x3C }
  - { offset: 0xC4720, size: 0x8, addend: 0x0, symName: __RNvXs2_NtNtNtCsfvfooZQ3Axs_4core3ops8function5implsQNCINvXs7_Cs3cP53eQoTwO_11proc_macro2NtBX_11TokenStreamINtNtNtNtBb_4iter6traits7collect12FromIteratorB1o_E9from_iterINtNtNtB1N_8adapters3map3MapINtNtB2K_3zip3ZipINtNtNtBb_5slice4iter4IterNtNtCs6IAuOt8vWmF_3syn3pat3PatEIB3p_NtBX_5IdentEENCNvXs3_NtCs2nm8mGoL06A_14mockall_derive13mock_functionNtB4J_29ExpectationGuardCommonMethodsNtNtCs2cqEZUIJimJ_5quote9to_tokens8ToTokens9to_tokenss0_0EE0INtB7_6FnOnceTB1o_EE9call_onceB4L_, symObjAddr: 0x6930, symBinAddr: 0x715D4, symSize: 0x3C }
  - { offset: 0xC476F, size: 0x8, addend: 0x0, symName: __RNvXs2_NtNtNtCsfvfooZQ3Axs_4core3ops8function5implsQNCINvXs7_Cs3cP53eQoTwO_11proc_macro2NtBX_11TokenStreamINtNtNtNtBb_4iter6traits7collect12FromIteratorB1o_E9from_iterINtNtNtB1N_8adapters3map3MapINtNtB2K_9enumerate9EnumerateINtNtNtBb_5slice4iter4IterNtNtCs6IAuOt8vWmF_3syn3pat3PatEENCNvXs7_NtCs2nm8mGoL06A_14mockall_derive13mock_functionNtB4E_7MatcherNtNtCs2cqEZUIJimJ_5quote9to_tokens8ToTokens9to_tokenss0_0EE0INtB7_6FnOnceTB1o_EE9call_onceB4G_, symObjAddr: 0x696C, symBinAddr: 0x71610, symSize: 0x3C }
  - { offset: 0xC47BE, size: 0x8, addend: 0x0, symName: __RNvXs2_NtNtNtCsfvfooZQ3Axs_4core3ops8function5implsQNCINvXs7_Cs3cP53eQoTwO_11proc_macro2NtBX_11TokenStreamINtNtNtNtBb_4iter6traits7collect12FromIteratorB1o_E9from_iterINtNtNtB1N_8adapters3map3MapINtNtNtBb_5slice4iter4IterNtNtCs6IAuOt8vWmF_3syn2ty4TypeENCNvXs7_NtCs2nm8mGoL06A_14mockall_derive13mock_functionNtB4a_7MatcherNtNtCs2cqEZUIJimJ_5quote9to_tokens8ToTokens9to_tokenss1_0EE0INtB7_6FnOnceTB1o_EE9call_onceB4c_, symObjAddr: 0x69A8, symBinAddr: 0x7164C, symSize: 0x3C }
  - { offset: 0xC480D, size: 0x8, addend: 0x0, symName: __RNvXs2_NtNtNtCsfvfooZQ3Axs_4core3ops8function5implsQNCINvXs7_Cs3cP53eQoTwO_11proc_macro2NtBX_11TokenStreamINtNtNtNtBb_4iter6traits7collect12FromIteratorB1o_E9from_iterINtNtNtB1N_8adapters3map3MapINtNtNtBb_5slice4iter4IterNtNtCs6IAuOt8vWmF_3syn3pat3PatENCNvXs0_NtCs2nm8mGoL06A_14mockall_derive13mock_functionNtB4a_6CommonNtNtCs2cqEZUIJimJ_5quote9to_tokens8ToTokens9to_tokenss1_0EE0INtB7_6FnOnceTB1o_EE9call_onceB4c_, symObjAddr: 0x69E4, symBinAddr: 0x71688, symSize: 0x3C }
  - { offset: 0xC4D43, size: 0x8, addend: 0x0, symName: __RNvMNtCsfvfooZQ3Axs_4core5sliceSNtCs3cP53eQoTwO_11proc_macro211TokenStream4iterCs2nm8mGoL06A_14mockall_derive, symObjAddr: 0x50DC, symBinAddr: 0x6FD80, symSize: 0x28 }
  - { offset: 0xC4D7A, size: 0x8, addend: 0x0, symName: __RNvMNtCsfvfooZQ3Axs_4core5sliceSNtCs3cP53eQoTwO_11proc_macro25Ident4iterCs2nm8mGoL06A_14mockall_derive, symObjAddr: 0x5104, symBinAddr: 0x6FDA8, symSize: 0x28 }
  - { offset: 0xC4DB1, size: 0x8, addend: 0x0, symName: __RNvMNtCsfvfooZQ3Axs_4core5sliceSTNtCs3cP53eQoTwO_11proc_macro25IdentNtNtCs6IAuOt8vWmF_3syn5token5CommaE4iterCs2nm8mGoL06A_14mockall_derive, symObjAddr: 0x512C, symBinAddr: 0x6FDD0, symSize: 0x28 }
  - { offset: 0xC5615, size: 0x8, addend: 0x0, symName: __RINvYINtNtNtNtCscOYdFFY2T5N_3std11collections4hash3set4IterNtNtCs6IAuOt8vWmF_3syn8generics13LifetimeParamENtNtNtNtCsfvfooZQ3Axs_4core4iter6traits8iterator8Iterator5chainINtB6_10DifferenceBV_INtNtB1O_4hash18BuildHasherDefaultNtNtNtBc_4hash6random13DefaultHasherEEECs2nm8mGoL06A_14mockall_derive, symObjAddr: 0x3888, symBinAddr: 0x6E52C, symSize: 0xC8 }
  - { offset: 0xC568E, size: 0x8, addend: 0x0, symName: __RINvYINtNtNtNtCscOYdFFY2T5N_3std11collections4hash3set5UnionNtNtCs6IAuOt8vWmF_3syn8generics13LifetimeParamINtNtCsfvfooZQ3Axs_4core4hash18BuildHasherDefaultNtNtNtBc_4hash6random13DefaultHasherEENtNtNtNtB1L_4iter6traits8iterator8Iterator6clonedBW_ECs2nm8mGoL06A_14mockall_derive, symObjAddr: 0x3950, symBinAddr: 0x6E5F4, symSize: 0x30 }
  - { offset: 0xC56E4, size: 0x8, addend: 0x0, symName: __RINvYINtNtNtNtCscOYdFFY2T5N_3std11collections4hash3set8IntoIterNtNtCs6IAuOt8vWmF_3syn8lifetime8LifetimeENtNtNtNtCsfvfooZQ3Axs_4core4iter6traits8iterator8Iterator3mapTBZ_uENCINvXs8_NtCsloNvcHxBCre_9hashbrown3setINtB2S_7HashSetBZ_INtNtB1M_4hash18BuildHasherDefaultNtNtNtBc_4hash6random13DefaultHasherEEINtNtB1I_7collect6ExtendBZ_E6extendINtB6_7HashSetBZ_B3E_EE0ECs2nm8mGoL06A_14mockall_derive, symObjAddr: 0x3980, symBinAddr: 0x6E624, symSize: 0x30 }
  - { offset: 0xC577D, size: 0x8, addend: 0x0, symName: __RNvXNtNtNtCsfvfooZQ3Axs_4core4iter6traits7collectINtNtNtNtCscOYdFFY2T5N_3std11collections4hash3set10DifferenceNtNtCs6IAuOt8vWmF_3syn8generics13LifetimeParamINtNtB8_4hash18BuildHasherDefaultNtNtNtBU_4hash6random13DefaultHasherEENtB2_12IntoIterator9into_iterCs2nm8mGoL06A_14mockall_derive, symObjAddr: 0x64D4, symBinAddr: 0x71178, symSize: 0x30 }
  - { offset: 0xC57FA, size: 0x8, addend: 0x0, symName: __RNvNvXs5_NtNtCsfvfooZQ3Axs_4core3str6traitsINtNtNtBb_3ops5range5RangejEINtNtNtBb_5slice5index10SliceIndexeE13get_unchecked18precondition_checkCs2nm8mGoL06A_14mockall_derive, symObjAddr: 0x61E8, symBinAddr: 0x70E8C, symSize: 0x60 }
  - { offset: 0xC588D, size: 0x8, addend: 0x0, symName: __RNvXs7_NtNtCsfvfooZQ3Axs_4core3cmp5implsRNtCs3cP53eQoTwO_11proc_macro25IdentINtB7_9PartialEqReE2neCs2nm8mGoL06A_14mockall_derive, symObjAddr: 0x6B1C, symBinAddr: 0x717C0, symSize: 0x3C }
  - { offset: 0xC58DC, size: 0x8, addend: 0x0, symName: __RNvXs7_NtNtCsfvfooZQ3Axs_4core3cmp5implsRNtCs3cP53eQoTwO_11proc_macro25IdentNtB7_9PartialEq2neCs2nm8mGoL06A_14mockall_derive, symObjAddr: 0x6B58, symBinAddr: 0x717FC, symSize: 0x34 }
  - { offset: 0xC5932, size: 0x8, addend: 0x0, symName: __RNvYNtCs3cP53eQoTwO_11proc_macro25IdentINtNtCsfvfooZQ3Axs_4core3cmp9PartialEqReE2neCs2nm8mGoL06A_14mockall_derive, symObjAddr: 0xA188, symBinAddr: 0x74E24, symSize: 0x30 }
  - { offset: 0xC5981, size: 0x8, addend: 0x0, symName: __RNvYNtCs3cP53eQoTwO_11proc_macro25IdentINtNtCsfvfooZQ3Axs_4core3cmp9PartialEqeE2neCs2nm8mGoL06A_14mockall_derive, symObjAddr: 0xA1B8, symBinAddr: 0x74E54, symSize: 0x34 }
  - { offset: 0xC59D0, size: 0x8, addend: 0x0, symName: __RNvYNtCs3cP53eQoTwO_11proc_macro25IdentNtNtCsfvfooZQ3Axs_4core3cmp9PartialEq2neCs2nm8mGoL06A_14mockall_derive, symObjAddr: 0xA1EC, symBinAddr: 0x74E88, symSize: 0x30 }
  - { offset: 0xC5A2B, size: 0x8, addend: 0x0, symName: __RNvXNtCsfvfooZQ3Axs_4core6borrowNtCs3cP53eQoTwO_11proc_macro25IdentINtB2_6BorrowBu_E6borrowCs2nm8mGoL06A_14mockall_derive, symObjAddr: 0x64C0, symBinAddr: 0x71164, symSize: 0x14 }
  - { offset: 0xC5D7F, size: 0x8, addend: 0x0, symName: __RNvXs1J_NtCs9i5KxIbZ5ph_10proc_macro6bridgeINtB6_11ExpnGlobalsNtNtB6_6client4SpanEINtNtB6_3rpc9DecodeMutuE6decodeCs2nm8mGoL06A_14mockall_derive, symObjAddr: 0x6504, symBinAddr: 0x711A8, symSize: 0xB0 }
  - { offset: 0xC5DD6, size: 0x8, addend: 0x0, symName: __RNvXs9_NtNtCs9i5KxIbZ5ph_10proc_macro6bridge3rpcTINtB7_11ExpnGlobalsNtNtB7_6client4SpanENtB16_11TokenStreamEINtB5_9DecodeMutuE6decodeCs2nm8mGoL06A_14mockall_derive, symObjAddr: 0x6B8C, symBinAddr: 0x71830, symSize: 0x84 }
  - { offset: 0xC5E2B, size: 0x8, addend: 0x0, symName: __RNvXs9_NtNtCs9i5KxIbZ5ph_10proc_macro6bridge3rpcTINtB7_11ExpnGlobalsNtNtB7_6client4SpanETNtB16_11TokenStreamB1p_EEINtB5_9DecodeMutuE6decodeCs2nm8mGoL06A_14mockall_derive, symObjAddr: 0x6C10, symBinAddr: 0x718B4, symSize: 0x90 }
  - { offset: 0xC5FB1, size: 0x8, addend: 0x0, symName: __RNvXsV_NtCs9i5KxIbZ5ph_10proc_macro6bridgeINtNtCsfvfooZQ3Axs_4core6result6ResultINtNtBJ_6option6OptionNtNtB5_6client11TokenStreamEuEINtNtB5_3rpc6EncodeuE6encodeCs2nm8mGoL06A_14mockall_derive, symObjAddr: 0x7150, symBinAddr: 0x71DF4, symSize: 0x108 }
  - { offset: 0xC6075, size: 0x8, addend: 0x0, symName: __RNvXsV_NtCs9i5KxIbZ5ph_10proc_macro6bridgeINtNtCsfvfooZQ3Axs_4core6result6ResultuNtNtB5_3rpc12PanicMessageEINtB1j_6EncodeuE6encodeCs2nm8mGoL06A_14mockall_derive, symObjAddr: 0x7258, symBinAddr: 0x71EFC, symSize: 0x12C }
  - { offset: 0xC6608, size: 0x8, addend: 0x0, symName: __RINvXs6_NtCs3cP53eQoTwO_11proc_macro23impNtB6_11TokenStreamINtNtNtNtCsfvfooZQ3Axs_4core4iter6traits7collect12FromIteratorBD_E9from_iterINtNtNtB12_8adapters3map3MapIB2a_INtNtB2e_3zip3ZipINtNtNtB14_5slice4iter4IterNtB8_5IdentEIB2Y_NtNtCs6IAuOt8vWmF_3syn2ty4TypeEENCNvXs0_NtCs2nm8mGoL06A_14mockall_derive13mock_functionNtB4j_6CommonNtNtCs2cqEZUIJimJ_5quote9to_tokens8ToTokens9to_tokenss_0ENCINvXs7_B8_NtB8_11TokenStreamIBW_B6o_E9from_iterB2B_E0EEB4l_, symObjAddr: 0x1700, symBinAddr: 0x6C3A4, symSize: 0x25C }
  - { offset: 0xC667F, size: 0x8, addend: 0x0, symName: __RINvXs6_NtCs3cP53eQoTwO_11proc_macro23impNtB6_11TokenStreamINtNtNtNtCsfvfooZQ3Axs_4core4iter6traits7collect12FromIteratorBD_E9from_iterINtNtNtB12_8adapters3map3MapIB2a_INtNtB2e_3zip3ZipINtNtNtB14_5slice4iter4IterNtB8_5IdentEIB2Y_NtNtCs6IAuOt8vWmF_3syn2ty4TypeEENCNvXs1_NtCs2nm8mGoL06A_14mockall_derive13mock_functionNtB4j_24CommonExpectationMethodsNtNtCs2cqEZUIJimJ_5quote9to_tokens8ToTokens9to_tokenss_0ENCINvXs7_B8_NtB8_11TokenStreamIBW_B6H_E9from_iterB2B_E0EEB4l_, symObjAddr: 0x195C, symBinAddr: 0x6C600, symSize: 0x25C }
  - { offset: 0xC66F6, size: 0x8, addend: 0x0, symName: __RINvXs6_NtCs3cP53eQoTwO_11proc_macro23impNtB6_11TokenStreamINtNtNtNtCsfvfooZQ3Axs_4core4iter6traits7collect12FromIteratorBD_E9from_iterINtNtNtB12_8adapters3map3MapIB2a_INtNtB2e_3zip3ZipINtNtNtB14_5slice4iter4IterNtB8_5IdentEIB2Y_NtNtCs6IAuOt8vWmF_3syn2ty4TypeEENCNvXs3_NtCs2nm8mGoL06A_14mockall_derive13mock_functionNtB4j_29ExpectationGuardCommonMethodsNtNtCs2cqEZUIJimJ_5quote9to_tokens8ToTokens9to_tokenss_0ENCINvXs7_B8_NtB8_11TokenStreamIBW_B6M_E9from_iterB2B_E0EEB4l_, symObjAddr: 0x1BB8, symBinAddr: 0x6C85C, symSize: 0x25C }
  - { offset: 0xC676D, size: 0x8, addend: 0x0, symName: __RINvXs6_NtCs3cP53eQoTwO_11proc_macro23impNtB6_11TokenStreamINtNtNtNtCsfvfooZQ3Axs_4core4iter6traits7collect12FromIteratorBD_E9from_iterINtNtNtB12_8adapters3map3MapIB2a_INtNtB2e_3zip3ZipINtNtNtB14_5slice4iter4IterNtNtCs6IAuOt8vWmF_3syn3pat3PatEIB2Y_NtB8_5IdentEENCNvXs0_NtCs2nm8mGoL06A_14mockall_derive13mock_functionNtB4j_6CommonNtNtCs2cqEZUIJimJ_5quote9to_tokens8ToTokens9to_tokenss0_0ENCINvXs7_B8_NtB8_11TokenStreamIBW_B6p_E9from_iterB2B_E0EEB4l_, symObjAddr: 0x1E14, symBinAddr: 0x6CAB8, symSize: 0x268 }
  - { offset: 0xC67E4, size: 0x8, addend: 0x0, symName: __RINvXs6_NtCs3cP53eQoTwO_11proc_macro23impNtB6_11TokenStreamINtNtNtNtCsfvfooZQ3Axs_4core4iter6traits7collect12FromIteratorBD_E9from_iterINtNtNtB12_8adapters3map3MapIB2a_INtNtB2e_3zip3ZipINtNtNtB14_5slice4iter4IterNtNtCs6IAuOt8vWmF_3syn3pat3PatEIB2Y_NtB8_5IdentEENCNvXs1_NtCs2nm8mGoL06A_14mockall_derive13mock_functionNtB4j_24CommonExpectationMethodsNtNtCs2cqEZUIJimJ_5quote9to_tokens8ToTokens9to_tokenss0_0ENCINvXs7_B8_NtB8_11TokenStreamIBW_B6I_E9from_iterB2B_E0EEB4l_, symObjAddr: 0x207C, symBinAddr: 0x6CD20, symSize: 0x268 }
  - { offset: 0xC685B, size: 0x8, addend: 0x0, symName: __RINvXs6_NtCs3cP53eQoTwO_11proc_macro23impNtB6_11TokenStreamINtNtNtNtCsfvfooZQ3Axs_4core4iter6traits7collect12FromIteratorBD_E9from_iterINtNtNtB12_8adapters3map3MapIB2a_INtNtB2e_3zip3ZipINtNtNtB14_5slice4iter4IterNtNtCs6IAuOt8vWmF_3syn3pat3PatEIB2Y_NtB8_5IdentEENCNvXs3_NtCs2nm8mGoL06A_14mockall_derive13mock_functionNtB4j_29ExpectationGuardCommonMethodsNtNtCs2cqEZUIJimJ_5quote9to_tokens8ToTokens9to_tokenss0_0ENCINvXs7_B8_NtB8_11TokenStreamIBW_B6N_E9from_iterB2B_E0EEB4l_, symObjAddr: 0x22E4, symBinAddr: 0x6CF88, symSize: 0x268 }
  - { offset: 0xC68D2, size: 0x8, addend: 0x0, symName: __RINvXs6_NtCs3cP53eQoTwO_11proc_macro23impNtB6_11TokenStreamINtNtNtNtCsfvfooZQ3Axs_4core4iter6traits7collect12FromIteratorBD_E9from_iterINtNtNtB12_8adapters3map3MapIB2a_INtNtB2e_9enumerate9EnumerateINtNtNtB14_5slice4iter4IterNtNtCs6IAuOt8vWmF_3syn3pat3PatEENCNvXs7_NtCs2nm8mGoL06A_14mockall_derive13mock_functionNtB4e_7MatcherNtNtCs2cqEZUIJimJ_5quote9to_tokens8ToTokens9to_tokenss0_0ENCINvXs7_B8_NtB8_11TokenStreamIBW_B6l_E9from_iterB2B_E0EEB4g_, symObjAddr: 0x254C, symBinAddr: 0x6D1F0, symSize: 0x25C }
  - { offset: 0xC6949, size: 0x8, addend: 0x0, symName: __RINvXs6_NtCs3cP53eQoTwO_11proc_macro23impNtB6_11TokenStreamINtNtNtNtCsfvfooZQ3Axs_4core4iter6traits7collect12FromIteratorBD_E9from_iterINtNtNtB12_8adapters3map3MapIB2a_INtNtNtB14_5slice4iter4IterNtNtCs6IAuOt8vWmF_3syn2ty4TypeENCNvXs7_NtCs2nm8mGoL06A_14mockall_derive13mock_functionNtB3K_7MatcherNtNtCs2cqEZUIJimJ_5quote9to_tokens8ToTokens9to_tokenss1_0ENCINvXs7_B8_NtB8_11TokenStreamIBW_B5R_E9from_iterB2B_E0EEB3M_, symObjAddr: 0x27A8, symBinAddr: 0x6D44C, symSize: 0x25C }
  - { offset: 0xC69C0, size: 0x8, addend: 0x0, symName: __RINvXs6_NtCs3cP53eQoTwO_11proc_macro23impNtB6_11TokenStreamINtNtNtNtCsfvfooZQ3Axs_4core4iter6traits7collect12FromIteratorBD_E9from_iterINtNtNtB12_8adapters3map3MapIB2a_INtNtNtB14_5slice4iter4IterNtNtCs6IAuOt8vWmF_3syn3pat3PatENCNvXs0_NtCs2nm8mGoL06A_14mockall_derive13mock_functionNtB3K_6CommonNtNtCs2cqEZUIJimJ_5quote9to_tokens8ToTokens9to_tokenss1_0ENCINvXs7_B8_NtB8_11TokenStreamIBW_B5Q_E9from_iterB2B_E0EEB3M_, symObjAddr: 0x2A04, symBinAddr: 0x6D6A8, symSize: 0x250 }
  - { offset: 0xC6A3A, size: 0x8, addend: 0x0, symName: __RNCINvXs6_NtCs3cP53eQoTwO_11proc_macro23impNtB8_11TokenStreamINtNtNtNtCsfvfooZQ3Axs_4core4iter6traits7collect12FromIteratorBF_E9from_iterINtNtNtB14_8adapters3map3MapIB2c_INtNtB2g_3zip3ZipINtNtNtB16_5slice4iter4IterNtBa_5IdentEIB30_NtNtCs6IAuOt8vWmF_3syn2ty4TypeEENCNvXs0_NtCs2nm8mGoL06A_14mockall_derive13mock_functionNtB4l_6CommonNtNtCs2cqEZUIJimJ_5quote9to_tokens8ToTokens9to_tokenss_0ENCINvXs7_Ba_NtBa_11TokenStreamIBY_B6q_E9from_iterB2D_E0EE0B4n_, symObjAddr: 0x3CBC, symBinAddr: 0x6E960, symSize: 0x10C }
  - { offset: 0xC6A97, size: 0x8, addend: 0x0, symName: __RNCINvXs6_NtCs3cP53eQoTwO_11proc_macro23impNtB8_11TokenStreamINtNtNtNtCsfvfooZQ3Axs_4core4iter6traits7collect12FromIteratorBF_E9from_iterINtNtNtB14_8adapters3map3MapIB2c_INtNtB2g_3zip3ZipINtNtNtB16_5slice4iter4IterNtBa_5IdentEIB30_NtNtCs6IAuOt8vWmF_3syn2ty4TypeEENCNvXs0_NtCs2nm8mGoL06A_14mockall_derive13mock_functionNtB4l_6CommonNtNtCs2cqEZUIJimJ_5quote9to_tokens8ToTokens9to_tokenss_0ENCINvXs7_Ba_NtBa_11TokenStreamIBY_B6q_E9from_iterB2D_E0EEs_0B4n_, symObjAddr: 0x3DC8, symBinAddr: 0x6EA6C, symSize: 0xFC }
  - { offset: 0xC6AD7, size: 0x8, addend: 0x0, symName: __RNCINvXs6_NtCs3cP53eQoTwO_11proc_macro23impNtB8_11TokenStreamINtNtNtNtCsfvfooZQ3Axs_4core4iter6traits7collect12FromIteratorBF_E9from_iterINtNtNtB14_8adapters3map3MapIB2c_INtNtB2g_3zip3ZipINtNtNtB16_5slice4iter4IterNtBa_5IdentEIB30_NtNtCs6IAuOt8vWmF_3syn2ty4TypeEENCNvXs1_NtCs2nm8mGoL06A_14mockall_derive13mock_functionNtB4l_24CommonExpectationMethodsNtNtCs2cqEZUIJimJ_5quote9to_tokens8ToTokens9to_tokenss_0ENCINvXs7_Ba_NtBa_11TokenStreamIBY_B6J_E9from_iterB2D_E0EE0B4n_, symObjAddr: 0x3EC4, symBinAddr: 0x6EB68, symSize: 0x10C }
  - { offset: 0xC6B34, size: 0x8, addend: 0x0, symName: __RNCINvXs6_NtCs3cP53eQoTwO_11proc_macro23impNtB8_11TokenStreamINtNtNtNtCsfvfooZQ3Axs_4core4iter6traits7collect12FromIteratorBF_E9from_iterINtNtNtB14_8adapters3map3MapIB2c_INtNtB2g_3zip3ZipINtNtNtB16_5slice4iter4IterNtBa_5IdentEIB30_NtNtCs6IAuOt8vWmF_3syn2ty4TypeEENCNvXs1_NtCs2nm8mGoL06A_14mockall_derive13mock_functionNtB4l_24CommonExpectationMethodsNtNtCs2cqEZUIJimJ_5quote9to_tokens8ToTokens9to_tokenss_0ENCINvXs7_Ba_NtBa_11TokenStreamIBY_B6J_E9from_iterB2D_E0EEs_0B4n_, symObjAddr: 0x3FD0, symBinAddr: 0x6EC74, symSize: 0xFC }
  - { offset: 0xC6B74, size: 0x8, addend: 0x0, symName: __RNCINvXs6_NtCs3cP53eQoTwO_11proc_macro23impNtB8_11TokenStreamINtNtNtNtCsfvfooZQ3Axs_4core4iter6traits7collect12FromIteratorBF_E9from_iterINtNtNtB14_8adapters3map3MapIB2c_INtNtB2g_3zip3ZipINtNtNtB16_5slice4iter4IterNtBa_5IdentEIB30_NtNtCs6IAuOt8vWmF_3syn2ty4TypeEENCNvXs3_NtCs2nm8mGoL06A_14mockall_derive13mock_functionNtB4l_29ExpectationGuardCommonMethodsNtNtCs2cqEZUIJimJ_5quote9to_tokens8ToTokens9to_tokenss_0ENCINvXs7_Ba_NtBa_11TokenStreamIBY_B6O_E9from_iterB2D_E0EE0B4n_, symObjAddr: 0x40CC, symBinAddr: 0x6ED70, symSize: 0x10C }
  - { offset: 0xC6BD1, size: 0x8, addend: 0x0, symName: __RNCINvXs6_NtCs3cP53eQoTwO_11proc_macro23impNtB8_11TokenStreamINtNtNtNtCsfvfooZQ3Axs_4core4iter6traits7collect12FromIteratorBF_E9from_iterINtNtNtB14_8adapters3map3MapIB2c_INtNtB2g_3zip3ZipINtNtNtB16_5slice4iter4IterNtBa_5IdentEIB30_NtNtCs6IAuOt8vWmF_3syn2ty4TypeEENCNvXs3_NtCs2nm8mGoL06A_14mockall_derive13mock_functionNtB4l_29ExpectationGuardCommonMethodsNtNtCs2cqEZUIJimJ_5quote9to_tokens8ToTokens9to_tokenss_0ENCINvXs7_Ba_NtBa_11TokenStreamIBY_B6O_E9from_iterB2D_E0EEs_0B4n_, symObjAddr: 0x41D8, symBinAddr: 0x6EE7C, symSize: 0xFC }
  - { offset: 0xC6C11, size: 0x8, addend: 0x0, symName: __RNCINvXs6_NtCs3cP53eQoTwO_11proc_macro23impNtB8_11TokenStreamINtNtNtNtCsfvfooZQ3Axs_4core4iter6traits7collect12FromIteratorBF_E9from_iterINtNtNtB14_8adapters3map3MapIB2c_INtNtB2g_3zip3ZipINtNtNtB16_5slice4iter4IterNtNtCs6IAuOt8vWmF_3syn3pat3PatEIB30_NtBa_5IdentEENCNvXs0_NtCs2nm8mGoL06A_14mockall_derive13mock_functionNtB4l_6CommonNtNtCs2cqEZUIJimJ_5quote9to_tokens8ToTokens9to_tokenss0_0ENCINvXs7_Ba_NtBa_11TokenStreamIBY_B6r_E9from_iterB2D_E0EE0B4n_, symObjAddr: 0x42D4, symBinAddr: 0x6EF78, symSize: 0x10C }
  - { offset: 0xC6C6E, size: 0x8, addend: 0x0, symName: __RNCINvXs6_NtCs3cP53eQoTwO_11proc_macro23impNtB8_11TokenStreamINtNtNtNtCsfvfooZQ3Axs_4core4iter6traits7collect12FromIteratorBF_E9from_iterINtNtNtB14_8adapters3map3MapIB2c_INtNtB2g_3zip3ZipINtNtNtB16_5slice4iter4IterNtNtCs6IAuOt8vWmF_3syn3pat3PatEIB30_NtBa_5IdentEENCNvXs0_NtCs2nm8mGoL06A_14mockall_derive13mock_functionNtB4l_6CommonNtNtCs2cqEZUIJimJ_5quote9to_tokens8ToTokens9to_tokenss0_0ENCINvXs7_Ba_NtBa_11TokenStreamIBY_B6r_E9from_iterB2D_E0EEs_0B4n_, symObjAddr: 0x43E0, symBinAddr: 0x6F084, symSize: 0xFC }
  - { offset: 0xC6CAE, size: 0x8, addend: 0x0, symName: __RNCINvXs6_NtCs3cP53eQoTwO_11proc_macro23impNtB8_11TokenStreamINtNtNtNtCsfvfooZQ3Axs_4core4iter6traits7collect12FromIteratorBF_E9from_iterINtNtNtB14_8adapters3map3MapIB2c_INtNtB2g_3zip3ZipINtNtNtB16_5slice4iter4IterNtNtCs6IAuOt8vWmF_3syn3pat3PatEIB30_NtBa_5IdentEENCNvXs1_NtCs2nm8mGoL06A_14mockall_derive13mock_functionNtB4l_24CommonExpectationMethodsNtNtCs2cqEZUIJimJ_5quote9to_tokens8ToTokens9to_tokenss0_0ENCINvXs7_Ba_NtBa_11TokenStreamIBY_B6K_E9from_iterB2D_E0EE0B4n_, symObjAddr: 0x44DC, symBinAddr: 0x6F180, symSize: 0x10C }
  - { offset: 0xC6D0B, size: 0x8, addend: 0x0, symName: __RNCINvXs6_NtCs3cP53eQoTwO_11proc_macro23impNtB8_11TokenStreamINtNtNtNtCsfvfooZQ3Axs_4core4iter6traits7collect12FromIteratorBF_E9from_iterINtNtNtB14_8adapters3map3MapIB2c_INtNtB2g_3zip3ZipINtNtNtB16_5slice4iter4IterNtNtCs6IAuOt8vWmF_3syn3pat3PatEIB30_NtBa_5IdentEENCNvXs1_NtCs2nm8mGoL06A_14mockall_derive13mock_functionNtB4l_24CommonExpectationMethodsNtNtCs2cqEZUIJimJ_5quote9to_tokens8ToTokens9to_tokenss0_0ENCINvXs7_Ba_NtBa_11TokenStreamIBY_B6K_E9from_iterB2D_E0EEs_0B4n_, symObjAddr: 0x45E8, symBinAddr: 0x6F28C, symSize: 0xFC }
  - { offset: 0xC6D4B, size: 0x8, addend: 0x0, symName: __RNCINvXs6_NtCs3cP53eQoTwO_11proc_macro23impNtB8_11TokenStreamINtNtNtNtCsfvfooZQ3Axs_4core4iter6traits7collect12FromIteratorBF_E9from_iterINtNtNtB14_8adapters3map3MapIB2c_INtNtB2g_3zip3ZipINtNtNtB16_5slice4iter4IterNtNtCs6IAuOt8vWmF_3syn3pat3PatEIB30_NtBa_5IdentEENCNvXs3_NtCs2nm8mGoL06A_14mockall_derive13mock_functionNtB4l_29ExpectationGuardCommonMethodsNtNtCs2cqEZUIJimJ_5quote9to_tokens8ToTokens9to_tokenss0_0ENCINvXs7_Ba_NtBa_11TokenStreamIBY_B6P_E9from_iterB2D_E0EE0B4n_, symObjAddr: 0x46E4, symBinAddr: 0x6F388, symSize: 0x10C }
  - { offset: 0xC6DA8, size: 0x8, addend: 0x0, symName: __RNCINvXs6_NtCs3cP53eQoTwO_11proc_macro23impNtB8_11TokenStreamINtNtNtNtCsfvfooZQ3Axs_4core4iter6traits7collect12FromIteratorBF_E9from_iterINtNtNtB14_8adapters3map3MapIB2c_INtNtB2g_3zip3ZipINtNtNtB16_5slice4iter4IterNtNtCs6IAuOt8vWmF_3syn3pat3PatEIB30_NtBa_5IdentEENCNvXs3_NtCs2nm8mGoL06A_14mockall_derive13mock_functionNtB4l_29ExpectationGuardCommonMethodsNtNtCs2cqEZUIJimJ_5quote9to_tokens8ToTokens9to_tokenss0_0ENCINvXs7_Ba_NtBa_11TokenStreamIBY_B6P_E9from_iterB2D_E0EEs_0B4n_, symObjAddr: 0x47F0, symBinAddr: 0x6F494, symSize: 0xFC }
  - { offset: 0xC6DE8, size: 0x8, addend: 0x0, symName: __RNCINvXs6_NtCs3cP53eQoTwO_11proc_macro23impNtB8_11TokenStreamINtNtNtNtCsfvfooZQ3Axs_4core4iter6traits7collect12FromIteratorBF_E9from_iterINtNtNtB14_8adapters3map3MapIB2c_INtNtB2g_9enumerate9EnumerateINtNtNtB16_5slice4iter4IterNtNtCs6IAuOt8vWmF_3syn3pat3PatEENCNvXs7_NtCs2nm8mGoL06A_14mockall_derive13mock_functionNtB4g_7MatcherNtNtCs2cqEZUIJimJ_5quote9to_tokens8ToTokens9to_tokenss0_0ENCINvXs7_Ba_NtBa_11TokenStreamIBY_B6n_E9from_iterB2D_E0EE0B4i_, symObjAddr: 0x48EC, symBinAddr: 0x6F590, symSize: 0x10C }
  - { offset: 0xC6E45, size: 0x8, addend: 0x0, symName: __RNCINvXs6_NtCs3cP53eQoTwO_11proc_macro23impNtB8_11TokenStreamINtNtNtNtCsfvfooZQ3Axs_4core4iter6traits7collect12FromIteratorBF_E9from_iterINtNtNtB14_8adapters3map3MapIB2c_INtNtB2g_9enumerate9EnumerateINtNtNtB16_5slice4iter4IterNtNtCs6IAuOt8vWmF_3syn3pat3PatEENCNvXs7_NtCs2nm8mGoL06A_14mockall_derive13mock_functionNtB4g_7MatcherNtNtCs2cqEZUIJimJ_5quote9to_tokens8ToTokens9to_tokenss0_0ENCINvXs7_Ba_NtBa_11TokenStreamIBY_B6n_E9from_iterB2D_E0EEs_0B4i_, symObjAddr: 0x49F8, symBinAddr: 0x6F69C, symSize: 0xFC }
  - { offset: 0xC6E85, size: 0x8, addend: 0x0, symName: __RNCINvXs6_NtCs3cP53eQoTwO_11proc_macro23impNtB8_11TokenStreamINtNtNtNtCsfvfooZQ3Axs_4core4iter6traits7collect12FromIteratorBF_E9from_iterINtNtNtB14_8adapters3map3MapIB2c_INtNtNtB16_5slice4iter4IterNtNtCs6IAuOt8vWmF_3syn2ty4TypeENCNvXs7_NtCs2nm8mGoL06A_14mockall_derive13mock_functionNtB3M_7MatcherNtNtCs2cqEZUIJimJ_5quote9to_tokens8ToTokens9to_tokenss1_0ENCINvXs7_Ba_NtBa_11TokenStreamIBY_B5T_E9from_iterB2D_E0EE0B3O_, symObjAddr: 0x4AF4, symBinAddr: 0x6F798, symSize: 0x10C }
  - { offset: 0xC6EE2, size: 0x8, addend: 0x0, symName: __RNCINvXs6_NtCs3cP53eQoTwO_11proc_macro23impNtB8_11TokenStreamINtNtNtNtCsfvfooZQ3Axs_4core4iter6traits7collect12FromIteratorBF_E9from_iterINtNtNtB14_8adapters3map3MapIB2c_INtNtNtB16_5slice4iter4IterNtNtCs6IAuOt8vWmF_3syn2ty4TypeENCNvXs7_NtCs2nm8mGoL06A_14mockall_derive13mock_functionNtB3M_7MatcherNtNtCs2cqEZUIJimJ_5quote9to_tokens8ToTokens9to_tokenss1_0ENCINvXs7_Ba_NtBa_11TokenStreamIBY_B5T_E9from_iterB2D_E0EEs_0B3O_, symObjAddr: 0x4C00, symBinAddr: 0x6F8A4, symSize: 0xFC }
  - { offset: 0xC6F22, size: 0x8, addend: 0x0, symName: __RNCINvXs6_NtCs3cP53eQoTwO_11proc_macro23impNtB8_11TokenStreamINtNtNtNtCsfvfooZQ3Axs_4core4iter6traits7collect12FromIteratorBF_E9from_iterINtNtNtB14_8adapters3map3MapIB2c_INtNtNtB16_5slice4iter4IterNtNtCs6IAuOt8vWmF_3syn3pat3PatENCNvXs0_NtCs2nm8mGoL06A_14mockall_derive13mock_functionNtB3M_6CommonNtNtCs2cqEZUIJimJ_5quote9to_tokens8ToTokens9to_tokenss1_0ENCINvXs7_Ba_NtBa_11TokenStreamIBY_B5S_E9from_iterB2D_E0EE0B3O_, symObjAddr: 0x4CFC, symBinAddr: 0x6F9A0, symSize: 0x10C }
  - { offset: 0xC6F7F, size: 0x8, addend: 0x0, symName: __RNCINvXs6_NtCs3cP53eQoTwO_11proc_macro23impNtB8_11TokenStreamINtNtNtNtCsfvfooZQ3Axs_4core4iter6traits7collect12FromIteratorBF_E9from_iterINtNtNtB14_8adapters3map3MapIB2c_INtNtNtB16_5slice4iter4IterNtNtCs6IAuOt8vWmF_3syn3pat3PatENCNvXs0_NtCs2nm8mGoL06A_14mockall_derive13mock_functionNtB3M_6CommonNtNtCs2cqEZUIJimJ_5quote9to_tokens8ToTokens9to_tokenss1_0ENCINvXs7_Ba_NtBa_11TokenStreamIBY_B5S_E9from_iterB2D_E0EEs_0B3O_, symObjAddr: 0x4E08, symBinAddr: 0x6FAAC, symSize: 0xFC }
  - { offset: 0xC7044, size: 0x8, addend: 0x0, symName: __RINvXs7_NtCs3cP53eQoTwO_11proc_macro23impNtB6_11TokenStreamINtNtNtNtCsfvfooZQ3Axs_4core4iter6traits7collect6ExtendNtB8_9TokenTreeE6extendNtB8_11TokenStreamECs2nm8mGoL06A_14mockall_derive, symObjAddr: 0x2FD0, symBinAddr: 0x6DC74, symSize: 0x164 }
  - { offset: 0xC70E0, size: 0x8, addend: 0x0, symName: __RNvXsA_NtCs3cP53eQoTwO_11proc_macro23impNtB5_19DeferredTokenStreamNtNtCsfvfooZQ3Axs_4core5clone5Clone5cloneCs2nm8mGoL06A_14mockall_derive, symObjAddr: 0x6D3C, symBinAddr: 0x719E0, symSize: 0x90 }
  - { offset: 0xC7112, size: 0x8, addend: 0x0, symName: __RNvXsF_NtCs3cP53eQoTwO_11proc_macro23impNtB5_5IdentNtNtCsfvfooZQ3Axs_4core5clone5Clone5cloneCs2nm8mGoL06A_14mockall_derive, symObjAddr: 0x6F20, symBinAddr: 0x71BC4, symSize: 0x9C }
  - { offset: 0xC7182, size: 0x8, addend: 0x0, symName: __RNvXsz_NtCs3cP53eQoTwO_11proc_macro23impNtB5_11TokenStreamNtNtCsfvfooZQ3Axs_4core5clone5Clone5cloneCs2nm8mGoL06A_14mockall_derive, symObjAddr: 0xA0F0, symBinAddr: 0x74D8C, symSize: 0x98 }
  - { offset: 0xC7527, size: 0x8, addend: 0x0, symName: __RINvXs4_Cs3cP53eQoTwO_11proc_macro2NtB6_11TokenStreamINtNtNtNtCsfvfooZQ3Axs_4core4iter6traits7collect6ExtendNtB6_9TokenTreeE6extendBx_ECs2nm8mGoL06A_14mockall_derive, symObjAddr: 0x15C0, symBinAddr: 0x6C264, symSize: 0x34 }
  - { offset: 0xC7570, size: 0x8, addend: 0x0, symName: __RINvXs7_Cs3cP53eQoTwO_11proc_macro2NtB6_11TokenStreamINtNtNtNtCsfvfooZQ3Axs_4core4iter6traits7collect12FromIteratorBx_E9from_iterINtNtNtBW_8adapters3map3MapINtNtB28_3zip3ZipINtNtNtBY_5slice4iter4IterNtB6_5IdentEIB2M_NtNtCs6IAuOt8vWmF_3syn2ty4TypeEENCNvXs0_NtCs2nm8mGoL06A_14mockall_derive13mock_functionNtB46_6CommonNtNtCs2cqEZUIJimJ_5quote9to_tokens8ToTokens9to_tokenss_0EEB48_, symObjAddr: 0x2C54, symBinAddr: 0x6D8F8, symSize: 0x64 }
  - { offset: 0xC75A8, size: 0x8, addend: 0x0, symName: __RINvXs7_Cs3cP53eQoTwO_11proc_macro2NtB6_11TokenStreamINtNtNtNtCsfvfooZQ3Axs_4core4iter6traits7collect12FromIteratorBx_E9from_iterINtNtNtBW_8adapters3map3MapINtNtB28_3zip3ZipINtNtNtBY_5slice4iter4IterNtB6_5IdentEIB2M_NtNtCs6IAuOt8vWmF_3syn2ty4TypeEENCNvXs1_NtCs2nm8mGoL06A_14mockall_derive13mock_functionNtB46_24CommonExpectationMethodsNtNtCs2cqEZUIJimJ_5quote9to_tokens8ToTokens9to_tokenss_0EEB48_, symObjAddr: 0x2CB8, symBinAddr: 0x6D95C, symSize: 0x64 }
  - { offset: 0xC75E0, size: 0x8, addend: 0x0, symName: __RINvXs7_Cs3cP53eQoTwO_11proc_macro2NtB6_11TokenStreamINtNtNtNtCsfvfooZQ3Axs_4core4iter6traits7collect12FromIteratorBx_E9from_iterINtNtNtBW_8adapters3map3MapINtNtB28_3zip3ZipINtNtNtBY_5slice4iter4IterNtB6_5IdentEIB2M_NtNtCs6IAuOt8vWmF_3syn2ty4TypeEENCNvXs3_NtCs2nm8mGoL06A_14mockall_derive13mock_functionNtB46_29ExpectationGuardCommonMethodsNtNtCs2cqEZUIJimJ_5quote9to_tokens8ToTokens9to_tokenss_0EEB48_, symObjAddr: 0x2D1C, symBinAddr: 0x6D9C0, symSize: 0x64 }
  - { offset: 0xC7618, size: 0x8, addend: 0x0, symName: __RINvXs7_Cs3cP53eQoTwO_11proc_macro2NtB6_11TokenStreamINtNtNtNtCsfvfooZQ3Axs_4core4iter6traits7collect12FromIteratorBx_E9from_iterINtNtNtBW_8adapters3map3MapINtNtB28_3zip3ZipINtNtNtBY_5slice4iter4IterNtNtCs6IAuOt8vWmF_3syn3pat3PatEIB2M_NtB6_5IdentEENCNvXs0_NtCs2nm8mGoL06A_14mockall_derive13mock_functionNtB46_6CommonNtNtCs2cqEZUIJimJ_5quote9to_tokens8ToTokens9to_tokenss0_0EEB48_, symObjAddr: 0x2D80, symBinAddr: 0x6DA24, symSize: 0x64 }
  - { offset: 0xC7650, size: 0x8, addend: 0x0, symName: __RINvXs7_Cs3cP53eQoTwO_11proc_macro2NtB6_11TokenStreamINtNtNtNtCsfvfooZQ3Axs_4core4iter6traits7collect12FromIteratorBx_E9from_iterINtNtNtBW_8adapters3map3MapINtNtB28_3zip3ZipINtNtNtBY_5slice4iter4IterNtNtCs6IAuOt8vWmF_3syn3pat3PatEIB2M_NtB6_5IdentEENCNvXs1_NtCs2nm8mGoL06A_14mockall_derive13mock_functionNtB46_24CommonExpectationMethodsNtNtCs2cqEZUIJimJ_5quote9to_tokens8ToTokens9to_tokenss0_0EEB48_, symObjAddr: 0x2DE4, symBinAddr: 0x6DA88, symSize: 0x64 }
  - { offset: 0xC7688, size: 0x8, addend: 0x0, symName: __RINvXs7_Cs3cP53eQoTwO_11proc_macro2NtB6_11TokenStreamINtNtNtNtCsfvfooZQ3Axs_4core4iter6traits7collect12FromIteratorBx_E9from_iterINtNtNtBW_8adapters3map3MapINtNtB28_3zip3ZipINtNtNtBY_5slice4iter4IterNtNtCs6IAuOt8vWmF_3syn3pat3PatEIB2M_NtB6_5IdentEENCNvXs3_NtCs2nm8mGoL06A_14mockall_derive13mock_functionNtB46_29ExpectationGuardCommonMethodsNtNtCs2cqEZUIJimJ_5quote9to_tokens8ToTokens9to_tokenss0_0EEB48_, symObjAddr: 0x2E48, symBinAddr: 0x6DAEC, symSize: 0x64 }
  - { offset: 0xC76C0, size: 0x8, addend: 0x0, symName: __RINvXs7_Cs3cP53eQoTwO_11proc_macro2NtB6_11TokenStreamINtNtNtNtCsfvfooZQ3Axs_4core4iter6traits7collect12FromIteratorBx_E9from_iterINtNtNtBW_8adapters3map3MapINtNtB28_9enumerate9EnumerateINtNtNtBY_5slice4iter4IterNtNtCs6IAuOt8vWmF_3syn3pat3PatEENCNvXs7_NtCs2nm8mGoL06A_14mockall_derive13mock_functionNtB41_7MatcherNtNtCs2cqEZUIJimJ_5quote9to_tokens8ToTokens9to_tokenss0_0EEB43_, symObjAddr: 0x2EAC, symBinAddr: 0x6DB50, symSize: 0x64 }
  - { offset: 0xC76F8, size: 0x8, addend: 0x0, symName: __RINvXs7_Cs3cP53eQoTwO_11proc_macro2NtB6_11TokenStreamINtNtNtNtCsfvfooZQ3Axs_4core4iter6traits7collect12FromIteratorBx_E9from_iterINtNtNtBW_8adapters3map3MapINtNtNtBY_5slice4iter4IterNtNtCs6IAuOt8vWmF_3syn2ty4TypeENCNvXs7_NtCs2nm8mGoL06A_14mockall_derive13mock_functionNtB3x_7MatcherNtNtCs2cqEZUIJimJ_5quote9to_tokens8ToTokens9to_tokenss1_0EEB3z_, symObjAddr: 0x2F10, symBinAddr: 0x6DBB4, symSize: 0x64 }
  - { offset: 0xC7730, size: 0x8, addend: 0x0, symName: __RINvXs7_Cs3cP53eQoTwO_11proc_macro2NtB6_11TokenStreamINtNtNtNtCsfvfooZQ3Axs_4core4iter6traits7collect12FromIteratorBx_E9from_iterINtNtNtBW_8adapters3map3MapINtNtNtBY_5slice4iter4IterNtNtCs6IAuOt8vWmF_3syn3pat3PatENCNvXs0_NtCs2nm8mGoL06A_14mockall_derive13mock_functionNtB3x_6CommonNtNtCs2cqEZUIJimJ_5quote9to_tokens8ToTokens9to_tokenss1_0EEB3z_, symObjAddr: 0x2F74, symBinAddr: 0x6DC18, symSize: 0x5C }
  - { offset: 0xC776C, size: 0x8, addend: 0x0, symName: __RNCINvXs7_Cs3cP53eQoTwO_11proc_macro2NtB8_11TokenStreamINtNtNtNtCsfvfooZQ3Axs_4core4iter6traits7collect12FromIteratorBz_E9from_iterINtNtNtBY_8adapters3map3MapINtNtB2a_3zip3ZipINtNtNtB10_5slice4iter4IterNtB8_5IdentEIB2O_NtNtCs6IAuOt8vWmF_3syn2ty4TypeEENCNvXs0_NtCs2nm8mGoL06A_14mockall_derive13mock_functionNtB49_6CommonNtNtCs2cqEZUIJimJ_5quote9to_tokens8ToTokens9to_tokenss_0EE0B4b_, symObjAddr: 0x4F04, symBinAddr: 0x6FBA8, symSize: 0x30 }
  - { offset: 0xC77AE, size: 0x8, addend: 0x0, symName: __RNCINvXs7_Cs3cP53eQoTwO_11proc_macro2NtB8_11TokenStreamINtNtNtNtCsfvfooZQ3Axs_4core4iter6traits7collect12FromIteratorBz_E9from_iterINtNtNtBY_8adapters3map3MapINtNtB2a_3zip3ZipINtNtNtB10_5slice4iter4IterNtB8_5IdentEIB2O_NtNtCs6IAuOt8vWmF_3syn2ty4TypeEENCNvXs1_NtCs2nm8mGoL06A_14mockall_derive13mock_functionNtB49_24CommonExpectationMethodsNtNtCs2cqEZUIJimJ_5quote9to_tokens8ToTokens9to_tokenss_0EE0B4b_, symObjAddr: 0x4F34, symBinAddr: 0x6FBD8, symSize: 0x30 }
  - { offset: 0xC77F0, size: 0x8, addend: 0x0, symName: __RNCINvXs7_Cs3cP53eQoTwO_11proc_macro2NtB8_11TokenStreamINtNtNtNtCsfvfooZQ3Axs_4core4iter6traits7collect12FromIteratorBz_E9from_iterINtNtNtBY_8adapters3map3MapINtNtB2a_3zip3ZipINtNtNtB10_5slice4iter4IterNtB8_5IdentEIB2O_NtNtCs6IAuOt8vWmF_3syn2ty4TypeEENCNvXs3_NtCs2nm8mGoL06A_14mockall_derive13mock_functionNtB49_29ExpectationGuardCommonMethodsNtNtCs2cqEZUIJimJ_5quote9to_tokens8ToTokens9to_tokenss_0EE0B4b_, symObjAddr: 0x4F64, symBinAddr: 0x6FC08, symSize: 0x30 }
  - { offset: 0xC7832, size: 0x8, addend: 0x0, symName: __RNCINvXs7_Cs3cP53eQoTwO_11proc_macro2NtB8_11TokenStreamINtNtNtNtCsfvfooZQ3Axs_4core4iter6traits7collect12FromIteratorBz_E9from_iterINtNtNtBY_8adapters3map3MapINtNtB2a_3zip3ZipINtNtNtB10_5slice4iter4IterNtNtCs6IAuOt8vWmF_3syn3pat3PatEIB2O_NtB8_5IdentEENCNvXs0_NtCs2nm8mGoL06A_14mockall_derive13mock_functionNtB49_6CommonNtNtCs2cqEZUIJimJ_5quote9to_tokens8ToTokens9to_tokenss0_0EE0B4b_, symObjAddr: 0x4F94, symBinAddr: 0x6FC38, symSize: 0x30 }
  - { offset: 0xC7874, size: 0x8, addend: 0x0, symName: __RNCINvXs7_Cs3cP53eQoTwO_11proc_macro2NtB8_11TokenStreamINtNtNtNtCsfvfooZQ3Axs_4core4iter6traits7collect12FromIteratorBz_E9from_iterINtNtNtBY_8adapters3map3MapINtNtB2a_3zip3ZipINtNtNtB10_5slice4iter4IterNtNtCs6IAuOt8vWmF_3syn3pat3PatEIB2O_NtB8_5IdentEENCNvXs1_NtCs2nm8mGoL06A_14mockall_derive13mock_functionNtB49_24CommonExpectationMethodsNtNtCs2cqEZUIJimJ_5quote9to_tokens8ToTokens9to_tokenss0_0EE0B4b_, symObjAddr: 0x4FC4, symBinAddr: 0x6FC68, symSize: 0x30 }
  - { offset: 0xC78B6, size: 0x8, addend: 0x0, symName: __RNCINvXs7_Cs3cP53eQoTwO_11proc_macro2NtB8_11TokenStreamINtNtNtNtCsfvfooZQ3Axs_4core4iter6traits7collect12FromIteratorBz_E9from_iterINtNtNtBY_8adapters3map3MapINtNtB2a_3zip3ZipINtNtNtB10_5slice4iter4IterNtNtCs6IAuOt8vWmF_3syn3pat3PatEIB2O_NtB8_5IdentEENCNvXs3_NtCs2nm8mGoL06A_14mockall_derive13mock_functionNtB49_29ExpectationGuardCommonMethodsNtNtCs2cqEZUIJimJ_5quote9to_tokens8ToTokens9to_tokenss0_0EE0B4b_, symObjAddr: 0x4FF4, symBinAddr: 0x6FC98, symSize: 0x30 }
  - { offset: 0xC78F8, size: 0x8, addend: 0x0, symName: __RNCINvXs7_Cs3cP53eQoTwO_11proc_macro2NtB8_11TokenStreamINtNtNtNtCsfvfooZQ3Axs_4core4iter6traits7collect12FromIteratorBz_E9from_iterINtNtNtBY_8adapters3map3MapINtNtB2a_9enumerate9EnumerateINtNtNtB10_5slice4iter4IterNtNtCs6IAuOt8vWmF_3syn3pat3PatEENCNvXs7_NtCs2nm8mGoL06A_14mockall_derive13mock_functionNtB44_7MatcherNtNtCs2cqEZUIJimJ_5quote9to_tokens8ToTokens9to_tokenss0_0EE0B46_, symObjAddr: 0x5024, symBinAddr: 0x6FCC8, symSize: 0x30 }
  - { offset: 0xC793A, size: 0x8, addend: 0x0, symName: __RNCINvXs7_Cs3cP53eQoTwO_11proc_macro2NtB8_11TokenStreamINtNtNtNtCsfvfooZQ3Axs_4core4iter6traits7collect12FromIteratorBz_E9from_iterINtNtNtBY_8adapters3map3MapINtNtNtB10_5slice4iter4IterNtNtCs6IAuOt8vWmF_3syn2ty4TypeENCNvXs7_NtCs2nm8mGoL06A_14mockall_derive13mock_functionNtB3A_7MatcherNtNtCs2cqEZUIJimJ_5quote9to_tokens8ToTokens9to_tokenss1_0EE0B3C_, symObjAddr: 0x5054, symBinAddr: 0x6FCF8, symSize: 0x30 }
  - { offset: 0xC797C, size: 0x8, addend: 0x0, symName: __RNCINvXs7_Cs3cP53eQoTwO_11proc_macro2NtB8_11TokenStreamINtNtNtNtCsfvfooZQ3Axs_4core4iter6traits7collect12FromIteratorBz_E9from_iterINtNtNtBY_8adapters3map3MapINtNtNtB10_5slice4iter4IterNtNtCs6IAuOt8vWmF_3syn3pat3PatENCNvXs0_NtCs2nm8mGoL06A_14mockall_derive13mock_functionNtB3A_6CommonNtNtCs2cqEZUIJimJ_5quote9to_tokens8ToTokens9to_tokenss1_0EE0B3C_, symObjAddr: 0x5084, symBinAddr: 0x6FD28, symSize: 0x30 }
  - { offset: 0xC7A04, size: 0x8, addend: 0x0, symName: __RINvXsz_Cs3cP53eQoTwO_11proc_macro2NtB6_5IdentNtNtCsfvfooZQ3Axs_4core4hash4Hash4hashNtNtNtCscOYdFFY2T5N_3std4hash6random13DefaultHasherECs2nm8mGoL06A_14mockall_derive, symObjAddr: 0x3678, symBinAddr: 0x6E31C, symSize: 0x84 }
  - { offset: 0xC7A4C, size: 0x8, addend: 0x0, symName: __RNvXsG_Cs3cP53eQoTwO_11proc_macro2NtB5_11TokenStreamNtNtCsfvfooZQ3Axs_4core5clone5Clone5cloneCs2nm8mGoL06A_14mockall_derive, symObjAddr: 0x6FBC, symBinAddr: 0x71C60, symSize: 0x78 }
  - { offset: 0xC7A7E, size: 0x8, addend: 0x0, symName: __RNvXsY_Cs3cP53eQoTwO_11proc_macro2NtB5_5IdentNtNtCsfvfooZQ3Axs_4core5clone5Clone5cloneCs2nm8mGoL06A_14mockall_derive, symObjAddr: 0x739C, symBinAddr: 0x72040, symSize: 0x78 }
  - { offset: 0xCCA1B, size: 0x8, addend: 0x0, symName: __RINvNtCs6IAuOt8vWmF_3syn5parse12parse_scopedNCINvNtB4_4meta6parserNCNCNvMs_NtCs2nm8mGoL06A_14mockall_derive15mockable_structNtB1b_14MockableStruct13derives_debug00E0EB1d_, symObjAddr: 0xA2C, symBinAddr: 0x6B6D0, symSize: 0x38 }
  - { offset: 0xCCA76, size: 0x8, addend: 0x0, symName: __RNvXsh_NtCs6IAuOt8vWmF_3syn5parseNvYINtNtCse1nGBsou5OW_5alloc5boxed3BoxNtNtB7_2ty4TypeENtB5_5Parse5parseNtB5_6Parser6parse2Cs2nm8mGoL06A_14mockall_derive, symObjAddr: 0x7414, symBinAddr: 0x720B8, symSize: 0x31C }
  - { offset: 0xCCB84, size: 0x8, addend: 0x0, symName: __RNvXsh_NtCs6IAuOt8vWmF_3syn5parseNvYNtCs3cP53eQoTwO_11proc_macro25IdentNtB5_5Parse5parseNtB5_6Parser6parse2Cs2nm8mGoL06A_14mockall_derive, symObjAddr: 0x7730, symBinAddr: 0x723D4, symSize: 0x338 }
  - { offset: 0xCCC93, size: 0x8, addend: 0x0, symName: __RNvXsh_NtCs6IAuOt8vWmF_3syn5parseNvYNtNtB7_2ty4TypeNtB5_5Parse5parseNtB5_6Parser6parse2Cs2nm8mGoL06A_14mockall_derive, symObjAddr: 0x7A68, symBinAddr: 0x7270C, symSize: 0x358 }
  - { offset: 0xCCDA3, size: 0x8, addend: 0x0, symName: __RNvXsh_NtCs6IAuOt8vWmF_3syn5parseNvYNtNtB7_2ty8TypePathNtB5_5Parse5parseNtB5_6Parser6parse2Cs2nm8mGoL06A_14mockall_derive, symObjAddr: 0x7DC0, symBinAddr: 0x72A64, symSize: 0x354 }
  - { offset: 0xCCEB3, size: 0x8, addend: 0x0, symName: __RNvXsh_NtCs6IAuOt8vWmF_3syn5parseNvYNtNtB7_4attr8MetaListNtB5_5Parse5parseNtB5_6Parser6parse2Cs2nm8mGoL06A_14mockall_derive, symObjAddr: 0x8114, symBinAddr: 0x72DB8, symSize: 0x354 }
  - { offset: 0xCCFC3, size: 0x8, addend: 0x0, symName: __RNvXsh_NtCs6IAuOt8vWmF_3syn5parseNvYNtNtB7_4item11TraitItemFnNtB5_5Parse5parseNtB5_6Parser6parse2Cs2nm8mGoL06A_14mockall_derive, symObjAddr: 0x8468, symBinAddr: 0x7310C, symSize: 0x368 }
  - { offset: 0xCD0D3, size: 0x8, addend: 0x0, symName: __RNvXsh_NtCs6IAuOt8vWmF_3syn5parseNvYNtNtB7_4item4ItemNtB5_5Parse5parseNtB5_6Parser6parse2Cs2nm8mGoL06A_14mockall_derive, symObjAddr: 0x87D0, symBinAddr: 0x73474, symSize: 0x358 }
  - { offset: 0xCD1E3, size: 0x8, addend: 0x0, symName: __RNvXsh_NtCs6IAuOt8vWmF_3syn5parseNvYNtNtB7_4path30AngleBracketedGenericArgumentsNtB5_5Parse5parseNtB5_6Parser6parse2Cs2nm8mGoL06A_14mockall_derive, symObjAddr: 0x8B28, symBinAddr: 0x737CC, symSize: 0x368 }
  - { offset: 0xCD2F3, size: 0x8, addend: 0x0, symName: __RNvXsh_NtCs6IAuOt8vWmF_3syn5parseNvYNtNtCs2nm8mGoL06A_14mockall_derive15mockable_struct12TraitItemVFnNtB5_5Parse5parseNtB5_6Parser6parse2BC_, symObjAddr: 0x8E90, symBinAddr: 0x73B34, symSize: 0x368 }
  - { offset: 0xCD403, size: 0x8, addend: 0x0, symName: __RNvXsh_NtCs6IAuOt8vWmF_3syn5parseNvYNtNtCs2nm8mGoL06A_14mockall_derive15mockable_struct14MockableStructNtB5_5Parse5parseNtB5_6Parser6parse2BC_, symObjAddr: 0x91F8, symBinAddr: 0x73E9C, symSize: 0x35C }
  - { offset: 0xCD513, size: 0x8, addend: 0x0, symName: __RNvXsh_NtCs6IAuOt8vWmF_3syn5parseNvYNtNtCs2nm8mGoL06A_14mockall_derive8automock5AttrsNtB5_5Parse5parseNtB5_6Parser6parse2BC_, symObjAddr: 0x9554, symBinAddr: 0x741F8, symSize: 0x34C }
  - { offset: 0xCD758, size: 0x8, addend: 0x0, symName: __RINvXs2A_NtNtCs6IAuOt8vWmF_3syn3gen4hashNtNtBb_2op4UnOpNtNtCsfvfooZQ3Axs_4core4hash4Hash4hashNtNtNtCscOYdFFY2T5N_3std4hash6random13DefaultHasherECs2nm8mGoL06A_14mockall_derive, symObjAddr: 0x14DC, symBinAddr: 0x6C180, symSize: 0xB4 }
  - { offset: 0xCD7A0, size: 0x8, addend: 0x0, symName: __RINvXs7_NtNtCs6IAuOt8vWmF_3syn3gen4hashNtNtBa_2op5BinOpNtNtCsfvfooZQ3Axs_4core4hash4Hash4hashNtNtNtCscOYdFFY2T5N_3std4hash6random13DefaultHasherECs2nm8mGoL06A_14mockall_derive, symObjAddr: 0x3134, symBinAddr: 0x6DDD8, symSize: 0x43C }
  - { offset: 0xCDDF9, size: 0x8, addend: 0x0, symName: __RNCNvMs3_NtNtCscOYdFFY2T5N_3std6thread5localINtB7_8LocalKeyINtNtCsfvfooZQ3Axs_4core4cell4CellPuEE7replace0Cs2nm8mGoL06A_14mockall_derive, symObjAddr: 0x50B4, symBinAddr: 0x6FD58, symSize: 0x28 }
  - { offset: 0xCE21F, size: 0x8, addend: 0x0, symName: __RINvXs7_NtNtNtCscOYdFFY2T5N_3std11collections4hash3setINtB6_7HashSetNtNtCs6IAuOt8vWmF_3syn8lifetime8LifetimeINtNtCsfvfooZQ3Axs_4core4hash18BuildHasherDefaultNtNtNtBc_4hash6random13DefaultHasherEEINtNtNtNtB1N_4iter6traits7collect6ExtendB14_E6extendBQ_ECs2nm8mGoL06A_14mockall_derive, symObjAddr: 0x3570, symBinAddr: 0x6E214, symSize: 0x24 }
  - { offset: 0xCE27A, size: 0x8, addend: 0x0, symName: __RINvXs5_NtNtNtCscOYdFFY2T5N_3std11collections4hash3setINtB6_7HashSetNtNtCs6IAuOt8vWmF_3syn8generics13LifetimeParamINtNtCsfvfooZQ3Axs_4core4hash18BuildHasherDefaultNtNtNtBc_4hash6random13DefaultHasherEEINtNtNtNtB1T_4iter6traits7collect12FromIteratorB14_E9from_iterINtNtB18_10punctuated8IntoIterB14_EECs2nm8mGoL06A_14mockall_derive, symObjAddr: 0x15F4, symBinAddr: 0x6C298, symSize: 0x10C }
  - { offset: 0xCE365, size: 0x8, addend: 0x0, symName: __RINvXsn_NtNtNtCscOYdFFY2T5N_3std11collections4hash3setINtB6_8IntoIterNtNtCs6IAuOt8vWmF_3syn8lifetime8LifetimeENtNtNtNtCsfvfooZQ3Axs_4core4iter6traits8iterator8Iterator4folduNCINvNtNtB1Q_8adapters3map8map_foldB15_TB15_uEuNCINvXs8_NtCsloNvcHxBCre_9hashbrown3setINtB3F_7HashSetB15_INtNtB1S_4hash18BuildHasherDefaultNtNtNtBc_4hash6random13DefaultHasherEEINtNtB1O_7collect6ExtendB15_E6extendINtB6_7HashSetB15_B4s_EE0NCINvNvB1K_8for_each4callB3o_NCINvXs1i_NtB3H_3mapINtB7e_7HashMapB15_uB4s_EIB5D_B3o_E6extendINtB2Q_3MapBQ_B3w_EE0E0E0ECs2nm8mGoL06A_14mockall_derive, symObjAddr: 0x362C, symBinAddr: 0x6E2D0, symSize: 0x4C }
  - { offset: 0xCE3C9, size: 0x8, addend: 0x0, symName: __RNvXsn_NtNtNtCscOYdFFY2T5N_3std11collections4hash3setINtB5_8IntoIterNtNtCs6IAuOt8vWmF_3syn8lifetime8LifetimeENtNtNtNtCsfvfooZQ3Axs_4core4iter6traits8iterator8Iterator9size_hintCs2nm8mGoL06A_14mockall_derive, symObjAddr: 0x9984, symBinAddr: 0x74628, symSize: 0x40 }
  - { offset: 0xCE4F3, size: 0x8, addend: 0x0, symName: __RNvXs9_NtNtNtCscOYdFFY2T5N_3std11collections4hash3setINtB5_7HashSetNtNtCs6IAuOt8vWmF_3syn8lifetime8LifetimeINtNtCsfvfooZQ3Axs_4core4hash18BuildHasherDefaultNtNtNtBb_4hash6random13DefaultHasherEENtNtB1M_7default7Default7defaultCs2nm8mGoL06A_14mockall_derive, symObjAddr: 0x6CA0, symBinAddr: 0x71944, symSize: 0x48 }
  - { offset: 0xCE539, size: 0x8, addend: 0x0, symName: __RNvXs9_NtNtNtCscOYdFFY2T5N_3std11collections4hash3setINtB5_7HashSetTNtNtCs6IAuOt8vWmF_3syn4path4PathINtNtCse1nGBsou5OW_5alloc3vec3VecNtNtB18_4attr9AttributeEEENtNtCsfvfooZQ3Axs_4core7default7Default7defaultCs2nm8mGoL06A_14mockall_derive, symObjAddr: 0x6CE8, symBinAddr: 0x7198C, symSize: 0x54 }
  - { offset: 0xCE5AC, size: 0x8, addend: 0x0, symName: __RNvXsj_NtNtNtCscOYdFFY2T5N_3std11collections4hash3setINtB5_4IterNtNtCs6IAuOt8vWmF_3syn8generics13LifetimeParamENtNtNtNtCsfvfooZQ3Axs_4core4iter6traits8iterator8Iterator4nextCs2nm8mGoL06A_14mockall_derive, symObjAddr: 0x9918, symBinAddr: 0x745BC, symSize: 0x6C }
  - { offset: 0xCE63B, size: 0x8, addend: 0x0, symName: __RNvXsD_NtNtNtCscOYdFFY2T5N_3std11collections4hash3setINtB5_10DifferenceNtNtCs6IAuOt8vWmF_3syn8generics13LifetimeParamINtNtCsfvfooZQ3Axs_4core4hash18BuildHasherDefaultNtNtNtBb_4hash6random13DefaultHasherEENtNtNtNtB1W_4iter6traits8iterator8Iterator4nextCs2nm8mGoL06A_14mockall_derive, symObjAddr: 0x6DCC, symBinAddr: 0x71A70, symSize: 0xE8 }
  - { offset: 0xCE7EB, size: 0x8, addend: 0x0, symName: __RNvXsN_NtNtNtCscOYdFFY2T5N_3std11collections4hash3setINtB5_5UnionNtNtCs6IAuOt8vWmF_3syn8generics13LifetimeParamINtNtCsfvfooZQ3Axs_4core4hash18BuildHasherDefaultNtNtNtBb_4hash6random13DefaultHasherEENtNtNtNtB1Q_4iter6traits8iterator8Iterator4nextCs2nm8mGoL06A_14mockall_derive, symObjAddr: 0x712C, symBinAddr: 0x71DD0, symSize: 0x24 }
  - { offset: 0xCE831, size: 0x8, addend: 0x0, symName: __RNvXsh_NtNtNtCscOYdFFY2T5N_3std11collections4hash3setINtB5_7HashSetNtNtCs6IAuOt8vWmF_3syn8lifetime8LifetimeINtNtCsfvfooZQ3Axs_4core4hash18BuildHasherDefaultNtNtNtBb_4hash6random13DefaultHasherEENtNtNtNtB1M_4iter6traits7collect12IntoIterator9into_iterCs2nm8mGoL06A_14mockall_derive, symObjAddr: 0x98A0, symBinAddr: 0x74544, symSize: 0x78 }
  - { offset: 0xCE94A, size: 0x8, addend: 0x0, symName: __RNvXsW_NtNtCscOYdFFY2T5N_3std3ffi6os_streINtNtCsfvfooZQ3Axs_4core7convert5AsRefNtB5_5OsStrE6as_refCs2nm8mGoL06A_14mockall_derive, symObjAddr: 0x7384, symBinAddr: 0x72028, symSize: 0x18 }
  - { offset: 0xCEB85, size: 0x8, addend: 0x0, symName: __RINvMNtCsfvfooZQ3Axs_4core6resultINtB3_6ResultNtNtCs6IAuOt8vWmF_3syn4item13TraitItemTypeNtNtBM_5error5ErrorE3mapNtNtCs2nm8mGoL06A_14mockall_derive8automock4AttrNcNtB1M_4Type0EB1Q_, symObjAddr: 0x0, symBinAddr: 0x6ACA4, symSize: 0xCC }
  - { offset: 0xCF457, size: 0x8, addend: 0x0, symName: __RNCINvNtCsloNvcHxBCre_9hashbrown3map14equivalent_keyNtCs3cP53eQoTwO_11proc_macro25IdentBO_NtNtCs6IAuOt8vWmF_3syn2ty4TypeE0Cs2nm8mGoL06A_14mockall_derive, symObjAddr: 0x3B18, symBinAddr: 0x6E7BC, symSize: 0x30 }
  - { offset: 0xCF4AE, size: 0x8, addend: 0x0, symName: __RNCINvNtCsloNvcHxBCre_9hashbrown3map14equivalent_keyNtNtCs6IAuOt8vWmF_3syn2ty4TypeBO_BO_E0Cs2nm8mGoL06A_14mockall_derive, symObjAddr: 0x3B48, symBinAddr: 0x6E7EC, symSize: 0x30 }
  - { offset: 0xCF505, size: 0x8, addend: 0x0, symName: __RNCINvNtCsloNvcHxBCre_9hashbrown3map14equivalent_keyNtNtCs6IAuOt8vWmF_3syn2ty4TypeBO_TBO_INtNtCsfvfooZQ3Axs_4core6option6OptionINtNtBS_10punctuated10PunctuatedNtNtBS_8generics14TypeParamBoundNtNtBS_5token4PlusEEEE0Cs2nm8mGoL06A_14mockall_derive, symObjAddr: 0x3B78, symBinAddr: 0x6E81C, symSize: 0x30 }
  - { offset: 0xCF55C, size: 0x8, addend: 0x0, symName: __RNCINvNtCsloNvcHxBCre_9hashbrown3map14equivalent_keyNtNtCs6IAuOt8vWmF_3syn8generics13LifetimeParamBO_uE0Cs2nm8mGoL06A_14mockall_derive, symObjAddr: 0x3BA8, symBinAddr: 0x6E84C, symSize: 0x30 }
  - { offset: 0xCF5B3, size: 0x8, addend: 0x0, symName: __RNCINvNtCsloNvcHxBCre_9hashbrown3map14equivalent_keyNtNtCs6IAuOt8vWmF_3syn8lifetime8LifetimeBO_uE0Cs2nm8mGoL06A_14mockall_derive, symObjAddr: 0x3BD8, symBinAddr: 0x6E87C, symSize: 0x30 }
  - { offset: 0xCF60A, size: 0x8, addend: 0x0, symName: __RNCINvNtCsloNvcHxBCre_9hashbrown3map14equivalent_keyTNtNtCs6IAuOt8vWmF_3syn4path4PathINtNtCse1nGBsou5OW_5alloc3vec3VecNtNtBT_4attr9AttributeEEBO_uE0Cs2nm8mGoL06A_14mockall_derive, symObjAddr: 0x3C08, symBinAddr: 0x6E8AC, symSize: 0x30 }
  - { offset: 0xCFF1B, size: 0x8, addend: 0x0, symName: __RINvXs1i_NtCsloNvcHxBCre_9hashbrown3mapINtB7_7HashMapNtNtCs6IAuOt8vWmF_3syn8generics13LifetimeParamuINtNtCsfvfooZQ3Axs_4core4hash18BuildHasherDefaultNtNtNtCscOYdFFY2T5N_3std4hash6random13DefaultHasherEEINtNtNtNtB1F_4iter6traits7collect6ExtendTBP_uEE6extendINtNtNtB3l_8adapters3map3MapINtNtBT_10punctuated8IntoIterBP_ENCINvXs8_NtB9_3setINtB5e_7HashSetBP_B1A_EIB3f_BP_E6extendB4y_E0EECs2nm8mGoL06A_14mockall_derive, symObjAddr: 0x12C4, symBinAddr: 0x6BF68, symSize: 0x104 }
  - { offset: 0xD0025, size: 0x8, addend: 0x0, symName: __RINvXs1i_NtCsloNvcHxBCre_9hashbrown3mapINtB7_7HashMapNtNtCs6IAuOt8vWmF_3syn8lifetime8LifetimeuINtNtCsfvfooZQ3Axs_4core4hash18BuildHasherDefaultNtNtNtCscOYdFFY2T5N_3std4hash6random13DefaultHasherEEINtNtNtNtB1z_4iter6traits7collect6ExtendTBP_uEE6extendINtNtNtB3f_8adapters3map3MapINtNtNtNtB2n_11collections4hash3set8IntoIterBP_ENCINvXs8_NtB9_3setINtB5n_7HashSetBP_B1u_EIB39_BP_E6extendINtB4v_7HashSetBP_B1u_EE0EECs2nm8mGoL06A_14mockall_derive, symObjAddr: 0x13C8, symBinAddr: 0x6C06C, symSize: 0x114 }
  - { offset: 0xD0135, size: 0x8, addend: 0x0, symName: __RNCINvXs1i_NtCsloNvcHxBCre_9hashbrown3mapINtB9_7HashMapNtNtCs6IAuOt8vWmF_3syn8generics13LifetimeParamuINtNtCsfvfooZQ3Axs_4core4hash18BuildHasherDefaultNtNtNtCscOYdFFY2T5N_3std4hash6random13DefaultHasherEEINtNtNtNtB1H_4iter6traits7collect6ExtendTBR_uEE6extendINtNtNtB3n_8adapters3map3MapINtNtBV_10punctuated8IntoIterBR_ENCINvXs8_NtBb_3setINtB5g_7HashSetBR_B1C_EIB3h_BR_E6extendB4A_E0EE0Cs2nm8mGoL06A_14mockall_derive, symObjAddr: 0x3C38, symBinAddr: 0x6E8DC, symSize: 0x44 }
  - { offset: 0xD01C8, size: 0x8, addend: 0x0, symName: __RNCINvXs1i_NtCsloNvcHxBCre_9hashbrown3mapINtB9_7HashMapNtNtCs6IAuOt8vWmF_3syn8lifetime8LifetimeuINtNtCsfvfooZQ3Axs_4core4hash18BuildHasherDefaultNtNtNtCscOYdFFY2T5N_3std4hash6random13DefaultHasherEEINtNtNtNtB1B_4iter6traits7collect6ExtendTBR_uEE6extendINtNtNtB3h_8adapters3map3MapINtNtNtNtB2p_11collections4hash3set8IntoIterBR_ENCINvXs8_NtBb_3setINtB5p_7HashSetBR_B1w_EIB3b_BR_E6extendINtB4x_7HashSetBR_B1w_EE0EE0Cs2nm8mGoL06A_14mockall_derive, symObjAddr: 0x3C7C, symBinAddr: 0x6E920, symSize: 0x40 }
  - { offset: 0xD0338, size: 0x8, addend: 0x0, symName: __RNCINvNtCsloNvcHxBCre_9hashbrown3map11make_hasherNtCs3cP53eQoTwO_11proc_macro25IdentNtNtCs6IAuOt8vWmF_3syn2ty4TypeNtNtNtCscOYdFFY2T5N_3std4hash6random11RandomStateE0Cs2nm8mGoL06A_14mockall_derive, symObjAddr: 0x39B0, symBinAddr: 0x6E654, symSize: 0x3C }
  - { offset: 0xD03B4, size: 0x8, addend: 0x0, symName: __RNCINvNtCsloNvcHxBCre_9hashbrown3map11make_hasherNtNtCs6IAuOt8vWmF_3syn2ty4TypeBL_INtNtCsfvfooZQ3Axs_4core4hash18BuildHasherDefaultNtNtNtCscOYdFFY2T5N_3std4hash6random13DefaultHasherEE0Cs2nm8mGoL06A_14mockall_derive, symObjAddr: 0x39EC, symBinAddr: 0x6E690, symSize: 0x3C }
  - { offset: 0xD0430, size: 0x8, addend: 0x0, symName: __RNCINvNtCsloNvcHxBCre_9hashbrown3map11make_hasherNtNtCs6IAuOt8vWmF_3syn2ty4TypeTBL_INtNtCsfvfooZQ3Axs_4core6option6OptionINtNtBP_10punctuated10PunctuatedNtNtBP_8generics14TypeParamBoundNtNtBP_5token4PlusEEEINtNtB1o_4hash18BuildHasherDefaultNtNtNtCscOYdFFY2T5N_3std4hash6random13DefaultHasherEE0Cs2nm8mGoL06A_14mockall_derive, symObjAddr: 0x3A28, symBinAddr: 0x6E6CC, symSize: 0x3C }
  - { offset: 0xD04AC, size: 0x8, addend: 0x0, symName: __RNCINvNtCsloNvcHxBCre_9hashbrown3map11make_hasherNtNtCs6IAuOt8vWmF_3syn8generics13LifetimeParamuINtNtCsfvfooZQ3Axs_4core4hash18BuildHasherDefaultNtNtNtCscOYdFFY2T5N_3std4hash6random13DefaultHasherEE0Cs2nm8mGoL06A_14mockall_derive, symObjAddr: 0x3A64, symBinAddr: 0x6E708, symSize: 0x3C }
  - { offset: 0xD0528, size: 0x8, addend: 0x0, symName: __RNCINvNtCsloNvcHxBCre_9hashbrown3map11make_hasherNtNtCs6IAuOt8vWmF_3syn8lifetime8LifetimeuINtNtCsfvfooZQ3Axs_4core4hash18BuildHasherDefaultNtNtNtCscOYdFFY2T5N_3std4hash6random13DefaultHasherEE0Cs2nm8mGoL06A_14mockall_derive, symObjAddr: 0x3AA0, symBinAddr: 0x6E744, symSize: 0x3C }
  - { offset: 0xD05A4, size: 0x8, addend: 0x0, symName: __RNCINvNtCsloNvcHxBCre_9hashbrown3map11make_hasherTNtNtCs6IAuOt8vWmF_3syn4path4PathINtNtCse1nGBsou5OW_5alloc3vec3VecNtNtBQ_4attr9AttributeEEuNtNtNtCscOYdFFY2T5N_3std4hash6random11RandomStateE0Cs2nm8mGoL06A_14mockall_derive, symObjAddr: 0x3ADC, symBinAddr: 0x6E780, symSize: 0x3C }
  - { offset: 0xD0899, size: 0x8, addend: 0x0, symName: __RNvXs5_NtCsloNvcHxBCre_9hashbrown3mapINtB5_7HashMapNtNtCs6IAuOt8vWmF_3syn8lifetime8LifetimeuINtNtCsfvfooZQ3Axs_4core4hash18BuildHasherDefaultNtNtNtCscOYdFFY2T5N_3std4hash6random13DefaultHasherEENtNtB1x_7default7Default7defaultCs2nm8mGoL06A_14mockall_derive, symObjAddr: 0x6A24, symBinAddr: 0x716C8, symSize: 0x6C }
  - { offset: 0xD0917, size: 0x8, addend: 0x0, symName: __RNvXs5_NtCsloNvcHxBCre_9hashbrown3mapINtB5_7HashMapTNtNtCs6IAuOt8vWmF_3syn4path4PathINtNtCse1nGBsou5OW_5alloc3vec3VecNtNtBS_4attr9AttributeEEuNtNtNtCscOYdFFY2T5N_3std4hash6random11RandomStateENtNtCsfvfooZQ3Axs_4core7default7Default7defaultCs2nm8mGoL06A_14mockall_derive, symObjAddr: 0x6A90, symBinAddr: 0x71734, symSize: 0x8C }
  - { offset: 0xD0A1F, size: 0x8, addend: 0x0, symName: __RNvXsE_NtCsloNvcHxBCre_9hashbrown3mapINtB5_7HashMapNtNtCs6IAuOt8vWmF_3syn8lifetime8LifetimeuINtNtCsfvfooZQ3Axs_4core4hash18BuildHasherDefaultNtNtNtCscOYdFFY2T5N_3std4hash6random13DefaultHasherEENtNtNtNtB1x_4iter6traits7collect12IntoIterator9into_iterCs2nm8mGoL06A_14mockall_derive, symObjAddr: 0x6EB4, symBinAddr: 0x71B58, symSize: 0x6C }
  - { offset: 0xD0A78, size: 0x8, addend: 0x0, symName: __RNvXsG_NtCsloNvcHxBCre_9hashbrown3mapINtB5_4IterNtNtCs6IAuOt8vWmF_3syn8generics13LifetimeParamuENtNtNtNtCsfvfooZQ3Axs_4core4iter6traits8iterator8Iterator4nextCs2nm8mGoL06A_14mockall_derive, symObjAddr: 0x7034, symBinAddr: 0x71CD8, symSize: 0xF8 }
  - { offset: 0xD16B1, size: 0x8, addend: 0x0, symName: __RNvXCsloNvcHxBCre_9hashbrownNtCs3cP53eQoTwO_11proc_macro25IdentINtB2_10EquivalentBq_E10equivalentCs2nm8mGoL06A_14mockall_derive, symObjAddr: 0x6248, symBinAddr: 0x70EEC, symSize: 0x50 }
  - { offset: 0xD184D, size: 0x8, addend: 0x0, symName: __RINvMs0_NtNtNtCscOYdFFY2T5N_3std11collections4hash3setINtB6_7HashSetNtNtCs6IAuOt8vWmF_3syn8lifetime8LifetimeINtNtCsfvfooZQ3Axs_4core4hash18BuildHasherDefaultNtNtNtBc_4hash6random13DefaultHasherEE8containsB14_ECs2nm8mGoL06A_14mockall_derive, symObjAddr: 0xCC, symBinAddr: 0x6AD70, symSize: 0x5C }
  - { offset: 0xD1A39, size: 0x8, addend: 0x0, symName: __RINvMs0_NtNtNtCscOYdFFY2T5N_3std11collections4hash3setINtB6_7HashSetTNtNtCs6IAuOt8vWmF_3syn4path4PathINtNtCse1nGBsou5OW_5alloc3vec3VecNtNtB19_4attr9AttributeEEE8containsB14_ECs2nm8mGoL06A_14mockall_derive, symObjAddr: 0x128, symBinAddr: 0x6ADCC, symSize: 0x5C }
  - { offset: 0xD1C69, size: 0x8, addend: 0x0, symName: __RINvMs1_NtCsloNvcHxBCre_9hashbrown3mapINtB6_7HashMapNtCs3cP53eQoTwO_11proc_macro25IdentNtNtCs6IAuOt8vWmF_3syn2ty4TypeNtNtNtCscOYdFFY2T5N_3std4hash6random11RandomStateE9get_innerBO_ECs2nm8mGoL06A_14mockall_derive, symObjAddr: 0x184, symBinAddr: 0x6AE28, symSize: 0xF8 }
  - { offset: 0xD1F78, size: 0x8, addend: 0x0, symName: __RINvMs1_NtCsloNvcHxBCre_9hashbrown3mapINtB6_7HashMapNtNtCs6IAuOt8vWmF_3syn2ty4TypeBO_INtNtCsfvfooZQ3Axs_4core4hash18BuildHasherDefaultNtNtNtCscOYdFFY2T5N_3std4hash6random13DefaultHasherEE9get_innerBO_ECs2nm8mGoL06A_14mockall_derive, symObjAddr: 0x27C, symBinAddr: 0x6AF20, symSize: 0xF8 }
  - { offset: 0xD228C, size: 0x8, addend: 0x0, symName: __RINvMs1_NtCsloNvcHxBCre_9hashbrown3mapINtB6_7HashMapNtNtCs6IAuOt8vWmF_3syn2ty4TypeTBO_INtNtCsfvfooZQ3Axs_4core6option6OptionINtNtBS_10punctuated10PunctuatedNtNtBS_8generics14TypeParamBoundNtNtBS_5token4PlusEEEINtNtB1r_4hash18BuildHasherDefaultNtNtNtCscOYdFFY2T5N_3std4hash6random13DefaultHasherEE9get_innerBO_ECs2nm8mGoL06A_14mockall_derive, symObjAddr: 0x374, symBinAddr: 0x6B018, symSize: 0xF8 }
  - { offset: 0xD258D, size: 0x8, addend: 0x0, symName: __RINvMs1_NtCsloNvcHxBCre_9hashbrown3mapINtB6_7HashMapNtNtCs6IAuOt8vWmF_3syn8generics13LifetimeParamuINtNtCsfvfooZQ3Axs_4core4hash18BuildHasherDefaultNtNtNtCscOYdFFY2T5N_3std4hash6random13DefaultHasherEE9get_innerBO_ECs2nm8mGoL06A_14mockall_derive, symObjAddr: 0x46C, symBinAddr: 0x6B110, symSize: 0xF8 }
  - { offset: 0xD2849, size: 0x8, addend: 0x0, symName: __RINvMs1_NtCsloNvcHxBCre_9hashbrown3mapINtB6_7HashMapNtNtCs6IAuOt8vWmF_3syn8lifetime8LifetimeuINtNtCsfvfooZQ3Axs_4core4hash18BuildHasherDefaultNtNtNtCscOYdFFY2T5N_3std4hash6random13DefaultHasherEE9get_innerBO_ECs2nm8mGoL06A_14mockall_derive, symObjAddr: 0x564, symBinAddr: 0x6B208, symSize: 0xF8 }
  - { offset: 0xD2B05, size: 0x8, addend: 0x0, symName: __RINvMs1_NtCsloNvcHxBCre_9hashbrown3mapINtB6_7HashMapTNtNtCs6IAuOt8vWmF_3syn4path4PathINtNtCse1nGBsou5OW_5alloc3vec3VecNtNtBT_4attr9AttributeEEuNtNtNtCscOYdFFY2T5N_3std4hash6random11RandomStateE9get_innerBO_ECs2nm8mGoL06A_14mockall_derive, symObjAddr: 0x65C, symBinAddr: 0x6B300, symSize: 0xF8 }
  - { offset: 0xD2CD9, size: 0x8, addend: 0x0, symName: __RINvMs2_NtNtCscOYdFFY2T5N_3std6thread5localINtB6_8LocalKeyINtNtCsfvfooZQ3Axs_4core4cell4CellPuEE4withNCNvMs3_B6_BF_7replace0B1s_ECs2nm8mGoL06A_14mockall_derive, symObjAddr: 0x754, symBinAddr: 0x6B3F8, symSize: 0x54 }
  - { offset: 0xD2D92, size: 0x8, addend: 0x0, symName: __RINvMs2_NtNtCscOYdFFY2T5N_3std6thread5localINtB6_8LocalKeyINtNtCsfvfooZQ3Axs_4core4cell4CellPuEE8try_withNCNvMs3_B6_BF_7replace0B1s_ECs2nm8mGoL06A_14mockall_derive, symObjAddr: 0x7A8, symBinAddr: 0x6B44C, symSize: 0xE4 }
  - { offset: 0xD2F24, size: 0x8, addend: 0x0, symName: __RINvMs2_NtNtCscOYdFFY2T5N_3std6thread5localINtB6_8LocalKeyINtNtCsfvfooZQ3Axs_4core4cell4CellTyyEEE4withNCNvMNtNtBa_4hash6randomNtB1I_11RandomState3new0B21_ECs2nm8mGoL06A_14mockall_derive, symObjAddr: 0x88C, symBinAddr: 0x6B530, symSize: 0x50 }
  - { offset: 0xD2FDD, size: 0x8, addend: 0x0, symName: __RINvMs2_NtNtCscOYdFFY2T5N_3std6thread5localINtB6_8LocalKeyINtNtCsfvfooZQ3Axs_4core4cell4CellTyyEEE8try_withNCNvMNtNtBa_4hash6randomNtB1M_11RandomState3new0B25_ECs2nm8mGoL06A_14mockall_derive, symObjAddr: 0x8DC, symBinAddr: 0x6B580, symSize: 0xE8 }
  - { offset: 0xD314D, size: 0x8, addend: 0x0, symName: __RINvMs9_NtCs6IAuOt8vWmF_3syn5parseNtB6_11ParseBuffer5parseNtNtB8_4item13TraitItemTypeECs2nm8mGoL06A_14mockall_derive, symObjAddr: 0x9C4, symBinAddr: 0x6B668, symSize: 0x34 }
  - { offset: 0xD3179, size: 0x8, addend: 0x0, symName: __RINvMs9_NtCs6IAuOt8vWmF_3syn5parseNtB6_11ParseBuffer5parseNtNtCs2nm8mGoL06A_14mockall_derive8automock4AttrEBY_, symObjAddr: 0x9F8, symBinAddr: 0x6B69C, symSize: 0x34 }
  - { offset: 0xD31B4, size: 0x8, addend: 0x0, symName: __RINvXNtCs2cqEZUIJimJ_5quote3extNtCs3cP53eQoTwO_11proc_macro211TokenStreamNtB3_14TokenStreamExt10append_allINtNtCs6IAuOt8vWmF_3syn10punctuated5PairsNtBv_5IdentNtNtB1L_5token5CommaEECs2nm8mGoL06A_14mockall_derive, symObjAddr: 0xA64, symBinAddr: 0x6B708, symSize: 0xD0 }
  - { offset: 0xD3226, size: 0x8, addend: 0x0, symName: __RINvXNtCs2cqEZUIJimJ_5quote3extNtCs3cP53eQoTwO_11proc_macro211TokenStreamNtB3_14TokenStreamExt10append_allINtNtCs6IAuOt8vWmF_3syn10punctuated5PairsNtNtB1L_4path11PathSegmentNtNtB1L_5token7PathSepEECs2nm8mGoL06A_14mockall_derive, symObjAddr: 0xB34, symBinAddr: 0x6B7D8, symSize: 0xD0 }
  - { offset: 0xD32A4, size: 0x8, addend: 0x0, symName: __RNvXNtCs2cqEZUIJimJ_5quote14ident_fragmentRNtCs3cP53eQoTwO_11proc_macro25IdentNtB2_13IdentFragment3fmtCs2nm8mGoL06A_14mockall_derive, symObjAddr: 0x6298, symBinAddr: 0x70F3C, symSize: 0x40 }
  - { offset: 0xD32E7, size: 0x8, addend: 0x0, symName: __RNvXNtCs2cqEZUIJimJ_5quote14ident_fragmentRNtCs3cP53eQoTwO_11proc_macro25IdentNtB2_13IdentFragment4spanCs2nm8mGoL06A_14mockall_derive, symObjAddr: 0x62D8, symBinAddr: 0x70F7C, symSize: 0x38 }
  - { offset: 0xD331C, size: 0x8, addend: 0x0, symName: __RNvXNtCs2cqEZUIJimJ_5quote14ident_fragmentRRNtCs3cP53eQoTwO_11proc_macro25IdentNtB2_13IdentFragment3fmtCs2nm8mGoL06A_14mockall_derive, symObjAddr: 0x6310, symBinAddr: 0x70FB4, symSize: 0x40 }
  - { offset: 0xD335F, size: 0x8, addend: 0x0, symName: __RNvXNtCs2cqEZUIJimJ_5quote14ident_fragmentRRNtCs3cP53eQoTwO_11proc_macro25IdentNtB2_13IdentFragment4spanCs2nm8mGoL06A_14mockall_derive, symObjAddr: 0x6350, symBinAddr: 0x70FF4, symSize: 0x38 }
  - { offset: 0xD3394, size: 0x8, addend: 0x0, symName: __RNvXNtCs2cqEZUIJimJ_5quote14ident_fragmentRRRNtCs3cP53eQoTwO_11proc_macro25IdentNtB2_13IdentFragment3fmtCs2nm8mGoL06A_14mockall_derive, symObjAddr: 0x6388, symBinAddr: 0x7102C, symSize: 0x40 }
  - { offset: 0xD33D7, size: 0x8, addend: 0x0, symName: __RNvXNtCs2cqEZUIJimJ_5quote14ident_fragmentRRRNtCs3cP53eQoTwO_11proc_macro25IdentNtB2_13IdentFragment4spanCs2nm8mGoL06A_14mockall_derive, symObjAddr: 0x63C8, symBinAddr: 0x7106C, symSize: 0x38 }
  - { offset: 0xD3418, size: 0x8, addend: 0x0, symName: __RNvXNtCs2cqEZUIJimJ_5quote9to_tokensRNtCs3cP53eQoTwO_11proc_macro211TokenStreamNtB2_8ToTokens9to_tokensCs2nm8mGoL06A_14mockall_derive, symObjAddr: 0x6400, symBinAddr: 0x710A4, symSize: 0x40 }
  - { offset: 0xD3457, size: 0x8, addend: 0x0, symName: __RNvXNtCs2cqEZUIJimJ_5quote9to_tokensRNtCs3cP53eQoTwO_11proc_macro25IdentNtB2_8ToTokens9to_tokensCs2nm8mGoL06A_14mockall_derive, symObjAddr: 0x6440, symBinAddr: 0x710E4, symSize: 0x40 }
  - { offset: 0xD3496, size: 0x8, addend: 0x0, symName: __RNvXNtCs2cqEZUIJimJ_5quote9to_tokensRRNtCs3cP53eQoTwO_11proc_macro25IdentNtB2_8ToTokens9to_tokensCs2nm8mGoL06A_14mockall_derive, symObjAddr: 0x6480, symBinAddr: 0x71124, symSize: 0x40 }
  - { offset: 0xD3F8D, size: 0x8, addend: 0x0, symName: __RNvMNtCsfvfooZQ3Axs_4core6resultINtB2_6ResultNtNtCse1nGBsou5OW_5alloc6string6StringNtNtCscOYdFFY2T5N_3std3env8VarErrorE5is_okCs2nm8mGoL06A_14mockall_derive, symObjAddr: 0x5154, symBinAddr: 0x6FDF8, symSize: 0x20 }
  - { offset: 0xD40BB, size: 0x8, addend: 0x0, symName: __RNvMs0_NtCsloNvcHxBCre_9hashbrown3mapINtB5_7HashMapNtNtCs6IAuOt8vWmF_3syn8generics13LifetimeParamuINtNtCsfvfooZQ3Axs_4core4hash18BuildHasherDefaultNtNtNtCscOYdFFY2T5N_3std4hash6random13DefaultHasherEE4iterCs2nm8mGoL06A_14mockall_derive, symObjAddr: 0x5174, symBinAddr: 0x6FE18, symSize: 0xC8 }
  - { offset: 0xD4378, size: 0x8, addend: 0x0, symName: __RNvMs0_NtNtNtCscOYdFFY2T5N_3std11collections4hash3setINtB5_7HashSetNtNtCs6IAuOt8vWmF_3syn8generics13LifetimeParamINtNtCsfvfooZQ3Axs_4core4hash18BuildHasherDefaultNtNtNtBb_4hash6random13DefaultHasherEE5unionCs2nm8mGoL06A_14mockall_derive, symObjAddr: 0x523C, symBinAddr: 0x6FEE0, symSize: 0x264 }
  - { offset: 0xD46D9, size: 0x8, addend: 0x0, symName: __RNvMs0_NtNtNtCscOYdFFY2T5N_3std11collections4hash3setINtB5_7HashSetNtNtCs6IAuOt8vWmF_3syn8lifetime8LifetimeINtNtCsfvfooZQ3Axs_4core4hash18BuildHasherDefaultNtNtNtBb_4hash6random13DefaultHasherEE6insertCs2nm8mGoL06A_14mockall_derive, symObjAddr: 0x54A0, symBinAddr: 0x70144, symSize: 0x48 }
  - { offset: 0xD480D, size: 0x8, addend: 0x0, symName: __RNvMs0_NtNtNtCscOYdFFY2T5N_3std11collections4hash3setINtB5_7HashSetTNtNtCs6IAuOt8vWmF_3syn4path4PathINtNtCse1nGBsou5OW_5alloc3vec3VecNtNtB18_4attr9AttributeEEE6insertCs2nm8mGoL06A_14mockall_derive, symObjAddr: 0x54E8, symBinAddr: 0x7018C, symSize: 0x48 }
  - { offset: 0xD4988, size: 0x8, addend: 0x0, symName: __RNvMs1_NtCsloNvcHxBCre_9hashbrown3mapINtB5_7HashMapNtCs3cP53eQoTwO_11proc_macro25IdentNtNtCs6IAuOt8vWmF_3syn2ty4TypeNtNtNtCscOYdFFY2T5N_3std4hash6random11RandomStateE6insertCs2nm8mGoL06A_14mockall_derive, symObjAddr: 0x5530, symBinAddr: 0x701D4, symSize: 0x268 }
  - { offset: 0xD4C17, size: 0x8, addend: 0x0, symName: __RNvMs1_NtCsloNvcHxBCre_9hashbrown3mapINtB5_7HashMapNtNtCs6IAuOt8vWmF_3syn2ty4TypeBN_INtNtCsfvfooZQ3Axs_4core4hash18BuildHasherDefaultNtNtNtCscOYdFFY2T5N_3std4hash6random13DefaultHasherEE6insertCs2nm8mGoL06A_14mockall_derive, symObjAddr: 0x5798, symBinAddr: 0x7043C, symSize: 0x250 }
  - { offset: 0xD4EB3, size: 0x8, addend: 0x0, symName: __RNvMs1_NtCsloNvcHxBCre_9hashbrown3mapINtB5_7HashMapNtNtCs6IAuOt8vWmF_3syn2ty4TypeTBN_INtNtCsfvfooZQ3Axs_4core6option6OptionINtNtBR_10punctuated10PunctuatedNtNtBR_8generics14TypeParamBoundNtNtBR_5token4PlusEEEINtNtB1q_4hash18BuildHasherDefaultNtNtNtCscOYdFFY2T5N_3std4hash6random13DefaultHasherEE6insertCs2nm8mGoL06A_14mockall_derive, symObjAddr: 0x59E8, symBinAddr: 0x7068C, symSize: 0x258 }
