---
triple:          'arm64-apple-darwin'
binary-path:     '/Users/cedric/orange/ran-llm-claude-flow/src/rust-pipeline/target/debug/build/proc-macro2-a52d9f7723fe89fd/build_script_build-a52d9f7723fe89fd'
relocations:
  - { offset: 0x1E, size: 0x8, addend: 0x0, symName: __RINvMs12_NtCscOYdFFY2T5N_3std4pathNtB7_4Path14with_extensionReECs2oPECeeQSs6_18build_script_build, symObjAddr: 0x0, symBinAddr: 0x100000BF0, symSize: 0x80 }
  - { offset: 0x919, size: 0x8, addend: 0x0, symName: __RNvNvMs1_NtNtCsfvfooZQ3Axs_4core3ptr8non_nullINtB7_7NonNullpE13new_unchecked18precondition_checkCs2oPECeeQSs6_18build_script_build, symObjAddr: 0x2BD0, symBinAddr: 0x1000036E4, symSize: 0x38 }
  - { offset: 0xF12, size: 0x8, addend: 0x0, symName: __RINvNtCsfvfooZQ3Axs_4core3ptr13drop_in_placeINtNtB4_6option4ItemNtNtNtCscOYdFFY2T5N_3std3ffi6os_str8OsStringEECs2oPECeeQSs6_18build_script_build, symObjAddr: 0x71C, symBinAddr: 0x100001264, symSize: 0x24 }
  - { offset: 0xF41, size: 0x8, addend: 0x0, symName: __RINvNtCsfvfooZQ3Axs_4core3ptr13drop_in_placeINtNtB4_6option6OptionINtBJ_8IntoIterNtNtNtCscOYdFFY2T5N_3std3ffi6os_str8OsStringEEECs2oPECeeQSs6_18build_script_build, symObjAddr: 0x740, symBinAddr: 0x100001288, symSize: 0x48 }
  - { offset: 0xF70, size: 0x8, addend: 0x0, symName: __RINvNtCsfvfooZQ3Axs_4core3ptr13drop_in_placeINtNtB4_6option6OptionINtNtCse1nGBsou5OW_5alloc5boxed3BoxSmEEECs2oPECeeQSs6_18build_script_build, symObjAddr: 0x788, symBinAddr: 0x1000012D0, symSize: 0x44 }
  - { offset: 0xF9F, size: 0x8, addend: 0x0, symName: __RINvNtCsfvfooZQ3Axs_4core3ptr13drop_in_placeINtNtB4_6option6OptionINtNtNtNtB4_4iter7sources4once4OnceNtNtNtCscOYdFFY2T5N_3std3ffi6os_str8OsStringEEECs2oPECeeQSs6_18build_script_build, symObjAddr: 0x7CC, symBinAddr: 0x100001314, symSize: 0x48 }
  - { offset: 0xFCE, size: 0x8, addend: 0x0, symName: __RINvNtCsfvfooZQ3Axs_4core3ptr13drop_in_placeINtNtB4_6option6OptionINtNtNtNtB4_4iter8adapters5chain5ChainINtBJ_8IntoIterNtNtNtCscOYdFFY2T5N_3std3ffi6os_str8OsStringEB1E_EEECs2oPECeeQSs6_18build_script_build, symObjAddr: 0x814, symBinAddr: 0x10000135C, symSize: 0x4C }
  - { offset: 0xFFD, size: 0x8, addend: 0x0, symName: __RINvNtCsfvfooZQ3Axs_4core3ptr13drop_in_placeINtNtB4_6option6OptionNtNtNtCscOYdFFY2T5N_3std3ffi6os_str8OsStringEECs2oPECeeQSs6_18build_script_build, symObjAddr: 0x860, symBinAddr: 0x1000013A8, symSize: 0x48 }
  - { offset: 0x102C, size: 0x8, addend: 0x0, symName: __RINvNtCsfvfooZQ3Axs_4core3ptr13drop_in_placeINtNtB4_6option6OptionNtNtNtCse1nGBsou5OW_5alloc3ffi5c_str7CStringEECs2oPECeeQSs6_18build_script_build, symObjAddr: 0x8A8, symBinAddr: 0x1000013F0, symSize: 0x44 }
  - { offset: 0x105B, size: 0x8, addend: 0x0, symName: __RINvNtCsfvfooZQ3Axs_4core3ptr13drop_in_placeINtNtB4_6option6OptionNtNtNtNtNtNtCscOYdFFY2T5N_3std3sys3pal4unix7process14process_common5StdioEECs2oPECeeQSs6_18build_script_build, symObjAddr: 0x8EC, symBinAddr: 0x100001434, symSize: 0x44 }
  - { offset: 0x108A, size: 0x8, addend: 0x0, symName: __RINvNtCsfvfooZQ3Axs_4core3ptr13drop_in_placeINtNtB4_6option8IntoIterNtNtNtCscOYdFFY2T5N_3std3ffi6os_str8OsStringEECs2oPECeeQSs6_18build_script_build, symObjAddr: 0x930, symBinAddr: 0x100001478, symSize: 0x24 }
  - { offset: 0x10B9, size: 0x8, addend: 0x0, symName: __RINvNtCsfvfooZQ3Axs_4core3ptr13drop_in_placeINtNtB4_6result6ResultNtNtCscOYdFFY2T5N_3std7process10ExitStatusNtNtNtB16_2io5error5ErrorEECs2oPECeeQSs6_18build_script_build, symObjAddr: 0x954, symBinAddr: 0x10000149C, symSize: 0x40 }
  - { offset: 0x10E8, size: 0x8, addend: 0x0, symName: __RINvNtCsfvfooZQ3Axs_4core3ptr13drop_in_placeINtNtB4_6result6ResultNtNtCscOYdFFY2T5N_3std7process6OutputNtNtNtB16_2io5error5ErrorEECs2oPECeeQSs6_18build_script_build, symObjAddr: 0x994, symBinAddr: 0x1000014DC, symSize: 0x5C }
  - { offset: 0x1117, size: 0x8, addend: 0x0, symName: __RINvNtCsfvfooZQ3Axs_4core3ptr13drop_in_placeINtNtB4_6result6ResultNtNtCse1nGBsou5OW_5alloc6string6StringNtNtCscOYdFFY2T5N_3std3env8VarErrorEECs2oPECeeQSs6_18build_script_build, symObjAddr: 0x9F0, symBinAddr: 0x100001538, symSize: 0x50 }
  - { offset: 0x1146, size: 0x8, addend: 0x0, symName: __RINvNtCsfvfooZQ3Axs_4core3ptr13drop_in_placeINtNtB4_6result6ResultuNtNtNtCscOYdFFY2T5N_3std2io5error5ErrorEECs2oPECeeQSs6_18build_script_build, symObjAddr: 0xA40, symBinAddr: 0x100001588, symSize: 0x44 }
  - { offset: 0x1175, size: 0x8, addend: 0x0, symName: __RINvNtCsfvfooZQ3Axs_4core3ptr13drop_in_placeINtNtCse1nGBsou5OW_5alloc3vec3VecINtNtBL_5boxed3BoxDINtNtNtB4_3ops8function5FnMutuEp6OutputINtNtB4_6result6ResultuNtNtNtCscOYdFFY2T5N_3std2io5error5ErrorENtNtB4_6marker4SendNtB3c_4SyncEL_EEECs2oPECeeQSs6_18build_script_build, symObjAddr: 0xA84, symBinAddr: 0x1000015CC, symSize: 0x5C }
  - { offset: 0x11A4, size: 0x8, addend: 0x0, symName: __RINvNtCsfvfooZQ3Axs_4core3ptr13drop_in_placeINtNtCse1nGBsou5OW_5alloc3vec3VecNtNtNtBL_3ffi5c_str7CStringEECs2oPECeeQSs6_18build_script_build, symObjAddr: 0xAE0, symBinAddr: 0x100001628, symSize: 0x5C }
  - { offset: 0x11D3, size: 0x8, addend: 0x0, symName: __RINvNtCsfvfooZQ3Axs_4core3ptr13drop_in_placeINtNtCse1nGBsou5OW_5alloc3vec3VecPaEECs2oPECeeQSs6_18build_script_build, symObjAddr: 0xB3C, symBinAddr: 0x100001684, symSize: 0x5C }
  - { offset: 0x1202, size: 0x8, addend: 0x0, symName: __RINvNtCsfvfooZQ3Axs_4core3ptr13drop_in_placeINtNtCse1nGBsou5OW_5alloc3vec3VechEECs2oPECeeQSs6_18build_script_build, symObjAddr: 0xB98, symBinAddr: 0x1000016E0, symSize: 0x5C }
  - { offset: 0x1231, size: 0x8, addend: 0x0, symName: __RINvNtCsfvfooZQ3Axs_4core3ptr13drop_in_placeINtNtCse1nGBsou5OW_5alloc5boxed3BoxDINtNtNtB4_3ops8function5FnMutuEp6OutputINtNtB4_6result6ResultuNtNtNtCscOYdFFY2T5N_3std2io5error5ErrorENtNtB4_6marker4SendNtB2W_4SyncEL_EECs2oPECeeQSs6_18build_script_build, symObjAddr: 0xBF4, symBinAddr: 0x10000173C, symSize: 0x80 }
  - { offset: 0x1260, size: 0x8, addend: 0x0, symName: __RINvNtCsfvfooZQ3Axs_4core3ptr13drop_in_placeINtNtCse1nGBsou5OW_5alloc5boxed3BoxDNtNtB4_5error5ErrorNtNtB4_6marker4SendNtB1B_4SyncEL_EECs2oPECeeQSs6_18build_script_build, symObjAddr: 0xC74, symBinAddr: 0x1000017BC, symSize: 0x80 }
  - { offset: 0x128F, size: 0x8, addend: 0x0, symName: __RINvNtCsfvfooZQ3Axs_4core3ptr13drop_in_placeINtNtCse1nGBsou5OW_5alloc5boxed3BoxNtNtNtCscOYdFFY2T5N_3std2io5error6CustomEECs2oPECeeQSs6_18build_script_build, symObjAddr: 0xCF4, symBinAddr: 0x10000183C, symSize: 0x60 }
  - { offset: 0x12BE, size: 0x8, addend: 0x0, symName: __RINvNtCsfvfooZQ3Axs_4core3ptr13drop_in_placeINtNtCse1nGBsou5OW_5alloc5boxed3BoxShEECs2oPECeeQSs6_18build_script_build, symObjAddr: 0xD54, symBinAddr: 0x10000189C, symSize: 0x2C }
  - { offset: 0x12ED, size: 0x8, addend: 0x0, symName: __RINvNtCsfvfooZQ3Axs_4core3ptr13drop_in_placeINtNtCse1nGBsou5OW_5alloc5boxed3BoxSmEECs2oPECeeQSs6_18build_script_build, symObjAddr: 0xD80, symBinAddr: 0x1000018C8, symSize: 0x2C }
  - { offset: 0x131C, size: 0x8, addend: 0x0, symName: __RINvNtCsfvfooZQ3Axs_4core3ptr13drop_in_placeINtNtCse1nGBsou5OW_5alloc7raw_vec6RawVecINtNtBL_5boxed3BoxDINtNtNtB4_3ops8function5FnMutuEp6OutputINtNtB4_6result6ResultuNtNtNtCscOYdFFY2T5N_3std2io5error5ErrorENtNtB4_6marker4SendNtB3j_4SyncEL_EEECs2oPECeeQSs6_18build_script_build, symObjAddr: 0xDAC, symBinAddr: 0x1000018F4, symSize: 0x24 }
  - { offset: 0x134B, size: 0x8, addend: 0x0, symName: __RINvNtCsfvfooZQ3Axs_4core3ptr13drop_in_placeINtNtCse1nGBsou5OW_5alloc7raw_vec6RawVecNtNtNtBL_3ffi5c_str7CStringEECs2oPECeeQSs6_18build_script_build, symObjAddr: 0xDD0, symBinAddr: 0x100001918, symSize: 0x24 }
  - { offset: 0x137A, size: 0x8, addend: 0x0, symName: __RINvNtCsfvfooZQ3Axs_4core3ptr13drop_in_placeINtNtCse1nGBsou5OW_5alloc7raw_vec6RawVecPaEECs2oPECeeQSs6_18build_script_build, symObjAddr: 0xDF4, symBinAddr: 0x10000193C, symSize: 0x24 }
  - { offset: 0x13A9, size: 0x8, addend: 0x0, symName: __RINvNtCsfvfooZQ3Axs_4core3ptr13drop_in_placeINtNtCse1nGBsou5OW_5alloc7raw_vec6RawVechEECs2oPECeeQSs6_18build_script_build, symObjAddr: 0xE18, symBinAddr: 0x100001960, symSize: 0x24 }
  - { offset: 0x13D8, size: 0x8, addend: 0x0, symName: __RINvNtCsfvfooZQ3Axs_4core3ptr13drop_in_placeINtNtNtCscOYdFFY2T5N_3std2io5error9ErrorDataINtNtCse1nGBsou5OW_5alloc5boxed3BoxNtBJ_6CustomEEECs2oPECeeQSs6_18build_script_build, symObjAddr: 0xE3C, symBinAddr: 0x100001984, symSize: 0x48 }
  - { offset: 0x1407, size: 0x8, addend: 0x0, symName: __RINvNtCsfvfooZQ3Axs_4core3ptr13drop_in_placeINtNtNtNtB4_4iter7sources4once4OnceNtNtNtCscOYdFFY2T5N_3std3ffi6os_str8OsStringEECs2oPECeeQSs6_18build_script_build, symObjAddr: 0xE84, symBinAddr: 0x1000019CC, symSize: 0x24 }
  - { offset: 0x1436, size: 0x8, addend: 0x0, symName: __RINvNtCsfvfooZQ3Axs_4core3ptr13drop_in_placeINtNtNtNtB4_4iter8adapters5chain5ChainIBH_INtNtB4_6option8IntoIterNtNtNtCscOYdFFY2T5N_3std3ffi6os_str8OsStringEB1m_EINtNtNtBN_7sources4once4OnceB1K_EEECs2oPECeeQSs6_18build_script_build, symObjAddr: 0xEA8, symBinAddr: 0x1000019F0, symSize: 0x5C }
  - { offset: 0x1465, size: 0x8, addend: 0x0, symName: __RINvNtCsfvfooZQ3Axs_4core3ptr13drop_in_placeINtNtNtNtB4_4iter8adapters5chain5ChainINtNtB4_6option8IntoIterNtNtNtCscOYdFFY2T5N_3std3ffi6os_str8OsStringEB1i_EECs2oPECeeQSs6_18build_script_build, symObjAddr: 0xF04, symBinAddr: 0x100001A4C, symSize: 0x60 }
  - { offset: 0x1494, size: 0x8, addend: 0x0, symName: __RINvNtCsfvfooZQ3Axs_4core3ptr13drop_in_placeINtNtNtNtCse1nGBsou5OW_5alloc11collections5btree3map8BTreeMapNtNtNtCscOYdFFY2T5N_3std3ffi6os_str8OsStringINtNtB4_6option6OptionB1F_EEECs2oPECeeQSs6_18build_script_build, symObjAddr: 0xF64, symBinAddr: 0x100001AAC, symSize: 0x24 }
  - { offset: 0x14C3, size: 0x8, addend: 0x0, symName: __RINvNtCsfvfooZQ3Axs_4core3ptr13drop_in_placeINtNtNtNtCse1nGBsou5OW_5alloc11collections5btree3map8IntoIterNtNtNtCscOYdFFY2T5N_3std3ffi6os_str8OsStringINtNtB4_6option6OptionB1F_EEECs2oPECeeQSs6_18build_script_build, symObjAddr: 0xF88, symBinAddr: 0x100001AD0, symSize: 0x24 }
  - { offset: 0x14F2, size: 0x8, addend: 0x0, symName: __RINvNtCsfvfooZQ3Axs_4core3ptr13drop_in_placeINtNvMsT_NtNtNtCse1nGBsou5OW_5alloc11collections5btree4nodeINtBP_6HandleINtBP_7NodeRefNtNtBP_6marker5DyingpppENtB26_2KVE12drop_key_val7DropperINtNtB4_6option6OptionNtNtNtCscOYdFFY2T5N_3std3ffi6os_str8OsStringEEECs2oPECeeQSs6_18build_script_build, symObjAddr: 0xFAC, symBinAddr: 0x100001AF4, symSize: 0x24 }
  - { offset: 0x1521, size: 0x8, addend: 0x0, symName: __RINvNtCsfvfooZQ3Axs_4core3ptr13drop_in_placeINtNvNtNtCscOYdFFY2T5N_3std2io5Write9write_fmt7AdapterNtNtNtNtNtBP_3sys3pal4unix5stdio6StderrEECs2oPECeeQSs6_18build_script_build, symObjAddr: 0xFD0, symBinAddr: 0x100001B18, symSize: 0x24 }
  - { offset: 0x1550, size: 0x8, addend: 0x0, symName: __RINvNtCsfvfooZQ3Axs_4core3ptr13drop_in_placeINtNvXsw_NtNtNtCse1nGBsou5OW_5alloc11collections5btree3mapINtBP_8IntoIterpppENtNtNtB4_3ops4drop4Drop4drop9DropGuardNtNtNtCscOYdFFY2T5N_3std3ffi6os_str8OsStringINtNtB4_6option6OptionB2x_ENtNtBV_5alloc6GlobalEECs2oPECeeQSs6_18build_script_build, symObjAddr: 0xFF4, symBinAddr: 0x100001B3C, symSize: 0x24 }
  - { offset: 0x157F, size: 0x8, addend: 0x0, symName: __RINvNtCsfvfooZQ3Axs_4core3ptr13drop_in_placeNtNtCscOYdFFY2T5N_3std3env8VarErrorECs2oPECeeQSs6_18build_script_build, symObjAddr: 0x1028, symBinAddr: 0x100001B60, symSize: 0x48 }
  - { offset: 0x15AE, size: 0x8, addend: 0x0, symName: __RINvNtCsfvfooZQ3Axs_4core3ptr13drop_in_placeNtNtCscOYdFFY2T5N_3std4path7PathBufECs2oPECeeQSs6_18build_script_build, symObjAddr: 0x1070, symBinAddr: 0x100001BA8, symSize: 0x24 }
  - { offset: 0x15DD, size: 0x8, addend: 0x0, symName: __RINvNtCsfvfooZQ3Axs_4core3ptr13drop_in_placeNtNtCscOYdFFY2T5N_3std7process6OutputECs2oPECeeQSs6_18build_script_build, symObjAddr: 0x1094, symBinAddr: 0x100001BCC, symSize: 0x60 }
  - { offset: 0x160C, size: 0x8, addend: 0x0, symName: __RINvNtCsfvfooZQ3Axs_4core3ptr13drop_in_placeNtNtCscOYdFFY2T5N_3std7process7CommandECs2oPECeeQSs6_18build_script_build, symObjAddr: 0x10F4, symBinAddr: 0x100001C2C, symSize: 0x24 }
  - { offset: 0x163B, size: 0x8, addend: 0x0, symName: __RINvNtCsfvfooZQ3Axs_4core3ptr13drop_in_placeNtNtCse1nGBsou5OW_5alloc6string6StringECs2oPECeeQSs6_18build_script_build, symObjAddr: 0x1118, symBinAddr: 0x100001C50, symSize: 0x24 }
  - { offset: 0x166A, size: 0x8, addend: 0x0, symName: __RINvNtCsfvfooZQ3Axs_4core3ptr13drop_in_placeNtNtNtCscOYdFFY2T5N_3std10sys_common7process10CommandEnvECs2oPECeeQSs6_18build_script_build, symObjAddr: 0x114C, symBinAddr: 0x100001C74, symSize: 0x24 }
  - { offset: 0x1699, size: 0x8, addend: 0x0, symName: __RINvNtCsfvfooZQ3Axs_4core3ptr13drop_in_placeNtNtNtCscOYdFFY2T5N_3std2io5error5ErrorECs2oPECeeQSs6_18build_script_build, symObjAddr: 0x1170, symBinAddr: 0x100001C98, symSize: 0x24 }
  - { offset: 0x16C8, size: 0x8, addend: 0x0, symName: __RINvNtCsfvfooZQ3Axs_4core3ptr13drop_in_placeNtNtNtCscOYdFFY2T5N_3std2io5error6CustomECs2oPECeeQSs6_18build_script_build, symObjAddr: 0x1194, symBinAddr: 0x100001CBC, symSize: 0x24 }
  - { offset: 0x16F7, size: 0x8, addend: 0x0, symName: __RINvNtCsfvfooZQ3Axs_4core3ptr13drop_in_placeNtNtNtCscOYdFFY2T5N_3std3ffi6os_str8OsStringECs2oPECeeQSs6_18build_script_build, symObjAddr: 0x11B8, symBinAddr: 0x100001CE0, symSize: 0x24 }
  - { offset: 0x1726, size: 0x8, addend: 0x0, symName: __RINvNtCsfvfooZQ3Axs_4core3ptr13drop_in_placeNtNtNtCse1nGBsou5OW_5alloc3ffi5c_str7CStringECs2oPECeeQSs6_18build_script_build, symObjAddr: 0x11DC, symBinAddr: 0x100001D04, symSize: 0x5C }
  - { offset: 0x1755, size: 0x8, addend: 0x0, symName: __RINvNtCsfvfooZQ3Axs_4core3ptr13drop_in_placeNtNtNtNtCscOYdFFY2T5N_3std2io5error14repr_bitpacked4ReprECs2oPECeeQSs6_18build_script_build, symObjAddr: 0x1238, symBinAddr: 0x100001D60, symSize: 0x24 }
  - { offset: 0x1784, size: 0x8, addend: 0x0, symName: __RINvNtCsfvfooZQ3Axs_4core3ptr13drop_in_placeNtNtNtNtCscOYdFFY2T5N_3std2os2fd5owned7OwnedFdECs2oPECeeQSs6_18build_script_build, symObjAddr: 0x125C, symBinAddr: 0x100001D84, symSize: 0x24 }
  - { offset: 0x17B3, size: 0x8, addend: 0x0, symName: __RINvNtCsfvfooZQ3Axs_4core3ptr13drop_in_placeNtNtNtNtCscOYdFFY2T5N_3std3sys6os_str5bytes3BufECs2oPECeeQSs6_18build_script_build, symObjAddr: 0x1280, symBinAddr: 0x100001DA8, symSize: 0x24 }
  - { offset: 0x17E2, size: 0x8, addend: 0x0, symName: __RINvNtCsfvfooZQ3Axs_4core3ptr13drop_in_placeNtNtNtNtNtCscOYdFFY2T5N_3std3sys3pal4unix2fd8FileDescECs2oPECeeQSs6_18build_script_build, symObjAddr: 0x12A4, symBinAddr: 0x100001DCC, symSize: 0x24 }
  - { offset: 0x1811, size: 0x8, addend: 0x0, symName: __RINvNtCsfvfooZQ3Axs_4core3ptr13drop_in_placeNtNtNtNtNtNtCscOYdFFY2T5N_3std3sys3pal4unix7process14process_common4ArgvECs2oPECeeQSs6_18build_script_build, symObjAddr: 0x12C8, symBinAddr: 0x100001DF0, symSize: 0x24 }
  - { offset: 0x1840, size: 0x8, addend: 0x0, symName: __RINvNtCsfvfooZQ3Axs_4core3ptr13drop_in_placeNtNtNtNtNtNtCscOYdFFY2T5N_3std3sys3pal4unix7process14process_common5StdioECs2oPECeeQSs6_18build_script_build, symObjAddr: 0x12EC, symBinAddr: 0x100001E14, symSize: 0x44 }
  - { offset: 0x186F, size: 0x8, addend: 0x0, symName: __RINvNtCsfvfooZQ3Axs_4core3ptr13drop_in_placeNtNtNtNtNtNtCscOYdFFY2T5N_3std3sys3pal4unix7process14process_common7CommandECs2oPECeeQSs6_18build_script_build, symObjAddr: 0x1330, symBinAddr: 0x100001E58, symSize: 0x1DC }
  - { offset: 0x189E, size: 0x8, addend: 0x0, symName: __RINvNtCsfvfooZQ3Axs_4core3ptr13drop_in_placeNtNvNtNtNtCse1nGBsou5OW_5alloc11collections5btree3mem7replace10PanicGuardECs2oPECeeQSs6_18build_script_build, symObjAddr: 0x150C, symBinAddr: 0x100002034, symSize: 0x24 }
  - { offset: 0x18CD, size: 0x8, addend: 0x0, symName: __RINvNtCsfvfooZQ3Axs_4core3ptr13drop_in_placeSINtNtCse1nGBsou5OW_5alloc5boxed3BoxDINtNtNtB4_3ops8function5FnMutuEp6OutputINtNtB4_6result6ResultuNtNtNtCscOYdFFY2T5N_3std2io5error5ErrorENtNtB4_6marker4SendNtB2X_4SyncEL_EECs2oPECeeQSs6_18build_script_build, symObjAddr: 0x1540, symBinAddr: 0x100002058, symSize: 0xB4 }
  - { offset: 0x18FC, size: 0x8, addend: 0x0, symName: __RINvNtCsfvfooZQ3Axs_4core3ptr13drop_in_placeSNtNtNtCse1nGBsou5OW_5alloc3ffi5c_str7CStringECs2oPECeeQSs6_18build_script_build, symObjAddr: 0x15F4, symBinAddr: 0x10000210C, symSize: 0xB4 }
  - { offset: 0x32A4, size: 0x8, addend: 0x0, symName: __RNvNvMNtNtCsfvfooZQ3Axs_4core5alloc6layoutNtB4_6Layout25from_size_align_unchecked18precondition_checkCs2oPECeeQSs6_18build_script_build, symObjAddr: 0x2B80, symBinAddr: 0x100003694, symSize: 0x50 }
  - { offset: 0x3324, size: 0x8, addend: 0x0, symName: __RNvNvNtCsfvfooZQ3Axs_4core4hint21unreachable_unchecked18precondition_checkCs2oPECeeQSs6_18build_script_build, symObjAddr: 0x2C08, symBinAddr: 0x10000371C, symSize: 0x1C }
  - { offset: 0x3387, size: 0x8, addend: 0x0, symName: __RNSNvYNCINvNtCscOYdFFY2T5N_3std2rt10lang_startuE0INtNtNtCsfvfooZQ3Axs_4core3ops8function6FnOnceuE9call_once6vtableCs2oPECeeQSs6_18build_script_build, symObjAddr: 0x1B74, symBinAddr: 0x10000268C, symSize: 0x28 }
  - { offset: 0x33CB, size: 0x8, addend: 0x0, symName: __RNvYFEuINtNtNtCsfvfooZQ3Axs_4core3ops8function6FnOnceuE9call_onceCs2oPECeeQSs6_18build_script_build, symObjAddr: 0x3D34, symBinAddr: 0x100004848, symSize: 0x20 }
  - { offset: 0x340B, size: 0x8, addend: 0x0, symName: __RNvYNCINvNtCscOYdFFY2T5N_3std2rt10lang_startuE0INtNtNtCsfvfooZQ3Axs_4core3ops8function6FnOnceuE9call_onceCs2oPECeeQSs6_18build_script_build, symObjAddr: 0x3D54, symBinAddr: 0x100004868, symSize: 0x4C }
  - { offset: 0x344F, size: 0x8, addend: 0x0, symName: __RNvYNvYINtNtCsfvfooZQ3Axs_4core6option8IntoIterNtNtNtCscOYdFFY2T5N_3std3ffi6os_str8OsStringENtNtNtNtBa_4iter6traits8iterator8Iterator4nextINtNtNtBa_3ops8function6FnOnceTQB5_EE9call_onceCs2oPECeeQSs6_18build_script_build, symObjAddr: 0x4078, symBinAddr: 0x100004B8C, symSize: 0x24 }
  - { offset: 0x3493, size: 0x8, addend: 0x0, symName: __RNvYNvYINtNtNtNtCsfvfooZQ3Axs_4core4iter8adapters5chain5ChainINtNtBe_6option8IntoIterNtNtNtCscOYdFFY2T5N_3std3ffi6os_str8OsStringEBX_ENtNtNtBc_6traits8iterator8Iterator4nextINtNtNtBe_3ops8function6FnOnceTQB5_EE9call_onceCs2oPECeeQSs6_18build_script_build, symObjAddr: 0x409C, symBinAddr: 0x100004BB0, symSize: 0x24 }
  - { offset: 0x35F0, size: 0x8, addend: 0x0, symName: __RNvNvXs5_NtNtCsfvfooZQ3Axs_4core3str6traitsINtNtNtBb_3ops5range5RangejEINtNtNtBb_5slice5index10SliceIndexeE13get_unchecked18precondition_checkCs2oPECeeQSs6_18build_script_build, symObjAddr: 0x2D04, symBinAddr: 0x100003818, symSize: 0x60 }
  - { offset: 0x363B, size: 0x8, addend: 0x0, symName: __RNvXs_NtNtCsfvfooZQ3Axs_4core3str6traitseNtNtB8_3cmp9PartialEq2eqCs2oPECeeQSs6_18build_script_build, symObjAddr: 0x3614, symBinAddr: 0x100004128, symSize: 0x64 }
  - { offset: 0x3786, size: 0x8, addend: 0x0, symName: __RNvXs2_NtNtCsfvfooZQ3Axs_4core3str7patterncNtB5_7Pattern13into_searcherCs2oPECeeQSs6_18build_script_build, symObjAddr: 0x301C, symBinAddr: 0x100003B30, symSize: 0x114 }
  - { offset: 0x390B, size: 0x8, addend: 0x0, symName: __RNvXs_NtNtCsfvfooZQ3Axs_4core3str7patternNtB4_12CharSearcherNtB4_8Searcher10next_matchCs2oPECeeQSs6_18build_script_build, symObjAddr: 0x3678, symBinAddr: 0x10000418C, symSize: 0x384 }
  - { offset: 0x3DAC, size: 0x8, addend: 0x0, symName: __RNvXs_NtNtCsfvfooZQ3Axs_4core3str7patternNtB4_12CharSearcherNtB4_8Searcher8haystackCs2oPECeeQSs6_18build_script_build, symObjAddr: 0x39FC, symBinAddr: 0x100004510, symSize: 0x20 }
  - { offset: 0x3EF9, size: 0x8, addend: 0x0, symName: __RNvNvXs0_NtNtCsfvfooZQ3Axs_4core5slice5indexjINtB7_10SliceIndexSpE13get_unchecked18precondition_checkCs2oPECeeQSs6_18build_script_build, symObjAddr: 0x2C24, symBinAddr: 0x100003738, symSize: 0x40 }
  - { offset: 0x3F35, size: 0x8, addend: 0x0, symName: __RNvNvXs0_NtNtCsfvfooZQ3Axs_4core5slice5indexjINtB7_10SliceIndexSpE17get_unchecked_mut18precondition_checkCs2oPECeeQSs6_18build_script_build, symObjAddr: 0x2C64, symBinAddr: 0x100003778, symSize: 0x40 }
  - { offset: 0x4037, size: 0x8, addend: 0x0, symName: __RNvNvXs2_NtNtCsfvfooZQ3Axs_4core5slice5indexINtNtNtBb_3ops5range5RangejEINtB7_10SliceIndexSpE13get_unchecked18precondition_checkCs2oPECeeQSs6_18build_script_build, symObjAddr: 0x2CA4, symBinAddr: 0x1000037B8, symSize: 0x60 }
  - { offset: 0x4459, size: 0x8, addend: 0x0, symName: __RNvXNtCsfvfooZQ3Axs_4core7convertRNtNtCscOYdFFY2T5N_3std4path4PathINtB2_5AsRefBw_E6as_refCs2oPECeeQSs6_18build_script_build, symObjAddr: 0x2D64, symBinAddr: 0x100003878, symSize: 0x30 }
  - { offset: 0x4499, size: 0x8, addend: 0x0, symName: __RNvXNtCsfvfooZQ3Axs_4core7convertRNtNtCscOYdFFY2T5N_3std4path7PathBufINtB2_5AsRefNtBy_4PathE6as_refCs2oPECeeQSs6_18build_script_build, symObjAddr: 0x2D94, symBinAddr: 0x1000038A8, symSize: 0x28 }
  - { offset: 0x44D9, size: 0x8, addend: 0x0, symName: __RNvXNtCsfvfooZQ3Axs_4core7convertRNtNtCscOYdFFY2T5N_3std4path7PathBufINtB2_5AsRefNtNtNtBA_3ffi6os_str5OsStrE6as_refCs2oPECeeQSs6_18build_script_build, symObjAddr: 0x2DBC, symBinAddr: 0x1000038D0, symSize: 0x28 }
  - { offset: 0x4519, size: 0x8, addend: 0x0, symName: __RNvXNtCsfvfooZQ3Axs_4core7convertRNtNtNtCscOYdFFY2T5N_3std3ffi6os_str5OsStrINtB2_5AsRefBw_E6as_refCs2oPECeeQSs6_18build_script_build, symObjAddr: 0x2DE4, symBinAddr: 0x1000038F8, symSize: 0x30 }
  - { offset: 0x4559, size: 0x8, addend: 0x0, symName: __RNvXNtCsfvfooZQ3Axs_4core7convertReINtB2_5AsRefNtNtCscOYdFFY2T5N_3std4path4PathE6as_refCs2oPECeeQSs6_18build_script_build, symObjAddr: 0x2E14, symBinAddr: 0x100003928, symSize: 0x30 }
  - { offset: 0x4599, size: 0x8, addend: 0x0, symName: __RNvXNtCsfvfooZQ3Axs_4core7convertReINtB2_5AsRefNtNtNtCscOYdFFY2T5N_3std3ffi6os_str5OsStrE6as_refCs2oPECeeQSs6_18build_script_build, symObjAddr: 0x2E44, symBinAddr: 0x100003958, symSize: 0x30 }
  - { offset: 0x4713, size: 0x8, addend: 0x0, symName: __RNvYNtNtNtCscOYdFFY2T5N_3std2io5error9ErrorKindNtNtCsfvfooZQ3Axs_4core3cmp9PartialEq2neCs2oPECeeQSs6_18build_script_build, symObjAddr: 0x3DA0, symBinAddr: 0x1000048B4, symSize: 0x30 }
  - { offset: 0x488E, size: 0x8, addend: 0x0, symName: __RNvYNtNtNtNtNtCscOYdFFY2T5N_3std3sys3pal4unix5stdio6StderrNtNtBc_2io5Write9write_allCs2oPECeeQSs6_18build_script_build, symObjAddr: 0x3DD0, symBinAddr: 0x1000048E4, symSize: 0x180 }
  - { offset: 0x492F, size: 0x8, addend: 0x0, symName: __RNvYNtNtNtNtNtCscOYdFFY2T5N_3std3sys3pal4unix5stdio6StderrNtNtBc_2io5Write9write_fmtCs2oPECeeQSs6_18build_script_build, symObjAddr: 0x3F50, symBinAddr: 0x100004A64, symSize: 0x128 }
  - { offset: 0x4AFF, size: 0x8, addend: 0x0, symName: __RNCNvXs1_NtNtNtCscOYdFFY2T5N_3std2io5error14repr_bitpackedNtB7_4ReprNtNtNtCsfvfooZQ3Axs_4core3ops4drop4Drop4drop0Cs2oPECeeQSs6_18build_script_build, symObjAddr: 0x1B40, symBinAddr: 0x100002658, symSize: 0x34 }
  - { offset: 0x4BB4, size: 0x8, addend: 0x0, symName: __RNvXs1_NtNtNtCscOYdFFY2T5N_3std2io5error14repr_bitpackedNtB5_4ReprNtNtNtCsfvfooZQ3Axs_4core3ops4drop4Drop4dropCs2oPECeeQSs6_18build_script_build, symObjAddr: 0x2F80, symBinAddr: 0x100003A94, symSize: 0x38 }
  - { offset: 0x4BDD, size: 0x8, addend: 0x0, symName: __RINvNtNtNtCscOYdFFY2T5N_3std2io5error14repr_bitpacked11decode_reprINtNtCse1nGBsou5OW_5alloc5boxed3BoxNtB4_6CustomENCNvXs1_B2_NtB2_4ReprNtNtNtCsfvfooZQ3Axs_4core3ops4drop4Drop4drop0ECs2oPECeeQSs6_18build_script_build, symObjAddr: 0x16CC, symBinAddr: 0x1000021E4, symSize: 0x230 }
  - { offset: 0x4E93, size: 0x8, addend: 0x0, symName: __RNCNvMs0_NtNtNtCscOYdFFY2T5N_3std2io5error14repr_bitpackedNtB7_4Repr4data0Cs2oPECeeQSs6_18build_script_build, symObjAddr: 0x1B2C, symBinAddr: 0x100002644, symSize: 0x14 }
  - { offset: 0x4ECB, size: 0x8, addend: 0x0, symName: __RINvNtNtNtCscOYdFFY2T5N_3std2io5error14repr_bitpacked11decode_reprRNtB4_6CustomNCNvMs0_B2_NtB2_4Repr4data0ECs2oPECeeQSs6_18build_script_build, symObjAddr: 0x18FC, symBinAddr: 0x100002414, symSize: 0x230 }
  - { offset: 0x5170, size: 0x8, addend: 0x0, symName: __RNvNtNtNtCscOYdFFY2T5N_3std2io5error14repr_bitpacked14kind_from_primCs2oPECeeQSs6_18build_script_build, symObjAddr: 0x2578, symBinAddr: 0x10000308C, symSize: 0x608 }
  - { offset: 0x5C51, size: 0x8, addend: 0x0, symName: __RNvXsi_NtNtCscOYdFFY2T5N_3std2io5errorNtB5_9ErrorKindNtNtCsfvfooZQ3Axs_4core3cmp9PartialEq2eqCs2oPECeeQSs6_18build_script_build, symObjAddr: 0x3AD4, symBinAddr: 0x1000045E8, symSize: 0x2C }
  - { offset: 0x5F0B, size: 0x8, addend: 0x0, symName: __RINvNtNtCscOYdFFY2T5N_3std3sys9backtrace28___rust_begin_short_backtraceFEuuECs2oPECeeQSs6_18build_script_build, symObjAddr: 0x16A8, symBinAddr: 0x1000021C0, symSize: 0x24 }
  - { offset: 0x6066, size: 0x8, addend: 0x0, symName: __RNvXs11_NtCscOYdFFY2T5N_3std4pathNtB6_7PathBufINtNtCsfvfooZQ3Axs_4core7convert5AsRefNtNtNtB8_3ffi6os_str5OsStrE6as_refCs2oPECeeQSs6_18build_script_build, symObjAddr: 0x2F54, symBinAddr: 0x100003A68, symSize: 0x2C }
  - { offset: 0x609A, size: 0x8, addend: 0x0, symName: __RNvXs1d_NtCscOYdFFY2T5N_3std4pathNtB6_4PathINtNtCsfvfooZQ3Axs_4core7convert5AsRefBv_E6as_refCs2oPECeeQSs6_18build_script_build, symObjAddr: 0x2FB8, symBinAddr: 0x100003ACC, symSize: 0x18 }
  - { offset: 0x60CE, size: 0x8, addend: 0x0, symName: __RNvXs1h_NtCscOYdFFY2T5N_3std4patheINtNtCsfvfooZQ3Axs_4core7convert5AsRefNtB6_4PathE6as_refCs2oPECeeQSs6_18build_script_build, symObjAddr: 0x2FD0, symBinAddr: 0x100003AE4, symSize: 0x18 }
  - { offset: 0x6120, size: 0x8, addend: 0x0, symName: __RNvXsH_NtCscOYdFFY2T5N_3std4pathNtB5_7PathBufNtNtNtCsfvfooZQ3Axs_4core3ops5deref5Deref5derefCs2oPECeeQSs6_18build_script_build, symObjAddr: 0x3584, symBinAddr: 0x100004098, symSize: 0x34 }
  - { offset: 0x61AE, size: 0x8, addend: 0x0, symName: __RNvXs1j_NtCscOYdFFY2T5N_3std4pathNtB6_7PathBufINtNtCsfvfooZQ3Axs_4core7convert5AsRefNtB6_4PathE6as_refCs2oPECeeQSs6_18build_script_build, symObjAddr: 0x2FE8, symBinAddr: 0x100003AFC, symSize: 0x34 }
  - { offset: 0x6323, size: 0x8, addend: 0x0, symName: __RNvXs5_NtNtCscOYdFFY2T5N_3std3ffi6os_strNtB5_8OsStringNtNtNtCsfvfooZQ3Axs_4core3ops5deref5Deref5derefCs2oPECeeQSs6_18build_script_build, symObjAddr: 0x31A8, symBinAddr: 0x100003CBC, symSize: 0x2C }
  - { offset: 0x63ED, size: 0x8, addend: 0x0, symName: __RNvXsV_NtNtCscOYdFFY2T5N_3std3ffi6os_strNtB5_8OsStringINtNtCsfvfooZQ3Axs_4core7convert5AsRefNtB5_5OsStrE6as_refCs2oPECeeQSs6_18build_script_build, symObjAddr: 0x35D0, symBinAddr: 0x1000040E4, symSize: 0x2C }
  - { offset: 0x643F, size: 0x8, addend: 0x0, symName: __RNvXs3_NtNtCscOYdFFY2T5N_3std3ffi6os_strNtB5_8OsStringINtNtNtCsfvfooZQ3Axs_4core3ops5index5IndexNtNtBV_5range9RangeFullE5indexCs2oPECeeQSs6_18build_script_build, symObjAddr: 0x3130, symBinAddr: 0x100003C44, symSize: 0x78 }
  - { offset: 0x6597, size: 0x8, addend: 0x0, symName: __RNvXsU_NtNtCscOYdFFY2T5N_3std3ffi6os_strNtB5_5OsStrINtNtCsfvfooZQ3Axs_4core7convert5AsRefBC_E6as_refCs2oPECeeQSs6_18build_script_build, symObjAddr: 0x35B8, symBinAddr: 0x1000040CC, symSize: 0x18 }
  - { offset: 0x65CB, size: 0x8, addend: 0x0, symName: __RNvXsW_NtNtCscOYdFFY2T5N_3std3ffi6os_streINtNtCsfvfooZQ3Axs_4core7convert5AsRefNtB5_5OsStrE6as_refCs2oPECeeQSs6_18build_script_build, symObjAddr: 0x35FC, symBinAddr: 0x100004110, symSize: 0x18 }
  - { offset: 0x667D, size: 0x8, addend: 0x0, symName: __RNvXsd_NtNtCscOYdFFY2T5N_3std3ffi6os_strNtB5_8OsStringINtNtCsfvfooZQ3Axs_4core3cmp9PartialEqReE2eqCs2oPECeeQSs6_18build_script_build, symObjAddr: 0x3A1C, symBinAddr: 0x100004530, symSize: 0xB8 }
  - { offset: 0x7944, size: 0x8, addend: 0x0, symName: __RNvXNvMsT_NtNtNtCse1nGBsou5OW_5alloc11collections5btree4nodeINtB8_6HandleINtB8_7NodeRefNtNtB8_6marker5DyingpppENtB1p_2KVE12drop_key_valINtB2_7DropperINtNtCsfvfooZQ3Axs_4core6option6OptionNtNtNtCscOYdFFY2T5N_3std3ffi6os_str8OsStringEENtNtNtB2s_3ops4drop4Drop4dropCs2oPECeeQSs6_18build_script_build, symObjAddr: 0x2EC0, symBinAddr: 0x1000039D4, symSize: 0x2C }
  - { offset: 0x7A8E, size: 0x8, addend: 0x0, symName: __RNvXNtNtNtCse1nGBsou5OW_5alloc11collections5btree3mapINtB2_8BTreeMapNtNtNtCscOYdFFY2T5N_3std3ffi6os_str8OsStringINtNtCsfvfooZQ3Axs_4core6option6OptionB14_EENtNtNtB1R_3ops4drop4Drop4dropCs2oPECeeQSs6_18build_script_build, symObjAddr: 0x2E74, symBinAddr: 0x100003988, symSize: 0x4C }
  - { offset: 0x7B1B, size: 0x8, addend: 0x0, symName: __RNvXNvXsw_NtNtNtCse1nGBsou5OW_5alloc11collections5btree3mapINtB8_8IntoIterpppENtNtNtCsfvfooZQ3Axs_4core3ops4drop4Drop4dropINtB2_9DropGuardNtNtNtCscOYdFFY2T5N_3std3ffi6os_str8OsStringINtNtB1k_6option6OptionB2c_ENtNtBe_5alloc6GlobalEB1e_4dropCs2oPECeeQSs6_18build_script_build, symObjAddr: 0x2EEC, symBinAddr: 0x100003A00, symSize: 0x68 }
  - { offset: 0x7BB0, size: 0x8, addend: 0x0, symName: __RNvXsw_NtNtNtCse1nGBsou5OW_5alloc11collections5btree3mapINtB5_8IntoIterNtNtNtCscOYdFFY2T5N_3std3ffi6os_str8OsStringINtNtCsfvfooZQ3Axs_4core6option6OptionB17_EENtNtNtB1U_3ops4drop4Drop4dropCs2oPECeeQSs6_18build_script_build, symObjAddr: 0x3C94, symBinAddr: 0x1000047A8, symSize: 0xA0 }
  - { offset: 0x7C27, size: 0x8, addend: 0x0, symName: __RNvXsv_NtNtNtCse1nGBsou5OW_5alloc11collections5btree3mapINtB5_8BTreeMapNtNtNtCscOYdFFY2T5N_3std3ffi6os_str8OsStringINtNtCsfvfooZQ3Axs_4core6option6OptionB17_EENtNtNtNtB1U_4iter6traits7collect12IntoIterator9into_iterCs2oPECeeQSs6_18build_script_build, symObjAddr: 0x3B00, symBinAddr: 0x100004614, symSize: 0x194 }
  - { offset: 0x7F9A, size: 0x8, addend: 0x0, symName: __RNvXs6_NtCse1nGBsou5OW_5alloc5boxedINtB5_3BoxDINtNtNtCsfvfooZQ3Axs_4core3ops8function5FnMutuEp6OutputINtNtBP_6result6ResultuNtNtNtCscOYdFFY2T5N_3std2io5error5ErrorENtNtBP_6marker4SendNtB2E_4SyncEL_ENtNtBN_4drop4Drop4dropCs2oPECeeQSs6_18build_script_build, symObjAddr: 0x31D4, symBinAddr: 0x100003CE8, symSize: 0xC4 }
  - { offset: 0x80D1, size: 0x8, addend: 0x0, symName: __RNvXs6_NtCse1nGBsou5OW_5alloc5boxedINtB5_3BoxDNtNtCsfvfooZQ3Axs_4core5error5ErrorNtNtBM_6marker4SendNtB1j_4SyncEL_ENtNtNtBM_3ops4drop4Drop4dropCs2oPECeeQSs6_18build_script_build, symObjAddr: 0x3298, symBinAddr: 0x100003DAC, symSize: 0xC4 }
  - { offset: 0x8208, size: 0x8, addend: 0x0, symName: __RNvXs6_NtCse1nGBsou5OW_5alloc5boxedINtB5_3BoxNtNtNtCscOYdFFY2T5N_3std2io5error6CustomENtNtNtCsfvfooZQ3Axs_4core3ops4drop4Drop4dropCs2oPECeeQSs6_18build_script_build, symObjAddr: 0x335C, symBinAddr: 0x100003E70, symSize: 0xB0 }
  - { offset: 0x833F, size: 0x8, addend: 0x0, symName: __RNvXs6_NtCse1nGBsou5OW_5alloc5boxedINtB5_3BoxShENtNtNtCsfvfooZQ3Axs_4core3ops4drop4Drop4dropCs2oPECeeQSs6_18build_script_build, symObjAddr: 0x340C, symBinAddr: 0x100003F20, symSize: 0xBC }
  - { offset: 0x8476, size: 0x8, addend: 0x0, symName: __RNvXs6_NtCse1nGBsou5OW_5alloc5boxedINtB5_3BoxSmENtNtNtCsfvfooZQ3Axs_4core3ops4drop4Drop4dropCs2oPECeeQSs6_18build_script_build, symObjAddr: 0x34C8, symBinAddr: 0x100003FDC, symSize: 0xBC }
  - { offset: 0x8620, size: 0x8, addend: 0x0, symName: __RINvMs12_NtCscOYdFFY2T5N_3std4pathNtB7_4Path14with_extensionReECs2oPECeeQSs6_18build_script_build, symObjAddr: 0x0, symBinAddr: 0x100000BF0, symSize: 0x80 }
  - { offset: 0x8668, size: 0x8, addend: 0x0, symName: __RINvMs12_NtCscOYdFFY2T5N_3std4pathNtB7_4Path3newNtNtNtB9_3ffi6os_str8OsStringECs2oPECeeQSs6_18build_script_build, symObjAddr: 0x80, symBinAddr: 0x100000C70, symSize: 0x24 }
  - { offset: 0x8694, size: 0x8, addend: 0x0, symName: __RINvMs12_NtCscOYdFFY2T5N_3std4pathNtB7_4Path3neweECs2oPECeeQSs6_18build_script_build, symObjAddr: 0xA4, symBinAddr: 0x100000C94, symSize: 0x28 }
  - { offset: 0x86C0, size: 0x8, addend: 0x0, symName: __RINvMs12_NtCscOYdFFY2T5N_3std4pathNtB7_4Path4joinReECs2oPECeeQSs6_18build_script_build, symObjAddr: 0xCC, symBinAddr: 0x100000CBC, symSize: 0x80 }
  - { offset: 0x87F4, size: 0x8, addend: 0x0, symName: __RINvMs_NtNtCsfvfooZQ3Axs_4core3fmt2rtNtB5_8Argument11new_displayNtNtCscOYdFFY2T5N_3std4path7DisplayECs2oPECeeQSs6_18build_script_build, symObjAddr: 0x14C, symBinAddr: 0x100000D3C, symSize: 0x2C }
  - { offset: 0x8881, size: 0x8, addend: 0x0, symName: __RINvMs_NtNtCsfvfooZQ3Axs_4core3fmt2rtNtB5_8Argument11new_displayNtNtNtCscOYdFFY2T5N_3std2io5error5ErrorECs2oPECeeQSs6_18build_script_build, symObjAddr: 0x178, symBinAddr: 0x100000D68, symSize: 0x2C }
  - { offset: 0x890E, size: 0x8, addend: 0x0, symName: __RINvMs_NtNtCsfvfooZQ3Axs_4core3fmt2rtNtB5_8Argument11new_displayReECs2oPECeeQSs6_18build_script_build, symObjAddr: 0x1A4, symBinAddr: 0x100000D94, symSize: 0x2C }
  - { offset: 0x8A9D, size: 0x8, addend: 0x0, symName: __RINvMsh_NtNtNtCse1nGBsou5OW_5alloc11collections5btree4nodeINtB6_7NodeRefNtNtB6_6marker5DyingNtNtNtCscOYdFFY2T5N_3std3ffi6os_str8OsStringINtNtCsfvfooZQ3Axs_4core6option6OptionB1s_ENtB1a_14LeafOrInternalE21deallocate_and_ascendNtNtBc_5alloc6GlobalECs2oPECeeQSs6_18build_script_build, symObjAddr: 0x1D0, symBinAddr: 0x100000DC0, symSize: 0x178 }
  - { offset: 0x8CE3, size: 0x8, addend: 0x0, symName: __RINvMsj_NtNtNtCse1nGBsou5OW_5alloc11collections5btree8navigateINtNtB8_4node6HandleINtB11_7NodeRefNtNtB11_6marker5DyingNtNtNtCscOYdFFY2T5N_3std3ffi6os_str8OsStringINtNtCsfvfooZQ3Axs_4core6option6OptionB1S_ENtB1z_4LeafENtB1z_4EdgeE16deallocating_endNtNtBc_5alloc6GlobalECs2oPECeeQSs6_18build_script_build, symObjAddr: 0x348, symBinAddr: 0x100000F38, symSize: 0xD8 }
  - { offset: 0x8F64, size: 0x8, addend: 0x0, symName: __RINvMsj_NtNtNtCse1nGBsou5OW_5alloc11collections5btree8navigateINtNtB8_4node6HandleINtB11_7NodeRefNtNtB11_6marker5DyingNtNtNtCscOYdFFY2T5N_3std3ffi6os_str8OsStringINtNtCsfvfooZQ3Axs_4core6option6OptionB1S_ENtB1z_4LeafENtB1z_4EdgeE17deallocating_nextNtNtBc_5alloc6GlobalECs2oPECeeQSs6_18build_script_build, symObjAddr: 0x420, symBinAddr: 0x100001010, symSize: 0x254 }
  - { offset: 0x9385, size: 0x8, addend: 0x0, symName: __RNvMNtCsfvfooZQ3Axs_4core6resultINtB2_6ResultNtNtCscOYdFFY2T5N_3std7process6OutputNtNtNtBL_2io5error5ErrorE2okCs2oPECeeQSs6_18build_script_build, symObjAddr: 0x1B9C, symBinAddr: 0x1000026B4, symSize: 0xA8 }
  - { offset: 0x93D9, size: 0x8, addend: 0x0, symName: __RNvMNtCsfvfooZQ3Axs_4core6resultINtB2_6ResultReNtNtNtB4_3str5error9Utf8ErrorE2okCs2oPECeeQSs6_18build_script_build, symObjAddr: 0x1C44, symBinAddr: 0x10000275C, symSize: 0x60 }
  - { offset: 0x942D, size: 0x8, addend: 0x0, symName: __RNvMNtCsfvfooZQ3Axs_4core6resultINtB2_6ResulthNtNtNtB4_3num5error15TryFromIntErrorE6expectCs2oPECeeQSs6_18build_script_build, symObjAddr: 0x1CA4, symBinAddr: 0x1000027BC, symSize: 0x84 }
  - { offset: 0x948F, size: 0x8, addend: 0x0, symName: __RNvMNtCsfvfooZQ3Axs_4core6resultINtB2_6ResultmNtNtNtB4_3num5error13ParseIntErrorE2okCs2oPECeeQSs6_18build_script_build, symObjAddr: 0x1D28, symBinAddr: 0x100002840, symSize: 0x5C }
  - { offset: 0x94E2, size: 0x8, addend: 0x0, symName: __RNvMs12_NtCscOYdFFY2T5N_3std4pathNtB6_4Path7displayCs2oPECeeQSs6_18build_script_build, symObjAddr: 0x1D84, symBinAddr: 0x10000289C, symSize: 0x18 }
  - { offset: 0x9538, size: 0x8, addend: 0x0, symName: __RNvMs5_NtNtCscOYdFFY2T5N_3std2io5errorNtB5_5Error14is_interruptedCs2oPECeeQSs6_18build_script_build, symObjAddr: 0x1D9C, symBinAddr: 0x1000028B4, symSize: 0x138 }
  - { offset: 0x9694, size: 0x8, addend: 0x0, symName: __RNvMs5_NtNtCscOYdFFY2T5N_3std2io5errorNtB5_5Error4kindCs2oPECeeQSs6_18build_script_build, symObjAddr: 0x1ED4, symBinAddr: 0x1000029EC, symSize: 0xC0 }
  - { offset: 0x981B, size: 0x8, addend: 0x0, symName: __RNvMsO_NtNtNtCse1nGBsou5OW_5alloc11collections5btree4nodeINtB5_6HandleINtB5_7NodeRefNtNtB5_6marker5DyingNtNtNtCscOYdFFY2T5N_3std3ffi6os_str8OsStringINtNtCsfvfooZQ3Axs_4core6option6OptionB1E_ENtB1m_8InternalENtB1m_4EdgeE7descendCs2oPECeeQSs6_18build_script_build, symObjAddr: 0x1F94, symBinAddr: 0x100002AAC, symSize: 0x94 }
  - { offset: 0x9B20, size: 0x8, addend: 0x0, symName: __RNvMsT_NtNtNtCse1nGBsou5OW_5alloc11collections5btree4nodeINtB5_6HandleINtB5_7NodeRefNtNtB5_6marker5DyingNtNtNtCscOYdFFY2T5N_3std3ffi6os_str8OsStringINtNtCsfvfooZQ3Axs_4core6option6OptionB1E_ENtB1m_14LeafOrInternalENtB1m_2KVE12drop_key_valCs2oPECeeQSs6_18build_script_build, symObjAddr: 0x2028, symBinAddr: 0x100002B40, symSize: 0x128 }
  - { offset: 0x9E4C, size: 0x8, addend: 0x0, symName: __RNvMse_NtNtNtCse1nGBsou5OW_5alloc11collections5btree4nodeINtB5_7NodeRefNtNtB5_6marker5DyingNtNtNtCscOYdFFY2T5N_3std3ffi6os_str8OsStringINtNtCsfvfooZQ3Axs_4core6option6OptionB1r_ENtB19_14LeafOrInternalE6ascendCs2oPECeeQSs6_18build_script_build, symObjAddr: 0x2150, symBinAddr: 0x100002C68, symSize: 0x168 }
  - { offset: 0x9FA4, size: 0x8, addend: 0x0, symName: __RNvMsl_NtNtCscOYdFFY2T5N_3std3ffi6os_strNtB5_5OsStr8is_emptyCs2oPECeeQSs6_18build_script_build, symObjAddr: 0x22B8, symBinAddr: 0x100002DD0, symSize: 0x1C }
  - { offset: 0xA1F0, size: 0x8, addend: 0x0, symName: __RNvMsp_NtNtNtCse1nGBsou5OW_5alloc11collections5btree8navigateINtNtB7_4node6HandleINtB10_7NodeRefNtNtB10_6marker5DyingNtNtNtCscOYdFFY2T5N_3std3ffi6os_str8OsStringINtNtCsfvfooZQ3Axs_4core6option6OptionB1R_ENtB1y_14LeafOrInternalENtB1y_2KVE14next_leaf_edgeCs2oPECeeQSs6_18build_script_build, symObjAddr: 0x22D4, symBinAddr: 0x100002DEC, symSize: 0x210 }
  - { offset: 0xA459, size: 0x8, addend: 0x0, symName: __RNvMsx_NtNtNtCse1nGBsou5OW_5alloc11collections5btree3mapINtB5_8IntoIterNtNtNtCscOYdFFY2T5N_3std3ffi6os_str8OsStringINtNtCsfvfooZQ3Axs_4core6option6OptionB17_EE10dying_nextCs2oPECeeQSs6_18build_script_build, symObjAddr: 0x24E4, symBinAddr: 0x100002FFC, symSize: 0x90 }
  - { offset: 0xAD6A, size: 0x8, addend: 0x0, symName: __RNvCs2oPECeeQSs6_18build_script_build4main, symObjAddr: 0x40C0, symBinAddr: 0x100004BD4, symSize: 0x748 }
  - { offset: 0xADF0, size: 0x8, addend: 0x0, symName: __RNvCs2oPECeeQSs6_18build_script_build22compile_probe_unstable, symObjAddr: 0x4808, symBinAddr: 0x10000531C, symSize: 0xEC }
  - { offset: 0xAE2A, size: 0x8, addend: 0x0, symName: __RNvCs2oPECeeQSs6_18build_script_build20compile_probe_stable, symObjAddr: 0x48F4, symBinAddr: 0x100005408, symSize: 0xEC }
  - { offset: 0xAE56, size: 0x8, addend: 0x0, symName: __RNvCs2oPECeeQSs6_18build_script_build16do_compile_probe, symObjAddr: 0x49E0, symBinAddr: 0x1000054F4, symSize: 0xE04 }
  - { offset: 0xB013, size: 0x8, addend: 0x0, symName: __RNCNvCs2oPECeeQSs6_18build_script_build16do_compile_probe0B3_, symObjAddr: 0x57E4, symBinAddr: 0x1000062F8, symSize: 0x3C }
  - { offset: 0xB049, size: 0x8, addend: 0x0, symName: __RNCNvCs2oPECeeQSs6_18build_script_build16do_compile_probes_0B3_, symObjAddr: 0x5820, symBinAddr: 0x100006334, symSize: 0x3C }
  - { offset: 0xB08E, size: 0x8, addend: 0x0, symName: __RNvCs2oPECeeQSs6_18build_script_build19rustc_minor_version, symObjAddr: 0x585C, symBinAddr: 0x100006370, symSize: 0x3CC }
  - { offset: 0xB164, size: 0x8, addend: 0x0, symName: __RNvCs2oPECeeQSs6_18build_script_build13cargo_env_var, symObjAddr: 0x5C28, symBinAddr: 0x10000673C, symSize: 0x68 }
  - { offset: 0xB197, size: 0x8, addend: 0x0, symName: __RNCNvCs2oPECeeQSs6_18build_script_build13cargo_env_var0B3_, symObjAddr: 0x5C90, symBinAddr: 0x1000067A4, symSize: 0x5C }
  - { offset: 0xB699, size: 0x8, addend: 0x0, symName: __RINvMNtCsfvfooZQ3Axs_4core3stre5parsemECs2oPECeeQSs6_18build_script_build, symObjAddr: 0x0, symBinAddr: 0x10000682C, symSize: 0x38 }
  - { offset: 0xB6D0, size: 0x8, addend: 0x0, symName: __RNCINvNtCscOYdFFY2T5N_3std2rt10lang_startuE0Cs2oPECeeQSs6_18build_script_build, symObjAddr: 0x14B4, symBinAddr: 0x100007CE0, symSize: 0x34 }
  - { offset: 0xB73A, size: 0x8, addend: 0x0, symName: __RINvNtCscOYdFFY2T5N_3std2rt10lang_startuECs2oPECeeQSs6_18build_script_build, symObjAddr: 0xE3C, symBinAddr: 0x100007668, symSize: 0x60 }
  - { offset: 0xB7D8, size: 0x8, addend: 0x0, symName: __RNvXNvNtNtCscOYdFFY2T5N_3std2io5Write9write_fmtINtB2_7AdapterNtNtNtNtNtB8_3sys3pal4unix5stdio6StderrENtNtCsfvfooZQ3Axs_4core3fmt5Write9write_strCs2oPECeeQSs6_18build_script_build, symObjAddr: 0x2E4C, symBinAddr: 0x100009678, symSize: 0xB8 }
  - { offset: 0xBD0A, size: 0x8, addend: 0x0, symName: __RNvNtNtNtNtCscOYdFFY2T5N_3std3sys3pal4unix2fs23debug_assert_fd_is_openCs2oPECeeQSs6_18build_script_build, symObjAddr: 0x29FC, symBinAddr: 0x100009228, symSize: 0xC8 }
  - { offset: 0xBD68, size: 0x8, addend: 0x0, symName: __RNvNtNtNtCscOYdFFY2T5N_3std3sys3pal4unix17decode_error_kindCs2oPECeeQSs6_18build_script_build, symObjAddr: 0x27BC, symBinAddr: 0x100008FE8, symSize: 0x240 }
  - { offset: 0xBEB4, size: 0x8, addend: 0x0, symName: __RNvXs5_NtNtNtCscOYdFFY2T5N_3std2os2fd5ownedNtB5_7OwnedFdNtNtNtCsfvfooZQ3Axs_4core3ops4drop4Drop4dropCs2oPECeeQSs6_18build_script_build, symObjAddr: 0x31AC, symBinAddr: 0x1000099D8, symSize: 0x40 }
  - { offset: 0xC0C2, size: 0x8, addend: 0x0, symName: __RNvXsT_NtCscOYdFFY2T5N_3std7processuNtB5_11Termination6reportCs2oPECeeQSs6_18build_script_build, symObjAddr: 0x3338, symBinAddr: 0x100009B64, symSize: 0x10 }
  - { offset: 0xC1A5, size: 0x8, addend: 0x0, symName: __RINvNtCscOYdFFY2T5N_3std2fs10create_dirRNtNtB4_4path7PathBufECs2oPECeeQSs6_18build_script_build, symObjAddr: 0xD64, symBinAddr: 0x100007590, symSize: 0x74 }
  - { offset: 0xC1F1, size: 0x8, addend: 0x0, symName: __RINvNtCscOYdFFY2T5N_3std2fs14remove_dir_allRNtNtB4_4path7PathBufECs2oPECeeQSs6_18build_script_build, symObjAddr: 0xDD8, symBinAddr: 0x100007604, symSize: 0x64 }
  - { offset: 0xC22E, size: 0x8, addend: 0x0, symName: __RINvNtCscOYdFFY2T5N_3std3env3varReECs2oPECeeQSs6_18build_script_build, symObjAddr: 0xE9C, symBinAddr: 0x1000076C8, symSize: 0x68 }
  - { offset: 0xC263, size: 0x8, addend: 0x0, symName: __RINvNtCscOYdFFY2T5N_3std3env6var_osReECs2oPECeeQSs6_18build_script_build, symObjAddr: 0xF04, symBinAddr: 0x100007730, symSize: 0x68 }
  - { offset: 0xCEA0, size: 0x8, addend: 0x0, symName: __RNvXs5_NtNtCsfvfooZQ3Axs_4core3num5errorNtB5_15TryFromIntErrorNtNtB9_3fmt5Debug3fmtCs2oPECeeQSs6_18build_script_build, symObjAddr: 0x30D0, symBinAddr: 0x1000098FC, symSize: 0x54 }
  - { offset: 0xD062, size: 0x8, addend: 0x0, symName: __RNvMsA_NtCsfvfooZQ3Axs_4core3numm16from_ascii_radixCs2oPECeeQSs6_18build_script_build, symObjAddr: 0x187C, symBinAddr: 0x1000080A8, symSize: 0x53C }
  - { offset: 0xD39B, size: 0x8, addend: 0x0, symName: __RNvXsz_NtCsfvfooZQ3Axs_4core3nummNtNtNtB7_3str6traits7FromStr8from_strCs2oPECeeQSs6_18build_script_build, symObjAddr: 0x37C4, symBinAddr: 0x100009FF0, symSize: 0x40 }
  - { offset: 0xD6BC, size: 0x8, addend: 0x0, symName: __RNvXs1a_NtCsfvfooZQ3Axs_4core3fmtRuNtB6_5Debug3fmtCs2oPECeeQSs6_18build_script_build, symObjAddr: 0x3034, symBinAddr: 0x100009860, symSize: 0x30 }
  - { offset: 0xD708, size: 0x8, addend: 0x0, symName: __RNvXs1c_NtCsfvfooZQ3Axs_4core3fmtReNtB6_7Display3fmtCs2oPECeeQSs6_18build_script_build, symObjAddr: 0x3064, symBinAddr: 0x100009890, symSize: 0x3C }
  - { offset: 0xD75E, size: 0x8, addend: 0x0, symName: __RNvXs_NvNtNtCsfvfooZQ3Axs_4core3fmt5Write9write_fmtQINtNvNtNtCscOYdFFY2T5N_3std2io5Write9write_fmt7AdapterNtNtNtNtNtBX_3sys3pal4unix5stdio6StderrENtB4_12SpecWriteFmt14spec_write_fmtCs2oPECeeQSs6_18build_script_build, symObjAddr: 0x347C, symBinAddr: 0x100009CA8, symSize: 0x164 }
  - { offset: 0xD80D, size: 0x8, addend: 0x0, symName: __RNvYINtNvNtNtCscOYdFFY2T5N_3std2io5Write9write_fmt7AdapterNtNtNtNtNtBb_3sys3pal4unix5stdio6StderrENtNtCsfvfooZQ3Axs_4core3fmt5Write10write_charCs2oPECeeQSs6_18build_script_build, symObjAddr: 0x3834, symBinAddr: 0x10000A060, symSize: 0x70 }
  - { offset: 0xD875, size: 0x8, addend: 0x0, symName: __RNvYINtNvNtNtCscOYdFFY2T5N_3std2io5Write9write_fmt7AdapterNtNtNtNtNtBb_3sys3pal4unix5stdio6StderrENtNtCsfvfooZQ3Axs_4core3fmt5Write9write_fmtCs2oPECeeQSs6_18build_script_build, symObjAddr: 0x38A4, symBinAddr: 0x10000A0D0, symSize: 0x24 }
  - { offset: 0xD8BF, size: 0x8, addend: 0x0, symName: __RNvXss_NtCsfvfooZQ3Axs_4core3fmtuNtB5_5Debug3fmtCs2oPECeeQSs6_18build_script_build, symObjAddr: 0x3744, symBinAddr: 0x100009F70, symSize: 0x40 }
  - { offset: 0xD908, size: 0x8, addend: 0x0, symName: __RINvMNtCsfvfooZQ3Axs_4core3stre5parsemECs2oPECeeQSs6_18build_script_build, symObjAddr: 0x0, symBinAddr: 0x10000682C, symSize: 0x38 }
  - { offset: 0xD93F, size: 0x8, addend: 0x0, symName: __RINvMNtCsfvfooZQ3Axs_4core3stre5splitcECs2oPECeeQSs6_18build_script_build, symObjAddr: 0x38, symBinAddr: 0x100006864, symSize: 0x98 }
  - { offset: 0xDB18, size: 0x8, addend: 0x0, symName: __RNvXsX_NtNtCsfvfooZQ3Axs_4core3str4iterINtB5_5SplitcENtNtNtNtB9_4iter6traits8iterator8Iterator4nextCs2oPECeeQSs6_18build_script_build, symObjAddr: 0x3348, symBinAddr: 0x100009B74, symSize: 0x24 }
  - { offset: 0xE45F, size: 0x8, addend: 0x0, symName: __RNvXs5_NtCsfvfooZQ3Axs_4core6optionINtB5_6OptionNtNtNtCscOYdFFY2T5N_3std3ffi6os_str8OsStringENtNtNtNtB7_4iter6traits7collect12IntoIterator9into_iterCs2oPECeeQSs6_18build_script_build, symObjAddr: 0x30A0, symBinAddr: 0x1000098CC, symSize: 0x30 }
  - { offset: 0xE584, size: 0x8, addend: 0x0, symName: __RNvXsC_NtCsfvfooZQ3Axs_4core6optionINtB5_6OptionmEINtNtNtB7_3ops9try_trait12FromResidualIBy_NtNtB7_7convert10InfallibleEE13from_residualCs2oPECeeQSs6_18build_script_build, symObjAddr: 0x3320, symBinAddr: 0x100009B4C, symSize: 0x18 }
  - { offset: 0xE6CB, size: 0x8, addend: 0x0, symName: __RNvXsB_NtCsfvfooZQ3Axs_4core6optionINtB5_6OptionNtNtCscOYdFFY2T5N_3std7process6OutputENtNtNtB7_3ops9try_trait3Try6branchCs2oPECeeQSs6_18build_script_build, symObjAddr: 0x3254, symBinAddr: 0x100009A80, symSize: 0x78 }
  - { offset: 0xE721, size: 0x8, addend: 0x0, symName: __RNvXsB_NtCsfvfooZQ3Axs_4core6optionINtB5_6OptionReENtNtNtB7_3ops9try_trait3Try6branchCs2oPECeeQSs6_18build_script_build, symObjAddr: 0x32CC, symBinAddr: 0x100009AF8, symSize: 0x54 }
  - { offset: 0xEABF, size: 0x8, addend: 0x0, symName: __RNvXsv_NtCsfvfooZQ3Axs_4core6optionINtB5_8IntoIterNtNtNtCscOYdFFY2T5N_3std3ffi6os_str8OsStringENtNtNtNtB7_4iter6traits8iterator8Iterator4nextCs2oPECeeQSs6_18build_script_build, symObjAddr: 0x3784, symBinAddr: 0x100009FB0, symSize: 0x40 }
  - { offset: 0xEB68, size: 0x8, addend: 0x0, symName: __RNvXsc_NtCsfvfooZQ3Axs_4core6optionINtB5_6OptionReENtNtB7_3cmp9PartialEq2eqCs2oPECeeQSs6_18build_script_build, symObjAddr: 0x35E0, symBinAddr: 0x100009E0C, symSize: 0xAC }
  - { offset: 0xECBE, size: 0x8, addend: 0x0, symName: __RNCNvXs_NtNtNtCsfvfooZQ3Axs_4core4iter8adapters5chainINtB6_5ChainIBQ_INtNtBc_6option8IntoIterNtNtNtCscOYdFFY2T5N_3std3ffi6os_str8OsStringEB15_EINtNtNtBa_7sources4once4OnceB1t_EENtNtNtBa_6traits8iterator8Iterator4next0Cs2oPECeeQSs6_18build_script_build, symObjAddr: 0x14E8, symBinAddr: 0x100007D14, symSize: 0x8C }
  - { offset: 0xED8E, size: 0x8, addend: 0x0, symName: __RNCNvXs_NtNtNtCsfvfooZQ3Axs_4core4iter8adapters5chainINtB6_5ChainINtNtBc_6option8IntoIterNtNtNtCscOYdFFY2T5N_3std3ffi6os_str8OsStringEB11_ENtNtNtBa_6traits8iterator8Iterator4next0Cs2oPECeeQSs6_18build_script_build, symObjAddr: 0x1574, symBinAddr: 0x100007DA0, symSize: 0x8C }
  - { offset: 0xEE5F, size: 0x8, addend: 0x0, symName: __RNvXs_NtNtNtCsfvfooZQ3Axs_4core4iter8adapters5chainINtB4_5ChainIBO_INtNtBa_6option8IntoIterNtNtNtCscOYdFFY2T5N_3std3ffi6os_str8OsStringEB13_EINtNtNtB8_7sources4once4OnceB1r_EENtNtNtB8_6traits8iterator8Iterator4nextCs2oPECeeQSs6_18build_script_build, symObjAddr: 0x33F4, symBinAddr: 0x100009C20, symSize: 0x44 }
  - { offset: 0xEE9D, size: 0x8, addend: 0x0, symName: __RNvXs_NtNtNtCsfvfooZQ3Axs_4core4iter8adapters5chainINtB4_5ChainINtNtBa_6option8IntoIterNtNtNtCscOYdFFY2T5N_3std3ffi6os_str8OsStringEBZ_ENtNtNtB8_6traits8iterator8Iterator4nextCs2oPECeeQSs6_18build_script_build, symObjAddr: 0x3438, symBinAddr: 0x100009C64, symSize: 0x44 }
  - { offset: 0xEF9A, size: 0x8, addend: 0x0, symName: __RINvNtNtNtCsfvfooZQ3Axs_4core4iter8adapters5chain17and_then_or_clearINtB2_5ChainINtNtB8_6option8IntoIterNtNtNtCscOYdFFY2T5N_3std3ffi6os_str8OsStringEB1g_EB1E_NvYB14_NtNtNtB6_6traits8iterator8Iterator4nextECs2oPECeeQSs6_18build_script_build, symObjAddr: 0x1088, symBinAddr: 0x1000078B4, symSize: 0x134 }
  - { offset: 0xF0D8, size: 0x8, addend: 0x0, symName: __RINvNtNtNtCsfvfooZQ3Axs_4core4iter8adapters5chain17and_then_or_clearINtNtB8_6option8IntoIterNtNtNtCscOYdFFY2T5N_3std3ffi6os_str8OsStringEB1s_NvYB14_NtNtNtB6_6traits8iterator8Iterator4nextECs2oPECeeQSs6_18build_script_build, symObjAddr: 0x11BC, symBinAddr: 0x1000079E8, symSize: 0x12C }
  - { offset: 0xF241, size: 0x8, addend: 0x0, symName: __RINvNtNtNtCsfvfooZQ3Axs_4core4iter7sources4once4onceNtNtNtCscOYdFFY2T5N_3std3ffi6os_str8OsStringECs2oPECeeQSs6_18build_script_build, symObjAddr: 0x1038, symBinAddr: 0x100007864, symSize: 0x50 }
  - { offset: 0xF28F, size: 0x8, addend: 0x0, symName: __RNvXNtNtNtCsfvfooZQ3Axs_4core4iter7sources4onceINtB2_4OnceNtNtNtCscOYdFFY2T5N_3std3ffi6os_str8OsStringENtNtNtB6_6traits8iterator8Iterator4nextCs2oPECeeQSs6_18build_script_build, symObjAddr: 0x2E0C, symBinAddr: 0x100009638, symSize: 0x40 }
  - { offset: 0xF357, size: 0x8, addend: 0x0, symName: __RINvYINtNtCsfvfooZQ3Axs_4core6option8IntoIterNtNtNtCscOYdFFY2T5N_3std3ffi6os_str8OsStringENtNtNtNtB8_4iter6traits8iterator8Iterator5chainINtB6_6OptionBH_EECs2oPECeeQSs6_18build_script_build, symObjAddr: 0x12E8, symBinAddr: 0x100007B14, symSize: 0xAC }
  - { offset: 0xF3CE, size: 0x8, addend: 0x0, symName: __RINvYINtNtNtNtCsfvfooZQ3Axs_4core4iter8adapters5chain5ChainINtNtBc_6option8IntoIterNtNtNtCscOYdFFY2T5N_3std3ffi6os_str8OsStringEBV_ENtNtNtBa_6traits8iterator8Iterator5chainINtNtNtBa_7sources4once4OnceB1j_EECs2oPECeeQSs6_18build_script_build, symObjAddr: 0x1394, symBinAddr: 0x100007BC0, symSize: 0xC8 }
  - { offset: 0xF452, size: 0x8, addend: 0x0, symName: __RNvXNtNtNtCsfvfooZQ3Axs_4core4iter6traits7collectINtNtNtB6_7sources4once4OnceNtNtNtCscOYdFFY2T5N_3std3ffi6os_str8OsStringENtB2_12IntoIterator9into_iterCs2oPECeeQSs6_18build_script_build, symObjAddr: 0x2D94, symBinAddr: 0x1000095C0, symSize: 0x18 }
  - { offset: 0xF489, size: 0x8, addend: 0x0, symName: __RNvXNtNtNtCsfvfooZQ3Axs_4core4iter6traits7collectINtNtNtB6_8adapters5chain5ChainIBM_INtNtB8_6option8IntoIterNtNtNtCscOYdFFY2T5N_3std3ffi6os_str8OsStringEB1k_EINtNtNtB6_7sources4once4OnceB1I_EENtB2_12IntoIterator9into_iterCs2oPECeeQSs6_18build_script_build, symObjAddr: 0x2DAC, symBinAddr: 0x1000095D8, symSize: 0x30 }
  - { offset: 0xF4C1, size: 0x8, addend: 0x0, symName: __RNvXNtNtNtCsfvfooZQ3Axs_4core4iter6traits7collectINtNtNtB8_3str4iter5SplitcENtB2_12IntoIterator9into_iterCs2oPECeeQSs6_18build_script_build, symObjAddr: 0x2DDC, symBinAddr: 0x100009608, symSize: 0x30 }
  - { offset: 0xFA38, size: 0x8, addend: 0x0, symName: __RNvXs1_NtCsfvfooZQ3Axs_4core7convertNtNtCscOYdFFY2T5N_3std7process5StdioINtB5_4IntoBy_E4intoCs2oPECeeQSs6_18build_script_build, symObjAddr: 0x3018, symBinAddr: 0x100009844, symSize: 0x1C }
  - { offset: 0xFB19, size: 0x8, addend: 0x0, symName: __RNvNvNtNtCsfvfooZQ3Axs_4core5slice3raw14from_raw_parts18precondition_checkCs2oPECeeQSs6_18build_script_build, symObjAddr: 0x2AC4, symBinAddr: 0x1000092F0, symSize: 0x168 }
  - { offset: 0xFC5F, size: 0x8, addend: 0x0, symName: __RNvNvNtNtCsfvfooZQ3Axs_4core5slice3raw18from_raw_parts_mut18precondition_checkCs2oPECeeQSs6_18build_script_build, symObjAddr: 0x2C2C, symBinAddr: 0x100009458, symSize: 0x168 }
  - { offset: 0xFE45, size: 0x8, addend: 0x0, symName: __RNvNtNtCsfvfooZQ3Axs_4core5slice6memchr6memchrCs2oPECeeQSs6_18build_script_build, symObjAddr: 0x26A8, symBinAddr: 0x100008ED4, symSize: 0x114 }
  - { offset: 0xFF9D, size: 0x8, addend: 0x0, symName: __RNvXs5_NtNtCsfvfooZQ3Axs_4core5slice5indexINtNtNtB9_3ops5range9RangeFromjEINtB5_10SliceIndexShE5indexCs2oPECeeQSs6_18build_script_build, symObjAddr: 0x3124, symBinAddr: 0x100009950, symSize: 0x88 }
  - { offset: 0x100F8, size: 0x8, addend: 0x0, symName: __RNvMNtNtCsfvfooZQ3Axs_4core4char7methodsc8to_digitCs2oPECeeQSs6_18build_script_build, symObjAddr: 0x1730, symBinAddr: 0x100007F5C, symSize: 0x14C }
  - { offset: 0x10222, size: 0x8, addend: 0x0, symName: __RNvNtNtCsfvfooZQ3Axs_4core4char7methods15encode_utf8_rawCs2oPECeeQSs6_18build_script_build, symObjAddr: 0x2480, symBinAddr: 0x100008CAC, symSize: 0x228 }
  - { offset: 0x10563, size: 0x8, addend: 0x0, symName: __RNvXs7_NtNtCsfvfooZQ3Axs_4core3cmp5implsReNtB7_9PartialEq2eqCs2oPECeeQSs6_18build_script_build, symObjAddr: 0x3210, symBinAddr: 0x100009A3C, symSize: 0x44 }
  - { offset: 0x105B9, size: 0x8, addend: 0x0, symName: __RNvYINtNtCsfvfooZQ3Axs_4core6option6OptionReENtNtB7_3cmp9PartialEq2neCs2oPECeeQSs6_18build_script_build, symObjAddr: 0x3804, symBinAddr: 0x10000A030, symSize: 0x30 }
  - { offset: 0x108D2, size: 0x8, addend: 0x0, symName: __RNvXs6_NtCse1nGBsou5OW_5alloc3vecINtB5_3VechENtNtNtCsfvfooZQ3Axs_4core3ops5deref5Deref5derefCs2oPECeeQSs6_18build_script_build, symObjAddr: 0x31EC, symBinAddr: 0x100009A18, symSize: 0x24 }
  - { offset: 0x10918, size: 0x8, addend: 0x0, symName: __RNvXsn_NtCse1nGBsou5OW_5alloc3vecINtB5_3VecINtNtB7_5boxed3BoxDINtNtNtCsfvfooZQ3Axs_4core3ops8function5FnMutuEp6OutputINtNtB15_6result6ResultuNtNtNtCscOYdFFY2T5N_3std2io5error5ErrorENtNtB15_6marker4SendNtB2V_4SyncEL_EENtNtB13_4drop4Drop4dropCs2oPECeeQSs6_18build_script_build, symObjAddr: 0x368C, symBinAddr: 0x100009EB8, symSize: 0x38 }
  - { offset: 0x109C8, size: 0x8, addend: 0x0, symName: __RNvXsn_NtCse1nGBsou5OW_5alloc3vecINtB5_3VecNtNtNtB7_3ffi5c_str7CStringENtNtNtCsfvfooZQ3Axs_4core3ops4drop4Drop4dropCs2oPECeeQSs6_18build_script_build, symObjAddr: 0x36C4, symBinAddr: 0x100009EF0, symSize: 0x38 }
  - { offset: 0x10A78, size: 0x8, addend: 0x0, symName: __RNvXsn_NtCse1nGBsou5OW_5alloc3vecINtB5_3VecPaENtNtNtCsfvfooZQ3Axs_4core3ops4drop4Drop4dropCs2oPECeeQSs6_18build_script_build, symObjAddr: 0x36FC, symBinAddr: 0x100009F28, symSize: 0x24 }
  - { offset: 0x10B3C, size: 0x8, addend: 0x0, symName: __RNvXs1_NtCse1nGBsou5OW_5alloc5allocNtB5_6GlobalNtNtCsfvfooZQ3Axs_4core5clone5Clone5cloneCs2oPECeeQSs6_18build_script_build, symObjAddr: 0x2F70, symBinAddr: 0x10000979C, symSize: 0x10 }
  - { offset: 0x10B8D, size: 0x8, addend: 0x0, symName: __RNvXs_NtCse1nGBsou5OW_5alloc5allocNtB4_6GlobalNtNtCsfvfooZQ3Axs_4core5alloc9Allocator10deallocateCs2oPECeeQSs6_18build_script_build, symObjAddr: 0x336C, symBinAddr: 0x100009B98, symSize: 0x88 }
  - { offset: 0x10F56, size: 0x8, addend: 0x0, symName: __RNvXs1_NtCse1nGBsou5OW_5alloc7raw_vecINtB5_6RawVecINtNtB7_5boxed3BoxDINtNtNtCsfvfooZQ3Axs_4core3ops8function5FnMutuEp6OutputINtNtB1c_6result6ResultuNtNtNtCscOYdFFY2T5N_3std2io5error5ErrorENtNtB1c_6marker4SendNtB32_4SyncEL_EENtNtB1a_4drop4Drop4dropCs2oPECeeQSs6_18build_script_build, symObjAddr: 0x2F80, symBinAddr: 0x1000097AC, symSize: 0x34 }
  - { offset: 0x10F92, size: 0x8, addend: 0x0, symName: __RNvXs1_NtCse1nGBsou5OW_5alloc7raw_vecINtB5_6RawVecNtNtNtB7_3ffi5c_str7CStringENtNtNtCsfvfooZQ3Axs_4core3ops4drop4Drop4dropCs2oPECeeQSs6_18build_script_build, symObjAddr: 0x2FB4, symBinAddr: 0x1000097E0, symSize: 0x34 }
  - { offset: 0x10FCE, size: 0x8, addend: 0x0, symName: __RNvXs1_NtCse1nGBsou5OW_5alloc7raw_vecINtB5_6RawVecPaENtNtNtCsfvfooZQ3Axs_4core3ops4drop4Drop4dropCs2oPECeeQSs6_18build_script_build, symObjAddr: 0x2FE8, symBinAddr: 0x100009814, symSize: 0x30 }
  - { offset: 0x111AF, size: 0x8, addend: 0x0, symName: __RNCINvMsm_NtNtNtCse1nGBsou5OW_5alloc11collections5btree8navigateINtNtBa_4node6HandleINtB13_7NodeRefNtNtB13_6marker5DyingNtNtNtCscOYdFFY2T5N_3std3ffi6os_str8OsStringINtNtCsfvfooZQ3Axs_4core6option6OptionB1U_ENtB1B_4LeafENtB1B_4EdgeE27deallocating_next_uncheckedNtNtBe_5alloc6GlobalE0Cs2oPECeeQSs6_18build_script_build, symObjAddr: 0x145C, symBinAddr: 0x100007C88, symSize: 0x58 }
  - { offset: 0x11789, size: 0x8, addend: 0x0, symName: __RINvNtNtNtCse1nGBsou5OW_5alloc11collections5btree3mem7replaceINtNtB4_4node6HandleINtB10_7NodeRefNtNtB10_6marker5DyingNtNtNtCscOYdFFY2T5N_3std3ffi6os_str8OsStringINtNtCsfvfooZQ3Axs_4core6option6OptionB1R_ENtB1y_4LeafENtB1y_4EdgeEIBY_IB1i_B1w_B1R_B2z_NtB1y_14LeafOrInternalENtB1y_2KVENCINvMsm_NtB4_8navigateBX_27deallocating_next_uncheckedNtNtB8_5alloc6GlobalE0ECs2oPECeeQSs6_18build_script_build, symObjAddr: 0xF6C, symBinAddr: 0x100007798, symSize: 0xCC }
  - { offset: 0x118AE, size: 0x8, addend: 0x0, symName: __RNvXs0_NtNtCse1nGBsou5OW_5alloc3ffi5c_strNtB5_7CStringNtNtNtCsfvfooZQ3Axs_4core3ops4drop4Drop4dropCs2oPECeeQSs6_18build_script_build, symObjAddr: 0x2F04, symBinAddr: 0x100009730, symSize: 0x6C }
  - { offset: 0x1199E, size: 0x8, addend: 0x0, symName: __RNvXss_NtCse1nGBsou5OW_5alloc6stringNtB5_6StringNtNtNtCsfvfooZQ3Axs_4core3ops5deref5Deref5derefCs2oPECeeQSs6_18build_script_build, symObjAddr: 0x3720, symBinAddr: 0x100009F4C, symSize: 0x24 }
  - { offset: 0x11A30, size: 0x8, addend: 0x0, symName: __RINvMNtCsfvfooZQ3Axs_4core6optionINtB3_6OptionNtNtNtCscOYdFFY2T5N_3std3ffi6os_str8OsStringE14unwrap_or_elseNCNvCs2oPECeeQSs6_18build_script_build13cargo_env_var0EB1L_, symObjAddr: 0xD0, symBinAddr: 0x1000068FC, symSize: 0x7C }
  - { offset: 0x11A93, size: 0x8, addend: 0x0, symName: __RINvMNtCsfvfooZQ3Axs_4core6optionINtB3_6OptionNtNtNtCscOYdFFY2T5N_3std3ffi6os_str8OsStringE6filterNCNvCs2oPECeeQSs6_18build_script_build16do_compile_probe0EB1C_, symObjAddr: 0x14C, symBinAddr: 0x100006978, symSize: 0x178 }
  - { offset: 0x11AEE, size: 0x8, addend: 0x0, symName: __RINvMNtCsfvfooZQ3Axs_4core6optionINtB3_6OptionNtNtNtCscOYdFFY2T5N_3std3ffi6os_str8OsStringE6filterNCNvCs2oPECeeQSs6_18build_script_build16do_compile_probes_0EB1C_, symObjAddr: 0x2C4, symBinAddr: 0x100006AF0, symSize: 0x178 }
  - { offset: 0x11B56, size: 0x8, addend: 0x0, symName: __RINvMNtCsfvfooZQ3Axs_4core6optionINtB3_6OptionNtNtNtCscOYdFFY2T5N_3std3ffi6os_str8OsStringE7or_elseNCNvXs_NtNtNtB5_4iter8adapters5chainINtB1G_5ChainIB2a_INtB3_8IntoIterBI_EB2r_EINtNtNtB1K_7sources4once4OnceBI_EENtNtNtB1K_6traits8iterator8Iterator4next0ECs2oPECeeQSs6_18build_script_build, symObjAddr: 0x43C, symBinAddr: 0x100006C68, symSize: 0xD4 }
  - { offset: 0x11BC6, size: 0x8, addend: 0x0, symName: __RINvMNtCsfvfooZQ3Axs_4core6optionINtB3_6OptionNtNtNtCscOYdFFY2T5N_3std3ffi6os_str8OsStringE7or_elseNCNvXs_NtNtNtB5_4iter8adapters5chainINtB1G_5ChainINtB3_8IntoIterBI_EB2m_ENtNtNtB1K_6traits8iterator8Iterator4next0ECs2oPECeeQSs6_18build_script_build, symObjAddr: 0x510, symBinAddr: 0x100006D3C, symSize: 0xD4 }
  - { offset: 0x11D4B, size: 0x8, addend: 0x0, symName: __RINvMs3_NtCsfvfooZQ3Axs_4core3fmtNtB6_9Arguments6new_v1Kj2_Kj1_ECs2oPECeeQSs6_18build_script_build, symObjAddr: 0x5E4, symBinAddr: 0x100006E10, symSize: 0x54 }
  - { offset: 0x11DB1, size: 0x8, addend: 0x0, symName: __RINvMs3_NtCsfvfooZQ3Axs_4core3fmtNtB6_9Arguments6new_v1Kj3_Kj2_ECs2oPECeeQSs6_18build_script_build, symObjAddr: 0x638, symBinAddr: 0x100006E64, symSize: 0x54 }
  - { offset: 0x11DFD, size: 0x8, addend: 0x0, symName: __RINvMs3_NtCsfvfooZQ3Axs_4core3fmtNtB6_9Arguments9new_constKj1_ECs2oPECeeQSs6_18build_script_build, symObjAddr: 0x68C, symBinAddr: 0x100006EB8, symSize: 0x48 }
  - { offset: 0x11EB1, size: 0x8, addend: 0x0, symName: __RINvMsb_NtNtNtCse1nGBsou5OW_5alloc11collections5btree8navigateINtB6_13LazyLeafRangeNtNtNtB8_4node6marker5DyingNtNtNtCscOYdFFY2T5N_3std3ffi6os_str8OsStringINtNtCsfvfooZQ3Axs_4core6option6OptionB1K_EE16deallocating_endNtNtBc_5alloc6GlobalECs2oPECeeQSs6_18build_script_build, symObjAddr: 0x6D4, symBinAddr: 0x100006F00, symSize: 0xA8 }
  - { offset: 0x11F83, size: 0x8, addend: 0x0, symName: __RINvMsb_NtNtNtCse1nGBsou5OW_5alloc11collections5btree8navigateINtB6_13LazyLeafRangeNtNtNtB8_4node6marker5DyingNtNtNtCscOYdFFY2T5N_3std3ffi6os_str8OsStringINtNtCsfvfooZQ3Axs_4core6option6OptionB1K_EE27deallocating_next_uncheckedNtNtBc_5alloc6GlobalECs2oPECeeQSs6_18build_script_build, symObjAddr: 0x77C, symBinAddr: 0x100006FA8, symSize: 0xA8 }
  - { offset: 0x12165, size: 0x8, addend: 0x0, symName: __RINvMsk_NtCscOYdFFY2T5N_3std7processNtB6_7Command10env_removeReECs2oPECeeQSs6_18build_script_build, symObjAddr: 0x824, symBinAddr: 0x100007050, symSize: 0x78 }
  - { offset: 0x121BE, size: 0x8, addend: 0x0, symName: __RINvMsk_NtCscOYdFFY2T5N_3std7processNtB6_7Command3argNtNtB8_4path7PathBufECs2oPECeeQSs6_18build_script_build, symObjAddr: 0x89C, symBinAddr: 0x1000070C8, symSize: 0x84 }
  - { offset: 0x121FA, size: 0x8, addend: 0x0, symName: __RINvMsk_NtCscOYdFFY2T5N_3std7processNtB6_7Command3argNtNtNtB8_3ffi6os_str8OsStringECs2oPECeeQSs6_18build_script_build, symObjAddr: 0x920, symBinAddr: 0x10000714C, symSize: 0x84 }
  - { offset: 0x12243, size: 0x8, addend: 0x0, symName: __RINvMsk_NtCscOYdFFY2T5N_3std7processNtB6_7Command3argRNtNtB8_4path7PathBufECs2oPECeeQSs6_18build_script_build, symObjAddr: 0x9A4, symBinAddr: 0x1000071D0, symSize: 0x6C }
  - { offset: 0x122A5, size: 0x8, addend: 0x0, symName: __RINvMsk_NtCscOYdFFY2T5N_3std7processNtB6_7Command3argRNtNtNtB8_3ffi6os_str5OsStrECs2oPECeeQSs6_18build_script_build, symObjAddr: 0xA10, symBinAddr: 0x10000723C, symSize: 0x70 }
  - { offset: 0x122E0, size: 0x8, addend: 0x0, symName: __RINvMsk_NtCscOYdFFY2T5N_3std7processNtB6_7Command3argReECs2oPECeeQSs6_18build_script_build, symObjAddr: 0xA80, symBinAddr: 0x1000072AC, symSize: 0x70 }
  - { offset: 0x1231B, size: 0x8, addend: 0x0, symName: __RINvMsk_NtCscOYdFFY2T5N_3std7processNtB6_7Command3newNtNtNtB8_3ffi6os_str8OsStringECs2oPECeeQSs6_18build_script_build, symObjAddr: 0xAF0, symBinAddr: 0x10000731C, symSize: 0x90 }
  - { offset: 0x12348, size: 0x8, addend: 0x0, symName: __RINvMsk_NtCscOYdFFY2T5N_3std7processNtB6_7Command4argsINtNtNtNtCsfvfooZQ3Axs_4core4iter8adapters5chain5ChainIBR_INtNtBZ_6option8IntoIterNtNtNtB8_3ffi6os_str8OsStringEB1M_EINtNtNtBX_7sources4once4OnceB2a_EEB2a_ECs2oPECeeQSs6_18build_script_build, symObjAddr: 0xB80, symBinAddr: 0x1000073AC, symSize: 0x114 }
  - { offset: 0x123BA, size: 0x8, addend: 0x0, symName: __RINvMsk_NtCscOYdFFY2T5N_3std7processNtB6_7Command6stderrNtB6_5StdioECs2oPECeeQSs6_18build_script_build, symObjAddr: 0xC94, symBinAddr: 0x1000074C0, symSize: 0x5C }
  - { offset: 0x12429, size: 0x8, addend: 0x0, symName: __RINvMsw_NtCscOYdFFY2T5N_3std2fsNtB6_10DirBuilder6createRNtNtB8_4path4PathECs2oPECeeQSs6_18build_script_build, symObjAddr: 0xCF0, symBinAddr: 0x10000751C, symSize: 0x74 }
  - { offset: 0x127A6, size: 0x8, addend: 0x0, symName: __RNvMNtCse1nGBsou5OW_5alloc6stringNtB2_6String6as_strCs2oPECeeQSs6_18build_script_build, symObjAddr: 0x1600, symBinAddr: 0x100007E2C, symSize: 0x70 }
  - { offset: 0x128DB, size: 0x8, addend: 0x0, symName: __RNvMNtCse1nGBsou5OW_5alloc6stringNtB2_6String8is_emptyCs2oPECeeQSs6_18build_script_build, symObjAddr: 0x1670, symBinAddr: 0x100007E9C, symSize: 0x20 }
  - { offset: 0x1294D, size: 0x8, addend: 0x0, symName: __RNvMNtCsfvfooZQ3Axs_4core6optionINtB2_6OptionNtNtNtCscOYdFFY2T5N_3std3ffi6os_str8OsStringE7is_noneCs2oPECeeQSs6_18build_script_build, symObjAddr: 0x1690, symBinAddr: 0x100007EBC, symSize: 0x2C }
  - { offset: 0x12997, size: 0x8, addend: 0x0, symName: __RNvMNtCsfvfooZQ3Axs_4core6optionINtB2_6OptionNtNtNtCscOYdFFY2T5N_3std3ffi6os_str8OsStringE7is_someCs2oPECeeQSs6_18build_script_build, symObjAddr: 0x16BC, symBinAddr: 0x100007EE8, symSize: 0x2C }
  - { offset: 0x129C3, size: 0x8, addend: 0x0, symName: __RNvMNtCsfvfooZQ3Axs_4core6optionINtB2_6OptionmE9unwrap_orCs2oPECeeQSs6_18build_script_build, symObjAddr: 0x16E8, symBinAddr: 0x100007F14, symSize: 0x48 }
  - { offset: 0x12B19, size: 0x8, addend: 0x0, symName: __RNvMsC_NtCscOYdFFY2T5N_3std7processNtB5_10ExitStatus7successCs2oPECeeQSs6_18build_script_build, symObjAddr: 0x1DB8, symBinAddr: 0x1000085E4, symSize: 0x70 }
  - { offset: 0x12C50, size: 0x8, addend: 0x0, symName: __RNvMs_NtCse1nGBsou5OW_5alloc3vecINtB4_3VechE8as_sliceCs2oPECeeQSs6_18build_script_build, symObjAddr: 0x1E28, symBinAddr: 0x100008654, symSize: 0x60 }
  - { offset: 0x12EA0, size: 0x8, addend: 0x0, symName: __RNvMsb_NtNtNtCse1nGBsou5OW_5alloc11collections5btree8navigateINtB5_13LazyLeafRangeNtNtNtB7_4node6marker5DyingNtNtNtCscOYdFFY2T5N_3std3ffi6os_str8OsStringINtNtCsfvfooZQ3Axs_4core6option6OptionB1J_EE10take_frontCs2oPECeeQSs6_18build_script_build, symObjAddr: 0x1E88, symBinAddr: 0x1000086B4, symSize: 0x1C4 }
  - { offset: 0x13229, size: 0x8, addend: 0x0, symName: __RNvMsc_NtNtNtCse1nGBsou5OW_5alloc11collections5btree8navigateINtB5_13LazyLeafRangeNtNtNtB7_4node6marker5DyingNtNtNtCscOYdFFY2T5N_3std3ffi6os_str8OsStringINtNtCsfvfooZQ3Axs_4core6option6OptionB1J_EE10init_frontCs2oPECeeQSs6_18build_script_build, symObjAddr: 0x204C, symBinAddr: 0x100008878, symSize: 0x1C4 }
  - { offset: 0x133E7, size: 0x8, addend: 0x0, symName: __RNvMsf_NtNtCsfvfooZQ3Axs_4core3str4iterINtB5_13SplitInternalcE4nextCs2oPECeeQSs6_18build_script_build, symObjAddr: 0x2210, symBinAddr: 0x100008A3C, symSize: 0x138 }
  - { offset: 0x13523, size: 0x8, addend: 0x0, symName: __RNvMsf_NtNtCsfvfooZQ3Axs_4core3str4iterINtB5_13SplitInternalcE7get_endCs2oPECeeQSs6_18build_script_build, symObjAddr: 0x2348, symBinAddr: 0x100008B74, symSize: 0x120 }
  - { offset: 0x13621, size: 0x8, addend: 0x0, symName: __RNvMsr_NtCscOYdFFY2T5N_3std7processNtB5_5Stdio4nullCs2oPECeeQSs6_18build_script_build, symObjAddr: 0x2468, symBinAddr: 0x100008C94, symSize: 0x18 }
  - { offset: 0x13B4F, size: 0x8, addend: 0x0, symName: ___llvm_profile_get_magic, symObjAddr: 0x28, symBinAddr: 0x10000A108, symSize: 0x14 }
  - { offset: 0x13B70, size: 0x8, addend: 0x0, symName: ___llvm_profile_get_num_padding_bytes, symObjAddr: 0x44, symBinAddr: 0x10000A11C, symSize: 0xC }
  - { offset: 0x13B78, size: 0x8, addend: 0x0, symName: ___llvm_profile_get_version, symObjAddr: 0x50, symBinAddr: 0x10000A128, symSize: 0xC }
  - { offset: 0x13BA1, size: 0x8, addend: 0x0, symName: ___llvm_profile_get_version, symObjAddr: 0x50, symBinAddr: 0x10000A128, symSize: 0xC }
  - { offset: 0x13C16, size: 0x8, addend: 0x0, symName: ___llvm_profile_is_continuous_mode_enabled, symObjAddr: 0x0, symBinAddr: 0x10000A134, symSize: 0x20 }
  - { offset: 0x13C33, size: 0x8, addend: 0x0, symName: __MergedGlobals, symObjAddr: 0x3E20, symBinAddr: 0x10006D3B8, symSize: 0x0 }
  - { offset: 0x13C55, size: 0x8, addend: 0x0, symName: __MergedGlobals, symObjAddr: 0x3E20, symBinAddr: 0x10006D3B8, symSize: 0x0 }
  - { offset: 0x13C85, size: 0x8, addend: 0x0, symName: ___llvm_profile_is_continuous_mode_enabled, symObjAddr: 0x0, symBinAddr: 0x10000A134, symSize: 0x20 }
  - { offset: 0x13C8D, size: 0x8, addend: 0x0, symName: ___llvm_profile_enable_continuous_mode, symObjAddr: 0x20, symBinAddr: 0x10000A154, symSize: 0x10 }
  - { offset: 0x13C9D, size: 0x8, addend: 0x0, symName: ___llvm_profile_enable_continuous_mode, symObjAddr: 0x20, symBinAddr: 0x10000A154, symSize: 0x10 }
  - { offset: 0x13CA5, size: 0x8, addend: 0x0, symName: ___llvm_profile_disable_continuous_mode, symObjAddr: 0x30, symBinAddr: 0x10000A164, symSize: 0xC }
  - { offset: 0x13CBA, size: 0x8, addend: 0x0, symName: ___llvm_profile_disable_continuous_mode, symObjAddr: 0x30, symBinAddr: 0x10000A164, symSize: 0xC }
  - { offset: 0x13CC2, size: 0x8, addend: 0x0, symName: ___llvm_profile_set_page_size, symObjAddr: 0x3C, symBinAddr: 0x10000A170, symSize: 0xC }
  - { offset: 0x13CD7, size: 0x8, addend: 0x0, symName: ___llvm_profile_set_page_size, symObjAddr: 0x3C, symBinAddr: 0x10000A170, symSize: 0xC }
  - { offset: 0x13CDF, size: 0x8, addend: 0x0, symName: ___llvm_profile_get_size_for_buffer, symObjAddr: 0x48, symBinAddr: 0x10000A17C, symSize: 0xC4 }
  - { offset: 0x13D02, size: 0x8, addend: 0x0, symName: ___llvm_profile_get_size_for_buffer, symObjAddr: 0x48, symBinAddr: 0x10000A17C, symSize: 0xC4 }
  - { offset: 0x13D0A, size: 0x8, addend: 0x0, symName: ___llvm_profile_get_size_for_buffer_internal, symObjAddr: 0x10C, symBinAddr: 0x10000A240, symSize: 0x1C0 }
  - { offset: 0x1416D, size: 0x8, addend: 0x0, symName: ___llvm_profile_get_size_for_buffer_internal, symObjAddr: 0x10C, symBinAddr: 0x10000A240, symSize: 0x1C0 }
  - { offset: 0x14175, size: 0x8, addend: 0x0, symName: ___llvm_profile_get_num_data, symObjAddr: 0x2CC, symBinAddr: 0x10000A400, symSize: 0x10 }
  - { offset: 0x14564, size: 0x8, addend: 0x0, symName: ___llvm_profile_get_num_data, symObjAddr: 0x2CC, symBinAddr: 0x10000A400, symSize: 0x10 }
  - { offset: 0x1456C, size: 0x8, addend: 0x0, symName: ___llvm_profile_get_data_size, symObjAddr: 0x2DC, symBinAddr: 0x10000A410, symSize: 0x10 }
  - { offset: 0x1459D, size: 0x8, addend: 0x0, symName: ___llvm_profile_get_data_size, symObjAddr: 0x2DC, symBinAddr: 0x10000A410, symSize: 0x10 }
  - { offset: 0x145A5, size: 0x8, addend: 0x0, symName: ___llvm_profile_get_num_vtable, symObjAddr: 0x2EC, symBinAddr: 0x10000A420, symSize: 0x18 }
  - { offset: 0x145C9, size: 0x8, addend: 0x0, symName: ___llvm_profile_get_data_size, symObjAddr: 0x2DC, symBinAddr: 0x10000A410, symSize: 0x10 }
  - { offset: 0x145FB, size: 0x8, addend: 0x0, symName: ___llvm_profile_get_num_vtable, symObjAddr: 0x2EC, symBinAddr: 0x10000A420, symSize: 0x18 }
  - { offset: 0x14603, size: 0x8, addend: 0x0, symName: ___llvm_profile_get_vtable_section_size, symObjAddr: 0x304, symBinAddr: 0x10000A438, symSize: 0x8 }
  - { offset: 0x14655, size: 0x8, addend: 0x0, symName: ___llvm_profile_get_vtable_section_size, symObjAddr: 0x304, symBinAddr: 0x10000A438, symSize: 0x8 }
  - { offset: 0x1465D, size: 0x8, addend: 0x0, symName: ___llvm_profile_counter_entry_size, symObjAddr: 0x30C, symBinAddr: 0x10000A440, symSize: 0x1C }
  - { offset: 0x1467E, size: 0x8, addend: 0x0, symName: ___llvm_profile_counter_entry_size, symObjAddr: 0x30C, symBinAddr: 0x10000A440, symSize: 0x1C }
  - { offset: 0x14686, size: 0x8, addend: 0x0, symName: ___llvm_profile_get_num_counters, symObjAddr: 0x328, symBinAddr: 0x10000A45C, symSize: 0x48 }
  - { offset: 0x14696, size: 0x8, addend: 0x0, symName: ___llvm_profile_get_num_counters, symObjAddr: 0x328, symBinAddr: 0x10000A45C, symSize: 0x48 }
  - { offset: 0x1469E, size: 0x8, addend: 0x0, symName: ___llvm_profile_get_counters_size, symObjAddr: 0x370, symBinAddr: 0x10000A4A4, symSize: 0x5C }
  - { offset: 0x14703, size: 0x8, addend: 0x0, symName: ___llvm_profile_get_counters_size, symObjAddr: 0x370, symBinAddr: 0x10000A4A4, symSize: 0x5C }
  - { offset: 0x1470B, size: 0x8, addend: 0x0, symName: ___llvm_profile_get_num_bitmap_bytes, symObjAddr: 0x3CC, symBinAddr: 0x10000A500, symSize: 0x8 }
  - { offset: 0x147AF, size: 0x8, addend: 0x0, symName: ___llvm_profile_get_num_bitmap_bytes, symObjAddr: 0x3CC, symBinAddr: 0x10000A500, symSize: 0x8 }
  - { offset: 0x147B7, size: 0x8, addend: 0x0, symName: ___llvm_profile_get_name_size, symObjAddr: 0x3D4, symBinAddr: 0x10000A508, symSize: 0x8 }
  - { offset: 0x147D8, size: 0x8, addend: 0x0, symName: ___llvm_profile_get_name_size, symObjAddr: 0x3D4, symBinAddr: 0x10000A508, symSize: 0x8 }
  - { offset: 0x147E0, size: 0x8, addend: 0x0, symName: ___llvm_profile_get_padding_sizes_for_counters, symObjAddr: 0x3DC, symBinAddr: 0x10000A510, symSize: 0x15C }
  - { offset: 0x14801, size: 0x8, addend: 0x0, symName: ___llvm_profile_get_padding_sizes_for_counters, symObjAddr: 0x3DC, symBinAddr: 0x10000A510, symSize: 0x15C }
  - { offset: 0x14809, size: 0x8, addend: 0x0, symName: _initBufferWriter, symObjAddr: 0x538, symBinAddr: 0x10000A66C, symSize: 0x10 }
  - { offset: 0x1495D, size: 0x8, addend: 0x0, symName: _initBufferWriter, symObjAddr: 0x538, symBinAddr: 0x10000A66C, symSize: 0x10 }
  - { offset: 0x14AC7, size: 0x8, addend: 0x0, symName: __MergedGlobals, symObjAddr: 0xA4F0, symBinAddr: 0x10006D3C8, symSize: 0x0 }
  - { offset: 0x14BE3, size: 0x8, addend: 0x0, symName: __MergedGlobals, symObjAddr: 0xA4F0, symBinAddr: 0x10006D3C8, symSize: 0x0 }
  - { offset: 0x14E13, size: 0x8, addend: 0x0, symName: __MergedGlobals, symObjAddr: 0xA4F0, symBinAddr: 0x10006D3C8, symSize: 0x0 }
  - { offset: 0x14F38, size: 0x8, addend: 0x0, symName: _getCurFilenameLength, symObjAddr: 0x1C8, symBinAddr: 0x10000A67C, symSize: 0x108 }
  - { offset: 0x14F40, size: 0x8, addend: 0x0, symName: _getCurFilename, symObjAddr: 0x2D0, symBinAddr: 0x10000A784, symSize: 0x2B8 }
  - { offset: 0x14FC0, size: 0x8, addend: 0x0, symName: _getCurFilename, symObjAddr: 0x2D0, symBinAddr: 0x10000A784, symSize: 0x2B8 }
  - { offset: 0x151E6, size: 0x8, addend: 0x0, symName: _parseAndSetFilename, symObjAddr: 0x688, symBinAddr: 0x10000AA3C, symSize: 0x4B8 }
  - { offset: 0x151EE, size: 0x8, addend: 0x0, symName: ___llvm_profile_initialize, symObjAddr: 0xB40, symBinAddr: 0x10000AEF4, symSize: 0xB8 }
  - { offset: 0x153D4, size: 0x8, addend: 0x0, symName: ___llvm_profile_initialize, symObjAddr: 0xB40, symBinAddr: 0x10000AEF4, symSize: 0xB8 }
  - { offset: 0x15450, size: 0x8, addend: 0x0, symName: ___llvm_profile_write_file, symObjAddr: 0xC74, symBinAddr: 0x10000AFAC, symSize: 0x1B4 }
  - { offset: 0x15458, size: 0x8, addend: 0x0, symName: _writeFile, symObjAddr: 0xE28, symBinAddr: 0x10000B160, symSize: 0x294 }
  - { offset: 0x155A9, size: 0x8, addend: 0x0, symName: _writeFile, symObjAddr: 0xE28, symBinAddr: 0x10000B160, symSize: 0x294 }
  - { offset: 0x1571B, size: 0x8, addend: 0x0, symName: _writeFileWithoutReturn, symObjAddr: 0x138C, symBinAddr: 0x10000B3F4, symSize: 0x4 }
  - { offset: 0x15750, size: 0x8, addend: 0x0, symName: _getProfileFileSizeForMerging, symObjAddr: 0x1574, symBinAddr: 0x10000B3F8, symSize: 0x110 }
  - { offset: 0x15758, size: 0x8, addend: 0x0, symName: _mmapProfileForMerging, symObjAddr: 0x1684, symBinAddr: 0x10000B508, symSize: 0xBC }
  - { offset: 0x15794, size: 0x8, addend: 0x0, symName: _mmapProfileForMerging, symObjAddr: 0x1684, symBinAddr: 0x10000B508, symSize: 0xBC }
  - { offset: 0x1579C, size: 0x8, addend: 0x0, symName: _mmapForContinuousMode, symObjAddr: 0x1740, symBinAddr: 0x10000B5C4, symSize: 0x264 }
  - { offset: 0x157EA, size: 0x8, addend: 0x0, symName: _mmapForContinuousMode, symObjAddr: 0x1740, symBinAddr: 0x10000B5C4, symSize: 0x264 }
  - { offset: 0x157F2, size: 0x8, addend: 0x0, symName: _fileWriter, symObjAddr: 0x19A4, symBinAddr: 0x10000B828, symSize: 0x140 }
  - { offset: 0x159B0, size: 0x8, addend: 0x0, symName: _fileWriter, symObjAddr: 0x19A4, symBinAddr: 0x10000B828, symSize: 0x140 }
  - { offset: 0x159B8, size: 0x8, addend: 0x0, symName: _truncateCurrentFile, symObjAddr: 0x1AE4, symBinAddr: 0x10000B968, symSize: 0xD8 }
  - { offset: 0x15A7C, size: 0x8, addend: 0x0, symName: _truncateCurrentFile, symObjAddr: 0x1AE4, symBinAddr: 0x10000B968, symSize: 0xD8 }
  - { offset: 0x15A84, size: 0x8, addend: 0x0, symName: _initializeProfileForContinuousMode, symObjAddr: 0x1BBC, symBinAddr: 0x10000BA40, symSize: 0x25C }
  - { offset: 0x15B1D, size: 0x8, addend: 0x0, symName: _initializeProfileForContinuousMode, symObjAddr: 0x1BBC, symBinAddr: 0x10000BA40, symSize: 0x25C }
  - { offset: 0x15B25, size: 0x8, addend: 0x0, symName: _createProfileDir, symObjAddr: 0x1E18, symBinAddr: 0x10000BC9C, symSize: 0xA4 }
  - { offset: 0x15CE9, size: 0x8, addend: 0x0, symName: _createProfileDir, symObjAddr: 0x1E18, symBinAddr: 0x10000BC9C, symSize: 0xA4 }
  - { offset: 0x15CF1, size: 0x8, addend: 0x0, symName: _parseAndSetFilename.cold.1, symObjAddr: 0x1EBC, symBinAddr: 0x10004BF14, symSize: 0x24 }
  - { offset: 0x15D4C, size: 0x8, addend: 0x0, symName: _parseAndSetFilename.cold.1, symObjAddr: 0x1EBC, symBinAddr: 0x10004BF14, symSize: 0x24 }
  - { offset: 0x15D54, size: 0x8, addend: 0x0, symName: _parseAndSetFilename.cold.2, symObjAddr: 0x1EE0, symBinAddr: 0x10004BF38, symSize: 0x24 }
  - { offset: 0x15D76, size: 0x8, addend: 0x0, symName: _parseAndSetFilename.cold.2, symObjAddr: 0x1EE0, symBinAddr: 0x10004BF38, symSize: 0x24 }
  - { offset: 0x15D90, size: 0x8, addend: 0x0, symName: _parseAndSetFilename.cold.2, symObjAddr: 0x1EE0, symBinAddr: 0x10004BF38, symSize: 0x24 }
  - { offset: 0x15DA0, size: 0x8, addend: 0x0, symName: _parseAndSetFilename.cold.2, symObjAddr: 0x1EE0, symBinAddr: 0x10004BF38, symSize: 0x24 }
  - { offset: 0x15F05, size: 0x8, addend: 0x0, symName: _lprofProfileDumped, symObjAddr: 0x0, symBinAddr: 0x10000BD40, symSize: 0xC }
  - { offset: 0x15F22, size: 0x8, addend: 0x0, symName: _ProfileDumped, symObjAddr: 0x4E0, symBinAddr: 0x10006D498, symSize: 0x0 }
  - { offset: 0x15F32, size: 0x8, addend: 0x0, symName: _lprofProfileDumped, symObjAddr: 0x0, symBinAddr: 0x10000BD40, symSize: 0xC }
  - { offset: 0x15F7A, size: 0x8, addend: 0x0, symName: _lprofGetLoadModuleSignature, symObjAddr: 0x0, symBinAddr: 0x10000BD4C, symSize: 0xD0 }
  - { offset: 0x15FA7, size: 0x8, addend: 0x0, symName: _VPMergeHook, symBinAddr: 0x10006D3B0, symSize: 0x0 }
  - { offset: 0x1620B, size: 0x8, addend: 0x0, symName: _lprofGetLoadModuleSignature, symObjAddr: 0x0, symBinAddr: 0x10000BD4C, symSize: 0xD0 }
  - { offset: 0x16213, size: 0x8, addend: 0x0, symName: ___llvm_profile_check_compatibility, symObjAddr: 0xD0, symBinAddr: 0x10000BE1C, symSize: 0x1CC }
  - { offset: 0x16282, size: 0x8, addend: 0x0, symName: ___llvm_profile_check_compatibility, symObjAddr: 0xD0, symBinAddr: 0x10000BE1C, symSize: 0x1CC }
  - { offset: 0x1628A, size: 0x8, addend: 0x0, symName: ___llvm_profile_merge_from_buffer, symObjAddr: 0x29C, symBinAddr: 0x10000BFE8, symSize: 0x48C }
  - { offset: 0x16362, size: 0x8, addend: 0x0, symName: ___llvm_profile_merge_from_buffer, symObjAddr: 0x29C, symBinAddr: 0x10000BFE8, symSize: 0x48C }
  - { offset: 0x165C9, size: 0x8, addend: 0x0, symName: _lprofMergeValueProfData, symObjAddr: 0x0, symBinAddr: 0x10000C474, symSize: 0xF0 }
  - { offset: 0x165DA, size: 0x8, addend: 0x0, symName: _lprofMergeValueProfData, symObjAddr: 0x0, symBinAddr: 0x10000C474, symSize: 0xF0 }
  - { offset: 0x168A5, size: 0x8, addend: 0x0, symName: ___llvm_profile_begin_data, symObjAddr: 0x0, symBinAddr: 0x10000C564, symSize: 0xC }
  - { offset: 0x168C4, size: 0x8, addend: 0x0, symName: _CurrentVNode, symObjAddr: 0xC0, symBinAddr: 0x10006C838, symSize: 0x0 }
  - { offset: 0x16940, size: 0x8, addend: 0x0, symName: _EndVNode, symObjAddr: 0xC8, symBinAddr: 0x10006C840, symSize: 0x0 }
  - { offset: 0x16949, size: 0x8, addend: 0x0, symName: ___llvm_profile_begin_data, symObjAddr: 0x0, symBinAddr: 0x10000C564, symSize: 0xC }
  - { offset: 0x16951, size: 0x8, addend: 0x0, symName: ___llvm_profile_end_data, symObjAddr: 0xC, symBinAddr: 0x10000C570, symSize: 0xC }
  - { offset: 0x1696A, size: 0x8, addend: 0x0, symName: ___llvm_profile_end_data, symObjAddr: 0xC, symBinAddr: 0x10000C570, symSize: 0xC }
  - { offset: 0x16972, size: 0x8, addend: 0x0, symName: ___llvm_profile_begin_names, symObjAddr: 0x18, symBinAddr: 0x10000C57C, symSize: 0xC }
  - { offset: 0x1698B, size: 0x8, addend: 0x0, symName: ___llvm_profile_begin_names, symObjAddr: 0x18, symBinAddr: 0x10000C57C, symSize: 0xC }
  - { offset: 0x16993, size: 0x8, addend: 0x0, symName: ___llvm_profile_end_names, symObjAddr: 0x24, symBinAddr: 0x10000C588, symSize: 0xC }
  - { offset: 0x169AC, size: 0x8, addend: 0x0, symName: ___llvm_profile_end_names, symObjAddr: 0x24, symBinAddr: 0x10000C588, symSize: 0xC }
  - { offset: 0x169B4, size: 0x8, addend: 0x0, symName: ___llvm_profile_begin_counters, symObjAddr: 0x30, symBinAddr: 0x10000C594, symSize: 0xC }
  - { offset: 0x169CD, size: 0x8, addend: 0x0, symName: ___llvm_profile_begin_counters, symObjAddr: 0x30, symBinAddr: 0x10000C594, symSize: 0xC }
  - { offset: 0x169D5, size: 0x8, addend: 0x0, symName: ___llvm_profile_end_counters, symObjAddr: 0x3C, symBinAddr: 0x10000C5A0, symSize: 0xC }
  - { offset: 0x169EE, size: 0x8, addend: 0x0, symName: ___llvm_profile_end_counters, symObjAddr: 0x3C, symBinAddr: 0x10000C5A0, symSize: 0xC }
  - { offset: 0x169F6, size: 0x8, addend: 0x0, symName: ___llvm_profile_begin_bitmap, symObjAddr: 0x48, symBinAddr: 0x10000C5AC, symSize: 0xC }
  - { offset: 0x16A0F, size: 0x8, addend: 0x0, symName: ___llvm_profile_begin_bitmap, symObjAddr: 0x48, symBinAddr: 0x10000C5AC, symSize: 0xC }
  - { offset: 0x16A17, size: 0x8, addend: 0x0, symName: ___llvm_profile_end_bitmap, symObjAddr: 0x54, symBinAddr: 0x10000C5B8, symSize: 0xC }
  - { offset: 0x16A30, size: 0x8, addend: 0x0, symName: ___llvm_profile_end_bitmap, symObjAddr: 0x54, symBinAddr: 0x10000C5B8, symSize: 0xC }
  - { offset: 0x16A38, size: 0x8, addend: 0x0, symName: ___llvm_profile_begin_vtables, symObjAddr: 0x60, symBinAddr: 0x10000C5C4, symSize: 0xC }
  - { offset: 0x16A52, size: 0x8, addend: 0x0, symName: ___llvm_profile_begin_vtables, symObjAddr: 0x60, symBinAddr: 0x10000C5C4, symSize: 0xC }
  - { offset: 0x16A5A, size: 0x8, addend: 0x0, symName: ___llvm_profile_end_vtables, symObjAddr: 0x6C, symBinAddr: 0x10000C5D0, symSize: 0xC }
  - { offset: 0x16A73, size: 0x8, addend: 0x0, symName: ___llvm_profile_end_vtables, symObjAddr: 0x6C, symBinAddr: 0x10000C5D0, symSize: 0xC }
  - { offset: 0x16A7B, size: 0x8, addend: 0x0, symName: ___llvm_profile_begin_vtabnames, symObjAddr: 0x78, symBinAddr: 0x10000C5DC, symSize: 0xC }
  - { offset: 0x16A93, size: 0x8, addend: 0x0, symName: ___llvm_profile_begin_vtabnames, symObjAddr: 0x78, symBinAddr: 0x10000C5DC, symSize: 0xC }
  - { offset: 0x16A9B, size: 0x8, addend: 0x0, symName: ___llvm_profile_end_vtabnames, symObjAddr: 0x84, symBinAddr: 0x10000C5E8, symSize: 0xC }
  - { offset: 0x16AB4, size: 0x8, addend: 0x0, symName: ___llvm_profile_end_vtabnames, symObjAddr: 0x84, symBinAddr: 0x10000C5E8, symSize: 0xC }
  - { offset: 0x16AD6, size: 0x8, addend: 0x0, symName: ___llvm_profile_begin_vnodes, symObjAddr: 0x9C, symBinAddr: 0x10000C5F4, symSize: 0xC }
  - { offset: 0x16ADE, size: 0x8, addend: 0x0, symName: ___llvm_profile_end_vnodes, symObjAddr: 0xA8, symBinAddr: 0x10000C600, symSize: 0xC }
  - { offset: 0x16AF7, size: 0x8, addend: 0x0, symName: ___llvm_profile_end_vnodes, symObjAddr: 0xA8, symBinAddr: 0x10000C600, symSize: 0xC }
  - { offset: 0x16AFF, size: 0x8, addend: 0x0, symName: ___llvm_write_binary_ids, symObjAddr: 0xB4, symBinAddr: 0x10000C60C, symSize: 0x8 }
  - { offset: 0x16B17, size: 0x8, addend: 0x0, symName: ___llvm_write_binary_ids, symObjAddr: 0xB4, symBinAddr: 0x10000C60C, symSize: 0x8 }
  - { offset: 0x16D9D, size: 0x8, addend: 0x0, symName: __GLOBAL__sub_I_InstrProfilingRuntime.cpp, symObjAddr: 0x0, symBinAddr: 0x10000C614, symSize: 0x18 }
  - { offset: 0x16DC0, size: 0x8, addend: 0x0, symName: ___llvm_profile_runtime, symObjAddr: 0x590, symBinAddr: 0x10006D34C, symSize: 0x0 }
  - { offset: 0x16DF0, size: 0x8, addend: 0x0, symName: __GLOBAL__sub_I_InstrProfilingRuntime.cpp, symObjAddr: 0x0, symBinAddr: 0x10000C614, symSize: 0x18 }
  - { offset: 0x16E6C, size: 0x8, addend: 0x0, symName: ___llvm_profile_recursive_mkdir, symObjAddr: 0x0, symBinAddr: 0x10000C62C, symSize: 0x58 }
  - { offset: 0x16E74, size: 0x8, addend: 0x0, symName: _lprofDirMode, symObjAddr: 0x5A8, symBinAddr: 0x10006C848, symSize: 0x0 }
  - { offset: 0x16E8B, size: 0x8, addend: 0x0, symName: _lprofDirMode, symObjAddr: 0x5A8, symBinAddr: 0x10006C848, symSize: 0x0 }
  - { offset: 0x16EC0, size: 0x8, addend: 0x0, symName: ___llvm_profile_recursive_mkdir, symObjAddr: 0x0, symBinAddr: 0x10000C62C, symSize: 0x58 }
  - { offset: 0x16F3F, size: 0x8, addend: 0x0, symName: _lprofGetHostName, symObjAddr: 0x70, symBinAddr: 0x10000C684, symSize: 0x80 }
  - { offset: 0x17074, size: 0x8, addend: 0x0, symName: _lprofLockFileHandle, symObjAddr: 0x208, symBinAddr: 0x10000C704, symSize: 0x90 }
  - { offset: 0x1707C, size: 0x8, addend: 0x0, symName: _lprofUnlockFileHandle, symObjAddr: 0x298, symBinAddr: 0x10000C794, symSize: 0x90 }
  - { offset: 0x17102, size: 0x8, addend: 0x0, symName: _lprofUnlockFileHandle, symObjAddr: 0x298, symBinAddr: 0x10000C794, symSize: 0x90 }
  - { offset: 0x1710A, size: 0x8, addend: 0x0, symName: _lprofOpenFileEx, symObjAddr: 0x328, symBinAddr: 0x10000C824, symSize: 0xD0 }
  - { offset: 0x1716A, size: 0x8, addend: 0x0, symName: _lprofOpenFileEx, symObjAddr: 0x328, symBinAddr: 0x10000C824, symSize: 0xD0 }
  - { offset: 0x171E2, size: 0x8, addend: 0x0, symName: _lprofFindFirstDirSeparator, symObjAddr: 0x538, symBinAddr: 0x10000C8F4, symSize: 0x8 }
  - { offset: 0x17222, size: 0x8, addend: 0x0, symName: _lprofSuspendSigKill, symObjAddr: 0x548, symBinAddr: 0x10000C8FC, symSize: 0x8 }
  - { offset: 0x1722A, size: 0x8, addend: 0x0, symName: _lprofRestoreSigKill, symObjAddr: 0x550, symBinAddr: 0x10000C904, symSize: 0x4 }
  - { offset: 0x17244, size: 0x8, addend: 0x0, symName: _lprofRestoreSigKill, symObjAddr: 0x550, symBinAddr: 0x10000C904, symSize: 0x4 }
  - { offset: 0x174EE, size: 0x8, addend: 0x0, symName: _getValueProfRecordHeaderSize, symObjAddr: 0x0, symBinAddr: 0x10000C908, symSize: 0xC }
  - { offset: 0x1750D, size: 0x8, addend: 0x0, symName: _VPMaxNumValsPerSite, symObjAddr: 0x1740, symBinAddr: 0x10006C850, symSize: 0x0 }
  - { offset: 0x175A2, size: 0x8, addend: 0x0, symName: __MergedGlobals, symObjAddr: 0xEF68, symBinAddr: 0x10006D4C8, symSize: 0x0 }
  - { offset: 0x175C9, size: 0x8, addend: 0x0, symName: __MergedGlobals, symObjAddr: 0xEF68, symBinAddr: 0x10006D4C8, symSize: 0x0 }
  - { offset: 0x175E0, size: 0x8, addend: 0x0, symName: __MergedGlobals, symObjAddr: 0xEF68, symBinAddr: 0x10006D4C8, symSize: 0x0 }
  - { offset: 0x175FF, size: 0x8, addend: 0x0, symName: _TheVPDataReader, symObjAddr: 0x1748, symBinAddr: 0x10006C858, symSize: 0x0 }
  - { offset: 0x1789F, size: 0x8, addend: 0x0, symName: _RTRecord, symObjAddr: 0xEF40, symBinAddr: 0x10006D4A0, symSize: 0x0 }
  - { offset: 0x17A93, size: 0x8, addend: 0x0, symName: _getValueProfRecordHeaderSize, symObjAddr: 0x0, symBinAddr: 0x10000C908, symSize: 0xC }
  - { offset: 0x17AE9, size: 0x8, addend: 0x0, symName: _getValueProfRecordValueData, symObjAddr: 0x1C, symBinAddr: 0x10000C914, symSize: 0x14 }
  - { offset: 0x17B97, size: 0x8, addend: 0x0, symName: _getValueProfRecordNext, symObjAddr: 0x1B4, symBinAddr: 0x10000C928, symSize: 0x1A4 }
  - { offset: 0x17B9F, size: 0x8, addend: 0x0, symName: _getFirstValueProfRecord, symObjAddr: 0x358, symBinAddr: 0x10000CACC, symSize: 0x8 }
  - { offset: 0x17C06, size: 0x8, addend: 0x0, symName: _getFirstValueProfRecord, symObjAddr: 0x358, symBinAddr: 0x10000CACC, symSize: 0x8 }
  - { offset: 0x17CE9, size: 0x8, addend: 0x0, symName: _lprofSetupValueProfiler, symObjAddr: 0xB38, symBinAddr: 0x10000CAD4, symSize: 0x64 }
  - { offset: 0x17DFA, size: 0x8, addend: 0x0, symName: ___llvm_profile_instrument_target_value, symObjAddr: 0xE30, symBinAddr: 0x10000CB38, symSize: 0x290 }
  - { offset: 0x17F18, size: 0x8, addend: 0x0, symName: _lprofGetVPDataReader, symObjAddr: 0x1108, symBinAddr: 0x10000CDC8, symSize: 0xC }
  - { offset: 0x17F20, size: 0x8, addend: 0x0, symName: _initializeValueProfRuntimeRecord, symObjAddr: 0x1114, symBinAddr: 0x10000CDD4, symSize: 0x210 }
  - { offset: 0x17F39, size: 0x8, addend: 0x0, symName: _initializeValueProfRuntimeRecord, symObjAddr: 0x1114, symBinAddr: 0x10000CDD4, symSize: 0x210 }
  - { offset: 0x17F41, size: 0x8, addend: 0x0, symName: _getNumValueDataForSiteWrapper, symObjAddr: 0x1324, symBinAddr: 0x10000CFE4, symSize: 0x14 }
  - { offset: 0x18053, size: 0x8, addend: 0x0, symName: _getNumValueDataForSiteWrapper, symObjAddr: 0x1324, symBinAddr: 0x10000CFE4, symSize: 0x14 }
  - { offset: 0x1805B, size: 0x8, addend: 0x0, symName: _getValueProfDataSizeWrapper, symObjAddr: 0x1338, symBinAddr: 0x10000CFF8, symSize: 0xDC }
  - { offset: 0x18099, size: 0x8, addend: 0x0, symName: _getNumValueDataForSiteWrapper, symObjAddr: 0x1324, symBinAddr: 0x10000CFE4, symSize: 0x14 }
  - { offset: 0x180BE, size: 0x8, addend: 0x0, symName: _getValueProfDataSizeWrapper, symObjAddr: 0x1338, symBinAddr: 0x10000CFF8, symSize: 0xDC }
  - { offset: 0x180C6, size: 0x8, addend: 0x0, symName: _getNextNValueData, symObjAddr: 0x1414, symBinAddr: 0x10000D0D4, symSize: 0x44 }
  - { offset: 0x1815C, size: 0x8, addend: 0x0, symName: _getNextNValueData, symObjAddr: 0x1414, symBinAddr: 0x10000D0D4, symSize: 0x44 }
  - { offset: 0x18164, size: 0x8, addend: 0x0, symName: _getNumValueSitesRT, symObjAddr: 0x1458, symBinAddr: 0x10000D118, symSize: 0x10 }
  - { offset: 0x181EF, size: 0x8, addend: 0x0, symName: _getNumValueSitesRT, symObjAddr: 0x1458, symBinAddr: 0x10000D118, symSize: 0x10 }
  - { offset: 0x181F7, size: 0x8, addend: 0x0, symName: _getNumValueDataRT, symObjAddr: 0x1468, symBinAddr: 0x10000D128, symSize: 0x190 }
  - { offset: 0x18231, size: 0x8, addend: 0x0, symName: _getNumValueDataRT, symObjAddr: 0x1468, symBinAddr: 0x10000D128, symSize: 0x190 }
  - { offset: 0x182A4, size: 0x8, addend: 0x0, symName: ___llvm_profile_instrument_target_value.cold.1, symObjAddr: 0x161C, symBinAddr: 0x10004BF5C, symSize: 0x24 }
  - { offset: 0x18334, size: 0x8, addend: 0x0, symName: ___llvm_profile_raw_version, symObjAddr: 0x0, symBinAddr: 0x10006C888, symSize: 0x0 }
  - { offset: 0x18376, size: 0x8, addend: 0x0, symName: _lprofBufferWriter, symObjAddr: 0x0, symBinAddr: 0x10000D2B8, symSize: 0x6C }
  - { offset: 0x18395, size: 0x8, addend: 0x0, symName: _FreeHook, symObjAddr: 0x4F30, symBinAddr: 0x10006D350, symSize: 0x0 }
  - { offset: 0x183BB, size: 0x8, addend: 0x0, symName: _DynamicBufferIOBuffer, symObjAddr: 0x4F38, symBinAddr: 0x10006D358, symSize: 0x0 }
  - { offset: 0x183E9, size: 0x8, addend: 0x0, symName: _VPBufferSize, symObjAddr: 0x4F40, symBinAddr: 0x10006D360, symSize: 0x0 }
  - { offset: 0x18410, size: 0x8, addend: 0x0, symName: __MergedGlobals, symObjAddr: 0x6F48, symBinAddr: 0x10006F4D8, symSize: 0x0 }
  - { offset: 0x1855A, size: 0x8, addend: 0x0, symName: _BufferIOBuffer, symObjAddr: 0x4F48, symBinAddr: 0x10006D4D8, symSize: 0x0 }
  - { offset: 0x18584, size: 0x8, addend: 0x0, symName: __MergedGlobals, symObjAddr: 0x6F48, symBinAddr: 0x10006F4D8, symSize: 0x0 }
  - { offset: 0x18600, size: 0x8, addend: 0x0, symName: _lprofBufferWriter, symObjAddr: 0x0, symBinAddr: 0x10000D2B8, symSize: 0x6C }
  - { offset: 0x18718, size: 0x8, addend: 0x0, symName: _lprofBufferIOWrite, symObjAddr: 0x100, symBinAddr: 0x10000D324, symSize: 0x134 }
  - { offset: 0x18819, size: 0x8, addend: 0x0, symName: _lprofWriteData, symObjAddr: 0x2F4, symBinAddr: 0x10000D458, symSize: 0xD4 }
  - { offset: 0x18821, size: 0x8, addend: 0x0, symName: _lprofWriteDataImpl, symObjAddr: 0x3C8, symBinAddr: 0x10000D52C, symSize: 0x46C }
  - { offset: 0x18C46, size: 0x8, addend: 0x0, symName: _lprofWriteDataImpl, symObjAddr: 0x3C8, symBinAddr: 0x10000D52C, symSize: 0x46C }
  - { offset: 0x18F61, size: 0x8, addend: 0x0, symName: _writeOneValueProfData, symObjAddr: 0x8C0, symBinAddr: 0x10000D998, symSize: 0x4A8 }
  - { offset: 0x19226, size: 0x8, addend: 0x0, symName: '__ZN108_$LT$alloc..collections..btree..map..Iter$LT$K$C$V$GT$$u20$as$u20$core..iter..traits..iterator..Iterator$GT$4next17h45e1d25cf43a5166E', symObjAddr: 0x0, symBinAddr: 0x10000DE40, symSize: 0x13C }
  - { offset: 0x196E1, size: 0x8, addend: 0x0, symName: '__ZN5alloc11collections5btree4node208Handle$LT$alloc..collections..btree..node..NodeRef$LT$alloc..collections..btree..node..marker..Mut$C$K$C$V$C$alloc..collections..btree..node..marker..Leaf$GT$$C$alloc..collections..btree..node..marker..KV$GT$5split17ha102f583f1ae45bdE', symObjAddr: 0xF314, symBinAddr: 0x10001B58C, symSize: 0x1C8 }
  - { offset: 0x19B9F, size: 0x8, addend: 0x0, symName: '__ZN5alloc11collections5btree4node208Handle$LT$alloc..collections..btree..node..NodeRef$LT$alloc..collections..btree..node..marker..Mut$C$K$C$V$C$alloc..collections..btree..node..marker..Leaf$GT$$C$alloc..collections..btree..node..marker..KV$GT$5split17hfeea9ff1f0b801fcE', symObjAddr: 0xF4DC, symBinAddr: 0x10001B754, symSize: 0x1D4 }
  - { offset: 0x1A086, size: 0x8, addend: 0x0, symName: '__ZN5alloc11collections5btree4node212Handle$LT$alloc..collections..btree..node..NodeRef$LT$alloc..collections..btree..node..marker..Mut$C$K$C$V$C$alloc..collections..btree..node..marker..Internal$GT$$C$alloc..collections..btree..node..marker..KV$GT$5split17hcee9728a3087cc98E', symObjAddr: 0xF6B0, symBinAddr: 0x10001B928, symSize: 0x2A0 }
  - { offset: 0x1A790, size: 0x8, addend: 0x0, symName: '__ZN5alloc11collections5btree4node212Handle$LT$alloc..collections..btree..node..NodeRef$LT$alloc..collections..btree..node..marker..Mut$C$K$C$V$C$alloc..collections..btree..node..marker..Internal$GT$$C$alloc..collections..btree..node..marker..KV$GT$5split17he1631b8e3d135de0E', symObjAddr: 0xF950, symBinAddr: 0x10001BBC8, symSize: 0x294 }
  - { offset: 0x1AEA9, size: 0x8, addend: 0x0, symName: '__ZN5alloc11collections5btree6remove259_$LT$impl$u20$alloc..collections..btree..node..Handle$LT$alloc..collections..btree..node..NodeRef$LT$alloc..collections..btree..node..marker..Mut$C$K$C$V$C$alloc..collections..btree..node..marker..Leaf$GT$$C$alloc..collections..btree..node..marker..KV$GT$$GT$14remove_leaf_kv17h25a14ca49e56f3c4E', symObjAddr: 0x10368, symBinAddr: 0x10001C5E0, symSize: 0x59C }
  - { offset: 0x1BB7B, size: 0x8, addend: 0x0, symName: '__ZN5alloc11collections5btree6remove259_$LT$impl$u20$alloc..collections..btree..node..Handle$LT$alloc..collections..btree..node..NodeRef$LT$alloc..collections..btree..node..marker..Mut$C$K$C$V$C$alloc..collections..btree..node..marker..Leaf$GT$$C$alloc..collections..btree..node..marker..KV$GT$$GT$14remove_leaf_kv17h6b3fb6c543c3f14fE', symObjAddr: 0x10904, symBinAddr: 0x10001CB7C, symSize: 0x59C }
  - { offset: 0x1D6C1, size: 0x8, addend: 0x0, symName: '__ZN5alloc11collections5btree4node29BalancingContext$LT$K$C$V$GT$15bulk_steal_left17h116648e9c1058487E', symObjAddr: 0xFBE4, symBinAddr: 0x10001BE5C, symSize: 0x284 }
  - { offset: 0x1DD16, size: 0x8, addend: 0x0, symName: '__ZN5alloc11collections5btree4node29BalancingContext$LT$K$C$V$GT$16bulk_steal_right17h7dc2c295fb017210E', symObjAddr: 0xFE68, symBinAddr: 0x10001C0E0, symSize: 0x2A8 }
  - { offset: 0x1E44C, size: 0x8, addend: 0x0, symName: '__ZN5alloc11collections5btree4node29BalancingContext$LT$K$C$V$GT$8do_merge17h5a11588cadfa6da9E', symObjAddr: 0x10110, symBinAddr: 0x10001C388, symSize: 0x258 }
  - { offset: 0x1EC2B, size: 0x8, addend: 0x0, symName: '__ZN108_$LT$alloc..collections..btree..map..Iter$LT$K$C$V$GT$$u20$as$u20$core..iter..traits..iterator..Iterator$GT$4next17h45e1d25cf43a5166E', symObjAddr: 0x0, symBinAddr: 0x10000DE40, symSize: 0x13C }
  - { offset: 0x1EFBE, size: 0x8, addend: 0x0, symName: '__ZN5alloc11collections5btree3map25BTreeMap$LT$K$C$V$C$A$GT$6insert17h4e30f42673c48afbE', symObjAddr: 0xD8AC, symBinAddr: 0x100019B24, symSize: 0x9E0 }
  - { offset: 0x207C2, size: 0x8, addend: 0x0, symName: '__ZN5alloc11collections5btree3map25BTreeMap$LT$K$C$V$C$A$GT$6insert17h64d1db4293d3c082E', symObjAddr: 0xE28C, symBinAddr: 0x10001A504, symSize: 0xA1C }
  - { offset: 0x2213D, size: 0x8, addend: 0x0, symName: '__ZN5alloc11collections5btree3map25IntoIter$LT$K$C$V$C$A$GT$10dying_next17h1d88f957430bad1dE', symObjAddr: 0xECA8, symBinAddr: 0x10001AF20, symSize: 0x224 }
  - { offset: 0x2252C, size: 0x8, addend: 0x0, symName: '__ZN5alloc11collections5btree3map25IntoIter$LT$K$C$V$C$A$GT$10dying_next17h50da07c4ee930b47E', symObjAddr: 0xEECC, symBinAddr: 0x10001B144, symSize: 0x224 }
  - { offset: 0x2291B, size: 0x8, addend: 0x0, symName: '__ZN5alloc11collections5btree3map25IntoIter$LT$K$C$V$C$A$GT$10dying_next17hfaa5a005d7e39d8eE', symObjAddr: 0xF0F0, symBinAddr: 0x10001B368, symSize: 0x224 }
  - { offset: 0x23879, size: 0x8, addend: 0x0, symName: '__ZN5alloc7raw_vec19RawVec$LT$T$C$A$GT$8grow_one17h095dc4f4c91ff6b9E', symObjAddr: 0x114B8, symBinAddr: 0x10001D504, symSize: 0xD0 }
  - { offset: 0x239CF, size: 0x8, addend: 0x0, symName: '__ZN5alloc7raw_vec19RawVec$LT$T$C$A$GT$8grow_one17h3a19a4ab2b92359dE', symObjAddr: 0x11658, symBinAddr: 0x10001D5D4, symSize: 0xC0 }
  - { offset: 0x23B25, size: 0x8, addend: 0x0, symName: '__ZN5alloc7raw_vec19RawVec$LT$T$C$A$GT$8grow_one17h40071feec6bbd372E', symObjAddr: 0x11718, symBinAddr: 0x10001D694, symSize: 0xD0 }
  - { offset: 0x23C7B, size: 0x8, addend: 0x0, symName: '__ZN5alloc7raw_vec19RawVec$LT$T$C$A$GT$8grow_one17h4a39c02819ac1667E', symObjAddr: 0x117E8, symBinAddr: 0x10001D764, symSize: 0xD0 }
  - { offset: 0x23DD1, size: 0x8, addend: 0x0, symName: '__ZN5alloc7raw_vec19RawVec$LT$T$C$A$GT$8grow_one17h4a92fc1fe476e477E', symObjAddr: 0x118B8, symBinAddr: 0x10001D834, symSize: 0xC0 }
  - { offset: 0x23F27, size: 0x8, addend: 0x0, symName: '__ZN5alloc7raw_vec19RawVec$LT$T$C$A$GT$8grow_one17h4fe34a41a9b5eb13E', symObjAddr: 0x11978, symBinAddr: 0x10001D8F4, symSize: 0xC0 }
  - { offset: 0x2407D, size: 0x8, addend: 0x0, symName: '__ZN5alloc7raw_vec19RawVec$LT$T$C$A$GT$8grow_one17h51ebdaf7922ccb0fE', symObjAddr: 0x11A38, symBinAddr: 0x10001D9B4, symSize: 0xD0 }
  - { offset: 0x241D3, size: 0x8, addend: 0x0, symName: '__ZN5alloc7raw_vec19RawVec$LT$T$C$A$GT$8grow_one17h5fa1addd75b9c473E', symObjAddr: 0x11B08, symBinAddr: 0x10001DA84, symSize: 0xC0 }
  - { offset: 0x24329, size: 0x8, addend: 0x0, symName: '__ZN5alloc7raw_vec19RawVec$LT$T$C$A$GT$8grow_one17h86dfd012ac0923eeE', symObjAddr: 0x11BC8, symBinAddr: 0x10001DB44, symSize: 0xCC }
  - { offset: 0x2447F, size: 0x8, addend: 0x0, symName: '__ZN5alloc7raw_vec19RawVec$LT$T$C$A$GT$8grow_one17h94e52b7d38af74feE', symObjAddr: 0x11C94, symBinAddr: 0x10001DC10, symSize: 0xCC }
  - { offset: 0x245D5, size: 0x8, addend: 0x0, symName: '__ZN5alloc7raw_vec19RawVec$LT$T$C$A$GT$8grow_one17hbaffb1ea2421dae5E', symObjAddr: 0x11D60, symBinAddr: 0x10001DCDC, symSize: 0xCC }
  - { offset: 0x24E98, size: 0x8, addend: 0x0, symName: __ZN5alloc7raw_vec11finish_grow17hd37f20dcfa74548bE, symObjAddr: 0x11430, symBinAddr: 0x10004C12C, symSize: 0x88 }
  - { offset: 0x24F33, size: 0x8, addend: 0x0, symName: '__ZN5alloc7raw_vec20RawVecInner$LT$A$GT$7reserve21do_reserve_and_handle17h59c9ec03f2a10329E', symObjAddr: 0x11E2C, symBinAddr: 0x10004C1B4, symSize: 0xF0 }
  - { offset: 0x26617, size: 0x8, addend: 0x0, symName: '__ZN5alloc4sync16Arc$LT$T$C$A$GT$9drop_slow17h382cff577ce4ab40E', symObjAddr: 0x10FD0, symBinAddr: 0x10001D118, symSize: 0x100 }
  - { offset: 0x26947, size: 0x8, addend: 0x0, symName: '__ZN5alloc4sync16Arc$LT$T$C$A$GT$9drop_slow17h5608352b196d8cb3E', symObjAddr: 0x110D0, symBinAddr: 0x10001D218, symSize: 0xA0 }
  - { offset: 0x26C6B, size: 0x8, addend: 0x0, symName: '__ZN5alloc4sync16Arc$LT$T$C$A$GT$9drop_slow17h5ede859a095ca78aE', symObjAddr: 0x111E4, symBinAddr: 0x10001D2B8, symSize: 0x78 }
  - { offset: 0x26E37, size: 0x8, addend: 0x0, symName: '__ZN5alloc4sync16Arc$LT$T$C$A$GT$9drop_slow17h7cf1d5f987884bcfE', symObjAddr: 0x1125C, symBinAddr: 0x10001D330, symSize: 0xC0 }
  - { offset: 0x2715C, size: 0x8, addend: 0x0, symName: '__ZN5alloc4sync16Arc$LT$T$C$A$GT$9drop_slow17h90e2e762cfbfaa1eE', symObjAddr: 0x1131C, symBinAddr: 0x10001D3F0, symSize: 0x44 }
  - { offset: 0x27239, size: 0x8, addend: 0x0, symName: '__ZN5alloc4sync16Arc$LT$T$C$A$GT$9drop_slow17h9659d3e2cd59fce8E', symObjAddr: 0x11360, symBinAddr: 0x10001D434, symSize: 0xD0 }
  - { offset: 0x277AF, size: 0x8, addend: 0x0, symName: '__ZN64_$LT$alloc..ffi..c_str..NulError$u20$as$u20$core..fmt..Debug$GT$3fmt17h18ce3d950e35fa91E', symObjAddr: 0x18D64, symBinAddr: 0x100024BF0, symSize: 0x4C }
  - { offset: 0x27C88, size: 0x8, addend: 0x0, symName: '__ZN58_$LT$alloc..string..String$u20$as$u20$core..fmt..Debug$GT$3fmt17hdbacb71d50eff926E', symObjAddr: 0xD6B8, symBinAddr: 0x100019930, symSize: 0x1C }
  - { offset: 0x27D43, size: 0x8, addend: 0x0, symName: '__ZN58_$LT$alloc..string..String$u20$as$u20$core..fmt..Write$GT$10write_char17h67c485e816708459E', symObjAddr: 0xD6D4, symBinAddr: 0x10001994C, symSize: 0x158 }
  - { offset: 0x27FA8, size: 0x8, addend: 0x0, symName: '__ZN58_$LT$alloc..string..String$u20$as$u20$core..fmt..Write$GT$9write_str17h4bc2793cacc1d696E', symObjAddr: 0xD82C, symBinAddr: 0x100019AA4, symSize: 0x80 }
  - { offset: 0x28101, size: 0x8, addend: 0x0, symName: '__ZN60_$LT$alloc..string..String$u20$as$u20$core..fmt..Display$GT$3fmt17ha0099383a97e68c2E', symObjAddr: 0x18D48, symBinAddr: 0x100024BD4, symSize: 0x1C }
  - { offset: 0x29A8A, size: 0x8, addend: 0x0, symName: '__ZN4core3ptr107drop_in_place$LT$alloc..vec..Vec$LT$$LP$std..ffi..os_str..OsString$C$std..ffi..os_str..OsString$RP$$GT$$GT$17h6612d33457a8ea03E', symObjAddr: 0x1AE4, symBinAddr: 0x10000EC78, symSize: 0x94 }
  - { offset: 0x29D11, size: 0x8, addend: 0x0, symName: '__ZN4core3ptr107drop_in_place$LT$core..option..Option$LT$std..sys..pal..unix..process..process_common..CStringArray$GT$$GT$17hf3f42dd5b05d3cc1E', symObjAddr: 0x1C04, symBinAddr: 0x10000ED0C, symSize: 0xAC }
  - { offset: 0x29F22, size: 0x8, addend: 0x0, symName: '__ZN4core3ptr107drop_in_place$LT$core..pin..Pin$LT$alloc..boxed..Box$LT$std..sys..pal..unix..sync..mutex..Mutex$GT$$GT$$GT$17hc07c140671e79445E', symObjAddr: 0x1CB0, symBinAddr: 0x10000EDB8, symSize: 0x2C }
  - { offset: 0x2A01B, size: 0x8, addend: 0x0, symName: '__ZN4core3ptr108drop_in_place$LT$alloc..collections..btree..map..BTreeMap$LT$u64$C$gimli..read..abbrev..Abbreviation$GT$$GT$17haa74a0211d9ed923E', symObjAddr: 0x1CDC, symBinAddr: 0x10000EDE4, symSize: 0xB0 }
  - { offset: 0x2A1EE, size: 0x8, addend: 0x0, symName: '__ZN4core3ptr109drop_in_place$LT$alloc..sync..Arc$LT$std..sync..poison..mutex..Mutex$LT$alloc..vec..Vec$LT$u8$GT$$GT$$GT$$GT$17h61b1cac8a1fede90E', symObjAddr: 0x1D8C, symBinAddr: 0x10000EE94, symSize: 0x30 }
  - { offset: 0x2A291, size: 0x8, addend: 0x0, symName: '__ZN4core3ptr112drop_in_place$LT$$LP$std..ffi..os_str..OsString$C$core..option..Option$LT$std..ffi..os_str..OsString$GT$$RP$$GT$17hbefef35d8494728bE', symObjAddr: 0x1DBC, symBinAddr: 0x10000EEC4, symSize: 0x58 }
  - { offset: 0x2A406, size: 0x8, addend: 0x0, symName: '__ZN4core3ptr118drop_in_place$LT$std..io..Write..write_fmt..Adapter$LT$std..io..cursor..Cursor$LT$$RF$mut$u20$$u5b$u8$u5d$$GT$$GT$$GT$17h5c63d0c0bee45058E', symObjAddr: 0x1E54, symBinAddr: 0x10000EF1C, symSize: 0x20 }
  - { offset: 0x2A43E, size: 0x8, addend: 0x0, symName: '__ZN4core3ptr123drop_in_place$LT$addr2line..Context$LT$gimli..read..endian_slice..EndianSlice$LT$gimli..endianity..LittleEndian$GT$$GT$$GT$17hc6d5be859abd218dE', symObjAddr: 0x1E74, symBinAddr: 0x10000EF3C, symSize: 0x70 }
  - { offset: 0x2A513, size: 0x8, addend: 0x0, symName: '__ZN4core3ptr124drop_in_place$LT$alloc..collections..btree..map..BTreeMap$LT$std..ffi..os_str..OsString$C$std..ffi..os_str..OsString$GT$$GT$17hc9840ba1a16bc149E', symObjAddr: 0x1EE4, symBinAddr: 0x10000EFAC, symSize: 0xB8 }
  - { offset: 0x2A746, size: 0x8, addend: 0x0, symName: '__ZN4core3ptr124drop_in_place$LT$alloc..collections..btree..map..IntoIter$LT$std..ffi..os_str..OsString$C$std..ffi..os_str..OsString$GT$$GT$17h1e45a95309140dfeE', symObjAddr: 0x1F9C, symBinAddr: 0x10000F064, symSize: 0x90 }
  - { offset: 0x2A9CD, size: 0x8, addend: 0x0, symName: '__ZN4core3ptr129drop_in_place$LT$addr2line..unit..ResUnit$LT$gimli..read..endian_slice..EndianSlice$LT$gimli..endianity..LittleEndian$GT$$GT$$GT$17h3200663a94d9b140E', symObjAddr: 0x202C, symBinAddr: 0x10000F0F4, symSize: 0xE4 }
  - { offset: 0x2ABEF, size: 0x8, addend: 0x0, symName: '__ZN4core3ptr129drop_in_place$LT$addr2line..unit..SupUnit$LT$gimli..read..endian_slice..EndianSlice$LT$gimli..endianity..LittleEndian$GT$$GT$$GT$17hea048140b03f01afE', symObjAddr: 0x2110, symBinAddr: 0x10000F1D8, symSize: 0x54 }
  - { offset: 0x2ACCA, size: 0x8, addend: 0x0, symName: '__ZN4core3ptr130drop_in_place$LT$addr2line..unit..ResUnits$LT$gimli..read..endian_slice..EndianSlice$LT$gimli..endianity..LittleEndian$GT$$GT$$GT$17he56c193886414dbaE', symObjAddr: 0x2164, symBinAddr: 0x10000F22C, symSize: 0xD0 }
  - { offset: 0x2AE73, size: 0x8, addend: 0x0, symName: '__ZN4core3ptr130drop_in_place$LT$addr2line..unit..SupUnits$LT$gimli..read..endian_slice..EndianSlice$LT$gimli..endianity..LittleEndian$GT$$GT$$GT$17h74d4d2bc946c0774E', symObjAddr: 0x2234, symBinAddr: 0x10000F2FC, symSize: 0xE4 }
  - { offset: 0x2B031, size: 0x8, addend: 0x0, symName: '__ZN4core3ptr130drop_in_place$LT$gimli..read..dwarf..Dwarf$LT$gimli..read..endian_slice..EndianSlice$LT$gimli..endianity..LittleEndian$GT$$GT$$GT$17h733659cc5e33a4cbE', symObjAddr: 0x2318, symBinAddr: 0x10000F3E0, symSize: 0x58 }
  - { offset: 0x2B0FF, size: 0x8, addend: 0x0, symName: '__ZN4core3ptr131drop_in_place$LT$$u5b$core..option..Option$LT$core..option..Option$LT$std..backtrace_rs..symbolize..gimli..Mapping$GT$$GT$$u5d$$GT$17h1b55ae3732cae68aE', symObjAddr: 0x2370, symBinAddr: 0x10000F438, symSize: 0xCC }
  - { offset: 0x2B1A9, size: 0x8, addend: 0x0, symName: '__ZN4core3ptr137drop_in_place$LT$gimli..read..dwarf..Unit$LT$gimli..read..endian_slice..EndianSlice$LT$gimli..endianity..LittleEndian$GT$$C$usize$GT$$GT$17h90351d6bab11b82cE', symObjAddr: 0x2500, symBinAddr: 0x10000F504, symSize: 0x54 }
  - { offset: 0x2B2A6, size: 0x8, addend: 0x0, symName: '__ZN4core3ptr138drop_in_place$LT$addr2line..function..LazyFunction$LT$gimli..read..endian_slice..EndianSlice$LT$gimli..endianity..LittleEndian$GT$$GT$$GT$17h0f9458c797bd90e9E', symObjAddr: 0x2554, symBinAddr: 0x10000F558, symSize: 0x64 }
  - { offset: 0x2B2BD, size: 0x8, addend: 0x0, symName: '__ZN4core3ptr138drop_in_place$LT$addr2line..function..LazyFunction$LT$gimli..read..endian_slice..EndianSlice$LT$gimli..endianity..LittleEndian$GT$$GT$$GT$17h0f9458c797bd90e9E', symObjAddr: 0x2554, symBinAddr: 0x10000F558, symSize: 0x64 }
  - { offset: 0x2B2D2, size: 0x8, addend: 0x0, symName: '__ZN4core3ptr138drop_in_place$LT$addr2line..function..LazyFunction$LT$gimli..read..endian_slice..EndianSlice$LT$gimli..endianity..LittleEndian$GT$$GT$$GT$17h0f9458c797bd90e9E', symObjAddr: 0x2554, symBinAddr: 0x10000F558, symSize: 0x64 }
  - { offset: 0x2B2E7, size: 0x8, addend: 0x0, symName: '__ZN4core3ptr138drop_in_place$LT$addr2line..function..LazyFunction$LT$gimli..read..endian_slice..EndianSlice$LT$gimli..endianity..LittleEndian$GT$$GT$$GT$17h0f9458c797bd90e9E', symObjAddr: 0x2554, symBinAddr: 0x10000F558, symSize: 0x64 }
  - { offset: 0x2B429, size: 0x8, addend: 0x0, symName: '__ZN4core3ptr144drop_in_place$LT$alloc..vec..Vec$LT$core..option..Option$LT$core..option..Option$LT$std..backtrace_rs..symbolize..gimli..Mapping$GT$$GT$$GT$$GT$17hd5b41028903956eeE', symObjAddr: 0x25B8, symBinAddr: 0x10000F5BC, symSize: 0x78 }
  - { offset: 0x2B591, size: 0x8, addend: 0x0, symName: '__ZN4core3ptr152drop_in_place$LT$alloc..vec..Vec$LT$addr2line..unit..ResUnit$LT$gimli..read..endian_slice..EndianSlice$LT$gimli..endianity..LittleEndian$GT$$GT$$GT$$GT$17hdd35552c1680b2ebE', symObjAddr: 0x26FC, symBinAddr: 0x10000F634, symSize: 0xC4 }
  - { offset: 0x2B700, size: 0x8, addend: 0x0, symName: '__ZN4core3ptr152drop_in_place$LT$alloc..vec..Vec$LT$addr2line..unit..SupUnit$LT$gimli..read..endian_slice..EndianSlice$LT$gimli..endianity..LittleEndian$GT$$GT$$GT$$GT$17h6431a2f92897bef0E', symObjAddr: 0x27C0, symBinAddr: 0x10000F6F8, symSize: 0xF4 }
  - { offset: 0x2B918, size: 0x8, addend: 0x0, symName: '__ZN4core3ptr156drop_in_place$LT$alloc..boxed..Box$LT$$u5b$core..option..Option$LT$core..option..Option$LT$std..backtrace_rs..symbolize..gimli..Mapping$GT$$GT$$u5d$$GT$$GT$17h61627ecd782bd92dE', symObjAddr: 0x28B4, symBinAddr: 0x10000F7EC, symSize: 0xF8 }
  - { offset: 0x2BA42, size: 0x8, addend: 0x0, symName: '__ZN4core3ptr159drop_in_place$LT$alloc..sync..ArcInner$LT$gimli..read..dwarf..Dwarf$LT$gimli..read..endian_slice..EndianSlice$LT$gimli..endianity..LittleEndian$GT$$GT$$GT$$GT$17h71c073e2ea863d36E', symObjAddr: 0x29AC, symBinAddr: 0x10000F8E4, symSize: 0x58 }
  - { offset: 0x2BB1F, size: 0x8, addend: 0x0, symName: '__ZN4core3ptr161drop_in_place$LT$alloc..vec..Vec$LT$addr2line..function..LazyFunction$LT$gimli..read..endian_slice..EndianSlice$LT$gimli..endianity..LittleEndian$GT$$GT$$GT$$GT$17h938f97b5a308fc3cE', symObjAddr: 0x2A04, symBinAddr: 0x10000F93C, symSize: 0xAC }
  - { offset: 0x2BD5C, size: 0x8, addend: 0x0, symName: '__ZN4core3ptr172drop_in_place$LT$core..result..Result$LT$addr2line..Context$LT$gimli..read..endian_slice..EndianSlice$LT$gimli..endianity..LittleEndian$GT$$GT$$C$gimli..read..Error$GT$$GT$17h8205db00afecd676E', symObjAddr: 0x2B5C, symBinAddr: 0x10000F9E8, symSize: 0x80 }
  - { offset: 0x2BDF1, size: 0x8, addend: 0x0, symName: '__ZN4core3ptr173drop_in_place$LT$alloc..boxed..Box$LT$$u5b$addr2line..function..LazyFunction$LT$gimli..read..endian_slice..EndianSlice$LT$gimli..endianity..LittleEndian$GT$$GT$$u5d$$GT$$GT$17h141b901e37828fa3E', symObjAddr: 0x2BDC, symBinAddr: 0x10000FA68, symSize: 0x9C }
  - { offset: 0x2BE08, size: 0x8, addend: 0x0, symName: '__ZN4core3ptr173drop_in_place$LT$alloc..boxed..Box$LT$$u5b$addr2line..function..LazyFunction$LT$gimli..read..endian_slice..EndianSlice$LT$gimli..endianity..LittleEndian$GT$$GT$$u5d$$GT$$GT$17h141b901e37828fa3E', symObjAddr: 0x2BDC, symBinAddr: 0x10000FA68, symSize: 0x9C }
  - { offset: 0x2C04D, size: 0x8, addend: 0x0, symName: '__ZN4core3ptr181drop_in_place$LT$core..option..Option$LT$gimli..read..line..IncompleteLineProgram$LT$gimli..read..endian_slice..EndianSlice$LT$gimli..endianity..LittleEndian$GT$$C$usize$GT$$GT$$GT$17h0ce7bfce5e4abb6bE', symObjAddr: 0x2CE8, symBinAddr: 0x10000FB04, symSize: 0x98 }
  - { offset: 0x2C308, size: 0x8, addend: 0x0, symName: '__ZN4core3ptr181drop_in_place$LT$core..result..Result$LT$addr2line..frame..FrameIter$LT$gimli..read..endian_slice..EndianSlice$LT$gimli..endianity..LittleEndian$GT$$GT$$C$gimli..read..Error$GT$$GT$17hc32763af75cf70e4E', symObjAddr: 0x2D80, symBinAddr: 0x10000FB9C, symSize: 0x44 }
  - { offset: 0x2C446, size: 0x8, addend: 0x0, symName: '__ZN4core3ptr184drop_in_place$LT$core..result..Result$LT$addr2line..function..Functions$LT$gimli..read..endian_slice..EndianSlice$LT$gimli..endianity..LittleEndian$GT$$GT$$C$gimli..read..Error$GT$$GT$17hae974801a783d12aE', symObjAddr: 0x2DC4, symBinAddr: 0x10000FBE0, symSize: 0xD8 }
  - { offset: 0x2CF85, size: 0x8, addend: 0x0, symName: '__ZN4core3ptr223drop_in_place$LT$std..sys..thread_local..native..lazy..State$LT$core..cell..Cell$LT$core..option..Option$LT$alloc..sync..Arc$LT$std..sync..poison..mutex..Mutex$LT$alloc..vec..Vec$LT$u8$GT$$GT$$GT$$GT$$GT$$C$$LP$$RP$$GT$$GT$17h8e1dbbdc8aa6e2b2E', symObjAddr: 0x2F10, symBinAddr: 0x10000FCB8, symSize: 0x40 }
  - { offset: 0x2D071, size: 0x8, addend: 0x0, symName: '__ZN4core3ptr231drop_in_place$LT$core..result..Result$LT$core..option..Option$LT$alloc..boxed..Box$LT$addr2line..unit..DwoUnit$LT$gimli..read..endian_slice..EndianSlice$LT$gimli..endianity..LittleEndian$GT$$GT$$GT$$GT$$C$gimli..read..Error$GT$$GT$17h48abe14940fae1d7E', symObjAddr: 0x2F50, symBinAddr: 0x10000FCF8, symSize: 0xD4 }
  - { offset: 0x2D25A, size: 0x8, addend: 0x0, symName: '__ZN4core3ptr275drop_in_place$LT$gimli..read..line..LineRows$LT$gimli..read..endian_slice..EndianSlice$LT$gimli..endianity..LittleEndian$GT$$C$gimli..read..line..IncompleteLineProgram$LT$gimli..read..endian_slice..EndianSlice$LT$gimli..endianity..LittleEndian$GT$$C$usize$GT$$C$usize$GT$$GT$17h1fb49ddc3575d792E', symObjAddr: 0x304C, symBinAddr: 0x10000FDCC, symSize: 0x8C }
  - { offset: 0x2D4CF, size: 0x8, addend: 0x0, symName: '__ZN4core3ptr280drop_in_place$LT$$LT$alloc..collections..btree..map..IntoIter$LT$K$C$V$C$A$GT$$u20$as$u20$core..ops..drop..Drop$GT$..drop..DropGuard$LT$u64$C$core..result..Result$LT$alloc..sync..Arc$LT$gimli..read..abbrev..Abbreviations$GT$$C$gimli..read..Error$GT$$C$alloc..alloc..Global$GT$$GT$17h412edb4cf40f508aE', symObjAddr: 0x30D8, symBinAddr: 0x10000FE58, symSize: 0x84 }
  - { offset: 0x2D672, size: 0x8, addend: 0x0, symName: '__ZN4core3ptr37drop_in_place$LT$std..env..VarsOs$GT$17h8833fb9321bef3f6E', symObjAddr: 0x315C, symBinAddr: 0x10000FEDC, symSize: 0xAC }
  - { offset: 0x2D9C5, size: 0x8, addend: 0x0, symName: '__ZN4core3ptr42drop_in_place$LT$alloc..string..String$GT$17h49e49416d7fc736bE', symObjAddr: 0x3330, symBinAddr: 0x10000FF88, symSize: 0x28 }
  - { offset: 0x2DAA0, size: 0x8, addend: 0x0, symName: '__ZN4core3ptr42drop_in_place$LT$std..io..error..Error$GT$17h2076e24185186a1eE', symObjAddr: 0x3358, symBinAddr: 0x10000FFB0, symSize: 0xAC }
  - { offset: 0x2DCBA, size: 0x8, addend: 0x0, symName: '__ZN4core3ptr44drop_in_place$LT$object..read..ObjectMap$GT$17hefa7b8970618855fE', symObjAddr: 0x3404, symBinAddr: 0x10001005C, symSize: 0x58 }
  - { offset: 0x2DDE9, size: 0x8, addend: 0x0, symName: '__ZN4core3ptr46drop_in_place$LT$alloc..vec..Vec$LT$u8$GT$$GT$17he05f3434a0e55321E', symObjAddr: 0x350C, symBinAddr: 0x1000100B4, symSize: 0x28 }
  - { offset: 0x2DE76, size: 0x8, addend: 0x0, symName: '__ZN4core3ptr46drop_in_place$LT$std..io..stdio..StdinLock$GT$17h7f23f0068af34be6E', symObjAddr: 0x3534, symBinAddr: 0x1000100DC, symSize: 0x54 }
  - { offset: 0x2DE8D, size: 0x8, addend: 0x0, symName: '__ZN4core3ptr46drop_in_place$LT$std..io..stdio..StdinLock$GT$17h7f23f0068af34be6E', symObjAddr: 0x3534, symBinAddr: 0x1000100DC, symSize: 0x54 }
  - { offset: 0x2DEA2, size: 0x8, addend: 0x0, symName: '__ZN4core3ptr46drop_in_place$LT$std..io..stdio..StdinLock$GT$17h7f23f0068af34be6E', symObjAddr: 0x3534, symBinAddr: 0x1000100DC, symSize: 0x54 }
  - { offset: 0x2DF86, size: 0x8, addend: 0x0, symName: '__ZN4core3ptr48drop_in_place$LT$alloc..ffi..c_str..NulError$GT$17hf807e8c3d992613aE', symObjAddr: 0x35E0, symBinAddr: 0x100010130, symSize: 0x28 }
  - { offset: 0x2E045, size: 0x8, addend: 0x0, symName: '__ZN4core3ptr55drop_in_place$LT$gimli..read..abbrev..Abbreviations$GT$17h5028fd7f23a66a5dE', symObjAddr: 0x38D4, symBinAddr: 0x100010158, symSize: 0x84 }
  - { offset: 0x2E200, size: 0x8, addend: 0x0, symName: '__ZN4core3ptr60drop_in_place$LT$gimli..read..abbrev..AbbreviationsCache$GT$17h109635aebb38ad94E', symObjAddr: 0x39E8, symBinAddr: 0x1000101DC, symSize: 0xCC }
  - { offset: 0x2E3C2, size: 0x8, addend: 0x0, symName: '__ZN4core3ptr62drop_in_place$LT$std..sys..sync..rwlock..queue..PanicGuard$GT$17ha6ff6fed8f58b75aE', symObjAddr: 0x3AB4, symBinAddr: 0x1000102A8, symSize: 0x44 }
  - { offset: 0x2E409, size: 0x8, addend: 0x0, symName: '__ZN4core3ptr64drop_in_place$LT$std..sys..pal..unix..sync..mutex..AttrGuard$GT$17hfae1c338ebc17455E', symObjAddr: 0x3AF8, symBinAddr: 0x1000102EC, symSize: 0x48 }
  - { offset: 0x2E448, size: 0x8, addend: 0x0, symName: '__ZN4core3ptr65drop_in_place$LT$alloc..vec..Vec$LT$alloc..string..String$GT$$GT$17h0e8d3320a68b6c20E', symObjAddr: 0x3B40, symBinAddr: 0x100010334, symSize: 0x80 }
  - { offset: 0x2E5E6, size: 0x8, addend: 0x0, symName: '__ZN4core3ptr65drop_in_place$LT$std..backtrace_rs..symbolize..gimli..Context$GT$17he1a9681aa2b789c5E', symObjAddr: 0x3BC0, symBinAddr: 0x1000103B4, symSize: 0xE8 }
  - { offset: 0x2E878, size: 0x8, addend: 0x0, symName: '__ZN4core3ptr65drop_in_place$LT$std..backtrace_rs..symbolize..gimli..Mapping$GT$17h1ad26fdf3d4d883aE', symObjAddr: 0x3CA8, symBinAddr: 0x10001049C, symSize: 0x50 }
  - { offset: 0x2E8E3, size: 0x8, addend: 0x0, symName: '__ZN4core3ptr66drop_in_place$LT$std..backtrace_rs..backtrace..libunwind..Bomb$GT$17hcf55bbc6e2408f91E', symObjAddr: 0x3D50, symBinAddr: 0x1000104EC, symSize: 0x40 }
  - { offset: 0x2E921, size: 0x8, addend: 0x0, symName: '__ZN4core3ptr70drop_in_place$LT$alloc..vec..Vec$LT$alloc..ffi..c_str..CString$GT$$GT$17hfd0a4040cac87084E', symObjAddr: 0x3D90, symBinAddr: 0x10001052C, symSize: 0x7C }
  - { offset: 0x2EAD4, size: 0x8, addend: 0x0, symName: '__ZN4core3ptr70drop_in_place$LT$std..backtrace_rs..symbolize..gimli..stash..Stash$GT$17h823b9ed5294710a1E', symObjAddr: 0x3E8C, symBinAddr: 0x1000105A8, symSize: 0xB8 }
  - { offset: 0x2ED7A, size: 0x8, addend: 0x0, symName: '__ZN4core3ptr71drop_in_place$LT$std..backtrace_rs..symbolize..gimli..macho..Object$GT$17h7d766a5d50e6fcdbE', symObjAddr: 0x3F44, symBinAddr: 0x100010660, symSize: 0xD8 }
  - { offset: 0x2F04D, size: 0x8, addend: 0x0, symName: '__ZN4core3ptr72drop_in_place$LT$core..option..Option$LT$object..read..ObjectMap$GT$$GT$17hc34cda9cf8984625E', symObjAddr: 0x4088, symBinAddr: 0x100010738, symSize: 0x64 }
  - { offset: 0x2F1CA, size: 0x8, addend: 0x0, symName: '__ZN4core3ptr73drop_in_place$LT$alloc..vec..Vec$LT$addr2line..line..LineSequence$GT$$GT$17h0feaef6467c5bb06E', symObjAddr: 0x40EC, symBinAddr: 0x10001079C, symSize: 0x84 }
  - { offset: 0x2F322, size: 0x8, addend: 0x0, symName: '__ZN4core3ptr77drop_in_place$LT$alloc..boxed..Box$LT$$u5b$alloc..string..String$u5d$$GT$$GT$17h8657c1556d878703E', symObjAddr: 0x41C8, symBinAddr: 0x100010820, symSize: 0x70 }
  - { offset: 0x2F339, size: 0x8, addend: 0x0, symName: '__ZN4core3ptr77drop_in_place$LT$alloc..boxed..Box$LT$$u5b$alloc..string..String$u5d$$GT$$GT$17h8657c1556d878703E', symObjAddr: 0x41C8, symBinAddr: 0x100010820, symSize: 0x70 }
  - { offset: 0x2F445, size: 0x8, addend: 0x0, symName: '__ZN4core3ptr77drop_in_place$LT$std..panicking..begin_panic_handler..FormatStringPayload$GT$17h1141e34cc3e1cd8cE', symObjAddr: 0x4238, symBinAddr: 0x100010890, symSize: 0x34 }
  - { offset: 0x2F50F, size: 0x8, addend: 0x0, symName: '__ZN4core3ptr77drop_in_place$LT$std..sys..pal..unix..process..process_common..ChildPipes$GT$17h620614c70ca5ad33E', symObjAddr: 0x426C, symBinAddr: 0x1000108C4, symSize: 0x78 }
  - { offset: 0x2F61F, size: 0x8, addend: 0x0, symName: '__ZN4core3ptr77drop_in_place$LT$std..sys..pal..unix..process..process_common..StdioPipes$GT$17ha094cdbd3e642bc1E', symObjAddr: 0x42E4, symBinAddr: 0x10001093C, symSize: 0x54 }
  - { offset: 0x2F77B, size: 0x8, addend: 0x0, symName: '__ZN4core3ptr78drop_in_place$LT$core..result..Result$LT$usize$C$std..io..error..Error$GT$$GT$17h31f04dfac34de6cfE', symObjAddr: 0x4338, symBinAddr: 0x100010990, symSize: 0x24 }
  - { offset: 0x2F78F, size: 0x8, addend: 0x0, symName: '__ZN4core3ptr79drop_in_place$LT$std..sync..poison..rwlock..RwLockReadGuard$LT$$LP$$RP$$GT$$GT$17h3c7acdfaefb6864dE', symObjAddr: 0x435C, symBinAddr: 0x1000109B4, symSize: 0x68 }
  - { offset: 0x2F82B, size: 0x8, addend: 0x0, symName: '__ZN4core3ptr79drop_in_place$LT$std..sys..pal..unix..process..process_common..CStringArray$GT$17h6aeb88f15641d3f5E', symObjAddr: 0x43C4, symBinAddr: 0x100010A1C, symSize: 0x94 }
  - { offset: 0x2FA0A, size: 0x8, addend: 0x0, symName: '__ZN4core3ptr81drop_in_place$LT$$LP$usize$C$std..backtrace_rs..symbolize..gimli..Mapping$RP$$GT$17h0fc60d1e178e2af3E', symObjAddr: 0x4458, symBinAddr: 0x100010AB0, symSize: 0x54 }
  - { offset: 0x2FA8B, size: 0x8, addend: 0x0, symName: '__ZN4core3ptr81drop_in_place$LT$core..result..Result$LT$$LP$$RP$$C$std..io..error..Error$GT$$GT$17h32d66e7d6b4290f9E', symObjAddr: 0x44AC, symBinAddr: 0x100010B04, symSize: 0x20 }
  - { offset: 0x2FA9F, size: 0x8, addend: 0x0, symName: '__ZN4core3ptr84drop_in_place$LT$$LP$std..ffi..os_str..OsString$C$std..ffi..os_str..OsString$RP$$GT$17hce73656bd67f13b5E', symObjAddr: 0x4510, symBinAddr: 0x100010B24, symSize: 0x4C }
  - { offset: 0x2FBFA, size: 0x8, addend: 0x0, symName: '__ZN4core3ptr84drop_in_place$LT$alloc..sync..ArcInner$LT$gimli..read..abbrev..Abbreviations$GT$$GT$17hc1742a6ee5f4f5c4E', symObjAddr: 0x455C, symBinAddr: 0x100010B70, symSize: 0x84 }
  - { offset: 0x2FDC4, size: 0x8, addend: 0x0, symName: '__ZN4core3ptr87drop_in_place$LT$alloc..sync..ArcInner$LT$std..sys..pal..unix..fs..InnerReadDir$GT$$GT$17h22f7f5fc9c3aa8bdE', symObjAddr: 0x45E0, symBinAddr: 0x100010BF4, symSize: 0x60 }
  - { offset: 0x2FFAD, size: 0x8, addend: 0x0, symName: '__ZN4core3ptr88drop_in_place$LT$alloc..vec..Vec$LT$std..backtrace_rs..symbolize..gimli..Library$GT$$GT$17heda6be67225cff8cE', symObjAddr: 0x4674, symBinAddr: 0x100010C54, symSize: 0x98 }
  - { offset: 0x301C3, size: 0x8, addend: 0x0, symName: '__ZN4core3ptr90drop_in_place$LT$std..io..buffered..bufwriter..BufWriter$LT$W$GT$..flush_buf..BufGuard$GT$17h18eab3e558793eacE', symObjAddr: 0x470C, symBinAddr: 0x100010CEC, symSize: 0x60 }
  - { offset: 0x30384, size: 0x8, addend: 0x0, symName: '__ZN4core3ptr92drop_in_place$LT$core..result..Result$LT$addr2line..line..Lines$C$gimli..read..Error$GT$$GT$17h75873180c89d56d0E', symObjAddr: 0x47E8, symBinAddr: 0x100010D4C, symSize: 0xE4 }
  - { offset: 0x305CA, size: 0x8, addend: 0x0, symName: '__ZN4core3ptr93drop_in_place$LT$core..option..Option$LT$std..backtrace_rs..symbolize..gimli..Mapping$GT$$GT$17h8ea9f8655928f4fcE', symObjAddr: 0x48CC, symBinAddr: 0x100010E30, symSize: 0x6C }
  - { offset: 0x30667, size: 0x8, addend: 0x0, symName: '__ZN4core3ptr95drop_in_place$LT$core..option..IntoIter$LT$std..backtrace_rs..symbolize..gimli..Library$GT$$GT$17he46fad7f279ea952E', symObjAddr: 0x4938, symBinAddr: 0x100010E9C, symSize: 0x5C }
  - { offset: 0x30685, size: 0x8, addend: 0x0, symName: '__ZN4core3ptr95drop_in_place$LT$core..option..IntoIter$LT$std..backtrace_rs..symbolize..gimli..Library$GT$$GT$17he46fad7f279ea952E', symObjAddr: 0x4938, symBinAddr: 0x100010E9C, symSize: 0x5C }
  - { offset: 0x3069A, size: 0x8, addend: 0x0, symName: '__ZN4core3ptr95drop_in_place$LT$core..option..IntoIter$LT$std..backtrace_rs..symbolize..gimli..Library$GT$$GT$17he46fad7f279ea952E', symObjAddr: 0x4938, symBinAddr: 0x100010E9C, symSize: 0x5C }
  - { offset: 0x30803, size: 0x8, addend: 0x0, symName: '__ZN4core3ptr95drop_in_place$LT$std..io..buffered..linewriter..LineWriter$LT$std..io..stdio..StdoutRaw$GT$$GT$17h3bd57fa990556d59E', symObjAddr: 0x4994, symBinAddr: 0x100010EF8, symSize: 0xF0 }
  - { offset: 0x3387D, size: 0x8, addend: 0x0, symName: __ZN4core5slice4sort6shared5pivot11median3_rec17h025645fbfb2d8cd1E, symObjAddr: 0x4D90, symBinAddr: 0x1000110F8, symSize: 0x134 }
  - { offset: 0x33AA4, size: 0x8, addend: 0x0, symName: __ZN4core5slice4sort6shared5pivot11median3_rec17h246a4f2d911688a1E, symObjAddr: 0x4EC4, symBinAddr: 0x10001122C, symSize: 0xD0 }
  - { offset: 0x33B9F, size: 0x8, addend: 0x0, symName: __ZN4core5slice4sort6shared5pivot11median3_rec17h6ce4cdb71517d19eE, symObjAddr: 0x4F94, symBinAddr: 0x1000112FC, symSize: 0xCC }
  - { offset: 0x33C9A, size: 0x8, addend: 0x0, symName: __ZN4core5slice4sort6shared5pivot11median3_rec17h6e4fd85017a3f5e4E, symObjAddr: 0x5060, symBinAddr: 0x1000113C8, symSize: 0xD0 }
  - { offset: 0x33D95, size: 0x8, addend: 0x0, symName: __ZN4core5slice4sort6shared5pivot11median3_rec17ha3c898ebd570d9a9E, symObjAddr: 0x5130, symBinAddr: 0x100011498, symSize: 0xCC }
  - { offset: 0x33EE6, size: 0x8, addend: 0x0, symName: __ZN4core5slice4sort6shared5pivot11median3_rec17hbe3f226301cd071dE, symObjAddr: 0x51FC, symBinAddr: 0x100011564, symSize: 0xCC }
  - { offset: 0x33FE1, size: 0x8, addend: 0x0, symName: __ZN4core5slice4sort6shared5pivot11median3_rec17hc3d7c76f255c304aE, symObjAddr: 0x52C8, symBinAddr: 0x100011630, symSize: 0xD0 }
  - { offset: 0x340DC, size: 0x8, addend: 0x0, symName: __ZN4core5slice4sort6shared5pivot11median3_rec17heb13e39171436e07E, symObjAddr: 0x5398, symBinAddr: 0x100011700, symSize: 0x11C }
  - { offset: 0x342B2, size: 0x8, addend: 0x0, symName: __ZN4core5slice4sort6shared9smallsort12sort4_stable17h29d5ecfff8d25808E, symObjAddr: 0x54B4, symBinAddr: 0x10001181C, symSize: 0x1B4 }
  - { offset: 0x3445D, size: 0x8, addend: 0x0, symName: __ZN4core5slice4sort6shared9smallsort12sort4_stable17he2b82e95c0946cc4E, symObjAddr: 0x5668, symBinAddr: 0x1000119D0, symSize: 0x180 }
  - { offset: 0x3487F, size: 0x8, addend: 0x0, symName: __ZN4core5slice4sort6shared9smallsort12sort8_stable17h40f301b851efa79fE, symObjAddr: 0x57E8, symBinAddr: 0x100011B50, symSize: 0x2B8 }
  - { offset: 0x34E18, size: 0x8, addend: 0x0, symName: __ZN4core5slice4sort6shared9smallsort18small_sort_general17h8f0f2bfe6ac37bfbE, symObjAddr: 0x5AA0, symBinAddr: 0x100011E08, symSize: 0x490 }
  - { offset: 0x3552D, size: 0x8, addend: 0x0, symName: __ZN4core5slice4sort6shared9smallsort18small_sort_general17h9886ba35fa9ddf7bE, symObjAddr: 0x5F30, symBinAddr: 0x100012298, symSize: 0x3E0 }
  - { offset: 0x35A47, size: 0x8, addend: 0x0, symName: __ZN4core5slice4sort6shared9smallsort25insertion_sort_shift_left17h001473db42a80264E, symObjAddr: 0x6310, symBinAddr: 0x100012678, symSize: 0xB0 }
  - { offset: 0x35AEA, size: 0x8, addend: 0x0, symName: __ZN4core5slice4sort6shared9smallsort25insertion_sort_shift_left17h1e1ea2c4d7503f74E, symObjAddr: 0x63C0, symBinAddr: 0x100012728, symSize: 0xCC }
  - { offset: 0x35BEB, size: 0x8, addend: 0x0, symName: __ZN4core5slice4sort6shared9smallsort25insertion_sort_shift_left17h4c238536f310567cE, symObjAddr: 0x648C, symBinAddr: 0x1000127F4, symSize: 0xFC }
  - { offset: 0x35D82, size: 0x8, addend: 0x0, symName: __ZN4core5slice4sort6shared9smallsort25insertion_sort_shift_left17h5ae8ea909444dc00E, symObjAddr: 0x6588, symBinAddr: 0x1000128F0, symSize: 0xAC }
  - { offset: 0x35E25, size: 0x8, addend: 0x0, symName: __ZN4core5slice4sort6shared9smallsort25insertion_sort_shift_left17h677848d84e66ea2aE, symObjAddr: 0x6634, symBinAddr: 0x10001299C, symSize: 0xA8 }
  - { offset: 0x35EC8, size: 0x8, addend: 0x0, symName: __ZN4core5slice4sort6shared9smallsort25insertion_sort_shift_left17h753c2c33d7211ceaE, symObjAddr: 0x66DC, symBinAddr: 0x100012A44, symSize: 0xBC }
  - { offset: 0x35F6B, size: 0x8, addend: 0x0, symName: __ZN4core5slice4sort6shared9smallsort25insertion_sort_shift_left17hceef73df05978c22E, symObjAddr: 0x6798, symBinAddr: 0x100012B00, symSize: 0x90 }
  - { offset: 0x3600E, size: 0x8, addend: 0x0, symName: __ZN4core5slice4sort6shared9smallsort25insertion_sort_shift_left17hfb494d5f79707c02E, symObjAddr: 0x6828, symBinAddr: 0x100012B90, symSize: 0xAC }
  - { offset: 0x362FE, size: 0x8, addend: 0x0, symName: __ZN4core5slice4sort6stable14driftsort_main17h103ff636fd5ab89dE, symObjAddr: 0x68D4, symBinAddr: 0x100012C3C, symSize: 0x148 }
  - { offset: 0x365A1, size: 0x8, addend: 0x0, symName: __ZN4core5slice4sort6stable14driftsort_main17h1e88dc2727ad5c37E, symObjAddr: 0x6A1C, symBinAddr: 0x100012D84, symSize: 0x16C }
  - { offset: 0x3689A, size: 0x8, addend: 0x0, symName: __ZN4core5slice4sort6stable14driftsort_main17h54d923433181cd8aE, symObjAddr: 0x6B88, symBinAddr: 0x100012EF0, symSize: 0x16C }
  - { offset: 0x36B93, size: 0x8, addend: 0x0, symName: __ZN4core5slice4sort6stable14driftsort_main17h76405073938de01eE, symObjAddr: 0x6CF4, symBinAddr: 0x10001305C, symSize: 0x148 }
  - { offset: 0x36E36, size: 0x8, addend: 0x0, symName: __ZN4core5slice4sort6stable14driftsort_main17h9cb82a8482cd4f53E, symObjAddr: 0x6E3C, symBinAddr: 0x1000131A4, symSize: 0x148 }
  - { offset: 0x370D9, size: 0x8, addend: 0x0, symName: __ZN4core5slice4sort6stable14driftsort_main17hf9ea8a01734384bdE, symObjAddr: 0x6F84, symBinAddr: 0x1000132EC, symSize: 0x148 }
  - { offset: 0x374EB, size: 0x8, addend: 0x0, symName: __ZN4core5slice4sort6stable5drift4sort17h00ab1c6180ac4055E, symObjAddr: 0x70CC, symBinAddr: 0x100013434, symSize: 0x4E0 }
  - { offset: 0x37B20, size: 0x8, addend: 0x0, symName: __ZN4core5slice4sort6stable5drift4sort17h0aa4aacce1cc6d7cE, symObjAddr: 0x75AC, symBinAddr: 0x100013914, symSize: 0x5E8 }
  - { offset: 0x381A8, size: 0x8, addend: 0x0, symName: __ZN4core5slice4sort6stable5drift4sort17h343dbae25f37733bE, symObjAddr: 0x7B94, symBinAddr: 0x100013EFC, symSize: 0x538 }
  - { offset: 0x3887B, size: 0x8, addend: 0x0, symName: __ZN4core5slice4sort6stable5drift4sort17h4258b1bc2caa3ec0E, symObjAddr: 0x80CC, symBinAddr: 0x100014434, symSize: 0x6F0 }
  - { offset: 0x38F51, size: 0x8, addend: 0x0, symName: __ZN4core5slice4sort6stable5drift4sort17h9cf8228521243839E, symObjAddr: 0x87BC, symBinAddr: 0x100014B24, symSize: 0x5E8 }
  - { offset: 0x395D9, size: 0x8, addend: 0x0, symName: __ZN4core5slice4sort6stable5drift4sort17he5c0348fca8b4ee7E, symObjAddr: 0x8DA4, symBinAddr: 0x10001510C, symSize: 0x63C }
  - { offset: 0x39E51, size: 0x8, addend: 0x0, symName: __ZN4core5slice4sort6stable9quicksort9quicksort17h115e1a8136b6fa84E, symObjAddr: 0x93E0, symBinAddr: 0x100015748, symSize: 0x820 }
  - { offset: 0x3AA1E, size: 0x8, addend: 0x0, symName: __ZN4core5slice4sort6stable9quicksort9quicksort17h270cbea95e7bc0c9E, symObjAddr: 0x9C00, symBinAddr: 0x100015F68, symSize: 0x73C }
  - { offset: 0x3B13F, size: 0x8, addend: 0x0, symName: __ZN4core5slice4sort6stable9quicksort9quicksort17h3e7b305b5c7976baE, symObjAddr: 0xA33C, symBinAddr: 0x1000166A4, symSize: 0x6C8 }
  - { offset: 0x3BBCC, size: 0x8, addend: 0x0, symName: __ZN4core5slice4sort6stable9quicksort9quicksort17hc1d95435bd0f54c5E, symObjAddr: 0xAA04, symBinAddr: 0x100016D6C, symSize: 0x828 }
  - { offset: 0x3CC8D, size: 0x8, addend: 0x0, symName: __ZN4core5slice4sort6stable9quicksort9quicksort17hcf4fb219382f768bE, symObjAddr: 0xB22C, symBinAddr: 0x100017594, symSize: 0x7FC }
  - { offset: 0x3D85A, size: 0x8, addend: 0x0, symName: __ZN4core5slice4sort6stable9quicksort9quicksort17hfd59b4f11a472dd5E, symObjAddr: 0xBA28, symBinAddr: 0x100017D90, symSize: 0x6D0 }
  - { offset: 0x3E322, size: 0x8, addend: 0x0, symName: __ZN4core5slice4sort8unstable7ipnsort17h519db9bb88c7d2c0E, symObjAddr: 0xC0F8, symBinAddr: 0x100018460, symSize: 0x1E4 }
  - { offset: 0x3E439, size: 0x8, addend: 0x0, symName: __ZN4core5slice4sort8unstable7ipnsort17hc49a474c49f61d9aE, symObjAddr: 0xC2DC, symBinAddr: 0x100018644, symSize: 0x290 }
  - { offset: 0x3E6E2, size: 0x8, addend: 0x0, symName: __ZN4core5slice4sort8unstable8heapsort8heapsort17h6b7b52018c9f5da0E, symObjAddr: 0xC56C, symBinAddr: 0x1000188D4, symSize: 0x10C }
  - { offset: 0x3E8E9, size: 0x8, addend: 0x0, symName: __ZN4core5slice4sort8unstable8heapsort8heapsort17h719a9553e129d672E, symObjAddr: 0xC678, symBinAddr: 0x1000189E0, symSize: 0x160 }
  - { offset: 0x3EC87, size: 0x8, addend: 0x0, symName: __ZN4core5slice4sort8unstable9quicksort9quicksort17h96e7db41672c501eE, symObjAddr: 0xC7D8, symBinAddr: 0x100018B40, symSize: 0x448 }
  - { offset: 0x3F53D, size: 0x8, addend: 0x0, symName: __ZN4core5slice4sort8unstable9quicksort9quicksort17ha039472c97b018d8E, symObjAddr: 0xCC20, symBinAddr: 0x100018F88, symSize: 0x5BC }
  - { offset: 0x4027C, size: 0x8, addend: 0x0, symName: '__ZN36_$LT$T$u20$as$u20$core..any..Any$GT$7type_id17h225d92188c8db6c3E', symObjAddr: 0x13C, symBinAddr: 0x10000DF7C, symSize: 0x30 }
  - { offset: 0x40296, size: 0x8, addend: 0x0, symName: '__ZN36_$LT$T$u20$as$u20$core..any..Any$GT$7type_id17h22a55d7ebb819ea6E', symObjAddr: 0x16C, symBinAddr: 0x10000DFAC, symSize: 0x30 }
  - { offset: 0x40304, size: 0x8, addend: 0x0, symName: '__ZN42_$LT$$RF$T$u20$as$u20$core..fmt..Debug$GT$3fmt17h229631da8bdd67acE', symObjAddr: 0x464, symBinAddr: 0x10000DFDC, symSize: 0x1C }
  - { offset: 0x40318, size: 0x8, addend: 0x0, symName: '__ZN42_$LT$$RF$T$u20$as$u20$core..fmt..Debug$GT$3fmt17h45300256e973f494E', symObjAddr: 0x4F8, symBinAddr: 0x10000DFF8, symSize: 0x30 }
  - { offset: 0x4035E, size: 0x8, addend: 0x0, symName: '__ZN42_$LT$$RF$T$u20$as$u20$core..fmt..Debug$GT$3fmt17h6cf282856d53ef8fE', symObjAddr: 0x66C, symBinAddr: 0x10000E028, symSize: 0x74 }
  - { offset: 0x404A0, size: 0x8, addend: 0x0, symName: '__ZN42_$LT$$RF$T$u20$as$u20$core..fmt..Debug$GT$3fmt17h832369a0cde054d2E', symObjAddr: 0x77C, symBinAddr: 0x10000E09C, symSize: 0x30 }
  - { offset: 0x404F4, size: 0x8, addend: 0x0, symName: '__ZN42_$LT$$RF$T$u20$as$u20$core..fmt..Debug$GT$3fmt17h8bbb2abac655b284E', symObjAddr: 0x7AC, symBinAddr: 0x10000E0CC, symSize: 0x9C }
  - { offset: 0x4059E, size: 0x8, addend: 0x0, symName: '__ZN42_$LT$$RF$T$u20$as$u20$core..fmt..Debug$GT$3fmt17h99ba184c1a5db1eaE', symObjAddr: 0x91C, symBinAddr: 0x10000E168, symSize: 0x1C }
  - { offset: 0x405DD, size: 0x8, addend: 0x0, symName: '__ZN42_$LT$$RF$T$u20$as$u20$core..fmt..Debug$GT$3fmt17h9e2071203f91d82eE', symObjAddr: 0x938, symBinAddr: 0x10000E184, symSize: 0x74 }
  - { offset: 0x4069C, size: 0x8, addend: 0x0, symName: '__ZN42_$LT$$RF$T$u20$as$u20$core..fmt..Debug$GT$3fmt17hc3e2ad6268e8985cE', symObjAddr: 0xB50, symBinAddr: 0x10000E1F8, symSize: 0x20 }
  - { offset: 0x40760, size: 0x8, addend: 0x0, symName: '__ZN4core3fmt3num50_$LT$impl$u20$core..fmt..Debug$u20$for$u20$i32$GT$3fmt17h15c50277390862aeE', symObjAddr: 0xCF0, symBinAddr: 0x10000E29C, symSize: 0x2C }
  - { offset: 0x4078F, size: 0x8, addend: 0x0, symName: '__ZN4core3fmt3num52_$LT$impl$u20$core..fmt..Debug$u20$for$u20$usize$GT$3fmt17h6def11b803266407E', symObjAddr: 0xDA0, symBinAddr: 0x10000E2C8, symSize: 0x2C }
  - { offset: 0x4080E, size: 0x8, addend: 0x0, symName: '__ZN44_$LT$$RF$T$u20$as$u20$core..fmt..Display$GT$3fmt17h3bfca5eae23b0d69E', symObjAddr: 0xC20, symBinAddr: 0x10000E218, symSize: 0x1C }
  - { offset: 0x40829, size: 0x8, addend: 0x0, symName: '__ZN44_$LT$$RF$T$u20$as$u20$core..fmt..Display$GT$3fmt17ha43e2829162aef39E', symObjAddr: 0xC3C, symBinAddr: 0x10000E234, symSize: 0x68 }
  - { offset: 0x40CC8, size: 0x8, addend: 0x0, symName: __ZN4core3fmt5Write10write_char17h2bd2da6422df0c04E, symObjAddr: 0xDCC, symBinAddr: 0x10000E2F4, symSize: 0x128 }
  - { offset: 0x40E60, size: 0x8, addend: 0x0, symName: __ZN4core3fmt5Write10write_char17h375232e784da95c3E, symObjAddr: 0xEF4, symBinAddr: 0x10000E41C, symSize: 0x174 }
  - { offset: 0x41062, size: 0x8, addend: 0x0, symName: __ZN4core3fmt5Write10write_char17h5fd94b4a6a085facE, symObjAddr: 0x11E8, symBinAddr: 0x10000E590, symSize: 0x140 }
  - { offset: 0x410C8, size: 0x8, addend: 0x0, symName: __ZN4core3fmt5Write10write_char17h7453f2c039370a9dE, symObjAddr: 0x1328, symBinAddr: 0x10000E6D0, symSize: 0x180 }
  - { offset: 0x41267, size: 0x8, addend: 0x0, symName: __ZN4core3fmt5Write10write_char17hded2a5477b502984E, symObjAddr: 0x14A8, symBinAddr: 0x10000E850, symSize: 0x140 }
  - { offset: 0x41327, size: 0x8, addend: 0x0, symName: __ZN4core3fmt5Write9write_fmt17h1120620ef8133798E, symObjAddr: 0x15E8, symBinAddr: 0x10000E990, symSize: 0x1C }
  - { offset: 0x41356, size: 0x8, addend: 0x0, symName: __ZN4core3fmt5Write9write_fmt17h2a0fceba8367f855E, symObjAddr: 0x1620, symBinAddr: 0x10000E9AC, symSize: 0x1C }
  - { offset: 0x41385, size: 0x8, addend: 0x0, symName: __ZN4core3fmt5Write9write_fmt17h7b0eee5bb9fc5859E, symObjAddr: 0x163C, symBinAddr: 0x10000E9C8, symSize: 0x1C }
  - { offset: 0x413B4, size: 0x8, addend: 0x0, symName: __ZN4core3fmt5Write9write_fmt17hb212afec46fd02ecE, symObjAddr: 0x1658, symBinAddr: 0x10000E9E4, symSize: 0x1C }
  - { offset: 0x413E3, size: 0x8, addend: 0x0, symName: __ZN4core3fmt5Write9write_fmt17hbad323a678cb2207E, symObjAddr: 0x1674, symBinAddr: 0x10000EA00, symSize: 0x1C }
  - { offset: 0x41412, size: 0x8, addend: 0x0, symName: __ZN4core3fmt5Write9write_fmt17he153d8ed26875afeE, symObjAddr: 0x1690, symBinAddr: 0x10000EA1C, symSize: 0x1C }
  - { offset: 0x4146F, size: 0x8, addend: 0x0, symName: '__ZN50_$LT$$BP$mut$u20$T$u20$as$u20$core..fmt..Debug$GT$3fmt17he39465caf33bcc4eE', symObjAddr: 0xD258, symBinAddr: 0x100019544, symSize: 0x14 }
  - { offset: 0x414BC, size: 0x8, addend: 0x0, symName: '__ZN52_$LT$$RF$mut$u20$T$u20$as$u20$core..fmt..Display$GT$3fmt17hc6db9c4561bb0640E', symObjAddr: 0xD2E0, symBinAddr: 0x100019558, symSize: 0x1C }
  - { offset: 0x41A5B, size: 0x8, addend: 0x0, symName: '__ZN70_$LT$core..num..error..TryFromIntError$u20$as$u20$core..fmt..Debug$GT$3fmt17heb63bc146d788e8fE', symObjAddr: 0x19870, symBinAddr: 0x1000252A8, symSize: 0x40 }
  - { offset: 0x41C01, size: 0x8, addend: 0x0, symName: '__ZN4core5array69_$LT$impl$u20$core..fmt..Debug$u20$for$u20$$u5b$T$u3b$$u20$N$u5d$$GT$3fmt17h705a2aa453ffacd4E', symObjAddr: 0x4BD8, symBinAddr: 0x100010FE8, symSize: 0xFC }
  - { offset: 0x4219C, size: 0x8, addend: 0x0, symName: '__ZN55_$LT$$RF$str$u20$as$u20$core..str..pattern..Pattern$GT$15is_contained_in17h07538af93eae73f4E', symObjAddr: 0xD2FC, symBinAddr: 0x100019574, symSize: 0x3BC }
  - { offset: 0x425BB, size: 0x8, addend: 0x0, symName: __ZN4core5panic12PanicPayload6as_str17h5cdc46f655586ed2E, symObjAddr: 0x4D7C, symBinAddr: 0x1000110E4, symSize: 0x14 }
  - { offset: 0x436EE, size: 0x8, addend: 0x0, symName: '__ZN4core3ops8function6FnOnce40call_once$u7b$$u7b$vtable.shim$u7d$$u7d$17h372dd670162a11a3E', symObjAddr: 0x1714, symBinAddr: 0x10000EA38, symSize: 0x18 }
  - { offset: 0x4373F, size: 0x8, addend: 0x0, symName: '__ZN4core3ops8function6FnOnce40call_once$u7b$$u7b$vtable.shim$u7d$$u7d$17h49be7b3161c92e51E', symObjAddr: 0x172C, symBinAddr: 0x10000EA50, symSize: 0x28 }
  - { offset: 0x4377B, size: 0x8, addend: 0x0, symName: '__ZN4core3ops8function6FnOnce40call_once$u7b$$u7b$vtable.shim$u7d$$u7d$17h4dbfbb5401248555E', symObjAddr: 0x1754, symBinAddr: 0x10000EA78, symSize: 0xA4 }
  - { offset: 0x438C1, size: 0x8, addend: 0x0, symName: '__ZN4core3ops8function6FnOnce40call_once$u7b$$u7b$vtable.shim$u7d$$u7d$17h59664865ad50834bE', symObjAddr: 0x17F8, symBinAddr: 0x10000EB1C, symSize: 0x10 }
  - { offset: 0x438FD, size: 0x8, addend: 0x0, symName: '__ZN4core3ops8function6FnOnce40call_once$u7b$$u7b$vtable.shim$u7d$$u7d$17h5dd18c650d3d28d5E', symObjAddr: 0x18B8, symBinAddr: 0x10000EB2C, symSize: 0x80 }
  - { offset: 0x43A92, size: 0x8, addend: 0x0, symName: '__ZN4core3ops8function6FnOnce40call_once$u7b$$u7b$vtable.shim$u7d$$u7d$17hb8f0a3a311886dd1E', symObjAddr: 0x194C, symBinAddr: 0x10000EBAC, symSize: 0x18 }
  - { offset: 0x43AE3, size: 0x8, addend: 0x0, symName: '__ZN4core3ops8function6FnOnce40call_once$u7b$$u7b$vtable.shim$u7d$$u7d$17hc37bdb1ed22c5dd7E', symObjAddr: 0x19E0, symBinAddr: 0x10000EBC4, symSize: 0x10 }
  - { offset: 0x43B1F, size: 0x8, addend: 0x0, symName: '__ZN4core3ops8function6FnOnce40call_once$u7b$$u7b$vtable.shim$u7d$$u7d$17heb56308df1374649E', symObjAddr: 0x19F0, symBinAddr: 0x10000EBD4, symSize: 0x60 }
  - { offset: 0x43C21, size: 0x8, addend: 0x0, symName: __ZN4core3ops8function6FnOnce9call_once17he5d2535e31b739dcE, symObjAddr: 0x1A78, symBinAddr: 0x10000EC34, symSize: 0x44 }
  - { offset: 0x46884, size: 0x8, addend: 0x0, symName: '__ZN4core4cell4once17OnceCell$LT$T$GT$8try_init17he4193c4098c349bdE', symObjAddr: 0x4A84, symBinAddr: 0x10004BF80, symSize: 0x154 }
  - { offset: 0x46D90, size: 0x8, addend: 0x0, symName: __ZN4core9panicking13assert_failed17h5ef480159103c8ebE, symObjAddr: 0xD1DC, symBinAddr: 0x10004C0D4, symSize: 0x34 }
  - { offset: 0x46DAB, size: 0x8, addend: 0x0, symName: __ZN4core9panicking13assert_failed17he664f25a4eeebf5cE, symObjAddr: 0xD234, symBinAddr: 0x10004C108, symSize: 0x24 }
  - { offset: 0x47263, size: 0x8, addend: 0x0, symName: __ZN3std9panicking11panic_count8increase17h1d24b79d4790a8a8E, symObjAddr: 0x3A9E8, symBinAddr: 0x100031B7C, symSize: 0x80 }
  - { offset: 0x4735A, size: 0x8, addend: 0x0, symName: __ZN3std9panicking11panic_count17is_zero_slow_path17hbb753c2ecca816a8E, symObjAddr: 0x3AB00, symBinAddr: 0x10004CADC, symSize: 0x2C }
  - { offset: 0x47490, size: 0x8, addend: 0x0, symName: ___rust_drop_panic, symObjAddr: 0x39FEC, symBinAddr: 0x1000313F4, symSize: 0xB8 }
  - { offset: 0x47682, size: 0x8, addend: 0x0, symName: ___rust_foreign_exception, symObjAddr: 0x3A0A4, symBinAddr: 0x1000314AC, symSize: 0xB8 }
  - { offset: 0x47874, size: 0x8, addend: 0x0, symName: __ZN3std9panicking12default_hook17ha0b223ccc4379930E, symObjAddr: 0x3A3D0, symBinAddr: 0x100031564, symSize: 0x1EC }
  - { offset: 0x47B15, size: 0x8, addend: 0x0, symName: '__ZN3std9panicking12default_hook28_$u7b$$u7b$closure$u7d$$u7d$17h5c3a234feebd11a5E', symObjAddr: 0x3A5BC, symBinAddr: 0x100031750, symSize: 0x1A8 }
  - { offset: 0x47CF9, size: 0x8, addend: 0x0, symName: '__ZN3std9panicking12default_hook28_$u7b$$u7b$closure$u7d$$u7d$28_$u7b$$u7b$closure$u7d$$u7d$17h2cb359aea37a8eccE', symObjAddr: 0x3A764, symBinAddr: 0x1000318F8, symSize: 0x284 }
  - { offset: 0x4816F, size: 0x8, addend: 0x0, symName: _rust_begin_unwind, symObjAddr: 0x3AB80, symBinAddr: 0x100031BFC, symSize: 0x20 }
  - { offset: 0x481D8, size: 0x8, addend: 0x0, symName: '__ZN102_$LT$std..panicking..begin_panic_handler..FormatStringPayload$u20$as$u20$core..panic..PanicPayload$GT$8take_box17hf9936339f9bb3e6eE', symObjAddr: 0x3ABA0, symBinAddr: 0x100031C1C, symSize: 0x110 }
  - { offset: 0x4846C, size: 0x8, addend: 0x0, symName: '__ZN102_$LT$std..panicking..begin_panic_handler..FormatStringPayload$u20$as$u20$core..panic..PanicPayload$GT$3get17h671f5c789103ccc6E', symObjAddr: 0x3ACB0, symBinAddr: 0x100031D2C, symSize: 0xB0 }
  - { offset: 0x485A5, size: 0x8, addend: 0x0, symName: '__ZN95_$LT$std..panicking..begin_panic_handler..FormatStringPayload$u20$as$u20$core..fmt..Display$GT$3fmt17h1a7e141a9fd2e841E', symObjAddr: 0x3AD60, symBinAddr: 0x100031DDC, symSize: 0x5C }
  - { offset: 0x486A2, size: 0x8, addend: 0x0, symName: '__ZN99_$LT$std..panicking..begin_panic_handler..StaticStrPayload$u20$as$u20$core..panic..PanicPayload$GT$8take_box17hfde794f38dfdff84E', symObjAddr: 0x3ADBC, symBinAddr: 0x100031E38, symSize: 0x50 }
  - { offset: 0x48719, size: 0x8, addend: 0x0, symName: '__ZN99_$LT$std..panicking..begin_panic_handler..StaticStrPayload$u20$as$u20$core..panic..PanicPayload$GT$3get17h40c5dcbca42c5d43E', symObjAddr: 0x3AE0C, symBinAddr: 0x100031E88, symSize: 0x18 }
  - { offset: 0x48734, size: 0x8, addend: 0x0, symName: '__ZN99_$LT$std..panicking..begin_panic_handler..StaticStrPayload$u20$as$u20$core..panic..PanicPayload$GT$6as_str17h36252a21ddc56c9bE', symObjAddr: 0x3AE24, symBinAddr: 0x100031EA0, symSize: 0x18 }
  - { offset: 0x48755, size: 0x8, addend: 0x0, symName: '__ZN92_$LT$std..panicking..begin_panic_handler..StaticStrPayload$u20$as$u20$core..fmt..Display$GT$3fmt17hd84ef799566d4562E', symObjAddr: 0x3AE3C, symBinAddr: 0x100031EB8, symSize: 0x1C }
  - { offset: 0x48771, size: 0x8, addend: 0x0, symName: '__ZN3std9panicking19begin_panic_handler28_$u7b$$u7b$closure$u7d$$u7d$17hcc8f653f753c0254E', symObjAddr: 0x3AE58, symBinAddr: 0x100031ED4, symSize: 0xC4 }
  - { offset: 0x488D9, size: 0x8, addend: 0x0, symName: __ZN3std9panicking14payload_as_str17h326c21158c3ccbd7E, symObjAddr: 0x3B008, symBinAddr: 0x100031F98, symSize: 0xB0 }
  - { offset: 0x489BD, size: 0x8, addend: 0x0, symName: __ZN3std9panicking20rust_panic_with_hook17h203f96c93e7ac62dE, symObjAddr: 0x3B0B8, symBinAddr: 0x100032048, symSize: 0x3F8 }
  - { offset: 0x491D0, size: 0x8, addend: 0x0, symName: _rust_panic, symObjAddr: 0x3B5E4, symBinAddr: 0x100032440, symSize: 0x60 }
  - { offset: 0x49216, size: 0x8, addend: 0x0, symName: __ZN3std7process7Command6output17h173f2f9f8e9cb0e1E, symObjAddr: 0x35188, symBinAddr: 0x10002FCF0, symSize: 0x2FC }
  - { offset: 0x497E7, size: 0x8, addend: 0x0, symName: __ZN3std7process7Command6status17h42155101bf061049E, symObjAddr: 0x35484, symBinAddr: 0x10002FFEC, symSize: 0x100 }
  - { offset: 0x49ACA, size: 0x8, addend: 0x0, symName: __ZN3std7process4exit17ha05bab7bcb206b5fE, symObjAddr: 0x35D80, symBinAddr: 0x1000300EC, symSize: 0x1C }
  - { offset: 0x49AE5, size: 0x8, addend: 0x0, symName: __ZN3std7process5abort17h5bdab09773b2c592E, symObjAddr: 0x35D9C, symBinAddr: 0x10004C580, symSize: 0xC }
  - { offset: 0x49B9D, size: 0x8, addend: 0x0, symName: __ZN3std4path4Path13_strip_prefix17h55294dff41b26308E, symObjAddr: 0x33B38, symBinAddr: 0x10002F52C, symSize: 0x21C }
  - { offset: 0x49CDD, size: 0x8, addend: 0x0, symName: __ZN3std4path4Path5_join17h516bc57fe1e4225dE, symObjAddr: 0x34358, symBinAddr: 0x10002F748, symSize: 0x1AC }
  - { offset: 0x4A165, size: 0x8, addend: 0x0, symName: __ZN3std4path4Path15_with_extension17haa19f7de3e3a3d99E, symObjAddr: 0x345F4, symBinAddr: 0x10002F8F4, symSize: 0x21C }
  - { offset: 0x4A63D, size: 0x8, addend: 0x0, symName: __ZN3std4path4Path6is_dir17h20b75fe60f4a529bE, symObjAddr: 0x34A14, symBinAddr: 0x10002FB10, symSize: 0x1C4 }
  - { offset: 0x4ABA9, size: 0x8, addend: 0x0, symName: __ZN3std4path10Components15len_before_body17ha7ee2271a8a6c6d9E, symObjAddr: 0x31DBC, symBinAddr: 0x10002E3EC, symSize: 0x188 }
  - { offset: 0x4ABC0, size: 0x8, addend: 0x0, symName: __ZN3std4path10Components15len_before_body17ha7ee2271a8a6c6d9E, symObjAddr: 0x31DBC, symBinAddr: 0x10002E3EC, symSize: 0x188 }
  - { offset: 0x4ABD5, size: 0x8, addend: 0x0, symName: __ZN3std4path10Components15len_before_body17ha7ee2271a8a6c6d9E, symObjAddr: 0x31DBC, symBinAddr: 0x10002E3EC, symSize: 0x188 }
  - { offset: 0x4ADB7, size: 0x8, addend: 0x0, symName: __ZN3std4path10Components7as_path17h6e25608fa8cb9557E, symObjAddr: 0x31F44, symBinAddr: 0x10002E574, symSize: 0x530 }
  - { offset: 0x4B28A, size: 0x8, addend: 0x0, symName: __ZN3std4path10Components25parse_next_component_back17h5239b6f3b65d70c8E, symObjAddr: 0x32474, symBinAddr: 0x10002EAA4, symSize: 0x120 }
  - { offset: 0x4B495, size: 0x8, addend: 0x0, symName: '__ZN80_$LT$std..path..Components$u20$as$u20$core..iter..traits..iterator..Iterator$GT$4next17h6e8b0f281526c929E', symObjAddr: 0x3272C, symBinAddr: 0x10002EBC4, symSize: 0x340 }
  - { offset: 0x4B7E4, size: 0x8, addend: 0x0, symName: '__ZN95_$LT$std..path..Components$u20$as$u20$core..iter..traits..double_ended..DoubleEndedIterator$GT$9next_back17h15500b5b5dde7decE', symObjAddr: 0x32A6C, symBinAddr: 0x10002EF04, symSize: 0x330 }
  - { offset: 0x4B93E, size: 0x8, addend: 0x0, symName: __ZN3std4path7PathBuf14_set_extension17hb490c0af28c20392E, symObjAddr: 0x333F4, symBinAddr: 0x10002F234, symSize: 0x2F8 }
  - { offset: 0x4C1B6, size: 0x8, addend: 0x0, symName: '__ZN57_$LT$std..path..Display$u20$as$u20$core..fmt..Display$GT$3fmt17h170d9e8eccce82d1E', symObjAddr: 0x34DEC, symBinAddr: 0x10002FCD4, symSize: 0x1C }
  - { offset: 0x4C21B, size: 0x8, addend: 0x0, symName: '__ZN61_$LT$std..path..Component$u20$as$u20$core..cmp..PartialEq$GT$2eq17h238f4f8a8cc29bb2E', symObjAddr: 0x3C0CC, symBinAddr: 0x100032B88, symSize: 0x138 }
  - { offset: 0x4C3E5, size: 0x8, addend: 0x0, symName: __ZN3std3sys3pal4unix2fs4File6open_c17h0a400570de534b0aE, symObjAddr: 0x3D220, symBinAddr: 0x1000330EC, symSize: 0x1B0 }
  - { offset: 0x4C583, size: 0x8, addend: 0x0, symName: '__ZN3std3sys3pal4unix2fs10DirBuilder5mkdir28_$u7b$$u7b$closure$u7d$$u7d$17hc543c477325c3fe6E', symObjAddr: 0x3D4E0, symBinAddr: 0x10003329C, symSize: 0x44 }
  - { offset: 0x4C627, size: 0x8, addend: 0x0, symName: '__ZN3std3sys3pal4unix2fs4stat28_$u7b$$u7b$closure$u7d$$u7d$17h74f038e96895fd65E', symObjAddr: 0x3E9C0, symBinAddr: 0x1000334BC, symSize: 0xAC }
  - { offset: 0x4C72F, size: 0x8, addend: 0x0, symName: '__ZN3std3sys3pal4unix2fs5lstat28_$u7b$$u7b$closure$u7d$$u7d$17h888985bf323491e0E', symObjAddr: 0x3EB90, symBinAddr: 0x100033568, symSize: 0xAC }
  - { offset: 0x4C82F, size: 0x8, addend: 0x0, symName: '__ZN91_$LT$std..sys..pal..unix..fs..ReadDir$u20$as$u20$core..iter..traits..iterator..Iterator$GT$4next17he1b3299a727d70eaE', symObjAddr: 0x3CD90, symBinAddr: 0x100032EE8, symSize: 0x138 }
  - { offset: 0x4CAD6, size: 0x8, addend: 0x0, symName: '__ZN70_$LT$std..sys..pal..unix..fs..Dir$u20$as$u20$core..ops..drop..Drop$GT$4drop17h2f7cbb54b209bd1fE', symObjAddr: 0x3CEC8, symBinAddr: 0x100033020, symSize: 0xCC }
  - { offset: 0x4CBC9, size: 0x8, addend: 0x0, symName: __ZN3std3sys3pal4unix2fs7readdir17h52c204b360126013E, symObjAddr: 0x3DAF4, symBinAddr: 0x1000332E0, symSize: 0x1A4 }
  - { offset: 0x4CE81, size: 0x8, addend: 0x0, symName: '__ZN3std3sys3pal4unix2fs6unlink28_$u7b$$u7b$closure$u7d$$u7d$17h7a9b839f7315f066E', symObjAddr: 0x3DD58, symBinAddr: 0x100033484, symSize: 0x38 }
  - { offset: 0x4CF54, size: 0x8, addend: 0x0, symName: __ZN3std3sys3pal4unix2fs15remove_dir_impl24remove_dir_all_recursive17h93307a87d593e741E, symObjAddr: 0x3F6DC, symBinAddr: 0x100033614, symSize: 0x34C }
  - { offset: 0x4D73A, size: 0x8, addend: 0x0, symName: '__ZN3std3sys3pal4unix2fs15remove_dir_impl21remove_dir_all_modern28_$u7b$$u7b$closure$u7d$$u7d$17hb9903b404a62fbd6E', symObjAddr: 0x3FA28, symBinAddr: 0x100033960, symSize: 0x18 }
  - { offset: 0x4D76B, size: 0x8, addend: 0x0, symName: __ZN3std3sys3pal4unix2fs15remove_dir_impl14remove_dir_all17h4671074b95de602cE, symObjAddr: 0x3FA40, symBinAddr: 0x100033978, symSize: 0x228 }
  - { offset: 0x4DAB2, size: 0x8, addend: 0x0, symName: __ZN3std3sys3pal4unix2fd8FileDesc11read_to_end17hb48365a6d7f4162dE, symObjAddr: 0x3C5C8, symBinAddr: 0x100032CC0, symSize: 0x228 }
  - { offset: 0x4DF47, size: 0x8, addend: 0x0, symName: __ZN3std3sys3pal4unix7process13process_inner7Process4wait17h3c2b205dcceaa54aE, symObjAddr: 0x44A18, symBinAddr: 0x100036A14, symSize: 0xA0 }
  - { offset: 0x4E0DE, size: 0x8, addend: 0x0, symName: __ZN3std3sys3pal4unix7process14process_common7Command3new17h1d046efb69807da0E, symObjAddr: 0x40DB4, symBinAddr: 0x1000343C8, symSize: 0x2C4 }
  - { offset: 0x4E648, size: 0x8, addend: 0x0, symName: __ZN3std3sys3pal4unix7process14process_common7Command3arg17h236ab9fd4e9e458bE, symObjAddr: 0x411AC, symBinAddr: 0x10003468C, symSize: 0x15C }
  - { offset: 0x4E9C1, size: 0x8, addend: 0x0, symName: __ZN3std3sys3pal4unix7process14process_common7Command6stderr17h5a6ca9550003fb6dE, symObjAddr: 0x414E4, symBinAddr: 0x1000347E8, symSize: 0x44 }
  - { offset: 0x4EA4A, size: 0x8, addend: 0x0, symName: __ZN3std3sys3pal4unix7process14process_common7Command11capture_env17h73b5aff2a246da54E, symObjAddr: 0x41528, symBinAddr: 0x10003482C, symSize: 0xA9C }
  - { offset: 0x50775, size: 0x8, addend: 0x0, symName: __ZN3std3sys3pal4unix7process14process_common7Command8setup_io17hcfeddda79479f9dfE, symObjAddr: 0x41FC4, symBinAddr: 0x1000352C8, symSize: 0x2F0 }
  - { offset: 0x50C2E, size: 0x8, addend: 0x0, symName: '__ZN3std3sys3pal4unix7process13process_inner71_$LT$impl$u20$std..sys..pal..unix..process..process_common..Command$GT$5spawn17hbb692d0a4a0abbffE', symObjAddr: 0x43CC4, symBinAddr: 0x100035D0C, symSize: 0x9A8 }
  - { offset: 0x51E82, size: 0x8, addend: 0x0, symName: '__ZN3std3sys3pal4unix7process13process_inner71_$LT$impl$u20$std..sys..pal..unix..process..process_common..Command$GT$7do_exec17he847cfd6d5f995b9E', symObjAddr: 0x4466C, symBinAddr: 0x1000366B4, symSize: 0x360 }
  - { offset: 0x527E3, size: 0x8, addend: 0x0, symName: __ZN3std3sys3pal4unix7process14process_common5Stdio14to_child_stdio17ha05e85644a02177cE, symObjAddr: 0x422B4, symBinAddr: 0x1000355B8, symSize: 0x15C }
  - { offset: 0x529E2, size: 0x8, addend: 0x0, symName: __ZN3std3sys3pal4unix2os5errno17h1e687568046dfc01E, symObjAddr: 0x3FC68, symBinAddr: 0x100033BA0, symSize: 0x18 }
  - { offset: 0x529F6, size: 0x8, addend: 0x0, symName: __ZN3std3sys3pal4unix2os13env_read_lock17h1370e80127ab09adE, symObjAddr: 0x400EC, symBinAddr: 0x100033BB8, symSize: 0x2EC }
  - { offset: 0x530A6, size: 0x8, addend: 0x0, symName: '__ZN3std3sys3pal4unix2os6getenv28_$u7b$$u7b$closure$u7d$$u7d$17h09d09dd30efbeda3E', symObjAddr: 0x403D8, symBinAddr: 0x100033EA4, symSize: 0x150 }
  - { offset: 0x532A3, size: 0x8, addend: 0x0, symName: __ZN3std3sys3pal4unix2os4exit17h7c0ecbf10d1fe1b5E, symObjAddr: 0x409E0, symBinAddr: 0x100033FF4, symSize: 0xC }
  - { offset: 0x53304, size: 0x8, addend: 0x0, symName: '__ZN69_$LT$std..sys..pal..unix..stdio..Stderr$u20$as$u20$std..io..Write$GT$5write17hf7eb28e2e3a5bd7dE', symObjAddr: 0x43178, symBinAddr: 0x100035AA4, symSize: 0x4C }
  - { offset: 0x533C5, size: 0x8, addend: 0x0, symName: '__ZN69_$LT$std..sys..pal..unix..stdio..Stderr$u20$as$u20$std..io..Write$GT$14write_vectored17h6899437ee14ad0e1E', symObjAddr: 0x431C4, symBinAddr: 0x100035AF0, symSize: 0x4C }
  - { offset: 0x53486, size: 0x8, addend: 0x0, symName: '__ZN69_$LT$std..sys..pal..unix..stdio..Stderr$u20$as$u20$std..io..Write$GT$17is_write_vectored17h9b2366713f7e1db9E', symObjAddr: 0x43210, symBinAddr: 0x100035B3C, symSize: 0x14 }
  - { offset: 0x534A0, size: 0x8, addend: 0x0, symName: '__ZN69_$LT$std..sys..pal..unix..stdio..Stderr$u20$as$u20$std..io..Write$GT$5flush17hd9b43cd37b405524E', symObjAddr: 0x43224, symBinAddr: 0x100035B50, symSize: 0x14 }
  - { offset: 0x53512, size: 0x8, addend: 0x0, symName: __ZN3std3sys3pal4unix4sync5mutex5Mutex4init17hdf1c4f248d85eb16E, symObjAddr: 0x43238, symBinAddr: 0x100035B64, symSize: 0x16C }
  - { offset: 0x535C9, size: 0x8, addend: 0x0, symName: __ZN3std3sys3pal4unix4sync5mutex5Mutex4lock4fail17h6819c36a4f036f8cE, symObjAddr: 0x433C0, symBinAddr: 0x10004CB60, symSize: 0xDC }
  - { offset: 0x53889, size: 0x8, addend: 0x0, symName: __ZN3std3sys3pal4unix14stack_overflow3imp14signal_handler17h2fa8e10590380ab0E, symObjAddr: 0x42C40, symBinAddr: 0x100035714, symSize: 0xB0 }
  - { offset: 0x5393A, size: 0x8, addend: 0x0, symName: '__ZN3std3sys3pal4unix14stack_overflow3imp14signal_handler28_$u7b$$u7b$closure$u7d$$u7d$17h58562be330c5529fE', symObjAddr: 0x42CF0, symBinAddr: 0x1000357C4, symSize: 0x100 }
  - { offset: 0x53B60, size: 0x8, addend: 0x0, symName: __ZN3std3sys3pal4unix14stack_overflow3imp12make_handler17ha0e2e74c0ff811adE, symObjAddr: 0x42DF0, symBinAddr: 0x1000358C4, symSize: 0x1E0 }
  - { offset: 0x53F0B, size: 0x8, addend: 0x0, symName: __ZN3std3sys3pal4unix4pipe8AnonPipe5write17h9d42360bb4720a56E, symObjAddr: 0x40B14, symBinAddr: 0x100034128, symSize: 0x48 }
  - { offset: 0x53FD3, size: 0x8, addend: 0x0, symName: __ZN3std3sys3pal4unix4pipe9anon_pipe17h3f2ef7b4629c71e8E, symObjAddr: 0x409EC, symBinAddr: 0x100034000, symSize: 0x128 }
  - { offset: 0x542C8, size: 0x8, addend: 0x0, symName: __ZN3std3sys3pal4unix4pipe5read217he4ec31afe54221baE, symObjAddr: 0x40B5C, symBinAddr: 0x100034170, symSize: 0x258 }
  - { offset: 0x547F6, size: 0x8, addend: 0x0, symName: '__ZN3std3sys3pal4unix4weak18DlsymWeak$LT$F$GT$10initialize17h5e388e39dc1ce791E', symObjAddr: 0x3C314, symBinAddr: 0x10004CB08, symSize: 0x58 }
  - { offset: 0x54886, size: 0x8, addend: 0x0, symName: __ZN3std3sys3pal4unix17decode_error_kind17h7a8628d240588c97E, symObjAddr: 0x43C48, symBinAddr: 0x100035CD0, symSize: 0x30 }
  - { offset: 0x548A0, size: 0x8, addend: 0x0, symName: __ZN3std3sys3pal4unix14abort_internal17h1f437a045e84c0acE, symObjAddr: 0x43C78, symBinAddr: 0x100035D00, symSize: 0xC }
  - { offset: 0x549A6, size: 0x8, addend: 0x0, symName: __ZN3std3sys3pal6common14small_c_string24run_with_cstr_allocating17h0222687f57b5b8d8E, symObjAddr: 0x378C4, symBinAddr: 0x10004C658, symSize: 0xAC }
  - { offset: 0x54B02, size: 0x8, addend: 0x0, symName: __ZN3std3sys3pal6common14small_c_string24run_with_cstr_allocating17h4f14323b58a959d9E, symObjAddr: 0x37970, symBinAddr: 0x10004C704, symSize: 0xBC }
  - { offset: 0x54CDE, size: 0x8, addend: 0x0, symName: __ZN3std3sys3pal6common14small_c_string24run_with_cstr_allocating17h757b93bb2bee65ffE, symObjAddr: 0x37AF8, symBinAddr: 0x10004C7C0, symSize: 0xD0 }
  - { offset: 0x54EA7, size: 0x8, addend: 0x0, symName: __ZN3std3sys3pal6common14small_c_string24run_with_cstr_allocating17h89545bf18b96ebe8E, symObjAddr: 0x37BC8, symBinAddr: 0x10004C890, symSize: 0x9C }
  - { offset: 0x55016, size: 0x8, addend: 0x0, symName: __ZN3std3sys3pal6common14small_c_string24run_with_cstr_allocating17hf540475ca51d3e7bE, symObjAddr: 0x37DE8, symBinAddr: 0x10004C92C, symSize: 0xC4 }
  - { offset: 0x55336, size: 0x8, addend: 0x0, symName: '__ZN69_$LT$std..sys..os_str..bytes..Slice$u20$as$u20$core..fmt..Display$GT$3fmt17h9ac75767c8ed01b2E', symObjAddr: 0x466F4, symBinAddr: 0x100036E4C, symSize: 0xA0 }
  - { offset: 0x55384, size: 0x8, addend: 0x0, symName: __ZN3std3sys6os_str5bytes5Slice21check_public_boundary9slow_path17h97dd09e607eb8f29E, symObjAddr: 0x468CC, symBinAddr: 0x100036EEC, symSize: 0x138 }
  - { offset: 0x5552F, size: 0x8, addend: 0x0, symName: '__ZN3std3sys11personality3gcc14find_eh_action28_$u7b$$u7b$closure$u7d$$u7d$17heb526fe46b317879E', symObjAddr: 0x44DB8, symBinAddr: 0x100036AB4, symSize: 0x18 }
  - { offset: 0x55543, size: 0x8, addend: 0x0, symName: '__ZN3std3sys11personality3gcc14find_eh_action28_$u7b$$u7b$closure$u7d$$u7d$17hdfacf1f5ab590eb6E', symObjAddr: 0x44DD0, symBinAddr: 0x100036ACC, symSize: 0x18 }
  - { offset: 0x55573, size: 0x8, addend: 0x0, symName: _rust_eh_personality, symObjAddr: 0x44DE8, symBinAddr: 0x100036AE4, symSize: 0x368 }
  - { offset: 0x558A8, size: 0x8, addend: 0x0, symName: __ZN3std3sys11personality5dwarf2eh19read_encoded_offset17he9cb5faabb9c188bE, symObjAddr: 0x3801C, symBinAddr: 0x100030444, symSize: 0x150 }
  - { offset: 0x55A0B, size: 0x8, addend: 0x0, symName: '__ZN3std3sys9backtrace10_print_fmt28_$u7b$$u7b$closure$u7d$$u7d$17h1863ed5b66499a89E', symObjAddr: 0x38458, symBinAddr: 0x100030880, symSize: 0x30 }
  - { offset: 0x55A34, size: 0x8, addend: 0x0, symName: '__ZN3std3sys9backtrace10_print_fmt28_$u7b$$u7b$closure$u7d$$u7d$17h49125cd88324db11E', symObjAddr: 0x38488, symBinAddr: 0x1000308B0, symSize: 0x134 }
  - { offset: 0x55B48, size: 0x8, addend: 0x0, symName: '__ZN3std3sys9backtrace10_print_fmt28_$u7b$$u7b$closure$u7d$$u7d$28_$u7b$$u7b$closure$u7d$$u7d$17heb5be01c54158345E', symObjAddr: 0x385BC, symBinAddr: 0x1000309E4, symSize: 0x25C }
  - { offset: 0x55D84, size: 0x8, addend: 0x0, symName: __ZN3std3sys9backtrace4lock17h6e02177f0f3558baE, symObjAddr: 0x3816C, symBinAddr: 0x100030594, symSize: 0x70 }
  - { offset: 0x55ECD, size: 0x8, addend: 0x0, symName: __ZN3std3sys9backtrace13BacktraceLock5print17h115149c0b879e5c3E, symObjAddr: 0x381DC, symBinAddr: 0x100030604, symSize: 0x54 }
  - { offset: 0x55F1A, size: 0x8, addend: 0x0, symName: '__ZN98_$LT$std..sys..backtrace..BacktraceLock..print..DisplayBacktrace$u20$as$u20$core..fmt..Display$GT$3fmt17h217270392019d164E', symObjAddr: 0x38230, symBinAddr: 0x100030658, symSize: 0x228 }
  - { offset: 0x5649C, size: 0x8, addend: 0x0, symName: __ZN3std3sys9backtrace26__rust_end_short_backtrace17h911de07218b69a6cE, symObjAddr: 0x38818, symBinAddr: 0x100030C40, symSize: 0xC }
  - { offset: 0x564B6, size: 0x8, addend: 0x0, symName: __ZN3std3sys9backtrace15output_filename17h988a0b5399b264d6E, symObjAddr: 0x38830, symBinAddr: 0x100030C4C, symSize: 0xFC }
  - { offset: 0x56687, size: 0x8, addend: 0x0, symName: '__ZN3std3sys4sync8once_box16OnceBox$LT$T$GT$10initialize17h482967fb77aa636aE', symObjAddr: 0x3899C, symBinAddr: 0x10004C9F0, symSize: 0xEC }
  - { offset: 0x5697D, size: 0x8, addend: 0x0, symName: __ZN3std3sys4sync6rwlock5queue6RwLock21read_unlock_contended17ha1da939695eb68a4E, symObjAddr: 0x479D0, symBinAddr: 0x10004CD9C, symSize: 0x50 }
  - { offset: 0x56AED, size: 0x8, addend: 0x0, symName: __ZN3std3sys4sync6rwlock5queue6RwLock16unlock_contended17hb1bda0f6c9583d94E, symObjAddr: 0x47A20, symBinAddr: 0x10004CDEC, symSize: 0x50 }
  - { offset: 0x56BC9, size: 0x8, addend: 0x0, symName: __ZN3std3sys4sync6rwlock5queue6RwLock12unlock_queue17h1e38a16940d3a0e6E, symObjAddr: 0x47B84, symBinAddr: 0x1000372D0, symSize: 0x1D8 }
  - { offset: 0x57316, size: 0x8, addend: 0x0, symName: __ZN3std3sys4sync6rwlock5queue9read_lock17h02feed94edb2ee18E, symObjAddr: 0x47710, symBinAddr: 0x1000372A4, symSize: 0x2C }
  - { offset: 0x573F1, size: 0x8, addend: 0x0, symName: __ZN3std3sys4sync4once5queue4Once4call17hc1cbcad9bb87275cE, symObjAddr: 0x47310, symBinAddr: 0x10004CC3C, symSize: 0x160 }
  - { offset: 0x57519, size: 0x8, addend: 0x0, symName: __ZN3std3sys4sync4once5queue4wait17h58ee39f231bfccb9E, symObjAddr: 0x47470, symBinAddr: 0x100037024, symSize: 0x198 }
  - { offset: 0x57A95, size: 0x8, addend: 0x0, symName: '__ZN82_$LT$std..sys..sync..once..queue..WaiterQueue$u20$as$u20$core..ops..drop..Drop$GT$4drop17h45f863b67fd27f71E', symObjAddr: 0x47608, symBinAddr: 0x1000371BC, symSize: 0xE8 }
  - { offset: 0x57CF3, size: 0x8, addend: 0x0, symName: '__ZN3std3sys12thread_local6native4lazy20Storage$LT$T$C$D$GT$10initialize17h61fa4697cd48c6f6E', symObjAddr: 0x47E24, symBinAddr: 0x10004CE3C, symSize: 0xC0 }
  - { offset: 0x57EE9, size: 0x8, addend: 0x0, symName: __ZN3std3sys12thread_local6native4lazy7destroy17h26d4ae6c1bac34fbE, symObjAddr: 0x47EE4, symBinAddr: 0x1000374A8, symSize: 0x54 }
  - { offset: 0x58057, size: 0x8, addend: 0x0, symName: __ZN3std3sys12thread_local5guard5apple6enable9run_dtors17h15022dedc81e5063E, symObjAddr: 0x4807C, symBinAddr: 0x100037640, symSize: 0x13C }
  - { offset: 0x585B1, size: 0x8, addend: 0x0, symName: __ZN3std3sys12thread_local11destructors4list8register17h51fb0c77f8b321e6E, symObjAddr: 0x47F38, symBinAddr: 0x1000374FC, symSize: 0x144 }
  - { offset: 0x58BF5, size: 0x8, addend: 0x0, symName: '__ZN62_$LT$std..ffi..os_str..Display$u20$as$u20$core..fmt..Debug$GT$3fmt17h939ff389e0b3b6aaE', symObjAddr: 0x23954, symBinAddr: 0x10002B828, symSize: 0x28 }
  - { offset: 0x58DA3, size: 0x8, addend: 0x0, symName: '__ZN80_$LT$std..io..Write..write_fmt..Adapter$LT$T$GT$$u20$as$u20$core..fmt..Write$GT$9write_str17h0698cdf4cfa713e8E', symObjAddr: 0x2D538, symBinAddr: 0x10002E018, symSize: 0xD8 }
  - { offset: 0x58EF6, size: 0x8, addend: 0x0, symName: '__ZN80_$LT$std..io..Write..write_fmt..Adapter$LT$T$GT$$u20$as$u20$core..fmt..Write$GT$9write_str17h1c13ca75cd138050E', symObjAddr: 0x2D610, symBinAddr: 0x10002E0F0, symSize: 0x50 }
  - { offset: 0x58F20, size: 0x8, addend: 0x0, symName: '__ZN80_$LT$std..io..Write..write_fmt..Adapter$LT$T$GT$$u20$as$u20$core..fmt..Write$GT$9write_str17h58a4ca428f95c900E', symObjAddr: 0x2D738, symBinAddr: 0x10002E140, symSize: 0xD0 }
  - { offset: 0x590D6, size: 0x8, addend: 0x0, symName: '__ZN80_$LT$std..io..Write..write_fmt..Adapter$LT$T$GT$$u20$as$u20$core..fmt..Write$GT$9write_str17h6eb5a36b1832c95eE', symObjAddr: 0x2D808, symBinAddr: 0x10002E210, symSize: 0x80 }
  - { offset: 0x59222, size: 0x8, addend: 0x0, symName: '__ZN80_$LT$std..io..Write..write_fmt..Adapter$LT$T$GT$$u20$as$u20$core..fmt..Write$GT$9write_str17h9332c52dc6603167E', symObjAddr: 0x2D888, symBinAddr: 0x10002E290, symSize: 0x50 }
  - { offset: 0x59294, size: 0x8, addend: 0x0, symName: __ZN3std2io5Write9write_all17h87bc481c06d6b6c7E, symObjAddr: 0x2CC10, symBinAddr: 0x10002D6F0, symSize: 0xB8 }
  - { offset: 0x593C4, size: 0x8, addend: 0x0, symName: __ZN3std2io5Write18write_all_vectored17h0d3be626dc41da2eE, symObjAddr: 0x2CCC8, symBinAddr: 0x10002D7A8, symSize: 0x264 }
  - { offset: 0x5986C, size: 0x8, addend: 0x0, symName: __ZN3std2io5Write18write_all_vectored17h0f11e99192ac0da3E, symObjAddr: 0x2CF2C, symBinAddr: 0x10002DA0C, symSize: 0x2A0 }
  - { offset: 0x59D0A, size: 0x8, addend: 0x0, symName: __ZN3std2io5Write9write_fmt17h6564db7565ec4928E, symObjAddr: 0x2D1CC, symBinAddr: 0x10002DCAC, symSize: 0x124 }
  - { offset: 0x59F1E, size: 0x8, addend: 0x0, symName: __ZN3std2io5Write9write_fmt17h6e471a53cbe47e27E, symObjAddr: 0x2D2F0, symBinAddr: 0x10002DDD0, symSize: 0x124 }
  - { offset: 0x5A132, size: 0x8, addend: 0x0, symName: __ZN3std2io5Write9write_fmt17hb32eaafcfd249a19E, symObjAddr: 0x2D414, symBinAddr: 0x10002DEF4, symSize: 0x124 }
  - { offset: 0x5A35F, size: 0x8, addend: 0x0, symName: '__ZN3std2io5impls74_$LT$impl$u20$std..io..Write$u20$for$u20$alloc..vec..Vec$LT$u8$C$A$GT$$GT$5write17hf1a6df91b3a9c331E', symObjAddr: 0x2731C, symBinAddr: 0x10002C71C, symSize: 0x84 }
  - { offset: 0x5A4A4, size: 0x8, addend: 0x0, symName: '__ZN3std2io5impls74_$LT$impl$u20$std..io..Write$u20$for$u20$alloc..vec..Vec$LT$u8$C$A$GT$$GT$14write_vectored17h935681c1f031c204E', symObjAddr: 0x273A0, symBinAddr: 0x10002C7A0, symSize: 0x174 }
  - { offset: 0x5A6F1, size: 0x8, addend: 0x0, symName: '__ZN3std2io5impls74_$LT$impl$u20$std..io..Write$u20$for$u20$alloc..vec..Vec$LT$u8$C$A$GT$$GT$17is_write_vectored17h4055b148f544ec6cE', symObjAddr: 0x27514, symBinAddr: 0x10002C914, symSize: 0x14 }
  - { offset: 0x5A70C, size: 0x8, addend: 0x0, symName: '__ZN3std2io5impls74_$LT$impl$u20$std..io..Write$u20$for$u20$alloc..vec..Vec$LT$u8$C$A$GT$$GT$9write_all17h8667482891c5bc01E', symObjAddr: 0x27528, symBinAddr: 0x10002C928, symSize: 0x80 }
  - { offset: 0x5A84A, size: 0x8, addend: 0x0, symName: '__ZN3std2io5impls74_$LT$impl$u20$std..io..Write$u20$for$u20$alloc..vec..Vec$LT$u8$C$A$GT$$GT$5flush17h1aa70c4ce0391c44E', symObjAddr: 0x275A8, symBinAddr: 0x10002C9A8, symSize: 0x14 }
  - { offset: 0x5AA73, size: 0x8, addend: 0x0, symName: __ZN3std2io5error14repr_bitpacked11decode_repr17h37cbf447dd36b64bE, symObjAddr: 0x26A7C, symBinAddr: 0x10002C210, symSize: 0x64 }
  - { offset: 0x5AAE2, size: 0x8, addend: 0x0, symName: '__ZN58_$LT$std..io..error..Error$u20$as$u20$core..fmt..Debug$GT$3fmt17h4ed4286e752207faE', symObjAddr: 0x26AE0, symBinAddr: 0x10002C274, symSize: 0x10 }
  - { offset: 0x5AB15, size: 0x8, addend: 0x0, symName: '__ZN3std2io5error83_$LT$impl$u20$core..fmt..Debug$u20$for$u20$std..io..error..repr_bitpacked..Repr$GT$3fmt17h65ae83bc7dc9681bE', symObjAddr: 0x26D88, symBinAddr: 0x10002C284, symSize: 0x294 }
  - { offset: 0x5AD60, size: 0x8, addend: 0x0, symName: '__ZN60_$LT$std..io..error..Error$u20$as$u20$core..fmt..Display$GT$3fmt17h9bd80ee0c1811a25E', symObjAddr: 0x2701C, symBinAddr: 0x10002C518, symSize: 0x204 }
  - { offset: 0x5AFBF, size: 0x8, addend: 0x0, symName: '__ZN62_$LT$std..io..error..ErrorKind$u20$as$u20$core..fmt..Debug$GT$3fmt17h219a5c9d2c7eda43E', symObjAddr: 0x3C098, symBinAddr: 0x100032B54, symSize: 0x34 }
  - { offset: 0x5AFF7, size: 0x8, addend: 0x0, symName: '__ZN3std2io8buffered9bufwriter18BufWriter$LT$W$GT$9flush_buf17h4bdccd2184fd8b56E', symObjAddr: 0x25FE4, symBinAddr: 0x10002C00C, symSize: 0x204 }
  - { offset: 0x5B5AD, size: 0x8, addend: 0x0, symName: '__ZN3std2io8buffered9bufwriter18BufWriter$LT$W$GT$14write_all_cold17h03d13fe4cf302958E', symObjAddr: 0x26374, symBinAddr: 0x10004C458, symSize: 0x128 }
  - { offset: 0x5B9EE, size: 0x8, addend: 0x0, symName: '__ZN61_$LT$$RF$std..io..stdio..Stdout$u20$as$u20$std..io..Write$GT$9write_fmt17h14426c11ecd17a4cE', symObjAddr: 0x2A280, symBinAddr: 0x10002C9BC, symSize: 0x18C }
  - { offset: 0x5BDE8, size: 0x8, addend: 0x0, symName: '__ZN61_$LT$std..io..stdio..StdoutLock$u20$as$u20$std..io..Write$GT$9write_all17hdf550e962fae6ee2E', symObjAddr: 0x2A744, symBinAddr: 0x10002CB48, symSize: 0x268 }
  - { offset: 0x5C5C3, size: 0x8, addend: 0x0, symName: __ZN3std2io5stdio6Stderr4lock17ha6b178440672670eE, symObjAddr: 0x2ACBC, symBinAddr: 0x10002CDB0, symSize: 0xF0 }
  - { offset: 0x5C891, size: 0x8, addend: 0x0, symName: '__ZN61_$LT$$RF$std..io..stdio..Stderr$u20$as$u20$std..io..Write$GT$9write_fmt17ha56b45c3f48c9806E', symObjAddr: 0x2B43C, symBinAddr: 0x10002CEA0, symSize: 0x18C }
  - { offset: 0x5CC77, size: 0x8, addend: 0x0, symName: '__ZN61_$LT$std..io..stdio..StderrLock$u20$as$u20$std..io..Write$GT$9write_all17hc3e90b133b2e80baE', symObjAddr: 0x2B7D4, symBinAddr: 0x10002D02C, symSize: 0x114 }
  - { offset: 0x5D018, size: 0x8, addend: 0x0, symName: __ZN3std2io5stdio22try_set_output_capture17h3c34954bc62c0e61E, symObjAddr: 0x2BA8C, symBinAddr: 0x10002D140, symSize: 0xF4 }
  - { offset: 0x5D26B, size: 0x8, addend: 0x0, symName: __ZN3std2io5stdio31print_to_buffer_if_capture_used17h604f8acf6a08e2ebE, symObjAddr: 0x2BB80, symBinAddr: 0x10002D234, symSize: 0x20C }
  - { offset: 0x5D976, size: 0x8, addend: 0x0, symName: __ZN3std2io5stdio6_print17h6200d46cef53dee1E, symObjAddr: 0x2BE5C, symBinAddr: 0x10002D440, symSize: 0xE4 }
  - { offset: 0x5DA7D, size: 0x8, addend: 0x0, symName: __ZN3std2io5stdio7_eprint17h61ee588629882875E, symObjAddr: 0x2BF40, symBinAddr: 0x10002D524, symSize: 0xC8 }
  - { offset: 0x5DB37, size: 0x8, addend: 0x0, symName: __ZN3std2io19default_read_to_end16small_probe_read17heb774478ee1d979dE, symObjAddr: 0x2CA8C, symBinAddr: 0x10002D5EC, symSize: 0x104 }
  - { offset: 0x5DD75, size: 0x8, addend: 0x0, symName: '__ZN3std4sync6poison4once4Once15call_once_force28_$u7b$$u7b$closure$u7d$$u7d$17hb663b4fc9d65cdd9E', symObjAddr: 0x36574, symBinAddr: 0x100030364, symSize: 0x60 }
  - { offset: 0x5DE57, size: 0x8, addend: 0x0, symName: '__ZN3std4sync6poison4once4Once15call_once_force28_$u7b$$u7b$closure$u7d$$u7d$17hdc9b4573ce8ff5c2E', symObjAddr: 0x365D4, symBinAddr: 0x1000303C4, symSize: 0x80 }
  - { offset: 0x5DFC5, size: 0x8, addend: 0x0, symName: '__ZN3std4sync6poison4once4Once9call_once28_$u7b$$u7b$closure$u7d$$u7d$17h972e10e961241d2eE', symObjAddr: 0x36114, symBinAddr: 0x100030108, symSize: 0x25C }
  - { offset: 0x5EA18, size: 0x8, addend: 0x0, symName: '__ZN3std4sync9once_lock17OnceLock$LT$T$GT$10initialize17h5a4e2f750c24f788E', symObjAddr: 0x37008, symBinAddr: 0x10004C58C, symSize: 0x64 }
  - { offset: 0x5EA43, size: 0x8, addend: 0x0, symName: '__ZN3std4sync9once_lock17OnceLock$LT$T$GT$10initialize17h5a4e2f750c24f788E', symObjAddr: 0x37008, symBinAddr: 0x10004C58C, symSize: 0x64 }
  - { offset: 0x5EA57, size: 0x8, addend: 0x0, symName: '__ZN3std4sync9once_lock17OnceLock$LT$T$GT$10initialize17h5a4e2f750c24f788E', symObjAddr: 0x37008, symBinAddr: 0x10004C58C, symSize: 0x64 }
  - { offset: 0x5EA6B, size: 0x8, addend: 0x0, symName: '__ZN3std4sync9once_lock17OnceLock$LT$T$GT$10initialize17h5a4e2f750c24f788E', symObjAddr: 0x37008, symBinAddr: 0x10004C58C, symSize: 0x64 }
  - { offset: 0x5EA81, size: 0x8, addend: 0x0, symName: '__ZN3std4sync9once_lock17OnceLock$LT$T$GT$10initialize17hde8bf60cb9cf1a08E', symObjAddr: 0x3706C, symBinAddr: 0x10004C5F0, symSize: 0x68 }
  - { offset: 0x5EAAC, size: 0x8, addend: 0x0, symName: '__ZN3std4sync9once_lock17OnceLock$LT$T$GT$10initialize17hde8bf60cb9cf1a08E', symObjAddr: 0x3706C, symBinAddr: 0x10004C5F0, symSize: 0x68 }
  - { offset: 0x5EAC0, size: 0x8, addend: 0x0, symName: '__ZN3std4sync9once_lock17OnceLock$LT$T$GT$10initialize17hde8bf60cb9cf1a08E', symObjAddr: 0x3706C, symBinAddr: 0x10004C5F0, symSize: 0x68 }
  - { offset: 0x5EAD4, size: 0x8, addend: 0x0, symName: '__ZN3std4sync9once_lock17OnceLock$LT$T$GT$10initialize17hde8bf60cb9cf1a08E', symObjAddr: 0x3706C, symBinAddr: 0x10004C5F0, symSize: 0x68 }
  - { offset: 0x5EBE8, size: 0x8, addend: 0x0, symName: __ZN3std2rt7cleanup17h86c325d09ea91503E, symObjAddr: 0x1EE40, symBinAddr: 0x10002A75C, symSize: 0x64 }
  - { offset: 0x5EC0B, size: 0x8, addend: 0x0, symName: __ZN3std2rt7cleanup17h86c325d09ea91503E, symObjAddr: 0x1EE40, symBinAddr: 0x10002A75C, symSize: 0x64 }
  - { offset: 0x5EC1F, size: 0x8, addend: 0x0, symName: __ZN3std2rt7cleanup17h86c325d09ea91503E, symObjAddr: 0x1EE40, symBinAddr: 0x10002A75C, symSize: 0x64 }
  - { offset: 0x5EC33, size: 0x8, addend: 0x0, symName: __ZN3std2rt7cleanup17h86c325d09ea91503E, symObjAddr: 0x1EE40, symBinAddr: 0x10002A75C, symSize: 0x64 }
  - { offset: 0x5ECA9, size: 0x8, addend: 0x0, symName: __ZN3std2rt19lang_start_internal17h95cf27b851151b9cE, symObjAddr: 0x1EEA4, symBinAddr: 0x10002A7C0, symSize: 0x684 }
  - { offset: 0x5F8D5, size: 0x8, addend: 0x0, symName: __ZN3std12backtrace_rs9symbolize5gimli7Context3new17h596fdfe772dc2bb6E, symObjAddr: 0x482F4, symBinAddr: 0x100037808, symSize: 0x2410 }
  - { offset: 0x63796, size: 0x8, addend: 0x0, symName: __ZN3std12backtrace_rs9symbolize5gimli7Context11find_frames17h5933b96d93a6487fE, symObjAddr: 0x4A704, symBinAddr: 0x100039C18, symSize: 0x37C }
  - { offset: 0x63C2A, size: 0x8, addend: 0x0, symName: __ZN3std12backtrace_rs9symbolize5gimli5macho6Object5parse17h7c99ba302784e02bE, symObjAddr: 0x4D518, symBinAddr: 0x10003C9FC, symSize: 0xBD0 }
  - { offset: 0x65AE9, size: 0x8, addend: 0x0, symName: __ZN3std12backtrace_rs9symbolize5gimli5macho6Object7section17h7775decf80db3f1dE, symObjAddr: 0x4E0E8, symBinAddr: 0x10003D5CC, symSize: 0x3A0 }
  - { offset: 0x65FBF, size: 0x8, addend: 0x0, symName: __ZN3std12backtrace_rs9symbolize5gimli5macho11find_header17hcafb8c4177e72185E, symObjAddr: 0x4D344, symBinAddr: 0x10003C828, symSize: 0x1D4 }
  - { offset: 0x666C2, size: 0x8, addend: 0x0, symName: __ZN3std12backtrace_rs9symbolize5gimli4mmap17h52426abb42b033dbE, symObjAddr: 0x4AA80, symBinAddr: 0x100039F94, symSize: 0x160 }
  - { offset: 0x66CD8, size: 0x8, addend: 0x0, symName: __ZN3std12backtrace_rs9symbolize5gimli7resolve17h4e500df68d74bbd0E, symObjAddr: 0x4ABE0, symBinAddr: 0x10003A0F4, symSize: 0x2734 }
  - { offset: 0x6CCE3, size: 0x8, addend: 0x0, symName: __ZN3std12backtrace_rs9symbolize6Symbol4name17hfe1d12d8092fe441E, symObjAddr: 0x3B724, symBinAddr: 0x1000324A0, symSize: 0xE4 }
  - { offset: 0x6CE1E, size: 0x8, addend: 0x0, symName: '__ZN79_$LT$std..backtrace_rs..symbolize..SymbolName$u20$as$u20$core..fmt..Display$GT$3fmt17hebc8fecc1f34ea4cE', symObjAddr: 0x3B948, symBinAddr: 0x100032584, symSize: 0x100 }
  - { offset: 0x6CF5C, size: 0x8, addend: 0x0, symName: __ZN3std12backtrace_rs9backtrace9libunwind5trace8trace_fn17h8dbf4a7a3c414c4fE, symObjAddr: 0x482AC, symBinAddr: 0x1000377C0, symSize: 0x48 }
  - { offset: 0x6D03B, size: 0x8, addend: 0x0, symName: __ZN3std12backtrace_rs5print17BacktraceFrameFmt21print_raw_with_column17h4b2c8f5f934c00c0E, symObjAddr: 0x3BB48, symBinAddr: 0x100032684, symSize: 0x4D0 }
  - { offset: 0x6D33F, size: 0x8, addend: 0x0, symName: __ZN3std6thread7current16try_with_current17h38cb00b0189d4132E, symObjAddr: 0x1F754, symBinAddr: 0x10002AE44, symSize: 0x98 }
  - { offset: 0x6D473, size: 0x8, addend: 0x0, symName: __ZN3std6thread7current12init_current17hb7b435bd17801980E, symObjAddr: 0x1F900, symBinAddr: 0x10004C2A4, symSize: 0x17C }
  - { offset: 0x6D83F, size: 0x8, addend: 0x0, symName: __ZN3std6thread6Thread3new17h37ed5d6af114daceE, symObjAddr: 0x20814, symBinAddr: 0x10002AFD8, symSize: 0x164 }
  - { offset: 0x6DD0A, size: 0x8, addend: 0x0, symName: '__ZN118_$LT$std..thread..thread_name_string..ThreadNameString$u20$as$u20$core..convert..From$LT$alloc..string..String$GT$$GT$4from17h83ebc56d52812e83E', symObjAddr: 0x20718, symBinAddr: 0x10002AEDC, symSize: 0xFC }
  - { offset: 0x6DEF5, size: 0x8, addend: 0x0, symName: __ZN3std6thread8ThreadId3new9exhausted17h1c0c206286c216f1E, symObjAddr: 0x206E0, symBinAddr: 0x10004C420, symSize: 0x38 }
  - { offset: 0x6DFDE, size: 0x8, addend: 0x0, symName: __ZN3std5panic19get_backtrace_style17hb0947c7d43e173b3E, symObjAddr: 0x31B78, symBinAddr: 0x10002E2E0, symSize: 0x10C }
  - { offset: 0x6DFFC, size: 0x8, addend: 0x0, symName: __ZN3std5panic19get_backtrace_style17hb0947c7d43e173b3E, symObjAddr: 0x31B78, symBinAddr: 0x10002E2E0, symSize: 0x10C }
  - { offset: 0x6E011, size: 0x8, addend: 0x0, symName: __ZN3std5panic19get_backtrace_style17hb0947c7d43e173b3E, symObjAddr: 0x31B78, symBinAddr: 0x10002E2E0, symSize: 0x10C }
  - { offset: 0x6E425, size: 0x8, addend: 0x0, symName: __ZN3std3env11current_dir17h378d2e00353b8c55E, symObjAddr: 0x21D9C, symBinAddr: 0x10002B13C, symSize: 0x1D0 }
  - { offset: 0x6E79E, size: 0x8, addend: 0x0, symName: __ZN3std3env7vars_os17h852cf544c003c314E, symObjAddr: 0x21F7C, symBinAddr: 0x10002B30C, symSize: 0x314 }
  - { offset: 0x6EE21, size: 0x8, addend: 0x0, symName: __ZN3std3env4_var17hedb8b309980f1fb0E, symObjAddr: 0x225F0, symBinAddr: 0x10002B620, symSize: 0xA8 }
  - { offset: 0x6EF1D, size: 0x8, addend: 0x0, symName: __ZN3std3env7_var_os17h91cf52b19c1ae9d5E, symObjAddr: 0x22698, symBinAddr: 0x10002B6C8, symSize: 0x160 }
  - { offset: 0x6F1E0, size: 0x8, addend: 0x0, symName: __ZN3std2fs11OpenOptions5_open17h060c4979cd359a16E, symObjAddr: 0x24BC4, symBinAddr: 0x10002B850, symSize: 0x250 }
  - { offset: 0x6F3ED, size: 0x8, addend: 0x0, symName: __ZN3std2fs10DirBuilder7_create17hf281c1ae0d793bbaE, symObjAddr: 0x25514, symBinAddr: 0x10002BAA0, symSize: 0xC8 }
  - { offset: 0x6F506, size: 0x8, addend: 0x0, symName: __ZN3std2fs10DirBuilder14create_dir_all17h348e59558a15ded2E, symObjAddr: 0x255DC, symBinAddr: 0x10002BB68, symSize: 0x4A4 }
  - { offset: 0x6FCE4, size: 0x8, addend: 0x0, symName: __ZN3std10sys_common7process10CommandEnv6remove17hf371d8ce998e842cE, symObjAddr: 0x38F98, symBinAddr: 0x100030D48, symSize: 0x3B4 }
  - { offset: 0x70886, size: 0x8, addend: 0x0, symName: __ZN3std5alloc24default_alloc_error_hook17h2ab9053c5916c535E, symObjAddr: 0x39CF4, symBinAddr: 0x1000310FC, symSize: 0x13C }
  - { offset: 0x70AC9, size: 0x8, addend: 0x0, symName: ___rdl_alloc, symObjAddr: 0x39E30, symBinAddr: 0x100031238, symSize: 0x6C }
  - { offset: 0x70B45, size: 0x8, addend: 0x0, symName: ___rdl_dealloc, symObjAddr: 0x39E9C, symBinAddr: 0x1000312A4, symSize: 0x10 }
  - { offset: 0x70B75, size: 0x8, addend: 0x0, symName: ___rdl_realloc, symObjAddr: 0x39EAC, symBinAddr: 0x1000312B4, symSize: 0xB0 }
  - { offset: 0x70C47, size: 0x8, addend: 0x0, symName: ___rdl_alloc_zeroed, symObjAddr: 0x39F5C, symBinAddr: 0x100031364, symSize: 0x90 }
  - { offset: 0x70CE5, size: 0x8, addend: 0x0, symName: __ZN3std5alloc8rust_oom17hb46c5aeb63fa3cb5E, symObjAddr: 0x481B8, symBinAddr: 0x10003777C, symSize: 0x2C }
  - { offset: 0x70D34, size: 0x8, addend: 0x0, symName: ___rg_oom, symObjAddr: 0x481E4, symBinAddr: 0x1000377A8, symSize: 0x18 }
  - { offset: 0x70E7B, size: 0x8, addend: 0x0, symName: '__ZN5gimli4read4unit32AttributeValue$LT$R$C$Offset$GT$11udata_value17h2b61cc9b6a98fb32E', symObjAddr: 0x14DE0, symBinAddr: 0x100020C6C, symSize: 0x90 }
  - { offset: 0x70ED6, size: 0x8, addend: 0x0, symName: __ZN5gimli4read4unit15parse_attribute17h49f957a62d462029E, symObjAddr: 0x130AC, symBinAddr: 0x10001EF38, symSize: 0xF74 }
  - { offset: 0x73BC9, size: 0x8, addend: 0x0, symName: __ZN5gimli4read4unit15skip_attributes17h31562773efeee2f1E, symObjAddr: 0x14020, symBinAddr: 0x10001FEAC, symSize: 0x52C }
  - { offset: 0x745EB, size: 0x8, addend: 0x0, symName: '__ZN5gimli4read4unit18Attribute$LT$R$GT$5value17hbc90a819c686a39aE', symObjAddr: 0x1454C, symBinAddr: 0x1000203D8, symSize: 0x5DC }
  - { offset: 0x74B90, size: 0x8, addend: 0x0, symName: '__ZN5gimli4read4unit22EntriesCursor$LT$R$GT$10next_entry17hdf28d3cec3327cb6E', symObjAddr: 0x14B28, symBinAddr: 0x1000209B4, symSize: 0x2B8 }
  - { offset: 0x75186, size: 0x8, addend: 0x0, symName: '__ZN5gimli4read4unit33DebugInfoUnitHeadersIter$LT$R$GT$4next17h34712ebaabdffee4E', symObjAddr: 0x14E70, symBinAddr: 0x100020CFC, symSize: 0x524 }
  - { offset: 0x762BF, size: 0x8, addend: 0x0, symName: '__ZN90_$LT$gimli..read..unit..AttributeValue$LT$R$C$Offset$GT$$u20$as$u20$core..clone..Clone$GT$5clone17h20eda0c245e8425dE', symObjAddr: 0x19914, symBinAddr: 0x1000252E8, symSize: 0x68 }
  - { offset: 0x76510, size: 0x8, addend: 0x0, symName: __ZN5gimli4read6reader6Reader11read_offset17hb66bf69f998efb74E, symObjAddr: 0x179B8, symBinAddr: 0x100023844, symSize: 0xBC }
  - { offset: 0x7674C, size: 0x8, addend: 0x0, symName: __ZN5gimli4read6reader6Reader12read_sleb12817hd93e25793436fd15E, symObjAddr: 0x17A74, symBinAddr: 0x100023900, symSize: 0x21C }
  - { offset: 0x7683C, size: 0x8, addend: 0x0, symName: __ZN5gimli4read6reader6Reader12read_uleb12817ha415c724c08e32b4E, symObjAddr: 0x17C90, symBinAddr: 0x100023B1C, symSize: 0xB0 }
  - { offset: 0x768F2, size: 0x8, addend: 0x0, symName: __ZN5gimli4read6reader6Reader17read_sized_offset17hbf387c98074d1971E, symObjAddr: 0x17D40, symBinAddr: 0x100023BCC, symSize: 0xEC }
  - { offset: 0x76D05, size: 0x8, addend: 0x0, symName: __ZN5gimli4read4line13parse_file_v517hcd59a31a0bc27fa9E, symObjAddr: 0x11F1C, symBinAddr: 0x10001DDA8, symSize: 0x2B4 }
  - { offset: 0x76E7D, size: 0x8, addend: 0x0, symName: __ZN5gimli4read4line15FileEntryFormat5parse17he68be02eb21a6f6cE, symObjAddr: 0x121D0, symBinAddr: 0x10001E05C, symSize: 0x370 }
  - { offset: 0x776A4, size: 0x8, addend: 0x0, symName: __ZN5gimli4read4line15parse_attribute17h6dcb28bb0d8f0d55E, symObjAddr: 0x12540, symBinAddr: 0x10001E3CC, symSize: 0x86C }
  - { offset: 0x78E41, size: 0x8, addend: 0x0, symName: __ZN5gimli4read4line18parse_directory_v517h7ed9e48bb2fa518bE, symObjAddr: 0x12DAC, symBinAddr: 0x10001EC38, symSize: 0xE8 }
  - { offset: 0x78ED2, size: 0x8, addend: 0x0, symName: '__ZN5gimli4read4line27FileEntry$LT$R$C$Offset$GT$5parse17h0cf5e73c1698de2fE', symObjAddr: 0x12E94, symBinAddr: 0x10001ED20, symSize: 0x218 }
  - { offset: 0x795F8, size: 0x8, addend: 0x0, symName: '__ZN5gimli4read5dwarf14Dwarf$LT$R$GT$11attr_string17hc40cc697c7ad324fE', symObjAddr: 0x17104, symBinAddr: 0x100022F90, symSize: 0x1E8 }
  - { offset: 0x79E46, size: 0x8, addend: 0x0, symName: '__ZN5gimli4read5dwarf13Unit$LT$R$GT$3new17h9c8abef5d8c50a6dE', symObjAddr: 0x15394, symBinAddr: 0x100021220, symSize: 0x1D70 }
  - { offset: 0x7DA58, size: 0x8, addend: 0x0, symName: '__ZN5gimli4read5index18UnitIndex$LT$R$GT$5parse17haa9f95b067464b66E', symObjAddr: 0x172EC, symBinAddr: 0x100023178, symSize: 0x6CC }
  - { offset: 0x7E01F, size: 0x8, addend: 0x0, symName: '__ZN5gimli4read7aranges30ArangeHeader$LT$R$C$Offset$GT$5parse17h20619b15205da501E', symObjAddr: 0x17E2C, symBinAddr: 0x100023CB8, symSize: 0x2A8 }
  - { offset: 0x7E8D6, size: 0x8, addend: 0x0, symName: '__ZN5gimli4read8rnglists20RngListIter$LT$R$GT$4next17h7e27fd598c933045E', symObjAddr: 0x180D4, symBinAddr: 0x100023F60, symSize: 0xC74 }
  - { offset: 0x81815, size: 0x8, addend: 0x0, symName: '__ZN9addr2line8function17Function$LT$R$GT$14parse_children17he1d2dd4eaf8a7357E', symObjAddr: 0x1DDF8, symBinAddr: 0x100029714, symSize: 0xE88 }
  - { offset: 0x83054, size: 0x8, addend: 0x0, symName: __ZN9addr2line8function10name_entry17hd712c6a5749c0b0eE, symObjAddr: 0x1DA8C, symBinAddr: 0x1000293A8, symSize: 0x36C }
  - { offset: 0x8351D, size: 0x8, addend: 0x0, symName: __ZN9addr2line8function9name_attr17h41adbb1d91e81904E, symObjAddr: 0x1EC80, symBinAddr: 0x10002A59C, symSize: 0x1C0 }
  - { offset: 0x83740, size: 0x8, addend: 0x0, symName: '__ZN9addr2line4unit16ResUnit$LT$R$GT$25find_function_or_location17h353b18e237b7b2c9E', symObjAddr: 0x1BBAC, symBinAddr: 0x1000274C8, symSize: 0x39C }
  - { offset: 0x83CA5, size: 0x8, addend: 0x0, symName: '__ZN9addr2line4unit16ResUnit$LT$R$GT$25find_function_or_location28_$u7b$$u7b$closure$u7d$$u7d$17h6a4d5a45c96dd11cE', symObjAddr: 0x1BF48, symBinAddr: 0x100027864, symSize: 0x1490 }
  - { offset: 0x865E1, size: 0x8, addend: 0x0, symName: '__ZN9addr2line16Context$LT$R$GT$9find_unit17h672f8cef0a6cef5fE', symObjAddr: 0x19A34, symBinAddr: 0x100025350, symSize: 0x168 }
  - { offset: 0x86778, size: 0x8, addend: 0x0, symName: __ZN9addr2line4line11render_file17h56c7df47359e37daE, symObjAddr: 0x19B9C, symBinAddr: 0x1000254B8, symSize: 0x4C0 }
  - { offset: 0x8708E, size: 0x8, addend: 0x0, symName: __ZN9addr2line4line9LazyLines6borrow17ha6d975a019e23e93E, symObjAddr: 0x1A05C, symBinAddr: 0x100025978, symSize: 0x1B50 }
  - { offset: 0x8A4D9, size: 0x8, addend: 0x0, symName: '__ZN9addr2line6lookup30LoopingLookup$LT$T$C$L$C$F$GT$10new_lookup17h590d4f5c6451cf3cE', symObjAddr: 0x1D654, symBinAddr: 0x100028F70, symSize: 0x438 }
  - { offset: 0x8AA78, size: 0x8, addend: 0x0, symName: '__ZN9addr2line5frame18FrameIter$LT$R$GT$4next17h4512ac685f8f4647E', symObjAddr: 0x1D3D8, symBinAddr: 0x100028CF4, symSize: 0x27C }
  - { offset: 0x8AF18, size: 0x8, addend: 0x0, symName: __ZN6object4read7archive13ArchiveMember5parse17he23e9c7a2dcdb639E, symObjAddr: 0x19204, symBinAddr: 0x100024C3C, symSize: 0x41C }
  - { offset: 0x8BAAA, size: 0x8, addend: 0x0, symName: __ZN6object4read7archive23parse_bsd_extended_name17hc2b3d25eef9eeec9E, symObjAddr: 0x19620, symBinAddr: 0x100025058, symSize: 0x250 }
  - { offset: 0x8C8CF, size: 0x8, addend: 0x0, symName: _OUTLINED_FUNCTION_0, symObjAddr: 0x4E488, symBinAddr: 0x10003D96C, symSize: 0x24 }
  - { offset: 0x8C8E7, size: 0x8, addend: 0x0, symName: _OUTLINED_FUNCTION_1, symObjAddr: 0x4E4AC, symBinAddr: 0x10003D990, symSize: 0x8 }
  - { offset: 0x8C8FF, size: 0x8, addend: 0x0, symName: _OUTLINED_FUNCTION_2, symObjAddr: 0x4E4B4, symBinAddr: 0x10003D998, symSize: 0x10 }
  - { offset: 0x8C917, size: 0x8, addend: 0x0, symName: _OUTLINED_FUNCTION_3, symObjAddr: 0x4E4C4, symBinAddr: 0x10003D9A8, symSize: 0x8 }
  - { offset: 0x8C92F, size: 0x8, addend: 0x0, symName: _OUTLINED_FUNCTION_4, symObjAddr: 0x4E4CC, symBinAddr: 0x10003D9B0, symSize: 0x8 }
  - { offset: 0x8C947, size: 0x8, addend: 0x0, symName: _OUTLINED_FUNCTION_5, symObjAddr: 0x4E4D4, symBinAddr: 0x10003D9B8, symSize: 0xC }
  - { offset: 0x8C97D, size: 0x8, addend: 0x0, symName: '__ZN4core3ptr49drop_in_place$LT$panic_unwind..imp..Exception$GT$17h82c2656372694058E', symObjAddr: 0x0, symBinAddr: 0x10003D9C4, symSize: 0x78 }
  - { offset: 0x8C9A3, size: 0x8, addend: 0x0, symName: '__ZN4core3ptr49drop_in_place$LT$panic_unwind..imp..Exception$GT$17h82c2656372694058E', symObjAddr: 0x0, symBinAddr: 0x10003D9C4, symSize: 0x78 }
  - { offset: 0x8CAAA, size: 0x8, addend: 0x0, symName: '__ZN4core3ptr74drop_in_place$LT$alloc..boxed..Box$LT$panic_unwind..imp..Exception$GT$$GT$17h401304109b323233E', symObjAddr: 0x78, symBinAddr: 0x10003DA3C, symSize: 0x8C }
  - { offset: 0x8CD80, size: 0x8, addend: 0x0, symName: __ZN12panic_unwind3imp5panic17exception_cleanup17h71dcf2e4fc4aa769E, symObjAddr: 0x214, symBinAddr: 0x10003DBD8, symSize: 0x18 }
  - { offset: 0x8CD9C, size: 0x8, addend: 0x0, symName: ___rust_panic_cleanup, symObjAddr: 0x104, symBinAddr: 0x10003DAC8, symSize: 0x68 }
  - { offset: 0x8CE3E, size: 0x8, addend: 0x0, symName: ___rust_start_panic, symObjAddr: 0x16C, symBinAddr: 0x10003DB30, symSize: 0xA8 }
  - { offset: 0x8CFE7, size: 0x8, addend: 0x0, symName: '__ZN69_$LT$core..alloc..layout..LayoutError$u20$as$u20$core..fmt..Debug$GT$3fmt17h847390e718c251f1E', symObjAddr: 0x1C0, symBinAddr: 0x1000463A8, symSize: 0x20 }
  - { offset: 0x8D342, size: 0x8, addend: 0x0, symName: __ZN5alloc7raw_vec17capacity_overflow17hf0a187d8de84083bE, symObjAddr: 0x1E0, symBinAddr: 0x1000463C8, symSize: 0x34 }
  - { offset: 0x8D384, size: 0x8, addend: 0x0, symName: '__ZN5alloc7raw_vec19RawVec$LT$T$C$A$GT$8grow_one17h207f2a977af11d07E', symObjAddr: 0x214, symBinAddr: 0x1000463FC, symSize: 0xAC }
  - { offset: 0x8D508, size: 0x8, addend: 0x0, symName: '__ZN5alloc7raw_vec20RawVecInner$LT$A$GT$7reserve21do_reserve_and_handle17hf907109019113e80E', symObjAddr: 0x2C0, symBinAddr: 0x10004CFB0, symSize: 0xB0 }
  - { offset: 0x8D60A, size: 0x8, addend: 0x0, symName: __ZN5alloc7raw_vec11finish_grow17h91993be477efd13cE, symObjAddr: 0x370, symBinAddr: 0x10004D060, symSize: 0x88 }
  - { offset: 0x8D680, size: 0x8, addend: 0x0, symName: __ZN5alloc7raw_vec12handle_error17h7f0cbdf2396d2d52E, symObjAddr: 0x3F8, symBinAddr: 0x10004D0E8, symSize: 0x18 }
  - { offset: 0x8D77A, size: 0x8, addend: 0x0, symName: __ZN5alloc5alloc18handle_alloc_error17h14470fb7117d6c37E, symObjAddr: 0x410, symBinAddr: 0x10004D100, symSize: 0x18 }
  - { offset: 0x8D805, size: 0x8, addend: 0x0, symName: '__ZN93_$LT$alloc..collections..btree..mem..replace..PanicGuard$u20$as$u20$core..ops..drop..Drop$GT$4drop17h4dbb92e5b56c174aE', symObjAddr: 0xE10, symBinAddr: 0x1000464A8, symSize: 0xC }
  - { offset: 0x8D955, size: 0x8, addend: 0x0, symName: __ZN5alloc6string6String15from_utf8_lossy17h7d31b366d97043dfE, symObjAddr: 0x2F28, symBinAddr: 0x1000467B8, symSize: 0x238 }
  - { offset: 0x8DEA2, size: 0x8, addend: 0x0, symName: '__ZN98_$LT$alloc..string..String$u20$as$u20$core..convert..From$LT$alloc..borrow..Cow$LT$str$GT$$GT$$GT$4from17hde800050cd4f6a42E', symObjAddr: 0x4D48, symBinAddr: 0x1000469F0, symSize: 0xBC }
  - { offset: 0x8E102, size: 0x8, addend: 0x0, symName: '__ZN72_$LT$$RF$str$u20$as$u20$alloc..ffi..c_str..CString..new..SpecNewImpl$GT$13spec_new_impl17h37cb9b6572c7448bE', symObjAddr: 0xEA8, symBinAddr: 0x1000464B4, symSize: 0x11C }
  - { offset: 0x8E343, size: 0x8, addend: 0x0, symName: __ZN5alloc3ffi5c_str7CString19_from_vec_unchecked17h8dccb886daea0b28E, symObjAddr: 0x1110, symBinAddr: 0x1000465D0, symSize: 0x160 }
  - { offset: 0x8E66F, size: 0x8, addend: 0x0, symName: '__ZN5alloc3ffi5c_str131_$LT$impl$u20$core..convert..From$LT$$RF$core..ffi..c_str..CStr$GT$$u20$for$u20$alloc..boxed..Box$LT$core..ffi..c_str..CStr$GT$$GT$4from17hdf0b8dc43b6e7f83E', symObjAddr: 0x15EC, symBinAddr: 0x100046730, symSize: 0x88 }
  - { offset: 0x8E770, size: 0x8, addend: 0x0, symName: __ZN5alloc4sync32arcinner_layout_for_value_layout17h83c76efa9058bc15E, symObjAddr: 0x516C, symBinAddr: 0x100046AAC, symSize: 0x74 }
  - { offset: 0x8EAB1, size: 0x8, addend: 0x0, symName: __ZN4core3num22from_ascii_radix_panic8do_panic7runtime17hbd3939a7be6472a6E, symObjAddr: 0x17130, symBinAddr: 0x10004B304, symSize: 0x44 }
  - { offset: 0x8EAE4, size: 0x8, addend: 0x0, symName: __ZN4core3num22from_ascii_radix_panic17h997eb0f270b6b988E, symObjAddr: 0x4294, symBinAddr: 0x10004D118, symSize: 0xC }
  - { offset: 0x8EE93, size: 0x8, addend: 0x0, symName: __ZN4core5slice5index26slice_start_index_len_fail8do_panic7runtime17h9ddc6a7ecebba1e9E, symObjAddr: 0x1B12C, symBinAddr: 0x10004BC7C, symSize: 0x50 }
  - { offset: 0x8EEC6, size: 0x8, addend: 0x0, symName: __ZN4core5slice5index26slice_start_index_len_fail17hbef4cde757a23982E, symObjAddr: 0xEAAC, symBinAddr: 0x10004D538, symSize: 0xC }
  - { offset: 0x8EF0C, size: 0x8, addend: 0x0, symName: __ZN4core5slice5index24slice_end_index_len_fail8do_panic7runtime17h385f2d9d99153a75E, symObjAddr: 0x1B17C, symBinAddr: 0x10004BCCC, symSize: 0x50 }
  - { offset: 0x8EF3F, size: 0x8, addend: 0x0, symName: __ZN4core5slice5index24slice_end_index_len_fail17ha150b75f771021fbE, symObjAddr: 0xEAB8, symBinAddr: 0x10004D544, symSize: 0xC }
  - { offset: 0x8EF85, size: 0x8, addend: 0x0, symName: __ZN4core5slice5index22slice_index_order_fail8do_panic7runtime17he0b28f8ab2cd970eE, symObjAddr: 0x1B1CC, symBinAddr: 0x10004BD1C, symSize: 0x50 }
  - { offset: 0x8EFB8, size: 0x8, addend: 0x0, symName: __ZN4core5slice5index22slice_index_order_fail17h7613890af586566aE, symObjAddr: 0xEAC4, symBinAddr: 0x10004D550, symSize: 0xC }
  - { offset: 0x8F3A9, size: 0x8, addend: 0x0, symName: __ZN4core5slice6memchr14memchr_aligned17h6296e9c99467795dE, symObjAddr: 0xE3FC, symBinAddr: 0x100048F68, symSize: 0xE8 }
  - { offset: 0x8F485, size: 0x8, addend: 0x0, symName: __ZN4core5slice6memchr7memrchr17h6227400e5108dcb2E, symObjAddr: 0xE4E4, symBinAddr: 0x100049050, symSize: 0x120 }
  - { offset: 0x8F5DE, size: 0x8, addend: 0x0, symName: __ZN4core5slice4sort6stable5drift11sqrt_approx17hea6fce954f57e78dE, symObjAddr: 0xE604, symBinAddr: 0x100049170, symSize: 0x38 }
  - { offset: 0x8F65B, size: 0x8, addend: 0x0, symName: __ZN4core5slice4sort6shared9smallsort22panic_on_ord_violation17h87158ad44664865dE, symObjAddr: 0xE63C, symBinAddr: 0x10004D500, symSize: 0x38 }
  - { offset: 0x8F824, size: 0x8, addend: 0x0, symName: '__ZN42_$LT$str$u20$as$u20$core..fmt..Display$GT$3fmt17hf009c24fe723987dE', symObjAddr: 0xE0B4, symBinAddr: 0x100048CE8, symSize: 0x20 }
  - { offset: 0x8FA04, size: 0x8, addend: 0x0, symName: __ZN4core3fmt9Formatter12pad_integral17hc0a697f6bef9bc99E, symObjAddr: 0xB878, symBinAddr: 0x100047B78, symSize: 0x3E8 }
  - { offset: 0x8FCFA, size: 0x8, addend: 0x0, symName: __ZN4core3fmt9Formatter3pad17hc45fb048fd353932E, symObjAddr: 0xBCDC, symBinAddr: 0x100047FDC, symSize: 0x370 }
  - { offset: 0x901B5, size: 0x8, addend: 0x0, symName: __ZN4core3fmt9Formatter9write_str17h325369b1c335017bE, symObjAddr: 0xC49C, symBinAddr: 0x10004834C, symSize: 0x1C }
  - { offset: 0x901C9, size: 0x8, addend: 0x0, symName: __ZN4core3fmt9Formatter12debug_struct17h01892abf43f6400aE, symObjAddr: 0xC4B8, symBinAddr: 0x100048368, symSize: 0x3C }
  - { offset: 0x90208, size: 0x8, addend: 0x0, symName: __ZN4core3fmt9Formatter26debug_struct_field1_finish17h9a6aad483cd91d8bE, symObjAddr: 0xC4F4, symBinAddr: 0x1000483A4, symSize: 0xD0 }
  - { offset: 0x902DF, size: 0x8, addend: 0x0, symName: __ZN4core3fmt9Formatter26debug_struct_field2_finish17h50e0aebce8a58786E, symObjAddr: 0xC5C4, symBinAddr: 0x100048474, symSize: 0x104 }
  - { offset: 0x903B6, size: 0x8, addend: 0x0, symName: __ZN4core3fmt9Formatter11debug_tuple17hc10fd19a9736e89bE, symObjAddr: 0xCBD8, symBinAddr: 0x100048578, symSize: 0x50 }
  - { offset: 0x9040B, size: 0x8, addend: 0x0, symName: __ZN4core3fmt9Formatter25debug_tuple_field1_finish17ha7de20751beabbe9E, symObjAddr: 0xCC28, symBinAddr: 0x1000485C8, symSize: 0x168 }
  - { offset: 0x9060D, size: 0x8, addend: 0x0, symName: __ZN4core3fmt9Formatter25debug_tuple_field2_finish17h4e3f51f71b24019cE, symObjAddr: 0xCD90, symBinAddr: 0x100048730, symSize: 0x1E0 }
  - { offset: 0x908C7, size: 0x8, addend: 0x0, symName: __ZN4core3fmt9Formatter10debug_list17h017ce85e0805b545E, symObjAddr: 0xDB70, symBinAddr: 0x100048910, symSize: 0x48 }
  - { offset: 0x9096F, size: 0x8, addend: 0x0, symName: __ZN4core3fmt8builders11DebugStruct5field17h2f0dca0d2df6974aE, symObjAddr: 0x84A0, symBinAddr: 0x100047370, symSize: 0x1B8 }
  - { offset: 0x90B6E, size: 0x8, addend: 0x0, symName: __ZN4core3fmt8builders11DebugStruct6finish17he06e5b5d674203a3E, symObjAddr: 0x871C, symBinAddr: 0x100047528, symSize: 0x80 }
  - { offset: 0x90C6F, size: 0x8, addend: 0x0, symName: '__ZN68_$LT$core..fmt..builders..PadAdapter$u20$as$u20$core..fmt..Write$GT$9write_str17hfaa313c4119f7ed4E', symObjAddr: 0x81D0, symBinAddr: 0x1000470A0, symSize: 0x250 }
  - { offset: 0x90F1A, size: 0x8, addend: 0x0, symName: '__ZN68_$LT$core..fmt..builders..PadAdapter$u20$as$u20$core..fmt..Write$GT$10write_char17hde86c020ea7d2eadE', symObjAddr: 0x8420, symBinAddr: 0x1000472F0, symSize: 0x80 }
  - { offset: 0x90F9F, size: 0x8, addend: 0x0, symName: __ZN4core3fmt8builders10DebugTuple5field17hd1be49f816fc5cc6E, symObjAddr: 0x879C, symBinAddr: 0x1000475A8, symSize: 0x14C }
  - { offset: 0x9112B, size: 0x8, addend: 0x0, symName: __ZN4core3fmt8builders10DebugTuple6finish17h27cf27fbab1a8a2aE, symObjAddr: 0x89A8, symBinAddr: 0x1000476F4, symSize: 0xB0 }
  - { offset: 0x9127A, size: 0x8, addend: 0x0, symName: __ZN4core3fmt8builders8DebugSet5entry17h30a73ad81f14a0f2E, symObjAddr: 0x8A58, symBinAddr: 0x1000477A4, symSize: 0x14C }
  - { offset: 0x9141F, size: 0x8, addend: 0x0, symName: __ZN4core3fmt8builders9DebugList6finish17h106b57f1a22a675eE, symObjAddr: 0x8D7C, symBinAddr: 0x1000478F0, symSize: 0x4C }
  - { offset: 0x914DB, size: 0x8, addend: 0x0, symName: '__ZN4core3fmt3num3imp52_$LT$impl$u20$core..fmt..Display$u20$for$u20$u32$GT$3fmt17hbf1c5d9b6583f29fE', symObjAddr: 0x19B78, symBinAddr: 0x10004B7C0, symSize: 0x1C }
  - { offset: 0x91502, size: 0x8, addend: 0x0, symName: '__ZN4core3fmt3num3imp52_$LT$impl$u20$core..fmt..Display$u20$for$u20$u64$GT$3fmt17h339ac4429cb37bf0E', symObjAddr: 0x19CE0, symBinAddr: 0x10004B928, symSize: 0x1C }
  - { offset: 0x91529, size: 0x8, addend: 0x0, symName: '__ZN4core3fmt3num3imp52_$LT$impl$u20$core..fmt..Display$u20$for$u20$i32$GT$3fmt17hf55f78073eda7290E', symObjAddr: 0x19B94, symBinAddr: 0x10004B7DC, symSize: 0x28 }
  - { offset: 0x9158E, size: 0x8, addend: 0x0, symName: '__ZN4core3fmt3num3imp51_$LT$impl$u20$core..fmt..Display$u20$for$u20$u8$GT$3fmt17h4f4911bf2ed93697E', symObjAddr: 0x198A4, symBinAddr: 0x10004B710, symSize: 0xB0 }
  - { offset: 0x91654, size: 0x8, addend: 0x0, symName: '__ZN4core3fmt3num3imp21_$LT$impl$u20$u32$GT$4_fmt17h2969b048172ebb80E', symObjAddr: 0x19BBC, symBinAddr: 0x10004B804, symSize: 0x124 }
  - { offset: 0x91735, size: 0x8, addend: 0x0, symName: '__ZN4core3fmt3num3imp21_$LT$impl$u20$u64$GT$4_fmt17h99108e3731ddbd8bE', symObjAddr: 0x19D24, symBinAddr: 0x10004B944, symSize: 0x130 }
  - { offset: 0x91950, size: 0x8, addend: 0x0, symName: '__ZN4core3fmt3num53_$LT$impl$u20$core..fmt..LowerHex$u20$for$u20$i32$GT$3fmt17ha0cbda09c03c5041E', symObjAddr: 0x18C80, symBinAddr: 0x10004B510, symSize: 0x80 }
  - { offset: 0x919F8, size: 0x8, addend: 0x0, symName: '__ZN4core3fmt3num53_$LT$impl$u20$core..fmt..UpperHex$u20$for$u20$i32$GT$3fmt17heb47dcda93036a36E', symObjAddr: 0x18D00, symBinAddr: 0x10004B590, symSize: 0x80 }
  - { offset: 0x91AA0, size: 0x8, addend: 0x0, symName: '__ZN4core3fmt3num53_$LT$impl$u20$core..fmt..LowerHex$u20$for$u20$i64$GT$3fmt17hf3c2c8f0bf48439fE', symObjAddr: 0x18E60, symBinAddr: 0x10004B610, symSize: 0x80 }
  - { offset: 0x91B48, size: 0x8, addend: 0x0, symName: '__ZN4core3fmt3num53_$LT$impl$u20$core..fmt..UpperHex$u20$for$u20$i64$GT$3fmt17h4be4db71703d1dabE', symObjAddr: 0x18EE0, symBinAddr: 0x10004B690, symSize: 0x80 }
  - { offset: 0x91BE3, size: 0x8, addend: 0x0, symName: '__ZN4core3fmt3num52_$LT$impl$u20$core..fmt..LowerHex$u20$for$u20$i8$GT$3fmt17h7bff1931c71ac012E', symObjAddr: 0x188C0, symBinAddr: 0x10004B410, symSize: 0x80 }
  - { offset: 0x91C92, size: 0x8, addend: 0x0, symName: '__ZN4core3fmt3num52_$LT$impl$u20$core..fmt..UpperHex$u20$for$u20$i8$GT$3fmt17h8dba84f19f74308cE', symObjAddr: 0x18940, symBinAddr: 0x10004B490, symSize: 0x80 }
  - { offset: 0x91D50, size: 0x8, addend: 0x0, symName: '__ZN57_$LT$core..fmt..Formatter$u20$as$u20$core..fmt..Write$GT$10write_char17h712a7a5b14df20b9E', symObjAddr: 0xDCC0, symBinAddr: 0x100048958, symSize: 0x1C }
  - { offset: 0x91D83, size: 0x8, addend: 0x0, symName: __ZN4core3fmt5Write9write_fmt17h3451af32630eef07E, symObjAddr: 0xB4E4, symBinAddr: 0x10004793C, symSize: 0x1C }
  - { offset: 0x91DEC, size: 0x8, addend: 0x0, symName: '__ZN59_$LT$core..fmt..Arguments$u20$as$u20$core..fmt..Display$GT$3fmt17h5a31f19e8734f16eE', symObjAddr: 0xB658, symBinAddr: 0x100047958, symSize: 0x18 }
  - { offset: 0x91E1D, size: 0x8, addend: 0x0, symName: __ZN4core3fmt5write17he22fcab56bd3ec61E, symObjAddr: 0xB670, symBinAddr: 0x100047970, symSize: 0x208 }
  - { offset: 0x92030, size: 0x8, addend: 0x0, symName: __ZN4core3fmt9Formatter12pad_integral12write_prefix17h37c97ab3a7046bd2E, symObjAddr: 0xBC60, symBinAddr: 0x100047F60, symSize: 0x7C }
  - { offset: 0x92076, size: 0x8, addend: 0x0, symName: '__ZN42_$LT$$RF$T$u20$as$u20$core..fmt..Debug$GT$3fmt17h3133fac5ab5169ddE', symObjAddr: 0x1AE44, symBinAddr: 0x10004BA74, symSize: 0xEC }
  - { offset: 0x921A8, size: 0x8, addend: 0x0, symName: '__ZN42_$LT$$RF$T$u20$as$u20$core..fmt..Debug$GT$3fmt17h54e81ade5e5de57dE', symObjAddr: 0x1AF30, symBinAddr: 0x10004BB60, symSize: 0x1C }
  - { offset: 0x921BC, size: 0x8, addend: 0x0, symName: '__ZN42_$LT$$RF$T$u20$as$u20$core..fmt..Debug$GT$3fmt17h91eecf8d28a7cefeE', symObjAddr: 0x1AF4C, symBinAddr: 0x10004BB7C, symSize: 0xE4 }
  - { offset: 0x92316, size: 0x8, addend: 0x0, symName: '__ZN40_$LT$str$u20$as$u20$core..fmt..Debug$GT$3fmt17hd8879d369458d53aE', symObjAddr: 0xDD40, symBinAddr: 0x100048974, symSize: 0x374 }
  - { offset: 0x9276F, size: 0x8, addend: 0x0, symName: '__ZN41_$LT$char$u20$as$u20$core..fmt..Debug$GT$3fmt17ha35a21095fe6b2aeE', symObjAddr: 0xE0D4, symBinAddr: 0x100048D08, symSize: 0xAC }
  - { offset: 0x92876, size: 0x8, addend: 0x0, symName: '__ZN43_$LT$char$u20$as$u20$core..fmt..Display$GT$3fmt17h3667dcfbeb89f1b7E', symObjAddr: 0xE180, symBinAddr: 0x100048DB4, symSize: 0xF0 }
  - { offset: 0x928FE, size: 0x8, addend: 0x0, symName: __ZN4core3fmt17pointer_fmt_inner17ha05a056f67b250baE, symObjAddr: 0xE270, symBinAddr: 0x100048EA4, symSize: 0xC4 }
  - { offset: 0x929BC, size: 0x8, addend: 0x0, symName: '__ZN44_$LT$$RF$T$u20$as$u20$core..fmt..Display$GT$3fmt17h09a056bd82e73243E', symObjAddr: 0x1B044, symBinAddr: 0x10004BC60, symSize: 0x1C }
  - { offset: 0x92B78, size: 0x8, addend: 0x0, symName: __ZN4core6option13unwrap_failed17h84f662fc2717d129E, symObjAddr: 0x7B40, symBinAddr: 0x10004D168, symSize: 0x1C }
  - { offset: 0x92B93, size: 0x8, addend: 0x0, symName: __ZN4core6option13expect_failed17h064f2cf84916882aE, symObjAddr: 0x7B5C, symBinAddr: 0x10004D184, symSize: 0x48 }
  - { offset: 0x92BEB, size: 0x8, addend: 0x0, symName: '__ZN71_$LT$core..ops..range..Range$LT$Idx$GT$$u20$as$u20$core..fmt..Debug$GT$3fmt17h8610e207370f6ef7E', symObjAddr: 0x442C, symBinAddr: 0x100046B20, symSize: 0x1FC }
  - { offset: 0x930E1, size: 0x8, addend: 0x0, symName: __ZN4core6result13unwrap_failed17h2bf1684417afbe6bE, symObjAddr: 0x80FC, symBinAddr: 0x10004D4A4, symSize: 0x5C }
  - { offset: 0x933C2, size: 0x8, addend: 0x0, symName: __ZN4core3str7pattern11StrSearcher3new17habaad989c72fb7a8E, symObjAddr: 0x10248, symBinAddr: 0x100049DC0, symSize: 0x904 }
  - { offset: 0x9366D, size: 0x8, addend: 0x0, symName: __ZN4core3str5count14do_count_chars17hc555c670c9b10e3bE, symObjAddr: 0xF128, symBinAddr: 0x1000493EC, symSize: 0x724 }
  - { offset: 0x939BE, size: 0x8, addend: 0x0, symName: __ZN4core3str5count23char_count_general_case17h0a6ef21a4825751aE, symObjAddr: 0xF84C, symBinAddr: 0x100049B10, symSize: 0x2B0 }
  - { offset: 0x93B74, size: 0x8, addend: 0x0, symName: __ZN4core3str6traits23str_index_overflow_fail17h6ba0069023d715bdE, symObjAddr: 0x10214, symBinAddr: 0x10004D55C, symSize: 0x34 }
  - { offset: 0x93BA9, size: 0x8, addend: 0x0, symName: __ZN4core3str8converts9from_utf817h5b7081f8e3c98111E, symObjAddr: 0xECA0, symBinAddr: 0x1000491A8, symSize: 0x244 }
  - { offset: 0x93C18, size: 0x8, addend: 0x0, symName: '__ZN60_$LT$core..str..lossy..Debug$u20$as$u20$core..fmt..Debug$GT$3fmt17h509fb95436d3e626E', symObjAddr: 0x10B4C, symBinAddr: 0x10004A6C4, symSize: 0x3E4 }
  - { offset: 0x93FB4, size: 0x8, addend: 0x0, symName: '__ZN87_$LT$core..str..lossy..Utf8Chunks$u20$as$u20$core..iter..traits..iterator..Iterator$GT$4next17hc0bb2f8797014ed2E', symObjAddr: 0x10F30, symBinAddr: 0x10004AAA8, symSize: 0x1DC }
  - { offset: 0x941B7, size: 0x8, addend: 0x0, symName: __ZN4core3str16slice_error_fail17h8b847e853482f553E, symObjAddr: 0x111D8, symBinAddr: 0x10004D590, symSize: 0xC }
  - { offset: 0x941D1, size: 0x8, addend: 0x0, symName: __ZN4core3str19slice_error_fail_rt17hd494714b9640772bE, symObjAddr: 0x11218, symBinAddr: 0x10004AC84, symSize: 0x390 }
  - { offset: 0x9447A, size: 0x8, addend: 0x0, symName: '__ZN4core4char7methods22_$LT$impl$u20$char$GT$16escape_debug_ext17hbfb443f01c84243eE', symObjAddr: 0x50B8, symBinAddr: 0x100046D40, symSize: 0x260 }
  - { offset: 0x9469C, size: 0x8, addend: 0x0, symName: __ZN4core4char7methods15encode_utf8_raw8do_panic7runtime17h78f2c250983698c5E, symObjAddr: 0x171EC, symBinAddr: 0x10004B348, symSize: 0xC8 }
  - { offset: 0x94763, size: 0x8, addend: 0x0, symName: '__ZN63_$LT$core..cell..BorrowMutError$u20$as$u20$core..fmt..Debug$GT$3fmt17h4f632190c10a8f91E', symObjAddr: 0x4F3C, symBinAddr: 0x100046D1C, symSize: 0x24 }
  - { offset: 0x947C0, size: 0x8, addend: 0x0, symName: __ZN4core4cell22panic_already_borrowed17ha893d1f06b8b63deE, symObjAddr: 0x4F80, symBinAddr: 0x10004D124, symSize: 0x44 }
  - { offset: 0x94810, size: 0x8, addend: 0x0, symName: __ZN4core7unicode12unicode_data15grapheme_extend11lookup_slow17hbcdf8b5a821a33ffE, symObjAddr: 0x1C978, symBinAddr: 0x10004BD90, symSize: 0x174 }
  - { offset: 0x949FB, size: 0x8, addend: 0x0, symName: __ZN4core7unicode12unicode_data2cc6lookup17he25d7ab2d2fa0f97E, symObjAddr: 0x1C954, symBinAddr: 0x10004BD6C, symSize: 0x24 }
  - { offset: 0x94A67, size: 0x8, addend: 0x0, symName: __ZN4core7unicode9printable12is_printable17haae76351f6525626E, symObjAddr: 0x12144, symBinAddr: 0x10004B014, symSize: 0x2C0 }
  - { offset: 0x94EA5, size: 0x8, addend: 0x0, symName: __ZN4core3ffi5c_str4CStr19from_bytes_with_nul17h10506affebd054b1E, symObjAddr: 0x5700, symBinAddr: 0x100046FA0, symSize: 0x100 }
  - { offset: 0x94F92, size: 0x8, addend: 0x0, symName: __ZN4core9panicking9panic_fmt17h6a4014bec58fba4fE, symObjAddr: 0x7C94, symBinAddr: 0x10004D1CC, symSize: 0x20 }
  - { offset: 0x94FD5, size: 0x8, addend: 0x0, symName: __ZN4core9panicking18panic_nounwind_fmt17hc1d4bd06ab2bbbabE, symObjAddr: 0x7CB4, symBinAddr: 0x10004D1EC, symSize: 0x3C }
  - { offset: 0x9501A, size: 0x8, addend: 0x0, symName: __ZN4core9panicking5panic17h3ce9043ca357f318E, symObjAddr: 0x7CF0, symBinAddr: 0x10004D228, symSize: 0x34 }
  - { offset: 0x95049, size: 0x8, addend: 0x0, symName: __ZN4core9panicking14panic_nounwind17h96b8083b1a8e2dbdE, symObjAddr: 0x7D24, symBinAddr: 0x10004D25C, symSize: 0x3C }
  - { offset: 0x95078, size: 0x8, addend: 0x0, symName: __ZN4core9panicking26panic_nounwind_nobacktrace17h984deb6b7d0bc614E, symObjAddr: 0x7D60, symBinAddr: 0x10004D298, symSize: 0x3C }
  - { offset: 0x950A7, size: 0x8, addend: 0x0, symName: __ZN4core9panicking18panic_bounds_check17h1ecfa3d00f46f81cE, symObjAddr: 0x7DE4, symBinAddr: 0x10004D2D4, symSize: 0x50 }
  - { offset: 0x950D9, size: 0x8, addend: 0x0, symName: __ZN4core9panicking19panic_cannot_unwind17ha5edf28dd2569dc8E, symObjAddr: 0x7EF8, symBinAddr: 0x10004D324, symSize: 0x18 }
  - { offset: 0x950F4, size: 0x8, addend: 0x0, symName: __ZN4core9panicking16panic_in_cleanup17hb960b8c5dea287d4E, symObjAddr: 0x7F10, symBinAddr: 0x10004D33C, symSize: 0x18 }
  - { offset: 0x9510F, size: 0x8, addend: 0x0, symName: __ZN4core9panicking13assert_failed17h2af7932842d934b6E, symObjAddr: 0x7F8C, symBinAddr: 0x10004D354, symSize: 0x24 }
  - { offset: 0x9512A, size: 0x8, addend: 0x0, symName: __ZN4core9panicking13assert_failed17hc7c9e0269eebc316E, symObjAddr: 0x7FB0, symBinAddr: 0x10004D378, symSize: 0x24 }
  - { offset: 0x95145, size: 0x8, addend: 0x0, symName: __ZN4core9panicking19assert_failed_inner17hafd35c69af0230bfE, symObjAddr: 0x7FF4, symBinAddr: 0x10004D39C, symSize: 0x108 }
  - { offset: 0x95192, size: 0x8, addend: 0x0, symName: __ZN4core9panicking11panic_const23panic_const_div_by_zero17h0422238fbdaad2d7E, symObjAddr: 0x179B8, symBinAddr: 0x10004D59C, symSize: 0x34 }
  - { offset: 0x951C1, size: 0x8, addend: 0x0, symName: __ZN4core9panicking11panic_const23panic_const_rem_by_zero17h723f338bbd7af040E, symObjAddr: 0x179EC, symBinAddr: 0x10004D5D0, symSize: 0x34 }
  - { offset: 0x9523A, size: 0x8, addend: 0x0, symName: __ZN4core5alloc6layout6Layout19is_size_align_valid17h054933e8a3b2a17cE, symObjAddr: 0x126A0, symBinAddr: 0x10004B2D4, symSize: 0x30 }
  - { offset: 0x95293, size: 0x8, addend: 0x0, symName: _OUTLINED_FUNCTION_0, symObjAddr: 0x1D194, symBinAddr: 0x10004BF04, symSize: 0x10 }
...
