---
triple:          'arm64-apple-darwin'
binary-path:     '/Users/cedric/orange/ran-llm-claude-flow/src/rust-pipeline/target/debug/deps/libasync_stream_impl-2adb709fca4ff692.dylib'
relocations:
  - { offset: 0x1E, size: 0x8, addend: 0x0, symName: __RINvCs6IAuOt8vWmF_3syn6parse2INtCs8jlTyMxP1WZ_17async_stream_impl7PartialNtNtB2_4expr9ExprYieldEEBu_, symObjAddr: 0x0, symBinAddr: 0xC58, symSize: 0x24 }
  - { offset: 0xB1, size: 0x8, addend: 0x0, symName: __RINvNtNtNtCs9i5KxIbZ5ph_10proc_macro6bridge6client5state3setINtNtCsfvfooZQ3Axs_4core6option6OptionNtB4_11TokenStreamENCNCINvB4_10run_clientB1y_BW_NCNCINvMs7_B4_INtB4_6ClientNtB8_11TokenStreamB2L_E7expand1NvCs8jlTyMxP1WZ_17async_stream_impl12stream_innerE00E00EB3i_, symObjAddr: 0x2E0, symBinAddr: 0xF38, symSize: 0xE8 }
  - { offset: 0x186, size: 0x8, addend: 0x0, symName: __RINvNtNtNtCs9i5KxIbZ5ph_10proc_macro6bridge6client5state3setINtNtCsfvfooZQ3Axs_4core6option6OptionNtB4_11TokenStreamENCNCINvB4_10run_clientB1y_BW_NCNCINvMs7_B4_INtB4_6ClientNtB8_11TokenStreamB2L_E7expand1NvCs8jlTyMxP1WZ_17async_stream_impl16try_stream_innerE00E00EB3i_, symObjAddr: 0x3C8, symBinAddr: 0x1020, symSize: 0xE8 }
  - { offset: 0x265, size: 0x8, addend: 0x0, symName: __RNCNkNvNtNtNtCs9i5KxIbZ5ph_10proc_macro6bridge6client5state12BRIDGE_STATE0s_0Cs8jlTyMxP1WZ_17async_stream_impl, symObjAddr: 0x14C8, symBinAddr: 0x20F8, symSize: 0x34 }
  - { offset: 0x82A, size: 0x8, addend: 0x0, symName: __RNvXs7_NtNtCs9i5KxIbZ5ph_10proc_macro6bridge3rpcINtNtNtCsfvfooZQ3Axs_4core3num7nonzero7NonZeromEINtB5_9DecodeMutuE6decodeCs8jlTyMxP1WZ_17async_stream_impl, symObjAddr: 0x290C, symBinAddr: 0x353C, symSize: 0x5C }
  - { offset: 0x98D, size: 0x8, addend: 0x0, symName: __RNvXsV_NtCs9i5KxIbZ5ph_10proc_macro6bridgeINtNtCsfvfooZQ3Axs_4core6result6ResultINtNtBJ_6option6OptionNtNtB5_6client11TokenStreamEuEINtNtB5_3rpc6EncodeuE6encodeCs8jlTyMxP1WZ_17async_stream_impl, symObjAddr: 0x2B60, symBinAddr: 0x3790, symSize: 0x108 }
  - { offset: 0xA51, size: 0x8, addend: 0x0, symName: __RNvXsV_NtCs9i5KxIbZ5ph_10proc_macro6bridgeINtNtCsfvfooZQ3Axs_4core6result6ResultuNtNtB5_3rpc12PanicMessageEINtB1j_6EncodeuE6encodeCs8jlTyMxP1WZ_17async_stream_impl, symObjAddr: 0x2C68, symBinAddr: 0x3898, symSize: 0x12C }
  - { offset: 0xCD4, size: 0x8, addend: 0x0, symName: __RINvXs4_Cs3cP53eQoTwO_11proc_macro2NtB6_11TokenStreamINtNtNtNtCsfvfooZQ3Axs_4core4iter6traits7collect6ExtendNtB6_9TokenTreeE6extendINtNtBY_6option6OptionB1I_EECs8jlTyMxP1WZ_17async_stream_impl, symObjAddr: 0x5E4, symBinAddr: 0x1214, symSize: 0x34 }
  - { offset: 0xD22, size: 0x8, addend: 0x0, symName: __RINvXs5_NtCs3cP53eQoTwO_11proc_macro23impNtB6_11TokenStreamINtNtNtNtCsfvfooZQ3Axs_4core4iter6traits7collect12FromIteratorNtB8_9TokenTreeE9from_iterINtNtNtB12_8adapters5chain5ChainINtNtNtB12_7sources4once4OnceB1V_EINtNtB2q_8peekable8PeekableNtNtB8_12token_stream8IntoIterEEECs8jlTyMxP1WZ_17async_stream_impl, symObjAddr: 0x618, symBinAddr: 0x1248, symSize: 0x16C }
  - { offset: 0xD5E, size: 0x8, addend: 0x0, symName: __RINvXs7_NtCs3cP53eQoTwO_11proc_macro23impNtB6_11TokenStreamINtNtNtNtCsfvfooZQ3Axs_4core4iter6traits7collect6ExtendNtB8_9TokenTreeE6extendINtNtB14_6option6OptionB1O_EECs8jlTyMxP1WZ_17async_stream_impl, symObjAddr: 0x7D8, symBinAddr: 0x1408, symSize: 0x154 }
  - { offset: 0x104C, size: 0x8, addend: 0x0, symName: __RNvXsA_NtCs3cP53eQoTwO_11proc_macro23impNtB5_19DeferredTokenStreamNtNtCsfvfooZQ3Axs_4core5clone5Clone5cloneCs8jlTyMxP1WZ_17async_stream_impl, symObjAddr: 0x2968, symBinAddr: 0x3598, symSize: 0x90 }
  - { offset: 0x107E, size: 0x8, addend: 0x0, symName: __RNvXsz_NtCs3cP53eQoTwO_11proc_macro23impNtB5_11TokenStreamNtNtCsfvfooZQ3Axs_4core5clone5Clone5cloneCs8jlTyMxP1WZ_17async_stream_impl, symObjAddr: 0x3F4C, symBinAddr: 0x4B7C, symSize: 0x98 }
  - { offset: 0x10EB, size: 0x8, addend: 0x0, symName: __RINvXs6_Cs3cP53eQoTwO_11proc_macro2NtB6_11TokenStreamINtNtNtNtCsfvfooZQ3Axs_4core4iter6traits7collect12FromIteratorNtB6_9TokenTreeE9from_iterINtNtNtBW_8adapters5chain5ChainINtNtNtBW_7sources4once4OnceB1P_EINtNtB2k_8peekable8PeekableNtNtB6_12token_stream8IntoIterEEECs8jlTyMxP1WZ_17async_stream_impl, symObjAddr: 0x784, symBinAddr: 0x13B4, symSize: 0x54 }
  - { offset: 0x112E, size: 0x8, addend: 0x0, symName: __RINvXs8_NtCs3cP53eQoTwO_11proc_macro28fallbackNtB6_11TokenStreamINtNtNtNtCsfvfooZQ3Axs_4core4iter6traits7collect12FromIteratorNtB8_9TokenTreeE9from_iterINtNtNtB17_8adapters5chain5ChainINtNtNtB17_7sources4once4OnceB20_EINtNtB2v_8peekable8PeekableNtNtB8_12token_stream8IntoIterEEECs8jlTyMxP1WZ_17async_stream_impl, symObjAddr: 0x92C, symBinAddr: 0x155C, symSize: 0xD4 }
  - { offset: 0x1182, size: 0x8, addend: 0x0, symName: __RINvXsa_NtCs3cP53eQoTwO_11proc_macro28fallbackNtB6_11TokenStreamINtNtNtNtCsfvfooZQ3Axs_4core4iter6traits7collect6ExtendNtB8_9TokenTreeE6extendINtNtB19_6option6OptionB1T_EECs8jlTyMxP1WZ_17async_stream_impl, symObjAddr: 0x10A0, symBinAddr: 0x1CD0, symSize: 0xC0 }
  - { offset: 0x11E3, size: 0x8, addend: 0x0, symName: __RINvXsa_NtCs3cP53eQoTwO_11proc_macro28fallbackNtB6_11TokenStreamINtNtNtNtCsfvfooZQ3Axs_4core4iter6traits7collect6ExtendNtB8_9TokenTreeE6extendINtNtNtB17_8adapters5chain5ChainINtNtNtB17_7sources4once4OnceB1T_EINtNtB2l_8peekable8PeekableNtNtB8_12token_stream8IntoIterEEECs8jlTyMxP1WZ_17async_stream_impl, symObjAddr: 0x1160, symBinAddr: 0x1D90, symSize: 0xCC }
  - { offset: 0x1249, size: 0x8, addend: 0x0, symName: __RNCINvXsa_NtCs3cP53eQoTwO_11proc_macro28fallbackNtB8_11TokenStreamINtNtNtNtCsfvfooZQ3Axs_4core4iter6traits7collect6ExtendNtBa_9TokenTreeE6extendINtNtB1b_6option6OptionB1V_EE0Cs8jlTyMxP1WZ_17async_stream_impl, symObjAddr: 0x1370, symBinAddr: 0x1FA0, symSize: 0xAC }
  - { offset: 0x128F, size: 0x8, addend: 0x0, symName: __RNCINvXsa_NtCs3cP53eQoTwO_11proc_macro28fallbackNtB8_11TokenStreamINtNtNtNtCsfvfooZQ3Axs_4core4iter6traits7collect6ExtendNtBa_9TokenTreeE6extendINtNtNtB19_8adapters5chain5ChainINtNtNtB19_7sources4once4OnceB1V_EINtNtB2n_8peekable8PeekableNtNtBa_12token_stream8IntoIterEEE0Cs8jlTyMxP1WZ_17async_stream_impl, symObjAddr: 0x141C, symBinAddr: 0x204C, symSize: 0xAC }
  - { offset: 0x139A, size: 0x8, addend: 0x0, symName: __RNvXss_NtCs3cP53eQoTwO_11proc_macro28fallbackNtB5_11TokenStreamNtNtCsfvfooZQ3Axs_4core5clone5Clone5cloneCs8jlTyMxP1WZ_17async_stream_impl, symObjAddr: 0x3F28, symBinAddr: 0x4B58, symSize: 0x24 }
  - { offset: 0x1671, size: 0x8, addend: 0x0, symName: __RNvXsG_Cs3cP53eQoTwO_11proc_macro2NtB5_11TokenStreamNtNtCsfvfooZQ3Axs_4core5clone5Clone5cloneCs8jlTyMxP1WZ_17async_stream_impl, symObjAddr: 0x2AE8, symBinAddr: 0x3718, symSize: 0x78 }
  - { offset: 0x59D6, size: 0x8, addend: 0x0, symName: __RNvXsp_NtCsfvfooZQ3Axs_4core6resultINtB5_6ResultINtCs8jlTyMxP1WZ_17async_stream_impl7PartialNtNtCs6IAuOt8vWmF_3syn4expr9ExprYieldENtNtB1w_5error5ErrorEINtNtNtB7_3ops9try_trait12FromResidualIBy_NtNtB7_7convert10InfallibleB24_EE13from_residualBN_, symObjAddr: 0x3E98, symBinAddr: 0x4AC8, symSize: 0x48 }
  - { offset: 0x5A5B, size: 0x8, addend: 0x0, symName: __RNvXsp_NtCsfvfooZQ3Axs_4core6resultINtB5_6ResultTNtCs3cP53eQoTwO_11proc_macro211TokenStreamINtNtCse1nGBsou5OW_5alloc3vec3VecNtNtCs6IAuOt8vWmF_3syn4stmt4StmtEENtNtB22_5error5ErrorEINtNtNtB7_3ops9try_trait12FromResidualIBy_NtNtB7_7convert10InfallibleB2w_EE13from_residualCs8jlTyMxP1WZ_17async_stream_impl, symObjAddr: 0x3EE0, symBinAddr: 0x4B10, symSize: 0x48 }
  - { offset: 0x5C27, size: 0x8, addend: 0x0, symName: __RNvXso_NtCsfvfooZQ3Axs_4core6resultINtB5_6ResultINtCs8jlTyMxP1WZ_17async_stream_impl7PartialNtNtCs6IAuOt8vWmF_3syn4expr9ExprYieldENtNtB1w_5error5ErrorENtNtNtB7_3ops9try_trait3Try6branchBN_, symObjAddr: 0x3D38, symBinAddr: 0x4968, symSize: 0xB0 }
  - { offset: 0x5CA4, size: 0x8, addend: 0x0, symName: __RNvXso_NtCsfvfooZQ3Axs_4core6resultINtB5_6ResultNtNtCs6IAuOt8vWmF_3syn4expr9ExprYieldNtNtBO_5error5ErrorENtNtNtB7_3ops9try_trait3Try6branchCs8jlTyMxP1WZ_17async_stream_impl, symObjAddr: 0x3DE8, symBinAddr: 0x4A18, symSize: 0xB0 }
  - { offset: 0x6147, size: 0x8, addend: 0x0, symName: __RNvXs1_NtCsfvfooZQ3Axs_4core7convertNtCs3cP53eQoTwO_11proc_macro211TokenStreamINtB5_4IntoNtCs9i5KxIbZ5ph_10proc_macro11TokenStreamE4intoCs8jlTyMxP1WZ_17async_stream_impl, symObjAddr: 0x1CFC, symBinAddr: 0x292C, symSize: 0x14 }
  - { offset: 0x635C, size: 0x8, addend: 0x0, symName: __RNvXs1_NtNtNtCsfvfooZQ3Axs_4core3ops8function5implsQNCINvNvNtNtNtNtBb_4iter6traits8iterator8Iterator8for_each4callNtCs3cP53eQoTwO_11proc_macro29TokenTreeNCINvXsa_NtB1Q_8fallbackNtB2A_11TokenStreamINtNtBZ_7collect6ExtendB1O_E6extendINtNtNtB11_8adapters5chain5ChainINtNtNtB11_7sources4once4OnceB1O_EINtNtB3M_8peekable8PeekableNtNtB1Q_12token_stream8IntoIterEEE0E0INtB7_5FnMutTuB1O_EE8call_mutCs8jlTyMxP1WZ_17async_stream_impl, symObjAddr: 0x1D10, symBinAddr: 0x2940, symSize: 0x40 }
  - { offset: 0x68FD, size: 0x8, addend: 0x0, symName: __RINvXs_NtNtNtCsfvfooZQ3Axs_4core4iter8adapters5chainINtB5_5ChainINtNtNtB9_7sources4once4OnceNtCs3cP53eQoTwO_11proc_macro29TokenTreeEINtNtB7_8peekable8PeekableNtNtB1u_12token_stream8IntoIterEENtNtNtB9_6traits8iterator8Iterator4folduNCINvNtB7_3map8map_foldB1s_NtCs9i5KxIbZ5ph_10proc_macro9TokenTreeuNvNtB1u_3imp19into_compiler_tokenNCINvNvB33_8for_each4callB48_NCINvXsg_B4a_NtB4a_11TokenStreamINtNtB37_7collect12FromIteratorB48_E9from_iterINtB3M_3MapBO_B4L_EE0E0E0ECs8jlTyMxP1WZ_17async_stream_impl, symObjAddr: 0xA00, symBinAddr: 0x1630, symSize: 0x21C }
  - { offset: 0x6999, size: 0x8, addend: 0x0, symName: __RINvXs_NtNtNtCsfvfooZQ3Axs_4core4iter8adapters5chainINtB5_5ChainINtNtNtB9_7sources4once4OnceNtCs3cP53eQoTwO_11proc_macro29TokenTreeEINtNtB7_8peekable8PeekableNtNtB1u_12token_stream8IntoIterEENtNtNtB9_6traits8iterator8Iterator4folduNCINvNvB33_8for_each4callB1s_NCINvXsa_NtB1u_8fallbackNtB4j_11TokenStreamINtNtB37_7collect6ExtendB1s_E6extendBO_E0E0ECs8jlTyMxP1WZ_17async_stream_impl, symObjAddr: 0xC1C, symBinAddr: 0x184C, symSize: 0x21C }
  - { offset: 0x6A35, size: 0x8, addend: 0x0, symName: __RNvXs_NtNtNtCsfvfooZQ3Axs_4core4iter8adapters5chainINtB4_5ChainINtNtNtB8_7sources4once4OnceNtCs3cP53eQoTwO_11proc_macro29TokenTreeEINtNtB6_8peekable8PeekableNtNtB1t_12token_stream8IntoIterEENtNtNtB8_6traits8iterator8Iterator9size_hintCs8jlTyMxP1WZ_17async_stream_impl, symObjAddr: 0x2E9C, symBinAddr: 0x3ACC, symSize: 0x21C }
  - { offset: 0x6C47, size: 0x8, addend: 0x0, symName: __RINvXs_NtNtNtCsfvfooZQ3Axs_4core4iter8adapters8peekableINtB5_8PeekableNtNtCs3cP53eQoTwO_11proc_macro212token_stream8IntoIterENtNtNtB9_6traits8iterator8Iterator4folduNCINvNtB7_3map8map_foldNtB1a_9TokenTreeNtCs9i5KxIbZ5ph_10proc_macro9TokenTreeuNvNtB1a_3imp19into_compiler_tokenNCINvNvB1Z_8for_each4callB3g_NCINvXsg_B3i_NtB3i_11TokenStreamINtNtB23_7collect12FromIteratorB3g_E9from_iterINtB2I_3MapINtNtB7_5chain5ChainINtNtNtB9_7sources4once4OnceB30_EBR_EB3T_EE0E0E0ECs8jlTyMxP1WZ_17async_stream_impl, symObjAddr: 0xE38, symBinAddr: 0x1A68, symSize: 0x134 }
  - { offset: 0x6CE1, size: 0x8, addend: 0x0, symName: __RINvXs_NtNtNtCsfvfooZQ3Axs_4core4iter8adapters8peekableINtB5_8PeekableNtNtCs3cP53eQoTwO_11proc_macro212token_stream8IntoIterENtNtNtB9_6traits8iterator8Iterator4folduNCINvNvB1Z_8for_each4callNtB1a_9TokenTreeNCINvXsa_NtB1a_8fallbackNtB3r_11TokenStreamINtNtB23_7collect6ExtendB32_E6extendINtNtB7_5chain5ChainINtNtNtB9_7sources4once4OnceB32_EBR_EE0E0ECs8jlTyMxP1WZ_17async_stream_impl, symObjAddr: 0xF6C, symBinAddr: 0x1B9C, symSize: 0x134 }
  - { offset: 0x6D7B, size: 0x8, addend: 0x0, symName: __RNvXs_NtNtNtCsfvfooZQ3Axs_4core4iter8adapters8peekableINtB4_8PeekableNtNtCs3cP53eQoTwO_11proc_macro212token_stream8IntoIterENtNtNtB8_6traits8iterator8Iterator4nextCs8jlTyMxP1WZ_17async_stream_impl, symObjAddr: 0x30B8, symBinAddr: 0x3CE8, symSize: 0xA4 }
  - { offset: 0x6E44, size: 0x8, addend: 0x0, symName: __RNvXs_NtNtNtCsfvfooZQ3Axs_4core4iter8adapters8peekableINtB4_8PeekableNtNtCs3cP53eQoTwO_11proc_macro212token_stream8IntoIterENtNtNtB8_6traits8iterator8Iterator9size_hintCs8jlTyMxP1WZ_17async_stream_impl, symObjAddr: 0x315C, symBinAddr: 0x3D8C, symSize: 0x194 }
  - { offset: 0x6FAD, size: 0x8, addend: 0x0, symName: __RNCNvMs3_NtNtNtCsfvfooZQ3Axs_4core4iter8adapters8peekableINtB7_8PeekableNtNtCs3cP53eQoTwO_11proc_macro212token_stream8IntoIterE4peek0Cs8jlTyMxP1WZ_17async_stream_impl, symObjAddr: 0x1524, symBinAddr: 0x2154, symSize: 0x24 }
  - { offset: 0x70AA, size: 0x8, addend: 0x0, symName: __RINvYINtNtNtNtCsfvfooZQ3Axs_4core4iter8adapters5chain5ChainINtNtNtBa_7sources4once4OnceNtCs3cP53eQoTwO_11proc_macro29TokenTreeEINtNtB8_8peekable8PeekableNtNtB1p_12token_stream8IntoIterEENtNtNtBa_6traits8iterator8Iterator3mapNtCs9i5KxIbZ5ph_10proc_macro9TokenTreeNvNtB1p_3imp19into_compiler_tokenECs8jlTyMxP1WZ_17async_stream_impl, symObjAddr: 0x122C, symBinAddr: 0x1E5C, symSize: 0x30 }
  - { offset: 0x7118, size: 0x8, addend: 0x0, symName: __RINvYINtNtNtNtCsfvfooZQ3Axs_4core4iter8adapters5chain5ChainINtNtNtBa_7sources4once4OnceNtCs3cP53eQoTwO_11proc_macro29TokenTreeEINtNtB8_8peekable8PeekableNtNtB1p_12token_stream8IntoIterEENtNtNtBa_6traits8iterator8Iterator7collectNtB1p_11TokenStreamECs8jlTyMxP1WZ_17async_stream_impl, symObjAddr: 0x125C, symBinAddr: 0x1E8C, symSize: 0x14 }
  - { offset: 0x7159, size: 0x8, addend: 0x0, symName: __RINvYINtNtNtNtCsfvfooZQ3Axs_4core4iter8adapters5chain5ChainINtNtNtBa_7sources4once4OnceNtCs3cP53eQoTwO_11proc_macro29TokenTreeEINtNtB8_8peekable8PeekableNtNtB1p_12token_stream8IntoIterEENtNtNtBa_6traits8iterator8Iterator7collectNtNtB1p_3imp11TokenStreamECs8jlTyMxP1WZ_17async_stream_impl, symObjAddr: 0x1270, symBinAddr: 0x1EA0, symSize: 0x14 }
  - { offset: 0x719A, size: 0x8, addend: 0x0, symName: __RINvYINtNtNtNtCsfvfooZQ3Axs_4core4iter8adapters5chain5ChainINtNtNtBa_7sources4once4OnceNtCs3cP53eQoTwO_11proc_macro29TokenTreeEINtNtB8_8peekable8PeekableNtNtB1p_12token_stream8IntoIterEENtNtNtBa_6traits8iterator8Iterator7collectNtNtB1p_8fallback11TokenStreamECs8jlTyMxP1WZ_17async_stream_impl, symObjAddr: 0x1284, symBinAddr: 0x1EB4, symSize: 0x14 }
  - { offset: 0x71DB, size: 0x8, addend: 0x0, symName: __RINvYINtNtNtNtCsfvfooZQ3Axs_4core4iter8adapters5chain5ChainINtNtNtBa_7sources4once4OnceNtCs3cP53eQoTwO_11proc_macro29TokenTreeEINtNtB8_8peekable8PeekableNtNtB1p_12token_stream8IntoIterEENtNtNtBa_6traits8iterator8Iterator8for_eachNCINvXsa_NtB1p_8fallbackNtB3O_11TokenStreamINtNtB32_7collect6ExtendB1n_E6extendB3_E0ECs8jlTyMxP1WZ_17async_stream_impl, symObjAddr: 0x1298, symBinAddr: 0x1EC8, symSize: 0x24 }
  - { offset: 0x7231, size: 0x8, addend: 0x0, symName: __RNCINvNvNtNtNtNtCsfvfooZQ3Axs_4core4iter6traits8iterator8Iterator8for_each4callNtCs3cP53eQoTwO_11proc_macro29TokenTreeNCINvXsa_NtB1h_8fallbackNtB21_11TokenStreamINtNtBa_7collect6ExtendB1f_E6extendINtNtBe_6option6OptionB1f_EE0E0Cs8jlTyMxP1WZ_17async_stream_impl, symObjAddr: 0x12BC, symBinAddr: 0x1EEC, symSize: 0x3C }
  - { offset: 0x728A, size: 0x8, addend: 0x0, symName: __RNCINvNvNtNtNtNtCsfvfooZQ3Axs_4core4iter6traits8iterator8Iterator8for_each4callNtCs3cP53eQoTwO_11proc_macro29TokenTreeNCINvXsa_NtB1h_8fallbackNtB21_11TokenStreamINtNtBa_7collect6ExtendB1f_E6extendINtNtNtBc_8adapters5chain5ChainINtNtNtBc_7sources4once4OnceB1f_EINtNtB3d_8peekable8PeekableNtNtB1h_12token_stream8IntoIterEEE0E0Cs8jlTyMxP1WZ_17async_stream_impl, symObjAddr: 0x12F8, symBinAddr: 0x1F28, symSize: 0x3C }
  - { offset: 0x72E3, size: 0x8, addend: 0x0, symName: __RNCINvNvNtNtNtNtCsfvfooZQ3Axs_4core4iter6traits8iterator8Iterator8for_each4callNtCs9i5KxIbZ5ph_10proc_macro9TokenTreeNCINvXsg_B1h_NtB1h_11TokenStreamINtNtBa_7collect12FromIteratorB1f_E9from_iterINtNtNtBc_8adapters3map3MapINtNtB3b_5chain5ChainINtNtNtBc_7sources4once4OnceNtCs3cP53eQoTwO_11proc_macro29TokenTreeEINtNtB3b_8peekable8PeekableNtNtB4m_12token_stream8IntoIterEENvNtB4m_3imp19into_compiler_tokenEE0E0Cs8jlTyMxP1WZ_17async_stream_impl, symObjAddr: 0x1334, symBinAddr: 0x1F64, symSize: 0x3C }
  - { offset: 0x7370, size: 0x8, addend: 0x0, symName: __RNvXNtNtNtCsfvfooZQ3Axs_4core4iter6traits7collectINtNtNtB6_8adapters5chain5ChainINtNtNtB6_7sources4once4OnceNtCs3cP53eQoTwO_11proc_macro29TokenTreeEINtNtBQ_8peekable8PeekableNtNtB1K_12token_stream8IntoIterEENtB2_12IntoIterator9into_iterCs8jlTyMxP1WZ_17async_stream_impl, symObjAddr: 0x1C9C, symBinAddr: 0x28CC, symSize: 0x30 }
  - { offset: 0x73A8, size: 0x8, addend: 0x0, symName: __RNvXNtNtNtCsfvfooZQ3Axs_4core4iter6traits7collectINtNtNtB6_8adapters8peekable8PeekableNtNtCs3cP53eQoTwO_11proc_macro212token_stream8IntoIterENtB2_12IntoIterator9into_iterCs8jlTyMxP1WZ_17async_stream_impl, symObjAddr: 0x1CCC, symBinAddr: 0x28FC, symSize: 0x30 }
  - { offset: 0x74F6, size: 0x8, addend: 0x0, symName: __RNvMNtCsfvfooZQ3Axs_4core5sliceSTNtNtCs6IAuOt8vWmF_3syn2ty4TypeNtNtBz_5token5CommaE8iter_mutCs8jlTyMxP1WZ_17async_stream_impl, symObjAddr: 0x1548, symBinAddr: 0x2178, symSize: 0x28 }
  - { offset: 0x752D, size: 0x8, addend: 0x0, symName: __RNvMNtCsfvfooZQ3Axs_4core5sliceSTNtNtCs6IAuOt8vWmF_3syn2ty9BareFnArgNtNtBz_5token5CommaE8iter_mutCs8jlTyMxP1WZ_17async_stream_impl, symObjAddr: 0x1570, symBinAddr: 0x21A0, symSize: 0x28 }
  - { offset: 0x7564, size: 0x8, addend: 0x0, symName: __RNvMNtCsfvfooZQ3Axs_4core5sliceSTNtNtCs6IAuOt8vWmF_3syn4expr10FieldValueNtNtBz_5token5CommaE8iter_mutCs8jlTyMxP1WZ_17async_stream_impl, symObjAddr: 0x1598, symBinAddr: 0x21C8, symSize: 0x28 }
  - { offset: 0x759B, size: 0x8, addend: 0x0, symName: __RNvMNtCsfvfooZQ3Axs_4core5sliceSTNtNtCs6IAuOt8vWmF_3syn4expr4ExprNtNtBz_5token5CommaE8iter_mutCs8jlTyMxP1WZ_17async_stream_impl, symObjAddr: 0x15C0, symBinAddr: 0x21F0, symSize: 0x28 }
  - { offset: 0x75D2, size: 0x8, addend: 0x0, symName: __RNvMNtCsfvfooZQ3Axs_4core5sliceSTNtNtCs6IAuOt8vWmF_3syn4path15GenericArgumentNtNtBz_5token5CommaE8iter_mutCs8jlTyMxP1WZ_17async_stream_impl, symObjAddr: 0x15E8, symBinAddr: 0x2218, symSize: 0x28 }
  - { offset: 0x7609, size: 0x8, addend: 0x0, symName: __RNvMNtCsfvfooZQ3Axs_4core5sliceSTNtNtCs6IAuOt8vWmF_3syn8generics13CapturedParamNtNtBz_5token5CommaE8iter_mutCs8jlTyMxP1WZ_17async_stream_impl, symObjAddr: 0x1610, symBinAddr: 0x2240, symSize: 0x28 }
  - { offset: 0x7640, size: 0x8, addend: 0x0, symName: __RNvMNtCsfvfooZQ3Axs_4core5sliceSTNtNtCs6IAuOt8vWmF_3syn8generics14TypeParamBoundNtNtBz_5token4PlusE8iter_mutCs8jlTyMxP1WZ_17async_stream_impl, symObjAddr: 0x1638, symBinAddr: 0x2268, symSize: 0x28 }
  - { offset: 0x7677, size: 0x8, addend: 0x0, symName: __RNvMNtCsfvfooZQ3Axs_4core5sliceSTNtNtCs6IAuOt8vWmF_3syn8lifetime8LifetimeNtNtBz_5token4PlusE8iter_mutCs8jlTyMxP1WZ_17async_stream_impl, symObjAddr: 0x1660, symBinAddr: 0x2290, symSize: 0x28 }
  - { offset: 0x76FC, size: 0x8, addend: 0x0, symName: __RNvMNtCsfvfooZQ3Axs_4core5sliceSh15copy_from_sliceCs8jlTyMxP1WZ_17async_stream_impl, symObjAddr: 0x1688, symBinAddr: 0x22B8, symSize: 0xA4 }
  - { offset: 0x7F9D, size: 0x8, addend: 0x0, symName: __RNvXs32_NtNtCsfvfooZQ3Axs_4core5slice4iterINtB6_7IterMutNtNtCs6IAuOt8vWmF_3syn4attr9AttributeENtNtNtNtBa_4iter6traits8iterator8Iterator4nextCs8jlTyMxP1WZ_17async_stream_impl, symObjAddr: 0x1D50, symBinAddr: 0x2980, symSize: 0xBC }
  - { offset: 0x80D6, size: 0x8, addend: 0x0, symName: __RNvXs32_NtNtCsfvfooZQ3Axs_4core5slice4iterINtB6_7IterMutNtNtCs6IAuOt8vWmF_3syn4expr3ArmENtNtNtNtBa_4iter6traits8iterator8Iterator4nextCs8jlTyMxP1WZ_17async_stream_impl, symObjAddr: 0x1E0C, symBinAddr: 0x2A3C, symSize: 0xBC }
  - { offset: 0x820F, size: 0x8, addend: 0x0, symName: __RNvXs32_NtNtCsfvfooZQ3Axs_4core5slice4iterINtB6_7IterMutNtNtCs6IAuOt8vWmF_3syn4stmt4StmtENtNtNtNtBa_4iter6traits8iterator8Iterator4nextCs8jlTyMxP1WZ_17async_stream_impl, symObjAddr: 0x1EC8, symBinAddr: 0x2AF8, symSize: 0xBC }
  - { offset: 0x8348, size: 0x8, addend: 0x0, symName: __RNvXs32_NtNtCsfvfooZQ3Axs_4core5slice4iterINtB6_7IterMutTNtNtCs6IAuOt8vWmF_3syn2ty4TypeNtNtBX_5token5CommaEENtNtNtNtBa_4iter6traits8iterator8Iterator4nextCs8jlTyMxP1WZ_17async_stream_impl, symObjAddr: 0x1F84, symBinAddr: 0x2BB4, symSize: 0xBC }
  - { offset: 0x8481, size: 0x8, addend: 0x0, symName: __RNvXs32_NtNtCsfvfooZQ3Axs_4core5slice4iterINtB6_7IterMutTNtNtCs6IAuOt8vWmF_3syn2ty9BareFnArgNtNtBX_5token5CommaEENtNtNtNtBa_4iter6traits8iterator8Iterator4nextCs8jlTyMxP1WZ_17async_stream_impl, symObjAddr: 0x2040, symBinAddr: 0x2C70, symSize: 0xBC }
  - { offset: 0x85BA, size: 0x8, addend: 0x0, symName: __RNvXs32_NtNtCsfvfooZQ3Axs_4core5slice4iterINtB6_7IterMutTNtNtCs6IAuOt8vWmF_3syn3pat3PatNtNtBX_5token2OrEENtNtNtNtBa_4iter6traits8iterator8Iterator4nextCs8jlTyMxP1WZ_17async_stream_impl, symObjAddr: 0x20FC, symBinAddr: 0x2D2C, symSize: 0xBC }
  - { offset: 0x86F3, size: 0x8, addend: 0x0, symName: __RNvXs32_NtNtCsfvfooZQ3Axs_4core5slice4iterINtB6_7IterMutTNtNtCs6IAuOt8vWmF_3syn3pat3PatNtNtBX_5token5CommaEENtNtNtNtBa_4iter6traits8iterator8Iterator4nextCs8jlTyMxP1WZ_17async_stream_impl, symObjAddr: 0x21B8, symBinAddr: 0x2DE8, symSize: 0xBC }
  - { offset: 0x882C, size: 0x8, addend: 0x0, symName: __RNvXs32_NtNtCsfvfooZQ3Axs_4core5slice4iterINtB6_7IterMutTNtNtCs6IAuOt8vWmF_3syn3pat8FieldPatNtNtBX_5token5CommaEENtNtNtNtBa_4iter6traits8iterator8Iterator4nextCs8jlTyMxP1WZ_17async_stream_impl, symObjAddr: 0x2274, symBinAddr: 0x2EA4, symSize: 0xBC }
  - { offset: 0x8965, size: 0x8, addend: 0x0, symName: __RNvXs32_NtNtCsfvfooZQ3Axs_4core5slice4iterINtB6_7IterMutTNtNtCs6IAuOt8vWmF_3syn4expr10FieldValueNtNtBX_5token5CommaEENtNtNtNtBa_4iter6traits8iterator8Iterator4nextCs8jlTyMxP1WZ_17async_stream_impl, symObjAddr: 0x2330, symBinAddr: 0x2F60, symSize: 0xBC }
  - { offset: 0x8A9E, size: 0x8, addend: 0x0, symName: __RNvXs32_NtNtCsfvfooZQ3Axs_4core5slice4iterINtB6_7IterMutTNtNtCs6IAuOt8vWmF_3syn4expr4ExprNtNtBX_5token5CommaEENtNtNtNtBa_4iter6traits8iterator8Iterator4nextCs8jlTyMxP1WZ_17async_stream_impl, symObjAddr: 0x23EC, symBinAddr: 0x301C, symSize: 0xBC }
  - { offset: 0x8BD7, size: 0x8, addend: 0x0, symName: __RNvXs32_NtNtCsfvfooZQ3Axs_4core5slice4iterINtB6_7IterMutTNtNtCs6IAuOt8vWmF_3syn4path15GenericArgumentNtNtBX_5token5CommaEENtNtNtNtBa_4iter6traits8iterator8Iterator4nextCs8jlTyMxP1WZ_17async_stream_impl, symObjAddr: 0x24A8, symBinAddr: 0x30D8, symSize: 0xBC }
  - { offset: 0x8D10, size: 0x8, addend: 0x0, symName: __RNvXs32_NtNtCsfvfooZQ3Axs_4core5slice4iterINtB6_7IterMutTNtNtCs6IAuOt8vWmF_3syn8generics13CapturedParamNtNtBX_5token5CommaEENtNtNtNtBa_4iter6traits8iterator8Iterator4nextCs8jlTyMxP1WZ_17async_stream_impl, symObjAddr: 0x2564, symBinAddr: 0x3194, symSize: 0xBC }
  - { offset: 0x8E49, size: 0x8, addend: 0x0, symName: __RNvXs32_NtNtCsfvfooZQ3Axs_4core5slice4iterINtB6_7IterMutTNtNtCs6IAuOt8vWmF_3syn8generics14TypeParamBoundNtNtBX_5token4PlusEENtNtNtNtBa_4iter6traits8iterator8Iterator4nextCs8jlTyMxP1WZ_17async_stream_impl, symObjAddr: 0x2620, symBinAddr: 0x3250, symSize: 0xBC }
  - { offset: 0x8F82, size: 0x8, addend: 0x0, symName: __RNvXs32_NtNtCsfvfooZQ3Axs_4core5slice4iterINtB6_7IterMutTNtNtCs6IAuOt8vWmF_3syn8lifetime8LifetimeNtNtBX_5token4PlusEENtNtNtNtBa_4iter6traits8iterator8Iterator4nextCs8jlTyMxP1WZ_17async_stream_impl, symObjAddr: 0x26DC, symBinAddr: 0x330C, symSize: 0xBC }
  - { offset: 0x92DC, size: 0x8, addend: 0x0, symName: __RNvXsn_NtNtCsfvfooZQ3Axs_4core5panic11unwind_safeINtB5_16AssertUnwindSafeNCINvNtNtCs9i5KxIbZ5ph_10proc_macro6bridge6client10run_clientNtB1e_11TokenStreamINtNtB9_6option6OptionB28_ENCNCINvMs7_B1e_INtB1e_6ClientNtB1i_11TokenStreamB3l_E7expand1NvCs8jlTyMxP1WZ_17async_stream_impl12stream_innerE00E0EINtNtNtB9_3ops8function6FnOnceuE9call_onceB3T_, symObjAddr: 0x3CC8, symBinAddr: 0x48F8, symSize: 0x38 }
  - { offset: 0x9334, size: 0x8, addend: 0x0, symName: __RNvXsn_NtNtCsfvfooZQ3Axs_4core5panic11unwind_safeINtB5_16AssertUnwindSafeNCINvNtNtCs9i5KxIbZ5ph_10proc_macro6bridge6client10run_clientNtB1e_11TokenStreamINtNtB9_6option6OptionB28_ENCNCINvMs7_B1e_INtB1e_6ClientNtB1i_11TokenStreamB3l_E7expand1NvCs8jlTyMxP1WZ_17async_stream_impl16try_stream_innerE00E0EINtNtNtB9_3ops8function6FnOnceuE9call_onceB3T_, symObjAddr: 0x3D00, symBinAddr: 0x4930, symSize: 0x38 }
  - { offset: 0x95E2, size: 0x8, addend: 0x0, symName: __RNCNvMs3_NtNtCscOYdFFY2T5N_3std6thread5localINtB7_8LocalKeyINtNtCsfvfooZQ3Axs_4core4cell4CellPuEE7replace0Cs8jlTyMxP1WZ_17async_stream_impl, symObjAddr: 0x14FC, symBinAddr: 0x212C, symSize: 0x28 }
  - { offset: 0x96AE, size: 0x8, addend: 0x0, symName: __RINvCs6IAuOt8vWmF_3syn6parse2INtCs8jlTyMxP1WZ_17async_stream_impl7PartialNtNtB2_4expr9ExprYieldEEBu_, symObjAddr: 0x0, symBinAddr: 0xC58, symSize: 0x24 }
  - { offset: 0x96EB, size: 0x8, addend: 0x0, symName: __RINvNtCs6IAuOt8vWmF_3syn11parse_quote5parseINtNtCse1nGBsou5OW_5alloc5boxed3BoxNtNtB4_4expr4ExprEECs8jlTyMxP1WZ_17async_stream_impl, symObjAddr: 0x15C, symBinAddr: 0xDB4, symSize: 0xB4 }
  - { offset: 0x974B, size: 0x8, addend: 0x0, symName: __RINvNtCs6IAuOt8vWmF_3syn11parse_quote5parseNtNtB4_4expr4ExprECs8jlTyMxP1WZ_17async_stream_impl, symObjAddr: 0x210, symBinAddr: 0xE68, symSize: 0xD0 }
  - { offset: 0x97B0, size: 0x8, addend: 0x0, symName: __RINvNvNtCs6IAuOt8vWmF_3syn11parse_quote5parse18panic_cold_displayNtNtB6_5error5ErrorECs8jlTyMxP1WZ_17async_stream_impl, symObjAddr: 0x4B0, symBinAddr: 0x15699C, symSize: 0x28 }
  - { offset: 0x97E7, size: 0x8, addend: 0x0, symName: __RNvXNtCs6IAuOt8vWmF_3syn11parse_quoteINtNtCse1nGBsou5OW_5alloc5boxed3BoxNtNtB4_4expr4ExprENtB2_10ParseQuote5parseCs8jlTyMxP1WZ_17async_stream_impl, symObjAddr: 0x1C34, symBinAddr: 0x2864, symSize: 0x34 }
  - { offset: 0x981C, size: 0x8, addend: 0x0, symName: __RNvXNtCs6IAuOt8vWmF_3syn11parse_quoteNtNtB4_4expr4ExprNtB2_10ParseQuote5parseCs8jlTyMxP1WZ_17async_stream_impl, symObjAddr: 0x1C68, symBinAddr: 0x2898, symSize: 0x34 }
  - { offset: 0xE476, size: 0x8, addend: 0x0, symName: __RNvXsh_NtCs6IAuOt8vWmF_3syn5parseNvYINtCs8jlTyMxP1WZ_17async_stream_impl7PartialNtNtB7_4expr9ExprYieldENtB5_5Parse5parseNtB5_6Parser6parse2BB_, symObjAddr: 0x32F0, symBinAddr: 0x3F20, symSize: 0x368 }
  - { offset: 0xE586, size: 0x8, addend: 0x0, symName: __RNvXsh_NtCs6IAuOt8vWmF_3syn5parseNvYINtNtCse1nGBsou5OW_5alloc5boxed3BoxNtNtB7_4expr4ExprENtNtB7_11parse_quote10ParseQuote5parseNtB5_6Parser6parse2Cs8jlTyMxP1WZ_17async_stream_impl, symObjAddr: 0x3658, symBinAddr: 0x4288, symSize: 0x31C }
  - { offset: 0xE694, size: 0x8, addend: 0x0, symName: __RNvXsh_NtCs6IAuOt8vWmF_3syn5parseNvYNtNtB7_4expr4ExprNtNtB7_11parse_quote10ParseQuote5parseNtB5_6Parser6parse2Cs8jlTyMxP1WZ_17async_stream_impl, symObjAddr: 0x3974, symBinAddr: 0x45A4, symSize: 0x354 }
  - { offset: 0xEA62, size: 0x8, addend: 0x0, symName: __RINvMs2_NtNtCscOYdFFY2T5N_3std6thread5localINtB6_8LocalKeyINtNtCsfvfooZQ3Axs_4core4cell4CellPuEE4withNCNvMs3_B6_BF_7replace0B1s_ECs8jlTyMxP1WZ_17async_stream_impl, symObjAddr: 0x24, symBinAddr: 0xC7C, symSize: 0x54 }
  - { offset: 0xEB1B, size: 0x8, addend: 0x0, symName: __RINvMs2_NtNtCscOYdFFY2T5N_3std6thread5localINtB6_8LocalKeyINtNtCsfvfooZQ3Axs_4core4cell4CellPuEE8try_withNCNvMs3_B6_BF_7replace0B1s_ECs8jlTyMxP1WZ_17async_stream_impl, symObjAddr: 0x78, symBinAddr: 0xCD0, symSize: 0xE4 }
  - { offset: 0xED62, size: 0x8, addend: 0x0, symName: __RINvXNtCs2cqEZUIJimJ_5quote3extNtCs3cP53eQoTwO_11proc_macro211TokenStreamNtB3_14TokenStreamExt10append_allNtNtBv_12token_stream8IntoIterECs8jlTyMxP1WZ_17async_stream_impl, symObjAddr: 0x4D8, symBinAddr: 0x1108, symSize: 0x10C }
  - { offset: 0xEDE0, size: 0x8, addend: 0x0, symName: __RNvXNtCs2cqEZUIJimJ_5quote9to_tokensRINtNtCse1nGBsou5OW_5alloc5boxed3BoxNtNtCs6IAuOt8vWmF_3syn4expr4ExprENtB2_8ToTokens9to_tokensCs8jlTyMxP1WZ_17async_stream_impl, symObjAddr: 0x1BB4, symBinAddr: 0x27E4, symSize: 0x40 }
  - { offset: 0xEE1F, size: 0x8, addend: 0x0, symName: __RNvXNtCs2cqEZUIJimJ_5quote9to_tokensRNtCs3cP53eQoTwO_11proc_macro211TokenStreamNtB2_8ToTokens9to_tokensCs8jlTyMxP1WZ_17async_stream_impl, symObjAddr: 0x1BF4, symBinAddr: 0x2824, symSize: 0x40 }
  - { offset: 0xEE64, size: 0x8, addend: 0x0, symName: __RNvXs_NtCs2cqEZUIJimJ_5quote9to_tokensQINtNtCse1nGBsou5OW_5alloc5boxed3BoxNtNtCs6IAuOt8vWmF_3syn3pat3PatENtB4_8ToTokens9to_tokensCs8jlTyMxP1WZ_17async_stream_impl, symObjAddr: 0x2D94, symBinAddr: 0x39C4, symSize: 0x40 }
  - { offset: 0xEEA3, size: 0x8, addend: 0x0, symName: __RNvXs_NtCs2cqEZUIJimJ_5quote9to_tokensQINtNtCse1nGBsou5OW_5alloc5boxed3BoxNtNtCs6IAuOt8vWmF_3syn4expr4ExprENtB4_8ToTokens9to_tokensCs8jlTyMxP1WZ_17async_stream_impl, symObjAddr: 0x2DD4, symBinAddr: 0x3A04, symSize: 0x40 }
  - { offset: 0xF750, size: 0x8, addend: 0x0, symName: __RNvXs_NtCse1nGBsou5OW_5alloc5allocNtB4_6GlobalNtNtCsfvfooZQ3Axs_4core5alloc9Allocator10deallocateCs8jlTyMxP1WZ_17async_stream_impl, symObjAddr: 0x2E14, symBinAddr: 0x3A44, symSize: 0x88 }
  - { offset: 0xFE88, size: 0x8, addend: 0x0, symName: __RNvXs6_NtCse1nGBsou5OW_5alloc5boxedINtB5_3BoxDNtNtCsfvfooZQ3Axs_4core5error5ErrorNtNtBM_6marker4SendNtB1j_4SyncEL_ENtNtNtBM_3ops4drop4Drop4dropCs8jlTyMxP1WZ_17async_stream_impl, symObjAddr: 0x2798, symBinAddr: 0x33C8, symSize: 0xC4 }
  - { offset: 0xFFBF, size: 0x8, addend: 0x0, symName: __RNvXs6_NtCse1nGBsou5OW_5alloc5boxedINtB5_3BoxNtNtNtCscOYdFFY2T5N_3std2io5error6CustomENtNtNtCsfvfooZQ3Axs_4core3ops4drop4Drop4dropCs8jlTyMxP1WZ_17async_stream_impl, symObjAddr: 0x285C, symBinAddr: 0x348C, symSize: 0xB0 }
  - { offset: 0x100FC, size: 0x8, addend: 0x0, symName: __RNvXsC_NtCse1nGBsou5OW_5alloc5boxedINtB5_3BoxNtNtCs6IAuOt8vWmF_3syn2ty4TypeEINtNtCsfvfooZQ3Axs_4core7convert5AsMutBH_E6as_mutCs8jlTyMxP1WZ_17async_stream_impl, symObjAddr: 0x29F8, symBinAddr: 0x3628, symSize: 0x18 }
  - { offset: 0x1013C, size: 0x8, addend: 0x0, symName: __RNvXsC_NtCse1nGBsou5OW_5alloc5boxedINtB5_3BoxNtNtCs6IAuOt8vWmF_3syn2ty9BareFnArgEINtNtCsfvfooZQ3Axs_4core7convert5AsMutBH_E6as_mutCs8jlTyMxP1WZ_17async_stream_impl, symObjAddr: 0x2A10, symBinAddr: 0x3640, symSize: 0x18 }
  - { offset: 0x1017C, size: 0x8, addend: 0x0, symName: __RNvXsC_NtCse1nGBsou5OW_5alloc5boxedINtB5_3BoxNtNtCs6IAuOt8vWmF_3syn3pat3PatEINtNtCsfvfooZQ3Axs_4core7convert5AsMutBH_E6as_mutCs8jlTyMxP1WZ_17async_stream_impl, symObjAddr: 0x2A28, symBinAddr: 0x3658, symSize: 0x18 }
  - { offset: 0x101BC, size: 0x8, addend: 0x0, symName: __RNvXsC_NtCse1nGBsou5OW_5alloc5boxedINtB5_3BoxNtNtCs6IAuOt8vWmF_3syn3pat8FieldPatEINtNtCsfvfooZQ3Axs_4core7convert5AsMutBH_E6as_mutCs8jlTyMxP1WZ_17async_stream_impl, symObjAddr: 0x2A40, symBinAddr: 0x3670, symSize: 0x18 }
  - { offset: 0x101FC, size: 0x8, addend: 0x0, symName: __RNvXsC_NtCse1nGBsou5OW_5alloc5boxedINtB5_3BoxNtNtCs6IAuOt8vWmF_3syn4expr10FieldValueEINtNtCsfvfooZQ3Axs_4core7convert5AsMutBH_E6as_mutCs8jlTyMxP1WZ_17async_stream_impl, symObjAddr: 0x2A58, symBinAddr: 0x3688, symSize: 0x18 }
  - { offset: 0x1023C, size: 0x8, addend: 0x0, symName: __RNvXsC_NtCse1nGBsou5OW_5alloc5boxedINtB5_3BoxNtNtCs6IAuOt8vWmF_3syn4expr4ExprEINtNtCsfvfooZQ3Axs_4core7convert5AsMutBH_E6as_mutCs8jlTyMxP1WZ_17async_stream_impl, symObjAddr: 0x2A70, symBinAddr: 0x36A0, symSize: 0x18 }
  - { offset: 0x1027C, size: 0x8, addend: 0x0, symName: __RNvXsC_NtCse1nGBsou5OW_5alloc5boxedINtB5_3BoxNtNtCs6IAuOt8vWmF_3syn4path15GenericArgumentEINtNtCsfvfooZQ3Axs_4core7convert5AsMutBH_E6as_mutCs8jlTyMxP1WZ_17async_stream_impl, symObjAddr: 0x2A88, symBinAddr: 0x36B8, symSize: 0x18 }
  - { offset: 0x102BC, size: 0x8, addend: 0x0, symName: __RNvXsC_NtCse1nGBsou5OW_5alloc5boxedINtB5_3BoxNtNtCs6IAuOt8vWmF_3syn8generics13CapturedParamEINtNtCsfvfooZQ3Axs_4core7convert5AsMutBH_E6as_mutCs8jlTyMxP1WZ_17async_stream_impl, symObjAddr: 0x2AA0, symBinAddr: 0x36D0, symSize: 0x18 }
  - { offset: 0x102FC, size: 0x8, addend: 0x0, symName: __RNvXsC_NtCse1nGBsou5OW_5alloc5boxedINtB5_3BoxNtNtCs6IAuOt8vWmF_3syn8generics14TypeParamBoundEINtNtCsfvfooZQ3Axs_4core7convert5AsMutBH_E6as_mutCs8jlTyMxP1WZ_17async_stream_impl, symObjAddr: 0x2AB8, symBinAddr: 0x36E8, symSize: 0x18 }
  - { offset: 0x1033C, size: 0x8, addend: 0x0, symName: __RNvXsC_NtCse1nGBsou5OW_5alloc5boxedINtB5_3BoxNtNtCs6IAuOt8vWmF_3syn8lifetime8LifetimeEINtNtCsfvfooZQ3Axs_4core7convert5AsMutBH_E6as_mutCs8jlTyMxP1WZ_17async_stream_impl, symObjAddr: 0x2AD0, symBinAddr: 0x3700, symSize: 0x18 }
  - { offset: 0x104DD, size: 0x8, addend: 0x0, symName: __RNvMs3_NtNtNtCsfvfooZQ3Axs_4core4iter8adapters8peekableINtB5_8PeekableNtNtCs3cP53eQoTwO_11proc_macro212token_stream8IntoIterE4peekCs8jlTyMxP1WZ_17async_stream_impl, symObjAddr: 0x172C, symBinAddr: 0x235C, symSize: 0x70 }
  - { offset: 0x10AEA, size: 0x8, addend: 0x0, symName: __RNvMs4_NtNtCsfvfooZQ3Axs_4core5slice4iterINtB5_4IterNtNtCs6IAuOt8vWmF_3syn4stmt4StmtE3newCs8jlTyMxP1WZ_17async_stream_impl, symObjAddr: 0x179C, symBinAddr: 0x23CC, symSize: 0x58 }
  - { offset: 0x10CD2, size: 0x8, addend: 0x0, symName: __RNvMsa_NtNtCsfvfooZQ3Axs_4core5slice4iterINtB5_7IterMutTNtNtCs6IAuOt8vWmF_3syn2ty4TypeNtNtBW_5token5CommaEE3newCs8jlTyMxP1WZ_17async_stream_impl, symObjAddr: 0x17F4, symBinAddr: 0x2424, symSize: 0x58 }
  - { offset: 0x10EBA, size: 0x8, addend: 0x0, symName: __RNvMsa_NtNtCsfvfooZQ3Axs_4core5slice4iterINtB5_7IterMutTNtNtCs6IAuOt8vWmF_3syn2ty9BareFnArgNtNtBW_5token5CommaEE3newCs8jlTyMxP1WZ_17async_stream_impl, symObjAddr: 0x184C, symBinAddr: 0x247C, symSize: 0x58 }
  - { offset: 0x110A2, size: 0x8, addend: 0x0, symName: __RNvMsa_NtNtCsfvfooZQ3Axs_4core5slice4iterINtB5_7IterMutTNtNtCs6IAuOt8vWmF_3syn3pat3PatNtNtBW_5token2OrEE3newCs8jlTyMxP1WZ_17async_stream_impl, symObjAddr: 0x18A4, symBinAddr: 0x24D4, symSize: 0x58 }
  - { offset: 0x1128A, size: 0x8, addend: 0x0, symName: __RNvMsa_NtNtCsfvfooZQ3Axs_4core5slice4iterINtB5_7IterMutTNtNtCs6IAuOt8vWmF_3syn3pat3PatNtNtBW_5token5CommaEE3newCs8jlTyMxP1WZ_17async_stream_impl, symObjAddr: 0x18FC, symBinAddr: 0x252C, symSize: 0x58 }
  - { offset: 0x11472, size: 0x8, addend: 0x0, symName: __RNvMsa_NtNtCsfvfooZQ3Axs_4core5slice4iterINtB5_7IterMutTNtNtCs6IAuOt8vWmF_3syn3pat8FieldPatNtNtBW_5token5CommaEE3newCs8jlTyMxP1WZ_17async_stream_impl, symObjAddr: 0x1954, symBinAddr: 0x2584, symSize: 0x58 }
  - { offset: 0x1165A, size: 0x8, addend: 0x0, symName: __RNvMsa_NtNtCsfvfooZQ3Axs_4core5slice4iterINtB5_7IterMutTNtNtCs6IAuOt8vWmF_3syn4expr10FieldValueNtNtBW_5token5CommaEE3newCs8jlTyMxP1WZ_17async_stream_impl, symObjAddr: 0x19AC, symBinAddr: 0x25DC, symSize: 0x58 }
  - { offset: 0x11842, size: 0x8, addend: 0x0, symName: __RNvMsa_NtNtCsfvfooZQ3Axs_4core5slice4iterINtB5_7IterMutTNtNtCs6IAuOt8vWmF_3syn4expr4ExprNtNtBW_5token5CommaEE3newCs8jlTyMxP1WZ_17async_stream_impl, symObjAddr: 0x1A04, symBinAddr: 0x2634, symSize: 0x58 }
  - { offset: 0x11A2A, size: 0x8, addend: 0x0, symName: __RNvMsa_NtNtCsfvfooZQ3Axs_4core5slice4iterINtB5_7IterMutTNtNtCs6IAuOt8vWmF_3syn4path15GenericArgumentNtNtBW_5token5CommaEE3newCs8jlTyMxP1WZ_17async_stream_impl, symObjAddr: 0x1A5C, symBinAddr: 0x268C, symSize: 0x58 }
  - { offset: 0x11C12, size: 0x8, addend: 0x0, symName: __RNvMsa_NtNtCsfvfooZQ3Axs_4core5slice4iterINtB5_7IterMutTNtNtCs6IAuOt8vWmF_3syn8generics13CapturedParamNtNtBW_5token5CommaEE3newCs8jlTyMxP1WZ_17async_stream_impl, symObjAddr: 0x1AB4, symBinAddr: 0x26E4, symSize: 0x58 }
  - { offset: 0x11DFA, size: 0x8, addend: 0x0, symName: __RNvMsa_NtNtCsfvfooZQ3Axs_4core5slice4iterINtB5_7IterMutTNtNtCs6IAuOt8vWmF_3syn8generics14TypeParamBoundNtNtBW_5token4PlusEE3newCs8jlTyMxP1WZ_17async_stream_impl, symObjAddr: 0x1B0C, symBinAddr: 0x273C, symSize: 0x50 }
  - { offset: 0x11FE2, size: 0x8, addend: 0x0, symName: __RNvMsa_NtNtCsfvfooZQ3Axs_4core5slice4iterINtB5_7IterMutTNtNtCs6IAuOt8vWmF_3syn8lifetime8LifetimeNtNtBW_5token4PlusEE3newCs8jlTyMxP1WZ_17async_stream_impl, symObjAddr: 0x1B5C, symBinAddr: 0x278C, symSize: 0x58 }
  - { offset: 0x13493, size: 0x8, addend: 0x0, symName: __RINvMNtCsfvfooZQ3Axs_4core6optionINtB3_6OptionIBw_NtCs3cP53eQoTwO_11proc_macro29TokenTreeEE18get_or_insert_withNCNvMs3_NtNtNtB5_4iter8adapters8peekableINtB1T_8PeekableNtNtBO_12token_stream8IntoIterE4peek0ECs8jlTyMxP1WZ_17async_stream_impl, symObjAddr: 0x0, symBinAddr: 0x4C14, symSize: 0x138 }
  - { offset: 0x1373D, size: 0x8, addend: 0x0, symName: __RINvNvNtCscOYdFFY2T5N_3std9panicking3try7do_callINtNtNtCsfvfooZQ3Axs_4core5panic11unwind_safe16AssertUnwindSafeNCINvNtNtCs9i5KxIbZ5ph_10proc_macro6bridge6client10run_clientNtB1Q_11TokenStreamINtNtBR_6option6OptionB2K_ENCNCINvMs7_B1Q_INtB1Q_6ClientNtB1U_11TokenStreamB3X_E7expand1NvCs8jlTyMxP1WZ_17async_stream_impl12stream_innerE00E0EuEB4v_, symObjAddr: 0x21C0, symBinAddr: 0x6D8C, symSize: 0x50 }
  - { offset: 0x13805, size: 0x8, addend: 0x0, symName: __RINvNvNtCscOYdFFY2T5N_3std9panicking3try7do_callINtNtNtCsfvfooZQ3Axs_4core5panic11unwind_safe16AssertUnwindSafeNCINvNtNtCs9i5KxIbZ5ph_10proc_macro6bridge6client10run_clientNtB1Q_11TokenStreamINtNtBR_6option6OptionB2K_ENCNCINvMs7_B1Q_INtB1Q_6ClientNtB1U_11TokenStreamB3X_E7expand1NvCs8jlTyMxP1WZ_17async_stream_impl16try_stream_innerE00E0EuEB4v_, symObjAddr: 0x2210, symBinAddr: 0x6DDC, symSize: 0x50 }
  - { offset: 0x138CD, size: 0x8, addend: 0x0, symName: __RINvNvNtCscOYdFFY2T5N_3std9panicking3try8do_catchINtNtNtCsfvfooZQ3Axs_4core5panic11unwind_safe16AssertUnwindSafeNCINvNtNtCs9i5KxIbZ5ph_10proc_macro6bridge6client10run_clientNtB1R_11TokenStreamINtNtBS_6option6OptionB2L_ENCNCINvMs7_B1R_INtB1R_6ClientNtB1V_11TokenStreamB3Y_E7expand1NvCs8jlTyMxP1WZ_17async_stream_impl12stream_innerE00E0EuEB4w_, symObjAddr: 0x2260, symBinAddr: 0x6E2C, symSize: 0x70 }
  - { offset: 0x13962, size: 0x8, addend: 0x0, symName: __RINvNvNtCscOYdFFY2T5N_3std9panicking3try8do_catchINtNtNtCsfvfooZQ3Axs_4core5panic11unwind_safe16AssertUnwindSafeNCINvNtNtCs9i5KxIbZ5ph_10proc_macro6bridge6client10run_clientNtB1R_11TokenStreamINtNtBS_6option6OptionB2L_ENCNCINvMs7_B1R_INtB1R_6ClientNtB1V_11TokenStreamB3Y_E7expand1NvCs8jlTyMxP1WZ_17async_stream_impl16try_stream_innerE00E0EuEB4w_, symObjAddr: 0x22D0, symBinAddr: 0x6E9C, symSize: 0x70 }
  - { offset: 0x13B3D, size: 0x8, addend: 0x0, symName: __RNvNvMs1_NtNtCsfvfooZQ3Axs_4core3ptr8non_nullINtB7_7NonNullpE13new_unchecked18precondition_checkCs8jlTyMxP1WZ_17async_stream_impl, symObjAddr: 0x3338, symBinAddr: 0x7F00, symSize: 0x38 }
  - { offset: 0x13F45, size: 0x8, addend: 0x0, symName: __RINvNtCsfvfooZQ3Axs_4core3ptr13drop_in_placeINtCs8jlTyMxP1WZ_17async_stream_impl7PartialNtNtCs6IAuOt8vWmF_3syn4expr9ExprYieldEEBJ_, symObjAddr: 0x1C28, symBinAddr: 0x67F4, symSize: 0x60 }
  - { offset: 0x13F74, size: 0x8, addend: 0x0, symName: __RINvNtCsfvfooZQ3Axs_4core3ptr13drop_in_placeINtNtB4_4cell10UnsafeCellNtNtNtCs9i5KxIbZ5ph_10proc_macro6bridge6client6BridgeEECs8jlTyMxP1WZ_17async_stream_impl, symObjAddr: 0x1C88, symBinAddr: 0x6854, symSize: 0x24 }
  - { offset: 0x13FA3, size: 0x8, addend: 0x0, symName: __RINvNtCsfvfooZQ3Axs_4core3ptr13drop_in_placeINtNtB4_4cell7RefCellNtNtNtCs9i5KxIbZ5ph_10proc_macro6bridge6client6BridgeEECs8jlTyMxP1WZ_17async_stream_impl, symObjAddr: 0x1CAC, symBinAddr: 0x6878, symSize: 0x24 }
  - { offset: 0x13FD2, size: 0x8, addend: 0x0, symName: __RINvNtCsfvfooZQ3Axs_4core3ptr13drop_in_placeINtNtB4_6option6OptionIBH_NtCs3cP53eQoTwO_11proc_macro29TokenTreeEEECs8jlTyMxP1WZ_17async_stream_impl, symObjAddr: 0x1CD0, symBinAddr: 0x689C, symSize: 0x44 }
  - { offset: 0x14001, size: 0x8, addend: 0x0, symName: __RINvNtCsfvfooZQ3Axs_4core3ptr13drop_in_placeINtNtB4_6option6OptionINtNtNtNtB4_4iter7sources4once4OnceNtCs3cP53eQoTwO_11proc_macro29TokenTreeEEECs8jlTyMxP1WZ_17async_stream_impl, symObjAddr: 0x1D14, symBinAddr: 0x68E0, symSize: 0x44 }
  - { offset: 0x14030, size: 0x8, addend: 0x0, symName: __RINvNtCsfvfooZQ3Axs_4core3ptr13drop_in_placeINtNtB4_6option6OptionINtNtNtNtB4_4iter8adapters8peekable8PeekableNtNtCs3cP53eQoTwO_11proc_macro212token_stream8IntoIterEEECs8jlTyMxP1WZ_17async_stream_impl, symObjAddr: 0x1D58, symBinAddr: 0x6924, symSize: 0x44 }
  - { offset: 0x1405F, size: 0x8, addend: 0x0, symName: __RINvNtCsfvfooZQ3Axs_4core3ptr13drop_in_placeINtNtCse1nGBsou5OW_5alloc5boxed3BoxDNtNtB4_5error5ErrorNtNtB4_6marker4SendNtB1B_4SyncEL_EECs8jlTyMxP1WZ_17async_stream_impl, symObjAddr: 0x1D9C, symBinAddr: 0x6968, symSize: 0x80 }
  - { offset: 0x1408E, size: 0x8, addend: 0x0, symName: __RINvNtCsfvfooZQ3Axs_4core3ptr13drop_in_placeINtNtCse1nGBsou5OW_5alloc5boxed3BoxNtNtNtCscOYdFFY2T5N_3std2io5error6CustomEECs8jlTyMxP1WZ_17async_stream_impl, symObjAddr: 0x1E1C, symBinAddr: 0x69E8, symSize: 0x60 }
  - { offset: 0x140BD, size: 0x8, addend: 0x0, symName: __RINvNtCsfvfooZQ3Axs_4core3ptr13drop_in_placeINtNtNtCscOYdFFY2T5N_3std2io5error9ErrorDataINtNtCse1nGBsou5OW_5alloc5boxed3BoxNtBJ_6CustomEEECs8jlTyMxP1WZ_17async_stream_impl, symObjAddr: 0x1E7C, symBinAddr: 0x6A48, symSize: 0x48 }
  - { offset: 0x140EC, size: 0x8, addend: 0x0, symName: __RINvNtCsfvfooZQ3Axs_4core3ptr13drop_in_placeINtNtNtNtB4_4iter8adapters3map3MapINtNtBL_5chain5ChainINtNtNtBN_7sources4once4OnceNtCs3cP53eQoTwO_11proc_macro29TokenTreeEINtNtBL_8peekable8PeekableNtNtB22_12token_stream8IntoIterEENvNtB22_3imp19into_compiler_tokenEECs8jlTyMxP1WZ_17async_stream_impl, symObjAddr: 0x1EC4, symBinAddr: 0x6A90, symSize: 0x24 }
  - { offset: 0x1411B, size: 0x8, addend: 0x0, symName: __RINvNtCsfvfooZQ3Axs_4core3ptr13drop_in_placeINtNtNtNtB4_4iter8adapters5chain5ChainINtNtNtBN_7sources4once4OnceNtCs3cP53eQoTwO_11proc_macro29TokenTreeEINtNtBL_8peekable8PeekableNtNtB1M_12token_stream8IntoIterEEECs8jlTyMxP1WZ_17async_stream_impl, symObjAddr: 0x1EE8, symBinAddr: 0x6AB4, symSize: 0x5C }
  - { offset: 0x1414A, size: 0x8, addend: 0x0, symName: __RINvNtCsfvfooZQ3Axs_4core3ptr13drop_in_placeINtNtNtNtB4_4iter8adapters8peekable8PeekableNtNtCs3cP53eQoTwO_11proc_macro212token_stream8IntoIterEECs8jlTyMxP1WZ_17async_stream_impl, symObjAddr: 0x1F44, symBinAddr: 0x6B10, symSize: 0x60 }
  - { offset: 0x14179, size: 0x8, addend: 0x0, symName: __RINvNtCsfvfooZQ3Axs_4core3ptr13drop_in_placeNCNCINvNtNtCs9i5KxIbZ5ph_10proc_macro6bridge6client10run_clientNtBN_11TokenStreamINtNtB4_6option6OptionB1H_ENCNCINvMs7_BN_INtBN_6ClientNtBR_11TokenStreamB2R_E7expand1NvCs8jlTyMxP1WZ_17async_stream_impl12stream_innerE00E00EB3o_, symObjAddr: 0x1FA4, symBinAddr: 0x6B70, symSize: 0x24 }
  - { offset: 0x141A8, size: 0x8, addend: 0x0, symName: __RINvNtCsfvfooZQ3Axs_4core3ptr13drop_in_placeNCNCINvNtNtCs9i5KxIbZ5ph_10proc_macro6bridge6client10run_clientNtBN_11TokenStreamINtNtB4_6option6OptionB1H_ENCNCINvMs7_BN_INtBN_6ClientNtBR_11TokenStreamB2R_E7expand1NvCs8jlTyMxP1WZ_17async_stream_impl16try_stream_innerE00E00EB3o_, symObjAddr: 0x1FC8, symBinAddr: 0x6B94, symSize: 0x24 }
  - { offset: 0x141D7, size: 0x8, addend: 0x0, symName: __RINvNtCsfvfooZQ3Axs_4core3ptr13drop_in_placeNtCs8jlTyMxP1WZ_17async_stream_impl5ScrubEBI_, symObjAddr: 0x1FEC, symBinAddr: 0x6BB8, symSize: 0x24 }
  - { offset: 0x14206, size: 0x8, addend: 0x0, symName: __RINvNtCsfvfooZQ3Axs_4core3ptr13drop_in_placeNtNtNtCs9i5KxIbZ5ph_10proc_macro6bridge3rpc12PanicMessageECs8jlTyMxP1WZ_17async_stream_impl, symObjAddr: 0x2010, symBinAddr: 0x6BDC, symSize: 0x50 }
  - { offset: 0x14235, size: 0x8, addend: 0x0, symName: __RINvNtCsfvfooZQ3Axs_4core3ptr13drop_in_placeNtNtNtCs9i5KxIbZ5ph_10proc_macro6bridge6buffer6BufferECs8jlTyMxP1WZ_17async_stream_impl, symObjAddr: 0x2060, symBinAddr: 0x6C2C, symSize: 0x24 }
  - { offset: 0x14264, size: 0x8, addend: 0x0, symName: __RINvNtCsfvfooZQ3Axs_4core3ptr13drop_in_placeNtNtNtCs9i5KxIbZ5ph_10proc_macro6bridge6client6BridgeECs8jlTyMxP1WZ_17async_stream_impl, symObjAddr: 0x2084, symBinAddr: 0x6C50, symSize: 0x24 }
  - { offset: 0x14293, size: 0x8, addend: 0x0, symName: __RINvNtCsfvfooZQ3Axs_4core3ptr13drop_in_placeNtNtNtCscOYdFFY2T5N_3std2io5error5ErrorECs8jlTyMxP1WZ_17async_stream_impl, symObjAddr: 0x20A8, symBinAddr: 0x6C74, symSize: 0x24 }
  - { offset: 0x142C2, size: 0x8, addend: 0x0, symName: __RINvNtCsfvfooZQ3Axs_4core3ptr13drop_in_placeNtNtNtCscOYdFFY2T5N_3std2io5error6CustomECs8jlTyMxP1WZ_17async_stream_impl, symObjAddr: 0x20CC, symBinAddr: 0x6C98, symSize: 0x24 }
  - { offset: 0x142F1, size: 0x8, addend: 0x0, symName: __RINvNtCsfvfooZQ3Axs_4core3ptr13drop_in_placeNtNtNtNtCscOYdFFY2T5N_3std2io5error14repr_bitpacked4ReprECs8jlTyMxP1WZ_17async_stream_impl, symObjAddr: 0x20F0, symBinAddr: 0x6CBC, symSize: 0x24 }
  - { offset: 0x14320, size: 0x8, addend: 0x0, symName: __RINvNtCsfvfooZQ3Axs_4core3ptr13drop_in_placeNtNvNtNtNtCs9i5KxIbZ5ph_10proc_macro6bridge6client5state3set13RestoreOnDropECs8jlTyMxP1WZ_17async_stream_impl, symObjAddr: 0x2114, symBinAddr: 0x6CE0, symSize: 0x24 }
  - { offset: 0x1901B, size: 0x8, addend: 0x0, symName: __RNvXsv_NtCsfvfooZQ3Axs_4core6optionINtB5_8IntoIterNtCs3cP53eQoTwO_11proc_macro29TokenTreeENtNtNtNtB7_4iter6traits8iterator8Iterator4nextCs8jlTyMxP1WZ_17async_stream_impl, symObjAddr: 0x4818, symBinAddr: 0x93E0, symSize: 0x3C }
  - { offset: 0x190BE, size: 0x8, addend: 0x0, symName: __RNvXsv_NtCsfvfooZQ3Axs_4core6optionINtB5_8IntoIterQNtNtCs6IAuOt8vWmF_3syn2ty4TypeENtNtNtNtB7_4iter6traits8iterator8Iterator4nextCs8jlTyMxP1WZ_17async_stream_impl, symObjAddr: 0x4854, symBinAddr: 0x941C, symSize: 0x28 }
  - { offset: 0x19161, size: 0x8, addend: 0x0, symName: __RNvXsv_NtCsfvfooZQ3Axs_4core6optionINtB5_8IntoIterQNtNtCs6IAuOt8vWmF_3syn2ty9BareFnArgENtNtNtNtB7_4iter6traits8iterator8Iterator4nextCs8jlTyMxP1WZ_17async_stream_impl, symObjAddr: 0x487C, symBinAddr: 0x9444, symSize: 0x28 }
  - { offset: 0x19204, size: 0x8, addend: 0x0, symName: __RNvXsv_NtCsfvfooZQ3Axs_4core6optionINtB5_8IntoIterQNtNtCs6IAuOt8vWmF_3syn3pat3PatENtNtNtNtB7_4iter6traits8iterator8Iterator4nextCs8jlTyMxP1WZ_17async_stream_impl, symObjAddr: 0x48A4, symBinAddr: 0x946C, symSize: 0x28 }
  - { offset: 0x192A7, size: 0x8, addend: 0x0, symName: __RNvXsv_NtCsfvfooZQ3Axs_4core6optionINtB5_8IntoIterQNtNtCs6IAuOt8vWmF_3syn3pat8FieldPatENtNtNtNtB7_4iter6traits8iterator8Iterator4nextCs8jlTyMxP1WZ_17async_stream_impl, symObjAddr: 0x48CC, symBinAddr: 0x9494, symSize: 0x28 }
  - { offset: 0x1934A, size: 0x8, addend: 0x0, symName: __RNvXsv_NtCsfvfooZQ3Axs_4core6optionINtB5_8IntoIterQNtNtCs6IAuOt8vWmF_3syn4expr10FieldValueENtNtNtNtB7_4iter6traits8iterator8Iterator4nextCs8jlTyMxP1WZ_17async_stream_impl, symObjAddr: 0x48F4, symBinAddr: 0x94BC, symSize: 0x28 }
  - { offset: 0x193ED, size: 0x8, addend: 0x0, symName: __RNvXsv_NtCsfvfooZQ3Axs_4core6optionINtB5_8IntoIterQNtNtCs6IAuOt8vWmF_3syn4expr4ExprENtNtNtNtB7_4iter6traits8iterator8Iterator4nextCs8jlTyMxP1WZ_17async_stream_impl, symObjAddr: 0x491C, symBinAddr: 0x94E4, symSize: 0x28 }
  - { offset: 0x19490, size: 0x8, addend: 0x0, symName: __RNvXsv_NtCsfvfooZQ3Axs_4core6optionINtB5_8IntoIterQNtNtCs6IAuOt8vWmF_3syn4path15GenericArgumentENtNtNtNtB7_4iter6traits8iterator8Iterator4nextCs8jlTyMxP1WZ_17async_stream_impl, symObjAddr: 0x4944, symBinAddr: 0x950C, symSize: 0x28 }
  - { offset: 0x19533, size: 0x8, addend: 0x0, symName: __RNvXsv_NtCsfvfooZQ3Axs_4core6optionINtB5_8IntoIterQNtNtCs6IAuOt8vWmF_3syn8generics13CapturedParamENtNtNtNtB7_4iter6traits8iterator8Iterator4nextCs8jlTyMxP1WZ_17async_stream_impl, symObjAddr: 0x496C, symBinAddr: 0x9534, symSize: 0x28 }
  - { offset: 0x195D6, size: 0x8, addend: 0x0, symName: __RNvXsv_NtCsfvfooZQ3Axs_4core6optionINtB5_8IntoIterQNtNtCs6IAuOt8vWmF_3syn8generics14TypeParamBoundENtNtNtNtB7_4iter6traits8iterator8Iterator4nextCs8jlTyMxP1WZ_17async_stream_impl, symObjAddr: 0x4994, symBinAddr: 0x955C, symSize: 0x28 }
  - { offset: 0x19679, size: 0x8, addend: 0x0, symName: __RNvXsv_NtCsfvfooZQ3Axs_4core6optionINtB5_8IntoIterQNtNtCs6IAuOt8vWmF_3syn8lifetime8LifetimeENtNtNtNtB7_4iter6traits8iterator8Iterator4nextCs8jlTyMxP1WZ_17async_stream_impl, symObjAddr: 0x49BC, symBinAddr: 0x9584, symSize: 0x28 }
  - { offset: 0x19722, size: 0x8, addend: 0x0, symName: __RNvXs5_NtCsfvfooZQ3Axs_4core6optionINtB5_6OptionNtCs3cP53eQoTwO_11proc_macro29TokenTreeENtNtNtNtB7_4iter6traits7collect12IntoIterator9into_iterCs8jlTyMxP1WZ_17async_stream_impl, symObjAddr: 0x3D1C, symBinAddr: 0x88E4, symSize: 0x2C }
  - { offset: 0x19759, size: 0x8, addend: 0x0, symName: __RNvXs5_NtCsfvfooZQ3Axs_4core6optionINtB5_6OptionQNtNtCs6IAuOt8vWmF_3syn2ty4TypeENtNtNtNtB7_4iter6traits7collect12IntoIterator9into_iterCs8jlTyMxP1WZ_17async_stream_impl, symObjAddr: 0x3D48, symBinAddr: 0x8910, symSize: 0x14 }
  - { offset: 0x19790, size: 0x8, addend: 0x0, symName: __RNvXs5_NtCsfvfooZQ3Axs_4core6optionINtB5_6OptionQNtNtCs6IAuOt8vWmF_3syn2ty9BareFnArgENtNtNtNtB7_4iter6traits7collect12IntoIterator9into_iterCs8jlTyMxP1WZ_17async_stream_impl, symObjAddr: 0x3D5C, symBinAddr: 0x8924, symSize: 0x14 }
  - { offset: 0x197C7, size: 0x8, addend: 0x0, symName: __RNvXs5_NtCsfvfooZQ3Axs_4core6optionINtB5_6OptionQNtNtCs6IAuOt8vWmF_3syn3pat3PatENtNtNtNtB7_4iter6traits7collect12IntoIterator9into_iterCs8jlTyMxP1WZ_17async_stream_impl, symObjAddr: 0x3D70, symBinAddr: 0x8938, symSize: 0x14 }
  - { offset: 0x197FE, size: 0x8, addend: 0x0, symName: __RNvXs5_NtCsfvfooZQ3Axs_4core6optionINtB5_6OptionQNtNtCs6IAuOt8vWmF_3syn3pat8FieldPatENtNtNtNtB7_4iter6traits7collect12IntoIterator9into_iterCs8jlTyMxP1WZ_17async_stream_impl, symObjAddr: 0x3D84, symBinAddr: 0x894C, symSize: 0x14 }
  - { offset: 0x19835, size: 0x8, addend: 0x0, symName: __RNvXs5_NtCsfvfooZQ3Axs_4core6optionINtB5_6OptionQNtNtCs6IAuOt8vWmF_3syn4expr10FieldValueENtNtNtNtB7_4iter6traits7collect12IntoIterator9into_iterCs8jlTyMxP1WZ_17async_stream_impl, symObjAddr: 0x3D98, symBinAddr: 0x8960, symSize: 0x14 }
  - { offset: 0x1986C, size: 0x8, addend: 0x0, symName: __RNvXs5_NtCsfvfooZQ3Axs_4core6optionINtB5_6OptionQNtNtCs6IAuOt8vWmF_3syn4expr4ExprENtNtNtNtB7_4iter6traits7collect12IntoIterator9into_iterCs8jlTyMxP1WZ_17async_stream_impl, symObjAddr: 0x3DAC, symBinAddr: 0x8974, symSize: 0x14 }
  - { offset: 0x198A3, size: 0x8, addend: 0x0, symName: __RNvXs5_NtCsfvfooZQ3Axs_4core6optionINtB5_6OptionQNtNtCs6IAuOt8vWmF_3syn4path15GenericArgumentENtNtNtNtB7_4iter6traits7collect12IntoIterator9into_iterCs8jlTyMxP1WZ_17async_stream_impl, symObjAddr: 0x3DC0, symBinAddr: 0x8988, symSize: 0x14 }
  - { offset: 0x198DA, size: 0x8, addend: 0x0, symName: __RNvXs5_NtCsfvfooZQ3Axs_4core6optionINtB5_6OptionQNtNtCs6IAuOt8vWmF_3syn8generics13CapturedParamENtNtNtNtB7_4iter6traits7collect12IntoIterator9into_iterCs8jlTyMxP1WZ_17async_stream_impl, symObjAddr: 0x3DD4, symBinAddr: 0x899C, symSize: 0x14 }
  - { offset: 0x19911, size: 0x8, addend: 0x0, symName: __RNvXs5_NtCsfvfooZQ3Axs_4core6optionINtB5_6OptionQNtNtCs6IAuOt8vWmF_3syn8generics14TypeParamBoundENtNtNtNtB7_4iter6traits7collect12IntoIterator9into_iterCs8jlTyMxP1WZ_17async_stream_impl, symObjAddr: 0x3DE8, symBinAddr: 0x89B0, symSize: 0x14 }
  - { offset: 0x19948, size: 0x8, addend: 0x0, symName: __RNvXs5_NtCsfvfooZQ3Axs_4core6optionINtB5_6OptionQNtNtCs6IAuOt8vWmF_3syn8lifetime8LifetimeENtNtNtNtB7_4iter6traits7collect12IntoIterator9into_iterCs8jlTyMxP1WZ_17async_stream_impl, symObjAddr: 0x3DFC, symBinAddr: 0x89C4, symSize: 0x14 }
  - { offset: 0x19FDF, size: 0x8, addend: 0x0, symName: __RNvNvNtCsfvfooZQ3Axs_4core4hint16assert_unchecked18precondition_checkCs8jlTyMxP1WZ_17async_stream_impl, symObjAddr: 0x3654, symBinAddr: 0x821C, symSize: 0x38 }
  - { offset: 0x1A00D, size: 0x8, addend: 0x0, symName: __RNvNvNtCsfvfooZQ3Axs_4core4hint21unreachable_unchecked18precondition_checkCs8jlTyMxP1WZ_17async_stream_impl, symObjAddr: 0x368C, symBinAddr: 0x8254, symSize: 0x1C }
  - { offset: 0x1A124, size: 0x8, addend: 0x0, symName: __RINvXs0_NtNtNtCsfvfooZQ3Axs_4core4iter8adapters3mapINtB6_3MapINtNtB8_5chain5ChainINtNtNtBa_7sources4once4OnceNtCs3cP53eQoTwO_11proc_macro29TokenTreeEINtNtB8_8peekable8PeekableNtNtB1L_12token_stream8IntoIterEENvNtB1L_3imp19into_compiler_tokenENtNtNtBa_6traits8iterator8Iterator4folduNCINvNvB3S_8for_each4callNtCs9i5KxIbZ5ph_10proc_macro9TokenTreeNCINvXsg_B4X_NtB4X_11TokenStreamINtNtB3W_7collect12FromIteratorB4V_E9from_iterBN_E0E0ECs8jlTyMxP1WZ_17async_stream_impl, symObjAddr: 0x23F8, symBinAddr: 0x6FC4, symSize: 0x4C }
  - { offset: 0x1A196, size: 0x8, addend: 0x0, symName: __RNvXs0_NtNtNtCsfvfooZQ3Axs_4core4iter8adapters3mapINtB5_3MapINtNtB7_5chain5ChainINtNtNtB9_7sources4once4OnceNtCs3cP53eQoTwO_11proc_macro29TokenTreeEINtNtB7_8peekable8PeekableNtNtB1K_12token_stream8IntoIterEENvNtB1K_3imp19into_compiler_tokenENtNtNtB9_6traits8iterator8Iterator9size_hintCs8jlTyMxP1WZ_17async_stream_impl, symObjAddr: 0x3B34, symBinAddr: 0x86FC, symSize: 0x24 }
  - { offset: 0x1A1E3, size: 0x8, addend: 0x0, symName: __RNCINvNtNtNtCsfvfooZQ3Axs_4core4iter8adapters3map8map_foldNtCs3cP53eQoTwO_11proc_macro29TokenTreeNtCs9i5KxIbZ5ph_10proc_macro9TokenTreeuNvNtBW_3imp19into_compiler_tokenNCINvNvNtNtNtB8_6traits8iterator8Iterator8for_each4callB1x_NCINvXsg_B1z_NtB1z_11TokenStreamINtNtB2R_7collect12FromIteratorB1x_E9from_iterINtB4_3MapINtNtB6_5chain5ChainINtNtNtB8_7sources4once4OnceBU_EINtNtB6_8peekable8PeekableNtNtBW_12token_stream8IntoIterEEB2a_EE0E0E0Cs8jlTyMxP1WZ_17async_stream_impl, symObjAddr: 0x2BA4, symBinAddr: 0x7770, symSize: 0x9C }
  - { offset: 0x1A331, size: 0x8, addend: 0x0, symName: __RINvYINtNtCsfvfooZQ3Axs_4core6option8IntoIterNtCs3cP53eQoTwO_11proc_macro29TokenTreeENtNtNtNtB8_4iter6traits8iterator8Iterator4folduNCINvNvB1l_8for_each4callBH_NCINvXsa_NtBJ_8fallbackNtB2H_11TokenStreamINtNtB1p_7collect6ExtendBH_E6extendINtB6_6OptionBH_EE0E0ECs8jlTyMxP1WZ_17async_stream_impl, symObjAddr: 0x2550, symBinAddr: 0x711C, symSize: 0x10C }
  - { offset: 0x1A3C2, size: 0x8, addend: 0x0, symName: __RINvYINtNtCsfvfooZQ3Axs_4core6option8IntoIterNtCs3cP53eQoTwO_11proc_macro29TokenTreeENtNtNtNtB8_4iter6traits8iterator8Iterator8for_eachNCINvXsa_NtBJ_8fallbackNtB2i_11TokenStreamINtNtB1p_7collect6ExtendBH_E6extendINtB6_6OptionBH_EE0ECs8jlTyMxP1WZ_17async_stream_impl, symObjAddr: 0x265C, symBinAddr: 0x7228, symSize: 0x24 }
  - { offset: 0x1A40E, size: 0x8, addend: 0x0, symName: __RINvYINtNtNtNtCsfvfooZQ3Axs_4core4iter7sources4once4OnceNtCs3cP53eQoTwO_11proc_macro29TokenTreeENtNtNtBa_6traits8iterator8Iterator4folduQNCINvNtNtBa_8adapters3map8map_foldBS_NtCs9i5KxIbZ5ph_10proc_macro9TokenTreeuNvNtBU_3imp19into_compiler_tokenNCINvNvB1w_8for_each4callB2M_NCINvXsg_B2O_NtB2O_11TokenStreamINtNtB1A_7collect12FromIteratorB2M_E9from_iterINtB2g_3MapINtNtB2i_5chain5ChainB3_INtNtB2i_8peekable8PeekableNtNtBU_12token_stream8IntoIterEEB3p_EE0E0E0ECs8jlTyMxP1WZ_17async_stream_impl, symObjAddr: 0x2680, symBinAddr: 0x724C, symSize: 0x10C }
  - { offset: 0x1A49F, size: 0x8, addend: 0x0, symName: __RINvYINtNtNtNtCsfvfooZQ3Axs_4core4iter7sources4once4OnceNtCs3cP53eQoTwO_11proc_macro29TokenTreeENtNtNtBa_6traits8iterator8Iterator4folduQNCINvNvB1w_8for_each4callBS_NCINvXsa_NtBU_8fallbackNtB2M_11TokenStreamINtNtB1A_7collect6ExtendBS_E6extendINtNtNtBa_8adapters5chain5ChainB3_INtNtB3X_8peekable8PeekableNtNtBU_12token_stream8IntoIterEEE0E0ECs8jlTyMxP1WZ_17async_stream_impl, symObjAddr: 0x278C, symBinAddr: 0x7358, symSize: 0x10C }
  - { offset: 0x1A530, size: 0x8, addend: 0x0, symName: __RINvYINtNtNtNtCsfvfooZQ3Axs_4core4iter7sources4once4OnceNtCs3cP53eQoTwO_11proc_macro29TokenTreeENtNtNtBa_6traits8iterator8Iterator5chainINtNtNtBa_8adapters8peekable8PeekableNtNtBU_12token_stream8IntoIterEECs8jlTyMxP1WZ_17async_stream_impl, symObjAddr: 0x2898, symBinAddr: 0x7464, symSize: 0xBC }
  - { offset: 0x1A5A8, size: 0x8, addend: 0x0, symName: __RINvYINtNtNtNtCsfvfooZQ3Axs_4core4iter8adapters3map3MapINtNtB8_5chain5ChainINtNtNtBa_7sources4once4OnceNtCs3cP53eQoTwO_11proc_macro29TokenTreeEINtNtB8_8peekable8PeekableNtNtB1F_12token_stream8IntoIterEENvNtB1F_3imp19into_compiler_tokenENtNtNtBa_6traits8iterator8Iterator7collectNtCs9i5KxIbZ5ph_10proc_macro11TokenStreamECs8jlTyMxP1WZ_17async_stream_impl, symObjAddr: 0x2954, symBinAddr: 0x7520, symSize: 0x14 }
  - { offset: 0x1A5E9, size: 0x8, addend: 0x0, symName: __RINvYINtNtNtNtCsfvfooZQ3Axs_4core4iter8adapters3map3MapINtNtB8_5chain5ChainINtNtNtBa_7sources4once4OnceNtCs3cP53eQoTwO_11proc_macro29TokenTreeEINtNtB8_8peekable8PeekableNtNtB1F_12token_stream8IntoIterEENvNtB1F_3imp19into_compiler_tokenENtNtNtBa_6traits8iterator8Iterator8for_eachNCINvXsg_Cs9i5KxIbZ5ph_10proc_macroNtB4C_11TokenStreamINtNtB3Q_7collect12FromIteratorNtB4C_9TokenTreeE9from_iterB3_E0ECs8jlTyMxP1WZ_17async_stream_impl, symObjAddr: 0x2968, symBinAddr: 0x7534, symSize: 0x24 }
  - { offset: 0x1A635, size: 0x8, addend: 0x0, symName: __RINvYNtNtCs3cP53eQoTwO_11proc_macro212token_stream8IntoIterNtNtNtNtCsfvfooZQ3Axs_4core4iter6traits8iterator8Iterator4folduNCINvNtNtB11_8adapters3map8map_foldNtB7_9TokenTreeNtCs9i5KxIbZ5ph_10proc_macro9TokenTreeuNvNtB7_3imp19into_compiler_tokenNCINvNvBV_8for_each4callB2K_NCINvXsg_B2M_NtB2M_11TokenStreamINtNtBZ_7collect12FromIteratorB2K_E9from_iterINtB21_3MapINtNtB23_5chain5ChainINtNtNtB11_7sources4once4OnceB2v_EINtNtB23_8peekable8PeekableB3_EEB3n_EE0E0E0ECs8jlTyMxP1WZ_17async_stream_impl, symObjAddr: 0x298C, symBinAddr: 0x7558, symSize: 0x10C }
  - { offset: 0x1A6C6, size: 0x8, addend: 0x0, symName: __RINvYNtNtCs3cP53eQoTwO_11proc_macro212token_stream8IntoIterNtNtNtNtCsfvfooZQ3Axs_4core4iter6traits8iterator8Iterator4folduNCINvNvBV_8for_each4callNtB7_9TokenTreeNCINvXsa_NtB7_8fallbackNtB2I_11TokenStreamINtNtBZ_7collect6ExtendB2k_E6extendINtNtNtB11_8adapters5chain5ChainINtNtNtB11_7sources4once4OnceB2k_EINtNtB3T_8peekable8PeekableB3_EEE0E0ECs8jlTyMxP1WZ_17async_stream_impl, symObjAddr: 0x2A98, symBinAddr: 0x7664, symSize: 0x10C }
  - { offset: 0x1A757, size: 0x8, addend: 0x0, symName: __RNvYNtNtCs3cP53eQoTwO_11proc_macro212token_stream8IntoIterNtNtNtNtCsfvfooZQ3Axs_4core4iter6traits8iterator8Iterator8peekableCs8jlTyMxP1WZ_17async_stream_impl, symObjAddr: 0x4C04, symBinAddr: 0x97CC, symSize: 0x4C }
  - { offset: 0x1A7F5, size: 0x8, addend: 0x0, symName: __RNvXNtNtNtCsfvfooZQ3Axs_4core4iter6traits7collectINtNtNtB6_8adapters3map3MapINtNtBQ_5chain5ChainINtNtNtB6_7sources4once4OnceNtCs3cP53eQoTwO_11proc_macro29TokenTreeEINtNtBQ_8peekable8PeekableNtNtB20_12token_stream8IntoIterEENvNtB20_3imp19into_compiler_tokenENtB2_12IntoIterator9into_iterCs8jlTyMxP1WZ_17async_stream_impl, symObjAddr: 0x3A64, symBinAddr: 0x862C, symSize: 0x30 }
  - { offset: 0x1A85D, size: 0x8, addend: 0x0, symName: __RNvXNtNtNtCsfvfooZQ3Axs_4core4iter7sources4onceINtB2_4OnceNtCs3cP53eQoTwO_11proc_macro29TokenTreeENtNtNtB6_6traits8iterator8Iterator9size_hintCs8jlTyMxP1WZ_17async_stream_impl, symObjAddr: 0x3A94, symBinAddr: 0x865C, symSize: 0x44 }
  - { offset: 0x1AD36, size: 0x8, addend: 0x0, symName: __RNvNvNtCsfvfooZQ3Axs_4core10intrinsics19copy_nonoverlapping18precondition_checkCs8jlTyMxP1WZ_17async_stream_impl, symObjAddr: 0x3370, symBinAddr: 0x7F38, symSize: 0x2E4 }
  - { offset: 0x1B020, size: 0x8, addend: 0x0, symName: __RNvMNtCsfvfooZQ3Axs_4core5sliceSNtNtCs6IAuOt8vWmF_3syn4stmt4Stmt4iterCs8jlTyMxP1WZ_17async_stream_impl, symObjAddr: 0x2C68, symBinAddr: 0x7834, symSize: 0x28 }
  - { offset: 0x1B057, size: 0x8, addend: 0x0, symName: __RNvMNtCsfvfooZQ3Axs_4core5sliceSTNtNtCs6IAuOt8vWmF_3syn3pat3PatNtNtBz_5token2OrE8iter_mutCs8jlTyMxP1WZ_17async_stream_impl, symObjAddr: 0x2C90, symBinAddr: 0x785C, symSize: 0x28 }
  - { offset: 0x1B08E, size: 0x8, addend: 0x0, symName: __RNvMNtCsfvfooZQ3Axs_4core5sliceSTNtNtCs6IAuOt8vWmF_3syn3pat3PatNtNtBz_5token5CommaE8iter_mutCs8jlTyMxP1WZ_17async_stream_impl, symObjAddr: 0x2CB8, symBinAddr: 0x7884, symSize: 0x28 }
  - { offset: 0x1B0C5, size: 0x8, addend: 0x0, symName: __RNvMNtCsfvfooZQ3Axs_4core5sliceSTNtNtCs6IAuOt8vWmF_3syn3pat8FieldPatNtNtBz_5token5CommaE8iter_mutCs8jlTyMxP1WZ_17async_stream_impl, symObjAddr: 0x2CE0, symBinAddr: 0x78AC, symSize: 0x28 }
  - { offset: 0x1B12E, size: 0x8, addend: 0x0, symName: __RNvNvNtNtCsfvfooZQ3Axs_4core5slice3raw14from_raw_parts18precondition_checkCs8jlTyMxP1WZ_17async_stream_impl, symObjAddr: 0x3780, symBinAddr: 0x8348, symSize: 0x168 }
  - { offset: 0x1B274, size: 0x8, addend: 0x0, symName: __RNvNvNtNtCsfvfooZQ3Axs_4core5slice3raw18from_raw_parts_mut18precondition_checkCs8jlTyMxP1WZ_17async_stream_impl, symObjAddr: 0x38E8, symBinAddr: 0x84B0, symSize: 0x168 }
  - { offset: 0x1B3F0, size: 0x8, addend: 0x0, symName: __RNvXs0_NtNtCsfvfooZQ3Axs_4core5slice5indexjINtB5_10SliceIndexSNtNtCs6IAuOt8vWmF_3syn4attr9AttributeE5indexCs8jlTyMxP1WZ_17async_stream_impl, symObjAddr: 0x3AD8, symBinAddr: 0x86A0, symSize: 0x5C }
  - { offset: 0x1B9C4, size: 0x8, addend: 0x0, symName: __RINvNtCsfvfooZQ3Axs_4core9panicking13panic_displayNtNtCs6IAuOt8vWmF_3syn5error5ErrorECs8jlTyMxP1WZ_17async_stream_impl, symObjAddr: 0x2138, symBinAddr: 0x6D04, symSize: 0x88 }
  - { offset: 0x1BA66, size: 0x8, addend: 0x0, symName: __RNvNvMNtNtCsfvfooZQ3Axs_4core5alloc6layoutNtB4_6Layout25from_size_align_unchecked18precondition_checkCs8jlTyMxP1WZ_17async_stream_impl, symObjAddr: 0x32E8, symBinAddr: 0x7EB0, symSize: 0x50 }
  - { offset: 0x1BBC3, size: 0x8, addend: 0x0, symName: __RNvNvNtCsfvfooZQ3Axs_4core9ub_checks23maybe_is_nonoverlapping7runtimeCs8jlTyMxP1WZ_17async_stream_impl, symObjAddr: 0x36A8, symBinAddr: 0x8270, symSize: 0xD8 }
  - { offset: 0x1BE50, size: 0x8, addend: 0x0, symName: __RNvXs1_NtNtNtCsfvfooZQ3Axs_4core3ops8function5implsQNCINvNtNtNtBb_4iter8adapters3map8map_foldNtCs3cP53eQoTwO_11proc_macro29TokenTreeNtCs9i5KxIbZ5ph_10proc_macro9TokenTreeuNvNtB1v_3imp19into_compiler_tokenNCINvNvNtNtNtBX_6traits8iterator8Iterator8for_each4callB26_NCINvXsg_B28_NtB28_11TokenStreamINtNtB3r_7collect12FromIteratorB26_E9from_iterINtBT_3MapINtNtBV_5chain5ChainINtNtNtBX_7sources4once4OnceB1t_EINtNtBV_8peekable8PeekableNtNtB1v_12token_stream8IntoIterEEB2J_EE0E0E0INtB7_5FnMutTuB1t_EE8call_mutCs8jlTyMxP1WZ_17async_stream_impl, symObjAddr: 0x3C18, symBinAddr: 0x87E0, symSize: 0x40 }
  - { offset: 0x1BEA2, size: 0x8, addend: 0x0, symName: __RNvYNCNkNvNtNtNtCs9i5KxIbZ5ph_10proc_macro6bridge6client5state12BRIDGE_STATE0s_0INtNtNtCsfvfooZQ3Axs_4core3ops8function6FnOnceTINtNtB1n_6option6OptionQIB22_INtNtB1n_4cell4CellPuEEEEE9call_onceCs8jlTyMxP1WZ_17async_stream_impl, symObjAddr: 0x49E4, symBinAddr: 0x95AC, symSize: 0x4C }
  - { offset: 0x1BEE6, size: 0x8, addend: 0x0, symName: __RNvYNcNtINtNtCs6IAuOt8vWmF_3syn10punctuated4PairQNtNtBb_2ty4TypeQNtNtBb_5token5CommaE3End0INtNtNtCsfvfooZQ3Axs_4core3ops8function6FnOnceTBK_EE9call_onceCs8jlTyMxP1WZ_17async_stream_impl, symObjAddr: 0x4A30, symBinAddr: 0x95F8, symSize: 0x24 }
  - { offset: 0x1BF2A, size: 0x8, addend: 0x0, symName: __RNvYNcNtINtNtCs6IAuOt8vWmF_3syn10punctuated4PairQNtNtBb_2ty9BareFnArgQNtNtBb_5token5CommaE3End0INtNtNtCsfvfooZQ3Axs_4core3ops8function6FnOnceTBK_EE9call_onceCs8jlTyMxP1WZ_17async_stream_impl, symObjAddr: 0x4A54, symBinAddr: 0x961C, symSize: 0x24 }
  - { offset: 0x1BF6E, size: 0x8, addend: 0x0, symName: __RNvYNcNtINtNtCs6IAuOt8vWmF_3syn10punctuated4PairQNtNtBb_3pat3PatQNtNtBb_5token2OrE3End0INtNtNtCsfvfooZQ3Axs_4core3ops8function6FnOnceTBK_EE9call_onceCs8jlTyMxP1WZ_17async_stream_impl, symObjAddr: 0x4A78, symBinAddr: 0x9640, symSize: 0x24 }
  - { offset: 0x1BFB2, size: 0x8, addend: 0x0, symName: __RNvYNcNtINtNtCs6IAuOt8vWmF_3syn10punctuated4PairQNtNtBb_3pat3PatQNtNtBb_5token5CommaE3End0INtNtNtCsfvfooZQ3Axs_4core3ops8function6FnOnceTBK_EE9call_onceCs8jlTyMxP1WZ_17async_stream_impl, symObjAddr: 0x4A9C, symBinAddr: 0x9664, symSize: 0x24 }
  - { offset: 0x1BFF6, size: 0x8, addend: 0x0, symName: __RNvYNcNtINtNtCs6IAuOt8vWmF_3syn10punctuated4PairQNtNtBb_3pat8FieldPatQNtNtBb_5token5CommaE3End0INtNtNtCsfvfooZQ3Axs_4core3ops8function6FnOnceTBK_EE9call_onceCs8jlTyMxP1WZ_17async_stream_impl, symObjAddr: 0x4AC0, symBinAddr: 0x9688, symSize: 0x24 }
  - { offset: 0x1C03A, size: 0x8, addend: 0x0, symName: __RNvYNcNtINtNtCs6IAuOt8vWmF_3syn10punctuated4PairQNtNtBb_4expr10FieldValueQNtNtBb_5token5CommaE3End0INtNtNtCsfvfooZQ3Axs_4core3ops8function6FnOnceTBK_EE9call_onceCs8jlTyMxP1WZ_17async_stream_impl, symObjAddr: 0x4AE4, symBinAddr: 0x96AC, symSize: 0x24 }
  - { offset: 0x1C07E, size: 0x8, addend: 0x0, symName: __RNvYNcNtINtNtCs6IAuOt8vWmF_3syn10punctuated4PairQNtNtBb_4expr4ExprQNtNtBb_5token5CommaE3End0INtNtNtCsfvfooZQ3Axs_4core3ops8function6FnOnceTBK_EE9call_onceCs8jlTyMxP1WZ_17async_stream_impl, symObjAddr: 0x4B08, symBinAddr: 0x96D0, symSize: 0x24 }
  - { offset: 0x1C0C2, size: 0x8, addend: 0x0, symName: __RNvYNcNtINtNtCs6IAuOt8vWmF_3syn10punctuated4PairQNtNtBb_4path11PathSegmentQNtNtBb_5token7PathSepE3End0INtNtNtCsfvfooZQ3Axs_4core3ops8function6FnOnceTBK_EE9call_onceCs8jlTyMxP1WZ_17async_stream_impl, symObjAddr: 0x4B2C, symBinAddr: 0x96F4, symSize: 0x24 }
  - { offset: 0x1C106, size: 0x8, addend: 0x0, symName: __RNvYNcNtINtNtCs6IAuOt8vWmF_3syn10punctuated4PairQNtNtBb_4path15GenericArgumentQNtNtBb_5token5CommaE3End0INtNtNtCsfvfooZQ3Axs_4core3ops8function6FnOnceTBK_EE9call_onceCs8jlTyMxP1WZ_17async_stream_impl, symObjAddr: 0x4B50, symBinAddr: 0x9718, symSize: 0x24 }
  - { offset: 0x1C14A, size: 0x8, addend: 0x0, symName: __RNvYNcNtINtNtCs6IAuOt8vWmF_3syn10punctuated4PairQNtNtBb_8generics12GenericParamQNtNtBb_5token5CommaE3End0INtNtNtCsfvfooZQ3Axs_4core3ops8function6FnOnceTBK_EE9call_onceCs8jlTyMxP1WZ_17async_stream_impl, symObjAddr: 0x4B74, symBinAddr: 0x973C, symSize: 0x24 }
  - { offset: 0x1C18E, size: 0x8, addend: 0x0, symName: __RNvYNcNtINtNtCs6IAuOt8vWmF_3syn10punctuated4PairQNtNtBb_8generics13CapturedParamQNtNtBb_5token5CommaE3End0INtNtNtCsfvfooZQ3Axs_4core3ops8function6FnOnceTBK_EE9call_onceCs8jlTyMxP1WZ_17async_stream_impl, symObjAddr: 0x4B98, symBinAddr: 0x9760, symSize: 0x24 }
  - { offset: 0x1C1D2, size: 0x8, addend: 0x0, symName: __RNvYNcNtINtNtCs6IAuOt8vWmF_3syn10punctuated4PairQNtNtBb_8generics14TypeParamBoundQNtNtBb_5token4PlusE3End0INtNtNtCsfvfooZQ3Axs_4core3ops8function6FnOnceTBK_EE9call_onceCs8jlTyMxP1WZ_17async_stream_impl, symObjAddr: 0x4BBC, symBinAddr: 0x9784, symSize: 0x24 }
  - { offset: 0x1C216, size: 0x8, addend: 0x0, symName: __RNvYNcNtINtNtCs6IAuOt8vWmF_3syn10punctuated4PairQNtNtBb_8lifetime8LifetimeQNtNtBb_5token4PlusE3End0INtNtNtCsfvfooZQ3Axs_4core3ops8function6FnOnceTBK_EE9call_onceCs8jlTyMxP1WZ_17async_stream_impl, symObjAddr: 0x4BE0, symBinAddr: 0x97A8, symSize: 0x24 }
  - { offset: 0x1C25A, size: 0x8, addend: 0x0, symName: __RNvYNvMNtNtCs6IAuOt8vWmF_3syn4stmt7parsingNtB7_5Block12parse_withinINtNtNtCsfvfooZQ3Axs_4core3ops8function6FnOnceTRNtNtB9_5parse11ParseBufferEE9call_onceCs8jlTyMxP1WZ_17async_stream_impl, symObjAddr: 0x4CA0, symBinAddr: 0x9868, symSize: 0x24 }
  - { offset: 0x1C29E, size: 0x8, addend: 0x0, symName: __RNvYNvYINtCs8jlTyMxP1WZ_17async_stream_impl7PartialNtNtCs6IAuOt8vWmF_3syn4expr9ExprYieldENtNtBR_5parse5Parse5parseINtNtNtCsfvfooZQ3Axs_4core3ops8function6FnOnceTRNtB1r_11ParseBufferEE9call_onceB8_, symObjAddr: 0x4CFC, symBinAddr: 0x98C4, symSize: 0x24 }
  - { offset: 0x1C2E2, size: 0x8, addend: 0x0, symName: __RNvYNvYINtNtCse1nGBsou5OW_5alloc5boxed3BoxNtNtCs6IAuOt8vWmF_3syn2ty4TypeEINtNtCsfvfooZQ3Axs_4core7convert5AsMutBE_E6as_mutINtNtNtB1e_3ops8function6FnOnceTQB5_EE9call_onceCs8jlTyMxP1WZ_17async_stream_impl, symObjAddr: 0x4D20, symBinAddr: 0x98E8, symSize: 0x24 }
  - { offset: 0x1C326, size: 0x8, addend: 0x0, symName: __RNvYNvYINtNtCse1nGBsou5OW_5alloc5boxed3BoxNtNtCs6IAuOt8vWmF_3syn2ty9BareFnArgEINtNtCsfvfooZQ3Axs_4core7convert5AsMutBE_E6as_mutINtNtNtB1j_3ops8function6FnOnceTQB5_EE9call_onceCs8jlTyMxP1WZ_17async_stream_impl, symObjAddr: 0x4D44, symBinAddr: 0x990C, symSize: 0x24 }
  - { offset: 0x1C36A, size: 0x8, addend: 0x0, symName: __RNvYNvYINtNtCse1nGBsou5OW_5alloc5boxed3BoxNtNtCs6IAuOt8vWmF_3syn3pat3PatEINtNtCsfvfooZQ3Axs_4core7convert5AsMutBE_E6as_mutINtNtNtB1e_3ops8function6FnOnceTQB5_EE9call_onceCs8jlTyMxP1WZ_17async_stream_impl, symObjAddr: 0x4D68, symBinAddr: 0x9930, symSize: 0x24 }
  - { offset: 0x1C3AE, size: 0x8, addend: 0x0, symName: __RNvYNvYINtNtCse1nGBsou5OW_5alloc5boxed3BoxNtNtCs6IAuOt8vWmF_3syn3pat8FieldPatEINtNtCsfvfooZQ3Axs_4core7convert5AsMutBE_E6as_mutINtNtNtB1j_3ops8function6FnOnceTQB5_EE9call_onceCs8jlTyMxP1WZ_17async_stream_impl, symObjAddr: 0x4D8C, symBinAddr: 0x9954, symSize: 0x24 }
  - { offset: 0x1C3F2, size: 0x8, addend: 0x0, symName: __RNvYNvYINtNtCse1nGBsou5OW_5alloc5boxed3BoxNtNtCs6IAuOt8vWmF_3syn4expr10FieldValueEINtNtCsfvfooZQ3Axs_4core7convert5AsMutBE_E6as_mutINtNtNtB1n_3ops8function6FnOnceTQB5_EE9call_onceCs8jlTyMxP1WZ_17async_stream_impl, symObjAddr: 0x4DB0, symBinAddr: 0x9978, symSize: 0x24 }
  - { offset: 0x1C436, size: 0x8, addend: 0x0, symName: __RNvYNvYINtNtCse1nGBsou5OW_5alloc5boxed3BoxNtNtCs6IAuOt8vWmF_3syn4expr4ExprEINtNtCsfvfooZQ3Axs_4core7convert5AsMutBE_E6as_mutINtNtNtB1g_3ops8function6FnOnceTQB5_EE9call_onceCs8jlTyMxP1WZ_17async_stream_impl, symObjAddr: 0x4DD4, symBinAddr: 0x999C, symSize: 0x24 }
  - { offset: 0x1C47A, size: 0x8, addend: 0x0, symName: __RNvYNvYINtNtCse1nGBsou5OW_5alloc5boxed3BoxNtNtCs6IAuOt8vWmF_3syn4expr4ExprENtNtBI_11parse_quote10ParseQuote5parseINtNtNtCsfvfooZQ3Axs_4core3ops8function6FnOnceTRNtNtBI_5parse11ParseBufferEE9call_onceCs8jlTyMxP1WZ_17async_stream_impl, symObjAddr: 0x4DF8, symBinAddr: 0x99C0, symSize: 0x24 }
  - { offset: 0x1C4BE, size: 0x8, addend: 0x0, symName: __RNvYNvYINtNtCse1nGBsou5OW_5alloc5boxed3BoxNtNtCs6IAuOt8vWmF_3syn4path15GenericArgumentEINtNtCsfvfooZQ3Axs_4core7convert5AsMutBE_E6as_mutINtNtNtB1s_3ops8function6FnOnceTQB5_EE9call_onceCs8jlTyMxP1WZ_17async_stream_impl, symObjAddr: 0x4E1C, symBinAddr: 0x99E4, symSize: 0x24 }
  - { offset: 0x1C502, size: 0x8, addend: 0x0, symName: __RNvYNvYINtNtCse1nGBsou5OW_5alloc5boxed3BoxNtNtCs6IAuOt8vWmF_3syn8generics13CapturedParamEINtNtCsfvfooZQ3Axs_4core7convert5AsMutBE_E6as_mutINtNtNtB1u_3ops8function6FnOnceTQB5_EE9call_onceCs8jlTyMxP1WZ_17async_stream_impl, symObjAddr: 0x4E40, symBinAddr: 0x9A08, symSize: 0x24 }
  - { offset: 0x1C546, size: 0x8, addend: 0x0, symName: __RNvYNvYINtNtCse1nGBsou5OW_5alloc5boxed3BoxNtNtCs6IAuOt8vWmF_3syn8generics14TypeParamBoundEINtNtCsfvfooZQ3Axs_4core7convert5AsMutBE_E6as_mutINtNtNtB1v_3ops8function6FnOnceTQB5_EE9call_onceCs8jlTyMxP1WZ_17async_stream_impl, symObjAddr: 0x4E64, symBinAddr: 0x9A2C, symSize: 0x24 }
  - { offset: 0x1C58A, size: 0x8, addend: 0x0, symName: __RNvYNvYINtNtCse1nGBsou5OW_5alloc5boxed3BoxNtNtCs6IAuOt8vWmF_3syn8lifetime8LifetimeEINtNtCsfvfooZQ3Axs_4core7convert5AsMutBE_E6as_mutINtNtNtB1o_3ops8function6FnOnceTQB5_EE9call_onceCs8jlTyMxP1WZ_17async_stream_impl, symObjAddr: 0x4E88, symBinAddr: 0x9A50, symSize: 0x24 }
  - { offset: 0x1C5CE, size: 0x8, addend: 0x0, symName: __RNvYNvYNtNtCs6IAuOt8vWmF_3syn4expr4ExprNtNtB9_11parse_quote10ParseQuote5parseINtNtNtCsfvfooZQ3Axs_4core3ops8function6FnOnceTRNtNtB9_5parse11ParseBufferEE9call_onceCs8jlTyMxP1WZ_17async_stream_impl, symObjAddr: 0x4EAC, symBinAddr: 0x9A74, symSize: 0x24 }
  - { offset: 0x1C612, size: 0x8, addend: 0x0, symName: __RNvYNvYNtNtNtCs9i5KxIbZ5ph_10proc_macro6bridge3rpc12PanicMessageINtNtCsfvfooZQ3Axs_4core7convert4FromINtNtCse1nGBsou5OW_5alloc5boxed3BoxDNtNtB15_3any3AnyNtNtB15_6marker4SendEL_EE4fromINtNtNtB15_3ops8function6FnOnceTB1B_EE9call_onceCs8jlTyMxP1WZ_17async_stream_impl, symObjAddr: 0x4ED0, symBinAddr: 0x9A98, symSize: 0x2C }
  - { offset: 0x1C65C, size: 0x8, addend: 0x0, symName: __RNvYNvCs8jlTyMxP1WZ_17async_stream_impl12stream_innerINtNtNtCsfvfooZQ3Axs_4core3ops8function2FnTNtCs9i5KxIbZ5ph_10proc_macro11TokenStreamEE4callB4_, symObjAddr: 0x4C50, symBinAddr: 0x9818, symSize: 0x28 }
  - { offset: 0x1C6A0, size: 0x8, addend: 0x0, symName: __RNvYNvCs8jlTyMxP1WZ_17async_stream_impl16try_stream_innerINtNtNtCsfvfooZQ3Axs_4core3ops8function2FnTNtCs9i5KxIbZ5ph_10proc_macro11TokenStreamEE4callB4_, symObjAddr: 0x4C78, symBinAddr: 0x9840, symSize: 0x28 }
  - { offset: 0x1C6EA, size: 0x8, addend: 0x0, symName: __RNvYNvNtCs3cP53eQoTwO_11proc_macro23imp19into_compiler_tokenINtNtNtCsfvfooZQ3Axs_4core3ops8function5FnMutTNtB6_9TokenTreeEE8call_mutCs8jlTyMxP1WZ_17async_stream_impl, symObjAddr: 0x4CC4, symBinAddr: 0x988C, symSize: 0x38 }
  - { offset: 0x1CF3A, size: 0x8, addend: 0x0, symName: __RNvXs5_NtNtCs9i5KxIbZ5ph_10proc_macro6bridge6bufferNtB5_6BufferNtNtNtCsfvfooZQ3Axs_4core3ops4drop4Drop4dropCs8jlTyMxP1WZ_17async_stream_impl, symObjAddr: 0x3E10, symBinAddr: 0x89D8, symSize: 0x8C }
  - { offset: 0x1D0C3, size: 0x8, addend: 0x0, symName: __RINvNvNtNtCs9i5KxIbZ5ph_10proc_macro6bridge14selfless_reify31reify_to_extern_c_fn_hrt_bridge7wrapperNtNtB6_6buffer6BufferNCINvMs7_NtB6_6clientINtB24_6ClientNtB8_11TokenStreamB2u_E7expand1NvCs8jlTyMxP1WZ_17async_stream_impl12stream_innerE0EB31_, symObjAddr: 0x2340, symBinAddr: 0x6F0C, symSize: 0x5C }
  - { offset: 0x1D11F, size: 0x8, addend: 0x0, symName: __RINvNvNtNtCs9i5KxIbZ5ph_10proc_macro6bridge14selfless_reify31reify_to_extern_c_fn_hrt_bridge7wrapperNtNtB6_6buffer6BufferNCINvMs7_NtB6_6clientINtB24_6ClientNtB8_11TokenStreamB2u_E7expand1NvCs8jlTyMxP1WZ_17async_stream_impl16try_stream_innerE0EB31_, symObjAddr: 0x239C, symBinAddr: 0x6F68, symSize: 0x5C }
  - { offset: 0x1D187, size: 0x8, addend: 0x0, symName: __RNvXNtNtCs9i5KxIbZ5ph_10proc_macro6bridge3rpcuINtB2_6EncodeuE6encodeCs8jlTyMxP1WZ_17async_stream_impl, symObjAddr: 0x3A50, symBinAddr: 0x8618, symSize: 0x14 }
  - { offset: 0x1D1CE, size: 0x8, addend: 0x0, symName: __RNvXs9_NtNtCs9i5KxIbZ5ph_10proc_macro6bridge3rpcTINtB7_11ExpnGlobalsNtNtB7_6client4SpanENtB16_11TokenStreamEINtB5_9DecodeMutuE6decodeCs8jlTyMxP1WZ_17async_stream_impl, symObjAddr: 0x3E9C, symBinAddr: 0x8A64, symSize: 0x84 }
  - { offset: 0x1D2BB, size: 0x8, addend: 0x0, symName: __RNvXsa_NtNtCs9i5KxIbZ5ph_10proc_macro6bridge3rpcRShINtB5_6EncodeuE6encodeCs8jlTyMxP1WZ_17async_stream_impl, symObjAddr: 0x41A8, symBinAddr: 0x8D70, symSize: 0xD0 }
  - { offset: 0x1D3BD, size: 0x8, addend: 0x0, symName: __RNvXsc_NtNtCs9i5KxIbZ5ph_10proc_macro6bridge3rpcReINtB5_6EncodeuE6encodeCs8jlTyMxP1WZ_17async_stream_impl, symObjAddr: 0x4278, symBinAddr: 0x8E40, symSize: 0x38 }
  - { offset: 0x1D4A5, size: 0x8, addend: 0x0, symName: __RNvXsl_NtNtCs9i5KxIbZ5ph_10proc_macro6bridge3rpcNtB5_12PanicMessageINtB5_6EncodeuE6encodeCs8jlTyMxP1WZ_17async_stream_impl, symObjAddr: 0x45E8, symBinAddr: 0x91B0, symSize: 0x128 }
  - { offset: 0x1D66B, size: 0x8, addend: 0x0, symName: __RNvXso_NtNtCs9i5KxIbZ5ph_10proc_macro6bridge3rpcmINtB5_9DecodeMutuE6decodeCs8jlTyMxP1WZ_17async_stream_impl, symObjAddr: 0x4710, symBinAddr: 0x92D8, symSize: 0x108 }
  - { offset: 0x1D7B9, size: 0x8, addend: 0x0, symName: __RNvXs1J_NtCs9i5KxIbZ5ph_10proc_macro6bridgeINtB6_11ExpnGlobalsNtNtB6_6client4SpanEINtNtB6_3rpc9DecodeMutuE6decodeCs8jlTyMxP1WZ_17async_stream_impl, symObjAddr: 0x3B58, symBinAddr: 0x8720, symSize: 0xB0 }
  - { offset: 0x1D80B, size: 0x8, addend: 0x0, symName: __RNvXsR_NtCs9i5KxIbZ5ph_10proc_macro6bridgeINtNtCsfvfooZQ3Axs_4core6option6OptionNtNtB5_6client11TokenStreamEINtNtB5_3rpc6EncodeuE6encodeCs8jlTyMxP1WZ_17async_stream_impl, symObjAddr: 0x3F20, symBinAddr: 0x8AE8, symSize: 0xCC }
  - { offset: 0x1D8B1, size: 0x8, addend: 0x0, symName: __RNvXsR_NtCs9i5KxIbZ5ph_10proc_macro6bridgeINtNtCsfvfooZQ3Axs_4core6option6OptionReEINtNtB5_3rpc6EncodeuE6encodeCs8jlTyMxP1WZ_17async_stream_impl, symObjAddr: 0x3FEC, symBinAddr: 0x8BB4, symSize: 0xD8 }
  - { offset: 0x1DAF2, size: 0x8, addend: 0x0, symName: __RINvXsg_Cs9i5KxIbZ5ph_10proc_macroNtB6_11TokenStreamINtNtNtNtCsfvfooZQ3Axs_4core4iter6traits7collect12FromIteratorNtB6_9TokenTreeE9from_iterINtNtNtBV_8adapters3map3MapINtNtB2j_5chain5ChainINtNtNtBV_7sources4once4OnceNtCs3cP53eQoTwO_11proc_macro29TokenTreeEINtNtB2j_8peekable8PeekableNtNtB3u_12token_stream8IntoIterEENvNtB3u_3imp19into_compiler_tokenEECs8jlTyMxP1WZ_17async_stream_impl, symObjAddr: 0x2444, symBinAddr: 0x7010, symSize: 0x10C }
  - { offset: 0x1DB5C, size: 0x8, addend: 0x0, symName: __RNCINvXsg_Cs9i5KxIbZ5ph_10proc_macroNtB8_11TokenStreamINtNtNtNtCsfvfooZQ3Axs_4core4iter6traits7collect12FromIteratorNtB8_9TokenTreeE9from_iterINtNtNtBX_8adapters3map3MapINtNtB2l_5chain5ChainINtNtNtBX_7sources4once4OnceNtCs3cP53eQoTwO_11proc_macro29TokenTreeEINtNtB2l_8peekable8PeekableNtNtB3w_12token_stream8IntoIterEENvNtB3w_3imp19into_compiler_tokenEE0Cs8jlTyMxP1WZ_17async_stream_impl, symObjAddr: 0x2C40, symBinAddr: 0x780C, symSize: 0x28 }
  - { offset: 0x1DBBC, size: 0x8, addend: 0x0, symName: __RNvXsU_Cs9i5KxIbZ5ph_10proc_macroNtB5_11TokenStreamNtNtCsfvfooZQ3Axs_4core5clone5Clone5cloneCs8jlTyMxP1WZ_17async_stream_impl, symObjAddr: 0x40C4, symBinAddr: 0x8C8C, symSize: 0x64 }
  - { offset: 0x1E0F3, size: 0x8, addend: 0x0, symName: __RNvXs1_NtCs3cP53eQoTwO_11proc_macro26markerNtB5_19ProcMacroAutoTraitsNtNtCsfvfooZQ3Axs_4core5clone5Clone5cloneCs8jlTyMxP1WZ_17async_stream_impl, symObjAddr: 0x3C08, symBinAddr: 0x87D0, symSize: 0x10 }
  - { offset: 0x1F319, size: 0x8, addend: 0x0, symName: __RINvMNtCsfvfooZQ3Axs_4core6optionINtB3_6OptionIBw_NtCs3cP53eQoTwO_11proc_macro29TokenTreeEE18get_or_insert_withNCNvMs3_NtNtNtB5_4iter8adapters8peekableINtB1T_8PeekableNtNtBO_12token_stream8IntoIterE4peek0ECs8jlTyMxP1WZ_17async_stream_impl, symObjAddr: 0x0, symBinAddr: 0x4C14, symSize: 0x138 }
  - { offset: 0x248D6, size: 0x8, addend: 0x0, symName: __RNvXsh_NtCs6IAuOt8vWmF_3syn5parseNvMNtNtB7_4stmt7parsingNtBA_5Block12parse_withinNtB5_6Parser6parse2Cs8jlTyMxP1WZ_17async_stream_impl, symObjAddr: 0x42B0, symBinAddr: 0x8E78, symSize: 0x338 }
  - { offset: 0x250AC, size: 0x8, addend: 0x0, symName: __RINvMNtCsfvfooZQ3Axs_4core6optionINtB3_6OptionINtNtCs6IAuOt8vWmF_3syn10punctuated4PairQNtNtBN_2ty4TypeQNtNtBN_5token5CommaEE7or_elseNCNvXsg_BL_INtBL_8PairsMutB1n_B1D_ENtNtNtNtB5_4iter6traits8iterator8Iterator4nexts_0ECs8jlTyMxP1WZ_17async_stream_impl, symObjAddr: 0x138, symBinAddr: 0x4D4C, symSize: 0xB4 }
  - { offset: 0x25129, size: 0x8, addend: 0x0, symName: __RINvMNtCsfvfooZQ3Axs_4core6optionINtB3_6OptionINtNtCs6IAuOt8vWmF_3syn10punctuated4PairQNtNtBN_2ty9BareFnArgQNtNtBN_5token5CommaEE7or_elseNCNvXsg_BL_INtBL_8PairsMutB1n_B1I_ENtNtNtNtB5_4iter6traits8iterator8Iterator4nexts_0ECs8jlTyMxP1WZ_17async_stream_impl, symObjAddr: 0x1EC, symBinAddr: 0x4E00, symSize: 0xB4 }
  - { offset: 0x251B3, size: 0x8, addend: 0x0, symName: __RINvMNtCsfvfooZQ3Axs_4core6optionINtB3_6OptionINtNtCs6IAuOt8vWmF_3syn10punctuated4PairQNtNtBN_3pat3PatQNtNtBN_5token2OrEE7or_elseNCNvXsg_BL_INtBL_8PairsMutB1n_B1D_ENtNtNtNtB5_4iter6traits8iterator8Iterator4nexts_0ECs8jlTyMxP1WZ_17async_stream_impl, symObjAddr: 0x2A0, symBinAddr: 0x4EB4, symSize: 0xB4 }
  - { offset: 0x25216, size: 0x8, addend: 0x0, symName: __RINvMNtCsfvfooZQ3Axs_4core6optionINtB3_6OptionINtNtCs6IAuOt8vWmF_3syn10punctuated4PairQNtNtBN_3pat3PatQNtNtBN_5token5CommaEE7or_elseNCNvXsg_BL_INtBL_8PairsMutB1n_B1D_ENtNtNtNtB5_4iter6traits8iterator8Iterator4nexts_0ECs8jlTyMxP1WZ_17async_stream_impl, symObjAddr: 0x354, symBinAddr: 0x4F68, symSize: 0xB4 }
  - { offset: 0x25293, size: 0x8, addend: 0x0, symName: __RINvMNtCsfvfooZQ3Axs_4core6optionINtB3_6OptionINtNtCs6IAuOt8vWmF_3syn10punctuated4PairQNtNtBN_3pat8FieldPatQNtNtBN_5token5CommaEE7or_elseNCNvXsg_BL_INtBL_8PairsMutB1n_B1I_ENtNtNtNtB5_4iter6traits8iterator8Iterator4nexts_0ECs8jlTyMxP1WZ_17async_stream_impl, symObjAddr: 0x408, symBinAddr: 0x501C, symSize: 0xB4 }
  - { offset: 0x25310, size: 0x8, addend: 0x0, symName: __RINvMNtCsfvfooZQ3Axs_4core6optionINtB3_6OptionINtNtCs6IAuOt8vWmF_3syn10punctuated4PairQNtNtBN_4expr10FieldValueQNtNtBN_5token5CommaEE7or_elseNCNvXsg_BL_INtBL_8PairsMutB1n_B1M_ENtNtNtNtB5_4iter6traits8iterator8Iterator4nexts_0ECs8jlTyMxP1WZ_17async_stream_impl, symObjAddr: 0x4BC, symBinAddr: 0x50D0, symSize: 0xB4 }
  - { offset: 0x2538D, size: 0x8, addend: 0x0, symName: __RINvMNtCsfvfooZQ3Axs_4core6optionINtB3_6OptionINtNtCs6IAuOt8vWmF_3syn10punctuated4PairQNtNtBN_4expr4ExprQNtNtBN_5token5CommaEE7or_elseNCNvXsg_BL_INtBL_8PairsMutB1n_B1F_ENtNtNtNtB5_4iter6traits8iterator8Iterator4nexts_0ECs8jlTyMxP1WZ_17async_stream_impl, symObjAddr: 0x570, symBinAddr: 0x5184, symSize: 0xB4 }
  - { offset: 0x25417, size: 0x8, addend: 0x0, symName: __RINvMNtCsfvfooZQ3Axs_4core6optionINtB3_6OptionINtNtCs6IAuOt8vWmF_3syn10punctuated4PairQNtNtBN_4path11PathSegmentQNtNtBN_5token7PathSepEE7or_elseNCNvXsg_BL_INtBL_8PairsMutB1n_B1N_ENtNtNtNtB5_4iter6traits8iterator8Iterator4nexts_0ECs8jlTyMxP1WZ_17async_stream_impl, symObjAddr: 0x624, symBinAddr: 0x5238, symSize: 0xB4 }
  - { offset: 0x25494, size: 0x8, addend: 0x0, symName: __RINvMNtCsfvfooZQ3Axs_4core6optionINtB3_6OptionINtNtCs6IAuOt8vWmF_3syn10punctuated4PairQNtNtBN_4path15GenericArgumentQNtNtBN_5token5CommaEE7or_elseNCNvXsg_BL_INtBL_8PairsMutB1n_B1R_ENtNtNtNtB5_4iter6traits8iterator8Iterator4nexts_0ECs8jlTyMxP1WZ_17async_stream_impl, symObjAddr: 0x6D8, symBinAddr: 0x52EC, symSize: 0xB4 }
  - { offset: 0x25511, size: 0x8, addend: 0x0, symName: __RINvMNtCsfvfooZQ3Axs_4core6optionINtB3_6OptionINtNtCs6IAuOt8vWmF_3syn10punctuated4PairQNtNtBN_8generics12GenericParamQNtNtBN_5token5CommaEE7or_elseNCNvXsg_BL_INtBL_8PairsMutB1n_B1S_ENtNtNtNtB5_4iter6traits8iterator8Iterator4nexts_0ECs8jlTyMxP1WZ_17async_stream_impl, symObjAddr: 0x78C, symBinAddr: 0x53A0, symSize: 0xB4 }
  - { offset: 0x2558E, size: 0x8, addend: 0x0, symName: __RINvMNtCsfvfooZQ3Axs_4core6optionINtB3_6OptionINtNtCs6IAuOt8vWmF_3syn10punctuated4PairQNtNtBN_8generics13CapturedParamQNtNtBN_5token5CommaEE7or_elseNCNvXsg_BL_INtBL_8PairsMutB1n_B1T_ENtNtNtNtB5_4iter6traits8iterator8Iterator4nexts_0ECs8jlTyMxP1WZ_17async_stream_impl, symObjAddr: 0x840, symBinAddr: 0x5454, symSize: 0xB4 }
  - { offset: 0x25618, size: 0x8, addend: 0x0, symName: __RINvMNtCsfvfooZQ3Axs_4core6optionINtB3_6OptionINtNtCs6IAuOt8vWmF_3syn10punctuated4PairQNtNtBN_8generics14TypeParamBoundQNtNtBN_5token4PlusEE7or_elseNCNvXsg_BL_INtBL_8PairsMutB1n_B1U_ENtNtNtNtB5_4iter6traits8iterator8Iterator4nexts_0ECs8jlTyMxP1WZ_17async_stream_impl, symObjAddr: 0x8F4, symBinAddr: 0x5508, symSize: 0xB4 }
  - { offset: 0x25695, size: 0x8, addend: 0x0, symName: __RINvMNtCsfvfooZQ3Axs_4core6optionINtB3_6OptionINtNtCs6IAuOt8vWmF_3syn10punctuated4PairQNtNtBN_8lifetime8LifetimeQNtNtBN_5token4PlusEE7or_elseNCNvXsg_BL_INtBL_8PairsMutB1n_B1N_ENtNtNtNtB5_4iter6traits8iterator8Iterator4nexts_0ECs8jlTyMxP1WZ_17async_stream_impl, symObjAddr: 0x9A8, symBinAddr: 0x55BC, symSize: 0xB4 }
  - { offset: 0x2571D, size: 0x8, addend: 0x0, symName: __RINvMNtCsfvfooZQ3Axs_4core6optionINtB3_6OptionQINtNtCse1nGBsou5OW_5alloc5boxed3BoxNtNtCs6IAuOt8vWmF_3syn2ty4TypeEE3mapQB1i_NvYBJ_INtNtB5_7convert5AsMutB1i_E6as_mutECs8jlTyMxP1WZ_17async_stream_impl, symObjAddr: 0xA5C, symBinAddr: 0x5670, symSize: 0x50 }
  - { offset: 0x257AD, size: 0x8, addend: 0x0, symName: __RINvMNtCsfvfooZQ3Axs_4core6optionINtB3_6OptionQINtNtCse1nGBsou5OW_5alloc5boxed3BoxNtNtCs6IAuOt8vWmF_3syn2ty9BareFnArgEE3mapQB1i_NvYBJ_INtNtB5_7convert5AsMutB1i_E6as_mutECs8jlTyMxP1WZ_17async_stream_impl, symObjAddr: 0xAAC, symBinAddr: 0x56C0, symSize: 0x50 }
  - { offset: 0x2583D, size: 0x8, addend: 0x0, symName: __RINvMNtCsfvfooZQ3Axs_4core6optionINtB3_6OptionQINtNtCse1nGBsou5OW_5alloc5boxed3BoxNtNtCs6IAuOt8vWmF_3syn3pat3PatEE3mapQB1i_NvYBJ_INtNtB5_7convert5AsMutB1i_E6as_mutECs8jlTyMxP1WZ_17async_stream_impl, symObjAddr: 0xAFC, symBinAddr: 0x5710, symSize: 0x50 }
  - { offset: 0x258CD, size: 0x8, addend: 0x0, symName: __RINvMNtCsfvfooZQ3Axs_4core6optionINtB3_6OptionQINtNtCse1nGBsou5OW_5alloc5boxed3BoxNtNtCs6IAuOt8vWmF_3syn3pat8FieldPatEE3mapQB1i_NvYBJ_INtNtB5_7convert5AsMutB1i_E6as_mutECs8jlTyMxP1WZ_17async_stream_impl, symObjAddr: 0xB4C, symBinAddr: 0x5760, symSize: 0x50 }
  - { offset: 0x2595D, size: 0x8, addend: 0x0, symName: __RINvMNtCsfvfooZQ3Axs_4core6optionINtB3_6OptionQINtNtCse1nGBsou5OW_5alloc5boxed3BoxNtNtCs6IAuOt8vWmF_3syn4expr10FieldValueEE3mapQB1i_NvYBJ_INtNtB5_7convert5AsMutB1i_E6as_mutECs8jlTyMxP1WZ_17async_stream_impl, symObjAddr: 0xB9C, symBinAddr: 0x57B0, symSize: 0x50 }
  - { offset: 0x259ED, size: 0x8, addend: 0x0, symName: __RINvMNtCsfvfooZQ3Axs_4core6optionINtB3_6OptionQINtNtCse1nGBsou5OW_5alloc5boxed3BoxNtNtCs6IAuOt8vWmF_3syn4expr4ExprEE3mapQB1i_NvYBJ_INtNtB5_7convert5AsMutB1i_E6as_mutECs8jlTyMxP1WZ_17async_stream_impl, symObjAddr: 0xBEC, symBinAddr: 0x5800, symSize: 0x50 }
  - { offset: 0x25A7D, size: 0x8, addend: 0x0, symName: __RINvMNtCsfvfooZQ3Axs_4core6optionINtB3_6OptionQINtNtCse1nGBsou5OW_5alloc5boxed3BoxNtNtCs6IAuOt8vWmF_3syn4path15GenericArgumentEE3mapQB1i_NvYBJ_INtNtB5_7convert5AsMutB1i_E6as_mutECs8jlTyMxP1WZ_17async_stream_impl, symObjAddr: 0xC3C, symBinAddr: 0x5850, symSize: 0x50 }
  - { offset: 0x25B0D, size: 0x8, addend: 0x0, symName: __RINvMNtCsfvfooZQ3Axs_4core6optionINtB3_6OptionQINtNtCse1nGBsou5OW_5alloc5boxed3BoxNtNtCs6IAuOt8vWmF_3syn8generics13CapturedParamEE3mapQB1i_NvYBJ_INtNtB5_7convert5AsMutB1i_E6as_mutECs8jlTyMxP1WZ_17async_stream_impl, symObjAddr: 0xC8C, symBinAddr: 0x58A0, symSize: 0x50 }
  - { offset: 0x25B9D, size: 0x8, addend: 0x0, symName: __RINvMNtCsfvfooZQ3Axs_4core6optionINtB3_6OptionQINtNtCse1nGBsou5OW_5alloc5boxed3BoxNtNtCs6IAuOt8vWmF_3syn8generics14TypeParamBoundEE3mapQB1i_NvYBJ_INtNtB5_7convert5AsMutB1i_E6as_mutECs8jlTyMxP1WZ_17async_stream_impl, symObjAddr: 0xCDC, symBinAddr: 0x58F0, symSize: 0x50 }
  - { offset: 0x25C2D, size: 0x8, addend: 0x0, symName: __RINvMNtCsfvfooZQ3Axs_4core6optionINtB3_6OptionQINtNtCse1nGBsou5OW_5alloc5boxed3BoxNtNtCs6IAuOt8vWmF_3syn8lifetime8LifetimeEE3mapQB1i_NvYBJ_INtNtB5_7convert5AsMutB1i_E6as_mutECs8jlTyMxP1WZ_17async_stream_impl, symObjAddr: 0xD2C, symBinAddr: 0x5940, symSize: 0x50 }
  - { offset: 0x25CB0, size: 0x8, addend: 0x0, symName: __RINvMNtCsfvfooZQ3Axs_4core6optionINtB3_6OptionQNtNtCs6IAuOt8vWmF_3syn2ty4TypeE3mapINtNtBN_10punctuated4PairBI_QNtNtBN_5token5CommaENcNtB1i_3End0ECs8jlTyMxP1WZ_17async_stream_impl, symObjAddr: 0xD7C, symBinAddr: 0x5990, symSize: 0x68 }
  - { offset: 0x25D33, size: 0x8, addend: 0x0, symName: __RINvMNtCsfvfooZQ3Axs_4core6optionINtB3_6OptionQNtNtCs6IAuOt8vWmF_3syn2ty9BareFnArgE3mapINtNtBN_10punctuated4PairBI_QNtNtBN_5token5CommaENcNtB1n_3End0ECs8jlTyMxP1WZ_17async_stream_impl, symObjAddr: 0xDE4, symBinAddr: 0x59F8, symSize: 0x68 }
  - { offset: 0x25DB6, size: 0x8, addend: 0x0, symName: __RINvMNtCsfvfooZQ3Axs_4core6optionINtB3_6OptionQNtNtCs6IAuOt8vWmF_3syn3pat3PatE3mapINtNtBN_10punctuated4PairBI_QNtNtBN_5token2OrENcNtB1i_3End0ECs8jlTyMxP1WZ_17async_stream_impl, symObjAddr: 0xE4C, symBinAddr: 0x5A60, symSize: 0x68 }
  - { offset: 0x25E39, size: 0x8, addend: 0x0, symName: __RINvMNtCsfvfooZQ3Axs_4core6optionINtB3_6OptionQNtNtCs6IAuOt8vWmF_3syn3pat3PatE3mapINtNtBN_10punctuated4PairBI_QNtNtBN_5token5CommaENcNtB1i_3End0ECs8jlTyMxP1WZ_17async_stream_impl, symObjAddr: 0xEB4, symBinAddr: 0x5AC8, symSize: 0x68 }
  - { offset: 0x25EBC, size: 0x8, addend: 0x0, symName: __RINvMNtCsfvfooZQ3Axs_4core6optionINtB3_6OptionQNtNtCs6IAuOt8vWmF_3syn3pat8FieldPatE3mapINtNtBN_10punctuated4PairBI_QNtNtBN_5token5CommaENcNtB1n_3End0ECs8jlTyMxP1WZ_17async_stream_impl, symObjAddr: 0xF1C, symBinAddr: 0x5B30, symSize: 0x68 }
  - { offset: 0x25F3F, size: 0x8, addend: 0x0, symName: __RINvMNtCsfvfooZQ3Axs_4core6optionINtB3_6OptionQNtNtCs6IAuOt8vWmF_3syn4expr10FieldValueE3mapINtNtBN_10punctuated4PairBI_QNtNtBN_5token5CommaENcNtB1r_3End0ECs8jlTyMxP1WZ_17async_stream_impl, symObjAddr: 0xF84, symBinAddr: 0x5B98, symSize: 0x68 }
  - { offset: 0x25FC2, size: 0x8, addend: 0x0, symName: __RINvMNtCsfvfooZQ3Axs_4core6optionINtB3_6OptionQNtNtCs6IAuOt8vWmF_3syn4expr4ExprE3mapINtNtBN_10punctuated4PairBI_QNtNtBN_5token5CommaENcNtB1k_3End0ECs8jlTyMxP1WZ_17async_stream_impl, symObjAddr: 0xFEC, symBinAddr: 0x5C00, symSize: 0x68 }
  - { offset: 0x26045, size: 0x8, addend: 0x0, symName: __RINvMNtCsfvfooZQ3Axs_4core6optionINtB3_6OptionQNtNtCs6IAuOt8vWmF_3syn4path11PathSegmentE3mapINtNtBN_10punctuated4PairBI_QNtNtBN_5token7PathSepENcNtB1s_3End0ECs8jlTyMxP1WZ_17async_stream_impl, symObjAddr: 0x1054, symBinAddr: 0x5C68, symSize: 0x68 }
  - { offset: 0x260C8, size: 0x8, addend: 0x0, symName: __RINvMNtCsfvfooZQ3Axs_4core6optionINtB3_6OptionQNtNtCs6IAuOt8vWmF_3syn4path15GenericArgumentE3mapINtNtBN_10punctuated4PairBI_QNtNtBN_5token5CommaENcNtB1w_3End0ECs8jlTyMxP1WZ_17async_stream_impl, symObjAddr: 0x10BC, symBinAddr: 0x5CD0, symSize: 0x68 }
  - { offset: 0x2614B, size: 0x8, addend: 0x0, symName: __RINvMNtCsfvfooZQ3Axs_4core6optionINtB3_6OptionQNtNtCs6IAuOt8vWmF_3syn8generics12GenericParamE3mapINtNtBN_10punctuated4PairBI_QNtNtBN_5token5CommaENcNtB1x_3End0ECs8jlTyMxP1WZ_17async_stream_impl, symObjAddr: 0x1124, symBinAddr: 0x5D38, symSize: 0x68 }
  - { offset: 0x261CE, size: 0x8, addend: 0x0, symName: __RINvMNtCsfvfooZQ3Axs_4core6optionINtB3_6OptionQNtNtCs6IAuOt8vWmF_3syn8generics13CapturedParamE3mapINtNtBN_10punctuated4PairBI_QNtNtBN_5token5CommaENcNtB1y_3End0ECs8jlTyMxP1WZ_17async_stream_impl, symObjAddr: 0x118C, symBinAddr: 0x5DA0, symSize: 0x68 }
  - { offset: 0x26251, size: 0x8, addend: 0x0, symName: __RINvMNtCsfvfooZQ3Axs_4core6optionINtB3_6OptionQNtNtCs6IAuOt8vWmF_3syn8generics14TypeParamBoundE3mapINtNtBN_10punctuated4PairBI_QNtNtBN_5token4PlusENcNtB1z_3End0ECs8jlTyMxP1WZ_17async_stream_impl, symObjAddr: 0x11F4, symBinAddr: 0x5E08, symSize: 0x68 }
  - { offset: 0x262D4, size: 0x8, addend: 0x0, symName: __RINvMNtCsfvfooZQ3Axs_4core6optionINtB3_6OptionQNtNtCs6IAuOt8vWmF_3syn8lifetime8LifetimeE3mapINtNtBN_10punctuated4PairBI_QNtNtBN_5token4PlusENcNtB1s_3End0ECs8jlTyMxP1WZ_17async_stream_impl, symObjAddr: 0x125C, symBinAddr: 0x5E70, symSize: 0x68 }
  - { offset: 0x2634C, size: 0x8, addend: 0x0, symName: __RINvMNtCsfvfooZQ3Axs_4core6optionINtB3_6OptionQTNtNtCs6IAuOt8vWmF_3syn2ty4TypeNtNtBO_5token5CommaEE3mapINtNtBO_10punctuated4PairQBK_QB1e_ENCNvXsg_B1G_INtB1G_8PairsMutBK_B1e_ENtNtNtNtB5_4iter6traits8iterator8Iterator4next0ECs8jlTyMxP1WZ_17async_stream_impl, symObjAddr: 0x12C4, symBinAddr: 0x5ED8, symSize: 0x68 }
  - { offset: 0x263C4, size: 0x8, addend: 0x0, symName: __RINvMNtCsfvfooZQ3Axs_4core6optionINtB3_6OptionQTNtNtCs6IAuOt8vWmF_3syn2ty9BareFnArgNtNtBO_5token5CommaEE3mapINtNtBO_10punctuated4PairQBK_QB1j_ENCNvXsg_B1L_INtB1L_8PairsMutBK_B1j_ENtNtNtNtB5_4iter6traits8iterator8Iterator4next0ECs8jlTyMxP1WZ_17async_stream_impl, symObjAddr: 0x132C, symBinAddr: 0x5F40, symSize: 0x68 }
  - { offset: 0x2643C, size: 0x8, addend: 0x0, symName: __RINvMNtCsfvfooZQ3Axs_4core6optionINtB3_6OptionQTNtNtCs6IAuOt8vWmF_3syn3pat3PatNtNtBO_5token2OrEE3mapINtNtBO_10punctuated4PairQBK_QB1e_ENCNvXsg_B1D_INtB1D_8PairsMutBK_B1e_ENtNtNtNtB5_4iter6traits8iterator8Iterator4next0ECs8jlTyMxP1WZ_17async_stream_impl, symObjAddr: 0x1394, symBinAddr: 0x5FA8, symSize: 0x68 }
  - { offset: 0x264B4, size: 0x8, addend: 0x0, symName: __RINvMNtCsfvfooZQ3Axs_4core6optionINtB3_6OptionQTNtNtCs6IAuOt8vWmF_3syn3pat3PatNtNtBO_5token5CommaEE3mapINtNtBO_10punctuated4PairQBK_QB1e_ENCNvXsg_B1G_INtB1G_8PairsMutBK_B1e_ENtNtNtNtB5_4iter6traits8iterator8Iterator4next0ECs8jlTyMxP1WZ_17async_stream_impl, symObjAddr: 0x13FC, symBinAddr: 0x6010, symSize: 0x68 }
  - { offset: 0x2652C, size: 0x8, addend: 0x0, symName: __RINvMNtCsfvfooZQ3Axs_4core6optionINtB3_6OptionQTNtNtCs6IAuOt8vWmF_3syn3pat8FieldPatNtNtBO_5token5CommaEE3mapINtNtBO_10punctuated4PairQBK_QB1j_ENCNvXsg_B1L_INtB1L_8PairsMutBK_B1j_ENtNtNtNtB5_4iter6traits8iterator8Iterator4next0ECs8jlTyMxP1WZ_17async_stream_impl, symObjAddr: 0x1464, symBinAddr: 0x6078, symSize: 0x68 }
  - { offset: 0x265A4, size: 0x8, addend: 0x0, symName: __RINvMNtCsfvfooZQ3Axs_4core6optionINtB3_6OptionQTNtNtCs6IAuOt8vWmF_3syn4expr10FieldValueNtNtBO_5token5CommaEE3mapINtNtBO_10punctuated4PairQBK_QB1n_ENCNvXsg_B1P_INtB1P_8PairsMutBK_B1n_ENtNtNtNtB5_4iter6traits8iterator8Iterator4next0ECs8jlTyMxP1WZ_17async_stream_impl, symObjAddr: 0x14CC, symBinAddr: 0x60E0, symSize: 0x68 }
  - { offset: 0x2661C, size: 0x8, addend: 0x0, symName: __RINvMNtCsfvfooZQ3Axs_4core6optionINtB3_6OptionQTNtNtCs6IAuOt8vWmF_3syn4expr4ExprNtNtBO_5token5CommaEE3mapINtNtBO_10punctuated4PairQBK_QB1g_ENCNvXsg_B1I_INtB1I_8PairsMutBK_B1g_ENtNtNtNtB5_4iter6traits8iterator8Iterator4next0ECs8jlTyMxP1WZ_17async_stream_impl, symObjAddr: 0x1534, symBinAddr: 0x6148, symSize: 0x68 }
  - { offset: 0x26694, size: 0x8, addend: 0x0, symName: __RINvMNtCsfvfooZQ3Axs_4core6optionINtB3_6OptionQTNtNtCs6IAuOt8vWmF_3syn4path11PathSegmentNtNtBO_5token7PathSepEE3mapINtNtBO_10punctuated4PairQBK_QB1o_ENCNvXsg_B1S_INtB1S_8PairsMutBK_B1o_ENtNtNtNtB5_4iter6traits8iterator8Iterator4next0ECs8jlTyMxP1WZ_17async_stream_impl, symObjAddr: 0x159C, symBinAddr: 0x61B0, symSize: 0x68 }
  - { offset: 0x2670C, size: 0x8, addend: 0x0, symName: __RINvMNtCsfvfooZQ3Axs_4core6optionINtB3_6OptionQTNtNtCs6IAuOt8vWmF_3syn4path15GenericArgumentNtNtBO_5token5CommaEE3mapINtNtBO_10punctuated4PairQBK_QB1s_ENCNvXsg_B1U_INtB1U_8PairsMutBK_B1s_ENtNtNtNtB5_4iter6traits8iterator8Iterator4next0ECs8jlTyMxP1WZ_17async_stream_impl, symObjAddr: 0x1604, symBinAddr: 0x6218, symSize: 0x68 }
  - { offset: 0x26784, size: 0x8, addend: 0x0, symName: __RINvMNtCsfvfooZQ3Axs_4core6optionINtB3_6OptionQTNtNtCs6IAuOt8vWmF_3syn8generics12GenericParamNtNtBO_5token5CommaEE3mapINtNtBO_10punctuated4PairQBK_QB1t_ENCNvXsg_B1V_INtB1V_8PairsMutBK_B1t_ENtNtNtNtB5_4iter6traits8iterator8Iterator4next0ECs8jlTyMxP1WZ_17async_stream_impl, symObjAddr: 0x166C, symBinAddr: 0x6280, symSize: 0x68 }
  - { offset: 0x267FC, size: 0x8, addend: 0x0, symName: __RINvMNtCsfvfooZQ3Axs_4core6optionINtB3_6OptionQTNtNtCs6IAuOt8vWmF_3syn8generics13CapturedParamNtNtBO_5token5CommaEE3mapINtNtBO_10punctuated4PairQBK_QB1u_ENCNvXsg_B1W_INtB1W_8PairsMutBK_B1u_ENtNtNtNtB5_4iter6traits8iterator8Iterator4next0ECs8jlTyMxP1WZ_17async_stream_impl, symObjAddr: 0x16D4, symBinAddr: 0x62E8, symSize: 0x68 }
  - { offset: 0x26874, size: 0x8, addend: 0x0, symName: __RINvMNtCsfvfooZQ3Axs_4core6optionINtB3_6OptionQTNtNtCs6IAuOt8vWmF_3syn8generics14TypeParamBoundNtNtBO_5token4PlusEE3mapINtNtBO_10punctuated4PairQBK_QB1v_ENCNvXsg_B1W_INtB1W_8PairsMutBK_B1v_ENtNtNtNtB5_4iter6traits8iterator8Iterator4next0ECs8jlTyMxP1WZ_17async_stream_impl, symObjAddr: 0x173C, symBinAddr: 0x6350, symSize: 0x68 }
  - { offset: 0x268EC, size: 0x8, addend: 0x0, symName: __RINvMNtCsfvfooZQ3Axs_4core6optionINtB3_6OptionQTNtNtCs6IAuOt8vWmF_3syn8lifetime8LifetimeNtNtBO_5token4PlusEE3mapINtNtBO_10punctuated4PairQBK_QB1o_ENCNvXsg_B1P_INtB1P_8PairsMutBK_B1o_ENtNtNtNtB5_4iter6traits8iterator8Iterator4next0ECs8jlTyMxP1WZ_17async_stream_impl, symObjAddr: 0x17A4, symBinAddr: 0x63B8, symSize: 0x68 }
  - { offset: 0x269E7, size: 0x8, addend: 0x0, symName: __RINvMNtCsfvfooZQ3Axs_4core6optionINtB3_6OptionRNtCs3cP53eQoTwO_11proc_macro25IdentE6map_orbNCNvXs1_Cs8jlTyMxP1WZ_17async_stream_implNtB1z_5ScrubNtNtNtCs6IAuOt8vWmF_3syn3gen9visit_mut8VisitMut15visit_macro_muts_0EB1z_, symObjAddr: 0x180C, symBinAddr: 0x6420, symSize: 0xAC }
  - { offset: 0x26A66, size: 0x8, addend: 0x0, symName: __RINvMNtCsfvfooZQ3Axs_4core6optionINtB3_6OptionRNtNtCs6IAuOt8vWmF_3syn4path11PathSegmentE3mapRNtCs3cP53eQoTwO_11proc_macro25IdentNCNvXs1_Cs8jlTyMxP1WZ_17async_stream_implNtB2a_5ScrubNtNtNtBN_3gen9visit_mut8VisitMut15visit_macro_mut0EB2a_, symObjAddr: 0x18B8, symBinAddr: 0x64CC, symSize: 0x50 }
  - { offset: 0x26B66, size: 0x8, addend: 0x0, symName: __RINvMs3_NtNtCs9i5KxIbZ5ph_10proc_macro6bridge6bufferNtB6_6Buffer17extend_from_arrayKj4_ECs8jlTyMxP1WZ_17async_stream_impl, symObjAddr: 0x1908, symBinAddr: 0x651C, symSize: 0x16C }
  - { offset: 0x26D2C, size: 0x8, addend: 0x0, symName: __RINvMs3_NtNtCs9i5KxIbZ5ph_10proc_macro6bridge6bufferNtB6_6Buffer17extend_from_arrayKj8_ECs8jlTyMxP1WZ_17async_stream_impl, symObjAddr: 0x1A74, symBinAddr: 0x6688, symSize: 0x16C }
  - { offset: 0x27170, size: 0x8, addend: 0x0, symName: __RNvMNtCsfvfooZQ3Axs_4core6optionINtB2_6OptionINtNtCse1nGBsou5OW_5alloc5boxed3BoxNtNtCs6IAuOt8vWmF_3syn2ty4TypeEE6as_mutCs8jlTyMxP1WZ_17async_stream_impl, symObjAddr: 0x2D08, symBinAddr: 0x78D4, symSize: 0x4C }
  - { offset: 0x271C7, size: 0x8, addend: 0x0, symName: __RNvMNtCsfvfooZQ3Axs_4core6optionINtB2_6OptionINtNtCse1nGBsou5OW_5alloc5boxed3BoxNtNtCs6IAuOt8vWmF_3syn2ty9BareFnArgEE6as_mutCs8jlTyMxP1WZ_17async_stream_impl, symObjAddr: 0x2D54, symBinAddr: 0x7920, symSize: 0x4C }
  - { offset: 0x2721E, size: 0x8, addend: 0x0, symName: __RNvMNtCsfvfooZQ3Axs_4core6optionINtB2_6OptionINtNtCse1nGBsou5OW_5alloc5boxed3BoxNtNtCs6IAuOt8vWmF_3syn3pat3PatEE6as_mutCs8jlTyMxP1WZ_17async_stream_impl, symObjAddr: 0x2DA0, symBinAddr: 0x796C, symSize: 0x4C }
  - { offset: 0x27275, size: 0x8, addend: 0x0, symName: __RNvMNtCsfvfooZQ3Axs_4core6optionINtB2_6OptionINtNtCse1nGBsou5OW_5alloc5boxed3BoxNtNtCs6IAuOt8vWmF_3syn3pat8FieldPatEE6as_mutCs8jlTyMxP1WZ_17async_stream_impl, symObjAddr: 0x2DEC, symBinAddr: 0x79B8, symSize: 0x4C }
  - { offset: 0x272CC, size: 0x8, addend: 0x0, symName: __RNvMNtCsfvfooZQ3Axs_4core6optionINtB2_6OptionINtNtCse1nGBsou5OW_5alloc5boxed3BoxNtNtCs6IAuOt8vWmF_3syn4expr10FieldValueEE6as_mutCs8jlTyMxP1WZ_17async_stream_impl, symObjAddr: 0x2E38, symBinAddr: 0x7A04, symSize: 0x4C }
  - { offset: 0x27323, size: 0x8, addend: 0x0, symName: __RNvMNtCsfvfooZQ3Axs_4core6optionINtB2_6OptionINtNtCse1nGBsou5OW_5alloc5boxed3BoxNtNtCs6IAuOt8vWmF_3syn4expr4ExprEE6as_mutCs8jlTyMxP1WZ_17async_stream_impl, symObjAddr: 0x2E84, symBinAddr: 0x7A50, symSize: 0x4C }
  - { offset: 0x2737A, size: 0x8, addend: 0x0, symName: __RNvMNtCsfvfooZQ3Axs_4core6optionINtB2_6OptionINtNtCse1nGBsou5OW_5alloc5boxed3BoxNtNtCs6IAuOt8vWmF_3syn4path15GenericArgumentEE6as_mutCs8jlTyMxP1WZ_17async_stream_impl, symObjAddr: 0x2ED0, symBinAddr: 0x7A9C, symSize: 0x4C }
  - { offset: 0x273D1, size: 0x8, addend: 0x0, symName: __RNvMNtCsfvfooZQ3Axs_4core6optionINtB2_6OptionINtNtCse1nGBsou5OW_5alloc5boxed3BoxNtNtCs6IAuOt8vWmF_3syn8generics13CapturedParamEE6as_mutCs8jlTyMxP1WZ_17async_stream_impl, symObjAddr: 0x2F1C, symBinAddr: 0x7AE8, symSize: 0x4C }
  - { offset: 0x27428, size: 0x8, addend: 0x0, symName: __RNvMNtCsfvfooZQ3Axs_4core6optionINtB2_6OptionINtNtCse1nGBsou5OW_5alloc5boxed3BoxNtNtCs6IAuOt8vWmF_3syn8generics14TypeParamBoundEE6as_mutCs8jlTyMxP1WZ_17async_stream_impl, symObjAddr: 0x2F68, symBinAddr: 0x7B34, symSize: 0x4C }
  - { offset: 0x2747F, size: 0x8, addend: 0x0, symName: __RNvMNtCsfvfooZQ3Axs_4core6optionINtB2_6OptionINtNtCse1nGBsou5OW_5alloc5boxed3BoxNtNtCs6IAuOt8vWmF_3syn8lifetime8LifetimeEE6as_mutCs8jlTyMxP1WZ_17async_stream_impl, symObjAddr: 0x2FB4, symBinAddr: 0x7B80, symSize: 0x4C }
  - { offset: 0x274D6, size: 0x8, addend: 0x0, symName: __RNvMNtCsfvfooZQ3Axs_4core6optionINtB2_6OptionRINtNtCse1nGBsou5OW_5alloc5boxed3BoxNtNtCs6IAuOt8vWmF_3syn4expr4ExprEE9unwrap_orCs8jlTyMxP1WZ_17async_stream_impl, symObjAddr: 0x3000, symBinAddr: 0x7BCC, symSize: 0x4C }
  - { offset: 0x27541, size: 0x8, addend: 0x0, symName: __RNvMs3_NtNtCs9i5KxIbZ5ph_10proc_macro6bridge6bufferNtB5_6Buffer17extend_from_sliceCs8jlTyMxP1WZ_17async_stream_impl, symObjAddr: 0x304C, symBinAddr: 0x7C18, symSize: 0x164 }
  - { offset: 0x276FD, size: 0x8, addend: 0x0, symName: __RNvMs3_NtNtCs9i5KxIbZ5ph_10proc_macro6bridge6bufferNtB5_6Buffer4pushCs8jlTyMxP1WZ_17async_stream_impl, symObjAddr: 0x31B0, symBinAddr: 0x7D7C, symSize: 0x134 }
  - { offset: 0x278A4, size: 0x8, addend: 0x0, symName: __RNvXs3_NtCs2cqEZUIJimJ_5quote9to_tokensINtNtCsfvfooZQ3Axs_4core6option6OptionNtCs3cP53eQoTwO_11proc_macro211TokenStreamENtB5_8ToTokens9to_tokensCs8jlTyMxP1WZ_17async_stream_impl, symObjAddr: 0x3C58, symBinAddr: 0x8820, symSize: 0x88 }
  - { offset: 0x27906, size: 0x8, addend: 0x0, symName: __RNvXs_NtCs2cqEZUIJimJ_5quote9to_tokensQINtNtCsfvfooZQ3Axs_4core6option6OptionNtNtCs6IAuOt8vWmF_3syn4expr5LabelENtB4_8ToTokens9to_tokensCs8jlTyMxP1WZ_17async_stream_impl, symObjAddr: 0x4128, symBinAddr: 0x8CF0, symSize: 0x40 }
  - { offset: 0x27945, size: 0x8, addend: 0x0, symName: __RNvXs_NtCs2cqEZUIJimJ_5quote9to_tokensQNtNtCs6IAuOt8vWmF_3syn4stmt5BlockNtB4_8ToTokens9to_tokensCs8jlTyMxP1WZ_17async_stream_impl, symObjAddr: 0x4168, symBinAddr: 0x8D30, symSize: 0x40 }
  - { offset: 0x27990, size: 0x8, addend: 0x0, symName: __RNvXs4_NtCs2cqEZUIJimJ_5quote9___privateINtB5_9RepInterpRNtNtCs6IAuOt8vWmF_3syn4stmt4StmtENtNtB7_9to_tokens8ToTokens9to_tokensCs8jlTyMxP1WZ_17async_stream_impl, symObjAddr: 0x3CE0, symBinAddr: 0x88A8, symSize: 0x3C }
  - { offset: 0x28416, size: 0x8, addend: 0x0, symName: __RINvNtNtCs6IAuOt8vWmF_3syn3gen9visit_mut13visit_abi_mutNtCs8jlTyMxP1WZ_17async_stream_impl5ScrubEBT_, symObjAddr: 0x0, symBinAddr: 0x9AC4, symSize: 0x84 }
  - { offset: 0x28D6D, size: 0x8, addend: 0x0, symName: __RINvNtNtCs6IAuOt8vWmF_3syn3gen9visit_mut13visit_abi_mutNtCs8jlTyMxP1WZ_17async_stream_impl5ScrubEBT_, symObjAddr: 0x0, symBinAddr: 0x9AC4, symSize: 0x84 }
  - { offset: 0x28DCD, size: 0x8, addend: 0x0, symName: __RINvNtNtCs6IAuOt8vWmF_3syn3gen9visit_mut13visit_arm_mutNtCs8jlTyMxP1WZ_17async_stream_impl5ScrubEBT_, symObjAddr: 0x84, symBinAddr: 0x9B48, symSize: 0xFC }
  - { offset: 0x28E25, size: 0x8, addend: 0x0, symName: __RINvNtNtCs6IAuOt8vWmF_3syn3gen9visit_mut13visit_lit_mutNtCs8jlTyMxP1WZ_17async_stream_impl5ScrubEBT_, symObjAddr: 0x180, symBinAddr: 0x9C44, symSize: 0x264 }
  - { offset: 0x28F57, size: 0x8, addend: 0x0, symName: __RINvNtNtCs6IAuOt8vWmF_3syn3gen9visit_mut13visit_pat_mutNtCs8jlTyMxP1WZ_17async_stream_impl5ScrubEBT_, symObjAddr: 0x3E4, symBinAddr: 0x9EA8, symSize: 0x390 }
  - { offset: 0x29195, size: 0x8, addend: 0x0, symName: __RINvNtNtCs6IAuOt8vWmF_3syn3gen9visit_mut14visit_expr_mutNtCs8jlTyMxP1WZ_17async_stream_impl5ScrubEBU_, symObjAddr: 0x774, symBinAddr: 0xA238, symSize: 0x7D8 }
  - { offset: 0x2969F, size: 0x8, addend: 0x0, symName: __RINvNtNtCs6IAuOt8vWmF_3syn3gen9visit_mut14visit_meta_mutNtCs8jlTyMxP1WZ_17async_stream_impl5ScrubEBU_, symObjAddr: 0xF4C, symBinAddr: 0xAA10, symSize: 0xE8 }
  - { offset: 0x29733, size: 0x8, addend: 0x0, symName: __RINvNtNtCs6IAuOt8vWmF_3syn3gen9visit_mut14visit_path_mutNtCs8jlTyMxP1WZ_17async_stream_impl5ScrubEBU_, symObjAddr: 0x1034, symBinAddr: 0xAAF8, symSize: 0xC8 }
  - { offset: 0x297C8, size: 0x8, addend: 0x0, symName: __RINvNtNtCs6IAuOt8vWmF_3syn3gen9visit_mut14visit_stmt_mutNtCs8jlTyMxP1WZ_17async_stream_impl5ScrubEBU_, symObjAddr: 0x10FC, symBinAddr: 0xABC0, symSize: 0x12C }
  - { offset: 0x2988A, size: 0x8, addend: 0x0, symName: __RINvNtNtCs6IAuOt8vWmF_3syn3gen9visit_mut14visit_type_mutNtCs8jlTyMxP1WZ_17async_stream_impl5ScrubEBU_, symObjAddr: 0x1228, symBinAddr: 0xACEC, symSize: 0x328 }
  - { offset: 0x29A8A, size: 0x8, addend: 0x0, symName: __RINvNtNtCs6IAuOt8vWmF_3syn3gen9visit_mut15visit_block_mutNtCs8jlTyMxP1WZ_17async_stream_impl5ScrubEBV_, symObjAddr: 0x1550, symBinAddr: 0xB014, symSize: 0x98 }
  - { offset: 0x29B00, size: 0x8, addend: 0x0, symName: __RINvNtNtCs6IAuOt8vWmF_3syn3gen9visit_mut15visit_ident_mutNtCs8jlTyMxP1WZ_17async_stream_impl5ScrubEBV_, symObjAddr: 0x15E8, symBinAddr: 0xB0AC, symSize: 0x68 }
  - { offset: 0x29B60, size: 0x8, addend: 0x0, symName: __RINvNtNtCs6IAuOt8vWmF_3syn3gen9visit_mut15visit_index_mutNtCs8jlTyMxP1WZ_17async_stream_impl5ScrubEBV_, symObjAddr: 0x1650, symBinAddr: 0xB114, symSize: 0x3C }
  - { offset: 0x29BA2, size: 0x8, addend: 0x0, symName: __RINvNtNtCs6IAuOt8vWmF_3syn3gen9visit_mut15visit_label_mutNtCs8jlTyMxP1WZ_17async_stream_impl5ScrubEBV_, symObjAddr: 0x168C, symBinAddr: 0xB150, symSize: 0x3C }
  - { offset: 0x29BE4, size: 0x8, addend: 0x0, symName: __RINvNtNtCs6IAuOt8vWmF_3syn3gen9visit_mut15visit_local_mutNtCs8jlTyMxP1WZ_17async_stream_impl5ScrubEBV_, symObjAddr: 0x16C8, symBinAddr: 0xB18C, symSize: 0xA4 }
  - { offset: 0x29C44, size: 0x8, addend: 0x0, symName: __RINvNtNtCs6IAuOt8vWmF_3syn3gen9visit_mut15visit_qself_mutNtCs8jlTyMxP1WZ_17async_stream_impl5ScrubEBV_, symObjAddr: 0x176C, symBinAddr: 0xB230, symSize: 0x68 }
  - { offset: 0x29C86, size: 0x8, addend: 0x0, symName: __RINvNtNtCs6IAuOt8vWmF_3syn3gen9visit_mut15visit_un_op_mutNtCs8jlTyMxP1WZ_17async_stream_impl5ScrubEBV_, symObjAddr: 0x17D4, symBinAddr: 0xB298, symSize: 0xA8 }
  - { offset: 0x29CC8, size: 0x8, addend: 0x0, symName: __RINvNtNtCs6IAuOt8vWmF_3syn3gen9visit_mut16visit_bin_op_mutNtCs8jlTyMxP1WZ_17async_stream_impl5ScrubEBW_, symObjAddr: 0x187C, symBinAddr: 0xB340, symSize: 0x438 }
  - { offset: 0x29D0A, size: 0x8, addend: 0x0, symName: __RINvNtNtCs6IAuOt8vWmF_3syn3gen9visit_mut16visit_member_mutNtCs8jlTyMxP1WZ_17async_stream_impl5ScrubEBW_, symObjAddr: 0x1CB4, symBinAddr: 0xB778, symSize: 0x98 }
  - { offset: 0x29D80, size: 0x8, addend: 0x0, symName: __RINvNtNtCs6IAuOt8vWmF_3syn3gen9visit_mut16visit_pat_or_mutNtCs8jlTyMxP1WZ_17async_stream_impl5ScrubEBW_, symObjAddr: 0x1D4C, symBinAddr: 0xB810, symSize: 0xD0 }
  - { offset: 0x29E15, size: 0x8, addend: 0x0, symName: __RINvNtNtCs6IAuOt8vWmF_3syn3gen9visit_mut17visit_expr_if_mutNtCs8jlTyMxP1WZ_17async_stream_impl5ScrubEBX_, symObjAddr: 0x1E1C, symBinAddr: 0xB8E0, symSize: 0x104 }
  - { offset: 0x29E6D, size: 0x8, addend: 0x0, symName: __RINvNtNtCs6IAuOt8vWmF_3syn3gen9visit_mut17visit_lit_int_mutNtCs8jlTyMxP1WZ_17async_stream_impl5ScrubEBX_, symObjAddr: 0x1F20, symBinAddr: 0xB9E4, symSize: 0x24 }
  - { offset: 0x29EAF, size: 0x8, addend: 0x0, symName: __RINvNtNtCs6IAuOt8vWmF_3syn3gen9visit_mut17visit_lit_str_mutNtCs8jlTyMxP1WZ_17async_stream_impl5ScrubEBX_, symObjAddr: 0x1F44, symBinAddr: 0xBA08, symSize: 0x24 }
  - { offset: 0x29EF1, size: 0x8, addend: 0x0, symName: __RINvNtNtCs6IAuOt8vWmF_3syn3gen9visit_mut18visit_expr_let_mutNtCs8jlTyMxP1WZ_17async_stream_impl5ScrubEBY_, symObjAddr: 0x1F68, symBinAddr: 0xBA2C, symSize: 0xAC }
  - { offset: 0x29F33, size: 0x8, addend: 0x0, symName: __RINvNtNtCs6IAuOt8vWmF_3syn3gen9visit_mut18visit_expr_lit_mutNtCs8jlTyMxP1WZ_17async_stream_impl5ScrubEBY_, symObjAddr: 0x2014, symBinAddr: 0xBAD8, symSize: 0x50 }
  - { offset: 0x29F75, size: 0x8, addend: 0x0, symName: __RINvNtNtCs6IAuOt8vWmF_3syn3gen9visit_mut18visit_expr_try_mutNtCs8jlTyMxP1WZ_17async_stream_impl5ScrubEBY_, symObjAddr: 0x2064, symBinAddr: 0xBB28, symSize: 0x78 }
  - { offset: 0x29FB7, size: 0x8, addend: 0x0, symName: __RINvNtNtCs6IAuOt8vWmF_3syn3gen9visit_mut18visit_lifetime_mutNtCs8jlTyMxP1WZ_17async_stream_impl5ScrubEBY_, symObjAddr: 0x20DC, symBinAddr: 0xBBA0, symSize: 0x50 }
  - { offset: 0x29FF9, size: 0x8, addend: 0x0, symName: __RINvNtNtCs6IAuOt8vWmF_3syn3gen9visit_mut18visit_lit_bool_mutNtCs8jlTyMxP1WZ_17async_stream_impl5ScrubEBY_, symObjAddr: 0x212C, symBinAddr: 0xBBF0, symSize: 0x3C }
  - { offset: 0x2A03B, size: 0x8, addend: 0x0, symName: __RINvNtNtCs6IAuOt8vWmF_3syn3gen9visit_mut18visit_lit_byte_mutNtCs8jlTyMxP1WZ_17async_stream_impl5ScrubEBY_, symObjAddr: 0x2168, symBinAddr: 0xBC2C, symSize: 0x24 }
  - { offset: 0x2A07D, size: 0x8, addend: 0x0, symName: __RINvNtNtCs6IAuOt8vWmF_3syn3gen9visit_mut18visit_lit_char_mutNtCs8jlTyMxP1WZ_17async_stream_impl5ScrubEBY_, symObjAddr: 0x218C, symBinAddr: 0xBC50, symSize: 0x24 }
  - { offset: 0x2A0BF, size: 0x8, addend: 0x0, symName: __RINvNtNtCs6IAuOt8vWmF_3syn3gen9visit_mut18visit_lit_cstr_mutNtCs8jlTyMxP1WZ_17async_stream_impl5ScrubEBY_, symObjAddr: 0x21B0, symBinAddr: 0xBC74, symSize: 0x24 }
  - { offset: 0x2A101, size: 0x8, addend: 0x0, symName: __RINvNtNtCs6IAuOt8vWmF_3syn3gen9visit_mut18visit_pat_rest_mutNtCs8jlTyMxP1WZ_17async_stream_impl5ScrubEBY_, symObjAddr: 0x21D4, symBinAddr: 0xBC98, symSize: 0x3C }
  - { offset: 0x2A143, size: 0x8, addend: 0x0, symName: __RINvNtNtCs6IAuOt8vWmF_3syn3gen9visit_mut18visit_pat_type_mutNtCs8jlTyMxP1WZ_17async_stream_impl5ScrubEBY_, symObjAddr: 0x2210, symBinAddr: 0xBCD4, symSize: 0xAC }
  - { offset: 0x2A185, size: 0x8, addend: 0x0, symName: __RINvNtNtCs6IAuOt8vWmF_3syn3gen9visit_mut18visit_pat_wild_mutNtCs8jlTyMxP1WZ_17async_stream_impl5ScrubEBY_, symObjAddr: 0x22BC, symBinAddr: 0xBD80, symSize: 0x3C }
  - { offset: 0x2A1C7, size: 0x8, addend: 0x0, symName: __RINvNtNtCs6IAuOt8vWmF_3syn3gen9visit_mut18visit_type_ptr_mutNtCs8jlTyMxP1WZ_17async_stream_impl5ScrubEBY_, symObjAddr: 0x22F8, symBinAddr: 0xBDBC, symSize: 0x68 }
  - { offset: 0x2A209, size: 0x8, addend: 0x0, symName: __RINvNtNtCs6IAuOt8vWmF_3syn3gen9visit_mut19visit_attribute_mutNtCs8jlTyMxP1WZ_17async_stream_impl5ScrubEBZ_, symObjAddr: 0x2360, symBinAddr: 0xBE24, symSize: 0x50 }
  - { offset: 0x2A24B, size: 0x8, addend: 0x0, symName: __RINvNtNtCs6IAuOt8vWmF_3syn3gen9visit_mut19visit_expr_call_mutNtCs8jlTyMxP1WZ_17async_stream_impl5ScrubEBZ_, symObjAddr: 0x23B0, symBinAddr: 0xBE74, symSize: 0x108 }
  - { offset: 0x2A2E0, size: 0x8, addend: 0x0, symName: __RINvNtNtCs6IAuOt8vWmF_3syn3gen9visit_mut19visit_expr_cast_mutNtCs8jlTyMxP1WZ_17async_stream_impl5ScrubEBZ_, symObjAddr: 0x24B8, symBinAddr: 0xBF7C, symSize: 0xAC }
  - { offset: 0x2A322, size: 0x8, addend: 0x0, symName: __RINvNtNtCs6IAuOt8vWmF_3syn3gen9visit_mut19visit_expr_loop_mutNtCs8jlTyMxP1WZ_17async_stream_impl5ScrubEBZ_, symObjAddr: 0x2564, symBinAddr: 0xC028, symSize: 0xA4 }
  - { offset: 0x2A382, size: 0x8, addend: 0x0, symName: __RINvNtNtCs6IAuOt8vWmF_3syn3gen9visit_mut19visit_expr_path_mutNtCs8jlTyMxP1WZ_17async_stream_impl5ScrubEBZ_, symObjAddr: 0x2608, symBinAddr: 0xC0CC, symSize: 0xA4 }
  - { offset: 0x2A3E2, size: 0x8, addend: 0x0, symName: __RINvNtNtCs6IAuOt8vWmF_3syn3gen9visit_mut19visit_field_pat_mutNtCs8jlTyMxP1WZ_17async_stream_impl5ScrubEBZ_, symObjAddr: 0x26AC, symBinAddr: 0xC170, symSize: 0x88 }
  - { offset: 0x2A424, size: 0x8, addend: 0x0, symName: __RINvNtNtCs6IAuOt8vWmF_3syn3gen9visit_mut19visit_lit_float_mutNtCs8jlTyMxP1WZ_17async_stream_impl5ScrubEBZ_, symObjAddr: 0x2734, symBinAddr: 0xC1F8, symSize: 0x24 }
  - { offset: 0x2A466, size: 0x8, addend: 0x0, symName: __RINvNtNtCs6IAuOt8vWmF_3syn3gen9visit_mut19visit_meta_list_mutNtCs8jlTyMxP1WZ_17async_stream_impl5ScrubEBZ_, symObjAddr: 0x2758, symBinAddr: 0xC21C, symSize: 0x60 }
  - { offset: 0x2A4A8, size: 0x8, addend: 0x0, symName: __RINvNtNtCs6IAuOt8vWmF_3syn3gen9visit_mut19visit_pat_ident_mutNtCs8jlTyMxP1WZ_17async_stream_impl5ScrubEBZ_, symObjAddr: 0x27B8, symBinAddr: 0xC27C, symSize: 0xC8 }
  - { offset: 0x2A500, size: 0x8, addend: 0x0, symName: __RINvNtNtCs6IAuOt8vWmF_3syn3gen9visit_mut19visit_pat_paren_mutNtCs8jlTyMxP1WZ_17async_stream_impl5ScrubEBZ_, symObjAddr: 0x2880, symBinAddr: 0xC344, symSize: 0x78 }
  - { offset: 0x2A542, size: 0x8, addend: 0x0, symName: __RINvNtNtCs6IAuOt8vWmF_3syn3gen9visit_mut19visit_pat_slice_mutNtCs8jlTyMxP1WZ_17async_stream_impl5ScrubEBZ_, symObjAddr: 0x28F8, symBinAddr: 0xC3BC, symSize: 0xD0 }
  - { offset: 0x2A5D7, size: 0x8, addend: 0x0, symName: __RINvNtNtCs6IAuOt8vWmF_3syn3gen9visit_mut19visit_pat_tuple_mutNtCs8jlTyMxP1WZ_17async_stream_impl5ScrubEBZ_, symObjAddr: 0x29C8, symBinAddr: 0xC48C, symSize: 0xD0 }
  - { offset: 0x2A66C, size: 0x8, addend: 0x0, symName: __RINvNtNtCs6IAuOt8vWmF_3syn3gen9visit_mut19visit_type_path_mutNtCs8jlTyMxP1WZ_17async_stream_impl5ScrubEBZ_, symObjAddr: 0x2A98, symBinAddr: 0xC55C, symSize: 0x94 }
  - { offset: 0x2A6CC, size: 0x8, addend: 0x0, symName: __RINvNtNtCs6IAuOt8vWmF_3syn3gen9visit_mut20visit_assoc_type_mutNtCs8jlTyMxP1WZ_17async_stream_impl5ScrubEB10_, symObjAddr: 0x2B2C, symBinAddr: 0xC5F0, symSize: 0xA8 }
  - { offset: 0x2A72C, size: 0x8, addend: 0x0, symName: __RINvNtNtCs6IAuOt8vWmF_3syn3gen9visit_mut20visit_attr_style_mutNtCs8jlTyMxP1WZ_17async_stream_impl5ScrubEB10_, symObjAddr: 0x2BD4, symBinAddr: 0xC698, symSize: 0x60 }
  - { offset: 0x2A76E, size: 0x8, addend: 0x0, symName: __RINvNtNtCs6IAuOt8vWmF_3syn3gen9visit_mut20visit_constraint_mutNtCs8jlTyMxP1WZ_17async_stream_impl5ScrubEB10_, symObjAddr: 0x2C34, symBinAddr: 0xC6F8, symSize: 0x128 }
  - { offset: 0x2A821, size: 0x8, addend: 0x0, symName: __RINvNtNtCs6IAuOt8vWmF_3syn3gen9visit_mut20visit_expr_array_mutNtCs8jlTyMxP1WZ_17async_stream_impl5ScrubEB10_, symObjAddr: 0x2D5C, symBinAddr: 0xC820, symSize: 0xD0 }
  - { offset: 0x2A8B6, size: 0x8, addend: 0x0, symName: __RINvNtNtCs6IAuOt8vWmF_3syn3gen9visit_mut20visit_expr_async_mutNtCs8jlTyMxP1WZ_17async_stream_impl5ScrubEB10_, symObjAddr: 0x2E2C, symBinAddr: 0xC8F0, symSize: 0x50 }
  - { offset: 0x2A8F8, size: 0x8, addend: 0x0, symName: __RINvNtNtCs6IAuOt8vWmF_3syn3gen9visit_mut20visit_expr_await_mutNtCs8jlTyMxP1WZ_17async_stream_impl5ScrubEB10_, symObjAddr: 0x2E7C, symBinAddr: 0xC940, symSize: 0x78 }
  - { offset: 0x2A93A, size: 0x8, addend: 0x0, symName: __RINvNtNtCs6IAuOt8vWmF_3syn3gen9visit_mut20visit_expr_block_mutNtCs8jlTyMxP1WZ_17async_stream_impl5ScrubEB10_, symObjAddr: 0x2EF4, symBinAddr: 0xC9B8, symSize: 0xA4 }
  - { offset: 0x2A99A, size: 0x8, addend: 0x0, symName: __RINvNtNtCs6IAuOt8vWmF_3syn3gen9visit_mut20visit_expr_break_mutNtCs8jlTyMxP1WZ_17async_stream_impl5ScrubEB10_, symObjAddr: 0x2F98, symBinAddr: 0xCA5C, symSize: 0x110 }
  - { offset: 0x2AA10, size: 0x8, addend: 0x0, symName: __RINvNtNtCs6IAuOt8vWmF_3syn3gen9visit_mut20visit_expr_const_mutNtCs8jlTyMxP1WZ_17async_stream_impl5ScrubEB10_, symObjAddr: 0x30A8, symBinAddr: 0xCB6C, symSize: 0x50 }
  - { offset: 0x2AA52, size: 0x8, addend: 0x0, symName: __RINvNtNtCs6IAuOt8vWmF_3syn3gen9visit_mut20visit_expr_field_mutNtCs8jlTyMxP1WZ_17async_stream_impl5ScrubEB10_, symObjAddr: 0x30F8, symBinAddr: 0xCBBC, symSize: 0x88 }
  - { offset: 0x2AA94, size: 0x8, addend: 0x0, symName: __RINvNtNtCs6IAuOt8vWmF_3syn3gen9visit_mut20visit_expr_group_mutNtCs8jlTyMxP1WZ_17async_stream_impl5ScrubEB10_, symObjAddr: 0x3180, symBinAddr: 0xCC44, symSize: 0x78 }
  - { offset: 0x2AAD6, size: 0x8, addend: 0x0, symName: __RINvNtNtCs6IAuOt8vWmF_3syn3gen9visit_mut20visit_expr_index_mutNtCs8jlTyMxP1WZ_17async_stream_impl5ScrubEB10_, symObjAddr: 0x31F8, symBinAddr: 0xCCBC, symSize: 0xAC }
  - { offset: 0x2AB18, size: 0x8, addend: 0x0, symName: __RINvNtNtCs6IAuOt8vWmF_3syn3gen9visit_mut20visit_expr_infer_mutNtCs8jlTyMxP1WZ_17async_stream_impl5ScrubEB10_, symObjAddr: 0x32A4, symBinAddr: 0xCD68, symSize: 0x3C }
  - { offset: 0x2AB5A, size: 0x8, addend: 0x0, symName: __RINvNtNtCs6IAuOt8vWmF_3syn3gen9visit_mut20visit_expr_macro_mutNtCs8jlTyMxP1WZ_17async_stream_impl5ScrubEB10_, symObjAddr: 0x32E0, symBinAddr: 0xCDA4, symSize: 0x50 }
  - { offset: 0x2AB9C, size: 0x8, addend: 0x0, symName: __RINvNtNtCs6IAuOt8vWmF_3syn3gen9visit_mut20visit_expr_match_mutNtCs8jlTyMxP1WZ_17async_stream_impl5ScrubEB10_, symObjAddr: 0x3330, symBinAddr: 0xCDF4, symSize: 0xD8 }
  - { offset: 0x2AC12, size: 0x8, addend: 0x0, symName: __RINvNtNtCs6IAuOt8vWmF_3syn3gen9visit_mut20visit_expr_paren_mutNtCs8jlTyMxP1WZ_17async_stream_impl5ScrubEB10_, symObjAddr: 0x3408, symBinAddr: 0xCECC, symSize: 0x78 }
  - { offset: 0x2AC54, size: 0x8, addend: 0x0, symName: __RINvNtNtCs6IAuOt8vWmF_3syn3gen9visit_mut20visit_expr_range_mutNtCs8jlTyMxP1WZ_17async_stream_impl5ScrubEB10_, symObjAddr: 0x3480, symBinAddr: 0xCF44, symSize: 0x144 }
  - { offset: 0x2ACC2, size: 0x8, addend: 0x0, symName: __RINvNtNtCs6IAuOt8vWmF_3syn3gen9visit_mut20visit_expr_tuple_mutNtCs8jlTyMxP1WZ_17async_stream_impl5ScrubEB10_, symObjAddr: 0x35C4, symBinAddr: 0xD088, symSize: 0xD0 }
  - { offset: 0x2AD57, size: 0x8, addend: 0x0, symName: __RINvNtNtCs6IAuOt8vWmF_3syn3gen9visit_mut20visit_expr_unary_mutNtCs8jlTyMxP1WZ_17async_stream_impl5ScrubEB10_, symObjAddr: 0x3694, symBinAddr: 0xD158, symSize: 0x88 }
  - { offset: 0x2AD99, size: 0x8, addend: 0x0, symName: __RINvNtNtCs6IAuOt8vWmF_3syn3gen9visit_mut20visit_expr_while_mutNtCs8jlTyMxP1WZ_17async_stream_impl5ScrubEB10_, symObjAddr: 0x371C, symBinAddr: 0xD1E0, symSize: 0xD8 }
  - { offset: 0x2ADF9, size: 0x8, addend: 0x0, symName: __RINvNtNtCs6IAuOt8vWmF_3syn3gen9visit_mut20visit_expr_yield_mutNtCs8jlTyMxP1WZ_17async_stream_impl5ScrubEB10_, symObjAddr: 0x37F4, symBinAddr: 0xD2B8, symSize: 0xB8 }
  - { offset: 0x2AE51, size: 0x8, addend: 0x0, symName: __RINvNtNtCs6IAuOt8vWmF_3syn3gen9visit_mut20visit_local_init_mutNtCs8jlTyMxP1WZ_17async_stream_impl5ScrubEB10_, symObjAddr: 0x38AC, symBinAddr: 0xD370, symSize: 0xE8 }
  - { offset: 0x2AEA9, size: 0x8, addend: 0x0, symName: __RINvNtNtCs6IAuOt8vWmF_3syn3gen9visit_mut20visit_pat_struct_mutNtCs8jlTyMxP1WZ_17async_stream_impl5ScrubEB10_, symObjAddr: 0x3994, symBinAddr: 0xD458, symSize: 0x18C }
  - { offset: 0x2AF72, size: 0x8, addend: 0x0, symName: __RINvNtNtCs6IAuOt8vWmF_3syn3gen9visit_mut20visit_stmt_macro_mutNtCs8jlTyMxP1WZ_17async_stream_impl5ScrubEB10_, symObjAddr: 0x3B20, symBinAddr: 0xD5E4, symSize: 0x50 }
  - { offset: 0x2AFB4, size: 0x8, addend: 0x0, symName: __RINvNtNtCs6IAuOt8vWmF_3syn3gen9visit_mut20visit_type_array_mutNtCs8jlTyMxP1WZ_17async_stream_impl5ScrubEB10_, symObjAddr: 0x3B70, symBinAddr: 0xD634, symSize: 0x78 }
  - { offset: 0x2AFF6, size: 0x8, addend: 0x0, symName: __RINvNtNtCs6IAuOt8vWmF_3syn3gen9visit_mut20visit_type_group_mutNtCs8jlTyMxP1WZ_17async_stream_impl5ScrubEB10_, symObjAddr: 0x3BE8, symBinAddr: 0xD6AC, symSize: 0x68 }
  - { offset: 0x2B038, size: 0x8, addend: 0x0, symName: __RINvNtNtCs6IAuOt8vWmF_3syn3gen9visit_mut20visit_type_infer_mutNtCs8jlTyMxP1WZ_17async_stream_impl5ScrubEB10_, symObjAddr: 0x3C50, symBinAddr: 0xD714, symSize: 0x24 }
  - { offset: 0x2B07A, size: 0x8, addend: 0x0, symName: __RINvNtNtCs6IAuOt8vWmF_3syn3gen9visit_mut20visit_type_macro_mutNtCs8jlTyMxP1WZ_17async_stream_impl5ScrubEB10_, symObjAddr: 0x3C74, symBinAddr: 0xD738, symSize: 0x3C }
  - { offset: 0x2B0BC, size: 0x8, addend: 0x0, symName: __RINvNtNtCs6IAuOt8vWmF_3syn3gen9visit_mut20visit_type_never_mutNtCs8jlTyMxP1WZ_17async_stream_impl5ScrubEB10_, symObjAddr: 0x3CB0, symBinAddr: 0xD774, symSize: 0x24 }
  - { offset: 0x2B0FE, size: 0x8, addend: 0x0, symName: __RINvNtNtCs6IAuOt8vWmF_3syn3gen9visit_mut20visit_type_param_mutNtCs8jlTyMxP1WZ_17async_stream_impl5ScrubEB10_, symObjAddr: 0x3CD4, symBinAddr: 0xD798, symSize: 0x134 }
  - { offset: 0x2B1A9, size: 0x8, addend: 0x0, symName: __RINvNtNtCs6IAuOt8vWmF_3syn3gen9visit_mut20visit_type_paren_mutNtCs8jlTyMxP1WZ_17async_stream_impl5ScrubEB10_, symObjAddr: 0x3E08, symBinAddr: 0xD8CC, symSize: 0x68 }
  - { offset: 0x2B1EB, size: 0x8, addend: 0x0, symName: __RINvNtNtCs6IAuOt8vWmF_3syn3gen9visit_mut20visit_type_slice_mutNtCs8jlTyMxP1WZ_17async_stream_impl5ScrubEB10_, symObjAddr: 0x3E70, symBinAddr: 0xD934, symSize: 0x68 }
  - { offset: 0x2B22D, size: 0x8, addend: 0x0, symName: __RINvNtNtCs6IAuOt8vWmF_3syn3gen9visit_mut20visit_type_tuple_mutNtCs8jlTyMxP1WZ_17async_stream_impl5ScrubEB10_, symObjAddr: 0x3ED8, symBinAddr: 0xD99C, symSize: 0xC8 }
  - { offset: 0x2B2C2, size: 0x8, addend: 0x0, symName: __RINvNtNtCs6IAuOt8vWmF_3syn3gen9visit_mut21visit_assoc_const_mutNtCs8jlTyMxP1WZ_17async_stream_impl5ScrubEB11_, symObjAddr: 0x3FA0, symBinAddr: 0xDA64, symSize: 0xA8 }
  - { offset: 0x2B322, size: 0x8, addend: 0x0, symName: __RINvNtNtCs6IAuOt8vWmF_3syn3gen9visit_mut21visit_bare_fn_arg_mutNtCs8jlTyMxP1WZ_17async_stream_impl5ScrubEB11_, symObjAddr: 0x4048, symBinAddr: 0xDB0C, symSize: 0xA4 }
  - { offset: 0x2B382, size: 0x8, addend: 0x0, symName: __RINvNtNtCs6IAuOt8vWmF_3syn3gen9visit_mut21visit_const_param_mutNtCs8jlTyMxP1WZ_17async_stream_impl5ScrubEB11_, symObjAddr: 0x40EC, symBinAddr: 0xDBB0, symSize: 0xB4 }
  - { offset: 0x2B3E2, size: 0x8, addend: 0x0, symName: __RINvNtNtCs6IAuOt8vWmF_3syn3gen9visit_mut21visit_expr_assign_mutNtCs8jlTyMxP1WZ_17async_stream_impl5ScrubEB11_, symObjAddr: 0x41A0, symBinAddr: 0xDC64, symSize: 0xAC }
  - { offset: 0x2B424, size: 0x8, addend: 0x0, symName: __RINvNtNtCs6IAuOt8vWmF_3syn3gen9visit_mut21visit_expr_binary_mutNtCs8jlTyMxP1WZ_17async_stream_impl5ScrubEB11_, symObjAddr: 0x424C, symBinAddr: 0xDD10, symSize: 0xBC }
  - { offset: 0x2B466, size: 0x8, addend: 0x0, symName: __RINvNtNtCs6IAuOt8vWmF_3syn3gen9visit_mut21visit_expr_repeat_mutNtCs8jlTyMxP1WZ_17async_stream_impl5ScrubEB11_, symObjAddr: 0x4308, symBinAddr: 0xDDCC, symSize: 0xAC }
  - { offset: 0x2B4A8, size: 0x8, addend: 0x0, symName: __RINvNtNtCs6IAuOt8vWmF_3syn3gen9visit_mut21visit_expr_return_mutNtCs8jlTyMxP1WZ_17async_stream_impl5ScrubEB11_, symObjAddr: 0x43B4, symBinAddr: 0xDE78, symSize: 0xB8 }
  - { offset: 0x2B500, size: 0x8, addend: 0x0, symName: __RINvNtNtCs6IAuOt8vWmF_3syn3gen9visit_mut21visit_expr_struct_mutNtCs8jlTyMxP1WZ_17async_stream_impl5ScrubEB11_, symObjAddr: 0x446C, symBinAddr: 0xDF30, symSize: 0x1B0 }
  - { offset: 0x2B5C9, size: 0x8, addend: 0x0, symName: __RINvNtNtCs6IAuOt8vWmF_3syn3gen9visit_mut21visit_expr_unsafe_mutNtCs8jlTyMxP1WZ_17async_stream_impl5ScrubEB11_, symObjAddr: 0x461C, symBinAddr: 0xE0E0, symSize: 0x50 }
  - { offset: 0x2B60B, size: 0x8, addend: 0x0, symName: __RINvNtNtCs6IAuOt8vWmF_3syn3gen9visit_mut21visit_field_value_mutNtCs8jlTyMxP1WZ_17async_stream_impl5ScrubEB11_, symObjAddr: 0x466C, symBinAddr: 0xE130, symSize: 0x60 }
  - { offset: 0x2B64D, size: 0x8, addend: 0x0, symName: __RINvNtNtCs6IAuOt8vWmF_3syn3gen9visit_mut21visit_return_type_mutNtCs8jlTyMxP1WZ_17async_stream_impl5ScrubEB11_, symObjAddr: 0x46CC, symBinAddr: 0xE190, symSize: 0xB0 }
  - { offset: 0x2B6B5, size: 0x8, addend: 0x0, symName: __RINvNtNtCs6IAuOt8vWmF_3syn3gen9visit_mut21visit_trait_bound_mutNtCs8jlTyMxP1WZ_17async_stream_impl5ScrubEB11_, symObjAddr: 0x477C, symBinAddr: 0xE240, symSize: 0xA8 }
  - { offset: 0x2B715, size: 0x8, addend: 0x0, symName: __RINvNtNtCs6IAuOt8vWmF_3syn3gen9visit_mut22visit_expr_closure_mutNtCs8jlTyMxP1WZ_17async_stream_impl5ScrubEB12_, symObjAddr: 0x4824, symBinAddr: 0xE2E8, symSize: 0x16C }
  - { offset: 0x2B7C8, size: 0x8, addend: 0x0, symName: __RINvNtNtCs6IAuOt8vWmF_3syn3gen9visit_mut22visit_lit_byte_str_mutNtCs8jlTyMxP1WZ_17async_stream_impl5ScrubEB12_, symObjAddr: 0x4990, symBinAddr: 0xE454, symSize: 0x24 }
  - { offset: 0x2B80A, size: 0x8, addend: 0x0, symName: __RINvNtNtCs6IAuOt8vWmF_3syn3gen9visit_mut22visit_path_segment_mutNtCs8jlTyMxP1WZ_17async_stream_impl5ScrubEB12_, symObjAddr: 0x49B4, symBinAddr: 0xE478, symSize: 0x50 }
  - { offset: 0x2B84C, size: 0x8, addend: 0x0, symName: __RINvNtNtCs6IAuOt8vWmF_3syn3gen9visit_mut22visit_range_limits_mutNtCs8jlTyMxP1WZ_17async_stream_impl5ScrubEB12_, symObjAddr: 0x4A04, symBinAddr: 0xE4C8, symSize: 0x6C }
  - { offset: 0x2B88E, size: 0x8, addend: 0x0, symName: __RINvNtNtCs6IAuOt8vWmF_3syn3gen9visit_mut22visit_type_bare_fn_mutNtCs8jlTyMxP1WZ_17async_stream_impl5ScrubEB12_, symObjAddr: 0x4A70, symBinAddr: 0xE534, symSize: 0x1CC }
  - { offset: 0x2B975, size: 0x8, addend: 0x0, symName: __RINvNtNtCs6IAuOt8vWmF_3syn3gen9visit_mut23visit_bare_variadic_mutNtCs8jlTyMxP1WZ_17async_stream_impl5ScrubEB13_, symObjAddr: 0x4C3C, symBinAddr: 0xE700, symSize: 0x94 }
  - { offset: 0x2B9D5, size: 0x8, addend: 0x0, symName: __RINvNtNtCs6IAuOt8vWmF_3syn3gen9visit_mut23visit_expr_continue_mutNtCs8jlTyMxP1WZ_17async_stream_impl5ScrubEB13_, symObjAddr: 0x4CD0, symBinAddr: 0xE794, symSize: 0x94 }
  - { offset: 0x2BA35, size: 0x8, addend: 0x0, symName: __RINvNtNtCs6IAuOt8vWmF_3syn3gen9visit_mut23visit_expr_for_loop_mutNtCs8jlTyMxP1WZ_17async_stream_impl5ScrubEB13_, symObjAddr: 0x4D64, symBinAddr: 0xE828, symSize: 0x10C }
  - { offset: 0x2BA95, size: 0x8, addend: 0x0, symName: __RINvNtNtCs6IAuOt8vWmF_3syn3gen9visit_mut23visit_expr_raw_addr_mutNtCs8jlTyMxP1WZ_17async_stream_impl5ScrubEB13_, symObjAddr: 0x4E70, symBinAddr: 0xE934, symSize: 0x88 }
  - { offset: 0x2BAD7, size: 0x8, addend: 0x0, symName: __RINvNtNtCs6IAuOt8vWmF_3syn3gen9visit_mut23visit_generic_param_mutNtCs8jlTyMxP1WZ_17async_stream_impl5ScrubEB13_, symObjAddr: 0x4EF8, symBinAddr: 0xE9BC, symSize: 0xE8 }
  - { offset: 0x2BB6B, size: 0x8, addend: 0x0, symName: __RINvNtNtCs6IAuOt8vWmF_3syn3gen9visit_mut23visit_pat_reference_mutNtCs8jlTyMxP1WZ_17async_stream_impl5ScrubEB13_, symObjAddr: 0x4FE0, symBinAddr: 0xEAA4, symSize: 0x78 }
  - { offset: 0x2BBAD, size: 0x8, addend: 0x0, symName: __RINvNtNtCs6IAuOt8vWmF_3syn3gen9visit_mut24visit_captured_param_mutNtCs8jlTyMxP1WZ_17async_stream_impl5ScrubEB14_, symObjAddr: 0x5058, symBinAddr: 0xEB1C, symSize: 0x94 }
  - { offset: 0x2BC23, size: 0x8, addend: 0x0, symName: __RINvNtNtCs6IAuOt8vWmF_3syn3gen9visit_mut24visit_expr_reference_mutNtCs8jlTyMxP1WZ_17async_stream_impl5ScrubEB14_, symObjAddr: 0x50EC, symBinAddr: 0xEBB0, symSize: 0x78 }
  - { offset: 0x2BC65, size: 0x8, addend: 0x0, symName: __RINvNtNtCs6IAuOt8vWmF_3syn3gen9visit_mut24visit_expr_try_block_mutNtCs8jlTyMxP1WZ_17async_stream_impl5ScrubEB14_, symObjAddr: 0x5164, symBinAddr: 0xEC28, symSize: 0x50 }
  - { offset: 0x2BCA7, size: 0x8, addend: 0x0, symName: __RINvNtNtCs6IAuOt8vWmF_3syn3gen9visit_mut24visit_lifetime_param_mutNtCs8jlTyMxP1WZ_17async_stream_impl5ScrubEB14_, symObjAddr: 0x51B4, symBinAddr: 0xEC78, symSize: 0xE0 }
  - { offset: 0x2BD3C, size: 0x8, addend: 0x0, symName: __RINvNtNtCs6IAuOt8vWmF_3syn3gen9visit_mut24visit_path_arguments_mutNtCs8jlTyMxP1WZ_17async_stream_impl5ScrubEB14_, symObjAddr: 0x5294, symBinAddr: 0xED58, symSize: 0xD4 }
  - { offset: 0x2BDB2, size: 0x8, addend: 0x0, symName: __RINvNtNtCs6IAuOt8vWmF_3syn3gen9visit_mut24visit_type_reference_mutNtCs8jlTyMxP1WZ_17async_stream_impl5ScrubEB14_, symObjAddr: 0x5368, symBinAddr: 0xEE2C, symSize: 0xBC }
  - { offset: 0x2BE12, size: 0x8, addend: 0x0, symName: __RINvNtNtCs6IAuOt8vWmF_3syn3gen9visit_mut25visit_bound_lifetimes_mutNtCs8jlTyMxP1WZ_17async_stream_impl5ScrubEB15_, symObjAddr: 0x5424, symBinAddr: 0xEEE8, symSize: 0xC8 }
  - { offset: 0x2BEA7, size: 0x8, addend: 0x0, symName: __RINvNtNtCs6IAuOt8vWmF_3syn3gen9visit_mut25visit_macro_delimiter_mutNtCs8jlTyMxP1WZ_17async_stream_impl5ScrubEB15_, symObjAddr: 0x54EC, symBinAddr: 0xEFB0, symSize: 0xA8 }
  - { offset: 0x2BEE9, size: 0x8, addend: 0x0, symName: __RINvNtNtCs6IAuOt8vWmF_3syn3gen9visit_mut25visit_meta_name_value_mutNtCs8jlTyMxP1WZ_17async_stream_impl5ScrubEB15_, symObjAddr: 0x5594, symBinAddr: 0xF058, symSize: 0x50 }
  - { offset: 0x2BF2B, size: 0x8, addend: 0x0, symName: __RINvNtNtCs6IAuOt8vWmF_3syn3gen9visit_mut25visit_precise_capture_mutNtCs8jlTyMxP1WZ_17async_stream_impl5ScrubEB15_, symObjAddr: 0x55E4, symBinAddr: 0xF0A8, symSize: 0xC8 }
  - { offset: 0x2BFC0, size: 0x8, addend: 0x0, symName: __RINvNtNtCs6IAuOt8vWmF_3syn3gen9visit_mut25visit_type_impl_trait_mutNtCs8jlTyMxP1WZ_17async_stream_impl5ScrubEB15_, symObjAddr: 0x56AC, symBinAddr: 0xF170, symSize: 0xC8 }
  - { offset: 0x2C055, size: 0x8, addend: 0x0, symName: __RINvNtNtCs6IAuOt8vWmF_3syn3gen9visit_mut26visit_expr_method_call_mutNtCs8jlTyMxP1WZ_17async_stream_impl5ScrubEB16_, symObjAddr: 0x5774, symBinAddr: 0xF238, symSize: 0x170 }
  - { offset: 0x2C100, size: 0x8, addend: 0x0, symName: __RINvNtNtCs6IAuOt8vWmF_3syn3gen9visit_mut26visit_generic_argument_mutNtCs8jlTyMxP1WZ_17async_stream_impl5ScrubEB16_, symObjAddr: 0x58E4, symBinAddr: 0xF3A8, symSize: 0x1A8 }
  - { offset: 0x2C1EE, size: 0x8, addend: 0x0, symName: __RINvNtNtCs6IAuOt8vWmF_3syn3gen9visit_mut26visit_pat_tuple_struct_mutNtCs8jlTyMxP1WZ_17async_stream_impl5ScrubEB16_, symObjAddr: 0x5A8C, symBinAddr: 0xF550, symSize: 0x134 }
  - { offset: 0x2C2A1, size: 0x8, addend: 0x0, symName: __RINvNtNtCs6IAuOt8vWmF_3syn3gen9visit_mut26visit_type_param_bound_mutNtCs8jlTyMxP1WZ_17async_stream_impl5ScrubEB16_, symObjAddr: 0x5BC0, symBinAddr: 0xF684, symSize: 0x12C }
  - { offset: 0x2C353, size: 0x8, addend: 0x0, symName: __RINvNtNtCs6IAuOt8vWmF_3syn3gen9visit_mut27visit_type_trait_object_mutNtCs8jlTyMxP1WZ_17async_stream_impl5ScrubEB17_, symObjAddr: 0x5CEC, symBinAddr: 0xF7B0, symSize: 0xC8 }
  - { offset: 0x2C3E8, size: 0x8, addend: 0x0, symName: __RINvNtNtCs6IAuOt8vWmF_3syn3gen9visit_mut28visit_pointer_mutability_mutNtCs8jlTyMxP1WZ_17async_stream_impl5ScrubEB18_, symObjAddr: 0x5DB4, symBinAddr: 0xF878, symSize: 0x6C }
  - { offset: 0x2C42A, size: 0x8, addend: 0x0, symName: __RINvNtNtCs6IAuOt8vWmF_3syn3gen9visit_mut30visit_trait_bound_modifier_mutNtCs8jlTyMxP1WZ_17async_stream_impl5ScrubEB1a_, symObjAddr: 0x5E20, symBinAddr: 0xF8E4, symSize: 0x60 }
  - { offset: 0x2C46C, size: 0x8, addend: 0x0, symName: __RINvNtNtCs6IAuOt8vWmF_3syn3gen9visit_mut41visit_parenthesized_generic_arguments_mutNtCs8jlTyMxP1WZ_17async_stream_impl5ScrubEB1l_, symObjAddr: 0x5E80, symBinAddr: 0xF944, symSize: 0xD8 }
  - { offset: 0x2C501, size: 0x8, addend: 0x0, symName: __RINvNtNtCs6IAuOt8vWmF_3syn3gen9visit_mut43visit_angle_bracketed_generic_arguments_mutNtCs8jlTyMxP1WZ_17async_stream_impl5ScrubEB1n_, symObjAddr: 0x5F58, symBinAddr: 0xFA1C, symSize: 0xC8 }
  - { offset: 0x3631D, size: 0x8, addend: 0x0, symName: __RINvNtNtCs9i5KxIbZ5ph_10proc_macro6bridge6client10run_clientNtB2_11TokenStreamINtNtCsfvfooZQ3Axs_4core6option6OptionBW_ENCNCINvMs7_B2_INtB2_6ClientNtB6_11TokenStreamB2l_E7expand1NvCs8jlTyMxP1WZ_17async_stream_impl12stream_innerE00EB2S_, symObjAddr: 0x0, symBinAddr: 0xFAE4, symSize: 0x21C }
  - { offset: 0x364A1, size: 0x8, addend: 0x0, symName: __RNCNvXs1_NtNtNtCscOYdFFY2T5N_3std2io5error14repr_bitpackedNtB7_4ReprNtNtNtCsfvfooZQ3Axs_4core3ops4drop4Drop4drop0Cs8jlTyMxP1WZ_17async_stream_impl, symObjAddr: 0xE08, symBinAddr: 0x108EC, symSize: 0x34 }
  - { offset: 0x36556, size: 0x8, addend: 0x0, symName: __RNvXs1_NtNtNtCscOYdFFY2T5N_3std2io5error14repr_bitpackedNtB5_4ReprNtNtNtCsfvfooZQ3Axs_4core3ops4drop4Drop4dropCs8jlTyMxP1WZ_17async_stream_impl, symObjAddr: 0x2EF8, symBinAddr: 0x129DC, symSize: 0x38 }
  - { offset: 0x3657F, size: 0x8, addend: 0x0, symName: __RINvNtNtNtCscOYdFFY2T5N_3std2io5error14repr_bitpacked11decode_reprINtNtCse1nGBsou5OW_5alloc5boxed3BoxNtB4_6CustomENCNvXs1_B2_NtB2_4ReprNtNtNtCsfvfooZQ3Axs_4core3ops4drop4Drop4drop0ECs8jlTyMxP1WZ_17async_stream_impl, symObjAddr: 0x438, symBinAddr: 0xFF1C, symSize: 0x230 }
  - { offset: 0x36824, size: 0x8, addend: 0x0, symName: __RNvNtNtNtCscOYdFFY2T5N_3std2io5error14repr_bitpacked14kind_from_primCs8jlTyMxP1WZ_17async_stream_impl, symObjAddr: 0x27B8, symBinAddr: 0x1229C, symSize: 0x608 }
  - { offset: 0x3B869, size: 0x8, addend: 0x0, symName: __RNvXNtNtNtCsfvfooZQ3Axs_4core4iter6traits7collectINtNtCs6IAuOt8vWmF_3syn10punctuated8PairsMutNtNtBQ_2ty4TypeNtNtBQ_5token5CommaENtB2_12IntoIterator9into_iterCs8jlTyMxP1WZ_17async_stream_impl, symObjAddr: 0x2DC0, symBinAddr: 0x128A4, symSize: 0x18 }
  - { offset: 0x3B8A0, size: 0x8, addend: 0x0, symName: __RNvXNtNtNtCsfvfooZQ3Axs_4core4iter6traits7collectINtNtCs6IAuOt8vWmF_3syn10punctuated8PairsMutNtNtBQ_2ty9BareFnArgNtNtBQ_5token5CommaENtB2_12IntoIterator9into_iterCs8jlTyMxP1WZ_17async_stream_impl, symObjAddr: 0x2DD8, symBinAddr: 0x128BC, symSize: 0x18 }
  - { offset: 0x3B8D7, size: 0x8, addend: 0x0, symName: __RNvXNtNtNtCsfvfooZQ3Axs_4core4iter6traits7collectINtNtCs6IAuOt8vWmF_3syn10punctuated8PairsMutNtNtBQ_3pat3PatNtNtBQ_5token2OrENtB2_12IntoIterator9into_iterCs8jlTyMxP1WZ_17async_stream_impl, symObjAddr: 0x2DF0, symBinAddr: 0x128D4, symSize: 0x18 }
  - { offset: 0x3B90E, size: 0x8, addend: 0x0, symName: __RNvXNtNtNtCsfvfooZQ3Axs_4core4iter6traits7collectINtNtCs6IAuOt8vWmF_3syn10punctuated8PairsMutNtNtBQ_3pat3PatNtNtBQ_5token5CommaENtB2_12IntoIterator9into_iterCs8jlTyMxP1WZ_17async_stream_impl, symObjAddr: 0x2E08, symBinAddr: 0x128EC, symSize: 0x18 }
  - { offset: 0x3B945, size: 0x8, addend: 0x0, symName: __RNvXNtNtNtCsfvfooZQ3Axs_4core4iter6traits7collectINtNtCs6IAuOt8vWmF_3syn10punctuated8PairsMutNtNtBQ_3pat8FieldPatNtNtBQ_5token5CommaENtB2_12IntoIterator9into_iterCs8jlTyMxP1WZ_17async_stream_impl, symObjAddr: 0x2E20, symBinAddr: 0x12904, symSize: 0x18 }
  - { offset: 0x3B97C, size: 0x8, addend: 0x0, symName: __RNvXNtNtNtCsfvfooZQ3Axs_4core4iter6traits7collectINtNtCs6IAuOt8vWmF_3syn10punctuated8PairsMutNtNtBQ_4expr10FieldValueNtNtBQ_5token5CommaENtB2_12IntoIterator9into_iterCs8jlTyMxP1WZ_17async_stream_impl, symObjAddr: 0x2E38, symBinAddr: 0x1291C, symSize: 0x18 }
  - { offset: 0x3B9B3, size: 0x8, addend: 0x0, symName: __RNvXNtNtNtCsfvfooZQ3Axs_4core4iter6traits7collectINtNtCs6IAuOt8vWmF_3syn10punctuated8PairsMutNtNtBQ_4expr4ExprNtNtBQ_5token5CommaENtB2_12IntoIterator9into_iterCs8jlTyMxP1WZ_17async_stream_impl, symObjAddr: 0x2E50, symBinAddr: 0x12934, symSize: 0x18 }
  - { offset: 0x3B9EA, size: 0x8, addend: 0x0, symName: __RNvXNtNtNtCsfvfooZQ3Axs_4core4iter6traits7collectINtNtCs6IAuOt8vWmF_3syn10punctuated8PairsMutNtNtBQ_4path11PathSegmentNtNtBQ_5token7PathSepENtB2_12IntoIterator9into_iterCs8jlTyMxP1WZ_17async_stream_impl, symObjAddr: 0x2E68, symBinAddr: 0x1294C, symSize: 0x18 }
  - { offset: 0x3BA21, size: 0x8, addend: 0x0, symName: __RNvXNtNtNtCsfvfooZQ3Axs_4core4iter6traits7collectINtNtCs6IAuOt8vWmF_3syn10punctuated8PairsMutNtNtBQ_4path15GenericArgumentNtNtBQ_5token5CommaENtB2_12IntoIterator9into_iterCs8jlTyMxP1WZ_17async_stream_impl, symObjAddr: 0x2E80, symBinAddr: 0x12964, symSize: 0x18 }
  - { offset: 0x3BA58, size: 0x8, addend: 0x0, symName: __RNvXNtNtNtCsfvfooZQ3Axs_4core4iter6traits7collectINtNtCs6IAuOt8vWmF_3syn10punctuated8PairsMutNtNtBQ_8generics12GenericParamNtNtBQ_5token5CommaENtB2_12IntoIterator9into_iterCs8jlTyMxP1WZ_17async_stream_impl, symObjAddr: 0x2E98, symBinAddr: 0x1297C, symSize: 0x18 }
  - { offset: 0x3BA8F, size: 0x8, addend: 0x0, symName: __RNvXNtNtNtCsfvfooZQ3Axs_4core4iter6traits7collectINtNtCs6IAuOt8vWmF_3syn10punctuated8PairsMutNtNtBQ_8generics13CapturedParamNtNtBQ_5token5CommaENtB2_12IntoIterator9into_iterCs8jlTyMxP1WZ_17async_stream_impl, symObjAddr: 0x2EB0, symBinAddr: 0x12994, symSize: 0x18 }
  - { offset: 0x3BAC6, size: 0x8, addend: 0x0, symName: __RNvXNtNtNtCsfvfooZQ3Axs_4core4iter6traits7collectINtNtCs6IAuOt8vWmF_3syn10punctuated8PairsMutNtNtBQ_8generics14TypeParamBoundNtNtBQ_5token4PlusENtB2_12IntoIterator9into_iterCs8jlTyMxP1WZ_17async_stream_impl, symObjAddr: 0x2EC8, symBinAddr: 0x129AC, symSize: 0x18 }
  - { offset: 0x3BAFD, size: 0x8, addend: 0x0, symName: __RNvXNtNtNtCsfvfooZQ3Axs_4core4iter6traits7collectINtNtCs6IAuOt8vWmF_3syn10punctuated8PairsMutNtNtBQ_8lifetime8LifetimeNtNtBQ_5token4PlusENtB2_12IntoIterator9into_iterCs8jlTyMxP1WZ_17async_stream_impl, symObjAddr: 0x2EE0, symBinAddr: 0x129C4, symSize: 0x18 }
  - { offset: 0x3BC83, size: 0x8, addend: 0x0, symName: __RNCINvNtNtCs9i5KxIbZ5ph_10proc_macro6bridge6client10run_clientNtB4_11TokenStreamINtNtCsfvfooZQ3Axs_4core6option6OptionBY_ENCNCINvMs7_B4_INtB4_6ClientNtB8_11TokenStreamB2n_E7expand1NvCs8jlTyMxP1WZ_17async_stream_impl12stream_innerE00E0B2U_, symObjAddr: 0x710, symBinAddr: 0x101F4, symSize: 0x324 }
  - { offset: 0x3BEE6, size: 0x8, addend: 0x0, symName: __RNCINvNtNtCs9i5KxIbZ5ph_10proc_macro6bridge6client10run_clientNtB4_11TokenStreamINtNtCsfvfooZQ3Axs_4core6option6OptionBY_ENCNCINvMs7_B4_INtB4_6ClientNtB8_11TokenStreamB2n_E7expand1NvCs8jlTyMxP1WZ_17async_stream_impl16try_stream_innerE00E0B2U_, symObjAddr: 0xA34, symBinAddr: 0x10518, symSize: 0x324 }
  - { offset: 0x3C14E, size: 0x8, addend: 0x0, symName: __RNCNCINvNtNtCs9i5KxIbZ5ph_10proc_macro6bridge6client10run_clientNtB6_11TokenStreamINtNtCsfvfooZQ3Axs_4core6option6OptionB10_ENCNCINvMs7_B6_INtB6_6ClientNtBa_11TokenStreamB2q_E7expand1NvCs8jlTyMxP1WZ_17async_stream_impl12stream_innerE00E00B2X_, symObjAddr: 0xDB8, symBinAddr: 0x1089C, symSize: 0x28 }
  - { offset: 0x3C1A8, size: 0x8, addend: 0x0, symName: __RNCNCINvNtNtCs9i5KxIbZ5ph_10proc_macro6bridge6client10run_clientNtB6_11TokenStreamINtNtCsfvfooZQ3Axs_4core6option6OptionB10_ENCNCINvMs7_B6_INtB6_6ClientNtBa_11TokenStreamB2q_E7expand1NvCs8jlTyMxP1WZ_17async_stream_impl16try_stream_innerE00E00B2X_, symObjAddr: 0xDE0, symBinAddr: 0x108C4, symSize: 0x28 }
  - { offset: 0x3C239, size: 0x8, addend: 0x0, symName: __RNCNCINvMs7_NtNtCs9i5KxIbZ5ph_10proc_macro6bridge6clientINtBa_6ClientNtBe_11TokenStreamB15_E7expand1NvCs8jlTyMxP1WZ_17async_stream_impl12stream_innerE00B1C_, symObjAddr: 0xD58, symBinAddr: 0x1083C, symSize: 0x30 }
  - { offset: 0x3C281, size: 0x8, addend: 0x0, symName: __RNCNCINvMs7_NtNtCs9i5KxIbZ5ph_10proc_macro6bridge6clientINtBa_6ClientNtBe_11TokenStreamB15_E7expand1NvCs8jlTyMxP1WZ_17async_stream_impl16try_stream_innerE00B1C_, symObjAddr: 0xD88, symBinAddr: 0x1086C, symSize: 0x30 }
  - { offset: 0x3C2CA, size: 0x8, addend: 0x0, symName: __RNCINvMs7_NtNtCs9i5KxIbZ5ph_10proc_macro6bridge6clientINtB8_6ClientNtBc_11TokenStreamB13_E7expand1NvCs8jlTyMxP1WZ_17async_stream_impl12stream_innerE0B1A_, symObjAddr: 0x6B0, symBinAddr: 0x10194, symSize: 0x30 }
  - { offset: 0x3C313, size: 0x8, addend: 0x0, symName: __RNCINvMs7_NtNtCs9i5KxIbZ5ph_10proc_macro6bridge6clientINtB8_6ClientNtBc_11TokenStreamB13_E7expand1NvCs8jlTyMxP1WZ_17async_stream_impl16try_stream_innerE0B1A_, symObjAddr: 0x6E0, symBinAddr: 0x101C4, symSize: 0x30 }
  - { offset: 0x3C37F, size: 0x8, addend: 0x0, symName: __RINvNtNtCs9i5KxIbZ5ph_10proc_macro6bridge6client10run_clientNtB2_11TokenStreamINtNtCsfvfooZQ3Axs_4core6option6OptionBW_ENCNCINvMs7_B2_INtB2_6ClientNtB6_11TokenStreamB2l_E7expand1NvCs8jlTyMxP1WZ_17async_stream_impl12stream_innerE00EB2S_, symObjAddr: 0x0, symBinAddr: 0xFAE4, symSize: 0x21C }
  - { offset: 0x3C53F, size: 0x8, addend: 0x0, symName: __RINvNtNtCs9i5KxIbZ5ph_10proc_macro6bridge6client10run_clientNtB2_11TokenStreamINtNtCsfvfooZQ3Axs_4core6option6OptionBW_ENCNCINvMs7_B2_INtB2_6ClientNtB6_11TokenStreamB2l_E7expand1NvCs8jlTyMxP1WZ_17async_stream_impl16try_stream_innerE00EB2S_, symObjAddr: 0x21C, symBinAddr: 0xFD00, symSize: 0x21C }
  - { offset: 0x3C752, size: 0x8, addend: 0x0, symName: __RNvXsg_NtNtCs9i5KxIbZ5ph_10proc_macro6bridge6clientNtB5_11TokenStreamINtNtB7_3rpc6EncodeuE6encodeCs8jlTyMxP1WZ_17async_stream_impl, symObjAddr: 0x37F8, symBinAddr: 0x132DC, symSize: 0x50 }
  - { offset: 0x3C863, size: 0x8, addend: 0x0, symName: __RNvXsj_NtNtCs9i5KxIbZ5ph_10proc_macro6bridge6clientNtB5_11TokenStreamINtNtB7_3rpc9DecodeMutuE6decodeCs8jlTyMxP1WZ_17async_stream_impl, symObjAddr: 0x3848, symBinAddr: 0x1332C, symSize: 0x2C }
  - { offset: 0x3C8AC, size: 0x8, addend: 0x0, symName: __RNvXsq_NtNtCs9i5KxIbZ5ph_10proc_macro6bridge6clientNtB5_4SpanINtNtB7_3rpc9DecodeMutuE6decodeCs8jlTyMxP1WZ_17async_stream_impl, symObjAddr: 0x3874, symBinAddr: 0x13358, symSize: 0x2C }
  - { offset: 0x3D639, size: 0x8, addend: 0x0, symName: __RINvXsh_NtCse1nGBsou5OW_5alloc3vecINtB6_3VecNtCs3cP53eQoTwO_11proc_macro29TokenTreeEINtNtNtNtCsfvfooZQ3Axs_4core4iter6traits7collect6ExtendBG_E6extendNtBI_11TokenStreamECs8jlTyMxP1WZ_17async_stream_impl, symObjAddr: 0x668, symBinAddr: 0x1014C, symSize: 0x48 }
  - { offset: 0x3E16D, size: 0x8, addend: 0x0, symName: __RNvXs6_NtCse1nGBsou5OW_5alloc3vecINtB5_3VecNtNtCs6IAuOt8vWmF_3syn4stmt4StmtENtNtNtCsfvfooZQ3Axs_4core3ops5deref5Deref5derefCs8jlTyMxP1WZ_17async_stream_impl, symObjAddr: 0x2F68, symBinAddr: 0x12A4C, symSize: 0x24 }
  - { offset: 0x3E1E3, size: 0x8, addend: 0x0, symName: __RNvXs7_NtCse1nGBsou5OW_5alloc3vecINtB5_3VecTNtNtCs6IAuOt8vWmF_3syn2ty4TypeNtNtBK_5token5CommaEENtNtNtCsfvfooZQ3Axs_4core3ops5deref8DerefMut9deref_mutCs8jlTyMxP1WZ_17async_stream_impl, symObjAddr: 0x2F8C, symBinAddr: 0x12A70, symSize: 0x24 }
  - { offset: 0x3E223, size: 0x8, addend: 0x0, symName: __RNvXs7_NtCse1nGBsou5OW_5alloc3vecINtB5_3VecTNtNtCs6IAuOt8vWmF_3syn2ty9BareFnArgNtNtBK_5token5CommaEENtNtNtCsfvfooZQ3Axs_4core3ops5deref8DerefMut9deref_mutCs8jlTyMxP1WZ_17async_stream_impl, symObjAddr: 0x2FB0, symBinAddr: 0x12A94, symSize: 0x24 }
  - { offset: 0x3E263, size: 0x8, addend: 0x0, symName: __RNvXs7_NtCse1nGBsou5OW_5alloc3vecINtB5_3VecTNtNtCs6IAuOt8vWmF_3syn3pat3PatNtNtBK_5token2OrEENtNtNtCsfvfooZQ3Axs_4core3ops5deref8DerefMut9deref_mutCs8jlTyMxP1WZ_17async_stream_impl, symObjAddr: 0x2FD4, symBinAddr: 0x12AB8, symSize: 0x24 }
  - { offset: 0x3E2A3, size: 0x8, addend: 0x0, symName: __RNvXs7_NtCse1nGBsou5OW_5alloc3vecINtB5_3VecTNtNtCs6IAuOt8vWmF_3syn3pat3PatNtNtBK_5token5CommaEENtNtNtCsfvfooZQ3Axs_4core3ops5deref8DerefMut9deref_mutCs8jlTyMxP1WZ_17async_stream_impl, symObjAddr: 0x2FF8, symBinAddr: 0x12ADC, symSize: 0x24 }
  - { offset: 0x3E2E3, size: 0x8, addend: 0x0, symName: __RNvXs7_NtCse1nGBsou5OW_5alloc3vecINtB5_3VecTNtNtCs6IAuOt8vWmF_3syn3pat8FieldPatNtNtBK_5token5CommaEENtNtNtCsfvfooZQ3Axs_4core3ops5deref8DerefMut9deref_mutCs8jlTyMxP1WZ_17async_stream_impl, symObjAddr: 0x301C, symBinAddr: 0x12B00, symSize: 0x24 }
  - { offset: 0x3E323, size: 0x8, addend: 0x0, symName: __RNvXs7_NtCse1nGBsou5OW_5alloc3vecINtB5_3VecTNtNtCs6IAuOt8vWmF_3syn4expr10FieldValueNtNtBK_5token5CommaEENtNtNtCsfvfooZQ3Axs_4core3ops5deref8DerefMut9deref_mutCs8jlTyMxP1WZ_17async_stream_impl, symObjAddr: 0x3040, symBinAddr: 0x12B24, symSize: 0x24 }
  - { offset: 0x3E363, size: 0x8, addend: 0x0, symName: __RNvXs7_NtCse1nGBsou5OW_5alloc3vecINtB5_3VecTNtNtCs6IAuOt8vWmF_3syn4expr4ExprNtNtBK_5token5CommaEENtNtNtCsfvfooZQ3Axs_4core3ops5deref8DerefMut9deref_mutCs8jlTyMxP1WZ_17async_stream_impl, symObjAddr: 0x3064, symBinAddr: 0x12B48, symSize: 0x24 }
  - { offset: 0x3E3A3, size: 0x8, addend: 0x0, symName: __RNvXs7_NtCse1nGBsou5OW_5alloc3vecINtB5_3VecTNtNtCs6IAuOt8vWmF_3syn4path15GenericArgumentNtNtBK_5token5CommaEENtNtNtCsfvfooZQ3Axs_4core3ops5deref8DerefMut9deref_mutCs8jlTyMxP1WZ_17async_stream_impl, symObjAddr: 0x3088, symBinAddr: 0x12B6C, symSize: 0x24 }
  - { offset: 0x3E3E3, size: 0x8, addend: 0x0, symName: __RNvXs7_NtCse1nGBsou5OW_5alloc3vecINtB5_3VecTNtNtCs6IAuOt8vWmF_3syn8generics13CapturedParamNtNtBK_5token5CommaEENtNtNtCsfvfooZQ3Axs_4core3ops5deref8DerefMut9deref_mutCs8jlTyMxP1WZ_17async_stream_impl, symObjAddr: 0x30AC, symBinAddr: 0x12B90, symSize: 0x24 }
  - { offset: 0x3E423, size: 0x8, addend: 0x0, symName: __RNvXs7_NtCse1nGBsou5OW_5alloc3vecINtB5_3VecTNtNtCs6IAuOt8vWmF_3syn8generics14TypeParamBoundNtNtBK_5token4PlusEENtNtNtCsfvfooZQ3Axs_4core3ops5deref8DerefMut9deref_mutCs8jlTyMxP1WZ_17async_stream_impl, symObjAddr: 0x30D0, symBinAddr: 0x12BB4, symSize: 0x24 }
  - { offset: 0x3E463, size: 0x8, addend: 0x0, symName: __RNvXs7_NtCse1nGBsou5OW_5alloc3vecINtB5_3VecTNtNtCs6IAuOt8vWmF_3syn8lifetime8LifetimeNtNtBK_5token4PlusEENtNtNtCsfvfooZQ3Axs_4core3ops5deref8DerefMut9deref_mutCs8jlTyMxP1WZ_17async_stream_impl, symObjAddr: 0x30F4, symBinAddr: 0x12BD8, symSize: 0x24 }
  - { offset: 0x3E539, size: 0x8, addend: 0x0, symName: __RNvXsb_NtCse1nGBsou5OW_5alloc3vecINtB5_3VecNtNtCs6IAuOt8vWmF_3syn4attr9AttributeEINtNtNtCsfvfooZQ3Axs_4core3ops5index5IndexjE5indexCs8jlTyMxP1WZ_17async_stream_impl, symObjAddr: 0x3118, symBinAddr: 0x12BFC, symSize: 0x84 }
  - { offset: 0x3E6C1, size: 0x8, addend: 0x0, symName: __RNvXsg_NtCse1nGBsou5OW_5alloc3vecQINtB5_3VecNtNtCs6IAuOt8vWmF_3syn4attr9AttributeENtNtNtNtCsfvfooZQ3Axs_4core4iter6traits7collect12IntoIterator9into_iterCs8jlTyMxP1WZ_17async_stream_impl, symObjAddr: 0x3614, symBinAddr: 0x130F8, symSize: 0x9C }
  - { offset: 0x3E8EF, size: 0x8, addend: 0x0, symName: __RNvXsg_NtCse1nGBsou5OW_5alloc3vecQINtB5_3VecNtNtCs6IAuOt8vWmF_3syn4expr3ArmENtNtNtNtCsfvfooZQ3Axs_4core4iter6traits7collect12IntoIterator9into_iterCs8jlTyMxP1WZ_17async_stream_impl, symObjAddr: 0x36B0, symBinAddr: 0x13194, symSize: 0xA4 }
  - { offset: 0x3EB1D, size: 0x8, addend: 0x0, symName: __RNvXsg_NtCse1nGBsou5OW_5alloc3vecQINtB5_3VecNtNtCs6IAuOt8vWmF_3syn4stmt4StmtENtNtNtNtCsfvfooZQ3Axs_4core4iter6traits7collect12IntoIterator9into_iterCs8jlTyMxP1WZ_17async_stream_impl, symObjAddr: 0x3754, symBinAddr: 0x13238, symSize: 0xA4 }
  - { offset: 0x3FFF0, size: 0x8, addend: 0x0, symName: __RNCNvXsg_NtCs6IAuOt8vWmF_3syn10punctuatedINtB7_8PairsMutNtNtB9_2ty4TypeNtNtB9_5token5CommaENtNtNtNtCsfvfooZQ3Axs_4core4iter6traits8iterator8Iterator4next0Cs8jlTyMxP1WZ_17async_stream_impl, symObjAddr: 0xE3C, symBinAddr: 0x10920, symSize: 0x40 }
  - { offset: 0x40065, size: 0x8, addend: 0x0, symName: __RNCNvXsg_NtCs6IAuOt8vWmF_3syn10punctuatedINtB7_8PairsMutNtNtB9_2ty4TypeNtNtB9_5token5CommaENtNtNtNtCsfvfooZQ3Axs_4core4iter6traits8iterator8Iterator4nexts_0Cs8jlTyMxP1WZ_17async_stream_impl, symObjAddr: 0xE7C, symBinAddr: 0x10960, symSize: 0x40 }
  - { offset: 0x400A7, size: 0x8, addend: 0x0, symName: __RNCNvXsg_NtCs6IAuOt8vWmF_3syn10punctuatedINtB7_8PairsMutNtNtB9_2ty9BareFnArgNtNtB9_5token5CommaENtNtNtNtCsfvfooZQ3Axs_4core4iter6traits8iterator8Iterator4next0Cs8jlTyMxP1WZ_17async_stream_impl, symObjAddr: 0xEBC, symBinAddr: 0x109A0, symSize: 0x40 }
  - { offset: 0x4011C, size: 0x8, addend: 0x0, symName: __RNCNvXsg_NtCs6IAuOt8vWmF_3syn10punctuatedINtB7_8PairsMutNtNtB9_2ty9BareFnArgNtNtB9_5token5CommaENtNtNtNtCsfvfooZQ3Axs_4core4iter6traits8iterator8Iterator4nexts_0Cs8jlTyMxP1WZ_17async_stream_impl, symObjAddr: 0xEFC, symBinAddr: 0x109E0, symSize: 0x40 }
  - { offset: 0x4015E, size: 0x8, addend: 0x0, symName: __RNCNvXsg_NtCs6IAuOt8vWmF_3syn10punctuatedINtB7_8PairsMutNtNtB9_3pat3PatNtNtB9_5token2OrENtNtNtNtCsfvfooZQ3Axs_4core4iter6traits8iterator8Iterator4next0Cs8jlTyMxP1WZ_17async_stream_impl, symObjAddr: 0xF3C, symBinAddr: 0x10A20, symSize: 0x40 }
  - { offset: 0x401D3, size: 0x8, addend: 0x0, symName: __RNCNvXsg_NtCs6IAuOt8vWmF_3syn10punctuatedINtB7_8PairsMutNtNtB9_3pat3PatNtNtB9_5token2OrENtNtNtNtCsfvfooZQ3Axs_4core4iter6traits8iterator8Iterator4nexts_0Cs8jlTyMxP1WZ_17async_stream_impl, symObjAddr: 0xF7C, symBinAddr: 0x10A60, symSize: 0x40 }
  - { offset: 0x40215, size: 0x8, addend: 0x0, symName: __RNCNvXsg_NtCs6IAuOt8vWmF_3syn10punctuatedINtB7_8PairsMutNtNtB9_3pat3PatNtNtB9_5token5CommaENtNtNtNtCsfvfooZQ3Axs_4core4iter6traits8iterator8Iterator4next0Cs8jlTyMxP1WZ_17async_stream_impl, symObjAddr: 0xFBC, symBinAddr: 0x10AA0, symSize: 0x40 }
  - { offset: 0x4028A, size: 0x8, addend: 0x0, symName: __RNCNvXsg_NtCs6IAuOt8vWmF_3syn10punctuatedINtB7_8PairsMutNtNtB9_3pat3PatNtNtB9_5token5CommaENtNtNtNtCsfvfooZQ3Axs_4core4iter6traits8iterator8Iterator4nexts_0Cs8jlTyMxP1WZ_17async_stream_impl, symObjAddr: 0xFFC, symBinAddr: 0x10AE0, symSize: 0x40 }
  - { offset: 0x402CC, size: 0x8, addend: 0x0, symName: __RNCNvXsg_NtCs6IAuOt8vWmF_3syn10punctuatedINtB7_8PairsMutNtNtB9_3pat8FieldPatNtNtB9_5token5CommaENtNtNtNtCsfvfooZQ3Axs_4core4iter6traits8iterator8Iterator4next0Cs8jlTyMxP1WZ_17async_stream_impl, symObjAddr: 0x103C, symBinAddr: 0x10B20, symSize: 0x40 }
  - { offset: 0x40341, size: 0x8, addend: 0x0, symName: __RNCNvXsg_NtCs6IAuOt8vWmF_3syn10punctuatedINtB7_8PairsMutNtNtB9_3pat8FieldPatNtNtB9_5token5CommaENtNtNtNtCsfvfooZQ3Axs_4core4iter6traits8iterator8Iterator4nexts_0Cs8jlTyMxP1WZ_17async_stream_impl, symObjAddr: 0x107C, symBinAddr: 0x10B60, symSize: 0x40 }
  - { offset: 0x40383, size: 0x8, addend: 0x0, symName: __RNCNvXsg_NtCs6IAuOt8vWmF_3syn10punctuatedINtB7_8PairsMutNtNtB9_4expr10FieldValueNtNtB9_5token5CommaENtNtNtNtCsfvfooZQ3Axs_4core4iter6traits8iterator8Iterator4next0Cs8jlTyMxP1WZ_17async_stream_impl, symObjAddr: 0x10BC, symBinAddr: 0x10BA0, symSize: 0x40 }
  - { offset: 0x403F8, size: 0x8, addend: 0x0, symName: __RNCNvXsg_NtCs6IAuOt8vWmF_3syn10punctuatedINtB7_8PairsMutNtNtB9_4expr10FieldValueNtNtB9_5token5CommaENtNtNtNtCsfvfooZQ3Axs_4core4iter6traits8iterator8Iterator4nexts_0Cs8jlTyMxP1WZ_17async_stream_impl, symObjAddr: 0x10FC, symBinAddr: 0x10BE0, symSize: 0x40 }
  - { offset: 0x4043A, size: 0x8, addend: 0x0, symName: __RNCNvXsg_NtCs6IAuOt8vWmF_3syn10punctuatedINtB7_8PairsMutNtNtB9_4expr4ExprNtNtB9_5token5CommaENtNtNtNtCsfvfooZQ3Axs_4core4iter6traits8iterator8Iterator4next0Cs8jlTyMxP1WZ_17async_stream_impl, symObjAddr: 0x113C, symBinAddr: 0x10C20, symSize: 0x40 }
  - { offset: 0x404AF, size: 0x8, addend: 0x0, symName: __RNCNvXsg_NtCs6IAuOt8vWmF_3syn10punctuatedINtB7_8PairsMutNtNtB9_4expr4ExprNtNtB9_5token5CommaENtNtNtNtCsfvfooZQ3Axs_4core4iter6traits8iterator8Iterator4nexts_0Cs8jlTyMxP1WZ_17async_stream_impl, symObjAddr: 0x117C, symBinAddr: 0x10C60, symSize: 0x40 }
  - { offset: 0x404F1, size: 0x8, addend: 0x0, symName: __RNCNvXsg_NtCs6IAuOt8vWmF_3syn10punctuatedINtB7_8PairsMutNtNtB9_4path11PathSegmentNtNtB9_5token7PathSepENtNtNtNtCsfvfooZQ3Axs_4core4iter6traits8iterator8Iterator4next0Cs8jlTyMxP1WZ_17async_stream_impl, symObjAddr: 0x11BC, symBinAddr: 0x10CA0, symSize: 0x40 }
  - { offset: 0x40566, size: 0x8, addend: 0x0, symName: __RNCNvXsg_NtCs6IAuOt8vWmF_3syn10punctuatedINtB7_8PairsMutNtNtB9_4path11PathSegmentNtNtB9_5token7PathSepENtNtNtNtCsfvfooZQ3Axs_4core4iter6traits8iterator8Iterator4nexts_0Cs8jlTyMxP1WZ_17async_stream_impl, symObjAddr: 0x11FC, symBinAddr: 0x10CE0, symSize: 0x40 }
  - { offset: 0x405A8, size: 0x8, addend: 0x0, symName: __RNCNvXsg_NtCs6IAuOt8vWmF_3syn10punctuatedINtB7_8PairsMutNtNtB9_4path15GenericArgumentNtNtB9_5token5CommaENtNtNtNtCsfvfooZQ3Axs_4core4iter6traits8iterator8Iterator4next0Cs8jlTyMxP1WZ_17async_stream_impl, symObjAddr: 0x123C, symBinAddr: 0x10D20, symSize: 0x40 }
  - { offset: 0x4061D, size: 0x8, addend: 0x0, symName: __RNCNvXsg_NtCs6IAuOt8vWmF_3syn10punctuatedINtB7_8PairsMutNtNtB9_4path15GenericArgumentNtNtB9_5token5CommaENtNtNtNtCsfvfooZQ3Axs_4core4iter6traits8iterator8Iterator4nexts_0Cs8jlTyMxP1WZ_17async_stream_impl, symObjAddr: 0x127C, symBinAddr: 0x10D60, symSize: 0x40 }
  - { offset: 0x4065F, size: 0x8, addend: 0x0, symName: __RNCNvXsg_NtCs6IAuOt8vWmF_3syn10punctuatedINtB7_8PairsMutNtNtB9_8generics12GenericParamNtNtB9_5token5CommaENtNtNtNtCsfvfooZQ3Axs_4core4iter6traits8iterator8Iterator4next0Cs8jlTyMxP1WZ_17async_stream_impl, symObjAddr: 0x12BC, symBinAddr: 0x10DA0, symSize: 0x40 }
  - { offset: 0x406D4, size: 0x8, addend: 0x0, symName: __RNCNvXsg_NtCs6IAuOt8vWmF_3syn10punctuatedINtB7_8PairsMutNtNtB9_8generics12GenericParamNtNtB9_5token5CommaENtNtNtNtCsfvfooZQ3Axs_4core4iter6traits8iterator8Iterator4nexts_0Cs8jlTyMxP1WZ_17async_stream_impl, symObjAddr: 0x12FC, symBinAddr: 0x10DE0, symSize: 0x40 }
  - { offset: 0x40716, size: 0x8, addend: 0x0, symName: __RNCNvXsg_NtCs6IAuOt8vWmF_3syn10punctuatedINtB7_8PairsMutNtNtB9_8generics13CapturedParamNtNtB9_5token5CommaENtNtNtNtCsfvfooZQ3Axs_4core4iter6traits8iterator8Iterator4next0Cs8jlTyMxP1WZ_17async_stream_impl, symObjAddr: 0x133C, symBinAddr: 0x10E20, symSize: 0x40 }
  - { offset: 0x4078B, size: 0x8, addend: 0x0, symName: __RNCNvXsg_NtCs6IAuOt8vWmF_3syn10punctuatedINtB7_8PairsMutNtNtB9_8generics13CapturedParamNtNtB9_5token5CommaENtNtNtNtCsfvfooZQ3Axs_4core4iter6traits8iterator8Iterator4nexts_0Cs8jlTyMxP1WZ_17async_stream_impl, symObjAddr: 0x137C, symBinAddr: 0x10E60, symSize: 0x40 }
  - { offset: 0x407CD, size: 0x8, addend: 0x0, symName: __RNCNvXsg_NtCs6IAuOt8vWmF_3syn10punctuatedINtB7_8PairsMutNtNtB9_8generics14TypeParamBoundNtNtB9_5token4PlusENtNtNtNtCsfvfooZQ3Axs_4core4iter6traits8iterator8Iterator4next0Cs8jlTyMxP1WZ_17async_stream_impl, symObjAddr: 0x13BC, symBinAddr: 0x10EA0, symSize: 0x40 }
  - { offset: 0x40842, size: 0x8, addend: 0x0, symName: __RNCNvXsg_NtCs6IAuOt8vWmF_3syn10punctuatedINtB7_8PairsMutNtNtB9_8generics14TypeParamBoundNtNtB9_5token4PlusENtNtNtNtCsfvfooZQ3Axs_4core4iter6traits8iterator8Iterator4nexts_0Cs8jlTyMxP1WZ_17async_stream_impl, symObjAddr: 0x13FC, symBinAddr: 0x10EE0, symSize: 0x40 }
  - { offset: 0x40884, size: 0x8, addend: 0x0, symName: __RNCNvXsg_NtCs6IAuOt8vWmF_3syn10punctuatedINtB7_8PairsMutNtNtB9_8lifetime8LifetimeNtNtB9_5token4PlusENtNtNtNtCsfvfooZQ3Axs_4core4iter6traits8iterator8Iterator4next0Cs8jlTyMxP1WZ_17async_stream_impl, symObjAddr: 0x143C, symBinAddr: 0x10F20, symSize: 0x40 }
  - { offset: 0x408F9, size: 0x8, addend: 0x0, symName: __RNCNvXsg_NtCs6IAuOt8vWmF_3syn10punctuatedINtB7_8PairsMutNtNtB9_8lifetime8LifetimeNtNtB9_5token4PlusENtNtNtNtCsfvfooZQ3Axs_4core4iter6traits8iterator8Iterator4nexts_0Cs8jlTyMxP1WZ_17async_stream_impl, symObjAddr: 0x147C, symBinAddr: 0x10F60, symSize: 0x40 }
  - { offset: 0x40997, size: 0x8, addend: 0x0, symName: __RNvXsg_NtCs6IAuOt8vWmF_3syn10punctuatedINtB5_8PairsMutNtNtB7_2ty4TypeNtNtB7_5token5CommaENtNtNtNtCsfvfooZQ3Axs_4core4iter6traits8iterator8Iterator4nextCs8jlTyMxP1WZ_17async_stream_impl, symObjAddr: 0x319C, symBinAddr: 0x12C80, symSize: 0x58 }
  - { offset: 0x409D7, size: 0x8, addend: 0x0, symName: __RNvXsg_NtCs6IAuOt8vWmF_3syn10punctuatedINtB5_8PairsMutNtNtB7_2ty9BareFnArgNtNtB7_5token5CommaENtNtNtNtCsfvfooZQ3Axs_4core4iter6traits8iterator8Iterator4nextCs8jlTyMxP1WZ_17async_stream_impl, symObjAddr: 0x31F4, symBinAddr: 0x12CD8, symSize: 0x58 }
  - { offset: 0x40A17, size: 0x8, addend: 0x0, symName: __RNvXsg_NtCs6IAuOt8vWmF_3syn10punctuatedINtB5_8PairsMutNtNtB7_3pat3PatNtNtB7_5token2OrENtNtNtNtCsfvfooZQ3Axs_4core4iter6traits8iterator8Iterator4nextCs8jlTyMxP1WZ_17async_stream_impl, symObjAddr: 0x324C, symBinAddr: 0x12D30, symSize: 0x58 }
  - { offset: 0x40A57, size: 0x8, addend: 0x0, symName: __RNvXsg_NtCs6IAuOt8vWmF_3syn10punctuatedINtB5_8PairsMutNtNtB7_3pat3PatNtNtB7_5token5CommaENtNtNtNtCsfvfooZQ3Axs_4core4iter6traits8iterator8Iterator4nextCs8jlTyMxP1WZ_17async_stream_impl, symObjAddr: 0x32A4, symBinAddr: 0x12D88, symSize: 0x58 }
  - { offset: 0x40A97, size: 0x8, addend: 0x0, symName: __RNvXsg_NtCs6IAuOt8vWmF_3syn10punctuatedINtB5_8PairsMutNtNtB7_3pat8FieldPatNtNtB7_5token5CommaENtNtNtNtCsfvfooZQ3Axs_4core4iter6traits8iterator8Iterator4nextCs8jlTyMxP1WZ_17async_stream_impl, symObjAddr: 0x32FC, symBinAddr: 0x12DE0, symSize: 0x58 }
  - { offset: 0x40AD7, size: 0x8, addend: 0x0, symName: __RNvXsg_NtCs6IAuOt8vWmF_3syn10punctuatedINtB5_8PairsMutNtNtB7_4expr10FieldValueNtNtB7_5token5CommaENtNtNtNtCsfvfooZQ3Axs_4core4iter6traits8iterator8Iterator4nextCs8jlTyMxP1WZ_17async_stream_impl, symObjAddr: 0x3354, symBinAddr: 0x12E38, symSize: 0x58 }
  - { offset: 0x40B17, size: 0x8, addend: 0x0, symName: __RNvXsg_NtCs6IAuOt8vWmF_3syn10punctuatedINtB5_8PairsMutNtNtB7_4expr4ExprNtNtB7_5token5CommaENtNtNtNtCsfvfooZQ3Axs_4core4iter6traits8iterator8Iterator4nextCs8jlTyMxP1WZ_17async_stream_impl, symObjAddr: 0x33AC, symBinAddr: 0x12E90, symSize: 0x58 }
  - { offset: 0x40B57, size: 0x8, addend: 0x0, symName: __RNvXsg_NtCs6IAuOt8vWmF_3syn10punctuatedINtB5_8PairsMutNtNtB7_4path11PathSegmentNtNtB7_5token7PathSepENtNtNtNtCsfvfooZQ3Axs_4core4iter6traits8iterator8Iterator4nextCs8jlTyMxP1WZ_17async_stream_impl, symObjAddr: 0x3404, symBinAddr: 0x12EE8, symSize: 0x58 }
  - { offset: 0x40B97, size: 0x8, addend: 0x0, symName: __RNvXsg_NtCs6IAuOt8vWmF_3syn10punctuatedINtB5_8PairsMutNtNtB7_4path15GenericArgumentNtNtB7_5token5CommaENtNtNtNtCsfvfooZQ3Axs_4core4iter6traits8iterator8Iterator4nextCs8jlTyMxP1WZ_17async_stream_impl, symObjAddr: 0x345C, symBinAddr: 0x12F40, symSize: 0x58 }
  - { offset: 0x40BD7, size: 0x8, addend: 0x0, symName: __RNvXsg_NtCs6IAuOt8vWmF_3syn10punctuatedINtB5_8PairsMutNtNtB7_8generics12GenericParamNtNtB7_5token5CommaENtNtNtNtCsfvfooZQ3Axs_4core4iter6traits8iterator8Iterator4nextCs8jlTyMxP1WZ_17async_stream_impl, symObjAddr: 0x34B4, symBinAddr: 0x12F98, symSize: 0x58 }
  - { offset: 0x40C17, size: 0x8, addend: 0x0, symName: __RNvXsg_NtCs6IAuOt8vWmF_3syn10punctuatedINtB5_8PairsMutNtNtB7_8generics13CapturedParamNtNtB7_5token5CommaENtNtNtNtCsfvfooZQ3Axs_4core4iter6traits8iterator8Iterator4nextCs8jlTyMxP1WZ_17async_stream_impl, symObjAddr: 0x350C, symBinAddr: 0x12FF0, symSize: 0x58 }
  - { offset: 0x40C57, size: 0x8, addend: 0x0, symName: __RNvXsg_NtCs6IAuOt8vWmF_3syn10punctuatedINtB5_8PairsMutNtNtB7_8generics14TypeParamBoundNtNtB7_5token4PlusENtNtNtNtCsfvfooZQ3Axs_4core4iter6traits8iterator8Iterator4nextCs8jlTyMxP1WZ_17async_stream_impl, symObjAddr: 0x3564, symBinAddr: 0x13048, symSize: 0x58 }
  - { offset: 0x40C97, size: 0x8, addend: 0x0, symName: __RNvXsg_NtCs6IAuOt8vWmF_3syn10punctuatedINtB5_8PairsMutNtNtB7_8lifetime8LifetimeNtNtB7_5token4PlusENtNtNtNtCsfvfooZQ3Axs_4core4iter6traits8iterator8Iterator4nextCs8jlTyMxP1WZ_17async_stream_impl, symObjAddr: 0x35BC, symBinAddr: 0x130A0, symSize: 0x58 }
  - { offset: 0x40CE2, size: 0x8, addend: 0x0, symName: __RNcNtINtNtCs6IAuOt8vWmF_3syn10punctuated4PairQNtNtB8_2ty4TypeQNtNtB8_5token5CommaE3End0Cs8jlTyMxP1WZ_17async_stream_impl, symObjAddr: 0x14BC, symBinAddr: 0x10FA0, symSize: 0x1C }
  - { offset: 0x40D1E, size: 0x8, addend: 0x0, symName: __RNcNtINtNtCs6IAuOt8vWmF_3syn10punctuated4PairQNtNtB8_2ty9BareFnArgQNtNtB8_5token5CommaE3End0Cs8jlTyMxP1WZ_17async_stream_impl, symObjAddr: 0x14D8, symBinAddr: 0x10FBC, symSize: 0x1C }
  - { offset: 0x40D5A, size: 0x8, addend: 0x0, symName: __RNcNtINtNtCs6IAuOt8vWmF_3syn10punctuated4PairQNtNtB8_3pat3PatQNtNtB8_5token2OrE3End0Cs8jlTyMxP1WZ_17async_stream_impl, symObjAddr: 0x14F4, symBinAddr: 0x10FD8, symSize: 0x1C }
  - { offset: 0x40D96, size: 0x8, addend: 0x0, symName: __RNcNtINtNtCs6IAuOt8vWmF_3syn10punctuated4PairQNtNtB8_3pat3PatQNtNtB8_5token5CommaE3End0Cs8jlTyMxP1WZ_17async_stream_impl, symObjAddr: 0x1510, symBinAddr: 0x10FF4, symSize: 0x1C }
  - { offset: 0x40DD2, size: 0x8, addend: 0x0, symName: __RNcNtINtNtCs6IAuOt8vWmF_3syn10punctuated4PairQNtNtB8_3pat8FieldPatQNtNtB8_5token5CommaE3End0Cs8jlTyMxP1WZ_17async_stream_impl, symObjAddr: 0x152C, symBinAddr: 0x11010, symSize: 0x1C }
  - { offset: 0x40E0E, size: 0x8, addend: 0x0, symName: __RNcNtINtNtCs6IAuOt8vWmF_3syn10punctuated4PairQNtNtB8_4expr10FieldValueQNtNtB8_5token5CommaE3End0Cs8jlTyMxP1WZ_17async_stream_impl, symObjAddr: 0x1548, symBinAddr: 0x1102C, symSize: 0x1C }
  - { offset: 0x40E4A, size: 0x8, addend: 0x0, symName: __RNcNtINtNtCs6IAuOt8vWmF_3syn10punctuated4PairQNtNtB8_4expr4ExprQNtNtB8_5token5CommaE3End0Cs8jlTyMxP1WZ_17async_stream_impl, symObjAddr: 0x1564, symBinAddr: 0x11048, symSize: 0x1C }
  - { offset: 0x40E86, size: 0x8, addend: 0x0, symName: __RNcNtINtNtCs6IAuOt8vWmF_3syn10punctuated4PairQNtNtB8_4path11PathSegmentQNtNtB8_5token7PathSepE3End0Cs8jlTyMxP1WZ_17async_stream_impl, symObjAddr: 0x1580, symBinAddr: 0x11064, symSize: 0x1C }
  - { offset: 0x40EC2, size: 0x8, addend: 0x0, symName: __RNcNtINtNtCs6IAuOt8vWmF_3syn10punctuated4PairQNtNtB8_4path15GenericArgumentQNtNtB8_5token5CommaE3End0Cs8jlTyMxP1WZ_17async_stream_impl, symObjAddr: 0x159C, symBinAddr: 0x11080, symSize: 0x1C }
  - { offset: 0x40EFE, size: 0x8, addend: 0x0, symName: __RNcNtINtNtCs6IAuOt8vWmF_3syn10punctuated4PairQNtNtB8_8generics12GenericParamQNtNtB8_5token5CommaE3End0Cs8jlTyMxP1WZ_17async_stream_impl, symObjAddr: 0x15B8, symBinAddr: 0x1109C, symSize: 0x1C }
  - { offset: 0x40F3A, size: 0x8, addend: 0x0, symName: __RNcNtINtNtCs6IAuOt8vWmF_3syn10punctuated4PairQNtNtB8_8generics13CapturedParamQNtNtB8_5token5CommaE3End0Cs8jlTyMxP1WZ_17async_stream_impl, symObjAddr: 0x15D4, symBinAddr: 0x110B8, symSize: 0x1C }
  - { offset: 0x40F76, size: 0x8, addend: 0x0, symName: __RNcNtINtNtCs6IAuOt8vWmF_3syn10punctuated4PairQNtNtB8_8generics14TypeParamBoundQNtNtB8_5token4PlusE3End0Cs8jlTyMxP1WZ_17async_stream_impl, symObjAddr: 0x15F0, symBinAddr: 0x110D4, symSize: 0x1C }
  - { offset: 0x40FB2, size: 0x8, addend: 0x0, symName: __RNcNtINtNtCs6IAuOt8vWmF_3syn10punctuated4PairQNtNtB8_8lifetime8LifetimeQNtNtB8_5token4PlusE3End0Cs8jlTyMxP1WZ_17async_stream_impl, symObjAddr: 0x160C, symBinAddr: 0x110F0, symSize: 0x1C }
  - { offset: 0x46EE9, size: 0x8, addend: 0x0, symName: __RNvMNtCs6IAuOt8vWmF_3syn10punctuatedINtB2_10PunctuatedNtNtB4_2ty4TypeNtNtB4_5token5CommaE9pairs_mutCs8jlTyMxP1WZ_17async_stream_impl, symObjAddr: 0x1628, symBinAddr: 0x1110C, symSize: 0x74 }
  - { offset: 0x46F5E, size: 0x8, addend: 0x0, symName: __RNvMNtCs6IAuOt8vWmF_3syn10punctuatedINtB2_10PunctuatedNtNtB4_2ty9BareFnArgNtNtB4_5token5CommaE9pairs_mutCs8jlTyMxP1WZ_17async_stream_impl, symObjAddr: 0x169C, symBinAddr: 0x11180, symSize: 0x74 }
  - { offset: 0x46FD3, size: 0x8, addend: 0x0, symName: __RNvMNtCs6IAuOt8vWmF_3syn10punctuatedINtB2_10PunctuatedNtNtB4_3pat3PatNtNtB4_5token2OrE9pairs_mutCs8jlTyMxP1WZ_17async_stream_impl, symObjAddr: 0x1710, symBinAddr: 0x111F4, symSize: 0x74 }
  - { offset: 0x4703B, size: 0x8, addend: 0x0, symName: __RNvMNtCs6IAuOt8vWmF_3syn10punctuatedINtB2_10PunctuatedNtNtB4_3pat3PatNtNtB4_5token5CommaE9pairs_mutCs8jlTyMxP1WZ_17async_stream_impl, symObjAddr: 0x1784, symBinAddr: 0x11268, symSize: 0x74 }
  - { offset: 0x470B0, size: 0x8, addend: 0x0, symName: __RNvMNtCs6IAuOt8vWmF_3syn10punctuatedINtB2_10PunctuatedNtNtB4_3pat8FieldPatNtNtB4_5token5CommaE9pairs_mutCs8jlTyMxP1WZ_17async_stream_impl, symObjAddr: 0x17F8, symBinAddr: 0x112DC, symSize: 0x74 }
  - { offset: 0x47125, size: 0x8, addend: 0x0, symName: __RNvMNtCs6IAuOt8vWmF_3syn10punctuatedINtB2_10PunctuatedNtNtB4_4expr10FieldValueNtNtB4_5token5CommaE9pairs_mutCs8jlTyMxP1WZ_17async_stream_impl, symObjAddr: 0x186C, symBinAddr: 0x11350, symSize: 0x74 }
  - { offset: 0x4719A, size: 0x8, addend: 0x0, symName: __RNvMNtCs6IAuOt8vWmF_3syn10punctuatedINtB2_10PunctuatedNtNtB4_4expr4ExprNtNtB4_5token5CommaE9pairs_mutCs8jlTyMxP1WZ_17async_stream_impl, symObjAddr: 0x18E0, symBinAddr: 0x113C4, symSize: 0x74 }
  - { offset: 0x4720F, size: 0x8, addend: 0x0, symName: __RNvMNtCs6IAuOt8vWmF_3syn10punctuatedINtB2_10PunctuatedNtNtB4_4path11PathSegmentNtNtB4_5token7PathSepE9pairs_mutCs8jlTyMxP1WZ_17async_stream_impl, symObjAddr: 0x1954, symBinAddr: 0x11438, symSize: 0x74 }
  - { offset: 0x47284, size: 0x8, addend: 0x0, symName: __RNvMNtCs6IAuOt8vWmF_3syn10punctuatedINtB2_10PunctuatedNtNtB4_4path15GenericArgumentNtNtB4_5token5CommaE9pairs_mutCs8jlTyMxP1WZ_17async_stream_impl, symObjAddr: 0x19C8, symBinAddr: 0x114AC, symSize: 0x74 }
  - { offset: 0x472F9, size: 0x8, addend: 0x0, symName: __RNvMNtCs6IAuOt8vWmF_3syn10punctuatedINtB2_10PunctuatedNtNtB4_8generics12GenericParamNtNtB4_5token5CommaE9pairs_mutCs8jlTyMxP1WZ_17async_stream_impl, symObjAddr: 0x1A3C, symBinAddr: 0x11520, symSize: 0x74 }
  - { offset: 0x4736E, size: 0x8, addend: 0x0, symName: __RNvMNtCs6IAuOt8vWmF_3syn10punctuatedINtB2_10PunctuatedNtNtB4_8generics13CapturedParamNtNtB4_5token5CommaE9pairs_mutCs8jlTyMxP1WZ_17async_stream_impl, symObjAddr: 0x1AB0, symBinAddr: 0x11594, symSize: 0x74 }
  - { offset: 0x473E3, size: 0x8, addend: 0x0, symName: __RNvMNtCs6IAuOt8vWmF_3syn10punctuatedINtB2_10PunctuatedNtNtB4_8generics14TypeParamBoundNtNtB4_5token4PlusE9pairs_mutCs8jlTyMxP1WZ_17async_stream_impl, symObjAddr: 0x1B24, symBinAddr: 0x11608, symSize: 0x74 }
  - { offset: 0x47458, size: 0x8, addend: 0x0, symName: __RNvMNtCs6IAuOt8vWmF_3syn10punctuatedINtB2_10PunctuatedNtNtB4_8lifetime8LifetimeNtNtB4_5token4PlusE9pairs_mutCs8jlTyMxP1WZ_17async_stream_impl, symObjAddr: 0x1B98, symBinAddr: 0x1167C, symSize: 0x74 }
  - { offset: 0x474B3, size: 0x8, addend: 0x0, symName: __RNvMsJ_NtCs6IAuOt8vWmF_3syn10punctuatedINtB5_4PairQNtNtB7_2ty4TypeQNtNtB7_5token5CommaE9value_mutCs8jlTyMxP1WZ_17async_stream_impl, symObjAddr: 0x1C0C, symBinAddr: 0x116F0, symSize: 0x74 }
  - { offset: 0x47520, size: 0x8, addend: 0x0, symName: __RNvMsJ_NtCs6IAuOt8vWmF_3syn10punctuatedINtB5_4PairQNtNtB7_2ty9BareFnArgQNtNtB7_5token5CommaE9value_mutCs8jlTyMxP1WZ_17async_stream_impl, symObjAddr: 0x1C80, symBinAddr: 0x11764, symSize: 0x74 }
  - { offset: 0x4759A, size: 0x8, addend: 0x0, symName: __RNvMsJ_NtCs6IAuOt8vWmF_3syn10punctuatedINtB5_4PairQNtNtB7_3pat3PatQNtNtB7_5token2OrE9value_mutCs8jlTyMxP1WZ_17async_stream_impl, symObjAddr: 0x1CF4, symBinAddr: 0x117D8, symSize: 0x74 }
  - { offset: 0x475FA, size: 0x8, addend: 0x0, symName: __RNvMsJ_NtCs6IAuOt8vWmF_3syn10punctuatedINtB5_4PairQNtNtB7_3pat3PatQNtNtB7_5token5CommaE9value_mutCs8jlTyMxP1WZ_17async_stream_impl, symObjAddr: 0x1D68, symBinAddr: 0x1184C, symSize: 0x74 }
  - { offset: 0x47667, size: 0x8, addend: 0x0, symName: __RNvMsJ_NtCs6IAuOt8vWmF_3syn10punctuatedINtB5_4PairQNtNtB7_3pat8FieldPatQNtNtB7_5token5CommaE9value_mutCs8jlTyMxP1WZ_17async_stream_impl, symObjAddr: 0x1DDC, symBinAddr: 0x118C0, symSize: 0x74 }
  - { offset: 0x476D4, size: 0x8, addend: 0x0, symName: __RNvMsJ_NtCs6IAuOt8vWmF_3syn10punctuatedINtB5_4PairQNtNtB7_4expr10FieldValueQNtNtB7_5token5CommaE9value_mutCs8jlTyMxP1WZ_17async_stream_impl, symObjAddr: 0x1E50, symBinAddr: 0x11934, symSize: 0x74 }
  - { offset: 0x47741, size: 0x8, addend: 0x0, symName: __RNvMsJ_NtCs6IAuOt8vWmF_3syn10punctuatedINtB5_4PairQNtNtB7_4expr4ExprQNtNtB7_5token5CommaE9value_mutCs8jlTyMxP1WZ_17async_stream_impl, symObjAddr: 0x1EC4, symBinAddr: 0x119A8, symSize: 0x74 }
  - { offset: 0x477BB, size: 0x8, addend: 0x0, symName: __RNvMsJ_NtCs6IAuOt8vWmF_3syn10punctuatedINtB5_4PairQNtNtB7_4path11PathSegmentQNtNtB7_5token7PathSepE9value_mutCs8jlTyMxP1WZ_17async_stream_impl, symObjAddr: 0x1F38, symBinAddr: 0x11A1C, symSize: 0x74 }
  - { offset: 0x47828, size: 0x8, addend: 0x0, symName: __RNvMsJ_NtCs6IAuOt8vWmF_3syn10punctuatedINtB5_4PairQNtNtB7_4path15GenericArgumentQNtNtB7_5token5CommaE9value_mutCs8jlTyMxP1WZ_17async_stream_impl, symObjAddr: 0x1FAC, symBinAddr: 0x11A90, symSize: 0x74 }
  - { offset: 0x47895, size: 0x8, addend: 0x0, symName: __RNvMsJ_NtCs6IAuOt8vWmF_3syn10punctuatedINtB5_4PairQNtNtB7_8generics12GenericParamQNtNtB7_5token5CommaE9value_mutCs8jlTyMxP1WZ_17async_stream_impl, symObjAddr: 0x2020, symBinAddr: 0x11B04, symSize: 0x74 }
  - { offset: 0x47902, size: 0x8, addend: 0x0, symName: __RNvMsJ_NtCs6IAuOt8vWmF_3syn10punctuatedINtB5_4PairQNtNtB7_8generics13CapturedParamQNtNtB7_5token5CommaE9value_mutCs8jlTyMxP1WZ_17async_stream_impl, symObjAddr: 0x2094, symBinAddr: 0x11B78, symSize: 0x74 }
  - { offset: 0x4797C, size: 0x8, addend: 0x0, symName: __RNvMsJ_NtCs6IAuOt8vWmF_3syn10punctuatedINtB5_4PairQNtNtB7_8generics14TypeParamBoundQNtNtB7_5token4PlusE9value_mutCs8jlTyMxP1WZ_17async_stream_impl, symObjAddr: 0x2108, symBinAddr: 0x11BEC, symSize: 0x74 }
  - { offset: 0x479E9, size: 0x8, addend: 0x0, symName: __RNvMsJ_NtCs6IAuOt8vWmF_3syn10punctuatedINtB5_4PairQNtNtB7_8lifetime8LifetimeQNtNtB7_5token4PlusE9value_mutCs8jlTyMxP1WZ_17async_stream_impl, symObjAddr: 0x217C, symBinAddr: 0x11C60, symSize: 0x74 }
  - { offset: 0x47A49, size: 0x8, addend: 0x0, symName: __RNvMs_NtCse1nGBsou5OW_5alloc3vecINtB4_3VecNtNtCs6IAuOt8vWmF_3syn4attr9AttributeE3lenCs8jlTyMxP1WZ_17async_stream_impl, symObjAddr: 0x21F0, symBinAddr: 0x11CD4, symSize: 0x18 }
  - { offset: 0x47BD8, size: 0x8, addend: 0x0, symName: __RNvMs_NtCse1nGBsou5OW_5alloc3vecINtB4_3VecNtNtCs6IAuOt8vWmF_3syn4attr9AttributeE3popCs8jlTyMxP1WZ_17async_stream_impl, symObjAddr: 0x2208, symBinAddr: 0x11CEC, symSize: 0x100 }
  - { offset: 0x47E3A, size: 0x8, addend: 0x0, symName: __RNvMs_NtCse1nGBsou5OW_5alloc3vecINtB4_3VecNtNtCs6IAuOt8vWmF_3syn4stmt4StmtE8as_sliceCs8jlTyMxP1WZ_17async_stream_impl, symObjAddr: 0x2308, symBinAddr: 0x11DEC, symSize: 0x64 }
  - { offset: 0x47FB5, size: 0x8, addend: 0x0, symName: __RNvMs_NtCse1nGBsou5OW_5alloc3vecINtB4_3VecTNtNtCs6IAuOt8vWmF_3syn2ty4TypeNtNtBJ_5token5CommaEE12as_mut_sliceCs8jlTyMxP1WZ_17async_stream_impl, symObjAddr: 0x236C, symBinAddr: 0x11E50, symSize: 0x64 }
  - { offset: 0x48145, size: 0x8, addend: 0x0, symName: __RNvMs_NtCse1nGBsou5OW_5alloc3vecINtB4_3VecTNtNtCs6IAuOt8vWmF_3syn2ty9BareFnArgNtNtBJ_5token5CommaEE12as_mut_sliceCs8jlTyMxP1WZ_17async_stream_impl, symObjAddr: 0x23D0, symBinAddr: 0x11EB4, symSize: 0x64 }
  - { offset: 0x482D5, size: 0x8, addend: 0x0, symName: __RNvMs_NtCse1nGBsou5OW_5alloc3vecINtB4_3VecTNtNtCs6IAuOt8vWmF_3syn3pat3PatNtNtBJ_5token2OrEE12as_mut_sliceCs8jlTyMxP1WZ_17async_stream_impl, symObjAddr: 0x2434, symBinAddr: 0x11F18, symSize: 0x64 }
  - { offset: 0x48465, size: 0x8, addend: 0x0, symName: __RNvMs_NtCse1nGBsou5OW_5alloc3vecINtB4_3VecTNtNtCs6IAuOt8vWmF_3syn3pat3PatNtNtBJ_5token5CommaEE12as_mut_sliceCs8jlTyMxP1WZ_17async_stream_impl, symObjAddr: 0x2498, symBinAddr: 0x11F7C, symSize: 0x64 }
  - { offset: 0x485F5, size: 0x8, addend: 0x0, symName: __RNvMs_NtCse1nGBsou5OW_5alloc3vecINtB4_3VecTNtNtCs6IAuOt8vWmF_3syn3pat8FieldPatNtNtBJ_5token5CommaEE12as_mut_sliceCs8jlTyMxP1WZ_17async_stream_impl, symObjAddr: 0x24FC, symBinAddr: 0x11FE0, symSize: 0x64 }
  - { offset: 0x48785, size: 0x8, addend: 0x0, symName: __RNvMs_NtCse1nGBsou5OW_5alloc3vecINtB4_3VecTNtNtCs6IAuOt8vWmF_3syn4expr10FieldValueNtNtBJ_5token5CommaEE12as_mut_sliceCs8jlTyMxP1WZ_17async_stream_impl, symObjAddr: 0x2560, symBinAddr: 0x12044, symSize: 0x64 }
  - { offset: 0x48915, size: 0x8, addend: 0x0, symName: __RNvMs_NtCse1nGBsou5OW_5alloc3vecINtB4_3VecTNtNtCs6IAuOt8vWmF_3syn4expr4ExprNtNtBJ_5token5CommaEE12as_mut_sliceCs8jlTyMxP1WZ_17async_stream_impl, symObjAddr: 0x25C4, symBinAddr: 0x120A8, symSize: 0x64 }
  - { offset: 0x48AA5, size: 0x8, addend: 0x0, symName: __RNvMs_NtCse1nGBsou5OW_5alloc3vecINtB4_3VecTNtNtCs6IAuOt8vWmF_3syn4path15GenericArgumentNtNtBJ_5token5CommaEE12as_mut_sliceCs8jlTyMxP1WZ_17async_stream_impl, symObjAddr: 0x2628, symBinAddr: 0x1210C, symSize: 0x64 }
  - { offset: 0x48C35, size: 0x8, addend: 0x0, symName: __RNvMs_NtCse1nGBsou5OW_5alloc3vecINtB4_3VecTNtNtCs6IAuOt8vWmF_3syn8generics13CapturedParamNtNtBJ_5token5CommaEE12as_mut_sliceCs8jlTyMxP1WZ_17async_stream_impl, symObjAddr: 0x268C, symBinAddr: 0x12170, symSize: 0x64 }
  - { offset: 0x48DC5, size: 0x8, addend: 0x0, symName: __RNvMs_NtCse1nGBsou5OW_5alloc3vecINtB4_3VecTNtNtCs6IAuOt8vWmF_3syn8generics14TypeParamBoundNtNtBJ_5token4PlusEE12as_mut_sliceCs8jlTyMxP1WZ_17async_stream_impl, symObjAddr: 0x26F0, symBinAddr: 0x121D4, symSize: 0x64 }
  - { offset: 0x48F55, size: 0x8, addend: 0x0, symName: __RNvMs_NtCse1nGBsou5OW_5alloc3vecINtB4_3VecTNtNtCs6IAuOt8vWmF_3syn8lifetime8LifetimeNtNtBJ_5token4PlusEE12as_mut_sliceCs8jlTyMxP1WZ_17async_stream_impl, symObjAddr: 0x2754, symBinAddr: 0x12238, symSize: 0x64 }
  - { offset: 0x49038, size: 0x8, addend: 0x0, symName: __RNvXs4_NtNtCs2cqEZUIJimJ_5quote9___private3extINtNtCse1nGBsou5OW_5alloc3vec3VecNtNtCs6IAuOt8vWmF_3syn4stmt4StmtENtB5_16RepAsIteratorExt15quote_into_iterCs8jlTyMxP1WZ_17async_stream_impl, symObjAddr: 0x2F30, symBinAddr: 0x12A14, symSize: 0x38 }
  - { offset: 0x4978A, size: 0x8, addend: 0x0, symName: __RNvYNtCs8jlTyMxP1WZ_17async_stream_impl5ScrubNtNtNtCs6IAuOt8vWmF_3syn3gen9visit_mut8VisitMut13visit_abi_mutB4_, symObjAddr: 0x0, symBinAddr: 0x133D8, symSize: 0x3C }
  - { offset: 0x497AC, size: 0x8, addend: 0x0, symName: ___rustc_proc_macro_decls_60d114fdca6534c7__, symObjAddr: 0x7768, symBinAddr: 0x1D8970, symSize: 0x0 }
  - { offset: 0x497BA, size: 0x8, addend: 0x0, symName: __RNvCs8jlTyMxP1WZ_17async_stream_impl11parse_input, symObjAddr: 0x1D78, symBinAddr: 0x15150, symSize: 0x30C }
  - { offset: 0x498FB, size: 0x8, addend: 0x0, symName: __RNvXs_Cs8jlTyMxP1WZ_17async_stream_implINtB4_7PartialNtNtCs6IAuOt8vWmF_3syn4expr9ExprYieldENtNtBT_5parse5Parse5parseB4_, symObjAddr: 0x2150, symBinAddr: 0x15528, symSize: 0x200 }
  - { offset: 0x4998B, size: 0x8, addend: 0x0, symName: __RNvCs8jlTyMxP1WZ_17async_stream_impl23visit_token_stream_impl, symObjAddr: 0x2350, symBinAddr: 0x15728, symSize: 0x910 }
  - { offset: 0x49B48, size: 0x8, addend: 0x0, symName: __RNvXs1_Cs8jlTyMxP1WZ_17async_stream_implNtB5_5ScrubNtNtNtCs6IAuOt8vWmF_3syn3gen9visit_mut8VisitMut14visit_expr_mut, symObjAddr: 0x2DF0, symBinAddr: 0x161C8, symSize: 0x1804 }
  - { offset: 0x49EC6, size: 0x8, addend: 0x0, symName: __RNvXs1_Cs8jlTyMxP1WZ_17async_stream_implNtB5_5ScrubNtNtNtCs6IAuOt8vWmF_3syn3gen9visit_mut8VisitMut15visit_macro_mut, symObjAddr: 0x45F4, symBinAddr: 0x179CC, symSize: 0x90 }
  - { offset: 0x49F1E, size: 0x8, addend: 0x0, symName: __RNCNvXs1_Cs8jlTyMxP1WZ_17async_stream_implNtB7_5ScrubNtNtNtCs6IAuOt8vWmF_3syn3gen9visit_mut8VisitMut15visit_macro_mut0B7_, symObjAddr: 0x4684, symBinAddr: 0x17A5C, symSize: 0x24 }
  - { offset: 0x49F54, size: 0x8, addend: 0x0, symName: __RNCNvXs1_Cs8jlTyMxP1WZ_17async_stream_implNtB7_5ScrubNtNtNtCs6IAuOt8vWmF_3syn3gen9visit_mut8VisitMut15visit_macro_muts_0B7_, symObjAddr: 0x46A8, symBinAddr: 0x17A80, symSize: 0x88 }
  - { offset: 0x49F99, size: 0x8, addend: 0x0, symName: __RNvXs1_Cs8jlTyMxP1WZ_17async_stream_implNtB5_5ScrubNtNtNtCs6IAuOt8vWmF_3syn3gen9visit_mut8VisitMut14visit_item_mut, symObjAddr: 0x4730, symBinAddr: 0x17B08, symSize: 0x90 }
  - { offset: 0x49FED, size: 0x8, addend: 0x0, symName: __RNvCs8jlTyMxP1WZ_17async_stream_impl12stream_inner, symObjAddr: 0x47C0, symBinAddr: 0x17B98, symSize: 0xA80 }
  - { offset: 0x4A20A, size: 0x8, addend: 0x0, symName: __RNvCs8jlTyMxP1WZ_17async_stream_impl16try_stream_inner, symObjAddr: 0x5240, symBinAddr: 0x18618, symSize: 0xA80 }
  - { offset: 0x4A43B, size: 0x8, addend: 0x0, symName: __RINvCs8jlTyMxP1WZ_17async_stream_impl17replace_for_awaitNtCs3cP53eQoTwO_11proc_macro211TokenStreamEB2_, symObjAddr: 0x5CC0, symBinAddr: 0x19098, symSize: 0x6D8 }
  - { offset: 0x4A5A6, size: 0x8, addend: 0x0, symName: __RINvCs8jlTyMxP1WZ_17async_stream_impl17replace_for_awaitNtNtCs3cP53eQoTwO_11proc_macro212token_stream8IntoIterEB2_, symObjAddr: 0x6398, symBinAddr: 0x19770, symSize: 0x6D8 }
  - { offset: 0x4A716, size: 0x8, addend: 0x0, symName: __RNvNvCs8jlTyMxP1WZ_17async_stream_impl11parse_input19panic_cold_explicit, symObjAddr: 0x6A70, symBinAddr: 0x1569C4, symSize: 0x1C }
  - { offset: 0x4DC8E, size: 0x8, addend: 0x0, symName: __RNvYNtCs8jlTyMxP1WZ_17async_stream_impl5ScrubNtNtNtCs6IAuOt8vWmF_3syn3gen9visit_mut8VisitMut13visit_abi_mutB4_, symObjAddr: 0x0, symBinAddr: 0x133D8, symSize: 0x3C }
  - { offset: 0x4DCCD, size: 0x8, addend: 0x0, symName: __RNvYNtCs8jlTyMxP1WZ_17async_stream_impl5ScrubNtNtNtCs6IAuOt8vWmF_3syn3gen9visit_mut8VisitMut13visit_arm_mutB4_, symObjAddr: 0x3C, symBinAddr: 0x13414, symSize: 0x3C }
  - { offset: 0x4DD0C, size: 0x8, addend: 0x0, symName: __RNvYNtCs8jlTyMxP1WZ_17async_stream_impl5ScrubNtNtNtCs6IAuOt8vWmF_3syn3gen9visit_mut8VisitMut13visit_lit_mutB4_, symObjAddr: 0x78, symBinAddr: 0x13450, symSize: 0x3C }
  - { offset: 0x4DD4E, size: 0x8, addend: 0x0, symName: __RNvYNtCs8jlTyMxP1WZ_17async_stream_impl5ScrubNtNtNtCs6IAuOt8vWmF_3syn3gen9visit_mut8VisitMut13visit_pat_mutB4_, symObjAddr: 0xB4, symBinAddr: 0x1348C, symSize: 0x3C }
  - { offset: 0x4DD90, size: 0x8, addend: 0x0, symName: __RNvYNtCs8jlTyMxP1WZ_17async_stream_impl5ScrubNtNtNtCs6IAuOt8vWmF_3syn3gen9visit_mut8VisitMut14visit_meta_mutB4_, symObjAddr: 0xF0, symBinAddr: 0x134C8, symSize: 0x3C }
  - { offset: 0x4DDD2, size: 0x8, addend: 0x0, symName: __RNvYNtCs8jlTyMxP1WZ_17async_stream_impl5ScrubNtNtNtCs6IAuOt8vWmF_3syn3gen9visit_mut8VisitMut14visit_path_mutB4_, symObjAddr: 0x12C, symBinAddr: 0x13504, symSize: 0x3C }
  - { offset: 0x4DE14, size: 0x8, addend: 0x0, symName: __RNvYNtCs8jlTyMxP1WZ_17async_stream_impl5ScrubNtNtNtCs6IAuOt8vWmF_3syn3gen9visit_mut8VisitMut14visit_span_mutB4_, symObjAddr: 0x168, symBinAddr: 0x13540, symSize: 0x24 }
  - { offset: 0x4DE56, size: 0x8, addend: 0x0, symName: __RNvYNtCs8jlTyMxP1WZ_17async_stream_impl5ScrubNtNtNtCs6IAuOt8vWmF_3syn3gen9visit_mut8VisitMut14visit_stmt_mutB4_, symObjAddr: 0x18C, symBinAddr: 0x13564, symSize: 0x3C }
  - { offset: 0x4DE98, size: 0x8, addend: 0x0, symName: __RNvYNtCs8jlTyMxP1WZ_17async_stream_impl5ScrubNtNtNtCs6IAuOt8vWmF_3syn3gen9visit_mut8VisitMut14visit_type_mutB4_, symObjAddr: 0x1C8, symBinAddr: 0x135A0, symSize: 0x3C }
  - { offset: 0x4DEDA, size: 0x8, addend: 0x0, symName: __RNvYNtCs8jlTyMxP1WZ_17async_stream_impl5ScrubNtNtNtCs6IAuOt8vWmF_3syn3gen9visit_mut8VisitMut15visit_block_mutB4_, symObjAddr: 0x204, symBinAddr: 0x135DC, symSize: 0x3C }
  - { offset: 0x4DF19, size: 0x8, addend: 0x0, symName: __RNvYNtCs8jlTyMxP1WZ_17async_stream_impl5ScrubNtNtNtCs6IAuOt8vWmF_3syn3gen9visit_mut8VisitMut15visit_ident_mutB4_, symObjAddr: 0x240, symBinAddr: 0x13618, symSize: 0x3C }
  - { offset: 0x4DF5B, size: 0x8, addend: 0x0, symName: __RNvYNtCs8jlTyMxP1WZ_17async_stream_impl5ScrubNtNtNtCs6IAuOt8vWmF_3syn3gen9visit_mut8VisitMut15visit_index_mutB4_, symObjAddr: 0x27C, symBinAddr: 0x13654, symSize: 0x3C }
  - { offset: 0x4DF9D, size: 0x8, addend: 0x0, symName: __RNvYNtCs8jlTyMxP1WZ_17async_stream_impl5ScrubNtNtNtCs6IAuOt8vWmF_3syn3gen9visit_mut8VisitMut15visit_label_mutB4_, symObjAddr: 0x2B8, symBinAddr: 0x13690, symSize: 0x3C }
  - { offset: 0x4DFDF, size: 0x8, addend: 0x0, symName: __RNvYNtCs8jlTyMxP1WZ_17async_stream_impl5ScrubNtNtNtCs6IAuOt8vWmF_3syn3gen9visit_mut8VisitMut15visit_local_mutB4_, symObjAddr: 0x2F4, symBinAddr: 0x136CC, symSize: 0x3C }
  - { offset: 0x4E021, size: 0x8, addend: 0x0, symName: __RNvYNtCs8jlTyMxP1WZ_17async_stream_impl5ScrubNtNtNtCs6IAuOt8vWmF_3syn3gen9visit_mut8VisitMut15visit_qself_mutB4_, symObjAddr: 0x330, symBinAddr: 0x13708, symSize: 0x3C }
  - { offset: 0x4E063, size: 0x8, addend: 0x0, symName: __RNvYNtCs8jlTyMxP1WZ_17async_stream_impl5ScrubNtNtNtCs6IAuOt8vWmF_3syn3gen9visit_mut8VisitMut15visit_un_op_mutB4_, symObjAddr: 0x36C, symBinAddr: 0x13744, symSize: 0x3C }
  - { offset: 0x4E0A5, size: 0x8, addend: 0x0, symName: __RNvYNtCs8jlTyMxP1WZ_17async_stream_impl5ScrubNtNtNtCs6IAuOt8vWmF_3syn3gen9visit_mut8VisitMut16visit_bin_op_mutB4_, symObjAddr: 0x3A8, symBinAddr: 0x13780, symSize: 0x3C }
  - { offset: 0x4E0E4, size: 0x8, addend: 0x0, symName: __RNvYNtCs8jlTyMxP1WZ_17async_stream_impl5ScrubNtNtNtCs6IAuOt8vWmF_3syn3gen9visit_mut8VisitMut16visit_member_mutB4_, symObjAddr: 0x3E4, symBinAddr: 0x137BC, symSize: 0x3C }
  - { offset: 0x4E126, size: 0x8, addend: 0x0, symName: __RNvYNtCs8jlTyMxP1WZ_17async_stream_impl5ScrubNtNtNtCs6IAuOt8vWmF_3syn3gen9visit_mut8VisitMut16visit_pat_or_mutB4_, symObjAddr: 0x420, symBinAddr: 0x137F8, symSize: 0x3C }
  - { offset: 0x4E168, size: 0x8, addend: 0x0, symName: __RNvYNtCs8jlTyMxP1WZ_17async_stream_impl5ScrubNtNtNtCs6IAuOt8vWmF_3syn3gen9visit_mut8VisitMut17visit_expr_if_mutB4_, symObjAddr: 0x45C, symBinAddr: 0x13834, symSize: 0x3C }
  - { offset: 0x4E1A7, size: 0x8, addend: 0x0, symName: __RNvYNtCs8jlTyMxP1WZ_17async_stream_impl5ScrubNtNtNtCs6IAuOt8vWmF_3syn3gen9visit_mut8VisitMut17visit_lit_int_mutB4_, symObjAddr: 0x498, symBinAddr: 0x13870, symSize: 0x3C }
  - { offset: 0x4E1E9, size: 0x8, addend: 0x0, symName: __RNvYNtCs8jlTyMxP1WZ_17async_stream_impl5ScrubNtNtNtCs6IAuOt8vWmF_3syn3gen9visit_mut8VisitMut17visit_lit_str_mutB4_, symObjAddr: 0x4D4, symBinAddr: 0x138AC, symSize: 0x3C }
  - { offset: 0x4E22B, size: 0x8, addend: 0x0, symName: __RNvYNtCs8jlTyMxP1WZ_17async_stream_impl5ScrubNtNtNtCs6IAuOt8vWmF_3syn3gen9visit_mut8VisitMut18visit_expr_let_mutB4_, symObjAddr: 0x510, symBinAddr: 0x138E8, symSize: 0x3C }
  - { offset: 0x4E26A, size: 0x8, addend: 0x0, symName: __RNvYNtCs8jlTyMxP1WZ_17async_stream_impl5ScrubNtNtNtCs6IAuOt8vWmF_3syn3gen9visit_mut8VisitMut18visit_expr_lit_mutB4_, symObjAddr: 0x54C, symBinAddr: 0x13924, symSize: 0x3C }
  - { offset: 0x4E2A9, size: 0x8, addend: 0x0, symName: __RNvYNtCs8jlTyMxP1WZ_17async_stream_impl5ScrubNtNtNtCs6IAuOt8vWmF_3syn3gen9visit_mut8VisitMut18visit_expr_try_mutB4_, symObjAddr: 0x588, symBinAddr: 0x13960, symSize: 0x3C }
  - { offset: 0x4E2EB, size: 0x8, addend: 0x0, symName: __RNvYNtCs8jlTyMxP1WZ_17async_stream_impl5ScrubNtNtNtCs6IAuOt8vWmF_3syn3gen9visit_mut8VisitMut18visit_lifetime_mutB4_, symObjAddr: 0x5C4, symBinAddr: 0x1399C, symSize: 0x3C }
  - { offset: 0x4E32D, size: 0x8, addend: 0x0, symName: __RNvYNtCs8jlTyMxP1WZ_17async_stream_impl5ScrubNtNtNtCs6IAuOt8vWmF_3syn3gen9visit_mut8VisitMut18visit_lit_bool_mutB4_, symObjAddr: 0x600, symBinAddr: 0x139D8, symSize: 0x3C }
  - { offset: 0x4E36F, size: 0x8, addend: 0x0, symName: __RNvYNtCs8jlTyMxP1WZ_17async_stream_impl5ScrubNtNtNtCs6IAuOt8vWmF_3syn3gen9visit_mut8VisitMut18visit_lit_byte_mutB4_, symObjAddr: 0x63C, symBinAddr: 0x13A14, symSize: 0x3C }
  - { offset: 0x4E3B1, size: 0x8, addend: 0x0, symName: __RNvYNtCs8jlTyMxP1WZ_17async_stream_impl5ScrubNtNtNtCs6IAuOt8vWmF_3syn3gen9visit_mut8VisitMut18visit_lit_char_mutB4_, symObjAddr: 0x678, symBinAddr: 0x13A50, symSize: 0x3C }
  - { offset: 0x4E3F3, size: 0x8, addend: 0x0, symName: __RNvYNtCs8jlTyMxP1WZ_17async_stream_impl5ScrubNtNtNtCs6IAuOt8vWmF_3syn3gen9visit_mut8VisitMut18visit_lit_cstr_mutB4_, symObjAddr: 0x6B4, symBinAddr: 0x13A8C, symSize: 0x3C }
  - { offset: 0x4E435, size: 0x8, addend: 0x0, symName: __RNvYNtCs8jlTyMxP1WZ_17async_stream_impl5ScrubNtNtNtCs6IAuOt8vWmF_3syn3gen9visit_mut8VisitMut18visit_pat_rest_mutB4_, symObjAddr: 0x6F0, symBinAddr: 0x13AC8, symSize: 0x3C }
  - { offset: 0x4E477, size: 0x8, addend: 0x0, symName: __RNvYNtCs8jlTyMxP1WZ_17async_stream_impl5ScrubNtNtNtCs6IAuOt8vWmF_3syn3gen9visit_mut8VisitMut18visit_pat_type_mutB4_, symObjAddr: 0x72C, symBinAddr: 0x13B04, symSize: 0x3C }
  - { offset: 0x4E4B9, size: 0x8, addend: 0x0, symName: __RNvYNtCs8jlTyMxP1WZ_17async_stream_impl5ScrubNtNtNtCs6IAuOt8vWmF_3syn3gen9visit_mut8VisitMut18visit_pat_wild_mutB4_, symObjAddr: 0x768, symBinAddr: 0x13B40, symSize: 0x3C }
  - { offset: 0x4E4FB, size: 0x8, addend: 0x0, symName: __RNvYNtCs8jlTyMxP1WZ_17async_stream_impl5ScrubNtNtNtCs6IAuOt8vWmF_3syn3gen9visit_mut8VisitMut18visit_type_ptr_mutB4_, symObjAddr: 0x7A4, symBinAddr: 0x13B7C, symSize: 0x3C }
  - { offset: 0x4E53D, size: 0x8, addend: 0x0, symName: __RNvYNtCs8jlTyMxP1WZ_17async_stream_impl5ScrubNtNtNtCs6IAuOt8vWmF_3syn3gen9visit_mut8VisitMut19visit_attribute_mutB4_, symObjAddr: 0x7E0, symBinAddr: 0x13BB8, symSize: 0x3C }
  - { offset: 0x4E57C, size: 0x8, addend: 0x0, symName: __RNvYNtCs8jlTyMxP1WZ_17async_stream_impl5ScrubNtNtNtCs6IAuOt8vWmF_3syn3gen9visit_mut8VisitMut19visit_expr_call_mutB4_, symObjAddr: 0x81C, symBinAddr: 0x13BF4, symSize: 0x3C }
  - { offset: 0x4E5BB, size: 0x8, addend: 0x0, symName: __RNvYNtCs8jlTyMxP1WZ_17async_stream_impl5ScrubNtNtNtCs6IAuOt8vWmF_3syn3gen9visit_mut8VisitMut19visit_expr_cast_mutB4_, symObjAddr: 0x858, symBinAddr: 0x13C30, symSize: 0x3C }
  - { offset: 0x4E5FA, size: 0x8, addend: 0x0, symName: __RNvYNtCs8jlTyMxP1WZ_17async_stream_impl5ScrubNtNtNtCs6IAuOt8vWmF_3syn3gen9visit_mut8VisitMut19visit_expr_loop_mutB4_, symObjAddr: 0x894, symBinAddr: 0x13C6C, symSize: 0x3C }
  - { offset: 0x4E639, size: 0x8, addend: 0x0, symName: __RNvYNtCs8jlTyMxP1WZ_17async_stream_impl5ScrubNtNtNtCs6IAuOt8vWmF_3syn3gen9visit_mut8VisitMut19visit_expr_path_mutB4_, symObjAddr: 0x8D0, symBinAddr: 0x13CA8, symSize: 0x3C }
  - { offset: 0x4E67B, size: 0x8, addend: 0x0, symName: __RNvYNtCs8jlTyMxP1WZ_17async_stream_impl5ScrubNtNtNtCs6IAuOt8vWmF_3syn3gen9visit_mut8VisitMut19visit_field_pat_mutB4_, symObjAddr: 0x90C, symBinAddr: 0x13CE4, symSize: 0x3C }
  - { offset: 0x4E6BD, size: 0x8, addend: 0x0, symName: __RNvYNtCs8jlTyMxP1WZ_17async_stream_impl5ScrubNtNtNtCs6IAuOt8vWmF_3syn3gen9visit_mut8VisitMut19visit_lit_float_mutB4_, symObjAddr: 0x948, symBinAddr: 0x13D20, symSize: 0x3C }
  - { offset: 0x4E6FF, size: 0x8, addend: 0x0, symName: __RNvYNtCs8jlTyMxP1WZ_17async_stream_impl5ScrubNtNtNtCs6IAuOt8vWmF_3syn3gen9visit_mut8VisitMut19visit_meta_list_mutB4_, symObjAddr: 0x984, symBinAddr: 0x13D5C, symSize: 0x3C }
  - { offset: 0x4E741, size: 0x8, addend: 0x0, symName: __RNvYNtCs8jlTyMxP1WZ_17async_stream_impl5ScrubNtNtNtCs6IAuOt8vWmF_3syn3gen9visit_mut8VisitMut19visit_pat_ident_mutB4_, symObjAddr: 0x9C0, symBinAddr: 0x13D98, symSize: 0x3C }
  - { offset: 0x4E783, size: 0x8, addend: 0x0, symName: __RNvYNtCs8jlTyMxP1WZ_17async_stream_impl5ScrubNtNtNtCs6IAuOt8vWmF_3syn3gen9visit_mut8VisitMut19visit_pat_paren_mutB4_, symObjAddr: 0x9FC, symBinAddr: 0x13DD4, symSize: 0x3C }
  - { offset: 0x4E7C5, size: 0x8, addend: 0x0, symName: __RNvYNtCs8jlTyMxP1WZ_17async_stream_impl5ScrubNtNtNtCs6IAuOt8vWmF_3syn3gen9visit_mut8VisitMut19visit_pat_slice_mutB4_, symObjAddr: 0xA38, symBinAddr: 0x13E10, symSize: 0x3C }
  - { offset: 0x4E807, size: 0x8, addend: 0x0, symName: __RNvYNtCs8jlTyMxP1WZ_17async_stream_impl5ScrubNtNtNtCs6IAuOt8vWmF_3syn3gen9visit_mut8VisitMut19visit_pat_tuple_mutB4_, symObjAddr: 0xA74, symBinAddr: 0x13E4C, symSize: 0x3C }
  - { offset: 0x4E849, size: 0x8, addend: 0x0, symName: __RNvYNtCs8jlTyMxP1WZ_17async_stream_impl5ScrubNtNtNtCs6IAuOt8vWmF_3syn3gen9visit_mut8VisitMut19visit_type_path_mutB4_, symObjAddr: 0xAB0, symBinAddr: 0x13E88, symSize: 0x3C }
  - { offset: 0x4E88B, size: 0x8, addend: 0x0, symName: __RNvYNtCs8jlTyMxP1WZ_17async_stream_impl5ScrubNtNtNtCs6IAuOt8vWmF_3syn3gen9visit_mut8VisitMut20visit_assoc_type_mutB4_, symObjAddr: 0xAEC, symBinAddr: 0x13EC4, symSize: 0x3C }
  - { offset: 0x4E8CA, size: 0x8, addend: 0x0, symName: __RNvYNtCs8jlTyMxP1WZ_17async_stream_impl5ScrubNtNtNtCs6IAuOt8vWmF_3syn3gen9visit_mut8VisitMut20visit_attr_style_mutB4_, symObjAddr: 0xB28, symBinAddr: 0x13F00, symSize: 0x3C }
  - { offset: 0x4E909, size: 0x8, addend: 0x0, symName: __RNvYNtCs8jlTyMxP1WZ_17async_stream_impl5ScrubNtNtNtCs6IAuOt8vWmF_3syn3gen9visit_mut8VisitMut20visit_attributes_mutB4_, symObjAddr: 0xB64, symBinAddr: 0x13F3C, symSize: 0x98 }
  - { offset: 0x4E97A, size: 0x8, addend: 0x0, symName: __RNvYNtCs8jlTyMxP1WZ_17async_stream_impl5ScrubNtNtNtCs6IAuOt8vWmF_3syn3gen9visit_mut8VisitMut20visit_constraint_mutB4_, symObjAddr: 0xBFC, symBinAddr: 0x13FD4, symSize: 0x3C }
  - { offset: 0x4E9B9, size: 0x8, addend: 0x0, symName: __RNvYNtCs8jlTyMxP1WZ_17async_stream_impl5ScrubNtNtNtCs6IAuOt8vWmF_3syn3gen9visit_mut8VisitMut20visit_expr_array_mutB4_, symObjAddr: 0xC38, symBinAddr: 0x14010, symSize: 0x3C }
  - { offset: 0x4E9F8, size: 0x8, addend: 0x0, symName: __RNvYNtCs8jlTyMxP1WZ_17async_stream_impl5ScrubNtNtNtCs6IAuOt8vWmF_3syn3gen9visit_mut8VisitMut20visit_expr_async_mutB4_, symObjAddr: 0xC74, symBinAddr: 0x1404C, symSize: 0x3C }
  - { offset: 0x4EA37, size: 0x8, addend: 0x0, symName: __RNvYNtCs8jlTyMxP1WZ_17async_stream_impl5ScrubNtNtNtCs6IAuOt8vWmF_3syn3gen9visit_mut8VisitMut20visit_expr_await_mutB4_, symObjAddr: 0xCB0, symBinAddr: 0x14088, symSize: 0x3C }
  - { offset: 0x4EA76, size: 0x8, addend: 0x0, symName: __RNvYNtCs8jlTyMxP1WZ_17async_stream_impl5ScrubNtNtNtCs6IAuOt8vWmF_3syn3gen9visit_mut8VisitMut20visit_expr_block_mutB4_, symObjAddr: 0xCEC, symBinAddr: 0x140C4, symSize: 0x3C }
  - { offset: 0x4EAB5, size: 0x8, addend: 0x0, symName: __RNvYNtCs8jlTyMxP1WZ_17async_stream_impl5ScrubNtNtNtCs6IAuOt8vWmF_3syn3gen9visit_mut8VisitMut20visit_expr_break_mutB4_, symObjAddr: 0xD28, symBinAddr: 0x14100, symSize: 0x3C }
  - { offset: 0x4EAF4, size: 0x8, addend: 0x0, symName: __RNvYNtCs8jlTyMxP1WZ_17async_stream_impl5ScrubNtNtNtCs6IAuOt8vWmF_3syn3gen9visit_mut8VisitMut20visit_expr_const_mutB4_, symObjAddr: 0xD64, symBinAddr: 0x1413C, symSize: 0x3C }
  - { offset: 0x4EB33, size: 0x8, addend: 0x0, symName: __RNvYNtCs8jlTyMxP1WZ_17async_stream_impl5ScrubNtNtNtCs6IAuOt8vWmF_3syn3gen9visit_mut8VisitMut20visit_expr_field_mutB4_, symObjAddr: 0xDA0, symBinAddr: 0x14178, symSize: 0x3C }
  - { offset: 0x4EB72, size: 0x8, addend: 0x0, symName: __RNvYNtCs8jlTyMxP1WZ_17async_stream_impl5ScrubNtNtNtCs6IAuOt8vWmF_3syn3gen9visit_mut8VisitMut20visit_expr_group_mutB4_, symObjAddr: 0xDDC, symBinAddr: 0x141B4, symSize: 0x3C }
  - { offset: 0x4EBB1, size: 0x8, addend: 0x0, symName: __RNvYNtCs8jlTyMxP1WZ_17async_stream_impl5ScrubNtNtNtCs6IAuOt8vWmF_3syn3gen9visit_mut8VisitMut20visit_expr_index_mutB4_, symObjAddr: 0xE18, symBinAddr: 0x141F0, symSize: 0x3C }
  - { offset: 0x4EBF0, size: 0x8, addend: 0x0, symName: __RNvYNtCs8jlTyMxP1WZ_17async_stream_impl5ScrubNtNtNtCs6IAuOt8vWmF_3syn3gen9visit_mut8VisitMut20visit_expr_infer_mutB4_, symObjAddr: 0xE54, symBinAddr: 0x1422C, symSize: 0x3C }
  - { offset: 0x4EC2F, size: 0x8, addend: 0x0, symName: __RNvYNtCs8jlTyMxP1WZ_17async_stream_impl5ScrubNtNtNtCs6IAuOt8vWmF_3syn3gen9visit_mut8VisitMut20visit_expr_macro_mutB4_, symObjAddr: 0xE90, symBinAddr: 0x14268, symSize: 0x3C }
  - { offset: 0x4EC6E, size: 0x8, addend: 0x0, symName: __RNvYNtCs8jlTyMxP1WZ_17async_stream_impl5ScrubNtNtNtCs6IAuOt8vWmF_3syn3gen9visit_mut8VisitMut20visit_expr_match_mutB4_, symObjAddr: 0xECC, symBinAddr: 0x142A4, symSize: 0x3C }
  - { offset: 0x4ECB0, size: 0x8, addend: 0x0, symName: __RNvYNtCs8jlTyMxP1WZ_17async_stream_impl5ScrubNtNtNtCs6IAuOt8vWmF_3syn3gen9visit_mut8VisitMut20visit_expr_paren_mutB4_, symObjAddr: 0xF08, symBinAddr: 0x142E0, symSize: 0x3C }
  - { offset: 0x4ECF2, size: 0x8, addend: 0x0, symName: __RNvYNtCs8jlTyMxP1WZ_17async_stream_impl5ScrubNtNtNtCs6IAuOt8vWmF_3syn3gen9visit_mut8VisitMut20visit_expr_range_mutB4_, symObjAddr: 0xF44, symBinAddr: 0x1431C, symSize: 0x3C }
  - { offset: 0x4ED34, size: 0x8, addend: 0x0, symName: __RNvYNtCs8jlTyMxP1WZ_17async_stream_impl5ScrubNtNtNtCs6IAuOt8vWmF_3syn3gen9visit_mut8VisitMut20visit_expr_tuple_mutB4_, symObjAddr: 0xF80, symBinAddr: 0x14358, symSize: 0x3C }
  - { offset: 0x4ED76, size: 0x8, addend: 0x0, symName: __RNvYNtCs8jlTyMxP1WZ_17async_stream_impl5ScrubNtNtNtCs6IAuOt8vWmF_3syn3gen9visit_mut8VisitMut20visit_expr_unary_mutB4_, symObjAddr: 0xFBC, symBinAddr: 0x14394, symSize: 0x3C }
  - { offset: 0x4EDB8, size: 0x8, addend: 0x0, symName: __RNvYNtCs8jlTyMxP1WZ_17async_stream_impl5ScrubNtNtNtCs6IAuOt8vWmF_3syn3gen9visit_mut8VisitMut20visit_expr_while_mutB4_, symObjAddr: 0xFF8, symBinAddr: 0x143D0, symSize: 0x3C }
  - { offset: 0x4EDFA, size: 0x8, addend: 0x0, symName: __RNvYNtCs8jlTyMxP1WZ_17async_stream_impl5ScrubNtNtNtCs6IAuOt8vWmF_3syn3gen9visit_mut8VisitMut20visit_expr_yield_mutB4_, symObjAddr: 0x1034, symBinAddr: 0x1440C, symSize: 0x3C }
  - { offset: 0x4EE3C, size: 0x8, addend: 0x0, symName: __RNvYNtCs8jlTyMxP1WZ_17async_stream_impl5ScrubNtNtNtCs6IAuOt8vWmF_3syn3gen9visit_mut8VisitMut20visit_local_init_mutB4_, symObjAddr: 0x1070, symBinAddr: 0x14448, symSize: 0x3C }
  - { offset: 0x4EE7E, size: 0x8, addend: 0x0, symName: __RNvYNtCs8jlTyMxP1WZ_17async_stream_impl5ScrubNtNtNtCs6IAuOt8vWmF_3syn3gen9visit_mut8VisitMut20visit_pat_struct_mutB4_, symObjAddr: 0x10AC, symBinAddr: 0x14484, symSize: 0x3C }
  - { offset: 0x4EEC0, size: 0x8, addend: 0x0, symName: __RNvYNtCs8jlTyMxP1WZ_17async_stream_impl5ScrubNtNtNtCs6IAuOt8vWmF_3syn3gen9visit_mut8VisitMut20visit_stmt_macro_mutB4_, symObjAddr: 0x10E8, symBinAddr: 0x144C0, symSize: 0x3C }
  - { offset: 0x4EF02, size: 0x8, addend: 0x0, symName: __RNvYNtCs8jlTyMxP1WZ_17async_stream_impl5ScrubNtNtNtCs6IAuOt8vWmF_3syn3gen9visit_mut8VisitMut20visit_type_array_mutB4_, symObjAddr: 0x1124, symBinAddr: 0x144FC, symSize: 0x3C }
  - { offset: 0x4EF44, size: 0x8, addend: 0x0, symName: __RNvYNtCs8jlTyMxP1WZ_17async_stream_impl5ScrubNtNtNtCs6IAuOt8vWmF_3syn3gen9visit_mut8VisitMut20visit_type_group_mutB4_, symObjAddr: 0x1160, symBinAddr: 0x14538, symSize: 0x3C }
  - { offset: 0x4EF86, size: 0x8, addend: 0x0, symName: __RNvYNtCs8jlTyMxP1WZ_17async_stream_impl5ScrubNtNtNtCs6IAuOt8vWmF_3syn3gen9visit_mut8VisitMut20visit_type_infer_mutB4_, symObjAddr: 0x119C, symBinAddr: 0x14574, symSize: 0x3C }
  - { offset: 0x4EFC8, size: 0x8, addend: 0x0, symName: __RNvYNtCs8jlTyMxP1WZ_17async_stream_impl5ScrubNtNtNtCs6IAuOt8vWmF_3syn3gen9visit_mut8VisitMut20visit_type_macro_mutB4_, symObjAddr: 0x11D8, symBinAddr: 0x145B0, symSize: 0x3C }
  - { offset: 0x4F00A, size: 0x8, addend: 0x0, symName: __RNvYNtCs8jlTyMxP1WZ_17async_stream_impl5ScrubNtNtNtCs6IAuOt8vWmF_3syn3gen9visit_mut8VisitMut20visit_type_never_mutB4_, symObjAddr: 0x1214, symBinAddr: 0x145EC, symSize: 0x3C }
  - { offset: 0x4F04C, size: 0x8, addend: 0x0, symName: __RNvYNtCs8jlTyMxP1WZ_17async_stream_impl5ScrubNtNtNtCs6IAuOt8vWmF_3syn3gen9visit_mut8VisitMut20visit_type_param_mutB4_, symObjAddr: 0x1250, symBinAddr: 0x14628, symSize: 0x3C }
  - { offset: 0x4F08E, size: 0x8, addend: 0x0, symName: __RNvYNtCs8jlTyMxP1WZ_17async_stream_impl5ScrubNtNtNtCs6IAuOt8vWmF_3syn3gen9visit_mut8VisitMut20visit_type_paren_mutB4_, symObjAddr: 0x128C, symBinAddr: 0x14664, symSize: 0x3C }
  - { offset: 0x4F0D0, size: 0x8, addend: 0x0, symName: __RNvYNtCs8jlTyMxP1WZ_17async_stream_impl5ScrubNtNtNtCs6IAuOt8vWmF_3syn3gen9visit_mut8VisitMut20visit_type_slice_mutB4_, symObjAddr: 0x12C8, symBinAddr: 0x146A0, symSize: 0x3C }
  - { offset: 0x4F112, size: 0x8, addend: 0x0, symName: __RNvYNtCs8jlTyMxP1WZ_17async_stream_impl5ScrubNtNtNtCs6IAuOt8vWmF_3syn3gen9visit_mut8VisitMut20visit_type_tuple_mutB4_, symObjAddr: 0x1304, symBinAddr: 0x146DC, symSize: 0x3C }
  - { offset: 0x4F154, size: 0x8, addend: 0x0, symName: __RNvYNtCs8jlTyMxP1WZ_17async_stream_impl5ScrubNtNtNtCs6IAuOt8vWmF_3syn3gen9visit_mut8VisitMut21visit_assoc_const_mutB4_, symObjAddr: 0x1340, symBinAddr: 0x14718, symSize: 0x3C }
  - { offset: 0x4F193, size: 0x8, addend: 0x0, symName: __RNvYNtCs8jlTyMxP1WZ_17async_stream_impl5ScrubNtNtNtCs6IAuOt8vWmF_3syn3gen9visit_mut8VisitMut21visit_bare_fn_arg_mutB4_, symObjAddr: 0x137C, symBinAddr: 0x14754, symSize: 0x3C }
  - { offset: 0x4F1D2, size: 0x8, addend: 0x0, symName: __RNvYNtCs8jlTyMxP1WZ_17async_stream_impl5ScrubNtNtNtCs6IAuOt8vWmF_3syn3gen9visit_mut8VisitMut21visit_const_param_mutB4_, symObjAddr: 0x13B8, symBinAddr: 0x14790, symSize: 0x3C }
  - { offset: 0x4F211, size: 0x8, addend: 0x0, symName: __RNvYNtCs8jlTyMxP1WZ_17async_stream_impl5ScrubNtNtNtCs6IAuOt8vWmF_3syn3gen9visit_mut8VisitMut21visit_expr_assign_mutB4_, symObjAddr: 0x13F4, symBinAddr: 0x147CC, symSize: 0x3C }
  - { offset: 0x4F250, size: 0x8, addend: 0x0, symName: __RNvYNtCs8jlTyMxP1WZ_17async_stream_impl5ScrubNtNtNtCs6IAuOt8vWmF_3syn3gen9visit_mut8VisitMut21visit_expr_binary_mutB4_, symObjAddr: 0x1430, symBinAddr: 0x14808, symSize: 0x3C }
  - { offset: 0x4F28F, size: 0x8, addend: 0x0, symName: __RNvYNtCs8jlTyMxP1WZ_17async_stream_impl5ScrubNtNtNtCs6IAuOt8vWmF_3syn3gen9visit_mut8VisitMut21visit_expr_repeat_mutB4_, symObjAddr: 0x146C, symBinAddr: 0x14844, symSize: 0x3C }
  - { offset: 0x4F2D1, size: 0x8, addend: 0x0, symName: __RNvYNtCs8jlTyMxP1WZ_17async_stream_impl5ScrubNtNtNtCs6IAuOt8vWmF_3syn3gen9visit_mut8VisitMut21visit_expr_return_mutB4_, symObjAddr: 0x14A8, symBinAddr: 0x14880, symSize: 0x3C }
  - { offset: 0x4F313, size: 0x8, addend: 0x0, symName: __RNvYNtCs8jlTyMxP1WZ_17async_stream_impl5ScrubNtNtNtCs6IAuOt8vWmF_3syn3gen9visit_mut8VisitMut21visit_expr_struct_mutB4_, symObjAddr: 0x14E4, symBinAddr: 0x148BC, symSize: 0x3C }
  - { offset: 0x4F355, size: 0x8, addend: 0x0, symName: __RNvYNtCs8jlTyMxP1WZ_17async_stream_impl5ScrubNtNtNtCs6IAuOt8vWmF_3syn3gen9visit_mut8VisitMut21visit_expr_unsafe_mutB4_, symObjAddr: 0x1520, symBinAddr: 0x148F8, symSize: 0x3C }
  - { offset: 0x4F397, size: 0x8, addend: 0x0, symName: __RNvYNtCs8jlTyMxP1WZ_17async_stream_impl5ScrubNtNtNtCs6IAuOt8vWmF_3syn3gen9visit_mut8VisitMut21visit_field_value_mutB4_, symObjAddr: 0x155C, symBinAddr: 0x14934, symSize: 0x3C }
  - { offset: 0x4F3D9, size: 0x8, addend: 0x0, symName: __RNvYNtCs8jlTyMxP1WZ_17async_stream_impl5ScrubNtNtNtCs6IAuOt8vWmF_3syn3gen9visit_mut8VisitMut21visit_return_type_mutB4_, symObjAddr: 0x1598, symBinAddr: 0x14970, symSize: 0x3C }
  - { offset: 0x4F41B, size: 0x8, addend: 0x0, symName: __RNvYNtCs8jlTyMxP1WZ_17async_stream_impl5ScrubNtNtNtCs6IAuOt8vWmF_3syn3gen9visit_mut8VisitMut21visit_trait_bound_mutB4_, symObjAddr: 0x15D4, symBinAddr: 0x149AC, symSize: 0x3C }
  - { offset: 0x4F45D, size: 0x8, addend: 0x0, symName: __RNvYNtCs8jlTyMxP1WZ_17async_stream_impl5ScrubNtNtNtCs6IAuOt8vWmF_3syn3gen9visit_mut8VisitMut22visit_expr_closure_mutB4_, symObjAddr: 0x1610, symBinAddr: 0x149E8, symSize: 0x3C }
  - { offset: 0x4F49C, size: 0x8, addend: 0x0, symName: __RNvYNtCs8jlTyMxP1WZ_17async_stream_impl5ScrubNtNtNtCs6IAuOt8vWmF_3syn3gen9visit_mut8VisitMut22visit_lit_byte_str_mutB4_, symObjAddr: 0x164C, symBinAddr: 0x14A24, symSize: 0x3C }
  - { offset: 0x4F4DE, size: 0x8, addend: 0x0, symName: __RNvYNtCs8jlTyMxP1WZ_17async_stream_impl5ScrubNtNtNtCs6IAuOt8vWmF_3syn3gen9visit_mut8VisitMut22visit_path_segment_mutB4_, symObjAddr: 0x1688, symBinAddr: 0x14A60, symSize: 0x3C }
  - { offset: 0x4F520, size: 0x8, addend: 0x0, symName: __RNvYNtCs8jlTyMxP1WZ_17async_stream_impl5ScrubNtNtNtCs6IAuOt8vWmF_3syn3gen9visit_mut8VisitMut22visit_range_limits_mutB4_, symObjAddr: 0x16C4, symBinAddr: 0x14A9C, symSize: 0x3C }
  - { offset: 0x4F562, size: 0x8, addend: 0x0, symName: __RNvYNtCs8jlTyMxP1WZ_17async_stream_impl5ScrubNtNtNtCs6IAuOt8vWmF_3syn3gen9visit_mut8VisitMut22visit_token_stream_mutB4_, symObjAddr: 0x1700, symBinAddr: 0x14AD8, symSize: 0x24 }
  - { offset: 0x4F5A4, size: 0x8, addend: 0x0, symName: __RNvYNtCs8jlTyMxP1WZ_17async_stream_impl5ScrubNtNtNtCs6IAuOt8vWmF_3syn3gen9visit_mut8VisitMut22visit_type_bare_fn_mutB4_, symObjAddr: 0x1724, symBinAddr: 0x14AFC, symSize: 0x3C }
  - { offset: 0x4F5E6, size: 0x8, addend: 0x0, symName: __RNvYNtCs8jlTyMxP1WZ_17async_stream_impl5ScrubNtNtNtCs6IAuOt8vWmF_3syn3gen9visit_mut8VisitMut23visit_bare_variadic_mutB4_, symObjAddr: 0x1760, symBinAddr: 0x14B38, symSize: 0x3C }
  - { offset: 0x4F625, size: 0x8, addend: 0x0, symName: __RNvYNtCs8jlTyMxP1WZ_17async_stream_impl5ScrubNtNtNtCs6IAuOt8vWmF_3syn3gen9visit_mut8VisitMut23visit_expr_continue_mutB4_, symObjAddr: 0x179C, symBinAddr: 0x14B74, symSize: 0x3C }
  - { offset: 0x4F664, size: 0x8, addend: 0x0, symName: __RNvYNtCs8jlTyMxP1WZ_17async_stream_impl5ScrubNtNtNtCs6IAuOt8vWmF_3syn3gen9visit_mut8VisitMut23visit_expr_for_loop_mutB4_, symObjAddr: 0x17D8, symBinAddr: 0x14BB0, symSize: 0x3C }
  - { offset: 0x4F6A3, size: 0x8, addend: 0x0, symName: __RNvYNtCs8jlTyMxP1WZ_17async_stream_impl5ScrubNtNtNtCs6IAuOt8vWmF_3syn3gen9visit_mut8VisitMut23visit_expr_raw_addr_mutB4_, symObjAddr: 0x1814, symBinAddr: 0x14BEC, symSize: 0x3C }
  - { offset: 0x4F6E5, size: 0x8, addend: 0x0, symName: __RNvYNtCs8jlTyMxP1WZ_17async_stream_impl5ScrubNtNtNtCs6IAuOt8vWmF_3syn3gen9visit_mut8VisitMut23visit_generic_param_mutB4_, symObjAddr: 0x1850, symBinAddr: 0x14C28, symSize: 0x3C }
  - { offset: 0x4F727, size: 0x8, addend: 0x0, symName: __RNvYNtCs8jlTyMxP1WZ_17async_stream_impl5ScrubNtNtNtCs6IAuOt8vWmF_3syn3gen9visit_mut8VisitMut23visit_pat_reference_mutB4_, symObjAddr: 0x188C, symBinAddr: 0x14C64, symSize: 0x3C }
  - { offset: 0x4F769, size: 0x8, addend: 0x0, symName: __RNvYNtCs8jlTyMxP1WZ_17async_stream_impl5ScrubNtNtNtCs6IAuOt8vWmF_3syn3gen9visit_mut8VisitMut24visit_captured_param_mutB4_, symObjAddr: 0x18C8, symBinAddr: 0x14CA0, symSize: 0x3C }
  - { offset: 0x4F7A8, size: 0x8, addend: 0x0, symName: __RNvYNtCs8jlTyMxP1WZ_17async_stream_impl5ScrubNtNtNtCs6IAuOt8vWmF_3syn3gen9visit_mut8VisitMut24visit_expr_reference_mutB4_, symObjAddr: 0x1904, symBinAddr: 0x14CDC, symSize: 0x3C }
  - { offset: 0x4F7EA, size: 0x8, addend: 0x0, symName: __RNvYNtCs8jlTyMxP1WZ_17async_stream_impl5ScrubNtNtNtCs6IAuOt8vWmF_3syn3gen9visit_mut8VisitMut24visit_expr_try_block_mutB4_, symObjAddr: 0x1940, symBinAddr: 0x14D18, symSize: 0x3C }
  - { offset: 0x4F82C, size: 0x8, addend: 0x0, symName: __RNvYNtCs8jlTyMxP1WZ_17async_stream_impl5ScrubNtNtNtCs6IAuOt8vWmF_3syn3gen9visit_mut8VisitMut24visit_lifetime_param_mutB4_, symObjAddr: 0x197C, symBinAddr: 0x14D54, symSize: 0x3C }
  - { offset: 0x4F86E, size: 0x8, addend: 0x0, symName: __RNvYNtCs8jlTyMxP1WZ_17async_stream_impl5ScrubNtNtNtCs6IAuOt8vWmF_3syn3gen9visit_mut8VisitMut24visit_path_arguments_mutB4_, symObjAddr: 0x19B8, symBinAddr: 0x14D90, symSize: 0x3C }
  - { offset: 0x4F8B0, size: 0x8, addend: 0x0, symName: __RNvYNtCs8jlTyMxP1WZ_17async_stream_impl5ScrubNtNtNtCs6IAuOt8vWmF_3syn3gen9visit_mut8VisitMut24visit_type_reference_mutB4_, symObjAddr: 0x19F4, symBinAddr: 0x14DCC, symSize: 0x3C }
  - { offset: 0x4F8F2, size: 0x8, addend: 0x0, symName: __RNvYNtCs8jlTyMxP1WZ_17async_stream_impl5ScrubNtNtNtCs6IAuOt8vWmF_3syn3gen9visit_mut8VisitMut25visit_bound_lifetimes_mutB4_, symObjAddr: 0x1A30, symBinAddr: 0x14E08, symSize: 0x3C }
  - { offset: 0x4F931, size: 0x8, addend: 0x0, symName: __RNvYNtCs8jlTyMxP1WZ_17async_stream_impl5ScrubNtNtNtCs6IAuOt8vWmF_3syn3gen9visit_mut8VisitMut25visit_macro_delimiter_mutB4_, symObjAddr: 0x1A6C, symBinAddr: 0x14E44, symSize: 0x3C }
  - { offset: 0x4F973, size: 0x8, addend: 0x0, symName: __RNvYNtCs8jlTyMxP1WZ_17async_stream_impl5ScrubNtNtNtCs6IAuOt8vWmF_3syn3gen9visit_mut8VisitMut25visit_meta_name_value_mutB4_, symObjAddr: 0x1AA8, symBinAddr: 0x14E80, symSize: 0x3C }
  - { offset: 0x4F9B5, size: 0x8, addend: 0x0, symName: __RNvYNtCs8jlTyMxP1WZ_17async_stream_impl5ScrubNtNtNtCs6IAuOt8vWmF_3syn3gen9visit_mut8VisitMut25visit_precise_capture_mutB4_, symObjAddr: 0x1AE4, symBinAddr: 0x14EBC, symSize: 0x3C }
  - { offset: 0x4F9F7, size: 0x8, addend: 0x0, symName: __RNvYNtCs8jlTyMxP1WZ_17async_stream_impl5ScrubNtNtNtCs6IAuOt8vWmF_3syn3gen9visit_mut8VisitMut25visit_type_impl_trait_mutB4_, symObjAddr: 0x1B20, symBinAddr: 0x14EF8, symSize: 0x3C }
  - { offset: 0x4FA39, size: 0x8, addend: 0x0, symName: __RNvYNtCs8jlTyMxP1WZ_17async_stream_impl5ScrubNtNtNtCs6IAuOt8vWmF_3syn3gen9visit_mut8VisitMut26visit_expr_method_call_mutB4_, symObjAddr: 0x1B5C, symBinAddr: 0x14F34, symSize: 0x3C }
  - { offset: 0x4FA7B, size: 0x8, addend: 0x0, symName: __RNvYNtCs8jlTyMxP1WZ_17async_stream_impl5ScrubNtNtNtCs6IAuOt8vWmF_3syn3gen9visit_mut8VisitMut26visit_generic_argument_mutB4_, symObjAddr: 0x1B98, symBinAddr: 0x14F70, symSize: 0x3C }
  - { offset: 0x4FABD, size: 0x8, addend: 0x0, symName: __RNvYNtCs8jlTyMxP1WZ_17async_stream_impl5ScrubNtNtNtCs6IAuOt8vWmF_3syn3gen9visit_mut8VisitMut26visit_pat_tuple_struct_mutB4_, symObjAddr: 0x1BD4, symBinAddr: 0x14FAC, symSize: 0x3C }
  - { offset: 0x4FAFF, size: 0x8, addend: 0x0, symName: __RNvYNtCs8jlTyMxP1WZ_17async_stream_impl5ScrubNtNtNtCs6IAuOt8vWmF_3syn3gen9visit_mut8VisitMut26visit_type_param_bound_mutB4_, symObjAddr: 0x1C10, symBinAddr: 0x14FE8, symSize: 0x3C }
  - { offset: 0x4FB41, size: 0x8, addend: 0x0, symName: __RNvYNtCs8jlTyMxP1WZ_17async_stream_impl5ScrubNtNtNtCs6IAuOt8vWmF_3syn3gen9visit_mut8VisitMut27visit_type_trait_object_mutB4_, symObjAddr: 0x1C4C, symBinAddr: 0x15024, symSize: 0x3C }
  - { offset: 0x4FB83, size: 0x8, addend: 0x0, symName: __RNvYNtCs8jlTyMxP1WZ_17async_stream_impl5ScrubNtNtNtCs6IAuOt8vWmF_3syn3gen9visit_mut8VisitMut28visit_pointer_mutability_mutB4_, symObjAddr: 0x1C88, symBinAddr: 0x15060, symSize: 0x3C }
  - { offset: 0x4FBC5, size: 0x8, addend: 0x0, symName: __RNvYNtCs8jlTyMxP1WZ_17async_stream_impl5ScrubNtNtNtCs6IAuOt8vWmF_3syn3gen9visit_mut8VisitMut30visit_trait_bound_modifier_mutB4_, symObjAddr: 0x1CC4, symBinAddr: 0x1509C, symSize: 0x3C }
  - { offset: 0x4FC07, size: 0x8, addend: 0x0, symName: __RNvYNtCs8jlTyMxP1WZ_17async_stream_impl5ScrubNtNtNtCs6IAuOt8vWmF_3syn3gen9visit_mut8VisitMut41visit_parenthesized_generic_arguments_mutB4_, symObjAddr: 0x1D00, symBinAddr: 0x150D8, symSize: 0x3C }
  - { offset: 0x4FC49, size: 0x8, addend: 0x0, symName: __RNvYNtCs8jlTyMxP1WZ_17async_stream_impl5ScrubNtNtNtCs6IAuOt8vWmF_3syn3gen9visit_mut8VisitMut43visit_angle_bracketed_generic_arguments_mutB4_, symObjAddr: 0x1D3C, symBinAddr: 0x15114, symSize: 0x3C }
  - { offset: 0x55E8F, size: 0x8, addend: 0x0, symName: __RNvMCs8jlTyMxP1WZ_17async_stream_implNtB2_5Scrub3new, symObjAddr: 0x2084, symBinAddr: 0x1545C, symSize: 0xCC }
  - { offset: 0x55EEF, size: 0x8, addend: 0x0, symName: __RNvMs0_Cs8jlTyMxP1WZ_17async_stream_implNtB5_5Scrub18visit_token_stream, symObjAddr: 0x2C60, symBinAddr: 0x16038, symSize: 0x190 }
  - { offset: 0x57D15, size: 0x8, addend: 0x0, symName: __RNvXNtNtCs6IAuOt8vWmF_3syn4item7parsingNtB4_4ItemNtNtB6_5parse5Parse5parse, symObjAddr: 0x34B4, symBinAddr: 0x1A354, symSize: 0x1B4 }
  - { offset: 0x57DBB, size: 0x8, addend: 0x0, symName: __RNvXs0_NtNtCs6IAuOt8vWmF_3syn4item7parsingNtB7_9ItemMacroNtNtB9_5parse5Parse5parse, symObjAddr: 0x3668, symBinAddr: 0x1A508, symSize: 0x620 }
  - { offset: 0x57F89, size: 0x8, addend: 0x0, symName: __RNvXs1_NtNtCs6IAuOt8vWmF_3syn4item7parsingNtB7_15ItemExternCrateNtNtB9_5parse5Parse5parse, symObjAddr: 0x3C88, symBinAddr: 0x1AB28, symSize: 0x93C }
  - { offset: 0x58193, size: 0x8, addend: 0x0, symName: __RNvXs3_NtNtCs6IAuOt8vWmF_3syn4item7parsingNtB7_7UseTreeNtNtB9_5parse5Parse5parse, symObjAddr: 0x461C, symBinAddr: 0x1B464, symSize: 0x58 }
  - { offset: 0x581E5, size: 0x8, addend: 0x0, symName: __RNvXs6_NtNtCs6IAuOt8vWmF_3syn4item7parsingNtB7_9SignatureNtNtB9_5parse5Parse5parse, symObjAddr: 0x5B9C, symBinAddr: 0x1B4BC, symSize: 0x60 }
  - { offset: 0x58237, size: 0x8, addend: 0x0, symName: __RNvXs9_NtNtCs6IAuOt8vWmF_3syn4item7parsingNtB7_8ReceiverNtNtB9_5parse5Parse5parse, symObjAddr: 0x622C, symBinAddr: 0x1B51C, symSize: 0x95C }
  - { offset: 0x58490, size: 0x8, addend: 0x0, symName: __RNvXsa_NtNtCs6IAuOt8vWmF_3syn4item7parsingNtB7_7ItemModNtNtB9_5parse5Parse5parse, symObjAddr: 0x6B88, symBinAddr: 0x1BE78, symSize: 0xC34 }
  - { offset: 0x586F3, size: 0x8, addend: 0x0, symName: __RNvXsb_NtNtCs6IAuOt8vWmF_3syn4item7parsingNtB7_14ItemForeignModNtNtB9_5parse5Parse5parse, symObjAddr: 0x77BC, symBinAddr: 0x1CAAC, symSize: 0x610 }
  - { offset: 0x588A4, size: 0x8, addend: 0x0, symName: __RNvXsc_NtNtCs6IAuOt8vWmF_3syn4item7parsingNtB7_11ForeignItemNtNtB9_5parse5Parse5parse, symObjAddr: 0x7DCC, symBinAddr: 0x1D0BC, symSize: 0x1D80 }
  - { offset: 0x58F14, size: 0x8, addend: 0x0, symName: __RNvXsg_NtNtCs6IAuOt8vWmF_3syn4item7parsingNtB7_16ForeignItemMacroNtNtB9_5parse5Parse5parse, symObjAddr: 0xAE74, symBinAddr: 0x1EE3C, symSize: 0x32C }
  - { offset: 0x59028, size: 0x8, addend: 0x0, symName: __RNvXsi_NtNtCs6IAuOt8vWmF_3syn4item7parsingNtB7_10ItemStructNtNtB9_5parse5Parse5parse, symObjAddr: 0xBB78, symBinAddr: 0x1F168, symSize: 0x638 }
  - { offset: 0x59225, size: 0x8, addend: 0x0, symName: __RNvXsj_NtNtCs6IAuOt8vWmF_3syn4item7parsingNtB7_8ItemEnumNtNtB9_5parse5Parse5parse, symObjAddr: 0xC1B0, symBinAddr: 0x1F7A0, symSize: 0x63C }
  - { offset: 0x59422, size: 0x8, addend: 0x0, symName: __RNvXsk_NtNtCs6IAuOt8vWmF_3syn4item7parsingNtB7_9ItemUnionNtNtB9_5parse5Parse5parse, symObjAddr: 0xC7EC, symBinAddr: 0x1FDDC, symSize: 0x62C }
  - { offset: 0x5960E, size: 0x8, addend: 0x0, symName: __RNvXsl_NtNtCs6IAuOt8vWmF_3syn4item7parsingNtB7_9ItemTraitNtNtB9_5parse5Parse5parse, symObjAddr: 0xCE18, symBinAddr: 0x20408, symSize: 0x634 }
  - { offset: 0x59815, size: 0x8, addend: 0x0, symName: __RNvXsn_NtNtCs6IAuOt8vWmF_3syn4item7parsingNtB7_9TraitItemNtNtB9_5parse5Parse5parse, symObjAddr: 0xD6BC, symBinAddr: 0x20A3C, symSize: 0x1654 }
  - { offset: 0x59C8A, size: 0x8, addend: 0x0, symName: __RNvXsp_NtNtCs6IAuOt8vWmF_3syn4item7parsingNtB7_11TraitItemFnNtNtB9_5parse5Parse5parse, symObjAddr: 0xF584, symBinAddr: 0x22090, symSize: 0x7DC }
  - { offset: 0x59E8E, size: 0x8, addend: 0x0, symName: __RNvXsr_NtNtCs6IAuOt8vWmF_3syn4item7parsingNtB7_14TraitItemMacroNtNtB9_5parse5Parse5parse, symObjAddr: 0x10484, symBinAddr: 0x2286C, symSize: 0x32C }
  - { offset: 0x59FA2, size: 0x8, addend: 0x0, symName: __RNvXst_NtNtCs6IAuOt8vWmF_3syn4item7parsingNtB7_8ImplItemNtNtB9_5parse5Parse5parse, symObjAddr: 0x10810, symBinAddr: 0x22B98, symSize: 0x1A78 }
  - { offset: 0x5A4C4, size: 0x8, addend: 0x0, symName: __RNvXsx_NtNtCs6IAuOt8vWmF_3syn4item7parsingNtB7_13ImplItemMacroNtNtB9_5parse5Parse5parse, symObjAddr: 0x134F8, symBinAddr: 0x24610, symSize: 0x32C }
  - { offset: 0x5A5D8, size: 0x8, addend: 0x0, symName: __RNvXsz_NtNtCs6IAuOt8vWmF_3syn4item7parsingNtB7_16StaticMutabilityNtNtB9_5parse5Parse5parse, symObjAddr: 0x13824, symBinAddr: 0x2493C, symSize: 0xDC }
  - { offset: 0x5A64E, size: 0x8, addend: 0x0, symName: __RNvXNtNtCs6IAuOt8vWmF_3syn4item8printingNtB4_15ItemExternCrateNtNtCs2cqEZUIJimJ_5quote9to_tokens8ToTokens9to_tokens, symObjAddr: 0x13900, symBinAddr: 0x24A18, symSize: 0x110 }
  - { offset: 0x5A6BB, size: 0x8, addend: 0x0, symName: __RNvXs_NtNtCs6IAuOt8vWmF_3syn4item8printingNtB6_7ItemUseNtNtCs2cqEZUIJimJ_5quote9to_tokens8ToTokens9to_tokens, symObjAddr: 0x13A10, symBinAddr: 0x24B28, symSize: 0xA4 }
  - { offset: 0x5A6FA, size: 0x8, addend: 0x0, symName: __RNvXs0_NtNtCs6IAuOt8vWmF_3syn4item8printingNtB7_10ItemStaticNtNtCs2cqEZUIJimJ_5quote9to_tokens8ToTokens9to_tokens, symObjAddr: 0x13AB4, symBinAddr: 0x24BCC, symSize: 0xE4 }
  - { offset: 0x5A739, size: 0x8, addend: 0x0, symName: __RNvXs1_NtNtCs6IAuOt8vWmF_3syn4item8printingNtB7_9ItemConstNtNtCs2cqEZUIJimJ_5quote9to_tokens8ToTokens9to_tokens, symObjAddr: 0x13B98, symBinAddr: 0x24CB0, symSize: 0xD4 }
  - { offset: 0x5A778, size: 0x8, addend: 0x0, symName: __RNvXs2_NtNtCs6IAuOt8vWmF_3syn4item8printingNtB7_6ItemFnNtNtCs2cqEZUIJimJ_5quote9to_tokens8ToTokens9to_tokens, symObjAddr: 0x13C6C, symBinAddr: 0x24D84, symSize: 0xB4 }
  - { offset: 0x5A7B7, size: 0x8, addend: 0x0, symName: __RNvXs3_NtNtCs6IAuOt8vWmF_3syn4item8printingNtB7_7ItemModNtNtCs2cqEZUIJimJ_5quote9to_tokens8ToTokens9to_tokens, symObjAddr: 0x13D20, symBinAddr: 0x24E38, symSize: 0x110 }
  - { offset: 0x5A824, size: 0x8, addend: 0x0, symName: __RNvXs4_NtNtCs6IAuOt8vWmF_3syn4item8printingNtB7_14ItemForeignModNtNtCs2cqEZUIJimJ_5quote9to_tokens8ToTokens9to_tokens, symObjAddr: 0x13E30, symBinAddr: 0x24F48, symSize: 0x88 }
  - { offset: 0x5A863, size: 0x8, addend: 0x0, symName: __RNvXs5_NtNtCs6IAuOt8vWmF_3syn4item8printingNtB7_8ItemTypeNtNtCs2cqEZUIJimJ_5quote9to_tokens8ToTokens9to_tokens, symObjAddr: 0x13EB8, symBinAddr: 0x24FD0, symSize: 0xD4 }
  - { offset: 0x5A8A2, size: 0x8, addend: 0x0, symName: __RNvXs6_NtNtCs6IAuOt8vWmF_3syn4item8printingNtB7_8ItemEnumNtNtCs2cqEZUIJimJ_5quote9to_tokens8ToTokens9to_tokens, symObjAddr: 0x13F8C, symBinAddr: 0x250A4, symSize: 0xB8 }
  - { offset: 0x5A8E1, size: 0x8, addend: 0x0, symName: __RNvXs7_NtNtCs6IAuOt8vWmF_3syn4item8printingNtB7_10ItemStructNtNtCs2cqEZUIJimJ_5quote9to_tokens8ToTokens9to_tokens, symObjAddr: 0x14044, symBinAddr: 0x2515C, symSize: 0x188 }
  - { offset: 0x5A95C, size: 0x8, addend: 0x0, symName: __RNvXs8_NtNtCs6IAuOt8vWmF_3syn4item8printingNtB7_9ItemUnionNtNtCs2cqEZUIJimJ_5quote9to_tokens8ToTokens9to_tokens, symObjAddr: 0x141CC, symBinAddr: 0x252E4, symSize: 0xB4 }
  - { offset: 0x5A99B, size: 0x8, addend: 0x0, symName: __RNvXs9_NtNtCs6IAuOt8vWmF_3syn4item8printingNtB7_9ItemTraitNtNtCs2cqEZUIJimJ_5quote9to_tokens8ToTokens9to_tokens, symObjAddr: 0x14280, symBinAddr: 0x25398, symSize: 0x130 }
  - { offset: 0x5A9DA, size: 0x8, addend: 0x0, symName: __RNvXsa_NtNtCs6IAuOt8vWmF_3syn4item8printingNtB7_14ItemTraitAliasNtNtCs2cqEZUIJimJ_5quote9to_tokens8ToTokens9to_tokens, symObjAddr: 0x143B0, symBinAddr: 0x254C8, symSize: 0xD4 }
  - { offset: 0x5AA19, size: 0x8, addend: 0x0, symName: __RNvXsb_NtNtCs6IAuOt8vWmF_3syn4item8printingNtB7_8ItemImplNtNtCs2cqEZUIJimJ_5quote9to_tokens8ToTokens9to_tokens, symObjAddr: 0x14484, symBinAddr: 0x2559C, symSize: 0x14C }
  - { offset: 0x5AA96, size: 0x8, addend: 0x0, symName: __RNvXsc_NtNtCs6IAuOt8vWmF_3syn4item8printingNtB7_9ItemMacroNtNtCs2cqEZUIJimJ_5quote9to_tokens8ToTokens9to_tokens, symObjAddr: 0x145D0, symBinAddr: 0x256E8, symSize: 0x148 }
  - { offset: 0x5AB27, size: 0x8, addend: 0x0, symName: __RNvXsd_NtNtCs6IAuOt8vWmF_3syn4item8printingNtB7_7UsePathNtNtCs2cqEZUIJimJ_5quote9to_tokens8ToTokens9to_tokens, symObjAddr: 0x14718, symBinAddr: 0x25830, symSize: 0x60 }
  - { offset: 0x5AB66, size: 0x8, addend: 0x0, symName: __RNvXse_NtNtCs6IAuOt8vWmF_3syn4item8printingNtB7_7UseNameNtNtCs2cqEZUIJimJ_5quote9to_tokens8ToTokens9to_tokens, symObjAddr: 0x14778, symBinAddr: 0x25890, symSize: 0x3C }
  - { offset: 0x5ABA5, size: 0x8, addend: 0x0, symName: __RNvXsf_NtNtCs6IAuOt8vWmF_3syn4item8printingNtB7_9UseRenameNtNtCs2cqEZUIJimJ_5quote9to_tokens8ToTokens9to_tokens, symObjAddr: 0x147B4, symBinAddr: 0x258CC, symSize: 0x60 }
  - { offset: 0x5ABE4, size: 0x8, addend: 0x0, symName: __RNvXsg_NtNtCs6IAuOt8vWmF_3syn4item8printingNtB7_7UseGlobNtNtCs2cqEZUIJimJ_5quote9to_tokens8ToTokens9to_tokens, symObjAddr: 0x14814, symBinAddr: 0x2592C, symSize: 0x3C }
  - { offset: 0x5AC23, size: 0x8, addend: 0x0, symName: __RNvXsh_NtNtCs6IAuOt8vWmF_3syn4item8printingNtB7_8UseGroupNtNtCs2cqEZUIJimJ_5quote9to_tokens8ToTokens9to_tokens, symObjAddr: 0x14850, symBinAddr: 0x25968, symSize: 0x44 }
  - { offset: 0x5AC62, size: 0x8, addend: 0x0, symName: __RNvXsi_NtNtCs6IAuOt8vWmF_3syn4item8printingNtB7_14TraitItemConstNtNtCs2cqEZUIJimJ_5quote9to_tokens8ToTokens9to_tokens, symObjAddr: 0x14894, symBinAddr: 0x259AC, symSize: 0x110 }
  - { offset: 0x5ACCF, size: 0x8, addend: 0x0, symName: __RNvXsj_NtNtCs6IAuOt8vWmF_3syn4item8printingNtB7_11TraitItemFnNtNtCs2cqEZUIJimJ_5quote9to_tokens8ToTokens9to_tokens, symObjAddr: 0x149A4, symBinAddr: 0x25ABC, symSize: 0xD4 }
  - { offset: 0x5AD2C, size: 0x8, addend: 0x0, symName: __RNvXsk_NtNtCs6IAuOt8vWmF_3syn4item8printingNtB7_13TraitItemTypeNtNtCs2cqEZUIJimJ_5quote9to_tokens8ToTokens9to_tokens, symObjAddr: 0x14A78, symBinAddr: 0x25B90, symSize: 0x168 }
  - { offset: 0x5AD99, size: 0x8, addend: 0x0, symName: __RNvXsl_NtNtCs6IAuOt8vWmF_3syn4item8printingNtB7_14TraitItemMacroNtNtCs2cqEZUIJimJ_5quote9to_tokens8ToTokens9to_tokens, symObjAddr: 0x14BE0, symBinAddr: 0x25CF8, symSize: 0x74 }
  - { offset: 0x5ADD8, size: 0x8, addend: 0x0, symName: __RNvXsm_NtNtCs6IAuOt8vWmF_3syn4item8printingNtB7_13ImplItemConstNtNtCs2cqEZUIJimJ_5quote9to_tokens8ToTokens9to_tokens, symObjAddr: 0x14C54, symBinAddr: 0x25D6C, symSize: 0xE4 }
  - { offset: 0x5AE17, size: 0x8, addend: 0x0, symName: __RNvXsn_NtNtCs6IAuOt8vWmF_3syn4item8printingNtB7_10ImplItemFnNtNtCs2cqEZUIJimJ_5quote9to_tokens8ToTokens9to_tokens, symObjAddr: 0x14D38, symBinAddr: 0x25E50, symSize: 0x98 }
  - { offset: 0x5AE56, size: 0x8, addend: 0x0, symName: __RNvXso_NtNtCs6IAuOt8vWmF_3syn4item8printingNtB7_12ImplItemTypeNtNtCs2cqEZUIJimJ_5quote9to_tokens8ToTokens9to_tokens, symObjAddr: 0x14DD0, symBinAddr: 0x25EE8, symSize: 0xE4 }
  - { offset: 0x5AE95, size: 0x8, addend: 0x0, symName: __RNvXsp_NtNtCs6IAuOt8vWmF_3syn4item8printingNtB7_13ImplItemMacroNtNtCs2cqEZUIJimJ_5quote9to_tokens8ToTokens9to_tokens, symObjAddr: 0x14EB4, symBinAddr: 0x25FCC, symSize: 0x74 }
  - { offset: 0x5AED4, size: 0x8, addend: 0x0, symName: __RNvXsq_NtNtCs6IAuOt8vWmF_3syn4item8printingNtB7_13ForeignItemFnNtNtCs2cqEZUIJimJ_5quote9to_tokens8ToTokens9to_tokens, symObjAddr: 0x14F28, symBinAddr: 0x26040, symSize: 0x84 }
  - { offset: 0x5AF13, size: 0x8, addend: 0x0, symName: __RNvXsr_NtNtCs6IAuOt8vWmF_3syn4item8printingNtB7_17ForeignItemStaticNtNtCs2cqEZUIJimJ_5quote9to_tokens8ToTokens9to_tokens, symObjAddr: 0x14FAC, symBinAddr: 0x260C4, symSize: 0xC4 }
  - { offset: 0x5AF52, size: 0x8, addend: 0x0, symName: __RNvXss_NtNtCs6IAuOt8vWmF_3syn4item8printingNtB7_15ForeignItemTypeNtNtCs2cqEZUIJimJ_5quote9to_tokens8ToTokens9to_tokens, symObjAddr: 0x15070, symBinAddr: 0x26188, symSize: 0xB4 }
  - { offset: 0x5AF91, size: 0x8, addend: 0x0, symName: __RNvXst_NtNtCs6IAuOt8vWmF_3syn4item8printingNtB7_16ForeignItemMacroNtNtCs2cqEZUIJimJ_5quote9to_tokens8ToTokens9to_tokens, symObjAddr: 0x15124, symBinAddr: 0x2623C, symSize: 0x74 }
  - { offset: 0x5AFD0, size: 0x8, addend: 0x0, symName: __RNvXsu_NtNtCs6IAuOt8vWmF_3syn4item8printingNtB7_9SignatureNtNtCs2cqEZUIJimJ_5quote9to_tokens8ToTokens9to_tokens, symObjAddr: 0x15198, symBinAddr: 0x262B0, symSize: 0xD4 }
  - { offset: 0x5B00F, size: 0x8, addend: 0x0, symName: __RNvXsv_NtNtCs6IAuOt8vWmF_3syn4item8printingNtB7_8ReceiverNtNtCs2cqEZUIJimJ_5quote9to_tokens8ToTokens9to_tokens, symObjAddr: 0x1526C, symBinAddr: 0x26384, symSize: 0x3FC }
  - { offset: 0x5B107, size: 0x8, addend: 0x0, symName: __RNvXsw_NtNtCs6IAuOt8vWmF_3syn4item8printingNtB7_8VariadicNtNtCs2cqEZUIJimJ_5quote9to_tokens8ToTokens9to_tokens, symObjAddr: 0x15668, symBinAddr: 0x26780, symSize: 0xE0 }
  - { offset: 0x5B174, size: 0x8, addend: 0x0, symName: __RNvXsx_NtNtCs6IAuOt8vWmF_3syn4item8printingNtB7_16StaticMutabilityNtNtCs2cqEZUIJimJ_5quote9to_tokens8ToTokens9to_tokens, symObjAddr: 0x15748, symBinAddr: 0x26860, symSize: 0x7C }
  - { offset: 0x5B1D7, size: 0x8, addend: 0x0, symName: __RNcNtNtNtCs6IAuOt8vWmF_3syn4item4Item4Enum0B7_, symObjAddr: 0x157C4, symBinAddr: 0x268DC, symSize: 0x3C }
  - { offset: 0x5B206, size: 0x8, addend: 0x0, symName: __RNcNtNtNtCs6IAuOt8vWmF_3syn4item4Item11ExternCrate0B7_, symObjAddr: 0x15800, symBinAddr: 0x26918, symSize: 0x3C }
  - { offset: 0x5B235, size: 0x8, addend: 0x0, symName: __RNcNtNtNtCs6IAuOt8vWmF_3syn4item4Item2Fn0B7_, symObjAddr: 0x1583C, symBinAddr: 0x26954, symSize: 0x30 }
  - { offset: 0x5B264, size: 0x8, addend: 0x0, symName: __RNcNtNtNtCs6IAuOt8vWmF_3syn4item4Item10ForeignMod0B7_, symObjAddr: 0x1586C, symBinAddr: 0x26984, symSize: 0x3C }
  - { offset: 0x5B293, size: 0x8, addend: 0x0, symName: __RNcNtNtNtCs6IAuOt8vWmF_3syn4item4Item5Macro0B7_, symObjAddr: 0x158A8, symBinAddr: 0x269C0, symSize: 0x3C }
  - { offset: 0x5B2C2, size: 0x8, addend: 0x0, symName: __RNcNtNtNtCs6IAuOt8vWmF_3syn4item4Item3Mod0B7_, symObjAddr: 0x158E4, symBinAddr: 0x269FC, symSize: 0x3C }
  - { offset: 0x5B2F1, size: 0x8, addend: 0x0, symName: __RNcNtNtNtCs6IAuOt8vWmF_3syn4item4Item6Struct0B7_, symObjAddr: 0x15920, symBinAddr: 0x26A38, symSize: 0x3C }
  - { offset: 0x5B320, size: 0x8, addend: 0x0, symName: __RNcNtNtNtCs6IAuOt8vWmF_3syn4item4Item5Trait0B7_, symObjAddr: 0x1595C, symBinAddr: 0x26A74, symSize: 0x3C }
  - { offset: 0x5B34F, size: 0x8, addend: 0x0, symName: __RNcNtNtNtCs6IAuOt8vWmF_3syn4item4Item10TraitAlias0B7_, symObjAddr: 0x15998, symBinAddr: 0x26AB0, symSize: 0x3C }
  - { offset: 0x5B37E, size: 0x8, addend: 0x0, symName: __RNcNtNtNtCs6IAuOt8vWmF_3syn4item4Item5Union0B7_, symObjAddr: 0x159D4, symBinAddr: 0x26AEC, symSize: 0x3C }
  - { offset: 0x5B3AE, size: 0x8, addend: 0x0, symName: __RNvXsk_NtCs6IAuOt8vWmF_3syn4itemNtB5_4ItemNtNtCs2cqEZUIJimJ_5quote9to_tokens8ToTokens9to_tokens, symObjAddr: 0x15E78, symBinAddr: 0x26B28, symSize: 0x230 }
  - { offset: 0x5B5C0, size: 0x8, addend: 0x0, symName: __RNvXsq_NtCs6IAuOt8vWmF_3syn4itemNtB5_7UseTreeNtNtCs2cqEZUIJimJ_5quote9to_tokens8ToTokens9to_tokens, symObjAddr: 0x161F4, symBinAddr: 0x26D58, symSize: 0x10C }
  - { offset: 0x5B692, size: 0x8, addend: 0x0, symName: __RNcNtNtNtCs6IAuOt8vWmF_3syn4item11ForeignItem5Macro0B7_, symObjAddr: 0x16300, symBinAddr: 0x26E64, symSize: 0x3C }
  - { offset: 0x5B6C4, size: 0x8, addend: 0x0, symName: __RNvXsv_NtCs6IAuOt8vWmF_3syn4itemNtB5_11ForeignItemNtNtCs2cqEZUIJimJ_5quote9to_tokens8ToTokens9to_tokens, symObjAddr: 0x16460, symBinAddr: 0x26EA0, symSize: 0x118 }
  - { offset: 0x5B796, size: 0x8, addend: 0x0, symName: __RNcNtNtNtCs6IAuOt8vWmF_3syn4item9TraitItem2Fn0B7_, symObjAddr: 0x16578, symBinAddr: 0x26FB8, symSize: 0x3C }
  - { offset: 0x5B7C7, size: 0x8, addend: 0x0, symName: __RNcNtNtNtCs6IAuOt8vWmF_3syn4item9TraitItem5Macro0B7_, symObjAddr: 0x165B4, symBinAddr: 0x26FF4, symSize: 0x3C }
  - { offset: 0x5B7F9, size: 0x8, addend: 0x0, symName: __RNvXsA_NtCs6IAuOt8vWmF_3syn4itemNtB5_9TraitItemNtNtCs2cqEZUIJimJ_5quote9to_tokens8ToTokens9to_tokens, symObjAddr: 0x16714, symBinAddr: 0x27030, symSize: 0x118 }
  - { offset: 0x5B8CB, size: 0x8, addend: 0x0, symName: __RNcNtNtNtCs6IAuOt8vWmF_3syn4item8ImplItem5Macro0B7_, symObjAddr: 0x1682C, symBinAddr: 0x27148, symSize: 0x3C }
  - { offset: 0x5B8FD, size: 0x8, addend: 0x0, symName: __RNvXsF_NtCs6IAuOt8vWmF_3syn4itemNtB5_8ImplItemNtNtCs2cqEZUIJimJ_5quote9to_tokens8ToTokens9to_tokens, symObjAddr: 0x1698C, symBinAddr: 0x27184, symSize: 0x118 }
  - { offset: 0x5B9CA, size: 0x8, addend: 0x0, symName: __RNvXsI_NtCs6IAuOt8vWmF_3syn4itemNtB5_5FnArgNtNtCs2cqEZUIJimJ_5quote9to_tokens8ToTokens9to_tokens, symObjAddr: 0x16B30, symBinAddr: 0x2729C, symSize: 0x8C }
  - { offset: 0x5BA45, size: 0x8, addend: 0x0, symName: __RNcNtNtNtCs6IAuOt8vWmF_3syn4item16StaticMutability3Mut0B7_, symObjAddr: 0x16BBC, symBinAddr: 0x27328, symSize: 0x20 }
  - { offset: 0x642A0, size: 0x8, addend: 0x0, symName: __RNvMNtCsfvfooZQ3Axs_4core5sliceSTNtNtCs6IAuOt8vWmF_3syn4item5FnArgNtNtBz_5token5CommaE4iterBz_, symObjAddr: 0x1480, symBinAddr: 0x19E5C, symSize: 0x28 }
  - { offset: 0x642D7, size: 0x8, addend: 0x0, symName: __RNvMNtCsfvfooZQ3Axs_4core5sliceSTNtNtCs6IAuOt8vWmF_3syn4item7UseTreeNtNtBz_5token5CommaE4iterBz_, symObjAddr: 0x14A8, symBinAddr: 0x19E84, symSize: 0x28 }
  - { offset: 0x65743, size: 0x8, addend: 0x0, symName: __RNvXNtCs2cqEZUIJimJ_5quote9to_tokensRNtNtCs6IAuOt8vWmF_3syn4item11ForeignItemNtB2_8ToTokens9to_tokensBD_, symObjAddr: 0x14D0, symBinAddr: 0x19EAC, symSize: 0x40 }
  - { offset: 0x65782, size: 0x8, addend: 0x0, symName: __RNvXNtCs2cqEZUIJimJ_5quote9to_tokensRNtNtCs6IAuOt8vWmF_3syn4item4ItemNtB2_8ToTokens9to_tokensBD_, symObjAddr: 0x1510, symBinAddr: 0x19EEC, symSize: 0x40 }
  - { offset: 0x657C1, size: 0x8, addend: 0x0, symName: __RNvXNtCs2cqEZUIJimJ_5quote9to_tokensRNtNtCs6IAuOt8vWmF_3syn4item5FnArgNtB2_8ToTokens9to_tokensBD_, symObjAddr: 0x1550, symBinAddr: 0x19F2C, symSize: 0x40 }
  - { offset: 0x65800, size: 0x8, addend: 0x0, symName: __RNvXNtCs2cqEZUIJimJ_5quote9to_tokensRNtNtCs6IAuOt8vWmF_3syn4item7UseTreeNtB2_8ToTokens9to_tokensBD_, symObjAddr: 0x1590, symBinAddr: 0x19F6C, symSize: 0x40 }
  - { offset: 0x6583F, size: 0x8, addend: 0x0, symName: __RNvXNtCs2cqEZUIJimJ_5quote9to_tokensRNtNtCs6IAuOt8vWmF_3syn4item8ImplItemNtB2_8ToTokens9to_tokensBD_, symObjAddr: 0x15D0, symBinAddr: 0x19FAC, symSize: 0x40 }
  - { offset: 0x6587E, size: 0x8, addend: 0x0, symName: __RNvXNtCs2cqEZUIJimJ_5quote9to_tokensRNtNtCs6IAuOt8vWmF_3syn4item9TraitItemNtB2_8ToTokens9to_tokensBD_, symObjAddr: 0x1610, symBinAddr: 0x19FEC, symSize: 0x40 }
  - { offset: 0x658C0, size: 0x8, addend: 0x0, symName: __RNvMNtCs6IAuOt8vWmF_3syn4itemNtB2_4Item13replace_attrs, symObjAddr: 0x2BF8, symBinAddr: 0x1A02C, symSize: 0x328 }
  - { offset: 0x65E72, size: 0x8, addend: 0x0, symName: __RINvMs_NtCse1nGBsou5OW_5alloc3vecINtB5_3VecReE10retain_mutNCNvMNtCs6IAuOt8vWmF_3syn9lookaheadNtBZ_10Lookahead15error0EB11_, symObjAddr: 0x0, symBinAddr: 0x27348, symSize: 0xE4 }
  - { offset: 0x66C17, size: 0x8, addend: 0x0, symName: __RNvXs1a_NtCsfvfooZQ3Axs_4core3fmtRINtNtCse1nGBsou5OW_5alloc3vec3VechENtB6_5Debug3fmtCs6IAuOt8vWmF_3syn, symObjAddr: 0x6C30, symBinAddr: 0x2BD48, symSize: 0x30 }
  - { offset: 0x6D5A2, size: 0x8, addend: 0x0, symName: __RNvXs1_NtCsfvfooZQ3Axs_4core7convertINtNtCse1nGBsou5OW_5alloc3vec3VechEINtB5_4IntoBy_E4intoCs6IAuOt8vWmF_3syn, symObjAddr: 0x6BE8, symBinAddr: 0x2BD30, symSize: 0x18 }
  - { offset: 0x6D7DF, size: 0x8, addend: 0x0, symName: __RINvNvMs_NtCse1nGBsou5OW_5alloc3vecINtB7_3VecppE10retain_mut12process_loopNCNvMNtCs6IAuOt8vWmF_3syn9lookaheadNtB1f_10Lookahead15error0ReNtNtB9_5alloc6GlobalKb0_EB1h_, symObjAddr: 0xC64, symBinAddr: 0x27AFC, symSize: 0xCC }
  - { offset: 0x6D933, size: 0x8, addend: 0x0, symName: __RINvNvMs_NtCse1nGBsou5OW_5alloc3vecINtB7_3VecppE10retain_mut12process_loopNCNvMNtCs6IAuOt8vWmF_3syn9lookaheadNtB1f_10Lookahead15error0ReNtNtB9_5alloc6GlobalKb1_EB1h_, symObjAddr: 0xD30, symBinAddr: 0x27BC8, symSize: 0x168 }
  - { offset: 0x6DB29, size: 0x8, addend: 0x0, symName: __RNvXNvMs_NtCse1nGBsou5OW_5alloc3vecINtB7_3VecppE10retain_mutINtB2_15BackshiftOnDropReNtNtB9_5alloc6GlobalENtNtNtCsfvfooZQ3Axs_4core3ops4drop4Drop4dropCs6IAuOt8vWmF_3syn, symObjAddr: 0x681C, symBinAddr: 0x2B9FC, symSize: 0x124 }
  - { offset: 0x70594, size: 0x8, addend: 0x0, symName: __RINvXsh_NtCse1nGBsou5OW_5alloc3vecINtB6_3VecNtCs3cP53eQoTwO_11proc_macro29TokenTreeEINtNtNtNtCsfvfooZQ3Axs_4core4iter6traits7collect6ExtendBG_E6extendINtNtNtB1r_8adapters7flatten7FlattenINtNtB2t_3map3MapIB2Z_IB2Z_INtNtNtB1t_5slice4iter4IterNtNtCs6IAuOt8vWmF_3syn5error12ErrorMessageENvMs_B3S_B3Q_16to_compile_errorENCINvXs7_BI_NtBI_11TokenStreamINtB1n_12FromIteratorB5f_E9from_iterB3k_E0ENCINvXs6_NtBI_3impNtB6n_11TokenStreamIB5y_B6w_E9from_iterB3f_Es_0EEEB3U_, symObjAddr: 0xED4, symBinAddr: 0x27D30, symSize: 0x48 }
  - { offset: 0x705E9, size: 0x8, addend: 0x0, symName: __RINvXsh_NtCse1nGBsou5OW_5alloc3vecINtB6_3VecNtNtCs6IAuOt8vWmF_3syn4attr9AttributeEINtNtNtNtCsfvfooZQ3Axs_4core4iter6traits7collect6ExtendBG_E6extendBw_EBK_, symObjAddr: 0xF1C, symBinAddr: 0x27D78, symSize: 0x48 }
  - { offset: 0x7063E, size: 0x8, addend: 0x0, symName: __RINvXsh_NtCse1nGBsou5OW_5alloc3vecINtB6_3VecNtNtCs6IAuOt8vWmF_3syn8generics14TypeParamBoundEINtNtNtNtCsfvfooZQ3Axs_4core4iter6traits7collect6ExtendBG_E6extendINtNtB1B_6option6OptionBG_EEBK_, symObjAddr: 0x108C, symBinAddr: 0x27DC0, symSize: 0x48 }
  - { offset: 0x70693, size: 0x8, addend: 0x0, symName: __RINvXsh_NtCse1nGBsou5OW_5alloc3vecINtB6_3VecNtNtCs6IAuOt8vWmF_3syn8generics14TypeParamBoundEINtNtNtNtCsfvfooZQ3Axs_4core4iter6traits7collect6ExtendBG_E6extendINtNtNtB1z_8adapters3map3MapINtNtB6_9into_iter8IntoIterTBG_NtNtBK_5token4PlusEENCNvXs8_NtBK_10punctuatedINtB3V_10PunctuatedBG_B3t_ENtB1v_12IntoIterator9into_iter0EEBK_, symObjAddr: 0x10D4, symBinAddr: 0x27E08, symSize: 0x48 }
  - { offset: 0x706F3, size: 0x8, addend: 0x0, symName: __RNCINvMsi_NtCse1nGBsou5OW_5alloc3vecINtB8_3VecNtNtCs6IAuOt8vWmF_3syn8generics14TypeParamBoundE14extend_trustedINtNtCsfvfooZQ3Axs_4core6option8IntoIterBI_EE0BM_, symObjAddr: 0x1218, symBinAddr: 0x27E50, symSize: 0x54 }
  - { offset: 0x707B1, size: 0x8, addend: 0x0, symName: __RNCINvMsi_NtCse1nGBsou5OW_5alloc3vecINtB8_3VecNtNtCs6IAuOt8vWmF_3syn8generics14TypeParamBoundE14extend_trustedINtNtNtNtCsfvfooZQ3Axs_4core4iter8adapters3map3MapINtNtB8_9into_iter8IntoIterTBI_NtNtBM_5token4PlusEENCNvXs8_NtBM_10punctuatedINtB3v_10PunctuatedBI_B33_ENtNtNtB1R_6traits7collect12IntoIterator9into_iter0EE0BM_, symObjAddr: 0x126C, symBinAddr: 0x27EA4, symSize: 0x54 }
  - { offset: 0x70CB1, size: 0x8, addend: 0x0, symName: __RNvXs6_NtCse1nGBsou5OW_5alloc3vecINtB5_3VecNtNtCs6IAuOt8vWmF_3syn4attr9AttributeENtNtNtCsfvfooZQ3Axs_4core3ops5deref5Deref5derefBJ_, symObjAddr: 0x6C60, symBinAddr: 0x2BD78, symSize: 0x24 }
  - { offset: 0x70CF1, size: 0x8, addend: 0x0, symName: __RNvXs6_NtCse1nGBsou5OW_5alloc3vecINtB5_3VecNtNtCs6IAuOt8vWmF_3syn4expr3ArmENtNtNtCsfvfooZQ3Axs_4core3ops5deref5Deref5derefBJ_, symObjAddr: 0x6C84, symBinAddr: 0x2BD9C, symSize: 0x24 }
  - { offset: 0x70D31, size: 0x8, addend: 0x0, symName: __RNvXs6_NtCse1nGBsou5OW_5alloc3vecINtB5_3VecNtNtCs6IAuOt8vWmF_3syn5error12ErrorMessageENtNtNtCsfvfooZQ3Axs_4core3ops5deref5Deref5derefBJ_, symObjAddr: 0x6CA8, symBinAddr: 0x2BDC0, symSize: 0x24 }
  - { offset: 0x70D71, size: 0x8, addend: 0x0, symName: __RNvXs6_NtCse1nGBsou5OW_5alloc3vecINtB5_3VecReENtNtNtCsfvfooZQ3Axs_4core3ops5deref5Deref5derefCs6IAuOt8vWmF_3syn, symObjAddr: 0x6CCC, symBinAddr: 0x2BDE4, symSize: 0x24 }
  - { offset: 0x70DB1, size: 0x8, addend: 0x0, symName: __RNvXs6_NtCse1nGBsou5OW_5alloc3vecINtB5_3VecTNtNtCs6IAuOt8vWmF_3syn2ty4TypeNtNtBK_5token5CommaEENtNtNtCsfvfooZQ3Axs_4core3ops5deref5Deref5derefBK_, symObjAddr: 0x6CF0, symBinAddr: 0x2BE08, symSize: 0x24 }
  - { offset: 0x70DF1, size: 0x8, addend: 0x0, symName: __RNvXs6_NtCse1nGBsou5OW_5alloc3vecINtB5_3VecTNtNtCs6IAuOt8vWmF_3syn2ty9BareFnArgNtNtBK_5token5CommaEENtNtNtCsfvfooZQ3Axs_4core3ops5deref5Deref5derefBK_, symObjAddr: 0x6D14, symBinAddr: 0x2BE2C, symSize: 0x24 }
  - { offset: 0x70E31, size: 0x8, addend: 0x0, symName: __RNvXs6_NtCse1nGBsou5OW_5alloc3vecINtB5_3VecTNtNtCs6IAuOt8vWmF_3syn3pat3PatNtNtBK_5token2OrEENtNtNtCsfvfooZQ3Axs_4core3ops5deref5Deref5derefBK_, symObjAddr: 0x6D38, symBinAddr: 0x2BE50, symSize: 0x24 }
  - { offset: 0x70E71, size: 0x8, addend: 0x0, symName: __RNvXs6_NtCse1nGBsou5OW_5alloc3vecINtB5_3VecTNtNtCs6IAuOt8vWmF_3syn3pat3PatNtNtBK_5token5CommaEENtNtNtCsfvfooZQ3Axs_4core3ops5deref5Deref5derefBK_, symObjAddr: 0x6D5C, symBinAddr: 0x2BE74, symSize: 0x24 }
  - { offset: 0x70EB1, size: 0x8, addend: 0x0, symName: __RNvXs6_NtCse1nGBsou5OW_5alloc3vecINtB5_3VecTNtNtCs6IAuOt8vWmF_3syn3pat8FieldPatNtNtBK_5token5CommaEENtNtNtCsfvfooZQ3Axs_4core3ops5deref5Deref5derefBK_, symObjAddr: 0x6D80, symBinAddr: 0x2BE98, symSize: 0x24 }
  - { offset: 0x70EF1, size: 0x8, addend: 0x0, symName: __RNvXs6_NtCse1nGBsou5OW_5alloc3vecINtB5_3VecTNtNtCs6IAuOt8vWmF_3syn4data5FieldNtNtBK_5token5CommaEENtNtNtCsfvfooZQ3Axs_4core3ops5deref5Deref5derefBK_, symObjAddr: 0x6DA4, symBinAddr: 0x2BEBC, symSize: 0x24 }
  - { offset: 0x70F31, size: 0x8, addend: 0x0, symName: __RNvXs6_NtCse1nGBsou5OW_5alloc3vecINtB5_3VecTNtNtCs6IAuOt8vWmF_3syn4data7VariantNtNtBK_5token5CommaEENtNtNtCsfvfooZQ3Axs_4core3ops5deref5Deref5derefBK_, symObjAddr: 0x6DC8, symBinAddr: 0x2BEE0, symSize: 0x24 }
  - { offset: 0x70F71, size: 0x8, addend: 0x0, symName: __RNvXs6_NtCse1nGBsou5OW_5alloc3vecINtB5_3VecTNtNtCs6IAuOt8vWmF_3syn4expr10FieldValueNtNtBK_5token5CommaEENtNtNtCsfvfooZQ3Axs_4core3ops5deref5Deref5derefBK_, symObjAddr: 0x6DEC, symBinAddr: 0x2BF04, symSize: 0x24 }
  - { offset: 0x70FB1, size: 0x8, addend: 0x0, symName: __RNvXs6_NtCse1nGBsou5OW_5alloc3vecINtB5_3VecTNtNtCs6IAuOt8vWmF_3syn4expr4ExprNtNtBK_5token5CommaEENtNtNtCsfvfooZQ3Axs_4core3ops5deref5Deref5derefBK_, symObjAddr: 0x6E10, symBinAddr: 0x2BF28, symSize: 0x24 }
  - { offset: 0x70FF1, size: 0x8, addend: 0x0, symName: __RNvXs6_NtCse1nGBsou5OW_5alloc3vecINtB5_3VecTNtNtCs6IAuOt8vWmF_3syn4item5FnArgNtNtBK_5token5CommaEENtNtNtCsfvfooZQ3Axs_4core3ops5deref5Deref5derefBK_, symObjAddr: 0x6E34, symBinAddr: 0x2BF4C, symSize: 0x24 }
  - { offset: 0x71031, size: 0x8, addend: 0x0, symName: __RNvXs6_NtCse1nGBsou5OW_5alloc3vecINtB5_3VecTNtNtCs6IAuOt8vWmF_3syn4item7UseTreeNtNtBK_5token5CommaEENtNtNtCsfvfooZQ3Axs_4core3ops5deref5Deref5derefBK_, symObjAddr: 0x6E58, symBinAddr: 0x2BF70, symSize: 0x24 }
  - { offset: 0x71071, size: 0x8, addend: 0x0, symName: __RNvXs6_NtCse1nGBsou5OW_5alloc3vecINtB5_3VecTNtNtCs6IAuOt8vWmF_3syn4path11PathSegmentNtNtBK_5token7PathSepEENtNtNtCsfvfooZQ3Axs_4core3ops5deref5Deref5derefBK_, symObjAddr: 0x6E7C, symBinAddr: 0x2BF94, symSize: 0x24 }
  - { offset: 0x710B1, size: 0x8, addend: 0x0, symName: __RNvXs6_NtCse1nGBsou5OW_5alloc3vecINtB5_3VecTNtNtCs6IAuOt8vWmF_3syn4path15GenericArgumentNtNtBK_5token5CommaEENtNtNtCsfvfooZQ3Axs_4core3ops5deref5Deref5derefBK_, symObjAddr: 0x6EA0, symBinAddr: 0x2BFB8, symSize: 0x24 }
  - { offset: 0x710F1, size: 0x8, addend: 0x0, symName: __RNvXs6_NtCse1nGBsou5OW_5alloc3vecINtB5_3VecTNtNtCs6IAuOt8vWmF_3syn8generics12GenericParamNtNtBK_5token5CommaEENtNtNtCsfvfooZQ3Axs_4core3ops5deref5Deref5derefBK_, symObjAddr: 0x6EC4, symBinAddr: 0x2BFDC, symSize: 0x24 }
  - { offset: 0x71131, size: 0x8, addend: 0x0, symName: __RNvXs6_NtCse1nGBsou5OW_5alloc3vecINtB5_3VecTNtNtCs6IAuOt8vWmF_3syn8generics13CapturedParamNtNtBK_5token5CommaEENtNtNtCsfvfooZQ3Axs_4core3ops5deref5Deref5derefBK_, symObjAddr: 0x6EE8, symBinAddr: 0x2C000, symSize: 0x24 }
  - { offset: 0x71171, size: 0x8, addend: 0x0, symName: __RNvXs6_NtCse1nGBsou5OW_5alloc3vecINtB5_3VecTNtNtCs6IAuOt8vWmF_3syn8generics14TypeParamBoundNtNtBK_5token4PlusEENtNtNtCsfvfooZQ3Axs_4core3ops5deref5Deref5derefBK_, symObjAddr: 0x6F0C, symBinAddr: 0x2C024, symSize: 0x24 }
  - { offset: 0x711B1, size: 0x8, addend: 0x0, symName: __RNvXs6_NtCse1nGBsou5OW_5alloc3vecINtB5_3VecTNtNtCs6IAuOt8vWmF_3syn8generics14WherePredicateNtNtBK_5token5CommaEENtNtNtCsfvfooZQ3Axs_4core3ops5deref5Deref5derefBK_, symObjAddr: 0x6F30, symBinAddr: 0x2C048, symSize: 0x24 }
  - { offset: 0x711F1, size: 0x8, addend: 0x0, symName: __RNvXs6_NtCse1nGBsou5OW_5alloc3vecINtB5_3VecTNtNtCs6IAuOt8vWmF_3syn8lifetime8LifetimeNtNtBK_5token4PlusEENtNtNtCsfvfooZQ3Axs_4core3ops5deref5Deref5derefBK_, symObjAddr: 0x6F54, symBinAddr: 0x2C06C, symSize: 0x24 }
  - { offset: 0x71231, size: 0x8, addend: 0x0, symName: __RNvXs6_NtCse1nGBsou5OW_5alloc3vecINtB5_3VechENtNtNtCsfvfooZQ3Axs_4core3ops5deref5Deref5derefCs6IAuOt8vWmF_3syn, symObjAddr: 0x6F78, symBinAddr: 0x2C090, symSize: 0x24 }
  - { offset: 0x71517, size: 0x8, addend: 0x0, symName: __RNvXsb_NtCse1nGBsou5OW_5alloc3vecINtB5_3VecNtNtCs6IAuOt8vWmF_3syn5error12ErrorMessageEINtNtNtCsfvfooZQ3Axs_4core3ops5index5IndexjE5indexBJ_, symObjAddr: 0x7EA4, symBinAddr: 0x2C15C, symSize: 0x84 }
  - { offset: 0x71699, size: 0x8, addend: 0x0, symName: __RNvXsb_NtCse1nGBsou5OW_5alloc3vecINtB5_3VecReEINtNtNtCsfvfooZQ3Axs_4core3ops5index5IndexjE5indexCs6IAuOt8vWmF_3syn, symObjAddr: 0x7F28, symBinAddr: 0x2C1E0, symSize: 0x84 }
  - { offset: 0x7181B, size: 0x8, addend: 0x0, symName: __RNvXsb_NtCse1nGBsou5OW_5alloc3vecINtB5_3VecTNtNtCs6IAuOt8vWmF_3syn3pat3PatNtNtBK_5token5CommaEEINtNtNtCsfvfooZQ3Axs_4core3ops5index5IndexjE5indexBK_, symObjAddr: 0x7FAC, symBinAddr: 0x2C264, symSize: 0x84 }
  - { offset: 0x7199D, size: 0x8, addend: 0x0, symName: __RNvXsb_NtCse1nGBsou5OW_5alloc3vecINtB5_3VecTNtNtCs6IAuOt8vWmF_3syn4path11PathSegmentNtNtBK_5token7PathSepEEINtNtNtCsfvfooZQ3Axs_4core3ops5index5IndexjE5indexBK_, symObjAddr: 0x8030, symBinAddr: 0x2C2E8, symSize: 0x84 }
  - { offset: 0x71B1F, size: 0x8, addend: 0x0, symName: __RNvXsb_NtCse1nGBsou5OW_5alloc3vecINtB5_3VechEINtNtNtCsfvfooZQ3Axs_4core3ops5index5IndexINtNtBM_5range9RangeFromjEE5indexCs6IAuOt8vWmF_3syn, symObjAddr: 0x80B4, symBinAddr: 0x2C36C, symSize: 0x80 }
  - { offset: 0x71CA1, size: 0x8, addend: 0x0, symName: __RNvXsb_NtCse1nGBsou5OW_5alloc3vecINtB5_3VechEINtNtNtCsfvfooZQ3Axs_4core3ops5index5IndexjE5indexCs6IAuOt8vWmF_3syn, symObjAddr: 0x8134, symBinAddr: 0x2C3EC, symSize: 0x80 }
  - { offset: 0x71E2E, size: 0x8, addend: 0x0, symName: __RNvXNtNtCse1nGBsou5OW_5alloc3vec11spec_extendINtB4_3VecNtCs3cP53eQoTwO_11proc_macro29TokenTreeEINtB2_10SpecExtendBR_INtNtNtNtCsfvfooZQ3Axs_4core4iter8adapters7flatten7FlattenINtNtB1V_3map3MapIB2N_IB2N_INtNtNtB1Z_5slice4iter4IterNtNtCs6IAuOt8vWmF_3syn5error12ErrorMessageENvMs_B3G_B3E_16to_compile_errorENCINvXs7_BT_NtBT_11TokenStreamINtNtNtB1X_6traits7collect12FromIteratorB53_E9from_iterB38_E0ENCINvXs6_NtBT_3impNtB6u_11TokenStreamIB5m_B6D_E9from_iterB33_Es_0EEE11spec_extendB3I_, symObjAddr: 0x6590, symBinAddr: 0x2B9B4, symSize: 0x24 }
  - { offset: 0x71E80, size: 0x8, addend: 0x0, symName: __RNvXNtNtCse1nGBsou5OW_5alloc3vec11spec_extendINtB4_3VecNtCs3cP53eQoTwO_11proc_macro29TokenTreeEINtB2_10SpecExtendBR_NtNtBT_12token_stream8IntoIterE11spec_extendCs6IAuOt8vWmF_3syn, symObjAddr: 0x65B4, symBinAddr: 0x2B9D8, symSize: 0x24 }
  - { offset: 0x71ED8, size: 0x8, addend: 0x0, symName: __RNvXs0_NtNtCse1nGBsou5OW_5alloc3vec11spec_extendINtB7_3VecNtNtCs6IAuOt8vWmF_3syn4attr9AttributeEINtB5_10SpecExtendBU_INtNtB7_9into_iter8IntoIterBU_EE11spec_extendBY_, symObjAddr: 0x6AB8, symBinAddr: 0x2BC98, symSize: 0x98 }
  - { offset: 0x71F44, size: 0x8, addend: 0x0, symName: __RNvXs_NtNtCse1nGBsou5OW_5alloc3vec11spec_extendINtB6_3VecNtNtCs6IAuOt8vWmF_3syn8generics14TypeParamBoundEINtB4_10SpecExtendBT_INtNtCsfvfooZQ3Axs_4core6option8IntoIterBT_EE11spec_extendBX_, symObjAddr: 0x7E5C, symBinAddr: 0x2C114, symSize: 0x24 }
  - { offset: 0x71F96, size: 0x8, addend: 0x0, symName: __RNvXs_NtNtCse1nGBsou5OW_5alloc3vec11spec_extendINtB6_3VecNtNtCs6IAuOt8vWmF_3syn8generics14TypeParamBoundEINtB4_10SpecExtendBT_INtNtNtNtCsfvfooZQ3Axs_4core4iter8adapters3map3MapINtNtB6_9into_iter8IntoIterTBT_NtNtBX_5token4PlusEENCNvXs8_NtBX_10punctuatedINtB3L_10PunctuatedBT_B3j_ENtNtNtB27_6traits7collect12IntoIterator9into_iter0EE11spec_extendBX_, symObjAddr: 0x7E80, symBinAddr: 0x2C138, symSize: 0x24 }
  - { offset: 0x71FEF, size: 0x8, addend: 0x0, symName: __RNvXs7_NtCse1nGBsou5OW_5alloc3vecINtB5_3VecTNtNtCs6IAuOt8vWmF_3syn4path11PathSegmentNtNtBK_5token7PathSepEENtNtNtCsfvfooZQ3Axs_4core3ops5deref8DerefMut9deref_mutBK_, symObjAddr: 0x6FC0, symBinAddr: 0x2C0B4, symSize: 0x24 }
  - { offset: 0x7202F, size: 0x8, addend: 0x0, symName: __RNvXs7_NtCse1nGBsou5OW_5alloc3vecINtB5_3VecTNtNtCs6IAuOt8vWmF_3syn8generics12GenericParamNtNtBK_5token5CommaEENtNtNtCsfvfooZQ3Axs_4core3ops5deref8DerefMut9deref_mutBK_, symObjAddr: 0x6FE4, symBinAddr: 0x2C0D8, symSize: 0x24 }
  - { offset: 0x72105, size: 0x8, addend: 0x0, symName: __RNvXsc_NtCse1nGBsou5OW_5alloc3vecINtB5_3VecNtNtCs6IAuOt8vWmF_3syn6buffer5EntryEINtNtNtCsfvfooZQ3Axs_4core3ops5index8IndexMutjE9index_mutBJ_, symObjAddr: 0x81B4, symBinAddr: 0x2C46C, symSize: 0x84 }
  - { offset: 0x72259, size: 0x8, addend: 0x0, symName: __RNvXsc_NtCse1nGBsou5OW_5alloc3vecINtB5_3VechEINtNtNtCsfvfooZQ3Axs_4core3ops5index8IndexMutjE9index_mutCs6IAuOt8vWmF_3syn, symObjAddr: 0x8238, symBinAddr: 0x2C4F0, symSize: 0x80 }
  - { offset: 0x723B3, size: 0x8, addend: 0x0, symName: __RNvXse_NtCse1nGBsou5OW_5alloc3vecINtB5_3VecNtNtCs6IAuOt8vWmF_3syn4attr9AttributeENtNtNtNtCsfvfooZQ3Axs_4core4iter6traits7collect12IntoIterator9into_iterBJ_, symObjAddr: 0x82B8, symBinAddr: 0x2C570, symSize: 0xDC }
  - { offset: 0x72645, size: 0x8, addend: 0x0, symName: __RNvXse_NtCse1nGBsou5OW_5alloc3vecINtB5_3VecNtNtCs6IAuOt8vWmF_3syn8generics14TypeParamBoundENtNtNtNtCsfvfooZQ3Axs_4core4iter6traits7collect12IntoIterator9into_iterBJ_, symObjAddr: 0x855C, symBinAddr: 0x2C64C, symSize: 0xE4 }
  - { offset: 0x728D7, size: 0x8, addend: 0x0, symName: __RNvXse_NtCse1nGBsou5OW_5alloc3vecINtB5_3VecTNtNtCs6IAuOt8vWmF_3syn4path11PathSegmentNtNtBK_5token7PathSepEENtNtNtNtCsfvfooZQ3Axs_4core4iter6traits7collect12IntoIterator9into_iterBK_, symObjAddr: 0x8808, symBinAddr: 0x2C730, symSize: 0xE4 }
  - { offset: 0x72B69, size: 0x8, addend: 0x0, symName: __RNvXse_NtCse1nGBsou5OW_5alloc3vecINtB5_3VecTNtNtCs6IAuOt8vWmF_3syn8generics14TypeParamBoundNtNtBK_5token4PlusEENtNtNtNtCsfvfooZQ3Axs_4core4iter6traits7collect12IntoIterator9into_iterBK_, symObjAddr: 0x88EC, symBinAddr: 0x2C814, symSize: 0xDC }
  - { offset: 0x72E01, size: 0x8, addend: 0x0, symName: __RNvXsf_NtCse1nGBsou5OW_5alloc3vecRINtB5_3VecNtNtCs6IAuOt8vWmF_3syn4attr9AttributeENtNtNtNtCsfvfooZQ3Axs_4core4iter6traits7collect12IntoIterator9into_iterBK_, symObjAddr: 0x89C8, symBinAddr: 0x2C8F0, symSize: 0x9C }
  - { offset: 0x7305D, size: 0x8, addend: 0x0, symName: __RNvXsf_NtCse1nGBsou5OW_5alloc3vecRINtB5_3VecNtNtCs6IAuOt8vWmF_3syn4item11ForeignItemENtNtNtNtCsfvfooZQ3Axs_4core4iter6traits7collect12IntoIterator9into_iterBK_, symObjAddr: 0x8A64, symBinAddr: 0x2C98C, symSize: 0xA4 }
  - { offset: 0x732B9, size: 0x8, addend: 0x0, symName: __RNvXsf_NtCse1nGBsou5OW_5alloc3vecRINtB5_3VecNtNtCs6IAuOt8vWmF_3syn4item4ItemENtNtNtNtCsfvfooZQ3Axs_4core4iter6traits7collect12IntoIterator9into_iterBK_, symObjAddr: 0x8B08, symBinAddr: 0x2CA30, symSize: 0xA4 }
  - { offset: 0x73515, size: 0x8, addend: 0x0, symName: __RNvXsf_NtCse1nGBsou5OW_5alloc3vecRINtB5_3VecNtNtCs6IAuOt8vWmF_3syn4item8ImplItemENtNtNtNtCsfvfooZQ3Axs_4core4iter6traits7collect12IntoIterator9into_iterBK_, symObjAddr: 0x8BAC, symBinAddr: 0x2CAD4, symSize: 0xA4 }
  - { offset: 0x73771, size: 0x8, addend: 0x0, symName: __RNvXsf_NtCse1nGBsou5OW_5alloc3vecRINtB5_3VecNtNtCs6IAuOt8vWmF_3syn4item9TraitItemENtNtNtNtCsfvfooZQ3Axs_4core4iter6traits7collect12IntoIterator9into_iterBK_, symObjAddr: 0x8C50, symBinAddr: 0x2CB78, symSize: 0xA4 }
  - { offset: 0x739CD, size: 0x8, addend: 0x0, symName: __RNvXsf_NtCse1nGBsou5OW_5alloc3vecRINtB5_3VecNtNtCs6IAuOt8vWmF_3syn4stmt4StmtENtNtNtNtCsfvfooZQ3Axs_4core4iter6traits7collect12IntoIterator9into_iterBK_, symObjAddr: 0x8CF4, symBinAddr: 0x2CC1C, symSize: 0xA4 }
  - { offset: 0x73C2F, size: 0x8, addend: 0x0, symName: __RNvXsg_NtCse1nGBsou5OW_5alloc3vecQINtB5_3VechENtNtNtNtCsfvfooZQ3Axs_4core4iter6traits7collect12IntoIterator9into_iterCs6IAuOt8vWmF_3syn, symObjAddr: 0x9918, symBinAddr: 0x2CCC0, symSize: 0x98 }
  - { offset: 0x73E63, size: 0x8, addend: 0x0, symName: __RNvXsn_NtCse1nGBsou5OW_5alloc3vecINtB5_3VecNtNtCs6IAuOt8vWmF_3syn4attr9AttributeENtNtNtCsfvfooZQ3Axs_4core3ops4drop4Drop4dropBJ_, symObjAddr: 0x99B0, symBinAddr: 0x2CD58, symSize: 0x38 }
  - { offset: 0x73F13, size: 0x8, addend: 0x0, symName: __RNvXsn_NtCse1nGBsou5OW_5alloc3vecINtB5_3VecNtNtCs6IAuOt8vWmF_3syn4expr3ArmENtNtNtCsfvfooZQ3Axs_4core3ops4drop4Drop4dropBJ_, symObjAddr: 0x9A20, symBinAddr: 0x2CD90, symSize: 0x38 }
  - { offset: 0x73FC3, size: 0x8, addend: 0x0, symName: __RNvXsn_NtCse1nGBsou5OW_5alloc3vecINtB5_3VecNtNtCs6IAuOt8vWmF_3syn4expr6ExprIfENtNtNtCsfvfooZQ3Axs_4core3ops4drop4Drop4dropBJ_, symObjAddr: 0x9A58, symBinAddr: 0x2CDC8, symSize: 0x38 }
  - { offset: 0x74073, size: 0x8, addend: 0x0, symName: __RNvXsn_NtCse1nGBsou5OW_5alloc3vecINtB5_3VecNtNtCs6IAuOt8vWmF_3syn4item11ForeignItemENtNtNtCsfvfooZQ3Axs_4core3ops4drop4Drop4dropBJ_, symObjAddr: 0x9A90, symBinAddr: 0x2CE00, symSize: 0x38 }
  - { offset: 0x74123, size: 0x8, addend: 0x0, symName: __RNvXsn_NtCse1nGBsou5OW_5alloc3vecINtB5_3VecNtNtCs6IAuOt8vWmF_3syn4item4ItemENtNtNtCsfvfooZQ3Axs_4core3ops4drop4Drop4dropBJ_, symObjAddr: 0x9AC8, symBinAddr: 0x2CE38, symSize: 0x38 }
  - { offset: 0x741D3, size: 0x8, addend: 0x0, symName: __RNvXsn_NtCse1nGBsou5OW_5alloc3vecINtB5_3VecNtNtCs6IAuOt8vWmF_3syn4item8ImplItemENtNtNtCsfvfooZQ3Axs_4core3ops4drop4Drop4dropBJ_, symObjAddr: 0x9B00, symBinAddr: 0x2CE70, symSize: 0x38 }
  - { offset: 0x74283, size: 0x8, addend: 0x0, symName: __RNvXsn_NtCse1nGBsou5OW_5alloc3vecINtB5_3VecNtNtCs6IAuOt8vWmF_3syn4item9TraitItemENtNtNtCsfvfooZQ3Axs_4core3ops4drop4Drop4dropBJ_, symObjAddr: 0x9B38, symBinAddr: 0x2CEA8, symSize: 0x38 }
  - { offset: 0x74333, size: 0x8, addend: 0x0, symName: __RNvXsn_NtCse1nGBsou5OW_5alloc3vecINtB5_3VecNtNtCs6IAuOt8vWmF_3syn4stmt4StmtENtNtNtCsfvfooZQ3Axs_4core3ops4drop4Drop4dropBJ_, symObjAddr: 0x9B70, symBinAddr: 0x2CEE0, symSize: 0x38 }
  - { offset: 0x743E3, size: 0x8, addend: 0x0, symName: __RNvXsn_NtCse1nGBsou5OW_5alloc3vecINtB5_3VecNtNtCs6IAuOt8vWmF_3syn5error12ErrorMessageENtNtNtCsfvfooZQ3Axs_4core3ops4drop4Drop4dropBJ_, symObjAddr: 0x9BA8, symBinAddr: 0x2CF18, symSize: 0x38 }
  - { offset: 0x74493, size: 0x8, addend: 0x0, symName: __RNvXsn_NtCse1nGBsou5OW_5alloc3vecINtB5_3VecNtNtCs6IAuOt8vWmF_3syn6buffer5EntryENtNtNtCsfvfooZQ3Axs_4core3ops4drop4Drop4dropBJ_, symObjAddr: 0x9BE0, symBinAddr: 0x2CF50, symSize: 0x38 }
  - { offset: 0x74543, size: 0x8, addend: 0x0, symName: __RNvXsn_NtCse1nGBsou5OW_5alloc3vecINtB5_3VecNtNtCs6IAuOt8vWmF_3syn8generics14TypeParamBoundENtNtNtCsfvfooZQ3Axs_4core3ops4drop4Drop4dropBJ_, symObjAddr: 0x9C18, symBinAddr: 0x2CF88, symSize: 0x38 }
  - { offset: 0x745F3, size: 0x8, addend: 0x0, symName: __RNvXsn_NtCse1nGBsou5OW_5alloc3vecINtB5_3VecReENtNtNtCsfvfooZQ3Axs_4core3ops4drop4Drop4dropCs6IAuOt8vWmF_3syn, symObjAddr: 0x9C50, symBinAddr: 0x2CFC0, symSize: 0x24 }
  - { offset: 0x746A3, size: 0x8, addend: 0x0, symName: __RNvXsn_NtCse1nGBsou5OW_5alloc3vecINtB5_3VecTNtNtCs6IAuOt8vWmF_3syn2ty4TypeNtNtBK_5token5CommaEENtNtNtCsfvfooZQ3Axs_4core3ops4drop4Drop4dropBK_, symObjAddr: 0x9C74, symBinAddr: 0x2CFE4, symSize: 0x38 }
  - { offset: 0x74753, size: 0x8, addend: 0x0, symName: __RNvXsn_NtCse1nGBsou5OW_5alloc3vecINtB5_3VecTNtNtCs6IAuOt8vWmF_3syn2ty9BareFnArgNtNtBK_5token5CommaEENtNtNtCsfvfooZQ3Axs_4core3ops4drop4Drop4dropBK_, symObjAddr: 0x9CAC, symBinAddr: 0x2D01C, symSize: 0x38 }
  - { offset: 0x74803, size: 0x8, addend: 0x0, symName: __RNvXsn_NtCse1nGBsou5OW_5alloc3vecINtB5_3VecTNtNtCs6IAuOt8vWmF_3syn3pat3PatNtNtBK_5token2OrEENtNtNtCsfvfooZQ3Axs_4core3ops4drop4Drop4dropBK_, symObjAddr: 0x9CE4, symBinAddr: 0x2D054, symSize: 0x38 }
  - { offset: 0x748B3, size: 0x8, addend: 0x0, symName: __RNvXsn_NtCse1nGBsou5OW_5alloc3vecINtB5_3VecTNtNtCs6IAuOt8vWmF_3syn3pat3PatNtNtBK_5token5CommaEENtNtNtCsfvfooZQ3Axs_4core3ops4drop4Drop4dropBK_, symObjAddr: 0x9D1C, symBinAddr: 0x2D08C, symSize: 0x38 }
  - { offset: 0x74963, size: 0x8, addend: 0x0, symName: __RNvXsn_NtCse1nGBsou5OW_5alloc3vecINtB5_3VecTNtNtCs6IAuOt8vWmF_3syn3pat8FieldPatNtNtBK_5token5CommaEENtNtNtCsfvfooZQ3Axs_4core3ops4drop4Drop4dropBK_, symObjAddr: 0x9D54, symBinAddr: 0x2D0C4, symSize: 0x38 }
  - { offset: 0x74A13, size: 0x8, addend: 0x0, symName: __RNvXsn_NtCse1nGBsou5OW_5alloc3vecINtB5_3VecTNtNtCs6IAuOt8vWmF_3syn4data5FieldNtNtBK_5token5CommaEENtNtNtCsfvfooZQ3Axs_4core3ops4drop4Drop4dropBK_, symObjAddr: 0x9D8C, symBinAddr: 0x2D0FC, symSize: 0x38 }
  - { offset: 0x74AC3, size: 0x8, addend: 0x0, symName: __RNvXsn_NtCse1nGBsou5OW_5alloc3vecINtB5_3VecTNtNtCs6IAuOt8vWmF_3syn4data7VariantNtNtBK_5token5CommaEENtNtNtCsfvfooZQ3Axs_4core3ops4drop4Drop4dropBK_, symObjAddr: 0x9DFC, symBinAddr: 0x2D134, symSize: 0x38 }
  - { offset: 0x74B73, size: 0x8, addend: 0x0, symName: __RNvXsn_NtCse1nGBsou5OW_5alloc3vecINtB5_3VecTNtNtCs6IAuOt8vWmF_3syn4expr10FieldValueNtNtBK_5token5CommaEENtNtNtCsfvfooZQ3Axs_4core3ops4drop4Drop4dropBK_, symObjAddr: 0x9E34, symBinAddr: 0x2D16C, symSize: 0x38 }
  - { offset: 0x74C23, size: 0x8, addend: 0x0, symName: __RNvXsn_NtCse1nGBsou5OW_5alloc3vecINtB5_3VecTNtNtCs6IAuOt8vWmF_3syn4expr4ExprNtNtBK_5token5CommaEENtNtNtCsfvfooZQ3Axs_4core3ops4drop4Drop4dropBK_, symObjAddr: 0x9E6C, symBinAddr: 0x2D1A4, symSize: 0x38 }
  - { offset: 0x74CD3, size: 0x8, addend: 0x0, symName: __RNvXsn_NtCse1nGBsou5OW_5alloc3vecINtB5_3VecTNtNtCs6IAuOt8vWmF_3syn4item5FnArgNtNtBK_5token5CommaEENtNtNtCsfvfooZQ3Axs_4core3ops4drop4Drop4dropBK_, symObjAddr: 0x9EA4, symBinAddr: 0x2D1DC, symSize: 0x38 }
  - { offset: 0x74D83, size: 0x8, addend: 0x0, symName: __RNvXsn_NtCse1nGBsou5OW_5alloc3vecINtB5_3VecTNtNtCs6IAuOt8vWmF_3syn4item7UseTreeNtNtBK_5token5CommaEENtNtNtCsfvfooZQ3Axs_4core3ops4drop4Drop4dropBK_, symObjAddr: 0x9EDC, symBinAddr: 0x2D214, symSize: 0x38 }
  - { offset: 0x74E33, size: 0x8, addend: 0x0, symName: __RNvXsn_NtCse1nGBsou5OW_5alloc3vecINtB5_3VecTNtNtCs6IAuOt8vWmF_3syn4path11PathSegmentNtNtBK_5token7PathSepEENtNtNtCsfvfooZQ3Axs_4core3ops4drop4Drop4dropBK_, symObjAddr: 0x9F14, symBinAddr: 0x2D24C, symSize: 0x38 }
  - { offset: 0x74EE3, size: 0x8, addend: 0x0, symName: __RNvXsn_NtCse1nGBsou5OW_5alloc3vecINtB5_3VecTNtNtCs6IAuOt8vWmF_3syn4path15GenericArgumentNtNtBK_5token5CommaEENtNtNtCsfvfooZQ3Axs_4core3ops4drop4Drop4dropBK_, symObjAddr: 0x9F4C, symBinAddr: 0x2D284, symSize: 0x38 }
  - { offset: 0x74F93, size: 0x8, addend: 0x0, symName: __RNvXsn_NtCse1nGBsou5OW_5alloc3vecINtB5_3VecTNtNtCs6IAuOt8vWmF_3syn8generics12GenericParamNtNtBK_5token5CommaEENtNtNtCsfvfooZQ3Axs_4core3ops4drop4Drop4dropBK_, symObjAddr: 0x9F84, symBinAddr: 0x2D2BC, symSize: 0x38 }
  - { offset: 0x75043, size: 0x8, addend: 0x0, symName: __RNvXsn_NtCse1nGBsou5OW_5alloc3vecINtB5_3VecTNtNtCs6IAuOt8vWmF_3syn8generics13CapturedParamNtNtBK_5token5CommaEENtNtNtCsfvfooZQ3Axs_4core3ops4drop4Drop4dropBK_, symObjAddr: 0x9FBC, symBinAddr: 0x2D2F4, symSize: 0x38 }
  - { offset: 0x750F3, size: 0x8, addend: 0x0, symName: __RNvXsn_NtCse1nGBsou5OW_5alloc3vecINtB5_3VecTNtNtCs6IAuOt8vWmF_3syn8generics14TypeParamBoundNtNtBK_5token4PlusEENtNtNtCsfvfooZQ3Axs_4core3ops4drop4Drop4dropBK_, symObjAddr: 0x9FF4, symBinAddr: 0x2D32C, symSize: 0x38 }
  - { offset: 0x751A3, size: 0x8, addend: 0x0, symName: __RNvXsn_NtCse1nGBsou5OW_5alloc3vecINtB5_3VecTNtNtCs6IAuOt8vWmF_3syn8generics14WherePredicateNtNtBK_5token5CommaEENtNtNtCsfvfooZQ3Axs_4core3ops4drop4Drop4dropBK_, symObjAddr: 0xA02C, symBinAddr: 0x2D364, symSize: 0x38 }
  - { offset: 0x75253, size: 0x8, addend: 0x0, symName: __RNvXsn_NtCse1nGBsou5OW_5alloc3vecINtB5_3VecTNtNtCs6IAuOt8vWmF_3syn8lifetime8LifetimeNtNtBK_5token4PlusEENtNtNtCsfvfooZQ3Axs_4core3ops4drop4Drop4dropBK_, symObjAddr: 0xA064, symBinAddr: 0x2D39C, symSize: 0x38 }
  - { offset: 0x75309, size: 0x8, addend: 0x0, symName: __RNvXsp_NtCse1nGBsou5OW_5alloc3vecINtB5_3VecNtNtCs6IAuOt8vWmF_3syn5error12ErrorMessageENtNtCsfvfooZQ3Axs_4core3fmt5Debug3fmtBJ_, symObjAddr: 0xA3C8, symBinAddr: 0x2D3D4, symSize: 0x74 }
  - { offset: 0x75419, size: 0x8, addend: 0x0, symName: __RNvXsp_NtCse1nGBsou5OW_5alloc3vecINtB5_3VechENtNtCsfvfooZQ3Axs_4core3fmt5Debug3fmtCs6IAuOt8vWmF_3syn, symObjAddr: 0xA43C, symBinAddr: 0x2D448, symSize: 0x70 }
  - { offset: 0x77947, size: 0x8, addend: 0x0, symName: __RNvXsV_NtCse1nGBsou5OW_5alloc6stringINtNtB7_3vec3VechEINtNtCsfvfooZQ3Axs_4core7convert4FromNtB5_6StringE4fromCs6IAuOt8vWmF_3syn, symObjAddr: 0x7DD8, symBinAddr: 0x2C0FC, symSize: 0x18 }
  - { offset: 0x77B9C, size: 0x8, addend: 0x0, symName: __RNvXNvMs_NtNtCse1nGBsou5OW_5alloc3ffi5c_strNtB7_7CString3newINtNtBb_3vec3VechENtB2_11SpecNewImpl13spec_new_implCs6IAuOt8vWmF_3syn, symObjAddr: 0x6940, symBinAddr: 0x2BB20, symSize: 0x178 }
  - { offset: 0x7CC1F, size: 0x8, addend: 0x0, symName: __RINvMs_NtCse1nGBsou5OW_5alloc3vecINtB5_3VecReE10retain_mutNCNvMNtCs6IAuOt8vWmF_3syn9lookaheadNtBZ_10Lookahead15error0EB11_, symObjAddr: 0x0, symBinAddr: 0x27348, symSize: 0xE4 }
  - { offset: 0x7CEFB, size: 0x8, addend: 0x0, symName: __RINvMsi_NtCse1nGBsou5OW_5alloc3vecINtB6_3VecNtCs3cP53eQoTwO_11proc_macro29TokenTreeE16extend_desugaredINtNtNtNtCsfvfooZQ3Axs_4core4iter8adapters7flatten7FlattenINtNtB1H_3map3MapIB2z_IB2z_INtNtNtB1L_5slice4iter4IterNtNtCs6IAuOt8vWmF_3syn5error12ErrorMessageENvMs_B3s_B3q_16to_compile_errorENCINvXs7_BI_NtBI_11TokenStreamINtNtNtB1J_6traits7collect12FromIteratorB4P_E9from_iterB2U_E0ENCINvXs6_NtBI_3impNtB6g_11TokenStreamIB58_B6p_E9from_iterB2P_Es_0EEEB3u_, symObjAddr: 0xE4, symBinAddr: 0x2742C, symSize: 0x1D4 }
  - { offset: 0x7D29E, size: 0x8, addend: 0x0, symName: __RINvMsi_NtCse1nGBsou5OW_5alloc3vecINtB6_3VecNtCs3cP53eQoTwO_11proc_macro29TokenTreeE16extend_desugaredNtNtBI_12token_stream8IntoIterECs6IAuOt8vWmF_3syn, symObjAddr: 0x2B8, symBinAddr: 0x27600, symSize: 0x1D4 }
  - { offset: 0x7DC33, size: 0x8, addend: 0x0, symName: __RINvMsi_NtCse1nGBsou5OW_5alloc3vecINtB6_3VecNtNtCs6IAuOt8vWmF_3syn8generics14TypeParamBoundE14extend_trustedINtNtCsfvfooZQ3Axs_4core6option8IntoIterBG_EEBK_, symObjAddr: 0x93C, symBinAddr: 0x277D4, symSize: 0x1A0 }
  - { offset: 0x7DEDF, size: 0x8, addend: 0x0, symName: __RINvMsi_NtCse1nGBsou5OW_5alloc3vecINtB6_3VecNtNtCs6IAuOt8vWmF_3syn8generics14TypeParamBoundE14extend_trustedINtNtNtNtCsfvfooZQ3Axs_4core4iter8adapters3map3MapINtNtB6_9into_iter8IntoIterTBG_NtNtBK_5token4PlusEENCNvXs8_NtBK_10punctuatedINtB3t_10PunctuatedBG_B31_ENtNtNtB1P_6traits7collect12IntoIterator9into_iter0EEBK_, symObjAddr: 0xADC, symBinAddr: 0x27974, symSize: 0x188 }
  - { offset: 0x7E21D, size: 0x8, addend: 0x0, symName: __RNvMNtCse1nGBsou5OW_5alloc3vecINtB2_3VecNtNtCs6IAuOt8vWmF_3syn4attr9AttributeE3newBG_, symObjAddr: 0x12C0, symBinAddr: 0x27EF8, symSize: 0x14 }
  - { offset: 0x7E23A, size: 0x8, addend: 0x0, symName: __RNvMNtCse1nGBsou5OW_5alloc3vecINtB2_3VecNtNtCs6IAuOt8vWmF_3syn4expr3ArmE3newBG_, symObjAddr: 0x131C, symBinAddr: 0x27F0C, symSize: 0x14 }
  - { offset: 0x7E257, size: 0x8, addend: 0x0, symName: __RNvMNtCse1nGBsou5OW_5alloc3vecINtB2_3VecNtNtCs6IAuOt8vWmF_3syn4expr6ExprIfE3newBG_, symObjAddr: 0x1330, symBinAddr: 0x27F20, symSize: 0x14 }
  - { offset: 0x7E274, size: 0x8, addend: 0x0, symName: __RNvMNtCse1nGBsou5OW_5alloc3vecINtB2_3VecNtNtCs6IAuOt8vWmF_3syn4item11ForeignItemE3newBG_, symObjAddr: 0x1344, symBinAddr: 0x27F34, symSize: 0x14 }
  - { offset: 0x7E291, size: 0x8, addend: 0x0, symName: __RNvMNtCse1nGBsou5OW_5alloc3vecINtB2_3VecNtNtCs6IAuOt8vWmF_3syn4item4ItemE3newBG_, symObjAddr: 0x1358, symBinAddr: 0x27F48, symSize: 0x14 }
  - { offset: 0x7E2AE, size: 0x8, addend: 0x0, symName: __RNvMNtCse1nGBsou5OW_5alloc3vecINtB2_3VecNtNtCs6IAuOt8vWmF_3syn4item8ImplItemE3newBG_, symObjAddr: 0x136C, symBinAddr: 0x27F5C, symSize: 0x14 }
  - { offset: 0x7E2CB, size: 0x8, addend: 0x0, symName: __RNvMNtCse1nGBsou5OW_5alloc3vecINtB2_3VecNtNtCs6IAuOt8vWmF_3syn4item9TraitItemE3newBG_, symObjAddr: 0x1380, symBinAddr: 0x27F70, symSize: 0x14 }
  - { offset: 0x7E2E8, size: 0x8, addend: 0x0, symName: __RNvMNtCse1nGBsou5OW_5alloc3vecINtB2_3VecNtNtCs6IAuOt8vWmF_3syn4stmt4StmtE3newBG_, symObjAddr: 0x1394, symBinAddr: 0x27F84, symSize: 0x14 }
  - { offset: 0x7E305, size: 0x8, addend: 0x0, symName: __RNvMNtCse1nGBsou5OW_5alloc3vecINtB2_3VecNtNtCs6IAuOt8vWmF_3syn6buffer5EntryE3newBG_, symObjAddr: 0x13A8, symBinAddr: 0x27F98, symSize: 0x14 }
  - { offset: 0x7E384, size: 0x8, addend: 0x0, symName: __RNvMNtCse1nGBsou5OW_5alloc3vecINtB2_3VecNtNtCs6IAuOt8vWmF_3syn8generics14TypeParamBoundE13with_capacityBG_, symObjAddr: 0x13BC, symBinAddr: 0x27FAC, symSize: 0x48 }
  - { offset: 0x7E3FC, size: 0x8, addend: 0x0, symName: __RNvMNtCse1nGBsou5OW_5alloc3vecINtB2_3VecReE3newCs6IAuOt8vWmF_3syn, symObjAddr: 0x1404, symBinAddr: 0x27FF4, symSize: 0x14 }
  - { offset: 0x7E419, size: 0x8, addend: 0x0, symName: __RNvMNtCse1nGBsou5OW_5alloc3vecINtB2_3VecTNtNtCs6IAuOt8vWmF_3syn2ty4TypeNtNtBH_5token5CommaEE3newBH_, symObjAddr: 0x1418, symBinAddr: 0x28008, symSize: 0x14 }
  - { offset: 0x7E436, size: 0x8, addend: 0x0, symName: __RNvMNtCse1nGBsou5OW_5alloc3vecINtB2_3VecTNtNtCs6IAuOt8vWmF_3syn2ty9BareFnArgNtNtBH_5token5CommaEE3newBH_, symObjAddr: 0x142C, symBinAddr: 0x2801C, symSize: 0x14 }
  - { offset: 0x7E453, size: 0x8, addend: 0x0, symName: __RNvMNtCse1nGBsou5OW_5alloc3vecINtB2_3VecTNtNtCs6IAuOt8vWmF_3syn3pat3PatNtNtBH_5token2OrEE3newBH_, symObjAddr: 0x1440, symBinAddr: 0x28030, symSize: 0x14 }
  - { offset: 0x7E470, size: 0x8, addend: 0x0, symName: __RNvMNtCse1nGBsou5OW_5alloc3vecINtB2_3VecTNtNtCs6IAuOt8vWmF_3syn3pat3PatNtNtBH_5token5CommaEE3newBH_, symObjAddr: 0x1454, symBinAddr: 0x28044, symSize: 0x14 }
  - { offset: 0x7E48D, size: 0x8, addend: 0x0, symName: __RNvMNtCse1nGBsou5OW_5alloc3vecINtB2_3VecTNtNtCs6IAuOt8vWmF_3syn3pat8FieldPatNtNtBH_5token5CommaEE3newBH_, symObjAddr: 0x1468, symBinAddr: 0x28058, symSize: 0x14 }
  - { offset: 0x7E4AA, size: 0x8, addend: 0x0, symName: __RNvMNtCse1nGBsou5OW_5alloc3vecINtB2_3VecTNtNtCs6IAuOt8vWmF_3syn4data5FieldNtNtBH_5token5CommaEE3newBH_, symObjAddr: 0x147C, symBinAddr: 0x2806C, symSize: 0x14 }
  - { offset: 0x7E4C7, size: 0x8, addend: 0x0, symName: __RNvMNtCse1nGBsou5OW_5alloc3vecINtB2_3VecTNtNtCs6IAuOt8vWmF_3syn4data7VariantNtNtBH_5token5CommaEE3newBH_, symObjAddr: 0x14A4, symBinAddr: 0x28080, symSize: 0x14 }
  - { offset: 0x7E4E4, size: 0x8, addend: 0x0, symName: __RNvMNtCse1nGBsou5OW_5alloc3vecINtB2_3VecTNtNtCs6IAuOt8vWmF_3syn4expr10FieldValueNtNtBH_5token5CommaEE3newBH_, symObjAddr: 0x14B8, symBinAddr: 0x28094, symSize: 0x14 }
  - { offset: 0x7E501, size: 0x8, addend: 0x0, symName: __RNvMNtCse1nGBsou5OW_5alloc3vecINtB2_3VecTNtNtCs6IAuOt8vWmF_3syn4expr4ExprNtNtBH_5token5CommaEE3newBH_, symObjAddr: 0x14CC, symBinAddr: 0x280A8, symSize: 0x14 }
  - { offset: 0x7E51E, size: 0x8, addend: 0x0, symName: __RNvMNtCse1nGBsou5OW_5alloc3vecINtB2_3VecTNtNtCs6IAuOt8vWmF_3syn4item5FnArgNtNtBH_5token5CommaEE3newBH_, symObjAddr: 0x14E0, symBinAddr: 0x280BC, symSize: 0x14 }
  - { offset: 0x7E53B, size: 0x8, addend: 0x0, symName: __RNvMNtCse1nGBsou5OW_5alloc3vecINtB2_3VecTNtNtCs6IAuOt8vWmF_3syn4item7UseTreeNtNtBH_5token5CommaEE3newBH_, symObjAddr: 0x14F4, symBinAddr: 0x280D0, symSize: 0x14 }
  - { offset: 0x7E558, size: 0x8, addend: 0x0, symName: __RNvMNtCse1nGBsou5OW_5alloc3vecINtB2_3VecTNtNtCs6IAuOt8vWmF_3syn4path11PathSegmentNtNtBH_5token7PathSepEE3newBH_, symObjAddr: 0x1508, symBinAddr: 0x280E4, symSize: 0x14 }
  - { offset: 0x7E575, size: 0x8, addend: 0x0, symName: __RNvMNtCse1nGBsou5OW_5alloc3vecINtB2_3VecTNtNtCs6IAuOt8vWmF_3syn4path15GenericArgumentNtNtBH_5token5CommaEE3newBH_, symObjAddr: 0x151C, symBinAddr: 0x280F8, symSize: 0x14 }
  - { offset: 0x7E592, size: 0x8, addend: 0x0, symName: __RNvMNtCse1nGBsou5OW_5alloc3vecINtB2_3VecTNtNtCs6IAuOt8vWmF_3syn8generics12GenericParamNtNtBH_5token5CommaEE3newBH_, symObjAddr: 0x1530, symBinAddr: 0x2810C, symSize: 0x14 }
  - { offset: 0x7E5AF, size: 0x8, addend: 0x0, symName: __RNvMNtCse1nGBsou5OW_5alloc3vecINtB2_3VecTNtNtCs6IAuOt8vWmF_3syn8generics13CapturedParamNtNtBH_5token5CommaEE3newBH_, symObjAddr: 0x1544, symBinAddr: 0x28120, symSize: 0x14 }
  - { offset: 0x7E5CC, size: 0x8, addend: 0x0, symName: __RNvMNtCse1nGBsou5OW_5alloc3vecINtB2_3VecTNtNtCs6IAuOt8vWmF_3syn8generics14TypeParamBoundNtNtBH_5token4PlusEE3newBH_, symObjAddr: 0x1558, symBinAddr: 0x28134, symSize: 0x14 }
  - { offset: 0x7E5E9, size: 0x8, addend: 0x0, symName: __RNvMNtCse1nGBsou5OW_5alloc3vecINtB2_3VecTNtNtCs6IAuOt8vWmF_3syn8generics14WherePredicateNtNtBH_5token5CommaEE3newBH_, symObjAddr: 0x156C, symBinAddr: 0x28148, symSize: 0x14 }
  - { offset: 0x7E606, size: 0x8, addend: 0x0, symName: __RNvMNtCse1nGBsou5OW_5alloc3vecINtB2_3VecTNtNtCs6IAuOt8vWmF_3syn8lifetime8LifetimeNtNtBH_5token4PlusEE3newBH_, symObjAddr: 0x1580, symBinAddr: 0x2815C, symSize: 0x14 }
  - { offset: 0x7E623, size: 0x8, addend: 0x0, symName: __RNvMNtCse1nGBsou5OW_5alloc3vecINtB2_3VechE3newCs6IAuOt8vWmF_3syn, symObjAddr: 0x1594, symBinAddr: 0x28170, symSize: 0x14 }
  - { offset: 0x7E745, size: 0x8, addend: 0x0, symName: __RNvMs0_NtCse1nGBsou5OW_5alloc3vecINtB5_3VechE17extend_from_sliceCs6IAuOt8vWmF_3syn, symObjAddr: 0x15A8, symBinAddr: 0x28184, symSize: 0x74 }
  - { offset: 0x7E9CD, size: 0x8, addend: 0x0, symName: __RNvMs0_NtCse1nGBsou5OW_5alloc3vecINtB5_3VechE6resizeCs6IAuOt8vWmF_3syn, symObjAddr: 0x161C, symBinAddr: 0x281F8, symSize: 0x100 }
  - { offset: 0x7EC6E, size: 0x8, addend: 0x0, symName: __RNvMs2_NtCse1nGBsou5OW_5alloc3vecINtB5_3VechE11extend_withCs6IAuOt8vWmF_3syn, symObjAddr: 0x171C, symBinAddr: 0x282F8, symSize: 0x230 }
  - { offset: 0x7F01F, size: 0x8, addend: 0x0, symName: __RNvMs_NtCse1nGBsou5OW_5alloc3vecINtB4_3VecNtNtCs6IAuOt8vWmF_3syn4attr9AttributeE15append_elementsBI_, symObjAddr: 0x194C, symBinAddr: 0x28528, symSize: 0xD8 }
  - { offset: 0x7F254, size: 0x8, addend: 0x0, symName: __RNvMs_NtCse1nGBsou5OW_5alloc3vecINtB4_3VecNtNtCs6IAuOt8vWmF_3syn4attr9AttributeE4pushBI_, symObjAddr: 0x1A24, symBinAddr: 0x28600, symSize: 0x118 }
  - { offset: 0x7F4F0, size: 0x8, addend: 0x0, symName: __RNvMs_NtCse1nGBsou5OW_5alloc3vecINtB4_3VecNtNtCs6IAuOt8vWmF_3syn4attr9AttributeE6appendBI_, symObjAddr: 0x1B3C, symBinAddr: 0x28718, symSize: 0x8C }
  - { offset: 0x7F725, size: 0x8, addend: 0x0, symName: __RNvMs_NtCse1nGBsou5OW_5alloc3vecINtB4_3VecNtNtCs6IAuOt8vWmF_3syn4attr9AttributeE7reserveBI_, symObjAddr: 0x1BC8, symBinAddr: 0x287A4, symSize: 0xC8 }
  - { offset: 0x7F8FC, size: 0x8, addend: 0x0, symName: __RNvMs_NtCse1nGBsou5OW_5alloc3vecINtB4_3VecNtNtCs6IAuOt8vWmF_3syn4attr9AttributeE8as_sliceBI_, symObjAddr: 0x1C90, symBinAddr: 0x2886C, symSize: 0x64 }
  - { offset: 0x7F9DB, size: 0x8, addend: 0x0, symName: __RNvMs_NtCse1nGBsou5OW_5alloc3vecINtB4_3VecNtNtCs6IAuOt8vWmF_3syn4attr9AttributeE8is_emptyBI_, symObjAddr: 0x1CF4, symBinAddr: 0x288D0, symSize: 0x20 }
  - { offset: 0x7FA3B, size: 0x8, addend: 0x0, symName: __RNvMs_NtCse1nGBsou5OW_5alloc3vecINtB4_3VecNtNtCs6IAuOt8vWmF_3syn4expr3ArmE3lenBI_, symObjAddr: 0x1DDC, symBinAddr: 0x288F0, symSize: 0x18 }
  - { offset: 0x7FB83, size: 0x8, addend: 0x0, symName: __RNvMs_NtCse1nGBsou5OW_5alloc3vecINtB4_3VecNtNtCs6IAuOt8vWmF_3syn4expr3ArmE4pushBI_, symObjAddr: 0x1DF4, symBinAddr: 0x28908, symSize: 0x120 }
  - { offset: 0x7FDD1, size: 0x8, addend: 0x0, symName: __RNvMs_NtCse1nGBsou5OW_5alloc3vecINtB4_3VecNtNtCs6IAuOt8vWmF_3syn4expr3ArmE8as_sliceBI_, symObjAddr: 0x1F14, symBinAddr: 0x28A28, symSize: 0x64 }
  - { offset: 0x7FFE5, size: 0x8, addend: 0x0, symName: __RNvMs_NtCse1nGBsou5OW_5alloc3vecINtB4_3VecNtNtCs6IAuOt8vWmF_3syn4expr6ExprIfE3popBI_, symObjAddr: 0x1F78, symBinAddr: 0x28A8C, symSize: 0x100 }
  - { offset: 0x80259, size: 0x8, addend: 0x0, symName: __RNvMs_NtCse1nGBsou5OW_5alloc3vecINtB4_3VecNtNtCs6IAuOt8vWmF_3syn4expr6ExprIfE4pushBI_, symObjAddr: 0x2078, symBinAddr: 0x28B8C, symSize: 0x120 }
  - { offset: 0x80523, size: 0x8, addend: 0x0, symName: __RNvMs_NtCse1nGBsou5OW_5alloc3vecINtB4_3VecNtNtCs6IAuOt8vWmF_3syn4item11ForeignItemE4pushBI_, symObjAddr: 0x2198, symBinAddr: 0x28CAC, symSize: 0x120 }
  - { offset: 0x807ED, size: 0x8, addend: 0x0, symName: __RNvMs_NtCse1nGBsou5OW_5alloc3vecINtB4_3VecNtNtCs6IAuOt8vWmF_3syn4item4ItemE4pushBI_, symObjAddr: 0x22B8, symBinAddr: 0x28DCC, symSize: 0x120 }
  - { offset: 0x80AB7, size: 0x8, addend: 0x0, symName: __RNvMs_NtCse1nGBsou5OW_5alloc3vecINtB4_3VecNtNtCs6IAuOt8vWmF_3syn4item8ImplItemE4pushBI_, symObjAddr: 0x23D8, symBinAddr: 0x28EEC, symSize: 0x120 }
  - { offset: 0x80D81, size: 0x8, addend: 0x0, symName: __RNvMs_NtCse1nGBsou5OW_5alloc3vecINtB4_3VecNtNtCs6IAuOt8vWmF_3syn4item9TraitItemE4pushBI_, symObjAddr: 0x24F8, symBinAddr: 0x2900C, symSize: 0x120 }
  - { offset: 0x8104B, size: 0x8, addend: 0x0, symName: __RNvMs_NtCse1nGBsou5OW_5alloc3vecINtB4_3VecNtNtCs6IAuOt8vWmF_3syn4stmt4StmtE4pushBI_, symObjAddr: 0x2618, symBinAddr: 0x2912C, symSize: 0x120 }
  - { offset: 0x8125D, size: 0x8, addend: 0x0, symName: __RNvMs_NtCse1nGBsou5OW_5alloc3vecINtB4_3VecNtNtCs6IAuOt8vWmF_3syn5error12ErrorMessageE3lenBI_, symObjAddr: 0x2818, symBinAddr: 0x2924C, symSize: 0x18 }
  - { offset: 0x8132D, size: 0x8, addend: 0x0, symName: __RNvMs_NtCse1nGBsou5OW_5alloc3vecINtB4_3VecNtNtCs6IAuOt8vWmF_3syn5error12ErrorMessageE8as_sliceBI_, symObjAddr: 0x28F8, symBinAddr: 0x29264, symSize: 0x64 }
  - { offset: 0x81514, size: 0x8, addend: 0x0, symName: __RNvMs_NtCse1nGBsou5OW_5alloc3vecINtB4_3VecNtNtCs6IAuOt8vWmF_3syn6buffer5EntryE13shrink_to_fitBI_, symObjAddr: 0x295C, symBinAddr: 0x292C8, symSize: 0xEC }
  - { offset: 0x81787, size: 0x8, addend: 0x0, symName: __RNvMs_NtCse1nGBsou5OW_5alloc3vecINtB4_3VecNtNtCs6IAuOt8vWmF_3syn6buffer5EntryE16into_boxed_sliceBI_, symObjAddr: 0x2A48, symBinAddr: 0x293B4, symSize: 0x110 }
  - { offset: 0x81950, size: 0x8, addend: 0x0, symName: __RNvMs_NtCse1nGBsou5OW_5alloc3vecINtB4_3VecNtNtCs6IAuOt8vWmF_3syn6buffer5EntryE3lenBI_, symObjAddr: 0x2B58, symBinAddr: 0x294C4, symSize: 0x18 }
  - { offset: 0x81A71, size: 0x8, addend: 0x0, symName: __RNvMs_NtCse1nGBsou5OW_5alloc3vecINtB4_3VecNtNtCs6IAuOt8vWmF_3syn6buffer5EntryE4pushBI_, symObjAddr: 0x2B70, symBinAddr: 0x294DC, symSize: 0x100 }
  - { offset: 0x81D3B, size: 0x8, addend: 0x0, symName: __RNvMs_NtCse1nGBsou5OW_5alloc3vecINtB4_3VecNtNtCs6IAuOt8vWmF_3syn8generics14TypeParamBoundE7reserveBI_, symObjAddr: 0x2C70, symBinAddr: 0x295DC, symSize: 0xC8 }
  - { offset: 0x81EA2, size: 0x8, addend: 0x0, symName: __RNvMs_NtCse1nGBsou5OW_5alloc3vecINtB4_3VecReE3lenCs6IAuOt8vWmF_3syn, symObjAddr: 0x2D38, symBinAddr: 0x296A4, symSize: 0x18 }
  - { offset: 0x81FB6, size: 0x8, addend: 0x0, symName: __RNvMs_NtCse1nGBsou5OW_5alloc3vecINtB4_3VecReE4pushCs6IAuOt8vWmF_3syn, symObjAddr: 0x2D50, symBinAddr: 0x296BC, symSize: 0xF4 }
  - { offset: 0x821D9, size: 0x8, addend: 0x0, symName: __RNvMs_NtCse1nGBsou5OW_5alloc3vecINtB4_3VecReE8as_sliceCs6IAuOt8vWmF_3syn, symObjAddr: 0x2E44, symBinAddr: 0x297B0, symSize: 0x64 }
  - { offset: 0x822A0, size: 0x8, addend: 0x0, symName: __RNvMs_NtCse1nGBsou5OW_5alloc3vecINtB4_3VecTNtNtCs6IAuOt8vWmF_3syn2ty4TypeNtNtBJ_5token5CommaEE3lenBJ_, symObjAddr: 0x2EA8, symBinAddr: 0x29814, symSize: 0x18 }
  - { offset: 0x823E8, size: 0x8, addend: 0x0, symName: __RNvMs_NtCse1nGBsou5OW_5alloc3vecINtB4_3VecTNtNtCs6IAuOt8vWmF_3syn2ty4TypeNtNtBJ_5token5CommaEE4pushBJ_, symObjAddr: 0x2EC0, symBinAddr: 0x2982C, symSize: 0x120 }
  - { offset: 0x82636, size: 0x8, addend: 0x0, symName: __RNvMs_NtCse1nGBsou5OW_5alloc3vecINtB4_3VecTNtNtCs6IAuOt8vWmF_3syn2ty4TypeNtNtBJ_5token5CommaEE8as_sliceBJ_, symObjAddr: 0x2FE0, symBinAddr: 0x2994C, symSize: 0x64 }
  - { offset: 0x826FD, size: 0x8, addend: 0x0, symName: __RNvMs_NtCse1nGBsou5OW_5alloc3vecINtB4_3VecTNtNtCs6IAuOt8vWmF_3syn2ty9BareFnArgNtNtBJ_5token5CommaEE3lenBJ_, symObjAddr: 0x3044, symBinAddr: 0x299B0, symSize: 0x18 }
  - { offset: 0x82845, size: 0x8, addend: 0x0, symName: __RNvMs_NtCse1nGBsou5OW_5alloc3vecINtB4_3VecTNtNtCs6IAuOt8vWmF_3syn2ty9BareFnArgNtNtBJ_5token5CommaEE4pushBJ_, symObjAddr: 0x305C, symBinAddr: 0x299C8, symSize: 0x120 }
  - { offset: 0x82A93, size: 0x8, addend: 0x0, symName: __RNvMs_NtCse1nGBsou5OW_5alloc3vecINtB4_3VecTNtNtCs6IAuOt8vWmF_3syn2ty9BareFnArgNtNtBJ_5token5CommaEE8as_sliceBJ_, symObjAddr: 0x317C, symBinAddr: 0x29AE8, symSize: 0x64 }
  - { offset: 0x82C60, size: 0x8, addend: 0x0, symName: __RNvMs_NtCse1nGBsou5OW_5alloc3vecINtB4_3VecTNtNtCs6IAuOt8vWmF_3syn3pat3PatNtNtBJ_5token2OrEE4pushBJ_, symObjAddr: 0x31E0, symBinAddr: 0x29B4C, symSize: 0x120 }
  - { offset: 0x82EBB, size: 0x8, addend: 0x0, symName: __RNvMs_NtCse1nGBsou5OW_5alloc3vecINtB4_3VecTNtNtCs6IAuOt8vWmF_3syn3pat3PatNtNtBJ_5token2OrEE8as_sliceBJ_, symObjAddr: 0x3300, symBinAddr: 0x29C6C, symSize: 0x64 }
  - { offset: 0x82F82, size: 0x8, addend: 0x0, symName: __RNvMs_NtCse1nGBsou5OW_5alloc3vecINtB4_3VecTNtNtCs6IAuOt8vWmF_3syn3pat3PatNtNtBJ_5token5CommaEE3lenBJ_, symObjAddr: 0x3364, symBinAddr: 0x29CD0, symSize: 0x18 }
  - { offset: 0x830CA, size: 0x8, addend: 0x0, symName: __RNvMs_NtCse1nGBsou5OW_5alloc3vecINtB4_3VecTNtNtCs6IAuOt8vWmF_3syn3pat3PatNtNtBJ_5token5CommaEE4pushBJ_, symObjAddr: 0x337C, symBinAddr: 0x29CE8, symSize: 0x120 }
  - { offset: 0x83318, size: 0x8, addend: 0x0, symName: __RNvMs_NtCse1nGBsou5OW_5alloc3vecINtB4_3VecTNtNtCs6IAuOt8vWmF_3syn3pat3PatNtNtBJ_5token5CommaEE8as_sliceBJ_, symObjAddr: 0x349C, symBinAddr: 0x29E08, symSize: 0x64 }
  - { offset: 0x834E5, size: 0x8, addend: 0x0, symName: __RNvMs_NtCse1nGBsou5OW_5alloc3vecINtB4_3VecTNtNtCs6IAuOt8vWmF_3syn3pat8FieldPatNtNtBJ_5token5CommaEE4pushBJ_, symObjAddr: 0x3500, symBinAddr: 0x29E6C, symSize: 0x118 }
  - { offset: 0x8373E, size: 0x8, addend: 0x0, symName: __RNvMs_NtCse1nGBsou5OW_5alloc3vecINtB4_3VecTNtNtCs6IAuOt8vWmF_3syn3pat8FieldPatNtNtBJ_5token5CommaEE8as_sliceBJ_, symObjAddr: 0x3618, symBinAddr: 0x29F84, symSize: 0x64 }
  - { offset: 0x83932, size: 0x8, addend: 0x0, symName: __RNvMs_NtCse1nGBsou5OW_5alloc3vecINtB4_3VecTNtNtCs6IAuOt8vWmF_3syn4data5FieldNtNtBJ_5token5CommaEE4pushBJ_, symObjAddr: 0x36F8, symBinAddr: 0x29FE8, symSize: 0x120 }
  - { offset: 0x83B77, size: 0x8, addend: 0x0, symName: __RNvMs_NtCse1nGBsou5OW_5alloc3vecINtB4_3VecTNtNtCs6IAuOt8vWmF_3syn4data5FieldNtNtBJ_5token5CommaEE8as_sliceBJ_, symObjAddr: 0x3818, symBinAddr: 0x2A108, symSize: 0x64 }
  - { offset: 0x83D44, size: 0x8, addend: 0x0, symName: __RNvMs_NtCse1nGBsou5OW_5alloc3vecINtB4_3VecTNtNtCs6IAuOt8vWmF_3syn4data7VariantNtNtBJ_5token5CommaEE4pushBJ_, symObjAddr: 0x3894, symBinAddr: 0x2A16C, symSize: 0x120 }
  - { offset: 0x83F9F, size: 0x8, addend: 0x0, symName: __RNvMs_NtCse1nGBsou5OW_5alloc3vecINtB4_3VecTNtNtCs6IAuOt8vWmF_3syn4data7VariantNtNtBJ_5token5CommaEE8as_sliceBJ_, symObjAddr: 0x39B4, symBinAddr: 0x2A28C, symSize: 0x64 }
  - { offset: 0x8416C, size: 0x8, addend: 0x0, symName: __RNvMs_NtCse1nGBsou5OW_5alloc3vecINtB4_3VecTNtNtCs6IAuOt8vWmF_3syn4expr10FieldValueNtNtBJ_5token5CommaEE4pushBJ_, symObjAddr: 0x3A18, symBinAddr: 0x2A2F0, symSize: 0x120 }
  - { offset: 0x843C7, size: 0x8, addend: 0x0, symName: __RNvMs_NtCse1nGBsou5OW_5alloc3vecINtB4_3VecTNtNtCs6IAuOt8vWmF_3syn4expr10FieldValueNtNtBJ_5token5CommaEE8as_sliceBJ_, symObjAddr: 0x3B38, symBinAddr: 0x2A410, symSize: 0x64 }
  - { offset: 0x8448E, size: 0x8, addend: 0x0, symName: __RNvMs_NtCse1nGBsou5OW_5alloc3vecINtB4_3VecTNtNtCs6IAuOt8vWmF_3syn4expr4ExprNtNtBJ_5token5CommaEE3lenBJ_, symObjAddr: 0x3B9C, symBinAddr: 0x2A474, symSize: 0x18 }
  - { offset: 0x845D6, size: 0x8, addend: 0x0, symName: __RNvMs_NtCse1nGBsou5OW_5alloc3vecINtB4_3VecTNtNtCs6IAuOt8vWmF_3syn4expr4ExprNtNtBJ_5token5CommaEE4pushBJ_, symObjAddr: 0x3BB4, symBinAddr: 0x2A48C, symSize: 0x120 }
  - { offset: 0x84824, size: 0x8, addend: 0x0, symName: __RNvMs_NtCse1nGBsou5OW_5alloc3vecINtB4_3VecTNtNtCs6IAuOt8vWmF_3syn4expr4ExprNtNtBJ_5token5CommaEE8as_sliceBJ_, symObjAddr: 0x3CD4, symBinAddr: 0x2A5AC, symSize: 0x64 }
  - { offset: 0x848EB, size: 0x8, addend: 0x0, symName: __RNvMs_NtCse1nGBsou5OW_5alloc3vecINtB4_3VecTNtNtCs6IAuOt8vWmF_3syn4item5FnArgNtNtBJ_5token5CommaEE3lenBJ_, symObjAddr: 0x3D38, symBinAddr: 0x2A610, symSize: 0x18 }
  - { offset: 0x84A33, size: 0x8, addend: 0x0, symName: __RNvMs_NtCse1nGBsou5OW_5alloc3vecINtB4_3VecTNtNtCs6IAuOt8vWmF_3syn4item5FnArgNtNtBJ_5token5CommaEE4pushBJ_, symObjAddr: 0x3D50, symBinAddr: 0x2A628, symSize: 0x120 }
  - { offset: 0x84C81, size: 0x8, addend: 0x0, symName: __RNvMs_NtCse1nGBsou5OW_5alloc3vecINtB4_3VecTNtNtCs6IAuOt8vWmF_3syn4item5FnArgNtNtBJ_5token5CommaEE8as_sliceBJ_, symObjAddr: 0x3E70, symBinAddr: 0x2A748, symSize: 0x64 }
  - { offset: 0x84E4E, size: 0x8, addend: 0x0, symName: __RNvMs_NtCse1nGBsou5OW_5alloc3vecINtB4_3VecTNtNtCs6IAuOt8vWmF_3syn4item7UseTreeNtNtBJ_5token5CommaEE4pushBJ_, symObjAddr: 0x3ED4, symBinAddr: 0x2A7AC, symSize: 0x118 }
  - { offset: 0x850A7, size: 0x8, addend: 0x0, symName: __RNvMs_NtCse1nGBsou5OW_5alloc3vecINtB4_3VecTNtNtCs6IAuOt8vWmF_3syn4item7UseTreeNtNtBJ_5token5CommaEE8as_sliceBJ_, symObjAddr: 0x3FEC, symBinAddr: 0x2A8C4, symSize: 0x64 }
  - { offset: 0x8523C, size: 0x8, addend: 0x0, symName: __RNvMs_NtCse1nGBsou5OW_5alloc3vecINtB4_3VecTNtNtCs6IAuOt8vWmF_3syn4path11PathSegmentNtNtBJ_5token7PathSepEE12as_mut_sliceBJ_, symObjAddr: 0x4050, symBinAddr: 0x2A928, symSize: 0x64 }
  - { offset: 0x85318, size: 0x8, addend: 0x0, symName: __RNvMs_NtCse1nGBsou5OW_5alloc3vecINtB4_3VecTNtNtCs6IAuOt8vWmF_3syn4path11PathSegmentNtNtBJ_5token7PathSepEE3lenBJ_, symObjAddr: 0x40B4, symBinAddr: 0x2A98C, symSize: 0x18 }
  - { offset: 0x85466, size: 0x8, addend: 0x0, symName: __RNvMs_NtCse1nGBsou5OW_5alloc3vecINtB4_3VecTNtNtCs6IAuOt8vWmF_3syn4path11PathSegmentNtNtBJ_5token7PathSepEE3popBJ_, symObjAddr: 0x40CC, symBinAddr: 0x2A9A4, symSize: 0x104 }
  - { offset: 0x856DA, size: 0x8, addend: 0x0, symName: __RNvMs_NtCse1nGBsou5OW_5alloc3vecINtB4_3VecTNtNtCs6IAuOt8vWmF_3syn4path11PathSegmentNtNtBJ_5token7PathSepEE4pushBJ_, symObjAddr: 0x41D0, symBinAddr: 0x2AAA8, symSize: 0x120 }
  - { offset: 0x8591F, size: 0x8, addend: 0x0, symName: __RNvMs_NtCse1nGBsou5OW_5alloc3vecINtB4_3VecTNtNtCs6IAuOt8vWmF_3syn4path11PathSegmentNtNtBJ_5token7PathSepEE8as_sliceBJ_, symObjAddr: 0x42F0, symBinAddr: 0x2ABC8, symSize: 0x64 }
  - { offset: 0x859E6, size: 0x8, addend: 0x0, symName: __RNvMs_NtCse1nGBsou5OW_5alloc3vecINtB4_3VecTNtNtCs6IAuOt8vWmF_3syn4path15GenericArgumentNtNtBJ_5token5CommaEE3lenBJ_, symObjAddr: 0x4354, symBinAddr: 0x2AC2C, symSize: 0x18 }
  - { offset: 0x85B2E, size: 0x8, addend: 0x0, symName: __RNvMs_NtCse1nGBsou5OW_5alloc3vecINtB4_3VecTNtNtCs6IAuOt8vWmF_3syn4path15GenericArgumentNtNtBJ_5token5CommaEE4pushBJ_, symObjAddr: 0x436C, symBinAddr: 0x2AC44, symSize: 0x120 }
  - { offset: 0x85D7C, size: 0x8, addend: 0x0, symName: __RNvMs_NtCse1nGBsou5OW_5alloc3vecINtB4_3VecTNtNtCs6IAuOt8vWmF_3syn4path15GenericArgumentNtNtBJ_5token5CommaEE8as_sliceBJ_, symObjAddr: 0x448C, symBinAddr: 0x2AD64, symSize: 0x64 }
  - { offset: 0x85F11, size: 0x8, addend: 0x0, symName: __RNvMs_NtCse1nGBsou5OW_5alloc3vecINtB4_3VecTNtNtCs6IAuOt8vWmF_3syn8generics12GenericParamNtNtBJ_5token5CommaEE12as_mut_sliceBJ_, symObjAddr: 0x44F0, symBinAddr: 0x2ADC8, symSize: 0x64 }
  - { offset: 0x85FED, size: 0x8, addend: 0x0, symName: __RNvMs_NtCse1nGBsou5OW_5alloc3vecINtB4_3VecTNtNtCs6IAuOt8vWmF_3syn8generics12GenericParamNtNtBJ_5token5CommaEE3lenBJ_, symObjAddr: 0x4554, symBinAddr: 0x2AE2C, symSize: 0x18 }
  - { offset: 0x86101, size: 0x8, addend: 0x0, symName: __RNvMs_NtCse1nGBsou5OW_5alloc3vecINtB4_3VecTNtNtCs6IAuOt8vWmF_3syn8generics12GenericParamNtNtBJ_5token5CommaEE4pushBJ_, symObjAddr: 0x456C, symBinAddr: 0x2AE44, symSize: 0x120 }
  - { offset: 0x86346, size: 0x8, addend: 0x0, symName: __RNvMs_NtCse1nGBsou5OW_5alloc3vecINtB4_3VecTNtNtCs6IAuOt8vWmF_3syn8generics12GenericParamNtNtBJ_5token5CommaEE8as_sliceBJ_, symObjAddr: 0x468C, symBinAddr: 0x2AF64, symSize: 0x64 }
  - { offset: 0x86513, size: 0x8, addend: 0x0, symName: __RNvMs_NtCse1nGBsou5OW_5alloc3vecINtB4_3VecTNtNtCs6IAuOt8vWmF_3syn8generics13CapturedParamNtNtBJ_5token5CommaEE4pushBJ_, symObjAddr: 0x46F0, symBinAddr: 0x2AFC8, symSize: 0x118 }
  - { offset: 0x8676C, size: 0x8, addend: 0x0, symName: __RNvMs_NtCse1nGBsou5OW_5alloc3vecINtB4_3VecTNtNtCs6IAuOt8vWmF_3syn8generics13CapturedParamNtNtBJ_5token5CommaEE8as_sliceBJ_, symObjAddr: 0x4808, symBinAddr: 0x2B0E0, symSize: 0x64 }
  - { offset: 0x86833, size: 0x8, addend: 0x0, symName: __RNvMs_NtCse1nGBsou5OW_5alloc3vecINtB4_3VecTNtNtCs6IAuOt8vWmF_3syn8generics14TypeParamBoundNtNtBJ_5token4PlusEE3lenBJ_, symObjAddr: 0x486C, symBinAddr: 0x2B144, symSize: 0x18 }
  - { offset: 0x8696E, size: 0x8, addend: 0x0, symName: __RNvMs_NtCse1nGBsou5OW_5alloc3vecINtB4_3VecTNtNtCs6IAuOt8vWmF_3syn8generics14TypeParamBoundNtNtBJ_5token4PlusEE4pushBJ_, symObjAddr: 0x4884, symBinAddr: 0x2B15C, symSize: 0x118 }
  - { offset: 0x86BBC, size: 0x8, addend: 0x0, symName: __RNvMs_NtCse1nGBsou5OW_5alloc3vecINtB4_3VecTNtNtCs6IAuOt8vWmF_3syn8generics14TypeParamBoundNtNtBJ_5token4PlusEE8as_sliceBJ_, symObjAddr: 0x499C, symBinAddr: 0x2B274, symSize: 0x64 }
  - { offset: 0x86C83, size: 0x8, addend: 0x0, symName: __RNvMs_NtCse1nGBsou5OW_5alloc3vecINtB4_3VecTNtNtCs6IAuOt8vWmF_3syn8generics14WherePredicateNtNtBJ_5token5CommaEE3lenBJ_, symObjAddr: 0x4A00, symBinAddr: 0x2B2D8, symSize: 0x18 }
  - { offset: 0x86DCB, size: 0x8, addend: 0x0, symName: __RNvMs_NtCse1nGBsou5OW_5alloc3vecINtB4_3VecTNtNtCs6IAuOt8vWmF_3syn8generics14WherePredicateNtNtBJ_5token5CommaEE4pushBJ_, symObjAddr: 0x4A18, symBinAddr: 0x2B2F0, symSize: 0x120 }
  - { offset: 0x87019, size: 0x8, addend: 0x0, symName: __RNvMs_NtCse1nGBsou5OW_5alloc3vecINtB4_3VecTNtNtCs6IAuOt8vWmF_3syn8generics14WherePredicateNtNtBJ_5token5CommaEE8as_sliceBJ_, symObjAddr: 0x4B38, symBinAddr: 0x2B410, symSize: 0x64 }
  - { offset: 0x870E0, size: 0x8, addend: 0x0, symName: __RNvMs_NtCse1nGBsou5OW_5alloc3vecINtB4_3VecTNtNtCs6IAuOt8vWmF_3syn8lifetime8LifetimeNtNtBJ_5token4PlusEE3lenBJ_, symObjAddr: 0x4B9C, symBinAddr: 0x2B474, symSize: 0x18 }
  - { offset: 0x87228, size: 0x8, addend: 0x0, symName: __RNvMs_NtCse1nGBsou5OW_5alloc3vecINtB4_3VecTNtNtCs6IAuOt8vWmF_3syn8lifetime8LifetimeNtNtBJ_5token4PlusEE4pushBJ_, symObjAddr: 0x4BB4, symBinAddr: 0x2B48C, symSize: 0x118 }
  - { offset: 0x87474, size: 0x8, addend: 0x0, symName: __RNvMs_NtCse1nGBsou5OW_5alloc3vecINtB4_3VecTNtNtCs6IAuOt8vWmF_3syn8lifetime8LifetimeNtNtBJ_5token4PlusEE8as_sliceBJ_, symObjAddr: 0x4CCC, symBinAddr: 0x2B5A4, symSize: 0x64 }
  - { offset: 0x87634, size: 0x8, addend: 0x0, symName: __RNvMs_NtCse1nGBsou5OW_5alloc3vecINtB4_3VechE13shrink_to_fitCs6IAuOt8vWmF_3syn, symObjAddr: 0x4D30, symBinAddr: 0x2B608, symSize: 0xE4 }
  - { offset: 0x87862, size: 0x8, addend: 0x0, symName: __RNvMs_NtCse1nGBsou5OW_5alloc3vecINtB4_3VechE16into_boxed_sliceCs6IAuOt8vWmF_3syn, symObjAddr: 0x4E14, symBinAddr: 0x2B6EC, symSize: 0x110 }
  - { offset: 0x87A2B, size: 0x8, addend: 0x0, symName: __RNvMs_NtCse1nGBsou5OW_5alloc3vecINtB4_3VechE3lenCs6IAuOt8vWmF_3syn, symObjAddr: 0x4F24, symBinAddr: 0x2B7FC, symSize: 0x18 }
  - { offset: 0x87AD0, size: 0x8, addend: 0x0, symName: __RNvMs_NtCse1nGBsou5OW_5alloc3vecINtB4_3VechE8as_sliceCs6IAuOt8vWmF_3syn, symObjAddr: 0x4F3C, symBinAddr: 0x2B814, symSize: 0x60 }
  - { offset: 0x87D40, size: 0x8, addend: 0x0, symName: __RNvMs_NtCse1nGBsou5OW_5alloc3vecINtB4_3VechE9split_offCs6IAuOt8vWmF_3syn, symObjAddr: 0x4F9C, symBinAddr: 0x2B874, symSize: 0x140 }
  - { offset: 0x8E4EC, size: 0x8, addend: 0x0, symName: __RNvXNtNtCs6IAuOt8vWmF_3syn4expr7parsingNtB4_4ExprNtNtB6_5parse5Parse5parse, symObjAddr: 0x2BA8, symBinAddr: 0x2E10C, symSize: 0x3C }
  - { offset: 0x8E520, size: 0x8, addend: 0x0, symName: __RNvXs4_NtNtCs6IAuOt8vWmF_3syn4expr7parsingNtB7_7ExprLitNtNtB9_5parse5Parse5parse, symObjAddr: 0x3648, symBinAddr: 0x2E148, symSize: 0x14C }
  - { offset: 0x8E573, size: 0x8, addend: 0x0, symName: __RNvXs7_NtNtCs6IAuOt8vWmF_3syn4expr7parsingNtB7_6ExprIfNtNtB9_5parse5Parse5parse, symObjAddr: 0x3A7C, symBinAddr: 0x2E294, symSize: 0x103C }
  - { offset: 0x8E7E9, size: 0x8, addend: 0x0, symName: __RNvXs8_NtNtCs6IAuOt8vWmF_3syn4expr7parsingNtB7_9ExprInferNtNtB9_5parse5Parse5parse, symObjAddr: 0x4AB8, symBinAddr: 0x2F2D0, symSize: 0x1D0 }
  - { offset: 0x8E87A, size: 0x8, addend: 0x0, symName: __RNvXs9_NtNtCs6IAuOt8vWmF_3syn4expr7parsingNtB7_11ExprForLoopNtNtB9_5parse5Parse5parse, symObjAddr: 0x4C88, symBinAddr: 0x2F4A0, symSize: 0x9A4 }
  - { offset: 0x8EB49, size: 0x8, addend: 0x0, symName: __RNvXsa_NtNtCs6IAuOt8vWmF_3syn4expr7parsingNtB7_8ExprLoopNtNtB9_5parse5Parse5parse, symObjAddr: 0x562C, symBinAddr: 0x2FE44, symSize: 0x590 }
  - { offset: 0x8ECFC, size: 0x8, addend: 0x0, symName: __RNvXsb_NtNtCs6IAuOt8vWmF_3syn4expr7parsingNtB7_9ExprMatchNtNtB9_5parse5Parse5parse, symObjAddr: 0x5BBC, symBinAddr: 0x303D4, symSize: 0x60C }
  - { offset: 0x8EEE5, size: 0x8, addend: 0x0, symName: __RNvXsh_NtNtCs6IAuOt8vWmF_3syn4expr7parsingNtB7_10ExprReturnNtNtB9_5parse5Parse5parse, symObjAddr: 0x6A04, symBinAddr: 0x309E0, symSize: 0x210 }
  - { offset: 0x8EF47, size: 0x8, addend: 0x0, symName: __RNvXsi_NtNtCs6IAuOt8vWmF_3syn4expr7parsingNtB7_12ExprTryBlockNtNtB9_5parse5Parse5parse, symObjAddr: 0x6C14, symBinAddr: 0x30BF0, symSize: 0x220 }
  - { offset: 0x8EFB9, size: 0x8, addend: 0x0, symName: __RNvXsj_NtNtCs6IAuOt8vWmF_3syn4expr7parsingNtB7_9ExprYieldNtNtB9_5parse5Parse5parse, symObjAddr: 0x6E34, symBinAddr: 0x30E10, symSize: 0x210 }
  - { offset: 0x8F01B, size: 0x8, addend: 0x0, symName: __RNvXsk_NtNtCs6IAuOt8vWmF_3syn4expr7parsingNtB7_9ExprAsyncNtNtB9_5parse5Parse5parse, symObjAddr: 0x7044, symBinAddr: 0x31020, symSize: 0x2E8 }
  - { offset: 0x8F0AC, size: 0x8, addend: 0x0, symName: __RNvXsl_NtNtCs6IAuOt8vWmF_3syn4expr7parsingNtB7_9ExprWhileNtNtB9_5parse5Parse5parse, symObjAddr: 0x732C, symBinAddr: 0x31308, symSize: 0x760 }
  - { offset: 0x8F2E2, size: 0x8, addend: 0x0, symName: __RNvXsm_NtNtCs6IAuOt8vWmF_3syn4expr7parsingNtB7_9ExprConstNtNtB9_5parse5Parse5parse, symObjAddr: 0x7A8C, symBinAddr: 0x31A68, symSize: 0x3BC }
  - { offset: 0x8F438, size: 0x8, addend: 0x0, symName: __RNvXsn_NtNtCs6IAuOt8vWmF_3syn4expr7parsingNtB7_5LabelNtNtB9_5parse5Parse5parse, symObjAddr: 0x7E48, symBinAddr: 0x31E24, symSize: 0x1D4 }
  - { offset: 0x8F4C9, size: 0x8, addend: 0x0, symName: __RNvXsp_NtNtCs6IAuOt8vWmF_3syn4expr7parsingNtB7_12ExprContinueNtNtB9_5parse5Parse5parse, symObjAddr: 0x801C, symBinAddr: 0x31FF8, symSize: 0x200 }
  - { offset: 0x8F53B, size: 0x8, addend: 0x0, symName: __RNvXsq_NtNtCs6IAuOt8vWmF_3syn4expr7parsingNtB7_10FieldValueNtNtB9_5parse5Parse5parse, symObjAddr: 0x821C, symBinAddr: 0x321F8, symSize: 0x560 }
  - { offset: 0x8F6DA, size: 0x8, addend: 0x0, symName: __RNvXss_NtNtCs6IAuOt8vWmF_3syn4expr7parsingNtB7_10ExprUnsafeNtNtB9_5parse5Parse5parse, symObjAddr: 0x893C, symBinAddr: 0x32758, symSize: 0x3BC }
  - { offset: 0x8F830, size: 0x8, addend: 0x0, symName: __RNvXst_NtNtCs6IAuOt8vWmF_3syn4expr7parsingNtB7_9ExprBlockNtNtB9_5parse5Parse5parse, symObjAddr: 0x8CF8, symBinAddr: 0x32B14, symSize: 0x4FC }
  - { offset: 0x8F9B6, size: 0x8, addend: 0x0, symName: __RNvXsu_NtNtCs6IAuOt8vWmF_3syn4expr7parsingNtB7_11RangeLimitsNtNtB9_5parse5Parse5parse, symObjAddr: 0x91F4, symBinAddr: 0x33010, symSize: 0x234 }
  - { offset: 0x8FA44, size: 0x8, addend: 0x0, symName: __RNvXsw_NtNtCs6IAuOt8vWmF_3syn4expr7parsingNtB7_8ExprPathNtNtB9_5parse5Parse5parse, symObjAddr: 0x975C, symBinAddr: 0x33578, symSize: 0x238 }
  - { offset: 0x8FB32, size: 0x8, addend: 0x0, symName: __RNvXsx_NtNtCs6IAuOt8vWmF_3syn4expr7parsingNtB7_6MemberNtNtB9_5parse5Parse5parse, symObjAddr: 0x9994, symBinAddr: 0x337B0, symSize: 0xFC }
  - { offset: 0x8FB66, size: 0x8, addend: 0x0, symName: __RNvXsz_NtNtCs6IAuOt8vWmF_3syn4expr7parsingNtB7_3ArmNtNtB9_5parse5Parse5parse, symObjAddr: 0x9C54, symBinAddr: 0x33A70, symSize: 0x8EC }
  - { offset: 0x8FD9E, size: 0x8, addend: 0x0, symName: __RNvXsA_NtNtCs6IAuOt8vWmF_3syn4expr7parsingNtB7_5IndexNtNtB9_5parse5Parse5parse, symObjAddr: 0xA540, symBinAddr: 0x3435C, symSize: 0x28C }
  - { offset: 0x8FE4C, size: 0x8, addend: 0x0, symName: __RNvXNtNtCs6IAuOt8vWmF_3syn4expr8printingNtB4_9ExprArrayNtNtCs2cqEZUIJimJ_5quote9to_tokens8ToTokens9to_tokens, symObjAddr: 0xAA84, symBinAddr: 0x345E8, symSize: 0x58 }
  - { offset: 0x8FE8B, size: 0x8, addend: 0x0, symName: __RNvXs_NtNtCs6IAuOt8vWmF_3syn4expr8printingNtB6_10ExprAssignNtNtCs2cqEZUIJimJ_5quote9to_tokens8ToTokens9to_tokens, symObjAddr: 0xAADC, symBinAddr: 0x34640, symSize: 0x58 }
  - { offset: 0x8FECA, size: 0x8, addend: 0x0, symName: __RNvXs0_NtNtCs6IAuOt8vWmF_3syn4expr8printingNtB7_9ExprAsyncNtNtCs2cqEZUIJimJ_5quote9to_tokens8ToTokens9to_tokens, symObjAddr: 0xAB34, symBinAddr: 0x34698, symSize: 0x74 }
  - { offset: 0x8FF09, size: 0x8, addend: 0x0, symName: __RNvXs1_NtNtCs6IAuOt8vWmF_3syn4expr8printingNtB7_9ExprAwaitNtNtCs2cqEZUIJimJ_5quote9to_tokens8ToTokens9to_tokens, symObjAddr: 0xABA8, symBinAddr: 0x3470C, symSize: 0x58 }
  - { offset: 0x8FF48, size: 0x8, addend: 0x0, symName: __RNvXs2_NtNtCs6IAuOt8vWmF_3syn4expr8printingNtB7_10ExprBinaryNtNtCs2cqEZUIJimJ_5quote9to_tokens8ToTokens9to_tokens, symObjAddr: 0xAC00, symBinAddr: 0x34764, symSize: 0x58 }
  - { offset: 0x8FF87, size: 0x8, addend: 0x0, symName: __RNvXs3_NtNtCs6IAuOt8vWmF_3syn4expr8printingNtB7_9ExprBlockNtNtCs2cqEZUIJimJ_5quote9to_tokens8ToTokens9to_tokens, symObjAddr: 0xAC58, symBinAddr: 0x347BC, symSize: 0x68 }
  - { offset: 0x8FFC6, size: 0x8, addend: 0x0, symName: __RNvXs4_NtNtCs6IAuOt8vWmF_3syn4expr8printingNtB7_9ExprBreakNtNtCs2cqEZUIJimJ_5quote9to_tokens8ToTokens9to_tokens, symObjAddr: 0xACC0, symBinAddr: 0x34824, symSize: 0x58 }
  - { offset: 0x90005, size: 0x8, addend: 0x0, symName: __RNvXs5_NtNtCs6IAuOt8vWmF_3syn4expr8printingNtB7_8ExprCallNtNtCs2cqEZUIJimJ_5quote9to_tokens8ToTokens9to_tokens, symObjAddr: 0xAD18, symBinAddr: 0x3487C, symSize: 0x58 }
  - { offset: 0x90044, size: 0x8, addend: 0x0, symName: __RNvXs6_NtNtCs6IAuOt8vWmF_3syn4expr8printingNtB7_8ExprCastNtNtCs2cqEZUIJimJ_5quote9to_tokens8ToTokens9to_tokens, symObjAddr: 0xAD70, symBinAddr: 0x348D4, symSize: 0x58 }
  - { offset: 0x90083, size: 0x8, addend: 0x0, symName: __RNvXs7_NtNtCs6IAuOt8vWmF_3syn4expr8printingNtB7_11ExprClosureNtNtCs2cqEZUIJimJ_5quote9to_tokens8ToTokens9to_tokens, symObjAddr: 0xADC8, symBinAddr: 0x3492C, symSize: 0x58 }
  - { offset: 0x900C2, size: 0x8, addend: 0x0, symName: __RNvXs8_NtNtCs6IAuOt8vWmF_3syn4expr8printingNtB7_9ExprConstNtNtCs2cqEZUIJimJ_5quote9to_tokens8ToTokens9to_tokens, symObjAddr: 0xAE20, symBinAddr: 0x34984, symSize: 0x68 }
  - { offset: 0x90101, size: 0x8, addend: 0x0, symName: __RNvXs9_NtNtCs6IAuOt8vWmF_3syn4expr8printingNtB7_12ExprContinueNtNtCs2cqEZUIJimJ_5quote9to_tokens8ToTokens9to_tokens, symObjAddr: 0xAE88, symBinAddr: 0x349EC, symSize: 0x64 }
  - { offset: 0x90140, size: 0x8, addend: 0x0, symName: __RNvXsa_NtNtCs6IAuOt8vWmF_3syn4expr8printingNtB7_9ExprFieldNtNtCs2cqEZUIJimJ_5quote9to_tokens8ToTokens9to_tokens, symObjAddr: 0xAEEC, symBinAddr: 0x34A50, symSize: 0x58 }
  - { offset: 0x9017F, size: 0x8, addend: 0x0, symName: __RNvXsb_NtNtCs6IAuOt8vWmF_3syn4expr8printingNtB7_11ExprForLoopNtNtCs2cqEZUIJimJ_5quote9to_tokens8ToTokens9to_tokens, symObjAddr: 0xAF44, symBinAddr: 0x34AA8, symSize: 0xDC }
  - { offset: 0x901BE, size: 0x8, addend: 0x0, symName: __RNvXsc_NtNtCs6IAuOt8vWmF_3syn4expr8printingNtB7_9ExprGroupNtNtCs2cqEZUIJimJ_5quote9to_tokens8ToTokens9to_tokens, symObjAddr: 0xB020, symBinAddr: 0x34B84, symSize: 0x58 }
  - { offset: 0x901FD, size: 0x8, addend: 0x0, symName: __RNvXsd_NtNtCs6IAuOt8vWmF_3syn4expr8printingNtB7_6ExprIfNtNtCs2cqEZUIJimJ_5quote9to_tokens8ToTokens9to_tokens, symObjAddr: 0xB078, symBinAddr: 0x34BDC, symSize: 0x208 }
  - { offset: 0x902D3, size: 0x8, addend: 0x0, symName: __RNvXse_NtNtCs6IAuOt8vWmF_3syn4expr8printingNtB7_9ExprIndexNtNtCs2cqEZUIJimJ_5quote9to_tokens8ToTokens9to_tokens, symObjAddr: 0xB280, symBinAddr: 0x34DE4, symSize: 0x58 }
  - { offset: 0x90312, size: 0x8, addend: 0x0, symName: __RNvXsf_NtNtCs6IAuOt8vWmF_3syn4expr8printingNtB7_9ExprInferNtNtCs2cqEZUIJimJ_5quote9to_tokens8ToTokens9to_tokens, symObjAddr: 0xB2D8, symBinAddr: 0x34E3C, symSize: 0x54 }
  - { offset: 0x90351, size: 0x8, addend: 0x0, symName: __RNvXsg_NtNtCs6IAuOt8vWmF_3syn4expr8printingNtB7_7ExprLetNtNtCs2cqEZUIJimJ_5quote9to_tokens8ToTokens9to_tokens, symObjAddr: 0xB32C, symBinAddr: 0x34E90, symSize: 0x58 }
  - { offset: 0x90390, size: 0x8, addend: 0x0, symName: __RNvXsh_NtNtCs6IAuOt8vWmF_3syn4expr8printingNtB7_7ExprLitNtNtCs2cqEZUIJimJ_5quote9to_tokens8ToTokens9to_tokens, symObjAddr: 0xB384, symBinAddr: 0x34EE8, symSize: 0x54 }
  - { offset: 0x903CF, size: 0x8, addend: 0x0, symName: __RNvXsi_NtNtCs6IAuOt8vWmF_3syn4expr8printingNtB7_8ExprLoopNtNtCs2cqEZUIJimJ_5quote9to_tokens8ToTokens9to_tokens, symObjAddr: 0xB3D8, symBinAddr: 0x34F3C, symSize: 0x78 }
  - { offset: 0x9040E, size: 0x8, addend: 0x0, symName: __RNvXsj_NtNtCs6IAuOt8vWmF_3syn4expr8printingNtB7_9ExprMacroNtNtCs2cqEZUIJimJ_5quote9to_tokens8ToTokens9to_tokens, symObjAddr: 0xB450, symBinAddr: 0x34FB4, symSize: 0x54 }
  - { offset: 0x9044D, size: 0x8, addend: 0x0, symName: __RNvXsk_NtNtCs6IAuOt8vWmF_3syn4expr8printingNtB7_9ExprMatchNtNtCs2cqEZUIJimJ_5quote9to_tokens8ToTokens9to_tokens, symObjAddr: 0xB4A4, symBinAddr: 0x35008, symSize: 0xAC }
  - { offset: 0x9048C, size: 0x8, addend: 0x0, symName: __RNvXsl_NtNtCs6IAuOt8vWmF_3syn4expr8printingNtB7_14ExprMethodCallNtNtCs2cqEZUIJimJ_5quote9to_tokens8ToTokens9to_tokens, symObjAddr: 0xB550, symBinAddr: 0x350B4, symSize: 0x58 }
  - { offset: 0x904CB, size: 0x8, addend: 0x0, symName: __RNvXsm_NtNtCs6IAuOt8vWmF_3syn4expr8printingNtB7_9ExprParenNtNtCs2cqEZUIJimJ_5quote9to_tokens8ToTokens9to_tokens, symObjAddr: 0xB5A8, symBinAddr: 0x3510C, symSize: 0x58 }
  - { offset: 0x9050A, size: 0x8, addend: 0x0, symName: __RNvXsn_NtNtCs6IAuOt8vWmF_3syn4expr8printingNtB7_8ExprPathNtNtCs2cqEZUIJimJ_5quote9to_tokens8ToTokens9to_tokens, symObjAddr: 0xB600, symBinAddr: 0x35164, symSize: 0x64 }
  - { offset: 0x90549, size: 0x8, addend: 0x0, symName: __RNvXso_NtNtCs6IAuOt8vWmF_3syn4expr8printingNtB7_9ExprRangeNtNtCs2cqEZUIJimJ_5quote9to_tokens8ToTokens9to_tokens, symObjAddr: 0xB664, symBinAddr: 0x351C8, symSize: 0x58 }
  - { offset: 0x90588, size: 0x8, addend: 0x0, symName: __RNvXsp_NtNtCs6IAuOt8vWmF_3syn4expr8printingNtB7_11ExprRawAddrNtNtCs2cqEZUIJimJ_5quote9to_tokens8ToTokens9to_tokens, symObjAddr: 0xB6BC, symBinAddr: 0x35220, symSize: 0x58 }
  - { offset: 0x905C7, size: 0x8, addend: 0x0, symName: __RNvXsq_NtNtCs6IAuOt8vWmF_3syn4expr8printingNtB7_13ExprReferenceNtNtCs2cqEZUIJimJ_5quote9to_tokens8ToTokens9to_tokens, symObjAddr: 0xB714, symBinAddr: 0x35278, symSize: 0x58 }
  - { offset: 0x90606, size: 0x8, addend: 0x0, symName: __RNvXsr_NtNtCs6IAuOt8vWmF_3syn4expr8printingNtB7_10ExprRepeatNtNtCs2cqEZUIJimJ_5quote9to_tokens8ToTokens9to_tokens, symObjAddr: 0xB76C, symBinAddr: 0x352D0, symSize: 0x58 }
  - { offset: 0x90645, size: 0x8, addend: 0x0, symName: __RNvXss_NtNtCs6IAuOt8vWmF_3syn4expr8printingNtB7_10ExprReturnNtNtCs2cqEZUIJimJ_5quote9to_tokens8ToTokens9to_tokens, symObjAddr: 0xB7C4, symBinAddr: 0x35328, symSize: 0x58 }
  - { offset: 0x90684, size: 0x8, addend: 0x0, symName: __RNvXst_NtNtCs6IAuOt8vWmF_3syn4expr8printingNtB7_10ExprStructNtNtCs2cqEZUIJimJ_5quote9to_tokens8ToTokens9to_tokens, symObjAddr: 0xB81C, symBinAddr: 0x35380, symSize: 0x78 }
  - { offset: 0x906C3, size: 0x8, addend: 0x0, symName: __RNvXsu_NtNtCs6IAuOt8vWmF_3syn4expr8printingNtB7_7ExprTryNtNtCs2cqEZUIJimJ_5quote9to_tokens8ToTokens9to_tokens, symObjAddr: 0xB894, symBinAddr: 0x353F8, symSize: 0x58 }
  - { offset: 0x90702, size: 0x8, addend: 0x0, symName: __RNvXsv_NtNtCs6IAuOt8vWmF_3syn4expr8printingNtB7_12ExprTryBlockNtNtCs2cqEZUIJimJ_5quote9to_tokens8ToTokens9to_tokens, symObjAddr: 0xB8EC, symBinAddr: 0x35450, symSize: 0x64 }
  - { offset: 0x90741, size: 0x8, addend: 0x0, symName: __RNvXsw_NtNtCs6IAuOt8vWmF_3syn4expr8printingNtB7_9ExprTupleNtNtCs2cqEZUIJimJ_5quote9to_tokens8ToTokens9to_tokens, symObjAddr: 0xB950, symBinAddr: 0x354B4, symSize: 0x58 }
  - { offset: 0x90780, size: 0x8, addend: 0x0, symName: __RNvXsx_NtNtCs6IAuOt8vWmF_3syn4expr8printingNtB7_9ExprUnaryNtNtCs2cqEZUIJimJ_5quote9to_tokens8ToTokens9to_tokens, symObjAddr: 0xB9A8, symBinAddr: 0x3550C, symSize: 0x58 }
  - { offset: 0x907BF, size: 0x8, addend: 0x0, symName: __RNvXsy_NtNtCs6IAuOt8vWmF_3syn4expr8printingNtB7_10ExprUnsafeNtNtCs2cqEZUIJimJ_5quote9to_tokens8ToTokens9to_tokens, symObjAddr: 0xBA00, symBinAddr: 0x35564, symSize: 0x68 }
  - { offset: 0x907FE, size: 0x8, addend: 0x0, symName: __RNvXsz_NtNtCs6IAuOt8vWmF_3syn4expr8printingNtB7_9ExprWhileNtNtCs2cqEZUIJimJ_5quote9to_tokens8ToTokens9to_tokens, symObjAddr: 0xBA68, symBinAddr: 0x355CC, symSize: 0xBC }
  - { offset: 0x9083D, size: 0x8, addend: 0x0, symName: __RNvXsA_NtNtCs6IAuOt8vWmF_3syn4expr8printingNtB7_9ExprYieldNtNtCs2cqEZUIJimJ_5quote9to_tokens8ToTokens9to_tokens, symObjAddr: 0xBB24, symBinAddr: 0x35688, symSize: 0x58 }
  - { offset: 0x9087C, size: 0x8, addend: 0x0, symName: __RNvXsB_NtNtCs6IAuOt8vWmF_3syn4expr8printingNtB7_3ArmNtNtCs2cqEZUIJimJ_5quote9to_tokens8ToTokens9to_tokens, symObjAddr: 0xBB7C, symBinAddr: 0x356E0, symSize: 0x128 }
  - { offset: 0x908E9, size: 0x8, addend: 0x0, symName: __RNvXsC_NtNtCs6IAuOt8vWmF_3syn4expr8printingNtB7_10FieldValueNtNtCs2cqEZUIJimJ_5quote9to_tokens8ToTokens9to_tokens, symObjAddr: 0xBCA4, symBinAddr: 0x35808, symSize: 0xB0 }
  - { offset: 0x90946, size: 0x8, addend: 0x0, symName: __RNvXsD_NtNtCs6IAuOt8vWmF_3syn4expr8printingNtB7_5IndexNtNtCs2cqEZUIJimJ_5quote9to_tokens8ToTokens9to_tokens, symObjAddr: 0xBD54, symBinAddr: 0x358B8, symSize: 0xD4 }
  - { offset: 0x9099B, size: 0x8, addend: 0x0, symName: __RNvXsE_NtNtCs6IAuOt8vWmF_3syn4expr8printingNtB7_5LabelNtNtCs2cqEZUIJimJ_5quote9to_tokens8ToTokens9to_tokens, symObjAddr: 0xBE28, symBinAddr: 0x3598C, symSize: 0x50 }
  - { offset: 0x909DA, size: 0x8, addend: 0x0, symName: __RNvXsF_NtNtCs6IAuOt8vWmF_3syn4expr8printingNtB7_6MemberNtNtCs2cqEZUIJimJ_5quote9to_tokens8ToTokens9to_tokens, symObjAddr: 0xBE78, symBinAddr: 0x359DC, symSize: 0x98 }
  - { offset: 0x90A4D, size: 0x8, addend: 0x0, symName: __RNvXsG_NtNtCs6IAuOt8vWmF_3syn4expr8printingNtB7_11RangeLimitsNtNtCs2cqEZUIJimJ_5quote9to_tokens8ToTokens9to_tokens, symObjAddr: 0xBF10, symBinAddr: 0x35A74, symSize: 0x94 }
  - { offset: 0x90AC0, size: 0x8, addend: 0x0, symName: __RNvXsH_NtNtCs6IAuOt8vWmF_3syn4expr8printingNtB7_17PointerMutabilityNtNtCs2cqEZUIJimJ_5quote9to_tokens8ToTokens9to_tokens, symObjAddr: 0xBFA4, symBinAddr: 0x35B08, symSize: 0x94 }
  - { offset: 0x90B39, size: 0x8, addend: 0x0, symName: __RNcNtNtNtCs6IAuOt8vWmF_3syn4expr4Expr5Async0B7_, symObjAddr: 0xC038, symBinAddr: 0x35B9C, symSize: 0x3C }
  - { offset: 0x90B68, size: 0x8, addend: 0x0, symName: __RNcNtNtNtCs6IAuOt8vWmF_3syn4expr4Expr5Block0B7_, symObjAddr: 0xC074, symBinAddr: 0x35BD8, symSize: 0x3C }
  - { offset: 0x90B97, size: 0x8, addend: 0x0, symName: __RNcNtNtNtCs6IAuOt8vWmF_3syn4expr4Expr5Break0B7_, symObjAddr: 0xC0B0, symBinAddr: 0x35C14, symSize: 0x3C }
  - { offset: 0x90BC6, size: 0x8, addend: 0x0, symName: __RNcNtNtNtCs6IAuOt8vWmF_3syn4expr4Expr7Closure0B7_, symObjAddr: 0xC0EC, symBinAddr: 0x35C50, symSize: 0x3C }
  - { offset: 0x90BF5, size: 0x8, addend: 0x0, symName: __RNcNtNtNtCs6IAuOt8vWmF_3syn4expr4Expr5Const0B7_, symObjAddr: 0xC128, symBinAddr: 0x35C8C, symSize: 0x3C }
  - { offset: 0x90C24, size: 0x8, addend: 0x0, symName: __RNcNtNtNtCs6IAuOt8vWmF_3syn4expr4Expr8Continue0B7_, symObjAddr: 0xC164, symBinAddr: 0x35CC8, symSize: 0x3C }
  - { offset: 0x90C53, size: 0x8, addend: 0x0, symName: __RNcNtNtNtCs6IAuOt8vWmF_3syn4expr4Expr7ForLoop0B7_, symObjAddr: 0xC1A0, symBinAddr: 0x35D04, symSize: 0x3C }
  - { offset: 0x90C82, size: 0x8, addend: 0x0, symName: __RNcNtNtNtCs6IAuOt8vWmF_3syn4expr4Expr2If0B7_, symObjAddr: 0xC1DC, symBinAddr: 0x35D40, symSize: 0x3C }
  - { offset: 0x90CB1, size: 0x8, addend: 0x0, symName: __RNcNtNtNtCs6IAuOt8vWmF_3syn4expr4Expr5Infer0B7_, symObjAddr: 0xC218, symBinAddr: 0x35D7C, symSize: 0x20 }
  - { offset: 0x90CDF, size: 0x8, addend: 0x0, symName: __RNcNtNtNtCs6IAuOt8vWmF_3syn4expr4Expr3Let0B7_, symObjAddr: 0xC238, symBinAddr: 0x35D9C, symSize: 0x3C }
  - { offset: 0x90D0E, size: 0x8, addend: 0x0, symName: __RNcNtNtNtCs6IAuOt8vWmF_3syn4expr4Expr3Lit0B7_, symObjAddr: 0xC274, symBinAddr: 0x35DD8, symSize: 0x3C }
  - { offset: 0x90D3D, size: 0x8, addend: 0x0, symName: __RNcNtNtNtCs6IAuOt8vWmF_3syn4expr4Expr4Loop0B7_, symObjAddr: 0xC2B0, symBinAddr: 0x35E14, symSize: 0x3C }
  - { offset: 0x90D6C, size: 0x8, addend: 0x0, symName: __RNcNtNtNtCs6IAuOt8vWmF_3syn4expr4Expr5Match0B7_, symObjAddr: 0xC2EC, symBinAddr: 0x35E50, symSize: 0x3C }
  - { offset: 0x90D9B, size: 0x8, addend: 0x0, symName: __RNcNtNtNtCs6IAuOt8vWmF_3syn4expr4Expr5Range0B7_, symObjAddr: 0xC328, symBinAddr: 0x35E8C, symSize: 0x3C }
  - { offset: 0x90DCA, size: 0x8, addend: 0x0, symName: __RNcNtNtNtCs6IAuOt8vWmF_3syn4expr4Expr6Return0B7_, symObjAddr: 0xC364, symBinAddr: 0x35EC8, symSize: 0x3C }
  - { offset: 0x90DF9, size: 0x8, addend: 0x0, symName: __RNcNtNtNtCs6IAuOt8vWmF_3syn4expr4Expr6Struct0B7_, symObjAddr: 0xC3A0, symBinAddr: 0x35F04, symSize: 0x3C }
  - { offset: 0x90E28, size: 0x8, addend: 0x0, symName: __RNcNtNtNtCs6IAuOt8vWmF_3syn4expr4Expr8TryBlock0B7_, symObjAddr: 0xC3DC, symBinAddr: 0x35F40, symSize: 0x3C }
  - { offset: 0x90E57, size: 0x8, addend: 0x0, symName: __RNcNtNtNtCs6IAuOt8vWmF_3syn4expr4Expr5Unary0B7_, symObjAddr: 0xC418, symBinAddr: 0x35F7C, symSize: 0x3C }
  - { offset: 0x90E86, size: 0x8, addend: 0x0, symName: __RNcNtNtNtCs6IAuOt8vWmF_3syn4expr4Expr6Unsafe0B7_, symObjAddr: 0xC454, symBinAddr: 0x35FB8, symSize: 0x3C }
  - { offset: 0x90EB5, size: 0x8, addend: 0x0, symName: __RNcNtNtNtCs6IAuOt8vWmF_3syn4expr4Expr5While0B7_, symObjAddr: 0xC490, symBinAddr: 0x35FF4, symSize: 0x3C }
  - { offset: 0x90EE4, size: 0x8, addend: 0x0, symName: __RNcNtNtNtCs6IAuOt8vWmF_3syn4expr4Expr5Yield0B7_, symObjAddr: 0xC4CC, symBinAddr: 0x36030, symSize: 0x3C }
  - { offset: 0x90F14, size: 0x8, addend: 0x0, symName: __RNvXsP_NtCs6IAuOt8vWmF_3syn4exprNtB5_4ExprNtNtCs2cqEZUIJimJ_5quote9to_tokens8ToTokens9to_tokens, symObjAddr: 0xD080, symBinAddr: 0x3606C, symSize: 0x4CC }
  - { offset: 0x913FD, size: 0x8, addend: 0x0, symName: __RNcNtNtNtCs6IAuOt8vWmF_3syn4expr6Member5Named0B7_, symObjAddr: 0xD54C, symBinAddr: 0x36538, symSize: 0x18 }
  - { offset: 0x9142D, size: 0x8, addend: 0x0, symName: __RNcNtNtNtCs6IAuOt8vWmF_3syn4expr6Member7Unnamed0B7_, symObjAddr: 0xD564, symBinAddr: 0x36550, symSize: 0x28 }
  - { offset: 0x91463, size: 0x8, addend: 0x0, symName: __RNcNtNtNtCs6IAuOt8vWmF_3syn4expr11RangeLimits8HalfOpen0B7_, symObjAddr: 0xD58C, symBinAddr: 0x36578, symSize: 0x24 }
  - { offset: 0x91493, size: 0x8, addend: 0x0, symName: __RNcNtNtNtCs6IAuOt8vWmF_3syn4expr11RangeLimits6Closed0B7_, symObjAddr: 0xD5B0, symBinAddr: 0x3659C, symSize: 0x20 }
  - { offset: 0x96EAE, size: 0x8, addend: 0x0, symName: __RNvMNtCsfvfooZQ3Axs_4core5sliceSNtNtCs6IAuOt8vWmF_3syn4expr3Arm4iterBy_, symObjAddr: 0xA44, symBinAddr: 0x2D4B8, symSize: 0x28 }
  - { offset: 0x96EE5, size: 0x8, addend: 0x0, symName: __RNvMNtCsfvfooZQ3Axs_4core5sliceSTNtNtCs6IAuOt8vWmF_3syn4expr10FieldValueNtNtBz_5token5CommaE4iterBz_, symObjAddr: 0xA6C, symBinAddr: 0x2D4E0, symSize: 0x28 }
  - { offset: 0x96F1C, size: 0x8, addend: 0x0, symName: __RNvMNtCsfvfooZQ3Axs_4core5sliceSTNtNtCs6IAuOt8vWmF_3syn4expr4ExprNtNtBz_5token5CommaE4iterBz_, symObjAddr: 0xA94, symBinAddr: 0x2D508, symSize: 0x28 }
  - { offset: 0x98444, size: 0x8, addend: 0x0, symName: __RNvXNtCs2cqEZUIJimJ_5quote9to_tokensRNtNtCs6IAuOt8vWmF_3syn4expr10FieldValueNtB2_8ToTokens9to_tokensBD_, symObjAddr: 0xABC, symBinAddr: 0x2D530, symSize: 0x40 }
  - { offset: 0x98483, size: 0x8, addend: 0x0, symName: __RNvXNtCs2cqEZUIJimJ_5quote9to_tokensRNtNtCs6IAuOt8vWmF_3syn4expr4ExprNtB2_8ToTokens9to_tokensBD_, symObjAddr: 0xAFC, symBinAddr: 0x2D570, symSize: 0x40 }
  - { offset: 0x98521, size: 0x8, addend: 0x0, symName: __RNvMNtCs6IAuOt8vWmF_3syn4exprNtB2_4Expr25parse_without_eager_brace, symObjAddr: 0x1C04, symBinAddr: 0x2D5B0, symSize: 0x3C }
  - { offset: 0x98544, size: 0x8, addend: 0x0, symName: __RNvMNtCs6IAuOt8vWmF_3syn4exprNtB2_4Expr32parse_with_earlier_boundary_rule, symObjAddr: 0x1C40, symBinAddr: 0x2D5EC, symSize: 0x34 }
  - { offset: 0x98567, size: 0x8, addend: 0x0, symName: __RNvMNtCs6IAuOt8vWmF_3syn4exprNtB2_4Expr4peek, symObjAddr: 0x1C74, symBinAddr: 0x2D620, symSize: 0x408 }
  - { offset: 0x98597, size: 0x8, addend: 0x0, symName: __RNvMNtCs6IAuOt8vWmF_3syn4exprNtB2_4Expr13replace_attrs, symObjAddr: 0x207C, symBinAddr: 0x2DA28, symSize: 0x678 }
  - { offset: 0x985ED, size: 0x8, addend: 0x0, symName: __RNvMs6_NtCs6IAuOt8vWmF_3syn4exprNtB5_6Member8is_named, symObjAddr: 0x2A04, symBinAddr: 0x2E0A0, symSize: 0x6C }
  - { offset: 0x98648, size: 0x8, addend: 0x0, symName: __RNvMsv_NtNtCs6IAuOt8vWmF_3syn4expr7parsingNtB7_11RangeLimits14parse_obsolete, symObjAddr: 0x9428, symBinAddr: 0x33244, symSize: 0x334 }
  - { offset: 0x986FB, size: 0x8, addend: 0x0, symName: __RNvMsy_NtNtCs6IAuOt8vWmF_3syn4expr7parsingNtB7_3Arm14parse_multiple, symObjAddr: 0x9A90, symBinAddr: 0x338AC, symSize: 0x1C4 }
  - { offset: 0x9A802, size: 0x8, addend: 0x0, symName: __RNCNvMNtCs6IAuOt8vWmF_3syn10punctuatedINtB4_10PunctuatedNtNtB6_4path11PathSegmentNtNtB6_5token7PathSepE10into_pairs0B6_, symObjAddr: 0x5AA4, symBinAddr: 0x39680, symSize: 0x98 }
  - { offset: 0x9A857, size: 0x8, addend: 0x0, symName: __RNCNvMNtCs6IAuOt8vWmF_3syn10punctuatedINtB4_10PunctuatedNtNtB6_4path11PathSegmentNtNtB6_5token7PathSepE3pop0B6_, symObjAddr: 0x9E58, symBinAddr: 0x3DA34, symSize: 0xC4 }
  - { offset: 0x9A89F, size: 0x8, addend: 0x0, symName: __RNCNvMNtCs6IAuOt8vWmF_3syn10punctuatedINtB4_10PunctuatedNtNtB6_4path11PathSegmentNtNtB6_5token7PathSepE3pops_0B6_, symObjAddr: 0x9F1C, symBinAddr: 0x3DAF8, symSize: 0x74 }
  - { offset: 0x9A9D7, size: 0x8, addend: 0x0, symName: __RINvXs7_NtCs6IAuOt8vWmF_3syn10punctuatedINtB6_10PunctuatedNtNtB8_4path11PathSegmentNtNtB8_5token7PathSepEINtNtNtNtCsfvfooZQ3Axs_4core4iter6traits7collect6ExtendINtB6_4PairBU_B1j_EE6extendINtB6_9IntoPairsBU_B1j_EEB8_, symObjAddr: 0xDFB0, symBinAddr: 0x3F03C, symSize: 0x124 }
  - { offset: 0x9AA2D, size: 0x8, addend: 0x0, symName: __RINvNtCs6IAuOt8vWmF_3syn10punctuated9do_extendNtNtB4_4path11PathSegmentNtNtB4_5token7PathSepINtB2_9IntoPairsBI_B17_EEB4_, symObjAddr: 0xE0D4, symBinAddr: 0x3F160, symSize: 0x3B4 }
  - { offset: 0x9AB2A, size: 0x8, addend: 0x0, symName: __RNvXs8_NtCs6IAuOt8vWmF_3syn10punctuatedINtB5_10PunctuatedNtNtB7_8generics14TypeParamBoundNtNtB7_5token4PlusENtNtNtNtCsfvfooZQ3Axs_4core4iter6traits7collect12IntoIterator9into_iterB7_, symObjAddr: 0xE808, symBinAddr: 0x3F514, symSize: 0x1C0 }
  - { offset: 0x9AB86, size: 0x8, addend: 0x0, symName: __RNCNvXs8_NtCs6IAuOt8vWmF_3syn10punctuatedINtB7_10PunctuatedNtNtB9_8generics14TypeParamBoundNtNtB9_5token4PlusENtNtNtNtCsfvfooZQ3Axs_4core4iter6traits7collect12IntoIterator9into_iter0B9_, symObjAddr: 0xEA50, symBinAddr: 0x3F6D4, symSize: 0x44 }
  - { offset: 0x9ABD2, size: 0x8, addend: 0x0, symName: __RNCNvXs8_NtCs6IAuOt8vWmF_3syn10punctuatedINtB7_10PunctuatedNtNtB9_8generics14TypeParamBoundNtNtB9_5token4PlusENtNtNtNtCsfvfooZQ3Axs_4core4iter6traits7collect12IntoIterator9into_iters_0B9_, symObjAddr: 0xEBC4, symBinAddr: 0x3F718, symSize: 0x98 }
  - { offset: 0x9AC32, size: 0x8, addend: 0x0, symName: __RNvXs9_NtCs6IAuOt8vWmF_3syn10punctuatedRINtB5_10PunctuatedNtNtB7_8generics14TypeParamBoundNtNtB7_5token4PlusENtNtNtNtCsfvfooZQ3Axs_4core4iter6traits7collect12IntoIterator9into_iterB7_, symObjAddr: 0xEC5C, symBinAddr: 0x3F7B0, symSize: 0x34 }
  - { offset: 0x9AC78, size: 0x8, addend: 0x0, symName: __RNvXsc_NtCs6IAuOt8vWmF_3syn10punctuatedINtB5_5PairsNtNtB7_2ty4TypeNtNtB7_5token5CommaENtNtNtNtCsfvfooZQ3Axs_4core4iter6traits8iterator8Iterator4nextB7_, symObjAddr: 0xEC90, symBinAddr: 0x3F7E4, symSize: 0x58 }
  - { offset: 0x9ACB8, size: 0x8, addend: 0x0, symName: __RNvXsc_NtCs6IAuOt8vWmF_3syn10punctuatedINtB5_5PairsNtNtB7_2ty9BareFnArgNtNtB7_5token5CommaENtNtNtNtCsfvfooZQ3Axs_4core4iter6traits8iterator8Iterator4nextB7_, symObjAddr: 0xECE8, symBinAddr: 0x3F83C, symSize: 0x58 }
  - { offset: 0x9ACF8, size: 0x8, addend: 0x0, symName: __RNvXsc_NtCs6IAuOt8vWmF_3syn10punctuatedINtB5_5PairsNtNtB7_3pat3PatNtNtB7_5token2OrENtNtNtNtCsfvfooZQ3Axs_4core4iter6traits8iterator8Iterator4nextB7_, symObjAddr: 0xED40, symBinAddr: 0x3F894, symSize: 0x58 }
  - { offset: 0x9AD38, size: 0x8, addend: 0x0, symName: __RNvXsc_NtCs6IAuOt8vWmF_3syn10punctuatedINtB5_5PairsNtNtB7_3pat3PatNtNtB7_5token5CommaENtNtNtNtCsfvfooZQ3Axs_4core4iter6traits8iterator8Iterator4nextB7_, symObjAddr: 0xED98, symBinAddr: 0x3F8EC, symSize: 0x58 }
  - { offset: 0x9AD78, size: 0x8, addend: 0x0, symName: __RNvXsc_NtCs6IAuOt8vWmF_3syn10punctuatedINtB5_5PairsNtNtB7_3pat8FieldPatNtNtB7_5token5CommaENtNtNtNtCsfvfooZQ3Axs_4core4iter6traits8iterator8Iterator4nextB7_, symObjAddr: 0xEDF0, symBinAddr: 0x3F944, symSize: 0x58 }
  - { offset: 0x9ADB8, size: 0x8, addend: 0x0, symName: __RNvXsc_NtCs6IAuOt8vWmF_3syn10punctuatedINtB5_5PairsNtNtB7_4data5FieldNtNtB7_5token5CommaENtNtNtNtCsfvfooZQ3Axs_4core4iter6traits8iterator8Iterator4nextB7_, symObjAddr: 0xEE48, symBinAddr: 0x3F99C, symSize: 0x58 }
  - { offset: 0x9ADF8, size: 0x8, addend: 0x0, symName: __RNvXsc_NtCs6IAuOt8vWmF_3syn10punctuatedINtB5_5PairsNtNtB7_4data7VariantNtNtB7_5token5CommaENtNtNtNtCsfvfooZQ3Axs_4core4iter6traits8iterator8Iterator4nextB7_, symObjAddr: 0xEEA0, symBinAddr: 0x3F9F4, symSize: 0x58 }
  - { offset: 0x9AE38, size: 0x8, addend: 0x0, symName: __RNvXsc_NtCs6IAuOt8vWmF_3syn10punctuatedINtB5_5PairsNtNtB7_4expr10FieldValueNtNtB7_5token5CommaENtNtNtNtCsfvfooZQ3Axs_4core4iter6traits8iterator8Iterator4nextB7_, symObjAddr: 0xEEF8, symBinAddr: 0x3FA4C, symSize: 0x58 }
  - { offset: 0x9AE78, size: 0x8, addend: 0x0, symName: __RNvXsc_NtCs6IAuOt8vWmF_3syn10punctuatedINtB5_5PairsNtNtB7_4expr4ExprNtNtB7_5token5CommaENtNtNtNtCsfvfooZQ3Axs_4core4iter6traits8iterator8Iterator4nextB7_, symObjAddr: 0xEF50, symBinAddr: 0x3FAA4, symSize: 0x58 }
  - { offset: 0x9AEB8, size: 0x8, addend: 0x0, symName: __RNvXsc_NtCs6IAuOt8vWmF_3syn10punctuatedINtB5_5PairsNtNtB7_4item5FnArgNtNtB7_5token5CommaENtNtNtNtCsfvfooZQ3Axs_4core4iter6traits8iterator8Iterator4nextB7_, symObjAddr: 0xEFA8, symBinAddr: 0x3FAFC, symSize: 0x58 }
  - { offset: 0x9AEF8, size: 0x8, addend: 0x0, symName: __RNvXsc_NtCs6IAuOt8vWmF_3syn10punctuatedINtB5_5PairsNtNtB7_4item7UseTreeNtNtB7_5token5CommaENtNtNtNtCsfvfooZQ3Axs_4core4iter6traits8iterator8Iterator4nextB7_, symObjAddr: 0xF000, symBinAddr: 0x3FB54, symSize: 0x58 }
  - { offset: 0x9AF38, size: 0x8, addend: 0x0, symName: __RNvXsc_NtCs6IAuOt8vWmF_3syn10punctuatedINtB5_5PairsNtNtB7_4path11PathSegmentNtNtB7_5token7PathSepENtNtNtNtCsfvfooZQ3Axs_4core4iter6traits8iterator8Iterator4nextB7_, symObjAddr: 0xF058, symBinAddr: 0x3FBAC, symSize: 0x58 }
  - { offset: 0x9AF78, size: 0x8, addend: 0x0, symName: __RNvXsc_NtCs6IAuOt8vWmF_3syn10punctuatedINtB5_5PairsNtNtB7_4path15GenericArgumentNtNtB7_5token5CommaENtNtNtNtCsfvfooZQ3Axs_4core4iter6traits8iterator8Iterator4nextB7_, symObjAddr: 0xF0B0, symBinAddr: 0x3FC04, symSize: 0x58 }
  - { offset: 0x9AFB8, size: 0x8, addend: 0x0, symName: __RNvXsc_NtCs6IAuOt8vWmF_3syn10punctuatedINtB5_5PairsNtNtB7_8generics12GenericParamNtNtB7_5token5CommaENtNtNtNtCsfvfooZQ3Axs_4core4iter6traits8iterator8Iterator4nextB7_, symObjAddr: 0xF108, symBinAddr: 0x3FC5C, symSize: 0x58 }
  - { offset: 0x9AFF8, size: 0x8, addend: 0x0, symName: __RNvXsc_NtCs6IAuOt8vWmF_3syn10punctuatedINtB5_5PairsNtNtB7_8generics13CapturedParamNtNtB7_5token5CommaENtNtNtNtCsfvfooZQ3Axs_4core4iter6traits8iterator8Iterator4nextB7_, symObjAddr: 0xF160, symBinAddr: 0x3FCB4, symSize: 0x58 }
  - { offset: 0x9B038, size: 0x8, addend: 0x0, symName: __RNvXsc_NtCs6IAuOt8vWmF_3syn10punctuatedINtB5_5PairsNtNtB7_8generics14TypeParamBoundNtNtB7_5token4PlusENtNtNtNtCsfvfooZQ3Axs_4core4iter6traits8iterator8Iterator4nextB7_, symObjAddr: 0xF1B8, symBinAddr: 0x3FD0C, symSize: 0x58 }
  - { offset: 0x9B078, size: 0x8, addend: 0x0, symName: __RNvXsc_NtCs6IAuOt8vWmF_3syn10punctuatedINtB5_5PairsNtNtB7_8generics14WherePredicateNtNtB7_5token5CommaENtNtNtNtCsfvfooZQ3Axs_4core4iter6traits8iterator8Iterator4nextB7_, symObjAddr: 0xF210, symBinAddr: 0x3FD64, symSize: 0x58 }
  - { offset: 0x9B0B8, size: 0x8, addend: 0x0, symName: __RNvXsc_NtCs6IAuOt8vWmF_3syn10punctuatedINtB5_5PairsNtNtB7_8lifetime8LifetimeNtNtB7_5token4PlusENtNtNtNtCsfvfooZQ3Axs_4core4iter6traits8iterator8Iterator4nextB7_, symObjAddr: 0xF268, symBinAddr: 0x3FDBC, symSize: 0x58 }
  - { offset: 0x9B0FD, size: 0x8, addend: 0x0, symName: __RNCNvXsc_NtCs6IAuOt8vWmF_3syn10punctuatedINtB7_5PairsNtNtB9_2ty4TypeNtNtB9_5token5CommaENtNtNtNtCsfvfooZQ3Axs_4core4iter6traits8iterator8Iterator4next0B9_, symObjAddr: 0xF2C0, symBinAddr: 0x3FE14, symSize: 0x40 }
  - { offset: 0x9B172, size: 0x8, addend: 0x0, symName: __RNCNvXsc_NtCs6IAuOt8vWmF_3syn10punctuatedINtB7_5PairsNtNtB9_2ty9BareFnArgNtNtB9_5token5CommaENtNtNtNtCsfvfooZQ3Axs_4core4iter6traits8iterator8Iterator4next0B9_, symObjAddr: 0xF300, symBinAddr: 0x3FE54, symSize: 0x40 }
  - { offset: 0x9B1E7, size: 0x8, addend: 0x0, symName: __RNCNvXsc_NtCs6IAuOt8vWmF_3syn10punctuatedINtB7_5PairsNtNtB9_3pat3PatNtNtB9_5token2OrENtNtNtNtCsfvfooZQ3Axs_4core4iter6traits8iterator8Iterator4next0B9_, symObjAddr: 0xF340, symBinAddr: 0x3FE94, symSize: 0x40 }
  - { offset: 0x9B25C, size: 0x8, addend: 0x0, symName: __RNCNvXsc_NtCs6IAuOt8vWmF_3syn10punctuatedINtB7_5PairsNtNtB9_3pat3PatNtNtB9_5token5CommaENtNtNtNtCsfvfooZQ3Axs_4core4iter6traits8iterator8Iterator4next0B9_, symObjAddr: 0xF380, symBinAddr: 0x3FED4, symSize: 0x40 }
  - { offset: 0x9B2D1, size: 0x8, addend: 0x0, symName: __RNCNvXsc_NtCs6IAuOt8vWmF_3syn10punctuatedINtB7_5PairsNtNtB9_3pat8FieldPatNtNtB9_5token5CommaENtNtNtNtCsfvfooZQ3Axs_4core4iter6traits8iterator8Iterator4next0B9_, symObjAddr: 0xF3C0, symBinAddr: 0x3FF14, symSize: 0x40 }
  - { offset: 0x9B346, size: 0x8, addend: 0x0, symName: __RNCNvXsc_NtCs6IAuOt8vWmF_3syn10punctuatedINtB7_5PairsNtNtB9_4data5FieldNtNtB9_5token5CommaENtNtNtNtCsfvfooZQ3Axs_4core4iter6traits8iterator8Iterator4next0B9_, symObjAddr: 0xF400, symBinAddr: 0x3FF54, symSize: 0x40 }
  - { offset: 0x9B3BB, size: 0x8, addend: 0x0, symName: __RNCNvXsc_NtCs6IAuOt8vWmF_3syn10punctuatedINtB7_5PairsNtNtB9_4data7VariantNtNtB9_5token5CommaENtNtNtNtCsfvfooZQ3Axs_4core4iter6traits8iterator8Iterator4next0B9_, symObjAddr: 0xF440, symBinAddr: 0x3FF94, symSize: 0x40 }
  - { offset: 0x9B430, size: 0x8, addend: 0x0, symName: __RNCNvXsc_NtCs6IAuOt8vWmF_3syn10punctuatedINtB7_5PairsNtNtB9_4expr10FieldValueNtNtB9_5token5CommaENtNtNtNtCsfvfooZQ3Axs_4core4iter6traits8iterator8Iterator4next0B9_, symObjAddr: 0xF480, symBinAddr: 0x3FFD4, symSize: 0x40 }
  - { offset: 0x9B4A5, size: 0x8, addend: 0x0, symName: __RNCNvXsc_NtCs6IAuOt8vWmF_3syn10punctuatedINtB7_5PairsNtNtB9_4expr4ExprNtNtB9_5token5CommaENtNtNtNtCsfvfooZQ3Axs_4core4iter6traits8iterator8Iterator4next0B9_, symObjAddr: 0xF4C0, symBinAddr: 0x40014, symSize: 0x40 }
  - { offset: 0x9B51A, size: 0x8, addend: 0x0, symName: __RNCNvXsc_NtCs6IAuOt8vWmF_3syn10punctuatedINtB7_5PairsNtNtB9_4item5FnArgNtNtB9_5token5CommaENtNtNtNtCsfvfooZQ3Axs_4core4iter6traits8iterator8Iterator4next0B9_, symObjAddr: 0xF500, symBinAddr: 0x40054, symSize: 0x40 }
  - { offset: 0x9B58F, size: 0x8, addend: 0x0, symName: __RNCNvXsc_NtCs6IAuOt8vWmF_3syn10punctuatedINtB7_5PairsNtNtB9_4item7UseTreeNtNtB9_5token5CommaENtNtNtNtCsfvfooZQ3Axs_4core4iter6traits8iterator8Iterator4next0B9_, symObjAddr: 0xF540, symBinAddr: 0x40094, symSize: 0x40 }
  - { offset: 0x9B604, size: 0x8, addend: 0x0, symName: __RNCNvXsc_NtCs6IAuOt8vWmF_3syn10punctuatedINtB7_5PairsNtNtB9_4path11PathSegmentNtNtB9_5token7PathSepENtNtNtNtCsfvfooZQ3Axs_4core4iter6traits8iterator8Iterator4next0B9_, symObjAddr: 0xF580, symBinAddr: 0x400D4, symSize: 0x40 }
  - { offset: 0x9B679, size: 0x8, addend: 0x0, symName: __RNCNvXsc_NtCs6IAuOt8vWmF_3syn10punctuatedINtB7_5PairsNtNtB9_4path15GenericArgumentNtNtB9_5token5CommaENtNtNtNtCsfvfooZQ3Axs_4core4iter6traits8iterator8Iterator4next0B9_, symObjAddr: 0xF5C0, symBinAddr: 0x40114, symSize: 0x40 }
  - { offset: 0x9B6EE, size: 0x8, addend: 0x0, symName: __RNCNvXsc_NtCs6IAuOt8vWmF_3syn10punctuatedINtB7_5PairsNtNtB9_8generics12GenericParamNtNtB9_5token5CommaENtNtNtNtCsfvfooZQ3Axs_4core4iter6traits8iterator8Iterator4next0B9_, symObjAddr: 0xF600, symBinAddr: 0x40154, symSize: 0x40 }
  - { offset: 0x9B763, size: 0x8, addend: 0x0, symName: __RNCNvXsc_NtCs6IAuOt8vWmF_3syn10punctuatedINtB7_5PairsNtNtB9_8generics13CapturedParamNtNtB9_5token5CommaENtNtNtNtCsfvfooZQ3Axs_4core4iter6traits8iterator8Iterator4next0B9_, symObjAddr: 0xF640, symBinAddr: 0x40194, symSize: 0x40 }
  - { offset: 0x9B7D8, size: 0x8, addend: 0x0, symName: __RNCNvXsc_NtCs6IAuOt8vWmF_3syn10punctuatedINtB7_5PairsNtNtB9_8generics14TypeParamBoundNtNtB9_5token4PlusENtNtNtNtCsfvfooZQ3Axs_4core4iter6traits8iterator8Iterator4next0B9_, symObjAddr: 0xF680, symBinAddr: 0x401D4, symSize: 0x40 }
  - { offset: 0x9B84D, size: 0x8, addend: 0x0, symName: __RNCNvXsc_NtCs6IAuOt8vWmF_3syn10punctuatedINtB7_5PairsNtNtB9_8generics14WherePredicateNtNtB9_5token5CommaENtNtNtNtCsfvfooZQ3Axs_4core4iter6traits8iterator8Iterator4next0B9_, symObjAddr: 0xF6C0, symBinAddr: 0x40214, symSize: 0x40 }
  - { offset: 0x9B8C2, size: 0x8, addend: 0x0, symName: __RNCNvXsc_NtCs6IAuOt8vWmF_3syn10punctuatedINtB7_5PairsNtNtB9_8lifetime8LifetimeNtNtB9_5token4PlusENtNtNtNtCsfvfooZQ3Axs_4core4iter6traits8iterator8Iterator4next0B9_, symObjAddr: 0xF700, symBinAddr: 0x40254, symSize: 0x40 }
  - { offset: 0x9B937, size: 0x8, addend: 0x0, symName: __RNCNvXsc_NtCs6IAuOt8vWmF_3syn10punctuatedINtB7_5PairsNtNtB9_2ty4TypeNtNtB9_5token5CommaENtNtNtNtCsfvfooZQ3Axs_4core4iter6traits8iterator8Iterator4nexts_0B9_, symObjAddr: 0xF740, symBinAddr: 0x40294, symSize: 0x40 }
  - { offset: 0x9B979, size: 0x8, addend: 0x0, symName: __RNCNvXsc_NtCs6IAuOt8vWmF_3syn10punctuatedINtB7_5PairsNtNtB9_2ty9BareFnArgNtNtB9_5token5CommaENtNtNtNtCsfvfooZQ3Axs_4core4iter6traits8iterator8Iterator4nexts_0B9_, symObjAddr: 0xF780, symBinAddr: 0x402D4, symSize: 0x40 }
  - { offset: 0x9B9BB, size: 0x8, addend: 0x0, symName: __RNCNvXsc_NtCs6IAuOt8vWmF_3syn10punctuatedINtB7_5PairsNtNtB9_3pat3PatNtNtB9_5token2OrENtNtNtNtCsfvfooZQ3Axs_4core4iter6traits8iterator8Iterator4nexts_0B9_, symObjAddr: 0xF7C0, symBinAddr: 0x40314, symSize: 0x40 }
  - { offset: 0x9B9FD, size: 0x8, addend: 0x0, symName: __RNCNvXsc_NtCs6IAuOt8vWmF_3syn10punctuatedINtB7_5PairsNtNtB9_3pat3PatNtNtB9_5token5CommaENtNtNtNtCsfvfooZQ3Axs_4core4iter6traits8iterator8Iterator4nexts_0B9_, symObjAddr: 0xF800, symBinAddr: 0x40354, symSize: 0x40 }
  - { offset: 0x9BA3F, size: 0x8, addend: 0x0, symName: __RNCNvXsc_NtCs6IAuOt8vWmF_3syn10punctuatedINtB7_5PairsNtNtB9_3pat8FieldPatNtNtB9_5token5CommaENtNtNtNtCsfvfooZQ3Axs_4core4iter6traits8iterator8Iterator4nexts_0B9_, symObjAddr: 0xF840, symBinAddr: 0x40394, symSize: 0x40 }
  - { offset: 0x9BA81, size: 0x8, addend: 0x0, symName: __RNCNvXsc_NtCs6IAuOt8vWmF_3syn10punctuatedINtB7_5PairsNtNtB9_4data5FieldNtNtB9_5token5CommaENtNtNtNtCsfvfooZQ3Axs_4core4iter6traits8iterator8Iterator4nexts_0B9_, symObjAddr: 0xF880, symBinAddr: 0x403D4, symSize: 0x40 }
  - { offset: 0x9BAC3, size: 0x8, addend: 0x0, symName: __RNCNvXsc_NtCs6IAuOt8vWmF_3syn10punctuatedINtB7_5PairsNtNtB9_4data7VariantNtNtB9_5token5CommaENtNtNtNtCsfvfooZQ3Axs_4core4iter6traits8iterator8Iterator4nexts_0B9_, symObjAddr: 0xF8C0, symBinAddr: 0x40414, symSize: 0x40 }
  - { offset: 0x9BB05, size: 0x8, addend: 0x0, symName: __RNCNvXsc_NtCs6IAuOt8vWmF_3syn10punctuatedINtB7_5PairsNtNtB9_4expr10FieldValueNtNtB9_5token5CommaENtNtNtNtCsfvfooZQ3Axs_4core4iter6traits8iterator8Iterator4nexts_0B9_, symObjAddr: 0xF900, symBinAddr: 0x40454, symSize: 0x40 }
  - { offset: 0x9BB47, size: 0x8, addend: 0x0, symName: __RNCNvXsc_NtCs6IAuOt8vWmF_3syn10punctuatedINtB7_5PairsNtNtB9_4expr4ExprNtNtB9_5token5CommaENtNtNtNtCsfvfooZQ3Axs_4core4iter6traits8iterator8Iterator4nexts_0B9_, symObjAddr: 0xF940, symBinAddr: 0x40494, symSize: 0x40 }
  - { offset: 0x9BB89, size: 0x8, addend: 0x0, symName: __RNCNvXsc_NtCs6IAuOt8vWmF_3syn10punctuatedINtB7_5PairsNtNtB9_4item5FnArgNtNtB9_5token5CommaENtNtNtNtCsfvfooZQ3Axs_4core4iter6traits8iterator8Iterator4nexts_0B9_, symObjAddr: 0xF980, symBinAddr: 0x404D4, symSize: 0x40 }
  - { offset: 0x9BBCB, size: 0x8, addend: 0x0, symName: __RNCNvXsc_NtCs6IAuOt8vWmF_3syn10punctuatedINtB7_5PairsNtNtB9_4item7UseTreeNtNtB9_5token5CommaENtNtNtNtCsfvfooZQ3Axs_4core4iter6traits8iterator8Iterator4nexts_0B9_, symObjAddr: 0xF9C0, symBinAddr: 0x40514, symSize: 0x40 }
  - { offset: 0x9BC0D, size: 0x8, addend: 0x0, symName: __RNCNvXsc_NtCs6IAuOt8vWmF_3syn10punctuatedINtB7_5PairsNtNtB9_4path11PathSegmentNtNtB9_5token7PathSepENtNtNtNtCsfvfooZQ3Axs_4core4iter6traits8iterator8Iterator4nexts_0B9_, symObjAddr: 0xFA00, symBinAddr: 0x40554, symSize: 0x40 }
  - { offset: 0x9BC4F, size: 0x8, addend: 0x0, symName: __RNCNvXsc_NtCs6IAuOt8vWmF_3syn10punctuatedINtB7_5PairsNtNtB9_4path15GenericArgumentNtNtB9_5token5CommaENtNtNtNtCsfvfooZQ3Axs_4core4iter6traits8iterator8Iterator4nexts_0B9_, symObjAddr: 0xFA40, symBinAddr: 0x40594, symSize: 0x40 }
  - { offset: 0x9BC91, size: 0x8, addend: 0x0, symName: __RNCNvXsc_NtCs6IAuOt8vWmF_3syn10punctuatedINtB7_5PairsNtNtB9_8generics12GenericParamNtNtB9_5token5CommaENtNtNtNtCsfvfooZQ3Axs_4core4iter6traits8iterator8Iterator4nexts_0B9_, symObjAddr: 0xFA80, symBinAddr: 0x405D4, symSize: 0x40 }
  - { offset: 0x9BCD3, size: 0x8, addend: 0x0, symName: __RNCNvXsc_NtCs6IAuOt8vWmF_3syn10punctuatedINtB7_5PairsNtNtB9_8generics13CapturedParamNtNtB9_5token5CommaENtNtNtNtCsfvfooZQ3Axs_4core4iter6traits8iterator8Iterator4nexts_0B9_, symObjAddr: 0xFAC0, symBinAddr: 0x40614, symSize: 0x40 }
  - { offset: 0x9BD15, size: 0x8, addend: 0x0, symName: __RNCNvXsc_NtCs6IAuOt8vWmF_3syn10punctuatedINtB7_5PairsNtNtB9_8generics14TypeParamBoundNtNtB9_5token4PlusENtNtNtNtCsfvfooZQ3Axs_4core4iter6traits8iterator8Iterator4nexts_0B9_, symObjAddr: 0xFB00, symBinAddr: 0x40654, symSize: 0x40 }
  - { offset: 0x9BD57, size: 0x8, addend: 0x0, symName: __RNCNvXsc_NtCs6IAuOt8vWmF_3syn10punctuatedINtB7_5PairsNtNtB9_8generics14WherePredicateNtNtB9_5token5CommaENtNtNtNtCsfvfooZQ3Axs_4core4iter6traits8iterator8Iterator4nexts_0B9_, symObjAddr: 0xFB40, symBinAddr: 0x40694, symSize: 0x40 }
  - { offset: 0x9BD99, size: 0x8, addend: 0x0, symName: __RNCNvXsc_NtCs6IAuOt8vWmF_3syn10punctuatedINtB7_5PairsNtNtB9_8lifetime8LifetimeNtNtB9_5token4PlusENtNtNtNtCsfvfooZQ3Axs_4core4iter6traits8iterator8Iterator4nexts_0B9_, symObjAddr: 0xFB80, symBinAddr: 0x406D4, symSize: 0x40 }
  - { offset: 0x9BE60, size: 0x8, addend: 0x0, symName: __RNvXsj_NtCs6IAuOt8vWmF_3syn10punctuatedINtB5_9IntoPairsNtNtB7_4path11PathSegmentNtNtB7_5token7PathSepENtNtNtNtCsfvfooZQ3Axs_4core4iter6traits8iterator8Iterator4nextB7_, symObjAddr: 0xFBC0, symBinAddr: 0x40714, symSize: 0x6C }
  - { offset: 0x9BEA5, size: 0x8, addend: 0x0, symName: __RNCNvXsj_NtCs6IAuOt8vWmF_3syn10punctuatedINtB7_9IntoPairsNtNtB9_4path11PathSegmentNtNtB9_5token7PathSepENtNtNtNtCsfvfooZQ3Axs_4core4iter6traits8iterator8Iterator4next0B9_, symObjAddr: 0xFC2C, symBinAddr: 0x40780, symSize: 0x74 }
  - { offset: 0x9BF13, size: 0x8, addend: 0x0, symName: __RNCNvXsj_NtCs6IAuOt8vWmF_3syn10punctuatedINtB7_9IntoPairsNtNtB9_4path11PathSegmentNtNtB9_5token7PathSepENtNtNtNtCsfvfooZQ3Axs_4core4iter6traits8iterator8Iterator4nexts_0B9_, symObjAddr: 0xFCA0, symBinAddr: 0x407F4, symSize: 0x4C }
  - { offset: 0x9BF63, size: 0x8, addend: 0x0, symName: __RNvXsn_NtCs6IAuOt8vWmF_3syn10punctuatedINtB5_8IntoIterNtNtB7_8generics14TypeParamBoundENtNtNtNtCsfvfooZQ3Axs_4core4iter6traits8iterator8Iterator4nextB7_, symObjAddr: 0xFCEC, symBinAddr: 0x40840, symSize: 0x34 }
  - { offset: 0x9BFA0, size: 0x8, addend: 0x0, symName: __RNvXst_NtCs6IAuOt8vWmF_3syn10punctuatedINtB5_4IterNtNtB7_4path11PathSegmentENtNtNtNtCsfvfooZQ3Axs_4core4iter6traits8iterator8Iterator4nextB7_, symObjAddr: 0xFE60, symBinAddr: 0x40874, symSize: 0x48 }
  - { offset: 0x9BFD7, size: 0x8, addend: 0x0, symName: __RNvXst_NtCs6IAuOt8vWmF_3syn10punctuatedINtB5_4IterNtNtB7_8generics14TypeParamBoundENtNtNtNtCsfvfooZQ3Axs_4core4iter6traits8iterator8Iterator4nextB7_, symObjAddr: 0xFEF0, symBinAddr: 0x408BC, symSize: 0x48 }
  - { offset: 0x9C014, size: 0x8, addend: 0x0, symName: __RNvXsu_NtCs6IAuOt8vWmF_3syn10punctuatedINtB5_4IterNtNtB7_4path11PathSegmentENtNtNtNtCsfvfooZQ3Axs_4core4iter6traits12double_ended19DoubleEndedIterator9next_backB7_, symObjAddr: 0xFF38, symBinAddr: 0x40904, symSize: 0x48 }
  - { offset: 0x9C04B, size: 0x8, addend: 0x0, symName: __RNvXsu_NtCs6IAuOt8vWmF_3syn10punctuatedINtB5_4IterNtNtB7_8generics14TypeParamBoundENtNtNtNtCsfvfooZQ3Axs_4core4iter6traits12double_ended19DoubleEndedIterator9next_backB7_, symObjAddr: 0xFF80, symBinAddr: 0x4094C, symSize: 0x48 }
  - { offset: 0x9C088, size: 0x8, addend: 0x0, symName: __RNvXsw_NtCs6IAuOt8vWmF_3syn10punctuatedINtB5_11PrivateIterNtNtB7_4path11PathSegmentNtNtB7_5token7PathSepENtNtNtNtCsfvfooZQ3Axs_4core4iter6traits8iterator8Iterator4nextB7_, symObjAddr: 0x10050, symBinAddr: 0x40994, symSize: 0x44 }
  - { offset: 0x9C0C8, size: 0x8, addend: 0x0, symName: __RNvXsw_NtCs6IAuOt8vWmF_3syn10punctuatedINtB5_11PrivateIterNtNtB7_8generics14TypeParamBoundNtNtB7_5token4PlusENtNtNtNtCsfvfooZQ3Axs_4core4iter6traits8iterator8Iterator4nextB7_, symObjAddr: 0x100D8, symBinAddr: 0x409D8, symSize: 0x44 }
  - { offset: 0x9C10D, size: 0x8, addend: 0x0, symName: __RNCNvXsw_NtCs6IAuOt8vWmF_3syn10punctuatedINtB7_11PrivateIterNtNtB9_4path11PathSegmentNtNtB9_5token7PathSepENtNtNtNtCsfvfooZQ3Axs_4core4iter6traits8iterator8Iterator4next0B9_, symObjAddr: 0x10164, symBinAddr: 0x40A1C, symSize: 0x24 }
  - { offset: 0x9C158, size: 0x8, addend: 0x0, symName: __RNCNvXsw_NtCs6IAuOt8vWmF_3syn10punctuatedINtB7_11PrivateIterNtNtB9_8generics14TypeParamBoundNtNtB9_5token4PlusENtNtNtNtCsfvfooZQ3Axs_4core4iter6traits8iterator8Iterator4next0B9_, symObjAddr: 0x101AC, symBinAddr: 0x40A40, symSize: 0x24 }
  - { offset: 0x9C1A3, size: 0x8, addend: 0x0, symName: __RNCNvXsw_NtCs6IAuOt8vWmF_3syn10punctuatedINtB7_11PrivateIterNtNtB9_4path11PathSegmentNtNtB9_5token7PathSepENtNtNtNtCsfvfooZQ3Axs_4core4iter6traits8iterator8Iterator4nexts_0B9_, symObjAddr: 0x10238, symBinAddr: 0x40A64, symSize: 0x34 }
  - { offset: 0x9C1E5, size: 0x8, addend: 0x0, symName: __RNCNvXsw_NtCs6IAuOt8vWmF_3syn10punctuatedINtB7_11PrivateIterNtNtB9_8generics14TypeParamBoundNtNtB9_5token4PlusENtNtNtNtCsfvfooZQ3Axs_4core4iter6traits8iterator8Iterator4nexts_0B9_, symObjAddr: 0x102A0, symBinAddr: 0x40A98, symSize: 0x34 }
  - { offset: 0x9C23C, size: 0x8, addend: 0x0, symName: __RNvXsx_NtCs6IAuOt8vWmF_3syn10punctuatedINtB5_11PrivateIterNtNtB7_4path11PathSegmentNtNtB7_5token7PathSepENtNtNtNtCsfvfooZQ3Axs_4core4iter6traits12double_ended19DoubleEndedIterator9next_backB7_, symObjAddr: 0x10354, symBinAddr: 0x40ACC, symSize: 0x40 }
  - { offset: 0x9C27C, size: 0x8, addend: 0x0, symName: __RNvXsx_NtCs6IAuOt8vWmF_3syn10punctuatedINtB5_11PrivateIterNtNtB7_8generics14TypeParamBoundNtNtB7_5token4PlusENtNtNtNtCsfvfooZQ3Axs_4core4iter6traits12double_ended19DoubleEndedIterator9next_backB7_, symObjAddr: 0x103D4, symBinAddr: 0x40B0C, symSize: 0x40 }
  - { offset: 0x9C2C1, size: 0x8, addend: 0x0, symName: __RNCNvXsx_NtCs6IAuOt8vWmF_3syn10punctuatedINtB7_11PrivateIterNtNtB9_4path11PathSegmentNtNtB9_5token7PathSepENtNtNtNtCsfvfooZQ3Axs_4core4iter6traits12double_ended19DoubleEndedIterator9next_back0B9_, symObjAddr: 0x10484, symBinAddr: 0x40B4C, symSize: 0x38 }
  - { offset: 0x9C303, size: 0x8, addend: 0x0, symName: __RNCNvXsx_NtCs6IAuOt8vWmF_3syn10punctuatedINtB7_11PrivateIterNtNtB9_8generics14TypeParamBoundNtNtB9_5token4PlusENtNtNtNtCsfvfooZQ3Axs_4core4iter6traits12double_ended19DoubleEndedIterator9next_back0B9_, symObjAddr: 0x104F4, symBinAddr: 0x40B84, symSize: 0x38 }
  - { offset: 0x9C34A, size: 0x8, addend: 0x0, symName: __RNCNCNvXsx_NtCs6IAuOt8vWmF_3syn10punctuatedINtB9_11PrivateIterNtNtBb_4path11PathSegmentNtNtBb_5token7PathSepENtNtNtNtCsfvfooZQ3Axs_4core4iter6traits12double_ended19DoubleEndedIterator9next_back00Bb_, symObjAddr: 0x10574, symBinAddr: 0x40BBC, symSize: 0x24 }
  - { offset: 0x9C395, size: 0x8, addend: 0x0, symName: __RNCNCNvXsx_NtCs6IAuOt8vWmF_3syn10punctuatedINtB9_11PrivateIterNtNtBb_8generics14TypeParamBoundNtNtBb_5token4PlusENtNtNtNtCsfvfooZQ3Axs_4core4iter6traits12double_ended19DoubleEndedIterator9next_back00Bb_, symObjAddr: 0x105BC, symBinAddr: 0x40BE0, symSize: 0x24 }
  - { offset: 0x9C3F6, size: 0x8, addend: 0x0, symName: __RNvXsy_NtCs6IAuOt8vWmF_3syn10punctuatedINtB5_11PrivateIterNtNtB7_4path11PathSegmentNtNtB7_5token7PathSepENtNtNtNtCsfvfooZQ3Axs_4core4iter6traits10exact_size17ExactSizeIterator3lenB7_, symObjAddr: 0x10708, symBinAddr: 0x40C04, symSize: 0x94 }
  - { offset: 0x9C46A, size: 0x8, addend: 0x0, symName: __RNvXsy_NtCs6IAuOt8vWmF_3syn10punctuatedINtB5_11PrivateIterNtNtB7_8generics14TypeParamBoundNtNtB7_5token4PlusENtNtNtNtCsfvfooZQ3Axs_4core4iter6traits10exact_size17ExactSizeIterator3lenB7_, symObjAddr: 0x10830, symBinAddr: 0x40C98, symSize: 0x94 }
  - { offset: 0x9C4E4, size: 0x8, addend: 0x0, symName: __RNvXsz_NtCs6IAuOt8vWmF_3syn10punctuatedINtB5_11PrivateIterNtNtB7_4path11PathSegmentNtNtB7_5token7PathSepENtNtCsfvfooZQ3Axs_4core5clone5Clone5cloneB7_, symObjAddr: 0x10994, symBinAddr: 0x40D2C, symSize: 0x68 }
  - { offset: 0x9C524, size: 0x8, addend: 0x0, symName: __RNvXsz_NtCs6IAuOt8vWmF_3syn10punctuatedINtB5_11PrivateIterNtNtB7_8generics14TypeParamBoundNtNtB7_5token4PlusENtNtCsfvfooZQ3Axs_4core5clone5Clone5cloneB7_, symObjAddr: 0x10A64, symBinAddr: 0x40D94, symSize: 0x68 }
  - { offset: 0x9C56A, size: 0x8, addend: 0x0, symName: __RNvXsA_NtCs6IAuOt8vWmF_3syn10punctuatedINtB5_11PrivateIterNtNtB7_4path11PathSegmentNtNtB7_5token7PathSepEINtB5_9IterTraitBU_E9clone_boxB7_, symObjAddr: 0x10BF4, symBinAddr: 0x40DFC, symSize: 0x94 }
  - { offset: 0x9C5C8, size: 0x8, addend: 0x0, symName: __RNvXsA_NtCs6IAuOt8vWmF_3syn10punctuatedINtB5_11PrivateIterNtNtB7_8generics14TypeParamBoundNtNtB7_5token4PlusEINtB5_9IterTraitBU_E9clone_boxB7_, symObjAddr: 0x10D1C, symBinAddr: 0x40E90, symSize: 0x94 }
  - { offset: 0x9C62C, size: 0x8, addend: 0x0, symName: __RNvXsD_NtCs6IAuOt8vWmF_3syn10punctuatedINtB5_7IterMutNtNtB7_4path11PathSegmentENtNtNtNtCsfvfooZQ3Axs_4core4iter6traits12double_ended19DoubleEndedIterator9next_backB7_, symObjAddr: 0x10E60, symBinAddr: 0x40F24, symSize: 0x48 }
  - { offset: 0x9C669, size: 0x8, addend: 0x0, symName: __RNvXsF_NtCs6IAuOt8vWmF_3syn10punctuatedINtB5_14PrivateIterMutNtNtB7_4path11PathSegmentNtNtB7_5token7PathSepENtNtNtNtCsfvfooZQ3Axs_4core4iter6traits8iterator8Iterator4nextB7_, symObjAddr: 0x10EEC, symBinAddr: 0x40F6C, symSize: 0x44 }
  - { offset: 0x9C6AE, size: 0x8, addend: 0x0, symName: __RNCNvXsF_NtCs6IAuOt8vWmF_3syn10punctuatedINtB7_14PrivateIterMutNtNtB9_4path11PathSegmentNtNtB9_5token7PathSepENtNtNtNtCsfvfooZQ3Axs_4core4iter6traits8iterator8Iterator4next0B9_, symObjAddr: 0x10F98, symBinAddr: 0x40FB0, symSize: 0x24 }
  - { offset: 0x9C6F9, size: 0x8, addend: 0x0, symName: __RNCNvXsF_NtCs6IAuOt8vWmF_3syn10punctuatedINtB7_14PrivateIterMutNtNtB9_4path11PathSegmentNtNtB9_5token7PathSepENtNtNtNtCsfvfooZQ3Axs_4core4iter6traits8iterator8Iterator4nexts_0B9_, symObjAddr: 0x11014, symBinAddr: 0x40FD4, symSize: 0x34 }
  - { offset: 0x9C749, size: 0x8, addend: 0x0, symName: __RNvXsG_NtCs6IAuOt8vWmF_3syn10punctuatedINtB5_14PrivateIterMutNtNtB7_4path11PathSegmentNtNtB7_5token7PathSepENtNtNtNtCsfvfooZQ3Axs_4core4iter6traits12double_ended19DoubleEndedIterator9next_backB7_, symObjAddr: 0x110BC, symBinAddr: 0x41008, symSize: 0x40 }
  - { offset: 0x9C78E, size: 0x8, addend: 0x0, symName: __RNCNvXsG_NtCs6IAuOt8vWmF_3syn10punctuatedINtB7_14PrivateIterMutNtNtB9_4path11PathSegmentNtNtB9_5token7PathSepENtNtNtNtCsfvfooZQ3Axs_4core4iter6traits12double_ended19DoubleEndedIterator9next_back0B9_, symObjAddr: 0x11174, symBinAddr: 0x41048, symSize: 0x38 }
  - { offset: 0x9C7D5, size: 0x8, addend: 0x0, symName: __RNCNCNvXsG_NtCs6IAuOt8vWmF_3syn10punctuatedINtB9_14PrivateIterMutNtNtBb_4path11PathSegmentNtNtBb_5token7PathSepENtNtNtNtCsfvfooZQ3Axs_4core4iter6traits12double_ended19DoubleEndedIterator9next_back00Bb_, symObjAddr: 0x11208, symBinAddr: 0x41080, symSize: 0x24 }
  - { offset: 0x9C82F, size: 0x8, addend: 0x0, symName: __RNvXsH_NtCs6IAuOt8vWmF_3syn10punctuatedINtB5_14PrivateIterMutNtNtB7_4path11PathSegmentNtNtB7_5token7PathSepENtNtNtNtCsfvfooZQ3Axs_4core4iter6traits10exact_size17ExactSizeIterator3lenB7_, symObjAddr: 0x112E4, symBinAddr: 0x410A4, symSize: 0x94 }
  - { offset: 0x9C8AE, size: 0x8, addend: 0x0, symName: __RNcNtINtNtCs6IAuOt8vWmF_3syn10punctuated4PairNtNtB8_4path11PathSegmentNtNtB8_5token7PathSepE3End0B8_, symObjAddr: 0x1140C, symBinAddr: 0x41138, symSize: 0x40 }
  - { offset: 0x9C8EB, size: 0x8, addend: 0x0, symName: __RNcNtINtNtCs6IAuOt8vWmF_3syn10punctuated4PairRNtNtB8_2ty4TypeRNtNtB8_5token5CommaE3End0B8_, symObjAddr: 0x1144C, symBinAddr: 0x41178, symSize: 0x1C }
  - { offset: 0x9C927, size: 0x8, addend: 0x0, symName: __RNcNtINtNtCs6IAuOt8vWmF_3syn10punctuated4PairRNtNtB8_2ty9BareFnArgRNtNtB8_5token5CommaE3End0B8_, symObjAddr: 0x11468, symBinAddr: 0x41194, symSize: 0x1C }
  - { offset: 0x9C963, size: 0x8, addend: 0x0, symName: __RNcNtINtNtCs6IAuOt8vWmF_3syn10punctuated4PairRNtNtB8_3pat3PatRNtNtB8_5token2OrE3End0B8_, symObjAddr: 0x11484, symBinAddr: 0x411B0, symSize: 0x1C }
  - { offset: 0x9C99F, size: 0x8, addend: 0x0, symName: __RNcNtINtNtCs6IAuOt8vWmF_3syn10punctuated4PairRNtNtB8_3pat3PatRNtNtB8_5token5CommaE3End0B8_, symObjAddr: 0x114A0, symBinAddr: 0x411CC, symSize: 0x1C }
  - { offset: 0x9C9DB, size: 0x8, addend: 0x0, symName: __RNcNtINtNtCs6IAuOt8vWmF_3syn10punctuated4PairRNtNtB8_3pat8FieldPatRNtNtB8_5token5CommaE3End0B8_, symObjAddr: 0x114BC, symBinAddr: 0x411E8, symSize: 0x1C }
  - { offset: 0x9CA17, size: 0x8, addend: 0x0, symName: __RNcNtINtNtCs6IAuOt8vWmF_3syn10punctuated4PairRNtNtB8_4data5FieldRNtNtB8_5token5CommaE3End0B8_, symObjAddr: 0x114D8, symBinAddr: 0x41204, symSize: 0x1C }
  - { offset: 0x9CA53, size: 0x8, addend: 0x0, symName: __RNcNtINtNtCs6IAuOt8vWmF_3syn10punctuated4PairRNtNtB8_4data7VariantRNtNtB8_5token5CommaE3End0B8_, symObjAddr: 0x114F4, symBinAddr: 0x41220, symSize: 0x1C }
  - { offset: 0x9CA8F, size: 0x8, addend: 0x0, symName: __RNcNtINtNtCs6IAuOt8vWmF_3syn10punctuated4PairRNtNtB8_4expr10FieldValueRNtNtB8_5token5CommaE3End0B8_, symObjAddr: 0x11510, symBinAddr: 0x4123C, symSize: 0x1C }
  - { offset: 0x9CACB, size: 0x8, addend: 0x0, symName: __RNcNtINtNtCs6IAuOt8vWmF_3syn10punctuated4PairRNtNtB8_4expr4ExprRNtNtB8_5token5CommaE3End0B8_, symObjAddr: 0x1152C, symBinAddr: 0x41258, symSize: 0x1C }
  - { offset: 0x9CB07, size: 0x8, addend: 0x0, symName: __RNcNtINtNtCs6IAuOt8vWmF_3syn10punctuated4PairRNtNtB8_4item5FnArgRNtNtB8_5token5CommaE3End0B8_, symObjAddr: 0x11548, symBinAddr: 0x41274, symSize: 0x1C }
  - { offset: 0x9CB43, size: 0x8, addend: 0x0, symName: __RNcNtINtNtCs6IAuOt8vWmF_3syn10punctuated4PairRNtNtB8_4item7UseTreeRNtNtB8_5token5CommaE3End0B8_, symObjAddr: 0x11564, symBinAddr: 0x41290, symSize: 0x1C }
  - { offset: 0x9CB7F, size: 0x8, addend: 0x0, symName: __RNcNtINtNtCs6IAuOt8vWmF_3syn10punctuated4PairRNtNtB8_4path11PathSegmentRNtNtB8_5token7PathSepE3End0B8_, symObjAddr: 0x11580, symBinAddr: 0x412AC, symSize: 0x1C }
  - { offset: 0x9CBBB, size: 0x8, addend: 0x0, symName: __RNcNtINtNtCs6IAuOt8vWmF_3syn10punctuated4PairRNtNtB8_4path15GenericArgumentRNtNtB8_5token5CommaE3End0B8_, symObjAddr: 0x1159C, symBinAddr: 0x412C8, symSize: 0x1C }
  - { offset: 0x9CBF7, size: 0x8, addend: 0x0, symName: __RNcNtINtNtCs6IAuOt8vWmF_3syn10punctuated4PairRNtNtB8_8generics12GenericParamRNtNtB8_5token5CommaE3End0B8_, symObjAddr: 0x115B8, symBinAddr: 0x412E4, symSize: 0x1C }
  - { offset: 0x9CC33, size: 0x8, addend: 0x0, symName: __RNcNtINtNtCs6IAuOt8vWmF_3syn10punctuated4PairRNtNtB8_8generics13CapturedParamRNtNtB8_5token5CommaE3End0B8_, symObjAddr: 0x115D4, symBinAddr: 0x41300, symSize: 0x1C }
  - { offset: 0x9CC6F, size: 0x8, addend: 0x0, symName: __RNcNtINtNtCs6IAuOt8vWmF_3syn10punctuated4PairRNtNtB8_8generics14TypeParamBoundRNtNtB8_5token4PlusE3End0B8_, symObjAddr: 0x115F0, symBinAddr: 0x4131C, symSize: 0x1C }
  - { offset: 0x9CCAB, size: 0x8, addend: 0x0, symName: __RNcNtINtNtCs6IAuOt8vWmF_3syn10punctuated4PairRNtNtB8_8generics14WherePredicateRNtNtB8_5token5CommaE3End0B8_, symObjAddr: 0x1160C, symBinAddr: 0x41338, symSize: 0x1C }
  - { offset: 0x9CCE7, size: 0x8, addend: 0x0, symName: __RNcNtINtNtCs6IAuOt8vWmF_3syn10punctuated4PairRNtNtB8_8lifetime8LifetimeRNtNtB8_5token4PlusE3End0B8_, symObjAddr: 0x11628, symBinAddr: 0x41354, symSize: 0x1C }
  - { offset: 0x9D096, size: 0x8, addend: 0x0, symName: __RNvXsN_NtCs6IAuOt8vWmF_3syn10punctuatedINtB5_10PunctuatedNtNtB7_3pat3PatNtNtB7_5token5CommaEINtNtNtCsfvfooZQ3Axs_4core3ops5index5IndexjE5indexB7_, symObjAddr: 0x11AC8, symBinAddr: 0x417F4, symSize: 0x134 }
  - { offset: 0x9D0FB, size: 0x8, addend: 0x0, symName: __RNvXsN_NtCs6IAuOt8vWmF_3syn10punctuatedINtB5_10PunctuatedNtNtB7_4path11PathSegmentNtNtB7_5token7PathSepEINtNtNtCsfvfooZQ3Axs_4core3ops5index5IndexjE5indexB7_, symObjAddr: 0x11BFC, symBinAddr: 0x41928, symSize: 0x134 }
  - { offset: 0x9D16B, size: 0x8, addend: 0x0, symName: __RNvXNtNtCs6IAuOt8vWmF_3syn10punctuated8printingINtB4_10PunctuatedNtNtB6_2ty4TypeNtNtB6_5token5CommaENtNtCs2cqEZUIJimJ_5quote9to_tokens8ToTokens9to_tokensB6_, symObjAddr: 0x11D30, symBinAddr: 0x41A5C, symSize: 0x50 }
  - { offset: 0x9D1B6, size: 0x8, addend: 0x0, symName: __RNvXNtNtCs6IAuOt8vWmF_3syn10punctuated8printingINtB4_10PunctuatedNtNtB6_2ty9BareFnArgNtNtB6_5token5CommaENtNtCs2cqEZUIJimJ_5quote9to_tokens8ToTokens9to_tokensB6_, symObjAddr: 0x11D80, symBinAddr: 0x41AAC, symSize: 0x50 }
  - { offset: 0x9D201, size: 0x8, addend: 0x0, symName: __RNvXNtNtCs6IAuOt8vWmF_3syn10punctuated8printingINtB4_10PunctuatedNtNtB6_3pat3PatNtNtB6_5token2OrENtNtCs2cqEZUIJimJ_5quote9to_tokens8ToTokens9to_tokensB6_, symObjAddr: 0x11DD0, symBinAddr: 0x41AFC, symSize: 0x50 }
  - { offset: 0x9D24C, size: 0x8, addend: 0x0, symName: __RNvXNtNtCs6IAuOt8vWmF_3syn10punctuated8printingINtB4_10PunctuatedNtNtB6_3pat3PatNtNtB6_5token5CommaENtNtCs2cqEZUIJimJ_5quote9to_tokens8ToTokens9to_tokensB6_, symObjAddr: 0x11E20, symBinAddr: 0x41B4C, symSize: 0x50 }
  - { offset: 0x9D297, size: 0x8, addend: 0x0, symName: __RNvXNtNtCs6IAuOt8vWmF_3syn10punctuated8printingINtB4_10PunctuatedNtNtB6_3pat8FieldPatNtNtB6_5token5CommaENtNtCs2cqEZUIJimJ_5quote9to_tokens8ToTokens9to_tokensB6_, symObjAddr: 0x11E70, symBinAddr: 0x41B9C, symSize: 0x50 }
  - { offset: 0x9D2E2, size: 0x8, addend: 0x0, symName: __RNvXNtNtCs6IAuOt8vWmF_3syn10punctuated8printingINtB4_10PunctuatedNtNtB6_4data5FieldNtNtB6_5token5CommaENtNtCs2cqEZUIJimJ_5quote9to_tokens8ToTokens9to_tokensB6_, symObjAddr: 0x11EC0, symBinAddr: 0x41BEC, symSize: 0x50 }
  - { offset: 0x9D32D, size: 0x8, addend: 0x0, symName: __RNvXNtNtCs6IAuOt8vWmF_3syn10punctuated8printingINtB4_10PunctuatedNtNtB6_4data7VariantNtNtB6_5token5CommaENtNtCs2cqEZUIJimJ_5quote9to_tokens8ToTokens9to_tokensB6_, symObjAddr: 0x11F10, symBinAddr: 0x41C3C, symSize: 0x50 }
  - { offset: 0x9D378, size: 0x8, addend: 0x0, symName: __RNvXNtNtCs6IAuOt8vWmF_3syn10punctuated8printingINtB4_10PunctuatedNtNtB6_4expr10FieldValueNtNtB6_5token5CommaENtNtCs2cqEZUIJimJ_5quote9to_tokens8ToTokens9to_tokensB6_, symObjAddr: 0x11F60, symBinAddr: 0x41C8C, symSize: 0x50 }
  - { offset: 0x9D3C3, size: 0x8, addend: 0x0, symName: __RNvXNtNtCs6IAuOt8vWmF_3syn10punctuated8printingINtB4_10PunctuatedNtNtB6_4expr4ExprNtNtB6_5token5CommaENtNtCs2cqEZUIJimJ_5quote9to_tokens8ToTokens9to_tokensB6_, symObjAddr: 0x11FB0, symBinAddr: 0x41CDC, symSize: 0x50 }
  - { offset: 0x9D40E, size: 0x8, addend: 0x0, symName: __RNvXNtNtCs6IAuOt8vWmF_3syn10punctuated8printingINtB4_10PunctuatedNtNtB6_4item5FnArgNtNtB6_5token5CommaENtNtCs2cqEZUIJimJ_5quote9to_tokens8ToTokens9to_tokensB6_, symObjAddr: 0x12000, symBinAddr: 0x41D2C, symSize: 0x50 }
  - { offset: 0x9D459, size: 0x8, addend: 0x0, symName: __RNvXNtNtCs6IAuOt8vWmF_3syn10punctuated8printingINtB4_10PunctuatedNtNtB6_4item7UseTreeNtNtB6_5token5CommaENtNtCs2cqEZUIJimJ_5quote9to_tokens8ToTokens9to_tokensB6_, symObjAddr: 0x12050, symBinAddr: 0x41D7C, symSize: 0x50 }
  - { offset: 0x9D4A4, size: 0x8, addend: 0x0, symName: __RNvXNtNtCs6IAuOt8vWmF_3syn10punctuated8printingINtB4_10PunctuatedNtNtB6_8generics12GenericParamNtNtB6_5token5CommaENtNtCs2cqEZUIJimJ_5quote9to_tokens8ToTokens9to_tokensB6_, symObjAddr: 0x120A0, symBinAddr: 0x41DCC, symSize: 0x50 }
  - { offset: 0x9D4EF, size: 0x8, addend: 0x0, symName: __RNvXNtNtCs6IAuOt8vWmF_3syn10punctuated8printingINtB4_10PunctuatedNtNtB6_8generics14TypeParamBoundNtNtB6_5token4PlusENtNtCs2cqEZUIJimJ_5quote9to_tokens8ToTokens9to_tokensB6_, symObjAddr: 0x120F0, symBinAddr: 0x41E1C, symSize: 0x50 }
  - { offset: 0x9D53A, size: 0x8, addend: 0x0, symName: __RNvXNtNtCs6IAuOt8vWmF_3syn10punctuated8printingINtB4_10PunctuatedNtNtB6_8generics14WherePredicateNtNtB6_5token5CommaENtNtCs2cqEZUIJimJ_5quote9to_tokens8ToTokens9to_tokensB6_, symObjAddr: 0x12140, symBinAddr: 0x41E6C, symSize: 0x50 }
  - { offset: 0x9D585, size: 0x8, addend: 0x0, symName: __RNvXNtNtCs6IAuOt8vWmF_3syn10punctuated8printingINtB4_10PunctuatedNtNtB6_8lifetime8LifetimeNtNtB6_5token4PlusENtNtCs2cqEZUIJimJ_5quote9to_tokens8ToTokens9to_tokensB6_, symObjAddr: 0x12190, symBinAddr: 0x41EBC, symSize: 0x50 }
  - { offset: 0x9D5D6, size: 0x8, addend: 0x0, symName: __RNvXs_NtNtCs6IAuOt8vWmF_3syn10punctuated8printingINtB6_4PairRNtNtB8_2ty4TypeRNtNtB8_5token5CommaENtNtCs2cqEZUIJimJ_5quote9to_tokens8ToTokens9to_tokensB8_, symObjAddr: 0x121E0, symBinAddr: 0x41F0C, symSize: 0xB4 }
  - { offset: 0x9D665, size: 0x8, addend: 0x0, symName: __RNvXs_NtNtCs6IAuOt8vWmF_3syn10punctuated8printingINtB6_4PairRNtNtB8_2ty9BareFnArgRNtNtB8_5token5CommaENtNtCs2cqEZUIJimJ_5quote9to_tokens8ToTokens9to_tokensB8_, symObjAddr: 0x12294, symBinAddr: 0x41FC0, symSize: 0xB4 }
  - { offset: 0x9D6F4, size: 0x8, addend: 0x0, symName: __RNvXs_NtNtCs6IAuOt8vWmF_3syn10punctuated8printingINtB6_4PairRNtNtB8_3pat3PatRNtNtB8_5token2OrENtNtCs2cqEZUIJimJ_5quote9to_tokens8ToTokens9to_tokensB8_, symObjAddr: 0x12348, symBinAddr: 0x42074, symSize: 0xB4 }
  - { offset: 0x9D783, size: 0x8, addend: 0x0, symName: __RNvXs_NtNtCs6IAuOt8vWmF_3syn10punctuated8printingINtB6_4PairRNtNtB8_3pat3PatRNtNtB8_5token5CommaENtNtCs2cqEZUIJimJ_5quote9to_tokens8ToTokens9to_tokensB8_, symObjAddr: 0x123FC, symBinAddr: 0x42128, symSize: 0xB4 }
  - { offset: 0x9D812, size: 0x8, addend: 0x0, symName: __RNvXs_NtNtCs6IAuOt8vWmF_3syn10punctuated8printingINtB6_4PairRNtNtB8_3pat8FieldPatRNtNtB8_5token5CommaENtNtCs2cqEZUIJimJ_5quote9to_tokens8ToTokens9to_tokensB8_, symObjAddr: 0x124B0, symBinAddr: 0x421DC, symSize: 0xB4 }
  - { offset: 0x9D8A1, size: 0x8, addend: 0x0, symName: __RNvXs_NtNtCs6IAuOt8vWmF_3syn10punctuated8printingINtB6_4PairRNtNtB8_4data5FieldRNtNtB8_5token5CommaENtNtCs2cqEZUIJimJ_5quote9to_tokens8ToTokens9to_tokensB8_, symObjAddr: 0x12564, symBinAddr: 0x42290, symSize: 0xB4 }
  - { offset: 0x9D930, size: 0x8, addend: 0x0, symName: __RNvXs_NtNtCs6IAuOt8vWmF_3syn10punctuated8printingINtB6_4PairRNtNtB8_4data7VariantRNtNtB8_5token5CommaENtNtCs2cqEZUIJimJ_5quote9to_tokens8ToTokens9to_tokensB8_, symObjAddr: 0x12618, symBinAddr: 0x42344, symSize: 0xB4 }
  - { offset: 0x9D9BF, size: 0x8, addend: 0x0, symName: __RNvXs_NtNtCs6IAuOt8vWmF_3syn10punctuated8printingINtB6_4PairRNtNtB8_4expr10FieldValueRNtNtB8_5token5CommaENtNtCs2cqEZUIJimJ_5quote9to_tokens8ToTokens9to_tokensB8_, symObjAddr: 0x126CC, symBinAddr: 0x423F8, symSize: 0xB4 }
  - { offset: 0x9DA4E, size: 0x8, addend: 0x0, symName: __RNvXs_NtNtCs6IAuOt8vWmF_3syn10punctuated8printingINtB6_4PairRNtNtB8_4expr4ExprRNtNtB8_5token5CommaENtNtCs2cqEZUIJimJ_5quote9to_tokens8ToTokens9to_tokensB8_, symObjAddr: 0x12780, symBinAddr: 0x424AC, symSize: 0xB4 }
  - { offset: 0x9DADD, size: 0x8, addend: 0x0, symName: __RNvXs_NtNtCs6IAuOt8vWmF_3syn10punctuated8printingINtB6_4PairRNtNtB8_4item5FnArgRNtNtB8_5token5CommaENtNtCs2cqEZUIJimJ_5quote9to_tokens8ToTokens9to_tokensB8_, symObjAddr: 0x12834, symBinAddr: 0x42560, symSize: 0xB4 }
  - { offset: 0x9DB6C, size: 0x8, addend: 0x0, symName: __RNvXs_NtNtCs6IAuOt8vWmF_3syn10punctuated8printingINtB6_4PairRNtNtB8_4item7UseTreeRNtNtB8_5token5CommaENtNtCs2cqEZUIJimJ_5quote9to_tokens8ToTokens9to_tokensB8_, symObjAddr: 0x128E8, symBinAddr: 0x42614, symSize: 0xB4 }
  - { offset: 0x9DBFB, size: 0x8, addend: 0x0, symName: __RNvXs_NtNtCs6IAuOt8vWmF_3syn10punctuated8printingINtB6_4PairRNtNtB8_4path15GenericArgumentRNtNtB8_5token5CommaENtNtCs2cqEZUIJimJ_5quote9to_tokens8ToTokens9to_tokensB8_, symObjAddr: 0x1299C, symBinAddr: 0x426C8, symSize: 0xB4 }
  - { offset: 0x9DC8A, size: 0x8, addend: 0x0, symName: __RNvXs_NtNtCs6IAuOt8vWmF_3syn10punctuated8printingINtB6_4PairRNtNtB8_8generics12GenericParamRNtNtB8_5token5CommaENtNtCs2cqEZUIJimJ_5quote9to_tokens8ToTokens9to_tokensB8_, symObjAddr: 0x12A50, symBinAddr: 0x4277C, symSize: 0xB4 }
  - { offset: 0x9DD19, size: 0x8, addend: 0x0, symName: __RNvXs_NtNtCs6IAuOt8vWmF_3syn10punctuated8printingINtB6_4PairRNtNtB8_8generics13CapturedParamRNtNtB8_5token5CommaENtNtCs2cqEZUIJimJ_5quote9to_tokens8ToTokens9to_tokensB8_, symObjAddr: 0x12B04, symBinAddr: 0x42830, symSize: 0xB4 }
  - { offset: 0x9DDA8, size: 0x8, addend: 0x0, symName: __RNvXs_NtNtCs6IAuOt8vWmF_3syn10punctuated8printingINtB6_4PairRNtNtB8_8generics14TypeParamBoundRNtNtB8_5token4PlusENtNtCs2cqEZUIJimJ_5quote9to_tokens8ToTokens9to_tokensB8_, symObjAddr: 0x12BB8, symBinAddr: 0x428E4, symSize: 0xB4 }
  - { offset: 0x9DE37, size: 0x8, addend: 0x0, symName: __RNvXs_NtNtCs6IAuOt8vWmF_3syn10punctuated8printingINtB6_4PairRNtNtB8_8generics14WherePredicateRNtNtB8_5token5CommaENtNtCs2cqEZUIJimJ_5quote9to_tokens8ToTokens9to_tokensB8_, symObjAddr: 0x12C6C, symBinAddr: 0x42998, symSize: 0xB4 }
  - { offset: 0x9DEC6, size: 0x8, addend: 0x0, symName: __RNvXs_NtNtCs6IAuOt8vWmF_3syn10punctuated8printingINtB6_4PairRNtNtB8_8lifetime8LifetimeRNtNtB8_5token4PlusENtNtCs2cqEZUIJimJ_5quote9to_tokens8ToTokens9to_tokensB8_, symObjAddr: 0x12D20, symBinAddr: 0x42A4C, symSize: 0xB4 }
  - { offset: 0x9F103, size: 0x8, addend: 0x0, symName: __RNvXsq_NtCs6IAuOt8vWmF_3syn5tokenNtNtB7_8lifetime8LifetimeNtB5_5Token4peek, symObjAddr: 0x13338, symBinAddr: 0x42B38, symSize: 0x88 }
  - { offset: 0x9F12F, size: 0x8, addend: 0x0, symName: __RNvXsq_NtCs6IAuOt8vWmF_3syn5tokenNtNtB7_8lifetime8LifetimeNtB5_5Token7display, symObjAddr: 0x133C0, symBinAddr: 0x42BC0, symSize: 0x24 }
  - { offset: 0x9F507, size: 0x8, addend: 0x0, symName: __RNvXs0_NtCs6IAuOt8vWmF_3syn8lifetimeNtB5_8LifetimeNtNtCsfvfooZQ3Axs_4core5clone5Clone5clone, symObjAddr: 0x3030, symBinAddr: 0x37A44, symSize: 0x60 }
  - { offset: 0x9F53E, size: 0x8, addend: 0x0, symName: __RNvXNtNtCs6IAuOt8vWmF_3syn8lifetime7parsingNtB4_8LifetimeNtNtB6_5parse5Parse5parse, symObjAddr: 0x314C, symBinAddr: 0x37AA4, symSize: 0x34 }
  - { offset: 0x9F576, size: 0x8, addend: 0x0, symName: __RNvXNtNtCs6IAuOt8vWmF_3syn8lifetime8printingNtB4_8LifetimeNtNtCs2cqEZUIJimJ_5quote9to_tokens8ToTokens9to_tokens, symObjAddr: 0x3180, symBinAddr: 0x37AD8, symSize: 0x90 }
  - { offset: 0xA34CC, size: 0x8, addend: 0x0, symName: __RINvCs6IAuOt8vWmF_3syn9parse_strNtNtB2_4expr5IndexEB2_, symObjAddr: 0x12DD4, symBinAddr: 0x42B00, symSize: 0x38 }
  - { offset: 0xA3FB5, size: 0x8, addend: 0x0, symName: __RNvYINtNtCse1nGBsou5OW_5alloc2rc7RcInnerINtNtCsfvfooZQ3Axs_4core4cell4CellNtNtCs6IAuOt8vWmF_3syn5parse10UnexpectedEENtB5_10RcInnerPtr10inc_strongB1e_, symObjAddr: 0x2C3C, symBinAddr: 0x37970, symSize: 0x94 }
  - { offset: 0xA40ED, size: 0x8, addend: 0x0, symName: __RNvYINtNtCse1nGBsou5OW_5alloc2rc7RcInnerINtNtCsfvfooZQ3Axs_4core4cell4CellNtNtCs6IAuOt8vWmF_3syn5parse10UnexpectedEENtB5_10RcInnerPtr6strongB1e_, symObjAddr: 0x2CD0, symBinAddr: 0x37A04, symSize: 0x28 }
  - { offset: 0xA4148, size: 0x8, addend: 0x0, symName: __RNvXs17_NtCse1nGBsou5OW_5alloc2rcINtB6_4WeakINtNtCsfvfooZQ3Axs_4core4cell4CellNtNtCs6IAuOt8vWmF_3syn5parse10UnexpectedERNtNtB8_5alloc6GlobalENtNtNtBL_3ops4drop4Drop4dropB1i_, symObjAddr: 0x924, symBinAddr: 0x36B34, symSize: 0x148 }
  - { offset: 0xA43BD, size: 0x8, addend: 0x0, symName: __RNvXsu_NtCse1nGBsou5OW_5alloc2rcINtB5_2RcINtNtCsfvfooZQ3Axs_4core4cell4CellNtNtCs6IAuOt8vWmF_3syn5parse10UnexpectedEENtNtNtBI_3ops4drop4Drop4dropB1f_, symObjAddr: 0xDB0, symBinAddr: 0x36D7C, symSize: 0x88 }
  - { offset: 0xA45A0, size: 0x8, addend: 0x0, symName: __RNvXsv_NtCse1nGBsou5OW_5alloc2rcINtB5_2RcINtNtCsfvfooZQ3Axs_4core4cell4CellNtNtCs6IAuOt8vWmF_3syn5parse10UnexpectedEENtNtBI_5clone5Clone5cloneB1f_, symObjAddr: 0xE38, symBinAddr: 0x36E04, symSize: 0x48 }
  - { offset: 0xAA59F, size: 0x8, addend: 0x0, symName: __RNvMNtCsfvfooZQ3Axs_4core5sliceSTNtNtCs6IAuOt8vWmF_3syn8lifetime8LifetimeNtNtBz_5token4PlusE4iterBz_, symObjAddr: 0x4D8, symBinAddr: 0x3672C, symSize: 0x28 }
  - { offset: 0xAA6BB, size: 0x8, addend: 0x0, symName: __RNvXs9_NtNtNtCsfvfooZQ3Axs_4core4iter8adapters4fuseINtB5_4FuseINtNtB7_3map3MapIBZ_IBZ_INtNtNtBb_5slice4iter4IterNtNtCs6IAuOt8vWmF_3syn5error12ErrorMessageENvMs_B1O_B1M_16to_compile_errorENCINvXs7_Cs3cP53eQoTwO_11proc_macro2NtB38_11TokenStreamINtNtNtB9_6traits7collect12FromIteratorB3z_E9from_iterB1i_E0ENCINvXs6_NtB38_3impNtB50_11TokenStreamIB3T_B5a_E9from_iterB1e_Es_0EEINtB5_8FuseImplBY_E4nextB1Q_, symObjAddr: 0xCF4, symBinAddr: 0x36CC0, symSize: 0x80 }
  - { offset: 0xAA7B6, size: 0x8, addend: 0x0, symName: __RINvYINtNtCs6IAuOt8vWmF_3syn10punctuated4IterNtNtB8_4path11PathSegmentENtNtNtNtCsfvfooZQ3Axs_4core4iter6traits8iterator8Iterator3allNCNvMs5_NtBJ_7parsingNtBJ_4Path12is_mod_style0EB8_, symObjAddr: 0x368, symBinAddr: 0x365BC, symSize: 0x3C }
  - { offset: 0xAA805, size: 0x8, addend: 0x0, symName: __RINvYINtNtCs6IAuOt8vWmF_3syn10punctuated4IterNtNtB8_4path11PathSegmentENtNtNtNtCsfvfooZQ3Axs_4core4iter6traits8iterator8Iterator8try_folduNCINvNvB17_3all5checkRBH_NCNvMs5_NtBJ_7parsingNtBJ_4Path12is_mod_style0E0INtNtNtB1f_3ops12control_flow11ControlFlowuEEB8_, symObjAddr: 0x3A4, symBinAddr: 0x365F8, symSize: 0x134 }
  - { offset: 0xAA8BF, size: 0x8, addend: 0x0, symName: __RNvYINtNtCs6IAuOt8vWmF_3syn10punctuated11PrivateIterNtNtB7_4path11PathSegmentNtNtB7_5token7PathSepENtNtNtNtCsfvfooZQ3Axs_4core4iter6traits8iterator8Iterator10advance_byB7_, symObjAddr: 0x17A8, symBinAddr: 0x37014, symSize: 0x134 }
  - { offset: 0xAAA15, size: 0x8, addend: 0x0, symName: __RNvYINtNtCs6IAuOt8vWmF_3syn10punctuated11PrivateIterNtNtB7_4path11PathSegmentNtNtB7_5token7PathSepENtNtNtNtCsfvfooZQ3Axs_4core4iter6traits8iterator8Iterator3nthB7_, symObjAddr: 0x18DC, symBinAddr: 0x37148, symSize: 0x80 }
  - { offset: 0xAAAE1, size: 0x8, addend: 0x0, symName: __RNvYINtNtCs6IAuOt8vWmF_3syn10punctuated11PrivateIterNtNtB7_4path11PathSegmentNtNtB7_5token7PathSepENtNtNtNtCsfvfooZQ3Axs_4core4iter6traits8iterator8Iterator9size_hintB7_, symObjAddr: 0x195C, symBinAddr: 0x371C8, symSize: 0x34 }
  - { offset: 0xAAB16, size: 0x8, addend: 0x0, symName: __RNvYINtNtCs6IAuOt8vWmF_3syn10punctuated11PrivateIterNtNtB7_8generics14TypeParamBoundNtNtB7_5token4PlusENtNtNtNtCsfvfooZQ3Axs_4core4iter6traits8iterator8Iterator10advance_byB7_, symObjAddr: 0x1F08, symBinAddr: 0x373C4, symSize: 0x134 }
  - { offset: 0xAAC6C, size: 0x8, addend: 0x0, symName: __RNvYINtNtCs6IAuOt8vWmF_3syn10punctuated11PrivateIterNtNtB7_8generics14TypeParamBoundNtNtB7_5token4PlusENtNtNtNtCsfvfooZQ3Axs_4core4iter6traits8iterator8Iterator3nthB7_, symObjAddr: 0x203C, symBinAddr: 0x374F8, symSize: 0x80 }
  - { offset: 0xAAD38, size: 0x8, addend: 0x0, symName: __RNvYINtNtCs6IAuOt8vWmF_3syn10punctuated11PrivateIterNtNtB7_8generics14TypeParamBoundNtNtB7_5token4PlusENtNtNtNtCsfvfooZQ3Axs_4core4iter6traits8iterator8Iterator9size_hintB7_, symObjAddr: 0x20BC, symBinAddr: 0x37578, symSize: 0x34 }
  - { offset: 0xAAD6D, size: 0x8, addend: 0x0, symName: __RNvYINtNtCs6IAuOt8vWmF_3syn10punctuated14PrivateIterMutNtNtB7_4path11PathSegmentNtNtB7_5token7PathSepENtNtNtNtCsfvfooZQ3Axs_4core4iter6traits8iterator8Iterator10advance_byB7_, symObjAddr: 0x2668, symBinAddr: 0x37774, symSize: 0x134 }
  - { offset: 0xAAEC3, size: 0x8, addend: 0x0, symName: __RNvYINtNtCs6IAuOt8vWmF_3syn10punctuated14PrivateIterMutNtNtB7_4path11PathSegmentNtNtB7_5token7PathSepENtNtNtNtCsfvfooZQ3Axs_4core4iter6traits8iterator8Iterator3nthB7_, symObjAddr: 0x279C, symBinAddr: 0x378A8, symSize: 0x80 }
  - { offset: 0xAAF8F, size: 0x8, addend: 0x0, symName: __RNvYINtNtCs6IAuOt8vWmF_3syn10punctuated14PrivateIterMutNtNtB7_4path11PathSegmentNtNtB7_5token7PathSepENtNtNtNtCsfvfooZQ3Axs_4core4iter6traits8iterator8Iterator9size_hintB7_, symObjAddr: 0x281C, symBinAddr: 0x37928, symSize: 0x34 }
  - { offset: 0xAAFC4, size: 0x8, addend: 0x0, symName: __RNvYINtNtCs6IAuOt8vWmF_3syn10punctuated5PairsNtNtB7_4path11PathSegmentNtNtB7_5token7PathSepENtNtNtNtCsfvfooZQ3Axs_4core4iter6traits8iterator8Iterator6by_refB7_, symObjAddr: 0x2C28, symBinAddr: 0x3795C, symSize: 0x14 }
  - { offset: 0xAAFFB, size: 0x8, addend: 0x0, symName: __RNvYQINtNtCs6IAuOt8vWmF_3syn10punctuated5PairsNtNtB8_4path11PathSegmentNtNtB8_5token7PathSepENtNtNtNtCsfvfooZQ3Axs_4core4iter6traits8iterator8Iterator4takeB8_, symObjAddr: 0x2D28, symBinAddr: 0x37A2C, symSize: 0x18 }
  - { offset: 0xAB066, size: 0x8, addend: 0x0, symName: __RNvXNtNtNtCsfvfooZQ3Axs_4core4iter6traits8iteratorQINtNtCs6IAuOt8vWmF_3syn10punctuated5PairsNtNtBS_4path11PathSegmentNtNtBS_5token7PathSepENtB2_8Iterator4nextBS_, symObjAddr: 0x8FC, symBinAddr: 0x36B0C, symSize: 0x28 }
  - { offset: 0xAB0A9, size: 0x8, addend: 0x0, symName: __RNvXNtNtNtCsfvfooZQ3Axs_4core4iter6traits7collectINtNtCs6IAuOt8vWmF_3syn10punctuated5PairsNtNtBQ_2ty4TypeNtNtBQ_5token5CommaENtB2_12IntoIterator9into_iterBQ_, symObjAddr: 0x71C, symBinAddr: 0x3692C, symSize: 0x18 }
  - { offset: 0xAB0E0, size: 0x8, addend: 0x0, symName: __RNvXNtNtNtCsfvfooZQ3Axs_4core4iter6traits7collectINtNtCs6IAuOt8vWmF_3syn10punctuated5PairsNtNtBQ_2ty9BareFnArgNtNtBQ_5token5CommaENtB2_12IntoIterator9into_iterBQ_, symObjAddr: 0x734, symBinAddr: 0x36944, symSize: 0x18 }
  - { offset: 0xAB117, size: 0x8, addend: 0x0, symName: __RNvXNtNtNtCsfvfooZQ3Axs_4core4iter6traits7collectINtNtCs6IAuOt8vWmF_3syn10punctuated5PairsNtNtBQ_3pat3PatNtNtBQ_5token2OrENtB2_12IntoIterator9into_iterBQ_, symObjAddr: 0x74C, symBinAddr: 0x3695C, symSize: 0x18 }
  - { offset: 0xAB14E, size: 0x8, addend: 0x0, symName: __RNvXNtNtNtCsfvfooZQ3Axs_4core4iter6traits7collectINtNtCs6IAuOt8vWmF_3syn10punctuated5PairsNtNtBQ_3pat3PatNtNtBQ_5token5CommaENtB2_12IntoIterator9into_iterBQ_, symObjAddr: 0x764, symBinAddr: 0x36974, symSize: 0x18 }
  - { offset: 0xAB185, size: 0x8, addend: 0x0, symName: __RNvXNtNtNtCsfvfooZQ3Axs_4core4iter6traits7collectINtNtCs6IAuOt8vWmF_3syn10punctuated5PairsNtNtBQ_3pat8FieldPatNtNtBQ_5token5CommaENtB2_12IntoIterator9into_iterBQ_, symObjAddr: 0x77C, symBinAddr: 0x3698C, symSize: 0x18 }
  - { offset: 0xAB1BC, size: 0x8, addend: 0x0, symName: __RNvXNtNtNtCsfvfooZQ3Axs_4core4iter6traits7collectINtNtCs6IAuOt8vWmF_3syn10punctuated5PairsNtNtBQ_4data5FieldNtNtBQ_5token5CommaENtB2_12IntoIterator9into_iterBQ_, symObjAddr: 0x794, symBinAddr: 0x369A4, symSize: 0x18 }
  - { offset: 0xAB1F3, size: 0x8, addend: 0x0, symName: __RNvXNtNtNtCsfvfooZQ3Axs_4core4iter6traits7collectINtNtCs6IAuOt8vWmF_3syn10punctuated5PairsNtNtBQ_4data7VariantNtNtBQ_5token5CommaENtB2_12IntoIterator9into_iterBQ_, symObjAddr: 0x7AC, symBinAddr: 0x369BC, symSize: 0x18 }
  - { offset: 0xAB22A, size: 0x8, addend: 0x0, symName: __RNvXNtNtNtCsfvfooZQ3Axs_4core4iter6traits7collectINtNtCs6IAuOt8vWmF_3syn10punctuated5PairsNtNtBQ_4expr10FieldValueNtNtBQ_5token5CommaENtB2_12IntoIterator9into_iterBQ_, symObjAddr: 0x7C4, symBinAddr: 0x369D4, symSize: 0x18 }
  - { offset: 0xAB261, size: 0x8, addend: 0x0, symName: __RNvXNtNtNtCsfvfooZQ3Axs_4core4iter6traits7collectINtNtCs6IAuOt8vWmF_3syn10punctuated5PairsNtNtBQ_4expr4ExprNtNtBQ_5token5CommaENtB2_12IntoIterator9into_iterBQ_, symObjAddr: 0x7DC, symBinAddr: 0x369EC, symSize: 0x18 }
  - { offset: 0xAB298, size: 0x8, addend: 0x0, symName: __RNvXNtNtNtCsfvfooZQ3Axs_4core4iter6traits7collectINtNtCs6IAuOt8vWmF_3syn10punctuated5PairsNtNtBQ_4item5FnArgNtNtBQ_5token5CommaENtB2_12IntoIterator9into_iterBQ_, symObjAddr: 0x7F4, symBinAddr: 0x36A04, symSize: 0x18 }
  - { offset: 0xAB2CF, size: 0x8, addend: 0x0, symName: __RNvXNtNtNtCsfvfooZQ3Axs_4core4iter6traits7collectINtNtCs6IAuOt8vWmF_3syn10punctuated5PairsNtNtBQ_4item7UseTreeNtNtBQ_5token5CommaENtB2_12IntoIterator9into_iterBQ_, symObjAddr: 0x80C, symBinAddr: 0x36A1C, symSize: 0x18 }
  - { offset: 0xAB306, size: 0x8, addend: 0x0, symName: __RNvXNtNtNtCsfvfooZQ3Axs_4core4iter6traits7collectINtNtCs6IAuOt8vWmF_3syn10punctuated5PairsNtNtBQ_4path11PathSegmentNtNtBQ_5token7PathSepENtB2_12IntoIterator9into_iterBQ_, symObjAddr: 0x824, symBinAddr: 0x36A34, symSize: 0x18 }
  - { offset: 0xAB33D, size: 0x8, addend: 0x0, symName: __RNvXNtNtNtCsfvfooZQ3Axs_4core4iter6traits7collectINtNtCs6IAuOt8vWmF_3syn10punctuated5PairsNtNtBQ_4path15GenericArgumentNtNtBQ_5token5CommaENtB2_12IntoIterator9into_iterBQ_, symObjAddr: 0x83C, symBinAddr: 0x36A4C, symSize: 0x18 }
  - { offset: 0xAB374, size: 0x8, addend: 0x0, symName: __RNvXNtNtNtCsfvfooZQ3Axs_4core4iter6traits7collectINtNtCs6IAuOt8vWmF_3syn10punctuated5PairsNtNtBQ_8generics12GenericParamNtNtBQ_5token5CommaENtB2_12IntoIterator9into_iterBQ_, symObjAddr: 0x854, symBinAddr: 0x36A64, symSize: 0x18 }
  - { offset: 0xAB3AB, size: 0x8, addend: 0x0, symName: __RNvXNtNtNtCsfvfooZQ3Axs_4core4iter6traits7collectINtNtCs6IAuOt8vWmF_3syn10punctuated5PairsNtNtBQ_8generics13CapturedParamNtNtBQ_5token5CommaENtB2_12IntoIterator9into_iterBQ_, symObjAddr: 0x86C, symBinAddr: 0x36A7C, symSize: 0x18 }
  - { offset: 0xAB3E2, size: 0x8, addend: 0x0, symName: __RNvXNtNtNtCsfvfooZQ3Axs_4core4iter6traits7collectINtNtCs6IAuOt8vWmF_3syn10punctuated5PairsNtNtBQ_8generics14TypeParamBoundNtNtBQ_5token4PlusENtB2_12IntoIterator9into_iterBQ_, symObjAddr: 0x884, symBinAddr: 0x36A94, symSize: 0x18 }
  - { offset: 0xAB419, size: 0x8, addend: 0x0, symName: __RNvXNtNtNtCsfvfooZQ3Axs_4core4iter6traits7collectINtNtCs6IAuOt8vWmF_3syn10punctuated5PairsNtNtBQ_8generics14WherePredicateNtNtBQ_5token5CommaENtB2_12IntoIterator9into_iterBQ_, symObjAddr: 0x89C, symBinAddr: 0x36AAC, symSize: 0x18 }
  - { offset: 0xAB450, size: 0x8, addend: 0x0, symName: __RNvXNtNtNtCsfvfooZQ3Axs_4core4iter6traits7collectINtNtCs6IAuOt8vWmF_3syn10punctuated5PairsNtNtBQ_8lifetime8LifetimeNtNtBQ_5token4PlusENtB2_12IntoIterator9into_iterBQ_, symObjAddr: 0x8B4, symBinAddr: 0x36AC4, symSize: 0x18 }
  - { offset: 0xAB487, size: 0x8, addend: 0x0, symName: __RNvXNtNtNtCsfvfooZQ3Axs_4core4iter6traits7collectINtNtCs6IAuOt8vWmF_3syn10punctuated9IntoPairsNtNtBQ_4path11PathSegmentNtNtBQ_5token7PathSepENtB2_12IntoIterator9into_iterBQ_, symObjAddr: 0x8CC, symBinAddr: 0x36ADC, symSize: 0x30 }
  - { offset: 0xAB4CB, size: 0x8, addend: 0x0, symName: __RNvYINtNtCs6IAuOt8vWmF_3syn10punctuated11PrivateIterNtNtB7_4path11PathSegmentNtNtB7_5token7PathSepENtNtNtNtCsfvfooZQ3Axs_4core4iter6traits10exact_size17ExactSizeIterator8is_emptyB7_, symObjAddr: 0x15E0, symBinAddr: 0x36E4C, symSize: 0x2C }
  - { offset: 0xAB500, size: 0x8, addend: 0x0, symName: __RNvYINtNtCs6IAuOt8vWmF_3syn10punctuated11PrivateIterNtNtB7_8generics14TypeParamBoundNtNtB7_5token4PlusENtNtNtNtCsfvfooZQ3Axs_4core4iter6traits10exact_size17ExactSizeIterator8is_emptyB7_, symObjAddr: 0x1D40, symBinAddr: 0x371FC, symSize: 0x2C }
  - { offset: 0xAB535, size: 0x8, addend: 0x0, symName: __RNvYINtNtCs6IAuOt8vWmF_3syn10punctuated14PrivateIterMutNtNtB7_4path11PathSegmentNtNtB7_5token7PathSepENtNtNtNtCsfvfooZQ3Axs_4core4iter6traits10exact_size17ExactSizeIterator8is_emptyB7_, symObjAddr: 0x24A0, symBinAddr: 0x375AC, symSize: 0x2C }
  - { offset: 0xAB576, size: 0x8, addend: 0x0, symName: __RNvYINtNtCs6IAuOt8vWmF_3syn10punctuated11PrivateIterNtNtB7_4path11PathSegmentNtNtB7_5token7PathSepENtNtNtNtCsfvfooZQ3Axs_4core4iter6traits12double_ended19DoubleEndedIterator15advance_back_byB7_, symObjAddr: 0x160C, symBinAddr: 0x36E78, symSize: 0x134 }
  - { offset: 0xAB6C4, size: 0x8, addend: 0x0, symName: __RNvYINtNtCs6IAuOt8vWmF_3syn10punctuated11PrivateIterNtNtB7_4path11PathSegmentNtNtB7_5token7PathSepENtNtNtNtCsfvfooZQ3Axs_4core4iter6traits12double_ended19DoubleEndedIterator8nth_backB7_, symObjAddr: 0x1740, symBinAddr: 0x36FAC, symSize: 0x68 }
  - { offset: 0xAB742, size: 0x8, addend: 0x0, symName: __RNvYINtNtCs6IAuOt8vWmF_3syn10punctuated11PrivateIterNtNtB7_8generics14TypeParamBoundNtNtB7_5token4PlusENtNtNtNtCsfvfooZQ3Axs_4core4iter6traits12double_ended19DoubleEndedIterator15advance_back_byB7_, symObjAddr: 0x1D6C, symBinAddr: 0x37228, symSize: 0x134 }
  - { offset: 0xAB890, size: 0x8, addend: 0x0, symName: __RNvYINtNtCs6IAuOt8vWmF_3syn10punctuated11PrivateIterNtNtB7_8generics14TypeParamBoundNtNtB7_5token4PlusENtNtNtNtCsfvfooZQ3Axs_4core4iter6traits12double_ended19DoubleEndedIterator8nth_backB7_, symObjAddr: 0x1EA0, symBinAddr: 0x3735C, symSize: 0x68 }
  - { offset: 0xAB90E, size: 0x8, addend: 0x0, symName: __RNvYINtNtCs6IAuOt8vWmF_3syn10punctuated14PrivateIterMutNtNtB7_4path11PathSegmentNtNtB7_5token7PathSepENtNtNtNtCsfvfooZQ3Axs_4core4iter6traits12double_ended19DoubleEndedIterator15advance_back_byB7_, symObjAddr: 0x24CC, symBinAddr: 0x375D8, symSize: 0x134 }
  - { offset: 0xABA5C, size: 0x8, addend: 0x0, symName: __RNvYINtNtCs6IAuOt8vWmF_3syn10punctuated14PrivateIterMutNtNtB7_4path11PathSegmentNtNtB7_5token7PathSepENtNtNtNtCsfvfooZQ3Axs_4core4iter6traits12double_ended19DoubleEndedIterator8nth_backB7_, symObjAddr: 0x2600, symBinAddr: 0x3770C, symSize: 0x68 }
  - { offset: 0xABEDF, size: 0x8, addend: 0x0, symName: __RNvXs7_NtNtCsfvfooZQ3Axs_4core3cmp5implsReNtB7_9PartialEq2eqCs6IAuOt8vWmF_3syn, symObjAddr: 0xC4C, symBinAddr: 0x36C7C, symSize: 0x44 }
  - { offset: 0xABF34, size: 0x8, addend: 0x0, symName: __RNvXsX_NtNtCsfvfooZQ3Axs_4core3cmp5implshNtB7_3Ord3cmpCs6IAuOt8vWmF_3syn, symObjAddr: 0xD74, symBinAddr: 0x36D40, symSize: 0x3C }
  - { offset: 0xAC2C6, size: 0x8, addend: 0x0, symName: __RNvNvMNtNtCsfvfooZQ3Axs_4core5alloc6layoutNtB4_6Layout25from_size_align_unchecked18precondition_checkCs6IAuOt8vWmF_3syn, symObjAddr: 0x648, symBinAddr: 0x3689C, symSize: 0x50 }
  - { offset: 0xAD3F9, size: 0x8, addend: 0x0, symName: __RNvMs5_NtCse1nGBsou5OW_5alloc2rcINtB5_2RcINtNtCsfvfooZQ3Axs_4core4cell4CellNtNtCs6IAuOt8vWmF_3syn5parse10UnexpectedEE9drop_slowB1f_, symObjAddr: 0x500, symBinAddr: 0x36754, symSize: 0x74 }
  - { offset: 0xAD4CA, size: 0x8, addend: 0x0, symName: __RNvMs6_NtCse1nGBsou5OW_5alloc2rcINtB5_2RcINtNtCsfvfooZQ3Axs_4core4cell4CellNtNtCs6IAuOt8vWmF_3syn5parse10UnexpectedEE3newB1f_, symObjAddr: 0x574, symBinAddr: 0x367C8, symSize: 0xA8 }
  - { offset: 0xAD612, size: 0x8, addend: 0x0, symName: __RNvMsd_NtCse1nGBsou5OW_5alloc2rcINtB5_2RcINtNtCsfvfooZQ3Axs_4core4cell4CellNtNtCs6IAuOt8vWmF_3syn5parse10UnexpectedEE6ptr_eqB1f_, symObjAddr: 0x61C, symBinAddr: 0x36870, symSize: 0x2C }
  - { offset: 0xAD67A, size: 0x8, addend: 0x0, symName: __RNvXNtCs2cqEZUIJimJ_5quote9to_tokensRNtNtCs6IAuOt8vWmF_3syn8lifetime8LifetimeNtB2_8ToTokens9to_tokensBD_, symObjAddr: 0x698, symBinAddr: 0x368EC, symSize: 0x40 }
  - { offset: 0xADF78, size: 0x8, addend: 0x0, symName: __RNvMNtCs6IAuOt8vWmF_3syn10punctuatedINtB2_10PunctuatedNtNtB4_2ty4TypeNtNtB4_5token5CommaE3newB4_, symObjAddr: 0x3894, symBinAddr: 0x37B68, symSize: 0x54 }
  - { offset: 0xADF9E, size: 0x8, addend: 0x0, symName: __RNvMNtCs6IAuOt8vWmF_3syn10punctuatedINtB2_10PunctuatedNtNtB4_2ty9BareFnArgNtNtB4_5token5CommaE3newB4_, symObjAddr: 0x38E8, symBinAddr: 0x37BBC, symSize: 0x54 }
  - { offset: 0xADFC4, size: 0x8, addend: 0x0, symName: __RNvMNtCs6IAuOt8vWmF_3syn10punctuatedINtB2_10PunctuatedNtNtB4_3pat3PatNtNtB4_5token2OrE3newB4_, symObjAddr: 0x393C, symBinAddr: 0x37C10, symSize: 0x54 }
  - { offset: 0xADFEA, size: 0x8, addend: 0x0, symName: __RNvMNtCs6IAuOt8vWmF_3syn10punctuatedINtB2_10PunctuatedNtNtB4_3pat3PatNtNtB4_5token5CommaE3newB4_, symObjAddr: 0x3990, symBinAddr: 0x37C64, symSize: 0x54 }
  - { offset: 0xAE010, size: 0x8, addend: 0x0, symName: __RNvMNtCs6IAuOt8vWmF_3syn10punctuatedINtB2_10PunctuatedNtNtB4_3pat8FieldPatNtNtB4_5token5CommaE3newB4_, symObjAddr: 0x39E4, symBinAddr: 0x37CB8, symSize: 0x54 }
  - { offset: 0xAE036, size: 0x8, addend: 0x0, symName: __RNvMNtCs6IAuOt8vWmF_3syn10punctuatedINtB2_10PunctuatedNtNtB4_4data5FieldNtNtB4_5token5CommaE3newB4_, symObjAddr: 0x3A38, symBinAddr: 0x37D0C, symSize: 0x54 }
  - { offset: 0xAE05C, size: 0x8, addend: 0x0, symName: __RNvMNtCs6IAuOt8vWmF_3syn10punctuatedINtB2_10PunctuatedNtNtB4_4data7VariantNtNtB4_5token5CommaE3newB4_, symObjAddr: 0x3AE0, symBinAddr: 0x37D60, symSize: 0x54 }
  - { offset: 0xAE082, size: 0x8, addend: 0x0, symName: __RNvMNtCs6IAuOt8vWmF_3syn10punctuatedINtB2_10PunctuatedNtNtB4_4expr10FieldValueNtNtB4_5token5CommaE3newB4_, symObjAddr: 0x3B34, symBinAddr: 0x37DB4, symSize: 0x54 }
  - { offset: 0xAE0A8, size: 0x8, addend: 0x0, symName: __RNvMNtCs6IAuOt8vWmF_3syn10punctuatedINtB2_10PunctuatedNtNtB4_4expr4ExprNtNtB4_5token5CommaE3newB4_, symObjAddr: 0x3B88, symBinAddr: 0x37E08, symSize: 0x54 }
  - { offset: 0xAE0CE, size: 0x8, addend: 0x0, symName: __RNvMNtCs6IAuOt8vWmF_3syn10punctuatedINtB2_10PunctuatedNtNtB4_4item5FnArgNtNtB4_5token5CommaE3newB4_, symObjAddr: 0x3BDC, symBinAddr: 0x37E5C, symSize: 0x54 }
  - { offset: 0xAE0F4, size: 0x8, addend: 0x0, symName: __RNvMNtCs6IAuOt8vWmF_3syn10punctuatedINtB2_10PunctuatedNtNtB4_4item7UseTreeNtNtB4_5token5CommaE3newB4_, symObjAddr: 0x3C30, symBinAddr: 0x37EB0, symSize: 0x54 }
  - { offset: 0xAE11A, size: 0x8, addend: 0x0, symName: __RNvMNtCs6IAuOt8vWmF_3syn10punctuatedINtB2_10PunctuatedNtNtB4_4path11PathSegmentNtNtB4_5token7PathSepE3newB4_, symObjAddr: 0x3C84, symBinAddr: 0x37F04, symSize: 0x54 }
  - { offset: 0xAE140, size: 0x8, addend: 0x0, symName: __RNvMNtCs6IAuOt8vWmF_3syn10punctuatedINtB2_10PunctuatedNtNtB4_4path15GenericArgumentNtNtB4_5token5CommaE3newB4_, symObjAddr: 0x3CD8, symBinAddr: 0x37F58, symSize: 0x54 }
  - { offset: 0xAE166, size: 0x8, addend: 0x0, symName: __RNvMNtCs6IAuOt8vWmF_3syn10punctuatedINtB2_10PunctuatedNtNtB4_8generics12GenericParamNtNtB4_5token5CommaE3newB4_, symObjAddr: 0x3D2C, symBinAddr: 0x37FAC, symSize: 0x54 }
  - { offset: 0xAE18C, size: 0x8, addend: 0x0, symName: __RNvMNtCs6IAuOt8vWmF_3syn10punctuatedINtB2_10PunctuatedNtNtB4_8generics13CapturedParamNtNtB4_5token5CommaE3newB4_, symObjAddr: 0x3D80, symBinAddr: 0x38000, symSize: 0x54 }
  - { offset: 0xAE1B2, size: 0x8, addend: 0x0, symName: __RNvMNtCs6IAuOt8vWmF_3syn10punctuatedINtB2_10PunctuatedNtNtB4_8generics14TypeParamBoundNtNtB4_5token4PlusE3newB4_, symObjAddr: 0x3DD4, symBinAddr: 0x38054, symSize: 0x54 }
  - { offset: 0xAE1D8, size: 0x8, addend: 0x0, symName: __RNvMNtCs6IAuOt8vWmF_3syn10punctuatedINtB2_10PunctuatedNtNtB4_8generics14WherePredicateNtNtB4_5token5CommaE3newB4_, symObjAddr: 0x3E28, symBinAddr: 0x380A8, symSize: 0x54 }
  - { offset: 0xAE1FE, size: 0x8, addend: 0x0, symName: __RNvMNtCs6IAuOt8vWmF_3syn10punctuatedINtB2_10PunctuatedNtNtB4_8lifetime8LifetimeNtNtB4_5token4PlusE3newB4_, symObjAddr: 0x3E7C, symBinAddr: 0x380FC, symSize: 0x54 }
  - { offset: 0xAE231, size: 0x8, addend: 0x0, symName: __RNvMNtCs6IAuOt8vWmF_3syn10punctuatedINtB2_10PunctuatedNtNtB4_2ty4TypeNtNtB4_5token5CommaE8is_emptyB4_, symObjAddr: 0x3ED0, symBinAddr: 0x38150, symSize: 0x74 }
  - { offset: 0xAE272, size: 0x8, addend: 0x0, symName: __RNvMNtCs6IAuOt8vWmF_3syn10punctuatedINtB2_10PunctuatedNtNtB4_2ty9BareFnArgNtNtB4_5token5CommaE8is_emptyB4_, symObjAddr: 0x3F44, symBinAddr: 0x381C4, symSize: 0x74 }
  - { offset: 0xAE2B3, size: 0x8, addend: 0x0, symName: __RNvMNtCs6IAuOt8vWmF_3syn10punctuatedINtB2_10PunctuatedNtNtB4_3pat3PatNtNtB4_5token5CommaE8is_emptyB4_, symObjAddr: 0x3FB8, symBinAddr: 0x38238, symSize: 0x74 }
  - { offset: 0xAE301, size: 0x8, addend: 0x0, symName: __RNvMNtCs6IAuOt8vWmF_3syn10punctuatedINtB2_10PunctuatedNtNtB4_4expr4ExprNtNtB4_5token5CommaE8is_emptyB4_, symObjAddr: 0x40A0, symBinAddr: 0x382AC, symSize: 0x74 }
  - { offset: 0xAE342, size: 0x8, addend: 0x0, symName: __RNvMNtCs6IAuOt8vWmF_3syn10punctuatedINtB2_10PunctuatedNtNtB4_4item5FnArgNtNtB4_5token5CommaE8is_emptyB4_, symObjAddr: 0x4114, symBinAddr: 0x38320, symSize: 0x74 }
  - { offset: 0xAE383, size: 0x8, addend: 0x0, symName: __RNvMNtCs6IAuOt8vWmF_3syn10punctuatedINtB2_10PunctuatedNtNtB4_4path11PathSegmentNtNtB4_5token7PathSepE8is_emptyB4_, symObjAddr: 0x4188, symBinAddr: 0x38394, symSize: 0x74 }
  - { offset: 0xAE3C4, size: 0x8, addend: 0x0, symName: __RNvMNtCs6IAuOt8vWmF_3syn10punctuatedINtB2_10PunctuatedNtNtB4_4path15GenericArgumentNtNtB4_5token5CommaE8is_emptyB4_, symObjAddr: 0x41FC, symBinAddr: 0x38408, symSize: 0x74 }
  - { offset: 0xAE405, size: 0x8, addend: 0x0, symName: __RNvMNtCs6IAuOt8vWmF_3syn10punctuatedINtB2_10PunctuatedNtNtB4_8generics12GenericParamNtNtB4_5token5CommaE8is_emptyB4_, symObjAddr: 0x4270, symBinAddr: 0x3847C, symSize: 0x74 }
  - { offset: 0xAE446, size: 0x8, addend: 0x0, symName: __RNvMNtCs6IAuOt8vWmF_3syn10punctuatedINtB2_10PunctuatedNtNtB4_8generics14TypeParamBoundNtNtB4_5token4PlusE8is_emptyB4_, symObjAddr: 0x42E4, symBinAddr: 0x384F0, symSize: 0x74 }
  - { offset: 0xAE487, size: 0x8, addend: 0x0, symName: __RNvMNtCs6IAuOt8vWmF_3syn10punctuatedINtB2_10PunctuatedNtNtB4_8generics14WherePredicateNtNtB4_5token5CommaE8is_emptyB4_, symObjAddr: 0x4358, symBinAddr: 0x38564, symSize: 0x74 }
  - { offset: 0xAE4C8, size: 0x8, addend: 0x0, symName: __RNvMNtCs6IAuOt8vWmF_3syn10punctuatedINtB2_10PunctuatedNtNtB4_8lifetime8LifetimeNtNtB4_5token4PlusE8is_emptyB4_, symObjAddr: 0x43CC, symBinAddr: 0x385D8, symSize: 0x74 }
  - { offset: 0xAE4FC, size: 0x8, addend: 0x0, symName: __RNvMNtCs6IAuOt8vWmF_3syn10punctuatedINtB2_10PunctuatedNtNtB4_2ty4TypeNtNtB4_5token5CommaE3lenB4_, symObjAddr: 0x4440, symBinAddr: 0x3864C, symSize: 0xA0 }
  - { offset: 0xAE530, size: 0x8, addend: 0x0, symName: __RNvMNtCs6IAuOt8vWmF_3syn10punctuatedINtB2_10PunctuatedNtNtB4_3pat3PatNtNtB4_5token5CommaE3lenB4_, symObjAddr: 0x44E0, symBinAddr: 0x386EC, symSize: 0xA0 }
  - { offset: 0xAE564, size: 0x8, addend: 0x0, symName: __RNvMNtCs6IAuOt8vWmF_3syn10punctuatedINtB2_10PunctuatedNtNtB4_4expr4ExprNtNtB4_5token5CommaE3lenB4_, symObjAddr: 0x46C0, symBinAddr: 0x3878C, symSize: 0xA0 }
  - { offset: 0xAE598, size: 0x8, addend: 0x0, symName: __RNvMNtCs6IAuOt8vWmF_3syn10punctuatedINtB2_10PunctuatedNtNtB4_4path11PathSegmentNtNtB4_5token7PathSepE3lenB4_, symObjAddr: 0x4760, symBinAddr: 0x3882C, symSize: 0xA0 }
  - { offset: 0xAE5CC, size: 0x8, addend: 0x0, symName: __RNvMNtCs6IAuOt8vWmF_3syn10punctuatedINtB2_10PunctuatedNtNtB4_8generics14TypeParamBoundNtNtB4_5token4PlusE3lenB4_, symObjAddr: 0x4800, symBinAddr: 0x388CC, symSize: 0xA0 }
  - { offset: 0xAE600, size: 0x8, addend: 0x0, symName: __RNvMNtCs6IAuOt8vWmF_3syn10punctuatedINtB2_10PunctuatedNtNtB4_4path11PathSegmentNtNtB4_5token7PathSepE4lastB4_, symObjAddr: 0x49A8, symBinAddr: 0x3896C, symSize: 0x84 }
  - { offset: 0xAE634, size: 0x8, addend: 0x0, symName: __RNvMNtCs6IAuOt8vWmF_3syn10punctuatedINtB2_10PunctuatedNtNtB4_8generics14TypeParamBoundNtNtB4_5token4PlusE4lastB4_, symObjAddr: 0x4A2C, symBinAddr: 0x389F0, symSize: 0x84 }
  - { offset: 0xAE675, size: 0x8, addend: 0x0, symName: __RNvMNtCs6IAuOt8vWmF_3syn10punctuatedINtB2_10PunctuatedNtNtB4_4path11PathSegmentNtNtB4_5token7PathSepE8last_mutB4_, symObjAddr: 0x4AB0, symBinAddr: 0x38A74, symSize: 0x84 }
  - { offset: 0xAE712, size: 0x8, addend: 0x0, symName: __RNvMNtCs6IAuOt8vWmF_3syn10punctuatedINtB2_10PunctuatedNtNtB4_4path11PathSegmentNtNtB4_5token7PathSepE4iterB4_, symObjAddr: 0x4CC4, symBinAddr: 0x38AF8, symSize: 0xC8 }
  - { offset: 0xAE7CC, size: 0x8, addend: 0x0, symName: __RNvMNtCs6IAuOt8vWmF_3syn10punctuatedINtB2_10PunctuatedNtNtB4_8generics14TypeParamBoundNtNtB4_5token4PlusE4iterB4_, symObjAddr: 0x4E54, symBinAddr: 0x38BC0, symSize: 0xC8 }
  - { offset: 0xAE8AD, size: 0x8, addend: 0x0, symName: __RNvMNtCs6IAuOt8vWmF_3syn10punctuatedINtB2_10PunctuatedNtNtB4_4path11PathSegmentNtNtB4_5token7PathSepE8iter_mutB4_, symObjAddr: 0x4FE4, symBinAddr: 0x38C88, symSize: 0xC8 }
  - { offset: 0xAE960, size: 0x8, addend: 0x0, symName: __RNvMNtCs6IAuOt8vWmF_3syn10punctuatedINtB2_10PunctuatedNtNtB4_2ty4TypeNtNtB4_5token5CommaE5pairsB4_, symObjAddr: 0x5174, symBinAddr: 0x38D50, symSize: 0x74 }
  - { offset: 0xAE9BB, size: 0x8, addend: 0x0, symName: __RNvMNtCs6IAuOt8vWmF_3syn10punctuatedINtB2_10PunctuatedNtNtB4_2ty9BareFnArgNtNtB4_5token5CommaE5pairsB4_, symObjAddr: 0x51E8, symBinAddr: 0x38DC4, symSize: 0x74 }
  - { offset: 0xAEA23, size: 0x8, addend: 0x0, symName: __RNvMNtCs6IAuOt8vWmF_3syn10punctuatedINtB2_10PunctuatedNtNtB4_3pat3PatNtNtB4_5token2OrE5pairsB4_, symObjAddr: 0x525C, symBinAddr: 0x38E38, symSize: 0x74 }
  - { offset: 0xAEA71, size: 0x8, addend: 0x0, symName: __RNvMNtCs6IAuOt8vWmF_3syn10punctuatedINtB2_10PunctuatedNtNtB4_3pat3PatNtNtB4_5token5CommaE5pairsB4_, symObjAddr: 0x52D0, symBinAddr: 0x38EAC, symSize: 0x74 }
  - { offset: 0xAEAD9, size: 0x8, addend: 0x0, symName: __RNvMNtCs6IAuOt8vWmF_3syn10punctuatedINtB2_10PunctuatedNtNtB4_3pat8FieldPatNtNtB4_5token5CommaE5pairsB4_, symObjAddr: 0x5344, symBinAddr: 0x38F20, symSize: 0x74 }
  - { offset: 0xAEB0D, size: 0x8, addend: 0x0, symName: __RNvMNtCs6IAuOt8vWmF_3syn10punctuatedINtB2_10PunctuatedNtNtB4_4data5FieldNtNtB4_5token5CommaE5pairsB4_, symObjAddr: 0x53B8, symBinAddr: 0x38F94, symSize: 0x74 }
  - { offset: 0xAEB75, size: 0x8, addend: 0x0, symName: __RNvMNtCs6IAuOt8vWmF_3syn10punctuatedINtB2_10PunctuatedNtNtB4_4data7VariantNtNtB4_5token5CommaE5pairsB4_, symObjAddr: 0x542C, symBinAddr: 0x39008, symSize: 0x74 }
  - { offset: 0xAEBDD, size: 0x8, addend: 0x0, symName: __RNvMNtCs6IAuOt8vWmF_3syn10punctuatedINtB2_10PunctuatedNtNtB4_4expr10FieldValueNtNtB4_5token5CommaE5pairsB4_, symObjAddr: 0x54A0, symBinAddr: 0x3907C, symSize: 0x74 }
  - { offset: 0xAEC38, size: 0x8, addend: 0x0, symName: __RNvMNtCs6IAuOt8vWmF_3syn10punctuatedINtB2_10PunctuatedNtNtB4_4expr4ExprNtNtB4_5token5CommaE5pairsB4_, symObjAddr: 0x5514, symBinAddr: 0x390F0, symSize: 0x74 }
  - { offset: 0xAEC6C, size: 0x8, addend: 0x0, symName: __RNvMNtCs6IAuOt8vWmF_3syn10punctuatedINtB2_10PunctuatedNtNtB4_4item5FnArgNtNtB4_5token5CommaE5pairsB4_, symObjAddr: 0x5588, symBinAddr: 0x39164, symSize: 0x74 }
  - { offset: 0xAECD4, size: 0x8, addend: 0x0, symName: __RNvMNtCs6IAuOt8vWmF_3syn10punctuatedINtB2_10PunctuatedNtNtB4_4item7UseTreeNtNtB4_5token5CommaE5pairsB4_, symObjAddr: 0x55FC, symBinAddr: 0x391D8, symSize: 0x74 }
  - { offset: 0xAED08, size: 0x8, addend: 0x0, symName: __RNvMNtCs6IAuOt8vWmF_3syn10punctuatedINtB2_10PunctuatedNtNtB4_4path11PathSegmentNtNtB4_5token7PathSepE5pairsB4_, symObjAddr: 0x5670, symBinAddr: 0x3924C, symSize: 0x74 }
  - { offset: 0xAED63, size: 0x8, addend: 0x0, symName: __RNvMNtCs6IAuOt8vWmF_3syn10punctuatedINtB2_10PunctuatedNtNtB4_4path15GenericArgumentNtNtB4_5token5CommaE5pairsB4_, symObjAddr: 0x56E4, symBinAddr: 0x392C0, symSize: 0x74 }
  - { offset: 0xAED97, size: 0x8, addend: 0x0, symName: __RNvMNtCs6IAuOt8vWmF_3syn10punctuatedINtB2_10PunctuatedNtNtB4_8generics12GenericParamNtNtB4_5token5CommaE5pairsB4_, symObjAddr: 0x5758, symBinAddr: 0x39334, symSize: 0x74 }
  - { offset: 0xAEDFF, size: 0x8, addend: 0x0, symName: __RNvMNtCs6IAuOt8vWmF_3syn10punctuatedINtB2_10PunctuatedNtNtB4_8generics13CapturedParamNtNtB4_5token5CommaE5pairsB4_, symObjAddr: 0x57CC, symBinAddr: 0x393A8, symSize: 0x74 }
  - { offset: 0xAEE33, size: 0x8, addend: 0x0, symName: __RNvMNtCs6IAuOt8vWmF_3syn10punctuatedINtB2_10PunctuatedNtNtB4_8generics14TypeParamBoundNtNtB4_5token4PlusE5pairsB4_, symObjAddr: 0x5840, symBinAddr: 0x3941C, symSize: 0x74 }
  - { offset: 0xAEE8E, size: 0x8, addend: 0x0, symName: __RNvMNtCs6IAuOt8vWmF_3syn10punctuatedINtB2_10PunctuatedNtNtB4_8generics14WherePredicateNtNtB4_5token5CommaE5pairsB4_, symObjAddr: 0x58B4, symBinAddr: 0x39490, symSize: 0x74 }
  - { offset: 0xAEEC2, size: 0x8, addend: 0x0, symName: __RNvMNtCs6IAuOt8vWmF_3syn10punctuatedINtB2_10PunctuatedNtNtB4_8lifetime8LifetimeNtNtB4_5token4PlusE5pairsB4_, symObjAddr: 0x5928, symBinAddr: 0x39504, symSize: 0x74 }
  - { offset: 0xAEEF6, size: 0x8, addend: 0x0, symName: __RNvMNtCs6IAuOt8vWmF_3syn10punctuatedINtB2_10PunctuatedNtNtB4_4path11PathSegmentNtNtB4_5token7PathSepE10into_pairsB4_, symObjAddr: 0x599C, symBinAddr: 0x39578, symSize: 0x108 }
  - { offset: 0xAEF38, size: 0x8, addend: 0x0, symName: __RNvMNtCs6IAuOt8vWmF_3syn10punctuatedINtB2_10PunctuatedNtNtB4_2ty4TypeNtNtB4_5token5CommaE10push_valueB4_, symObjAddr: 0x5B3C, symBinAddr: 0x39718, symSize: 0x1B4 }
  - { offset: 0xAEFA6, size: 0x8, addend: 0x0, symName: __RNvMNtCs6IAuOt8vWmF_3syn10punctuatedINtB2_10PunctuatedNtNtB4_2ty9BareFnArgNtNtB4_5token5CommaE10push_valueB4_, symObjAddr: 0x5CF0, symBinAddr: 0x398CC, symSize: 0x1B4 }
  - { offset: 0xAF014, size: 0x8, addend: 0x0, symName: __RNvMNtCs6IAuOt8vWmF_3syn10punctuatedINtB2_10PunctuatedNtNtB4_3pat3PatNtNtB4_5token2OrE10push_valueB4_, symObjAddr: 0x5EA4, symBinAddr: 0x39A80, symSize: 0x1B4 }
  - { offset: 0xAF082, size: 0x8, addend: 0x0, symName: __RNvMNtCs6IAuOt8vWmF_3syn10punctuatedINtB2_10PunctuatedNtNtB4_3pat3PatNtNtB4_5token5CommaE10push_valueB4_, symObjAddr: 0x6058, symBinAddr: 0x39C34, symSize: 0x1B4 }
  - { offset: 0xAF0F0, size: 0x8, addend: 0x0, symName: __RNvMNtCs6IAuOt8vWmF_3syn10punctuatedINtB2_10PunctuatedNtNtB4_3pat8FieldPatNtNtB4_5token5CommaE10push_valueB4_, symObjAddr: 0x620C, symBinAddr: 0x39DE8, symSize: 0x1B4 }
  - { offset: 0xAF151, size: 0x8, addend: 0x0, symName: __RNvMNtCs6IAuOt8vWmF_3syn10punctuatedINtB2_10PunctuatedNtNtB4_4data5FieldNtNtB4_5token5CommaE10push_valueB4_, symObjAddr: 0x63C0, symBinAddr: 0x39F9C, symSize: 0x1B4 }
  - { offset: 0xAF1BF, size: 0x8, addend: 0x0, symName: __RNvMNtCs6IAuOt8vWmF_3syn10punctuatedINtB2_10PunctuatedNtNtB4_4data7VariantNtNtB4_5token5CommaE10push_valueB4_, symObjAddr: 0x6574, symBinAddr: 0x3A150, symSize: 0x1B4 }
  - { offset: 0xAF22D, size: 0x8, addend: 0x0, symName: __RNvMNtCs6IAuOt8vWmF_3syn10punctuatedINtB2_10PunctuatedNtNtB4_4expr10FieldValueNtNtB4_5token5CommaE10push_valueB4_, symObjAddr: 0x6728, symBinAddr: 0x3A304, symSize: 0x1B4 }
  - { offset: 0xAF29B, size: 0x8, addend: 0x0, symName: __RNvMNtCs6IAuOt8vWmF_3syn10punctuatedINtB2_10PunctuatedNtNtB4_4expr4ExprNtNtB4_5token5CommaE10push_valueB4_, symObjAddr: 0x68DC, symBinAddr: 0x3A4B8, symSize: 0x1B4 }
  - { offset: 0xAF309, size: 0x8, addend: 0x0, symName: __RNvMNtCs6IAuOt8vWmF_3syn10punctuatedINtB2_10PunctuatedNtNtB4_4item5FnArgNtNtB4_5token5CommaE10push_valueB4_, symObjAddr: 0x6A90, symBinAddr: 0x3A66C, symSize: 0x1B4 }
  - { offset: 0xAF377, size: 0x8, addend: 0x0, symName: __RNvMNtCs6IAuOt8vWmF_3syn10punctuatedINtB2_10PunctuatedNtNtB4_4item7UseTreeNtNtB4_5token5CommaE10push_valueB4_, symObjAddr: 0x6C44, symBinAddr: 0x3A820, symSize: 0x1B4 }
  - { offset: 0xAF3D8, size: 0x8, addend: 0x0, symName: __RNvMNtCs6IAuOt8vWmF_3syn10punctuatedINtB2_10PunctuatedNtNtB4_4path11PathSegmentNtNtB4_5token7PathSepE10push_valueB4_, symObjAddr: 0x6DF8, symBinAddr: 0x3A9D4, symSize: 0x1B4 }
  - { offset: 0xAF446, size: 0x8, addend: 0x0, symName: __RNvMNtCs6IAuOt8vWmF_3syn10punctuatedINtB2_10PunctuatedNtNtB4_4path15GenericArgumentNtNtB4_5token5CommaE10push_valueB4_, symObjAddr: 0x6FAC, symBinAddr: 0x3AB88, symSize: 0x1B4 }
  - { offset: 0xAF4A7, size: 0x8, addend: 0x0, symName: __RNvMNtCs6IAuOt8vWmF_3syn10punctuatedINtB2_10PunctuatedNtNtB4_8generics12GenericParamNtNtB4_5token5CommaE10push_valueB4_, symObjAddr: 0x7160, symBinAddr: 0x3AD3C, symSize: 0x1B4 }
  - { offset: 0xAF515, size: 0x8, addend: 0x0, symName: __RNvMNtCs6IAuOt8vWmF_3syn10punctuatedINtB2_10PunctuatedNtNtB4_8generics13CapturedParamNtNtB4_5token5CommaE10push_valueB4_, symObjAddr: 0x7314, symBinAddr: 0x3AEF0, symSize: 0x1AC }
  - { offset: 0xAF583, size: 0x8, addend: 0x0, symName: __RNvMNtCs6IAuOt8vWmF_3syn10punctuatedINtB2_10PunctuatedNtNtB4_8generics14TypeParamBoundNtNtB4_5token4PlusE10push_valueB4_, symObjAddr: 0x74C0, symBinAddr: 0x3B09C, symSize: 0x1B4 }
  - { offset: 0xAF5F1, size: 0x8, addend: 0x0, symName: __RNvMNtCs6IAuOt8vWmF_3syn10punctuatedINtB2_10PunctuatedNtNtB4_8generics14WherePredicateNtNtB4_5token5CommaE10push_valueB4_, symObjAddr: 0x7674, symBinAddr: 0x3B250, symSize: 0x1B4 }
  - { offset: 0xAF65F, size: 0x8, addend: 0x0, symName: __RNvMNtCs6IAuOt8vWmF_3syn10punctuatedINtB2_10PunctuatedNtNtB4_8lifetime8LifetimeNtNtB4_5token4PlusE10push_valueB4_, symObjAddr: 0x7828, symBinAddr: 0x3B404, symSize: 0x1A4 }
  - { offset: 0xAF6EB, size: 0x8, addend: 0x0, symName: __RNvMNtCs6IAuOt8vWmF_3syn10punctuatedINtB2_10PunctuatedNtNtB4_2ty4TypeNtNtB4_5token5CommaE10push_punctB4_, symObjAddr: 0x79CC, symBinAddr: 0x3B5A8, symSize: 0x200 }
  - { offset: 0xAF794, size: 0x8, addend: 0x0, symName: __RNvMNtCs6IAuOt8vWmF_3syn10punctuatedINtB2_10PunctuatedNtNtB4_2ty9BareFnArgNtNtB4_5token5CommaE10push_punctB4_, symObjAddr: 0x7BCC, symBinAddr: 0x3B7A8, symSize: 0x200 }
  - { offset: 0xAF83D, size: 0x8, addend: 0x0, symName: __RNvMNtCs6IAuOt8vWmF_3syn10punctuatedINtB2_10PunctuatedNtNtB4_3pat3PatNtNtB4_5token2OrE10push_punctB4_, symObjAddr: 0x7DCC, symBinAddr: 0x3B9A8, symSize: 0x200 }
  - { offset: 0xAF8BB, size: 0x8, addend: 0x0, symName: __RNvMNtCs6IAuOt8vWmF_3syn10punctuatedINtB2_10PunctuatedNtNtB4_3pat3PatNtNtB4_5token5CommaE10push_punctB4_, symObjAddr: 0x7FCC, symBinAddr: 0x3BBA8, symSize: 0x200 }
  - { offset: 0xAF964, size: 0x8, addend: 0x0, symName: __RNvMNtCs6IAuOt8vWmF_3syn10punctuatedINtB2_10PunctuatedNtNtB4_3pat8FieldPatNtNtB4_5token5CommaE10push_punctB4_, symObjAddr: 0x81CC, symBinAddr: 0x3BDA8, symSize: 0x200 }
  - { offset: 0xAFA0D, size: 0x8, addend: 0x0, symName: __RNvMNtCs6IAuOt8vWmF_3syn10punctuatedINtB2_10PunctuatedNtNtB4_4data5FieldNtNtB4_5token5CommaE10push_punctB4_, symObjAddr: 0x83CC, symBinAddr: 0x3BFA8, symSize: 0x200 }
  - { offset: 0xAFAB6, size: 0x8, addend: 0x0, symName: __RNvMNtCs6IAuOt8vWmF_3syn10punctuatedINtB2_10PunctuatedNtNtB4_4data7VariantNtNtB4_5token5CommaE10push_punctB4_, symObjAddr: 0x85CC, symBinAddr: 0x3C1A8, symSize: 0x200 }
  - { offset: 0xAFB5F, size: 0x8, addend: 0x0, symName: __RNvMNtCs6IAuOt8vWmF_3syn10punctuatedINtB2_10PunctuatedNtNtB4_4expr10FieldValueNtNtB4_5token5CommaE10push_punctB4_, symObjAddr: 0x87CC, symBinAddr: 0x3C3A8, symSize: 0x200 }
  - { offset: 0xAFC08, size: 0x8, addend: 0x0, symName: __RNvMNtCs6IAuOt8vWmF_3syn10punctuatedINtB2_10PunctuatedNtNtB4_4expr4ExprNtNtB4_5token5CommaE10push_punctB4_, symObjAddr: 0x89CC, symBinAddr: 0x3C5A8, symSize: 0x200 }
  - { offset: 0xAFCB1, size: 0x8, addend: 0x0, symName: __RNvMNtCs6IAuOt8vWmF_3syn10punctuatedINtB2_10PunctuatedNtNtB4_4item5FnArgNtNtB4_5token5CommaE10push_punctB4_, symObjAddr: 0x8BCC, symBinAddr: 0x3C7A8, symSize: 0x200 }
  - { offset: 0xAFD5A, size: 0x8, addend: 0x0, symName: __RNvMNtCs6IAuOt8vWmF_3syn10punctuatedINtB2_10PunctuatedNtNtB4_4item7UseTreeNtNtB4_5token5CommaE10push_punctB4_, symObjAddr: 0x8DCC, symBinAddr: 0x3C9A8, symSize: 0x200 }
  - { offset: 0xAFE03, size: 0x8, addend: 0x0, symName: __RNvMNtCs6IAuOt8vWmF_3syn10punctuatedINtB2_10PunctuatedNtNtB4_4path11PathSegmentNtNtB4_5token7PathSepE10push_punctB4_, symObjAddr: 0x8FCC, symBinAddr: 0x3CBA8, symSize: 0x200 }
  - { offset: 0xAFEAC, size: 0x8, addend: 0x0, symName: __RNvMNtCs6IAuOt8vWmF_3syn10punctuatedINtB2_10PunctuatedNtNtB4_4path15GenericArgumentNtNtB4_5token5CommaE10push_punctB4_, symObjAddr: 0x91CC, symBinAddr: 0x3CDA8, symSize: 0x200 }
  - { offset: 0xAFF55, size: 0x8, addend: 0x0, symName: __RNvMNtCs6IAuOt8vWmF_3syn10punctuatedINtB2_10PunctuatedNtNtB4_8generics12GenericParamNtNtB4_5token5CommaE10push_punctB4_, symObjAddr: 0x93CC, symBinAddr: 0x3CFA8, symSize: 0x204 }
  - { offset: 0xAFFFE, size: 0x8, addend: 0x0, symName: __RNvMNtCs6IAuOt8vWmF_3syn10punctuatedINtB2_10PunctuatedNtNtB4_8generics13CapturedParamNtNtB4_5token5CommaE10push_punctB4_, symObjAddr: 0x95D0, symBinAddr: 0x3D1AC, symSize: 0x200 }
  - { offset: 0xB00A7, size: 0x8, addend: 0x0, symName: __RNvMNtCs6IAuOt8vWmF_3syn10punctuatedINtB2_10PunctuatedNtNtB4_8generics14TypeParamBoundNtNtB4_5token4PlusE10push_punctB4_, symObjAddr: 0x97D0, symBinAddr: 0x3D3AC, symSize: 0x200 }
  - { offset: 0xB0150, size: 0x8, addend: 0x0, symName: __RNvMNtCs6IAuOt8vWmF_3syn10punctuatedINtB2_10PunctuatedNtNtB4_8generics14WherePredicateNtNtB4_5token5CommaE10push_punctB4_, symObjAddr: 0x99D0, symBinAddr: 0x3D5AC, symSize: 0x200 }
  - { offset: 0xB01F9, size: 0x8, addend: 0x0, symName: __RNvMNtCs6IAuOt8vWmF_3syn10punctuatedINtB2_10PunctuatedNtNtB4_8lifetime8LifetimeNtNtB4_5token4PlusE10push_punctB4_, symObjAddr: 0x9BD0, symBinAddr: 0x3D7AC, symSize: 0x1F8 }
  - { offset: 0xB0276, size: 0x8, addend: 0x0, symName: __RNvMNtCs6IAuOt8vWmF_3syn10punctuatedINtB2_10PunctuatedNtNtB4_4path11PathSegmentNtNtB4_5token7PathSepE3popB4_, symObjAddr: 0x9DC8, symBinAddr: 0x3D9A4, symSize: 0x90 }
  - { offset: 0xB02AA, size: 0x8, addend: 0x0, symName: __RNvMNtCs6IAuOt8vWmF_3syn10punctuatedINtB2_10PunctuatedNtNtB4_2ty4TypeNtNtB4_5token5CommaE14trailing_punctB4_, symObjAddr: 0x9F90, symBinAddr: 0x3DB6C, symSize: 0x80 }
  - { offset: 0xB02DE, size: 0x8, addend: 0x0, symName: __RNvMNtCs6IAuOt8vWmF_3syn10punctuatedINtB2_10PunctuatedNtNtB4_3pat3PatNtNtB4_5token5CommaE14trailing_punctB4_, symObjAddr: 0xA010, symBinAddr: 0x3DBEC, symSize: 0x80 }
  - { offset: 0xB0312, size: 0x8, addend: 0x0, symName: __RNvMNtCs6IAuOt8vWmF_3syn10punctuatedINtB2_10PunctuatedNtNtB4_4expr4ExprNtNtB4_5token5CommaE14trailing_punctB4_, symObjAddr: 0xA090, symBinAddr: 0x3DC6C, symSize: 0x80 }
  - { offset: 0xB0346, size: 0x8, addend: 0x0, symName: __RNvMNtCs6IAuOt8vWmF_3syn10punctuatedINtB2_10PunctuatedNtNtB4_4path11PathSegmentNtNtB4_5token7PathSepE14trailing_punctB4_, symObjAddr: 0xA110, symBinAddr: 0x3DCEC, symSize: 0x80 }
  - { offset: 0xB037A, size: 0x8, addend: 0x0, symName: __RNvMNtCs6IAuOt8vWmF_3syn10punctuatedINtB2_10PunctuatedNtNtB4_8generics14TypeParamBoundNtNtB4_5token4PlusE14trailing_punctB4_, symObjAddr: 0xA190, symBinAddr: 0x3DD6C, symSize: 0x80 }
  - { offset: 0xB03AE, size: 0x8, addend: 0x0, symName: __RNvMNtCs6IAuOt8vWmF_3syn10punctuatedINtB2_10PunctuatedNtNtB4_2ty4TypeNtNtB4_5token5CommaE17empty_or_trailingB4_, symObjAddr: 0xA210, symBinAddr: 0x3DDEC, symSize: 0x34 }
  - { offset: 0xB03E2, size: 0x8, addend: 0x0, symName: __RNvMNtCs6IAuOt8vWmF_3syn10punctuatedINtB2_10PunctuatedNtNtB4_2ty9BareFnArgNtNtB4_5token5CommaE17empty_or_trailingB4_, symObjAddr: 0xA244, symBinAddr: 0x3DE20, symSize: 0x34 }
  - { offset: 0xB0416, size: 0x8, addend: 0x0, symName: __RNvMNtCs6IAuOt8vWmF_3syn10punctuatedINtB2_10PunctuatedNtNtB4_3pat3PatNtNtB4_5token2OrE17empty_or_trailingB4_, symObjAddr: 0xA278, symBinAddr: 0x3DE54, symSize: 0x34 }
  - { offset: 0xB044A, size: 0x8, addend: 0x0, symName: __RNvMNtCs6IAuOt8vWmF_3syn10punctuatedINtB2_10PunctuatedNtNtB4_3pat3PatNtNtB4_5token5CommaE17empty_or_trailingB4_, symObjAddr: 0xA2AC, symBinAddr: 0x3DE88, symSize: 0x34 }
  - { offset: 0xB047E, size: 0x8, addend: 0x0, symName: __RNvMNtCs6IAuOt8vWmF_3syn10punctuatedINtB2_10PunctuatedNtNtB4_3pat8FieldPatNtNtB4_5token5CommaE17empty_or_trailingB4_, symObjAddr: 0xA2E0, symBinAddr: 0x3DEBC, symSize: 0x34 }
  - { offset: 0xB04B2, size: 0x8, addend: 0x0, symName: __RNvMNtCs6IAuOt8vWmF_3syn10punctuatedINtB2_10PunctuatedNtNtB4_4data5FieldNtNtB4_5token5CommaE17empty_or_trailingB4_, symObjAddr: 0xA314, symBinAddr: 0x3DEF0, symSize: 0x34 }
  - { offset: 0xB04E6, size: 0x8, addend: 0x0, symName: __RNvMNtCs6IAuOt8vWmF_3syn10punctuatedINtB2_10PunctuatedNtNtB4_4data7VariantNtNtB4_5token5CommaE17empty_or_trailingB4_, symObjAddr: 0xA348, symBinAddr: 0x3DF24, symSize: 0x34 }
  - { offset: 0xB051A, size: 0x8, addend: 0x0, symName: __RNvMNtCs6IAuOt8vWmF_3syn10punctuatedINtB2_10PunctuatedNtNtB4_4expr10FieldValueNtNtB4_5token5CommaE17empty_or_trailingB4_, symObjAddr: 0xA37C, symBinAddr: 0x3DF58, symSize: 0x34 }
  - { offset: 0xB054E, size: 0x8, addend: 0x0, symName: __RNvMNtCs6IAuOt8vWmF_3syn10punctuatedINtB2_10PunctuatedNtNtB4_4expr4ExprNtNtB4_5token5CommaE17empty_or_trailingB4_, symObjAddr: 0xA3B0, symBinAddr: 0x3DF8C, symSize: 0x34 }
  - { offset: 0xB0582, size: 0x8, addend: 0x0, symName: __RNvMNtCs6IAuOt8vWmF_3syn10punctuatedINtB2_10PunctuatedNtNtB4_4item5FnArgNtNtB4_5token5CommaE17empty_or_trailingB4_, symObjAddr: 0xA3E4, symBinAddr: 0x3DFC0, symSize: 0x34 }
  - { offset: 0xB05B6, size: 0x8, addend: 0x0, symName: __RNvMNtCs6IAuOt8vWmF_3syn10punctuatedINtB2_10PunctuatedNtNtB4_4item7UseTreeNtNtB4_5token5CommaE17empty_or_trailingB4_, symObjAddr: 0xA418, symBinAddr: 0x3DFF4, symSize: 0x34 }
  - { offset: 0xB05EA, size: 0x8, addend: 0x0, symName: __RNvMNtCs6IAuOt8vWmF_3syn10punctuatedINtB2_10PunctuatedNtNtB4_4path11PathSegmentNtNtB4_5token7PathSepE17empty_or_trailingB4_, symObjAddr: 0xA44C, symBinAddr: 0x3E028, symSize: 0x34 }
  - { offset: 0xB061E, size: 0x8, addend: 0x0, symName: __RNvMNtCs6IAuOt8vWmF_3syn10punctuatedINtB2_10PunctuatedNtNtB4_4path15GenericArgumentNtNtB4_5token5CommaE17empty_or_trailingB4_, symObjAddr: 0xA480, symBinAddr: 0x3E05C, symSize: 0x34 }
  - { offset: 0xB0652, size: 0x8, addend: 0x0, symName: __RNvMNtCs6IAuOt8vWmF_3syn10punctuatedINtB2_10PunctuatedNtNtB4_8generics12GenericParamNtNtB4_5token5CommaE17empty_or_trailingB4_, symObjAddr: 0xA4B4, symBinAddr: 0x3E090, symSize: 0x34 }
  - { offset: 0xB0686, size: 0x8, addend: 0x0, symName: __RNvMNtCs6IAuOt8vWmF_3syn10punctuatedINtB2_10PunctuatedNtNtB4_8generics13CapturedParamNtNtB4_5token5CommaE17empty_or_trailingB4_, symObjAddr: 0xA4E8, symBinAddr: 0x3E0C4, symSize: 0x34 }
  - { offset: 0xB06BA, size: 0x8, addend: 0x0, symName: __RNvMNtCs6IAuOt8vWmF_3syn10punctuatedINtB2_10PunctuatedNtNtB4_8generics14TypeParamBoundNtNtB4_5token4PlusE17empty_or_trailingB4_, symObjAddr: 0xA51C, symBinAddr: 0x3E0F8, symSize: 0x34 }
  - { offset: 0xB06EE, size: 0x8, addend: 0x0, symName: __RNvMNtCs6IAuOt8vWmF_3syn10punctuatedINtB2_10PunctuatedNtNtB4_8generics14WherePredicateNtNtB4_5token5CommaE17empty_or_trailingB4_, symObjAddr: 0xA550, symBinAddr: 0x3E12C, symSize: 0x34 }
  - { offset: 0xB0722, size: 0x8, addend: 0x0, symName: __RNvMNtCs6IAuOt8vWmF_3syn10punctuatedINtB2_10PunctuatedNtNtB4_8lifetime8LifetimeNtNtB4_5token4PlusE17empty_or_trailingB4_, symObjAddr: 0xA584, symBinAddr: 0x3E160, symSize: 0x34 }
  - { offset: 0xB0756, size: 0x8, addend: 0x0, symName: __RNvMNtCs6IAuOt8vWmF_3syn10punctuatedINtB2_10PunctuatedNtNtB4_4expr10FieldValueNtNtB4_5token5CommaE4pushB4_, symObjAddr: 0xA5B8, symBinAddr: 0x3E194, symSize: 0x124 }
  - { offset: 0xB07B1, size: 0x8, addend: 0x0, symName: __RNvMNtCs6IAuOt8vWmF_3syn10punctuatedINtB2_10PunctuatedNtNtB4_2ty4TypeNtNtB4_5token5CommaE21parse_terminated_withB4_, symObjAddr: 0xA6DC, symBinAddr: 0x3E2B8, symSize: 0x35C }
  - { offset: 0xB08CE, size: 0x8, addend: 0x0, symName: __RNvMNtCs6IAuOt8vWmF_3syn10punctuatedINtB2_10PunctuatedNtNtB4_4data5FieldNtNtB4_5token5CommaE21parse_terminated_withB4_, symObjAddr: 0xAA38, symBinAddr: 0x3E614, symSize: 0x370 }
  - { offset: 0xB09EB, size: 0x8, addend: 0x0, symName: __RNvMNtCs6IAuOt8vWmF_3syn10punctuatedINtB2_10PunctuatedNtNtB4_4data7VariantNtNtB4_5token5CommaE21parse_terminated_withB4_, symObjAddr: 0xADA8, symBinAddr: 0x3E984, symSize: 0x35C }
  - { offset: 0xB0B08, size: 0x8, addend: 0x0, symName: __RNvMNtCs6IAuOt8vWmF_3syn10punctuatedINtB2_10PunctuatedNtNtB4_4expr4ExprNtNtB4_5token5CommaE21parse_terminated_withB4_, symObjAddr: 0xB104, symBinAddr: 0x3ECE0, symSize: 0x35C }
  - { offset: 0xB0C34, size: 0x8, addend: 0x0, symName: __RNvMsJ_NtCs6IAuOt8vWmF_3syn10punctuatedINtB5_4PairNtNtB7_4path11PathSegmentNtNtB7_5token7PathSepE10into_valueB7_, symObjAddr: 0x11644, symBinAddr: 0x41370, symSize: 0xD4 }
  - { offset: 0xB0CAF, size: 0x8, addend: 0x0, symName: __RNvMsJ_NtCs6IAuOt8vWmF_3syn10punctuatedINtB5_4PairRNtNtB7_4path11PathSegmentRNtNtB7_5token7PathSepE5valueB7_, symObjAddr: 0x11718, symBinAddr: 0x41444, symSize: 0x74 }
  - { offset: 0xB0D29, size: 0x8, addend: 0x0, symName: __RNvMsJ_NtCs6IAuOt8vWmF_3syn10punctuatedINtB5_4PairRNtNtB7_4path15GenericArgumentRNtNtB7_5token5CommaE5valueB7_, symObjAddr: 0x1178C, symBinAddr: 0x414B8, symSize: 0x74 }
  - { offset: 0xB0D96, size: 0x8, addend: 0x0, symName: __RNvMsJ_NtCs6IAuOt8vWmF_3syn10punctuatedINtB5_4PairRNtNtB7_8generics12GenericParamRNtNtB7_5token5CommaE5valueB7_, symObjAddr: 0x11800, symBinAddr: 0x4152C, symSize: 0x74 }
  - { offset: 0xB0E03, size: 0x8, addend: 0x0, symName: __RNvMsJ_NtCs6IAuOt8vWmF_3syn10punctuatedINtB5_4PairRNtNtB7_8generics13CapturedParamRNtNtB7_5token5CommaE5valueB7_, symObjAddr: 0x11874, symBinAddr: 0x415A0, symSize: 0x74 }
  - { offset: 0xB0E63, size: 0x8, addend: 0x0, symName: __RNvMsJ_NtCs6IAuOt8vWmF_3syn10punctuatedINtB5_4PairRNtNtB7_4path11PathSegmentRNtNtB7_5token7PathSepE5punctB7_, symObjAddr: 0x118E8, symBinAddr: 0x41614, symSize: 0x78 }
  - { offset: 0xB0EC3, size: 0x8, addend: 0x0, symName: __RNvMsJ_NtCs6IAuOt8vWmF_3syn10punctuatedINtB5_4PairRNtNtB7_4path15GenericArgumentRNtNtB7_5token5CommaE5punctB7_, symObjAddr: 0x11960, symBinAddr: 0x4168C, symSize: 0x78 }
  - { offset: 0xB0F16, size: 0x8, addend: 0x0, symName: __RNvMsJ_NtCs6IAuOt8vWmF_3syn10punctuatedINtB5_4PairRNtNtB7_8generics12GenericParamRNtNtB7_5token5CommaE5punctB7_, symObjAddr: 0x119D8, symBinAddr: 0x41704, symSize: 0x78 }
  - { offset: 0xB0F69, size: 0x8, addend: 0x0, symName: __RNvMsJ_NtCs6IAuOt8vWmF_3syn10punctuatedINtB5_4PairRNtNtB7_8generics13CapturedParamRNtNtB7_5token5CommaE5punctB7_, symObjAddr: 0x11A50, symBinAddr: 0x4177C, symSize: 0x78 }
  - { offset: 0xB13CE, size: 0x8, addend: 0x0, symName: __RINvMNtCsfvfooZQ3Axs_4core6optionINtB3_6OptionINtNtCs6IAuOt8vWmF_3syn10punctuated4PairNtNtBN_4path11PathSegmentNtNtBN_5token7PathSepEE7or_elseNCNvXsj_BL_INtBL_9IntoPairsB1m_B1L_ENtNtNtNtB5_4iter6traits8iterator8Iterator4nexts_0EBN_, symObjAddr: 0x0, symBinAddr: 0x42BE4, symSize: 0xD8 }
  - { offset: 0xB83A5, size: 0x8, addend: 0x0, symName: __RNcNtINtNtCsfvfooZQ3Axs_4core6option6OptionNtCs3cP53eQoTwO_11proc_macro25IdentE4Some0Cs6IAuOt8vWmF_3syn, symObjAddr: 0x44F4, symBinAddr: 0x462BC, symSize: 0x18 }
  - { offset: 0xB83D8, size: 0x8, addend: 0x0, symName: __RNcNtINtNtCsfvfooZQ3Axs_4core6option6OptionNtNtCs6IAuOt8vWmF_3syn2ty3AbiE4Some0BJ_, symObjAddr: 0x450C, symBinAddr: 0x462D4, symSize: 0x2C }
  - { offset: 0xB840B, size: 0x8, addend: 0x0, symName: __RNcNtINtNtCsfvfooZQ3Axs_4core6option6OptionNtNtCs6IAuOt8vWmF_3syn4expr5LabelE4Some0BJ_, symObjAddr: 0x4538, symBinAddr: 0x46300, symSize: 0x30 }
  - { offset: 0xB843F, size: 0x8, addend: 0x0, symName: __RNcNtINtNtCsfvfooZQ3Axs_4core6option6OptionNtNtCs6IAuOt8vWmF_3syn8generics11WhereClauseE4Some0BJ_, symObjAddr: 0x4568, symBinAddr: 0x46330, symSize: 0x30 }
  - { offset: 0xB8473, size: 0x8, addend: 0x0, symName: __RNcNtINtNtCsfvfooZQ3Axs_4core6option6OptionNtNtCs6IAuOt8vWmF_3syn8generics14BoundLifetimesE4Some0BJ_, symObjAddr: 0x4598, symBinAddr: 0x46360, symSize: 0x30 }
  - { offset: 0xB8C07, size: 0x8, addend: 0x0, symName: __RNvXs3_NtCsfvfooZQ3Axs_4core6optionINtB5_6OptionINtNtCse1nGBsou5OW_5alloc2rc2RcINtNtB7_4cell4CellNtNtCs6IAuOt8vWmF_3syn5parse10UnexpectedEEENtNtB7_5clone5Clone5cloneB1B_, symObjAddr: 0x6F90, symBinAddr: 0x48858, symSize: 0x5C }
  - { offset: 0xB8C5C, size: 0x8, addend: 0x0, symName: __RNvXs3_NtCsfvfooZQ3Axs_4core6optionINtB5_6OptionNtNtCs6IAuOt8vWmF_3syn8lifetime8LifetimeENtNtB7_5clone5Clone5cloneBO_, symObjAddr: 0x86DC, symBinAddr: 0x488B4, symSize: 0x78 }
  - { offset: 0xB8D23, size: 0x8, addend: 0x0, symName: __RNvXs4_NtCsfvfooZQ3Axs_4core6optionINtB5_6OptionINtNtCse1nGBsou5OW_5alloc2rc2RcINtNtB7_4cell4CellNtNtCs6IAuOt8vWmF_3syn5parse10UnexpectedEEENtNtB7_7default7Default7defaultB1B_, symObjAddr: 0x8CDC, symBinAddr: 0x4892C, symSize: 0x14 }
  - { offset: 0xB8D51, size: 0x8, addend: 0x0, symName: __RNvXs5_NtCsfvfooZQ3Axs_4core6optionINtB5_6OptionNtNtCs6IAuOt8vWmF_3syn4path11PathSegmentENtNtNtNtB7_4iter6traits7collect12IntoIterator9into_iterBO_, symObjAddr: 0x8D40, symBinAddr: 0x48940, symSize: 0x48 }
  - { offset: 0xB8D89, size: 0x8, addend: 0x0, symName: __RNvXs5_NtCsfvfooZQ3Axs_4core6optionINtB5_6OptionNtNtCs6IAuOt8vWmF_3syn8generics14TypeParamBoundENtNtNtNtB7_4iter6traits7collect12IntoIterator9into_iterBO_, symObjAddr: 0x8D88, symBinAddr: 0x48988, symSize: 0x48 }
  - { offset: 0xB8DC1, size: 0x8, addend: 0x0, symName: __RNvXs5_NtCsfvfooZQ3Axs_4core6optionINtB5_6OptionQNtNtCs6IAuOt8vWmF_3syn4path11PathSegmentENtNtNtNtB7_4iter6traits7collect12IntoIterator9into_iterBP_, symObjAddr: 0x8DE4, symBinAddr: 0x489D0, symSize: 0x14 }
  - { offset: 0xB8DF8, size: 0x8, addend: 0x0, symName: __RNvXs5_NtCsfvfooZQ3Axs_4core6optionINtB5_6OptionQNtNtCs6IAuOt8vWmF_3syn8generics12GenericParamENtNtNtNtB7_4iter6traits7collect12IntoIterator9into_iterBP_, symObjAddr: 0x8DF8, symBinAddr: 0x489E4, symSize: 0x14 }
  - { offset: 0xB8E2F, size: 0x8, addend: 0x0, symName: __RNvXs5_NtCsfvfooZQ3Axs_4core6optionINtB5_6OptionRNtNtCs6IAuOt8vWmF_3syn2ty4TypeENtNtNtNtB7_4iter6traits7collect12IntoIterator9into_iterBP_, symObjAddr: 0x8E0C, symBinAddr: 0x489F8, symSize: 0x14 }
  - { offset: 0xB8E66, size: 0x8, addend: 0x0, symName: __RNvXs5_NtCsfvfooZQ3Axs_4core6optionINtB5_6OptionRNtNtCs6IAuOt8vWmF_3syn2ty9BareFnArgENtNtNtNtB7_4iter6traits7collect12IntoIterator9into_iterBP_, symObjAddr: 0x8E20, symBinAddr: 0x48A0C, symSize: 0x14 }
  - { offset: 0xB8E9D, size: 0x8, addend: 0x0, symName: __RNvXs5_NtCsfvfooZQ3Axs_4core6optionINtB5_6OptionRNtNtCs6IAuOt8vWmF_3syn3pat3PatENtNtNtNtB7_4iter6traits7collect12IntoIterator9into_iterBP_, symObjAddr: 0x8E34, symBinAddr: 0x48A20, symSize: 0x14 }
  - { offset: 0xB8ED4, size: 0x8, addend: 0x0, symName: __RNvXs5_NtCsfvfooZQ3Axs_4core6optionINtB5_6OptionRNtNtCs6IAuOt8vWmF_3syn3pat8FieldPatENtNtNtNtB7_4iter6traits7collect12IntoIterator9into_iterBP_, symObjAddr: 0x8E48, symBinAddr: 0x48A34, symSize: 0x14 }
  - { offset: 0xB8F0B, size: 0x8, addend: 0x0, symName: __RNvXs5_NtCsfvfooZQ3Axs_4core6optionINtB5_6OptionRNtNtCs6IAuOt8vWmF_3syn4data5FieldENtNtNtNtB7_4iter6traits7collect12IntoIterator9into_iterBP_, symObjAddr: 0x8E5C, symBinAddr: 0x48A48, symSize: 0x14 }
  - { offset: 0xB8F42, size: 0x8, addend: 0x0, symName: __RNvXs5_NtCsfvfooZQ3Axs_4core6optionINtB5_6OptionRNtNtCs6IAuOt8vWmF_3syn4data7VariantENtNtNtNtB7_4iter6traits7collect12IntoIterator9into_iterBP_, symObjAddr: 0x8E70, symBinAddr: 0x48A5C, symSize: 0x14 }
  - { offset: 0xB8F79, size: 0x8, addend: 0x0, symName: __RNvXs5_NtCsfvfooZQ3Axs_4core6optionINtB5_6OptionRNtNtCs6IAuOt8vWmF_3syn4expr10FieldValueENtNtNtNtB7_4iter6traits7collect12IntoIterator9into_iterBP_, symObjAddr: 0x8E84, symBinAddr: 0x48A70, symSize: 0x14 }
  - { offset: 0xB8FB0, size: 0x8, addend: 0x0, symName: __RNvXs5_NtCsfvfooZQ3Axs_4core6optionINtB5_6OptionRNtNtCs6IAuOt8vWmF_3syn4expr4ExprENtNtNtNtB7_4iter6traits7collect12IntoIterator9into_iterBP_, symObjAddr: 0x8E98, symBinAddr: 0x48A84, symSize: 0x14 }
  - { offset: 0xB8FE7, size: 0x8, addend: 0x0, symName: __RNvXs5_NtCsfvfooZQ3Axs_4core6optionINtB5_6OptionRNtNtCs6IAuOt8vWmF_3syn4item5FnArgENtNtNtNtB7_4iter6traits7collect12IntoIterator9into_iterBP_, symObjAddr: 0x8EAC, symBinAddr: 0x48A98, symSize: 0x14 }
  - { offset: 0xB901E, size: 0x8, addend: 0x0, symName: __RNvXs5_NtCsfvfooZQ3Axs_4core6optionINtB5_6OptionRNtNtCs6IAuOt8vWmF_3syn4item7UseTreeENtNtNtNtB7_4iter6traits7collect12IntoIterator9into_iterBP_, symObjAddr: 0x8EC0, symBinAddr: 0x48AAC, symSize: 0x14 }
  - { offset: 0xB9055, size: 0x8, addend: 0x0, symName: __RNvXs5_NtCsfvfooZQ3Axs_4core6optionINtB5_6OptionRNtNtCs6IAuOt8vWmF_3syn4path11PathSegmentENtNtNtNtB7_4iter6traits7collect12IntoIterator9into_iterBP_, symObjAddr: 0x8ED4, symBinAddr: 0x48AC0, symSize: 0x14 }
  - { offset: 0xB908C, size: 0x8, addend: 0x0, symName: __RNvXs5_NtCsfvfooZQ3Axs_4core6optionINtB5_6OptionRNtNtCs6IAuOt8vWmF_3syn4path15GenericArgumentENtNtNtNtB7_4iter6traits7collect12IntoIterator9into_iterBP_, symObjAddr: 0x8EE8, symBinAddr: 0x48AD4, symSize: 0x14 }
  - { offset: 0xB90C3, size: 0x8, addend: 0x0, symName: __RNvXs5_NtCsfvfooZQ3Axs_4core6optionINtB5_6OptionRNtNtCs6IAuOt8vWmF_3syn8generics12GenericParamENtNtNtNtB7_4iter6traits7collect12IntoIterator9into_iterBP_, symObjAddr: 0x8EFC, symBinAddr: 0x48AE8, symSize: 0x14 }
  - { offset: 0xB90FA, size: 0x8, addend: 0x0, symName: __RNvXs5_NtCsfvfooZQ3Axs_4core6optionINtB5_6OptionRNtNtCs6IAuOt8vWmF_3syn8generics13CapturedParamENtNtNtNtB7_4iter6traits7collect12IntoIterator9into_iterBP_, symObjAddr: 0x8F10, symBinAddr: 0x48AFC, symSize: 0x14 }
  - { offset: 0xB9131, size: 0x8, addend: 0x0, symName: __RNvXs5_NtCsfvfooZQ3Axs_4core6optionINtB5_6OptionRNtNtCs6IAuOt8vWmF_3syn8generics14TypeParamBoundENtNtNtNtB7_4iter6traits7collect12IntoIterator9into_iterBP_, symObjAddr: 0x8F24, symBinAddr: 0x48B10, symSize: 0x14 }
  - { offset: 0xB9168, size: 0x8, addend: 0x0, symName: __RNvXs5_NtCsfvfooZQ3Axs_4core6optionINtB5_6OptionRNtNtCs6IAuOt8vWmF_3syn8generics14WherePredicateENtNtNtNtB7_4iter6traits7collect12IntoIterator9into_iterBP_, symObjAddr: 0x8F38, symBinAddr: 0x48B24, symSize: 0x14 }
  - { offset: 0xB919F, size: 0x8, addend: 0x0, symName: __RNvXs5_NtCsfvfooZQ3Axs_4core6optionINtB5_6OptionRNtNtCs6IAuOt8vWmF_3syn8lifetime8LifetimeENtNtNtNtB7_4iter6traits7collect12IntoIterator9into_iterBP_, symObjAddr: 0x8F4C, symBinAddr: 0x48B38, symSize: 0x14 }
  - { offset: 0xB91DC, size: 0x8, addend: 0x0, symName: __RNvXsB_NtCsfvfooZQ3Axs_4core6optionINtB5_6OptionRhENtNtNtB7_3ops9try_trait3Try6branchCs6IAuOt8vWmF_3syn, symObjAddr: 0x918C, symBinAddr: 0x48B4C, symSize: 0x40 }
  - { offset: 0xB9231, size: 0x8, addend: 0x0, symName: __RNvXsB_NtCsfvfooZQ3Axs_4core6optionINtB5_6OptionTINtNtCse1nGBsou5OW_5alloc5boxed3BoxeEBL_EENtNtNtB7_3ops9try_trait3Try6branchCs6IAuOt8vWmF_3syn, symObjAddr: 0x91CC, symBinAddr: 0x48B8C, symSize: 0x60 }
  - { offset: 0xB9287, size: 0x8, addend: 0x0, symName: __RNvXsB_NtCsfvfooZQ3Axs_4core6optionINtB5_6OptionTNtCs3cP53eQoTwO_11proc_macro25IdentNtNtCs6IAuOt8vWmF_3syn6buffer6CursorEENtNtNtB7_3ops9try_trait3Try6branchB1o_, symObjAddr: 0x922C, symBinAddr: 0x48BEC, symSize: 0x74 }
  - { offset: 0xB92DD, size: 0x8, addend: 0x0, symName: __RNvXsB_NtCsfvfooZQ3Axs_4core6optionINtB5_6OptionTNtCs3cP53eQoTwO_11proc_macro27LiteralNtNtCs6IAuOt8vWmF_3syn6buffer6CursorEENtNtNtB7_3ops9try_trait3Try6branchB1q_, symObjAddr: 0x92A0, symBinAddr: 0x48C60, symSize: 0x78 }
  - { offset: 0xB9333, size: 0x8, addend: 0x0, symName: __RNvXsB_NtCsfvfooZQ3Axs_4core6optionINtB5_6OptionjENtNtNtB7_3ops9try_trait3Try11from_outputCs6IAuOt8vWmF_3syn, symObjAddr: 0x9318, symBinAddr: 0x48CD8, symSize: 0x24 }
  - { offset: 0xB936A, size: 0x8, addend: 0x0, symName: __RNvXsB_NtCsfvfooZQ3Axs_4core6optionINtB5_6OptionjENtNtNtB7_3ops9try_trait3Try6branchCs6IAuOt8vWmF_3syn, symObjAddr: 0x933C, symBinAddr: 0x48CFC, symSize: 0x48 }
  - { offset: 0xB93C5, size: 0x8, addend: 0x0, symName: __RNvXsC_NtCsfvfooZQ3Axs_4core6optionINtB5_6OptionTINtNtCse1nGBsou5OW_5alloc5boxed3BoxeEBL_EEINtNtNtB7_3ops9try_trait12FromResidualIBy_NtNtB7_7convert10InfallibleEE13from_residualCs6IAuOt8vWmF_3syn, symObjAddr: 0x9454, symBinAddr: 0x48D44, symSize: 0x10 }
  - { offset: 0xB93F8, size: 0x8, addend: 0x0, symName: __RNvXsC_NtCsfvfooZQ3Axs_4core6optionINtB5_6OptionTNtNtCs6IAuOt8vWmF_3syn3lit3LitNtNtBP_6buffer6CursorEEINtNtNtB7_3ops9try_trait12FromResidualIBy_NtNtB7_7convert10InfallibleEE13from_residualBP_, symObjAddr: 0x9464, symBinAddr: 0x48D54, symSize: 0x1C }
  - { offset: 0xB942B, size: 0x8, addend: 0x0, symName: __RNvXsC_NtCsfvfooZQ3Axs_4core6optionINtB5_6OptionTNtNtCs6IAuOt8vWmF_3syn8lifetime8LifetimeNtNtBP_6buffer6CursorEEINtNtNtB7_3ops9try_trait12FromResidualIBy_NtNtB7_7convert10InfallibleEE13from_residualBP_, symObjAddr: 0x9480, symBinAddr: 0x48D70, symSize: 0x18 }
  - { offset: 0xB945E, size: 0x8, addend: 0x0, symName: __RNvXsC_NtCsfvfooZQ3Axs_4core6optionINtB5_6OptionjEINtNtNtB7_3ops9try_trait12FromResidualIBy_NtNtB7_7convert10InfallibleEE13from_residualCs6IAuOt8vWmF_3syn, symObjAddr: 0x9498, symBinAddr: 0x48D88, symSize: 0x18 }
  - { offset: 0xB94EB, size: 0x8, addend: 0x0, symName: __RNvXsO_NtCsfvfooZQ3Axs_4core6optionINtB5_8IntoIterRNtNtCs6IAuOt8vWmF_3syn4path11PathSegmentENtNtB7_5clone5Clone5cloneBR_, symObjAddr: 0xB590, symBinAddr: 0x48DE8, symSize: 0x68 }
  - { offset: 0xB9592, size: 0x8, addend: 0x0, symName: __RNvXsO_NtCsfvfooZQ3Axs_4core6optionINtB5_8IntoIterRNtNtCs6IAuOt8vWmF_3syn8generics14TypeParamBoundENtNtB7_5clone5Clone5cloneBR_, symObjAddr: 0xB660, symBinAddr: 0x48E50, symSize: 0x68 }
  - { offset: 0xB99DB, size: 0x8, addend: 0x0, symName: __RNvXsv_NtCsfvfooZQ3Axs_4core6optionINtB5_8IntoIterNtNtCs6IAuOt8vWmF_3syn4path11PathSegmentENtNtNtNtB7_4iter6traits8iterator8Iterator4nextBQ_, symObjAddr: 0xE660, symBinAddr: 0x49020, symSize: 0x64 }
  - { offset: 0xB9A7E, size: 0x8, addend: 0x0, symName: __RNvXsv_NtCsfvfooZQ3Axs_4core6optionINtB5_8IntoIterNtNtCs6IAuOt8vWmF_3syn8generics14TypeParamBoundENtNtNtNtB7_4iter6traits8iterator8Iterator4nextBQ_, symObjAddr: 0xE6C4, symBinAddr: 0x49084, symSize: 0x60 }
  - { offset: 0xB9B21, size: 0x8, addend: 0x0, symName: __RNvXsv_NtCsfvfooZQ3Axs_4core6optionINtB5_8IntoIterNtNtCs6IAuOt8vWmF_3syn8generics14TypeParamBoundENtNtNtNtB7_4iter6traits8iterator8Iterator9size_hintBQ_, symObjAddr: 0xE724, symBinAddr: 0x490E4, symSize: 0x48 }
  - { offset: 0xB9B99, size: 0x8, addend: 0x0, symName: __RNvXsv_NtCsfvfooZQ3Axs_4core6optionINtB5_8IntoIterQNtNtCs6IAuOt8vWmF_3syn4path11PathSegmentENtNtNtNtB7_4iter6traits8iterator8Iterator4nextBR_, symObjAddr: 0xE7D8, symBinAddr: 0x4912C, symSize: 0x28 }
  - { offset: 0xB9C3C, size: 0x8, addend: 0x0, symName: __RNvXsv_NtCsfvfooZQ3Axs_4core6optionINtB5_8IntoIterQNtNtCs6IAuOt8vWmF_3syn4path11PathSegmentENtNtNtNtB7_4iter6traits8iterator8Iterator9size_hintBR_, symObjAddr: 0xE800, symBinAddr: 0x49154, symSize: 0x44 }
  - { offset: 0xB9CB4, size: 0x8, addend: 0x0, symName: __RNvXsv_NtCsfvfooZQ3Axs_4core6optionINtB5_8IntoIterQNtNtCs6IAuOt8vWmF_3syn8generics12GenericParamENtNtNtNtB7_4iter6traits8iterator8Iterator4nextBR_, symObjAddr: 0xE844, symBinAddr: 0x49198, symSize: 0x28 }
  - { offset: 0xB9D57, size: 0x8, addend: 0x0, symName: __RNvXsv_NtCsfvfooZQ3Axs_4core6optionINtB5_8IntoIterRNtNtCs6IAuOt8vWmF_3syn2ty4TypeENtNtNtNtB7_4iter6traits8iterator8Iterator4nextBR_, symObjAddr: 0xE8B0, symBinAddr: 0x491C0, symSize: 0x28 }
  - { offset: 0xB9DFA, size: 0x8, addend: 0x0, symName: __RNvXsv_NtCsfvfooZQ3Axs_4core6optionINtB5_8IntoIterRNtNtCs6IAuOt8vWmF_3syn2ty9BareFnArgENtNtNtNtB7_4iter6traits8iterator8Iterator4nextBR_, symObjAddr: 0xE8D8, symBinAddr: 0x491E8, symSize: 0x28 }
  - { offset: 0xB9E9D, size: 0x8, addend: 0x0, symName: __RNvXsv_NtCsfvfooZQ3Axs_4core6optionINtB5_8IntoIterRNtNtCs6IAuOt8vWmF_3syn3pat3PatENtNtNtNtB7_4iter6traits8iterator8Iterator4nextBR_, symObjAddr: 0xE900, symBinAddr: 0x49210, symSize: 0x28 }
  - { offset: 0xB9F40, size: 0x8, addend: 0x0, symName: __RNvXsv_NtCsfvfooZQ3Axs_4core6optionINtB5_8IntoIterRNtNtCs6IAuOt8vWmF_3syn3pat8FieldPatENtNtNtNtB7_4iter6traits8iterator8Iterator4nextBR_, symObjAddr: 0xE928, symBinAddr: 0x49238, symSize: 0x28 }
  - { offset: 0xB9FE3, size: 0x8, addend: 0x0, symName: __RNvXsv_NtCsfvfooZQ3Axs_4core6optionINtB5_8IntoIterRNtNtCs6IAuOt8vWmF_3syn4data5FieldENtNtNtNtB7_4iter6traits8iterator8Iterator4nextBR_, symObjAddr: 0xE950, symBinAddr: 0x49260, symSize: 0x28 }
  - { offset: 0xBA086, size: 0x8, addend: 0x0, symName: __RNvXsv_NtCsfvfooZQ3Axs_4core6optionINtB5_8IntoIterRNtNtCs6IAuOt8vWmF_3syn4data7VariantENtNtNtNtB7_4iter6traits8iterator8Iterator4nextBR_, symObjAddr: 0xE9BC, symBinAddr: 0x49288, symSize: 0x28 }
  - { offset: 0xBA129, size: 0x8, addend: 0x0, symName: __RNvXsv_NtCsfvfooZQ3Axs_4core6optionINtB5_8IntoIterRNtNtCs6IAuOt8vWmF_3syn4expr10FieldValueENtNtNtNtB7_4iter6traits8iterator8Iterator4nextBR_, symObjAddr: 0xE9E4, symBinAddr: 0x492B0, symSize: 0x28 }
  - { offset: 0xBA1CC, size: 0x8, addend: 0x0, symName: __RNvXsv_NtCsfvfooZQ3Axs_4core6optionINtB5_8IntoIterRNtNtCs6IAuOt8vWmF_3syn4expr4ExprENtNtNtNtB7_4iter6traits8iterator8Iterator4nextBR_, symObjAddr: 0xEA0C, symBinAddr: 0x492D8, symSize: 0x28 }
  - { offset: 0xBA26F, size: 0x8, addend: 0x0, symName: __RNvXsv_NtCsfvfooZQ3Axs_4core6optionINtB5_8IntoIterRNtNtCs6IAuOt8vWmF_3syn4item5FnArgENtNtNtNtB7_4iter6traits8iterator8Iterator4nextBR_, symObjAddr: 0xEA34, symBinAddr: 0x49300, symSize: 0x28 }
  - { offset: 0xBA312, size: 0x8, addend: 0x0, symName: __RNvXsv_NtCsfvfooZQ3Axs_4core6optionINtB5_8IntoIterRNtNtCs6IAuOt8vWmF_3syn4item7UseTreeENtNtNtNtB7_4iter6traits8iterator8Iterator4nextBR_, symObjAddr: 0xEAA0, symBinAddr: 0x49328, symSize: 0x28 }
  - { offset: 0xBA3B5, size: 0x8, addend: 0x0, symName: __RNvXsv_NtCsfvfooZQ3Axs_4core6optionINtB5_8IntoIterRNtNtCs6IAuOt8vWmF_3syn4path11PathSegmentENtNtNtNtB7_4iter6traits8iterator8Iterator4nextBR_, symObjAddr: 0xEAC8, symBinAddr: 0x49350, symSize: 0x28 }
  - { offset: 0xBA458, size: 0x8, addend: 0x0, symName: __RNvXsv_NtCsfvfooZQ3Axs_4core6optionINtB5_8IntoIterRNtNtCs6IAuOt8vWmF_3syn4path11PathSegmentENtNtNtNtB7_4iter6traits8iterator8Iterator9size_hintBR_, symObjAddr: 0xEAF0, symBinAddr: 0x49378, symSize: 0x44 }
  - { offset: 0xBA4D0, size: 0x8, addend: 0x0, symName: __RNvXsv_NtCsfvfooZQ3Axs_4core6optionINtB5_8IntoIterRNtNtCs6IAuOt8vWmF_3syn4path15GenericArgumentENtNtNtNtB7_4iter6traits8iterator8Iterator4nextBR_, symObjAddr: 0xEB34, symBinAddr: 0x493BC, symSize: 0x28 }
  - { offset: 0xBA573, size: 0x8, addend: 0x0, symName: __RNvXsv_NtCsfvfooZQ3Axs_4core6optionINtB5_8IntoIterRNtNtCs6IAuOt8vWmF_3syn8generics12GenericParamENtNtNtNtB7_4iter6traits8iterator8Iterator4nextBR_, symObjAddr: 0xEB5C, symBinAddr: 0x493E4, symSize: 0x28 }
  - { offset: 0xBA616, size: 0x8, addend: 0x0, symName: __RNvXsv_NtCsfvfooZQ3Axs_4core6optionINtB5_8IntoIterRNtNtCs6IAuOt8vWmF_3syn8generics13CapturedParamENtNtNtNtB7_4iter6traits8iterator8Iterator4nextBR_, symObjAddr: 0xEBC8, symBinAddr: 0x4940C, symSize: 0x28 }
  - { offset: 0xBA6B9, size: 0x8, addend: 0x0, symName: __RNvXsv_NtCsfvfooZQ3Axs_4core6optionINtB5_8IntoIterRNtNtCs6IAuOt8vWmF_3syn8generics14TypeParamBoundENtNtNtNtB7_4iter6traits8iterator8Iterator4nextBR_, symObjAddr: 0xEBF0, symBinAddr: 0x49434, symSize: 0x28 }
  - { offset: 0xBA75C, size: 0x8, addend: 0x0, symName: __RNvXsv_NtCsfvfooZQ3Axs_4core6optionINtB5_8IntoIterRNtNtCs6IAuOt8vWmF_3syn8generics14TypeParamBoundENtNtNtNtB7_4iter6traits8iterator8Iterator9size_hintBR_, symObjAddr: 0xEC18, symBinAddr: 0x4945C, symSize: 0x44 }
  - { offset: 0xBA7D4, size: 0x8, addend: 0x0, symName: __RNvXsv_NtCsfvfooZQ3Axs_4core6optionINtB5_8IntoIterRNtNtCs6IAuOt8vWmF_3syn8generics14WherePredicateENtNtNtNtB7_4iter6traits8iterator8Iterator4nextBR_, symObjAddr: 0xEC5C, symBinAddr: 0x494A0, symSize: 0x28 }
  - { offset: 0xBA877, size: 0x8, addend: 0x0, symName: __RNvXsv_NtCsfvfooZQ3Axs_4core6optionINtB5_8IntoIterRNtNtCs6IAuOt8vWmF_3syn8lifetime8LifetimeENtNtNtNtB7_4iter6traits8iterator8Iterator4nextBR_, symObjAddr: 0xEC84, symBinAddr: 0x494C8, symSize: 0x28 }
  - { offset: 0xBBAD2, size: 0x8, addend: 0x0, symName: __RNvNvMNtNtCsfvfooZQ3Axs_4core3ptr9const_ptrPp6offset18precondition_checkCs6IAuOt8vWmF_3syn, symObjAddr: 0x5F10, symBinAddr: 0x479A4, symSize: 0xA0 }
  - { offset: 0xBBC94, size: 0x8, addend: 0x0, symName: __RNvNvMNtNtCsfvfooZQ3Axs_4core3ptr9const_ptrPp7sub_ptr18precondition_checkCs6IAuOt8vWmF_3syn, symObjAddr: 0x5FB0, symBinAddr: 0x47A44, symSize: 0x40 }
  - { offset: 0xBC4B7, size: 0x8, addend: 0x0, symName: __RNvXsr_NtCsfvfooZQ3Axs_4core3fmtShNtB5_5Debug3fmtCs6IAuOt8vWmF_3syn, symObjAddr: 0xE52C, symBinAddr: 0x48F98, symSize: 0x88 }
  - { offset: 0xBDB7A, size: 0x8, addend: 0x0, symName: __RINvYINtNtCsfvfooZQ3Axs_4core6option8IntoIterNtNtCs6IAuOt8vWmF_3syn8generics14TypeParamBoundENtNtNtNtB8_4iter6traits8iterator8Iterator4folduNCINvNvB1t_8for_each4callBH_NCINvMsi_NtCse1nGBsou5OW_5alloc3vecINtB2P_3VecBH_E14extend_trustedB3_E0E0EBL_, symObjAddr: 0x3F98, symBinAddr: 0x45D60, symSize: 0x148 }
  - { offset: 0xBDC0C, size: 0x8, addend: 0x0, symName: __RINvYINtNtCsfvfooZQ3Axs_4core6option8IntoIterNtNtCs6IAuOt8vWmF_3syn8generics14TypeParamBoundENtNtNtNtB8_4iter6traits8iterator8Iterator8for_eachNCINvMsi_NtCse1nGBsou5OW_5alloc3vecINtB2q_3VecBH_E14extend_trustedB3_E0EBL_, symObjAddr: 0x40E0, symBinAddr: 0x45EA8, symSize: 0x34 }
  - { offset: 0xBDC78, size: 0x8, addend: 0x0, symName: __RINvYNtNtNtCsfvfooZQ3Axs_4core3ops11index_range10IndexRangeNtNtNtNtB9_4iter6traits8iterator8Iterator8try_folduNCINvMNtB7_9try_traitINtB1Q_17NeverShortCircuituE10wrap_mut_2ujNCINvXs0_NtNtB9_5array4iterINtB2U_8IntoIterNtCs3cP53eQoTwO_11proc_macro29TokenTreeKj1_EBV_4folduNCINvNtNtB11_8adapters3map8map_foldB3s_NtCs9i5KxIbZ5ph_10proc_macro9TokenTreeuNvNtB3u_3imp19into_compiler_tokenNCINvNvBV_8for_each4callB4W_NCINvXsg_B4Y_NtB4Y_11TokenStreamINtNtBZ_7collect12FromIteratorB4W_E9from_iterINtB4o_3MapB3c_B5z_EE0E0E0E0E0B25_ECs6IAuOt8vWmF_3syn, symObjAddr: 0x4114, symBinAddr: 0x45EDC, symSize: 0xF8 }
  - { offset: 0xBDD10, size: 0x8, addend: 0x0, symName: __RINvYNtNtNtCsfvfooZQ3Axs_4core3ops11index_range10IndexRangeNtNtNtNtB9_4iter6traits8iterator8Iterator8try_folduNCINvMNtB7_9try_traitINtB1Q_17NeverShortCircuituE10wrap_mut_2ujNCINvXs0_NtNtB9_5array4iterINtB2U_8IntoIterNtCs3cP53eQoTwO_11proc_macro29TokenTreeKj1_EBV_4folduNCINvNvBV_8for_each4callB3s_NCINvXsa_NtB3u_8fallbackNtB4U_11TokenStreamINtNtBZ_7collect6ExtendB3s_E6extendB3c_E0E0E0E0B25_ECs6IAuOt8vWmF_3syn, symObjAddr: 0x420C, symBinAddr: 0x45FD4, symSize: 0xF8 }
  - { offset: 0xBDDA8, size: 0x8, addend: 0x0, symName: __RINvYNtNtNtCsfvfooZQ3Axs_4core3ops11index_range10IndexRangeNtNtNtNtB9_4iter6traits8iterator8Iterator8try_folduNCINvMNtB7_9try_traitINtB1Q_17NeverShortCircuituE10wrap_mut_2ujNCINvXs0_NtNtB9_5array4iterINtB2U_8IntoIterNtCs3cP53eQoTwO_11proc_macro29TokenTreeKj8_EBV_4folduNCINvNtNtB11_8adapters3map8map_foldB3s_NtCs9i5KxIbZ5ph_10proc_macro9TokenTreeuNvNtB3u_3imp19into_compiler_tokenNCINvNvBV_8for_each4callB4W_NCINvXsg_B4Y_NtB4Y_11TokenStreamINtNtBZ_7collect12FromIteratorB4W_E9from_iterINtB4o_3MapB3c_B5z_EE0E0E0E0E0B25_ECs6IAuOt8vWmF_3syn, symObjAddr: 0x4304, symBinAddr: 0x460CC, symSize: 0xF8 }
  - { offset: 0xBDE40, size: 0x8, addend: 0x0, symName: __RINvYNtNtNtCsfvfooZQ3Axs_4core3ops11index_range10IndexRangeNtNtNtNtB9_4iter6traits8iterator8Iterator8try_folduNCINvMNtB7_9try_traitINtB1Q_17NeverShortCircuituE10wrap_mut_2ujNCINvXs0_NtNtB9_5array4iterINtB2U_8IntoIterNtCs3cP53eQoTwO_11proc_macro29TokenTreeKj8_EBV_4folduNCINvNvBV_8for_each4callB3s_NCINvXsa_NtB3u_8fallbackNtB4U_11TokenStreamINtNtBZ_7collect6ExtendB3s_E6extendB3c_E0E0E0E0B25_ECs6IAuOt8vWmF_3syn, symObjAddr: 0x43FC, symBinAddr: 0x461C4, symSize: 0xF8 }
  - { offset: 0xBDEE4, size: 0x8, addend: 0x0, symName: __RNvXNtNtNtCsfvfooZQ3Axs_4core4iter6traits7collectINtNtNtB6_8adapters3rev3RevINtNtNtB8_5slice4iter4IterhEENtB2_12IntoIterator9into_iterCs6IAuOt8vWmF_3syn, symObjAddr: 0x5FF0, symBinAddr: 0x47A84, symSize: 0x1C }
  - { offset: 0xBDF52, size: 0x8, addend: 0x0, symName: __RNvYINtNtCsfvfooZQ3Axs_4core6option8IntoIterQNtNtCs6IAuOt8vWmF_3syn4path11PathSegmentENtNtNtNtB7_4iter6traits10exact_size17ExactSizeIterator3lenBL_, symObjAddr: 0xEDC4, symBinAddr: 0x49514, symSize: 0xF4 }
  - { offset: 0xBE045, size: 0x8, addend: 0x0, symName: __RNvYINtNtCsfvfooZQ3Axs_4core6option8IntoIterRNtNtCs6IAuOt8vWmF_3syn4path11PathSegmentENtNtNtNtB7_4iter6traits10exact_size17ExactSizeIterator3lenBL_, symObjAddr: 0xF194, symBinAddr: 0x49608, symSize: 0xF4 }
  - { offset: 0xBE138, size: 0x8, addend: 0x0, symName: __RNvYINtNtCsfvfooZQ3Axs_4core6option8IntoIterRNtNtCs6IAuOt8vWmF_3syn8generics14TypeParamBoundENtNtNtNtB7_4iter6traits10exact_size17ExactSizeIterator3lenBL_, symObjAddr: 0xF37C, symBinAddr: 0x496FC, symSize: 0xF4 }
  - { offset: 0xBE23D, size: 0x8, addend: 0x0, symName: __RNvXs_NtNtNtCsfvfooZQ3Axs_4core4iter8adapters3revINtB4_3RevINtNtNtBa_5slice4iter4IterhEENtNtNtB8_6traits8iterator8Iterator4nextCs6IAuOt8vWmF_3syn, symObjAddr: 0xB784, symBinAddr: 0x48F74, symSize: 0x24 }
  - { offset: 0xBE991, size: 0x8, addend: 0x0, symName: __RNvXs_NtNtCsfvfooZQ3Axs_4core3ops11index_rangeNtB4_10IndexRangeNtNtNtNtB8_4iter6traits8iterator8Iterator4nextCs6IAuOt8vWmF_3syn, symObjAddr: 0xB6C8, symBinAddr: 0x48EB8, symSize: 0xBC }
  - { offset: 0xC102C, size: 0x8, addend: 0x0, symName: __RNvXsl_NtNtCs6IAuOt8vWmF_3syn2ty7parsingINtNtCsfvfooZQ3Axs_4core6option6OptionNtB7_3AbiENtNtB9_5parse5Parse5parse, symObjAddr: 0x115DC, symBinAddr: 0x4B95C, symSize: 0x98 }
  - { offset: 0xC20A0, size: 0x8, addend: 0x0, symName: __RNvXso_NtNtCs6IAuOt8vWmF_3syn4expr7parsingINtNtCsfvfooZQ3Axs_4core6option6OptionNtB7_5LabelENtNtB9_5parse5Parse5parse, symObjAddr: 0xF4AC, symBinAddr: 0x4982C, symSize: 0xA4 }
  - { offset: 0xC2246, size: 0x8, addend: 0x0, symName: __RNCNvXNtNtCs6IAuOt8vWmF_3syn4attr8printingNtB6_9AttributeNtNtCs2cqEZUIJimJ_5quote9to_tokens8ToTokens9to_tokens0B8_, symObjAddr: 0xF470, symBinAddr: 0x497F0, symSize: 0x3C }
  - { offset: 0xC4021, size: 0x8, addend: 0x0, symName: __RNCNvXs_NtNtCs6IAuOt8vWmF_3syn11restriction8printingNtB8_13VisRestrictedNtNtCs2cqEZUIJimJ_5quote9to_tokens8ToTokens9to_tokens0Ba_, symObjAddr: 0x1155C, symBinAddr: 0x4B8DC, symSize: 0x80 }
  - { offset: 0xC451F, size: 0x8, addend: 0x0, symName: __RNvXs2_NtNtCs6IAuOt8vWmF_3syn8generics7parsingINtNtCsfvfooZQ3Axs_4core6option6OptionNtB7_14BoundLifetimesENtNtB9_5parse5Parse5parse, symObjAddr: 0xF550, symBinAddr: 0x498D0, symSize: 0x98 }
  - { offset: 0xC4553, size: 0x8, addend: 0x0, symName: __RNvXsb_NtNtCs6IAuOt8vWmF_3syn8generics7parsingINtNtCsfvfooZQ3Axs_4core6option6OptionNtB7_11WhereClauseENtNtB9_5parse5Parse5parse, symObjAddr: 0xF5E8, symBinAddr: 0x49968, symSize: 0x98 }
  - { offset: 0xC4D30, size: 0x8, addend: 0x0, symName: __RNvXsb_NtCs6IAuOt8vWmF_3syn5parseINtNtCsfvfooZQ3Axs_4core6option6OptionNtCs3cP53eQoTwO_11proc_macro25IdentENtB5_5Parse5parseB7_, symObjAddr: 0xF680, symBinAddr: 0x49A00, symSize: 0x12C }
  - { offset: 0xC4D86, size: 0x8, addend: 0x0, symName: __RNvXsb_NtCs6IAuOt8vWmF_3syn5parseINtNtCsfvfooZQ3Axs_4core6option6OptionNtNtB7_3lit3LitENtB5_5Parse5parseB7_, symObjAddr: 0xF7AC, symBinAddr: 0x49B2C, symSize: 0x130 }
  - { offset: 0xC4DDC, size: 0x8, addend: 0x0, symName: __RNvXsb_NtCs6IAuOt8vWmF_3syn5parseINtNtCsfvfooZQ3Axs_4core6option6OptionNtNtB7_3lit6LitStrENtB5_5Parse5parseB7_, symObjAddr: 0xF8DC, symBinAddr: 0x49C5C, symSize: 0x110 }
  - { offset: 0xC4E31, size: 0x8, addend: 0x0, symName: __RNvXsb_NtCs6IAuOt8vWmF_3syn5parseINtNtCsfvfooZQ3Axs_4core6option6OptionNtNtB7_3lit8LitFloatENtB5_5Parse5parseB7_, symObjAddr: 0xF9EC, symBinAddr: 0x49D6C, symSize: 0x110 }
  - { offset: 0xC4E86, size: 0x8, addend: 0x0, symName: __RNvXsb_NtCs6IAuOt8vWmF_3syn5parseINtNtCsfvfooZQ3Axs_4core6option6OptionNtNtB7_5token2EqENtB5_5Parse5parseB7_, symObjAddr: 0xFAFC, symBinAddr: 0x49E7C, symSize: 0x11C }
  - { offset: 0xC4EDB, size: 0x8, addend: 0x0, symName: __RNvXsb_NtCs6IAuOt8vWmF_3syn5parseINtNtCsfvfooZQ3Axs_4core6option6OptionNtNtB7_5token2OrENtB5_5Parse5parseB7_, symObjAddr: 0xFC18, symBinAddr: 0x49F98, symSize: 0x11C }
  - { offset: 0xC4F30, size: 0x8, addend: 0x0, symName: __RNvXsb_NtCs6IAuOt8vWmF_3syn5parseINtNtCsfvfooZQ3Axs_4core6option6OptionNtNtB7_5token3BoxENtB5_5Parse5parseB7_, symObjAddr: 0xFD34, symBinAddr: 0x4A0B4, symSize: 0x128 }
  - { offset: 0xC4F85, size: 0x8, addend: 0x0, symName: __RNvXsb_NtCs6IAuOt8vWmF_3syn5parseINtNtCsfvfooZQ3Axs_4core6option6OptionNtNtB7_5token3DynENtB5_5Parse5parseB7_, symObjAddr: 0xFE5C, symBinAddr: 0x4A1DC, symSize: 0x128 }
  - { offset: 0xC4FDA, size: 0x8, addend: 0x0, symName: __RNvXsb_NtCs6IAuOt8vWmF_3syn5parseINtNtCsfvfooZQ3Axs_4core6option6OptionNtNtB7_5token3MutENtB5_5Parse5parseB7_, symObjAddr: 0xFF84, symBinAddr: 0x4A304, symSize: 0x128 }
  - { offset: 0xC502F, size: 0x8, addend: 0x0, symName: __RNvXsb_NtCs6IAuOt8vWmF_3syn5parseINtNtCsfvfooZQ3Axs_4core6option6OptionNtNtB7_5token3RefENtB5_5Parse5parseB7_, symObjAddr: 0x100AC, symBinAddr: 0x4A42C, symSize: 0x128 }
  - { offset: 0xC5084, size: 0x8, addend: 0x0, symName: __RNvXsb_NtCs6IAuOt8vWmF_3syn5parseINtNtCsfvfooZQ3Axs_4core6option6OptionNtNtB7_5token4AutoENtB5_5Parse5parseB7_, symObjAddr: 0x101D4, symBinAddr: 0x4A554, symSize: 0x128 }
  - { offset: 0xC50D9, size: 0x8, addend: 0x0, symName: __RNvXsb_NtCs6IAuOt8vWmF_3syn5parseINtNtCsfvfooZQ3Axs_4core6option6OptionNtNtB7_5token4MoveENtB5_5Parse5parseB7_, symObjAddr: 0x102FC, symBinAddr: 0x4A67C, symSize: 0x128 }
  - { offset: 0xC512E, size: 0x8, addend: 0x0, symName: __RNvXsb_NtCs6IAuOt8vWmF_3syn5parseINtNtCsfvfooZQ3Axs_4core6option6OptionNtNtB7_5token4PlusENtB5_5Parse5parseB7_, symObjAddr: 0x10424, symBinAddr: 0x4A7A4, symSize: 0x11C }
  - { offset: 0xC5183, size: 0x8, addend: 0x0, symName: __RNvXsb_NtCs6IAuOt8vWmF_3syn5parseINtNtCsfvfooZQ3Axs_4core6option6OptionNtNtB7_5token4SemiENtB5_5Parse5parseB7_, symObjAddr: 0x10540, symBinAddr: 0x4A8C0, symSize: 0x11C }
  - { offset: 0xC51D8, size: 0x8, addend: 0x0, symName: __RNvXsb_NtCs6IAuOt8vWmF_3syn5parseINtNtCsfvfooZQ3Axs_4core6option6OptionNtNtB7_5token4StarENtB5_5Parse5parseB7_, symObjAddr: 0x1065C, symBinAddr: 0x4A9DC, symSize: 0x11C }
  - { offset: 0xC522D, size: 0x8, addend: 0x0, symName: __RNvXsb_NtCs6IAuOt8vWmF_3syn5parseINtNtCsfvfooZQ3Axs_4core6option6OptionNtNtB7_5token5AsyncENtB5_5Parse5parseB7_, symObjAddr: 0x10778, symBinAddr: 0x4AAF8, symSize: 0x128 }
  - { offset: 0xC5282, size: 0x8, addend: 0x0, symName: __RNvXsb_NtCs6IAuOt8vWmF_3syn5parseINtNtCsfvfooZQ3Axs_4core6option6OptionNtNtB7_5token5AwaitENtB5_5Parse5parseB7_, symObjAddr: 0x108A0, symBinAddr: 0x4AC20, symSize: 0x128 }
  - { offset: 0xC52D7, size: 0x8, addend: 0x0, symName: __RNvXsb_NtCs6IAuOt8vWmF_3syn5parseINtNtCsfvfooZQ3Axs_4core6option6OptionNtNtB7_5token5ColonENtB5_5Parse5parseB7_, symObjAddr: 0x109C8, symBinAddr: 0x4AD48, symSize: 0x11C }
  - { offset: 0xC532C, size: 0x8, addend: 0x0, symName: __RNvXsb_NtCs6IAuOt8vWmF_3syn5parseINtNtCsfvfooZQ3Axs_4core6option6OptionNtNtB7_5token5CommaENtB5_5Parse5parseB7_, symObjAddr: 0x10AE4, symBinAddr: 0x4AE64, symSize: 0x11C }
  - { offset: 0xC5381, size: 0x8, addend: 0x0, symName: __RNvXsb_NtCs6IAuOt8vWmF_3syn5parseINtNtCsfvfooZQ3Axs_4core6option6OptionNtNtB7_5token5ConstENtB5_5Parse5parseB7_, symObjAddr: 0x10C00, symBinAddr: 0x4AF80, symSize: 0x128 }
  - { offset: 0xC53D6, size: 0x8, addend: 0x0, symName: __RNvXsb_NtCs6IAuOt8vWmF_3syn5parseINtNtCsfvfooZQ3Axs_4core6option6OptionNtNtB7_5token6StaticENtB5_5Parse5parseB7_, symObjAddr: 0x10D28, symBinAddr: 0x4B0A8, symSize: 0x128 }
  - { offset: 0xC542B, size: 0x8, addend: 0x0, symName: __RNvXsb_NtCs6IAuOt8vWmF_3syn5parseINtNtCsfvfooZQ3Axs_4core6option6OptionNtNtB7_5token6UnsafeENtB5_5Parse5parseB7_, symObjAddr: 0x10E50, symBinAddr: 0x4B1D0, symSize: 0x128 }
  - { offset: 0xC5480, size: 0x8, addend: 0x0, symName: __RNvXsb_NtCs6IAuOt8vWmF_3syn5parseINtNtCsfvfooZQ3Axs_4core6option6OptionNtNtB7_5token7DefaultENtB5_5Parse5parseB7_, symObjAddr: 0x10F78, symBinAddr: 0x4B2F8, symSize: 0x128 }
  - { offset: 0xC54D5, size: 0x8, addend: 0x0, symName: __RNvXsb_NtCs6IAuOt8vWmF_3syn5parseINtNtCsfvfooZQ3Axs_4core6option6OptionNtNtB7_5token7PathSepENtB5_5Parse5parseB7_, symObjAddr: 0x110A0, symBinAddr: 0x4B420, symSize: 0x130 }
  - { offset: 0xC552A, size: 0x8, addend: 0x0, symName: __RNvXsb_NtCs6IAuOt8vWmF_3syn5parseINtNtCsfvfooZQ3Axs_4core6option6OptionNtNtB7_5token8QuestionENtB5_5Parse5parseB7_, symObjAddr: 0x111D0, symBinAddr: 0x4B550, symSize: 0x11C }
  - { offset: 0xC557F, size: 0x8, addend: 0x0, symName: __RNvXsb_NtCs6IAuOt8vWmF_3syn5parseINtNtCsfvfooZQ3Axs_4core6option6OptionNtNtB7_5token9DotDotDotENtB5_5Parse5parseB7_, symObjAddr: 0x112EC, symBinAddr: 0x4B66C, symSize: 0x130 }
  - { offset: 0xC55D4, size: 0x8, addend: 0x0, symName: __RNvXsb_NtCs6IAuOt8vWmF_3syn5parseINtNtCsfvfooZQ3Axs_4core6option6OptionNtNtB7_8lifetime8LifetimeENtB5_5Parse5parseB7_, symObjAddr: 0x1141C, symBinAddr: 0x4B79C, symSize: 0x140 }
  - { offset: 0xC6FF4, size: 0x8, addend: 0x0, symName: __RNvXsF_NtCse1nGBsou5OW_5alloc6stringNtNtCsfvfooZQ3Axs_4core3fmt9ArgumentsNtB5_12SpecToString14spec_to_stringCs6IAuOt8vWmF_3syn, symObjAddr: 0x94B0, symBinAddr: 0x48DA0, symSize: 0x48 }
  - { offset: 0xC7028, size: 0x8, addend: 0x0, symName: __RNvXsw_NtCse1nGBsou5OW_5alloc6stringNtNtCsfvfooZQ3Axs_4core3fmt9ArgumentsNtB5_8ToString9to_stringCs6IAuOt8vWmF_3syn, symObjAddr: 0xECAC, symBinAddr: 0x494F0, symSize: 0x24 }
  - { offset: 0xC7066, size: 0x8, addend: 0x0, symName: __RNvNtCse1nGBsou5OW_5alloc3fmt6formatCs6IAuOt8vWmF_3syn, symObjAddr: 0x5E3C, symBinAddr: 0x478D0, symSize: 0xD4 }
  - { offset: 0xC777C, size: 0x8, addend: 0x0, symName: __RINvMNtCsfvfooZQ3Axs_4core6optionINtB3_6OptionINtNtCs6IAuOt8vWmF_3syn10punctuated4PairNtNtBN_4path11PathSegmentNtNtBN_5token7PathSepEE7or_elseNCNvXsj_BL_INtBL_9IntoPairsB1m_B1L_ENtNtNtNtB5_4iter6traits8iterator8Iterator4nexts_0EBN_, symObjAddr: 0x0, symBinAddr: 0x42BE4, symSize: 0xD8 }
  - { offset: 0xC77EC, size: 0x8, addend: 0x0, symName: __RINvMNtCsfvfooZQ3Axs_4core6optionINtB3_6OptionINtNtCs6IAuOt8vWmF_3syn10punctuated4PairRNtNtBN_2ty4TypeRNtNtBN_5token5CommaEE7or_elseNCNvXsc_BL_INtBL_5PairsB1n_B1D_ENtNtNtNtB5_4iter6traits8iterator8Iterator4nexts_0EBN_, symObjAddr: 0xD8, symBinAddr: 0x42CBC, symSize: 0xB4 }
  - { offset: 0xC7869, size: 0x8, addend: 0x0, symName: __RINvMNtCsfvfooZQ3Axs_4core6optionINtB3_6OptionINtNtCs6IAuOt8vWmF_3syn10punctuated4PairRNtNtBN_2ty9BareFnArgRNtNtBN_5token5CommaEE7or_elseNCNvXsc_BL_INtBL_5PairsB1n_B1I_ENtNtNtNtB5_4iter6traits8iterator8Iterator4nexts_0EBN_, symObjAddr: 0x18C, symBinAddr: 0x42D70, symSize: 0xB4 }
  - { offset: 0xC78E6, size: 0x8, addend: 0x0, symName: __RINvMNtCsfvfooZQ3Axs_4core6optionINtB3_6OptionINtNtCs6IAuOt8vWmF_3syn10punctuated4PairRNtNtBN_3pat3PatRNtNtBN_5token2OrEE7or_elseNCNvXsc_BL_INtBL_5PairsB1n_B1D_ENtNtNtNtB5_4iter6traits8iterator8Iterator4nexts_0EBN_, symObjAddr: 0x240, symBinAddr: 0x42E24, symSize: 0xB4 }
  - { offset: 0xC7949, size: 0x8, addend: 0x0, symName: __RINvMNtCsfvfooZQ3Axs_4core6optionINtB3_6OptionINtNtCs6IAuOt8vWmF_3syn10punctuated4PairRNtNtBN_3pat3PatRNtNtBN_5token5CommaEE7or_elseNCNvXsc_BL_INtBL_5PairsB1n_B1D_ENtNtNtNtB5_4iter6traits8iterator8Iterator4nexts_0EBN_, symObjAddr: 0x2F4, symBinAddr: 0x42ED8, symSize: 0xB4 }
  - { offset: 0xC79C6, size: 0x8, addend: 0x0, symName: __RINvMNtCsfvfooZQ3Axs_4core6optionINtB3_6OptionINtNtCs6IAuOt8vWmF_3syn10punctuated4PairRNtNtBN_3pat8FieldPatRNtNtBN_5token5CommaEE7or_elseNCNvXsc_BL_INtBL_5PairsB1n_B1I_ENtNtNtNtB5_4iter6traits8iterator8Iterator4nexts_0EBN_, symObjAddr: 0x3A8, symBinAddr: 0x42F8C, symSize: 0xB4 }
  - { offset: 0xC7A43, size: 0x8, addend: 0x0, symName: __RINvMNtCsfvfooZQ3Axs_4core6optionINtB3_6OptionINtNtCs6IAuOt8vWmF_3syn10punctuated4PairRNtNtBN_4data5FieldRNtNtBN_5token5CommaEE7or_elseNCNvXsc_BL_INtBL_5PairsB1n_B1G_ENtNtNtNtB5_4iter6traits8iterator8Iterator4nexts_0EBN_, symObjAddr: 0x45C, symBinAddr: 0x43040, symSize: 0xB4 }
  - { offset: 0xC7AC0, size: 0x8, addend: 0x0, symName: __RINvMNtCsfvfooZQ3Axs_4core6optionINtB3_6OptionINtNtCs6IAuOt8vWmF_3syn10punctuated4PairRNtNtBN_4data7VariantRNtNtBN_5token5CommaEE7or_elseNCNvXsc_BL_INtBL_5PairsB1n_B1I_ENtNtNtNtB5_4iter6traits8iterator8Iterator4nexts_0EBN_, symObjAddr: 0x510, symBinAddr: 0x430F4, symSize: 0xB4 }
  - { offset: 0xC7B3D, size: 0x8, addend: 0x0, symName: __RINvMNtCsfvfooZQ3Axs_4core6optionINtB3_6OptionINtNtCs6IAuOt8vWmF_3syn10punctuated4PairRNtNtBN_4expr10FieldValueRNtNtBN_5token5CommaEE7or_elseNCNvXsc_BL_INtBL_5PairsB1n_B1M_ENtNtNtNtB5_4iter6traits8iterator8Iterator4nexts_0EBN_, symObjAddr: 0x5C4, symBinAddr: 0x431A8, symSize: 0xB4 }
  - { offset: 0xC7BAD, size: 0x8, addend: 0x0, symName: __RINvMNtCsfvfooZQ3Axs_4core6optionINtB3_6OptionINtNtCs6IAuOt8vWmF_3syn10punctuated4PairRNtNtBN_4expr4ExprRNtNtBN_5token5CommaEE7or_elseNCNvXsc_BL_INtBL_5PairsB1n_B1F_ENtNtNtNtB5_4iter6traits8iterator8Iterator4nexts_0EBN_, symObjAddr: 0x678, symBinAddr: 0x4325C, symSize: 0xB4 }
  - { offset: 0xC7C2A, size: 0x8, addend: 0x0, symName: __RINvMNtCsfvfooZQ3Axs_4core6optionINtB3_6OptionINtNtCs6IAuOt8vWmF_3syn10punctuated4PairRNtNtBN_4item5FnArgRNtNtBN_5token5CommaEE7or_elseNCNvXsc_BL_INtBL_5PairsB1n_B1G_ENtNtNtNtB5_4iter6traits8iterator8Iterator4nexts_0EBN_, symObjAddr: 0x72C, symBinAddr: 0x43310, symSize: 0xB4 }
  - { offset: 0xC7CA7, size: 0x8, addend: 0x0, symName: __RINvMNtCsfvfooZQ3Axs_4core6optionINtB3_6OptionINtNtCs6IAuOt8vWmF_3syn10punctuated4PairRNtNtBN_4item7UseTreeRNtNtBN_5token5CommaEE7or_elseNCNvXsc_BL_INtBL_5PairsB1n_B1I_ENtNtNtNtB5_4iter6traits8iterator8Iterator4nexts_0EBN_, symObjAddr: 0x7E0, symBinAddr: 0x433C4, symSize: 0xB4 }
  - { offset: 0xC7D24, size: 0x8, addend: 0x0, symName: __RINvMNtCsfvfooZQ3Axs_4core6optionINtB3_6OptionINtNtCs6IAuOt8vWmF_3syn10punctuated4PairRNtNtBN_4path11PathSegmentRNtNtBN_5token7PathSepEE7or_elseNCNvXsc_BL_INtBL_5PairsB1n_B1N_ENtNtNtNtB5_4iter6traits8iterator8Iterator4nexts_0EBN_, symObjAddr: 0x894, symBinAddr: 0x43478, symSize: 0xB4 }
  - { offset: 0xC7DA1, size: 0x8, addend: 0x0, symName: __RINvMNtCsfvfooZQ3Axs_4core6optionINtB3_6OptionINtNtCs6IAuOt8vWmF_3syn10punctuated4PairRNtNtBN_4path15GenericArgumentRNtNtBN_5token5CommaEE7or_elseNCNvXsc_BL_INtBL_5PairsB1n_B1R_ENtNtNtNtB5_4iter6traits8iterator8Iterator4nexts_0EBN_, symObjAddr: 0x948, symBinAddr: 0x4352C, symSize: 0xB4 }
  - { offset: 0xC7E1E, size: 0x8, addend: 0x0, symName: __RINvMNtCsfvfooZQ3Axs_4core6optionINtB3_6OptionINtNtCs6IAuOt8vWmF_3syn10punctuated4PairRNtNtBN_8generics12GenericParamRNtNtBN_5token5CommaEE7or_elseNCNvXsc_BL_INtBL_5PairsB1n_B1S_ENtNtNtNtB5_4iter6traits8iterator8Iterator4nexts_0EBN_, symObjAddr: 0x9FC, symBinAddr: 0x435E0, symSize: 0xB4 }
  - { offset: 0xC7E9B, size: 0x8, addend: 0x0, symName: __RINvMNtCsfvfooZQ3Axs_4core6optionINtB3_6OptionINtNtCs6IAuOt8vWmF_3syn10punctuated4PairRNtNtBN_8generics13CapturedParamRNtNtBN_5token5CommaEE7or_elseNCNvXsc_BL_INtBL_5PairsB1n_B1T_ENtNtNtNtB5_4iter6traits8iterator8Iterator4nexts_0EBN_, symObjAddr: 0xAB0, symBinAddr: 0x43694, symSize: 0xB4 }
  - { offset: 0xC7F25, size: 0x8, addend: 0x0, symName: __RINvMNtCsfvfooZQ3Axs_4core6optionINtB3_6OptionINtNtCs6IAuOt8vWmF_3syn10punctuated4PairRNtNtBN_8generics14TypeParamBoundRNtNtBN_5token4PlusEE7or_elseNCNvXsc_BL_INtBL_5PairsB1n_B1U_ENtNtNtNtB5_4iter6traits8iterator8Iterator4nexts_0EBN_, symObjAddr: 0xB64, symBinAddr: 0x43748, symSize: 0xB4 }
  - { offset: 0xC7FA2, size: 0x8, addend: 0x0, symName: __RINvMNtCsfvfooZQ3Axs_4core6optionINtB3_6OptionINtNtCs6IAuOt8vWmF_3syn10punctuated4PairRNtNtBN_8generics14WherePredicateRNtNtBN_5token5CommaEE7or_elseNCNvXsc_BL_INtBL_5PairsB1n_B1U_ENtNtNtNtB5_4iter6traits8iterator8Iterator4nexts_0EBN_, symObjAddr: 0xC18, symBinAddr: 0x437FC, symSize: 0xB4 }
  - { offset: 0xC8012, size: 0x8, addend: 0x0, symName: __RINvMNtCsfvfooZQ3Axs_4core6optionINtB3_6OptionINtNtCs6IAuOt8vWmF_3syn10punctuated4PairRNtNtBN_8lifetime8LifetimeRNtNtBN_5token4PlusEE7or_elseNCNvXsc_BL_INtBL_5PairsB1n_B1N_ENtNtNtNtB5_4iter6traits8iterator8Iterator4nexts_0EBN_, symObjAddr: 0xCCC, symBinAddr: 0x438B0, symSize: 0xB4 }
  - { offset: 0xC8075, size: 0x8, addend: 0x0, symName: __RINvMNtCsfvfooZQ3Axs_4core6optionINtB3_6OptionINtNtCse1nGBsou5OW_5alloc5boxed3BoxNtNtCs6IAuOt8vWmF_3syn4path11PathSegmentEE3mapB1h_NCNvMNtB1l_10punctuatedINtB2a_10PunctuatedB1h_NtNtB1l_5token7PathSepE10into_pairs0EB1l_, symObjAddr: 0xE70, symBinAddr: 0x43964, symSize: 0x74 }
  - { offset: 0xC80E0, size: 0x8, addend: 0x0, symName: __RINvMNtCsfvfooZQ3Axs_4core6optionINtB3_6OptionINtNtCse1nGBsou5OW_5alloc5boxed3BoxNtNtCs6IAuOt8vWmF_3syn4path11PathSegmentEE3mapINtNtB1l_10punctuated4PairB1h_NtNtB1l_5token7PathSepENCNvMB24_INtB24_10PunctuatedB1h_B2v_E3pop0EB1l_, symObjAddr: 0xEE4, symBinAddr: 0x439D8, symSize: 0x70 }
  - { offset: 0xC814B, size: 0x8, addend: 0x0, symName: __RINvMNtCsfvfooZQ3Axs_4core6optionINtB3_6OptionINtNtCse1nGBsou5OW_5alloc5boxed3BoxNtNtCs6IAuOt8vWmF_3syn8generics14TypeParamBoundEE3mapB1h_NCNvXs8_NtB1l_10punctuatedINtB2k_10PunctuatedB1h_NtNtB1l_5token4PlusENtNtNtNtB5_4iter6traits7collect12IntoIterator9into_iters_0EB1l_, symObjAddr: 0xF54, symBinAddr: 0x43A48, symSize: 0x70 }
  - { offset: 0xC81C8, size: 0x8, addend: 0x0, symName: __RINvMNtCsfvfooZQ3Axs_4core6optionINtB3_6OptionNtCs3cP53eQoTwO_11proc_macro29TokenTreeE11map_or_elseNtBK_4SpanNvMse_BK_B1z_9call_siteNCNvNvMNtCs6IAuOt8vWmF_3syn5errorNtB2d_5Error11new_spanned11new_spanned0EB2f_, symObjAddr: 0xFC4, symBinAddr: 0x43AB8, symSize: 0xE4 }
  - { offset: 0xC8244, size: 0x8, addend: 0x0, symName: __RINvMNtCsfvfooZQ3Axs_4core6optionINtB3_6OptionNtCs3cP53eQoTwO_11proc_macro29TokenTreeE6map_orNtBK_4SpanNCNvNvMNtCs6IAuOt8vWmF_3syn5errorNtB1K_5Error11new_spanned11new_spanneds_0EB1M_, symObjAddr: 0x10A8, symBinAddr: 0x43B9C, symSize: 0xC8 }
  - { offset: 0xC82CF, size: 0x8, addend: 0x0, symName: __RINvMNtCsfvfooZQ3Axs_4core6optionINtB3_6OptionNtNtCs3cP53eQoTwO_11proc_macro28fallback4SpanE3mapNtNtBM_3imp4SpanNcNtB1w_8Fallback0ECs6IAuOt8vWmF_3syn, symObjAddr: 0x1170, symBinAddr: 0x43C64, symSize: 0x4C }
  - { offset: 0xC8352, size: 0x8, addend: 0x0, symName: __RINvMNtCsfvfooZQ3Axs_4core6optionINtB3_6OptionNtNtCs6IAuOt8vWmF_3syn4path11PathSegmentE3mapINtNtBM_10punctuated4PairBI_NtNtBM_5token7PathSepENcNtB1r_3End0EBM_, symObjAddr: 0x11BC, symBinAddr: 0x43CB0, symSize: 0xAC }
  - { offset: 0xC83D6, size: 0x8, addend: 0x0, symName: __RINvMNtCsfvfooZQ3Axs_4core6optionINtB3_6OptionNtNtCs6IAuOt8vWmF_3syn5token3MutE6map_orNtNtBM_4item16StaticMutabilityNcNtB1m_3Mut0EBM_, symObjAddr: 0x1268, symBinAddr: 0x43D5C, symSize: 0xC4 }
  - { offset: 0xC8448, size: 0x8, addend: 0x0, symName: __RINvMNtCsfvfooZQ3Axs_4core6optionINtB3_6OptionNtNtCs6IAuOt8vWmF_3syn5token5BraceE3mapNtNtBM_4stmt5BlockNCNvXsp_NtNtBM_4item7parsingNtB1N_11TraitItemFnNtNtBM_5parse5Parse5parse0EBM_, symObjAddr: 0x132C, symBinAddr: 0x43E20, symSize: 0xAC }
  - { offset: 0xC84EE, size: 0x8, addend: 0x0, symName: __RINvMNtCsfvfooZQ3Axs_4core6optionINtB3_6OptionNtNtCs6IAuOt8vWmF_3syn6buffer6CursorE6map_orbFG_IBI_L0_EEbEBM_, symObjAddr: 0x13D8, symBinAddr: 0x43ECC, symSize: 0xBC }
  - { offset: 0xC8579, size: 0x8, addend: 0x0, symName: __RINvMNtCsfvfooZQ3Axs_4core6optionINtB3_6OptionNtNtCs6IAuOt8vWmF_3syn6buffer6CursorE8and_thenBI_NvMs_BK_BI_4skipEBM_, symObjAddr: 0x1494, symBinAddr: 0x43F88, symSize: 0x58 }
  - { offset: 0xC8642, size: 0x8, addend: 0x0, symName: __RINvMNtCsfvfooZQ3Axs_4core6optionINtB3_6OptionNtNtNtCs6IAuOt8vWmF_3syn3pat7parsing13PatRangeBoundE3mapINtNtCse1nGBsou5OW_5alloc5boxed3BoxNtNtBO_4expr4ExprENvMs0_BK_BI_9into_exprEBO_, symObjAddr: 0x1624, symBinAddr: 0x43FE0, symSize: 0x8C }
  - { offset: 0xC8712, size: 0x8, addend: 0x0, symName: __RINvMNtCsfvfooZQ3Axs_4core6optionINtB3_6OptionQINtNtCse1nGBsou5OW_5alloc5boxed3BoxNtNtCs6IAuOt8vWmF_3syn4path11PathSegmentEE3mapQB1i_NvYBJ_INtNtB5_7convert5AsMutB1i_E6as_mutEB1m_, symObjAddr: 0x1700, symBinAddr: 0x4406C, symSize: 0x50 }
  - { offset: 0xC87AF, size: 0x8, addend: 0x0, symName: __RINvMNtCsfvfooZQ3Axs_4core6optionINtB3_6OptionQINtNtCse1nGBsou5OW_5alloc5boxed3BoxNtNtCs6IAuOt8vWmF_3syn8generics12GenericParamEE3mapQB1i_NvYBJ_INtNtB5_7convert5AsMutB1i_E6as_mutEB1m_, symObjAddr: 0x1750, symBinAddr: 0x440BC, symSize: 0x50 }
  - { offset: 0xC8868, size: 0x8, addend: 0x0, symName: __RINvMNtCsfvfooZQ3Axs_4core6optionINtB3_6OptionQNtNtCs6IAuOt8vWmF_3syn4path11PathSegmentE7or_elseNCNvXsF_NtBN_10punctuatedINtB1E_14PrivateIterMutBJ_NtNtBN_5token7PathSepENtNtNtNtB5_4iter6traits8iterator8Iterator4nexts_0EBN_, symObjAddr: 0x18F0, symBinAddr: 0x4410C, symSize: 0xA8 }
  - { offset: 0xC88FE, size: 0x8, addend: 0x0, symName: __RINvMNtCsfvfooZQ3Axs_4core6optionINtB3_6OptionQNtNtCs6IAuOt8vWmF_3syn4path11PathSegmentE7or_elseNCNvXsG_NtBN_10punctuatedINtB1E_14PrivateIterMutBJ_NtNtBN_5token7PathSepENtNtNtNtB5_4iter6traits12double_ended19DoubleEndedIterator9next_back0EBN_, symObjAddr: 0x1998, symBinAddr: 0x441B4, symSize: 0xA8 }
  - { offset: 0xC89A1, size: 0x8, addend: 0x0, symName: __RINvMNtCsfvfooZQ3Axs_4core6optionINtB3_6OptionQTNtNtCs6IAuOt8vWmF_3syn4path11PathSegmentNtNtBO_5token7PathSepEE3mapQBK_NCNCNvXsG_NtBO_10punctuatedINtB23_14PrivateIterMutBK_B1o_ENtNtNtNtB5_4iter6traits12double_ended19DoubleEndedIterator9next_back00EBO_, symObjAddr: 0x1C30, symBinAddr: 0x4425C, symSize: 0x50 }
  - { offset: 0xC8A0C, size: 0x8, addend: 0x0, symName: __RINvMNtCsfvfooZQ3Axs_4core6optionINtB3_6OptionQTNtNtCs6IAuOt8vWmF_3syn4path11PathSegmentNtNtBO_5token7PathSepEE3mapQBK_NCNvXsF_NtBO_10punctuatedINtB21_14PrivateIterMutBK_B1o_ENtNtNtNtB5_4iter6traits8iterator8Iterator4next0EBO_, symObjAddr: 0x1C80, symBinAddr: 0x442AC, symSize: 0x50 }
  - { offset: 0xC8A9C, size: 0x8, addend: 0x0, symName: __RINvMNtCsfvfooZQ3Axs_4core6optionINtB3_6OptionRINtNtCse1nGBsou5OW_5alloc5boxed3BoxNtNtCs6IAuOt8vWmF_3syn2ty4TypeEE3mapRB1i_NvYBJ_INtNtB5_7convert5AsRefB1i_E6as_refEB1m_, symObjAddr: 0x1D70, symBinAddr: 0x442FC, symSize: 0x50 }
  - { offset: 0xC8B2C, size: 0x8, addend: 0x0, symName: __RINvMNtCsfvfooZQ3Axs_4core6optionINtB3_6OptionRINtNtCse1nGBsou5OW_5alloc5boxed3BoxNtNtCs6IAuOt8vWmF_3syn2ty9BareFnArgEE3mapRB1i_NvYBJ_INtNtB5_7convert5AsRefB1i_E6as_refEB1m_, symObjAddr: 0x1DC0, symBinAddr: 0x4434C, symSize: 0x50 }
  - { offset: 0xC8BBC, size: 0x8, addend: 0x0, symName: __RINvMNtCsfvfooZQ3Axs_4core6optionINtB3_6OptionRINtNtCse1nGBsou5OW_5alloc5boxed3BoxNtNtCs6IAuOt8vWmF_3syn3pat3PatEE3mapRB1i_NvYBJ_INtNtB5_7convert5AsRefB1i_E6as_refEB1m_, symObjAddr: 0x1E10, symBinAddr: 0x4439C, symSize: 0x50 }
  - { offset: 0xC8C4C, size: 0x8, addend: 0x0, symName: __RINvMNtCsfvfooZQ3Axs_4core6optionINtB3_6OptionRINtNtCse1nGBsou5OW_5alloc5boxed3BoxNtNtCs6IAuOt8vWmF_3syn3pat8FieldPatEE3mapRB1i_NvYBJ_INtNtB5_7convert5AsRefB1i_E6as_refEB1m_, symObjAddr: 0x1E60, symBinAddr: 0x443EC, symSize: 0x50 }
  - { offset: 0xC8CDC, size: 0x8, addend: 0x0, symName: __RINvMNtCsfvfooZQ3Axs_4core6optionINtB3_6OptionRINtNtCse1nGBsou5OW_5alloc5boxed3BoxNtNtCs6IAuOt8vWmF_3syn4data5FieldEE3mapRB1i_NvYBJ_INtNtB5_7convert5AsRefB1i_E6as_refEB1m_, symObjAddr: 0x1EB0, symBinAddr: 0x4443C, symSize: 0x50 }
  - { offset: 0xC8D6C, size: 0x8, addend: 0x0, symName: __RINvMNtCsfvfooZQ3Axs_4core6optionINtB3_6OptionRINtNtCse1nGBsou5OW_5alloc5boxed3BoxNtNtCs6IAuOt8vWmF_3syn4data7VariantEE3mapRB1i_NvYBJ_INtNtB5_7convert5AsRefB1i_E6as_refEB1m_, symObjAddr: 0x1F00, symBinAddr: 0x4448C, symSize: 0x50 }
  - { offset: 0xC8DFC, size: 0x8, addend: 0x0, symName: __RINvMNtCsfvfooZQ3Axs_4core6optionINtB3_6OptionRINtNtCse1nGBsou5OW_5alloc5boxed3BoxNtNtCs6IAuOt8vWmF_3syn4expr10FieldValueEE3mapRB1i_NvYBJ_INtNtB5_7convert5AsRefB1i_E6as_refEB1m_, symObjAddr: 0x1F50, symBinAddr: 0x444DC, symSize: 0x50 }
  - { offset: 0xC8E7F, size: 0x8, addend: 0x0, symName: __RINvMNtCsfvfooZQ3Axs_4core6optionINtB3_6OptionRINtNtCse1nGBsou5OW_5alloc5boxed3BoxNtNtCs6IAuOt8vWmF_3syn4expr4ExprEE3mapRB1i_NvYBJ_INtNtB5_7convert5AsRefB1i_E6as_refEB1m_, symObjAddr: 0x1FA0, symBinAddr: 0x4452C, symSize: 0x50 }
  - { offset: 0xC8F0F, size: 0x8, addend: 0x0, symName: __RINvMNtCsfvfooZQ3Axs_4core6optionINtB3_6OptionRINtNtCse1nGBsou5OW_5alloc5boxed3BoxNtNtCs6IAuOt8vWmF_3syn4item5FnArgEE3mapRB1i_NvYBJ_INtNtB5_7convert5AsRefB1i_E6as_refEB1m_, symObjAddr: 0x1FF0, symBinAddr: 0x4457C, symSize: 0x50 }
  - { offset: 0xC8F9F, size: 0x8, addend: 0x0, symName: __RINvMNtCsfvfooZQ3Axs_4core6optionINtB3_6OptionRINtNtCse1nGBsou5OW_5alloc5boxed3BoxNtNtCs6IAuOt8vWmF_3syn4item7UseTreeEE3mapRB1i_NvYBJ_INtNtB5_7convert5AsRefB1i_E6as_refEB1m_, symObjAddr: 0x2040, symBinAddr: 0x445CC, symSize: 0x50 }
  - { offset: 0xC902F, size: 0x8, addend: 0x0, symName: __RINvMNtCsfvfooZQ3Axs_4core6optionINtB3_6OptionRINtNtCse1nGBsou5OW_5alloc5boxed3BoxNtNtCs6IAuOt8vWmF_3syn4path11PathSegmentEE3mapRB1i_NvYBJ_INtNtB5_7convert5AsRefB1i_E6as_refEB1m_, symObjAddr: 0x2090, symBinAddr: 0x4461C, symSize: 0x50 }
  - { offset: 0xC90BF, size: 0x8, addend: 0x0, symName: __RINvMNtCsfvfooZQ3Axs_4core6optionINtB3_6OptionRINtNtCse1nGBsou5OW_5alloc5boxed3BoxNtNtCs6IAuOt8vWmF_3syn4path15GenericArgumentEE3mapRB1i_NvYBJ_INtNtB5_7convert5AsRefB1i_E6as_refEB1m_, symObjAddr: 0x20E0, symBinAddr: 0x4466C, symSize: 0x50 }
  - { offset: 0xC914F, size: 0x8, addend: 0x0, symName: __RINvMNtCsfvfooZQ3Axs_4core6optionINtB3_6OptionRINtNtCse1nGBsou5OW_5alloc5boxed3BoxNtNtCs6IAuOt8vWmF_3syn8generics12GenericParamEE3mapRB1i_NvYBJ_INtNtB5_7convert5AsRefB1i_E6as_refEB1m_, symObjAddr: 0x2130, symBinAddr: 0x446BC, symSize: 0x50 }
  - { offset: 0xC91DF, size: 0x8, addend: 0x0, symName: __RINvMNtCsfvfooZQ3Axs_4core6optionINtB3_6OptionRINtNtCse1nGBsou5OW_5alloc5boxed3BoxNtNtCs6IAuOt8vWmF_3syn8generics13CapturedParamEE3mapRB1i_NvYBJ_INtNtB5_7convert5AsRefB1i_E6as_refEB1m_, symObjAddr: 0x2180, symBinAddr: 0x4470C, symSize: 0x50 }
  - { offset: 0xC926F, size: 0x8, addend: 0x0, symName: __RINvMNtCsfvfooZQ3Axs_4core6optionINtB3_6OptionRINtNtCse1nGBsou5OW_5alloc5boxed3BoxNtNtCs6IAuOt8vWmF_3syn8generics14TypeParamBoundEE3mapRB1i_NvYBJ_INtNtB5_7convert5AsRefB1i_E6as_refEB1m_, symObjAddr: 0x21D0, symBinAddr: 0x4475C, symSize: 0x50 }
  - { offset: 0xC92FF, size: 0x8, addend: 0x0, symName: __RINvMNtCsfvfooZQ3Axs_4core6optionINtB3_6OptionRINtNtCse1nGBsou5OW_5alloc5boxed3BoxNtNtCs6IAuOt8vWmF_3syn8generics14WherePredicateEE3mapRB1i_NvYBJ_INtNtB5_7convert5AsRefB1i_E6as_refEB1m_, symObjAddr: 0x2220, symBinAddr: 0x447AC, symSize: 0x50 }
  - { offset: 0xC938F, size: 0x8, addend: 0x0, symName: __RINvMNtCsfvfooZQ3Axs_4core6optionINtB3_6OptionRINtNtCse1nGBsou5OW_5alloc5boxed3BoxNtNtCs6IAuOt8vWmF_3syn8lifetime8LifetimeEE3mapRB1i_NvYBJ_INtNtB5_7convert5AsRefB1i_E6as_refEB1m_, symObjAddr: 0x2270, symBinAddr: 0x447FC, symSize: 0x50 }
  - { offset: 0xC9433, size: 0x8, addend: 0x0, symName: __RINvMNtCsfvfooZQ3Axs_4core6optionINtB3_6OptionRNtNtCs6IAuOt8vWmF_3syn2ty4TypeE3mapINtNtBN_10punctuated4PairBI_RNtNtBN_5token5CommaENcNtB1i_3End0EBN_, symObjAddr: 0x233C, symBinAddr: 0x4484C, symSize: 0x68 }
  - { offset: 0xC94B6, size: 0x8, addend: 0x0, symName: __RINvMNtCsfvfooZQ3Axs_4core6optionINtB3_6OptionRNtNtCs6IAuOt8vWmF_3syn2ty9BareFnArgE3mapINtNtBN_10punctuated4PairBI_RNtNtBN_5token5CommaENcNtB1n_3End0EBN_, symObjAddr: 0x23A4, symBinAddr: 0x448B4, symSize: 0x68 }
  - { offset: 0xC9539, size: 0x8, addend: 0x0, symName: __RINvMNtCsfvfooZQ3Axs_4core6optionINtB3_6OptionRNtNtCs6IAuOt8vWmF_3syn3pat3PatE3mapINtNtBN_10punctuated4PairBI_RNtNtBN_5token2OrENcNtB1i_3End0EBN_, symObjAddr: 0x240C, symBinAddr: 0x4491C, symSize: 0x68 }
  - { offset: 0xC95BC, size: 0x8, addend: 0x0, symName: __RINvMNtCsfvfooZQ3Axs_4core6optionINtB3_6OptionRNtNtCs6IAuOt8vWmF_3syn3pat3PatE3mapINtNtBN_10punctuated4PairBI_RNtNtBN_5token5CommaENcNtB1i_3End0EBN_, symObjAddr: 0x2474, symBinAddr: 0x44984, symSize: 0x68 }
  - { offset: 0xC963F, size: 0x8, addend: 0x0, symName: __RINvMNtCsfvfooZQ3Axs_4core6optionINtB3_6OptionRNtNtCs6IAuOt8vWmF_3syn3pat8FieldPatE3mapINtNtBN_10punctuated4PairBI_RNtNtBN_5token5CommaENcNtB1n_3End0EBN_, symObjAddr: 0x24DC, symBinAddr: 0x449EC, symSize: 0x68 }
  - { offset: 0xC96C2, size: 0x8, addend: 0x0, symName: __RINvMNtCsfvfooZQ3Axs_4core6optionINtB3_6OptionRNtNtCs6IAuOt8vWmF_3syn4data5FieldE3mapINtNtBN_10punctuated4PairBI_RNtNtBN_5token5CommaENcNtB1l_3End0EBN_, symObjAddr: 0x2544, symBinAddr: 0x44A54, symSize: 0x68 }
  - { offset: 0xC975F, size: 0x8, addend: 0x0, symName: __RINvMNtCsfvfooZQ3Axs_4core6optionINtB3_6OptionRNtNtCs6IAuOt8vWmF_3syn4data7VariantE3mapINtNtBN_10punctuated4PairBI_RNtNtBN_5token5CommaENcNtB1n_3End0EBN_, symObjAddr: 0x26FC, symBinAddr: 0x44ABC, symSize: 0x68 }
  - { offset: 0xC97E2, size: 0x8, addend: 0x0, symName: __RINvMNtCsfvfooZQ3Axs_4core6optionINtB3_6OptionRNtNtCs6IAuOt8vWmF_3syn4expr10FieldValueE3mapINtNtBN_10punctuated4PairBI_RNtNtBN_5token5CommaENcNtB1r_3End0EBN_, symObjAddr: 0x2764, symBinAddr: 0x44B24, symSize: 0x68 }
  - { offset: 0xC9865, size: 0x8, addend: 0x0, symName: __RINvMNtCsfvfooZQ3Axs_4core6optionINtB3_6OptionRNtNtCs6IAuOt8vWmF_3syn4expr4ExprE3mapINtNtBN_10punctuated4PairBI_RNtNtBN_5token5CommaENcNtB1k_3End0EBN_, symObjAddr: 0x27CC, symBinAddr: 0x44B8C, symSize: 0x68 }
  - { offset: 0xC98E8, size: 0x8, addend: 0x0, symName: __RINvMNtCsfvfooZQ3Axs_4core6optionINtB3_6OptionRNtNtCs6IAuOt8vWmF_3syn4item5FnArgE3mapINtNtBN_10punctuated4PairBI_RNtNtBN_5token5CommaENcNtB1l_3End0EBN_, symObjAddr: 0x2834, symBinAddr: 0x44BF4, symSize: 0x68 }
  - { offset: 0xC9992, size: 0x8, addend: 0x0, symName: __RINvMNtCsfvfooZQ3Axs_4core6optionINtB3_6OptionRNtNtCs6IAuOt8vWmF_3syn4item7UseTreeE3mapINtNtBN_10punctuated4PairBI_RNtNtBN_5token5CommaENcNtB1n_3End0EBN_, symObjAddr: 0x29EC, symBinAddr: 0x44C5C, symSize: 0x68 }
  - { offset: 0xC9A15, size: 0x8, addend: 0x0, symName: __RINvMNtCsfvfooZQ3Axs_4core6optionINtB3_6OptionRNtNtCs6IAuOt8vWmF_3syn4path11PathSegmentE3mapINtNtBN_10punctuated4PairBI_RNtNtBN_5token7PathSepENcNtB1s_3End0EBN_, symObjAddr: 0x2A54, symBinAddr: 0x44CC4, symSize: 0x68 }
  - { offset: 0xC9A80, size: 0x8, addend: 0x0, symName: __RINvMNtCsfvfooZQ3Axs_4core6optionINtB3_6OptionRNtNtCs6IAuOt8vWmF_3syn4path11PathSegmentE7or_elseNCNvXsw_NtBN_10punctuatedINtB1E_11PrivateIterBJ_NtNtBN_5token7PathSepENtNtNtNtB5_4iter6traits8iterator8Iterator4nexts_0EBN_, symObjAddr: 0x2ABC, symBinAddr: 0x44D2C, symSize: 0xA8 }
  - { offset: 0xC9AFC, size: 0x8, addend: 0x0, symName: __RINvMNtCsfvfooZQ3Axs_4core6optionINtB3_6OptionRNtNtCs6IAuOt8vWmF_3syn4path11PathSegmentE7or_elseNCNvXsx_NtBN_10punctuatedINtB1E_11PrivateIterBJ_NtNtBN_5token7PathSepENtNtNtNtB5_4iter6traits12double_ended19DoubleEndedIterator9next_back0EBN_, symObjAddr: 0x2B64, symBinAddr: 0x44DD4, symSize: 0xA8 }
  - { offset: 0xC9B76, size: 0x8, addend: 0x0, symName: __RINvMNtCsfvfooZQ3Axs_4core6optionINtB3_6OptionRNtNtCs6IAuOt8vWmF_3syn4path15GenericArgumentE3mapINtNtBN_10punctuated4PairBI_RNtNtBN_5token5CommaENcNtB1w_3End0EBN_, symObjAddr: 0x2C0C, symBinAddr: 0x44E7C, symSize: 0x68 }
  - { offset: 0xC9BE1, size: 0x8, addend: 0x0, symName: __RINvMNtCsfvfooZQ3Axs_4core6optionINtB3_6OptionRNtNtCs6IAuOt8vWmF_3syn5token3MutE3mapBJ_NCNvXs9_NtNtBN_4item7parsingNtB1x_8ReceiverNtNtBN_5parse5Parse5parse0EBN_, symObjAddr: 0x2C74, symBinAddr: 0x44EE4, symSize: 0x5C }
  - { offset: 0xC9C64, size: 0x8, addend: 0x0, symName: __RINvMNtCsfvfooZQ3Axs_4core6optionINtB3_6OptionRNtNtCs6IAuOt8vWmF_3syn8generics12GenericParamE3mapINtNtBN_10punctuated4PairBI_RNtNtBN_5token5CommaENcNtB1x_3End0EBN_, symObjAddr: 0x2CD0, symBinAddr: 0x44F40, symSize: 0x68 }
  - { offset: 0xC9D01, size: 0x8, addend: 0x0, symName: __RINvMNtCsfvfooZQ3Axs_4core6optionINtB3_6OptionRNtNtCs6IAuOt8vWmF_3syn8generics13CapturedParamE3mapINtNtBN_10punctuated4PairBI_RNtNtBN_5token5CommaENcNtB1y_3End0EBN_, symObjAddr: 0x2E88, symBinAddr: 0x44FA8, symSize: 0x68 }
  - { offset: 0xC9D84, size: 0x8, addend: 0x0, symName: __RINvMNtCsfvfooZQ3Axs_4core6optionINtB3_6OptionRNtNtCs6IAuOt8vWmF_3syn8generics14TypeParamBoundE3mapINtNtBN_10punctuated4PairBI_RNtNtBN_5token4PlusENcNtB1z_3End0EBN_, symObjAddr: 0x2EF0, symBinAddr: 0x45010, symSize: 0x68 }
  - { offset: 0xC9DEF, size: 0x8, addend: 0x0, symName: __RINvMNtCsfvfooZQ3Axs_4core6optionINtB3_6OptionRNtNtCs6IAuOt8vWmF_3syn8generics14TypeParamBoundE7or_elseNCNvXsw_NtBN_10punctuatedINtB1L_11PrivateIterBJ_NtNtBN_5token4PlusENtNtNtNtB5_4iter6traits8iterator8Iterator4nexts_0EBN_, symObjAddr: 0x2F58, symBinAddr: 0x45078, symSize: 0xA8 }
  - { offset: 0xC9E78, size: 0x8, addend: 0x0, symName: __RINvMNtCsfvfooZQ3Axs_4core6optionINtB3_6OptionRNtNtCs6IAuOt8vWmF_3syn8generics14TypeParamBoundE7or_elseNCNvXsx_NtBN_10punctuatedINtB1L_11PrivateIterBJ_NtNtBN_5token4PlusENtNtNtNtB5_4iter6traits12double_ended19DoubleEndedIterator9next_back0EBN_, symObjAddr: 0x3000, symBinAddr: 0x45120, symSize: 0xA8 }
  - { offset: 0xC9EF2, size: 0x8, addend: 0x0, symName: __RINvMNtCsfvfooZQ3Axs_4core6optionINtB3_6OptionRNtNtCs6IAuOt8vWmF_3syn8generics14WherePredicateE3mapINtNtBN_10punctuated4PairBI_RNtNtBN_5token5CommaENcNtB1z_3End0EBN_, symObjAddr: 0x30A8, symBinAddr: 0x451C8, symSize: 0x68 }
  - { offset: 0xC9F75, size: 0x8, addend: 0x0, symName: __RINvMNtCsfvfooZQ3Axs_4core6optionINtB3_6OptionRNtNtCs6IAuOt8vWmF_3syn8lifetime8LifetimeE3mapINtNtBN_10punctuated4PairBI_RNtNtBN_5token4PlusENcNtB1s_3End0EBN_, symObjAddr: 0x3110, symBinAddr: 0x45230, symSize: 0x68 }
  - { offset: 0xC9FED, size: 0x8, addend: 0x0, symName: __RINvMNtCsfvfooZQ3Axs_4core6optionINtB3_6OptionRTNtNtCs6IAuOt8vWmF_3syn2ty4TypeNtNtBO_5token5CommaEE3mapINtNtBO_10punctuated4PairRBK_RB1e_ENCNvXsc_B1G_INtB1G_5PairsBK_B1e_ENtNtNtNtB5_4iter6traits8iterator8Iterator4next0EBO_, symObjAddr: 0x3178, symBinAddr: 0x45298, symSize: 0x68 }
  - { offset: 0xCA065, size: 0x8, addend: 0x0, symName: __RINvMNtCsfvfooZQ3Axs_4core6optionINtB3_6OptionRTNtNtCs6IAuOt8vWmF_3syn2ty9BareFnArgNtNtBO_5token5CommaEE3mapINtNtBO_10punctuated4PairRBK_RB1j_ENCNvXsc_B1L_INtB1L_5PairsBK_B1j_ENtNtNtNtB5_4iter6traits8iterator8Iterator4next0EBO_, symObjAddr: 0x31E0, symBinAddr: 0x45300, symSize: 0x68 }
  - { offset: 0xCA0DD, size: 0x8, addend: 0x0, symName: __RINvMNtCsfvfooZQ3Axs_4core6optionINtB3_6OptionRTNtNtCs6IAuOt8vWmF_3syn3pat3PatNtNtBO_5token2OrEE3mapINtNtBO_10punctuated4PairRBK_RB1e_ENCNvXsc_B1D_INtB1D_5PairsBK_B1e_ENtNtNtNtB5_4iter6traits8iterator8Iterator4next0EBO_, symObjAddr: 0x3248, symBinAddr: 0x45368, symSize: 0x68 }
  - { offset: 0xCA155, size: 0x8, addend: 0x0, symName: __RINvMNtCsfvfooZQ3Axs_4core6optionINtB3_6OptionRTNtNtCs6IAuOt8vWmF_3syn3pat3PatNtNtBO_5token5CommaEE3mapINtNtBO_10punctuated4PairRBK_RB1e_ENCNvXsc_B1G_INtB1G_5PairsBK_B1e_ENtNtNtNtB5_4iter6traits8iterator8Iterator4next0EBO_, symObjAddr: 0x32B0, symBinAddr: 0x453D0, symSize: 0x68 }
  - { offset: 0xCA1CD, size: 0x8, addend: 0x0, symName: __RINvMNtCsfvfooZQ3Axs_4core6optionINtB3_6OptionRTNtNtCs6IAuOt8vWmF_3syn3pat8FieldPatNtNtBO_5token5CommaEE3mapINtNtBO_10punctuated4PairRBK_RB1j_ENCNvXsc_B1L_INtB1L_5PairsBK_B1j_ENtNtNtNtB5_4iter6traits8iterator8Iterator4next0EBO_, symObjAddr: 0x3318, symBinAddr: 0x45438, symSize: 0x68 }
  - { offset: 0xCA238, size: 0x8, addend: 0x0, symName: __RINvMNtCsfvfooZQ3Axs_4core6optionINtB3_6OptionRTNtNtCs6IAuOt8vWmF_3syn4data5FieldNtNtBO_5token5CommaEE3mapINtNtBO_10punctuated4PairRBK_RB1h_ENCNvXsc_B1J_INtB1J_5PairsBK_B1h_ENtNtNtNtB5_4iter6traits8iterator8Iterator4next0EBO_, symObjAddr: 0x3380, symBinAddr: 0x454A0, symSize: 0x68 }
  - { offset: 0xCA2B0, size: 0x8, addend: 0x0, symName: __RINvMNtCsfvfooZQ3Axs_4core6optionINtB3_6OptionRTNtNtCs6IAuOt8vWmF_3syn4data7VariantNtNtBO_5token5CommaEE3mapINtNtBO_10punctuated4PairRBK_RB1j_ENCNvXsc_B1L_INtB1L_5PairsBK_B1j_ENtNtNtNtB5_4iter6traits8iterator8Iterator4next0EBO_, symObjAddr: 0x3488, symBinAddr: 0x45508, symSize: 0x68 }
  - { offset: 0xCA328, size: 0x8, addend: 0x0, symName: __RINvMNtCsfvfooZQ3Axs_4core6optionINtB3_6OptionRTNtNtCs6IAuOt8vWmF_3syn4expr10FieldValueNtNtBO_5token5CommaEE3mapINtNtBO_10punctuated4PairRBK_RB1n_ENCNvXsc_B1P_INtB1P_5PairsBK_B1n_ENtNtNtNtB5_4iter6traits8iterator8Iterator4next0EBO_, symObjAddr: 0x34F0, symBinAddr: 0x45570, symSize: 0x68 }
  - { offset: 0xCA3A0, size: 0x8, addend: 0x0, symName: __RINvMNtCsfvfooZQ3Axs_4core6optionINtB3_6OptionRTNtNtCs6IAuOt8vWmF_3syn4expr4ExprNtNtBO_5token5CommaEE3mapINtNtBO_10punctuated4PairRBK_RB1g_ENCNvXsc_B1I_INtB1I_5PairsBK_B1g_ENtNtNtNtB5_4iter6traits8iterator8Iterator4next0EBO_, symObjAddr: 0x3558, symBinAddr: 0x455D8, symSize: 0x68 }
  - { offset: 0xCA40B, size: 0x8, addend: 0x0, symName: __RINvMNtCsfvfooZQ3Axs_4core6optionINtB3_6OptionRTNtNtCs6IAuOt8vWmF_3syn4item5FnArgNtNtBO_5token5CommaEE3mapINtNtBO_10punctuated4PairRBK_RB1h_ENCNvXsc_B1J_INtB1J_5PairsBK_B1h_ENtNtNtNtB5_4iter6traits8iterator8Iterator4next0EBO_, symObjAddr: 0x35C0, symBinAddr: 0x45640, symSize: 0x68 }
  - { offset: 0xCA483, size: 0x8, addend: 0x0, symName: __RINvMNtCsfvfooZQ3Axs_4core6optionINtB3_6OptionRTNtNtCs6IAuOt8vWmF_3syn4item7UseTreeNtNtBO_5token5CommaEE3mapINtNtBO_10punctuated4PairRBK_RB1j_ENCNvXsc_B1L_INtB1L_5PairsBK_B1j_ENtNtNtNtB5_4iter6traits8iterator8Iterator4next0EBO_, symObjAddr: 0x36C8, symBinAddr: 0x456A8, symSize: 0x68 }
  - { offset: 0xCA4EE, size: 0x8, addend: 0x0, symName: __RINvMNtCsfvfooZQ3Axs_4core6optionINtB3_6OptionRTNtNtCs6IAuOt8vWmF_3syn4path11PathSegmentNtNtBO_5token7PathSepEE3mapINtNtBO_10punctuated4PairRBK_RB1o_ENCNvXsc_B1S_INtB1S_5PairsBK_B1o_ENtNtNtNtB5_4iter6traits8iterator8Iterator4next0EBO_, symObjAddr: 0x3730, symBinAddr: 0x45710, symSize: 0x68 }
  - { offset: 0xCA559, size: 0x8, addend: 0x0, symName: __RINvMNtCsfvfooZQ3Axs_4core6optionINtB3_6OptionRTNtNtCs6IAuOt8vWmF_3syn4path11PathSegmentNtNtBO_5token7PathSepEE3mapRBK_NCNCNvXsx_NtBO_10punctuatedINtB23_11PrivateIterBK_B1o_ENtNtNtNtB5_4iter6traits12double_ended19DoubleEndedIterator9next_back00EBO_, symObjAddr: 0x3798, symBinAddr: 0x45778, symSize: 0x50 }
  - { offset: 0xCA5C4, size: 0x8, addend: 0x0, symName: __RINvMNtCsfvfooZQ3Axs_4core6optionINtB3_6OptionRTNtNtCs6IAuOt8vWmF_3syn4path11PathSegmentNtNtBO_5token7PathSepEE3mapRBK_NCNvXsw_NtBO_10punctuatedINtB21_11PrivateIterBK_B1o_ENtNtNtNtB5_4iter6traits8iterator8Iterator4next0EBO_, symObjAddr: 0x37E8, symBinAddr: 0x457C8, symSize: 0x50 }
  - { offset: 0xCA63C, size: 0x8, addend: 0x0, symName: __RINvMNtCsfvfooZQ3Axs_4core6optionINtB3_6OptionRTNtNtCs6IAuOt8vWmF_3syn4path15GenericArgumentNtNtBO_5token5CommaEE3mapINtNtBO_10punctuated4PairRBK_RB1s_ENCNvXsc_B1U_INtB1U_5PairsBK_B1s_ENtNtNtNtB5_4iter6traits8iterator8Iterator4next0EBO_, symObjAddr: 0x3838, symBinAddr: 0x45818, symSize: 0x68 }
  - { offset: 0xCA6A7, size: 0x8, addend: 0x0, symName: __RINvMNtCsfvfooZQ3Axs_4core6optionINtB3_6OptionRTNtNtCs6IAuOt8vWmF_3syn8generics12GenericParamNtNtBO_5token5CommaEE3mapINtNtBO_10punctuated4PairRBK_RB1t_ENCNvXsc_B1V_INtB1V_5PairsBK_B1t_ENtNtNtNtB5_4iter6traits8iterator8Iterator4next0EBO_, symObjAddr: 0x38A0, symBinAddr: 0x45880, symSize: 0x68 }
  - { offset: 0xCA71F, size: 0x8, addend: 0x0, symName: __RINvMNtCsfvfooZQ3Axs_4core6optionINtB3_6OptionRTNtNtCs6IAuOt8vWmF_3syn8generics13CapturedParamNtNtBO_5token5CommaEE3mapINtNtBO_10punctuated4PairRBK_RB1u_ENCNvXsc_B1W_INtB1W_5PairsBK_B1u_ENtNtNtNtB5_4iter6traits8iterator8Iterator4next0EBO_, symObjAddr: 0x39A8, symBinAddr: 0x458E8, symSize: 0x68 }
  - { offset: 0xCA78A, size: 0x8, addend: 0x0, symName: __RINvMNtCsfvfooZQ3Axs_4core6optionINtB3_6OptionRTNtNtCs6IAuOt8vWmF_3syn8generics14TypeParamBoundNtNtBO_5token4PlusEE3mapINtNtBO_10punctuated4PairRBK_RB1v_ENCNvXsc_B1W_INtB1W_5PairsBK_B1v_ENtNtNtNtB5_4iter6traits8iterator8Iterator4next0EBO_, symObjAddr: 0x3A10, symBinAddr: 0x45950, symSize: 0x68 }
  - { offset: 0xCA7F5, size: 0x8, addend: 0x0, symName: __RINvMNtCsfvfooZQ3Axs_4core6optionINtB3_6OptionRTNtNtCs6IAuOt8vWmF_3syn8generics14TypeParamBoundNtNtBO_5token4PlusEE3mapRBK_NCNCNvXsx_NtBO_10punctuatedINtB27_11PrivateIterBK_B1v_ENtNtNtNtB5_4iter6traits12double_ended19DoubleEndedIterator9next_back00EBO_, symObjAddr: 0x3A78, symBinAddr: 0x459B8, symSize: 0x50 }
  - { offset: 0xCA860, size: 0x8, addend: 0x0, symName: __RINvMNtCsfvfooZQ3Axs_4core6optionINtB3_6OptionRTNtNtCs6IAuOt8vWmF_3syn8generics14TypeParamBoundNtNtBO_5token4PlusEE3mapRBK_NCNvXsw_NtBO_10punctuatedINtB25_11PrivateIterBK_B1v_ENtNtNtNtB5_4iter6traits8iterator8Iterator4next0EBO_, symObjAddr: 0x3AC8, symBinAddr: 0x45A08, symSize: 0x50 }
  - { offset: 0xCA8D8, size: 0x8, addend: 0x0, symName: __RINvMNtCsfvfooZQ3Axs_4core6optionINtB3_6OptionRTNtNtCs6IAuOt8vWmF_3syn8generics14WherePredicateNtNtBO_5token5CommaEE3mapINtNtBO_10punctuated4PairRBK_RB1v_ENCNvXsc_B1X_INtB1X_5PairsBK_B1v_ENtNtNtNtB5_4iter6traits8iterator8Iterator4next0EBO_, symObjAddr: 0x3B18, symBinAddr: 0x45A58, symSize: 0x68 }
  - { offset: 0xCA950, size: 0x8, addend: 0x0, symName: __RINvMNtCsfvfooZQ3Axs_4core6optionINtB3_6OptionRTNtNtCs6IAuOt8vWmF_3syn8lifetime8LifetimeNtNtBO_5token4PlusEE3mapINtNtBO_10punctuated4PairRBK_RB1o_ENCNvXsc_B1P_INtB1P_5PairsBK_B1o_ENtNtNtNtB5_4iter6traits8iterator8Iterator4next0EBO_, symObjAddr: 0x3B80, symBinAddr: 0x45AC0, symSize: 0x68 }
  - { offset: 0xCA9BB, size: 0x8, addend: 0x0, symName: __RINvMNtCsfvfooZQ3Axs_4core6optionINtB3_6OptionTNtNtCs6IAuOt8vWmF_3syn4path11PathSegmentNtNtBN_5token7PathSepEE3mapINtNtBN_10punctuated4PairBJ_B1n_ENCNvMB1R_INtB1R_10PunctuatedBJ_B1n_E3pops_0EBN_, symObjAddr: 0x3BE8, symBinAddr: 0x45B28, symSize: 0xA8 }
  - { offset: 0xCAA27, size: 0x8, addend: 0x0, symName: __RINvMNtCsfvfooZQ3Axs_4core6optionINtB3_6OptionTNtNtCs6IAuOt8vWmF_3syn4path11PathSegmentNtNtBN_5token7PathSepEE3mapINtNtBN_10punctuated4PairBJ_B1n_ENCNvXsj_B1R_INtB1R_9IntoPairsBJ_B1n_ENtNtNtNtB5_4iter6traits8iterator8Iterator4next0EBN_, symObjAddr: 0x3C90, symBinAddr: 0x45BD0, symSize: 0xA8 }
  - { offset: 0xCAAD6, size: 0x8, addend: 0x0, symName: __RINvMNtCsfvfooZQ3Axs_4core6optionINtB3_6OptionTNtNtCs6IAuOt8vWmF_3syn8lifetime8LifetimeNtNtBN_6buffer6CursorEE10ok_or_elseNtNtBN_5error5ErrorNCNCNvXNtBL_7parsingBJ_NtNtBN_5parse5Parse5parse00EBN_, symObjAddr: 0x3D38, symBinAddr: 0x45C78, symSize: 0x98 }
  - { offset: 0xCAC6A, size: 0x8, addend: 0x0, symName: __RINvMs3_NtCsfvfooZQ3Axs_4core3fmtNtB6_9Arguments6new_v1Kj2_KBS_ECs6IAuOt8vWmF_3syn, symObjAddr: 0x3DD0, symBinAddr: 0x45D10, symSize: 0x50 }
  - { offset: 0xCACC3, size: 0x8, addend: 0x0, symName: __RNvMNtCsfvfooZQ3Axs_4core6optionINtB2_6OptionINtNtCse1nGBsou5OW_5alloc5boxed3BoxNtNtCs6IAuOt8vWmF_3syn2ty4TypeEE4takeB1k_, symObjAddr: 0x45C8, symBinAddr: 0x46390, symSize: 0x28 }
  - { offset: 0xCAD56, size: 0x8, addend: 0x0, symName: __RNvMNtCsfvfooZQ3Axs_4core6optionINtB2_6OptionINtNtCse1nGBsou5OW_5alloc5boxed3BoxNtNtCs6IAuOt8vWmF_3syn2ty4TypeEE6as_refB1k_, symObjAddr: 0x45F0, symBinAddr: 0x463B8, symSize: 0x4C }
  - { offset: 0xCADBC, size: 0x8, addend: 0x0, symName: __RNvMNtCsfvfooZQ3Axs_4core6optionINtB2_6OptionINtNtCse1nGBsou5OW_5alloc5boxed3BoxNtNtCs6IAuOt8vWmF_3syn2ty4TypeEE7is_noneB1k_, symObjAddr: 0x463C, symBinAddr: 0x46404, symSize: 0x28 }
  - { offset: 0xCAE06, size: 0x8, addend: 0x0, symName: __RNvMNtCsfvfooZQ3Axs_4core6optionINtB2_6OptionINtNtCse1nGBsou5OW_5alloc5boxed3BoxNtNtCs6IAuOt8vWmF_3syn2ty4TypeEE7is_someB1k_, symObjAddr: 0x4664, symBinAddr: 0x4642C, symSize: 0x28 }
  - { offset: 0xCAE3F, size: 0x8, addend: 0x0, symName: __RNvMNtCsfvfooZQ3Axs_4core6optionINtB2_6OptionINtNtCse1nGBsou5OW_5alloc5boxed3BoxNtNtCs6IAuOt8vWmF_3syn2ty9BareFnArgEE4takeB1k_, symObjAddr: 0x468C, symBinAddr: 0x46454, symSize: 0x28 }
  - { offset: 0xCAED2, size: 0x8, addend: 0x0, symName: __RNvMNtCsfvfooZQ3Axs_4core6optionINtB2_6OptionINtNtCse1nGBsou5OW_5alloc5boxed3BoxNtNtCs6IAuOt8vWmF_3syn2ty9BareFnArgEE6as_refB1k_, symObjAddr: 0x46B4, symBinAddr: 0x4647C, symSize: 0x4C }
  - { offset: 0xCAF38, size: 0x8, addend: 0x0, symName: __RNvMNtCsfvfooZQ3Axs_4core6optionINtB2_6OptionINtNtCse1nGBsou5OW_5alloc5boxed3BoxNtNtCs6IAuOt8vWmF_3syn2ty9BareFnArgEE7is_noneB1k_, symObjAddr: 0x4700, symBinAddr: 0x464C8, symSize: 0x28 }
  - { offset: 0xCAF82, size: 0x8, addend: 0x0, symName: __RNvMNtCsfvfooZQ3Axs_4core6optionINtB2_6OptionINtNtCse1nGBsou5OW_5alloc5boxed3BoxNtNtCs6IAuOt8vWmF_3syn2ty9BareFnArgEE7is_someB1k_, symObjAddr: 0x4728, symBinAddr: 0x464F0, symSize: 0x28 }
  - { offset: 0xCAFBB, size: 0x8, addend: 0x0, symName: __RNvMNtCsfvfooZQ3Axs_4core6optionINtB2_6OptionINtNtCse1nGBsou5OW_5alloc5boxed3BoxNtNtCs6IAuOt8vWmF_3syn3pat3PatEE4takeB1k_, symObjAddr: 0x4750, symBinAddr: 0x46518, symSize: 0x28 }
  - { offset: 0xCB04E, size: 0x8, addend: 0x0, symName: __RNvMNtCsfvfooZQ3Axs_4core6optionINtB2_6OptionINtNtCse1nGBsou5OW_5alloc5boxed3BoxNtNtCs6IAuOt8vWmF_3syn3pat3PatEE6as_refB1k_, symObjAddr: 0x4778, symBinAddr: 0x46540, symSize: 0x4C }
  - { offset: 0xCB0B4, size: 0x8, addend: 0x0, symName: __RNvMNtCsfvfooZQ3Axs_4core6optionINtB2_6OptionINtNtCse1nGBsou5OW_5alloc5boxed3BoxNtNtCs6IAuOt8vWmF_3syn3pat3PatEE7is_noneB1k_, symObjAddr: 0x47C4, symBinAddr: 0x4658C, symSize: 0x28 }
  - { offset: 0xCB0FE, size: 0x8, addend: 0x0, symName: __RNvMNtCsfvfooZQ3Axs_4core6optionINtB2_6OptionINtNtCse1nGBsou5OW_5alloc5boxed3BoxNtNtCs6IAuOt8vWmF_3syn3pat3PatEE7is_someB1k_, symObjAddr: 0x47EC, symBinAddr: 0x465B4, symSize: 0x28 }
  - { offset: 0xCB137, size: 0x8, addend: 0x0, symName: __RNvMNtCsfvfooZQ3Axs_4core6optionINtB2_6OptionINtNtCse1nGBsou5OW_5alloc5boxed3BoxNtNtCs6IAuOt8vWmF_3syn3pat8FieldPatEE4takeB1k_, symObjAddr: 0x4814, symBinAddr: 0x465DC, symSize: 0x28 }
  - { offset: 0xCB1CA, size: 0x8, addend: 0x0, symName: __RNvMNtCsfvfooZQ3Axs_4core6optionINtB2_6OptionINtNtCse1nGBsou5OW_5alloc5boxed3BoxNtNtCs6IAuOt8vWmF_3syn3pat8FieldPatEE6as_refB1k_, symObjAddr: 0x483C, symBinAddr: 0x46604, symSize: 0x4C }
  - { offset: 0xCB230, size: 0x8, addend: 0x0, symName: __RNvMNtCsfvfooZQ3Axs_4core6optionINtB2_6OptionINtNtCse1nGBsou5OW_5alloc5boxed3BoxNtNtCs6IAuOt8vWmF_3syn3pat8FieldPatEE7is_noneB1k_, symObjAddr: 0x4888, symBinAddr: 0x46650, symSize: 0x28 }
  - { offset: 0xCB27A, size: 0x8, addend: 0x0, symName: __RNvMNtCsfvfooZQ3Axs_4core6optionINtB2_6OptionINtNtCse1nGBsou5OW_5alloc5boxed3BoxNtNtCs6IAuOt8vWmF_3syn3pat8FieldPatEE7is_someB1k_, symObjAddr: 0x48B0, symBinAddr: 0x46678, symSize: 0x28 }
  - { offset: 0xCB2B3, size: 0x8, addend: 0x0, symName: __RNvMNtCsfvfooZQ3Axs_4core6optionINtB2_6OptionINtNtCse1nGBsou5OW_5alloc5boxed3BoxNtNtCs6IAuOt8vWmF_3syn4data5FieldEE4takeB1k_, symObjAddr: 0x48D8, symBinAddr: 0x466A0, symSize: 0x28 }
  - { offset: 0xCB346, size: 0x8, addend: 0x0, symName: __RNvMNtCsfvfooZQ3Axs_4core6optionINtB2_6OptionINtNtCse1nGBsou5OW_5alloc5boxed3BoxNtNtCs6IAuOt8vWmF_3syn4data5FieldEE6as_refB1k_, symObjAddr: 0x494C, symBinAddr: 0x466C8, symSize: 0x4C }
  - { offset: 0xCB3AC, size: 0x8, addend: 0x0, symName: __RNvMNtCsfvfooZQ3Axs_4core6optionINtB2_6OptionINtNtCse1nGBsou5OW_5alloc5boxed3BoxNtNtCs6IAuOt8vWmF_3syn4data5FieldEE7is_noneB1k_, symObjAddr: 0x4998, symBinAddr: 0x46714, symSize: 0x28 }
  - { offset: 0xCB3F6, size: 0x8, addend: 0x0, symName: __RNvMNtCsfvfooZQ3Axs_4core6optionINtB2_6OptionINtNtCse1nGBsou5OW_5alloc5boxed3BoxNtNtCs6IAuOt8vWmF_3syn4data5FieldEE7is_someB1k_, symObjAddr: 0x49C0, symBinAddr: 0x4673C, symSize: 0x28 }
  - { offset: 0xCB42F, size: 0x8, addend: 0x0, symName: __RNvMNtCsfvfooZQ3Axs_4core6optionINtB2_6OptionINtNtCse1nGBsou5OW_5alloc5boxed3BoxNtNtCs6IAuOt8vWmF_3syn4data7VariantEE4takeB1k_, symObjAddr: 0x49E8, symBinAddr: 0x46764, symSize: 0x28 }
  - { offset: 0xCB4C2, size: 0x8, addend: 0x0, symName: __RNvMNtCsfvfooZQ3Axs_4core6optionINtB2_6OptionINtNtCse1nGBsou5OW_5alloc5boxed3BoxNtNtCs6IAuOt8vWmF_3syn4data7VariantEE6as_refB1k_, symObjAddr: 0x4A10, symBinAddr: 0x4678C, symSize: 0x4C }
  - { offset: 0xCB528, size: 0x8, addend: 0x0, symName: __RNvMNtCsfvfooZQ3Axs_4core6optionINtB2_6OptionINtNtCse1nGBsou5OW_5alloc5boxed3BoxNtNtCs6IAuOt8vWmF_3syn4data7VariantEE7is_noneB1k_, symObjAddr: 0x4A5C, symBinAddr: 0x467D8, symSize: 0x28 }
  - { offset: 0xCB572, size: 0x8, addend: 0x0, symName: __RNvMNtCsfvfooZQ3Axs_4core6optionINtB2_6OptionINtNtCse1nGBsou5OW_5alloc5boxed3BoxNtNtCs6IAuOt8vWmF_3syn4data7VariantEE7is_someB1k_, symObjAddr: 0x4A84, symBinAddr: 0x46800, symSize: 0x28 }
  - { offset: 0xCB5AB, size: 0x8, addend: 0x0, symName: __RNvMNtCsfvfooZQ3Axs_4core6optionINtB2_6OptionINtNtCse1nGBsou5OW_5alloc5boxed3BoxNtNtCs6IAuOt8vWmF_3syn4expr10FieldValueEE4takeB1k_, symObjAddr: 0x4AAC, symBinAddr: 0x46828, symSize: 0x28 }
  - { offset: 0xCB63E, size: 0x8, addend: 0x0, symName: __RNvMNtCsfvfooZQ3Axs_4core6optionINtB2_6OptionINtNtCse1nGBsou5OW_5alloc5boxed3BoxNtNtCs6IAuOt8vWmF_3syn4expr10FieldValueEE6as_refB1k_, symObjAddr: 0x4AD4, symBinAddr: 0x46850, symSize: 0x4C }
  - { offset: 0xCB6A4, size: 0x8, addend: 0x0, symName: __RNvMNtCsfvfooZQ3Axs_4core6optionINtB2_6OptionINtNtCse1nGBsou5OW_5alloc5boxed3BoxNtNtCs6IAuOt8vWmF_3syn4expr10FieldValueEE7is_noneB1k_, symObjAddr: 0x4B20, symBinAddr: 0x4689C, symSize: 0x28 }
  - { offset: 0xCB6EE, size: 0x8, addend: 0x0, symName: __RNvMNtCsfvfooZQ3Axs_4core6optionINtB2_6OptionINtNtCse1nGBsou5OW_5alloc5boxed3BoxNtNtCs6IAuOt8vWmF_3syn4expr10FieldValueEE7is_someB1k_, symObjAddr: 0x4B48, symBinAddr: 0x468C4, symSize: 0x28 }
  - { offset: 0xCB727, size: 0x8, addend: 0x0, symName: __RNvMNtCsfvfooZQ3Axs_4core6optionINtB2_6OptionINtNtCse1nGBsou5OW_5alloc5boxed3BoxNtNtCs6IAuOt8vWmF_3syn4expr4ExprEE4takeB1k_, symObjAddr: 0x4B70, symBinAddr: 0x468EC, symSize: 0x28 }
  - { offset: 0xCB7BA, size: 0x8, addend: 0x0, symName: __RNvMNtCsfvfooZQ3Axs_4core6optionINtB2_6OptionINtNtCse1nGBsou5OW_5alloc5boxed3BoxNtNtCs6IAuOt8vWmF_3syn4expr4ExprEE6as_refB1k_, symObjAddr: 0x4B98, symBinAddr: 0x46914, symSize: 0x4C }
  - { offset: 0xCB820, size: 0x8, addend: 0x0, symName: __RNvMNtCsfvfooZQ3Axs_4core6optionINtB2_6OptionINtNtCse1nGBsou5OW_5alloc5boxed3BoxNtNtCs6IAuOt8vWmF_3syn4expr4ExprEE7is_noneB1k_, symObjAddr: 0x4BE4, symBinAddr: 0x46960, symSize: 0x28 }
  - { offset: 0xCB86A, size: 0x8, addend: 0x0, symName: __RNvMNtCsfvfooZQ3Axs_4core6optionINtB2_6OptionINtNtCse1nGBsou5OW_5alloc5boxed3BoxNtNtCs6IAuOt8vWmF_3syn4expr4ExprEE7is_someB1k_, symObjAddr: 0x4C0C, symBinAddr: 0x46988, symSize: 0x28 }
  - { offset: 0xCB8A3, size: 0x8, addend: 0x0, symName: __RNvMNtCsfvfooZQ3Axs_4core6optionINtB2_6OptionINtNtCse1nGBsou5OW_5alloc5boxed3BoxNtNtCs6IAuOt8vWmF_3syn4item5FnArgEE4takeB1k_, symObjAddr: 0x4C34, symBinAddr: 0x469B0, symSize: 0x28 }
  - { offset: 0xCB936, size: 0x8, addend: 0x0, symName: __RNvMNtCsfvfooZQ3Axs_4core6optionINtB2_6OptionINtNtCse1nGBsou5OW_5alloc5boxed3BoxNtNtCs6IAuOt8vWmF_3syn4item5FnArgEE6as_refB1k_, symObjAddr: 0x4C5C, symBinAddr: 0x469D8, symSize: 0x4C }
  - { offset: 0xCB99C, size: 0x8, addend: 0x0, symName: __RNvMNtCsfvfooZQ3Axs_4core6optionINtB2_6OptionINtNtCse1nGBsou5OW_5alloc5boxed3BoxNtNtCs6IAuOt8vWmF_3syn4item5FnArgEE7is_noneB1k_, symObjAddr: 0x4CA8, symBinAddr: 0x46A24, symSize: 0x28 }
  - { offset: 0xCB9E6, size: 0x8, addend: 0x0, symName: __RNvMNtCsfvfooZQ3Axs_4core6optionINtB2_6OptionINtNtCse1nGBsou5OW_5alloc5boxed3BoxNtNtCs6IAuOt8vWmF_3syn4item5FnArgEE7is_someB1k_, symObjAddr: 0x4CD0, symBinAddr: 0x46A4C, symSize: 0x28 }
  - { offset: 0xCBA1F, size: 0x8, addend: 0x0, symName: __RNvMNtCsfvfooZQ3Axs_4core6optionINtB2_6OptionINtNtCse1nGBsou5OW_5alloc5boxed3BoxNtNtCs6IAuOt8vWmF_3syn4item7UseTreeEE4takeB1k_, symObjAddr: 0x4CF8, symBinAddr: 0x46A74, symSize: 0x28 }
  - { offset: 0xCBAB2, size: 0x8, addend: 0x0, symName: __RNvMNtCsfvfooZQ3Axs_4core6optionINtB2_6OptionINtNtCse1nGBsou5OW_5alloc5boxed3BoxNtNtCs6IAuOt8vWmF_3syn4item7UseTreeEE6as_refB1k_, symObjAddr: 0x4D20, symBinAddr: 0x46A9C, symSize: 0x4C }
  - { offset: 0xCBB18, size: 0x8, addend: 0x0, symName: __RNvMNtCsfvfooZQ3Axs_4core6optionINtB2_6OptionINtNtCse1nGBsou5OW_5alloc5boxed3BoxNtNtCs6IAuOt8vWmF_3syn4item7UseTreeEE7is_noneB1k_, symObjAddr: 0x4D6C, symBinAddr: 0x46AE8, symSize: 0x28 }
  - { offset: 0xCBB62, size: 0x8, addend: 0x0, symName: __RNvMNtCsfvfooZQ3Axs_4core6optionINtB2_6OptionINtNtCse1nGBsou5OW_5alloc5boxed3BoxNtNtCs6IAuOt8vWmF_3syn4item7UseTreeEE7is_someB1k_, symObjAddr: 0x4D94, symBinAddr: 0x46B10, symSize: 0x28 }
  - { offset: 0xCBB9B, size: 0x8, addend: 0x0, symName: __RNvMNtCsfvfooZQ3Axs_4core6optionINtB2_6OptionINtNtCse1nGBsou5OW_5alloc5boxed3BoxNtNtCs6IAuOt8vWmF_3syn4path11PathSegmentEE4takeB1k_, symObjAddr: 0x4DBC, symBinAddr: 0x46B38, symSize: 0x28 }
  - { offset: 0xCBC21, size: 0x8, addend: 0x0, symName: __RNvMNtCsfvfooZQ3Axs_4core6optionINtB2_6OptionINtNtCse1nGBsou5OW_5alloc5boxed3BoxNtNtCs6IAuOt8vWmF_3syn4path11PathSegmentEE6as_mutB1k_, symObjAddr: 0x4DE4, symBinAddr: 0x46B60, symSize: 0x4C }
  - { offset: 0xCBC78, size: 0x8, addend: 0x0, symName: __RNvMNtCsfvfooZQ3Axs_4core6optionINtB2_6OptionINtNtCse1nGBsou5OW_5alloc5boxed3BoxNtNtCs6IAuOt8vWmF_3syn4path11PathSegmentEE6as_refB1k_, symObjAddr: 0x4E30, symBinAddr: 0x46BAC, symSize: 0x4C }
  - { offset: 0xCBCDE, size: 0x8, addend: 0x0, symName: __RNvMNtCsfvfooZQ3Axs_4core6optionINtB2_6OptionINtNtCse1nGBsou5OW_5alloc5boxed3BoxNtNtCs6IAuOt8vWmF_3syn4path11PathSegmentEE7is_noneB1k_, symObjAddr: 0x4E7C, symBinAddr: 0x46BF8, symSize: 0x28 }
  - { offset: 0xCBD28, size: 0x8, addend: 0x0, symName: __RNvMNtCsfvfooZQ3Axs_4core6optionINtB2_6OptionINtNtCse1nGBsou5OW_5alloc5boxed3BoxNtNtCs6IAuOt8vWmF_3syn4path11PathSegmentEE7is_someB1k_, symObjAddr: 0x4EA4, symBinAddr: 0x46C20, symSize: 0x28 }
  - { offset: 0xCBD61, size: 0x8, addend: 0x0, symName: __RNvMNtCsfvfooZQ3Axs_4core6optionINtB2_6OptionINtNtCse1nGBsou5OW_5alloc5boxed3BoxNtNtCs6IAuOt8vWmF_3syn4path15GenericArgumentEE4takeB1k_, symObjAddr: 0x4ECC, symBinAddr: 0x46C48, symSize: 0x28 }
  - { offset: 0xCBDF4, size: 0x8, addend: 0x0, symName: __RNvMNtCsfvfooZQ3Axs_4core6optionINtB2_6OptionINtNtCse1nGBsou5OW_5alloc5boxed3BoxNtNtCs6IAuOt8vWmF_3syn4path15GenericArgumentEE6as_refB1k_, symObjAddr: 0x4EF4, symBinAddr: 0x46C70, symSize: 0x4C }
  - { offset: 0xCBE5A, size: 0x8, addend: 0x0, symName: __RNvMNtCsfvfooZQ3Axs_4core6optionINtB2_6OptionINtNtCse1nGBsou5OW_5alloc5boxed3BoxNtNtCs6IAuOt8vWmF_3syn4path15GenericArgumentEE7is_noneB1k_, symObjAddr: 0x4F40, symBinAddr: 0x46CBC, symSize: 0x28 }
  - { offset: 0xCBEA4, size: 0x8, addend: 0x0, symName: __RNvMNtCsfvfooZQ3Axs_4core6optionINtB2_6OptionINtNtCse1nGBsou5OW_5alloc5boxed3BoxNtNtCs6IAuOt8vWmF_3syn4path15GenericArgumentEE7is_someB1k_, symObjAddr: 0x4F68, symBinAddr: 0x46CE4, symSize: 0x28 }
  - { offset: 0xCBEDD, size: 0x8, addend: 0x0, symName: __RNvMNtCsfvfooZQ3Axs_4core6optionINtB2_6OptionINtNtCse1nGBsou5OW_5alloc5boxed3BoxNtNtCs6IAuOt8vWmF_3syn8generics12GenericParamEE4takeB1k_, symObjAddr: 0x4F90, symBinAddr: 0x46D0C, symSize: 0x28 }
  - { offset: 0xCBF63, size: 0x8, addend: 0x0, symName: __RNvMNtCsfvfooZQ3Axs_4core6optionINtB2_6OptionINtNtCse1nGBsou5OW_5alloc5boxed3BoxNtNtCs6IAuOt8vWmF_3syn8generics12GenericParamEE6as_mutB1k_, symObjAddr: 0x4FB8, symBinAddr: 0x46D34, symSize: 0x4C }
  - { offset: 0xCBFBA, size: 0x8, addend: 0x0, symName: __RNvMNtCsfvfooZQ3Axs_4core6optionINtB2_6OptionINtNtCse1nGBsou5OW_5alloc5boxed3BoxNtNtCs6IAuOt8vWmF_3syn8generics12GenericParamEE6as_refB1k_, symObjAddr: 0x5004, symBinAddr: 0x46D80, symSize: 0x4C }
  - { offset: 0xCC020, size: 0x8, addend: 0x0, symName: __RNvMNtCsfvfooZQ3Axs_4core6optionINtB2_6OptionINtNtCse1nGBsou5OW_5alloc5boxed3BoxNtNtCs6IAuOt8vWmF_3syn8generics12GenericParamEE7is_noneB1k_, symObjAddr: 0x5050, symBinAddr: 0x46DCC, symSize: 0x28 }
  - { offset: 0xCC06A, size: 0x8, addend: 0x0, symName: __RNvMNtCsfvfooZQ3Axs_4core6optionINtB2_6OptionINtNtCse1nGBsou5OW_5alloc5boxed3BoxNtNtCs6IAuOt8vWmF_3syn8generics12GenericParamEE7is_someB1k_, symObjAddr: 0x5078, symBinAddr: 0x46DF4, symSize: 0x28 }
  - { offset: 0xCC0A3, size: 0x8, addend: 0x0, symName: __RNvMNtCsfvfooZQ3Axs_4core6optionINtB2_6OptionINtNtCse1nGBsou5OW_5alloc5boxed3BoxNtNtCs6IAuOt8vWmF_3syn8generics13CapturedParamEE4takeB1k_, symObjAddr: 0x50A0, symBinAddr: 0x46E1C, symSize: 0x28 }
  - { offset: 0xCC136, size: 0x8, addend: 0x0, symName: __RNvMNtCsfvfooZQ3Axs_4core6optionINtB2_6OptionINtNtCse1nGBsou5OW_5alloc5boxed3BoxNtNtCs6IAuOt8vWmF_3syn8generics13CapturedParamEE6as_refB1k_, symObjAddr: 0x50C8, symBinAddr: 0x46E44, symSize: 0x4C }
  - { offset: 0xCC19C, size: 0x8, addend: 0x0, symName: __RNvMNtCsfvfooZQ3Axs_4core6optionINtB2_6OptionINtNtCse1nGBsou5OW_5alloc5boxed3BoxNtNtCs6IAuOt8vWmF_3syn8generics13CapturedParamEE7is_noneB1k_, symObjAddr: 0x5114, symBinAddr: 0x46E90, symSize: 0x28 }
  - { offset: 0xCC1E6, size: 0x8, addend: 0x0, symName: __RNvMNtCsfvfooZQ3Axs_4core6optionINtB2_6OptionINtNtCse1nGBsou5OW_5alloc5boxed3BoxNtNtCs6IAuOt8vWmF_3syn8generics13CapturedParamEE7is_someB1k_, symObjAddr: 0x513C, symBinAddr: 0x46EB8, symSize: 0x28 }
  - { offset: 0xCC21F, size: 0x8, addend: 0x0, symName: __RNvMNtCsfvfooZQ3Axs_4core6optionINtB2_6OptionINtNtCse1nGBsou5OW_5alloc5boxed3BoxNtNtCs6IAuOt8vWmF_3syn8generics14TypeParamBoundEE4takeB1k_, symObjAddr: 0x5164, symBinAddr: 0x46EE0, symSize: 0x28 }
  - { offset: 0xCC2B2, size: 0x8, addend: 0x0, symName: __RNvMNtCsfvfooZQ3Axs_4core6optionINtB2_6OptionINtNtCse1nGBsou5OW_5alloc5boxed3BoxNtNtCs6IAuOt8vWmF_3syn8generics14TypeParamBoundEE6as_refB1k_, symObjAddr: 0x518C, symBinAddr: 0x46F08, symSize: 0x4C }
  - { offset: 0xCC318, size: 0x8, addend: 0x0, symName: __RNvMNtCsfvfooZQ3Axs_4core6optionINtB2_6OptionINtNtCse1nGBsou5OW_5alloc5boxed3BoxNtNtCs6IAuOt8vWmF_3syn8generics14TypeParamBoundEE7is_noneB1k_, symObjAddr: 0x51D8, symBinAddr: 0x46F54, symSize: 0x28 }
  - { offset: 0xCC362, size: 0x8, addend: 0x0, symName: __RNvMNtCsfvfooZQ3Axs_4core6optionINtB2_6OptionINtNtCse1nGBsou5OW_5alloc5boxed3BoxNtNtCs6IAuOt8vWmF_3syn8generics14TypeParamBoundEE7is_someB1k_, symObjAddr: 0x5200, symBinAddr: 0x46F7C, symSize: 0x28 }
  - { offset: 0xCC39B, size: 0x8, addend: 0x0, symName: __RNvMNtCsfvfooZQ3Axs_4core6optionINtB2_6OptionINtNtCse1nGBsou5OW_5alloc5boxed3BoxNtNtCs6IAuOt8vWmF_3syn8generics14WherePredicateEE4takeB1k_, symObjAddr: 0x5228, symBinAddr: 0x46FA4, symSize: 0x28 }
  - { offset: 0xCC42E, size: 0x8, addend: 0x0, symName: __RNvMNtCsfvfooZQ3Axs_4core6optionINtB2_6OptionINtNtCse1nGBsou5OW_5alloc5boxed3BoxNtNtCs6IAuOt8vWmF_3syn8generics14WherePredicateEE6as_refB1k_, symObjAddr: 0x5250, symBinAddr: 0x46FCC, symSize: 0x4C }
  - { offset: 0xCC494, size: 0x8, addend: 0x0, symName: __RNvMNtCsfvfooZQ3Axs_4core6optionINtB2_6OptionINtNtCse1nGBsou5OW_5alloc5boxed3BoxNtNtCs6IAuOt8vWmF_3syn8generics14WherePredicateEE7is_noneB1k_, symObjAddr: 0x529C, symBinAddr: 0x47018, symSize: 0x28 }
  - { offset: 0xCC4DE, size: 0x8, addend: 0x0, symName: __RNvMNtCsfvfooZQ3Axs_4core6optionINtB2_6OptionINtNtCse1nGBsou5OW_5alloc5boxed3BoxNtNtCs6IAuOt8vWmF_3syn8generics14WherePredicateEE7is_someB1k_, symObjAddr: 0x52C4, symBinAddr: 0x47040, symSize: 0x28 }
  - { offset: 0xCC517, size: 0x8, addend: 0x0, symName: __RNvMNtCsfvfooZQ3Axs_4core6optionINtB2_6OptionINtNtCse1nGBsou5OW_5alloc5boxed3BoxNtNtCs6IAuOt8vWmF_3syn8lifetime8LifetimeEE4takeB1k_, symObjAddr: 0x52EC, symBinAddr: 0x47068, symSize: 0x28 }
  - { offset: 0xCC5AA, size: 0x8, addend: 0x0, symName: __RNvMNtCsfvfooZQ3Axs_4core6optionINtB2_6OptionINtNtCse1nGBsou5OW_5alloc5boxed3BoxNtNtCs6IAuOt8vWmF_3syn8lifetime8LifetimeEE6as_refB1k_, symObjAddr: 0x5314, symBinAddr: 0x47090, symSize: 0x4C }
  - { offset: 0xCC610, size: 0x8, addend: 0x0, symName: __RNvMNtCsfvfooZQ3Axs_4core6optionINtB2_6OptionINtNtCse1nGBsou5OW_5alloc5boxed3BoxNtNtCs6IAuOt8vWmF_3syn8lifetime8LifetimeEE7is_noneB1k_, symObjAddr: 0x5360, symBinAddr: 0x470DC, symSize: 0x28 }
  - { offset: 0xCC65A, size: 0x8, addend: 0x0, symName: __RNvMNtCsfvfooZQ3Axs_4core6optionINtB2_6OptionINtNtCse1nGBsou5OW_5alloc5boxed3BoxNtNtCs6IAuOt8vWmF_3syn8lifetime8LifetimeEE7is_someB1k_, symObjAddr: 0x5388, symBinAddr: 0x47104, symSize: 0x28 }
  - { offset: 0xCC6A0, size: 0x8, addend: 0x0, symName: __RNvMNtCsfvfooZQ3Axs_4core6optionINtB2_6OptionNtNtCs6IAuOt8vWmF_3syn3pat7PatRestE7is_someBL_, symObjAddr: 0x53D8, symBinAddr: 0x4712C, symSize: 0x2C }
  - { offset: 0xCC6F5, size: 0x8, addend: 0x0, symName: __RNvMNtCsfvfooZQ3Axs_4core6optionINtB2_6OptionNtNtCs6IAuOt8vWmF_3syn4expr5LabelE7is_noneBL_, symObjAddr: 0x5404, symBinAddr: 0x47158, symSize: 0x28 }
  - { offset: 0xCC73F, size: 0x8, addend: 0x0, symName: __RNvMNtCsfvfooZQ3Axs_4core6optionINtB2_6OptionNtNtCs6IAuOt8vWmF_3syn4expr5LabelE7is_someBL_, symObjAddr: 0x542C, symBinAddr: 0x47180, symSize: 0x28 }
  - { offset: 0xCC794, size: 0x8, addend: 0x0, symName: __RNvMNtCsfvfooZQ3Axs_4core6optionINtB2_6OptionNtNtCs6IAuOt8vWmF_3syn4item9SignatureE7is_noneBL_, symObjAddr: 0x5454, symBinAddr: 0x471A8, symSize: 0x28 }
  - { offset: 0xCC7EB, size: 0x8, addend: 0x0, symName: __RNvMNtCsfvfooZQ3Axs_4core6optionINtB2_6OptionNtNtCs6IAuOt8vWmF_3syn4path30AngleBracketedGenericArgumentsE7is_someBL_, symObjAddr: 0x547C, symBinAddr: 0x471D0, symSize: 0x2C }
  - { offset: 0xCC840, size: 0x8, addend: 0x0, symName: __RNvMNtCsfvfooZQ3Axs_4core6optionINtB2_6OptionNtNtCs6IAuOt8vWmF_3syn4path5QSelfE7is_noneBL_, symObjAddr: 0x54A8, symBinAddr: 0x471FC, symSize: 0x28 }
  - { offset: 0xCC88A, size: 0x8, addend: 0x0, symName: __RNvMNtCsfvfooZQ3Axs_4core6optionINtB2_6OptionNtNtCs6IAuOt8vWmF_3syn4path5QSelfE7is_someBL_, symObjAddr: 0x54D0, symBinAddr: 0x47224, symSize: 0x28 }
  - { offset: 0xCC8C3, size: 0x8, addend: 0x0, symName: __RNvMNtCsfvfooZQ3Axs_4core6optionINtB2_6OptionNtNtCs6IAuOt8vWmF_3syn5token2EqE7is_someBL_, symObjAddr: 0x54F8, symBinAddr: 0x4724C, symSize: 0x20 }
  - { offset: 0xCC918, size: 0x8, addend: 0x0, symName: __RNvMNtCsfvfooZQ3Axs_4core6optionINtB2_6OptionNtNtCs6IAuOt8vWmF_3syn5token2LtE7is_noneBL_, symObjAddr: 0x5518, symBinAddr: 0x4726C, symSize: 0x20 }
  - { offset: 0xCC96F, size: 0x8, addend: 0x0, symName: __RNvMNtCsfvfooZQ3Axs_4core6optionINtB2_6OptionNtNtCs6IAuOt8vWmF_3syn5token2OrE7is_someBL_, symObjAddr: 0x5538, symBinAddr: 0x4728C, symSize: 0x20 }
  - { offset: 0xCC9C4, size: 0x8, addend: 0x0, symName: __RNvMNtCsfvfooZQ3Axs_4core6optionINtB2_6OptionNtNtCs6IAuOt8vWmF_3syn5token3BoxE7is_noneBL_, symObjAddr: 0x5558, symBinAddr: 0x472AC, symSize: 0x20 }
  - { offset: 0xCCA0E, size: 0x8, addend: 0x0, symName: __RNvMNtCsfvfooZQ3Axs_4core6optionINtB2_6OptionNtNtCs6IAuOt8vWmF_3syn5token3BoxE7is_someBL_, symObjAddr: 0x5578, symBinAddr: 0x472CC, symSize: 0x20 }
  - { offset: 0xCCA47, size: 0x8, addend: 0x0, symName: __RNvMNtCsfvfooZQ3Axs_4core6optionINtB2_6OptionNtNtCs6IAuOt8vWmF_3syn5token3MutE6as_refBL_, symObjAddr: 0x5598, symBinAddr: 0x472EC, symSize: 0x48 }
  - { offset: 0xCCAAD, size: 0x8, addend: 0x0, symName: __RNvMNtCsfvfooZQ3Axs_4core6optionINtB2_6OptionNtNtCs6IAuOt8vWmF_3syn5token3MutE7is_noneBL_, symObjAddr: 0x55E0, symBinAddr: 0x47334, symSize: 0x20 }
  - { offset: 0xCCAF7, size: 0x8, addend: 0x0, symName: __RNvMNtCsfvfooZQ3Axs_4core6optionINtB2_6OptionNtNtCs6IAuOt8vWmF_3syn5token3MutE7is_someBL_, symObjAddr: 0x5600, symBinAddr: 0x47354, symSize: 0x20 }
  - { offset: 0xCCB30, size: 0x8, addend: 0x0, symName: __RNvMNtCsfvfooZQ3Axs_4core6optionINtB2_6OptionNtNtCs6IAuOt8vWmF_3syn5token3RawE7is_someBL_, symObjAddr: 0x5620, symBinAddr: 0x47374, symSize: 0x20 }
  - { offset: 0xCCB85, size: 0x8, addend: 0x0, symName: __RNvMNtCsfvfooZQ3Axs_4core6optionINtB2_6OptionNtNtCs6IAuOt8vWmF_3syn5token3RefE7is_noneBL_, symObjAddr: 0x5640, symBinAddr: 0x47394, symSize: 0x20 }
  - { offset: 0xCCBCF, size: 0x8, addend: 0x0, symName: __RNvMNtCsfvfooZQ3Axs_4core6optionINtB2_6OptionNtNtCs6IAuOt8vWmF_3syn5token3RefE7is_someBL_, symObjAddr: 0x5660, symBinAddr: 0x473B4, symSize: 0x20 }
  - { offset: 0xCCC24, size: 0x8, addend: 0x0, symName: __RNvMNtCsfvfooZQ3Axs_4core6optionINtB2_6OptionNtNtCs6IAuOt8vWmF_3syn5token4SemiE7is_noneBL_, symObjAddr: 0x5680, symBinAddr: 0x473D4, symSize: 0x20 }
  - { offset: 0xCCC6E, size: 0x8, addend: 0x0, symName: __RNvMNtCsfvfooZQ3Axs_4core6optionINtB2_6OptionNtNtCs6IAuOt8vWmF_3syn5token4SemiE7is_someBL_, symObjAddr: 0x56A0, symBinAddr: 0x473F4, symSize: 0x20 }
  - { offset: 0xCCCA7, size: 0x8, addend: 0x0, symName: __RNvMNtCsfvfooZQ3Axs_4core6optionINtB2_6OptionNtNtCs6IAuOt8vWmF_3syn5token4StarE7is_someBL_, symObjAddr: 0x56C0, symBinAddr: 0x47414, symSize: 0x20 }
  - { offset: 0xCCCFC, size: 0x8, addend: 0x0, symName: __RNvMNtCsfvfooZQ3Axs_4core6optionINtB2_6OptionNtNtCs6IAuOt8vWmF_3syn5token5ColonE7is_noneBL_, symObjAddr: 0x56E0, symBinAddr: 0x47434, symSize: 0x20 }
  - { offset: 0xCCD46, size: 0x8, addend: 0x0, symName: __RNvMNtCsfvfooZQ3Axs_4core6optionINtB2_6OptionNtNtCs6IAuOt8vWmF_3syn5token5ColonE7is_someBL_, symObjAddr: 0x5700, symBinAddr: 0x47454, symSize: 0x20 }
  - { offset: 0xCCD9B, size: 0x8, addend: 0x0, symName: __RNvMNtCsfvfooZQ3Axs_4core6optionINtB2_6OptionNtNtCs6IAuOt8vWmF_3syn5token5CommaE7is_noneBL_, symObjAddr: 0x5720, symBinAddr: 0x47474, symSize: 0x20 }
  - { offset: 0xCCE0E, size: 0x8, addend: 0x0, symName: __RNvMNtCsfvfooZQ3Axs_4core6optionINtB2_6OptionNtNtCs6IAuOt8vWmF_3syn5token6UnsafeE7is_noneBL_, symObjAddr: 0x5740, symBinAddr: 0x47494, symSize: 0x20 }
  - { offset: 0xCCE58, size: 0x8, addend: 0x0, symName: __RNvMNtCsfvfooZQ3Axs_4core6optionINtB2_6OptionNtNtCs6IAuOt8vWmF_3syn5token6UnsafeE7is_someBL_, symObjAddr: 0x5760, symBinAddr: 0x474B4, symSize: 0x20 }
  - { offset: 0xCCEAD, size: 0x8, addend: 0x0, symName: __RNvMNtCsfvfooZQ3Axs_4core6optionINtB2_6OptionNtNtCs6IAuOt8vWmF_3syn5token7DefaultE7is_noneBL_, symObjAddr: 0x5780, symBinAddr: 0x474D4, symSize: 0x20 }
  - { offset: 0xCCF20, size: 0x8, addend: 0x0, symName: __RNvMNtCsfvfooZQ3Axs_4core6optionINtB2_6OptionNtNtCs6IAuOt8vWmF_3syn5token7PathSepE7is_noneBL_, symObjAddr: 0x57A0, symBinAddr: 0x474F4, symSize: 0x20 }
  - { offset: 0xCCF6A, size: 0x8, addend: 0x0, symName: __RNvMNtCsfvfooZQ3Axs_4core6optionINtB2_6OptionNtNtCs6IAuOt8vWmF_3syn5token7PathSepE7is_someBL_, symObjAddr: 0x57C0, symBinAddr: 0x47514, symSize: 0x20 }
  - { offset: 0xCCFBF, size: 0x8, addend: 0x0, symName: __RNvMNtCsfvfooZQ3Axs_4core6optionINtB2_6OptionNtNtCs6IAuOt8vWmF_3syn8generics11WhereClauseE7is_noneBL_, symObjAddr: 0x5830, symBinAddr: 0x47534, symSize: 0x2C }
  - { offset: 0xCD032, size: 0x8, addend: 0x0, symName: __RNvMNtCsfvfooZQ3Axs_4core6optionINtB2_6OptionNtNtCs6IAuOt8vWmF_3syn8generics14BoundLifetimesE7is_noneBL_, symObjAddr: 0x585C, symBinAddr: 0x47560, symSize: 0x2C }
  - { offset: 0xCD07C, size: 0x8, addend: 0x0, symName: __RNvMNtCsfvfooZQ3Axs_4core6optionINtB2_6OptionNtNtCs6IAuOt8vWmF_3syn8generics14BoundLifetimesE7is_someBL_, symObjAddr: 0x5888, symBinAddr: 0x4758C, symSize: 0x2C }
  - { offset: 0xCD0D1, size: 0x8, addend: 0x0, symName: __RNvMNtCsfvfooZQ3Axs_4core6optionINtB2_6OptionNtNtCs6IAuOt8vWmF_3syn8lifetime8LifetimeE7is_noneBL_, symObjAddr: 0x5900, symBinAddr: 0x475B8, symSize: 0x28 }
  - { offset: 0xCD11B, size: 0x8, addend: 0x0, symName: __RNvMNtCsfvfooZQ3Axs_4core6optionINtB2_6OptionNtNtCs6IAuOt8vWmF_3syn8lifetime8LifetimeE7is_someBL_, symObjAddr: 0x5928, symBinAddr: 0x475E0, symSize: 0x28 }
  - { offset: 0xCD154, size: 0x8, addend: 0x0, symName: __RNvMNtCsfvfooZQ3Axs_4core6optionINtB2_6OptionNtNtNtCs6IAuOt8vWmF_3syn3pat7parsing13PatRangeBoundE7is_someBN_, symObjAddr: 0x5950, symBinAddr: 0x47608, symSize: 0x30 }
  - { offset: 0xCD18D, size: 0x8, addend: 0x0, symName: __RNvMNtCsfvfooZQ3Axs_4core6optionINtB2_6OptionRNtCs3cP53eQoTwO_11proc_macro25IdentE7is_someCs6IAuOt8vWmF_3syn, symObjAddr: 0x5980, symBinAddr: 0x47638, symSize: 0x28 }
  - { offset: 0xCD1D3, size: 0x8, addend: 0x0, symName: __RNvMNtCsfvfooZQ3Axs_4core6optionINtB2_6OptionRRNtNtCs6IAuOt8vWmF_3syn5token5CommaE7is_someBN_, symObjAddr: 0x59A8, symBinAddr: 0x47660, symSize: 0x28 }
  - { offset: 0xCD228, size: 0x8, addend: 0x0, symName: __RNvMNtCsfvfooZQ3Axs_4core6optionINtB2_6OptionTIBv_NtNtCs6IAuOt8vWmF_3syn5token3NotENtNtBQ_4path4PathNtBO_3ForEE7is_noneBQ_, symObjAddr: 0x59D0, symBinAddr: 0x47688, symSize: 0x2C }
  - { offset: 0xCD2B9, size: 0x8, addend: 0x0, symName: __RNvMNtCsfvfooZQ3Axs_4core6optionINtB2_6OptionTNtCs3cP53eQoTwO_11proc_macro24SpanNtBK_9DelimiterEE7is_noneCs6IAuOt8vWmF_3syn, symObjAddr: 0x59FC, symBinAddr: 0x476B4, symSize: 0x28 }
  - { offset: 0xCD32C, size: 0x8, addend: 0x0, symName: __RNvMNtCsfvfooZQ3Axs_4core6optionINtB2_6OptionTNtCs3cP53eQoTwO_11proc_macro25IdentNtNtCs6IAuOt8vWmF_3syn5token5ColonEE7is_noneB1l_, symObjAddr: 0x5A24, symBinAddr: 0x476DC, symSize: 0x28 }
  - { offset: 0xCD3A1, size: 0x8, addend: 0x0, symName: __RNvMNtCsfvfooZQ3Axs_4core6optionINtB2_6OptionTNtCs3cP53eQoTwO_11proc_macro25IdentNtNtCs6IAuOt8vWmF_3syn6buffer6CursorEE7is_someB1l_, symObjAddr: 0x5A4C, symBinAddr: 0x47704, symSize: 0x28 }
  - { offset: 0xCD405, size: 0x8, addend: 0x0, symName: __RNvMNtCsfvfooZQ3Axs_4core6optionINtB2_6OptionTNtNtCs6IAuOt8vWmF_3syn5token2EqNtNtBM_2ty4TypeEE7is_someBM_, symObjAddr: 0x5AF0, symBinAddr: 0x4772C, symSize: 0x28 }
  - { offset: 0xCD43E, size: 0x8, addend: 0x0, symName: __RNvMNtCsfvfooZQ3Axs_4core6optionINtB2_6OptionTNtNtCs6IAuOt8vWmF_3syn5token3AndIBv_NtNtBM_8lifetime8LifetimeEEE6as_refBM_, symObjAddr: 0x5B18, symBinAddr: 0x47754, symSize: 0x4C }
  - { offset: 0xCD488, size: 0x8, addend: 0x0, symName: __RNvMNtCsfvfooZQ3Axs_4core6optionINtB2_6OptionTNtNtCs6IAuOt8vWmF_3syn5token3AndIBv_NtNtBM_8lifetime8LifetimeEEE7is_someBM_, symObjAddr: 0x5B64, symBinAddr: 0x477A0, symSize: 0x28 }
  - { offset: 0xCD4CE, size: 0x8, addend: 0x0, symName: __RNvMNtCsfvfooZQ3Axs_4core6optionINtB2_6OptionTNtNtCs6IAuOt8vWmF_3syn5token4ElseINtNtCse1nGBsou5OW_5alloc5boxed3BoxNtNtBM_4expr4ExprEEE6as_mutBM_, symObjAddr: 0x5B8C, symBinAddr: 0x477C8, symSize: 0x4C }
  - { offset: 0xCD525, size: 0x8, addend: 0x0, symName: __RNvMNtCsfvfooZQ3Axs_4core6optionINtB2_6OptionTNtNtCs6IAuOt8vWmF_3syn5token4ElseINtNtCse1nGBsou5OW_5alloc5boxed3BoxNtNtBM_4expr4ExprEEE7is_someBM_, symObjAddr: 0x5BD8, symBinAddr: 0x47814, symSize: 0x28 }
  - { offset: 0xCD587, size: 0x8, addend: 0x0, symName: __RNvMNtCsfvfooZQ3Axs_4core6optionINtB2_6OptionTNtNtCs6IAuOt8vWmF_3syn6buffer6CursorNtNtCs3cP53eQoTwO_11proc_macro25extra9DelimSpanBI_EE7is_someBM_, symObjAddr: 0x5C28, symBinAddr: 0x4783C, symSize: 0x20 }
  - { offset: 0xCD5C0, size: 0x8, addend: 0x0, symName: __RNvMNtCsfvfooZQ3Axs_4core6optionINtB2_6OptionTNtNtCs6IAuOt8vWmF_3syn8lifetime8LifetimeNtNtBM_6buffer6CursorEE7is_someBM_, symObjAddr: 0x5C48, symBinAddr: 0x4785C, symSize: 0x28 }
  - { offset: 0xCD5EC, size: 0x8, addend: 0x0, symName: __RNvMNtCsfvfooZQ3Axs_4core6optionINtB2_6OptioncE9unwrap_orCs6IAuOt8vWmF_3syn, symObjAddr: 0x5C70, symBinAddr: 0x47884, symSize: 0x4C }
  - { offset: 0xCD6CC, size: 0x8, addend: 0x0, symName: __RNvXs3_NtCs2cqEZUIJimJ_5quote9to_tokensINtNtCsfvfooZQ3Axs_4core6option6OptionINtNtCse1nGBsou5OW_5alloc5boxed3BoxNtNtCs6IAuOt8vWmF_3syn4expr4ExprEENtB5_8ToTokens9to_tokensB1Q_, symObjAddr: 0x6154, symBinAddr: 0x47AA0, symSize: 0x84 }
  - { offset: 0xCD728, size: 0x8, addend: 0x0, symName: __RNvXs3_NtCs2cqEZUIJimJ_5quote9to_tokensINtNtCsfvfooZQ3Axs_4core6option6OptionNtCs3cP53eQoTwO_11proc_macro25IdentENtB5_8ToTokens9to_tokensCs6IAuOt8vWmF_3syn, symObjAddr: 0x61D8, symBinAddr: 0x47B24, symSize: 0x84 }
  - { offset: 0xCD784, size: 0x8, addend: 0x0, symName: __RNvXs3_NtCs2cqEZUIJimJ_5quote9to_tokensINtNtCsfvfooZQ3Axs_4core6option6OptionNtNtCs6IAuOt8vWmF_3syn2ty3AbiENtB5_8ToTokens9to_tokensB1h_, symObjAddr: 0x625C, symBinAddr: 0x47BA8, symSize: 0x80 }
  - { offset: 0xCD7E0, size: 0x8, addend: 0x0, symName: __RNvXs3_NtCs2cqEZUIJimJ_5quote9to_tokensINtNtCsfvfooZQ3Axs_4core6option6OptionNtNtCs6IAuOt8vWmF_3syn3lit6LitStrENtB5_8ToTokens9to_tokensB1h_, symObjAddr: 0x62DC, symBinAddr: 0x47C28, symSize: 0x84 }
  - { offset: 0xCD83C, size: 0x8, addend: 0x0, symName: __RNvXs3_NtCs2cqEZUIJimJ_5quote9to_tokensINtNtCsfvfooZQ3Axs_4core6option6OptionNtNtCs6IAuOt8vWmF_3syn3pat7PatRestENtB5_8ToTokens9to_tokensB1h_, symObjAddr: 0x6360, symBinAddr: 0x47CAC, symSize: 0x88 }
  - { offset: 0xCD898, size: 0x8, addend: 0x0, symName: __RNvXs3_NtCs2cqEZUIJimJ_5quote9to_tokensINtNtCsfvfooZQ3Axs_4core6option6OptionNtNtCs6IAuOt8vWmF_3syn4expr5LabelENtB5_8ToTokens9to_tokensB1h_, symObjAddr: 0x63E8, symBinAddr: 0x47D34, symSize: 0x84 }
  - { offset: 0xCD8F4, size: 0x8, addend: 0x0, symName: __RNvXs3_NtCs2cqEZUIJimJ_5quote9to_tokensINtNtCsfvfooZQ3Axs_4core6option6OptionNtNtCs6IAuOt8vWmF_3syn4path30AngleBracketedGenericArgumentsENtB5_8ToTokens9to_tokensB1h_, symObjAddr: 0x646C, symBinAddr: 0x47DB8, symSize: 0x88 }
  - { offset: 0xCD950, size: 0x8, addend: 0x0, symName: __RNvXs3_NtCs2cqEZUIJimJ_5quote9to_tokensINtNtCsfvfooZQ3Axs_4core6option6OptionNtNtCs6IAuOt8vWmF_3syn5token2InENtB5_8ToTokens9to_tokensB1h_, symObjAddr: 0x64F4, symBinAddr: 0x47E40, symSize: 0x80 }
  - { offset: 0xCD9AC, size: 0x8, addend: 0x0, symName: __RNvXs3_NtCs2cqEZUIJimJ_5quote9to_tokensINtNtCsfvfooZQ3Axs_4core6option6OptionNtNtCs6IAuOt8vWmF_3syn5token2OrENtB5_8ToTokens9to_tokensB1h_, symObjAddr: 0x6574, symBinAddr: 0x47EC0, symSize: 0x80 }
  - { offset: 0xCDA08, size: 0x8, addend: 0x0, symName: __RNvXs3_NtCs2cqEZUIJimJ_5quote9to_tokensINtNtCsfvfooZQ3Axs_4core6option6OptionNtNtCs6IAuOt8vWmF_3syn5token3DynENtB5_8ToTokens9to_tokensB1h_, symObjAddr: 0x65F4, symBinAddr: 0x47F40, symSize: 0x80 }
  - { offset: 0xCDA64, size: 0x8, addend: 0x0, symName: __RNvXs3_NtCs2cqEZUIJimJ_5quote9to_tokensINtNtCsfvfooZQ3Axs_4core6option6OptionNtNtCs6IAuOt8vWmF_3syn5token3MutENtB5_8ToTokens9to_tokensB1h_, symObjAddr: 0x6674, symBinAddr: 0x47FC0, symSize: 0x80 }
  - { offset: 0xCDAC0, size: 0x8, addend: 0x0, symName: __RNvXs3_NtCs2cqEZUIJimJ_5quote9to_tokensINtNtCsfvfooZQ3Axs_4core6option6OptionNtNtCs6IAuOt8vWmF_3syn5token3NotENtB5_8ToTokens9to_tokensB1h_, symObjAddr: 0x66F4, symBinAddr: 0x48040, symSize: 0x80 }
  - { offset: 0xCDB1C, size: 0x8, addend: 0x0, symName: __RNvXs3_NtCs2cqEZUIJimJ_5quote9to_tokensINtNtCsfvfooZQ3Axs_4core6option6OptionNtNtCs6IAuOt8vWmF_3syn5token3RefENtB5_8ToTokens9to_tokensB1h_, symObjAddr: 0x6774, symBinAddr: 0x480C0, symSize: 0x80 }
  - { offset: 0xCDB78, size: 0x8, addend: 0x0, symName: __RNvXs3_NtCs2cqEZUIJimJ_5quote9to_tokensINtNtCsfvfooZQ3Axs_4core6option6OptionNtNtCs6IAuOt8vWmF_3syn5token4AutoENtB5_8ToTokens9to_tokensB1h_, symObjAddr: 0x67F4, symBinAddr: 0x48140, symSize: 0x80 }
  - { offset: 0xCDBD4, size: 0x8, addend: 0x0, symName: __RNvXs3_NtCs2cqEZUIJimJ_5quote9to_tokensINtNtCsfvfooZQ3Axs_4core6option6OptionNtNtCs6IAuOt8vWmF_3syn5token4MoveENtB5_8ToTokens9to_tokensB1h_, symObjAddr: 0x6874, symBinAddr: 0x481C0, symSize: 0x80 }
  - { offset: 0xCDC30, size: 0x8, addend: 0x0, symName: __RNvXs3_NtCs2cqEZUIJimJ_5quote9to_tokensINtNtCsfvfooZQ3Axs_4core6option6OptionNtNtCs6IAuOt8vWmF_3syn5token4SemiENtB5_8ToTokens9to_tokensB1h_, symObjAddr: 0x68F4, symBinAddr: 0x48240, symSize: 0x80 }
  - { offset: 0xCDC8C, size: 0x8, addend: 0x0, symName: __RNvXs3_NtCs2cqEZUIJimJ_5quote9to_tokensINtNtCsfvfooZQ3Axs_4core6option6OptionNtNtCs6IAuOt8vWmF_3syn5token5AsyncENtB5_8ToTokens9to_tokensB1h_, symObjAddr: 0x6974, symBinAddr: 0x482C0, symSize: 0x80 }
  - { offset: 0xCDCE8, size: 0x8, addend: 0x0, symName: __RNvXs3_NtCs2cqEZUIJimJ_5quote9to_tokensINtNtCsfvfooZQ3Axs_4core6option6OptionNtNtCs6IAuOt8vWmF_3syn5token5CommaENtB5_8ToTokens9to_tokensB1h_, symObjAddr: 0x69F4, symBinAddr: 0x48340, symSize: 0x80 }
  - { offset: 0xCDD44, size: 0x8, addend: 0x0, symName: __RNvXs3_NtCs2cqEZUIJimJ_5quote9to_tokensINtNtCsfvfooZQ3Axs_4core6option6OptionNtNtCs6IAuOt8vWmF_3syn5token5ConstENtB5_8ToTokens9to_tokensB1h_, symObjAddr: 0x6A74, symBinAddr: 0x483C0, symSize: 0x80 }
  - { offset: 0xCDDA0, size: 0x8, addend: 0x0, symName: __RNvXs3_NtCs2cqEZUIJimJ_5quote9to_tokensINtNtCsfvfooZQ3Axs_4core6option6OptionNtNtCs6IAuOt8vWmF_3syn5token6StaticENtB5_8ToTokens9to_tokensB1h_, symObjAddr: 0x6AF4, symBinAddr: 0x48440, symSize: 0x80 }
  - { offset: 0xCDDFC, size: 0x8, addend: 0x0, symName: __RNvXs3_NtCs2cqEZUIJimJ_5quote9to_tokensINtNtCsfvfooZQ3Axs_4core6option6OptionNtNtCs6IAuOt8vWmF_3syn5token6UnsafeENtB5_8ToTokens9to_tokensB1h_, symObjAddr: 0x6B74, symBinAddr: 0x484C0, symSize: 0x80 }
  - { offset: 0xCDE58, size: 0x8, addend: 0x0, symName: __RNvXs3_NtCs2cqEZUIJimJ_5quote9to_tokensINtNtCsfvfooZQ3Axs_4core6option6OptionNtNtCs6IAuOt8vWmF_3syn5token7DefaultENtB5_8ToTokens9to_tokensB1h_, symObjAddr: 0x6BF4, symBinAddr: 0x48540, symSize: 0x80 }
  - { offset: 0xCDEB4, size: 0x8, addend: 0x0, symName: __RNvXs3_NtCs2cqEZUIJimJ_5quote9to_tokensINtNtCsfvfooZQ3Axs_4core6option6OptionNtNtCs6IAuOt8vWmF_3syn5token7PathSepENtB5_8ToTokens9to_tokensB1h_, symObjAddr: 0x6C74, symBinAddr: 0x485C0, symSize: 0x80 }
  - { offset: 0xCDF10, size: 0x8, addend: 0x0, symName: __RNvXs3_NtCs2cqEZUIJimJ_5quote9to_tokensINtNtCsfvfooZQ3Axs_4core6option6OptionNtNtCs6IAuOt8vWmF_3syn8generics11WhereClauseENtB5_8ToTokens9to_tokensB1h_, symObjAddr: 0x6CF4, symBinAddr: 0x48640, symSize: 0x88 }
  - { offset: 0xCDF6C, size: 0x8, addend: 0x0, symName: __RNvXs3_NtCs2cqEZUIJimJ_5quote9to_tokensINtNtCsfvfooZQ3Axs_4core6option6OptionNtNtCs6IAuOt8vWmF_3syn8generics14BoundLifetimesENtB5_8ToTokens9to_tokensB1h_, symObjAddr: 0x6D7C, symBinAddr: 0x486C8, symSize: 0x88 }
  - { offset: 0xCDFC8, size: 0x8, addend: 0x0, symName: __RNvXs3_NtCs2cqEZUIJimJ_5quote9to_tokensINtNtCsfvfooZQ3Axs_4core6option6OptionNtNtCs6IAuOt8vWmF_3syn8lifetime8LifetimeENtB5_8ToTokens9to_tokensB1h_, symObjAddr: 0x6E04, symBinAddr: 0x48750, symSize: 0x84 }
  - { offset: 0xCE024, size: 0x8, addend: 0x0, symName: __RNvXs3_NtCs2cqEZUIJimJ_5quote9to_tokensINtNtCsfvfooZQ3Axs_4core6option6OptionRRNtNtCs6IAuOt8vWmF_3syn5token7PathSepENtB5_8ToTokens9to_tokensB1j_, symObjAddr: 0x6F0C, symBinAddr: 0x487D4, symSize: 0x84 }
  - { offset: 0xCE7B6, size: 0x8, addend: 0x0, symName: __RINvNtCse1nGBsou5OW_5alloc3str17join_generic_copyehReECs6IAuOt8vWmF_3syn, symObjAddr: 0x0, symBinAddr: 0x4B9F4, symSize: 0x160C }
  - { offset: 0xD16B1, size: 0x8, addend: 0x0, symName: __RNvNtNtCs6IAuOt8vWmF_3syn3pat7parsing14multi_pat_impl, symObjAddr: 0xB210, symBinAddr: 0x55244, symSize: 0x5DC }
  - { offset: 0xD17E6, size: 0x8, addend: 0x0, symName: __RNvNtNtCs6IAuOt8vWmF_3syn3pat7parsing36pat_path_or_macro_or_struct_or_range, symObjAddr: 0xB7EC, symBinAddr: 0x55820, symSize: 0x728 }
  - { offset: 0xD18DE, size: 0x8, addend: 0x0, symName: __RNvNtNtCs6IAuOt8vWmF_3syn3pat7parsing8pat_wild, symObjAddr: 0xBF14, symBinAddr: 0x55F48, symSize: 0x138 }
  - { offset: 0xD192A, size: 0x8, addend: 0x0, symName: __RNvNtNtCs6IAuOt8vWmF_3syn3pat7parsing7pat_box, symObjAddr: 0xC04C, symBinAddr: 0x56080, symSize: 0x208 }
  - { offset: 0xD19B5, size: 0x8, addend: 0x0, symName: __RNvNtNtCs6IAuOt8vWmF_3syn3pat7parsing9pat_ident, symObjAddr: 0xC254, symBinAddr: 0x56288, symSize: 0x618 }
  - { offset: 0xD1B28, size: 0x8, addend: 0x0, symName: __RNvNtNtCs6IAuOt8vWmF_3syn3pat7parsing16pat_tuple_struct, symObjAddr: 0xC86C, symBinAddr: 0x568A0, symSize: 0x570 }
  - { offset: 0xD1C73, size: 0x8, addend: 0x0, symName: __RNvNtNtCs6IAuOt8vWmF_3syn3pat7parsing10pat_struct, symObjAddr: 0xCDDC, symBinAddr: 0x56E10, symSize: 0x92C }
  - { offset: 0xD1E41, size: 0x8, addend: 0x0, symName: __RNvNtNtCs6IAuOt8vWmF_3syn3pat7parsing9field_pat, symObjAddr: 0xD708, symBinAddr: 0x5773C, symSize: 0xB80 }
  - { offset: 0xD2083, size: 0x8, addend: 0x0, symName: __RNvNtNtCs6IAuOt8vWmF_3syn3pat7parsing9pat_range, symObjAddr: 0xE288, symBinAddr: 0x582BC, symSize: 0x4F4 }
  - { offset: 0xD218A, size: 0x8, addend: 0x0, symName: __RNvNtNtCs6IAuOt8vWmF_3syn3pat7parsing19pat_range_half_open, symObjAddr: 0xE77C, symBinAddr: 0x587B0, symSize: 0x3A4 }
  - { offset: 0xD225A, size: 0x8, addend: 0x0, symName: __RNvNtNtCs6IAuOt8vWmF_3syn3pat7parsing18pat_paren_or_tuple, symObjAddr: 0xEB20, symBinAddr: 0x58B54, symSize: 0x694 }
  - { offset: 0xD23A4, size: 0x8, addend: 0x0, symName: __RNvNtNtCs6IAuOt8vWmF_3syn3pat7parsing13pat_reference, symObjAddr: 0xF1B4, symBinAddr: 0x591E8, symSize: 0x348 }
  - { offset: 0xD2506, size: 0x8, addend: 0x0, symName: __RNvNtNtCs6IAuOt8vWmF_3syn3pat7parsing16pat_lit_or_range, symObjAddr: 0xF4FC, symBinAddr: 0x59530, symSize: 0x538 }
  - { offset: 0xD2623, size: 0x8, addend: 0x0, symName: __RNvNtNtCs6IAuOt8vWmF_3syn3pat7parsing15pat_range_bound, symObjAddr: 0xFD44, symBinAddr: 0x59D78, symSize: 0x6CC }
  - { offset: 0xD26CC, size: 0x8, addend: 0x0, symName: __RNvNtNtCs6IAuOt8vWmF_3syn3pat7parsing9pat_slice, symObjAddr: 0x10410, symBinAddr: 0x5A444, symSize: 0x700 }
  - { offset: 0xD288B, size: 0x8, addend: 0x0, symName: __RNvNtNtCs6IAuOt8vWmF_3syn3pat7parsing9pat_const, symObjAddr: 0x10B10, symBinAddr: 0x5AB44, symSize: 0x3A0 }
  - { offset: 0xD29A8, size: 0x8, addend: 0x0, symName: __RNvXNtNtCs6IAuOt8vWmF_3syn3pat8printingNtB4_8PatIdentNtNtCs2cqEZUIJimJ_5quote9to_tokens8ToTokens9to_tokens, symObjAddr: 0x10EB0, symBinAddr: 0x5AEE4, symSize: 0xF0 }
  - { offset: 0xD2A15, size: 0x8, addend: 0x0, symName: __RNvXs_NtNtCs6IAuOt8vWmF_3syn3pat8printingNtB6_5PatOrNtNtCs2cqEZUIJimJ_5quote9to_tokens8ToTokens9to_tokens, symObjAddr: 0x10FA0, symBinAddr: 0x5AFD4, symSize: 0x74 }
  - { offset: 0xD2A54, size: 0x8, addend: 0x0, symName: __RNvXs0_NtNtCs6IAuOt8vWmF_3syn3pat8printingNtB7_8PatParenNtNtCs2cqEZUIJimJ_5quote9to_tokens8ToTokens9to_tokens, symObjAddr: 0x11014, symBinAddr: 0x5B048, symSize: 0x68 }
  - { offset: 0xD2A93, size: 0x8, addend: 0x0, symName: __RNvXs1_NtNtCs6IAuOt8vWmF_3syn3pat8printingNtB7_12PatReferenceNtNtCs2cqEZUIJimJ_5quote9to_tokens8ToTokens9to_tokens, symObjAddr: 0x1107C, symBinAddr: 0x5B0B0, symSize: 0x84 }
  - { offset: 0xD2AD2, size: 0x8, addend: 0x0, symName: __RNvXs2_NtNtCs6IAuOt8vWmF_3syn3pat8printingNtB7_7PatRestNtNtCs2cqEZUIJimJ_5quote9to_tokens8ToTokens9to_tokens, symObjAddr: 0x11100, symBinAddr: 0x5B134, symSize: 0x64 }
  - { offset: 0xD2B11, size: 0x8, addend: 0x0, symName: __RNvXs3_NtNtCs6IAuOt8vWmF_3syn3pat8printingNtB7_8PatSliceNtNtCs2cqEZUIJimJ_5quote9to_tokens8ToTokens9to_tokens, symObjAddr: 0x11164, symBinAddr: 0x5B198, symSize: 0x68 }
  - { offset: 0xD2B50, size: 0x8, addend: 0x0, symName: __RNvXs4_NtNtCs6IAuOt8vWmF_3syn3pat8printingNtB7_9PatStructNtNtCs2cqEZUIJimJ_5quote9to_tokens8ToTokens9to_tokens, symObjAddr: 0x111CC, symBinAddr: 0x5B200, symSize: 0x88 }
  - { offset: 0xD2B8F, size: 0x8, addend: 0x0, symName: __RNvXs5_NtNtCs6IAuOt8vWmF_3syn3pat8printingNtB7_8PatTupleNtNtCs2cqEZUIJimJ_5quote9to_tokens8ToTokens9to_tokens, symObjAddr: 0x11254, symBinAddr: 0x5B288, symSize: 0x68 }
  - { offset: 0xD2BCE, size: 0x8, addend: 0x0, symName: __RNvXs6_NtNtCs6IAuOt8vWmF_3syn3pat8printingNtB7_14PatTupleStructNtNtCs2cqEZUIJimJ_5quote9to_tokens8ToTokens9to_tokens, symObjAddr: 0x112BC, symBinAddr: 0x5B2F0, symSize: 0x88 }
  - { offset: 0xD2C0D, size: 0x8, addend: 0x0, symName: __RNvXs7_NtNtCs6IAuOt8vWmF_3syn3pat8printingNtB7_7PatTypeNtNtCs2cqEZUIJimJ_5quote9to_tokens8ToTokens9to_tokens, symObjAddr: 0x11344, symBinAddr: 0x5B378, symSize: 0x84 }
  - { offset: 0xD2C4C, size: 0x8, addend: 0x0, symName: __RNvXs8_NtNtCs6IAuOt8vWmF_3syn3pat8printingNtB7_7PatWildNtNtCs2cqEZUIJimJ_5quote9to_tokens8ToTokens9to_tokens, symObjAddr: 0x113C8, symBinAddr: 0x5B3FC, symSize: 0x64 }
  - { offset: 0xD2C8B, size: 0x8, addend: 0x0, symName: __RNvXs9_NtNtCs6IAuOt8vWmF_3syn3pat8printingNtB7_8FieldPatNtNtCs2cqEZUIJimJ_5quote9to_tokens8ToTokens9to_tokens, symObjAddr: 0x1142C, symBinAddr: 0x5B460, symSize: 0xC0 }
  - { offset: 0xD2CEE, size: 0x8, addend: 0x0, symName: __RNcNtNtNtCs6IAuOt8vWmF_3syn3pat3Pat5Ident0B7_, symObjAddr: 0x1204C, symBinAddr: 0x5B520, symSize: 0x3C }
  - { offset: 0xD2D1D, size: 0x8, addend: 0x0, symName: __RNcNtNtNtCs6IAuOt8vWmF_3syn3pat3Pat9Reference0B7_, symObjAddr: 0x12088, symBinAddr: 0x5B55C, symSize: 0x40 }
  - { offset: 0xD2D4C, size: 0x8, addend: 0x0, symName: __RNcNtNtNtCs6IAuOt8vWmF_3syn3pat3Pat5Slice0B7_, symObjAddr: 0x120C8, symBinAddr: 0x5B59C, symSize: 0x40 }
  - { offset: 0xD2D7B, size: 0x8, addend: 0x0, symName: __RNcNtNtNtCs6IAuOt8vWmF_3syn3pat3Pat6Struct0B7_, symObjAddr: 0x12108, symBinAddr: 0x5B5DC, symSize: 0x30 }
  - { offset: 0xD2DAA, size: 0x8, addend: 0x0, symName: __RNcNtNtNtCs6IAuOt8vWmF_3syn3pat3Pat11TupleStruct0B7_, symObjAddr: 0x12138, symBinAddr: 0x5B60C, symSize: 0x40 }
  - { offset: 0xD2DD9, size: 0x8, addend: 0x0, symName: __RNcNtNtNtCs6IAuOt8vWmF_3syn3pat3Pat8Verbatim0B7_, symObjAddr: 0x12178, symBinAddr: 0x5B64C, symSize: 0x20 }
  - { offset: 0xD2E07, size: 0x8, addend: 0x0, symName: __RNcNtNtNtCs6IAuOt8vWmF_3syn3pat3Pat4Wild0B7_, symObjAddr: 0x12198, symBinAddr: 0x5B66C, symSize: 0x24 }
  - { offset: 0xD2E36, size: 0x8, addend: 0x0, symName: __RNvXse_NtCs6IAuOt8vWmF_3syn3patNtB5_3PatNtNtCs2cqEZUIJimJ_5quote9to_tokens8ToTokens9to_tokens, symObjAddr: 0x12664, symBinAddr: 0x5B690, symSize: 0x250 }
  - { offset: 0xD3322, size: 0x8, addend: 0x0, symName: __RINvNtNtCs6IAuOt8vWmF_3syn3lit5value4byteNtNtCse1nGBsou5OW_5alloc6string6StringEB6_, symObjAddr: 0x3CE4, symBinAddr: 0x4E130, symSize: 0xC0 }
  - { offset: 0xD337E, size: 0x8, addend: 0x0, symName: __RINvNtNtCs6IAuOt8vWmF_3syn3lit5value4byteShEB6_, symObjAddr: 0x3DA4, symBinAddr: 0x4E1F0, symSize: 0xBC }
  - { offset: 0xD33DA, size: 0x8, addend: 0x0, symName: __RINvNtNtCs6IAuOt8vWmF_3syn3lit5value4byteeEB6_, symObjAddr: 0x3E60, symBinAddr: 0x4E2AC, symSize: 0xC0 }
  - { offset: 0xD3436, size: 0x8, addend: 0x0, symName: __RNvNtNtCs6IAuOt8vWmF_3syn3lit5value8next_chr, symObjAddr: 0x3F20, symBinAddr: 0x4E36C, symSize: 0x54 }
  - { offset: 0xD3464, size: 0x8, addend: 0x0, symName: __RNvNtNtCs6IAuOt8vWmF_3syn3lit5value13parse_lit_str, symObjAddr: 0x3F74, symBinAddr: 0x4E3C0, symSize: 0xDC }
  - { offset: 0xD3492, size: 0x8, addend: 0x0, symName: __RNvNtNtCs6IAuOt8vWmF_3syn3lit5value20parse_lit_str_cooked, symObjAddr: 0x4050, symBinAddr: 0x4E49C, symSize: 0x968 }
  - { offset: 0xD36AF, size: 0x8, addend: 0x0, symName: __RNvNtNtCs6IAuOt8vWmF_3syn3lit5value17parse_lit_str_raw, symObjAddr: 0x49B8, symBinAddr: 0x4EE04, symSize: 0x4CC }
  - { offset: 0xD3869, size: 0x8, addend: 0x0, symName: __RNvNtNtCs6IAuOt8vWmF_3syn3lit5value18parse_lit_byte_str, symObjAddr: 0x4E84, symBinAddr: 0x4F2D0, symSize: 0x158 }
  - { offset: 0xD38E3, size: 0x8, addend: 0x0, symName: __RNvNtNtCs6IAuOt8vWmF_3syn3lit5value25parse_lit_byte_str_cooked, symObjAddr: 0x4FDC, symBinAddr: 0x4F428, symSize: 0x974 }
  - { offset: 0xD3BCB, size: 0x8, addend: 0x0, symName: __RNvNtNtCs6IAuOt8vWmF_3syn3lit5value22parse_lit_byte_str_raw, symObjAddr: 0x5950, symBinAddr: 0x4FD9C, symSize: 0x1B8 }
  - { offset: 0xD3C6D, size: 0x8, addend: 0x0, symName: __RNvNtNtCs6IAuOt8vWmF_3syn3lit5value15parse_lit_c_str, symObjAddr: 0x5B08, symBinAddr: 0x4FF54, symSize: 0x158 }
  - { offset: 0xD3CE7, size: 0x8, addend: 0x0, symName: __RNvNtNtCs6IAuOt8vWmF_3syn3lit5value22parse_lit_c_str_cooked, symObjAddr: 0x5C60, symBinAddr: 0x500AC, symSize: 0xBD0 }
  - { offset: 0xD4045, size: 0x8, addend: 0x0, symName: __RNvNtNtCs6IAuOt8vWmF_3syn3lit5value19parse_lit_c_str_raw, symObjAddr: 0x6830, symBinAddr: 0x50C7C, symSize: 0x278 }
  - { offset: 0xD4121, size: 0x8, addend: 0x0, symName: __RNvNtNtCs6IAuOt8vWmF_3syn3lit5value14parse_lit_byte, symObjAddr: 0x6AA8, symBinAddr: 0x50EF4, symSize: 0x5C4 }
  - { offset: 0xD4384, size: 0x8, addend: 0x0, symName: __RNvNtNtCs6IAuOt8vWmF_3syn3lit5value14parse_lit_char, symObjAddr: 0x706C, symBinAddr: 0x514B8, symSize: 0x57C }
  - { offset: 0xD4557, size: 0x8, addend: 0x0, symName: __RINvNtNtCs6IAuOt8vWmF_3syn3lit5value11backslash_xShEB6_, symObjAddr: 0x75E8, symBinAddr: 0x51A34, symSize: 0x560 }
  - { offset: 0xD45F7, size: 0x8, addend: 0x0, symName: __RINvNtNtCs6IAuOt8vWmF_3syn3lit5value11backslash_xeEB6_, symObjAddr: 0x7B48, symBinAddr: 0x51F94, symSize: 0x544 }
  - { offset: 0xD4671, size: 0x8, addend: 0x0, symName: __RINvNtNtCs6IAuOt8vWmF_3syn3lit5value11backslash_uShEB6_, symObjAddr: 0x808C, symBinAddr: 0x524D8, symSize: 0x5F8 }
  - { offset: 0xD47B9, size: 0x8, addend: 0x0, symName: __RINvNtNtCs6IAuOt8vWmF_3syn3lit5value11backslash_ueEB6_, symObjAddr: 0x8684, symBinAddr: 0x52AD0, symSize: 0x5C8 }
  - { offset: 0xD4862, size: 0x8, addend: 0x0, symName: __RNvNtNtCs6IAuOt8vWmF_3syn3lit5value13parse_lit_int, symObjAddr: 0x8C4C, symBinAddr: 0x53098, symSize: 0xC44 }
  - { offset: 0xD49B2, size: 0x8, addend: 0x0, symName: __RNvNtNtCs6IAuOt8vWmF_3syn3lit5value15parse_lit_float, symObjAddr: 0x9890, symBinAddr: 0x53CDC, symSize: 0xBD8 }
  - { offset: 0xD4B30, size: 0x8, addend: 0x0, symName: __RNCNvNtNtCs6IAuOt8vWmF_3syn3lit5value15parse_lit_float0B7_, symObjAddr: 0xA468, symBinAddr: 0x548B4, symSize: 0x38 }
  - { offset: 0xD4B76, size: 0x8, addend: 0x0, symName: __RINvNvNtNtCs6IAuOt8vWmF_3syn3lit5value11backslash_u18panic_cold_displayReEB8_, symObjAddr: 0x12024, symBinAddr: 0x1569E0, symSize: 0x28 }
  - { offset: 0xD6389, size: 0x8, addend: 0x0, symName: __RNvNtNtCs6IAuOt8vWmF_3syn8generics7parsing26choose_generics_over_qpath, symObjAddr: 0x399C, symBinAddr: 0x4DDE8, symSize: 0x1F8 }
  - { offset: 0xD63B7, size: 0x8, addend: 0x0, symName: __RNvNtNtCs6IAuOt8vWmF_3syn8generics7parsing40choose_generics_over_qpath_after_keyword, symObjAddr: 0x3B94, symBinAddr: 0x4DFE0, symSize: 0x150 }
  - { offset: 0xD822C, size: 0x8, addend: 0x0, symName: __RNCNCINvNtCse1nGBsou5OW_5alloc3str17join_generic_copyehReE00Cs6IAuOt8vWmF_3syn, symObjAddr: 0x26A8, symBinAddr: 0x4D65C, symSize: 0x38 }
  - { offset: 0xD8285, size: 0x8, addend: 0x0, symName: __RNCINvNtCse1nGBsou5OW_5alloc3str17join_generic_copyehReEs_0Cs6IAuOt8vWmF_3syn, symObjAddr: 0x2398, symBinAddr: 0x4D34C, symSize: 0x80 }
  - { offset: 0xD8353, size: 0x8, addend: 0x0, symName: __RINvNtCse1nGBsou5OW_5alloc3str17join_generic_copyehReECs6IAuOt8vWmF_3syn, symObjAddr: 0x0, symBinAddr: 0x4B9F4, symSize: 0x160C }
  - { offset: 0xD984E, size: 0x8, addend: 0x0, symName: __RNvXs2_NtCse1nGBsou5OW_5alloc3streNtNtB7_6borrow7ToOwned8to_ownedCs6IAuOt8vWmF_3syn, symObjAddr: 0x2E1C, symBinAddr: 0x4DB34, symSize: 0x50 }
  - { offset: 0xD9941, size: 0x8, addend: 0x0, symName: __RNvXs_NtCse1nGBsou5OW_5alloc3strSReINtNtB6_5slice4JoinBv_E4joinCs6IAuOt8vWmF_3syn, symObjAddr: 0x3738, symBinAddr: 0x4DC74, symSize: 0x50 }
  - { offset: 0xDD7F4, size: 0x8, addend: 0x0, symName: __RINvNtCsfvfooZQ3Axs_4core3cmp3minjECs6IAuOt8vWmF_3syn, symObjAddr: 0x160C, symBinAddr: 0x4D000, symSize: 0x24 }
  - { offset: 0xDD875, size: 0x8, addend: 0x0, symName: __RNvXs5_NtCsfvfooZQ3Axs_4core3cmpNtB5_8OrderingNtB5_9PartialEq2eqCs6IAuOt8vWmF_3syn, symObjAddr: 0x335C, symBinAddr: 0x4DC00, symSize: 0x2C }
  - { offset: 0xDD8B8, size: 0x8, addend: 0x0, symName: __RNvYjNtNtCsfvfooZQ3Axs_4core3cmp3Ord3minCs6IAuOt8vWmF_3syn, symObjAddr: 0x38E0, symBinAddr: 0x4DD68, symSize: 0x80 }
  - { offset: 0xDE012, size: 0x8, addend: 0x0, symName: __RNvMNtCsfvfooZQ3Axs_4core5sliceSTNtNtCs6IAuOt8vWmF_3syn3pat3PatNtNtBz_5token2OrE4iterBz_, symObjAddr: 0x26E0, symBinAddr: 0x4D694, symSize: 0x28 }
  - { offset: 0xDE049, size: 0x8, addend: 0x0, symName: __RNvMNtCsfvfooZQ3Axs_4core5sliceSTNtNtCs6IAuOt8vWmF_3syn3pat3PatNtNtBz_5token5CommaE4iterBz_, symObjAddr: 0x2708, symBinAddr: 0x4D6BC, symSize: 0x28 }
  - { offset: 0xDE080, size: 0x8, addend: 0x0, symName: __RNvMNtCsfvfooZQ3Axs_4core5sliceSTNtNtCs6IAuOt8vWmF_3syn3pat8FieldPatNtNtBz_5token5CommaE4iterBz_, symObjAddr: 0x2730, symBinAddr: 0x4D6E4, symSize: 0x28 }
  - { offset: 0xDE911, size: 0x8, addend: 0x0, symName: __RNvXs2_NtNtNtCsfvfooZQ3Axs_4core3ops8function5implsQNCINvNtCse1nGBsou5OW_5alloc3str17join_generic_copyehReEs_0INtB7_6FnOnceTRB1E_EE9call_onceCs6IAuOt8vWmF_3syn, symObjAddr: 0x3330, symBinAddr: 0x4DBD4, symSize: 0x2C }
  - { offset: 0xDF4C8, size: 0x8, addend: 0x0, symName: __RNvXs_NtNtNtCsfvfooZQ3Axs_4core4iter8adapters4takeINtB4_4TakeQINtNtCs6IAuOt8vWmF_3syn10punctuated5PairsNtNtB13_4path11PathSegmentNtNtB13_5token7PathSepEENtNtNtB8_6traits8iterator8Iterator4nextB13_, symObjAddr: 0x37D0, symBinAddr: 0x4DCE8, symSize: 0x5C }
  - { offset: 0xDF681, size: 0x8, addend: 0x0, symName: __RNvXs1_NtNtNtCsfvfooZQ3Axs_4core4iter8adapters3zipINtB5_3ZipNtNtNtBb_3str4iter5CharsINtNtNtBb_5slice4iter4IterNtCs3cP53eQoTwO_11proc_macro24SpanEEINtB5_7ZipImplBW_B1k_E3newCs6IAuOt8vWmF_3syn, symObjAddr: 0x2CBC, symBinAddr: 0x4DA04, symSize: 0x48 }
  - { offset: 0xDF6CD, size: 0x8, addend: 0x0, symName: __RNvXs1_NtNtNtCsfvfooZQ3Axs_4core4iter8adapters3zipINtB5_3ZipNtNtNtBb_3str4iter5CharsINtNtNtBb_5slice4iter4IterNtCs3cP53eQoTwO_11proc_macro24SpanEEINtB5_7ZipImplBW_B1k_E4nextCs6IAuOt8vWmF_3syn, symObjAddr: 0x2D04, symBinAddr: 0x4DA4C, symSize: 0xE8 }
  - { offset: 0xDF81B, size: 0x8, addend: 0x0, symName: __RNvXs_NtNtNtCsfvfooZQ3Axs_4core4iter8adapters3zipINtB4_3ZipNtNtNtBa_3str4iter5CharsINtNtNtBa_5slice4iter4IterNtCs3cP53eQoTwO_11proc_macro24SpanEENtNtNtB8_6traits8iterator8Iterator4nextCs6IAuOt8vWmF_3syn, symObjAddr: 0x37AC, symBinAddr: 0x4DCC4, symSize: 0x24 }
  - { offset: 0xDF9CA, size: 0x8, addend: 0x0, symName: __RINvYINtNtNtCsfvfooZQ3Axs_4core5array4iter8IntoIterNtCs3cP53eQoTwO_11proc_macro29TokenTreeKj1_ENtNtNtNtBa_4iter6traits8iterator8Iterator3mapNtCs9i5KxIbZ5ph_10proc_macro9TokenTreeNvNtBP_3imp19into_compiler_tokenECs6IAuOt8vWmF_3syn, symObjAddr: 0x22A0, symBinAddr: 0x4D254, symSize: 0x30 }
  - { offset: 0xDFA38, size: 0x8, addend: 0x0, symName: __RINvYINtNtNtCsfvfooZQ3Axs_4core5array4iter8IntoIterNtCs3cP53eQoTwO_11proc_macro29TokenTreeKj1_ENtNtNtNtBa_4iter6traits8iterator8Iterator7collectNtNtBP_3imp11TokenStreamECs6IAuOt8vWmF_3syn, symObjAddr: 0x22D0, symBinAddr: 0x4D284, symSize: 0x14 }
  - { offset: 0xDFA79, size: 0x8, addend: 0x0, symName: __RINvYINtNtNtCsfvfooZQ3Axs_4core5array4iter8IntoIterNtCs3cP53eQoTwO_11proc_macro29TokenTreeKj1_ENtNtNtNtBa_4iter6traits8iterator8Iterator7collectNtNtBP_8fallback11TokenStreamECs6IAuOt8vWmF_3syn, symObjAddr: 0x22E4, symBinAddr: 0x4D298, symSize: 0x14 }
  - { offset: 0xDFABA, size: 0x8, addend: 0x0, symName: __RINvYINtNtNtCsfvfooZQ3Axs_4core5array4iter8IntoIterNtCs3cP53eQoTwO_11proc_macro29TokenTreeKj1_ENtNtNtNtBa_4iter6traits8iterator8Iterator8for_eachNCINvXsa_NtBP_8fallbackNtB2s_11TokenStreamINtNtB1z_7collect6ExtendBN_E6extendB3_E0ECs6IAuOt8vWmF_3syn, symObjAddr: 0x22F8, symBinAddr: 0x4D2AC, symSize: 0x24 }
  - { offset: 0xDFB06, size: 0x8, addend: 0x0, symName: __RINvYINtNtNtCsfvfooZQ3Axs_4core5array4iter8IntoIterNtCs3cP53eQoTwO_11proc_macro29TokenTreeKj8_ENtNtNtNtBa_4iter6traits8iterator8Iterator3mapNtCs9i5KxIbZ5ph_10proc_macro9TokenTreeNvNtBP_3imp19into_compiler_tokenECs6IAuOt8vWmF_3syn, symObjAddr: 0x231C, symBinAddr: 0x4D2D0, symSize: 0x30 }
  - { offset: 0xDFB74, size: 0x8, addend: 0x0, symName: __RINvYINtNtNtCsfvfooZQ3Axs_4core5array4iter8IntoIterNtCs3cP53eQoTwO_11proc_macro29TokenTreeKj8_ENtNtNtNtBa_4iter6traits8iterator8Iterator7collectNtNtBP_3imp11TokenStreamECs6IAuOt8vWmF_3syn, symObjAddr: 0x234C, symBinAddr: 0x4D300, symSize: 0x14 }
  - { offset: 0xDFBB5, size: 0x8, addend: 0x0, symName: __RINvYINtNtNtCsfvfooZQ3Axs_4core5array4iter8IntoIterNtCs3cP53eQoTwO_11proc_macro29TokenTreeKj8_ENtNtNtNtBa_4iter6traits8iterator8Iterator7collectNtNtBP_8fallback11TokenStreamECs6IAuOt8vWmF_3syn, symObjAddr: 0x2360, symBinAddr: 0x4D314, symSize: 0x14 }
  - { offset: 0xDFBF6, size: 0x8, addend: 0x0, symName: __RINvYINtNtNtCsfvfooZQ3Axs_4core5array4iter8IntoIterNtCs3cP53eQoTwO_11proc_macro29TokenTreeKj8_ENtNtNtNtBa_4iter6traits8iterator8Iterator8for_eachNCINvXsa_NtBP_8fallbackNtB2s_11TokenStreamINtNtB1z_7collect6ExtendBN_E6extendB3_E0ECs6IAuOt8vWmF_3syn, symObjAddr: 0x2374, symBinAddr: 0x4D328, symSize: 0x24 }
  - { offset: 0xDFC42, size: 0x8, addend: 0x0, symName: __RNvYINtNtNtNtCsfvfooZQ3Axs_4core4iter8adapters4take4TakeQINtNtCs6IAuOt8vWmF_3syn10punctuated5PairsNtNtBY_4path11PathSegmentNtNtBY_5token7PathSepEENtNtNtB9_6traits8iterator8Iterator9enumerateBY_, symObjAddr: 0x382C, symBinAddr: 0x4DD44, symSize: 0x24 }
  - { offset: 0xDFC9A, size: 0x8, addend: 0x0, symName: __RNvXNtNtNtCsfvfooZQ3Axs_4core4iter6traits7collectINtNtNtB6_8adapters3zip3ZipNtNtNtB8_3str4iter5CharsINtNtNtB8_5slice4iter4IterNtCs3cP53eQoTwO_11proc_macro24SpanEENtB2_12IntoIterator9into_iterCs6IAuOt8vWmF_3syn, symObjAddr: 0x29F8, symBinAddr: 0x4D8EC, symSize: 0x30 }
  - { offset: 0xDFCD2, size: 0x8, addend: 0x0, symName: __RNvXNtNtNtCsfvfooZQ3Axs_4core4iter6traits7collectINtNtNtB8_5array4iter8IntoIterNtCs3cP53eQoTwO_11proc_macro29TokenTreeKj1_ENtB2_12IntoIterator9into_iterCs6IAuOt8vWmF_3syn, symObjAddr: 0x2A28, symBinAddr: 0x4D91C, symSize: 0x30 }
  - { offset: 0xDFD0A, size: 0x8, addend: 0x0, symName: __RNvXNtNtNtCsfvfooZQ3Axs_4core4iter6traits7collectINtNtNtB8_5array4iter8IntoIterNtCs3cP53eQoTwO_11proc_macro29TokenTreeKj8_ENtB2_12IntoIterator9into_iterCs6IAuOt8vWmF_3syn, symObjAddr: 0x2A58, symBinAddr: 0x4D94C, symSize: 0x30 }
  - { offset: 0xDFD4F, size: 0x8, addend: 0x0, symName: __RNvXsF_NtNtCsfvfooZQ3Axs_4core4iter5rangejNtB5_4Step17forward_uncheckedCs6IAuOt8vWmF_3syn, symObjAddr: 0x36F0, symBinAddr: 0x4DC2C, symSize: 0x48 }
  - { offset: 0xDFE3D, size: 0x8, addend: 0x0, symName: __RNCINvXs0_NtNtCsfvfooZQ3Axs_4core5array4iterINtB8_8IntoIterNtCs3cP53eQoTwO_11proc_macro29TokenTreeKj1_ENtNtNtNtBc_4iter6traits8iterator8Iterator4folduNCINvNtNtB1J_8adapters3map8map_foldBV_NtCs9i5KxIbZ5ph_10proc_macro9TokenTreeuNvNtBX_3imp19into_compiler_tokenNCINvNvB1D_8for_each4callB30_NCINvXsg_B32_NtB32_11TokenStreamINtNtB1H_7collect12FromIteratorB30_E9from_iterINtB2t_3MapBG_B3D_EE0E0E0E0Cs6IAuOt8vWmF_3syn, symObjAddr: 0x2418, symBinAddr: 0x4D3CC, symSize: 0xA4 }
  - { offset: 0xDFFA1, size: 0x8, addend: 0x0, symName: __RNCINvXs0_NtNtCsfvfooZQ3Axs_4core5array4iterINtB8_8IntoIterNtCs3cP53eQoTwO_11proc_macro29TokenTreeKj1_ENtNtNtNtBc_4iter6traits8iterator8Iterator4folduNCINvNvB1D_8for_each4callBV_NCINvXsa_NtBX_8fallbackNtB2Z_11TokenStreamINtNtB1H_7collect6ExtendBV_E6extendBG_E0E0E0Cs6IAuOt8vWmF_3syn, symObjAddr: 0x24BC, symBinAddr: 0x4D470, symSize: 0xA4 }
  - { offset: 0xE0105, size: 0x8, addend: 0x0, symName: __RNCINvXs0_NtNtCsfvfooZQ3Axs_4core5array4iterINtB8_8IntoIterNtCs3cP53eQoTwO_11proc_macro29TokenTreeKj8_ENtNtNtNtBc_4iter6traits8iterator8Iterator4folduNCINvNtNtB1J_8adapters3map8map_foldBV_NtCs9i5KxIbZ5ph_10proc_macro9TokenTreeuNvNtBX_3imp19into_compiler_tokenNCINvNvB1D_8for_each4callB30_NCINvXsg_B32_NtB32_11TokenStreamINtNtB1H_7collect12FromIteratorB30_E9from_iterINtB2t_3MapBG_B3D_EE0E0E0E0Cs6IAuOt8vWmF_3syn, symObjAddr: 0x2560, symBinAddr: 0x4D514, symSize: 0xA4 }
  - { offset: 0xE0269, size: 0x8, addend: 0x0, symName: __RNCINvXs0_NtNtCsfvfooZQ3Axs_4core5array4iterINtB8_8IntoIterNtCs3cP53eQoTwO_11proc_macro29TokenTreeKj8_ENtNtNtNtBc_4iter6traits8iterator8Iterator4folduNCINvNvB1D_8for_each4callBV_NCINvXsa_NtBX_8fallbackNtB2Z_11TokenStreamINtNtB1H_7collect6ExtendBV_E6extendBG_E0E0E0Cs6IAuOt8vWmF_3syn, symObjAddr: 0x2604, symBinAddr: 0x4D5B8, symSize: 0xA4 }
