---
triple:          'arm64-apple-darwin'
binary-path:     '/Users/cedric/orange/ran-llm-claude-flow/src/rust-pipeline/target/debug/deps/libthiserror_impl-ac1f3e28ce8d47f7.dylib'
relocations:
  - { offset: 0x1E, size: 0x8, addend: 0x0, symName: __RINvMNtNtNtCse1nGBsou5OW_5alloc11collections5btree4nodeINtB3_8LeafNodeNtCs3cP53eQoTwO_11proc_macro25IdentNtNtB5_7set_val9SetValZSTE3newNtNtB9_5alloc6GlobalECsjOFMLY5rhAS_14thiserror_impl, symObjAddr: 0x0, symBinAddr: 0xC50, symSize: 0x68 }
  - { offset: 0x10912, size: 0x8, addend: 0x0, symName: __RNCINvMss_NtNtNtCse1nGBsou5OW_5alloc11collections5btree4nodeINtB8_7NodeRefNtNtB8_6marker5OwnedNtCs3cP53eQoTwO_11proc_macro25IdentNtNtBa_7set_val9SetValZSTNtB1c_14LeafOrInternalE19push_internal_levelNtNtBe_5alloc6GlobalE0CsjOFMLY5rhAS_14thiserror_impl, symObjAddr: 0xA518, symBinAddr: 0xB168, symSize: 0x34 }
  - { offset: 0x1096B, size: 0x8, addend: 0x0, symName: __RNCINvMss_NtNtNtCse1nGBsou5OW_5alloc11collections5btree4nodeINtB8_7NodeRefNtNtB8_6marker5OwnedNtNtBe_6string6StringNtNtBa_7set_val9SetValZSTNtB1c_14LeafOrInternalE19push_internal_levelNtNtBe_5alloc6GlobalE0CsjOFMLY5rhAS_14thiserror_impl, symObjAddr: 0xA54C, symBinAddr: 0xB19C, symSize: 0x34 }
  - { offset: 0x109C4, size: 0x8, addend: 0x0, symName: __RNCINvMss_NtNtNtCse1nGBsou5OW_5alloc11collections5btree4nodeINtB8_7NodeRefNtNtB8_6marker5OwnedNtNtBe_6string6StringTINtNtBa_3set8BTreeSetB1u_EINtNtCs6IAuOt8vWmF_3syn10punctuated10PunctuatedNtCs3cP53eQoTwO_11proc_macro211TokenStreamNtNtB2l_5token4PlusEENtB1c_14LeafOrInternalE19push_internal_levelNtNtBe_5alloc6GlobalE0CsjOFMLY5rhAS_14thiserror_impl, symObjAddr: 0xA580, symBinAddr: 0xB1D0, symSize: 0x34 }
  - { offset: 0x10A1D, size: 0x8, addend: 0x0, symName: __RNCINvMss_NtNtNtCse1nGBsou5OW_5alloc11collections5btree4nodeINtB8_7NodeRefNtNtB8_6marker5OwnedRNtCs3cP53eQoTwO_11proc_macro25IdentNtNtBa_7set_val9SetValZSTNtB1c_14LeafOrInternalE19push_internal_levelNtNtBe_5alloc6GlobalE0CsjOFMLY5rhAS_14thiserror_impl, symObjAddr: 0xA5B4, symBinAddr: 0xB204, symSize: 0x34 }
  - { offset: 0x10A76, size: 0x8, addend: 0x0, symName: __RNCINvMss_NtNtNtCse1nGBsou5OW_5alloc11collections5btree4nodeINtB8_7NodeRefNtNtB8_6marker5OwnedTjNtNtCsjOFMLY5rhAS_14thiserror_impl4attr5TraitENtNtBa_7set_val9SetValZSTNtB1c_14LeafOrInternalE19push_internal_levelNtNtBe_5alloc6GlobalE0B1A_, symObjAddr: 0xA5E8, symBinAddr: 0xB238, symSize: 0x34 }
  - { offset: 0x19740, size: 0x8, addend: 0x0, symName: __RINvNtNtNtCse1nGBsou5OW_5alloc11collections5btree4node12slice_insertINtNtNtCsfvfooZQ3Axs_4core3ptr8non_null7NonNullINtB2_8LeafNodeNtCs3cP53eQoTwO_11proc_macro25IdentNtNtB4_7set_val9SetValZSTEEECsjOFMLY5rhAS_14thiserror_impl, symObjAddr: 0x9188, symBinAddr: 0x9DD8, symSize: 0x114 }
  - { offset: 0x198C4, size: 0x8, addend: 0x0, symName: __RINvNtNtNtCse1nGBsou5OW_5alloc11collections5btree4node12slice_insertINtNtNtCsfvfooZQ3Axs_4core3ptr8non_null7NonNullINtB2_8LeafNodeNtNtB8_6string6StringNtNtB4_7set_val9SetValZSTEEECsjOFMLY5rhAS_14thiserror_impl, symObjAddr: 0x929C, symBinAddr: 0x9EEC, symSize: 0x114 }
  - { offset: 0x19A48, size: 0x8, addend: 0x0, symName: __RINvNtNtNtCse1nGBsou5OW_5alloc11collections5btree4node12slice_insertINtNtNtCsfvfooZQ3Axs_4core3ptr8non_null7NonNullINtB2_8LeafNodeNtNtB8_6string6StringTINtNtB4_3set8BTreeSetB24_EINtNtCs6IAuOt8vWmF_3syn10punctuated10PunctuatedNtCs3cP53eQoTwO_11proc_macro211TokenStreamNtNtB2V_5token4PlusEEEEECsjOFMLY5rhAS_14thiserror_impl, symObjAddr: 0x93B0, symBinAddr: 0xA000, symSize: 0x114 }
  - { offset: 0x19BCC, size: 0x8, addend: 0x0, symName: __RINvNtNtNtCse1nGBsou5OW_5alloc11collections5btree4node12slice_insertINtNtNtCsfvfooZQ3Axs_4core3ptr8non_null7NonNullINtB2_8LeafNodeTjNtNtCsjOFMLY5rhAS_14thiserror_impl4attr5TraitENtNtB4_7set_val9SetValZSTEEEB2a_, symObjAddr: 0x94C4, symBinAddr: 0xA114, symSize: 0x114 }
  - { offset: 0x19D50, size: 0x8, addend: 0x0, symName: __RINvNtNtNtCse1nGBsou5OW_5alloc11collections5btree4node12slice_insertNtCs3cP53eQoTwO_11proc_macro25IdentECsjOFMLY5rhAS_14thiserror_impl, symObjAddr: 0x95D8, symBinAddr: 0xA228, symSize: 0x150 }
  - { offset: 0x19ED7, size: 0x8, addend: 0x0, symName: __RINvNtNtNtCse1nGBsou5OW_5alloc11collections5btree4node12slice_insertNtNtB4_7set_val9SetValZSTECsjOFMLY5rhAS_14thiserror_impl, symObjAddr: 0x9728, symBinAddr: 0xA378, symSize: 0xD0 }
  - { offset: 0x19FEC, size: 0x8, addend: 0x0, symName: __RINvNtNtNtCse1nGBsou5OW_5alloc11collections5btree4node12slice_insertNtNtB8_6string6StringECsjOFMLY5rhAS_14thiserror_impl, symObjAddr: 0x97F8, symBinAddr: 0xA448, symSize: 0x150 }
  - { offset: 0x1A173, size: 0x8, addend: 0x0, symName: __RINvNtNtNtCse1nGBsou5OW_5alloc11collections5btree4node12slice_insertTINtNtB4_3set8BTreeSetNtNtB8_6string6StringEINtNtCs6IAuOt8vWmF_3syn10punctuated10PunctuatedNtCs3cP53eQoTwO_11proc_macro211TokenStreamNtNtB1R_5token4PlusEEECsjOFMLY5rhAS_14thiserror_impl, symObjAddr: 0x9948, symBinAddr: 0xA598, symSize: 0x164 }
  - { offset: 0x1A2FE, size: 0x8, addend: 0x0, symName: __RINvNtNtNtCse1nGBsou5OW_5alloc11collections5btree4node12slice_insertTjNtNtCsjOFMLY5rhAS_14thiserror_impl4attr5TraitEEB1a_, symObjAddr: 0x9AAC, symBinAddr: 0xA6FC, symSize: 0x124 }
  - { offset: 0x1A485, size: 0x8, addend: 0x0, symName: __RINvNtNtNtCse1nGBsou5OW_5alloc11collections5btree4node13move_to_sliceINtNtNtCsfvfooZQ3Axs_4core3ptr8non_null7NonNullINtB2_8LeafNodeNtCs3cP53eQoTwO_11proc_macro25IdentNtNtB4_7set_val9SetValZSTEEECsjOFMLY5rhAS_14thiserror_impl, symObjAddr: 0x9BD0, symBinAddr: 0xA820, symSize: 0xA8 }
  - { offset: 0x1A531, size: 0x8, addend: 0x0, symName: __RINvNtNtNtCse1nGBsou5OW_5alloc11collections5btree4node13move_to_sliceINtNtNtCsfvfooZQ3Axs_4core3ptr8non_null7NonNullINtB2_8LeafNodeNtNtB8_6string6StringNtNtB4_7set_val9SetValZSTEEECsjOFMLY5rhAS_14thiserror_impl, symObjAddr: 0x9C78, symBinAddr: 0xA8C8, symSize: 0xA8 }
  - { offset: 0x1A5DD, size: 0x8, addend: 0x0, symName: __RINvNtNtNtCse1nGBsou5OW_5alloc11collections5btree4node13move_to_sliceINtNtNtCsfvfooZQ3Axs_4core3ptr8non_null7NonNullINtB2_8LeafNodeNtNtB8_6string6StringTINtNtB4_3set8BTreeSetB25_EINtNtCs6IAuOt8vWmF_3syn10punctuated10PunctuatedNtCs3cP53eQoTwO_11proc_macro211TokenStreamNtNtB2W_5token4PlusEEEEECsjOFMLY5rhAS_14thiserror_impl, symObjAddr: 0x9D20, symBinAddr: 0xA970, symSize: 0xA8 }
  - { offset: 0x1A689, size: 0x8, addend: 0x0, symName: __RINvNtNtNtCse1nGBsou5OW_5alloc11collections5btree4node13move_to_sliceINtNtNtCsfvfooZQ3Axs_4core3ptr8non_null7NonNullINtB2_8LeafNodeRNtCs3cP53eQoTwO_11proc_macro25IdentNtNtB4_7set_val9SetValZSTEEECsjOFMLY5rhAS_14thiserror_impl, symObjAddr: 0x9DC8, symBinAddr: 0xAA18, symSize: 0xA8 }
  - { offset: 0x1A735, size: 0x8, addend: 0x0, symName: __RINvNtNtNtCse1nGBsou5OW_5alloc11collections5btree4node13move_to_sliceINtNtNtCsfvfooZQ3Axs_4core3ptr8non_null7NonNullINtB2_8LeafNodeTjNtNtCsjOFMLY5rhAS_14thiserror_impl4attr5TraitENtNtB4_7set_val9SetValZSTEEEB2b_, symObjAddr: 0x9E70, symBinAddr: 0xAAC0, symSize: 0xA8 }
  - { offset: 0x1A7E1, size: 0x8, addend: 0x0, symName: __RINvNtNtNtCse1nGBsou5OW_5alloc11collections5btree4node13move_to_sliceNtCs3cP53eQoTwO_11proc_macro25IdentECsjOFMLY5rhAS_14thiserror_impl, symObjAddr: 0x9F18, symBinAddr: 0xAB68, symSize: 0xB0 }
  - { offset: 0x1A88D, size: 0x8, addend: 0x0, symName: __RINvNtNtNtCse1nGBsou5OW_5alloc11collections5btree4node13move_to_sliceNtNtB4_7set_val9SetValZSTECsjOFMLY5rhAS_14thiserror_impl, symObjAddr: 0x9FC8, symBinAddr: 0xAC18, symSize: 0xAC }
  - { offset: 0x1A939, size: 0x8, addend: 0x0, symName: __RINvNtNtNtCse1nGBsou5OW_5alloc11collections5btree4node13move_to_sliceNtNtB8_6string6StringECsjOFMLY5rhAS_14thiserror_impl, symObjAddr: 0xA074, symBinAddr: 0xACC4, symSize: 0xB0 }
  - { offset: 0x1A9E5, size: 0x8, addend: 0x0, symName: __RINvNtNtNtCse1nGBsou5OW_5alloc11collections5btree4node13move_to_sliceRNtCs3cP53eQoTwO_11proc_macro25IdentECsjOFMLY5rhAS_14thiserror_impl, symObjAddr: 0xA124, symBinAddr: 0xAD74, symSize: 0xA8 }
  - { offset: 0x1AA91, size: 0x8, addend: 0x0, symName: __RINvNtNtNtCse1nGBsou5OW_5alloc11collections5btree4node13move_to_sliceTINtNtB4_3set8BTreeSetNtNtB8_6string6StringEINtNtCs6IAuOt8vWmF_3syn10punctuated10PunctuatedNtCs3cP53eQoTwO_11proc_macro211TokenStreamNtNtB1S_5token4PlusEEECsjOFMLY5rhAS_14thiserror_impl, symObjAddr: 0xA1CC, symBinAddr: 0xAE1C, symSize: 0xB0 }
  - { offset: 0x1AB3D, size: 0x8, addend: 0x0, symName: __RINvNtNtNtCse1nGBsou5OW_5alloc11collections5btree4node13move_to_sliceTjNtNtCsjOFMLY5rhAS_14thiserror_impl4attr5TraitEEB1b_, symObjAddr: 0xA27C, symBinAddr: 0xAECC, symSize: 0xAC }
  - { offset: 0x1ABE9, size: 0x8, addend: 0x0, symName: __RINvNtNtNtCse1nGBsou5OW_5alloc11collections5btree4node9slice_shrINtNtNtCsfvfooZQ3Axs_4core3ptr8non_null7NonNullINtB2_8LeafNodeRNtCs3cP53eQoTwO_11proc_macro25IdentNtNtB4_7set_val9SetValZSTEEECsjOFMLY5rhAS_14thiserror_impl, symObjAddr: 0xA328, symBinAddr: 0xAF78, symSize: 0xAC }
  - { offset: 0x1ACAB, size: 0x8, addend: 0x0, symName: __RINvNtNtNtCse1nGBsou5OW_5alloc11collections5btree4node9slice_shrNtNtB4_7set_val9SetValZSTECsjOFMLY5rhAS_14thiserror_impl, symObjAddr: 0xA3D4, symBinAddr: 0xB024, symSize: 0x98 }
  - { offset: 0x1AD7D, size: 0x8, addend: 0x0, symName: __RINvNtNtNtCse1nGBsou5OW_5alloc11collections5btree4node9slice_shrRNtCs3cP53eQoTwO_11proc_macro25IdentECsjOFMLY5rhAS_14thiserror_impl, symObjAddr: 0xA46C, symBinAddr: 0xB0BC, symSize: 0xAC }
  - { offset: 0x1C316, size: 0x8, addend: 0x0, symName: __RNvXNvMsT_NtNtNtCse1nGBsou5OW_5alloc11collections5btree4nodeINtB8_6HandleINtB8_7NodeRefNtNtB8_6marker5DyingpppENtB1p_2KVE12drop_key_valINtB2_7DropperNtNtBa_7set_val9SetValZSTENtNtNtCsfvfooZQ3Axs_4core3ops4drop4Drop4dropCsjOFMLY5rhAS_14thiserror_impl, symObjAddr: 0x13014, symBinAddr: 0x13C64, symSize: 0x1C }
  - { offset: 0x1C349, size: 0x8, addend: 0x0, symName: __RNvXNvMsT_NtNtNtCse1nGBsou5OW_5alloc11collections5btree4nodeINtB8_6HandleINtB8_7NodeRefNtNtB8_6marker5DyingpppENtB1p_2KVE12drop_key_valINtB2_7DropperTINtNtBa_3set8BTreeSetNtNtBe_6string6StringEINtNtCs6IAuOt8vWmF_3syn10punctuated10PunctuatedNtCs3cP53eQoTwO_11proc_macro211TokenStreamNtNtB3a_5token4PlusEEENtNtNtCsfvfooZQ3Axs_4core3ops4drop4Drop4dropCsjOFMLY5rhAS_14thiserror_impl, symObjAddr: 0x13030, symBinAddr: 0x13C80, symSize: 0x2C }
  - { offset: 0x1E1B0, size: 0x8, addend: 0x0, symName: __RINvMNtNtNtCse1nGBsou5OW_5alloc11collections5btree4nodeINtB3_8LeafNodeNtCs3cP53eQoTwO_11proc_macro25IdentNtNtB5_7set_val9SetValZSTE3newNtNtB9_5alloc6GlobalECsjOFMLY5rhAS_14thiserror_impl, symObjAddr: 0x0, symBinAddr: 0xC50, symSize: 0x68 }
  - { offset: 0x1E476, size: 0x8, addend: 0x0, symName: __RINvMNtNtNtCse1nGBsou5OW_5alloc11collections5btree4nodeINtB3_8LeafNodeNtNtB9_6string6StringNtNtB5_7set_val9SetValZSTE3newNtNtB9_5alloc6GlobalECsjOFMLY5rhAS_14thiserror_impl, symObjAddr: 0x68, symBinAddr: 0xCB8, symSize: 0x68 }
  - { offset: 0x1E83C, size: 0x8, addend: 0x0, symName: __RINvMNtNtNtCse1nGBsou5OW_5alloc11collections5btree4nodeINtB3_8LeafNodeNtNtB9_6string6StringTINtNtB5_3set8BTreeSetB16_EINtNtCs6IAuOt8vWmF_3syn10punctuated10PunctuatedNtCs3cP53eQoTwO_11proc_macro211TokenStreamNtNtB1X_5token4PlusEEE3newNtNtB9_5alloc6GlobalECsjOFMLY5rhAS_14thiserror_impl, symObjAddr: 0xD0, symBinAddr: 0xD20, symSize: 0x68 }
  - { offset: 0x1EB02, size: 0x8, addend: 0x0, symName: __RINvMNtNtNtCse1nGBsou5OW_5alloc11collections5btree4nodeINtB3_8LeafNodeRNtCs3cP53eQoTwO_11proc_macro25IdentNtNtB5_7set_val9SetValZSTE3newNtNtB9_5alloc6GlobalECsjOFMLY5rhAS_14thiserror_impl, symObjAddr: 0x138, symBinAddr: 0xD88, symSize: 0x68 }
  - { offset: 0x1EDD9, size: 0x8, addend: 0x0, symName: __RINvMNtNtNtCse1nGBsou5OW_5alloc11collections5btree4nodeINtB3_8LeafNodeTjNtNtCsjOFMLY5rhAS_14thiserror_impl4attr5TraitENtNtB5_7set_val9SetValZSTE3newNtNtB9_5alloc6GlobalEB1c_, symObjAddr: 0x1A0, symBinAddr: 0xDF0, symSize: 0x68 }
  - { offset: 0x1F322, size: 0x8, addend: 0x0, symName: __RINvMNtNtNtCse1nGBsou5OW_5alloc11collections5btree6appendINtNtB5_4node7NodeRefNtNtBW_6marker5OwnedRNtCs3cP53eQoTwO_11proc_macro25IdentNtNtB5_7set_val9SetValZSTNtB1g_14LeafOrInternalE9bulk_pushINtNtB5_17dedup_sorted_iter15DedupSortedIterB1y_B28_INtNtNtNtCsfvfooZQ3Axs_4core4iter8adapters3map3MapINtNtNtB9_3vec9into_iter8IntoIterB1y_ENCINvMse_NtB5_3setINtB5t_8BTreeSetB1y_E16from_sorted_iterB4I_E0EENtNtB9_5alloc6GlobalECsjOFMLY5rhAS_14thiserror_impl, symObjAddr: 0x208, symBinAddr: 0xE58, symSize: 0x4B8 }
  - { offset: 0x1F8AA, size: 0x8, addend: 0x0, symName: __RINvMs0_NtNtNtCse1nGBsou5OW_5alloc11collections5btree6searchINtNtB8_4node7NodeRefNtNtBZ_6marker3MutNtCs3cP53eQoTwO_11proc_macro25IdentNtNtB8_7set_val9SetValZSTNtB1j_14LeafOrInternalE14find_key_indexB1z_ECsjOFMLY5rhAS_14thiserror_impl, symObjAddr: 0x6C0, symBinAddr: 0x1310, symSize: 0x1E4 }
  - { offset: 0x1FD71, size: 0x8, addend: 0x0, symName: __RINvMs0_NtNtNtCse1nGBsou5OW_5alloc11collections5btree6searchINtNtB8_4node7NodeRefNtNtBZ_6marker3MutNtNtBc_6string6StringNtNtB8_7set_val9SetValZSTNtB1j_14LeafOrInternalE14find_key_indexB1z_ECsjOFMLY5rhAS_14thiserror_impl, symObjAddr: 0x8A4, symBinAddr: 0x14F4, symSize: 0x1E4 }
  - { offset: 0x201CC, size: 0x8, addend: 0x0, symName: __RINvMs0_NtNtNtCse1nGBsou5OW_5alloc11collections5btree6searchINtNtB8_4node7NodeRefNtNtBZ_6marker3MutNtNtBc_6string6StringTINtNtB8_3set8BTreeSetB1z_EINtNtCs6IAuOt8vWmF_3syn10punctuated10PunctuatedNtCs3cP53eQoTwO_11proc_macro211TokenStreamNtNtB2q_5token4PlusEENtB1j_14LeafOrInternalE14find_key_indexB1z_ECsjOFMLY5rhAS_14thiserror_impl, symObjAddr: 0xA88, symBinAddr: 0x16D8, symSize: 0x1E4 }
  - { offset: 0x20693, size: 0x8, addend: 0x0, symName: __RINvMs0_NtNtNtCse1nGBsou5OW_5alloc11collections5btree6searchINtNtB8_4node7NodeRefNtNtBZ_6marker3MutTjNtNtCsjOFMLY5rhAS_14thiserror_impl4attr5TraitENtNtB8_7set_val9SetValZSTNtB1j_14LeafOrInternalE14find_key_indexB1z_EB1F_, symObjAddr: 0xC6C, symBinAddr: 0x18BC, symSize: 0x1D4 }
  - { offset: 0x20AEE, size: 0x8, addend: 0x0, symName: __RINvMs0_NtNtNtCse1nGBsou5OW_5alloc11collections5btree6searchINtNtB8_4node7NodeRefNtNtBZ_6marker5ImmutNtNtBc_6string6StringTINtNtB8_3set8BTreeSetB1B_EINtNtCs6IAuOt8vWmF_3syn10punctuated10PunctuatedNtCs3cP53eQoTwO_11proc_macro211TokenStreamNtNtB2s_5token4PlusEENtB1j_14LeafOrInternalE14find_key_indexB1B_ECsjOFMLY5rhAS_14thiserror_impl, symObjAddr: 0xE40, symBinAddr: 0x1A90, symSize: 0x1E4 }
  - { offset: 0x20FA8, size: 0x8, addend: 0x0, symName: __RINvMs0_NtNtNtCse1nGBsou5OW_5alloc11collections5btree6searchINtNtB8_4node7NodeRefNtNtBZ_6marker5ImmutRNtCs3cP53eQoTwO_11proc_macro25IdentNtNtB8_7set_val9SetValZSTNtB1j_14LeafOrInternalE14find_key_indexB1C_ECsjOFMLY5rhAS_14thiserror_impl, symObjAddr: 0x1024, symBinAddr: 0x1C74, symSize: 0x1D4 }
  - { offset: 0x21347, size: 0x8, addend: 0x0, symName: __RINvMs8_NtNtNtCse1nGBsou5OW_5alloc11collections5btree4nodeINtB6_7NodeRefNtNtB6_6marker5OwnedNtCs3cP53eQoTwO_11proc_macro25IdentNtNtB8_7set_val9SetValZSTNtB1a_4LeafE8new_leafNtNtBc_5alloc6GlobalECsjOFMLY5rhAS_14thiserror_impl, symObjAddr: 0x11F8, symBinAddr: 0x1E48, symSize: 0x38 }
  - { offset: 0x21416, size: 0x8, addend: 0x0, symName: __RINvMs8_NtNtNtCse1nGBsou5OW_5alloc11collections5btree4nodeINtB6_7NodeRefNtNtB6_6marker5OwnedNtNtBc_6string6StringNtNtB8_7set_val9SetValZSTNtB1a_4LeafE8new_leafNtNtBc_5alloc6GlobalECsjOFMLY5rhAS_14thiserror_impl, symObjAddr: 0x1230, symBinAddr: 0x1E80, symSize: 0x38 }
  - { offset: 0x214E5, size: 0x8, addend: 0x0, symName: __RINvMs8_NtNtNtCse1nGBsou5OW_5alloc11collections5btree4nodeINtB6_7NodeRefNtNtB6_6marker5OwnedNtNtBc_6string6StringTINtNtB8_3set8BTreeSetB1s_EINtNtCs6IAuOt8vWmF_3syn10punctuated10PunctuatedNtCs3cP53eQoTwO_11proc_macro211TokenStreamNtNtB2j_5token4PlusEENtB1a_4LeafE8new_leafNtNtBc_5alloc6GlobalECsjOFMLY5rhAS_14thiserror_impl, symObjAddr: 0x1268, symBinAddr: 0x1EB8, symSize: 0x38 }
  - { offset: 0x215B4, size: 0x8, addend: 0x0, symName: __RINvMs8_NtNtNtCse1nGBsou5OW_5alloc11collections5btree4nodeINtB6_7NodeRefNtNtB6_6marker5OwnedRNtCs3cP53eQoTwO_11proc_macro25IdentNtNtB8_7set_val9SetValZSTNtB1a_4LeafE8new_leafNtNtBc_5alloc6GlobalECsjOFMLY5rhAS_14thiserror_impl, symObjAddr: 0x12A0, symBinAddr: 0x1EF0, symSize: 0x38 }
  - { offset: 0x21683, size: 0x8, addend: 0x0, symName: __RINvMs8_NtNtNtCse1nGBsou5OW_5alloc11collections5btree4nodeINtB6_7NodeRefNtNtB6_6marker5OwnedTjNtNtCsjOFMLY5rhAS_14thiserror_impl4attr5TraitENtNtB8_7set_val9SetValZSTNtB1a_4LeafE8new_leafNtNtBc_5alloc6GlobalEB1y_, symObjAddr: 0x12D8, symBinAddr: 0x1F28, symSize: 0x38 }
  - { offset: 0x21794, size: 0x8, addend: 0x0, symName: __RINvMs9_NtNtNtCse1nGBsou5OW_5alloc11collections5btree4nodeINtB6_7NodeRefNtNtB6_6marker5OwnedNtCs3cP53eQoTwO_11proc_macro25IdentNtNtB8_7set_val9SetValZSTNtB1a_8InternalE12new_internalNtNtBc_5alloc6GlobalECsjOFMLY5rhAS_14thiserror_impl, symObjAddr: 0x1310, symBinAddr: 0x1F60, symSize: 0x98 }
  - { offset: 0x219C7, size: 0x8, addend: 0x0, symName: __RINvMs9_NtNtNtCse1nGBsou5OW_5alloc11collections5btree4nodeINtB6_7NodeRefNtNtB6_6marker5OwnedNtCs3cP53eQoTwO_11proc_macro25IdentNtNtB8_7set_val9SetValZSTNtB1a_8InternalE17from_new_internalNtNtBc_5alloc6GlobalECsjOFMLY5rhAS_14thiserror_impl, symObjAddr: 0x13A8, symBinAddr: 0x1FF8, symSize: 0xC0 }
  - { offset: 0x21BE0, size: 0x8, addend: 0x0, symName: __RINvMs9_NtNtNtCse1nGBsou5OW_5alloc11collections5btree4nodeINtB6_7NodeRefNtNtB6_6marker5OwnedNtNtBc_6string6StringNtNtB8_7set_val9SetValZSTNtB1a_8InternalE12new_internalNtNtBc_5alloc6GlobalECsjOFMLY5rhAS_14thiserror_impl, symObjAddr: 0x1468, symBinAddr: 0x20B8, symSize: 0x98 }
  - { offset: 0x21E13, size: 0x8, addend: 0x0, symName: __RINvMs9_NtNtNtCse1nGBsou5OW_5alloc11collections5btree4nodeINtB6_7NodeRefNtNtB6_6marker5OwnedNtNtBc_6string6StringNtNtB8_7set_val9SetValZSTNtB1a_8InternalE17from_new_internalNtNtBc_5alloc6GlobalECsjOFMLY5rhAS_14thiserror_impl, symObjAddr: 0x1500, symBinAddr: 0x2150, symSize: 0xC0 }
  - { offset: 0x2202C, size: 0x8, addend: 0x0, symName: __RINvMs9_NtNtNtCse1nGBsou5OW_5alloc11collections5btree4nodeINtB6_7NodeRefNtNtB6_6marker5OwnedNtNtBc_6string6StringTINtNtB8_3set8BTreeSetB1s_EINtNtCs6IAuOt8vWmF_3syn10punctuated10PunctuatedNtCs3cP53eQoTwO_11proc_macro211TokenStreamNtNtB2j_5token4PlusEENtB1a_8InternalE12new_internalNtNtBc_5alloc6GlobalECsjOFMLY5rhAS_14thiserror_impl, symObjAddr: 0x15C0, symBinAddr: 0x2210, symSize: 0x98 }
  - { offset: 0x2225F, size: 0x8, addend: 0x0, symName: __RINvMs9_NtNtNtCse1nGBsou5OW_5alloc11collections5btree4nodeINtB6_7NodeRefNtNtB6_6marker5OwnedNtNtBc_6string6StringTINtNtB8_3set8BTreeSetB1s_EINtNtCs6IAuOt8vWmF_3syn10punctuated10PunctuatedNtCs3cP53eQoTwO_11proc_macro211TokenStreamNtNtB2j_5token4PlusEENtB1a_8InternalE17from_new_internalNtNtBc_5alloc6GlobalECsjOFMLY5rhAS_14thiserror_impl, symObjAddr: 0x1658, symBinAddr: 0x22A8, symSize: 0xC0 }
  - { offset: 0x22478, size: 0x8, addend: 0x0, symName: __RINvMs9_NtNtNtCse1nGBsou5OW_5alloc11collections5btree4nodeINtB6_7NodeRefNtNtB6_6marker5OwnedRNtCs3cP53eQoTwO_11proc_macro25IdentNtNtB8_7set_val9SetValZSTNtB1a_8InternalE12new_internalNtNtBc_5alloc6GlobalECsjOFMLY5rhAS_14thiserror_impl, symObjAddr: 0x1718, symBinAddr: 0x2368, symSize: 0x98 }
  - { offset: 0x2269E, size: 0x8, addend: 0x0, symName: __RINvMs9_NtNtNtCse1nGBsou5OW_5alloc11collections5btree4nodeINtB6_7NodeRefNtNtB6_6marker5OwnedRNtCs3cP53eQoTwO_11proc_macro25IdentNtNtB8_7set_val9SetValZSTNtB1a_8InternalE17from_new_internalNtNtBc_5alloc6GlobalECsjOFMLY5rhAS_14thiserror_impl, symObjAddr: 0x17B0, symBinAddr: 0x2400, symSize: 0xC0 }
  - { offset: 0x228B7, size: 0x8, addend: 0x0, symName: __RINvMs9_NtNtNtCse1nGBsou5OW_5alloc11collections5btree4nodeINtB6_7NodeRefNtNtB6_6marker5OwnedTjNtNtCsjOFMLY5rhAS_14thiserror_impl4attr5TraitENtNtB8_7set_val9SetValZSTNtB1a_8InternalE12new_internalNtNtBc_5alloc6GlobalEB1y_, symObjAddr: 0x1870, symBinAddr: 0x24C0, symSize: 0x98 }
  - { offset: 0x22AEA, size: 0x8, addend: 0x0, symName: __RINvMs9_NtNtNtCse1nGBsou5OW_5alloc11collections5btree4nodeINtB6_7NodeRefNtNtB6_6marker5OwnedTjNtNtCsjOFMLY5rhAS_14thiserror_impl4attr5TraitENtNtB8_7set_val9SetValZSTNtB1a_8InternalE17from_new_internalNtNtBc_5alloc6GlobalEB1y_, symObjAddr: 0x1908, symBinAddr: 0x2558, symSize: 0xC0 }
  - { offset: 0x22EFA, size: 0x8, addend: 0x0, symName: __RINvMsK_NtNtNtCse1nGBsou5OW_5alloc11collections5btree4nodeINtB6_6HandleINtB6_7NodeRefNtNtB6_6marker3MutNtCs3cP53eQoTwO_11proc_macro25IdentNtNtB8_7set_val9SetValZSTNtB1n_4LeafENtB1n_4EdgeE6insertNtNtBc_5alloc6GlobalECsjOFMLY5rhAS_14thiserror_impl, symObjAddr: 0x19C8, symBinAddr: 0x2618, symSize: 0x508 }
  - { offset: 0x233B7, size: 0x8, addend: 0x0, symName: __RINvMsK_NtNtNtCse1nGBsou5OW_5alloc11collections5btree4nodeINtB6_6HandleINtB6_7NodeRefNtNtB6_6marker3MutNtNtBc_6string6StringNtNtB8_7set_val9SetValZSTNtB1n_4LeafENtB1n_4EdgeE6insertNtNtBc_5alloc6GlobalECsjOFMLY5rhAS_14thiserror_impl, symObjAddr: 0x1ED0, symBinAddr: 0x2B20, symSize: 0x50C }
  - { offset: 0x23892, size: 0x8, addend: 0x0, symName: __RINvMsK_NtNtNtCse1nGBsou5OW_5alloc11collections5btree4nodeINtB6_6HandleINtB6_7NodeRefNtNtB6_6marker3MutNtNtBc_6string6StringTINtNtB8_3set8BTreeSetB1D_EINtNtCs6IAuOt8vWmF_3syn10punctuated10PunctuatedNtCs3cP53eQoTwO_11proc_macro211TokenStreamNtNtB2u_5token4PlusEENtB1n_4LeafENtB1n_4EdgeE6insertNtNtBc_5alloc6GlobalECsjOFMLY5rhAS_14thiserror_impl, symObjAddr: 0x23DC, symBinAddr: 0x302C, symSize: 0x570 }
  - { offset: 0x23D6D, size: 0x8, addend: 0x0, symName: __RINvMsK_NtNtNtCse1nGBsou5OW_5alloc11collections5btree4nodeINtB6_6HandleINtB6_7NodeRefNtNtB6_6marker3MutTjNtNtCsjOFMLY5rhAS_14thiserror_impl4attr5TraitENtNtB8_7set_val9SetValZSTNtB1n_4LeafENtB1n_4EdgeE6insertNtNtBc_5alloc6GlobalEB1J_, symObjAddr: 0x294C, symBinAddr: 0x359C, symSize: 0x4CC }
  - { offset: 0x2417F, size: 0x8, addend: 0x0, symName: __RINvMsM_NtNtNtCse1nGBsou5OW_5alloc11collections5btree4nodeINtB6_6HandleINtB6_7NodeRefNtNtB6_6marker3MutNtCs3cP53eQoTwO_11proc_macro25IdentNtNtB8_7set_val9SetValZSTNtB1n_8InternalENtB1n_4EdgeE6insertNtNtBc_5alloc6GlobalECsjOFMLY5rhAS_14thiserror_impl, symObjAddr: 0x2E18, symBinAddr: 0x3A68, symSize: 0x574 }
  - { offset: 0x244DD, size: 0x8, addend: 0x0, symName: __RINvMsM_NtNtNtCse1nGBsou5OW_5alloc11collections5btree4nodeINtB6_6HandleINtB6_7NodeRefNtNtB6_6marker3MutNtNtBc_6string6StringNtNtB8_7set_val9SetValZSTNtB1n_8InternalENtB1n_4EdgeE6insertNtNtBc_5alloc6GlobalECsjOFMLY5rhAS_14thiserror_impl, symObjAddr: 0x338C, symBinAddr: 0x3FDC, symSize: 0x57C }
  - { offset: 0x2483B, size: 0x8, addend: 0x0, symName: __RINvMsM_NtNtNtCse1nGBsou5OW_5alloc11collections5btree4nodeINtB6_6HandleINtB6_7NodeRefNtNtB6_6marker3MutNtNtBc_6string6StringTINtNtB8_3set8BTreeSetB1D_EINtNtCs6IAuOt8vWmF_3syn10punctuated10PunctuatedNtCs3cP53eQoTwO_11proc_macro211TokenStreamNtNtB2u_5token4PlusEENtB1n_8InternalENtB1n_4EdgeE6insertNtNtBc_5alloc6GlobalECsjOFMLY5rhAS_14thiserror_impl, symObjAddr: 0x3908, symBinAddr: 0x4558, symSize: 0x5F4 }
  - { offset: 0x24B99, size: 0x8, addend: 0x0, symName: __RINvMsM_NtNtNtCse1nGBsou5OW_5alloc11collections5btree4nodeINtB6_6HandleINtB6_7NodeRefNtNtB6_6marker3MutTjNtNtCsjOFMLY5rhAS_14thiserror_impl4attr5TraitENtNtB8_7set_val9SetValZSTNtB1n_8InternalENtB1n_4EdgeE6insertNtNtBc_5alloc6GlobalEB1J_, symObjAddr: 0x3EFC, symBinAddr: 0x4B4C, symSize: 0x55C }
  - { offset: 0x24E6C, size: 0x8, addend: 0x0, symName: __RINvMsN_NtNtNtCse1nGBsou5OW_5alloc11collections5btree4nodeINtB6_6HandleINtB6_7NodeRefNtNtB6_6marker3MutNtCs3cP53eQoTwO_11proc_macro25IdentNtNtB8_7set_val9SetValZSTNtB1n_4LeafENtB1n_4EdgeE16insert_recursingNtNtBc_5alloc6GlobalNCNvMs6_NtNtB8_3map5entryINtB3J_11VacantEntryB1D_B2c_E12insert_entry0ECsjOFMLY5rhAS_14thiserror_impl, symObjAddr: 0x4458, symBinAddr: 0x50A8, symSize: 0x480 }
  - { offset: 0x25195, size: 0x8, addend: 0x0, symName: __RINvMsN_NtNtNtCse1nGBsou5OW_5alloc11collections5btree4nodeINtB6_6HandleINtB6_7NodeRefNtNtB6_6marker3MutNtNtBc_6string6StringNtNtB8_7set_val9SetValZSTNtB1n_4LeafENtB1n_4EdgeE16insert_recursingNtNtBc_5alloc6GlobalNCNvMs6_NtNtB8_3map5entryINtB3v_11VacantEntryB1D_B1Y_E12insert_entry0ECsjOFMLY5rhAS_14thiserror_impl, symObjAddr: 0x48D8, symBinAddr: 0x5528, symSize: 0x488 }
  - { offset: 0x254CB, size: 0x8, addend: 0x0, symName: __RINvMsN_NtNtNtCse1nGBsou5OW_5alloc11collections5btree4nodeINtB6_6HandleINtB6_7NodeRefNtNtB6_6marker3MutNtNtBc_6string6StringTINtNtB8_3set8BTreeSetB1D_EINtNtCs6IAuOt8vWmF_3syn10punctuated10PunctuatedNtCs3cP53eQoTwO_11proc_macro211TokenStreamNtNtB2u_5token4PlusEENtB1n_4LeafENtB1n_4EdgeE16insert_recursingNtNtBc_5alloc6GlobalNCNvMs6_NtNtB8_3map5entryINtB5j_11VacantEntryB1D_B1Y_E12insert_entry0ECsjOFMLY5rhAS_14thiserror_impl, symObjAddr: 0x4D60, symBinAddr: 0x59B0, symSize: 0x560 }
  - { offset: 0x25801, size: 0x8, addend: 0x0, symName: __RINvMsN_NtNtNtCse1nGBsou5OW_5alloc11collections5btree4nodeINtB6_6HandleINtB6_7NodeRefNtNtB6_6marker3MutTjNtNtCsjOFMLY5rhAS_14thiserror_impl4attr5TraitENtNtB8_7set_val9SetValZSTNtB1n_4LeafENtB1n_4EdgeE16insert_recursingNtNtBc_5alloc6GlobalNCNvMs6_NtNtB8_3map5entryINtB3W_11VacantEntryB1D_B2p_E12insert_entry0EB1J_, symObjAddr: 0x52C0, symBinAddr: 0x5F10, symSize: 0x43C }
  - { offset: 0x25AAF, size: 0x8, addend: 0x0, symName: __RINvMsV_NtNtNtCse1nGBsou5OW_5alloc11collections5btree4nodeINtB6_6HandleINtB6_7NodeRefNtNtB6_6marker3MutNtCs3cP53eQoTwO_11proc_macro25IdentNtNtB8_7set_val9SetValZSTNtB1n_4LeafENtB1n_2KVE5splitNtNtBc_5alloc6GlobalECsjOFMLY5rhAS_14thiserror_impl, symObjAddr: 0x56FC, symBinAddr: 0x634C, symSize: 0xE0 }
  - { offset: 0x25BD6, size: 0x8, addend: 0x0, symName: __RINvMsV_NtNtNtCse1nGBsou5OW_5alloc11collections5btree4nodeINtB6_6HandleINtB6_7NodeRefNtNtB6_6marker3MutNtNtBc_6string6StringNtNtB8_7set_val9SetValZSTNtB1n_4LeafENtB1n_2KVE5splitNtNtBc_5alloc6GlobalECsjOFMLY5rhAS_14thiserror_impl, symObjAddr: 0x57DC, symBinAddr: 0x642C, symSize: 0xE0 }
  - { offset: 0x25CFD, size: 0x8, addend: 0x0, symName: __RINvMsV_NtNtNtCse1nGBsou5OW_5alloc11collections5btree4nodeINtB6_6HandleINtB6_7NodeRefNtNtB6_6marker3MutNtNtBc_6string6StringTINtNtB8_3set8BTreeSetB1D_EINtNtCs6IAuOt8vWmF_3syn10punctuated10PunctuatedNtCs3cP53eQoTwO_11proc_macro211TokenStreamNtNtB2u_5token4PlusEENtB1n_4LeafENtB1n_2KVE5splitNtNtBc_5alloc6GlobalECsjOFMLY5rhAS_14thiserror_impl, symObjAddr: 0x58BC, symBinAddr: 0x650C, symSize: 0x108 }
  - { offset: 0x25E27, size: 0x8, addend: 0x0, symName: __RINvMsV_NtNtNtCse1nGBsou5OW_5alloc11collections5btree4nodeINtB6_6HandleINtB6_7NodeRefNtNtB6_6marker3MutTjNtNtCsjOFMLY5rhAS_14thiserror_impl4attr5TraitENtNtB8_7set_val9SetValZSTNtB1n_4LeafENtB1n_2KVE5splitNtNtBc_5alloc6GlobalEB1J_, symObjAddr: 0x59C4, symBinAddr: 0x6614, symSize: 0xE4 }
  - { offset: 0x26084, size: 0x8, addend: 0x0, symName: __RINvMsW_NtNtNtCse1nGBsou5OW_5alloc11collections5btree4nodeINtB6_6HandleINtB6_7NodeRefNtNtB6_6marker3MutNtCs3cP53eQoTwO_11proc_macro25IdentNtNtB8_7set_val9SetValZSTNtB1n_8InternalENtB1n_2KVE5splitNtNtBc_5alloc6GlobalECsjOFMLY5rhAS_14thiserror_impl, symObjAddr: 0x5AA8, symBinAddr: 0x66F8, symSize: 0x240 }
  - { offset: 0x264F9, size: 0x8, addend: 0x0, symName: __RINvMsW_NtNtNtCse1nGBsou5OW_5alloc11collections5btree4nodeINtB6_6HandleINtB6_7NodeRefNtNtB6_6marker3MutNtNtBc_6string6StringNtNtB8_7set_val9SetValZSTNtB1n_8InternalENtB1n_2KVE5splitNtNtBc_5alloc6GlobalECsjOFMLY5rhAS_14thiserror_impl, symObjAddr: 0x5CE8, symBinAddr: 0x6938, symSize: 0x240 }
  - { offset: 0x2696E, size: 0x8, addend: 0x0, symName: __RINvMsW_NtNtNtCse1nGBsou5OW_5alloc11collections5btree4nodeINtB6_6HandleINtB6_7NodeRefNtNtB6_6marker3MutNtNtBc_6string6StringTINtNtB8_3set8BTreeSetB1D_EINtNtCs6IAuOt8vWmF_3syn10punctuated10PunctuatedNtCs3cP53eQoTwO_11proc_macro211TokenStreamNtNtB2u_5token4PlusEENtB1n_8InternalENtB1n_2KVE5splitNtNtBc_5alloc6GlobalECsjOFMLY5rhAS_14thiserror_impl, symObjAddr: 0x5F28, symBinAddr: 0x6B78, symSize: 0x260 }
  - { offset: 0x26DE3, size: 0x8, addend: 0x0, symName: __RINvMsW_NtNtNtCse1nGBsou5OW_5alloc11collections5btree4nodeINtB6_6HandleINtB6_7NodeRefNtNtB6_6marker3MutTjNtNtCsjOFMLY5rhAS_14thiserror_impl4attr5TraitENtNtB8_7set_val9SetValZSTNtB1n_8InternalENtB1n_2KVE5splitNtNtBc_5alloc6GlobalEB1J_, symObjAddr: 0x6188, symBinAddr: 0x6DD8, symSize: 0x23C }
  - { offset: 0x27186, size: 0x8, addend: 0x0, symName: __RINvMs_NtNtNtCse1nGBsou5OW_5alloc11collections5btree4nodeINtB5_12InternalNodeNtCs3cP53eQoTwO_11proc_macro25IdentNtNtB7_7set_val9SetValZSTE3newNtNtBb_5alloc6GlobalECsjOFMLY5rhAS_14thiserror_impl, symObjAddr: 0x63C4, symBinAddr: 0x7014, symSize: 0x68 }
  - { offset: 0x2739E, size: 0x8, addend: 0x0, symName: __RINvMs_NtNtNtCse1nGBsou5OW_5alloc11collections5btree4nodeINtB5_12InternalNodeNtNtBb_6string6StringNtNtB7_7set_val9SetValZSTE3newNtNtBb_5alloc6GlobalECsjOFMLY5rhAS_14thiserror_impl, symObjAddr: 0x642C, symBinAddr: 0x707C, symSize: 0x68 }
  - { offset: 0x275B6, size: 0x8, addend: 0x0, symName: __RINvMs_NtNtNtCse1nGBsou5OW_5alloc11collections5btree4nodeINtB5_12InternalNodeNtNtBb_6string6StringTINtNtB7_3set8BTreeSetB1d_EINtNtCs6IAuOt8vWmF_3syn10punctuated10PunctuatedNtCs3cP53eQoTwO_11proc_macro211TokenStreamNtNtB24_5token4PlusEEE3newNtNtBb_5alloc6GlobalECsjOFMLY5rhAS_14thiserror_impl, symObjAddr: 0x6494, symBinAddr: 0x70E4, symSize: 0x68 }
  - { offset: 0x277CE, size: 0x8, addend: 0x0, symName: __RINvMs_NtNtNtCse1nGBsou5OW_5alloc11collections5btree4nodeINtB5_12InternalNodeRNtCs3cP53eQoTwO_11proc_macro25IdentNtNtB7_7set_val9SetValZSTE3newNtNtBb_5alloc6GlobalECsjOFMLY5rhAS_14thiserror_impl, symObjAddr: 0x64FC, symBinAddr: 0x714C, symSize: 0x68 }
  - { offset: 0x279E6, size: 0x8, addend: 0x0, symName: __RINvMs_NtNtNtCse1nGBsou5OW_5alloc11collections5btree4nodeINtB5_12InternalNodeTjNtNtCsjOFMLY5rhAS_14thiserror_impl4attr5TraitENtNtB7_7set_val9SetValZSTE3newNtNtBb_5alloc6GlobalEB1j_, symObjAddr: 0x6564, symBinAddr: 0x71B4, symSize: 0x68 }
  - { offset: 0x27CDD, size: 0x8, addend: 0x0, symName: __RINvMs_NtNtNtCse1nGBsou5OW_5alloc11collections5btree6searchINtNtB7_4node7NodeRefNtNtBY_6marker3MutNtCs3cP53eQoTwO_11proc_macro25IdentNtNtB7_7set_val9SetValZSTNtB1i_14LeafOrInternalE11search_treeB1y_ECsjOFMLY5rhAS_14thiserror_impl, symObjAddr: 0x65CC, symBinAddr: 0x721C, symSize: 0x240 }
  - { offset: 0x28022, size: 0x8, addend: 0x0, symName: __RINvMs_NtNtNtCse1nGBsou5OW_5alloc11collections5btree6searchINtNtB7_4node7NodeRefNtNtBY_6marker3MutNtNtBb_6string6StringNtNtB7_7set_val9SetValZSTNtB1i_14LeafOrInternalE11search_treeB1y_ECsjOFMLY5rhAS_14thiserror_impl, symObjAddr: 0x680C, symBinAddr: 0x745C, symSize: 0x240 }
  - { offset: 0x28367, size: 0x8, addend: 0x0, symName: __RINvMs_NtNtNtCse1nGBsou5OW_5alloc11collections5btree6searchINtNtB7_4node7NodeRefNtNtBY_6marker3MutNtNtBb_6string6StringTINtNtB7_3set8BTreeSetB1y_EINtNtCs6IAuOt8vWmF_3syn10punctuated10PunctuatedNtCs3cP53eQoTwO_11proc_macro211TokenStreamNtNtB2p_5token4PlusEENtB1i_14LeafOrInternalE11search_treeB1y_ECsjOFMLY5rhAS_14thiserror_impl, symObjAddr: 0x6A4C, symBinAddr: 0x769C, symSize: 0x240 }
  - { offset: 0x286AC, size: 0x8, addend: 0x0, symName: __RINvMs_NtNtNtCse1nGBsou5OW_5alloc11collections5btree6searchINtNtB7_4node7NodeRefNtNtBY_6marker3MutTjNtNtCsjOFMLY5rhAS_14thiserror_impl4attr5TraitENtNtB7_7set_val9SetValZSTNtB1i_14LeafOrInternalE11search_treeB1y_EB1E_, symObjAddr: 0x6C8C, symBinAddr: 0x78DC, symSize: 0x240 }
  - { offset: 0x28A2D, size: 0x8, addend: 0x0, symName: __RINvMs_NtNtNtCse1nGBsou5OW_5alloc11collections5btree6searchINtNtB7_4node7NodeRefNtNtBY_6marker5ImmutNtNtBb_6string6StringTINtNtB7_3set8BTreeSetB1A_EINtNtCs6IAuOt8vWmF_3syn10punctuated10PunctuatedNtCs3cP53eQoTwO_11proc_macro211TokenStreamNtNtB2r_5token4PlusEENtB1i_14LeafOrInternalE11search_treeB1A_ECsjOFMLY5rhAS_14thiserror_impl, symObjAddr: 0x6ECC, symBinAddr: 0x7B1C, symSize: 0x240 }
  - { offset: 0x28D72, size: 0x8, addend: 0x0, symName: __RINvMs_NtNtNtCse1nGBsou5OW_5alloc11collections5btree6searchINtNtB7_4node7NodeRefNtNtBY_6marker5ImmutRNtCs3cP53eQoTwO_11proc_macro25IdentNtNtB7_7set_val9SetValZSTNtB1i_14LeafOrInternalE11search_treeB1B_ECsjOFMLY5rhAS_14thiserror_impl, symObjAddr: 0x710C, symBinAddr: 0x7D5C, symSize: 0x240 }
  - { offset: 0x29045, size: 0x8, addend: 0x0, symName: __RINvMsh_NtNtNtCse1nGBsou5OW_5alloc11collections5btree4nodeINtB6_7NodeRefNtNtB6_6marker5DyingNtCs3cP53eQoTwO_11proc_macro25IdentNtNtB8_7set_val9SetValZSTNtB1a_14LeafOrInternalE21deallocate_and_ascendNtNtBc_5alloc6GlobalECsjOFMLY5rhAS_14thiserror_impl, symObjAddr: 0x734C, symBinAddr: 0x7F9C, symSize: 0x178 }
  - { offset: 0x292B8, size: 0x8, addend: 0x0, symName: __RINvMsh_NtNtNtCse1nGBsou5OW_5alloc11collections5btree4nodeINtB6_7NodeRefNtNtB6_6marker5DyingNtNtBc_6string6StringNtNtB8_7set_val9SetValZSTNtB1a_14LeafOrInternalE21deallocate_and_ascendNtNtBc_5alloc6GlobalECsjOFMLY5rhAS_14thiserror_impl, symObjAddr: 0x74C4, symBinAddr: 0x8114, symSize: 0x178 }
  - { offset: 0x2952B, size: 0x8, addend: 0x0, symName: __RINvMsh_NtNtNtCse1nGBsou5OW_5alloc11collections5btree4nodeINtB6_7NodeRefNtNtB6_6marker5DyingNtNtBc_6string6StringTINtNtB8_3set8BTreeSetB1s_EINtNtCs6IAuOt8vWmF_3syn10punctuated10PunctuatedNtCs3cP53eQoTwO_11proc_macro211TokenStreamNtNtB2j_5token4PlusEENtB1a_14LeafOrInternalE21deallocate_and_ascendNtNtBc_5alloc6GlobalECsjOFMLY5rhAS_14thiserror_impl, symObjAddr: 0x763C, symBinAddr: 0x828C, symSize: 0x178 }
  - { offset: 0x2979E, size: 0x8, addend: 0x0, symName: __RINvMsh_NtNtNtCse1nGBsou5OW_5alloc11collections5btree4nodeINtB6_7NodeRefNtNtB6_6marker5DyingRNtCs3cP53eQoTwO_11proc_macro25IdentNtNtB8_7set_val9SetValZSTNtB1a_14LeafOrInternalE21deallocate_and_ascendNtNtBc_5alloc6GlobalECsjOFMLY5rhAS_14thiserror_impl, symObjAddr: 0x77B4, symBinAddr: 0x8404, symSize: 0x178 }
  - { offset: 0x29A11, size: 0x8, addend: 0x0, symName: __RINvMsh_NtNtNtCse1nGBsou5OW_5alloc11collections5btree4nodeINtB6_7NodeRefNtNtB6_6marker5DyingTjNtNtCsjOFMLY5rhAS_14thiserror_impl4attr5TraitENtNtB8_7set_val9SetValZSTNtB1a_14LeafOrInternalE21deallocate_and_ascendNtNtBc_5alloc6GlobalEB1y_, symObjAddr: 0x792C, symBinAddr: 0x857C, symSize: 0x178 }
  - { offset: 0x29C57, size: 0x8, addend: 0x0, symName: __RINvMsj_NtNtNtCse1nGBsou5OW_5alloc11collections5btree8navigateINtNtB8_4node6HandleINtB11_7NodeRefNtNtB11_6marker5DyingNtCs3cP53eQoTwO_11proc_macro25IdentNtNtB8_7set_val9SetValZSTNtB1z_4LeafENtB1z_4EdgeE16deallocating_endNtNtBc_5alloc6GlobalECsjOFMLY5rhAS_14thiserror_impl, symObjAddr: 0x7AA4, symBinAddr: 0x86F4, symSize: 0xD8 }
  - { offset: 0x29ECB, size: 0x8, addend: 0x0, symName: __RINvMsj_NtNtNtCse1nGBsou5OW_5alloc11collections5btree8navigateINtNtB8_4node6HandleINtB11_7NodeRefNtNtB11_6marker5DyingNtCs3cP53eQoTwO_11proc_macro25IdentNtNtB8_7set_val9SetValZSTNtB1z_4LeafENtB1z_4EdgeE17deallocating_nextNtNtBc_5alloc6GlobalECsjOFMLY5rhAS_14thiserror_impl, symObjAddr: 0x7B7C, symBinAddr: 0x87CC, symSize: 0x254 }
  - { offset: 0x2A0FF, size: 0x8, addend: 0x0, symName: __RINvMsj_NtNtNtCse1nGBsou5OW_5alloc11collections5btree8navigateINtNtB8_4node6HandleINtB11_7NodeRefNtNtB11_6marker5DyingNtNtBc_6string6StringNtNtB8_7set_val9SetValZSTNtB1z_4LeafENtB1z_4EdgeE16deallocating_endNtNtBc_5alloc6GlobalECsjOFMLY5rhAS_14thiserror_impl, symObjAddr: 0x7DD0, symBinAddr: 0x8A20, symSize: 0xD8 }
  - { offset: 0x2A373, size: 0x8, addend: 0x0, symName: __RINvMsj_NtNtNtCse1nGBsou5OW_5alloc11collections5btree8navigateINtNtB8_4node6HandleINtB11_7NodeRefNtNtB11_6marker5DyingNtNtBc_6string6StringNtNtB8_7set_val9SetValZSTNtB1z_4LeafENtB1z_4EdgeE17deallocating_nextNtNtBc_5alloc6GlobalECsjOFMLY5rhAS_14thiserror_impl, symObjAddr: 0x7EA8, symBinAddr: 0x8AF8, symSize: 0x254 }
  - { offset: 0x2A5A7, size: 0x8, addend: 0x0, symName: __RINvMsj_NtNtNtCse1nGBsou5OW_5alloc11collections5btree8navigateINtNtB8_4node6HandleINtB11_7NodeRefNtNtB11_6marker5DyingNtNtBc_6string6StringTINtNtB8_3set8BTreeSetB1S_EINtNtCs6IAuOt8vWmF_3syn10punctuated10PunctuatedNtCs3cP53eQoTwO_11proc_macro211TokenStreamNtNtB2J_5token4PlusEENtB1z_4LeafENtB1z_4EdgeE16deallocating_endNtNtBc_5alloc6GlobalECsjOFMLY5rhAS_14thiserror_impl, symObjAddr: 0x80FC, symBinAddr: 0x8D4C, symSize: 0xD8 }
  - { offset: 0x2A81B, size: 0x8, addend: 0x0, symName: __RINvMsj_NtNtNtCse1nGBsou5OW_5alloc11collections5btree8navigateINtNtB8_4node6HandleINtB11_7NodeRefNtNtB11_6marker5DyingNtNtBc_6string6StringTINtNtB8_3set8BTreeSetB1S_EINtNtCs6IAuOt8vWmF_3syn10punctuated10PunctuatedNtCs3cP53eQoTwO_11proc_macro211TokenStreamNtNtB2J_5token4PlusEENtB1z_4LeafENtB1z_4EdgeE17deallocating_nextNtNtBc_5alloc6GlobalECsjOFMLY5rhAS_14thiserror_impl, symObjAddr: 0x81D4, symBinAddr: 0x8E24, symSize: 0x254 }
  - { offset: 0x2AA4F, size: 0x8, addend: 0x0, symName: __RINvMsj_NtNtNtCse1nGBsou5OW_5alloc11collections5btree8navigateINtNtB8_4node6HandleINtB11_7NodeRefNtNtB11_6marker5DyingRNtCs3cP53eQoTwO_11proc_macro25IdentNtNtB8_7set_val9SetValZSTNtB1z_4LeafENtB1z_4EdgeE16deallocating_endNtNtBc_5alloc6GlobalECsjOFMLY5rhAS_14thiserror_impl, symObjAddr: 0x8428, symBinAddr: 0x9078, symSize: 0xD8 }
  - { offset: 0x2ACC3, size: 0x8, addend: 0x0, symName: __RINvMsj_NtNtNtCse1nGBsou5OW_5alloc11collections5btree8navigateINtNtB8_4node6HandleINtB11_7NodeRefNtNtB11_6marker5DyingRNtCs3cP53eQoTwO_11proc_macro25IdentNtNtB8_7set_val9SetValZSTNtB1z_4LeafENtB1z_4EdgeE17deallocating_nextNtNtBc_5alloc6GlobalECsjOFMLY5rhAS_14thiserror_impl, symObjAddr: 0x8500, symBinAddr: 0x9150, symSize: 0x254 }
  - { offset: 0x2AEF7, size: 0x8, addend: 0x0, symName: __RINvMsj_NtNtNtCse1nGBsou5OW_5alloc11collections5btree8navigateINtNtB8_4node6HandleINtB11_7NodeRefNtNtB11_6marker5DyingTjNtNtCsjOFMLY5rhAS_14thiserror_impl4attr5TraitENtNtB8_7set_val9SetValZSTNtB1z_4LeafENtB1z_4EdgeE16deallocating_endNtNtBc_5alloc6GlobalEB1Y_, symObjAddr: 0x8754, symBinAddr: 0x93A4, symSize: 0xD8 }
  - { offset: 0x2B16B, size: 0x8, addend: 0x0, symName: __RINvMsj_NtNtNtCse1nGBsou5OW_5alloc11collections5btree8navigateINtNtB8_4node6HandleINtB11_7NodeRefNtNtB11_6marker5DyingTjNtNtCsjOFMLY5rhAS_14thiserror_impl4attr5TraitENtNtB8_7set_val9SetValZSTNtB1z_4LeafENtB1z_4EdgeE17deallocating_nextNtNtBc_5alloc6GlobalEB1Y_, symObjAddr: 0x882C, symBinAddr: 0x947C, symSize: 0x254 }
  - { offset: 0x2B3B6, size: 0x8, addend: 0x0, symName: __RINvMsp_NtNtNtCse1nGBsou5OW_5alloc11collections5btree4nodeINtB6_7NodeRefNtNtB6_6marker3MutNtCs3cP53eQoTwO_11proc_macro25IdentNtNtB8_7set_val9SetValZSTNtB1a_8InternalE30correct_childrens_parent_linksINtNtNtCsfvfooZQ3Axs_4core3ops5range14RangeInclusivejEECsjOFMLY5rhAS_14thiserror_impl, symObjAddr: 0x8A80, symBinAddr: 0x96D0, symSize: 0xB4 }
  - { offset: 0x2B4ED, size: 0x8, addend: 0x0, symName: __RINvMsp_NtNtNtCse1nGBsou5OW_5alloc11collections5btree4nodeINtB6_7NodeRefNtNtB6_6marker3MutNtCs3cP53eQoTwO_11proc_macro25IdentNtNtB8_7set_val9SetValZSTNtB1a_8InternalE30correct_childrens_parent_linksINtNtNtCsfvfooZQ3Axs_4core3ops5range5RangejEECsjOFMLY5rhAS_14thiserror_impl, symObjAddr: 0x8B34, symBinAddr: 0x9784, symSize: 0xB4 }
  - { offset: 0x2B623, size: 0x8, addend: 0x0, symName: __RINvMsp_NtNtNtCse1nGBsou5OW_5alloc11collections5btree4nodeINtB6_7NodeRefNtNtB6_6marker3MutNtNtBc_6string6StringNtNtB8_7set_val9SetValZSTNtB1a_8InternalE30correct_childrens_parent_linksINtNtNtCsfvfooZQ3Axs_4core3ops5range14RangeInclusivejEECsjOFMLY5rhAS_14thiserror_impl, symObjAddr: 0x8BE8, symBinAddr: 0x9838, symSize: 0xB4 }
  - { offset: 0x2B75A, size: 0x8, addend: 0x0, symName: __RINvMsp_NtNtNtCse1nGBsou5OW_5alloc11collections5btree4nodeINtB6_7NodeRefNtNtB6_6marker3MutNtNtBc_6string6StringNtNtB8_7set_val9SetValZSTNtB1a_8InternalE30correct_childrens_parent_linksINtNtNtCsfvfooZQ3Axs_4core3ops5range5RangejEECsjOFMLY5rhAS_14thiserror_impl, symObjAddr: 0x8C9C, symBinAddr: 0x98EC, symSize: 0xB4 }
  - { offset: 0x2B890, size: 0x8, addend: 0x0, symName: __RINvMsp_NtNtNtCse1nGBsou5OW_5alloc11collections5btree4nodeINtB6_7NodeRefNtNtB6_6marker3MutNtNtBc_6string6StringTINtNtB8_3set8BTreeSetB1q_EINtNtCs6IAuOt8vWmF_3syn10punctuated10PunctuatedNtCs3cP53eQoTwO_11proc_macro211TokenStreamNtNtB2h_5token4PlusEENtB1a_8InternalE30correct_childrens_parent_linksINtNtNtCsfvfooZQ3Axs_4core3ops5range14RangeInclusivejEECsjOFMLY5rhAS_14thiserror_impl, symObjAddr: 0x8D50, symBinAddr: 0x99A0, symSize: 0xB4 }
  - { offset: 0x2B9C7, size: 0x8, addend: 0x0, symName: __RINvMsp_NtNtNtCse1nGBsou5OW_5alloc11collections5btree4nodeINtB6_7NodeRefNtNtB6_6marker3MutNtNtBc_6string6StringTINtNtB8_3set8BTreeSetB1q_EINtNtCs6IAuOt8vWmF_3syn10punctuated10PunctuatedNtCs3cP53eQoTwO_11proc_macro211TokenStreamNtNtB2h_5token4PlusEENtB1a_8InternalE30correct_childrens_parent_linksINtNtNtCsfvfooZQ3Axs_4core3ops5range5RangejEECsjOFMLY5rhAS_14thiserror_impl, symObjAddr: 0x8E04, symBinAddr: 0x9A54, symSize: 0xB4 }
  - { offset: 0x2BAFD, size: 0x8, addend: 0x0, symName: __RINvMsp_NtNtNtCse1nGBsou5OW_5alloc11collections5btree4nodeINtB6_7NodeRefNtNtB6_6marker3MutRNtCs3cP53eQoTwO_11proc_macro25IdentNtNtB8_7set_val9SetValZSTNtB1a_8InternalE30correct_childrens_parent_linksINtNtNtCsfvfooZQ3Axs_4core3ops5range14RangeInclusivejEECsjOFMLY5rhAS_14thiserror_impl, symObjAddr: 0x8EB8, symBinAddr: 0x9B08, symSize: 0xB4 }
  - { offset: 0x2BC34, size: 0x8, addend: 0x0, symName: __RINvMsp_NtNtNtCse1nGBsou5OW_5alloc11collections5btree4nodeINtB6_7NodeRefNtNtB6_6marker3MutRNtCs3cP53eQoTwO_11proc_macro25IdentNtNtB8_7set_val9SetValZSTNtB1a_8InternalE30correct_childrens_parent_linksINtNtNtCsfvfooZQ3Axs_4core3ops5range5RangejEECsjOFMLY5rhAS_14thiserror_impl, symObjAddr: 0x8F6C, symBinAddr: 0x9BBC, symSize: 0xB4 }
  - { offset: 0x2BD6A, size: 0x8, addend: 0x0, symName: __RINvMsp_NtNtNtCse1nGBsou5OW_5alloc11collections5btree4nodeINtB6_7NodeRefNtNtB6_6marker3MutTjNtNtCsjOFMLY5rhAS_14thiserror_impl4attr5TraitENtNtB8_7set_val9SetValZSTNtB1a_8InternalE30correct_childrens_parent_linksINtNtNtCsfvfooZQ3Axs_4core3ops5range14RangeInclusivejEEB1w_, symObjAddr: 0x9020, symBinAddr: 0x9C70, symSize: 0xB4 }
  - { offset: 0x2BEA1, size: 0x8, addend: 0x0, symName: __RINvMsp_NtNtNtCse1nGBsou5OW_5alloc11collections5btree4nodeINtB6_7NodeRefNtNtB6_6marker3MutTjNtNtCsjOFMLY5rhAS_14thiserror_impl4attr5TraitENtNtB8_7set_val9SetValZSTNtB1a_8InternalE30correct_childrens_parent_linksINtNtNtCsfvfooZQ3Axs_4core3ops5range5RangejEEB1w_, symObjAddr: 0x90D4, symBinAddr: 0x9D24, symSize: 0xB4 }
  - { offset: 0x2C5CB, size: 0x8, addend: 0x0, symName: __RNvMs0_NtNtNtCse1nGBsou5OW_5alloc11collections5btree3fixINtNtB7_4node7NodeRefNtNtBV_6marker5OwnedRNtCs3cP53eQoTwO_11proc_macro25IdentNtNtB7_7set_val9SetValZSTNtB1f_14LeafOrInternalE29fix_right_border_of_plentifulCsjOFMLY5rhAS_14thiserror_impl, symObjAddr: 0xA61C, symBinAddr: 0xB26C, symSize: 0x188 }
  - { offset: 0x2CD3E, size: 0x8, addend: 0x0, symName: __RNvMs10_NtNtNtCse1nGBsou5OW_5alloc11collections5btree4nodeINtB6_16BalancingContextRNtCs3cP53eQoTwO_11proc_macro25IdentNtNtB8_7set_val9SetValZSTE15bulk_steal_leftCsjOFMLY5rhAS_14thiserror_impl, symObjAddr: 0xA7A4, symBinAddr: 0xB3F4, symSize: 0x8E4 }
  - { offset: 0x2E2A2, size: 0x8, addend: 0x0, symName: __RNvMsJ_NtNtNtCse1nGBsou5OW_5alloc11collections5btree4nodeINtB5_6HandleINtB5_7NodeRefNtNtB5_6marker3MutNtCs3cP53eQoTwO_11proc_macro25IdentNtNtB7_7set_val9SetValZSTNtB1m_4LeafENtB1m_4EdgeE10insert_fitCsjOFMLY5rhAS_14thiserror_impl, symObjAddr: 0xB088, symBinAddr: 0xBCD8, symSize: 0x1E4 }
  - { offset: 0x2E801, size: 0x8, addend: 0x0, symName: __RNvMsJ_NtNtNtCse1nGBsou5OW_5alloc11collections5btree4nodeINtB5_6HandleINtB5_7NodeRefNtNtB5_6marker3MutNtNtBb_6string6StringNtNtB7_7set_val9SetValZSTNtB1m_4LeafENtB1m_4EdgeE10insert_fitCsjOFMLY5rhAS_14thiserror_impl, symObjAddr: 0xB26C, symBinAddr: 0xBEBC, symSize: 0x1E4 }
  - { offset: 0x2ED60, size: 0x8, addend: 0x0, symName: __RNvMsJ_NtNtNtCse1nGBsou5OW_5alloc11collections5btree4nodeINtB5_6HandleINtB5_7NodeRefNtNtB5_6marker3MutNtNtBb_6string6StringTINtNtB7_3set8BTreeSetB1C_EINtNtCs6IAuOt8vWmF_3syn10punctuated10PunctuatedNtCs3cP53eQoTwO_11proc_macro211TokenStreamNtNtB2t_5token4PlusEENtB1m_4LeafENtB1m_4EdgeE10insert_fitCsjOFMLY5rhAS_14thiserror_impl, symObjAddr: 0xB450, symBinAddr: 0xC0A0, symSize: 0x21C }
  - { offset: 0x2F2BF, size: 0x8, addend: 0x0, symName: __RNvMsJ_NtNtNtCse1nGBsou5OW_5alloc11collections5btree4nodeINtB5_6HandleINtB5_7NodeRefNtNtB5_6marker3MutTjNtNtCsjOFMLY5rhAS_14thiserror_impl4attr5TraitENtNtB7_7set_val9SetValZSTNtB1m_4LeafENtB1m_4EdgeE10insert_fitB1I_, symObjAddr: 0xB66C, symBinAddr: 0xC2BC, symSize: 0x1E0 }
  - { offset: 0x2F743, size: 0x8, addend: 0x0, symName: __RNvMsL_NtNtNtCse1nGBsou5OW_5alloc11collections5btree4nodeINtB5_6HandleINtB5_7NodeRefNtNtB5_6marker3MutNtCs3cP53eQoTwO_11proc_macro25IdentNtNtB7_7set_val9SetValZSTNtB1m_8InternalENtB1m_4EdgeE19correct_parent_linkCsjOFMLY5rhAS_14thiserror_impl, symObjAddr: 0xB84C, symBinAddr: 0xC49C, symSize: 0xA4 }
  - { offset: 0x2F971, size: 0x8, addend: 0x0, symName: __RNvMsL_NtNtNtCse1nGBsou5OW_5alloc11collections5btree4nodeINtB5_6HandleINtB5_7NodeRefNtNtB5_6marker3MutNtNtBb_6string6StringNtNtB7_7set_val9SetValZSTNtB1m_8InternalENtB1m_4EdgeE19correct_parent_linkCsjOFMLY5rhAS_14thiserror_impl, symObjAddr: 0xB8F0, symBinAddr: 0xC540, symSize: 0xA4 }
  - { offset: 0x2FB9F, size: 0x8, addend: 0x0, symName: __RNvMsL_NtNtNtCse1nGBsou5OW_5alloc11collections5btree4nodeINtB5_6HandleINtB5_7NodeRefNtNtB5_6marker3MutNtNtBb_6string6StringTINtNtB7_3set8BTreeSetB1C_EINtNtCs6IAuOt8vWmF_3syn10punctuated10PunctuatedNtCs3cP53eQoTwO_11proc_macro211TokenStreamNtNtB2t_5token4PlusEENtB1m_8InternalENtB1m_4EdgeE19correct_parent_linkCsjOFMLY5rhAS_14thiserror_impl, symObjAddr: 0xB994, symBinAddr: 0xC5E4, symSize: 0xA4 }
  - { offset: 0x2FDC0, size: 0x8, addend: 0x0, symName: __RNvMsL_NtNtNtCse1nGBsou5OW_5alloc11collections5btree4nodeINtB5_6HandleINtB5_7NodeRefNtNtB5_6marker3MutRNtCs3cP53eQoTwO_11proc_macro25IdentNtNtB7_7set_val9SetValZSTNtB1m_8InternalENtB1m_4EdgeE19correct_parent_linkCsjOFMLY5rhAS_14thiserror_impl, symObjAddr: 0xBA38, symBinAddr: 0xC688, symSize: 0xA4 }
  - { offset: 0x2FFEE, size: 0x8, addend: 0x0, symName: __RNvMsL_NtNtNtCse1nGBsou5OW_5alloc11collections5btree4nodeINtB5_6HandleINtB5_7NodeRefNtNtB5_6marker3MutTjNtNtCsjOFMLY5rhAS_14thiserror_impl4attr5TraitENtNtB7_7set_val9SetValZSTNtB1m_8InternalENtB1m_4EdgeE19correct_parent_linkB1I_, symObjAddr: 0xBADC, symBinAddr: 0xC72C, symSize: 0xA4 }
  - { offset: 0x3033A, size: 0x8, addend: 0x0, symName: __RNvMsM_NtNtNtCse1nGBsou5OW_5alloc11collections5btree4nodeINtB5_6HandleINtB5_7NodeRefNtNtB5_6marker3MutNtCs3cP53eQoTwO_11proc_macro25IdentNtNtB7_7set_val9SetValZSTNtB1m_8InternalENtB1m_4EdgeE10insert_fitCsjOFMLY5rhAS_14thiserror_impl, symObjAddr: 0xBB80, symBinAddr: 0xC7D0, symSize: 0x27C }
  - { offset: 0x309E9, size: 0x8, addend: 0x0, symName: __RNvMsM_NtNtNtCse1nGBsou5OW_5alloc11collections5btree4nodeINtB5_6HandleINtB5_7NodeRefNtNtB5_6marker3MutNtNtBb_6string6StringNtNtB7_7set_val9SetValZSTNtB1m_8InternalENtB1m_4EdgeE10insert_fitCsjOFMLY5rhAS_14thiserror_impl, symObjAddr: 0xBDFC, symBinAddr: 0xCA4C, symSize: 0x27C }
  - { offset: 0x31098, size: 0x8, addend: 0x0, symName: __RNvMsM_NtNtNtCse1nGBsou5OW_5alloc11collections5btree4nodeINtB5_6HandleINtB5_7NodeRefNtNtB5_6marker3MutNtNtBb_6string6StringTINtNtB7_3set8BTreeSetB1C_EINtNtCs6IAuOt8vWmF_3syn10punctuated10PunctuatedNtCs3cP53eQoTwO_11proc_macro211TokenStreamNtNtB2t_5token4PlusEENtB1m_8InternalENtB1m_4EdgeE10insert_fitCsjOFMLY5rhAS_14thiserror_impl, symObjAddr: 0xC078, symBinAddr: 0xCCC8, symSize: 0x2B8 }
  - { offset: 0x31747, size: 0x8, addend: 0x0, symName: __RNvMsM_NtNtNtCse1nGBsou5OW_5alloc11collections5btree4nodeINtB5_6HandleINtB5_7NodeRefNtNtB5_6marker3MutTjNtNtCsjOFMLY5rhAS_14thiserror_impl4attr5TraitENtNtB7_7set_val9SetValZSTNtB1m_8InternalENtB1m_4EdgeE10insert_fitB1I_, symObjAddr: 0xC330, symBinAddr: 0xCF80, symSize: 0x25C }
  - { offset: 0x31C8C, size: 0x8, addend: 0x0, symName: __RNvMsO_NtNtNtCse1nGBsou5OW_5alloc11collections5btree4nodeINtB5_6HandleINtB5_7NodeRefNtNtB5_6marker3MutNtCs3cP53eQoTwO_11proc_macro25IdentNtNtB7_7set_val9SetValZSTNtB1m_8InternalENtB1m_4EdgeE7descendCsjOFMLY5rhAS_14thiserror_impl, symObjAddr: 0xC58C, symBinAddr: 0xD1DC, symSize: 0x94 }
  - { offset: 0x31E9D, size: 0x8, addend: 0x0, symName: __RNvMsO_NtNtNtCse1nGBsou5OW_5alloc11collections5btree4nodeINtB5_6HandleINtB5_7NodeRefNtNtB5_6marker3MutNtNtBb_6string6StringNtNtB7_7set_val9SetValZSTNtB1m_8InternalENtB1m_4EdgeE7descendCsjOFMLY5rhAS_14thiserror_impl, symObjAddr: 0xC620, symBinAddr: 0xD270, symSize: 0x94 }
  - { offset: 0x320AE, size: 0x8, addend: 0x0, symName: __RNvMsO_NtNtNtCse1nGBsou5OW_5alloc11collections5btree4nodeINtB5_6HandleINtB5_7NodeRefNtNtB5_6marker3MutNtNtBb_6string6StringTINtNtB7_3set8BTreeSetB1C_EINtNtCs6IAuOt8vWmF_3syn10punctuated10PunctuatedNtCs3cP53eQoTwO_11proc_macro211TokenStreamNtNtB2t_5token4PlusEENtB1m_8InternalENtB1m_4EdgeE7descendCsjOFMLY5rhAS_14thiserror_impl, symObjAddr: 0xC6B4, symBinAddr: 0xD304, symSize: 0x94 }
  - { offset: 0x322BF, size: 0x8, addend: 0x0, symName: __RNvMsO_NtNtNtCse1nGBsou5OW_5alloc11collections5btree4nodeINtB5_6HandleINtB5_7NodeRefNtNtB5_6marker3MutRNtCs3cP53eQoTwO_11proc_macro25IdentNtNtB7_7set_val9SetValZSTNtB1m_8InternalENtB1m_4EdgeE7descendCsjOFMLY5rhAS_14thiserror_impl, symObjAddr: 0xC748, symBinAddr: 0xD398, symSize: 0x94 }
  - { offset: 0x324D0, size: 0x8, addend: 0x0, symName: __RNvMsO_NtNtNtCse1nGBsou5OW_5alloc11collections5btree4nodeINtB5_6HandleINtB5_7NodeRefNtNtB5_6marker3MutTjNtNtCsjOFMLY5rhAS_14thiserror_impl4attr5TraitENtNtB7_7set_val9SetValZSTNtB1m_8InternalENtB1m_4EdgeE7descendB1I_, symObjAddr: 0xC7DC, symBinAddr: 0xD42C, symSize: 0x94 }
  - { offset: 0x326B6, size: 0x8, addend: 0x0, symName: __RNvMsO_NtNtNtCse1nGBsou5OW_5alloc11collections5btree4nodeINtB5_6HandleINtB5_7NodeRefNtNtB5_6marker5DyingNtCs3cP53eQoTwO_11proc_macro25IdentNtNtB7_7set_val9SetValZSTNtB1m_8InternalENtB1m_4EdgeE7descendCsjOFMLY5rhAS_14thiserror_impl, symObjAddr: 0xC870, symBinAddr: 0xD4C0, symSize: 0x94 }
  - { offset: 0x3289C, size: 0x8, addend: 0x0, symName: __RNvMsO_NtNtNtCse1nGBsou5OW_5alloc11collections5btree4nodeINtB5_6HandleINtB5_7NodeRefNtNtB5_6marker5DyingNtNtBb_6string6StringNtNtB7_7set_val9SetValZSTNtB1m_8InternalENtB1m_4EdgeE7descendCsjOFMLY5rhAS_14thiserror_impl, symObjAddr: 0xC904, symBinAddr: 0xD554, symSize: 0x94 }
  - { offset: 0x32A82, size: 0x8, addend: 0x0, symName: __RNvMsO_NtNtNtCse1nGBsou5OW_5alloc11collections5btree4nodeINtB5_6HandleINtB5_7NodeRefNtNtB5_6marker5DyingNtNtBb_6string6StringTINtNtB7_3set8BTreeSetB1E_EINtNtCs6IAuOt8vWmF_3syn10punctuated10PunctuatedNtCs3cP53eQoTwO_11proc_macro211TokenStreamNtNtB2v_5token4PlusEENtB1m_8InternalENtB1m_4EdgeE7descendCsjOFMLY5rhAS_14thiserror_impl, symObjAddr: 0xC998, symBinAddr: 0xD5E8, symSize: 0x94 }
  - { offset: 0x32C68, size: 0x8, addend: 0x0, symName: __RNvMsO_NtNtNtCse1nGBsou5OW_5alloc11collections5btree4nodeINtB5_6HandleINtB5_7NodeRefNtNtB5_6marker5DyingRNtCs3cP53eQoTwO_11proc_macro25IdentNtNtB7_7set_val9SetValZSTNtB1m_8InternalENtB1m_4EdgeE7descendCsjOFMLY5rhAS_14thiserror_impl, symObjAddr: 0xCA2C, symBinAddr: 0xD67C, symSize: 0x94 }
  - { offset: 0x32E4E, size: 0x8, addend: 0x0, symName: __RNvMsO_NtNtNtCse1nGBsou5OW_5alloc11collections5btree4nodeINtB5_6HandleINtB5_7NodeRefNtNtB5_6marker5DyingTjNtNtCsjOFMLY5rhAS_14thiserror_impl4attr5TraitENtNtB7_7set_val9SetValZSTNtB1m_8InternalENtB1m_4EdgeE7descendB1K_, symObjAddr: 0xCAC0, symBinAddr: 0xD710, symSize: 0x94 }
  - { offset: 0x33034, size: 0x8, addend: 0x0, symName: __RNvMsO_NtNtNtCse1nGBsou5OW_5alloc11collections5btree4nodeINtB5_6HandleINtB5_7NodeRefNtNtB5_6marker5ImmutNtNtBb_6string6StringTINtNtB7_3set8BTreeSetB1E_EINtNtCs6IAuOt8vWmF_3syn10punctuated10PunctuatedNtCs3cP53eQoTwO_11proc_macro211TokenStreamNtNtB2v_5token4PlusEENtB1m_8InternalENtB1m_4EdgeE7descendCsjOFMLY5rhAS_14thiserror_impl, symObjAddr: 0xCB54, symBinAddr: 0xD7A4, symSize: 0x94 }
  - { offset: 0x3321A, size: 0x8, addend: 0x0, symName: __RNvMsO_NtNtNtCse1nGBsou5OW_5alloc11collections5btree4nodeINtB5_6HandleINtB5_7NodeRefNtNtB5_6marker5ImmutRNtCs3cP53eQoTwO_11proc_macro25IdentNtNtB7_7set_val9SetValZSTNtB1m_8InternalENtB1m_4EdgeE7descendCsjOFMLY5rhAS_14thiserror_impl, symObjAddr: 0xCBE8, symBinAddr: 0xD838, symSize: 0x94 }
  - { offset: 0x33400, size: 0x8, addend: 0x0, symName: __RNvMsO_NtNtNtCse1nGBsou5OW_5alloc11collections5btree4nodeINtB5_6HandleINtB5_7NodeRefNtNtB5_6marker5ImmutTjNtNtCsjOFMLY5rhAS_14thiserror_impl4attr5TraitENtNtB7_7set_val9SetValZSTNtB1m_8InternalENtB1m_4EdgeE7descendB1K_, symObjAddr: 0xCC7C, symBinAddr: 0xD8CC, symSize: 0x94 }
  - { offset: 0x336F4, size: 0x8, addend: 0x0, symName: __RNvMsP_NtNtNtCse1nGBsou5OW_5alloc11collections5btree4nodeINtB5_6HandleINtB5_7NodeRefNtNtB5_6marker5ImmutNtNtBb_6string6StringTINtNtB7_3set8BTreeSetB1E_EINtNtCs6IAuOt8vWmF_3syn10punctuated10PunctuatedNtCs3cP53eQoTwO_11proc_macro211TokenStreamNtNtB2v_5token4PlusEENtB1m_14LeafOrInternalENtB1m_2KVE7into_kvCsjOFMLY5rhAS_14thiserror_impl, symObjAddr: 0xCD10, symBinAddr: 0xD960, symSize: 0xF0 }
  - { offset: 0x33A83, size: 0x8, addend: 0x0, symName: __RNvMsP_NtNtNtCse1nGBsou5OW_5alloc11collections5btree4nodeINtB5_6HandleINtB5_7NodeRefNtNtB5_6marker5ImmutRNtCs3cP53eQoTwO_11proc_macro25IdentNtNtB7_7set_val9SetValZSTNtB1m_14LeafOrInternalENtB1m_2KVE7into_kvCsjOFMLY5rhAS_14thiserror_impl, symObjAddr: 0xCE00, symBinAddr: 0xDA50, symSize: 0xD8 }
  - { offset: 0x33E09, size: 0x8, addend: 0x0, symName: __RNvMsP_NtNtNtCse1nGBsou5OW_5alloc11collections5btree4nodeINtB5_6HandleINtB5_7NodeRefNtNtB5_6marker5ImmutTjNtNtCsjOFMLY5rhAS_14thiserror_impl4attr5TraitENtNtB7_7set_val9SetValZSTNtB1m_4LeafENtB1m_2KVE7into_kvB1K_, symObjAddr: 0xCED8, symBinAddr: 0xDB28, symSize: 0xCC }
  - { offset: 0x3413C, size: 0x8, addend: 0x0, symName: __RNvMsP_NtNtNtCse1nGBsou5OW_5alloc11collections5btree4nodeINtB5_6HandleINtB5_7NodeRefNtNtB5_6marker5ImmutTjNtNtCsjOFMLY5rhAS_14thiserror_impl4attr5TraitENtNtB7_7set_val9SetValZSTNtB1m_8InternalENtB1m_2KVE7into_kvB1K_, symObjAddr: 0xCFA4, symBinAddr: 0xDBF4, symSize: 0xCC }
  - { offset: 0x3440C, size: 0x8, addend: 0x0, symName: __RNvMsQ_NtNtNtCse1nGBsou5OW_5alloc11collections5btree4nodeINtB5_6HandleINtB5_7NodeRefNtNtB5_6marker3MutNtCs3cP53eQoTwO_11proc_macro25IdentNtNtB7_7set_val9SetValZSTNtB1m_14LeafOrInternalENtB1m_2KVE12into_val_mutCsjOFMLY5rhAS_14thiserror_impl, symObjAddr: 0xD070, symBinAddr: 0xDCC0, symSize: 0x80 }
  - { offset: 0x34591, size: 0x8, addend: 0x0, symName: __RNvMsQ_NtNtNtCse1nGBsou5OW_5alloc11collections5btree4nodeINtB5_6HandleINtB5_7NodeRefNtNtB5_6marker3MutNtNtBb_6string6StringNtNtB7_7set_val9SetValZSTNtB1m_14LeafOrInternalENtB1m_2KVE12into_val_mutCsjOFMLY5rhAS_14thiserror_impl, symObjAddr: 0xD0F0, symBinAddr: 0xDD40, symSize: 0x80 }
  - { offset: 0x34716, size: 0x8, addend: 0x0, symName: __RNvMsQ_NtNtNtCse1nGBsou5OW_5alloc11collections5btree4nodeINtB5_6HandleINtB5_7NodeRefNtNtB5_6marker3MutNtNtBb_6string6StringTINtNtB7_3set8BTreeSetB1C_EINtNtCs6IAuOt8vWmF_3syn10punctuated10PunctuatedNtCs3cP53eQoTwO_11proc_macro211TokenStreamNtNtB2t_5token4PlusEENtB1m_14LeafOrInternalENtB1m_2KVE12into_val_mutCsjOFMLY5rhAS_14thiserror_impl, symObjAddr: 0xD170, symBinAddr: 0xDDC0, symSize: 0x8C }
  - { offset: 0x34893, size: 0x8, addend: 0x0, symName: __RNvMsQ_NtNtNtCse1nGBsou5OW_5alloc11collections5btree4nodeINtB5_6HandleINtB5_7NodeRefNtNtB5_6marker3MutRNtCs3cP53eQoTwO_11proc_macro25IdentNtNtB7_7set_val9SetValZSTNtB1m_4LeafENtB1m_2KVE12into_val_mutCsjOFMLY5rhAS_14thiserror_impl, symObjAddr: 0xD1FC, symBinAddr: 0xDE4C, symSize: 0x80 }
  - { offset: 0x34A18, size: 0x8, addend: 0x0, symName: __RNvMsQ_NtNtNtCse1nGBsou5OW_5alloc11collections5btree4nodeINtB5_6HandleINtB5_7NodeRefNtNtB5_6marker3MutTjNtNtCsjOFMLY5rhAS_14thiserror_impl4attr5TraitENtNtB7_7set_val9SetValZSTNtB1m_14LeafOrInternalENtB1m_2KVE12into_val_mutB1I_, symObjAddr: 0xD27C, symBinAddr: 0xDECC, symSize: 0x80 }
  - { offset: 0x34B9D, size: 0x8, addend: 0x0, symName: __RNvMsQ_NtNtNtCse1nGBsou5OW_5alloc11collections5btree4nodeINtB5_6HandleINtB5_7NodeRefNtNtB5_6marker3MutTjNtNtCsjOFMLY5rhAS_14thiserror_impl4attr5TraitENtNtB7_7set_val9SetValZSTNtB1m_4LeafENtB1m_2KVE12into_val_mutB1I_, symObjAddr: 0xD2FC, symBinAddr: 0xDF4C, symSize: 0x80 }
  - { offset: 0x34D84, size: 0x8, addend: 0x0, symName: __RNvMsS_NtNtNtCse1nGBsou5OW_5alloc11collections5btree4nodeINtB5_6HandleINtB5_7NodeRefNtNtB5_6marker3MutNtCs3cP53eQoTwO_11proc_macro25IdentNtNtB7_7set_val9SetValZSTNtB1m_14LeafOrInternalENtB1m_2KVE6kv_mutCsjOFMLY5rhAS_14thiserror_impl, symObjAddr: 0xD37C, symBinAddr: 0xDFCC, symSize: 0xEC }
  - { offset: 0x35055, size: 0x8, addend: 0x0, symName: __RNvMsS_NtNtNtCse1nGBsou5OW_5alloc11collections5btree4nodeINtB5_6HandleINtB5_7NodeRefNtNtB5_6marker3MutNtNtBb_6string6StringNtNtB7_7set_val9SetValZSTNtB1m_14LeafOrInternalENtB1m_2KVE6kv_mutCsjOFMLY5rhAS_14thiserror_impl, symObjAddr: 0xD468, symBinAddr: 0xE0B8, symSize: 0xEC }
  - { offset: 0x3525B, size: 0x8, addend: 0x0, symName: __RNvMsS_NtNtNtCse1nGBsou5OW_5alloc11collections5btree4nodeINtB5_6HandleINtB5_7NodeRefNtNtB5_6marker3MutRNtCs3cP53eQoTwO_11proc_macro25IdentNtNtB7_7set_val9SetValZSTNtB1m_8InternalENtB1m_2KVE10replace_kvCsjOFMLY5rhAS_14thiserror_impl, symObjAddr: 0xD554, symBinAddr: 0xE1A4, symSize: 0x78 }
  - { offset: 0x35412, size: 0x8, addend: 0x0, symName: __RNvMsS_NtNtNtCse1nGBsou5OW_5alloc11collections5btree4nodeINtB5_6HandleINtB5_7NodeRefNtNtB5_6marker3MutRNtCs3cP53eQoTwO_11proc_macro25IdentNtNtB7_7set_val9SetValZSTNtB1m_8InternalENtB1m_2KVE6kv_mutCsjOFMLY5rhAS_14thiserror_impl, symObjAddr: 0xD5CC, symBinAddr: 0xE21C, symSize: 0xE4 }
  - { offset: 0x356EB, size: 0x8, addend: 0x0, symName: __RNvMsS_NtNtNtCse1nGBsou5OW_5alloc11collections5btree4nodeINtB5_6HandleINtB5_7NodeRefNtNtB5_6marker3MutTjNtNtCsjOFMLY5rhAS_14thiserror_impl4attr5TraitENtNtB7_7set_val9SetValZSTNtB1m_14LeafOrInternalENtB1m_2KVE6kv_mutB1I_, symObjAddr: 0xD6B0, symBinAddr: 0xE300, symSize: 0xD4 }
  - { offset: 0x359B6, size: 0x8, addend: 0x0, symName: __RNvMsT_NtNtNtCse1nGBsou5OW_5alloc11collections5btree4nodeINtB5_6HandleINtB5_7NodeRefNtNtB5_6marker5DyingNtCs3cP53eQoTwO_11proc_macro25IdentNtNtB7_7set_val9SetValZSTNtB1m_14LeafOrInternalENtB1m_2KVE12drop_key_valCsjOFMLY5rhAS_14thiserror_impl, symObjAddr: 0xD784, symBinAddr: 0xE3D4, symSize: 0x118 }
  - { offset: 0x35C89, size: 0x8, addend: 0x0, symName: __RNvMsT_NtNtNtCse1nGBsou5OW_5alloc11collections5btree4nodeINtB5_6HandleINtB5_7NodeRefNtNtB5_6marker5DyingNtNtBb_6string6StringNtNtB7_7set_val9SetValZSTNtB1m_14LeafOrInternalENtB1m_2KVE12drop_key_valCsjOFMLY5rhAS_14thiserror_impl, symObjAddr: 0xD89C, symBinAddr: 0xE4EC, symSize: 0x118 }
  - { offset: 0x35F5C, size: 0x8, addend: 0x0, symName: __RNvMsT_NtNtNtCse1nGBsou5OW_5alloc11collections5btree4nodeINtB5_6HandleINtB5_7NodeRefNtNtB5_6marker5DyingNtNtBb_6string6StringTINtNtB7_3set8BTreeSetB1E_EINtNtCs6IAuOt8vWmF_3syn10punctuated10PunctuatedNtCs3cP53eQoTwO_11proc_macro211TokenStreamNtNtB2v_5token4PlusEENtB1m_14LeafOrInternalENtB1m_2KVE12drop_key_valCsjOFMLY5rhAS_14thiserror_impl, symObjAddr: 0xD9B4, symBinAddr: 0xE604, symSize: 0x128 }
  - { offset: 0x36213, size: 0x8, addend: 0x0, symName: __RNvMsT_NtNtNtCse1nGBsou5OW_5alloc11collections5btree4nodeINtB5_6HandleINtB5_7NodeRefNtNtB5_6marker5DyingRNtCs3cP53eQoTwO_11proc_macro25IdentNtNtB7_7set_val9SetValZSTNtB1m_14LeafOrInternalENtB1m_2KVE12drop_key_valCsjOFMLY5rhAS_14thiserror_impl, symObjAddr: 0xDADC, symBinAddr: 0xE72C, symSize: 0xE0 }
  - { offset: 0x364B4, size: 0x8, addend: 0x0, symName: __RNvMsT_NtNtNtCse1nGBsou5OW_5alloc11collections5btree4nodeINtB5_6HandleINtB5_7NodeRefNtNtB5_6marker5DyingTjNtNtCsjOFMLY5rhAS_14thiserror_impl4attr5TraitENtNtB7_7set_val9SetValZSTNtB1m_14LeafOrInternalENtB1m_2KVE12drop_key_valB1K_, symObjAddr: 0xDBBC, symBinAddr: 0xE80C, symSize: 0xD0 }
  - { offset: 0x367AC, size: 0x8, addend: 0x0, symName: __RNvMsT_NtNtNtCse1nGBsou5OW_5alloc11collections5btree4nodeINtB5_6HandleINtB5_7NodeRefNtNtB5_6marker5DyingTjNtNtCsjOFMLY5rhAS_14thiserror_impl4attr5TraitENtNtB7_7set_val9SetValZSTNtB1m_14LeafOrInternalENtB1m_2KVE12into_key_valB1K_, symObjAddr: 0xDC8C, symBinAddr: 0xE8DC, symSize: 0xE8 }
  - { offset: 0x36CC2, size: 0x8, addend: 0x0, symName: __RNvMsU_NtNtNtCse1nGBsou5OW_5alloc11collections5btree4nodeINtB5_6HandleINtB5_7NodeRefNtNtB5_6marker3MutNtCs3cP53eQoTwO_11proc_macro25IdentNtNtB7_7set_val9SetValZSTNtB1m_4LeafENtB1m_2KVE15split_leaf_dataCsjOFMLY5rhAS_14thiserror_impl, symObjAddr: 0xDD74, symBinAddr: 0xE9C4, symSize: 0x3B4 }
  - { offset: 0x376C8, size: 0x8, addend: 0x0, symName: __RNvMsU_NtNtNtCse1nGBsou5OW_5alloc11collections5btree4nodeINtB5_6HandleINtB5_7NodeRefNtNtB5_6marker3MutNtCs3cP53eQoTwO_11proc_macro25IdentNtNtB7_7set_val9SetValZSTNtB1m_8InternalENtB1m_2KVE15split_leaf_dataCsjOFMLY5rhAS_14thiserror_impl, symObjAddr: 0xE128, symBinAddr: 0xED78, symSize: 0x3B4 }
  - { offset: 0x380CE, size: 0x8, addend: 0x0, symName: __RNvMsU_NtNtNtCse1nGBsou5OW_5alloc11collections5btree4nodeINtB5_6HandleINtB5_7NodeRefNtNtB5_6marker3MutNtNtBb_6string6StringNtNtB7_7set_val9SetValZSTNtB1m_4LeafENtB1m_2KVE15split_leaf_dataCsjOFMLY5rhAS_14thiserror_impl, symObjAddr: 0xE4DC, symBinAddr: 0xF12C, symSize: 0x3B4 }
  - { offset: 0x38AD4, size: 0x8, addend: 0x0, symName: __RNvMsU_NtNtNtCse1nGBsou5OW_5alloc11collections5btree4nodeINtB5_6HandleINtB5_7NodeRefNtNtB5_6marker3MutNtNtBb_6string6StringNtNtB7_7set_val9SetValZSTNtB1m_8InternalENtB1m_2KVE15split_leaf_dataCsjOFMLY5rhAS_14thiserror_impl, symObjAddr: 0xE890, symBinAddr: 0xF4E0, symSize: 0x3B4 }
  - { offset: 0x394DA, size: 0x8, addend: 0x0, symName: __RNvMsU_NtNtNtCse1nGBsou5OW_5alloc11collections5btree4nodeINtB5_6HandleINtB5_7NodeRefNtNtB5_6marker3MutNtNtBb_6string6StringTINtNtB7_3set8BTreeSetB1C_EINtNtCs6IAuOt8vWmF_3syn10punctuated10PunctuatedNtCs3cP53eQoTwO_11proc_macro211TokenStreamNtNtB2t_5token4PlusEENtB1m_4LeafENtB1m_2KVE15split_leaf_dataCsjOFMLY5rhAS_14thiserror_impl, symObjAddr: 0xEC44, symBinAddr: 0xF894, symSize: 0x41C }
  - { offset: 0x39F18, size: 0x8, addend: 0x0, symName: __RNvMsU_NtNtNtCse1nGBsou5OW_5alloc11collections5btree4nodeINtB5_6HandleINtB5_7NodeRefNtNtB5_6marker3MutNtNtBb_6string6StringTINtNtB7_3set8BTreeSetB1C_EINtNtCs6IAuOt8vWmF_3syn10punctuated10PunctuatedNtCs3cP53eQoTwO_11proc_macro211TokenStreamNtNtB2t_5token4PlusEENtB1m_8InternalENtB1m_2KVE15split_leaf_dataCsjOFMLY5rhAS_14thiserror_impl, symObjAddr: 0xF060, symBinAddr: 0xFCB0, symSize: 0x41C }
  - { offset: 0x3A956, size: 0x8, addend: 0x0, symName: __RNvMsU_NtNtNtCse1nGBsou5OW_5alloc11collections5btree4nodeINtB5_6HandleINtB5_7NodeRefNtNtB5_6marker3MutTjNtNtCsjOFMLY5rhAS_14thiserror_impl4attr5TraitENtNtB7_7set_val9SetValZSTNtB1m_4LeafENtB1m_2KVE15split_leaf_dataB1I_, symObjAddr: 0xF47C, symBinAddr: 0x100CC, symSize: 0x354 }
  - { offset: 0x3B364, size: 0x8, addend: 0x0, symName: __RNvMsU_NtNtNtCse1nGBsou5OW_5alloc11collections5btree4nodeINtB5_6HandleINtB5_7NodeRefNtNtB5_6marker3MutTjNtNtCsjOFMLY5rhAS_14thiserror_impl4attr5TraitENtNtB7_7set_val9SetValZSTNtB1m_8InternalENtB1m_2KVE15split_leaf_dataB1I_, symObjAddr: 0xF7D0, symBinAddr: 0x10420, symSize: 0x354 }
  - { offset: 0x3BBA1, size: 0x8, addend: 0x0, symName: __RNvMsX_NtNtNtCse1nGBsou5OW_5alloc11collections5btree4nodeINtB5_6HandleINtB5_7NodeRefNtNtB5_6marker3MutRNtCs3cP53eQoTwO_11proc_macro25IdentNtNtB7_7set_val9SetValZSTNtB1m_8InternalENtB1m_2KVE22consider_for_balancingCsjOFMLY5rhAS_14thiserror_impl, symObjAddr: 0xFB24, symBinAddr: 0x10774, symSize: 0xE4 }
  - { offset: 0x3BDE0, size: 0x8, addend: 0x0, symName: __RNvMse_NtNtNtCse1nGBsou5OW_5alloc11collections5btree4nodeINtB5_7NodeRefNtNtB5_6marker3MutNtCs3cP53eQoTwO_11proc_macro25IdentNtNtB7_7set_val9SetValZSTNtB19_14LeafOrInternalE6ascendCsjOFMLY5rhAS_14thiserror_impl, symObjAddr: 0xFC08, symBinAddr: 0x10858, symSize: 0x168 }
  - { offset: 0x3C04B, size: 0x8, addend: 0x0, symName: __RNvMse_NtNtNtCse1nGBsou5OW_5alloc11collections5btree4nodeINtB5_7NodeRefNtNtB5_6marker3MutNtNtBb_6string6StringNtNtB7_7set_val9SetValZSTNtB19_14LeafOrInternalE6ascendCsjOFMLY5rhAS_14thiserror_impl, symObjAddr: 0xFD70, symBinAddr: 0x109C0, symSize: 0x168 }
  - { offset: 0x3C2B6, size: 0x8, addend: 0x0, symName: __RNvMse_NtNtNtCse1nGBsou5OW_5alloc11collections5btree4nodeINtB5_7NodeRefNtNtB5_6marker3MutNtNtBb_6string6StringTINtNtB7_3set8BTreeSetB1p_EINtNtCs6IAuOt8vWmF_3syn10punctuated10PunctuatedNtCs3cP53eQoTwO_11proc_macro211TokenStreamNtNtB2g_5token4PlusEENtB19_14LeafOrInternalE6ascendCsjOFMLY5rhAS_14thiserror_impl, symObjAddr: 0xFED8, symBinAddr: 0x10B28, symSize: 0x168 }
  - { offset: 0x3C521, size: 0x8, addend: 0x0, symName: __RNvMse_NtNtNtCse1nGBsou5OW_5alloc11collections5btree4nodeINtB5_7NodeRefNtNtB5_6marker3MutRNtCs3cP53eQoTwO_11proc_macro25IdentNtNtB7_7set_val9SetValZSTNtB19_14LeafOrInternalE6ascendCsjOFMLY5rhAS_14thiserror_impl, symObjAddr: 0x10040, symBinAddr: 0x10C90, symSize: 0x168 }
  - { offset: 0x3C78C, size: 0x8, addend: 0x0, symName: __RNvMse_NtNtNtCse1nGBsou5OW_5alloc11collections5btree4nodeINtB5_7NodeRefNtNtB5_6marker3MutTjNtNtCsjOFMLY5rhAS_14thiserror_impl4attr5TraitENtNtB7_7set_val9SetValZSTNtB19_14LeafOrInternalE6ascendB1v_, symObjAddr: 0x101A8, symBinAddr: 0x10DF8, symSize: 0x168 }
  - { offset: 0x3C9D0, size: 0x8, addend: 0x0, symName: __RNvMse_NtNtNtCse1nGBsou5OW_5alloc11collections5btree4nodeINtB5_7NodeRefNtNtB5_6marker5DyingNtCs3cP53eQoTwO_11proc_macro25IdentNtNtB7_7set_val9SetValZSTNtB19_14LeafOrInternalE6ascendCsjOFMLY5rhAS_14thiserror_impl, symObjAddr: 0x10310, symBinAddr: 0x10F60, symSize: 0x168 }
  - { offset: 0x3CC14, size: 0x8, addend: 0x0, symName: __RNvMse_NtNtNtCse1nGBsou5OW_5alloc11collections5btree4nodeINtB5_7NodeRefNtNtB5_6marker5DyingNtNtBb_6string6StringNtNtB7_7set_val9SetValZSTNtB19_14LeafOrInternalE6ascendCsjOFMLY5rhAS_14thiserror_impl, symObjAddr: 0x10478, symBinAddr: 0x110C8, symSize: 0x168 }
  - { offset: 0x3CE58, size: 0x8, addend: 0x0, symName: __RNvMse_NtNtNtCse1nGBsou5OW_5alloc11collections5btree4nodeINtB5_7NodeRefNtNtB5_6marker5DyingNtNtBb_6string6StringTINtNtB7_3set8BTreeSetB1r_EINtNtCs6IAuOt8vWmF_3syn10punctuated10PunctuatedNtCs3cP53eQoTwO_11proc_macro211TokenStreamNtNtB2i_5token4PlusEENtB19_14LeafOrInternalE6ascendCsjOFMLY5rhAS_14thiserror_impl, symObjAddr: 0x105E0, symBinAddr: 0x11230, symSize: 0x168 }
  - { offset: 0x3D09C, size: 0x8, addend: 0x0, symName: __RNvMse_NtNtNtCse1nGBsou5OW_5alloc11collections5btree4nodeINtB5_7NodeRefNtNtB5_6marker5DyingRNtCs3cP53eQoTwO_11proc_macro25IdentNtNtB7_7set_val9SetValZSTNtB19_14LeafOrInternalE6ascendCsjOFMLY5rhAS_14thiserror_impl, symObjAddr: 0x10748, symBinAddr: 0x11398, symSize: 0x168 }
  - { offset: 0x3D2E0, size: 0x8, addend: 0x0, symName: __RNvMse_NtNtNtCse1nGBsou5OW_5alloc11collections5btree4nodeINtB5_7NodeRefNtNtB5_6marker5DyingTjNtNtCsjOFMLY5rhAS_14thiserror_impl4attr5TraitENtNtB7_7set_val9SetValZSTNtB19_14LeafOrInternalE6ascendB1x_, symObjAddr: 0x108B0, symBinAddr: 0x11500, symSize: 0x168 }
  - { offset: 0x3D4F8, size: 0x8, addend: 0x0, symName: __RNvMsg_NtNtNtCse1nGBsou5OW_5alloc11collections5btree4nodeINtB5_7NodeRefNtNtB5_6marker5ImmutNtCs3cP53eQoTwO_11proc_macro25IdentNtNtB7_7set_val9SetValZSTNtB19_14LeafOrInternalE4keysCsjOFMLY5rhAS_14thiserror_impl, symObjAddr: 0x10A18, symBinAddr: 0x11668, symSize: 0xA0 }
  - { offset: 0x3D6EF, size: 0x8, addend: 0x0, symName: __RNvMsg_NtNtNtCse1nGBsou5OW_5alloc11collections5btree4nodeINtB5_7NodeRefNtNtB5_6marker5ImmutNtNtBb_6string6StringNtNtB7_7set_val9SetValZSTNtB19_14LeafOrInternalE4keysCsjOFMLY5rhAS_14thiserror_impl, symObjAddr: 0x10AB8, symBinAddr: 0x11708, symSize: 0xA0 }
  - { offset: 0x3D8AE, size: 0x8, addend: 0x0, symName: __RNvMsg_NtNtNtCse1nGBsou5OW_5alloc11collections5btree4nodeINtB5_7NodeRefNtNtB5_6marker5ImmutNtNtBb_6string6StringTINtNtB7_3set8BTreeSetB1r_EINtNtCs6IAuOt8vWmF_3syn10punctuated10PunctuatedNtCs3cP53eQoTwO_11proc_macro211TokenStreamNtNtB2i_5token4PlusEENtB19_14LeafOrInternalE4keysCsjOFMLY5rhAS_14thiserror_impl, symObjAddr: 0x10B58, symBinAddr: 0x117A8, symSize: 0xA0 }
  - { offset: 0x3DA8B, size: 0x8, addend: 0x0, symName: __RNvMsg_NtNtNtCse1nGBsou5OW_5alloc11collections5btree4nodeINtB5_7NodeRefNtNtB5_6marker5ImmutRNtCs3cP53eQoTwO_11proc_macro25IdentNtNtB7_7set_val9SetValZSTNtB19_14LeafOrInternalE4keysCsjOFMLY5rhAS_14thiserror_impl, symObjAddr: 0x10BF8, symBinAddr: 0x11848, symSize: 0xA0 }
  - { offset: 0x3DC75, size: 0x8, addend: 0x0, symName: __RNvMsg_NtNtNtCse1nGBsou5OW_5alloc11collections5btree4nodeINtB5_7NodeRefNtNtB5_6marker5ImmutTjNtNtCsjOFMLY5rhAS_14thiserror_impl4attr5TraitENtNtB7_7set_val9SetValZSTNtB19_14LeafOrInternalE4keysB1x_, symObjAddr: 0x10C98, symBinAddr: 0x118E8, symSize: 0x9C }
  - { offset: 0x3DF13, size: 0x8, addend: 0x0, symName: __RNvMsn_NtNtNtCse1nGBsou5OW_5alloc11collections5btree8navigateINtNtB7_4node7NodeRefNtNtB10_6marker3MutRNtCs3cP53eQoTwO_11proc_macro25IdentNtNtB7_7set_val9SetValZSTNtB1k_14LeafOrInternalE14last_leaf_edgeCsjOFMLY5rhAS_14thiserror_impl, symObjAddr: 0x10D34, symBinAddr: 0x11984, symSize: 0xEC }
  - { offset: 0x3E26D, size: 0x8, addend: 0x0, symName: __RNvMsp_NtNtNtCse1nGBsou5OW_5alloc11collections5btree8navigateINtNtB7_4node6HandleINtB10_7NodeRefNtNtB10_6marker5DyingNtCs3cP53eQoTwO_11proc_macro25IdentNtNtB7_7set_val9SetValZSTNtB1y_14LeafOrInternalENtB1y_2KVE14next_leaf_edgeCsjOFMLY5rhAS_14thiserror_impl, symObjAddr: 0x10E20, symBinAddr: 0x11A70, symSize: 0x210 }
  - { offset: 0x3E6DD, size: 0x8, addend: 0x0, symName: __RNvMsp_NtNtNtCse1nGBsou5OW_5alloc11collections5btree8navigateINtNtB7_4node6HandleINtB10_7NodeRefNtNtB10_6marker5DyingNtNtBb_6string6StringNtNtB7_7set_val9SetValZSTNtB1y_14LeafOrInternalENtB1y_2KVE14next_leaf_edgeCsjOFMLY5rhAS_14thiserror_impl, symObjAddr: 0x11030, symBinAddr: 0x11C80, symSize: 0x210 }
  - { offset: 0x3EB4D, size: 0x8, addend: 0x0, symName: __RNvMsp_NtNtNtCse1nGBsou5OW_5alloc11collections5btree8navigateINtNtB7_4node6HandleINtB10_7NodeRefNtNtB10_6marker5DyingNtNtBb_6string6StringTINtNtB7_3set8BTreeSetB1R_EINtNtCs6IAuOt8vWmF_3syn10punctuated10PunctuatedNtCs3cP53eQoTwO_11proc_macro211TokenStreamNtNtB2I_5token4PlusEENtB1y_14LeafOrInternalENtB1y_2KVE14next_leaf_edgeCsjOFMLY5rhAS_14thiserror_impl, symObjAddr: 0x11240, symBinAddr: 0x11E90, symSize: 0x210 }
  - { offset: 0x3EFBD, size: 0x8, addend: 0x0, symName: __RNvMsp_NtNtNtCse1nGBsou5OW_5alloc11collections5btree8navigateINtNtB7_4node6HandleINtB10_7NodeRefNtNtB10_6marker5DyingRNtCs3cP53eQoTwO_11proc_macro25IdentNtNtB7_7set_val9SetValZSTNtB1y_14LeafOrInternalENtB1y_2KVE14next_leaf_edgeCsjOFMLY5rhAS_14thiserror_impl, symObjAddr: 0x11450, symBinAddr: 0x120A0, symSize: 0x210 }
  - { offset: 0x3F42D, size: 0x8, addend: 0x0, symName: __RNvMsp_NtNtNtCse1nGBsou5OW_5alloc11collections5btree8navigateINtNtB7_4node6HandleINtB10_7NodeRefNtNtB10_6marker5DyingTjNtNtCsjOFMLY5rhAS_14thiserror_impl4attr5TraitENtNtB7_7set_val9SetValZSTNtB1y_14LeafOrInternalENtB1y_2KVE14next_leaf_edgeB1X_, symObjAddr: 0x11660, symBinAddr: 0x122B0, symSize: 0x210 }
  - { offset: 0x3F84B, size: 0x8, addend: 0x0, symName: __RNvMsu_NtNtNtCse1nGBsou5OW_5alloc11collections5btree4nodeINtB5_7NodeRefNtNtB5_6marker3MutNtCs3cP53eQoTwO_11proc_macro25IdentNtNtB7_7set_val9SetValZSTNtB19_4LeafE16push_with_handleCsjOFMLY5rhAS_14thiserror_impl, symObjAddr: 0x11870, symBinAddr: 0x124C0, symSize: 0x1E0 }
  - { offset: 0x3FD74, size: 0x8, addend: 0x0, symName: __RNvMsu_NtNtNtCse1nGBsou5OW_5alloc11collections5btree4nodeINtB5_7NodeRefNtNtB5_6marker3MutNtNtBb_6string6StringNtNtB7_7set_val9SetValZSTNtB19_4LeafE16push_with_handleCsjOFMLY5rhAS_14thiserror_impl, symObjAddr: 0x11A50, symBinAddr: 0x126A0, symSize: 0x1E0 }
  - { offset: 0x402F1, size: 0x8, addend: 0x0, symName: __RNvMsu_NtNtNtCse1nGBsou5OW_5alloc11collections5btree4nodeINtB5_7NodeRefNtNtB5_6marker3MutNtNtBb_6string6StringTINtNtB7_3set8BTreeSetB1p_EINtNtCs6IAuOt8vWmF_3syn10punctuated10PunctuatedNtCs3cP53eQoTwO_11proc_macro211TokenStreamNtNtB2g_5token4PlusEENtB19_4LeafE16push_with_handleCsjOFMLY5rhAS_14thiserror_impl, symObjAddr: 0x11C30, symBinAddr: 0x12880, symSize: 0x258 }
  - { offset: 0x40867, size: 0x8, addend: 0x0, symName: __RNvMsu_NtNtNtCse1nGBsou5OW_5alloc11collections5btree4nodeINtB5_7NodeRefNtNtB5_6marker3MutRNtCs3cP53eQoTwO_11proc_macro25IdentNtNtB7_7set_val9SetValZSTNtB19_4LeafE16push_with_handleCsjOFMLY5rhAS_14thiserror_impl, symObjAddr: 0x11E88, symBinAddr: 0x12AD8, symSize: 0x1A0 }
  - { offset: 0x40D6B, size: 0x8, addend: 0x0, symName: __RNvMsu_NtNtNtCse1nGBsou5OW_5alloc11collections5btree4nodeINtB5_7NodeRefNtNtB5_6marker3MutTjNtNtCsjOFMLY5rhAS_14thiserror_impl4attr5TraitENtNtB7_7set_val9SetValZSTNtB19_4LeafE16push_with_handleB1v_, symObjAddr: 0x12028, symBinAddr: 0x12C78, symSize: 0x1AC }
  - { offset: 0x41387, size: 0x8, addend: 0x0, symName: __RNvMsv_NtNtNtCse1nGBsou5OW_5alloc11collections5btree4nodeINtB5_7NodeRefNtNtB5_6marker3MutNtCs3cP53eQoTwO_11proc_macro25IdentNtNtB7_7set_val9SetValZSTNtB19_8InternalE4pushCsjOFMLY5rhAS_14thiserror_impl, symObjAddr: 0x121D4, symBinAddr: 0x12E24, symSize: 0x2D8 }
  - { offset: 0x41B44, size: 0x8, addend: 0x0, symName: __RNvMsv_NtNtNtCse1nGBsou5OW_5alloc11collections5btree4nodeINtB5_7NodeRefNtNtB5_6marker3MutNtNtBb_6string6StringNtNtB7_7set_val9SetValZSTNtB19_8InternalE4pushCsjOFMLY5rhAS_14thiserror_impl, symObjAddr: 0x124AC, symBinAddr: 0x130FC, symSize: 0x2D8 }
  - { offset: 0x42355, size: 0x8, addend: 0x0, symName: __RNvMsv_NtNtNtCse1nGBsou5OW_5alloc11collections5btree4nodeINtB5_7NodeRefNtNtB5_6marker3MutNtNtBb_6string6StringTINtNtB7_3set8BTreeSetB1p_EINtNtCs6IAuOt8vWmF_3syn10punctuated10PunctuatedNtCs3cP53eQoTwO_11proc_macro211TokenStreamNtNtB2g_5token4PlusEENtB19_8InternalE4pushCsjOFMLY5rhAS_14thiserror_impl, symObjAddr: 0x12784, symBinAddr: 0x133D4, symSize: 0x34C }
  - { offset: 0x42B60, size: 0x8, addend: 0x0, symName: __RNvMsv_NtNtNtCse1nGBsou5OW_5alloc11collections5btree4nodeINtB5_7NodeRefNtNtB5_6marker3MutRNtCs3cP53eQoTwO_11proc_macro25IdentNtNtB7_7set_val9SetValZSTNtB19_8InternalE4pushCsjOFMLY5rhAS_14thiserror_impl, symObjAddr: 0x12AD0, symBinAddr: 0x13720, symSize: 0x29C }
  - { offset: 0x432F4, size: 0x8, addend: 0x0, symName: __RNvMsv_NtNtNtCse1nGBsou5OW_5alloc11collections5btree4nodeINtB5_7NodeRefNtNtB5_6marker3MutTjNtNtCsjOFMLY5rhAS_14thiserror_impl4attr5TraitENtNtB7_7set_val9SetValZSTNtB19_8InternalE4pushB1v_, symObjAddr: 0x12D6C, symBinAddr: 0x139BC, symSize: 0x2A8 }
  - { offset: 0x43826, size: 0x8, addend: 0x0, symName: __RNvXs1_NtNtNtCsfvfooZQ3Axs_4core3ops8function5implsQNCNvNtCsjOFMLY5rhAS_14thiserror_impl6expand9impl_enums2_0INtB7_5FnMutTRNtNtBU_3ast7VariantEE8call_mutBU_, symObjAddr: 0x0, symBinAddr: 0x13CAC, symSize: 0x30 }
  - { offset: 0x44277, size: 0x8, addend: 0x0, symName: __RNvNtCsjOFMLY5rhAS_14thiserror_impl6expand6derive, symObjAddr: 0xE0, symBinAddr: 0x13D8C, symSize: 0xC0 }
  - { offset: 0x442D5, size: 0x8, addend: 0x0, symName: __RNvNtCsjOFMLY5rhAS_14thiserror_impl6expand10try_expand, symObjAddr: 0x1A0, symBinAddr: 0x13E4C, symSize: 0x2A0 }
  - { offset: 0x4439D, size: 0x8, addend: 0x0, symName: __RNvNtCsjOFMLY5rhAS_14thiserror_impl6expand8fallback, symObjAddr: 0x440, symBinAddr: 0x140EC, symSize: 0xA58 }
  - { offset: 0x4451A, size: 0x8, addend: 0x0, symName: __RNvNtCsjOFMLY5rhAS_14thiserror_impl6expand11impl_struct, symObjAddr: 0xE98, symBinAddr: 0x14B44, symSize: 0x1648 }
  - { offset: 0x44990, size: 0x8, addend: 0x0, symName: __RNCNvNtCsjOFMLY5rhAS_14thiserror_impl6expand11impl_struct0B5_, symObjAddr: 0x24E0, symBinAddr: 0x1618C, symSize: 0x42C }
  - { offset: 0x44A1E, size: 0x8, addend: 0x0, symName: __RNCNvNtCsjOFMLY5rhAS_14thiserror_impl6expand11impl_structs_0B5_, symObjAddr: 0x290C, symBinAddr: 0x165B8, symSize: 0x1664 }
  - { offset: 0x44D62, size: 0x8, addend: 0x0, symName: __RNCNvNtCsjOFMLY5rhAS_14thiserror_impl6expand11impl_structs0_0B5_, symObjAddr: 0x3F70, symBinAddr: 0x17C1C, symSize: 0x918 }
  - { offset: 0x44F30, size: 0x8, addend: 0x0, symName: __RNCNvNtCsjOFMLY5rhAS_14thiserror_impl6expand11impl_structs1_0B5_, symObjAddr: 0x4888, symBinAddr: 0x18534, symSize: 0x674 }
  - { offset: 0x450C2, size: 0x8, addend: 0x0, symName: __RNvNtCsjOFMLY5rhAS_14thiserror_impl6expand9impl_enum, symObjAddr: 0x4EFC, symBinAddr: 0x18BA8, symSize: 0x1EC8 }
  - { offset: 0x457B7, size: 0x8, addend: 0x0, symName: __RNCNvNtCsjOFMLY5rhAS_14thiserror_impl6expand9impl_enum0B5_, symObjAddr: 0x6DC4, symBinAddr: 0x1AA70, symSize: 0xDD8 }
  - { offset: 0x45AAC, size: 0x8, addend: 0x0, symName: __RNCNvNtCsjOFMLY5rhAS_14thiserror_impl6expand9impl_enums_0B5_, symObjAddr: 0x7B9C, symBinAddr: 0x1B848, symSize: 0x1FF8 }
  - { offset: 0x460EC, size: 0x8, addend: 0x0, symName: __RNCNvNtCsjOFMLY5rhAS_14thiserror_impl6expand9impl_enums0_0B5_, symObjAddr: 0x9B94, symBinAddr: 0x1D840, symSize: 0x44 }
  - { offset: 0x4612A, size: 0x8, addend: 0x0, symName: __RNCNCNvNtCsjOFMLY5rhAS_14thiserror_impl6expand9impl_enums0_00B7_, symObjAddr: 0x9BD8, symBinAddr: 0x1D884, symSize: 0x2C }
  - { offset: 0x4616B, size: 0x8, addend: 0x0, symName: __RNCNvNtCsjOFMLY5rhAS_14thiserror_impl6expand9impl_enums1_0B5_, symObjAddr: 0x9C04, symBinAddr: 0x1D8B0, symSize: 0x674 }
  - { offset: 0x4634D, size: 0x8, addend: 0x0, symName: __RNCNvNtCsjOFMLY5rhAS_14thiserror_impl6expand9impl_enums2_0B5_, symObjAddr: 0xA278, symBinAddr: 0x1DF24, symSize: 0x6F4 }
  - { offset: 0x465BC, size: 0x8, addend: 0x0, symName: __RNvNtCsjOFMLY5rhAS_14thiserror_impl6expand10fields_pat, symObjAddr: 0xA96C, symBinAddr: 0x1E618, symSize: 0x4D0 }
  - { offset: 0x467CF, size: 0x8, addend: 0x0, symName: __RNCNvNtCsjOFMLY5rhAS_14thiserror_impl6expand10fields_pat0B5_, symObjAddr: 0xAE3C, symBinAddr: 0x1EAE8, symSize: 0x28 }
  - { offset: 0x46808, size: 0x8, addend: 0x0, symName: __RNCNvNtCsjOFMLY5rhAS_14thiserror_impl6expand10fields_pats_0B5_, symObjAddr: 0xAE64, symBinAddr: 0x1EB10, symSize: 0x17C }
  - { offset: 0x468A5, size: 0x8, addend: 0x0, symName: __RNvNtCsjOFMLY5rhAS_14thiserror_impl6expand14use_as_display, symObjAddr: 0xAFE0, symBinAddr: 0x1EC8C, symSize: 0x174 }
  - { offset: 0x468E9, size: 0x8, addend: 0x0, symName: __RNvNtCsjOFMLY5rhAS_14thiserror_impl6expand16from_initializer, symObjAddr: 0xB154, symBinAddr: 0x1EE00, symSize: 0x35C }
  - { offset: 0x469E1, size: 0x8, addend: 0x0, symName: __RNCNvNtCsjOFMLY5rhAS_14thiserror_impl6expand16from_initializer0B5_, symObjAddr: 0xB4B0, symBinAddr: 0x1F15C, symSize: 0x4A4 }
  - { offset: 0x46A93, size: 0x8, addend: 0x0, symName: __RNvNtCsjOFMLY5rhAS_14thiserror_impl6expand14type_is_option, symObjAddr: 0xB954, symBinAddr: 0x1F600, symSize: 0x44 }
  - { offset: 0x46AC1, size: 0x8, addend: 0x0, symName: __RNvNtCsjOFMLY5rhAS_14thiserror_impl6expand15unoptional_type, symObjAddr: 0xB998, symBinAddr: 0x1F644, symSize: 0xA8 }
  - { offset: 0x46B23, size: 0x8, addend: 0x0, symName: __RNvNtCsjOFMLY5rhAS_14thiserror_impl6expand24type_parameter_of_option, symObjAddr: 0xBA40, symBinAddr: 0x1F6EC, symSize: 0x1F4 }
  - { offset: 0x46D81, size: 0x8, addend: 0x0, symName: __RNvXs1_NtNtNtCsfvfooZQ3Axs_4core3ops8function5implsQNCNvNtCsjOFMLY5rhAS_14thiserror_impl6expand9impl_enums2_0INtB7_5FnMutTRNtNtBU_3ast7VariantEE8call_mutBU_, symObjAddr: 0x0, symBinAddr: 0x13CAC, symSize: 0x30 }
  - { offset: 0x46DD6, size: 0x8, addend: 0x0, symName: __RNvXs2_NtNtNtCsfvfooZQ3Axs_4core3ops8function5implsQNCNvNtCsjOFMLY5rhAS_14thiserror_impl6expand10fields_pat0INtB7_6FnOnceTRNtNtBU_3ast5FieldEE9call_onceBU_, symObjAddr: 0x30, symBinAddr: 0x13CDC, symSize: 0x2C }
  - { offset: 0x46E25, size: 0x8, addend: 0x0, symName: __RNvXs2_NtNtNtCsfvfooZQ3Axs_4core3ops8function5implsQNCNvNtCsjOFMLY5rhAS_14thiserror_impl6expand10fields_pats_0INtB7_6FnOnceTRNtNtCs6IAuOt8vWmF_3syn4expr6MemberEE9call_onceBU_, symObjAddr: 0x5C, symBinAddr: 0x13D08, symSize: 0x2C }
  - { offset: 0x46E74, size: 0x8, addend: 0x0, symName: __RNvXs2_NtNtNtCsfvfooZQ3Axs_4core3ops8function5implsQNCNvNtCsjOFMLY5rhAS_14thiserror_impl6expand9impl_enum0INtB7_6FnOnceTRNtNtBU_3ast7VariantEE9call_onceBU_, symObjAddr: 0x88, symBinAddr: 0x13D34, symSize: 0x2C }
  - { offset: 0x46EC3, size: 0x8, addend: 0x0, symName: __RNvXs2_NtNtNtCsfvfooZQ3Axs_4core3ops8function5implsQNCNvNtCsjOFMLY5rhAS_14thiserror_impl6expand9impl_enums_0INtB7_6FnOnceTRNtNtBU_3ast7VariantEE9call_onceBU_, symObjAddr: 0xB4, symBinAddr: 0x13D60, symSize: 0x2C }
  - { offset: 0x50B18, size: 0x8, addend: 0x0, symName: __RINvMs6_NtCsloNvcHxBCre_9hashbrown3rawINtB6_8RawTableTRNtNtCs6IAuOt8vWmF_3syn4expr6MemberjEE14reserve_rehashNCINvNtB8_3map11make_hasherBQ_jNtNtNtCscOYdFFY2T5N_3std4hash6random11RandomStateE0ECsjOFMLY5rhAS_14thiserror_impl, symObjAddr: 0x0, symBinAddr: 0x1B45E8, symSize: 0x830 }
  - { offset: 0x50B54, size: 0x8, addend: 0x0, symName: __RNCINvMs6_NtCsloNvcHxBCre_9hashbrown3rawINtB8_8RawTableTRNtNtCs6IAuOt8vWmF_3syn4expr6MemberjEE14reserve_rehashNCINvNtBa_3map11make_hasherBS_jNtNtNtCscOYdFFY2T5N_3std4hash6random11RandomStateE0E0CsjOFMLY5rhAS_14thiserror_impl, symObjAddr: 0x12A4, symBinAddr: 0x20354, symSize: 0xC0 }
  - { offset: 0x50D17, size: 0x8, addend: 0x0, symName: __RNCINvMs6_NtCsloNvcHxBCre_9hashbrown3rawINtB8_8RawTableTRNtNtCs6IAuOt8vWmF_3syn4expr6MemberjEE24find_or_find_insert_slotNCINvNtBa_3map14equivalent_keyBS_BS_jE0NCINvB1Z_11make_hasherBS_jNtNtNtCscOYdFFY2T5N_3std4hash6random11RandomStateE0E0CsjOFMLY5rhAS_14thiserror_impl, symObjAddr: 0x1364, symBinAddr: 0x20414, symSize: 0xC4 }
  - { offset: 0x50EEA, size: 0x8, addend: 0x0, symName: __RNCINvMs6_NtCsloNvcHxBCre_9hashbrown3rawINtB8_8RawTableTRNtNtCs6IAuOt8vWmF_3syn4expr6MemberjEE4findNCINvNtBa_3map14equivalent_keyBT_BS_jE0E0CsjOFMLY5rhAS_14thiserror_impl, symObjAddr: 0x1428, symBinAddr: 0x204D8, symSize: 0xC4 }
  - { offset: 0x51804, size: 0x8, addend: 0x0, symName: __RNCINvMsa_NtCsloNvcHxBCre_9hashbrown3rawNtB8_13RawTableInner14prepare_resizeNtNtCse1nGBsou5OW_5alloc5alloc6GlobalE0CsjOFMLY5rhAS_14thiserror_impl, symObjAddr: 0x14EC, symBinAddr: 0x2059C, symSize: 0xBC }
  - { offset: 0x519E7, size: 0x8, addend: 0x0, symName: __RNCNvMsa_NtCsloNvcHxBCre_9hashbrown3rawNtB7_13RawTableInner15rehash_in_place0CsjOFMLY5rhAS_14thiserror_impl, symObjAddr: 0x15A8, symBinAddr: 0x20658, symSize: 0x23C }
  - { offset: 0x51F1A, size: 0x8, addend: 0x0, symName: __RNvNtCsloNvcHxBCre_9hashbrown3raw19capacity_to_bucketsCsjOFMLY5rhAS_14thiserror_impl, symObjAddr: 0x2934, symBinAddr: 0x219E4, symSize: 0x198 }
  - { offset: 0x520D5, size: 0x8, addend: 0x0, symName: __RNvXsg_NtCsloNvcHxBCre_9hashbrown3rawINtB5_8RawTableTRNtNtCs6IAuOt8vWmF_3syn4expr6MemberjEENtNtNtCsfvfooZQ3Axs_4core3ops4drop4Drop4dropCsjOFMLY5rhAS_14thiserror_impl, symObjAddr: 0x2ACC, symBinAddr: 0x21B7C, symSize: 0x3C }
  - { offset: 0x5587F, size: 0x8, addend: 0x0, symName: __RINvMs6_NtCsloNvcHxBCre_9hashbrown3rawINtB6_8RawTableTRNtNtCs6IAuOt8vWmF_3syn4expr6MemberjEE14reserve_rehashNCINvNtB8_3map11make_hasherBQ_jNtNtNtCscOYdFFY2T5N_3std4hash6random11RandomStateE0ECsjOFMLY5rhAS_14thiserror_impl, symObjAddr: 0x0, symBinAddr: 0x1B45E8, symSize: 0x830 }
  - { offset: 0x5626F, size: 0x8, addend: 0x0, symName: __RINvMs6_NtCsloNvcHxBCre_9hashbrown3rawINtB6_8RawTableTRNtNtCs6IAuOt8vWmF_3syn4expr6MemberjEE24find_or_find_insert_slotNCINvNtB8_3map14equivalent_keyBQ_BQ_jE0NCINvB1X_11make_hasherBQ_jNtNtNtCscOYdFFY2T5N_3std4hash6random11RandomStateE0ECsjOFMLY5rhAS_14thiserror_impl, symObjAddr: 0x830, symBinAddr: 0x1F8E0, symSize: 0x13C }
  - { offset: 0x566E9, size: 0x8, addend: 0x0, symName: __RINvMs6_NtCsloNvcHxBCre_9hashbrown3rawINtB6_8RawTableTRNtNtCs6IAuOt8vWmF_3syn4expr6MemberjEE4findNCINvNtB8_3map14equivalent_keyBR_BQ_jE0ECsjOFMLY5rhAS_14thiserror_impl, symObjAddr: 0x96C, symBinAddr: 0x1FA1C, symSize: 0x330 }
  - { offset: 0x56BA4, size: 0x8, addend: 0x0, symName: __RINvMs6_NtCsloNvcHxBCre_9hashbrown3rawINtB6_8RawTableTRNtNtCs6IAuOt8vWmF_3syn4expr6MemberjEE7reserveNCINvNtB8_3map11make_hasherBQ_jNtNtNtCscOYdFFY2T5N_3std4hash6random11RandomStateE0ECsjOFMLY5rhAS_14thiserror_impl, symObjAddr: 0xC9C, symBinAddr: 0x1FD4C, symSize: 0xCC }
  - { offset: 0x56D17, size: 0x8, addend: 0x0, symName: __RINvMsa_NtCsloNvcHxBCre_9hashbrown3rawNtB6_13RawTableInner13drop_elementsTRNtNtCs6IAuOt8vWmF_3syn4expr6MemberjEECsjOFMLY5rhAS_14thiserror_impl, symObjAddr: 0xD68, symBinAddr: 0x1FE18, symSize: 0x28 }
  - { offset: 0x56F82, size: 0x8, addend: 0x0, symName: __RINvMsa_NtCsloNvcHxBCre_9hashbrown3rawNtB6_13RawTableInner16drop_inner_tableTRNtNtCs6IAuOt8vWmF_3syn4expr6MemberjENtNtCse1nGBsou5OW_5alloc5alloc6GlobalECsjOFMLY5rhAS_14thiserror_impl, symObjAddr: 0xD90, symBinAddr: 0x1FE40, symSize: 0xBC }
  - { offset: 0x57195, size: 0x8, addend: 0x0, symName: __RINvMsa_NtCsloNvcHxBCre_9hashbrown3rawNtB6_13RawTableInner17new_uninitializedNtNtCse1nGBsou5OW_5alloc5alloc6GlobalECsjOFMLY5rhAS_14thiserror_impl, symObjAddr: 0xE4C, symBinAddr: 0x1FEFC, symSize: 0x1B0 }
  - { offset: 0x573CE, size: 0x8, addend: 0x0, symName: __RINvMsa_NtCsloNvcHxBCre_9hashbrown3rawNtB6_13RawTableInner22fallible_with_capacityNtNtCse1nGBsou5OW_5alloc5alloc6GlobalECsjOFMLY5rhAS_14thiserror_impl, symObjAddr: 0xFFC, symBinAddr: 0x200AC, symSize: 0x2A8 }
  - { offset: 0x57C9B, size: 0x8, addend: 0x0, symName: __RNvMs1_NtCsloNvcHxBCre_9hashbrown3rawNtB5_11TableLayout20calculate_layout_forCsjOFMLY5rhAS_14thiserror_impl, symObjAddr: 0x17E4, symBinAddr: 0x20894, symSize: 0x210 }
  - { offset: 0x58128, size: 0x8, addend: 0x0, symName: __RNvMs6_NtCsloNvcHxBCre_9hashbrown3rawINtB5_8RawTableTRNtNtCs6IAuOt8vWmF_3syn4expr6MemberjEE14insert_in_slotCsjOFMLY5rhAS_14thiserror_impl, symObjAddr: 0x19F4, symBinAddr: 0x20AA4, symSize: 0x140 }
  - { offset: 0x585EA, size: 0x8, addend: 0x0, symName: __RNvMsa_NtCsloNvcHxBCre_9hashbrown3rawNtB5_13RawTableInner15fix_insert_slotCsjOFMLY5rhAS_14thiserror_impl, symObjAddr: 0x1B34, symBinAddr: 0x20BE4, symSize: 0x128 }
  - { offset: 0x58968, size: 0x8, addend: 0x0, symName: __RNvMsa_NtCsloNvcHxBCre_9hashbrown3rawNtB5_13RawTableInner15rehash_in_placeCsjOFMLY5rhAS_14thiserror_impl, symObjAddr: 0x1C5C, symBinAddr: 0x20D0C, symSize: 0x4E8 }
  - { offset: 0x59172, size: 0x8, addend: 0x0, symName: __RNvMsa_NtCsloNvcHxBCre_9hashbrown3rawNtB5_13RawTableInner16find_insert_slotCsjOFMLY5rhAS_14thiserror_impl, symObjAddr: 0x2144, symBinAddr: 0x211F4, symSize: 0x10C }
  - { offset: 0x59363, size: 0x8, addend: 0x0, symName: __RNvMsa_NtCsloNvcHxBCre_9hashbrown3rawNtB5_13RawTableInner19prepare_insert_slotCsjOFMLY5rhAS_14thiserror_impl, symObjAddr: 0x2250, symBinAddr: 0x21300, symSize: 0x74 }
  - { offset: 0x59655, size: 0x8, addend: 0x0, symName: __RNvMsa_NtCsloNvcHxBCre_9hashbrown3rawNtB5_13RawTableInner23prepare_rehash_in_placeCsjOFMLY5rhAS_14thiserror_impl, symObjAddr: 0x22C4, symBinAddr: 0x21374, symSize: 0x254 }
  - { offset: 0x59D51, size: 0x8, addend: 0x0, symName: __RNvMsa_NtCsloNvcHxBCre_9hashbrown3rawNtB5_13RawTableInner25find_insert_slot_in_groupCsjOFMLY5rhAS_14thiserror_impl, symObjAddr: 0x2518, symBinAddr: 0x215C8, symSize: 0x160 }
  - { offset: 0x5A01A, size: 0x8, addend: 0x0, symName: __RNvMsa_NtCsloNvcHxBCre_9hashbrown3rawNtB5_13RawTableInner30find_or_find_insert_slot_innerCsjOFMLY5rhAS_14thiserror_impl, symObjAddr: 0x2678, symBinAddr: 0x21728, symSize: 0x2BC }
  - { offset: 0x5A3F2, size: 0x8, addend: 0x0, symName: __RINvMs9_NtCs6IAuOt8vWmF_3syn5parseNtB6_11ParseBuffer4stepNCNvNtCsjOFMLY5rhAS_14thiserror_impl9scan_expr9scan_expr0bEBZ_, symObjAddr: 0x0, symBinAddr: 0x21BB8, symSize: 0x1A0 }
  - { offset: 0x5A6FC, size: 0x8, addend: 0x0, symName: __RINvNvNtNtCs9i5KxIbZ5ph_10proc_macro6bridge14selfless_reify31reify_to_extern_c_fn_hrt_bridge7wrapperNtNtB6_6buffer6BufferNCINvMs7_NtB6_6clientINtB24_6ClientNtB8_11TokenStreamB2u_E7expand1NvCsjOFMLY5rhAS_14thiserror_impl12derive_errorE0EB31_, symObjAddr: 0x1A30, symBinAddr: 0x23254, symSize: 0x5C }
  - { offset: 0x5AC75, size: 0x8, addend: 0x0, symName: __RINvXsa_NtCs3cP53eQoTwO_11proc_macro28fallbackNtB6_11TokenStreamINtNtNtNtCsfvfooZQ3Axs_4core4iter6traits7collect6ExtendNtB8_9TokenTreeE6extendNtB8_11TokenStreamECsjOFMLY5rhAS_14thiserror_impl, symObjAddr: 0x1AC4, symBinAddr: 0x232E8, symSize: 0xC0 }
  - { offset: 0x5ACDB, size: 0x8, addend: 0x0, symName: __RNCINvXsa_NtCs3cP53eQoTwO_11proc_macro28fallbackNtB8_11TokenStreamINtNtNtNtCsfvfooZQ3Axs_4core4iter6traits7collect6ExtendNtBa_9TokenTreeE6extendNtBa_11TokenStreamE0CsjOFMLY5rhAS_14thiserror_impl, symObjAddr: 0x1C8C, symBinAddr: 0x234B0, symSize: 0xAC }
  - { offset: 0x5AD28, size: 0x8, addend: 0x0, symName: __RNvXsA_NtCs3cP53eQoTwO_11proc_macro28fallbackNtB5_5IdentNtNtCsfvfooZQ3Axs_4core5clone5Clone5cloneCsjOFMLY5rhAS_14thiserror_impl, symObjAddr: 0x25CC, symBinAddr: 0x23AF0, symSize: 0x94 }
  - { offset: 0x5AD5C, size: 0x8, addend: 0x0, symName: __RNvXss_NtCs3cP53eQoTwO_11proc_macro28fallbackNtB5_11TokenStreamNtNtCsfvfooZQ3Axs_4core5clone5Clone5cloneCsjOFMLY5rhAS_14thiserror_impl, symObjAddr: 0x2DD8, symBinAddr: 0x242FC, symSize: 0x24 }
  - { offset: 0x5AD8E, size: 0x8, addend: 0x0, symName: __RNvXsu_NtCs3cP53eQoTwO_11proc_macro28fallbackNtB5_4SpanNtNtCsfvfooZQ3Axs_4core5clone5Clone5cloneCsjOFMLY5rhAS_14thiserror_impl, symObjAddr: 0x2DFC, symBinAddr: 0x24320, symSize: 0x10 }
  - { offset: 0x5BC42, size: 0x8, addend: 0x0, symName: __RNvNvMs1_NtNtCsfvfooZQ3Axs_4core3ptr8non_nullINtB7_7NonNullpE13new_unchecked18precondition_checkCsjOFMLY5rhAS_14thiserror_impl, symObjAddr: 0x1FD4, symBinAddr: 0x237F8, symSize: 0x38 }
  - { offset: 0x5BC9D, size: 0x8, addend: 0x0, symName: __RINvNtCsfvfooZQ3Axs_4core3ptr14read_unalignedNtNtNtNtB4_9core_arch10arm_shared4neon9uint8x8_tECsjOFMLY5rhAS_14thiserror_impl, symObjAddr: 0xA70, symBinAddr: 0x22628, symSize: 0x8C }
  - { offset: 0x5BD71, size: 0x8, addend: 0x0, symName: __RINvNtCsfvfooZQ3Axs_4core3ptr15write_unalignedNtNtNtNtB4_9core_arch10arm_shared4neon9uint8x8_tECsjOFMLY5rhAS_14thiserror_impl, symObjAddr: 0xAFC, symBinAddr: 0x226B4, symSize: 0x70 }
  - { offset: 0x5C025, size: 0x8, addend: 0x0, symName: __RINvNvNtCsfvfooZQ3Axs_4core3ptr19swap_nonoverlapping7runtimehECsjOFMLY5rhAS_14thiserror_impl, symObjAddr: 0x187C, symBinAddr: 0x230A0, symSize: 0x1B4 }
  - { offset: 0x5C7F2, size: 0x8, addend: 0x0, symName: __RNvNvNtCsfvfooZQ3Axs_4core3ptr13read_volatile18precondition_checkCsjOFMLY5rhAS_14thiserror_impl, symObjAddr: 0x200C, symBinAddr: 0x23830, symSize: 0x100 }
  - { offset: 0x5C907, size: 0x8, addend: 0x0, symName: __RNvNvNtCsfvfooZQ3Axs_4core3ptr7replace18precondition_checkCsjOFMLY5rhAS_14thiserror_impl, symObjAddr: 0x240C, symBinAddr: 0x23930, symSize: 0x100 }
  - { offset: 0x5F48A, size: 0x8, addend: 0x0, symName: __RNvNtNtNtCsfvfooZQ3Axs_4core9core_arch7aarch644neon7vld1_u8CsjOFMLY5rhAS_14thiserror_impl, symObjAddr: 0x1F70, symBinAddr: 0x23794, symSize: 0x2C }
  - { offset: 0x5F4B8, size: 0x8, addend: 0x0, symName: __RNvNtNtNtCsfvfooZQ3Axs_4core9core_arch7aarch644neon7vst1_u8CsjOFMLY5rhAS_14thiserror_impl, symObjAddr: 0x1F9C, symBinAddr: 0x237C0, symSize: 0x38 }
  - { offset: 0x5F720, size: 0x8, addend: 0x0, symName: __RINvNtNtNtNtCsfvfooZQ3Axs_4core5slice4sort6stable5drift10create_runRNtCs3cP53eQoTwO_11proc_macro25IdentNvYB13_NtNtBa_3cmp10PartialOrd2ltECsjOFMLY5rhAS_14thiserror_impl, symObjAddr: 0xC38, symBinAddr: 0x22724, symSize: 0x3A8 }
  - { offset: 0x5FC2B, size: 0x8, addend: 0x0, symName: __RINvNtNtNtNtCsfvfooZQ3Axs_4core5slice4sort6stable5drift16stable_quicksortRNtCs3cP53eQoTwO_11proc_macro25IdentNvYB19_NtNtBa_3cmp10PartialOrd2ltECsjOFMLY5rhAS_14thiserror_impl, symObjAddr: 0xFE0, symBinAddr: 0x22ACC, symSize: 0xB4 }
  - { offset: 0x5FE40, size: 0x8, addend: 0x0, symName: __RINvNtNtNtNtCsfvfooZQ3Axs_4core5slice4sort6stable5drift4sortRNtCs3cP53eQoTwO_11proc_macro25IdentNvYBW_NtNtBa_3cmp10PartialOrd2ltECsjOFMLY5rhAS_14thiserror_impl, symObjAddr: 0x1094, symBinAddr: 0x22B80, symSize: 0x520 }
  - { offset: 0x6088D, size: 0x8, addend: 0x0, symName: __RINvXs9_NtNtCsfvfooZQ3Axs_4core4hash5implsmNtB8_4Hash4hashNtNtNtCscOYdFFY2T5N_3std4hash6random13DefaultHasherECsjOFMLY5rhAS_14thiserror_impl, symObjAddr: 0x1A8C, symBinAddr: 0x232B0, symSize: 0x38 }
  - { offset: 0x608D6, size: 0x8, addend: 0x0, symName: __RINvYNtNtNtCscOYdFFY2T5N_3std4hash6random11RandomStateNtNtCsfvfooZQ3Axs_4core4hash11BuildHasher8hash_oneRNtNtCs6IAuOt8vWmF_3syn4expr6MemberECsjOFMLY5rhAS_14thiserror_impl, symObjAddr: 0x1B84, symBinAddr: 0x233A8, symSize: 0x84 }
  - { offset: 0x6093B, size: 0x8, addend: 0x0, symName: __RINvYNtNtNtCscOYdFFY2T5N_3std4hash6random11RandomStateNtNtCsfvfooZQ3Axs_4core4hash11BuildHasher8hash_oneRRNtNtCs6IAuOt8vWmF_3syn4expr6MemberECsjOFMLY5rhAS_14thiserror_impl, symObjAddr: 0x1C08, symBinAddr: 0x2342C, symSize: 0x84 }
  - { offset: 0x60B0D, size: 0x8, addend: 0x0, symName: __RNvYNtNtNtCscOYdFFY2T5N_3std4hash6random13DefaultHasherNtNtCsfvfooZQ3Axs_4core4hash6Hasher9write_u32CsjOFMLY5rhAS_14thiserror_impl, symObjAddr: 0x2E0C, symBinAddr: 0x24330, symSize: 0x3C }
  - { offset: 0x60F57, size: 0x8, addend: 0x0, symName: __RINvNtCs6IAuOt8vWmF_3syn5parse12parse_scopedNCNvNtCsjOFMLY5rhAS_14thiserror_impl4attr21parse_error_attribute0EBM_, symObjAddr: 0xA40, symBinAddr: 0x225F8, symSize: 0x30 }
  - { offset: 0x60FB3, size: 0x8, addend: 0x0, symName: __RNvXsh_NtCs6IAuOt8vWmF_3syn5parseNvYNtNtB7_4expr4ExprNtB5_5Parse5parseNtB5_6Parser6parse2CsjOFMLY5rhAS_14thiserror_impl, symObjAddr: 0x272C, symBinAddr: 0x23C50, symSize: 0x354 }
  - { offset: 0x610C3, size: 0x8, addend: 0x0, symName: __RNvXsh_NtCs6IAuOt8vWmF_3syn5parseNvYNtNtB7_6derive11DeriveInputNtB5_5Parse5parseNtB5_6Parser6parse2CsjOFMLY5rhAS_14thiserror_impl, symObjAddr: 0x2A80, symBinAddr: 0x23FA4, symSize: 0x358 }
  - { offset: 0x611D9, size: 0x8, addend: 0x0, symName: __RNvYNvYNtNtCs6IAuOt8vWmF_3syn6derive11DeriveInputNtNtB9_5parse5Parse5parseNtBN_6Parser5parseCsjOFMLY5rhAS_14thiserror_impl, symObjAddr: 0x2E48, symBinAddr: 0x2436C, symSize: 0x88 }
  - { offset: 0x671DF, size: 0x8, addend: 0x0, symName: __RNCNkNvNvMNtNtCscOYdFFY2T5N_3std4hash6randomNtB8_11RandomState3new4KEYS0s_0CsjOFMLY5rhAS_14thiserror_impl, symObjAddr: 0x1D38, symBinAddr: 0x2355C, symSize: 0x3C }
  - { offset: 0x6721D, size: 0x8, addend: 0x0, symName: __RNvNvNvMNtNtCscOYdFFY2T5N_3std4hash6randomNtB6_11RandomState3new4KEYS6___initCsjOFMLY5rhAS_14thiserror_impl, symObjAddr: 0x250C, symBinAddr: 0x23A30, symSize: 0x24 }
  - { offset: 0x6723B, size: 0x8, addend: 0x0, symName: __RNCNvMNtNtCscOYdFFY2T5N_3std4hash6randomNtB4_11RandomState3new0CsjOFMLY5rhAS_14thiserror_impl, symObjAddr: 0x1D74, symBinAddr: 0x23598, symSize: 0x2C }
  - { offset: 0x67316, size: 0x8, addend: 0x0, symName: __RNvXs2_NtNtCscOYdFFY2T5N_3std4hash6randomNtB5_13DefaultHasherNtNtCsfvfooZQ3Axs_4core4hash6Hasher5writeCsjOFMLY5rhAS_14thiserror_impl, symObjAddr: 0x2530, symBinAddr: 0x23A54, symSize: 0x38 }
  - { offset: 0x67371, size: 0x8, addend: 0x0, symName: __RNvXs2_NtNtCscOYdFFY2T5N_3std4hash6randomNtB5_13DefaultHasherNtNtCsfvfooZQ3Axs_4core4hash6Hasher6finishCsjOFMLY5rhAS_14thiserror_impl, symObjAddr: 0x2568, symBinAddr: 0x23A8C, symSize: 0x2C }
  - { offset: 0x673BA, size: 0x8, addend: 0x0, symName: __RNvXs2_NtNtCscOYdFFY2T5N_3std4hash6randomNtB5_13DefaultHasherNtNtCsfvfooZQ3Axs_4core4hash6Hasher9write_strCsjOFMLY5rhAS_14thiserror_impl, symObjAddr: 0x2594, symBinAddr: 0x23AB8, symSize: 0x38 }
  - { offset: 0x6741B, size: 0x8, addend: 0x0, symName: __RNvXs_NtNtCscOYdFFY2T5N_3std4hash6randomNtB4_11RandomStateNtNtCsfvfooZQ3Axs_4core4hash11BuildHasher12build_hasherCsjOFMLY5rhAS_14thiserror_impl, symObjAddr: 0x2660, symBinAddr: 0x23B84, symSize: 0xCC }
  - { offset: 0x674EF, size: 0x8, addend: 0x0, symName: __RINvMs9_NtCs6IAuOt8vWmF_3syn5parseNtB6_11ParseBuffer4stepNCNvNtCsjOFMLY5rhAS_14thiserror_impl9scan_expr9scan_expr0bEBZ_, symObjAddr: 0x0, symBinAddr: 0x21BB8, symSize: 0x1A0 }
  - { offset: 0x67579, size: 0x8, addend: 0x0, symName: __RINvMs9_NtCs6IAuOt8vWmF_3syn5parseNtB6_11ParseBuffer4stepNCNvNtCsjOFMLY5rhAS_14thiserror_impl9scan_expr9scan_exprs0_0bEBZ_, symObjAddr: 0x1A0, symBinAddr: 0x21D58, symSize: 0x194 }
  - { offset: 0x67603, size: 0x8, addend: 0x0, symName: __RINvMs9_NtCs6IAuOt8vWmF_3syn5parseNtB6_11ParseBuffer4stepNCNvNtCsjOFMLY5rhAS_14thiserror_impl9scan_expr9scan_exprs1_0bEBZ_, symObjAddr: 0x334, symBinAddr: 0x21EEC, symSize: 0x194 }
  - { offset: 0x6768D, size: 0x8, addend: 0x0, symName: __RINvMs9_NtCs6IAuOt8vWmF_3syn5parseNtB6_11ParseBuffer4stepNCNvNtCsjOFMLY5rhAS_14thiserror_impl9scan_expr9scan_exprs_0bEBZ_, symObjAddr: 0x4C8, symBinAddr: 0x22080, symSize: 0x1AC }
  - { offset: 0x67718, size: 0x8, addend: 0x0, symName: __RINvMs9_NtCs6IAuOt8vWmF_3syn5parseNtB6_11ParseBuffer4stepNCNvXs0_NvNvNtCsjOFMLY5rhAS_14thiserror_impl4attr21parse_error_attribute1__NtB13_11transparentNtB6_5Parse5parse0B26_EB17_, symObjAddr: 0x674, symBinAddr: 0x2222C, symSize: 0x18C }
  - { offset: 0x677A2, size: 0x8, addend: 0x0, symName: __RINvMs9_NtCs6IAuOt8vWmF_3syn5parseNtB6_11ParseBuffer5parseINtNtCsfvfooZQ3Axs_4core6option6OptionNtCs3cP53eQoTwO_11proc_macro29TokenTreeEECsjOFMLY5rhAS_14thiserror_impl, symObjAddr: 0x800, symBinAddr: 0x223B8, symSize: 0x34 }
  - { offset: 0x677CE, size: 0x8, addend: 0x0, symName: __RINvMs9_NtCs6IAuOt8vWmF_3syn5parseNtB6_11ParseBuffer5parseNtCs3cP53eQoTwO_11proc_macro29TokenTreeECsjOFMLY5rhAS_14thiserror_impl, symObjAddr: 0x834, symBinAddr: 0x223EC, symSize: 0x34 }
  - { offset: 0x677FA, size: 0x8, addend: 0x0, symName: __RINvMs9_NtCs6IAuOt8vWmF_3syn5parseNtB6_11ParseBuffer5parseNtNvNtCsjOFMLY5rhAS_14thiserror_impl4attr21parse_error_attribute11transparentEB10_, symObjAddr: 0x868, symBinAddr: 0x22420, symSize: 0x34 }
  - { offset: 0x67852, size: 0x8, addend: 0x0, symName: __RINvMs9_NtCs6IAuOt8vWmF_3syn5parseNtB6_11ParseBuffer5peek2INvNtB8_5token2EqNtNtB8_9lookahead11TokenMarkerEECsjOFMLY5rhAS_14thiserror_impl, symObjAddr: 0x89C, symBinAddr: 0x22454, symSize: 0x3C }
  - { offset: 0x678B2, size: 0x8, addend: 0x0, symName: __RINvMs9_NtCs6IAuOt8vWmF_3syn5parseNtB6_11ParseBuffer5peek2INvNtB8_5token4EqEqNtNtB8_9lookahead11TokenMarkerEECsjOFMLY5rhAS_14thiserror_impl, symObjAddr: 0x8D8, symBinAddr: 0x22490, symSize: 0x3C }
  - { offset: 0x678ED, size: 0x8, addend: 0x0, symName: __RINvMs9_NtCs6IAuOt8vWmF_3syn5parseNtB6_11ParseBuffer5peek2NtNtB8_9lookahead3EndECsjOFMLY5rhAS_14thiserror_impl, symObjAddr: 0x914, symBinAddr: 0x224CC, symSize: 0x3C }
  - { offset: 0x67928, size: 0x8, addend: 0x0, symName: __RINvMs9_NtCs6IAuOt8vWmF_3syn5parseNtB6_11ParseBuffer5peek2NtNtNtB8_3ext7private6PeekFnECsjOFMLY5rhAS_14thiserror_impl, symObjAddr: 0x950, symBinAddr: 0x22508, symSize: 0x3C }
  - { offset: 0x67988, size: 0x8, addend: 0x0, symName: __RINvMs9_NtCs6IAuOt8vWmF_3syn5parseNtB6_11ParseBuffer5peek2NvNtB8_3lit6LitIntECsjOFMLY5rhAS_14thiserror_impl, symObjAddr: 0x98C, symBinAddr: 0x22544, symSize: 0x3C }
  - { offset: 0x679E8, size: 0x8, addend: 0x0, symName: __RINvMs9_NtCs6IAuOt8vWmF_3syn5parseNtB6_11ParseBuffer5peek2NvNtB8_3lit8LitFloatECsjOFMLY5rhAS_14thiserror_impl, symObjAddr: 0x9C8, symBinAddr: 0x22580, symSize: 0x3C }
  - { offset: 0x67A23, size: 0x8, addend: 0x0, symName: __RINvMs9_NtCs6IAuOt8vWmF_3syn5parseNtB6_11ParseBuffer5peek3INvNtB8_5token4EqEqNtNtB8_9lookahead11TokenMarkerEECsjOFMLY5rhAS_14thiserror_impl, symObjAddr: 0xA04, symBinAddr: 0x225BC, symSize: 0x3C }
  - { offset: 0x684B6, size: 0x8, addend: 0x0, symName: __RNvMs1_NtNtCsfvfooZQ3Axs_4core3ptr8non_nullINtB5_7NonNullNtNtCsjOFMLY5rhAS_14thiserror_impl3ast7VariantE7sub_ptrBX_, symObjAddr: 0x1DA0, symBinAddr: 0x235C4, symSize: 0x74 }
  - { offset: 0x685A2, size: 0x8, addend: 0x0, symName: __RNvMs1_NtNtCsfvfooZQ3Axs_4core3ptr8non_nullINtB5_7NonNullRNtCs3cP53eQoTwO_11proc_macro25IdentE7sub_ptrCsjOFMLY5rhAS_14thiserror_impl, symObjAddr: 0x1E14, symBinAddr: 0x23638, symSize: 0x74 }
  - { offset: 0x686A8, size: 0x8, addend: 0x0, symName: __RNvMs1_NtNtCsfvfooZQ3Axs_4core3ptr8non_nullINtB5_7NonNullTNtNtCs6IAuOt8vWmF_3syn4data7VariantNtNtBY_5token5CommaEE7sub_ptrCsjOFMLY5rhAS_14thiserror_impl, symObjAddr: 0x1E88, symBinAddr: 0x236AC, symSize: 0x74 }
  - { offset: 0x687AE, size: 0x8, addend: 0x0, symName: __RNvMs1_NtNtCsfvfooZQ3Axs_4core3ptr8non_nullINtB5_7NonNullTNtNtCs6IAuOt8vWmF_3syn4path15GenericArgumentNtNtBY_5token5CommaEE7sub_ptrCsjOFMLY5rhAS_14thiserror_impl, symObjAddr: 0x1EFC, symBinAddr: 0x23720, symSize: 0x74 }
  - { offset: 0x68B35, size: 0x8, addend: 0x0, symName: __RINvCs6IAuOt8vWmF_3syn5parseNtNtB2_6derive11DeriveInputECsjOFMLY5rhAS_14thiserror_impl, symObjAddr: 0x0, symBinAddr: 0x243F4, symSize: 0x30 }
  - { offset: 0x69F29, size: 0x8, addend: 0x0, symName: __RINvNtCsfvfooZQ3Axs_4core3ptr13drop_in_placeINtNtB4_4cell10UnsafeCellNtNtNtCs9i5KxIbZ5ph_10proc_macro6bridge6client6BridgeEECsjOFMLY5rhAS_14thiserror_impl, symObjAddr: 0x110, symBinAddr: 0x244BC, symSize: 0x24 }
  - { offset: 0x69F58, size: 0x8, addend: 0x0, symName: __RINvNtCsfvfooZQ3Axs_4core3ptr13drop_in_placeINtNtB4_4cell7RefCellNtNtNtCs9i5KxIbZ5ph_10proc_macro6bridge6client6BridgeEECsjOFMLY5rhAS_14thiserror_impl, symObjAddr: 0x134, symBinAddr: 0x244E0, symSize: 0x24 }
  - { offset: 0x69F87, size: 0x8, addend: 0x0, symName: __RINvNtCsfvfooZQ3Axs_4core3ptr13drop_in_placeINtNtB4_6option6OptionINtNtB4_6result6ResultNtNtB4_7convert10InfallibleNtNtCs6IAuOt8vWmF_3syn5error5ErrorEEECsjOFMLY5rhAS_14thiserror_impl, symObjAddr: 0x158, symBinAddr: 0x24504, symSize: 0x48 }
  - { offset: 0x69FB6, size: 0x8, addend: 0x0, symName: __RINvNtCsfvfooZQ3Axs_4core3ptr13drop_in_placeINtNtB4_6option6OptionINtNtB4_6result6ResultNtNtCs6IAuOt8vWmF_3syn4expr5IndexNtNtB1s_5error5ErrorEEECsjOFMLY5rhAS_14thiserror_impl, symObjAddr: 0x1A0, symBinAddr: 0x2454C, symSize: 0x48 }
  - { offset: 0x69FE5, size: 0x8, addend: 0x0, symName: __RINvNtCsfvfooZQ3Axs_4core3ptr13drop_in_placeINtNtB4_6option6OptionINtNtCse1nGBsou5OW_5alloc5boxed3BoxNtCs3cP53eQoTwO_11proc_macro211TokenStreamEEECsjOFMLY5rhAS_14thiserror_impl, symObjAddr: 0x1E8, symBinAddr: 0x24594, symSize: 0x44 }
  - { offset: 0x6A014, size: 0x8, addend: 0x0, symName: __RINvNtCsfvfooZQ3Axs_4core3ptr13drop_in_placeINtNtB4_6option6OptionNtNtCsjOFMLY5rhAS_14thiserror_impl3ast5FieldEEB16_, symObjAddr: 0x22C, symBinAddr: 0x245D8, symSize: 0x4C }
  - { offset: 0x6A043, size: 0x8, addend: 0x0, symName: __RINvNtCsfvfooZQ3Axs_4core3ptr13drop_in_placeINtNtB4_6option6OptionNtNtCsjOFMLY5rhAS_14thiserror_impl3ast7VariantEEB16_, symObjAddr: 0x278, symBinAddr: 0x24624, symSize: 0x48 }
  - { offset: 0x6A072, size: 0x8, addend: 0x0, symName: __RINvNtCsfvfooZQ3Axs_4core3ptr13drop_in_placeINtNtB4_6option6OptionNtNtCsjOFMLY5rhAS_14thiserror_impl4attr7DisplayEEB16_, symObjAddr: 0x2C0, symBinAddr: 0x2466C, symSize: 0x48 }
  - { offset: 0x6A0A1, size: 0x8, addend: 0x0, symName: __RINvNtCsfvfooZQ3Axs_4core3ptr13drop_in_placeINtNtB4_6result6ResultNtNtB4_7convert10InfallibleNtNtCs6IAuOt8vWmF_3syn5error5ErrorEECsjOFMLY5rhAS_14thiserror_impl, symObjAddr: 0x308, symBinAddr: 0x246B4, symSize: 0x30 }
  - { offset: 0x6A0D0, size: 0x8, addend: 0x0, symName: __RINvNtCsfvfooZQ3Axs_4core3ptr13drop_in_placeINtNtB4_6result6ResultNtNtCs6IAuOt8vWmF_3syn4expr4ExprNtNtB16_5error5ErrorEECsjOFMLY5rhAS_14thiserror_impl, symObjAddr: 0x338, symBinAddr: 0x246E4, symSize: 0x58 }
  - { offset: 0x6A0FF, size: 0x8, addend: 0x0, symName: __RINvNtCsfvfooZQ3Axs_4core3ptr13drop_in_placeINtNtB4_6result6ResultNtNtCs6IAuOt8vWmF_3syn4expr5IndexNtNtB16_5error5ErrorEECsjOFMLY5rhAS_14thiserror_impl, symObjAddr: 0x390, symBinAddr: 0x2473C, symSize: 0x48 }
  - { offset: 0x6A12E, size: 0x8, addend: 0x0, symName: __RINvNtCsfvfooZQ3Axs_4core3ptr13drop_in_placeINtNtB4_6result6ResultNtNtCsjOFMLY5rhAS_14thiserror_impl3fmt12FmtArgumentsNtNtCs6IAuOt8vWmF_3syn5error5ErrorEEB16_, symObjAddr: 0x3D8, symBinAddr: 0x24784, symSize: 0x54 }
  - { offset: 0x6A15D, size: 0x8, addend: 0x0, symName: __RINvNtCsfvfooZQ3Axs_4core3ptr13drop_in_placeINtNtCs2cqEZUIJimJ_5quote9___private9RepInterpNtCs3cP53eQoTwO_11proc_macro211TokenStreamEECsjOFMLY5rhAS_14thiserror_impl, symObjAddr: 0x42C, symBinAddr: 0x247D8, symSize: 0x24 }
  - { offset: 0x6A18C, size: 0x8, addend: 0x0, symName: __RINvNtCsfvfooZQ3Axs_4core3ptr13drop_in_placeINtNtCs2cqEZUIJimJ_5quote9___private9RepInterpNtCs3cP53eQoTwO_11proc_macro25IdentEECsjOFMLY5rhAS_14thiserror_impl, symObjAddr: 0x450, symBinAddr: 0x247FC, symSize: 0x24 }
  - { offset: 0x6A1BB, size: 0x8, addend: 0x0, symName: __RINvNtCsfvfooZQ3Axs_4core3ptr13drop_in_placeINtNtCs6IAuOt8vWmF_3syn10punctuated10PunctuatedNtCs3cP53eQoTwO_11proc_macro211TokenStreamNtNtBL_5token4PlusEECsjOFMLY5rhAS_14thiserror_impl, symObjAddr: 0x474, symBinAddr: 0x24820, symSize: 0x60 }
  - { offset: 0x6A1EA, size: 0x8, addend: 0x0, symName: __RINvNtCsfvfooZQ3Axs_4core3ptr13drop_in_placeINtNtCs6IAuOt8vWmF_3syn10punctuated4IterNtNtBL_4data5FieldEECsjOFMLY5rhAS_14thiserror_impl, symObjAddr: 0x4F4, symBinAddr: 0x24880, symSize: 0x24 }
  - { offset: 0x6A219, size: 0x8, addend: 0x0, symName: __RINvNtCsfvfooZQ3Axs_4core3ptr13drop_in_placeINtNtCs6IAuOt8vWmF_3syn10punctuated4IterNtNtBL_4data7VariantEECsjOFMLY5rhAS_14thiserror_impl, symObjAddr: 0x518, symBinAddr: 0x248A4, symSize: 0x24 }
  - { offset: 0x6A248, size: 0x8, addend: 0x0, symName: __RINvNtCsfvfooZQ3Axs_4core3ptr13drop_in_placeINtNtCs6IAuOt8vWmF_3syn10punctuated4IterNtNtBL_4path15GenericArgumentEECsjOFMLY5rhAS_14thiserror_impl, symObjAddr: 0x53C, symBinAddr: 0x248C8, symSize: 0x24 }
  - { offset: 0x6A277, size: 0x8, addend: 0x0, symName: __RINvNtCsfvfooZQ3Axs_4core3ptr13drop_in_placeINtNtCs6IAuOt8vWmF_3syn10punctuated4IterNtNtBL_8generics12GenericParamEECsjOFMLY5rhAS_14thiserror_impl, symObjAddr: 0x560, symBinAddr: 0x248EC, symSize: 0x24 }
  - { offset: 0x6A2A6, size: 0x8, addend: 0x0, symName: __RINvNtCsfvfooZQ3Axs_4core3ptr13drop_in_placeINtNtCse1nGBsou5OW_5alloc3vec3VecNtCs3cP53eQoTwO_11proc_macro211TokenStreamEECsjOFMLY5rhAS_14thiserror_impl, symObjAddr: 0x584, symBinAddr: 0x24910, symSize: 0x5C }
  - { offset: 0x6A2D5, size: 0x8, addend: 0x0, symName: __RINvNtCsfvfooZQ3Axs_4core3ptr13drop_in_placeINtNtCse1nGBsou5OW_5alloc3vec3VecNtNtCsjOFMLY5rhAS_14thiserror_impl3ast5FieldEEB1h_, symObjAddr: 0x5E0, symBinAddr: 0x2496C, symSize: 0x5C }
  - { offset: 0x6A304, size: 0x8, addend: 0x0, symName: __RINvNtCsfvfooZQ3Axs_4core3ptr13drop_in_placeINtNtCse1nGBsou5OW_5alloc3vec3VecNtNtCsjOFMLY5rhAS_14thiserror_impl3ast7VariantEEB1h_, symObjAddr: 0x63C, symBinAddr: 0x249C8, symSize: 0x5C }
  - { offset: 0x6A333, size: 0x8, addend: 0x0, symName: __RINvNtCsfvfooZQ3Axs_4core3ptr13drop_in_placeINtNtCse1nGBsou5OW_5alloc3vec3VecRNtCs3cP53eQoTwO_11proc_macro25IdentEECsjOFMLY5rhAS_14thiserror_impl, symObjAddr: 0x698, symBinAddr: 0x24A24, symSize: 0x5C }
  - { offset: 0x6A362, size: 0x8, addend: 0x0, symName: __RINvNtCsfvfooZQ3Axs_4core3ptr13drop_in_placeINtNtCse1nGBsou5OW_5alloc3vec3VecTNtCs3cP53eQoTwO_11proc_macro211TokenStreamNtNtCs6IAuOt8vWmF_3syn5token4PlusEEECsjOFMLY5rhAS_14thiserror_impl, symObjAddr: 0x6F4, symBinAddr: 0x24A80, symSize: 0x5C }
  - { offset: 0x6A391, size: 0x8, addend: 0x0, symName: __RINvNtCsfvfooZQ3Axs_4core3ptr13drop_in_placeINtNtCse1nGBsou5OW_5alloc5boxed3BoxDNtNtB4_5error5ErrorNtNtB4_6marker4SendNtB1B_4SyncEL_EECsjOFMLY5rhAS_14thiserror_impl, symObjAddr: 0x750, symBinAddr: 0x24ADC, symSize: 0x80 }
  - { offset: 0x6A3C0, size: 0x8, addend: 0x0, symName: __RINvNtCsfvfooZQ3Axs_4core3ptr13drop_in_placeINtNtCse1nGBsou5OW_5alloc5boxed3BoxINtNtCs6IAuOt8vWmF_3syn5drops6NoDropDINtNtB1k_10punctuated9IterTraitNtNtB1k_4data5FieldEp4ItemRB2l_EL_EEECsjOFMLY5rhAS_14thiserror_impl, symObjAddr: 0x7D0, symBinAddr: 0x24B5C, symSize: 0x2C }
  - { offset: 0x6A3EF, size: 0x8, addend: 0x0, symName: __RINvNtCsfvfooZQ3Axs_4core3ptr13drop_in_placeINtNtCse1nGBsou5OW_5alloc5boxed3BoxINtNtCs6IAuOt8vWmF_3syn5drops6NoDropDINtNtB1k_10punctuated9IterTraitNtNtB1k_4data7VariantEp4ItemRB2l_EL_EEECsjOFMLY5rhAS_14thiserror_impl, symObjAddr: 0x7FC, symBinAddr: 0x24B88, symSize: 0x2C }
  - { offset: 0x6A41E, size: 0x8, addend: 0x0, symName: __RINvNtCsfvfooZQ3Axs_4core3ptr13drop_in_placeINtNtCse1nGBsou5OW_5alloc5boxed3BoxINtNtCs6IAuOt8vWmF_3syn5drops6NoDropDINtNtB1k_10punctuated9IterTraitNtNtB1k_4path15GenericArgumentEp4ItemRB2l_EL_EEECsjOFMLY5rhAS_14thiserror_impl, symObjAddr: 0x828, symBinAddr: 0x24BB4, symSize: 0x2C }
  - { offset: 0x6A44D, size: 0x8, addend: 0x0, symName: __RINvNtCsfvfooZQ3Axs_4core3ptr13drop_in_placeINtNtCse1nGBsou5OW_5alloc5boxed3BoxINtNtCs6IAuOt8vWmF_3syn5drops6NoDropDINtNtB1k_10punctuated9IterTraitNtNtB1k_8generics12GenericParamEp4ItemRB2l_EL_EEECsjOFMLY5rhAS_14thiserror_impl, symObjAddr: 0x854, symBinAddr: 0x24BE0, symSize: 0x2C }
  - { offset: 0x6A47C, size: 0x8, addend: 0x0, symName: __RINvNtCsfvfooZQ3Axs_4core3ptr13drop_in_placeINtNtCse1nGBsou5OW_5alloc5boxed3BoxINtNtNtNtBL_11collections5btree4node12InternalNodeNtCs3cP53eQoTwO_11proc_macro25IdentNtNtB1k_7set_val9SetValZSTEEECsjOFMLY5rhAS_14thiserror_impl, symObjAddr: 0x880, symBinAddr: 0x24C0C, symSize: 0x2C }
  - { offset: 0x6A4AB, size: 0x8, addend: 0x0, symName: __RINvNtCsfvfooZQ3Axs_4core3ptr13drop_in_placeINtNtCse1nGBsou5OW_5alloc5boxed3BoxINtNtNtNtBL_11collections5btree4node12InternalNodeNtNtBL_6string6StringNtNtB1k_7set_val9SetValZSTEEECsjOFMLY5rhAS_14thiserror_impl, symObjAddr: 0x8AC, symBinAddr: 0x24C38, symSize: 0x2C }
  - { offset: 0x6A4DA, size: 0x8, addend: 0x0, symName: __RINvNtCsfvfooZQ3Axs_4core3ptr13drop_in_placeINtNtCse1nGBsou5OW_5alloc5boxed3BoxINtNtNtNtBL_11collections5btree4node12InternalNodeNtNtBL_6string6StringTINtNtB1k_3set8BTreeSetB23_EINtNtCs6IAuOt8vWmF_3syn10punctuated10PunctuatedNtCs3cP53eQoTwO_11proc_macro211TokenStreamNtNtB2V_5token4PlusEEEEECsjOFMLY5rhAS_14thiserror_impl, symObjAddr: 0x8D8, symBinAddr: 0x24C64, symSize: 0x2C }
  - { offset: 0x6A509, size: 0x8, addend: 0x0, symName: __RINvNtCsfvfooZQ3Axs_4core3ptr13drop_in_placeINtNtCse1nGBsou5OW_5alloc5boxed3BoxINtNtNtNtBL_11collections5btree4node12InternalNodeTjNtNtCsjOFMLY5rhAS_14thiserror_impl4attr5TraitENtNtB1k_7set_val9SetValZSTEEEB29_, symObjAddr: 0x930, symBinAddr: 0x24C90, symSize: 0x2C }
  - { offset: 0x6A538, size: 0x8, addend: 0x0, symName: __RINvNtCsfvfooZQ3Axs_4core3ptr13drop_in_placeINtNtCse1nGBsou5OW_5alloc5boxed3BoxINtNtNtNtBL_11collections5btree4node8LeafNodeNtCs3cP53eQoTwO_11proc_macro25IdentNtNtB1k_7set_val9SetValZSTEEECsjOFMLY5rhAS_14thiserror_impl, symObjAddr: 0x95C, symBinAddr: 0x24CBC, symSize: 0x2C }
  - { offset: 0x6A567, size: 0x8, addend: 0x0, symName: __RINvNtCsfvfooZQ3Axs_4core3ptr13drop_in_placeINtNtCse1nGBsou5OW_5alloc5boxed3BoxINtNtNtNtBL_11collections5btree4node8LeafNodeNtNtBL_6string6StringNtNtB1k_7set_val9SetValZSTEEECsjOFMLY5rhAS_14thiserror_impl, symObjAddr: 0x988, symBinAddr: 0x24CE8, symSize: 0x2C }
  - { offset: 0x6A596, size: 0x8, addend: 0x0, symName: __RINvNtCsfvfooZQ3Axs_4core3ptr13drop_in_placeINtNtCse1nGBsou5OW_5alloc5boxed3BoxINtNtNtNtBL_11collections5btree4node8LeafNodeNtNtBL_6string6StringTINtNtB1k_3set8BTreeSetB1Y_EINtNtCs6IAuOt8vWmF_3syn10punctuated10PunctuatedNtCs3cP53eQoTwO_11proc_macro211TokenStreamNtNtB2Q_5token4PlusEEEEECsjOFMLY5rhAS_14thiserror_impl, symObjAddr: 0x9B4, symBinAddr: 0x24D14, symSize: 0x2C }
  - { offset: 0x6A5C5, size: 0x8, addend: 0x0, symName: __RINvNtCsfvfooZQ3Axs_4core3ptr13drop_in_placeINtNtCse1nGBsou5OW_5alloc5boxed3BoxINtNtNtNtBL_11collections5btree4node8LeafNodeTjNtNtCsjOFMLY5rhAS_14thiserror_impl4attr5TraitENtNtB1k_7set_val9SetValZSTEEEB24_, symObjAddr: 0x9E0, symBinAddr: 0x24D40, symSize: 0x2C }
  - { offset: 0x6A5F4, size: 0x8, addend: 0x0, symName: __RINvNtCsfvfooZQ3Axs_4core3ptr13drop_in_placeINtNtCse1nGBsou5OW_5alloc5boxed3BoxNtCs3cP53eQoTwO_11proc_macro211TokenStreamEECsjOFMLY5rhAS_14thiserror_impl, symObjAddr: 0xA0C, symBinAddr: 0x24D6C, symSize: 0x60 }
  - { offset: 0x6A623, size: 0x8, addend: 0x0, symName: __RINvNtCsfvfooZQ3Axs_4core3ptr13drop_in_placeINtNtCse1nGBsou5OW_5alloc5boxed3BoxNtNtNtCscOYdFFY2T5N_3std2io5error6CustomEECsjOFMLY5rhAS_14thiserror_impl, symObjAddr: 0xA6C, symBinAddr: 0x24DCC, symSize: 0x60 }
  - { offset: 0x6A652, size: 0x8, addend: 0x0, symName: __RINvNtCsfvfooZQ3Axs_4core3ptr13drop_in_placeINtNtCse1nGBsou5OW_5alloc7raw_vec6RawVecNtCs3cP53eQoTwO_11proc_macro211TokenStreamEECsjOFMLY5rhAS_14thiserror_impl, symObjAddr: 0xACC, symBinAddr: 0x24E2C, symSize: 0x24 }
  - { offset: 0x6A681, size: 0x8, addend: 0x0, symName: __RINvNtCsfvfooZQ3Axs_4core3ptr13drop_in_placeINtNtCse1nGBsou5OW_5alloc7raw_vec6RawVecNtNtCsjOFMLY5rhAS_14thiserror_impl3ast5FieldEEB1o_, symObjAddr: 0xAF0, symBinAddr: 0x24E50, symSize: 0x24 }
  - { offset: 0x6A6B0, size: 0x8, addend: 0x0, symName: __RINvNtCsfvfooZQ3Axs_4core3ptr13drop_in_placeINtNtCse1nGBsou5OW_5alloc7raw_vec6RawVecNtNtCsjOFMLY5rhAS_14thiserror_impl3ast7VariantEEB1o_, symObjAddr: 0xB14, symBinAddr: 0x24E74, symSize: 0x24 }
  - { offset: 0x6A6DF, size: 0x8, addend: 0x0, symName: __RINvNtCsfvfooZQ3Axs_4core3ptr13drop_in_placeINtNtCse1nGBsou5OW_5alloc7raw_vec6RawVecRNtCs3cP53eQoTwO_11proc_macro25IdentEECsjOFMLY5rhAS_14thiserror_impl, symObjAddr: 0xB38, symBinAddr: 0x24E98, symSize: 0x24 }
  - { offset: 0x6A70E, size: 0x8, addend: 0x0, symName: __RINvNtCsfvfooZQ3Axs_4core3ptr13drop_in_placeINtNtCse1nGBsou5OW_5alloc7raw_vec6RawVecTNtCs3cP53eQoTwO_11proc_macro211TokenStreamNtNtCs6IAuOt8vWmF_3syn5token4PlusEEECsjOFMLY5rhAS_14thiserror_impl, symObjAddr: 0xB5C, symBinAddr: 0x24EBC, symSize: 0x24 }
  - { offset: 0x6A73D, size: 0x8, addend: 0x0, symName: __RINvNtCsfvfooZQ3Axs_4core3ptr13drop_in_placeINtNtCsloNvcHxBCre_9hashbrown10scopeguard10ScopeGuardNtNtBL_3raw13RawTableInnerNCINvMsa_B1z_B1x_14prepare_resizeNtNtCse1nGBsou5OW_5alloc5alloc6GlobalE0EECsjOFMLY5rhAS_14thiserror_impl, symObjAddr: 0xB80, symBinAddr: 0x24EE0, symSize: 0x24 }
  - { offset: 0x6A76C, size: 0x8, addend: 0x0, symName: __RINvNtCsfvfooZQ3Axs_4core3ptr13drop_in_placeINtNtCsloNvcHxBCre_9hashbrown10scopeguard10ScopeGuardQNtNtBL_3raw13RawTableInnerNCNvMsa_B1A_B1y_15rehash_in_place0EECsjOFMLY5rhAS_14thiserror_impl, symObjAddr: 0xBA4, symBinAddr: 0x24F04, symSize: 0x24 }
  - { offset: 0x6A79B, size: 0x8, addend: 0x0, symName: __RINvNtCsfvfooZQ3Axs_4core3ptr13drop_in_placeINtNtCsloNvcHxBCre_9hashbrown3map7HashMapRNtNtCs6IAuOt8vWmF_3syn4expr6MemberjNtNtNtCscOYdFFY2T5N_3std4hash6random11RandomStateEECsjOFMLY5rhAS_14thiserror_impl, symObjAddr: 0xBC8, symBinAddr: 0x24F28, symSize: 0x24 }
  - { offset: 0x6A7CA, size: 0x8, addend: 0x0, symName: __RINvNtCsfvfooZQ3Axs_4core3ptr13drop_in_placeINtNtCsloNvcHxBCre_9hashbrown3raw8RawTableTRNtNtCs6IAuOt8vWmF_3syn4expr6MemberjEEECsjOFMLY5rhAS_14thiserror_impl, symObjAddr: 0xBEC, symBinAddr: 0x24F4C, symSize: 0x24 }
  - { offset: 0x6A7F9, size: 0x8, addend: 0x0, symName: __RINvNtCsfvfooZQ3Axs_4core3ptr13drop_in_placeINtNtNtB4_3ops12control_flow11ControlFlowIBH_NtNtCsjOFMLY5rhAS_14thiserror_impl3ast5FieldEEEB1t_, symObjAddr: 0xC10, symBinAddr: 0x24F70, symSize: 0x48 }
  - { offset: 0x6A828, size: 0x8, addend: 0x0, symName: __RINvNtCsfvfooZQ3Axs_4core3ptr13drop_in_placeINtNtNtB4_3ops12control_flow11ControlFlowNtNtCsjOFMLY5rhAS_14thiserror_impl3ast5FieldEEB1p_, symObjAddr: 0xC58, symBinAddr: 0x24FB8, symSize: 0x4C }
  - { offset: 0x6A857, size: 0x8, addend: 0x0, symName: __RINvNtCsfvfooZQ3Axs_4core3ptr13drop_in_placeINtNtNtB4_3ops12control_flow11ControlFlowNtNtCsjOFMLY5rhAS_14thiserror_impl3ast7VariantEEB1p_, symObjAddr: 0xCA4, symBinAddr: 0x25004, symSize: 0x48 }
  - { offset: 0x6A886, size: 0x8, addend: 0x0, symName: __RINvNtCsfvfooZQ3Axs_4core3ptr13drop_in_placeINtNtNtB4_4iter8adapters12GenericShuntINtNtBJ_3map3MapINtNtBJ_9enumerate9EnumerateINtNtCs6IAuOt8vWmF_3syn10punctuated4IterNtNtB25_4data5FieldEENCNvMs2_NtCsjOFMLY5rhAS_14thiserror_impl3astNtB37_5Field17multiple_from_syn0EINtNtB4_6result6ResultNtNtB4_7convert10InfallibleNtNtB25_5error5ErrorEEEB39_, symObjAddr: 0xCEC, symBinAddr: 0x2504C, symSize: 0x24 }
  - { offset: 0x6A8B5, size: 0x8, addend: 0x0, symName: __RINvNtCsfvfooZQ3Axs_4core3ptr13drop_in_placeINtNtNtB4_4iter8adapters12GenericShuntINtNtBJ_3map3MapINtNtCs6IAuOt8vWmF_3syn10punctuated4IterNtNtB1D_4data7VariantENCNvMs0_NtCsjOFMLY5rhAS_14thiserror_impl3astNtB2G_4Enum8from_syn0EINtNtB4_6result6ResultNtNtB4_7convert10InfallibleNtNtB1D_5error5ErrorEEEB2I_, symObjAddr: 0xD10, symBinAddr: 0x25070, symSize: 0x24 }
  - { offset: 0x6A8E4, size: 0x8, addend: 0x0, symName: __RINvNtCsfvfooZQ3Axs_4core3ptr13drop_in_placeINtNtNtB4_5array4iter8IntoIterjKj2_EECsjOFMLY5rhAS_14thiserror_impl, symObjAddr: 0xD34, symBinAddr: 0x25094, symSize: 0x24 }
  - { offset: 0x6A913, size: 0x8, addend: 0x0, symName: __RINvNtCsfvfooZQ3Axs_4core3ptr13drop_in_placeINtNtNtCscOYdFFY2T5N_3std2io5error9ErrorDataINtNtCse1nGBsou5OW_5alloc5boxed3BoxNtBJ_6CustomEEECsjOFMLY5rhAS_14thiserror_impl, symObjAddr: 0xD58, symBinAddr: 0x250B8, symSize: 0x48 }
  - { offset: 0x6A942, size: 0x8, addend: 0x0, symName: __RINvNtCsfvfooZQ3Axs_4core3ptr13drop_in_placeINtNtNtCse1nGBsou5OW_5alloc3vec9into_iter8IntoIterRNtCs3cP53eQoTwO_11proc_macro25IdentEECsjOFMLY5rhAS_14thiserror_impl, symObjAddr: 0xDA0, symBinAddr: 0x25100, symSize: 0x24 }
  - { offset: 0x6A971, size: 0x8, addend: 0x0, symName: __RINvNtCsfvfooZQ3Axs_4core3ptr13drop_in_placeINtNtNtNtB4_4iter8adapters3map3MapINtNtBL_9enumerate9EnumerateINtNtCs6IAuOt8vWmF_3syn10punctuated4IterNtNtB1L_4data5FieldEENCNvMs2_NtCsjOFMLY5rhAS_14thiserror_impl3astNtB2N_5Field17multiple_from_syn0EEB2P_, symObjAddr: 0xDC4, symBinAddr: 0x25124, symSize: 0x24 }
  - { offset: 0x6A9A0, size: 0x8, addend: 0x0, symName: __RINvNtCsfvfooZQ3Axs_4core3ptr13drop_in_placeINtNtNtNtB4_4iter8adapters3map3MapINtNtCs6IAuOt8vWmF_3syn10punctuated4IterNtNtB1j_4data7VariantENCNvMs0_NtCsjOFMLY5rhAS_14thiserror_impl3astNtB2m_4Enum8from_syn0EEB2o_, symObjAddr: 0xDE8, symBinAddr: 0x25148, symSize: 0x24 }
  - { offset: 0x6A9CF, size: 0x8, addend: 0x0, symName: __RINvNtCsfvfooZQ3Axs_4core3ptr13drop_in_placeINtNtNtNtB4_4iter8adapters3map3MapINtNtNtCse1nGBsou5OW_5alloc3vec9into_iter8IntoIterRNtCs3cP53eQoTwO_11proc_macro25IdentENCINvMse_NtNtNtB1l_11collections5btree3setINtB2M_8BTreeSetB22_E16from_sorted_iterB1e_E0EECsjOFMLY5rhAS_14thiserror_impl, symObjAddr: 0xE0C, symBinAddr: 0x2516C, symSize: 0x24 }
  - { offset: 0x6A9FE, size: 0x8, addend: 0x0, symName: __RINvNtCsfvfooZQ3Axs_4core3ptr13drop_in_placeINtNtNtNtB4_4iter8adapters3map3MapNtNtCs6IAuOt8vWmF_3syn8generics10TypeParamsNCNvMNtCsjOFMLY5rhAS_14thiserror_impl8genericsNtB20_13ParamsInScope3new0EEB22_, symObjAddr: 0xE30, symBinAddr: 0x25190, symSize: 0x24 }
  - { offset: 0x6AA2D, size: 0x8, addend: 0x0, symName: __RINvNtCsfvfooZQ3Axs_4core3ptr13drop_in_placeINtNtNtNtB4_4iter8adapters8peekable8PeekableINtNtBL_3map3MapINtNtNtCse1nGBsou5OW_5alloc3vec9into_iter8IntoIterRNtCs3cP53eQoTwO_11proc_macro25IdentENCINvMse_NtNtNtB1L_11collections5btree3setINtB3c_8BTreeSetB2s_E16from_sorted_iterB1E_E0EEECsjOFMLY5rhAS_14thiserror_impl, symObjAddr: 0xE54, symBinAddr: 0x251B4, symSize: 0x24 }
  - { offset: 0x6AA5C, size: 0x8, addend: 0x0, symName: __RINvNtCsfvfooZQ3Axs_4core3ptr13drop_in_placeINtNtNtNtB4_4iter8adapters9enumerate9EnumerateINtNtCs6IAuOt8vWmF_3syn10punctuated4IterNtNtB1v_4data5FieldEEECsjOFMLY5rhAS_14thiserror_impl, symObjAddr: 0xE78, symBinAddr: 0x251D8, symSize: 0x24 }
  - { offset: 0x6AA8B, size: 0x8, addend: 0x0, symName: __RINvNtCsfvfooZQ3Axs_4core3ptr13drop_in_placeINtNtNtNtCscOYdFFY2T5N_3std11collections4hash3map7HashMapRNtNtCs6IAuOt8vWmF_3syn4expr6MemberjEECsjOFMLY5rhAS_14thiserror_impl, symObjAddr: 0xE9C, symBinAddr: 0x251FC, symSize: 0x24 }
  - { offset: 0x6AABA, size: 0x8, addend: 0x0, symName: __RINvNtCsfvfooZQ3Axs_4core3ptr13drop_in_placeINtNtNtNtCse1nGBsou5OW_5alloc11collections5btree17dedup_sorted_iter15DedupSortedIterRNtCs3cP53eQoTwO_11proc_macro25IdentNtNtBL_7set_val9SetValZSTINtNtNtNtB4_4iter8adapters3map3MapINtNtNtBP_3vec9into_iter8IntoIterB22_ENCINvMse_NtBL_3setINtB4k_8BTreeSetB22_E16from_sorted_iterB3z_E0EEECsjOFMLY5rhAS_14thiserror_impl, symObjAddr: 0xEC0, symBinAddr: 0x25220, symSize: 0x24 }
  - { offset: 0x6AAE9, size: 0x8, addend: 0x0, symName: __RINvNtCsfvfooZQ3Axs_4core3ptr13drop_in_placeINtNtNtNtCse1nGBsou5OW_5alloc11collections5btree3map8BTreeMapNtCs3cP53eQoTwO_11proc_macro25IdentNtNtBL_7set_val9SetValZSTEECsjOFMLY5rhAS_14thiserror_impl, symObjAddr: 0xEE4, symBinAddr: 0x25244, symSize: 0x24 }
  - { offset: 0x6AB18, size: 0x8, addend: 0x0, symName: __RINvNtCsfvfooZQ3Axs_4core3ptr13drop_in_placeINtNtNtNtCse1nGBsou5OW_5alloc11collections5btree3map8BTreeMapNtNtBP_6string6StringNtNtBL_7set_val9SetValZSTEECsjOFMLY5rhAS_14thiserror_impl, symObjAddr: 0xF08, symBinAddr: 0x25268, symSize: 0x24 }
  - { offset: 0x6AB47, size: 0x8, addend: 0x0, symName: __RINvNtCsfvfooZQ3Axs_4core3ptr13drop_in_placeINtNtNtNtCse1nGBsou5OW_5alloc11collections5btree3map8BTreeMapNtNtBP_6string6StringTINtNtBL_3set8BTreeSetB1F_EINtNtCs6IAuOt8vWmF_3syn10punctuated10PunctuatedNtCs3cP53eQoTwO_11proc_macro211TokenStreamNtNtB2w_5token4PlusEEEECsjOFMLY5rhAS_14thiserror_impl, symObjAddr: 0xF2C, symBinAddr: 0x2528C, symSize: 0x24 }
  - { offset: 0x6AB76, size: 0x8, addend: 0x0, symName: __RINvNtCsfvfooZQ3Axs_4core3ptr13drop_in_placeINtNtNtNtCse1nGBsou5OW_5alloc11collections5btree3map8BTreeMapRNtCs3cP53eQoTwO_11proc_macro25IdentNtNtBL_7set_val9SetValZSTEECsjOFMLY5rhAS_14thiserror_impl, symObjAddr: 0xF50, symBinAddr: 0x252B0, symSize: 0x24 }
  - { offset: 0x6ABA5, size: 0x8, addend: 0x0, symName: __RINvNtCsfvfooZQ3Axs_4core3ptr13drop_in_placeINtNtNtNtCse1nGBsou5OW_5alloc11collections5btree3map8BTreeMapTjNtNtCsjOFMLY5rhAS_14thiserror_impl4attr5TraitENtNtBL_7set_val9SetValZSTEEB1L_, symObjAddr: 0xF74, symBinAddr: 0x252D4, symSize: 0x24 }
  - { offset: 0x6ABD4, size: 0x8, addend: 0x0, symName: __RINvNtCsfvfooZQ3Axs_4core3ptr13drop_in_placeINtNtNtNtCse1nGBsou5OW_5alloc11collections5btree3map8IntoIterNtCs3cP53eQoTwO_11proc_macro25IdentNtNtBL_7set_val9SetValZSTEECsjOFMLY5rhAS_14thiserror_impl, symObjAddr: 0xF98, symBinAddr: 0x252F8, symSize: 0x24 }
  - { offset: 0x6AC03, size: 0x8, addend: 0x0, symName: __RINvNtCsfvfooZQ3Axs_4core3ptr13drop_in_placeINtNtNtNtCse1nGBsou5OW_5alloc11collections5btree3map8IntoIterNtNtBP_6string6StringNtNtBL_7set_val9SetValZSTEECsjOFMLY5rhAS_14thiserror_impl, symObjAddr: 0xFBC, symBinAddr: 0x2531C, symSize: 0x24 }
  - { offset: 0x6AC32, size: 0x8, addend: 0x0, symName: __RINvNtCsfvfooZQ3Axs_4core3ptr13drop_in_placeINtNtNtNtCse1nGBsou5OW_5alloc11collections5btree3map8IntoIterNtNtBP_6string6StringTINtNtBL_3set8BTreeSetB1F_EINtNtCs6IAuOt8vWmF_3syn10punctuated10PunctuatedNtCs3cP53eQoTwO_11proc_macro211TokenStreamNtNtB2w_5token4PlusEEEECsjOFMLY5rhAS_14thiserror_impl, symObjAddr: 0xFE0, symBinAddr: 0x25340, symSize: 0x24 }
  - { offset: 0x6AC61, size: 0x8, addend: 0x0, symName: __RINvNtCsfvfooZQ3Axs_4core3ptr13drop_in_placeINtNtNtNtCse1nGBsou5OW_5alloc11collections5btree3map8IntoIterRNtCs3cP53eQoTwO_11proc_macro25IdentNtNtBL_7set_val9SetValZSTEECsjOFMLY5rhAS_14thiserror_impl, symObjAddr: 0x1004, symBinAddr: 0x25364, symSize: 0x24 }
  - { offset: 0x6AC90, size: 0x8, addend: 0x0, symName: __RINvNtCsfvfooZQ3Axs_4core3ptr13drop_in_placeINtNtNtNtCse1nGBsou5OW_5alloc11collections5btree3map8IntoIterTjNtNtCsjOFMLY5rhAS_14thiserror_impl4attr5TraitENtNtBL_7set_val9SetValZSTEEB1L_, symObjAddr: 0x1028, symBinAddr: 0x25388, symSize: 0x24 }
  - { offset: 0x6ACBF, size: 0x8, addend: 0x0, symName: __RINvNtCsfvfooZQ3Axs_4core3ptr13drop_in_placeINtNtNtNtCse1nGBsou5OW_5alloc11collections5btree3set8BTreeSetNtCs3cP53eQoTwO_11proc_macro25IdentEECsjOFMLY5rhAS_14thiserror_impl, symObjAddr: 0x104C, symBinAddr: 0x253AC, symSize: 0x24 }
  - { offset: 0x6ACEE, size: 0x8, addend: 0x0, symName: __RINvNtCsfvfooZQ3Axs_4core3ptr13drop_in_placeINtNtNtNtCse1nGBsou5OW_5alloc11collections5btree3set8BTreeSetNtNtBP_6string6StringEECsjOFMLY5rhAS_14thiserror_impl, symObjAddr: 0x1070, symBinAddr: 0x253D0, symSize: 0x24 }
  - { offset: 0x6AD1D, size: 0x8, addend: 0x0, symName: __RINvNtCsfvfooZQ3Axs_4core3ptr13drop_in_placeINtNtNtNtCse1nGBsou5OW_5alloc11collections5btree3set8BTreeSetRNtCs3cP53eQoTwO_11proc_macro25IdentEECsjOFMLY5rhAS_14thiserror_impl, symObjAddr: 0x1094, symBinAddr: 0x253F4, symSize: 0x24 }
  - { offset: 0x6AD4C, size: 0x8, addend: 0x0, symName: __RINvNtCsfvfooZQ3Axs_4core3ptr13drop_in_placeINtNtNtNtCse1nGBsou5OW_5alloc11collections5btree3set8BTreeSetTjNtNtCsjOFMLY5rhAS_14thiserror_impl4attr5TraitEEEB1L_, symObjAddr: 0x10B8, symBinAddr: 0x25418, symSize: 0x24 }
  - { offset: 0x6AD7B, size: 0x8, addend: 0x0, symName: __RINvNtCsfvfooZQ3Axs_4core3ptr13drop_in_placeINtNtNtNtCse1nGBsou5OW_5alloc11collections5btree3set8IntoIterTjNtNtCsjOFMLY5rhAS_14thiserror_impl4attr5TraitEEEB1L_, symObjAddr: 0x10DC, symBinAddr: 0x2543C, symSize: 0x24 }
  - { offset: 0x6ADAA, size: 0x8, addend: 0x0, symName: __RINvNtCsfvfooZQ3Axs_4core3ptr13drop_in_placeINtNtNtNtCse1nGBsou5OW_5alloc11collections5btree4node11SplitResultNtCs3cP53eQoTwO_11proc_macro25IdentNtNtBL_7set_val9SetValZSTNtNtBJ_6marker4LeafEECsjOFMLY5rhAS_14thiserror_impl, symObjAddr: 0x1100, symBinAddr: 0x25460, symSize: 0x24 }
  - { offset: 0x6ADD9, size: 0x8, addend: 0x0, symName: __RINvNtCsfvfooZQ3Axs_4core3ptr13drop_in_placeINtNtNtNtCse1nGBsou5OW_5alloc11collections5btree4node11SplitResultNtCs3cP53eQoTwO_11proc_macro25IdentNtNtBL_7set_val9SetValZSTNtNtBJ_6marker8InternalEECsjOFMLY5rhAS_14thiserror_impl, symObjAddr: 0x1124, symBinAddr: 0x25484, symSize: 0x24 }
  - { offset: 0x6AE08, size: 0x8, addend: 0x0, symName: __RINvNtCsfvfooZQ3Axs_4core3ptr13drop_in_placeINtNtNtNtCse1nGBsou5OW_5alloc11collections5btree4node11SplitResultNtNtBP_6string6StringNtNtBL_7set_val9SetValZSTNtNtBJ_6marker4LeafEECsjOFMLY5rhAS_14thiserror_impl, symObjAddr: 0x1148, symBinAddr: 0x254A8, symSize: 0x24 }
  - { offset: 0x6AE37, size: 0x8, addend: 0x0, symName: __RINvNtCsfvfooZQ3Axs_4core3ptr13drop_in_placeINtNtNtNtCse1nGBsou5OW_5alloc11collections5btree4node11SplitResultNtNtBP_6string6StringNtNtBL_7set_val9SetValZSTNtNtBJ_6marker8InternalEECsjOFMLY5rhAS_14thiserror_impl, symObjAddr: 0x116C, symBinAddr: 0x254CC, symSize: 0x24 }
  - { offset: 0x6AE66, size: 0x8, addend: 0x0, symName: __RINvNtCsfvfooZQ3Axs_4core3ptr13drop_in_placeINtNtNtNtCse1nGBsou5OW_5alloc11collections5btree4node11SplitResultNtNtBP_6string6StringTINtNtBL_3set8BTreeSetB1K_EINtNtCs6IAuOt8vWmF_3syn10punctuated10PunctuatedNtCs3cP53eQoTwO_11proc_macro211TokenStreamNtNtB2B_5token4PlusEENtNtBJ_6marker4LeafEECsjOFMLY5rhAS_14thiserror_impl, symObjAddr: 0x1190, symBinAddr: 0x254F0, symSize: 0x24 }
  - { offset: 0x6AE95, size: 0x8, addend: 0x0, symName: __RINvNtCsfvfooZQ3Axs_4core3ptr13drop_in_placeINtNtNtNtCse1nGBsou5OW_5alloc11collections5btree4node11SplitResultNtNtBP_6string6StringTINtNtBL_3set8BTreeSetB1K_EINtNtCs6IAuOt8vWmF_3syn10punctuated10PunctuatedNtCs3cP53eQoTwO_11proc_macro211TokenStreamNtNtB2B_5token4PlusEENtNtBJ_6marker8InternalEECsjOFMLY5rhAS_14thiserror_impl, symObjAddr: 0x11B4, symBinAddr: 0x25514, symSize: 0x24 }
  - { offset: 0x6AEC4, size: 0x8, addend: 0x0, symName: __RINvNtCsfvfooZQ3Axs_4core3ptr13drop_in_placeINtNtNtNtNtB4_5slice4sort6shared9smallsort10CopyOnDropRNtCs3cP53eQoTwO_11proc_macro25IdentEECsjOFMLY5rhAS_14thiserror_impl, symObjAddr: 0x11D8, symBinAddr: 0x25538, symSize: 0x24 }
  - { offset: 0x6AEF3, size: 0x8, addend: 0x0, symName: __RINvNtCsfvfooZQ3Axs_4core3ptr13drop_in_placeINtNtNtNtNtB4_5slice4sort6stable5merge10MergeStateRNtCs3cP53eQoTwO_11proc_macro25IdentEECsjOFMLY5rhAS_14thiserror_impl, symObjAddr: 0x11FC, symBinAddr: 0x2555C, symSize: 0x24 }
  - { offset: 0x6AF22, size: 0x8, addend: 0x0, symName: __RINvNtCsfvfooZQ3Axs_4core3ptr13drop_in_placeINtNtNtNtNtCse1nGBsou5OW_5alloc11collections5btree3map5entry11VacantEntryNtNtBR_6string6StringTINtNtBN_3set8BTreeSetB1R_EINtNtCs6IAuOt8vWmF_3syn10punctuated10PunctuatedNtCs3cP53eQoTwO_11proc_macro211TokenStreamNtNtB2I_5token4PlusEEEECsjOFMLY5rhAS_14thiserror_impl, symObjAddr: 0x1220, symBinAddr: 0x25580, symSize: 0x24 }
  - { offset: 0x6AF51, size: 0x8, addend: 0x0, symName: __RINvNtCsfvfooZQ3Axs_4core3ptr13drop_in_placeINtNtNtNtNtCse1nGBsou5OW_5alloc11collections5btree3map5entry5EntryNtNtBR_6string6StringTINtNtBN_3set8BTreeSetB1K_EINtNtCs6IAuOt8vWmF_3syn10punctuated10PunctuatedNtCs3cP53eQoTwO_11proc_macro211TokenStreamNtNtB2B_5token4PlusEEEECsjOFMLY5rhAS_14thiserror_impl, symObjAddr: 0x1244, symBinAddr: 0x255A4, symSize: 0x4C }
  - { offset: 0x6AF80, size: 0x8, addend: 0x0, symName: __RINvNtCsfvfooZQ3Axs_4core3ptr13drop_in_placeINtNvMsT_NtNtNtCse1nGBsou5OW_5alloc11collections5btree4nodeINtBP_6HandleINtBP_7NodeRefNtNtBP_6marker5DyingpppENtB26_2KVE12drop_key_val7DropperNtNtBR_7set_val9SetValZSTEECsjOFMLY5rhAS_14thiserror_impl, symObjAddr: 0x1290, symBinAddr: 0x255F0, symSize: 0x24 }
  - { offset: 0x6AFAF, size: 0x8, addend: 0x0, symName: __RINvNtCsfvfooZQ3Axs_4core3ptr13drop_in_placeINtNvMsT_NtNtNtCse1nGBsou5OW_5alloc11collections5btree4nodeINtBP_6HandleINtBP_7NodeRefNtNtBP_6marker5DyingpppENtB26_2KVE12drop_key_val7DropperTINtNtBR_3set8BTreeSetNtNtBV_6string6StringEINtNtCs6IAuOt8vWmF_3syn10punctuated10PunctuatedNtCs3cP53eQoTwO_11proc_macro211TokenStreamNtNtB3L_5token4PlusEEEECsjOFMLY5rhAS_14thiserror_impl, symObjAddr: 0x12B4, symBinAddr: 0x25614, symSize: 0x24 }
  - { offset: 0x6AFDE, size: 0x8, addend: 0x0, symName: __RINvNtCsfvfooZQ3Axs_4core3ptr13drop_in_placeINtNvXsd_NtNtCse1nGBsou5OW_5alloc3vec9into_iterINtBP_8IntoIterppENtNtNtB4_3ops4drop4Drop4drop9DropGuardRNtCs3cP53eQoTwO_11proc_macro25IdentNtNtBT_5alloc6GlobalEECsjOFMLY5rhAS_14thiserror_impl, symObjAddr: 0x12D8, symBinAddr: 0x25638, symSize: 0x24 }
  - { offset: 0x6B00D, size: 0x8, addend: 0x0, symName: __RINvNtCsfvfooZQ3Axs_4core3ptr13drop_in_placeINtNvXsw_NtNtNtCse1nGBsou5OW_5alloc11collections5btree3mapINtBP_8IntoIterpppENtNtNtB4_3ops4drop4Drop4drop9DropGuardNtCs3cP53eQoTwO_11proc_macro25IdentNtNtBR_7set_val9SetValZSTNtNtBV_5alloc6GlobalEECsjOFMLY5rhAS_14thiserror_impl, symObjAddr: 0x12FC, symBinAddr: 0x2565C, symSize: 0x24 }
  - { offset: 0x6B03C, size: 0x8, addend: 0x0, symName: __RINvNtCsfvfooZQ3Axs_4core3ptr13drop_in_placeINtNvXsw_NtNtNtCse1nGBsou5OW_5alloc11collections5btree3mapINtBP_8IntoIterpppENtNtNtB4_3ops4drop4Drop4drop9DropGuardNtNtBV_6string6StringNtNtBR_7set_val9SetValZSTNtNtBV_5alloc6GlobalEECsjOFMLY5rhAS_14thiserror_impl, symObjAddr: 0x1320, symBinAddr: 0x25680, symSize: 0x24 }
  - { offset: 0x6B06B, size: 0x8, addend: 0x0, symName: __RINvNtCsfvfooZQ3Axs_4core3ptr13drop_in_placeINtNvXsw_NtNtNtCse1nGBsou5OW_5alloc11collections5btree3mapINtBP_8IntoIterpppENtNtNtB4_3ops4drop4Drop4drop9DropGuardNtNtBV_6string6StringTINtNtBR_3set8BTreeSetB2x_EINtNtCs6IAuOt8vWmF_3syn10punctuated10PunctuatedNtCs3cP53eQoTwO_11proc_macro211TokenStreamNtNtB3o_5token4PlusEENtNtBV_5alloc6GlobalEECsjOFMLY5rhAS_14thiserror_impl, symObjAddr: 0x1344, symBinAddr: 0x256A4, symSize: 0x24 }
  - { offset: 0x6B09A, size: 0x8, addend: 0x0, symName: __RINvNtCsfvfooZQ3Axs_4core3ptr13drop_in_placeINtNvXsw_NtNtNtCse1nGBsou5OW_5alloc11collections5btree3mapINtBP_8IntoIterpppENtNtNtB4_3ops4drop4Drop4drop9DropGuardRNtCs3cP53eQoTwO_11proc_macro25IdentNtNtBR_7set_val9SetValZSTNtNtBV_5alloc6GlobalEECsjOFMLY5rhAS_14thiserror_impl, symObjAddr: 0x1368, symBinAddr: 0x256C8, symSize: 0x24 }
  - { offset: 0x6B0C9, size: 0x8, addend: 0x0, symName: __RINvNtCsfvfooZQ3Axs_4core3ptr13drop_in_placeINtNvXsw_NtNtNtCse1nGBsou5OW_5alloc11collections5btree3mapINtBP_8IntoIterpppENtNtNtB4_3ops4drop4Drop4drop9DropGuardTjNtNtCsjOFMLY5rhAS_14thiserror_impl4attr5TraitENtNtBR_7set_val9SetValZSTNtNtBV_5alloc6GlobalEEB2D_, symObjAddr: 0x138C, symBinAddr: 0x256EC, symSize: 0x24 }
  - { offset: 0x6B0F8, size: 0x8, addend: 0x0, symName: __RINvNtCsfvfooZQ3Axs_4core3ptr13drop_in_placeNCINvMsi_NtCse1nGBsou5OW_5alloc3vecINtBP_3VecNtCs3cP53eQoTwO_11proc_macro211TokenStreamE14extend_trustedINtNtNtNtB4_4iter8adapters3map3MapINtNtNtB4_5slice4iter4IterNtNtCsjOFMLY5rhAS_14thiserror_impl3ast7VariantENCNvNtB3o_6expand9impl_enums1_0EE0EB3o_, symObjAddr: 0x13E0, symBinAddr: 0x25710, symSize: 0x24 }
  - { offset: 0x6B127, size: 0x8, addend: 0x0, symName: __RINvNtCsfvfooZQ3Axs_4core3ptr13drop_in_placeNCINvNtNtNtB4_4iter8adapters3map8map_foldRNtNtCsjOFMLY5rhAS_14thiserror_impl3ast7VariantNtCs3cP53eQoTwO_11proc_macro211TokenStreamuNCNvNtB1q_6expand9impl_enums1_0NCINvNvNtNtNtBP_6traits8iterator8Iterator8for_each4callB26_NCINvMsi_NtCse1nGBsou5OW_5alloc3vecINtB4o_3VecB26_E14extend_trustedINtBL_3MapINtNtNtB4_5slice4iter4IterB1m_EB2N_EE0E0E0EB1q_, symObjAddr: 0x1404, symBinAddr: 0x25734, symSize: 0x24 }
  - { offset: 0x6B156, size: 0x8, addend: 0x0, symName: __RINvNtCsfvfooZQ3Axs_4core3ptr13drop_in_placeNCINvNvNtNtNtNtB4_4iter6traits8iterator8Iterator8for_each4callNtCs3cP53eQoTwO_11proc_macro211TokenStreamNCINvMsi_NtCse1nGBsou5OW_5alloc3vecINtB2v_3VecB1G_E14extend_trustedINtNtNtBT_8adapters3map3MapINtNtNtB4_5slice4iter4IterNtNtCsjOFMLY5rhAS_14thiserror_impl3ast7VariantENCNvNtB4m_6expand9impl_enums1_0EE0E0EB4m_, symObjAddr: 0x1428, symBinAddr: 0x25758, symSize: 0x24 }
  - { offset: 0x6B185, size: 0x8, addend: 0x0, symName: __RINvNtCsfvfooZQ3Axs_4core3ptr13drop_in_placeNCNCINvNtNtCs9i5KxIbZ5ph_10proc_macro6bridge6client10run_clientNtBN_11TokenStreamINtNtB4_6option6OptionB1H_ENCNCINvMs7_BN_INtBN_6ClientNtBR_11TokenStreamB2R_E7expand1NvCsjOFMLY5rhAS_14thiserror_impl12derive_errorE00E00EB3o_, symObjAddr: 0x144C, symBinAddr: 0x2577C, symSize: 0x24 }
  - { offset: 0x6B1B4, size: 0x8, addend: 0x0, symName: __RINvNtCsfvfooZQ3Axs_4core3ptr13drop_in_placeNCNvNtCsjOFMLY5rhAS_14thiserror_impl6expand11impl_structs0_0EBM_, symObjAddr: 0x1470, symBinAddr: 0x257A0, symSize: 0x24 }
  - { offset: 0x6B1E3, size: 0x8, addend: 0x0, symName: __RINvNtCsfvfooZQ3Axs_4core3ptr13drop_in_placeNtNtCs6IAuOt8vWmF_3syn6derive11DeriveInputECsjOFMLY5rhAS_14thiserror_impl, symObjAddr: 0x1494, symBinAddr: 0x257C4, symSize: 0xEC }
  - { offset: 0x6B212, size: 0x8, addend: 0x0, symName: __RINvNtCsfvfooZQ3Axs_4core3ptr13drop_in_placeNtNtCs6IAuOt8vWmF_3syn8generics10TypeParamsECsjOFMLY5rhAS_14thiserror_impl, symObjAddr: 0x1580, symBinAddr: 0x258B0, symSize: 0x24 }
  - { offset: 0x6B241, size: 0x8, addend: 0x0, symName: __RINvNtCsfvfooZQ3Axs_4core3ptr13drop_in_placeNtNtCsjOFMLY5rhAS_14thiserror_impl3ast4EnumEBK_, symObjAddr: 0x15A4, symBinAddr: 0x258D4, symSize: 0x8C }
  - { offset: 0x6B270, size: 0x8, addend: 0x0, symName: __RINvNtCsfvfooZQ3Axs_4core3ptr13drop_in_placeNtNtCsjOFMLY5rhAS_14thiserror_impl3ast5FieldEBK_, symObjAddr: 0x1630, symBinAddr: 0x25960, symSize: 0x60 }
  - { offset: 0x6B29F, size: 0x8, addend: 0x0, symName: __RINvNtCsfvfooZQ3Axs_4core3ptr13drop_in_placeNtNtCsjOFMLY5rhAS_14thiserror_impl3ast5InputEBK_, symObjAddr: 0x1690, symBinAddr: 0x259C0, symSize: 0x50 }
  - { offset: 0x6B2CE, size: 0x8, addend: 0x0, symName: __RINvNtCsfvfooZQ3Axs_4core3ptr13drop_in_placeNtNtCsjOFMLY5rhAS_14thiserror_impl3ast6StructEBK_, symObjAddr: 0x16E0, symBinAddr: 0x25A10, symSize: 0x8C }
  - { offset: 0x6B2FD, size: 0x8, addend: 0x0, symName: __RINvNtCsfvfooZQ3Axs_4core3ptr13drop_in_placeNtNtCsjOFMLY5rhAS_14thiserror_impl3ast7VariantEBK_, symObjAddr: 0x176C, symBinAddr: 0x25A9C, symSize: 0x8C }
  - { offset: 0x6B32C, size: 0x8, addend: 0x0, symName: __RINvNtCsfvfooZQ3Axs_4core3ptr13drop_in_placeNtNtCsjOFMLY5rhAS_14thiserror_impl3fmt12FmtArgumentsEBK_, symObjAddr: 0x17F8, symBinAddr: 0x25B28, symSize: 0x24 }
  - { offset: 0x6B35B, size: 0x8, addend: 0x0, symName: __RINvNtCsfvfooZQ3Axs_4core3ptr13drop_in_placeNtNtCsjOFMLY5rhAS_14thiserror_impl4attr5AttrsEBK_, symObjAddr: 0x181C, symBinAddr: 0x25B4C, symSize: 0x24 }
  - { offset: 0x6B38A, size: 0x8, addend: 0x0, symName: __RINvNtCsfvfooZQ3Axs_4core3ptr13drop_in_placeNtNtCsjOFMLY5rhAS_14thiserror_impl4attr7DisplayEBK_, symObjAddr: 0x1840, symBinAddr: 0x25B70, symSize: 0x8C }
  - { offset: 0x6B3B9, size: 0x8, addend: 0x0, symName: __RINvNtCsfvfooZQ3Axs_4core3ptr13drop_in_placeNtNtCsjOFMLY5rhAS_14thiserror_impl8generics13ParamsInScopeEBK_, symObjAddr: 0x18CC, symBinAddr: 0x25BFC, symSize: 0x24 }
  - { offset: 0x6B3E8, size: 0x8, addend: 0x0, symName: __RINvNtCsfvfooZQ3Axs_4core3ptr13drop_in_placeNtNtCsjOFMLY5rhAS_14thiserror_impl8generics14InferredBoundsEBK_, symObjAddr: 0x18F0, symBinAddr: 0x25C20, symSize: 0x5C }
  - { offset: 0x6B417, size: 0x8, addend: 0x0, symName: __RINvNtCsfvfooZQ3Axs_4core3ptr13drop_in_placeNtNtNtCs9i5KxIbZ5ph_10proc_macro6bridge3rpc12PanicMessageECsjOFMLY5rhAS_14thiserror_impl, symObjAddr: 0x194C, symBinAddr: 0x25C7C, symSize: 0x50 }
  - { offset: 0x6B446, size: 0x8, addend: 0x0, symName: __RINvNtCsfvfooZQ3Axs_4core3ptr13drop_in_placeNtNtNtCs9i5KxIbZ5ph_10proc_macro6bridge6buffer6BufferECsjOFMLY5rhAS_14thiserror_impl, symObjAddr: 0x199C, symBinAddr: 0x25CCC, symSize: 0x24 }
  - { offset: 0x6B475, size: 0x8, addend: 0x0, symName: __RINvNtCsfvfooZQ3Axs_4core3ptr13drop_in_placeNtNtNtCs9i5KxIbZ5ph_10proc_macro6bridge6client6BridgeECsjOFMLY5rhAS_14thiserror_impl, symObjAddr: 0x19C0, symBinAddr: 0x25CF0, symSize: 0x24 }
  - { offset: 0x6B4A4, size: 0x8, addend: 0x0, symName: __RINvNtCsfvfooZQ3Axs_4core3ptr13drop_in_placeNtNtNtCscOYdFFY2T5N_3std2io5error5ErrorECsjOFMLY5rhAS_14thiserror_impl, symObjAddr: 0x19E4, symBinAddr: 0x25D14, symSize: 0x24 }
  - { offset: 0x6B4D3, size: 0x8, addend: 0x0, symName: __RINvNtCsfvfooZQ3Axs_4core3ptr13drop_in_placeNtNtNtCscOYdFFY2T5N_3std2io5error6CustomECsjOFMLY5rhAS_14thiserror_impl, symObjAddr: 0x1A08, symBinAddr: 0x25D38, symSize: 0x24 }
  - { offset: 0x6B502, size: 0x8, addend: 0x0, symName: __RINvNtCsfvfooZQ3Axs_4core3ptr13drop_in_placeNtNtNtNtCscOYdFFY2T5N_3std2io5error14repr_bitpacked4ReprECsjOFMLY5rhAS_14thiserror_impl, symObjAddr: 0x1A2C, symBinAddr: 0x25D5C, symSize: 0x24 }
  - { offset: 0x6B531, size: 0x8, addend: 0x0, symName: __RINvNtCsfvfooZQ3Axs_4core3ptr13drop_in_placeNtNvNtNtNtCs9i5KxIbZ5ph_10proc_macro6bridge6client5state3set13RestoreOnDropECsjOFMLY5rhAS_14thiserror_impl, symObjAddr: 0x1A50, symBinAddr: 0x25D80, symSize: 0x24 }
  - { offset: 0x6B560, size: 0x8, addend: 0x0, symName: __RINvNtCsfvfooZQ3Axs_4core3ptr13drop_in_placeNtNvNtNtNtCse1nGBsou5OW_5alloc11collections5btree3mem7replace10PanicGuardECsjOFMLY5rhAS_14thiserror_impl, symObjAddr: 0x1A74, symBinAddr: 0x25DA4, symSize: 0x24 }
  - { offset: 0x6B58F, size: 0x8, addend: 0x0, symName: __RINvNtCsfvfooZQ3Axs_4core3ptr13drop_in_placeSNtCs3cP53eQoTwO_11proc_macro211TokenStreamECsjOFMLY5rhAS_14thiserror_impl, symObjAddr: 0x1A98, symBinAddr: 0x25DC8, symSize: 0xB4 }
  - { offset: 0x6B5BE, size: 0x8, addend: 0x0, symName: __RINvNtCsfvfooZQ3Axs_4core3ptr13drop_in_placeSNtNtCsjOFMLY5rhAS_14thiserror_impl3ast5FieldEBL_, symObjAddr: 0x1B4C, symBinAddr: 0x25E7C, symSize: 0xC4 }
  - { offset: 0x6B5ED, size: 0x8, addend: 0x0, symName: __RINvNtCsfvfooZQ3Axs_4core3ptr13drop_in_placeSNtNtCsjOFMLY5rhAS_14thiserror_impl3ast7VariantEBL_, symObjAddr: 0x1C10, symBinAddr: 0x25F40, symSize: 0xC4 }
  - { offset: 0x6B61C, size: 0x8, addend: 0x0, symName: __RINvNtCsfvfooZQ3Axs_4core3ptr13drop_in_placeSTNtCs3cP53eQoTwO_11proc_macro211TokenStreamNtNtCs6IAuOt8vWmF_3syn5token4PlusEECsjOFMLY5rhAS_14thiserror_impl, symObjAddr: 0x1CD4, symBinAddr: 0x26004, symSize: 0xC4 }
  - { offset: 0x6B64B, size: 0x8, addend: 0x0, symName: __RINvNtCsfvfooZQ3Axs_4core3ptr13drop_in_placeTINtNtB4_6option6OptionINtNtB4_6result6ResultNtNtCs6IAuOt8vWmF_3syn4expr5IndexNtNtB1t_5error5ErrorEEBH_BH_EECsjOFMLY5rhAS_14thiserror_impl, symObjAddr: 0x1D98, symBinAddr: 0x260C8, symSize: 0x90 }
  - { offset: 0x6B67A, size: 0x8, addend: 0x0, symName: __RINvNtCsfvfooZQ3Axs_4core3ptr13drop_in_placeTINtNtNtNtCse1nGBsou5OW_5alloc11collections5btree3set8BTreeSetNtNtBQ_6string6StringEINtNtCs6IAuOt8vWmF_3syn10punctuated10PunctuatedNtCs3cP53eQoTwO_11proc_macro211TokenStreamNtNtB27_5token4PlusEEECsjOFMLY5rhAS_14thiserror_impl, symObjAddr: 0x1E28, symBinAddr: 0x26158, symSize: 0x60 }
  - { offset: 0x6B6A9, size: 0x8, addend: 0x0, symName: __RINvNtCsfvfooZQ3Axs_4core3ptr13drop_in_placeTNtCs3cP53eQoTwO_11proc_macro211TokenStreamNtNtCs6IAuOt8vWmF_3syn5token4PlusEECsjOFMLY5rhAS_14thiserror_impl, symObjAddr: 0x1E88, symBinAddr: 0x261B8, symSize: 0x24 }
  - { offset: 0x6B6D8, size: 0x8, addend: 0x0, symName: __RINvNtCsfvfooZQ3Axs_4core3ptr13drop_in_placeTNtCs3cP53eQoTwO_11proc_macro25IdentNtNtNtNtCse1nGBsou5OW_5alloc11collections5btree7set_val9SetValZSTEECsjOFMLY5rhAS_14thiserror_impl, symObjAddr: 0x1EAC, symBinAddr: 0x261DC, symSize: 0x24 }
  - { offset: 0x6B707, size: 0x8, addend: 0x0, symName: __RINvNtCsfvfooZQ3Axs_4core3ptr13drop_in_placeTNtNtCse1nGBsou5OW_5alloc6string6StringNtNtNtNtBL_11collections5btree7set_val9SetValZSTEECsjOFMLY5rhAS_14thiserror_impl, symObjAddr: 0x1ED0, symBinAddr: 0x26200, symSize: 0x24 }
  - { offset: 0x6B736, size: 0x8, addend: 0x0, symName: __RINvNtCsfvfooZQ3Axs_4core3ptr13drop_in_placeTNtNtCse1nGBsou5OW_5alloc6string6StringTINtNtNtNtBL_11collections5btree3set8BTreeSetBH_EINtNtCs6IAuOt8vWmF_3syn10punctuated10PunctuatedNtCs3cP53eQoTwO_11proc_macro211TokenStreamNtNtB2b_5token4PlusEEEECsjOFMLY5rhAS_14thiserror_impl, symObjAddr: 0x1EF4, symBinAddr: 0x26224, symSize: 0x60 }
  - { offset: 0x6F2D8, size: 0x8, addend: 0x0, symName: __RINvNtNtNtCsfvfooZQ3Axs_4core5slice4sort6stable14driftsort_mainRNtCs3cP53eQoTwO_11proc_macro25IdentNvYBZ_NtNtB8_3cmp10PartialOrd2ltINtNtCse1nGBsou5OW_5alloc3vec3VecBZ_EECsjOFMLY5rhAS_14thiserror_impl, symObjAddr: 0x1F54, symBinAddr: 0x26284, symSize: 0x2AC }
  - { offset: 0x6F52D, size: 0x8, addend: 0x0, symName: __RINvNtNtNtNtCsfvfooZQ3Axs_4core5slice4sort6stable9quicksort16stable_partitionRNtCs3cP53eQoTwO_11proc_macro25IdentNCINvB2_9quicksortB1d_NvYB1d_NtNtBa_3cmp10PartialOrd2ltE0ECsjOFMLY5rhAS_14thiserror_impl, symObjAddr: 0x2200, symBinAddr: 0x26530, symSize: 0x474 }
  - { offset: 0x6F995, size: 0x8, addend: 0x0, symName: __RINvNtNtNtNtCsfvfooZQ3Axs_4core5slice4sort6stable9quicksort16stable_partitionRNtCs3cP53eQoTwO_11proc_macro25IdentNvYB1d_NtNtBa_3cmp10PartialOrd2ltECsjOFMLY5rhAS_14thiserror_impl, symObjAddr: 0x2674, symBinAddr: 0x269A4, symSize: 0x474 }
  - { offset: 0x6FDFD, size: 0x8, addend: 0x0, symName: __RINvNtNtNtNtCsfvfooZQ3Axs_4core5slice4sort6stable9quicksort9quicksortRNtCs3cP53eQoTwO_11proc_macro25IdentNvYB15_NtNtBa_3cmp10PartialOrd2ltECsjOFMLY5rhAS_14thiserror_impl, symObjAddr: 0x2AE8, symBinAddr: 0x26E18, symSize: 0x3A4 }
  - { offset: 0x70095, size: 0x8, addend: 0x0, symName: __RNCINvNtNtNtNtCsfvfooZQ3Axs_4core5slice4sort6stable9quicksort9quicksortRNtCs3cP53eQoTwO_11proc_macro25IdentNvYB17_NtNtBc_3cmp10PartialOrd2ltE0CsjOFMLY5rhAS_14thiserror_impl, symObjAddr: 0x2F14, symBinAddr: 0x27244, symSize: 0x48 }
  - { offset: 0x70452, size: 0x8, addend: 0x0, symName: __RNvNvNtNtCsfvfooZQ3Axs_4core5slice3raw14from_raw_parts18precondition_checkCsjOFMLY5rhAS_14thiserror_impl, symObjAddr: 0x375C, symBinAddr: 0x27A8C, symSize: 0x168 }
  - { offset: 0x70598, size: 0x8, addend: 0x0, symName: __RNvNvNtNtCsfvfooZQ3Axs_4core5slice3raw18from_raw_parts_mut18precondition_checkCsjOFMLY5rhAS_14thiserror_impl, symObjAddr: 0x38C4, symBinAddr: 0x27BF4, symSize: 0x168 }
  - { offset: 0x713BF, size: 0x8, addend: 0x0, symName: __RNSNvYNCINvMs6_NtCsloNvcHxBCre_9hashbrown3rawINtBd_8RawTableTRNtNtCs6IAuOt8vWmF_3syn4expr6MemberjEE14reserve_rehashNCINvNtBf_3map11make_hasherBX_jNtNtNtCscOYdFFY2T5N_3std4hash6random11RandomStateE0E0INtNtNtCsfvfooZQ3Axs_4core3ops8function6FnOnceTQNtBd_13RawTableInnerjEE9call_once6vtableCsjOFMLY5rhAS_14thiserror_impl, symObjAddr: 0x2F5C, symBinAddr: 0x2728C, symSize: 0x38 }
  - { offset: 0x71403, size: 0x8, addend: 0x0, symName: __RNSNvYNCINvMs6_NtCsloNvcHxBCre_9hashbrown3rawINtBd_8RawTableTRNtNtCs6IAuOt8vWmF_3syn4expr6MemberjEE24find_or_find_insert_slotNCINvNtBf_3map14equivalent_keyBX_BX_jE0NCINvB24_11make_hasherBX_jNtNtNtCscOYdFFY2T5N_3std4hash6random11RandomStateE0E0INtNtNtCsfvfooZQ3Axs_4core3ops8function6FnOnceTjEE9call_once6vtableCsjOFMLY5rhAS_14thiserror_impl, symObjAddr: 0x2F94, symBinAddr: 0x272C4, symSize: 0x38 }
  - { offset: 0x71447, size: 0x8, addend: 0x0, symName: __RNSNvYNCINvMs6_NtCsloNvcHxBCre_9hashbrown3rawINtBd_8RawTableTRNtNtCs6IAuOt8vWmF_3syn4expr6MemberjEE4findNCINvNtBf_3map14equivalent_keyBY_BX_jE0E0INtNtNtCsfvfooZQ3Axs_4core3ops8function6FnOnceTjEE9call_once6vtableCsjOFMLY5rhAS_14thiserror_impl, symObjAddr: 0x2FCC, symBinAddr: 0x272FC, symSize: 0x38 }
  - { offset: 0x7148B, size: 0x8, addend: 0x0, symName: __RNvYNCINvMs6_NtCsloNvcHxBCre_9hashbrown3rawINtBb_8RawTableTRNtNtCs6IAuOt8vWmF_3syn4expr6MemberjEE14reserve_rehashNCINvNtBd_3map11make_hasherBV_jNtNtNtCscOYdFFY2T5N_3std4hash6random11RandomStateE0E0INtNtNtCsfvfooZQ3Axs_4core3ops8function6FnOnceTQNtBb_13RawTableInnerjEE9call_onceCsjOFMLY5rhAS_14thiserror_impl, symObjAddr: 0x3E78, symBinAddr: 0x281A8, symSize: 0x5C }
  - { offset: 0x714CF, size: 0x8, addend: 0x0, symName: __RNvYNCINvMs6_NtCsloNvcHxBCre_9hashbrown3rawINtBb_8RawTableTRNtNtCs6IAuOt8vWmF_3syn4expr6MemberjEE24find_or_find_insert_slotNCINvNtBd_3map14equivalent_keyBV_BV_jE0NCINvB22_11make_hasherBV_jNtNtNtCscOYdFFY2T5N_3std4hash6random11RandomStateE0E0INtNtNtCsfvfooZQ3Axs_4core3ops8function6FnOnceTjEE9call_onceCsjOFMLY5rhAS_14thiserror_impl, symObjAddr: 0x3ED4, symBinAddr: 0x28204, symSize: 0x58 }
  - { offset: 0x71513, size: 0x8, addend: 0x0, symName: __RNvYNCINvMs6_NtCsloNvcHxBCre_9hashbrown3rawINtBb_8RawTableTRNtNtCs6IAuOt8vWmF_3syn4expr6MemberjEE4findNCINvNtBd_3map14equivalent_keyBW_BV_jE0E0INtNtNtCsfvfooZQ3Axs_4core3ops8function6FnOnceTjEE9call_onceCsjOFMLY5rhAS_14thiserror_impl, symObjAddr: 0x3F2C, symBinAddr: 0x2825C, symSize: 0x58 }
  - { offset: 0x71557, size: 0x8, addend: 0x0, symName: __RNvYNCNkNvNtNtNtCs9i5KxIbZ5ph_10proc_macro6bridge6client5state12BRIDGE_STATE0s_0INtNtNtCsfvfooZQ3Axs_4core3ops8function6FnOnceTINtNtB1n_6option6OptionQIB22_INtNtB1n_4cell4CellPuEEEEE9call_onceCsjOFMLY5rhAS_14thiserror_impl, symObjAddr: 0x3F84, symBinAddr: 0x282B4, symSize: 0x4C }
  - { offset: 0x7159B, size: 0x8, addend: 0x0, symName: __RNvYNCNkNvNvMNtNtCscOYdFFY2T5N_3std4hash6randomNtBb_11RandomState3new4KEYS0s_0INtNtNtCsfvfooZQ3Axs_4core3ops8function6FnOnceTINtNtB1l_6option6OptionQIB20_INtNtB1l_4cell4CellTyyEEEEEE9call_onceCsjOFMLY5rhAS_14thiserror_impl, symObjAddr: 0x3FD0, symBinAddr: 0x28300, symSize: 0x4C }
  - { offset: 0x715DF, size: 0x8, addend: 0x0, symName: __RNvYNCNvNtCsjOFMLY5rhAS_14thiserror_impl4attr21parse_error_attribute0INtNtNtCsfvfooZQ3Axs_4core3ops8function6FnOnceTRNtNtCs6IAuOt8vWmF_3syn5parse11ParseBufferEE9call_onceB8_, symObjAddr: 0x401C, symBinAddr: 0x2834C, symSize: 0x40 }
  - { offset: 0x71624, size: 0x8, addend: 0x0, symName: __RNvYNcNtINtNtCs6IAuOt8vWmF_3syn10punctuated4PairRNtCs3cP53eQoTwO_11proc_macro211TokenStreamRNtNtBb_5token4PlusE3End0INtNtNtCsfvfooZQ3Axs_4core3ops8function6FnOnceTBK_EE9call_onceCsjOFMLY5rhAS_14thiserror_impl, symObjAddr: 0x405C, symBinAddr: 0x2838C, symSize: 0x24 }
  - { offset: 0x71668, size: 0x8, addend: 0x0, symName: __RNvYNcNtNtNtCs6IAuOt8vWmF_3syn4expr6Member5Named0INtNtNtCsfvfooZQ3Axs_4core3ops8function6FnOnceTNtCs3cP53eQoTwO_11proc_macro25IdentEE9call_onceCsjOFMLY5rhAS_14thiserror_impl, symObjAddr: 0x4110, symBinAddr: 0x28440, symSize: 0x34 }
  - { offset: 0x716AC, size: 0x8, addend: 0x0, symName: __RNvYNcNtNtNtCsjOFMLY5rhAS_14thiserror_impl3ast5Input4Enum0INtNtNtCsfvfooZQ3Axs_4core3ops8function6FnOnceTNtB8_4EnumEE9call_onceBa_, symObjAddr: 0x4144, symBinAddr: 0x28474, symSize: 0x40 }
  - { offset: 0x716F0, size: 0x8, addend: 0x0, symName: __RNvYNcNtNtNtCsjOFMLY5rhAS_14thiserror_impl3ast5Input6Struct0INtNtNtCsfvfooZQ3Axs_4core3ops8function6FnOnceTNtB8_6StructEE9call_onceBa_, symObjAddr: 0x4184, symBinAddr: 0x284B4, symSize: 0x40 }
  - { offset: 0x71734, size: 0x8, addend: 0x0, symName: __RNvYNvMNtCsfvfooZQ3Axs_4core6optionINtB5_6OptionINtNtB7_4cell4CellTyyEEE4takeINtNtNtB7_3ops8function6FnOnceTQBx_EE9call_onceCsjOFMLY5rhAS_14thiserror_impl, symObjAddr: 0x41EC, symBinAddr: 0x2851C, symSize: 0x24 }
  - { offset: 0x71778, size: 0x8, addend: 0x0, symName: __RNvYNvNtCsjOFMLY5rhAS_14thiserror_impl3fmt11is_syn_fullINtNtNtCsfvfooZQ3Axs_4core3ops8function6FnOnceuE9call_onceB6_, symObjAddr: 0x4210, symBinAddr: 0x28540, symSize: 0x1C }
  - { offset: 0x717BC, size: 0x8, addend: 0x0, symName: __RNvYNvNtCsjOFMLY5rhAS_14thiserror_impl3fmt19explicit_named_argsINtNtNtCsfvfooZQ3Axs_4core3ops8function6FnOnceTRNtNtCs6IAuOt8vWmF_3syn5parse11ParseBufferEE9call_onceB6_, symObjAddr: 0x422C, symBinAddr: 0x2855C, symSize: 0x24 }
  - { offset: 0x71800, size: 0x8, addend: 0x0, symName: __RNvYNvNvNvMNtNtCscOYdFFY2T5N_3std4hash6randomNtB9_11RandomState3new4KEYS6___initINtNtNtCsfvfooZQ3Axs_4core3ops8function6FnOnceuE9call_onceCsjOFMLY5rhAS_14thiserror_impl, symObjAddr: 0x4250, symBinAddr: 0x28580, symSize: 0x1C }
  - { offset: 0x71844, size: 0x8, addend: 0x0, symName: __RNvYNvYINtNtCse1nGBsou5OW_5alloc5boxed3BoxNtCs3cP53eQoTwO_11proc_macro211TokenStreamEINtNtCsfvfooZQ3Axs_4core7convert5AsRefBE_E6as_refINtNtNtB1q_3ops8function6FnOnceTRB5_EE9call_onceCsjOFMLY5rhAS_14thiserror_impl, symObjAddr: 0x426C, symBinAddr: 0x2859C, symSize: 0x24 }
  - { offset: 0x71888, size: 0x8, addend: 0x0, symName: __RNvYNvYNtCs3cP53eQoTwO_11proc_macro25IdentNtNtCs6IAuOt8vWmF_3syn3ext8IdentExt9parse_anyINtNtNtCsfvfooZQ3Axs_4core3ops8function6FnOnceTRNtNtBI_5parse11ParseBufferEE9call_onceCsjOFMLY5rhAS_14thiserror_impl, symObjAddr: 0x4290, symBinAddr: 0x285C0, symSize: 0x24 }
  - { offset: 0x718CC, size: 0x8, addend: 0x0, symName: __RNvYNvYNtNtCs6IAuOt8vWmF_3syn4expr4ExprNtNtB9_5parse5Parse5parseINtNtNtCsfvfooZQ3Axs_4core3ops8function6FnOnceTRNtBD_11ParseBufferEE9call_onceCsjOFMLY5rhAS_14thiserror_impl, symObjAddr: 0x42B4, symBinAddr: 0x285E4, symSize: 0x24 }
  - { offset: 0x71910, size: 0x8, addend: 0x0, symName: __RNvYNvYNtNtCs6IAuOt8vWmF_3syn6derive11DeriveInputNtNtB9_5parse5Parse5parseINtNtNtCsfvfooZQ3Axs_4core3ops8function6FnOnceTRNtBN_11ParseBufferEE9call_onceCsjOFMLY5rhAS_14thiserror_impl, symObjAddr: 0x42D8, symBinAddr: 0x28608, symSize: 0x24 }
  - { offset: 0x71954, size: 0x8, addend: 0x0, symName: __RNvYNvYNtNtCs6IAuOt8vWmF_3syn8generics14WherePredicateNtNtB9_11parse_quote10ParseQuote5parseINtNtNtCsfvfooZQ3Axs_4core3ops8function6FnOnceTRNtNtB9_5parse11ParseBufferEE9call_onceCsjOFMLY5rhAS_14thiserror_impl, symObjAddr: 0x42FC, symBinAddr: 0x2862C, symSize: 0x24 }
  - { offset: 0x71998, size: 0x8, addend: 0x0, symName: __RNvYNvYNtNtNtCs9i5KxIbZ5ph_10proc_macro6bridge3rpc12PanicMessageINtNtCsfvfooZQ3Axs_4core7convert4FromINtNtCse1nGBsou5OW_5alloc5boxed3BoxDNtNtB15_3any3AnyNtNtB15_6marker4SendEL_EE4fromINtNtNtB15_3ops8function6FnOnceTB1B_EE9call_onceCsjOFMLY5rhAS_14thiserror_impl, symObjAddr: 0x4320, symBinAddr: 0x28650, symSize: 0x2C }
  - { offset: 0x719E7, size: 0x8, addend: 0x0, symName: __RNvXs2_NtNtNtCsfvfooZQ3Axs_4core3ops8function5implsQINvCs6IAuOt8vWmF_3syn9parse_strNtNtBR_4expr5IndexEINtB7_6FnOnceTReEE9call_onceCsjOFMLY5rhAS_14thiserror_impl, symObjAddr: 0x3ABC, symBinAddr: 0x27DEC, symSize: 0x34 }
  - { offset: 0x71A3D, size: 0x8, addend: 0x0, symName: __RNvYINvCs6IAuOt8vWmF_3syn9parse_strNtNtB5_4expr5IndexEINtNtNtCsfvfooZQ3Axs_4core3ops8function5FnMutTReEE8call_mutCsjOFMLY5rhAS_14thiserror_impl, symObjAddr: 0x3E48, symBinAddr: 0x28178, symSize: 0x30 }
  - { offset: 0x71A81, size: 0x8, addend: 0x0, symName: __RNvYNcNtINtNtNtCsfvfooZQ3Axs_4core3ops12control_flow11ControlFlowNtNtCsjOFMLY5rhAS_14thiserror_impl3ast5FieldE5Break0INtNtBb_8function5FnMutTB11_EE8call_mutB15_, symObjAddr: 0x4080, symBinAddr: 0x283B0, symSize: 0x48 }
  - { offset: 0x71AC5, size: 0x8, addend: 0x0, symName: __RNvYNcNtINtNtNtCsfvfooZQ3Axs_4core3ops12control_flow11ControlFlowNtNtCsjOFMLY5rhAS_14thiserror_impl3ast7VariantE5Break0INtNtBb_8function5FnMutTB11_EE8call_mutB15_, symObjAddr: 0x40C8, symBinAddr: 0x283F8, symSize: 0x48 }
  - { offset: 0x71B09, size: 0x8, addend: 0x0, symName: __RNvYNvYRNtCs3cP53eQoTwO_11proc_macro25IdentNtNtCsfvfooZQ3Axs_4core3cmp10PartialOrd2ltINtNtNtBJ_3ops8function5FnMutTRB5_B1P_EE8call_mutCsjOFMLY5rhAS_14thiserror_impl, symObjAddr: 0x434C, symBinAddr: 0x2867C, symSize: 0x30 }
  - { offset: 0x71B53, size: 0x8, addend: 0x0, symName: __RNvYNvCsjOFMLY5rhAS_14thiserror_impl12derive_errorINtNtNtCsfvfooZQ3Axs_4core3ops8function2FnTNtCs9i5KxIbZ5ph_10proc_macro11TokenStreamEE4callB4_, symObjAddr: 0x41C4, symBinAddr: 0x284F4, symSize: 0x28 }
  - { offset: 0x72240, size: 0x8, addend: 0x0, symName: __RNvXNtCsfvfooZQ3Axs_4core6borrowNtNtCse1nGBsou5OW_5alloc6string6StringINtB2_6BorrowBu_E6borrowCsjOFMLY5rhAS_14thiserror_impl, symObjAddr: 0x3A6C, symBinAddr: 0x27D9C, symSize: 0x14 }
  - { offset: 0x72281, size: 0x8, addend: 0x0, symName: __RNvYTjNtNtCsjOFMLY5rhAS_14thiserror_impl4attr5TraitENtNtCsfvfooZQ3Axs_4core5clone5Clone5cloneB8_, symObjAddr: 0x445C, symBinAddr: 0x2878C, symSize: 0x60 }
  - { offset: 0x729FA, size: 0x8, addend: 0x0, symName: __RINvCs6IAuOt8vWmF_3syn5parseNtNtB2_6derive11DeriveInputECsjOFMLY5rhAS_14thiserror_impl, symObjAddr: 0x0, symBinAddr: 0x243F4, symSize: 0x30 }
  - { offset: 0x72A31, size: 0x8, addend: 0x0, symName: __RINvCs6IAuOt8vWmF_3syn6parse2NtNtB2_4expr4ExprECsjOFMLY5rhAS_14thiserror_impl, symObjAddr: 0x30, symBinAddr: 0x24424, symSize: 0x24 }
  - { offset: 0x77D92, size: 0x8, addend: 0x0, symName: __RINvMs3_NtCsfvfooZQ3Axs_4core3fmtNtB6_9Arguments6new_v1Kj3_Kj2_ECsjOFMLY5rhAS_14thiserror_impl, symObjAddr: 0x54, symBinAddr: 0x24448, symSize: 0x54 }
  - { offset: 0x77DCE, size: 0x8, addend: 0x0, symName: __RINvNtCs2cqEZUIJimJ_5quote9___private8get_spanNtCs3cP53eQoTwO_11proc_macro24SpanECsjOFMLY5rhAS_14thiserror_impl, symObjAddr: 0xA8, symBinAddr: 0x2449C, symSize: 0x20 }
  - { offset: 0x77E82, size: 0x8, addend: 0x0, symName: __RNvXs4_NtCs2cqEZUIJimJ_5quote9___privateINtB5_9RepInterpNtCs3cP53eQoTwO_11proc_macro211TokenStreamENtNtB7_9to_tokens8ToTokens9to_tokensCsjOFMLY5rhAS_14thiserror_impl, symObjAddr: 0x3AF0, symBinAddr: 0x27E20, symSize: 0x3C }
  - { offset: 0x77EC1, size: 0x8, addend: 0x0, symName: __RNvXs4_NtCs2cqEZUIJimJ_5quote9___privateINtB5_9RepInterpNtCs3cP53eQoTwO_11proc_macro25IdentENtNtB7_9to_tokens8ToTokens9to_tokensCsjOFMLY5rhAS_14thiserror_impl, symObjAddr: 0x3B2C, symBinAddr: 0x27E5C, symSize: 0x3C }
  - { offset: 0x77F00, size: 0x8, addend: 0x0, symName: __RNvXs4_NtCs2cqEZUIJimJ_5quote9___privateINtB5_9RepInterpRNtCs3cP53eQoTwO_11proc_macro211TokenStreamENtNtB7_9to_tokens8ToTokens9to_tokensCsjOFMLY5rhAS_14thiserror_impl, symObjAddr: 0x3B68, symBinAddr: 0x27E98, symSize: 0x3C }
  - { offset: 0x77F3F, size: 0x8, addend: 0x0, symName: __RNvXs4_NtCs2cqEZUIJimJ_5quote9___privateINtB5_9RepInterpRNtNtCs6IAuOt8vWmF_3syn4expr6MemberENtNtB7_9to_tokens8ToTokens9to_tokensCsjOFMLY5rhAS_14thiserror_impl, symObjAddr: 0x3BA4, symBinAddr: 0x27ED4, symSize: 0x3C }
  - { offset: 0x77F84, size: 0x8, addend: 0x0, symName: __RNvXs6_NtCs2cqEZUIJimJ_5quote9___privateINtB5_20IdentFragmentAdapterRNtCs3cP53eQoTwO_11proc_macro25IdentENtNtCsfvfooZQ3Axs_4core3fmt7Display3fmtCsjOFMLY5rhAS_14thiserror_impl, symObjAddr: 0x3BE0, symBinAddr: 0x27F10, symSize: 0x3C }
  - { offset: 0x77FCA, size: 0x8, addend: 0x0, symName: __RNvXs6_NtCs2cqEZUIJimJ_5quote9___privateINtB5_20IdentFragmentAdapterRNtNtCs6IAuOt8vWmF_3syn4expr5IndexENtNtCsfvfooZQ3Axs_4core3fmt7Display3fmtCsjOFMLY5rhAS_14thiserror_impl, symObjAddr: 0x3C1C, symBinAddr: 0x27F4C, symSize: 0x3C }
  - { offset: 0x78010, size: 0x8, addend: 0x0, symName: __RNvXs6_NtCs2cqEZUIJimJ_5quote9___privateINtB5_20IdentFragmentAdapterRRNtNtCs6IAuOt8vWmF_3syn4expr5IndexENtNtCsfvfooZQ3Axs_4core3fmt7Display3fmtCsjOFMLY5rhAS_14thiserror_impl, symObjAddr: 0x3C58, symBinAddr: 0x27F88, symSize: 0x3C }
  - { offset: 0x78056, size: 0x8, addend: 0x0, symName: __RNvXs6_NtCs2cqEZUIJimJ_5quote9___privateINtB5_20IdentFragmentAdapterRmENtNtCsfvfooZQ3Axs_4core3fmt7Display3fmtCsjOFMLY5rhAS_14thiserror_impl, symObjAddr: 0x3C94, symBinAddr: 0x27FC4, symSize: 0x3C }
  - { offset: 0x781BC, size: 0x8, addend: 0x0, symName: __RNvXNtCs2cqEZUIJimJ_5quote9to_tokensRNtNtCs6IAuOt8vWmF_3syn6derive11DeriveInputNtB2_8ToTokens9to_tokensCsjOFMLY5rhAS_14thiserror_impl, symObjAddr: 0x3A2C, symBinAddr: 0x27D5C, symSize: 0x40 }
  - { offset: 0x78201, size: 0x8, addend: 0x0, symName: __RNvYRNtNtCs6IAuOt8vWmF_3syn6derive11DeriveInputNtNtCs2cqEZUIJimJ_5quote9to_tokens8ToTokens15to_token_streamCsjOFMLY5rhAS_14thiserror_impl, symObjAddr: 0x437C, symBinAddr: 0x286AC, symSize: 0x8C }
  - { offset: 0x7824B, size: 0x8, addend: 0x0, symName: __RNvYRNtNtCs6IAuOt8vWmF_3syn6derive11DeriveInputNtNtCs2cqEZUIJimJ_5quote9to_tokens8ToTokens17into_token_streamCsjOFMLY5rhAS_14thiserror_impl, symObjAddr: 0x4408, symBinAddr: 0x28738, symSize: 0x54 }
  - { offset: 0x78459, size: 0x8, addend: 0x0, symName: __RNvNtCse1nGBsou5OW_5alloc5alloc12alloc_zeroedCsjOFMLY5rhAS_14thiserror_impl, symObjAddr: 0x35B0, symBinAddr: 0x278E0, symSize: 0x84 }
  - { offset: 0x7851D, size: 0x8, addend: 0x0, symName: __RNvXs_NtCse1nGBsou5OW_5alloc5allocNtB4_6GlobalNtNtCsfvfooZQ3Axs_4core5alloc9Allocator10deallocateCsjOFMLY5rhAS_14thiserror_impl, symObjAddr: 0x3D38, symBinAddr: 0x28068, symSize: 0x88 }
  - { offset: 0x785F8, size: 0x8, addend: 0x0, symName: __RNvXs_NtCse1nGBsou5OW_5alloc5allocNtB4_6GlobalNtNtCsfvfooZQ3Axs_4core5alloc9Allocator8allocateCsjOFMLY5rhAS_14thiserror_impl, symObjAddr: 0x3DC0, symBinAddr: 0x280F0, symSize: 0x34 }
  - { offset: 0x78633, size: 0x8, addend: 0x0, symName: __RNvNtCse1nGBsou5OW_5alloc5alloc15exchange_mallocCsjOFMLY5rhAS_14thiserror_impl, symObjAddr: 0x3634, symBinAddr: 0x27964, symSize: 0xA4 }
  - { offset: 0x786CA, size: 0x8, addend: 0x0, symName: __RNvNtCse1nGBsou5OW_5alloc5alloc5allocCsjOFMLY5rhAS_14thiserror_impl, symObjAddr: 0x36D8, symBinAddr: 0x27A08, symSize: 0x84 }
  - { offset: 0x78766, size: 0x8, addend: 0x0, symName: __RNvXs1_NtCse1nGBsou5OW_5alloc5allocNtB5_6GlobalNtNtCsfvfooZQ3Axs_4core5clone5Clone5cloneCsjOFMLY5rhAS_14thiserror_impl, symObjAddr: 0x3A80, symBinAddr: 0x27DB0, symSize: 0x10 }
  - { offset: 0x78844, size: 0x8, addend: 0x0, symName: __RNvXss_NtCse1nGBsou5OW_5alloc6stringNtB5_6StringNtNtNtCsfvfooZQ3Axs_4core3ops5deref5Deref5derefCsjOFMLY5rhAS_14thiserror_impl, symObjAddr: 0x3E24, symBinAddr: 0x28154, symSize: 0x24 }
  - { offset: 0x78878, size: 0x8, addend: 0x0, symName: __RINvXsn_NtCse1nGBsou5OW_5alloc6stringNtB6_6StringNtNtCsfvfooZQ3Axs_4core4hash4Hash4hashNtNtNtCscOYdFFY2T5N_3std4hash6random13DefaultHasherECsjOFMLY5rhAS_14thiserror_impl, symObjAddr: 0x2E8C, symBinAddr: 0x271BC, symSize: 0x88 }
  - { offset: 0x78A26, size: 0x8, addend: 0x0, symName: __RNvXs1h_NtCse1nGBsou5OW_5alloc6stringNtB6_6StringNtNtCsfvfooZQ3Axs_4core3cmp3Ord3cmpCsjOFMLY5rhAS_14thiserror_impl, symObjAddr: 0x3A90, symBinAddr: 0x27DC0, symSize: 0x2C }
  - { offset: 0x78A69, size: 0x8, addend: 0x0, symName: __RNvXsW_NtCse1nGBsou5OW_5alloc6stringNtB5_6StringNtNtCsfvfooZQ3Axs_4core3fmt5Write10write_charCsjOFMLY5rhAS_14thiserror_impl, symObjAddr: 0x3CD0, symBinAddr: 0x28000, symSize: 0x30 }
  - { offset: 0x78AA6, size: 0x8, addend: 0x0, symName: __RNvXsW_NtCse1nGBsou5OW_5alloc6stringNtB5_6StringNtNtCsfvfooZQ3Axs_4core3fmt5Write9write_strCsjOFMLY5rhAS_14thiserror_impl, symObjAddr: 0x3D00, symBinAddr: 0x28030, symSize: 0x38 }
  - { offset: 0x78AE9, size: 0x8, addend: 0x0, symName: __RNvXsp_NtCse1nGBsou5OW_5alloc6stringNtB5_6StringINtNtNtCsfvfooZQ3Axs_4core3ops5arith9AddAssignReE10add_assignCsjOFMLY5rhAS_14thiserror_impl, symObjAddr: 0x3DF4, symBinAddr: 0x28124, symSize: 0x30 }
  - { offset: 0x7BA0E, size: 0x8, addend: 0x0, symName: __RNvMNtCse1nGBsou5OW_5alloc5allocNtB2_6Global10alloc_implCsjOFMLY5rhAS_14thiserror_impl, symObjAddr: 0x3004, symBinAddr: 0x27334, symSize: 0x194 }
  - { offset: 0x7BD2B, size: 0x8, addend: 0x0, symName: __RNvMNtCse1nGBsou5OW_5alloc6stringNtB2_6String3newCsjOFMLY5rhAS_14thiserror_impl, symObjAddr: 0x3198, symBinAddr: 0x274C8, symSize: 0x30 }
  - { offset: 0x7BEB5, size: 0x8, addend: 0x0, symName: __RNvMNtCse1nGBsou5OW_5alloc6stringNtB2_6String4pushCsjOFMLY5rhAS_14thiserror_impl, symObjAddr: 0x31C8, symBinAddr: 0x274F8, symSize: 0x100 }
  - { offset: 0x7C134, size: 0x8, addend: 0x0, symName: __RNvMNtCse1nGBsou5OW_5alloc6stringNtB2_6String6as_strCsjOFMLY5rhAS_14thiserror_impl, symObjAddr: 0x32C8, symBinAddr: 0x275F8, symSize: 0x70 }
  - { offset: 0x7C310, size: 0x8, addend: 0x0, symName: __RNvMNtCse1nGBsou5OW_5alloc6stringNtB2_6String8push_strCsjOFMLY5rhAS_14thiserror_impl, symObjAddr: 0x3338, symBinAddr: 0x27668, symSize: 0x60 }
  - { offset: 0x7C4D6, size: 0x8, addend: 0x0, symName: __RNvMNtNtNtCsfvfooZQ3Axs_4core5slice4sort6stableINtB2_14AlignedStorageRNtCs3cP53eQoTwO_11proc_macro25IdentKj1000_E19as_uninit_slice_mutCsjOFMLY5rhAS_14thiserror_impl, symObjAddr: 0x3398, symBinAddr: 0x276C8, symSize: 0x78 }
  - { offset: 0x7C58A, size: 0x8, addend: 0x0, symName: __RNvMNtNtNtNtCsfvfooZQ3Axs_4core5slice4sort6stable9quicksortINtB2_14PartitionStateRNtCs3cP53eQoTwO_11proc_macro25IdentE13partition_oneCsjOFMLY5rhAS_14thiserror_impl, symObjAddr: 0x3410, symBinAddr: 0x27740, symSize: 0x138 }
  - { offset: 0x7C682, size: 0x8, addend: 0x0, symName: __RNvMs5_NtCs2cqEZUIJimJ_5quote9___privateINtB5_20IdentFragmentAdapterRNtCs3cP53eQoTwO_11proc_macro25IdentE4spanCsjOFMLY5rhAS_14thiserror_impl, symObjAddr: 0x3548, symBinAddr: 0x27878, symSize: 0x34 }
  - { offset: 0x7C6D5, size: 0x8, addend: 0x0, symName: __RNvMs5_NtCs2cqEZUIJimJ_5quote9___privateINtB5_20IdentFragmentAdapterRRNtNtCs6IAuOt8vWmF_3syn4expr5IndexE4spanCsjOFMLY5rhAS_14thiserror_impl, symObjAddr: 0x357C, symBinAddr: 0x278AC, symSize: 0x34 }
  - { offset: 0x7E2E3, size: 0x8, addend: 0x0, symName: __RINvMNtCs6IAuOt8vWmF_3syn5errorNtB3_5Error11new_spannedINtNtCsfvfooZQ3Axs_4core6option6OptionRNtNtB5_4attr9AttributeEReECsjOFMLY5rhAS_14thiserror_impl, symObjAddr: 0x0, symBinAddr: 0x287EC, symSize: 0xC4 }
  - { offset: 0x7E604, size: 0x8, addend: 0x0, symName: __RNvXs7_NtNtCs9i5KxIbZ5ph_10proc_macro6bridge3rpcINtNtNtCsfvfooZQ3Axs_4core3num7nonzero7NonZeromEINtB5_9DecodeMutuE6decodeCsjOFMLY5rhAS_14thiserror_impl, symObjAddr: 0x1370, symBinAddr: 0x29B5C, symSize: 0x5C }
  - { offset: 0x7EEAC, size: 0x8, addend: 0x0, symName: __RNCNvMs2_NtCsjOFMLY5rhAS_14thiserror_impl3astNtB7_5Field17multiple_from_syn0B9_, symObjAddr: 0x2984, symBinAddr: 0x2B170, symSize: 0x64 }
  - { offset: 0x7EF22, size: 0x8, addend: 0x0, symName: __RNCNvMs2_NtCsjOFMLY5rhAS_14thiserror_impl3astNtB7_5Field8from_syn0B9_, symObjAddr: 0x2BD4, symBinAddr: 0x2B3C0, symSize: 0x48 }
  - { offset: 0x7EF6C, size: 0x8, addend: 0x0, symName: __RNcNtNtNtCsjOFMLY5rhAS_14thiserror_impl3ast5Input6Struct0B7_, symObjAddr: 0x1A68, symBinAddr: 0x2A254, symSize: 0x38 }
  - { offset: 0x7EF9B, size: 0x8, addend: 0x0, symName: __RNcNtNtNtCsjOFMLY5rhAS_14thiserror_impl3ast5Input4Enum0B7_, symObjAddr: 0x1AA0, symBinAddr: 0x2A28C, symSize: 0x3C }
  - { offset: 0x7F27A, size: 0x8, addend: 0x0, symName: __RNCNvMs0_NtCsjOFMLY5rhAS_14thiserror_impl3astNtB7_4Enum8from_syn0B9_, symObjAddr: 0x235C, symBinAddr: 0x2AB48, symSize: 0x27C }
  - { offset: 0x7F399, size: 0x8, addend: 0x0, symName: __RNCNvMs_NtCsjOFMLY5rhAS_14thiserror_impl4propNtNtB8_3ast4Enum10has_source0B8_, symObjAddr: 0x2DB4, symBinAddr: 0x2B5A0, symSize: 0x94 }
  - { offset: 0x7F3DC, size: 0x8, addend: 0x0, symName: __RNCNvMs_NtCsjOFMLY5rhAS_14thiserror_impl4propNtNtB8_3ast4Enum13has_backtrace0B8_, symObjAddr: 0x2E94, symBinAddr: 0x2B680, symSize: 0x50 }
  - { offset: 0x7F41F, size: 0x8, addend: 0x0, symName: __RNCNvMs_NtCsjOFMLY5rhAS_14thiserror_impl4propNtNtB8_3ast4Enum11has_display0B8_, symObjAddr: 0x2FE4, symBinAddr: 0x2B7D0, symSize: 0x38 }
  - { offset: 0x7F455, size: 0x8, addend: 0x0, symName: __RNCNvMs_NtCsjOFMLY5rhAS_14thiserror_impl4propNtNtB8_3ast4Enum11has_displays_0B8_, symObjAddr: 0x301C, symBinAddr: 0x2B808, symSize: 0x38 }
  - { offset: 0x7F49B, size: 0x8, addend: 0x0, symName: __RNvNtCsjOFMLY5rhAS_14thiserror_impl4prop10from_field, symObjAddr: 0x331C, symBinAddr: 0x2BB08, symSize: 0xCC }
  - { offset: 0x7F4F1, size: 0x8, addend: 0x0, symName: __RNvNtCsjOFMLY5rhAS_14thiserror_impl4prop12source_field, symObjAddr: 0x33E8, symBinAddr: 0x2BBD4, symSize: 0x204 }
  - { offset: 0x7F59F, size: 0x8, addend: 0x0, symName: __RNvNtCsjOFMLY5rhAS_14thiserror_impl4prop15backtrace_field, symObjAddr: 0x35EC, symBinAddr: 0x2BDD8, symSize: 0x164 }
  - { offset: 0x7F620, size: 0x8, addend: 0x0, symName: __RNvNtCsjOFMLY5rhAS_14thiserror_impl4prop24distinct_backtrace_field, symObjAddr: 0x3750, symBinAddr: 0x2BF3C, symSize: 0x84 }
  - { offset: 0x7F65F, size: 0x8, addend: 0x0, symName: __RNCNvNtCsjOFMLY5rhAS_14thiserror_impl4prop24distinct_backtrace_field0B5_, symObjAddr: 0x37D4, symBinAddr: 0x2BFC0, symSize: 0x40 }
  - { offset: 0x7F69C, size: 0x8, addend: 0x0, symName: __RNvNtCsjOFMLY5rhAS_14thiserror_impl4prop17type_is_backtrace, symObjAddr: 0x3814, symBinAddr: 0x2C000, symSize: 0x104 }
  - { offset: 0x7F834, size: 0x8, addend: 0x0, symName: __RNvNvMsc_NtNtCsfvfooZQ3Axs_4core3num7nonzeroINtB7_7NonZeropE13new_unchecked18precondition_checkCsjOFMLY5rhAS_14thiserror_impl, symObjAddr: 0xA58, symBinAddr: 0x29244, symSize: 0x1C }
  - { offset: 0x82804, size: 0x8, addend: 0x0, symName: __RNCINvNvXs_NtNtNtCsfvfooZQ3Axs_4core4iter8adapters9enumerateINtB9_9EnumeratepENtNtNtBd_6traits8iterator8Iterator8try_fold9enumerateRNtNtCs6IAuOt8vWmF_3syn4data5FielduINtNtNtBf_3ops12control_flow11ControlFlowIB2F_NtNtCsjOFMLY5rhAS_14thiserror_impl3ast5FieldEENCINvNtBb_3map12map_try_foldTjB25_EINtNtBf_6result6ResultB3o_NtNtB2a_5error5ErrorEuB2E_NCNvMs2_B3q_B3o_17multiple_from_syn0NCINvXBb_INtBb_12GenericShuntINtB4d_3MapIBX_INtNtB2a_10punctuated4IterB26_EEB5x_EIB4I_NtNtBf_7convert10InfallibleB57_EEB1e_8try_folduNCINvNvB1e_12try_for_each4callB3o_B3j_NcNtB3j_5Break0E0B3j_E0E0E0B3s_, symObjAddr: 0x5DC, symBinAddr: 0x28DC8, symSize: 0xCC }
  - { offset: 0x8289B, size: 0x8, addend: 0x0, symName: __RINvXs_NtNtNtCsfvfooZQ3Axs_4core4iter8adapters9enumerateINtB5_9EnumerateINtNtCs6IAuOt8vWmF_3syn10punctuated4IterNtNtB1d_4data5FieldEENtNtNtB9_6traits8iterator8Iterator8try_folduNCINvNtB7_3map12map_try_foldTjRB1M_EINtNtBb_6result6ResultNtNtCsjOFMLY5rhAS_14thiserror_impl3ast5FieldNtNtB1d_5error5ErrorEuINtNtNtBb_3ops12control_flow11ControlFlowIB4Q_B3L_EENCNvMs2_B3N_B3L_17multiple_from_syn0NCINvXB7_INtB7_12GenericShuntINtB2U_3MapBS_B5F_EIB3q_NtNtBb_7convert10InfallibleB4t_EEB27_8try_folduNCINvNvB27_12try_for_each4callB3L_B5u_NcNtB5u_5Break0E0B5u_E0E0B4P_EB3P_, symObjAddr: 0x55C, symBinAddr: 0x28D48, symSize: 0x4C }
  - { offset: 0x8292E, size: 0x8, addend: 0x0, symName: __RNvXs_NtNtNtCsfvfooZQ3Axs_4core4iter8adapters9enumerateINtB4_9EnumerateINtNtCs6IAuOt8vWmF_3syn10punctuated4IterNtNtB1c_4data5FieldEENtNtNtB8_6traits8iterator8Iterator9size_hintCsjOFMLY5rhAS_14thiserror_impl, symObjAddr: 0x1424, symBinAddr: 0x29C10, symSize: 0x24 }
  - { offset: 0x82963, size: 0x8, addend: 0x0, symName: __RNvXs_NtNtNtCsfvfooZQ3Axs_4core4iter8adapters9enumerateINtB4_9EnumerateINtNtNtBa_5slice4iter4IterNtCs3cP53eQoTwO_11proc_macro25IdentEENtNtNtB8_6traits8iterator8Iterator4nextCsjOFMLY5rhAS_14thiserror_impl, symObjAddr: 0x1448, symBinAddr: 0x29C34, symSize: 0xE0 }
  - { offset: 0x82A3D, size: 0x8, addend: 0x0, symName: __RNvXs_NtNtNtCsfvfooZQ3Axs_4core4iter8adapters9enumerateINtB4_9EnumerateINtNtNtBa_5slice4iter4IterNtNtCse1nGBsou5OW_5alloc6string6StringEENtNtNtB8_6traits8iterator8Iterator4nextCsjOFMLY5rhAS_14thiserror_impl, symObjAddr: 0x1528, symBinAddr: 0x29D14, symSize: 0xE0 }
  - { offset: 0x82B17, size: 0x8, addend: 0x0, symName: __RNvXs_NtNtNtCsfvfooZQ3Axs_4core4iter8adapters9enumerateINtB4_9EnumerateINtNtNtBa_5slice4iter4IterNtNtCsjOFMLY5rhAS_14thiserror_impl3ast5FieldEENtNtNtB8_6traits8iterator8Iterator4nextB1B_, symObjAddr: 0x1608, symBinAddr: 0x29DF4, symSize: 0xE0 }
  - { offset: 0x82BF1, size: 0x8, addend: 0x0, symName: __RNvXs_NtNtNtCsfvfooZQ3Axs_4core4iter8adapters9enumerateINtB4_9EnumerateINtNtNtBa_5slice4iter4IterRNtCs3cP53eQoTwO_11proc_macro25IdentEENtNtNtB8_6traits8iterator8Iterator4nextCsjOFMLY5rhAS_14thiserror_impl, symObjAddr: 0x16E8, symBinAddr: 0x29ED4, symSize: 0xE0 }
  - { offset: 0x82CCB, size: 0x8, addend: 0x0, symName: __RNvXs_NtNtNtCsfvfooZQ3Axs_4core4iter8adapters9enumerateINtB4_9EnumerateINtNtNtBa_5slice4iter4IterTjNtNtCsjOFMLY5rhAS_14thiserror_impl4attr5TraitEEENtNtNtB8_6traits8iterator8Iterator4nextB1D_, symObjAddr: 0x17C8, symBinAddr: 0x29FB4, symSize: 0xE0 }
  - { offset: 0x82F85, size: 0x8, addend: 0x0, symName: __RINvYINtNtNtNtCsfvfooZQ3Axs_4core4iter8adapters9enumerate9EnumerateINtNtCs6IAuOt8vWmF_3syn10punctuated4IterNtNtB18_4data5FieldEENtNtNtBa_6traits8iterator8Iterator3mapINtNtBc_6result6ResultNtNtCsjOFMLY5rhAS_14thiserror_impl3ast5FieldNtNtB18_5error5ErrorENCNvMs2_B32_B30_17multiple_from_syn0EB34_, symObjAddr: 0x5A8, symBinAddr: 0x28D94, symSize: 0x34 }
  - { offset: 0x82FFE, size: 0x8, addend: 0x0, symName: __RNvXNtNtNtCsfvfooZQ3Axs_4core4iter6traits7collectINtNtNtB6_8adapters9enumerate9EnumerateINtNtNtB8_5slice4iter4IterNtNtCsjOFMLY5rhAS_14thiserror_impl3ast5FieldEENtB2_12IntoIterator9into_iterB1S_, symObjAddr: 0xAB4, symBinAddr: 0x292A0, symSize: 0x18 }
  - { offset: 0x83AF2, size: 0x8, addend: 0x0, symName: __RNvMNtCsfvfooZQ3Axs_4core5sliceSNtNtCsjOFMLY5rhAS_14thiserror_impl3ast5Field4iterBy_, symObjAddr: 0x6A8, symBinAddr: 0x28E94, symSize: 0x28 }
  - { offset: 0x83B29, size: 0x8, addend: 0x0, symName: __RNvMNtCsfvfooZQ3Axs_4core5sliceSNtNtCsjOFMLY5rhAS_14thiserror_impl3ast7Variant4iterBy_, symObjAddr: 0x6D0, symBinAddr: 0x28EBC, symSize: 0x28 }
  - { offset: 0x83CAC, size: 0x8, addend: 0x0, symName: __RNvXs_NtNtCsfvfooZQ3Axs_4core5slice4iterRSNtNtCsjOFMLY5rhAS_14thiserror_impl3ast5FieldNtNtNtNtB8_4iter6traits7collect12IntoIterator9into_iterBI_, symObjAddr: 0x13CC, symBinAddr: 0x29BB8, symSize: 0x58 }
  - { offset: 0x83FD7, size: 0x8, addend: 0x0, symName: __RNvNtNtCsfvfooZQ3Axs_4core4hash3sip9u8to64_leCsjOFMLY5rhAS_14thiserror_impl, symObjAddr: 0x830, symBinAddr: 0x2901C, symSize: 0x228 }
  - { offset: 0x84194, size: 0x8, addend: 0x0, symName: __RNvXs3_NtNtCsfvfooZQ3Axs_4core4hash3sipINtB5_6HasherNtB5_11Sip13RoundsENtB7_6Hasher5writeCsjOFMLY5rhAS_14thiserror_impl, symObjAddr: 0xACC, symBinAddr: 0x292B8, symSize: 0x230 }
  - { offset: 0x8430A, size: 0x8, addend: 0x0, symName: __RNvXs3_NtNtCsfvfooZQ3Axs_4core4hash3sipINtB5_6HasherNtB5_11Sip13RoundsENtB7_6Hasher6finishCsjOFMLY5rhAS_14thiserror_impl, symObjAddr: 0xCFC, symBinAddr: 0x294E8, symSize: 0xA0 }
  - { offset: 0x8437D, size: 0x8, addend: 0x0, symName: __RNvXs3_NtNtCsfvfooZQ3Axs_4core4hash3sipINtB5_6HasherNtB5_11Sip13RoundsENtB7_6Hasher9write_strCsjOFMLY5rhAS_14thiserror_impl, symObjAddr: 0xD9C, symBinAddr: 0x29588, symSize: 0x5C }
  - { offset: 0x843E3, size: 0x8, addend: 0x0, symName: __RNvXs6_NtNtCsfvfooZQ3Axs_4core4hash3sipNtB5_11Sip13RoundsNtB5_3Sip8c_roundsCsjOFMLY5rhAS_14thiserror_impl, symObjAddr: 0xDF8, symBinAddr: 0x295E4, symSize: 0x170 }
  - { offset: 0x84559, size: 0x8, addend: 0x0, symName: __RNvXs6_NtNtCsfvfooZQ3Axs_4core4hash3sipNtB5_11Sip13RoundsNtB5_3Sip8d_roundsCsjOFMLY5rhAS_14thiserror_impl, symObjAddr: 0xF68, symBinAddr: 0x29754, symSize: 0x408 }
  - { offset: 0x8B366, size: 0x8, addend: 0x0, symName: __RINvMNtCs6IAuOt8vWmF_3syn5errorNtB3_5Error11new_spannedINtNtCsfvfooZQ3Axs_4core6option6OptionRNtNtB5_4attr9AttributeEReECsjOFMLY5rhAS_14thiserror_impl, symObjAddr: 0x0, symBinAddr: 0x287EC, symSize: 0xC4 }
  - { offset: 0x8B3A8, size: 0x8, addend: 0x0, symName: __RINvMNtCs6IAuOt8vWmF_3syn5errorNtB3_5Error11new_spannedRNtNtB5_4attr9AttributeReECsjOFMLY5rhAS_14thiserror_impl, symObjAddr: 0xC4, symBinAddr: 0x288B0, symSize: 0xC4 }
  - { offset: 0x8B3F7, size: 0x8, addend: 0x0, symName: __RINvMNtCs6IAuOt8vWmF_3syn5errorNtB3_5Error11new_spannedRNtNtB5_4data5FieldReECsjOFMLY5rhAS_14thiserror_impl, symObjAddr: 0x188, symBinAddr: 0x28974, symSize: 0xC4 }
  - { offset: 0x8B446, size: 0x8, addend: 0x0, symName: __RINvMNtCs6IAuOt8vWmF_3syn5errorNtB3_5Error11new_spannedRNtNtB5_4data7VariantReECsjOFMLY5rhAS_14thiserror_impl, symObjAddr: 0x24C, symBinAddr: 0x28A38, symSize: 0xC4 }
  - { offset: 0x8B495, size: 0x8, addend: 0x0, symName: __RINvMNtCs6IAuOt8vWmF_3syn5errorNtB3_5Error11new_spannedRNtNtB5_6derive11DeriveInputReECsjOFMLY5rhAS_14thiserror_impl, symObjAddr: 0x310, symBinAddr: 0x28AFC, symSize: 0xC4 }
  - { offset: 0x8B4E4, size: 0x8, addend: 0x0, symName: __RINvMNtCs6IAuOt8vWmF_3syn5errorNtB3_5Error11new_spannedRRNtNtB5_4attr9AttributeReECsjOFMLY5rhAS_14thiserror_impl, symObjAddr: 0x3D4, symBinAddr: 0x28BC0, symSize: 0xC4 }
  - { offset: 0x8B797, size: 0x8, addend: 0x0, symName: __RINvMs0_NtNtNtCscOYdFFY2T5N_3std11collections4hash3mapINtB6_7HashMapRNtNtCs6IAuOt8vWmF_3syn4expr6MemberjE12contains_keyB15_ECsjOFMLY5rhAS_14thiserror_impl, symObjAddr: 0x498, symBinAddr: 0x28C84, symSize: 0x54 }
  - { offset: 0x8B899, size: 0x8, addend: 0x0, symName: __RINvMs0_NtNtNtCscOYdFFY2T5N_3std11collections4hash3mapINtB6_7HashMapRNtNtCs6IAuOt8vWmF_3syn4expr6MemberjE3getB15_ECsjOFMLY5rhAS_14thiserror_impl, symObjAddr: 0x4EC, symBinAddr: 0x28CD8, symSize: 0x70 }
  - { offset: 0x8BB80, size: 0x8, addend: 0x0, symName: __RNvMNtNtNtCscOYdFFY2T5N_3std11collections4hash3mapINtB2_7HashMapRNtNtCs6IAuOt8vWmF_3syn4expr6MemberjE3newCsjOFMLY5rhAS_14thiserror_impl, symObjAddr: 0x6F8, symBinAddr: 0x28EE4, symSize: 0x7C }
  - { offset: 0x8BC3B, size: 0x8, addend: 0x0, symName: __RNvMs0_NtNtCsfvfooZQ3Axs_4core4hash3sipINtB5_6HasherNtB5_11Sip13RoundsE5resetCsjOFMLY5rhAS_14thiserror_impl, symObjAddr: 0x774, symBinAddr: 0x28F60, symSize: 0x8C }
  - { offset: 0x8BC73, size: 0x8, addend: 0x0, symName: __RNvMs0_NtNtNtCscOYdFFY2T5N_3std11collections4hash3mapINtB5_7HashMapRNtNtCs6IAuOt8vWmF_3syn4expr6MemberjE6insertCsjOFMLY5rhAS_14thiserror_impl, symObjAddr: 0x800, symBinAddr: 0x28FEC, symSize: 0x30 }
  - { offset: 0x8BD16, size: 0x8, addend: 0x0, symName: __RNvXNtCs2cqEZUIJimJ_5quote14ident_fragmentRmNtB2_13IdentFragment3fmtCsjOFMLY5rhAS_14thiserror_impl, symObjAddr: 0xA74, symBinAddr: 0x29260, symSize: 0x40 }
  - { offset: 0x8BD65, size: 0x8, addend: 0x0, symName: __RNvYRNtNtCs6IAuOt8vWmF_3syn4data5FieldNtNtCs2cqEZUIJimJ_5quote9to_tokens8ToTokens15to_token_streamCsjOFMLY5rhAS_14thiserror_impl, symObjAddr: 0x18A8, symBinAddr: 0x2A094, symSize: 0x8C }
  - { offset: 0x8BDAF, size: 0x8, addend: 0x0, symName: __RNvYRNtNtCs6IAuOt8vWmF_3syn4data5FieldNtNtCs2cqEZUIJimJ_5quote9to_tokens8ToTokens17into_token_streamCsjOFMLY5rhAS_14thiserror_impl, symObjAddr: 0x1934, symBinAddr: 0x2A120, symSize: 0x54 }
  - { offset: 0x8BDE4, size: 0x8, addend: 0x0, symName: __RNvYRNtNtCs6IAuOt8vWmF_3syn4data7VariantNtNtCs2cqEZUIJimJ_5quote9to_tokens8ToTokens15to_token_streamCsjOFMLY5rhAS_14thiserror_impl, symObjAddr: 0x1988, symBinAddr: 0x2A174, symSize: 0x8C }
  - { offset: 0x8BE2E, size: 0x8, addend: 0x0, symName: __RNvYRNtNtCs6IAuOt8vWmF_3syn4data7VariantNtNtCs2cqEZUIJimJ_5quote9to_tokens8ToTokens17into_token_streamCsjOFMLY5rhAS_14thiserror_impl, symObjAddr: 0x1A14, symBinAddr: 0x2A200, symSize: 0x54 }
  - { offset: 0x8C092, size: 0x8, addend: 0x0, symName: __RNvMNtCsjOFMLY5rhAS_14thiserror_impl3astNtB2_5Input8from_syn, symObjAddr: 0x1ADC, symBinAddr: 0x2A2C8, symSize: 0x130 }
  - { offset: 0x8C0FB, size: 0x8, addend: 0x0, symName: __RNvMs_NtCsjOFMLY5rhAS_14thiserror_impl3astNtB4_6Struct8from_syn, symObjAddr: 0x1C0C, symBinAddr: 0x2A3F8, symSize: 0x3C0 }
  - { offset: 0x8C224, size: 0x8, addend: 0x0, symName: __RNvMs0_NtCsjOFMLY5rhAS_14thiserror_impl3astNtB5_4Enum8from_syn, symObjAddr: 0x1FCC, symBinAddr: 0x2A7B8, symSize: 0x390 }
  - { offset: 0x8C324, size: 0x8, addend: 0x0, symName: __RNvMs1_NtCsjOFMLY5rhAS_14thiserror_impl3astNtB5_7Variant8from_syn, symObjAddr: 0x25D8, symBinAddr: 0x2ADC4, symSize: 0x330 }
  - { offset: 0x8C3F4, size: 0x8, addend: 0x0, symName: __RNvMs2_NtCsjOFMLY5rhAS_14thiserror_impl3astNtB5_5Field17multiple_from_syn, symObjAddr: 0x2908, symBinAddr: 0x2B0F4, symSize: 0x7C }
  - { offset: 0x8C432, size: 0x8, addend: 0x0, symName: __RNvMs2_NtCsjOFMLY5rhAS_14thiserror_impl3astNtB5_5Field8from_syn, symObjAddr: 0x29E8, symBinAddr: 0x2B1D4, symSize: 0x1EC }
  - { offset: 0x8C4C9, size: 0x8, addend: 0x0, symName: __RNvMNtCsjOFMLY5rhAS_14thiserror_impl4propNtNtB4_3ast6Struct10from_field, symObjAddr: 0x2C1C, symBinAddr: 0x2B408, symSize: 0x38 }
  - { offset: 0x8C4EB, size: 0x8, addend: 0x0, symName: __RNvMNtCsjOFMLY5rhAS_14thiserror_impl4propNtNtB4_3ast6Struct12source_field, symObjAddr: 0x2C54, symBinAddr: 0x2B440, symSize: 0x38 }
  - { offset: 0x8C50D, size: 0x8, addend: 0x0, symName: __RNvMNtCsjOFMLY5rhAS_14thiserror_impl4propNtNtB4_3ast6Struct15backtrace_field, symObjAddr: 0x2C8C, symBinAddr: 0x2B478, symSize: 0x38 }
  - { offset: 0x8C52F, size: 0x8, addend: 0x0, symName: __RNvMNtCsjOFMLY5rhAS_14thiserror_impl4propNtNtB4_3ast6Struct24distinct_backtrace_field, symObjAddr: 0x2CC4, symBinAddr: 0x2B4B0, symSize: 0xA4 }
  - { offset: 0x8C598, size: 0x8, addend: 0x0, symName: __RNvMs_NtCsjOFMLY5rhAS_14thiserror_impl4propNtNtB6_3ast4Enum10has_source, symObjAddr: 0x2D68, symBinAddr: 0x2B554, symSize: 0x4C }
  - { offset: 0x8C5BA, size: 0x8, addend: 0x0, symName: __RNvMs_NtCsjOFMLY5rhAS_14thiserror_impl4propNtNtB6_3ast4Enum13has_backtrace, symObjAddr: 0x2E48, symBinAddr: 0x2B634, symSize: 0x4C }
  - { offset: 0x8C5DC, size: 0x8, addend: 0x0, symName: __RNvMs_NtCsjOFMLY5rhAS_14thiserror_impl4propNtNtB6_3ast4Enum11has_display, symObjAddr: 0x2EE4, symBinAddr: 0x2B6D0, symSize: 0x100 }
  - { offset: 0x8C60B, size: 0x8, addend: 0x0, symName: __RNvMs0_NtCsjOFMLY5rhAS_14thiserror_impl4propNtNtB7_3ast7Variant10from_field, symObjAddr: 0x3054, symBinAddr: 0x2B840, symSize: 0x38 }
  - { offset: 0x8C62D, size: 0x8, addend: 0x0, symName: __RNvMs0_NtCsjOFMLY5rhAS_14thiserror_impl4propNtNtB7_3ast7Variant12source_field, symObjAddr: 0x308C, symBinAddr: 0x2B878, symSize: 0x38 }
  - { offset: 0x8C64F, size: 0x8, addend: 0x0, symName: __RNvMs0_NtCsjOFMLY5rhAS_14thiserror_impl4propNtNtB7_3ast7Variant15backtrace_field, symObjAddr: 0x30C4, symBinAddr: 0x2B8B0, symSize: 0x38 }
  - { offset: 0x8C671, size: 0x8, addend: 0x0, symName: __RNvMs0_NtCsjOFMLY5rhAS_14thiserror_impl4propNtNtB7_3ast7Variant24distinct_backtrace_field, symObjAddr: 0x30FC, symBinAddr: 0x2B8E8, symSize: 0xA4 }
  - { offset: 0x8C6CD, size: 0x8, addend: 0x0, symName: __RNvMs1_NtCsjOFMLY5rhAS_14thiserror_impl4propNtNtB7_3ast5Field12is_backtrace, symObjAddr: 0x31A0, symBinAddr: 0x2B98C, symSize: 0x38 }
  - { offset: 0x8C71A, size: 0x8, addend: 0x0, symName: __RNvMs1_NtCsjOFMLY5rhAS_14thiserror_impl4propNtNtB7_3ast5Field11source_span, symObjAddr: 0x31D8, symBinAddr: 0x2B9C4, symSize: 0x144 }
  - { offset: 0x8C7ED, size: 0x8, addend: 0x0, symName: __RNvMNtCsjOFMLY5rhAS_14thiserror_impl5validNtNtB4_3ast5Input8validate, symObjAddr: 0x3918, symBinAddr: 0x2C104, symSize: 0x90 }
  - { offset: 0x8C841, size: 0x8, addend: 0x0, symName: __RNvMs_NtCsjOFMLY5rhAS_14thiserror_impl5validNtNtB6_3ast6Struct8validate, symObjAddr: 0x39A8, symBinAddr: 0x2C194, symSize: 0x328 }
  - { offset: 0x8C912, size: 0x8, addend: 0x0, symName: __RNvMs0_NtCsjOFMLY5rhAS_14thiserror_impl5validNtNtB7_3ast4Enum8validate, symObjAddr: 0x3CD0, symBinAddr: 0x2C4BC, symSize: 0x4CC }
  - { offset: 0x8CA1D, size: 0x8, addend: 0x0, symName: __RNvMs1_NtCsjOFMLY5rhAS_14thiserror_impl5validNtNtB7_3ast7Variant8validate, symObjAddr: 0x419C, symBinAddr: 0x2C988, symSize: 0x310 }
  - { offset: 0x8CAD9, size: 0x8, addend: 0x0, symName: __RNvMs2_NtCsjOFMLY5rhAS_14thiserror_impl5validNtNtB7_3ast5Field8validate, symObjAddr: 0x44AC, symBinAddr: 0x2CC98, symSize: 0xB8 }
  - { offset: 0x8CDC6, size: 0x8, addend: 0x0, symName: __RINvMNtCs6IAuOt8vWmF_3syn9lookaheadNtB3_10Lookahead14peekINvNvNtCsjOFMLY5rhAS_14thiserror_impl4attr21parse_error_attribute11transparentNtB3_11TokenMarkerEEB10_, symObjAddr: 0x0, symBinAddr: 0x2CD50, symSize: 0x44 }
  - { offset: 0x912DC, size: 0x8, addend: 0x0, symName: __RINvNtNtNtNtCsfvfooZQ3Axs_4core5slice4sort6stable5merge5mergeRNtCs3cP53eQoTwO_11proc_macro25IdentNvYBX_NtNtBa_3cmp10PartialOrd2ltECsjOFMLY5rhAS_14thiserror_impl, symObjAddr: 0x16C4, symBinAddr: 0x2E414, symSize: 0x2F0 }
  - { offset: 0x91546, size: 0x8, addend: 0x0, symName: __RNvXs_NtNtNtNtCsfvfooZQ3Axs_4core5slice4sort6stable5mergeINtB4_10MergeStateRNtCs3cP53eQoTwO_11proc_macro25IdentENtNtNtBc_3ops4drop4Drop4dropCsjOFMLY5rhAS_14thiserror_impl, symObjAddr: 0x2778, symBinAddr: 0x2F4C8, symSize: 0xDC }
  - { offset: 0x91645, size: 0x8, addend: 0x0, symName: __RINvNtNtNtNtCsfvfooZQ3Axs_4core5slice4sort6shared9smallsort11insert_tailRNtCs3cP53eQoTwO_11proc_macro25IdentNvYB18_NtNtBa_3cmp10PartialOrd2ltECsjOFMLY5rhAS_14thiserror_impl, symObjAddr: 0x568, symBinAddr: 0x2D2B8, symSize: 0x1A0 }
  - { offset: 0x917E4, size: 0x8, addend: 0x0, symName: __RINvNtNtNtNtCsfvfooZQ3Axs_4core5slice4sort6shared9smallsort12sort4_stableRNtCs3cP53eQoTwO_11proc_macro25IdentNvYB19_NtNtBa_3cmp10PartialOrd2ltECsjOFMLY5rhAS_14thiserror_impl, symObjAddr: 0x708, symBinAddr: 0x2D458, symSize: 0x458 }
  - { offset: 0x91CD0, size: 0x8, addend: 0x0, symName: __RINvNtNtNtNtCsfvfooZQ3Axs_4core5slice4sort6shared9smallsort12sort8_stableRNtCs3cP53eQoTwO_11proc_macro25IdentNvYB19_NtNtBa_3cmp10PartialOrd2ltECsjOFMLY5rhAS_14thiserror_impl, symObjAddr: 0xB60, symBinAddr: 0x2D8B0, symSize: 0x94 }
  - { offset: 0x91E7F, size: 0x8, addend: 0x0, symName: __RINvNtNtNtNtCsfvfooZQ3Axs_4core5slice4sort6shared9smallsort19bidirectional_mergeRNtCs3cP53eQoTwO_11proc_macro25IdentNvYB1g_NtNtBa_3cmp10PartialOrd2ltECsjOFMLY5rhAS_14thiserror_impl, symObjAddr: 0xBF4, symBinAddr: 0x2D944, symSize: 0x538 }
  - { offset: 0x9253C, size: 0x8, addend: 0x0, symName: __RINvNtNtNtNtCsfvfooZQ3Axs_4core5slice4sort6shared9smallsort25insertion_sort_shift_leftRNtCs3cP53eQoTwO_11proc_macro25IdentNvYB1m_NtNtBa_3cmp10PartialOrd2ltECsjOFMLY5rhAS_14thiserror_impl, symObjAddr: 0x112C, symBinAddr: 0x2DE7C, symSize: 0xC4 }
  - { offset: 0x92676, size: 0x8, addend: 0x0, symName: __RINvNtNtNtNtCsfvfooZQ3Axs_4core5slice4sort6shared9smallsort31small_sort_general_with_scratchRNtCs3cP53eQoTwO_11proc_macro25IdentNvYB1s_NtNtBa_3cmp10PartialOrd2ltECsjOFMLY5rhAS_14thiserror_impl, symObjAddr: 0x11F0, symBinAddr: 0x2DF40, symSize: 0x4D4 }
  - { offset: 0x92AEA, size: 0x8, addend: 0x0, symName: __RNvXs5_NtNtNtNtCsfvfooZQ3Axs_4core5slice4sort6shared9smallsortINtB5_10CopyOnDropRNtCs3cP53eQoTwO_11proc_macro25IdentENtNtNtBd_3ops4drop4Drop4dropCsjOFMLY5rhAS_14thiserror_impl, symObjAddr: 0x26FC, symBinAddr: 0x2F44C, symSize: 0x7C }
  - { offset: 0x93645, size: 0x8, addend: 0x0, symName: __RNCINvNtNtNtCsfvfooZQ3Axs_4core4iter8adapters3map12map_try_foldRNtNtCs6IAuOt8vWmF_3syn4data7VariantINtNtBa_6result6ResultNtNtCsjOFMLY5rhAS_14thiserror_impl3ast7VariantNtNtB14_5error5ErrorEuINtNtNtBa_3ops12control_flow11ControlFlowIB32_B1V_EENCNvMs0_B1X_NtB1X_4Enum8from_syn0NCINvXB6_INtB6_12GenericShuntINtB4_3MapINtNtB14_10punctuated4IterB10_EB3R_EIB1A_NtNtBa_7convert10InfallibleB2F_EENtNtNtB8_6traits8iterator8Iterator8try_folduNCINvNvB6d_12try_for_each4callB1V_B3G_NcNtB3G_5Break0E0B3G_E0E0B1Z_, symObjAddr: 0x1D58, symBinAddr: 0x2EAA8, symSize: 0xA8 }
  - { offset: 0x936D7, size: 0x8, addend: 0x0, symName: __RNCINvNtNtNtCsfvfooZQ3Axs_4core4iter8adapters3map12map_try_foldTjRNtNtCs6IAuOt8vWmF_3syn4data5FieldEINtNtBa_6result6ResultNtNtCsjOFMLY5rhAS_14thiserror_impl3ast5FieldNtNtB16_5error5ErrorEuINtNtNtBa_3ops12control_flow11ControlFlowIB31_B1W_EENCNvMs2_B1Y_B1W_17multiple_from_syn0NCINvXB6_INtB6_12GenericShuntINtB4_3MapINtNtB6_9enumerate9EnumerateINtNtB16_10punctuated4IterB12_EEB3Q_EIB1B_NtNtBa_7convert10InfallibleB2E_EENtNtNtB8_6traits8iterator8Iterator8try_folduNCINvNvB6I_12try_for_each4callB1W_B3F_NcNtB3F_5Break0E0B3F_E0E0B20_, symObjAddr: 0x1E00, symBinAddr: 0x2EB50, symSize: 0xAC }
  - { offset: 0x9376F, size: 0x8, addend: 0x0, symName: __RINvXs0_NtNtNtCsfvfooZQ3Axs_4core4iter8adapters3mapINtB6_3MapINtNtB8_9enumerate9EnumerateINtNtCs6IAuOt8vWmF_3syn10punctuated4IterNtNtB1u_4data5FieldEENCNvMs2_NtCsjOFMLY5rhAS_14thiserror_impl3astNtB2w_5Field17multiple_from_syn0ENtNtNtBa_6traits8iterator8Iterator8try_folduNCINvXB8_INtB8_12GenericShuntBN_INtNtBc_6result6ResultNtNtBc_7convert10InfallibleNtNtB1u_5error5ErrorEEB3D_8try_folduNCINvNvB3D_12try_for_each4callB36_INtNtNtBc_3ops12control_flow11ControlFlowB36_ENcNtB6M_5Break0E0B6M_E0IB6N_B6M_EEB2y_, symObjAddr: 0x19B4, symBinAddr: 0x2E704, symSize: 0x54 }
  - { offset: 0x93812, size: 0x8, addend: 0x0, symName: __RINvXs0_NtNtNtCsfvfooZQ3Axs_4core4iter8adapters3mapINtB6_3MapINtNtCs6IAuOt8vWmF_3syn10punctuated4IterNtNtB12_4data7VariantENCNvMs0_NtCsjOFMLY5rhAS_14thiserror_impl3astNtB25_4Enum8from_syn0ENtNtNtBa_6traits8iterator8Iterator8try_folduNCINvXB8_INtB8_12GenericShuntBN_INtNtBc_6result6ResultNtNtBc_7convert10InfallibleNtNtB12_5error5ErrorEEB31_8try_folduNCINvNvB31_12try_for_each4callNtB25_7VariantINtNtNtBc_3ops12control_flow11ControlFlowB66_ENcNtB6k_5Break0E0B6k_E0IB6l_B6k_EEB27_, symObjAddr: 0x1A08, symBinAddr: 0x2E758, symSize: 0x54 }
  - { offset: 0x938B5, size: 0x8, addend: 0x0, symName: __RINvXs0_NtNtNtCsfvfooZQ3Axs_4core4iter8adapters3mapINtB6_3MapINtNtNtBc_5slice4iter4IterNtNtCsjOFMLY5rhAS_14thiserror_impl3ast7VariantENCNvNtB1r_6expand9impl_enums1_0ENtNtNtBa_6traits8iterator8Iterator4folduNCINvNvB2E_8for_each4callNtCs3cP53eQoTwO_11proc_macro211TokenStreamNCINvMsi_NtCse1nGBsou5OW_5alloc3vecINtB4w_3VecB3H_E14extend_trustedBN_E0E0EB1r_, symObjAddr: 0x1A5C, symBinAddr: 0x2E7AC, symSize: 0x58 }
  - { offset: 0x9394E, size: 0x8, addend: 0x0, symName: __RNvXs0_NtNtNtCsfvfooZQ3Axs_4core4iter8adapters3mapINtB5_3MapINtNtB7_8peekable8PeekableIBN_INtNtNtBb_5slice4iter4IterNtNtCsjOFMLY5rhAS_14thiserror_impl3ast5FieldENCNvNtB1U_6expand10fields_pat0EENCB2B_s_0ENtNtNtB9_6traits8iterator8Iterator4nextB1U_, symObjAddr: 0x22C4, symBinAddr: 0x2F014, symSize: 0x90 }
  - { offset: 0x939C8, size: 0x8, addend: 0x0, symName: __RNvXs0_NtNtNtCsfvfooZQ3Axs_4core4iter8adapters3mapINtB5_3MapINtNtB7_9enumerate9EnumerateINtNtCs6IAuOt8vWmF_3syn10punctuated4IterNtNtB1t_4data5FieldEENCNvMs2_NtCsjOFMLY5rhAS_14thiserror_impl3astNtB2v_5Field17multiple_from_syn0ENtNtNtB9_6traits8iterator8Iterator9size_hintB2x_, symObjAddr: 0x2354, symBinAddr: 0x2F0A4, symSize: 0x24 }
  - { offset: 0x93A0F, size: 0x8, addend: 0x0, symName: __RNvXs0_NtNtNtCsfvfooZQ3Axs_4core4iter8adapters3mapINtB5_3MapINtNtCs6IAuOt8vWmF_3syn10punctuated4IterNtNtB11_4data7VariantENCNvMs0_NtCsjOFMLY5rhAS_14thiserror_impl3astNtB24_4Enum8from_syn0ENtNtNtB9_6traits8iterator8Iterator9size_hintB26_, symObjAddr: 0x2378, symBinAddr: 0x2F0C8, symSize: 0x24 }
  - { offset: 0x93A56, size: 0x8, addend: 0x0, symName: __RNvXs0_NtNtNtCsfvfooZQ3Axs_4core4iter8adapters3mapINtB5_3MapINtNtNtBb_3str4iter5SplitcEINvCs6IAuOt8vWmF_3syn9parse_strNtNtB1q_4expr5IndexEENtNtNtB9_6traits8iterator8Iterator4nextCsjOFMLY5rhAS_14thiserror_impl, symObjAddr: 0x239C, symBinAddr: 0x2F0EC, symSize: 0x9C }
  - { offset: 0x93AD0, size: 0x8, addend: 0x0, symName: __RNvXs0_NtNtNtCsfvfooZQ3Axs_4core4iter8adapters3mapINtB5_3MapINtNtNtBb_5slice4iter4IterNtNtCsjOFMLY5rhAS_14thiserror_impl3ast5FieldENCNvNtB1q_6expand10fields_pat0ENtNtNtB9_6traits8iterator8Iterator4nextB1q_, symObjAddr: 0x2438, symBinAddr: 0x2F188, symSize: 0x74 }
  - { offset: 0x93B4A, size: 0x8, addend: 0x0, symName: __RNvXs0_NtNtNtCsfvfooZQ3Axs_4core4iter8adapters3mapINtB5_3MapINtNtNtBb_5slice4iter4IterNtNtCsjOFMLY5rhAS_14thiserror_impl3ast7VariantENCNvNtB1q_6expand9impl_enum0ENtNtNtB9_6traits8iterator8Iterator4nextB1q_, symObjAddr: 0x24AC, symBinAddr: 0x2F1FC, symSize: 0x90 }
  - { offset: 0x93BC4, size: 0x8, addend: 0x0, symName: __RNvXs0_NtNtNtCsfvfooZQ3Axs_4core4iter8adapters3mapINtB5_3MapINtNtNtBb_5slice4iter4IterNtNtCsjOFMLY5rhAS_14thiserror_impl3ast7VariantENCNvNtB1q_6expand9impl_enums1_0ENtNtNtB9_6traits8iterator8Iterator9size_hintB1q_, symObjAddr: 0x253C, symBinAddr: 0x2F28C, symSize: 0x24 }
  - { offset: 0x93C0B, size: 0x8, addend: 0x0, symName: __RNvXs0_NtNtNtCsfvfooZQ3Axs_4core4iter8adapters3mapINtB5_3MapINtNtNtBb_5slice4iter4IterNtNtCsjOFMLY5rhAS_14thiserror_impl3ast7VariantENCNvNtB1q_6expand9impl_enums_0ENtNtNtB9_6traits8iterator8Iterator4nextB1q_, symObjAddr: 0x2560, symBinAddr: 0x2F2B0, symSize: 0x90 }
  - { offset: 0x93C85, size: 0x8, addend: 0x0, symName: __RNvXs0_NtNtNtCsfvfooZQ3Axs_4core4iter8adapters3mapINtB5_3MapINtNtNtCse1nGBsou5OW_5alloc3vec9into_iter8IntoIterRNtCs3cP53eQoTwO_11proc_macro25IdentENCINvMse_NtNtNtB13_11collections5btree3setINtB2u_8BTreeSetB1K_E16from_sorted_iterBW_E0ENtNtNtB9_6traits8iterator8Iterator4nextCsjOFMLY5rhAS_14thiserror_impl, symObjAddr: 0x25F0, symBinAddr: 0x2F340, symSize: 0x74 }
  - { offset: 0x93CFF, size: 0x8, addend: 0x0, symName: __RNvXs0_NtNtNtCsfvfooZQ3Axs_4core4iter8adapters3mapINtB5_3MapNtNtCs6IAuOt8vWmF_3syn8generics10TypeParamsNCNvMNtCsjOFMLY5rhAS_14thiserror_impl8genericsNtB1I_13ParamsInScope3new0ENtNtNtB9_6traits8iterator8Iterator4nextB1K_, symObjAddr: 0x2664, symBinAddr: 0x2F3B4, symSize: 0x74 }
  - { offset: 0x93D79, size: 0x8, addend: 0x0, symName: __RNvXs0_NtNtNtCsfvfooZQ3Axs_4core4iter8adapters3mapINtB5_3MapNtNtCs6IAuOt8vWmF_3syn8generics10TypeParamsNCNvMNtCsjOFMLY5rhAS_14thiserror_impl8genericsNtB1I_13ParamsInScope3new0ENtNtNtB9_6traits8iterator8Iterator9size_hintB1K_, symObjAddr: 0x26D8, symBinAddr: 0x2F428, symSize: 0x24 }
  - { offset: 0x93E95, size: 0x8, addend: 0x0, symName: __RNCINvNtNtNtCsfvfooZQ3Axs_4core4iter8adapters3map8map_foldRNtNtCsjOFMLY5rhAS_14thiserror_impl3ast7VariantNtCs3cP53eQoTwO_11proc_macro211TokenStreamuNCNvNtBZ_6expand9impl_enums1_0NCINvNvNtNtNtB8_6traits8iterator8Iterator8for_each4callB1F_NCINvMsi_NtCse1nGBsou5OW_5alloc3vecINtB3W_3VecB1F_E14extend_trustedINtB4_3MapINtNtNtBa_5slice4iter4IterBV_EB2m_EE0E0E0BZ_, symObjAddr: 0x1EAC, symBinAddr: 0x2EBFC, symSize: 0x8C }
  - { offset: 0x94268, size: 0x8, addend: 0x0, symName: __RNCINvNvNtNtNtNtCsfvfooZQ3Axs_4core4iter6traits8iterator8Iterator12try_for_each4callNtNtCsjOFMLY5rhAS_14thiserror_impl3ast5FieldINtNtNtBe_3ops12control_flow11ControlFlowB1k_ENcNtB22_5Break0E0B1o_, symObjAddr: 0x1F38, symBinAddr: 0x2EC88, symSize: 0x48 }
  - { offset: 0x942CE, size: 0x8, addend: 0x0, symName: __RNCINvNvNtNtNtNtCsfvfooZQ3Axs_4core4iter6traits8iterator8Iterator12try_for_each4callNtNtCsjOFMLY5rhAS_14thiserror_impl3ast7VariantINtNtNtBe_3ops12control_flow11ControlFlowB1k_ENcNtB24_5Break0E0B1o_, symObjAddr: 0x1F80, symBinAddr: 0x2ECD0, symSize: 0x48 }
  - { offset: 0x94353, size: 0x8, addend: 0x0, symName: __RNCINvNvNtNtNtNtCsfvfooZQ3Axs_4core4iter6traits8iterator8Iterator8for_each4callNtCs3cP53eQoTwO_11proc_macro211TokenStreamNCINvMsi_NtCse1nGBsou5OW_5alloc3vecINtB24_3VecB1f_E14extend_trustedINtNtNtBc_8adapters3map3MapINtNtNtBe_5slice4iter4IterNtNtCsjOFMLY5rhAS_14thiserror_impl3ast7VariantENCNvNtB3V_6expand9impl_enums1_0EE0E0B3V_, symObjAddr: 0x1FC8, symBinAddr: 0x2ED18, symSize: 0x3C }
  - { offset: 0x943AC, size: 0x8, addend: 0x0, symName: __RNCINvNvNtNtNtNtCsfvfooZQ3Axs_4core4iter6traits8iterator8Iterator8for_each4callNtCs3cP53eQoTwO_11proc_macro29TokenTreeNCINvXsa_NtB1h_8fallbackNtB21_11TokenStreamINtNtBa_7collect6ExtendB1f_E6extendNtB1h_11TokenStreamE0E0CsjOFMLY5rhAS_14thiserror_impl, symObjAddr: 0x2004, symBinAddr: 0x2ED54, symSize: 0x3C }
  - { offset: 0x9444A, size: 0x8, addend: 0x0, symName: __RINvYINtNtNtNtCsfvfooZQ3Axs_4core4iter8adapters3map3MapINtNtB8_9enumerate9EnumerateINtNtCs6IAuOt8vWmF_3syn10punctuated4IterNtNtB1o_4data5FieldEENCNvMs2_NtCsjOFMLY5rhAS_14thiserror_impl3astNtB2q_5Field17multiple_from_syn0ENtNtNtBa_6traits8iterator8Iterator7collectINtNtBc_6result6ResultINtNtCse1nGBsou5OW_5alloc3vec3VecB30_ENtNtB1o_5error5ErrorEEB2s_, symObjAddr: 0x1AB4, symBinAddr: 0x2E804, symSize: 0x14 }
  - { offset: 0x9448B, size: 0x8, addend: 0x0, symName: __RINvYINtNtNtNtCsfvfooZQ3Axs_4core4iter8adapters3map3MapINtNtCs6IAuOt8vWmF_3syn10punctuated4IterNtNtBW_4data7VariantENCNvMs0_NtCsjOFMLY5rhAS_14thiserror_impl3astNtB1Y_4Enum8from_syn0ENtNtNtBa_6traits8iterator8Iterator7collectINtNtBc_6result6ResultINtNtCse1nGBsou5OW_5alloc3vec3VecNtB1Y_7VariantENtNtBW_5error5ErrorEEB20_, symObjAddr: 0x1AC8, symBinAddr: 0x2E818, symSize: 0x14 }
  - { offset: 0x944CC, size: 0x8, addend: 0x0, symName: __RINvYINtNtNtNtCsfvfooZQ3Axs_4core4iter8adapters3map3MapINtNtNtBc_5slice4iter4IterNtNtCsjOFMLY5rhAS_14thiserror_impl3ast7VariantENCNvNtB1l_6expand9impl_enums1_0ENtNtNtBa_6traits8iterator8Iterator7collectINtNtCse1nGBsou5OW_5alloc3vec3VecNtCs3cP53eQoTwO_11proc_macro211TokenStreamEEB1l_, symObjAddr: 0x1ADC, symBinAddr: 0x2E82C, symSize: 0x1C }
  - { offset: 0x9450D, size: 0x8, addend: 0x0, symName: __RINvYINtNtNtNtCsfvfooZQ3Axs_4core4iter8adapters3map3MapINtNtNtBc_5slice4iter4IterNtNtCsjOFMLY5rhAS_14thiserror_impl3ast7VariantENCNvNtB1l_6expand9impl_enums1_0ENtNtNtBa_6traits8iterator8Iterator8for_eachNCINvMsi_NtCse1nGBsou5OW_5alloc3vecINtB3o_3VecNtCs3cP53eQoTwO_11proc_macro211TokenStreamE14extend_trustedB3_E0EB1l_, symObjAddr: 0x1AF8, symBinAddr: 0x2E848, symSize: 0x34 }
  - { offset: 0x94579, size: 0x8, addend: 0x0, symName: __RINvYINtNtNtNtCsfvfooZQ3Axs_4core4iter8adapters3map3MapNtNtCs6IAuOt8vWmF_3syn8generics10TypeParamsNCNvMNtCsjOFMLY5rhAS_14thiserror_impl8genericsNtB1D_13ParamsInScope3new0ENtNtNtBa_6traits8iterator8Iterator7collectINtNtCse1nGBsou5OW_5alloc3vec3VecRNtCs3cP53eQoTwO_11proc_macro25IdentEEB1F_, symObjAddr: 0x1B2C, symBinAddr: 0x2E87C, symSize: 0x34 }
  - { offset: 0x945B9, size: 0x8, addend: 0x0, symName: __RINvYINtNtNtNtCsfvfooZQ3Axs_4core4iter8adapters3map3MapNtNtCs6IAuOt8vWmF_3syn8generics10TypeParamsNCNvMNtCsjOFMLY5rhAS_14thiserror_impl8genericsNtB1D_13ParamsInScope3new0ENtNtNtBa_6traits8iterator8Iterator7collectINtNtNtNtCse1nGBsou5OW_5alloc11collections5btree3set8BTreeSetRNtCs3cP53eQoTwO_11proc_macro25IdentEEB1F_, symObjAddr: 0x1B60, symBinAddr: 0x2E8B0, symSize: 0x2C }
  - { offset: 0x945F9, size: 0x8, addend: 0x0, symName: __RINvYNtNtCs3cP53eQoTwO_11proc_macro212token_stream8IntoIterNtNtNtNtCsfvfooZQ3Axs_4core4iter6traits8iterator8Iterator4folduNCINvNvBV_8for_each4callNtB7_9TokenTreeNCINvXsa_NtB7_8fallbackNtB2I_11TokenStreamINtNtBZ_7collect6ExtendB2k_E6extendNtB7_11TokenStreamE0E0ECsjOFMLY5rhAS_14thiserror_impl, symObjAddr: 0x1B8C, symBinAddr: 0x2E8DC, symSize: 0x10C }
  - { offset: 0x9468A, size: 0x8, addend: 0x0, symName: __RINvYNtNtCs3cP53eQoTwO_11proc_macro212token_stream8IntoIterNtNtNtNtCsfvfooZQ3Axs_4core4iter6traits8iterator8Iterator8for_eachNCINvXsa_NtB7_8fallbackNtB28_11TokenStreamINtNtBZ_7collect6ExtendNtB7_9TokenTreeE6extendNtB7_11TokenStreamE0ECsjOFMLY5rhAS_14thiserror_impl, symObjAddr: 0x1C98, symBinAddr: 0x2E9E8, symSize: 0x24 }
  - { offset: 0x946D6, size: 0x8, addend: 0x0, symName: __RNvYINtNtNtNtCsfvfooZQ3Axs_4core4iter8adapters3map3MapINtNtNtBb_5slice4iter4IterNtNtCsjOFMLY5rhAS_14thiserror_impl3ast5FieldENCNvNtB1k_6expand10fields_pat0ENtNtNtB9_6traits8iterator8Iterator8peekableB1k_, symObjAddr: 0x2878, symBinAddr: 0x2F5C8, symSize: 0x3C }
  - { offset: 0x94722, size: 0x8, addend: 0x0, symName: __RNvYINtNtNtNtCsfvfooZQ3Axs_4core4iter8adapters3map3MapINtNtNtCse1nGBsou5OW_5alloc3vec9into_iter8IntoIterRNtCs3cP53eQoTwO_11proc_macro25IdentENCINvMse_NtNtNtBX_11collections5btree3setINtB2o_8BTreeSetB1E_E16from_sorted_iterBQ_E0ENtNtNtB9_6traits8iterator8Iterator8peekableCsjOFMLY5rhAS_14thiserror_impl, symObjAddr: 0x28FC, symBinAddr: 0x2F64C, symSize: 0x34 }
  - { offset: 0x9477A, size: 0x8, addend: 0x0, symName: __RNvXNtNtNtCsfvfooZQ3Axs_4core4iter6traits7collectINtNtNtB6_8adapters3map3MapINtNtBQ_9enumerate9EnumerateINtNtCs6IAuOt8vWmF_3syn10punctuated4IterNtNtB1J_4data5FieldEENCNvMs2_NtCsjOFMLY5rhAS_14thiserror_impl3astNtB2L_5Field17multiple_from_syn0ENtB2_12IntoIterator9into_iterB2N_, symObjAddr: 0x21E4, symBinAddr: 0x2EF34, symSize: 0x30 }
  - { offset: 0x947B2, size: 0x8, addend: 0x0, symName: __RNvXNtNtNtCsfvfooZQ3Axs_4core4iter6traits7collectINtNtNtB6_8adapters3map3MapINtNtCs6IAuOt8vWmF_3syn10punctuated4IterNtNtB1h_4data7VariantENCNvMs0_NtCsjOFMLY5rhAS_14thiserror_impl3astNtB2k_4Enum8from_syn0ENtB2_12IntoIterator9into_iterB2m_, symObjAddr: 0x2214, symBinAddr: 0x2EF64, symSize: 0x30 }
  - { offset: 0x947EA, size: 0x8, addend: 0x0, symName: __RNvXNtNtNtCsfvfooZQ3Axs_4core4iter6traits7collectINtNtNtB6_8adapters3map3MapINtNtNtB8_5slice4iter4IterNtNtCsjOFMLY5rhAS_14thiserror_impl3ast7VariantENCNvNtB1G_6expand9impl_enums1_0ENtB2_12IntoIterator9into_iterB1G_, symObjAddr: 0x2244, symBinAddr: 0x2EF94, symSize: 0x14 }
  - { offset: 0x94821, size: 0x8, addend: 0x0, symName: __RNvXNtNtNtCsfvfooZQ3Axs_4core4iter6traits7collectINtNtNtB6_8adapters3map3MapINtNtNtCse1nGBsou5OW_5alloc3vec9into_iter8IntoIterRNtCs3cP53eQoTwO_11proc_macro25IdentENCINvMse_NtNtNtB1j_11collections5btree3setINtB2K_8BTreeSetB20_E16from_sorted_iterB1c_E0ENtB2_12IntoIterator9into_iterCsjOFMLY5rhAS_14thiserror_impl, symObjAddr: 0x2258, symBinAddr: 0x2EFA8, symSize: 0x14 }
  - { offset: 0x94858, size: 0x8, addend: 0x0, symName: __RNvXNtNtNtCsfvfooZQ3Axs_4core4iter6traits7collectINtNtNtB6_8adapters3map3MapNtNtCs6IAuOt8vWmF_3syn8generics10TypeParamsNCNvMNtCsjOFMLY5rhAS_14thiserror_impl8genericsNtB1Y_13ParamsInScope3new0ENtB2_12IntoIterator9into_iterB20_, symObjAddr: 0x226C, symBinAddr: 0x2EFBC, symSize: 0x1C }
  - { offset: 0x96A4F, size: 0x8, addend: 0x0, symName: __RNvXs0_NtCs6IAuOt8vWmF_3syn5tokenNtNtB7_9lookahead3EndNtB5_5Token4peekCsjOFMLY5rhAS_14thiserror_impl, symObjAddr: 0x2288, symBinAddr: 0x2EFD8, symSize: 0x3C }
  - { offset: 0x9B6B8, size: 0x8, addend: 0x0, symName: __RINvMNtCs6IAuOt8vWmF_3syn9lookaheadNtB3_10Lookahead14peekINvNvNtCsjOFMLY5rhAS_14thiserror_impl4attr21parse_error_attribute11transparentNtB3_11TokenMarkerEEB10_, symObjAddr: 0x0, symBinAddr: 0x2CD50, symSize: 0x44 }
  - { offset: 0x9B75C, size: 0x8, addend: 0x0, symName: __RINvMNtNtNtNtCsfvfooZQ3Axs_4core5slice4sort6stable5mergeINtB3_10MergeStateRNtCs3cP53eQoTwO_11proc_macro25IdentE10merge_downNvYB1a_NtNtBb_3cmp10PartialOrd2ltECsjOFMLY5rhAS_14thiserror_impl, symObjAddr: 0x44, symBinAddr: 0x2CD94, symSize: 0x1C8 }
  - { offset: 0x9B8F2, size: 0x8, addend: 0x0, symName: __RINvMNtNtNtNtCsfvfooZQ3Axs_4core5slice4sort6stable5mergeINtB3_10MergeStateRNtCs3cP53eQoTwO_11proc_macro25IdentE8merge_upNvYB1a_NtNtBb_3cmp10PartialOrd2ltECsjOFMLY5rhAS_14thiserror_impl, symObjAddr: 0x20C, symBinAddr: 0x2CF5C, symSize: 0x188 }
  - { offset: 0x9BC2B, size: 0x8, addend: 0x0, symName: __RNCINvNtCsloNvcHxBCre_9hashbrown3map14equivalent_keyNtNtCs6IAuOt8vWmF_3syn4expr6MemberRBO_jE0CsjOFMLY5rhAS_14thiserror_impl, symObjAddr: 0x1CF8, symBinAddr: 0x2EA48, symSize: 0x30 }
  - { offset: 0x9BC82, size: 0x8, addend: 0x0, symName: __RNCINvNtCsloNvcHxBCre_9hashbrown3map14equivalent_keyRNtNtCs6IAuOt8vWmF_3syn4expr6MemberBO_jE0CsjOFMLY5rhAS_14thiserror_impl, symObjAddr: 0x1D28, symBinAddr: 0x2EA78, symSize: 0x30 }
  - { offset: 0x9BEA6, size: 0x8, addend: 0x0, symName: __RNCINvNtCsloNvcHxBCre_9hashbrown3map11make_hasherRNtNtCs6IAuOt8vWmF_3syn4expr6MemberjNtNtNtCscOYdFFY2T5N_3std4hash6random11RandomStateE0CsjOFMLY5rhAS_14thiserror_impl, symObjAddr: 0x1CBC, symBinAddr: 0x2EA0C, symSize: 0x3C }
  - { offset: 0x9C0ED, size: 0x8, addend: 0x0, symName: __RINvMs1_NtCsloNvcHxBCre_9hashbrown3mapINtB6_7HashMapRNtNtCs6IAuOt8vWmF_3syn4expr6MemberjNtNtNtCscOYdFFY2T5N_3std4hash6random11RandomStateE9get_innerBP_ECsjOFMLY5rhAS_14thiserror_impl, symObjAddr: 0x394, symBinAddr: 0x2D0E4, symSize: 0xF8 }
  - { offset: 0x9C3A1, size: 0x8, addend: 0x0, symName: __RNvYINtNtNtNtCsfvfooZQ3Axs_4core4iter8adapters3map3MapINtNtB7_8peekable8PeekableIB3_INtNtNtBb_5slice4iter4IterNtNtCsjOFMLY5rhAS_14thiserror_impl3ast5FieldENCNvNtB1O_6expand10fields_pat0EENCB2v_s_0ENtNtNtCs2cqEZUIJimJ_5quote9___private3ext14RepIteratorExt15quote_into_iterB1O_, symObjAddr: 0x2854, symBinAddr: 0x2F5A4, symSize: 0x24 }
  - { offset: 0x9C3D6, size: 0x8, addend: 0x0, symName: __RNvYINtNtNtNtCsfvfooZQ3Axs_4core4iter8adapters3map3MapINtNtNtBb_5slice4iter4IterNtNtCsjOFMLY5rhAS_14thiserror_impl3ast7VariantENCNvNtB1k_6expand9impl_enum0ENtNtNtCs2cqEZUIJimJ_5quote9___private3ext14RepIteratorExt15quote_into_iterB1k_, symObjAddr: 0x28B4, symBinAddr: 0x2F604, symSize: 0x24 }
  - { offset: 0x9C40B, size: 0x8, addend: 0x0, symName: __RNvYINtNtNtNtCsfvfooZQ3Axs_4core4iter8adapters3map3MapINtNtNtBb_5slice4iter4IterNtNtCsjOFMLY5rhAS_14thiserror_impl3ast7VariantENCNvNtB1k_6expand9impl_enums_0ENtNtNtCs2cqEZUIJimJ_5quote9___private3ext14RepIteratorExt15quote_into_iterB1k_, symObjAddr: 0x28D8, symBinAddr: 0x2F628, symSize: 0x24 }
  - { offset: 0x9C455, size: 0x8, addend: 0x0, symName: __RNvYNtNtCs6IAuOt8vWmF_3syn5token8SelfTypeNtNtCs2cqEZUIJimJ_5quote9to_tokens8ToTokens15to_token_streamCsjOFMLY5rhAS_14thiserror_impl, symObjAddr: 0x2930, symBinAddr: 0x2F680, symSize: 0x8C }
  - { offset: 0x9C4E7, size: 0x8, addend: 0x0, symName: __RINvMs_NtNtCsfvfooZQ3Axs_4core3fmt2rtNtB5_8Argument11new_displayINtNtCs2cqEZUIJimJ_5quote9___private20IdentFragmentAdapterRNtCs3cP53eQoTwO_11proc_macro25IdentEECsjOFMLY5rhAS_14thiserror_impl, symObjAddr: 0x48C, symBinAddr: 0x2D1DC, symSize: 0x2C }
  - { offset: 0x9C581, size: 0x8, addend: 0x0, symName: __RINvMs_NtNtCsfvfooZQ3Axs_4core3fmt2rtNtB5_8Argument11new_displayINtNtCs2cqEZUIJimJ_5quote9___private20IdentFragmentAdapterRNtNtCs6IAuOt8vWmF_3syn4expr5IndexEECsjOFMLY5rhAS_14thiserror_impl, symObjAddr: 0x4B8, symBinAddr: 0x2D208, symSize: 0x2C }
  - { offset: 0x9C61B, size: 0x8, addend: 0x0, symName: __RINvMs_NtNtCsfvfooZQ3Axs_4core3fmt2rtNtB5_8Argument11new_displayINtNtCs2cqEZUIJimJ_5quote9___private20IdentFragmentAdapterRRNtNtCs6IAuOt8vWmF_3syn4expr5IndexEECsjOFMLY5rhAS_14thiserror_impl, symObjAddr: 0x4E4, symBinAddr: 0x2D234, symSize: 0x2C }
  - { offset: 0x9C6B5, size: 0x8, addend: 0x0, symName: __RINvMs_NtNtCsfvfooZQ3Axs_4core3fmt2rtNtB5_8Argument11new_displayINtNtCs2cqEZUIJimJ_5quote9___private20IdentFragmentAdapterRmEECsjOFMLY5rhAS_14thiserror_impl, symObjAddr: 0x510, symBinAddr: 0x2D260, symSize: 0x2C }
  - { offset: 0x9C75C, size: 0x8, addend: 0x0, symName: __RINvMs_NtNtCsfvfooZQ3Axs_4core3fmt2rtNtB5_8Argument11new_displayNtNtNtCs6IAuOt8vWmF_3syn4attr7parsing16DisplayAttrStyleECsjOFMLY5rhAS_14thiserror_impl, symObjAddr: 0x53C, symBinAddr: 0x2D28C, symSize: 0x2C }
  - { offset: 0x9D18A, size: 0x8, addend: 0x0, symName: __RNvMs1_NtCsloNvcHxBCre_9hashbrown3mapINtB5_7HashMapRNtNtCs6IAuOt8vWmF_3syn4expr6MemberjNtNtNtCscOYdFFY2T5N_3std4hash6random11RandomStateE6insertCsjOFMLY5rhAS_14thiserror_impl, symObjAddr: 0x2040, symBinAddr: 0x2ED90, symSize: 0x1A4 }
  - { offset: 0x9D86F, size: 0x8, addend: 0x0, symName: __RINvMNtCs6IAuOt8vWmF_3syn4attrNtB3_9Attribute15parse_args_withNCNvNtCsjOFMLY5rhAS_14thiserror_impl4attr21parse_error_attribute0EB14_, symObjAddr: 0x0, symBinAddr: 0x2F70C, symSize: 0x368 }
  - { offset: 0x9E37B, size: 0x8, addend: 0x0, symName: __RNvXs0_NtCs6IAuOt8vWmF_3syn5tokenNtNvNtCsjOFMLY5rhAS_14thiserror_impl4attr21parse_error_attribute11transparentNtB5_5Token4peekBB_, symObjAddr: 0x9F8, symBinAddr: 0x30104, symSize: 0x3C }
  - { offset: 0x9E3B0, size: 0x8, addend: 0x0, symName: __RNvXs0_NtCs6IAuOt8vWmF_3syn5tokenNtNvNtCsjOFMLY5rhAS_14thiserror_impl4attr21parse_error_attribute11transparentNtB5_5Token7displayBB_, symObjAddr: 0xA34, symBinAddr: 0x30140, symSize: 0x24 }
  - { offset: 0xA25F5, size: 0x8, addend: 0x0, symName: __RNvXsh_NtCs6IAuOt8vWmF_3syn5parseNCNvNtCsjOFMLY5rhAS_14thiserror_impl4attr21parse_error_attribute0NtB5_6Parser14___parse_scopedBB_, symObjAddr: 0xCEC, symBinAddr: 0x303F8, symSize: 0x364 }
  - { offset: 0xA3B2F, size: 0x8, addend: 0x0, symName: __RNvXs_NtNtNtCse1nGBsou5OW_5alloc11collections5btree17dedup_sorted_iterINtB4_15DedupSortedIterRNtCs3cP53eQoTwO_11proc_macro25IdentNtNtB6_7set_val9SetValZSTINtNtNtNtCsfvfooZQ3Axs_4core4iter8adapters3map3MapINtNtNtBa_3vec9into_iter8IntoIterB1t_ENCINvMse_NtB6_3setINtB41_8BTreeSetB1t_E16from_sorted_iterB3g_E0EENtNtNtB2z_6traits8iterator8Iterator4nextCsjOFMLY5rhAS_14thiserror_impl, symObjAddr: 0xB20, symBinAddr: 0x3022C, symSize: 0x164 }
  - { offset: 0xA7DC2, size: 0x8, addend: 0x0, symName: __RNvNtNtNtNtCsfvfooZQ3Axs_4core9core_arch10arm_shared4neon9generated18vreinterpret_s8_u8CsjOFMLY5rhAS_14thiserror_impl, symObjAddr: 0x70C, symBinAddr: 0x2FE18, symSize: 0xC }
  - { offset: 0xA7DF0, size: 0x8, addend: 0x0, symName: __RNvNtNtNtNtCsfvfooZQ3Axs_4core9core_arch10arm_shared4neon9generated19vreinterpret_u64_u8CsjOFMLY5rhAS_14thiserror_impl, symObjAddr: 0x718, symBinAddr: 0x2FE24, symSize: 0xC }
  - { offset: 0xA7E1E, size: 0x8, addend: 0x0, symName: __RNvNtNtNtNtCsfvfooZQ3Axs_4core9core_arch10arm_shared4neon9generated7vceq_u8CsjOFMLY5rhAS_14thiserror_impl, symObjAddr: 0x724, symBinAddr: 0x2FE30, symSize: 0x14 }
  - { offset: 0xA7E5B, size: 0x8, addend: 0x0, symName: __RNvNtNtNtNtCsfvfooZQ3Axs_4core9core_arch10arm_shared4neon9generated7vorr_u8CsjOFMLY5rhAS_14thiserror_impl, symObjAddr: 0x738, symBinAddr: 0x2FE44, symSize: 0x14 }
  - { offset: 0xA7F1B, size: 0x8, addend: 0x0, symName: __RNvNvNtNtCsfvfooZQ3Axs_4core4char7convert18from_u32_unchecked18precondition_checkCsjOFMLY5rhAS_14thiserror_impl, symObjAddr: 0x74C, symBinAddr: 0x2FE58, symSize: 0x98 }
  - { offset: 0xA7FB1, size: 0x8, addend: 0x0, symName: __RNvNvXs0_NtNtCsfvfooZQ3Axs_4core5slice5indexjINtB7_10SliceIndexSpE13get_unchecked18precondition_checkCsjOFMLY5rhAS_14thiserror_impl, symObjAddr: 0x7E4, symBinAddr: 0x2FEF0, symSize: 0x40 }
  - { offset: 0xA7FED, size: 0x8, addend: 0x0, symName: __RNvNvXs0_NtNtCsfvfooZQ3Axs_4core5slice5indexjINtB7_10SliceIndexSpE17get_unchecked_mut18precondition_checkCsjOFMLY5rhAS_14thiserror_impl, symObjAddr: 0x824, symBinAddr: 0x2FF30, symSize: 0x40 }
  - { offset: 0xA8024, size: 0x8, addend: 0x0, symName: __RNvXs0_NtNtCsfvfooZQ3Axs_4core5slice5indexjINtB5_10SliceIndexSNtNtCsjOFMLY5rhAS_14thiserror_impl3ast5FieldE5indexB12_, symObjAddr: 0xA58, symBinAddr: 0x30164, symSize: 0x64 }
  - { offset: 0xA806A, size: 0x8, addend: 0x0, symName: __RNvXs0_NtNtCsfvfooZQ3Axs_4core5slice5indexjINtB5_10SliceIndexSTNtNtCs6IAuOt8vWmF_3syn4path15GenericArgumentNtNtB13_5token5CommaEE5indexCsjOFMLY5rhAS_14thiserror_impl, symObjAddr: 0xABC, symBinAddr: 0x301C8, symSize: 0x64 }
  - { offset: 0xA80BB, size: 0x8, addend: 0x0, symName: __RNvNvXs1_NtNtCsfvfooZQ3Axs_4core5slice5indexNtNtNtBb_3ops11index_range10IndexRangeINtB7_10SliceIndexSpE17get_unchecked_mut18precondition_checkCsjOFMLY5rhAS_14thiserror_impl, symObjAddr: 0x864, symBinAddr: 0x2FF70, symSize: 0x40 }
  - { offset: 0xA80FD, size: 0x8, addend: 0x0, symName: __RNvNvXs2_NtNtCsfvfooZQ3Axs_4core5slice5indexINtNtNtBb_3ops5range5RangejEINtB7_10SliceIndexSpE13get_unchecked18precondition_checkCsjOFMLY5rhAS_14thiserror_impl, symObjAddr: 0x8A4, symBinAddr: 0x2FFB0, symSize: 0x60 }
  - { offset: 0xA8147, size: 0x8, addend: 0x0, symName: __RNvNvXs2_NtNtCsfvfooZQ3Axs_4core5slice5indexINtNtNtBb_3ops5range5RangejEINtB7_10SliceIndexSpE17get_unchecked_mut18precondition_checkCsjOFMLY5rhAS_14thiserror_impl, symObjAddr: 0x904, symBinAddr: 0x30010, symSize: 0x60 }
  - { offset: 0xA820B, size: 0x8, addend: 0x0, symName: __RNvXNtCsfvfooZQ3Axs_4core6borrowTjNtNtCsjOFMLY5rhAS_14thiserror_impl4attr5TraitEINtB2_6BorrowBu_E6borrowBA_, symObjAddr: 0x9E4, symBinAddr: 0x300F0, symSize: 0x14 }
  - { offset: 0xA837B, size: 0x8, addend: 0x0, symName: __RNvXse_NtCsfvfooZQ3Axs_4core5tupleTjNtNtCsjOFMLY5rhAS_14thiserror_impl4attr5TraitENtNtB7_3cmp3Ord3cmpBC_, symObjAddr: 0xC84, symBinAddr: 0x30390, symSize: 0x68 }
  - { offset: 0xA83F0, size: 0x8, addend: 0x0, symName: __RNvYNtNtCsjOFMLY5rhAS_14thiserror_impl4attr7DisplayNtNtCsfvfooZQ3Axs_4core5clone5Clone10clone_fromB6_, symObjAddr: 0x11F4, symBinAddr: 0x30900, symSize: 0x84 }
  - { offset: 0xA85E6, size: 0x8, addend: 0x0, symName: __RNCNvMs3_NtNtCscOYdFFY2T5N_3std6thread5localINtB7_8LocalKeyINtNtCsfvfooZQ3Axs_4core4cell4CellPuEE7replace0CsjOFMLY5rhAS_14thiserror_impl, symObjAddr: 0x6E4, symBinAddr: 0x2FDF0, symSize: 0x28 }
  - { offset: 0xA8839, size: 0x8, addend: 0x0, symName: __RNCNvNtCsjOFMLY5rhAS_14thiserror_impl4attr21parse_error_attribute0B5_, symObjAddr: 0x1C08, symBinAddr: 0x31314, symSize: 0x7D8 }
  - { offset: 0xA89BE, size: 0x8, addend: 0x0, symName: __RNvXs_NvNvNtCsjOFMLY5rhAS_14thiserror_impl4attr21parse_error_attribute1__NtB6_11transparentNtNtNtCs6IAuOt8vWmF_3syn5token7private11CustomToken4peek, symObjAddr: 0x5BC0, symBinAddr: 0x352CC, symSize: 0x134 }
  - { offset: 0xA8A0E, size: 0x8, addend: 0x0, symName: __RNvXs_NvNvNtCsjOFMLY5rhAS_14thiserror_impl4attr21parse_error_attribute1__NtB6_11transparentNtNtNtCs6IAuOt8vWmF_3syn5token7private11CustomToken7display, symObjAddr: 0x5CF4, symBinAddr: 0x35400, symSize: 0x24 }
  - { offset: 0xA8A31, size: 0x8, addend: 0x0, symName: __RNvXs0_NvNvNtCsjOFMLY5rhAS_14thiserror_impl4attr21parse_error_attribute1__NtB7_11transparentNtNtCs6IAuOt8vWmF_3syn5parse5Parse5parse, symObjAddr: 0x5D18, symBinAddr: 0x35424, symSize: 0x34 }
  - { offset: 0xA8A62, size: 0x8, addend: 0x0, symName: __RNCNvXs0_NvNvNtCsjOFMLY5rhAS_14thiserror_impl4attr21parse_error_attribute1__NtB9_11transparentNtNtCs6IAuOt8vWmF_3syn5parse5Parse5parse0Bd_, symObjAddr: 0x5D4C, symBinAddr: 0x35458, symSize: 0x1F8 }
  - { offset: 0xA8BC2, size: 0x8, addend: 0x0, symName: __RNvNtCsjOFMLY5rhAS_14thiserror_impl4attr3get, symObjAddr: 0x152C, symBinAddr: 0x30C38, symSize: 0x68C }
  - { offset: 0xA8C7A, size: 0x8, addend: 0x0, symName: __RNvNtCsjOFMLY5rhAS_14thiserror_impl4attr21parse_error_attribute, symObjAddr: 0x1BB8, symBinAddr: 0x312C4, symSize: 0x50 }
  - { offset: 0xA8CB4, size: 0x8, addend: 0x0, symName: __RNvNtCsjOFMLY5rhAS_14thiserror_impl4attr16parse_token_expr, symObjAddr: 0x23E0, symBinAddr: 0x31AEC, symSize: 0x1ACC }
  - { offset: 0xA9212, size: 0x8, addend: 0x0, symName: __RNvXNtCsjOFMLY5rhAS_14thiserror_impl4attrNtB2_7DisplayNtNtCs2cqEZUIJimJ_5quote9to_tokens8ToTokens9to_tokens, symObjAddr: 0x3EAC, symBinAddr: 0x335B8, symSize: 0x2A8 }
  - { offset: 0xA92D4, size: 0x8, addend: 0x0, symName: __RNvXs_NtCsjOFMLY5rhAS_14thiserror_impl4attrNtB4_5TraitNtNtCs2cqEZUIJimJ_5quote9to_tokens8ToTokens9to_tokens, symObjAddr: 0x4154, symBinAddr: 0x33860, symSize: 0x348 }
  - { offset: 0xA935D, size: 0x8, addend: 0x0, symName: __RNvXs0_NtCsjOFMLY5rhAS_14thiserror_impl4attrNtB5_7DisplayNtNtCsfvfooZQ3Axs_4core5clone5Clone5cloneB7_, symObjAddr: 0x5A5C, symBinAddr: 0x35168, symSize: 0x108 }
  - { offset: 0xA938F, size: 0x8, addend: 0x0, symName: __RNvXs4_NtCsjOFMLY5rhAS_14thiserror_impl4attrNtB5_5TraitNtNtCsfvfooZQ3Axs_4core5clone5Clone5cloneB7_, symObjAddr: 0x5B64, symBinAddr: 0x35270, symSize: 0x18 }
  - { offset: 0xA93C1, size: 0x8, addend: 0x0, symName: __RNvXs8_NtCsjOFMLY5rhAS_14thiserror_impl4attrNtB5_5TraitNtNtCsfvfooZQ3Axs_4core3cmp3Ord3cmpB7_, symObjAddr: 0x5B7C, symBinAddr: 0x35288, symSize: 0x44 }
  - { offset: 0xA9B02, size: 0x8, addend: 0x0, symName: __RINvMNtCs6IAuOt8vWmF_3syn4attrNtB3_9Attribute15parse_args_withNCNvNtCsjOFMLY5rhAS_14thiserror_impl4attr21parse_error_attribute0EB14_, symObjAddr: 0x0, symBinAddr: 0x2F70C, symSize: 0x368 }
  - { offset: 0xA9BE4, size: 0x8, addend: 0x0, symName: __RINvMs0_NtCs6IAuOt8vWmF_3syn4attrNtB6_8MetaList15parse_args_withNCNvNtCsjOFMLY5rhAS_14thiserror_impl4attr21parse_error_attribute0EB16_, symObjAddr: 0x368, symBinAddr: 0x2FA74, symSize: 0x10C }
  - { offset: 0xA9C75, size: 0x8, addend: 0x0, symName: __RINvMs2_NtNtCscOYdFFY2T5N_3std6thread5localINtB6_8LocalKeyINtNtCsfvfooZQ3Axs_4core4cell4CellPuEE4withNCNvMs3_B6_BF_7replace0B1s_ECsjOFMLY5rhAS_14thiserror_impl, symObjAddr: 0x474, symBinAddr: 0x2FB80, symSize: 0x54 }
  - { offset: 0xA9D2E, size: 0x8, addend: 0x0, symName: __RINvMs2_NtNtCscOYdFFY2T5N_3std6thread5localINtB6_8LocalKeyINtNtCsfvfooZQ3Axs_4core4cell4CellPuEE8try_withNCNvMs3_B6_BF_7replace0B1s_ECsjOFMLY5rhAS_14thiserror_impl, symObjAddr: 0x4C8, symBinAddr: 0x2FBD4, symSize: 0xE4 }
  - { offset: 0xA9EC0, size: 0x8, addend: 0x0, symName: __RINvMs2_NtNtCscOYdFFY2T5N_3std6thread5localINtB6_8LocalKeyINtNtCsfvfooZQ3Axs_4core4cell4CellTyyEEE4withNCNvMNtNtBa_4hash6randomNtB1I_11RandomState3new0B21_ECsjOFMLY5rhAS_14thiserror_impl, symObjAddr: 0x5AC, symBinAddr: 0x2FCB8, symSize: 0x50 }
  - { offset: 0xA9F79, size: 0x8, addend: 0x0, symName: __RINvMs2_NtNtCscOYdFFY2T5N_3std6thread5localINtB6_8LocalKeyINtNtCsfvfooZQ3Axs_4core4cell4CellTyyEEE8try_withNCNvMNtNtBa_4hash6randomNtB1M_11RandomState3new0B25_ECsjOFMLY5rhAS_14thiserror_impl, symObjAddr: 0x5FC, symBinAddr: 0x2FD08, symSize: 0xE8 }
  - { offset: 0xAA10B, size: 0x8, addend: 0x0, symName: __RNvXNtCs2cqEZUIJimJ_5quote9to_tokensRNtNtCsjOFMLY5rhAS_14thiserror_impl4attr7DisplayNtB2_8ToTokens9to_tokensBD_, symObjAddr: 0x964, symBinAddr: 0x30070, symSize: 0x40 }
  - { offset: 0xAA14A, size: 0x8, addend: 0x0, symName: __RNvXNtCs2cqEZUIJimJ_5quote9to_tokensRRNtNtCs6IAuOt8vWmF_3syn4attr9AttributeNtB2_8ToTokens9to_tokensCsjOFMLY5rhAS_14thiserror_impl, symObjAddr: 0x9A4, symBinAddr: 0x300B0, symSize: 0x40 }
  - { offset: 0xAA18F, size: 0x8, addend: 0x0, symName: __RNvYNtNtCs6IAuOt8vWmF_3syn2ty4TypeNtNtCs2cqEZUIJimJ_5quote9to_tokens8ToTokens15to_token_streamCsjOFMLY5rhAS_14thiserror_impl, symObjAddr: 0x1050, symBinAddr: 0x3075C, symSize: 0x8C }
  - { offset: 0xAA1D9, size: 0x8, addend: 0x0, symName: __RNvYNtNtCsjOFMLY5rhAS_14thiserror_impl4attr5TraitNtNtCs2cqEZUIJimJ_5quote9to_tokens8ToTokens15to_token_streamB6_, symObjAddr: 0x10DC, symBinAddr: 0x307E8, symSize: 0x8C }
  - { offset: 0xAA223, size: 0x8, addend: 0x0, symName: __RNvYNtNtCsjOFMLY5rhAS_14thiserror_impl4attr7DisplayNtNtCs2cqEZUIJimJ_5quote9to_tokens8ToTokens15to_token_streamB6_, symObjAddr: 0x1168, symBinAddr: 0x30874, symSize: 0x8C }
  - { offset: 0xAA26D, size: 0x8, addend: 0x0, symName: __RNvYRNtNtCs6IAuOt8vWmF_3syn4attr9AttributeNtNtCs2cqEZUIJimJ_5quote9to_tokens8ToTokens15to_token_streamCsjOFMLY5rhAS_14thiserror_impl, symObjAddr: 0x1278, symBinAddr: 0x30984, symSize: 0x8C }
  - { offset: 0xAA2B7, size: 0x8, addend: 0x0, symName: __RNvYRNtNtCs6IAuOt8vWmF_3syn4attr9AttributeNtNtCs2cqEZUIJimJ_5quote9to_tokens8ToTokens17into_token_streamCsjOFMLY5rhAS_14thiserror_impl, symObjAddr: 0x1304, symBinAddr: 0x30A10, symSize: 0x54 }
  - { offset: 0xAA2EC, size: 0x8, addend: 0x0, symName: __RNvYRRNtNtCs6IAuOt8vWmF_3syn4attr9AttributeNtNtCs2cqEZUIJimJ_5quote9to_tokens8ToTokens15to_token_streamCsjOFMLY5rhAS_14thiserror_impl, symObjAddr: 0x1358, symBinAddr: 0x30A64, symSize: 0x8C }
  - { offset: 0xAA336, size: 0x8, addend: 0x0, symName: __RNvYRRNtNtCs6IAuOt8vWmF_3syn4attr9AttributeNtNtCs2cqEZUIJimJ_5quote9to_tokens8ToTokens17into_token_streamCsjOFMLY5rhAS_14thiserror_impl, symObjAddr: 0x13E4, symBinAddr: 0x30AF0, symSize: 0x54 }
  - { offset: 0xAA4EF, size: 0x8, addend: 0x0, symName: __RNvMs3_NtCsjOFMLY5rhAS_14thiserror_impl3astNtNtB7_4attr5Attrs4span, symObjAddr: 0x1438, symBinAddr: 0x30B44, symSize: 0xF4 }
  - { offset: 0xAA633, size: 0x8, addend: 0x0, symName: __RNvMNtCsjOFMLY5rhAS_14thiserror_impl3fmtNtNtB4_4attr7Display16expand_shorthand, symObjAddr: 0x449C, symBinAddr: 0x33BA8, symSize: 0x15C0 }
  - { offset: 0xAAD73, size: 0x8, addend: 0x0, symName: __RINvYNtNtCs6IAuOt8vWmF_3syn8generics10TypeParamsNtNtNtNtCsfvfooZQ3Axs_4core4iter6traits8iterator8Iterator3mapRNtCs3cP53eQoTwO_11proc_macro25IdentNCNvMNtCsjOFMLY5rhAS_14thiserror_impl8genericsNtB2o_13ParamsInScope3new0EB2q_, symObjAddr: 0x0, symBinAddr: 0x35650, symSize: 0x1C }
  - { offset: 0xAB7CE, size: 0x8, addend: 0x0, symName: __RNCNvMs_NtCsjOFMLY5rhAS_14thiserror_impl5validNtNtB8_3ast6Struct8validate0B8_, symObjAddr: 0x282C, symBinAddr: 0x37E7C, symSize: 0x2C }
  - { offset: 0xAB817, size: 0x8, addend: 0x0, symName: __RNCNvMs1_NtCsjOFMLY5rhAS_14thiserror_impl5validNtNtB9_3ast7Variant8validate0B9_, symObjAddr: 0x2858, symBinAddr: 0x37EA8, symSize: 0x2C }
  - { offset: 0xAB856, size: 0x8, addend: 0x0, symName: __RNvNtCsjOFMLY5rhAS_14thiserror_impl5valid21check_non_field_attrs, symObjAddr: 0x2884, symBinAddr: 0x37ED4, symSize: 0x240 }
  - { offset: 0xAB8E6, size: 0x8, addend: 0x0, symName: __RNvNtCsjOFMLY5rhAS_14thiserror_impl5valid17check_field_attrs, symObjAddr: 0x2AC4, symBinAddr: 0x38114, symSize: 0x650 }
  - { offset: 0xABA70, size: 0x8, addend: 0x0, symName: __RNvNtCsjOFMLY5rhAS_14thiserror_impl5valid11same_member, symObjAddr: 0x3114, symBinAddr: 0x38764, symSize: 0x138 }
  - { offset: 0xABB02, size: 0x8, addend: 0x0, symName: __RNvNtCsjOFMLY5rhAS_14thiserror_impl5valid28contains_non_static_lifetime, symObjAddr: 0x324C, symBinAddr: 0x3889C, symSize: 0x308 }
  - { offset: 0xABC1F, size: 0x8, addend: 0x0, symName: __RNCNvNtCsjOFMLY5rhAS_14thiserror_impl5valid28contains_non_static_lifetime0B5_, symObjAddr: 0x3554, symBinAddr: 0x38BA4, symSize: 0x3C }
  - { offset: 0xABF5F, size: 0x8, addend: 0x0, symName: __RINvYNtNtCs6IAuOt8vWmF_3syn8generics10TypeParamsNtNtNtNtCsfvfooZQ3Axs_4core4iter6traits8iterator8Iterator3mapRNtCs3cP53eQoTwO_11proc_macro25IdentNCNvMNtCsjOFMLY5rhAS_14thiserror_impl8genericsNtB2o_13ParamsInScope3new0EB2q_, symObjAddr: 0x0, symBinAddr: 0x35650, symSize: 0x1C }
  - { offset: 0xABFB7, size: 0x8, addend: 0x0, symName: __RNvYNtNtCs6IAuOt8vWmF_3syn8generics10TypeParamsNtNtNtNtCsfvfooZQ3Axs_4core4iter6traits8iterator8Iterator9size_hintCsjOFMLY5rhAS_14thiserror_impl, symObjAddr: 0x27F8, symBinAddr: 0x37E48, symSize: 0x34 }
  - { offset: 0xABFF9, size: 0x8, addend: 0x0, symName: __RNvXs3_NtNtCsfvfooZQ3Axs_4core4iter5rangeINtNtNtB9_3ops5range5RangejENtB5_17RangeIteratorImpl9spec_nextCsjOFMLY5rhAS_14thiserror_impl, symObjAddr: 0x22FC, symBinAddr: 0x3794C, symSize: 0x94 }
  - { offset: 0xAC07A, size: 0x8, addend: 0x0, symName: __RNvXs4_NtNtCsfvfooZQ3Axs_4core4iter5rangeINtNtNtB9_3ops5range5RangejENtNtNtB7_6traits8iterator8Iterator4nextCsjOFMLY5rhAS_14thiserror_impl, symObjAddr: 0x2390, symBinAddr: 0x379E0, symSize: 0x24 }
  - { offset: 0xAC0DE, size: 0x8, addend: 0x0, symName: __RNvXsc_NtNtCsfvfooZQ3Axs_4core4iter5rangeINtNtNtB9_3ops5range14RangeInclusivejENtB5_26RangeInclusiveIteratorImpl9spec_nextCsjOFMLY5rhAS_14thiserror_impl, symObjAddr: 0x25A8, symBinAddr: 0x37BF8, symSize: 0x100 }
  - { offset: 0xAC21B, size: 0x8, addend: 0x0, symName: __RNvXsd_NtNtCsfvfooZQ3Axs_4core4iter5rangeINtNtNtB9_3ops5range14RangeInclusivejENtNtNtB7_6traits8iterator8Iterator4nextCsjOFMLY5rhAS_14thiserror_impl, symObjAddr: 0x26A8, symBinAddr: 0x37CF8, symSize: 0x24 }
  - { offset: 0xAC263, size: 0x8, addend: 0x0, symName: __RNvXsh_NtNtNtCsfvfooZQ3Axs_4core4iter8adapters7step_byINtNtNtBb_3ops5range5RangejEINtB5_14SpecRangeSetupBQ_E5setupCsjOFMLY5rhAS_14thiserror_impl, symObjAddr: 0x26CC, symBinAddr: 0x37D1C, symSize: 0x12C }
  - { offset: 0xAFBA9, size: 0x8, addend: 0x0, symName: __RNcNtINtNtNtCsfvfooZQ3Axs_4core3ops12control_flow11ControlFlowNtNtCsjOFMLY5rhAS_14thiserror_impl3ast5FieldE5Break0B12_, symObjAddr: 0x59C, symBinAddr: 0x35BEC, symSize: 0x30 }
  - { offset: 0xAFBE4, size: 0x8, addend: 0x0, symName: __RNcNtINtNtNtCsfvfooZQ3Axs_4core3ops12control_flow11ControlFlowNtNtCsjOFMLY5rhAS_14thiserror_impl3ast7VariantE5Break0B12_, symObjAddr: 0x5CC, symBinAddr: 0x35C1C, symSize: 0x30 }
  - { offset: 0xAFC26, size: 0x8, addend: 0x0, symName: __RNvXNtNtCsfvfooZQ3Axs_4core3ops12control_flowINtB2_11ControlFlowIBI_NtNtCsjOFMLY5rhAS_14thiserror_impl3ast5FieldEENtNtB4_9try_trait3Try11from_outputB18_, symObjAddr: 0x1834, symBinAddr: 0x36E84, symSize: 0x18 }
  - { offset: 0xAFC64, size: 0x8, addend: 0x0, symName: __RNvXNtNtCsfvfooZQ3Axs_4core3ops12control_flowINtB2_11ControlFlowIBI_NtNtCsjOFMLY5rhAS_14thiserror_impl3ast5FieldEENtNtB4_9try_trait3Try6branchB18_, symObjAddr: 0x184C, symBinAddr: 0x36E9C, symSize: 0x94 }
  - { offset: 0xAFCDD, size: 0x8, addend: 0x0, symName: __RNvXNtNtCsfvfooZQ3Axs_4core3ops12control_flowINtB2_11ControlFlowIBI_NtNtCsjOFMLY5rhAS_14thiserror_impl3ast7VariantEENtNtB4_9try_trait3Try11from_outputB18_, symObjAddr: 0x18E0, symBinAddr: 0x36F30, symSize: 0x18 }
  - { offset: 0xAFD1B, size: 0x8, addend: 0x0, symName: __RNvXNtNtCsfvfooZQ3Axs_4core3ops12control_flowINtB2_11ControlFlowIBI_NtNtCsjOFMLY5rhAS_14thiserror_impl3ast7VariantEENtNtB4_9try_trait3Try6branchB18_, symObjAddr: 0x18F8, symBinAddr: 0x36F48, symSize: 0x94 }
  - { offset: 0xAFD94, size: 0x8, addend: 0x0, symName: __RNvXNtNtCsfvfooZQ3Axs_4core3ops12control_flowINtB2_11ControlFlowNtNtCsjOFMLY5rhAS_14thiserror_impl3ast5FieldENtNtB4_9try_trait3Try11from_outputB14_, symObjAddr: 0x198C, symBinAddr: 0x36FDC, symSize: 0x1C }
  - { offset: 0xAFDD2, size: 0x8, addend: 0x0, symName: __RNvXNtNtCsfvfooZQ3Axs_4core3ops12control_flowINtB2_11ControlFlowNtNtCsjOFMLY5rhAS_14thiserror_impl3ast5FieldENtNtB4_9try_trait3Try6branchB14_, symObjAddr: 0x19A8, symBinAddr: 0x36FF8, symSize: 0x9C }
  - { offset: 0xAFE4B, size: 0x8, addend: 0x0, symName: __RNvXNtNtCsfvfooZQ3Axs_4core3ops12control_flowINtB2_11ControlFlowNtNtCsjOFMLY5rhAS_14thiserror_impl3ast7VariantENtNtB4_9try_trait3Try11from_outputB14_, symObjAddr: 0x1A44, symBinAddr: 0x37094, symSize: 0x18 }
  - { offset: 0xAFE89, size: 0x8, addend: 0x0, symName: __RNvXNtNtCsfvfooZQ3Axs_4core3ops12control_flowINtB2_11ControlFlowNtNtCsjOFMLY5rhAS_14thiserror_impl3ast7VariantENtNtB4_9try_trait3Try6branchB14_, symObjAddr: 0x1A5C, symBinAddr: 0x370AC, symSize: 0x94 }
  - { offset: 0xAFF08, size: 0x8, addend: 0x0, symName: __RNvXs_NtNtCsfvfooZQ3Axs_4core3ops12control_flowINtB4_11ControlFlowIBK_NtNtCsjOFMLY5rhAS_14thiserror_impl3ast5FieldEEINtNtB6_9try_trait12FromResidualIBK_B12_NtNtB8_7convert10InfallibleEE13from_residualB1a_, symObjAddr: 0x2488, symBinAddr: 0x37AD8, symSize: 0x48 }
  - { offset: 0xAFF47, size: 0x8, addend: 0x0, symName: __RNvXs_NtNtCsfvfooZQ3Axs_4core3ops12control_flowINtB4_11ControlFlowIBK_NtNtCsjOFMLY5rhAS_14thiserror_impl3ast7VariantEEINtNtB6_9try_trait12FromResidualIBK_B12_NtNtB8_7convert10InfallibleEE13from_residualB1a_, symObjAddr: 0x24D0, symBinAddr: 0x37B20, symSize: 0x48 }
  - { offset: 0xAFF86, size: 0x8, addend: 0x0, symName: __RNvXs_NtNtCsfvfooZQ3Axs_4core3ops12control_flowINtB4_11ControlFlowNtNtCsjOFMLY5rhAS_14thiserror_impl3ast5FieldEINtNtB6_9try_trait12FromResidualIBK_B12_NtNtB8_7convert10InfallibleEE13from_residualB16_, symObjAddr: 0x2518, symBinAddr: 0x37B68, symSize: 0x48 }
  - { offset: 0xAFFC5, size: 0x8, addend: 0x0, symName: __RNvXs_NtNtCsfvfooZQ3Axs_4core3ops12control_flowINtB4_11ControlFlowNtNtCsjOFMLY5rhAS_14thiserror_impl3ast7VariantEINtNtB6_9try_trait12FromResidualIBK_B12_NtNtB8_7convert10InfallibleEE13from_residualB16_, symObjAddr: 0x2560, symBinAddr: 0x37BB0, symSize: 0x48 }
  - { offset: 0xB0815, size: 0x8, addend: 0x0, symName: __RNvXs2_NtNtCsfvfooZQ3Axs_4core5slice5indexINtNtNtB9_3ops5range5RangejEINtB5_10SliceIndexSINtNtNtB9_3mem12maybe_uninit11MaybeUninitINtNtNtB9_3ptr8non_null7NonNullINtNtNtNtCse1nGBsou5OW_5alloc11collections5btree4node8LeafNodeNtCs3cP53eQoTwO_11proc_macro25IdentNtNtB2E_7set_val9SetValZSTEEEE9index_mutCsjOFMLY5rhAS_14thiserror_impl, symObjAddr: 0x1B68, symBinAddr: 0x371B8, symSize: 0xC0 }
  - { offset: 0xB08DA, size: 0x8, addend: 0x0, symName: __RNvXs2_NtNtCsfvfooZQ3Axs_4core5slice5indexINtNtNtB9_3ops5range5RangejEINtB5_10SliceIndexSINtNtNtB9_3mem12maybe_uninit11MaybeUninitINtNtNtB9_3ptr8non_null7NonNullINtNtNtNtCse1nGBsou5OW_5alloc11collections5btree4node8LeafNodeNtNtB2I_6string6StringNtNtB2E_7set_val9SetValZSTEEEE9index_mutCsjOFMLY5rhAS_14thiserror_impl, symObjAddr: 0x1C28, symBinAddr: 0x37278, symSize: 0xC0 }
  - { offset: 0xB099F, size: 0x8, addend: 0x0, symName: __RNvXs2_NtNtCsfvfooZQ3Axs_4core5slice5indexINtNtNtB9_3ops5range5RangejEINtB5_10SliceIndexSINtNtNtB9_3mem12maybe_uninit11MaybeUninitINtNtNtB9_3ptr8non_null7NonNullINtNtNtNtCse1nGBsou5OW_5alloc11collections5btree4node8LeafNodeNtNtB2I_6string6StringTINtNtB2E_3set8BTreeSetB3z_EINtNtCs6IAuOt8vWmF_3syn10punctuated10PunctuatedNtCs3cP53eQoTwO_11proc_macro211TokenStreamNtNtB4s_5token4PlusEEEEEE9index_mutCsjOFMLY5rhAS_14thiserror_impl, symObjAddr: 0x1CE8, symBinAddr: 0x37338, symSize: 0xC0 }
  - { offset: 0xB0A64, size: 0x8, addend: 0x0, symName: __RNvXs2_NtNtCsfvfooZQ3Axs_4core5slice5indexINtNtNtB9_3ops5range5RangejEINtB5_10SliceIndexSINtNtNtB9_3mem12maybe_uninit11MaybeUninitINtNtNtB9_3ptr8non_null7NonNullINtNtNtNtCse1nGBsou5OW_5alloc11collections5btree4node8LeafNodeTjNtNtCsjOFMLY5rhAS_14thiserror_impl4attr5TraitENtNtB2E_7set_val9SetValZSTEEEE9index_mutB3F_, symObjAddr: 0x1DA8, symBinAddr: 0x373F8, symSize: 0xC0 }
  - { offset: 0xB0B29, size: 0x8, addend: 0x0, symName: __RNvXs2_NtNtCsfvfooZQ3Axs_4core5slice5indexINtNtNtB9_3ops5range5RangejEINtB5_10SliceIndexSINtNtNtB9_3mem12maybe_uninit11MaybeUninitNtCs3cP53eQoTwO_11proc_macro25IdentEE9index_mutCsjOFMLY5rhAS_14thiserror_impl, symObjAddr: 0x1E68, symBinAddr: 0x374B8, symSize: 0xC8 }
  - { offset: 0xB0BEE, size: 0x8, addend: 0x0, symName: __RNvXs2_NtNtCsfvfooZQ3Axs_4core5slice5indexINtNtNtB9_3ops5range5RangejEINtB5_10SliceIndexSINtNtNtB9_3mem12maybe_uninit11MaybeUninitNtNtCse1nGBsou5OW_5alloc6string6StringEE9index_mutCsjOFMLY5rhAS_14thiserror_impl, symObjAddr: 0x1F30, symBinAddr: 0x37580, symSize: 0xC8 }
  - { offset: 0xB0CB3, size: 0x8, addend: 0x0, symName: __RNvXs2_NtNtCsfvfooZQ3Axs_4core5slice5indexINtNtNtB9_3ops5range5RangejEINtB5_10SliceIndexSINtNtNtB9_3mem12maybe_uninit11MaybeUninitNtNtNtNtCse1nGBsou5OW_5alloc11collections5btree7set_val9SetValZSTEE9index_mutCsjOFMLY5rhAS_14thiserror_impl, symObjAddr: 0x1FF8, symBinAddr: 0x37648, symSize: 0xBC }
  - { offset: 0xB0D36, size: 0x8, addend: 0x0, symName: __RNvXs2_NtNtCsfvfooZQ3Axs_4core5slice5indexINtNtNtB9_3ops5range5RangejEINtB5_10SliceIndexSINtNtNtB9_3mem12maybe_uninit11MaybeUninitTINtNtNtNtCse1nGBsou5OW_5alloc11collections5btree3set8BTreeSetNtNtB2e_6string6StringEINtNtCs6IAuOt8vWmF_3syn10punctuated10PunctuatedNtCs3cP53eQoTwO_11proc_macro211TokenStreamNtNtB3w_5token4PlusEEEE9index_mutCsjOFMLY5rhAS_14thiserror_impl, symObjAddr: 0x20B4, symBinAddr: 0x37704, symSize: 0xC8 }
  - { offset: 0xB0DFB, size: 0x8, addend: 0x0, symName: __RNvXs2_NtNtCsfvfooZQ3Axs_4core5slice5indexINtNtNtB9_3ops5range5RangejEINtB5_10SliceIndexSINtNtNtB9_3mem12maybe_uninit11MaybeUninitTjNtNtCsjOFMLY5rhAS_14thiserror_impl4attr5TraitEEE9index_mutB2a_, symObjAddr: 0x217C, symBinAddr: 0x377CC, symSize: 0xC0 }
  - { offset: 0xB0EC0, size: 0x8, addend: 0x0, symName: __RNvXs2_NtNtCsfvfooZQ3Axs_4core5slice5indexINtNtNtB9_3ops5range5RangejEINtB5_10SliceIndexSRNtCs3cP53eQoTwO_11proc_macro25IdentE9index_mutCsjOFMLY5rhAS_14thiserror_impl, symObjAddr: 0x223C, symBinAddr: 0x3788C, symSize: 0xC0 }
  - { offset: 0xB12AA, size: 0x8, addend: 0x0, symName: __RNvXs5_NtNtCsfvfooZQ3Axs_4core5slice5indexINtNtNtB9_3ops5range9RangeFromjEINtB5_10SliceIndexSRNtCs3cP53eQoTwO_11proc_macro25IdentE9index_mutCsjOFMLY5rhAS_14thiserror_impl, symObjAddr: 0x23B4, symBinAddr: 0x37A04, symSize: 0x98 }
  - { offset: 0xB1602, size: 0x8, addend: 0x0, symName: __RNvNtNtCsfvfooZQ3Axs_4core4char7methods15encode_utf8_rawCsjOFMLY5rhAS_14thiserror_impl, symObjAddr: 0x1548, symBinAddr: 0x36B98, symSize: 0x228 }
  - { offset: 0xB17C8, size: 0x8, addend: 0x0, symName: __RNvNvMNtNtCsfvfooZQ3Axs_4core5alloc6layoutNtB4_6Layout25from_size_align_unchecked18precondition_checkCsjOFMLY5rhAS_14thiserror_impl, symObjAddr: 0x1770, symBinAddr: 0x36DC0, symSize: 0x50 }
  - { offset: 0xB1A40, size: 0x8, addend: 0x0, symName: __RNCNvMs6_NtNtNtNtCse1nGBsou5OW_5alloc11collections5btree3map5entryINtB7_11VacantEntryNtCs3cP53eQoTwO_11proc_macro25IdentNtNtBb_7set_val9SetValZSTE12insert_entry0CsjOFMLY5rhAS_14thiserror_impl, symObjAddr: 0x1C, symBinAddr: 0x3566C, symSize: 0x158 }
  - { offset: 0xB1B9A, size: 0x8, addend: 0x0, symName: __RNCNvMs6_NtNtNtNtCse1nGBsou5OW_5alloc11collections5btree3map5entryINtB7_11VacantEntryNtNtBf_6string6StringNtNtBb_7set_val9SetValZSTE12insert_entry0CsjOFMLY5rhAS_14thiserror_impl, symObjAddr: 0x174, symBinAddr: 0x357C4, symSize: 0x154 }
  - { offset: 0xB1CF4, size: 0x8, addend: 0x0, symName: __RNCNvMs6_NtNtNtNtCse1nGBsou5OW_5alloc11collections5btree3map5entryINtB7_11VacantEntryNtNtBf_6string6StringTINtNtBb_3set8BTreeSetB1l_EINtNtCs6IAuOt8vWmF_3syn10punctuated10PunctuatedNtCs3cP53eQoTwO_11proc_macro211TokenStreamNtNtB2c_5token4PlusEEE12insert_entry0CsjOFMLY5rhAS_14thiserror_impl, symObjAddr: 0x2C8, symBinAddr: 0x35918, symSize: 0x198 }
  - { offset: 0xB1E4F, size: 0x8, addend: 0x0, symName: __RNCNvMs6_NtNtNtNtCse1nGBsou5OW_5alloc11collections5btree3map5entryINtB7_11VacantEntryTjNtNtCsjOFMLY5rhAS_14thiserror_impl4attr5TraitENtNtBb_7set_val9SetValZSTE12insert_entry0B1r_, symObjAddr: 0x460, symBinAddr: 0x35AB0, symSize: 0x13C }
  - { offset: 0xB48C2, size: 0x8, addend: 0x0, symName: __RNvNtCse1nGBsou5OW_5alloc3fmt6formatCsjOFMLY5rhAS_14thiserror_impl, symObjAddr: 0x1474, symBinAddr: 0x36AC4, symSize: 0xD4 }
  - { offset: 0xB9A97, size: 0x8, addend: 0x0, symName: __RNvXs0_NtCs6IAuOt8vWmF_3syn5dropsINtB5_6NoDropDINtNtB7_10punctuated9IterTraitNtNtB7_4data7VariantEp4ItemRB1d_EL_ENtNtNtCsfvfooZQ3Axs_4core3ops5deref8DerefMut9deref_mutCsjOFMLY5rhAS_14thiserror_impl, symObjAddr: 0x1AF0, symBinAddr: 0x37140, symSize: 0x3C }
  - { offset: 0xB9ACC, size: 0x8, addend: 0x0, symName: __RNvXs0_NtCs6IAuOt8vWmF_3syn5dropsINtB5_6NoDropDINtNtB7_10punctuated9IterTraitNtNtB7_4path15GenericArgumentEp4ItemRB1d_EL_ENtNtNtCsfvfooZQ3Axs_4core3ops5deref8DerefMut9deref_mutCsjOFMLY5rhAS_14thiserror_impl, symObjAddr: 0x1B2C, symBinAddr: 0x3717C, symSize: 0x3C }
  - { offset: 0xB9B07, size: 0x8, addend: 0x0, symName: __RNvXs_NtCs6IAuOt8vWmF_3syn5dropsINtB4_6NoDropDINtNtB6_10punctuated9IterTraitNtNtB6_4data7VariantEp4ItemRB1c_EL_ENtNtNtCsfvfooZQ3Axs_4core3ops5deref5Deref5derefCsjOFMLY5rhAS_14thiserror_impl, symObjAddr: 0x244C, symBinAddr: 0x37A9C, symSize: 0x3C }
  - { offset: 0xB9BA2, size: 0x8, addend: 0x0, symName: __RNvXNtCs6IAuOt8vWmF_3syn11parse_quoteNtNtB4_8generics14WherePredicateNtB2_10ParseQuote5parseCsjOFMLY5rhAS_14thiserror_impl, symObjAddr: 0x1800, symBinAddr: 0x36E50, symSize: 0x34 }
  - { offset: 0xBA664, size: 0x8, addend: 0x0, symName: __RNvMNtCs6IAuOt8vWmF_3syn5dropsINtB2_6NoDropINtNtB4_10punctuated11PrivateIterNtNtB4_4data7VariantNtNtB4_5token5CommaEE3newCsjOFMLY5rhAS_14thiserror_impl, symObjAddr: 0x5FC, symBinAddr: 0x35C4C, symSize: 0x40 }
  - { offset: 0xBA6EE, size: 0x8, addend: 0x0, symName: __RNvMNtCs6IAuOt8vWmF_3syn5dropsINtB2_6NoDropINtNtB4_10punctuated11PrivateIterNtNtB4_4path15GenericArgumentNtNtB4_5token5CommaEE3newCsjOFMLY5rhAS_14thiserror_impl, symObjAddr: 0x63C, symBinAddr: 0x35C8C, symSize: 0x40 }
  - { offset: 0xBA7C6, size: 0x8, addend: 0x0, symName: __RNvMs5_NtNtNtNtCse1nGBsou5OW_5alloc11collections5btree3map5entryINtB5_5EntryNtNtBd_6string6StringTINtNtB9_3set8BTreeSetB1c_EINtNtCs6IAuOt8vWmF_3syn10punctuated10PunctuatedNtCs3cP53eQoTwO_11proc_macro211TokenStreamNtNtB23_5token4PlusEEE10or_defaultCsjOFMLY5rhAS_14thiserror_impl, symObjAddr: 0x67C, symBinAddr: 0x35CCC, symSize: 0x110 }
  - { offset: 0xBAA12, size: 0x8, addend: 0x0, symName: __RNvMs6_NtNtNtNtCse1nGBsou5OW_5alloc11collections5btree3map5entryINtB5_11VacantEntryNtCs3cP53eQoTwO_11proc_macro25IdentNtNtB9_7set_val9SetValZSTE12insert_entryCsjOFMLY5rhAS_14thiserror_impl, symObjAddr: 0x78C, symBinAddr: 0x35DDC, symSize: 0x298 }
  - { offset: 0xBADEF, size: 0x8, addend: 0x0, symName: __RNvMs6_NtNtNtNtCse1nGBsou5OW_5alloc11collections5btree3map5entryINtB5_11VacantEntryNtNtBd_6string6StringNtNtB9_7set_val9SetValZSTE12insert_entryCsjOFMLY5rhAS_14thiserror_impl, symObjAddr: 0xA24, symBinAddr: 0x36074, symSize: 0x294 }
  - { offset: 0xBB1BF, size: 0x8, addend: 0x0, symName: __RNvMs6_NtNtNtNtCse1nGBsou5OW_5alloc11collections5btree3map5entryINtB5_11VacantEntryNtNtBd_6string6StringTINtNtB9_3set8BTreeSetB1j_EINtNtCs6IAuOt8vWmF_3syn10punctuated10PunctuatedNtCs3cP53eQoTwO_11proc_macro211TokenStreamNtNtB2a_5token4PlusEEE12insert_entryCsjOFMLY5rhAS_14thiserror_impl, symObjAddr: 0xCB8, symBinAddr: 0x36308, symSize: 0x300 }
  - { offset: 0xBB59D, size: 0x8, addend: 0x0, symName: __RNvMs6_NtNtNtNtCse1nGBsou5OW_5alloc11collections5btree3map5entryINtB5_11VacantEntryTjNtNtCsjOFMLY5rhAS_14thiserror_impl4attr5TraitENtNtB9_7set_val9SetValZSTE12insert_entryB1p_, symObjAddr: 0xFB8, symBinAddr: 0x36608, symSize: 0x278 }
  - { offset: 0xBB830, size: 0x8, addend: 0x0, symName: __RNvMs7_NtNtNtNtCse1nGBsou5OW_5alloc11collections5btree3map5entryINtB5_13OccupiedEntryNtCs3cP53eQoTwO_11proc_macro25IdentNtNtB9_7set_val9SetValZSTE6insertCsjOFMLY5rhAS_14thiserror_impl, symObjAddr: 0x1230, symBinAddr: 0x36880, symSize: 0x4C }
  - { offset: 0xBB893, size: 0x8, addend: 0x0, symName: __RNvMs7_NtNtNtNtCse1nGBsou5OW_5alloc11collections5btree3map5entryINtB5_13OccupiedEntryNtCs3cP53eQoTwO_11proc_macro25IdentNtNtB9_7set_val9SetValZSTE8into_mutCsjOFMLY5rhAS_14thiserror_impl, symObjAddr: 0x127C, symBinAddr: 0x368CC, symSize: 0x58 }
  - { offset: 0xBB90D, size: 0x8, addend: 0x0, symName: __RNvMs7_NtNtNtNtCse1nGBsou5OW_5alloc11collections5btree3map5entryINtB5_13OccupiedEntryNtNtBd_6string6StringNtNtB9_7set_val9SetValZSTE6insertCsjOFMLY5rhAS_14thiserror_impl, symObjAddr: 0x12D4, symBinAddr: 0x36924, symSize: 0x4C }
  - { offset: 0xBB970, size: 0x8, addend: 0x0, symName: __RNvMs7_NtNtNtNtCse1nGBsou5OW_5alloc11collections5btree3map5entryINtB5_13OccupiedEntryNtNtBd_6string6StringNtNtB9_7set_val9SetValZSTE8into_mutCsjOFMLY5rhAS_14thiserror_impl, symObjAddr: 0x1320, symBinAddr: 0x36970, symSize: 0x58 }
  - { offset: 0xBB9AF, size: 0x8, addend: 0x0, symName: __RNvMs7_NtNtNtNtCse1nGBsou5OW_5alloc11collections5btree3map5entryINtB5_13OccupiedEntryNtNtBd_6string6StringTINtNtB9_3set8BTreeSetB1l_EINtNtCs6IAuOt8vWmF_3syn10punctuated10PunctuatedNtCs3cP53eQoTwO_11proc_macro211TokenStreamNtNtB2c_5token4PlusEEE8into_mutCsjOFMLY5rhAS_14thiserror_impl, symObjAddr: 0x1378, symBinAddr: 0x369C8, symSize: 0x58 }
  - { offset: 0xBBA29, size: 0x8, addend: 0x0, symName: __RNvMs7_NtNtNtNtCse1nGBsou5OW_5alloc11collections5btree3map5entryINtB5_13OccupiedEntryTjNtNtCsjOFMLY5rhAS_14thiserror_impl4attr5TraitENtNtB9_7set_val9SetValZSTE6insertB1r_, symObjAddr: 0x13D0, symBinAddr: 0x36A20, symSize: 0x4C }
  - { offset: 0xBBA8C, size: 0x8, addend: 0x0, symName: __RNvMs7_NtNtNtNtCse1nGBsou5OW_5alloc11collections5btree3map5entryINtB5_13OccupiedEntryTjNtNtCsjOFMLY5rhAS_14thiserror_impl4attr5TraitENtNtB9_7set_val9SetValZSTE8into_mutB1r_, symObjAddr: 0x141C, symBinAddr: 0x36A6C, symSize: 0x58 }
  - { offset: 0xBBC42, size: 0x8, addend: 0x0, symName: __RNvXNtCs2cqEZUIJimJ_5quote9to_tokensRNtNtCs6IAuOt8vWmF_3syn8generics11WhereClauseNtB2_8ToTokens9to_tokensCsjOFMLY5rhAS_14thiserror_impl, symObjAddr: 0x17C0, symBinAddr: 0x36E10, symSize: 0x40 }
  - { offset: 0xBC365, size: 0x8, addend: 0x0, symName: __RINvMs3_NtNtCs9i5KxIbZ5ph_10proc_macro6bridge6bufferNtB6_6Buffer17extend_from_arrayKj4_ECsjOFMLY5rhAS_14thiserror_impl, symObjAddr: 0x0, symBinAddr: 0x38BE0, symSize: 0x16C }
  - { offset: 0xBC508, size: 0x8, addend: 0x0, symName: __RNvXs5_NtNtCs9i5KxIbZ5ph_10proc_macro6bridge6bufferNtB5_6BufferNtNtNtCsfvfooZQ3Axs_4core3ops4drop4Drop4dropCsjOFMLY5rhAS_14thiserror_impl, symObjAddr: 0x2B7C, symBinAddr: 0x3B75C, symSize: 0x8C }
  - { offset: 0xBC9F9, size: 0x8, addend: 0x0, symName: __RNvXs1f_Cs9i5KxIbZ5ph_10proc_macroNtB6_5IdentNtNtCsfvfooZQ3Axs_4core5clone5Clone5cloneCsjOFMLY5rhAS_14thiserror_impl, symObjAddr: 0x2A9C, symBinAddr: 0x3B67C, symSize: 0x40 }
  - { offset: 0xBCA2D, size: 0x8, addend: 0x0, symName: __RNvXsU_Cs9i5KxIbZ5ph_10proc_macroNtB5_11TokenStreamNtNtCsfvfooZQ3Axs_4core5clone5Clone5cloneCsjOFMLY5rhAS_14thiserror_impl, symObjAddr: 0x2C08, symBinAddr: 0x3B7E8, symSize: 0x64 }
  - { offset: 0xBCF99, size: 0x8, addend: 0x0, symName: __RNvXs17_NtNtCsfvfooZQ3Axs_4core3cmp5implsiNtB8_3Ord3cmpCsjOFMLY5rhAS_14thiserror_impl, symObjAddr: 0x2A64, symBinAddr: 0x3B644, symSize: 0x38 }
  - { offset: 0xBCFDC, size: 0x8, addend: 0x0, symName: __RNvXsV_NtNtCsfvfooZQ3Axs_4core3cmp5implsjNtB7_3Ord3cmpCsjOFMLY5rhAS_14thiserror_impl, symObjAddr: 0x2C6C, symBinAddr: 0x3B84C, symSize: 0x38 }
  - { offset: 0xBFD39, size: 0x8, addend: 0x0, symName: __RNvXs0_NtNtCsfvfooZQ3Axs_4core5array4iterINtB5_8IntoIterjKj2_ENtNtNtNtB9_4iter6traits8iterator8Iterator4nextCsjOFMLY5rhAS_14thiserror_impl, symObjAddr: 0x281C, symBinAddr: 0x3B3FC, symSize: 0x154 }
  - { offset: 0xBFF69, size: 0x8, addend: 0x0, symName: __RNvXs2_NtNtCsfvfooZQ3Axs_4core5array4iterINtB5_8IntoIterjKj2_ENtNtNtB9_3ops4drop4Drop4dropCsjOFMLY5rhAS_14thiserror_impl, symObjAddr: 0x2B58, symBinAddr: 0x3B738, symSize: 0x24 }
  - { offset: 0xBFFA9, size: 0x8, addend: 0x0, symName: __RNvYINtNtNtNtCse1nGBsou5OW_5alloc11collections5btree3map8BTreeMapTjNtNtCsjOFMLY5rhAS_14thiserror_impl4attr5TraitENtNtB7_7set_val9SetValZSTENtNtCsfvfooZQ3Axs_4core5clone5Clone10clone_fromB17_, symObjAddr: 0x381C, symBinAddr: 0x3C3FC, symSize: 0x84 }
  - { offset: 0xC00AB, size: 0x8, addend: 0x0, symName: __RINvMs3_NtNtCs9i5KxIbZ5ph_10proc_macro6bridge6bufferNtB6_6Buffer17extend_from_arrayKj4_ECsjOFMLY5rhAS_14thiserror_impl, symObjAddr: 0x0, symBinAddr: 0x38BE0, symSize: 0x16C }
  - { offset: 0xC0271, size: 0x8, addend: 0x0, symName: __RINvMs3_NtNtCs9i5KxIbZ5ph_10proc_macro6bridge6bufferNtB6_6Buffer17extend_from_arrayKj8_ECsjOFMLY5rhAS_14thiserror_impl, symObjAddr: 0x16C, symBinAddr: 0x38D4C, symSize: 0x16C }
  - { offset: 0xC24B1, size: 0x8, addend: 0x0, symName: __RINvNvXs0_NtNtNtCse1nGBsou5OW_5alloc11collections5btree3mapINtB8_8BTreeMappppENtNtCsfvfooZQ3Axs_4core5clone5Clone5clone13clone_subtreeTjNtNtCsjOFMLY5rhAS_14thiserror_impl4attr5TraitENtNtBa_7set_val9SetValZSTNtNtBe_5alloc6GlobalEB2e_, symObjAddr: 0x610, symBinAddr: 0x391F0, symSize: 0x92C }
  - { offset: 0xC2B94, size: 0x8, addend: 0x0, symName: __RNvXs0_NtNtNtCse1nGBsou5OW_5alloc11collections5btree3mapINtB5_8BTreeMapTjNtNtCsjOFMLY5rhAS_14thiserror_impl4attr5TraitENtNtB7_7set_val9SetValZSTENtNtCsfvfooZQ3Axs_4core5clone5Clone5cloneB1d_, symObjAddr: 0x2970, symBinAddr: 0x3B550, symSize: 0xF4 }
  - { offset: 0xC35C3, size: 0x8, addend: 0x0, symName: __RNvXNtNtNtCse1nGBsou5OW_5alloc11collections5btree3mapINtB2_8BTreeMapNtCs3cP53eQoTwO_11proc_macro25IdentNtNtB4_7set_val9SetValZSTENtNtNtCsfvfooZQ3Axs_4core3ops4drop4Drop4dropCsjOFMLY5rhAS_14thiserror_impl, symObjAddr: 0x2498, symBinAddr: 0x3B078, symSize: 0x4C }
  - { offset: 0xC3640, size: 0x8, addend: 0x0, symName: __RNvXNtNtNtCse1nGBsou5OW_5alloc11collections5btree3mapINtB2_8BTreeMapNtNtB8_6string6StringNtNtB4_7set_val9SetValZSTENtNtNtCsfvfooZQ3Axs_4core3ops4drop4Drop4dropCsjOFMLY5rhAS_14thiserror_impl, symObjAddr: 0x24E4, symBinAddr: 0x3B0C4, symSize: 0x4C }
  - { offset: 0xC36BD, size: 0x8, addend: 0x0, symName: __RNvXNtNtNtCse1nGBsou5OW_5alloc11collections5btree3mapINtB2_8BTreeMapNtNtB8_6string6StringTINtNtB4_3set8BTreeSetB14_EINtNtCs6IAuOt8vWmF_3syn10punctuated10PunctuatedNtCs3cP53eQoTwO_11proc_macro211TokenStreamNtNtB1V_5token4PlusEEENtNtNtCsfvfooZQ3Axs_4core3ops4drop4Drop4dropCsjOFMLY5rhAS_14thiserror_impl, symObjAddr: 0x2530, symBinAddr: 0x3B110, symSize: 0x4C }
  - { offset: 0xC373A, size: 0x8, addend: 0x0, symName: __RNvXNtNtNtCse1nGBsou5OW_5alloc11collections5btree3mapINtB2_8BTreeMapRNtCs3cP53eQoTwO_11proc_macro25IdentNtNtB4_7set_val9SetValZSTENtNtNtCsfvfooZQ3Axs_4core3ops4drop4Drop4dropCsjOFMLY5rhAS_14thiserror_impl, symObjAddr: 0x257C, symBinAddr: 0x3B15C, symSize: 0x4C }
  - { offset: 0xC37B7, size: 0x8, addend: 0x0, symName: __RNvXNtNtNtCse1nGBsou5OW_5alloc11collections5btree3mapINtB2_8BTreeMapTjNtNtCsjOFMLY5rhAS_14thiserror_impl4attr5TraitENtNtB4_7set_val9SetValZSTENtNtNtCsfvfooZQ3Axs_4core3ops4drop4Drop4dropB1a_, symObjAddr: 0x25C8, symBinAddr: 0x3B1A8, symSize: 0x4C }
  - { offset: 0xC3844, size: 0x8, addend: 0x0, symName: __RNvXNvXsw_NtNtNtCse1nGBsou5OW_5alloc11collections5btree3mapINtB8_8IntoIterpppENtNtNtCsfvfooZQ3Axs_4core3ops4drop4Drop4dropINtB2_9DropGuardNtCs3cP53eQoTwO_11proc_macro25IdentNtNtBa_7set_val9SetValZSTNtNtBe_5alloc6GlobalEB1e_4dropCsjOFMLY5rhAS_14thiserror_impl, symObjAddr: 0x2614, symBinAddr: 0x3B1F4, symSize: 0x68 }
  - { offset: 0xC38A7, size: 0x8, addend: 0x0, symName: __RNvXNvXsw_NtNtNtCse1nGBsou5OW_5alloc11collections5btree3mapINtB8_8IntoIterpppENtNtNtCsfvfooZQ3Axs_4core3ops4drop4Drop4dropINtB2_9DropGuardNtNtBe_6string6StringNtNtBa_7set_val9SetValZSTNtNtBe_5alloc6GlobalEB1e_4dropCsjOFMLY5rhAS_14thiserror_impl, symObjAddr: 0x267C, symBinAddr: 0x3B25C, symSize: 0x68 }
  - { offset: 0xC390A, size: 0x8, addend: 0x0, symName: __RNvXNvXsw_NtNtNtCse1nGBsou5OW_5alloc11collections5btree3mapINtB8_8IntoIterpppENtNtNtCsfvfooZQ3Axs_4core3ops4drop4Drop4dropINtB2_9DropGuardNtNtBe_6string6StringTINtNtBa_3set8BTreeSetB2c_EINtNtCs6IAuOt8vWmF_3syn10punctuated10PunctuatedNtCs3cP53eQoTwO_11proc_macro211TokenStreamNtNtB33_5token4PlusEENtNtBe_5alloc6GlobalEB1e_4dropCsjOFMLY5rhAS_14thiserror_impl, symObjAddr: 0x26E4, symBinAddr: 0x3B2C4, symSize: 0x68 }
  - { offset: 0xC396D, size: 0x8, addend: 0x0, symName: __RNvXNvXsw_NtNtNtCse1nGBsou5OW_5alloc11collections5btree3mapINtB8_8IntoIterpppENtNtNtCsfvfooZQ3Axs_4core3ops4drop4Drop4dropINtB2_9DropGuardRNtCs3cP53eQoTwO_11proc_macro25IdentNtNtBa_7set_val9SetValZSTNtNtBe_5alloc6GlobalEB1e_4dropCsjOFMLY5rhAS_14thiserror_impl, symObjAddr: 0x274C, symBinAddr: 0x3B32C, symSize: 0x68 }
  - { offset: 0xC39D0, size: 0x8, addend: 0x0, symName: __RNvXNvXsw_NtNtNtCse1nGBsou5OW_5alloc11collections5btree3mapINtB8_8IntoIterpppENtNtNtCsfvfooZQ3Axs_4core3ops4drop4Drop4dropINtB2_9DropGuardTjNtNtCsjOFMLY5rhAS_14thiserror_impl4attr5TraitENtNtBa_7set_val9SetValZSTNtNtBe_5alloc6GlobalEB1e_4dropB2i_, symObjAddr: 0x27B4, symBinAddr: 0x3B394, symSize: 0x68 }
  - { offset: 0xC3B25, size: 0x8, addend: 0x0, symName: __RNvXsw_NtNtNtCse1nGBsou5OW_5alloc11collections5btree3mapINtB5_8IntoIterNtCs3cP53eQoTwO_11proc_macro25IdentNtNtB7_7set_val9SetValZSTENtNtNtCsfvfooZQ3Axs_4core3ops4drop4Drop4dropCsjOFMLY5rhAS_14thiserror_impl, symObjAddr: 0x3488, symBinAddr: 0x3C068, symSize: 0xA0 }
  - { offset: 0xC3B96, size: 0x8, addend: 0x0, symName: __RNvXsw_NtNtNtCse1nGBsou5OW_5alloc11collections5btree3mapINtB5_8IntoIterNtNtBb_6string6StringNtNtB7_7set_val9SetValZSTENtNtNtCsfvfooZQ3Axs_4core3ops4drop4Drop4dropCsjOFMLY5rhAS_14thiserror_impl, symObjAddr: 0x3528, symBinAddr: 0x3C108, symSize: 0xA0 }
  - { offset: 0xC3C07, size: 0x8, addend: 0x0, symName: __RNvXsw_NtNtNtCse1nGBsou5OW_5alloc11collections5btree3mapINtB5_8IntoIterNtNtBb_6string6StringTINtNtB7_3set8BTreeSetB17_EINtNtCs6IAuOt8vWmF_3syn10punctuated10PunctuatedNtCs3cP53eQoTwO_11proc_macro211TokenStreamNtNtB1Y_5token4PlusEEENtNtNtCsfvfooZQ3Axs_4core3ops4drop4Drop4dropCsjOFMLY5rhAS_14thiserror_impl, symObjAddr: 0x35C8, symBinAddr: 0x3C1A8, symSize: 0xA0 }
  - { offset: 0xC3C78, size: 0x8, addend: 0x0, symName: __RNvXsw_NtNtNtCse1nGBsou5OW_5alloc11collections5btree3mapINtB5_8IntoIterRNtCs3cP53eQoTwO_11proc_macro25IdentNtNtB7_7set_val9SetValZSTENtNtNtCsfvfooZQ3Axs_4core3ops4drop4Drop4dropCsjOFMLY5rhAS_14thiserror_impl, symObjAddr: 0x3668, symBinAddr: 0x3C248, symSize: 0xA0 }
  - { offset: 0xC3CE9, size: 0x8, addend: 0x0, symName: __RNvXsw_NtNtNtCse1nGBsou5OW_5alloc11collections5btree3mapINtB5_8IntoIterTjNtNtCsjOFMLY5rhAS_14thiserror_impl4attr5TraitENtNtB7_7set_val9SetValZSTENtNtNtCsfvfooZQ3Axs_4core3ops4drop4Drop4dropB1d_, symObjAddr: 0x3708, symBinAddr: 0x3C2E8, symSize: 0xA0 }
  - { offset: 0xC3D60, size: 0x8, addend: 0x0, symName: __RNvXs1q_NtNtNtCse1nGBsou5OW_5alloc11collections5btree3mapINtB6_8BTreeMapNtNtBc_6string6StringTINtNtB8_3set8BTreeSetB18_EINtNtCs6IAuOt8vWmF_3syn10punctuated10PunctuatedNtCs3cP53eQoTwO_11proc_macro211TokenStreamNtNtB1Z_5token4PlusEEEINtNtNtCsfvfooZQ3Axs_4core3ops5index5IndexRB18_E5indexCsjOFMLY5rhAS_14thiserror_impl, symObjAddr: 0x2ADC, symBinAddr: 0x3B6BC, symSize: 0x7C }
  - { offset: 0xC3DE5, size: 0x8, addend: 0x0, symName: __RNvXsv_NtNtNtCse1nGBsou5OW_5alloc11collections5btree3mapINtB5_8BTreeMapNtCs3cP53eQoTwO_11proc_macro25IdentNtNtB7_7set_val9SetValZSTENtNtNtNtCsfvfooZQ3Axs_4core4iter6traits7collect12IntoIterator9into_iterCsjOFMLY5rhAS_14thiserror_impl, symObjAddr: 0x2CA4, symBinAddr: 0x3B884, symSize: 0x194 }
  - { offset: 0xC3F9B, size: 0x8, addend: 0x0, symName: __RNvXsv_NtNtNtCse1nGBsou5OW_5alloc11collections5btree3mapINtB5_8BTreeMapNtNtBb_6string6StringNtNtB7_7set_val9SetValZSTENtNtNtNtCsfvfooZQ3Axs_4core4iter6traits7collect12IntoIterator9into_iterCsjOFMLY5rhAS_14thiserror_impl, symObjAddr: 0x2E38, symBinAddr: 0x3BA18, symSize: 0x194 }
  - { offset: 0xC4151, size: 0x8, addend: 0x0, symName: __RNvXsv_NtNtNtCse1nGBsou5OW_5alloc11collections5btree3mapINtB5_8BTreeMapNtNtBb_6string6StringTINtNtB7_3set8BTreeSetB17_EINtNtCs6IAuOt8vWmF_3syn10punctuated10PunctuatedNtCs3cP53eQoTwO_11proc_macro211TokenStreamNtNtB1Y_5token4PlusEEENtNtNtNtCsfvfooZQ3Axs_4core4iter6traits7collect12IntoIterator9into_iterCsjOFMLY5rhAS_14thiserror_impl, symObjAddr: 0x2FCC, symBinAddr: 0x3BBAC, symSize: 0x194 }
  - { offset: 0xC4307, size: 0x8, addend: 0x0, symName: __RNvXsv_NtNtNtCse1nGBsou5OW_5alloc11collections5btree3mapINtB5_8BTreeMapRNtCs3cP53eQoTwO_11proc_macro25IdentNtNtB7_7set_val9SetValZSTENtNtNtNtCsfvfooZQ3Axs_4core4iter6traits7collect12IntoIterator9into_iterCsjOFMLY5rhAS_14thiserror_impl, symObjAddr: 0x3160, symBinAddr: 0x3BD40, symSize: 0x194 }
  - { offset: 0xC44BD, size: 0x8, addend: 0x0, symName: __RNvXsv_NtNtNtCse1nGBsou5OW_5alloc11collections5btree3mapINtB5_8BTreeMapTjNtNtCsjOFMLY5rhAS_14thiserror_impl4attr5TraitENtNtB7_7set_val9SetValZSTENtNtNtNtCsfvfooZQ3Axs_4core4iter6traits7collect12IntoIterator9into_iterB1d_, symObjAddr: 0x32F4, symBinAddr: 0x3BED4, symSize: 0x194 }
  - { offset: 0xC46BF, size: 0x8, addend: 0x0, symName: __RNvXsy_NtNtNtCse1nGBsou5OW_5alloc11collections5btree3mapINtB5_8IntoIterTjNtNtCsjOFMLY5rhAS_14thiserror_impl4attr5TraitENtNtB7_7set_val9SetValZSTENtNtNtNtCsfvfooZQ3Axs_4core4iter6traits8iterator8Iterator4nextB1d_, symObjAddr: 0x37A8, symBinAddr: 0x3C388, symSize: 0x74 }
  - { offset: 0xC5526, size: 0x8, addend: 0x0, symName: __RINvMsi_NtNtNtCse1nGBsou5OW_5alloc11collections5btree3mapINtB6_8BTreeMapNtNtBc_6string6StringTINtNtB8_3set8BTreeSetB18_EINtNtCs6IAuOt8vWmF_3syn10punctuated10PunctuatedNtCs3cP53eQoTwO_11proc_macro211TokenStreamNtNtB1Z_5token4PlusEEE3getB18_ECsjOFMLY5rhAS_14thiserror_impl, symObjAddr: 0x2D8, symBinAddr: 0x38EB8, symSize: 0xD8 }
  - { offset: 0xC5784, size: 0x8, addend: 0x0, symName: __RINvMsi_NtNtNtCse1nGBsou5OW_5alloc11collections5btree3mapINtB6_8BTreeMapRNtCs3cP53eQoTwO_11proc_macro25IdentNtNtB8_7set_val9SetValZSTE27bulk_build_from_sorted_iterINtNtNtNtCsfvfooZQ3Axs_4core4iter8adapters3map3MapINtNtNtBc_3vec9into_iter8IntoIterB18_ENCINvMse_NtB8_3setINtB4a_8BTreeSetB18_E16from_sorted_iterB3p_E0EECsjOFMLY5rhAS_14thiserror_impl, symObjAddr: 0x3B0, symBinAddr: 0x38F90, symSize: 0x188 }
  - { offset: 0xC58F9, size: 0x8, addend: 0x0, symName: __RINvMsi_NtNtNtCse1nGBsou5OW_5alloc11collections5btree3mapINtB6_8BTreeMapRNtCs3cP53eQoTwO_11proc_macro25IdentNtNtB8_7set_val9SetValZSTE3getB19_ECsjOFMLY5rhAS_14thiserror_impl, symObjAddr: 0x538, symBinAddr: 0x39118, symSize: 0xD8 }
  - { offset: 0xC61AB, size: 0x8, addend: 0x0, symName: __RNvMNtNtCs2cqEZUIJimJ_5quote9___private8get_spanINtB2_7GetSpanNtCs3cP53eQoTwO_11proc_macro24SpanE11___into_spanCsjOFMLY5rhAS_14thiserror_impl, symObjAddr: 0xF3C, symBinAddr: 0x39B1C, symSize: 0x20 }
  - { offset: 0xC6289, size: 0x8, addend: 0x0, symName: __RNvMNtNtNtCsloNvcHxBCre_9hashbrown7control5group4neonNtB2_5Group10match_fullCsjOFMLY5rhAS_14thiserror_impl, symObjAddr: 0xF5C, symBinAddr: 0x39B3C, symSize: 0x68 }
  - { offset: 0xC62C1, size: 0x8, addend: 0x0, symName: __RNvMNtNtNtCsloNvcHxBCre_9hashbrown7control5group4neonNtB2_5Group22match_empty_or_deletedCsjOFMLY5rhAS_14thiserror_impl, symObjAddr: 0xFC4, symBinAddr: 0x39BA4, symSize: 0x68 }
  - { offset: 0xC62F9, size: 0x8, addend: 0x0, symName: __RNvMNtNtNtCsloNvcHxBCre_9hashbrown7control5group4neonNtB2_5Group44convert_special_to_empty_and_full_to_deletedCsjOFMLY5rhAS_14thiserror_impl, symObjAddr: 0x102C, symBinAddr: 0x39C0C, symSize: 0x88 }
  - { offset: 0xC6331, size: 0x8, addend: 0x0, symName: __RNvMNtNtNtCsloNvcHxBCre_9hashbrown7control5group4neonNtB2_5Group9match_tagCsjOFMLY5rhAS_14thiserror_impl, symObjAddr: 0x10B4, symBinAddr: 0x39C94, symSize: 0x7C }
  - { offset: 0xC6391, size: 0x8, addend: 0x0, symName: __RNvMs3_NtNtCs9i5KxIbZ5ph_10proc_macro6bridge6bufferNtB5_6Buffer17extend_from_sliceCsjOFMLY5rhAS_14thiserror_impl, symObjAddr: 0x1130, symBinAddr: 0x39D10, symSize: 0x164 }
  - { offset: 0xC654D, size: 0x8, addend: 0x0, symName: __RNvMs3_NtNtCs9i5KxIbZ5ph_10proc_macro6bridge6bufferNtB5_6Buffer4pushCsjOFMLY5rhAS_14thiserror_impl, symObjAddr: 0x1294, symBinAddr: 0x39E74, symSize: 0x134 }
  - { offset: 0xC6702, size: 0x8, addend: 0x0, symName: __RNvMs_NtNtCsfvfooZQ3Axs_4core5array4iterINtB4_8IntoIterjKj2_E12as_mut_sliceCsjOFMLY5rhAS_14thiserror_impl, symObjAddr: 0x13C8, symBinAddr: 0x39FA8, symSize: 0xB0 }
  - { offset: 0xC67F7, size: 0x8, addend: 0x0, symName: __RNvMsg_NtNtNtCse1nGBsou5OW_5alloc11collections5btree3mapINtB5_8BTreeMapNtNtBb_6string6StringTINtNtB7_3set8BTreeSetB17_EINtNtCs6IAuOt8vWmF_3syn10punctuated10PunctuatedNtCs3cP53eQoTwO_11proc_macro211TokenStreamNtNtB1Y_5token4PlusEEE3newCsjOFMLY5rhAS_14thiserror_impl, symObjAddr: 0x1478, symBinAddr: 0x3A058, symSize: 0x24 }
  - { offset: 0xC6924, size: 0x8, addend: 0x0, symName: __RNvMsi_NtNtNtCse1nGBsou5OW_5alloc11collections5btree3mapINtB5_8BTreeMapNtCs3cP53eQoTwO_11proc_macro25IdentNtNtB7_7set_val9SetValZSTE5entryCsjOFMLY5rhAS_14thiserror_impl, symObjAddr: 0x149C, symBinAddr: 0x3A07C, symSize: 0x27C }
  - { offset: 0xC6ABD, size: 0x8, addend: 0x0, symName: __RNvMsi_NtNtNtCse1nGBsou5OW_5alloc11collections5btree3mapINtB5_8BTreeMapNtCs3cP53eQoTwO_11proc_macro25IdentNtNtB7_7set_val9SetValZSTE6insertCsjOFMLY5rhAS_14thiserror_impl, symObjAddr: 0x1718, symBinAddr: 0x3A2F8, symSize: 0x11C }
  - { offset: 0xC6C02, size: 0x8, addend: 0x0, symName: __RNvMsi_NtNtNtCse1nGBsou5OW_5alloc11collections5btree3mapINtB5_8BTreeMapNtNtBb_6string6StringNtNtB7_7set_val9SetValZSTE5entryCsjOFMLY5rhAS_14thiserror_impl, symObjAddr: 0x1834, symBinAddr: 0x3A414, symSize: 0x27C }
  - { offset: 0xC6D8E, size: 0x8, addend: 0x0, symName: __RNvMsi_NtNtNtCse1nGBsou5OW_5alloc11collections5btree3mapINtB5_8BTreeMapNtNtBb_6string6StringNtNtB7_7set_val9SetValZSTE6insertCsjOFMLY5rhAS_14thiserror_impl, symObjAddr: 0x1AB0, symBinAddr: 0x3A690, symSize: 0x124 }
  - { offset: 0xC6ED3, size: 0x8, addend: 0x0, symName: __RNvMsi_NtNtNtCse1nGBsou5OW_5alloc11collections5btree3mapINtB5_8BTreeMapNtNtBb_6string6StringTINtNtB7_3set8BTreeSetB17_EINtNtCs6IAuOt8vWmF_3syn10punctuated10PunctuatedNtCs3cP53eQoTwO_11proc_macro211TokenStreamNtNtB1Y_5token4PlusEEE5entryCsjOFMLY5rhAS_14thiserror_impl, symObjAddr: 0x1BD4, symBinAddr: 0x3A7B4, symSize: 0x27C }
  - { offset: 0xC70B3, size: 0x8, addend: 0x0, symName: __RNvMsi_NtNtNtCse1nGBsou5OW_5alloc11collections5btree3mapINtB5_8BTreeMapTjNtNtCsjOFMLY5rhAS_14thiserror_impl4attr5TraitENtNtB7_7set_val9SetValZSTE5entryB1d_, symObjAddr: 0x1E50, symBinAddr: 0x3AA30, symSize: 0x254 }
  - { offset: 0xC723E, size: 0x8, addend: 0x0, symName: __RNvMsi_NtNtNtCse1nGBsou5OW_5alloc11collections5btree3mapINtB5_8BTreeMapTjNtNtCsjOFMLY5rhAS_14thiserror_impl4attr5TraitENtNtB7_7set_val9SetValZSTE6insertB1d_, symObjAddr: 0x20A4, symBinAddr: 0x3AC84, symSize: 0x124 }
  - { offset: 0xC7330, size: 0x8, addend: 0x0, symName: __RNvMsx_NtNtNtCse1nGBsou5OW_5alloc11collections5btree3mapINtB5_8IntoIterNtCs3cP53eQoTwO_11proc_macro25IdentNtNtB7_7set_val9SetValZSTE10dying_nextCsjOFMLY5rhAS_14thiserror_impl, symObjAddr: 0x21C8, symBinAddr: 0x3ADA8, symSize: 0x90 }
  - { offset: 0xC737B, size: 0x8, addend: 0x0, symName: __RNvMsx_NtNtNtCse1nGBsou5OW_5alloc11collections5btree3mapINtB5_8IntoIterNtNtBb_6string6StringNtNtB7_7set_val9SetValZSTE10dying_nextCsjOFMLY5rhAS_14thiserror_impl, symObjAddr: 0x2258, symBinAddr: 0x3AE38, symSize: 0x90 }
  - { offset: 0xC73C6, size: 0x8, addend: 0x0, symName: __RNvMsx_NtNtNtCse1nGBsou5OW_5alloc11collections5btree3mapINtB5_8IntoIterNtNtBb_6string6StringTINtNtB7_3set8BTreeSetB17_EINtNtCs6IAuOt8vWmF_3syn10punctuated10PunctuatedNtCs3cP53eQoTwO_11proc_macro211TokenStreamNtNtB1Y_5token4PlusEEE10dying_nextCsjOFMLY5rhAS_14thiserror_impl, symObjAddr: 0x22E8, symBinAddr: 0x3AEC8, symSize: 0x90 }
  - { offset: 0xC7411, size: 0x8, addend: 0x0, symName: __RNvMsx_NtNtNtCse1nGBsou5OW_5alloc11collections5btree3mapINtB5_8IntoIterRNtCs3cP53eQoTwO_11proc_macro25IdentNtNtB7_7set_val9SetValZSTE10dying_nextCsjOFMLY5rhAS_14thiserror_impl, symObjAddr: 0x2378, symBinAddr: 0x3AF58, symSize: 0x90 }
  - { offset: 0xC745C, size: 0x8, addend: 0x0, symName: __RNvMsx_NtNtNtCse1nGBsou5OW_5alloc11collections5btree3mapINtB5_8IntoIterTjNtNtCsjOFMLY5rhAS_14thiserror_impl4attr5TraitENtNtB7_7set_val9SetValZSTE10dying_nextB1d_, symObjAddr: 0x2408, symBinAddr: 0x3AFE8, symSize: 0x90 }
  - { offset: 0xC7C4B, size: 0x8, addend: 0x0, symName: __RNvXsw_NtCse1nGBsou5OW_5alloc6stringNtNtCs6IAuOt8vWmF_3syn3lit8LitFloatNtB5_8ToString9to_stringCsjOFMLY5rhAS_14thiserror_impl, symObjAddr: 0x25FC, symBinAddr: 0x3EA00, symSize: 0x24 }
  - { offset: 0xC7C88, size: 0x8, addend: 0x0, symName: __RNvXsx_NtCse1nGBsou5OW_5alloc6stringNtNtCs6IAuOt8vWmF_3syn3lit8LitFloatNtB5_12SpecToString14spec_to_stringCsjOFMLY5rhAS_14thiserror_impl, symObjAddr: 0x2620, symBinAddr: 0x3EA24, symSize: 0x144 }
  - { offset: 0xCA2DD, size: 0x8, addend: 0x0, symName: __RNvNvMNtNtCsfvfooZQ3Axs_4core3ptr9const_ptrPp7sub_ptr18precondition_checkCsjOFMLY5rhAS_14thiserror_impl, symObjAddr: 0x1338, symBinAddr: 0x3D73C, symSize: 0x40 }
  - { offset: 0xCACE7, size: 0x8, addend: 0x0, symName: __RNvNvNtCsfvfooZQ3Axs_4core10intrinsics19copy_nonoverlapping18precondition_checkCsjOFMLY5rhAS_14thiserror_impl, symObjAddr: 0x1378, symBinAddr: 0x3D77C, symSize: 0x2E4 }
  - { offset: 0xCAF5F, size: 0x8, addend: 0x0, symName: __RNvNvNtCsfvfooZQ3Axs_4core10intrinsics4copy18precondition_checkCsjOFMLY5rhAS_14thiserror_impl, symObjAddr: 0x165C, symBinAddr: 0x3DA60, symSize: 0x1CC }
  - { offset: 0xCD75E, size: 0x8, addend: 0x0, symName: __RINvNtNtNtCsfvfooZQ3Axs_4core9core_arch10arm_shared4neon13vget_lane_u64Kl0_ECsjOFMLY5rhAS_14thiserror_impl, symObjAddr: 0x2A8, symBinAddr: 0x3C6B0, symSize: 0x18 }
  - { offset: 0xCD7D8, size: 0x8, addend: 0x0, symName: __RNvNtNtNtCsfvfooZQ3Axs_4core9core_arch10arm_shared4neon9vdup_n_u8CsjOFMLY5rhAS_14thiserror_impl, symObjAddr: 0x1304, symBinAddr: 0x3D708, symSize: 0x34 }
  - { offset: 0xCD861, size: 0x8, addend: 0x0, symName: __RINvXs2U_NtNtCsfvfooZQ3Axs_4core5slice4iterINtB7_4IterNtNtCsjOFMLY5rhAS_14thiserror_impl3ast5FieldENtNtNtNtBb_4iter6traits8iterator8Iterator8find_mapRNtNtCs6IAuOt8vWmF_3syn4attr9AttributeNCNvMs1_NtBU_5validNtBS_7Variant8validate0EBU_, symObjAddr: 0x2C0, symBinAddr: 0x3C6C8, symSize: 0xC8 }
  - { offset: 0xCD8E5, size: 0x8, addend: 0x0, symName: __RINvXs2U_NtNtCsfvfooZQ3Axs_4core5slice4iterINtB7_4IterNtNtCsjOFMLY5rhAS_14thiserror_impl3ast5FieldENtNtNtNtBb_4iter6traits8iterator8Iterator8find_mapRNtNtCs6IAuOt8vWmF_3syn4attr9AttributeNCNvMs_NtBU_5validNtBS_6Struct8validate0EBU_, symObjAddr: 0x388, symBinAddr: 0x3C790, symSize: 0xC8 }
  - { offset: 0xCD969, size: 0x8, addend: 0x0, symName: __RINvXs2U_NtNtCsfvfooZQ3Axs_4core5slice4iterINtB7_4IterNtNtCsjOFMLY5rhAS_14thiserror_impl3ast7VariantENtNtNtNtBb_4iter6traits8iterator8Iterator3allNCNvMs_NtBU_4propNtBS_4Enum11has_displays_0EBU_, symObjAddr: 0x450, symBinAddr: 0x3C858, symSize: 0xB0 }
  - { offset: 0xCD9CE, size: 0x8, addend: 0x0, symName: __RINvXs2U_NtNtCsfvfooZQ3Axs_4core5slice4iterINtB7_4IterNtNtCsjOFMLY5rhAS_14thiserror_impl3ast7VariantENtNtNtNtBb_4iter6traits8iterator8Iterator3anyNCNvMs_NtBU_4propNtBS_4Enum10has_source0EBU_, symObjAddr: 0x500, symBinAddr: 0x3C908, symSize: 0xB0 }
  - { offset: 0xCDA33, size: 0x8, addend: 0x0, symName: __RINvXs2U_NtNtCsfvfooZQ3Axs_4core5slice4iterINtB7_4IterNtNtCsjOFMLY5rhAS_14thiserror_impl3ast7VariantENtNtNtNtBb_4iter6traits8iterator8Iterator3anyNCNvMs_NtBU_4propNtBS_4Enum11has_display0EBU_, symObjAddr: 0x5B0, symBinAddr: 0x3C9B8, symSize: 0xB0 }
  - { offset: 0xCDA98, size: 0x8, addend: 0x0, symName: __RINvXs2U_NtNtCsfvfooZQ3Axs_4core5slice4iterINtB7_4IterNtNtCsjOFMLY5rhAS_14thiserror_impl3ast7VariantENtNtNtNtBb_4iter6traits8iterator8Iterator3anyNCNvMs_NtBU_4propNtBS_4Enum13has_backtrace0EBU_, symObjAddr: 0x660, symBinAddr: 0x3CA68, symSize: 0xB0 }
  - { offset: 0xCDAFD, size: 0x8, addend: 0x0, symName: __RINvXs2U_NtNtCsfvfooZQ3Axs_4core5slice4iterINtB7_4IterNtNtCsjOFMLY5rhAS_14thiserror_impl3ast7VariantENtNtNtNtBb_4iter6traits8iterator8Iterator3anyNCNvNtBU_6expand9impl_enums0_0EBU_, symObjAddr: 0x710, symBinAddr: 0x3CB18, symSize: 0xB0 }
  - { offset: 0xCDB62, size: 0x8, addend: 0x0, symName: __RINvXs2U_NtNtCsfvfooZQ3Axs_4core5slice4iterINtB7_4IterNtNtCsjOFMLY5rhAS_14thiserror_impl3ast7VariantENtNtNtNtBb_4iter6traits8iterator8Iterator4folduNCINvNtNtB1H_8adapters3map8map_foldRBQ_NtCs3cP53eQoTwO_11proc_macro211TokenStreamuNCNvNtBU_6expand9impl_enums1_0NCINvNvB1B_8for_each4callB2Z_NCINvMsi_NtCse1nGBsou5OW_5alloc3vecINtB4M_3VecB2Z_E14extend_trustedINtB2r_3MapBF_B3G_EE0E0E0EBU_, symObjAddr: 0x7C0, symBinAddr: 0x3CBC8, symSize: 0x1B8 }
  - { offset: 0xCDCB6, size: 0x8, addend: 0x0, symName: __RINvXs2U_NtNtCsfvfooZQ3Axs_4core5slice4iterINtB7_4IterNtNtCsjOFMLY5rhAS_14thiserror_impl3ast7VariantENtNtNtNtBb_4iter6traits8iterator8Iterator8find_mapNtCs3cP53eQoTwO_11proc_macro211TokenStreamQNCNvNtBU_6expand9impl_enums2_0EBU_, symObjAddr: 0x978, symBinAddr: 0x3CD80, symSize: 0xF0 }
  - { offset: 0xCDD3A, size: 0x8, addend: 0x0, symName: __RNvXs2U_NtNtCsfvfooZQ3Axs_4core5slice4iterINtB6_4IterNtCs3cP53eQoTwO_11proc_macro211TokenStreamENtNtNtNtBa_4iter6traits8iterator8Iterator4nextCsjOFMLY5rhAS_14thiserror_impl, symObjAddr: 0x1978, symBinAddr: 0x3DD7C, symSize: 0xBC }
  - { offset: 0xCDE88, size: 0x8, addend: 0x0, symName: __RNvXs2U_NtNtCsfvfooZQ3Axs_4core5slice4iterINtB6_4IterNtCs3cP53eQoTwO_11proc_macro25IdentENtNtNtNtBa_4iter6traits8iterator8Iterator4nextCsjOFMLY5rhAS_14thiserror_impl, symObjAddr: 0x1A34, symBinAddr: 0x3DE38, symSize: 0xBC }
  - { offset: 0xCDFD6, size: 0x8, addend: 0x0, symName: __RNvXs2U_NtNtCsfvfooZQ3Axs_4core5slice4iterINtB6_4IterNtNtCse1nGBsou5OW_5alloc6string6StringENtNtNtNtBa_4iter6traits8iterator8Iterator4nextCsjOFMLY5rhAS_14thiserror_impl, symObjAddr: 0x1AF0, symBinAddr: 0x3DEF4, symSize: 0xBC }
  - { offset: 0xCE124, size: 0x8, addend: 0x0, symName: __RNvXs2U_NtNtCsfvfooZQ3Axs_4core5slice4iterINtB6_4IterNtNtCsjOFMLY5rhAS_14thiserror_impl3ast5FieldENtNtNtNtBa_4iter6traits8iterator8Iterator4nextBT_, symObjAddr: 0x1BAC, symBinAddr: 0x3DFB0, symSize: 0xBC }
  - { offset: 0xCE272, size: 0x8, addend: 0x0, symName: __RNvXs2U_NtNtCsfvfooZQ3Axs_4core5slice4iterINtB6_4IterNtNtCsjOFMLY5rhAS_14thiserror_impl3ast7VariantENtNtNtNtBa_4iter6traits8iterator8Iterator4nextBT_, symObjAddr: 0x1C68, symBinAddr: 0x3E06C, symSize: 0xBC }
  - { offset: 0xCE3C0, size: 0x8, addend: 0x0, symName: __RNvXs2U_NtNtCsfvfooZQ3Axs_4core5slice4iterINtB6_4IterNtNtCsjOFMLY5rhAS_14thiserror_impl3ast7VariantENtNtNtNtBa_4iter6traits8iterator8Iterator9size_hintBT_, symObjAddr: 0x1D24, symBinAddr: 0x3E128, symSize: 0x70 }
  - { offset: 0xCE42F, size: 0x8, addend: 0x0, symName: __RNvXs2U_NtNtCsfvfooZQ3Axs_4core5slice4iterINtB6_4IterRNtCs3cP53eQoTwO_11proc_macro25IdentENtNtNtNtBa_4iter6traits8iterator8Iterator4nextCsjOFMLY5rhAS_14thiserror_impl, symObjAddr: 0x1D94, symBinAddr: 0x3E198, symSize: 0xBC }
  - { offset: 0xCE57D, size: 0x8, addend: 0x0, symName: __RNvXs2U_NtNtCsfvfooZQ3Axs_4core5slice4iterINtB6_4IterTNtCs3cP53eQoTwO_11proc_macro211TokenStreamNtNtCs6IAuOt8vWmF_3syn5token4PlusEENtNtNtNtBa_4iter6traits8iterator8Iterator4nextCsjOFMLY5rhAS_14thiserror_impl, symObjAddr: 0x1E50, symBinAddr: 0x3E254, symSize: 0xBC }
  - { offset: 0xCE6CB, size: 0x8, addend: 0x0, symName: __RNvXs2U_NtNtCsfvfooZQ3Axs_4core5slice4iterINtB6_4IterTNtNtCsjOFMLY5rhAS_14thiserror_impl9scan_expr5InputNtBS_6ActionEENtNtNtNtBa_4iter6traits8iterator8Iterator4nextBU_, symObjAddr: 0x1F0C, symBinAddr: 0x3E310, symSize: 0xBC }
  - { offset: 0xCE819, size: 0x8, addend: 0x0, symName: __RNvXs2U_NtNtCsfvfooZQ3Axs_4core5slice4iterINtB6_4IterTjNtNtCsjOFMLY5rhAS_14thiserror_impl4attr5TraitEENtNtNtNtBa_4iter6traits8iterator8Iterator4nextBV_, symObjAddr: 0x1FC8, symBinAddr: 0x3E3CC, symSize: 0xBC }
  - { offset: 0xCEEE2, size: 0x8, addend: 0x0, symName: __RNvXs2V_NtNtCsfvfooZQ3Axs_4core5slice4iterINtB6_4IterTNtNtCs6IAuOt8vWmF_3syn4data7VariantNtNtBU_5token5CommaEENtNtNtNtBa_4iter6traits12double_ended19DoubleEndedIterator9next_backCsjOFMLY5rhAS_14thiserror_impl, symObjAddr: 0x2084, symBinAddr: 0x3E488, symSize: 0x100 }
  - { offset: 0xCF03E, size: 0x8, addend: 0x0, symName: __RNvXs2V_NtNtCsfvfooZQ3Axs_4core5slice4iterINtB6_4IterTNtNtCs6IAuOt8vWmF_3syn4path15GenericArgumentNtNtBU_5token5CommaEENtNtNtNtBa_4iter6traits12double_ended19DoubleEndedIterator9next_backCsjOFMLY5rhAS_14thiserror_impl, symObjAddr: 0x2184, symBinAddr: 0x3E588, symSize: 0x100 }
  - { offset: 0xCF217, size: 0x8, addend: 0x0, symName: __RNvXs5_NtNtCsfvfooZQ3Axs_4core5slice4iterINtB5_4IterTNtNtCs6IAuOt8vWmF_3syn4data7VariantNtNtBT_5token5CommaEENtNtB9_5clone5Clone5cloneCsjOFMLY5rhAS_14thiserror_impl, symObjAddr: 0x2284, symBinAddr: 0x3E688, symSize: 0x20 }
  - { offset: 0xCF24C, size: 0x8, addend: 0x0, symName: __RNvXs5_NtNtCsfvfooZQ3Axs_4core5slice4iterINtB5_4IterTNtNtCs6IAuOt8vWmF_3syn4path15GenericArgumentNtNtBT_5token5CommaEENtNtB9_5clone5Clone5cloneCsjOFMLY5rhAS_14thiserror_impl, symObjAddr: 0x22A4, symBinAddr: 0x3E6A8, symSize: 0x20 }
  - { offset: 0xCF5E6, size: 0x8, addend: 0x0, symName: __RINvYINtNtNtCsfvfooZQ3Axs_4core5slice4iter4IterNtNtCsjOFMLY5rhAS_14thiserror_impl3ast5FieldENtNtNtNtBa_4iter6traits8iterator8Iterator3mapRNtNtCs6IAuOt8vWmF_3syn4expr6MemberNCNvNtBN_6expand10fields_pat0EBN_, symObjAddr: 0xA68, symBinAddr: 0x3CE70, symSize: 0x1C }
  - { offset: 0xCF63E, size: 0x8, addend: 0x0, symName: __RINvYINtNtNtCsfvfooZQ3Axs_4core5slice4iter4IterNtNtCsjOFMLY5rhAS_14thiserror_impl3ast7VariantENtNtNtNtBa_4iter6traits8iterator8Iterator10filter_mapNtCs3cP53eQoTwO_11proc_macro211TokenStreamNCNvNtBN_6expand9impl_enums2_0EBN_, symObjAddr: 0xA84, symBinAddr: 0x3CE8C, symSize: 0x34 }
  - { offset: 0xCF6AB, size: 0x8, addend: 0x0, symName: __RINvYINtNtNtCsfvfooZQ3Axs_4core5slice4iter4IterNtNtCsjOFMLY5rhAS_14thiserror_impl3ast7VariantENtNtNtNtBa_4iter6traits8iterator8Iterator3mapNtCs3cP53eQoTwO_11proc_macro211TokenStreamNCNvNtBN_6expand9impl_enum0EBN_, symObjAddr: 0xAB8, symBinAddr: 0x3CEC0, symSize: 0x3C }
  - { offset: 0xCF718, size: 0x8, addend: 0x0, symName: __RINvYINtNtNtCsfvfooZQ3Axs_4core5slice4iter4IterNtNtCsjOFMLY5rhAS_14thiserror_impl3ast7VariantENtNtNtNtBa_4iter6traits8iterator8Iterator3mapNtCs3cP53eQoTwO_11proc_macro211TokenStreamNCNvNtBN_6expand9impl_enums1_0EBN_, symObjAddr: 0xAF4, symBinAddr: 0x3CEFC, symSize: 0x3C }
  - { offset: 0xCF785, size: 0x8, addend: 0x0, symName: __RINvYINtNtNtCsfvfooZQ3Axs_4core5slice4iter4IterNtNtCsjOFMLY5rhAS_14thiserror_impl3ast7VariantENtNtNtNtBa_4iter6traits8iterator8Iterator3mapNtCs3cP53eQoTwO_11proc_macro211TokenStreamNCNvNtBN_6expand9impl_enums_0EBN_, symObjAddr: 0xB30, symBinAddr: 0x3CF38, symSize: 0x3C }
  - { offset: 0xCF7F2, size: 0x8, addend: 0x0, symName: __RNvYINtNtNtCsfvfooZQ3Axs_4core5slice4iter4IterNtNtCsjOFMLY5rhAS_14thiserror_impl3ast5FieldENtNtNtNtB9_4iter6traits8iterator8Iterator9enumerateBM_, symObjAddr: 0x2764, symBinAddr: 0x3EB68, symSize: 0x28 }
  - { offset: 0xCFD9D, size: 0x8, addend: 0x0, symName: __RNvNvNtCsfvfooZQ3Axs_4core9ub_checks23maybe_is_nonoverlapping7runtimeCsjOFMLY5rhAS_14thiserror_impl, symObjAddr: 0x1828, symBinAddr: 0x3DC2C, symSize: 0xD8 }
  - { offset: 0xD00DB, size: 0x8, addend: 0x0, symName: __RNCNvXs1_NtNtNtCscOYdFFY2T5N_3std2io5error14repr_bitpackedNtB7_4ReprNtNtNtCsfvfooZQ3Axs_4core3ops4drop4Drop4drop0CsjOFMLY5rhAS_14thiserror_impl, symObjAddr: 0xB6C, symBinAddr: 0x3CF74, symSize: 0x34 }
  - { offset: 0xD0190, size: 0x8, addend: 0x0, symName: __RNvXs1_NtNtNtCscOYdFFY2T5N_3std2io5error14repr_bitpackedNtB5_4ReprNtNtNtCsfvfooZQ3Axs_4core3ops4drop4Drop4dropCsjOFMLY5rhAS_14thiserror_impl, symObjAddr: 0x1940, symBinAddr: 0x3DD44, symSize: 0x38 }
  - { offset: 0xD01B9, size: 0x8, addend: 0x0, symName: __RINvNtNtNtCscOYdFFY2T5N_3std2io5error14repr_bitpacked11decode_reprINtNtCse1nGBsou5OW_5alloc5boxed3BoxNtB4_6CustomENCNvXs1_B2_NtB2_4ReprNtNtNtCsfvfooZQ3Axs_4core3ops4drop4Drop4drop0ECsjOFMLY5rhAS_14thiserror_impl, symObjAddr: 0x78, symBinAddr: 0x3C480, symSize: 0x230 }
  - { offset: 0xD045E, size: 0x8, addend: 0x0, symName: __RNvNtNtNtCscOYdFFY2T5N_3std2io5error14repr_bitpacked14kind_from_primCsjOFMLY5rhAS_14thiserror_impl, symObjAddr: 0xCFC, symBinAddr: 0x3D100, symSize: 0x608 }
  - { offset: 0xD6A8D, size: 0x8, addend: 0x0, symName: __RNvXsh_NtCs6IAuOt8vWmF_3syn5parseNvYNtCs3cP53eQoTwO_11proc_macro25IdentNtNtB7_3ext8IdentExt9parse_anyNtB5_6Parser6parse2CsjOFMLY5rhAS_14thiserror_impl, symObjAddr: 0x22C4, symBinAddr: 0x3E6C8, symSize: 0x338 }
  - { offset: 0xD6BA2, size: 0x8, addend: 0x0, symName: __RNvYNvYNtCs3cP53eQoTwO_11proc_macro25IdentNtNtCs6IAuOt8vWmF_3syn3ext8IdentExt9parse_anyNtNtBI_5parse6Parser9parse_strCsjOFMLY5rhAS_14thiserror_impl, symObjAddr: 0x278C, symBinAddr: 0x3EB90, symSize: 0x11C }
  - { offset: 0xD779F, size: 0x8, addend: 0x0, symName: __RNvMs4_NtNtCsfvfooZQ3Axs_4core5slice4iterINtB5_4IterNtCs3cP53eQoTwO_11proc_macro211TokenStreamE3newCsjOFMLY5rhAS_14thiserror_impl, symObjAddr: 0xBA0, symBinAddr: 0x3CFA8, symSize: 0x50 }
  - { offset: 0xD7987, size: 0x8, addend: 0x0, symName: __RNvMs4_NtNtCsfvfooZQ3Axs_4core5slice4iterINtB5_4IterNtNtCsjOFMLY5rhAS_14thiserror_impl3ast5FieldE3newBS_, symObjAddr: 0xBF0, symBinAddr: 0x3CFF8, symSize: 0x58 }
  - { offset: 0xD7B48, size: 0x8, addend: 0x0, symName: __RNvMs4_NtNtCsfvfooZQ3Axs_4core5slice4iterINtB5_4IterNtNtCsjOFMLY5rhAS_14thiserror_impl3ast7VariantE3newBS_, symObjAddr: 0xC48, symBinAddr: 0x3D050, symSize: 0x58 }
  - { offset: 0xD7D30, size: 0x8, addend: 0x0, symName: __RNvMs4_NtNtCsfvfooZQ3Axs_4core5slice4iterINtB5_4IterTNtCs3cP53eQoTwO_11proc_macro211TokenStreamNtNtCs6IAuOt8vWmF_3syn5token4PlusEE3newCsjOFMLY5rhAS_14thiserror_impl, symObjAddr: 0xCA0, symBinAddr: 0x3D0A8, symSize: 0x58 }
  - { offset: 0xD7FEC, size: 0x8, addend: 0x0, symName: __RNvXNtCs2cqEZUIJimJ_5quote9to_tokensRNtNtCs6IAuOt8vWmF_3syn3lit6LitStrNtB2_8ToTokens9to_tokensCsjOFMLY5rhAS_14thiserror_impl, symObjAddr: 0x1900, symBinAddr: 0x3DD04, symSize: 0x40 }
  - { offset: 0xD8CEB, size: 0x8, addend: 0x0, symName: __RINvMNtCsfvfooZQ3Axs_4core6optionINtB3_6OptionIBw_RNtNtCs6IAuOt8vWmF_3syn4expr6MemberEE18get_or_insert_withNCNvMs3_NtNtNtB5_4iter8adapters8peekableINtB1P_8PeekableINtNtB1R_3map3MapINtNtNtB5_5slice4iter4IterNtNtCsjOFMLY5rhAS_14thiserror_impl3ast5FieldENCNvNtB3m_6expand10fields_pat0EE4peek0EB3m_, symObjAddr: 0x0, symBinAddr: 0x3ECAC, symSize: 0xFC }
  - { offset: 0xDDB29, size: 0x8, addend: 0x0, symName: __RNvXsb_NtCs6IAuOt8vWmF_3syn5parseINtNtCsfvfooZQ3Axs_4core6option6OptionNtCs3cP53eQoTwO_11proc_macro29TokenTreeENtB5_5Parse5parseCsjOFMLY5rhAS_14thiserror_impl, symObjAddr: 0x275C, symBinAddr: 0x41408, symSize: 0x140 }
  - { offset: 0xDDB85, size: 0x8, addend: 0x0, symName: __RNvXsh_NtCs6IAuOt8vWmF_3syn5parseNvNtCsjOFMLY5rhAS_14thiserror_impl3fmt19explicit_named_argsNtB5_6Parser6parse2Bz_, symObjAddr: 0x28EC, symBinAddr: 0x41598, symSize: 0x338 }
  - { offset: 0xDF5CA, size: 0x8, addend: 0x0, symName: __RNCINvNtNtCs9i5KxIbZ5ph_10proc_macro6bridge6client10run_clientNtB4_11TokenStreamINtNtCsfvfooZQ3Axs_4core6option6OptionBY_ENCNCINvMs7_B4_INtB4_6ClientNtB8_11TokenStreamB2n_E7expand1NvCsjOFMLY5rhAS_14thiserror_impl12derive_errorE00E0B2U_, symObjAddr: 0x1770, symBinAddr: 0x4041C, symSize: 0x324 }
  - { offset: 0xDF832, size: 0x8, addend: 0x0, symName: __RNCNCINvNtNtCs9i5KxIbZ5ph_10proc_macro6bridge6client10run_clientNtB6_11TokenStreamINtNtCsfvfooZQ3Axs_4core6option6OptionB10_ENCNCINvMs7_B6_INtB6_6ClientNtBa_11TokenStreamB2q_E7expand1NvCsjOFMLY5rhAS_14thiserror_impl12derive_errorE00E00B2X_, symObjAddr: 0x1AC4, symBinAddr: 0x40770, symSize: 0x28 }
  - { offset: 0xDF8B0, size: 0x8, addend: 0x0, symName: __RNCNCINvMs7_NtNtCs9i5KxIbZ5ph_10proc_macro6bridge6clientINtBa_6ClientNtBe_11TokenStreamB15_E7expand1NvCsjOFMLY5rhAS_14thiserror_impl12derive_errorE00B1C_, symObjAddr: 0x1A94, symBinAddr: 0x40740, symSize: 0x30 }
  - { offset: 0xDF8F9, size: 0x8, addend: 0x0, symName: __RNCINvMs7_NtNtCs9i5KxIbZ5ph_10proc_macro6bridge6clientINtB8_6ClientNtBc_11TokenStreamB13_E7expand1NvCsjOFMLY5rhAS_14thiserror_impl12derive_errorE0B1A_, symObjAddr: 0x1740, symBinAddr: 0x403EC, symSize: 0x30 }
  - { offset: 0xDF944, size: 0x8, addend: 0x0, symName: __RINvNtNtCs9i5KxIbZ5ph_10proc_macro6bridge6client10run_clientNtB2_11TokenStreamINtNtCsfvfooZQ3Axs_4core6option6OptionBW_ENCNCINvMs7_B2_INtB2_6ClientNtB6_11TokenStreamB2l_E7expand1NvCsjOFMLY5rhAS_14thiserror_impl12derive_errorE00EB2S_, symObjAddr: 0xF00, symBinAddr: 0x3FBAC, symSize: 0x21C }
  - { offset: 0xDFB36, size: 0x8, addend: 0x0, symName: __RNvXsg_NtNtCs9i5KxIbZ5ph_10proc_macro6bridge6clientNtB5_11TokenStreamINtNtB7_3rpc6EncodeuE6encodeCsjOFMLY5rhAS_14thiserror_impl, symObjAddr: 0x289C, symBinAddr: 0x41548, symSize: 0x50 }
  - { offset: 0xDFC47, size: 0x8, addend: 0x0, symName: __RNvXsj_NtNtCs9i5KxIbZ5ph_10proc_macro6bridge6clientNtB5_11TokenStreamINtNtB7_3rpc9DecodeMutuE6decodeCsjOFMLY5rhAS_14thiserror_impl, symObjAddr: 0x2C24, symBinAddr: 0x418D0, symSize: 0x2C }
  - { offset: 0xDFC90, size: 0x8, addend: 0x0, symName: __RNvXsq_NtNtCs9i5KxIbZ5ph_10proc_macro6bridge6clientNtB5_4SpanINtNtB7_3rpc9DecodeMutuE6decodeCsjOFMLY5rhAS_14thiserror_impl, symObjAddr: 0x2C88, symBinAddr: 0x41934, symSize: 0x2C }
  - { offset: 0xE00E9, size: 0x8, addend: 0x0, symName: __RNvXs9_NtNtCs9i5KxIbZ5ph_10proc_macro6bridge3rpcTINtB7_11ExpnGlobalsNtNtB7_6client4SpanENtB16_11TokenStreamEINtB5_9DecodeMutuE6decodeCsjOFMLY5rhAS_14thiserror_impl, symObjAddr: 0x23F8, symBinAddr: 0x410A4, symSize: 0x84 }
  - { offset: 0xE024A, size: 0x8, addend: 0x0, symName: __RNvXs1J_NtCs9i5KxIbZ5ph_10proc_macro6bridgeINtB6_11ExpnGlobalsNtNtB6_6client4SpanEINtNtB6_3rpc9DecodeMutuE6decodeCsjOFMLY5rhAS_14thiserror_impl, symObjAddr: 0x206C, symBinAddr: 0x40D18, symSize: 0xB0 }
  - { offset: 0xE029C, size: 0x8, addend: 0x0, symName: __RNvXsR_NtCs9i5KxIbZ5ph_10proc_macro6bridgeINtNtCsfvfooZQ3Axs_4core6option6OptionNtNtB5_6client11TokenStreamEINtNtB5_3rpc6EncodeuE6encodeCsjOFMLY5rhAS_14thiserror_impl, symObjAddr: 0x25B8, symBinAddr: 0x41264, symSize: 0xCC }
  - { offset: 0xE0342, size: 0x8, addend: 0x0, symName: __RNvXsR_NtCs9i5KxIbZ5ph_10proc_macro6bridgeINtNtCsfvfooZQ3Axs_4core6option6OptionReEINtNtB5_3rpc6EncodeuE6encodeCsjOFMLY5rhAS_14thiserror_impl, symObjAddr: 0x2684, symBinAddr: 0x41330, symSize: 0xD8 }
  - { offset: 0xE1252, size: 0x8, addend: 0x0, symName: __RINvNtCsfvfooZQ3Axs_4core9panicking13panic_displayNtNtCs6IAuOt8vWmF_3syn5error5ErrorECsjOFMLY5rhAS_14thiserror_impl, symObjAddr: 0xE78, symBinAddr: 0x3FB24, symSize: 0x88 }
  - { offset: 0xE45EF, size: 0x8, addend: 0x0, symName: __RNvXs3_NtCsfvfooZQ3Axs_4core6optionINtB5_6OptionNtNtCsjOFMLY5rhAS_14thiserror_impl4attr7DisplayENtNtB7_5clone5Clone10clone_fromBO_, symObjAddr: 0x22AC, symBinAddr: 0x40F58, symSize: 0x138 }
  - { offset: 0xE4725, size: 0x8, addend: 0x0, symName: __RNvXs5_NtCsfvfooZQ3Axs_4core6optionINtB5_6OptionRNtCs3cP53eQoTwO_11proc_macro211TokenStreamENtNtNtNtB7_4iter6traits7collect12IntoIterator9into_iterCsjOFMLY5rhAS_14thiserror_impl, symObjAddr: 0x23E4, symBinAddr: 0x41090, symSize: 0x14 }
  - { offset: 0xE4762, size: 0x8, addend: 0x0, symName: __RNvXsB_NtCsfvfooZQ3Axs_4core6optionINtB5_6OptionRNtNtCsjOFMLY5rhAS_14thiserror_impl3ast5FieldENtNtNtB7_3ops9try_trait3Try6branchBP_, symObjAddr: 0x247C, symBinAddr: 0x41128, symSize: 0x40 }
  - { offset: 0xE47BD, size: 0x8, addend: 0x0, symName: __RNvXsC_NtCsfvfooZQ3Axs_4core6optionINtB5_6OptionNtCs3cP53eQoTwO_11proc_macro211TokenStreamEINtNtNtB7_3ops9try_trait12FromResidualIBy_NtNtB7_7convert10InfallibleEE13from_residualCsjOFMLY5rhAS_14thiserror_impl, symObjAddr: 0x24BC, symBinAddr: 0x41168, symSize: 0x18 }
  - { offset: 0xE47F0, size: 0x8, addend: 0x0, symName: __RNvXsC_NtCsfvfooZQ3Axs_4core6optionINtB5_6OptionRNtNtCsjOFMLY5rhAS_14thiserror_impl3ast5FieldEINtNtNtB7_3ops9try_trait12FromResidualIBy_NtNtB7_7convert10InfallibleEE13from_residualBP_, symObjAddr: 0x24D4, symBinAddr: 0x41180, symSize: 0x14 }
  - { offset: 0xE487D, size: 0x8, addend: 0x0, symName: __RNvXsO_NtCsfvfooZQ3Axs_4core6optionINtB5_8IntoIterRNtNtCs6IAuOt8vWmF_3syn4data7VariantENtNtB7_5clone5Clone5cloneCsjOFMLY5rhAS_14thiserror_impl, symObjAddr: 0x24E8, symBinAddr: 0x41194, symSize: 0x68 }
  - { offset: 0xE4924, size: 0x8, addend: 0x0, symName: __RNvXsO_NtCsfvfooZQ3Axs_4core6optionINtB5_8IntoIterRNtNtCs6IAuOt8vWmF_3syn4path15GenericArgumentENtNtB7_5clone5Clone5cloneCsjOFMLY5rhAS_14thiserror_impl, symObjAddr: 0x2550, symBinAddr: 0x411FC, symSize: 0x68 }
  - { offset: 0xE4A28, size: 0x8, addend: 0x0, symName: __RNvXsv_NtCsfvfooZQ3Axs_4core6optionINtB5_8IntoIterRNtCs3cP53eQoTwO_11proc_macro211TokenStreamENtNtNtNtB7_4iter6traits8iterator8Iterator4nextCsjOFMLY5rhAS_14thiserror_impl, symObjAddr: 0x2CB4, symBinAddr: 0x41960, symSize: 0x28 }
  - { offset: 0xE4ACB, size: 0x8, addend: 0x0, symName: __RNvXsv_NtCsfvfooZQ3Axs_4core6optionINtB5_8IntoIterRNtNtCs6IAuOt8vWmF_3syn4data7VariantENtNtNtNtB7_4iter6traits8iterator8Iterator9size_hintCsjOFMLY5rhAS_14thiserror_impl, symObjAddr: 0x2CDC, symBinAddr: 0x41988, symSize: 0x44 }
  - { offset: 0xE4B43, size: 0x8, addend: 0x0, symName: __RNvXsv_NtCsfvfooZQ3Axs_4core6optionINtB5_8IntoIterRNtNtCs6IAuOt8vWmF_3syn4path15GenericArgumentENtNtNtNtB7_4iter6traits8iterator8Iterator9size_hintCsjOFMLY5rhAS_14thiserror_impl, symObjAddr: 0x2D20, symBinAddr: 0x419CC, symSize: 0x44 }
  - { offset: 0xE4F00, size: 0x8, addend: 0x0, symName: __RNvXsn_NtNtCsfvfooZQ3Axs_4core5panic11unwind_safeINtB5_16AssertUnwindSafeNCINvNtNtCs9i5KxIbZ5ph_10proc_macro6bridge6client10run_clientNtB1e_11TokenStreamINtNtB9_6option6OptionB28_ENCNCINvMs7_B1e_INtB1e_6ClientNtB1i_11TokenStreamB3l_E7expand1NvCsjOFMLY5rhAS_14thiserror_impl12derive_errorE00E0EINtNtNtB9_3ops8function6FnOnceuE9call_onceB3T_, symObjAddr: 0x2C50, symBinAddr: 0x418FC, symSize: 0x38 }
  - { offset: 0xE5013, size: 0x8, addend: 0x0, symName: __RNvXs0_NtNtNtCsfvfooZQ3Axs_4core4iter8adapters10filter_mapINtB5_9FilterMapINtNtNtBb_5slice4iter4IterNtNtCsjOFMLY5rhAS_14thiserror_impl3ast7VariantENCNvNtB1E_6expand9impl_enums2_0ENtNtNtB9_6traits8iterator8Iterator4nextB1E_, symObjAddr: 0x2040, symBinAddr: 0x40CEC, symSize: 0x2C }
  - { offset: 0xE509F, size: 0x8, addend: 0x0, symName: __RNvYINtNtCsfvfooZQ3Axs_4core6option8IntoIterRNtNtCs6IAuOt8vWmF_3syn4data7VariantENtNtNtNtB7_4iter6traits10exact_size17ExactSizeIterator3lenCsjOFMLY5rhAS_14thiserror_impl, symObjAddr: 0x2E44, symBinAddr: 0x41AF0, symSize: 0xF4 }
  - { offset: 0xE5192, size: 0x8, addend: 0x0, symName: __RNvYINtNtCsfvfooZQ3Axs_4core6option8IntoIterRNtNtCs6IAuOt8vWmF_3syn4path15GenericArgumentENtNtNtNtB7_4iter6traits10exact_size17ExactSizeIterator3lenCsjOFMLY5rhAS_14thiserror_impl, symObjAddr: 0x2F38, symBinAddr: 0x41BE4, symSize: 0xF4 }
  - { offset: 0xE542A, size: 0x8, addend: 0x0, symName: __RINvNtNtNtNtCsfvfooZQ3Axs_4core5slice4sort6shared5pivot11median3_recRNtCs3cP53eQoTwO_11proc_macro25IdentNvYB14_NtNtBa_3cmp10PartialOrd2ltECsjOFMLY5rhAS_14thiserror_impl, symObjAddr: 0x111C, symBinAddr: 0x3FDC8, symSize: 0x1CC }
  - { offset: 0xE5624, size: 0x8, addend: 0x0, symName: __RINvNtNtNtNtCsfvfooZQ3Axs_4core5slice4sort6shared5pivot12choose_pivotRNtCs3cP53eQoTwO_11proc_macro25IdentNvYB15_NtNtBa_3cmp10PartialOrd2ltECsjOFMLY5rhAS_14thiserror_impl, symObjAddr: 0x12E8, symBinAddr: 0x3FF94, symSize: 0x1F8 }
  - { offset: 0xE5928, size: 0x8, addend: 0x0, symName: __RINvNvMNtCsfvfooZQ3Axs_4core5sliceSp7reverse7revswapRNtCs3cP53eQoTwO_11proc_macro25IdentECsjOFMLY5rhAS_14thiserror_impl, symObjAddr: 0x14E0, symBinAddr: 0x4018C, symSize: 0x260 }
  - { offset: 0xE5AE5, size: 0x8, addend: 0x0, symName: __RNvMNtCsfvfooZQ3Axs_4core5sliceSh15copy_from_sliceCsjOFMLY5rhAS_14thiserror_impl, symObjAddr: 0x1AEC, symBinAddr: 0x40798, symSize: 0xA4 }
  - { offset: 0xE5B8E, size: 0x8, addend: 0x0, symName: __RNvNvMNtCsfvfooZQ3Axs_4core5sliceSp22split_at_mut_unchecked18precondition_checkCsjOFMLY5rhAS_14thiserror_impl, symObjAddr: 0x2000, symBinAddr: 0x40CAC, symSize: 0x40 }
  - { offset: 0xE6A74, size: 0x8, addend: 0x0, symName: __RNvNtCsjOFMLY5rhAS_14thiserror_impl3fmt19explicit_named_args, symObjAddr: 0x306C, symBinAddr: 0x41D18, symSize: 0x3B8 }
  - { offset: 0xE6B2C, size: 0x8, addend: 0x0, symName: __RNvNtCsjOFMLY5rhAS_14thiserror_impl3fmt23try_explicit_named_args, symObjAddr: 0x3424, symBinAddr: 0x420D0, symSize: 0x5F4 }
  - { offset: 0xE6C36, size: 0x8, addend: 0x0, symName: __RNvNtCsjOFMLY5rhAS_14thiserror_impl3fmt28fallback_explicit_named_args, symObjAddr: 0x3A18, symBinAddr: 0x426C4, symSize: 0x4B8 }
  - { offset: 0xE6D32, size: 0x8, addend: 0x0, symName: __RNvNtCsjOFMLY5rhAS_14thiserror_impl3fmt11is_syn_full, symObjAddr: 0x3ED0, symBinAddr: 0x42B7C, symSize: 0x21C }
  - { offset: 0xE6D99, size: 0x8, addend: 0x0, symName: __RNvNtCsjOFMLY5rhAS_14thiserror_impl3fmt8take_int, symObjAddr: 0x40EC, symBinAddr: 0x42D98, symSize: 0x1F0 }
  - { offset: 0xE6E15, size: 0x8, addend: 0x0, symName: __RNvNtCsjOFMLY5rhAS_14thiserror_impl3fmt10take_ident, symObjAddr: 0x42DC, symBinAddr: 0x42F88, symSize: 0x3E8 }
  - { offset: 0xE75B1, size: 0x8, addend: 0x0, symName: __RINvMNtCsfvfooZQ3Axs_4core6optionINtB3_6OptionIBw_RNtNtCs6IAuOt8vWmF_3syn4expr6MemberEE18get_or_insert_withNCNvMs3_NtNtNtB5_4iter8adapters8peekableINtB1P_8PeekableINtNtB1R_3map3MapINtNtNtB5_5slice4iter4IterNtNtCsjOFMLY5rhAS_14thiserror_impl3ast5FieldENCNvNtB3m_6expand10fields_pat0EE4peek0EB3m_, symObjAddr: 0x0, symBinAddr: 0x3ECAC, symSize: 0xFC }
  - { offset: 0xE7701, size: 0x8, addend: 0x0, symName: __RINvMNtCsfvfooZQ3Axs_4core6optionINtB3_6OptionIBw_TRNtCs3cP53eQoTwO_11proc_macro25IdentNtNtNtNtCse1nGBsou5OW_5alloc11collections5btree7set_val9SetValZSTEEE18get_or_insert_withNCNvMs3_NtNtNtB5_4iter8adapters8peekableINtB2V_8PeekableINtNtB2X_3map3MapINtNtNtB1v_3vec9into_iter8IntoIterBN_ENCINvMse_NtB1r_3setINtB4J_8BTreeSetBN_E16from_sorted_iterB3Y_E0EE4peek0ECsjOFMLY5rhAS_14thiserror_impl, symObjAddr: 0xFC, symBinAddr: 0x3EDA8, symSize: 0xFC }
  - { offset: 0xE77C3, size: 0x8, addend: 0x0, symName: __RINvMNtCsfvfooZQ3Axs_4core6optionINtB3_6OptionINtNtCs6IAuOt8vWmF_3syn10punctuated4PairRNtCs3cP53eQoTwO_11proc_macro211TokenStreamRNtNtBN_5token4PlusEE7or_elseNCNvXsc_BL_INtBL_5PairsB1n_B24_ENtNtNtNtB5_4iter6traits8iterator8Iterator4nexts_0ECsjOFMLY5rhAS_14thiserror_impl, symObjAddr: 0x1F8, symBinAddr: 0x3EEA4, symSize: 0xB4 }
  - { offset: 0xE7826, size: 0x8, addend: 0x0, symName: __RINvMNtCsfvfooZQ3Axs_4core6optionINtB3_6OptionNtCs3cP53eQoTwO_11proc_macro211TokenStreamE3mapBI_NCNvNtCsjOFMLY5rhAS_14thiserror_impl6expand11impl_struct0EB1C_, symObjAddr: 0x2AC, symBinAddr: 0x3EF58, symSize: 0x90 }
  - { offset: 0xE78D3, size: 0x8, addend: 0x0, symName: __RINvMNtCsfvfooZQ3Axs_4core6optionINtB3_6OptionNtCs3cP53eQoTwO_11proc_macro211TokenStreamE3mapBI_NCNvNtCsjOFMLY5rhAS_14thiserror_impl6expand11impl_structs0_0EB1C_, symObjAddr: 0x33C, symBinAddr: 0x3EFE8, symSize: 0xB8 }
  - { offset: 0xE7958, size: 0x8, addend: 0x0, symName: __RINvMNtCsfvfooZQ3Axs_4core6optionINtB3_6OptionNtCs3cP53eQoTwO_11proc_macro25IdentE3mapNtNtCs6IAuOt8vWmF_3syn4expr6MemberNcNtB1m_5Named0ECsjOFMLY5rhAS_14thiserror_impl, symObjAddr: 0x3F4, symBinAddr: 0x3F0A0, symSize: 0x8C }
  - { offset: 0xE79DE, size: 0x8, addend: 0x0, symName: __RINvMNtCsfvfooZQ3Axs_4core6optionINtB3_6OptionNtNtCs6IAuOt8vWmF_3syn4expr6MemberE14unwrap_or_elseNCNvMs2_NtCsjOFMLY5rhAS_14thiserror_impl3astNtB1F_5Field8from_syn0EB1H_, symObjAddr: 0x480, symBinAddr: 0x3F12C, symSize: 0x84 }
  - { offset: 0xE7A73, size: 0x8, addend: 0x0, symName: __RINvMNtCsfvfooZQ3Axs_4core6optionINtB3_6OptionRINtNtCse1nGBsou5OW_5alloc5boxed3BoxNtCs3cP53eQoTwO_11proc_macro211TokenStreamEE3mapRB1i_NvYBJ_INtNtB5_7convert5AsRefB1i_E6as_refECsjOFMLY5rhAS_14thiserror_impl, symObjAddr: 0x504, symBinAddr: 0x3F1B0, symSize: 0x50 }
  - { offset: 0xE7AF6, size: 0x8, addend: 0x0, symName: __RINvMNtCsfvfooZQ3Axs_4core6optionINtB3_6OptionRNtCs3cP53eQoTwO_11proc_macro211TokenStreamE3mapINtNtCs6IAuOt8vWmF_3syn10punctuated4PairBI_RNtNtB1z_5token4PlusENcNtB1u_3End0ECsjOFMLY5rhAS_14thiserror_impl, symObjAddr: 0x554, symBinAddr: 0x3F200, symSize: 0x68 }
  - { offset: 0xE7B7B, size: 0x8, addend: 0x0, symName: __RINvMNtCsfvfooZQ3Axs_4core6optionINtB3_6OptionRNtNtCs6IAuOt8vWmF_3syn4data7VariantE7or_elseNCNvXsw_NtBN_10punctuatedINtB1z_11PrivateIterBJ_NtNtBN_5token5CommaENtNtNtNtB5_4iter6traits8iterator8Iterator4nexts_0ECsjOFMLY5rhAS_14thiserror_impl, symObjAddr: 0x5BC, symBinAddr: 0x3F268, symSize: 0xA8 }
  - { offset: 0xE7C04, size: 0x8, addend: 0x0, symName: __RINvMNtCsfvfooZQ3Axs_4core6optionINtB3_6OptionRNtNtCs6IAuOt8vWmF_3syn4data7VariantE7or_elseNCNvXsx_NtBN_10punctuatedINtB1z_11PrivateIterBJ_NtNtBN_5token5CommaENtNtNtNtB5_4iter6traits12double_ended19DoubleEndedIterator9next_back0ECsjOFMLY5rhAS_14thiserror_impl, symObjAddr: 0x664, symBinAddr: 0x3F310, symSize: 0xA8 }
  - { offset: 0xE7C80, size: 0x8, addend: 0x0, symName: __RINvMNtCsfvfooZQ3Axs_4core6optionINtB3_6OptionRNtNtCs6IAuOt8vWmF_3syn4path15GenericArgumentE7or_elseNCNvXsw_NtBN_10punctuatedINtB1I_11PrivateIterBJ_NtNtBN_5token5CommaENtNtNtNtB5_4iter6traits8iterator8Iterator4nexts_0ECsjOFMLY5rhAS_14thiserror_impl, symObjAddr: 0x70C, symBinAddr: 0x3F3B8, symSize: 0xA8 }
  - { offset: 0xE7D09, size: 0x8, addend: 0x0, symName: __RINvMNtCsfvfooZQ3Axs_4core6optionINtB3_6OptionRNtNtCs6IAuOt8vWmF_3syn4path15GenericArgumentE7or_elseNCNvXsx_NtBN_10punctuatedINtB1I_11PrivateIterBJ_NtNtBN_5token5CommaENtNtNtNtB5_4iter6traits12double_ended19DoubleEndedIterator9next_back0ECsjOFMLY5rhAS_14thiserror_impl, symObjAddr: 0x7B4, symBinAddr: 0x3F460, symSize: 0xA8 }
  - { offset: 0xE7D78, size: 0x8, addend: 0x0, symName: __RINvMNtCsfvfooZQ3Axs_4core6optionINtB3_6OptionRNtNtCs6IAuOt8vWmF_3syn8lifetime8LifetimeE6map_orbNCNvNtCsjOFMLY5rhAS_14thiserror_impl5valid28contains_non_static_lifetime0EB1C_, symObjAddr: 0x85C, symBinAddr: 0x3F508, symSize: 0xAC }
  - { offset: 0xE7E11, size: 0x8, addend: 0x0, symName: __RINvMNtCsfvfooZQ3Axs_4core6optionINtB3_6OptionRNtNtCsjOFMLY5rhAS_14thiserror_impl3ast5FieldE3mapNtCs3cP53eQoTwO_11proc_macro211TokenStreamNCNvNtBN_6expand11impl_structs1_0EBN_, symObjAddr: 0x908, symBinAddr: 0x3F5B4, symSize: 0x94 }
  - { offset: 0xE7E7D, size: 0x8, addend: 0x0, symName: __RINvMNtCsfvfooZQ3Axs_4core6optionINtB3_6OptionRNtNtCsjOFMLY5rhAS_14thiserror_impl3ast5FieldE3mapNtCs3cP53eQoTwO_11proc_macro211TokenStreamNCNvNtBN_6expand11impl_structs_0EBN_, symObjAddr: 0x99C, symBinAddr: 0x3F648, symSize: 0x78 }
  - { offset: 0xE7EE8, size: 0x8, addend: 0x0, symName: __RINvMNtCsfvfooZQ3Axs_4core6optionINtB3_6OptionRNtNtCsjOFMLY5rhAS_14thiserror_impl3ast5FieldE3mapNtCs3cP53eQoTwO_11proc_macro211TokenStreamNCNvNtBN_6expand16from_initializer0EBN_, symObjAddr: 0xA14, symBinAddr: 0x3F6C0, symSize: 0x6C }
  - { offset: 0xE7F53, size: 0x8, addend: 0x0, symName: __RINvMNtCsfvfooZQ3Axs_4core6optionINtB3_6OptionRNtNtCsjOFMLY5rhAS_14thiserror_impl3ast5FieldE6map_orbNCNvNtBN_4prop24distinct_backtrace_field0EBN_, symObjAddr: 0xA80, symBinAddr: 0x3F72C, symSize: 0xB8 }
  - { offset: 0xE7FD2, size: 0x8, addend: 0x0, symName: __RINvMNtCsfvfooZQ3Axs_4core6optionINtB3_6OptionRNtNtCsjOFMLY5rhAS_14thiserror_impl4attr7DisplayE6map_orbNCNCNvNtBN_6expand9impl_enums0_00EBN_, symObjAddr: 0xB38, symBinAddr: 0x3F7E4, symSize: 0xAC }
  - { offset: 0xE806F, size: 0x8, addend: 0x0, symName: __RINvMNtCsfvfooZQ3Axs_4core6optionINtB3_6OptionRTNtCs3cP53eQoTwO_11proc_macro211TokenStreamNtNtCs6IAuOt8vWmF_3syn5token4PlusEE3mapINtNtB1u_10punctuated4PairRBK_RB1q_ENCNvXsc_B26_INtB26_5PairsBK_B1q_ENtNtNtNtB5_4iter6traits8iterator8Iterator4next0ECsjOFMLY5rhAS_14thiserror_impl, symObjAddr: 0xBE4, symBinAddr: 0x3F890, symSize: 0x68 }
  - { offset: 0xE80DA, size: 0x8, addend: 0x0, symName: __RINvMNtCsfvfooZQ3Axs_4core6optionINtB3_6OptionRTNtNtCs6IAuOt8vWmF_3syn4data7VariantNtNtBO_5token5CommaEE3mapRBK_NCNCNvXsx_NtBO_10punctuatedINtB1W_11PrivateIterBK_B1j_ENtNtNtNtB5_4iter6traits12double_ended19DoubleEndedIterator9next_back00ECsjOFMLY5rhAS_14thiserror_impl, symObjAddr: 0xC4C, symBinAddr: 0x3F8F8, symSize: 0x50 }
  - { offset: 0xE8145, size: 0x8, addend: 0x0, symName: __RINvMNtCsfvfooZQ3Axs_4core6optionINtB3_6OptionRTNtNtCs6IAuOt8vWmF_3syn4data7VariantNtNtBO_5token5CommaEE3mapRBK_NCNvXsw_NtBO_10punctuatedINtB1U_11PrivateIterBK_B1j_ENtNtNtNtB5_4iter6traits8iterator8Iterator4next0ECsjOFMLY5rhAS_14thiserror_impl, symObjAddr: 0xC9C, symBinAddr: 0x3F948, symSize: 0x50 }
  - { offset: 0xE81B0, size: 0x8, addend: 0x0, symName: __RINvMNtCsfvfooZQ3Axs_4core6optionINtB3_6OptionRTNtNtCs6IAuOt8vWmF_3syn4path15GenericArgumentNtNtBO_5token5CommaEE3mapRBK_NCNCNvXsx_NtBO_10punctuatedINtB25_11PrivateIterBK_B1s_ENtNtNtNtB5_4iter6traits12double_ended19DoubleEndedIterator9next_back00ECsjOFMLY5rhAS_14thiserror_impl, symObjAddr: 0xCEC, symBinAddr: 0x3F998, symSize: 0x50 }
  - { offset: 0xE821B, size: 0x8, addend: 0x0, symName: __RINvMNtCsfvfooZQ3Axs_4core6optionINtB3_6OptionRTNtNtCs6IAuOt8vWmF_3syn4path15GenericArgumentNtNtBO_5token5CommaEE3mapRBK_NCNvXsw_NtBO_10punctuatedINtB23_11PrivateIterBK_B1s_ENtNtNtNtB5_4iter6traits8iterator8Iterator4next0ECsjOFMLY5rhAS_14thiserror_impl, symObjAddr: 0xD3C, symBinAddr: 0x3F9E8, symSize: 0x50 }
  - { offset: 0xE8308, size: 0x8, addend: 0x0, symName: __RINvMNtCsfvfooZQ3Axs_4core6optionINtB3_6OptionbE18get_or_insert_withNvNtCsjOFMLY5rhAS_14thiserror_impl3fmt11is_syn_fullEB18_, symObjAddr: 0xD8C, symBinAddr: 0x3FA38, symSize: 0xEC }
  - { offset: 0xE88DE, size: 0x8, addend: 0x0, symName: __RNvMNtCsfvfooZQ3Axs_4core6optionINtB2_6OptionINtNtB4_4cell4CellTyyEEE4takeCsjOFMLY5rhAS_14thiserror_impl, symObjAddr: 0x1B90, symBinAddr: 0x4083C, symSize: 0x3C }
  - { offset: 0xE8971, size: 0x8, addend: 0x0, symName: __RNvMNtCsfvfooZQ3Axs_4core6optionINtB2_6OptionINtNtCse1nGBsou5OW_5alloc5boxed3BoxNtCs3cP53eQoTwO_11proc_macro211TokenStreamEE4takeCsjOFMLY5rhAS_14thiserror_impl, symObjAddr: 0x1BCC, symBinAddr: 0x40878, symSize: 0x28 }
  - { offset: 0xE8A04, size: 0x8, addend: 0x0, symName: __RNvMNtCsfvfooZQ3Axs_4core6optionINtB2_6OptionINtNtCse1nGBsou5OW_5alloc5boxed3BoxNtCs3cP53eQoTwO_11proc_macro211TokenStreamEE6as_refCsjOFMLY5rhAS_14thiserror_impl, symObjAddr: 0x1BF4, symBinAddr: 0x408A0, symSize: 0x4C }
  - { offset: 0xE8A6A, size: 0x8, addend: 0x0, symName: __RNvMNtCsfvfooZQ3Axs_4core6optionINtB2_6OptionINtNtCse1nGBsou5OW_5alloc5boxed3BoxNtCs3cP53eQoTwO_11proc_macro211TokenStreamEE7is_noneCsjOFMLY5rhAS_14thiserror_impl, symObjAddr: 0x1C40, symBinAddr: 0x408EC, symSize: 0x28 }
  - { offset: 0xE8AB4, size: 0x8, addend: 0x0, symName: __RNvMNtCsfvfooZQ3Axs_4core6optionINtB2_6OptionINtNtCse1nGBsou5OW_5alloc5boxed3BoxNtCs3cP53eQoTwO_11proc_macro211TokenStreamEE7is_someCsjOFMLY5rhAS_14thiserror_impl, symObjAddr: 0x1C68, symBinAddr: 0x40914, symSize: 0x28 }
  - { offset: 0xE8AE0, size: 0x8, addend: 0x0, symName: __RNvMNtCsfvfooZQ3Axs_4core6optionINtB2_6OptionNtCs3cP53eQoTwO_11proc_macro24SpanE2orCsjOFMLY5rhAS_14thiserror_impl, symObjAddr: 0x1C90, symBinAddr: 0x4093C, symSize: 0x80 }
  - { offset: 0xE8B46, size: 0x8, addend: 0x0, symName: __RNvMNtCsfvfooZQ3Axs_4core6optionINtB2_6OptionNtCs3cP53eQoTwO_11proc_macro25IdentE7is_someCsjOFMLY5rhAS_14thiserror_impl, symObjAddr: 0x1D10, symBinAddr: 0x409BC, symSize: 0x28 }
  - { offset: 0xE8B7F, size: 0x8, addend: 0x0, symName: __RNvMNtCsfvfooZQ3Axs_4core6optionINtB2_6OptionNtCs3cP53eQoTwO_11proc_macro29TokenTreeE7is_someCsjOFMLY5rhAS_14thiserror_impl, symObjAddr: 0x1D38, symBinAddr: 0x409E4, symSize: 0x28 }
  - { offset: 0xE8BB8, size: 0x8, addend: 0x0, symName: __RNvMNtCsfvfooZQ3Axs_4core6optionINtB2_6OptionNtNtCs6IAuOt8vWmF_3syn3lit3LitE7is_someCsjOFMLY5rhAS_14thiserror_impl, symObjAddr: 0x1D60, symBinAddr: 0x40A0C, symSize: 0x30 }
  - { offset: 0xE8C0D, size: 0x8, addend: 0x0, symName: __RNvMNtCsfvfooZQ3Axs_4core6optionINtB2_6OptionNtNtCsjOFMLY5rhAS_14thiserror_impl4attr11TransparentE7is_noneBL_, symObjAddr: 0x1D90, symBinAddr: 0x40A3C, symSize: 0x28 }
  - { offset: 0xE8C57, size: 0x8, addend: 0x0, symName: __RNvMNtCsfvfooZQ3Axs_4core6optionINtB2_6OptionNtNtCsjOFMLY5rhAS_14thiserror_impl4attr11TransparentE7is_someBL_, symObjAddr: 0x1DB8, symBinAddr: 0x40A64, symSize: 0x28 }
  - { offset: 0xE8C90, size: 0x8, addend: 0x0, symName: __RNvMNtCsfvfooZQ3Axs_4core6optionINtB2_6OptionNtNtCsjOFMLY5rhAS_14thiserror_impl4attr7DisplayE6as_refBL_, symObjAddr: 0x1DE0, symBinAddr: 0x40A8C, symSize: 0x50 }
  - { offset: 0xE8CF6, size: 0x8, addend: 0x0, symName: __RNvMNtCsfvfooZQ3Axs_4core6optionINtB2_6OptionNtNtCsjOFMLY5rhAS_14thiserror_impl4attr7DisplayE7is_noneBL_, symObjAddr: 0x1E30, symBinAddr: 0x40ADC, symSize: 0x2C }
  - { offset: 0xE8D40, size: 0x8, addend: 0x0, symName: __RNvMNtCsfvfooZQ3Axs_4core6optionINtB2_6OptionNtNtCsjOFMLY5rhAS_14thiserror_impl4attr7DisplayE7is_someBL_, symObjAddr: 0x1E5C, symBinAddr: 0x40B08, symSize: 0x2C }
  - { offset: 0xE8D79, size: 0x8, addend: 0x0, symName: __RNvMNtCsfvfooZQ3Axs_4core6optionINtB2_6OptionRNtNtCs6IAuOt8vWmF_3syn2ty4TypeE7is_someCsjOFMLY5rhAS_14thiserror_impl, symObjAddr: 0x1E88, symBinAddr: 0x40B34, symSize: 0x28 }
  - { offset: 0xE8DA5, size: 0x8, addend: 0x0, symName: __RNvMNtCsfvfooZQ3Axs_4core6optionINtB2_6OptionRNtNtCs6IAuOt8vWmF_3syn2ty4TypeE9unwrap_orCsjOFMLY5rhAS_14thiserror_impl, symObjAddr: 0x1EB0, symBinAddr: 0x40B5C, symSize: 0x4C }
  - { offset: 0xE8E27, size: 0x8, addend: 0x0, symName: __RNvMNtCsfvfooZQ3Axs_4core6optionINtB2_6OptionRNtNtCs6IAuOt8vWmF_3syn4attr9AttributeE7is_noneCsjOFMLY5rhAS_14thiserror_impl, symObjAddr: 0x1EFC, symBinAddr: 0x40BA8, symSize: 0x28 }
  - { offset: 0xE8E71, size: 0x8, addend: 0x0, symName: __RNvMNtCsfvfooZQ3Axs_4core6optionINtB2_6OptionRNtNtCs6IAuOt8vWmF_3syn4attr9AttributeE7is_someCsjOFMLY5rhAS_14thiserror_impl, symObjAddr: 0x1F24, symBinAddr: 0x40BD0, symSize: 0x28 }
  - { offset: 0xE8EB7, size: 0x8, addend: 0x0, symName: __RNvMNtCsfvfooZQ3Axs_4core6optionINtB2_6OptionRNtNtCs6IAuOt8vWmF_3syn8generics9TypeParamE7is_someCsjOFMLY5rhAS_14thiserror_impl, symObjAddr: 0x1F4C, symBinAddr: 0x40BF8, symSize: 0x28 }
  - { offset: 0xE8EE3, size: 0x8, addend: 0x0, symName: __RNvMNtCsfvfooZQ3Axs_4core6optionINtB2_6OptionRNtNtCsjOFMLY5rhAS_14thiserror_impl3ast5FieldE2orBM_, symObjAddr: 0x1F74, symBinAddr: 0x40C20, symSize: 0x64 }
  - { offset: 0xE8F49, size: 0x8, addend: 0x0, symName: __RNvMNtCsfvfooZQ3Axs_4core6optionINtB2_6OptionRNtNtCsjOFMLY5rhAS_14thiserror_impl3ast5FieldE7is_someBM_, symObjAddr: 0x1FD8, symBinAddr: 0x40C84, symSize: 0x28 }
  - { offset: 0xE8F84, size: 0x8, addend: 0x0, symName: __RNvXs3_NtCs2cqEZUIJimJ_5quote9to_tokensINtNtCsfvfooZQ3Axs_4core6option6OptionNtCs3cP53eQoTwO_11proc_macro211TokenStreamENtB5_8ToTokens9to_tokensCsjOFMLY5rhAS_14thiserror_impl, symObjAddr: 0x211C, symBinAddr: 0x40DC8, symSize: 0x88 }
  - { offset: 0xE8FE0, size: 0x8, addend: 0x0, symName: __RNvXs3_NtCs2cqEZUIJimJ_5quote9to_tokensINtNtCsfvfooZQ3Axs_4core6option6OptionRNtNtCs6IAuOt8vWmF_3syn4attr9AttributeENtB5_8ToTokens9to_tokensCsjOFMLY5rhAS_14thiserror_impl, symObjAddr: 0x21A4, symBinAddr: 0x40E50, symSize: 0x84 }
  - { offset: 0xE903C, size: 0x8, addend: 0x0, symName: __RNvXs3_NtCs2cqEZUIJimJ_5quote9to_tokensINtNtCsfvfooZQ3Axs_4core6option6OptionRNtNtCs6IAuOt8vWmF_3syn8generics11WhereClauseENtB5_8ToTokens9to_tokensCsjOFMLY5rhAS_14thiserror_impl, symObjAddr: 0x2228, symBinAddr: 0x40ED4, symSize: 0x84 }
  - { offset: 0xE909E, size: 0x8, addend: 0x0, symName: __RNvYINtNtCsfvfooZQ3Axs_4core6option6OptionRNtNtCs6IAuOt8vWmF_3syn4attr9AttributeENtNtCs2cqEZUIJimJ_5quote9to_tokens8ToTokens15to_token_streamCsjOFMLY5rhAS_14thiserror_impl, symObjAddr: 0x2D64, symBinAddr: 0x41A10, symSize: 0x8C }
  - { offset: 0xE90E8, size: 0x8, addend: 0x0, symName: __RNvYINtNtCsfvfooZQ3Axs_4core6option6OptionRNtNtCs6IAuOt8vWmF_3syn4attr9AttributeENtNtCs2cqEZUIJimJ_5quote9to_tokens8ToTokens17into_token_streamCsjOFMLY5rhAS_14thiserror_impl, symObjAddr: 0x2DF0, symBinAddr: 0x41A9C, symSize: 0x54 }
  - { offset: 0xE912E, size: 0x8, addend: 0x0, symName: __RNvYINtNtNtNtCsfvfooZQ3Axs_4core4iter8adapters10filter_map9FilterMapINtNtNtBb_5slice4iter4IterNtNtCsjOFMLY5rhAS_14thiserror_impl3ast7VariantENCNvNtB1y_6expand9impl_enums2_0ENtNtNtCs2cqEZUIJimJ_5quote9___private3ext14RepIteratorExt15quote_into_iterB1y_, symObjAddr: 0x302C, symBinAddr: 0x41CD8, symSize: 0x40 }
  - { offset: 0xE94D2, size: 0x8, addend: 0x0, symName: __RINvMs0_NtNtNtNtCscOYdFFY2T5N_3std3sys12thread_local6native4lazyINtB6_7StorageINtNtCsfvfooZQ3Axs_4core4cell4CellTyyEEzE10initializeNvNvNvMNtNtBe_4hash6randomNtB2c_11RandomState3new4KEYS6___initECsjOFMLY5rhAS_14thiserror_impl, symObjAddr: 0x0, symBinAddr: 0x1B4E18, symSize: 0x264 }
  - { offset: 0xE99BD, size: 0x8, addend: 0x0, symName: __RNCNCNvXsx_NtCs6IAuOt8vWmF_3syn10punctuatedINtB9_11PrivateIterNtNtBb_4data7VariantNtNtBb_5token5CommaENtNtNtNtCsfvfooZQ3Axs_4core4iter6traits12double_ended19DoubleEndedIterator9next_back00CsjOFMLY5rhAS_14thiserror_impl, symObjAddr: 0xFB8, symBinAddr: 0x44118, symSize: 0x24 }
  - { offset: 0xE9A08, size: 0x8, addend: 0x0, symName: __RNCNCNvXsx_NtCs6IAuOt8vWmF_3syn10punctuatedINtB9_11PrivateIterNtNtBb_4path15GenericArgumentNtNtBb_5token5CommaENtNtNtNtCsfvfooZQ3Axs_4core4iter6traits12double_ended19DoubleEndedIterator9next_back00CsjOFMLY5rhAS_14thiserror_impl, symObjAddr: 0xFDC, symBinAddr: 0x4413C, symSize: 0x24 }
  - { offset: 0xE9A62, size: 0x8, addend: 0x0, symName: __RNCNvXsx_NtCs6IAuOt8vWmF_3syn10punctuatedINtB7_11PrivateIterNtNtB9_4data7VariantNtNtB9_5token5CommaENtNtNtNtCsfvfooZQ3Axs_4core4iter6traits12double_ended19DoubleEndedIterator9next_back0CsjOFMLY5rhAS_14thiserror_impl, symObjAddr: 0x1130, symBinAddr: 0x44290, symSize: 0x38 }
  - { offset: 0xE9AA4, size: 0x8, addend: 0x0, symName: __RNCNvXsx_NtCs6IAuOt8vWmF_3syn10punctuatedINtB7_11PrivateIterNtNtB9_4path15GenericArgumentNtNtB9_5token5CommaENtNtNtNtCsfvfooZQ3Axs_4core4iter6traits12double_ended19DoubleEndedIterator9next_back0CsjOFMLY5rhAS_14thiserror_impl, symObjAddr: 0x1168, symBinAddr: 0x442C8, symSize: 0x38 }
  - { offset: 0xE9AE7, size: 0x8, addend: 0x0, symName: __RNvXsx_NtCs6IAuOt8vWmF_3syn10punctuatedINtB5_11PrivateIterNtNtB7_4data7VariantNtNtB7_5token5CommaENtNtNtNtCsfvfooZQ3Axs_4core4iter6traits12double_ended19DoubleEndedIterator9next_backCsjOFMLY5rhAS_14thiserror_impl, symObjAddr: 0x296C, symBinAddr: 0x45ACC, symSize: 0x40 }
  - { offset: 0xE9B27, size: 0x8, addend: 0x0, symName: __RNvXsx_NtCs6IAuOt8vWmF_3syn10punctuatedINtB5_11PrivateIterNtNtB7_4path15GenericArgumentNtNtB7_5token5CommaENtNtNtNtCsfvfooZQ3Axs_4core4iter6traits12double_ended19DoubleEndedIterator9next_backCsjOFMLY5rhAS_14thiserror_impl, symObjAddr: 0x29AC, symBinAddr: 0x45B0C, symSize: 0x40 }
  - { offset: 0xE9B72, size: 0x8, addend: 0x0, symName: __RNCNvXsc_NtCs6IAuOt8vWmF_3syn10punctuatedINtB7_5PairsNtCs3cP53eQoTwO_11proc_macro211TokenStreamNtNtB9_5token4PlusENtNtNtNtCsfvfooZQ3Axs_4core4iter6traits8iterator8Iterator4next0CsjOFMLY5rhAS_14thiserror_impl, symObjAddr: 0x1000, symBinAddr: 0x44160, symSize: 0x40 }
  - { offset: 0xE9BE7, size: 0x8, addend: 0x0, symName: __RNCNvXsc_NtCs6IAuOt8vWmF_3syn10punctuatedINtB7_5PairsNtCs3cP53eQoTwO_11proc_macro211TokenStreamNtNtB9_5token4PlusENtNtNtNtCsfvfooZQ3Axs_4core4iter6traits8iterator8Iterator4nexts_0CsjOFMLY5rhAS_14thiserror_impl, symObjAddr: 0x1040, symBinAddr: 0x441A0, symSize: 0x40 }
  - { offset: 0xE9C31, size: 0x8, addend: 0x0, symName: __RNvXsc_NtCs6IAuOt8vWmF_3syn10punctuatedINtB5_5PairsNtCs3cP53eQoTwO_11proc_macro211TokenStreamNtNtB7_5token4PlusENtNtNtNtCsfvfooZQ3Axs_4core4iter6traits8iterator8Iterator4nextCsjOFMLY5rhAS_14thiserror_impl, symObjAddr: 0x2674, symBinAddr: 0x457D4, symSize: 0x58 }
  - { offset: 0xE9C7C, size: 0x8, addend: 0x0, symName: __RNCNvXsw_NtCs6IAuOt8vWmF_3syn10punctuatedINtB7_11PrivateIterNtNtB9_4data7VariantNtNtB9_5token5CommaENtNtNtNtCsfvfooZQ3Axs_4core4iter6traits8iterator8Iterator4next0CsjOFMLY5rhAS_14thiserror_impl, symObjAddr: 0x1080, symBinAddr: 0x441E0, symSize: 0x24 }
  - { offset: 0xE9CC7, size: 0x8, addend: 0x0, symName: __RNCNvXsw_NtCs6IAuOt8vWmF_3syn10punctuatedINtB7_11PrivateIterNtNtB9_4data7VariantNtNtB9_5token5CommaENtNtNtNtCsfvfooZQ3Axs_4core4iter6traits8iterator8Iterator4nexts_0CsjOFMLY5rhAS_14thiserror_impl, symObjAddr: 0x10A4, symBinAddr: 0x44204, symSize: 0x34 }
  - { offset: 0xE9D09, size: 0x8, addend: 0x0, symName: __RNCNvXsw_NtCs6IAuOt8vWmF_3syn10punctuatedINtB7_11PrivateIterNtNtB9_4path15GenericArgumentNtNtB9_5token5CommaENtNtNtNtCsfvfooZQ3Axs_4core4iter6traits8iterator8Iterator4next0CsjOFMLY5rhAS_14thiserror_impl, symObjAddr: 0x10D8, symBinAddr: 0x44238, symSize: 0x24 }
  - { offset: 0xE9D54, size: 0x8, addend: 0x0, symName: __RNCNvXsw_NtCs6IAuOt8vWmF_3syn10punctuatedINtB7_11PrivateIterNtNtB9_4path15GenericArgumentNtNtB9_5token5CommaENtNtNtNtCsfvfooZQ3Axs_4core4iter6traits8iterator8Iterator4nexts_0CsjOFMLY5rhAS_14thiserror_impl, symObjAddr: 0x10FC, symBinAddr: 0x4425C, symSize: 0x34 }
  - { offset: 0xE9DA5, size: 0x8, addend: 0x0, symName: __RNvXsw_NtCs6IAuOt8vWmF_3syn10punctuatedINtB5_11PrivateIterNtNtB7_4data7VariantNtNtB7_5token5CommaENtNtNtNtCsfvfooZQ3Axs_4core4iter6traits8iterator8Iterator4nextCsjOFMLY5rhAS_14thiserror_impl, symObjAddr: 0x28E4, symBinAddr: 0x45A44, symSize: 0x44 }
  - { offset: 0xE9DE5, size: 0x8, addend: 0x0, symName: __RNvXsw_NtCs6IAuOt8vWmF_3syn10punctuatedINtB5_11PrivateIterNtNtB7_4path15GenericArgumentNtNtB7_5token5CommaENtNtNtNtCsfvfooZQ3Axs_4core4iter6traits8iterator8Iterator4nextCsjOFMLY5rhAS_14thiserror_impl, symObjAddr: 0x2928, symBinAddr: 0x45A88, symSize: 0x44 }
  - { offset: 0xE9E30, size: 0x8, addend: 0x0, symName: __RNcNtINtNtCs6IAuOt8vWmF_3syn10punctuated4PairRNtCs3cP53eQoTwO_11proc_macro211TokenStreamRNtNtB8_5token4PlusE3End0CsjOFMLY5rhAS_14thiserror_impl, symObjAddr: 0x11A0, symBinAddr: 0x44300, symSize: 0x1C }
  - { offset: 0xE9FE4, size: 0x8, addend: 0x0, symName: __RNvXNtNtCs6IAuOt8vWmF_3syn10punctuated8printingINtB4_10PunctuatedNtCs3cP53eQoTwO_11proc_macro211TokenStreamNtNtB6_5token4PlusENtNtCs2cqEZUIJimJ_5quote9to_tokens8ToTokens9to_tokensCsjOFMLY5rhAS_14thiserror_impl, symObjAddr: 0x1C08, symBinAddr: 0x44D68, symSize: 0x50 }
  - { offset: 0xEA035, size: 0x8, addend: 0x0, symName: __RNvXs_NtNtCs6IAuOt8vWmF_3syn10punctuated8printingINtB6_4PairRNtCs3cP53eQoTwO_11proc_macro211TokenStreamRNtNtB8_5token4PlusENtNtCs2cqEZUIJimJ_5quote9to_tokens8ToTokens9to_tokensCsjOFMLY5rhAS_14thiserror_impl, symObjAddr: 0x2544, symBinAddr: 0x456A4, symSize: 0xB4 }
  - { offset: 0xEA0E9, size: 0x8, addend: 0x0, symName: __RNvXs9_NtCs6IAuOt8vWmF_3syn10punctuatedRINtB5_10PunctuatedNtNtB7_4path11PathSegmentNtNtB7_5token7PathSepENtNtNtNtCsfvfooZQ3Axs_4core4iter6traits7collect12IntoIterator9into_iterCsjOFMLY5rhAS_14thiserror_impl, symObjAddr: 0x2194, symBinAddr: 0x452F4, symSize: 0x34 }
  - { offset: 0xEA129, size: 0x8, addend: 0x0, symName: __RNvXs9_NtCs6IAuOt8vWmF_3syn10punctuatedRINtB5_10PunctuatedNtNtB7_4path15GenericArgumentNtNtB7_5token5CommaENtNtNtNtCsfvfooZQ3Axs_4core4iter6traits7collect12IntoIterator9into_iterCsjOFMLY5rhAS_14thiserror_impl, symObjAddr: 0x21C8, symBinAddr: 0x45328, symSize: 0x34 }
  - { offset: 0xEA16F, size: 0x8, addend: 0x0, symName: __RNvXsA_NtCs6IAuOt8vWmF_3syn10punctuatedINtB5_11PrivateIterNtNtB7_4data7VariantNtNtB7_5token5CommaEINtB5_9IterTraitBU_E9clone_boxCsjOFMLY5rhAS_14thiserror_impl, symObjAddr: 0x21FC, symBinAddr: 0x4535C, symSize: 0x94 }
  - { offset: 0xEA1CD, size: 0x8, addend: 0x0, symName: __RNvXsA_NtCs6IAuOt8vWmF_3syn10punctuatedINtB5_11PrivateIterNtNtB7_4path15GenericArgumentNtNtB7_5token5CommaEINtB5_9IterTraitBU_E9clone_boxCsjOFMLY5rhAS_14thiserror_impl, symObjAddr: 0x2290, symBinAddr: 0x453F0, symSize: 0x94 }
  - { offset: 0xEA231, size: 0x8, addend: 0x0, symName: __RNvXsN_NtCs6IAuOt8vWmF_3syn10punctuatedINtB5_10PunctuatedNtNtB7_4path15GenericArgumentNtNtB7_5token5CommaEINtNtNtCsfvfooZQ3Axs_4core3ops5index5IndexjE5indexCsjOFMLY5rhAS_14thiserror_impl, symObjAddr: 0x2410, symBinAddr: 0x45570, symSize: 0x134 }
  - { offset: 0xEA29C, size: 0x8, addend: 0x0, symName: __RNvXsb_NtCs6IAuOt8vWmF_3syn10punctuatedINtB5_10PunctuatedNtCs3cP53eQoTwO_11proc_macro211TokenStreamNtNtB7_5token4PlusENtNtCsfvfooZQ3Axs_4core7default7Default7defaultCsjOFMLY5rhAS_14thiserror_impl, symObjAddr: 0x2650, symBinAddr: 0x457B0, symSize: 0x24 }
  - { offset: 0xEA2D3, size: 0x8, addend: 0x0, symName: __RNvXst_NtCs6IAuOt8vWmF_3syn10punctuatedINtB5_4IterNtNtB7_4data5FieldENtNtNtNtCsfvfooZQ3Axs_4core4iter6traits8iterator8Iterator9size_hintCsjOFMLY5rhAS_14thiserror_impl, symObjAddr: 0x26CC, symBinAddr: 0x4582C, symSize: 0x7C }
  - { offset: 0xEA30A, size: 0x8, addend: 0x0, symName: __RNvXst_NtCs6IAuOt8vWmF_3syn10punctuatedINtB5_4IterNtNtB7_4data7VariantENtNtNtNtCsfvfooZQ3Axs_4core4iter6traits8iterator8Iterator4nextCsjOFMLY5rhAS_14thiserror_impl, symObjAddr: 0x2748, symBinAddr: 0x458A8, symSize: 0x48 }
  - { offset: 0xEA341, size: 0x8, addend: 0x0, symName: __RNvXst_NtCs6IAuOt8vWmF_3syn10punctuatedINtB5_4IterNtNtB7_4data7VariantENtNtNtNtCsfvfooZQ3Axs_4core4iter6traits8iterator8Iterator9size_hintCsjOFMLY5rhAS_14thiserror_impl, symObjAddr: 0x2790, symBinAddr: 0x458F0, symSize: 0x7C }
  - { offset: 0xEA378, size: 0x8, addend: 0x0, symName: __RNvXst_NtCs6IAuOt8vWmF_3syn10punctuatedINtB5_4IterNtNtB7_4path15GenericArgumentENtNtNtNtCsfvfooZQ3Axs_4core4iter6traits8iterator8Iterator4nextCsjOFMLY5rhAS_14thiserror_impl, symObjAddr: 0x280C, symBinAddr: 0x4596C, symSize: 0x48 }
  - { offset: 0xEA3B5, size: 0x8, addend: 0x0, symName: __RNvXsv_NtCs6IAuOt8vWmF_3syn10punctuatedINtB5_4IterNtNtB7_4data5FieldENtNtNtNtCsfvfooZQ3Axs_4core4iter6traits10exact_size17ExactSizeIterator3lenCsjOFMLY5rhAS_14thiserror_impl, symObjAddr: 0x2854, symBinAddr: 0x459B4, symSize: 0x48 }
  - { offset: 0xEA3EC, size: 0x8, addend: 0x0, symName: __RNvXsv_NtCs6IAuOt8vWmF_3syn10punctuatedINtB5_4IterNtNtB7_4data7VariantENtNtNtNtCsfvfooZQ3Axs_4core4iter6traits10exact_size17ExactSizeIterator3lenCsjOFMLY5rhAS_14thiserror_impl, symObjAddr: 0x289C, symBinAddr: 0x459FC, symSize: 0x48 }
  - { offset: 0xEA429, size: 0x8, addend: 0x0, symName: __RNvXsy_NtCs6IAuOt8vWmF_3syn10punctuatedINtB5_11PrivateIterNtNtB7_4data7VariantNtNtB7_5token5CommaENtNtNtNtCsfvfooZQ3Axs_4core4iter6traits10exact_size17ExactSizeIterator3lenCsjOFMLY5rhAS_14thiserror_impl, symObjAddr: 0x29EC, symBinAddr: 0x45B4C, symSize: 0x94 }
  - { offset: 0xEA49D, size: 0x8, addend: 0x0, symName: __RNvXsy_NtCs6IAuOt8vWmF_3syn10punctuatedINtB5_11PrivateIterNtNtB7_4path15GenericArgumentNtNtB7_5token5CommaENtNtNtNtCsfvfooZQ3Axs_4core4iter6traits10exact_size17ExactSizeIterator3lenCsjOFMLY5rhAS_14thiserror_impl, symObjAddr: 0x2A80, symBinAddr: 0x45BE0, symSize: 0x94 }
  - { offset: 0xEA517, size: 0x8, addend: 0x0, symName: __RNvXsz_NtCs6IAuOt8vWmF_3syn10punctuatedINtB5_11PrivateIterNtNtB7_4data7VariantNtNtB7_5token5CommaENtNtCsfvfooZQ3Axs_4core5clone5Clone5cloneCsjOFMLY5rhAS_14thiserror_impl, symObjAddr: 0x2B14, symBinAddr: 0x45C74, symSize: 0x68 }
  - { offset: 0xEA557, size: 0x8, addend: 0x0, symName: __RNvXsz_NtCs6IAuOt8vWmF_3syn10punctuatedINtB5_11PrivateIterNtNtB7_4path15GenericArgumentNtNtB7_5token5CommaENtNtCsfvfooZQ3Axs_4core5clone5Clone5cloneCsjOFMLY5rhAS_14thiserror_impl, symObjAddr: 0x2B7C, symBinAddr: 0x45CDC, symSize: 0x68 }
  - { offset: 0xF0100, size: 0x8, addend: 0x0, symName: __RINvNtCse1nGBsou5OW_5alloc5slice11stable_sortRNtCs3cP53eQoTwO_11proc_macro25IdentNvYBH_NtNtCsfvfooZQ3Axs_4core3cmp10PartialOrd2ltECsjOFMLY5rhAS_14thiserror_impl, symObjAddr: 0x328, symBinAddr: 0x43488, symSize: 0xC4 }
  - { offset: 0xF425A, size: 0x8, addend: 0x0, symName: __RNvXs_NtNtCsfvfooZQ3Axs_4core5slice4iterRSTNtNtCsjOFMLY5rhAS_14thiserror_impl9scan_expr5InputNtBH_6ActionENtNtNtNtB8_4iter6traits7collect12IntoIterator9into_iterBJ_, symObjAddr: 0x25F8, symBinAddr: 0x45758, symSize: 0x58 }
  - { offset: 0xF4758, size: 0x8, addend: 0x0, symName: __RNvNvNtCsfvfooZQ3Axs_4core4hint21unreachable_unchecked18precondition_checkCsjOFMLY5rhAS_14thiserror_impl, symObjAddr: 0x1BAC, symBinAddr: 0x44D0C, symSize: 0x1C }
  - { offset: 0xF47A1, size: 0x8, addend: 0x0, symName: __RINvNtNtCsfvfooZQ3Axs_4core4iter8adapters11try_processINtNtB2_3map3MapINtNtB2_9enumerate9EnumerateINtNtCs6IAuOt8vWmF_3syn10punctuated4IterNtNtB1D_4data5FieldEENCNvMs2_NtCsjOFMLY5rhAS_14thiserror_impl3astNtB2F_5Field17multiple_from_syn0EB3f_INtNtB6_6result6ResultNtNtB6_7convert10InfallibleNtNtB1D_5error5ErrorENCINvXsn_B3T_IB3R_INtNtCse1nGBsou5OW_5alloc3vec3VecB3f_EB4D_EINtNtNtB4_6traits7collect12FromIteratorIB3R_B3f_B4D_EE9from_iterBQ_E0B5g_EB2H_, symObjAddr: 0x3EC, symBinAddr: 0x4354C, symSize: 0x19C }
  - { offset: 0xF4868, size: 0x8, addend: 0x0, symName: __RINvNtNtCsfvfooZQ3Axs_4core4iter8adapters11try_processINtNtB2_3map3MapINtNtCs6IAuOt8vWmF_3syn10punctuated4IterNtNtB1b_4data7VariantENCNvMs0_NtCsjOFMLY5rhAS_14thiserror_impl3astNtB2e_4Enum8from_syn0ENtB2e_7VariantINtNtB6_6result6ResultNtNtB6_7convert10InfallibleNtNtB1b_5error5ErrorENCINvXsn_B3r_IB3p_INtNtCse1nGBsou5OW_5alloc3vec3VecB3a_EB4b_EINtNtNtB4_6traits7collect12FromIteratorIB3p_B3a_B4b_EE9from_iterBQ_E0B4O_EB2g_, symObjAddr: 0x588, symBinAddr: 0x436E8, symSize: 0x19C }
  - { offset: 0xF4934, size: 0x8, addend: 0x0, symName: __RINvXNtNtCsfvfooZQ3Axs_4core4iter8adaptersINtB3_12GenericShuntINtNtB3_3map3MapINtNtB3_9enumerate9EnumerateINtNtCs6IAuOt8vWmF_3syn10punctuated4IterNtNtB1L_4data5FieldEENCNvMs2_NtCsjOFMLY5rhAS_14thiserror_impl3astNtB2N_5Field17multiple_from_syn0EINtNtB7_6result6ResultNtNtB7_7convert10InfallibleNtNtB1L_5error5ErrorEENtNtNtB5_6traits8iterator8Iterator8try_folduNCINvNvB53_12try_for_each4callB3n_INtNtNtB7_3ops12control_flow11ControlFlowB3n_ENcNtB6j_5Break0E0B6j_EB2P_, symObjAddr: 0x724, symBinAddr: 0x43884, symSize: 0xC0 }
  - { offset: 0xF49EB, size: 0x8, addend: 0x0, symName: __RINvXNtNtCsfvfooZQ3Axs_4core4iter8adaptersINtB3_12GenericShuntINtNtB3_3map3MapINtNtCs6IAuOt8vWmF_3syn10punctuated4IterNtNtB1j_4data7VariantENCNvMs0_NtCsjOFMLY5rhAS_14thiserror_impl3astNtB2m_4Enum8from_syn0EINtNtB7_6result6ResultNtNtB7_7convert10InfallibleNtNtB1j_5error5ErrorEENtNtNtB5_6traits8iterator8Iterator8try_folduNCINvNvB4r_12try_for_each4callNtB2m_7VariantINtNtNtB7_3ops12control_flow11ControlFlowB5D_ENcNtB5R_5Break0E0B5R_EB2o_, symObjAddr: 0x7E4, symBinAddr: 0x43944, symSize: 0xC0 }
  - { offset: 0xF4AA7, size: 0x8, addend: 0x0, symName: __RNCINvXNtNtCsfvfooZQ3Axs_4core4iter8adaptersINtB5_12GenericShuntINtNtB5_3map3MapINtNtB5_9enumerate9EnumerateINtNtCs6IAuOt8vWmF_3syn10punctuated4IterNtNtB1N_4data5FieldEENCNvMs2_NtCsjOFMLY5rhAS_14thiserror_impl3astNtB2P_5Field17multiple_from_syn0EINtNtB9_6result6ResultNtNtB9_7convert10InfallibleNtNtB1N_5error5ErrorEENtNtNtB7_6traits8iterator8Iterator8try_folduNCINvNvB55_12try_for_each4callB3p_INtNtNtB9_3ops12control_flow11ControlFlowB3p_ENcNtB6l_5Break0E0B6l_E0B2R_, symObjAddr: 0xBB0, symBinAddr: 0x43D10, symSize: 0x208 }
  - { offset: 0xF4B9A, size: 0x8, addend: 0x0, symName: __RNCINvXNtNtCsfvfooZQ3Axs_4core4iter8adaptersINtB5_12GenericShuntINtNtB5_3map3MapINtNtCs6IAuOt8vWmF_3syn10punctuated4IterNtNtB1l_4data7VariantENCNvMs0_NtCsjOFMLY5rhAS_14thiserror_impl3astNtB2o_4Enum8from_syn0EINtNtB9_6result6ResultNtNtB9_7convert10InfallibleNtNtB1l_5error5ErrorEENtNtNtB7_6traits8iterator8Iterator8try_folduNCINvNvB4t_12try_for_each4callNtB2o_7VariantINtNtNtB9_3ops12control_flow11ControlFlowB5F_ENcNtB5T_5Break0E0B5T_E0B2q_, symObjAddr: 0xDB8, symBinAddr: 0x43F18, symSize: 0x200 }
  - { offset: 0xF4CCA, size: 0x8, addend: 0x0, symName: __RNvXNtNtCsfvfooZQ3Axs_4core4iter8adaptersINtB2_12GenericShuntINtNtB2_3map3MapINtNtB2_9enumerate9EnumerateINtNtCs6IAuOt8vWmF_3syn10punctuated4IterNtNtB1K_4data5FieldEENCNvMs2_NtCsjOFMLY5rhAS_14thiserror_impl3astNtB2M_5Field17multiple_from_syn0EINtNtB6_6result6ResultNtNtB6_7convert10InfallibleNtNtB1K_5error5ErrorEENtNtNtB4_6traits8iterator8Iterator4nextB2O_, symObjAddr: 0x1CC8, symBinAddr: 0x44E28, symSize: 0xC0 }
  - { offset: 0xF4D59, size: 0x8, addend: 0x0, symName: __RNvXNtNtCsfvfooZQ3Axs_4core4iter8adaptersINtB2_12GenericShuntINtNtB2_3map3MapINtNtB2_9enumerate9EnumerateINtNtCs6IAuOt8vWmF_3syn10punctuated4IterNtNtB1K_4data5FieldEENCNvMs2_NtCsjOFMLY5rhAS_14thiserror_impl3astNtB2M_5Field17multiple_from_syn0EINtNtB6_6result6ResultNtNtB6_7convert10InfallibleNtNtB1K_5error5ErrorEENtNtNtB4_6traits8iterator8Iterator9size_hintB2O_, symObjAddr: 0x1D88, symBinAddr: 0x44EE8, symSize: 0xA8 }
  - { offset: 0xF4DD1, size: 0x8, addend: 0x0, symName: __RNvXNtNtCsfvfooZQ3Axs_4core4iter8adaptersINtB2_12GenericShuntINtNtB2_3map3MapINtNtCs6IAuOt8vWmF_3syn10punctuated4IterNtNtB1i_4data7VariantENCNvMs0_NtCsjOFMLY5rhAS_14thiserror_impl3astNtB2l_4Enum8from_syn0EINtNtB6_6result6ResultNtNtB6_7convert10InfallibleNtNtB1i_5error5ErrorEENtNtNtB4_6traits8iterator8Iterator4nextB2n_, symObjAddr: 0x1E30, symBinAddr: 0x44F90, symSize: 0xB4 }
  - { offset: 0xF4E60, size: 0x8, addend: 0x0, symName: __RNvXNtNtCsfvfooZQ3Axs_4core4iter8adaptersINtB2_12GenericShuntINtNtB2_3map3MapINtNtCs6IAuOt8vWmF_3syn10punctuated4IterNtNtB1i_4data7VariantENCNvMs0_NtCsjOFMLY5rhAS_14thiserror_impl3astNtB2l_4Enum8from_syn0EINtNtB6_6result6ResultNtNtB6_7convert10InfallibleNtNtB1i_5error5ErrorEENtNtNtB4_6traits8iterator8Iterator9size_hintB2n_, symObjAddr: 0x1EE4, symBinAddr: 0x45044, symSize: 0xA8 }
  - { offset: 0xF518F, size: 0x8, addend: 0x0, symName: __RINvYINtNtCs6IAuOt8vWmF_3syn10punctuated4IterNtNtB8_4data5FieldENtNtNtNtCsfvfooZQ3Axs_4core4iter6traits8iterator8Iterator8try_folduNCINvNvXs_NtNtB16_8adapters9enumerateINtB2f_9EnumeratepEB10_8try_fold9enumerateRBH_uINtNtNtB18_3ops12control_flow11ControlFlowIB3s_NtNtCsjOFMLY5rhAS_14thiserror_impl3ast5FieldEENCINvNtB2h_3map12map_try_foldTjB3m_EINtNtB18_6result6ResultB4c_NtNtB8_5error5ErrorEuB3r_NCNvMs2_B4e_B4c_17multiple_from_syn0NCINvXB2h_INtB2h_12GenericShuntINtB51_3MapIB2H_B3_EB6m_EIB5x_NtNtB18_7convert10InfallibleB5X_EEB10_8try_folduNCINvNvB10_12try_for_each4callB4c_B47_NcNtB47_5Break0E0B47_E0E0E0B3r_EB4g_, symObjAddr: 0x8B4, symBinAddr: 0x43A14, symSize: 0x14C }
  - { offset: 0xF524B, size: 0x8, addend: 0x0, symName: __RINvYINtNtCs6IAuOt8vWmF_3syn10punctuated4IterNtNtB8_4data7VariantENtNtNtNtCsfvfooZQ3Axs_4core4iter6traits8iterator8Iterator3mapINtNtB1a_6result6ResultNtNtCsjOFMLY5rhAS_14thiserror_impl3ast7VariantNtNtB8_5error5ErrorENCNvMs0_B2q_NtB2q_4Enum8from_syn0EB2s_, symObjAddr: 0xA00, symBinAddr: 0x43B60, symSize: 0x34 }
  - { offset: 0xF52B8, size: 0x8, addend: 0x0, symName: __RINvYINtNtCs6IAuOt8vWmF_3syn10punctuated4IterNtNtB8_4data7VariantENtNtNtNtCsfvfooZQ3Axs_4core4iter6traits8iterator8Iterator8try_folduNCINvNtNtB18_8adapters3map12map_try_foldRBH_INtNtB1a_6result6ResultNtNtCsjOFMLY5rhAS_14thiserror_impl3ast7VariantNtNtB8_5error5ErrorEuINtNtNtB1a_3ops12control_flow11ControlFlowIB4i_B3c_EENCNvMs0_B3e_NtB3e_4Enum8from_syn0NCINvXB2e_INtB2e_12GenericShuntINtB2c_3MapB3_B58_EIB2Q_NtNtB1a_7convert10InfallibleB3W_EEB12_8try_folduNCINvNvB12_12try_for_each4callB3c_B4X_NcNtB4X_5Break0E0B4X_E0E0B4h_EB3g_, symObjAddr: 0xA34, symBinAddr: 0x43B94, symSize: 0x14C }
  - { offset: 0xF5374, size: 0x8, addend: 0x0, symName: __RINvYINtNtNtCsfvfooZQ3Axs_4core3str4iter5SplitcENtNtNtNtBa_4iter6traits8iterator8Iterator3mapINtNtBa_6result6ResultNtNtCs6IAuOt8vWmF_3syn4expr5IndexNtNtB1T_5error5ErrorEINvB1T_9parse_strB1P_EECsjOFMLY5rhAS_14thiserror_impl, symObjAddr: 0xB80, symBinAddr: 0x43CE0, symSize: 0x30 }
  - { offset: 0xF546E, size: 0x8, addend: 0x0, symName: __RNvYINtNtCs6IAuOt8vWmF_3syn10punctuated11PrivateIterNtNtB7_4data7VariantNtNtB7_5token5CommaENtNtNtNtCsfvfooZQ3Axs_4core4iter6traits8iterator8Iterator10advance_byCsjOFMLY5rhAS_14thiserror_impl, symObjAddr: 0x2DAC, symBinAddr: 0x45F0C, symSize: 0x134 }
  - { offset: 0xF55C4, size: 0x8, addend: 0x0, symName: __RNvYINtNtCs6IAuOt8vWmF_3syn10punctuated11PrivateIterNtNtB7_4data7VariantNtNtB7_5token5CommaENtNtNtNtCsfvfooZQ3Axs_4core4iter6traits8iterator8Iterator3nthCsjOFMLY5rhAS_14thiserror_impl, symObjAddr: 0x2EE0, symBinAddr: 0x46040, symSize: 0x80 }
  - { offset: 0xF5690, size: 0x8, addend: 0x0, symName: __RNvYINtNtCs6IAuOt8vWmF_3syn10punctuated11PrivateIterNtNtB7_4data7VariantNtNtB7_5token5CommaENtNtNtNtCsfvfooZQ3Axs_4core4iter6traits8iterator8Iterator9size_hintCsjOFMLY5rhAS_14thiserror_impl, symObjAddr: 0x2F60, symBinAddr: 0x460C0, symSize: 0x34 }
  - { offset: 0xF56C5, size: 0x8, addend: 0x0, symName: __RNvYINtNtCs6IAuOt8vWmF_3syn10punctuated11PrivateIterNtNtB7_4path15GenericArgumentNtNtB7_5token5CommaENtNtNtNtCsfvfooZQ3Axs_4core4iter6traits8iterator8Iterator10advance_byCsjOFMLY5rhAS_14thiserror_impl, symObjAddr: 0x315C, symBinAddr: 0x462BC, symSize: 0x134 }
  - { offset: 0xF581B, size: 0x8, addend: 0x0, symName: __RNvYINtNtCs6IAuOt8vWmF_3syn10punctuated11PrivateIterNtNtB7_4path15GenericArgumentNtNtB7_5token5CommaENtNtNtNtCsfvfooZQ3Axs_4core4iter6traits8iterator8Iterator3nthCsjOFMLY5rhAS_14thiserror_impl, symObjAddr: 0x3290, symBinAddr: 0x463F0, symSize: 0x80 }
  - { offset: 0xF58E7, size: 0x8, addend: 0x0, symName: __RNvYINtNtCs6IAuOt8vWmF_3syn10punctuated11PrivateIterNtNtB7_4path15GenericArgumentNtNtB7_5token5CommaENtNtNtNtCsfvfooZQ3Axs_4core4iter6traits8iterator8Iterator9size_hintCsjOFMLY5rhAS_14thiserror_impl, symObjAddr: 0x3310, symBinAddr: 0x46470, symSize: 0x34 }
  - { offset: 0xF591C, size: 0x8, addend: 0x0, symName: __RNvYINtNtCs6IAuOt8vWmF_3syn10punctuated4IterNtNtB7_4data5FieldENtNtNtNtCsfvfooZQ3Axs_4core4iter6traits8iterator8Iterator9enumerateCsjOFMLY5rhAS_14thiserror_impl, symObjAddr: 0x3344, symBinAddr: 0x464A4, symSize: 0x28 }
  - { offset: 0xF59A6, size: 0x8, addend: 0x0, symName: __RNvXNtNtNtCsfvfooZQ3Axs_4core4iter6traits7collectINtNtB6_8adapters12GenericShuntINtNtBO_3map3MapINtNtBO_9enumerate9EnumerateINtNtCs6IAuOt8vWmF_3syn10punctuated4IterNtNtB23_4data5FieldEENCNvMs2_NtCsjOFMLY5rhAS_14thiserror_impl3astNtB35_5Field17multiple_from_syn0EINtNtB8_6result6ResultNtNtB8_7convert10InfallibleNtNtB23_5error5ErrorEENtB2_12IntoIterator9into_iterB37_, symObjAddr: 0x1F8C, symBinAddr: 0x450EC, symSize: 0x30 }
  - { offset: 0xF59DE, size: 0x8, addend: 0x0, symName: __RNvXNtNtNtCsfvfooZQ3Axs_4core4iter6traits7collectINtNtB6_8adapters12GenericShuntINtNtBO_3map3MapINtNtCs6IAuOt8vWmF_3syn10punctuated4IterNtNtB1B_4data7VariantENCNvMs0_NtCsjOFMLY5rhAS_14thiserror_impl3astNtB2E_4Enum8from_syn0EINtNtB8_6result6ResultNtNtB8_7convert10InfallibleNtNtB1B_5error5ErrorEENtB2_12IntoIterator9into_iterB2G_, symObjAddr: 0x1FBC, symBinAddr: 0x4511C, symSize: 0x30 }
  - { offset: 0xF5A16, size: 0x8, addend: 0x0, symName: __RNvXNtNtNtCsfvfooZQ3Axs_4core4iter6traits7collectINtNtCs6IAuOt8vWmF_3syn10punctuated5PairsNtCs3cP53eQoTwO_11proc_macro211TokenStreamNtNtBQ_5token4PlusENtB2_12IntoIterator9into_iterCsjOFMLY5rhAS_14thiserror_impl, symObjAddr: 0x1FEC, symBinAddr: 0x4514C, symSize: 0x18 }
  - { offset: 0xF5A59, size: 0x8, addend: 0x0, symName: __RNvYINtNtCs6IAuOt8vWmF_3syn10punctuated11PrivateIterNtNtB7_4data7VariantNtNtB7_5token5CommaENtNtNtNtCsfvfooZQ3Axs_4core4iter6traits10exact_size17ExactSizeIterator8is_emptyCsjOFMLY5rhAS_14thiserror_impl, symObjAddr: 0x2BE4, symBinAddr: 0x45D44, symSize: 0x2C }
  - { offset: 0xF5A8E, size: 0x8, addend: 0x0, symName: __RNvYINtNtCs6IAuOt8vWmF_3syn10punctuated11PrivateIterNtNtB7_4path15GenericArgumentNtNtB7_5token5CommaENtNtNtNtCsfvfooZQ3Axs_4core4iter6traits10exact_size17ExactSizeIterator8is_emptyCsjOFMLY5rhAS_14thiserror_impl, symObjAddr: 0x2F94, symBinAddr: 0x460F4, symSize: 0x2C }
  - { offset: 0xF5ACF, size: 0x8, addend: 0x0, symName: __RNvYINtNtCs6IAuOt8vWmF_3syn10punctuated11PrivateIterNtNtB7_4data7VariantNtNtB7_5token5CommaENtNtNtNtCsfvfooZQ3Axs_4core4iter6traits12double_ended19DoubleEndedIterator15advance_back_byCsjOFMLY5rhAS_14thiserror_impl, symObjAddr: 0x2C10, symBinAddr: 0x45D70, symSize: 0x134 }
  - { offset: 0xF5C1D, size: 0x8, addend: 0x0, symName: __RNvYINtNtCs6IAuOt8vWmF_3syn10punctuated11PrivateIterNtNtB7_4data7VariantNtNtB7_5token5CommaENtNtNtNtCsfvfooZQ3Axs_4core4iter6traits12double_ended19DoubleEndedIterator8nth_backCsjOFMLY5rhAS_14thiserror_impl, symObjAddr: 0x2D44, symBinAddr: 0x45EA4, symSize: 0x68 }
  - { offset: 0xF5C9B, size: 0x8, addend: 0x0, symName: __RNvYINtNtCs6IAuOt8vWmF_3syn10punctuated11PrivateIterNtNtB7_4path15GenericArgumentNtNtB7_5token5CommaENtNtNtNtCsfvfooZQ3Axs_4core4iter6traits12double_ended19DoubleEndedIterator15advance_back_byCsjOFMLY5rhAS_14thiserror_impl, symObjAddr: 0x2FC0, symBinAddr: 0x46120, symSize: 0x134 }
  - { offset: 0xF5DE9, size: 0x8, addend: 0x0, symName: __RNvYINtNtCs6IAuOt8vWmF_3syn10punctuated11PrivateIterNtNtB7_4path15GenericArgumentNtNtB7_5token5CommaENtNtNtNtCsfvfooZQ3Axs_4core4iter6traits12double_ended19DoubleEndedIterator8nth_backCsjOFMLY5rhAS_14thiserror_impl, symObjAddr: 0x30F4, symBinAddr: 0x46254, symSize: 0x68 }
  - { offset: 0xF5E74, size: 0x8, addend: 0x0, symName: __RNvXsF_NtNtCsfvfooZQ3Axs_4core4iter5rangejNtB5_4Step13steps_betweenCsjOFMLY5rhAS_14thiserror_impl, symObjAddr: 0x2324, symBinAddr: 0x45484, symSize: 0xA4 }
  - { offset: 0xF5ECF, size: 0x8, addend: 0x0, symName: __RNvXsF_NtNtCsfvfooZQ3Axs_4core4iter5rangejNtB5_4Step17forward_uncheckedCsjOFMLY5rhAS_14thiserror_impl, symObjAddr: 0x23C8, symBinAddr: 0x45528, symSize: 0x48 }
  - { offset: 0xF66D7, size: 0x8, addend: 0x0, symName: __RNvXNtNtCsfvfooZQ3Axs_4core3str4iterNtB2_5CharsNtNtNtNtB6_4iter6traits8iterator8Iterator4nextCsjOFMLY5rhAS_14thiserror_impl, symObjAddr: 0x1C58, symBinAddr: 0x44DB8, symSize: 0x70 }
  - { offset: 0xF67B9, size: 0x8, addend: 0x0, symName: __RNvXs0_NtNtCsfvfooZQ3Axs_4core3str4iterNtB5_5CharsNtNtNtNtB9_4iter6traits12double_ended19DoubleEndedIterator9next_backCsjOFMLY5rhAS_14thiserror_impl, symObjAddr: 0x2004, symBinAddr: 0x45164, symSize: 0x70 }
  - { offset: 0xF686B, size: 0x8, addend: 0x0, symName: __RNvXs3_NtNtCsfvfooZQ3Axs_4core3str4iterNtB5_11CharIndicesNtNtNtNtB9_4iter6traits8iterator8Iterator4nextCsjOFMLY5rhAS_14thiserror_impl, symObjAddr: 0x2074, symBinAddr: 0x451D4, symSize: 0x120 }
  - { offset: 0xF6FA4, size: 0x8, addend: 0x0, symName: __RNvMsl_NtCsfvfooZQ3Axs_4core5arrayATNtNtCsjOFMLY5rhAS_14thiserror_impl9scan_expr5InputNtBA_6ActionEj1c_8as_sliceBC_, symObjAddr: 0x1B90, symBinAddr: 0x44CF0, symSize: 0x1C }
  - { offset: 0xF76F0, size: 0x8, addend: 0x0, symName: __RNvNtCsjOFMLY5rhAS_14thiserror_impl9scan_expr4INIT, symObjAddr: 0x5210, symBinAddr: 0x259440, symSize: 0x0 }
  - { offset: 0xF7915, size: 0x8, addend: 0x0, symName: __RNvNtCsjOFMLY5rhAS_14thiserror_impl9scan_expr7POSTFIX, symObjAddr: 0x5780, symBinAddr: 0x2599B0, symSize: 0x0 }
  - { offset: 0xF792F, size: 0x8, addend: 0x0, symName: __RNvNtCsjOFMLY5rhAS_14thiserror_impl9scan_expr5ASYNC, symObjAddr: 0x5960, symBinAddr: 0x259B90, symSize: 0x0 }
  - { offset: 0xF7949, size: 0x8, addend: 0x0, symName: __RNvNtCsjOFMLY5rhAS_14thiserror_impl9scan_expr5BLOCK, symObjAddr: 0x59F0, symBinAddr: 0x259C20, symSize: 0x0 }
  - { offset: 0xF7963, size: 0x8, addend: 0x0, symName: __RNvNtCsjOFMLY5rhAS_14thiserror_impl9scan_expr11BREAK_LABEL, symObjAddr: 0x5A20, symBinAddr: 0x259C50, symSize: 0x0 }
  - { offset: 0xF797D, size: 0x8, addend: 0x0, symName: __RNvNtCsjOFMLY5rhAS_14thiserror_impl9scan_expr11BREAK_VALUE, symObjAddr: 0x5A80, symBinAddr: 0x259CB0, symSize: 0x0 }
  - { offset: 0xF7997, size: 0x8, addend: 0x0, symName: __RNvNtCsjOFMLY5rhAS_14thiserror_impl9scan_expr7CLOSURE, symObjAddr: 0x5B10, symBinAddr: 0x259D40, symSize: 0x0 }
  - { offset: 0xF79B1, size: 0x8, addend: 0x0, symName: __RNvNtCsjOFMLY5rhAS_14thiserror_impl9scan_expr12CLOSURE_ARGS, symObjAddr: 0x5C30, symBinAddr: 0x259E60, symSize: 0x0 }
  - { offset: 0xF79CB, size: 0x8, addend: 0x0, symName: __RNvNtCsjOFMLY5rhAS_14thiserror_impl9scan_expr11CLOSURE_RET, symObjAddr: 0x5CC0, symBinAddr: 0x259EF0, symSize: 0x0 }
  - { offset: 0xF79E5, size: 0x8, addend: 0x0, symName: __RNvNtCsjOFMLY5rhAS_14thiserror_impl9scan_expr5CONST, symObjAddr: 0x5D20, symBinAddr: 0x259F50, symSize: 0x0 }
  - { offset: 0xF79FF, size: 0x8, addend: 0x0, symName: __RNvNtCsjOFMLY5rhAS_14thiserror_impl9scan_expr8CONTINUE, symObjAddr: 0x5D80, symBinAddr: 0x259FB0, symSize: 0x0 }
  - { offset: 0xF7A19, size: 0x8, addend: 0x0, symName: __RNvNtCsjOFMLY5rhAS_14thiserror_impl9scan_expr3DOT, symObjAddr: 0x5DE0, symBinAddr: 0x25A010, symSize: 0x0 }
  - { offset: 0xF7A33, size: 0x8, addend: 0x0, symName: __RNvNtCsjOFMLY5rhAS_14thiserror_impl9scan_expr3FOR, symObjAddr: 0x5E70, symBinAddr: 0x25A0A0, symSize: 0x0 }
  - { offset: 0xF7A4D, size: 0x8, addend: 0x0, symName: __RNvNtCsjOFMLY5rhAS_14thiserror_impl9scan_expr7IF_ELSE, symObjAddr: 0x5ED0, symBinAddr: 0x25A100, symSize: 0x0 }
  - { offset: 0xF7A67, size: 0x8, addend: 0x0, symName: __RNvNtCsjOFMLY5rhAS_14thiserror_impl9scan_expr7IF_THEN, symObjAddr: 0x5F30, symBinAddr: 0x25A160, symSize: 0x0 }
  - { offset: 0xF7A81, size: 0x8, addend: 0x0, symName: __RNvNtCsjOFMLY5rhAS_14thiserror_impl9scan_expr6METHOD, symObjAddr: 0x5F90, symBinAddr: 0x25A1C0, symSize: 0x0 }
  - { offset: 0xF7A9B, size: 0x8, addend: 0x0, symName: __RNvNtCsjOFMLY5rhAS_14thiserror_impl9scan_expr4PATH, symObjAddr: 0x5FC0, symBinAddr: 0x25A1F0, symSize: 0x0 }
  - { offset: 0xF7AB5, size: 0x8, addend: 0x0, symName: __RNvNtCsjOFMLY5rhAS_14thiserror_impl9scan_expr7PATTERN, symObjAddr: 0x6080, symBinAddr: 0x25A2B0, symSize: 0x0 }
  - { offset: 0xF7ACF, size: 0x8, addend: 0x0, symName: __RNvNtCsjOFMLY5rhAS_14thiserror_impl9scan_expr5RANGE, symObjAddr: 0x6350, symBinAddr: 0x25A580, symSize: 0x0 }
  - { offset: 0xF7AE9, size: 0x8, addend: 0x0, symName: __RNvNtCsjOFMLY5rhAS_14thiserror_impl9scan_expr3RAW, symObjAddr: 0x6470, symBinAddr: 0x25A6A0, symSize: 0x0 }
  - { offset: 0xF7B03, size: 0x8, addend: 0x0, symName: __RNvNtCsjOFMLY5rhAS_14thiserror_impl9scan_expr9REFERENCE, symObjAddr: 0x6500, symBinAddr: 0x25A730, symSize: 0x0 }
  - { offset: 0xF7B1D, size: 0x8, addend: 0x0, symName: __RNvNtCsjOFMLY5rhAS_14thiserror_impl9scan_expr6RETURN, symObjAddr: 0x6590, symBinAddr: 0x25A7C0, symSize: 0x0 }
  - { offset: 0xF7B2A, size: 0x8, addend: 0x0, symName: __RNvNtCsjOFMLY5rhAS_14thiserror_impl9scan_expr9scan_expr, symObjAddr: 0x336C, symBinAddr: 0x464CC, symSize: 0xD78 }
  - { offset: 0xF7E8E, size: 0x8, addend: 0x0, symName: __RNCNvNtCsjOFMLY5rhAS_14thiserror_impl9scan_expr9scan_expr0B5_, symObjAddr: 0x40E4, symBinAddr: 0x47244, symSize: 0x1F0 }
  - { offset: 0xF7F16, size: 0x8, addend: 0x0, symName: __RNCNvNtCsjOFMLY5rhAS_14thiserror_impl9scan_expr9scan_exprs_0B5_, symObjAddr: 0x42D4, symBinAddr: 0x47434, symSize: 0x2CC }
  - { offset: 0xF8034, size: 0x8, addend: 0x0, symName: __RNCNvNtCsjOFMLY5rhAS_14thiserror_impl9scan_expr9scan_exprs0_0B5_, symObjAddr: 0x45A0, symBinAddr: 0x47700, symSize: 0x108 }
  - { offset: 0xF80A7, size: 0x8, addend: 0x0, symName: __RNCNvNtCsjOFMLY5rhAS_14thiserror_impl9scan_expr9scan_exprs1_0B5_, symObjAddr: 0x46A8, symBinAddr: 0x47808, symSize: 0x10C }
  - { offset: 0xF865B, size: 0x8, addend: 0x0, symName: __RINvXNtNtNtNtCscOYdFFY2T5N_3std3sys12thread_local6native4lazyzNtB3_14DestroyedState13register_dtorINtNtCsfvfooZQ3Axs_4core4cell4CellTyyEEECsjOFMLY5rhAS_14thiserror_impl, symObjAddr: 0x8A4, symBinAddr: 0x43A04, symSize: 0x10 }
  - { offset: 0xF8700, size: 0x8, addend: 0x0, symName: __RINvMs0_NtNtNtNtCscOYdFFY2T5N_3std3sys12thread_local6native4lazyINtB6_7StorageINtNtCsfvfooZQ3Axs_4core4cell4CellTyyEEzE10initializeNvNvNvMNtNtBe_4hash6randomNtB2c_11RandomState3new4KEYS6___initECsjOFMLY5rhAS_14thiserror_impl, symObjAddr: 0x0, symBinAddr: 0x1B4E18, symSize: 0x264 }
  - { offset: 0xF8954, size: 0x8, addend: 0x0, symName: __RINvMs0_NtNtNtNtCscOYdFFY2T5N_3std3sys12thread_local6native4lazyINtB6_7StorageINtNtCsfvfooZQ3Axs_4core4cell4CellTyyEEzE11get_or_initNvNvNvMNtNtBe_4hash6randomNtB2d_11RandomState3new4KEYS6___initECsjOFMLY5rhAS_14thiserror_impl, symObjAddr: 0x264, symBinAddr: 0x433C4, symSize: 0xC4 }
  - { offset: 0xF8DD8, size: 0x8, addend: 0x0, symName: __RNvMNtCs6IAuOt8vWmF_3syn10punctuatedINtB2_10PunctuatedNtCs3cP53eQoTwO_11proc_macro211TokenStreamNtNtB4_5token4PlusE10push_punctCsjOFMLY5rhAS_14thiserror_impl, symObjAddr: 0x11BC, symBinAddr: 0x4431C, symSize: 0x1F8 }
  - { offset: 0xF8E55, size: 0x8, addend: 0x0, symName: __RNvMNtCs6IAuOt8vWmF_3syn10punctuatedINtB2_10PunctuatedNtCs3cP53eQoTwO_11proc_macro211TokenStreamNtNtB4_5token4PlusE10push_valueCsjOFMLY5rhAS_14thiserror_impl, symObjAddr: 0x13B4, symBinAddr: 0x44514, symSize: 0x1A4 }
  - { offset: 0xF8EC3, size: 0x8, addend: 0x0, symName: __RNvMNtCs6IAuOt8vWmF_3syn10punctuatedINtB2_10PunctuatedNtCs3cP53eQoTwO_11proc_macro211TokenStreamNtNtB4_5token4PlusE17empty_or_trailingCsjOFMLY5rhAS_14thiserror_impl, symObjAddr: 0x1558, symBinAddr: 0x446B8, symSize: 0x34 }
  - { offset: 0xF8EF7, size: 0x8, addend: 0x0, symName: __RNvMNtCs6IAuOt8vWmF_3syn10punctuatedINtB2_10PunctuatedNtCs3cP53eQoTwO_11proc_macro211TokenStreamNtNtB4_5token4PlusE3newCsjOFMLY5rhAS_14thiserror_impl, symObjAddr: 0x158C, symBinAddr: 0x446EC, symSize: 0x54 }
  - { offset: 0xF8F1D, size: 0x8, addend: 0x0, symName: __RNvMNtCs6IAuOt8vWmF_3syn10punctuatedINtB2_10PunctuatedNtCs3cP53eQoTwO_11proc_macro211TokenStreamNtNtB4_5token4PlusE4pushCsjOFMLY5rhAS_14thiserror_impl, symObjAddr: 0x15E0, symBinAddr: 0x44740, symSize: 0x108 }
  - { offset: 0xF8F87, size: 0x8, addend: 0x0, symName: __RNvMNtCs6IAuOt8vWmF_3syn10punctuatedINtB2_10PunctuatedNtCs3cP53eQoTwO_11proc_macro211TokenStreamNtNtB4_5token4PlusE5pairsCsjOFMLY5rhAS_14thiserror_impl, symObjAddr: 0x16E8, symBinAddr: 0x44848, symSize: 0x74 }
  - { offset: 0xF8FD5, size: 0x8, addend: 0x0, symName: __RNvMNtCs6IAuOt8vWmF_3syn10punctuatedINtB2_10PunctuatedNtNtB4_4data7VariantNtNtB4_5token5CommaE4iterCsjOFMLY5rhAS_14thiserror_impl, symObjAddr: 0x175C, symBinAddr: 0x448BC, symSize: 0xC8 }
  - { offset: 0xF9033, size: 0x8, addend: 0x0, symName: __RNvMNtCs6IAuOt8vWmF_3syn10punctuatedINtB2_10PunctuatedNtNtB4_4path15GenericArgumentNtNtB4_5token5CommaE3lenCsjOFMLY5rhAS_14thiserror_impl, symObjAddr: 0x1824, symBinAddr: 0x44984, symSize: 0xA0 }
  - { offset: 0xF90A2, size: 0x8, addend: 0x0, symName: __RNvMNtCs6IAuOt8vWmF_3syn10punctuatedINtB2_10PunctuatedNtNtB4_4path15GenericArgumentNtNtB4_5token5CommaE4iterCsjOFMLY5rhAS_14thiserror_impl, symObjAddr: 0x18C4, symBinAddr: 0x44A24, symSize: 0xC8 }
  - { offset: 0xF9100, size: 0x8, addend: 0x0, symName: __RNvMNtCs6IAuOt8vWmF_3syn10punctuatedINtB2_10PunctuatedNtNtB4_8generics14WherePredicateNtNtB4_5token5CommaE4pushCsjOFMLY5rhAS_14thiserror_impl, symObjAddr: 0x198C, symBinAddr: 0x44AEC, symSize: 0x124 }
  - { offset: 0xF9143, size: 0x8, addend: 0x0, symName: __RNvMNtNtNtCsfvfooZQ3Axs_4core4iter8adapters7step_byINtB2_6StepByINtNtNtB8_3ops5range5RangejEE3newCsjOFMLY5rhAS_14thiserror_impl, symObjAddr: 0x1AB0, symBinAddr: 0x44C10, symSize: 0xE0 }
  - { offset: 0xF91A8, size: 0x8, addend: 0x0, symName: __RNvXNtCs2cqEZUIJimJ_5quote9to_tokensRINtNtCs6IAuOt8vWmF_3syn10punctuated10PunctuatedNtCs3cP53eQoTwO_11proc_macro211TokenStreamNtNtBE_5token4PlusENtB2_8ToTokens9to_tokensCsjOFMLY5rhAS_14thiserror_impl, symObjAddr: 0x1BC8, symBinAddr: 0x44D28, symSize: 0x40 }
  - { offset: 0xF9AE6, size: 0x8, addend: 0x0, symName: __RINvMsb_NtNtNtCse1nGBsou5OW_5alloc11collections5btree8navigateINtB6_13LazyLeafRangeNtNtNtB8_4node6marker5DyingNtCs3cP53eQoTwO_11proc_macro25IdentNtNtB8_7set_val9SetValZSTE16deallocating_endNtNtBc_5alloc6GlobalECsjOFMLY5rhAS_14thiserror_impl, symObjAddr: 0x0, symBinAddr: 0x47914, symSize: 0xA8 }
  - { offset: 0xF9B35, size: 0x8, addend: 0x0, symName: __RNvXsw_NtCse1nGBsou5OW_5alloc6stringNtCs3cP53eQoTwO_11proc_macro211TokenStreamNtB5_8ToString9to_stringCsjOFMLY5rhAS_14thiserror_impl, symObjAddr: 0x3068, symBinAddr: 0x4A954, symSize: 0x24 }
  - { offset: 0xF9B72, size: 0x8, addend: 0x0, symName: __RNvXsx_NtCse1nGBsou5OW_5alloc6stringNtCs3cP53eQoTwO_11proc_macro211TokenStreamNtB5_12SpecToString14spec_to_stringCsjOFMLY5rhAS_14thiserror_impl, symObjAddr: 0x308C, symBinAddr: 0x4A978, symSize: 0x144 }
  - { offset: 0xFB19A, size: 0x8, addend: 0x0, symName: __RNCINvMsm_NtNtNtCse1nGBsou5OW_5alloc11collections5btree8navigateINtNtBa_4node6HandleINtB13_7NodeRefNtNtB13_6marker5DyingNtCs3cP53eQoTwO_11proc_macro25IdentNtNtBa_7set_val9SetValZSTNtB1B_4LeafENtB1B_4EdgeE27deallocating_next_uncheckedNtNtBe_5alloc6GlobalE0CsjOFMLY5rhAS_14thiserror_impl, symObjAddr: 0x1194, symBinAddr: 0x48A80, symSize: 0x58 }
  - { offset: 0xFB212, size: 0x8, addend: 0x0, symName: __RNCINvMsm_NtNtNtCse1nGBsou5OW_5alloc11collections5btree8navigateINtNtBa_4node6HandleINtB13_7NodeRefNtNtB13_6marker5DyingNtNtBe_6string6StringNtNtBa_7set_val9SetValZSTNtB1B_4LeafENtB1B_4EdgeE27deallocating_next_uncheckedNtNtBe_5alloc6GlobalE0CsjOFMLY5rhAS_14thiserror_impl, symObjAddr: 0x11EC, symBinAddr: 0x48AD8, symSize: 0x58 }
  - { offset: 0xFB28A, size: 0x8, addend: 0x0, symName: __RNCINvMsm_NtNtNtCse1nGBsou5OW_5alloc11collections5btree8navigateINtNtBa_4node6HandleINtB13_7NodeRefNtNtB13_6marker5DyingNtNtBe_6string6StringTINtNtBa_3set8BTreeSetB1U_EINtNtCs6IAuOt8vWmF_3syn10punctuated10PunctuatedNtCs3cP53eQoTwO_11proc_macro211TokenStreamNtNtB2L_5token4PlusEENtB1B_4LeafENtB1B_4EdgeE27deallocating_next_uncheckedNtNtBe_5alloc6GlobalE0CsjOFMLY5rhAS_14thiserror_impl, symObjAddr: 0x1244, symBinAddr: 0x48B30, symSize: 0x58 }
  - { offset: 0xFB302, size: 0x8, addend: 0x0, symName: __RNCINvMsm_NtNtNtCse1nGBsou5OW_5alloc11collections5btree8navigateINtNtBa_4node6HandleINtB13_7NodeRefNtNtB13_6marker5DyingRNtCs3cP53eQoTwO_11proc_macro25IdentNtNtBa_7set_val9SetValZSTNtB1B_4LeafENtB1B_4EdgeE27deallocating_next_uncheckedNtNtBe_5alloc6GlobalE0CsjOFMLY5rhAS_14thiserror_impl, symObjAddr: 0x129C, symBinAddr: 0x48B88, symSize: 0x58 }
  - { offset: 0xFB37A, size: 0x8, addend: 0x0, symName: __RNCINvMsm_NtNtNtCse1nGBsou5OW_5alloc11collections5btree8navigateINtNtBa_4node6HandleINtB13_7NodeRefNtNtB13_6marker5DyingTjNtNtCsjOFMLY5rhAS_14thiserror_impl4attr5TraitENtNtBa_7set_val9SetValZSTNtB1B_4LeafENtB1B_4EdgeE27deallocating_next_uncheckedNtNtBe_5alloc6GlobalE0B20_, symObjAddr: 0x12F4, symBinAddr: 0x48BE0, symSize: 0x58 }
  - { offset: 0xFCD54, size: 0x8, addend: 0x0, symName: __RNvXs7_NtNtNtCse1nGBsou5OW_5alloc11collections5btree7set_valNtB5_9SetValZSTNtNtCsfvfooZQ3Axs_4core5clone5Clone5cloneCsjOFMLY5rhAS_14thiserror_impl, symObjAddr: 0x2A64, symBinAddr: 0x4A350, symSize: 0x10 }
  - { offset: 0xFD02B, size: 0x8, addend: 0x0, symName: __RINvNtNtNtCse1nGBsou5OW_5alloc11collections5btree3mem7replaceINtNtB4_4node6HandleINtB10_7NodeRefNtNtB10_6marker5DyingNtCs3cP53eQoTwO_11proc_macro25IdentNtNtB4_7set_val9SetValZSTNtB1y_4LeafENtB1y_4EdgeEIBY_IB1i_B1w_B1R_B2q_NtB1y_14LeafOrInternalENtB1y_2KVENCINvMsm_NtB4_8navigateBX_27deallocating_next_uncheckedNtNtB8_5alloc6GlobalE0ECsjOFMLY5rhAS_14thiserror_impl, symObjAddr: 0x760, symBinAddr: 0x48074, symSize: 0xCC }
  - { offset: 0xFD11B, size: 0x8, addend: 0x0, symName: __RINvNtNtNtCse1nGBsou5OW_5alloc11collections5btree3mem7replaceINtNtB4_4node6HandleINtB10_7NodeRefNtNtB10_6marker5DyingNtNtB8_6string6StringNtNtB4_7set_val9SetValZSTNtB1y_4LeafENtB1y_4EdgeEIBY_IB1i_B1w_B1R_B2c_NtB1y_14LeafOrInternalENtB1y_2KVENCINvMsm_NtB4_8navigateBX_27deallocating_next_uncheckedNtNtB8_5alloc6GlobalE0ECsjOFMLY5rhAS_14thiserror_impl, symObjAddr: 0x82C, symBinAddr: 0x48140, symSize: 0xCC }
  - { offset: 0xFD20B, size: 0x8, addend: 0x0, symName: __RINvNtNtNtCse1nGBsou5OW_5alloc11collections5btree3mem7replaceINtNtB4_4node6HandleINtB10_7NodeRefNtNtB10_6marker5DyingNtNtB8_6string6StringTINtNtB4_3set8BTreeSetB1R_EINtNtCs6IAuOt8vWmF_3syn10punctuated10PunctuatedNtCs3cP53eQoTwO_11proc_macro211TokenStreamNtNtB2I_5token4PlusEENtB1y_4LeafENtB1y_4EdgeEIBY_IB1i_B1w_B1R_B2c_NtB1y_14LeafOrInternalENtB1y_2KVENCINvMsm_NtB4_8navigateBX_27deallocating_next_uncheckedNtNtB8_5alloc6GlobalE0ECsjOFMLY5rhAS_14thiserror_impl, symObjAddr: 0x8F8, symBinAddr: 0x4820C, symSize: 0xCC }
  - { offset: 0xFD2FB, size: 0x8, addend: 0x0, symName: __RINvNtNtNtCse1nGBsou5OW_5alloc11collections5btree3mem7replaceINtNtB4_4node6HandleINtB10_7NodeRefNtNtB10_6marker5DyingRNtCs3cP53eQoTwO_11proc_macro25IdentNtNtB4_7set_val9SetValZSTNtB1y_4LeafENtB1y_4EdgeEIBY_IB1i_B1w_B1R_B2r_NtB1y_14LeafOrInternalENtB1y_2KVENCINvMsm_NtB4_8navigateBX_27deallocating_next_uncheckedNtNtB8_5alloc6GlobalE0ECsjOFMLY5rhAS_14thiserror_impl, symObjAddr: 0x9C4, symBinAddr: 0x482D8, symSize: 0xCC }
  - { offset: 0xFD3EB, size: 0x8, addend: 0x0, symName: __RINvNtNtNtCse1nGBsou5OW_5alloc11collections5btree3mem7replaceINtNtB4_4node6HandleINtB10_7NodeRefNtNtB10_6marker5DyingTjNtNtCsjOFMLY5rhAS_14thiserror_impl4attr5TraitENtNtB4_7set_val9SetValZSTNtB1y_4LeafENtB1y_4EdgeEIBY_IB1i_B1w_B1R_B2D_NtB1y_14LeafOrInternalENtB1y_2KVENCINvMsm_NtB4_8navigateBX_27deallocating_next_uncheckedNtNtB8_5alloc6GlobalE0EB1X_, symObjAddr: 0xA90, symBinAddr: 0x483A4, symSize: 0xCC }
  - { offset: 0xFD4DB, size: 0x8, addend: 0x0, symName: __RINvNtNtNtCse1nGBsou5OW_5alloc11collections5btree3mem7replaceINtNtB4_4node7NodeRefNtNtB10_6marker5OwnedNtCs3cP53eQoTwO_11proc_macro25IdentNtNtB4_7set_val9SetValZSTNtB1k_14LeafOrInternalEuNCINvB2_8take_mutBX_NCINvMss_B10_BX_19push_internal_levelNtNtB8_5alloc6GlobalE0E0ECsjOFMLY5rhAS_14thiserror_impl, symObjAddr: 0xB5C, symBinAddr: 0x48470, symSize: 0x90 }
  - { offset: 0xFD5C4, size: 0x8, addend: 0x0, symName: __RINvNtNtNtCse1nGBsou5OW_5alloc11collections5btree3mem7replaceINtNtB4_4node7NodeRefNtNtB10_6marker5OwnedNtNtB8_6string6StringNtNtB4_7set_val9SetValZSTNtB1k_14LeafOrInternalEuNCINvB2_8take_mutBX_NCINvMss_B10_BX_19push_internal_levelNtNtB8_5alloc6GlobalE0E0ECsjOFMLY5rhAS_14thiserror_impl, symObjAddr: 0xBEC, symBinAddr: 0x48500, symSize: 0x90 }
  - { offset: 0xFD6AD, size: 0x8, addend: 0x0, symName: __RINvNtNtNtCse1nGBsou5OW_5alloc11collections5btree3mem7replaceINtNtB4_4node7NodeRefNtNtB10_6marker5OwnedNtNtB8_6string6StringTINtNtB4_3set8BTreeSetB1D_EINtNtCs6IAuOt8vWmF_3syn10punctuated10PunctuatedNtCs3cP53eQoTwO_11proc_macro211TokenStreamNtNtB2u_5token4PlusEENtB1k_14LeafOrInternalEuNCINvB2_8take_mutBX_NCINvMss_B10_BX_19push_internal_levelNtNtB8_5alloc6GlobalE0E0ECsjOFMLY5rhAS_14thiserror_impl, symObjAddr: 0xC7C, symBinAddr: 0x48590, symSize: 0x90 }
  - { offset: 0xFD796, size: 0x8, addend: 0x0, symName: __RINvNtNtNtCse1nGBsou5OW_5alloc11collections5btree3mem7replaceINtNtB4_4node7NodeRefNtNtB10_6marker5OwnedRNtCs3cP53eQoTwO_11proc_macro25IdentNtNtB4_7set_val9SetValZSTNtB1k_14LeafOrInternalEuNCINvB2_8take_mutBX_NCINvMss_B10_BX_19push_internal_levelNtNtB8_5alloc6GlobalE0E0ECsjOFMLY5rhAS_14thiserror_impl, symObjAddr: 0xD0C, symBinAddr: 0x48620, symSize: 0x90 }
  - { offset: 0xFD87F, size: 0x8, addend: 0x0, symName: __RINvNtNtNtCse1nGBsou5OW_5alloc11collections5btree3mem7replaceINtNtB4_4node7NodeRefNtNtB10_6marker5OwnedTjNtNtCsjOFMLY5rhAS_14thiserror_impl4attr5TraitENtNtB4_7set_val9SetValZSTNtB1k_14LeafOrInternalEuNCINvB2_8take_mutBX_NCINvMss_B10_BX_19push_internal_levelNtNtB8_5alloc6GlobalE0E0EB1J_, symObjAddr: 0xD9C, symBinAddr: 0x486B0, symSize: 0x90 }
  - { offset: 0xFD96D, size: 0x8, addend: 0x0, symName: __RNCINvNtNtNtCse1nGBsou5OW_5alloc11collections5btree3mem8take_mutINtNtB6_4node7NodeRefNtNtB13_6marker5OwnedNtCs3cP53eQoTwO_11proc_macro25IdentNtNtB6_7set_val9SetValZSTNtB1n_14LeafOrInternalENCINvMss_B13_B10_19push_internal_levelNtNtBa_5alloc6GlobalE0E0CsjOFMLY5rhAS_14thiserror_impl, symObjAddr: 0x134C, symBinAddr: 0x48C38, symSize: 0x28 }
  - { offset: 0xFD9BA, size: 0x8, addend: 0x0, symName: __RNCINvNtNtNtCse1nGBsou5OW_5alloc11collections5btree3mem8take_mutINtNtB6_4node7NodeRefNtNtB13_6marker5OwnedNtNtBa_6string6StringNtNtB6_7set_val9SetValZSTNtB1n_14LeafOrInternalENCINvMss_B13_B10_19push_internal_levelNtNtBa_5alloc6GlobalE0E0CsjOFMLY5rhAS_14thiserror_impl, symObjAddr: 0x1374, symBinAddr: 0x48C60, symSize: 0x28 }
  - { offset: 0xFDA07, size: 0x8, addend: 0x0, symName: __RNCINvNtNtNtCse1nGBsou5OW_5alloc11collections5btree3mem8take_mutINtNtB6_4node7NodeRefNtNtB13_6marker5OwnedNtNtBa_6string6StringTINtNtB6_3set8BTreeSetB1G_EINtNtCs6IAuOt8vWmF_3syn10punctuated10PunctuatedNtCs3cP53eQoTwO_11proc_macro211TokenStreamNtNtB2x_5token4PlusEENtB1n_14LeafOrInternalENCINvMss_B13_B10_19push_internal_levelNtNtBa_5alloc6GlobalE0E0CsjOFMLY5rhAS_14thiserror_impl, symObjAddr: 0x139C, symBinAddr: 0x48C88, symSize: 0x28 }
  - { offset: 0xFDA54, size: 0x8, addend: 0x0, symName: __RNCINvNtNtNtCse1nGBsou5OW_5alloc11collections5btree3mem8take_mutINtNtB6_4node7NodeRefNtNtB13_6marker5OwnedRNtCs3cP53eQoTwO_11proc_macro25IdentNtNtB6_7set_val9SetValZSTNtB1n_14LeafOrInternalENCINvMss_B13_B10_19push_internal_levelNtNtBa_5alloc6GlobalE0E0CsjOFMLY5rhAS_14thiserror_impl, symObjAddr: 0x13C4, symBinAddr: 0x48CB0, symSize: 0x28 }
  - { offset: 0xFDAA1, size: 0x8, addend: 0x0, symName: __RNCINvNtNtNtCse1nGBsou5OW_5alloc11collections5btree3mem8take_mutINtNtB6_4node7NodeRefNtNtB13_6marker5OwnedTjNtNtCsjOFMLY5rhAS_14thiserror_impl4attr5TraitENtNtB6_7set_val9SetValZSTNtB1n_14LeafOrInternalENCINvMss_B13_B10_19push_internal_levelNtNtBa_5alloc6GlobalE0E0B1M_, symObjAddr: 0x13EC, symBinAddr: 0x48CD8, symSize: 0x28 }
  - { offset: 0x101E1A, size: 0x8, addend: 0x0, symName: __RNvMNtCsfvfooZQ3Axs_4core5sliceSNtCs3cP53eQoTwO_11proc_macro211TokenStream4iterCsjOFMLY5rhAS_14thiserror_impl, symObjAddr: 0x1414, symBinAddr: 0x48D00, symSize: 0x28 }
  - { offset: 0x101E78, size: 0x8, addend: 0x0, symName: __RNvMNtCsfvfooZQ3Axs_4core5sliceSRNtCs3cP53eQoTwO_11proc_macro25Ident22split_at_mut_uncheckedCsjOFMLY5rhAS_14thiserror_impl, symObjAddr: 0x143C, symBinAddr: 0x48D28, symSize: 0xE8 }
  - { offset: 0x102018, size: 0x8, addend: 0x0, symName: __RNvMNtCsfvfooZQ3Axs_4core5sliceSRNtCs3cP53eQoTwO_11proc_macro25Ident7reverseCsjOFMLY5rhAS_14thiserror_impl, symObjAddr: 0x1524, symBinAddr: 0x48E10, symSize: 0xFC }
  - { offset: 0x1021A8, size: 0x8, addend: 0x0, symName: __RNvMNtCsfvfooZQ3Axs_4core5sliceSTNtCs3cP53eQoTwO_11proc_macro211TokenStreamNtNtCs6IAuOt8vWmF_3syn5token4PlusE4iterCsjOFMLY5rhAS_14thiserror_impl, symObjAddr: 0x1620, symBinAddr: 0x48F0C, symSize: 0x28 }
  - { offset: 0x10225A, size: 0x8, addend: 0x0, symName: __RNvXs0_NtNtNtNtCsfvfooZQ3Axs_4core5slice4sort6stable9quicksortRNtCs3cP53eQoTwO_11proc_macro25IdentNtB5_8IsFreeze9is_freezeCsjOFMLY5rhAS_14thiserror_impl, symObjAddr: 0x29E4, symBinAddr: 0x4A2D0, symSize: 0xC }
  - { offset: 0x1025C2, size: 0x8, addend: 0x0, symName: __RNvXs2_NtNtNtCsfvfooZQ3Axs_4core3ops8function5implsQNCNvMNtCsjOFMLY5rhAS_14thiserror_impl8genericsNtBT_13ParamsInScope3new0INtB7_6FnOnceTRNtNtCs6IAuOt8vWmF_3syn8generics9TypeParamEE9call_onceBV_, symObjAddr: 0x2A04, symBinAddr: 0x4A2F0, symSize: 0x2C }
  - { offset: 0x102629, size: 0x8, addend: 0x0, symName: __RNvXs1_NtCsfvfooZQ3Axs_4core7convertNtCs3cP53eQoTwO_11proc_macro211TokenStreamINtB5_4IntoNtCs9i5KxIbZ5ph_10proc_macro11TokenStreamE4intoCsjOFMLY5rhAS_14thiserror_impl, symObjAddr: 0x29F0, symBinAddr: 0x4A2DC, symSize: 0x14 }
  - { offset: 0x102715, size: 0x8, addend: 0x0, symName: __RNvNtNtNtNtCsfvfooZQ3Axs_4core9core_arch7aarch644neon9generated8vcgez_s8CsjOFMLY5rhAS_14thiserror_impl, symObjAddr: 0x27F0, symBinAddr: 0x4A0DC, symSize: 0x68 }
  - { offset: 0x1027B7, size: 0x8, addend: 0x0, symName: __RNvNtNtNtNtCsfvfooZQ3Axs_4core9core_arch7aarch644neon9generated8vcltz_s8CsjOFMLY5rhAS_14thiserror_impl, symObjAddr: 0x2858, symBinAddr: 0x4A144, symSize: 0x68 }
  - { offset: 0x10289D, size: 0x8, addend: 0x0, symName: __RNvXNtCsfvfooZQ3Axs_4core6borrowNtCs3cP53eQoTwO_11proc_macro25IdentINtB2_6BorrowBu_E6borrowCsjOFMLY5rhAS_14thiserror_impl, symObjAddr: 0x29B8, symBinAddr: 0x4A2A4, symSize: 0x14 }
  - { offset: 0x1028D8, size: 0x8, addend: 0x0, symName: __RNvXs0_NtCsfvfooZQ3Axs_4core6borrowRNtCs3cP53eQoTwO_11proc_macro25IdentINtB5_6BorrowBy_E6borrowCsjOFMLY5rhAS_14thiserror_impl, symObjAddr: 0x29CC, symBinAddr: 0x4A2B8, symSize: 0x18 }
  - { offset: 0x10291E, size: 0x8, addend: 0x0, symName: __RNvXs7_NtNtCsfvfooZQ3Axs_4core3cmp5implsRNtCs3cP53eQoTwO_11proc_macro25IdentNtB7_9PartialEq2neCsjOFMLY5rhAS_14thiserror_impl, symObjAddr: 0x2A30, symBinAddr: 0x4A31C, symSize: 0x34 }
  - { offset: 0x102973, size: 0x8, addend: 0x0, symName: __RNvXs8_NtNtCsfvfooZQ3Axs_4core3cmp5implsRNtCs3cP53eQoTwO_11proc_macro25IdentNtB7_10PartialOrd2ltCsjOFMLY5rhAS_14thiserror_impl, symObjAddr: 0x2A74, symBinAddr: 0x4A360, symSize: 0x34 }
  - { offset: 0x1029C9, size: 0x8, addend: 0x0, symName: __RNvYNtCs3cP53eQoTwO_11proc_macro25IdentINtNtCsfvfooZQ3Axs_4core3cmp9PartialEqReE2neCsjOFMLY5rhAS_14thiserror_impl, symObjAddr: 0x32F4, symBinAddr: 0x4ABE0, symSize: 0x30 }
  - { offset: 0x102A18, size: 0x8, addend: 0x0, symName: __RNvYNtCs3cP53eQoTwO_11proc_macro25IdentNtNtCsfvfooZQ3Axs_4core3cmp9PartialEq2neCsjOFMLY5rhAS_14thiserror_impl, symObjAddr: 0x3390, symBinAddr: 0x4AC7C, symSize: 0x30 }
  - { offset: 0x102A6D, size: 0x8, addend: 0x0, symName: __RNvYNtCs3cP53eQoTwO_11proc_macro25IdentNtNtCsfvfooZQ3Axs_4core3cmp10PartialOrd2ltCsjOFMLY5rhAS_14thiserror_impl, symObjAddr: 0x3324, symBinAddr: 0x4AC10, symSize: 0x6C }
  - { offset: 0x102D24, size: 0x8, addend: 0x0, symName: ___rustc_proc_macro_decls_e6d319970998edec__, symObjAddr: 0x5190, symBinAddr: 0x25AB38, symSize: 0x0 }
  - { offset: 0x102DCD, size: 0x8, addend: 0x0, symName: __RNCNvMNtCsjOFMLY5rhAS_14thiserror_impl8genericsNtB4_13ParamsInScope3new0B6_, symObjAddr: 0x3418, symBinAddr: 0x4AD04, symSize: 0x28 }
  - { offset: 0x102E0C, size: 0x8, addend: 0x0, symName: __RNvNtCsjOFMLY5rhAS_14thiserror_impl8generics5crawl, symObjAddr: 0x348C, symBinAddr: 0x4AD78, symSize: 0x318 }
  - { offset: 0x102FFC, size: 0x8, addend: 0x0, symName: __RNvCsjOFMLY5rhAS_14thiserror_impl12derive_error, symObjAddr: 0x45F0, symBinAddr: 0x4BEDC, symSize: 0x180 }
  - { offset: 0x103BCF, size: 0x8, addend: 0x0, symName: __RINvXs7_NtCs3cP53eQoTwO_11proc_macro23impNtB6_11TokenStreamINtNtNtNtCsfvfooZQ3Axs_4core4iter6traits7collect6ExtendNtB8_9TokenTreeE6extendNtB8_11TokenStreamECsjOFMLY5rhAS_14thiserror_impl, symObjAddr: 0xFAC, symBinAddr: 0x48898, symSize: 0x164 }
  - { offset: 0x103C6B, size: 0x8, addend: 0x0, symName: __RNvXsA_NtCs3cP53eQoTwO_11proc_macro23impNtB5_19DeferredTokenStreamNtNtCsfvfooZQ3Axs_4core5clone5Clone5cloneCsjOFMLY5rhAS_14thiserror_impl, symObjAddr: 0x2AA8, symBinAddr: 0x4A394, symSize: 0x90 }
  - { offset: 0x103C9D, size: 0x8, addend: 0x0, symName: __RNvXsF_NtCs3cP53eQoTwO_11proc_macro23impNtB5_5IdentNtNtCsfvfooZQ3Axs_4core5clone5Clone5cloneCsjOFMLY5rhAS_14thiserror_impl, symObjAddr: 0x2B38, symBinAddr: 0x4A424, symSize: 0x9C }
  - { offset: 0x103D0D, size: 0x8, addend: 0x0, symName: __RNvXsz_NtCs3cP53eQoTwO_11proc_macro23impNtB5_11TokenStreamNtNtCsfvfooZQ3Axs_4core5clone5Clone5cloneCsjOFMLY5rhAS_14thiserror_impl, symObjAddr: 0x31D0, symBinAddr: 0x4AABC, symSize: 0x98 }
  - { offset: 0x104018, size: 0x8, addend: 0x0, symName: __RINvXs4_Cs3cP53eQoTwO_11proc_macro2NtB6_11TokenStreamINtNtNtNtCsfvfooZQ3Axs_4core4iter6traits7collect6ExtendNtB6_9TokenTreeE6extendBx_ECsjOFMLY5rhAS_14thiserror_impl, symObjAddr: 0xF24, symBinAddr: 0x48810, symSize: 0x34 }
  - { offset: 0x104061, size: 0x8, addend: 0x0, symName: __RINvXs6_Cs3cP53eQoTwO_11proc_macro2NtB6_11TokenStreamINtNtNtNtCsfvfooZQ3Axs_4core4iter6traits7collect12FromIteratorNtB6_9TokenTreeE9from_iterINtNtCse1nGBsou5OW_5alloc3vec3VecB1P_EECsjOFMLY5rhAS_14thiserror_impl, symObjAddr: 0xF58, symBinAddr: 0x48844, symSize: 0x54 }
  - { offset: 0x10409F, size: 0x8, addend: 0x0, symName: __RINvXsz_Cs3cP53eQoTwO_11proc_macro2NtB6_5IdentNtNtCsfvfooZQ3Axs_4core4hash4Hash4hashNtNtNtCscOYdFFY2T5N_3std4hash6random13DefaultHasherECsjOFMLY5rhAS_14thiserror_impl, symObjAddr: 0x1110, symBinAddr: 0x489FC, symSize: 0x84 }
  - { offset: 0x1040E7, size: 0x8, addend: 0x0, symName: __RNvXsG_Cs3cP53eQoTwO_11proc_macro2NtB5_11TokenStreamNtNtCsfvfooZQ3Axs_4core5clone5Clone5cloneCsjOFMLY5rhAS_14thiserror_impl, symObjAddr: 0x2BD4, symBinAddr: 0x4A4C0, symSize: 0x78 }
  - { offset: 0x104119, size: 0x8, addend: 0x0, symName: __RNvXsX_Cs3cP53eQoTwO_11proc_macro2NtB5_7SpacingNtNtCsfvfooZQ3Axs_4core3cmp9PartialEq2eqCsjOFMLY5rhAS_14thiserror_impl, symObjAddr: 0x2C4C, symBinAddr: 0x4A538, symSize: 0x3C }
  - { offset: 0x104198, size: 0x8, addend: 0x0, symName: __RNvXsY_Cs3cP53eQoTwO_11proc_macro2NtB5_5IdentNtNtCsfvfooZQ3Axs_4core5clone5Clone5cloneCsjOFMLY5rhAS_14thiserror_impl, symObjAddr: 0x2C88, symBinAddr: 0x4A574, symSize: 0x78 }
  - { offset: 0x104353, size: 0x8, addend: 0x0, symName: __RINvMsb_NtNtNtCse1nGBsou5OW_5alloc11collections5btree8navigateINtB6_13LazyLeafRangeNtNtNtB8_4node6marker5DyingNtCs3cP53eQoTwO_11proc_macro25IdentNtNtB8_7set_val9SetValZSTE16deallocating_endNtNtBc_5alloc6GlobalECsjOFMLY5rhAS_14thiserror_impl, symObjAddr: 0x0, symBinAddr: 0x47914, symSize: 0xA8 }
  - { offset: 0x104432, size: 0x8, addend: 0x0, symName: __RINvMsb_NtNtNtCse1nGBsou5OW_5alloc11collections5btree8navigateINtB6_13LazyLeafRangeNtNtNtB8_4node6marker5DyingNtCs3cP53eQoTwO_11proc_macro25IdentNtNtB8_7set_val9SetValZSTE27deallocating_next_uncheckedNtNtBc_5alloc6GlobalECsjOFMLY5rhAS_14thiserror_impl, symObjAddr: 0xA8, symBinAddr: 0x479BC, symSize: 0xA8 }
  - { offset: 0x10451D, size: 0x8, addend: 0x0, symName: __RINvMsb_NtNtNtCse1nGBsou5OW_5alloc11collections5btree8navigateINtB6_13LazyLeafRangeNtNtNtB8_4node6marker5DyingNtNtBc_6string6StringNtNtB8_7set_val9SetValZSTE16deallocating_endNtNtBc_5alloc6GlobalECsjOFMLY5rhAS_14thiserror_impl, symObjAddr: 0x150, symBinAddr: 0x47A64, symSize: 0xA8 }
  - { offset: 0x1045EF, size: 0x8, addend: 0x0, symName: __RINvMsb_NtNtNtCse1nGBsou5OW_5alloc11collections5btree8navigateINtB6_13LazyLeafRangeNtNtNtB8_4node6marker5DyingNtNtBc_6string6StringNtNtB8_7set_val9SetValZSTE27deallocating_next_uncheckedNtNtBc_5alloc6GlobalECsjOFMLY5rhAS_14thiserror_impl, symObjAddr: 0x1F8, symBinAddr: 0x47B0C, symSize: 0xA8 }
  - { offset: 0x105326, size: 0x8, addend: 0x0, symName: __RINvNtCs6IAuOt8vWmF_3syn11parse_quote5parseNtNtB4_8generics14WherePredicateECsjOFMLY5rhAS_14thiserror_impl, symObjAddr: 0x690, symBinAddr: 0x47FA4, symSize: 0xD0 }
  - { offset: 0x10538B, size: 0x8, addend: 0x0, symName: __RINvNvNtCs6IAuOt8vWmF_3syn11parse_quote5parse18panic_cold_displayNtNtB6_5error5ErrorECsjOFMLY5rhAS_14thiserror_impl, symObjAddr: 0xE2C, symBinAddr: 0x1B507C, symSize: 0x28 }
  - { offset: 0x1053C8, size: 0x8, addend: 0x0, symName: __RNvXsh_NtCs6IAuOt8vWmF_3syn5parseNvYNtNtB7_8generics14WherePredicateNtNtB7_11parse_quote10ParseQuote5parseNtB5_6Parser6parse2CsjOFMLY5rhAS_14thiserror_impl, symObjAddr: 0x2D00, symBinAddr: 0x4A5EC, symSize: 0x368 }
  - { offset: 0x109A95, size: 0x8, addend: 0x0, symName: __RINvMsb_NtNtNtCse1nGBsou5OW_5alloc11collections5btree8navigateINtB6_13LazyLeafRangeNtNtNtB8_4node6marker5DyingNtNtBc_6string6StringTINtNtB8_3set8BTreeSetB1K_EINtNtCs6IAuOt8vWmF_3syn10punctuated10PunctuatedNtCs3cP53eQoTwO_11proc_macro211TokenStreamNtNtB2B_5token4PlusEEE16deallocating_endNtNtBc_5alloc6GlobalECsjOFMLY5rhAS_14thiserror_impl, symObjAddr: 0x2A0, symBinAddr: 0x47BB4, symSize: 0xA8 }
  - { offset: 0x109B67, size: 0x8, addend: 0x0, symName: __RINvMsb_NtNtNtCse1nGBsou5OW_5alloc11collections5btree8navigateINtB6_13LazyLeafRangeNtNtNtB8_4node6marker5DyingNtNtBc_6string6StringTINtNtB8_3set8BTreeSetB1K_EINtNtCs6IAuOt8vWmF_3syn10punctuated10PunctuatedNtCs3cP53eQoTwO_11proc_macro211TokenStreamNtNtB2B_5token4PlusEEE27deallocating_next_uncheckedNtNtBc_5alloc6GlobalECsjOFMLY5rhAS_14thiserror_impl, symObjAddr: 0x348, symBinAddr: 0x47C5C, symSize: 0xA8 }
  - { offset: 0x109C5F, size: 0x8, addend: 0x0, symName: __RINvMsb_NtNtNtCse1nGBsou5OW_5alloc11collections5btree8navigateINtB6_13LazyLeafRangeNtNtNtB8_4node6marker5DyingRNtCs3cP53eQoTwO_11proc_macro25IdentNtNtB8_7set_val9SetValZSTE16deallocating_endNtNtBc_5alloc6GlobalECsjOFMLY5rhAS_14thiserror_impl, symObjAddr: 0x3F0, symBinAddr: 0x47D04, symSize: 0xA8 }
  - { offset: 0x109D31, size: 0x8, addend: 0x0, symName: __RINvMsb_NtNtNtCse1nGBsou5OW_5alloc11collections5btree8navigateINtB6_13LazyLeafRangeNtNtNtB8_4node6marker5DyingRNtCs3cP53eQoTwO_11proc_macro25IdentNtNtB8_7set_val9SetValZSTE27deallocating_next_uncheckedNtNtBc_5alloc6GlobalECsjOFMLY5rhAS_14thiserror_impl, symObjAddr: 0x498, symBinAddr: 0x47DAC, symSize: 0xA8 }
  - { offset: 0x109E3A, size: 0x8, addend: 0x0, symName: __RINvMsb_NtNtNtCse1nGBsou5OW_5alloc11collections5btree8navigateINtB6_13LazyLeafRangeNtNtNtB8_4node6marker5DyingTjNtNtCsjOFMLY5rhAS_14thiserror_impl4attr5TraitENtNtB8_7set_val9SetValZSTE16deallocating_endNtNtBc_5alloc6GlobalEB1Q_, symObjAddr: 0x540, symBinAddr: 0x47E54, symSize: 0xA8 }
  - { offset: 0x109F0C, size: 0x8, addend: 0x0, symName: __RINvMsb_NtNtNtCse1nGBsou5OW_5alloc11collections5btree8navigateINtB6_13LazyLeafRangeNtNtNtB8_4node6marker5DyingTjNtNtCsjOFMLY5rhAS_14thiserror_impl4attr5TraitENtNtB8_7set_val9SetValZSTE27deallocating_next_uncheckedNtNtBc_5alloc6GlobalEB1Q_, symObjAddr: 0x5E8, symBinAddr: 0x47EFC, symSize: 0xA8 }
  - { offset: 0x10A006, size: 0x8, addend: 0x0, symName: __RINvXNtCs2cqEZUIJimJ_5quote3extNtCs3cP53eQoTwO_11proc_macro211TokenStreamNtB3_14TokenStreamExt10append_allINtNtCs6IAuOt8vWmF_3syn10punctuated5PairsBt_NtNtB1L_5token4PlusEECsjOFMLY5rhAS_14thiserror_impl, symObjAddr: 0xE54, symBinAddr: 0x48740, symSize: 0xD0 }
  - { offset: 0x10A084, size: 0x8, addend: 0x0, symName: __RNvXNtCs2cqEZUIJimJ_5quote14ident_fragmentRNtCs3cP53eQoTwO_11proc_macro25IdentNtB2_13IdentFragment3fmtCsjOFMLY5rhAS_14thiserror_impl, symObjAddr: 0x28C0, symBinAddr: 0x4A1AC, symSize: 0x40 }
  - { offset: 0x10A0C7, size: 0x8, addend: 0x0, symName: __RNvXNtCs2cqEZUIJimJ_5quote14ident_fragmentRNtCs3cP53eQoTwO_11proc_macro25IdentNtB2_13IdentFragment4spanCsjOFMLY5rhAS_14thiserror_impl, symObjAddr: 0x2900, symBinAddr: 0x4A1EC, symSize: 0x38 }
  - { offset: 0x10A108, size: 0x8, addend: 0x0, symName: __RNvXNtCs2cqEZUIJimJ_5quote9to_tokensRNtCs3cP53eQoTwO_11proc_macro211TokenStreamNtB2_8ToTokens9to_tokensCsjOFMLY5rhAS_14thiserror_impl, symObjAddr: 0x2938, symBinAddr: 0x4A224, symSize: 0x40 }
  - { offset: 0x10A147, size: 0x8, addend: 0x0, symName: __RNvXNtCs2cqEZUIJimJ_5quote9to_tokensRNtCs3cP53eQoTwO_11proc_macro25IdentNtB2_8ToTokens9to_tokensCsjOFMLY5rhAS_14thiserror_impl, symObjAddr: 0x2978, symBinAddr: 0x4A264, symSize: 0x40 }
  - { offset: 0x10A18C, size: 0x8, addend: 0x0, symName: __RNvYNtCs3cP53eQoTwO_11proc_macro211TokenStreamNtNtCs2cqEZUIJimJ_5quote9to_tokens8ToTokens15to_token_streamCsjOFMLY5rhAS_14thiserror_impl, symObjAddr: 0x3268, symBinAddr: 0x4AB54, symSize: 0x8C }
  - { offset: 0x10A52E, size: 0x8, addend: 0x0, symName: __RNvMsb_NtNtNtCse1nGBsou5OW_5alloc11collections5btree8navigateINtB5_13LazyLeafRangeNtNtNtB7_4node6marker5DyingNtCs3cP53eQoTwO_11proc_macro25IdentNtNtB7_7set_val9SetValZSTE10take_frontCsjOFMLY5rhAS_14thiserror_impl, symObjAddr: 0x1648, symBinAddr: 0x48F34, symSize: 0x1C4 }
  - { offset: 0x10A8D3, size: 0x8, addend: 0x0, symName: __RNvMsb_NtNtNtCse1nGBsou5OW_5alloc11collections5btree8navigateINtB5_13LazyLeafRangeNtNtNtB7_4node6marker5DyingNtNtBb_6string6StringNtNtB7_7set_val9SetValZSTE10take_frontCsjOFMLY5rhAS_14thiserror_impl, symObjAddr: 0x180C, symBinAddr: 0x490F8, symSize: 0x1C4 }
  - { offset: 0x10AC78, size: 0x8, addend: 0x0, symName: __RNvMsb_NtNtNtCse1nGBsou5OW_5alloc11collections5btree8navigateINtB5_13LazyLeafRangeNtNtNtB7_4node6marker5DyingNtNtBb_6string6StringTINtNtB7_3set8BTreeSetB1J_EINtNtCs6IAuOt8vWmF_3syn10punctuated10PunctuatedNtCs3cP53eQoTwO_11proc_macro211TokenStreamNtNtB2A_5token4PlusEEE10take_frontCsjOFMLY5rhAS_14thiserror_impl, symObjAddr: 0x19D0, symBinAddr: 0x492BC, symSize: 0x1C4 }
  - { offset: 0x10B01D, size: 0x8, addend: 0x0, symName: __RNvMsb_NtNtNtCse1nGBsou5OW_5alloc11collections5btree8navigateINtB5_13LazyLeafRangeNtNtNtB7_4node6marker5DyingRNtCs3cP53eQoTwO_11proc_macro25IdentNtNtB7_7set_val9SetValZSTE10take_frontCsjOFMLY5rhAS_14thiserror_impl, symObjAddr: 0x1B94, symBinAddr: 0x49480, symSize: 0x1C4 }
  - { offset: 0x10B3C2, size: 0x8, addend: 0x0, symName: __RNvMsb_NtNtNtCse1nGBsou5OW_5alloc11collections5btree8navigateINtB5_13LazyLeafRangeNtNtNtB7_4node6marker5DyingTjNtNtCsjOFMLY5rhAS_14thiserror_impl4attr5TraitENtNtB7_7set_val9SetValZSTE10take_frontB1P_, symObjAddr: 0x1D58, symBinAddr: 0x49644, symSize: 0x1C4 }
  - { offset: 0x10B74B, size: 0x8, addend: 0x0, symName: __RNvMsc_NtNtNtCse1nGBsou5OW_5alloc11collections5btree8navigateINtB5_13LazyLeafRangeNtNtNtB7_4node6marker5DyingNtCs3cP53eQoTwO_11proc_macro25IdentNtNtB7_7set_val9SetValZSTE10init_frontCsjOFMLY5rhAS_14thiserror_impl, symObjAddr: 0x1F1C, symBinAddr: 0x49808, symSize: 0x1C4 }
  - { offset: 0x10BA2D, size: 0x8, addend: 0x0, symName: __RNvMsc_NtNtNtCse1nGBsou5OW_5alloc11collections5btree8navigateINtB5_13LazyLeafRangeNtNtNtB7_4node6marker5DyingNtNtBb_6string6StringNtNtB7_7set_val9SetValZSTE10init_frontCsjOFMLY5rhAS_14thiserror_impl, symObjAddr: 0x20E0, symBinAddr: 0x499CC, symSize: 0x1C4 }
  - { offset: 0x10BD0F, size: 0x8, addend: 0x0, symName: __RNvMsc_NtNtNtCse1nGBsou5OW_5alloc11collections5btree8navigateINtB5_13LazyLeafRangeNtNtNtB7_4node6marker5DyingNtNtBb_6string6StringTINtNtB7_3set8BTreeSetB1J_EINtNtCs6IAuOt8vWmF_3syn10punctuated10PunctuatedNtCs3cP53eQoTwO_11proc_macro211TokenStreamNtNtB2A_5token4PlusEEE10init_frontCsjOFMLY5rhAS_14thiserror_impl, symObjAddr: 0x22A4, symBinAddr: 0x49B90, symSize: 0x1C4 }
  - { offset: 0x10BFF1, size: 0x8, addend: 0x0, symName: __RNvMsc_NtNtNtCse1nGBsou5OW_5alloc11collections5btree8navigateINtB5_13LazyLeafRangeNtNtNtB7_4node6marker5DyingRNtCs3cP53eQoTwO_11proc_macro25IdentNtNtB7_7set_val9SetValZSTE10init_frontCsjOFMLY5rhAS_14thiserror_impl, symObjAddr: 0x2468, symBinAddr: 0x49D54, symSize: 0x1C4 }
  - { offset: 0x10C2D3, size: 0x8, addend: 0x0, symName: __RNvMsc_NtNtNtCse1nGBsou5OW_5alloc11collections5btree8navigateINtB5_13LazyLeafRangeNtNtNtB7_4node6marker5DyingTjNtNtCsjOFMLY5rhAS_14thiserror_impl4attr5TraitENtNtB7_7set_val9SetValZSTE10init_frontB1P_, symObjAddr: 0x262C, symBinAddr: 0x49F18, symSize: 0x1C4 }
  - { offset: 0x10CA3C, size: 0x8, addend: 0x0, symName: __RNvMNtCsjOFMLY5rhAS_14thiserror_impl8genericsNtB2_13ParamsInScope3new, symObjAddr: 0x33C0, symBinAddr: 0x4ACAC, symSize: 0x58 }
  - { offset: 0x10CA78, size: 0x8, addend: 0x0, symName: __RNvMNtCsjOFMLY5rhAS_14thiserror_impl8genericsNtB2_13ParamsInScope10intersects, symObjAddr: 0x3440, symBinAddr: 0x4AD2C, symSize: 0x4C }
  - { offset: 0x10CAE8, size: 0x8, addend: 0x0, symName: __RNvMs_NtCsjOFMLY5rhAS_14thiserror_impl8genericsNtB4_14InferredBounds3new, symObjAddr: 0x37A4, symBinAddr: 0x4B090, symSize: 0x8C }
  - { offset: 0x10CB08, size: 0x8, addend: 0x0, symName: __RINvMs_NtCsjOFMLY5rhAS_14thiserror_impl8genericsNtB5_14InferredBounds6insertNtCs3cP53eQoTwO_11proc_macro211TokenStreamB1c_EB7_, symObjAddr: 0x3830, symBinAddr: 0x4B11C, symSize: 0x2D8 }
  - { offset: 0x10CBC0, size: 0x8, addend: 0x0, symName: __RINvMs_NtCsjOFMLY5rhAS_14thiserror_impl8genericsNtB5_14InferredBounds6insertNtNtCs6IAuOt8vWmF_3syn5token8SelfTypeNtNtB7_4attr5TraitEB7_, symObjAddr: 0x3B08, symBinAddr: 0x4B3F4, symSize: 0x2B4 }
  - { offset: 0x10CC76, size: 0x8, addend: 0x0, symName: __RINvMs_NtCsjOFMLY5rhAS_14thiserror_impl8genericsNtB5_14InferredBounds6insertRNtNtCs6IAuOt8vWmF_3syn2ty4TypeNtCs3cP53eQoTwO_11proc_macro211TokenStreamEB7_, symObjAddr: 0x3DBC, symBinAddr: 0x4B6A8, symSize: 0x2D4 }
  - { offset: 0x10CD2E, size: 0x8, addend: 0x0, symName: __RINvMs_NtCsjOFMLY5rhAS_14thiserror_impl8genericsNtB5_14InferredBounds6insertRNtNtCs6IAuOt8vWmF_3syn2ty4TypeNtNtB7_4attr5TraitEB7_, symObjAddr: 0x4090, symBinAddr: 0x4B97C, symSize: 0x2A4 }
  - { offset: 0x10CE1C, size: 0x8, addend: 0x0, symName: __RNvMs_NtCsjOFMLY5rhAS_14thiserror_impl8genericsNtB4_14InferredBounds20augment_where_clause, symObjAddr: 0x4334, symBinAddr: 0x4BC20, symSize: 0x2BC }
  - { offset: 0x10D3FB, size: 0x8, addend: 0x0, symName: __RINvMNtCsfvfooZQ3Axs_4core6resultINtB3_6ResultNtNtCsjOFMLY5rhAS_14thiserror_impl3ast4EnumNtNtCs6IAuOt8vWmF_3syn5error5ErrorE3mapNtBK_5InputNcNtB22_4Enum0EBM_, symObjAddr: 0x0, symBinAddr: 0x4C05C, symSize: 0xDC }
  - { offset: 0x10D4C4, size: 0x8, addend: 0x0, symName: __RINvNtNtNtCs9i5KxIbZ5ph_10proc_macro6bridge6client5state3setINtNtCsfvfooZQ3Axs_4core6option6OptionNtB4_11TokenStreamENCNCINvB4_10run_clientB1y_BW_NCNCINvMs7_B4_INtB4_6ClientNtB8_11TokenStreamB2L_E7expand1NvCsjOFMLY5rhAS_14thiserror_impl12derive_errorE00E00EB3i_, symObjAddr: 0x994, symBinAddr: 0x4C9F0, symSize: 0xE8 }
  - { offset: 0x10D5A3, size: 0x8, addend: 0x0, symName: __RNCNkNvNtNtNtCs9i5KxIbZ5ph_10proc_macro6bridge6client5state12BRIDGE_STATE0s_0CsjOFMLY5rhAS_14thiserror_impl, symObjAddr: 0xF48, symBinAddr: 0x4CFA4, symSize: 0x34 }
  - { offset: 0x10DA81, size: 0x8, addend: 0x0, symName: __RNvXsV_NtCs9i5KxIbZ5ph_10proc_macro6bridgeINtNtCsfvfooZQ3Axs_4core6result6ResultINtNtBJ_6option6OptionNtNtB5_6client11TokenStreamEuEINtNtB5_3rpc6EncodeuE6encodeCsjOFMLY5rhAS_14thiserror_impl, symObjAddr: 0x25C8, symBinAddr: 0x4E624, symSize: 0x108 }
  - { offset: 0x10DB45, size: 0x8, addend: 0x0, symName: __RNvXsV_NtCs9i5KxIbZ5ph_10proc_macro6bridgeINtNtCsfvfooZQ3Axs_4core6result6ResultuNtNtB5_3rpc12PanicMessageEINtB1j_6EncodeuE6encodeCsjOFMLY5rhAS_14thiserror_impl, symObjAddr: 0x26D0, symBinAddr: 0x4E72C, symSize: 0x12C }
  - { offset: 0x10E0C9, size: 0x8, addend: 0x0, symName: __RNvXs1_NtCs3cP53eQoTwO_11proc_macro26markerNtB5_19ProcMacroAutoTraitsNtNtCsfvfooZQ3Axs_4core5clone5Clone5cloneCsjOFMLY5rhAS_14thiserror_impl, symObjAddr: 0x22C0, symBinAddr: 0x4E31C, symSize: 0x10 }
  - { offset: 0x10E68C, size: 0x8, addend: 0x0, symName: __RNvXNtCsjOFMLY5rhAS_14thiserror_impl4spanNtNtCs6IAuOt8vWmF_3syn4expr6MemberNtB2_10MemberSpan11member_span, symObjAddr: 0x3CCC, symBinAddr: 0x4FD28, symSize: 0x94 }
  - { offset: 0x10FAD1, size: 0x8, addend: 0x0, symName: __RINvXsn_NtCsfvfooZQ3Axs_4core6resultINtB6_6ResultINtNtCse1nGBsou5OW_5alloc3vec3VecNtNtCsjOFMLY5rhAS_14thiserror_impl3ast5FieldENtNtCs6IAuOt8vWmF_3syn5error5ErrorEINtNtNtNtB8_4iter6traits7collect12FromIteratorIBz_B1i_B21_EE9from_iterINtNtNtB2H_8adapters3map3MapINtNtB3N_9enumerate9EnumerateINtNtB25_10punctuated4IterNtNtB25_4data5FieldEENCNvMs2_B1k_B1i_17multiple_from_syn0EEB1m_, symObjAddr: 0xE08, symBinAddr: 0x4CE64, symSize: 0x34 }
  - { offset: 0x10FB24, size: 0x8, addend: 0x0, symName: __RINvXsn_NtCsfvfooZQ3Axs_4core6resultINtB6_6ResultINtNtCse1nGBsou5OW_5alloc3vec3VecNtNtCsjOFMLY5rhAS_14thiserror_impl3ast7VariantENtNtCs6IAuOt8vWmF_3syn5error5ErrorEINtNtNtNtB8_4iter6traits7collect12FromIteratorIBz_B1i_B23_EE9from_iterINtNtNtB2J_8adapters3map3MapINtNtB27_10punctuated4IterNtNtB27_4data7VariantENCNvMs0_B1k_NtB1k_4Enum8from_syn0EEB1m_, symObjAddr: 0xE3C, symBinAddr: 0x4CE98, symSize: 0x34 }
  - { offset: 0x10FB7C, size: 0x8, addend: 0x0, symName: __RNCINvXsn_NtCsfvfooZQ3Axs_4core6resultINtB8_6ResultINtNtCse1nGBsou5OW_5alloc3vec3VecNtNtCsjOFMLY5rhAS_14thiserror_impl3ast5FieldENtNtCs6IAuOt8vWmF_3syn5error5ErrorEINtNtNtNtBa_4iter6traits7collect12FromIteratorIBB_B1k_B23_EE9from_iterINtNtNtB2J_8adapters3map3MapINtNtB3P_9enumerate9EnumerateINtNtB27_10punctuated4IterNtNtB27_4data5FieldEENCNvMs2_B1m_B1k_17multiple_from_syn0EE0B1o_, symObjAddr: 0xEE8, symBinAddr: 0x4CF44, symSize: 0x30 }
  - { offset: 0x10FBF8, size: 0x8, addend: 0x0, symName: __RNCINvXsn_NtCsfvfooZQ3Axs_4core6resultINtB8_6ResultINtNtCse1nGBsou5OW_5alloc3vec3VecNtNtCsjOFMLY5rhAS_14thiserror_impl3ast7VariantENtNtCs6IAuOt8vWmF_3syn5error5ErrorEINtNtNtNtBa_4iter6traits7collect12FromIteratorIBB_B1k_B25_EE9from_iterINtNtNtB2L_8adapters3map3MapINtNtB29_10punctuated4IterNtNtB29_4data7VariantENCNvMs0_B1m_NtB1m_4Enum8from_syn0EE0B1o_, symObjAddr: 0xF18, symBinAddr: 0x4CF74, symSize: 0x30 }
  - { offset: 0x10FDDE, size: 0x8, addend: 0x0, symName: __RNvXso_NtCsfvfooZQ3Axs_4core6resultINtB5_6ResultINtNtB7_6option6OptionNtCs3cP53eQoTwO_11proc_macro29TokenTreeENtNtCs6IAuOt8vWmF_3syn5error5ErrorENtNtNtB7_3ops9try_trait3Try6branchCsjOFMLY5rhAS_14thiserror_impl, symObjAddr: 0x2FFC, symBinAddr: 0x4F058, symSize: 0x9C }
  - { offset: 0x10FE5B, size: 0x8, addend: 0x0, symName: __RNvXso_NtCsfvfooZQ3Axs_4core6resultINtB5_6ResultINtNtCse1nGBsou5OW_5alloc3vec3VecNtNtCsjOFMLY5rhAS_14thiserror_impl3ast5FieldENtNtCs6IAuOt8vWmF_3syn5error5ErrorENtNtNtB7_3ops9try_trait3Try11from_outputB1l_, symObjAddr: 0x3098, symBinAddr: 0x4F0F4, symSize: 0x18 }
  - { offset: 0x10FE9B, size: 0x8, addend: 0x0, symName: __RNvXso_NtCsfvfooZQ3Axs_4core6resultINtB5_6ResultINtNtCse1nGBsou5OW_5alloc3vec3VecNtNtCsjOFMLY5rhAS_14thiserror_impl3ast5FieldENtNtCs6IAuOt8vWmF_3syn5error5ErrorENtNtNtB7_3ops9try_trait3Try6branchB1l_, symObjAddr: 0x30B0, symBinAddr: 0x4F10C, symSize: 0x94 }
  - { offset: 0x10FF18, size: 0x8, addend: 0x0, symName: __RNvXso_NtCsfvfooZQ3Axs_4core6resultINtB5_6ResultINtNtCse1nGBsou5OW_5alloc3vec3VecNtNtCsjOFMLY5rhAS_14thiserror_impl3ast7VariantENtNtCs6IAuOt8vWmF_3syn5error5ErrorENtNtNtB7_3ops9try_trait3Try11from_outputB1l_, symObjAddr: 0x3144, symBinAddr: 0x4F1A0, symSize: 0x18 }
  - { offset: 0x10FF58, size: 0x8, addend: 0x0, symName: __RNvXso_NtCsfvfooZQ3Axs_4core6resultINtB5_6ResultINtNtCse1nGBsou5OW_5alloc3vec3VecNtNtCsjOFMLY5rhAS_14thiserror_impl3ast7VariantENtNtCs6IAuOt8vWmF_3syn5error5ErrorENtNtNtB7_3ops9try_trait3Try6branchB1l_, symObjAddr: 0x315C, symBinAddr: 0x4F1B8, symSize: 0x94 }
  - { offset: 0x10FFD5, size: 0x8, addend: 0x0, symName: __RNvXso_NtCsfvfooZQ3Axs_4core6resultINtB5_6ResultNtCs3cP53eQoTwO_11proc_macro29TokenTreeNtNtCs6IAuOt8vWmF_3syn5error5ErrorENtNtNtB7_3ops9try_trait3Try6branchCsjOFMLY5rhAS_14thiserror_impl, symObjAddr: 0x31F0, symBinAddr: 0x4F24C, symSize: 0x9C }
  - { offset: 0x110052, size: 0x8, addend: 0x0, symName: __RNvXso_NtCsfvfooZQ3Axs_4core6resultINtB5_6ResultNtNtCs6IAuOt8vWmF_3syn6derive11DeriveInputNtNtBO_5error5ErrorENtNtNtB7_3ops9try_trait3Try6branchCsjOFMLY5rhAS_14thiserror_impl, symObjAddr: 0x328C, symBinAddr: 0x4F2E8, symSize: 0xB4 }
  - { offset: 0x1100D0, size: 0x8, addend: 0x0, symName: __RNvXso_NtCsfvfooZQ3Axs_4core6resultINtB5_6ResultNtNtCsjOFMLY5rhAS_14thiserror_impl3ast5FieldNtNtCs6IAuOt8vWmF_3syn5error5ErrorENtNtNtB7_3ops9try_trait3Try6branchBO_, symObjAddr: 0x3340, symBinAddr: 0x4F39C, symSize: 0xCC }
  - { offset: 0x11014E, size: 0x8, addend: 0x0, symName: __RNvXso_NtCsfvfooZQ3Axs_4core6resultINtB5_6ResultNtNtCsjOFMLY5rhAS_14thiserror_impl3ast5InputNtNtCs6IAuOt8vWmF_3syn5error5ErrorENtNtNtB7_3ops9try_trait3Try6branchBO_, symObjAddr: 0x340C, symBinAddr: 0x4F468, symSize: 0xC0 }
  - { offset: 0x1101CC, size: 0x8, addend: 0x0, symName: __RNvXso_NtCsfvfooZQ3Axs_4core6resultINtB5_6ResultNtNtCsjOFMLY5rhAS_14thiserror_impl3ast7VariantNtNtCs6IAuOt8vWmF_3syn5error5ErrorENtNtNtB7_3ops9try_trait3Try6branchBO_, symObjAddr: 0x34CC, symBinAddr: 0x4F528, symSize: 0xB8 }
  - { offset: 0x11024A, size: 0x8, addend: 0x0, symName: __RNvXso_NtCsfvfooZQ3Axs_4core6resultINtB5_6ResultNtNtCsjOFMLY5rhAS_14thiserror_impl3fmt12FmtArgumentsNtNtCs6IAuOt8vWmF_3syn5error5ErrorENtNtNtB7_3ops9try_trait3Try6branchBO_, symObjAddr: 0x3584, symBinAddr: 0x4F5E0, symSize: 0x9C }
  - { offset: 0x1102C7, size: 0x8, addend: 0x0, symName: __RNvXso_NtCsfvfooZQ3Axs_4core6resultINtB5_6ResultNtNtCsjOFMLY5rhAS_14thiserror_impl4attr5AttrsNtNtCs6IAuOt8vWmF_3syn5error5ErrorENtNtNtB7_3ops9try_trait3Try6branchBO_, symObjAddr: 0x3620, symBinAddr: 0x4F67C, symSize: 0xC4 }
  - { offset: 0x110344, size: 0x8, addend: 0x0, symName: __RNvXso_NtCsfvfooZQ3Axs_4core6resultINtB5_6ResultNtNvNtCsjOFMLY5rhAS_14thiserror_impl4attr21parse_error_attribute11transparentNtNtCs6IAuOt8vWmF_3syn5error5ErrorENtNtNtB7_3ops9try_trait3Try6branchBQ_, symObjAddr: 0x36E4, symBinAddr: 0x4F740, symSize: 0x88 }
  - { offset: 0x1103C2, size: 0x8, addend: 0x0, symName: __RNvXso_NtCsfvfooZQ3Axs_4core6resultINtB5_6ResultRNtNtCs6IAuOt8vWmF_3syn4path4PathNtNtBP_5error5ErrorENtNtNtB7_3ops9try_trait3Try6branchCsjOFMLY5rhAS_14thiserror_impl, symObjAddr: 0x376C, symBinAddr: 0x4F7C8, symSize: 0x88 }
  - { offset: 0x110440, size: 0x8, addend: 0x0, symName: __RNvXso_NtCsfvfooZQ3Axs_4core6resultINtB5_6ResultTNtNvNtCsjOFMLY5rhAS_14thiserror_impl4attr21parse_error_attribute11transparentNtNtCs6IAuOt8vWmF_3syn6buffer6CursorENtNtB24_5error5ErrorENtNtNtB7_3ops9try_trait3Try6branchBR_, symObjAddr: 0x37F4, symBinAddr: 0x4F850, symSize: 0x94 }
  - { offset: 0x1104BD, size: 0x8, addend: 0x0, symName: __RNvXso_NtCsfvfooZQ3Axs_4core6resultINtB5_6ResultTbNtNtCs6IAuOt8vWmF_3syn6buffer6CursorENtNtBQ_5error5ErrorENtNtNtB7_3ops9try_trait3Try6branchCsjOFMLY5rhAS_14thiserror_impl, symObjAddr: 0x3888, symBinAddr: 0x4F8E4, symSize: 0x94 }
  - { offset: 0x110540, size: 0x8, addend: 0x0, symName: __RNvXsp_NtCsfvfooZQ3Axs_4core6resultINtB5_6ResultINtNtB7_6option6OptionNtCs3cP53eQoTwO_11proc_macro29TokenTreeENtNtCs6IAuOt8vWmF_3syn5error5ErrorEINtNtNtB7_3ops9try_trait12FromResidualIBy_NtNtB7_7convert10InfallibleB1K_EE13from_residualCsjOFMLY5rhAS_14thiserror_impl, symObjAddr: 0x391C, symBinAddr: 0x4F978, symSize: 0x48 }
  - { offset: 0x1105C5, size: 0x8, addend: 0x0, symName: __RNvXsp_NtCsfvfooZQ3Axs_4core6resultINtB5_6ResultINtNtCse1nGBsou5OW_5alloc3vec3VecNtNtCsjOFMLY5rhAS_14thiserror_impl3ast5FieldENtNtCs6IAuOt8vWmF_3syn5error5ErrorEINtNtNtB7_3ops9try_trait12FromResidualIBy_NtNtB7_7convert10InfallibleB20_EE13from_residualB1l_, symObjAddr: 0x3964, symBinAddr: 0x4F9C0, symSize: 0x48 }
  - { offset: 0x11064A, size: 0x8, addend: 0x0, symName: __RNvXsp_NtCsfvfooZQ3Axs_4core6resultINtB5_6ResultINtNtCse1nGBsou5OW_5alloc3vec3VecNtNtCsjOFMLY5rhAS_14thiserror_impl3ast7VariantENtNtCs6IAuOt8vWmF_3syn5error5ErrorEINtNtNtB7_3ops9try_trait12FromResidualIBy_NtNtB7_7convert10InfallibleB22_EE13from_residualB1l_, symObjAddr: 0x39AC, symBinAddr: 0x4FA08, symSize: 0x48 }
  - { offset: 0x1106CF, size: 0x8, addend: 0x0, symName: __RNvXsp_NtCsfvfooZQ3Axs_4core6resultINtB5_6ResultNtCs3cP53eQoTwO_11proc_macro25IdentNtNtCs6IAuOt8vWmF_3syn5error5ErrorEINtNtNtB7_3ops9try_trait12FromResidualIBy_NtNtB7_7convert10InfallibleNtBM_8LexErrorEE13from_residualCsjOFMLY5rhAS_14thiserror_impl, symObjAddr: 0x39F4, symBinAddr: 0x4FA50, symSize: 0x4C }
  - { offset: 0x110736, size: 0x8, addend: 0x0, symName: __RNvXsp_NtCsfvfooZQ3Axs_4core6resultINtB5_6ResultNtNtCsjOFMLY5rhAS_14thiserror_impl3ast4EnumNtNtCs6IAuOt8vWmF_3syn5error5ErrorEINtNtNtB7_3ops9try_trait12FromResidualIBy_NtNtB7_7convert10InfallibleB1r_EE13from_residualBO_, symObjAddr: 0x3A40, symBinAddr: 0x4FA9C, symSize: 0x48 }
  - { offset: 0x1107BB, size: 0x8, addend: 0x0, symName: __RNvXsp_NtCsfvfooZQ3Axs_4core6resultINtB5_6ResultNtNtCsjOFMLY5rhAS_14thiserror_impl3ast5FieldNtNtCs6IAuOt8vWmF_3syn5error5ErrorEINtNtNtB7_3ops9try_trait12FromResidualIBy_NtNtB7_7convert10InfallibleB1s_EE13from_residualBO_, symObjAddr: 0x3A88, symBinAddr: 0x4FAE4, symSize: 0x4C }
  - { offset: 0x110840, size: 0x8, addend: 0x0, symName: __RNvXsp_NtCsfvfooZQ3Axs_4core6resultINtB5_6ResultNtNtCsjOFMLY5rhAS_14thiserror_impl3ast6StructNtNtCs6IAuOt8vWmF_3syn5error5ErrorEINtNtNtB7_3ops9try_trait12FromResidualIBy_NtNtB7_7convert10InfallibleB1t_EE13from_residualBO_, symObjAddr: 0x3AD4, symBinAddr: 0x4FB30, symSize: 0x48 }
  - { offset: 0x1108C5, size: 0x8, addend: 0x0, symName: __RNvXsp_NtCsfvfooZQ3Axs_4core6resultINtB5_6ResultNtNtCsjOFMLY5rhAS_14thiserror_impl3ast7VariantNtNtCs6IAuOt8vWmF_3syn5error5ErrorEINtNtNtB7_3ops9try_trait12FromResidualIBy_NtNtB7_7convert10InfallibleB1u_EE13from_residualBO_, symObjAddr: 0x3B1C, symBinAddr: 0x4FB78, symSize: 0x48 }
  - { offset: 0x11094A, size: 0x8, addend: 0x0, symName: __RNvXsp_NtCsfvfooZQ3Axs_4core6resultINtB5_6ResultNtNtCsjOFMLY5rhAS_14thiserror_impl3fmt12FmtArgumentsNtNtCs6IAuOt8vWmF_3syn5error5ErrorEINtNtNtB7_3ops9try_trait12FromResidualIBy_NtNtB7_7convert10InfallibleB1A_EE13from_residualBO_, symObjAddr: 0x3B64, symBinAddr: 0x4FBC0, symSize: 0x48 }
  - { offset: 0x1109CF, size: 0x8, addend: 0x0, symName: __RNvXsp_NtCsfvfooZQ3Axs_4core6resultINtB5_6ResultNtNtCsjOFMLY5rhAS_14thiserror_impl4attr5AttrsNtNtCs6IAuOt8vWmF_3syn5error5ErrorEINtNtNtB7_3ops9try_trait12FromResidualIBy_NtNtB7_7convert10InfallibleB1t_EE13from_residualBO_, symObjAddr: 0x3BAC, symBinAddr: 0x4FC08, symSize: 0x4C }
  - { offset: 0x110A54, size: 0x8, addend: 0x0, symName: __RNvXsp_NtCsfvfooZQ3Axs_4core6resultINtB5_6ResultNtNvNtCsjOFMLY5rhAS_14thiserror_impl4attr21parse_error_attribute11transparentNtNtCs6IAuOt8vWmF_3syn5error5ErrorEINtNtNtB7_3ops9try_trait12FromResidualIBy_NtNtB7_7convert10InfallibleB1Z_EE13from_residualBQ_, symObjAddr: 0x3BF8, symBinAddr: 0x4FC54, symSize: 0x40 }
  - { offset: 0x114A11, size: 0x8, addend: 0x0, symName: __RNCNvMs3_NtNtNtCsfvfooZQ3Axs_4core4iter8adapters8peekableINtB7_8PeekableINtNtB9_3map3MapINtNtNtBd_5slice4iter4IterNtNtCsjOFMLY5rhAS_14thiserror_impl3ast5FieldENCNvNtB1S_6expand10fields_pat0EE4peek0B1S_, symObjAddr: 0xF7C, symBinAddr: 0x4CFD8, symSize: 0x24 }
  - { offset: 0x114A48, size: 0x8, addend: 0x0, symName: __RNCNvMs3_NtNtNtCsfvfooZQ3Axs_4core4iter8adapters8peekableINtB7_8PeekableINtNtB9_3map3MapINtNtNtCse1nGBsou5OW_5alloc3vec9into_iter8IntoIterRNtCs3cP53eQoTwO_11proc_macro25IdentENCINvMse_NtNtNtB1v_11collections5btree3setINtB2W_8BTreeSetB2c_E16from_sorted_iterB1o_E0EE4peek0CsjOFMLY5rhAS_14thiserror_impl, symObjAddr: 0xFA0, symBinAddr: 0x4CFFC, symSize: 0x24 }
  - { offset: 0x114A86, size: 0x8, addend: 0x0, symName: __RNvXs_NtNtNtCsfvfooZQ3Axs_4core4iter8adapters8peekableINtB4_8PeekableINtNtB6_3map3MapINtNtNtBa_5slice4iter4IterNtNtCsjOFMLY5rhAS_14thiserror_impl3ast5FieldENCNvNtB1P_6expand10fields_pat0EENtNtNtB8_6traits8iterator8Iterator4nextB1P_, symObjAddr: 0x298C, symBinAddr: 0x4E9E8, symSize: 0x84 }
  - { offset: 0x114B61, size: 0x8, addend: 0x0, symName: __RINvYINtNtNtNtCsfvfooZQ3Axs_4core4iter8adapters8peekable8PeekableINtNtB8_3map3MapINtNtNtBc_5slice4iter4IterNtNtCsjOFMLY5rhAS_14thiserror_impl3ast5FieldENCNvNtB1L_6expand10fields_pat0EENtNtNtBa_6traits8iterator8Iterator3mapNtCs3cP53eQoTwO_11proc_macro25IdentNCB2s_s_0EB1L_, symObjAddr: 0xE70, symBinAddr: 0x4CECC, symSize: 0x1C }
  - { offset: 0x1150CE, size: 0x8, addend: 0x0, symName: __RINvXs3_NtNtCsfvfooZQ3Axs_4core4hash5implsRNtNtCs6IAuOt8vWmF_3syn4expr6MemberNtB8_4Hash4hashNtNtNtCscOYdFFY2T5N_3std4hash6random13DefaultHasherECsjOFMLY5rhAS_14thiserror_impl, symObjAddr: 0xA7C, symBinAddr: 0x4CAD8, symSize: 0x30 }
  - { offset: 0x115119, size: 0x8, addend: 0x0, symName: __RINvXs3_NtNtCsfvfooZQ3Axs_4core4hash5implsRRNtNtCs6IAuOt8vWmF_3syn4expr6MemberNtB8_4Hash4hashNtNtNtCscOYdFFY2T5N_3std4hash6random13DefaultHasherECsjOFMLY5rhAS_14thiserror_impl, symObjAddr: 0xAAC, symBinAddr: 0x4CB08, symSize: 0x30 }
  - { offset: 0x1152F2, size: 0x8, addend: 0x0, symName: __RNvXs7_NtNtCsfvfooZQ3Axs_4core3cmp5implsRNtNtCs6IAuOt8vWmF_3syn4expr6MemberNtB7_9PartialEq2eqCsjOFMLY5rhAS_14thiserror_impl, symObjAddr: 0x2488, symBinAddr: 0x4E4E4, symSize: 0x34 }
  - { offset: 0x1153EA, size: 0x8, addend: 0x0, symName: __RNvXNtCsfvfooZQ3Axs_4core6borrowRNtNtCs6IAuOt8vWmF_3syn4expr6MemberINtB2_6BorrowBu_E6borrowCsjOFMLY5rhAS_14thiserror_impl, symObjAddr: 0x1B18, symBinAddr: 0x4DB74, symSize: 0x14 }
  - { offset: 0x115425, size: 0x8, addend: 0x0, symName: __RNvXs0_NtCsfvfooZQ3Axs_4core6borrowRNtNtCs6IAuOt8vWmF_3syn4expr6MemberINtB5_6BorrowBy_E6borrowCsjOFMLY5rhAS_14thiserror_impl, symObjAddr: 0x22A8, symBinAddr: 0x4E304, symSize: 0x18 }
  - { offset: 0x115470, size: 0x8, addend: 0x0, symName: __RNvXs2_NtNtNtCsfvfooZQ3Axs_4core3ops8function5implsQNCINvMse_NtNtNtCse1nGBsou5OW_5alloc11collections5btree3setINtBX_8BTreeSetRNtCs3cP53eQoTwO_11proc_macro25IdentE16from_sorted_iterINtNtNtB13_3vec9into_iter8IntoIterB1Z_EE0INtB7_6FnOnceTB1Z_EE9call_onceCsjOFMLY5rhAS_14thiserror_impl, symObjAddr: 0x2328, symBinAddr: 0x4E384, symSize: 0x2C }
  - { offset: 0x115BEC, size: 0x8, addend: 0x0, symName: __RNvXsf_NtCsfvfooZQ3Axs_4core5tupleTINtNtNtNtCse1nGBsou5OW_5alloc11collections5btree3set8BTreeSetNtNtBG_6string6StringEINtNtCs6IAuOt8vWmF_3syn10punctuated10PunctuatedNtCs3cP53eQoTwO_11proc_macro211TokenStreamNtNtB1X_5token4PlusEENtNtB7_7default7Default7defaultCsjOFMLY5rhAS_14thiserror_impl, symObjAddr: 0x2DD8, symBinAddr: 0x4EE34, symSize: 0x8C }
  - { offset: 0x1181DC, size: 0x8, addend: 0x0, symName: __RINvXs4_NtCs6IAuOt8vWmF_3syn4exprNtB6_6MemberNtNtCsfvfooZQ3Axs_4core4hash4Hash4hashNtNtNtCscOYdFFY2T5N_3std4hash6random13DefaultHasherECsjOFMLY5rhAS_14thiserror_impl, symObjAddr: 0xADC, symBinAddr: 0x4CB38, symSize: 0x98 }
  - { offset: 0x118258, size: 0x8, addend: 0x0, symName: __RINvXsa_NtCs6IAuOt8vWmF_3syn4exprNtB6_5IndexNtNtCsfvfooZQ3Axs_4core4hash4Hash4hashNtNtNtCscOYdFFY2T5N_3std4hash6random13DefaultHasherECsjOFMLY5rhAS_14thiserror_impl, symObjAddr: 0xB74, symBinAddr: 0x4CBD0, symSize: 0x3C }
  - { offset: 0x1182A5, size: 0x8, addend: 0x0, symName: __RNcNtNtNtCs6IAuOt8vWmF_3syn4expr6Member5Named0CsjOFMLY5rhAS_14thiserror_impl, symObjAddr: 0xFC4, symBinAddr: 0x4D020, symSize: 0x18 }
  - { offset: 0x11BE43, size: 0x8, addend: 0x0, symName: __RINvXsd_NtCse1nGBsou5OW_5alloc3vecINtB6_3VecNtCs3cP53eQoTwO_11proc_macro211TokenStreamEINtNtNtNtCsfvfooZQ3Axs_4core4iter6traits7collect12FromIteratorBG_E9from_iterINtNtNtB1u_8adapters3map3MapINtNtNtB1w_5slice4iter4IterNtNtCsjOFMLY5rhAS_14thiserror_impl3ast7VariantENCNvNtB3y_6expand9impl_enums1_0EEB3y_, symObjAddr: 0xBB0, symBinAddr: 0x4CC0C, symSize: 0x3C }
  - { offset: 0x11BE84, size: 0x8, addend: 0x0, symName: __RINvXsd_NtCse1nGBsou5OW_5alloc3vecINtB6_3VecNtNtCsjOFMLY5rhAS_14thiserror_impl3ast5FieldEINtNtNtNtCsfvfooZQ3Axs_4core4iter6traits7collect12FromIteratorBG_E9from_iterINtNtB1w_8adapters12GenericShuntINtNtB2G_3map3MapINtNtB2G_9enumerate9EnumerateINtNtCs6IAuOt8vWmF_3syn10punctuated4IterNtNtB3Y_4data5FieldEENCNvMs2_BI_BG_17multiple_from_syn0EINtNtB1y_6result6ResultNtNtB1y_7convert10InfallibleNtNtB3Y_5error5ErrorEEEBK_, symObjAddr: 0xBEC, symBinAddr: 0x4CC48, symSize: 0x3C }
  - { offset: 0x11BEC5, size: 0x8, addend: 0x0, symName: __RINvXsd_NtCse1nGBsou5OW_5alloc3vecINtB6_3VecNtNtCsjOFMLY5rhAS_14thiserror_impl3ast7VariantEINtNtNtNtCsfvfooZQ3Axs_4core4iter6traits7collect12FromIteratorBG_E9from_iterINtNtB1y_8adapters12GenericShuntINtNtB2I_3map3MapINtNtCs6IAuOt8vWmF_3syn10punctuated4IterNtNtB3x_4data7VariantENCNvMs0_BI_NtBI_4Enum8from_syn0EINtNtB1A_6result6ResultNtNtB1A_7convert10InfallibleNtNtB3x_5error5ErrorEEEBK_, symObjAddr: 0xC28, symBinAddr: 0x4CC84, symSize: 0x3C }
  - { offset: 0x11BF06, size: 0x8, addend: 0x0, symName: __RINvXsd_NtCse1nGBsou5OW_5alloc3vecINtB6_3VecRNtCs3cP53eQoTwO_11proc_macro25IdentEINtNtNtNtCsfvfooZQ3Axs_4core4iter6traits7collect12FromIteratorBG_E9from_iterINtNtNtB1o_8adapters3map3MapNtNtCs6IAuOt8vWmF_3syn8generics10TypeParamsNCNvMNtCsjOFMLY5rhAS_14thiserror_impl8genericsNtB3J_13ParamsInScope3new0EEB3L_, symObjAddr: 0xC64, symBinAddr: 0x4CCC0, symSize: 0x40 }
  - { offset: 0x11BF87, size: 0x8, addend: 0x0, symName: __RNCINvMsi_NtCse1nGBsou5OW_5alloc3vecINtB8_3VecNtCs3cP53eQoTwO_11proc_macro211TokenStreamE14extend_trustedINtNtNtNtCsfvfooZQ3Axs_4core4iter8adapters3map3MapINtNtNtB1O_5slice4iter4IterNtNtCsjOFMLY5rhAS_14thiserror_impl3ast7VariantENCNvNtB2Y_6expand9impl_enums1_0EE0B2Y_, symObjAddr: 0xEAC, symBinAddr: 0x4CF08, symSize: 0x3C }
  - { offset: 0x11C048, size: 0x8, addend: 0x0, symName: __RNvXNtNtCse1nGBsou5OW_5alloc3vec11spec_extendINtB4_3VecNtNtCsjOFMLY5rhAS_14thiserror_impl3ast5FieldEINtB2_10SpecExtendBR_INtNtNtCsfvfooZQ3Axs_4core4iter8adapters12GenericShuntINtNtB1Y_3map3MapINtNtB1Y_9enumerate9EnumerateINtNtCs6IAuOt8vWmF_3syn10punctuated4IterNtNtB3C_4data5FieldEENCNvMs2_BT_BR_17multiple_from_syn0EINtNtB22_6result6ResultNtNtB22_7convert10InfallibleNtNtB3C_5error5ErrorEEE11spec_extendBV_, symObjAddr: 0x1B2C, symBinAddr: 0x4DB88, symSize: 0x24 }
  - { offset: 0x11C09A, size: 0x8, addend: 0x0, symName: __RNvXNtNtCse1nGBsou5OW_5alloc3vec11spec_extendINtB4_3VecNtNtCsjOFMLY5rhAS_14thiserror_impl3ast7VariantEINtB2_10SpecExtendBR_INtNtNtCsfvfooZQ3Axs_4core4iter8adapters12GenericShuntINtNtB20_3map3MapINtNtCs6IAuOt8vWmF_3syn10punctuated4IterNtNtB3b_4data7VariantENCNvMs0_BT_NtBT_4Enum8from_syn0EINtNtB24_6result6ResultNtNtB24_7convert10InfallibleNtNtB3b_5error5ErrorEEE11spec_extendBV_, symObjAddr: 0x1B50, symBinAddr: 0x4DBAC, symSize: 0x24 }
  - { offset: 0x11C0EC, size: 0x8, addend: 0x0, symName: __RNvXNtNtCse1nGBsou5OW_5alloc3vec11spec_extendINtB4_3VecRNtCs3cP53eQoTwO_11proc_macro25IdentEINtB2_10SpecExtendBR_INtNtNtNtCsfvfooZQ3Axs_4core4iter8adapters3map3MapNtNtCs6IAuOt8vWmF_3syn8generics10TypeParamsNCNvMNtCsjOFMLY5rhAS_14thiserror_impl8genericsNtB3n_13ParamsInScope3new0EE11spec_extendB3p_, symObjAddr: 0x1B74, symBinAddr: 0x4DBD0, symSize: 0x34 }
  - { offset: 0x11C143, size: 0x8, addend: 0x0, symName: __RNvXs_NtNtCse1nGBsou5OW_5alloc3vec11spec_extendINtB6_3VecNtCs3cP53eQoTwO_11proc_macro211TokenStreamEINtB4_10SpecExtendBT_INtNtNtNtCsfvfooZQ3Axs_4core4iter8adapters3map3MapINtNtNtB24_5slice4iter4IterNtNtCsjOFMLY5rhAS_14thiserror_impl3ast7VariantENCNvNtB3e_6expand9impl_enums1_0EE11spec_extendB3e_, symObjAddr: 0x27FC, symBinAddr: 0x4E858, symSize: 0x24 }
  - { offset: 0x11C1A1, size: 0x8, addend: 0x0, symName: __RNvXNtNtCse1nGBsou5OW_5alloc3vec14spec_from_iterINtB4_3VecNtCs3cP53eQoTwO_11proc_macro211TokenStreamEINtB2_12SpecFromIterBU_INtNtNtNtCsfvfooZQ3Axs_4core4iter8adapters3map3MapINtNtNtB27_5slice4iter4IterNtNtCsjOFMLY5rhAS_14thiserror_impl3ast7VariantENCNvNtB3h_6expand9impl_enums1_0EE9from_iterB3h_, symObjAddr: 0x1BA8, symBinAddr: 0x4DC04, symSize: 0x14 }
  - { offset: 0x11C1E0, size: 0x8, addend: 0x0, symName: __RNvXNtNtCse1nGBsou5OW_5alloc3vec14spec_from_iterINtB4_3VecNtNtCsjOFMLY5rhAS_14thiserror_impl3ast5FieldEINtB2_12SpecFromIterBU_INtNtNtCsfvfooZQ3Axs_4core4iter8adapters12GenericShuntINtNtB23_3map3MapINtNtB23_9enumerate9EnumerateINtNtCs6IAuOt8vWmF_3syn10punctuated4IterNtNtB3H_4data5FieldEENCNvMs2_BW_BU_17multiple_from_syn0EINtNtB27_6result6ResultNtNtB27_7convert10InfallibleNtNtB3H_5error5ErrorEEE9from_iterBY_, symObjAddr: 0x1BBC, symBinAddr: 0x4DC18, symSize: 0x14 }
  - { offset: 0x11C21F, size: 0x8, addend: 0x0, symName: __RNvXNtNtCse1nGBsou5OW_5alloc3vec14spec_from_iterINtB4_3VecNtNtCsjOFMLY5rhAS_14thiserror_impl3ast7VariantEINtB2_12SpecFromIterBU_INtNtNtCsfvfooZQ3Axs_4core4iter8adapters12GenericShuntINtNtB25_3map3MapINtNtCs6IAuOt8vWmF_3syn10punctuated4IterNtNtB3g_4data7VariantENCNvMs0_BW_NtBW_4Enum8from_syn0EINtNtB29_6result6ResultNtNtB29_7convert10InfallibleNtNtB3g_5error5ErrorEEE9from_iterBY_, symObjAddr: 0x1BD0, symBinAddr: 0x4DC2C, symSize: 0x14 }
  - { offset: 0x11C25E, size: 0x8, addend: 0x0, symName: __RNvXNtNtCse1nGBsou5OW_5alloc3vec14spec_from_iterINtB4_3VecRNtCs3cP53eQoTwO_11proc_macro25IdentEINtB2_12SpecFromIterBU_INtNtNtNtCsfvfooZQ3Axs_4core4iter8adapters3map3MapNtNtCs6IAuOt8vWmF_3syn8generics10TypeParamsNCNvMNtCsjOFMLY5rhAS_14thiserror_impl8genericsNtB3s_13ParamsInScope3new0EE9from_iterB3u_, symObjAddr: 0x1BE4, symBinAddr: 0x4DC40, symSize: 0x2C }
  - { offset: 0x11C2A8, size: 0x8, addend: 0x0, symName: __RNvXNtNtCse1nGBsou5OW_5alloc3vec21spec_from_iter_nestedINtB4_3VecNtNtCsjOFMLY5rhAS_14thiserror_impl3ast5FieldEINtB2_18SpecFromIterNestedB11_INtNtNtCsfvfooZQ3Axs_4core4iter8adapters12GenericShuntINtNtB2h_3map3MapINtNtB2h_9enumerate9EnumerateINtNtCs6IAuOt8vWmF_3syn10punctuated4IterNtNtB3V_4data5FieldEENCNvMs2_B13_B11_17multiple_from_syn0EINtNtB2l_6result6ResultNtNtB2l_7convert10InfallibleNtNtB3V_5error5ErrorEEE9from_iterB15_, symObjAddr: 0x1C10, symBinAddr: 0x4DC6C, symSize: 0x24C }
  - { offset: 0x11C4C7, size: 0x8, addend: 0x0, symName: __RNvXNtNtCse1nGBsou5OW_5alloc3vec21spec_from_iter_nestedINtB4_3VecNtNtCsjOFMLY5rhAS_14thiserror_impl3ast7VariantEINtB2_18SpecFromIterNestedB11_INtNtNtCsfvfooZQ3Axs_4core4iter8adapters12GenericShuntINtNtB2j_3map3MapINtNtCs6IAuOt8vWmF_3syn10punctuated4IterNtNtB3u_4data7VariantENCNvMs0_B13_NtB13_4Enum8from_syn0EINtNtB2n_6result6ResultNtNtB2n_7convert10InfallibleNtNtB3u_5error5ErrorEEE9from_iterB15_, symObjAddr: 0x1E5C, symBinAddr: 0x4DEB8, symSize: 0x248 }
  - { offset: 0x11C6E6, size: 0x8, addend: 0x0, symName: __RNvXNtNtCse1nGBsou5OW_5alloc3vec21spec_from_iter_nestedINtB4_3VecRNtCs3cP53eQoTwO_11proc_macro25IdentEINtB2_18SpecFromIterNestedB11_INtNtNtNtCsfvfooZQ3Axs_4core4iter8adapters3map3MapNtNtCs6IAuOt8vWmF_3syn8generics10TypeParamsNCNvMNtCsjOFMLY5rhAS_14thiserror_impl8genericsNtB3G_13ParamsInScope3new0EE9from_iterB3I_, symObjAddr: 0x20A4, symBinAddr: 0x4E100, symSize: 0x204 }
  - { offset: 0x11C90A, size: 0x8, addend: 0x0, symName: __RNvXs_NtNtCse1nGBsou5OW_5alloc3vec21spec_from_iter_nestedINtB6_3VecNtCs3cP53eQoTwO_11proc_macro211TokenStreamEINtB4_18SpecFromIterNestedB13_INtNtNtNtCsfvfooZQ3Axs_4core4iter8adapters3map3MapINtNtNtB2n_5slice4iter4IterNtNtCsjOFMLY5rhAS_14thiserror_impl3ast7VariantENCNvNtB3x_6expand9impl_enums1_0EE9from_iterB3x_, symObjAddr: 0x2820, symBinAddr: 0x4E87C, symSize: 0x16C }
  - { offset: 0x11C9E8, size: 0x8, addend: 0x0, symName: __RNvXs6_NtCse1nGBsou5OW_5alloc3vecINtB5_3VecNtCs3cP53eQoTwO_11proc_macro211TokenStreamENtNtNtCsfvfooZQ3Axs_4core3ops5deref5Deref5derefCsjOFMLY5rhAS_14thiserror_impl, symObjAddr: 0x23F8, symBinAddr: 0x4E454, symSize: 0x24 }
  - { offset: 0x11CA28, size: 0x8, addend: 0x0, symName: __RNvXs6_NtCse1nGBsou5OW_5alloc3vecINtB5_3VecNtNtCsjOFMLY5rhAS_14thiserror_impl3ast5FieldENtNtNtCsfvfooZQ3Axs_4core3ops5deref5Deref5derefBJ_, symObjAddr: 0x241C, symBinAddr: 0x4E478, symSize: 0x24 }
  - { offset: 0x11CA68, size: 0x8, addend: 0x0, symName: __RNvXs6_NtCse1nGBsou5OW_5alloc3vecINtB5_3VecNtNtCsjOFMLY5rhAS_14thiserror_impl3ast7VariantENtNtNtCsfvfooZQ3Axs_4core3ops5deref5Deref5derefBJ_, symObjAddr: 0x2440, symBinAddr: 0x4E49C, symSize: 0x24 }
  - { offset: 0x11CAA8, size: 0x8, addend: 0x0, symName: __RNvXs6_NtCse1nGBsou5OW_5alloc3vecINtB5_3VecTNtCs3cP53eQoTwO_11proc_macro211TokenStreamNtNtCs6IAuOt8vWmF_3syn5token4PlusEENtNtNtCsfvfooZQ3Axs_4core3ops5deref5Deref5derefCsjOFMLY5rhAS_14thiserror_impl, symObjAddr: 0x2464, symBinAddr: 0x4E4C0, symSize: 0x24 }
  - { offset: 0x11CBDE, size: 0x8, addend: 0x0, symName: __RNvXsb_NtCse1nGBsou5OW_5alloc3vecINtB5_3VecNtNtCsjOFMLY5rhAS_14thiserror_impl3ast5FieldEINtNtNtCsfvfooZQ3Axs_4core3ops5index5IndexjE5indexBJ_, symObjAddr: 0x2A10, symBinAddr: 0x4EA6C, symSize: 0x84 }
  - { offset: 0x11CD60, size: 0x8, addend: 0x0, symName: __RNvXsb_NtCse1nGBsou5OW_5alloc3vecINtB5_3VecTNtNtCs6IAuOt8vWmF_3syn4path15GenericArgumentNtNtBK_5token5CommaEEINtNtNtCsfvfooZQ3Axs_4core3ops5index5IndexjE5indexCsjOFMLY5rhAS_14thiserror_impl, symObjAddr: 0x2A94, symBinAddr: 0x4EAF0, symSize: 0x84 }
  - { offset: 0x11CEE8, size: 0x8, addend: 0x0, symName: __RNvXse_NtCse1nGBsou5OW_5alloc3vecINtB5_3VecRNtCs3cP53eQoTwO_11proc_macro25IdentENtNtNtNtCsfvfooZQ3Axs_4core4iter6traits7collect12IntoIterator9into_iterCsjOFMLY5rhAS_14thiserror_impl, symObjAddr: 0x2B18, symBinAddr: 0x4EB74, symSize: 0xDC }
  - { offset: 0x11D180, size: 0x8, addend: 0x0, symName: __RNvXsf_NtCse1nGBsou5OW_5alloc3vecRINtB5_3VecNtCs3cP53eQoTwO_11proc_macro211TokenStreamENtNtNtNtCsfvfooZQ3Axs_4core4iter6traits7collect12IntoIterator9into_iterCsjOFMLY5rhAS_14thiserror_impl, symObjAddr: 0x2BF4, symBinAddr: 0x4EC50, symSize: 0x9C }
  - { offset: 0x11D3DC, size: 0x8, addend: 0x0, symName: __RNvXsf_NtCse1nGBsou5OW_5alloc3vecRINtB5_3VecNtNtCsjOFMLY5rhAS_14thiserror_impl3ast5FieldENtNtNtNtCsfvfooZQ3Axs_4core4iter6traits7collect12IntoIterator9into_iterBK_, symObjAddr: 0x2C90, symBinAddr: 0x4ECEC, symSize: 0xA4 }
  - { offset: 0x11D638, size: 0x8, addend: 0x0, symName: __RNvXsf_NtCse1nGBsou5OW_5alloc3vecRINtB5_3VecNtNtCsjOFMLY5rhAS_14thiserror_impl3ast7VariantENtNtNtNtCsfvfooZQ3Axs_4core4iter6traits7collect12IntoIterator9into_iterBK_, symObjAddr: 0x2D34, symBinAddr: 0x4ED90, symSize: 0xA4 }
  - { offset: 0x11D89A, size: 0x8, addend: 0x0, symName: __RNvXsn_NtCse1nGBsou5OW_5alloc3vecINtB5_3VecNtCs3cP53eQoTwO_11proc_macro211TokenStreamENtNtNtCsfvfooZQ3Axs_4core3ops4drop4Drop4dropCsjOFMLY5rhAS_14thiserror_impl, symObjAddr: 0x2EB8, symBinAddr: 0x4EF14, symSize: 0x38 }
  - { offset: 0x11D94A, size: 0x8, addend: 0x0, symName: __RNvXsn_NtCse1nGBsou5OW_5alloc3vecINtB5_3VecNtNtCsjOFMLY5rhAS_14thiserror_impl3ast5FieldENtNtNtCsfvfooZQ3Axs_4core3ops4drop4Drop4dropBJ_, symObjAddr: 0x2EF0, symBinAddr: 0x4EF4C, symSize: 0x38 }
  - { offset: 0x11D9FA, size: 0x8, addend: 0x0, symName: __RNvXsn_NtCse1nGBsou5OW_5alloc3vecINtB5_3VecNtNtCsjOFMLY5rhAS_14thiserror_impl3ast7VariantENtNtNtCsfvfooZQ3Axs_4core3ops4drop4Drop4dropBJ_, symObjAddr: 0x2F28, symBinAddr: 0x4EF84, symSize: 0x38 }
  - { offset: 0x11DAAA, size: 0x8, addend: 0x0, symName: __RNvXsn_NtCse1nGBsou5OW_5alloc3vecINtB5_3VecRNtCs3cP53eQoTwO_11proc_macro25IdentENtNtNtCsfvfooZQ3Axs_4core3ops4drop4Drop4dropCsjOFMLY5rhAS_14thiserror_impl, symObjAddr: 0x2F60, symBinAddr: 0x4EFBC, symSize: 0x24 }
  - { offset: 0x11DB5A, size: 0x8, addend: 0x0, symName: __RNvXsn_NtCse1nGBsou5OW_5alloc3vecINtB5_3VecTNtCs3cP53eQoTwO_11proc_macro211TokenStreamNtNtCs6IAuOt8vWmF_3syn5token4PlusEENtNtNtCsfvfooZQ3Axs_4core3ops4drop4Drop4dropCsjOFMLY5rhAS_14thiserror_impl, symObjAddr: 0x2F84, symBinAddr: 0x4EFE0, symSize: 0x38 }
  - { offset: 0x11EA97, size: 0x8, addend: 0x0, symName: __RINvXsd_NtNtNtCse1nGBsou5OW_5alloc11collections5btree3setINtB6_8BTreeSetRNtCs3cP53eQoTwO_11proc_macro25IdentEINtNtNtNtCsfvfooZQ3Axs_4core4iter6traits7collect12FromIteratorB18_E9from_iterINtNtNtB1Q_8adapters3map3MapNtNtCs6IAuOt8vWmF_3syn8generics10TypeParamsNCNvMNtCsjOFMLY5rhAS_14thiserror_impl8genericsNtB4c_13ParamsInScope3new0EEB4e_, symObjAddr: 0xCA4, symBinAddr: 0x4CD00, symSize: 0x164 }
  - { offset: 0x11EC41, size: 0x8, addend: 0x0, symName: __RNCINvMse_NtNtNtCse1nGBsou5OW_5alloc11collections5btree3setINtB8_8BTreeSetRNtCs3cP53eQoTwO_11proc_macro25IdentE16from_sorted_iterINtNtNtBe_3vec9into_iter8IntoIterB1a_EE0CsjOFMLY5rhAS_14thiserror_impl, symObjAddr: 0xE8C, symBinAddr: 0x4CEE8, symSize: 0x20 }
  - { offset: 0x11ED11, size: 0x8, addend: 0x0, symName: __RNvXs3_NtNtNtCse1nGBsou5OW_5alloc11collections5btree3setINtB5_8BTreeSetTjNtNtCsjOFMLY5rhAS_14thiserror_impl4attr5TraitEENtNtCsfvfooZQ3Axs_4core5clone5Clone10clone_fromB1d_, symObjAddr: 0x2354, symBinAddr: 0x4E3B0, symSize: 0x2C }
  - { offset: 0x11ED59, size: 0x8, addend: 0x0, symName: __RNvXs3_NtNtNtCse1nGBsou5OW_5alloc11collections5btree3setINtB5_8BTreeSetTjNtNtCsjOFMLY5rhAS_14thiserror_impl4attr5TraitEENtNtCsfvfooZQ3Axs_4core5clone5Clone5cloneB1d_, symObjAddr: 0x2380, symBinAddr: 0x4E3DC, symSize: 0x40 }
  - { offset: 0x11ED9D, size: 0x8, addend: 0x0, symName: __RNvXsg_NtNtNtCse1nGBsou5OW_5alloc11collections5btree3setINtB5_8BTreeSetTjNtNtCsjOFMLY5rhAS_14thiserror_impl4attr5TraitEENtNtNtNtCsfvfooZQ3Axs_4core4iter6traits7collect12IntoIterator9into_iterB1d_, symObjAddr: 0x2E64, symBinAddr: 0x4EEC0, symSize: 0x54 }
  - { offset: 0x11EDE4, size: 0x8, addend: 0x0, symName: __RNvXsn_NtNtNtCse1nGBsou5OW_5alloc11collections5btree3setINtB5_8BTreeSetNtNtBb_6string6StringENtNtCsfvfooZQ3Axs_4core7default7Default7defaultCsjOFMLY5rhAS_14thiserror_impl, symObjAddr: 0x2FBC, symBinAddr: 0x4F018, symSize: 0x40 }
  - { offset: 0x11EE4A, size: 0x8, addend: 0x0, symName: __RNvXsy_NtNtNtCse1nGBsou5OW_5alloc11collections5btree3setINtB5_8IntoIterTjNtNtCsjOFMLY5rhAS_14thiserror_impl4attr5TraitEENtNtNtNtCsfvfooZQ3Axs_4core4iter6traits8iterator8Iterator4nextB1d_, symObjAddr: 0x3C38, symBinAddr: 0x4FC94, symSize: 0x70 }
  - { offset: 0x11F839, size: 0x8, addend: 0x0, symName: __RNvXs8_NtCse1nGBsou5OW_5alloc5sliceINtNtB7_3vec3VecRNtCs3cP53eQoTwO_11proc_macro25IdentEINtNtNtNtCsfvfooZQ3Axs_4core5slice4sort6stable8BufGuardBN_E13with_capacityCsjOFMLY5rhAS_14thiserror_impl, symObjAddr: 0x24BC, symBinAddr: 0x4E518, symSize: 0x48 }
  - { offset: 0x11F8DA, size: 0x8, addend: 0x0, symName: __RNvXs8_NtCse1nGBsou5OW_5alloc5sliceINtNtB7_3vec3VecRNtCs3cP53eQoTwO_11proc_macro25IdentEINtNtNtNtCsfvfooZQ3Axs_4core5slice4sort6stable8BufGuardBN_E19as_uninit_slice_mutCsjOFMLY5rhAS_14thiserror_impl, symObjAddr: 0x2504, symBinAddr: 0x4E560, symSize: 0xC4 }
  - { offset: 0x1200FD, size: 0x8, addend: 0x0, symName: __RINvMNtCsfvfooZQ3Axs_4core6resultINtB3_6ResultNtNtCsjOFMLY5rhAS_14thiserror_impl3ast4EnumNtNtCs6IAuOt8vWmF_3syn5error5ErrorE3mapNtBK_5InputNcNtB22_4Enum0EBM_, symObjAddr: 0x0, symBinAddr: 0x4C05C, symSize: 0xDC }
  - { offset: 0x1201A8, size: 0x8, addend: 0x0, symName: __RINvMNtCsfvfooZQ3Axs_4core6resultINtB3_6ResultNtNtCsjOFMLY5rhAS_14thiserror_impl3ast6StructNtNtCs6IAuOt8vWmF_3syn5error5ErrorE3mapNtBK_5InputNcNtB24_6Struct0EBM_, symObjAddr: 0xDC, symBinAddr: 0x4C138, symSize: 0xDC }
  - { offset: 0x12033A, size: 0x8, addend: 0x0, symName: __RINvMsc_NtNtNtCse1nGBsou5OW_5alloc11collections5btree3setINtB6_8BTreeSetRNtCs3cP53eQoTwO_11proc_macro25IdentE8containsB19_ECsjOFMLY5rhAS_14thiserror_impl, symObjAddr: 0x1B8, symBinAddr: 0x4C214, symSize: 0x54 }
  - { offset: 0x1203D8, size: 0x8, addend: 0x0, symName: __RINvMse_NtNtNtCse1nGBsou5OW_5alloc11collections5btree3setINtB6_8BTreeSetRNtCs3cP53eQoTwO_11proc_macro25IdentE16from_sorted_iterINtNtNtBc_3vec9into_iter8IntoIterB18_EECsjOFMLY5rhAS_14thiserror_impl, symObjAddr: 0x20C, symBinAddr: 0x4C268, symSize: 0x80 }
  - { offset: 0x120811, size: 0x8, addend: 0x0, symName: __RINvMsi_NtCse1nGBsou5OW_5alloc3vecINtB6_3VecNtCs3cP53eQoTwO_11proc_macro211TokenStreamE14extend_trustedINtNtNtNtCsfvfooZQ3Axs_4core4iter8adapters3map3MapINtNtNtB1M_5slice4iter4IterNtNtCsjOFMLY5rhAS_14thiserror_impl3ast7VariantENCNvNtB2W_6expand9impl_enums1_0EEB2W_, symObjAddr: 0x28C, symBinAddr: 0x4C2E8, symSize: 0x17C }
  - { offset: 0x120BF3, size: 0x8, addend: 0x0, symName: __RINvMsi_NtCse1nGBsou5OW_5alloc3vecINtB6_3VecNtNtCsjOFMLY5rhAS_14thiserror_impl3ast5FieldE16extend_desugaredINtNtNtCsfvfooZQ3Axs_4core4iter8adapters12GenericShuntINtNtB1K_3map3MapINtNtB1K_9enumerate9EnumerateINtNtCs6IAuOt8vWmF_3syn10punctuated4IterNtNtB3o_4data5FieldEENCNvMs2_BI_BG_17multiple_from_syn0EINtNtB1O_6result6ResultNtNtB1O_7convert10InfallibleNtNtB3o_5error5ErrorEEEBK_, symObjAddr: 0x408, symBinAddr: 0x4C464, symSize: 0x200 }
  - { offset: 0x121005, size: 0x8, addend: 0x0, symName: __RINvMsi_NtCse1nGBsou5OW_5alloc3vecINtB6_3VecNtNtCsjOFMLY5rhAS_14thiserror_impl3ast7VariantE16extend_desugaredINtNtNtCsfvfooZQ3Axs_4core4iter8adapters12GenericShuntINtNtB1M_3map3MapINtNtCs6IAuOt8vWmF_3syn10punctuated4IterNtNtB2X_4data7VariantENCNvMs0_BI_NtBI_4Enum8from_syn0EINtNtB1Q_6result6ResultNtNtB1Q_7convert10InfallibleNtNtB2X_5error5ErrorEEEBK_, symObjAddr: 0x608, symBinAddr: 0x4C664, symSize: 0x1FC }
  - { offset: 0x1213FD, size: 0x8, addend: 0x0, symName: __RINvMsi_NtCse1nGBsou5OW_5alloc3vecINtB6_3VecRNtCs3cP53eQoTwO_11proc_macro25IdentE16extend_desugaredINtNtNtNtCsfvfooZQ3Axs_4core4iter8adapters3map3MapNtNtCs6IAuOt8vWmF_3syn8generics10TypeParamsNCNvMNtCsjOFMLY5rhAS_14thiserror_impl8genericsNtB39_13ParamsInScope3new0EEB3b_, symObjAddr: 0x804, symBinAddr: 0x4C860, symSize: 0x190 }
  - { offset: 0x1218CC, size: 0x8, addend: 0x0, symName: __RNvMNtCse1nGBsou5OW_5alloc3vecINtB2_3VecNtCs3cP53eQoTwO_11proc_macro211TokenStreamE3newCsjOFMLY5rhAS_14thiserror_impl, symObjAddr: 0xFDC, symBinAddr: 0x4D038, symSize: 0x14 }
  - { offset: 0x1218E9, size: 0x8, addend: 0x0, symName: __RNvMNtCse1nGBsou5OW_5alloc3vecINtB2_3VecTNtCs3cP53eQoTwO_11proc_macro211TokenStreamNtNtCs6IAuOt8vWmF_3syn5token4PlusEE3newCsjOFMLY5rhAS_14thiserror_impl, symObjAddr: 0xFF0, symBinAddr: 0x4D04C, symSize: 0x14 }
  - { offset: 0x121913, size: 0x8, addend: 0x0, symName: __RNvMNtCsfvfooZQ3Axs_4core6resultINtB2_6ResultNtNtCs6IAuOt8vWmF_3syn2op5BinOpNtNtBL_5error5ErrorE5is_okCsjOFMLY5rhAS_14thiserror_impl, symObjAddr: 0x1004, symBinAddr: 0x4D060, symSize: 0x2C }
  - { offset: 0x121955, size: 0x8, addend: 0x0, symName: __RNvMNtCsfvfooZQ3Axs_4core6resultINtB2_6ResultNtNtCs6IAuOt8vWmF_3syn4expr4ExprNtNtBL_5error5ErrorE5is_okCsjOFMLY5rhAS_14thiserror_impl, symObjAddr: 0x1030, symBinAddr: 0x4D08C, symSize: 0x2C }
  - { offset: 0x1219E9, size: 0x8, addend: 0x0, symName: __RNvMs3_NtNtNtCsfvfooZQ3Axs_4core4iter8adapters8peekableINtB5_8PeekableINtNtB7_3map3MapINtNtNtBb_5slice4iter4IterNtNtCsjOFMLY5rhAS_14thiserror_impl3ast5FieldENCNvNtB1Q_6expand10fields_pat0EE4peekB1Q_, symObjAddr: 0x105C, symBinAddr: 0x4D0B8, symSize: 0x70 }
  - { offset: 0x121B43, size: 0x8, addend: 0x0, symName: __RNvMs_NtCse1nGBsou5OW_5alloc3vecINtB4_3VecNtCs3cP53eQoTwO_11proc_macro211TokenStreamE4pushCsjOFMLY5rhAS_14thiserror_impl, symObjAddr: 0x10CC, symBinAddr: 0x4D128, symSize: 0x100 }
  - { offset: 0x121E27, size: 0x8, addend: 0x0, symName: __RNvMs_NtCse1nGBsou5OW_5alloc3vecINtB4_3VecNtCs3cP53eQoTwO_11proc_macro211TokenStreamE7reserveCsjOFMLY5rhAS_14thiserror_impl, symObjAddr: 0x11CC, symBinAddr: 0x4D228, symSize: 0xC8 }
  - { offset: 0x122032, size: 0x8, addend: 0x0, symName: __RNvMs_NtCse1nGBsou5OW_5alloc3vecINtB4_3VecNtCs3cP53eQoTwO_11proc_macro211TokenStreamE8as_sliceCsjOFMLY5rhAS_14thiserror_impl, symObjAddr: 0x1294, symBinAddr: 0x4D2F0, symSize: 0x64 }
  - { offset: 0x1220EC, size: 0x8, addend: 0x0, symName: __RNvMs_NtCse1nGBsou5OW_5alloc3vecINtB4_3VecNtNtCsjOFMLY5rhAS_14thiserror_impl3ast5FieldE3lenBI_, symObjAddr: 0x12F8, symBinAddr: 0x4D354, symSize: 0x18 }
  - { offset: 0x122237, size: 0x8, addend: 0x0, symName: __RNvMs_NtCse1nGBsou5OW_5alloc3vecINtB4_3VecNtNtCsjOFMLY5rhAS_14thiserror_impl3ast5FieldE7reserveBI_, symObjAddr: 0x1310, symBinAddr: 0x4D36C, symSize: 0xC8 }
  - { offset: 0x122435, size: 0x8, addend: 0x0, symName: __RNvMs_NtCse1nGBsou5OW_5alloc3vecINtB4_3VecNtNtCsjOFMLY5rhAS_14thiserror_impl3ast5FieldE8as_sliceBI_, symObjAddr: 0x13D8, symBinAddr: 0x4D434, symSize: 0x64 }
  - { offset: 0x122605, size: 0x8, addend: 0x0, symName: __RNvMs_NtCse1nGBsou5OW_5alloc3vecINtB4_3VecNtNtCsjOFMLY5rhAS_14thiserror_impl3ast7VariantE7reserveBI_, symObjAddr: 0x143C, symBinAddr: 0x4D498, symSize: 0xC8 }
  - { offset: 0x122803, size: 0x8, addend: 0x0, symName: __RNvMs_NtCse1nGBsou5OW_5alloc3vecINtB4_3VecNtNtCsjOFMLY5rhAS_14thiserror_impl3ast7VariantE8as_sliceBI_, symObjAddr: 0x1504, symBinAddr: 0x4D560, symSize: 0x64 }
  - { offset: 0x1228E2, size: 0x8, addend: 0x0, symName: __RNvMs_NtCse1nGBsou5OW_5alloc3vecINtB4_3VecNtNtCsjOFMLY5rhAS_14thiserror_impl3ast7VariantE8is_emptyBI_, symObjAddr: 0x1568, symBinAddr: 0x4D5C4, symSize: 0x20 }
  - { offset: 0x122A4B, size: 0x8, addend: 0x0, symName: __RNvMs_NtCse1nGBsou5OW_5alloc3vecINtB4_3VecRNtCs3cP53eQoTwO_11proc_macro25IdentE7reserveCsjOFMLY5rhAS_14thiserror_impl, symObjAddr: 0x1588, symBinAddr: 0x4D5E4, symSize: 0xBC }
  - { offset: 0x122CC5, size: 0x8, addend: 0x0, symName: __RNvMs_NtCse1nGBsou5OW_5alloc3vecINtB4_3VecTNtCs3cP53eQoTwO_11proc_macro211TokenStreamNtNtCs6IAuOt8vWmF_3syn5token4PlusEE4pushCsjOFMLY5rhAS_14thiserror_impl, symObjAddr: 0x1644, symBinAddr: 0x4D6A0, symSize: 0x118 }
  - { offset: 0x122F1E, size: 0x8, addend: 0x0, symName: __RNvMs_NtCse1nGBsou5OW_5alloc3vecINtB4_3VecTNtCs3cP53eQoTwO_11proc_macro211TokenStreamNtNtCs6IAuOt8vWmF_3syn5token4PlusEE8as_sliceCsjOFMLY5rhAS_14thiserror_impl, symObjAddr: 0x175C, symBinAddr: 0x4D7B8, symSize: 0x64 }
  - { offset: 0x123050, size: 0x8, addend: 0x0, symName: __RNvMsb_NtNtNtCse1nGBsou5OW_5alloc11collections5btree3setINtB5_8BTreeSetNtCs3cP53eQoTwO_11proc_macro25IdentE3newCsjOFMLY5rhAS_14thiserror_impl, symObjAddr: 0x17C0, symBinAddr: 0x4D81C, symSize: 0x40 }
  - { offset: 0x12309B, size: 0x8, addend: 0x0, symName: __RNvMsb_NtNtNtCse1nGBsou5OW_5alloc11collections5btree3setINtB5_8BTreeSetNtNtBb_6string6StringE3newCsjOFMLY5rhAS_14thiserror_impl, symObjAddr: 0x1800, symBinAddr: 0x4D85C, symSize: 0x40 }
  - { offset: 0x1230E6, size: 0x8, addend: 0x0, symName: __RNvMsb_NtNtNtCse1nGBsou5OW_5alloc11collections5btree3setINtB5_8BTreeSetTjNtNtCsjOFMLY5rhAS_14thiserror_impl4attr5TraitEE3newB1d_, symObjAddr: 0x1840, symBinAddr: 0x4D89C, symSize: 0x40 }
  - { offset: 0x12316A, size: 0x8, addend: 0x0, symName: __RNvMsc_NtNtNtCse1nGBsou5OW_5alloc11collections5btree3setINtB5_8BTreeSetNtCs3cP53eQoTwO_11proc_macro25IdentE6insertCsjOFMLY5rhAS_14thiserror_impl, symObjAddr: 0x1880, symBinAddr: 0x4D8DC, symSize: 0x40 }
  - { offset: 0x123230, size: 0x8, addend: 0x0, symName: __RNvMsc_NtNtNtCse1nGBsou5OW_5alloc11collections5btree3setINtB5_8BTreeSetNtNtBb_6string6StringE6insertCsjOFMLY5rhAS_14thiserror_impl, symObjAddr: 0x18C0, symBinAddr: 0x4D91C, symSize: 0x40 }
  - { offset: 0x1232F6, size: 0x8, addend: 0x0, symName: __RNvMsc_NtNtNtCse1nGBsou5OW_5alloc11collections5btree3setINtB5_8BTreeSetTjNtNtCsjOFMLY5rhAS_14thiserror_impl4attr5TraitEE6insertB1d_, symObjAddr: 0x1900, symBinAddr: 0x4D95C, symSize: 0x48 }
  - { offset: 0x123380, size: 0x8, addend: 0x0, symName: __RNvXCsloNvcHxBCre_9hashbrownNtNtCs6IAuOt8vWmF_3syn4expr6MemberINtB2_10EquivalentRBq_E10equivalentCsjOFMLY5rhAS_14thiserror_impl, symObjAddr: 0x1948, symBinAddr: 0x4D9A4, symSize: 0x50 }
  - { offset: 0x1233F1, size: 0x8, addend: 0x0, symName: __RNvXCsloNvcHxBCre_9hashbrownRNtNtCs6IAuOt8vWmF_3syn4expr6MemberINtB2_10EquivalentBq_E10equivalentCsjOFMLY5rhAS_14thiserror_impl, symObjAddr: 0x1998, symBinAddr: 0x4D9F4, symSize: 0x50 }
  - { offset: 0x12346D, size: 0x8, addend: 0x0, symName: __RNvXs1_NtCsloNvcHxBCre_9hashbrown10scopeguardINtB5_10ScopeGuardNtNtB7_3raw13RawTableInnerNCINvMsa_B11_BZ_14prepare_resizeNtNtCse1nGBsou5OW_5alloc5alloc6GlobalE0ENtNtNtCsfvfooZQ3Axs_4core3ops4drop4Drop4dropCsjOFMLY5rhAS_14thiserror_impl, symObjAddr: 0x22D0, symBinAddr: 0x4E32C, symSize: 0x2C }
  - { offset: 0x1234A7, size: 0x8, addend: 0x0, symName: __RNvXs1_NtCsloNvcHxBCre_9hashbrown10scopeguardINtB5_10ScopeGuardQNtNtB7_3raw13RawTableInnerNCNvMsa_B12_B10_15rehash_in_place0ENtNtNtCsfvfooZQ3Axs_4core3ops4drop4Drop4dropCsjOFMLY5rhAS_14thiserror_impl, symObjAddr: 0x22FC, symBinAddr: 0x4E358, symSize: 0x2C }
  - { offset: 0x123614, size: 0x8, addend: 0x0, symName: __RNvXNtCs2cqEZUIJimJ_5quote14ident_fragmentRNtNtCs6IAuOt8vWmF_3syn4expr5IndexNtB2_13IdentFragment3fmtCsjOFMLY5rhAS_14thiserror_impl, symObjAddr: 0x19E8, symBinAddr: 0x4DA44, symSize: 0x40 }
  - { offset: 0x123657, size: 0x8, addend: 0x0, symName: __RNvXNtCs2cqEZUIJimJ_5quote14ident_fragmentRNtNtCs6IAuOt8vWmF_3syn4expr5IndexNtB2_13IdentFragment4spanCsjOFMLY5rhAS_14thiserror_impl, symObjAddr: 0x1A28, symBinAddr: 0x4DA84, symSize: 0x38 }
  - { offset: 0x12368C, size: 0x8, addend: 0x0, symName: __RNvXNtCs2cqEZUIJimJ_5quote14ident_fragmentRRNtNtCs6IAuOt8vWmF_3syn4expr5IndexNtB2_13IdentFragment3fmtCsjOFMLY5rhAS_14thiserror_impl, symObjAddr: 0x1A60, symBinAddr: 0x4DABC, symSize: 0x40 }
  - { offset: 0x1236CF, size: 0x8, addend: 0x0, symName: __RNvXNtCs2cqEZUIJimJ_5quote14ident_fragmentRRNtNtCs6IAuOt8vWmF_3syn4expr5IndexNtB2_13IdentFragment4spanCsjOFMLY5rhAS_14thiserror_impl, symObjAddr: 0x1AA0, symBinAddr: 0x4DAFC, symSize: 0x38 }
  - { offset: 0x123710, size: 0x8, addend: 0x0, symName: __RNvXNtCs2cqEZUIJimJ_5quote9to_tokensRNtNtCs6IAuOt8vWmF_3syn4expr6MemberNtB2_8ToTokens9to_tokensCsjOFMLY5rhAS_14thiserror_impl, symObjAddr: 0x1AD8, symBinAddr: 0x4DB34, symSize: 0x40 }
  - { offset: 0x123760, size: 0x8, addend: 0x0, symName: __RNvXs4_NtNtCs2cqEZUIJimJ_5quote9___private3extINtNtCse1nGBsou5OW_5alloc3vec3VecNtCs3cP53eQoTwO_11proc_macro211TokenStreamENtB5_16RepAsIteratorExt15quote_into_iterCsjOFMLY5rhAS_14thiserror_impl, symObjAddr: 0x23C0, symBinAddr: 0x4E41C, symSize: 0x38 }
  - { offset: 0x12379B, size: 0x8, addend: 0x0, symName: __RNvYINtNtNtNtCsfvfooZQ3Axs_4core4iter8adapters8peekable8PeekableINtNtB7_3map3MapINtNtNtBb_5slice4iter4IterNtNtCsjOFMLY5rhAS_14thiserror_impl3ast5FieldENCNvNtB1K_6expand10fields_pat0EENtNtNtCs2cqEZUIJimJ_5quote9___private3ext14RepIteratorExt15quote_into_iterB1K_, symObjAddr: 0x3CA8, symBinAddr: 0x4FD04, symSize: 0x24 }
  - { offset: 0x124A30, size: 0x8, addend: 0x0, symName: __RINvNvNtCscOYdFFY2T5N_3std9panicking3try7do_callINtNtNtCsfvfooZQ3Axs_4core5panic11unwind_safe16AssertUnwindSafeNCINvNtNtCs9i5KxIbZ5ph_10proc_macro6bridge6client10run_clientNtB1Q_11TokenStreamINtNtBR_6option6OptionB2K_ENCNCINvMs7_B1Q_INtB1Q_6ClientNtB1U_11TokenStreamB3X_E7expand1NvCsjOFMLY5rhAS_14thiserror_impl12derive_errorE00E0EuEB4v_, symObjAddr: 0x0, symBinAddr: 0x4FDBC, symSize: 0x50 }
  - { offset: 0x124CBF, size: 0x8, addend: 0x0, symName: __RINvNvNtCscOYdFFY2T5N_3std9panicking3try7do_callINtNtNtCsfvfooZQ3Axs_4core5panic11unwind_safe16AssertUnwindSafeNCINvNtNtCs9i5KxIbZ5ph_10proc_macro6bridge6client10run_clientNtB1Q_11TokenStreamINtNtBR_6option6OptionB2K_ENCNCINvMs7_B1Q_INtB1Q_6ClientNtB1U_11TokenStreamB3X_E7expand1NvCsjOFMLY5rhAS_14thiserror_impl12derive_errorE00E0EuEB4v_, symObjAddr: 0x0, symBinAddr: 0x4FDBC, symSize: 0x50 }
  - { offset: 0x124D87, size: 0x8, addend: 0x0, symName: __RINvNvNtCscOYdFFY2T5N_3std9panicking3try8do_catchINtNtNtCsfvfooZQ3Axs_4core5panic11unwind_safe16AssertUnwindSafeNCINvNtNtCs9i5KxIbZ5ph_10proc_macro6bridge6client10run_clientNtB1R_11TokenStreamINtNtBS_6option6OptionB2L_ENCNCINvMs7_B1R_INtB1R_6ClientNtB1V_11TokenStreamB3Y_E7expand1NvCsjOFMLY5rhAS_14thiserror_impl12derive_errorE00E0EuEB4w_, symObjAddr: 0x50, symBinAddr: 0x4FE0C, symSize: 0x70 }
  - { offset: 0x128BAA, size: 0x8, addend: 0x0, symName: __RNvNvMs3_NtCsfvfooZQ3Axs_4core3numi13unchecked_neg18precondition_checkCsjOFMLY5rhAS_14thiserror_impl, symObjAddr: 0x13D4, symBinAddr: 0x51190, symSize: 0x4C }
  - { offset: 0x128C63, size: 0x8, addend: 0x0, symName: __RNvNvMs9_NtCsfvfooZQ3Axs_4core3numj13unchecked_add18precondition_checkCsjOFMLY5rhAS_14thiserror_impl, symObjAddr: 0x1420, symBinAddr: 0x511DC, symSize: 0x44 }
  - { offset: 0x129DB5, size: 0x8, addend: 0x0, symName: __RINvYINtNtNtCse1nGBsou5OW_5alloc3vec9into_iter8IntoIterRNtCs3cP53eQoTwO_11proc_macro25IdentENtNtNtNtCsfvfooZQ3Axs_4core4iter6traits8iterator8Iterator3mapTBR_NtNtNtNtBa_11collections5btree7set_val9SetValZSTENCINvMse_NtB2z_3setINtB3r_8BTreeSetBR_E16from_sorted_iterB3_E0ECsjOFMLY5rhAS_14thiserror_impl, symObjAddr: 0xC0, symBinAddr: 0x4FE7C, symSize: 0x1C }
  - { offset: 0x129E59, size: 0x8, addend: 0x0, symName: __RNvYINtNtNtCse1nGBsou5OW_5alloc3vec9into_iter8IntoIterRNtCs3cP53eQoTwO_11proc_macro25IdentENtNtNtNtCsfvfooZQ3Axs_4core4iter6traits10exact_size17ExactSizeIterator3lenCsjOFMLY5rhAS_14thiserror_impl, symObjAddr: 0x279C, symBinAddr: 0x524A8, symSize: 0xF4 }
  - { offset: 0x129F9C, size: 0x8, addend: 0x0, symName: __RNvMNtCsfvfooZQ3Axs_4core3stre12char_indicesCsjOFMLY5rhAS_14thiserror_impl, symObjAddr: 0xDC, symBinAddr: 0x4FE98, symSize: 0x3C }
  - { offset: 0x129FCA, size: 0x8, addend: 0x0, symName: __RNvMNtCsfvfooZQ3Axs_4core3stre3lenCsjOFMLY5rhAS_14thiserror_impl, symObjAddr: 0x118, symBinAddr: 0x4FED4, symSize: 0x1C }
  - { offset: 0x129FF6, size: 0x8, addend: 0x0, symName: __RNvMNtCsfvfooZQ3Axs_4core3stre5charsCsjOFMLY5rhAS_14thiserror_impl, symObjAddr: 0x134, symBinAddr: 0x4FEF0, symSize: 0x20 }
  - { offset: 0x12BA3D, size: 0x8, addend: 0x0, symName: __RNvXNtNtCs9i5KxIbZ5ph_10proc_macro6bridge3rpcuINtB2_6EncodeuE6encodeCsjOFMLY5rhAS_14thiserror_impl, symObjAddr: 0x1464, symBinAddr: 0x51220, symSize: 0x14 }
  - { offset: 0x12BAB6, size: 0x8, addend: 0x0, symName: __RNvXsa_NtNtCs9i5KxIbZ5ph_10proc_macro6bridge3rpcRShINtB5_6EncodeuE6encodeCsjOFMLY5rhAS_14thiserror_impl, symObjAddr: 0x23D8, symBinAddr: 0x520E4, symSize: 0xD0 }
  - { offset: 0x12BBB8, size: 0x8, addend: 0x0, symName: __RNvXsc_NtNtCs9i5KxIbZ5ph_10proc_macro6bridge3rpcReINtB5_6EncodeuE6encodeCsjOFMLY5rhAS_14thiserror_impl, symObjAddr: 0x24A8, symBinAddr: 0x521B4, symSize: 0x38 }
  - { offset: 0x12BCA0, size: 0x8, addend: 0x0, symName: __RNvXsl_NtNtCs9i5KxIbZ5ph_10proc_macro6bridge3rpcNtB5_12PanicMessageINtB5_6EncodeuE6encodeCsjOFMLY5rhAS_14thiserror_impl, symObjAddr: 0x256C, symBinAddr: 0x52278, symSize: 0x128 }
  - { offset: 0x12BE66, size: 0x8, addend: 0x0, symName: __RNvXso_NtNtCs9i5KxIbZ5ph_10proc_macro6bridge3rpcmINtB5_9DecodeMutuE6decodeCsjOFMLY5rhAS_14thiserror_impl, symObjAddr: 0x2694, symBinAddr: 0x523A0, symSize: 0x108 }
  - { offset: 0x12C92A, size: 0x8, addend: 0x0, symName: __RNvXNvXsd_NtNtCse1nGBsou5OW_5alloc3vec9into_iterINtB8_8IntoIterppENtNtNtCsfvfooZQ3Axs_4core3ops4drop4Drop4dropINtB2_9DropGuardRNtCs3cP53eQoTwO_11proc_macro25IdentNtNtBc_5alloc6GlobalEB12_4dropCsjOFMLY5rhAS_14thiserror_impl, symObjAddr: 0x1478, symBinAddr: 0x51234, symSize: 0x7C }
  - { offset: 0x12CA60, size: 0x8, addend: 0x0, symName: __RNvXsd_NtNtCse1nGBsou5OW_5alloc3vec9into_iterINtB5_8IntoIterRNtCs3cP53eQoTwO_11proc_macro25IdentENtNtNtCsfvfooZQ3Axs_4core3ops4drop4Drop4dropCsjOFMLY5rhAS_14thiserror_impl, symObjAddr: 0x24E0, symBinAddr: 0x521EC, symSize: 0x8C }
  - { offset: 0x12CB00, size: 0x8, addend: 0x0, symName: __RNvXs3_NtNtCse1nGBsou5OW_5alloc3vec9into_iterINtB5_8IntoIterRNtCs3cP53eQoTwO_11proc_macro25IdentENtNtNtNtCsfvfooZQ3Axs_4core4iter6traits8iterator8Iterator4nextCsjOFMLY5rhAS_14thiserror_impl, symObjAddr: 0x15F4, symBinAddr: 0x513B0, symSize: 0xAC }
  - { offset: 0x12CC77, size: 0x8, addend: 0x0, symName: __RNvXs3_NtNtCse1nGBsou5OW_5alloc3vec9into_iterINtB5_8IntoIterRNtCs3cP53eQoTwO_11proc_macro25IdentENtNtNtNtCsfvfooZQ3Axs_4core4iter6traits8iterator8Iterator9size_hintCsjOFMLY5rhAS_14thiserror_impl, symObjAddr: 0x16A0, symBinAddr: 0x5145C, symSize: 0x6C }
  - { offset: 0x12DBFA, size: 0x8, addend: 0x0, symName: __RNvXs1_NtCse1nGBsou5OW_5alloc7raw_vecINtB5_6RawVecNtCs3cP53eQoTwO_11proc_macro211TokenStreamENtNtNtCsfvfooZQ3Axs_4core3ops4drop4Drop4dropCsjOFMLY5rhAS_14thiserror_impl, symObjAddr: 0x14F4, symBinAddr: 0x512B0, symSize: 0x34 }
  - { offset: 0x12DC36, size: 0x8, addend: 0x0, symName: __RNvXs1_NtCse1nGBsou5OW_5alloc7raw_vecINtB5_6RawVecNtNtCsjOFMLY5rhAS_14thiserror_impl3ast5FieldENtNtNtCsfvfooZQ3Axs_4core3ops4drop4Drop4dropBQ_, symObjAddr: 0x1528, symBinAddr: 0x512E4, symSize: 0x34 }
  - { offset: 0x12DC72, size: 0x8, addend: 0x0, symName: __RNvXs1_NtCse1nGBsou5OW_5alloc7raw_vecINtB5_6RawVecNtNtCsjOFMLY5rhAS_14thiserror_impl3ast7VariantENtNtNtCsfvfooZQ3Axs_4core3ops4drop4Drop4dropBQ_, symObjAddr: 0x155C, symBinAddr: 0x51318, symSize: 0x34 }
  - { offset: 0x12DCAE, size: 0x8, addend: 0x0, symName: __RNvXs1_NtCse1nGBsou5OW_5alloc7raw_vecINtB5_6RawVecRNtCs3cP53eQoTwO_11proc_macro25IdentENtNtNtCsfvfooZQ3Axs_4core3ops4drop4Drop4dropCsjOFMLY5rhAS_14thiserror_impl, symObjAddr: 0x1590, symBinAddr: 0x5134C, symSize: 0x30 }
  - { offset: 0x12DCEA, size: 0x8, addend: 0x0, symName: __RNvXs1_NtCse1nGBsou5OW_5alloc7raw_vecINtB5_6RawVecTNtCs3cP53eQoTwO_11proc_macro211TokenStreamNtNtCs6IAuOt8vWmF_3syn5token4PlusEENtNtNtCsfvfooZQ3Axs_4core3ops4drop4Drop4dropCsjOFMLY5rhAS_14thiserror_impl, symObjAddr: 0x15C0, symBinAddr: 0x5137C, symSize: 0x34 }
  - { offset: 0x12E2E8, size: 0x8, addend: 0x0, symName: __RNvMs_NtCse1nGBsou5OW_5alloc5boxedINtB4_3BoxINtNtNtNtB6_11collections5btree4node12InternalNodeNtCs3cP53eQoTwO_11proc_macro25IdentNtNtBL_7set_val9SetValZSTEE13new_uninit_inCsjOFMLY5rhAS_14thiserror_impl, symObjAddr: 0x27C, symBinAddr: 0x50038, symSize: 0x90 }
  - { offset: 0x12E3D4, size: 0x8, addend: 0x0, symName: __RNvMs_NtCse1nGBsou5OW_5alloc5boxedINtB4_3BoxINtNtNtNtB6_11collections5btree4node12InternalNodeNtCs3cP53eQoTwO_11proc_macro25IdentNtNtBL_7set_val9SetValZSTEE17try_new_uninit_inCsjOFMLY5rhAS_14thiserror_impl, symObjAddr: 0x30C, symBinAddr: 0x500C8, symSize: 0x12C }
  - { offset: 0x12E60C, size: 0x8, addend: 0x0, symName: __RNvMs_NtCse1nGBsou5OW_5alloc5boxedINtB4_3BoxINtNtNtNtB6_11collections5btree4node12InternalNodeNtNtB6_6string6StringNtNtBL_7set_val9SetValZSTEE13new_uninit_inCsjOFMLY5rhAS_14thiserror_impl, symObjAddr: 0x438, symBinAddr: 0x501F4, symSize: 0x90 }
  - { offset: 0x12E6F8, size: 0x8, addend: 0x0, symName: __RNvMs_NtCse1nGBsou5OW_5alloc5boxedINtB4_3BoxINtNtNtNtB6_11collections5btree4node12InternalNodeNtNtB6_6string6StringNtNtBL_7set_val9SetValZSTEE17try_new_uninit_inCsjOFMLY5rhAS_14thiserror_impl, symObjAddr: 0x4C8, symBinAddr: 0x50284, symSize: 0x12C }
  - { offset: 0x12E930, size: 0x8, addend: 0x0, symName: __RNvMs_NtCse1nGBsou5OW_5alloc5boxedINtB4_3BoxINtNtNtNtB6_11collections5btree4node12InternalNodeNtNtB6_6string6StringTINtNtBL_3set8BTreeSetB1u_EINtNtCs6IAuOt8vWmF_3syn10punctuated10PunctuatedNtCs3cP53eQoTwO_11proc_macro211TokenStreamNtNtB2l_5token4PlusEEEE13new_uninit_inCsjOFMLY5rhAS_14thiserror_impl, symObjAddr: 0x5F4, symBinAddr: 0x503B0, symSize: 0x90 }
  - { offset: 0x12EA1C, size: 0x8, addend: 0x0, symName: __RNvMs_NtCse1nGBsou5OW_5alloc5boxedINtB4_3BoxINtNtNtNtB6_11collections5btree4node12InternalNodeNtNtB6_6string6StringTINtNtBL_3set8BTreeSetB1u_EINtNtCs6IAuOt8vWmF_3syn10punctuated10PunctuatedNtCs3cP53eQoTwO_11proc_macro211TokenStreamNtNtB2l_5token4PlusEEEE17try_new_uninit_inCsjOFMLY5rhAS_14thiserror_impl, symObjAddr: 0x684, symBinAddr: 0x50440, symSize: 0x12C }
  - { offset: 0x12EC54, size: 0x8, addend: 0x0, symName: __RNvMs_NtCse1nGBsou5OW_5alloc5boxedINtB4_3BoxINtNtNtNtB6_11collections5btree4node12InternalNodeRNtCs3cP53eQoTwO_11proc_macro25IdentNtNtBL_7set_val9SetValZSTEE13new_uninit_inCsjOFMLY5rhAS_14thiserror_impl, symObjAddr: 0x7B0, symBinAddr: 0x5056C, symSize: 0x90 }
  - { offset: 0x12ED40, size: 0x8, addend: 0x0, symName: __RNvMs_NtCse1nGBsou5OW_5alloc5boxedINtB4_3BoxINtNtNtNtB6_11collections5btree4node12InternalNodeRNtCs3cP53eQoTwO_11proc_macro25IdentNtNtBL_7set_val9SetValZSTEE17try_new_uninit_inCsjOFMLY5rhAS_14thiserror_impl, symObjAddr: 0x840, symBinAddr: 0x505FC, symSize: 0x12C }
  - { offset: 0x12EF78, size: 0x8, addend: 0x0, symName: __RNvMs_NtCse1nGBsou5OW_5alloc5boxedINtB4_3BoxINtNtNtNtB6_11collections5btree4node12InternalNodeTjNtNtCsjOFMLY5rhAS_14thiserror_impl4attr5TraitENtNtBL_7set_val9SetValZSTEE13new_uninit_inB1A_, symObjAddr: 0x96C, symBinAddr: 0x50728, symSize: 0x90 }
  - { offset: 0x12F064, size: 0x8, addend: 0x0, symName: __RNvMs_NtCse1nGBsou5OW_5alloc5boxedINtB4_3BoxINtNtNtNtB6_11collections5btree4node12InternalNodeTjNtNtCsjOFMLY5rhAS_14thiserror_impl4attr5TraitENtNtBL_7set_val9SetValZSTEE17try_new_uninit_inB1A_, symObjAddr: 0x9FC, symBinAddr: 0x507B8, symSize: 0x12C }
  - { offset: 0x12F29C, size: 0x8, addend: 0x0, symName: __RNvMs_NtCse1nGBsou5OW_5alloc5boxedINtB4_3BoxINtNtNtNtB6_11collections5btree4node8LeafNodeNtCs3cP53eQoTwO_11proc_macro25IdentNtNtBL_7set_val9SetValZSTEE13new_uninit_inCsjOFMLY5rhAS_14thiserror_impl, symObjAddr: 0xB28, symBinAddr: 0x508E4, symSize: 0x90 }
  - { offset: 0x12F388, size: 0x8, addend: 0x0, symName: __RNvMs_NtCse1nGBsou5OW_5alloc5boxedINtB4_3BoxINtNtNtNtB6_11collections5btree4node8LeafNodeNtCs3cP53eQoTwO_11proc_macro25IdentNtNtBL_7set_val9SetValZSTEE17try_new_uninit_inCsjOFMLY5rhAS_14thiserror_impl, symObjAddr: 0xBB8, symBinAddr: 0x50974, symSize: 0x12C }
  - { offset: 0x12F5C0, size: 0x8, addend: 0x0, symName: __RNvMs_NtCse1nGBsou5OW_5alloc5boxedINtB4_3BoxINtNtNtNtB6_11collections5btree4node8LeafNodeNtNtB6_6string6StringNtNtBL_7set_val9SetValZSTEE13new_uninit_inCsjOFMLY5rhAS_14thiserror_impl, symObjAddr: 0xCE4, symBinAddr: 0x50AA0, symSize: 0x90 }
  - { offset: 0x12F6AC, size: 0x8, addend: 0x0, symName: __RNvMs_NtCse1nGBsou5OW_5alloc5boxedINtB4_3BoxINtNtNtNtB6_11collections5btree4node8LeafNodeNtNtB6_6string6StringNtNtBL_7set_val9SetValZSTEE17try_new_uninit_inCsjOFMLY5rhAS_14thiserror_impl, symObjAddr: 0xD74, symBinAddr: 0x50B30, symSize: 0x12C }
  - { offset: 0x12F8E4, size: 0x8, addend: 0x0, symName: __RNvMs_NtCse1nGBsou5OW_5alloc5boxedINtB4_3BoxINtNtNtNtB6_11collections5btree4node8LeafNodeNtNtB6_6string6StringTINtNtBL_3set8BTreeSetB1p_EINtNtCs6IAuOt8vWmF_3syn10punctuated10PunctuatedNtCs3cP53eQoTwO_11proc_macro211TokenStreamNtNtB2g_5token4PlusEEEE13new_uninit_inCsjOFMLY5rhAS_14thiserror_impl, symObjAddr: 0xEA0, symBinAddr: 0x50C5C, symSize: 0x90 }
  - { offset: 0x12F9D0, size: 0x8, addend: 0x0, symName: __RNvMs_NtCse1nGBsou5OW_5alloc5boxedINtB4_3BoxINtNtNtNtB6_11collections5btree4node8LeafNodeNtNtB6_6string6StringTINtNtBL_3set8BTreeSetB1p_EINtNtCs6IAuOt8vWmF_3syn10punctuated10PunctuatedNtCs3cP53eQoTwO_11proc_macro211TokenStreamNtNtB2g_5token4PlusEEEE17try_new_uninit_inCsjOFMLY5rhAS_14thiserror_impl, symObjAddr: 0xF30, symBinAddr: 0x50CEC, symSize: 0x12C }
  - { offset: 0x12FC08, size: 0x8, addend: 0x0, symName: __RNvMs_NtCse1nGBsou5OW_5alloc5boxedINtB4_3BoxINtNtNtNtB6_11collections5btree4node8LeafNodeRNtCs3cP53eQoTwO_11proc_macro25IdentNtNtBL_7set_val9SetValZSTEE13new_uninit_inCsjOFMLY5rhAS_14thiserror_impl, symObjAddr: 0x105C, symBinAddr: 0x50E18, symSize: 0x90 }
  - { offset: 0x12FCF4, size: 0x8, addend: 0x0, symName: __RNvMs_NtCse1nGBsou5OW_5alloc5boxedINtB4_3BoxINtNtNtNtB6_11collections5btree4node8LeafNodeRNtCs3cP53eQoTwO_11proc_macro25IdentNtNtBL_7set_val9SetValZSTEE17try_new_uninit_inCsjOFMLY5rhAS_14thiserror_impl, symObjAddr: 0x10EC, symBinAddr: 0x50EA8, symSize: 0x12C }
  - { offset: 0x12FF2C, size: 0x8, addend: 0x0, symName: __RNvMs_NtCse1nGBsou5OW_5alloc5boxedINtB4_3BoxINtNtNtNtB6_11collections5btree4node8LeafNodeTjNtNtCsjOFMLY5rhAS_14thiserror_impl4attr5TraitENtNtBL_7set_val9SetValZSTEE13new_uninit_inB1v_, symObjAddr: 0x1218, symBinAddr: 0x50FD4, symSize: 0x90 }
  - { offset: 0x130018, size: 0x8, addend: 0x0, symName: __RNvMs_NtCse1nGBsou5OW_5alloc5boxedINtB4_3BoxINtNtNtNtB6_11collections5btree4node8LeafNodeTjNtNtCsjOFMLY5rhAS_14thiserror_impl4attr5TraitENtNtBL_7set_val9SetValZSTEE17try_new_uninit_inB1v_, symObjAddr: 0x12A8, symBinAddr: 0x51064, symSize: 0x12C }
  - { offset: 0x1304B4, size: 0x8, addend: 0x0, symName: __RNvXs6_NtCse1nGBsou5OW_5alloc5boxedINtB5_3BoxDNtNtCsfvfooZQ3Axs_4core5error5ErrorNtNtBM_6marker4SendNtB1j_4SyncEL_ENtNtNtBM_3ops4drop4Drop4dropCsjOFMLY5rhAS_14thiserror_impl, symObjAddr: 0x170C, symBinAddr: 0x514C8, symSize: 0xC4 }
  - { offset: 0x1305EB, size: 0x8, addend: 0x0, symName: __RNvXs6_NtCse1nGBsou5OW_5alloc5boxedINtB5_3BoxINtNtCs6IAuOt8vWmF_3syn5drops6NoDropDINtNtBM_10punctuated9IterTraitNtNtBM_4data5FieldEp4ItemRB1M_EL_EENtNtNtCsfvfooZQ3Axs_4core3ops4drop4Drop4dropCsjOFMLY5rhAS_14thiserror_impl, symObjAddr: 0x17D0, symBinAddr: 0x5158C, symSize: 0x118 }
  - { offset: 0x130722, size: 0x8, addend: 0x0, symName: __RNvXs6_NtCse1nGBsou5OW_5alloc5boxedINtB5_3BoxINtNtCs6IAuOt8vWmF_3syn5drops6NoDropDINtNtBM_10punctuated9IterTraitNtNtBM_4data7VariantEp4ItemRB1M_EL_EENtNtNtCsfvfooZQ3Axs_4core3ops4drop4Drop4dropCsjOFMLY5rhAS_14thiserror_impl, symObjAddr: 0x18E8, symBinAddr: 0x516A4, symSize: 0x118 }
  - { offset: 0x130859, size: 0x8, addend: 0x0, symName: __RNvXs6_NtCse1nGBsou5OW_5alloc5boxedINtB5_3BoxINtNtCs6IAuOt8vWmF_3syn5drops6NoDropDINtNtBM_10punctuated9IterTraitNtNtBM_4path15GenericArgumentEp4ItemRB1M_EL_EENtNtNtCsfvfooZQ3Axs_4core3ops4drop4Drop4dropCsjOFMLY5rhAS_14thiserror_impl, symObjAddr: 0x1A00, symBinAddr: 0x517BC, symSize: 0x118 }
  - { offset: 0x130990, size: 0x8, addend: 0x0, symName: __RNvXs6_NtCse1nGBsou5OW_5alloc5boxedINtB5_3BoxINtNtCs6IAuOt8vWmF_3syn5drops6NoDropDINtNtBM_10punctuated9IterTraitNtNtBM_8generics12GenericParamEp4ItemRB1M_EL_EENtNtNtCsfvfooZQ3Axs_4core3ops4drop4Drop4dropCsjOFMLY5rhAS_14thiserror_impl, symObjAddr: 0x1B18, symBinAddr: 0x518D4, symSize: 0x118 }
  - { offset: 0x130AC7, size: 0x8, addend: 0x0, symName: __RNvXs6_NtCse1nGBsou5OW_5alloc5boxedINtB5_3BoxINtNtNtNtB7_11collections5btree4node12InternalNodeNtCs3cP53eQoTwO_11proc_macro25IdentNtNtBM_7set_val9SetValZSTEENtNtNtCsfvfooZQ3Axs_4core3ops4drop4Drop4dropCsjOFMLY5rhAS_14thiserror_impl, symObjAddr: 0x1C30, symBinAddr: 0x519EC, symSize: 0xB0 }
  - { offset: 0x130BFE, size: 0x8, addend: 0x0, symName: __RNvXs6_NtCse1nGBsou5OW_5alloc5boxedINtB5_3BoxINtNtNtNtB7_11collections5btree4node12InternalNodeNtNtB7_6string6StringNtNtBM_7set_val9SetValZSTEENtNtNtCsfvfooZQ3Axs_4core3ops4drop4Drop4dropCsjOFMLY5rhAS_14thiserror_impl, symObjAddr: 0x1CE0, symBinAddr: 0x51A9C, symSize: 0xB0 }
  - { offset: 0x130D35, size: 0x8, addend: 0x0, symName: __RNvXs6_NtCse1nGBsou5OW_5alloc5boxedINtB5_3BoxINtNtNtNtB7_11collections5btree4node12InternalNodeNtNtB7_6string6StringTINtNtBM_3set8BTreeSetB1v_EINtNtCs6IAuOt8vWmF_3syn10punctuated10PunctuatedNtCs3cP53eQoTwO_11proc_macro211TokenStreamNtNtB2m_5token4PlusEEEENtNtNtCsfvfooZQ3Axs_4core3ops4drop4Drop4dropCsjOFMLY5rhAS_14thiserror_impl, symObjAddr: 0x1D90, symBinAddr: 0x51B4C, symSize: 0xB0 }
  - { offset: 0x130E6C, size: 0x8, addend: 0x0, symName: __RNvXs6_NtCse1nGBsou5OW_5alloc5boxedINtB5_3BoxINtNtNtNtB7_11collections5btree4node12InternalNodeTjNtNtCsjOFMLY5rhAS_14thiserror_impl4attr5TraitENtNtBM_7set_val9SetValZSTEENtNtNtCsfvfooZQ3Axs_4core3ops4drop4Drop4dropB1B_, symObjAddr: 0x1EF0, symBinAddr: 0x51BFC, symSize: 0xB0 }
  - { offset: 0x130FA3, size: 0x8, addend: 0x0, symName: __RNvXs6_NtCse1nGBsou5OW_5alloc5boxedINtB5_3BoxINtNtNtNtB7_11collections5btree4node8LeafNodeNtCs3cP53eQoTwO_11proc_macro25IdentNtNtBM_7set_val9SetValZSTEENtNtNtCsfvfooZQ3Axs_4core3ops4drop4Drop4dropCsjOFMLY5rhAS_14thiserror_impl, symObjAddr: 0x1FA0, symBinAddr: 0x51CAC, symSize: 0xB0 }
  - { offset: 0x1310DA, size: 0x8, addend: 0x0, symName: __RNvXs6_NtCse1nGBsou5OW_5alloc5boxedINtB5_3BoxINtNtNtNtB7_11collections5btree4node8LeafNodeNtNtB7_6string6StringNtNtBM_7set_val9SetValZSTEENtNtNtCsfvfooZQ3Axs_4core3ops4drop4Drop4dropCsjOFMLY5rhAS_14thiserror_impl, symObjAddr: 0x2050, symBinAddr: 0x51D5C, symSize: 0xB0 }
  - { offset: 0x131211, size: 0x8, addend: 0x0, symName: __RNvXs6_NtCse1nGBsou5OW_5alloc5boxedINtB5_3BoxINtNtNtNtB7_11collections5btree4node8LeafNodeNtNtB7_6string6StringTINtNtBM_3set8BTreeSetB1q_EINtNtCs6IAuOt8vWmF_3syn10punctuated10PunctuatedNtCs3cP53eQoTwO_11proc_macro211TokenStreamNtNtB2h_5token4PlusEEEENtNtNtCsfvfooZQ3Axs_4core3ops4drop4Drop4dropCsjOFMLY5rhAS_14thiserror_impl, symObjAddr: 0x2100, symBinAddr: 0x51E0C, symSize: 0xB0 }
  - { offset: 0x131348, size: 0x8, addend: 0x0, symName: __RNvXs6_NtCse1nGBsou5OW_5alloc5boxedINtB5_3BoxINtNtNtNtB7_11collections5btree4node8LeafNodeTjNtNtCsjOFMLY5rhAS_14thiserror_impl4attr5TraitENtNtBM_7set_val9SetValZSTEENtNtNtCsfvfooZQ3Axs_4core3ops4drop4Drop4dropB1w_, symObjAddr: 0x21B0, symBinAddr: 0x51EBC, symSize: 0xB0 }
  - { offset: 0x13147F, size: 0x8, addend: 0x0, symName: __RNvXs6_NtCse1nGBsou5OW_5alloc5boxedINtB5_3BoxNtCs3cP53eQoTwO_11proc_macro211TokenStreamENtNtNtCsfvfooZQ3Axs_4core3ops4drop4Drop4dropCsjOFMLY5rhAS_14thiserror_impl, symObjAddr: 0x2260, symBinAddr: 0x51F6C, symSize: 0xB0 }
  - { offset: 0x1315B6, size: 0x8, addend: 0x0, symName: __RNvXs6_NtCse1nGBsou5OW_5alloc5boxedINtB5_3BoxNtNtNtCscOYdFFY2T5N_3std2io5error6CustomENtNtNtCsfvfooZQ3Axs_4core3ops4drop4Drop4dropCsjOFMLY5rhAS_14thiserror_impl, symObjAddr: 0x2310, symBinAddr: 0x5201C, symSize: 0xB0 }
  - { offset: 0x1316F3, size: 0x8, addend: 0x0, symName: __RNvXsB_NtCse1nGBsou5OW_5alloc5boxedINtB5_3BoxNtCs3cP53eQoTwO_11proc_macro211TokenStreamEINtNtCsfvfooZQ3Axs_4core7convert5AsRefBH_E6as_refCsjOFMLY5rhAS_14thiserror_impl, symObjAddr: 0x23C0, symBinAddr: 0x520CC, symSize: 0x18 }
  - { offset: 0x13184F, size: 0x8, addend: 0x0, symName: __RNvMs0_NtCse1nGBsou5OW_5alloc7raw_vecINtB5_6RawVecNtCs3cP53eQoTwO_11proc_macro211TokenStreamE8grow_oneCsjOFMLY5rhAS_14thiserror_impl, symObjAddr: 0x154, symBinAddr: 0x4FF10, symSize: 0x94 }
  - { offset: 0x1365F8, size: 0x8, addend: 0x0, symName: __RNvMs0_NtCse1nGBsou5OW_5alloc7raw_vecINtB5_6RawVecTNtCs3cP53eQoTwO_11proc_macro211TokenStreamNtNtCs6IAuOt8vWmF_3syn5token4PlusEE8grow_oneCsjOFMLY5rhAS_14thiserror_impl, symObjAddr: 0x1E8, symBinAddr: 0x4FFA4, symSize: 0x94 }
  - { offset: 0x1388B6, size: 0x8, addend: 0x0, symName: __RINvXNtNtCse1nGBsou5OW_5alloc5slice4hackNtNtCs6IAuOt8vWmF_3syn4item11ForeignItemNtB3_10ConvertVec6to_vecNtNtB7_5alloc6GlobalEBG_, symObjAddr: 0x0, symBinAddr: 0x525B0, symSize: 0x36C }
  - { offset: 0x139E2D, size: 0x8, addend: 0x0, symName: __RNvXNtNtCs6IAuOt8vWmF_3syn4item7parsingNtB4_4ItemNtNtB6_5parse5Parse5parse, symObjAddr: 0x34B4, symBinAddr: 0x53FB8, symSize: 0x1B4 }
  - { offset: 0x139ED3, size: 0x8, addend: 0x0, symName: __RNvXs0_NtNtCs6IAuOt8vWmF_3syn4item7parsingNtB7_9ItemMacroNtNtB9_5parse5Parse5parse, symObjAddr: 0x3668, symBinAddr: 0x5416C, symSize: 0x620 }
  - { offset: 0x13A0A1, size: 0x8, addend: 0x0, symName: __RNvXs1_NtNtCs6IAuOt8vWmF_3syn4item7parsingNtB7_15ItemExternCrateNtNtB9_5parse5Parse5parse, symObjAddr: 0x3C88, symBinAddr: 0x5478C, symSize: 0x93C }
  - { offset: 0x13A2AB, size: 0x8, addend: 0x0, symName: __RNvXs3_NtNtCs6IAuOt8vWmF_3syn4item7parsingNtB7_7UseTreeNtNtB9_5parse5Parse5parse, symObjAddr: 0x461C, symBinAddr: 0x550C8, symSize: 0x58 }
  - { offset: 0x13A2FD, size: 0x8, addend: 0x0, symName: __RNvXs6_NtNtCs6IAuOt8vWmF_3syn4item7parsingNtB7_9SignatureNtNtB9_5parse5Parse5parse, symObjAddr: 0x5B9C, symBinAddr: 0x55120, symSize: 0x60 }
  - { offset: 0x13A34F, size: 0x8, addend: 0x0, symName: __RNvXs9_NtNtCs6IAuOt8vWmF_3syn4item7parsingNtB7_8ReceiverNtNtB9_5parse5Parse5parse, symObjAddr: 0x622C, symBinAddr: 0x55180, symSize: 0x95C }
  - { offset: 0x13A5A8, size: 0x8, addend: 0x0, symName: __RNvXsa_NtNtCs6IAuOt8vWmF_3syn4item7parsingNtB7_7ItemModNtNtB9_5parse5Parse5parse, symObjAddr: 0x6B88, symBinAddr: 0x55ADC, symSize: 0xC34 }
  - { offset: 0x13A80B, size: 0x8, addend: 0x0, symName: __RNvXsb_NtNtCs6IAuOt8vWmF_3syn4item7parsingNtB7_14ItemForeignModNtNtB9_5parse5Parse5parse, symObjAddr: 0x77BC, symBinAddr: 0x56710, symSize: 0x610 }
  - { offset: 0x13A9BC, size: 0x8, addend: 0x0, symName: __RNvXsc_NtNtCs6IAuOt8vWmF_3syn4item7parsingNtB7_11ForeignItemNtNtB9_5parse5Parse5parse, symObjAddr: 0x7DCC, symBinAddr: 0x56D20, symSize: 0x1D80 }
  - { offset: 0x13B02C, size: 0x8, addend: 0x0, symName: __RNvXsg_NtNtCs6IAuOt8vWmF_3syn4item7parsingNtB7_16ForeignItemMacroNtNtB9_5parse5Parse5parse, symObjAddr: 0xAE74, symBinAddr: 0x58AA0, symSize: 0x32C }
  - { offset: 0x13B140, size: 0x8, addend: 0x0, symName: __RNvXsi_NtNtCs6IAuOt8vWmF_3syn4item7parsingNtB7_10ItemStructNtNtB9_5parse5Parse5parse, symObjAddr: 0xBB78, symBinAddr: 0x58DCC, symSize: 0x638 }
  - { offset: 0x13B33D, size: 0x8, addend: 0x0, symName: __RNvXsj_NtNtCs6IAuOt8vWmF_3syn4item7parsingNtB7_8ItemEnumNtNtB9_5parse5Parse5parse, symObjAddr: 0xC1B0, symBinAddr: 0x59404, symSize: 0x63C }
  - { offset: 0x13B53A, size: 0x8, addend: 0x0, symName: __RNvXsk_NtNtCs6IAuOt8vWmF_3syn4item7parsingNtB7_9ItemUnionNtNtB9_5parse5Parse5parse, symObjAddr: 0xC7EC, symBinAddr: 0x59A40, symSize: 0x62C }
  - { offset: 0x13B726, size: 0x8, addend: 0x0, symName: __RNvXsl_NtNtCs6IAuOt8vWmF_3syn4item7parsingNtB7_9ItemTraitNtNtB9_5parse5Parse5parse, symObjAddr: 0xCE18, symBinAddr: 0x5A06C, symSize: 0x634 }
  - { offset: 0x13B92D, size: 0x8, addend: 0x0, symName: __RNvXsn_NtNtCs6IAuOt8vWmF_3syn4item7parsingNtB7_9TraitItemNtNtB9_5parse5Parse5parse, symObjAddr: 0xD6BC, symBinAddr: 0x5A6A0, symSize: 0x1654 }
  - { offset: 0x13BDA2, size: 0x8, addend: 0x0, symName: __RNvXsp_NtNtCs6IAuOt8vWmF_3syn4item7parsingNtB7_11TraitItemFnNtNtB9_5parse5Parse5parse, symObjAddr: 0xF584, symBinAddr: 0x5BCF4, symSize: 0x7DC }
  - { offset: 0x13BFA6, size: 0x8, addend: 0x0, symName: __RNvXsr_NtNtCs6IAuOt8vWmF_3syn4item7parsingNtB7_14TraitItemMacroNtNtB9_5parse5Parse5parse, symObjAddr: 0x10484, symBinAddr: 0x5C4D0, symSize: 0x32C }
  - { offset: 0x13C0BA, size: 0x8, addend: 0x0, symName: __RNvXst_NtNtCs6IAuOt8vWmF_3syn4item7parsingNtB7_8ImplItemNtNtB9_5parse5Parse5parse, symObjAddr: 0x10810, symBinAddr: 0x5C7FC, symSize: 0x1A78 }
  - { offset: 0x13C5DC, size: 0x8, addend: 0x0, symName: __RNvXsx_NtNtCs6IAuOt8vWmF_3syn4item7parsingNtB7_13ImplItemMacroNtNtB9_5parse5Parse5parse, symObjAddr: 0x134F8, symBinAddr: 0x5E274, symSize: 0x32C }
  - { offset: 0x13C6F0, size: 0x8, addend: 0x0, symName: __RNvXsz_NtNtCs6IAuOt8vWmF_3syn4item7parsingNtB7_16StaticMutabilityNtNtB9_5parse5Parse5parse, symObjAddr: 0x13824, symBinAddr: 0x5E5A0, symSize: 0xDC }
  - { offset: 0x13C766, size: 0x8, addend: 0x0, symName: __RNvXNtNtCs6IAuOt8vWmF_3syn4item8printingNtB4_15ItemExternCrateNtNtCs2cqEZUIJimJ_5quote9to_tokens8ToTokens9to_tokens, symObjAddr: 0x13900, symBinAddr: 0x5E67C, symSize: 0x110 }
  - { offset: 0x13C7D3, size: 0x8, addend: 0x0, symName: __RNvXs_NtNtCs6IAuOt8vWmF_3syn4item8printingNtB6_7ItemUseNtNtCs2cqEZUIJimJ_5quote9to_tokens8ToTokens9to_tokens, symObjAddr: 0x13A10, symBinAddr: 0x5E78C, symSize: 0xA4 }
  - { offset: 0x13C812, size: 0x8, addend: 0x0, symName: __RNvXs0_NtNtCs6IAuOt8vWmF_3syn4item8printingNtB7_10ItemStaticNtNtCs2cqEZUIJimJ_5quote9to_tokens8ToTokens9to_tokens, symObjAddr: 0x13AB4, symBinAddr: 0x5E830, symSize: 0xE4 }
  - { offset: 0x13C851, size: 0x8, addend: 0x0, symName: __RNvXs1_NtNtCs6IAuOt8vWmF_3syn4item8printingNtB7_9ItemConstNtNtCs2cqEZUIJimJ_5quote9to_tokens8ToTokens9to_tokens, symObjAddr: 0x13B98, symBinAddr: 0x5E914, symSize: 0xD4 }
  - { offset: 0x13C890, size: 0x8, addend: 0x0, symName: __RNvXs2_NtNtCs6IAuOt8vWmF_3syn4item8printingNtB7_6ItemFnNtNtCs2cqEZUIJimJ_5quote9to_tokens8ToTokens9to_tokens, symObjAddr: 0x13C6C, symBinAddr: 0x5E9E8, symSize: 0xB4 }
  - { offset: 0x13C8CF, size: 0x8, addend: 0x0, symName: __RNvXs3_NtNtCs6IAuOt8vWmF_3syn4item8printingNtB7_7ItemModNtNtCs2cqEZUIJimJ_5quote9to_tokens8ToTokens9to_tokens, symObjAddr: 0x13D20, symBinAddr: 0x5EA9C, symSize: 0x110 }
  - { offset: 0x13C93C, size: 0x8, addend: 0x0, symName: __RNvXs4_NtNtCs6IAuOt8vWmF_3syn4item8printingNtB7_14ItemForeignModNtNtCs2cqEZUIJimJ_5quote9to_tokens8ToTokens9to_tokens, symObjAddr: 0x13E30, symBinAddr: 0x5EBAC, symSize: 0x88 }
  - { offset: 0x13C97B, size: 0x8, addend: 0x0, symName: __RNvXs5_NtNtCs6IAuOt8vWmF_3syn4item8printingNtB7_8ItemTypeNtNtCs2cqEZUIJimJ_5quote9to_tokens8ToTokens9to_tokens, symObjAddr: 0x13EB8, symBinAddr: 0x5EC34, symSize: 0xD4 }
  - { offset: 0x13C9BA, size: 0x8, addend: 0x0, symName: __RNvXs6_NtNtCs6IAuOt8vWmF_3syn4item8printingNtB7_8ItemEnumNtNtCs2cqEZUIJimJ_5quote9to_tokens8ToTokens9to_tokens, symObjAddr: 0x13F8C, symBinAddr: 0x5ED08, symSize: 0xB8 }
  - { offset: 0x13C9F9, size: 0x8, addend: 0x0, symName: __RNvXs7_NtNtCs6IAuOt8vWmF_3syn4item8printingNtB7_10ItemStructNtNtCs2cqEZUIJimJ_5quote9to_tokens8ToTokens9to_tokens, symObjAddr: 0x14044, symBinAddr: 0x5EDC0, symSize: 0x188 }
  - { offset: 0x13CA74, size: 0x8, addend: 0x0, symName: __RNvXs8_NtNtCs6IAuOt8vWmF_3syn4item8printingNtB7_9ItemUnionNtNtCs2cqEZUIJimJ_5quote9to_tokens8ToTokens9to_tokens, symObjAddr: 0x141CC, symBinAddr: 0x5EF48, symSize: 0xB4 }
  - { offset: 0x13CAB3, size: 0x8, addend: 0x0, symName: __RNvXs9_NtNtCs6IAuOt8vWmF_3syn4item8printingNtB7_9ItemTraitNtNtCs2cqEZUIJimJ_5quote9to_tokens8ToTokens9to_tokens, symObjAddr: 0x14280, symBinAddr: 0x5EFFC, symSize: 0x130 }
  - { offset: 0x13CAF2, size: 0x8, addend: 0x0, symName: __RNvXsa_NtNtCs6IAuOt8vWmF_3syn4item8printingNtB7_14ItemTraitAliasNtNtCs2cqEZUIJimJ_5quote9to_tokens8ToTokens9to_tokens, symObjAddr: 0x143B0, symBinAddr: 0x5F12C, symSize: 0xD4 }
  - { offset: 0x13CB31, size: 0x8, addend: 0x0, symName: __RNvXsb_NtNtCs6IAuOt8vWmF_3syn4item8printingNtB7_8ItemImplNtNtCs2cqEZUIJimJ_5quote9to_tokens8ToTokens9to_tokens, symObjAddr: 0x14484, symBinAddr: 0x5F200, symSize: 0x14C }
  - { offset: 0x13CBAE, size: 0x8, addend: 0x0, symName: __RNvXsc_NtNtCs6IAuOt8vWmF_3syn4item8printingNtB7_9ItemMacroNtNtCs2cqEZUIJimJ_5quote9to_tokens8ToTokens9to_tokens, symObjAddr: 0x145D0, symBinAddr: 0x5F34C, symSize: 0x148 }
  - { offset: 0x13CC3F, size: 0x8, addend: 0x0, symName: __RNvXsd_NtNtCs6IAuOt8vWmF_3syn4item8printingNtB7_7UsePathNtNtCs2cqEZUIJimJ_5quote9to_tokens8ToTokens9to_tokens, symObjAddr: 0x14718, symBinAddr: 0x5F494, symSize: 0x60 }
  - { offset: 0x13CC7E, size: 0x8, addend: 0x0, symName: __RNvXse_NtNtCs6IAuOt8vWmF_3syn4item8printingNtB7_7UseNameNtNtCs2cqEZUIJimJ_5quote9to_tokens8ToTokens9to_tokens, symObjAddr: 0x14778, symBinAddr: 0x5F4F4, symSize: 0x3C }
  - { offset: 0x13CCBD, size: 0x8, addend: 0x0, symName: __RNvXsf_NtNtCs6IAuOt8vWmF_3syn4item8printingNtB7_9UseRenameNtNtCs2cqEZUIJimJ_5quote9to_tokens8ToTokens9to_tokens, symObjAddr: 0x147B4, symBinAddr: 0x5F530, symSize: 0x60 }
  - { offset: 0x13CCFC, size: 0x8, addend: 0x0, symName: __RNvXsg_NtNtCs6IAuOt8vWmF_3syn4item8printingNtB7_7UseGlobNtNtCs2cqEZUIJimJ_5quote9to_tokens8ToTokens9to_tokens, symObjAddr: 0x14814, symBinAddr: 0x5F590, symSize: 0x3C }
  - { offset: 0x13CD3B, size: 0x8, addend: 0x0, symName: __RNvXsh_NtNtCs6IAuOt8vWmF_3syn4item8printingNtB7_8UseGroupNtNtCs2cqEZUIJimJ_5quote9to_tokens8ToTokens9to_tokens, symObjAddr: 0x14850, symBinAddr: 0x5F5CC, symSize: 0x44 }
  - { offset: 0x13CD7A, size: 0x8, addend: 0x0, symName: __RNvXsi_NtNtCs6IAuOt8vWmF_3syn4item8printingNtB7_14TraitItemConstNtNtCs2cqEZUIJimJ_5quote9to_tokens8ToTokens9to_tokens, symObjAddr: 0x14894, symBinAddr: 0x5F610, symSize: 0x110 }
  - { offset: 0x13CDE7, size: 0x8, addend: 0x0, symName: __RNvXsj_NtNtCs6IAuOt8vWmF_3syn4item8printingNtB7_11TraitItemFnNtNtCs2cqEZUIJimJ_5quote9to_tokens8ToTokens9to_tokens, symObjAddr: 0x149A4, symBinAddr: 0x5F720, symSize: 0xD4 }
  - { offset: 0x13CE44, size: 0x8, addend: 0x0, symName: __RNvXsk_NtNtCs6IAuOt8vWmF_3syn4item8printingNtB7_13TraitItemTypeNtNtCs2cqEZUIJimJ_5quote9to_tokens8ToTokens9to_tokens, symObjAddr: 0x14A78, symBinAddr: 0x5F7F4, symSize: 0x168 }
  - { offset: 0x13CEB1, size: 0x8, addend: 0x0, symName: __RNvXsl_NtNtCs6IAuOt8vWmF_3syn4item8printingNtB7_14TraitItemMacroNtNtCs2cqEZUIJimJ_5quote9to_tokens8ToTokens9to_tokens, symObjAddr: 0x14BE0, symBinAddr: 0x5F95C, symSize: 0x74 }
  - { offset: 0x13CEF0, size: 0x8, addend: 0x0, symName: __RNvXsm_NtNtCs6IAuOt8vWmF_3syn4item8printingNtB7_13ImplItemConstNtNtCs2cqEZUIJimJ_5quote9to_tokens8ToTokens9to_tokens, symObjAddr: 0x14C54, symBinAddr: 0x5F9D0, symSize: 0xE4 }
  - { offset: 0x13CF2F, size: 0x8, addend: 0x0, symName: __RNvXsn_NtNtCs6IAuOt8vWmF_3syn4item8printingNtB7_10ImplItemFnNtNtCs2cqEZUIJimJ_5quote9to_tokens8ToTokens9to_tokens, symObjAddr: 0x14D38, symBinAddr: 0x5FAB4, symSize: 0x98 }
  - { offset: 0x13CF6E, size: 0x8, addend: 0x0, symName: __RNvXso_NtNtCs6IAuOt8vWmF_3syn4item8printingNtB7_12ImplItemTypeNtNtCs2cqEZUIJimJ_5quote9to_tokens8ToTokens9to_tokens, symObjAddr: 0x14DD0, symBinAddr: 0x5FB4C, symSize: 0xE4 }
  - { offset: 0x13CFAD, size: 0x8, addend: 0x0, symName: __RNvXsp_NtNtCs6IAuOt8vWmF_3syn4item8printingNtB7_13ImplItemMacroNtNtCs2cqEZUIJimJ_5quote9to_tokens8ToTokens9to_tokens, symObjAddr: 0x14EB4, symBinAddr: 0x5FC30, symSize: 0x74 }
  - { offset: 0x13CFEC, size: 0x8, addend: 0x0, symName: __RNvXsq_NtNtCs6IAuOt8vWmF_3syn4item8printingNtB7_13ForeignItemFnNtNtCs2cqEZUIJimJ_5quote9to_tokens8ToTokens9to_tokens, symObjAddr: 0x14F28, symBinAddr: 0x5FCA4, symSize: 0x84 }
  - { offset: 0x13D02B, size: 0x8, addend: 0x0, symName: __RNvXsr_NtNtCs6IAuOt8vWmF_3syn4item8printingNtB7_17ForeignItemStaticNtNtCs2cqEZUIJimJ_5quote9to_tokens8ToTokens9to_tokens, symObjAddr: 0x14FAC, symBinAddr: 0x5FD28, symSize: 0xC4 }
  - { offset: 0x13D06A, size: 0x8, addend: 0x0, symName: __RNvXss_NtNtCs6IAuOt8vWmF_3syn4item8printingNtB7_15ForeignItemTypeNtNtCs2cqEZUIJimJ_5quote9to_tokens8ToTokens9to_tokens, symObjAddr: 0x15070, symBinAddr: 0x5FDEC, symSize: 0xB4 }
  - { offset: 0x13D0A9, size: 0x8, addend: 0x0, symName: __RNvXst_NtNtCs6IAuOt8vWmF_3syn4item8printingNtB7_16ForeignItemMacroNtNtCs2cqEZUIJimJ_5quote9to_tokens8ToTokens9to_tokens, symObjAddr: 0x15124, symBinAddr: 0x5FEA0, symSize: 0x74 }
  - { offset: 0x13D0E8, size: 0x8, addend: 0x0, symName: __RNvXsu_NtNtCs6IAuOt8vWmF_3syn4item8printingNtB7_9SignatureNtNtCs2cqEZUIJimJ_5quote9to_tokens8ToTokens9to_tokens, symObjAddr: 0x15198, symBinAddr: 0x5FF14, symSize: 0xD4 }
  - { offset: 0x13D127, size: 0x8, addend: 0x0, symName: __RNvXsv_NtNtCs6IAuOt8vWmF_3syn4item8printingNtB7_8ReceiverNtNtCs2cqEZUIJimJ_5quote9to_tokens8ToTokens9to_tokens, symObjAddr: 0x1526C, symBinAddr: 0x5FFE8, symSize: 0x3FC }
  - { offset: 0x13D21F, size: 0x8, addend: 0x0, symName: __RNvXsw_NtNtCs6IAuOt8vWmF_3syn4item8printingNtB7_8VariadicNtNtCs2cqEZUIJimJ_5quote9to_tokens8ToTokens9to_tokens, symObjAddr: 0x15668, symBinAddr: 0x603E4, symSize: 0xE0 }
  - { offset: 0x13D28C, size: 0x8, addend: 0x0, symName: __RNvXsx_NtNtCs6IAuOt8vWmF_3syn4item8printingNtB7_16StaticMutabilityNtNtCs2cqEZUIJimJ_5quote9to_tokens8ToTokens9to_tokens, symObjAddr: 0x15748, symBinAddr: 0x604C4, symSize: 0x7C }
  - { offset: 0x13D2EF, size: 0x8, addend: 0x0, symName: __RNcNtNtNtCs6IAuOt8vWmF_3syn4item4Item4Enum0B7_, symObjAddr: 0x157C4, symBinAddr: 0x60540, symSize: 0x3C }
  - { offset: 0x13D31E, size: 0x8, addend: 0x0, symName: __RNcNtNtNtCs6IAuOt8vWmF_3syn4item4Item11ExternCrate0B7_, symObjAddr: 0x15800, symBinAddr: 0x6057C, symSize: 0x3C }
  - { offset: 0x13D34D, size: 0x8, addend: 0x0, symName: __RNcNtNtNtCs6IAuOt8vWmF_3syn4item4Item2Fn0B7_, symObjAddr: 0x1583C, symBinAddr: 0x605B8, symSize: 0x30 }
  - { offset: 0x13D37C, size: 0x8, addend: 0x0, symName: __RNcNtNtNtCs6IAuOt8vWmF_3syn4item4Item10ForeignMod0B7_, symObjAddr: 0x1586C, symBinAddr: 0x605E8, symSize: 0x3C }
  - { offset: 0x13D3AB, size: 0x8, addend: 0x0, symName: __RNcNtNtNtCs6IAuOt8vWmF_3syn4item4Item5Macro0B7_, symObjAddr: 0x158A8, symBinAddr: 0x60624, symSize: 0x3C }
  - { offset: 0x13D3DA, size: 0x8, addend: 0x0, symName: __RNcNtNtNtCs6IAuOt8vWmF_3syn4item4Item3Mod0B7_, symObjAddr: 0x158E4, symBinAddr: 0x60660, symSize: 0x3C }
  - { offset: 0x13D409, size: 0x8, addend: 0x0, symName: __RNcNtNtNtCs6IAuOt8vWmF_3syn4item4Item6Struct0B7_, symObjAddr: 0x15920, symBinAddr: 0x6069C, symSize: 0x3C }
  - { offset: 0x13D438, size: 0x8, addend: 0x0, symName: __RNcNtNtNtCs6IAuOt8vWmF_3syn4item4Item5Trait0B7_, symObjAddr: 0x1595C, symBinAddr: 0x606D8, symSize: 0x3C }
  - { offset: 0x13D467, size: 0x8, addend: 0x0, symName: __RNcNtNtNtCs6IAuOt8vWmF_3syn4item4Item10TraitAlias0B7_, symObjAddr: 0x15998, symBinAddr: 0x60714, symSize: 0x3C }
  - { offset: 0x13D496, size: 0x8, addend: 0x0, symName: __RNcNtNtNtCs6IAuOt8vWmF_3syn4item4Item5Union0B7_, symObjAddr: 0x159D4, symBinAddr: 0x60750, symSize: 0x3C }
  - { offset: 0x13D4C6, size: 0x8, addend: 0x0, symName: __RNvXsk_NtCs6IAuOt8vWmF_3syn4itemNtB5_4ItemNtNtCs2cqEZUIJimJ_5quote9to_tokens8ToTokens9to_tokens, symObjAddr: 0x15E78, symBinAddr: 0x6078C, symSize: 0x230 }
  - { offset: 0x13D6D8, size: 0x8, addend: 0x0, symName: __RNvXsq_NtCs6IAuOt8vWmF_3syn4itemNtB5_7UseTreeNtNtCs2cqEZUIJimJ_5quote9to_tokens8ToTokens9to_tokens, symObjAddr: 0x161F4, symBinAddr: 0x609BC, symSize: 0x10C }
  - { offset: 0x13D7AA, size: 0x8, addend: 0x0, symName: __RNcNtNtNtCs6IAuOt8vWmF_3syn4item11ForeignItem5Macro0B7_, symObjAddr: 0x16300, symBinAddr: 0x60AC8, symSize: 0x3C }
  - { offset: 0x13D7DC, size: 0x8, addend: 0x0, symName: __RNvXsv_NtCs6IAuOt8vWmF_3syn4itemNtB5_11ForeignItemNtNtCs2cqEZUIJimJ_5quote9to_tokens8ToTokens9to_tokens, symObjAddr: 0x16460, symBinAddr: 0x60B04, symSize: 0x118 }
  - { offset: 0x13D8AE, size: 0x8, addend: 0x0, symName: __RNcNtNtNtCs6IAuOt8vWmF_3syn4item9TraitItem2Fn0B7_, symObjAddr: 0x16578, symBinAddr: 0x60C1C, symSize: 0x3C }
  - { offset: 0x13D8DF, size: 0x8, addend: 0x0, symName: __RNcNtNtNtCs6IAuOt8vWmF_3syn4item9TraitItem5Macro0B7_, symObjAddr: 0x165B4, symBinAddr: 0x60C58, symSize: 0x3C }
  - { offset: 0x13D911, size: 0x8, addend: 0x0, symName: __RNvXsA_NtCs6IAuOt8vWmF_3syn4itemNtB5_9TraitItemNtNtCs2cqEZUIJimJ_5quote9to_tokens8ToTokens9to_tokens, symObjAddr: 0x16714, symBinAddr: 0x60C94, symSize: 0x118 }
  - { offset: 0x13D9E3, size: 0x8, addend: 0x0, symName: __RNcNtNtNtCs6IAuOt8vWmF_3syn4item8ImplItem5Macro0B7_, symObjAddr: 0x1682C, symBinAddr: 0x60DAC, symSize: 0x3C }
  - { offset: 0x13DA15, size: 0x8, addend: 0x0, symName: __RNvXsF_NtCs6IAuOt8vWmF_3syn4itemNtB5_8ImplItemNtNtCs2cqEZUIJimJ_5quote9to_tokens8ToTokens9to_tokens, symObjAddr: 0x1698C, symBinAddr: 0x60DE8, symSize: 0x118 }
  - { offset: 0x13DAE2, size: 0x8, addend: 0x0, symName: __RNvXsI_NtCs6IAuOt8vWmF_3syn4itemNtB5_5FnArgNtNtCs2cqEZUIJimJ_5quote9to_tokens8ToTokens9to_tokens, symObjAddr: 0x16B30, symBinAddr: 0x60F00, symSize: 0x8C }
  - { offset: 0x13DB5D, size: 0x8, addend: 0x0, symName: __RNcNtNtNtCs6IAuOt8vWmF_3syn4item16StaticMutability3Mut0B7_, symObjAddr: 0x16BBC, symBinAddr: 0x60F8C, symSize: 0x20 }
  - { offset: 0x14160B, size: 0x8, addend: 0x0, symName: __RNvXs16_NtNtCs6IAuOt8vWmF_3syn3gen5cloneNtNtBa_4item5FnArgNtNtCsfvfooZQ3Axs_4core5clone5Clone5clone, symObjAddr: 0x16BDC, symBinAddr: 0x60FAC, symSize: 0xDC }
  - { offset: 0x141673, size: 0x8, addend: 0x0, symName: __RNvXs17_NtNtCs6IAuOt8vWmF_3syn3gen5cloneNtNtBa_4item11ForeignItemNtNtCsfvfooZQ3Axs_4core5clone5Clone5clone, symObjAddr: 0x16CB8, symBinAddr: 0x61088, symSize: 0x224 }
  - { offset: 0x141735, size: 0x8, addend: 0x0, symName: __RNvXs18_NtNtCs6IAuOt8vWmF_3syn3gen5cloneNtNtBa_4item13ForeignItemFnNtNtCsfvfooZQ3Axs_4core5clone5Clone5clone, symObjAddr: 0x16EDC, symBinAddr: 0x612AC, symSize: 0x13C }
  - { offset: 0x141769, size: 0x8, addend: 0x0, symName: __RNvXs19_NtNtCs6IAuOt8vWmF_3syn3gen5cloneNtNtBa_4item16ForeignItemMacroNtNtCsfvfooZQ3Axs_4core5clone5Clone5clone, symObjAddr: 0x17018, symBinAddr: 0x613E8, symSize: 0xF4 }
  - { offset: 0x14179D, size: 0x8, addend: 0x0, symName: __RNvXs1a_NtNtCs6IAuOt8vWmF_3syn3gen5cloneNtNtBa_4item17ForeignItemStaticNtNtCsfvfooZQ3Axs_4core5clone5Clone5clone, symObjAddr: 0x1710C, symBinAddr: 0x614DC, symSize: 0x1DC }
  - { offset: 0x1417D1, size: 0x8, addend: 0x0, symName: __RNvXs1b_NtNtCs6IAuOt8vWmF_3syn3gen5cloneNtNtBa_4item15ForeignItemTypeNtNtCsfvfooZQ3Axs_4core5clone5Clone5clone, symObjAddr: 0x172E8, symBinAddr: 0x616B8, symSize: 0x198 }
  - { offset: 0x141805, size: 0x8, addend: 0x0, symName: __RNvXs1f_NtNtCs6IAuOt8vWmF_3syn3gen5cloneNtNtBa_4item8ImplItemNtNtCsfvfooZQ3Axs_4core5clone5Clone5clone, symObjAddr: 0x17480, symBinAddr: 0x61850, symSize: 0x21C }
  - { offset: 0x1418C7, size: 0x8, addend: 0x0, symName: __RNvXs1g_NtNtCs6IAuOt8vWmF_3syn3gen5cloneNtNtBa_4item13ImplItemConstNtNtCsfvfooZQ3Axs_4core5clone5Clone5clone, symObjAddr: 0x1769C, symBinAddr: 0x61A6C, symSize: 0x2AC }
  - { offset: 0x1418FB, size: 0x8, addend: 0x0, symName: __RNvXs1h_NtNtCs6IAuOt8vWmF_3syn3gen5cloneNtNtBa_4item10ImplItemFnNtNtCsfvfooZQ3Axs_4core5clone5Clone5clone, symObjAddr: 0x17948, symBinAddr: 0x61D18, symSize: 0x160 }
  - { offset: 0x14192F, size: 0x8, addend: 0x0, symName: __RNvXs1i_NtNtCs6IAuOt8vWmF_3syn3gen5cloneNtNtBa_4item13ImplItemMacroNtNtCsfvfooZQ3Axs_4core5clone5Clone5clone, symObjAddr: 0x17AA8, symBinAddr: 0x61E78, symSize: 0xF4 }
  - { offset: 0x141963, size: 0x8, addend: 0x0, symName: __RNvXs1j_NtNtCs6IAuOt8vWmF_3syn3gen5cloneNtNtBa_4item12ImplItemTypeNtNtCsfvfooZQ3Axs_4core5clone5Clone5clone, symObjAddr: 0x17B9C, symBinAddr: 0x61F6C, symSize: 0x238 }
  - { offset: 0x141997, size: 0x8, addend: 0x0, symName: __RNvXs1m_NtNtCs6IAuOt8vWmF_3syn3gen5cloneNtNtBa_4item4ItemNtNtCsfvfooZQ3Axs_4core5clone5Clone5clone, symObjAddr: 0x17DE0, symBinAddr: 0x621A4, symSize: 0x5D0 }
  - { offset: 0x141BAE, size: 0x8, addend: 0x0, symName: __RNvXs1n_NtNtCs6IAuOt8vWmF_3syn3gen5cloneNtNtBa_4item9ItemConstNtNtCsfvfooZQ3Axs_4core5clone5Clone5clone, symObjAddr: 0x183B0, symBinAddr: 0x62774, symSize: 0x270 }
  - { offset: 0x141BE2, size: 0x8, addend: 0x0, symName: __RNvXs1o_NtNtCs6IAuOt8vWmF_3syn3gen5cloneNtNtBa_4item8ItemEnumNtNtCsfvfooZQ3Axs_4core5clone5Clone5clone, symObjAddr: 0x18620, symBinAddr: 0x629E4, symSize: 0x1C0 }
  - { offset: 0x141C16, size: 0x8, addend: 0x0, symName: __RNvXs1p_NtNtCs6IAuOt8vWmF_3syn3gen5cloneNtNtBa_4item15ItemExternCrateNtNtCsfvfooZQ3Axs_4core5clone5Clone5clone, symObjAddr: 0x187E0, symBinAddr: 0x62BA4, symSize: 0x1A4 }
  - { offset: 0x141C4A, size: 0x8, addend: 0x0, symName: __RNvXs1q_NtNtCs6IAuOt8vWmF_3syn3gen5cloneNtNtBa_4item6ItemFnNtNtCsfvfooZQ3Axs_4core5clone5Clone5clone, symObjAddr: 0x18984, symBinAddr: 0x62D48, symSize: 0x12C }
  - { offset: 0x141C7E, size: 0x8, addend: 0x0, symName: __RNvXs1r_NtNtCs6IAuOt8vWmF_3syn3gen5cloneNtNtBa_4item14ItemForeignModNtNtCsfvfooZQ3Axs_4core5clone5Clone5clone, symObjAddr: 0x18AB0, symBinAddr: 0x62E74, symSize: 0x14C }
  - { offset: 0x141CB2, size: 0x8, addend: 0x0, symName: __RNvXs1s_NtNtCs6IAuOt8vWmF_3syn3gen5cloneNtNtBa_4item8ItemImplNtNtCsfvfooZQ3Axs_4core5clone5Clone5clone, symObjAddr: 0x18BFC, symBinAddr: 0x62FC0, symSize: 0x220 }
  - { offset: 0x141CE6, size: 0x8, addend: 0x0, symName: __RNvXs1t_NtNtCs6IAuOt8vWmF_3syn3gen5cloneNtNtBa_4item9ItemMacroNtNtCsfvfooZQ3Axs_4core5clone5Clone5clone, symObjAddr: 0x18E1C, symBinAddr: 0x631E0, symSize: 0x134 }
  - { offset: 0x141D1A, size: 0x8, addend: 0x0, symName: __RNvXs1u_NtNtCs6IAuOt8vWmF_3syn3gen5cloneNtNtBa_4item7ItemModNtNtCsfvfooZQ3Axs_4core5clone5Clone5clone, symObjAddr: 0x18F50, symBinAddr: 0x63314, symSize: 0x1B8 }
  - { offset: 0x141D4E, size: 0x8, addend: 0x0, symName: __RNvXs1v_NtNtCs6IAuOt8vWmF_3syn3gen5cloneNtNtBa_4item10ItemStaticNtNtCsfvfooZQ3Axs_4core5clone5Clone5clone, symObjAddr: 0x19108, symBinAddr: 0x634CC, symSize: 0x248 }
  - { offset: 0x141D82, size: 0x8, addend: 0x0, symName: __RNvXs1w_NtNtCs6IAuOt8vWmF_3syn3gen5cloneNtNtBa_4item10ItemStructNtNtCsfvfooZQ3Axs_4core5clone5Clone5clone, symObjAddr: 0x19350, symBinAddr: 0x63714, symSize: 0x1DC }
  - { offset: 0x141DB6, size: 0x8, addend: 0x0, symName: __RNvXs1x_NtNtCs6IAuOt8vWmF_3syn3gen5cloneNtNtBa_4item9ItemTraitNtNtCsfvfooZQ3Axs_4core5clone5Clone5clone, symObjAddr: 0x1952C, symBinAddr: 0x638F0, symSize: 0x288 }
  - { offset: 0x141DEA, size: 0x8, addend: 0x0, symName: __RNvXs1y_NtNtCs6IAuOt8vWmF_3syn3gen5cloneNtNtBa_4item14ItemTraitAliasNtNtCsfvfooZQ3Axs_4core5clone5Clone5clone, symObjAddr: 0x197B4, symBinAddr: 0x63B78, symSize: 0x204 }
  - { offset: 0x141E1E, size: 0x8, addend: 0x0, symName: __RNvXs1z_NtNtCs6IAuOt8vWmF_3syn3gen5cloneNtNtBa_4item8ItemTypeNtNtCsfvfooZQ3Axs_4core5clone5Clone5clone, symObjAddr: 0x199B8, symBinAddr: 0x63D7C, symSize: 0x204 }
  - { offset: 0x141E52, size: 0x8, addend: 0x0, symName: __RNvXs1A_NtNtCs6IAuOt8vWmF_3syn3gen5cloneNtNtBa_4item9ItemUnionNtNtCsfvfooZQ3Axs_4core5clone5Clone5clone, symObjAddr: 0x19BBC, symBinAddr: 0x63F80, symSize: 0x194 }
  - { offset: 0x141E86, size: 0x8, addend: 0x0, symName: __RNvXs1B_NtNtCs6IAuOt8vWmF_3syn3gen5cloneNtNtBa_4item7ItemUseNtNtCsfvfooZQ3Axs_4core5clone5Clone5clone, symObjAddr: 0x19D50, symBinAddr: 0x64114, symSize: 0x174 }
  - { offset: 0x141EBA, size: 0x8, addend: 0x0, symName: __RNvXs2b_NtNtCs6IAuOt8vWmF_3syn3gen5cloneNtNtBa_4item8ReceiverNtNtCsfvfooZQ3Axs_4core5clone5Clone5clone, symObjAddr: 0x19EC4, symBinAddr: 0x64288, symSize: 0x154 }
  - { offset: 0x141EEE, size: 0x8, addend: 0x0, symName: __RNvXs2d_NtNtCs6IAuOt8vWmF_3syn3gen5cloneNtNtBa_4item9SignatureNtNtCsfvfooZQ3Axs_4core5clone5Clone5clone, symObjAddr: 0x1A018, symBinAddr: 0x643DC, symSize: 0x278 }
  - { offset: 0x141F22, size: 0x8, addend: 0x0, symName: __RNvXs2e_NtNtCs6IAuOt8vWmF_3syn3gen5cloneNtNtBa_4item16StaticMutabilityNtNtCsfvfooZQ3Axs_4core5clone5Clone5clone, symObjAddr: 0x1A290, symBinAddr: 0x64654, symSize: 0x88 }
  - { offset: 0x141F74, size: 0x8, addend: 0x0, symName: __RNvXs2k_NtNtCs6IAuOt8vWmF_3syn3gen5cloneNtNtBa_4item9TraitItemNtNtCsfvfooZQ3Axs_4core5clone5Clone5clone, symObjAddr: 0x1A318, symBinAddr: 0x646DC, symSize: 0x21C }
  - { offset: 0x142036, size: 0x8, addend: 0x0, symName: __RNvXs2l_NtNtCs6IAuOt8vWmF_3syn3gen5cloneNtNtBa_4item14TraitItemConstNtNtCsfvfooZQ3Axs_4core5clone5Clone5clone, symObjAddr: 0x1A534, symBinAddr: 0x648F8, symSize: 0x218 }
  - { offset: 0x14206A, size: 0x8, addend: 0x0, symName: __RNvXs2m_NtNtCs6IAuOt8vWmF_3syn3gen5cloneNtNtBa_4item11TraitItemFnNtNtCsfvfooZQ3Axs_4core5clone5Clone5clone, symObjAddr: 0x1A74C, symBinAddr: 0x64B10, symSize: 0x140 }
  - { offset: 0x14209E, size: 0x8, addend: 0x0, symName: __RNvXs2n_NtNtCs6IAuOt8vWmF_3syn3gen5cloneNtNtBa_4item14TraitItemMacroNtNtCsfvfooZQ3Axs_4core5clone5Clone5clone, symObjAddr: 0x1A88C, symBinAddr: 0x64C50, symSize: 0xF4 }
  - { offset: 0x1420D2, size: 0x8, addend: 0x0, symName: __RNvXs2o_NtNtCs6IAuOt8vWmF_3syn3gen5cloneNtNtBa_4item13TraitItemTypeNtNtCsfvfooZQ3Axs_4core5clone5Clone5clone, symObjAddr: 0x1A980, symBinAddr: 0x64D44, symSize: 0x20C }
  - { offset: 0x142106, size: 0x8, addend: 0x0, symName: __RNvXs2I_NtNtCs6IAuOt8vWmF_3syn3gen5cloneNtNtBa_4item7UseGlobNtNtCsfvfooZQ3Axs_4core5clone5Clone5clone, symObjAddr: 0x1AB8C, symBinAddr: 0x64F50, symSize: 0x4C }
  - { offset: 0x14213A, size: 0x8, addend: 0x0, symName: __RNvXs2J_NtNtCs6IAuOt8vWmF_3syn3gen5cloneNtNtBa_4item8UseGroupNtNtCsfvfooZQ3Axs_4core5clone5Clone5clone, symObjAddr: 0x1ABD8, symBinAddr: 0x64F9C, symSize: 0x70 }
  - { offset: 0x14216E, size: 0x8, addend: 0x0, symName: __RNvXs2K_NtNtCs6IAuOt8vWmF_3syn3gen5cloneNtNtBa_4item7UseNameNtNtCsfvfooZQ3Axs_4core5clone5Clone5clone, symObjAddr: 0x1AC48, symBinAddr: 0x6500C, symSize: 0x50 }
  - { offset: 0x1421A2, size: 0x8, addend: 0x0, symName: __RNvXs2L_NtNtCs6IAuOt8vWmF_3syn3gen5cloneNtNtBa_4item7UsePathNtNtCsfvfooZQ3Axs_4core5clone5Clone5clone, symObjAddr: 0x1AC98, symBinAddr: 0x6505C, symSize: 0xC0 }
  - { offset: 0x1421D6, size: 0x8, addend: 0x0, symName: __RNvXs2M_NtNtCs6IAuOt8vWmF_3syn3gen5cloneNtNtBa_4item9UseRenameNtNtCsfvfooZQ3Axs_4core5clone5Clone5clone, symObjAddr: 0x1AD58, symBinAddr: 0x6511C, symSize: 0xB8 }
  - { offset: 0x14220A, size: 0x8, addend: 0x0, symName: __RNvXs2N_NtNtCs6IAuOt8vWmF_3syn3gen5cloneNtNtBa_4item7UseTreeNtNtCsfvfooZQ3Axs_4core5clone5Clone5clone, symObjAddr: 0x1AE10, symBinAddr: 0x651D4, symSize: 0x20C }
  - { offset: 0x1422CD, size: 0x8, addend: 0x0, symName: __RNvXs2O_NtNtCs6IAuOt8vWmF_3syn3gen5cloneNtNtBa_4item8VariadicNtNtCsfvfooZQ3Axs_4core5clone5Clone5clone, symObjAddr: 0x1B01C, symBinAddr: 0x653E0, symSize: 0x108 }
  - { offset: 0x143C96, size: 0x8, addend: 0x0, symName: __RINvXNtNtCse1nGBsou5OW_5alloc5slice4hackNtNtCs6IAuOt8vWmF_3syn4item11ForeignItemNtB3_10ConvertVec6to_vecNtNtB7_5alloc6GlobalEBG_, symObjAddr: 0x0, symBinAddr: 0x525B0, symSize: 0x36C }
  - { offset: 0x144159, size: 0x8, addend: 0x0, symName: __RINvXNtNtCse1nGBsou5OW_5alloc5slice4hackNtNtCs6IAuOt8vWmF_3syn4item4ItemNtB3_10ConvertVec6to_vecNtNtB7_5alloc6GlobalEBG_, symObjAddr: 0x36C, symBinAddr: 0x5291C, symSize: 0x36C }
  - { offset: 0x14461C, size: 0x8, addend: 0x0, symName: __RINvXNtNtCse1nGBsou5OW_5alloc5slice4hackNtNtCs6IAuOt8vWmF_3syn4item8ImplItemNtB3_10ConvertVec6to_vecNtNtB7_5alloc6GlobalEBG_, symObjAddr: 0x6D8, symBinAddr: 0x52C88, symSize: 0x36C }
  - { offset: 0x144ADF, size: 0x8, addend: 0x0, symName: __RINvXNtNtCse1nGBsou5OW_5alloc5slice4hackNtNtCs6IAuOt8vWmF_3syn4item9TraitItemNtB3_10ConvertVec6to_vecNtNtB7_5alloc6GlobalEBG_, symObjAddr: 0xA44, symBinAddr: 0x52FF4, symSize: 0x36C }
  - { offset: 0x144FA2, size: 0x8, addend: 0x0, symName: __RINvXNtNtCse1nGBsou5OW_5alloc5slice4hackTNtNtCs6IAuOt8vWmF_3syn4item5FnArgNtNtBH_5token5CommaENtB3_10ConvertVec6to_vecNtNtB7_5alloc6GlobalEBH_, symObjAddr: 0xDB0, symBinAddr: 0x53360, symSize: 0x368 }
  - { offset: 0x145465, size: 0x8, addend: 0x0, symName: __RINvXNtNtCse1nGBsou5OW_5alloc5slice4hackTNtNtCs6IAuOt8vWmF_3syn4item7UseTreeNtNtBH_5token5CommaENtB3_10ConvertVec6to_vecNtNtB7_5alloc6GlobalEBH_, symObjAddr: 0x1118, symBinAddr: 0x536C8, symSize: 0x368 }
  - { offset: 0x149C1A, size: 0x8, addend: 0x0, symName: __RNvMNtCsfvfooZQ3Axs_4core5sliceSTNtNtCs6IAuOt8vWmF_3syn4item5FnArgNtNtBz_5token5CommaE4iterBz_, symObjAddr: 0x1480, symBinAddr: 0x53A30, symSize: 0x28 }
  - { offset: 0x149C51, size: 0x8, addend: 0x0, symName: __RNvMNtCsfvfooZQ3Axs_4core5sliceSTNtNtCs6IAuOt8vWmF_3syn4item7UseTreeNtNtBz_5token5CommaE4iterBz_, symObjAddr: 0x14A8, symBinAddr: 0x53A58, symSize: 0x28 }
  - { offset: 0x14A341, size: 0x8, addend: 0x0, symName: __RNvXNtNtCsfvfooZQ3Axs_4core5clone6uninitNtNtCs6IAuOt8vWmF_3syn4item5FnArgNtB2_8CopySpec9clone_oneBG_, symObjAddr: 0x1650, symBinAddr: 0x53C00, symSize: 0x48 }
  - { offset: 0x14A3A5, size: 0x8, addend: 0x0, symName: __RNvXNtNtCsfvfooZQ3Axs_4core5clone6uninitNtNtCs6IAuOt8vWmF_3syn4item7UseTreeNtB2_8CopySpec9clone_oneBG_, symObjAddr: 0x1698, symBinAddr: 0x53C48, symSize: 0x48 }
  - { offset: 0x14CB35, size: 0x8, addend: 0x0, symName: __RNvXNtCs2cqEZUIJimJ_5quote9to_tokensRNtNtCs6IAuOt8vWmF_3syn4item11ForeignItemNtB2_8ToTokens9to_tokensBD_, symObjAddr: 0x14D0, symBinAddr: 0x53A80, symSize: 0x40 }
  - { offset: 0x14CB74, size: 0x8, addend: 0x0, symName: __RNvXNtCs2cqEZUIJimJ_5quote9to_tokensRNtNtCs6IAuOt8vWmF_3syn4item4ItemNtB2_8ToTokens9to_tokensBD_, symObjAddr: 0x1510, symBinAddr: 0x53AC0, symSize: 0x40 }
  - { offset: 0x14CBB3, size: 0x8, addend: 0x0, symName: __RNvXNtCs2cqEZUIJimJ_5quote9to_tokensRNtNtCs6IAuOt8vWmF_3syn4item5FnArgNtB2_8ToTokens9to_tokensBD_, symObjAddr: 0x1550, symBinAddr: 0x53B00, symSize: 0x40 }
  - { offset: 0x14CBF2, size: 0x8, addend: 0x0, symName: __RNvXNtCs2cqEZUIJimJ_5quote9to_tokensRNtNtCs6IAuOt8vWmF_3syn4item7UseTreeNtB2_8ToTokens9to_tokensBD_, symObjAddr: 0x1590, symBinAddr: 0x53B40, symSize: 0x40 }
  - { offset: 0x14CC31, size: 0x8, addend: 0x0, symName: __RNvXNtCs2cqEZUIJimJ_5quote9to_tokensRNtNtCs6IAuOt8vWmF_3syn4item8ImplItemNtB2_8ToTokens9to_tokensBD_, symObjAddr: 0x15D0, symBinAddr: 0x53B80, symSize: 0x40 }
  - { offset: 0x14CC70, size: 0x8, addend: 0x0, symName: __RNvXNtCs2cqEZUIJimJ_5quote9to_tokensRNtNtCs6IAuOt8vWmF_3syn4item9TraitItemNtB2_8ToTokens9to_tokensBD_, symObjAddr: 0x1610, symBinAddr: 0x53BC0, symSize: 0x40 }
  - { offset: 0x14CCCC, size: 0x8, addend: 0x0, symName: __RNvMNtCs6IAuOt8vWmF_3syn4itemNtB2_4Item13replace_attrs, symObjAddr: 0x2BF8, symBinAddr: 0x53C90, symSize: 0x328 }
  - { offset: 0x14D27E, size: 0x8, addend: 0x0, symName: __RINvMs_NtCse1nGBsou5OW_5alloc3vecINtB5_3VecReE10retain_mutNCNvMNtCs6IAuOt8vWmF_3syn9lookaheadNtBZ_10Lookahead15error0EB11_, symObjAddr: 0x0, symBinAddr: 0x654E8, symSize: 0xE4 }
  - { offset: 0x14E023, size: 0x8, addend: 0x0, symName: __RNvXs1a_NtCsfvfooZQ3Axs_4core3fmtRINtNtCse1nGBsou5OW_5alloc3vec3VechENtB6_5Debug3fmtCs6IAuOt8vWmF_3syn, symObjAddr: 0x6C30, symBinAddr: 0x69C8C, symSize: 0x30 }
  - { offset: 0x1556FF, size: 0x8, addend: 0x0, symName: __RNvXs1_NtCsfvfooZQ3Axs_4core7convertINtNtCse1nGBsou5OW_5alloc3vec3VechEINtB5_4IntoBy_E4intoCs6IAuOt8vWmF_3syn, symObjAddr: 0x6BE8, symBinAddr: 0x69C74, symSize: 0x18 }
  - { offset: 0x15593C, size: 0x8, addend: 0x0, symName: __RINvNvMs_NtCse1nGBsou5OW_5alloc3vecINtB7_3VecppE10retain_mut12process_loopNCNvMNtCs6IAuOt8vWmF_3syn9lookaheadNtB1f_10Lookahead15error0ReNtNtB9_5alloc6GlobalKb0_EB1h_, symObjAddr: 0xC64, symBinAddr: 0x65AC8, symSize: 0xCC }
  - { offset: 0x155A90, size: 0x8, addend: 0x0, symName: __RINvNvMs_NtCse1nGBsou5OW_5alloc3vecINtB7_3VecppE10retain_mut12process_loopNCNvMNtCs6IAuOt8vWmF_3syn9lookaheadNtB1f_10Lookahead15error0ReNtNtB9_5alloc6GlobalKb1_EB1h_, symObjAddr: 0xD30, symBinAddr: 0x65B94, symSize: 0x168 }
  - { offset: 0x155C86, size: 0x8, addend: 0x0, symName: __RNvXNvMs_NtCse1nGBsou5OW_5alloc3vecINtB7_3VecppE10retain_mutINtB2_15BackshiftOnDropReNtNtB9_5alloc6GlobalENtNtNtCsfvfooZQ3Axs_4core3ops4drop4Drop4dropCs6IAuOt8vWmF_3syn, symObjAddr: 0x681C, symBinAddr: 0x69940, symSize: 0x124 }
  - { offset: 0x1586F1, size: 0x8, addend: 0x0, symName: __RINvXsh_NtCse1nGBsou5OW_5alloc3vecINtB6_3VecNtCs3cP53eQoTwO_11proc_macro29TokenTreeEINtNtNtNtCsfvfooZQ3Axs_4core4iter6traits7collect6ExtendBG_E6extendINtNtNtB1r_8adapters7flatten7FlattenINtNtB2t_3map3MapIB2Z_IB2Z_INtNtNtB1t_5slice4iter4IterNtNtCs6IAuOt8vWmF_3syn5error12ErrorMessageENvMs_B3S_B3Q_16to_compile_errorENCINvXs7_BI_NtBI_11TokenStreamINtB1n_12FromIteratorB5f_E9from_iterB3k_E0ENCINvXs6_NtBI_3impNtB6n_11TokenStreamIB5y_B6w_E9from_iterB3f_Es_0EEEB3U_, symObjAddr: 0xED4, symBinAddr: 0x65CFC, symSize: 0x48 }
  - { offset: 0x158746, size: 0x8, addend: 0x0, symName: __RINvXsh_NtCse1nGBsou5OW_5alloc3vecINtB6_3VecNtNtCs6IAuOt8vWmF_3syn4attr9AttributeEINtNtNtNtCsfvfooZQ3Axs_4core4iter6traits7collect6ExtendBG_E6extendBw_EBK_, symObjAddr: 0xF1C, symBinAddr: 0x65D44, symSize: 0x48 }
  - { offset: 0x15879B, size: 0x8, addend: 0x0, symName: __RINvXsh_NtCse1nGBsou5OW_5alloc3vecINtB6_3VecNtNtCs6IAuOt8vWmF_3syn8generics14TypeParamBoundEINtNtNtNtCsfvfooZQ3Axs_4core4iter6traits7collect6ExtendBG_E6extendINtNtB1B_6option6OptionBG_EEBK_, symObjAddr: 0x108C, symBinAddr: 0x65D8C, symSize: 0x48 }
  - { offset: 0x1587F0, size: 0x8, addend: 0x0, symName: __RINvXsh_NtCse1nGBsou5OW_5alloc3vecINtB6_3VecNtNtCs6IAuOt8vWmF_3syn8generics14TypeParamBoundEINtNtNtNtCsfvfooZQ3Axs_4core4iter6traits7collect6ExtendBG_E6extendINtNtNtB1z_8adapters3map3MapINtNtB6_9into_iter8IntoIterTBG_NtNtBK_5token4PlusEENCNvXs8_NtBK_10punctuatedINtB3V_10PunctuatedBG_B3t_ENtB1v_12IntoIterator9into_iter0EEBK_, symObjAddr: 0x10D4, symBinAddr: 0x65DD4, symSize: 0x48 }
  - { offset: 0x158850, size: 0x8, addend: 0x0, symName: __RNCINvMsi_NtCse1nGBsou5OW_5alloc3vecINtB8_3VecNtNtCs6IAuOt8vWmF_3syn8generics14TypeParamBoundE14extend_trustedINtNtCsfvfooZQ3Axs_4core6option8IntoIterBI_EE0BM_, symObjAddr: 0x1218, symBinAddr: 0x65E1C, symSize: 0x54 }
  - { offset: 0x15890E, size: 0x8, addend: 0x0, symName: __RNCINvMsi_NtCse1nGBsou5OW_5alloc3vecINtB8_3VecNtNtCs6IAuOt8vWmF_3syn8generics14TypeParamBoundE14extend_trustedINtNtNtNtCsfvfooZQ3Axs_4core4iter8adapters3map3MapINtNtB8_9into_iter8IntoIterTBI_NtNtBM_5token4PlusEENCNvXs8_NtBM_10punctuatedINtB3v_10PunctuatedBI_B33_ENtNtNtB1R_6traits7collect12IntoIterator9into_iter0EE0BM_, symObjAddr: 0x126C, symBinAddr: 0x65E70, symSize: 0x54 }
  - { offset: 0x158E0E, size: 0x8, addend: 0x0, symName: __RNvXs6_NtCse1nGBsou5OW_5alloc3vecINtB5_3VecNtNtCs6IAuOt8vWmF_3syn4attr9AttributeENtNtNtCsfvfooZQ3Axs_4core3ops5deref5Deref5derefBJ_, symObjAddr: 0x6C60, symBinAddr: 0x69CBC, symSize: 0x24 }
  - { offset: 0x158E4E, size: 0x8, addend: 0x0, symName: __RNvXs6_NtCse1nGBsou5OW_5alloc3vecINtB5_3VecNtNtCs6IAuOt8vWmF_3syn4expr3ArmENtNtNtCsfvfooZQ3Axs_4core3ops5deref5Deref5derefBJ_, symObjAddr: 0x6C84, symBinAddr: 0x69CE0, symSize: 0x24 }
  - { offset: 0x158E8E, size: 0x8, addend: 0x0, symName: __RNvXs6_NtCse1nGBsou5OW_5alloc3vecINtB5_3VecNtNtCs6IAuOt8vWmF_3syn5error12ErrorMessageENtNtNtCsfvfooZQ3Axs_4core3ops5deref5Deref5derefBJ_, symObjAddr: 0x6CA8, symBinAddr: 0x69D04, symSize: 0x24 }
  - { offset: 0x158ECE, size: 0x8, addend: 0x0, symName: __RNvXs6_NtCse1nGBsou5OW_5alloc3vecINtB5_3VecReENtNtNtCsfvfooZQ3Axs_4core3ops5deref5Deref5derefCs6IAuOt8vWmF_3syn, symObjAddr: 0x6CCC, symBinAddr: 0x69D28, symSize: 0x24 }
  - { offset: 0x158F0E, size: 0x8, addend: 0x0, symName: __RNvXs6_NtCse1nGBsou5OW_5alloc3vecINtB5_3VecTNtNtCs6IAuOt8vWmF_3syn2ty4TypeNtNtBK_5token5CommaEENtNtNtCsfvfooZQ3Axs_4core3ops5deref5Deref5derefBK_, symObjAddr: 0x6CF0, symBinAddr: 0x69D4C, symSize: 0x24 }
  - { offset: 0x158F4E, size: 0x8, addend: 0x0, symName: __RNvXs6_NtCse1nGBsou5OW_5alloc3vecINtB5_3VecTNtNtCs6IAuOt8vWmF_3syn2ty9BareFnArgNtNtBK_5token5CommaEENtNtNtCsfvfooZQ3Axs_4core3ops5deref5Deref5derefBK_, symObjAddr: 0x6D14, symBinAddr: 0x69D70, symSize: 0x24 }
  - { offset: 0x158F8E, size: 0x8, addend: 0x0, symName: __RNvXs6_NtCse1nGBsou5OW_5alloc3vecINtB5_3VecTNtNtCs6IAuOt8vWmF_3syn3pat3PatNtNtBK_5token2OrEENtNtNtCsfvfooZQ3Axs_4core3ops5deref5Deref5derefBK_, symObjAddr: 0x6D38, symBinAddr: 0x69D94, symSize: 0x24 }
  - { offset: 0x158FCE, size: 0x8, addend: 0x0, symName: __RNvXs6_NtCse1nGBsou5OW_5alloc3vecINtB5_3VecTNtNtCs6IAuOt8vWmF_3syn3pat3PatNtNtBK_5token5CommaEENtNtNtCsfvfooZQ3Axs_4core3ops5deref5Deref5derefBK_, symObjAddr: 0x6D5C, symBinAddr: 0x69DB8, symSize: 0x24 }
  - { offset: 0x15900E, size: 0x8, addend: 0x0, symName: __RNvXs6_NtCse1nGBsou5OW_5alloc3vecINtB5_3VecTNtNtCs6IAuOt8vWmF_3syn3pat8FieldPatNtNtBK_5token5CommaEENtNtNtCsfvfooZQ3Axs_4core3ops5deref5Deref5derefBK_, symObjAddr: 0x6D80, symBinAddr: 0x69DDC, symSize: 0x24 }
  - { offset: 0x15904E, size: 0x8, addend: 0x0, symName: __RNvXs6_NtCse1nGBsou5OW_5alloc3vecINtB5_3VecTNtNtCs6IAuOt8vWmF_3syn4data5FieldNtNtBK_5token5CommaEENtNtNtCsfvfooZQ3Axs_4core3ops5deref5Deref5derefBK_, symObjAddr: 0x6DA4, symBinAddr: 0x69E00, symSize: 0x24 }
  - { offset: 0x15908E, size: 0x8, addend: 0x0, symName: __RNvXs6_NtCse1nGBsou5OW_5alloc3vecINtB5_3VecTNtNtCs6IAuOt8vWmF_3syn4data7VariantNtNtBK_5token5CommaEENtNtNtCsfvfooZQ3Axs_4core3ops5deref5Deref5derefBK_, symObjAddr: 0x6DC8, symBinAddr: 0x69E24, symSize: 0x24 }
  - { offset: 0x1590CE, size: 0x8, addend: 0x0, symName: __RNvXs6_NtCse1nGBsou5OW_5alloc3vecINtB5_3VecTNtNtCs6IAuOt8vWmF_3syn4expr10FieldValueNtNtBK_5token5CommaEENtNtNtCsfvfooZQ3Axs_4core3ops5deref5Deref5derefBK_, symObjAddr: 0x6DEC, symBinAddr: 0x69E48, symSize: 0x24 }
  - { offset: 0x15910E, size: 0x8, addend: 0x0, symName: __RNvXs6_NtCse1nGBsou5OW_5alloc3vecINtB5_3VecTNtNtCs6IAuOt8vWmF_3syn4expr4ExprNtNtBK_5token5CommaEENtNtNtCsfvfooZQ3Axs_4core3ops5deref5Deref5derefBK_, symObjAddr: 0x6E10, symBinAddr: 0x69E6C, symSize: 0x24 }
  - { offset: 0x15914E, size: 0x8, addend: 0x0, symName: __RNvXs6_NtCse1nGBsou5OW_5alloc3vecINtB5_3VecTNtNtCs6IAuOt8vWmF_3syn4item5FnArgNtNtBK_5token5CommaEENtNtNtCsfvfooZQ3Axs_4core3ops5deref5Deref5derefBK_, symObjAddr: 0x6E34, symBinAddr: 0x69E90, symSize: 0x24 }
  - { offset: 0x15918E, size: 0x8, addend: 0x0, symName: __RNvXs6_NtCse1nGBsou5OW_5alloc3vecINtB5_3VecTNtNtCs6IAuOt8vWmF_3syn4item7UseTreeNtNtBK_5token5CommaEENtNtNtCsfvfooZQ3Axs_4core3ops5deref5Deref5derefBK_, symObjAddr: 0x6E58, symBinAddr: 0x69EB4, symSize: 0x24 }
  - { offset: 0x1591CE, size: 0x8, addend: 0x0, symName: __RNvXs6_NtCse1nGBsou5OW_5alloc3vecINtB5_3VecTNtNtCs6IAuOt8vWmF_3syn4path11PathSegmentNtNtBK_5token7PathSepEENtNtNtCsfvfooZQ3Axs_4core3ops5deref5Deref5derefBK_, symObjAddr: 0x6E7C, symBinAddr: 0x69ED8, symSize: 0x24 }
  - { offset: 0x15920E, size: 0x8, addend: 0x0, symName: __RNvXs6_NtCse1nGBsou5OW_5alloc3vecINtB5_3VecTNtNtCs6IAuOt8vWmF_3syn4path15GenericArgumentNtNtBK_5token5CommaEENtNtNtCsfvfooZQ3Axs_4core3ops5deref5Deref5derefBK_, symObjAddr: 0x6EA0, symBinAddr: 0x69EFC, symSize: 0x24 }
  - { offset: 0x15924E, size: 0x8, addend: 0x0, symName: __RNvXs6_NtCse1nGBsou5OW_5alloc3vecINtB5_3VecTNtNtCs6IAuOt8vWmF_3syn8generics12GenericParamNtNtBK_5token5CommaEENtNtNtCsfvfooZQ3Axs_4core3ops5deref5Deref5derefBK_, symObjAddr: 0x6EC4, symBinAddr: 0x69F20, symSize: 0x24 }
  - { offset: 0x15928E, size: 0x8, addend: 0x0, symName: __RNvXs6_NtCse1nGBsou5OW_5alloc3vecINtB5_3VecTNtNtCs6IAuOt8vWmF_3syn8generics13CapturedParamNtNtBK_5token5CommaEENtNtNtCsfvfooZQ3Axs_4core3ops5deref5Deref5derefBK_, symObjAddr: 0x6EE8, symBinAddr: 0x69F44, symSize: 0x24 }
  - { offset: 0x1592CE, size: 0x8, addend: 0x0, symName: __RNvXs6_NtCse1nGBsou5OW_5alloc3vecINtB5_3VecTNtNtCs6IAuOt8vWmF_3syn8generics14TypeParamBoundNtNtBK_5token4PlusEENtNtNtCsfvfooZQ3Axs_4core3ops5deref5Deref5derefBK_, symObjAddr: 0x6F0C, symBinAddr: 0x69F68, symSize: 0x24 }
  - { offset: 0x15930E, size: 0x8, addend: 0x0, symName: __RNvXs6_NtCse1nGBsou5OW_5alloc3vecINtB5_3VecTNtNtCs6IAuOt8vWmF_3syn8generics14WherePredicateNtNtBK_5token5CommaEENtNtNtCsfvfooZQ3Axs_4core3ops5deref5Deref5derefBK_, symObjAddr: 0x6F30, symBinAddr: 0x69F8C, symSize: 0x24 }
  - { offset: 0x15934E, size: 0x8, addend: 0x0, symName: __RNvXs6_NtCse1nGBsou5OW_5alloc3vecINtB5_3VecTNtNtCs6IAuOt8vWmF_3syn8lifetime8LifetimeNtNtBK_5token4PlusEENtNtNtCsfvfooZQ3Axs_4core3ops5deref5Deref5derefBK_, symObjAddr: 0x6F54, symBinAddr: 0x69FB0, symSize: 0x24 }
  - { offset: 0x15938E, size: 0x8, addend: 0x0, symName: __RNvXs6_NtCse1nGBsou5OW_5alloc3vecINtB5_3VechENtNtNtCsfvfooZQ3Axs_4core3ops5deref5Deref5derefCs6IAuOt8vWmF_3syn, symObjAddr: 0x6F78, symBinAddr: 0x69FD4, symSize: 0x24 }
  - { offset: 0x159B24, size: 0x8, addend: 0x0, symName: __RNvXsb_NtCse1nGBsou5OW_5alloc3vecINtB5_3VecNtNtCs6IAuOt8vWmF_3syn5error12ErrorMessageEINtNtNtCsfvfooZQ3Axs_4core3ops5index5IndexjE5indexBJ_, symObjAddr: 0x7EA4, symBinAddr: 0x6ADC4, symSize: 0x84 }
  - { offset: 0x159CA6, size: 0x8, addend: 0x0, symName: __RNvXsb_NtCse1nGBsou5OW_5alloc3vecINtB5_3VecReEINtNtNtCsfvfooZQ3Axs_4core3ops5index5IndexjE5indexCs6IAuOt8vWmF_3syn, symObjAddr: 0x7F28, symBinAddr: 0x6AE48, symSize: 0x84 }
  - { offset: 0x159E28, size: 0x8, addend: 0x0, symName: __RNvXsb_NtCse1nGBsou5OW_5alloc3vecINtB5_3VecTNtNtCs6IAuOt8vWmF_3syn3pat3PatNtNtBK_5token5CommaEEINtNtNtCsfvfooZQ3Axs_4core3ops5index5IndexjE5indexBK_, symObjAddr: 0x7FAC, symBinAddr: 0x6AECC, symSize: 0x84 }
  - { offset: 0x159FAA, size: 0x8, addend: 0x0, symName: __RNvXsb_NtCse1nGBsou5OW_5alloc3vecINtB5_3VecTNtNtCs6IAuOt8vWmF_3syn4path11PathSegmentNtNtBK_5token7PathSepEEINtNtNtCsfvfooZQ3Axs_4core3ops5index5IndexjE5indexBK_, symObjAddr: 0x8030, symBinAddr: 0x6AF50, symSize: 0x84 }
  - { offset: 0x15A12C, size: 0x8, addend: 0x0, symName: __RNvXsb_NtCse1nGBsou5OW_5alloc3vecINtB5_3VechEINtNtNtCsfvfooZQ3Axs_4core3ops5index5IndexINtNtBM_5range9RangeFromjEE5indexCs6IAuOt8vWmF_3syn, symObjAddr: 0x80B4, symBinAddr: 0x6AFD4, symSize: 0x80 }
  - { offset: 0x15A2AE, size: 0x8, addend: 0x0, symName: __RNvXsb_NtCse1nGBsou5OW_5alloc3vecINtB5_3VechEINtNtNtCsfvfooZQ3Axs_4core3ops5index5IndexjE5indexCs6IAuOt8vWmF_3syn, symObjAddr: 0x8134, symBinAddr: 0x6B054, symSize: 0x80 }
  - { offset: 0x15A43B, size: 0x8, addend: 0x0, symName: __RNvXNtNtCse1nGBsou5OW_5alloc3vec11spec_extendINtB4_3VecNtCs3cP53eQoTwO_11proc_macro29TokenTreeEINtB2_10SpecExtendBR_INtNtNtNtCsfvfooZQ3Axs_4core4iter8adapters7flatten7FlattenINtNtB1V_3map3MapIB2N_IB2N_INtNtNtB1Z_5slice4iter4IterNtNtCs6IAuOt8vWmF_3syn5error12ErrorMessageENvMs_B3G_B3E_16to_compile_errorENCINvXs7_BT_NtBT_11TokenStreamINtNtNtB1X_6traits7collect12FromIteratorB53_E9from_iterB38_E0ENCINvXs6_NtBT_3impNtB6u_11TokenStreamIB5m_B6D_E9from_iterB33_Es_0EEE11spec_extendB3I_, symObjAddr: 0x6590, symBinAddr: 0x6991C, symSize: 0x24 }
  - { offset: 0x15A493, size: 0x8, addend: 0x0, symName: __RNvXs0_NtNtCse1nGBsou5OW_5alloc3vec11spec_extendINtB7_3VecNtNtCs6IAuOt8vWmF_3syn4attr9AttributeEINtB5_10SpecExtendBU_INtNtB7_9into_iter8IntoIterBU_EE11spec_extendBY_, symObjAddr: 0x6AB8, symBinAddr: 0x69BDC, symSize: 0x98 }
  - { offset: 0x15A4FF, size: 0x8, addend: 0x0, symName: __RNvXs_NtNtCse1nGBsou5OW_5alloc3vec11spec_extendINtB6_3VecNtNtCs6IAuOt8vWmF_3syn8generics14TypeParamBoundEINtB4_10SpecExtendBT_INtNtCsfvfooZQ3Axs_4core6option8IntoIterBT_EE11spec_extendBX_, symObjAddr: 0x7E5C, symBinAddr: 0x6AD7C, symSize: 0x24 }
  - { offset: 0x15A551, size: 0x8, addend: 0x0, symName: __RNvXs_NtNtCse1nGBsou5OW_5alloc3vec11spec_extendINtB6_3VecNtNtCs6IAuOt8vWmF_3syn8generics14TypeParamBoundEINtB4_10SpecExtendBT_INtNtNtNtCsfvfooZQ3Axs_4core4iter8adapters3map3MapINtNtB6_9into_iter8IntoIterTBT_NtNtBX_5token4PlusEENCNvXs8_NtBX_10punctuatedINtB3L_10PunctuatedBT_B3j_ENtNtNtB27_6traits7collect12IntoIterator9into_iter0EE11spec_extendBX_, symObjAddr: 0x7E80, symBinAddr: 0x6ADA0, symSize: 0x24 }
  - { offset: 0x15A5AA, size: 0x8, addend: 0x0, symName: __RNvXs7_NtCse1nGBsou5OW_5alloc3vecINtB5_3VecTNtNtCs6IAuOt8vWmF_3syn4path11PathSegmentNtNtBK_5token7PathSepEENtNtNtCsfvfooZQ3Axs_4core3ops5deref8DerefMut9deref_mutBK_, symObjAddr: 0x6FC0, symBinAddr: 0x69FF8, symSize: 0x24 }
  - { offset: 0x15A680, size: 0x8, addend: 0x0, symName: __RNvXs9_NtCse1nGBsou5OW_5alloc3vecINtB5_3VecNtNtCs6IAuOt8vWmF_3syn4attr9AttributeENtNtCsfvfooZQ3Axs_4core5clone5Clone5cloneBJ_, symObjAddr: 0x7008, symBinAddr: 0x6A01C, symSize: 0x88 }
  - { offset: 0x15A877, size: 0x8, addend: 0x0, symName: __RNvXs9_NtCse1nGBsou5OW_5alloc3vecINtB5_3VecNtNtCs6IAuOt8vWmF_3syn4expr3ArmENtNtCsfvfooZQ3Axs_4core5clone5Clone5cloneBJ_, symObjAddr: 0x7090, symBinAddr: 0x6A0A4, symSize: 0x88 }
  - { offset: 0x15AA6E, size: 0x8, addend: 0x0, symName: __RNvXs9_NtCse1nGBsou5OW_5alloc3vecINtB5_3VecNtNtCs6IAuOt8vWmF_3syn4item11ForeignItemENtNtCsfvfooZQ3Axs_4core5clone5Clone5cloneBJ_, symObjAddr: 0x7118, symBinAddr: 0x6A12C, symSize: 0x88 }
  - { offset: 0x15AC65, size: 0x8, addend: 0x0, symName: __RNvXs9_NtCse1nGBsou5OW_5alloc3vecINtB5_3VecNtNtCs6IAuOt8vWmF_3syn4item4ItemENtNtCsfvfooZQ3Axs_4core5clone5Clone5cloneBJ_, symObjAddr: 0x71A0, symBinAddr: 0x6A1B4, symSize: 0x88 }
  - { offset: 0x15AE5C, size: 0x8, addend: 0x0, symName: __RNvXs9_NtCse1nGBsou5OW_5alloc3vecINtB5_3VecNtNtCs6IAuOt8vWmF_3syn4item8ImplItemENtNtCsfvfooZQ3Axs_4core5clone5Clone5cloneBJ_, symObjAddr: 0x7228, symBinAddr: 0x6A23C, symSize: 0x88 }
  - { offset: 0x15B053, size: 0x8, addend: 0x0, symName: __RNvXs9_NtCse1nGBsou5OW_5alloc3vecINtB5_3VecNtNtCs6IAuOt8vWmF_3syn4item9TraitItemENtNtCsfvfooZQ3Axs_4core5clone5Clone5cloneBJ_, symObjAddr: 0x72B0, symBinAddr: 0x6A2C4, symSize: 0x88 }
  - { offset: 0x15B24A, size: 0x8, addend: 0x0, symName: __RNvXs9_NtCse1nGBsou5OW_5alloc3vecINtB5_3VecNtNtCs6IAuOt8vWmF_3syn4stmt4StmtENtNtCsfvfooZQ3Axs_4core5clone5Clone5cloneBJ_, symObjAddr: 0x7338, symBinAddr: 0x6A34C, symSize: 0x88 }
  - { offset: 0x15B441, size: 0x8, addend: 0x0, symName: __RNvXs9_NtCse1nGBsou5OW_5alloc3vecINtB5_3VecTNtNtCs6IAuOt8vWmF_3syn2ty4TypeNtNtBK_5token5CommaEENtNtCsfvfooZQ3Axs_4core5clone5Clone5cloneBK_, symObjAddr: 0x7448, symBinAddr: 0x6A3D4, symSize: 0x88 }
  - { offset: 0x15B638, size: 0x8, addend: 0x0, symName: __RNvXs9_NtCse1nGBsou5OW_5alloc3vecINtB5_3VecTNtNtCs6IAuOt8vWmF_3syn2ty9BareFnArgNtNtBK_5token5CommaEENtNtCsfvfooZQ3Axs_4core5clone5Clone5cloneBK_, symObjAddr: 0x74D0, symBinAddr: 0x6A45C, symSize: 0x88 }
  - { offset: 0x15B82F, size: 0x8, addend: 0x0, symName: __RNvXs9_NtCse1nGBsou5OW_5alloc3vecINtB5_3VecTNtNtCs6IAuOt8vWmF_3syn3pat3PatNtNtBK_5token2OrEENtNtCsfvfooZQ3Axs_4core5clone5Clone5cloneBK_, symObjAddr: 0x7558, symBinAddr: 0x6A4E4, symSize: 0x88 }
  - { offset: 0x15BA26, size: 0x8, addend: 0x0, symName: __RNvXs9_NtCse1nGBsou5OW_5alloc3vecINtB5_3VecTNtNtCs6IAuOt8vWmF_3syn3pat3PatNtNtBK_5token5CommaEENtNtCsfvfooZQ3Axs_4core5clone5Clone5cloneBK_, symObjAddr: 0x75E0, symBinAddr: 0x6A56C, symSize: 0x88 }
  - { offset: 0x15BC1D, size: 0x8, addend: 0x0, symName: __RNvXs9_NtCse1nGBsou5OW_5alloc3vecINtB5_3VecTNtNtCs6IAuOt8vWmF_3syn3pat8FieldPatNtNtBK_5token5CommaEENtNtCsfvfooZQ3Axs_4core5clone5Clone5cloneBK_, symObjAddr: 0x7668, symBinAddr: 0x6A5F4, symSize: 0x88 }
  - { offset: 0x15BE14, size: 0x8, addend: 0x0, symName: __RNvXs9_NtCse1nGBsou5OW_5alloc3vecINtB5_3VecTNtNtCs6IAuOt8vWmF_3syn4data5FieldNtNtBK_5token5CommaEENtNtCsfvfooZQ3Axs_4core5clone5Clone5cloneBK_, symObjAddr: 0x76F0, symBinAddr: 0x6A67C, symSize: 0x88 }
  - { offset: 0x15C00B, size: 0x8, addend: 0x0, symName: __RNvXs9_NtCse1nGBsou5OW_5alloc3vecINtB5_3VecTNtNtCs6IAuOt8vWmF_3syn4data7VariantNtNtBK_5token5CommaEENtNtCsfvfooZQ3Axs_4core5clone5Clone5cloneBK_, symObjAddr: 0x7778, symBinAddr: 0x6A704, symSize: 0x88 }
  - { offset: 0x15C202, size: 0x8, addend: 0x0, symName: __RNvXs9_NtCse1nGBsou5OW_5alloc3vecINtB5_3VecTNtNtCs6IAuOt8vWmF_3syn4expr10FieldValueNtNtBK_5token5CommaEENtNtCsfvfooZQ3Axs_4core5clone5Clone5cloneBK_, symObjAddr: 0x7800, symBinAddr: 0x6A78C, symSize: 0x88 }
  - { offset: 0x15C3F9, size: 0x8, addend: 0x0, symName: __RNvXs9_NtCse1nGBsou5OW_5alloc3vecINtB5_3VecTNtNtCs6IAuOt8vWmF_3syn4expr4ExprNtNtBK_5token5CommaEENtNtCsfvfooZQ3Axs_4core5clone5Clone5cloneBK_, symObjAddr: 0x7888, symBinAddr: 0x6A814, symSize: 0x88 }
  - { offset: 0x15C5F0, size: 0x8, addend: 0x0, symName: __RNvXs9_NtCse1nGBsou5OW_5alloc3vecINtB5_3VecTNtNtCs6IAuOt8vWmF_3syn4item5FnArgNtNtBK_5token5CommaEENtNtCsfvfooZQ3Axs_4core5clone5Clone5cloneBK_, symObjAddr: 0x7910, symBinAddr: 0x6A89C, symSize: 0x88 }
  - { offset: 0x15C7E7, size: 0x8, addend: 0x0, symName: __RNvXs9_NtCse1nGBsou5OW_5alloc3vecINtB5_3VecTNtNtCs6IAuOt8vWmF_3syn4item7UseTreeNtNtBK_5token5CommaEENtNtCsfvfooZQ3Axs_4core5clone5Clone5cloneBK_, symObjAddr: 0x7998, symBinAddr: 0x6A924, symSize: 0x88 }
  - { offset: 0x15C9DE, size: 0x8, addend: 0x0, symName: __RNvXs9_NtCse1nGBsou5OW_5alloc3vecINtB5_3VecTNtNtCs6IAuOt8vWmF_3syn4path11PathSegmentNtNtBK_5token7PathSepEENtNtCsfvfooZQ3Axs_4core5clone5Clone5cloneBK_, symObjAddr: 0x7A20, symBinAddr: 0x6A9AC, symSize: 0x88 }
  - { offset: 0x15CBD5, size: 0x8, addend: 0x0, symName: __RNvXs9_NtCse1nGBsou5OW_5alloc3vecINtB5_3VecTNtNtCs6IAuOt8vWmF_3syn4path15GenericArgumentNtNtBK_5token5CommaEENtNtCsfvfooZQ3Axs_4core5clone5Clone5cloneBK_, symObjAddr: 0x7AA8, symBinAddr: 0x6AA34, symSize: 0x88 }
  - { offset: 0x15CDCC, size: 0x8, addend: 0x0, symName: __RNvXs9_NtCse1nGBsou5OW_5alloc3vecINtB5_3VecTNtNtCs6IAuOt8vWmF_3syn8generics12GenericParamNtNtBK_5token5CommaEENtNtCsfvfooZQ3Axs_4core5clone5Clone5cloneBK_, symObjAddr: 0x7B30, symBinAddr: 0x6AABC, symSize: 0x88 }
  - { offset: 0x15CFC3, size: 0x8, addend: 0x0, symName: __RNvXs9_NtCse1nGBsou5OW_5alloc3vecINtB5_3VecTNtNtCs6IAuOt8vWmF_3syn8generics13CapturedParamNtNtBK_5token5CommaEENtNtCsfvfooZQ3Axs_4core5clone5Clone5cloneBK_, symObjAddr: 0x7BB8, symBinAddr: 0x6AB44, symSize: 0x88 }
  - { offset: 0x15D1BA, size: 0x8, addend: 0x0, symName: __RNvXs9_NtCse1nGBsou5OW_5alloc3vecINtB5_3VecTNtNtCs6IAuOt8vWmF_3syn8generics14TypeParamBoundNtNtBK_5token4PlusEENtNtCsfvfooZQ3Axs_4core5clone5Clone5cloneBK_, symObjAddr: 0x7C40, symBinAddr: 0x6ABCC, symSize: 0x88 }
  - { offset: 0x15D3B1, size: 0x8, addend: 0x0, symName: __RNvXs9_NtCse1nGBsou5OW_5alloc3vecINtB5_3VecTNtNtCs6IAuOt8vWmF_3syn8generics14WherePredicateNtNtBK_5token5CommaEENtNtCsfvfooZQ3Axs_4core5clone5Clone5cloneBK_, symObjAddr: 0x7CC8, symBinAddr: 0x6AC54, symSize: 0x88 }
  - { offset: 0x15D5A8, size: 0x8, addend: 0x0, symName: __RNvXs9_NtCse1nGBsou5OW_5alloc3vecINtB5_3VecTNtNtCs6IAuOt8vWmF_3syn8lifetime8LifetimeNtNtBK_5token4PlusEENtNtCsfvfooZQ3Axs_4core5clone5Clone5cloneBK_, symObjAddr: 0x7D50, symBinAddr: 0x6ACDC, symSize: 0x88 }
  - { offset: 0x15D7A5, size: 0x8, addend: 0x0, symName: __RNvXsc_NtCse1nGBsou5OW_5alloc3vecINtB5_3VecNtNtCs6IAuOt8vWmF_3syn6buffer5EntryEINtNtNtCsfvfooZQ3Axs_4core3ops5index8IndexMutjE9index_mutBJ_, symObjAddr: 0x81B4, symBinAddr: 0x6B0D4, symSize: 0x84 }
  - { offset: 0x15D8F9, size: 0x8, addend: 0x0, symName: __RNvXsc_NtCse1nGBsou5OW_5alloc3vecINtB5_3VechEINtNtNtCsfvfooZQ3Axs_4core3ops5index8IndexMutjE9index_mutCs6IAuOt8vWmF_3syn, symObjAddr: 0x8238, symBinAddr: 0x6B158, symSize: 0x80 }
  - { offset: 0x15DA53, size: 0x8, addend: 0x0, symName: __RNvXse_NtCse1nGBsou5OW_5alloc3vecINtB5_3VecNtNtCs6IAuOt8vWmF_3syn4attr9AttributeENtNtNtNtCsfvfooZQ3Axs_4core4iter6traits7collect12IntoIterator9into_iterBJ_, symObjAddr: 0x82B8, symBinAddr: 0x6B1D8, symSize: 0xDC }
  - { offset: 0x15DCE5, size: 0x8, addend: 0x0, symName: __RNvXse_NtCse1nGBsou5OW_5alloc3vecINtB5_3VecNtNtCs6IAuOt8vWmF_3syn8generics14TypeParamBoundENtNtNtNtCsfvfooZQ3Axs_4core4iter6traits7collect12IntoIterator9into_iterBJ_, symObjAddr: 0x855C, symBinAddr: 0x6B2B4, symSize: 0xE4 }
  - { offset: 0x15DF77, size: 0x8, addend: 0x0, symName: __RNvXse_NtCse1nGBsou5OW_5alloc3vecINtB5_3VecTNtNtCs6IAuOt8vWmF_3syn4path11PathSegmentNtNtBK_5token7PathSepEENtNtNtNtCsfvfooZQ3Axs_4core4iter6traits7collect12IntoIterator9into_iterBK_, symObjAddr: 0x8808, symBinAddr: 0x6B398, symSize: 0xE4 }
  - { offset: 0x15E209, size: 0x8, addend: 0x0, symName: __RNvXse_NtCse1nGBsou5OW_5alloc3vecINtB5_3VecTNtNtCs6IAuOt8vWmF_3syn8generics14TypeParamBoundNtNtBK_5token4PlusEENtNtNtNtCsfvfooZQ3Axs_4core4iter6traits7collect12IntoIterator9into_iterBK_, symObjAddr: 0x88EC, symBinAddr: 0x6B47C, symSize: 0xDC }
  - { offset: 0x15E4A1, size: 0x8, addend: 0x0, symName: __RNvXsf_NtCse1nGBsou5OW_5alloc3vecRINtB5_3VecNtNtCs6IAuOt8vWmF_3syn4attr9AttributeENtNtNtNtCsfvfooZQ3Axs_4core4iter6traits7collect12IntoIterator9into_iterBK_, symObjAddr: 0x89C8, symBinAddr: 0x6B558, symSize: 0x9C }
  - { offset: 0x15E6FD, size: 0x8, addend: 0x0, symName: __RNvXsf_NtCse1nGBsou5OW_5alloc3vecRINtB5_3VecNtNtCs6IAuOt8vWmF_3syn4item11ForeignItemENtNtNtNtCsfvfooZQ3Axs_4core4iter6traits7collect12IntoIterator9into_iterBK_, symObjAddr: 0x8A64, symBinAddr: 0x6B5F4, symSize: 0xA4 }
  - { offset: 0x15E959, size: 0x8, addend: 0x0, symName: __RNvXsf_NtCse1nGBsou5OW_5alloc3vecRINtB5_3VecNtNtCs6IAuOt8vWmF_3syn4item4ItemENtNtNtNtCsfvfooZQ3Axs_4core4iter6traits7collect12IntoIterator9into_iterBK_, symObjAddr: 0x8B08, symBinAddr: 0x6B698, symSize: 0xA4 }
  - { offset: 0x15EBB5, size: 0x8, addend: 0x0, symName: __RNvXsf_NtCse1nGBsou5OW_5alloc3vecRINtB5_3VecNtNtCs6IAuOt8vWmF_3syn4item8ImplItemENtNtNtNtCsfvfooZQ3Axs_4core4iter6traits7collect12IntoIterator9into_iterBK_, symObjAddr: 0x8BAC, symBinAddr: 0x6B73C, symSize: 0xA4 }
  - { offset: 0x15EE11, size: 0x8, addend: 0x0, symName: __RNvXsf_NtCse1nGBsou5OW_5alloc3vecRINtB5_3VecNtNtCs6IAuOt8vWmF_3syn4item9TraitItemENtNtNtNtCsfvfooZQ3Axs_4core4iter6traits7collect12IntoIterator9into_iterBK_, symObjAddr: 0x8C50, symBinAddr: 0x6B7E0, symSize: 0xA4 }
  - { offset: 0x15F06D, size: 0x8, addend: 0x0, symName: __RNvXsf_NtCse1nGBsou5OW_5alloc3vecRINtB5_3VecNtNtCs6IAuOt8vWmF_3syn4stmt4StmtENtNtNtNtCsfvfooZQ3Axs_4core4iter6traits7collect12IntoIterator9into_iterBK_, symObjAddr: 0x8CF4, symBinAddr: 0x6B884, symSize: 0xA4 }
  - { offset: 0x15F2CF, size: 0x8, addend: 0x0, symName: __RNvXsg_NtCse1nGBsou5OW_5alloc3vecQINtB5_3VechENtNtNtNtCsfvfooZQ3Axs_4core4iter6traits7collect12IntoIterator9into_iterCs6IAuOt8vWmF_3syn, symObjAddr: 0x9918, symBinAddr: 0x6B928, symSize: 0x98 }
  - { offset: 0x15F503, size: 0x8, addend: 0x0, symName: __RNvXsn_NtCse1nGBsou5OW_5alloc3vecINtB5_3VecNtNtCs6IAuOt8vWmF_3syn4attr9AttributeENtNtNtCsfvfooZQ3Axs_4core3ops4drop4Drop4dropBJ_, symObjAddr: 0x99B0, symBinAddr: 0x6B9C0, symSize: 0x38 }
  - { offset: 0x15F5B3, size: 0x8, addend: 0x0, symName: __RNvXsn_NtCse1nGBsou5OW_5alloc3vecINtB5_3VecNtNtCs6IAuOt8vWmF_3syn4expr3ArmENtNtNtCsfvfooZQ3Axs_4core3ops4drop4Drop4dropBJ_, symObjAddr: 0x9A20, symBinAddr: 0x6B9F8, symSize: 0x38 }
  - { offset: 0x15F663, size: 0x8, addend: 0x0, symName: __RNvXsn_NtCse1nGBsou5OW_5alloc3vecINtB5_3VecNtNtCs6IAuOt8vWmF_3syn4expr6ExprIfENtNtNtCsfvfooZQ3Axs_4core3ops4drop4Drop4dropBJ_, symObjAddr: 0x9A58, symBinAddr: 0x6BA30, symSize: 0x38 }
  - { offset: 0x15F713, size: 0x8, addend: 0x0, symName: __RNvXsn_NtCse1nGBsou5OW_5alloc3vecINtB5_3VecNtNtCs6IAuOt8vWmF_3syn4item11ForeignItemENtNtNtCsfvfooZQ3Axs_4core3ops4drop4Drop4dropBJ_, symObjAddr: 0x9A90, symBinAddr: 0x6BA68, symSize: 0x38 }
  - { offset: 0x15F7C3, size: 0x8, addend: 0x0, symName: __RNvXsn_NtCse1nGBsou5OW_5alloc3vecINtB5_3VecNtNtCs6IAuOt8vWmF_3syn4item4ItemENtNtNtCsfvfooZQ3Axs_4core3ops4drop4Drop4dropBJ_, symObjAddr: 0x9AC8, symBinAddr: 0x6BAA0, symSize: 0x38 }
  - { offset: 0x15F873, size: 0x8, addend: 0x0, symName: __RNvXsn_NtCse1nGBsou5OW_5alloc3vecINtB5_3VecNtNtCs6IAuOt8vWmF_3syn4item8ImplItemENtNtNtCsfvfooZQ3Axs_4core3ops4drop4Drop4dropBJ_, symObjAddr: 0x9B00, symBinAddr: 0x6BAD8, symSize: 0x38 }
  - { offset: 0x15F923, size: 0x8, addend: 0x0, symName: __RNvXsn_NtCse1nGBsou5OW_5alloc3vecINtB5_3VecNtNtCs6IAuOt8vWmF_3syn4item9TraitItemENtNtNtCsfvfooZQ3Axs_4core3ops4drop4Drop4dropBJ_, symObjAddr: 0x9B38, symBinAddr: 0x6BB10, symSize: 0x38 }
  - { offset: 0x15F9D3, size: 0x8, addend: 0x0, symName: __RNvXsn_NtCse1nGBsou5OW_5alloc3vecINtB5_3VecNtNtCs6IAuOt8vWmF_3syn4stmt4StmtENtNtNtCsfvfooZQ3Axs_4core3ops4drop4Drop4dropBJ_, symObjAddr: 0x9B70, symBinAddr: 0x6BB48, symSize: 0x38 }
  - { offset: 0x15FA83, size: 0x8, addend: 0x0, symName: __RNvXsn_NtCse1nGBsou5OW_5alloc3vecINtB5_3VecNtNtCs6IAuOt8vWmF_3syn5error12ErrorMessageENtNtNtCsfvfooZQ3Axs_4core3ops4drop4Drop4dropBJ_, symObjAddr: 0x9BA8, symBinAddr: 0x6BB80, symSize: 0x38 }
  - { offset: 0x15FB33, size: 0x8, addend: 0x0, symName: __RNvXsn_NtCse1nGBsou5OW_5alloc3vecINtB5_3VecNtNtCs6IAuOt8vWmF_3syn6buffer5EntryENtNtNtCsfvfooZQ3Axs_4core3ops4drop4Drop4dropBJ_, symObjAddr: 0x9BE0, symBinAddr: 0x6BBB8, symSize: 0x38 }
  - { offset: 0x15FBE3, size: 0x8, addend: 0x0, symName: __RNvXsn_NtCse1nGBsou5OW_5alloc3vecINtB5_3VecNtNtCs6IAuOt8vWmF_3syn8generics14TypeParamBoundENtNtNtCsfvfooZQ3Axs_4core3ops4drop4Drop4dropBJ_, symObjAddr: 0x9C18, symBinAddr: 0x6BBF0, symSize: 0x38 }
  - { offset: 0x15FC93, size: 0x8, addend: 0x0, symName: __RNvXsn_NtCse1nGBsou5OW_5alloc3vecINtB5_3VecReENtNtNtCsfvfooZQ3Axs_4core3ops4drop4Drop4dropCs6IAuOt8vWmF_3syn, symObjAddr: 0x9C50, symBinAddr: 0x6BC28, symSize: 0x24 }
  - { offset: 0x15FD43, size: 0x8, addend: 0x0, symName: __RNvXsn_NtCse1nGBsou5OW_5alloc3vecINtB5_3VecTNtNtCs6IAuOt8vWmF_3syn2ty4TypeNtNtBK_5token5CommaEENtNtNtCsfvfooZQ3Axs_4core3ops4drop4Drop4dropBK_, symObjAddr: 0x9C74, symBinAddr: 0x6BC4C, symSize: 0x38 }
  - { offset: 0x15FDF3, size: 0x8, addend: 0x0, symName: __RNvXsn_NtCse1nGBsou5OW_5alloc3vecINtB5_3VecTNtNtCs6IAuOt8vWmF_3syn2ty9BareFnArgNtNtBK_5token5CommaEENtNtNtCsfvfooZQ3Axs_4core3ops4drop4Drop4dropBK_, symObjAddr: 0x9CAC, symBinAddr: 0x6BC84, symSize: 0x38 }
  - { offset: 0x15FEA3, size: 0x8, addend: 0x0, symName: __RNvXsn_NtCse1nGBsou5OW_5alloc3vecINtB5_3VecTNtNtCs6IAuOt8vWmF_3syn3pat3PatNtNtBK_5token2OrEENtNtNtCsfvfooZQ3Axs_4core3ops4drop4Drop4dropBK_, symObjAddr: 0x9CE4, symBinAddr: 0x6BCBC, symSize: 0x38 }
  - { offset: 0x15FF53, size: 0x8, addend: 0x0, symName: __RNvXsn_NtCse1nGBsou5OW_5alloc3vecINtB5_3VecTNtNtCs6IAuOt8vWmF_3syn3pat3PatNtNtBK_5token5CommaEENtNtNtCsfvfooZQ3Axs_4core3ops4drop4Drop4dropBK_, symObjAddr: 0x9D1C, symBinAddr: 0x6BCF4, symSize: 0x38 }
  - { offset: 0x160003, size: 0x8, addend: 0x0, symName: __RNvXsn_NtCse1nGBsou5OW_5alloc3vecINtB5_3VecTNtNtCs6IAuOt8vWmF_3syn3pat8FieldPatNtNtBK_5token5CommaEENtNtNtCsfvfooZQ3Axs_4core3ops4drop4Drop4dropBK_, symObjAddr: 0x9D54, symBinAddr: 0x6BD2C, symSize: 0x38 }
  - { offset: 0x1600B3, size: 0x8, addend: 0x0, symName: __RNvXsn_NtCse1nGBsou5OW_5alloc3vecINtB5_3VecTNtNtCs6IAuOt8vWmF_3syn4data5FieldNtNtBK_5token5CommaEENtNtNtCsfvfooZQ3Axs_4core3ops4drop4Drop4dropBK_, symObjAddr: 0x9D8C, symBinAddr: 0x6BD64, symSize: 0x38 }
  - { offset: 0x160163, size: 0x8, addend: 0x0, symName: __RNvXsn_NtCse1nGBsou5OW_5alloc3vecINtB5_3VecTNtNtCs6IAuOt8vWmF_3syn4data7VariantNtNtBK_5token5CommaEENtNtNtCsfvfooZQ3Axs_4core3ops4drop4Drop4dropBK_, symObjAddr: 0x9DFC, symBinAddr: 0x6BD9C, symSize: 0x38 }
  - { offset: 0x160213, size: 0x8, addend: 0x0, symName: __RNvXsn_NtCse1nGBsou5OW_5alloc3vecINtB5_3VecTNtNtCs6IAuOt8vWmF_3syn4expr10FieldValueNtNtBK_5token5CommaEENtNtNtCsfvfooZQ3Axs_4core3ops4drop4Drop4dropBK_, symObjAddr: 0x9E34, symBinAddr: 0x6BDD4, symSize: 0x38 }
  - { offset: 0x1602C3, size: 0x8, addend: 0x0, symName: __RNvXsn_NtCse1nGBsou5OW_5alloc3vecINtB5_3VecTNtNtCs6IAuOt8vWmF_3syn4expr4ExprNtNtBK_5token5CommaEENtNtNtCsfvfooZQ3Axs_4core3ops4drop4Drop4dropBK_, symObjAddr: 0x9E6C, symBinAddr: 0x6BE0C, symSize: 0x38 }
  - { offset: 0x160373, size: 0x8, addend: 0x0, symName: __RNvXsn_NtCse1nGBsou5OW_5alloc3vecINtB5_3VecTNtNtCs6IAuOt8vWmF_3syn4item5FnArgNtNtBK_5token5CommaEENtNtNtCsfvfooZQ3Axs_4core3ops4drop4Drop4dropBK_, symObjAddr: 0x9EA4, symBinAddr: 0x6BE44, symSize: 0x38 }
  - { offset: 0x160423, size: 0x8, addend: 0x0, symName: __RNvXsn_NtCse1nGBsou5OW_5alloc3vecINtB5_3VecTNtNtCs6IAuOt8vWmF_3syn4item7UseTreeNtNtBK_5token5CommaEENtNtNtCsfvfooZQ3Axs_4core3ops4drop4Drop4dropBK_, symObjAddr: 0x9EDC, symBinAddr: 0x6BE7C, symSize: 0x38 }
  - { offset: 0x1604D3, size: 0x8, addend: 0x0, symName: __RNvXsn_NtCse1nGBsou5OW_5alloc3vecINtB5_3VecTNtNtCs6IAuOt8vWmF_3syn4path11PathSegmentNtNtBK_5token7PathSepEENtNtNtCsfvfooZQ3Axs_4core3ops4drop4Drop4dropBK_, symObjAddr: 0x9F14, symBinAddr: 0x6BEB4, symSize: 0x38 }
  - { offset: 0x160583, size: 0x8, addend: 0x0, symName: __RNvXsn_NtCse1nGBsou5OW_5alloc3vecINtB5_3VecTNtNtCs6IAuOt8vWmF_3syn4path15GenericArgumentNtNtBK_5token5CommaEENtNtNtCsfvfooZQ3Axs_4core3ops4drop4Drop4dropBK_, symObjAddr: 0x9F4C, symBinAddr: 0x6BEEC, symSize: 0x38 }
  - { offset: 0x160633, size: 0x8, addend: 0x0, symName: __RNvXsn_NtCse1nGBsou5OW_5alloc3vecINtB5_3VecTNtNtCs6IAuOt8vWmF_3syn8generics12GenericParamNtNtBK_5token5CommaEENtNtNtCsfvfooZQ3Axs_4core3ops4drop4Drop4dropBK_, symObjAddr: 0x9F84, symBinAddr: 0x6BF24, symSize: 0x38 }
  - { offset: 0x1606E3, size: 0x8, addend: 0x0, symName: __RNvXsn_NtCse1nGBsou5OW_5alloc3vecINtB5_3VecTNtNtCs6IAuOt8vWmF_3syn8generics13CapturedParamNtNtBK_5token5CommaEENtNtNtCsfvfooZQ3Axs_4core3ops4drop4Drop4dropBK_, symObjAddr: 0x9FBC, symBinAddr: 0x6BF5C, symSize: 0x38 }
  - { offset: 0x160793, size: 0x8, addend: 0x0, symName: __RNvXsn_NtCse1nGBsou5OW_5alloc3vecINtB5_3VecTNtNtCs6IAuOt8vWmF_3syn8generics14TypeParamBoundNtNtBK_5token4PlusEENtNtNtCsfvfooZQ3Axs_4core3ops4drop4Drop4dropBK_, symObjAddr: 0x9FF4, symBinAddr: 0x6BF94, symSize: 0x38 }
  - { offset: 0x160843, size: 0x8, addend: 0x0, symName: __RNvXsn_NtCse1nGBsou5OW_5alloc3vecINtB5_3VecTNtNtCs6IAuOt8vWmF_3syn8generics14WherePredicateNtNtBK_5token5CommaEENtNtNtCsfvfooZQ3Axs_4core3ops4drop4Drop4dropBK_, symObjAddr: 0xA02C, symBinAddr: 0x6BFCC, symSize: 0x38 }
  - { offset: 0x1608F3, size: 0x8, addend: 0x0, symName: __RNvXsn_NtCse1nGBsou5OW_5alloc3vecINtB5_3VecTNtNtCs6IAuOt8vWmF_3syn8lifetime8LifetimeNtNtBK_5token4PlusEENtNtNtCsfvfooZQ3Axs_4core3ops4drop4Drop4dropBK_, symObjAddr: 0xA064, symBinAddr: 0x6C004, symSize: 0x38 }
  - { offset: 0x1609A9, size: 0x8, addend: 0x0, symName: __RNvXsp_NtCse1nGBsou5OW_5alloc3vecINtB5_3VecNtNtCs6IAuOt8vWmF_3syn5error12ErrorMessageENtNtCsfvfooZQ3Axs_4core3fmt5Debug3fmtBJ_, symObjAddr: 0xA3C8, symBinAddr: 0x6C03C, symSize: 0x74 }
  - { offset: 0x160AB9, size: 0x8, addend: 0x0, symName: __RNvXsp_NtCse1nGBsou5OW_5alloc3vecINtB5_3VechENtNtCsfvfooZQ3Axs_4core3fmt5Debug3fmtCs6IAuOt8vWmF_3syn, symObjAddr: 0xA43C, symBinAddr: 0x6C0B0, symSize: 0x70 }
  - { offset: 0x162FE7, size: 0x8, addend: 0x0, symName: __RNvXsV_NtCse1nGBsou5OW_5alloc6stringINtNtB7_3vec3VechEINtNtCsfvfooZQ3Axs_4core7convert4FromNtB5_6StringE4fromCs6IAuOt8vWmF_3syn, symObjAddr: 0x7DD8, symBinAddr: 0x6AD64, symSize: 0x18 }
  - { offset: 0x16323C, size: 0x8, addend: 0x0, symName: __RNvXNvMs_NtNtCse1nGBsou5OW_5alloc3ffi5c_strNtB7_7CString3newINtNtBb_3vec3VechENtB2_11SpecNewImpl13spec_new_implCs6IAuOt8vWmF_3syn, symObjAddr: 0x6940, symBinAddr: 0x69A64, symSize: 0x178 }
  - { offset: 0x168E3E, size: 0x8, addend: 0x0, symName: __RINvMs_NtCse1nGBsou5OW_5alloc3vecINtB5_3VecReE10retain_mutNCNvMNtCs6IAuOt8vWmF_3syn9lookaheadNtBZ_10Lookahead15error0EB11_, symObjAddr: 0x0, symBinAddr: 0x654E8, symSize: 0xE4 }
  - { offset: 0x16911A, size: 0x8, addend: 0x0, symName: __RINvMsi_NtCse1nGBsou5OW_5alloc3vecINtB6_3VecNtCs3cP53eQoTwO_11proc_macro29TokenTreeE16extend_desugaredINtNtNtNtCsfvfooZQ3Axs_4core4iter8adapters7flatten7FlattenINtNtB1H_3map3MapIB2z_IB2z_INtNtNtB1L_5slice4iter4IterNtNtCs6IAuOt8vWmF_3syn5error12ErrorMessageENvMs_B3s_B3q_16to_compile_errorENCINvXs7_BI_NtBI_11TokenStreamINtNtNtB1J_6traits7collect12FromIteratorB4P_E9from_iterB2U_E0ENCINvXs6_NtBI_3impNtB6g_11TokenStreamIB58_B6p_E9from_iterB2P_Es_0EEEB3u_, symObjAddr: 0xE4, symBinAddr: 0x655CC, symSize: 0x1D4 }
  - { offset: 0x169ABC, size: 0x8, addend: 0x0, symName: __RINvMsi_NtCse1nGBsou5OW_5alloc3vecINtB6_3VecNtNtCs6IAuOt8vWmF_3syn8generics14TypeParamBoundE14extend_trustedINtNtCsfvfooZQ3Axs_4core6option8IntoIterBG_EEBK_, symObjAddr: 0x93C, symBinAddr: 0x657A0, symSize: 0x1A0 }
  - { offset: 0x169D68, size: 0x8, addend: 0x0, symName: __RINvMsi_NtCse1nGBsou5OW_5alloc3vecINtB6_3VecNtNtCs6IAuOt8vWmF_3syn8generics14TypeParamBoundE14extend_trustedINtNtNtNtCsfvfooZQ3Axs_4core4iter8adapters3map3MapINtNtB6_9into_iter8IntoIterTBG_NtNtBK_5token4PlusEENCNvXs8_NtBK_10punctuatedINtB3t_10PunctuatedBG_B31_ENtNtNtB1P_6traits7collect12IntoIterator9into_iter0EEBK_, symObjAddr: 0xADC, symBinAddr: 0x65940, symSize: 0x188 }
  - { offset: 0x16A0A6, size: 0x8, addend: 0x0, symName: __RNvMNtCse1nGBsou5OW_5alloc3vecINtB2_3VecNtNtCs6IAuOt8vWmF_3syn4attr9AttributeE3newBG_, symObjAddr: 0x12C0, symBinAddr: 0x65EC4, symSize: 0x14 }
  - { offset: 0x16A0C3, size: 0x8, addend: 0x0, symName: __RNvMNtCse1nGBsou5OW_5alloc3vecINtB2_3VecNtNtCs6IAuOt8vWmF_3syn4expr3ArmE3newBG_, symObjAddr: 0x131C, symBinAddr: 0x65ED8, symSize: 0x14 }
  - { offset: 0x16A0E0, size: 0x8, addend: 0x0, symName: __RNvMNtCse1nGBsou5OW_5alloc3vecINtB2_3VecNtNtCs6IAuOt8vWmF_3syn4expr6ExprIfE3newBG_, symObjAddr: 0x1330, symBinAddr: 0x65EEC, symSize: 0x14 }
  - { offset: 0x16A0FD, size: 0x8, addend: 0x0, symName: __RNvMNtCse1nGBsou5OW_5alloc3vecINtB2_3VecNtNtCs6IAuOt8vWmF_3syn4item11ForeignItemE3newBG_, symObjAddr: 0x1344, symBinAddr: 0x65F00, symSize: 0x14 }
  - { offset: 0x16A11A, size: 0x8, addend: 0x0, symName: __RNvMNtCse1nGBsou5OW_5alloc3vecINtB2_3VecNtNtCs6IAuOt8vWmF_3syn4item4ItemE3newBG_, symObjAddr: 0x1358, symBinAddr: 0x65F14, symSize: 0x14 }
  - { offset: 0x16A137, size: 0x8, addend: 0x0, symName: __RNvMNtCse1nGBsou5OW_5alloc3vecINtB2_3VecNtNtCs6IAuOt8vWmF_3syn4item8ImplItemE3newBG_, symObjAddr: 0x136C, symBinAddr: 0x65F28, symSize: 0x14 }
  - { offset: 0x16A154, size: 0x8, addend: 0x0, symName: __RNvMNtCse1nGBsou5OW_5alloc3vecINtB2_3VecNtNtCs6IAuOt8vWmF_3syn4item9TraitItemE3newBG_, symObjAddr: 0x1380, symBinAddr: 0x65F3C, symSize: 0x14 }
  - { offset: 0x16A171, size: 0x8, addend: 0x0, symName: __RNvMNtCse1nGBsou5OW_5alloc3vecINtB2_3VecNtNtCs6IAuOt8vWmF_3syn4stmt4StmtE3newBG_, symObjAddr: 0x1394, symBinAddr: 0x65F50, symSize: 0x14 }
  - { offset: 0x16A18E, size: 0x8, addend: 0x0, symName: __RNvMNtCse1nGBsou5OW_5alloc3vecINtB2_3VecNtNtCs6IAuOt8vWmF_3syn6buffer5EntryE3newBG_, symObjAddr: 0x13A8, symBinAddr: 0x65F64, symSize: 0x14 }
  - { offset: 0x16A20D, size: 0x8, addend: 0x0, symName: __RNvMNtCse1nGBsou5OW_5alloc3vecINtB2_3VecNtNtCs6IAuOt8vWmF_3syn8generics14TypeParamBoundE13with_capacityBG_, symObjAddr: 0x13BC, symBinAddr: 0x65F78, symSize: 0x48 }
  - { offset: 0x16A285, size: 0x8, addend: 0x0, symName: __RNvMNtCse1nGBsou5OW_5alloc3vecINtB2_3VecReE3newCs6IAuOt8vWmF_3syn, symObjAddr: 0x1404, symBinAddr: 0x65FC0, symSize: 0x14 }
  - { offset: 0x16A2A2, size: 0x8, addend: 0x0, symName: __RNvMNtCse1nGBsou5OW_5alloc3vecINtB2_3VecTNtNtCs6IAuOt8vWmF_3syn2ty4TypeNtNtBH_5token5CommaEE3newBH_, symObjAddr: 0x1418, symBinAddr: 0x65FD4, symSize: 0x14 }
  - { offset: 0x16A2BF, size: 0x8, addend: 0x0, symName: __RNvMNtCse1nGBsou5OW_5alloc3vecINtB2_3VecTNtNtCs6IAuOt8vWmF_3syn2ty9BareFnArgNtNtBH_5token5CommaEE3newBH_, symObjAddr: 0x142C, symBinAddr: 0x65FE8, symSize: 0x14 }
  - { offset: 0x16A2DC, size: 0x8, addend: 0x0, symName: __RNvMNtCse1nGBsou5OW_5alloc3vecINtB2_3VecTNtNtCs6IAuOt8vWmF_3syn3pat3PatNtNtBH_5token2OrEE3newBH_, symObjAddr: 0x1440, symBinAddr: 0x65FFC, symSize: 0x14 }
  - { offset: 0x16A2F9, size: 0x8, addend: 0x0, symName: __RNvMNtCse1nGBsou5OW_5alloc3vecINtB2_3VecTNtNtCs6IAuOt8vWmF_3syn3pat3PatNtNtBH_5token5CommaEE3newBH_, symObjAddr: 0x1454, symBinAddr: 0x66010, symSize: 0x14 }
  - { offset: 0x16A316, size: 0x8, addend: 0x0, symName: __RNvMNtCse1nGBsou5OW_5alloc3vecINtB2_3VecTNtNtCs6IAuOt8vWmF_3syn3pat8FieldPatNtNtBH_5token5CommaEE3newBH_, symObjAddr: 0x1468, symBinAddr: 0x66024, symSize: 0x14 }
  - { offset: 0x16A333, size: 0x8, addend: 0x0, symName: __RNvMNtCse1nGBsou5OW_5alloc3vecINtB2_3VecTNtNtCs6IAuOt8vWmF_3syn4data5FieldNtNtBH_5token5CommaEE3newBH_, symObjAddr: 0x147C, symBinAddr: 0x66038, symSize: 0x14 }
  - { offset: 0x16A350, size: 0x8, addend: 0x0, symName: __RNvMNtCse1nGBsou5OW_5alloc3vecINtB2_3VecTNtNtCs6IAuOt8vWmF_3syn4data7VariantNtNtBH_5token5CommaEE3newBH_, symObjAddr: 0x14A4, symBinAddr: 0x6604C, symSize: 0x14 }
  - { offset: 0x16A36D, size: 0x8, addend: 0x0, symName: __RNvMNtCse1nGBsou5OW_5alloc3vecINtB2_3VecTNtNtCs6IAuOt8vWmF_3syn4expr10FieldValueNtNtBH_5token5CommaEE3newBH_, symObjAddr: 0x14B8, symBinAddr: 0x66060, symSize: 0x14 }
  - { offset: 0x16A38A, size: 0x8, addend: 0x0, symName: __RNvMNtCse1nGBsou5OW_5alloc3vecINtB2_3VecTNtNtCs6IAuOt8vWmF_3syn4expr4ExprNtNtBH_5token5CommaEE3newBH_, symObjAddr: 0x14CC, symBinAddr: 0x66074, symSize: 0x14 }
  - { offset: 0x16A3A7, size: 0x8, addend: 0x0, symName: __RNvMNtCse1nGBsou5OW_5alloc3vecINtB2_3VecTNtNtCs6IAuOt8vWmF_3syn4item5FnArgNtNtBH_5token5CommaEE3newBH_, symObjAddr: 0x14E0, symBinAddr: 0x66088, symSize: 0x14 }
  - { offset: 0x16A3C4, size: 0x8, addend: 0x0, symName: __RNvMNtCse1nGBsou5OW_5alloc3vecINtB2_3VecTNtNtCs6IAuOt8vWmF_3syn4item7UseTreeNtNtBH_5token5CommaEE3newBH_, symObjAddr: 0x14F4, symBinAddr: 0x6609C, symSize: 0x14 }
  - { offset: 0x16A3E1, size: 0x8, addend: 0x0, symName: __RNvMNtCse1nGBsou5OW_5alloc3vecINtB2_3VecTNtNtCs6IAuOt8vWmF_3syn4path11PathSegmentNtNtBH_5token7PathSepEE3newBH_, symObjAddr: 0x1508, symBinAddr: 0x660B0, symSize: 0x14 }
  - { offset: 0x16A3FE, size: 0x8, addend: 0x0, symName: __RNvMNtCse1nGBsou5OW_5alloc3vecINtB2_3VecTNtNtCs6IAuOt8vWmF_3syn4path15GenericArgumentNtNtBH_5token5CommaEE3newBH_, symObjAddr: 0x151C, symBinAddr: 0x660C4, symSize: 0x14 }
  - { offset: 0x16A41B, size: 0x8, addend: 0x0, symName: __RNvMNtCse1nGBsou5OW_5alloc3vecINtB2_3VecTNtNtCs6IAuOt8vWmF_3syn8generics12GenericParamNtNtBH_5token5CommaEE3newBH_, symObjAddr: 0x1530, symBinAddr: 0x660D8, symSize: 0x14 }
  - { offset: 0x16A438, size: 0x8, addend: 0x0, symName: __RNvMNtCse1nGBsou5OW_5alloc3vecINtB2_3VecTNtNtCs6IAuOt8vWmF_3syn8generics13CapturedParamNtNtBH_5token5CommaEE3newBH_, symObjAddr: 0x1544, symBinAddr: 0x660EC, symSize: 0x14 }
  - { offset: 0x16A455, size: 0x8, addend: 0x0, symName: __RNvMNtCse1nGBsou5OW_5alloc3vecINtB2_3VecTNtNtCs6IAuOt8vWmF_3syn8generics14TypeParamBoundNtNtBH_5token4PlusEE3newBH_, symObjAddr: 0x1558, symBinAddr: 0x66100, symSize: 0x14 }
  - { offset: 0x16A472, size: 0x8, addend: 0x0, symName: __RNvMNtCse1nGBsou5OW_5alloc3vecINtB2_3VecTNtNtCs6IAuOt8vWmF_3syn8generics14WherePredicateNtNtBH_5token5CommaEE3newBH_, symObjAddr: 0x156C, symBinAddr: 0x66114, symSize: 0x14 }
  - { offset: 0x16A48F, size: 0x8, addend: 0x0, symName: __RNvMNtCse1nGBsou5OW_5alloc3vecINtB2_3VecTNtNtCs6IAuOt8vWmF_3syn8lifetime8LifetimeNtNtBH_5token4PlusEE3newBH_, symObjAddr: 0x1580, symBinAddr: 0x66128, symSize: 0x14 }
  - { offset: 0x16A4AC, size: 0x8, addend: 0x0, symName: __RNvMNtCse1nGBsou5OW_5alloc3vecINtB2_3VechE3newCs6IAuOt8vWmF_3syn, symObjAddr: 0x1594, symBinAddr: 0x6613C, symSize: 0x14 }
  - { offset: 0x16A5CE, size: 0x8, addend: 0x0, symName: __RNvMs0_NtCse1nGBsou5OW_5alloc3vecINtB5_3VechE17extend_from_sliceCs6IAuOt8vWmF_3syn, symObjAddr: 0x15A8, symBinAddr: 0x66150, symSize: 0x74 }
  - { offset: 0x16A856, size: 0x8, addend: 0x0, symName: __RNvMs0_NtCse1nGBsou5OW_5alloc3vecINtB5_3VechE6resizeCs6IAuOt8vWmF_3syn, symObjAddr: 0x161C, symBinAddr: 0x661C4, symSize: 0x100 }
  - { offset: 0x16AAF7, size: 0x8, addend: 0x0, symName: __RNvMs2_NtCse1nGBsou5OW_5alloc3vecINtB5_3VechE11extend_withCs6IAuOt8vWmF_3syn, symObjAddr: 0x171C, symBinAddr: 0x662C4, symSize: 0x230 }
  - { offset: 0x16AEA8, size: 0x8, addend: 0x0, symName: __RNvMs_NtCse1nGBsou5OW_5alloc3vecINtB4_3VecNtNtCs6IAuOt8vWmF_3syn4attr9AttributeE15append_elementsBI_, symObjAddr: 0x194C, symBinAddr: 0x664F4, symSize: 0xD8 }
  - { offset: 0x16B0DD, size: 0x8, addend: 0x0, symName: __RNvMs_NtCse1nGBsou5OW_5alloc3vecINtB4_3VecNtNtCs6IAuOt8vWmF_3syn4attr9AttributeE4pushBI_, symObjAddr: 0x1A24, symBinAddr: 0x665CC, symSize: 0x118 }
  - { offset: 0x16B379, size: 0x8, addend: 0x0, symName: __RNvMs_NtCse1nGBsou5OW_5alloc3vecINtB4_3VecNtNtCs6IAuOt8vWmF_3syn4attr9AttributeE6appendBI_, symObjAddr: 0x1B3C, symBinAddr: 0x666E4, symSize: 0x8C }
  - { offset: 0x16B5AE, size: 0x8, addend: 0x0, symName: __RNvMs_NtCse1nGBsou5OW_5alloc3vecINtB4_3VecNtNtCs6IAuOt8vWmF_3syn4attr9AttributeE7reserveBI_, symObjAddr: 0x1BC8, symBinAddr: 0x66770, symSize: 0xC8 }
  - { offset: 0x16B785, size: 0x8, addend: 0x0, symName: __RNvMs_NtCse1nGBsou5OW_5alloc3vecINtB4_3VecNtNtCs6IAuOt8vWmF_3syn4attr9AttributeE8as_sliceBI_, symObjAddr: 0x1C90, symBinAddr: 0x66838, symSize: 0x64 }
  - { offset: 0x16B864, size: 0x8, addend: 0x0, symName: __RNvMs_NtCse1nGBsou5OW_5alloc3vecINtB4_3VecNtNtCs6IAuOt8vWmF_3syn4attr9AttributeE8is_emptyBI_, symObjAddr: 0x1CF4, symBinAddr: 0x6689C, symSize: 0x20 }
  - { offset: 0x16B8C4, size: 0x8, addend: 0x0, symName: __RNvMs_NtCse1nGBsou5OW_5alloc3vecINtB4_3VecNtNtCs6IAuOt8vWmF_3syn4expr3ArmE3lenBI_, symObjAddr: 0x1DDC, symBinAddr: 0x668BC, symSize: 0x18 }
  - { offset: 0x16BA0C, size: 0x8, addend: 0x0, symName: __RNvMs_NtCse1nGBsou5OW_5alloc3vecINtB4_3VecNtNtCs6IAuOt8vWmF_3syn4expr3ArmE4pushBI_, symObjAddr: 0x1DF4, symBinAddr: 0x668D4, symSize: 0x120 }
  - { offset: 0x16BC5A, size: 0x8, addend: 0x0, symName: __RNvMs_NtCse1nGBsou5OW_5alloc3vecINtB4_3VecNtNtCs6IAuOt8vWmF_3syn4expr3ArmE8as_sliceBI_, symObjAddr: 0x1F14, symBinAddr: 0x669F4, symSize: 0x64 }
  - { offset: 0x16BE6E, size: 0x8, addend: 0x0, symName: __RNvMs_NtCse1nGBsou5OW_5alloc3vecINtB4_3VecNtNtCs6IAuOt8vWmF_3syn4expr6ExprIfE3popBI_, symObjAddr: 0x1F78, symBinAddr: 0x66A58, symSize: 0x100 }
  - { offset: 0x16C0E2, size: 0x8, addend: 0x0, symName: __RNvMs_NtCse1nGBsou5OW_5alloc3vecINtB4_3VecNtNtCs6IAuOt8vWmF_3syn4expr6ExprIfE4pushBI_, symObjAddr: 0x2078, symBinAddr: 0x66B58, symSize: 0x120 }
  - { offset: 0x16C3AC, size: 0x8, addend: 0x0, symName: __RNvMs_NtCse1nGBsou5OW_5alloc3vecINtB4_3VecNtNtCs6IAuOt8vWmF_3syn4item11ForeignItemE4pushBI_, symObjAddr: 0x2198, symBinAddr: 0x66C78, symSize: 0x120 }
  - { offset: 0x16C676, size: 0x8, addend: 0x0, symName: __RNvMs_NtCse1nGBsou5OW_5alloc3vecINtB4_3VecNtNtCs6IAuOt8vWmF_3syn4item4ItemE4pushBI_, symObjAddr: 0x22B8, symBinAddr: 0x66D98, symSize: 0x120 }
  - { offset: 0x16C940, size: 0x8, addend: 0x0, symName: __RNvMs_NtCse1nGBsou5OW_5alloc3vecINtB4_3VecNtNtCs6IAuOt8vWmF_3syn4item8ImplItemE4pushBI_, symObjAddr: 0x23D8, symBinAddr: 0x66EB8, symSize: 0x120 }
  - { offset: 0x16CC0A, size: 0x8, addend: 0x0, symName: __RNvMs_NtCse1nGBsou5OW_5alloc3vecINtB4_3VecNtNtCs6IAuOt8vWmF_3syn4item9TraitItemE4pushBI_, symObjAddr: 0x24F8, symBinAddr: 0x66FD8, symSize: 0x120 }
  - { offset: 0x16CED4, size: 0x8, addend: 0x0, symName: __RNvMs_NtCse1nGBsou5OW_5alloc3vecINtB4_3VecNtNtCs6IAuOt8vWmF_3syn4stmt4StmtE4pushBI_, symObjAddr: 0x2618, symBinAddr: 0x670F8, symSize: 0x120 }
  - { offset: 0x16D0E6, size: 0x8, addend: 0x0, symName: __RNvMs_NtCse1nGBsou5OW_5alloc3vecINtB4_3VecNtNtCs6IAuOt8vWmF_3syn5error12ErrorMessageE3lenBI_, symObjAddr: 0x2818, symBinAddr: 0x67218, symSize: 0x18 }
  - { offset: 0x16D1B6, size: 0x8, addend: 0x0, symName: __RNvMs_NtCse1nGBsou5OW_5alloc3vecINtB4_3VecNtNtCs6IAuOt8vWmF_3syn5error12ErrorMessageE8as_sliceBI_, symObjAddr: 0x28F8, symBinAddr: 0x67230, symSize: 0x64 }
  - { offset: 0x16D39D, size: 0x8, addend: 0x0, symName: __RNvMs_NtCse1nGBsou5OW_5alloc3vecINtB4_3VecNtNtCs6IAuOt8vWmF_3syn6buffer5EntryE13shrink_to_fitBI_, symObjAddr: 0x295C, symBinAddr: 0x67294, symSize: 0xEC }
  - { offset: 0x16D610, size: 0x8, addend: 0x0, symName: __RNvMs_NtCse1nGBsou5OW_5alloc3vecINtB4_3VecNtNtCs6IAuOt8vWmF_3syn6buffer5EntryE16into_boxed_sliceBI_, symObjAddr: 0x2A48, symBinAddr: 0x67380, symSize: 0x110 }
  - { offset: 0x16D7D9, size: 0x8, addend: 0x0, symName: __RNvMs_NtCse1nGBsou5OW_5alloc3vecINtB4_3VecNtNtCs6IAuOt8vWmF_3syn6buffer5EntryE3lenBI_, symObjAddr: 0x2B58, symBinAddr: 0x67490, symSize: 0x18 }
  - { offset: 0x16D8FA, size: 0x8, addend: 0x0, symName: __RNvMs_NtCse1nGBsou5OW_5alloc3vecINtB4_3VecNtNtCs6IAuOt8vWmF_3syn6buffer5EntryE4pushBI_, symObjAddr: 0x2B70, symBinAddr: 0x674A8, symSize: 0x100 }
  - { offset: 0x16DBC4, size: 0x8, addend: 0x0, symName: __RNvMs_NtCse1nGBsou5OW_5alloc3vecINtB4_3VecNtNtCs6IAuOt8vWmF_3syn8generics14TypeParamBoundE7reserveBI_, symObjAddr: 0x2C70, symBinAddr: 0x675A8, symSize: 0xC8 }
  - { offset: 0x16DD2B, size: 0x8, addend: 0x0, symName: __RNvMs_NtCse1nGBsou5OW_5alloc3vecINtB4_3VecReE3lenCs6IAuOt8vWmF_3syn, symObjAddr: 0x2D38, symBinAddr: 0x67670, symSize: 0x18 }
  - { offset: 0x16DE3F, size: 0x8, addend: 0x0, symName: __RNvMs_NtCse1nGBsou5OW_5alloc3vecINtB4_3VecReE4pushCs6IAuOt8vWmF_3syn, symObjAddr: 0x2D50, symBinAddr: 0x67688, symSize: 0xF4 }
  - { offset: 0x16E062, size: 0x8, addend: 0x0, symName: __RNvMs_NtCse1nGBsou5OW_5alloc3vecINtB4_3VecReE8as_sliceCs6IAuOt8vWmF_3syn, symObjAddr: 0x2E44, symBinAddr: 0x6777C, symSize: 0x64 }
  - { offset: 0x16E129, size: 0x8, addend: 0x0, symName: __RNvMs_NtCse1nGBsou5OW_5alloc3vecINtB4_3VecTNtNtCs6IAuOt8vWmF_3syn2ty4TypeNtNtBJ_5token5CommaEE3lenBJ_, symObjAddr: 0x2EA8, symBinAddr: 0x677E0, symSize: 0x18 }
  - { offset: 0x16E271, size: 0x8, addend: 0x0, symName: __RNvMs_NtCse1nGBsou5OW_5alloc3vecINtB4_3VecTNtNtCs6IAuOt8vWmF_3syn2ty4TypeNtNtBJ_5token5CommaEE4pushBJ_, symObjAddr: 0x2EC0, symBinAddr: 0x677F8, symSize: 0x120 }
  - { offset: 0x16E4BF, size: 0x8, addend: 0x0, symName: __RNvMs_NtCse1nGBsou5OW_5alloc3vecINtB4_3VecTNtNtCs6IAuOt8vWmF_3syn2ty4TypeNtNtBJ_5token5CommaEE8as_sliceBJ_, symObjAddr: 0x2FE0, symBinAddr: 0x67918, symSize: 0x64 }
  - { offset: 0x16E586, size: 0x8, addend: 0x0, symName: __RNvMs_NtCse1nGBsou5OW_5alloc3vecINtB4_3VecTNtNtCs6IAuOt8vWmF_3syn2ty9BareFnArgNtNtBJ_5token5CommaEE3lenBJ_, symObjAddr: 0x3044, symBinAddr: 0x6797C, symSize: 0x18 }
  - { offset: 0x16E6CE, size: 0x8, addend: 0x0, symName: __RNvMs_NtCse1nGBsou5OW_5alloc3vecINtB4_3VecTNtNtCs6IAuOt8vWmF_3syn2ty9BareFnArgNtNtBJ_5token5CommaEE4pushBJ_, symObjAddr: 0x305C, symBinAddr: 0x67994, symSize: 0x120 }
  - { offset: 0x16E91C, size: 0x8, addend: 0x0, symName: __RNvMs_NtCse1nGBsou5OW_5alloc3vecINtB4_3VecTNtNtCs6IAuOt8vWmF_3syn2ty9BareFnArgNtNtBJ_5token5CommaEE8as_sliceBJ_, symObjAddr: 0x317C, symBinAddr: 0x67AB4, symSize: 0x64 }
  - { offset: 0x16EAE9, size: 0x8, addend: 0x0, symName: __RNvMs_NtCse1nGBsou5OW_5alloc3vecINtB4_3VecTNtNtCs6IAuOt8vWmF_3syn3pat3PatNtNtBJ_5token2OrEE4pushBJ_, symObjAddr: 0x31E0, symBinAddr: 0x67B18, symSize: 0x120 }
  - { offset: 0x16ED44, size: 0x8, addend: 0x0, symName: __RNvMs_NtCse1nGBsou5OW_5alloc3vecINtB4_3VecTNtNtCs6IAuOt8vWmF_3syn3pat3PatNtNtBJ_5token2OrEE8as_sliceBJ_, symObjAddr: 0x3300, symBinAddr: 0x67C38, symSize: 0x64 }
  - { offset: 0x16EE0B, size: 0x8, addend: 0x0, symName: __RNvMs_NtCse1nGBsou5OW_5alloc3vecINtB4_3VecTNtNtCs6IAuOt8vWmF_3syn3pat3PatNtNtBJ_5token5CommaEE3lenBJ_, symObjAddr: 0x3364, symBinAddr: 0x67C9C, symSize: 0x18 }
  - { offset: 0x16EF53, size: 0x8, addend: 0x0, symName: __RNvMs_NtCse1nGBsou5OW_5alloc3vecINtB4_3VecTNtNtCs6IAuOt8vWmF_3syn3pat3PatNtNtBJ_5token5CommaEE4pushBJ_, symObjAddr: 0x337C, symBinAddr: 0x67CB4, symSize: 0x120 }
  - { offset: 0x16F1A1, size: 0x8, addend: 0x0, symName: __RNvMs_NtCse1nGBsou5OW_5alloc3vecINtB4_3VecTNtNtCs6IAuOt8vWmF_3syn3pat3PatNtNtBJ_5token5CommaEE8as_sliceBJ_, symObjAddr: 0x349C, symBinAddr: 0x67DD4, symSize: 0x64 }
  - { offset: 0x16F36E, size: 0x8, addend: 0x0, symName: __RNvMs_NtCse1nGBsou5OW_5alloc3vecINtB4_3VecTNtNtCs6IAuOt8vWmF_3syn3pat8FieldPatNtNtBJ_5token5CommaEE4pushBJ_, symObjAddr: 0x3500, symBinAddr: 0x67E38, symSize: 0x118 }
  - { offset: 0x16F5C7, size: 0x8, addend: 0x0, symName: __RNvMs_NtCse1nGBsou5OW_5alloc3vecINtB4_3VecTNtNtCs6IAuOt8vWmF_3syn3pat8FieldPatNtNtBJ_5token5CommaEE8as_sliceBJ_, symObjAddr: 0x3618, symBinAddr: 0x67F50, symSize: 0x64 }
  - { offset: 0x16F7BB, size: 0x8, addend: 0x0, symName: __RNvMs_NtCse1nGBsou5OW_5alloc3vecINtB4_3VecTNtNtCs6IAuOt8vWmF_3syn4data5FieldNtNtBJ_5token5CommaEE4pushBJ_, symObjAddr: 0x36F8, symBinAddr: 0x67FB4, symSize: 0x120 }
  - { offset: 0x16FA00, size: 0x8, addend: 0x0, symName: __RNvMs_NtCse1nGBsou5OW_5alloc3vecINtB4_3VecTNtNtCs6IAuOt8vWmF_3syn4data5FieldNtNtBJ_5token5CommaEE8as_sliceBJ_, symObjAddr: 0x3818, symBinAddr: 0x680D4, symSize: 0x64 }
  - { offset: 0x16FBCD, size: 0x8, addend: 0x0, symName: __RNvMs_NtCse1nGBsou5OW_5alloc3vecINtB4_3VecTNtNtCs6IAuOt8vWmF_3syn4data7VariantNtNtBJ_5token5CommaEE4pushBJ_, symObjAddr: 0x3894, symBinAddr: 0x68138, symSize: 0x120 }
  - { offset: 0x16FE28, size: 0x8, addend: 0x0, symName: __RNvMs_NtCse1nGBsou5OW_5alloc3vecINtB4_3VecTNtNtCs6IAuOt8vWmF_3syn4data7VariantNtNtBJ_5token5CommaEE8as_sliceBJ_, symObjAddr: 0x39B4, symBinAddr: 0x68258, symSize: 0x64 }
  - { offset: 0x16FFF5, size: 0x8, addend: 0x0, symName: __RNvMs_NtCse1nGBsou5OW_5alloc3vecINtB4_3VecTNtNtCs6IAuOt8vWmF_3syn4expr10FieldValueNtNtBJ_5token5CommaEE4pushBJ_, symObjAddr: 0x3A18, symBinAddr: 0x682BC, symSize: 0x120 }
  - { offset: 0x170250, size: 0x8, addend: 0x0, symName: __RNvMs_NtCse1nGBsou5OW_5alloc3vecINtB4_3VecTNtNtCs6IAuOt8vWmF_3syn4expr10FieldValueNtNtBJ_5token5CommaEE8as_sliceBJ_, symObjAddr: 0x3B38, symBinAddr: 0x683DC, symSize: 0x64 }
  - { offset: 0x170317, size: 0x8, addend: 0x0, symName: __RNvMs_NtCse1nGBsou5OW_5alloc3vecINtB4_3VecTNtNtCs6IAuOt8vWmF_3syn4expr4ExprNtNtBJ_5token5CommaEE3lenBJ_, symObjAddr: 0x3B9C, symBinAddr: 0x68440, symSize: 0x18 }
  - { offset: 0x17045F, size: 0x8, addend: 0x0, symName: __RNvMs_NtCse1nGBsou5OW_5alloc3vecINtB4_3VecTNtNtCs6IAuOt8vWmF_3syn4expr4ExprNtNtBJ_5token5CommaEE4pushBJ_, symObjAddr: 0x3BB4, symBinAddr: 0x68458, symSize: 0x120 }
  - { offset: 0x1706AD, size: 0x8, addend: 0x0, symName: __RNvMs_NtCse1nGBsou5OW_5alloc3vecINtB4_3VecTNtNtCs6IAuOt8vWmF_3syn4expr4ExprNtNtBJ_5token5CommaEE8as_sliceBJ_, symObjAddr: 0x3CD4, symBinAddr: 0x68578, symSize: 0x64 }
  - { offset: 0x170774, size: 0x8, addend: 0x0, symName: __RNvMs_NtCse1nGBsou5OW_5alloc3vecINtB4_3VecTNtNtCs6IAuOt8vWmF_3syn4item5FnArgNtNtBJ_5token5CommaEE3lenBJ_, symObjAddr: 0x3D38, symBinAddr: 0x685DC, symSize: 0x18 }
  - { offset: 0x1708BC, size: 0x8, addend: 0x0, symName: __RNvMs_NtCse1nGBsou5OW_5alloc3vecINtB4_3VecTNtNtCs6IAuOt8vWmF_3syn4item5FnArgNtNtBJ_5token5CommaEE4pushBJ_, symObjAddr: 0x3D50, symBinAddr: 0x685F4, symSize: 0x120 }
  - { offset: 0x170B0A, size: 0x8, addend: 0x0, symName: __RNvMs_NtCse1nGBsou5OW_5alloc3vecINtB4_3VecTNtNtCs6IAuOt8vWmF_3syn4item5FnArgNtNtBJ_5token5CommaEE8as_sliceBJ_, symObjAddr: 0x3E70, symBinAddr: 0x68714, symSize: 0x64 }
  - { offset: 0x170CD7, size: 0x8, addend: 0x0, symName: __RNvMs_NtCse1nGBsou5OW_5alloc3vecINtB4_3VecTNtNtCs6IAuOt8vWmF_3syn4item7UseTreeNtNtBJ_5token5CommaEE4pushBJ_, symObjAddr: 0x3ED4, symBinAddr: 0x68778, symSize: 0x118 }
  - { offset: 0x170F30, size: 0x8, addend: 0x0, symName: __RNvMs_NtCse1nGBsou5OW_5alloc3vecINtB4_3VecTNtNtCs6IAuOt8vWmF_3syn4item7UseTreeNtNtBJ_5token5CommaEE8as_sliceBJ_, symObjAddr: 0x3FEC, symBinAddr: 0x68890, symSize: 0x64 }
  - { offset: 0x1710C5, size: 0x8, addend: 0x0, symName: __RNvMs_NtCse1nGBsou5OW_5alloc3vecINtB4_3VecTNtNtCs6IAuOt8vWmF_3syn4path11PathSegmentNtNtBJ_5token7PathSepEE12as_mut_sliceBJ_, symObjAddr: 0x4050, symBinAddr: 0x688F4, symSize: 0x64 }
  - { offset: 0x1711A1, size: 0x8, addend: 0x0, symName: __RNvMs_NtCse1nGBsou5OW_5alloc3vecINtB4_3VecTNtNtCs6IAuOt8vWmF_3syn4path11PathSegmentNtNtBJ_5token7PathSepEE3lenBJ_, symObjAddr: 0x40B4, symBinAddr: 0x68958, symSize: 0x18 }
  - { offset: 0x1712EF, size: 0x8, addend: 0x0, symName: __RNvMs_NtCse1nGBsou5OW_5alloc3vecINtB4_3VecTNtNtCs6IAuOt8vWmF_3syn4path11PathSegmentNtNtBJ_5token7PathSepEE3popBJ_, symObjAddr: 0x40CC, symBinAddr: 0x68970, symSize: 0x104 }
  - { offset: 0x171563, size: 0x8, addend: 0x0, symName: __RNvMs_NtCse1nGBsou5OW_5alloc3vecINtB4_3VecTNtNtCs6IAuOt8vWmF_3syn4path11PathSegmentNtNtBJ_5token7PathSepEE4pushBJ_, symObjAddr: 0x41D0, symBinAddr: 0x68A74, symSize: 0x120 }
  - { offset: 0x1717A8, size: 0x8, addend: 0x0, symName: __RNvMs_NtCse1nGBsou5OW_5alloc3vecINtB4_3VecTNtNtCs6IAuOt8vWmF_3syn4path11PathSegmentNtNtBJ_5token7PathSepEE8as_sliceBJ_, symObjAddr: 0x42F0, symBinAddr: 0x68B94, symSize: 0x64 }
  - { offset: 0x17186F, size: 0x8, addend: 0x0, symName: __RNvMs_NtCse1nGBsou5OW_5alloc3vecINtB4_3VecTNtNtCs6IAuOt8vWmF_3syn4path15GenericArgumentNtNtBJ_5token5CommaEE3lenBJ_, symObjAddr: 0x4354, symBinAddr: 0x68BF8, symSize: 0x18 }
  - { offset: 0x1719B7, size: 0x8, addend: 0x0, symName: __RNvMs_NtCse1nGBsou5OW_5alloc3vecINtB4_3VecTNtNtCs6IAuOt8vWmF_3syn4path15GenericArgumentNtNtBJ_5token5CommaEE4pushBJ_, symObjAddr: 0x436C, symBinAddr: 0x68C10, symSize: 0x120 }
