---
triple:          'arm64-apple-darwin'
binary-path:     '/Users/cedric/orange/ran-llm-claude-flow/src/rust-pipeline/target/debug/deps/libfutures_macro-d91fa446291fdb7b.dylib'
relocations:
  - { offset: 0x1E, size: 0x8, addend: 0x0, symName: __RINvNtNtCs9i5KxIbZ5ph_10proc_macro6bridge6client10run_clientNtB2_11TokenStreamINtNtCsfvfooZQ3Axs_4core6option6OptionBW_ENCNCINvMs7_B2_INtB2_6ClientNtB6_11TokenStreamB2l_E7expand1NvCs8XcImbZQYrD_13futures_macro13join_internalE00EB2S_, symObjAddr: 0x0, symBinAddr: 0xC50, symSize: 0x21C }
  - { offset: 0x399, size: 0x8, addend: 0x0, symName: __RNCINvNtNtCs9i5KxIbZ5ph_10proc_macro6bridge6client10run_clientNtB4_11TokenStreamINtNtCsfvfooZQ3Axs_4core6option6OptionBY_ENCNCINvMs7_B4_INtB4_6ClientNtB8_11TokenStreamB2n_E7expand1NvCs8XcImbZQYrD_13futures_macro13join_internalE00E0B2U_, symObjAddr: 0xDC8, symBinAddr: 0x1A18, symSize: 0x324 }
  - { offset: 0x5FC, size: 0x8, addend: 0x0, symName: __RNCINvNtNtCs9i5KxIbZ5ph_10proc_macro6bridge6client10run_clientNtB4_11TokenStreamINtNtCsfvfooZQ3Axs_4core6option6OptionBY_ENCNCINvMs7_B4_INtB4_6ClientNtB8_11TokenStreamB2n_E7expand1NvCs8XcImbZQYrD_13futures_macro15select_internalE00E0B2U_, symObjAddr: 0x10EC, symBinAddr: 0x1D3C, symSize: 0x324 }
  - { offset: 0x85F, size: 0x8, addend: 0x0, symName: __RNCINvNtNtCs9i5KxIbZ5ph_10proc_macro6bridge6client10run_clientNtB4_11TokenStreamINtNtCsfvfooZQ3Axs_4core6option6OptionBY_ENCNCINvMs7_B4_INtB4_6ClientNtB8_11TokenStreamB2n_E7expand1NvCs8XcImbZQYrD_13futures_macro17try_join_internalE00E0B2U_, symObjAddr: 0x1410, symBinAddr: 0x2060, symSize: 0x324 }
  - { offset: 0xAC2, size: 0x8, addend: 0x0, symName: __RNCINvNtNtCs9i5KxIbZ5ph_10proc_macro6bridge6client10run_clientNtB4_11TokenStreamINtNtCsfvfooZQ3Axs_4core6option6OptionBY_ENCNCINvMs7_B4_INtB4_6ClientNtB8_11TokenStreamB2n_E7expand1NvCs8XcImbZQYrD_13futures_macro22select_biased_internalE00E0B2U_, symObjAddr: 0x1734, symBinAddr: 0x2384, symSize: 0x324 }
  - { offset: 0xD25, size: 0x8, addend: 0x0, symName: __RNCINvNtNtCs9i5KxIbZ5ph_10proc_macro6bridge6client10run_clientNtB4_11TokenStreamINtNtCsfvfooZQ3Axs_4core6option6OptionBY_ENCNCINvMs7_B4_INtB4_6ClientNtB8_11TokenStreamB2n_E7expand1NvCs8XcImbZQYrD_13futures_macro22stream_select_internalE00E0B2U_, symObjAddr: 0x1A58, symBinAddr: 0x26A8, symSize: 0x324 }
  - { offset: 0xF88, size: 0x8, addend: 0x0, symName: __RNCINvNtNtCs9i5KxIbZ5ph_10proc_macro6bridge6client10run_clientTNtB4_11TokenStreamBZ_EINtNtCsfvfooZQ3Axs_4core6option6OptionBZ_ENCNCINvMs8_B4_INtB4_6ClientTNtB8_11TokenStreamB2t_EB2t_E7expand2NvCs8XcImbZQYrD_13futures_macro13test_internalE00E0B35_, symObjAddr: 0x1D7C, symBinAddr: 0x29CC, symSize: 0x344 }
  - { offset: 0x11F0, size: 0x8, addend: 0x0, symName: __RNCNCINvNtNtCs9i5KxIbZ5ph_10proc_macro6bridge6client10run_clientNtB6_11TokenStreamINtNtCsfvfooZQ3Axs_4core6option6OptionB10_ENCNCINvMs7_B6_INtB6_6ClientNtBa_11TokenStreamB2q_E7expand1NvCs8XcImbZQYrD_13futures_macro13join_internalE00E00B2X_, symObjAddr: 0x21F4, symBinAddr: 0x2E44, symSize: 0x28 }
  - { offset: 0x124A, size: 0x8, addend: 0x0, symName: __RNCNCINvNtNtCs9i5KxIbZ5ph_10proc_macro6bridge6client10run_clientNtB6_11TokenStreamINtNtCsfvfooZQ3Axs_4core6option6OptionB10_ENCNCINvMs7_B6_INtB6_6ClientNtBa_11TokenStreamB2q_E7expand1NvCs8XcImbZQYrD_13futures_macro15select_internalE00E00B2X_, symObjAddr: 0x221C, symBinAddr: 0x2E6C, symSize: 0x28 }
  - { offset: 0x12A4, size: 0x8, addend: 0x0, symName: __RNCNCINvNtNtCs9i5KxIbZ5ph_10proc_macro6bridge6client10run_clientNtB6_11TokenStreamINtNtCsfvfooZQ3Axs_4core6option6OptionB10_ENCNCINvMs7_B6_INtB6_6ClientNtBa_11TokenStreamB2q_E7expand1NvCs8XcImbZQYrD_13futures_macro17try_join_internalE00E00B2X_, symObjAddr: 0x2244, symBinAddr: 0x2E94, symSize: 0x28 }
  - { offset: 0x12FE, size: 0x8, addend: 0x0, symName: __RNCNCINvNtNtCs9i5KxIbZ5ph_10proc_macro6bridge6client10run_clientNtB6_11TokenStreamINtNtCsfvfooZQ3Axs_4core6option6OptionB10_ENCNCINvMs7_B6_INtB6_6ClientNtBa_11TokenStreamB2q_E7expand1NvCs8XcImbZQYrD_13futures_macro22select_biased_internalE00E00B2X_, symObjAddr: 0x226C, symBinAddr: 0x2EBC, symSize: 0x28 }
  - { offset: 0x1358, size: 0x8, addend: 0x0, symName: __RNCNCINvNtNtCs9i5KxIbZ5ph_10proc_macro6bridge6client10run_clientNtB6_11TokenStreamINtNtCsfvfooZQ3Axs_4core6option6OptionB10_ENCNCINvMs7_B6_INtB6_6ClientNtBa_11TokenStreamB2q_E7expand1NvCs8XcImbZQYrD_13futures_macro22stream_select_internalE00E00B2X_, symObjAddr: 0x2294, symBinAddr: 0x2EE4, symSize: 0x28 }
  - { offset: 0x13B2, size: 0x8, addend: 0x0, symName: __RNCNCINvNtNtCs9i5KxIbZ5ph_10proc_macro6bridge6client10run_clientTNtB6_11TokenStreamB11_EINtNtCsfvfooZQ3Axs_4core6option6OptionB11_ENCNCINvMs8_B6_INtB6_6ClientTNtBa_11TokenStreamB2x_EB2x_E7expand2NvCs8XcImbZQYrD_13futures_macro13test_internalE00E00B39_, symObjAddr: 0x22BC, symBinAddr: 0x2F0C, symSize: 0x24 }
  - { offset: 0x147E, size: 0x8, addend: 0x0, symName: __RNCNCINvMs7_NtNtCs9i5KxIbZ5ph_10proc_macro6bridge6clientINtBa_6ClientNtBe_11TokenStreamB15_E7expand1NvCs8XcImbZQYrD_13futures_macro13join_internalE00B1C_, symObjAddr: 0x20C0, symBinAddr: 0x2D10, symSize: 0x30 }
  - { offset: 0x14C6, size: 0x8, addend: 0x0, symName: __RNCNCINvMs7_NtNtCs9i5KxIbZ5ph_10proc_macro6bridge6clientINtBa_6ClientNtBe_11TokenStreamB15_E7expand1NvCs8XcImbZQYrD_13futures_macro15select_internalE00B1C_, symObjAddr: 0x20F0, symBinAddr: 0x2D40, symSize: 0x30 }
  - { offset: 0x150E, size: 0x8, addend: 0x0, symName: __RNCNCINvMs7_NtNtCs9i5KxIbZ5ph_10proc_macro6bridge6clientINtBa_6ClientNtBe_11TokenStreamB15_E7expand1NvCs8XcImbZQYrD_13futures_macro17try_join_internalE00B1C_, symObjAddr: 0x2120, symBinAddr: 0x2D70, symSize: 0x30 }
  - { offset: 0x1556, size: 0x8, addend: 0x0, symName: __RNCNCINvMs7_NtNtCs9i5KxIbZ5ph_10proc_macro6bridge6clientINtBa_6ClientNtBe_11TokenStreamB15_E7expand1NvCs8XcImbZQYrD_13futures_macro22select_biased_internalE00B1C_, symObjAddr: 0x2150, symBinAddr: 0x2DA0, symSize: 0x30 }
  - { offset: 0x159E, size: 0x8, addend: 0x0, symName: __RNCNCINvMs7_NtNtCs9i5KxIbZ5ph_10proc_macro6bridge6clientINtBa_6ClientNtBe_11TokenStreamB15_E7expand1NvCs8XcImbZQYrD_13futures_macro22stream_select_internalE00B1C_, symObjAddr: 0x2180, symBinAddr: 0x2DD0, symSize: 0x30 }
  - { offset: 0x15E7, size: 0x8, addend: 0x0, symName: __RNCINvMs7_NtNtCs9i5KxIbZ5ph_10proc_macro6bridge6clientINtB8_6ClientNtBc_11TokenStreamB13_E7expand1NvCs8XcImbZQYrD_13futures_macro13join_internalE0B1A_, symObjAddr: 0xCA8, symBinAddr: 0x18F8, symSize: 0x30 }
  - { offset: 0x1630, size: 0x8, addend: 0x0, symName: __RNCINvMs7_NtNtCs9i5KxIbZ5ph_10proc_macro6bridge6clientINtB8_6ClientNtBc_11TokenStreamB13_E7expand1NvCs8XcImbZQYrD_13futures_macro15select_internalE0B1A_, symObjAddr: 0xCD8, symBinAddr: 0x1928, symSize: 0x30 }
  - { offset: 0x1679, size: 0x8, addend: 0x0, symName: __RNCINvMs7_NtNtCs9i5KxIbZ5ph_10proc_macro6bridge6clientINtB8_6ClientNtBc_11TokenStreamB13_E7expand1NvCs8XcImbZQYrD_13futures_macro17try_join_internalE0B1A_, symObjAddr: 0xD08, symBinAddr: 0x1958, symSize: 0x30 }
  - { offset: 0x16C2, size: 0x8, addend: 0x0, symName: __RNCINvMs7_NtNtCs9i5KxIbZ5ph_10proc_macro6bridge6clientINtB8_6ClientNtBc_11TokenStreamB13_E7expand1NvCs8XcImbZQYrD_13futures_macro22select_biased_internalE0B1A_, symObjAddr: 0xD38, symBinAddr: 0x1988, symSize: 0x30 }
  - { offset: 0x170B, size: 0x8, addend: 0x0, symName: __RNCINvMs7_NtNtCs9i5KxIbZ5ph_10proc_macro6bridge6clientINtB8_6ClientNtBc_11TokenStreamB13_E7expand1NvCs8XcImbZQYrD_13futures_macro22stream_select_internalE0B1A_, symObjAddr: 0xD68, symBinAddr: 0x19B8, symSize: 0x30 }
  - { offset: 0x1777, size: 0x8, addend: 0x0, symName: __RINvNtNtCs9i5KxIbZ5ph_10proc_macro6bridge6client10run_clientNtB2_11TokenStreamINtNtCsfvfooZQ3Axs_4core6option6OptionBW_ENCNCINvMs7_B2_INtB2_6ClientNtB6_11TokenStreamB2l_E7expand1NvCs8XcImbZQYrD_13futures_macro13join_internalE00EB2S_, symObjAddr: 0x0, symBinAddr: 0xC50, symSize: 0x21C }
  - { offset: 0x1937, size: 0x8, addend: 0x0, symName: __RINvNtNtCs9i5KxIbZ5ph_10proc_macro6bridge6client10run_clientNtB2_11TokenStreamINtNtCsfvfooZQ3Axs_4core6option6OptionBW_ENCNCINvMs7_B2_INtB2_6ClientNtB6_11TokenStreamB2l_E7expand1NvCs8XcImbZQYrD_13futures_macro15select_internalE00EB2S_, symObjAddr: 0x21C, symBinAddr: 0xE6C, symSize: 0x21C }
  - { offset: 0x1AF7, size: 0x8, addend: 0x0, symName: __RINvNtNtCs9i5KxIbZ5ph_10proc_macro6bridge6client10run_clientNtB2_11TokenStreamINtNtCsfvfooZQ3Axs_4core6option6OptionBW_ENCNCINvMs7_B2_INtB2_6ClientNtB6_11TokenStreamB2l_E7expand1NvCs8XcImbZQYrD_13futures_macro17try_join_internalE00EB2S_, symObjAddr: 0x438, symBinAddr: 0x1088, symSize: 0x21C }
  - { offset: 0x1CB7, size: 0x8, addend: 0x0, symName: __RINvNtNtCs9i5KxIbZ5ph_10proc_macro6bridge6client10run_clientNtB2_11TokenStreamINtNtCsfvfooZQ3Axs_4core6option6OptionBW_ENCNCINvMs7_B2_INtB2_6ClientNtB6_11TokenStreamB2l_E7expand1NvCs8XcImbZQYrD_13futures_macro22select_biased_internalE00EB2S_, symObjAddr: 0x654, symBinAddr: 0x12A4, symSize: 0x21C }
  - { offset: 0x1E77, size: 0x8, addend: 0x0, symName: __RINvNtNtCs9i5KxIbZ5ph_10proc_macro6bridge6client10run_clientNtB2_11TokenStreamINtNtCsfvfooZQ3Axs_4core6option6OptionBW_ENCNCINvMs7_B2_INtB2_6ClientNtB6_11TokenStreamB2l_E7expand1NvCs8XcImbZQYrD_13futures_macro22stream_select_internalE00EB2S_, symObjAddr: 0x870, symBinAddr: 0x14C0, symSize: 0x21C }
  - { offset: 0x2059, size: 0x8, addend: 0x0, symName: __RNCNCINvMs8_NtNtCs9i5KxIbZ5ph_10proc_macro6bridge6clientINtBa_6ClientTNtBe_11TokenStreamB16_EB16_E7expand2NvCs8XcImbZQYrD_13futures_macro13test_internalE00B1I_, symObjAddr: 0x21B0, symBinAddr: 0x2E00, symSize: 0x44 }
  - { offset: 0x20CC, size: 0x8, addend: 0x0, symName: __RNCINvMs8_NtNtCs9i5KxIbZ5ph_10proc_macro6bridge6clientINtB8_6ClientTNtBc_11TokenStreamB14_EB14_E7expand2NvCs8XcImbZQYrD_13futures_macro13test_internalE0B1G_, symObjAddr: 0xD98, symBinAddr: 0x19E8, symSize: 0x30 }
  - { offset: 0x2117, size: 0x8, addend: 0x0, symName: __RINvNtNtCs9i5KxIbZ5ph_10proc_macro6bridge6client10run_clientTNtB2_11TokenStreamBX_EINtNtCsfvfooZQ3Axs_4core6option6OptionBX_ENCNCINvMs8_B2_INtB2_6ClientTNtB6_11TokenStreamB2r_EB2r_E7expand2NvCs8XcImbZQYrD_13futures_macro13test_internalE00EB33_, symObjAddr: 0xA8C, symBinAddr: 0x16DC, symSize: 0x21C }
  - { offset: 0x232A, size: 0x8, addend: 0x0, symName: __RNvXsg_NtNtCs9i5KxIbZ5ph_10proc_macro6bridge6clientNtB5_11TokenStreamINtNtB7_3rpc6EncodeuE6encodeCs8XcImbZQYrD_13futures_macro, symObjAddr: 0x23E8, symBinAddr: 0x3038, symSize: 0x50 }
  - { offset: 0x243B, size: 0x8, addend: 0x0, symName: __RNvXsj_NtNtCs9i5KxIbZ5ph_10proc_macro6bridge6clientNtB5_11TokenStreamINtNtB7_3rpc9DecodeMutuE6decodeCs8XcImbZQYrD_13futures_macro, symObjAddr: 0x2438, symBinAddr: 0x3088, symSize: 0x2C }
  - { offset: 0x2484, size: 0x8, addend: 0x0, symName: __RNvXsq_NtNtCs9i5KxIbZ5ph_10proc_macro6bridge6clientNtB5_4SpanINtNtB7_3rpc9DecodeMutuE6decodeCs8XcImbZQYrD_13futures_macro, symObjAddr: 0x2464, symBinAddr: 0x30B4, symSize: 0x2C }
  - { offset: 0x278A, size: 0x8, addend: 0x0, symName: __RNvXs9_NtNtCs9i5KxIbZ5ph_10proc_macro6bridge3rpcTNtNtB7_6client11TokenStreamBL_EINtB5_9DecodeMutuE6decodeCs8XcImbZQYrD_13futures_macro, symObjAddr: 0x2368, symBinAddr: 0x2FB8, symSize: 0x80 }
  - { offset: 0x6112, size: 0x8, addend: 0x0, symName: __RNvXs2_NtNtNtCsfvfooZQ3Axs_4core3ops8function5implsQNCNvNtCs8XcImbZQYrD_13futures_macro6select12select_inners0_0INtB7_6FnOnceTTTNtNtCs6IAuOt8vWmF_3syn3pat3PatNtNtB26_4expr4ExprERNtCs3cP53eQoTwO_11proc_macro25IdentEEE9call_onceBU_, symObjAddr: 0x22E0, symBinAddr: 0x2F30, symSize: 0x54 }
  - { offset: 0x6161, size: 0x8, addend: 0x0, symName: __RNvXs2_NtNtNtCsfvfooZQ3Axs_4core3ops8function5implsQNCNvNtCs8XcImbZQYrD_13futures_macro6select12select_inners_0INtB7_6FnOnceTTRNtNtCs6IAuOt8vWmF_3syn4expr8ExprPathRNtCs3cP53eQoTwO_11proc_macro25IdentEEE9call_onceBU_, symObjAddr: 0x2334, symBinAddr: 0x2F84, symSize: 0x34 }
  - { offset: 0x8139, size: 0x8, addend: 0x0, symName: __RNvXNtCs8XcImbZQYrD_13futures_macro6selectNtB2_6SelectNtNtCs6IAuOt8vWmF_3syn5parse5Parse5parse, symObjAddr: 0x2490, symBinAddr: 0x30E0, symSize: 0xE00 }
  - { offset: 0x8338, size: 0x8, addend: 0x0, symName: __RNvNtCs8XcImbZQYrD_13futures_macro6select19declare_result_enum, symObjAddr: 0x3290, symBinAddr: 0x3EE0, symSize: 0x570 }
  - { offset: 0x85DC, size: 0x8, addend: 0x0, symName: __RNCNvNtCs8XcImbZQYrD_13futures_macro6select19declare_result_enum0B5_, symObjAddr: 0x3800, symBinAddr: 0x4450, symSize: 0x100 }
  - { offset: 0x864D, size: 0x8, addend: 0x0, symName: __RNvNtCs8XcImbZQYrD_13futures_macro6select6select, symObjAddr: 0x3900, symBinAddr: 0x4550, symSize: 0x38 }
  - { offset: 0x8679, size: 0x8, addend: 0x0, symName: __RNvNtCs8XcImbZQYrD_13futures_macro6select13select_biased, symObjAddr: 0x3938, symBinAddr: 0x4588, symSize: 0x38 }
  - { offset: 0x86A5, size: 0x8, addend: 0x0, symName: __RNvNtCs8XcImbZQYrD_13futures_macro6select12select_inner, symObjAddr: 0x3970, symBinAddr: 0x45C0, symSize: 0x2D54 }
  - { offset: 0x8DD8, size: 0x8, addend: 0x0, symName: __RNCNvNtCs8XcImbZQYrD_13futures_macro6select12select_inner0B5_, symObjAddr: 0x66C4, symBinAddr: 0x7314, symSize: 0x4D0 }
  - { offset: 0x8EBB, size: 0x8, addend: 0x0, symName: __RNCNvNtCs8XcImbZQYrD_13futures_macro6select12select_inners_0B5_, symObjAddr: 0x6B94, symBinAddr: 0x77E4, symSize: 0xC0C }
  - { offset: 0x9009, size: 0x8, addend: 0x0, symName: __RNCNvNtCs8XcImbZQYrD_13futures_macro6select12select_inners0_0B5_, symObjAddr: 0x77A0, symBinAddr: 0x83F0, symSize: 0x1CC }
  - { offset: 0x90A4, size: 0x8, addend: 0x0, symName: __RNCNvNtCs8XcImbZQYrD_13futures_macro6select12select_inners1_0B5_, symObjAddr: 0x796C, symBinAddr: 0x85BC, symSize: 0x154 }
  - { offset: 0xE7AC, size: 0x8, addend: 0x0, symName: __RINvCs6IAuOt8vWmF_3syn5parseNtNtB2_4item6ItemFnECs8XcImbZQYrD_13futures_macro, symObjAddr: 0x0, symBinAddr: 0x8764, symSize: 0x30 }
  - { offset: 0xE8BE, size: 0x8, addend: 0x0, symName: __RINvCs6IAuOt8vWmF_3syn5parseNtNtB2_4item6ItemFnECs8XcImbZQYrD_13futures_macro, symObjAddr: 0x0, symBinAddr: 0x8764, symSize: 0x30 }
  - { offset: 0xE8F5, size: 0x8, addend: 0x0, symName: __RINvCs6IAuOt8vWmF_3syn5parseNtNtCs8XcImbZQYrD_13futures_macro4join4JoinEBu_, symObjAddr: 0x30, symBinAddr: 0x8794, symSize: 0x30 }
  - { offset: 0xE92C, size: 0x8, addend: 0x0, symName: __RINvCs6IAuOt8vWmF_3syn5parseNtNtCs8XcImbZQYrD_13futures_macro6select6SelectEBu_, symObjAddr: 0x60, symBinAddr: 0x87C4, symSize: 0x30 }
  - { offset: 0xE963, size: 0x8, addend: 0x0, symName: __RINvCs6IAuOt8vWmF_3syn6parse2NtNtB2_4expr4ExprECs8XcImbZQYrD_13futures_macro, symObjAddr: 0x90, symBinAddr: 0x87F4, symSize: 0x24 }
  - { offset: 0xF0DD, size: 0x8, addend: 0x0, symName: __RNvXs0_NtCs6IAuOt8vWmF_3syn5tokenNtNtNtCs8XcImbZQYrD_13futures_macro6select2kw8completeNtB5_5Token4peekBB_, symObjAddr: 0x2980, symBinAddr: 0xB0E4, symSize: 0x3C }
  - { offset: 0x1393F, size: 0x8, addend: 0x0, symName: __RINvNtNtCse1nGBsou5OW_5alloc3vec16in_place_collect18from_iter_in_placeINtNtNtNtCsfvfooZQ3Axs_4core4iter8adapters3map3MapINtNtB1b_3zip3ZipINtNtB4_9into_iter8IntoIterNtNtCs6IAuOt8vWmF_3syn4expr4ExprEINtNtNtB1f_5slice4iter4IterNtCs3cP53eQoTwO_11proc_macro25IdentEENCNvNtCs8XcImbZQYrD_13futures_macro6select12select_inner0ENtB2E_8ExprPathEB4h_, symObjAddr: 0x258, symBinAddr: 0x89BC, symSize: 0x3F4 }
  - { offset: 0x13F34, size: 0x8, addend: 0x0, symName: __RINvNtNtCse1nGBsou5OW_5alloc3vec16in_place_collect18from_iter_in_placeINtNtNtNtCsfvfooZQ3Axs_4core4iter8adapters3map3MapINtNtB1b_9enumerate9EnumerateINtNtB4_9into_iter8IntoIterNtNtCs6IAuOt8vWmF_3syn4expr4ExprEENCNvNtCs8XcImbZQYrD_13futures_macro4join12bind_futures0ENtCs3cP53eQoTwO_11proc_macro25IdentEB3s_, symObjAddr: 0x64C, symBinAddr: 0x8DB0, symSize: 0x3F4 }
  - { offset: 0x144F5, size: 0x8, addend: 0x0, symName: __RNCINvNtNtCse1nGBsou5OW_5alloc3vec16in_place_collect24write_in_place_with_dropNtCs3cP53eQoTwO_11proc_macro25IdentE0Cs8XcImbZQYrD_13futures_macro, symObjAddr: 0x1B88, symBinAddr: 0xA2EC, symSize: 0x50 }
  - { offset: 0x14576, size: 0x8, addend: 0x0, symName: __RNCINvNtNtCse1nGBsou5OW_5alloc3vec16in_place_collect24write_in_place_with_dropNtNtCs6IAuOt8vWmF_3syn4expr8ExprPathE0Cs8XcImbZQYrD_13futures_macro, symObjAddr: 0x1BD8, symBinAddr: 0xA33C, symSize: 0x60 }
  - { offset: 0x14624, size: 0x8, addend: 0x0, symName: __RNvXs0_NtNtCse1nGBsou5OW_5alloc3vec16in_place_collectINtNtNtNtCsfvfooZQ3Axs_4core4iter8adapters3map3MapINtNtBU_3zip3ZipINtNtB7_9into_iter8IntoIterNtNtCs6IAuOt8vWmF_3syn4expr4ExprEINtNtNtBY_5slice4iter4IterNtCs3cP53eQoTwO_11proc_macro25IdentEENCNvNtCs8XcImbZQYrD_13futures_macro6select12select_inner0EINtB5_18SpecInPlaceCollectNtB2m_8ExprPathBP_E16collect_in_placeB3Y_, symObjAddr: 0x29BC, symBinAddr: 0xB120, symSize: 0xC8 }
  - { offset: 0x14773, size: 0x8, addend: 0x0, symName: __RNvXs0_NtNtCse1nGBsou5OW_5alloc3vec16in_place_collectINtNtNtNtCsfvfooZQ3Axs_4core4iter8adapters3map3MapINtNtBU_9enumerate9EnumerateINtNtB7_9into_iter8IntoIterNtNtCs6IAuOt8vWmF_3syn4expr4ExprEENCNvNtCs8XcImbZQYrD_13futures_macro4join12bind_futures0EINtB5_18SpecInPlaceCollectNtCs3cP53eQoTwO_11proc_macro25IdentBP_E16collect_in_placeB3a_, symObjAddr: 0x2A84, symBinAddr: 0xB1E8, symSize: 0xC8 }
  - { offset: 0x154C6, size: 0x8, addend: 0x0, symName: __RNvNtCse1nGBsou5OW_5alloc5alloc12alloc_zeroedCs8XcImbZQYrD_13futures_macro, symObjAddr: 0x2410, symBinAddr: 0xAB74, symSize: 0x84 }
  - { offset: 0x1558A, size: 0x8, addend: 0x0, symName: __RNvXs_NtCse1nGBsou5OW_5alloc5allocNtB4_6GlobalNtNtCsfvfooZQ3Axs_4core5alloc9Allocator10deallocateCs8XcImbZQYrD_13futures_macro, symObjAddr: 0x3C48, symBinAddr: 0xC3AC, symSize: 0x88 }
  - { offset: 0x156BE, size: 0x8, addend: 0x0, symName: __RNvXs_NtCse1nGBsou5OW_5alloc5allocNtB4_6GlobalNtNtCsfvfooZQ3Axs_4core5alloc9Allocator6shrinkCs8XcImbZQYrD_13futures_macro, symObjAddr: 0x3CD0, symBinAddr: 0xC434, symSize: 0x490 }
  - { offset: 0x15E0B, size: 0x8, addend: 0x0, symName: __RNvNtCse1nGBsou5OW_5alloc5alloc15exchange_mallocCs8XcImbZQYrD_13futures_macro, symObjAddr: 0x2494, symBinAddr: 0xABF8, symSize: 0xA4 }
  - { offset: 0x15EA2, size: 0x8, addend: 0x0, symName: __RNvNtCse1nGBsou5OW_5alloc5alloc5allocCs8XcImbZQYrD_13futures_macro, symObjAddr: 0x2538, symBinAddr: 0xAC9C, symSize: 0x84 }
  - { offset: 0x16839, size: 0x8, addend: 0x0, symName: __RINvMNtCse1nGBsou5OW_5alloc5sliceSNtNtCs6IAuOt8vWmF_3syn4stmt4Stmt8into_vecNtNtB5_5alloc6GlobalECs8XcImbZQYrD_13futures_macro, symObjAddr: 0x230, symBinAddr: 0x8994, symSize: 0x28 }
  - { offset: 0x1687F, size: 0x8, addend: 0x0, symName: __RINvNtNtCse1nGBsou5OW_5alloc5slice4hack8into_vecNtNtCs6IAuOt8vWmF_3syn4stmt4StmtNtNtB6_5alloc6GlobalECs8XcImbZQYrD_13futures_macro, symObjAddr: 0xA40, symBinAddr: 0x91A4, symSize: 0x94 }
  - { offset: 0x16AB4, size: 0x8, addend: 0x0, symName: __RNvXs6_NtCse1nGBsou5OW_5alloc5boxedINtB5_3BoxANtNtCs6IAuOt8vWmF_3syn4stmt4Stmtj1_ENtNtNtCsfvfooZQ3Axs_4core3ops4drop4Drop4dropCs8XcImbZQYrD_13futures_macro, symObjAddr: 0x3648, symBinAddr: 0xBDAC, symSize: 0xB0 }
  - { offset: 0x16BEB, size: 0x8, addend: 0x0, symName: __RNvXs6_NtCse1nGBsou5OW_5alloc5boxedINtB5_3BoxDNtNtCsfvfooZQ3Axs_4core5error5ErrorNtNtBM_6marker4SendNtB1j_4SyncEL_ENtNtNtBM_3ops4drop4Drop4dropCs8XcImbZQYrD_13futures_macro, symObjAddr: 0x36F8, symBinAddr: 0xBE5C, symSize: 0xC4 }
  - { offset: 0x16D22, size: 0x8, addend: 0x0, symName: __RNvXs6_NtCse1nGBsou5OW_5alloc5boxedINtB5_3BoxINtNtCs6IAuOt8vWmF_3syn5drops6NoDropDINtNtBM_10punctuated9IterTraitNtNtBM_4expr4ExprEp4ItemRB1M_EL_EENtNtNtCsfvfooZQ3Axs_4core3ops4drop4Drop4dropCs8XcImbZQYrD_13futures_macro, symObjAddr: 0x37BC, symBinAddr: 0xBF20, symSize: 0x118 }
  - { offset: 0x16E59, size: 0x8, addend: 0x0, symName: __RNvXs6_NtCse1nGBsou5OW_5alloc5boxedINtB5_3BoxNtNtNtCscOYdFFY2T5N_3std2io5error6CustomENtNtNtCsfvfooZQ3Axs_4core3ops4drop4Drop4dropCs8XcImbZQYrD_13futures_macro, symObjAddr: 0x38D4, symBinAddr: 0xC038, symSize: 0xB0 }
  - { offset: 0x172B4, size: 0x8, addend: 0x0, symName: __RNvXsA_NtCs3cP53eQoTwO_11proc_macro28fallbackNtB5_5IdentNtNtCsfvfooZQ3Axs_4core5clone5Clone5cloneCs8XcImbZQYrD_13futures_macro, symObjAddr: 0x3B3C, symBinAddr: 0xC2A0, symSize: 0x94 }
  - { offset: 0x172E8, size: 0x8, addend: 0x0, symName: __RNvXsu_NtCs3cP53eQoTwO_11proc_macro28fallbackNtB5_4SpanNtNtCsfvfooZQ3Axs_4core5clone5Clone5cloneCs8XcImbZQYrD_13futures_macro, symObjAddr: 0x41F0, symBinAddr: 0xC954, symSize: 0x10 }
  - { offset: 0x17593, size: 0x8, addend: 0x0, symName: __RNvXsY_Cs3cP53eQoTwO_11proc_macro2NtB5_5IdentNtNtCsfvfooZQ3Axs_4core5clone5Clone5cloneCs8XcImbZQYrD_13futures_macro, symObjAddr: 0x3BD0, symBinAddr: 0xC334, symSize: 0x78 }
  - { offset: 0x17689, size: 0x8, addend: 0x0, symName: __RINvNtNtNtCs9i5KxIbZ5ph_10proc_macro6bridge6client5state3setINtNtCsfvfooZQ3Axs_4core6option6OptionNtB4_11TokenStreamENCNCINvB4_10run_clientB1y_BW_NCNCINvMs7_B4_INtB4_6ClientNtB8_11TokenStreamB2L_E7expand1NvCs8XcImbZQYrD_13futures_macro13join_internalE00E00EB3i_, symObjAddr: 0xAD4, symBinAddr: 0x9238, symSize: 0xE8 }
  - { offset: 0x1775E, size: 0x8, addend: 0x0, symName: __RINvNtNtNtCs9i5KxIbZ5ph_10proc_macro6bridge6client5state3setINtNtCsfvfooZQ3Axs_4core6option6OptionNtB4_11TokenStreamENCNCINvB4_10run_clientB1y_BW_NCNCINvMs7_B4_INtB4_6ClientNtB8_11TokenStreamB2L_E7expand1NvCs8XcImbZQYrD_13futures_macro15select_internalE00E00EB3i_, symObjAddr: 0xBBC, symBinAddr: 0x9320, symSize: 0xE8 }
  - { offset: 0x17833, size: 0x8, addend: 0x0, symName: __RINvNtNtNtCs9i5KxIbZ5ph_10proc_macro6bridge6client5state3setINtNtCsfvfooZQ3Axs_4core6option6OptionNtB4_11TokenStreamENCNCINvB4_10run_clientB1y_BW_NCNCINvMs7_B4_INtB4_6ClientNtB8_11TokenStreamB2L_E7expand1NvCs8XcImbZQYrD_13futures_macro17try_join_internalE00E00EB3i_, symObjAddr: 0xCA4, symBinAddr: 0x9408, symSize: 0xE8 }
  - { offset: 0x17908, size: 0x8, addend: 0x0, symName: __RINvNtNtNtCs9i5KxIbZ5ph_10proc_macro6bridge6client5state3setINtNtCsfvfooZQ3Axs_4core6option6OptionNtB4_11TokenStreamENCNCINvB4_10run_clientB1y_BW_NCNCINvMs7_B4_INtB4_6ClientNtB8_11TokenStreamB2L_E7expand1NvCs8XcImbZQYrD_13futures_macro22select_biased_internalE00E00EB3i_, symObjAddr: 0xD8C, symBinAddr: 0x94F0, symSize: 0xE8 }
  - { offset: 0x179DD, size: 0x8, addend: 0x0, symName: __RINvNtNtNtCs9i5KxIbZ5ph_10proc_macro6bridge6client5state3setINtNtCsfvfooZQ3Axs_4core6option6OptionNtB4_11TokenStreamENCNCINvB4_10run_clientB1y_BW_NCNCINvMs7_B4_INtB4_6ClientNtB8_11TokenStreamB2L_E7expand1NvCs8XcImbZQYrD_13futures_macro22stream_select_internalE00E00EB3i_, symObjAddr: 0xE74, symBinAddr: 0x95D8, symSize: 0xE8 }
  - { offset: 0x17AB2, size: 0x8, addend: 0x0, symName: __RINvNtNtNtCs9i5KxIbZ5ph_10proc_macro6bridge6client5state3setINtNtCsfvfooZQ3Axs_4core6option6OptionNtB4_11TokenStreamENCNCINvB4_10run_clientTB1y_B1y_EBW_NCNCINvMs8_B4_INtB4_6ClientTNtB8_11TokenStreamB2S_EB2S_E7expand2NvCs8XcImbZQYrD_13futures_macro13test_internalE00E00EB3u_, symObjAddr: 0xF5C, symBinAddr: 0x96C0, symSize: 0xEC }
  - { offset: 0x17B92, size: 0x8, addend: 0x0, symName: __RNCNkNvNtNtNtCs9i5KxIbZ5ph_10proc_macro6bridge6client5state12BRIDGE_STATE0s_0Cs8XcImbZQYrD_13futures_macro, symObjAddr: 0x20FC, symBinAddr: 0xA860, symSize: 0x34 }
  - { offset: 0x181CA, size: 0x8, addend: 0x0, symName: __RNvXs1J_NtCs9i5KxIbZ5ph_10proc_macro6bridgeINtB6_11ExpnGlobalsNtNtB6_6client4SpanEINtNtB6_3rpc9DecodeMutuE6decodeCs8XcImbZQYrD_13futures_macro, symObjAddr: 0x3030, symBinAddr: 0xB794, symSize: 0xB0 }
  - { offset: 0x18221, size: 0x8, addend: 0x0, symName: __RNvXs7_NtNtCs9i5KxIbZ5ph_10proc_macro6bridge3rpcINtNtNtCsfvfooZQ3Axs_4core3num7nonzero7NonZeromEINtB5_9DecodeMutuE6decodeCs8XcImbZQYrD_13futures_macro, symObjAddr: 0x3984, symBinAddr: 0xC0E8, symSize: 0x5C }
  - { offset: 0x182A4, size: 0x8, addend: 0x0, symName: __RNvXs9_NtNtCs9i5KxIbZ5ph_10proc_macro6bridge3rpcTINtB7_11ExpnGlobalsNtNtB7_6client4SpanENtB16_11TokenStreamEINtB5_9DecodeMutuE6decodeCs8XcImbZQYrD_13futures_macro, symObjAddr: 0x39E0, symBinAddr: 0xC144, symSize: 0x84 }
  - { offset: 0x182F9, size: 0x8, addend: 0x0, symName: __RNvXs9_NtNtCs9i5KxIbZ5ph_10proc_macro6bridge3rpcTINtB7_11ExpnGlobalsNtNtB7_6client4SpanETNtB16_11TokenStreamB1p_EEINtB5_9DecodeMutuE6decodeCs8XcImbZQYrD_13futures_macro, symObjAddr: 0x3A64, symBinAddr: 0xC1C8, symSize: 0x90 }
  - { offset: 0x1863A, size: 0x8, addend: 0x0, symName: __RNvNvMsc_NtNtCsfvfooZQ3Axs_4core3num7nonzeroINtB7_7NonZeropE13new_unchecked18precondition_checkCs8XcImbZQYrD_13futures_macro, symObjAddr: 0x268C, symBinAddr: 0xADF0, symSize: 0x1C }
  - { offset: 0x1874D, size: 0x8, addend: 0x0, symName: __RNvNvMs9_NtCsfvfooZQ3Axs_4core3numj13unchecked_add18precondition_checkCs8XcImbZQYrD_13futures_macro, symObjAddr: 0x2608, symBinAddr: 0xAD6C, symSize: 0x44 }
  - { offset: 0x187D9, size: 0x8, addend: 0x0, symName: __RNvNvMs9_NtCsfvfooZQ3Axs_4core3numj13unchecked_mul18precondition_checkCs8XcImbZQYrD_13futures_macro, symObjAddr: 0x264C, symBinAddr: 0xADB0, symSize: 0x40 }
  - { offset: 0x188F9, size: 0x8, addend: 0x0, symName: __RNvNvMs3_NtCsfvfooZQ3Axs_4core3numi13unchecked_neg18precondition_checkCs8XcImbZQYrD_13futures_macro, symObjAddr: 0x25BC, symBinAddr: 0xAD20, symSize: 0x4C }
  - { offset: 0x1D303, size: 0x8, addend: 0x0, symName: __RINvXs0_NtNtNtCsfvfooZQ3Axs_4core4iter8adapters3mapINtB6_3MapINtNtB8_3zip3ZipINtNtNtCse1nGBsou5OW_5alloc3vec9into_iter8IntoIterNtNtCs6IAuOt8vWmF_3syn4expr4ExprEINtNtNtBc_5slice4iter4IterNtCs3cP53eQoTwO_11proc_macro25IdentEENCNvNtCs8XcImbZQYrD_13futures_macro6select12select_inner0ENtNtNtBa_6traits8iterator8Iterator8try_foldINtNtB1i_13in_place_drop11InPlaceDropNtB23_8ExprPathENCINvNtB1i_16in_place_collect24write_in_place_with_dropB5N_E0INtNtBc_6result6ResultB5c_zEEB3F_, symObjAddr: 0x14C8, symBinAddr: 0x9C2C, symSize: 0x4C }
  - { offset: 0x1D381, size: 0x8, addend: 0x0, symName: __RINvXs0_NtNtNtCsfvfooZQ3Axs_4core4iter8adapters3mapINtB6_3MapINtNtB8_9enumerate9EnumerateINtNtNtCse1nGBsou5OW_5alloc3vec9into_iter8IntoIterNtNtCs6IAuOt8vWmF_3syn4expr4ExprEENCNvNtCs8XcImbZQYrD_13futures_macro4join12bind_futures0ENtNtNtBa_6traits8iterator8Iterator8try_foldINtNtB1u_13in_place_drop11InPlaceDropNtCs3cP53eQoTwO_11proc_macro25IdentENCINvNtB1u_16in_place_collect24write_in_place_with_dropB4X_E0INtNtBc_6result6ResultB4m_zEEB2R_, symObjAddr: 0x1514, symBinAddr: 0x9C78, symSize: 0x4C }
  - { offset: 0x1D3FF, size: 0x8, addend: 0x0, symName: __RINvXs0_NtNtNtCsfvfooZQ3Axs_4core4iter8adapters3mapINtB6_3MapINtNtNtBc_3ops5range5RangejENCNvNtCs8XcImbZQYrD_13futures_macro13stream_select13stream_select0ENtNtNtBa_6traits8iterator8Iterator4folduNCINvNvB2u_8for_each4callNtCs3cP53eQoTwO_11proc_macro25IdentNCINvMsi_NtCse1nGBsou5OW_5alloc3vecINtB4f_3VecB3x_E14extend_trustedBN_E0E0EB1v_, symObjAddr: 0x1560, symBinAddr: 0x9CC4, symSize: 0x3C }
  - { offset: 0x1D497, size: 0x8, addend: 0x0, symName: __RINvXs0_NtNtNtCsfvfooZQ3Axs_4core4iter8adapters3mapINtB6_3MapINtNtNtBc_3ops5range5RangejENCNvNtCs8XcImbZQYrD_13futures_macro13stream_select13stream_selects0_0ENtNtNtBa_6traits8iterator8Iterator4folduNCINvNvB2x_8for_each4callNtCs3cP53eQoTwO_11proc_macro25IdentNCINvMsi_NtCse1nGBsou5OW_5alloc3vecINtB4i_3VecB3A_E14extend_trustedBN_E0E0EB1v_, symObjAddr: 0x159C, symBinAddr: 0x9D00, symSize: 0x3C }
  - { offset: 0x1D52F, size: 0x8, addend: 0x0, symName: __RINvXs0_NtNtNtCsfvfooZQ3Axs_4core4iter8adapters3mapINtB6_3MapINtNtNtBc_3ops5range5RangejENCNvNtCs8XcImbZQYrD_13futures_macro13stream_select13stream_selects_0ENtNtNtBa_6traits8iterator8Iterator4folduNCINvNvB2w_8for_each4callNtCs3cP53eQoTwO_11proc_macro25IdentNCINvMsi_NtCse1nGBsou5OW_5alloc3vecINtB4h_3VecB3z_E14extend_trustedBN_E0E0EB1v_, symObjAddr: 0x15D8, symBinAddr: 0x9D3C, symSize: 0x3C }
  - { offset: 0x1D5C7, size: 0x8, addend: 0x0, symName: __RINvXs0_NtNtNtCsfvfooZQ3Axs_4core4iter8adapters3mapINtB6_3MapINtNtNtBc_3ops5range5RangejENCNvNtCs8XcImbZQYrD_13futures_macro6select19declare_result_enum0ENtNtNtBa_6traits8iterator8Iterator4folduNCINvNvB2s_8for_each4callNtCs3cP53eQoTwO_11proc_macro25IdentNCINvMsi_NtCse1nGBsou5OW_5alloc3vecINtB4d_3VecB3v_E14extend_trustedBN_E0E0EB1v_, symObjAddr: 0x1614, symBinAddr: 0x9D78, symSize: 0x4C }
  - { offset: 0x1D660, size: 0x8, addend: 0x0, symName: __RINvXs0_NtNtNtCsfvfooZQ3Axs_4core4iter8adapters3mapINtB6_3MapINtNtNtBc_3ops5range5RangejENvYNtNtCs6IAuOt8vWmF_3syn4expr5IndexINtNtBc_7convert4FromjE4fromENtNtNtBa_6traits8iterator8Iterator4folduNCINvNvB2s_8for_each4callB1s_NCINvMsi_NtCse1nGBsou5OW_5alloc3vecINtB3I_3VecB1s_E14extend_trustedBN_E0E0ECs8XcImbZQYrD_13futures_macro, symObjAddr: 0x1660, symBinAddr: 0x9DC4, symSize: 0x3C }
  - { offset: 0x1D6F8, size: 0x8, addend: 0x0, symName: __RNvXs0_NtNtNtCsfvfooZQ3Axs_4core4iter8adapters3mapINtB5_3MapINtNtB7_3zip3ZipINtNtNtBb_5slice4iter4IterNtNtCs6IAuOt8vWmF_3syn4expr8ExprPathEIB1d_NtCs3cP53eQoTwO_11proc_macro25IdentEENCNvNtCs8XcImbZQYrD_13futures_macro6select12select_inners_0ENtNtNtB9_6traits8iterator8Iterator4nextB2Z_, symObjAddr: 0x2B4C, symBinAddr: 0xB2B0, symSize: 0x9C }
  - { offset: 0x1D772, size: 0x8, addend: 0x0, symName: __RNvXs0_NtNtNtCsfvfooZQ3Axs_4core4iter8adapters3mapINtB5_3MapINtNtB7_3zip3ZipINtNtNtCse1nGBsou5OW_5alloc3vec9into_iter8IntoIterTNtNtCs6IAuOt8vWmF_3syn3pat3PatNtNtB25_4expr4ExprEEINtNtNtBb_5slice4iter4IterNtCs3cP53eQoTwO_11proc_macro25IdentEENCNvNtCs8XcImbZQYrD_13futures_macro6select12select_inners0_0ENtNtNtB9_6traits8iterator8Iterator4nextB3W_, symObjAddr: 0x2BE8, symBinAddr: 0xB34C, symSize: 0xC4 }
  - { offset: 0x1D7E5, size: 0x8, addend: 0x0, symName: __RNvXs0_NtNtNtCsfvfooZQ3Axs_4core4iter8adapters3mapINtB5_3MapINtNtCs6IAuOt8vWmF_3syn10punctuated4IterNtNtB11_4expr4ExprENCNvNtCs8XcImbZQYrD_13futures_macro13stream_select13stream_selects1_0ENtNtNtB9_6traits8iterator8Iterator4nextB1Z_, symObjAddr: 0x2CAC, symBinAddr: 0xB410, symSize: 0x90 }
  - { offset: 0x1D85F, size: 0x8, addend: 0x0, symName: __RNvXs0_NtNtNtCsfvfooZQ3Axs_4core4iter8adapters3mapINtB5_3MapINtNtNtBb_3ops5range5RangejENCNvNtCs8XcImbZQYrD_13futures_macro13stream_select13stream_select0ENtNtNtB9_6traits8iterator8Iterator9size_hintB1u_, symObjAddr: 0x2D3C, symBinAddr: 0xB4A0, symSize: 0x24 }
  - { offset: 0x1D8A6, size: 0x8, addend: 0x0, symName: __RNvXs0_NtNtNtCsfvfooZQ3Axs_4core4iter8adapters3mapINtB5_3MapINtNtNtBb_3ops5range5RangejENCNvNtCs8XcImbZQYrD_13futures_macro13stream_select13stream_selects0_0ENtNtNtB9_6traits8iterator8Iterator9size_hintB1u_, symObjAddr: 0x2D60, symBinAddr: 0xB4C4, symSize: 0x24 }
  - { offset: 0x1D8ED, size: 0x8, addend: 0x0, symName: __RNvXs0_NtNtNtCsfvfooZQ3Axs_4core4iter8adapters3mapINtB5_3MapINtNtNtBb_3ops5range5RangejENCNvNtCs8XcImbZQYrD_13futures_macro13stream_select13stream_selects_0ENtNtNtB9_6traits8iterator8Iterator9size_hintB1u_, symObjAddr: 0x2D84, symBinAddr: 0xB4E8, symSize: 0x24 }
  - { offset: 0x1D934, size: 0x8, addend: 0x0, symName: __RNvXs0_NtNtNtCsfvfooZQ3Axs_4core4iter8adapters3mapINtB5_3MapINtNtNtBb_3ops5range5RangejENCNvNtCs8XcImbZQYrD_13futures_macro6select19declare_result_enum0ENtNtNtB9_6traits8iterator8Iterator9size_hintB1u_, symObjAddr: 0x2DA8, symBinAddr: 0xB50C, symSize: 0x24 }
  - { offset: 0x1D97B, size: 0x8, addend: 0x0, symName: __RNvXs0_NtNtNtCsfvfooZQ3Axs_4core4iter8adapters3mapINtB5_3MapINtNtNtBb_3ops5range5RangejENvYNtNtCs6IAuOt8vWmF_3syn4expr5IndexINtNtBb_7convert4FromjE4fromENtNtNtB9_6traits8iterator8Iterator9size_hintCs8XcImbZQYrD_13futures_macro, symObjAddr: 0x2DCC, symBinAddr: 0xB530, symSize: 0x24 }
  - { offset: 0x1D9C2, size: 0x8, addend: 0x0, symName: __RNvXs0_NtNtNtCsfvfooZQ3Axs_4core4iter8adapters3mapINtB5_3MapINtNtNtBb_5slice4iter4IterNtCs3cP53eQoTwO_11proc_macro25IdentENCNvNtCs8XcImbZQYrD_13futures_macro4join4join0ENtNtNtB9_6traits8iterator8Iterator4nextB22_, symObjAddr: 0x2DF0, symBinAddr: 0xB554, symSize: 0x90 }
  - { offset: 0x1DA3C, size: 0x8, addend: 0x0, symName: __RNvXs0_NtNtNtCsfvfooZQ3Axs_4core4iter8adapters3mapINtB5_3MapINtNtNtBb_5slice4iter4IterNtCs3cP53eQoTwO_11proc_macro25IdentENCNvNtCs8XcImbZQYrD_13futures_macro4join4joins_0ENtNtNtB9_6traits8iterator8Iterator4nextB22_, symObjAddr: 0x2E80, symBinAddr: 0xB5E4, symSize: 0x90 }
  - { offset: 0x1DAB6, size: 0x8, addend: 0x0, symName: __RNvXs0_NtNtNtCsfvfooZQ3Axs_4core4iter8adapters3mapINtB5_3MapINtNtNtBb_5slice4iter4IterNtCs3cP53eQoTwO_11proc_macro25IdentENCNvNtCs8XcImbZQYrD_13futures_macro4join8try_join0ENtNtNtB9_6traits8iterator8Iterator4nextB22_, symObjAddr: 0x2F10, symBinAddr: 0xB674, symSize: 0x90 }
  - { offset: 0x1DB30, size: 0x8, addend: 0x0, symName: __RNvXs0_NtNtNtCsfvfooZQ3Axs_4core4iter8adapters3mapINtB5_3MapINtNtNtBb_5slice4iter4IterNtCs3cP53eQoTwO_11proc_macro25IdentENCNvNtCs8XcImbZQYrD_13futures_macro4join8try_joins_0ENtNtNtB9_6traits8iterator8Iterator4nextB22_, symObjAddr: 0x2FA0, symBinAddr: 0xB704, symSize: 0x90 }
  - { offset: 0x1DC9A, size: 0x8, addend: 0x0, symName: __RNCINvNtNtNtCsfvfooZQ3Axs_4core4iter8adapters3map8map_foldjNtCs3cP53eQoTwO_11proc_macro25IdentuNCNvNtCs8XcImbZQYrD_13futures_macro13stream_select13stream_select0NCINvNvNtNtNtB8_6traits8iterator8Iterator8for_each4callBV_NCINvMsi_NtCse1nGBsou5OW_5alloc3vecINtB3E_3VecBV_E14extend_trustedINtB4_3MapINtNtNtBa_3ops5range5RangejEB1v_EE0E0E0B1B_, symObjAddr: 0x1E5C, symBinAddr: 0xA5C0, symSize: 0x88 }
  - { offset: 0x1DD1F, size: 0x8, addend: 0x0, symName: __RNCINvNtNtNtCsfvfooZQ3Axs_4core4iter8adapters3map8map_foldjNtCs3cP53eQoTwO_11proc_macro25IdentuNCNvNtCs8XcImbZQYrD_13futures_macro13stream_select13stream_selects0_0NCINvNvNtNtNtB8_6traits8iterator8Iterator8for_each4callBV_NCINvMsi_NtCse1nGBsou5OW_5alloc3vecINtB3H_3VecBV_E14extend_trustedINtB4_3MapINtNtNtBa_3ops5range5RangejEB1v_EE0E0E0B1B_, symObjAddr: 0x1EE4, symBinAddr: 0xA648, symSize: 0x88 }
  - { offset: 0x1DDA4, size: 0x8, addend: 0x0, symName: __RNCINvNtNtNtCsfvfooZQ3Axs_4core4iter8adapters3map8map_foldjNtCs3cP53eQoTwO_11proc_macro25IdentuNCNvNtCs8XcImbZQYrD_13futures_macro13stream_select13stream_selects_0NCINvNvNtNtNtB8_6traits8iterator8Iterator8for_each4callBV_NCINvMsi_NtCse1nGBsou5OW_5alloc3vecINtB3G_3VecBV_E14extend_trustedINtB4_3MapINtNtNtBa_3ops5range5RangejEB1v_EE0E0E0B1B_, symObjAddr: 0x1F6C, symBinAddr: 0xA6D0, symSize: 0x88 }
  - { offset: 0x1DE29, size: 0x8, addend: 0x0, symName: __RNCINvNtNtNtCsfvfooZQ3Axs_4core4iter8adapters3map8map_foldjNtCs3cP53eQoTwO_11proc_macro25IdentuNCNvNtCs8XcImbZQYrD_13futures_macro6select19declare_result_enum0NCINvNvNtNtNtB8_6traits8iterator8Iterator8for_each4callBV_NCINvMsi_NtCse1nGBsou5OW_5alloc3vecINtB3C_3VecBV_E14extend_trustedINtB4_3MapINtNtNtBa_3ops5range5RangejEB1v_EE0E0E0B1B_, symObjAddr: 0x1FF4, symBinAddr: 0xA758, symSize: 0x88 }
  - { offset: 0x1DEAE, size: 0x8, addend: 0x0, symName: __RNCINvNtNtNtCsfvfooZQ3Axs_4core4iter8adapters3map8map_foldjNtNtCs6IAuOt8vWmF_3syn4expr5IndexuNvYBV_INtNtBa_7convert4FromjE4fromNCINvNvNtNtNtB8_6traits8iterator8Iterator8for_each4callBV_NCINvMsi_NtCse1nGBsou5OW_5alloc3vecINtB36_3VecBV_E14extend_trustedINtB4_3MapINtNtNtBa_3ops5range5RangejEB1t_EE0E0E0Cs8XcImbZQYrD_13futures_macro, symObjAddr: 0x207C, symBinAddr: 0xA7E0, symSize: 0x80 }
  - { offset: 0x1E1A6, size: 0x8, addend: 0x0, symName: __RNCINvNtNtNtCsfvfooZQ3Axs_4core4iter8adapters3map12map_try_foldTNtNtCs6IAuOt8vWmF_3syn4expr4ExprRNtCs3cP53eQoTwO_11proc_macro25IdentENtB12_8ExprPathINtNtNtCse1nGBsou5OW_5alloc3vec13in_place_drop11InPlaceDropB27_EINtNtBa_6result6ResultB2m_zENCNvNtCs8XcImbZQYrD_13futures_macro6select12select_inner0NCINvNtB2r_16in_place_collect24write_in_place_with_dropB27_E0E0B3W_, symObjAddr: 0x1C38, symBinAddr: 0xA39C, symSize: 0x118 }
  - { offset: 0x1E239, size: 0x8, addend: 0x0, symName: __RNCINvNtNtNtCsfvfooZQ3Axs_4core4iter8adapters3map12map_try_foldTjNtNtCs6IAuOt8vWmF_3syn4expr4ExprENtCs3cP53eQoTwO_11proc_macro25IdentINtNtNtCse1nGBsou5OW_5alloc3vec13in_place_drop11InPlaceDropB1y_EINtNtBa_6result6ResultB27_zENCNvNtCs8XcImbZQYrD_13futures_macro4join12bind_futures0NCINvNtB2c_16in_place_collect24write_in_place_with_dropB1y_E0E0B3H_, symObjAddr: 0x1D50, symBinAddr: 0xA4B4, symSize: 0x10C }
  - { offset: 0x1E2F0, size: 0x8, addend: 0x0, symName: __RNvXs9_NtNtNtCsfvfooZQ3Axs_4core4iter8adapters3mapINtB5_3MapINtNtB7_3zip3ZipINtNtNtCse1nGBsou5OW_5alloc3vec9into_iter8IntoIterNtNtCs6IAuOt8vWmF_3syn4expr4ExprEINtNtNtBb_5slice4iter4IterNtCs3cP53eQoTwO_11proc_macro25IdentEENCNvNtCs8XcImbZQYrD_13futures_macro6select12select_inner0ENtB7_10SourceIter8as_innerB3E_, symObjAddr: 0x3AF4, symBinAddr: 0xC258, symSize: 0x24 }
  - { offset: 0x1E32E, size: 0x8, addend: 0x0, symName: __RNvXs9_NtNtNtCsfvfooZQ3Axs_4core4iter8adapters3mapINtB5_3MapINtNtB7_9enumerate9EnumerateINtNtNtCse1nGBsou5OW_5alloc3vec9into_iter8IntoIterNtNtCs6IAuOt8vWmF_3syn4expr4ExprEENCNvNtCs8XcImbZQYrD_13futures_macro4join12bind_futures0ENtB7_10SourceIter8as_innerB2Q_, symObjAddr: 0x3B18, symBinAddr: 0xC27C, symSize: 0x24 }
  - { offset: 0x1E6AE, size: 0x8, addend: 0x0, symName: __RNvXs1_NtNtNtCsfvfooZQ3Axs_4core4iter8adapters3zipINtB5_3ZipINtNtNtCse1nGBsou5OW_5alloc3vec9into_iter8IntoIterNtNtCs6IAuOt8vWmF_3syn4expr4ExprEINtNtNtBb_5slice4iter4IterNtCs3cP53eQoTwO_11proc_macro25IdentEEINtB5_7ZipImplBW_B2h_E3newCs8XcImbZQYrD_13futures_macro, symObjAddr: 0x3134, symBinAddr: 0xB898, symSize: 0x40 }
  - { offset: 0x1E6FA, size: 0x8, addend: 0x0, symName: __RNvXs1_NtNtNtCsfvfooZQ3Axs_4core4iter8adapters3zipINtB5_3ZipINtNtNtCse1nGBsou5OW_5alloc3vec9into_iter8IntoIterNtNtCs6IAuOt8vWmF_3syn4expr4ExprEINtNtNtBb_5slice4iter4IterNtCs3cP53eQoTwO_11proc_macro25IdentEEINtB5_7ZipImplBW_B2h_E4nextCs8XcImbZQYrD_13futures_macro, symObjAddr: 0x3174, symBinAddr: 0xB8D8, symSize: 0x18C }
  - { offset: 0x1E846, size: 0x8, addend: 0x0, symName: __RNvXs1_NtNtNtCsfvfooZQ3Axs_4core4iter8adapters3zipINtB5_3ZipINtNtNtCse1nGBsou5OW_5alloc3vec9into_iter8IntoIterTNtNtCs6IAuOt8vWmF_3syn3pat3PatNtNtB1P_4expr4ExprEEINtNtNtBb_5slice4iter4IterNtCs3cP53eQoTwO_11proc_macro25IdentEEINtB5_7ZipImplBW_B2z_E3newCs8XcImbZQYrD_13futures_macro, symObjAddr: 0x3300, symBinAddr: 0xBA64, symSize: 0x40 }
  - { offset: 0x1E892, size: 0x8, addend: 0x0, symName: __RNvXs1_NtNtNtCsfvfooZQ3Axs_4core4iter8adapters3zipINtB5_3ZipINtNtNtCse1nGBsou5OW_5alloc3vec9into_iter8IntoIterTNtNtCs6IAuOt8vWmF_3syn3pat3PatNtNtB1P_4expr4ExprEEINtNtNtBb_5slice4iter4IterNtCs3cP53eQoTwO_11proc_macro25IdentEEINtB5_7ZipImplBW_B2z_E4nextCs8XcImbZQYrD_13futures_macro, symObjAddr: 0x3340, symBinAddr: 0xBAA4, symSize: 0x18C }
  - { offset: 0x1E9E4, size: 0x8, addend: 0x0, symName: __RNvXs3_NtNtNtCsfvfooZQ3Axs_4core4iter8adapters3zipINtB5_3ZipINtNtNtBb_5slice4iter4IterNtNtCs6IAuOt8vWmF_3syn4expr8ExprPathEIBX_NtCs3cP53eQoTwO_11proc_macro25IdentEEINtB5_7ZipImplBW_B1X_E3newCs8XcImbZQYrD_13futures_macro, symObjAddr: 0x34CC, symBinAddr: 0xBC30, symSize: 0xC4 }
  - { offset: 0x1EA95, size: 0x8, addend: 0x0, symName: __RNvXs3_NtNtNtCsfvfooZQ3Axs_4core4iter8adapters3zipINtB5_3ZipINtNtNtBb_5slice4iter4IterNtNtCs6IAuOt8vWmF_3syn4expr8ExprPathEIBX_NtCs3cP53eQoTwO_11proc_macro25IdentEEINtB5_7ZipImplBW_B1X_E4nextCs8XcImbZQYrD_13futures_macro, symObjAddr: 0x3590, symBinAddr: 0xBCF4, symSize: 0xB8 }
  - { offset: 0x1EAF1, size: 0x8, addend: 0x0, symName: __RNvXs_NtNtNtCsfvfooZQ3Axs_4core4iter8adapters3zipINtB4_3ZipINtNtNtBa_5slice4iter4IterNtNtCs6IAuOt8vWmF_3syn4expr8ExprPathEIBW_NtCs3cP53eQoTwO_11proc_macro25IdentEENtNtNtB8_6traits8iterator8Iterator4nextCs8XcImbZQYrD_13futures_macro, symObjAddr: 0x4160, symBinAddr: 0xC8C4, symSize: 0x24 }
  - { offset: 0x1EB2F, size: 0x8, addend: 0x0, symName: __RNvXs_NtNtNtCsfvfooZQ3Axs_4core4iter8adapters3zipINtB4_3ZipINtNtNtCse1nGBsou5OW_5alloc3vec9into_iter8IntoIterNtNtCs6IAuOt8vWmF_3syn4expr4ExprEINtNtNtBa_5slice4iter4IterNtCs3cP53eQoTwO_11proc_macro25IdentEENtNtNtB8_6traits8iterator8Iterator4nextCs8XcImbZQYrD_13futures_macro, symObjAddr: 0x4184, symBinAddr: 0xC8E8, symSize: 0x24 }
  - { offset: 0x1EB6D, size: 0x8, addend: 0x0, symName: __RNvXs_NtNtNtCsfvfooZQ3Axs_4core4iter8adapters3zipINtB4_3ZipINtNtNtCse1nGBsou5OW_5alloc3vec9into_iter8IntoIterTNtNtCs6IAuOt8vWmF_3syn3pat3PatNtNtB1O_4expr4ExprEEINtNtNtBa_5slice4iter4IterNtCs3cP53eQoTwO_11proc_macro25IdentEENtNtNtB8_6traits8iterator8Iterator4nextCs8XcImbZQYrD_13futures_macro, symObjAddr: 0x41A8, symBinAddr: 0xC90C, symSize: 0x24 }
  - { offset: 0x1EBB1, size: 0x8, addend: 0x0, symName: __RNvXsb_NtNtNtCsfvfooZQ3Axs_4core4iter8adapters3zipINtB5_3ZipINtNtNtCse1nGBsou5OW_5alloc3vec9into_iter8IntoIterNtNtCs6IAuOt8vWmF_3syn4expr4ExprEINtNtNtBb_5slice4iter4IterNtCs3cP53eQoTwO_11proc_macro25IdentEENtB7_10SourceIter8as_innerCs8XcImbZQYrD_13futures_macro, symObjAddr: 0x41CC, symBinAddr: 0xC930, symSize: 0x24 }
  - { offset: 0x1ED8E, size: 0x8, addend: 0x0, symName: __RINvYINtNtNtNtCsfvfooZQ3Axs_4core4iter8adapters3map3MapINtNtB8_3zip3ZipINtNtNtCse1nGBsou5OW_5alloc3vec9into_iter8IntoIterNtNtCs6IAuOt8vWmF_3syn4expr4ExprEINtNtNtBc_5slice4iter4IterNtCs3cP53eQoTwO_11proc_macro25IdentEENCNvNtCs8XcImbZQYrD_13futures_macro6select12select_inner0ENtNtNtBa_6traits8iterator8Iterator7collectINtB1c_3VecNtB1X_8ExprPathEEB3z_, symObjAddr: 0x169C, symBinAddr: 0x9E00, symSize: 0x1C }
  - { offset: 0x1EDCF, size: 0x8, addend: 0x0, symName: __RINvYINtNtNtNtCsfvfooZQ3Axs_4core4iter8adapters3map3MapINtNtB8_9enumerate9EnumerateINtNtNtCse1nGBsou5OW_5alloc3vec9into_iter8IntoIterNtNtCs6IAuOt8vWmF_3syn4expr4ExprEENCNvNtCs8XcImbZQYrD_13futures_macro4join12bind_futures0ENtNtNtBa_6traits8iterator8Iterator7collectINtB1o_3VecNtCs3cP53eQoTwO_11proc_macro25IdentEEB2L_, symObjAddr: 0x16B8, symBinAddr: 0x9E1C, symSize: 0x1C }
  - { offset: 0x1EE10, size: 0x8, addend: 0x0, symName: __RINvYINtNtNtNtCsfvfooZQ3Axs_4core4iter8adapters3map3MapINtNtNtBc_3ops5range5RangejENCNvNtCs8XcImbZQYrD_13futures_macro13stream_select13stream_select0ENtNtNtBa_6traits8iterator8Iterator7collectINtNtCse1nGBsou5OW_5alloc3vec3VecNtCs3cP53eQoTwO_11proc_macro25IdentEEB1p_, symObjAddr: 0x16D4, symBinAddr: 0x9E38, symSize: 0x2C }
  - { offset: 0x1EE50, size: 0x8, addend: 0x0, symName: __RINvYINtNtNtNtCsfvfooZQ3Axs_4core4iter8adapters3map3MapINtNtNtBc_3ops5range5RangejENCNvNtCs8XcImbZQYrD_13futures_macro13stream_select13stream_select0ENtNtNtBa_6traits8iterator8Iterator8for_eachNCINvMsi_NtCse1nGBsou5OW_5alloc3vecINtB3e_3VecNtCs3cP53eQoTwO_11proc_macro25IdentE14extend_trustedB3_E0EB1p_, symObjAddr: 0x1700, symBinAddr: 0x9E64, symSize: 0x3C }
  - { offset: 0x1EEBB, size: 0x8, addend: 0x0, symName: __RINvYINtNtNtNtCsfvfooZQ3Axs_4core4iter8adapters3map3MapINtNtNtBc_3ops5range5RangejENCNvNtCs8XcImbZQYrD_13futures_macro13stream_select13stream_selects0_0ENtNtNtBa_6traits8iterator8Iterator7collectINtNtCse1nGBsou5OW_5alloc3vec3VecNtCs3cP53eQoTwO_11proc_macro25IdentEEB1p_, symObjAddr: 0x173C, symBinAddr: 0x9EA0, symSize: 0x2C }
  - { offset: 0x1EEFB, size: 0x8, addend: 0x0, symName: __RINvYINtNtNtNtCsfvfooZQ3Axs_4core4iter8adapters3map3MapINtNtNtBc_3ops5range5RangejENCNvNtCs8XcImbZQYrD_13futures_macro13stream_select13stream_selects0_0ENtNtNtBa_6traits8iterator8Iterator8for_eachNCINvMsi_NtCse1nGBsou5OW_5alloc3vecINtB3h_3VecNtCs3cP53eQoTwO_11proc_macro25IdentE14extend_trustedB3_E0EB1p_, symObjAddr: 0x1768, symBinAddr: 0x9ECC, symSize: 0x3C }
  - { offset: 0x1EF66, size: 0x8, addend: 0x0, symName: __RINvYINtNtNtNtCsfvfooZQ3Axs_4core4iter8adapters3map3MapINtNtNtBc_3ops5range5RangejENCNvNtCs8XcImbZQYrD_13futures_macro13stream_select13stream_selects_0ENtNtNtBa_6traits8iterator8Iterator7collectINtNtCse1nGBsou5OW_5alloc3vec3VecNtCs3cP53eQoTwO_11proc_macro25IdentEEB1p_, symObjAddr: 0x17A4, symBinAddr: 0x9F08, symSize: 0x2C }
  - { offset: 0x1EFA6, size: 0x8, addend: 0x0, symName: __RINvYINtNtNtNtCsfvfooZQ3Axs_4core4iter8adapters3map3MapINtNtNtBc_3ops5range5RangejENCNvNtCs8XcImbZQYrD_13futures_macro13stream_select13stream_selects_0ENtNtNtBa_6traits8iterator8Iterator8for_eachNCINvMsi_NtCse1nGBsou5OW_5alloc3vecINtB3g_3VecNtCs3cP53eQoTwO_11proc_macro25IdentE14extend_trustedB3_E0EB1p_, symObjAddr: 0x17D0, symBinAddr: 0x9F34, symSize: 0x3C }
  - { offset: 0x1F011, size: 0x8, addend: 0x0, symName: __RINvYINtNtNtNtCsfvfooZQ3Axs_4core4iter8adapters3map3MapINtNtNtBc_3ops5range5RangejENCNvNtCs8XcImbZQYrD_13futures_macro6select19declare_result_enum0ENtNtNtBa_6traits8iterator8Iterator7collectINtNtCse1nGBsou5OW_5alloc3vec3VecNtCs3cP53eQoTwO_11proc_macro25IdentEEB1p_, symObjAddr: 0x180C, symBinAddr: 0x9F70, symSize: 0x1C }
  - { offset: 0x1F052, size: 0x8, addend: 0x0, symName: __RINvYINtNtNtNtCsfvfooZQ3Axs_4core4iter8adapters3map3MapINtNtNtBc_3ops5range5RangejENCNvNtCs8XcImbZQYrD_13futures_macro6select19declare_result_enum0ENtNtNtBa_6traits8iterator8Iterator8for_eachNCINvMsi_NtCse1nGBsou5OW_5alloc3vecINtB3c_3VecNtCs3cP53eQoTwO_11proc_macro25IdentE14extend_trustedB3_E0EB1p_, symObjAddr: 0x1828, symBinAddr: 0x9F8C, symSize: 0x34 }
  - { offset: 0x1F0BE, size: 0x8, addend: 0x0, symName: __RINvYINtNtNtNtCsfvfooZQ3Axs_4core4iter8adapters3map3MapINtNtNtBc_3ops5range5RangejENvYNtNtCs6IAuOt8vWmF_3syn4expr5IndexINtNtBc_7convert4FromjE4fromENtNtNtBa_6traits8iterator8Iterator7collectINtNtCse1nGBsou5OW_5alloc3vec3VecB1m_EECs8XcImbZQYrD_13futures_macro, symObjAddr: 0x185C, symBinAddr: 0x9FC0, symSize: 0x2C }
  - { offset: 0x1F0FE, size: 0x8, addend: 0x0, symName: __RINvYINtNtNtNtCsfvfooZQ3Axs_4core4iter8adapters3map3MapINtNtNtBc_3ops5range5RangejENvYNtNtCs6IAuOt8vWmF_3syn4expr5IndexINtNtBc_7convert4FromjE4fromENtNtNtBa_6traits8iterator8Iterator8for_eachNCINvMsi_NtCse1nGBsou5OW_5alloc3vecINtB3c_3VecB1m_E14extend_trustedB3_E0ECs8XcImbZQYrD_13futures_macro, symObjAddr: 0x1888, symBinAddr: 0x9FEC, symSize: 0x3C }
  - { offset: 0x1F169, size: 0x8, addend: 0x0, symName: __RINvYINtNtNtNtCsfvfooZQ3Axs_4core4iter8adapters3zip3ZipINtNtNtBc_5slice4iter4IterNtNtCs6IAuOt8vWmF_3syn4expr8ExprPathEIBS_NtCs3cP53eQoTwO_11proc_macro25IdentEENtNtNtBa_6traits8iterator8Iterator3mapNtB1Y_11TokenStreamNCNvNtCs8XcImbZQYrD_13futures_macro6select12select_inners_0EB3y_, symObjAddr: 0x18C4, symBinAddr: 0xA028, symSize: 0x50 }
  - { offset: 0x1F1D7, size: 0x8, addend: 0x0, symName: __RINvYINtNtNtNtCsfvfooZQ3Axs_4core4iter8adapters3zip3ZipINtNtNtCse1nGBsou5OW_5alloc3vec9into_iter8IntoIterNtNtCs6IAuOt8vWmF_3syn4expr4ExprEINtNtNtBc_5slice4iter4IterNtCs3cP53eQoTwO_11proc_macro25IdentEENtNtNtBa_6traits8iterator8Iterator3mapNtB1H_8ExprPathNCNvNtCs8XcImbZQYrD_13futures_macro6select12select_inner0EB4a_, symObjAddr: 0x1914, symBinAddr: 0xA078, symSize: 0x50 }
  - { offset: 0x1F245, size: 0x8, addend: 0x0, symName: __RINvYINtNtNtNtCsfvfooZQ3Axs_4core4iter8adapters3zip3ZipINtNtNtCse1nGBsou5OW_5alloc3vec9into_iter8IntoIterNtNtCs6IAuOt8vWmF_3syn4expr4ExprEINtNtNtBc_5slice4iter4IterNtCs3cP53eQoTwO_11proc_macro25IdentEENtNtNtBa_6traits8iterator8Iterator8try_foldINtNtBW_13in_place_drop11InPlaceDropNtB1H_8ExprPathENCINvNtB8_3map12map_try_foldTB1F_RB2C_EB4u_B3U_INtNtBc_6result6ResultB3U_zENCNvNtCs8XcImbZQYrD_13futures_macro6select12select_inner0NCINvNtBW_16in_place_collect24write_in_place_with_dropB4u_E0E0B5v_EB63_, symObjAddr: 0x1964, symBinAddr: 0xA0C8, symSize: 0x1D4 }
  - { offset: 0x1F2E6, size: 0x8, addend: 0x0, symName: __RINvYINtNtNtNtCsfvfooZQ3Axs_4core4iter8adapters3zip3ZipINtNtNtCse1nGBsou5OW_5alloc3vec9into_iter8IntoIterTNtNtCs6IAuOt8vWmF_3syn3pat3PatNtNtB1K_4expr4ExprEEINtNtNtBc_5slice4iter4IterNtCs3cP53eQoTwO_11proc_macro25IdentEENtNtNtBa_6traits8iterator8Iterator3mapNtB2W_11TokenStreamNCNvNtCs8XcImbZQYrD_13futures_macro6select12select_inners0_0EB4w_, symObjAddr: 0x1B38, symBinAddr: 0xA29C, symSize: 0x50 }
  - { offset: 0x1F360, size: 0x8, addend: 0x0, symName: __RNvXNtNtNtCsfvfooZQ3Axs_4core4iter6traits7collectINtNtNtB6_8adapters3map3MapINtNtBQ_3zip3ZipINtNtNtCse1nGBsou5OW_5alloc3vec9into_iter8IntoIterNtNtCs6IAuOt8vWmF_3syn4expr4ExprEINtNtNtB8_5slice4iter4IterNtCs3cP53eQoTwO_11proc_macro25IdentEENCNvNtCs8XcImbZQYrD_13futures_macro6select12select_inner0ENtB2_12IntoIterator9into_iterB3U_, symObjAddr: 0x28B8, symBinAddr: 0xB01C, symSize: 0x30 }
  - { offset: 0x1F398, size: 0x8, addend: 0x0, symName: __RNvXNtNtNtCsfvfooZQ3Axs_4core4iter6traits7collectINtNtNtB6_8adapters3map3MapINtNtBQ_9enumerate9EnumerateINtNtNtCse1nGBsou5OW_5alloc3vec9into_iter8IntoIterNtNtCs6IAuOt8vWmF_3syn4expr4ExprEENCNvNtCs8XcImbZQYrD_13futures_macro4join12bind_futures0ENtB2_12IntoIterator9into_iterB36_, symObjAddr: 0x28E8, symBinAddr: 0xB04C, symSize: 0x30 }
  - { offset: 0x1F3D0, size: 0x8, addend: 0x0, symName: __RNvXNtNtNtCsfvfooZQ3Axs_4core4iter6traits7collectINtNtNtB6_8adapters3map3MapINtNtNtB8_3ops5range5RangejENCNvNtCs8XcImbZQYrD_13futures_macro13stream_select13stream_select0ENtB2_12IntoIterator9into_iterB1K_, symObjAddr: 0x2918, symBinAddr: 0xB07C, symSize: 0x14 }
  - { offset: 0x1F407, size: 0x8, addend: 0x0, symName: __RNvXNtNtNtCsfvfooZQ3Axs_4core4iter6traits7collectINtNtNtB6_8adapters3map3MapINtNtNtB8_3ops5range5RangejENCNvNtCs8XcImbZQYrD_13futures_macro13stream_select13stream_selects0_0ENtB2_12IntoIterator9into_iterB1K_, symObjAddr: 0x292C, symBinAddr: 0xB090, symSize: 0x14 }
  - { offset: 0x1F43E, size: 0x8, addend: 0x0, symName: __RNvXNtNtNtCsfvfooZQ3Axs_4core4iter6traits7collectINtNtNtB6_8adapters3map3MapINtNtNtB8_3ops5range5RangejENCNvNtCs8XcImbZQYrD_13futures_macro13stream_select13stream_selects_0ENtB2_12IntoIterator9into_iterB1K_, symObjAddr: 0x2940, symBinAddr: 0xB0A4, symSize: 0x14 }
  - { offset: 0x1F475, size: 0x8, addend: 0x0, symName: __RNvXNtNtNtCsfvfooZQ3Axs_4core4iter6traits7collectINtNtNtB6_8adapters3map3MapINtNtNtB8_3ops5range5RangejENCNvNtCs8XcImbZQYrD_13futures_macro6select19declare_result_enum0ENtB2_12IntoIterator9into_iterB1K_, symObjAddr: 0x2954, symBinAddr: 0xB0B8, symSize: 0x18 }
  - { offset: 0x1F4AC, size: 0x8, addend: 0x0, symName: __RNvXNtNtNtCsfvfooZQ3Axs_4core4iter6traits7collectINtNtNtB6_8adapters3map3MapINtNtNtB8_3ops5range5RangejENvYNtNtCs6IAuOt8vWmF_3syn4expr5IndexINtNtB8_7convert4FromjE4fromENtB2_12IntoIterator9into_iterCs8XcImbZQYrD_13futures_macro, symObjAddr: 0x296C, symBinAddr: 0xB0D0, symSize: 0x14 }
  - { offset: 0x1F599, size: 0x8, addend: 0x0, symName: __RNvMNtCsfvfooZQ3Axs_4core5sliceSNtCs3cP53eQoTwO_11proc_macro211TokenStream4iterCs8XcImbZQYrD_13futures_macro, symObjAddr: 0x22C4, symBinAddr: 0xAA28, symSize: 0x28 }
  - { offset: 0x1F5D0, size: 0x8, addend: 0x0, symName: __RNvMNtCsfvfooZQ3Axs_4core5sliceSNtCs3cP53eQoTwO_11proc_macro25Ident4iterCs8XcImbZQYrD_13futures_macro, symObjAddr: 0x22EC, symBinAddr: 0xAA50, symSize: 0x28 }
  - { offset: 0x1F607, size: 0x8, addend: 0x0, symName: __RNvMNtCsfvfooZQ3Axs_4core5sliceSNtNtCs6IAuOt8vWmF_3syn4stmt4Stmt4lastCs8XcImbZQYrD_13futures_macro, symObjAddr: 0x2314, symBinAddr: 0xAA78, symSize: 0x58 }
  - { offset: 0x1F6A2, size: 0x8, addend: 0x0, symName: __RNvMNtCsfvfooZQ3Axs_4core5sliceSh15copy_from_sliceCs8XcImbZQYrD_13futures_macro, symObjAddr: 0x236C, symBinAddr: 0xAAD0, symSize: 0xA4 }
  - { offset: 0x1F75C, size: 0x8, addend: 0x0, symName: __RNvXs1_NtCsfvfooZQ3Axs_4core7convertNtCs3cP53eQoTwO_11proc_macro211TokenStreamINtB5_4IntoNtCs9i5KxIbZ5ph_10proc_macro11TokenStreamE4intoCs8XcImbZQYrD_13futures_macro, symObjAddr: 0x3120, symBinAddr: 0xB884, symSize: 0x14 }
  - { offset: 0x1FB1B, size: 0x8, addend: 0x0, symName: __RNvNvNtCsfvfooZQ3Axs_4core9ub_checks23maybe_is_nonoverlapping7runtimeCs8XcImbZQYrD_13futures_macro, symObjAddr: 0x26A8, symBinAddr: 0xAE0C, symSize: 0xD8 }
  - { offset: 0x1FEA4, size: 0x8, addend: 0x0, symName: __RINvNvNtCscOYdFFY2T5N_3std9panicking3try7do_callINtNtNtCsfvfooZQ3Axs_4core5panic11unwind_safe16AssertUnwindSafeNCINvNtNtCs9i5KxIbZ5ph_10proc_macro6bridge6client10run_clientNtB1Q_11TokenStreamINtNtBR_6option6OptionB2K_ENCNCINvMs7_B1Q_INtB1Q_6ClientNtB1U_11TokenStreamB3X_E7expand1NvCs8XcImbZQYrD_13futures_macro13join_internalE00E0EuEB4v_, symObjAddr: 0x1048, symBinAddr: 0x97AC, symSize: 0x50 }
  - { offset: 0x1FF6C, size: 0x8, addend: 0x0, symName: __RINvNvNtCscOYdFFY2T5N_3std9panicking3try7do_callINtNtNtCsfvfooZQ3Axs_4core5panic11unwind_safe16AssertUnwindSafeNCINvNtNtCs9i5KxIbZ5ph_10proc_macro6bridge6client10run_clientNtB1Q_11TokenStreamINtNtBR_6option6OptionB2K_ENCNCINvMs7_B1Q_INtB1Q_6ClientNtB1U_11TokenStreamB3X_E7expand1NvCs8XcImbZQYrD_13futures_macro15select_internalE00E0EuEB4v_, symObjAddr: 0x1098, symBinAddr: 0x97FC, symSize: 0x50 }
  - { offset: 0x20034, size: 0x8, addend: 0x0, symName: __RINvNvNtCscOYdFFY2T5N_3std9panicking3try7do_callINtNtNtCsfvfooZQ3Axs_4core5panic11unwind_safe16AssertUnwindSafeNCINvNtNtCs9i5KxIbZ5ph_10proc_macro6bridge6client10run_clientNtB1Q_11TokenStreamINtNtBR_6option6OptionB2K_ENCNCINvMs7_B1Q_INtB1Q_6ClientNtB1U_11TokenStreamB3X_E7expand1NvCs8XcImbZQYrD_13futures_macro17try_join_internalE00E0EuEB4v_, symObjAddr: 0x10E8, symBinAddr: 0x984C, symSize: 0x50 }
  - { offset: 0x200FC, size: 0x8, addend: 0x0, symName: __RINvNvNtCscOYdFFY2T5N_3std9panicking3try7do_callINtNtNtCsfvfooZQ3Axs_4core5panic11unwind_safe16AssertUnwindSafeNCINvNtNtCs9i5KxIbZ5ph_10proc_macro6bridge6client10run_clientNtB1Q_11TokenStreamINtNtBR_6option6OptionB2K_ENCNCINvMs7_B1Q_INtB1Q_6ClientNtB1U_11TokenStreamB3X_E7expand1NvCs8XcImbZQYrD_13futures_macro22select_biased_internalE00E0EuEB4v_, symObjAddr: 0x1138, symBinAddr: 0x989C, symSize: 0x50 }
  - { offset: 0x201C4, size: 0x8, addend: 0x0, symName: __RINvNvNtCscOYdFFY2T5N_3std9panicking3try7do_callINtNtNtCsfvfooZQ3Axs_4core5panic11unwind_safe16AssertUnwindSafeNCINvNtNtCs9i5KxIbZ5ph_10proc_macro6bridge6client10run_clientNtB1Q_11TokenStreamINtNtBR_6option6OptionB2K_ENCNCINvMs7_B1Q_INtB1Q_6ClientNtB1U_11TokenStreamB3X_E7expand1NvCs8XcImbZQYrD_13futures_macro22stream_select_internalE00E0EuEB4v_, symObjAddr: 0x1188, symBinAddr: 0x98EC, symSize: 0x50 }
  - { offset: 0x2028C, size: 0x8, addend: 0x0, symName: __RINvNvNtCscOYdFFY2T5N_3std9panicking3try7do_callINtNtNtCsfvfooZQ3Axs_4core5panic11unwind_safe16AssertUnwindSafeNCINvNtNtCs9i5KxIbZ5ph_10proc_macro6bridge6client10run_clientTNtB1Q_11TokenStreamB2L_EINtNtBR_6option6OptionB2L_ENCNCINvMs8_B1Q_INtB1Q_6ClientTNtB1U_11TokenStreamB44_EB44_E7expand2NvCs8XcImbZQYrD_13futures_macro13test_internalE00E0EuEB4H_, symObjAddr: 0x11D8, symBinAddr: 0x993C, symSize: 0x50 }
  - { offset: 0x20354, size: 0x8, addend: 0x0, symName: __RINvNvNtCscOYdFFY2T5N_3std9panicking3try8do_catchINtNtNtCsfvfooZQ3Axs_4core5panic11unwind_safe16AssertUnwindSafeNCINvNtNtCs9i5KxIbZ5ph_10proc_macro6bridge6client10run_clientNtB1R_11TokenStreamINtNtBS_6option6OptionB2L_ENCNCINvMs7_B1R_INtB1R_6ClientNtB1V_11TokenStreamB3Y_E7expand1NvCs8XcImbZQYrD_13futures_macro13join_internalE00E0EuEB4w_, symObjAddr: 0x1228, symBinAddr: 0x998C, symSize: 0x70 }
  - { offset: 0x203E9, size: 0x8, addend: 0x0, symName: __RINvNvNtCscOYdFFY2T5N_3std9panicking3try8do_catchINtNtNtCsfvfooZQ3Axs_4core5panic11unwind_safe16AssertUnwindSafeNCINvNtNtCs9i5KxIbZ5ph_10proc_macro6bridge6client10run_clientNtB1R_11TokenStreamINtNtBS_6option6OptionB2L_ENCNCINvMs7_B1R_INtB1R_6ClientNtB1V_11TokenStreamB3Y_E7expand1NvCs8XcImbZQYrD_13futures_macro15select_internalE00E0EuEB4w_, symObjAddr: 0x1298, symBinAddr: 0x99FC, symSize: 0x70 }
  - { offset: 0x2047E, size: 0x8, addend: 0x0, symName: __RINvNvNtCscOYdFFY2T5N_3std9panicking3try8do_catchINtNtNtCsfvfooZQ3Axs_4core5panic11unwind_safe16AssertUnwindSafeNCINvNtNtCs9i5KxIbZ5ph_10proc_macro6bridge6client10run_clientNtB1R_11TokenStreamINtNtBS_6option6OptionB2L_ENCNCINvMs7_B1R_INtB1R_6ClientNtB1V_11TokenStreamB3Y_E7expand1NvCs8XcImbZQYrD_13futures_macro17try_join_internalE00E0EuEB4w_, symObjAddr: 0x1308, symBinAddr: 0x9A6C, symSize: 0x70 }
  - { offset: 0x20513, size: 0x8, addend: 0x0, symName: __RINvNvNtCscOYdFFY2T5N_3std9panicking3try8do_catchINtNtNtCsfvfooZQ3Axs_4core5panic11unwind_safe16AssertUnwindSafeNCINvNtNtCs9i5KxIbZ5ph_10proc_macro6bridge6client10run_clientNtB1R_11TokenStreamINtNtBS_6option6OptionB2L_ENCNCINvMs7_B1R_INtB1R_6ClientNtB1V_11TokenStreamB3Y_E7expand1NvCs8XcImbZQYrD_13futures_macro22select_biased_internalE00E0EuEB4w_, symObjAddr: 0x1378, symBinAddr: 0x9ADC, symSize: 0x70 }
  - { offset: 0x205A8, size: 0x8, addend: 0x0, symName: __RINvNvNtCscOYdFFY2T5N_3std9panicking3try8do_catchINtNtNtCsfvfooZQ3Axs_4core5panic11unwind_safe16AssertUnwindSafeNCINvNtNtCs9i5KxIbZ5ph_10proc_macro6bridge6client10run_clientNtB1R_11TokenStreamINtNtBS_6option6OptionB2L_ENCNCINvMs7_B1R_INtB1R_6ClientNtB1V_11TokenStreamB3Y_E7expand1NvCs8XcImbZQYrD_13futures_macro22stream_select_internalE00E0EuEB4w_, symObjAddr: 0x13E8, symBinAddr: 0x9B4C, symSize: 0x70 }
  - { offset: 0x2063D, size: 0x8, addend: 0x0, symName: __RINvNvNtCscOYdFFY2T5N_3std9panicking3try8do_catchINtNtNtCsfvfooZQ3Axs_4core5panic11unwind_safe16AssertUnwindSafeNCINvNtNtCs9i5KxIbZ5ph_10proc_macro6bridge6client10run_clientTNtB1R_11TokenStreamB2M_EINtNtBS_6option6OptionB2M_ENCNCINvMs8_B1R_INtB1R_6ClientTNtB1V_11TokenStreamB45_EB45_E7expand2NvCs8XcImbZQYrD_13futures_macro13test_internalE00E0EuEB4I_, symObjAddr: 0x1458, symBinAddr: 0x9BBC, symSize: 0x70 }
  - { offset: 0x208B9, size: 0x8, addend: 0x0, symName: __RINvMNtCs6IAuOt8vWmF_3syn5errorNtB3_5Error11new_spannedNtCs3cP53eQoTwO_11proc_macro211TokenStreamReECs8XcImbZQYrD_13futures_macro, symObjAddr: 0xB4, symBinAddr: 0x8818, symSize: 0xBC }
  - { offset: 0x208FC, size: 0x8, addend: 0x0, symName: __RINvMNtCs6IAuOt8vWmF_3syn5errorNtB3_5Error11new_spannedNtNtB5_5token2FnReECs8XcImbZQYrD_13futures_macro, symObjAddr: 0x170, symBinAddr: 0x88D4, symSize: 0xC0 }
  - { offset: 0x21715, size: 0x8, addend: 0x0, symName: __RNvXs_NvNtNtCs8XcImbZQYrD_13futures_macro6select2kw1__NtB6_8completeNtNtNtCs6IAuOt8vWmF_3syn5token7private11CustomToken4peek, symObjAddr: 0x50F0, symBinAddr: 0xD854, symSize: 0x134 }
  - { offset: 0x2176B, size: 0x8, addend: 0x0, symName: __RNvXs0_NvNtNtCs8XcImbZQYrD_13futures_macro6select2kw1__NtB7_8completeNtNtCs6IAuOt8vWmF_3syn5parse5Parse5parse, symObjAddr: 0x5224, symBinAddr: 0xD988, symSize: 0x34 }
  - { offset: 0x2179C, size: 0x8, addend: 0x0, symName: __RNCNvXs0_NvNtNtCs8XcImbZQYrD_13futures_macro6select2kw1__NtB9_8completeNtNtCs6IAuOt8vWmF_3syn5parse5Parse5parse0Bd_, symObjAddr: 0x5258, symBinAddr: 0xD9BC, symSize: 0x1F8 }
  - { offset: 0x218C3, size: 0x8, addend: 0x0, symName: __RNvNtCs8XcImbZQYrD_13futures_macro8executor4test, symObjAddr: 0x4468, symBinAddr: 0xCBCC, symSize: 0xBB0 }
  - { offset: 0x21AEE, size: 0x8, addend: 0x0, symName: __RNCNvNtCs8XcImbZQYrD_13futures_macro8executor4test0B5_, symObjAddr: 0x5018, symBinAddr: 0xD77C, symSize: 0x6C }
  - { offset: 0x21B25, size: 0x8, addend: 0x0, symName: __RNCNvNtCs8XcImbZQYrD_13futures_macro8executor4tests_0B5_, symObjAddr: 0x5084, symBinAddr: 0xD7E8, symSize: 0x6C }
  - { offset: 0x21DD2, size: 0x8, addend: 0x0, symName: __RNvMNtCse1nGBsou5OW_5alloc5allocNtB2_6Global10alloc_implCs8XcImbZQYrD_13futures_macro, symObjAddr: 0x2130, symBinAddr: 0xA894, symSize: 0x194 }
  - { offset: 0x221D7, size: 0x8, addend: 0x0, symName: __RNvXNtCs2cqEZUIJimJ_5quote14ident_fragmentRjNtB2_13IdentFragment3fmtCs8XcImbZQYrD_13futures_macro, symObjAddr: 0x2780, symBinAddr: 0xAEE4, symSize: 0x40 }
  - { offset: 0x2221A, size: 0x8, addend: 0x0, symName: __RNvXNtCs2cqEZUIJimJ_5quote14ident_fragmentRjNtB2_13IdentFragment4spanCs8XcImbZQYrD_13futures_macro, symObjAddr: 0x27C0, symBinAddr: 0xAF24, symSize: 0x38 }
  - { offset: 0x22255, size: 0x8, addend: 0x0, symName: __RNvYjNtNtCs2cqEZUIJimJ_5quote14ident_fragment13IdentFragment4spanCs8XcImbZQYrD_13futures_macro, symObjAddr: 0x443C, symBinAddr: 0xCBA0, symSize: 0x2C }
  - { offset: 0x22296, size: 0x8, addend: 0x0, symName: __RNvXNtCs2cqEZUIJimJ_5quote9to_tokensRINtNtCse1nGBsou5OW_5alloc5boxed3BoxNtNtCs6IAuOt8vWmF_3syn4stmt5BlockENtB2_8ToTokens9to_tokensCs8XcImbZQYrD_13futures_macro, symObjAddr: 0x27F8, symBinAddr: 0xAF5C, symSize: 0x40 }
  - { offset: 0x222D5, size: 0x8, addend: 0x0, symName: __RNvXNtCs2cqEZUIJimJ_5quote9to_tokensRNtCs3cP53eQoTwO_11proc_macro211TokenStreamNtB2_8ToTokens9to_tokensCs8XcImbZQYrD_13futures_macro, symObjAddr: 0x2838, symBinAddr: 0xAF9C, symSize: 0x40 }
  - { offset: 0x22314, size: 0x8, addend: 0x0, symName: __RNvXNtCs2cqEZUIJimJ_5quote9to_tokensRNtCs3cP53eQoTwO_11proc_macro25IdentNtB2_8ToTokens9to_tokensCs8XcImbZQYrD_13futures_macro, symObjAddr: 0x2878, symBinAddr: 0xAFDC, symSize: 0x40 }
  - { offset: 0x22359, size: 0x8, addend: 0x0, symName: __RNvXs1_NtCs2cqEZUIJimJ_5quote9to_tokensINtNtCse1nGBsou5OW_5alloc5boxed3BoxNtNtCs6IAuOt8vWmF_3syn4stmt5BlockENtB5_8ToTokens9to_tokensCs8XcImbZQYrD_13futures_macro, symObjAddr: 0x30E0, symBinAddr: 0xB844, symSize: 0x40 }
  - { offset: 0x2239E, size: 0x8, addend: 0x0, symName: __RNvYRNtNtCs6IAuOt8vWmF_3syn4stmt4StmtNtNtCs2cqEZUIJimJ_5quote9to_tokens8ToTokens15to_token_streamCs8XcImbZQYrD_13futures_macro, symObjAddr: 0x435C, symBinAddr: 0xCAC0, symSize: 0x8C }
  - { offset: 0x223E8, size: 0x8, addend: 0x0, symName: __RNvYRNtNtCs6IAuOt8vWmF_3syn4stmt4StmtNtNtCs2cqEZUIJimJ_5quote9to_tokens8ToTokens17into_token_streamCs8XcImbZQYrD_13futures_macro, symObjAddr: 0x43E8, symBinAddr: 0xCB4C, symSize: 0x54 }
  - { offset: 0x2242E, size: 0x8, addend: 0x0, symName: __RNvYINtNtNtNtCsfvfooZQ3Axs_4core4iter8adapters3map3MapINtNtB7_3zip3ZipINtNtNtBb_5slice4iter4IterNtNtCs6IAuOt8vWmF_3syn4expr8ExprPathEIB17_NtCs3cP53eQoTwO_11proc_macro25IdentEENCNvNtCs8XcImbZQYrD_13futures_macro6select12select_inners_0ENtNtNtCs2cqEZUIJimJ_5quote9___private3ext14RepIteratorExt15quote_into_iterB2T_, symObjAddr: 0x4200, symBinAddr: 0xC964, symSize: 0x40 }
  - { offset: 0x22464, size: 0x8, addend: 0x0, symName: __RNvYINtNtNtNtCsfvfooZQ3Axs_4core4iter8adapters3map3MapINtNtB7_3zip3ZipINtNtNtCse1nGBsou5OW_5alloc3vec9into_iter8IntoIterTNtNtCs6IAuOt8vWmF_3syn3pat3PatNtNtB1Z_4expr4ExprEEINtNtNtBb_5slice4iter4IterNtCs3cP53eQoTwO_11proc_macro25IdentEENCNvNtCs8XcImbZQYrD_13futures_macro6select12select_inners0_0ENtNtNtCs2cqEZUIJimJ_5quote9___private3ext14RepIteratorExt15quote_into_iterB3Q_, symObjAddr: 0x4240, symBinAddr: 0xC9A4, symSize: 0x40 }
  - { offset: 0x2249A, size: 0x8, addend: 0x0, symName: __RNvYINtNtNtNtCsfvfooZQ3Axs_4core4iter8adapters3map3MapINtNtCs6IAuOt8vWmF_3syn10punctuated4IterNtNtBV_4expr4ExprENCNvNtCs8XcImbZQYrD_13futures_macro13stream_select13stream_selects1_0ENtNtNtCs2cqEZUIJimJ_5quote9___private3ext14RepIteratorExt15quote_into_iterB1S_, symObjAddr: 0x4280, symBinAddr: 0xC9E4, symSize: 0x2C }
  - { offset: 0x224CF, size: 0x8, addend: 0x0, symName: __RNvYINtNtNtNtCsfvfooZQ3Axs_4core4iter8adapters3map3MapINtNtNtBb_5slice4iter4IterNtCs3cP53eQoTwO_11proc_macro25IdentENCNvNtCs8XcImbZQYrD_13futures_macro4join4join0ENtNtNtCs2cqEZUIJimJ_5quote9___private3ext14RepIteratorExt15quote_into_iterB1W_, symObjAddr: 0x42AC, symBinAddr: 0xCA10, symSize: 0x2C }
  - { offset: 0x22504, size: 0x8, addend: 0x0, symName: __RNvYINtNtNtNtCsfvfooZQ3Axs_4core4iter8adapters3map3MapINtNtNtBb_5slice4iter4IterNtCs3cP53eQoTwO_11proc_macro25IdentENCNvNtCs8XcImbZQYrD_13futures_macro4join4joins_0ENtNtNtCs2cqEZUIJimJ_5quote9___private3ext14RepIteratorExt15quote_into_iterB1W_, symObjAddr: 0x42D8, symBinAddr: 0xCA3C, symSize: 0x2C }
  - { offset: 0x22539, size: 0x8, addend: 0x0, symName: __RNvYINtNtNtNtCsfvfooZQ3Axs_4core4iter8adapters3map3MapINtNtNtBb_5slice4iter4IterNtCs3cP53eQoTwO_11proc_macro25IdentENCNvNtCs8XcImbZQYrD_13futures_macro4join8try_join0ENtNtNtCs2cqEZUIJimJ_5quote9___private3ext14RepIteratorExt15quote_into_iterB1W_, symObjAddr: 0x4304, symBinAddr: 0xCA68, symSize: 0x2C }
  - { offset: 0x2256E, size: 0x8, addend: 0x0, symName: __RNvYINtNtNtNtCsfvfooZQ3Axs_4core4iter8adapters3map3MapINtNtNtBb_5slice4iter4IterNtCs3cP53eQoTwO_11proc_macro25IdentENCNvNtCs8XcImbZQYrD_13futures_macro4join8try_joins_0ENtNtNtCs2cqEZUIJimJ_5quote9___private3ext14RepIteratorExt15quote_into_iterB1W_, symObjAddr: 0x4330, symBinAddr: 0xCA94, symSize: 0x2C }
  - { offset: 0x233C6, size: 0x8, addend: 0x0, symName: __RINvMNtCsfvfooZQ3Axs_4core6optionINtB3_6OptionNtCs3cP53eQoTwO_11proc_macro29TokenTreeE11map_or_elseNtBK_4SpanNvMse_BK_B1z_9call_siteNCNvNtCs8XcImbZQYrD_13futures_macro8executor4test0EB2c_, symObjAddr: 0x0, symBinAddr: 0xDBB4, symSize: 0xE4 }
  - { offset: 0x23834, size: 0x8, addend: 0x0, symName: __RNCNvXsw_NtCs6IAuOt8vWmF_3syn10punctuatedINtB7_11PrivateIterNtNtB9_4expr4ExprNtNtB9_5token5CommaENtNtNtNtCsfvfooZQ3Axs_4core4iter6traits8iterator8Iterator4next0Cs8XcImbZQYrD_13futures_macro, symObjAddr: 0x2668, symBinAddr: 0x101C4, symSize: 0x24 }
  - { offset: 0x2387F, size: 0x8, addend: 0x0, symName: __RNCNvXsw_NtCs6IAuOt8vWmF_3syn10punctuatedINtB7_11PrivateIterNtNtB9_4expr4ExprNtNtB9_5token5CommaENtNtNtNtCsfvfooZQ3Axs_4core4iter6traits8iterator8Iterator4nexts_0Cs8XcImbZQYrD_13futures_macro, symObjAddr: 0x268C, symBinAddr: 0x101E8, symSize: 0x34 }
  - { offset: 0x238C2, size: 0x8, addend: 0x0, symName: __RNvXsw_NtCs6IAuOt8vWmF_3syn10punctuatedINtB5_11PrivateIterNtNtB7_4expr4ExprNtNtB7_5token5CommaENtNtNtNtCsfvfooZQ3Axs_4core4iter6traits8iterator8Iterator4nextCs8XcImbZQYrD_13futures_macro, symObjAddr: 0x5558, symBinAddr: 0x130A0, symSize: 0x44 }
  - { offset: 0x2392C, size: 0x8, addend: 0x0, symName: __RNCNCNvXsx_NtCs6IAuOt8vWmF_3syn10punctuatedINtB9_11PrivateIterNtNtBb_4expr4ExprNtNtBb_5token5CommaENtNtNtNtCsfvfooZQ3Axs_4core4iter6traits12double_ended19DoubleEndedIterator9next_back00Cs8XcImbZQYrD_13futures_macro, symObjAddr: 0x25E8, symBinAddr: 0x10144, symSize: 0x24 }
  - { offset: 0x23978, size: 0x8, addend: 0x0, symName: __RNCNvXsx_NtCs6IAuOt8vWmF_3syn10punctuatedINtB7_11PrivateIterNtNtB9_4expr4ExprNtNtB9_5token5CommaENtNtNtNtCsfvfooZQ3Axs_4core4iter6traits12double_ended19DoubleEndedIterator9next_back0Cs8XcImbZQYrD_13futures_macro, symObjAddr: 0x26C0, symBinAddr: 0x1021C, symSize: 0x38 }
  - { offset: 0x239BB, size: 0x8, addend: 0x0, symName: __RNvXsx_NtCs6IAuOt8vWmF_3syn10punctuatedINtB5_11PrivateIterNtNtB7_4expr4ExprNtNtB7_5token5CommaENtNtNtNtCsfvfooZQ3Axs_4core4iter6traits12double_ended19DoubleEndedIterator9next_backCs8XcImbZQYrD_13futures_macro, symObjAddr: 0x559C, symBinAddr: 0x130E4, symSize: 0x40 }
  - { offset: 0x23A1F, size: 0x8, addend: 0x0, symName: __RNvXsA_NtCs6IAuOt8vWmF_3syn10punctuatedINtB5_11PrivateIterNtNtB7_4expr4ExprNtNtB7_5token5CommaEINtB5_9IterTraitBU_E9clone_boxCs8XcImbZQYrD_13futures_macro, symObjAddr: 0x4540, symBinAddr: 0x12098, symSize: 0x94 }
  - { offset: 0x23A83, size: 0x8, addend: 0x0, symName: __RNvXst_NtCs6IAuOt8vWmF_3syn10punctuatedINtB5_4IterNtNtB7_4expr4ExprENtNtNtNtCsfvfooZQ3Axs_4core4iter6traits8iterator8Iterator4nextCs8XcImbZQYrD_13futures_macro, symObjAddr: 0x54CC, symBinAddr: 0x13014, symSize: 0x48 }
  - { offset: 0x23AC0, size: 0x8, addend: 0x0, symName: __RNvXsy_NtCs6IAuOt8vWmF_3syn10punctuatedINtB5_11PrivateIterNtNtB7_4expr4ExprNtNtB7_5token5CommaENtNtNtNtCsfvfooZQ3Axs_4core4iter6traits10exact_size17ExactSizeIterator3lenCs8XcImbZQYrD_13futures_macro, symObjAddr: 0x55DC, symBinAddr: 0x13124, symSize: 0x94 }
  - { offset: 0x23B3A, size: 0x8, addend: 0x0, symName: __RNvXsz_NtCs6IAuOt8vWmF_3syn10punctuatedINtB5_11PrivateIterNtNtB7_4expr4ExprNtNtB7_5token5CommaENtNtCsfvfooZQ3Axs_4core5clone5Clone5cloneCs8XcImbZQYrD_13futures_macro, symObjAddr: 0x5670, symBinAddr: 0x131B8, symSize: 0x68 }
  - { offset: 0x28547, size: 0x8, addend: 0x0, symName: __RNvXsh_NtCs6IAuOt8vWmF_3syn5parseNvMNtB7_10punctuatedINtBy_10PunctuatedNtNtB7_4expr4ExprNtNtB7_5token5CommaE16parse_terminatedNtB5_6Parser6parse2Cs8XcImbZQYrD_13futures_macro, symObjAddr: 0x4AB0, symBinAddr: 0x12608, symSize: 0x340 }
  - { offset: 0x287C8, size: 0x8, addend: 0x0, symName: __RNvXNtCs6IAuOt8vWmF_3syn11parse_quoteNtNtB4_4expr8ExprPathNtB2_10ParseQuote5parseCs8XcImbZQYrD_13futures_macro, symObjAddr: 0x3FE8, symBinAddr: 0x11B40, symSize: 0x34 }
  - { offset: 0x287FD, size: 0x8, addend: 0x0, symName: __RNvXNtCs6IAuOt8vWmF_3syn11parse_quoteNtNtB4_4item8ItemEnumNtB2_10ParseQuote5parseCs8XcImbZQYrD_13futures_macro, symObjAddr: 0x401C, symBinAddr: 0x11B74, symSize: 0x34 }
  - { offset: 0x28E12, size: 0x8, addend: 0x0, symName: __RNSINvNtNtCse1nGBsou5OW_5alloc3vec16in_place_collect18from_iter_in_placeINtNtNtNtCsfvfooZQ3Axs_4core4iter8adapters3map3MapINtNtB1d_3zip3ZipINtNtB6_9into_iter8IntoIterNtNtCs6IAuOt8vWmF_3syn4expr4ExprEINtNtNtB1h_5slice4iter4IterNtCs3cP53eQoTwO_11proc_macro25IdentEENCNvNtCs8XcImbZQYrD_13futures_macro6select12select_inner0ENtB2G_8ExprPathE5reifyB4j_, symObjAddr: 0x26F8, symBinAddr: 0x10254, symSize: 0x1C }
  - { offset: 0x28E4D, size: 0x8, addend: 0x0, symName: __RNSINvNtNtCse1nGBsou5OW_5alloc3vec16in_place_collect18from_iter_in_placeINtNtNtNtCsfvfooZQ3Axs_4core4iter8adapters3map3MapINtNtB1d_9enumerate9EnumerateINtNtB6_9into_iter8IntoIterNtNtCs6IAuOt8vWmF_3syn4expr4ExprEENCNvNtCs8XcImbZQYrD_13futures_macro4join12bind_futures0ENtCs3cP53eQoTwO_11proc_macro25IdentE5reifyB3u_, symObjAddr: 0x2714, symBinAddr: 0x10270, symSize: 0x1C }
  - { offset: 0x29B4E, size: 0x8, addend: 0x0, symName: __RNvXs1_NtCse1nGBsou5OW_5alloc7raw_vecINtB5_6RawVecNtCs3cP53eQoTwO_11proc_macro211TokenStreamENtNtNtCsfvfooZQ3Axs_4core3ops4drop4Drop4dropCs8XcImbZQYrD_13futures_macro, symObjAddr: 0x4050, symBinAddr: 0x11BA8, symSize: 0x34 }
  - { offset: 0x29B8A, size: 0x8, addend: 0x0, symName: __RNvXs1_NtCse1nGBsou5OW_5alloc7raw_vecINtB5_6RawVecNtCs3cP53eQoTwO_11proc_macro25IdentENtNtNtCsfvfooZQ3Axs_4core3ops4drop4Drop4dropCs8XcImbZQYrD_13futures_macro, symObjAddr: 0x4084, symBinAddr: 0x11BDC, symSize: 0x34 }
  - { offset: 0x29BC6, size: 0x8, addend: 0x0, symName: __RNvXs1_NtCse1nGBsou5OW_5alloc7raw_vecINtB5_6RawVecNtNtCs6IAuOt8vWmF_3syn4expr4ExprENtNtNtCsfvfooZQ3Axs_4core3ops4drop4Drop4dropCs8XcImbZQYrD_13futures_macro, symObjAddr: 0x40B8, symBinAddr: 0x11C10, symSize: 0x34 }
  - { offset: 0x29C02, size: 0x8, addend: 0x0, symName: __RNvXs1_NtCse1nGBsou5OW_5alloc7raw_vecINtB5_6RawVecNtNtCs6IAuOt8vWmF_3syn4expr5IndexENtNtNtCsfvfooZQ3Axs_4core3ops4drop4Drop4dropCs8XcImbZQYrD_13futures_macro, symObjAddr: 0x40EC, symBinAddr: 0x11C44, symSize: 0x34 }
  - { offset: 0x29C3E, size: 0x8, addend: 0x0, symName: __RNvXs1_NtCse1nGBsou5OW_5alloc7raw_vecINtB5_6RawVecNtNtCs6IAuOt8vWmF_3syn4expr8ExprPathENtNtNtCsfvfooZQ3Axs_4core3ops4drop4Drop4dropCs8XcImbZQYrD_13futures_macro, symObjAddr: 0x4120, symBinAddr: 0x11C78, symSize: 0x34 }
  - { offset: 0x29C7A, size: 0x8, addend: 0x0, symName: __RNvXs1_NtCse1nGBsou5OW_5alloc7raw_vecINtB5_6RawVecTNtNtCs6IAuOt8vWmF_3syn3pat3PatNtNtBR_4expr4ExprEENtNtNtCsfvfooZQ3Axs_4core3ops4drop4Drop4dropCs8XcImbZQYrD_13futures_macro, symObjAddr: 0x4154, symBinAddr: 0x11CAC, symSize: 0x34 }
  - { offset: 0x29E89, size: 0x8, addend: 0x0, symName: __RNvNtCse1nGBsou5OW_5alloc3fmt6formatCs8XcImbZQYrD_13futures_macro, symObjAddr: 0x3108, symBinAddr: 0x10C64, symSize: 0xD4 }
  - { offset: 0x2A11A, size: 0x8, addend: 0x0, symName: __RNvXsF_NtCs3cP53eQoTwO_11proc_macro23impNtB5_5IdentNtNtCsfvfooZQ3Axs_4core5clone5Clone5cloneCs8XcImbZQYrD_13futures_macro, symObjAddr: 0x45D4, symBinAddr: 0x1212C, symSize: 0x9C }
  - { offset: 0x2AD9D, size: 0x8, addend: 0x0, symName: __RNvXs5_NtNtCs9i5KxIbZ5ph_10proc_macro6bridge6bufferNtB5_6BufferNtNtNtCsfvfooZQ3Axs_4core3ops4drop4Drop4dropCs8XcImbZQYrD_13futures_macro, symObjAddr: 0x4478, symBinAddr: 0x11FD0, symSize: 0x8C }
  - { offset: 0x2AF32, size: 0x8, addend: 0x0, symName: __RINvNvNtNtCs9i5KxIbZ5ph_10proc_macro6bridge14selfless_reify31reify_to_extern_c_fn_hrt_bridge7wrapperNtNtB6_6buffer6BufferNCINvMs7_NtB6_6clientINtB24_6ClientNtB8_11TokenStreamB2u_E7expand1NvCs8XcImbZQYrD_13futures_macro13join_internalE0EB31_, symObjAddr: 0x1DB0, symBinAddr: 0xF90C, symSize: 0x5C }
  - { offset: 0x2AF8E, size: 0x8, addend: 0x0, symName: __RINvNvNtNtCs9i5KxIbZ5ph_10proc_macro6bridge14selfless_reify31reify_to_extern_c_fn_hrt_bridge7wrapperNtNtB6_6buffer6BufferNCINvMs7_NtB6_6clientINtB24_6ClientNtB8_11TokenStreamB2u_E7expand1NvCs8XcImbZQYrD_13futures_macro15select_internalE0EB31_, symObjAddr: 0x1E0C, symBinAddr: 0xF968, symSize: 0x5C }
  - { offset: 0x2AFEA, size: 0x8, addend: 0x0, symName: __RINvNvNtNtCs9i5KxIbZ5ph_10proc_macro6bridge14selfless_reify31reify_to_extern_c_fn_hrt_bridge7wrapperNtNtB6_6buffer6BufferNCINvMs7_NtB6_6clientINtB24_6ClientNtB8_11TokenStreamB2u_E7expand1NvCs8XcImbZQYrD_13futures_macro17try_join_internalE0EB31_, symObjAddr: 0x1E68, symBinAddr: 0xF9C4, symSize: 0x5C }
  - { offset: 0x2B046, size: 0x8, addend: 0x0, symName: __RINvNvNtNtCs9i5KxIbZ5ph_10proc_macro6bridge14selfless_reify31reify_to_extern_c_fn_hrt_bridge7wrapperNtNtB6_6buffer6BufferNCINvMs7_NtB6_6clientINtB24_6ClientNtB8_11TokenStreamB2u_E7expand1NvCs8XcImbZQYrD_13futures_macro22select_biased_internalE0EB31_, symObjAddr: 0x1EC4, symBinAddr: 0xFA20, symSize: 0x5C }
  - { offset: 0x2B0A2, size: 0x8, addend: 0x0, symName: __RINvNvNtNtCs9i5KxIbZ5ph_10proc_macro6bridge14selfless_reify31reify_to_extern_c_fn_hrt_bridge7wrapperNtNtB6_6buffer6BufferNCINvMs7_NtB6_6clientINtB24_6ClientNtB8_11TokenStreamB2u_E7expand1NvCs8XcImbZQYrD_13futures_macro22stream_select_internalE0EB31_, symObjAddr: 0x1F20, symBinAddr: 0xFA7C, symSize: 0x5C }
  - { offset: 0x2B0FE, size: 0x8, addend: 0x0, symName: __RINvNvNtNtCs9i5KxIbZ5ph_10proc_macro6bridge14selfless_reify31reify_to_extern_c_fn_hrt_bridge7wrapperNtNtB6_6buffer6BufferNCINvMs8_NtB6_6clientINtB24_6ClientTNtB8_11TokenStreamB2v_EB2v_E7expand2NvCs8XcImbZQYrD_13futures_macro13test_internalE0EB37_, symObjAddr: 0x1F7C, symBinAddr: 0xFAD8, symSize: 0x5C }
  - { offset: 0x2B2A0, size: 0x8, addend: 0x0, symName: __RNvXsR_NtCs9i5KxIbZ5ph_10proc_macro6bridgeINtNtCsfvfooZQ3Axs_4core6option6OptionNtNtB5_6client11TokenStreamEINtNtB5_3rpc6EncodeuE6encodeCs8XcImbZQYrD_13futures_macro, symObjAddr: 0x46D8, symBinAddr: 0x12230, symSize: 0xCC }
  - { offset: 0x2B346, size: 0x8, addend: 0x0, symName: __RNvXsR_NtCs9i5KxIbZ5ph_10proc_macro6bridgeINtNtCsfvfooZQ3Axs_4core6option6OptionReEINtNtB5_3rpc6EncodeuE6encodeCs8XcImbZQYrD_13futures_macro, symObjAddr: 0x47A4, symBinAddr: 0x122FC, symSize: 0xD8 }
  - { offset: 0x2B3F2, size: 0x8, addend: 0x0, symName: __RNvXsV_NtCs9i5KxIbZ5ph_10proc_macro6bridgeINtNtCsfvfooZQ3Axs_4core6result6ResultINtNtBJ_6option6OptionNtNtB5_6client11TokenStreamEuEINtNtB5_3rpc6EncodeuE6encodeCs8XcImbZQYrD_13futures_macro, symObjAddr: 0x487C, symBinAddr: 0x123D4, symSize: 0x108 }
  - { offset: 0x2B4B6, size: 0x8, addend: 0x0, symName: __RNvXsV_NtCs9i5KxIbZ5ph_10proc_macro6bridgeINtNtCsfvfooZQ3Axs_4core6result6ResultuNtNtB5_3rpc12PanicMessageEINtB1j_6EncodeuE6encodeCs8XcImbZQYrD_13futures_macro, symObjAddr: 0x4984, symBinAddr: 0x124DC, symSize: 0x12C }
  - { offset: 0x2BFD6, size: 0x8, addend: 0x0, symName: __RNvNvMs1_NtNtCsfvfooZQ3Axs_4core3ptr8non_nullINtB7_7NonNullpE13new_unchecked18precondition_checkCs8XcImbZQYrD_13futures_macro, symObjAddr: 0x3828, symBinAddr: 0x11380, symSize: 0x38 }
  - { offset: 0x2C576, size: 0x8, addend: 0x0, symName: __RNvNvMNtNtCsfvfooZQ3Axs_4core3ptr9const_ptrPp7sub_ptr18precondition_checkCs8XcImbZQYrD_13futures_macro, symObjAddr: 0x37E8, symBinAddr: 0x11340, symSize: 0x40 }
  - { offset: 0x2CA6A, size: 0x8, addend: 0x0, symName: __RINvNtCsfvfooZQ3Axs_4core3ptr13drop_in_placeINtNtB4_4cell10UnsafeCellNtNtNtCs9i5KxIbZ5ph_10proc_macro6bridge6client6BridgeEECs8XcImbZQYrD_13futures_macro, symObjAddr: 0x9C8, symBinAddr: 0xE534, symSize: 0x24 }
  - { offset: 0x2CA99, size: 0x8, addend: 0x0, symName: __RINvNtCsfvfooZQ3Axs_4core3ptr13drop_in_placeINtNtB4_4cell7RefCellNtNtNtCs9i5KxIbZ5ph_10proc_macro6bridge6client6BridgeEECs8XcImbZQYrD_13futures_macro, symObjAddr: 0x9EC, symBinAddr: 0xE558, symSize: 0x24 }
  - { offset: 0x2CAC8, size: 0x8, addend: 0x0, symName: __RINvNtCsfvfooZQ3Axs_4core3ptr13drop_in_placeINtNtB4_6option6OptionTNtNtCs6IAuOt8vWmF_3syn4expr4ExprRNtCs3cP53eQoTwO_11proc_macro25IdentEEECs8XcImbZQYrD_13futures_macro, symObjAddr: 0xA10, symBinAddr: 0xE57C, symSize: 0x44 }
  - { offset: 0x2CAF7, size: 0x8, addend: 0x0, symName: __RINvNtCsfvfooZQ3Axs_4core3ptr13drop_in_placeINtNtB4_6result6ResultINtNtNtCse1nGBsou5OW_5alloc3vec13in_place_drop11InPlaceDropNtCs3cP53eQoTwO_11proc_macro25IdentEzEECs8XcImbZQYrD_13futures_macro, symObjAddr: 0xA54, symBinAddr: 0xE5C0, symSize: 0x30 }
  - { offset: 0x2CB26, size: 0x8, addend: 0x0, symName: __RINvNtCsfvfooZQ3Axs_4core3ptr13drop_in_placeINtNtCs2cqEZUIJimJ_5quote9___private9RepInterpNtCs3cP53eQoTwO_11proc_macro211TokenStreamEECs8XcImbZQYrD_13futures_macro, symObjAddr: 0xA84, symBinAddr: 0xE5F0, symSize: 0x24 }
  - { offset: 0x2CB55, size: 0x8, addend: 0x0, symName: __RINvNtCsfvfooZQ3Axs_4core3ptr13drop_in_placeINtNtCs6IAuOt8vWmF_3syn10punctuated4IterNtNtBL_4expr4ExprEECs8XcImbZQYrD_13futures_macro, symObjAddr: 0xAB8, symBinAddr: 0xE614, symSize: 0x24 }
  - { offset: 0x2CB84, size: 0x8, addend: 0x0, symName: __RINvNtCsfvfooZQ3Axs_4core3ptr13drop_in_placeINtNtCse1nGBsou5OW_5alloc3vec3VecNtCs3cP53eQoTwO_11proc_macro211TokenStreamEECs8XcImbZQYrD_13futures_macro, symObjAddr: 0xADC, symBinAddr: 0xE638, symSize: 0x5C }
  - { offset: 0x2CBB3, size: 0x8, addend: 0x0, symName: __RINvNtCsfvfooZQ3Axs_4core3ptr13drop_in_placeINtNtCse1nGBsou5OW_5alloc3vec3VecNtCs3cP53eQoTwO_11proc_macro25IdentEECs8XcImbZQYrD_13futures_macro, symObjAddr: 0xB38, symBinAddr: 0xE694, symSize: 0x5C }
  - { offset: 0x2CBE2, size: 0x8, addend: 0x0, symName: __RINvNtCsfvfooZQ3Axs_4core3ptr13drop_in_placeINtNtCse1nGBsou5OW_5alloc3vec3VecNtNtCs6IAuOt8vWmF_3syn4expr4ExprEECs8XcImbZQYrD_13futures_macro, symObjAddr: 0xB94, symBinAddr: 0xE6F0, symSize: 0x5C }
  - { offset: 0x2CC11, size: 0x8, addend: 0x0, symName: __RINvNtCsfvfooZQ3Axs_4core3ptr13drop_in_placeINtNtCse1nGBsou5OW_5alloc3vec3VecNtNtCs6IAuOt8vWmF_3syn4expr5IndexEECs8XcImbZQYrD_13futures_macro, symObjAddr: 0xBF0, symBinAddr: 0xE74C, symSize: 0x5C }
  - { offset: 0x2CC40, size: 0x8, addend: 0x0, symName: __RINvNtCsfvfooZQ3Axs_4core3ptr13drop_in_placeINtNtCse1nGBsou5OW_5alloc3vec3VecNtNtCs6IAuOt8vWmF_3syn4expr8ExprPathEECs8XcImbZQYrD_13futures_macro, symObjAddr: 0xC4C, symBinAddr: 0xE7A8, symSize: 0x5C }
  - { offset: 0x2CC6F, size: 0x8, addend: 0x0, symName: __RINvNtCsfvfooZQ3Axs_4core3ptr13drop_in_placeINtNtCse1nGBsou5OW_5alloc3vec3VecTNtNtCs6IAuOt8vWmF_3syn3pat3PatNtNtB1i_4expr4ExprEEECs8XcImbZQYrD_13futures_macro, symObjAddr: 0xCA8, symBinAddr: 0xE804, symSize: 0x5C }
  - { offset: 0x2CC9E, size: 0x8, addend: 0x0, symName: __RINvNtCsfvfooZQ3Axs_4core3ptr13drop_in_placeINtNtCse1nGBsou5OW_5alloc5boxed3BoxDNtNtB4_5error5ErrorNtNtB4_6marker4SendNtB1B_4SyncEL_EECs8XcImbZQYrD_13futures_macro, symObjAddr: 0xD04, symBinAddr: 0xE860, symSize: 0x80 }
  - { offset: 0x2CCCD, size: 0x8, addend: 0x0, symName: __RINvNtCsfvfooZQ3Axs_4core3ptr13drop_in_placeINtNtCse1nGBsou5OW_5alloc5boxed3BoxINtNtCs6IAuOt8vWmF_3syn5drops6NoDropDINtNtB1k_10punctuated9IterTraitNtNtB1k_4expr4ExprEp4ItemRB2l_EL_EEECs8XcImbZQYrD_13futures_macro, symObjAddr: 0xD84, symBinAddr: 0xE8E0, symSize: 0x2C }
  - { offset: 0x2CCFC, size: 0x8, addend: 0x0, symName: __RINvNtCsfvfooZQ3Axs_4core3ptr13drop_in_placeINtNtCse1nGBsou5OW_5alloc5boxed3BoxNtNtNtCscOYdFFY2T5N_3std2io5error6CustomEECs8XcImbZQYrD_13futures_macro, symObjAddr: 0xDB0, symBinAddr: 0xE90C, symSize: 0x60 }
  - { offset: 0x2CD2B, size: 0x8, addend: 0x0, symName: __RINvNtCsfvfooZQ3Axs_4core3ptr13drop_in_placeINtNtCse1nGBsou5OW_5alloc7raw_vec6RawVecNtCs3cP53eQoTwO_11proc_macro211TokenStreamEECs8XcImbZQYrD_13futures_macro, symObjAddr: 0xE10, symBinAddr: 0xE96C, symSize: 0x24 }
  - { offset: 0x2CD5A, size: 0x8, addend: 0x0, symName: __RINvNtCsfvfooZQ3Axs_4core3ptr13drop_in_placeINtNtCse1nGBsou5OW_5alloc7raw_vec6RawVecNtCs3cP53eQoTwO_11proc_macro25IdentEECs8XcImbZQYrD_13futures_macro, symObjAddr: 0xE34, symBinAddr: 0xE990, symSize: 0x24 }
  - { offset: 0x2CD89, size: 0x8, addend: 0x0, symName: __RINvNtCsfvfooZQ3Axs_4core3ptr13drop_in_placeINtNtCse1nGBsou5OW_5alloc7raw_vec6RawVecNtNtCs6IAuOt8vWmF_3syn4expr4ExprEECs8XcImbZQYrD_13futures_macro, symObjAddr: 0xE58, symBinAddr: 0xE9B4, symSize: 0x24 }
  - { offset: 0x2CDB8, size: 0x8, addend: 0x0, symName: __RINvNtCsfvfooZQ3Axs_4core3ptr13drop_in_placeINtNtCse1nGBsou5OW_5alloc7raw_vec6RawVecNtNtCs6IAuOt8vWmF_3syn4expr5IndexEECs8XcImbZQYrD_13futures_macro, symObjAddr: 0xE7C, symBinAddr: 0xE9D8, symSize: 0x24 }
  - { offset: 0x2CDE7, size: 0x8, addend: 0x0, symName: __RINvNtCsfvfooZQ3Axs_4core3ptr13drop_in_placeINtNtCse1nGBsou5OW_5alloc7raw_vec6RawVecNtNtCs6IAuOt8vWmF_3syn4expr8ExprPathEECs8XcImbZQYrD_13futures_macro, symObjAddr: 0xEA0, symBinAddr: 0xE9FC, symSize: 0x24 }
  - { offset: 0x2CE16, size: 0x8, addend: 0x0, symName: __RINvNtCsfvfooZQ3Axs_4core3ptr13drop_in_placeINtNtCse1nGBsou5OW_5alloc7raw_vec6RawVecTNtNtCs6IAuOt8vWmF_3syn3pat3PatNtNtB1p_4expr4ExprEEECs8XcImbZQYrD_13futures_macro, symObjAddr: 0xEC4, symBinAddr: 0xEA20, symSize: 0x24 }
  - { offset: 0x2CE45, size: 0x8, addend: 0x0, symName: __RINvNtCsfvfooZQ3Axs_4core3ptr13drop_in_placeINtNtNtCscOYdFFY2T5N_3std2io5error9ErrorDataINtNtCse1nGBsou5OW_5alloc5boxed3BoxNtBJ_6CustomEEECs8XcImbZQYrD_13futures_macro, symObjAddr: 0xEE8, symBinAddr: 0xEA44, symSize: 0x48 }
  - { offset: 0x2CE74, size: 0x8, addend: 0x0, symName: __RINvNtCsfvfooZQ3Axs_4core3ptr13drop_in_placeINtNtNtCse1nGBsou5OW_5alloc3vec13in_place_drop11InPlaceDropNtCs3cP53eQoTwO_11proc_macro25IdentEECs8XcImbZQYrD_13futures_macro, symObjAddr: 0xF30, symBinAddr: 0xEA8C, symSize: 0x24 }
  - { offset: 0x2CEA3, size: 0x8, addend: 0x0, symName: __RINvNtCsfvfooZQ3Axs_4core3ptr13drop_in_placeINtNtNtCse1nGBsou5OW_5alloc3vec13in_place_drop11InPlaceDropNtNtCs6IAuOt8vWmF_3syn4expr8ExprPathEECs8XcImbZQYrD_13futures_macro, symObjAddr: 0xF54, symBinAddr: 0xEAB0, symSize: 0x24 }
  - { offset: 0x2CED2, size: 0x8, addend: 0x0, symName: __RINvNtCsfvfooZQ3Axs_4core3ptr13drop_in_placeINtNtNtCse1nGBsou5OW_5alloc3vec13in_place_drop24InPlaceDstDataSrcBufDropNtNtCs6IAuOt8vWmF_3syn4expr4ExprNtB1S_8ExprPathEECs8XcImbZQYrD_13futures_macro, symObjAddr: 0xF78, symBinAddr: 0xEAD4, symSize: 0x24 }
  - { offset: 0x2CF01, size: 0x8, addend: 0x0, symName: __RINvNtCsfvfooZQ3Axs_4core3ptr13drop_in_placeINtNtNtCse1nGBsou5OW_5alloc3vec13in_place_drop24InPlaceDstDataSrcBufDropNtNtCs6IAuOt8vWmF_3syn4expr4ExprNtCs3cP53eQoTwO_11proc_macro25IdentEECs8XcImbZQYrD_13futures_macro, symObjAddr: 0xF9C, symBinAddr: 0xEAF8, symSize: 0x24 }
  - { offset: 0x2CF30, size: 0x8, addend: 0x0, symName: __RINvNtCsfvfooZQ3Axs_4core3ptr13drop_in_placeINtNtNtCse1nGBsou5OW_5alloc3vec9into_iter8IntoIterNtNtCs6IAuOt8vWmF_3syn4expr4ExprEECs8XcImbZQYrD_13futures_macro, symObjAddr: 0xFC0, symBinAddr: 0xEB1C, symSize: 0x24 }
  - { offset: 0x2CF5F, size: 0x8, addend: 0x0, symName: __RINvNtCsfvfooZQ3Axs_4core3ptr13drop_in_placeINtNtNtCse1nGBsou5OW_5alloc3vec9into_iter8IntoIterTNtNtCs6IAuOt8vWmF_3syn3pat3PatNtNtB1z_4expr4ExprEEECs8XcImbZQYrD_13futures_macro, symObjAddr: 0xFE4, symBinAddr: 0xEB40, symSize: 0x24 }
  - { offset: 0x2CF8E, size: 0x8, addend: 0x0, symName: __RINvNtCsfvfooZQ3Axs_4core3ptr13drop_in_placeINtNtNtNtB4_4iter8adapters3map3MapINtNtBL_3zip3ZipINtNtNtCse1nGBsou5OW_5alloc3vec9into_iter8IntoIterNtNtCs6IAuOt8vWmF_3syn4expr4ExprEINtNtNtB4_5slice4iter4IterNtCs3cP53eQoTwO_11proc_macro25IdentEENCNvNtCs8XcImbZQYrD_13futures_macro6select12select_inner0EEB3W_, symObjAddr: 0x1008, symBinAddr: 0xEB64, symSize: 0x24 }
  - { offset: 0x2CFBD, size: 0x8, addend: 0x0, symName: __RINvNtCsfvfooZQ3Axs_4core3ptr13drop_in_placeINtNtNtNtB4_4iter8adapters3map3MapINtNtBL_3zip3ZipINtNtNtCse1nGBsou5OW_5alloc3vec9into_iter8IntoIterTNtNtCs6IAuOt8vWmF_3syn3pat3PatNtNtB2n_4expr4ExprEEINtNtNtB4_5slice4iter4IterNtCs3cP53eQoTwO_11proc_macro25IdentEENCNvNtCs8XcImbZQYrD_13futures_macro6select12select_inners0_0EEB4e_, symObjAddr: 0x102C, symBinAddr: 0xEB88, symSize: 0x24 }
  - { offset: 0x2CFEC, size: 0x8, addend: 0x0, symName: __RINvNtCsfvfooZQ3Axs_4core3ptr13drop_in_placeINtNtNtNtB4_4iter8adapters3map3MapINtNtBL_9enumerate9EnumerateINtNtNtCse1nGBsou5OW_5alloc3vec9into_iter8IntoIterNtNtCs6IAuOt8vWmF_3syn4expr4ExprEENCNvNtCs8XcImbZQYrD_13futures_macro4join12bind_futures0EEB38_, symObjAddr: 0x1050, symBinAddr: 0xEBAC, symSize: 0x24 }
  - { offset: 0x2D01B, size: 0x8, addend: 0x0, symName: __RINvNtCsfvfooZQ3Axs_4core3ptr13drop_in_placeINtNtNtNtB4_4iter8adapters3map3MapINtNtCs6IAuOt8vWmF_3syn10punctuated4IterNtNtB1j_4expr4ExprENCNvNtCs8XcImbZQYrD_13futures_macro13stream_select13stream_selects1_0EEB2h_, symObjAddr: 0x1074, symBinAddr: 0xEBD0, symSize: 0x24 }
  - { offset: 0x2D04A, size: 0x8, addend: 0x0, symName: __RINvNtCsfvfooZQ3Axs_4core3ptr13drop_in_placeINtNtNtNtB4_4iter8adapters3zip3ZipINtNtNtCse1nGBsou5OW_5alloc3vec9into_iter8IntoIterNtNtCs6IAuOt8vWmF_3syn4expr4ExprEINtNtNtB4_5slice4iter4IterNtCs3cP53eQoTwO_11proc_macro25IdentEEECs8XcImbZQYrD_13futures_macro, symObjAddr: 0x1098, symBinAddr: 0xEBF4, symSize: 0x24 }
  - { offset: 0x2D079, size: 0x8, addend: 0x0, symName: __RINvNtCsfvfooZQ3Axs_4core3ptr13drop_in_placeINtNtNtNtB4_4iter8adapters3zip3ZipINtNtNtCse1nGBsou5OW_5alloc3vec9into_iter8IntoIterTNtNtCs6IAuOt8vWmF_3syn3pat3PatNtNtB27_4expr4ExprEEINtNtNtB4_5slice4iter4IterNtCs3cP53eQoTwO_11proc_macro25IdentEEECs8XcImbZQYrD_13futures_macro, symObjAddr: 0x10BC, symBinAddr: 0xEC18, symSize: 0x24 }
  - { offset: 0x2D0A8, size: 0x8, addend: 0x0, symName: __RINvNtCsfvfooZQ3Axs_4core3ptr13drop_in_placeINtNtNtNtB4_4iter8adapters9enumerate9EnumerateINtNtNtCse1nGBsou5OW_5alloc3vec9into_iter8IntoIterNtNtCs6IAuOt8vWmF_3syn4expr4ExprEEECs8XcImbZQYrD_13futures_macro, symObjAddr: 0x10E0, symBinAddr: 0xEC3C, symSize: 0x24 }
  - { offset: 0x2D0D7, size: 0x8, addend: 0x0, symName: __RINvNtCsfvfooZQ3Axs_4core3ptr13drop_in_placeINtNvXsd_NtNtCse1nGBsou5OW_5alloc3vec9into_iterINtBP_8IntoIterppENtNtNtB4_3ops4drop4Drop4drop9DropGuardNtNtCs6IAuOt8vWmF_3syn4expr4ExprNtNtBT_5alloc6GlobalEECs8XcImbZQYrD_13futures_macro, symObjAddr: 0x1104, symBinAddr: 0xEC60, symSize: 0x24 }
  - { offset: 0x2D106, size: 0x8, addend: 0x0, symName: __RINvNtCsfvfooZQ3Axs_4core3ptr13drop_in_placeINtNvXsd_NtNtCse1nGBsou5OW_5alloc3vec9into_iterINtBP_8IntoIterppENtNtNtB4_3ops4drop4Drop4drop9DropGuardTNtNtCs6IAuOt8vWmF_3syn3pat3PatNtNtB2q_4expr4ExprENtNtBT_5alloc6GlobalEECs8XcImbZQYrD_13futures_macro, symObjAddr: 0x1128, symBinAddr: 0xEC84, symSize: 0x24 }
  - { offset: 0x2D135, size: 0x8, addend: 0x0, symName: __RINvNtCsfvfooZQ3Axs_4core3ptr13drop_in_placeNCINvMsi_NtCse1nGBsou5OW_5alloc3vecINtBP_3VecNtCs3cP53eQoTwO_11proc_macro25IdentE14extend_trustedINtNtNtNtB4_4iter8adapters3map3MapINtNtNtB4_3ops5range5RangejENCNvNtCs8XcImbZQYrD_13futures_macro13stream_select13stream_select0EE0EB3l_, symObjAddr: 0x114C, symBinAddr: 0xECA8, symSize: 0x24 }
  - { offset: 0x2D164, size: 0x8, addend: 0x0, symName: __RINvNtCsfvfooZQ3Axs_4core3ptr13drop_in_placeNCINvMsi_NtCse1nGBsou5OW_5alloc3vecINtBP_3VecNtCs3cP53eQoTwO_11proc_macro25IdentE14extend_trustedINtNtNtNtB4_4iter8adapters3map3MapINtNtNtB4_3ops5range5RangejENCNvNtCs8XcImbZQYrD_13futures_macro13stream_select13stream_selects0_0EE0EB3l_, symObjAddr: 0x1170, symBinAddr: 0xECCC, symSize: 0x24 }
  - { offset: 0x2D193, size: 0x8, addend: 0x0, symName: __RINvNtCsfvfooZQ3Axs_4core3ptr13drop_in_placeNCINvMsi_NtCse1nGBsou5OW_5alloc3vecINtBP_3VecNtCs3cP53eQoTwO_11proc_macro25IdentE14extend_trustedINtNtNtNtB4_4iter8adapters3map3MapINtNtNtB4_3ops5range5RangejENCNvNtCs8XcImbZQYrD_13futures_macro13stream_select13stream_selects_0EE0EB3l_, symObjAddr: 0x1194, symBinAddr: 0xECF0, symSize: 0x24 }
  - { offset: 0x2D1C2, size: 0x8, addend: 0x0, symName: __RINvNtCsfvfooZQ3Axs_4core3ptr13drop_in_placeNCINvMsi_NtCse1nGBsou5OW_5alloc3vecINtBP_3VecNtCs3cP53eQoTwO_11proc_macro25IdentE14extend_trustedINtNtNtNtB4_4iter8adapters3map3MapINtNtNtB4_3ops5range5RangejENCNvNtCs8XcImbZQYrD_13futures_macro6select19declare_result_enum0EE0EB3l_, symObjAddr: 0x11B8, symBinAddr: 0xED14, symSize: 0x24 }
  - { offset: 0x2D1F1, size: 0x8, addend: 0x0, symName: __RINvNtCsfvfooZQ3Axs_4core3ptr13drop_in_placeNCINvMsi_NtCse1nGBsou5OW_5alloc3vecINtBP_3VecNtNtCs6IAuOt8vWmF_3syn4expr5IndexE14extend_trustedINtNtNtNtB4_4iter8adapters3map3MapINtNtNtB4_3ops5range5RangejENvYB1p_INtNtB4_7convert4FromjE4fromEE0ECs8XcImbZQYrD_13futures_macro, symObjAddr: 0x11DC, symBinAddr: 0xED38, symSize: 0x24 }
  - { offset: 0x2D220, size: 0x8, addend: 0x0, symName: __RINvNtCsfvfooZQ3Axs_4core3ptr13drop_in_placeNCINvNtNtNtB4_4iter8adapters3map8map_foldjNtCs3cP53eQoTwO_11proc_macro25IdentuNCNvNtCs8XcImbZQYrD_13futures_macro13stream_select13stream_select0NCINvNvNtNtNtBP_6traits8iterator8Iterator8for_each4callB1m_NCINvMsi_NtCse1nGBsou5OW_5alloc3vecINtB46_3VecB1m_E14extend_trustedINtBL_3MapINtNtNtB4_3ops5range5RangejEB1W_EE0E0E0EB22_, symObjAddr: 0x1200, symBinAddr: 0xED5C, symSize: 0x24 }
  - { offset: 0x2D24F, size: 0x8, addend: 0x0, symName: __RINvNtCsfvfooZQ3Axs_4core3ptr13drop_in_placeNCINvNtNtNtB4_4iter8adapters3map8map_foldjNtCs3cP53eQoTwO_11proc_macro25IdentuNCNvNtCs8XcImbZQYrD_13futures_macro13stream_select13stream_selects0_0NCINvNvNtNtNtBP_6traits8iterator8Iterator8for_each4callB1m_NCINvMsi_NtCse1nGBsou5OW_5alloc3vecINtB49_3VecB1m_E14extend_trustedINtBL_3MapINtNtNtB4_3ops5range5RangejEB1W_EE0E0E0EB22_, symObjAddr: 0x1224, symBinAddr: 0xED80, symSize: 0x24 }
  - { offset: 0x2D27E, size: 0x8, addend: 0x0, symName: __RINvNtCsfvfooZQ3Axs_4core3ptr13drop_in_placeNCINvNtNtNtB4_4iter8adapters3map8map_foldjNtCs3cP53eQoTwO_11proc_macro25IdentuNCNvNtCs8XcImbZQYrD_13futures_macro13stream_select13stream_selects_0NCINvNvNtNtNtBP_6traits8iterator8Iterator8for_each4callB1m_NCINvMsi_NtCse1nGBsou5OW_5alloc3vecINtB48_3VecB1m_E14extend_trustedINtBL_3MapINtNtNtB4_3ops5range5RangejEB1W_EE0E0E0EB22_, symObjAddr: 0x1248, symBinAddr: 0xEDA4, symSize: 0x24 }
  - { offset: 0x2D2AD, size: 0x8, addend: 0x0, symName: __RINvNtCsfvfooZQ3Axs_4core3ptr13drop_in_placeNCINvNtNtNtB4_4iter8adapters3map8map_foldjNtCs3cP53eQoTwO_11proc_macro25IdentuNCNvNtCs8XcImbZQYrD_13futures_macro6select19declare_result_enum0NCINvNvNtNtNtBP_6traits8iterator8Iterator8for_each4callB1m_NCINvMsi_NtCse1nGBsou5OW_5alloc3vecINtB44_3VecB1m_E14extend_trustedINtBL_3MapINtNtNtB4_3ops5range5RangejEB1W_EE0E0E0EB22_, symObjAddr: 0x126C, symBinAddr: 0xEDC8, symSize: 0x24 }
  - { offset: 0x2D2DC, size: 0x8, addend: 0x0, symName: __RINvNtCsfvfooZQ3Axs_4core3ptr13drop_in_placeNCINvNtNtNtB4_4iter8adapters3map8map_foldjNtNtCs6IAuOt8vWmF_3syn4expr5IndexuNvYB1m_INtNtB4_7convert4FromjE4fromNCINvNvNtNtNtBP_6traits8iterator8Iterator8for_each4callB1m_NCINvMsi_NtCse1nGBsou5OW_5alloc3vecINtB3z_3VecB1m_E14extend_trustedINtBL_3MapINtNtNtB4_3ops5range5RangejEB1U_EE0E0E0ECs8XcImbZQYrD_13futures_macro, symObjAddr: 0x1290, symBinAddr: 0xEDEC, symSize: 0x24 }
  - { offset: 0x2D30B, size: 0x8, addend: 0x0, symName: __RINvNtCsfvfooZQ3Axs_4core3ptr13drop_in_placeNCINvNvNtNtNtNtB4_4iter6traits8iterator8Iterator8for_each4callNtCs3cP53eQoTwO_11proc_macro25IdentNCINvMsi_NtCse1nGBsou5OW_5alloc3vecINtB2o_3VecB1G_E14extend_trustedINtNtNtBT_8adapters3map3MapINtNtNtB4_3ops5range5RangejENCNvNtCs8XcImbZQYrD_13futures_macro13stream_select13stream_select0EE0E0EB4j_, symObjAddr: 0x12B4, symBinAddr: 0xEE10, symSize: 0x24 }
  - { offset: 0x2D33A, size: 0x8, addend: 0x0, symName: __RINvNtCsfvfooZQ3Axs_4core3ptr13drop_in_placeNCINvNvNtNtNtNtB4_4iter6traits8iterator8Iterator8for_each4callNtCs3cP53eQoTwO_11proc_macro25IdentNCINvMsi_NtCse1nGBsou5OW_5alloc3vecINtB2o_3VecB1G_E14extend_trustedINtNtNtBT_8adapters3map3MapINtNtNtB4_3ops5range5RangejENCNvNtCs8XcImbZQYrD_13futures_macro13stream_select13stream_selects0_0EE0E0EB4j_, symObjAddr: 0x12D8, symBinAddr: 0xEE34, symSize: 0x24 }
  - { offset: 0x2D369, size: 0x8, addend: 0x0, symName: __RINvNtCsfvfooZQ3Axs_4core3ptr13drop_in_placeNCINvNvNtNtNtNtB4_4iter6traits8iterator8Iterator8for_each4callNtCs3cP53eQoTwO_11proc_macro25IdentNCINvMsi_NtCse1nGBsou5OW_5alloc3vecINtB2o_3VecB1G_E14extend_trustedINtNtNtBT_8adapters3map3MapINtNtNtB4_3ops5range5RangejENCNvNtCs8XcImbZQYrD_13futures_macro13stream_select13stream_selects_0EE0E0EB4j_, symObjAddr: 0x12FC, symBinAddr: 0xEE58, symSize: 0x24 }
  - { offset: 0x2D398, size: 0x8, addend: 0x0, symName: __RINvNtCsfvfooZQ3Axs_4core3ptr13drop_in_placeNCINvNvNtNtNtNtB4_4iter6traits8iterator8Iterator8for_each4callNtCs3cP53eQoTwO_11proc_macro25IdentNCINvMsi_NtCse1nGBsou5OW_5alloc3vecINtB2o_3VecB1G_E14extend_trustedINtNtNtBT_8adapters3map3MapINtNtNtB4_3ops5range5RangejENCNvNtCs8XcImbZQYrD_13futures_macro6select19declare_result_enum0EE0E0EB4j_, symObjAddr: 0x1320, symBinAddr: 0xEE7C, symSize: 0x24 }
  - { offset: 0x2D3C7, size: 0x8, addend: 0x0, symName: __RINvNtCsfvfooZQ3Axs_4core3ptr13drop_in_placeNCINvNvNtNtNtNtB4_4iter6traits8iterator8Iterator8for_each4callNtNtCs6IAuOt8vWmF_3syn4expr5IndexNCINvMsi_NtCse1nGBsou5OW_5alloc3vecINtB2m_3VecB1G_E14extend_trustedINtNtNtBT_8adapters3map3MapINtNtNtB4_3ops5range5RangejENvYB1G_INtNtB4_7convert4FromjE4fromEE0E0ECs8XcImbZQYrD_13futures_macro, symObjAddr: 0x1344, symBinAddr: 0xEEA0, symSize: 0x24 }
  - { offset: 0x2D3F6, size: 0x8, addend: 0x0, symName: __RINvNtCsfvfooZQ3Axs_4core3ptr13drop_in_placeNCNCINvNtNtCs9i5KxIbZ5ph_10proc_macro6bridge6client10run_clientNtBN_11TokenStreamINtNtB4_6option6OptionB1H_ENCNCINvMs7_BN_INtBN_6ClientNtBR_11TokenStreamB2R_E7expand1NvCs8XcImbZQYrD_13futures_macro13join_internalE00E00EB3o_, symObjAddr: 0x1368, symBinAddr: 0xEEC4, symSize: 0x24 }
  - { offset: 0x2D425, size: 0x8, addend: 0x0, symName: __RINvNtCsfvfooZQ3Axs_4core3ptr13drop_in_placeNCNCINvNtNtCs9i5KxIbZ5ph_10proc_macro6bridge6client10run_clientNtBN_11TokenStreamINtNtB4_6option6OptionB1H_ENCNCINvMs7_BN_INtBN_6ClientNtBR_11TokenStreamB2R_E7expand1NvCs8XcImbZQYrD_13futures_macro15select_internalE00E00EB3o_, symObjAddr: 0x138C, symBinAddr: 0xEEE8, symSize: 0x24 }
  - { offset: 0x2D454, size: 0x8, addend: 0x0, symName: __RINvNtCsfvfooZQ3Axs_4core3ptr13drop_in_placeNCNCINvNtNtCs9i5KxIbZ5ph_10proc_macro6bridge6client10run_clientNtBN_11TokenStreamINtNtB4_6option6OptionB1H_ENCNCINvMs7_BN_INtBN_6ClientNtBR_11TokenStreamB2R_E7expand1NvCs8XcImbZQYrD_13futures_macro17try_join_internalE00E00EB3o_, symObjAddr: 0x13B0, symBinAddr: 0xEF0C, symSize: 0x24 }
  - { offset: 0x2D483, size: 0x8, addend: 0x0, symName: __RINvNtCsfvfooZQ3Axs_4core3ptr13drop_in_placeNCNCINvNtNtCs9i5KxIbZ5ph_10proc_macro6bridge6client10run_clientNtBN_11TokenStreamINtNtB4_6option6OptionB1H_ENCNCINvMs7_BN_INtBN_6ClientNtBR_11TokenStreamB2R_E7expand1NvCs8XcImbZQYrD_13futures_macro22select_biased_internalE00E00EB3o_, symObjAddr: 0x13D4, symBinAddr: 0xEF30, symSize: 0x24 }
  - { offset: 0x2D4B2, size: 0x8, addend: 0x0, symName: __RINvNtCsfvfooZQ3Axs_4core3ptr13drop_in_placeNCNCINvNtNtCs9i5KxIbZ5ph_10proc_macro6bridge6client10run_clientNtBN_11TokenStreamINtNtB4_6option6OptionB1H_ENCNCINvMs7_BN_INtBN_6ClientNtBR_11TokenStreamB2R_E7expand1NvCs8XcImbZQYrD_13futures_macro22stream_select_internalE00E00EB3o_, symObjAddr: 0x13F8, symBinAddr: 0xEF54, symSize: 0x24 }
  - { offset: 0x2D4E1, size: 0x8, addend: 0x0, symName: __RINvNtCsfvfooZQ3Axs_4core3ptr13drop_in_placeNCNCINvNtNtCs9i5KxIbZ5ph_10proc_macro6bridge6client10run_clientTNtBN_11TokenStreamB1I_EINtNtB4_6option6OptionB1I_ENCNCINvMs8_BN_INtBN_6ClientTNtBR_11TokenStreamB2Y_EB2Y_E7expand2NvCs8XcImbZQYrD_13futures_macro13test_internalE00E00EB3A_, symObjAddr: 0x141C, symBinAddr: 0xEF78, symSize: 0x24 }
  - { offset: 0x2D510, size: 0x8, addend: 0x0, symName: __RINvNtCsfvfooZQ3Axs_4core3ptr13drop_in_placeNtNtCs8XcImbZQYrD_13futures_macro4join4JoinEBK_, symObjAddr: 0x1440, symBinAddr: 0xEF9C, symSize: 0x24 }
  - { offset: 0x2D53F, size: 0x8, addend: 0x0, symName: __RINvNtCsfvfooZQ3Axs_4core3ptr13drop_in_placeNtNtCs8XcImbZQYrD_13futures_macro6select6SelectEBK_, symObjAddr: 0x1464, symBinAddr: 0xEFC0, symSize: 0xC0 }
  - { offset: 0x2D56E, size: 0x8, addend: 0x0, symName: __RINvNtCsfvfooZQ3Axs_4core3ptr13drop_in_placeNtNtCs8XcImbZQYrD_13futures_macro6select8CaseKindEBK_, symObjAddr: 0x1524, symBinAddr: 0xF080, symSize: 0x8C }
  - { offset: 0x2D59D, size: 0x8, addend: 0x0, symName: __RINvNtCsfvfooZQ3Axs_4core3ptr13drop_in_placeNtNtNtCs9i5KxIbZ5ph_10proc_macro6bridge3rpc12PanicMessageECs8XcImbZQYrD_13futures_macro, symObjAddr: 0x15B0, symBinAddr: 0xF10C, symSize: 0x50 }
  - { offset: 0x2D5CC, size: 0x8, addend: 0x0, symName: __RINvNtCsfvfooZQ3Axs_4core3ptr13drop_in_placeNtNtNtCs9i5KxIbZ5ph_10proc_macro6bridge6buffer6BufferECs8XcImbZQYrD_13futures_macro, symObjAddr: 0x1600, symBinAddr: 0xF15C, symSize: 0x24 }
  - { offset: 0x2D5FB, size: 0x8, addend: 0x0, symName: __RINvNtCsfvfooZQ3Axs_4core3ptr13drop_in_placeNtNtNtCs9i5KxIbZ5ph_10proc_macro6bridge6client6BridgeECs8XcImbZQYrD_13futures_macro, symObjAddr: 0x1624, symBinAddr: 0xF180, symSize: 0x24 }
  - { offset: 0x2D62A, size: 0x8, addend: 0x0, symName: __RINvNtCsfvfooZQ3Axs_4core3ptr13drop_in_placeNtNtNtCscOYdFFY2T5N_3std2io5error5ErrorECs8XcImbZQYrD_13futures_macro, symObjAddr: 0x1648, symBinAddr: 0xF1A4, symSize: 0x24 }
  - { offset: 0x2D659, size: 0x8, addend: 0x0, symName: __RINvNtCsfvfooZQ3Axs_4core3ptr13drop_in_placeNtNtNtCscOYdFFY2T5N_3std2io5error6CustomECs8XcImbZQYrD_13futures_macro, symObjAddr: 0x166C, symBinAddr: 0xF1C8, symSize: 0x24 }
  - { offset: 0x2D688, size: 0x8, addend: 0x0, symName: __RINvNtCsfvfooZQ3Axs_4core3ptr13drop_in_placeNtNtNtNtCscOYdFFY2T5N_3std2io5error14repr_bitpacked4ReprECs8XcImbZQYrD_13futures_macro, symObjAddr: 0x1690, symBinAddr: 0xF1EC, symSize: 0x24 }
  - { offset: 0x2D6B7, size: 0x8, addend: 0x0, symName: __RINvNtCsfvfooZQ3Axs_4core3ptr13drop_in_placeNtNvNtNtNtCs9i5KxIbZ5ph_10proc_macro6bridge6client5state3set13RestoreOnDropECs8XcImbZQYrD_13futures_macro, symObjAddr: 0x16B4, symBinAddr: 0xF210, symSize: 0x24 }
  - { offset: 0x2D6E6, size: 0x8, addend: 0x0, symName: __RINvNtCsfvfooZQ3Axs_4core3ptr13drop_in_placeSNtCs3cP53eQoTwO_11proc_macro211TokenStreamECs8XcImbZQYrD_13futures_macro, symObjAddr: 0x16D8, symBinAddr: 0xF234, symSize: 0xB4 }
  - { offset: 0x2D715, size: 0x8, addend: 0x0, symName: __RINvNtCsfvfooZQ3Axs_4core3ptr13drop_in_placeSNtCs3cP53eQoTwO_11proc_macro25IdentECs8XcImbZQYrD_13futures_macro, symObjAddr: 0x178C, symBinAddr: 0xF2E8, symSize: 0xC4 }
  - { offset: 0x2D744, size: 0x8, addend: 0x0, symName: __RINvNtCsfvfooZQ3Axs_4core3ptr13drop_in_placeSNtNtCs6IAuOt8vWmF_3syn4expr4ExprECs8XcImbZQYrD_13futures_macro, symObjAddr: 0x1850, symBinAddr: 0xF3AC, symSize: 0xC4 }
  - { offset: 0x2D773, size: 0x8, addend: 0x0, symName: __RINvNtCsfvfooZQ3Axs_4core3ptr13drop_in_placeSNtNtCs6IAuOt8vWmF_3syn4expr8ExprPathECs8XcImbZQYrD_13futures_macro, symObjAddr: 0x1914, symBinAddr: 0xF470, symSize: 0xC4 }
  - { offset: 0x2D7A2, size: 0x8, addend: 0x0, symName: __RINvNtCsfvfooZQ3Axs_4core3ptr13drop_in_placeSTNtNtCs6IAuOt8vWmF_3syn3pat3PatNtNtBM_4expr4ExprEECs8XcImbZQYrD_13futures_macro, symObjAddr: 0x19D8, symBinAddr: 0xF534, symSize: 0xC4 }
  - { offset: 0x2D7D1, size: 0x8, addend: 0x0, symName: __RINvNtCsfvfooZQ3Axs_4core3ptr13drop_in_placeTNtNtCs6IAuOt8vWmF_3syn3pat3PatNtNtBL_4expr4ExprEECs8XcImbZQYrD_13futures_macro, symObjAddr: 0x1A9C, symBinAddr: 0xF5F8, symSize: 0x60 }
  - { offset: 0x2D800, size: 0x8, addend: 0x0, symName: __RINvNtCsfvfooZQ3Axs_4core3ptr13drop_in_placeTNtNtCs6IAuOt8vWmF_3syn4expr4ExprRNtCs3cP53eQoTwO_11proc_macro25IdentEECs8XcImbZQYrD_13futures_macro, symObjAddr: 0x1AFC, symBinAddr: 0xF658, symSize: 0x24 }
  - { offset: 0x2D82F, size: 0x8, addend: 0x0, symName: __RINvNtCsfvfooZQ3Axs_4core3ptr13drop_in_placeTNtNtNtCs9i5KxIbZ5ph_10proc_macro6bridge6client11TokenStreamBH_EECs8XcImbZQYrD_13futures_macro, symObjAddr: 0x1B20, symBinAddr: 0xF67C, symSize: 0x60 }
  - { offset: 0x2D973, size: 0x8, addend: 0x0, symName: __RNvNvNtCsfvfooZQ3Axs_4core3ptr13read_volatile18precondition_checkCs8XcImbZQYrD_13futures_macro, symObjAddr: 0x3B44, symBinAddr: 0x1169C, symSize: 0x100 }
  - { offset: 0x3018C, size: 0x8, addend: 0x0, symName: __RNvXsO_NtCsfvfooZQ3Axs_4core6optionINtB5_8IntoIterRNtNtCs6IAuOt8vWmF_3syn4expr4ExprENtNtB7_5clone5Clone5cloneCs8XcImbZQYrD_13futures_macro, symObjAddr: 0x4670, symBinAddr: 0x121C8, symSize: 0x68 }
  - { offset: 0x3027B, size: 0x8, addend: 0x0, symName: __RNvXsv_NtCsfvfooZQ3Axs_4core6optionINtB5_8IntoIterRNtNtCs6IAuOt8vWmF_3syn4expr4ExprENtNtNtNtB7_4iter6traits8iterator8Iterator9size_hintCs8XcImbZQYrD_13futures_macro, symObjAddr: 0x5514, symBinAddr: 0x1305C, symSize: 0x44 }
  - { offset: 0x3069D, size: 0x8, addend: 0x0, symName: __RNvMNtCsfvfooZQ3Axs_4core5sliceSNtNtCs6IAuOt8vWmF_3syn4expr5Index4iterCs8XcImbZQYrD_13futures_macro, symObjAddr: 0x2834, symBinAddr: 0x10390, symSize: 0x28 }
  - { offset: 0x306D4, size: 0x8, addend: 0x0, symName: __RNvMNtCsfvfooZQ3Axs_4core5sliceSNtNtCs6IAuOt8vWmF_3syn4expr8ExprPath4iterCs8XcImbZQYrD_13futures_macro, symObjAddr: 0x285C, symBinAddr: 0x103B8, symSize: 0x28 }
  - { offset: 0x3073D, size: 0x8, addend: 0x0, symName: __RNvNvNtNtCsfvfooZQ3Axs_4core5slice3raw14from_raw_parts18precondition_checkCs8XcImbZQYrD_13futures_macro, symObjAddr: 0x3C98, symBinAddr: 0x117F0, symSize: 0x168 }
  - { offset: 0x30883, size: 0x8, addend: 0x0, symName: __RNvNvNtNtCsfvfooZQ3Axs_4core5slice3raw18from_raw_parts_mut18precondition_checkCs8XcImbZQYrD_13futures_macro, symObjAddr: 0x3E00, symBinAddr: 0x11958, symSize: 0x168 }
  - { offset: 0x30E2C, size: 0x8, addend: 0x0, symName: __RNvXsp_NtCsfvfooZQ3Axs_4core6resultINtB5_6ResultNtNtCs8XcImbZQYrD_13futures_macro4join4JoinNtNtCs6IAuOt8vWmF_3syn5error5ErrorEINtNtNtB7_3ops9try_trait12FromResidualIBy_NtNtB7_7convert10InfallibleB1r_EE13from_residualBO_, symObjAddr: 0x53FC, symBinAddr: 0x12F44, symSize: 0x48 }
  - { offset: 0x30EB1, size: 0x8, addend: 0x0, symName: __RNvXsp_NtCsfvfooZQ3Axs_4core6resultINtB5_6ResultNtNtCs8XcImbZQYrD_13futures_macro6select6SelectNtNtCs6IAuOt8vWmF_3syn5error5ErrorEINtNtNtB7_3ops9try_trait12FromResidualIBy_NtNtB7_7convert10InfallibleB1v_EE13from_residualBO_, symObjAddr: 0x5444, symBinAddr: 0x12F8C, symSize: 0x48 }
  - { offset: 0x30F36, size: 0x8, addend: 0x0, symName: __RNvXsp_NtCsfvfooZQ3Axs_4core6resultINtB5_6ResultNtNtNtCs8XcImbZQYrD_13futures_macro6select2kw8completeNtNtCs6IAuOt8vWmF_3syn5error5ErrorEINtNtNtB7_3ops9try_trait12FromResidualIBy_NtNtB7_7convert10InfallibleB1C_EE13from_residualBQ_, symObjAddr: 0x548C, symBinAddr: 0x12FD4, symSize: 0x40 }
  - { offset: 0x31102, size: 0x8, addend: 0x0, symName: __RNvXso_NtCsfvfooZQ3Axs_4core6resultINtB5_6ResultINtNtNtCse1nGBsou5OW_5alloc3vec13in_place_drop11InPlaceDropNtCs3cP53eQoTwO_11proc_macro25IdentEzENtNtNtB7_3ops9try_trait3Try11from_outputCs8XcImbZQYrD_13futures_macro, symObjAddr: 0x4F40, symBinAddr: 0x12A98, symSize: 0x2C }
  - { offset: 0x31142, size: 0x8, addend: 0x0, symName: __RNvXso_NtCsfvfooZQ3Axs_4core6resultINtB5_6ResultINtNtNtCse1nGBsou5OW_5alloc3vec13in_place_drop11InPlaceDropNtCs3cP53eQoTwO_11proc_macro25IdentEzENtNtNtB7_3ops9try_trait3Try6branchCs8XcImbZQYrD_13futures_macro, symObjAddr: 0x4F6C, symBinAddr: 0x12AC4, symSize: 0x3C }
  - { offset: 0x311A0, size: 0x8, addend: 0x0, symName: __RNvXso_NtCsfvfooZQ3Axs_4core6resultINtB5_6ResultINtNtNtCse1nGBsou5OW_5alloc3vec13in_place_drop11InPlaceDropNtNtCs6IAuOt8vWmF_3syn4expr8ExprPathEzENtNtNtB7_3ops9try_trait3Try11from_outputCs8XcImbZQYrD_13futures_macro, symObjAddr: 0x4FA8, symBinAddr: 0x12B00, symSize: 0x2C }
  - { offset: 0x311E0, size: 0x8, addend: 0x0, symName: __RNvXso_NtCsfvfooZQ3Axs_4core6resultINtB5_6ResultINtNtNtCse1nGBsou5OW_5alloc3vec13in_place_drop11InPlaceDropNtNtCs6IAuOt8vWmF_3syn4expr8ExprPathEzENtNtNtB7_3ops9try_trait3Try6branchCs8XcImbZQYrD_13futures_macro, symObjAddr: 0x4FD4, symBinAddr: 0x12B2C, symSize: 0x3C }
  - { offset: 0x3123E, size: 0x8, addend: 0x0, symName: __RNvXso_NtCsfvfooZQ3Axs_4core6resultINtB5_6ResultNtNtCs6IAuOt8vWmF_3syn4item6ItemFnNtNtBO_5error5ErrorENtNtNtB7_3ops9try_trait3Try6branchCs8XcImbZQYrD_13futures_macro, symObjAddr: 0x5010, symBinAddr: 0x12B68, symSize: 0xB4 }
  - { offset: 0x312BC, size: 0x8, addend: 0x0, symName: __RNvXso_NtCsfvfooZQ3Axs_4core6resultINtB5_6ResultNtNtCs6IAuOt8vWmF_3syn4item8ItemEnumNtNtBO_5error5ErrorENtNtNtB7_3ops9try_trait3Try6branchCs8XcImbZQYrD_13futures_macro, symObjAddr: 0x50C4, symBinAddr: 0x12C1C, symSize: 0xC4 }
  - { offset: 0x3133A, size: 0x8, addend: 0x0, symName: __RNvXso_NtCsfvfooZQ3Axs_4core6resultINtB5_6ResultNtNtCs8XcImbZQYrD_13futures_macro4join4JoinNtNtCs6IAuOt8vWmF_3syn5error5ErrorENtNtNtB7_3ops9try_trait3Try6branchBO_, symObjAddr: 0x5188, symBinAddr: 0x12CE0, symSize: 0x94 }
  - { offset: 0x313B7, size: 0x8, addend: 0x0, symName: __RNvXso_NtCsfvfooZQ3Axs_4core6resultINtB5_6ResultNtNtCs8XcImbZQYrD_13futures_macro6select6SelectNtNtCs6IAuOt8vWmF_3syn5error5ErrorENtNtNtB7_3ops9try_trait3Try6branchBO_, symObjAddr: 0x521C, symBinAddr: 0x12D74, symSize: 0xB4 }
  - { offset: 0x31435, size: 0x8, addend: 0x0, symName: __RNvXso_NtCsfvfooZQ3Axs_4core6resultINtB5_6ResultNtNtNtCs8XcImbZQYrD_13futures_macro6select2kw8completeNtNtCs6IAuOt8vWmF_3syn5error5ErrorENtNtNtB7_3ops9try_trait3Try6branchBQ_, symObjAddr: 0x52D0, symBinAddr: 0x12E28, symSize: 0x88 }
  - { offset: 0x314B3, size: 0x8, addend: 0x0, symName: __RNvXso_NtCsfvfooZQ3Axs_4core6resultINtB5_6ResultTNtNtNtCs8XcImbZQYrD_13futures_macro6select2kw8completeNtNtCs6IAuOt8vWmF_3syn6buffer6CursorENtNtB1H_5error5ErrorENtNtNtB7_3ops9try_trait3Try6branchBR_, symObjAddr: 0x5358, symBinAddr: 0x12EB0, symSize: 0x94 }
  - { offset: 0x31E58, size: 0x8, addend: 0x0, symName: __RNvXsn_NtNtCsfvfooZQ3Axs_4core5panic11unwind_safeINtB5_16AssertUnwindSafeNCINvNtNtCs9i5KxIbZ5ph_10proc_macro6bridge6client10run_clientNtB1e_11TokenStreamINtNtB9_6option6OptionB28_ENCNCINvMs7_B1e_INtB1e_6ClientNtB1i_11TokenStreamB3l_E7expand1NvCs8XcImbZQYrD_13futures_macro13join_internalE00E0EINtNtNtB9_3ops8function6FnOnceuE9call_onceB3T_, symObjAddr: 0x4DF0, symBinAddr: 0x12948, symSize: 0x38 }
  - { offset: 0x31EB0, size: 0x8, addend: 0x0, symName: __RNvXsn_NtNtCsfvfooZQ3Axs_4core5panic11unwind_safeINtB5_16AssertUnwindSafeNCINvNtNtCs9i5KxIbZ5ph_10proc_macro6bridge6client10run_clientNtB1e_11TokenStreamINtNtB9_6option6OptionB28_ENCNCINvMs7_B1e_INtB1e_6ClientNtB1i_11TokenStreamB3l_E7expand1NvCs8XcImbZQYrD_13futures_macro15select_internalE00E0EINtNtNtB9_3ops8function6FnOnceuE9call_onceB3T_, symObjAddr: 0x4E28, symBinAddr: 0x12980, symSize: 0x38 }
  - { offset: 0x31F08, size: 0x8, addend: 0x0, symName: __RNvXsn_NtNtCsfvfooZQ3Axs_4core5panic11unwind_safeINtB5_16AssertUnwindSafeNCINvNtNtCs9i5KxIbZ5ph_10proc_macro6bridge6client10run_clientNtB1e_11TokenStreamINtNtB9_6option6OptionB28_ENCNCINvMs7_B1e_INtB1e_6ClientNtB1i_11TokenStreamB3l_E7expand1NvCs8XcImbZQYrD_13futures_macro17try_join_internalE00E0EINtNtNtB9_3ops8function6FnOnceuE9call_onceB3T_, symObjAddr: 0x4E60, symBinAddr: 0x129B8, symSize: 0x38 }
  - { offset: 0x31F60, size: 0x8, addend: 0x0, symName: __RNvXsn_NtNtCsfvfooZQ3Axs_4core5panic11unwind_safeINtB5_16AssertUnwindSafeNCINvNtNtCs9i5KxIbZ5ph_10proc_macro6bridge6client10run_clientNtB1e_11TokenStreamINtNtB9_6option6OptionB28_ENCNCINvMs7_B1e_INtB1e_6ClientNtB1i_11TokenStreamB3l_E7expand1NvCs8XcImbZQYrD_13futures_macro22select_biased_internalE00E0EINtNtNtB9_3ops8function6FnOnceuE9call_onceB3T_, symObjAddr: 0x4E98, symBinAddr: 0x129F0, symSize: 0x38 }
  - { offset: 0x31FB8, size: 0x8, addend: 0x0, symName: __RNvXsn_NtNtCsfvfooZQ3Axs_4core5panic11unwind_safeINtB5_16AssertUnwindSafeNCINvNtNtCs9i5KxIbZ5ph_10proc_macro6bridge6client10run_clientNtB1e_11TokenStreamINtNtB9_6option6OptionB28_ENCNCINvMs7_B1e_INtB1e_6ClientNtB1i_11TokenStreamB3l_E7expand1NvCs8XcImbZQYrD_13futures_macro22stream_select_internalE00E0EINtNtNtB9_3ops8function6FnOnceuE9call_onceB3T_, symObjAddr: 0x4ED0, symBinAddr: 0x12A28, symSize: 0x38 }
  - { offset: 0x32010, size: 0x8, addend: 0x0, symName: __RNvXsn_NtNtCsfvfooZQ3Axs_4core5panic11unwind_safeINtB5_16AssertUnwindSafeNCINvNtNtCs9i5KxIbZ5ph_10proc_macro6bridge6client10run_clientTNtB1e_11TokenStreamB29_EINtNtB9_6option6OptionB29_ENCNCINvMs8_B1e_INtB1e_6ClientTNtB1i_11TokenStreamB3s_EB3s_E7expand2NvCs8XcImbZQYrD_13futures_macro13test_internalE00E0EINtNtNtB9_3ops8function6FnOnceuE9call_onceB45_, symObjAddr: 0x4F08, symBinAddr: 0x12A60, symSize: 0x38 }
  - { offset: 0x32696, size: 0x8, addend: 0x0, symName: __RNvYNCNkNvNtNtNtCs9i5KxIbZ5ph_10proc_macro6bridge6client5state12BRIDGE_STATE0s_0INtNtNtCsfvfooZQ3Axs_4core3ops8function6FnOnceTINtNtB1n_6option6OptionQIB22_INtNtB1n_4cell4CellPuEEEEE9call_onceCs8XcImbZQYrD_13futures_macro, symObjAddr: 0x5B7C, symBinAddr: 0x136C4, symSize: 0x4C }
  - { offset: 0x326DA, size: 0x8, addend: 0x0, symName: __RNvYNvMNtCs6IAuOt8vWmF_3syn10punctuatedINtB5_10PunctuatedNtNtB7_4expr4ExprNtNtB7_5token5CommaE16parse_terminatedINtNtNtCsfvfooZQ3Axs_4core3ops8function6FnOnceTRNtNtB7_5parse11ParseBufferEE9call_onceCs8XcImbZQYrD_13futures_macro, symObjAddr: 0x5DA0, symBinAddr: 0x138E8, symSize: 0x24 }
  - { offset: 0x3271E, size: 0x8, addend: 0x0, symName: __RNvYNvMNtCs6IAuOt8vWmF_3syn5errorNtB5_5Error18into_compile_errorINtNtNtCsfvfooZQ3Axs_4core3ops8function6FnOnceTBv_EE9call_onceCs8XcImbZQYrD_13futures_macro, symObjAddr: 0x5DC4, symBinAddr: 0x1390C, symSize: 0x34 }
  - { offset: 0x32762, size: 0x8, addend: 0x0, symName: __RNvYNvMse_Cs3cP53eQoTwO_11proc_macro2NtB8_4Span9call_siteINtNtNtCsfvfooZQ3Axs_4core3ops8function6FnOnceuE9call_onceCs8XcImbZQYrD_13futures_macro, symObjAddr: 0x5DF8, symBinAddr: 0x13940, symSize: 0x1C }
  - { offset: 0x327A6, size: 0x8, addend: 0x0, symName: __RNvYNvYNtNtCs6IAuOt8vWmF_3syn4expr4ExprNtNtB9_5parse5Parse5parseINtNtNtCsfvfooZQ3Axs_4core3ops8function6FnOnceTRNtBD_11ParseBufferEE9call_onceCs8XcImbZQYrD_13futures_macro, symObjAddr: 0x5E14, symBinAddr: 0x1395C, symSize: 0x24 }
  - { offset: 0x327EA, size: 0x8, addend: 0x0, symName: __RNvYNvYNtNtCs6IAuOt8vWmF_3syn4expr8ExprPathNtNtB9_11parse_quote10ParseQuote5parseINtNtNtCsfvfooZQ3Axs_4core3ops8function6FnOnceTRNtNtB9_5parse11ParseBufferEE9call_onceCs8XcImbZQYrD_13futures_macro, symObjAddr: 0x5E60, symBinAddr: 0x139A8, symSize: 0x24 }
  - { offset: 0x3282E, size: 0x8, addend: 0x0, symName: __RNvYNvYNtNtCs6IAuOt8vWmF_3syn4item6ItemFnNtNtB9_5parse5Parse5parseINtNtNtCsfvfooZQ3Axs_4core3ops8function6FnOnceTRNtBF_11ParseBufferEE9call_onceCs8XcImbZQYrD_13futures_macro, symObjAddr: 0x5E84, symBinAddr: 0x139CC, symSize: 0x24 }
  - { offset: 0x32872, size: 0x8, addend: 0x0, symName: __RNvYNvYNtNtCs6IAuOt8vWmF_3syn4item8ItemEnumNtNtB9_11parse_quote10ParseQuote5parseINtNtNtCsfvfooZQ3Axs_4core3ops8function6FnOnceTRNtNtB9_5parse11ParseBufferEE9call_onceCs8XcImbZQYrD_13futures_macro, symObjAddr: 0x5EA8, symBinAddr: 0x139F0, symSize: 0x24 }
  - { offset: 0x328B6, size: 0x8, addend: 0x0, symName: __RNvYNvYNtNtCs8XcImbZQYrD_13futures_macro4join4JoinNtNtCs6IAuOt8vWmF_3syn5parse5Parse5parseINtNtNtCsfvfooZQ3Axs_4core3ops8function6FnOnceTRNtBO_11ParseBufferEE9call_onceB9_, symObjAddr: 0x5ECC, symBinAddr: 0x13A14, symSize: 0x24 }
  - { offset: 0x328FA, size: 0x8, addend: 0x0, symName: __RNvYNvYNtNtCs8XcImbZQYrD_13futures_macro6select6SelectNtNtCs6IAuOt8vWmF_3syn5parse5Parse5parseINtNtNtCsfvfooZQ3Axs_4core3ops8function6FnOnceTRNtBS_11ParseBufferEE9call_onceB9_, symObjAddr: 0x5EF0, symBinAddr: 0x13A38, symSize: 0x24 }
  - { offset: 0x3293E, size: 0x8, addend: 0x0, symName: __RNvYNvYNtNtNtCs9i5KxIbZ5ph_10proc_macro6bridge3rpc12PanicMessageINtNtCsfvfooZQ3Axs_4core7convert4FromINtNtCse1nGBsou5OW_5alloc5boxed3BoxDNtNtB15_3any3AnyNtNtB15_6marker4SendEL_EE4fromINtNtNtB15_3ops8function6FnOnceTB1B_EE9call_onceCs8XcImbZQYrD_13futures_macro, symObjAddr: 0x5F14, symBinAddr: 0x13A5C, symSize: 0x2C }
  - { offset: 0x32982, size: 0x8, addend: 0x0, symName: __RNvYNvYRNtNtCs6IAuOt8vWmF_3syn4stmt4StmtNtNtCs2cqEZUIJimJ_5quote9to_tokens8ToTokens17into_token_streamINtNtNtCsfvfooZQ3Axs_4core3ops8function6FnOnceTB5_EE9call_onceCs8XcImbZQYrD_13futures_macro, symObjAddr: 0x5F40, symBinAddr: 0x13A88, symSize: 0x24 }
  - { offset: 0x329CC, size: 0x8, addend: 0x0, symName: __RNvYNvCs8XcImbZQYrD_13futures_macro13join_internalINtNtNtCsfvfooZQ3Axs_4core3ops8function2FnTNtCs9i5KxIbZ5ph_10proc_macro11TokenStreamEE4callB4_, symObjAddr: 0x5CA8, symBinAddr: 0x137F0, symSize: 0x28 }
  - { offset: 0x32A10, size: 0x8, addend: 0x0, symName: __RNvYNvCs8XcImbZQYrD_13futures_macro13test_internalINtNtNtCsfvfooZQ3Axs_4core3ops8function2FnTNtCs9i5KxIbZ5ph_10proc_macro11TokenStreamB1t_EE4callB4_, symObjAddr: 0x5CD0, symBinAddr: 0x13818, symSize: 0x30 }
  - { offset: 0x32A54, size: 0x8, addend: 0x0, symName: __RNvYNvCs8XcImbZQYrD_13futures_macro15select_internalINtNtNtCsfvfooZQ3Axs_4core3ops8function2FnTNtCs9i5KxIbZ5ph_10proc_macro11TokenStreamEE4callB4_, symObjAddr: 0x5D00, symBinAddr: 0x13848, symSize: 0x28 }
  - { offset: 0x32A98, size: 0x8, addend: 0x0, symName: __RNvYNvCs8XcImbZQYrD_13futures_macro17try_join_internalINtNtNtCsfvfooZQ3Axs_4core3ops8function2FnTNtCs9i5KxIbZ5ph_10proc_macro11TokenStreamEE4callB4_, symObjAddr: 0x5D28, symBinAddr: 0x13870, symSize: 0x28 }
  - { offset: 0x32ADC, size: 0x8, addend: 0x0, symName: __RNvYNvCs8XcImbZQYrD_13futures_macro22select_biased_internalINtNtNtCsfvfooZQ3Axs_4core3ops8function2FnTNtCs9i5KxIbZ5ph_10proc_macro11TokenStreamEE4callB4_, symObjAddr: 0x5D50, symBinAddr: 0x13898, symSize: 0x28 }
  - { offset: 0x32B20, size: 0x8, addend: 0x0, symName: __RNvYNvCs8XcImbZQYrD_13futures_macro22stream_select_internalINtNtNtCsfvfooZQ3Axs_4core3ops8function2FnTNtCs9i5KxIbZ5ph_10proc_macro11TokenStreamEE4callB4_, symObjAddr: 0x5D78, symBinAddr: 0x138C0, symSize: 0x28 }
  - { offset: 0x32B6A, size: 0x8, addend: 0x0, symName: __RNvYNvYNtNtCs6IAuOt8vWmF_3syn4expr5IndexINtNtCsfvfooZQ3Axs_4core7convert4FromjE4fromINtNtNtBH_3ops8function5FnMutTjEE8call_mutCs8XcImbZQYrD_13futures_macro, symObjAddr: 0x5E38, symBinAddr: 0x13980, symSize: 0x28 }
  - { offset: 0x32C6E, size: 0x8, addend: 0x0, symName: __RNvNvNtCsfvfooZQ3Axs_4core10intrinsics19copy_nonoverlapping18precondition_checkCs8XcImbZQYrD_13futures_macro, symObjAddr: 0x3860, symBinAddr: 0x113B8, symSize: 0x2E4 }
  - { offset: 0x331AD, size: 0x8, addend: 0x0, symName: __RNvNvNtCsfvfooZQ3Axs_4core4hint16assert_unchecked18precondition_checkCs8XcImbZQYrD_13futures_macro, symObjAddr: 0x3C44, symBinAddr: 0x1179C, symSize: 0x38 }
  - { offset: 0x331DB, size: 0x8, addend: 0x0, symName: __RNvNvNtCsfvfooZQ3Axs_4core4hint21unreachable_unchecked18precondition_checkCs8XcImbZQYrD_13futures_macro, symObjAddr: 0x3C7C, symBinAddr: 0x117D4, symSize: 0x1C }
  - { offset: 0x3320A, size: 0x8, addend: 0x0, symName: __RINvYINtNtCs6IAuOt8vWmF_3syn10punctuated4IterNtNtB8_4expr4ExprENtNtNtNtCsfvfooZQ3Axs_4core4iter6traits8iterator8Iterator3mapNtCs3cP53eQoTwO_11proc_macro211TokenStreamNCNvNtCs8XcImbZQYrD_13futures_macro13stream_select13stream_selects1_0EB2K_, symObjAddr: 0x1FD8, symBinAddr: 0xFB34, symSize: 0x1C }
  - { offset: 0x33262, size: 0x8, addend: 0x0, symName: __RINvYINtNtNtCsfvfooZQ3Axs_4core3ops5range5RangejENtNtNtNtBa_4iter6traits8iterator8Iterator3mapNtCs3cP53eQoTwO_11proc_macro25IdentNCNvNtCs8XcImbZQYrD_13futures_macro13stream_select13stream_select0EB29_, symObjAddr: 0x1FF4, symBinAddr: 0xFB50, symSize: 0x14 }
  - { offset: 0x332BA, size: 0x8, addend: 0x0, symName: __RINvYINtNtNtCsfvfooZQ3Axs_4core3ops5range5RangejENtNtNtNtBa_4iter6traits8iterator8Iterator3mapNtCs3cP53eQoTwO_11proc_macro25IdentNCNvNtCs8XcImbZQYrD_13futures_macro13stream_select13stream_selects0_0EB29_, symObjAddr: 0x2008, symBinAddr: 0xFB64, symSize: 0x14 }
  - { offset: 0x33312, size: 0x8, addend: 0x0, symName: __RINvYINtNtNtCsfvfooZQ3Axs_4core3ops5range5RangejENtNtNtNtBa_4iter6traits8iterator8Iterator3mapNtCs3cP53eQoTwO_11proc_macro25IdentNCNvNtCs8XcImbZQYrD_13futures_macro13stream_select13stream_selects_0EB29_, symObjAddr: 0x201C, symBinAddr: 0xFB78, symSize: 0x14 }
  - { offset: 0x3336A, size: 0x8, addend: 0x0, symName: __RINvYINtNtNtCsfvfooZQ3Axs_4core3ops5range5RangejENtNtNtNtBa_4iter6traits8iterator8Iterator3mapNtCs3cP53eQoTwO_11proc_macro25IdentNCNvNtCs8XcImbZQYrD_13futures_macro6select19declare_result_enum0EB29_, symObjAddr: 0x2030, symBinAddr: 0xFB8C, symSize: 0x28 }
  - { offset: 0x333D7, size: 0x8, addend: 0x0, symName: __RINvYINtNtNtCsfvfooZQ3Axs_4core3ops5range5RangejENtNtNtNtBa_4iter6traits8iterator8Iterator3mapNtNtCs6IAuOt8vWmF_3syn4expr5IndexNvYB1u_INtNtBa_7convert4FromjE4fromECs8XcImbZQYrD_13futures_macro, symObjAddr: 0x2058, symBinAddr: 0xFBB4, symSize: 0x14 }
  - { offset: 0x3342F, size: 0x8, addend: 0x0, symName: __RINvYINtNtNtCsfvfooZQ3Axs_4core3ops5range5RangejENtNtNtNtBa_4iter6traits8iterator8Iterator4folduNCINvNtNtBR_8adapters3map8map_foldjNtCs3cP53eQoTwO_11proc_macro25IdentuNCNvNtCs8XcImbZQYrD_13futures_macro13stream_select13stream_select0NCINvNvBL_8for_each4callB25_NCINvMsi_NtCse1nGBsou5OW_5alloc3vecINtB4k_3VecB25_E14extend_trustedINtB1B_3MapB3_B2F_EE0E0E0EB2L_, symObjAddr: 0x206C, symBinAddr: 0xFBC8, symSize: 0xE0 }
  - { offset: 0x334BF, size: 0x8, addend: 0x0, symName: __RINvYINtNtNtCsfvfooZQ3Axs_4core3ops5range5RangejENtNtNtNtBa_4iter6traits8iterator8Iterator4folduNCINvNtNtBR_8adapters3map8map_foldjNtCs3cP53eQoTwO_11proc_macro25IdentuNCNvNtCs8XcImbZQYrD_13futures_macro13stream_select13stream_selects0_0NCINvNvBL_8for_each4callB25_NCINvMsi_NtCse1nGBsou5OW_5alloc3vecINtB4n_3VecB25_E14extend_trustedINtB1B_3MapB3_B2F_EE0E0E0EB2L_, symObjAddr: 0x214C, symBinAddr: 0xFCA8, symSize: 0xE0 }
  - { offset: 0x3354F, size: 0x8, addend: 0x0, symName: __RINvYINtNtNtCsfvfooZQ3Axs_4core3ops5range5RangejENtNtNtNtBa_4iter6traits8iterator8Iterator4folduNCINvNtNtBR_8adapters3map8map_foldjNtCs3cP53eQoTwO_11proc_macro25IdentuNCNvNtCs8XcImbZQYrD_13futures_macro13stream_select13stream_selects_0NCINvNvBL_8for_each4callB25_NCINvMsi_NtCse1nGBsou5OW_5alloc3vecINtB4m_3VecB25_E14extend_trustedINtB1B_3MapB3_B2F_EE0E0E0EB2L_, symObjAddr: 0x222C, symBinAddr: 0xFD88, symSize: 0xE0 }
  - { offset: 0x335DF, size: 0x8, addend: 0x0, symName: __RINvYINtNtNtCsfvfooZQ3Axs_4core3ops5range5RangejENtNtNtNtBa_4iter6traits8iterator8Iterator4folduNCINvNtNtBR_8adapters3map8map_foldjNtCs3cP53eQoTwO_11proc_macro25IdentuNCNvNtCs8XcImbZQYrD_13futures_macro6select19declare_result_enum0NCINvNvBL_8for_each4callB25_NCINvMsi_NtCse1nGBsou5OW_5alloc3vecINtB4i_3VecB25_E14extend_trustedINtB1B_3MapB3_B2F_EE0E0E0EB2L_, symObjAddr: 0x230C, symBinAddr: 0xFE68, symSize: 0xE0 }
  - { offset: 0x3366F, size: 0x8, addend: 0x0, symName: __RINvYINtNtNtCsfvfooZQ3Axs_4core3ops5range5RangejENtNtNtNtBa_4iter6traits8iterator8Iterator4folduNCINvNtNtBR_8adapters3map8map_foldjNtNtCs6IAuOt8vWmF_3syn4expr5IndexuNvYB25_INtNtBa_7convert4FromjE4fromNCINvNvBL_8for_each4callB25_NCINvMsi_NtCse1nGBsou5OW_5alloc3vecINtB3N_3VecB25_E14extend_trustedINtB1B_3MapB3_B2D_EE0E0E0ECs8XcImbZQYrD_13futures_macro, symObjAddr: 0x23EC, symBinAddr: 0xFF48, symSize: 0xE0 }
  - { offset: 0x33709, size: 0x8, addend: 0x0, symName: __RNCINvNvNtNtNtNtCsfvfooZQ3Axs_4core4iter6traits8iterator8Iterator8for_each4callNtCs3cP53eQoTwO_11proc_macro25IdentNCINvMsi_NtCse1nGBsou5OW_5alloc3vecINtB1X_3VecB1f_E14extend_trustedINtNtNtBc_8adapters3map3MapINtNtNtBe_3ops5range5RangejENCNvNtCs8XcImbZQYrD_13futures_macro13stream_select13stream_select0EE0E0B3S_, symObjAddr: 0x24CC, symBinAddr: 0x10028, symSize: 0x3C }
  - { offset: 0x33762, size: 0x8, addend: 0x0, symName: __RNCINvNvNtNtNtNtCsfvfooZQ3Axs_4core4iter6traits8iterator8Iterator8for_each4callNtCs3cP53eQoTwO_11proc_macro25IdentNCINvMsi_NtCse1nGBsou5OW_5alloc3vecINtB1X_3VecB1f_E14extend_trustedINtNtNtBc_8adapters3map3MapINtNtNtBe_3ops5range5RangejENCNvNtCs8XcImbZQYrD_13futures_macro13stream_select13stream_selects0_0EE0E0B3S_, symObjAddr: 0x2508, symBinAddr: 0x10064, symSize: 0x3C }
  - { offset: 0x337BB, size: 0x8, addend: 0x0, symName: __RNCINvNvNtNtNtNtCsfvfooZQ3Axs_4core4iter6traits8iterator8Iterator8for_each4callNtCs3cP53eQoTwO_11proc_macro25IdentNCINvMsi_NtCse1nGBsou5OW_5alloc3vecINtB1X_3VecB1f_E14extend_trustedINtNtNtBc_8adapters3map3MapINtNtNtBe_3ops5range5RangejENCNvNtCs8XcImbZQYrD_13futures_macro13stream_select13stream_selects_0EE0E0B3S_, symObjAddr: 0x2544, symBinAddr: 0x100A0, symSize: 0x3C }
  - { offset: 0x33814, size: 0x8, addend: 0x0, symName: __RNCINvNvNtNtNtNtCsfvfooZQ3Axs_4core4iter6traits8iterator8Iterator8for_each4callNtCs3cP53eQoTwO_11proc_macro25IdentNCINvMsi_NtCse1nGBsou5OW_5alloc3vecINtB1X_3VecB1f_E14extend_trustedINtNtNtBc_8adapters3map3MapINtNtNtBe_3ops5range5RangejENCNvNtCs8XcImbZQYrD_13futures_macro6select19declare_result_enum0EE0E0B3S_, symObjAddr: 0x2580, symBinAddr: 0x100DC, symSize: 0x3C }
  - { offset: 0x3386D, size: 0x8, addend: 0x0, symName: __RNCINvNvNtNtNtNtCsfvfooZQ3Axs_4core4iter6traits8iterator8Iterator8for_each4callNtNtCs6IAuOt8vWmF_3syn4expr5IndexNCINvMsi_NtCse1nGBsou5OW_5alloc3vecINtB1V_3VecB1f_E14extend_trustedINtNtNtBc_8adapters3map3MapINtNtNtBe_3ops5range5RangejENvYB1f_INtNtBe_7convert4FromjE4fromEE0E0Cs8XcImbZQYrD_13futures_macro, symObjAddr: 0x25BC, symBinAddr: 0x10118, symSize: 0x2C }
  - { offset: 0x33926, size: 0x8, addend: 0x0, symName: __RNvYINtNtCs6IAuOt8vWmF_3syn10punctuated11PrivateIterNtNtB7_4expr4ExprNtNtB7_5token5CommaENtNtNtNtCsfvfooZQ3Axs_4core4iter6traits8iterator8Iterator10advance_byCs8XcImbZQYrD_13futures_macro, symObjAddr: 0x58A0, symBinAddr: 0x133E8, symSize: 0x134 }
  - { offset: 0x33A7C, size: 0x8, addend: 0x0, symName: __RNvYINtNtCs6IAuOt8vWmF_3syn10punctuated11PrivateIterNtNtB7_4expr4ExprNtNtB7_5token5CommaENtNtNtNtCsfvfooZQ3Axs_4core4iter6traits8iterator8Iterator3nthCs8XcImbZQYrD_13futures_macro, symObjAddr: 0x59D4, symBinAddr: 0x1351C, symSize: 0x80 }
  - { offset: 0x33B48, size: 0x8, addend: 0x0, symName: __RNvYINtNtCs6IAuOt8vWmF_3syn10punctuated11PrivateIterNtNtB7_4expr4ExprNtNtB7_5token5CommaENtNtNtNtCsfvfooZQ3Axs_4core4iter6traits8iterator8Iterator9size_hintCs8XcImbZQYrD_13futures_macro, symObjAddr: 0x5A54, symBinAddr: 0x1359C, symSize: 0x34 }
  - { offset: 0x33B89, size: 0x8, addend: 0x0, symName: __RNvYINtNtCs6IAuOt8vWmF_3syn10punctuated11PrivateIterNtNtB7_4expr4ExprNtNtB7_5token5CommaENtNtNtNtCsfvfooZQ3Axs_4core4iter6traits10exact_size17ExactSizeIterator8is_emptyCs8XcImbZQYrD_13futures_macro, symObjAddr: 0x56D8, symBinAddr: 0x13220, symSize: 0x2C }
  - { offset: 0x33BBE, size: 0x8, addend: 0x0, symName: __RNvYINtNtCsfvfooZQ3Axs_4core6option8IntoIterRNtNtCs6IAuOt8vWmF_3syn4expr4ExprENtNtNtNtB7_4iter6traits10exact_size17ExactSizeIterator3lenCs8XcImbZQYrD_13futures_macro, symObjAddr: 0x5A88, symBinAddr: 0x135D0, symSize: 0xF4 }
  - { offset: 0x33CBD, size: 0x8, addend: 0x0, symName: __RNvYINtNtCs6IAuOt8vWmF_3syn10punctuated11PrivateIterNtNtB7_4expr4ExprNtNtB7_5token5CommaENtNtNtNtCsfvfooZQ3Axs_4core4iter6traits12double_ended19DoubleEndedIterator15advance_back_byCs8XcImbZQYrD_13futures_macro, symObjAddr: 0x5704, symBinAddr: 0x1324C, symSize: 0x134 }
  - { offset: 0x33E0B, size: 0x8, addend: 0x0, symName: __RNvYINtNtCs6IAuOt8vWmF_3syn10punctuated11PrivateIterNtNtB7_4expr4ExprNtNtB7_5token5CommaENtNtNtNtCsfvfooZQ3Axs_4core4iter6traits12double_ended19DoubleEndedIterator8nth_backCs8XcImbZQYrD_13futures_macro, symObjAddr: 0x5838, symBinAddr: 0x13380, symSize: 0x68 }
  - { offset: 0x34219, size: 0x8, addend: 0x0, symName: __RNvXs3_NtNtCsfvfooZQ3Axs_4core4iter5rangeINtNtNtB9_3ops5range5RangejENtB5_17RangeIteratorImpl9spec_nextCs8XcImbZQYrD_13futures_macro, symObjAddr: 0x4248, symBinAddr: 0x11DA0, symSize: 0x94 }
  - { offset: 0x34306, size: 0x8, addend: 0x0, symName: __RNvXs4_NtNtCsfvfooZQ3Axs_4core4iter5rangeINtNtNtB9_3ops5range5RangejENtNtNtB7_6traits8iterator8Iterator4nextCs8XcImbZQYrD_13futures_macro, symObjAddr: 0x43CC, symBinAddr: 0x11F24, symSize: 0x24 }
  - { offset: 0x3433D, size: 0x8, addend: 0x0, symName: __RNvXs4_NtNtCsfvfooZQ3Axs_4core4iter5rangeINtNtNtB9_3ops5range5RangejENtNtNtB7_6traits8iterator8Iterator9size_hintCs8XcImbZQYrD_13futures_macro, symObjAddr: 0x43F0, symBinAddr: 0x11F48, symSize: 0x88 }
  - { offset: 0x34CD1, size: 0x8, addend: 0x0, symName: ___rustc_proc_macro_decls_684db23c80f5a1f3__, symObjAddr: 0x7250, symBinAddr: 0x1E46C8, symSize: 0x0 }
  - { offset: 0x34E22, size: 0x8, addend: 0x0, symName: __RNvCs8XcImbZQYrD_13futures_macro13join_internal, symObjAddr: 0x5F64, symBinAddr: 0x13AAC, symSize: 0x30 }
  - { offset: 0x34E4E, size: 0x8, addend: 0x0, symName: __RNvCs8XcImbZQYrD_13futures_macro17try_join_internal, symObjAddr: 0x5F94, symBinAddr: 0x13ADC, symSize: 0x30 }
  - { offset: 0x34E7A, size: 0x8, addend: 0x0, symName: __RNvCs8XcImbZQYrD_13futures_macro15select_internal, symObjAddr: 0x5FC4, symBinAddr: 0x13B0C, symSize: 0x30 }
  - { offset: 0x34EA6, size: 0x8, addend: 0x0, symName: __RNvCs8XcImbZQYrD_13futures_macro22select_biased_internal, symObjAddr: 0x5FF4, symBinAddr: 0x13B3C, symSize: 0x30 }
  - { offset: 0x34ED2, size: 0x8, addend: 0x0, symName: __RNvCs8XcImbZQYrD_13futures_macro13test_internal, symObjAddr: 0x6024, symBinAddr: 0x13B6C, symSize: 0x34 }
  - { offset: 0x34F0C, size: 0x8, addend: 0x0, symName: __RNvCs8XcImbZQYrD_13futures_macro22stream_select_internal, symObjAddr: 0x6058, symBinAddr: 0x13BA0, symSize: 0x78 }
  - { offset: 0x35278, size: 0x8, addend: 0x0, symName: __RNCNvXs1_NtNtNtCscOYdFFY2T5N_3std2io5error14repr_bitpackedNtB7_4ReprNtNtNtCsfvfooZQ3Axs_4core3ops4drop4Drop4drop0Cs8XcImbZQYrD_13futures_macro, symObjAddr: 0x2634, symBinAddr: 0x10190, symSize: 0x34 }
  - { offset: 0x3532D, size: 0x8, addend: 0x0, symName: __RNvXs1_NtNtNtCscOYdFFY2T5N_3std2io5error14repr_bitpackedNtB5_4ReprNtNtNtCsfvfooZQ3Axs_4core3ops4drop4Drop4dropCs8XcImbZQYrD_13futures_macro, symObjAddr: 0x4188, symBinAddr: 0x11CE0, symSize: 0x38 }
  - { offset: 0x35356, size: 0x8, addend: 0x0, symName: __RINvNtNtNtCscOYdFFY2T5N_3std2io5error14repr_bitpacked11decode_reprINtNtCse1nGBsou5OW_5alloc5boxed3BoxNtB4_6CustomENCNvXs1_B2_NtB2_4ReprNtNtNtCsfvfooZQ3Axs_4core3ops4drop4Drop4drop0ECs8XcImbZQYrD_13futures_macro, symObjAddr: 0x1B80, symBinAddr: 0xF6DC, symSize: 0x230 }
  - { offset: 0x355FB, size: 0x8, addend: 0x0, symName: __RNvNtNtNtCscOYdFFY2T5N_3std2io5error14repr_bitpacked14kind_from_primCs8XcImbZQYrD_13futures_macro, symObjAddr: 0x31E0, symBinAddr: 0x10D38, symSize: 0x608 }
  - { offset: 0x35FE0, size: 0x8, addend: 0x0, symName: __RNCNvMs3_NtNtCscOYdFFY2T5N_3std6thread5localINtB7_8LocalKeyINtNtCsfvfooZQ3Axs_4core4cell4CellPuEE7replace0Cs8XcImbZQYrD_13futures_macro, symObjAddr: 0x260C, symBinAddr: 0x10168, symSize: 0x28 }
  - { offset: 0x360A4, size: 0x8, addend: 0x0, symName: __RINvMNtCsfvfooZQ3Axs_4core6optionINtB3_6OptionNtCs3cP53eQoTwO_11proc_macro29TokenTreeE11map_or_elseNtBK_4SpanNvMse_BK_B1z_9call_siteNCNvNtCs8XcImbZQYrD_13futures_macro8executor4test0EB2c_, symObjAddr: 0x0, symBinAddr: 0xDBB4, symSize: 0xE4 }
  - { offset: 0x36120, size: 0x8, addend: 0x0, symName: __RINvMNtCsfvfooZQ3Axs_4core6optionINtB3_6OptionNtCs3cP53eQoTwO_11proc_macro29TokenTreeE6map_orNtBK_4SpanNCNvNtCs8XcImbZQYrD_13futures_macro8executor4tests_0EB1J_, symObjAddr: 0xE4, symBinAddr: 0xDC98, symSize: 0xC8 }
  - { offset: 0x361A0, size: 0x8, addend: 0x0, symName: __RINvMNtCsfvfooZQ3Axs_4core6optionINtB3_6OptionNtNtCs6IAuOt8vWmF_3syn4expr4ExprE3mapNtCs3cP53eQoTwO_11proc_macro211TokenStreamNCNvNtCs8XcImbZQYrD_13futures_macro6select12select_inners1_0EB25_, symObjAddr: 0x1AC, symBinAddr: 0xDD60, symSize: 0xAC }
  - { offset: 0x36219, size: 0x8, addend: 0x0, symName: __RINvMNtCsfvfooZQ3Axs_4core6optionINtB3_6OptionRNtNtCs6IAuOt8vWmF_3syn4expr4ExprE7or_elseNCNvXsw_NtBN_10punctuatedINtB1w_11PrivateIterBJ_NtNtBN_5token5CommaENtNtNtNtB5_4iter6traits8iterator8Iterator4nexts_0ECs8XcImbZQYrD_13futures_macro, symObjAddr: 0x258, symBinAddr: 0xDE0C, symSize: 0xA8 }
  - { offset: 0x36288, size: 0x8, addend: 0x0, symName: __RINvMNtCsfvfooZQ3Axs_4core6optionINtB3_6OptionRNtNtCs6IAuOt8vWmF_3syn4expr4ExprE7or_elseNCNvXsx_NtBN_10punctuatedINtB1w_11PrivateIterBJ_NtNtBN_5token5CommaENtNtNtNtB5_4iter6traits12double_ended19DoubleEndedIterator9next_back0ECs8XcImbZQYrD_13futures_macro, symObjAddr: 0x300, symBinAddr: 0xDEB4, symSize: 0xA8 }
  - { offset: 0x3630F, size: 0x8, addend: 0x0, symName: __RINvMNtCsfvfooZQ3Axs_4core6optionINtB3_6OptionRNtNtCs6IAuOt8vWmF_3syn4stmt4StmtE3mapNtCs3cP53eQoTwO_11proc_macro211TokenStreamNvYBI_NtNtCs2cqEZUIJimJ_5quote9to_tokens8ToTokens17into_token_streamECs8XcImbZQYrD_13futures_macro, symObjAddr: 0x3A8, symBinAddr: 0xDF5C, symSize: 0x6C }
  - { offset: 0x3637A, size: 0x8, addend: 0x0, symName: __RINvMNtCsfvfooZQ3Axs_4core6optionINtB3_6OptionRTNtNtCs6IAuOt8vWmF_3syn4expr4ExprNtNtBO_5token5CommaEE3mapRBK_NCNCNvXsx_NtBO_10punctuatedINtB1T_11PrivateIterBK_B1g_ENtNtNtNtB5_4iter6traits12double_ended19DoubleEndedIterator9next_back00ECs8XcImbZQYrD_13futures_macro, symObjAddr: 0x414, symBinAddr: 0xDFC8, symSize: 0x50 }
  - { offset: 0x363E5, size: 0x8, addend: 0x0, symName: __RINvMNtCsfvfooZQ3Axs_4core6optionINtB3_6OptionRTNtNtCs6IAuOt8vWmF_3syn4expr4ExprNtNtBO_5token5CommaEE3mapRBK_NCNvXsw_NtBO_10punctuatedINtB1R_11PrivateIterBK_B1g_ENtNtNtNtB5_4iter6traits8iterator8Iterator4next0ECs8XcImbZQYrD_13futures_macro, symObjAddr: 0x464, symBinAddr: 0xE018, symSize: 0x50 }
  - { offset: 0x36475, size: 0x8, addend: 0x0, symName: __RINvMNtCsfvfooZQ3Axs_4core6resultINtB3_6ResultNtCs3cP53eQoTwO_11proc_macro211TokenStreamNtNtCs6IAuOt8vWmF_3syn5error5ErrorE14unwrap_or_elseNvMB1q_B1o_18into_compile_errorECs8XcImbZQYrD_13futures_macro, symObjAddr: 0x4B4, symBinAddr: 0xE068, symSize: 0x9C }
  - { offset: 0x3653E, size: 0x8, addend: 0x0, symName: __RINvMs2_NtNtCscOYdFFY2T5N_3std6thread5localINtB6_8LocalKeyINtNtCsfvfooZQ3Axs_4core4cell4CellPuEE4withNCNvMs3_B6_BF_7replace0B1s_ECs8XcImbZQYrD_13futures_macro, symObjAddr: 0x550, symBinAddr: 0xE104, symSize: 0x54 }
  - { offset: 0x365F7, size: 0x8, addend: 0x0, symName: __RINvMs2_NtNtCscOYdFFY2T5N_3std6thread5localINtB6_8LocalKeyINtNtCsfvfooZQ3Axs_4core4cell4CellPuEE8try_withNCNvMs3_B6_BF_7replace0B1s_ECs8XcImbZQYrD_13futures_macro, symObjAddr: 0x5A4, symBinAddr: 0xE158, symSize: 0xE4 }
  - { offset: 0x36783, size: 0x8, addend: 0x0, symName: __RINvMs3_NtNtCs9i5KxIbZ5ph_10proc_macro6bridge6bufferNtB6_6Buffer17extend_from_arrayKj4_ECs8XcImbZQYrD_13futures_macro, symObjAddr: 0x688, symBinAddr: 0xE23C, symSize: 0x16C }
  - { offset: 0x36949, size: 0x8, addend: 0x0, symName: __RINvMs3_NtNtCs9i5KxIbZ5ph_10proc_macro6bridge6bufferNtB6_6Buffer17extend_from_arrayKj8_ECs8XcImbZQYrD_13futures_macro, symObjAddr: 0x7F4, symBinAddr: 0xE3A8, symSize: 0x16C }
  - { offset: 0x36AED, size: 0x8, addend: 0x0, symName: __RINvNtCs2cqEZUIJimJ_5quote9___private8get_spanNtCs3cP53eQoTwO_11proc_macro24SpanECs8XcImbZQYrD_13futures_macro, symObjAddr: 0x960, symBinAddr: 0xE514, symSize: 0x20 }
  - { offset: 0x36C15, size: 0x8, addend: 0x0, symName: __RNvXs4_NtCs2cqEZUIJimJ_5quote9___privateINtB5_9RepInterpNtCs3cP53eQoTwO_11proc_macro211TokenStreamENtNtB7_9to_tokens8ToTokens9to_tokensCs8XcImbZQYrD_13futures_macro, symObjAddr: 0x42DC, symBinAddr: 0x11E34, symSize: 0x3C }
  - { offset: 0x36C54, size: 0x8, addend: 0x0, symName: __RNvXs4_NtCs2cqEZUIJimJ_5quote9___privateINtB5_9RepInterpRNtCs3cP53eQoTwO_11proc_macro211TokenStreamENtNtB7_9to_tokens8ToTokens9to_tokensCs8XcImbZQYrD_13futures_macro, symObjAddr: 0x4318, symBinAddr: 0x11E70, symSize: 0x3C }
  - { offset: 0x36C93, size: 0x8, addend: 0x0, symName: __RNvXs4_NtCs2cqEZUIJimJ_5quote9___privateINtB5_9RepInterpRNtCs3cP53eQoTwO_11proc_macro25IdentENtNtB7_9to_tokens8ToTokens9to_tokensCs8XcImbZQYrD_13futures_macro, symObjAddr: 0x4354, symBinAddr: 0x11EAC, symSize: 0x3C }
  - { offset: 0x36CD2, size: 0x8, addend: 0x0, symName: __RNvXs4_NtCs2cqEZUIJimJ_5quote9___privateINtB5_9RepInterpRNtNtCs6IAuOt8vWmF_3syn4expr5IndexENtNtB7_9to_tokens8ToTokens9to_tokensCs8XcImbZQYrD_13futures_macro, symObjAddr: 0x4390, symBinAddr: 0x11EE8, symSize: 0x3C }
  - { offset: 0x36D17, size: 0x8, addend: 0x0, symName: __RNvXs6_NtCs2cqEZUIJimJ_5quote9___privateINtB5_20IdentFragmentAdapterRjENtNtCsfvfooZQ3Axs_4core3fmt7Display3fmtCs8XcImbZQYrD_13futures_macro, symObjAddr: 0x4504, symBinAddr: 0x1205C, symSize: 0x3C }
  - { offset: 0x36DC3, size: 0x8, addend: 0x0, symName: __RNvXNtCs2cqEZUIJimJ_5quote9to_tokensRNtNtCs6IAuOt8vWmF_3syn4expr5IndexNtB2_8ToTokens9to_tokensCs8XcImbZQYrD_13futures_macro, symObjAddr: 0x3F68, symBinAddr: 0x11AC0, symSize: 0x40 }
  - { offset: 0x36E02, size: 0x8, addend: 0x0, symName: __RNvXNtCs2cqEZUIJimJ_5quote9to_tokensRNtNtCs6IAuOt8vWmF_3syn4expr8ExprPathNtB2_8ToTokens9to_tokensCs8XcImbZQYrD_13futures_macro, symObjAddr: 0x3FA8, symBinAddr: 0x11B00, symSize: 0x40 }
  - { offset: 0x36E47, size: 0x8, addend: 0x0, symName: __RNvXs3_NtCs2cqEZUIJimJ_5quote9to_tokensINtNtCsfvfooZQ3Axs_4core6option6OptionNtCs3cP53eQoTwO_11proc_macro211TokenStreamENtB5_8ToTokens9to_tokensCs8XcImbZQYrD_13futures_macro, symObjAddr: 0x41C0, symBinAddr: 0x11D18, symSize: 0x88 }
  - { offset: 0x36EA9, size: 0x8, addend: 0x0, symName: __RNvYNtNtCs6IAuOt8vWmF_3syn5token2FnNtNtCs2cqEZUIJimJ_5quote9to_tokens8ToTokens15to_token_streamCs8XcImbZQYrD_13futures_macro, symObjAddr: 0x5BC8, symBinAddr: 0x13710, symSize: 0x8C }
  - { offset: 0x36EF3, size: 0x8, addend: 0x0, symName: __RNvYNtNtCs6IAuOt8vWmF_3syn5token2FnNtNtCs2cqEZUIJimJ_5quote9to_tokens8ToTokens17into_token_streamCs8XcImbZQYrD_13futures_macro, symObjAddr: 0x5C54, symBinAddr: 0x1379C, symSize: 0x54 }
  - { offset: 0x37138, size: 0x8, addend: 0x0, symName: __RNvMNtCs6IAuOt8vWmF_3syn10punctuatedINtB2_10PunctuatedNtNtB4_4expr4ExprNtNtB4_5token5CommaE16parse_terminatedCs8XcImbZQYrD_13futures_macro, symObjAddr: 0x2730, symBinAddr: 0x1028C, symSize: 0x3C }
  - { offset: 0x371CF, size: 0x8, addend: 0x0, symName: __RNvMNtCs6IAuOt8vWmF_3syn10punctuatedINtB2_10PunctuatedNtNtB4_4expr4ExprNtNtB4_5token5CommaE4iterCs8XcImbZQYrD_13futures_macro, symObjAddr: 0x276C, symBinAddr: 0x102C8, symSize: 0xC8 }
  - { offset: 0x37220, size: 0x8, addend: 0x0, symName: __RNvMNtCsfvfooZQ3Axs_4core6optionINtB2_6OptionNtCs3cP53eQoTwO_11proc_macro211TokenStreamE17unwrap_or_defaultCs8XcImbZQYrD_13futures_macro, symObjAddr: 0x2884, symBinAddr: 0x103E0, symSize: 0x70 }
  - { offset: 0x3726B, size: 0x8, addend: 0x0, symName: __RNvMNtCsfvfooZQ3Axs_4core6optionINtB2_6OptionNtCs3cP53eQoTwO_11proc_macro24SpanE2orCs8XcImbZQYrD_13futures_macro, symObjAddr: 0x28F4, symBinAddr: 0x10450, symSize: 0x80 }
  - { offset: 0x372D1, size: 0x8, addend: 0x0, symName: __RNvMNtCsfvfooZQ3Axs_4core6optionINtB2_6OptionNtNtCs6IAuOt8vWmF_3syn4expr4ExprE7is_someCs8XcImbZQYrD_13futures_macro, symObjAddr: 0x2974, symBinAddr: 0x104D0, symSize: 0x28 }
  - { offset: 0x3730A, size: 0x8, addend: 0x0, symName: __RNvMNtCsfvfooZQ3Axs_4core6optionINtB2_6OptionNtNtCs6IAuOt8vWmF_3syn5token5AsyncE4takeCs8XcImbZQYrD_13futures_macro, symObjAddr: 0x299C, symBinAddr: 0x104F8, symSize: 0x34 }
  - { offset: 0x373B9, size: 0x8, addend: 0x0, symName: __RNvMNtCsfvfooZQ3Axs_4core6optionINtB2_6OptionNtNtCs6IAuOt8vWmF_3syn5token5AsyncE7is_noneCs8XcImbZQYrD_13futures_macro, symObjAddr: 0x29D0, symBinAddr: 0x1052C, symSize: 0x20 }
  - { offset: 0x37403, size: 0x8, addend: 0x0, symName: __RNvMNtNtCs2cqEZUIJimJ_5quote9___private8get_spanINtB2_7GetSpanNtCs3cP53eQoTwO_11proc_macro24SpanE11___into_spanCs8XcImbZQYrD_13futures_macro, symObjAddr: 0x29F0, symBinAddr: 0x1054C, symSize: 0x20 }
  - { offset: 0x37477, size: 0x8, addend: 0x0, symName: __RNvMs0_NtCse1nGBsou5OW_5alloc7raw_vecINtB5_6RawVecNtCs3cP53eQoTwO_11proc_macro211TokenStreamE8grow_oneCs8XcImbZQYrD_13futures_macro, symObjAddr: 0x2A10, symBinAddr: 0x1056C, symSize: 0x94 }
  - { offset: 0x37525, size: 0x8, addend: 0x0, symName: __RNvMs0_NtCse1nGBsou5OW_5alloc7raw_vecINtB5_6RawVecNtNtCs6IAuOt8vWmF_3syn4expr4ExprE8grow_oneCs8XcImbZQYrD_13futures_macro, symObjAddr: 0x2AA4, symBinAddr: 0x10600, symSize: 0x94 }
  - { offset: 0x375F2, size: 0x8, addend: 0x0, symName: __RNvMs0_NtCse1nGBsou5OW_5alloc7raw_vecINtB5_6RawVecTNtNtCs6IAuOt8vWmF_3syn3pat3PatNtNtBR_4expr4ExprEE8grow_oneCs8XcImbZQYrD_13futures_macro, symObjAddr: 0x2B38, symBinAddr: 0x10694, symSize: 0x94 }
  - { offset: 0x37691, size: 0x8, addend: 0x0, symName: __RNvMs1_NtNtCsfvfooZQ3Axs_4core3ptr8non_nullINtB5_7NonNullNtCs3cP53eQoTwO_11proc_macro25IdentE7sub_ptrCs8XcImbZQYrD_13futures_macro, symObjAddr: 0x2BCC, symBinAddr: 0x10728, symSize: 0x74 }
  - { offset: 0x37797, size: 0x8, addend: 0x0, symName: __RNvMs1_NtNtCsfvfooZQ3Axs_4core3ptr8non_nullINtB5_7NonNullNtNtCs6IAuOt8vWmF_3syn4expr4ExprE7sub_ptrCs8XcImbZQYrD_13futures_macro, symObjAddr: 0x2C40, symBinAddr: 0x1079C, symSize: 0x74 }
  - { offset: 0x3789D, size: 0x8, addend: 0x0, symName: __RNvMs1_NtNtCsfvfooZQ3Axs_4core3ptr8non_nullINtB5_7NonNullNtNtCs6IAuOt8vWmF_3syn4expr8ExprPathE7sub_ptrCs8XcImbZQYrD_13futures_macro, symObjAddr: 0x2CB4, symBinAddr: 0x10810, symSize: 0x74 }
  - { offset: 0x379A3, size: 0x8, addend: 0x0, symName: __RNvMs1_NtNtCsfvfooZQ3Axs_4core3ptr8non_nullINtB5_7NonNullTNtNtCs6IAuOt8vWmF_3syn3pat3PatNtNtBY_4expr4ExprEE7sub_ptrCs8XcImbZQYrD_13futures_macro, symObjAddr: 0x2D28, symBinAddr: 0x10884, symSize: 0x74 }
  - { offset: 0x37A9C, size: 0x8, addend: 0x0, symName: __RNvMs1_NtNtCsfvfooZQ3Axs_4core3ptr8non_nullINtB5_7NonNullTNtNtCs6IAuOt8vWmF_3syn4expr4ExprNtNtBY_5token5CommaEE7sub_ptrCs8XcImbZQYrD_13futures_macro, symObjAddr: 0x2D9C, symBinAddr: 0x108F8, symSize: 0x74 }
  - { offset: 0x37B6C, size: 0x8, addend: 0x0, symName: __RNvMs2_NtCs2cqEZUIJimJ_5quote9___privateINtB5_9RepInterpRNtCs3cP53eQoTwO_11proc_macro25IdentE4nextCs8XcImbZQYrD_13futures_macro, symObjAddr: 0x2E10, symBinAddr: 0x1096C, symSize: 0x2C }
  - { offset: 0x37BA9, size: 0x8, addend: 0x0, symName: __RNvMs3_NtNtCs9i5KxIbZ5ph_10proc_macro6bridge6bufferNtB5_6Buffer17extend_from_sliceCs8XcImbZQYrD_13futures_macro, symObjAddr: 0x2E3C, symBinAddr: 0x10998, symSize: 0x164 }
  - { offset: 0x37D65, size: 0x8, addend: 0x0, symName: __RNvMs3_NtNtCs9i5KxIbZ5ph_10proc_macro6bridge6bufferNtB5_6Buffer4pushCs8XcImbZQYrD_13futures_macro, symObjAddr: 0x2FA0, symBinAddr: 0x10AFC, symSize: 0x134 }
  - { offset: 0x37E75, size: 0x8, addend: 0x0, symName: __RNvMs5_NtCs2cqEZUIJimJ_5quote9___privateINtB5_20IdentFragmentAdapterRjE4spanCs8XcImbZQYrD_13futures_macro, symObjAddr: 0x30D4, symBinAddr: 0x10C30, symSize: 0x34 }
  - { offset: 0x38B04, size: 0x8, addend: 0x0, symName: __RINvMs9_NtCs6IAuOt8vWmF_3syn5parseNtB6_11ParseBuffer4peekINvNtNtCs8XcImbZQYrD_13futures_macro6select2kw8completeNtNtB8_9lookahead11TokenMarkerEEB10_, symObjAddr: 0x0, symBinAddr: 0x13C18, symSize: 0x38 }
  - { offset: 0x3A233, size: 0x8, addend: 0x0, symName: __RINvNtCsfvfooZQ3Axs_4core9panicking13panic_displayNtNtCs6IAuOt8vWmF_3syn5error5ErrorECs8XcImbZQYrD_13futures_macro, symObjAddr: 0x960, symBinAddr: 0x14578, symSize: 0x88 }
  - { offset: 0x3CA5D, size: 0x8, addend: 0x0, symName: __RNCINvNvXs_NtNtNtCsfvfooZQ3Axs_4core4iter8adapters9enumerateINtB9_9EnumeratepENtNtNtBd_6traits8iterator8Iterator8try_fold9enumerateNtNtCs6IAuOt8vWmF_3syn4expr4ExprINtNtNtCse1nGBsou5OW_5alloc3vec13in_place_drop11InPlaceDropNtCs3cP53eQoTwO_11proc_macro25IdentEINtNtBf_6result6ResultB2B_zENCINvNtBb_3map12map_try_foldTjB25_EB3y_B2B_B48_NCNvNtCs8XcImbZQYrD_13futures_macro4join12bind_futures0NCINvNtB2G_16in_place_collect24write_in_place_with_dropB3y_E0E0E0B5r_, symObjAddr: 0x10F8, symBinAddr: 0x14D10, symSize: 0x12C }
  - { offset: 0x3CAF5, size: 0x8, addend: 0x0, symName: __RINvXs_NtNtNtCsfvfooZQ3Axs_4core4iter8adapters9enumerateINtB5_9EnumerateINtNtNtCse1nGBsou5OW_5alloc3vec9into_iter8IntoIterNtNtCs6IAuOt8vWmF_3syn4expr4ExprEENtNtNtB9_6traits8iterator8Iterator8try_foldINtNtB1d_13in_place_drop11InPlaceDropNtCs3cP53eQoTwO_11proc_macro25IdentENCINvNtB7_3map12map_try_foldTjB1W_EB3M_B3b_INtNtBb_6result6ResultB3b_zENCNvNtCs8XcImbZQYrD_13futures_macro4join12bind_futures0NCINvNtB1d_16in_place_collect24write_in_place_with_dropB3M_E0E0B53_EB5B_, symObjAddr: 0xBD4, symBinAddr: 0x147EC, symSize: 0x64 }
  - { offset: 0x3CBD4, size: 0x8, addend: 0x0, symName: __RNvXs7_NtNtNtCsfvfooZQ3Axs_4core4iter8adapters9enumerateINtB5_9EnumerateINtNtNtCse1nGBsou5OW_5alloc3vec9into_iter8IntoIterNtNtCs6IAuOt8vWmF_3syn4expr4ExprEENtB7_10SourceIter8as_innerCs8XcImbZQYrD_13futures_macro, symObjAddr: 0x22D0, symBinAddr: 0x15EE8, symSize: 0x24 }
  - { offset: 0x3CD29, size: 0x8, addend: 0x0, symName: __RINvYINtNtNtCse1nGBsou5OW_5alloc3vec9into_iter8IntoIterNtNtCs6IAuOt8vWmF_3syn4expr4ExprENtNtNtNtCsfvfooZQ3Axs_4core4iter6traits8iterator8Iterator3zipINtNtNtB1w_5slice4iter4IterNtCs3cP53eQoTwO_11proc_macro25IdentEECs8XcImbZQYrD_13futures_macro, symObjAddr: 0xDCC, symBinAddr: 0x149E4, symSize: 0xC0 }
  - { offset: 0x3CD9F, size: 0x8, addend: 0x0, symName: __RINvYINtNtNtCse1nGBsou5OW_5alloc3vec9into_iter8IntoIterTNtNtCs6IAuOt8vWmF_3syn3pat3PatNtNtBW_4expr4ExprEENtNtNtNtCsfvfooZQ3Axs_4core4iter6traits8iterator8Iterator3zipINtNtNtB1N_5slice4iter4IterNtCs3cP53eQoTwO_11proc_macro25IdentEECs8XcImbZQYrD_13futures_macro, symObjAddr: 0xE8C, symBinAddr: 0x14AA4, symSize: 0xC0 }
  - { offset: 0x3CE15, size: 0x8, addend: 0x0, symName: __RINvYINtNtNtNtCsfvfooZQ3Axs_4core4iter8adapters9enumerate9EnumerateINtNtNtCse1nGBsou5OW_5alloc3vec9into_iter8IntoIterNtNtCs6IAuOt8vWmF_3syn4expr4ExprEENtNtNtBa_6traits8iterator8Iterator3mapNtCs3cP53eQoTwO_11proc_macro25IdentNCNvNtCs8XcImbZQYrD_13futures_macro4join12bind_futures0EB3G_, symObjAddr: 0xF4C, symBinAddr: 0x14B64, symSize: 0x60 }
  - { offset: 0x3CE83, size: 0x8, addend: 0x0, symName: __RNvYINtNtNtCse1nGBsou5OW_5alloc3vec9into_iter8IntoIterNtNtCs6IAuOt8vWmF_3syn4expr4ExprENtNtNtNtCsfvfooZQ3Axs_4core4iter6traits8iterator8Iterator9enumerateCs8XcImbZQYrD_13futures_macro, symObjAddr: 0x41CC, symBinAddr: 0x17DE4, symSize: 0x18 }
  - { offset: 0x3CEB4, size: 0x8, addend: 0x0, symName: __RNvYINtNtNtCse1nGBsou5OW_5alloc3vec9into_iter8IntoIterNtNtCs6IAuOt8vWmF_3syn4expr4ExprENtNtNtNtCsfvfooZQ3Axs_4core4iter6traits8iterator8Iterator9enumerateCs8XcImbZQYrD_13futures_macro, symObjAddr: 0x41CC, symBinAddr: 0x17DE4, symSize: 0x18 }
  - { offset: 0x3CF50, size: 0x8, addend: 0x0, symName: __RNvYINtNtNtCse1nGBsou5OW_5alloc3vec9into_iter8IntoIterNtNtCs6IAuOt8vWmF_3syn4expr4ExprENtNtNtNtCsfvfooZQ3Axs_4core4iter6traits10exact_size17ExactSizeIterator3lenCs8XcImbZQYrD_13futures_macro, symObjAddr: 0x40D8, symBinAddr: 0x17CF0, symSize: 0xF4 }
  - { offset: 0x3D043, size: 0x8, addend: 0x0, symName: __RNvYINtNtNtCse1nGBsou5OW_5alloc3vec9into_iter8IntoIterTNtNtCs6IAuOt8vWmF_3syn3pat3PatNtNtBV_4expr4ExprEENtNtNtNtCsfvfooZQ3Axs_4core4iter6traits10exact_size17ExactSizeIterator3lenCs8XcImbZQYrD_13futures_macro, symObjAddr: 0x41E4, symBinAddr: 0x17DFC, symSize: 0xF4 }
  - { offset: 0x3D7C0, size: 0x8, addend: 0x0, symName: __RNvNvMNtNtCsfvfooZQ3Axs_4core5alloc6layoutNtB4_6Layout25from_size_align_unchecked18precondition_checkCs8XcImbZQYrD_13futures_macro, symObjAddr: 0x1B14, symBinAddr: 0x1572C, symSize: 0x50 }
  - { offset: 0x3DBBD, size: 0x8, addend: 0x0, symName: __RNvXNtNtCs9i5KxIbZ5ph_10proc_macro6bridge3rpcuINtB2_6EncodeuE6encodeCs8XcImbZQYrD_13futures_macro, symObjAddr: 0x1B64, symBinAddr: 0x1577C, symSize: 0x14 }
  - { offset: 0x3DC36, size: 0x8, addend: 0x0, symName: __RNvXsa_NtNtCs9i5KxIbZ5ph_10proc_macro6bridge3rpcRShINtB5_6EncodeuE6encodeCs8XcImbZQYrD_13futures_macro, symObjAddr: 0x2BF4, symBinAddr: 0x1680C, symSize: 0xD0 }
  - { offset: 0x3DD38, size: 0x8, addend: 0x0, symName: __RNvXsc_NtNtCs9i5KxIbZ5ph_10proc_macro6bridge3rpcReINtB5_6EncodeuE6encodeCs8XcImbZQYrD_13futures_macro, symObjAddr: 0x2CC4, symBinAddr: 0x168DC, symSize: 0x38 }
  - { offset: 0x3DE20, size: 0x8, addend: 0x0, symName: __RNvXsl_NtNtCs9i5KxIbZ5ph_10proc_macro6bridge3rpcNtB5_12PanicMessageINtB5_6EncodeuE6encodeCs8XcImbZQYrD_13futures_macro, symObjAddr: 0x3D58, symBinAddr: 0x17970, symSize: 0x128 }
  - { offset: 0x3DFE6, size: 0x8, addend: 0x0, symName: __RNvXso_NtNtCs9i5KxIbZ5ph_10proc_macro6bridge3rpcmINtB5_9DecodeMutuE6decodeCs8XcImbZQYrD_13futures_macro, symObjAddr: 0x3FD0, symBinAddr: 0x17BE8, symSize: 0x108 }
  - { offset: 0x3E2B7, size: 0x8, addend: 0x0, symName: __RNvXs1f_Cs9i5KxIbZ5ph_10proc_macroNtB6_5IdentNtNtCsfvfooZQ3Axs_4core5clone5Clone5cloneCs8XcImbZQYrD_13futures_macro, symObjAddr: 0x1E94, symBinAddr: 0x15AAC, symSize: 0x40 }
  - { offset: 0x3E603, size: 0x8, addend: 0x0, symName: __RNvXs1_NtCs3cP53eQoTwO_11proc_macro26markerNtB5_19ProcMacroAutoTraitsNtNtCsfvfooZQ3Axs_4core5clone5Clone5cloneCs8XcImbZQYrD_13futures_macro, symObjAddr: 0x1E84, symBinAddr: 0x15A9C, symSize: 0x10 }
  - { offset: 0x3E970, size: 0x8, addend: 0x0, symName: __RNvXsh_NtCs6IAuOt8vWmF_3syn5parseNvYNtNtB7_4expr4ExprNtB5_5Parse5parseNtB5_6Parser6parse2Cs8XcImbZQYrD_13futures_macro, symObjAddr: 0x301C, symBinAddr: 0x16C34, symSize: 0x354 }
  - { offset: 0x3EA80, size: 0x8, addend: 0x0, symName: __RNvXsh_NtCs6IAuOt8vWmF_3syn5parseNvYNtNtB7_4item6ItemFnNtB5_5Parse5parseNtB5_6Parser6parse2Cs8XcImbZQYrD_13futures_macro, symObjAddr: 0x3370, symBinAddr: 0x16F88, symSize: 0x358 }
  - { offset: 0x3EB90, size: 0x8, addend: 0x0, symName: __RNvXsh_NtCs6IAuOt8vWmF_3syn5parseNvYNtNtCs8XcImbZQYrD_13futures_macro4join4JoinNtB5_5Parse5parseNtB5_6Parser6parse2BC_, symObjAddr: 0x36C8, symBinAddr: 0x172E0, symSize: 0x338 }
  - { offset: 0x3EC9F, size: 0x8, addend: 0x0, symName: __RNvXsh_NtCs6IAuOt8vWmF_3syn5parseNvYNtNtCs8XcImbZQYrD_13futures_macro6select6SelectNtB5_5Parse5parseNtB5_6Parser6parse2BC_, symObjAddr: 0x3A00, symBinAddr: 0x17618, symSize: 0x358 }
  - { offset: 0x3EDB5, size: 0x8, addend: 0x0, symName: __RNvYNvYNtNtCs6IAuOt8vWmF_3syn4item6ItemFnNtNtB9_5parse5Parse5parseNtBF_6Parser5parseCs8XcImbZQYrD_13futures_macro, symObjAddr: 0x42D8, symBinAddr: 0x17EF0, symSize: 0x88 }
  - { offset: 0x3EDFB, size: 0x8, addend: 0x0, symName: __RNvYNvYNtNtCs8XcImbZQYrD_13futures_macro4join4JoinNtNtCs6IAuOt8vWmF_3syn5parse5Parse5parseNtBO_6Parser5parseB9_, symObjAddr: 0x4360, symBinAddr: 0x17F78, symSize: 0x88 }
  - { offset: 0x3EE41, size: 0x8, addend: 0x0, symName: __RNvYNvYNtNtCs8XcImbZQYrD_13futures_macro6select6SelectNtNtCs6IAuOt8vWmF_3syn5parse5Parse5parseNtBS_6Parser5parseB9_, symObjAddr: 0x43E8, symBinAddr: 0x18000, symSize: 0x88 }
  - { offset: 0x44893, size: 0x8, addend: 0x0, symName: __RINvXs3_NtNtCse1nGBsou5OW_5alloc3vec9into_iterINtB6_8IntoIterNtNtCs6IAuOt8vWmF_3syn4expr4ExprENtNtNtNtCsfvfooZQ3Axs_4core4iter6traits8iterator8Iterator8try_foldINtNtB8_13in_place_drop11InPlaceDropNtCs3cP53eQoTwO_11proc_macro25IdentENCINvNvXs_NtNtB1A_8adapters9enumerateINtB3S_9EnumeratepEB1u_8try_fold9enumerateBX_B2y_INtNtB1C_6result6ResultB2y_zENCINvNtB3U_3map12map_try_foldTjBX_EB38_B2y_B56_NCNvNtCs8XcImbZQYrD_13futures_macro4join12bind_futures0NCINvNtB8_16in_place_collect24write_in_place_with_dropB38_E0E0E0B56_EB6q_, symObjAddr: 0x9E8, symBinAddr: 0x14600, symSize: 0x1EC }
  - { offset: 0x44A75, size: 0x8, addend: 0x0, symName: __RNvXs3_NtNtCse1nGBsou5OW_5alloc3vec9into_iterINtB5_8IntoIterNtNtCs6IAuOt8vWmF_3syn4expr4ExprENtNtNtNtCsfvfooZQ3Axs_4core4iter6traits8iterator8Iterator4nextCs8XcImbZQYrD_13futures_macro, symObjAddr: 0x1ED4, symBinAddr: 0x15AEC, symSize: 0xE4 }
  - { offset: 0x44BE9, size: 0x8, addend: 0x0, symName: __RNvXs3_NtNtCse1nGBsou5OW_5alloc3vec9into_iterINtB5_8IntoIterNtNtCs6IAuOt8vWmF_3syn4expr4ExprENtNtNtNtCsfvfooZQ3Axs_4core4iter6traits8iterator8Iterator9size_hintCs8XcImbZQYrD_13futures_macro, symObjAddr: 0x1FB8, symBinAddr: 0x15BD0, symSize: 0x6C }
  - { offset: 0x44C44, size: 0x8, addend: 0x0, symName: __RNvXs3_NtNtCse1nGBsou5OW_5alloc3vec9into_iterINtB5_8IntoIterTNtNtCs6IAuOt8vWmF_3syn3pat3PatNtNtB11_4expr4ExprEENtNtNtNtCsfvfooZQ3Axs_4core4iter6traits8iterator8Iterator4nextCs8XcImbZQYrD_13futures_macro, symObjAddr: 0x2024, symBinAddr: 0x15C3C, symSize: 0xE4 }
  - { offset: 0x44DB8, size: 0x8, addend: 0x0, symName: __RNvXs3_NtNtCse1nGBsou5OW_5alloc3vec9into_iterINtB5_8IntoIterTNtNtCs6IAuOt8vWmF_3syn3pat3PatNtNtB11_4expr4ExprEENtNtNtNtCsfvfooZQ3Axs_4core4iter6traits8iterator8Iterator9size_hintCs8XcImbZQYrD_13futures_macro, symObjAddr: 0x2108, symBinAddr: 0x15D20, symSize: 0x6C }
  - { offset: 0x44F5A, size: 0x8, addend: 0x0, symName: __RNvXNvXsd_NtNtCse1nGBsou5OW_5alloc3vec9into_iterINtB8_8IntoIterppENtNtNtCsfvfooZQ3Axs_4core3ops4drop4Drop4dropINtB2_9DropGuardNtNtCs6IAuOt8vWmF_3syn4expr4ExprNtNtBc_5alloc6GlobalEB12_4dropCs8XcImbZQYrD_13futures_macro, symObjAddr: 0x1C1C, symBinAddr: 0x15834, symSize: 0x7C }
  - { offset: 0x45067, size: 0x8, addend: 0x0, symName: __RNvXNvXsd_NtNtCse1nGBsou5OW_5alloc3vec9into_iterINtB8_8IntoIterppENtNtNtCsfvfooZQ3Axs_4core3ops4drop4Drop4dropINtB2_9DropGuardTNtNtCs6IAuOt8vWmF_3syn3pat3PatNtNtB25_4expr4ExprENtNtBc_5alloc6GlobalEB12_4dropCs8XcImbZQYrD_13futures_macro, symObjAddr: 0x1C98, symBinAddr: 0x158B0, symSize: 0x7C }
  - { offset: 0x451C4, size: 0x8, addend: 0x0, symName: __RNvXsd_NtNtCse1nGBsou5OW_5alloc3vec9into_iterINtB5_8IntoIterNtNtCs6IAuOt8vWmF_3syn4expr4ExprENtNtNtCsfvfooZQ3Axs_4core3ops4drop4Drop4dropCs8XcImbZQYrD_13futures_macro, symObjAddr: 0x2CFC, symBinAddr: 0x16914, symSize: 0x98 }
  - { offset: 0x4525E, size: 0x8, addend: 0x0, symName: __RNvXsd_NtNtCse1nGBsou5OW_5alloc3vec9into_iterINtB5_8IntoIterTNtNtCs6IAuOt8vWmF_3syn3pat3PatNtNtB11_4expr4ExprEENtNtNtCsfvfooZQ3Axs_4core3ops4drop4Drop4dropCs8XcImbZQYrD_13futures_macro, symObjAddr: 0x2D94, symBinAddr: 0x169AC, symSize: 0x98 }
  - { offset: 0x452FE, size: 0x8, addend: 0x0, symName: __RNvXsf_NtNtCse1nGBsou5OW_5alloc3vec9into_iterINtB5_8IntoIterNtNtCs6IAuOt8vWmF_3syn4expr4ExprENtNtNtCsfvfooZQ3Axs_4core4iter8adapters10SourceIter8as_innerCs8XcImbZQYrD_13futures_macro, symObjAddr: 0x2FF4, symBinAddr: 0x16C0C, symSize: 0x14 }
  - { offset: 0x45344, size: 0x8, addend: 0x0, symName: __RNvXsg_NtNtCse1nGBsou5OW_5alloc3vec9into_iterINtB5_8IntoIterNtNtCs6IAuOt8vWmF_3syn4expr4ExprENtNtB7_16in_place_collect13AsVecIntoIter12as_into_iterCs8XcImbZQYrD_13futures_macro, symObjAddr: 0x3008, symBinAddr: 0x16C20, symSize: 0x14 }
  - { offset: 0x45417, size: 0x8, addend: 0x0, symName: __RNvXs0_NtNtCse1nGBsou5OW_5alloc3vec13in_place_dropINtB5_24InPlaceDstDataSrcBufDropNtNtCs6IAuOt8vWmF_3syn4expr4ExprNtB1k_8ExprPathENtNtNtCsfvfooZQ3Axs_4core3ops4drop4Drop4dropCs8XcImbZQYrD_13futures_macro, symObjAddr: 0x1D14, symBinAddr: 0x1592C, symSize: 0xB8 }
  - { offset: 0x4555D, size: 0x8, addend: 0x0, symName: __RNvXs0_NtNtCse1nGBsou5OW_5alloc3vec13in_place_dropINtB5_24InPlaceDstDataSrcBufDropNtNtCs6IAuOt8vWmF_3syn4expr4ExprNtCs3cP53eQoTwO_11proc_macro25IdentENtNtNtCsfvfooZQ3Axs_4core3ops4drop4Drop4dropCs8XcImbZQYrD_13futures_macro, symObjAddr: 0x1DCC, symBinAddr: 0x159E4, symSize: 0xB8 }
  - { offset: 0x456A9, size: 0x8, addend: 0x0, symName: __RNvXs_NtNtCse1nGBsou5OW_5alloc3vec13in_place_dropINtB4_11InPlaceDropNtCs3cP53eQoTwO_11proc_macro25IdentENtNtNtCsfvfooZQ3Axs_4core3ops4drop4Drop4dropCs8XcImbZQYrD_13futures_macro, symObjAddr: 0x23C8, symBinAddr: 0x15FE0, symSize: 0x68 }
  - { offset: 0x456FF, size: 0x8, addend: 0x0, symName: __RNvXs_NtNtCse1nGBsou5OW_5alloc3vec13in_place_dropINtB4_11InPlaceDropNtNtCs6IAuOt8vWmF_3syn4expr8ExprPathENtNtNtCsfvfooZQ3Axs_4core3ops4drop4Drop4dropCs8XcImbZQYrD_13futures_macro, symObjAddr: 0x2430, symBinAddr: 0x16048, symSize: 0x68 }
  - { offset: 0x45810, size: 0x8, addend: 0x0, symName: __RNvXs_NtNtCse1nGBsou5OW_5alloc3vec16in_place_collectINtB6_3VecNtCs3cP53eQoTwO_11proc_macro25IdentEINtNtB6_14spec_from_iter12SpecFromIterBY_INtNtNtNtCsfvfooZQ3Axs_4core4iter8adapters3map3MapINtNtB2i_9enumerate9EnumerateINtNtB6_9into_iter8IntoIterNtNtCs6IAuOt8vWmF_3syn4expr4ExprEENCNvNtCs8XcImbZQYrD_13futures_macro4join12bind_futures0EE9from_iterB4z_, symObjAddr: 0x2498, symBinAddr: 0x160B0, symSize: 0x28 }
  - { offset: 0x4586C, size: 0x8, addend: 0x0, symName: __RNvXs_NtNtCse1nGBsou5OW_5alloc3vec16in_place_collectINtB6_3VecNtNtCs6IAuOt8vWmF_3syn4expr8ExprPathEINtNtB6_14spec_from_iter12SpecFromIterBY_INtNtNtNtCsfvfooZQ3Axs_4core4iter8adapters3map3MapINtNtB2j_3zip3ZipINtNtB6_9into_iter8IntoIterNtB10_4ExprEINtNtNtB2n_5slice4iter4IterNtCs3cP53eQoTwO_11proc_macro25IdentEENCNvNtCs8XcImbZQYrD_13futures_macro6select12select_inner0EE9from_iterB54_, symObjAddr: 0x24C0, symBinAddr: 0x160D8, symSize: 0x28 }
  - { offset: 0x459FE, size: 0x8, addend: 0x0, symName: __RINvXsd_NtCse1nGBsou5OW_5alloc3vecINtB6_3VecNtCs3cP53eQoTwO_11proc_macro25IdentEINtNtNtNtCsfvfooZQ3Axs_4core4iter6traits7collect12FromIteratorBG_E9from_iterINtNtNtB1n_8adapters3map3MapINtNtB2z_9enumerate9EnumerateINtNtB6_9into_iter8IntoIterNtNtCs6IAuOt8vWmF_3syn4expr4ExprEENCNvNtCs8XcImbZQYrD_13futures_macro4join12bind_futures0EEB4u_, symObjAddr: 0xC38, symBinAddr: 0x14850, symSize: 0x3C }
  - { offset: 0x45A3F, size: 0x8, addend: 0x0, symName: __RINvXsd_NtCse1nGBsou5OW_5alloc3vecINtB6_3VecNtCs3cP53eQoTwO_11proc_macro25IdentEINtNtNtNtCsfvfooZQ3Axs_4core4iter6traits7collect12FromIteratorBG_E9from_iterINtNtNtB1n_8adapters3map3MapINtNtNtB1p_3ops5range5RangejENCNvNtCs8XcImbZQYrD_13futures_macro13stream_select13stream_select0EEB3v_, symObjAddr: 0xC74, symBinAddr: 0x1488C, symSize: 0x38 }
  - { offset: 0x45A7F, size: 0x8, addend: 0x0, symName: __RINvXsd_NtCse1nGBsou5OW_5alloc3vecINtB6_3VecNtCs3cP53eQoTwO_11proc_macro25IdentEINtNtNtNtCsfvfooZQ3Axs_4core4iter6traits7collect12FromIteratorBG_E9from_iterINtNtNtB1n_8adapters3map3MapINtNtNtB1p_3ops5range5RangejENCNvNtCs8XcImbZQYrD_13futures_macro13stream_select13stream_selects0_0EEB3v_, symObjAddr: 0xCAC, symBinAddr: 0x148C4, symSize: 0x38 }
  - { offset: 0x45ABF, size: 0x8, addend: 0x0, symName: __RINvXsd_NtCse1nGBsou5OW_5alloc3vecINtB6_3VecNtCs3cP53eQoTwO_11proc_macro25IdentEINtNtNtNtCsfvfooZQ3Axs_4core4iter6traits7collect12FromIteratorBG_E9from_iterINtNtNtB1n_8adapters3map3MapINtNtNtB1p_3ops5range5RangejENCNvNtCs8XcImbZQYrD_13futures_macro13stream_select13stream_selects_0EEB3v_, symObjAddr: 0xCE4, symBinAddr: 0x148FC, symSize: 0x38 }
  - { offset: 0x45AFF, size: 0x8, addend: 0x0, symName: __RINvXsd_NtCse1nGBsou5OW_5alloc3vecINtB6_3VecNtCs3cP53eQoTwO_11proc_macro25IdentEINtNtNtNtCsfvfooZQ3Axs_4core4iter6traits7collect12FromIteratorBG_E9from_iterINtNtNtB1n_8adapters3map3MapINtNtNtB1p_3ops5range5RangejENCNvNtCs8XcImbZQYrD_13futures_macro6select19declare_result_enum0EEB3v_, symObjAddr: 0xD1C, symBinAddr: 0x14934, symSize: 0x3C }
  - { offset: 0x45B40, size: 0x8, addend: 0x0, symName: __RINvXsd_NtCse1nGBsou5OW_5alloc3vecINtB6_3VecNtNtCs6IAuOt8vWmF_3syn4expr5IndexEINtNtNtNtCsfvfooZQ3Axs_4core4iter6traits7collect12FromIteratorBG_E9from_iterINtNtNtB1l_8adapters3map3MapINtNtNtB1n_3ops5range5RangejENvYBG_INtNtB1n_7convert4FromjE4fromEECs8XcImbZQYrD_13futures_macro, symObjAddr: 0xD58, symBinAddr: 0x14970, symSize: 0x38 }
  - { offset: 0x45B80, size: 0x8, addend: 0x0, symName: __RINvXsd_NtCse1nGBsou5OW_5alloc3vecINtB6_3VecNtNtCs6IAuOt8vWmF_3syn4expr8ExprPathEINtNtNtNtCsfvfooZQ3Axs_4core4iter6traits7collect12FromIteratorBG_E9from_iterINtNtNtB1o_8adapters3map3MapINtNtB2A_3zip3ZipINtNtB6_9into_iter8IntoIterNtBI_4ExprEINtNtNtB1q_5slice4iter4IterNtCs3cP53eQoTwO_11proc_macro25IdentEENCNvNtCs8XcImbZQYrD_13futures_macro6select12select_inner0EEB4Y_, symObjAddr: 0xD90, symBinAddr: 0x149A8, symSize: 0x3C }
  - { offset: 0x45BCC, size: 0x8, addend: 0x0, symName: __RNCINvMsi_NtCse1nGBsou5OW_5alloc3vecINtB8_3VecNtCs3cP53eQoTwO_11proc_macro25IdentE14extend_trustedINtNtNtNtCsfvfooZQ3Axs_4core4iter8adapters3map3MapINtNtNtB1H_3ops5range5RangejENCNvNtCs8XcImbZQYrD_13futures_macro13stream_select13stream_select0EE0B2V_, symObjAddr: 0xFAC, symBinAddr: 0x14BC4, symSize: 0x44 }
  - { offset: 0x45C79, size: 0x8, addend: 0x0, symName: __RNCINvMsi_NtCse1nGBsou5OW_5alloc3vecINtB8_3VecNtCs3cP53eQoTwO_11proc_macro25IdentE14extend_trustedINtNtNtNtCsfvfooZQ3Axs_4core4iter8adapters3map3MapINtNtNtB1H_3ops5range5RangejENCNvNtCs8XcImbZQYrD_13futures_macro13stream_select13stream_selects0_0EE0B2V_, symObjAddr: 0xFF0, symBinAddr: 0x14C08, symSize: 0x44 }
  - { offset: 0x45D26, size: 0x8, addend: 0x0, symName: __RNCINvMsi_NtCse1nGBsou5OW_5alloc3vecINtB8_3VecNtCs3cP53eQoTwO_11proc_macro25IdentE14extend_trustedINtNtNtNtCsfvfooZQ3Axs_4core4iter8adapters3map3MapINtNtNtB1H_3ops5range5RangejENCNvNtCs8XcImbZQYrD_13futures_macro13stream_select13stream_selects_0EE0B2V_, symObjAddr: 0x1034, symBinAddr: 0x14C4C, symSize: 0x44 }
  - { offset: 0x45DD3, size: 0x8, addend: 0x0, symName: __RNCINvMsi_NtCse1nGBsou5OW_5alloc3vecINtB8_3VecNtCs3cP53eQoTwO_11proc_macro25IdentE14extend_trustedINtNtNtNtCsfvfooZQ3Axs_4core4iter8adapters3map3MapINtNtNtB1H_3ops5range5RangejENCNvNtCs8XcImbZQYrD_13futures_macro6select19declare_result_enum0EE0B2V_, symObjAddr: 0x1078, symBinAddr: 0x14C90, symSize: 0x44 }
  - { offset: 0x45E80, size: 0x8, addend: 0x0, symName: __RNCINvMsi_NtCse1nGBsou5OW_5alloc3vecINtB8_3VecNtNtCs6IAuOt8vWmF_3syn4expr5IndexE14extend_trustedINtNtNtNtCsfvfooZQ3Axs_4core4iter8adapters3map3MapINtNtNtB1F_3ops5range5RangejENvYBI_INtNtB1F_7convert4FromjE4fromEE0Cs8XcImbZQYrD_13futures_macro, symObjAddr: 0x10BC, symBinAddr: 0x14CD4, symSize: 0x3C }
  - { offset: 0x4618A, size: 0x8, addend: 0x0, symName: __RNvXNtNtCse1nGBsou5OW_5alloc3vec14spec_from_iterINtB4_3VecNtCs3cP53eQoTwO_11proc_macro25IdentEINtB2_12SpecFromIterBU_INtNtNtNtCsfvfooZQ3Axs_4core4iter8adapters3map3MapINtNtNtB20_3ops5range5RangejENCNvNtCs8XcImbZQYrD_13futures_macro13stream_select13stream_select0EE9from_iterB3e_, symObjAddr: 0x1B78, symBinAddr: 0x15790, symSize: 0x24 }
  - { offset: 0x461C8, size: 0x8, addend: 0x0, symName: __RNvXNtNtCse1nGBsou5OW_5alloc3vec14spec_from_iterINtB4_3VecNtCs3cP53eQoTwO_11proc_macro25IdentEINtB2_12SpecFromIterBU_INtNtNtNtCsfvfooZQ3Axs_4core4iter8adapters3map3MapINtNtNtB20_3ops5range5RangejENCNvNtCs8XcImbZQYrD_13futures_macro13stream_select13stream_selects0_0EE9from_iterB3e_, symObjAddr: 0x1B9C, symBinAddr: 0x157B4, symSize: 0x24 }
  - { offset: 0x46206, size: 0x8, addend: 0x0, symName: __RNvXNtNtCse1nGBsou5OW_5alloc3vec14spec_from_iterINtB4_3VecNtCs3cP53eQoTwO_11proc_macro25IdentEINtB2_12SpecFromIterBU_INtNtNtNtCsfvfooZQ3Axs_4core4iter8adapters3map3MapINtNtNtB20_3ops5range5RangejENCNvNtCs8XcImbZQYrD_13futures_macro13stream_select13stream_selects_0EE9from_iterB3e_, symObjAddr: 0x1BC0, symBinAddr: 0x157D8, symSize: 0x24 }
  - { offset: 0x46244, size: 0x8, addend: 0x0, symName: __RNvXNtNtCse1nGBsou5OW_5alloc3vec14spec_from_iterINtB4_3VecNtCs3cP53eQoTwO_11proc_macro25IdentEINtB2_12SpecFromIterBU_INtNtNtNtCsfvfooZQ3Axs_4core4iter8adapters3map3MapINtNtNtB20_3ops5range5RangejENCNvNtCs8XcImbZQYrD_13futures_macro6select19declare_result_enum0EE9from_iterB3e_, symObjAddr: 0x1BE4, symBinAddr: 0x157FC, symSize: 0x14 }
  - { offset: 0x46283, size: 0x8, addend: 0x0, symName: __RNvXNtNtCse1nGBsou5OW_5alloc3vec14spec_from_iterINtB4_3VecNtNtCs6IAuOt8vWmF_3syn4expr5IndexEINtB2_12SpecFromIterBU_INtNtNtNtCsfvfooZQ3Axs_4core4iter8adapters3map3MapINtNtNtB1Y_3ops5range5RangejENvYBU_INtNtB1Y_7convert4FromjE4fromEE9from_iterCs8XcImbZQYrD_13futures_macro, symObjAddr: 0x1BF8, symBinAddr: 0x15810, symSize: 0x24 }
  - { offset: 0x462C8, size: 0x8, addend: 0x0, symName: __RNvXs6_NtCse1nGBsou5OW_5alloc3vecINtB5_3VecNtCs3cP53eQoTwO_11proc_macro211TokenStreamENtNtNtCsfvfooZQ3Axs_4core3ops5deref5Deref5derefCs8XcImbZQYrD_13futures_macro, symObjAddr: 0x221C, symBinAddr: 0x15E34, symSize: 0x24 }
  - { offset: 0x46308, size: 0x8, addend: 0x0, symName: __RNvXs6_NtCse1nGBsou5OW_5alloc3vecINtB5_3VecNtCs3cP53eQoTwO_11proc_macro25IdentENtNtNtCsfvfooZQ3Axs_4core3ops5deref5Deref5derefCs8XcImbZQYrD_13futures_macro, symObjAddr: 0x2240, symBinAddr: 0x15E58, symSize: 0x24 }
  - { offset: 0x46348, size: 0x8, addend: 0x0, symName: __RNvXs6_NtCse1nGBsou5OW_5alloc3vecINtB5_3VecNtNtCs6IAuOt8vWmF_3syn4expr5IndexENtNtNtCsfvfooZQ3Axs_4core3ops5deref5Deref5derefCs8XcImbZQYrD_13futures_macro, symObjAddr: 0x2264, symBinAddr: 0x15E7C, symSize: 0x24 }
  - { offset: 0x46388, size: 0x8, addend: 0x0, symName: __RNvXs6_NtCse1nGBsou5OW_5alloc3vecINtB5_3VecNtNtCs6IAuOt8vWmF_3syn4expr8ExprPathENtNtNtCsfvfooZQ3Axs_4core3ops5deref5Deref5derefCs8XcImbZQYrD_13futures_macro, symObjAddr: 0x2288, symBinAddr: 0x15EA0, symSize: 0x24 }
  - { offset: 0x463C8, size: 0x8, addend: 0x0, symName: __RNvXs6_NtCse1nGBsou5OW_5alloc3vecINtB5_3VecNtNtCs6IAuOt8vWmF_3syn4stmt4StmtENtNtNtCsfvfooZQ3Axs_4core3ops5deref5Deref5derefCs8XcImbZQYrD_13futures_macro, symObjAddr: 0x22AC, symBinAddr: 0x15EC4, symSize: 0x24 }
  - { offset: 0x46413, size: 0x8, addend: 0x0, symName: __RNvXs_NtNtCse1nGBsou5OW_5alloc3vec11spec_extendINtB6_3VecNtCs3cP53eQoTwO_11proc_macro25IdentEINtB4_10SpecExtendBT_INtNtNtNtCsfvfooZQ3Axs_4core4iter8adapters3map3MapINtNtNtB1X_3ops5range5RangejENCNvNtCs8XcImbZQYrD_13futures_macro13stream_select13stream_select0EE11spec_extendB3b_, symObjAddr: 0x22F4, symBinAddr: 0x15F0C, symSize: 0x2C }
  - { offset: 0x46464, size: 0x8, addend: 0x0, symName: __RNvXs_NtNtCse1nGBsou5OW_5alloc3vec11spec_extendINtB6_3VecNtCs3cP53eQoTwO_11proc_macro25IdentEINtB4_10SpecExtendBT_INtNtNtNtCsfvfooZQ3Axs_4core4iter8adapters3map3MapINtNtNtB1X_3ops5range5RangejENCNvNtCs8XcImbZQYrD_13futures_macro13stream_select13stream_selects0_0EE11spec_extendB3b_, symObjAddr: 0x2320, symBinAddr: 0x15F38, symSize: 0x2C }
  - { offset: 0x464B5, size: 0x8, addend: 0x0, symName: __RNvXs_NtNtCse1nGBsou5OW_5alloc3vec11spec_extendINtB6_3VecNtCs3cP53eQoTwO_11proc_macro25IdentEINtB4_10SpecExtendBT_INtNtNtNtCsfvfooZQ3Axs_4core4iter8adapters3map3MapINtNtNtB1X_3ops5range5RangejENCNvNtCs8XcImbZQYrD_13futures_macro13stream_select13stream_selects_0EE11spec_extendB3b_, symObjAddr: 0x234C, symBinAddr: 0x15F64, symSize: 0x2C }
  - { offset: 0x46506, size: 0x8, addend: 0x0, symName: __RNvXs_NtNtCse1nGBsou5OW_5alloc3vec11spec_extendINtB6_3VecNtCs3cP53eQoTwO_11proc_macro25IdentEINtB4_10SpecExtendBT_INtNtNtNtCsfvfooZQ3Axs_4core4iter8adapters3map3MapINtNtNtB1X_3ops5range5RangejENCNvNtCs8XcImbZQYrD_13futures_macro6select19declare_result_enum0EE11spec_extendB3b_, symObjAddr: 0x2378, symBinAddr: 0x15F90, symSize: 0x24 }
  - { offset: 0x46558, size: 0x8, addend: 0x0, symName: __RNvXs_NtNtCse1nGBsou5OW_5alloc3vec11spec_extendINtB6_3VecNtNtCs6IAuOt8vWmF_3syn4expr5IndexEINtB4_10SpecExtendBT_INtNtNtNtCsfvfooZQ3Axs_4core4iter8adapters3map3MapINtNtNtB1V_3ops5range5RangejENvYBT_INtNtB1V_7convert4FromjE4fromEE11spec_extendCs8XcImbZQYrD_13futures_macro, symObjAddr: 0x239C, symBinAddr: 0x15FB4, symSize: 0x2C }
  - { offset: 0x465B5, size: 0x8, addend: 0x0, symName: __RNvXs_NtNtCse1nGBsou5OW_5alloc3vec21spec_from_iter_nestedINtB6_3VecNtCs3cP53eQoTwO_11proc_macro25IdentEINtB4_18SpecFromIterNestedB13_INtNtNtNtCsfvfooZQ3Axs_4core4iter8adapters3map3MapINtNtNtB2g_3ops5range5RangejENCNvNtCs8XcImbZQYrD_13futures_macro13stream_select13stream_select0EE9from_iterB3u_, symObjAddr: 0x24E8, symBinAddr: 0x16100, symSize: 0x168 }
  - { offset: 0x4668B, size: 0x8, addend: 0x0, symName: __RNvXs_NtNtCse1nGBsou5OW_5alloc3vec21spec_from_iter_nestedINtB6_3VecNtCs3cP53eQoTwO_11proc_macro25IdentEINtB4_18SpecFromIterNestedB13_INtNtNtNtCsfvfooZQ3Axs_4core4iter8adapters3map3MapINtNtNtB2g_3ops5range5RangejENCNvNtCs8XcImbZQYrD_13futures_macro13stream_select13stream_selects0_0EE9from_iterB3u_, symObjAddr: 0x2650, symBinAddr: 0x16268, symSize: 0x168 }
  - { offset: 0x46761, size: 0x8, addend: 0x0, symName: __RNvXs_NtNtCse1nGBsou5OW_5alloc3vec21spec_from_iter_nestedINtB6_3VecNtCs3cP53eQoTwO_11proc_macro25IdentEINtB4_18SpecFromIterNestedB13_INtNtNtNtCsfvfooZQ3Axs_4core4iter8adapters3map3MapINtNtNtB2g_3ops5range5RangejENCNvNtCs8XcImbZQYrD_13futures_macro13stream_select13stream_selects_0EE9from_iterB3u_, symObjAddr: 0x27B8, symBinAddr: 0x163D0, symSize: 0x168 }
  - { offset: 0x46837, size: 0x8, addend: 0x0, symName: __RNvXs_NtNtCse1nGBsou5OW_5alloc3vec21spec_from_iter_nestedINtB6_3VecNtCs3cP53eQoTwO_11proc_macro25IdentEINtB4_18SpecFromIterNestedB13_INtNtNtNtCsfvfooZQ3Axs_4core4iter8adapters3map3MapINtNtNtB2g_3ops5range5RangejENCNvNtCs8XcImbZQYrD_13futures_macro6select19declare_result_enum0EE9from_iterB3u_, symObjAddr: 0x2920, symBinAddr: 0x16538, symSize: 0x16C }
  - { offset: 0x4690E, size: 0x8, addend: 0x0, symName: __RNvXs_NtNtCse1nGBsou5OW_5alloc3vec21spec_from_iter_nestedINtB6_3VecNtNtCs6IAuOt8vWmF_3syn4expr5IndexEINtB4_18SpecFromIterNestedB13_INtNtNtNtCsfvfooZQ3Axs_4core4iter8adapters3map3MapINtNtNtB2e_3ops5range5RangejENvYB13_INtNtB2e_7convert4FromjE4fromEE9from_iterCs8XcImbZQYrD_13futures_macro, symObjAddr: 0x2A8C, symBinAddr: 0x166A4, symSize: 0x168 }
  - { offset: 0x469EB, size: 0x8, addend: 0x0, symName: __RNvXse_NtCse1nGBsou5OW_5alloc3vecINtB5_3VecNtNtCs6IAuOt8vWmF_3syn4expr4ExprENtNtNtNtCsfvfooZQ3Axs_4core4iter6traits7collect12IntoIterator9into_iterCs8XcImbZQYrD_13futures_macro, symObjAddr: 0x2E2C, symBinAddr: 0x16A44, symSize: 0xE4 }
  - { offset: 0x46C7D, size: 0x8, addend: 0x0, symName: __RNvXse_NtCse1nGBsou5OW_5alloc3vecINtB5_3VecTNtNtCs6IAuOt8vWmF_3syn3pat3PatNtNtBK_4expr4ExprEENtNtNtNtCsfvfooZQ3Axs_4core4iter6traits7collect12IntoIterator9into_iterCs8XcImbZQYrD_13futures_macro, symObjAddr: 0x2F10, symBinAddr: 0x16B28, symSize: 0xE4 }
  - { offset: 0x46F15, size: 0x8, addend: 0x0, symName: __RNvXsn_NtCse1nGBsou5OW_5alloc3vecINtB5_3VecNtCs3cP53eQoTwO_11proc_macro211TokenStreamENtNtNtCsfvfooZQ3Axs_4core3ops4drop4Drop4dropCs8XcImbZQYrD_13futures_macro, symObjAddr: 0x3E80, symBinAddr: 0x17A98, symSize: 0x38 }
  - { offset: 0x46FC5, size: 0x8, addend: 0x0, symName: __RNvXsn_NtCse1nGBsou5OW_5alloc3vecINtB5_3VecNtCs3cP53eQoTwO_11proc_macro25IdentENtNtNtCsfvfooZQ3Axs_4core3ops4drop4Drop4dropCs8XcImbZQYrD_13futures_macro, symObjAddr: 0x3EB8, symBinAddr: 0x17AD0, symSize: 0x38 }
  - { offset: 0x47075, size: 0x8, addend: 0x0, symName: __RNvXsn_NtCse1nGBsou5OW_5alloc3vecINtB5_3VecNtNtCs6IAuOt8vWmF_3syn4expr4ExprENtNtNtCsfvfooZQ3Axs_4core3ops4drop4Drop4dropCs8XcImbZQYrD_13futures_macro, symObjAddr: 0x3EF0, symBinAddr: 0x17B08, symSize: 0x38 }
  - { offset: 0x47125, size: 0x8, addend: 0x0, symName: __RNvXsn_NtCse1nGBsou5OW_5alloc3vecINtB5_3VecNtNtCs6IAuOt8vWmF_3syn4expr5IndexENtNtNtCsfvfooZQ3Axs_4core3ops4drop4Drop4dropCs8XcImbZQYrD_13futures_macro, symObjAddr: 0x3F28, symBinAddr: 0x17B40, symSize: 0x24 }
  - { offset: 0x471D5, size: 0x8, addend: 0x0, symName: __RNvXsn_NtCse1nGBsou5OW_5alloc3vecINtB5_3VecNtNtCs6IAuOt8vWmF_3syn4expr8ExprPathENtNtNtCsfvfooZQ3Axs_4core3ops4drop4Drop4dropCs8XcImbZQYrD_13futures_macro, symObjAddr: 0x3F4C, symBinAddr: 0x17B64, symSize: 0x38 }
  - { offset: 0x47285, size: 0x8, addend: 0x0, symName: __RNvXsn_NtCse1nGBsou5OW_5alloc3vecINtB5_3VecTNtNtCs6IAuOt8vWmF_3syn3pat3PatNtNtBK_4expr4ExprEENtNtNtCsfvfooZQ3Axs_4core3ops4drop4Drop4dropCs8XcImbZQYrD_13futures_macro, symObjAddr: 0x3F84, symBinAddr: 0x17B9C, symSize: 0x38 }
  - { offset: 0x4733B, size: 0x8, addend: 0x0, symName: __RNvXso_NtCse1nGBsou5OW_5alloc3vecINtB5_3VecNtNtCs6IAuOt8vWmF_3syn4expr4ExprENtNtCsfvfooZQ3Axs_4core7default7Default7defaultCs8XcImbZQYrD_13futures_macro, symObjAddr: 0x3FBC, symBinAddr: 0x17BD4, symSize: 0x14 }
  - { offset: 0x4735D, size: 0x8, addend: 0x0, symName: __RNvXso_NtCse1nGBsou5OW_5alloc3vecINtB5_3VecNtNtCs6IAuOt8vWmF_3syn4expr4ExprENtNtCsfvfooZQ3Axs_4core7default7Default7defaultCs8XcImbZQYrD_13futures_macro, symObjAddr: 0x3FBC, symBinAddr: 0x17BD4, symSize: 0x14 }
  - { offset: 0x4839E, size: 0x8, addend: 0x0, symName: __RINvMs9_NtCs6IAuOt8vWmF_3syn5parseNtB6_11ParseBuffer4peekINvNtNtCs8XcImbZQYrD_13futures_macro6select2kw8completeNtNtB8_9lookahead11TokenMarkerEEB10_, symObjAddr: 0x0, symBinAddr: 0x13C18, symSize: 0x38 }
  - { offset: 0x483D9, size: 0x8, addend: 0x0, symName: __RINvMs9_NtCs6IAuOt8vWmF_3syn5parseNtB6_11ParseBuffer4stepNCNvXs0_NvNtNtCs8XcImbZQYrD_13futures_macro6select2kw1__NtB13_8completeNtB6_5Parse5parse0B1N_EB17_, symObjAddr: 0x38, symBinAddr: 0x13C50, symSize: 0x18C }
  - { offset: 0x48463, size: 0x8, addend: 0x0, symName: __RINvMs9_NtCs6IAuOt8vWmF_3syn5parseNtB6_11ParseBuffer5parseNtNtNtCs8XcImbZQYrD_13futures_macro6select2kw8completeEB10_, symObjAddr: 0x1C4, symBinAddr: 0x13DDC, symSize: 0x34 }
  - { offset: 0x48540, size: 0x8, addend: 0x0, symName: __RNvXs4_NtNtCs2cqEZUIJimJ_5quote9___private3extINtNtCse1nGBsou5OW_5alloc3vec3VecNtCs3cP53eQoTwO_11proc_macro211TokenStreamENtB5_16RepAsIteratorExt15quote_into_iterCs8XcImbZQYrD_13futures_macro, symObjAddr: 0x2174, symBinAddr: 0x15D8C, symSize: 0x38 }
  - { offset: 0x48575, size: 0x8, addend: 0x0, symName: __RNvXs4_NtNtCs2cqEZUIJimJ_5quote9___private3extINtNtCse1nGBsou5OW_5alloc3vec3VecNtCs3cP53eQoTwO_11proc_macro25IdentENtB5_16RepAsIteratorExt15quote_into_iterCs8XcImbZQYrD_13futures_macro, symObjAddr: 0x21AC, symBinAddr: 0x15DC4, symSize: 0x38 }
  - { offset: 0x485AA, size: 0x8, addend: 0x0, symName: __RNvXs4_NtNtCs2cqEZUIJimJ_5quote9___private3extINtNtCse1nGBsou5OW_5alloc3vec3VecNtNtCs6IAuOt8vWmF_3syn4expr5IndexENtB5_16RepAsIteratorExt15quote_into_iterCs8XcImbZQYrD_13futures_macro, symObjAddr: 0x21E4, symBinAddr: 0x15DFC, symSize: 0x38 }
  - { offset: 0x4863D, size: 0x8, addend: 0x0, symName: __RINvMs_NtNtCsfvfooZQ3Axs_4core3fmt2rtNtB5_8Argument11new_displayINtNtCs2cqEZUIJimJ_5quote9___private20IdentFragmentAdapterRjEECs8XcImbZQYrD_13futures_macro, symObjAddr: 0x1F8, symBinAddr: 0x13E10, symSize: 0x2C }
  - { offset: 0x4884F, size: 0x8, addend: 0x0, symName: __RINvMsi_NtCse1nGBsou5OW_5alloc3vecINtB6_3VecNtCs3cP53eQoTwO_11proc_macro25IdentE14extend_trustedINtNtNtNtCsfvfooZQ3Axs_4core4iter8adapters3map3MapINtNtNtB1F_3ops5range5RangejENCNvNtCs8XcImbZQYrD_13futures_macro13stream_select13stream_select0EEB2T_, symObjAddr: 0x224, symBinAddr: 0x13E3C, symSize: 0x170 }
  - { offset: 0x48AEC, size: 0x8, addend: 0x0, symName: __RINvMsi_NtCse1nGBsou5OW_5alloc3vecINtB6_3VecNtCs3cP53eQoTwO_11proc_macro25IdentE14extend_trustedINtNtNtNtCsfvfooZQ3Axs_4core4iter8adapters3map3MapINtNtNtB1F_3ops5range5RangejENCNvNtCs8XcImbZQYrD_13futures_macro13stream_select13stream_selects0_0EEB2T_, symObjAddr: 0x394, symBinAddr: 0x13FAC, symSize: 0x170 }
  - { offset: 0x48D89, size: 0x8, addend: 0x0, symName: __RINvMsi_NtCse1nGBsou5OW_5alloc3vecINtB6_3VecNtCs3cP53eQoTwO_11proc_macro25IdentE14extend_trustedINtNtNtNtCsfvfooZQ3Axs_4core4iter8adapters3map3MapINtNtNtB1F_3ops5range5RangejENCNvNtCs8XcImbZQYrD_13futures_macro13stream_select13stream_selects_0EEB2T_, symObjAddr: 0x504, symBinAddr: 0x1411C, symSize: 0x170 }
  - { offset: 0x49033, size: 0x8, addend: 0x0, symName: __RINvMsi_NtCse1nGBsou5OW_5alloc3vecINtB6_3VecNtCs3cP53eQoTwO_11proc_macro25IdentE14extend_trustedINtNtNtNtCsfvfooZQ3Axs_4core4iter8adapters3map3MapINtNtNtB1F_3ops5range5RangejENCNvNtCs8XcImbZQYrD_13futures_macro6select19declare_result_enum0EEB2T_, symObjAddr: 0x674, symBinAddr: 0x1428C, symSize: 0x17C }
  - { offset: 0x4931D, size: 0x8, addend: 0x0, symName: __RINvMsi_NtCse1nGBsou5OW_5alloc3vecINtB6_3VecNtNtCs6IAuOt8vWmF_3syn4expr5IndexE14extend_trustedINtNtNtNtCsfvfooZQ3Axs_4core4iter8adapters3map3MapINtNtNtB1D_3ops5range5RangejENvYBG_INtNtB1D_7convert4FromjE4fromEECs8XcImbZQYrD_13futures_macro, symObjAddr: 0x7F0, symBinAddr: 0x14408, symSize: 0x170 }
  - { offset: 0x49C47, size: 0x8, addend: 0x0, symName: __RNvMNtCse1nGBsou5OW_5alloc3vecINtB2_3VecNtCs3cP53eQoTwO_11proc_macro211TokenStreamE13with_capacityCs8XcImbZQYrD_13futures_macro, symObjAddr: 0x1224, symBinAddr: 0x14E3C, symSize: 0x48 }
  - { offset: 0x49CBF, size: 0x8, addend: 0x0, symName: __RNvMNtCse1nGBsou5OW_5alloc3vecINtB2_3VecNtNtCs6IAuOt8vWmF_3syn4expr4ExprE3newCs8XcImbZQYrD_13futures_macro, symObjAddr: 0x126C, symBinAddr: 0x14E84, symSize: 0x14 }
  - { offset: 0x49CDC, size: 0x8, addend: 0x0, symName: __RNvMNtCse1nGBsou5OW_5alloc3vecINtB2_3VecTNtNtCs6IAuOt8vWmF_3syn3pat3PatNtNtBH_4expr4ExprEE3newCs8XcImbZQYrD_13futures_macro, symObjAddr: 0x1280, symBinAddr: 0x14E98, symSize: 0x14 }
  - { offset: 0x49D06, size: 0x8, addend: 0x0, symName: __RNvMNtNtCse1nGBsou5OW_5alloc3vec13in_place_dropINtB2_11InPlaceDropNtCs3cP53eQoTwO_11proc_macro25IdentE3lenCs8XcImbZQYrD_13futures_macro, symObjAddr: 0x1294, symBinAddr: 0x14EAC, symSize: 0x7C }
  - { offset: 0x49DCE, size: 0x8, addend: 0x0, symName: __RNvMNtNtCse1nGBsou5OW_5alloc3vec13in_place_dropINtB2_11InPlaceDropNtNtCs6IAuOt8vWmF_3syn4expr8ExprPathE3lenCs8XcImbZQYrD_13futures_macro, symObjAddr: 0x1310, symBinAddr: 0x14F28, symSize: 0x7C }
  - { offset: 0x49F75, size: 0x8, addend: 0x0, symName: __RNvMs_NtCse1nGBsou5OW_5alloc3vecINtB4_3VecNtCs3cP53eQoTwO_11proc_macro211TokenStreamE4pushCs8XcImbZQYrD_13futures_macro, symObjAddr: 0x138C, symBinAddr: 0x14FA4, symSize: 0x100 }
  - { offset: 0x4A1CD, size: 0x8, addend: 0x0, symName: __RNvMs_NtCse1nGBsou5OW_5alloc3vecINtB4_3VecNtCs3cP53eQoTwO_11proc_macro211TokenStreamE8as_sliceCs8XcImbZQYrD_13futures_macro, symObjAddr: 0x148C, symBinAddr: 0x150A4, symSize: 0x64 }
  - { offset: 0x4A3B7, size: 0x8, addend: 0x0, symName: __RNvMs_NtCse1nGBsou5OW_5alloc3vecINtB4_3VecNtCs3cP53eQoTwO_11proc_macro25IdentE7reserveCs8XcImbZQYrD_13futures_macro, symObjAddr: 0x14F0, symBinAddr: 0x15108, symSize: 0xC8 }
  - { offset: 0x4A5C2, size: 0x8, addend: 0x0, symName: __RNvMs_NtCse1nGBsou5OW_5alloc3vecINtB4_3VecNtCs3cP53eQoTwO_11proc_macro25IdentE8as_sliceCs8XcImbZQYrD_13futures_macro, symObjAddr: 0x15B8, symBinAddr: 0x151D0, symSize: 0x64 }
  - { offset: 0x4A689, size: 0x8, addend: 0x0, symName: __RNvMs_NtCse1nGBsou5OW_5alloc3vecINtB4_3VecNtNtCs6IAuOt8vWmF_3syn4expr4ExprE3lenCs8XcImbZQYrD_13futures_macro, symObjAddr: 0x161C, symBinAddr: 0x15234, symSize: 0x18 }
  - { offset: 0x4A7B7, size: 0x8, addend: 0x0, symName: __RNvMs_NtCse1nGBsou5OW_5alloc3vecINtB4_3VecNtNtCs6IAuOt8vWmF_3syn4expr4ExprE4pushCs8XcImbZQYrD_13futures_macro, symObjAddr: 0x1634, symBinAddr: 0x1524C, symSize: 0x120 }
  - { offset: 0x4AA84, size: 0x8, addend: 0x0, symName: __RNvMs_NtCse1nGBsou5OW_5alloc3vecINtB4_3VecNtNtCs6IAuOt8vWmF_3syn4expr5IndexE7reserveCs8XcImbZQYrD_13futures_macro, symObjAddr: 0x1754, symBinAddr: 0x1536C, symSize: 0xC8 }
  - { offset: 0x4AC8F, size: 0x8, addend: 0x0, symName: __RNvMs_NtCse1nGBsou5OW_5alloc3vecINtB4_3VecNtNtCs6IAuOt8vWmF_3syn4expr5IndexE8as_sliceCs8XcImbZQYrD_13futures_macro, symObjAddr: 0x181C, symBinAddr: 0x15434, symSize: 0x64 }
  - { offset: 0x4ADFA, size: 0x8, addend: 0x0, symName: __RNvMs_NtCse1nGBsou5OW_5alloc3vecINtB4_3VecNtNtCs6IAuOt8vWmF_3syn4expr8ExprPathE8as_sliceCs8XcImbZQYrD_13futures_macro, symObjAddr: 0x1880, symBinAddr: 0x15498, symSize: 0x64 }
  - { offset: 0x4AF7F, size: 0x8, addend: 0x0, symName: __RNvMs_NtCse1nGBsou5OW_5alloc3vecINtB4_3VecNtNtCs6IAuOt8vWmF_3syn4stmt4StmtE8as_sliceCs8XcImbZQYrD_13futures_macro, symObjAddr: 0x18E4, symBinAddr: 0x154FC, symSize: 0x64 }
  - { offset: 0x4B13F, size: 0x8, addend: 0x0, symName: __RNvMs_NtCse1nGBsou5OW_5alloc3vecINtB4_3VecTNtNtCs6IAuOt8vWmF_3syn3pat3PatNtNtBJ_4expr4ExprEE4pushCs8XcImbZQYrD_13futures_macro, symObjAddr: 0x1948, symBinAddr: 0x15560, symSize: 0x120 }
  - { offset: 0x4B3DE, size: 0x8, addend: 0x0, symName: __RNvMs_NtNtCse1nGBsou5OW_5alloc3vec9into_iterINtB4_8IntoIterNtNtCs6IAuOt8vWmF_3syn4expr4ExprE32forget_allocation_drop_remainingCs8XcImbZQYrD_13futures_macro, symObjAddr: 0x1A68, symBinAddr: 0x15680, symSize: 0xAC }
  - { offset: 0x4C653, size: 0x8, addend: 0x0, symName: __RNvXs2_NtNtNtCsfvfooZQ3Axs_4core3ops8function5implsQNCNvNtCs8XcImbZQYrD_13futures_macro13stream_select13stream_selects1_0INtB7_6FnOnceTRNtNtCs6IAuOt8vWmF_3syn4expr4ExprEE9call_onceBU_, symObjAddr: 0x0, symBinAddr: 0x18088, symSize: 0x2C }
  - { offset: 0x4CFB4, size: 0x8, addend: 0x0, symName: __RNvXs2_NtNtNtCsfvfooZQ3Axs_4core3ops8function5implsQNCNvNtCs8XcImbZQYrD_13futures_macro13stream_select13stream_selects1_0INtB7_6FnOnceTRNtNtCs6IAuOt8vWmF_3syn4expr4ExprEE9call_onceBU_, symObjAddr: 0x0, symBinAddr: 0x18088, symSize: 0x2C }
  - { offset: 0x4F14D, size: 0x8, addend: 0x0, symName: __RNvNtCs8XcImbZQYrD_13futures_macro13stream_select13stream_select, symObjAddr: 0x2C, symBinAddr: 0x180B4, symSize: 0x54FC }
  - { offset: 0x50475, size: 0x8, addend: 0x0, symName: __RNCNvNtCs8XcImbZQYrD_13futures_macro13stream_select13stream_select0B5_, symObjAddr: 0x5528, symBinAddr: 0x1D5B0, symSize: 0x11C }
  - { offset: 0x504DE, size: 0x8, addend: 0x0, symName: __RNCNvNtCs8XcImbZQYrD_13futures_macro13stream_select13stream_selects_0B5_, symObjAddr: 0x5644, symBinAddr: 0x1D6CC, symSize: 0x11C }
  - { offset: 0x50547, size: 0x8, addend: 0x0, symName: __RNCNvNtCs8XcImbZQYrD_13futures_macro13stream_select13stream_selects0_0B5_, symObjAddr: 0x5760, symBinAddr: 0x1D7E8, symSize: 0x11C }
  - { offset: 0x505B0, size: 0x8, addend: 0x0, symName: __RNCNvNtCs8XcImbZQYrD_13futures_macro13stream_select13stream_selects1_0B5_, symObjAddr: 0x587C, symBinAddr: 0x1D904, symSize: 0x40 }
  - { offset: 0x567AC, size: 0x8, addend: 0x0, symName: __RINvNtCs6IAuOt8vWmF_3syn11parse_quote5parseNtNtB4_4expr8ExprPathECs8XcImbZQYrD_13futures_macro, symObjAddr: 0x0, symBinAddr: 0x1D944, symSize: 0xCC }
  - { offset: 0x570FE, size: 0x8, addend: 0x0, symName: __RINvNtCs6IAuOt8vWmF_3syn11parse_quote5parseNtNtB4_4expr8ExprPathECs8XcImbZQYrD_13futures_macro, symObjAddr: 0x0, symBinAddr: 0x1D944, symSize: 0xCC }
  - { offset: 0x5715E, size: 0x8, addend: 0x0, symName: __RINvNtCs6IAuOt8vWmF_3syn11parse_quote5parseNtNtB4_4item8ItemEnumECs8XcImbZQYrD_13futures_macro, symObjAddr: 0xCC, symBinAddr: 0x1DA10, symSize: 0xD4 }
  - { offset: 0x571C3, size: 0x8, addend: 0x0, symName: __RINvNvNtCs6IAuOt8vWmF_3syn11parse_quote5parse18panic_cold_displayNtNtB6_5error5ErrorECs8XcImbZQYrD_13futures_macro, symObjAddr: 0x1A0, symBinAddr: 0x15F124, symSize: 0x28 }
  - { offset: 0x5BE88, size: 0x8, addend: 0x0, symName: __RNvXs0_NtCs6IAuOt8vWmF_3syn5dropsINtB5_6NoDropDINtNtB7_10punctuated9IterTraitNtNtB7_4expr4ExprEp4ItemRB1d_EL_ENtNtNtCsfvfooZQ3Axs_4core3ops5deref8DerefMut9deref_mutCs8XcImbZQYrD_13futures_macro, symObjAddr: 0x520, symBinAddr: 0x1DE3C, symSize: 0x3C }
  - { offset: 0x5BEE7, size: 0x8, addend: 0x0, symName: __RNvXsh_NtCs6IAuOt8vWmF_3syn5parseNvYNtNtB7_4expr8ExprPathNtNtB7_11parse_quote10ParseQuote5parseNtB5_6Parser6parse2Cs8XcImbZQYrD_13futures_macro, symObjAddr: 0xB7C, symBinAddr: 0x1E498, symSize: 0x368 }
  - { offset: 0x5BFF7, size: 0x8, addend: 0x0, symName: __RNvXsh_NtCs6IAuOt8vWmF_3syn5parseNvYNtNtB7_4item8ItemEnumNtNtB7_11parse_quote10ParseQuote5parseNtB5_6Parser6parse2Cs8XcImbZQYrD_13futures_macro, symObjAddr: 0xEE4, symBinAddr: 0x1E800, symSize: 0x36C }
  - { offset: 0x5C38B, size: 0x8, addend: 0x0, symName: __RINvYINtNtNtCsfvfooZQ3Axs_4core5slice4iter4IterNtCs3cP53eQoTwO_11proc_macro25IdentENtNtNtNtBa_4iter6traits8iterator8Iterator3mapNtBL_11TokenStreamNCNvNtCs8XcImbZQYrD_13futures_macro4join4join0EB2q_, symObjAddr: 0x1C8, symBinAddr: 0x1DAE4, symSize: 0x1C }
  - { offset: 0x5C3E3, size: 0x8, addend: 0x0, symName: __RINvYINtNtNtCsfvfooZQ3Axs_4core5slice4iter4IterNtCs3cP53eQoTwO_11proc_macro25IdentENtNtNtNtBa_4iter6traits8iterator8Iterator3mapNtBL_11TokenStreamNCNvNtCs8XcImbZQYrD_13futures_macro4join4joins_0EB2q_, symObjAddr: 0x1E4, symBinAddr: 0x1DB00, symSize: 0x1C }
  - { offset: 0x5C43B, size: 0x8, addend: 0x0, symName: __RINvYINtNtNtCsfvfooZQ3Axs_4core5slice4iter4IterNtCs3cP53eQoTwO_11proc_macro25IdentENtNtNtNtBa_4iter6traits8iterator8Iterator3mapNtBL_11TokenStreamNCNvNtCs8XcImbZQYrD_13futures_macro4join8try_join0EB2q_, symObjAddr: 0x200, symBinAddr: 0x1DB1C, symSize: 0x1C }
  - { offset: 0x5C493, size: 0x8, addend: 0x0, symName: __RINvYINtNtNtCsfvfooZQ3Axs_4core5slice4iter4IterNtCs3cP53eQoTwO_11proc_macro25IdentENtNtNtNtBa_4iter6traits8iterator8Iterator3mapNtBL_11TokenStreamNCNvNtCs8XcImbZQYrD_13futures_macro4join8try_joins_0EB2q_, symObjAddr: 0x21C, symBinAddr: 0x1DB38, symSize: 0x1C }
  - { offset: 0x5C4EB, size: 0x8, addend: 0x0, symName: __RINvYINtNtNtCsfvfooZQ3Axs_4core5slice4iter4IterNtNtCs6IAuOt8vWmF_3syn4expr8ExprPathENtNtNtNtBa_4iter6traits8iterator8Iterator3zipIB4_NtCs3cP53eQoTwO_11proc_macro25IdentEECs8XcImbZQYrD_13futures_macro, symObjAddr: 0x238, symBinAddr: 0x1DB54, symSize: 0xCC }
  - { offset: 0x5C56D, size: 0x8, addend: 0x0, symName: __RNvXNtNtNtCsfvfooZQ3Axs_4core4iter6traits7collectINtNtNtB8_5slice4iter4IterNtCs3cP53eQoTwO_11proc_macro25IdentENtB2_12IntoIterator9into_iterCs8XcImbZQYrD_13futures_macro, symObjAddr: 0x504, symBinAddr: 0x1DE20, symSize: 0x1C }
  - { offset: 0x5C639, size: 0x8, addend: 0x0, symName: __RNvYINtNtNtCsfvfooZQ3Axs_4core5slice4iter4IterNtCs3cP53eQoTwO_11proc_macro25IdentENtNtNtNtB9_4iter8adapters3zip27TrustedRandomAccessNoCoerce4sizeCs8XcImbZQYrD_13futures_macro, symObjAddr: 0x12A0, symBinAddr: 0x1EBBC, symSize: 0x2C }
  - { offset: 0x5C670, size: 0x8, addend: 0x0, symName: __RNvYINtNtNtCsfvfooZQ3Axs_4core5slice4iter4IterNtNtCs6IAuOt8vWmF_3syn4expr8ExprPathENtNtNtNtB9_4iter8adapters3zip27TrustedRandomAccessNoCoerce4sizeCs8XcImbZQYrD_13futures_macro, symObjAddr: 0x12CC, symBinAddr: 0x1EBE8, symSize: 0x2C }
  - { offset: 0x5C786, size: 0x8, addend: 0x0, symName: __RNvXsF_NtNtCsfvfooZQ3Axs_4core4iter5rangejNtB5_4Step13steps_betweenCs8XcImbZQYrD_13futures_macro, symObjAddr: 0xA90, symBinAddr: 0x1E3AC, symSize: 0xA4 }
  - { offset: 0x5C7E1, size: 0x8, addend: 0x0, symName: __RNvXsF_NtNtCsfvfooZQ3Axs_4core4iter5rangejNtB5_4Step17forward_uncheckedCs8XcImbZQYrD_13futures_macro, symObjAddr: 0xB34, symBinAddr: 0x1E450, symSize: 0x48 }
  - { offset: 0x5CAFD, size: 0x8, addend: 0x0, symName: __RNvXs2U_NtNtCsfvfooZQ3Axs_4core5slice4iterINtB6_4IterNtCs3cP53eQoTwO_11proc_macro211TokenStreamENtNtNtNtBa_4iter6traits8iterator8Iterator4nextCs8XcImbZQYrD_13futures_macro, symObjAddr: 0x55C, symBinAddr: 0x1DE78, symSize: 0xBC }
  - { offset: 0x5CC4B, size: 0x8, addend: 0x0, symName: __RNvXs2U_NtNtCsfvfooZQ3Axs_4core5slice4iterINtB6_4IterNtCs3cP53eQoTwO_11proc_macro25IdentENtNtNtNtBa_4iter6traits8iterator8Iterator24___iterator_get_uncheckedCs8XcImbZQYrD_13futures_macro, symObjAddr: 0x618, symBinAddr: 0x1DF34, symSize: 0x28 }
  - { offset: 0x5CCA6, size: 0x8, addend: 0x0, symName: __RNvXs2U_NtNtCsfvfooZQ3Axs_4core5slice4iterINtB6_4IterNtCs3cP53eQoTwO_11proc_macro25IdentENtNtNtNtBa_4iter6traits8iterator8Iterator4nextCs8XcImbZQYrD_13futures_macro, symObjAddr: 0x640, symBinAddr: 0x1DF5C, symSize: 0xBC }
  - { offset: 0x5CDF4, size: 0x8, addend: 0x0, symName: __RNvXs2U_NtNtCsfvfooZQ3Axs_4core5slice4iterINtB6_4IterNtCs3cP53eQoTwO_11proc_macro25IdentENtNtNtNtBa_4iter6traits8iterator8Iterator9size_hintCs8XcImbZQYrD_13futures_macro, symObjAddr: 0x6FC, symBinAddr: 0x1E018, symSize: 0x70 }
  - { offset: 0x5CE63, size: 0x8, addend: 0x0, symName: __RNvXs2U_NtNtCsfvfooZQ3Axs_4core5slice4iterINtB6_4IterNtNtCs6IAuOt8vWmF_3syn4expr5IndexENtNtNtNtBa_4iter6traits8iterator8Iterator4nextCs8XcImbZQYrD_13futures_macro, symObjAddr: 0x76C, symBinAddr: 0x1E088, symSize: 0xBC }
  - { offset: 0x5CFB1, size: 0x8, addend: 0x0, symName: __RNvXs2U_NtNtCsfvfooZQ3Axs_4core5slice4iterINtB6_4IterNtNtCs6IAuOt8vWmF_3syn4expr8ExprPathENtNtNtNtBa_4iter6traits8iterator8Iterator24___iterator_get_uncheckedCs8XcImbZQYrD_13futures_macro, symObjAddr: 0x828, symBinAddr: 0x1E144, symSize: 0x28 }
  - { offset: 0x5D00C, size: 0x8, addend: 0x0, symName: __RNvXs2U_NtNtCsfvfooZQ3Axs_4core5slice4iterINtB6_4IterNtNtCs6IAuOt8vWmF_3syn4expr8ExprPathENtNtNtNtBa_4iter6traits8iterator8Iterator9size_hintCs8XcImbZQYrD_13futures_macro, symObjAddr: 0x850, symBinAddr: 0x1E16C, symSize: 0x70 }
  - { offset: 0x5D081, size: 0x8, addend: 0x0, symName: __RNvXs2V_NtNtCsfvfooZQ3Axs_4core5slice4iterINtB6_4IterTNtNtCs6IAuOt8vWmF_3syn4expr4ExprNtNtBU_5token5CommaEENtNtNtNtBa_4iter6traits12double_ended19DoubleEndedIterator9next_backCs8XcImbZQYrD_13futures_macro, symObjAddr: 0x8C0, symBinAddr: 0x1E1DC, symSize: 0x100 }
  - { offset: 0x5D1E3, size: 0x8, addend: 0x0, symName: __RNvXs5_NtNtCsfvfooZQ3Axs_4core5slice4iterINtB5_4IterTNtNtCs6IAuOt8vWmF_3syn4expr4ExprNtNtBT_5token5CommaEENtNtB9_5clone5Clone5cloneCs8XcImbZQYrD_13futures_macro, symObjAddr: 0xA70, symBinAddr: 0x1E38C, symSize: 0x20 }
  - { offset: 0x5FE14, size: 0x8, addend: 0x0, symName: __RNvXs2_NtNtNtCsfvfooZQ3Axs_4core3ops8function5implsQNCNvNtCs8XcImbZQYrD_13futures_macro4join4join0INtB7_6FnOnceTRNtCs3cP53eQoTwO_11proc_macro25IdentEE9call_onceBU_, symObjAddr: 0x9C0, symBinAddr: 0x1E2DC, symSize: 0x2C }
  - { offset: 0x5FE63, size: 0x8, addend: 0x0, symName: __RNvXs2_NtNtNtCsfvfooZQ3Axs_4core3ops8function5implsQNCNvNtCs8XcImbZQYrD_13futures_macro4join4joins_0INtB7_6FnOnceTRNtCs3cP53eQoTwO_11proc_macro25IdentEE9call_onceBU_, symObjAddr: 0x9EC, symBinAddr: 0x1E308, symSize: 0x2C }
  - { offset: 0x5FEB2, size: 0x8, addend: 0x0, symName: __RNvXs2_NtNtNtCsfvfooZQ3Axs_4core3ops8function5implsQNCNvNtCs8XcImbZQYrD_13futures_macro4join8try_join0INtB7_6FnOnceTRNtCs3cP53eQoTwO_11proc_macro25IdentEE9call_onceBU_, symObjAddr: 0xA18, symBinAddr: 0x1E334, symSize: 0x2C }
  - { offset: 0x5FF01, size: 0x8, addend: 0x0, symName: __RNvXs2_NtNtNtCsfvfooZQ3Axs_4core3ops8function5implsQNCNvNtCs8XcImbZQYrD_13futures_macro4join8try_joins_0INtB7_6FnOnceTRNtCs3cP53eQoTwO_11proc_macro25IdentEE9call_onceBU_, symObjAddr: 0xA44, symBinAddr: 0x1E360, symSize: 0x2C }
  - { offset: 0x6110E, size: 0x8, addend: 0x0, symName: __RNvXss_NtCse1nGBsou5OW_5alloc6stringNtB5_6StringNtNtNtCsfvfooZQ3Axs_4core3ops5deref5Deref5derefCs8XcImbZQYrD_13futures_macro, symObjAddr: 0x1250, symBinAddr: 0x1EB6C, symSize: 0x24 }
  - { offset: 0x61732, size: 0x8, addend: 0x0, symName: __RNvMNtCs6IAuOt8vWmF_3syn5dropsINtB2_6NoDropINtNtB4_10punctuated11PrivateIterNtNtB4_4expr4ExprNtNtB4_5token5CommaEE3newCs8XcImbZQYrD_13futures_macro, symObjAddr: 0x304, symBinAddr: 0x1DC20, symSize: 0x40 }
  - { offset: 0x618AA, size: 0x8, addend: 0x0, symName: __RNvMNtCse1nGBsou5OW_5alloc6stringNtB2_6String6as_strCs8XcImbZQYrD_13futures_macro, symObjAddr: 0x344, symBinAddr: 0x1DC60, symSize: 0x70 }
  - { offset: 0x61A7C, size: 0x8, addend: 0x0, symName: __RNvMs4_NtNtCsfvfooZQ3Axs_4core5slice4iterINtB5_4IterNtCs3cP53eQoTwO_11proc_macro211TokenStreamE3newCs8XcImbZQYrD_13futures_macro, symObjAddr: 0x3B4, symBinAddr: 0x1DCD0, symSize: 0x50 }
  - { offset: 0x61C4A, size: 0x8, addend: 0x0, symName: __RNvMs4_NtNtCsfvfooZQ3Axs_4core5slice4iterINtB5_4IterNtCs3cP53eQoTwO_11proc_macro25IdentE3newCs8XcImbZQYrD_13futures_macro, symObjAddr: 0x404, symBinAddr: 0x1DD20, symSize: 0x58 }
  - { offset: 0x61E32, size: 0x8, addend: 0x0, symName: __RNvMs4_NtNtCsfvfooZQ3Axs_4core5slice4iterINtB5_4IterNtNtCs6IAuOt8vWmF_3syn4expr5IndexE3newCs8XcImbZQYrD_13futures_macro, symObjAddr: 0x45C, symBinAddr: 0x1DD78, symSize: 0x50 }
  - { offset: 0x62000, size: 0x8, addend: 0x0, symName: __RNvMs4_NtNtCsfvfooZQ3Axs_4core5slice4iterINtB5_4IterNtNtCs6IAuOt8vWmF_3syn4expr8ExprPathE3newCs8XcImbZQYrD_13futures_macro, symObjAddr: 0x4AC, symBinAddr: 0x1DDC8, symSize: 0x58 }
  - { offset: 0x624F2, size: 0x8, addend: 0x0, symName: __RNvYINtNtNtCsfvfooZQ3Axs_4core5slice4iter4IterNtCs3cP53eQoTwO_11proc_macro25IdentENtNtNtCs2cqEZUIJimJ_5quote9___private3ext14RepIteratorExt15quote_into_iterCs8XcImbZQYrD_13futures_macro, symObjAddr: 0x1274, symBinAddr: 0x1EB90, symSize: 0x2C }
  - { offset: 0x625A4, size: 0x8, addend: 0x0, symName: __RNvXNtCs8XcImbZQYrD_13futures_macro4joinNtB2_4JoinNtNtCs6IAuOt8vWmF_3syn5parse5Parse5parse, symObjAddr: 0x12F8, symBinAddr: 0x1EC14, symSize: 0x278 }
  - { offset: 0x62612, size: 0x8, addend: 0x0, symName: __RNvNtCs8XcImbZQYrD_13futures_macro4join12bind_futures, symObjAddr: 0x1570, symBinAddr: 0x1EE8C, symSize: 0x16C }
  - { offset: 0x62685, size: 0x8, addend: 0x0, symName: __RNCNvNtCs8XcImbZQYrD_13futures_macro4join12bind_futures0B5_, symObjAddr: 0x16DC, symBinAddr: 0x1EFF8, symSize: 0x50C }
  - { offset: 0x6279A, size: 0x8, addend: 0x0, symName: __RNvNtCs8XcImbZQYrD_13futures_macro4join4join, symObjAddr: 0x1BE8, symBinAddr: 0x1F504, symSize: 0xBE8 }
  - { offset: 0x62ACC, size: 0x8, addend: 0x0, symName: __RNCNvNtCs8XcImbZQYrD_13futures_macro4join4join0B5_, symObjAddr: 0x27D0, symBinAddr: 0x200EC, symSize: 0x26C }
  - { offset: 0x62B2D, size: 0x8, addend: 0x0, symName: __RNCNvNtCs8XcImbZQYrD_13futures_macro4join4joins_0B5_, symObjAddr: 0x2A3C, symBinAddr: 0x20358, symSize: 0x184 }
  - { offset: 0x62B87, size: 0x8, addend: 0x0, symName: __RNvNtCs8XcImbZQYrD_13futures_macro4join8try_join, symObjAddr: 0x2BC0, symBinAddr: 0x204DC, symSize: 0xDAC }
  - { offset: 0x62EFB, size: 0x8, addend: 0x0, symName: __RNCNvNtCs8XcImbZQYrD_13futures_macro4join8try_join0B5_, symObjAddr: 0x396C, symBinAddr: 0x21288, symSize: 0x8F8 }
  - { offset: 0x62FE0, size: 0x8, addend: 0x0, symName: __RNCNvNtCs8XcImbZQYrD_13futures_macro4join8try_joins_0B5_, symObjAddr: 0x4264, symBinAddr: 0x21B80, symSize: 0x304 }
  - { offset: 0x6306B, size: 0x8, addend: 0x0, symName: __RNvXs_NtCs8XcImbZQYrD_13futures_macro4joinNtB4_4JoinNtNtCsfvfooZQ3Axs_4core7default7Default7defaultB6_, symObjAddr: 0x4568, symBinAddr: 0x21E84, symSize: 0x38 }
  - { offset: 0x6485D, size: 0x8, addend: 0x0, symName: __RNvXNtNtCs6IAuOt8vWmF_3syn4item7parsingNtB4_4ItemNtNtB6_5parse5Parse5parse, symObjAddr: 0x34B4, symBinAddr: 0x223C8, symSize: 0x1B4 }
  - { offset: 0x64903, size: 0x8, addend: 0x0, symName: __RNvXs0_NtNtCs6IAuOt8vWmF_3syn4item7parsingNtB7_9ItemMacroNtNtB9_5parse5Parse5parse, symObjAddr: 0x3668, symBinAddr: 0x2257C, symSize: 0x620 }
  - { offset: 0x64AD1, size: 0x8, addend: 0x0, symName: __RNvXs1_NtNtCs6IAuOt8vWmF_3syn4item7parsingNtB7_15ItemExternCrateNtNtB9_5parse5Parse5parse, symObjAddr: 0x3C88, symBinAddr: 0x22B9C, symSize: 0x93C }
  - { offset: 0x64CDB, size: 0x8, addend: 0x0, symName: __RNvXs3_NtNtCs6IAuOt8vWmF_3syn4item7parsingNtB7_7UseTreeNtNtB9_5parse5Parse5parse, symObjAddr: 0x461C, symBinAddr: 0x234D8, symSize: 0x58 }
  - { offset: 0x64D2D, size: 0x8, addend: 0x0, symName: __RNvXs6_NtNtCs6IAuOt8vWmF_3syn4item7parsingNtB7_9SignatureNtNtB9_5parse5Parse5parse, symObjAddr: 0x5B9C, symBinAddr: 0x23530, symSize: 0x60 }
  - { offset: 0x64D7F, size: 0x8, addend: 0x0, symName: __RNvXs7_NtNtCs6IAuOt8vWmF_3syn4item7parsingNtB7_6ItemFnNtNtB9_5parse5Parse5parse, symObjAddr: 0x5BFC, symBinAddr: 0x23590, symSize: 0x364 }
  - { offset: 0x64EB2, size: 0x8, addend: 0x0, symName: __RNvXs9_NtNtCs6IAuOt8vWmF_3syn4item7parsingNtB7_8ReceiverNtNtB9_5parse5Parse5parse, symObjAddr: 0x622C, symBinAddr: 0x238F4, symSize: 0x95C }
  - { offset: 0x6510B, size: 0x8, addend: 0x0, symName: __RNvXsa_NtNtCs6IAuOt8vWmF_3syn4item7parsingNtB7_7ItemModNtNtB9_5parse5Parse5parse, symObjAddr: 0x6B88, symBinAddr: 0x24250, symSize: 0xC34 }
  - { offset: 0x6536E, size: 0x8, addend: 0x0, symName: __RNvXsb_NtNtCs6IAuOt8vWmF_3syn4item7parsingNtB7_14ItemForeignModNtNtB9_5parse5Parse5parse, symObjAddr: 0x77BC, symBinAddr: 0x24E84, symSize: 0x610 }
  - { offset: 0x6551F, size: 0x8, addend: 0x0, symName: __RNvXsc_NtNtCs6IAuOt8vWmF_3syn4item7parsingNtB7_11ForeignItemNtNtB9_5parse5Parse5parse, symObjAddr: 0x7DCC, symBinAddr: 0x25494, symSize: 0x1D80 }
  - { offset: 0x65B8F, size: 0x8, addend: 0x0, symName: __RNvXsg_NtNtCs6IAuOt8vWmF_3syn4item7parsingNtB7_16ForeignItemMacroNtNtB9_5parse5Parse5parse, symObjAddr: 0xAE74, symBinAddr: 0x27214, symSize: 0x32C }
  - { offset: 0x65CA3, size: 0x8, addend: 0x0, symName: __RNvXsi_NtNtCs6IAuOt8vWmF_3syn4item7parsingNtB7_10ItemStructNtNtB9_5parse5Parse5parse, symObjAddr: 0xBB78, symBinAddr: 0x27540, symSize: 0x638 }
  - { offset: 0x65EA0, size: 0x8, addend: 0x0, symName: __RNvXsj_NtNtCs6IAuOt8vWmF_3syn4item7parsingNtB7_8ItemEnumNtNtB9_5parse5Parse5parse, symObjAddr: 0xC1B0, symBinAddr: 0x27B78, symSize: 0x63C }
  - { offset: 0x6609D, size: 0x8, addend: 0x0, symName: __RNvXsk_NtNtCs6IAuOt8vWmF_3syn4item7parsingNtB7_9ItemUnionNtNtB9_5parse5Parse5parse, symObjAddr: 0xC7EC, symBinAddr: 0x281B4, symSize: 0x62C }
  - { offset: 0x66289, size: 0x8, addend: 0x0, symName: __RNvXsl_NtNtCs6IAuOt8vWmF_3syn4item7parsingNtB7_9ItemTraitNtNtB9_5parse5Parse5parse, symObjAddr: 0xCE18, symBinAddr: 0x287E0, symSize: 0x634 }
  - { offset: 0x66490, size: 0x8, addend: 0x0, symName: __RNvXsn_NtNtCs6IAuOt8vWmF_3syn4item7parsingNtB7_9TraitItemNtNtB9_5parse5Parse5parse, symObjAddr: 0xD6BC, symBinAddr: 0x28E14, symSize: 0x1654 }
  - { offset: 0x66905, size: 0x8, addend: 0x0, symName: __RNvXsp_NtNtCs6IAuOt8vWmF_3syn4item7parsingNtB7_11TraitItemFnNtNtB9_5parse5Parse5parse, symObjAddr: 0xF584, symBinAddr: 0x2A468, symSize: 0x7DC }
  - { offset: 0x66B09, size: 0x8, addend: 0x0, symName: __RNvXsr_NtNtCs6IAuOt8vWmF_3syn4item7parsingNtB7_14TraitItemMacroNtNtB9_5parse5Parse5parse, symObjAddr: 0x10484, symBinAddr: 0x2AC44, symSize: 0x32C }
  - { offset: 0x66C1D, size: 0x8, addend: 0x0, symName: __RNvXst_NtNtCs6IAuOt8vWmF_3syn4item7parsingNtB7_8ImplItemNtNtB9_5parse5Parse5parse, symObjAddr: 0x10810, symBinAddr: 0x2AF70, symSize: 0x1A78 }
  - { offset: 0x6713F, size: 0x8, addend: 0x0, symName: __RNvXsx_NtNtCs6IAuOt8vWmF_3syn4item7parsingNtB7_13ImplItemMacroNtNtB9_5parse5Parse5parse, symObjAddr: 0x134F8, symBinAddr: 0x2C9E8, symSize: 0x32C }
  - { offset: 0x67253, size: 0x8, addend: 0x0, symName: __RNvXsz_NtNtCs6IAuOt8vWmF_3syn4item7parsingNtB7_16StaticMutabilityNtNtB9_5parse5Parse5parse, symObjAddr: 0x13824, symBinAddr: 0x2CD14, symSize: 0xDC }
  - { offset: 0x672C9, size: 0x8, addend: 0x0, symName: __RNvXNtNtCs6IAuOt8vWmF_3syn4item8printingNtB4_15ItemExternCrateNtNtCs2cqEZUIJimJ_5quote9to_tokens8ToTokens9to_tokens, symObjAddr: 0x13900, symBinAddr: 0x2CDF0, symSize: 0x110 }
  - { offset: 0x67336, size: 0x8, addend: 0x0, symName: __RNvXs_NtNtCs6IAuOt8vWmF_3syn4item8printingNtB6_7ItemUseNtNtCs2cqEZUIJimJ_5quote9to_tokens8ToTokens9to_tokens, symObjAddr: 0x13A10, symBinAddr: 0x2CF00, symSize: 0xA4 }
  - { offset: 0x67375, size: 0x8, addend: 0x0, symName: __RNvXs0_NtNtCs6IAuOt8vWmF_3syn4item8printingNtB7_10ItemStaticNtNtCs2cqEZUIJimJ_5quote9to_tokens8ToTokens9to_tokens, symObjAddr: 0x13AB4, symBinAddr: 0x2CFA4, symSize: 0xE4 }
  - { offset: 0x673B4, size: 0x8, addend: 0x0, symName: __RNvXs1_NtNtCs6IAuOt8vWmF_3syn4item8printingNtB7_9ItemConstNtNtCs2cqEZUIJimJ_5quote9to_tokens8ToTokens9to_tokens, symObjAddr: 0x13B98, symBinAddr: 0x2D088, symSize: 0xD4 }
  - { offset: 0x673F3, size: 0x8, addend: 0x0, symName: __RNvXs2_NtNtCs6IAuOt8vWmF_3syn4item8printingNtB7_6ItemFnNtNtCs2cqEZUIJimJ_5quote9to_tokens8ToTokens9to_tokens, symObjAddr: 0x13C6C, symBinAddr: 0x2D15C, symSize: 0xB4 }
  - { offset: 0x67432, size: 0x8, addend: 0x0, symName: __RNvXs3_NtNtCs6IAuOt8vWmF_3syn4item8printingNtB7_7ItemModNtNtCs2cqEZUIJimJ_5quote9to_tokens8ToTokens9to_tokens, symObjAddr: 0x13D20, symBinAddr: 0x2D210, symSize: 0x110 }
  - { offset: 0x6749F, size: 0x8, addend: 0x0, symName: __RNvXs4_NtNtCs6IAuOt8vWmF_3syn4item8printingNtB7_14ItemForeignModNtNtCs2cqEZUIJimJ_5quote9to_tokens8ToTokens9to_tokens, symObjAddr: 0x13E30, symBinAddr: 0x2D320, symSize: 0x88 }
  - { offset: 0x674DE, size: 0x8, addend: 0x0, symName: __RNvXs5_NtNtCs6IAuOt8vWmF_3syn4item8printingNtB7_8ItemTypeNtNtCs2cqEZUIJimJ_5quote9to_tokens8ToTokens9to_tokens, symObjAddr: 0x13EB8, symBinAddr: 0x2D3A8, symSize: 0xD4 }
  - { offset: 0x6751D, size: 0x8, addend: 0x0, symName: __RNvXs6_NtNtCs6IAuOt8vWmF_3syn4item8printingNtB7_8ItemEnumNtNtCs2cqEZUIJimJ_5quote9to_tokens8ToTokens9to_tokens, symObjAddr: 0x13F8C, symBinAddr: 0x2D47C, symSize: 0xB8 }
  - { offset: 0x6755C, size: 0x8, addend: 0x0, symName: __RNvXs7_NtNtCs6IAuOt8vWmF_3syn4item8printingNtB7_10ItemStructNtNtCs2cqEZUIJimJ_5quote9to_tokens8ToTokens9to_tokens, symObjAddr: 0x14044, symBinAddr: 0x2D534, symSize: 0x188 }
  - { offset: 0x675D7, size: 0x8, addend: 0x0, symName: __RNvXs8_NtNtCs6IAuOt8vWmF_3syn4item8printingNtB7_9ItemUnionNtNtCs2cqEZUIJimJ_5quote9to_tokens8ToTokens9to_tokens, symObjAddr: 0x141CC, symBinAddr: 0x2D6BC, symSize: 0xB4 }
  - { offset: 0x67616, size: 0x8, addend: 0x0, symName: __RNvXs9_NtNtCs6IAuOt8vWmF_3syn4item8printingNtB7_9ItemTraitNtNtCs2cqEZUIJimJ_5quote9to_tokens8ToTokens9to_tokens, symObjAddr: 0x14280, symBinAddr: 0x2D770, symSize: 0x130 }
  - { offset: 0x67655, size: 0x8, addend: 0x0, symName: __RNvXsa_NtNtCs6IAuOt8vWmF_3syn4item8printingNtB7_14ItemTraitAliasNtNtCs2cqEZUIJimJ_5quote9to_tokens8ToTokens9to_tokens, symObjAddr: 0x143B0, symBinAddr: 0x2D8A0, symSize: 0xD4 }
  - { offset: 0x67694, size: 0x8, addend: 0x0, symName: __RNvXsb_NtNtCs6IAuOt8vWmF_3syn4item8printingNtB7_8ItemImplNtNtCs2cqEZUIJimJ_5quote9to_tokens8ToTokens9to_tokens, symObjAddr: 0x14484, symBinAddr: 0x2D974, symSize: 0x14C }
  - { offset: 0x67711, size: 0x8, addend: 0x0, symName: __RNvXsc_NtNtCs6IAuOt8vWmF_3syn4item8printingNtB7_9ItemMacroNtNtCs2cqEZUIJimJ_5quote9to_tokens8ToTokens9to_tokens, symObjAddr: 0x145D0, symBinAddr: 0x2DAC0, symSize: 0x148 }
  - { offset: 0x677A2, size: 0x8, addend: 0x0, symName: __RNvXsd_NtNtCs6IAuOt8vWmF_3syn4item8printingNtB7_7UsePathNtNtCs2cqEZUIJimJ_5quote9to_tokens8ToTokens9to_tokens, symObjAddr: 0x14718, symBinAddr: 0x2DC08, symSize: 0x60 }
  - { offset: 0x677E1, size: 0x8, addend: 0x0, symName: __RNvXse_NtNtCs6IAuOt8vWmF_3syn4item8printingNtB7_7UseNameNtNtCs2cqEZUIJimJ_5quote9to_tokens8ToTokens9to_tokens, symObjAddr: 0x14778, symBinAddr: 0x2DC68, symSize: 0x3C }
  - { offset: 0x67820, size: 0x8, addend: 0x0, symName: __RNvXsf_NtNtCs6IAuOt8vWmF_3syn4item8printingNtB7_9UseRenameNtNtCs2cqEZUIJimJ_5quote9to_tokens8ToTokens9to_tokens, symObjAddr: 0x147B4, symBinAddr: 0x2DCA4, symSize: 0x60 }
  - { offset: 0x6785F, size: 0x8, addend: 0x0, symName: __RNvXsg_NtNtCs6IAuOt8vWmF_3syn4item8printingNtB7_7UseGlobNtNtCs2cqEZUIJimJ_5quote9to_tokens8ToTokens9to_tokens, symObjAddr: 0x14814, symBinAddr: 0x2DD04, symSize: 0x3C }
  - { offset: 0x6789E, size: 0x8, addend: 0x0, symName: __RNvXsh_NtNtCs6IAuOt8vWmF_3syn4item8printingNtB7_8UseGroupNtNtCs2cqEZUIJimJ_5quote9to_tokens8ToTokens9to_tokens, symObjAddr: 0x14850, symBinAddr: 0x2DD40, symSize: 0x44 }
  - { offset: 0x678DD, size: 0x8, addend: 0x0, symName: __RNvXsi_NtNtCs6IAuOt8vWmF_3syn4item8printingNtB7_14TraitItemConstNtNtCs2cqEZUIJimJ_5quote9to_tokens8ToTokens9to_tokens, symObjAddr: 0x14894, symBinAddr: 0x2DD84, symSize: 0x110 }
  - { offset: 0x6794A, size: 0x8, addend: 0x0, symName: __RNvXsj_NtNtCs6IAuOt8vWmF_3syn4item8printingNtB7_11TraitItemFnNtNtCs2cqEZUIJimJ_5quote9to_tokens8ToTokens9to_tokens, symObjAddr: 0x149A4, symBinAddr: 0x2DE94, symSize: 0xD4 }
  - { offset: 0x679A7, size: 0x8, addend: 0x0, symName: __RNvXsk_NtNtCs6IAuOt8vWmF_3syn4item8printingNtB7_13TraitItemTypeNtNtCs2cqEZUIJimJ_5quote9to_tokens8ToTokens9to_tokens, symObjAddr: 0x14A78, symBinAddr: 0x2DF68, symSize: 0x168 }
  - { offset: 0x67A14, size: 0x8, addend: 0x0, symName: __RNvXsl_NtNtCs6IAuOt8vWmF_3syn4item8printingNtB7_14TraitItemMacroNtNtCs2cqEZUIJimJ_5quote9to_tokens8ToTokens9to_tokens, symObjAddr: 0x14BE0, symBinAddr: 0x2E0D0, symSize: 0x74 }
  - { offset: 0x67A53, size: 0x8, addend: 0x0, symName: __RNvXsm_NtNtCs6IAuOt8vWmF_3syn4item8printingNtB7_13ImplItemConstNtNtCs2cqEZUIJimJ_5quote9to_tokens8ToTokens9to_tokens, symObjAddr: 0x14C54, symBinAddr: 0x2E144, symSize: 0xE4 }
  - { offset: 0x67A92, size: 0x8, addend: 0x0, symName: __RNvXsn_NtNtCs6IAuOt8vWmF_3syn4item8printingNtB7_10ImplItemFnNtNtCs2cqEZUIJimJ_5quote9to_tokens8ToTokens9to_tokens, symObjAddr: 0x14D38, symBinAddr: 0x2E228, symSize: 0x98 }
  - { offset: 0x67AD1, size: 0x8, addend: 0x0, symName: __RNvXso_NtNtCs6IAuOt8vWmF_3syn4item8printingNtB7_12ImplItemTypeNtNtCs2cqEZUIJimJ_5quote9to_tokens8ToTokens9to_tokens, symObjAddr: 0x14DD0, symBinAddr: 0x2E2C0, symSize: 0xE4 }
  - { offset: 0x67B10, size: 0x8, addend: 0x0, symName: __RNvXsp_NtNtCs6IAuOt8vWmF_3syn4item8printingNtB7_13ImplItemMacroNtNtCs2cqEZUIJimJ_5quote9to_tokens8ToTokens9to_tokens, symObjAddr: 0x14EB4, symBinAddr: 0x2E3A4, symSize: 0x74 }
  - { offset: 0x67B4F, size: 0x8, addend: 0x0, symName: __RNvXsq_NtNtCs6IAuOt8vWmF_3syn4item8printingNtB7_13ForeignItemFnNtNtCs2cqEZUIJimJ_5quote9to_tokens8ToTokens9to_tokens, symObjAddr: 0x14F28, symBinAddr: 0x2E418, symSize: 0x84 }
  - { offset: 0x67B8E, size: 0x8, addend: 0x0, symName: __RNvXsr_NtNtCs6IAuOt8vWmF_3syn4item8printingNtB7_17ForeignItemStaticNtNtCs2cqEZUIJimJ_5quote9to_tokens8ToTokens9to_tokens, symObjAddr: 0x14FAC, symBinAddr: 0x2E49C, symSize: 0xC4 }
  - { offset: 0x67BCD, size: 0x8, addend: 0x0, symName: __RNvXss_NtNtCs6IAuOt8vWmF_3syn4item8printingNtB7_15ForeignItemTypeNtNtCs2cqEZUIJimJ_5quote9to_tokens8ToTokens9to_tokens, symObjAddr: 0x15070, symBinAddr: 0x2E560, symSize: 0xB4 }
  - { offset: 0x67C0C, size: 0x8, addend: 0x0, symName: __RNvXst_NtNtCs6IAuOt8vWmF_3syn4item8printingNtB7_16ForeignItemMacroNtNtCs2cqEZUIJimJ_5quote9to_tokens8ToTokens9to_tokens, symObjAddr: 0x15124, symBinAddr: 0x2E614, symSize: 0x74 }
  - { offset: 0x67C4B, size: 0x8, addend: 0x0, symName: __RNvXsu_NtNtCs6IAuOt8vWmF_3syn4item8printingNtB7_9SignatureNtNtCs2cqEZUIJimJ_5quote9to_tokens8ToTokens9to_tokens, symObjAddr: 0x15198, symBinAddr: 0x2E688, symSize: 0xD4 }
  - { offset: 0x67C8A, size: 0x8, addend: 0x0, symName: __RNvXsv_NtNtCs6IAuOt8vWmF_3syn4item8printingNtB7_8ReceiverNtNtCs2cqEZUIJimJ_5quote9to_tokens8ToTokens9to_tokens, symObjAddr: 0x1526C, symBinAddr: 0x2E75C, symSize: 0x3FC }
  - { offset: 0x67D82, size: 0x8, addend: 0x0, symName: __RNvXsw_NtNtCs6IAuOt8vWmF_3syn4item8printingNtB7_8VariadicNtNtCs2cqEZUIJimJ_5quote9to_tokens8ToTokens9to_tokens, symObjAddr: 0x15668, symBinAddr: 0x2EB58, symSize: 0xE0 }
  - { offset: 0x67DEF, size: 0x8, addend: 0x0, symName: __RNvXsx_NtNtCs6IAuOt8vWmF_3syn4item8printingNtB7_16StaticMutabilityNtNtCs2cqEZUIJimJ_5quote9to_tokens8ToTokens9to_tokens, symObjAddr: 0x15748, symBinAddr: 0x2EC38, symSize: 0x7C }
  - { offset: 0x67E52, size: 0x8, addend: 0x0, symName: __RNcNtNtNtCs6IAuOt8vWmF_3syn4item4Item4Enum0B7_, symObjAddr: 0x157C4, symBinAddr: 0x2ECB4, symSize: 0x3C }
  - { offset: 0x67E81, size: 0x8, addend: 0x0, symName: __RNcNtNtNtCs6IAuOt8vWmF_3syn4item4Item11ExternCrate0B7_, symObjAddr: 0x15800, symBinAddr: 0x2ECF0, symSize: 0x3C }
  - { offset: 0x67EB0, size: 0x8, addend: 0x0, symName: __RNcNtNtNtCs6IAuOt8vWmF_3syn4item4Item2Fn0B7_, symObjAddr: 0x1583C, symBinAddr: 0x2ED2C, symSize: 0x30 }
  - { offset: 0x67EDF, size: 0x8, addend: 0x0, symName: __RNcNtNtNtCs6IAuOt8vWmF_3syn4item4Item10ForeignMod0B7_, symObjAddr: 0x1586C, symBinAddr: 0x2ED5C, symSize: 0x3C }
  - { offset: 0x67F0E, size: 0x8, addend: 0x0, symName: __RNcNtNtNtCs6IAuOt8vWmF_3syn4item4Item5Macro0B7_, symObjAddr: 0x158A8, symBinAddr: 0x2ED98, symSize: 0x3C }
  - { offset: 0x67F3D, size: 0x8, addend: 0x0, symName: __RNcNtNtNtCs6IAuOt8vWmF_3syn4item4Item3Mod0B7_, symObjAddr: 0x158E4, symBinAddr: 0x2EDD4, symSize: 0x3C }
  - { offset: 0x67F6C, size: 0x8, addend: 0x0, symName: __RNcNtNtNtCs6IAuOt8vWmF_3syn4item4Item6Struct0B7_, symObjAddr: 0x15920, symBinAddr: 0x2EE10, symSize: 0x3C }
  - { offset: 0x67F9B, size: 0x8, addend: 0x0, symName: __RNcNtNtNtCs6IAuOt8vWmF_3syn4item4Item5Trait0B7_, symObjAddr: 0x1595C, symBinAddr: 0x2EE4C, symSize: 0x3C }
  - { offset: 0x67FCA, size: 0x8, addend: 0x0, symName: __RNcNtNtNtCs6IAuOt8vWmF_3syn4item4Item10TraitAlias0B7_, symObjAddr: 0x15998, symBinAddr: 0x2EE88, symSize: 0x3C }
  - { offset: 0x67FF9, size: 0x8, addend: 0x0, symName: __RNcNtNtNtCs6IAuOt8vWmF_3syn4item4Item5Union0B7_, symObjAddr: 0x159D4, symBinAddr: 0x2EEC4, symSize: 0x3C }
  - { offset: 0x68029, size: 0x8, addend: 0x0, symName: __RNvXsk_NtCs6IAuOt8vWmF_3syn4itemNtB5_4ItemNtNtCs2cqEZUIJimJ_5quote9to_tokens8ToTokens9to_tokens, symObjAddr: 0x15E78, symBinAddr: 0x2EF00, symSize: 0x230 }
  - { offset: 0x6823B, size: 0x8, addend: 0x0, symName: __RNvXsq_NtCs6IAuOt8vWmF_3syn4itemNtB5_7UseTreeNtNtCs2cqEZUIJimJ_5quote9to_tokens8ToTokens9to_tokens, symObjAddr: 0x161F4, symBinAddr: 0x2F130, symSize: 0x10C }
  - { offset: 0x6830D, size: 0x8, addend: 0x0, symName: __RNcNtNtNtCs6IAuOt8vWmF_3syn4item11ForeignItem5Macro0B7_, symObjAddr: 0x16300, symBinAddr: 0x2F23C, symSize: 0x3C }
  - { offset: 0x6833F, size: 0x8, addend: 0x0, symName: __RNvXsv_NtCs6IAuOt8vWmF_3syn4itemNtB5_11ForeignItemNtNtCs2cqEZUIJimJ_5quote9to_tokens8ToTokens9to_tokens, symObjAddr: 0x16460, symBinAddr: 0x2F278, symSize: 0x118 }
  - { offset: 0x68411, size: 0x8, addend: 0x0, symName: __RNcNtNtNtCs6IAuOt8vWmF_3syn4item9TraitItem2Fn0B7_, symObjAddr: 0x16578, symBinAddr: 0x2F390, symSize: 0x3C }
  - { offset: 0x68442, size: 0x8, addend: 0x0, symName: __RNcNtNtNtCs6IAuOt8vWmF_3syn4item9TraitItem5Macro0B7_, symObjAddr: 0x165B4, symBinAddr: 0x2F3CC, symSize: 0x3C }
  - { offset: 0x68474, size: 0x8, addend: 0x0, symName: __RNvXsA_NtCs6IAuOt8vWmF_3syn4itemNtB5_9TraitItemNtNtCs2cqEZUIJimJ_5quote9to_tokens8ToTokens9to_tokens, symObjAddr: 0x16714, symBinAddr: 0x2F408, symSize: 0x118 }
  - { offset: 0x68546, size: 0x8, addend: 0x0, symName: __RNcNtNtNtCs6IAuOt8vWmF_3syn4item8ImplItem5Macro0B7_, symObjAddr: 0x1682C, symBinAddr: 0x2F520, symSize: 0x3C }
  - { offset: 0x68578, size: 0x8, addend: 0x0, symName: __RNvXsF_NtCs6IAuOt8vWmF_3syn4itemNtB5_8ImplItemNtNtCs2cqEZUIJimJ_5quote9to_tokens8ToTokens9to_tokens, symObjAddr: 0x1698C, symBinAddr: 0x2F55C, symSize: 0x118 }
  - { offset: 0x68645, size: 0x8, addend: 0x0, symName: __RNvXsI_NtCs6IAuOt8vWmF_3syn4itemNtB5_5FnArgNtNtCs2cqEZUIJimJ_5quote9to_tokens8ToTokens9to_tokens, symObjAddr: 0x16B30, symBinAddr: 0x2F674, symSize: 0x8C }
  - { offset: 0x686C0, size: 0x8, addend: 0x0, symName: __RNcNtNtNtCs6IAuOt8vWmF_3syn4item16StaticMutability3Mut0B7_, symObjAddr: 0x16BBC, symBinAddr: 0x2F700, symSize: 0x20 }
  - { offset: 0x70F1B, size: 0x8, addend: 0x0, symName: __RNvMNtCsfvfooZQ3Axs_4core5sliceSTNtNtCs6IAuOt8vWmF_3syn4item5FnArgNtNtBz_5token5CommaE4iterBz_, symObjAddr: 0x1480, symBinAddr: 0x21ED0, symSize: 0x28 }
  - { offset: 0x70F52, size: 0x8, addend: 0x0, symName: __RNvMNtCsfvfooZQ3Axs_4core5sliceSTNtNtCs6IAuOt8vWmF_3syn4item7UseTreeNtNtBz_5token5CommaE4iterBz_, symObjAddr: 0x14A8, symBinAddr: 0x21EF8, symSize: 0x28 }
  - { offset: 0x72440, size: 0x8, addend: 0x0, symName: __RNvXNtCs2cqEZUIJimJ_5quote9to_tokensRNtNtCs6IAuOt8vWmF_3syn4item11ForeignItemNtB2_8ToTokens9to_tokensBD_, symObjAddr: 0x14D0, symBinAddr: 0x21F20, symSize: 0x40 }
  - { offset: 0x7247F, size: 0x8, addend: 0x0, symName: __RNvXNtCs2cqEZUIJimJ_5quote9to_tokensRNtNtCs6IAuOt8vWmF_3syn4item4ItemNtB2_8ToTokens9to_tokensBD_, symObjAddr: 0x1510, symBinAddr: 0x21F60, symSize: 0x40 }
  - { offset: 0x724BE, size: 0x8, addend: 0x0, symName: __RNvXNtCs2cqEZUIJimJ_5quote9to_tokensRNtNtCs6IAuOt8vWmF_3syn4item5FnArgNtB2_8ToTokens9to_tokensBD_, symObjAddr: 0x1550, symBinAddr: 0x21FA0, symSize: 0x40 }
  - { offset: 0x724FD, size: 0x8, addend: 0x0, symName: __RNvXNtCs2cqEZUIJimJ_5quote9to_tokensRNtNtCs6IAuOt8vWmF_3syn4item7UseTreeNtB2_8ToTokens9to_tokensBD_, symObjAddr: 0x1590, symBinAddr: 0x21FE0, symSize: 0x40 }
  - { offset: 0x7253C, size: 0x8, addend: 0x0, symName: __RNvXNtCs2cqEZUIJimJ_5quote9to_tokensRNtNtCs6IAuOt8vWmF_3syn4item8ImplItemNtB2_8ToTokens9to_tokensBD_, symObjAddr: 0x15D0, symBinAddr: 0x22020, symSize: 0x40 }
  - { offset: 0x7257B, size: 0x8, addend: 0x0, symName: __RNvXNtCs2cqEZUIJimJ_5quote9to_tokensRNtNtCs6IAuOt8vWmF_3syn4item9TraitItemNtB2_8ToTokens9to_tokensBD_, symObjAddr: 0x1610, symBinAddr: 0x22060, symSize: 0x40 }
  - { offset: 0x725BD, size: 0x8, addend: 0x0, symName: __RNvMNtCs6IAuOt8vWmF_3syn4itemNtB2_4Item13replace_attrs, symObjAddr: 0x2BF8, symBinAddr: 0x220A0, symSize: 0x328 }
  - { offset: 0x72B6F, size: 0x8, addend: 0x0, symName: __RINvMs_NtCse1nGBsou5OW_5alloc3vecINtB5_3VecReE10retain_mutNCNvMNtCs6IAuOt8vWmF_3syn9lookaheadNtBZ_10Lookahead15error0EB11_, symObjAddr: 0x0, symBinAddr: 0x2F720, symSize: 0xE4 }
  - { offset: 0x73914, size: 0x8, addend: 0x0, symName: __RNvXs1a_NtCsfvfooZQ3Axs_4core3fmtRINtNtCse1nGBsou5OW_5alloc3vec3VechENtB6_5Debug3fmtCs6IAuOt8vWmF_3syn, symObjAddr: 0x6C30, symBinAddr: 0x33EC4, symSize: 0x30 }
  - { offset: 0x7A1C7, size: 0x8, addend: 0x0, symName: __RNvXs1_NtCsfvfooZQ3Axs_4core7convertINtNtCse1nGBsou5OW_5alloc3vec3VechEINtB5_4IntoBy_E4intoCs6IAuOt8vWmF_3syn, symObjAddr: 0x6BE8, symBinAddr: 0x33EAC, symSize: 0x18 }
  - { offset: 0x7A404, size: 0x8, addend: 0x0, symName: __RINvNvMs_NtCse1nGBsou5OW_5alloc3vecINtB7_3VecppE10retain_mut12process_loopNCNvMNtCs6IAuOt8vWmF_3syn9lookaheadNtB1f_10Lookahead15error0ReNtNtB9_5alloc6GlobalKb0_EB1h_, symObjAddr: 0xC64, symBinAddr: 0x2FD00, symSize: 0xCC }
  - { offset: 0x7A558, size: 0x8, addend: 0x0, symName: __RINvNvMs_NtCse1nGBsou5OW_5alloc3vecINtB7_3VecppE10retain_mut12process_loopNCNvMNtCs6IAuOt8vWmF_3syn9lookaheadNtB1f_10Lookahead15error0ReNtNtB9_5alloc6GlobalKb1_EB1h_, symObjAddr: 0xD30, symBinAddr: 0x2FDCC, symSize: 0x168 }
  - { offset: 0x7A74E, size: 0x8, addend: 0x0, symName: __RNvXNvMs_NtCse1nGBsou5OW_5alloc3vecINtB7_3VecppE10retain_mutINtB2_15BackshiftOnDropReNtNtB9_5alloc6GlobalENtNtNtCsfvfooZQ3Axs_4core3ops4drop4Drop4dropCs6IAuOt8vWmF_3syn, symObjAddr: 0x681C, symBinAddr: 0x33B78, symSize: 0x124 }
  - { offset: 0x7D1B9, size: 0x8, addend: 0x0, symName: __RINvXsh_NtCse1nGBsou5OW_5alloc3vecINtB6_3VecNtCs3cP53eQoTwO_11proc_macro29TokenTreeEINtNtNtNtCsfvfooZQ3Axs_4core4iter6traits7collect6ExtendBG_E6extendINtNtNtB1r_8adapters7flatten7FlattenINtNtB2t_3map3MapIB2Z_IB2Z_INtNtNtB1t_5slice4iter4IterNtNtCs6IAuOt8vWmF_3syn5error12ErrorMessageENvMs_B3S_B3Q_16to_compile_errorENCINvXs7_BI_NtBI_11TokenStreamINtB1n_12FromIteratorB5f_E9from_iterB3k_E0ENCINvXs6_NtBI_3impNtB6n_11TokenStreamIB5y_B6w_E9from_iterB3f_Es_0EEEB3U_, symObjAddr: 0xED4, symBinAddr: 0x2FF34, symSize: 0x48 }
  - { offset: 0x7D20E, size: 0x8, addend: 0x0, symName: __RINvXsh_NtCse1nGBsou5OW_5alloc3vecINtB6_3VecNtNtCs6IAuOt8vWmF_3syn4attr9AttributeEINtNtNtNtCsfvfooZQ3Axs_4core4iter6traits7collect6ExtendBG_E6extendBw_EBK_, symObjAddr: 0xF1C, symBinAddr: 0x2FF7C, symSize: 0x48 }
  - { offset: 0x7D263, size: 0x8, addend: 0x0, symName: __RINvXsh_NtCse1nGBsou5OW_5alloc3vecINtB6_3VecNtNtCs6IAuOt8vWmF_3syn8generics14TypeParamBoundEINtNtNtNtCsfvfooZQ3Axs_4core4iter6traits7collect6ExtendBG_E6extendINtNtB1B_6option6OptionBG_EEBK_, symObjAddr: 0x108C, symBinAddr: 0x2FFC4, symSize: 0x48 }
  - { offset: 0x7D2B8, size: 0x8, addend: 0x0, symName: __RINvXsh_NtCse1nGBsou5OW_5alloc3vecINtB6_3VecNtNtCs6IAuOt8vWmF_3syn8generics14TypeParamBoundEINtNtNtNtCsfvfooZQ3Axs_4core4iter6traits7collect6ExtendBG_E6extendINtNtNtB1z_8adapters3map3MapINtNtB6_9into_iter8IntoIterTBG_NtNtBK_5token4PlusEENCNvXs8_NtBK_10punctuatedINtB3V_10PunctuatedBG_B3t_ENtB1v_12IntoIterator9into_iter0EEBK_, symObjAddr: 0x10D4, symBinAddr: 0x3000C, symSize: 0x48 }
  - { offset: 0x7D318, size: 0x8, addend: 0x0, symName: __RNCINvMsi_NtCse1nGBsou5OW_5alloc3vecINtB8_3VecNtNtCs6IAuOt8vWmF_3syn8generics14TypeParamBoundE14extend_trustedINtNtCsfvfooZQ3Axs_4core6option8IntoIterBI_EE0BM_, symObjAddr: 0x1218, symBinAddr: 0x30054, symSize: 0x54 }
  - { offset: 0x7D3D6, size: 0x8, addend: 0x0, symName: __RNCINvMsi_NtCse1nGBsou5OW_5alloc3vecINtB8_3VecNtNtCs6IAuOt8vWmF_3syn8generics14TypeParamBoundE14extend_trustedINtNtNtNtCsfvfooZQ3Axs_4core4iter8adapters3map3MapINtNtB8_9into_iter8IntoIterTBI_NtNtBM_5token4PlusEENCNvXs8_NtBM_10punctuatedINtB3v_10PunctuatedBI_B33_ENtNtNtB1R_6traits7collect12IntoIterator9into_iter0EE0BM_, symObjAddr: 0x126C, symBinAddr: 0x300A8, symSize: 0x54 }
  - { offset: 0x7D8D6, size: 0x8, addend: 0x0, symName: __RNvXs6_NtCse1nGBsou5OW_5alloc3vecINtB5_3VecNtNtCs6IAuOt8vWmF_3syn4attr9AttributeENtNtNtCsfvfooZQ3Axs_4core3ops5deref5Deref5derefBJ_, symObjAddr: 0x6C60, symBinAddr: 0x33EF4, symSize: 0x24 }
  - { offset: 0x7D916, size: 0x8, addend: 0x0, symName: __RNvXs6_NtCse1nGBsou5OW_5alloc3vecINtB5_3VecNtNtCs6IAuOt8vWmF_3syn4expr3ArmENtNtNtCsfvfooZQ3Axs_4core3ops5deref5Deref5derefBJ_, symObjAddr: 0x6C84, symBinAddr: 0x33F18, symSize: 0x24 }
  - { offset: 0x7D956, size: 0x8, addend: 0x0, symName: __RNvXs6_NtCse1nGBsou5OW_5alloc3vecINtB5_3VecNtNtCs6IAuOt8vWmF_3syn5error12ErrorMessageENtNtNtCsfvfooZQ3Axs_4core3ops5deref5Deref5derefBJ_, symObjAddr: 0x6CA8, symBinAddr: 0x33F3C, symSize: 0x24 }
  - { offset: 0x7D996, size: 0x8, addend: 0x0, symName: __RNvXs6_NtCse1nGBsou5OW_5alloc3vecINtB5_3VecReENtNtNtCsfvfooZQ3Axs_4core3ops5deref5Deref5derefCs6IAuOt8vWmF_3syn, symObjAddr: 0x6CCC, symBinAddr: 0x33F60, symSize: 0x24 }
  - { offset: 0x7D9D6, size: 0x8, addend: 0x0, symName: __RNvXs6_NtCse1nGBsou5OW_5alloc3vecINtB5_3VecTNtNtCs6IAuOt8vWmF_3syn2ty4TypeNtNtBK_5token5CommaEENtNtNtCsfvfooZQ3Axs_4core3ops5deref5Deref5derefBK_, symObjAddr: 0x6CF0, symBinAddr: 0x33F84, symSize: 0x24 }
  - { offset: 0x7DA16, size: 0x8, addend: 0x0, symName: __RNvXs6_NtCse1nGBsou5OW_5alloc3vecINtB5_3VecTNtNtCs6IAuOt8vWmF_3syn2ty9BareFnArgNtNtBK_5token5CommaEENtNtNtCsfvfooZQ3Axs_4core3ops5deref5Deref5derefBK_, symObjAddr: 0x6D14, symBinAddr: 0x33FA8, symSize: 0x24 }
  - { offset: 0x7DA56, size: 0x8, addend: 0x0, symName: __RNvXs6_NtCse1nGBsou5OW_5alloc3vecINtB5_3VecTNtNtCs6IAuOt8vWmF_3syn3pat3PatNtNtBK_5token2OrEENtNtNtCsfvfooZQ3Axs_4core3ops5deref5Deref5derefBK_, symObjAddr: 0x6D38, symBinAddr: 0x33FCC, symSize: 0x24 }
  - { offset: 0x7DA96, size: 0x8, addend: 0x0, symName: __RNvXs6_NtCse1nGBsou5OW_5alloc3vecINtB5_3VecTNtNtCs6IAuOt8vWmF_3syn3pat3PatNtNtBK_5token5CommaEENtNtNtCsfvfooZQ3Axs_4core3ops5deref5Deref5derefBK_, symObjAddr: 0x6D5C, symBinAddr: 0x33FF0, symSize: 0x24 }
  - { offset: 0x7DAD6, size: 0x8, addend: 0x0, symName: __RNvXs6_NtCse1nGBsou5OW_5alloc3vecINtB5_3VecTNtNtCs6IAuOt8vWmF_3syn3pat8FieldPatNtNtBK_5token5CommaEENtNtNtCsfvfooZQ3Axs_4core3ops5deref5Deref5derefBK_, symObjAddr: 0x6D80, symBinAddr: 0x34014, symSize: 0x24 }
  - { offset: 0x7DB16, size: 0x8, addend: 0x0, symName: __RNvXs6_NtCse1nGBsou5OW_5alloc3vecINtB5_3VecTNtNtCs6IAuOt8vWmF_3syn4data5FieldNtNtBK_5token5CommaEENtNtNtCsfvfooZQ3Axs_4core3ops5deref5Deref5derefBK_, symObjAddr: 0x6DA4, symBinAddr: 0x34038, symSize: 0x24 }
  - { offset: 0x7DB56, size: 0x8, addend: 0x0, symName: __RNvXs6_NtCse1nGBsou5OW_5alloc3vecINtB5_3VecTNtNtCs6IAuOt8vWmF_3syn4data7VariantNtNtBK_5token5CommaEENtNtNtCsfvfooZQ3Axs_4core3ops5deref5Deref5derefBK_, symObjAddr: 0x6DC8, symBinAddr: 0x3405C, symSize: 0x24 }
  - { offset: 0x7DB96, size: 0x8, addend: 0x0, symName: __RNvXs6_NtCse1nGBsou5OW_5alloc3vecINtB5_3VecTNtNtCs6IAuOt8vWmF_3syn4expr10FieldValueNtNtBK_5token5CommaEENtNtNtCsfvfooZQ3Axs_4core3ops5deref5Deref5derefBK_, symObjAddr: 0x6DEC, symBinAddr: 0x34080, symSize: 0x24 }
  - { offset: 0x7DBD6, size: 0x8, addend: 0x0, symName: __RNvXs6_NtCse1nGBsou5OW_5alloc3vecINtB5_3VecTNtNtCs6IAuOt8vWmF_3syn4expr4ExprNtNtBK_5token5CommaEENtNtNtCsfvfooZQ3Axs_4core3ops5deref5Deref5derefBK_, symObjAddr: 0x6E10, symBinAddr: 0x340A4, symSize: 0x24 }
  - { offset: 0x7DC16, size: 0x8, addend: 0x0, symName: __RNvXs6_NtCse1nGBsou5OW_5alloc3vecINtB5_3VecTNtNtCs6IAuOt8vWmF_3syn4item5FnArgNtNtBK_5token5CommaEENtNtNtCsfvfooZQ3Axs_4core3ops5deref5Deref5derefBK_, symObjAddr: 0x6E34, symBinAddr: 0x340C8, symSize: 0x24 }
  - { offset: 0x7DC56, size: 0x8, addend: 0x0, symName: __RNvXs6_NtCse1nGBsou5OW_5alloc3vecINtB5_3VecTNtNtCs6IAuOt8vWmF_3syn4item7UseTreeNtNtBK_5token5CommaEENtNtNtCsfvfooZQ3Axs_4core3ops5deref5Deref5derefBK_, symObjAddr: 0x6E58, symBinAddr: 0x340EC, symSize: 0x24 }
  - { offset: 0x7DC96, size: 0x8, addend: 0x0, symName: __RNvXs6_NtCse1nGBsou5OW_5alloc3vecINtB5_3VecTNtNtCs6IAuOt8vWmF_3syn4path11PathSegmentNtNtBK_5token7PathSepEENtNtNtCsfvfooZQ3Axs_4core3ops5deref5Deref5derefBK_, symObjAddr: 0x6E7C, symBinAddr: 0x34110, symSize: 0x24 }
  - { offset: 0x7DCD6, size: 0x8, addend: 0x0, symName: __RNvXs6_NtCse1nGBsou5OW_5alloc3vecINtB5_3VecTNtNtCs6IAuOt8vWmF_3syn4path15GenericArgumentNtNtBK_5token5CommaEENtNtNtCsfvfooZQ3Axs_4core3ops5deref5Deref5derefBK_, symObjAddr: 0x6EA0, symBinAddr: 0x34134, symSize: 0x24 }
  - { offset: 0x7DD16, size: 0x8, addend: 0x0, symName: __RNvXs6_NtCse1nGBsou5OW_5alloc3vecINtB5_3VecTNtNtCs6IAuOt8vWmF_3syn8generics12GenericParamNtNtBK_5token5CommaEENtNtNtCsfvfooZQ3Axs_4core3ops5deref5Deref5derefBK_, symObjAddr: 0x6EC4, symBinAddr: 0x34158, symSize: 0x24 }
  - { offset: 0x7DD56, size: 0x8, addend: 0x0, symName: __RNvXs6_NtCse1nGBsou5OW_5alloc3vecINtB5_3VecTNtNtCs6IAuOt8vWmF_3syn8generics13CapturedParamNtNtBK_5token5CommaEENtNtNtCsfvfooZQ3Axs_4core3ops5deref5Deref5derefBK_, symObjAddr: 0x6EE8, symBinAddr: 0x3417C, symSize: 0x24 }
  - { offset: 0x7DD96, size: 0x8, addend: 0x0, symName: __RNvXs6_NtCse1nGBsou5OW_5alloc3vecINtB5_3VecTNtNtCs6IAuOt8vWmF_3syn8generics14TypeParamBoundNtNtBK_5token4PlusEENtNtNtCsfvfooZQ3Axs_4core3ops5deref5Deref5derefBK_, symObjAddr: 0x6F0C, symBinAddr: 0x341A0, symSize: 0x24 }
  - { offset: 0x7DDD6, size: 0x8, addend: 0x0, symName: __RNvXs6_NtCse1nGBsou5OW_5alloc3vecINtB5_3VecTNtNtCs6IAuOt8vWmF_3syn8generics14WherePredicateNtNtBK_5token5CommaEENtNtNtCsfvfooZQ3Axs_4core3ops5deref5Deref5derefBK_, symObjAddr: 0x6F30, symBinAddr: 0x341C4, symSize: 0x24 }
  - { offset: 0x7DE16, size: 0x8, addend: 0x0, symName: __RNvXs6_NtCse1nGBsou5OW_5alloc3vecINtB5_3VecTNtNtCs6IAuOt8vWmF_3syn8lifetime8LifetimeNtNtBK_5token4PlusEENtNtNtCsfvfooZQ3Axs_4core3ops5deref5Deref5derefBK_, symObjAddr: 0x6F54, symBinAddr: 0x341E8, symSize: 0x24 }
  - { offset: 0x7DE56, size: 0x8, addend: 0x0, symName: __RNvXs6_NtCse1nGBsou5OW_5alloc3vecINtB5_3VechENtNtNtCsfvfooZQ3Axs_4core3ops5deref5Deref5derefCs6IAuOt8vWmF_3syn, symObjAddr: 0x6F78, symBinAddr: 0x3420C, symSize: 0x24 }
  - { offset: 0x7E13C, size: 0x8, addend: 0x0, symName: __RNvXsb_NtCse1nGBsou5OW_5alloc3vecINtB5_3VecNtNtCs6IAuOt8vWmF_3syn5error12ErrorMessageEINtNtNtCsfvfooZQ3Axs_4core3ops5index5IndexjE5indexBJ_, symObjAddr: 0x7EA4, symBinAddr: 0x342B4, symSize: 0x84 }
  - { offset: 0x7E2BE, size: 0x8, addend: 0x0, symName: __RNvXsb_NtCse1nGBsou5OW_5alloc3vecINtB5_3VecReEINtNtNtCsfvfooZQ3Axs_4core3ops5index5IndexjE5indexCs6IAuOt8vWmF_3syn, symObjAddr: 0x7F28, symBinAddr: 0x34338, symSize: 0x84 }
  - { offset: 0x7E440, size: 0x8, addend: 0x0, symName: __RNvXsb_NtCse1nGBsou5OW_5alloc3vecINtB5_3VecTNtNtCs6IAuOt8vWmF_3syn3pat3PatNtNtBK_5token5CommaEEINtNtNtCsfvfooZQ3Axs_4core3ops5index5IndexjE5indexBK_, symObjAddr: 0x7FAC, symBinAddr: 0x343BC, symSize: 0x84 }
  - { offset: 0x7E5C2, size: 0x8, addend: 0x0, symName: __RNvXsb_NtCse1nGBsou5OW_5alloc3vecINtB5_3VecTNtNtCs6IAuOt8vWmF_3syn4path11PathSegmentNtNtBK_5token7PathSepEEINtNtNtCsfvfooZQ3Axs_4core3ops5index5IndexjE5indexBK_, symObjAddr: 0x8030, symBinAddr: 0x34440, symSize: 0x84 }
  - { offset: 0x7E744, size: 0x8, addend: 0x0, symName: __RNvXsb_NtCse1nGBsou5OW_5alloc3vecINtB5_3VechEINtNtNtCsfvfooZQ3Axs_4core3ops5index5IndexINtNtBM_5range9RangeFromjEE5indexCs6IAuOt8vWmF_3syn, symObjAddr: 0x80B4, symBinAddr: 0x344C4, symSize: 0x80 }
  - { offset: 0x7E8C6, size: 0x8, addend: 0x0, symName: __RNvXsb_NtCse1nGBsou5OW_5alloc3vecINtB5_3VechEINtNtNtCsfvfooZQ3Axs_4core3ops5index5IndexjE5indexCs6IAuOt8vWmF_3syn, symObjAddr: 0x8134, symBinAddr: 0x34544, symSize: 0x80 }
  - { offset: 0x7EA53, size: 0x8, addend: 0x0, symName: __RNvXNtNtCse1nGBsou5OW_5alloc3vec11spec_extendINtB4_3VecNtCs3cP53eQoTwO_11proc_macro29TokenTreeEINtB2_10SpecExtendBR_INtNtNtNtCsfvfooZQ3Axs_4core4iter8adapters7flatten7FlattenINtNtB1V_3map3MapIB2N_IB2N_INtNtNtB1Z_5slice4iter4IterNtNtCs6IAuOt8vWmF_3syn5error12ErrorMessageENvMs_B3G_B3E_16to_compile_errorENCINvXs7_BT_NtBT_11TokenStreamINtNtNtB1X_6traits7collect12FromIteratorB53_E9from_iterB38_E0ENCINvXs6_NtBT_3impNtB6u_11TokenStreamIB5m_B6D_E9from_iterB33_Es_0EEE11spec_extendB3I_, symObjAddr: 0x6590, symBinAddr: 0x33B54, symSize: 0x24 }
  - { offset: 0x7EAAB, size: 0x8, addend: 0x0, symName: __RNvXs0_NtNtCse1nGBsou5OW_5alloc3vec11spec_extendINtB7_3VecNtNtCs6IAuOt8vWmF_3syn4attr9AttributeEINtB5_10SpecExtendBU_INtNtB7_9into_iter8IntoIterBU_EE11spec_extendBY_, symObjAddr: 0x6AB8, symBinAddr: 0x33E14, symSize: 0x98 }
  - { offset: 0x7EB17, size: 0x8, addend: 0x0, symName: __RNvXs_NtNtCse1nGBsou5OW_5alloc3vec11spec_extendINtB6_3VecNtNtCs6IAuOt8vWmF_3syn8generics14TypeParamBoundEINtB4_10SpecExtendBT_INtNtCsfvfooZQ3Axs_4core6option8IntoIterBT_EE11spec_extendBX_, symObjAddr: 0x7E5C, symBinAddr: 0x3426C, symSize: 0x24 }
  - { offset: 0x7EB69, size: 0x8, addend: 0x0, symName: __RNvXs_NtNtCse1nGBsou5OW_5alloc3vec11spec_extendINtB6_3VecNtNtCs6IAuOt8vWmF_3syn8generics14TypeParamBoundEINtB4_10SpecExtendBT_INtNtNtNtCsfvfooZQ3Axs_4core4iter8adapters3map3MapINtNtB6_9into_iter8IntoIterTBT_NtNtBX_5token4PlusEENCNvXs8_NtBX_10punctuatedINtB3L_10PunctuatedBT_B3j_ENtNtNtB27_6traits7collect12IntoIterator9into_iter0EE11spec_extendBX_, symObjAddr: 0x7E80, symBinAddr: 0x34290, symSize: 0x24 }
  - { offset: 0x7EBC2, size: 0x8, addend: 0x0, symName: __RNvXs7_NtCse1nGBsou5OW_5alloc3vecINtB5_3VecTNtNtCs6IAuOt8vWmF_3syn4path11PathSegmentNtNtBK_5token7PathSepEENtNtNtCsfvfooZQ3Axs_4core3ops5deref8DerefMut9deref_mutBK_, symObjAddr: 0x6FC0, symBinAddr: 0x34230, symSize: 0x24 }
  - { offset: 0x7EC98, size: 0x8, addend: 0x0, symName: __RNvXsc_NtCse1nGBsou5OW_5alloc3vecINtB5_3VecNtNtCs6IAuOt8vWmF_3syn6buffer5EntryEINtNtNtCsfvfooZQ3Axs_4core3ops5index8IndexMutjE9index_mutBJ_, symObjAddr: 0x81B4, symBinAddr: 0x345C4, symSize: 0x84 }
  - { offset: 0x7EDEC, size: 0x8, addend: 0x0, symName: __RNvXsc_NtCse1nGBsou5OW_5alloc3vecINtB5_3VechEINtNtNtCsfvfooZQ3Axs_4core3ops5index8IndexMutjE9index_mutCs6IAuOt8vWmF_3syn, symObjAddr: 0x8238, symBinAddr: 0x34648, symSize: 0x80 }
  - { offset: 0x7EF46, size: 0x8, addend: 0x0, symName: __RNvXse_NtCse1nGBsou5OW_5alloc3vecINtB5_3VecNtNtCs6IAuOt8vWmF_3syn4attr9AttributeENtNtNtNtCsfvfooZQ3Axs_4core4iter6traits7collect12IntoIterator9into_iterBJ_, symObjAddr: 0x82B8, symBinAddr: 0x346C8, symSize: 0xDC }
  - { offset: 0x7F1D8, size: 0x8, addend: 0x0, symName: __RNvXse_NtCse1nGBsou5OW_5alloc3vecINtB5_3VecNtNtCs6IAuOt8vWmF_3syn8generics14TypeParamBoundENtNtNtNtCsfvfooZQ3Axs_4core4iter6traits7collect12IntoIterator9into_iterBJ_, symObjAddr: 0x855C, symBinAddr: 0x347A4, symSize: 0xE4 }
  - { offset: 0x7F46A, size: 0x8, addend: 0x0, symName: __RNvXse_NtCse1nGBsou5OW_5alloc3vecINtB5_3VecTNtNtCs6IAuOt8vWmF_3syn4path11PathSegmentNtNtBK_5token7PathSepEENtNtNtNtCsfvfooZQ3Axs_4core4iter6traits7collect12IntoIterator9into_iterBK_, symObjAddr: 0x8808, symBinAddr: 0x34888, symSize: 0xE4 }
  - { offset: 0x7F6FC, size: 0x8, addend: 0x0, symName: __RNvXse_NtCse1nGBsou5OW_5alloc3vecINtB5_3VecTNtNtCs6IAuOt8vWmF_3syn8generics14TypeParamBoundNtNtBK_5token4PlusEENtNtNtNtCsfvfooZQ3Axs_4core4iter6traits7collect12IntoIterator9into_iterBK_, symObjAddr: 0x88EC, symBinAddr: 0x3496C, symSize: 0xDC }
  - { offset: 0x7F994, size: 0x8, addend: 0x0, symName: __RNvXsf_NtCse1nGBsou5OW_5alloc3vecRINtB5_3VecNtNtCs6IAuOt8vWmF_3syn4attr9AttributeENtNtNtNtCsfvfooZQ3Axs_4core4iter6traits7collect12IntoIterator9into_iterBK_, symObjAddr: 0x89C8, symBinAddr: 0x34A48, symSize: 0x9C }
  - { offset: 0x7FBF0, size: 0x8, addend: 0x0, symName: __RNvXsf_NtCse1nGBsou5OW_5alloc3vecRINtB5_3VecNtNtCs6IAuOt8vWmF_3syn4item11ForeignItemENtNtNtNtCsfvfooZQ3Axs_4core4iter6traits7collect12IntoIterator9into_iterBK_, symObjAddr: 0x8A64, symBinAddr: 0x34AE4, symSize: 0xA4 }
  - { offset: 0x7FE4C, size: 0x8, addend: 0x0, symName: __RNvXsf_NtCse1nGBsou5OW_5alloc3vecRINtB5_3VecNtNtCs6IAuOt8vWmF_3syn4item4ItemENtNtNtNtCsfvfooZQ3Axs_4core4iter6traits7collect12IntoIterator9into_iterBK_, symObjAddr: 0x8B08, symBinAddr: 0x34B88, symSize: 0xA4 }
  - { offset: 0x800A8, size: 0x8, addend: 0x0, symName: __RNvXsf_NtCse1nGBsou5OW_5alloc3vecRINtB5_3VecNtNtCs6IAuOt8vWmF_3syn4item8ImplItemENtNtNtNtCsfvfooZQ3Axs_4core4iter6traits7collect12IntoIterator9into_iterBK_, symObjAddr: 0x8BAC, symBinAddr: 0x34C2C, symSize: 0xA4 }
  - { offset: 0x80304, size: 0x8, addend: 0x0, symName: __RNvXsf_NtCse1nGBsou5OW_5alloc3vecRINtB5_3VecNtNtCs6IAuOt8vWmF_3syn4item9TraitItemENtNtNtNtCsfvfooZQ3Axs_4core4iter6traits7collect12IntoIterator9into_iterBK_, symObjAddr: 0x8C50, symBinAddr: 0x34CD0, symSize: 0xA4 }
  - { offset: 0x80560, size: 0x8, addend: 0x0, symName: __RNvXsf_NtCse1nGBsou5OW_5alloc3vecRINtB5_3VecNtNtCs6IAuOt8vWmF_3syn4stmt4StmtENtNtNtNtCsfvfooZQ3Axs_4core4iter6traits7collect12IntoIterator9into_iterBK_, symObjAddr: 0x8CF4, symBinAddr: 0x34D74, symSize: 0xA4 }
  - { offset: 0x807C2, size: 0x8, addend: 0x0, symName: __RNvXsg_NtCse1nGBsou5OW_5alloc3vecQINtB5_3VechENtNtNtNtCsfvfooZQ3Axs_4core4iter6traits7collect12IntoIterator9into_iterCs6IAuOt8vWmF_3syn, symObjAddr: 0x9918, symBinAddr: 0x34E18, symSize: 0x98 }
  - { offset: 0x809F6, size: 0x8, addend: 0x0, symName: __RNvXsn_NtCse1nGBsou5OW_5alloc3vecINtB5_3VecNtNtCs6IAuOt8vWmF_3syn4attr9AttributeENtNtNtCsfvfooZQ3Axs_4core3ops4drop4Drop4dropBJ_, symObjAddr: 0x99B0, symBinAddr: 0x34EB0, symSize: 0x38 }
  - { offset: 0x80AA6, size: 0x8, addend: 0x0, symName: __RNvXsn_NtCse1nGBsou5OW_5alloc3vecINtB5_3VecNtNtCs6IAuOt8vWmF_3syn4expr3ArmENtNtNtCsfvfooZQ3Axs_4core3ops4drop4Drop4dropBJ_, symObjAddr: 0x9A20, symBinAddr: 0x34EE8, symSize: 0x38 }
  - { offset: 0x80B56, size: 0x8, addend: 0x0, symName: __RNvXsn_NtCse1nGBsou5OW_5alloc3vecINtB5_3VecNtNtCs6IAuOt8vWmF_3syn4expr6ExprIfENtNtNtCsfvfooZQ3Axs_4core3ops4drop4Drop4dropBJ_, symObjAddr: 0x9A58, symBinAddr: 0x34F20, symSize: 0x38 }
  - { offset: 0x80C06, size: 0x8, addend: 0x0, symName: __RNvXsn_NtCse1nGBsou5OW_5alloc3vecINtB5_3VecNtNtCs6IAuOt8vWmF_3syn4item11ForeignItemENtNtNtCsfvfooZQ3Axs_4core3ops4drop4Drop4dropBJ_, symObjAddr: 0x9A90, symBinAddr: 0x34F58, symSize: 0x38 }
  - { offset: 0x80CB6, size: 0x8, addend: 0x0, symName: __RNvXsn_NtCse1nGBsou5OW_5alloc3vecINtB5_3VecNtNtCs6IAuOt8vWmF_3syn4item4ItemENtNtNtCsfvfooZQ3Axs_4core3ops4drop4Drop4dropBJ_, symObjAddr: 0x9AC8, symBinAddr: 0x34F90, symSize: 0x38 }
  - { offset: 0x80D66, size: 0x8, addend: 0x0, symName: __RNvXsn_NtCse1nGBsou5OW_5alloc3vecINtB5_3VecNtNtCs6IAuOt8vWmF_3syn4item8ImplItemENtNtNtCsfvfooZQ3Axs_4core3ops4drop4Drop4dropBJ_, symObjAddr: 0x9B00, symBinAddr: 0x34FC8, symSize: 0x38 }
  - { offset: 0x80E16, size: 0x8, addend: 0x0, symName: __RNvXsn_NtCse1nGBsou5OW_5alloc3vecINtB5_3VecNtNtCs6IAuOt8vWmF_3syn4item9TraitItemENtNtNtCsfvfooZQ3Axs_4core3ops4drop4Drop4dropBJ_, symObjAddr: 0x9B38, symBinAddr: 0x35000, symSize: 0x38 }
  - { offset: 0x80EC6, size: 0x8, addend: 0x0, symName: __RNvXsn_NtCse1nGBsou5OW_5alloc3vecINtB5_3VecNtNtCs6IAuOt8vWmF_3syn4stmt4StmtENtNtNtCsfvfooZQ3Axs_4core3ops4drop4Drop4dropBJ_, symObjAddr: 0x9B70, symBinAddr: 0x35038, symSize: 0x38 }
  - { offset: 0x80F76, size: 0x8, addend: 0x0, symName: __RNvXsn_NtCse1nGBsou5OW_5alloc3vecINtB5_3VecNtNtCs6IAuOt8vWmF_3syn5error12ErrorMessageENtNtNtCsfvfooZQ3Axs_4core3ops4drop4Drop4dropBJ_, symObjAddr: 0x9BA8, symBinAddr: 0x35070, symSize: 0x38 }
  - { offset: 0x81026, size: 0x8, addend: 0x0, symName: __RNvXsn_NtCse1nGBsou5OW_5alloc3vecINtB5_3VecNtNtCs6IAuOt8vWmF_3syn6buffer5EntryENtNtNtCsfvfooZQ3Axs_4core3ops4drop4Drop4dropBJ_, symObjAddr: 0x9BE0, symBinAddr: 0x350A8, symSize: 0x38 }
  - { offset: 0x810D6, size: 0x8, addend: 0x0, symName: __RNvXsn_NtCse1nGBsou5OW_5alloc3vecINtB5_3VecNtNtCs6IAuOt8vWmF_3syn8generics14TypeParamBoundENtNtNtCsfvfooZQ3Axs_4core3ops4drop4Drop4dropBJ_, symObjAddr: 0x9C18, symBinAddr: 0x350E0, symSize: 0x38 }
  - { offset: 0x81186, size: 0x8, addend: 0x0, symName: __RNvXsn_NtCse1nGBsou5OW_5alloc3vecINtB5_3VecReENtNtNtCsfvfooZQ3Axs_4core3ops4drop4Drop4dropCs6IAuOt8vWmF_3syn, symObjAddr: 0x9C50, symBinAddr: 0x35118, symSize: 0x24 }
  - { offset: 0x81236, size: 0x8, addend: 0x0, symName: __RNvXsn_NtCse1nGBsou5OW_5alloc3vecINtB5_3VecTNtNtCs6IAuOt8vWmF_3syn2ty4TypeNtNtBK_5token5CommaEENtNtNtCsfvfooZQ3Axs_4core3ops4drop4Drop4dropBK_, symObjAddr: 0x9C74, symBinAddr: 0x3513C, symSize: 0x38 }
  - { offset: 0x812E6, size: 0x8, addend: 0x0, symName: __RNvXsn_NtCse1nGBsou5OW_5alloc3vecINtB5_3VecTNtNtCs6IAuOt8vWmF_3syn2ty9BareFnArgNtNtBK_5token5CommaEENtNtNtCsfvfooZQ3Axs_4core3ops4drop4Drop4dropBK_, symObjAddr: 0x9CAC, symBinAddr: 0x35174, symSize: 0x38 }
  - { offset: 0x81396, size: 0x8, addend: 0x0, symName: __RNvXsn_NtCse1nGBsou5OW_5alloc3vecINtB5_3VecTNtNtCs6IAuOt8vWmF_3syn3pat3PatNtNtBK_5token2OrEENtNtNtCsfvfooZQ3Axs_4core3ops4drop4Drop4dropBK_, symObjAddr: 0x9CE4, symBinAddr: 0x351AC, symSize: 0x38 }
  - { offset: 0x81446, size: 0x8, addend: 0x0, symName: __RNvXsn_NtCse1nGBsou5OW_5alloc3vecINtB5_3VecTNtNtCs6IAuOt8vWmF_3syn3pat3PatNtNtBK_5token5CommaEENtNtNtCsfvfooZQ3Axs_4core3ops4drop4Drop4dropBK_, symObjAddr: 0x9D1C, symBinAddr: 0x351E4, symSize: 0x38 }
  - { offset: 0x814F6, size: 0x8, addend: 0x0, symName: __RNvXsn_NtCse1nGBsou5OW_5alloc3vecINtB5_3VecTNtNtCs6IAuOt8vWmF_3syn3pat8FieldPatNtNtBK_5token5CommaEENtNtNtCsfvfooZQ3Axs_4core3ops4drop4Drop4dropBK_, symObjAddr: 0x9D54, symBinAddr: 0x3521C, symSize: 0x38 }
  - { offset: 0x815A6, size: 0x8, addend: 0x0, symName: __RNvXsn_NtCse1nGBsou5OW_5alloc3vecINtB5_3VecTNtNtCs6IAuOt8vWmF_3syn4data5FieldNtNtBK_5token5CommaEENtNtNtCsfvfooZQ3Axs_4core3ops4drop4Drop4dropBK_, symObjAddr: 0x9D8C, symBinAddr: 0x35254, symSize: 0x38 }
  - { offset: 0x81656, size: 0x8, addend: 0x0, symName: __RNvXsn_NtCse1nGBsou5OW_5alloc3vecINtB5_3VecTNtNtCs6IAuOt8vWmF_3syn4data7VariantNtNtBK_5token5CommaEENtNtNtCsfvfooZQ3Axs_4core3ops4drop4Drop4dropBK_, symObjAddr: 0x9DFC, symBinAddr: 0x3528C, symSize: 0x38 }
  - { offset: 0x81706, size: 0x8, addend: 0x0, symName: __RNvXsn_NtCse1nGBsou5OW_5alloc3vecINtB5_3VecTNtNtCs6IAuOt8vWmF_3syn4expr10FieldValueNtNtBK_5token5CommaEENtNtNtCsfvfooZQ3Axs_4core3ops4drop4Drop4dropBK_, symObjAddr: 0x9E34, symBinAddr: 0x352C4, symSize: 0x38 }
  - { offset: 0x817B6, size: 0x8, addend: 0x0, symName: __RNvXsn_NtCse1nGBsou5OW_5alloc3vecINtB5_3VecTNtNtCs6IAuOt8vWmF_3syn4expr4ExprNtNtBK_5token5CommaEENtNtNtCsfvfooZQ3Axs_4core3ops4drop4Drop4dropBK_, symObjAddr: 0x9E6C, symBinAddr: 0x352FC, symSize: 0x38 }
  - { offset: 0x81866, size: 0x8, addend: 0x0, symName: __RNvXsn_NtCse1nGBsou5OW_5alloc3vecINtB5_3VecTNtNtCs6IAuOt8vWmF_3syn4item5FnArgNtNtBK_5token5CommaEENtNtNtCsfvfooZQ3Axs_4core3ops4drop4Drop4dropBK_, symObjAddr: 0x9EA4, symBinAddr: 0x35334, symSize: 0x38 }
  - { offset: 0x81916, size: 0x8, addend: 0x0, symName: __RNvXsn_NtCse1nGBsou5OW_5alloc3vecINtB5_3VecTNtNtCs6IAuOt8vWmF_3syn4item7UseTreeNtNtBK_5token5CommaEENtNtNtCsfvfooZQ3Axs_4core3ops4drop4Drop4dropBK_, symObjAddr: 0x9EDC, symBinAddr: 0x3536C, symSize: 0x38 }
  - { offset: 0x819C6, size: 0x8, addend: 0x0, symName: __RNvXsn_NtCse1nGBsou5OW_5alloc3vecINtB5_3VecTNtNtCs6IAuOt8vWmF_3syn4path11PathSegmentNtNtBK_5token7PathSepEENtNtNtCsfvfooZQ3Axs_4core3ops4drop4Drop4dropBK_, symObjAddr: 0x9F14, symBinAddr: 0x353A4, symSize: 0x38 }
  - { offset: 0x81A76, size: 0x8, addend: 0x0, symName: __RNvXsn_NtCse1nGBsou5OW_5alloc3vecINtB5_3VecTNtNtCs6IAuOt8vWmF_3syn4path15GenericArgumentNtNtBK_5token5CommaEENtNtNtCsfvfooZQ3Axs_4core3ops4drop4Drop4dropBK_, symObjAddr: 0x9F4C, symBinAddr: 0x353DC, symSize: 0x38 }
  - { offset: 0x81B26, size: 0x8, addend: 0x0, symName: __RNvXsn_NtCse1nGBsou5OW_5alloc3vecINtB5_3VecTNtNtCs6IAuOt8vWmF_3syn8generics12GenericParamNtNtBK_5token5CommaEENtNtNtCsfvfooZQ3Axs_4core3ops4drop4Drop4dropBK_, symObjAddr: 0x9F84, symBinAddr: 0x35414, symSize: 0x38 }
  - { offset: 0x81BD6, size: 0x8, addend: 0x0, symName: __RNvXsn_NtCse1nGBsou5OW_5alloc3vecINtB5_3VecTNtNtCs6IAuOt8vWmF_3syn8generics13CapturedParamNtNtBK_5token5CommaEENtNtNtCsfvfooZQ3Axs_4core3ops4drop4Drop4dropBK_, symObjAddr: 0x9FBC, symBinAddr: 0x3544C, symSize: 0x38 }
  - { offset: 0x81C86, size: 0x8, addend: 0x0, symName: __RNvXsn_NtCse1nGBsou5OW_5alloc3vecINtB5_3VecTNtNtCs6IAuOt8vWmF_3syn8generics14TypeParamBoundNtNtBK_5token4PlusEENtNtNtCsfvfooZQ3Axs_4core3ops4drop4Drop4dropBK_, symObjAddr: 0x9FF4, symBinAddr: 0x35484, symSize: 0x38 }
  - { offset: 0x81D36, size: 0x8, addend: 0x0, symName: __RNvXsn_NtCse1nGBsou5OW_5alloc3vecINtB5_3VecTNtNtCs6IAuOt8vWmF_3syn8generics14WherePredicateNtNtBK_5token5CommaEENtNtNtCsfvfooZQ3Axs_4core3ops4drop4Drop4dropBK_, symObjAddr: 0xA02C, symBinAddr: 0x354BC, symSize: 0x38 }
  - { offset: 0x81DE6, size: 0x8, addend: 0x0, symName: __RNvXsn_NtCse1nGBsou5OW_5alloc3vecINtB5_3VecTNtNtCs6IAuOt8vWmF_3syn8lifetime8LifetimeNtNtBK_5token4PlusEENtNtNtCsfvfooZQ3Axs_4core3ops4drop4Drop4dropBK_, symObjAddr: 0xA064, symBinAddr: 0x354F4, symSize: 0x38 }
  - { offset: 0x81E9C, size: 0x8, addend: 0x0, symName: __RNvXsp_NtCse1nGBsou5OW_5alloc3vecINtB5_3VecNtNtCs6IAuOt8vWmF_3syn5error12ErrorMessageENtNtCsfvfooZQ3Axs_4core3fmt5Debug3fmtBJ_, symObjAddr: 0xA3C8, symBinAddr: 0x3552C, symSize: 0x74 }
  - { offset: 0x81FAC, size: 0x8, addend: 0x0, symName: __RNvXsp_NtCse1nGBsou5OW_5alloc3vecINtB5_3VechENtNtCsfvfooZQ3Axs_4core3fmt5Debug3fmtCs6IAuOt8vWmF_3syn, symObjAddr: 0xA43C, symBinAddr: 0x355A0, symSize: 0x70 }
  - { offset: 0x844DA, size: 0x8, addend: 0x0, symName: __RNvXsV_NtCse1nGBsou5OW_5alloc6stringINtNtB7_3vec3VechEINtNtCsfvfooZQ3Axs_4core7convert4FromNtB5_6StringE4fromCs6IAuOt8vWmF_3syn, symObjAddr: 0x7DD8, symBinAddr: 0x34254, symSize: 0x18 }
  - { offset: 0x8472F, size: 0x8, addend: 0x0, symName: __RNvXNvMs_NtNtCse1nGBsou5OW_5alloc3ffi5c_strNtB7_7CString3newINtNtBb_3vec3VechENtB2_11SpecNewImpl13spec_new_implCs6IAuOt8vWmF_3syn, symObjAddr: 0x6940, symBinAddr: 0x33C9C, symSize: 0x178 }
  - { offset: 0x897B2, size: 0x8, addend: 0x0, symName: __RINvMs_NtCse1nGBsou5OW_5alloc3vecINtB5_3VecReE10retain_mutNCNvMNtCs6IAuOt8vWmF_3syn9lookaheadNtBZ_10Lookahead15error0EB11_, symObjAddr: 0x0, symBinAddr: 0x2F720, symSize: 0xE4 }
  - { offset: 0x89A8E, size: 0x8, addend: 0x0, symName: __RINvMsi_NtCse1nGBsou5OW_5alloc3vecINtB6_3VecNtCs3cP53eQoTwO_11proc_macro29TokenTreeE16extend_desugaredINtNtNtNtCsfvfooZQ3Axs_4core4iter8adapters7flatten7FlattenINtNtB1H_3map3MapIB2z_IB2z_INtNtNtB1L_5slice4iter4IterNtNtCs6IAuOt8vWmF_3syn5error12ErrorMessageENvMs_B3s_B3q_16to_compile_errorENCINvXs7_BI_NtBI_11TokenStreamINtNtNtB1J_6traits7collect12FromIteratorB4P_E9from_iterB2U_E0ENCINvXs6_NtBI_3impNtB6g_11TokenStreamIB58_B6p_E9from_iterB2P_Es_0EEEB3u_, symObjAddr: 0xE4, symBinAddr: 0x2F804, symSize: 0x1D4 }
  - { offset: 0x8A430, size: 0x8, addend: 0x0, symName: __RINvMsi_NtCse1nGBsou5OW_5alloc3vecINtB6_3VecNtNtCs6IAuOt8vWmF_3syn8generics14TypeParamBoundE14extend_trustedINtNtCsfvfooZQ3Axs_4core6option8IntoIterBG_EEBK_, symObjAddr: 0x93C, symBinAddr: 0x2F9D8, symSize: 0x1A0 }
  - { offset: 0x8A6DC, size: 0x8, addend: 0x0, symName: __RINvMsi_NtCse1nGBsou5OW_5alloc3vecINtB6_3VecNtNtCs6IAuOt8vWmF_3syn8generics14TypeParamBoundE14extend_trustedINtNtNtNtCsfvfooZQ3Axs_4core4iter8adapters3map3MapINtNtB6_9into_iter8IntoIterTBG_NtNtBK_5token4PlusEENCNvXs8_NtBK_10punctuatedINtB3t_10PunctuatedBG_B31_ENtNtNtB1P_6traits7collect12IntoIterator9into_iter0EEBK_, symObjAddr: 0xADC, symBinAddr: 0x2FB78, symSize: 0x188 }
  - { offset: 0x8AA1A, size: 0x8, addend: 0x0, symName: __RNvMNtCse1nGBsou5OW_5alloc3vecINtB2_3VecNtNtCs6IAuOt8vWmF_3syn4attr9AttributeE3newBG_, symObjAddr: 0x12C0, symBinAddr: 0x300FC, symSize: 0x14 }
  - { offset: 0x8AA37, size: 0x8, addend: 0x0, symName: __RNvMNtCse1nGBsou5OW_5alloc3vecINtB2_3VecNtNtCs6IAuOt8vWmF_3syn4expr3ArmE3newBG_, symObjAddr: 0x131C, symBinAddr: 0x30110, symSize: 0x14 }
  - { offset: 0x8AA54, size: 0x8, addend: 0x0, symName: __RNvMNtCse1nGBsou5OW_5alloc3vecINtB2_3VecNtNtCs6IAuOt8vWmF_3syn4expr6ExprIfE3newBG_, symObjAddr: 0x1330, symBinAddr: 0x30124, symSize: 0x14 }
  - { offset: 0x8AA71, size: 0x8, addend: 0x0, symName: __RNvMNtCse1nGBsou5OW_5alloc3vecINtB2_3VecNtNtCs6IAuOt8vWmF_3syn4item11ForeignItemE3newBG_, symObjAddr: 0x1344, symBinAddr: 0x30138, symSize: 0x14 }
  - { offset: 0x8AA8E, size: 0x8, addend: 0x0, symName: __RNvMNtCse1nGBsou5OW_5alloc3vecINtB2_3VecNtNtCs6IAuOt8vWmF_3syn4item4ItemE3newBG_, symObjAddr: 0x1358, symBinAddr: 0x3014C, symSize: 0x14 }
  - { offset: 0x8AAAB, size: 0x8, addend: 0x0, symName: __RNvMNtCse1nGBsou5OW_5alloc3vecINtB2_3VecNtNtCs6IAuOt8vWmF_3syn4item8ImplItemE3newBG_, symObjAddr: 0x136C, symBinAddr: 0x30160, symSize: 0x14 }
  - { offset: 0x8AAC8, size: 0x8, addend: 0x0, symName: __RNvMNtCse1nGBsou5OW_5alloc3vecINtB2_3VecNtNtCs6IAuOt8vWmF_3syn4item9TraitItemE3newBG_, symObjAddr: 0x1380, symBinAddr: 0x30174, symSize: 0x14 }
  - { offset: 0x8AAE5, size: 0x8, addend: 0x0, symName: __RNvMNtCse1nGBsou5OW_5alloc3vecINtB2_3VecNtNtCs6IAuOt8vWmF_3syn4stmt4StmtE3newBG_, symObjAddr: 0x1394, symBinAddr: 0x30188, symSize: 0x14 }
  - { offset: 0x8AB02, size: 0x8, addend: 0x0, symName: __RNvMNtCse1nGBsou5OW_5alloc3vecINtB2_3VecNtNtCs6IAuOt8vWmF_3syn6buffer5EntryE3newBG_, symObjAddr: 0x13A8, symBinAddr: 0x3019C, symSize: 0x14 }
  - { offset: 0x8AB81, size: 0x8, addend: 0x0, symName: __RNvMNtCse1nGBsou5OW_5alloc3vecINtB2_3VecNtNtCs6IAuOt8vWmF_3syn8generics14TypeParamBoundE13with_capacityBG_, symObjAddr: 0x13BC, symBinAddr: 0x301B0, symSize: 0x48 }
  - { offset: 0x8ABF9, size: 0x8, addend: 0x0, symName: __RNvMNtCse1nGBsou5OW_5alloc3vecINtB2_3VecReE3newCs6IAuOt8vWmF_3syn, symObjAddr: 0x1404, symBinAddr: 0x301F8, symSize: 0x14 }
  - { offset: 0x8AC16, size: 0x8, addend: 0x0, symName: __RNvMNtCse1nGBsou5OW_5alloc3vecINtB2_3VecTNtNtCs6IAuOt8vWmF_3syn2ty4TypeNtNtBH_5token5CommaEE3newBH_, symObjAddr: 0x1418, symBinAddr: 0x3020C, symSize: 0x14 }
  - { offset: 0x8AC33, size: 0x8, addend: 0x0, symName: __RNvMNtCse1nGBsou5OW_5alloc3vecINtB2_3VecTNtNtCs6IAuOt8vWmF_3syn2ty9BareFnArgNtNtBH_5token5CommaEE3newBH_, symObjAddr: 0x142C, symBinAddr: 0x30220, symSize: 0x14 }
  - { offset: 0x8AC50, size: 0x8, addend: 0x0, symName: __RNvMNtCse1nGBsou5OW_5alloc3vecINtB2_3VecTNtNtCs6IAuOt8vWmF_3syn3pat3PatNtNtBH_5token2OrEE3newBH_, symObjAddr: 0x1440, symBinAddr: 0x30234, symSize: 0x14 }
  - { offset: 0x8AC6D, size: 0x8, addend: 0x0, symName: __RNvMNtCse1nGBsou5OW_5alloc3vecINtB2_3VecTNtNtCs6IAuOt8vWmF_3syn3pat3PatNtNtBH_5token5CommaEE3newBH_, symObjAddr: 0x1454, symBinAddr: 0x30248, symSize: 0x14 }
  - { offset: 0x8AC8A, size: 0x8, addend: 0x0, symName: __RNvMNtCse1nGBsou5OW_5alloc3vecINtB2_3VecTNtNtCs6IAuOt8vWmF_3syn3pat8FieldPatNtNtBH_5token5CommaEE3newBH_, symObjAddr: 0x1468, symBinAddr: 0x3025C, symSize: 0x14 }
  - { offset: 0x8ACA7, size: 0x8, addend: 0x0, symName: __RNvMNtCse1nGBsou5OW_5alloc3vecINtB2_3VecTNtNtCs6IAuOt8vWmF_3syn4data5FieldNtNtBH_5token5CommaEE3newBH_, symObjAddr: 0x147C, symBinAddr: 0x30270, symSize: 0x14 }
  - { offset: 0x8ACC4, size: 0x8, addend: 0x0, symName: __RNvMNtCse1nGBsou5OW_5alloc3vecINtB2_3VecTNtNtCs6IAuOt8vWmF_3syn4data7VariantNtNtBH_5token5CommaEE3newBH_, symObjAddr: 0x14A4, symBinAddr: 0x30284, symSize: 0x14 }
  - { offset: 0x8ACE1, size: 0x8, addend: 0x0, symName: __RNvMNtCse1nGBsou5OW_5alloc3vecINtB2_3VecTNtNtCs6IAuOt8vWmF_3syn4expr10FieldValueNtNtBH_5token5CommaEE3newBH_, symObjAddr: 0x14B8, symBinAddr: 0x30298, symSize: 0x14 }
  - { offset: 0x8ACFE, size: 0x8, addend: 0x0, symName: __RNvMNtCse1nGBsou5OW_5alloc3vecINtB2_3VecTNtNtCs6IAuOt8vWmF_3syn4expr4ExprNtNtBH_5token5CommaEE3newBH_, symObjAddr: 0x14CC, symBinAddr: 0x302AC, symSize: 0x14 }
  - { offset: 0x8AD1B, size: 0x8, addend: 0x0, symName: __RNvMNtCse1nGBsou5OW_5alloc3vecINtB2_3VecTNtNtCs6IAuOt8vWmF_3syn4item5FnArgNtNtBH_5token5CommaEE3newBH_, symObjAddr: 0x14E0, symBinAddr: 0x302C0, symSize: 0x14 }
  - { offset: 0x8AD38, size: 0x8, addend: 0x0, symName: __RNvMNtCse1nGBsou5OW_5alloc3vecINtB2_3VecTNtNtCs6IAuOt8vWmF_3syn4item7UseTreeNtNtBH_5token5CommaEE3newBH_, symObjAddr: 0x14F4, symBinAddr: 0x302D4, symSize: 0x14 }
  - { offset: 0x8AD55, size: 0x8, addend: 0x0, symName: __RNvMNtCse1nGBsou5OW_5alloc3vecINtB2_3VecTNtNtCs6IAuOt8vWmF_3syn4path11PathSegmentNtNtBH_5token7PathSepEE3newBH_, symObjAddr: 0x1508, symBinAddr: 0x302E8, symSize: 0x14 }
  - { offset: 0x8AD72, size: 0x8, addend: 0x0, symName: __RNvMNtCse1nGBsou5OW_5alloc3vecINtB2_3VecTNtNtCs6IAuOt8vWmF_3syn4path15GenericArgumentNtNtBH_5token5CommaEE3newBH_, symObjAddr: 0x151C, symBinAddr: 0x302FC, symSize: 0x14 }
  - { offset: 0x8AD8F, size: 0x8, addend: 0x0, symName: __RNvMNtCse1nGBsou5OW_5alloc3vecINtB2_3VecTNtNtCs6IAuOt8vWmF_3syn8generics12GenericParamNtNtBH_5token5CommaEE3newBH_, symObjAddr: 0x1530, symBinAddr: 0x30310, symSize: 0x14 }
  - { offset: 0x8ADAC, size: 0x8, addend: 0x0, symName: __RNvMNtCse1nGBsou5OW_5alloc3vecINtB2_3VecTNtNtCs6IAuOt8vWmF_3syn8generics13CapturedParamNtNtBH_5token5CommaEE3newBH_, symObjAddr: 0x1544, symBinAddr: 0x30324, symSize: 0x14 }
  - { offset: 0x8ADC9, size: 0x8, addend: 0x0, symName: __RNvMNtCse1nGBsou5OW_5alloc3vecINtB2_3VecTNtNtCs6IAuOt8vWmF_3syn8generics14TypeParamBoundNtNtBH_5token4PlusEE3newBH_, symObjAddr: 0x1558, symBinAddr: 0x30338, symSize: 0x14 }
  - { offset: 0x8ADE6, size: 0x8, addend: 0x0, symName: __RNvMNtCse1nGBsou5OW_5alloc3vecINtB2_3VecTNtNtCs6IAuOt8vWmF_3syn8generics14WherePredicateNtNtBH_5token5CommaEE3newBH_, symObjAddr: 0x156C, symBinAddr: 0x3034C, symSize: 0x14 }
  - { offset: 0x8AE03, size: 0x8, addend: 0x0, symName: __RNvMNtCse1nGBsou5OW_5alloc3vecINtB2_3VecTNtNtCs6IAuOt8vWmF_3syn8lifetime8LifetimeNtNtBH_5token4PlusEE3newBH_, symObjAddr: 0x1580, symBinAddr: 0x30360, symSize: 0x14 }
  - { offset: 0x8AE20, size: 0x8, addend: 0x0, symName: __RNvMNtCse1nGBsou5OW_5alloc3vecINtB2_3VechE3newCs6IAuOt8vWmF_3syn, symObjAddr: 0x1594, symBinAddr: 0x30374, symSize: 0x14 }
  - { offset: 0x8AF42, size: 0x8, addend: 0x0, symName: __RNvMs0_NtCse1nGBsou5OW_5alloc3vecINtB5_3VechE17extend_from_sliceCs6IAuOt8vWmF_3syn, symObjAddr: 0x15A8, symBinAddr: 0x30388, symSize: 0x74 }
  - { offset: 0x8B1CA, size: 0x8, addend: 0x0, symName: __RNvMs0_NtCse1nGBsou5OW_5alloc3vecINtB5_3VechE6resizeCs6IAuOt8vWmF_3syn, symObjAddr: 0x161C, symBinAddr: 0x303FC, symSize: 0x100 }
  - { offset: 0x8B46B, size: 0x8, addend: 0x0, symName: __RNvMs2_NtCse1nGBsou5OW_5alloc3vecINtB5_3VechE11extend_withCs6IAuOt8vWmF_3syn, symObjAddr: 0x171C, symBinAddr: 0x304FC, symSize: 0x230 }
  - { offset: 0x8B81C, size: 0x8, addend: 0x0, symName: __RNvMs_NtCse1nGBsou5OW_5alloc3vecINtB4_3VecNtNtCs6IAuOt8vWmF_3syn4attr9AttributeE15append_elementsBI_, symObjAddr: 0x194C, symBinAddr: 0x3072C, symSize: 0xD8 }
  - { offset: 0x8BA51, size: 0x8, addend: 0x0, symName: __RNvMs_NtCse1nGBsou5OW_5alloc3vecINtB4_3VecNtNtCs6IAuOt8vWmF_3syn4attr9AttributeE4pushBI_, symObjAddr: 0x1A24, symBinAddr: 0x30804, symSize: 0x118 }
  - { offset: 0x8BCED, size: 0x8, addend: 0x0, symName: __RNvMs_NtCse1nGBsou5OW_5alloc3vecINtB4_3VecNtNtCs6IAuOt8vWmF_3syn4attr9AttributeE6appendBI_, symObjAddr: 0x1B3C, symBinAddr: 0x3091C, symSize: 0x8C }
  - { offset: 0x8BF22, size: 0x8, addend: 0x0, symName: __RNvMs_NtCse1nGBsou5OW_5alloc3vecINtB4_3VecNtNtCs6IAuOt8vWmF_3syn4attr9AttributeE7reserveBI_, symObjAddr: 0x1BC8, symBinAddr: 0x309A8, symSize: 0xC8 }
  - { offset: 0x8C0F9, size: 0x8, addend: 0x0, symName: __RNvMs_NtCse1nGBsou5OW_5alloc3vecINtB4_3VecNtNtCs6IAuOt8vWmF_3syn4attr9AttributeE8as_sliceBI_, symObjAddr: 0x1C90, symBinAddr: 0x30A70, symSize: 0x64 }
  - { offset: 0x8C1D8, size: 0x8, addend: 0x0, symName: __RNvMs_NtCse1nGBsou5OW_5alloc3vecINtB4_3VecNtNtCs6IAuOt8vWmF_3syn4attr9AttributeE8is_emptyBI_, symObjAddr: 0x1CF4, symBinAddr: 0x30AD4, symSize: 0x20 }
  - { offset: 0x8C238, size: 0x8, addend: 0x0, symName: __RNvMs_NtCse1nGBsou5OW_5alloc3vecINtB4_3VecNtNtCs6IAuOt8vWmF_3syn4expr3ArmE3lenBI_, symObjAddr: 0x1DDC, symBinAddr: 0x30AF4, symSize: 0x18 }
  - { offset: 0x8C380, size: 0x8, addend: 0x0, symName: __RNvMs_NtCse1nGBsou5OW_5alloc3vecINtB4_3VecNtNtCs6IAuOt8vWmF_3syn4expr3ArmE4pushBI_, symObjAddr: 0x1DF4, symBinAddr: 0x30B0C, symSize: 0x120 }
  - { offset: 0x8C5CE, size: 0x8, addend: 0x0, symName: __RNvMs_NtCse1nGBsou5OW_5alloc3vecINtB4_3VecNtNtCs6IAuOt8vWmF_3syn4expr3ArmE8as_sliceBI_, symObjAddr: 0x1F14, symBinAddr: 0x30C2C, symSize: 0x64 }
  - { offset: 0x8C7E2, size: 0x8, addend: 0x0, symName: __RNvMs_NtCse1nGBsou5OW_5alloc3vecINtB4_3VecNtNtCs6IAuOt8vWmF_3syn4expr6ExprIfE3popBI_, symObjAddr: 0x1F78, symBinAddr: 0x30C90, symSize: 0x100 }
  - { offset: 0x8CA56, size: 0x8, addend: 0x0, symName: __RNvMs_NtCse1nGBsou5OW_5alloc3vecINtB4_3VecNtNtCs6IAuOt8vWmF_3syn4expr6ExprIfE4pushBI_, symObjAddr: 0x2078, symBinAddr: 0x30D90, symSize: 0x120 }
  - { offset: 0x8CD20, size: 0x8, addend: 0x0, symName: __RNvMs_NtCse1nGBsou5OW_5alloc3vecINtB4_3VecNtNtCs6IAuOt8vWmF_3syn4item11ForeignItemE4pushBI_, symObjAddr: 0x2198, symBinAddr: 0x30EB0, symSize: 0x120 }
  - { offset: 0x8CFEA, size: 0x8, addend: 0x0, symName: __RNvMs_NtCse1nGBsou5OW_5alloc3vecINtB4_3VecNtNtCs6IAuOt8vWmF_3syn4item4ItemE4pushBI_, symObjAddr: 0x22B8, symBinAddr: 0x30FD0, symSize: 0x120 }
  - { offset: 0x8D2B4, size: 0x8, addend: 0x0, symName: __RNvMs_NtCse1nGBsou5OW_5alloc3vecINtB4_3VecNtNtCs6IAuOt8vWmF_3syn4item8ImplItemE4pushBI_, symObjAddr: 0x23D8, symBinAddr: 0x310F0, symSize: 0x120 }
  - { offset: 0x8D57E, size: 0x8, addend: 0x0, symName: __RNvMs_NtCse1nGBsou5OW_5alloc3vecINtB4_3VecNtNtCs6IAuOt8vWmF_3syn4item9TraitItemE4pushBI_, symObjAddr: 0x24F8, symBinAddr: 0x31210, symSize: 0x120 }
  - { offset: 0x8D848, size: 0x8, addend: 0x0, symName: __RNvMs_NtCse1nGBsou5OW_5alloc3vecINtB4_3VecNtNtCs6IAuOt8vWmF_3syn4stmt4StmtE4pushBI_, symObjAddr: 0x2618, symBinAddr: 0x31330, symSize: 0x120 }
  - { offset: 0x8DA5A, size: 0x8, addend: 0x0, symName: __RNvMs_NtCse1nGBsou5OW_5alloc3vecINtB4_3VecNtNtCs6IAuOt8vWmF_3syn5error12ErrorMessageE3lenBI_, symObjAddr: 0x2818, symBinAddr: 0x31450, symSize: 0x18 }
  - { offset: 0x8DB2A, size: 0x8, addend: 0x0, symName: __RNvMs_NtCse1nGBsou5OW_5alloc3vecINtB4_3VecNtNtCs6IAuOt8vWmF_3syn5error12ErrorMessageE8as_sliceBI_, symObjAddr: 0x28F8, symBinAddr: 0x31468, symSize: 0x64 }
  - { offset: 0x8DD11, size: 0x8, addend: 0x0, symName: __RNvMs_NtCse1nGBsou5OW_5alloc3vecINtB4_3VecNtNtCs6IAuOt8vWmF_3syn6buffer5EntryE13shrink_to_fitBI_, symObjAddr: 0x295C, symBinAddr: 0x314CC, symSize: 0xEC }
  - { offset: 0x8DF84, size: 0x8, addend: 0x0, symName: __RNvMs_NtCse1nGBsou5OW_5alloc3vecINtB4_3VecNtNtCs6IAuOt8vWmF_3syn6buffer5EntryE16into_boxed_sliceBI_, symObjAddr: 0x2A48, symBinAddr: 0x315B8, symSize: 0x110 }
  - { offset: 0x8E14D, size: 0x8, addend: 0x0, symName: __RNvMs_NtCse1nGBsou5OW_5alloc3vecINtB4_3VecNtNtCs6IAuOt8vWmF_3syn6buffer5EntryE3lenBI_, symObjAddr: 0x2B58, symBinAddr: 0x316C8, symSize: 0x18 }
  - { offset: 0x8E26E, size: 0x8, addend: 0x0, symName: __RNvMs_NtCse1nGBsou5OW_5alloc3vecINtB4_3VecNtNtCs6IAuOt8vWmF_3syn6buffer5EntryE4pushBI_, symObjAddr: 0x2B70, symBinAddr: 0x316E0, symSize: 0x100 }
  - { offset: 0x8E538, size: 0x8, addend: 0x0, symName: __RNvMs_NtCse1nGBsou5OW_5alloc3vecINtB4_3VecNtNtCs6IAuOt8vWmF_3syn8generics14TypeParamBoundE7reserveBI_, symObjAddr: 0x2C70, symBinAddr: 0x317E0, symSize: 0xC8 }
  - { offset: 0x8E69F, size: 0x8, addend: 0x0, symName: __RNvMs_NtCse1nGBsou5OW_5alloc3vecINtB4_3VecReE3lenCs6IAuOt8vWmF_3syn, symObjAddr: 0x2D38, symBinAddr: 0x318A8, symSize: 0x18 }
  - { offset: 0x8E7B3, size: 0x8, addend: 0x0, symName: __RNvMs_NtCse1nGBsou5OW_5alloc3vecINtB4_3VecReE4pushCs6IAuOt8vWmF_3syn, symObjAddr: 0x2D50, symBinAddr: 0x318C0, symSize: 0xF4 }
  - { offset: 0x8E9D6, size: 0x8, addend: 0x0, symName: __RNvMs_NtCse1nGBsou5OW_5alloc3vecINtB4_3VecReE8as_sliceCs6IAuOt8vWmF_3syn, symObjAddr: 0x2E44, symBinAddr: 0x319B4, symSize: 0x64 }
  - { offset: 0x8EA9D, size: 0x8, addend: 0x0, symName: __RNvMs_NtCse1nGBsou5OW_5alloc3vecINtB4_3VecTNtNtCs6IAuOt8vWmF_3syn2ty4TypeNtNtBJ_5token5CommaEE3lenBJ_, symObjAddr: 0x2EA8, symBinAddr: 0x31A18, symSize: 0x18 }
  - { offset: 0x8EBE5, size: 0x8, addend: 0x0, symName: __RNvMs_NtCse1nGBsou5OW_5alloc3vecINtB4_3VecTNtNtCs6IAuOt8vWmF_3syn2ty4TypeNtNtBJ_5token5CommaEE4pushBJ_, symObjAddr: 0x2EC0, symBinAddr: 0x31A30, symSize: 0x120 }
  - { offset: 0x8EE33, size: 0x8, addend: 0x0, symName: __RNvMs_NtCse1nGBsou5OW_5alloc3vecINtB4_3VecTNtNtCs6IAuOt8vWmF_3syn2ty4TypeNtNtBJ_5token5CommaEE8as_sliceBJ_, symObjAddr: 0x2FE0, symBinAddr: 0x31B50, symSize: 0x64 }
  - { offset: 0x8EEFA, size: 0x8, addend: 0x0, symName: __RNvMs_NtCse1nGBsou5OW_5alloc3vecINtB4_3VecTNtNtCs6IAuOt8vWmF_3syn2ty9BareFnArgNtNtBJ_5token5CommaEE3lenBJ_, symObjAddr: 0x3044, symBinAddr: 0x31BB4, symSize: 0x18 }
  - { offset: 0x8F042, size: 0x8, addend: 0x0, symName: __RNvMs_NtCse1nGBsou5OW_5alloc3vecINtB4_3VecTNtNtCs6IAuOt8vWmF_3syn2ty9BareFnArgNtNtBJ_5token5CommaEE4pushBJ_, symObjAddr: 0x305C, symBinAddr: 0x31BCC, symSize: 0x120 }
  - { offset: 0x8F290, size: 0x8, addend: 0x0, symName: __RNvMs_NtCse1nGBsou5OW_5alloc3vecINtB4_3VecTNtNtCs6IAuOt8vWmF_3syn2ty9BareFnArgNtNtBJ_5token5CommaEE8as_sliceBJ_, symObjAddr: 0x317C, symBinAddr: 0x31CEC, symSize: 0x64 }
  - { offset: 0x8F45D, size: 0x8, addend: 0x0, symName: __RNvMs_NtCse1nGBsou5OW_5alloc3vecINtB4_3VecTNtNtCs6IAuOt8vWmF_3syn3pat3PatNtNtBJ_5token2OrEE4pushBJ_, symObjAddr: 0x31E0, symBinAddr: 0x31D50, symSize: 0x120 }
  - { offset: 0x8F6B8, size: 0x8, addend: 0x0, symName: __RNvMs_NtCse1nGBsou5OW_5alloc3vecINtB4_3VecTNtNtCs6IAuOt8vWmF_3syn3pat3PatNtNtBJ_5token2OrEE8as_sliceBJ_, symObjAddr: 0x3300, symBinAddr: 0x31E70, symSize: 0x64 }
  - { offset: 0x8F77F, size: 0x8, addend: 0x0, symName: __RNvMs_NtCse1nGBsou5OW_5alloc3vecINtB4_3VecTNtNtCs6IAuOt8vWmF_3syn3pat3PatNtNtBJ_5token5CommaEE3lenBJ_, symObjAddr: 0x3364, symBinAddr: 0x31ED4, symSize: 0x18 }
  - { offset: 0x8F8C7, size: 0x8, addend: 0x0, symName: __RNvMs_NtCse1nGBsou5OW_5alloc3vecINtB4_3VecTNtNtCs6IAuOt8vWmF_3syn3pat3PatNtNtBJ_5token5CommaEE4pushBJ_, symObjAddr: 0x337C, symBinAddr: 0x31EEC, symSize: 0x120 }
  - { offset: 0x8FB15, size: 0x8, addend: 0x0, symName: __RNvMs_NtCse1nGBsou5OW_5alloc3vecINtB4_3VecTNtNtCs6IAuOt8vWmF_3syn3pat3PatNtNtBJ_5token5CommaEE8as_sliceBJ_, symObjAddr: 0x349C, symBinAddr: 0x3200C, symSize: 0x64 }
  - { offset: 0x8FCE2, size: 0x8, addend: 0x0, symName: __RNvMs_NtCse1nGBsou5OW_5alloc3vecINtB4_3VecTNtNtCs6IAuOt8vWmF_3syn3pat8FieldPatNtNtBJ_5token5CommaEE4pushBJ_, symObjAddr: 0x3500, symBinAddr: 0x32070, symSize: 0x118 }
  - { offset: 0x8FF3B, size: 0x8, addend: 0x0, symName: __RNvMs_NtCse1nGBsou5OW_5alloc3vecINtB4_3VecTNtNtCs6IAuOt8vWmF_3syn3pat8FieldPatNtNtBJ_5token5CommaEE8as_sliceBJ_, symObjAddr: 0x3618, symBinAddr: 0x32188, symSize: 0x64 }
  - { offset: 0x9012F, size: 0x8, addend: 0x0, symName: __RNvMs_NtCse1nGBsou5OW_5alloc3vecINtB4_3VecTNtNtCs6IAuOt8vWmF_3syn4data5FieldNtNtBJ_5token5CommaEE4pushBJ_, symObjAddr: 0x36F8, symBinAddr: 0x321EC, symSize: 0x120 }
  - { offset: 0x90374, size: 0x8, addend: 0x0, symName: __RNvMs_NtCse1nGBsou5OW_5alloc3vecINtB4_3VecTNtNtCs6IAuOt8vWmF_3syn4data5FieldNtNtBJ_5token5CommaEE8as_sliceBJ_, symObjAddr: 0x3818, symBinAddr: 0x3230C, symSize: 0x64 }
  - { offset: 0x90541, size: 0x8, addend: 0x0, symName: __RNvMs_NtCse1nGBsou5OW_5alloc3vecINtB4_3VecTNtNtCs6IAuOt8vWmF_3syn4data7VariantNtNtBJ_5token5CommaEE4pushBJ_, symObjAddr: 0x3894, symBinAddr: 0x32370, symSize: 0x120 }
  - { offset: 0x9079C, size: 0x8, addend: 0x0, symName: __RNvMs_NtCse1nGBsou5OW_5alloc3vecINtB4_3VecTNtNtCs6IAuOt8vWmF_3syn4data7VariantNtNtBJ_5token5CommaEE8as_sliceBJ_, symObjAddr: 0x39B4, symBinAddr: 0x32490, symSize: 0x64 }
  - { offset: 0x90969, size: 0x8, addend: 0x0, symName: __RNvMs_NtCse1nGBsou5OW_5alloc3vecINtB4_3VecTNtNtCs6IAuOt8vWmF_3syn4expr10FieldValueNtNtBJ_5token5CommaEE4pushBJ_, symObjAddr: 0x3A18, symBinAddr: 0x324F4, symSize: 0x120 }
  - { offset: 0x90BC4, size: 0x8, addend: 0x0, symName: __RNvMs_NtCse1nGBsou5OW_5alloc3vecINtB4_3VecTNtNtCs6IAuOt8vWmF_3syn4expr10FieldValueNtNtBJ_5token5CommaEE8as_sliceBJ_, symObjAddr: 0x3B38, symBinAddr: 0x32614, symSize: 0x64 }
  - { offset: 0x90C8B, size: 0x8, addend: 0x0, symName: __RNvMs_NtCse1nGBsou5OW_5alloc3vecINtB4_3VecTNtNtCs6IAuOt8vWmF_3syn4expr4ExprNtNtBJ_5token5CommaEE3lenBJ_, symObjAddr: 0x3B9C, symBinAddr: 0x32678, symSize: 0x18 }
  - { offset: 0x90DD3, size: 0x8, addend: 0x0, symName: __RNvMs_NtCse1nGBsou5OW_5alloc3vecINtB4_3VecTNtNtCs6IAuOt8vWmF_3syn4expr4ExprNtNtBJ_5token5CommaEE4pushBJ_, symObjAddr: 0x3BB4, symBinAddr: 0x32690, symSize: 0x120 }
  - { offset: 0x91021, size: 0x8, addend: 0x0, symName: __RNvMs_NtCse1nGBsou5OW_5alloc3vecINtB4_3VecTNtNtCs6IAuOt8vWmF_3syn4expr4ExprNtNtBJ_5token5CommaEE8as_sliceBJ_, symObjAddr: 0x3CD4, symBinAddr: 0x327B0, symSize: 0x64 }
  - { offset: 0x910E8, size: 0x8, addend: 0x0, symName: __RNvMs_NtCse1nGBsou5OW_5alloc3vecINtB4_3VecTNtNtCs6IAuOt8vWmF_3syn4item5FnArgNtNtBJ_5token5CommaEE3lenBJ_, symObjAddr: 0x3D38, symBinAddr: 0x32814, symSize: 0x18 }
  - { offset: 0x91230, size: 0x8, addend: 0x0, symName: __RNvMs_NtCse1nGBsou5OW_5alloc3vecINtB4_3VecTNtNtCs6IAuOt8vWmF_3syn4item5FnArgNtNtBJ_5token5CommaEE4pushBJ_, symObjAddr: 0x3D50, symBinAddr: 0x3282C, symSize: 0x120 }
  - { offset: 0x9147E, size: 0x8, addend: 0x0, symName: __RNvMs_NtCse1nGBsou5OW_5alloc3vecINtB4_3VecTNtNtCs6IAuOt8vWmF_3syn4item5FnArgNtNtBJ_5token5CommaEE8as_sliceBJ_, symObjAddr: 0x3E70, symBinAddr: 0x3294C, symSize: 0x64 }
  - { offset: 0x9164B, size: 0x8, addend: 0x0, symName: __RNvMs_NtCse1nGBsou5OW_5alloc3vecINtB4_3VecTNtNtCs6IAuOt8vWmF_3syn4item7UseTreeNtNtBJ_5token5CommaEE4pushBJ_, symObjAddr: 0x3ED4, symBinAddr: 0x329B0, symSize: 0x118 }
  - { offset: 0x918A4, size: 0x8, addend: 0x0, symName: __RNvMs_NtCse1nGBsou5OW_5alloc3vecINtB4_3VecTNtNtCs6IAuOt8vWmF_3syn4item7UseTreeNtNtBJ_5token5CommaEE8as_sliceBJ_, symObjAddr: 0x3FEC, symBinAddr: 0x32AC8, symSize: 0x64 }
  - { offset: 0x91A39, size: 0x8, addend: 0x0, symName: __RNvMs_NtCse1nGBsou5OW_5alloc3vecINtB4_3VecTNtNtCs6IAuOt8vWmF_3syn4path11PathSegmentNtNtBJ_5token7PathSepEE12as_mut_sliceBJ_, symObjAddr: 0x4050, symBinAddr: 0x32B2C, symSize: 0x64 }
  - { offset: 0x91B15, size: 0x8, addend: 0x0, symName: __RNvMs_NtCse1nGBsou5OW_5alloc3vecINtB4_3VecTNtNtCs6IAuOt8vWmF_3syn4path11PathSegmentNtNtBJ_5token7PathSepEE3lenBJ_, symObjAddr: 0x40B4, symBinAddr: 0x32B90, symSize: 0x18 }
  - { offset: 0x91C63, size: 0x8, addend: 0x0, symName: __RNvMs_NtCse1nGBsou5OW_5alloc3vecINtB4_3VecTNtNtCs6IAuOt8vWmF_3syn4path11PathSegmentNtNtBJ_5token7PathSepEE3popBJ_, symObjAddr: 0x40CC, symBinAddr: 0x32BA8, symSize: 0x104 }
  - { offset: 0x91ED7, size: 0x8, addend: 0x0, symName: __RNvMs_NtCse1nGBsou5OW_5alloc3vecINtB4_3VecTNtNtCs6IAuOt8vWmF_3syn4path11PathSegmentNtNtBJ_5token7PathSepEE4pushBJ_, symObjAddr: 0x41D0, symBinAddr: 0x32CAC, symSize: 0x120 }
  - { offset: 0x9211C, size: 0x8, addend: 0x0, symName: __RNvMs_NtCse1nGBsou5OW_5alloc3vecINtB4_3VecTNtNtCs6IAuOt8vWmF_3syn4path11PathSegmentNtNtBJ_5token7PathSepEE8as_sliceBJ_, symObjAddr: 0x42F0, symBinAddr: 0x32DCC, symSize: 0x64 }
  - { offset: 0x921E3, size: 0x8, addend: 0x0, symName: __RNvMs_NtCse1nGBsou5OW_5alloc3vecINtB4_3VecTNtNtCs6IAuOt8vWmF_3syn4path15GenericArgumentNtNtBJ_5token5CommaEE3lenBJ_, symObjAddr: 0x4354, symBinAddr: 0x32E30, symSize: 0x18 }
  - { offset: 0x9232B, size: 0x8, addend: 0x0, symName: __RNvMs_NtCse1nGBsou5OW_5alloc3vecINtB4_3VecTNtNtCs6IAuOt8vWmF_3syn4path15GenericArgumentNtNtBJ_5token5CommaEE4pushBJ_, symObjAddr: 0x436C, symBinAddr: 0x32E48, symSize: 0x120 }
  - { offset: 0x92579, size: 0x8, addend: 0x0, symName: __RNvMs_NtCse1nGBsou5OW_5alloc3vecINtB4_3VecTNtNtCs6IAuOt8vWmF_3syn4path15GenericArgumentNtNtBJ_5token5CommaEE8as_sliceBJ_, symObjAddr: 0x448C, symBinAddr: 0x32F68, symSize: 0x64 }
  - { offset: 0x9269B, size: 0x8, addend: 0x0, symName: __RNvMs_NtCse1nGBsou5OW_5alloc3vecINtB4_3VecTNtNtCs6IAuOt8vWmF_3syn8generics12GenericParamNtNtBJ_5token5CommaEE3lenBJ_, symObjAddr: 0x4554, symBinAddr: 0x32FCC, symSize: 0x18 }
  - { offset: 0x927AF, size: 0x8, addend: 0x0, symName: __RNvMs_NtCse1nGBsou5OW_5alloc3vecINtB4_3VecTNtNtCs6IAuOt8vWmF_3syn8generics12GenericParamNtNtBJ_5token5CommaEE4pushBJ_, symObjAddr: 0x456C, symBinAddr: 0x32FE4, symSize: 0x120 }
  - { offset: 0x929F4, size: 0x8, addend: 0x0, symName: __RNvMs_NtCse1nGBsou5OW_5alloc3vecINtB4_3VecTNtNtCs6IAuOt8vWmF_3syn8generics12GenericParamNtNtBJ_5token5CommaEE8as_sliceBJ_, symObjAddr: 0x468C, symBinAddr: 0x33104, symSize: 0x64 }
  - { offset: 0x92BC1, size: 0x8, addend: 0x0, symName: __RNvMs_NtCse1nGBsou5OW_5alloc3vecINtB4_3VecTNtNtCs6IAuOt8vWmF_3syn8generics13CapturedParamNtNtBJ_5token5CommaEE4pushBJ_, symObjAddr: 0x46F0, symBinAddr: 0x33168, symSize: 0x118 }
  - { offset: 0x92E1A, size: 0x8, addend: 0x0, symName: __RNvMs_NtCse1nGBsou5OW_5alloc3vecINtB4_3VecTNtNtCs6IAuOt8vWmF_3syn8generics13CapturedParamNtNtBJ_5token5CommaEE8as_sliceBJ_, symObjAddr: 0x4808, symBinAddr: 0x33280, symSize: 0x64 }
  - { offset: 0x92EE1, size: 0x8, addend: 0x0, symName: __RNvMs_NtCse1nGBsou5OW_5alloc3vecINtB4_3VecTNtNtCs6IAuOt8vWmF_3syn8generics14TypeParamBoundNtNtBJ_5token4PlusEE3lenBJ_, symObjAddr: 0x486C, symBinAddr: 0x332E4, symSize: 0x18 }
  - { offset: 0x9301C, size: 0x8, addend: 0x0, symName: __RNvMs_NtCse1nGBsou5OW_5alloc3vecINtB4_3VecTNtNtCs6IAuOt8vWmF_3syn8generics14TypeParamBoundNtNtBJ_5token4PlusEE4pushBJ_, symObjAddr: 0x4884, symBinAddr: 0x332FC, symSize: 0x118 }
  - { offset: 0x9326A, size: 0x8, addend: 0x0, symName: __RNvMs_NtCse1nGBsou5OW_5alloc3vecINtB4_3VecTNtNtCs6IAuOt8vWmF_3syn8generics14TypeParamBoundNtNtBJ_5token4PlusEE8as_sliceBJ_, symObjAddr: 0x499C, symBinAddr: 0x33414, symSize: 0x64 }
  - { offset: 0x93331, size: 0x8, addend: 0x0, symName: __RNvMs_NtCse1nGBsou5OW_5alloc3vecINtB4_3VecTNtNtCs6IAuOt8vWmF_3syn8generics14WherePredicateNtNtBJ_5token5CommaEE3lenBJ_, symObjAddr: 0x4A00, symBinAddr: 0x33478, symSize: 0x18 }
  - { offset: 0x93479, size: 0x8, addend: 0x0, symName: __RNvMs_NtCse1nGBsou5OW_5alloc3vecINtB4_3VecTNtNtCs6IAuOt8vWmF_3syn8generics14WherePredicateNtNtBJ_5token5CommaEE4pushBJ_, symObjAddr: 0x4A18, symBinAddr: 0x33490, symSize: 0x120 }
  - { offset: 0x936C7, size: 0x8, addend: 0x0, symName: __RNvMs_NtCse1nGBsou5OW_5alloc3vecINtB4_3VecTNtNtCs6IAuOt8vWmF_3syn8generics14WherePredicateNtNtBJ_5token5CommaEE8as_sliceBJ_, symObjAddr: 0x4B38, symBinAddr: 0x335B0, symSize: 0x64 }
  - { offset: 0x9378E, size: 0x8, addend: 0x0, symName: __RNvMs_NtCse1nGBsou5OW_5alloc3vecINtB4_3VecTNtNtCs6IAuOt8vWmF_3syn8lifetime8LifetimeNtNtBJ_5token4PlusEE3lenBJ_, symObjAddr: 0x4B9C, symBinAddr: 0x33614, symSize: 0x18 }
  - { offset: 0x938D6, size: 0x8, addend: 0x0, symName: __RNvMs_NtCse1nGBsou5OW_5alloc3vecINtB4_3VecTNtNtCs6IAuOt8vWmF_3syn8lifetime8LifetimeNtNtBJ_5token4PlusEE4pushBJ_, symObjAddr: 0x4BB4, symBinAddr: 0x3362C, symSize: 0x118 }
  - { offset: 0x93B22, size: 0x8, addend: 0x0, symName: __RNvMs_NtCse1nGBsou5OW_5alloc3vecINtB4_3VecTNtNtCs6IAuOt8vWmF_3syn8lifetime8LifetimeNtNtBJ_5token4PlusEE8as_sliceBJ_, symObjAddr: 0x4CCC, symBinAddr: 0x33744, symSize: 0x64 }
  - { offset: 0x93CE2, size: 0x8, addend: 0x0, symName: __RNvMs_NtCse1nGBsou5OW_5alloc3vecINtB4_3VechE13shrink_to_fitCs6IAuOt8vWmF_3syn, symObjAddr: 0x4D30, symBinAddr: 0x337A8, symSize: 0xE4 }
  - { offset: 0x93F10, size: 0x8, addend: 0x0, symName: __RNvMs_NtCse1nGBsou5OW_5alloc3vecINtB4_3VechE16into_boxed_sliceCs6IAuOt8vWmF_3syn, symObjAddr: 0x4E14, symBinAddr: 0x3388C, symSize: 0x110 }
  - { offset: 0x940D9, size: 0x8, addend: 0x0, symName: __RNvMs_NtCse1nGBsou5OW_5alloc3vecINtB4_3VechE3lenCs6IAuOt8vWmF_3syn, symObjAddr: 0x4F24, symBinAddr: 0x3399C, symSize: 0x18 }
  - { offset: 0x9417E, size: 0x8, addend: 0x0, symName: __RNvMs_NtCse1nGBsou5OW_5alloc3vecINtB4_3VechE8as_sliceCs6IAuOt8vWmF_3syn, symObjAddr: 0x4F3C, symBinAddr: 0x339B4, symSize: 0x60 }
  - { offset: 0x943EE, size: 0x8, addend: 0x0, symName: __RNvMs_NtCse1nGBsou5OW_5alloc3vecINtB4_3VechE9split_offCs6IAuOt8vWmF_3syn, symObjAddr: 0x4F9C, symBinAddr: 0x33A14, symSize: 0x140 }
  - { offset: 0x9AB95, size: 0x8, addend: 0x0, symName: __RNvXs7_NtCs6IAuOt8vWmF_3syn4exprNtB5_5IndexINtNtCsfvfooZQ3Axs_4core7convert4FromjE4from, symObjAddr: 0x2A70, symBinAddr: 0x362F0, symSize: 0x84 }
  - { offset: 0x9ABCE, size: 0x8, addend: 0x0, symName: __RNvXNtNtCs6IAuOt8vWmF_3syn4expr7parsingNtB4_4ExprNtNtB6_5parse5Parse5parse, symObjAddr: 0x2BA8, symBinAddr: 0x36374, symSize: 0x3C }
  - { offset: 0x9AC02, size: 0x8, addend: 0x0, symName: __RNvXs4_NtNtCs6IAuOt8vWmF_3syn4expr7parsingNtB7_7ExprLitNtNtB9_5parse5Parse5parse, symObjAddr: 0x3648, symBinAddr: 0x363B0, symSize: 0x14C }
  - { offset: 0x9AC55, size: 0x8, addend: 0x0, symName: __RNvXs7_NtNtCs6IAuOt8vWmF_3syn4expr7parsingNtB7_6ExprIfNtNtB9_5parse5Parse5parse, symObjAddr: 0x3A7C, symBinAddr: 0x364FC, symSize: 0x103C }
  - { offset: 0x9AECB, size: 0x8, addend: 0x0, symName: __RNvXs8_NtNtCs6IAuOt8vWmF_3syn4expr7parsingNtB7_9ExprInferNtNtB9_5parse5Parse5parse, symObjAddr: 0x4AB8, symBinAddr: 0x37538, symSize: 0x1D0 }
  - { offset: 0x9AF5C, size: 0x8, addend: 0x0, symName: __RNvXs9_NtNtCs6IAuOt8vWmF_3syn4expr7parsingNtB7_11ExprForLoopNtNtB9_5parse5Parse5parse, symObjAddr: 0x4C88, symBinAddr: 0x37708, symSize: 0x9A4 }
  - { offset: 0x9B22B, size: 0x8, addend: 0x0, symName: __RNvXsa_NtNtCs6IAuOt8vWmF_3syn4expr7parsingNtB7_8ExprLoopNtNtB9_5parse5Parse5parse, symObjAddr: 0x562C, symBinAddr: 0x380AC, symSize: 0x590 }
  - { offset: 0x9B3DE, size: 0x8, addend: 0x0, symName: __RNvXsb_NtNtCs6IAuOt8vWmF_3syn4expr7parsingNtB7_9ExprMatchNtNtB9_5parse5Parse5parse, symObjAddr: 0x5BBC, symBinAddr: 0x3863C, symSize: 0x60C }
  - { offset: 0x9B5C7, size: 0x8, addend: 0x0, symName: __RNvXsh_NtNtCs6IAuOt8vWmF_3syn4expr7parsingNtB7_10ExprReturnNtNtB9_5parse5Parse5parse, symObjAddr: 0x6A04, symBinAddr: 0x38C48, symSize: 0x210 }
  - { offset: 0x9B629, size: 0x8, addend: 0x0, symName: __RNvXsi_NtNtCs6IAuOt8vWmF_3syn4expr7parsingNtB7_12ExprTryBlockNtNtB9_5parse5Parse5parse, symObjAddr: 0x6C14, symBinAddr: 0x38E58, symSize: 0x220 }
  - { offset: 0x9B69B, size: 0x8, addend: 0x0, symName: __RNvXsj_NtNtCs6IAuOt8vWmF_3syn4expr7parsingNtB7_9ExprYieldNtNtB9_5parse5Parse5parse, symObjAddr: 0x6E34, symBinAddr: 0x39078, symSize: 0x210 }
  - { offset: 0x9B6FD, size: 0x8, addend: 0x0, symName: __RNvXsk_NtNtCs6IAuOt8vWmF_3syn4expr7parsingNtB7_9ExprAsyncNtNtB9_5parse5Parse5parse, symObjAddr: 0x7044, symBinAddr: 0x39288, symSize: 0x2E8 }
  - { offset: 0x9B78E, size: 0x8, addend: 0x0, symName: __RNvXsl_NtNtCs6IAuOt8vWmF_3syn4expr7parsingNtB7_9ExprWhileNtNtB9_5parse5Parse5parse, symObjAddr: 0x732C, symBinAddr: 0x39570, symSize: 0x760 }
  - { offset: 0x9B9C4, size: 0x8, addend: 0x0, symName: __RNvXsm_NtNtCs6IAuOt8vWmF_3syn4expr7parsingNtB7_9ExprConstNtNtB9_5parse5Parse5parse, symObjAddr: 0x7A8C, symBinAddr: 0x39CD0, symSize: 0x3BC }
  - { offset: 0x9BB1A, size: 0x8, addend: 0x0, symName: __RNvXsn_NtNtCs6IAuOt8vWmF_3syn4expr7parsingNtB7_5LabelNtNtB9_5parse5Parse5parse, symObjAddr: 0x7E48, symBinAddr: 0x3A08C, symSize: 0x1D4 }
  - { offset: 0x9BBAB, size: 0x8, addend: 0x0, symName: __RNvXsp_NtNtCs6IAuOt8vWmF_3syn4expr7parsingNtB7_12ExprContinueNtNtB9_5parse5Parse5parse, symObjAddr: 0x801C, symBinAddr: 0x3A260, symSize: 0x200 }
  - { offset: 0x9BC1D, size: 0x8, addend: 0x0, symName: __RNvXsq_NtNtCs6IAuOt8vWmF_3syn4expr7parsingNtB7_10FieldValueNtNtB9_5parse5Parse5parse, symObjAddr: 0x821C, symBinAddr: 0x3A460, symSize: 0x560 }
  - { offset: 0x9BDBC, size: 0x8, addend: 0x0, symName: __RNvXss_NtNtCs6IAuOt8vWmF_3syn4expr7parsingNtB7_10ExprUnsafeNtNtB9_5parse5Parse5parse, symObjAddr: 0x893C, symBinAddr: 0x3A9C0, symSize: 0x3BC }
  - { offset: 0x9BF12, size: 0x8, addend: 0x0, symName: __RNvXst_NtNtCs6IAuOt8vWmF_3syn4expr7parsingNtB7_9ExprBlockNtNtB9_5parse5Parse5parse, symObjAddr: 0x8CF8, symBinAddr: 0x3AD7C, symSize: 0x4FC }
  - { offset: 0x9C098, size: 0x8, addend: 0x0, symName: __RNvXsu_NtNtCs6IAuOt8vWmF_3syn4expr7parsingNtB7_11RangeLimitsNtNtB9_5parse5Parse5parse, symObjAddr: 0x91F4, symBinAddr: 0x3B278, symSize: 0x234 }
  - { offset: 0x9C126, size: 0x8, addend: 0x0, symName: __RNvXsw_NtNtCs6IAuOt8vWmF_3syn4expr7parsingNtB7_8ExprPathNtNtB9_5parse5Parse5parse, symObjAddr: 0x975C, symBinAddr: 0x3B7E0, symSize: 0x238 }
  - { offset: 0x9C214, size: 0x8, addend: 0x0, symName: __RNvXsx_NtNtCs6IAuOt8vWmF_3syn4expr7parsingNtB7_6MemberNtNtB9_5parse5Parse5parse, symObjAddr: 0x9994, symBinAddr: 0x3BA18, symSize: 0xFC }
  - { offset: 0x9C248, size: 0x8, addend: 0x0, symName: __RNvXsz_NtNtCs6IAuOt8vWmF_3syn4expr7parsingNtB7_3ArmNtNtB9_5parse5Parse5parse, symObjAddr: 0x9C54, symBinAddr: 0x3BCD8, symSize: 0x8EC }
  - { offset: 0x9C480, size: 0x8, addend: 0x0, symName: __RNvXsA_NtNtCs6IAuOt8vWmF_3syn4expr7parsingNtB7_5IndexNtNtB9_5parse5Parse5parse, symObjAddr: 0xA540, symBinAddr: 0x3C5C4, symSize: 0x28C }
  - { offset: 0x9C52E, size: 0x8, addend: 0x0, symName: __RNvXNtNtCs6IAuOt8vWmF_3syn4expr8printingNtB4_9ExprArrayNtNtCs2cqEZUIJimJ_5quote9to_tokens8ToTokens9to_tokens, symObjAddr: 0xAA84, symBinAddr: 0x3C850, symSize: 0x58 }
  - { offset: 0x9C56D, size: 0x8, addend: 0x0, symName: __RNvXs_NtNtCs6IAuOt8vWmF_3syn4expr8printingNtB6_10ExprAssignNtNtCs2cqEZUIJimJ_5quote9to_tokens8ToTokens9to_tokens, symObjAddr: 0xAADC, symBinAddr: 0x3C8A8, symSize: 0x58 }
  - { offset: 0x9C5AC, size: 0x8, addend: 0x0, symName: __RNvXs0_NtNtCs6IAuOt8vWmF_3syn4expr8printingNtB7_9ExprAsyncNtNtCs2cqEZUIJimJ_5quote9to_tokens8ToTokens9to_tokens, symObjAddr: 0xAB34, symBinAddr: 0x3C900, symSize: 0x74 }
  - { offset: 0x9C5EB, size: 0x8, addend: 0x0, symName: __RNvXs1_NtNtCs6IAuOt8vWmF_3syn4expr8printingNtB7_9ExprAwaitNtNtCs2cqEZUIJimJ_5quote9to_tokens8ToTokens9to_tokens, symObjAddr: 0xABA8, symBinAddr: 0x3C974, symSize: 0x58 }
  - { offset: 0x9C62A, size: 0x8, addend: 0x0, symName: __RNvXs2_NtNtCs6IAuOt8vWmF_3syn4expr8printingNtB7_10ExprBinaryNtNtCs2cqEZUIJimJ_5quote9to_tokens8ToTokens9to_tokens, symObjAddr: 0xAC00, symBinAddr: 0x3C9CC, symSize: 0x58 }
  - { offset: 0x9C669, size: 0x8, addend: 0x0, symName: __RNvXs3_NtNtCs6IAuOt8vWmF_3syn4expr8printingNtB7_9ExprBlockNtNtCs2cqEZUIJimJ_5quote9to_tokens8ToTokens9to_tokens, symObjAddr: 0xAC58, symBinAddr: 0x3CA24, symSize: 0x68 }
  - { offset: 0x9C6A8, size: 0x8, addend: 0x0, symName: __RNvXs4_NtNtCs6IAuOt8vWmF_3syn4expr8printingNtB7_9ExprBreakNtNtCs2cqEZUIJimJ_5quote9to_tokens8ToTokens9to_tokens, symObjAddr: 0xACC0, symBinAddr: 0x3CA8C, symSize: 0x58 }
  - { offset: 0x9C6E7, size: 0x8, addend: 0x0, symName: __RNvXs5_NtNtCs6IAuOt8vWmF_3syn4expr8printingNtB7_8ExprCallNtNtCs2cqEZUIJimJ_5quote9to_tokens8ToTokens9to_tokens, symObjAddr: 0xAD18, symBinAddr: 0x3CAE4, symSize: 0x58 }
  - { offset: 0x9C726, size: 0x8, addend: 0x0, symName: __RNvXs6_NtNtCs6IAuOt8vWmF_3syn4expr8printingNtB7_8ExprCastNtNtCs2cqEZUIJimJ_5quote9to_tokens8ToTokens9to_tokens, symObjAddr: 0xAD70, symBinAddr: 0x3CB3C, symSize: 0x58 }
  - { offset: 0x9C765, size: 0x8, addend: 0x0, symName: __RNvXs7_NtNtCs6IAuOt8vWmF_3syn4expr8printingNtB7_11ExprClosureNtNtCs2cqEZUIJimJ_5quote9to_tokens8ToTokens9to_tokens, symObjAddr: 0xADC8, symBinAddr: 0x3CB94, symSize: 0x58 }
  - { offset: 0x9C7A4, size: 0x8, addend: 0x0, symName: __RNvXs8_NtNtCs6IAuOt8vWmF_3syn4expr8printingNtB7_9ExprConstNtNtCs2cqEZUIJimJ_5quote9to_tokens8ToTokens9to_tokens, symObjAddr: 0xAE20, symBinAddr: 0x3CBEC, symSize: 0x68 }
  - { offset: 0x9C7E3, size: 0x8, addend: 0x0, symName: __RNvXs9_NtNtCs6IAuOt8vWmF_3syn4expr8printingNtB7_12ExprContinueNtNtCs2cqEZUIJimJ_5quote9to_tokens8ToTokens9to_tokens, symObjAddr: 0xAE88, symBinAddr: 0x3CC54, symSize: 0x64 }
  - { offset: 0x9C822, size: 0x8, addend: 0x0, symName: __RNvXsa_NtNtCs6IAuOt8vWmF_3syn4expr8printingNtB7_9ExprFieldNtNtCs2cqEZUIJimJ_5quote9to_tokens8ToTokens9to_tokens, symObjAddr: 0xAEEC, symBinAddr: 0x3CCB8, symSize: 0x58 }
  - { offset: 0x9C861, size: 0x8, addend: 0x0, symName: __RNvXsb_NtNtCs6IAuOt8vWmF_3syn4expr8printingNtB7_11ExprForLoopNtNtCs2cqEZUIJimJ_5quote9to_tokens8ToTokens9to_tokens, symObjAddr: 0xAF44, symBinAddr: 0x3CD10, symSize: 0xDC }
  - { offset: 0x9C8A0, size: 0x8, addend: 0x0, symName: __RNvXsc_NtNtCs6IAuOt8vWmF_3syn4expr8printingNtB7_9ExprGroupNtNtCs2cqEZUIJimJ_5quote9to_tokens8ToTokens9to_tokens, symObjAddr: 0xB020, symBinAddr: 0x3CDEC, symSize: 0x58 }
  - { offset: 0x9C8DF, size: 0x8, addend: 0x0, symName: __RNvXsd_NtNtCs6IAuOt8vWmF_3syn4expr8printingNtB7_6ExprIfNtNtCs2cqEZUIJimJ_5quote9to_tokens8ToTokens9to_tokens, symObjAddr: 0xB078, symBinAddr: 0x3CE44, symSize: 0x208 }
  - { offset: 0x9C9B5, size: 0x8, addend: 0x0, symName: __RNvXse_NtNtCs6IAuOt8vWmF_3syn4expr8printingNtB7_9ExprIndexNtNtCs2cqEZUIJimJ_5quote9to_tokens8ToTokens9to_tokens, symObjAddr: 0xB280, symBinAddr: 0x3D04C, symSize: 0x58 }
  - { offset: 0x9C9F4, size: 0x8, addend: 0x0, symName: __RNvXsf_NtNtCs6IAuOt8vWmF_3syn4expr8printingNtB7_9ExprInferNtNtCs2cqEZUIJimJ_5quote9to_tokens8ToTokens9to_tokens, symObjAddr: 0xB2D8, symBinAddr: 0x3D0A4, symSize: 0x54 }
  - { offset: 0x9CA33, size: 0x8, addend: 0x0, symName: __RNvXsg_NtNtCs6IAuOt8vWmF_3syn4expr8printingNtB7_7ExprLetNtNtCs2cqEZUIJimJ_5quote9to_tokens8ToTokens9to_tokens, symObjAddr: 0xB32C, symBinAddr: 0x3D0F8, symSize: 0x58 }
  - { offset: 0x9CA72, size: 0x8, addend: 0x0, symName: __RNvXsh_NtNtCs6IAuOt8vWmF_3syn4expr8printingNtB7_7ExprLitNtNtCs2cqEZUIJimJ_5quote9to_tokens8ToTokens9to_tokens, symObjAddr: 0xB384, symBinAddr: 0x3D150, symSize: 0x54 }
  - { offset: 0x9CAB1, size: 0x8, addend: 0x0, symName: __RNvXsi_NtNtCs6IAuOt8vWmF_3syn4expr8printingNtB7_8ExprLoopNtNtCs2cqEZUIJimJ_5quote9to_tokens8ToTokens9to_tokens, symObjAddr: 0xB3D8, symBinAddr: 0x3D1A4, symSize: 0x78 }
  - { offset: 0x9CAF0, size: 0x8, addend: 0x0, symName: __RNvXsj_NtNtCs6IAuOt8vWmF_3syn4expr8printingNtB7_9ExprMacroNtNtCs2cqEZUIJimJ_5quote9to_tokens8ToTokens9to_tokens, symObjAddr: 0xB450, symBinAddr: 0x3D21C, symSize: 0x54 }
  - { offset: 0x9CB2F, size: 0x8, addend: 0x0, symName: __RNvXsk_NtNtCs6IAuOt8vWmF_3syn4expr8printingNtB7_9ExprMatchNtNtCs2cqEZUIJimJ_5quote9to_tokens8ToTokens9to_tokens, symObjAddr: 0xB4A4, symBinAddr: 0x3D270, symSize: 0xAC }
  - { offset: 0x9CB6E, size: 0x8, addend: 0x0, symName: __RNvXsl_NtNtCs6IAuOt8vWmF_3syn4expr8printingNtB7_14ExprMethodCallNtNtCs2cqEZUIJimJ_5quote9to_tokens8ToTokens9to_tokens, symObjAddr: 0xB550, symBinAddr: 0x3D31C, symSize: 0x58 }
  - { offset: 0x9CBAD, size: 0x8, addend: 0x0, symName: __RNvXsm_NtNtCs6IAuOt8vWmF_3syn4expr8printingNtB7_9ExprParenNtNtCs2cqEZUIJimJ_5quote9to_tokens8ToTokens9to_tokens, symObjAddr: 0xB5A8, symBinAddr: 0x3D374, symSize: 0x58 }
  - { offset: 0x9CBEC, size: 0x8, addend: 0x0, symName: __RNvXsn_NtNtCs6IAuOt8vWmF_3syn4expr8printingNtB7_8ExprPathNtNtCs2cqEZUIJimJ_5quote9to_tokens8ToTokens9to_tokens, symObjAddr: 0xB600, symBinAddr: 0x3D3CC, symSize: 0x64 }
  - { offset: 0x9CC2B, size: 0x8, addend: 0x0, symName: __RNvXso_NtNtCs6IAuOt8vWmF_3syn4expr8printingNtB7_9ExprRangeNtNtCs2cqEZUIJimJ_5quote9to_tokens8ToTokens9to_tokens, symObjAddr: 0xB664, symBinAddr: 0x3D430, symSize: 0x58 }
  - { offset: 0x9CC6A, size: 0x8, addend: 0x0, symName: __RNvXsp_NtNtCs6IAuOt8vWmF_3syn4expr8printingNtB7_11ExprRawAddrNtNtCs2cqEZUIJimJ_5quote9to_tokens8ToTokens9to_tokens, symObjAddr: 0xB6BC, symBinAddr: 0x3D488, symSize: 0x58 }
  - { offset: 0x9CCA9, size: 0x8, addend: 0x0, symName: __RNvXsq_NtNtCs6IAuOt8vWmF_3syn4expr8printingNtB7_13ExprReferenceNtNtCs2cqEZUIJimJ_5quote9to_tokens8ToTokens9to_tokens, symObjAddr: 0xB714, symBinAddr: 0x3D4E0, symSize: 0x58 }
  - { offset: 0x9CCE8, size: 0x8, addend: 0x0, symName: __RNvXsr_NtNtCs6IAuOt8vWmF_3syn4expr8printingNtB7_10ExprRepeatNtNtCs2cqEZUIJimJ_5quote9to_tokens8ToTokens9to_tokens, symObjAddr: 0xB76C, symBinAddr: 0x3D538, symSize: 0x58 }
  - { offset: 0x9CD27, size: 0x8, addend: 0x0, symName: __RNvXss_NtNtCs6IAuOt8vWmF_3syn4expr8printingNtB7_10ExprReturnNtNtCs2cqEZUIJimJ_5quote9to_tokens8ToTokens9to_tokens, symObjAddr: 0xB7C4, symBinAddr: 0x3D590, symSize: 0x58 }
  - { offset: 0x9CD66, size: 0x8, addend: 0x0, symName: __RNvXst_NtNtCs6IAuOt8vWmF_3syn4expr8printingNtB7_10ExprStructNtNtCs2cqEZUIJimJ_5quote9to_tokens8ToTokens9to_tokens, symObjAddr: 0xB81C, symBinAddr: 0x3D5E8, symSize: 0x78 }
  - { offset: 0x9CDA5, size: 0x8, addend: 0x0, symName: __RNvXsu_NtNtCs6IAuOt8vWmF_3syn4expr8printingNtB7_7ExprTryNtNtCs2cqEZUIJimJ_5quote9to_tokens8ToTokens9to_tokens, symObjAddr: 0xB894, symBinAddr: 0x3D660, symSize: 0x58 }
  - { offset: 0x9CDE4, size: 0x8, addend: 0x0, symName: __RNvXsv_NtNtCs6IAuOt8vWmF_3syn4expr8printingNtB7_12ExprTryBlockNtNtCs2cqEZUIJimJ_5quote9to_tokens8ToTokens9to_tokens, symObjAddr: 0xB8EC, symBinAddr: 0x3D6B8, symSize: 0x64 }
  - { offset: 0x9CE23, size: 0x8, addend: 0x0, symName: __RNvXsw_NtNtCs6IAuOt8vWmF_3syn4expr8printingNtB7_9ExprTupleNtNtCs2cqEZUIJimJ_5quote9to_tokens8ToTokens9to_tokens, symObjAddr: 0xB950, symBinAddr: 0x3D71C, symSize: 0x58 }
  - { offset: 0x9CE62, size: 0x8, addend: 0x0, symName: __RNvXsx_NtNtCs6IAuOt8vWmF_3syn4expr8printingNtB7_9ExprUnaryNtNtCs2cqEZUIJimJ_5quote9to_tokens8ToTokens9to_tokens, symObjAddr: 0xB9A8, symBinAddr: 0x3D774, symSize: 0x58 }
  - { offset: 0x9CEA1, size: 0x8, addend: 0x0, symName: __RNvXsy_NtNtCs6IAuOt8vWmF_3syn4expr8printingNtB7_10ExprUnsafeNtNtCs2cqEZUIJimJ_5quote9to_tokens8ToTokens9to_tokens, symObjAddr: 0xBA00, symBinAddr: 0x3D7CC, symSize: 0x68 }
  - { offset: 0x9CEE0, size: 0x8, addend: 0x0, symName: __RNvXsz_NtNtCs6IAuOt8vWmF_3syn4expr8printingNtB7_9ExprWhileNtNtCs2cqEZUIJimJ_5quote9to_tokens8ToTokens9to_tokens, symObjAddr: 0xBA68, symBinAddr: 0x3D834, symSize: 0xBC }
  - { offset: 0x9CF1F, size: 0x8, addend: 0x0, symName: __RNvXsA_NtNtCs6IAuOt8vWmF_3syn4expr8printingNtB7_9ExprYieldNtNtCs2cqEZUIJimJ_5quote9to_tokens8ToTokens9to_tokens, symObjAddr: 0xBB24, symBinAddr: 0x3D8F0, symSize: 0x58 }
  - { offset: 0x9CF5E, size: 0x8, addend: 0x0, symName: __RNvXsB_NtNtCs6IAuOt8vWmF_3syn4expr8printingNtB7_3ArmNtNtCs2cqEZUIJimJ_5quote9to_tokens8ToTokens9to_tokens, symObjAddr: 0xBB7C, symBinAddr: 0x3D948, symSize: 0x128 }
  - { offset: 0x9CFCB, size: 0x8, addend: 0x0, symName: __RNvXsC_NtNtCs6IAuOt8vWmF_3syn4expr8printingNtB7_10FieldValueNtNtCs2cqEZUIJimJ_5quote9to_tokens8ToTokens9to_tokens, symObjAddr: 0xBCA4, symBinAddr: 0x3DA70, symSize: 0xB0 }
  - { offset: 0x9D028, size: 0x8, addend: 0x0, symName: __RNvXsD_NtNtCs6IAuOt8vWmF_3syn4expr8printingNtB7_5IndexNtNtCs2cqEZUIJimJ_5quote9to_tokens8ToTokens9to_tokens, symObjAddr: 0xBD54, symBinAddr: 0x3DB20, symSize: 0xD4 }
  - { offset: 0x9D07D, size: 0x8, addend: 0x0, symName: __RNvXsE_NtNtCs6IAuOt8vWmF_3syn4expr8printingNtB7_5LabelNtNtCs2cqEZUIJimJ_5quote9to_tokens8ToTokens9to_tokens, symObjAddr: 0xBE28, symBinAddr: 0x3DBF4, symSize: 0x50 }
  - { offset: 0x9D0BC, size: 0x8, addend: 0x0, symName: __RNvXsF_NtNtCs6IAuOt8vWmF_3syn4expr8printingNtB7_6MemberNtNtCs2cqEZUIJimJ_5quote9to_tokens8ToTokens9to_tokens, symObjAddr: 0xBE78, symBinAddr: 0x3DC44, symSize: 0x98 }
  - { offset: 0x9D12F, size: 0x8, addend: 0x0, symName: __RNvXsG_NtNtCs6IAuOt8vWmF_3syn4expr8printingNtB7_11RangeLimitsNtNtCs2cqEZUIJimJ_5quote9to_tokens8ToTokens9to_tokens, symObjAddr: 0xBF10, symBinAddr: 0x3DCDC, symSize: 0x94 }
  - { offset: 0x9D1A2, size: 0x8, addend: 0x0, symName: __RNvXsH_NtNtCs6IAuOt8vWmF_3syn4expr8printingNtB7_17PointerMutabilityNtNtCs2cqEZUIJimJ_5quote9to_tokens8ToTokens9to_tokens, symObjAddr: 0xBFA4, symBinAddr: 0x3DD70, symSize: 0x94 }
  - { offset: 0x9D21B, size: 0x8, addend: 0x0, symName: __RNcNtNtNtCs6IAuOt8vWmF_3syn4expr4Expr5Async0B7_, symObjAddr: 0xC038, symBinAddr: 0x3DE04, symSize: 0x3C }
  - { offset: 0x9D24A, size: 0x8, addend: 0x0, symName: __RNcNtNtNtCs6IAuOt8vWmF_3syn4expr4Expr5Block0B7_, symObjAddr: 0xC074, symBinAddr: 0x3DE40, symSize: 0x3C }
  - { offset: 0x9D279, size: 0x8, addend: 0x0, symName: __RNcNtNtNtCs6IAuOt8vWmF_3syn4expr4Expr5Break0B7_, symObjAddr: 0xC0B0, symBinAddr: 0x3DE7C, symSize: 0x3C }
  - { offset: 0x9D2A8, size: 0x8, addend: 0x0, symName: __RNcNtNtNtCs6IAuOt8vWmF_3syn4expr4Expr7Closure0B7_, symObjAddr: 0xC0EC, symBinAddr: 0x3DEB8, symSize: 0x3C }
  - { offset: 0x9D2D7, size: 0x8, addend: 0x0, symName: __RNcNtNtNtCs6IAuOt8vWmF_3syn4expr4Expr5Const0B7_, symObjAddr: 0xC128, symBinAddr: 0x3DEF4, symSize: 0x3C }
  - { offset: 0x9D306, size: 0x8, addend: 0x0, symName: __RNcNtNtNtCs6IAuOt8vWmF_3syn4expr4Expr8Continue0B7_, symObjAddr: 0xC164, symBinAddr: 0x3DF30, symSize: 0x3C }
  - { offset: 0x9D335, size: 0x8, addend: 0x0, symName: __RNcNtNtNtCs6IAuOt8vWmF_3syn4expr4Expr7ForLoop0B7_, symObjAddr: 0xC1A0, symBinAddr: 0x3DF6C, symSize: 0x3C }
  - { offset: 0x9D364, size: 0x8, addend: 0x0, symName: __RNcNtNtNtCs6IAuOt8vWmF_3syn4expr4Expr2If0B7_, symObjAddr: 0xC1DC, symBinAddr: 0x3DFA8, symSize: 0x3C }
  - { offset: 0x9D393, size: 0x8, addend: 0x0, symName: __RNcNtNtNtCs6IAuOt8vWmF_3syn4expr4Expr5Infer0B7_, symObjAddr: 0xC218, symBinAddr: 0x3DFE4, symSize: 0x20 }
  - { offset: 0x9D3C1, size: 0x8, addend: 0x0, symName: __RNcNtNtNtCs6IAuOt8vWmF_3syn4expr4Expr3Let0B7_, symObjAddr: 0xC238, symBinAddr: 0x3E004, symSize: 0x3C }
  - { offset: 0x9D3F0, size: 0x8, addend: 0x0, symName: __RNcNtNtNtCs6IAuOt8vWmF_3syn4expr4Expr3Lit0B7_, symObjAddr: 0xC274, symBinAddr: 0x3E040, symSize: 0x3C }
  - { offset: 0x9D41F, size: 0x8, addend: 0x0, symName: __RNcNtNtNtCs6IAuOt8vWmF_3syn4expr4Expr4Loop0B7_, symObjAddr: 0xC2B0, symBinAddr: 0x3E07C, symSize: 0x3C }
  - { offset: 0x9D44E, size: 0x8, addend: 0x0, symName: __RNcNtNtNtCs6IAuOt8vWmF_3syn4expr4Expr5Match0B7_, symObjAddr: 0xC2EC, symBinAddr: 0x3E0B8, symSize: 0x3C }
  - { offset: 0x9D47D, size: 0x8, addend: 0x0, symName: __RNcNtNtNtCs6IAuOt8vWmF_3syn4expr4Expr5Range0B7_, symObjAddr: 0xC328, symBinAddr: 0x3E0F4, symSize: 0x3C }
  - { offset: 0x9D4AC, size: 0x8, addend: 0x0, symName: __RNcNtNtNtCs6IAuOt8vWmF_3syn4expr4Expr6Return0B7_, symObjAddr: 0xC364, symBinAddr: 0x3E130, symSize: 0x3C }
  - { offset: 0x9D4DB, size: 0x8, addend: 0x0, symName: __RNcNtNtNtCs6IAuOt8vWmF_3syn4expr4Expr6Struct0B7_, symObjAddr: 0xC3A0, symBinAddr: 0x3E16C, symSize: 0x3C }
  - { offset: 0x9D50A, size: 0x8, addend: 0x0, symName: __RNcNtNtNtCs6IAuOt8vWmF_3syn4expr4Expr8TryBlock0B7_, symObjAddr: 0xC3DC, symBinAddr: 0x3E1A8, symSize: 0x3C }
  - { offset: 0x9D539, size: 0x8, addend: 0x0, symName: __RNcNtNtNtCs6IAuOt8vWmF_3syn4expr4Expr5Unary0B7_, symObjAddr: 0xC418, symBinAddr: 0x3E1E4, symSize: 0x3C }
  - { offset: 0x9D568, size: 0x8, addend: 0x0, symName: __RNcNtNtNtCs6IAuOt8vWmF_3syn4expr4Expr6Unsafe0B7_, symObjAddr: 0xC454, symBinAddr: 0x3E220, symSize: 0x3C }
  - { offset: 0x9D597, size: 0x8, addend: 0x0, symName: __RNcNtNtNtCs6IAuOt8vWmF_3syn4expr4Expr5While0B7_, symObjAddr: 0xC490, symBinAddr: 0x3E25C, symSize: 0x3C }
  - { offset: 0x9D5C6, size: 0x8, addend: 0x0, symName: __RNcNtNtNtCs6IAuOt8vWmF_3syn4expr4Expr5Yield0B7_, symObjAddr: 0xC4CC, symBinAddr: 0x3E298, symSize: 0x3C }
  - { offset: 0x9D5F6, size: 0x8, addend: 0x0, symName: __RNvXsP_NtCs6IAuOt8vWmF_3syn4exprNtB5_4ExprNtNtCs2cqEZUIJimJ_5quote9to_tokens8ToTokens9to_tokens, symObjAddr: 0xD080, symBinAddr: 0x3E2D4, symSize: 0x4CC }
  - { offset: 0x9DADF, size: 0x8, addend: 0x0, symName: __RNcNtNtNtCs6IAuOt8vWmF_3syn4expr6Member5Named0B7_, symObjAddr: 0xD54C, symBinAddr: 0x3E7A0, symSize: 0x18 }
  - { offset: 0x9DB0F, size: 0x8, addend: 0x0, symName: __RNcNtNtNtCs6IAuOt8vWmF_3syn4expr6Member7Unnamed0B7_, symObjAddr: 0xD564, symBinAddr: 0x3E7B8, symSize: 0x28 }
  - { offset: 0x9DB45, size: 0x8, addend: 0x0, symName: __RNcNtNtNtCs6IAuOt8vWmF_3syn4expr11RangeLimits8HalfOpen0B7_, symObjAddr: 0xD58C, symBinAddr: 0x3E7E0, symSize: 0x24 }
  - { offset: 0x9DB75, size: 0x8, addend: 0x0, symName: __RNcNtNtNtCs6IAuOt8vWmF_3syn4expr11RangeLimits6Closed0B7_, symObjAddr: 0xD5B0, symBinAddr: 0x3E804, symSize: 0x20 }
  - { offset: 0xA3590, size: 0x8, addend: 0x0, symName: __RNvMNtCsfvfooZQ3Axs_4core5sliceSNtNtCs6IAuOt8vWmF_3syn4expr3Arm4iterBy_, symObjAddr: 0xA44, symBinAddr: 0x35610, symSize: 0x28 }
  - { offset: 0xA35C7, size: 0x8, addend: 0x0, symName: __RNvMNtCsfvfooZQ3Axs_4core5sliceSTNtNtCs6IAuOt8vWmF_3syn4expr10FieldValueNtNtBz_5token5CommaE4iterBz_, symObjAddr: 0xA6C, symBinAddr: 0x35638, symSize: 0x28 }
  - { offset: 0xA35FE, size: 0x8, addend: 0x0, symName: __RNvMNtCsfvfooZQ3Axs_4core5sliceSTNtNtCs6IAuOt8vWmF_3syn4expr4ExprNtNtBz_5token5CommaE4iterBz_, symObjAddr: 0xA94, symBinAddr: 0x35660, symSize: 0x28 }
  - { offset: 0xA4B26, size: 0x8, addend: 0x0, symName: __RNvXNtCs2cqEZUIJimJ_5quote9to_tokensRNtNtCs6IAuOt8vWmF_3syn4expr10FieldValueNtB2_8ToTokens9to_tokensBD_, symObjAddr: 0xABC, symBinAddr: 0x35688, symSize: 0x40 }
  - { offset: 0xA4B65, size: 0x8, addend: 0x0, symName: __RNvXNtCs2cqEZUIJimJ_5quote9to_tokensRNtNtCs6IAuOt8vWmF_3syn4expr4ExprNtB2_8ToTokens9to_tokensBD_, symObjAddr: 0xAFC, symBinAddr: 0x356C8, symSize: 0x40 }
  - { offset: 0xA4BAA, size: 0x8, addend: 0x0, symName: __RNvYNtNtCs6IAuOt8vWmF_3syn4expr4ExprNtNtCs2cqEZUIJimJ_5quote9to_tokens8ToTokens15to_token_streamB6_, symObjAddr: 0x1AE4, symBinAddr: 0x35708, symSize: 0x8C }
  - { offset: 0xA4C53, size: 0x8, addend: 0x0, symName: __RNvMNtCs6IAuOt8vWmF_3syn4exprNtB2_4Expr25parse_without_eager_brace, symObjAddr: 0x1C04, symBinAddr: 0x35794, symSize: 0x3C }
  - { offset: 0xA4C76, size: 0x8, addend: 0x0, symName: __RNvMNtCs6IAuOt8vWmF_3syn4exprNtB2_4Expr32parse_with_earlier_boundary_rule, symObjAddr: 0x1C40, symBinAddr: 0x357D0, symSize: 0x34 }
  - { offset: 0xA4C99, size: 0x8, addend: 0x0, symName: __RNvMNtCs6IAuOt8vWmF_3syn4exprNtB2_4Expr4peek, symObjAddr: 0x1C74, symBinAddr: 0x35804, symSize: 0x408 }
  - { offset: 0xA4CC9, size: 0x8, addend: 0x0, symName: __RNvMNtCs6IAuOt8vWmF_3syn4exprNtB2_4Expr13replace_attrs, symObjAddr: 0x207C, symBinAddr: 0x35C0C, symSize: 0x678 }
  - { offset: 0xA4D1F, size: 0x8, addend: 0x0, symName: __RNvMs6_NtCs6IAuOt8vWmF_3syn4exprNtB5_6Member8is_named, symObjAddr: 0x2A04, symBinAddr: 0x36284, symSize: 0x6C }
  - { offset: 0xA4D7A, size: 0x8, addend: 0x0, symName: __RNvMsv_NtNtCs6IAuOt8vWmF_3syn4expr7parsingNtB7_11RangeLimits14parse_obsolete, symObjAddr: 0x9428, symBinAddr: 0x3B4AC, symSize: 0x334 }
  - { offset: 0xA4E2D, size: 0x8, addend: 0x0, symName: __RNvMsy_NtNtCs6IAuOt8vWmF_3syn4expr7parsingNtB7_3Arm14parse_multiple, symObjAddr: 0x9A90, symBinAddr: 0x3BB14, symSize: 0x1C4 }
  - { offset: 0xA6F34, size: 0x8, addend: 0x0, symName: __RNCNvMNtCs6IAuOt8vWmF_3syn10punctuatedINtB4_10PunctuatedNtNtB6_4path11PathSegmentNtNtB6_5token7PathSepE10into_pairs0B6_, symObjAddr: 0x5AA4, symBinAddr: 0x418E8, symSize: 0x98 }
  - { offset: 0xA6F89, size: 0x8, addend: 0x0, symName: __RNCNvMNtCs6IAuOt8vWmF_3syn10punctuatedINtB4_10PunctuatedNtNtB6_4path11PathSegmentNtNtB6_5token7PathSepE3pop0B6_, symObjAddr: 0x9E58, symBinAddr: 0x45C9C, symSize: 0xC4 }
  - { offset: 0xA6FD1, size: 0x8, addend: 0x0, symName: __RNCNvMNtCs6IAuOt8vWmF_3syn10punctuatedINtB4_10PunctuatedNtNtB6_4path11PathSegmentNtNtB6_5token7PathSepE3pops_0B6_, symObjAddr: 0x9F1C, symBinAddr: 0x45D60, symSize: 0x74 }
  - { offset: 0xA7109, size: 0x8, addend: 0x0, symName: __RINvXs7_NtCs6IAuOt8vWmF_3syn10punctuatedINtB6_10PunctuatedNtNtB8_4path11PathSegmentNtNtB8_5token7PathSepEINtNtNtNtCsfvfooZQ3Axs_4core4iter6traits7collect6ExtendINtB6_4PairBU_B1j_EE6extendINtB6_9IntoPairsBU_B1j_EEB8_, symObjAddr: 0xDFB0, symBinAddr: 0x472A4, symSize: 0x124 }
  - { offset: 0xA715F, size: 0x8, addend: 0x0, symName: __RINvNtCs6IAuOt8vWmF_3syn10punctuated9do_extendNtNtB4_4path11PathSegmentNtNtB4_5token7PathSepINtB2_9IntoPairsBI_B17_EEB4_, symObjAddr: 0xE0D4, symBinAddr: 0x473C8, symSize: 0x3B4 }
  - { offset: 0xA725C, size: 0x8, addend: 0x0, symName: __RNvXs8_NtCs6IAuOt8vWmF_3syn10punctuatedINtB5_10PunctuatedNtNtB7_8generics14TypeParamBoundNtNtB7_5token4PlusENtNtNtNtCsfvfooZQ3Axs_4core4iter6traits7collect12IntoIterator9into_iterB7_, symObjAddr: 0xE808, symBinAddr: 0x4777C, symSize: 0x1C0 }
  - { offset: 0xA72B8, size: 0x8, addend: 0x0, symName: __RNCNvXs8_NtCs6IAuOt8vWmF_3syn10punctuatedINtB7_10PunctuatedNtNtB9_8generics14TypeParamBoundNtNtB9_5token4PlusENtNtNtNtCsfvfooZQ3Axs_4core4iter6traits7collect12IntoIterator9into_iter0B9_, symObjAddr: 0xEA50, symBinAddr: 0x4793C, symSize: 0x44 }
  - { offset: 0xA7304, size: 0x8, addend: 0x0, symName: __RNCNvXs8_NtCs6IAuOt8vWmF_3syn10punctuatedINtB7_10PunctuatedNtNtB9_8generics14TypeParamBoundNtNtB9_5token4PlusENtNtNtNtCsfvfooZQ3Axs_4core4iter6traits7collect12IntoIterator9into_iters_0B9_, symObjAddr: 0xEBC4, symBinAddr: 0x47980, symSize: 0x98 }
  - { offset: 0xA7364, size: 0x8, addend: 0x0, symName: __RNvXs9_NtCs6IAuOt8vWmF_3syn10punctuatedRINtB5_10PunctuatedNtNtB7_8generics14TypeParamBoundNtNtB7_5token4PlusENtNtNtNtCsfvfooZQ3Axs_4core4iter6traits7collect12IntoIterator9into_iterB7_, symObjAddr: 0xEC5C, symBinAddr: 0x47A18, symSize: 0x34 }
  - { offset: 0xA73AA, size: 0x8, addend: 0x0, symName: __RNvXsc_NtCs6IAuOt8vWmF_3syn10punctuatedINtB5_5PairsNtNtB7_2ty4TypeNtNtB7_5token5CommaENtNtNtNtCsfvfooZQ3Axs_4core4iter6traits8iterator8Iterator4nextB7_, symObjAddr: 0xEC90, symBinAddr: 0x47A4C, symSize: 0x58 }
  - { offset: 0xA73EA, size: 0x8, addend: 0x0, symName: __RNvXsc_NtCs6IAuOt8vWmF_3syn10punctuatedINtB5_5PairsNtNtB7_2ty9BareFnArgNtNtB7_5token5CommaENtNtNtNtCsfvfooZQ3Axs_4core4iter6traits8iterator8Iterator4nextB7_, symObjAddr: 0xECE8, symBinAddr: 0x47AA4, symSize: 0x58 }
  - { offset: 0xA742A, size: 0x8, addend: 0x0, symName: __RNvXsc_NtCs6IAuOt8vWmF_3syn10punctuatedINtB5_5PairsNtNtB7_3pat3PatNtNtB7_5token2OrENtNtNtNtCsfvfooZQ3Axs_4core4iter6traits8iterator8Iterator4nextB7_, symObjAddr: 0xED40, symBinAddr: 0x47AFC, symSize: 0x58 }
  - { offset: 0xA746A, size: 0x8, addend: 0x0, symName: __RNvXsc_NtCs6IAuOt8vWmF_3syn10punctuatedINtB5_5PairsNtNtB7_3pat3PatNtNtB7_5token5CommaENtNtNtNtCsfvfooZQ3Axs_4core4iter6traits8iterator8Iterator4nextB7_, symObjAddr: 0xED98, symBinAddr: 0x47B54, symSize: 0x58 }
  - { offset: 0xA74AA, size: 0x8, addend: 0x0, symName: __RNvXsc_NtCs6IAuOt8vWmF_3syn10punctuatedINtB5_5PairsNtNtB7_3pat8FieldPatNtNtB7_5token5CommaENtNtNtNtCsfvfooZQ3Axs_4core4iter6traits8iterator8Iterator4nextB7_, symObjAddr: 0xEDF0, symBinAddr: 0x47BAC, symSize: 0x58 }
  - { offset: 0xA74EA, size: 0x8, addend: 0x0, symName: __RNvXsc_NtCs6IAuOt8vWmF_3syn10punctuatedINtB5_5PairsNtNtB7_4data5FieldNtNtB7_5token5CommaENtNtNtNtCsfvfooZQ3Axs_4core4iter6traits8iterator8Iterator4nextB7_, symObjAddr: 0xEE48, symBinAddr: 0x47C04, symSize: 0x58 }
  - { offset: 0xA752A, size: 0x8, addend: 0x0, symName: __RNvXsc_NtCs6IAuOt8vWmF_3syn10punctuatedINtB5_5PairsNtNtB7_4data7VariantNtNtB7_5token5CommaENtNtNtNtCsfvfooZQ3Axs_4core4iter6traits8iterator8Iterator4nextB7_, symObjAddr: 0xEEA0, symBinAddr: 0x47C5C, symSize: 0x58 }
  - { offset: 0xA756A, size: 0x8, addend: 0x0, symName: __RNvXsc_NtCs6IAuOt8vWmF_3syn10punctuatedINtB5_5PairsNtNtB7_4expr10FieldValueNtNtB7_5token5CommaENtNtNtNtCsfvfooZQ3Axs_4core4iter6traits8iterator8Iterator4nextB7_, symObjAddr: 0xEEF8, symBinAddr: 0x47CB4, symSize: 0x58 }
  - { offset: 0xA75AA, size: 0x8, addend: 0x0, symName: __RNvXsc_NtCs6IAuOt8vWmF_3syn10punctuatedINtB5_5PairsNtNtB7_4expr4ExprNtNtB7_5token5CommaENtNtNtNtCsfvfooZQ3Axs_4core4iter6traits8iterator8Iterator4nextB7_, symObjAddr: 0xEF50, symBinAddr: 0x47D0C, symSize: 0x58 }
  - { offset: 0xA75EA, size: 0x8, addend: 0x0, symName: __RNvXsc_NtCs6IAuOt8vWmF_3syn10punctuatedINtB5_5PairsNtNtB7_4item5FnArgNtNtB7_5token5CommaENtNtNtNtCsfvfooZQ3Axs_4core4iter6traits8iterator8Iterator4nextB7_, symObjAddr: 0xEFA8, symBinAddr: 0x47D64, symSize: 0x58 }
  - { offset: 0xA762A, size: 0x8, addend: 0x0, symName: __RNvXsc_NtCs6IAuOt8vWmF_3syn10punctuatedINtB5_5PairsNtNtB7_4item7UseTreeNtNtB7_5token5CommaENtNtNtNtCsfvfooZQ3Axs_4core4iter6traits8iterator8Iterator4nextB7_, symObjAddr: 0xF000, symBinAddr: 0x47DBC, symSize: 0x58 }
  - { offset: 0xA766A, size: 0x8, addend: 0x0, symName: __RNvXsc_NtCs6IAuOt8vWmF_3syn10punctuatedINtB5_5PairsNtNtB7_4path11PathSegmentNtNtB7_5token7PathSepENtNtNtNtCsfvfooZQ3Axs_4core4iter6traits8iterator8Iterator4nextB7_, symObjAddr: 0xF058, symBinAddr: 0x47E14, symSize: 0x58 }
  - { offset: 0xA76AA, size: 0x8, addend: 0x0, symName: __RNvXsc_NtCs6IAuOt8vWmF_3syn10punctuatedINtB5_5PairsNtNtB7_4path15GenericArgumentNtNtB7_5token5CommaENtNtNtNtCsfvfooZQ3Axs_4core4iter6traits8iterator8Iterator4nextB7_, symObjAddr: 0xF0B0, symBinAddr: 0x47E6C, symSize: 0x58 }
  - { offset: 0xA76EA, size: 0x8, addend: 0x0, symName: __RNvXsc_NtCs6IAuOt8vWmF_3syn10punctuatedINtB5_5PairsNtNtB7_8generics12GenericParamNtNtB7_5token5CommaENtNtNtNtCsfvfooZQ3Axs_4core4iter6traits8iterator8Iterator4nextB7_, symObjAddr: 0xF108, symBinAddr: 0x47EC4, symSize: 0x58 }
  - { offset: 0xA772A, size: 0x8, addend: 0x0, symName: __RNvXsc_NtCs6IAuOt8vWmF_3syn10punctuatedINtB5_5PairsNtNtB7_8generics13CapturedParamNtNtB7_5token5CommaENtNtNtNtCsfvfooZQ3Axs_4core4iter6traits8iterator8Iterator4nextB7_, symObjAddr: 0xF160, symBinAddr: 0x47F1C, symSize: 0x58 }
  - { offset: 0xA776A, size: 0x8, addend: 0x0, symName: __RNvXsc_NtCs6IAuOt8vWmF_3syn10punctuatedINtB5_5PairsNtNtB7_8generics14TypeParamBoundNtNtB7_5token4PlusENtNtNtNtCsfvfooZQ3Axs_4core4iter6traits8iterator8Iterator4nextB7_, symObjAddr: 0xF1B8, symBinAddr: 0x47F74, symSize: 0x58 }
  - { offset: 0xA77AA, size: 0x8, addend: 0x0, symName: __RNvXsc_NtCs6IAuOt8vWmF_3syn10punctuatedINtB5_5PairsNtNtB7_8generics14WherePredicateNtNtB7_5token5CommaENtNtNtNtCsfvfooZQ3Axs_4core4iter6traits8iterator8Iterator4nextB7_, symObjAddr: 0xF210, symBinAddr: 0x47FCC, symSize: 0x58 }
  - { offset: 0xA77EA, size: 0x8, addend: 0x0, symName: __RNvXsc_NtCs6IAuOt8vWmF_3syn10punctuatedINtB5_5PairsNtNtB7_8lifetime8LifetimeNtNtB7_5token4PlusENtNtNtNtCsfvfooZQ3Axs_4core4iter6traits8iterator8Iterator4nextB7_, symObjAddr: 0xF268, symBinAddr: 0x48024, symSize: 0x58 }
  - { offset: 0xA782F, size: 0x8, addend: 0x0, symName: __RNCNvXsc_NtCs6IAuOt8vWmF_3syn10punctuatedINtB7_5PairsNtNtB9_2ty4TypeNtNtB9_5token5CommaENtNtNtNtCsfvfooZQ3Axs_4core4iter6traits8iterator8Iterator4next0B9_, symObjAddr: 0xF2C0, symBinAddr: 0x4807C, symSize: 0x40 }
  - { offset: 0xA78A4, size: 0x8, addend: 0x0, symName: __RNCNvXsc_NtCs6IAuOt8vWmF_3syn10punctuatedINtB7_5PairsNtNtB9_2ty9BareFnArgNtNtB9_5token5CommaENtNtNtNtCsfvfooZQ3Axs_4core4iter6traits8iterator8Iterator4next0B9_, symObjAddr: 0xF300, symBinAddr: 0x480BC, symSize: 0x40 }
  - { offset: 0xA7919, size: 0x8, addend: 0x0, symName: __RNCNvXsc_NtCs6IAuOt8vWmF_3syn10punctuatedINtB7_5PairsNtNtB9_3pat3PatNtNtB9_5token2OrENtNtNtNtCsfvfooZQ3Axs_4core4iter6traits8iterator8Iterator4next0B9_, symObjAddr: 0xF340, symBinAddr: 0x480FC, symSize: 0x40 }
  - { offset: 0xA798E, size: 0x8, addend: 0x0, symName: __RNCNvXsc_NtCs6IAuOt8vWmF_3syn10punctuatedINtB7_5PairsNtNtB9_3pat3PatNtNtB9_5token5CommaENtNtNtNtCsfvfooZQ3Axs_4core4iter6traits8iterator8Iterator4next0B9_, symObjAddr: 0xF380, symBinAddr: 0x4813C, symSize: 0x40 }
  - { offset: 0xA7A03, size: 0x8, addend: 0x0, symName: __RNCNvXsc_NtCs6IAuOt8vWmF_3syn10punctuatedINtB7_5PairsNtNtB9_3pat8FieldPatNtNtB9_5token5CommaENtNtNtNtCsfvfooZQ3Axs_4core4iter6traits8iterator8Iterator4next0B9_, symObjAddr: 0xF3C0, symBinAddr: 0x4817C, symSize: 0x40 }
  - { offset: 0xA7A78, size: 0x8, addend: 0x0, symName: __RNCNvXsc_NtCs6IAuOt8vWmF_3syn10punctuatedINtB7_5PairsNtNtB9_4data5FieldNtNtB9_5token5CommaENtNtNtNtCsfvfooZQ3Axs_4core4iter6traits8iterator8Iterator4next0B9_, symObjAddr: 0xF400, symBinAddr: 0x481BC, symSize: 0x40 }
  - { offset: 0xA7AED, size: 0x8, addend: 0x0, symName: __RNCNvXsc_NtCs6IAuOt8vWmF_3syn10punctuatedINtB7_5PairsNtNtB9_4data7VariantNtNtB9_5token5CommaENtNtNtNtCsfvfooZQ3Axs_4core4iter6traits8iterator8Iterator4next0B9_, symObjAddr: 0xF440, symBinAddr: 0x481FC, symSize: 0x40 }
  - { offset: 0xA7B62, size: 0x8, addend: 0x0, symName: __RNCNvXsc_NtCs6IAuOt8vWmF_3syn10punctuatedINtB7_5PairsNtNtB9_4expr10FieldValueNtNtB9_5token5CommaENtNtNtNtCsfvfooZQ3Axs_4core4iter6traits8iterator8Iterator4next0B9_, symObjAddr: 0xF480, symBinAddr: 0x4823C, symSize: 0x40 }
  - { offset: 0xA7BD7, size: 0x8, addend: 0x0, symName: __RNCNvXsc_NtCs6IAuOt8vWmF_3syn10punctuatedINtB7_5PairsNtNtB9_4expr4ExprNtNtB9_5token5CommaENtNtNtNtCsfvfooZQ3Axs_4core4iter6traits8iterator8Iterator4next0B9_, symObjAddr: 0xF4C0, symBinAddr: 0x4827C, symSize: 0x40 }
  - { offset: 0xA7C4C, size: 0x8, addend: 0x0, symName: __RNCNvXsc_NtCs6IAuOt8vWmF_3syn10punctuatedINtB7_5PairsNtNtB9_4item5FnArgNtNtB9_5token5CommaENtNtNtNtCsfvfooZQ3Axs_4core4iter6traits8iterator8Iterator4next0B9_, symObjAddr: 0xF500, symBinAddr: 0x482BC, symSize: 0x40 }
  - { offset: 0xA7CC1, size: 0x8, addend: 0x0, symName: __RNCNvXsc_NtCs6IAuOt8vWmF_3syn10punctuatedINtB7_5PairsNtNtB9_4item7UseTreeNtNtB9_5token5CommaENtNtNtNtCsfvfooZQ3Axs_4core4iter6traits8iterator8Iterator4next0B9_, symObjAddr: 0xF540, symBinAddr: 0x482FC, symSize: 0x40 }
  - { offset: 0xA7D36, size: 0x8, addend: 0x0, symName: __RNCNvXsc_NtCs6IAuOt8vWmF_3syn10punctuatedINtB7_5PairsNtNtB9_4path11PathSegmentNtNtB9_5token7PathSepENtNtNtNtCsfvfooZQ3Axs_4core4iter6traits8iterator8Iterator4next0B9_, symObjAddr: 0xF580, symBinAddr: 0x4833C, symSize: 0x40 }
  - { offset: 0xA7DAB, size: 0x8, addend: 0x0, symName: __RNCNvXsc_NtCs6IAuOt8vWmF_3syn10punctuatedINtB7_5PairsNtNtB9_4path15GenericArgumentNtNtB9_5token5CommaENtNtNtNtCsfvfooZQ3Axs_4core4iter6traits8iterator8Iterator4next0B9_, symObjAddr: 0xF5C0, symBinAddr: 0x4837C, symSize: 0x40 }
  - { offset: 0xA7E20, size: 0x8, addend: 0x0, symName: __RNCNvXsc_NtCs6IAuOt8vWmF_3syn10punctuatedINtB7_5PairsNtNtB9_8generics12GenericParamNtNtB9_5token5CommaENtNtNtNtCsfvfooZQ3Axs_4core4iter6traits8iterator8Iterator4next0B9_, symObjAddr: 0xF600, symBinAddr: 0x483BC, symSize: 0x40 }
  - { offset: 0xA7E95, size: 0x8, addend: 0x0, symName: __RNCNvXsc_NtCs6IAuOt8vWmF_3syn10punctuatedINtB7_5PairsNtNtB9_8generics13CapturedParamNtNtB9_5token5CommaENtNtNtNtCsfvfooZQ3Axs_4core4iter6traits8iterator8Iterator4next0B9_, symObjAddr: 0xF640, symBinAddr: 0x483FC, symSize: 0x40 }
  - { offset: 0xA7F0A, size: 0x8, addend: 0x0, symName: __RNCNvXsc_NtCs6IAuOt8vWmF_3syn10punctuatedINtB7_5PairsNtNtB9_8generics14TypeParamBoundNtNtB9_5token4PlusENtNtNtNtCsfvfooZQ3Axs_4core4iter6traits8iterator8Iterator4next0B9_, symObjAddr: 0xF680, symBinAddr: 0x4843C, symSize: 0x40 }
  - { offset: 0xA7F7F, size: 0x8, addend: 0x0, symName: __RNCNvXsc_NtCs6IAuOt8vWmF_3syn10punctuatedINtB7_5PairsNtNtB9_8generics14WherePredicateNtNtB9_5token5CommaENtNtNtNtCsfvfooZQ3Axs_4core4iter6traits8iterator8Iterator4next0B9_, symObjAddr: 0xF6C0, symBinAddr: 0x4847C, symSize: 0x40 }
  - { offset: 0xA7FF4, size: 0x8, addend: 0x0, symName: __RNCNvXsc_NtCs6IAuOt8vWmF_3syn10punctuatedINtB7_5PairsNtNtB9_8lifetime8LifetimeNtNtB9_5token4PlusENtNtNtNtCsfvfooZQ3Axs_4core4iter6traits8iterator8Iterator4next0B9_, symObjAddr: 0xF700, symBinAddr: 0x484BC, symSize: 0x40 }
  - { offset: 0xA8069, size: 0x8, addend: 0x0, symName: __RNCNvXsc_NtCs6IAuOt8vWmF_3syn10punctuatedINtB7_5PairsNtNtB9_2ty4TypeNtNtB9_5token5CommaENtNtNtNtCsfvfooZQ3Axs_4core4iter6traits8iterator8Iterator4nexts_0B9_, symObjAddr: 0xF740, symBinAddr: 0x484FC, symSize: 0x40 }
  - { offset: 0xA80AB, size: 0x8, addend: 0x0, symName: __RNCNvXsc_NtCs6IAuOt8vWmF_3syn10punctuatedINtB7_5PairsNtNtB9_2ty9BareFnArgNtNtB9_5token5CommaENtNtNtNtCsfvfooZQ3Axs_4core4iter6traits8iterator8Iterator4nexts_0B9_, symObjAddr: 0xF780, symBinAddr: 0x4853C, symSize: 0x40 }
  - { offset: 0xA80ED, size: 0x8, addend: 0x0, symName: __RNCNvXsc_NtCs6IAuOt8vWmF_3syn10punctuatedINtB7_5PairsNtNtB9_3pat3PatNtNtB9_5token2OrENtNtNtNtCsfvfooZQ3Axs_4core4iter6traits8iterator8Iterator4nexts_0B9_, symObjAddr: 0xF7C0, symBinAddr: 0x4857C, symSize: 0x40 }
  - { offset: 0xA812F, size: 0x8, addend: 0x0, symName: __RNCNvXsc_NtCs6IAuOt8vWmF_3syn10punctuatedINtB7_5PairsNtNtB9_3pat3PatNtNtB9_5token5CommaENtNtNtNtCsfvfooZQ3Axs_4core4iter6traits8iterator8Iterator4nexts_0B9_, symObjAddr: 0xF800, symBinAddr: 0x485BC, symSize: 0x40 }
  - { offset: 0xA8171, size: 0x8, addend: 0x0, symName: __RNCNvXsc_NtCs6IAuOt8vWmF_3syn10punctuatedINtB7_5PairsNtNtB9_3pat8FieldPatNtNtB9_5token5CommaENtNtNtNtCsfvfooZQ3Axs_4core4iter6traits8iterator8Iterator4nexts_0B9_, symObjAddr: 0xF840, symBinAddr: 0x485FC, symSize: 0x40 }
  - { offset: 0xA81B3, size: 0x8, addend: 0x0, symName: __RNCNvXsc_NtCs6IAuOt8vWmF_3syn10punctuatedINtB7_5PairsNtNtB9_4data5FieldNtNtB9_5token5CommaENtNtNtNtCsfvfooZQ3Axs_4core4iter6traits8iterator8Iterator4nexts_0B9_, symObjAddr: 0xF880, symBinAddr: 0x4863C, symSize: 0x40 }
  - { offset: 0xA81F5, size: 0x8, addend: 0x0, symName: __RNCNvXsc_NtCs6IAuOt8vWmF_3syn10punctuatedINtB7_5PairsNtNtB9_4data7VariantNtNtB9_5token5CommaENtNtNtNtCsfvfooZQ3Axs_4core4iter6traits8iterator8Iterator4nexts_0B9_, symObjAddr: 0xF8C0, symBinAddr: 0x4867C, symSize: 0x40 }
  - { offset: 0xA8237, size: 0x8, addend: 0x0, symName: __RNCNvXsc_NtCs6IAuOt8vWmF_3syn10punctuatedINtB7_5PairsNtNtB9_4expr10FieldValueNtNtB9_5token5CommaENtNtNtNtCsfvfooZQ3Axs_4core4iter6traits8iterator8Iterator4nexts_0B9_, symObjAddr: 0xF900, symBinAddr: 0x486BC, symSize: 0x40 }
  - { offset: 0xA8279, size: 0x8, addend: 0x0, symName: __RNCNvXsc_NtCs6IAuOt8vWmF_3syn10punctuatedINtB7_5PairsNtNtB9_4expr4ExprNtNtB9_5token5CommaENtNtNtNtCsfvfooZQ3Axs_4core4iter6traits8iterator8Iterator4nexts_0B9_, symObjAddr: 0xF940, symBinAddr: 0x486FC, symSize: 0x40 }
  - { offset: 0xA82BB, size: 0x8, addend: 0x0, symName: __RNCNvXsc_NtCs6IAuOt8vWmF_3syn10punctuatedINtB7_5PairsNtNtB9_4item5FnArgNtNtB9_5token5CommaENtNtNtNtCsfvfooZQ3Axs_4core4iter6traits8iterator8Iterator4nexts_0B9_, symObjAddr: 0xF980, symBinAddr: 0x4873C, symSize: 0x40 }
  - { offset: 0xA82FD, size: 0x8, addend: 0x0, symName: __RNCNvXsc_NtCs6IAuOt8vWmF_3syn10punctuatedINtB7_5PairsNtNtB9_4item7UseTreeNtNtB9_5token5CommaENtNtNtNtCsfvfooZQ3Axs_4core4iter6traits8iterator8Iterator4nexts_0B9_, symObjAddr: 0xF9C0, symBinAddr: 0x4877C, symSize: 0x40 }
  - { offset: 0xA833F, size: 0x8, addend: 0x0, symName: __RNCNvXsc_NtCs6IAuOt8vWmF_3syn10punctuatedINtB7_5PairsNtNtB9_4path11PathSegmentNtNtB9_5token7PathSepENtNtNtNtCsfvfooZQ3Axs_4core4iter6traits8iterator8Iterator4nexts_0B9_, symObjAddr: 0xFA00, symBinAddr: 0x487BC, symSize: 0x40 }
  - { offset: 0xA8381, size: 0x8, addend: 0x0, symName: __RNCNvXsc_NtCs6IAuOt8vWmF_3syn10punctuatedINtB7_5PairsNtNtB9_4path15GenericArgumentNtNtB9_5token5CommaENtNtNtNtCsfvfooZQ3Axs_4core4iter6traits8iterator8Iterator4nexts_0B9_, symObjAddr: 0xFA40, symBinAddr: 0x487FC, symSize: 0x40 }
  - { offset: 0xA83C3, size: 0x8, addend: 0x0, symName: __RNCNvXsc_NtCs6IAuOt8vWmF_3syn10punctuatedINtB7_5PairsNtNtB9_8generics12GenericParamNtNtB9_5token5CommaENtNtNtNtCsfvfooZQ3Axs_4core4iter6traits8iterator8Iterator4nexts_0B9_, symObjAddr: 0xFA80, symBinAddr: 0x4883C, symSize: 0x40 }
  - { offset: 0xA8405, size: 0x8, addend: 0x0, symName: __RNCNvXsc_NtCs6IAuOt8vWmF_3syn10punctuatedINtB7_5PairsNtNtB9_8generics13CapturedParamNtNtB9_5token5CommaENtNtNtNtCsfvfooZQ3Axs_4core4iter6traits8iterator8Iterator4nexts_0B9_, symObjAddr: 0xFAC0, symBinAddr: 0x4887C, symSize: 0x40 }
  - { offset: 0xA8447, size: 0x8, addend: 0x0, symName: __RNCNvXsc_NtCs6IAuOt8vWmF_3syn10punctuatedINtB7_5PairsNtNtB9_8generics14TypeParamBoundNtNtB9_5token4PlusENtNtNtNtCsfvfooZQ3Axs_4core4iter6traits8iterator8Iterator4nexts_0B9_, symObjAddr: 0xFB00, symBinAddr: 0x488BC, symSize: 0x40 }
  - { offset: 0xA8489, size: 0x8, addend: 0x0, symName: __RNCNvXsc_NtCs6IAuOt8vWmF_3syn10punctuatedINtB7_5PairsNtNtB9_8generics14WherePredicateNtNtB9_5token5CommaENtNtNtNtCsfvfooZQ3Axs_4core4iter6traits8iterator8Iterator4nexts_0B9_, symObjAddr: 0xFB40, symBinAddr: 0x488FC, symSize: 0x40 }
  - { offset: 0xA84CB, size: 0x8, addend: 0x0, symName: __RNCNvXsc_NtCs6IAuOt8vWmF_3syn10punctuatedINtB7_5PairsNtNtB9_8lifetime8LifetimeNtNtB9_5token4PlusENtNtNtNtCsfvfooZQ3Axs_4core4iter6traits8iterator8Iterator4nexts_0B9_, symObjAddr: 0xFB80, symBinAddr: 0x4893C, symSize: 0x40 }
  - { offset: 0xA8592, size: 0x8, addend: 0x0, symName: __RNvXsj_NtCs6IAuOt8vWmF_3syn10punctuatedINtB5_9IntoPairsNtNtB7_4path11PathSegmentNtNtB7_5token7PathSepENtNtNtNtCsfvfooZQ3Axs_4core4iter6traits8iterator8Iterator4nextB7_, symObjAddr: 0xFBC0, symBinAddr: 0x4897C, symSize: 0x6C }
  - { offset: 0xA85D7, size: 0x8, addend: 0x0, symName: __RNCNvXsj_NtCs6IAuOt8vWmF_3syn10punctuatedINtB7_9IntoPairsNtNtB9_4path11PathSegmentNtNtB9_5token7PathSepENtNtNtNtCsfvfooZQ3Axs_4core4iter6traits8iterator8Iterator4next0B9_, symObjAddr: 0xFC2C, symBinAddr: 0x489E8, symSize: 0x74 }
  - { offset: 0xA8645, size: 0x8, addend: 0x0, symName: __RNCNvXsj_NtCs6IAuOt8vWmF_3syn10punctuatedINtB7_9IntoPairsNtNtB9_4path11PathSegmentNtNtB9_5token7PathSepENtNtNtNtCsfvfooZQ3Axs_4core4iter6traits8iterator8Iterator4nexts_0B9_, symObjAddr: 0xFCA0, symBinAddr: 0x48A5C, symSize: 0x4C }
  - { offset: 0xA8695, size: 0x8, addend: 0x0, symName: __RNvXsn_NtCs6IAuOt8vWmF_3syn10punctuatedINtB5_8IntoIterNtNtB7_8generics14TypeParamBoundENtNtNtNtCsfvfooZQ3Axs_4core4iter6traits8iterator8Iterator4nextB7_, symObjAddr: 0xFCEC, symBinAddr: 0x48AA8, symSize: 0x34 }
  - { offset: 0xA86D2, size: 0x8, addend: 0x0, symName: __RNvXst_NtCs6IAuOt8vWmF_3syn10punctuatedINtB5_4IterNtNtB7_4path11PathSegmentENtNtNtNtCsfvfooZQ3Axs_4core4iter6traits8iterator8Iterator4nextB7_, symObjAddr: 0xFE60, symBinAddr: 0x48ADC, symSize: 0x48 }
  - { offset: 0xA8709, size: 0x8, addend: 0x0, symName: __RNvXst_NtCs6IAuOt8vWmF_3syn10punctuatedINtB5_4IterNtNtB7_8generics14TypeParamBoundENtNtNtNtCsfvfooZQ3Axs_4core4iter6traits8iterator8Iterator4nextB7_, symObjAddr: 0xFEF0, symBinAddr: 0x48B24, symSize: 0x48 }
  - { offset: 0xA8746, size: 0x8, addend: 0x0, symName: __RNvXsu_NtCs6IAuOt8vWmF_3syn10punctuatedINtB5_4IterNtNtB7_4path11PathSegmentENtNtNtNtCsfvfooZQ3Axs_4core4iter6traits12double_ended19DoubleEndedIterator9next_backB7_, symObjAddr: 0xFF38, symBinAddr: 0x48B6C, symSize: 0x48 }
  - { offset: 0xA877D, size: 0x8, addend: 0x0, symName: __RNvXsu_NtCs6IAuOt8vWmF_3syn10punctuatedINtB5_4IterNtNtB7_8generics14TypeParamBoundENtNtNtNtCsfvfooZQ3Axs_4core4iter6traits12double_ended19DoubleEndedIterator9next_backB7_, symObjAddr: 0xFF80, symBinAddr: 0x48BB4, symSize: 0x48 }
  - { offset: 0xA87BA, size: 0x8, addend: 0x0, symName: __RNvXsw_NtCs6IAuOt8vWmF_3syn10punctuatedINtB5_11PrivateIterNtNtB7_4path11PathSegmentNtNtB7_5token7PathSepENtNtNtNtCsfvfooZQ3Axs_4core4iter6traits8iterator8Iterator4nextB7_, symObjAddr: 0x10050, symBinAddr: 0x48BFC, symSize: 0x44 }
  - { offset: 0xA87FA, size: 0x8, addend: 0x0, symName: __RNvXsw_NtCs6IAuOt8vWmF_3syn10punctuatedINtB5_11PrivateIterNtNtB7_8generics14TypeParamBoundNtNtB7_5token4PlusENtNtNtNtCsfvfooZQ3Axs_4core4iter6traits8iterator8Iterator4nextB7_, symObjAddr: 0x100D8, symBinAddr: 0x48C40, symSize: 0x44 }
  - { offset: 0xA883F, size: 0x8, addend: 0x0, symName: __RNCNvXsw_NtCs6IAuOt8vWmF_3syn10punctuatedINtB7_11PrivateIterNtNtB9_4path11PathSegmentNtNtB9_5token7PathSepENtNtNtNtCsfvfooZQ3Axs_4core4iter6traits8iterator8Iterator4next0B9_, symObjAddr: 0x10164, symBinAddr: 0x48C84, symSize: 0x24 }
  - { offset: 0xA888A, size: 0x8, addend: 0x0, symName: __RNCNvXsw_NtCs6IAuOt8vWmF_3syn10punctuatedINtB7_11PrivateIterNtNtB9_8generics14TypeParamBoundNtNtB9_5token4PlusENtNtNtNtCsfvfooZQ3Axs_4core4iter6traits8iterator8Iterator4next0B9_, symObjAddr: 0x101AC, symBinAddr: 0x48CA8, symSize: 0x24 }
  - { offset: 0xA88D5, size: 0x8, addend: 0x0, symName: __RNCNvXsw_NtCs6IAuOt8vWmF_3syn10punctuatedINtB7_11PrivateIterNtNtB9_4path11PathSegmentNtNtB9_5token7PathSepENtNtNtNtCsfvfooZQ3Axs_4core4iter6traits8iterator8Iterator4nexts_0B9_, symObjAddr: 0x10238, symBinAddr: 0x48CCC, symSize: 0x34 }
  - { offset: 0xA8917, size: 0x8, addend: 0x0, symName: __RNCNvXsw_NtCs6IAuOt8vWmF_3syn10punctuatedINtB7_11PrivateIterNtNtB9_8generics14TypeParamBoundNtNtB9_5token4PlusENtNtNtNtCsfvfooZQ3Axs_4core4iter6traits8iterator8Iterator4nexts_0B9_, symObjAddr: 0x102A0, symBinAddr: 0x48D00, symSize: 0x34 }
  - { offset: 0xA896E, size: 0x8, addend: 0x0, symName: __RNvXsx_NtCs6IAuOt8vWmF_3syn10punctuatedINtB5_11PrivateIterNtNtB7_4path11PathSegmentNtNtB7_5token7PathSepENtNtNtNtCsfvfooZQ3Axs_4core4iter6traits12double_ended19DoubleEndedIterator9next_backB7_, symObjAddr: 0x10354, symBinAddr: 0x48D34, symSize: 0x40 }
  - { offset: 0xA89AE, size: 0x8, addend: 0x0, symName: __RNvXsx_NtCs6IAuOt8vWmF_3syn10punctuatedINtB5_11PrivateIterNtNtB7_8generics14TypeParamBoundNtNtB7_5token4PlusENtNtNtNtCsfvfooZQ3Axs_4core4iter6traits12double_ended19DoubleEndedIterator9next_backB7_, symObjAddr: 0x103D4, symBinAddr: 0x48D74, symSize: 0x40 }
  - { offset: 0xA89F3, size: 0x8, addend: 0x0, symName: __RNCNvXsx_NtCs6IAuOt8vWmF_3syn10punctuatedINtB7_11PrivateIterNtNtB9_4path11PathSegmentNtNtB9_5token7PathSepENtNtNtNtCsfvfooZQ3Axs_4core4iter6traits12double_ended19DoubleEndedIterator9next_back0B9_, symObjAddr: 0x10484, symBinAddr: 0x48DB4, symSize: 0x38 }
  - { offset: 0xA8A35, size: 0x8, addend: 0x0, symName: __RNCNvXsx_NtCs6IAuOt8vWmF_3syn10punctuatedINtB7_11PrivateIterNtNtB9_8generics14TypeParamBoundNtNtB9_5token4PlusENtNtNtNtCsfvfooZQ3Axs_4core4iter6traits12double_ended19DoubleEndedIterator9next_back0B9_, symObjAddr: 0x104F4, symBinAddr: 0x48DEC, symSize: 0x38 }
  - { offset: 0xA8A7C, size: 0x8, addend: 0x0, symName: __RNCNCNvXsx_NtCs6IAuOt8vWmF_3syn10punctuatedINtB9_11PrivateIterNtNtBb_4path11PathSegmentNtNtBb_5token7PathSepENtNtNtNtCsfvfooZQ3Axs_4core4iter6traits12double_ended19DoubleEndedIterator9next_back00Bb_, symObjAddr: 0x10574, symBinAddr: 0x48E24, symSize: 0x24 }
  - { offset: 0xA8AC7, size: 0x8, addend: 0x0, symName: __RNCNCNvXsx_NtCs6IAuOt8vWmF_3syn10punctuatedINtB9_11PrivateIterNtNtBb_8generics14TypeParamBoundNtNtBb_5token4PlusENtNtNtNtCsfvfooZQ3Axs_4core4iter6traits12double_ended19DoubleEndedIterator9next_back00Bb_, symObjAddr: 0x105BC, symBinAddr: 0x48E48, symSize: 0x24 }
  - { offset: 0xA8B28, size: 0x8, addend: 0x0, symName: __RNvXsy_NtCs6IAuOt8vWmF_3syn10punctuatedINtB5_11PrivateIterNtNtB7_4path11PathSegmentNtNtB7_5token7PathSepENtNtNtNtCsfvfooZQ3Axs_4core4iter6traits10exact_size17ExactSizeIterator3lenB7_, symObjAddr: 0x10708, symBinAddr: 0x48E6C, symSize: 0x94 }
  - { offset: 0xA8B9C, size: 0x8, addend: 0x0, symName: __RNvXsy_NtCs6IAuOt8vWmF_3syn10punctuatedINtB5_11PrivateIterNtNtB7_8generics14TypeParamBoundNtNtB7_5token4PlusENtNtNtNtCsfvfooZQ3Axs_4core4iter6traits10exact_size17ExactSizeIterator3lenB7_, symObjAddr: 0x10830, symBinAddr: 0x48F00, symSize: 0x94 }
  - { offset: 0xA8C16, size: 0x8, addend: 0x0, symName: __RNvXsz_NtCs6IAuOt8vWmF_3syn10punctuatedINtB5_11PrivateIterNtNtB7_4path11PathSegmentNtNtB7_5token7PathSepENtNtCsfvfooZQ3Axs_4core5clone5Clone5cloneB7_, symObjAddr: 0x10994, symBinAddr: 0x48F94, symSize: 0x68 }
  - { offset: 0xA8C56, size: 0x8, addend: 0x0, symName: __RNvXsz_NtCs6IAuOt8vWmF_3syn10punctuatedINtB5_11PrivateIterNtNtB7_8generics14TypeParamBoundNtNtB7_5token4PlusENtNtCsfvfooZQ3Axs_4core5clone5Clone5cloneB7_, symObjAddr: 0x10A64, symBinAddr: 0x48FFC, symSize: 0x68 }
  - { offset: 0xA8C9C, size: 0x8, addend: 0x0, symName: __RNvXsA_NtCs6IAuOt8vWmF_3syn10punctuatedINtB5_11PrivateIterNtNtB7_4path11PathSegmentNtNtB7_5token7PathSepEINtB5_9IterTraitBU_E9clone_boxB7_, symObjAddr: 0x10BF4, symBinAddr: 0x49064, symSize: 0x94 }
  - { offset: 0xA8CFA, size: 0x8, addend: 0x0, symName: __RNvXsA_NtCs6IAuOt8vWmF_3syn10punctuatedINtB5_11PrivateIterNtNtB7_8generics14TypeParamBoundNtNtB7_5token4PlusEINtB5_9IterTraitBU_E9clone_boxB7_, symObjAddr: 0x10D1C, symBinAddr: 0x490F8, symSize: 0x94 }
  - { offset: 0xA8D5E, size: 0x8, addend: 0x0, symName: __RNvXsD_NtCs6IAuOt8vWmF_3syn10punctuatedINtB5_7IterMutNtNtB7_4path11PathSegmentENtNtNtNtCsfvfooZQ3Axs_4core4iter6traits12double_ended19DoubleEndedIterator9next_backB7_, symObjAddr: 0x10E60, symBinAddr: 0x4918C, symSize: 0x48 }
  - { offset: 0xA8D9B, size: 0x8, addend: 0x0, symName: __RNvXsF_NtCs6IAuOt8vWmF_3syn10punctuatedINtB5_14PrivateIterMutNtNtB7_4path11PathSegmentNtNtB7_5token7PathSepENtNtNtNtCsfvfooZQ3Axs_4core4iter6traits8iterator8Iterator4nextB7_, symObjAddr: 0x10EEC, symBinAddr: 0x491D4, symSize: 0x44 }
  - { offset: 0xA8DE0, size: 0x8, addend: 0x0, symName: __RNCNvXsF_NtCs6IAuOt8vWmF_3syn10punctuatedINtB7_14PrivateIterMutNtNtB9_4path11PathSegmentNtNtB9_5token7PathSepENtNtNtNtCsfvfooZQ3Axs_4core4iter6traits8iterator8Iterator4next0B9_, symObjAddr: 0x10F98, symBinAddr: 0x49218, symSize: 0x24 }
  - { offset: 0xA8E2B, size: 0x8, addend: 0x0, symName: __RNCNvXsF_NtCs6IAuOt8vWmF_3syn10punctuatedINtB7_14PrivateIterMutNtNtB9_4path11PathSegmentNtNtB9_5token7PathSepENtNtNtNtCsfvfooZQ3Axs_4core4iter6traits8iterator8Iterator4nexts_0B9_, symObjAddr: 0x11014, symBinAddr: 0x4923C, symSize: 0x34 }
  - { offset: 0xA8E7B, size: 0x8, addend: 0x0, symName: __RNvXsG_NtCs6IAuOt8vWmF_3syn10punctuatedINtB5_14PrivateIterMutNtNtB7_4path11PathSegmentNtNtB7_5token7PathSepENtNtNtNtCsfvfooZQ3Axs_4core4iter6traits12double_ended19DoubleEndedIterator9next_backB7_, symObjAddr: 0x110BC, symBinAddr: 0x49270, symSize: 0x40 }
  - { offset: 0xA8EC0, size: 0x8, addend: 0x0, symName: __RNCNvXsG_NtCs6IAuOt8vWmF_3syn10punctuatedINtB7_14PrivateIterMutNtNtB9_4path11PathSegmentNtNtB9_5token7PathSepENtNtNtNtCsfvfooZQ3Axs_4core4iter6traits12double_ended19DoubleEndedIterator9next_back0B9_, symObjAddr: 0x11174, symBinAddr: 0x492B0, symSize: 0x38 }
  - { offset: 0xA8F07, size: 0x8, addend: 0x0, symName: __RNCNCNvXsG_NtCs6IAuOt8vWmF_3syn10punctuatedINtB9_14PrivateIterMutNtNtBb_4path11PathSegmentNtNtBb_5token7PathSepENtNtNtNtCsfvfooZQ3Axs_4core4iter6traits12double_ended19DoubleEndedIterator9next_back00Bb_, symObjAddr: 0x11208, symBinAddr: 0x492E8, symSize: 0x24 }
  - { offset: 0xA8F61, size: 0x8, addend: 0x0, symName: __RNvXsH_NtCs6IAuOt8vWmF_3syn10punctuatedINtB5_14PrivateIterMutNtNtB7_4path11PathSegmentNtNtB7_5token7PathSepENtNtNtNtCsfvfooZQ3Axs_4core4iter6traits10exact_size17ExactSizeIterator3lenB7_, symObjAddr: 0x112E4, symBinAddr: 0x4930C, symSize: 0x94 }
  - { offset: 0xA8FE0, size: 0x8, addend: 0x0, symName: __RNcNtINtNtCs6IAuOt8vWmF_3syn10punctuated4PairNtNtB8_4path11PathSegmentNtNtB8_5token7PathSepE3End0B8_, symObjAddr: 0x1140C, symBinAddr: 0x493A0, symSize: 0x40 }
  - { offset: 0xA901D, size: 0x8, addend: 0x0, symName: __RNcNtINtNtCs6IAuOt8vWmF_3syn10punctuated4PairRNtNtB8_2ty4TypeRNtNtB8_5token5CommaE3End0B8_, symObjAddr: 0x1144C, symBinAddr: 0x493E0, symSize: 0x1C }
  - { offset: 0xA9059, size: 0x8, addend: 0x0, symName: __RNcNtINtNtCs6IAuOt8vWmF_3syn10punctuated4PairRNtNtB8_2ty9BareFnArgRNtNtB8_5token5CommaE3End0B8_, symObjAddr: 0x11468, symBinAddr: 0x493FC, symSize: 0x1C }
  - { offset: 0xA9095, size: 0x8, addend: 0x0, symName: __RNcNtINtNtCs6IAuOt8vWmF_3syn10punctuated4PairRNtNtB8_3pat3PatRNtNtB8_5token2OrE3End0B8_, symObjAddr: 0x11484, symBinAddr: 0x49418, symSize: 0x1C }
  - { offset: 0xA90D1, size: 0x8, addend: 0x0, symName: __RNcNtINtNtCs6IAuOt8vWmF_3syn10punctuated4PairRNtNtB8_3pat3PatRNtNtB8_5token5CommaE3End0B8_, symObjAddr: 0x114A0, symBinAddr: 0x49434, symSize: 0x1C }
  - { offset: 0xA910D, size: 0x8, addend: 0x0, symName: __RNcNtINtNtCs6IAuOt8vWmF_3syn10punctuated4PairRNtNtB8_3pat8FieldPatRNtNtB8_5token5CommaE3End0B8_, symObjAddr: 0x114BC, symBinAddr: 0x49450, symSize: 0x1C }
  - { offset: 0xA9149, size: 0x8, addend: 0x0, symName: __RNcNtINtNtCs6IAuOt8vWmF_3syn10punctuated4PairRNtNtB8_4data5FieldRNtNtB8_5token5CommaE3End0B8_, symObjAddr: 0x114D8, symBinAddr: 0x4946C, symSize: 0x1C }
  - { offset: 0xA9185, size: 0x8, addend: 0x0, symName: __RNcNtINtNtCs6IAuOt8vWmF_3syn10punctuated4PairRNtNtB8_4data7VariantRNtNtB8_5token5CommaE3End0B8_, symObjAddr: 0x114F4, symBinAddr: 0x49488, symSize: 0x1C }
  - { offset: 0xA91C1, size: 0x8, addend: 0x0, symName: __RNcNtINtNtCs6IAuOt8vWmF_3syn10punctuated4PairRNtNtB8_4expr10FieldValueRNtNtB8_5token5CommaE3End0B8_, symObjAddr: 0x11510, symBinAddr: 0x494A4, symSize: 0x1C }
  - { offset: 0xA91FD, size: 0x8, addend: 0x0, symName: __RNcNtINtNtCs6IAuOt8vWmF_3syn10punctuated4PairRNtNtB8_4expr4ExprRNtNtB8_5token5CommaE3End0B8_, symObjAddr: 0x1152C, symBinAddr: 0x494C0, symSize: 0x1C }
  - { offset: 0xA9239, size: 0x8, addend: 0x0, symName: __RNcNtINtNtCs6IAuOt8vWmF_3syn10punctuated4PairRNtNtB8_4item5FnArgRNtNtB8_5token5CommaE3End0B8_, symObjAddr: 0x11548, symBinAddr: 0x494DC, symSize: 0x1C }
  - { offset: 0xA9275, size: 0x8, addend: 0x0, symName: __RNcNtINtNtCs6IAuOt8vWmF_3syn10punctuated4PairRNtNtB8_4item7UseTreeRNtNtB8_5token5CommaE3End0B8_, symObjAddr: 0x11564, symBinAddr: 0x494F8, symSize: 0x1C }
  - { offset: 0xA92B1, size: 0x8, addend: 0x0, symName: __RNcNtINtNtCs6IAuOt8vWmF_3syn10punctuated4PairRNtNtB8_4path11PathSegmentRNtNtB8_5token7PathSepE3End0B8_, symObjAddr: 0x11580, symBinAddr: 0x49514, symSize: 0x1C }
  - { offset: 0xA92ED, size: 0x8, addend: 0x0, symName: __RNcNtINtNtCs6IAuOt8vWmF_3syn10punctuated4PairRNtNtB8_4path15GenericArgumentRNtNtB8_5token5CommaE3End0B8_, symObjAddr: 0x1159C, symBinAddr: 0x49530, symSize: 0x1C }
  - { offset: 0xA9329, size: 0x8, addend: 0x0, symName: __RNcNtINtNtCs6IAuOt8vWmF_3syn10punctuated4PairRNtNtB8_8generics12GenericParamRNtNtB8_5token5CommaE3End0B8_, symObjAddr: 0x115B8, symBinAddr: 0x4954C, symSize: 0x1C }
  - { offset: 0xA9365, size: 0x8, addend: 0x0, symName: __RNcNtINtNtCs6IAuOt8vWmF_3syn10punctuated4PairRNtNtB8_8generics13CapturedParamRNtNtB8_5token5CommaE3End0B8_, symObjAddr: 0x115D4, symBinAddr: 0x49568, symSize: 0x1C }
  - { offset: 0xA93A1, size: 0x8, addend: 0x0, symName: __RNcNtINtNtCs6IAuOt8vWmF_3syn10punctuated4PairRNtNtB8_8generics14TypeParamBoundRNtNtB8_5token4PlusE3End0B8_, symObjAddr: 0x115F0, symBinAddr: 0x49584, symSize: 0x1C }
  - { offset: 0xA93DD, size: 0x8, addend: 0x0, symName: __RNcNtINtNtCs6IAuOt8vWmF_3syn10punctuated4PairRNtNtB8_8generics14WherePredicateRNtNtB8_5token5CommaE3End0B8_, symObjAddr: 0x1160C, symBinAddr: 0x495A0, symSize: 0x1C }
  - { offset: 0xA9419, size: 0x8, addend: 0x0, symName: __RNcNtINtNtCs6IAuOt8vWmF_3syn10punctuated4PairRNtNtB8_8lifetime8LifetimeRNtNtB8_5token4PlusE3End0B8_, symObjAddr: 0x11628, symBinAddr: 0x495BC, symSize: 0x1C }
  - { offset: 0xA97C8, size: 0x8, addend: 0x0, symName: __RNvXsN_NtCs6IAuOt8vWmF_3syn10punctuatedINtB5_10PunctuatedNtNtB7_3pat3PatNtNtB7_5token5CommaEINtNtNtCsfvfooZQ3Axs_4core3ops5index5IndexjE5indexB7_, symObjAddr: 0x11AC8, symBinAddr: 0x49A5C, symSize: 0x134 }
  - { offset: 0xA982D, size: 0x8, addend: 0x0, symName: __RNvXsN_NtCs6IAuOt8vWmF_3syn10punctuatedINtB5_10PunctuatedNtNtB7_4path11PathSegmentNtNtB7_5token7PathSepEINtNtNtCsfvfooZQ3Axs_4core3ops5index5IndexjE5indexB7_, symObjAddr: 0x11BFC, symBinAddr: 0x49B90, symSize: 0x134 }
  - { offset: 0xA989D, size: 0x8, addend: 0x0, symName: __RNvXNtNtCs6IAuOt8vWmF_3syn10punctuated8printingINtB4_10PunctuatedNtNtB6_2ty4TypeNtNtB6_5token5CommaENtNtCs2cqEZUIJimJ_5quote9to_tokens8ToTokens9to_tokensB6_, symObjAddr: 0x11D30, symBinAddr: 0x49CC4, symSize: 0x50 }
  - { offset: 0xA98E8, size: 0x8, addend: 0x0, symName: __RNvXNtNtCs6IAuOt8vWmF_3syn10punctuated8printingINtB4_10PunctuatedNtNtB6_2ty9BareFnArgNtNtB6_5token5CommaENtNtCs2cqEZUIJimJ_5quote9to_tokens8ToTokens9to_tokensB6_, symObjAddr: 0x11D80, symBinAddr: 0x49D14, symSize: 0x50 }
  - { offset: 0xA9933, size: 0x8, addend: 0x0, symName: __RNvXNtNtCs6IAuOt8vWmF_3syn10punctuated8printingINtB4_10PunctuatedNtNtB6_3pat3PatNtNtB6_5token2OrENtNtCs2cqEZUIJimJ_5quote9to_tokens8ToTokens9to_tokensB6_, symObjAddr: 0x11DD0, symBinAddr: 0x49D64, symSize: 0x50 }
  - { offset: 0xA997E, size: 0x8, addend: 0x0, symName: __RNvXNtNtCs6IAuOt8vWmF_3syn10punctuated8printingINtB4_10PunctuatedNtNtB6_3pat3PatNtNtB6_5token5CommaENtNtCs2cqEZUIJimJ_5quote9to_tokens8ToTokens9to_tokensB6_, symObjAddr: 0x11E20, symBinAddr: 0x49DB4, symSize: 0x50 }
  - { offset: 0xA99C9, size: 0x8, addend: 0x0, symName: __RNvXNtNtCs6IAuOt8vWmF_3syn10punctuated8printingINtB4_10PunctuatedNtNtB6_3pat8FieldPatNtNtB6_5token5CommaENtNtCs2cqEZUIJimJ_5quote9to_tokens8ToTokens9to_tokensB6_, symObjAddr: 0x11E70, symBinAddr: 0x49E04, symSize: 0x50 }
  - { offset: 0xA9A14, size: 0x8, addend: 0x0, symName: __RNvXNtNtCs6IAuOt8vWmF_3syn10punctuated8printingINtB4_10PunctuatedNtNtB6_4data5FieldNtNtB6_5token5CommaENtNtCs2cqEZUIJimJ_5quote9to_tokens8ToTokens9to_tokensB6_, symObjAddr: 0x11EC0, symBinAddr: 0x49E54, symSize: 0x50 }
  - { offset: 0xA9A5F, size: 0x8, addend: 0x0, symName: __RNvXNtNtCs6IAuOt8vWmF_3syn10punctuated8printingINtB4_10PunctuatedNtNtB6_4data7VariantNtNtB6_5token5CommaENtNtCs2cqEZUIJimJ_5quote9to_tokens8ToTokens9to_tokensB6_, symObjAddr: 0x11F10, symBinAddr: 0x49EA4, symSize: 0x50 }
  - { offset: 0xA9AAA, size: 0x8, addend: 0x0, symName: __RNvXNtNtCs6IAuOt8vWmF_3syn10punctuated8printingINtB4_10PunctuatedNtNtB6_4expr10FieldValueNtNtB6_5token5CommaENtNtCs2cqEZUIJimJ_5quote9to_tokens8ToTokens9to_tokensB6_, symObjAddr: 0x11F60, symBinAddr: 0x49EF4, symSize: 0x50 }
  - { offset: 0xA9AF5, size: 0x8, addend: 0x0, symName: __RNvXNtNtCs6IAuOt8vWmF_3syn10punctuated8printingINtB4_10PunctuatedNtNtB6_4expr4ExprNtNtB6_5token5CommaENtNtCs2cqEZUIJimJ_5quote9to_tokens8ToTokens9to_tokensB6_, symObjAddr: 0x11FB0, symBinAddr: 0x49F44, symSize: 0x50 }
  - { offset: 0xA9B40, size: 0x8, addend: 0x0, symName: __RNvXNtNtCs6IAuOt8vWmF_3syn10punctuated8printingINtB4_10PunctuatedNtNtB6_4item5FnArgNtNtB6_5token5CommaENtNtCs2cqEZUIJimJ_5quote9to_tokens8ToTokens9to_tokensB6_, symObjAddr: 0x12000, symBinAddr: 0x49F94, symSize: 0x50 }
  - { offset: 0xA9B8B, size: 0x8, addend: 0x0, symName: __RNvXNtNtCs6IAuOt8vWmF_3syn10punctuated8printingINtB4_10PunctuatedNtNtB6_4item7UseTreeNtNtB6_5token5CommaENtNtCs2cqEZUIJimJ_5quote9to_tokens8ToTokens9to_tokensB6_, symObjAddr: 0x12050, symBinAddr: 0x49FE4, symSize: 0x50 }
  - { offset: 0xA9BD6, size: 0x8, addend: 0x0, symName: __RNvXNtNtCs6IAuOt8vWmF_3syn10punctuated8printingINtB4_10PunctuatedNtNtB6_8generics12GenericParamNtNtB6_5token5CommaENtNtCs2cqEZUIJimJ_5quote9to_tokens8ToTokens9to_tokensB6_, symObjAddr: 0x120A0, symBinAddr: 0x4A034, symSize: 0x50 }
  - { offset: 0xA9C21, size: 0x8, addend: 0x0, symName: __RNvXNtNtCs6IAuOt8vWmF_3syn10punctuated8printingINtB4_10PunctuatedNtNtB6_8generics14TypeParamBoundNtNtB6_5token4PlusENtNtCs2cqEZUIJimJ_5quote9to_tokens8ToTokens9to_tokensB6_, symObjAddr: 0x120F0, symBinAddr: 0x4A084, symSize: 0x50 }
  - { offset: 0xA9C6C, size: 0x8, addend: 0x0, symName: __RNvXNtNtCs6IAuOt8vWmF_3syn10punctuated8printingINtB4_10PunctuatedNtNtB6_8generics14WherePredicateNtNtB6_5token5CommaENtNtCs2cqEZUIJimJ_5quote9to_tokens8ToTokens9to_tokensB6_, symObjAddr: 0x12140, symBinAddr: 0x4A0D4, symSize: 0x50 }
  - { offset: 0xA9CB7, size: 0x8, addend: 0x0, symName: __RNvXNtNtCs6IAuOt8vWmF_3syn10punctuated8printingINtB4_10PunctuatedNtNtB6_8lifetime8LifetimeNtNtB6_5token4PlusENtNtCs2cqEZUIJimJ_5quote9to_tokens8ToTokens9to_tokensB6_, symObjAddr: 0x12190, symBinAddr: 0x4A124, symSize: 0x50 }
  - { offset: 0xA9D08, size: 0x8, addend: 0x0, symName: __RNvXs_NtNtCs6IAuOt8vWmF_3syn10punctuated8printingINtB6_4PairRNtNtB8_2ty4TypeRNtNtB8_5token5CommaENtNtCs2cqEZUIJimJ_5quote9to_tokens8ToTokens9to_tokensB8_, symObjAddr: 0x121E0, symBinAddr: 0x4A174, symSize: 0xB4 }
  - { offset: 0xA9D97, size: 0x8, addend: 0x0, symName: __RNvXs_NtNtCs6IAuOt8vWmF_3syn10punctuated8printingINtB6_4PairRNtNtB8_2ty9BareFnArgRNtNtB8_5token5CommaENtNtCs2cqEZUIJimJ_5quote9to_tokens8ToTokens9to_tokensB8_, symObjAddr: 0x12294, symBinAddr: 0x4A228, symSize: 0xB4 }
  - { offset: 0xA9E26, size: 0x8, addend: 0x0, symName: __RNvXs_NtNtCs6IAuOt8vWmF_3syn10punctuated8printingINtB6_4PairRNtNtB8_3pat3PatRNtNtB8_5token2OrENtNtCs2cqEZUIJimJ_5quote9to_tokens8ToTokens9to_tokensB8_, symObjAddr: 0x12348, symBinAddr: 0x4A2DC, symSize: 0xB4 }
  - { offset: 0xA9EB5, size: 0x8, addend: 0x0, symName: __RNvXs_NtNtCs6IAuOt8vWmF_3syn10punctuated8printingINtB6_4PairRNtNtB8_3pat3PatRNtNtB8_5token5CommaENtNtCs2cqEZUIJimJ_5quote9to_tokens8ToTokens9to_tokensB8_, symObjAddr: 0x123FC, symBinAddr: 0x4A390, symSize: 0xB4 }
  - { offset: 0xA9F44, size: 0x8, addend: 0x0, symName: __RNvXs_NtNtCs6IAuOt8vWmF_3syn10punctuated8printingINtB6_4PairRNtNtB8_3pat8FieldPatRNtNtB8_5token5CommaENtNtCs2cqEZUIJimJ_5quote9to_tokens8ToTokens9to_tokensB8_, symObjAddr: 0x124B0, symBinAddr: 0x4A444, symSize: 0xB4 }
  - { offset: 0xA9FD3, size: 0x8, addend: 0x0, symName: __RNvXs_NtNtCs6IAuOt8vWmF_3syn10punctuated8printingINtB6_4PairRNtNtB8_4data5FieldRNtNtB8_5token5CommaENtNtCs2cqEZUIJimJ_5quote9to_tokens8ToTokens9to_tokensB8_, symObjAddr: 0x12564, symBinAddr: 0x4A4F8, symSize: 0xB4 }
  - { offset: 0xAA062, size: 0x8, addend: 0x0, symName: __RNvXs_NtNtCs6IAuOt8vWmF_3syn10punctuated8printingINtB6_4PairRNtNtB8_4data7VariantRNtNtB8_5token5CommaENtNtCs2cqEZUIJimJ_5quote9to_tokens8ToTokens9to_tokensB8_, symObjAddr: 0x12618, symBinAddr: 0x4A5AC, symSize: 0xB4 }
  - { offset: 0xAA0F1, size: 0x8, addend: 0x0, symName: __RNvXs_NtNtCs6IAuOt8vWmF_3syn10punctuated8printingINtB6_4PairRNtNtB8_4expr10FieldValueRNtNtB8_5token5CommaENtNtCs2cqEZUIJimJ_5quote9to_tokens8ToTokens9to_tokensB8_, symObjAddr: 0x126CC, symBinAddr: 0x4A660, symSize: 0xB4 }
  - { offset: 0xAA180, size: 0x8, addend: 0x0, symName: __RNvXs_NtNtCs6IAuOt8vWmF_3syn10punctuated8printingINtB6_4PairRNtNtB8_4expr4ExprRNtNtB8_5token5CommaENtNtCs2cqEZUIJimJ_5quote9to_tokens8ToTokens9to_tokensB8_, symObjAddr: 0x12780, symBinAddr: 0x4A714, symSize: 0xB4 }
  - { offset: 0xAA20F, size: 0x8, addend: 0x0, symName: __RNvXs_NtNtCs6IAuOt8vWmF_3syn10punctuated8printingINtB6_4PairRNtNtB8_4item5FnArgRNtNtB8_5token5CommaENtNtCs2cqEZUIJimJ_5quote9to_tokens8ToTokens9to_tokensB8_, symObjAddr: 0x12834, symBinAddr: 0x4A7C8, symSize: 0xB4 }
  - { offset: 0xAA29E, size: 0x8, addend: 0x0, symName: __RNvXs_NtNtCs6IAuOt8vWmF_3syn10punctuated8printingINtB6_4PairRNtNtB8_4item7UseTreeRNtNtB8_5token5CommaENtNtCs2cqEZUIJimJ_5quote9to_tokens8ToTokens9to_tokensB8_, symObjAddr: 0x128E8, symBinAddr: 0x4A87C, symSize: 0xB4 }
  - { offset: 0xAA32D, size: 0x8, addend: 0x0, symName: __RNvXs_NtNtCs6IAuOt8vWmF_3syn10punctuated8printingINtB6_4PairRNtNtB8_4path15GenericArgumentRNtNtB8_5token5CommaENtNtCs2cqEZUIJimJ_5quote9to_tokens8ToTokens9to_tokensB8_, symObjAddr: 0x1299C, symBinAddr: 0x4A930, symSize: 0xB4 }
  - { offset: 0xAA3BC, size: 0x8, addend: 0x0, symName: __RNvXs_NtNtCs6IAuOt8vWmF_3syn10punctuated8printingINtB6_4PairRNtNtB8_8generics12GenericParamRNtNtB8_5token5CommaENtNtCs2cqEZUIJimJ_5quote9to_tokens8ToTokens9to_tokensB8_, symObjAddr: 0x12A50, symBinAddr: 0x4A9E4, symSize: 0xB4 }
  - { offset: 0xAA44B, size: 0x8, addend: 0x0, symName: __RNvXs_NtNtCs6IAuOt8vWmF_3syn10punctuated8printingINtB6_4PairRNtNtB8_8generics13CapturedParamRNtNtB8_5token5CommaENtNtCs2cqEZUIJimJ_5quote9to_tokens8ToTokens9to_tokensB8_, symObjAddr: 0x12B04, symBinAddr: 0x4AA98, symSize: 0xB4 }
  - { offset: 0xAA4DA, size: 0x8, addend: 0x0, symName: __RNvXs_NtNtCs6IAuOt8vWmF_3syn10punctuated8printingINtB6_4PairRNtNtB8_8generics14TypeParamBoundRNtNtB8_5token4PlusENtNtCs2cqEZUIJimJ_5quote9to_tokens8ToTokens9to_tokensB8_, symObjAddr: 0x12BB8, symBinAddr: 0x4AB4C, symSize: 0xB4 }
  - { offset: 0xAA569, size: 0x8, addend: 0x0, symName: __RNvXs_NtNtCs6IAuOt8vWmF_3syn10punctuated8printingINtB6_4PairRNtNtB8_8generics14WherePredicateRNtNtB8_5token5CommaENtNtCs2cqEZUIJimJ_5quote9to_tokens8ToTokens9to_tokensB8_, symObjAddr: 0x12C6C, symBinAddr: 0x4AC00, symSize: 0xB4 }
  - { offset: 0xAA5F8, size: 0x8, addend: 0x0, symName: __RNvXs_NtNtCs6IAuOt8vWmF_3syn10punctuated8printingINtB6_4PairRNtNtB8_8lifetime8LifetimeRNtNtB8_5token4PlusENtNtCs2cqEZUIJimJ_5quote9to_tokens8ToTokens9to_tokensB8_, symObjAddr: 0x12D20, symBinAddr: 0x4ACB4, symSize: 0xB4 }
  - { offset: 0xAB835, size: 0x8, addend: 0x0, symName: __RNvXsq_NtCs6IAuOt8vWmF_3syn5tokenNtNtB7_8lifetime8LifetimeNtB5_5Token4peek, symObjAddr: 0x13338, symBinAddr: 0x4ADA0, symSize: 0x88 }
  - { offset: 0xAB861, size: 0x8, addend: 0x0, symName: __RNvXsq_NtCs6IAuOt8vWmF_3syn5tokenNtNtB7_8lifetime8LifetimeNtB5_5Token7display, symObjAddr: 0x133C0, symBinAddr: 0x4AE28, symSize: 0x24 }
  - { offset: 0xABC39, size: 0x8, addend: 0x0, symName: __RNvXs0_NtCs6IAuOt8vWmF_3syn8lifetimeNtB5_8LifetimeNtNtCsfvfooZQ3Axs_4core5clone5Clone5clone, symObjAddr: 0x3030, symBinAddr: 0x3FCAC, symSize: 0x60 }
  - { offset: 0xABC70, size: 0x8, addend: 0x0, symName: __RNvXNtNtCs6IAuOt8vWmF_3syn8lifetime7parsingNtB4_8LifetimeNtNtB6_5parse5Parse5parse, symObjAddr: 0x314C, symBinAddr: 0x3FD0C, symSize: 0x34 }
  - { offset: 0xABCA8, size: 0x8, addend: 0x0, symName: __RNvXNtNtCs6IAuOt8vWmF_3syn8lifetime8printingNtB4_8LifetimeNtNtCs2cqEZUIJimJ_5quote9to_tokens8ToTokens9to_tokens, symObjAddr: 0x3180, symBinAddr: 0x3FD40, symSize: 0x90 }
  - { offset: 0xAFBFE, size: 0x8, addend: 0x0, symName: __RINvCs6IAuOt8vWmF_3syn9parse_strNtNtB2_4expr5IndexEB2_, symObjAddr: 0x12DD4, symBinAddr: 0x4AD68, symSize: 0x38 }
  - { offset: 0xB06E7, size: 0x8, addend: 0x0, symName: __RNvYINtNtCse1nGBsou5OW_5alloc2rc7RcInnerINtNtCsfvfooZQ3Axs_4core4cell4CellNtNtCs6IAuOt8vWmF_3syn5parse10UnexpectedEENtB5_10RcInnerPtr10inc_strongB1e_, symObjAddr: 0x2C3C, symBinAddr: 0x3FBD8, symSize: 0x94 }
  - { offset: 0xB081F, size: 0x8, addend: 0x0, symName: __RNvYINtNtCse1nGBsou5OW_5alloc2rc7RcInnerINtNtCsfvfooZQ3Axs_4core4cell4CellNtNtCs6IAuOt8vWmF_3syn5parse10UnexpectedEENtB5_10RcInnerPtr6strongB1e_, symObjAddr: 0x2CD0, symBinAddr: 0x3FC6C, symSize: 0x28 }
  - { offset: 0xB087A, size: 0x8, addend: 0x0, symName: __RNvXs17_NtCse1nGBsou5OW_5alloc2rcINtB6_4WeakINtNtCsfvfooZQ3Axs_4core4cell4CellNtNtCs6IAuOt8vWmF_3syn5parse10UnexpectedERNtNtB8_5alloc6GlobalENtNtNtBL_3ops4drop4Drop4dropB1i_, symObjAddr: 0x924, symBinAddr: 0x3ED9C, symSize: 0x148 }
  - { offset: 0xB0AEF, size: 0x8, addend: 0x0, symName: __RNvXsu_NtCse1nGBsou5OW_5alloc2rcINtB5_2RcINtNtCsfvfooZQ3Axs_4core4cell4CellNtNtCs6IAuOt8vWmF_3syn5parse10UnexpectedEENtNtNtBI_3ops4drop4Drop4dropB1f_, symObjAddr: 0xDB0, symBinAddr: 0x3EFE4, symSize: 0x88 }
  - { offset: 0xB0CD2, size: 0x8, addend: 0x0, symName: __RNvXsv_NtCse1nGBsou5OW_5alloc2rcINtB5_2RcINtNtCsfvfooZQ3Axs_4core4cell4CellNtNtCs6IAuOt8vWmF_3syn5parse10UnexpectedEENtNtBI_5clone5Clone5cloneB1f_, symObjAddr: 0xE38, symBinAddr: 0x3F06C, symSize: 0x48 }
  - { offset: 0xB6CD1, size: 0x8, addend: 0x0, symName: __RNvMNtCsfvfooZQ3Axs_4core5sliceSTNtNtCs6IAuOt8vWmF_3syn8lifetime8LifetimeNtNtBz_5token4PlusE4iterBz_, symObjAddr: 0x4D8, symBinAddr: 0x3E994, symSize: 0x28 }
  - { offset: 0xB6DED, size: 0x8, addend: 0x0, symName: __RNvXs9_NtNtNtCsfvfooZQ3Axs_4core4iter8adapters4fuseINtB5_4FuseINtNtB7_3map3MapIBZ_IBZ_INtNtNtBb_5slice4iter4IterNtNtCs6IAuOt8vWmF_3syn5error12ErrorMessageENvMs_B1O_B1M_16to_compile_errorENCINvXs7_Cs3cP53eQoTwO_11proc_macro2NtB38_11TokenStreamINtNtNtB9_6traits7collect12FromIteratorB3z_E9from_iterB1i_E0ENCINvXs6_NtB38_3impNtB50_11TokenStreamIB3T_B5a_E9from_iterB1e_Es_0EEINtB5_8FuseImplBY_E4nextB1Q_, symObjAddr: 0xCF4, symBinAddr: 0x3EF28, symSize: 0x80 }
  - { offset: 0xB6EE8, size: 0x8, addend: 0x0, symName: __RINvYINtNtCs6IAuOt8vWmF_3syn10punctuated4IterNtNtB8_4path11PathSegmentENtNtNtNtCsfvfooZQ3Axs_4core4iter6traits8iterator8Iterator3allNCNvMs5_NtBJ_7parsingNtBJ_4Path12is_mod_style0EB8_, symObjAddr: 0x368, symBinAddr: 0x3E824, symSize: 0x3C }
  - { offset: 0xB6F37, size: 0x8, addend: 0x0, symName: __RINvYINtNtCs6IAuOt8vWmF_3syn10punctuated4IterNtNtB8_4path11PathSegmentENtNtNtNtCsfvfooZQ3Axs_4core4iter6traits8iterator8Iterator8try_folduNCINvNvB17_3all5checkRBH_NCNvMs5_NtBJ_7parsingNtBJ_4Path12is_mod_style0E0INtNtNtB1f_3ops12control_flow11ControlFlowuEEB8_, symObjAddr: 0x3A4, symBinAddr: 0x3E860, symSize: 0x134 }
  - { offset: 0xB6FF1, size: 0x8, addend: 0x0, symName: __RNvYINtNtCs6IAuOt8vWmF_3syn10punctuated11PrivateIterNtNtB7_4path11PathSegmentNtNtB7_5token7PathSepENtNtNtNtCsfvfooZQ3Axs_4core4iter6traits8iterator8Iterator10advance_byB7_, symObjAddr: 0x17A8, symBinAddr: 0x3F27C, symSize: 0x134 }
  - { offset: 0xB7147, size: 0x8, addend: 0x0, symName: __RNvYINtNtCs6IAuOt8vWmF_3syn10punctuated11PrivateIterNtNtB7_4path11PathSegmentNtNtB7_5token7PathSepENtNtNtNtCsfvfooZQ3Axs_4core4iter6traits8iterator8Iterator3nthB7_, symObjAddr: 0x18DC, symBinAddr: 0x3F3B0, symSize: 0x80 }
  - { offset: 0xB7213, size: 0x8, addend: 0x0, symName: __RNvYINtNtCs6IAuOt8vWmF_3syn10punctuated11PrivateIterNtNtB7_4path11PathSegmentNtNtB7_5token7PathSepENtNtNtNtCsfvfooZQ3Axs_4core4iter6traits8iterator8Iterator9size_hintB7_, symObjAddr: 0x195C, symBinAddr: 0x3F430, symSize: 0x34 }
  - { offset: 0xB7248, size: 0x8, addend: 0x0, symName: __RNvYINtNtCs6IAuOt8vWmF_3syn10punctuated11PrivateIterNtNtB7_8generics14TypeParamBoundNtNtB7_5token4PlusENtNtNtNtCsfvfooZQ3Axs_4core4iter6traits8iterator8Iterator10advance_byB7_, symObjAddr: 0x1F08, symBinAddr: 0x3F62C, symSize: 0x134 }
  - { offset: 0xB739E, size: 0x8, addend: 0x0, symName: __RNvYINtNtCs6IAuOt8vWmF_3syn10punctuated11PrivateIterNtNtB7_8generics14TypeParamBoundNtNtB7_5token4PlusENtNtNtNtCsfvfooZQ3Axs_4core4iter6traits8iterator8Iterator3nthB7_, symObjAddr: 0x203C, symBinAddr: 0x3F760, symSize: 0x80 }
  - { offset: 0xB746A, size: 0x8, addend: 0x0, symName: __RNvYINtNtCs6IAuOt8vWmF_3syn10punctuated11PrivateIterNtNtB7_8generics14TypeParamBoundNtNtB7_5token4PlusENtNtNtNtCsfvfooZQ3Axs_4core4iter6traits8iterator8Iterator9size_hintB7_, symObjAddr: 0x20BC, symBinAddr: 0x3F7E0, symSize: 0x34 }
  - { offset: 0xB749F, size: 0x8, addend: 0x0, symName: __RNvYINtNtCs6IAuOt8vWmF_3syn10punctuated14PrivateIterMutNtNtB7_4path11PathSegmentNtNtB7_5token7PathSepENtNtNtNtCsfvfooZQ3Axs_4core4iter6traits8iterator8Iterator10advance_byB7_, symObjAddr: 0x2668, symBinAddr: 0x3F9DC, symSize: 0x134 }
  - { offset: 0xB75F5, size: 0x8, addend: 0x0, symName: __RNvYINtNtCs6IAuOt8vWmF_3syn10punctuated14PrivateIterMutNtNtB7_4path11PathSegmentNtNtB7_5token7PathSepENtNtNtNtCsfvfooZQ3Axs_4core4iter6traits8iterator8Iterator3nthB7_, symObjAddr: 0x279C, symBinAddr: 0x3FB10, symSize: 0x80 }
  - { offset: 0xB76C1, size: 0x8, addend: 0x0, symName: __RNvYINtNtCs6IAuOt8vWmF_3syn10punctuated14PrivateIterMutNtNtB7_4path11PathSegmentNtNtB7_5token7PathSepENtNtNtNtCsfvfooZQ3Axs_4core4iter6traits8iterator8Iterator9size_hintB7_, symObjAddr: 0x281C, symBinAddr: 0x3FB90, symSize: 0x34 }
  - { offset: 0xB76F6, size: 0x8, addend: 0x0, symName: __RNvYINtNtCs6IAuOt8vWmF_3syn10punctuated5PairsNtNtB7_4path11PathSegmentNtNtB7_5token7PathSepENtNtNtNtCsfvfooZQ3Axs_4core4iter6traits8iterator8Iterator6by_refB7_, symObjAddr: 0x2C28, symBinAddr: 0x3FBC4, symSize: 0x14 }
  - { offset: 0xB772D, size: 0x8, addend: 0x0, symName: __RNvYQINtNtCs6IAuOt8vWmF_3syn10punctuated5PairsNtNtB8_4path11PathSegmentNtNtB8_5token7PathSepENtNtNtNtCsfvfooZQ3Axs_4core4iter6traits8iterator8Iterator4takeB8_, symObjAddr: 0x2D28, symBinAddr: 0x3FC94, symSize: 0x18 }
  - { offset: 0xB7798, size: 0x8, addend: 0x0, symName: __RNvXNtNtNtCsfvfooZQ3Axs_4core4iter6traits8iteratorQINtNtCs6IAuOt8vWmF_3syn10punctuated5PairsNtNtBS_4path11PathSegmentNtNtBS_5token7PathSepENtB2_8Iterator4nextBS_, symObjAddr: 0x8FC, symBinAddr: 0x3ED74, symSize: 0x28 }
  - { offset: 0xB77DB, size: 0x8, addend: 0x0, symName: __RNvXNtNtNtCsfvfooZQ3Axs_4core4iter6traits7collectINtNtCs6IAuOt8vWmF_3syn10punctuated5PairsNtNtBQ_2ty4TypeNtNtBQ_5token5CommaENtB2_12IntoIterator9into_iterBQ_, symObjAddr: 0x71C, symBinAddr: 0x3EB94, symSize: 0x18 }
  - { offset: 0xB7812, size: 0x8, addend: 0x0, symName: __RNvXNtNtNtCsfvfooZQ3Axs_4core4iter6traits7collectINtNtCs6IAuOt8vWmF_3syn10punctuated5PairsNtNtBQ_2ty9BareFnArgNtNtBQ_5token5CommaENtB2_12IntoIterator9into_iterBQ_, symObjAddr: 0x734, symBinAddr: 0x3EBAC, symSize: 0x18 }
  - { offset: 0xB7849, size: 0x8, addend: 0x0, symName: __RNvXNtNtNtCsfvfooZQ3Axs_4core4iter6traits7collectINtNtCs6IAuOt8vWmF_3syn10punctuated5PairsNtNtBQ_3pat3PatNtNtBQ_5token2OrENtB2_12IntoIterator9into_iterBQ_, symObjAddr: 0x74C, symBinAddr: 0x3EBC4, symSize: 0x18 }
  - { offset: 0xB7880, size: 0x8, addend: 0x0, symName: __RNvXNtNtNtCsfvfooZQ3Axs_4core4iter6traits7collectINtNtCs6IAuOt8vWmF_3syn10punctuated5PairsNtNtBQ_3pat3PatNtNtBQ_5token5CommaENtB2_12IntoIterator9into_iterBQ_, symObjAddr: 0x764, symBinAddr: 0x3EBDC, symSize: 0x18 }
  - { offset: 0xB78B7, size: 0x8, addend: 0x0, symName: __RNvXNtNtNtCsfvfooZQ3Axs_4core4iter6traits7collectINtNtCs6IAuOt8vWmF_3syn10punctuated5PairsNtNtBQ_3pat8FieldPatNtNtBQ_5token5CommaENtB2_12IntoIterator9into_iterBQ_, symObjAddr: 0x77C, symBinAddr: 0x3EBF4, symSize: 0x18 }
  - { offset: 0xB78EE, size: 0x8, addend: 0x0, symName: __RNvXNtNtNtCsfvfooZQ3Axs_4core4iter6traits7collectINtNtCs6IAuOt8vWmF_3syn10punctuated5PairsNtNtBQ_4data5FieldNtNtBQ_5token5CommaENtB2_12IntoIterator9into_iterBQ_, symObjAddr: 0x794, symBinAddr: 0x3EC0C, symSize: 0x18 }
  - { offset: 0xB7925, size: 0x8, addend: 0x0, symName: __RNvXNtNtNtCsfvfooZQ3Axs_4core4iter6traits7collectINtNtCs6IAuOt8vWmF_3syn10punctuated5PairsNtNtBQ_4data7VariantNtNtBQ_5token5CommaENtB2_12IntoIterator9into_iterBQ_, symObjAddr: 0x7AC, symBinAddr: 0x3EC24, symSize: 0x18 }
  - { offset: 0xB795C, size: 0x8, addend: 0x0, symName: __RNvXNtNtNtCsfvfooZQ3Axs_4core4iter6traits7collectINtNtCs6IAuOt8vWmF_3syn10punctuated5PairsNtNtBQ_4expr10FieldValueNtNtBQ_5token5CommaENtB2_12IntoIterator9into_iterBQ_, symObjAddr: 0x7C4, symBinAddr: 0x3EC3C, symSize: 0x18 }
  - { offset: 0xB7993, size: 0x8, addend: 0x0, symName: __RNvXNtNtNtCsfvfooZQ3Axs_4core4iter6traits7collectINtNtCs6IAuOt8vWmF_3syn10punctuated5PairsNtNtBQ_4expr4ExprNtNtBQ_5token5CommaENtB2_12IntoIterator9into_iterBQ_, symObjAddr: 0x7DC, symBinAddr: 0x3EC54, symSize: 0x18 }
  - { offset: 0xB79CA, size: 0x8, addend: 0x0, symName: __RNvXNtNtNtCsfvfooZQ3Axs_4core4iter6traits7collectINtNtCs6IAuOt8vWmF_3syn10punctuated5PairsNtNtBQ_4item5FnArgNtNtBQ_5token5CommaENtB2_12IntoIterator9into_iterBQ_, symObjAddr: 0x7F4, symBinAddr: 0x3EC6C, symSize: 0x18 }
  - { offset: 0xB7A01, size: 0x8, addend: 0x0, symName: __RNvXNtNtNtCsfvfooZQ3Axs_4core4iter6traits7collectINtNtCs6IAuOt8vWmF_3syn10punctuated5PairsNtNtBQ_4item7UseTreeNtNtBQ_5token5CommaENtB2_12IntoIterator9into_iterBQ_, symObjAddr: 0x80C, symBinAddr: 0x3EC84, symSize: 0x18 }
  - { offset: 0xB7A38, size: 0x8, addend: 0x0, symName: __RNvXNtNtNtCsfvfooZQ3Axs_4core4iter6traits7collectINtNtCs6IAuOt8vWmF_3syn10punctuated5PairsNtNtBQ_4path11PathSegmentNtNtBQ_5token7PathSepENtB2_12IntoIterator9into_iterBQ_, symObjAddr: 0x824, symBinAddr: 0x3EC9C, symSize: 0x18 }
  - { offset: 0xB7A6F, size: 0x8, addend: 0x0, symName: __RNvXNtNtNtCsfvfooZQ3Axs_4core4iter6traits7collectINtNtCs6IAuOt8vWmF_3syn10punctuated5PairsNtNtBQ_4path15GenericArgumentNtNtBQ_5token5CommaENtB2_12IntoIterator9into_iterBQ_, symObjAddr: 0x83C, symBinAddr: 0x3ECB4, symSize: 0x18 }
  - { offset: 0xB7AA6, size: 0x8, addend: 0x0, symName: __RNvXNtNtNtCsfvfooZQ3Axs_4core4iter6traits7collectINtNtCs6IAuOt8vWmF_3syn10punctuated5PairsNtNtBQ_8generics12GenericParamNtNtBQ_5token5CommaENtB2_12IntoIterator9into_iterBQ_, symObjAddr: 0x854, symBinAddr: 0x3ECCC, symSize: 0x18 }
  - { offset: 0xB7ADD, size: 0x8, addend: 0x0, symName: __RNvXNtNtNtCsfvfooZQ3Axs_4core4iter6traits7collectINtNtCs6IAuOt8vWmF_3syn10punctuated5PairsNtNtBQ_8generics13CapturedParamNtNtBQ_5token5CommaENtB2_12IntoIterator9into_iterBQ_, symObjAddr: 0x86C, symBinAddr: 0x3ECE4, symSize: 0x18 }
  - { offset: 0xB7B14, size: 0x8, addend: 0x0, symName: __RNvXNtNtNtCsfvfooZQ3Axs_4core4iter6traits7collectINtNtCs6IAuOt8vWmF_3syn10punctuated5PairsNtNtBQ_8generics14TypeParamBoundNtNtBQ_5token4PlusENtB2_12IntoIterator9into_iterBQ_, symObjAddr: 0x884, symBinAddr: 0x3ECFC, symSize: 0x18 }
  - { offset: 0xB7B4B, size: 0x8, addend: 0x0, symName: __RNvXNtNtNtCsfvfooZQ3Axs_4core4iter6traits7collectINtNtCs6IAuOt8vWmF_3syn10punctuated5PairsNtNtBQ_8generics14WherePredicateNtNtBQ_5token5CommaENtB2_12IntoIterator9into_iterBQ_, symObjAddr: 0x89C, symBinAddr: 0x3ED14, symSize: 0x18 }
  - { offset: 0xB7B82, size: 0x8, addend: 0x0, symName: __RNvXNtNtNtCsfvfooZQ3Axs_4core4iter6traits7collectINtNtCs6IAuOt8vWmF_3syn10punctuated5PairsNtNtBQ_8lifetime8LifetimeNtNtBQ_5token4PlusENtB2_12IntoIterator9into_iterBQ_, symObjAddr: 0x8B4, symBinAddr: 0x3ED2C, symSize: 0x18 }
  - { offset: 0xB7BB9, size: 0x8, addend: 0x0, symName: __RNvXNtNtNtCsfvfooZQ3Axs_4core4iter6traits7collectINtNtCs6IAuOt8vWmF_3syn10punctuated9IntoPairsNtNtBQ_4path11PathSegmentNtNtBQ_5token7PathSepENtB2_12IntoIterator9into_iterBQ_, symObjAddr: 0x8CC, symBinAddr: 0x3ED44, symSize: 0x30 }
  - { offset: 0xB7BFD, size: 0x8, addend: 0x0, symName: __RNvYINtNtCs6IAuOt8vWmF_3syn10punctuated11PrivateIterNtNtB7_4path11PathSegmentNtNtB7_5token7PathSepENtNtNtNtCsfvfooZQ3Axs_4core4iter6traits10exact_size17ExactSizeIterator8is_emptyB7_, symObjAddr: 0x15E0, symBinAddr: 0x3F0B4, symSize: 0x2C }
  - { offset: 0xB7C32, size: 0x8, addend: 0x0, symName: __RNvYINtNtCs6IAuOt8vWmF_3syn10punctuated11PrivateIterNtNtB7_8generics14TypeParamBoundNtNtB7_5token4PlusENtNtNtNtCsfvfooZQ3Axs_4core4iter6traits10exact_size17ExactSizeIterator8is_emptyB7_, symObjAddr: 0x1D40, symBinAddr: 0x3F464, symSize: 0x2C }
  - { offset: 0xB7C67, size: 0x8, addend: 0x0, symName: __RNvYINtNtCs6IAuOt8vWmF_3syn10punctuated14PrivateIterMutNtNtB7_4path11PathSegmentNtNtB7_5token7PathSepENtNtNtNtCsfvfooZQ3Axs_4core4iter6traits10exact_size17ExactSizeIterator8is_emptyB7_, symObjAddr: 0x24A0, symBinAddr: 0x3F814, symSize: 0x2C }
  - { offset: 0xB7CA8, size: 0x8, addend: 0x0, symName: __RNvYINtNtCs6IAuOt8vWmF_3syn10punctuated11PrivateIterNtNtB7_4path11PathSegmentNtNtB7_5token7PathSepENtNtNtNtCsfvfooZQ3Axs_4core4iter6traits12double_ended19DoubleEndedIterator15advance_back_byB7_, symObjAddr: 0x160C, symBinAddr: 0x3F0E0, symSize: 0x134 }
  - { offset: 0xB7DF6, size: 0x8, addend: 0x0, symName: __RNvYINtNtCs6IAuOt8vWmF_3syn10punctuated11PrivateIterNtNtB7_4path11PathSegmentNtNtB7_5token7PathSepENtNtNtNtCsfvfooZQ3Axs_4core4iter6traits12double_ended19DoubleEndedIterator8nth_backB7_, symObjAddr: 0x1740, symBinAddr: 0x3F214, symSize: 0x68 }
  - { offset: 0xB7E74, size: 0x8, addend: 0x0, symName: __RNvYINtNtCs6IAuOt8vWmF_3syn10punctuated11PrivateIterNtNtB7_8generics14TypeParamBoundNtNtB7_5token4PlusENtNtNtNtCsfvfooZQ3Axs_4core4iter6traits12double_ended19DoubleEndedIterator15advance_back_byB7_, symObjAddr: 0x1D6C, symBinAddr: 0x3F490, symSize: 0x134 }
  - { offset: 0xB7FC2, size: 0x8, addend: 0x0, symName: __RNvYINtNtCs6IAuOt8vWmF_3syn10punctuated11PrivateIterNtNtB7_8generics14TypeParamBoundNtNtB7_5token4PlusENtNtNtNtCsfvfooZQ3Axs_4core4iter6traits12double_ended19DoubleEndedIterator8nth_backB7_, symObjAddr: 0x1EA0, symBinAddr: 0x3F5C4, symSize: 0x68 }
  - { offset: 0xB8040, size: 0x8, addend: 0x0, symName: __RNvYINtNtCs6IAuOt8vWmF_3syn10punctuated14PrivateIterMutNtNtB7_4path11PathSegmentNtNtB7_5token7PathSepENtNtNtNtCsfvfooZQ3Axs_4core4iter6traits12double_ended19DoubleEndedIterator15advance_back_byB7_, symObjAddr: 0x24CC, symBinAddr: 0x3F840, symSize: 0x134 }
  - { offset: 0xB818E, size: 0x8, addend: 0x0, symName: __RNvYINtNtCs6IAuOt8vWmF_3syn10punctuated14PrivateIterMutNtNtB7_4path11PathSegmentNtNtB7_5token7PathSepENtNtNtNtCsfvfooZQ3Axs_4core4iter6traits12double_ended19DoubleEndedIterator8nth_backB7_, symObjAddr: 0x2600, symBinAddr: 0x3F974, symSize: 0x68 }
  - { offset: 0xB8611, size: 0x8, addend: 0x0, symName: __RNvXs7_NtNtCsfvfooZQ3Axs_4core3cmp5implsReNtB7_9PartialEq2eqCs6IAuOt8vWmF_3syn, symObjAddr: 0xC4C, symBinAddr: 0x3EEE4, symSize: 0x44 }
  - { offset: 0xB8666, size: 0x8, addend: 0x0, symName: __RNvXsX_NtNtCsfvfooZQ3Axs_4core3cmp5implshNtB7_3Ord3cmpCs6IAuOt8vWmF_3syn, symObjAddr: 0xD74, symBinAddr: 0x3EFA8, symSize: 0x3C }
  - { offset: 0xB89F8, size: 0x8, addend: 0x0, symName: __RNvNvMNtNtCsfvfooZQ3Axs_4core5alloc6layoutNtB4_6Layout25from_size_align_unchecked18precondition_checkCs6IAuOt8vWmF_3syn, symObjAddr: 0x648, symBinAddr: 0x3EB04, symSize: 0x50 }
  - { offset: 0xB9B2B, size: 0x8, addend: 0x0, symName: __RNvMs5_NtCse1nGBsou5OW_5alloc2rcINtB5_2RcINtNtCsfvfooZQ3Axs_4core4cell4CellNtNtCs6IAuOt8vWmF_3syn5parse10UnexpectedEE9drop_slowB1f_, symObjAddr: 0x500, symBinAddr: 0x3E9BC, symSize: 0x74 }
  - { offset: 0xB9BFC, size: 0x8, addend: 0x0, symName: __RNvMs6_NtCse1nGBsou5OW_5alloc2rcINtB5_2RcINtNtCsfvfooZQ3Axs_4core4cell4CellNtNtCs6IAuOt8vWmF_3syn5parse10UnexpectedEE3newB1f_, symObjAddr: 0x574, symBinAddr: 0x3EA30, symSize: 0xA8 }
  - { offset: 0xB9D44, size: 0x8, addend: 0x0, symName: __RNvMsd_NtCse1nGBsou5OW_5alloc2rcINtB5_2RcINtNtCsfvfooZQ3Axs_4core4cell4CellNtNtCs6IAuOt8vWmF_3syn5parse10UnexpectedEE6ptr_eqB1f_, symObjAddr: 0x61C, symBinAddr: 0x3EAD8, symSize: 0x2C }
  - { offset: 0xB9DAC, size: 0x8, addend: 0x0, symName: __RNvXNtCs2cqEZUIJimJ_5quote9to_tokensRNtNtCs6IAuOt8vWmF_3syn8lifetime8LifetimeNtB2_8ToTokens9to_tokensBD_, symObjAddr: 0x698, symBinAddr: 0x3EB54, symSize: 0x40 }
  - { offset: 0xBA6AA, size: 0x8, addend: 0x0, symName: __RNvMNtCs6IAuOt8vWmF_3syn10punctuatedINtB2_10PunctuatedNtNtB4_2ty4TypeNtNtB4_5token5CommaE3newB4_, symObjAddr: 0x3894, symBinAddr: 0x3FDD0, symSize: 0x54 }
  - { offset: 0xBA6D0, size: 0x8, addend: 0x0, symName: __RNvMNtCs6IAuOt8vWmF_3syn10punctuatedINtB2_10PunctuatedNtNtB4_2ty9BareFnArgNtNtB4_5token5CommaE3newB4_, symObjAddr: 0x38E8, symBinAddr: 0x3FE24, symSize: 0x54 }
  - { offset: 0xBA6F6, size: 0x8, addend: 0x0, symName: __RNvMNtCs6IAuOt8vWmF_3syn10punctuatedINtB2_10PunctuatedNtNtB4_3pat3PatNtNtB4_5token2OrE3newB4_, symObjAddr: 0x393C, symBinAddr: 0x3FE78, symSize: 0x54 }
  - { offset: 0xBA71C, size: 0x8, addend: 0x0, symName: __RNvMNtCs6IAuOt8vWmF_3syn10punctuatedINtB2_10PunctuatedNtNtB4_3pat3PatNtNtB4_5token5CommaE3newB4_, symObjAddr: 0x3990, symBinAddr: 0x3FECC, symSize: 0x54 }
  - { offset: 0xBA742, size: 0x8, addend: 0x0, symName: __RNvMNtCs6IAuOt8vWmF_3syn10punctuatedINtB2_10PunctuatedNtNtB4_3pat8FieldPatNtNtB4_5token5CommaE3newB4_, symObjAddr: 0x39E4, symBinAddr: 0x3FF20, symSize: 0x54 }
  - { offset: 0xBA768, size: 0x8, addend: 0x0, symName: __RNvMNtCs6IAuOt8vWmF_3syn10punctuatedINtB2_10PunctuatedNtNtB4_4data5FieldNtNtB4_5token5CommaE3newB4_, symObjAddr: 0x3A38, symBinAddr: 0x3FF74, symSize: 0x54 }
  - { offset: 0xBA78E, size: 0x8, addend: 0x0, symName: __RNvMNtCs6IAuOt8vWmF_3syn10punctuatedINtB2_10PunctuatedNtNtB4_4data7VariantNtNtB4_5token5CommaE3newB4_, symObjAddr: 0x3AE0, symBinAddr: 0x3FFC8, symSize: 0x54 }
  - { offset: 0xBA7B4, size: 0x8, addend: 0x0, symName: __RNvMNtCs6IAuOt8vWmF_3syn10punctuatedINtB2_10PunctuatedNtNtB4_4expr10FieldValueNtNtB4_5token5CommaE3newB4_, symObjAddr: 0x3B34, symBinAddr: 0x4001C, symSize: 0x54 }
  - { offset: 0xBA7DA, size: 0x8, addend: 0x0, symName: __RNvMNtCs6IAuOt8vWmF_3syn10punctuatedINtB2_10PunctuatedNtNtB4_4expr4ExprNtNtB4_5token5CommaE3newB4_, symObjAddr: 0x3B88, symBinAddr: 0x40070, symSize: 0x54 }
  - { offset: 0xBA800, size: 0x8, addend: 0x0, symName: __RNvMNtCs6IAuOt8vWmF_3syn10punctuatedINtB2_10PunctuatedNtNtB4_4item5FnArgNtNtB4_5token5CommaE3newB4_, symObjAddr: 0x3BDC, symBinAddr: 0x400C4, symSize: 0x54 }
  - { offset: 0xBA826, size: 0x8, addend: 0x0, symName: __RNvMNtCs6IAuOt8vWmF_3syn10punctuatedINtB2_10PunctuatedNtNtB4_4item7UseTreeNtNtB4_5token5CommaE3newB4_, symObjAddr: 0x3C30, symBinAddr: 0x40118, symSize: 0x54 }
  - { offset: 0xBA84C, size: 0x8, addend: 0x0, symName: __RNvMNtCs6IAuOt8vWmF_3syn10punctuatedINtB2_10PunctuatedNtNtB4_4path11PathSegmentNtNtB4_5token7PathSepE3newB4_, symObjAddr: 0x3C84, symBinAddr: 0x4016C, symSize: 0x54 }
  - { offset: 0xBA872, size: 0x8, addend: 0x0, symName: __RNvMNtCs6IAuOt8vWmF_3syn10punctuatedINtB2_10PunctuatedNtNtB4_4path15GenericArgumentNtNtB4_5token5CommaE3newB4_, symObjAddr: 0x3CD8, symBinAddr: 0x401C0, symSize: 0x54 }
  - { offset: 0xBA898, size: 0x8, addend: 0x0, symName: __RNvMNtCs6IAuOt8vWmF_3syn10punctuatedINtB2_10PunctuatedNtNtB4_8generics12GenericParamNtNtB4_5token5CommaE3newB4_, symObjAddr: 0x3D2C, symBinAddr: 0x40214, symSize: 0x54 }
  - { offset: 0xBA8BE, size: 0x8, addend: 0x0, symName: __RNvMNtCs6IAuOt8vWmF_3syn10punctuatedINtB2_10PunctuatedNtNtB4_8generics13CapturedParamNtNtB4_5token5CommaE3newB4_, symObjAddr: 0x3D80, symBinAddr: 0x40268, symSize: 0x54 }
  - { offset: 0xBA8E4, size: 0x8, addend: 0x0, symName: __RNvMNtCs6IAuOt8vWmF_3syn10punctuatedINtB2_10PunctuatedNtNtB4_8generics14TypeParamBoundNtNtB4_5token4PlusE3newB4_, symObjAddr: 0x3DD4, symBinAddr: 0x402BC, symSize: 0x54 }
  - { offset: 0xBA90A, size: 0x8, addend: 0x0, symName: __RNvMNtCs6IAuOt8vWmF_3syn10punctuatedINtB2_10PunctuatedNtNtB4_8generics14WherePredicateNtNtB4_5token5CommaE3newB4_, symObjAddr: 0x3E28, symBinAddr: 0x40310, symSize: 0x54 }
  - { offset: 0xBA930, size: 0x8, addend: 0x0, symName: __RNvMNtCs6IAuOt8vWmF_3syn10punctuatedINtB2_10PunctuatedNtNtB4_8lifetime8LifetimeNtNtB4_5token4PlusE3newB4_, symObjAddr: 0x3E7C, symBinAddr: 0x40364, symSize: 0x54 }
  - { offset: 0xBA963, size: 0x8, addend: 0x0, symName: __RNvMNtCs6IAuOt8vWmF_3syn10punctuatedINtB2_10PunctuatedNtNtB4_2ty4TypeNtNtB4_5token5CommaE8is_emptyB4_, symObjAddr: 0x3ED0, symBinAddr: 0x403B8, symSize: 0x74 }
  - { offset: 0xBA9A4, size: 0x8, addend: 0x0, symName: __RNvMNtCs6IAuOt8vWmF_3syn10punctuatedINtB2_10PunctuatedNtNtB4_2ty9BareFnArgNtNtB4_5token5CommaE8is_emptyB4_, symObjAddr: 0x3F44, symBinAddr: 0x4042C, symSize: 0x74 }
  - { offset: 0xBA9E5, size: 0x8, addend: 0x0, symName: __RNvMNtCs6IAuOt8vWmF_3syn10punctuatedINtB2_10PunctuatedNtNtB4_3pat3PatNtNtB4_5token5CommaE8is_emptyB4_, symObjAddr: 0x3FB8, symBinAddr: 0x404A0, symSize: 0x74 }
  - { offset: 0xBAA33, size: 0x8, addend: 0x0, symName: __RNvMNtCs6IAuOt8vWmF_3syn10punctuatedINtB2_10PunctuatedNtNtB4_4expr4ExprNtNtB4_5token5CommaE8is_emptyB4_, symObjAddr: 0x40A0, symBinAddr: 0x40514, symSize: 0x74 }
  - { offset: 0xBAA74, size: 0x8, addend: 0x0, symName: __RNvMNtCs6IAuOt8vWmF_3syn10punctuatedINtB2_10PunctuatedNtNtB4_4item5FnArgNtNtB4_5token5CommaE8is_emptyB4_, symObjAddr: 0x4114, symBinAddr: 0x40588, symSize: 0x74 }
  - { offset: 0xBAAB5, size: 0x8, addend: 0x0, symName: __RNvMNtCs6IAuOt8vWmF_3syn10punctuatedINtB2_10PunctuatedNtNtB4_4path11PathSegmentNtNtB4_5token7PathSepE8is_emptyB4_, symObjAddr: 0x4188, symBinAddr: 0x405FC, symSize: 0x74 }
  - { offset: 0xBAAF6, size: 0x8, addend: 0x0, symName: __RNvMNtCs6IAuOt8vWmF_3syn10punctuatedINtB2_10PunctuatedNtNtB4_4path15GenericArgumentNtNtB4_5token5CommaE8is_emptyB4_, symObjAddr: 0x41FC, symBinAddr: 0x40670, symSize: 0x74 }
  - { offset: 0xBAB37, size: 0x8, addend: 0x0, symName: __RNvMNtCs6IAuOt8vWmF_3syn10punctuatedINtB2_10PunctuatedNtNtB4_8generics12GenericParamNtNtB4_5token5CommaE8is_emptyB4_, symObjAddr: 0x4270, symBinAddr: 0x406E4, symSize: 0x74 }
  - { offset: 0xBAB78, size: 0x8, addend: 0x0, symName: __RNvMNtCs6IAuOt8vWmF_3syn10punctuatedINtB2_10PunctuatedNtNtB4_8generics14TypeParamBoundNtNtB4_5token4PlusE8is_emptyB4_, symObjAddr: 0x42E4, symBinAddr: 0x40758, symSize: 0x74 }
  - { offset: 0xBABB9, size: 0x8, addend: 0x0, symName: __RNvMNtCs6IAuOt8vWmF_3syn10punctuatedINtB2_10PunctuatedNtNtB4_8generics14WherePredicateNtNtB4_5token5CommaE8is_emptyB4_, symObjAddr: 0x4358, symBinAddr: 0x407CC, symSize: 0x74 }
  - { offset: 0xBABFA, size: 0x8, addend: 0x0, symName: __RNvMNtCs6IAuOt8vWmF_3syn10punctuatedINtB2_10PunctuatedNtNtB4_8lifetime8LifetimeNtNtB4_5token4PlusE8is_emptyB4_, symObjAddr: 0x43CC, symBinAddr: 0x40840, symSize: 0x74 }
  - { offset: 0xBAC2E, size: 0x8, addend: 0x0, symName: __RNvMNtCs6IAuOt8vWmF_3syn10punctuatedINtB2_10PunctuatedNtNtB4_2ty4TypeNtNtB4_5token5CommaE3lenB4_, symObjAddr: 0x4440, symBinAddr: 0x408B4, symSize: 0xA0 }
  - { offset: 0xBAC62, size: 0x8, addend: 0x0, symName: __RNvMNtCs6IAuOt8vWmF_3syn10punctuatedINtB2_10PunctuatedNtNtB4_3pat3PatNtNtB4_5token5CommaE3lenB4_, symObjAddr: 0x44E0, symBinAddr: 0x40954, symSize: 0xA0 }
  - { offset: 0xBAC96, size: 0x8, addend: 0x0, symName: __RNvMNtCs6IAuOt8vWmF_3syn10punctuatedINtB2_10PunctuatedNtNtB4_4expr4ExprNtNtB4_5token5CommaE3lenB4_, symObjAddr: 0x46C0, symBinAddr: 0x409F4, symSize: 0xA0 }
  - { offset: 0xBACCA, size: 0x8, addend: 0x0, symName: __RNvMNtCs6IAuOt8vWmF_3syn10punctuatedINtB2_10PunctuatedNtNtB4_4path11PathSegmentNtNtB4_5token7PathSepE3lenB4_, symObjAddr: 0x4760, symBinAddr: 0x40A94, symSize: 0xA0 }
  - { offset: 0xBACFE, size: 0x8, addend: 0x0, symName: __RNvMNtCs6IAuOt8vWmF_3syn10punctuatedINtB2_10PunctuatedNtNtB4_8generics14TypeParamBoundNtNtB4_5token4PlusE3lenB4_, symObjAddr: 0x4800, symBinAddr: 0x40B34, symSize: 0xA0 }
  - { offset: 0xBAD32, size: 0x8, addend: 0x0, symName: __RNvMNtCs6IAuOt8vWmF_3syn10punctuatedINtB2_10PunctuatedNtNtB4_4path11PathSegmentNtNtB4_5token7PathSepE4lastB4_, symObjAddr: 0x49A8, symBinAddr: 0x40BD4, symSize: 0x84 }
  - { offset: 0xBAD66, size: 0x8, addend: 0x0, symName: __RNvMNtCs6IAuOt8vWmF_3syn10punctuatedINtB2_10PunctuatedNtNtB4_8generics14TypeParamBoundNtNtB4_5token4PlusE4lastB4_, symObjAddr: 0x4A2C, symBinAddr: 0x40C58, symSize: 0x84 }
  - { offset: 0xBADA7, size: 0x8, addend: 0x0, symName: __RNvMNtCs6IAuOt8vWmF_3syn10punctuatedINtB2_10PunctuatedNtNtB4_4path11PathSegmentNtNtB4_5token7PathSepE8last_mutB4_, symObjAddr: 0x4AB0, symBinAddr: 0x40CDC, symSize: 0x84 }
  - { offset: 0xBAE44, size: 0x8, addend: 0x0, symName: __RNvMNtCs6IAuOt8vWmF_3syn10punctuatedINtB2_10PunctuatedNtNtB4_4path11PathSegmentNtNtB4_5token7PathSepE4iterB4_, symObjAddr: 0x4CC4, symBinAddr: 0x40D60, symSize: 0xC8 }
  - { offset: 0xBAEFE, size: 0x8, addend: 0x0, symName: __RNvMNtCs6IAuOt8vWmF_3syn10punctuatedINtB2_10PunctuatedNtNtB4_8generics14TypeParamBoundNtNtB4_5token4PlusE4iterB4_, symObjAddr: 0x4E54, symBinAddr: 0x40E28, symSize: 0xC8 }
  - { offset: 0xBAFDF, size: 0x8, addend: 0x0, symName: __RNvMNtCs6IAuOt8vWmF_3syn10punctuatedINtB2_10PunctuatedNtNtB4_4path11PathSegmentNtNtB4_5token7PathSepE8iter_mutB4_, symObjAddr: 0x4FE4, symBinAddr: 0x40EF0, symSize: 0xC8 }
  - { offset: 0xBB092, size: 0x8, addend: 0x0, symName: __RNvMNtCs6IAuOt8vWmF_3syn10punctuatedINtB2_10PunctuatedNtNtB4_2ty4TypeNtNtB4_5token5CommaE5pairsB4_, symObjAddr: 0x5174, symBinAddr: 0x40FB8, symSize: 0x74 }
  - { offset: 0xBB0ED, size: 0x8, addend: 0x0, symName: __RNvMNtCs6IAuOt8vWmF_3syn10punctuatedINtB2_10PunctuatedNtNtB4_2ty9BareFnArgNtNtB4_5token5CommaE5pairsB4_, symObjAddr: 0x51E8, symBinAddr: 0x4102C, symSize: 0x74 }
  - { offset: 0xBB155, size: 0x8, addend: 0x0, symName: __RNvMNtCs6IAuOt8vWmF_3syn10punctuatedINtB2_10PunctuatedNtNtB4_3pat3PatNtNtB4_5token2OrE5pairsB4_, symObjAddr: 0x525C, symBinAddr: 0x410A0, symSize: 0x74 }
  - { offset: 0xBB1A3, size: 0x8, addend: 0x0, symName: __RNvMNtCs6IAuOt8vWmF_3syn10punctuatedINtB2_10PunctuatedNtNtB4_3pat3PatNtNtB4_5token5CommaE5pairsB4_, symObjAddr: 0x52D0, symBinAddr: 0x41114, symSize: 0x74 }
  - { offset: 0xBB20B, size: 0x8, addend: 0x0, symName: __RNvMNtCs6IAuOt8vWmF_3syn10punctuatedINtB2_10PunctuatedNtNtB4_3pat8FieldPatNtNtB4_5token5CommaE5pairsB4_, symObjAddr: 0x5344, symBinAddr: 0x41188, symSize: 0x74 }
  - { offset: 0xBB23F, size: 0x8, addend: 0x0, symName: __RNvMNtCs6IAuOt8vWmF_3syn10punctuatedINtB2_10PunctuatedNtNtB4_4data5FieldNtNtB4_5token5CommaE5pairsB4_, symObjAddr: 0x53B8, symBinAddr: 0x411FC, symSize: 0x74 }
  - { offset: 0xBB2A7, size: 0x8, addend: 0x0, symName: __RNvMNtCs6IAuOt8vWmF_3syn10punctuatedINtB2_10PunctuatedNtNtB4_4data7VariantNtNtB4_5token5CommaE5pairsB4_, symObjAddr: 0x542C, symBinAddr: 0x41270, symSize: 0x74 }
  - { offset: 0xBB30F, size: 0x8, addend: 0x0, symName: __RNvMNtCs6IAuOt8vWmF_3syn10punctuatedINtB2_10PunctuatedNtNtB4_4expr10FieldValueNtNtB4_5token5CommaE5pairsB4_, symObjAddr: 0x54A0, symBinAddr: 0x412E4, symSize: 0x74 }
  - { offset: 0xBB36A, size: 0x8, addend: 0x0, symName: __RNvMNtCs6IAuOt8vWmF_3syn10punctuatedINtB2_10PunctuatedNtNtB4_4expr4ExprNtNtB4_5token5CommaE5pairsB4_, symObjAddr: 0x5514, symBinAddr: 0x41358, symSize: 0x74 }
  - { offset: 0xBB39E, size: 0x8, addend: 0x0, symName: __RNvMNtCs6IAuOt8vWmF_3syn10punctuatedINtB2_10PunctuatedNtNtB4_4item5FnArgNtNtB4_5token5CommaE5pairsB4_, symObjAddr: 0x5588, symBinAddr: 0x413CC, symSize: 0x74 }
  - { offset: 0xBB406, size: 0x8, addend: 0x0, symName: __RNvMNtCs6IAuOt8vWmF_3syn10punctuatedINtB2_10PunctuatedNtNtB4_4item7UseTreeNtNtB4_5token5CommaE5pairsB4_, symObjAddr: 0x55FC, symBinAddr: 0x41440, symSize: 0x74 }
  - { offset: 0xBB43A, size: 0x8, addend: 0x0, symName: __RNvMNtCs6IAuOt8vWmF_3syn10punctuatedINtB2_10PunctuatedNtNtB4_4path11PathSegmentNtNtB4_5token7PathSepE5pairsB4_, symObjAddr: 0x5670, symBinAddr: 0x414B4, symSize: 0x74 }
  - { offset: 0xBB495, size: 0x8, addend: 0x0, symName: __RNvMNtCs6IAuOt8vWmF_3syn10punctuatedINtB2_10PunctuatedNtNtB4_4path15GenericArgumentNtNtB4_5token5CommaE5pairsB4_, symObjAddr: 0x56E4, symBinAddr: 0x41528, symSize: 0x74 }
  - { offset: 0xBB4C9, size: 0x8, addend: 0x0, symName: __RNvMNtCs6IAuOt8vWmF_3syn10punctuatedINtB2_10PunctuatedNtNtB4_8generics12GenericParamNtNtB4_5token5CommaE5pairsB4_, symObjAddr: 0x5758, symBinAddr: 0x4159C, symSize: 0x74 }
  - { offset: 0xBB531, size: 0x8, addend: 0x0, symName: __RNvMNtCs6IAuOt8vWmF_3syn10punctuatedINtB2_10PunctuatedNtNtB4_8generics13CapturedParamNtNtB4_5token5CommaE5pairsB4_, symObjAddr: 0x57CC, symBinAddr: 0x41610, symSize: 0x74 }
  - { offset: 0xBB565, size: 0x8, addend: 0x0, symName: __RNvMNtCs6IAuOt8vWmF_3syn10punctuatedINtB2_10PunctuatedNtNtB4_8generics14TypeParamBoundNtNtB4_5token4PlusE5pairsB4_, symObjAddr: 0x5840, symBinAddr: 0x41684, symSize: 0x74 }
  - { offset: 0xBB5C0, size: 0x8, addend: 0x0, symName: __RNvMNtCs6IAuOt8vWmF_3syn10punctuatedINtB2_10PunctuatedNtNtB4_8generics14WherePredicateNtNtB4_5token5CommaE5pairsB4_, symObjAddr: 0x58B4, symBinAddr: 0x416F8, symSize: 0x74 }
  - { offset: 0xBB5F4, size: 0x8, addend: 0x0, symName: __RNvMNtCs6IAuOt8vWmF_3syn10punctuatedINtB2_10PunctuatedNtNtB4_8lifetime8LifetimeNtNtB4_5token4PlusE5pairsB4_, symObjAddr: 0x5928, symBinAddr: 0x4176C, symSize: 0x74 }
  - { offset: 0xBB628, size: 0x8, addend: 0x0, symName: __RNvMNtCs6IAuOt8vWmF_3syn10punctuatedINtB2_10PunctuatedNtNtB4_4path11PathSegmentNtNtB4_5token7PathSepE10into_pairsB4_, symObjAddr: 0x599C, symBinAddr: 0x417E0, symSize: 0x108 }
  - { offset: 0xBB66A, size: 0x8, addend: 0x0, symName: __RNvMNtCs6IAuOt8vWmF_3syn10punctuatedINtB2_10PunctuatedNtNtB4_2ty4TypeNtNtB4_5token5CommaE10push_valueB4_, symObjAddr: 0x5B3C, symBinAddr: 0x41980, symSize: 0x1B4 }
  - { offset: 0xBB6D8, size: 0x8, addend: 0x0, symName: __RNvMNtCs6IAuOt8vWmF_3syn10punctuatedINtB2_10PunctuatedNtNtB4_2ty9BareFnArgNtNtB4_5token5CommaE10push_valueB4_, symObjAddr: 0x5CF0, symBinAddr: 0x41B34, symSize: 0x1B4 }
  - { offset: 0xBB746, size: 0x8, addend: 0x0, symName: __RNvMNtCs6IAuOt8vWmF_3syn10punctuatedINtB2_10PunctuatedNtNtB4_3pat3PatNtNtB4_5token2OrE10push_valueB4_, symObjAddr: 0x5EA4, symBinAddr: 0x41CE8, symSize: 0x1B4 }
  - { offset: 0xBB7B4, size: 0x8, addend: 0x0, symName: __RNvMNtCs6IAuOt8vWmF_3syn10punctuatedINtB2_10PunctuatedNtNtB4_3pat3PatNtNtB4_5token5CommaE10push_valueB4_, symObjAddr: 0x6058, symBinAddr: 0x41E9C, symSize: 0x1B4 }
  - { offset: 0xBB822, size: 0x8, addend: 0x0, symName: __RNvMNtCs6IAuOt8vWmF_3syn10punctuatedINtB2_10PunctuatedNtNtB4_3pat8FieldPatNtNtB4_5token5CommaE10push_valueB4_, symObjAddr: 0x620C, symBinAddr: 0x42050, symSize: 0x1B4 }
  - { offset: 0xBB883, size: 0x8, addend: 0x0, symName: __RNvMNtCs6IAuOt8vWmF_3syn10punctuatedINtB2_10PunctuatedNtNtB4_4data5FieldNtNtB4_5token5CommaE10push_valueB4_, symObjAddr: 0x63C0, symBinAddr: 0x42204, symSize: 0x1B4 }
  - { offset: 0xBB8F1, size: 0x8, addend: 0x0, symName: __RNvMNtCs6IAuOt8vWmF_3syn10punctuatedINtB2_10PunctuatedNtNtB4_4data7VariantNtNtB4_5token5CommaE10push_valueB4_, symObjAddr: 0x6574, symBinAddr: 0x423B8, symSize: 0x1B4 }
  - { offset: 0xBB95F, size: 0x8, addend: 0x0, symName: __RNvMNtCs6IAuOt8vWmF_3syn10punctuatedINtB2_10PunctuatedNtNtB4_4expr10FieldValueNtNtB4_5token5CommaE10push_valueB4_, symObjAddr: 0x6728, symBinAddr: 0x4256C, symSize: 0x1B4 }
  - { offset: 0xBB9CD, size: 0x8, addend: 0x0, symName: __RNvMNtCs6IAuOt8vWmF_3syn10punctuatedINtB2_10PunctuatedNtNtB4_4expr4ExprNtNtB4_5token5CommaE10push_valueB4_, symObjAddr: 0x68DC, symBinAddr: 0x42720, symSize: 0x1B4 }
  - { offset: 0xBBA3B, size: 0x8, addend: 0x0, symName: __RNvMNtCs6IAuOt8vWmF_3syn10punctuatedINtB2_10PunctuatedNtNtB4_4item5FnArgNtNtB4_5token5CommaE10push_valueB4_, symObjAddr: 0x6A90, symBinAddr: 0x428D4, symSize: 0x1B4 }
  - { offset: 0xBBAA9, size: 0x8, addend: 0x0, symName: __RNvMNtCs6IAuOt8vWmF_3syn10punctuatedINtB2_10PunctuatedNtNtB4_4item7UseTreeNtNtB4_5token5CommaE10push_valueB4_, symObjAddr: 0x6C44, symBinAddr: 0x42A88, symSize: 0x1B4 }
  - { offset: 0xBBB0A, size: 0x8, addend: 0x0, symName: __RNvMNtCs6IAuOt8vWmF_3syn10punctuatedINtB2_10PunctuatedNtNtB4_4path11PathSegmentNtNtB4_5token7PathSepE10push_valueB4_, symObjAddr: 0x6DF8, symBinAddr: 0x42C3C, symSize: 0x1B4 }
  - { offset: 0xBBB78, size: 0x8, addend: 0x0, symName: __RNvMNtCs6IAuOt8vWmF_3syn10punctuatedINtB2_10PunctuatedNtNtB4_4path15GenericArgumentNtNtB4_5token5CommaE10push_valueB4_, symObjAddr: 0x6FAC, symBinAddr: 0x42DF0, symSize: 0x1B4 }
  - { offset: 0xBBBD9, size: 0x8, addend: 0x0, symName: __RNvMNtCs6IAuOt8vWmF_3syn10punctuatedINtB2_10PunctuatedNtNtB4_8generics12GenericParamNtNtB4_5token5CommaE10push_valueB4_, symObjAddr: 0x7160, symBinAddr: 0x42FA4, symSize: 0x1B4 }
  - { offset: 0xBBC47, size: 0x8, addend: 0x0, symName: __RNvMNtCs6IAuOt8vWmF_3syn10punctuatedINtB2_10PunctuatedNtNtB4_8generics13CapturedParamNtNtB4_5token5CommaE10push_valueB4_, symObjAddr: 0x7314, symBinAddr: 0x43158, symSize: 0x1AC }
  - { offset: 0xBBCB5, size: 0x8, addend: 0x0, symName: __RNvMNtCs6IAuOt8vWmF_3syn10punctuatedINtB2_10PunctuatedNtNtB4_8generics14TypeParamBoundNtNtB4_5token4PlusE10push_valueB4_, symObjAddr: 0x74C0, symBinAddr: 0x43304, symSize: 0x1B4 }
  - { offset: 0xBBD23, size: 0x8, addend: 0x0, symName: __RNvMNtCs6IAuOt8vWmF_3syn10punctuatedINtB2_10PunctuatedNtNtB4_8generics14WherePredicateNtNtB4_5token5CommaE10push_valueB4_, symObjAddr: 0x7674, symBinAddr: 0x434B8, symSize: 0x1B4 }
  - { offset: 0xBBD91, size: 0x8, addend: 0x0, symName: __RNvMNtCs6IAuOt8vWmF_3syn10punctuatedINtB2_10PunctuatedNtNtB4_8lifetime8LifetimeNtNtB4_5token4PlusE10push_valueB4_, symObjAddr: 0x7828, symBinAddr: 0x4366C, symSize: 0x1A4 }
  - { offset: 0xBBE1D, size: 0x8, addend: 0x0, symName: __RNvMNtCs6IAuOt8vWmF_3syn10punctuatedINtB2_10PunctuatedNtNtB4_2ty4TypeNtNtB4_5token5CommaE10push_punctB4_, symObjAddr: 0x79CC, symBinAddr: 0x43810, symSize: 0x200 }
  - { offset: 0xBBEC6, size: 0x8, addend: 0x0, symName: __RNvMNtCs6IAuOt8vWmF_3syn10punctuatedINtB2_10PunctuatedNtNtB4_2ty9BareFnArgNtNtB4_5token5CommaE10push_punctB4_, symObjAddr: 0x7BCC, symBinAddr: 0x43A10, symSize: 0x200 }
  - { offset: 0xBBF6F, size: 0x8, addend: 0x0, symName: __RNvMNtCs6IAuOt8vWmF_3syn10punctuatedINtB2_10PunctuatedNtNtB4_3pat3PatNtNtB4_5token2OrE10push_punctB4_, symObjAddr: 0x7DCC, symBinAddr: 0x43C10, symSize: 0x200 }
  - { offset: 0xBBFED, size: 0x8, addend: 0x0, symName: __RNvMNtCs6IAuOt8vWmF_3syn10punctuatedINtB2_10PunctuatedNtNtB4_3pat3PatNtNtB4_5token5CommaE10push_punctB4_, symObjAddr: 0x7FCC, symBinAddr: 0x43E10, symSize: 0x200 }
  - { offset: 0xBC096, size: 0x8, addend: 0x0, symName: __RNvMNtCs6IAuOt8vWmF_3syn10punctuatedINtB2_10PunctuatedNtNtB4_3pat8FieldPatNtNtB4_5token5CommaE10push_punctB4_, symObjAddr: 0x81CC, symBinAddr: 0x44010, symSize: 0x200 }
  - { offset: 0xBC13F, size: 0x8, addend: 0x0, symName: __RNvMNtCs6IAuOt8vWmF_3syn10punctuatedINtB2_10PunctuatedNtNtB4_4data5FieldNtNtB4_5token5CommaE10push_punctB4_, symObjAddr: 0x83CC, symBinAddr: 0x44210, symSize: 0x200 }
  - { offset: 0xBC1E8, size: 0x8, addend: 0x0, symName: __RNvMNtCs6IAuOt8vWmF_3syn10punctuatedINtB2_10PunctuatedNtNtB4_4data7VariantNtNtB4_5token5CommaE10push_punctB4_, symObjAddr: 0x85CC, symBinAddr: 0x44410, symSize: 0x200 }
  - { offset: 0xBC291, size: 0x8, addend: 0x0, symName: __RNvMNtCs6IAuOt8vWmF_3syn10punctuatedINtB2_10PunctuatedNtNtB4_4expr10FieldValueNtNtB4_5token5CommaE10push_punctB4_, symObjAddr: 0x87CC, symBinAddr: 0x44610, symSize: 0x200 }
  - { offset: 0xBC33A, size: 0x8, addend: 0x0, symName: __RNvMNtCs6IAuOt8vWmF_3syn10punctuatedINtB2_10PunctuatedNtNtB4_4expr4ExprNtNtB4_5token5CommaE10push_punctB4_, symObjAddr: 0x89CC, symBinAddr: 0x44810, symSize: 0x200 }
  - { offset: 0xBC3E3, size: 0x8, addend: 0x0, symName: __RNvMNtCs6IAuOt8vWmF_3syn10punctuatedINtB2_10PunctuatedNtNtB4_4item5FnArgNtNtB4_5token5CommaE10push_punctB4_, symObjAddr: 0x8BCC, symBinAddr: 0x44A10, symSize: 0x200 }
  - { offset: 0xBC48C, size: 0x8, addend: 0x0, symName: __RNvMNtCs6IAuOt8vWmF_3syn10punctuatedINtB2_10PunctuatedNtNtB4_4item7UseTreeNtNtB4_5token5CommaE10push_punctB4_, symObjAddr: 0x8DCC, symBinAddr: 0x44C10, symSize: 0x200 }
  - { offset: 0xBC535, size: 0x8, addend: 0x0, symName: __RNvMNtCs6IAuOt8vWmF_3syn10punctuatedINtB2_10PunctuatedNtNtB4_4path11PathSegmentNtNtB4_5token7PathSepE10push_punctB4_, symObjAddr: 0x8FCC, symBinAddr: 0x44E10, symSize: 0x200 }
  - { offset: 0xBC5DE, size: 0x8, addend: 0x0, symName: __RNvMNtCs6IAuOt8vWmF_3syn10punctuatedINtB2_10PunctuatedNtNtB4_4path15GenericArgumentNtNtB4_5token5CommaE10push_punctB4_, symObjAddr: 0x91CC, symBinAddr: 0x45010, symSize: 0x200 }
  - { offset: 0xBC687, size: 0x8, addend: 0x0, symName: __RNvMNtCs6IAuOt8vWmF_3syn10punctuatedINtB2_10PunctuatedNtNtB4_8generics12GenericParamNtNtB4_5token5CommaE10push_punctB4_, symObjAddr: 0x93CC, symBinAddr: 0x45210, symSize: 0x204 }
  - { offset: 0xBC730, size: 0x8, addend: 0x0, symName: __RNvMNtCs6IAuOt8vWmF_3syn10punctuatedINtB2_10PunctuatedNtNtB4_8generics13CapturedParamNtNtB4_5token5CommaE10push_punctB4_, symObjAddr: 0x95D0, symBinAddr: 0x45414, symSize: 0x200 }
  - { offset: 0xBC7D9, size: 0x8, addend: 0x0, symName: __RNvMNtCs6IAuOt8vWmF_3syn10punctuatedINtB2_10PunctuatedNtNtB4_8generics14TypeParamBoundNtNtB4_5token4PlusE10push_punctB4_, symObjAddr: 0x97D0, symBinAddr: 0x45614, symSize: 0x200 }
  - { offset: 0xBC882, size: 0x8, addend: 0x0, symName: __RNvMNtCs6IAuOt8vWmF_3syn10punctuatedINtB2_10PunctuatedNtNtB4_8generics14WherePredicateNtNtB4_5token5CommaE10push_punctB4_, symObjAddr: 0x99D0, symBinAddr: 0x45814, symSize: 0x200 }
  - { offset: 0xBC92B, size: 0x8, addend: 0x0, symName: __RNvMNtCs6IAuOt8vWmF_3syn10punctuatedINtB2_10PunctuatedNtNtB4_8lifetime8LifetimeNtNtB4_5token4PlusE10push_punctB4_, symObjAddr: 0x9BD0, symBinAddr: 0x45A14, symSize: 0x1F8 }
  - { offset: 0xBC9A8, size: 0x8, addend: 0x0, symName: __RNvMNtCs6IAuOt8vWmF_3syn10punctuatedINtB2_10PunctuatedNtNtB4_4path11PathSegmentNtNtB4_5token7PathSepE3popB4_, symObjAddr: 0x9DC8, symBinAddr: 0x45C0C, symSize: 0x90 }
  - { offset: 0xBC9DC, size: 0x8, addend: 0x0, symName: __RNvMNtCs6IAuOt8vWmF_3syn10punctuatedINtB2_10PunctuatedNtNtB4_2ty4TypeNtNtB4_5token5CommaE14trailing_punctB4_, symObjAddr: 0x9F90, symBinAddr: 0x45DD4, symSize: 0x80 }
  - { offset: 0xBCA10, size: 0x8, addend: 0x0, symName: __RNvMNtCs6IAuOt8vWmF_3syn10punctuatedINtB2_10PunctuatedNtNtB4_3pat3PatNtNtB4_5token5CommaE14trailing_punctB4_, symObjAddr: 0xA010, symBinAddr: 0x45E54, symSize: 0x80 }
  - { offset: 0xBCA44, size: 0x8, addend: 0x0, symName: __RNvMNtCs6IAuOt8vWmF_3syn10punctuatedINtB2_10PunctuatedNtNtB4_4expr4ExprNtNtB4_5token5CommaE14trailing_punctB4_, symObjAddr: 0xA090, symBinAddr: 0x45ED4, symSize: 0x80 }
  - { offset: 0xBCA78, size: 0x8, addend: 0x0, symName: __RNvMNtCs6IAuOt8vWmF_3syn10punctuatedINtB2_10PunctuatedNtNtB4_4path11PathSegmentNtNtB4_5token7PathSepE14trailing_punctB4_, symObjAddr: 0xA110, symBinAddr: 0x45F54, symSize: 0x80 }
  - { offset: 0xBCAAC, size: 0x8, addend: 0x0, symName: __RNvMNtCs6IAuOt8vWmF_3syn10punctuatedINtB2_10PunctuatedNtNtB4_8generics14TypeParamBoundNtNtB4_5token4PlusE14trailing_punctB4_, symObjAddr: 0xA190, symBinAddr: 0x45FD4, symSize: 0x80 }
  - { offset: 0xBCAE0, size: 0x8, addend: 0x0, symName: __RNvMNtCs6IAuOt8vWmF_3syn10punctuatedINtB2_10PunctuatedNtNtB4_2ty4TypeNtNtB4_5token5CommaE17empty_or_trailingB4_, symObjAddr: 0xA210, symBinAddr: 0x46054, symSize: 0x34 }
  - { offset: 0xBCB14, size: 0x8, addend: 0x0, symName: __RNvMNtCs6IAuOt8vWmF_3syn10punctuatedINtB2_10PunctuatedNtNtB4_2ty9BareFnArgNtNtB4_5token5CommaE17empty_or_trailingB4_, symObjAddr: 0xA244, symBinAddr: 0x46088, symSize: 0x34 }
  - { offset: 0xBCB48, size: 0x8, addend: 0x0, symName: __RNvMNtCs6IAuOt8vWmF_3syn10punctuatedINtB2_10PunctuatedNtNtB4_3pat3PatNtNtB4_5token2OrE17empty_or_trailingB4_, symObjAddr: 0xA278, symBinAddr: 0x460BC, symSize: 0x34 }
  - { offset: 0xBCB7C, size: 0x8, addend: 0x0, symName: __RNvMNtCs6IAuOt8vWmF_3syn10punctuatedINtB2_10PunctuatedNtNtB4_3pat3PatNtNtB4_5token5CommaE17empty_or_trailingB4_, symObjAddr: 0xA2AC, symBinAddr: 0x460F0, symSize: 0x34 }
  - { offset: 0xBCBB0, size: 0x8, addend: 0x0, symName: __RNvMNtCs6IAuOt8vWmF_3syn10punctuatedINtB2_10PunctuatedNtNtB4_3pat8FieldPatNtNtB4_5token5CommaE17empty_or_trailingB4_, symObjAddr: 0xA2E0, symBinAddr: 0x46124, symSize: 0x34 }
  - { offset: 0xBCBE4, size: 0x8, addend: 0x0, symName: __RNvMNtCs6IAuOt8vWmF_3syn10punctuatedINtB2_10PunctuatedNtNtB4_4data5FieldNtNtB4_5token5CommaE17empty_or_trailingB4_, symObjAddr: 0xA314, symBinAddr: 0x46158, symSize: 0x34 }
  - { offset: 0xBCC18, size: 0x8, addend: 0x0, symName: __RNvMNtCs6IAuOt8vWmF_3syn10punctuatedINtB2_10PunctuatedNtNtB4_4data7VariantNtNtB4_5token5CommaE17empty_or_trailingB4_, symObjAddr: 0xA348, symBinAddr: 0x4618C, symSize: 0x34 }
  - { offset: 0xBCC4C, size: 0x8, addend: 0x0, symName: __RNvMNtCs6IAuOt8vWmF_3syn10punctuatedINtB2_10PunctuatedNtNtB4_4expr10FieldValueNtNtB4_5token5CommaE17empty_or_trailingB4_, symObjAddr: 0xA37C, symBinAddr: 0x461C0, symSize: 0x34 }
  - { offset: 0xBCC80, size: 0x8, addend: 0x0, symName: __RNvMNtCs6IAuOt8vWmF_3syn10punctuatedINtB2_10PunctuatedNtNtB4_4expr4ExprNtNtB4_5token5CommaE17empty_or_trailingB4_, symObjAddr: 0xA3B0, symBinAddr: 0x461F4, symSize: 0x34 }
  - { offset: 0xBCCB4, size: 0x8, addend: 0x0, symName: __RNvMNtCs6IAuOt8vWmF_3syn10punctuatedINtB2_10PunctuatedNtNtB4_4item5FnArgNtNtB4_5token5CommaE17empty_or_trailingB4_, symObjAddr: 0xA3E4, symBinAddr: 0x46228, symSize: 0x34 }
  - { offset: 0xBCCE8, size: 0x8, addend: 0x0, symName: __RNvMNtCs6IAuOt8vWmF_3syn10punctuatedINtB2_10PunctuatedNtNtB4_4item7UseTreeNtNtB4_5token5CommaE17empty_or_trailingB4_, symObjAddr: 0xA418, symBinAddr: 0x4625C, symSize: 0x34 }
  - { offset: 0xBCD1C, size: 0x8, addend: 0x0, symName: __RNvMNtCs6IAuOt8vWmF_3syn10punctuatedINtB2_10PunctuatedNtNtB4_4path11PathSegmentNtNtB4_5token7PathSepE17empty_or_trailingB4_, symObjAddr: 0xA44C, symBinAddr: 0x46290, symSize: 0x34 }
  - { offset: 0xBCD50, size: 0x8, addend: 0x0, symName: __RNvMNtCs6IAuOt8vWmF_3syn10punctuatedINtB2_10PunctuatedNtNtB4_4path15GenericArgumentNtNtB4_5token5CommaE17empty_or_trailingB4_, symObjAddr: 0xA480, symBinAddr: 0x462C4, symSize: 0x34 }
  - { offset: 0xBCD84, size: 0x8, addend: 0x0, symName: __RNvMNtCs6IAuOt8vWmF_3syn10punctuatedINtB2_10PunctuatedNtNtB4_8generics12GenericParamNtNtB4_5token5CommaE17empty_or_trailingB4_, symObjAddr: 0xA4B4, symBinAddr: 0x462F8, symSize: 0x34 }
  - { offset: 0xBCDB8, size: 0x8, addend: 0x0, symName: __RNvMNtCs6IAuOt8vWmF_3syn10punctuatedINtB2_10PunctuatedNtNtB4_8generics13CapturedParamNtNtB4_5token5CommaE17empty_or_trailingB4_, symObjAddr: 0xA4E8, symBinAddr: 0x4632C, symSize: 0x34 }
  - { offset: 0xBCDEC, size: 0x8, addend: 0x0, symName: __RNvMNtCs6IAuOt8vWmF_3syn10punctuatedINtB2_10PunctuatedNtNtB4_8generics14TypeParamBoundNtNtB4_5token4PlusE17empty_or_trailingB4_, symObjAddr: 0xA51C, symBinAddr: 0x46360, symSize: 0x34 }
  - { offset: 0xBCE20, size: 0x8, addend: 0x0, symName: __RNvMNtCs6IAuOt8vWmF_3syn10punctuatedINtB2_10PunctuatedNtNtB4_8generics14WherePredicateNtNtB4_5token5CommaE17empty_or_trailingB4_, symObjAddr: 0xA550, symBinAddr: 0x46394, symSize: 0x34 }
  - { offset: 0xBCE54, size: 0x8, addend: 0x0, symName: __RNvMNtCs6IAuOt8vWmF_3syn10punctuatedINtB2_10PunctuatedNtNtB4_8lifetime8LifetimeNtNtB4_5token4PlusE17empty_or_trailingB4_, symObjAddr: 0xA584, symBinAddr: 0x463C8, symSize: 0x34 }
  - { offset: 0xBCE88, size: 0x8, addend: 0x0, symName: __RNvMNtCs6IAuOt8vWmF_3syn10punctuatedINtB2_10PunctuatedNtNtB4_4expr10FieldValueNtNtB4_5token5CommaE4pushB4_, symObjAddr: 0xA5B8, symBinAddr: 0x463FC, symSize: 0x124 }
  - { offset: 0xBCEE3, size: 0x8, addend: 0x0, symName: __RNvMNtCs6IAuOt8vWmF_3syn10punctuatedINtB2_10PunctuatedNtNtB4_2ty4TypeNtNtB4_5token5CommaE21parse_terminated_withB4_, symObjAddr: 0xA6DC, symBinAddr: 0x46520, symSize: 0x35C }
  - { offset: 0xBD000, size: 0x8, addend: 0x0, symName: __RNvMNtCs6IAuOt8vWmF_3syn10punctuatedINtB2_10PunctuatedNtNtB4_4data5FieldNtNtB4_5token5CommaE21parse_terminated_withB4_, symObjAddr: 0xAA38, symBinAddr: 0x4687C, symSize: 0x370 }
  - { offset: 0xBD11D, size: 0x8, addend: 0x0, symName: __RNvMNtCs6IAuOt8vWmF_3syn10punctuatedINtB2_10PunctuatedNtNtB4_4data7VariantNtNtB4_5token5CommaE21parse_terminated_withB4_, symObjAddr: 0xADA8, symBinAddr: 0x46BEC, symSize: 0x35C }
  - { offset: 0xBD23A, size: 0x8, addend: 0x0, symName: __RNvMNtCs6IAuOt8vWmF_3syn10punctuatedINtB2_10PunctuatedNtNtB4_4expr4ExprNtNtB4_5token5CommaE21parse_terminated_withB4_, symObjAddr: 0xB104, symBinAddr: 0x46F48, symSize: 0x35C }
  - { offset: 0xBD366, size: 0x8, addend: 0x0, symName: __RNvMsJ_NtCs6IAuOt8vWmF_3syn10punctuatedINtB5_4PairNtNtB7_4path11PathSegmentNtNtB7_5token7PathSepE10into_valueB7_, symObjAddr: 0x11644, symBinAddr: 0x495D8, symSize: 0xD4 }
  - { offset: 0xBD3E1, size: 0x8, addend: 0x0, symName: __RNvMsJ_NtCs6IAuOt8vWmF_3syn10punctuatedINtB5_4PairRNtNtB7_4path11PathSegmentRNtNtB7_5token7PathSepE5valueB7_, symObjAddr: 0x11718, symBinAddr: 0x496AC, symSize: 0x74 }
  - { offset: 0xBD45B, size: 0x8, addend: 0x0, symName: __RNvMsJ_NtCs6IAuOt8vWmF_3syn10punctuatedINtB5_4PairRNtNtB7_4path15GenericArgumentRNtNtB7_5token5CommaE5valueB7_, symObjAddr: 0x1178C, symBinAddr: 0x49720, symSize: 0x74 }
  - { offset: 0xBD4C8, size: 0x8, addend: 0x0, symName: __RNvMsJ_NtCs6IAuOt8vWmF_3syn10punctuatedINtB5_4PairRNtNtB7_8generics12GenericParamRNtNtB7_5token5CommaE5valueB7_, symObjAddr: 0x11800, symBinAddr: 0x49794, symSize: 0x74 }
  - { offset: 0xBD535, size: 0x8, addend: 0x0, symName: __RNvMsJ_NtCs6IAuOt8vWmF_3syn10punctuatedINtB5_4PairRNtNtB7_8generics13CapturedParamRNtNtB7_5token5CommaE5valueB7_, symObjAddr: 0x11874, symBinAddr: 0x49808, symSize: 0x74 }
  - { offset: 0xBD595, size: 0x8, addend: 0x0, symName: __RNvMsJ_NtCs6IAuOt8vWmF_3syn10punctuatedINtB5_4PairRNtNtB7_4path11PathSegmentRNtNtB7_5token7PathSepE5punctB7_, symObjAddr: 0x118E8, symBinAddr: 0x4987C, symSize: 0x78 }
  - { offset: 0xBD5F5, size: 0x8, addend: 0x0, symName: __RNvMsJ_NtCs6IAuOt8vWmF_3syn10punctuatedINtB5_4PairRNtNtB7_4path15GenericArgumentRNtNtB7_5token5CommaE5punctB7_, symObjAddr: 0x11960, symBinAddr: 0x498F4, symSize: 0x78 }
  - { offset: 0xBD648, size: 0x8, addend: 0x0, symName: __RNvMsJ_NtCs6IAuOt8vWmF_3syn10punctuatedINtB5_4PairRNtNtB7_8generics12GenericParamRNtNtB7_5token5CommaE5punctB7_, symObjAddr: 0x119D8, symBinAddr: 0x4996C, symSize: 0x78 }
  - { offset: 0xBD69B, size: 0x8, addend: 0x0, symName: __RNvMsJ_NtCs6IAuOt8vWmF_3syn10punctuatedINtB5_4PairRNtNtB7_8generics13CapturedParamRNtNtB7_5token5CommaE5punctB7_, symObjAddr: 0x11A50, symBinAddr: 0x499E4, symSize: 0x78 }
  - { offset: 0xBDB00, size: 0x8, addend: 0x0, symName: __RINvMNtCsfvfooZQ3Axs_4core6optionINtB3_6OptionINtNtCs6IAuOt8vWmF_3syn10punctuated4PairNtNtBN_4path11PathSegmentNtNtBN_5token7PathSepEE7or_elseNCNvXsj_BL_INtBL_9IntoPairsB1m_B1L_ENtNtNtNtB5_4iter6traits8iterator8Iterator4nexts_0EBN_, symObjAddr: 0x0, symBinAddr: 0x4AE4C, symSize: 0xD8 }
  - { offset: 0xC4AD7, size: 0x8, addend: 0x0, symName: __RNcNtINtNtCsfvfooZQ3Axs_4core6option6OptionNtCs3cP53eQoTwO_11proc_macro25IdentE4Some0Cs6IAuOt8vWmF_3syn, symObjAddr: 0x44F4, symBinAddr: 0x4E4D4, symSize: 0x18 }
  - { offset: 0xC4B0A, size: 0x8, addend: 0x0, symName: __RNcNtINtNtCsfvfooZQ3Axs_4core6option6OptionNtNtCs6IAuOt8vWmF_3syn2ty3AbiE4Some0BJ_, symObjAddr: 0x450C, symBinAddr: 0x4E4EC, symSize: 0x2C }
  - { offset: 0xC4B3D, size: 0x8, addend: 0x0, symName: __RNcNtINtNtCsfvfooZQ3Axs_4core6option6OptionNtNtCs6IAuOt8vWmF_3syn4expr5LabelE4Some0BJ_, symObjAddr: 0x4538, symBinAddr: 0x4E518, symSize: 0x30 }
  - { offset: 0xC4B71, size: 0x8, addend: 0x0, symName: __RNcNtINtNtCsfvfooZQ3Axs_4core6option6OptionNtNtCs6IAuOt8vWmF_3syn8generics11WhereClauseE4Some0BJ_, symObjAddr: 0x4568, symBinAddr: 0x4E548, symSize: 0x30 }
  - { offset: 0xC4BA5, size: 0x8, addend: 0x0, symName: __RNcNtINtNtCsfvfooZQ3Axs_4core6option6OptionNtNtCs6IAuOt8vWmF_3syn8generics14BoundLifetimesE4Some0BJ_, symObjAddr: 0x4598, symBinAddr: 0x4E578, symSize: 0x30 }
  - { offset: 0xC5339, size: 0x8, addend: 0x0, symName: __RNvXs3_NtCsfvfooZQ3Axs_4core6optionINtB5_6OptionINtNtCse1nGBsou5OW_5alloc2rc2RcINtNtB7_4cell4CellNtNtCs6IAuOt8vWmF_3syn5parse10UnexpectedEEENtNtB7_5clone5Clone5cloneB1B_, symObjAddr: 0x6F90, symBinAddr: 0x50A24, symSize: 0x5C }
  - { offset: 0xC538E, size: 0x8, addend: 0x0, symName: __RNvXs3_NtCsfvfooZQ3Axs_4core6optionINtB5_6OptionNtNtCs6IAuOt8vWmF_3syn8lifetime8LifetimeENtNtB7_5clone5Clone5cloneBO_, symObjAddr: 0x86DC, symBinAddr: 0x50A80, symSize: 0x78 }
  - { offset: 0xC5455, size: 0x8, addend: 0x0, symName: __RNvXs4_NtCsfvfooZQ3Axs_4core6optionINtB5_6OptionINtNtCse1nGBsou5OW_5alloc2rc2RcINtNtB7_4cell4CellNtNtCs6IAuOt8vWmF_3syn5parse10UnexpectedEEENtNtB7_7default7Default7defaultB1B_, symObjAddr: 0x8CDC, symBinAddr: 0x50AF8, symSize: 0x14 }
  - { offset: 0xC5483, size: 0x8, addend: 0x0, symName: __RNvXs5_NtCsfvfooZQ3Axs_4core6optionINtB5_6OptionNtNtCs6IAuOt8vWmF_3syn4path11PathSegmentENtNtNtNtB7_4iter6traits7collect12IntoIterator9into_iterBO_, symObjAddr: 0x8D40, symBinAddr: 0x50B0C, symSize: 0x48 }
  - { offset: 0xC54BB, size: 0x8, addend: 0x0, symName: __RNvXs5_NtCsfvfooZQ3Axs_4core6optionINtB5_6OptionNtNtCs6IAuOt8vWmF_3syn8generics14TypeParamBoundENtNtNtNtB7_4iter6traits7collect12IntoIterator9into_iterBO_, symObjAddr: 0x8D88, symBinAddr: 0x50B54, symSize: 0x48 }
  - { offset: 0xC54F3, size: 0x8, addend: 0x0, symName: __RNvXs5_NtCsfvfooZQ3Axs_4core6optionINtB5_6OptionQNtNtCs6IAuOt8vWmF_3syn4path11PathSegmentENtNtNtNtB7_4iter6traits7collect12IntoIterator9into_iterBP_, symObjAddr: 0x8DE4, symBinAddr: 0x50B9C, symSize: 0x14 }
  - { offset: 0xC552A, size: 0x8, addend: 0x0, symName: __RNvXs5_NtCsfvfooZQ3Axs_4core6optionINtB5_6OptionRNtNtCs6IAuOt8vWmF_3syn2ty4TypeENtNtNtNtB7_4iter6traits7collect12IntoIterator9into_iterBP_, symObjAddr: 0x8E0C, symBinAddr: 0x50BB0, symSize: 0x14 }
  - { offset: 0xC5561, size: 0x8, addend: 0x0, symName: __RNvXs5_NtCsfvfooZQ3Axs_4core6optionINtB5_6OptionRNtNtCs6IAuOt8vWmF_3syn2ty9BareFnArgENtNtNtNtB7_4iter6traits7collect12IntoIterator9into_iterBP_, symObjAddr: 0x8E20, symBinAddr: 0x50BC4, symSize: 0x14 }
  - { offset: 0xC5598, size: 0x8, addend: 0x0, symName: __RNvXs5_NtCsfvfooZQ3Axs_4core6optionINtB5_6OptionRNtNtCs6IAuOt8vWmF_3syn3pat3PatENtNtNtNtB7_4iter6traits7collect12IntoIterator9into_iterBP_, symObjAddr: 0x8E34, symBinAddr: 0x50BD8, symSize: 0x14 }
  - { offset: 0xC55CF, size: 0x8, addend: 0x0, symName: __RNvXs5_NtCsfvfooZQ3Axs_4core6optionINtB5_6OptionRNtNtCs6IAuOt8vWmF_3syn3pat8FieldPatENtNtNtNtB7_4iter6traits7collect12IntoIterator9into_iterBP_, symObjAddr: 0x8E48, symBinAddr: 0x50BEC, symSize: 0x14 }
  - { offset: 0xC5606, size: 0x8, addend: 0x0, symName: __RNvXs5_NtCsfvfooZQ3Axs_4core6optionINtB5_6OptionRNtNtCs6IAuOt8vWmF_3syn4data5FieldENtNtNtNtB7_4iter6traits7collect12IntoIterator9into_iterBP_, symObjAddr: 0x8E5C, symBinAddr: 0x50C00, symSize: 0x14 }
  - { offset: 0xC563D, size: 0x8, addend: 0x0, symName: __RNvXs5_NtCsfvfooZQ3Axs_4core6optionINtB5_6OptionRNtNtCs6IAuOt8vWmF_3syn4data7VariantENtNtNtNtB7_4iter6traits7collect12IntoIterator9into_iterBP_, symObjAddr: 0x8E70, symBinAddr: 0x50C14, symSize: 0x14 }
  - { offset: 0xC5674, size: 0x8, addend: 0x0, symName: __RNvXs5_NtCsfvfooZQ3Axs_4core6optionINtB5_6OptionRNtNtCs6IAuOt8vWmF_3syn4expr10FieldValueENtNtNtNtB7_4iter6traits7collect12IntoIterator9into_iterBP_, symObjAddr: 0x8E84, symBinAddr: 0x50C28, symSize: 0x14 }
  - { offset: 0xC56AB, size: 0x8, addend: 0x0, symName: __RNvXs5_NtCsfvfooZQ3Axs_4core6optionINtB5_6OptionRNtNtCs6IAuOt8vWmF_3syn4expr4ExprENtNtNtNtB7_4iter6traits7collect12IntoIterator9into_iterBP_, symObjAddr: 0x8E98, symBinAddr: 0x50C3C, symSize: 0x14 }
  - { offset: 0xC56E2, size: 0x8, addend: 0x0, symName: __RNvXs5_NtCsfvfooZQ3Axs_4core6optionINtB5_6OptionRNtNtCs6IAuOt8vWmF_3syn4item5FnArgENtNtNtNtB7_4iter6traits7collect12IntoIterator9into_iterBP_, symObjAddr: 0x8EAC, symBinAddr: 0x50C50, symSize: 0x14 }
  - { offset: 0xC5719, size: 0x8, addend: 0x0, symName: __RNvXs5_NtCsfvfooZQ3Axs_4core6optionINtB5_6OptionRNtNtCs6IAuOt8vWmF_3syn4item7UseTreeENtNtNtNtB7_4iter6traits7collect12IntoIterator9into_iterBP_, symObjAddr: 0x8EC0, symBinAddr: 0x50C64, symSize: 0x14 }
  - { offset: 0xC5750, size: 0x8, addend: 0x0, symName: __RNvXs5_NtCsfvfooZQ3Axs_4core6optionINtB5_6OptionRNtNtCs6IAuOt8vWmF_3syn4path11PathSegmentENtNtNtNtB7_4iter6traits7collect12IntoIterator9into_iterBP_, symObjAddr: 0x8ED4, symBinAddr: 0x50C78, symSize: 0x14 }
  - { offset: 0xC5787, size: 0x8, addend: 0x0, symName: __RNvXs5_NtCsfvfooZQ3Axs_4core6optionINtB5_6OptionRNtNtCs6IAuOt8vWmF_3syn4path15GenericArgumentENtNtNtNtB7_4iter6traits7collect12IntoIterator9into_iterBP_, symObjAddr: 0x8EE8, symBinAddr: 0x50C8C, symSize: 0x14 }
  - { offset: 0xC57BE, size: 0x8, addend: 0x0, symName: __RNvXs5_NtCsfvfooZQ3Axs_4core6optionINtB5_6OptionRNtNtCs6IAuOt8vWmF_3syn8generics12GenericParamENtNtNtNtB7_4iter6traits7collect12IntoIterator9into_iterBP_, symObjAddr: 0x8EFC, symBinAddr: 0x50CA0, symSize: 0x14 }
  - { offset: 0xC57F5, size: 0x8, addend: 0x0, symName: __RNvXs5_NtCsfvfooZQ3Axs_4core6optionINtB5_6OptionRNtNtCs6IAuOt8vWmF_3syn8generics13CapturedParamENtNtNtNtB7_4iter6traits7collect12IntoIterator9into_iterBP_, symObjAddr: 0x8F10, symBinAddr: 0x50CB4, symSize: 0x14 }
  - { offset: 0xC582C, size: 0x8, addend: 0x0, symName: __RNvXs5_NtCsfvfooZQ3Axs_4core6optionINtB5_6OptionRNtNtCs6IAuOt8vWmF_3syn8generics14TypeParamBoundENtNtNtNtB7_4iter6traits7collect12IntoIterator9into_iterBP_, symObjAddr: 0x8F24, symBinAddr: 0x50CC8, symSize: 0x14 }
  - { offset: 0xC5863, size: 0x8, addend: 0x0, symName: __RNvXs5_NtCsfvfooZQ3Axs_4core6optionINtB5_6OptionRNtNtCs6IAuOt8vWmF_3syn8generics14WherePredicateENtNtNtNtB7_4iter6traits7collect12IntoIterator9into_iterBP_, symObjAddr: 0x8F38, symBinAddr: 0x50CDC, symSize: 0x14 }
  - { offset: 0xC589A, size: 0x8, addend: 0x0, symName: __RNvXs5_NtCsfvfooZQ3Axs_4core6optionINtB5_6OptionRNtNtCs6IAuOt8vWmF_3syn8lifetime8LifetimeENtNtNtNtB7_4iter6traits7collect12IntoIterator9into_iterBP_, symObjAddr: 0x8F4C, symBinAddr: 0x50CF0, symSize: 0x14 }
  - { offset: 0xC58D7, size: 0x8, addend: 0x0, symName: __RNvXsB_NtCsfvfooZQ3Axs_4core6optionINtB5_6OptionRhENtNtNtB7_3ops9try_trait3Try6branchCs6IAuOt8vWmF_3syn, symObjAddr: 0x918C, symBinAddr: 0x50D04, symSize: 0x40 }
  - { offset: 0xC592C, size: 0x8, addend: 0x0, symName: __RNvXsB_NtCsfvfooZQ3Axs_4core6optionINtB5_6OptionTINtNtCse1nGBsou5OW_5alloc5boxed3BoxeEBL_EENtNtNtB7_3ops9try_trait3Try6branchCs6IAuOt8vWmF_3syn, symObjAddr: 0x91CC, symBinAddr: 0x50D44, symSize: 0x60 }
  - { offset: 0xC5982, size: 0x8, addend: 0x0, symName: __RNvXsB_NtCsfvfooZQ3Axs_4core6optionINtB5_6OptionTNtCs3cP53eQoTwO_11proc_macro25IdentNtNtCs6IAuOt8vWmF_3syn6buffer6CursorEENtNtNtB7_3ops9try_trait3Try6branchB1o_, symObjAddr: 0x922C, symBinAddr: 0x50DA4, symSize: 0x74 }
  - { offset: 0xC59D8, size: 0x8, addend: 0x0, symName: __RNvXsB_NtCsfvfooZQ3Axs_4core6optionINtB5_6OptionTNtCs3cP53eQoTwO_11proc_macro27LiteralNtNtCs6IAuOt8vWmF_3syn6buffer6CursorEENtNtNtB7_3ops9try_trait3Try6branchB1q_, symObjAddr: 0x92A0, symBinAddr: 0x50E18, symSize: 0x78 }
  - { offset: 0xC5A2E, size: 0x8, addend: 0x0, symName: __RNvXsB_NtCsfvfooZQ3Axs_4core6optionINtB5_6OptionjENtNtNtB7_3ops9try_trait3Try11from_outputCs6IAuOt8vWmF_3syn, symObjAddr: 0x9318, symBinAddr: 0x50E90, symSize: 0x24 }
  - { offset: 0xC5A65, size: 0x8, addend: 0x0, symName: __RNvXsB_NtCsfvfooZQ3Axs_4core6optionINtB5_6OptionjENtNtNtB7_3ops9try_trait3Try6branchCs6IAuOt8vWmF_3syn, symObjAddr: 0x933C, symBinAddr: 0x50EB4, symSize: 0x48 }
  - { offset: 0xC5AC0, size: 0x8, addend: 0x0, symName: __RNvXsC_NtCsfvfooZQ3Axs_4core6optionINtB5_6OptionTINtNtCse1nGBsou5OW_5alloc5boxed3BoxeEBL_EEINtNtNtB7_3ops9try_trait12FromResidualIBy_NtNtB7_7convert10InfallibleEE13from_residualCs6IAuOt8vWmF_3syn, symObjAddr: 0x9454, symBinAddr: 0x50EFC, symSize: 0x10 }
  - { offset: 0xC5AF3, size: 0x8, addend: 0x0, symName: __RNvXsC_NtCsfvfooZQ3Axs_4core6optionINtB5_6OptionTNtNtCs6IAuOt8vWmF_3syn3lit3LitNtNtBP_6buffer6CursorEEINtNtNtB7_3ops9try_trait12FromResidualIBy_NtNtB7_7convert10InfallibleEE13from_residualBP_, symObjAddr: 0x9464, symBinAddr: 0x50F0C, symSize: 0x1C }
  - { offset: 0xC5B26, size: 0x8, addend: 0x0, symName: __RNvXsC_NtCsfvfooZQ3Axs_4core6optionINtB5_6OptionTNtNtCs6IAuOt8vWmF_3syn8lifetime8LifetimeNtNtBP_6buffer6CursorEEINtNtNtB7_3ops9try_trait12FromResidualIBy_NtNtB7_7convert10InfallibleEE13from_residualBP_, symObjAddr: 0x9480, symBinAddr: 0x50F28, symSize: 0x18 }
  - { offset: 0xC5B59, size: 0x8, addend: 0x0, symName: __RNvXsC_NtCsfvfooZQ3Axs_4core6optionINtB5_6OptionjEINtNtNtB7_3ops9try_trait12FromResidualIBy_NtNtB7_7convert10InfallibleEE13from_residualCs6IAuOt8vWmF_3syn, symObjAddr: 0x9498, symBinAddr: 0x50F40, symSize: 0x18 }
  - { offset: 0xC5BE6, size: 0x8, addend: 0x0, symName: __RNvXsO_NtCsfvfooZQ3Axs_4core6optionINtB5_8IntoIterRNtNtCs6IAuOt8vWmF_3syn4path11PathSegmentENtNtB7_5clone5Clone5cloneBR_, symObjAddr: 0xB590, symBinAddr: 0x50FA0, symSize: 0x68 }
  - { offset: 0xC5C8D, size: 0x8, addend: 0x0, symName: __RNvXsO_NtCsfvfooZQ3Axs_4core6optionINtB5_8IntoIterRNtNtCs6IAuOt8vWmF_3syn8generics14TypeParamBoundENtNtB7_5clone5Clone5cloneBR_, symObjAddr: 0xB660, symBinAddr: 0x51008, symSize: 0x68 }
  - { offset: 0xC60BB, size: 0x8, addend: 0x0, symName: __RNvXsv_NtCsfvfooZQ3Axs_4core6optionINtB5_8IntoIterNtNtCs6IAuOt8vWmF_3syn4path11PathSegmentENtNtNtNtB7_4iter6traits8iterator8Iterator4nextBQ_, symObjAddr: 0xE660, symBinAddr: 0x511D8, symSize: 0x64 }
  - { offset: 0xC615E, size: 0x8, addend: 0x0, symName: __RNvXsv_NtCsfvfooZQ3Axs_4core6optionINtB5_8IntoIterNtNtCs6IAuOt8vWmF_3syn8generics14TypeParamBoundENtNtNtNtB7_4iter6traits8iterator8Iterator4nextBQ_, symObjAddr: 0xE6C4, symBinAddr: 0x5123C, symSize: 0x60 }
  - { offset: 0xC6201, size: 0x8, addend: 0x0, symName: __RNvXsv_NtCsfvfooZQ3Axs_4core6optionINtB5_8IntoIterNtNtCs6IAuOt8vWmF_3syn8generics14TypeParamBoundENtNtNtNtB7_4iter6traits8iterator8Iterator9size_hintBQ_, symObjAddr: 0xE724, symBinAddr: 0x5129C, symSize: 0x48 }
  - { offset: 0xC6279, size: 0x8, addend: 0x0, symName: __RNvXsv_NtCsfvfooZQ3Axs_4core6optionINtB5_8IntoIterQNtNtCs6IAuOt8vWmF_3syn4path11PathSegmentENtNtNtNtB7_4iter6traits8iterator8Iterator4nextBR_, symObjAddr: 0xE7D8, symBinAddr: 0x512E4, symSize: 0x28 }
  - { offset: 0xC631C, size: 0x8, addend: 0x0, symName: __RNvXsv_NtCsfvfooZQ3Axs_4core6optionINtB5_8IntoIterQNtNtCs6IAuOt8vWmF_3syn4path11PathSegmentENtNtNtNtB7_4iter6traits8iterator8Iterator9size_hintBR_, symObjAddr: 0xE800, symBinAddr: 0x5130C, symSize: 0x44 }
  - { offset: 0xC6394, size: 0x8, addend: 0x0, symName: __RNvXsv_NtCsfvfooZQ3Axs_4core6optionINtB5_8IntoIterRNtNtCs6IAuOt8vWmF_3syn2ty4TypeENtNtNtNtB7_4iter6traits8iterator8Iterator4nextBR_, symObjAddr: 0xE8B0, symBinAddr: 0x51350, symSize: 0x28 }
  - { offset: 0xC6437, size: 0x8, addend: 0x0, symName: __RNvXsv_NtCsfvfooZQ3Axs_4core6optionINtB5_8IntoIterRNtNtCs6IAuOt8vWmF_3syn2ty9BareFnArgENtNtNtNtB7_4iter6traits8iterator8Iterator4nextBR_, symObjAddr: 0xE8D8, symBinAddr: 0x51378, symSize: 0x28 }
  - { offset: 0xC64DA, size: 0x8, addend: 0x0, symName: __RNvXsv_NtCsfvfooZQ3Axs_4core6optionINtB5_8IntoIterRNtNtCs6IAuOt8vWmF_3syn3pat3PatENtNtNtNtB7_4iter6traits8iterator8Iterator4nextBR_, symObjAddr: 0xE900, symBinAddr: 0x513A0, symSize: 0x28 }
  - { offset: 0xC657D, size: 0x8, addend: 0x0, symName: __RNvXsv_NtCsfvfooZQ3Axs_4core6optionINtB5_8IntoIterRNtNtCs6IAuOt8vWmF_3syn3pat8FieldPatENtNtNtNtB7_4iter6traits8iterator8Iterator4nextBR_, symObjAddr: 0xE928, symBinAddr: 0x513C8, symSize: 0x28 }
  - { offset: 0xC6620, size: 0x8, addend: 0x0, symName: __RNvXsv_NtCsfvfooZQ3Axs_4core6optionINtB5_8IntoIterRNtNtCs6IAuOt8vWmF_3syn4data5FieldENtNtNtNtB7_4iter6traits8iterator8Iterator4nextBR_, symObjAddr: 0xE950, symBinAddr: 0x513F0, symSize: 0x28 }
  - { offset: 0xC66C3, size: 0x8, addend: 0x0, symName: __RNvXsv_NtCsfvfooZQ3Axs_4core6optionINtB5_8IntoIterRNtNtCs6IAuOt8vWmF_3syn4data7VariantENtNtNtNtB7_4iter6traits8iterator8Iterator4nextBR_, symObjAddr: 0xE9BC, symBinAddr: 0x51418, symSize: 0x28 }
  - { offset: 0xC6766, size: 0x8, addend: 0x0, symName: __RNvXsv_NtCsfvfooZQ3Axs_4core6optionINtB5_8IntoIterRNtNtCs6IAuOt8vWmF_3syn4expr10FieldValueENtNtNtNtB7_4iter6traits8iterator8Iterator4nextBR_, symObjAddr: 0xE9E4, symBinAddr: 0x51440, symSize: 0x28 }
  - { offset: 0xC6809, size: 0x8, addend: 0x0, symName: __RNvXsv_NtCsfvfooZQ3Axs_4core6optionINtB5_8IntoIterRNtNtCs6IAuOt8vWmF_3syn4expr4ExprENtNtNtNtB7_4iter6traits8iterator8Iterator4nextBR_, symObjAddr: 0xEA0C, symBinAddr: 0x51468, symSize: 0x28 }
  - { offset: 0xC68AC, size: 0x8, addend: 0x0, symName: __RNvXsv_NtCsfvfooZQ3Axs_4core6optionINtB5_8IntoIterRNtNtCs6IAuOt8vWmF_3syn4item5FnArgENtNtNtNtB7_4iter6traits8iterator8Iterator4nextBR_, symObjAddr: 0xEA34, symBinAddr: 0x51490, symSize: 0x28 }
  - { offset: 0xC694F, size: 0x8, addend: 0x0, symName: __RNvXsv_NtCsfvfooZQ3Axs_4core6optionINtB5_8IntoIterRNtNtCs6IAuOt8vWmF_3syn4item7UseTreeENtNtNtNtB7_4iter6traits8iterator8Iterator4nextBR_, symObjAddr: 0xEAA0, symBinAddr: 0x514B8, symSize: 0x28 }
  - { offset: 0xC69F2, size: 0x8, addend: 0x0, symName: __RNvXsv_NtCsfvfooZQ3Axs_4core6optionINtB5_8IntoIterRNtNtCs6IAuOt8vWmF_3syn4path11PathSegmentENtNtNtNtB7_4iter6traits8iterator8Iterator4nextBR_, symObjAddr: 0xEAC8, symBinAddr: 0x514E0, symSize: 0x28 }
  - { offset: 0xC6A95, size: 0x8, addend: 0x0, symName: __RNvXsv_NtCsfvfooZQ3Axs_4core6optionINtB5_8IntoIterRNtNtCs6IAuOt8vWmF_3syn4path11PathSegmentENtNtNtNtB7_4iter6traits8iterator8Iterator9size_hintBR_, symObjAddr: 0xEAF0, symBinAddr: 0x51508, symSize: 0x44 }
  - { offset: 0xC6B0D, size: 0x8, addend: 0x0, symName: __RNvXsv_NtCsfvfooZQ3Axs_4core6optionINtB5_8IntoIterRNtNtCs6IAuOt8vWmF_3syn4path15GenericArgumentENtNtNtNtB7_4iter6traits8iterator8Iterator4nextBR_, symObjAddr: 0xEB34, symBinAddr: 0x5154C, symSize: 0x28 }
  - { offset: 0xC6BB0, size: 0x8, addend: 0x0, symName: __RNvXsv_NtCsfvfooZQ3Axs_4core6optionINtB5_8IntoIterRNtNtCs6IAuOt8vWmF_3syn8generics12GenericParamENtNtNtNtB7_4iter6traits8iterator8Iterator4nextBR_, symObjAddr: 0xEB5C, symBinAddr: 0x51574, symSize: 0x28 }
  - { offset: 0xC6C53, size: 0x8, addend: 0x0, symName: __RNvXsv_NtCsfvfooZQ3Axs_4core6optionINtB5_8IntoIterRNtNtCs6IAuOt8vWmF_3syn8generics13CapturedParamENtNtNtNtB7_4iter6traits8iterator8Iterator4nextBR_, symObjAddr: 0xEBC8, symBinAddr: 0x5159C, symSize: 0x28 }
  - { offset: 0xC6CF6, size: 0x8, addend: 0x0, symName: __RNvXsv_NtCsfvfooZQ3Axs_4core6optionINtB5_8IntoIterRNtNtCs6IAuOt8vWmF_3syn8generics14TypeParamBoundENtNtNtNtB7_4iter6traits8iterator8Iterator4nextBR_, symObjAddr: 0xEBF0, symBinAddr: 0x515C4, symSize: 0x28 }
  - { offset: 0xC6D99, size: 0x8, addend: 0x0, symName: __RNvXsv_NtCsfvfooZQ3Axs_4core6optionINtB5_8IntoIterRNtNtCs6IAuOt8vWmF_3syn8generics14TypeParamBoundENtNtNtNtB7_4iter6traits8iterator8Iterator9size_hintBR_, symObjAddr: 0xEC18, symBinAddr: 0x515EC, symSize: 0x44 }
  - { offset: 0xC6E11, size: 0x8, addend: 0x0, symName: __RNvXsv_NtCsfvfooZQ3Axs_4core6optionINtB5_8IntoIterRNtNtCs6IAuOt8vWmF_3syn8generics14WherePredicateENtNtNtNtB7_4iter6traits8iterator8Iterator4nextBR_, symObjAddr: 0xEC5C, symBinAddr: 0x51630, symSize: 0x28 }
  - { offset: 0xC6EB4, size: 0x8, addend: 0x0, symName: __RNvXsv_NtCsfvfooZQ3Axs_4core6optionINtB5_8IntoIterRNtNtCs6IAuOt8vWmF_3syn8lifetime8LifetimeENtNtNtNtB7_4iter6traits8iterator8Iterator4nextBR_, symObjAddr: 0xEC84, symBinAddr: 0x51658, symSize: 0x28 }
  - { offset: 0xC810F, size: 0x8, addend: 0x0, symName: __RNvNvMNtNtCsfvfooZQ3Axs_4core3ptr9const_ptrPp6offset18precondition_checkCs6IAuOt8vWmF_3syn, symObjAddr: 0x5F10, symBinAddr: 0x4FB70, symSize: 0xA0 }
  - { offset: 0xC82D1, size: 0x8, addend: 0x0, symName: __RNvNvMNtNtCsfvfooZQ3Axs_4core3ptr9const_ptrPp7sub_ptr18precondition_checkCs6IAuOt8vWmF_3syn, symObjAddr: 0x5FB0, symBinAddr: 0x4FC10, symSize: 0x40 }
  - { offset: 0xC8AC2, size: 0x8, addend: 0x0, symName: __RNvXsr_NtCsfvfooZQ3Axs_4core3fmtShNtB5_5Debug3fmtCs6IAuOt8vWmF_3syn, symObjAddr: 0xE52C, symBinAddr: 0x51150, symSize: 0x88 }
  - { offset: 0xCA185, size: 0x8, addend: 0x0, symName: __RINvYINtNtCsfvfooZQ3Axs_4core6option8IntoIterNtNtCs6IAuOt8vWmF_3syn8generics14TypeParamBoundENtNtNtNtB8_4iter6traits8iterator8Iterator4folduNCINvNvB1t_8for_each4callBH_NCINvMsi_NtCse1nGBsou5OW_5alloc3vecINtB2P_3VecBH_E14extend_trustedB3_E0E0EBL_, symObjAddr: 0x3F98, symBinAddr: 0x4DF78, symSize: 0x148 }
  - { offset: 0xCA217, size: 0x8, addend: 0x0, symName: __RINvYINtNtCsfvfooZQ3Axs_4core6option8IntoIterNtNtCs6IAuOt8vWmF_3syn8generics14TypeParamBoundENtNtNtNtB8_4iter6traits8iterator8Iterator8for_eachNCINvMsi_NtCse1nGBsou5OW_5alloc3vecINtB2q_3VecBH_E14extend_trustedB3_E0EBL_, symObjAddr: 0x40E0, symBinAddr: 0x4E0C0, symSize: 0x34 }
  - { offset: 0xCA283, size: 0x8, addend: 0x0, symName: __RINvYNtNtNtCsfvfooZQ3Axs_4core3ops11index_range10IndexRangeNtNtNtNtB9_4iter6traits8iterator8Iterator8try_folduNCINvMNtB7_9try_traitINtB1Q_17NeverShortCircuituE10wrap_mut_2ujNCINvXs0_NtNtB9_5array4iterINtB2U_8IntoIterNtCs3cP53eQoTwO_11proc_macro29TokenTreeKj1_EBV_4folduNCINvNtNtB11_8adapters3map8map_foldB3s_NtCs9i5KxIbZ5ph_10proc_macro9TokenTreeuNvNtB3u_3imp19into_compiler_tokenNCINvNvBV_8for_each4callB4W_NCINvXsg_B4Y_NtB4Y_11TokenStreamINtNtBZ_7collect12FromIteratorB4W_E9from_iterINtB4o_3MapB3c_B5z_EE0E0E0E0E0B25_ECs6IAuOt8vWmF_3syn, symObjAddr: 0x4114, symBinAddr: 0x4E0F4, symSize: 0xF8 }
  - { offset: 0xCA31B, size: 0x8, addend: 0x0, symName: __RINvYNtNtNtCsfvfooZQ3Axs_4core3ops11index_range10IndexRangeNtNtNtNtB9_4iter6traits8iterator8Iterator8try_folduNCINvMNtB7_9try_traitINtB1Q_17NeverShortCircuituE10wrap_mut_2ujNCINvXs0_NtNtB9_5array4iterINtB2U_8IntoIterNtCs3cP53eQoTwO_11proc_macro29TokenTreeKj1_EBV_4folduNCINvNvBV_8for_each4callB3s_NCINvXsa_NtB3u_8fallbackNtB4U_11TokenStreamINtNtBZ_7collect6ExtendB3s_E6extendB3c_E0E0E0E0B25_ECs6IAuOt8vWmF_3syn, symObjAddr: 0x420C, symBinAddr: 0x4E1EC, symSize: 0xF8 }
  - { offset: 0xCA3B3, size: 0x8, addend: 0x0, symName: __RINvYNtNtNtCsfvfooZQ3Axs_4core3ops11index_range10IndexRangeNtNtNtNtB9_4iter6traits8iterator8Iterator8try_folduNCINvMNtB7_9try_traitINtB1Q_17NeverShortCircuituE10wrap_mut_2ujNCINvXs0_NtNtB9_5array4iterINtB2U_8IntoIterNtCs3cP53eQoTwO_11proc_macro29TokenTreeKj8_EBV_4folduNCINvNtNtB11_8adapters3map8map_foldB3s_NtCs9i5KxIbZ5ph_10proc_macro9TokenTreeuNvNtB3u_3imp19into_compiler_tokenNCINvNvBV_8for_each4callB4W_NCINvXsg_B4Y_NtB4Y_11TokenStreamINtNtBZ_7collect12FromIteratorB4W_E9from_iterINtB4o_3MapB3c_B5z_EE0E0E0E0E0B25_ECs6IAuOt8vWmF_3syn, symObjAddr: 0x4304, symBinAddr: 0x4E2E4, symSize: 0xF8 }
  - { offset: 0xCA44B, size: 0x8, addend: 0x0, symName: __RINvYNtNtNtCsfvfooZQ3Axs_4core3ops11index_range10IndexRangeNtNtNtNtB9_4iter6traits8iterator8Iterator8try_folduNCINvMNtB7_9try_traitINtB1Q_17NeverShortCircuituE10wrap_mut_2ujNCINvXs0_NtNtB9_5array4iterINtB2U_8IntoIterNtCs3cP53eQoTwO_11proc_macro29TokenTreeKj8_EBV_4folduNCINvNvBV_8for_each4callB3s_NCINvXsa_NtB3u_8fallbackNtB4U_11TokenStreamINtNtBZ_7collect6ExtendB3s_E6extendB3c_E0E0E0E0B25_ECs6IAuOt8vWmF_3syn, symObjAddr: 0x43FC, symBinAddr: 0x4E3DC, symSize: 0xF8 }
  - { offset: 0xCA4EF, size: 0x8, addend: 0x0, symName: __RNvXNtNtNtCsfvfooZQ3Axs_4core4iter6traits7collectINtNtNtB6_8adapters3rev3RevINtNtNtB8_5slice4iter4IterhEENtB2_12IntoIterator9into_iterCs6IAuOt8vWmF_3syn, symObjAddr: 0x5FF0, symBinAddr: 0x4FC50, symSize: 0x1C }
  - { offset: 0xCA55D, size: 0x8, addend: 0x0, symName: __RNvYINtNtCsfvfooZQ3Axs_4core6option8IntoIterQNtNtCs6IAuOt8vWmF_3syn4path11PathSegmentENtNtNtNtB7_4iter6traits10exact_size17ExactSizeIterator3lenBL_, symObjAddr: 0xEDC4, symBinAddr: 0x516A4, symSize: 0xF4 }
  - { offset: 0xCA650, size: 0x8, addend: 0x0, symName: __RNvYINtNtCsfvfooZQ3Axs_4core6option8IntoIterRNtNtCs6IAuOt8vWmF_3syn4path11PathSegmentENtNtNtNtB7_4iter6traits10exact_size17ExactSizeIterator3lenBL_, symObjAddr: 0xF194, symBinAddr: 0x51798, symSize: 0xF4 }
  - { offset: 0xCA743, size: 0x8, addend: 0x0, symName: __RNvYINtNtCsfvfooZQ3Axs_4core6option8IntoIterRNtNtCs6IAuOt8vWmF_3syn8generics14TypeParamBoundENtNtNtNtB7_4iter6traits10exact_size17ExactSizeIterator3lenBL_, symObjAddr: 0xF37C, symBinAddr: 0x5188C, symSize: 0xF4 }
  - { offset: 0xCA848, size: 0x8, addend: 0x0, symName: __RNvXs_NtNtNtCsfvfooZQ3Axs_4core4iter8adapters3revINtB4_3RevINtNtNtBa_5slice4iter4IterhEENtNtNtB8_6traits8iterator8Iterator4nextCs6IAuOt8vWmF_3syn, symObjAddr: 0xB784, symBinAddr: 0x5112C, symSize: 0x24 }
  - { offset: 0xCAF81, size: 0x8, addend: 0x0, symName: __RNvXs_NtNtCsfvfooZQ3Axs_4core3ops11index_rangeNtB4_10IndexRangeNtNtNtNtB8_4iter6traits8iterator8Iterator4nextCs6IAuOt8vWmF_3syn, symObjAddr: 0xB6C8, symBinAddr: 0x51070, symSize: 0xBC }
  - { offset: 0xCD61C, size: 0x8, addend: 0x0, symName: __RNvXsl_NtNtCs6IAuOt8vWmF_3syn2ty7parsingINtNtCsfvfooZQ3Axs_4core6option6OptionNtB7_3AbiENtNtB9_5parse5Parse5parse, symObjAddr: 0x115DC, symBinAddr: 0x53AEC, symSize: 0x98 }
  - { offset: 0xCE690, size: 0x8, addend: 0x0, symName: __RNvXso_NtNtCs6IAuOt8vWmF_3syn4expr7parsingINtNtCsfvfooZQ3Axs_4core6option6OptionNtB7_5LabelENtNtB9_5parse5Parse5parse, symObjAddr: 0xF4AC, symBinAddr: 0x519BC, symSize: 0xA4 }
  - { offset: 0xCE836, size: 0x8, addend: 0x0, symName: __RNCNvXNtNtCs6IAuOt8vWmF_3syn4attr8printingNtB6_9AttributeNtNtCs2cqEZUIJimJ_5quote9to_tokens8ToTokens9to_tokens0B8_, symObjAddr: 0xF470, symBinAddr: 0x51980, symSize: 0x3C }
  - { offset: 0xD0611, size: 0x8, addend: 0x0, symName: __RNCNvXs_NtNtCs6IAuOt8vWmF_3syn11restriction8printingNtB8_13VisRestrictedNtNtCs2cqEZUIJimJ_5quote9to_tokens8ToTokens9to_tokens0Ba_, symObjAddr: 0x1155C, symBinAddr: 0x53A6C, symSize: 0x80 }
  - { offset: 0xD0B0F, size: 0x8, addend: 0x0, symName: __RNvXs2_NtNtCs6IAuOt8vWmF_3syn8generics7parsingINtNtCsfvfooZQ3Axs_4core6option6OptionNtB7_14BoundLifetimesENtNtB9_5parse5Parse5parse, symObjAddr: 0xF550, symBinAddr: 0x51A60, symSize: 0x98 }
  - { offset: 0xD0B43, size: 0x8, addend: 0x0, symName: __RNvXsb_NtNtCs6IAuOt8vWmF_3syn8generics7parsingINtNtCsfvfooZQ3Axs_4core6option6OptionNtB7_11WhereClauseENtNtB9_5parse5Parse5parse, symObjAddr: 0xF5E8, symBinAddr: 0x51AF8, symSize: 0x98 }
  - { offset: 0xD1320, size: 0x8, addend: 0x0, symName: __RNvXsb_NtCs6IAuOt8vWmF_3syn5parseINtNtCsfvfooZQ3Axs_4core6option6OptionNtCs3cP53eQoTwO_11proc_macro25IdentENtB5_5Parse5parseB7_, symObjAddr: 0xF680, symBinAddr: 0x51B90, symSize: 0x12C }
  - { offset: 0xD1376, size: 0x8, addend: 0x0, symName: __RNvXsb_NtCs6IAuOt8vWmF_3syn5parseINtNtCsfvfooZQ3Axs_4core6option6OptionNtNtB7_3lit3LitENtB5_5Parse5parseB7_, symObjAddr: 0xF7AC, symBinAddr: 0x51CBC, symSize: 0x130 }
  - { offset: 0xD13CC, size: 0x8, addend: 0x0, symName: __RNvXsb_NtCs6IAuOt8vWmF_3syn5parseINtNtCsfvfooZQ3Axs_4core6option6OptionNtNtB7_3lit6LitStrENtB5_5Parse5parseB7_, symObjAddr: 0xF8DC, symBinAddr: 0x51DEC, symSize: 0x110 }
  - { offset: 0xD1421, size: 0x8, addend: 0x0, symName: __RNvXsb_NtCs6IAuOt8vWmF_3syn5parseINtNtCsfvfooZQ3Axs_4core6option6OptionNtNtB7_3lit8LitFloatENtB5_5Parse5parseB7_, symObjAddr: 0xF9EC, symBinAddr: 0x51EFC, symSize: 0x110 }
  - { offset: 0xD1476, size: 0x8, addend: 0x0, symName: __RNvXsb_NtCs6IAuOt8vWmF_3syn5parseINtNtCsfvfooZQ3Axs_4core6option6OptionNtNtB7_5token2EqENtB5_5Parse5parseB7_, symObjAddr: 0xFAFC, symBinAddr: 0x5200C, symSize: 0x11C }
  - { offset: 0xD14CB, size: 0x8, addend: 0x0, symName: __RNvXsb_NtCs6IAuOt8vWmF_3syn5parseINtNtCsfvfooZQ3Axs_4core6option6OptionNtNtB7_5token2OrENtB5_5Parse5parseB7_, symObjAddr: 0xFC18, symBinAddr: 0x52128, symSize: 0x11C }
  - { offset: 0xD1520, size: 0x8, addend: 0x0, symName: __RNvXsb_NtCs6IAuOt8vWmF_3syn5parseINtNtCsfvfooZQ3Axs_4core6option6OptionNtNtB7_5token3BoxENtB5_5Parse5parseB7_, symObjAddr: 0xFD34, symBinAddr: 0x52244, symSize: 0x128 }
  - { offset: 0xD1575, size: 0x8, addend: 0x0, symName: __RNvXsb_NtCs6IAuOt8vWmF_3syn5parseINtNtCsfvfooZQ3Axs_4core6option6OptionNtNtB7_5token3DynENtB5_5Parse5parseB7_, symObjAddr: 0xFE5C, symBinAddr: 0x5236C, symSize: 0x128 }
  - { offset: 0xD15CA, size: 0x8, addend: 0x0, symName: __RNvXsb_NtCs6IAuOt8vWmF_3syn5parseINtNtCsfvfooZQ3Axs_4core6option6OptionNtNtB7_5token3MutENtB5_5Parse5parseB7_, symObjAddr: 0xFF84, symBinAddr: 0x52494, symSize: 0x128 }
  - { offset: 0xD161F, size: 0x8, addend: 0x0, symName: __RNvXsb_NtCs6IAuOt8vWmF_3syn5parseINtNtCsfvfooZQ3Axs_4core6option6OptionNtNtB7_5token3RefENtB5_5Parse5parseB7_, symObjAddr: 0x100AC, symBinAddr: 0x525BC, symSize: 0x128 }
  - { offset: 0xD1674, size: 0x8, addend: 0x0, symName: __RNvXsb_NtCs6IAuOt8vWmF_3syn5parseINtNtCsfvfooZQ3Axs_4core6option6OptionNtNtB7_5token4AutoENtB5_5Parse5parseB7_, symObjAddr: 0x101D4, symBinAddr: 0x526E4, symSize: 0x128 }
  - { offset: 0xD16C9, size: 0x8, addend: 0x0, symName: __RNvXsb_NtCs6IAuOt8vWmF_3syn5parseINtNtCsfvfooZQ3Axs_4core6option6OptionNtNtB7_5token4MoveENtB5_5Parse5parseB7_, symObjAddr: 0x102FC, symBinAddr: 0x5280C, symSize: 0x128 }
  - { offset: 0xD171E, size: 0x8, addend: 0x0, symName: __RNvXsb_NtCs6IAuOt8vWmF_3syn5parseINtNtCsfvfooZQ3Axs_4core6option6OptionNtNtB7_5token4PlusENtB5_5Parse5parseB7_, symObjAddr: 0x10424, symBinAddr: 0x52934, symSize: 0x11C }
  - { offset: 0xD1773, size: 0x8, addend: 0x0, symName: __RNvXsb_NtCs6IAuOt8vWmF_3syn5parseINtNtCsfvfooZQ3Axs_4core6option6OptionNtNtB7_5token4SemiENtB5_5Parse5parseB7_, symObjAddr: 0x10540, symBinAddr: 0x52A50, symSize: 0x11C }
  - { offset: 0xD17C8, size: 0x8, addend: 0x0, symName: __RNvXsb_NtCs6IAuOt8vWmF_3syn5parseINtNtCsfvfooZQ3Axs_4core6option6OptionNtNtB7_5token4StarENtB5_5Parse5parseB7_, symObjAddr: 0x1065C, symBinAddr: 0x52B6C, symSize: 0x11C }
  - { offset: 0xD181D, size: 0x8, addend: 0x0, symName: __RNvXsb_NtCs6IAuOt8vWmF_3syn5parseINtNtCsfvfooZQ3Axs_4core6option6OptionNtNtB7_5token5AsyncENtB5_5Parse5parseB7_, symObjAddr: 0x10778, symBinAddr: 0x52C88, symSize: 0x128 }
  - { offset: 0xD1872, size: 0x8, addend: 0x0, symName: __RNvXsb_NtCs6IAuOt8vWmF_3syn5parseINtNtCsfvfooZQ3Axs_4core6option6OptionNtNtB7_5token5AwaitENtB5_5Parse5parseB7_, symObjAddr: 0x108A0, symBinAddr: 0x52DB0, symSize: 0x128 }
  - { offset: 0xD18C7, size: 0x8, addend: 0x0, symName: __RNvXsb_NtCs6IAuOt8vWmF_3syn5parseINtNtCsfvfooZQ3Axs_4core6option6OptionNtNtB7_5token5ColonENtB5_5Parse5parseB7_, symObjAddr: 0x109C8, symBinAddr: 0x52ED8, symSize: 0x11C }
  - { offset: 0xD191C, size: 0x8, addend: 0x0, symName: __RNvXsb_NtCs6IAuOt8vWmF_3syn5parseINtNtCsfvfooZQ3Axs_4core6option6OptionNtNtB7_5token5CommaENtB5_5Parse5parseB7_, symObjAddr: 0x10AE4, symBinAddr: 0x52FF4, symSize: 0x11C }
  - { offset: 0xD1971, size: 0x8, addend: 0x0, symName: __RNvXsb_NtCs6IAuOt8vWmF_3syn5parseINtNtCsfvfooZQ3Axs_4core6option6OptionNtNtB7_5token5ConstENtB5_5Parse5parseB7_, symObjAddr: 0x10C00, symBinAddr: 0x53110, symSize: 0x128 }
  - { offset: 0xD19C6, size: 0x8, addend: 0x0, symName: __RNvXsb_NtCs6IAuOt8vWmF_3syn5parseINtNtCsfvfooZQ3Axs_4core6option6OptionNtNtB7_5token6StaticENtB5_5Parse5parseB7_, symObjAddr: 0x10D28, symBinAddr: 0x53238, symSize: 0x128 }
  - { offset: 0xD1A1B, size: 0x8, addend: 0x0, symName: __RNvXsb_NtCs6IAuOt8vWmF_3syn5parseINtNtCsfvfooZQ3Axs_4core6option6OptionNtNtB7_5token6UnsafeENtB5_5Parse5parseB7_, symObjAddr: 0x10E50, symBinAddr: 0x53360, symSize: 0x128 }
  - { offset: 0xD1A70, size: 0x8, addend: 0x0, symName: __RNvXsb_NtCs6IAuOt8vWmF_3syn5parseINtNtCsfvfooZQ3Axs_4core6option6OptionNtNtB7_5token7DefaultENtB5_5Parse5parseB7_, symObjAddr: 0x10F78, symBinAddr: 0x53488, symSize: 0x128 }
  - { offset: 0xD1AC5, size: 0x8, addend: 0x0, symName: __RNvXsb_NtCs6IAuOt8vWmF_3syn5parseINtNtCsfvfooZQ3Axs_4core6option6OptionNtNtB7_5token7PathSepENtB5_5Parse5parseB7_, symObjAddr: 0x110A0, symBinAddr: 0x535B0, symSize: 0x130 }
  - { offset: 0xD1B1A, size: 0x8, addend: 0x0, symName: __RNvXsb_NtCs6IAuOt8vWmF_3syn5parseINtNtCsfvfooZQ3Axs_4core6option6OptionNtNtB7_5token8QuestionENtB5_5Parse5parseB7_, symObjAddr: 0x111D0, symBinAddr: 0x536E0, symSize: 0x11C }
  - { offset: 0xD1B6F, size: 0x8, addend: 0x0, symName: __RNvXsb_NtCs6IAuOt8vWmF_3syn5parseINtNtCsfvfooZQ3Axs_4core6option6OptionNtNtB7_5token9DotDotDotENtB5_5Parse5parseB7_, symObjAddr: 0x112EC, symBinAddr: 0x537FC, symSize: 0x130 }
  - { offset: 0xD1BC4, size: 0x8, addend: 0x0, symName: __RNvXsb_NtCs6IAuOt8vWmF_3syn5parseINtNtCsfvfooZQ3Axs_4core6option6OptionNtNtB7_8lifetime8LifetimeENtB5_5Parse5parseB7_, symObjAddr: 0x1141C, symBinAddr: 0x5392C, symSize: 0x140 }
  - { offset: 0xD35E4, size: 0x8, addend: 0x0, symName: __RNvXsF_NtCse1nGBsou5OW_5alloc6stringNtNtCsfvfooZQ3Axs_4core3fmt9ArgumentsNtB5_12SpecToString14spec_to_stringCs6IAuOt8vWmF_3syn, symObjAddr: 0x94B0, symBinAddr: 0x50F58, symSize: 0x48 }
  - { offset: 0xD3618, size: 0x8, addend: 0x0, symName: __RNvXsw_NtCse1nGBsou5OW_5alloc6stringNtNtCsfvfooZQ3Axs_4core3fmt9ArgumentsNtB5_8ToString9to_stringCs6IAuOt8vWmF_3syn, symObjAddr: 0xECAC, symBinAddr: 0x51680, symSize: 0x24 }
  - { offset: 0xD3656, size: 0x8, addend: 0x0, symName: __RNvNtCse1nGBsou5OW_5alloc3fmt6formatCs6IAuOt8vWmF_3syn, symObjAddr: 0x5E3C, symBinAddr: 0x4FA9C, symSize: 0xD4 }
  - { offset: 0xD3D6C, size: 0x8, addend: 0x0, symName: __RINvMNtCsfvfooZQ3Axs_4core6optionINtB3_6OptionINtNtCs6IAuOt8vWmF_3syn10punctuated4PairNtNtBN_4path11PathSegmentNtNtBN_5token7PathSepEE7or_elseNCNvXsj_BL_INtBL_9IntoPairsB1m_B1L_ENtNtNtNtB5_4iter6traits8iterator8Iterator4nexts_0EBN_, symObjAddr: 0x0, symBinAddr: 0x4AE4C, symSize: 0xD8 }
  - { offset: 0xD3DDC, size: 0x8, addend: 0x0, symName: __RINvMNtCsfvfooZQ3Axs_4core6optionINtB3_6OptionINtNtCs6IAuOt8vWmF_3syn10punctuated4PairRNtNtBN_2ty4TypeRNtNtBN_5token5CommaEE7or_elseNCNvXsc_BL_INtBL_5PairsB1n_B1D_ENtNtNtNtB5_4iter6traits8iterator8Iterator4nexts_0EBN_, symObjAddr: 0xD8, symBinAddr: 0x4AF24, symSize: 0xB4 }
  - { offset: 0xD3E59, size: 0x8, addend: 0x0, symName: __RINvMNtCsfvfooZQ3Axs_4core6optionINtB3_6OptionINtNtCs6IAuOt8vWmF_3syn10punctuated4PairRNtNtBN_2ty9BareFnArgRNtNtBN_5token5CommaEE7or_elseNCNvXsc_BL_INtBL_5PairsB1n_B1I_ENtNtNtNtB5_4iter6traits8iterator8Iterator4nexts_0EBN_, symObjAddr: 0x18C, symBinAddr: 0x4AFD8, symSize: 0xB4 }
  - { offset: 0xD3ED6, size: 0x8, addend: 0x0, symName: __RINvMNtCsfvfooZQ3Axs_4core6optionINtB3_6OptionINtNtCs6IAuOt8vWmF_3syn10punctuated4PairRNtNtBN_3pat3PatRNtNtBN_5token2OrEE7or_elseNCNvXsc_BL_INtBL_5PairsB1n_B1D_ENtNtNtNtB5_4iter6traits8iterator8Iterator4nexts_0EBN_, symObjAddr: 0x240, symBinAddr: 0x4B08C, symSize: 0xB4 }
  - { offset: 0xD3F39, size: 0x8, addend: 0x0, symName: __RINvMNtCsfvfooZQ3Axs_4core6optionINtB3_6OptionINtNtCs6IAuOt8vWmF_3syn10punctuated4PairRNtNtBN_3pat3PatRNtNtBN_5token5CommaEE7or_elseNCNvXsc_BL_INtBL_5PairsB1n_B1D_ENtNtNtNtB5_4iter6traits8iterator8Iterator4nexts_0EBN_, symObjAddr: 0x2F4, symBinAddr: 0x4B140, symSize: 0xB4 }
  - { offset: 0xD3FB6, size: 0x8, addend: 0x0, symName: __RINvMNtCsfvfooZQ3Axs_4core6optionINtB3_6OptionINtNtCs6IAuOt8vWmF_3syn10punctuated4PairRNtNtBN_3pat8FieldPatRNtNtBN_5token5CommaEE7or_elseNCNvXsc_BL_INtBL_5PairsB1n_B1I_ENtNtNtNtB5_4iter6traits8iterator8Iterator4nexts_0EBN_, symObjAddr: 0x3A8, symBinAddr: 0x4B1F4, symSize: 0xB4 }
  - { offset: 0xD4033, size: 0x8, addend: 0x0, symName: __RINvMNtCsfvfooZQ3Axs_4core6optionINtB3_6OptionINtNtCs6IAuOt8vWmF_3syn10punctuated4PairRNtNtBN_4data5FieldRNtNtBN_5token5CommaEE7or_elseNCNvXsc_BL_INtBL_5PairsB1n_B1G_ENtNtNtNtB5_4iter6traits8iterator8Iterator4nexts_0EBN_, symObjAddr: 0x45C, symBinAddr: 0x4B2A8, symSize: 0xB4 }
  - { offset: 0xD40B0, size: 0x8, addend: 0x0, symName: __RINvMNtCsfvfooZQ3Axs_4core6optionINtB3_6OptionINtNtCs6IAuOt8vWmF_3syn10punctuated4PairRNtNtBN_4data7VariantRNtNtBN_5token5CommaEE7or_elseNCNvXsc_BL_INtBL_5PairsB1n_B1I_ENtNtNtNtB5_4iter6traits8iterator8Iterator4nexts_0EBN_, symObjAddr: 0x510, symBinAddr: 0x4B35C, symSize: 0xB4 }
  - { offset: 0xD412D, size: 0x8, addend: 0x0, symName: __RINvMNtCsfvfooZQ3Axs_4core6optionINtB3_6OptionINtNtCs6IAuOt8vWmF_3syn10punctuated4PairRNtNtBN_4expr10FieldValueRNtNtBN_5token5CommaEE7or_elseNCNvXsc_BL_INtBL_5PairsB1n_B1M_ENtNtNtNtB5_4iter6traits8iterator8Iterator4nexts_0EBN_, symObjAddr: 0x5C4, symBinAddr: 0x4B410, symSize: 0xB4 }
  - { offset: 0xD419D, size: 0x8, addend: 0x0, symName: __RINvMNtCsfvfooZQ3Axs_4core6optionINtB3_6OptionINtNtCs6IAuOt8vWmF_3syn10punctuated4PairRNtNtBN_4expr4ExprRNtNtBN_5token5CommaEE7or_elseNCNvXsc_BL_INtBL_5PairsB1n_B1F_ENtNtNtNtB5_4iter6traits8iterator8Iterator4nexts_0EBN_, symObjAddr: 0x678, symBinAddr: 0x4B4C4, symSize: 0xB4 }
  - { offset: 0xD421A, size: 0x8, addend: 0x0, symName: __RINvMNtCsfvfooZQ3Axs_4core6optionINtB3_6OptionINtNtCs6IAuOt8vWmF_3syn10punctuated4PairRNtNtBN_4item5FnArgRNtNtBN_5token5CommaEE7or_elseNCNvXsc_BL_INtBL_5PairsB1n_B1G_ENtNtNtNtB5_4iter6traits8iterator8Iterator4nexts_0EBN_, symObjAddr: 0x72C, symBinAddr: 0x4B578, symSize: 0xB4 }
  - { offset: 0xD4297, size: 0x8, addend: 0x0, symName: __RINvMNtCsfvfooZQ3Axs_4core6optionINtB3_6OptionINtNtCs6IAuOt8vWmF_3syn10punctuated4PairRNtNtBN_4item7UseTreeRNtNtBN_5token5CommaEE7or_elseNCNvXsc_BL_INtBL_5PairsB1n_B1I_ENtNtNtNtB5_4iter6traits8iterator8Iterator4nexts_0EBN_, symObjAddr: 0x7E0, symBinAddr: 0x4B62C, symSize: 0xB4 }
  - { offset: 0xD4314, size: 0x8, addend: 0x0, symName: __RINvMNtCsfvfooZQ3Axs_4core6optionINtB3_6OptionINtNtCs6IAuOt8vWmF_3syn10punctuated4PairRNtNtBN_4path11PathSegmentRNtNtBN_5token7PathSepEE7or_elseNCNvXsc_BL_INtBL_5PairsB1n_B1N_ENtNtNtNtB5_4iter6traits8iterator8Iterator4nexts_0EBN_, symObjAddr: 0x894, symBinAddr: 0x4B6E0, symSize: 0xB4 }
  - { offset: 0xD4391, size: 0x8, addend: 0x0, symName: __RINvMNtCsfvfooZQ3Axs_4core6optionINtB3_6OptionINtNtCs6IAuOt8vWmF_3syn10punctuated4PairRNtNtBN_4path15GenericArgumentRNtNtBN_5token5CommaEE7or_elseNCNvXsc_BL_INtBL_5PairsB1n_B1R_ENtNtNtNtB5_4iter6traits8iterator8Iterator4nexts_0EBN_, symObjAddr: 0x948, symBinAddr: 0x4B794, symSize: 0xB4 }
  - { offset: 0xD440E, size: 0x8, addend: 0x0, symName: __RINvMNtCsfvfooZQ3Axs_4core6optionINtB3_6OptionINtNtCs6IAuOt8vWmF_3syn10punctuated4PairRNtNtBN_8generics12GenericParamRNtNtBN_5token5CommaEE7or_elseNCNvXsc_BL_INtBL_5PairsB1n_B1S_ENtNtNtNtB5_4iter6traits8iterator8Iterator4nexts_0EBN_, symObjAddr: 0x9FC, symBinAddr: 0x4B848, symSize: 0xB4 }
  - { offset: 0xD448B, size: 0x8, addend: 0x0, symName: __RINvMNtCsfvfooZQ3Axs_4core6optionINtB3_6OptionINtNtCs6IAuOt8vWmF_3syn10punctuated4PairRNtNtBN_8generics13CapturedParamRNtNtBN_5token5CommaEE7or_elseNCNvXsc_BL_INtBL_5PairsB1n_B1T_ENtNtNtNtB5_4iter6traits8iterator8Iterator4nexts_0EBN_, symObjAddr: 0xAB0, symBinAddr: 0x4B8FC, symSize: 0xB4 }
  - { offset: 0xD4515, size: 0x8, addend: 0x0, symName: __RINvMNtCsfvfooZQ3Axs_4core6optionINtB3_6OptionINtNtCs6IAuOt8vWmF_3syn10punctuated4PairRNtNtBN_8generics14TypeParamBoundRNtNtBN_5token4PlusEE7or_elseNCNvXsc_BL_INtBL_5PairsB1n_B1U_ENtNtNtNtB5_4iter6traits8iterator8Iterator4nexts_0EBN_, symObjAddr: 0xB64, symBinAddr: 0x4B9B0, symSize: 0xB4 }
  - { offset: 0xD4592, size: 0x8, addend: 0x0, symName: __RINvMNtCsfvfooZQ3Axs_4core6optionINtB3_6OptionINtNtCs6IAuOt8vWmF_3syn10punctuated4PairRNtNtBN_8generics14WherePredicateRNtNtBN_5token5CommaEE7or_elseNCNvXsc_BL_INtBL_5PairsB1n_B1U_ENtNtNtNtB5_4iter6traits8iterator8Iterator4nexts_0EBN_, symObjAddr: 0xC18, symBinAddr: 0x4BA64, symSize: 0xB4 }
  - { offset: 0xD4602, size: 0x8, addend: 0x0, symName: __RINvMNtCsfvfooZQ3Axs_4core6optionINtB3_6OptionINtNtCs6IAuOt8vWmF_3syn10punctuated4PairRNtNtBN_8lifetime8LifetimeRNtNtBN_5token4PlusEE7or_elseNCNvXsc_BL_INtBL_5PairsB1n_B1N_ENtNtNtNtB5_4iter6traits8iterator8Iterator4nexts_0EBN_, symObjAddr: 0xCCC, symBinAddr: 0x4BB18, symSize: 0xB4 }
  - { offset: 0xD4665, size: 0x8, addend: 0x0, symName: __RINvMNtCsfvfooZQ3Axs_4core6optionINtB3_6OptionINtNtCse1nGBsou5OW_5alloc5boxed3BoxNtNtCs6IAuOt8vWmF_3syn4path11PathSegmentEE3mapB1h_NCNvMNtB1l_10punctuatedINtB2a_10PunctuatedB1h_NtNtB1l_5token7PathSepE10into_pairs0EB1l_, symObjAddr: 0xE70, symBinAddr: 0x4BBCC, symSize: 0x74 }
  - { offset: 0xD46D0, size: 0x8, addend: 0x0, symName: __RINvMNtCsfvfooZQ3Axs_4core6optionINtB3_6OptionINtNtCse1nGBsou5OW_5alloc5boxed3BoxNtNtCs6IAuOt8vWmF_3syn4path11PathSegmentEE3mapINtNtB1l_10punctuated4PairB1h_NtNtB1l_5token7PathSepENCNvMB24_INtB24_10PunctuatedB1h_B2v_E3pop0EB1l_, symObjAddr: 0xEE4, symBinAddr: 0x4BC40, symSize: 0x70 }
  - { offset: 0xD473B, size: 0x8, addend: 0x0, symName: __RINvMNtCsfvfooZQ3Axs_4core6optionINtB3_6OptionINtNtCse1nGBsou5OW_5alloc5boxed3BoxNtNtCs6IAuOt8vWmF_3syn8generics14TypeParamBoundEE3mapB1h_NCNvXs8_NtB1l_10punctuatedINtB2k_10PunctuatedB1h_NtNtB1l_5token4PlusENtNtNtNtB5_4iter6traits7collect12IntoIterator9into_iters_0EB1l_, symObjAddr: 0xF54, symBinAddr: 0x4BCB0, symSize: 0x70 }
  - { offset: 0xD47B8, size: 0x8, addend: 0x0, symName: __RINvMNtCsfvfooZQ3Axs_4core6optionINtB3_6OptionNtCs3cP53eQoTwO_11proc_macro29TokenTreeE11map_or_elseNtBK_4SpanNvMse_BK_B1z_9call_siteNCNvNvMNtCs6IAuOt8vWmF_3syn5errorNtB2d_5Error11new_spanned11new_spanned0EB2f_, symObjAddr: 0xFC4, symBinAddr: 0x4BD20, symSize: 0xE4 }
  - { offset: 0xD4834, size: 0x8, addend: 0x0, symName: __RINvMNtCsfvfooZQ3Axs_4core6optionINtB3_6OptionNtCs3cP53eQoTwO_11proc_macro29TokenTreeE6map_orNtBK_4SpanNCNvNvMNtCs6IAuOt8vWmF_3syn5errorNtB1K_5Error11new_spanned11new_spanneds_0EB1M_, symObjAddr: 0x10A8, symBinAddr: 0x4BE04, symSize: 0xC8 }
  - { offset: 0xD48BF, size: 0x8, addend: 0x0, symName: __RINvMNtCsfvfooZQ3Axs_4core6optionINtB3_6OptionNtNtCs3cP53eQoTwO_11proc_macro28fallback4SpanE3mapNtNtBM_3imp4SpanNcNtB1w_8Fallback0ECs6IAuOt8vWmF_3syn, symObjAddr: 0x1170, symBinAddr: 0x4BECC, symSize: 0x4C }
  - { offset: 0xD4942, size: 0x8, addend: 0x0, symName: __RINvMNtCsfvfooZQ3Axs_4core6optionINtB3_6OptionNtNtCs6IAuOt8vWmF_3syn4path11PathSegmentE3mapINtNtBM_10punctuated4PairBI_NtNtBM_5token7PathSepENcNtB1r_3End0EBM_, symObjAddr: 0x11BC, symBinAddr: 0x4BF18, symSize: 0xAC }
  - { offset: 0xD49C6, size: 0x8, addend: 0x0, symName: __RINvMNtCsfvfooZQ3Axs_4core6optionINtB3_6OptionNtNtCs6IAuOt8vWmF_3syn5token3MutE6map_orNtNtBM_4item16StaticMutabilityNcNtB1m_3Mut0EBM_, symObjAddr: 0x1268, symBinAddr: 0x4BFC4, symSize: 0xC4 }
  - { offset: 0xD4A38, size: 0x8, addend: 0x0, symName: __RINvMNtCsfvfooZQ3Axs_4core6optionINtB3_6OptionNtNtCs6IAuOt8vWmF_3syn5token5BraceE3mapNtNtBM_4stmt5BlockNCNvXsp_NtNtBM_4item7parsingNtB1N_11TraitItemFnNtNtBM_5parse5Parse5parse0EBM_, symObjAddr: 0x132C, symBinAddr: 0x4C088, symSize: 0xAC }
  - { offset: 0xD4ADE, size: 0x8, addend: 0x0, symName: __RINvMNtCsfvfooZQ3Axs_4core6optionINtB3_6OptionNtNtCs6IAuOt8vWmF_3syn6buffer6CursorE6map_orbFG_IBI_L0_EEbEBM_, symObjAddr: 0x13D8, symBinAddr: 0x4C134, symSize: 0xBC }
  - { offset: 0xD4B69, size: 0x8, addend: 0x0, symName: __RINvMNtCsfvfooZQ3Axs_4core6optionINtB3_6OptionNtNtCs6IAuOt8vWmF_3syn6buffer6CursorE8and_thenBI_NvMs_BK_BI_4skipEBM_, symObjAddr: 0x1494, symBinAddr: 0x4C1F0, symSize: 0x58 }
  - { offset: 0xD4C32, size: 0x8, addend: 0x0, symName: __RINvMNtCsfvfooZQ3Axs_4core6optionINtB3_6OptionNtNtNtCs6IAuOt8vWmF_3syn3pat7parsing13PatRangeBoundE3mapINtNtCse1nGBsou5OW_5alloc5boxed3BoxNtNtBO_4expr4ExprENvMs0_BK_BI_9into_exprEBO_, symObjAddr: 0x1624, symBinAddr: 0x4C248, symSize: 0x8C }
  - { offset: 0xD4D02, size: 0x8, addend: 0x0, symName: __RINvMNtCsfvfooZQ3Axs_4core6optionINtB3_6OptionQINtNtCse1nGBsou5OW_5alloc5boxed3BoxNtNtCs6IAuOt8vWmF_3syn4path11PathSegmentEE3mapQB1i_NvYBJ_INtNtB5_7convert5AsMutB1i_E6as_mutEB1m_, symObjAddr: 0x1700, symBinAddr: 0x4C2D4, symSize: 0x50 }
  - { offset: 0xD4DED, size: 0x8, addend: 0x0, symName: __RINvMNtCsfvfooZQ3Axs_4core6optionINtB3_6OptionQNtNtCs6IAuOt8vWmF_3syn4path11PathSegmentE7or_elseNCNvXsF_NtBN_10punctuatedINtB1E_14PrivateIterMutBJ_NtNtBN_5token7PathSepENtNtNtNtB5_4iter6traits8iterator8Iterator4nexts_0EBN_, symObjAddr: 0x18F0, symBinAddr: 0x4C324, symSize: 0xA8 }
  - { offset: 0xD4E83, size: 0x8, addend: 0x0, symName: __RINvMNtCsfvfooZQ3Axs_4core6optionINtB3_6OptionQNtNtCs6IAuOt8vWmF_3syn4path11PathSegmentE7or_elseNCNvXsG_NtBN_10punctuatedINtB1E_14PrivateIterMutBJ_NtNtBN_5token7PathSepENtNtNtNtB5_4iter6traits12double_ended19DoubleEndedIterator9next_back0EBN_, symObjAddr: 0x1998, symBinAddr: 0x4C3CC, symSize: 0xA8 }
  - { offset: 0xD4F26, size: 0x8, addend: 0x0, symName: __RINvMNtCsfvfooZQ3Axs_4core6optionINtB3_6OptionQTNtNtCs6IAuOt8vWmF_3syn4path11PathSegmentNtNtBO_5token7PathSepEE3mapQBK_NCNCNvXsG_NtBO_10punctuatedINtB23_14PrivateIterMutBK_B1o_ENtNtNtNtB5_4iter6traits12double_ended19DoubleEndedIterator9next_back00EBO_, symObjAddr: 0x1C30, symBinAddr: 0x4C474, symSize: 0x50 }
  - { offset: 0xD4F91, size: 0x8, addend: 0x0, symName: __RINvMNtCsfvfooZQ3Axs_4core6optionINtB3_6OptionQTNtNtCs6IAuOt8vWmF_3syn4path11PathSegmentNtNtBO_5token7PathSepEE3mapQBK_NCNvXsF_NtBO_10punctuatedINtB21_14PrivateIterMutBK_B1o_ENtNtNtNtB5_4iter6traits8iterator8Iterator4next0EBO_, symObjAddr: 0x1C80, symBinAddr: 0x4C4C4, symSize: 0x50 }
  - { offset: 0xD5021, size: 0x8, addend: 0x0, symName: __RINvMNtCsfvfooZQ3Axs_4core6optionINtB3_6OptionRINtNtCse1nGBsou5OW_5alloc5boxed3BoxNtNtCs6IAuOt8vWmF_3syn2ty4TypeEE3mapRB1i_NvYBJ_INtNtB5_7convert5AsRefB1i_E6as_refEB1m_, symObjAddr: 0x1D70, symBinAddr: 0x4C514, symSize: 0x50 }
  - { offset: 0xD50B1, size: 0x8, addend: 0x0, symName: __RINvMNtCsfvfooZQ3Axs_4core6optionINtB3_6OptionRINtNtCse1nGBsou5OW_5alloc5boxed3BoxNtNtCs6IAuOt8vWmF_3syn2ty9BareFnArgEE3mapRB1i_NvYBJ_INtNtB5_7convert5AsRefB1i_E6as_refEB1m_, symObjAddr: 0x1DC0, symBinAddr: 0x4C564, symSize: 0x50 }
  - { offset: 0xD5141, size: 0x8, addend: 0x0, symName: __RINvMNtCsfvfooZQ3Axs_4core6optionINtB3_6OptionRINtNtCse1nGBsou5OW_5alloc5boxed3BoxNtNtCs6IAuOt8vWmF_3syn3pat3PatEE3mapRB1i_NvYBJ_INtNtB5_7convert5AsRefB1i_E6as_refEB1m_, symObjAddr: 0x1E10, symBinAddr: 0x4C5B4, symSize: 0x50 }
  - { offset: 0xD51D1, size: 0x8, addend: 0x0, symName: __RINvMNtCsfvfooZQ3Axs_4core6optionINtB3_6OptionRINtNtCse1nGBsou5OW_5alloc5boxed3BoxNtNtCs6IAuOt8vWmF_3syn3pat8FieldPatEE3mapRB1i_NvYBJ_INtNtB5_7convert5AsRefB1i_E6as_refEB1m_, symObjAddr: 0x1E60, symBinAddr: 0x4C604, symSize: 0x50 }
  - { offset: 0xD5261, size: 0x8, addend: 0x0, symName: __RINvMNtCsfvfooZQ3Axs_4core6optionINtB3_6OptionRINtNtCse1nGBsou5OW_5alloc5boxed3BoxNtNtCs6IAuOt8vWmF_3syn4data5FieldEE3mapRB1i_NvYBJ_INtNtB5_7convert5AsRefB1i_E6as_refEB1m_, symObjAddr: 0x1EB0, symBinAddr: 0x4C654, symSize: 0x50 }
  - { offset: 0xD52F1, size: 0x8, addend: 0x0, symName: __RINvMNtCsfvfooZQ3Axs_4core6optionINtB3_6OptionRINtNtCse1nGBsou5OW_5alloc5boxed3BoxNtNtCs6IAuOt8vWmF_3syn4data7VariantEE3mapRB1i_NvYBJ_INtNtB5_7convert5AsRefB1i_E6as_refEB1m_, symObjAddr: 0x1F00, symBinAddr: 0x4C6A4, symSize: 0x50 }
  - { offset: 0xD5381, size: 0x8, addend: 0x0, symName: __RINvMNtCsfvfooZQ3Axs_4core6optionINtB3_6OptionRINtNtCse1nGBsou5OW_5alloc5boxed3BoxNtNtCs6IAuOt8vWmF_3syn4expr10FieldValueEE3mapRB1i_NvYBJ_INtNtB5_7convert5AsRefB1i_E6as_refEB1m_, symObjAddr: 0x1F50, symBinAddr: 0x4C6F4, symSize: 0x50 }
  - { offset: 0xD5404, size: 0x8, addend: 0x0, symName: __RINvMNtCsfvfooZQ3Axs_4core6optionINtB3_6OptionRINtNtCse1nGBsou5OW_5alloc5boxed3BoxNtNtCs6IAuOt8vWmF_3syn4expr4ExprEE3mapRB1i_NvYBJ_INtNtB5_7convert5AsRefB1i_E6as_refEB1m_, symObjAddr: 0x1FA0, symBinAddr: 0x4C744, symSize: 0x50 }
  - { offset: 0xD5494, size: 0x8, addend: 0x0, symName: __RINvMNtCsfvfooZQ3Axs_4core6optionINtB3_6OptionRINtNtCse1nGBsou5OW_5alloc5boxed3BoxNtNtCs6IAuOt8vWmF_3syn4item5FnArgEE3mapRB1i_NvYBJ_INtNtB5_7convert5AsRefB1i_E6as_refEB1m_, symObjAddr: 0x1FF0, symBinAddr: 0x4C794, symSize: 0x50 }
  - { offset: 0xD5524, size: 0x8, addend: 0x0, symName: __RINvMNtCsfvfooZQ3Axs_4core6optionINtB3_6OptionRINtNtCse1nGBsou5OW_5alloc5boxed3BoxNtNtCs6IAuOt8vWmF_3syn4item7UseTreeEE3mapRB1i_NvYBJ_INtNtB5_7convert5AsRefB1i_E6as_refEB1m_, symObjAddr: 0x2040, symBinAddr: 0x4C7E4, symSize: 0x50 }
  - { offset: 0xD55B4, size: 0x8, addend: 0x0, symName: __RINvMNtCsfvfooZQ3Axs_4core6optionINtB3_6OptionRINtNtCse1nGBsou5OW_5alloc5boxed3BoxNtNtCs6IAuOt8vWmF_3syn4path11PathSegmentEE3mapRB1i_NvYBJ_INtNtB5_7convert5AsRefB1i_E6as_refEB1m_, symObjAddr: 0x2090, symBinAddr: 0x4C834, symSize: 0x50 }
  - { offset: 0xD5644, size: 0x8, addend: 0x0, symName: __RINvMNtCsfvfooZQ3Axs_4core6optionINtB3_6OptionRINtNtCse1nGBsou5OW_5alloc5boxed3BoxNtNtCs6IAuOt8vWmF_3syn4path15GenericArgumentEE3mapRB1i_NvYBJ_INtNtB5_7convert5AsRefB1i_E6as_refEB1m_, symObjAddr: 0x20E0, symBinAddr: 0x4C884, symSize: 0x50 }
  - { offset: 0xD56D4, size: 0x8, addend: 0x0, symName: __RINvMNtCsfvfooZQ3Axs_4core6optionINtB3_6OptionRINtNtCse1nGBsou5OW_5alloc5boxed3BoxNtNtCs6IAuOt8vWmF_3syn8generics12GenericParamEE3mapRB1i_NvYBJ_INtNtB5_7convert5AsRefB1i_E6as_refEB1m_, symObjAddr: 0x2130, symBinAddr: 0x4C8D4, symSize: 0x50 }
  - { offset: 0xD5764, size: 0x8, addend: 0x0, symName: __RINvMNtCsfvfooZQ3Axs_4core6optionINtB3_6OptionRINtNtCse1nGBsou5OW_5alloc5boxed3BoxNtNtCs6IAuOt8vWmF_3syn8generics13CapturedParamEE3mapRB1i_NvYBJ_INtNtB5_7convert5AsRefB1i_E6as_refEB1m_, symObjAddr: 0x2180, symBinAddr: 0x4C924, symSize: 0x50 }
  - { offset: 0xD57F4, size: 0x8, addend: 0x0, symName: __RINvMNtCsfvfooZQ3Axs_4core6optionINtB3_6OptionRINtNtCse1nGBsou5OW_5alloc5boxed3BoxNtNtCs6IAuOt8vWmF_3syn8generics14TypeParamBoundEE3mapRB1i_NvYBJ_INtNtB5_7convert5AsRefB1i_E6as_refEB1m_, symObjAddr: 0x21D0, symBinAddr: 0x4C974, symSize: 0x50 }
  - { offset: 0xD5884, size: 0x8, addend: 0x0, symName: __RINvMNtCsfvfooZQ3Axs_4core6optionINtB3_6OptionRINtNtCse1nGBsou5OW_5alloc5boxed3BoxNtNtCs6IAuOt8vWmF_3syn8generics14WherePredicateEE3mapRB1i_NvYBJ_INtNtB5_7convert5AsRefB1i_E6as_refEB1m_, symObjAddr: 0x2220, symBinAddr: 0x4C9C4, symSize: 0x50 }
  - { offset: 0xD5914, size: 0x8, addend: 0x0, symName: __RINvMNtCsfvfooZQ3Axs_4core6optionINtB3_6OptionRINtNtCse1nGBsou5OW_5alloc5boxed3BoxNtNtCs6IAuOt8vWmF_3syn8lifetime8LifetimeEE3mapRB1i_NvYBJ_INtNtB5_7convert5AsRefB1i_E6as_refEB1m_, symObjAddr: 0x2270, symBinAddr: 0x4CA14, symSize: 0x50 }
  - { offset: 0xD59B8, size: 0x8, addend: 0x0, symName: __RINvMNtCsfvfooZQ3Axs_4core6optionINtB3_6OptionRNtNtCs6IAuOt8vWmF_3syn2ty4TypeE3mapINtNtBN_10punctuated4PairBI_RNtNtBN_5token5CommaENcNtB1i_3End0EBN_, symObjAddr: 0x233C, symBinAddr: 0x4CA64, symSize: 0x68 }
  - { offset: 0xD5A3B, size: 0x8, addend: 0x0, symName: __RINvMNtCsfvfooZQ3Axs_4core6optionINtB3_6OptionRNtNtCs6IAuOt8vWmF_3syn2ty9BareFnArgE3mapINtNtBN_10punctuated4PairBI_RNtNtBN_5token5CommaENcNtB1n_3End0EBN_, symObjAddr: 0x23A4, symBinAddr: 0x4CACC, symSize: 0x68 }
  - { offset: 0xD5ABE, size: 0x8, addend: 0x0, symName: __RINvMNtCsfvfooZQ3Axs_4core6optionINtB3_6OptionRNtNtCs6IAuOt8vWmF_3syn3pat3PatE3mapINtNtBN_10punctuated4PairBI_RNtNtBN_5token2OrENcNtB1i_3End0EBN_, symObjAddr: 0x240C, symBinAddr: 0x4CB34, symSize: 0x68 }
  - { offset: 0xD5B41, size: 0x8, addend: 0x0, symName: __RINvMNtCsfvfooZQ3Axs_4core6optionINtB3_6OptionRNtNtCs6IAuOt8vWmF_3syn3pat3PatE3mapINtNtBN_10punctuated4PairBI_RNtNtBN_5token5CommaENcNtB1i_3End0EBN_, symObjAddr: 0x2474, symBinAddr: 0x4CB9C, symSize: 0x68 }
  - { offset: 0xD5BC4, size: 0x8, addend: 0x0, symName: __RINvMNtCsfvfooZQ3Axs_4core6optionINtB3_6OptionRNtNtCs6IAuOt8vWmF_3syn3pat8FieldPatE3mapINtNtBN_10punctuated4PairBI_RNtNtBN_5token5CommaENcNtB1n_3End0EBN_, symObjAddr: 0x24DC, symBinAddr: 0x4CC04, symSize: 0x68 }
  - { offset: 0xD5C47, size: 0x8, addend: 0x0, symName: __RINvMNtCsfvfooZQ3Axs_4core6optionINtB3_6OptionRNtNtCs6IAuOt8vWmF_3syn4data5FieldE3mapINtNtBN_10punctuated4PairBI_RNtNtBN_5token5CommaENcNtB1l_3End0EBN_, symObjAddr: 0x2544, symBinAddr: 0x4CC6C, symSize: 0x68 }
  - { offset: 0xD5CE4, size: 0x8, addend: 0x0, symName: __RINvMNtCsfvfooZQ3Axs_4core6optionINtB3_6OptionRNtNtCs6IAuOt8vWmF_3syn4data7VariantE3mapINtNtBN_10punctuated4PairBI_RNtNtBN_5token5CommaENcNtB1n_3End0EBN_, symObjAddr: 0x26FC, symBinAddr: 0x4CCD4, symSize: 0x68 }
  - { offset: 0xD5D67, size: 0x8, addend: 0x0, symName: __RINvMNtCsfvfooZQ3Axs_4core6optionINtB3_6OptionRNtNtCs6IAuOt8vWmF_3syn4expr10FieldValueE3mapINtNtBN_10punctuated4PairBI_RNtNtBN_5token5CommaENcNtB1r_3End0EBN_, symObjAddr: 0x2764, symBinAddr: 0x4CD3C, symSize: 0x68 }
  - { offset: 0xD5DEA, size: 0x8, addend: 0x0, symName: __RINvMNtCsfvfooZQ3Axs_4core6optionINtB3_6OptionRNtNtCs6IAuOt8vWmF_3syn4expr4ExprE3mapINtNtBN_10punctuated4PairBI_RNtNtBN_5token5CommaENcNtB1k_3End0EBN_, symObjAddr: 0x27CC, symBinAddr: 0x4CDA4, symSize: 0x68 }
  - { offset: 0xD5E6D, size: 0x8, addend: 0x0, symName: __RINvMNtCsfvfooZQ3Axs_4core6optionINtB3_6OptionRNtNtCs6IAuOt8vWmF_3syn4item5FnArgE3mapINtNtBN_10punctuated4PairBI_RNtNtBN_5token5CommaENcNtB1l_3End0EBN_, symObjAddr: 0x2834, symBinAddr: 0x4CE0C, symSize: 0x68 }
  - { offset: 0xD5F17, size: 0x8, addend: 0x0, symName: __RINvMNtCsfvfooZQ3Axs_4core6optionINtB3_6OptionRNtNtCs6IAuOt8vWmF_3syn4item7UseTreeE3mapINtNtBN_10punctuated4PairBI_RNtNtBN_5token5CommaENcNtB1n_3End0EBN_, symObjAddr: 0x29EC, symBinAddr: 0x4CE74, symSize: 0x68 }
  - { offset: 0xD5F9A, size: 0x8, addend: 0x0, symName: __RINvMNtCsfvfooZQ3Axs_4core6optionINtB3_6OptionRNtNtCs6IAuOt8vWmF_3syn4path11PathSegmentE3mapINtNtBN_10punctuated4PairBI_RNtNtBN_5token7PathSepENcNtB1s_3End0EBN_, symObjAddr: 0x2A54, symBinAddr: 0x4CEDC, symSize: 0x68 }
  - { offset: 0xD6005, size: 0x8, addend: 0x0, symName: __RINvMNtCsfvfooZQ3Axs_4core6optionINtB3_6OptionRNtNtCs6IAuOt8vWmF_3syn4path11PathSegmentE7or_elseNCNvXsw_NtBN_10punctuatedINtB1E_11PrivateIterBJ_NtNtBN_5token7PathSepENtNtNtNtB5_4iter6traits8iterator8Iterator4nexts_0EBN_, symObjAddr: 0x2ABC, symBinAddr: 0x4CF44, symSize: 0xA8 }
  - { offset: 0xD6081, size: 0x8, addend: 0x0, symName: __RINvMNtCsfvfooZQ3Axs_4core6optionINtB3_6OptionRNtNtCs6IAuOt8vWmF_3syn4path11PathSegmentE7or_elseNCNvXsx_NtBN_10punctuatedINtB1E_11PrivateIterBJ_NtNtBN_5token7PathSepENtNtNtNtB5_4iter6traits12double_ended19DoubleEndedIterator9next_back0EBN_, symObjAddr: 0x2B64, symBinAddr: 0x4CFEC, symSize: 0xA8 }
  - { offset: 0xD60FB, size: 0x8, addend: 0x0, symName: __RINvMNtCsfvfooZQ3Axs_4core6optionINtB3_6OptionRNtNtCs6IAuOt8vWmF_3syn4path15GenericArgumentE3mapINtNtBN_10punctuated4PairBI_RNtNtBN_5token5CommaENcNtB1w_3End0EBN_, symObjAddr: 0x2C0C, symBinAddr: 0x4D094, symSize: 0x68 }
  - { offset: 0xD6166, size: 0x8, addend: 0x0, symName: __RINvMNtCsfvfooZQ3Axs_4core6optionINtB3_6OptionRNtNtCs6IAuOt8vWmF_3syn5token3MutE3mapBJ_NCNvXs9_NtNtBN_4item7parsingNtB1x_8ReceiverNtNtBN_5parse5Parse5parse0EBN_, symObjAddr: 0x2C74, symBinAddr: 0x4D0FC, symSize: 0x5C }
  - { offset: 0xD61E9, size: 0x8, addend: 0x0, symName: __RINvMNtCsfvfooZQ3Axs_4core6optionINtB3_6OptionRNtNtCs6IAuOt8vWmF_3syn8generics12GenericParamE3mapINtNtBN_10punctuated4PairBI_RNtNtBN_5token5CommaENcNtB1x_3End0EBN_, symObjAddr: 0x2CD0, symBinAddr: 0x4D158, symSize: 0x68 }
  - { offset: 0xD6286, size: 0x8, addend: 0x0, symName: __RINvMNtCsfvfooZQ3Axs_4core6optionINtB3_6OptionRNtNtCs6IAuOt8vWmF_3syn8generics13CapturedParamE3mapINtNtBN_10punctuated4PairBI_RNtNtBN_5token5CommaENcNtB1y_3End0EBN_, symObjAddr: 0x2E88, symBinAddr: 0x4D1C0, symSize: 0x68 }
  - { offset: 0xD6309, size: 0x8, addend: 0x0, symName: __RINvMNtCsfvfooZQ3Axs_4core6optionINtB3_6OptionRNtNtCs6IAuOt8vWmF_3syn8generics14TypeParamBoundE3mapINtNtBN_10punctuated4PairBI_RNtNtBN_5token4PlusENcNtB1z_3End0EBN_, symObjAddr: 0x2EF0, symBinAddr: 0x4D228, symSize: 0x68 }
  - { offset: 0xD6374, size: 0x8, addend: 0x0, symName: __RINvMNtCsfvfooZQ3Axs_4core6optionINtB3_6OptionRNtNtCs6IAuOt8vWmF_3syn8generics14TypeParamBoundE7or_elseNCNvXsw_NtBN_10punctuatedINtB1L_11PrivateIterBJ_NtNtBN_5token4PlusENtNtNtNtB5_4iter6traits8iterator8Iterator4nexts_0EBN_, symObjAddr: 0x2F58, symBinAddr: 0x4D290, symSize: 0xA8 }
  - { offset: 0xD63FD, size: 0x8, addend: 0x0, symName: __RINvMNtCsfvfooZQ3Axs_4core6optionINtB3_6OptionRNtNtCs6IAuOt8vWmF_3syn8generics14TypeParamBoundE7or_elseNCNvXsx_NtBN_10punctuatedINtB1L_11PrivateIterBJ_NtNtBN_5token4PlusENtNtNtNtB5_4iter6traits12double_ended19DoubleEndedIterator9next_back0EBN_, symObjAddr: 0x3000, symBinAddr: 0x4D338, symSize: 0xA8 }
  - { offset: 0xD6477, size: 0x8, addend: 0x0, symName: __RINvMNtCsfvfooZQ3Axs_4core6optionINtB3_6OptionRNtNtCs6IAuOt8vWmF_3syn8generics14WherePredicateE3mapINtNtBN_10punctuated4PairBI_RNtNtBN_5token5CommaENcNtB1z_3End0EBN_, symObjAddr: 0x30A8, symBinAddr: 0x4D3E0, symSize: 0x68 }
  - { offset: 0xD64FA, size: 0x8, addend: 0x0, symName: __RINvMNtCsfvfooZQ3Axs_4core6optionINtB3_6OptionRNtNtCs6IAuOt8vWmF_3syn8lifetime8LifetimeE3mapINtNtBN_10punctuated4PairBI_RNtNtBN_5token4PlusENcNtB1s_3End0EBN_, symObjAddr: 0x3110, symBinAddr: 0x4D448, symSize: 0x68 }
  - { offset: 0xD6572, size: 0x8, addend: 0x0, symName: __RINvMNtCsfvfooZQ3Axs_4core6optionINtB3_6OptionRTNtNtCs6IAuOt8vWmF_3syn2ty4TypeNtNtBO_5token5CommaEE3mapINtNtBO_10punctuated4PairRBK_RB1e_ENCNvXsc_B1G_INtB1G_5PairsBK_B1e_ENtNtNtNtB5_4iter6traits8iterator8Iterator4next0EBO_, symObjAddr: 0x3178, symBinAddr: 0x4D4B0, symSize: 0x68 }
  - { offset: 0xD65EA, size: 0x8, addend: 0x0, symName: __RINvMNtCsfvfooZQ3Axs_4core6optionINtB3_6OptionRTNtNtCs6IAuOt8vWmF_3syn2ty9BareFnArgNtNtBO_5token5CommaEE3mapINtNtBO_10punctuated4PairRBK_RB1j_ENCNvXsc_B1L_INtB1L_5PairsBK_B1j_ENtNtNtNtB5_4iter6traits8iterator8Iterator4next0EBO_, symObjAddr: 0x31E0, symBinAddr: 0x4D518, symSize: 0x68 }
  - { offset: 0xD6662, size: 0x8, addend: 0x0, symName: __RINvMNtCsfvfooZQ3Axs_4core6optionINtB3_6OptionRTNtNtCs6IAuOt8vWmF_3syn3pat3PatNtNtBO_5token2OrEE3mapINtNtBO_10punctuated4PairRBK_RB1e_ENCNvXsc_B1D_INtB1D_5PairsBK_B1e_ENtNtNtNtB5_4iter6traits8iterator8Iterator4next0EBO_, symObjAddr: 0x3248, symBinAddr: 0x4D580, symSize: 0x68 }
  - { offset: 0xD66DA, size: 0x8, addend: 0x0, symName: __RINvMNtCsfvfooZQ3Axs_4core6optionINtB3_6OptionRTNtNtCs6IAuOt8vWmF_3syn3pat3PatNtNtBO_5token5CommaEE3mapINtNtBO_10punctuated4PairRBK_RB1e_ENCNvXsc_B1G_INtB1G_5PairsBK_B1e_ENtNtNtNtB5_4iter6traits8iterator8Iterator4next0EBO_, symObjAddr: 0x32B0, symBinAddr: 0x4D5E8, symSize: 0x68 }
  - { offset: 0xD6752, size: 0x8, addend: 0x0, symName: __RINvMNtCsfvfooZQ3Axs_4core6optionINtB3_6OptionRTNtNtCs6IAuOt8vWmF_3syn3pat8FieldPatNtNtBO_5token5CommaEE3mapINtNtBO_10punctuated4PairRBK_RB1j_ENCNvXsc_B1L_INtB1L_5PairsBK_B1j_ENtNtNtNtB5_4iter6traits8iterator8Iterator4next0EBO_, symObjAddr: 0x3318, symBinAddr: 0x4D650, symSize: 0x68 }
  - { offset: 0xD67BD, size: 0x8, addend: 0x0, symName: __RINvMNtCsfvfooZQ3Axs_4core6optionINtB3_6OptionRTNtNtCs6IAuOt8vWmF_3syn4data5FieldNtNtBO_5token5CommaEE3mapINtNtBO_10punctuated4PairRBK_RB1h_ENCNvXsc_B1J_INtB1J_5PairsBK_B1h_ENtNtNtNtB5_4iter6traits8iterator8Iterator4next0EBO_, symObjAddr: 0x3380, symBinAddr: 0x4D6B8, symSize: 0x68 }
  - { offset: 0xD6835, size: 0x8, addend: 0x0, symName: __RINvMNtCsfvfooZQ3Axs_4core6optionINtB3_6OptionRTNtNtCs6IAuOt8vWmF_3syn4data7VariantNtNtBO_5token5CommaEE3mapINtNtBO_10punctuated4PairRBK_RB1j_ENCNvXsc_B1L_INtB1L_5PairsBK_B1j_ENtNtNtNtB5_4iter6traits8iterator8Iterator4next0EBO_, symObjAddr: 0x3488, symBinAddr: 0x4D720, symSize: 0x68 }
  - { offset: 0xD68AD, size: 0x8, addend: 0x0, symName: __RINvMNtCsfvfooZQ3Axs_4core6optionINtB3_6OptionRTNtNtCs6IAuOt8vWmF_3syn4expr10FieldValueNtNtBO_5token5CommaEE3mapINtNtBO_10punctuated4PairRBK_RB1n_ENCNvXsc_B1P_INtB1P_5PairsBK_B1n_ENtNtNtNtB5_4iter6traits8iterator8Iterator4next0EBO_, symObjAddr: 0x34F0, symBinAddr: 0x4D788, symSize: 0x68 }
  - { offset: 0xD6925, size: 0x8, addend: 0x0, symName: __RINvMNtCsfvfooZQ3Axs_4core6optionINtB3_6OptionRTNtNtCs6IAuOt8vWmF_3syn4expr4ExprNtNtBO_5token5CommaEE3mapINtNtBO_10punctuated4PairRBK_RB1g_ENCNvXsc_B1I_INtB1I_5PairsBK_B1g_ENtNtNtNtB5_4iter6traits8iterator8Iterator4next0EBO_, symObjAddr: 0x3558, symBinAddr: 0x4D7F0, symSize: 0x68 }
  - { offset: 0xD6990, size: 0x8, addend: 0x0, symName: __RINvMNtCsfvfooZQ3Axs_4core6optionINtB3_6OptionRTNtNtCs6IAuOt8vWmF_3syn4item5FnArgNtNtBO_5token5CommaEE3mapINtNtBO_10punctuated4PairRBK_RB1h_ENCNvXsc_B1J_INtB1J_5PairsBK_B1h_ENtNtNtNtB5_4iter6traits8iterator8Iterator4next0EBO_, symObjAddr: 0x35C0, symBinAddr: 0x4D858, symSize: 0x68 }
  - { offset: 0xD6A08, size: 0x8, addend: 0x0, symName: __RINvMNtCsfvfooZQ3Axs_4core6optionINtB3_6OptionRTNtNtCs6IAuOt8vWmF_3syn4item7UseTreeNtNtBO_5token5CommaEE3mapINtNtBO_10punctuated4PairRBK_RB1j_ENCNvXsc_B1L_INtB1L_5PairsBK_B1j_ENtNtNtNtB5_4iter6traits8iterator8Iterator4next0EBO_, symObjAddr: 0x36C8, symBinAddr: 0x4D8C0, symSize: 0x68 }
  - { offset: 0xD6A73, size: 0x8, addend: 0x0, symName: __RINvMNtCsfvfooZQ3Axs_4core6optionINtB3_6OptionRTNtNtCs6IAuOt8vWmF_3syn4path11PathSegmentNtNtBO_5token7PathSepEE3mapINtNtBO_10punctuated4PairRBK_RB1o_ENCNvXsc_B1S_INtB1S_5PairsBK_B1o_ENtNtNtNtB5_4iter6traits8iterator8Iterator4next0EBO_, symObjAddr: 0x3730, symBinAddr: 0x4D928, symSize: 0x68 }
  - { offset: 0xD6ADE, size: 0x8, addend: 0x0, symName: __RINvMNtCsfvfooZQ3Axs_4core6optionINtB3_6OptionRTNtNtCs6IAuOt8vWmF_3syn4path11PathSegmentNtNtBO_5token7PathSepEE3mapRBK_NCNCNvXsx_NtBO_10punctuatedINtB23_11PrivateIterBK_B1o_ENtNtNtNtB5_4iter6traits12double_ended19DoubleEndedIterator9next_back00EBO_, symObjAddr: 0x3798, symBinAddr: 0x4D990, symSize: 0x50 }
  - { offset: 0xD6B49, size: 0x8, addend: 0x0, symName: __RINvMNtCsfvfooZQ3Axs_4core6optionINtB3_6OptionRTNtNtCs6IAuOt8vWmF_3syn4path11PathSegmentNtNtBO_5token7PathSepEE3mapRBK_NCNvXsw_NtBO_10punctuatedINtB21_11PrivateIterBK_B1o_ENtNtNtNtB5_4iter6traits8iterator8Iterator4next0EBO_, symObjAddr: 0x37E8, symBinAddr: 0x4D9E0, symSize: 0x50 }
  - { offset: 0xD6BC1, size: 0x8, addend: 0x0, symName: __RINvMNtCsfvfooZQ3Axs_4core6optionINtB3_6OptionRTNtNtCs6IAuOt8vWmF_3syn4path15GenericArgumentNtNtBO_5token5CommaEE3mapINtNtBO_10punctuated4PairRBK_RB1s_ENCNvXsc_B1U_INtB1U_5PairsBK_B1s_ENtNtNtNtB5_4iter6traits8iterator8Iterator4next0EBO_, symObjAddr: 0x3838, symBinAddr: 0x4DA30, symSize: 0x68 }
  - { offset: 0xD6C2C, size: 0x8, addend: 0x0, symName: __RINvMNtCsfvfooZQ3Axs_4core6optionINtB3_6OptionRTNtNtCs6IAuOt8vWmF_3syn8generics12GenericParamNtNtBO_5token5CommaEE3mapINtNtBO_10punctuated4PairRBK_RB1t_ENCNvXsc_B1V_INtB1V_5PairsBK_B1t_ENtNtNtNtB5_4iter6traits8iterator8Iterator4next0EBO_, symObjAddr: 0x38A0, symBinAddr: 0x4DA98, symSize: 0x68 }
  - { offset: 0xD6CA4, size: 0x8, addend: 0x0, symName: __RINvMNtCsfvfooZQ3Axs_4core6optionINtB3_6OptionRTNtNtCs6IAuOt8vWmF_3syn8generics13CapturedParamNtNtBO_5token5CommaEE3mapINtNtBO_10punctuated4PairRBK_RB1u_ENCNvXsc_B1W_INtB1W_5PairsBK_B1u_ENtNtNtNtB5_4iter6traits8iterator8Iterator4next0EBO_, symObjAddr: 0x39A8, symBinAddr: 0x4DB00, symSize: 0x68 }
  - { offset: 0xD6D0F, size: 0x8, addend: 0x0, symName: __RINvMNtCsfvfooZQ3Axs_4core6optionINtB3_6OptionRTNtNtCs6IAuOt8vWmF_3syn8generics14TypeParamBoundNtNtBO_5token4PlusEE3mapINtNtBO_10punctuated4PairRBK_RB1v_ENCNvXsc_B1W_INtB1W_5PairsBK_B1v_ENtNtNtNtB5_4iter6traits8iterator8Iterator4next0EBO_, symObjAddr: 0x3A10, symBinAddr: 0x4DB68, symSize: 0x68 }
  - { offset: 0xD6D7A, size: 0x8, addend: 0x0, symName: __RINvMNtCsfvfooZQ3Axs_4core6optionINtB3_6OptionRTNtNtCs6IAuOt8vWmF_3syn8generics14TypeParamBoundNtNtBO_5token4PlusEE3mapRBK_NCNCNvXsx_NtBO_10punctuatedINtB27_11PrivateIterBK_B1v_ENtNtNtNtB5_4iter6traits12double_ended19DoubleEndedIterator9next_back00EBO_, symObjAddr: 0x3A78, symBinAddr: 0x4DBD0, symSize: 0x50 }
  - { offset: 0xD6DE5, size: 0x8, addend: 0x0, symName: __RINvMNtCsfvfooZQ3Axs_4core6optionINtB3_6OptionRTNtNtCs6IAuOt8vWmF_3syn8generics14TypeParamBoundNtNtBO_5token4PlusEE3mapRBK_NCNvXsw_NtBO_10punctuatedINtB25_11PrivateIterBK_B1v_ENtNtNtNtB5_4iter6traits8iterator8Iterator4next0EBO_, symObjAddr: 0x3AC8, symBinAddr: 0x4DC20, symSize: 0x50 }
  - { offset: 0xD6E5D, size: 0x8, addend: 0x0, symName: __RINvMNtCsfvfooZQ3Axs_4core6optionINtB3_6OptionRTNtNtCs6IAuOt8vWmF_3syn8generics14WherePredicateNtNtBO_5token5CommaEE3mapINtNtBO_10punctuated4PairRBK_RB1v_ENCNvXsc_B1X_INtB1X_5PairsBK_B1v_ENtNtNtNtB5_4iter6traits8iterator8Iterator4next0EBO_, symObjAddr: 0x3B18, symBinAddr: 0x4DC70, symSize: 0x68 }
  - { offset: 0xD6ED5, size: 0x8, addend: 0x0, symName: __RINvMNtCsfvfooZQ3Axs_4core6optionINtB3_6OptionRTNtNtCs6IAuOt8vWmF_3syn8lifetime8LifetimeNtNtBO_5token4PlusEE3mapINtNtBO_10punctuated4PairRBK_RB1o_ENCNvXsc_B1P_INtB1P_5PairsBK_B1o_ENtNtNtNtB5_4iter6traits8iterator8Iterator4next0EBO_, symObjAddr: 0x3B80, symBinAddr: 0x4DCD8, symSize: 0x68 }
  - { offset: 0xD6F40, size: 0x8, addend: 0x0, symName: __RINvMNtCsfvfooZQ3Axs_4core6optionINtB3_6OptionTNtNtCs6IAuOt8vWmF_3syn4path11PathSegmentNtNtBN_5token7PathSepEE3mapINtNtBN_10punctuated4PairBJ_B1n_ENCNvMB1R_INtB1R_10PunctuatedBJ_B1n_E3pops_0EBN_, symObjAddr: 0x3BE8, symBinAddr: 0x4DD40, symSize: 0xA8 }
  - { offset: 0xD6FAC, size: 0x8, addend: 0x0, symName: __RINvMNtCsfvfooZQ3Axs_4core6optionINtB3_6OptionTNtNtCs6IAuOt8vWmF_3syn4path11PathSegmentNtNtBN_5token7PathSepEE3mapINtNtBN_10punctuated4PairBJ_B1n_ENCNvXsj_B1R_INtB1R_9IntoPairsBJ_B1n_ENtNtNtNtB5_4iter6traits8iterator8Iterator4next0EBN_, symObjAddr: 0x3C90, symBinAddr: 0x4DDE8, symSize: 0xA8 }
  - { offset: 0xD705B, size: 0x8, addend: 0x0, symName: __RINvMNtCsfvfooZQ3Axs_4core6optionINtB3_6OptionTNtNtCs6IAuOt8vWmF_3syn8lifetime8LifetimeNtNtBN_6buffer6CursorEE10ok_or_elseNtNtBN_5error5ErrorNCNCNvXNtBL_7parsingBJ_NtNtBN_5parse5Parse5parse00EBN_, symObjAddr: 0x3D38, symBinAddr: 0x4DE90, symSize: 0x98 }
  - { offset: 0xD71EF, size: 0x8, addend: 0x0, symName: __RINvMs3_NtCsfvfooZQ3Axs_4core3fmtNtB6_9Arguments6new_v1Kj2_KBS_ECs6IAuOt8vWmF_3syn, symObjAddr: 0x3DD0, symBinAddr: 0x4DF28, symSize: 0x50 }
  - { offset: 0xD7248, size: 0x8, addend: 0x0, symName: __RNvMNtCsfvfooZQ3Axs_4core6optionINtB2_6OptionINtNtCse1nGBsou5OW_5alloc5boxed3BoxNtNtCs6IAuOt8vWmF_3syn2ty4TypeEE4takeB1k_, symObjAddr: 0x45C8, symBinAddr: 0x4E5A8, symSize: 0x28 }
  - { offset: 0xD72DB, size: 0x8, addend: 0x0, symName: __RNvMNtCsfvfooZQ3Axs_4core6optionINtB2_6OptionINtNtCse1nGBsou5OW_5alloc5boxed3BoxNtNtCs6IAuOt8vWmF_3syn2ty4TypeEE6as_refB1k_, symObjAddr: 0x45F0, symBinAddr: 0x4E5D0, symSize: 0x4C }
  - { offset: 0xD7341, size: 0x8, addend: 0x0, symName: __RNvMNtCsfvfooZQ3Axs_4core6optionINtB2_6OptionINtNtCse1nGBsou5OW_5alloc5boxed3BoxNtNtCs6IAuOt8vWmF_3syn2ty4TypeEE7is_noneB1k_, symObjAddr: 0x463C, symBinAddr: 0x4E61C, symSize: 0x28 }
  - { offset: 0xD738B, size: 0x8, addend: 0x0, symName: __RNvMNtCsfvfooZQ3Axs_4core6optionINtB2_6OptionINtNtCse1nGBsou5OW_5alloc5boxed3BoxNtNtCs6IAuOt8vWmF_3syn2ty4TypeEE7is_someB1k_, symObjAddr: 0x4664, symBinAddr: 0x4E644, symSize: 0x28 }
  - { offset: 0xD73C4, size: 0x8, addend: 0x0, symName: __RNvMNtCsfvfooZQ3Axs_4core6optionINtB2_6OptionINtNtCse1nGBsou5OW_5alloc5boxed3BoxNtNtCs6IAuOt8vWmF_3syn2ty9BareFnArgEE4takeB1k_, symObjAddr: 0x468C, symBinAddr: 0x4E66C, symSize: 0x28 }
  - { offset: 0xD7457, size: 0x8, addend: 0x0, symName: __RNvMNtCsfvfooZQ3Axs_4core6optionINtB2_6OptionINtNtCse1nGBsou5OW_5alloc5boxed3BoxNtNtCs6IAuOt8vWmF_3syn2ty9BareFnArgEE6as_refB1k_, symObjAddr: 0x46B4, symBinAddr: 0x4E694, symSize: 0x4C }
  - { offset: 0xD74BD, size: 0x8, addend: 0x0, symName: __RNvMNtCsfvfooZQ3Axs_4core6optionINtB2_6OptionINtNtCse1nGBsou5OW_5alloc5boxed3BoxNtNtCs6IAuOt8vWmF_3syn2ty9BareFnArgEE7is_noneB1k_, symObjAddr: 0x4700, symBinAddr: 0x4E6E0, symSize: 0x28 }
  - { offset: 0xD7507, size: 0x8, addend: 0x0, symName: __RNvMNtCsfvfooZQ3Axs_4core6optionINtB2_6OptionINtNtCse1nGBsou5OW_5alloc5boxed3BoxNtNtCs6IAuOt8vWmF_3syn2ty9BareFnArgEE7is_someB1k_, symObjAddr: 0x4728, symBinAddr: 0x4E708, symSize: 0x28 }
  - { offset: 0xD7540, size: 0x8, addend: 0x0, symName: __RNvMNtCsfvfooZQ3Axs_4core6optionINtB2_6OptionINtNtCse1nGBsou5OW_5alloc5boxed3BoxNtNtCs6IAuOt8vWmF_3syn3pat3PatEE4takeB1k_, symObjAddr: 0x4750, symBinAddr: 0x4E730, symSize: 0x28 }
  - { offset: 0xD75D3, size: 0x8, addend: 0x0, symName: __RNvMNtCsfvfooZQ3Axs_4core6optionINtB2_6OptionINtNtCse1nGBsou5OW_5alloc5boxed3BoxNtNtCs6IAuOt8vWmF_3syn3pat3PatEE6as_refB1k_, symObjAddr: 0x4778, symBinAddr: 0x4E758, symSize: 0x4C }
  - { offset: 0xD7639, size: 0x8, addend: 0x0, symName: __RNvMNtCsfvfooZQ3Axs_4core6optionINtB2_6OptionINtNtCse1nGBsou5OW_5alloc5boxed3BoxNtNtCs6IAuOt8vWmF_3syn3pat3PatEE7is_noneB1k_, symObjAddr: 0x47C4, symBinAddr: 0x4E7A4, symSize: 0x28 }
  - { offset: 0xD7683, size: 0x8, addend: 0x0, symName: __RNvMNtCsfvfooZQ3Axs_4core6optionINtB2_6OptionINtNtCse1nGBsou5OW_5alloc5boxed3BoxNtNtCs6IAuOt8vWmF_3syn3pat3PatEE7is_someB1k_, symObjAddr: 0x47EC, symBinAddr: 0x4E7CC, symSize: 0x28 }
  - { offset: 0xD76BC, size: 0x8, addend: 0x0, symName: __RNvMNtCsfvfooZQ3Axs_4core6optionINtB2_6OptionINtNtCse1nGBsou5OW_5alloc5boxed3BoxNtNtCs6IAuOt8vWmF_3syn3pat8FieldPatEE4takeB1k_, symObjAddr: 0x4814, symBinAddr: 0x4E7F4, symSize: 0x28 }
  - { offset: 0xD774F, size: 0x8, addend: 0x0, symName: __RNvMNtCsfvfooZQ3Axs_4core6optionINtB2_6OptionINtNtCse1nGBsou5OW_5alloc5boxed3BoxNtNtCs6IAuOt8vWmF_3syn3pat8FieldPatEE6as_refB1k_, symObjAddr: 0x483C, symBinAddr: 0x4E81C, symSize: 0x4C }
  - { offset: 0xD77B5, size: 0x8, addend: 0x0, symName: __RNvMNtCsfvfooZQ3Axs_4core6optionINtB2_6OptionINtNtCse1nGBsou5OW_5alloc5boxed3BoxNtNtCs6IAuOt8vWmF_3syn3pat8FieldPatEE7is_noneB1k_, symObjAddr: 0x4888, symBinAddr: 0x4E868, symSize: 0x28 }
  - { offset: 0xD77FF, size: 0x8, addend: 0x0, symName: __RNvMNtCsfvfooZQ3Axs_4core6optionINtB2_6OptionINtNtCse1nGBsou5OW_5alloc5boxed3BoxNtNtCs6IAuOt8vWmF_3syn3pat8FieldPatEE7is_someB1k_, symObjAddr: 0x48B0, symBinAddr: 0x4E890, symSize: 0x28 }
  - { offset: 0xD7838, size: 0x8, addend: 0x0, symName: __RNvMNtCsfvfooZQ3Axs_4core6optionINtB2_6OptionINtNtCse1nGBsou5OW_5alloc5boxed3BoxNtNtCs6IAuOt8vWmF_3syn4data5FieldEE4takeB1k_, symObjAddr: 0x48D8, symBinAddr: 0x4E8B8, symSize: 0x28 }
  - { offset: 0xD78CB, size: 0x8, addend: 0x0, symName: __RNvMNtCsfvfooZQ3Axs_4core6optionINtB2_6OptionINtNtCse1nGBsou5OW_5alloc5boxed3BoxNtNtCs6IAuOt8vWmF_3syn4data5FieldEE6as_refB1k_, symObjAddr: 0x494C, symBinAddr: 0x4E8E0, symSize: 0x4C }
  - { offset: 0xD7931, size: 0x8, addend: 0x0, symName: __RNvMNtCsfvfooZQ3Axs_4core6optionINtB2_6OptionINtNtCse1nGBsou5OW_5alloc5boxed3BoxNtNtCs6IAuOt8vWmF_3syn4data5FieldEE7is_noneB1k_, symObjAddr: 0x4998, symBinAddr: 0x4E92C, symSize: 0x28 }
  - { offset: 0xD797B, size: 0x8, addend: 0x0, symName: __RNvMNtCsfvfooZQ3Axs_4core6optionINtB2_6OptionINtNtCse1nGBsou5OW_5alloc5boxed3BoxNtNtCs6IAuOt8vWmF_3syn4data5FieldEE7is_someB1k_, symObjAddr: 0x49C0, symBinAddr: 0x4E954, symSize: 0x28 }
  - { offset: 0xD79B4, size: 0x8, addend: 0x0, symName: __RNvMNtCsfvfooZQ3Axs_4core6optionINtB2_6OptionINtNtCse1nGBsou5OW_5alloc5boxed3BoxNtNtCs6IAuOt8vWmF_3syn4data7VariantEE4takeB1k_, symObjAddr: 0x49E8, symBinAddr: 0x4E97C, symSize: 0x28 }
  - { offset: 0xD7A47, size: 0x8, addend: 0x0, symName: __RNvMNtCsfvfooZQ3Axs_4core6optionINtB2_6OptionINtNtCse1nGBsou5OW_5alloc5boxed3BoxNtNtCs6IAuOt8vWmF_3syn4data7VariantEE6as_refB1k_, symObjAddr: 0x4A10, symBinAddr: 0x4E9A4, symSize: 0x4C }
  - { offset: 0xD7AAD, size: 0x8, addend: 0x0, symName: __RNvMNtCsfvfooZQ3Axs_4core6optionINtB2_6OptionINtNtCse1nGBsou5OW_5alloc5boxed3BoxNtNtCs6IAuOt8vWmF_3syn4data7VariantEE7is_noneB1k_, symObjAddr: 0x4A5C, symBinAddr: 0x4E9F0, symSize: 0x28 }
  - { offset: 0xD7AF7, size: 0x8, addend: 0x0, symName: __RNvMNtCsfvfooZQ3Axs_4core6optionINtB2_6OptionINtNtCse1nGBsou5OW_5alloc5boxed3BoxNtNtCs6IAuOt8vWmF_3syn4data7VariantEE7is_someB1k_, symObjAddr: 0x4A84, symBinAddr: 0x4EA18, symSize: 0x28 }
  - { offset: 0xD7B30, size: 0x8, addend: 0x0, symName: __RNvMNtCsfvfooZQ3Axs_4core6optionINtB2_6OptionINtNtCse1nGBsou5OW_5alloc5boxed3BoxNtNtCs6IAuOt8vWmF_3syn4expr10FieldValueEE4takeB1k_, symObjAddr: 0x4AAC, symBinAddr: 0x4EA40, symSize: 0x28 }
  - { offset: 0xD7BC3, size: 0x8, addend: 0x0, symName: __RNvMNtCsfvfooZQ3Axs_4core6optionINtB2_6OptionINtNtCse1nGBsou5OW_5alloc5boxed3BoxNtNtCs6IAuOt8vWmF_3syn4expr10FieldValueEE6as_refB1k_, symObjAddr: 0x4AD4, symBinAddr: 0x4EA68, symSize: 0x4C }
  - { offset: 0xD7C29, size: 0x8, addend: 0x0, symName: __RNvMNtCsfvfooZQ3Axs_4core6optionINtB2_6OptionINtNtCse1nGBsou5OW_5alloc5boxed3BoxNtNtCs6IAuOt8vWmF_3syn4expr10FieldValueEE7is_noneB1k_, symObjAddr: 0x4B20, symBinAddr: 0x4EAB4, symSize: 0x28 }
  - { offset: 0xD7C73, size: 0x8, addend: 0x0, symName: __RNvMNtCsfvfooZQ3Axs_4core6optionINtB2_6OptionINtNtCse1nGBsou5OW_5alloc5boxed3BoxNtNtCs6IAuOt8vWmF_3syn4expr10FieldValueEE7is_someB1k_, symObjAddr: 0x4B48, symBinAddr: 0x4EADC, symSize: 0x28 }
  - { offset: 0xD7CAC, size: 0x8, addend: 0x0, symName: __RNvMNtCsfvfooZQ3Axs_4core6optionINtB2_6OptionINtNtCse1nGBsou5OW_5alloc5boxed3BoxNtNtCs6IAuOt8vWmF_3syn4expr4ExprEE4takeB1k_, symObjAddr: 0x4B70, symBinAddr: 0x4EB04, symSize: 0x28 }
  - { offset: 0xD7D3F, size: 0x8, addend: 0x0, symName: __RNvMNtCsfvfooZQ3Axs_4core6optionINtB2_6OptionINtNtCse1nGBsou5OW_5alloc5boxed3BoxNtNtCs6IAuOt8vWmF_3syn4expr4ExprEE6as_refB1k_, symObjAddr: 0x4B98, symBinAddr: 0x4EB2C, symSize: 0x4C }
  - { offset: 0xD7DA5, size: 0x8, addend: 0x0, symName: __RNvMNtCsfvfooZQ3Axs_4core6optionINtB2_6OptionINtNtCse1nGBsou5OW_5alloc5boxed3BoxNtNtCs6IAuOt8vWmF_3syn4expr4ExprEE7is_noneB1k_, symObjAddr: 0x4BE4, symBinAddr: 0x4EB78, symSize: 0x28 }
  - { offset: 0xD7DEF, size: 0x8, addend: 0x0, symName: __RNvMNtCsfvfooZQ3Axs_4core6optionINtB2_6OptionINtNtCse1nGBsou5OW_5alloc5boxed3BoxNtNtCs6IAuOt8vWmF_3syn4expr4ExprEE7is_someB1k_, symObjAddr: 0x4C0C, symBinAddr: 0x4EBA0, symSize: 0x28 }
  - { offset: 0xD7E28, size: 0x8, addend: 0x0, symName: __RNvMNtCsfvfooZQ3Axs_4core6optionINtB2_6OptionINtNtCse1nGBsou5OW_5alloc5boxed3BoxNtNtCs6IAuOt8vWmF_3syn4item5FnArgEE4takeB1k_, symObjAddr: 0x4C34, symBinAddr: 0x4EBC8, symSize: 0x28 }
  - { offset: 0xD7EBB, size: 0x8, addend: 0x0, symName: __RNvMNtCsfvfooZQ3Axs_4core6optionINtB2_6OptionINtNtCse1nGBsou5OW_5alloc5boxed3BoxNtNtCs6IAuOt8vWmF_3syn4item5FnArgEE6as_refB1k_, symObjAddr: 0x4C5C, symBinAddr: 0x4EBF0, symSize: 0x4C }
  - { offset: 0xD7F21, size: 0x8, addend: 0x0, symName: __RNvMNtCsfvfooZQ3Axs_4core6optionINtB2_6OptionINtNtCse1nGBsou5OW_5alloc5boxed3BoxNtNtCs6IAuOt8vWmF_3syn4item5FnArgEE7is_noneB1k_, symObjAddr: 0x4CA8, symBinAddr: 0x4EC3C, symSize: 0x28 }
  - { offset: 0xD7F6B, size: 0x8, addend: 0x0, symName: __RNvMNtCsfvfooZQ3Axs_4core6optionINtB2_6OptionINtNtCse1nGBsou5OW_5alloc5boxed3BoxNtNtCs6IAuOt8vWmF_3syn4item5FnArgEE7is_someB1k_, symObjAddr: 0x4CD0, symBinAddr: 0x4EC64, symSize: 0x28 }
  - { offset: 0xD7FA4, size: 0x8, addend: 0x0, symName: __RNvMNtCsfvfooZQ3Axs_4core6optionINtB2_6OptionINtNtCse1nGBsou5OW_5alloc5boxed3BoxNtNtCs6IAuOt8vWmF_3syn4item7UseTreeEE4takeB1k_, symObjAddr: 0x4CF8, symBinAddr: 0x4EC8C, symSize: 0x28 }
  - { offset: 0xD8037, size: 0x8, addend: 0x0, symName: __RNvMNtCsfvfooZQ3Axs_4core6optionINtB2_6OptionINtNtCse1nGBsou5OW_5alloc5boxed3BoxNtNtCs6IAuOt8vWmF_3syn4item7UseTreeEE6as_refB1k_, symObjAddr: 0x4D20, symBinAddr: 0x4ECB4, symSize: 0x4C }
  - { offset: 0xD809D, size: 0x8, addend: 0x0, symName: __RNvMNtCsfvfooZQ3Axs_4core6optionINtB2_6OptionINtNtCse1nGBsou5OW_5alloc5boxed3BoxNtNtCs6IAuOt8vWmF_3syn4item7UseTreeEE7is_noneB1k_, symObjAddr: 0x4D6C, symBinAddr: 0x4ED00, symSize: 0x28 }
  - { offset: 0xD80E7, size: 0x8, addend: 0x0, symName: __RNvMNtCsfvfooZQ3Axs_4core6optionINtB2_6OptionINtNtCse1nGBsou5OW_5alloc5boxed3BoxNtNtCs6IAuOt8vWmF_3syn4item7UseTreeEE7is_someB1k_, symObjAddr: 0x4D94, symBinAddr: 0x4ED28, symSize: 0x28 }
  - { offset: 0xD8120, size: 0x8, addend: 0x0, symName: __RNvMNtCsfvfooZQ3Axs_4core6optionINtB2_6OptionINtNtCse1nGBsou5OW_5alloc5boxed3BoxNtNtCs6IAuOt8vWmF_3syn4path11PathSegmentEE4takeB1k_, symObjAddr: 0x4DBC, symBinAddr: 0x4ED50, symSize: 0x28 }
  - { offset: 0xD81A6, size: 0x8, addend: 0x0, symName: __RNvMNtCsfvfooZQ3Axs_4core6optionINtB2_6OptionINtNtCse1nGBsou5OW_5alloc5boxed3BoxNtNtCs6IAuOt8vWmF_3syn4path11PathSegmentEE6as_mutB1k_, symObjAddr: 0x4DE4, symBinAddr: 0x4ED78, symSize: 0x4C }
  - { offset: 0xD81FD, size: 0x8, addend: 0x0, symName: __RNvMNtCsfvfooZQ3Axs_4core6optionINtB2_6OptionINtNtCse1nGBsou5OW_5alloc5boxed3BoxNtNtCs6IAuOt8vWmF_3syn4path11PathSegmentEE6as_refB1k_, symObjAddr: 0x4E30, symBinAddr: 0x4EDC4, symSize: 0x4C }
  - { offset: 0xD8263, size: 0x8, addend: 0x0, symName: __RNvMNtCsfvfooZQ3Axs_4core6optionINtB2_6OptionINtNtCse1nGBsou5OW_5alloc5boxed3BoxNtNtCs6IAuOt8vWmF_3syn4path11PathSegmentEE7is_noneB1k_, symObjAddr: 0x4E7C, symBinAddr: 0x4EE10, symSize: 0x28 }
  - { offset: 0xD82AD, size: 0x8, addend: 0x0, symName: __RNvMNtCsfvfooZQ3Axs_4core6optionINtB2_6OptionINtNtCse1nGBsou5OW_5alloc5boxed3BoxNtNtCs6IAuOt8vWmF_3syn4path11PathSegmentEE7is_someB1k_, symObjAddr: 0x4EA4, symBinAddr: 0x4EE38, symSize: 0x28 }
  - { offset: 0xD82E6, size: 0x8, addend: 0x0, symName: __RNvMNtCsfvfooZQ3Axs_4core6optionINtB2_6OptionINtNtCse1nGBsou5OW_5alloc5boxed3BoxNtNtCs6IAuOt8vWmF_3syn4path15GenericArgumentEE4takeB1k_, symObjAddr: 0x4ECC, symBinAddr: 0x4EE60, symSize: 0x28 }
  - { offset: 0xD8379, size: 0x8, addend: 0x0, symName: __RNvMNtCsfvfooZQ3Axs_4core6optionINtB2_6OptionINtNtCse1nGBsou5OW_5alloc5boxed3BoxNtNtCs6IAuOt8vWmF_3syn4path15GenericArgumentEE6as_refB1k_, symObjAddr: 0x4EF4, symBinAddr: 0x4EE88, symSize: 0x4C }
  - { offset: 0xD83DF, size: 0x8, addend: 0x0, symName: __RNvMNtCsfvfooZQ3Axs_4core6optionINtB2_6OptionINtNtCse1nGBsou5OW_5alloc5boxed3BoxNtNtCs6IAuOt8vWmF_3syn4path15GenericArgumentEE7is_noneB1k_, symObjAddr: 0x4F40, symBinAddr: 0x4EED4, symSize: 0x28 }
  - { offset: 0xD8429, size: 0x8, addend: 0x0, symName: __RNvMNtCsfvfooZQ3Axs_4core6optionINtB2_6OptionINtNtCse1nGBsou5OW_5alloc5boxed3BoxNtNtCs6IAuOt8vWmF_3syn4path15GenericArgumentEE7is_someB1k_, symObjAddr: 0x4F68, symBinAddr: 0x4EEFC, symSize: 0x28 }
  - { offset: 0xD8462, size: 0x8, addend: 0x0, symName: __RNvMNtCsfvfooZQ3Axs_4core6optionINtB2_6OptionINtNtCse1nGBsou5OW_5alloc5boxed3BoxNtNtCs6IAuOt8vWmF_3syn8generics12GenericParamEE4takeB1k_, symObjAddr: 0x4F90, symBinAddr: 0x4EF24, symSize: 0x28 }
  - { offset: 0xD84F5, size: 0x8, addend: 0x0, symName: __RNvMNtCsfvfooZQ3Axs_4core6optionINtB2_6OptionINtNtCse1nGBsou5OW_5alloc5boxed3BoxNtNtCs6IAuOt8vWmF_3syn8generics12GenericParamEE6as_refB1k_, symObjAddr: 0x5004, symBinAddr: 0x4EF4C, symSize: 0x4C }
  - { offset: 0xD855B, size: 0x8, addend: 0x0, symName: __RNvMNtCsfvfooZQ3Axs_4core6optionINtB2_6OptionINtNtCse1nGBsou5OW_5alloc5boxed3BoxNtNtCs6IAuOt8vWmF_3syn8generics12GenericParamEE7is_noneB1k_, symObjAddr: 0x5050, symBinAddr: 0x4EF98, symSize: 0x28 }
  - { offset: 0xD85A5, size: 0x8, addend: 0x0, symName: __RNvMNtCsfvfooZQ3Axs_4core6optionINtB2_6OptionINtNtCse1nGBsou5OW_5alloc5boxed3BoxNtNtCs6IAuOt8vWmF_3syn8generics12GenericParamEE7is_someB1k_, symObjAddr: 0x5078, symBinAddr: 0x4EFC0, symSize: 0x28 }
  - { offset: 0xD85DE, size: 0x8, addend: 0x0, symName: __RNvMNtCsfvfooZQ3Axs_4core6optionINtB2_6OptionINtNtCse1nGBsou5OW_5alloc5boxed3BoxNtNtCs6IAuOt8vWmF_3syn8generics13CapturedParamEE4takeB1k_, symObjAddr: 0x50A0, symBinAddr: 0x4EFE8, symSize: 0x28 }
  - { offset: 0xD8671, size: 0x8, addend: 0x0, symName: __RNvMNtCsfvfooZQ3Axs_4core6optionINtB2_6OptionINtNtCse1nGBsou5OW_5alloc5boxed3BoxNtNtCs6IAuOt8vWmF_3syn8generics13CapturedParamEE6as_refB1k_, symObjAddr: 0x50C8, symBinAddr: 0x4F010, symSize: 0x4C }
  - { offset: 0xD86D7, size: 0x8, addend: 0x0, symName: __RNvMNtCsfvfooZQ3Axs_4core6optionINtB2_6OptionINtNtCse1nGBsou5OW_5alloc5boxed3BoxNtNtCs6IAuOt8vWmF_3syn8generics13CapturedParamEE7is_noneB1k_, symObjAddr: 0x5114, symBinAddr: 0x4F05C, symSize: 0x28 }
  - { offset: 0xD8721, size: 0x8, addend: 0x0, symName: __RNvMNtCsfvfooZQ3Axs_4core6optionINtB2_6OptionINtNtCse1nGBsou5OW_5alloc5boxed3BoxNtNtCs6IAuOt8vWmF_3syn8generics13CapturedParamEE7is_someB1k_, symObjAddr: 0x513C, symBinAddr: 0x4F084, symSize: 0x28 }
  - { offset: 0xD875A, size: 0x8, addend: 0x0, symName: __RNvMNtCsfvfooZQ3Axs_4core6optionINtB2_6OptionINtNtCse1nGBsou5OW_5alloc5boxed3BoxNtNtCs6IAuOt8vWmF_3syn8generics14TypeParamBoundEE4takeB1k_, symObjAddr: 0x5164, symBinAddr: 0x4F0AC, symSize: 0x28 }
  - { offset: 0xD87ED, size: 0x8, addend: 0x0, symName: __RNvMNtCsfvfooZQ3Axs_4core6optionINtB2_6OptionINtNtCse1nGBsou5OW_5alloc5boxed3BoxNtNtCs6IAuOt8vWmF_3syn8generics14TypeParamBoundEE6as_refB1k_, symObjAddr: 0x518C, symBinAddr: 0x4F0D4, symSize: 0x4C }
  - { offset: 0xD8853, size: 0x8, addend: 0x0, symName: __RNvMNtCsfvfooZQ3Axs_4core6optionINtB2_6OptionINtNtCse1nGBsou5OW_5alloc5boxed3BoxNtNtCs6IAuOt8vWmF_3syn8generics14TypeParamBoundEE7is_noneB1k_, symObjAddr: 0x51D8, symBinAddr: 0x4F120, symSize: 0x28 }
  - { offset: 0xD889D, size: 0x8, addend: 0x0, symName: __RNvMNtCsfvfooZQ3Axs_4core6optionINtB2_6OptionINtNtCse1nGBsou5OW_5alloc5boxed3BoxNtNtCs6IAuOt8vWmF_3syn8generics14TypeParamBoundEE7is_someB1k_, symObjAddr: 0x5200, symBinAddr: 0x4F148, symSize: 0x28 }
  - { offset: 0xD88D6, size: 0x8, addend: 0x0, symName: __RNvMNtCsfvfooZQ3Axs_4core6optionINtB2_6OptionINtNtCse1nGBsou5OW_5alloc5boxed3BoxNtNtCs6IAuOt8vWmF_3syn8generics14WherePredicateEE4takeB1k_, symObjAddr: 0x5228, symBinAddr: 0x4F170, symSize: 0x28 }
  - { offset: 0xD8969, size: 0x8, addend: 0x0, symName: __RNvMNtCsfvfooZQ3Axs_4core6optionINtB2_6OptionINtNtCse1nGBsou5OW_5alloc5boxed3BoxNtNtCs6IAuOt8vWmF_3syn8generics14WherePredicateEE6as_refB1k_, symObjAddr: 0x5250, symBinAddr: 0x4F198, symSize: 0x4C }
  - { offset: 0xD89CF, size: 0x8, addend: 0x0, symName: __RNvMNtCsfvfooZQ3Axs_4core6optionINtB2_6OptionINtNtCse1nGBsou5OW_5alloc5boxed3BoxNtNtCs6IAuOt8vWmF_3syn8generics14WherePredicateEE7is_noneB1k_, symObjAddr: 0x529C, symBinAddr: 0x4F1E4, symSize: 0x28 }
  - { offset: 0xD8A19, size: 0x8, addend: 0x0, symName: __RNvMNtCsfvfooZQ3Axs_4core6optionINtB2_6OptionINtNtCse1nGBsou5OW_5alloc5boxed3BoxNtNtCs6IAuOt8vWmF_3syn8generics14WherePredicateEE7is_someB1k_, symObjAddr: 0x52C4, symBinAddr: 0x4F20C, symSize: 0x28 }
  - { offset: 0xD8A52, size: 0x8, addend: 0x0, symName: __RNvMNtCsfvfooZQ3Axs_4core6optionINtB2_6OptionINtNtCse1nGBsou5OW_5alloc5boxed3BoxNtNtCs6IAuOt8vWmF_3syn8lifetime8LifetimeEE4takeB1k_, symObjAddr: 0x52EC, symBinAddr: 0x4F234, symSize: 0x28 }
  - { offset: 0xD8AE5, size: 0x8, addend: 0x0, symName: __RNvMNtCsfvfooZQ3Axs_4core6optionINtB2_6OptionINtNtCse1nGBsou5OW_5alloc5boxed3BoxNtNtCs6IAuOt8vWmF_3syn8lifetime8LifetimeEE6as_refB1k_, symObjAddr: 0x5314, symBinAddr: 0x4F25C, symSize: 0x4C }
  - { offset: 0xD8B4B, size: 0x8, addend: 0x0, symName: __RNvMNtCsfvfooZQ3Axs_4core6optionINtB2_6OptionINtNtCse1nGBsou5OW_5alloc5boxed3BoxNtNtCs6IAuOt8vWmF_3syn8lifetime8LifetimeEE7is_noneB1k_, symObjAddr: 0x5360, symBinAddr: 0x4F2A8, symSize: 0x28 }
  - { offset: 0xD8B95, size: 0x8, addend: 0x0, symName: __RNvMNtCsfvfooZQ3Axs_4core6optionINtB2_6OptionINtNtCse1nGBsou5OW_5alloc5boxed3BoxNtNtCs6IAuOt8vWmF_3syn8lifetime8LifetimeEE7is_someB1k_, symObjAddr: 0x5388, symBinAddr: 0x4F2D0, symSize: 0x28 }
  - { offset: 0xD8BDB, size: 0x8, addend: 0x0, symName: __RNvMNtCsfvfooZQ3Axs_4core6optionINtB2_6OptionNtNtCs6IAuOt8vWmF_3syn3pat7PatRestE7is_someBL_, symObjAddr: 0x53D8, symBinAddr: 0x4F2F8, symSize: 0x2C }
  - { offset: 0xD8C30, size: 0x8, addend: 0x0, symName: __RNvMNtCsfvfooZQ3Axs_4core6optionINtB2_6OptionNtNtCs6IAuOt8vWmF_3syn4expr5LabelE7is_noneBL_, symObjAddr: 0x5404, symBinAddr: 0x4F324, symSize: 0x28 }
  - { offset: 0xD8C7A, size: 0x8, addend: 0x0, symName: __RNvMNtCsfvfooZQ3Axs_4core6optionINtB2_6OptionNtNtCs6IAuOt8vWmF_3syn4expr5LabelE7is_someBL_, symObjAddr: 0x542C, symBinAddr: 0x4F34C, symSize: 0x28 }
  - { offset: 0xD8CCF, size: 0x8, addend: 0x0, symName: __RNvMNtCsfvfooZQ3Axs_4core6optionINtB2_6OptionNtNtCs6IAuOt8vWmF_3syn4item9SignatureE7is_noneBL_, symObjAddr: 0x5454, symBinAddr: 0x4F374, symSize: 0x28 }
  - { offset: 0xD8D26, size: 0x8, addend: 0x0, symName: __RNvMNtCsfvfooZQ3Axs_4core6optionINtB2_6OptionNtNtCs6IAuOt8vWmF_3syn4path30AngleBracketedGenericArgumentsE7is_someBL_, symObjAddr: 0x547C, symBinAddr: 0x4F39C, symSize: 0x2C }
  - { offset: 0xD8D7B, size: 0x8, addend: 0x0, symName: __RNvMNtCsfvfooZQ3Axs_4core6optionINtB2_6OptionNtNtCs6IAuOt8vWmF_3syn4path5QSelfE7is_noneBL_, symObjAddr: 0x54A8, symBinAddr: 0x4F3C8, symSize: 0x28 }
  - { offset: 0xD8DC5, size: 0x8, addend: 0x0, symName: __RNvMNtCsfvfooZQ3Axs_4core6optionINtB2_6OptionNtNtCs6IAuOt8vWmF_3syn4path5QSelfE7is_someBL_, symObjAddr: 0x54D0, symBinAddr: 0x4F3F0, symSize: 0x28 }
  - { offset: 0xD8DFE, size: 0x8, addend: 0x0, symName: __RNvMNtCsfvfooZQ3Axs_4core6optionINtB2_6OptionNtNtCs6IAuOt8vWmF_3syn5token2EqE7is_someBL_, symObjAddr: 0x54F8, symBinAddr: 0x4F418, symSize: 0x20 }
  - { offset: 0xD8E53, size: 0x8, addend: 0x0, symName: __RNvMNtCsfvfooZQ3Axs_4core6optionINtB2_6OptionNtNtCs6IAuOt8vWmF_3syn5token2LtE7is_noneBL_, symObjAddr: 0x5518, symBinAddr: 0x4F438, symSize: 0x20 }
  - { offset: 0xD8EAA, size: 0x8, addend: 0x0, symName: __RNvMNtCsfvfooZQ3Axs_4core6optionINtB2_6OptionNtNtCs6IAuOt8vWmF_3syn5token2OrE7is_someBL_, symObjAddr: 0x5538, symBinAddr: 0x4F458, symSize: 0x20 }
  - { offset: 0xD8EFF, size: 0x8, addend: 0x0, symName: __RNvMNtCsfvfooZQ3Axs_4core6optionINtB2_6OptionNtNtCs6IAuOt8vWmF_3syn5token3BoxE7is_noneBL_, symObjAddr: 0x5558, symBinAddr: 0x4F478, symSize: 0x20 }
  - { offset: 0xD8F49, size: 0x8, addend: 0x0, symName: __RNvMNtCsfvfooZQ3Axs_4core6optionINtB2_6OptionNtNtCs6IAuOt8vWmF_3syn5token3BoxE7is_someBL_, symObjAddr: 0x5578, symBinAddr: 0x4F498, symSize: 0x20 }
  - { offset: 0xD8F82, size: 0x8, addend: 0x0, symName: __RNvMNtCsfvfooZQ3Axs_4core6optionINtB2_6OptionNtNtCs6IAuOt8vWmF_3syn5token3MutE6as_refBL_, symObjAddr: 0x5598, symBinAddr: 0x4F4B8, symSize: 0x48 }
  - { offset: 0xD8FE8, size: 0x8, addend: 0x0, symName: __RNvMNtCsfvfooZQ3Axs_4core6optionINtB2_6OptionNtNtCs6IAuOt8vWmF_3syn5token3MutE7is_noneBL_, symObjAddr: 0x55E0, symBinAddr: 0x4F500, symSize: 0x20 }
  - { offset: 0xD9032, size: 0x8, addend: 0x0, symName: __RNvMNtCsfvfooZQ3Axs_4core6optionINtB2_6OptionNtNtCs6IAuOt8vWmF_3syn5token3MutE7is_someBL_, symObjAddr: 0x5600, symBinAddr: 0x4F520, symSize: 0x20 }
  - { offset: 0xD906B, size: 0x8, addend: 0x0, symName: __RNvMNtCsfvfooZQ3Axs_4core6optionINtB2_6OptionNtNtCs6IAuOt8vWmF_3syn5token3RawE7is_someBL_, symObjAddr: 0x5620, symBinAddr: 0x4F540, symSize: 0x20 }
  - { offset: 0xD90C0, size: 0x8, addend: 0x0, symName: __RNvMNtCsfvfooZQ3Axs_4core6optionINtB2_6OptionNtNtCs6IAuOt8vWmF_3syn5token3RefE7is_noneBL_, symObjAddr: 0x5640, symBinAddr: 0x4F560, symSize: 0x20 }
  - { offset: 0xD910A, size: 0x8, addend: 0x0, symName: __RNvMNtCsfvfooZQ3Axs_4core6optionINtB2_6OptionNtNtCs6IAuOt8vWmF_3syn5token3RefE7is_someBL_, symObjAddr: 0x5660, symBinAddr: 0x4F580, symSize: 0x20 }
  - { offset: 0xD915F, size: 0x8, addend: 0x0, symName: __RNvMNtCsfvfooZQ3Axs_4core6optionINtB2_6OptionNtNtCs6IAuOt8vWmF_3syn5token4SemiE7is_noneBL_, symObjAddr: 0x5680, symBinAddr: 0x4F5A0, symSize: 0x20 }
  - { offset: 0xD91A9, size: 0x8, addend: 0x0, symName: __RNvMNtCsfvfooZQ3Axs_4core6optionINtB2_6OptionNtNtCs6IAuOt8vWmF_3syn5token4SemiE7is_someBL_, symObjAddr: 0x56A0, symBinAddr: 0x4F5C0, symSize: 0x20 }
  - { offset: 0xD91E2, size: 0x8, addend: 0x0, symName: __RNvMNtCsfvfooZQ3Axs_4core6optionINtB2_6OptionNtNtCs6IAuOt8vWmF_3syn5token4StarE7is_someBL_, symObjAddr: 0x56C0, symBinAddr: 0x4F5E0, symSize: 0x20 }
  - { offset: 0xD9237, size: 0x8, addend: 0x0, symName: __RNvMNtCsfvfooZQ3Axs_4core6optionINtB2_6OptionNtNtCs6IAuOt8vWmF_3syn5token5ColonE7is_noneBL_, symObjAddr: 0x56E0, symBinAddr: 0x4F600, symSize: 0x20 }
  - { offset: 0xD9281, size: 0x8, addend: 0x0, symName: __RNvMNtCsfvfooZQ3Axs_4core6optionINtB2_6OptionNtNtCs6IAuOt8vWmF_3syn5token5ColonE7is_someBL_, symObjAddr: 0x5700, symBinAddr: 0x4F620, symSize: 0x20 }
  - { offset: 0xD92D6, size: 0x8, addend: 0x0, symName: __RNvMNtCsfvfooZQ3Axs_4core6optionINtB2_6OptionNtNtCs6IAuOt8vWmF_3syn5token5CommaE7is_noneBL_, symObjAddr: 0x5720, symBinAddr: 0x4F640, symSize: 0x20 }
  - { offset: 0xD9349, size: 0x8, addend: 0x0, symName: __RNvMNtCsfvfooZQ3Axs_4core6optionINtB2_6OptionNtNtCs6IAuOt8vWmF_3syn5token6UnsafeE7is_noneBL_, symObjAddr: 0x5740, symBinAddr: 0x4F660, symSize: 0x20 }
  - { offset: 0xD9393, size: 0x8, addend: 0x0, symName: __RNvMNtCsfvfooZQ3Axs_4core6optionINtB2_6OptionNtNtCs6IAuOt8vWmF_3syn5token6UnsafeE7is_someBL_, symObjAddr: 0x5760, symBinAddr: 0x4F680, symSize: 0x20 }
  - { offset: 0xD93E8, size: 0x8, addend: 0x0, symName: __RNvMNtCsfvfooZQ3Axs_4core6optionINtB2_6OptionNtNtCs6IAuOt8vWmF_3syn5token7DefaultE7is_noneBL_, symObjAddr: 0x5780, symBinAddr: 0x4F6A0, symSize: 0x20 }
  - { offset: 0xD945B, size: 0x8, addend: 0x0, symName: __RNvMNtCsfvfooZQ3Axs_4core6optionINtB2_6OptionNtNtCs6IAuOt8vWmF_3syn5token7PathSepE7is_noneBL_, symObjAddr: 0x57A0, symBinAddr: 0x4F6C0, symSize: 0x20 }
  - { offset: 0xD94A5, size: 0x8, addend: 0x0, symName: __RNvMNtCsfvfooZQ3Axs_4core6optionINtB2_6OptionNtNtCs6IAuOt8vWmF_3syn5token7PathSepE7is_someBL_, symObjAddr: 0x57C0, symBinAddr: 0x4F6E0, symSize: 0x20 }
  - { offset: 0xD94FA, size: 0x8, addend: 0x0, symName: __RNvMNtCsfvfooZQ3Axs_4core6optionINtB2_6OptionNtNtCs6IAuOt8vWmF_3syn8generics11WhereClauseE7is_noneBL_, symObjAddr: 0x5830, symBinAddr: 0x4F700, symSize: 0x2C }
  - { offset: 0xD956D, size: 0x8, addend: 0x0, symName: __RNvMNtCsfvfooZQ3Axs_4core6optionINtB2_6OptionNtNtCs6IAuOt8vWmF_3syn8generics14BoundLifetimesE7is_noneBL_, symObjAddr: 0x585C, symBinAddr: 0x4F72C, symSize: 0x2C }
  - { offset: 0xD95B7, size: 0x8, addend: 0x0, symName: __RNvMNtCsfvfooZQ3Axs_4core6optionINtB2_6OptionNtNtCs6IAuOt8vWmF_3syn8generics14BoundLifetimesE7is_someBL_, symObjAddr: 0x5888, symBinAddr: 0x4F758, symSize: 0x2C }
  - { offset: 0xD960C, size: 0x8, addend: 0x0, symName: __RNvMNtCsfvfooZQ3Axs_4core6optionINtB2_6OptionNtNtCs6IAuOt8vWmF_3syn8lifetime8LifetimeE7is_noneBL_, symObjAddr: 0x5900, symBinAddr: 0x4F784, symSize: 0x28 }
  - { offset: 0xD9656, size: 0x8, addend: 0x0, symName: __RNvMNtCsfvfooZQ3Axs_4core6optionINtB2_6OptionNtNtCs6IAuOt8vWmF_3syn8lifetime8LifetimeE7is_someBL_, symObjAddr: 0x5928, symBinAddr: 0x4F7AC, symSize: 0x28 }
  - { offset: 0xD968F, size: 0x8, addend: 0x0, symName: __RNvMNtCsfvfooZQ3Axs_4core6optionINtB2_6OptionNtNtNtCs6IAuOt8vWmF_3syn3pat7parsing13PatRangeBoundE7is_someBN_, symObjAddr: 0x5950, symBinAddr: 0x4F7D4, symSize: 0x30 }
  - { offset: 0xD96C8, size: 0x8, addend: 0x0, symName: __RNvMNtCsfvfooZQ3Axs_4core6optionINtB2_6OptionRNtCs3cP53eQoTwO_11proc_macro25IdentE7is_someCs6IAuOt8vWmF_3syn, symObjAddr: 0x5980, symBinAddr: 0x4F804, symSize: 0x28 }
  - { offset: 0xD970E, size: 0x8, addend: 0x0, symName: __RNvMNtCsfvfooZQ3Axs_4core6optionINtB2_6OptionRRNtNtCs6IAuOt8vWmF_3syn5token5CommaE7is_someBN_, symObjAddr: 0x59A8, symBinAddr: 0x4F82C, symSize: 0x28 }
  - { offset: 0xD9763, size: 0x8, addend: 0x0, symName: __RNvMNtCsfvfooZQ3Axs_4core6optionINtB2_6OptionTIBv_NtNtCs6IAuOt8vWmF_3syn5token3NotENtNtBQ_4path4PathNtBO_3ForEE7is_noneBQ_, symObjAddr: 0x59D0, symBinAddr: 0x4F854, symSize: 0x2C }
  - { offset: 0xD97F4, size: 0x8, addend: 0x0, symName: __RNvMNtCsfvfooZQ3Axs_4core6optionINtB2_6OptionTNtCs3cP53eQoTwO_11proc_macro24SpanNtBK_9DelimiterEE7is_noneCs6IAuOt8vWmF_3syn, symObjAddr: 0x59FC, symBinAddr: 0x4F880, symSize: 0x28 }
  - { offset: 0xD9867, size: 0x8, addend: 0x0, symName: __RNvMNtCsfvfooZQ3Axs_4core6optionINtB2_6OptionTNtCs3cP53eQoTwO_11proc_macro25IdentNtNtCs6IAuOt8vWmF_3syn5token5ColonEE7is_noneB1l_, symObjAddr: 0x5A24, symBinAddr: 0x4F8A8, symSize: 0x28 }
  - { offset: 0xD98DC, size: 0x8, addend: 0x0, symName: __RNvMNtCsfvfooZQ3Axs_4core6optionINtB2_6OptionTNtCs3cP53eQoTwO_11proc_macro25IdentNtNtCs6IAuOt8vWmF_3syn6buffer6CursorEE7is_someB1l_, symObjAddr: 0x5A4C, symBinAddr: 0x4F8D0, symSize: 0x28 }
  - { offset: 0xD9940, size: 0x8, addend: 0x0, symName: __RNvMNtCsfvfooZQ3Axs_4core6optionINtB2_6OptionTNtNtCs6IAuOt8vWmF_3syn5token2EqNtNtBM_2ty4TypeEE7is_someBM_, symObjAddr: 0x5AF0, symBinAddr: 0x4F8F8, symSize: 0x28 }
  - { offset: 0xD9979, size: 0x8, addend: 0x0, symName: __RNvMNtCsfvfooZQ3Axs_4core6optionINtB2_6OptionTNtNtCs6IAuOt8vWmF_3syn5token3AndIBv_NtNtBM_8lifetime8LifetimeEEE6as_refBM_, symObjAddr: 0x5B18, symBinAddr: 0x4F920, symSize: 0x4C }
  - { offset: 0xD99C3, size: 0x8, addend: 0x0, symName: __RNvMNtCsfvfooZQ3Axs_4core6optionINtB2_6OptionTNtNtCs6IAuOt8vWmF_3syn5token3AndIBv_NtNtBM_8lifetime8LifetimeEEE7is_someBM_, symObjAddr: 0x5B64, symBinAddr: 0x4F96C, symSize: 0x28 }
  - { offset: 0xD9A09, size: 0x8, addend: 0x0, symName: __RNvMNtCsfvfooZQ3Axs_4core6optionINtB2_6OptionTNtNtCs6IAuOt8vWmF_3syn5token4ElseINtNtCse1nGBsou5OW_5alloc5boxed3BoxNtNtBM_4expr4ExprEEE6as_mutBM_, symObjAddr: 0x5B8C, symBinAddr: 0x4F994, symSize: 0x4C }
  - { offset: 0xD9A60, size: 0x8, addend: 0x0, symName: __RNvMNtCsfvfooZQ3Axs_4core6optionINtB2_6OptionTNtNtCs6IAuOt8vWmF_3syn5token4ElseINtNtCse1nGBsou5OW_5alloc5boxed3BoxNtNtBM_4expr4ExprEEE7is_someBM_, symObjAddr: 0x5BD8, symBinAddr: 0x4F9E0, symSize: 0x28 }
  - { offset: 0xD9AC2, size: 0x8, addend: 0x0, symName: __RNvMNtCsfvfooZQ3Axs_4core6optionINtB2_6OptionTNtNtCs6IAuOt8vWmF_3syn6buffer6CursorNtNtCs3cP53eQoTwO_11proc_macro25extra9DelimSpanBI_EE7is_someBM_, symObjAddr: 0x5C28, symBinAddr: 0x4FA08, symSize: 0x20 }
  - { offset: 0xD9AFB, size: 0x8, addend: 0x0, symName: __RNvMNtCsfvfooZQ3Axs_4core6optionINtB2_6OptionTNtNtCs6IAuOt8vWmF_3syn8lifetime8LifetimeNtNtBM_6buffer6CursorEE7is_someBM_, symObjAddr: 0x5C48, symBinAddr: 0x4FA28, symSize: 0x28 }
  - { offset: 0xD9B27, size: 0x8, addend: 0x0, symName: __RNvMNtCsfvfooZQ3Axs_4core6optionINtB2_6OptioncE9unwrap_orCs6IAuOt8vWmF_3syn, symObjAddr: 0x5C70, symBinAddr: 0x4FA50, symSize: 0x4C }
  - { offset: 0xD9C07, size: 0x8, addend: 0x0, symName: __RNvXs3_NtCs2cqEZUIJimJ_5quote9to_tokensINtNtCsfvfooZQ3Axs_4core6option6OptionINtNtCse1nGBsou5OW_5alloc5boxed3BoxNtNtCs6IAuOt8vWmF_3syn4expr4ExprEENtB5_8ToTokens9to_tokensB1Q_, symObjAddr: 0x6154, symBinAddr: 0x4FC6C, symSize: 0x84 }
  - { offset: 0xD9C63, size: 0x8, addend: 0x0, symName: __RNvXs3_NtCs2cqEZUIJimJ_5quote9to_tokensINtNtCsfvfooZQ3Axs_4core6option6OptionNtCs3cP53eQoTwO_11proc_macro25IdentENtB5_8ToTokens9to_tokensCs6IAuOt8vWmF_3syn, symObjAddr: 0x61D8, symBinAddr: 0x4FCF0, symSize: 0x84 }
  - { offset: 0xD9CBF, size: 0x8, addend: 0x0, symName: __RNvXs3_NtCs2cqEZUIJimJ_5quote9to_tokensINtNtCsfvfooZQ3Axs_4core6option6OptionNtNtCs6IAuOt8vWmF_3syn2ty3AbiENtB5_8ToTokens9to_tokensB1h_, symObjAddr: 0x625C, symBinAddr: 0x4FD74, symSize: 0x80 }
  - { offset: 0xD9D1B, size: 0x8, addend: 0x0, symName: __RNvXs3_NtCs2cqEZUIJimJ_5quote9to_tokensINtNtCsfvfooZQ3Axs_4core6option6OptionNtNtCs6IAuOt8vWmF_3syn3lit6LitStrENtB5_8ToTokens9to_tokensB1h_, symObjAddr: 0x62DC, symBinAddr: 0x4FDF4, symSize: 0x84 }
  - { offset: 0xD9D77, size: 0x8, addend: 0x0, symName: __RNvXs3_NtCs2cqEZUIJimJ_5quote9to_tokensINtNtCsfvfooZQ3Axs_4core6option6OptionNtNtCs6IAuOt8vWmF_3syn3pat7PatRestENtB5_8ToTokens9to_tokensB1h_, symObjAddr: 0x6360, symBinAddr: 0x4FE78, symSize: 0x88 }
  - { offset: 0xD9DD3, size: 0x8, addend: 0x0, symName: __RNvXs3_NtCs2cqEZUIJimJ_5quote9to_tokensINtNtCsfvfooZQ3Axs_4core6option6OptionNtNtCs6IAuOt8vWmF_3syn4expr5LabelENtB5_8ToTokens9to_tokensB1h_, symObjAddr: 0x63E8, symBinAddr: 0x4FF00, symSize: 0x84 }
  - { offset: 0xD9E2F, size: 0x8, addend: 0x0, symName: __RNvXs3_NtCs2cqEZUIJimJ_5quote9to_tokensINtNtCsfvfooZQ3Axs_4core6option6OptionNtNtCs6IAuOt8vWmF_3syn4path30AngleBracketedGenericArgumentsENtB5_8ToTokens9to_tokensB1h_, symObjAddr: 0x646C, symBinAddr: 0x4FF84, symSize: 0x88 }
  - { offset: 0xD9E8B, size: 0x8, addend: 0x0, symName: __RNvXs3_NtCs2cqEZUIJimJ_5quote9to_tokensINtNtCsfvfooZQ3Axs_4core6option6OptionNtNtCs6IAuOt8vWmF_3syn5token2InENtB5_8ToTokens9to_tokensB1h_, symObjAddr: 0x64F4, symBinAddr: 0x5000C, symSize: 0x80 }
  - { offset: 0xD9EE7, size: 0x8, addend: 0x0, symName: __RNvXs3_NtCs2cqEZUIJimJ_5quote9to_tokensINtNtCsfvfooZQ3Axs_4core6option6OptionNtNtCs6IAuOt8vWmF_3syn5token2OrENtB5_8ToTokens9to_tokensB1h_, symObjAddr: 0x6574, symBinAddr: 0x5008C, symSize: 0x80 }
  - { offset: 0xD9F43, size: 0x8, addend: 0x0, symName: __RNvXs3_NtCs2cqEZUIJimJ_5quote9to_tokensINtNtCsfvfooZQ3Axs_4core6option6OptionNtNtCs6IAuOt8vWmF_3syn5token3DynENtB5_8ToTokens9to_tokensB1h_, symObjAddr: 0x65F4, symBinAddr: 0x5010C, symSize: 0x80 }
  - { offset: 0xD9F9F, size: 0x8, addend: 0x0, symName: __RNvXs3_NtCs2cqEZUIJimJ_5quote9to_tokensINtNtCsfvfooZQ3Axs_4core6option6OptionNtNtCs6IAuOt8vWmF_3syn5token3MutENtB5_8ToTokens9to_tokensB1h_, symObjAddr: 0x6674, symBinAddr: 0x5018C, symSize: 0x80 }
  - { offset: 0xD9FFB, size: 0x8, addend: 0x0, symName: __RNvXs3_NtCs2cqEZUIJimJ_5quote9to_tokensINtNtCsfvfooZQ3Axs_4core6option6OptionNtNtCs6IAuOt8vWmF_3syn5token3NotENtB5_8ToTokens9to_tokensB1h_, symObjAddr: 0x66F4, symBinAddr: 0x5020C, symSize: 0x80 }
  - { offset: 0xDA057, size: 0x8, addend: 0x0, symName: __RNvXs3_NtCs2cqEZUIJimJ_5quote9to_tokensINtNtCsfvfooZQ3Axs_4core6option6OptionNtNtCs6IAuOt8vWmF_3syn5token3RefENtB5_8ToTokens9to_tokensB1h_, symObjAddr: 0x6774, symBinAddr: 0x5028C, symSize: 0x80 }
  - { offset: 0xDA0B3, size: 0x8, addend: 0x0, symName: __RNvXs3_NtCs2cqEZUIJimJ_5quote9to_tokensINtNtCsfvfooZQ3Axs_4core6option6OptionNtNtCs6IAuOt8vWmF_3syn5token4AutoENtB5_8ToTokens9to_tokensB1h_, symObjAddr: 0x67F4, symBinAddr: 0x5030C, symSize: 0x80 }
  - { offset: 0xDA10F, size: 0x8, addend: 0x0, symName: __RNvXs3_NtCs2cqEZUIJimJ_5quote9to_tokensINtNtCsfvfooZQ3Axs_4core6option6OptionNtNtCs6IAuOt8vWmF_3syn5token4MoveENtB5_8ToTokens9to_tokensB1h_, symObjAddr: 0x6874, symBinAddr: 0x5038C, symSize: 0x80 }
  - { offset: 0xDA16B, size: 0x8, addend: 0x0, symName: __RNvXs3_NtCs2cqEZUIJimJ_5quote9to_tokensINtNtCsfvfooZQ3Axs_4core6option6OptionNtNtCs6IAuOt8vWmF_3syn5token4SemiENtB5_8ToTokens9to_tokensB1h_, symObjAddr: 0x68F4, symBinAddr: 0x5040C, symSize: 0x80 }
  - { offset: 0xDA1C7, size: 0x8, addend: 0x0, symName: __RNvXs3_NtCs2cqEZUIJimJ_5quote9to_tokensINtNtCsfvfooZQ3Axs_4core6option6OptionNtNtCs6IAuOt8vWmF_3syn5token5AsyncENtB5_8ToTokens9to_tokensB1h_, symObjAddr: 0x6974, symBinAddr: 0x5048C, symSize: 0x80 }
  - { offset: 0xDA223, size: 0x8, addend: 0x0, symName: __RNvXs3_NtCs2cqEZUIJimJ_5quote9to_tokensINtNtCsfvfooZQ3Axs_4core6option6OptionNtNtCs6IAuOt8vWmF_3syn5token5CommaENtB5_8ToTokens9to_tokensB1h_, symObjAddr: 0x69F4, symBinAddr: 0x5050C, symSize: 0x80 }
  - { offset: 0xDA27F, size: 0x8, addend: 0x0, symName: __RNvXs3_NtCs2cqEZUIJimJ_5quote9to_tokensINtNtCsfvfooZQ3Axs_4core6option6OptionNtNtCs6IAuOt8vWmF_3syn5token5ConstENtB5_8ToTokens9to_tokensB1h_, symObjAddr: 0x6A74, symBinAddr: 0x5058C, symSize: 0x80 }
  - { offset: 0xDA2DB, size: 0x8, addend: 0x0, symName: __RNvXs3_NtCs2cqEZUIJimJ_5quote9to_tokensINtNtCsfvfooZQ3Axs_4core6option6OptionNtNtCs6IAuOt8vWmF_3syn5token6StaticENtB5_8ToTokens9to_tokensB1h_, symObjAddr: 0x6AF4, symBinAddr: 0x5060C, symSize: 0x80 }
  - { offset: 0xDA337, size: 0x8, addend: 0x0, symName: __RNvXs3_NtCs2cqEZUIJimJ_5quote9to_tokensINtNtCsfvfooZQ3Axs_4core6option6OptionNtNtCs6IAuOt8vWmF_3syn5token6UnsafeENtB5_8ToTokens9to_tokensB1h_, symObjAddr: 0x6B74, symBinAddr: 0x5068C, symSize: 0x80 }
  - { offset: 0xDA393, size: 0x8, addend: 0x0, symName: __RNvXs3_NtCs2cqEZUIJimJ_5quote9to_tokensINtNtCsfvfooZQ3Axs_4core6option6OptionNtNtCs6IAuOt8vWmF_3syn5token7DefaultENtB5_8ToTokens9to_tokensB1h_, symObjAddr: 0x6BF4, symBinAddr: 0x5070C, symSize: 0x80 }
  - { offset: 0xDA3EF, size: 0x8, addend: 0x0, symName: __RNvXs3_NtCs2cqEZUIJimJ_5quote9to_tokensINtNtCsfvfooZQ3Axs_4core6option6OptionNtNtCs6IAuOt8vWmF_3syn5token7PathSepENtB5_8ToTokens9to_tokensB1h_, symObjAddr: 0x6C74, symBinAddr: 0x5078C, symSize: 0x80 }
  - { offset: 0xDA44B, size: 0x8, addend: 0x0, symName: __RNvXs3_NtCs2cqEZUIJimJ_5quote9to_tokensINtNtCsfvfooZQ3Axs_4core6option6OptionNtNtCs6IAuOt8vWmF_3syn8generics11WhereClauseENtB5_8ToTokens9to_tokensB1h_, symObjAddr: 0x6CF4, symBinAddr: 0x5080C, symSize: 0x88 }
  - { offset: 0xDA4A7, size: 0x8, addend: 0x0, symName: __RNvXs3_NtCs2cqEZUIJimJ_5quote9to_tokensINtNtCsfvfooZQ3Axs_4core6option6OptionNtNtCs6IAuOt8vWmF_3syn8generics14BoundLifetimesENtB5_8ToTokens9to_tokensB1h_, symObjAddr: 0x6D7C, symBinAddr: 0x50894, symSize: 0x88 }
  - { offset: 0xDA503, size: 0x8, addend: 0x0, symName: __RNvXs3_NtCs2cqEZUIJimJ_5quote9to_tokensINtNtCsfvfooZQ3Axs_4core6option6OptionNtNtCs6IAuOt8vWmF_3syn8lifetime8LifetimeENtB5_8ToTokens9to_tokensB1h_, symObjAddr: 0x6E04, symBinAddr: 0x5091C, symSize: 0x84 }
  - { offset: 0xDA55F, size: 0x8, addend: 0x0, symName: __RNvXs3_NtCs2cqEZUIJimJ_5quote9to_tokensINtNtCsfvfooZQ3Axs_4core6option6OptionRRNtNtCs6IAuOt8vWmF_3syn5token7PathSepENtB5_8ToTokens9to_tokensB1j_, symObjAddr: 0x6F0C, symBinAddr: 0x509A0, symSize: 0x84 }
  - { offset: 0xDACE1, size: 0x8, addend: 0x0, symName: __RINvNtCse1nGBsou5OW_5alloc3str17join_generic_copyehReECs6IAuOt8vWmF_3syn, symObjAddr: 0x0, symBinAddr: 0x53B84, symSize: 0x160C }
  - { offset: 0xDDBDC, size: 0x8, addend: 0x0, symName: __RNvNtNtCs6IAuOt8vWmF_3syn3pat7parsing14multi_pat_impl, symObjAddr: 0xB210, symBinAddr: 0x5D3D4, symSize: 0x5DC }
  - { offset: 0xDDD11, size: 0x8, addend: 0x0, symName: __RNvNtNtCs6IAuOt8vWmF_3syn3pat7parsing36pat_path_or_macro_or_struct_or_range, symObjAddr: 0xB7EC, symBinAddr: 0x5D9B0, symSize: 0x728 }
  - { offset: 0xDDE09, size: 0x8, addend: 0x0, symName: __RNvNtNtCs6IAuOt8vWmF_3syn3pat7parsing8pat_wild, symObjAddr: 0xBF14, symBinAddr: 0x5E0D8, symSize: 0x138 }
  - { offset: 0xDDE55, size: 0x8, addend: 0x0, symName: __RNvNtNtCs6IAuOt8vWmF_3syn3pat7parsing7pat_box, symObjAddr: 0xC04C, symBinAddr: 0x5E210, symSize: 0x208 }
  - { offset: 0xDDEE0, size: 0x8, addend: 0x0, symName: __RNvNtNtCs6IAuOt8vWmF_3syn3pat7parsing9pat_ident, symObjAddr: 0xC254, symBinAddr: 0x5E418, symSize: 0x618 }
  - { offset: 0xDE053, size: 0x8, addend: 0x0, symName: __RNvNtNtCs6IAuOt8vWmF_3syn3pat7parsing16pat_tuple_struct, symObjAddr: 0xC86C, symBinAddr: 0x5EA30, symSize: 0x570 }
  - { offset: 0xDE19E, size: 0x8, addend: 0x0, symName: __RNvNtNtCs6IAuOt8vWmF_3syn3pat7parsing10pat_struct, symObjAddr: 0xCDDC, symBinAddr: 0x5EFA0, symSize: 0x92C }
  - { offset: 0xDE36C, size: 0x8, addend: 0x0, symName: __RNvNtNtCs6IAuOt8vWmF_3syn3pat7parsing9field_pat, symObjAddr: 0xD708, symBinAddr: 0x5F8CC, symSize: 0xB80 }
  - { offset: 0xDE5AE, size: 0x8, addend: 0x0, symName: __RNvNtNtCs6IAuOt8vWmF_3syn3pat7parsing9pat_range, symObjAddr: 0xE288, symBinAddr: 0x6044C, symSize: 0x4F4 }
  - { offset: 0xDE6B5, size: 0x8, addend: 0x0, symName: __RNvNtNtCs6IAuOt8vWmF_3syn3pat7parsing19pat_range_half_open, symObjAddr: 0xE77C, symBinAddr: 0x60940, symSize: 0x3A4 }
  - { offset: 0xDE785, size: 0x8, addend: 0x0, symName: __RNvNtNtCs6IAuOt8vWmF_3syn3pat7parsing18pat_paren_or_tuple, symObjAddr: 0xEB20, symBinAddr: 0x60CE4, symSize: 0x694 }
  - { offset: 0xDE8CF, size: 0x8, addend: 0x0, symName: __RNvNtNtCs6IAuOt8vWmF_3syn3pat7parsing13pat_reference, symObjAddr: 0xF1B4, symBinAddr: 0x61378, symSize: 0x348 }
  - { offset: 0xDEA31, size: 0x8, addend: 0x0, symName: __RNvNtNtCs6IAuOt8vWmF_3syn3pat7parsing16pat_lit_or_range, symObjAddr: 0xF4FC, symBinAddr: 0x616C0, symSize: 0x538 }
  - { offset: 0xDEB4E, size: 0x8, addend: 0x0, symName: __RNvNtNtCs6IAuOt8vWmF_3syn3pat7parsing15pat_range_bound, symObjAddr: 0xFD44, symBinAddr: 0x61F08, symSize: 0x6CC }
  - { offset: 0xDEBF7, size: 0x8, addend: 0x0, symName: __RNvNtNtCs6IAuOt8vWmF_3syn3pat7parsing9pat_slice, symObjAddr: 0x10410, symBinAddr: 0x625D4, symSize: 0x700 }
  - { offset: 0xDEDB6, size: 0x8, addend: 0x0, symName: __RNvNtNtCs6IAuOt8vWmF_3syn3pat7parsing9pat_const, symObjAddr: 0x10B10, symBinAddr: 0x62CD4, symSize: 0x3A0 }
  - { offset: 0xDEED3, size: 0x8, addend: 0x0, symName: __RNvXNtNtCs6IAuOt8vWmF_3syn3pat8printingNtB4_8PatIdentNtNtCs2cqEZUIJimJ_5quote9to_tokens8ToTokens9to_tokens, symObjAddr: 0x10EB0, symBinAddr: 0x63074, symSize: 0xF0 }
  - { offset: 0xDEF40, size: 0x8, addend: 0x0, symName: __RNvXs_NtNtCs6IAuOt8vWmF_3syn3pat8printingNtB6_5PatOrNtNtCs2cqEZUIJimJ_5quote9to_tokens8ToTokens9to_tokens, symObjAddr: 0x10FA0, symBinAddr: 0x63164, symSize: 0x74 }
  - { offset: 0xDEF7F, size: 0x8, addend: 0x0, symName: __RNvXs0_NtNtCs6IAuOt8vWmF_3syn3pat8printingNtB7_8PatParenNtNtCs2cqEZUIJimJ_5quote9to_tokens8ToTokens9to_tokens, symObjAddr: 0x11014, symBinAddr: 0x631D8, symSize: 0x68 }
  - { offset: 0xDEFBE, size: 0x8, addend: 0x0, symName: __RNvXs1_NtNtCs6IAuOt8vWmF_3syn3pat8printingNtB7_12PatReferenceNtNtCs2cqEZUIJimJ_5quote9to_tokens8ToTokens9to_tokens, symObjAddr: 0x1107C, symBinAddr: 0x63240, symSize: 0x84 }
  - { offset: 0xDEFFD, size: 0x8, addend: 0x0, symName: __RNvXs2_NtNtCs6IAuOt8vWmF_3syn3pat8printingNtB7_7PatRestNtNtCs2cqEZUIJimJ_5quote9to_tokens8ToTokens9to_tokens, symObjAddr: 0x11100, symBinAddr: 0x632C4, symSize: 0x64 }
  - { offset: 0xDF03C, size: 0x8, addend: 0x0, symName: __RNvXs3_NtNtCs6IAuOt8vWmF_3syn3pat8printingNtB7_8PatSliceNtNtCs2cqEZUIJimJ_5quote9to_tokens8ToTokens9to_tokens, symObjAddr: 0x11164, symBinAddr: 0x63328, symSize: 0x68 }
  - { offset: 0xDF07B, size: 0x8, addend: 0x0, symName: __RNvXs4_NtNtCs6IAuOt8vWmF_3syn3pat8printingNtB7_9PatStructNtNtCs2cqEZUIJimJ_5quote9to_tokens8ToTokens9to_tokens, symObjAddr: 0x111CC, symBinAddr: 0x63390, symSize: 0x88 }
  - { offset: 0xDF0BA, size: 0x8, addend: 0x0, symName: __RNvXs5_NtNtCs6IAuOt8vWmF_3syn3pat8printingNtB7_8PatTupleNtNtCs2cqEZUIJimJ_5quote9to_tokens8ToTokens9to_tokens, symObjAddr: 0x11254, symBinAddr: 0x63418, symSize: 0x68 }
  - { offset: 0xDF0F9, size: 0x8, addend: 0x0, symName: __RNvXs6_NtNtCs6IAuOt8vWmF_3syn3pat8printingNtB7_14PatTupleStructNtNtCs2cqEZUIJimJ_5quote9to_tokens8ToTokens9to_tokens, symObjAddr: 0x112BC, symBinAddr: 0x63480, symSize: 0x88 }
  - { offset: 0xDF138, size: 0x8, addend: 0x0, symName: __RNvXs7_NtNtCs6IAuOt8vWmF_3syn3pat8printingNtB7_7PatTypeNtNtCs2cqEZUIJimJ_5quote9to_tokens8ToTokens9to_tokens, symObjAddr: 0x11344, symBinAddr: 0x63508, symSize: 0x84 }
  - { offset: 0xDF177, size: 0x8, addend: 0x0, symName: __RNvXs8_NtNtCs6IAuOt8vWmF_3syn3pat8printingNtB7_7PatWildNtNtCs2cqEZUIJimJ_5quote9to_tokens8ToTokens9to_tokens, symObjAddr: 0x113C8, symBinAddr: 0x6358C, symSize: 0x64 }
  - { offset: 0xDF1B6, size: 0x8, addend: 0x0, symName: __RNvXs9_NtNtCs6IAuOt8vWmF_3syn3pat8printingNtB7_8FieldPatNtNtCs2cqEZUIJimJ_5quote9to_tokens8ToTokens9to_tokens, symObjAddr: 0x1142C, symBinAddr: 0x635F0, symSize: 0xC0 }
  - { offset: 0xDF219, size: 0x8, addend: 0x0, symName: __RNcNtNtNtCs6IAuOt8vWmF_3syn3pat3Pat5Ident0B7_, symObjAddr: 0x1204C, symBinAddr: 0x636B0, symSize: 0x3C }
  - { offset: 0xDF248, size: 0x8, addend: 0x0, symName: __RNcNtNtNtCs6IAuOt8vWmF_3syn3pat3Pat9Reference0B7_, symObjAddr: 0x12088, symBinAddr: 0x636EC, symSize: 0x40 }
  - { offset: 0xDF277, size: 0x8, addend: 0x0, symName: __RNcNtNtNtCs6IAuOt8vWmF_3syn3pat3Pat5Slice0B7_, symObjAddr: 0x120C8, symBinAddr: 0x6372C, symSize: 0x40 }
  - { offset: 0xDF2A6, size: 0x8, addend: 0x0, symName: __RNcNtNtNtCs6IAuOt8vWmF_3syn3pat3Pat6Struct0B7_, symObjAddr: 0x12108, symBinAddr: 0x6376C, symSize: 0x30 }
  - { offset: 0xDF2D5, size: 0x8, addend: 0x0, symName: __RNcNtNtNtCs6IAuOt8vWmF_3syn3pat3Pat11TupleStruct0B7_, symObjAddr: 0x12138, symBinAddr: 0x6379C, symSize: 0x40 }
  - { offset: 0xDF304, size: 0x8, addend: 0x0, symName: __RNcNtNtNtCs6IAuOt8vWmF_3syn3pat3Pat8Verbatim0B7_, symObjAddr: 0x12178, symBinAddr: 0x637DC, symSize: 0x20 }
  - { offset: 0xDF332, size: 0x8, addend: 0x0, symName: __RNcNtNtNtCs6IAuOt8vWmF_3syn3pat3Pat4Wild0B7_, symObjAddr: 0x12198, symBinAddr: 0x637FC, symSize: 0x24 }
  - { offset: 0xDF361, size: 0x8, addend: 0x0, symName: __RNvXse_NtCs6IAuOt8vWmF_3syn3patNtB5_3PatNtNtCs2cqEZUIJimJ_5quote9to_tokens8ToTokens9to_tokens, symObjAddr: 0x12664, symBinAddr: 0x63820, symSize: 0x250 }
  - { offset: 0xDF84D, size: 0x8, addend: 0x0, symName: __RINvNtNtCs6IAuOt8vWmF_3syn3lit5value4byteNtNtCse1nGBsou5OW_5alloc6string6StringEB6_, symObjAddr: 0x3CE4, symBinAddr: 0x562C0, symSize: 0xC0 }
  - { offset: 0xDF8A9, size: 0x8, addend: 0x0, symName: __RINvNtNtCs6IAuOt8vWmF_3syn3lit5value4byteShEB6_, symObjAddr: 0x3DA4, symBinAddr: 0x56380, symSize: 0xBC }
  - { offset: 0xDF905, size: 0x8, addend: 0x0, symName: __RINvNtNtCs6IAuOt8vWmF_3syn3lit5value4byteeEB6_, symObjAddr: 0x3E60, symBinAddr: 0x5643C, symSize: 0xC0 }
  - { offset: 0xDF961, size: 0x8, addend: 0x0, symName: __RNvNtNtCs6IAuOt8vWmF_3syn3lit5value8next_chr, symObjAddr: 0x3F20, symBinAddr: 0x564FC, symSize: 0x54 }
  - { offset: 0xDF98F, size: 0x8, addend: 0x0, symName: __RNvNtNtCs6IAuOt8vWmF_3syn3lit5value13parse_lit_str, symObjAddr: 0x3F74, symBinAddr: 0x56550, symSize: 0xDC }
  - { offset: 0xDF9BD, size: 0x8, addend: 0x0, symName: __RNvNtNtCs6IAuOt8vWmF_3syn3lit5value20parse_lit_str_cooked, symObjAddr: 0x4050, symBinAddr: 0x5662C, symSize: 0x968 }
  - { offset: 0xDFBDA, size: 0x8, addend: 0x0, symName: __RNvNtNtCs6IAuOt8vWmF_3syn3lit5value17parse_lit_str_raw, symObjAddr: 0x49B8, symBinAddr: 0x56F94, symSize: 0x4CC }
  - { offset: 0xDFD94, size: 0x8, addend: 0x0, symName: __RNvNtNtCs6IAuOt8vWmF_3syn3lit5value18parse_lit_byte_str, symObjAddr: 0x4E84, symBinAddr: 0x57460, symSize: 0x158 }
  - { offset: 0xDFE0E, size: 0x8, addend: 0x0, symName: __RNvNtNtCs6IAuOt8vWmF_3syn3lit5value25parse_lit_byte_str_cooked, symObjAddr: 0x4FDC, symBinAddr: 0x575B8, symSize: 0x974 }
  - { offset: 0xE00F6, size: 0x8, addend: 0x0, symName: __RNvNtNtCs6IAuOt8vWmF_3syn3lit5value22parse_lit_byte_str_raw, symObjAddr: 0x5950, symBinAddr: 0x57F2C, symSize: 0x1B8 }
  - { offset: 0xE0198, size: 0x8, addend: 0x0, symName: __RNvNtNtCs6IAuOt8vWmF_3syn3lit5value15parse_lit_c_str, symObjAddr: 0x5B08, symBinAddr: 0x580E4, symSize: 0x158 }
  - { offset: 0xE0212, size: 0x8, addend: 0x0, symName: __RNvNtNtCs6IAuOt8vWmF_3syn3lit5value22parse_lit_c_str_cooked, symObjAddr: 0x5C60, symBinAddr: 0x5823C, symSize: 0xBD0 }
  - { offset: 0xE0570, size: 0x8, addend: 0x0, symName: __RNvNtNtCs6IAuOt8vWmF_3syn3lit5value19parse_lit_c_str_raw, symObjAddr: 0x6830, symBinAddr: 0x58E0C, symSize: 0x278 }
  - { offset: 0xE064C, size: 0x8, addend: 0x0, symName: __RNvNtNtCs6IAuOt8vWmF_3syn3lit5value14parse_lit_byte, symObjAddr: 0x6AA8, symBinAddr: 0x59084, symSize: 0x5C4 }
  - { offset: 0xE08AF, size: 0x8, addend: 0x0, symName: __RNvNtNtCs6IAuOt8vWmF_3syn3lit5value14parse_lit_char, symObjAddr: 0x706C, symBinAddr: 0x59648, symSize: 0x57C }
  - { offset: 0xE0A82, size: 0x8, addend: 0x0, symName: __RINvNtNtCs6IAuOt8vWmF_3syn3lit5value11backslash_xShEB6_, symObjAddr: 0x75E8, symBinAddr: 0x59BC4, symSize: 0x560 }
  - { offset: 0xE0B22, size: 0x8, addend: 0x0, symName: __RINvNtNtCs6IAuOt8vWmF_3syn3lit5value11backslash_xeEB6_, symObjAddr: 0x7B48, symBinAddr: 0x5A124, symSize: 0x544 }
  - { offset: 0xE0B9C, size: 0x8, addend: 0x0, symName: __RINvNtNtCs6IAuOt8vWmF_3syn3lit5value11backslash_uShEB6_, symObjAddr: 0x808C, symBinAddr: 0x5A668, symSize: 0x5F8 }
  - { offset: 0xE0CE4, size: 0x8, addend: 0x0, symName: __RINvNtNtCs6IAuOt8vWmF_3syn3lit5value11backslash_ueEB6_, symObjAddr: 0x8684, symBinAddr: 0x5AC60, symSize: 0x5C8 }
  - { offset: 0xE0D8D, size: 0x8, addend: 0x0, symName: __RNvNtNtCs6IAuOt8vWmF_3syn3lit5value13parse_lit_int, symObjAddr: 0x8C4C, symBinAddr: 0x5B228, symSize: 0xC44 }
  - { offset: 0xE0EDD, size: 0x8, addend: 0x0, symName: __RNvNtNtCs6IAuOt8vWmF_3syn3lit5value15parse_lit_float, symObjAddr: 0x9890, symBinAddr: 0x5BE6C, symSize: 0xBD8 }
  - { offset: 0xE105B, size: 0x8, addend: 0x0, symName: __RNCNvNtNtCs6IAuOt8vWmF_3syn3lit5value15parse_lit_float0B7_, symObjAddr: 0xA468, symBinAddr: 0x5CA44, symSize: 0x38 }
  - { offset: 0xE10A1, size: 0x8, addend: 0x0, symName: __RINvNvNtNtCs6IAuOt8vWmF_3syn3lit5value11backslash_u18panic_cold_displayReEB8_, symObjAddr: 0x12024, symBinAddr: 0x15F14C, symSize: 0x28 }
  - { offset: 0xE28B4, size: 0x8, addend: 0x0, symName: __RNvNtNtCs6IAuOt8vWmF_3syn8generics7parsing26choose_generics_over_qpath, symObjAddr: 0x399C, symBinAddr: 0x55F78, symSize: 0x1F8 }
  - { offset: 0xE28E2, size: 0x8, addend: 0x0, symName: __RNvNtNtCs6IAuOt8vWmF_3syn8generics7parsing40choose_generics_over_qpath_after_keyword, symObjAddr: 0x3B94, symBinAddr: 0x56170, symSize: 0x150 }
  - { offset: 0xE4757, size: 0x8, addend: 0x0, symName: __RNCNCINvNtCse1nGBsou5OW_5alloc3str17join_generic_copyehReE00Cs6IAuOt8vWmF_3syn, symObjAddr: 0x26A8, symBinAddr: 0x557EC, symSize: 0x38 }
  - { offset: 0xE47B0, size: 0x8, addend: 0x0, symName: __RNCINvNtCse1nGBsou5OW_5alloc3str17join_generic_copyehReEs_0Cs6IAuOt8vWmF_3syn, symObjAddr: 0x2398, symBinAddr: 0x554DC, symSize: 0x80 }
  - { offset: 0xE487E, size: 0x8, addend: 0x0, symName: __RINvNtCse1nGBsou5OW_5alloc3str17join_generic_copyehReECs6IAuOt8vWmF_3syn, symObjAddr: 0x0, symBinAddr: 0x53B84, symSize: 0x160C }
  - { offset: 0xE5D79, size: 0x8, addend: 0x0, symName: __RNvXs2_NtCse1nGBsou5OW_5alloc3streNtNtB7_6borrow7ToOwned8to_ownedCs6IAuOt8vWmF_3syn, symObjAddr: 0x2E1C, symBinAddr: 0x55CC4, symSize: 0x50 }
  - { offset: 0xE5E6C, size: 0x8, addend: 0x0, symName: __RNvXs_NtCse1nGBsou5OW_5alloc3strSReINtNtB6_5slice4JoinBv_E4joinCs6IAuOt8vWmF_3syn, symObjAddr: 0x3738, symBinAddr: 0x55E04, symSize: 0x50 }
  - { offset: 0xE9D1F, size: 0x8, addend: 0x0, symName: __RINvNtCsfvfooZQ3Axs_4core3cmp3minjECs6IAuOt8vWmF_3syn, symObjAddr: 0x160C, symBinAddr: 0x55190, symSize: 0x24 }
  - { offset: 0xE9DA0, size: 0x8, addend: 0x0, symName: __RNvXs5_NtCsfvfooZQ3Axs_4core3cmpNtB5_8OrderingNtB5_9PartialEq2eqCs6IAuOt8vWmF_3syn, symObjAddr: 0x335C, symBinAddr: 0x55D90, symSize: 0x2C }
  - { offset: 0xE9DE3, size: 0x8, addend: 0x0, symName: __RNvYjNtNtCsfvfooZQ3Axs_4core3cmp3Ord3minCs6IAuOt8vWmF_3syn, symObjAddr: 0x38E0, symBinAddr: 0x55EF8, symSize: 0x80 }
  - { offset: 0xEA53D, size: 0x8, addend: 0x0, symName: __RNvMNtCsfvfooZQ3Axs_4core5sliceSTNtNtCs6IAuOt8vWmF_3syn3pat3PatNtNtBz_5token2OrE4iterBz_, symObjAddr: 0x26E0, symBinAddr: 0x55824, symSize: 0x28 }
  - { offset: 0xEA574, size: 0x8, addend: 0x0, symName: __RNvMNtCsfvfooZQ3Axs_4core5sliceSTNtNtCs6IAuOt8vWmF_3syn3pat3PatNtNtBz_5token5CommaE4iterBz_, symObjAddr: 0x2708, symBinAddr: 0x5584C, symSize: 0x28 }
  - { offset: 0xEA5AB, size: 0x8, addend: 0x0, symName: __RNvMNtCsfvfooZQ3Axs_4core5sliceSTNtNtCs6IAuOt8vWmF_3syn3pat8FieldPatNtNtBz_5token5CommaE4iterBz_, symObjAddr: 0x2730, symBinAddr: 0x55874, symSize: 0x28 }
  - { offset: 0xEAE3C, size: 0x8, addend: 0x0, symName: __RNvXs2_NtNtNtCsfvfooZQ3Axs_4core3ops8function5implsQNCINvNtCse1nGBsou5OW_5alloc3str17join_generic_copyehReEs_0INtB7_6FnOnceTRB1E_EE9call_onceCs6IAuOt8vWmF_3syn, symObjAddr: 0x3330, symBinAddr: 0x55D64, symSize: 0x2C }
  - { offset: 0xEB9F3, size: 0x8, addend: 0x0, symName: __RNvXs_NtNtNtCsfvfooZQ3Axs_4core4iter8adapters4takeINtB4_4TakeQINtNtCs6IAuOt8vWmF_3syn10punctuated5PairsNtNtB13_4path11PathSegmentNtNtB13_5token7PathSepEENtNtNtB8_6traits8iterator8Iterator4nextB13_, symObjAddr: 0x37D0, symBinAddr: 0x55E78, symSize: 0x5C }
  - { offset: 0xEBBAC, size: 0x8, addend: 0x0, symName: __RNvXs1_NtNtNtCsfvfooZQ3Axs_4core4iter8adapters3zipINtB5_3ZipNtNtNtBb_3str4iter5CharsINtNtNtBb_5slice4iter4IterNtCs3cP53eQoTwO_11proc_macro24SpanEEINtB5_7ZipImplBW_B1k_E3newCs6IAuOt8vWmF_3syn, symObjAddr: 0x2CBC, symBinAddr: 0x55B94, symSize: 0x48 }
  - { offset: 0xEBBF8, size: 0x8, addend: 0x0, symName: __RNvXs1_NtNtNtCsfvfooZQ3Axs_4core4iter8adapters3zipINtB5_3ZipNtNtNtBb_3str4iter5CharsINtNtNtBb_5slice4iter4IterNtCs3cP53eQoTwO_11proc_macro24SpanEEINtB5_7ZipImplBW_B1k_E4nextCs6IAuOt8vWmF_3syn, symObjAddr: 0x2D04, symBinAddr: 0x55BDC, symSize: 0xE8 }
  - { offset: 0xEBD46, size: 0x8, addend: 0x0, symName: __RNvXs_NtNtNtCsfvfooZQ3Axs_4core4iter8adapters3zipINtB4_3ZipNtNtNtBa_3str4iter5CharsINtNtNtBa_5slice4iter4IterNtCs3cP53eQoTwO_11proc_macro24SpanEENtNtNtB8_6traits8iterator8Iterator4nextCs6IAuOt8vWmF_3syn, symObjAddr: 0x37AC, symBinAddr: 0x55E54, symSize: 0x24 }
  - { offset: 0xEBEF5, size: 0x8, addend: 0x0, symName: __RINvYINtNtNtCsfvfooZQ3Axs_4core5array4iter8IntoIterNtCs3cP53eQoTwO_11proc_macro29TokenTreeKj1_ENtNtNtNtBa_4iter6traits8iterator8Iterator3mapNtCs9i5KxIbZ5ph_10proc_macro9TokenTreeNvNtBP_3imp19into_compiler_tokenECs6IAuOt8vWmF_3syn, symObjAddr: 0x22A0, symBinAddr: 0x553E4, symSize: 0x30 }
  - { offset: 0xEBF63, size: 0x8, addend: 0x0, symName: __RINvYINtNtNtCsfvfooZQ3Axs_4core5array4iter8IntoIterNtCs3cP53eQoTwO_11proc_macro29TokenTreeKj1_ENtNtNtNtBa_4iter6traits8iterator8Iterator7collectNtNtBP_3imp11TokenStreamECs6IAuOt8vWmF_3syn, symObjAddr: 0x22D0, symBinAddr: 0x55414, symSize: 0x14 }
  - { offset: 0xEBFA4, size: 0x8, addend: 0x0, symName: __RINvYINtNtNtCsfvfooZQ3Axs_4core5array4iter8IntoIterNtCs3cP53eQoTwO_11proc_macro29TokenTreeKj1_ENtNtNtNtBa_4iter6traits8iterator8Iterator7collectNtNtBP_8fallback11TokenStreamECs6IAuOt8vWmF_3syn, symObjAddr: 0x22E4, symBinAddr: 0x55428, symSize: 0x14 }
  - { offset: 0xEBFE5, size: 0x8, addend: 0x0, symName: __RINvYINtNtNtCsfvfooZQ3Axs_4core5array4iter8IntoIterNtCs3cP53eQoTwO_11proc_macro29TokenTreeKj1_ENtNtNtNtBa_4iter6traits8iterator8Iterator8for_eachNCINvXsa_NtBP_8fallbackNtB2s_11TokenStreamINtNtB1z_7collect6ExtendBN_E6extendB3_E0ECs6IAuOt8vWmF_3syn, symObjAddr: 0x22F8, symBinAddr: 0x5543C, symSize: 0x24 }
  - { offset: 0xEC031, size: 0x8, addend: 0x0, symName: __RINvYINtNtNtCsfvfooZQ3Axs_4core5array4iter8IntoIterNtCs3cP53eQoTwO_11proc_macro29TokenTreeKj8_ENtNtNtNtBa_4iter6traits8iterator8Iterator3mapNtCs9i5KxIbZ5ph_10proc_macro9TokenTreeNvNtBP_3imp19into_compiler_tokenECs6IAuOt8vWmF_3syn, symObjAddr: 0x231C, symBinAddr: 0x55460, symSize: 0x30 }
  - { offset: 0xEC09F, size: 0x8, addend: 0x0, symName: __RINvYINtNtNtCsfvfooZQ3Axs_4core5array4iter8IntoIterNtCs3cP53eQoTwO_11proc_macro29TokenTreeKj8_ENtNtNtNtBa_4iter6traits8iterator8Iterator7collectNtNtBP_3imp11TokenStreamECs6IAuOt8vWmF_3syn, symObjAddr: 0x234C, symBinAddr: 0x55490, symSize: 0x14 }
  - { offset: 0xEC0E0, size: 0x8, addend: 0x0, symName: __RINvYINtNtNtCsfvfooZQ3Axs_4core5array4iter8IntoIterNtCs3cP53eQoTwO_11proc_macro29TokenTreeKj8_ENtNtNtNtBa_4iter6traits8iterator8Iterator7collectNtNtBP_8fallback11TokenStreamECs6IAuOt8vWmF_3syn, symObjAddr: 0x2360, symBinAddr: 0x554A4, symSize: 0x14 }
  - { offset: 0xEC121, size: 0x8, addend: 0x0, symName: __RINvYINtNtNtCsfvfooZQ3Axs_4core5array4iter8IntoIterNtCs3cP53eQoTwO_11proc_macro29TokenTreeKj8_ENtNtNtNtBa_4iter6traits8iterator8Iterator8for_eachNCINvXsa_NtBP_8fallbackNtB2s_11TokenStreamINtNtB1z_7collect6ExtendBN_E6extendB3_E0ECs6IAuOt8vWmF_3syn, symObjAddr: 0x2374, symBinAddr: 0x554B8, symSize: 0x24 }
  - { offset: 0xEC16D, size: 0x8, addend: 0x0, symName: __RNvYINtNtNtNtCsfvfooZQ3Axs_4core4iter8adapters4take4TakeQINtNtCs6IAuOt8vWmF_3syn10punctuated5PairsNtNtBY_4path11PathSegmentNtNtBY_5token7PathSepEENtNtNtB9_6traits8iterator8Iterator9enumerateBY_, symObjAddr: 0x382C, symBinAddr: 0x55ED4, symSize: 0x24 }
  - { offset: 0xEC1C5, size: 0x8, addend: 0x0, symName: __RNvXNtNtNtCsfvfooZQ3Axs_4core4iter6traits7collectINtNtNtB6_8adapters3zip3ZipNtNtNtB8_3str4iter5CharsINtNtNtB8_5slice4iter4IterNtCs3cP53eQoTwO_11proc_macro24SpanEENtB2_12IntoIterator9into_iterCs6IAuOt8vWmF_3syn, symObjAddr: 0x29F8, symBinAddr: 0x55A7C, symSize: 0x30 }
  - { offset: 0xEC1FD, size: 0x8, addend: 0x0, symName: __RNvXNtNtNtCsfvfooZQ3Axs_4core4iter6traits7collectINtNtNtB8_5array4iter8IntoIterNtCs3cP53eQoTwO_11proc_macro29TokenTreeKj1_ENtB2_12IntoIterator9into_iterCs6IAuOt8vWmF_3syn, symObjAddr: 0x2A28, symBinAddr: 0x55AAC, symSize: 0x30 }
  - { offset: 0xEC235, size: 0x8, addend: 0x0, symName: __RNvXNtNtNtCsfvfooZQ3Axs_4core4iter6traits7collectINtNtNtB8_5array4iter8IntoIterNtCs3cP53eQoTwO_11proc_macro29TokenTreeKj8_ENtB2_12IntoIterator9into_iterCs6IAuOt8vWmF_3syn, symObjAddr: 0x2A58, symBinAddr: 0x55ADC, symSize: 0x30 }
  - { offset: 0xEC27A, size: 0x8, addend: 0x0, symName: __RNvXsF_NtNtCsfvfooZQ3Axs_4core4iter5rangejNtB5_4Step17forward_uncheckedCs6IAuOt8vWmF_3syn, symObjAddr: 0x36F0, symBinAddr: 0x55DBC, symSize: 0x48 }
  - { offset: 0xEC368, size: 0x8, addend: 0x0, symName: __RNCINvXs0_NtNtCsfvfooZQ3Axs_4core5array4iterINtB8_8IntoIterNtCs3cP53eQoTwO_11proc_macro29TokenTreeKj1_ENtNtNtNtBc_4iter6traits8iterator8Iterator4folduNCINvNtNtB1J_8adapters3map8map_foldBV_NtCs9i5KxIbZ5ph_10proc_macro9TokenTreeuNvNtBX_3imp19into_compiler_tokenNCINvNvB1D_8for_each4callB30_NCINvXsg_B32_NtB32_11TokenStreamINtNtB1H_7collect12FromIteratorB30_E9from_iterINtB2t_3MapBG_B3D_EE0E0E0E0Cs6IAuOt8vWmF_3syn, symObjAddr: 0x2418, symBinAddr: 0x5555C, symSize: 0xA4 }
  - { offset: 0xEC4CC, size: 0x8, addend: 0x0, symName: __RNCINvXs0_NtNtCsfvfooZQ3Axs_4core5array4iterINtB8_8IntoIterNtCs3cP53eQoTwO_11proc_macro29TokenTreeKj1_ENtNtNtNtBc_4iter6traits8iterator8Iterator4folduNCINvNvB1D_8for_each4callBV_NCINvXsa_NtBX_8fallbackNtB2Z_11TokenStreamINtNtB1H_7collect6ExtendBV_E6extendBG_E0E0E0Cs6IAuOt8vWmF_3syn, symObjAddr: 0x24BC, symBinAddr: 0x55600, symSize: 0xA4 }
  - { offset: 0xEC630, size: 0x8, addend: 0x0, symName: __RNCINvXs0_NtNtCsfvfooZQ3Axs_4core5array4iterINtB8_8IntoIterNtCs3cP53eQoTwO_11proc_macro29TokenTreeKj8_ENtNtNtNtBc_4iter6traits8iterator8Iterator4folduNCINvNtNtB1J_8adapters3map8map_foldBV_NtCs9i5KxIbZ5ph_10proc_macro9TokenTreeuNvNtBX_3imp19into_compiler_tokenNCINvNvB1D_8for_each4callB30_NCINvXsg_B32_NtB32_11TokenStreamINtNtB1H_7collect12FromIteratorB30_E9from_iterINtB2t_3MapBG_B3D_EE0E0E0E0Cs6IAuOt8vWmF_3syn, symObjAddr: 0x2560, symBinAddr: 0x556A4, symSize: 0xA4 }
  - { offset: 0xEC794, size: 0x8, addend: 0x0, symName: __RNCINvXs0_NtNtCsfvfooZQ3Axs_4core5array4iterINtB8_8IntoIterNtCs3cP53eQoTwO_11proc_macro29TokenTreeKj8_ENtNtNtNtBc_4iter6traits8iterator8Iterator4folduNCINvNvB1D_8for_each4callBV_NCINvXsa_NtBX_8fallbackNtB2Z_11TokenStreamINtNtB1H_7collect6ExtendBV_E6extendBG_E0E0E0Cs6IAuOt8vWmF_3syn, symObjAddr: 0x2604, symBinAddr: 0x55748, symSize: 0xA4 }
  - { offset: 0xEC8F9, size: 0x8, addend: 0x0, symName: __RINvXs0_NtNtCsfvfooZQ3Axs_4core5array4iterINtB6_8IntoIterNtCs3cP53eQoTwO_11proc_macro29TokenTreeKj1_ENtNtNtNtBa_4iter6traits8iterator8Iterator4folduNCINvNtNtB1H_8adapters3map8map_foldBT_NtCs9i5KxIbZ5ph_10proc_macro9TokenTreeuNvNtBV_3imp19into_compiler_tokenNCINvNvB1B_8for_each4callB2Y_NCINvXsg_B30_NtB30_11TokenStreamINtNtB1F_7collect12FromIteratorB2Y_E9from_iterINtB2r_3MapBE_B3B_EE0E0E0ECs6IAuOt8vWmF_3syn, symObjAddr: 0x2070, symBinAddr: 0x551B4, symSize: 0x8C }
  - { offset: 0xEC9A9, size: 0x8, addend: 0x0, symName: __RINvXs0_NtNtCsfvfooZQ3Axs_4core5array4iterINtB6_8IntoIterNtCs3cP53eQoTwO_11proc_macro29TokenTreeKj1_ENtNtNtNtBa_4iter6traits8iterator8Iterator4folduNCINvNvB1B_8for_each4callBT_NCINvXsa_NtBV_8fallbackNtB2X_11TokenStreamINtNtB1F_7collect6ExtendBT_E6extendBE_E0E0ECs6IAuOt8vWmF_3syn, symObjAddr: 0x20FC, symBinAddr: 0x55240, symSize: 0x8C }
  - { offset: 0xECA59, size: 0x8, addend: 0x0, symName: __RINvXs0_NtNtCsfvfooZQ3Axs_4core5array4iterINtB6_8IntoIterNtCs3cP53eQoTwO_11proc_macro29TokenTreeKj8_ENtNtNtNtBa_4iter6traits8iterator8Iterator4folduNCINvNtNtB1H_8adapters3map8map_foldBT_NtCs9i5KxIbZ5ph_10proc_macro9TokenTreeuNvNtBV_3imp19into_compiler_tokenNCINvNvB1B_8for_each4callB2Y_NCINvXsg_B30_NtB30_11TokenStreamINtNtB1F_7collect12FromIteratorB2Y_E9from_iterINtB2r_3MapBE_B3B_EE0E0E0ECs6IAuOt8vWmF_3syn, symObjAddr: 0x2188, symBinAddr: 0x552CC, symSize: 0x8C }
  - { offset: 0xECB09, size: 0x8, addend: 0x0, symName: __RINvXs0_NtNtCsfvfooZQ3Axs_4core5array4iterINtB6_8IntoIterNtCs3cP53eQoTwO_11proc_macro29TokenTreeKj8_ENtNtNtNtBa_4iter6traits8iterator8Iterator4folduNCINvNvB1B_8for_each4callBT_NCINvXsa_NtBV_8fallbackNtB2X_11TokenStreamINtNtB1F_7collect6ExtendBT_E6extendBE_E0E0ECs6IAuOt8vWmF_3syn, symObjAddr: 0x2214, symBinAddr: 0x55358, symSize: 0x8C }
  - { offset: 0xECBB9, size: 0x8, addend: 0x0, symName: __RNvXs0_NtNtCsfvfooZQ3Axs_4core5array4iterINtB5_8IntoIterNtCs3cP53eQoTwO_11proc_macro29TokenTreeKj1_ENtNtNtNtB9_4iter6traits8iterator8Iterator9size_hintCs6IAuOt8vWmF_3syn, symObjAddr: 0x2A88, symBinAddr: 0x55B0C, symSize: 0x44 }
  - { offset: 0xECC20, size: 0x8, addend: 0x0, symName: __RNvXs0_NtNtCsfvfooZQ3Axs_4core5array4iterINtB5_8IntoIterNtCs3cP53eQoTwO_11proc_macro29TokenTreeKj8_ENtNtNtNtB9_4iter6traits8iterator8Iterator9size_hintCs6IAuOt8vWmF_3syn, symObjAddr: 0x2ACC, symBinAddr: 0x55B50, symSize: 0x44 }
  - { offset: 0xECD73, size: 0x8, addend: 0x0, symName: __RNvXs2_NtNtCsfvfooZQ3Axs_4core5array4iterINtB5_8IntoIterNtCs3cP53eQoTwO_11proc_macro29TokenTreeKj1_ENtNtNtB9_3ops4drop4Drop4dropCs6IAuOt8vWmF_3syn, symObjAddr: 0x2E6C, symBinAddr: 0x55D14, symSize: 0x28 }
  - { offset: 0xECDA6, size: 0x8, addend: 0x0, symName: __RNvXs2_NtNtCsfvfooZQ3Axs_4core5array4iterINtB5_8IntoIterNtCs3cP53eQoTwO_11proc_macro29TokenTreeKj8_ENtNtNtB9_3ops4drop4Drop4dropCs6IAuOt8vWmF_3syn, symObjAddr: 0x2E94, symBinAddr: 0x55D3C, symSize: 0x28 }
  - { offset: 0xEE02B, size: 0x8, addend: 0x0, symName: __RNvMs_NtNtCsfvfooZQ3Axs_4core5array4iterINtB4_8IntoIterNtCs3cP53eQoTwO_11proc_macro29TokenTreeKj1_E12as_mut_sliceCs6IAuOt8vWmF_3syn, symObjAddr: 0x2758, symBinAddr: 0x5589C, symSize: 0xB0 }
  - { offset: 0xEE13F, size: 0x8, addend: 0x0, symName: __RNvMs_NtNtCsfvfooZQ3Axs_4core5array4iterINtB4_8IntoIterNtCs3cP53eQoTwO_11proc_macro29TokenTreeKj8_E12as_mut_sliceCs6IAuOt8vWmF_3syn, symObjAddr: 0x2808, symBinAddr: 0x5594C, symSize: 0xB0 }
  - { offset: 0xEE243, size: 0x8, addend: 0x0, symName: __RNvXNtCs2cqEZUIJimJ_5quote9to_tokensRNtNtCs6IAuOt8vWmF_3syn3pat3PatNtB2_8ToTokens9to_tokensBD_, symObjAddr: 0x28B8, symBinAddr: 0x559FC, symSize: 0x40 }
  - { offset: 0xEE282, size: 0x8, addend: 0x0, symName: __RNvXNtCs2cqEZUIJimJ_5quote9to_tokensRNtNtCs6IAuOt8vWmF_3syn3pat8FieldPatNtB2_8ToTokens9to_tokensBD_, symObjAddr: 0x28F8, symBinAddr: 0x55A3C, symSize: 0x40 }
  - { offset: 0xEE504, size: 0x8, addend: 0x0, symName: __RNvMNtNtCs6IAuOt8vWmF_3syn3pat7parsingNtB4_3Pat12parse_single, symObjAddr: 0xA4D4, symBinAddr: 0x5CA7C, symSize: 0x888 }
  - { offset: 0xEE555, size: 0x8, addend: 0x0, symName: __RNvMNtNtCs6IAuOt8vWmF_3syn3pat7parsingNtB4_3Pat29parse_multi_with_leading_vert, symObjAddr: 0xADA0, symBinAddr: 0x5D304, symSize: 0xD0 }
  - { offset: 0xEE5DF, size: 0x8, addend: 0x0, symName: __RNvMs0_NtNtCs6IAuOt8vWmF_3syn3pat7parsingNtB5_13PatRangeBound9into_expr, symObjAddr: 0xFA34, symBinAddr: 0x61BF8, symSize: 0x1A8 }
  - { offset: 0xEE677, size: 0x8, addend: 0x0, symName: __RNvMs0_NtNtCs6IAuOt8vWmF_3syn3pat7parsingNtB5_13PatRangeBound8into_pat, symObjAddr: 0xFBDC, symBinAddr: 0x61DA0, symSize: 0x168 }
  - { offset: 0xEEA28, size: 0x8, addend: 0x0, symName: __RINvMNtCse1nGBsou5OW_5alloc5sliceSRe4joinBw_ECs6IAuOt8vWmF_3syn, symObjAddr: 0x0, symBinAddr: 0x63A70, symSize: 0x34 }
  - { offset: 0xEEEC0, size: 0x8, addend: 0x0, symName: __RINvXs6_Cs3cP53eQoTwO_11proc_macro2NtB6_11TokenStreamINtNtNtNtCsfvfooZQ3Axs_4core4iter6traits7collect12FromIteratorNtB6_9TokenTreeE9from_iterAB1P_j1_ECs6IAuOt8vWmF_3syn, symObjAddr: 0x12B4, symBinAddr: 0x64D24, symSize: 0x54 }
  - { offset: 0xEEEF8, size: 0x8, addend: 0x0, symName: __RINvXs6_Cs3cP53eQoTwO_11proc_macro2NtB6_11TokenStreamINtNtNtNtCsfvfooZQ3Axs_4core4iter6traits7collect12FromIteratorNtB6_9TokenTreeE9from_iterAB1P_j8_ECs6IAuOt8vWmF_3syn, symObjAddr: 0x1308, symBinAddr: 0x64D78, symSize: 0x5C }
  - { offset: 0xEEF30, size: 0x8, addend: 0x0, symName: __RINvXs6_Cs3cP53eQoTwO_11proc_macro2NtB6_11TokenStreamINtNtNtNtCsfvfooZQ3Axs_4core4iter6traits7collect12FromIteratorNtB6_9TokenTreeE9from_iterINtNtNtCse1nGBsou5OW_5alloc3vec9into_iter8IntoIterB1P_EECs6IAuOt8vWmF_3syn, symObjAddr: 0x13B8, symBinAddr: 0x64DD4, symSize: 0x54 }
  - { offset: 0xEEF6E, size: 0x8, addend: 0x0, symName: __RINvXs7_Cs3cP53eQoTwO_11proc_macro2NtB6_11TokenStreamINtNtNtNtCsfvfooZQ3Axs_4core4iter6traits7collect12FromIteratorBx_E9from_iterINtNtNtBW_8adapters3map3MapINtNtNtBY_5slice4iter4IterNtNtCs6IAuOt8vWmF_3syn5error12ErrorMessageENvMs_B2W_B2U_16to_compile_errorEEB2Y_, symObjAddr: 0x140C, symBinAddr: 0x64E28, symSize: 0x5C }
  - { offset: 0xEEFAA, size: 0x8, addend: 0x0, symName: __RNCINvXs7_Cs3cP53eQoTwO_11proc_macro2NtB8_11TokenStreamINtNtNtNtCsfvfooZQ3Axs_4core4iter6traits7collect12FromIteratorBz_E9from_iterINtNtNtBY_8adapters3map3MapINtNtNtB10_5slice4iter4IterNtNtCs6IAuOt8vWmF_3syn5error12ErrorMessageENvMs_B2Z_B2X_16to_compile_errorEE0B31_, symObjAddr: 0x1818, symBinAddr: 0x650E4, symSize: 0x30 }
  - { offset: 0xEF1DB, size: 0x8, addend: 0x0, symName: __RNvXsG_Cs3cP53eQoTwO_11proc_macro2NtB5_11TokenStreamNtNtCsfvfooZQ3Axs_4core5clone5Clone5cloneCs6IAuOt8vWmF_3syn, symObjAddr: 0x248C, symBinAddr: 0x656B4, symSize: 0x78 }
  - { offset: 0xEF20D, size: 0x8, addend: 0x0, symName: __RNvXsI_Cs3cP53eQoTwO_11proc_macro2NtB5_4SpanNtNtCsfvfooZQ3Axs_4core5clone5Clone5cloneCs6IAuOt8vWmF_3syn, symObjAddr: 0x2504, symBinAddr: 0x6572C, symSize: 0x18 }
  - { offset: 0xEF241, size: 0x8, addend: 0x0, symName: __RNvXsK_Cs3cP53eQoTwO_11proc_macro2NtB5_5GroupNtNtCsfvfooZQ3Axs_4core5clone5Clone5cloneCs6IAuOt8vWmF_3syn, symObjAddr: 0x251C, symBinAddr: 0x65744, symSize: 0x40 }
  - { offset: 0xEF275, size: 0x8, addend: 0x0, symName: __RNvXsM_Cs3cP53eQoTwO_11proc_macro2NtB5_9DelimiterNtNtCsfvfooZQ3Axs_4core5clone5Clone5cloneCs6IAuOt8vWmF_3syn, symObjAddr: 0x255C, symBinAddr: 0x65784, symSize: 0x18 }
  - { offset: 0xEF2A9, size: 0x8, addend: 0x0, symName: __RNvXsQ_Cs3cP53eQoTwO_11proc_macro2NtB5_9DelimiterNtNtCsfvfooZQ3Axs_4core3cmp9PartialEq2eqCs6IAuOt8vWmF_3syn, symObjAddr: 0x2574, symBinAddr: 0x6579C, symSize: 0x34 }
  - { offset: 0xEF328, size: 0x8, addend: 0x0, symName: __RNvXsR_Cs3cP53eQoTwO_11proc_macro2NtB5_5PunctNtNtCsfvfooZQ3Axs_4core5clone5Clone5cloneCs6IAuOt8vWmF_3syn, symObjAddr: 0x25A8, symBinAddr: 0x657D0, symSize: 0x64 }
  - { offset: 0xEF35C, size: 0x8, addend: 0x0, symName: __RNvXsT_Cs3cP53eQoTwO_11proc_macro2NtB5_7SpacingNtNtCsfvfooZQ3Axs_4core5clone5Clone5cloneCs6IAuOt8vWmF_3syn, symObjAddr: 0x260C, symBinAddr: 0x65834, symSize: 0x1C }
  - { offset: 0xEF390, size: 0x8, addend: 0x0, symName: __RNvXsX_Cs3cP53eQoTwO_11proc_macro2NtB5_7SpacingNtNtCsfvfooZQ3Axs_4core3cmp9PartialEq2eqCs6IAuOt8vWmF_3syn, symObjAddr: 0x2628, symBinAddr: 0x65850, symSize: 0x3C }
  - { offset: 0xEF40F, size: 0x8, addend: 0x0, symName: __RNvXsY_Cs3cP53eQoTwO_11proc_macro2NtB5_5IdentNtNtCsfvfooZQ3Axs_4core5clone5Clone5cloneCs6IAuOt8vWmF_3syn, symObjAddr: 0x2664, symBinAddr: 0x6588C, symSize: 0x78 }
  - { offset: 0xEF443, size: 0x8, addend: 0x0, symName: __RNvXsZ_Cs3cP53eQoTwO_11proc_macro2NtB5_7LiteralNtNtCsfvfooZQ3Axs_4core5clone5Clone5cloneCs6IAuOt8vWmF_3syn, symObjAddr: 0x26DC, symBinAddr: 0x65904, symSize: 0x78 }
  - { offset: 0xEF477, size: 0x8, addend: 0x0, symName: __RNvXsv_Cs3cP53eQoTwO_11proc_macro2NtB5_5IdentINtNtCsfvfooZQ3Axs_4core3cmp9PartialEqReE2eqCs6IAuOt8vWmF_3syn, symObjAddr: 0x40E8, symBinAddr: 0x65C50, symSize: 0x40 }
  - { offset: 0xEF4BD, size: 0x8, addend: 0x0, symName: __RNvXsv_Cs3cP53eQoTwO_11proc_macro2NtB5_5IdentINtNtCsfvfooZQ3Axs_4core3cmp9PartialEqeE2eqCs6IAuOt8vWmF_3syn, symObjAddr: 0x4128, symBinAddr: 0x65C90, symSize: 0x44 }
  - { offset: 0xF037B, size: 0x8, addend: 0x0, symName: __RNvNvMs1_NtNtCsfvfooZQ3Axs_4core3ptr8non_nullINtB7_7NonNullpE13new_unchecked18precondition_checkCs6IAuOt8vWmF_3syn, symObjAddr: 0x1D48, symBinAddr: 0x65444, symSize: 0x38 }
  - { offset: 0xF0DBF, size: 0x8, addend: 0x0, symName: __RNvXs1p_NtNtCsfvfooZQ3Axs_4core3fmt3numjNtB8_5Debug3fmtCs6IAuOt8vWmF_3syn, symObjAddr: 0x2150, symBinAddr: 0x655AC, symSize: 0x90 }
  - { offset: 0xFB969, size: 0x8, addend: 0x0, symName: __RNvXs2_NtNtNtCsfvfooZQ3Axs_4core3ops8function5implsQNCINvXs7_Cs3cP53eQoTwO_11proc_macro2NtBX_11TokenStreamINtNtNtNtBb_4iter6traits7collect12FromIteratorB1o_E9from_iterINtNtNtB1N_8adapters3map3MapINtNtNtBb_5slice4iter4IterNtNtCs6IAuOt8vWmF_3syn5error12ErrorMessageENvMs_B3z_B3x_16to_compile_errorEE0INtB7_6FnOnceTB1o_EE9call_onceB3B_, symObjAddr: 0x21E0, symBinAddr: 0x6563C, symSize: 0x3C }
  - { offset: 0xFBC03, size: 0x8, addend: 0x0, symName: __RINvNvNtNtNtNtCsfvfooZQ3Axs_4core4iter6traits8iterator8Iterator4last4someNtCs3cP53eQoTwO_11proc_macro29TokenTreeECs6IAuOt8vWmF_3syn, symObjAddr: 0x74, symBinAddr: 0x63AE4, symSize: 0x24 }
  - { offset: 0xFBC4F, size: 0x8, addend: 0x0, symName: __RNCINvNvNtNtNtNtCsfvfooZQ3Axs_4core4iter6traits8iterator8Iterator3all5checkRNtNtCs6IAuOt8vWmF_3syn4path11PathSegmentNCNvMs5_NtB1e_7parsingNtB1e_4Path12is_mod_style0E0B1g_, symObjAddr: 0x1468, symBinAddr: 0x64E84, symSize: 0x50 }
  - { offset: 0xFBCB7, size: 0x8, addend: 0x0, symName: __RNCINvNvNtNtNtNtCsfvfooZQ3Axs_4core4iter6traits8iterator8Iterator8for_each4callNtCs3cP53eQoTwO_11proc_macro29TokenTreeNCINvXsa_NtB1h_8fallbackNtB21_11TokenStreamINtNtBa_7collect6ExtendB1f_E6extendINtNtNtBe_5array4iter8IntoIterB1f_Kj1_EE0E0Cs6IAuOt8vWmF_3syn, symObjAddr: 0x14F4, symBinAddr: 0x64ED4, symSize: 0x3C }
  - { offset: 0xFBD10, size: 0x8, addend: 0x0, symName: __RNCINvNvNtNtNtNtCsfvfooZQ3Axs_4core4iter6traits8iterator8Iterator8for_each4callNtCs3cP53eQoTwO_11proc_macro29TokenTreeNCINvXsa_NtB1h_8fallbackNtB21_11TokenStreamINtNtBa_7collect6ExtendB1f_E6extendINtNtNtBe_5array4iter8IntoIterB1f_Kj8_EE0E0Cs6IAuOt8vWmF_3syn, symObjAddr: 0x1530, symBinAddr: 0x64F10, symSize: 0x3C }
  - { offset: 0xFBD69, size: 0x8, addend: 0x0, symName: __RNCINvNvNtNtNtNtCsfvfooZQ3Axs_4core4iter6traits8iterator8Iterator8for_each4callNtCs3cP53eQoTwO_11proc_macro29TokenTreeNCINvXsa_NtB1h_8fallbackNtB21_11TokenStreamINtNtBa_7collect6ExtendB1f_E6extendINtNtNtCse1nGBsou5OW_5alloc3vec9into_iter8IntoIterB1f_EE0E0Cs6IAuOt8vWmF_3syn, symObjAddr: 0x156C, symBinAddr: 0x64F4C, symSize: 0x3C }
  - { offset: 0xFBDC2, size: 0x8, addend: 0x0, symName: __RNCINvNvNtNtNtNtCsfvfooZQ3Axs_4core4iter6traits8iterator8Iterator8for_each4callNtCs9i5KxIbZ5ph_10proc_macro11TokenStreamNCINvXsj_B1h_B1f_INtNtBa_7collect6ExtendB1f_E6extendINtNtNtBc_8adapters3map3MapIB2L_IB2L_INtNtNtBe_5slice4iter4IterNtNtCs6IAuOt8vWmF_3syn5error12ErrorMessageENvMs_B3N_B3L_16to_compile_errorENCINvXs7_Cs3cP53eQoTwO_11proc_macro2NtB57_11TokenStreamINtB2e_12FromIteratorB5y_E9from_iterB3g_E0ENCINvXs6_NtB57_3impNtB6H_11TokenStreamIB5S_B6R_E9from_iterB3b_E0EE0E0B3P_, symObjAddr: 0x15A8, symBinAddr: 0x64F88, symSize: 0x28 }
  - { offset: 0xFBE1A, size: 0x8, addend: 0x0, symName: __RNCINvNvNtNtNtNtCsfvfooZQ3Axs_4core4iter6traits8iterator8Iterator8for_each4callNtCs9i5KxIbZ5ph_10proc_macro9TokenTreeNCINvXsg_B1h_NtB1h_11TokenStreamINtNtBa_7collect12FromIteratorB1f_E9from_iterINtNtNtBc_8adapters3map3MapINtNtNtBe_5array4iter8IntoIterNtCs3cP53eQoTwO_11proc_macro29TokenTreeKj1_ENvNtB43_3imp19into_compiler_tokenEE0E0Cs6IAuOt8vWmF_3syn, symObjAddr: 0x160C, symBinAddr: 0x64FB0, symSize: 0x3C }
  - { offset: 0xFBE73, size: 0x8, addend: 0x0, symName: __RNCINvNvNtNtNtNtCsfvfooZQ3Axs_4core4iter6traits8iterator8Iterator8for_each4callNtCs9i5KxIbZ5ph_10proc_macro9TokenTreeNCINvXsg_B1h_NtB1h_11TokenStreamINtNtBa_7collect12FromIteratorB1f_E9from_iterINtNtNtBc_8adapters3map3MapINtNtNtBe_5array4iter8IntoIterNtCs3cP53eQoTwO_11proc_macro29TokenTreeKj8_ENvNtB43_3imp19into_compiler_tokenEE0E0Cs6IAuOt8vWmF_3syn, symObjAddr: 0x1648, symBinAddr: 0x64FEC, symSize: 0x3C }
  - { offset: 0xFBECC, size: 0x8, addend: 0x0, symName: __RNCINvNvNtNtNtNtCsfvfooZQ3Axs_4core4iter6traits8iterator8Iterator8for_each4callNtCs9i5KxIbZ5ph_10proc_macro9TokenTreeNCINvXsg_B1h_NtB1h_11TokenStreamINtNtBa_7collect12FromIteratorB1f_E9from_iterINtNtNtBc_8adapters3map3MapINtNtNtCse1nGBsou5OW_5alloc3vec9into_iter8IntoIterNtCs3cP53eQoTwO_11proc_macro29TokenTreeENvNtB4n_3imp19into_compiler_tokenEE0E0Cs6IAuOt8vWmF_3syn, symObjAddr: 0x1684, symBinAddr: 0x65028, symSize: 0x3C }
  - { offset: 0xFBF25, size: 0x8, addend: 0x0, symName: __RNCINvNvNtNtNtNtCsfvfooZQ3Axs_4core4iter6traits8iterator8Iterator8for_each4callNtNtCs6IAuOt8vWmF_3syn8generics14TypeParamBoundNCINvMsi_NtCse1nGBsou5OW_5alloc3vecINtB29_3VecB1f_E14extend_trustedINtNtBe_6option8IntoIterB1f_EE0E0B1j_, symObjAddr: 0x1798, symBinAddr: 0x65064, symSize: 0x40 }
  - { offset: 0xFBF7E, size: 0x8, addend: 0x0, symName: __RNCINvNvNtNtNtNtCsfvfooZQ3Axs_4core4iter6traits8iterator8Iterator8for_each4callNtNtCs6IAuOt8vWmF_3syn8generics14TypeParamBoundNCINvMsi_NtCse1nGBsou5OW_5alloc3vecINtB29_3VecB1f_E14extend_trustedINtNtNtBc_8adapters3map3MapINtNtB29_9into_iter8IntoIterTB1f_NtNtB1j_5token4PlusEENCNvXs8_NtB1j_10punctuatedINtB4w_10PunctuatedB1f_B43_ENtNtBa_7collect12IntoIterator9into_iter0EE0E0B1j_, symObjAddr: 0x17D8, symBinAddr: 0x650A4, symSize: 0x40 }
