---
triple:          'arm64-apple-darwin'
binary-path:     '/Users/cedric/orange/ran-llm-claude-flow/src/rust-pipeline/target/debug/deps/libtracing_attributes-d84c2999517e4e03.dylib'
relocations:
  - { offset: 0x1E, size: 0x8, addend: 0x0, symName: __RNvXs1_NtNtNtCsfvfooZQ3Axs_4core3ops8function5implsQNCNCINvNtCs8noNfkmVAKC_18tracing_attributes6expand9gen_blockNtCs3cP53eQoTwO_11proc_macro211TokenStreamEs0_0s2_0INtB7_5FnMutTRRTNtB1O_5IdentTB2R_NtBV_10RecordTypeEEEE8call_mutBX_, symObjAddr: 0x0, symBinAddr: 0xC58, symSize: 0x30 }
  - { offset: 0x2D56, size: 0x8, addend: 0x0, symName: __RNvXs1_NtNtNtCsfvfooZQ3Axs_4core3ops8function5implsQNCNCINvNtCs8noNfkmVAKC_18tracing_attributes6expand9gen_blockNtCs3cP53eQoTwO_11proc_macro211TokenStreamEs0_0s2_0INtB7_5FnMutTRRTNtB1O_5IdentTB2R_NtBV_10RecordTypeEEEE8call_mutBX_, symObjAddr: 0x0, symBinAddr: 0xC58, symSize: 0x30 }
  - { offset: 0x2DA5, size: 0x8, addend: 0x0, symName: __RNvXs1_NtNtNtCsfvfooZQ3Axs_4core3ops8function5implsQNCNCINvNtCs8noNfkmVAKC_18tracing_attributes6expand9gen_blockNtCs3cP53eQoTwO_11proc_macro211TokenStreamEs0_0s5_0INtB7_5FnMutTQNtNtBX_4attr5FieldEE8call_mutBX_, symObjAddr: 0x30, symBinAddr: 0xC88, symSize: 0x30 }
  - { offset: 0x2DF4, size: 0x8, addend: 0x0, symName: __RNvXs1_NtNtNtCsfvfooZQ3Axs_4core3ops8function5implsQNCNCINvNtCs8noNfkmVAKC_18tracing_attributes6expand9gen_blockNtNtCs6IAuOt8vWmF_3syn4stmt5BlockEs0_0s2_0INtB7_5FnMutTRRTNtCs3cP53eQoTwO_11proc_macro25IdentTB2I_NtBV_10RecordTypeEEEE8call_mutBX_, symObjAddr: 0x60, symBinAddr: 0xCB8, symSize: 0x30 }
  - { offset: 0x2E43, size: 0x8, addend: 0x0, symName: __RNvXs1_NtNtNtCsfvfooZQ3Axs_4core3ops8function5implsQNCNCINvNtCs8noNfkmVAKC_18tracing_attributes6expand9gen_blockNtNtCs6IAuOt8vWmF_3syn4stmt5BlockEs0_0s5_0INtB7_5FnMutTQNtNtBX_4attr5FieldEE8call_mutBX_, symObjAddr: 0x90, symBinAddr: 0xCE8, symSize: 0x30 }
  - { offset: 0x2E98, size: 0x8, addend: 0x0, symName: __RNvXs2_NtNtNtCsfvfooZQ3Axs_4core3ops8function5implsQNCNCINvNtCs8noNfkmVAKC_18tracing_attributes6expand9gen_blockNtCs3cP53eQoTwO_11proc_macro211TokenStreamEs0_00INtB7_6FnOnceTNtNtCs6IAuOt8vWmF_3syn4item5FnArgEE9call_onceBX_, symObjAddr: 0xC0, symBinAddr: 0xD18, symSize: 0x44 }
  - { offset: 0x2EE7, size: 0x8, addend: 0x0, symName: __RNvXs2_NtNtNtCsfvfooZQ3Axs_4core3ops8function5implsQNCNCINvNtCs8noNfkmVAKC_18tracing_attributes6expand9gen_blockNtCs3cP53eQoTwO_11proc_macro211TokenStreamEs0_0s3_0INtB7_6FnOnceTRTNtB1O_5IdentTB2R_NtBV_10RecordTypeEEEE9call_onceBX_, symObjAddr: 0x104, symBinAddr: 0xD5C, symSize: 0x2C }
  - { offset: 0x2F36, size: 0x8, addend: 0x0, symName: __RNvXs2_NtNtNtCsfvfooZQ3Axs_4core3ops8function5implsQNCNCINvNtCs8noNfkmVAKC_18tracing_attributes6expand9gen_blockNtCs3cP53eQoTwO_11proc_macro211TokenStreamEs0_0s_0INtB7_6FnOnceTTNtB1O_5IdentNtBV_10RecordTypeEEE9call_onceBX_, symObjAddr: 0x130, symBinAddr: 0xD88, symSize: 0x3C }
  - { offset: 0x2F85, size: 0x8, addend: 0x0, symName: __RNvXs2_NtNtNtCsfvfooZQ3Axs_4core3ops8function5implsQNCNCINvNtCs8noNfkmVAKC_18tracing_attributes6expand9gen_blockNtNtCs6IAuOt8vWmF_3syn4stmt5BlockEs0_00INtB7_6FnOnceTNtNtB1Q_4item5FnArgEE9call_onceBX_, symObjAddr: 0x16C, symBinAddr: 0xDC4, symSize: 0x44 }
  - { offset: 0x2FD4, size: 0x8, addend: 0x0, symName: __RNvXs2_NtNtNtCsfvfooZQ3Axs_4core3ops8function5implsQNCNCINvNtCs8noNfkmVAKC_18tracing_attributes6expand9gen_blockNtNtCs6IAuOt8vWmF_3syn4stmt5BlockEs0_0s3_0INtB7_6FnOnceTRTNtCs3cP53eQoTwO_11proc_macro25IdentTB2I_NtBV_10RecordTypeEEEE9call_onceBX_, symObjAddr: 0x1B0, symBinAddr: 0xE08, symSize: 0x2C }
  - { offset: 0x3023, size: 0x8, addend: 0x0, symName: __RNvXs2_NtNtNtCsfvfooZQ3Axs_4core3ops8function5implsQNCNCINvNtCs8noNfkmVAKC_18tracing_attributes6expand9gen_blockNtNtCs6IAuOt8vWmF_3syn4stmt5BlockEs0_0s_0INtB7_6FnOnceTTNtCs3cP53eQoTwO_11proc_macro25IdentNtBV_10RecordTypeEEE9call_onceBX_, symObjAddr: 0x1DC, symBinAddr: 0xE34, symSize: 0x3C }
  - { offset: 0x3072, size: 0x8, addend: 0x0, symName: __RNvXs2_NtNtNtCsfvfooZQ3Axs_4core3ops8function5implsQNCNvNtCs8noNfkmVAKC_18tracing_attributes6expand11param_names0INtB7_6FnOnceTNtNtCs6IAuOt8vWmF_3syn3pat8FieldPatEE9call_onceBU_, symObjAddr: 0x218, symBinAddr: 0xE70, symSize: 0x44 }
  - { offset: 0x30C1, size: 0x8, addend: 0x0, symName: __RNvXs2_NtNtNtCsfvfooZQ3Axs_4core3ops8function5implsQNCNvNtCs8noNfkmVAKC_18tracing_attributes6expand11param_namess0_0INtB7_6FnOnceTNtNtCs6IAuOt8vWmF_3syn3pat3PatEE9call_onceBU_, symObjAddr: 0x25C, symBinAddr: 0xEB4, symSize: 0x44 }
  - { offset: 0x3110, size: 0x8, addend: 0x0, symName: __RNvXs2_NtNtNtCsfvfooZQ3Axs_4core3ops8function5implsQNCNvNtCs8noNfkmVAKC_18tracing_attributes6expand11param_namess_0INtB7_6FnOnceTNtNtCs6IAuOt8vWmF_3syn3pat3PatEE9call_onceBU_, symObjAddr: 0x2A0, symBinAddr: 0xEF8, symSize: 0x44 }
  - { offset: 0x4ECE, size: 0x8, addend: 0x0, symName: __RNCNvNtCs8noNfkmVAKC_18tracing_attributes6expand11param_names0B5_, symObjAddr: 0x1511C, symBinAddr: 0x15D74, symSize: 0x16C }
  - { offset: 0x4F1A, size: 0x8, addend: 0x0, symName: __RNCNvNtCs8noNfkmVAKC_18tracing_attributes6expand11param_namess_0B5_, symObjAddr: 0x15288, symBinAddr: 0x15EE0, symSize: 0x48 }
  - { offset: 0x4F54, size: 0x8, addend: 0x0, symName: __RNCNvNtCs8noNfkmVAKC_18tracing_attributes6expand11param_namess0_0B5_, symObjAddr: 0x152D0, symBinAddr: 0x15F28, symSize: 0x48 }
  - { offset: 0x4F8F, size: 0x8, addend: 0x0, symName: __RINvNtCs8noNfkmVAKC_18tracing_attributes6expand12gen_functionNtCs3cP53eQoTwO_11proc_macro211TokenStreamEB4_, symObjAddr: 0x5418, symBinAddr: 0x6070, symSize: 0xD88 }
  - { offset: 0x53AA, size: 0x8, addend: 0x0, symName: __RNCINvNtCs8noNfkmVAKC_18tracing_attributes6expand12gen_functionNtCs3cP53eQoTwO_11proc_macro211TokenStreamE0B6_, symObjAddr: 0x61A0, symBinAddr: 0x6DF8, symSize: 0x60 }
  - { offset: 0x53FD, size: 0x8, addend: 0x0, symName: __RNCINvNtCs8noNfkmVAKC_18tracing_attributes6expand12gen_functionNtCs3cP53eQoTwO_11proc_macro211TokenStreamEs_0B6_, symObjAddr: 0x6200, symBinAddr: 0x6E58, symSize: 0x6C }
  - { offset: 0x545F, size: 0x8, addend: 0x0, symName: __RINvNtCs8noNfkmVAKC_18tracing_attributes6expand9gen_blockNtCs3cP53eQoTwO_11proc_macro211TokenStreamEB4_, symObjAddr: 0x626C, symBinAddr: 0x6EC4, symSize: 0x5958 }
  - { offset: 0x65AC, size: 0x8, addend: 0x0, symName: __RINvNtCs8noNfkmVAKC_18tracing_attributes6expand9gen_blockNtNtCs6IAuOt8vWmF_3syn4stmt5BlockEB4_, symObjAddr: 0xBBC4, symBinAddr: 0xC81C, symSize: 0x5958 }
  - { offset: 0x76FE, size: 0x8, addend: 0x0, symName: __RNCINvNtCs8noNfkmVAKC_18tracing_attributes6expand9gen_blockNtCs3cP53eQoTwO_11proc_macro211TokenStreamE0B6_, symObjAddr: 0x1151C, symBinAddr: 0x12174, symSize: 0x90 }
  - { offset: 0x7752, size: 0x8, addend: 0x0, symName: __RNCINvNtCs8noNfkmVAKC_18tracing_attributes6expand9gen_blockNtNtCs6IAuOt8vWmF_3syn4stmt5BlockE0B6_, symObjAddr: 0x115AC, symBinAddr: 0x12204, symSize: 0x90 }
  - { offset: 0x77A6, size: 0x8, addend: 0x0, symName: __RNCINvNtCs8noNfkmVAKC_18tracing_attributes6expand9gen_blockNtCs3cP53eQoTwO_11proc_macro211TokenStreamEs_0B6_, symObjAddr: 0x1163C, symBinAddr: 0x12294, symSize: 0x88 }
  - { offset: 0x77F2, size: 0x8, addend: 0x0, symName: __RNCINvNtCs8noNfkmVAKC_18tracing_attributes6expand9gen_blockNtNtCs6IAuOt8vWmF_3syn4stmt5BlockEs_0B6_, symObjAddr: 0x116C4, symBinAddr: 0x1231C, symSize: 0x88 }
  - { offset: 0x783E, size: 0x8, addend: 0x0, symName: __RNCINvNtCs8noNfkmVAKC_18tracing_attributes6expand9gen_blockNtCs3cP53eQoTwO_11proc_macro211TokenStreamEs0_0B6_, symObjAddr: 0x1174C, symBinAddr: 0x123A4, symSize: 0xA0C }
  - { offset: 0x7B68, size: 0x8, addend: 0x0, symName: __RNCINvNtCs8noNfkmVAKC_18tracing_attributes6expand9gen_blockNtNtCs6IAuOt8vWmF_3syn4stmt5BlockEs0_0B6_, symObjAddr: 0x12158, symBinAddr: 0x12DB0, symSize: 0xA0C }
  - { offset: 0x7E97, size: 0x8, addend: 0x0, symName: __RNCNCINvNtCs8noNfkmVAKC_18tracing_attributes6expand9gen_blockNtCs3cP53eQoTwO_11proc_macro211TokenStreamEs0_00B8_, symObjAddr: 0x12B64, symBinAddr: 0x137BC, symSize: 0x398 }
  - { offset: 0x7F1B, size: 0x8, addend: 0x0, symName: __RNCNCINvNtCs8noNfkmVAKC_18tracing_attributes6expand9gen_blockNtNtCs6IAuOt8vWmF_3syn4stmt5BlockEs0_00B8_, symObjAddr: 0x12EFC, symBinAddr: 0x13B54, symSize: 0x398 }
  - { offset: 0x7F9F, size: 0x8, addend: 0x0, symName: __RNCNCINvNtCs8noNfkmVAKC_18tracing_attributes6expand9gen_blockNtCs3cP53eQoTwO_11proc_macro211TokenStreamEs0_0s_0B8_, symObjAddr: 0x13294, symBinAddr: 0x13EEC, symSize: 0x1E4 }
  - { offset: 0x8006, size: 0x8, addend: 0x0, symName: __RNCNCINvNtCs8noNfkmVAKC_18tracing_attributes6expand9gen_blockNtNtCs6IAuOt8vWmF_3syn4stmt5BlockEs0_0s_0B8_, symObjAddr: 0x13478, symBinAddr: 0x140D0, symSize: 0x1E4 }
  - { offset: 0x806D, size: 0x8, addend: 0x0, symName: __RNCNCINvNtCs8noNfkmVAKC_18tracing_attributes6expand9gen_blockNtCs3cP53eQoTwO_11proc_macro211TokenStreamEs0_0s0_0B8_, symObjAddr: 0x1365C, symBinAddr: 0x142B4, symSize: 0x38 }
  - { offset: 0x80A8, size: 0x8, addend: 0x0, symName: __RNCNCINvNtCs8noNfkmVAKC_18tracing_attributes6expand9gen_blockNtNtCs6IAuOt8vWmF_3syn4stmt5BlockEs0_0s0_0B8_, symObjAddr: 0x13694, symBinAddr: 0x142EC, symSize: 0x38 }
  - { offset: 0x80E3, size: 0x8, addend: 0x0, symName: __RNCNCINvNtCs8noNfkmVAKC_18tracing_attributes6expand9gen_blockNtCs3cP53eQoTwO_11proc_macro211TokenStreamEs0_0s1_0B8_, symObjAddr: 0x136CC, symBinAddr: 0x14324, symSize: 0x44 }
  - { offset: 0x8129, size: 0x8, addend: 0x0, symName: __RNCNCINvNtCs8noNfkmVAKC_18tracing_attributes6expand9gen_blockNtNtCs6IAuOt8vWmF_3syn4stmt5BlockEs0_0s1_0B8_, symObjAddr: 0x13710, symBinAddr: 0x14368, symSize: 0x44 }
  - { offset: 0x816F, size: 0x8, addend: 0x0, symName: __RNCNCINvNtCs8noNfkmVAKC_18tracing_attributes6expand9gen_blockNtCs3cP53eQoTwO_11proc_macro211TokenStreamEs0_0s2_0B8_, symObjAddr: 0x13754, symBinAddr: 0x143AC, symSize: 0x168 }
  - { offset: 0x81DB, size: 0x8, addend: 0x0, symName: __RNCNCINvNtCs8noNfkmVAKC_18tracing_attributes6expand9gen_blockNtNtCs6IAuOt8vWmF_3syn4stmt5BlockEs0_0s2_0B8_, symObjAddr: 0x138BC, symBinAddr: 0x14514, symSize: 0x168 }
  - { offset: 0x824C, size: 0x8, addend: 0x0, symName: __RNCNCNCINvNtCs8noNfkmVAKC_18tracing_attributes6expand9gen_blockNtCs3cP53eQoTwO_11proc_macro211TokenStreamEs0_0s2_00Ba_, symObjAddr: 0x13A24, symBinAddr: 0x1467C, symSize: 0xD8 }
  - { offset: 0x82C0, size: 0x8, addend: 0x0, symName: __RNCNCNCINvNtCs8noNfkmVAKC_18tracing_attributes6expand9gen_blockNtNtCs6IAuOt8vWmF_3syn4stmt5BlockEs0_0s2_00Ba_, symObjAddr: 0x13AFC, symBinAddr: 0x14754, symSize: 0xD8 }
  - { offset: 0x8339, size: 0x8, addend: 0x0, symName: __RNCNCNCNCINvNtCs8noNfkmVAKC_18tracing_attributes6expand9gen_blockNtCs3cP53eQoTwO_11proc_macro211TokenStreamEs0_0s2_000Bc_, symObjAddr: 0x13BD4, symBinAddr: 0x1482C, symSize: 0x4C }
  - { offset: 0x837F, size: 0x8, addend: 0x0, symName: __RNCNCNCNCINvNtCs8noNfkmVAKC_18tracing_attributes6expand9gen_blockNtNtCs6IAuOt8vWmF_3syn4stmt5BlockEs0_0s2_000Bc_, symObjAddr: 0x13C20, symBinAddr: 0x14878, symSize: 0x4C }
  - { offset: 0x83C7, size: 0x8, addend: 0x0, symName: __RNCNCINvNtCs8noNfkmVAKC_18tracing_attributes6expand9gen_blockNtCs3cP53eQoTwO_11proc_macro211TokenStreamEs0_0s3_0B8_, symObjAddr: 0x13C6C, symBinAddr: 0x148C4, symSize: 0x228 }
  - { offset: 0x8476, size: 0x8, addend: 0x0, symName: __RNCNCINvNtCs8noNfkmVAKC_18tracing_attributes6expand9gen_blockNtNtCs6IAuOt8vWmF_3syn4stmt5BlockEs0_0s3_0B8_, symObjAddr: 0x13E94, symBinAddr: 0x14AEC, symSize: 0x228 }
  - { offset: 0x8525, size: 0x8, addend: 0x0, symName: __RNCNCINvNtCs8noNfkmVAKC_18tracing_attributes6expand9gen_blockNtCs3cP53eQoTwO_11proc_macro211TokenStreamEs0_0s4_0B8_, symObjAddr: 0x140BC, symBinAddr: 0x14D14, symSize: 0x64 }
  - { offset: 0x8584, size: 0x8, addend: 0x0, symName: __RNCNCINvNtCs8noNfkmVAKC_18tracing_attributes6expand9gen_blockNtNtCs6IAuOt8vWmF_3syn4stmt5BlockEs0_0s4_0B8_, symObjAddr: 0x14120, symBinAddr: 0x14D78, symSize: 0x64 }
  - { offset: 0x85E3, size: 0x8, addend: 0x0, symName: __RNCNCINvNtCs8noNfkmVAKC_18tracing_attributes6expand9gen_blockNtCs3cP53eQoTwO_11proc_macro211TokenStreamEs0_0s5_0B8_, symObjAddr: 0x14184, symBinAddr: 0x14DDC, symSize: 0x40 }
  - { offset: 0x8622, size: 0x8, addend: 0x0, symName: __RNCNCINvNtCs8noNfkmVAKC_18tracing_attributes6expand9gen_blockNtNtCs6IAuOt8vWmF_3syn4stmt5BlockEs0_0s5_0B8_, symObjAddr: 0x141C4, symBinAddr: 0x14E1C, symSize: 0x40 }
  - { offset: 0x870D, size: 0x8, addend: 0x0, symName: __RNCNvMNtCs8noNfkmVAKC_18tracing_attributes6expandNtB4_10RecordType13parse_from_ty0B6_, symObjAddr: 0x143A8, symBinAddr: 0x15000, symSize: 0xB0 }
  - { offset: 0x8761, size: 0x8, addend: 0x0, symName: __RNCNCNvMNtCs8noNfkmVAKC_18tracing_attributes6expandNtB6_10RecordType13parse_from_ty00B8_, symObjAddr: 0x14458, symBinAddr: 0x150B0, symSize: 0x58 }
  - { offset: 0x87BD, size: 0x8, addend: 0x0, symName: __RNvNtCs8noNfkmVAKC_18tracing_attributes6expand11param_names, symObjAddr: 0x144B0, symBinAddr: 0x15108, symSize: 0xC6C }
  - { offset: 0x89E1, size: 0x8, addend: 0x0, symName: __RNCNvMs_NtCs8noNfkmVAKC_18tracing_attributes6expandNtB6_9AsyncInfo7from_fn0B8_, symObjAddr: 0x15F78, symBinAddr: 0x16BD0, symSize: 0xF8 }
  - { offset: 0x8A30, size: 0x8, addend: 0x0, symName: __RNCNvMs_NtCs8noNfkmVAKC_18tracing_attributes6expandNtB6_9AsyncInfo7from_fns_0B8_, symObjAddr: 0x16070, symBinAddr: 0x16CC8, symSize: 0x90 }
  - { offset: 0x8A97, size: 0x8, addend: 0x0, symName: __RNCNvMs_NtCs8noNfkmVAKC_18tracing_attributes6expandNtB6_9AsyncInfo7from_fns0_0B8_, symObjAddr: 0x16100, symBinAddr: 0x16D58, symSize: 0x50 }
  - { offset: 0x8AFD, size: 0x8, addend: 0x0, symName: __RNCNvMs_NtCs8noNfkmVAKC_18tracing_attributes6expandNtB6_9AsyncInfo9gen_async0B8_, symObjAddr: 0x16C70, symBinAddr: 0x178C8, symSize: 0x40 }
  - { offset: 0x8B36, size: 0x8, addend: 0x0, symName: __RNCNvMs_NtCs8noNfkmVAKC_18tracing_attributes6expandNtB6_9AsyncInfo9gen_asyncs_0B8_, symObjAddr: 0x16CB0, symBinAddr: 0x17908, symSize: 0x54 }
  - { offset: 0x8BA1, size: 0x8, addend: 0x0, symName: __RNvNtCs8noNfkmVAKC_18tracing_attributes6expand14path_to_string, symObjAddr: 0x16D04, symBinAddr: 0x1795C, symSize: 0x274 }
  - { offset: 0x8C18, size: 0x8, addend: 0x0, symName: __RNvXs0_NtCs8noNfkmVAKC_18tracing_attributes6expandNtB5_20IdentAndTypesRenamerNtNtNtCs6IAuOt8vWmF_3syn3gen9visit_mut8VisitMut15visit_ident_mut, symObjAddr: 0x16F78, symBinAddr: 0x17BD0, symSize: 0x1B0 }
  - { offset: 0x8C8D, size: 0x8, addend: 0x0, symName: __RNvXs0_NtCs8noNfkmVAKC_18tracing_attributes6expandNtB5_20IdentAndTypesRenamerNtNtNtCs6IAuOt8vWmF_3syn3gen9visit_mut8VisitMut14visit_type_mut, symObjAddr: 0x17128, symBinAddr: 0x17D80, symSize: 0x1E8 }
  - { offset: 0x8D27, size: 0x8, addend: 0x0, symName: __RNvXs2_NtCs8noNfkmVAKC_18tracing_attributes6expandNtB5_15ImplTraitEraserNtNtNtCs6IAuOt8vWmF_3syn3gen9visit_mut8VisitMut14visit_type_mut, symObjAddr: 0x17310, symBinAddr: 0x17F68, symSize: 0x10C }
  - { offset: 0x8D61, size: 0x8, addend: 0x0, symName: __RNvNtCs8noNfkmVAKC_18tracing_attributes6expand16erase_impl_trait, symObjAddr: 0x1741C, symBinAddr: 0x18074, symSize: 0x94 }
  - { offset: 0xDDEC, size: 0x8, addend: 0x0, symName: __RNvYNtNtCs8noNfkmVAKC_18tracing_attributes6expand15ImplTraitEraserNtNtNtCs6IAuOt8vWmF_3syn3gen9visit_mut8VisitMut13visit_abi_mutB6_, symObjAddr: 0x2E4, symBinAddr: 0xF3C, symSize: 0x3C }
  - { offset: 0xDE2B, size: 0x8, addend: 0x0, symName: __RNvYNtNtCs8noNfkmVAKC_18tracing_attributes6expand15ImplTraitEraserNtNtNtCs6IAuOt8vWmF_3syn3gen9visit_mut8VisitMut13visit_arm_mutB6_, symObjAddr: 0x320, symBinAddr: 0xF78, symSize: 0x3C }
  - { offset: 0xDE6A, size: 0x8, addend: 0x0, symName: __RNvYNtNtCs8noNfkmVAKC_18tracing_attributes6expand15ImplTraitEraserNtNtNtCs6IAuOt8vWmF_3syn3gen9visit_mut8VisitMut13visit_lit_mutB6_, symObjAddr: 0x35C, symBinAddr: 0xFB4, symSize: 0x3C }
  - { offset: 0xDEAC, size: 0x8, addend: 0x0, symName: __RNvYNtNtCs8noNfkmVAKC_18tracing_attributes6expand15ImplTraitEraserNtNtNtCs6IAuOt8vWmF_3syn3gen9visit_mut8VisitMut13visit_pat_mutB6_, symObjAddr: 0x398, symBinAddr: 0xFF0, symSize: 0x3C }
  - { offset: 0xDEEE, size: 0x8, addend: 0x0, symName: __RNvYNtNtCs8noNfkmVAKC_18tracing_attributes6expand15ImplTraitEraserNtNtNtCs6IAuOt8vWmF_3syn3gen9visit_mut8VisitMut14visit_expr_mutB6_, symObjAddr: 0x3D4, symBinAddr: 0x102C, symSize: 0x3C }
  - { offset: 0xDF2D, size: 0x8, addend: 0x0, symName: __RNvYNtNtCs8noNfkmVAKC_18tracing_attributes6expand15ImplTraitEraserNtNtNtCs6IAuOt8vWmF_3syn3gen9visit_mut8VisitMut14visit_item_mutB6_, symObjAddr: 0x410, symBinAddr: 0x1068, symSize: 0x3C }
  - { offset: 0xDF6F, size: 0x8, addend: 0x0, symName: __RNvYNtNtCs8noNfkmVAKC_18tracing_attributes6expand15ImplTraitEraserNtNtNtCs6IAuOt8vWmF_3syn3gen9visit_mut8VisitMut14visit_meta_mutB6_, symObjAddr: 0x44C, symBinAddr: 0x10A4, symSize: 0x3C }
  - { offset: 0xDFB1, size: 0x8, addend: 0x0, symName: __RNvYNtNtCs8noNfkmVAKC_18tracing_attributes6expand15ImplTraitEraserNtNtNtCs6IAuOt8vWmF_3syn3gen9visit_mut8VisitMut14visit_path_mutB6_, symObjAddr: 0x488, symBinAddr: 0x10E0, symSize: 0x3C }
  - { offset: 0xDFF3, size: 0x8, addend: 0x0, symName: __RNvYNtNtCs8noNfkmVAKC_18tracing_attributes6expand15ImplTraitEraserNtNtNtCs6IAuOt8vWmF_3syn3gen9visit_mut8VisitMut14visit_span_mutB6_, symObjAddr: 0x4C4, symBinAddr: 0x111C, symSize: 0x24 }
  - { offset: 0xE035, size: 0x8, addend: 0x0, symName: __RNvYNtNtCs8noNfkmVAKC_18tracing_attributes6expand15ImplTraitEraserNtNtNtCs6IAuOt8vWmF_3syn3gen9visit_mut8VisitMut14visit_stmt_mutB6_, symObjAddr: 0x4E8, symBinAddr: 0x1140, symSize: 0x3C }
  - { offset: 0xE077, size: 0x8, addend: 0x0, symName: __RNvYNtNtCs8noNfkmVAKC_18tracing_attributes6expand15ImplTraitEraserNtNtNtCs6IAuOt8vWmF_3syn3gen9visit_mut8VisitMut15visit_block_mutB6_, symObjAddr: 0x524, symBinAddr: 0x117C, symSize: 0x3C }
  - { offset: 0xE0B6, size: 0x8, addend: 0x0, symName: __RNvYNtNtCs8noNfkmVAKC_18tracing_attributes6expand15ImplTraitEraserNtNtNtCs6IAuOt8vWmF_3syn3gen9visit_mut8VisitMut15visit_field_mutB6_, symObjAddr: 0x560, symBinAddr: 0x11B8, symSize: 0x3C }
  - { offset: 0xE0F8, size: 0x8, addend: 0x0, symName: __RNvYNtNtCs8noNfkmVAKC_18tracing_attributes6expand15ImplTraitEraserNtNtNtCs6IAuOt8vWmF_3syn3gen9visit_mut8VisitMut15visit_ident_mutB6_, symObjAddr: 0x59C, symBinAddr: 0x11F4, symSize: 0x3C }
  - { offset: 0xE13A, size: 0x8, addend: 0x0, symName: __RNvYNtNtCs8noNfkmVAKC_18tracing_attributes6expand15ImplTraitEraserNtNtNtCs6IAuOt8vWmF_3syn3gen9visit_mut8VisitMut15visit_index_mutB6_, symObjAddr: 0x5D8, symBinAddr: 0x1230, symSize: 0x3C }
  - { offset: 0xE17C, size: 0x8, addend: 0x0, symName: __RNvYNtNtCs8noNfkmVAKC_18tracing_attributes6expand15ImplTraitEraserNtNtNtCs6IAuOt8vWmF_3syn3gen9visit_mut8VisitMut15visit_label_mutB6_, symObjAddr: 0x614, symBinAddr: 0x126C, symSize: 0x3C }
  - { offset: 0xE1BE, size: 0x8, addend: 0x0, symName: __RNvYNtNtCs8noNfkmVAKC_18tracing_attributes6expand15ImplTraitEraserNtNtNtCs6IAuOt8vWmF_3syn3gen9visit_mut8VisitMut15visit_local_mutB6_, symObjAddr: 0x650, symBinAddr: 0x12A8, symSize: 0x3C }
  - { offset: 0xE200, size: 0x8, addend: 0x0, symName: __RNvYNtNtCs8noNfkmVAKC_18tracing_attributes6expand15ImplTraitEraserNtNtNtCs6IAuOt8vWmF_3syn3gen9visit_mut8VisitMut15visit_macro_mutB6_, symObjAddr: 0x68C, symBinAddr: 0x12E4, symSize: 0x3C }
  - { offset: 0xE242, size: 0x8, addend: 0x0, symName: __RNvYNtNtCs8noNfkmVAKC_18tracing_attributes6expand15ImplTraitEraserNtNtNtCs6IAuOt8vWmF_3syn3gen9visit_mut8VisitMut15visit_qself_mutB6_, symObjAddr: 0x6C8, symBinAddr: 0x1320, symSize: 0x3C }
  - { offset: 0xE284, size: 0x8, addend: 0x0, symName: __RNvYNtNtCs8noNfkmVAKC_18tracing_attributes6expand15ImplTraitEraserNtNtNtCs6IAuOt8vWmF_3syn3gen9visit_mut8VisitMut15visit_un_op_mutB6_, symObjAddr: 0x704, symBinAddr: 0x135C, symSize: 0x3C }
  - { offset: 0xE2C6, size: 0x8, addend: 0x0, symName: __RNvYNtNtCs8noNfkmVAKC_18tracing_attributes6expand15ImplTraitEraserNtNtNtCs6IAuOt8vWmF_3syn3gen9visit_mut8VisitMut16visit_bin_op_mutB6_, symObjAddr: 0x740, symBinAddr: 0x1398, symSize: 0x3C }
  - { offset: 0xE305, size: 0x8, addend: 0x0, symName: __RNvYNtNtCs8noNfkmVAKC_18tracing_attributes6expand15ImplTraitEraserNtNtNtCs6IAuOt8vWmF_3syn3gen9visit_mut8VisitMut16visit_fields_mutB6_, symObjAddr: 0x77C, symBinAddr: 0x13D4, symSize: 0x3C }
  - { offset: 0xE347, size: 0x8, addend: 0x0, symName: __RNvYNtNtCs8noNfkmVAKC_18tracing_attributes6expand15ImplTraitEraserNtNtNtCs6IAuOt8vWmF_3syn3gen9visit_mut8VisitMut16visit_fn_arg_mutB6_, symObjAddr: 0x7B8, symBinAddr: 0x1410, symSize: 0x3C }
  - { offset: 0xE389, size: 0x8, addend: 0x0, symName: __RNvYNtNtCs8noNfkmVAKC_18tracing_attributes6expand15ImplTraitEraserNtNtNtCs6IAuOt8vWmF_3syn3gen9visit_mut8VisitMut16visit_member_mutB6_, symObjAddr: 0x7F4, symBinAddr: 0x144C, symSize: 0x3C }
  - { offset: 0xE3CB, size: 0x8, addend: 0x0, symName: __RNvYNtNtCs8noNfkmVAKC_18tracing_attributes6expand15ImplTraitEraserNtNtNtCs6IAuOt8vWmF_3syn3gen9visit_mut8VisitMut16visit_pat_or_mutB6_, symObjAddr: 0x830, symBinAddr: 0x1488, symSize: 0x3C }
  - { offset: 0xE40D, size: 0x8, addend: 0x0, symName: __RNvYNtNtCs8noNfkmVAKC_18tracing_attributes6expand15ImplTraitEraserNtNtNtCs6IAuOt8vWmF_3syn3gen9visit_mut8VisitMut17visit_expr_if_mutB6_, symObjAddr: 0x86C, symBinAddr: 0x14C4, symSize: 0x3C }
  - { offset: 0xE44C, size: 0x8, addend: 0x0, symName: __RNvYNtNtCs8noNfkmVAKC_18tracing_attributes6expand15ImplTraitEraserNtNtNtCs6IAuOt8vWmF_3syn3gen9visit_mut8VisitMut17visit_item_fn_mutB6_, symObjAddr: 0x8A8, symBinAddr: 0x1500, symSize: 0x3C }
  - { offset: 0xE48E, size: 0x8, addend: 0x0, symName: __RNvYNtNtCs8noNfkmVAKC_18tracing_attributes6expand15ImplTraitEraserNtNtNtCs6IAuOt8vWmF_3syn3gen9visit_mut8VisitMut17visit_lit_int_mutB6_, symObjAddr: 0x8E4, symBinAddr: 0x153C, symSize: 0x3C }
  - { offset: 0xE4D0, size: 0x8, addend: 0x0, symName: __RNvYNtNtCs8noNfkmVAKC_18tracing_attributes6expand15ImplTraitEraserNtNtNtCs6IAuOt8vWmF_3syn3gen9visit_mut8VisitMut17visit_lit_str_mutB6_, symObjAddr: 0x920, symBinAddr: 0x1578, symSize: 0x3C }
  - { offset: 0xE512, size: 0x8, addend: 0x0, symName: __RNvYNtNtCs8noNfkmVAKC_18tracing_attributes6expand15ImplTraitEraserNtNtNtCs6IAuOt8vWmF_3syn3gen9visit_mut8VisitMut17visit_variant_mutB6_, symObjAddr: 0x95C, symBinAddr: 0x15B4, symSize: 0x3C }
  - { offset: 0xE554, size: 0x8, addend: 0x0, symName: __RNvYNtNtCs8noNfkmVAKC_18tracing_attributes6expand15ImplTraitEraserNtNtNtCs6IAuOt8vWmF_3syn3gen9visit_mut8VisitMut18visit_expr_let_mutB6_, symObjAddr: 0x998, symBinAddr: 0x15F0, symSize: 0x3C }
  - { offset: 0xE593, size: 0x8, addend: 0x0, symName: __RNvYNtNtCs8noNfkmVAKC_18tracing_attributes6expand15ImplTraitEraserNtNtNtCs6IAuOt8vWmF_3syn3gen9visit_mut8VisitMut18visit_expr_lit_mutB6_, symObjAddr: 0x9D4, symBinAddr: 0x162C, symSize: 0x3C }
  - { offset: 0xE5D2, size: 0x8, addend: 0x0, symName: __RNvYNtNtCs8noNfkmVAKC_18tracing_attributes6expand15ImplTraitEraserNtNtNtCs6IAuOt8vWmF_3syn3gen9visit_mut8VisitMut18visit_expr_try_mutB6_, symObjAddr: 0xA10, symBinAddr: 0x1668, symSize: 0x3C }
  - { offset: 0xE614, size: 0x8, addend: 0x0, symName: __RNvYNtNtCs8noNfkmVAKC_18tracing_attributes6expand15ImplTraitEraserNtNtNtCs6IAuOt8vWmF_3syn3gen9visit_mut8VisitMut18visit_generics_mutB6_, symObjAddr: 0xA4C, symBinAddr: 0x16A4, symSize: 0x3C }
  - { offset: 0xE656, size: 0x8, addend: 0x0, symName: __RNvYNtNtCs8noNfkmVAKC_18tracing_attributes6expand15ImplTraitEraserNtNtNtCs6IAuOt8vWmF_3syn3gen9visit_mut8VisitMut18visit_item_mod_mutB6_, symObjAddr: 0xA88, symBinAddr: 0x16E0, symSize: 0x3C }
  - { offset: 0xE698, size: 0x8, addend: 0x0, symName: __RNvYNtNtCs8noNfkmVAKC_18tracing_attributes6expand15ImplTraitEraserNtNtNtCs6IAuOt8vWmF_3syn3gen9visit_mut8VisitMut18visit_item_use_mutB6_, symObjAddr: 0xAC4, symBinAddr: 0x171C, symSize: 0x3C }
  - { offset: 0xE6DA, size: 0x8, addend: 0x0, symName: __RNvYNtNtCs8noNfkmVAKC_18tracing_attributes6expand15ImplTraitEraserNtNtNtCs6IAuOt8vWmF_3syn3gen9visit_mut8VisitMut18visit_lifetime_mutB6_, symObjAddr: 0xB00, symBinAddr: 0x1758, symSize: 0x3C }
  - { offset: 0xE71C, size: 0x8, addend: 0x0, symName: __RNvYNtNtCs8noNfkmVAKC_18tracing_attributes6expand15ImplTraitEraserNtNtNtCs6IAuOt8vWmF_3syn3gen9visit_mut8VisitMut18visit_lit_bool_mutB6_, symObjAddr: 0xB3C, symBinAddr: 0x1794, symSize: 0x3C }
  - { offset: 0xE75E, size: 0x8, addend: 0x0, symName: __RNvYNtNtCs8noNfkmVAKC_18tracing_attributes6expand15ImplTraitEraserNtNtNtCs6IAuOt8vWmF_3syn3gen9visit_mut8VisitMut18visit_lit_byte_mutB6_, symObjAddr: 0xB78, symBinAddr: 0x17D0, symSize: 0x3C }
  - { offset: 0xE7A0, size: 0x8, addend: 0x0, symName: __RNvYNtNtCs8noNfkmVAKC_18tracing_attributes6expand15ImplTraitEraserNtNtNtCs6IAuOt8vWmF_3syn3gen9visit_mut8VisitMut18visit_lit_char_mutB6_, symObjAddr: 0xBB4, symBinAddr: 0x180C, symSize: 0x3C }
  - { offset: 0xE7E2, size: 0x8, addend: 0x0, symName: __RNvYNtNtCs8noNfkmVAKC_18tracing_attributes6expand15ImplTraitEraserNtNtNtCs6IAuOt8vWmF_3syn3gen9visit_mut8VisitMut18visit_lit_cstr_mutB6_, symObjAddr: 0xBF0, symBinAddr: 0x1848, symSize: 0x3C }
  - { offset: 0xE824, size: 0x8, addend: 0x0, symName: __RNvYNtNtCs8noNfkmVAKC_18tracing_attributes6expand15ImplTraitEraserNtNtNtCs6IAuOt8vWmF_3syn3gen9visit_mut8VisitMut18visit_pat_rest_mutB6_, symObjAddr: 0xC2C, symBinAddr: 0x1884, symSize: 0x3C }
  - { offset: 0xE866, size: 0x8, addend: 0x0, symName: __RNvYNtNtCs8noNfkmVAKC_18tracing_attributes6expand15ImplTraitEraserNtNtNtCs6IAuOt8vWmF_3syn3gen9visit_mut8VisitMut18visit_pat_type_mutB6_, symObjAddr: 0xC68, symBinAddr: 0x18C0, symSize: 0x3C }
  - { offset: 0xE8A8, size: 0x8, addend: 0x0, symName: __RNvYNtNtCs8noNfkmVAKC_18tracing_attributes6expand15ImplTraitEraserNtNtNtCs6IAuOt8vWmF_3syn3gen9visit_mut8VisitMut18visit_pat_wild_mutB6_, symObjAddr: 0xCA4, symBinAddr: 0x18FC, symSize: 0x3C }
  - { offset: 0xE8EA, size: 0x8, addend: 0x0, symName: __RNvYNtNtCs8noNfkmVAKC_18tracing_attributes6expand15ImplTraitEraserNtNtNtCs6IAuOt8vWmF_3syn3gen9visit_mut8VisitMut18visit_receiver_mutB6_, symObjAddr: 0xCE0, symBinAddr: 0x1938, symSize: 0x3C }
  - { offset: 0xE92C, size: 0x8, addend: 0x0, symName: __RNvYNtNtCs8noNfkmVAKC_18tracing_attributes6expand15ImplTraitEraserNtNtNtCs6IAuOt8vWmF_3syn3gen9visit_mut8VisitMut18visit_type_ptr_mutB6_, symObjAddr: 0xD1C, symBinAddr: 0x1974, symSize: 0x3C }
  - { offset: 0xE96E, size: 0x8, addend: 0x0, symName: __RNvYNtNtCs8noNfkmVAKC_18tracing_attributes6expand15ImplTraitEraserNtNtNtCs6IAuOt8vWmF_3syn3gen9visit_mut8VisitMut18visit_use_glob_mutB6_, symObjAddr: 0xD58, symBinAddr: 0x19B0, symSize: 0x3C }
  - { offset: 0xE9B0, size: 0x8, addend: 0x0, symName: __RNvYNtNtCs8noNfkmVAKC_18tracing_attributes6expand15ImplTraitEraserNtNtNtCs6IAuOt8vWmF_3syn3gen9visit_mut8VisitMut18visit_use_name_mutB6_, symObjAddr: 0xD94, symBinAddr: 0x19EC, symSize: 0x3C }
  - { offset: 0xE9F2, size: 0x8, addend: 0x0, symName: __RNvYNtNtCs8noNfkmVAKC_18tracing_attributes6expand15ImplTraitEraserNtNtNtCs6IAuOt8vWmF_3syn3gen9visit_mut8VisitMut18visit_use_path_mutB6_, symObjAddr: 0xDD0, symBinAddr: 0x1A28, symSize: 0x3C }
  - { offset: 0xEA34, size: 0x8, addend: 0x0, symName: __RNvYNtNtCs8noNfkmVAKC_18tracing_attributes6expand15ImplTraitEraserNtNtNtCs6IAuOt8vWmF_3syn3gen9visit_mut8VisitMut18visit_use_tree_mutB6_, symObjAddr: 0xE0C, symBinAddr: 0x1A64, symSize: 0x3C }
  - { offset: 0xEA76, size: 0x8, addend: 0x0, symName: __RNvYNtNtCs8noNfkmVAKC_18tracing_attributes6expand15ImplTraitEraserNtNtNtCs6IAuOt8vWmF_3syn3gen9visit_mut8VisitMut18visit_variadic_mutB6_, symObjAddr: 0xE48, symBinAddr: 0x1AA0, symSize: 0x3C }
  - { offset: 0xEAB8, size: 0x8, addend: 0x0, symName: __RNvYNtNtCs8noNfkmVAKC_18tracing_attributes6expand15ImplTraitEraserNtNtNtCs6IAuOt8vWmF_3syn3gen9visit_mut8VisitMut19visit_attribute_mutB6_, symObjAddr: 0xE84, symBinAddr: 0x1ADC, symSize: 0x3C }
  - { offset: 0xEAF7, size: 0x8, addend: 0x0, symName: __RNvYNtNtCs8noNfkmVAKC_18tracing_attributes6expand15ImplTraitEraserNtNtNtCs6IAuOt8vWmF_3syn3gen9visit_mut8VisitMut19visit_expr_call_mutB6_, symObjAddr: 0xEC0, symBinAddr: 0x1B18, symSize: 0x3C }
  - { offset: 0xEB36, size: 0x8, addend: 0x0, symName: __RNvYNtNtCs8noNfkmVAKC_18tracing_attributes6expand15ImplTraitEraserNtNtNtCs6IAuOt8vWmF_3syn3gen9visit_mut8VisitMut19visit_expr_cast_mutB6_, symObjAddr: 0xEFC, symBinAddr: 0x1B54, symSize: 0x3C }
  - { offset: 0xEB75, size: 0x8, addend: 0x0, symName: __RNvYNtNtCs8noNfkmVAKC_18tracing_attributes6expand15ImplTraitEraserNtNtNtCs6IAuOt8vWmF_3syn3gen9visit_mut8VisitMut19visit_expr_loop_mutB6_, symObjAddr: 0xF38, symBinAddr: 0x1B90, symSize: 0x3C }
  - { offset: 0xEBB4, size: 0x8, addend: 0x0, symName: __RNvYNtNtCs8noNfkmVAKC_18tracing_attributes6expand15ImplTraitEraserNtNtNtCs6IAuOt8vWmF_3syn3gen9visit_mut8VisitMut19visit_expr_path_mutB6_, symObjAddr: 0xF74, symBinAddr: 0x1BCC, symSize: 0x3C }
  - { offset: 0xEBF6, size: 0x8, addend: 0x0, symName: __RNvYNtNtCs8noNfkmVAKC_18tracing_attributes6expand15ImplTraitEraserNtNtNtCs6IAuOt8vWmF_3syn3gen9visit_mut8VisitMut19visit_field_pat_mutB6_, symObjAddr: 0xFB0, symBinAddr: 0x1C08, symSize: 0x3C }
  - { offset: 0xEC38, size: 0x8, addend: 0x0, symName: __RNvYNtNtCs8noNfkmVAKC_18tracing_attributes6expand15ImplTraitEraserNtNtNtCs6IAuOt8vWmF_3syn3gen9visit_mut8VisitMut19visit_impl_item_mutB6_, symObjAddr: 0xFEC, symBinAddr: 0x1C44, symSize: 0x3C }
  - { offset: 0xEC7A, size: 0x8, addend: 0x0, symName: __RNvYNtNtCs8noNfkmVAKC_18tracing_attributes6expand15ImplTraitEraserNtNtNtCs6IAuOt8vWmF_3syn3gen9visit_mut8VisitMut19visit_item_enum_mutB6_, symObjAddr: 0x1028, symBinAddr: 0x1C80, symSize: 0x3C }
  - { offset: 0xECBC, size: 0x8, addend: 0x0, symName: __RNvYNtNtCs8noNfkmVAKC_18tracing_attributes6expand15ImplTraitEraserNtNtNtCs6IAuOt8vWmF_3syn3gen9visit_mut8VisitMut19visit_item_impl_mutB6_, symObjAddr: 0x1064, symBinAddr: 0x1CBC, symSize: 0x3C }
  - { offset: 0xECFE, size: 0x8, addend: 0x0, symName: __RNvYNtNtCs8noNfkmVAKC_18tracing_attributes6expand15ImplTraitEraserNtNtNtCs6IAuOt8vWmF_3syn3gen9visit_mut8VisitMut19visit_item_type_mutB6_, symObjAddr: 0x10A0, symBinAddr: 0x1CF8, symSize: 0x3C }
  - { offset: 0xED40, size: 0x8, addend: 0x0, symName: __RNvYNtNtCs8noNfkmVAKC_18tracing_attributes6expand15ImplTraitEraserNtNtNtCs6IAuOt8vWmF_3syn3gen9visit_mut8VisitMut19visit_lit_float_mutB6_, symObjAddr: 0x10DC, symBinAddr: 0x1D34, symSize: 0x3C }
  - { offset: 0xED82, size: 0x8, addend: 0x0, symName: __RNvYNtNtCs8noNfkmVAKC_18tracing_attributes6expand15ImplTraitEraserNtNtNtCs6IAuOt8vWmF_3syn3gen9visit_mut8VisitMut19visit_meta_list_mutB6_, symObjAddr: 0x1118, symBinAddr: 0x1D70, symSize: 0x3C }
  - { offset: 0xEDC4, size: 0x8, addend: 0x0, symName: __RNvYNtNtCs8noNfkmVAKC_18tracing_attributes6expand15ImplTraitEraserNtNtNtCs6IAuOt8vWmF_3syn3gen9visit_mut8VisitMut19visit_pat_ident_mutB6_, symObjAddr: 0x1154, symBinAddr: 0x1DAC, symSize: 0x3C }
  - { offset: 0xEE06, size: 0x8, addend: 0x0, symName: __RNvYNtNtCs8noNfkmVAKC_18tracing_attributes6expand15ImplTraitEraserNtNtNtCs6IAuOt8vWmF_3syn3gen9visit_mut8VisitMut19visit_pat_paren_mutB6_, symObjAddr: 0x1190, symBinAddr: 0x1DE8, symSize: 0x3C }
  - { offset: 0xEE48, size: 0x8, addend: 0x0, symName: __RNvYNtNtCs8noNfkmVAKC_18tracing_attributes6expand15ImplTraitEraserNtNtNtCs6IAuOt8vWmF_3syn3gen9visit_mut8VisitMut19visit_pat_slice_mutB6_, symObjAddr: 0x11CC, symBinAddr: 0x1E24, symSize: 0x3C }
  - { offset: 0xEE8A, size: 0x8, addend: 0x0, symName: __RNvYNtNtCs8noNfkmVAKC_18tracing_attributes6expand15ImplTraitEraserNtNtNtCs6IAuOt8vWmF_3syn3gen9visit_mut8VisitMut19visit_pat_tuple_mutB6_, symObjAddr: 0x1208, symBinAddr: 0x1E60, symSize: 0x3C }
  - { offset: 0xEECC, size: 0x8, addend: 0x0, symName: __RNvYNtNtCs8noNfkmVAKC_18tracing_attributes6expand15ImplTraitEraserNtNtNtCs6IAuOt8vWmF_3syn3gen9visit_mut8VisitMut19visit_signature_mutB6_, symObjAddr: 0x1244, symBinAddr: 0x1E9C, symSize: 0x3C }
  - { offset: 0xEF0E, size: 0x8, addend: 0x0, symName: __RNvYNtNtCs8noNfkmVAKC_18tracing_attributes6expand15ImplTraitEraserNtNtNtCs6IAuOt8vWmF_3syn3gen9visit_mut8VisitMut19visit_type_path_mutB6_, symObjAddr: 0x1280, symBinAddr: 0x1ED8, symSize: 0x3C }
  - { offset: 0xEF50, size: 0x8, addend: 0x0, symName: __RNvYNtNtCs8noNfkmVAKC_18tracing_attributes6expand15ImplTraitEraserNtNtNtCs6IAuOt8vWmF_3syn3gen9visit_mut8VisitMut19visit_use_group_mutB6_, symObjAddr: 0x12BC, symBinAddr: 0x1F14, symSize: 0x3C }
  - { offset: 0xEF92, size: 0x8, addend: 0x0, symName: __RNvYNtNtCs8noNfkmVAKC_18tracing_attributes6expand15ImplTraitEraserNtNtNtCs6IAuOt8vWmF_3syn3gen9visit_mut8VisitMut20visit_assoc_type_mutB6_, symObjAddr: 0x12F8, symBinAddr: 0x1F50, symSize: 0x3C }
  - { offset: 0xEFD1, size: 0x8, addend: 0x0, symName: __RNvYNtNtCs8noNfkmVAKC_18tracing_attributes6expand15ImplTraitEraserNtNtNtCs6IAuOt8vWmF_3syn3gen9visit_mut8VisitMut20visit_attr_style_mutB6_, symObjAddr: 0x1334, symBinAddr: 0x1F8C, symSize: 0x3C }
  - { offset: 0xF010, size: 0x8, addend: 0x0, symName: __RNvYNtNtCs8noNfkmVAKC_18tracing_attributes6expand15ImplTraitEraserNtNtNtCs6IAuOt8vWmF_3syn3gen9visit_mut8VisitMut20visit_attributes_mutB6_, symObjAddr: 0x1370, symBinAddr: 0x1FC8, symSize: 0x98 }
  - { offset: 0xF081, size: 0x8, addend: 0x0, symName: __RNvYNtNtCs8noNfkmVAKC_18tracing_attributes6expand15ImplTraitEraserNtNtNtCs6IAuOt8vWmF_3syn3gen9visit_mut8VisitMut20visit_constraint_mutB6_, symObjAddr: 0x1408, symBinAddr: 0x2060, symSize: 0x3C }
  - { offset: 0xF0C0, size: 0x8, addend: 0x0, symName: __RNvYNtNtCs8noNfkmVAKC_18tracing_attributes6expand15ImplTraitEraserNtNtNtCs6IAuOt8vWmF_3syn3gen9visit_mut8VisitMut20visit_expr_array_mutB6_, symObjAddr: 0x1444, symBinAddr: 0x209C, symSize: 0x3C }
  - { offset: 0xF0FF, size: 0x8, addend: 0x0, symName: __RNvYNtNtCs8noNfkmVAKC_18tracing_attributes6expand15ImplTraitEraserNtNtNtCs6IAuOt8vWmF_3syn3gen9visit_mut8VisitMut20visit_expr_async_mutB6_, symObjAddr: 0x1480, symBinAddr: 0x20D8, symSize: 0x3C }
  - { offset: 0xF13E, size: 0x8, addend: 0x0, symName: __RNvYNtNtCs8noNfkmVAKC_18tracing_attributes6expand15ImplTraitEraserNtNtNtCs6IAuOt8vWmF_3syn3gen9visit_mut8VisitMut20visit_expr_await_mutB6_, symObjAddr: 0x14BC, symBinAddr: 0x2114, symSize: 0x3C }
  - { offset: 0xF17D, size: 0x8, addend: 0x0, symName: __RNvYNtNtCs8noNfkmVAKC_18tracing_attributes6expand15ImplTraitEraserNtNtNtCs6IAuOt8vWmF_3syn3gen9visit_mut8VisitMut20visit_expr_block_mutB6_, symObjAddr: 0x14F8, symBinAddr: 0x2150, symSize: 0x3C }
  - { offset: 0xF1BC, size: 0x8, addend: 0x0, symName: __RNvYNtNtCs8noNfkmVAKC_18tracing_attributes6expand15ImplTraitEraserNtNtNtCs6IAuOt8vWmF_3syn3gen9visit_mut8VisitMut20visit_expr_break_mutB6_, symObjAddr: 0x1534, symBinAddr: 0x218C, symSize: 0x3C }
  - { offset: 0xF1FB, size: 0x8, addend: 0x0, symName: __RNvYNtNtCs8noNfkmVAKC_18tracing_attributes6expand15ImplTraitEraserNtNtNtCs6IAuOt8vWmF_3syn3gen9visit_mut8VisitMut20visit_expr_const_mutB6_, symObjAddr: 0x1570, symBinAddr: 0x21C8, symSize: 0x3C }
  - { offset: 0xF23A, size: 0x8, addend: 0x0, symName: __RNvYNtNtCs8noNfkmVAKC_18tracing_attributes6expand15ImplTraitEraserNtNtNtCs6IAuOt8vWmF_3syn3gen9visit_mut8VisitMut20visit_expr_field_mutB6_, symObjAddr: 0x15AC, symBinAddr: 0x2204, symSize: 0x3C }
  - { offset: 0xF279, size: 0x8, addend: 0x0, symName: __RNvYNtNtCs8noNfkmVAKC_18tracing_attributes6expand15ImplTraitEraserNtNtNtCs6IAuOt8vWmF_3syn3gen9visit_mut8VisitMut20visit_expr_group_mutB6_, symObjAddr: 0x15E8, symBinAddr: 0x2240, symSize: 0x3C }
  - { offset: 0xF2B8, size: 0x8, addend: 0x0, symName: __RNvYNtNtCs8noNfkmVAKC_18tracing_attributes6expand15ImplTraitEraserNtNtNtCs6IAuOt8vWmF_3syn3gen9visit_mut8VisitMut20visit_expr_index_mutB6_, symObjAddr: 0x1624, symBinAddr: 0x227C, symSize: 0x3C }
  - { offset: 0xF2F7, size: 0x8, addend: 0x0, symName: __RNvYNtNtCs8noNfkmVAKC_18tracing_attributes6expand15ImplTraitEraserNtNtNtCs6IAuOt8vWmF_3syn3gen9visit_mut8VisitMut20visit_expr_infer_mutB6_, symObjAddr: 0x1660, symBinAddr: 0x22B8, symSize: 0x3C }
  - { offset: 0xF336, size: 0x8, addend: 0x0, symName: __RNvYNtNtCs8noNfkmVAKC_18tracing_attributes6expand15ImplTraitEraserNtNtNtCs6IAuOt8vWmF_3syn3gen9visit_mut8VisitMut20visit_expr_macro_mutB6_, symObjAddr: 0x169C, symBinAddr: 0x22F4, symSize: 0x3C }
  - { offset: 0xF375, size: 0x8, addend: 0x0, symName: __RNvYNtNtCs8noNfkmVAKC_18tracing_attributes6expand15ImplTraitEraserNtNtNtCs6IAuOt8vWmF_3syn3gen9visit_mut8VisitMut20visit_expr_match_mutB6_, symObjAddr: 0x16D8, symBinAddr: 0x2330, symSize: 0x3C }
  - { offset: 0xF3B7, size: 0x8, addend: 0x0, symName: __RNvYNtNtCs8noNfkmVAKC_18tracing_attributes6expand15ImplTraitEraserNtNtNtCs6IAuOt8vWmF_3syn3gen9visit_mut8VisitMut20visit_expr_paren_mutB6_, symObjAddr: 0x1714, symBinAddr: 0x236C, symSize: 0x3C }
  - { offset: 0xF3F9, size: 0x8, addend: 0x0, symName: __RNvYNtNtCs8noNfkmVAKC_18tracing_attributes6expand15ImplTraitEraserNtNtNtCs6IAuOt8vWmF_3syn3gen9visit_mut8VisitMut20visit_expr_range_mutB6_, symObjAddr: 0x1750, symBinAddr: 0x23A8, symSize: 0x3C }
  - { offset: 0xF43B, size: 0x8, addend: 0x0, symName: __RNvYNtNtCs8noNfkmVAKC_18tracing_attributes6expand15ImplTraitEraserNtNtNtCs6IAuOt8vWmF_3syn3gen9visit_mut8VisitMut20visit_expr_tuple_mutB6_, symObjAddr: 0x178C, symBinAddr: 0x23E4, symSize: 0x3C }
  - { offset: 0xF47D, size: 0x8, addend: 0x0, symName: __RNvYNtNtCs8noNfkmVAKC_18tracing_attributes6expand15ImplTraitEraserNtNtNtCs6IAuOt8vWmF_3syn3gen9visit_mut8VisitMut20visit_expr_unary_mutB6_, symObjAddr: 0x17C8, symBinAddr: 0x2420, symSize: 0x3C }
  - { offset: 0xF4BF, size: 0x8, addend: 0x0, symName: __RNvYNtNtCs8noNfkmVAKC_18tracing_attributes6expand15ImplTraitEraserNtNtNtCs6IAuOt8vWmF_3syn3gen9visit_mut8VisitMut20visit_expr_while_mutB6_, symObjAddr: 0x1804, symBinAddr: 0x245C, symSize: 0x3C }
  - { offset: 0xF501, size: 0x8, addend: 0x0, symName: __RNvYNtNtCs8noNfkmVAKC_18tracing_attributes6expand15ImplTraitEraserNtNtNtCs6IAuOt8vWmF_3syn3gen9visit_mut8VisitMut20visit_expr_yield_mutB6_, symObjAddr: 0x1840, symBinAddr: 0x2498, symSize: 0x3C }
  - { offset: 0xF543, size: 0x8, addend: 0x0, symName: __RNvYNtNtCs8noNfkmVAKC_18tracing_attributes6expand15ImplTraitEraserNtNtNtCs6IAuOt8vWmF_3syn3gen9visit_mut8VisitMut20visit_item_const_mutB6_, symObjAddr: 0x187C, symBinAddr: 0x24D4, symSize: 0x3C }
  - { offset: 0xF585, size: 0x8, addend: 0x0, symName: __RNvYNtNtCs8noNfkmVAKC_18tracing_attributes6expand15ImplTraitEraserNtNtNtCs6IAuOt8vWmF_3syn3gen9visit_mut8VisitMut20visit_item_macro_mutB6_, symObjAddr: 0x18B8, symBinAddr: 0x2510, symSize: 0x3C }
  - { offset: 0xF5C7, size: 0x8, addend: 0x0, symName: __RNvYNtNtCs8noNfkmVAKC_18tracing_attributes6expand15ImplTraitEraserNtNtNtCs6IAuOt8vWmF_3syn3gen9visit_mut8VisitMut20visit_item_trait_mutB6_, symObjAddr: 0x18F4, symBinAddr: 0x254C, symSize: 0x3C }
  - { offset: 0xF609, size: 0x8, addend: 0x0, symName: __RNvYNtNtCs8noNfkmVAKC_18tracing_attributes6expand15ImplTraitEraserNtNtNtCs6IAuOt8vWmF_3syn3gen9visit_mut8VisitMut20visit_item_union_mutB6_, symObjAddr: 0x1930, symBinAddr: 0x2588, symSize: 0x3C }
  - { offset: 0xF64B, size: 0x8, addend: 0x0, symName: __RNvYNtNtCs8noNfkmVAKC_18tracing_attributes6expand15ImplTraitEraserNtNtNtCs6IAuOt8vWmF_3syn3gen9visit_mut8VisitMut20visit_local_init_mutB6_, symObjAddr: 0x196C, symBinAddr: 0x25C4, symSize: 0x3C }
  - { offset: 0xF68D, size: 0x8, addend: 0x0, symName: __RNvYNtNtCs8noNfkmVAKC_18tracing_attributes6expand15ImplTraitEraserNtNtNtCs6IAuOt8vWmF_3syn3gen9visit_mut8VisitMut20visit_pat_struct_mutB6_, symObjAddr: 0x19A8, symBinAddr: 0x2600, symSize: 0x3C }
  - { offset: 0xF6CF, size: 0x8, addend: 0x0, symName: __RNvYNtNtCs8noNfkmVAKC_18tracing_attributes6expand15ImplTraitEraserNtNtNtCs6IAuOt8vWmF_3syn3gen9visit_mut8VisitMut20visit_stmt_macro_mutB6_, symObjAddr: 0x19E4, symBinAddr: 0x263C, symSize: 0x3C }
  - { offset: 0xF711, size: 0x8, addend: 0x0, symName: __RNvYNtNtCs8noNfkmVAKC_18tracing_attributes6expand15ImplTraitEraserNtNtNtCs6IAuOt8vWmF_3syn3gen9visit_mut8VisitMut20visit_trait_item_mutB6_, symObjAddr: 0x1A20, symBinAddr: 0x2678, symSize: 0x3C }
  - { offset: 0xF753, size: 0x8, addend: 0x0, symName: __RNvYNtNtCs8noNfkmVAKC_18tracing_attributes6expand15ImplTraitEraserNtNtNtCs6IAuOt8vWmF_3syn3gen9visit_mut8VisitMut20visit_type_array_mutB6_, symObjAddr: 0x1A5C, symBinAddr: 0x26B4, symSize: 0x3C }
  - { offset: 0xF795, size: 0x8, addend: 0x0, symName: __RNvYNtNtCs8noNfkmVAKC_18tracing_attributes6expand15ImplTraitEraserNtNtNtCs6IAuOt8vWmF_3syn3gen9visit_mut8VisitMut20visit_type_group_mutB6_, symObjAddr: 0x1A98, symBinAddr: 0x26F0, symSize: 0x3C }
  - { offset: 0xF7D7, size: 0x8, addend: 0x0, symName: __RNvYNtNtCs8noNfkmVAKC_18tracing_attributes6expand15ImplTraitEraserNtNtNtCs6IAuOt8vWmF_3syn3gen9visit_mut8VisitMut20visit_type_infer_mutB6_, symObjAddr: 0x1AD4, symBinAddr: 0x272C, symSize: 0x3C }
  - { offset: 0xF819, size: 0x8, addend: 0x0, symName: __RNvYNtNtCs8noNfkmVAKC_18tracing_attributes6expand15ImplTraitEraserNtNtNtCs6IAuOt8vWmF_3syn3gen9visit_mut8VisitMut20visit_type_macro_mutB6_, symObjAddr: 0x1B10, symBinAddr: 0x2768, symSize: 0x3C }
  - { offset: 0xF85B, size: 0x8, addend: 0x0, symName: __RNvYNtNtCs8noNfkmVAKC_18tracing_attributes6expand15ImplTraitEraserNtNtNtCs6IAuOt8vWmF_3syn3gen9visit_mut8VisitMut20visit_type_never_mutB6_, symObjAddr: 0x1B4C, symBinAddr: 0x27A4, symSize: 0x3C }
  - { offset: 0xF89D, size: 0x8, addend: 0x0, symName: __RNvYNtNtCs8noNfkmVAKC_18tracing_attributes6expand15ImplTraitEraserNtNtNtCs6IAuOt8vWmF_3syn3gen9visit_mut8VisitMut20visit_type_param_mutB6_, symObjAddr: 0x1B88, symBinAddr: 0x27E0, symSize: 0x3C }
  - { offset: 0xF8DF, size: 0x8, addend: 0x0, symName: __RNvYNtNtCs8noNfkmVAKC_18tracing_attributes6expand15ImplTraitEraserNtNtNtCs6IAuOt8vWmF_3syn3gen9visit_mut8VisitMut20visit_type_paren_mutB6_, symObjAddr: 0x1BC4, symBinAddr: 0x281C, symSize: 0x3C }
  - { offset: 0xF921, size: 0x8, addend: 0x0, symName: __RNvYNtNtCs8noNfkmVAKC_18tracing_attributes6expand15ImplTraitEraserNtNtNtCs6IAuOt8vWmF_3syn3gen9visit_mut8VisitMut20visit_type_slice_mutB6_, symObjAddr: 0x1C00, symBinAddr: 0x2858, symSize: 0x3C }
  - { offset: 0xF963, size: 0x8, addend: 0x0, symName: __RNvYNtNtCs8noNfkmVAKC_18tracing_attributes6expand15ImplTraitEraserNtNtNtCs6IAuOt8vWmF_3syn3gen9visit_mut8VisitMut20visit_type_tuple_mutB6_, symObjAddr: 0x1C3C, symBinAddr: 0x2894, symSize: 0x3C }
  - { offset: 0xF9A5, size: 0x8, addend: 0x0, symName: __RNvYNtNtCs8noNfkmVAKC_18tracing_attributes6expand15ImplTraitEraserNtNtNtCs6IAuOt8vWmF_3syn3gen9visit_mut8VisitMut20visit_use_rename_mutB6_, symObjAddr: 0x1C78, symBinAddr: 0x28D0, symSize: 0x3C }
  - { offset: 0xF9E7, size: 0x8, addend: 0x0, symName: __RNvYNtNtCs8noNfkmVAKC_18tracing_attributes6expand15ImplTraitEraserNtNtNtCs6IAuOt8vWmF_3syn3gen9visit_mut8VisitMut20visit_visibility_mutB6_, symObjAddr: 0x1CB4, symBinAddr: 0x290C, symSize: 0x3C }
  - { offset: 0xFA29, size: 0x8, addend: 0x0, symName: __RNvYNtNtCs8noNfkmVAKC_18tracing_attributes6expand15ImplTraitEraserNtNtNtCs6IAuOt8vWmF_3syn3gen9visit_mut8VisitMut21visit_assoc_const_mutB6_, symObjAddr: 0x1CF0, symBinAddr: 0x2948, symSize: 0x3C }
  - { offset: 0xFA68, size: 0x8, addend: 0x0, symName: __RNvYNtNtCs8noNfkmVAKC_18tracing_attributes6expand15ImplTraitEraserNtNtNtCs6IAuOt8vWmF_3syn3gen9visit_mut8VisitMut21visit_bare_fn_arg_mutB6_, symObjAddr: 0x1D2C, symBinAddr: 0x2984, symSize: 0x3C }
  - { offset: 0xFAA7, size: 0x8, addend: 0x0, symName: __RNvYNtNtCs8noNfkmVAKC_18tracing_attributes6expand15ImplTraitEraserNtNtNtCs6IAuOt8vWmF_3syn3gen9visit_mut8VisitMut21visit_const_param_mutB6_, symObjAddr: 0x1D68, symBinAddr: 0x29C0, symSize: 0x3C }
  - { offset: 0xFAE6, size: 0x8, addend: 0x0, symName: __RNvYNtNtCs8noNfkmVAKC_18tracing_attributes6expand15ImplTraitEraserNtNtNtCs6IAuOt8vWmF_3syn3gen9visit_mut8VisitMut21visit_expr_assign_mutB6_, symObjAddr: 0x1DA4, symBinAddr: 0x29FC, symSize: 0x3C }
  - { offset: 0xFB25, size: 0x8, addend: 0x0, symName: __RNvYNtNtCs8noNfkmVAKC_18tracing_attributes6expand15ImplTraitEraserNtNtNtCs6IAuOt8vWmF_3syn3gen9visit_mut8VisitMut21visit_expr_binary_mutB6_, symObjAddr: 0x1DE0, symBinAddr: 0x2A38, symSize: 0x3C }
  - { offset: 0xFB64, size: 0x8, addend: 0x0, symName: __RNvYNtNtCs8noNfkmVAKC_18tracing_attributes6expand15ImplTraitEraserNtNtNtCs6IAuOt8vWmF_3syn3gen9visit_mut8VisitMut21visit_expr_repeat_mutB6_, symObjAddr: 0x1E1C, symBinAddr: 0x2A74, symSize: 0x3C }
  - { offset: 0xFBA6, size: 0x8, addend: 0x0, symName: __RNvYNtNtCs8noNfkmVAKC_18tracing_attributes6expand15ImplTraitEraserNtNtNtCs6IAuOt8vWmF_3syn3gen9visit_mut8VisitMut21visit_expr_return_mutB6_, symObjAddr: 0x1E58, symBinAddr: 0x2AB0, symSize: 0x3C }
  - { offset: 0xFBE8, size: 0x8, addend: 0x0, symName: __RNvYNtNtCs8noNfkmVAKC_18tracing_attributes6expand15ImplTraitEraserNtNtNtCs6IAuOt8vWmF_3syn3gen9visit_mut8VisitMut21visit_expr_struct_mutB6_, symObjAddr: 0x1E94, symBinAddr: 0x2AEC, symSize: 0x3C }
  - { offset: 0xFC2A, size: 0x8, addend: 0x0, symName: __RNvYNtNtCs8noNfkmVAKC_18tracing_attributes6expand15ImplTraitEraserNtNtNtCs6IAuOt8vWmF_3syn3gen9visit_mut8VisitMut21visit_expr_unsafe_mutB6_, symObjAddr: 0x1ED0, symBinAddr: 0x2B28, symSize: 0x3C }
  - { offset: 0xFC6C, size: 0x8, addend: 0x0, symName: __RNvYNtNtCs8noNfkmVAKC_18tracing_attributes6expand15ImplTraitEraserNtNtNtCs6IAuOt8vWmF_3syn3gen9visit_mut8VisitMut21visit_field_value_mutB6_, symObjAddr: 0x1F0C, symBinAddr: 0x2B64, symSize: 0x3C }
  - { offset: 0xFCAE, size: 0x8, addend: 0x0, symName: __RNvYNtNtCs8noNfkmVAKC_18tracing_attributes6expand15ImplTraitEraserNtNtNtCs6IAuOt8vWmF_3syn3gen9visit_mut8VisitMut21visit_item_static_mutB6_, symObjAddr: 0x1F48, symBinAddr: 0x2BA0, symSize: 0x3C }
  - { offset: 0xFCF0, size: 0x8, addend: 0x0, symName: __RNvYNtNtCs8noNfkmVAKC_18tracing_attributes6expand15ImplTraitEraserNtNtNtCs6IAuOt8vWmF_3syn3gen9visit_mut8VisitMut21visit_item_struct_mutB6_, symObjAddr: 0x1F84, symBinAddr: 0x2BDC, symSize: 0x3C }
  - { offset: 0xFD32, size: 0x8, addend: 0x0, symName: __RNvYNtNtCs8noNfkmVAKC_18tracing_attributes6expand15ImplTraitEraserNtNtNtCs6IAuOt8vWmF_3syn3gen9visit_mut8VisitMut21visit_return_type_mutB6_, symObjAddr: 0x1FC0, symBinAddr: 0x2C18, symSize: 0x3C }
  - { offset: 0xFD74, size: 0x8, addend: 0x0, symName: __RNvYNtNtCs8noNfkmVAKC_18tracing_attributes6expand15ImplTraitEraserNtNtNtCs6IAuOt8vWmF_3syn3gen9visit_mut8VisitMut21visit_trait_bound_mutB6_, symObjAddr: 0x1FFC, symBinAddr: 0x2C54, symSize: 0x3C }
  - { offset: 0xFDB6, size: 0x8, addend: 0x0, symName: __RNvYNtNtCs8noNfkmVAKC_18tracing_attributes6expand15ImplTraitEraserNtNtNtCs6IAuOt8vWmF_3syn3gen9visit_mut8VisitMut22visit_expr_closure_mutB6_, symObjAddr: 0x2038, symBinAddr: 0x2C90, symSize: 0x3C }
  - { offset: 0xFDF5, size: 0x8, addend: 0x0, symName: __RNvYNtNtCs8noNfkmVAKC_18tracing_attributes6expand15ImplTraitEraserNtNtNtCs6IAuOt8vWmF_3syn3gen9visit_mut8VisitMut22visit_fields_named_mutB6_, symObjAddr: 0x2074, symBinAddr: 0x2CCC, symSize: 0x3C }
  - { offset: 0xFE37, size: 0x8, addend: 0x0, symName: __RNvYNtNtCs8noNfkmVAKC_18tracing_attributes6expand15ImplTraitEraserNtNtNtCs6IAuOt8vWmF_3syn3gen9visit_mut8VisitMut22visit_foreign_item_mutB6_, symObjAddr: 0x20B0, symBinAddr: 0x2D08, symSize: 0x3C }
  - { offset: 0xFE79, size: 0x8, addend: 0x0, symName: __RNvYNtNtCs8noNfkmVAKC_18tracing_attributes6expand15ImplTraitEraserNtNtNtCs6IAuOt8vWmF_3syn3gen9visit_mut8VisitMut22visit_impl_item_fn_mutB6_, symObjAddr: 0x20EC, symBinAddr: 0x2D44, symSize: 0x3C }
  - { offset: 0xFEBB, size: 0x8, addend: 0x0, symName: __RNvYNtNtCs8noNfkmVAKC_18tracing_attributes6expand15ImplTraitEraserNtNtNtCs6IAuOt8vWmF_3syn3gen9visit_mut8VisitMut22visit_lit_byte_str_mutB6_, symObjAddr: 0x2128, symBinAddr: 0x2D80, symSize: 0x3C }
  - { offset: 0xFEFD, size: 0x8, addend: 0x0, symName: __RNvYNtNtCs8noNfkmVAKC_18tracing_attributes6expand15ImplTraitEraserNtNtNtCs6IAuOt8vWmF_3syn3gen9visit_mut8VisitMut22visit_path_segment_mutB6_, symObjAddr: 0x2164, symBinAddr: 0x2DBC, symSize: 0x3C }
  - { offset: 0xFF3F, size: 0x8, addend: 0x0, symName: __RNvYNtNtCs8noNfkmVAKC_18tracing_attributes6expand15ImplTraitEraserNtNtNtCs6IAuOt8vWmF_3syn3gen9visit_mut8VisitMut22visit_range_limits_mutB6_, symObjAddr: 0x21A0, symBinAddr: 0x2DF8, symSize: 0x3C }
  - { offset: 0xFF81, size: 0x8, addend: 0x0, symName: __RNvYNtNtCs8noNfkmVAKC_18tracing_attributes6expand15ImplTraitEraserNtNtNtCs6IAuOt8vWmF_3syn3gen9visit_mut8VisitMut22visit_token_stream_mutB6_, symObjAddr: 0x21DC, symBinAddr: 0x2E34, symSize: 0x24 }
  - { offset: 0xFFC3, size: 0x8, addend: 0x0, symName: __RNvYNtNtCs8noNfkmVAKC_18tracing_attributes6expand15ImplTraitEraserNtNtNtCs6IAuOt8vWmF_3syn3gen9visit_mut8VisitMut22visit_type_bare_fn_mutB6_, symObjAddr: 0x2200, symBinAddr: 0x2E58, symSize: 0x3C }
  - { offset: 0x10005, size: 0x8, addend: 0x0, symName: __RNvYNtNtCs8noNfkmVAKC_18tracing_attributes6expand15ImplTraitEraserNtNtNtCs6IAuOt8vWmF_3syn3gen9visit_mut8VisitMut22visit_where_clause_mutB6_, symObjAddr: 0x223C, symBinAddr: 0x2E94, symSize: 0x3C }
  - { offset: 0x10047, size: 0x8, addend: 0x0, symName: __RNvYNtNtCs8noNfkmVAKC_18tracing_attributes6expand15ImplTraitEraserNtNtNtCs6IAuOt8vWmF_3syn3gen9visit_mut8VisitMut23visit_bare_variadic_mutB6_, symObjAddr: 0x2278, symBinAddr: 0x2ED0, symSize: 0x3C }
  - { offset: 0x10086, size: 0x8, addend: 0x0, symName: __RNvYNtNtCs8noNfkmVAKC_18tracing_attributes6expand15ImplTraitEraserNtNtNtCs6IAuOt8vWmF_3syn3gen9visit_mut8VisitMut23visit_expr_continue_mutB6_, symObjAddr: 0x22B4, symBinAddr: 0x2F0C, symSize: 0x3C }
  - { offset: 0x100C5, size: 0x8, addend: 0x0, symName: __RNvYNtNtCs8noNfkmVAKC_18tracing_attributes6expand15ImplTraitEraserNtNtNtCs6IAuOt8vWmF_3syn3gen9visit_mut8VisitMut23visit_expr_for_loop_mutB6_, symObjAddr: 0x22F0, symBinAddr: 0x2F48, symSize: 0x3C }
  - { offset: 0x10104, size: 0x8, addend: 0x0, symName: __RNvYNtNtCs8noNfkmVAKC_18tracing_attributes6expand15ImplTraitEraserNtNtNtCs6IAuOt8vWmF_3syn3gen9visit_mut8VisitMut23visit_expr_raw_addr_mutB6_, symObjAddr: 0x232C, symBinAddr: 0x2F84, symSize: 0x3C }
  - { offset: 0x10146, size: 0x8, addend: 0x0, symName: __RNvYNtNtCs8noNfkmVAKC_18tracing_attributes6expand15ImplTraitEraserNtNtNtCs6IAuOt8vWmF_3syn3gen9visit_mut8VisitMut23visit_generic_param_mutB6_, symObjAddr: 0x2368, symBinAddr: 0x2FC0, symSize: 0x3C }
  - { offset: 0x10188, size: 0x8, addend: 0x0, symName: __RNvYNtNtCs8noNfkmVAKC_18tracing_attributes6expand15ImplTraitEraserNtNtNtCs6IAuOt8vWmF_3syn3gen9visit_mut8VisitMut23visit_pat_reference_mutB6_, symObjAddr: 0x23A4, symBinAddr: 0x2FFC, symSize: 0x3C }
  - { offset: 0x101CA, size: 0x8, addend: 0x0, symName: __RNvYNtNtCs8noNfkmVAKC_18tracing_attributes6expand15ImplTraitEraserNtNtNtCs6IAuOt8vWmF_3syn3gen9visit_mut8VisitMut23visit_trait_item_fn_mutB6_, symObjAddr: 0x23E0, symBinAddr: 0x3038, symSize: 0x3C }
  - { offset: 0x1020C, size: 0x8, addend: 0x0, symName: __RNvYNtNtCs8noNfkmVAKC_18tracing_attributes6expand15ImplTraitEraserNtNtNtCs6IAuOt8vWmF_3syn3gen9visit_mut8VisitMut24visit_captured_param_mutB6_, symObjAddr: 0x241C, symBinAddr: 0x3074, symSize: 0x3C }
  - { offset: 0x1024B, size: 0x8, addend: 0x0, symName: __RNvYNtNtCs8noNfkmVAKC_18tracing_attributes6expand15ImplTraitEraserNtNtNtCs6IAuOt8vWmF_3syn3gen9visit_mut8VisitMut24visit_expr_reference_mutB6_, symObjAddr: 0x2458, symBinAddr: 0x30B0, symSize: 0x3C }
  - { offset: 0x1028D, size: 0x8, addend: 0x0, symName: __RNvYNtNtCs8noNfkmVAKC_18tracing_attributes6expand15ImplTraitEraserNtNtNtCs6IAuOt8vWmF_3syn3gen9visit_mut8VisitMut24visit_expr_try_block_mutB6_, symObjAddr: 0x2494, symBinAddr: 0x30EC, symSize: 0x3C }
  - { offset: 0x102CF, size: 0x8, addend: 0x0, symName: __RNvYNtNtCs8noNfkmVAKC_18tracing_attributes6expand15ImplTraitEraserNtNtNtCs6IAuOt8vWmF_3syn3gen9visit_mut8VisitMut24visit_fields_unnamed_mutB6_, symObjAddr: 0x24D0, symBinAddr: 0x3128, symSize: 0x3C }
  - { offset: 0x10311, size: 0x8, addend: 0x0, symName: __RNvYNtNtCs8noNfkmVAKC_18tracing_attributes6expand15ImplTraitEraserNtNtNtCs6IAuOt8vWmF_3syn3gen9visit_mut8VisitMut24visit_impl_item_type_mutB6_, symObjAddr: 0x250C, symBinAddr: 0x3164, symSize: 0x3C }
  - { offset: 0x10353, size: 0x8, addend: 0x0, symName: __RNvYNtNtCs8noNfkmVAKC_18tracing_attributes6expand15ImplTraitEraserNtNtNtCs6IAuOt8vWmF_3syn3gen9visit_mut8VisitMut24visit_lifetime_param_mutB6_, symObjAddr: 0x2548, symBinAddr: 0x31A0, symSize: 0x3C }
  - { offset: 0x10395, size: 0x8, addend: 0x0, symName: __RNvYNtNtCs8noNfkmVAKC_18tracing_attributes6expand15ImplTraitEraserNtNtNtCs6IAuOt8vWmF_3syn3gen9visit_mut8VisitMut24visit_path_arguments_mutB6_, symObjAddr: 0x2584, symBinAddr: 0x31DC, symSize: 0x3C }
  - { offset: 0x103D7, size: 0x8, addend: 0x0, symName: __RNvYNtNtCs8noNfkmVAKC_18tracing_attributes6expand15ImplTraitEraserNtNtNtCs6IAuOt8vWmF_3syn3gen9visit_mut8VisitMut24visit_predicate_type_mutB6_, symObjAddr: 0x25C0, symBinAddr: 0x3218, symSize: 0x3C }
  - { offset: 0x10419, size: 0x8, addend: 0x0, symName: __RNvYNtNtCs8noNfkmVAKC_18tracing_attributes6expand15ImplTraitEraserNtNtNtCs6IAuOt8vWmF_3syn3gen9visit_mut8VisitMut24visit_type_reference_mutB6_, symObjAddr: 0x25FC, symBinAddr: 0x3254, symSize: 0x3C }
  - { offset: 0x1045B, size: 0x8, addend: 0x0, symName: __RNvYNtNtCs8noNfkmVAKC_18tracing_attributes6expand15ImplTraitEraserNtNtNtCs6IAuOt8vWmF_3syn3gen9visit_mut8VisitMut24visit_vis_restricted_mutB6_, symObjAddr: 0x2638, symBinAddr: 0x3290, symSize: 0x3C }
  - { offset: 0x1049D, size: 0x8, addend: 0x0, symName: __RNvYNtNtCs8noNfkmVAKC_18tracing_attributes6expand15ImplTraitEraserNtNtNtCs6IAuOt8vWmF_3syn3gen9visit_mut8VisitMut25visit_bound_lifetimes_mutB6_, symObjAddr: 0x2674, symBinAddr: 0x32CC, symSize: 0x3C }
  - { offset: 0x104DC, size: 0x8, addend: 0x0, symName: __RNvYNtNtCs8noNfkmVAKC_18tracing_attributes6expand15ImplTraitEraserNtNtNtCs6IAuOt8vWmF_3syn3gen9visit_mut8VisitMut25visit_foreign_item_fn_mutB6_, symObjAddr: 0x26B0, symBinAddr: 0x3308, symSize: 0x3C }
  - { offset: 0x1051E, size: 0x8, addend: 0x0, symName: __RNvYNtNtCs8noNfkmVAKC_18tracing_attributes6expand15ImplTraitEraserNtNtNtCs6IAuOt8vWmF_3syn3gen9visit_mut8VisitMut25visit_impl_item_const_mutB6_, symObjAddr: 0x26EC, symBinAddr: 0x3344, symSize: 0x3C }
  - { offset: 0x10560, size: 0x8, addend: 0x0, symName: __RNvYNtNtCs8noNfkmVAKC_18tracing_attributes6expand15ImplTraitEraserNtNtNtCs6IAuOt8vWmF_3syn3gen9visit_mut8VisitMut25visit_impl_item_macro_mutB6_, symObjAddr: 0x2728, symBinAddr: 0x3380, symSize: 0x3C }
  - { offset: 0x105A2, size: 0x8, addend: 0x0, symName: __RNvYNtNtCs8noNfkmVAKC_18tracing_attributes6expand15ImplTraitEraserNtNtNtCs6IAuOt8vWmF_3syn3gen9visit_mut8VisitMut25visit_macro_delimiter_mutB6_, symObjAddr: 0x2764, symBinAddr: 0x33BC, symSize: 0x3C }
  - { offset: 0x105E4, size: 0x8, addend: 0x0, symName: __RNvYNtNtCs8noNfkmVAKC_18tracing_attributes6expand15ImplTraitEraserNtNtNtCs6IAuOt8vWmF_3syn3gen9visit_mut8VisitMut25visit_meta_name_value_mutB6_, symObjAddr: 0x27A0, symBinAddr: 0x33F8, symSize: 0x3C }
  - { offset: 0x10626, size: 0x8, addend: 0x0, symName: __RNvYNtNtCs8noNfkmVAKC_18tracing_attributes6expand15ImplTraitEraserNtNtNtCs6IAuOt8vWmF_3syn3gen9visit_mut8VisitMut25visit_precise_capture_mutB6_, symObjAddr: 0x27DC, symBinAddr: 0x3434, symSize: 0x3C }
  - { offset: 0x10668, size: 0x8, addend: 0x0, symName: __RNvYNtNtCs8noNfkmVAKC_18tracing_attributes6expand15ImplTraitEraserNtNtNtCs6IAuOt8vWmF_3syn3gen9visit_mut8VisitMut25visit_trait_item_type_mutB6_, symObjAddr: 0x2818, symBinAddr: 0x3470, symSize: 0x3C }
  - { offset: 0x106AA, size: 0x8, addend: 0x0, symName: __RNvYNtNtCs8noNfkmVAKC_18tracing_attributes6expand15ImplTraitEraserNtNtNtCs6IAuOt8vWmF_3syn3gen9visit_mut8VisitMut25visit_type_impl_trait_mutB6_, symObjAddr: 0x2854, symBinAddr: 0x34AC, symSize: 0x3C }
  - { offset: 0x106EC, size: 0x8, addend: 0x0, symName: __RNvYNtNtCs8noNfkmVAKC_18tracing_attributes6expand15ImplTraitEraserNtNtNtCs6IAuOt8vWmF_3syn3gen9visit_mut8VisitMut25visit_where_predicate_mutB6_, symObjAddr: 0x2890, symBinAddr: 0x34E8, symSize: 0x3C }
  - { offset: 0x1072E, size: 0x8, addend: 0x0, symName: __RNvYNtNtCs8noNfkmVAKC_18tracing_attributes6expand15ImplTraitEraserNtNtNtCs6IAuOt8vWmF_3syn3gen9visit_mut8VisitMut26visit_expr_method_call_mutB6_, symObjAddr: 0x28CC, symBinAddr: 0x3524, symSize: 0x3C }
  - { offset: 0x10770, size: 0x8, addend: 0x0, symName: __RNvYNtNtCs8noNfkmVAKC_18tracing_attributes6expand15ImplTraitEraserNtNtNtCs6IAuOt8vWmF_3syn3gen9visit_mut8VisitMut26visit_field_mutability_mutB6_, symObjAddr: 0x2908, symBinAddr: 0x3560, symSize: 0x3C }
  - { offset: 0x107B2, size: 0x8, addend: 0x0, symName: __RNvYNtNtCs8noNfkmVAKC_18tracing_attributes6expand15ImplTraitEraserNtNtNtCs6IAuOt8vWmF_3syn3gen9visit_mut8VisitMut26visit_generic_argument_mutB6_, symObjAddr: 0x2944, symBinAddr: 0x359C, symSize: 0x3C }
  - { offset: 0x107F4, size: 0x8, addend: 0x0, symName: __RNvYNtNtCs8noNfkmVAKC_18tracing_attributes6expand15ImplTraitEraserNtNtNtCs6IAuOt8vWmF_3syn3gen9visit_mut8VisitMut26visit_item_foreign_mod_mutB6_, symObjAddr: 0x2980, symBinAddr: 0x35D8, symSize: 0x3C }
  - { offset: 0x10836, size: 0x8, addend: 0x0, symName: __RNvYNtNtCs8noNfkmVAKC_18tracing_attributes6expand15ImplTraitEraserNtNtNtCs6IAuOt8vWmF_3syn3gen9visit_mut8VisitMut26visit_item_trait_alias_mutB6_, symObjAddr: 0x29BC, symBinAddr: 0x3614, symSize: 0x3C }
  - { offset: 0x10878, size: 0x8, addend: 0x0, symName: __RNvYNtNtCs8noNfkmVAKC_18tracing_attributes6expand15ImplTraitEraserNtNtNtCs6IAuOt8vWmF_3syn3gen9visit_mut8VisitMut26visit_pat_tuple_struct_mutB6_, symObjAddr: 0x29F8, symBinAddr: 0x3650, symSize: 0x3C }
  - { offset: 0x108BA, size: 0x8, addend: 0x0, symName: __RNvYNtNtCs8noNfkmVAKC_18tracing_attributes6expand15ImplTraitEraserNtNtNtCs6IAuOt8vWmF_3syn3gen9visit_mut8VisitMut26visit_trait_item_const_mutB6_, symObjAddr: 0x2A34, symBinAddr: 0x368C, symSize: 0x3C }
  - { offset: 0x108FC, size: 0x8, addend: 0x0, symName: __RNvYNtNtCs8noNfkmVAKC_18tracing_attributes6expand15ImplTraitEraserNtNtNtCs6IAuOt8vWmF_3syn3gen9visit_mut8VisitMut26visit_trait_item_macro_mutB6_, symObjAddr: 0x2A70, symBinAddr: 0x36C8, symSize: 0x3C }
  - { offset: 0x1093E, size: 0x8, addend: 0x0, symName: __RNvYNtNtCs8noNfkmVAKC_18tracing_attributes6expand15ImplTraitEraserNtNtNtCs6IAuOt8vWmF_3syn3gen9visit_mut8VisitMut26visit_type_param_bound_mutB6_, symObjAddr: 0x2AAC, symBinAddr: 0x3704, symSize: 0x3C }
  - { offset: 0x10980, size: 0x8, addend: 0x0, symName: __RNvYNtNtCs8noNfkmVAKC_18tracing_attributes6expand15ImplTraitEraserNtNtNtCs6IAuOt8vWmF_3syn3gen9visit_mut8VisitMut27visit_foreign_item_type_mutB6_, symObjAddr: 0x2AE8, symBinAddr: 0x3740, symSize: 0x3C }
  - { offset: 0x109C2, size: 0x8, addend: 0x0, symName: __RNvYNtNtCs8noNfkmVAKC_18tracing_attributes6expand15ImplTraitEraserNtNtNtCs6IAuOt8vWmF_3syn3gen9visit_mut8VisitMut27visit_item_extern_crate_mutB6_, symObjAddr: 0x2B24, symBinAddr: 0x377C, symSize: 0x3C }
  - { offset: 0x10A04, size: 0x8, addend: 0x0, symName: __RNvYNtNtCs8noNfkmVAKC_18tracing_attributes6expand15ImplTraitEraserNtNtNtCs6IAuOt8vWmF_3syn3gen9visit_mut8VisitMut27visit_static_mutability_mutB6_, symObjAddr: 0x2B60, symBinAddr: 0x37B8, symSize: 0x3C }
  - { offset: 0x10A46, size: 0x8, addend: 0x0, symName: __RNvYNtNtCs8noNfkmVAKC_18tracing_attributes6expand15ImplTraitEraserNtNtNtCs6IAuOt8vWmF_3syn3gen9visit_mut8VisitMut27visit_type_trait_object_mutB6_, symObjAddr: 0x2B9C, symBinAddr: 0x37F4, symSize: 0x3C }
  - { offset: 0x10A88, size: 0x8, addend: 0x0, symName: __RNvYNtNtCs8noNfkmVAKC_18tracing_attributes6expand15ImplTraitEraserNtNtNtCs6IAuOt8vWmF_3syn3gen9visit_mut8VisitMut28visit_foreign_item_macro_mutB6_, symObjAddr: 0x2BD8, symBinAddr: 0x3830, symSize: 0x3C }
  - { offset: 0x10ACA, size: 0x8, addend: 0x0, symName: __RNvYNtNtCs8noNfkmVAKC_18tracing_attributes6expand15ImplTraitEraserNtNtNtCs6IAuOt8vWmF_3syn3gen9visit_mut8VisitMut28visit_pointer_mutability_mutB6_, symObjAddr: 0x2C14, symBinAddr: 0x386C, symSize: 0x3C }
  - { offset: 0x10B0C, size: 0x8, addend: 0x0, symName: __RNvYNtNtCs8noNfkmVAKC_18tracing_attributes6expand15ImplTraitEraserNtNtNtCs6IAuOt8vWmF_3syn3gen9visit_mut8VisitMut28visit_predicate_lifetime_mutB6_, symObjAddr: 0x2C50, symBinAddr: 0x38A8, symSize: 0x3C }
  - { offset: 0x10B4E, size: 0x8, addend: 0x0, symName: __RNvYNtNtCs8noNfkmVAKC_18tracing_attributes6expand15ImplTraitEraserNtNtNtCs6IAuOt8vWmF_3syn3gen9visit_mut8VisitMut29visit_foreign_item_static_mutB6_, symObjAddr: 0x2C8C, symBinAddr: 0x38E4, symSize: 0x3C }
  - { offset: 0x10B90, size: 0x8, addend: 0x0, symName: __RNvYNtNtCs8noNfkmVAKC_18tracing_attributes6expand15ImplTraitEraserNtNtNtCs6IAuOt8vWmF_3syn3gen9visit_mut8VisitMut30visit_trait_bound_modifier_mutB6_, symObjAddr: 0x2CC8, symBinAddr: 0x3920, symSize: 0x3C }
  - { offset: 0x10BD2, size: 0x8, addend: 0x0, symName: __RNvYNtNtCs8noNfkmVAKC_18tracing_attributes6expand15ImplTraitEraserNtNtNtCs6IAuOt8vWmF_3syn3gen9visit_mut8VisitMut41visit_parenthesized_generic_arguments_mutB6_, symObjAddr: 0x2D04, symBinAddr: 0x395C, symSize: 0x3C }
  - { offset: 0x10C14, size: 0x8, addend: 0x0, symName: __RNvYNtNtCs8noNfkmVAKC_18tracing_attributes6expand15ImplTraitEraserNtNtNtCs6IAuOt8vWmF_3syn3gen9visit_mut8VisitMut43visit_angle_bracketed_generic_arguments_mutB6_, symObjAddr: 0x2D40, symBinAddr: 0x3998, symSize: 0x3C }
  - { offset: 0x10C53, size: 0x8, addend: 0x0, symName: __RNvYNtNtCs8noNfkmVAKC_18tracing_attributes6expand20IdentAndTypesRenamerNtNtNtCs6IAuOt8vWmF_3syn3gen9visit_mut8VisitMut13visit_abi_mutB6_, symObjAddr: 0x2D7C, symBinAddr: 0x39D4, symSize: 0x3C }
  - { offset: 0x10C92, size: 0x8, addend: 0x0, symName: __RNvYNtNtCs8noNfkmVAKC_18tracing_attributes6expand20IdentAndTypesRenamerNtNtNtCs6IAuOt8vWmF_3syn3gen9visit_mut8VisitMut13visit_arm_mutB6_, symObjAddr: 0x2DB8, symBinAddr: 0x3A10, symSize: 0x3C }
  - { offset: 0x10CD1, size: 0x8, addend: 0x0, symName: __RNvYNtNtCs8noNfkmVAKC_18tracing_attributes6expand20IdentAndTypesRenamerNtNtNtCs6IAuOt8vWmF_3syn3gen9visit_mut8VisitMut13visit_lit_mutB6_, symObjAddr: 0x2DF4, symBinAddr: 0x3A4C, symSize: 0x3C }
  - { offset: 0x10D13, size: 0x8, addend: 0x0, symName: __RNvYNtNtCs8noNfkmVAKC_18tracing_attributes6expand20IdentAndTypesRenamerNtNtNtCs6IAuOt8vWmF_3syn3gen9visit_mut8VisitMut13visit_pat_mutB6_, symObjAddr: 0x2E30, symBinAddr: 0x3A88, symSize: 0x3C }
  - { offset: 0x10D55, size: 0x8, addend: 0x0, symName: __RNvYNtNtCs8noNfkmVAKC_18tracing_attributes6expand20IdentAndTypesRenamerNtNtNtCs6IAuOt8vWmF_3syn3gen9visit_mut8VisitMut14visit_expr_mutB6_, symObjAddr: 0x2E6C, symBinAddr: 0x3AC4, symSize: 0x3C }
  - { offset: 0x10D94, size: 0x8, addend: 0x0, symName: __RNvYNtNtCs8noNfkmVAKC_18tracing_attributes6expand20IdentAndTypesRenamerNtNtNtCs6IAuOt8vWmF_3syn3gen9visit_mut8VisitMut14visit_item_mutB6_, symObjAddr: 0x2EA8, symBinAddr: 0x3B00, symSize: 0x3C }
  - { offset: 0x10DD6, size: 0x8, addend: 0x0, symName: __RNvYNtNtCs8noNfkmVAKC_18tracing_attributes6expand20IdentAndTypesRenamerNtNtNtCs6IAuOt8vWmF_3syn3gen9visit_mut8VisitMut14visit_meta_mutB6_, symObjAddr: 0x2EE4, symBinAddr: 0x3B3C, symSize: 0x3C }
  - { offset: 0x10E18, size: 0x8, addend: 0x0, symName: __RNvYNtNtCs8noNfkmVAKC_18tracing_attributes6expand20IdentAndTypesRenamerNtNtNtCs6IAuOt8vWmF_3syn3gen9visit_mut8VisitMut14visit_path_mutB6_, symObjAddr: 0x2F20, symBinAddr: 0x3B78, symSize: 0x3C }
  - { offset: 0x10E5A, size: 0x8, addend: 0x0, symName: __RNvYNtNtCs8noNfkmVAKC_18tracing_attributes6expand20IdentAndTypesRenamerNtNtNtCs6IAuOt8vWmF_3syn3gen9visit_mut8VisitMut14visit_span_mutB6_, symObjAddr: 0x2F5C, symBinAddr: 0x3BB4, symSize: 0x24 }
  - { offset: 0x10E9C, size: 0x8, addend: 0x0, symName: __RNvYNtNtCs8noNfkmVAKC_18tracing_attributes6expand20IdentAndTypesRenamerNtNtNtCs6IAuOt8vWmF_3syn3gen9visit_mut8VisitMut14visit_stmt_mutB6_, symObjAddr: 0x2F80, symBinAddr: 0x3BD8, symSize: 0x3C }
  - { offset: 0x10EDE, size: 0x8, addend: 0x0, symName: __RNvYNtNtCs8noNfkmVAKC_18tracing_attributes6expand20IdentAndTypesRenamerNtNtNtCs6IAuOt8vWmF_3syn3gen9visit_mut8VisitMut15visit_block_mutB6_, symObjAddr: 0x2FBC, symBinAddr: 0x3C14, symSize: 0x3C }
  - { offset: 0x10F1D, size: 0x8, addend: 0x0, symName: __RNvYNtNtCs8noNfkmVAKC_18tracing_attributes6expand20IdentAndTypesRenamerNtNtNtCs6IAuOt8vWmF_3syn3gen9visit_mut8VisitMut15visit_field_mutB6_, symObjAddr: 0x2FF8, symBinAddr: 0x3C50, symSize: 0x3C }
  - { offset: 0x10F5F, size: 0x8, addend: 0x0, symName: __RNvYNtNtCs8noNfkmVAKC_18tracing_attributes6expand20IdentAndTypesRenamerNtNtNtCs6IAuOt8vWmF_3syn3gen9visit_mut8VisitMut15visit_index_mutB6_, symObjAddr: 0x3034, symBinAddr: 0x3C8C, symSize: 0x3C }
  - { offset: 0x10FA1, size: 0x8, addend: 0x0, symName: __RNvYNtNtCs8noNfkmVAKC_18tracing_attributes6expand20IdentAndTypesRenamerNtNtNtCs6IAuOt8vWmF_3syn3gen9visit_mut8VisitMut15visit_label_mutB6_, symObjAddr: 0x3070, symBinAddr: 0x3CC8, symSize: 0x3C }
  - { offset: 0x10FE3, size: 0x8, addend: 0x0, symName: __RNvYNtNtCs8noNfkmVAKC_18tracing_attributes6expand20IdentAndTypesRenamerNtNtNtCs6IAuOt8vWmF_3syn3gen9visit_mut8VisitMut15visit_local_mutB6_, symObjAddr: 0x30AC, symBinAddr: 0x3D04, symSize: 0x3C }
  - { offset: 0x11025, size: 0x8, addend: 0x0, symName: __RNvYNtNtCs8noNfkmVAKC_18tracing_attributes6expand20IdentAndTypesRenamerNtNtNtCs6IAuOt8vWmF_3syn3gen9visit_mut8VisitMut15visit_macro_mutB6_, symObjAddr: 0x30E8, symBinAddr: 0x3D40, symSize: 0x3C }
  - { offset: 0x11067, size: 0x8, addend: 0x0, symName: __RNvYNtNtCs8noNfkmVAKC_18tracing_attributes6expand20IdentAndTypesRenamerNtNtNtCs6IAuOt8vWmF_3syn3gen9visit_mut8VisitMut15visit_qself_mutB6_, symObjAddr: 0x3124, symBinAddr: 0x3D7C, symSize: 0x3C }
  - { offset: 0x110A9, size: 0x8, addend: 0x0, symName: __RNvYNtNtCs8noNfkmVAKC_18tracing_attributes6expand20IdentAndTypesRenamerNtNtNtCs6IAuOt8vWmF_3syn3gen9visit_mut8VisitMut15visit_un_op_mutB6_, symObjAddr: 0x3160, symBinAddr: 0x3DB8, symSize: 0x3C }
  - { offset: 0x110EB, size: 0x8, addend: 0x0, symName: __RNvYNtNtCs8noNfkmVAKC_18tracing_attributes6expand20IdentAndTypesRenamerNtNtNtCs6IAuOt8vWmF_3syn3gen9visit_mut8VisitMut16visit_bin_op_mutB6_, symObjAddr: 0x319C, symBinAddr: 0x3DF4, symSize: 0x3C }
  - { offset: 0x1112A, size: 0x8, addend: 0x0, symName: __RNvYNtNtCs8noNfkmVAKC_18tracing_attributes6expand20IdentAndTypesRenamerNtNtNtCs6IAuOt8vWmF_3syn3gen9visit_mut8VisitMut16visit_fields_mutB6_, symObjAddr: 0x31D8, symBinAddr: 0x3E30, symSize: 0x3C }
  - { offset: 0x1116C, size: 0x8, addend: 0x0, symName: __RNvYNtNtCs8noNfkmVAKC_18tracing_attributes6expand20IdentAndTypesRenamerNtNtNtCs6IAuOt8vWmF_3syn3gen9visit_mut8VisitMut16visit_fn_arg_mutB6_, symObjAddr: 0x3214, symBinAddr: 0x3E6C, symSize: 0x3C }
  - { offset: 0x111AE, size: 0x8, addend: 0x0, symName: __RNvYNtNtCs8noNfkmVAKC_18tracing_attributes6expand20IdentAndTypesRenamerNtNtNtCs6IAuOt8vWmF_3syn3gen9visit_mut8VisitMut16visit_member_mutB6_, symObjAddr: 0x3250, symBinAddr: 0x3EA8, symSize: 0x3C }
  - { offset: 0x111F0, size: 0x8, addend: 0x0, symName: __RNvYNtNtCs8noNfkmVAKC_18tracing_attributes6expand20IdentAndTypesRenamerNtNtNtCs6IAuOt8vWmF_3syn3gen9visit_mut8VisitMut16visit_pat_or_mutB6_, symObjAddr: 0x328C, symBinAddr: 0x3EE4, symSize: 0x3C }
  - { offset: 0x11232, size: 0x8, addend: 0x0, symName: __RNvYNtNtCs8noNfkmVAKC_18tracing_attributes6expand20IdentAndTypesRenamerNtNtNtCs6IAuOt8vWmF_3syn3gen9visit_mut8VisitMut17visit_expr_if_mutB6_, symObjAddr: 0x32C8, symBinAddr: 0x3F20, symSize: 0x3C }
  - { offset: 0x11271, size: 0x8, addend: 0x0, symName: __RNvYNtNtCs8noNfkmVAKC_18tracing_attributes6expand20IdentAndTypesRenamerNtNtNtCs6IAuOt8vWmF_3syn3gen9visit_mut8VisitMut17visit_item_fn_mutB6_, symObjAddr: 0x3304, symBinAddr: 0x3F5C, symSize: 0x3C }
  - { offset: 0x112B3, size: 0x8, addend: 0x0, symName: __RNvYNtNtCs8noNfkmVAKC_18tracing_attributes6expand20IdentAndTypesRenamerNtNtNtCs6IAuOt8vWmF_3syn3gen9visit_mut8VisitMut17visit_lit_int_mutB6_, symObjAddr: 0x3340, symBinAddr: 0x3F98, symSize: 0x3C }
  - { offset: 0x112F5, size: 0x8, addend: 0x0, symName: __RNvYNtNtCs8noNfkmVAKC_18tracing_attributes6expand20IdentAndTypesRenamerNtNtNtCs6IAuOt8vWmF_3syn3gen9visit_mut8VisitMut17visit_lit_str_mutB6_, symObjAddr: 0x337C, symBinAddr: 0x3FD4, symSize: 0x3C }
  - { offset: 0x11337, size: 0x8, addend: 0x0, symName: __RNvYNtNtCs8noNfkmVAKC_18tracing_attributes6expand20IdentAndTypesRenamerNtNtNtCs6IAuOt8vWmF_3syn3gen9visit_mut8VisitMut17visit_variant_mutB6_, symObjAddr: 0x33B8, symBinAddr: 0x4010, symSize: 0x3C }
  - { offset: 0x11379, size: 0x8, addend: 0x0, symName: __RNvYNtNtCs8noNfkmVAKC_18tracing_attributes6expand20IdentAndTypesRenamerNtNtNtCs6IAuOt8vWmF_3syn3gen9visit_mut8VisitMut18visit_expr_let_mutB6_, symObjAddr: 0x33F4, symBinAddr: 0x404C, symSize: 0x3C }
  - { offset: 0x113B8, size: 0x8, addend: 0x0, symName: __RNvYNtNtCs8noNfkmVAKC_18tracing_attributes6expand20IdentAndTypesRenamerNtNtNtCs6IAuOt8vWmF_3syn3gen9visit_mut8VisitMut18visit_expr_lit_mutB6_, symObjAddr: 0x3430, symBinAddr: 0x4088, symSize: 0x3C }
  - { offset: 0x113F7, size: 0x8, addend: 0x0, symName: __RNvYNtNtCs8noNfkmVAKC_18tracing_attributes6expand20IdentAndTypesRenamerNtNtNtCs6IAuOt8vWmF_3syn3gen9visit_mut8VisitMut18visit_expr_try_mutB6_, symObjAddr: 0x346C, symBinAddr: 0x40C4, symSize: 0x3C }
  - { offset: 0x11439, size: 0x8, addend: 0x0, symName: __RNvYNtNtCs8noNfkmVAKC_18tracing_attributes6expand20IdentAndTypesRenamerNtNtNtCs6IAuOt8vWmF_3syn3gen9visit_mut8VisitMut18visit_generics_mutB6_, symObjAddr: 0x34A8, symBinAddr: 0x4100, symSize: 0x3C }
  - { offset: 0x1147B, size: 0x8, addend: 0x0, symName: __RNvYNtNtCs8noNfkmVAKC_18tracing_attributes6expand20IdentAndTypesRenamerNtNtNtCs6IAuOt8vWmF_3syn3gen9visit_mut8VisitMut18visit_item_mod_mutB6_, symObjAddr: 0x34E4, symBinAddr: 0x413C, symSize: 0x3C }
  - { offset: 0x114BD, size: 0x8, addend: 0x0, symName: __RNvYNtNtCs8noNfkmVAKC_18tracing_attributes6expand20IdentAndTypesRenamerNtNtNtCs6IAuOt8vWmF_3syn3gen9visit_mut8VisitMut18visit_item_use_mutB6_, symObjAddr: 0x3520, symBinAddr: 0x4178, symSize: 0x3C }
  - { offset: 0x114FF, size: 0x8, addend: 0x0, symName: __RNvYNtNtCs8noNfkmVAKC_18tracing_attributes6expand20IdentAndTypesRenamerNtNtNtCs6IAuOt8vWmF_3syn3gen9visit_mut8VisitMut18visit_lifetime_mutB6_, symObjAddr: 0x355C, symBinAddr: 0x41B4, symSize: 0x3C }
  - { offset: 0x11541, size: 0x8, addend: 0x0, symName: __RNvYNtNtCs8noNfkmVAKC_18tracing_attributes6expand20IdentAndTypesRenamerNtNtNtCs6IAuOt8vWmF_3syn3gen9visit_mut8VisitMut18visit_lit_bool_mutB6_, symObjAddr: 0x3598, symBinAddr: 0x41F0, symSize: 0x3C }
  - { offset: 0x11583, size: 0x8, addend: 0x0, symName: __RNvYNtNtCs8noNfkmVAKC_18tracing_attributes6expand20IdentAndTypesRenamerNtNtNtCs6IAuOt8vWmF_3syn3gen9visit_mut8VisitMut18visit_lit_byte_mutB6_, symObjAddr: 0x35D4, symBinAddr: 0x422C, symSize: 0x3C }
  - { offset: 0x115C5, size: 0x8, addend: 0x0, symName: __RNvYNtNtCs8noNfkmVAKC_18tracing_attributes6expand20IdentAndTypesRenamerNtNtNtCs6IAuOt8vWmF_3syn3gen9visit_mut8VisitMut18visit_lit_char_mutB6_, symObjAddr: 0x3610, symBinAddr: 0x4268, symSize: 0x3C }
  - { offset: 0x11607, size: 0x8, addend: 0x0, symName: __RNvYNtNtCs8noNfkmVAKC_18tracing_attributes6expand20IdentAndTypesRenamerNtNtNtCs6IAuOt8vWmF_3syn3gen9visit_mut8VisitMut18visit_lit_cstr_mutB6_, symObjAddr: 0x364C, symBinAddr: 0x42A4, symSize: 0x3C }
  - { offset: 0x11649, size: 0x8, addend: 0x0, symName: __RNvYNtNtCs8noNfkmVAKC_18tracing_attributes6expand20IdentAndTypesRenamerNtNtNtCs6IAuOt8vWmF_3syn3gen9visit_mut8VisitMut18visit_pat_rest_mutB6_, symObjAddr: 0x3688, symBinAddr: 0x42E0, symSize: 0x3C }
  - { offset: 0x1168B, size: 0x8, addend: 0x0, symName: __RNvYNtNtCs8noNfkmVAKC_18tracing_attributes6expand20IdentAndTypesRenamerNtNtNtCs6IAuOt8vWmF_3syn3gen9visit_mut8VisitMut18visit_pat_type_mutB6_, symObjAddr: 0x36C4, symBinAddr: 0x431C, symSize: 0x3C }
  - { offset: 0x116CD, size: 0x8, addend: 0x0, symName: __RNvYNtNtCs8noNfkmVAKC_18tracing_attributes6expand20IdentAndTypesRenamerNtNtNtCs6IAuOt8vWmF_3syn3gen9visit_mut8VisitMut18visit_pat_wild_mutB6_, symObjAddr: 0x3700, symBinAddr: 0x4358, symSize: 0x3C }
  - { offset: 0x1170F, size: 0x8, addend: 0x0, symName: __RNvYNtNtCs8noNfkmVAKC_18tracing_attributes6expand20IdentAndTypesRenamerNtNtNtCs6IAuOt8vWmF_3syn3gen9visit_mut8VisitMut18visit_receiver_mutB6_, symObjAddr: 0x373C, symBinAddr: 0x4394, symSize: 0x3C }
  - { offset: 0x11751, size: 0x8, addend: 0x0, symName: __RNvYNtNtCs8noNfkmVAKC_18tracing_attributes6expand20IdentAndTypesRenamerNtNtNtCs6IAuOt8vWmF_3syn3gen9visit_mut8VisitMut18visit_use_glob_mutB6_, symObjAddr: 0x3778, symBinAddr: 0x43D0, symSize: 0x3C }
  - { offset: 0x11793, size: 0x8, addend: 0x0, symName: __RNvYNtNtCs8noNfkmVAKC_18tracing_attributes6expand20IdentAndTypesRenamerNtNtNtCs6IAuOt8vWmF_3syn3gen9visit_mut8VisitMut18visit_use_name_mutB6_, symObjAddr: 0x37B4, symBinAddr: 0x440C, symSize: 0x3C }
  - { offset: 0x117D5, size: 0x8, addend: 0x0, symName: __RNvYNtNtCs8noNfkmVAKC_18tracing_attributes6expand20IdentAndTypesRenamerNtNtNtCs6IAuOt8vWmF_3syn3gen9visit_mut8VisitMut18visit_use_path_mutB6_, symObjAddr: 0x37F0, symBinAddr: 0x4448, symSize: 0x3C }
  - { offset: 0x11817, size: 0x8, addend: 0x0, symName: __RNvYNtNtCs8noNfkmVAKC_18tracing_attributes6expand20IdentAndTypesRenamerNtNtNtCs6IAuOt8vWmF_3syn3gen9visit_mut8VisitMut18visit_use_tree_mutB6_, symObjAddr: 0x382C, symBinAddr: 0x4484, symSize: 0x3C }
  - { offset: 0x11859, size: 0x8, addend: 0x0, symName: __RNvYNtNtCs8noNfkmVAKC_18tracing_attributes6expand20IdentAndTypesRenamerNtNtNtCs6IAuOt8vWmF_3syn3gen9visit_mut8VisitMut18visit_variadic_mutB6_, symObjAddr: 0x3868, symBinAddr: 0x44C0, symSize: 0x3C }
  - { offset: 0x1189B, size: 0x8, addend: 0x0, symName: __RNvYNtNtCs8noNfkmVAKC_18tracing_attributes6expand20IdentAndTypesRenamerNtNtNtCs6IAuOt8vWmF_3syn3gen9visit_mut8VisitMut19visit_attribute_mutB6_, symObjAddr: 0x38A4, symBinAddr: 0x44FC, symSize: 0x3C }
  - { offset: 0x118DA, size: 0x8, addend: 0x0, symName: __RNvYNtNtCs8noNfkmVAKC_18tracing_attributes6expand20IdentAndTypesRenamerNtNtNtCs6IAuOt8vWmF_3syn3gen9visit_mut8VisitMut19visit_expr_call_mutB6_, symObjAddr: 0x38E0, symBinAddr: 0x4538, symSize: 0x3C }
  - { offset: 0x11919, size: 0x8, addend: 0x0, symName: __RNvYNtNtCs8noNfkmVAKC_18tracing_attributes6expand20IdentAndTypesRenamerNtNtNtCs6IAuOt8vWmF_3syn3gen9visit_mut8VisitMut19visit_expr_cast_mutB6_, symObjAddr: 0x391C, symBinAddr: 0x4574, symSize: 0x3C }
  - { offset: 0x11958, size: 0x8, addend: 0x0, symName: __RNvYNtNtCs8noNfkmVAKC_18tracing_attributes6expand20IdentAndTypesRenamerNtNtNtCs6IAuOt8vWmF_3syn3gen9visit_mut8VisitMut19visit_expr_loop_mutB6_, symObjAddr: 0x3958, symBinAddr: 0x45B0, symSize: 0x3C }
  - { offset: 0x11997, size: 0x8, addend: 0x0, symName: __RNvYNtNtCs8noNfkmVAKC_18tracing_attributes6expand20IdentAndTypesRenamerNtNtNtCs6IAuOt8vWmF_3syn3gen9visit_mut8VisitMut19visit_expr_path_mutB6_, symObjAddr: 0x3994, symBinAddr: 0x45EC, symSize: 0x3C }
  - { offset: 0x119D9, size: 0x8, addend: 0x0, symName: __RNvYNtNtCs8noNfkmVAKC_18tracing_attributes6expand20IdentAndTypesRenamerNtNtNtCs6IAuOt8vWmF_3syn3gen9visit_mut8VisitMut19visit_field_pat_mutB6_, symObjAddr: 0x39D0, symBinAddr: 0x4628, symSize: 0x3C }
  - { offset: 0x11A1B, size: 0x8, addend: 0x0, symName: __RNvYNtNtCs8noNfkmVAKC_18tracing_attributes6expand20IdentAndTypesRenamerNtNtNtCs6IAuOt8vWmF_3syn3gen9visit_mut8VisitMut19visit_impl_item_mutB6_, symObjAddr: 0x3A0C, symBinAddr: 0x4664, symSize: 0x3C }
  - { offset: 0x11A5D, size: 0x8, addend: 0x0, symName: __RNvYNtNtCs8noNfkmVAKC_18tracing_attributes6expand20IdentAndTypesRenamerNtNtNtCs6IAuOt8vWmF_3syn3gen9visit_mut8VisitMut19visit_item_enum_mutB6_, symObjAddr: 0x3A48, symBinAddr: 0x46A0, symSize: 0x3C }
  - { offset: 0x11A9F, size: 0x8, addend: 0x0, symName: __RNvYNtNtCs8noNfkmVAKC_18tracing_attributes6expand20IdentAndTypesRenamerNtNtNtCs6IAuOt8vWmF_3syn3gen9visit_mut8VisitMut19visit_item_impl_mutB6_, symObjAddr: 0x3A84, symBinAddr: 0x46DC, symSize: 0x3C }
  - { offset: 0x11AE1, size: 0x8, addend: 0x0, symName: __RNvYNtNtCs8noNfkmVAKC_18tracing_attributes6expand20IdentAndTypesRenamerNtNtNtCs6IAuOt8vWmF_3syn3gen9visit_mut8VisitMut19visit_item_type_mutB6_, symObjAddr: 0x3AC0, symBinAddr: 0x4718, symSize: 0x3C }
  - { offset: 0x11B23, size: 0x8, addend: 0x0, symName: __RNvYNtNtCs8noNfkmVAKC_18tracing_attributes6expand20IdentAndTypesRenamerNtNtNtCs6IAuOt8vWmF_3syn3gen9visit_mut8VisitMut19visit_lit_float_mutB6_, symObjAddr: 0x3AFC, symBinAddr: 0x4754, symSize: 0x3C }
  - { offset: 0x11B65, size: 0x8, addend: 0x0, symName: __RNvYNtNtCs8noNfkmVAKC_18tracing_attributes6expand20IdentAndTypesRenamerNtNtNtCs6IAuOt8vWmF_3syn3gen9visit_mut8VisitMut19visit_meta_list_mutB6_, symObjAddr: 0x3B38, symBinAddr: 0x4790, symSize: 0x3C }
  - { offset: 0x11BA7, size: 0x8, addend: 0x0, symName: __RNvYNtNtCs8noNfkmVAKC_18tracing_attributes6expand20IdentAndTypesRenamerNtNtNtCs6IAuOt8vWmF_3syn3gen9visit_mut8VisitMut19visit_pat_ident_mutB6_, symObjAddr: 0x3B74, symBinAddr: 0x47CC, symSize: 0x3C }
  - { offset: 0x11BE9, size: 0x8, addend: 0x0, symName: __RNvYNtNtCs8noNfkmVAKC_18tracing_attributes6expand20IdentAndTypesRenamerNtNtNtCs6IAuOt8vWmF_3syn3gen9visit_mut8VisitMut19visit_pat_paren_mutB6_, symObjAddr: 0x3BB0, symBinAddr: 0x4808, symSize: 0x3C }
  - { offset: 0x11C2B, size: 0x8, addend: 0x0, symName: __RNvYNtNtCs8noNfkmVAKC_18tracing_attributes6expand20IdentAndTypesRenamerNtNtNtCs6IAuOt8vWmF_3syn3gen9visit_mut8VisitMut19visit_pat_slice_mutB6_, symObjAddr: 0x3BEC, symBinAddr: 0x4844, symSize: 0x3C }
  - { offset: 0x11C6D, size: 0x8, addend: 0x0, symName: __RNvYNtNtCs8noNfkmVAKC_18tracing_attributes6expand20IdentAndTypesRenamerNtNtNtCs6IAuOt8vWmF_3syn3gen9visit_mut8VisitMut19visit_pat_tuple_mutB6_, symObjAddr: 0x3C28, symBinAddr: 0x4880, symSize: 0x3C }
  - { offset: 0x11CAF, size: 0x8, addend: 0x0, symName: __RNvYNtNtCs8noNfkmVAKC_18tracing_attributes6expand20IdentAndTypesRenamerNtNtNtCs6IAuOt8vWmF_3syn3gen9visit_mut8VisitMut19visit_signature_mutB6_, symObjAddr: 0x3C64, symBinAddr: 0x48BC, symSize: 0x3C }
  - { offset: 0x11CF1, size: 0x8, addend: 0x0, symName: __RNvYNtNtCs8noNfkmVAKC_18tracing_attributes6expand20IdentAndTypesRenamerNtNtNtCs6IAuOt8vWmF_3syn3gen9visit_mut8VisitMut19visit_use_group_mutB6_, symObjAddr: 0x3CA0, symBinAddr: 0x48F8, symSize: 0x3C }
  - { offset: 0x11D33, size: 0x8, addend: 0x0, symName: __RNvYNtNtCs8noNfkmVAKC_18tracing_attributes6expand20IdentAndTypesRenamerNtNtNtCs6IAuOt8vWmF_3syn3gen9visit_mut8VisitMut20visit_assoc_type_mutB6_, symObjAddr: 0x3CDC, symBinAddr: 0x4934, symSize: 0x3C }
  - { offset: 0x11D72, size: 0x8, addend: 0x0, symName: __RNvYNtNtCs8noNfkmVAKC_18tracing_attributes6expand20IdentAndTypesRenamerNtNtNtCs6IAuOt8vWmF_3syn3gen9visit_mut8VisitMut20visit_attr_style_mutB6_, symObjAddr: 0x3D18, symBinAddr: 0x4970, symSize: 0x3C }
  - { offset: 0x11DB1, size: 0x8, addend: 0x0, symName: __RNvYNtNtCs8noNfkmVAKC_18tracing_attributes6expand20IdentAndTypesRenamerNtNtNtCs6IAuOt8vWmF_3syn3gen9visit_mut8VisitMut20visit_attributes_mutB6_, symObjAddr: 0x3D54, symBinAddr: 0x49AC, symSize: 0x98 }
  - { offset: 0x11E22, size: 0x8, addend: 0x0, symName: __RNvYNtNtCs8noNfkmVAKC_18tracing_attributes6expand20IdentAndTypesRenamerNtNtNtCs6IAuOt8vWmF_3syn3gen9visit_mut8VisitMut20visit_constraint_mutB6_, symObjAddr: 0x3DEC, symBinAddr: 0x4A44, symSize: 0x3C }
  - { offset: 0x11E61, size: 0x8, addend: 0x0, symName: __RNvYNtNtCs8noNfkmVAKC_18tracing_attributes6expand20IdentAndTypesRenamerNtNtNtCs6IAuOt8vWmF_3syn3gen9visit_mut8VisitMut20visit_expr_array_mutB6_, symObjAddr: 0x3E28, symBinAddr: 0x4A80, symSize: 0x3C }
  - { offset: 0x11EA0, size: 0x8, addend: 0x0, symName: __RNvYNtNtCs8noNfkmVAKC_18tracing_attributes6expand20IdentAndTypesRenamerNtNtNtCs6IAuOt8vWmF_3syn3gen9visit_mut8VisitMut20visit_expr_async_mutB6_, symObjAddr: 0x3E64, symBinAddr: 0x4ABC, symSize: 0x3C }
  - { offset: 0x11EDF, size: 0x8, addend: 0x0, symName: __RNvYNtNtCs8noNfkmVAKC_18tracing_attributes6expand20IdentAndTypesRenamerNtNtNtCs6IAuOt8vWmF_3syn3gen9visit_mut8VisitMut20visit_expr_await_mutB6_, symObjAddr: 0x3EA0, symBinAddr: 0x4AF8, symSize: 0x3C }
  - { offset: 0x11F1E, size: 0x8, addend: 0x0, symName: __RNvYNtNtCs8noNfkmVAKC_18tracing_attributes6expand20IdentAndTypesRenamerNtNtNtCs6IAuOt8vWmF_3syn3gen9visit_mut8VisitMut20visit_expr_block_mutB6_, symObjAddr: 0x3EDC, symBinAddr: 0x4B34, symSize: 0x3C }
  - { offset: 0x11F5D, size: 0x8, addend: 0x0, symName: __RNvYNtNtCs8noNfkmVAKC_18tracing_attributes6expand20IdentAndTypesRenamerNtNtNtCs6IAuOt8vWmF_3syn3gen9visit_mut8VisitMut20visit_expr_break_mutB6_, symObjAddr: 0x3F18, symBinAddr: 0x4B70, symSize: 0x3C }
  - { offset: 0x11F9C, size: 0x8, addend: 0x0, symName: __RNvYNtNtCs8noNfkmVAKC_18tracing_attributes6expand20IdentAndTypesRenamerNtNtNtCs6IAuOt8vWmF_3syn3gen9visit_mut8VisitMut20visit_expr_const_mutB6_, symObjAddr: 0x3F54, symBinAddr: 0x4BAC, symSize: 0x3C }
  - { offset: 0x11FDB, size: 0x8, addend: 0x0, symName: __RNvYNtNtCs8noNfkmVAKC_18tracing_attributes6expand20IdentAndTypesRenamerNtNtNtCs6IAuOt8vWmF_3syn3gen9visit_mut8VisitMut20visit_expr_field_mutB6_, symObjAddr: 0x3F90, symBinAddr: 0x4BE8, symSize: 0x3C }
  - { offset: 0x1201A, size: 0x8, addend: 0x0, symName: __RNvYNtNtCs8noNfkmVAKC_18tracing_attributes6expand20IdentAndTypesRenamerNtNtNtCs6IAuOt8vWmF_3syn3gen9visit_mut8VisitMut20visit_expr_group_mutB6_, symObjAddr: 0x3FCC, symBinAddr: 0x4C24, symSize: 0x3C }
  - { offset: 0x12059, size: 0x8, addend: 0x0, symName: __RNvYNtNtCs8noNfkmVAKC_18tracing_attributes6expand20IdentAndTypesRenamerNtNtNtCs6IAuOt8vWmF_3syn3gen9visit_mut8VisitMut20visit_expr_index_mutB6_, symObjAddr: 0x4008, symBinAddr: 0x4C60, symSize: 0x3C }
  - { offset: 0x12098, size: 0x8, addend: 0x0, symName: __RNvYNtNtCs8noNfkmVAKC_18tracing_attributes6expand20IdentAndTypesRenamerNtNtNtCs6IAuOt8vWmF_3syn3gen9visit_mut8VisitMut20visit_expr_infer_mutB6_, symObjAddr: 0x4044, symBinAddr: 0x4C9C, symSize: 0x3C }
  - { offset: 0x120D7, size: 0x8, addend: 0x0, symName: __RNvYNtNtCs8noNfkmVAKC_18tracing_attributes6expand20IdentAndTypesRenamerNtNtNtCs6IAuOt8vWmF_3syn3gen9visit_mut8VisitMut20visit_expr_macro_mutB6_, symObjAddr: 0x4080, symBinAddr: 0x4CD8, symSize: 0x3C }
  - { offset: 0x12116, size: 0x8, addend: 0x0, symName: __RNvYNtNtCs8noNfkmVAKC_18tracing_attributes6expand20IdentAndTypesRenamerNtNtNtCs6IAuOt8vWmF_3syn3gen9visit_mut8VisitMut20visit_expr_match_mutB6_, symObjAddr: 0x40BC, symBinAddr: 0x4D14, symSize: 0x3C }
  - { offset: 0x12158, size: 0x8, addend: 0x0, symName: __RNvYNtNtCs8noNfkmVAKC_18tracing_attributes6expand20IdentAndTypesRenamerNtNtNtCs6IAuOt8vWmF_3syn3gen9visit_mut8VisitMut20visit_expr_paren_mutB6_, symObjAddr: 0x40F8, symBinAddr: 0x4D50, symSize: 0x3C }
  - { offset: 0x1219A, size: 0x8, addend: 0x0, symName: __RNvYNtNtCs8noNfkmVAKC_18tracing_attributes6expand20IdentAndTypesRenamerNtNtNtCs6IAuOt8vWmF_3syn3gen9visit_mut8VisitMut20visit_expr_range_mutB6_, symObjAddr: 0x4134, symBinAddr: 0x4D8C, symSize: 0x3C }
  - { offset: 0x121DC, size: 0x8, addend: 0x0, symName: __RNvYNtNtCs8noNfkmVAKC_18tracing_attributes6expand20IdentAndTypesRenamerNtNtNtCs6IAuOt8vWmF_3syn3gen9visit_mut8VisitMut20visit_expr_tuple_mutB6_, symObjAddr: 0x4170, symBinAddr: 0x4DC8, symSize: 0x3C }
  - { offset: 0x1221E, size: 0x8, addend: 0x0, symName: __RNvYNtNtCs8noNfkmVAKC_18tracing_attributes6expand20IdentAndTypesRenamerNtNtNtCs6IAuOt8vWmF_3syn3gen9visit_mut8VisitMut20visit_expr_unary_mutB6_, symObjAddr: 0x41AC, symBinAddr: 0x4E04, symSize: 0x3C }
  - { offset: 0x12260, size: 0x8, addend: 0x0, symName: __RNvYNtNtCs8noNfkmVAKC_18tracing_attributes6expand20IdentAndTypesRenamerNtNtNtCs6IAuOt8vWmF_3syn3gen9visit_mut8VisitMut20visit_expr_while_mutB6_, symObjAddr: 0x41E8, symBinAddr: 0x4E40, symSize: 0x3C }
  - { offset: 0x122A2, size: 0x8, addend: 0x0, symName: __RNvYNtNtCs8noNfkmVAKC_18tracing_attributes6expand20IdentAndTypesRenamerNtNtNtCs6IAuOt8vWmF_3syn3gen9visit_mut8VisitMut20visit_expr_yield_mutB6_, symObjAddr: 0x4224, symBinAddr: 0x4E7C, symSize: 0x3C }
  - { offset: 0x122E4, size: 0x8, addend: 0x0, symName: __RNvYNtNtCs8noNfkmVAKC_18tracing_attributes6expand20IdentAndTypesRenamerNtNtNtCs6IAuOt8vWmF_3syn3gen9visit_mut8VisitMut20visit_item_const_mutB6_, symObjAddr: 0x4260, symBinAddr: 0x4EB8, symSize: 0x3C }
  - { offset: 0x12326, size: 0x8, addend: 0x0, symName: __RNvYNtNtCs8noNfkmVAKC_18tracing_attributes6expand20IdentAndTypesRenamerNtNtNtCs6IAuOt8vWmF_3syn3gen9visit_mut8VisitMut20visit_item_macro_mutB6_, symObjAddr: 0x429C, symBinAddr: 0x4EF4, symSize: 0x3C }
  - { offset: 0x12368, size: 0x8, addend: 0x0, symName: __RNvYNtNtCs8noNfkmVAKC_18tracing_attributes6expand20IdentAndTypesRenamerNtNtNtCs6IAuOt8vWmF_3syn3gen9visit_mut8VisitMut20visit_item_trait_mutB6_, symObjAddr: 0x42D8, symBinAddr: 0x4F30, symSize: 0x3C }
  - { offset: 0x123AA, size: 0x8, addend: 0x0, symName: __RNvYNtNtCs8noNfkmVAKC_18tracing_attributes6expand20IdentAndTypesRenamerNtNtNtCs6IAuOt8vWmF_3syn3gen9visit_mut8VisitMut20visit_item_union_mutB6_, symObjAddr: 0x4314, symBinAddr: 0x4F6C, symSize: 0x3C }
  - { offset: 0x123EC, size: 0x8, addend: 0x0, symName: __RNvYNtNtCs8noNfkmVAKC_18tracing_attributes6expand20IdentAndTypesRenamerNtNtNtCs6IAuOt8vWmF_3syn3gen9visit_mut8VisitMut20visit_local_init_mutB6_, symObjAddr: 0x4350, symBinAddr: 0x4FA8, symSize: 0x3C }
  - { offset: 0x1242E, size: 0x8, addend: 0x0, symName: __RNvYNtNtCs8noNfkmVAKC_18tracing_attributes6expand20IdentAndTypesRenamerNtNtNtCs6IAuOt8vWmF_3syn3gen9visit_mut8VisitMut20visit_pat_struct_mutB6_, symObjAddr: 0x438C, symBinAddr: 0x4FE4, symSize: 0x3C }
  - { offset: 0x12470, size: 0x8, addend: 0x0, symName: __RNvYNtNtCs8noNfkmVAKC_18tracing_attributes6expand20IdentAndTypesRenamerNtNtNtCs6IAuOt8vWmF_3syn3gen9visit_mut8VisitMut20visit_stmt_macro_mutB6_, symObjAddr: 0x43C8, symBinAddr: 0x5020, symSize: 0x3C }
  - { offset: 0x124B2, size: 0x8, addend: 0x0, symName: __RNvYNtNtCs8noNfkmVAKC_18tracing_attributes6expand20IdentAndTypesRenamerNtNtNtCs6IAuOt8vWmF_3syn3gen9visit_mut8VisitMut20visit_trait_item_mutB6_, symObjAddr: 0x4404, symBinAddr: 0x505C, symSize: 0x3C }
  - { offset: 0x124F4, size: 0x8, addend: 0x0, symName: __RNvYNtNtCs8noNfkmVAKC_18tracing_attributes6expand20IdentAndTypesRenamerNtNtNtCs6IAuOt8vWmF_3syn3gen9visit_mut8VisitMut20visit_type_param_mutB6_, symObjAddr: 0x4440, symBinAddr: 0x5098, symSize: 0x3C }
  - { offset: 0x12536, size: 0x8, addend: 0x0, symName: __RNvYNtNtCs8noNfkmVAKC_18tracing_attributes6expand20IdentAndTypesRenamerNtNtNtCs6IAuOt8vWmF_3syn3gen9visit_mut8VisitMut20visit_use_rename_mutB6_, symObjAddr: 0x447C, symBinAddr: 0x50D4, symSize: 0x3C }
  - { offset: 0x12578, size: 0x8, addend: 0x0, symName: __RNvYNtNtCs8noNfkmVAKC_18tracing_attributes6expand20IdentAndTypesRenamerNtNtNtCs6IAuOt8vWmF_3syn3gen9visit_mut8VisitMut20visit_visibility_mutB6_, symObjAddr: 0x44B8, symBinAddr: 0x5110, symSize: 0x3C }
  - { offset: 0x125BA, size: 0x8, addend: 0x0, symName: __RNvYNtNtCs8noNfkmVAKC_18tracing_attributes6expand20IdentAndTypesRenamerNtNtNtCs6IAuOt8vWmF_3syn3gen9visit_mut8VisitMut21visit_assoc_const_mutB6_, symObjAddr: 0x44F4, symBinAddr: 0x514C, symSize: 0x3C }
  - { offset: 0x125F9, size: 0x8, addend: 0x0, symName: __RNvYNtNtCs8noNfkmVAKC_18tracing_attributes6expand20IdentAndTypesRenamerNtNtNtCs6IAuOt8vWmF_3syn3gen9visit_mut8VisitMut21visit_const_param_mutB6_, symObjAddr: 0x4530, symBinAddr: 0x5188, symSize: 0x3C }
  - { offset: 0x12638, size: 0x8, addend: 0x0, symName: __RNvYNtNtCs8noNfkmVAKC_18tracing_attributes6expand20IdentAndTypesRenamerNtNtNtCs6IAuOt8vWmF_3syn3gen9visit_mut8VisitMut21visit_expr_assign_mutB6_, symObjAddr: 0x456C, symBinAddr: 0x51C4, symSize: 0x3C }
  - { offset: 0x12677, size: 0x8, addend: 0x0, symName: __RNvYNtNtCs8noNfkmVAKC_18tracing_attributes6expand20IdentAndTypesRenamerNtNtNtCs6IAuOt8vWmF_3syn3gen9visit_mut8VisitMut21visit_expr_binary_mutB6_, symObjAddr: 0x45A8, symBinAddr: 0x5200, symSize: 0x3C }
  - { offset: 0x126B6, size: 0x8, addend: 0x0, symName: __RNvYNtNtCs8noNfkmVAKC_18tracing_attributes6expand20IdentAndTypesRenamerNtNtNtCs6IAuOt8vWmF_3syn3gen9visit_mut8VisitMut21visit_expr_repeat_mutB6_, symObjAddr: 0x45E4, symBinAddr: 0x523C, symSize: 0x3C }
  - { offset: 0x126F8, size: 0x8, addend: 0x0, symName: __RNvYNtNtCs8noNfkmVAKC_18tracing_attributes6expand20IdentAndTypesRenamerNtNtNtCs6IAuOt8vWmF_3syn3gen9visit_mut8VisitMut21visit_expr_return_mutB6_, symObjAddr: 0x4620, symBinAddr: 0x5278, symSize: 0x3C }
  - { offset: 0x1273A, size: 0x8, addend: 0x0, symName: __RNvYNtNtCs8noNfkmVAKC_18tracing_attributes6expand20IdentAndTypesRenamerNtNtNtCs6IAuOt8vWmF_3syn3gen9visit_mut8VisitMut21visit_expr_struct_mutB6_, symObjAddr: 0x465C, symBinAddr: 0x52B4, symSize: 0x3C }
  - { offset: 0x1277C, size: 0x8, addend: 0x0, symName: __RNvYNtNtCs8noNfkmVAKC_18tracing_attributes6expand20IdentAndTypesRenamerNtNtNtCs6IAuOt8vWmF_3syn3gen9visit_mut8VisitMut21visit_expr_unsafe_mutB6_, symObjAddr: 0x4698, symBinAddr: 0x52F0, symSize: 0x3C }
  - { offset: 0x127BE, size: 0x8, addend: 0x0, symName: __RNvYNtNtCs8noNfkmVAKC_18tracing_attributes6expand20IdentAndTypesRenamerNtNtNtCs6IAuOt8vWmF_3syn3gen9visit_mut8VisitMut21visit_field_value_mutB6_, symObjAddr: 0x46D4, symBinAddr: 0x532C, symSize: 0x3C }
  - { offset: 0x12800, size: 0x8, addend: 0x0, symName: __RNvYNtNtCs8noNfkmVAKC_18tracing_attributes6expand20IdentAndTypesRenamerNtNtNtCs6IAuOt8vWmF_3syn3gen9visit_mut8VisitMut21visit_item_static_mutB6_, symObjAddr: 0x4710, symBinAddr: 0x5368, symSize: 0x3C }
  - { offset: 0x12842, size: 0x8, addend: 0x0, symName: __RNvYNtNtCs8noNfkmVAKC_18tracing_attributes6expand20IdentAndTypesRenamerNtNtNtCs6IAuOt8vWmF_3syn3gen9visit_mut8VisitMut21visit_item_struct_mutB6_, symObjAddr: 0x474C, symBinAddr: 0x53A4, symSize: 0x3C }
  - { offset: 0x12884, size: 0x8, addend: 0x0, symName: __RNvYNtNtCs8noNfkmVAKC_18tracing_attributes6expand20IdentAndTypesRenamerNtNtNtCs6IAuOt8vWmF_3syn3gen9visit_mut8VisitMut21visit_return_type_mutB6_, symObjAddr: 0x4788, symBinAddr: 0x53E0, symSize: 0x3C }
  - { offset: 0x128C6, size: 0x8, addend: 0x0, symName: __RNvYNtNtCs8noNfkmVAKC_18tracing_attributes6expand20IdentAndTypesRenamerNtNtNtCs6IAuOt8vWmF_3syn3gen9visit_mut8VisitMut21visit_trait_bound_mutB6_, symObjAddr: 0x47C4, symBinAddr: 0x541C, symSize: 0x3C }
  - { offset: 0x12908, size: 0x8, addend: 0x0, symName: __RNvYNtNtCs8noNfkmVAKC_18tracing_attributes6expand20IdentAndTypesRenamerNtNtNtCs6IAuOt8vWmF_3syn3gen9visit_mut8VisitMut22visit_expr_closure_mutB6_, symObjAddr: 0x4800, symBinAddr: 0x5458, symSize: 0x3C }
  - { offset: 0x12947, size: 0x8, addend: 0x0, symName: __RNvYNtNtCs8noNfkmVAKC_18tracing_attributes6expand20IdentAndTypesRenamerNtNtNtCs6IAuOt8vWmF_3syn3gen9visit_mut8VisitMut22visit_fields_named_mutB6_, symObjAddr: 0x483C, symBinAddr: 0x5494, symSize: 0x3C }
  - { offset: 0x12989, size: 0x8, addend: 0x0, symName: __RNvYNtNtCs8noNfkmVAKC_18tracing_attributes6expand20IdentAndTypesRenamerNtNtNtCs6IAuOt8vWmF_3syn3gen9visit_mut8VisitMut22visit_foreign_item_mutB6_, symObjAddr: 0x4878, symBinAddr: 0x54D0, symSize: 0x3C }
  - { offset: 0x129CB, size: 0x8, addend: 0x0, symName: __RNvYNtNtCs8noNfkmVAKC_18tracing_attributes6expand20IdentAndTypesRenamerNtNtNtCs6IAuOt8vWmF_3syn3gen9visit_mut8VisitMut22visit_impl_item_fn_mutB6_, symObjAddr: 0x48B4, symBinAddr: 0x550C, symSize: 0x3C }
  - { offset: 0x12A0D, size: 0x8, addend: 0x0, symName: __RNvYNtNtCs8noNfkmVAKC_18tracing_attributes6expand20IdentAndTypesRenamerNtNtNtCs6IAuOt8vWmF_3syn3gen9visit_mut8VisitMut22visit_lit_byte_str_mutB6_, symObjAddr: 0x48F0, symBinAddr: 0x5548, symSize: 0x3C }
  - { offset: 0x12A4F, size: 0x8, addend: 0x0, symName: __RNvYNtNtCs8noNfkmVAKC_18tracing_attributes6expand20IdentAndTypesRenamerNtNtNtCs6IAuOt8vWmF_3syn3gen9visit_mut8VisitMut22visit_path_segment_mutB6_, symObjAddr: 0x492C, symBinAddr: 0x5584, symSize: 0x3C }
  - { offset: 0x12A91, size: 0x8, addend: 0x0, symName: __RNvYNtNtCs8noNfkmVAKC_18tracing_attributes6expand20IdentAndTypesRenamerNtNtNtCs6IAuOt8vWmF_3syn3gen9visit_mut8VisitMut22visit_range_limits_mutB6_, symObjAddr: 0x4968, symBinAddr: 0x55C0, symSize: 0x3C }
  - { offset: 0x12AD3, size: 0x8, addend: 0x0, symName: __RNvYNtNtCs8noNfkmVAKC_18tracing_attributes6expand20IdentAndTypesRenamerNtNtNtCs6IAuOt8vWmF_3syn3gen9visit_mut8VisitMut22visit_token_stream_mutB6_, symObjAddr: 0x49A4, symBinAddr: 0x55FC, symSize: 0x24 }
  - { offset: 0x12B15, size: 0x8, addend: 0x0, symName: __RNvYNtNtCs8noNfkmVAKC_18tracing_attributes6expand20IdentAndTypesRenamerNtNtNtCs6IAuOt8vWmF_3syn3gen9visit_mut8VisitMut22visit_where_clause_mutB6_, symObjAddr: 0x49C8, symBinAddr: 0x5620, symSize: 0x3C }
  - { offset: 0x12B57, size: 0x8, addend: 0x0, symName: __RNvYNtNtCs8noNfkmVAKC_18tracing_attributes6expand20IdentAndTypesRenamerNtNtNtCs6IAuOt8vWmF_3syn3gen9visit_mut8VisitMut23visit_expr_continue_mutB6_, symObjAddr: 0x4A04, symBinAddr: 0x565C, symSize: 0x3C }
  - { offset: 0x12B96, size: 0x8, addend: 0x0, symName: __RNvYNtNtCs8noNfkmVAKC_18tracing_attributes6expand20IdentAndTypesRenamerNtNtNtCs6IAuOt8vWmF_3syn3gen9visit_mut8VisitMut23visit_expr_for_loop_mutB6_, symObjAddr: 0x4A40, symBinAddr: 0x5698, symSize: 0x3C }
  - { offset: 0x12BD5, size: 0x8, addend: 0x0, symName: __RNvYNtNtCs8noNfkmVAKC_18tracing_attributes6expand20IdentAndTypesRenamerNtNtNtCs6IAuOt8vWmF_3syn3gen9visit_mut8VisitMut23visit_expr_raw_addr_mutB6_, symObjAddr: 0x4A7C, symBinAddr: 0x56D4, symSize: 0x3C }
  - { offset: 0x12C17, size: 0x8, addend: 0x0, symName: __RNvYNtNtCs8noNfkmVAKC_18tracing_attributes6expand20IdentAndTypesRenamerNtNtNtCs6IAuOt8vWmF_3syn3gen9visit_mut8VisitMut23visit_generic_param_mutB6_, symObjAddr: 0x4AB8, symBinAddr: 0x5710, symSize: 0x3C }
  - { offset: 0x12C59, size: 0x8, addend: 0x0, symName: __RNvYNtNtCs8noNfkmVAKC_18tracing_attributes6expand20IdentAndTypesRenamerNtNtNtCs6IAuOt8vWmF_3syn3gen9visit_mut8VisitMut23visit_pat_reference_mutB6_, symObjAddr: 0x4AF4, symBinAddr: 0x574C, symSize: 0x3C }
  - { offset: 0x12C9B, size: 0x8, addend: 0x0, symName: __RNvYNtNtCs8noNfkmVAKC_18tracing_attributes6expand20IdentAndTypesRenamerNtNtNtCs6IAuOt8vWmF_3syn3gen9visit_mut8VisitMut23visit_trait_item_fn_mutB6_, symObjAddr: 0x4B30, symBinAddr: 0x5788, symSize: 0x3C }
  - { offset: 0x12CDD, size: 0x8, addend: 0x0, symName: __RNvYNtNtCs8noNfkmVAKC_18tracing_attributes6expand20IdentAndTypesRenamerNtNtNtCs6IAuOt8vWmF_3syn3gen9visit_mut8VisitMut24visit_captured_param_mutB6_, symObjAddr: 0x4B6C, symBinAddr: 0x57C4, symSize: 0x3C }
  - { offset: 0x12D1C, size: 0x8, addend: 0x0, symName: __RNvYNtNtCs8noNfkmVAKC_18tracing_attributes6expand20IdentAndTypesRenamerNtNtNtCs6IAuOt8vWmF_3syn3gen9visit_mut8VisitMut24visit_expr_reference_mutB6_, symObjAddr: 0x4BA8, symBinAddr: 0x5800, symSize: 0x3C }
  - { offset: 0x12D5E, size: 0x8, addend: 0x0, symName: __RNvYNtNtCs8noNfkmVAKC_18tracing_attributes6expand20IdentAndTypesRenamerNtNtNtCs6IAuOt8vWmF_3syn3gen9visit_mut8VisitMut24visit_expr_try_block_mutB6_, symObjAddr: 0x4BE4, symBinAddr: 0x583C, symSize: 0x3C }
  - { offset: 0x12DA0, size: 0x8, addend: 0x0, symName: __RNvYNtNtCs8noNfkmVAKC_18tracing_attributes6expand20IdentAndTypesRenamerNtNtNtCs6IAuOt8vWmF_3syn3gen9visit_mut8VisitMut24visit_fields_unnamed_mutB6_, symObjAddr: 0x4C20, symBinAddr: 0x5878, symSize: 0x3C }
  - { offset: 0x12DE2, size: 0x8, addend: 0x0, symName: __RNvYNtNtCs8noNfkmVAKC_18tracing_attributes6expand20IdentAndTypesRenamerNtNtNtCs6IAuOt8vWmF_3syn3gen9visit_mut8VisitMut24visit_impl_item_type_mutB6_, symObjAddr: 0x4C5C, symBinAddr: 0x58B4, symSize: 0x3C }
  - { offset: 0x12E24, size: 0x8, addend: 0x0, symName: __RNvYNtNtCs8noNfkmVAKC_18tracing_attributes6expand20IdentAndTypesRenamerNtNtNtCs6IAuOt8vWmF_3syn3gen9visit_mut8VisitMut24visit_lifetime_param_mutB6_, symObjAddr: 0x4C98, symBinAddr: 0x58F0, symSize: 0x3C }
  - { offset: 0x12E66, size: 0x8, addend: 0x0, symName: __RNvYNtNtCs8noNfkmVAKC_18tracing_attributes6expand20IdentAndTypesRenamerNtNtNtCs6IAuOt8vWmF_3syn3gen9visit_mut8VisitMut24visit_path_arguments_mutB6_, symObjAddr: 0x4CD4, symBinAddr: 0x592C, symSize: 0x3C }
  - { offset: 0x12EA8, size: 0x8, addend: 0x0, symName: __RNvYNtNtCs8noNfkmVAKC_18tracing_attributes6expand20IdentAndTypesRenamerNtNtNtCs6IAuOt8vWmF_3syn3gen9visit_mut8VisitMut24visit_predicate_type_mutB6_, symObjAddr: 0x4D10, symBinAddr: 0x5968, symSize: 0x3C }
  - { offset: 0x12EEA, size: 0x8, addend: 0x0, symName: __RNvYNtNtCs8noNfkmVAKC_18tracing_attributes6expand20IdentAndTypesRenamerNtNtNtCs6IAuOt8vWmF_3syn3gen9visit_mut8VisitMut24visit_vis_restricted_mutB6_, symObjAddr: 0x4D4C, symBinAddr: 0x59A4, symSize: 0x3C }
  - { offset: 0x12F2C, size: 0x8, addend: 0x0, symName: __RNvYNtNtCs8noNfkmVAKC_18tracing_attributes6expand20IdentAndTypesRenamerNtNtNtCs6IAuOt8vWmF_3syn3gen9visit_mut8VisitMut25visit_bound_lifetimes_mutB6_, symObjAddr: 0x4D88, symBinAddr: 0x59E0, symSize: 0x3C }
  - { offset: 0x12F6B, size: 0x8, addend: 0x0, symName: __RNvYNtNtCs8noNfkmVAKC_18tracing_attributes6expand20IdentAndTypesRenamerNtNtNtCs6IAuOt8vWmF_3syn3gen9visit_mut8VisitMut25visit_foreign_item_fn_mutB6_, symObjAddr: 0x4DC4, symBinAddr: 0x5A1C, symSize: 0x3C }
  - { offset: 0x12FAD, size: 0x8, addend: 0x0, symName: __RNvYNtNtCs8noNfkmVAKC_18tracing_attributes6expand20IdentAndTypesRenamerNtNtNtCs6IAuOt8vWmF_3syn3gen9visit_mut8VisitMut25visit_impl_item_const_mutB6_, symObjAddr: 0x4E00, symBinAddr: 0x5A58, symSize: 0x3C }
  - { offset: 0x12FEF, size: 0x8, addend: 0x0, symName: __RNvYNtNtCs8noNfkmVAKC_18tracing_attributes6expand20IdentAndTypesRenamerNtNtNtCs6IAuOt8vWmF_3syn3gen9visit_mut8VisitMut25visit_impl_item_macro_mutB6_, symObjAddr: 0x4E3C, symBinAddr: 0x5A94, symSize: 0x3C }
  - { offset: 0x13031, size: 0x8, addend: 0x0, symName: __RNvYNtNtCs8noNfkmVAKC_18tracing_attributes6expand20IdentAndTypesRenamerNtNtNtCs6IAuOt8vWmF_3syn3gen9visit_mut8VisitMut25visit_macro_delimiter_mutB6_, symObjAddr: 0x4E78, symBinAddr: 0x5AD0, symSize: 0x3C }
  - { offset: 0x13073, size: 0x8, addend: 0x0, symName: __RNvYNtNtCs8noNfkmVAKC_18tracing_attributes6expand20IdentAndTypesRenamerNtNtNtCs6IAuOt8vWmF_3syn3gen9visit_mut8VisitMut25visit_meta_name_value_mutB6_, symObjAddr: 0x4EB4, symBinAddr: 0x5B0C, symSize: 0x3C }
  - { offset: 0x130B5, size: 0x8, addend: 0x0, symName: __RNvYNtNtCs8noNfkmVAKC_18tracing_attributes6expand20IdentAndTypesRenamerNtNtNtCs6IAuOt8vWmF_3syn3gen9visit_mut8VisitMut25visit_precise_capture_mutB6_, symObjAddr: 0x4EF0, symBinAddr: 0x5B48, symSize: 0x3C }
  - { offset: 0x130F7, size: 0x8, addend: 0x0, symName: __RNvYNtNtCs8noNfkmVAKC_18tracing_attributes6expand20IdentAndTypesRenamerNtNtNtCs6IAuOt8vWmF_3syn3gen9visit_mut8VisitMut25visit_trait_item_type_mutB6_, symObjAddr: 0x4F2C, symBinAddr: 0x5B84, symSize: 0x3C }
  - { offset: 0x13139, size: 0x8, addend: 0x0, symName: __RNvYNtNtCs8noNfkmVAKC_18tracing_attributes6expand20IdentAndTypesRenamerNtNtNtCs6IAuOt8vWmF_3syn3gen9visit_mut8VisitMut25visit_where_predicate_mutB6_, symObjAddr: 0x4F68, symBinAddr: 0x5BC0, symSize: 0x3C }
  - { offset: 0x1317B, size: 0x8, addend: 0x0, symName: __RNvYNtNtCs8noNfkmVAKC_18tracing_attributes6expand20IdentAndTypesRenamerNtNtNtCs6IAuOt8vWmF_3syn3gen9visit_mut8VisitMut26visit_expr_method_call_mutB6_, symObjAddr: 0x4FA4, symBinAddr: 0x5BFC, symSize: 0x3C }
  - { offset: 0x131BD, size: 0x8, addend: 0x0, symName: __RNvYNtNtCs8noNfkmVAKC_18tracing_attributes6expand20IdentAndTypesRenamerNtNtNtCs6IAuOt8vWmF_3syn3gen9visit_mut8VisitMut26visit_field_mutability_mutB6_, symObjAddr: 0x4FE0, symBinAddr: 0x5C38, symSize: 0x3C }
  - { offset: 0x131FF, size: 0x8, addend: 0x0, symName: __RNvYNtNtCs8noNfkmVAKC_18tracing_attributes6expand20IdentAndTypesRenamerNtNtNtCs6IAuOt8vWmF_3syn3gen9visit_mut8VisitMut26visit_generic_argument_mutB6_, symObjAddr: 0x501C, symBinAddr: 0x5C74, symSize: 0x3C }
  - { offset: 0x13241, size: 0x8, addend: 0x0, symName: __RNvYNtNtCs8noNfkmVAKC_18tracing_attributes6expand20IdentAndTypesRenamerNtNtNtCs6IAuOt8vWmF_3syn3gen9visit_mut8VisitMut26visit_item_foreign_mod_mutB6_, symObjAddr: 0x5058, symBinAddr: 0x5CB0, symSize: 0x3C }
  - { offset: 0x13283, size: 0x8, addend: 0x0, symName: __RNvYNtNtCs8noNfkmVAKC_18tracing_attributes6expand20IdentAndTypesRenamerNtNtNtCs6IAuOt8vWmF_3syn3gen9visit_mut8VisitMut26visit_item_trait_alias_mutB6_, symObjAddr: 0x5094, symBinAddr: 0x5CEC, symSize: 0x3C }
  - { offset: 0x132C5, size: 0x8, addend: 0x0, symName: __RNvYNtNtCs8noNfkmVAKC_18tracing_attributes6expand20IdentAndTypesRenamerNtNtNtCs6IAuOt8vWmF_3syn3gen9visit_mut8VisitMut26visit_pat_tuple_struct_mutB6_, symObjAddr: 0x50D0, symBinAddr: 0x5D28, symSize: 0x3C }
  - { offset: 0x13307, size: 0x8, addend: 0x0, symName: __RNvYNtNtCs8noNfkmVAKC_18tracing_attributes6expand20IdentAndTypesRenamerNtNtNtCs6IAuOt8vWmF_3syn3gen9visit_mut8VisitMut26visit_trait_item_const_mutB6_, symObjAddr: 0x510C, symBinAddr: 0x5D64, symSize: 0x3C }
  - { offset: 0x13349, size: 0x8, addend: 0x0, symName: __RNvYNtNtCs8noNfkmVAKC_18tracing_attributes6expand20IdentAndTypesRenamerNtNtNtCs6IAuOt8vWmF_3syn3gen9visit_mut8VisitMut26visit_trait_item_macro_mutB6_, symObjAddr: 0x5148, symBinAddr: 0x5DA0, symSize: 0x3C }
  - { offset: 0x1338B, size: 0x8, addend: 0x0, symName: __RNvYNtNtCs8noNfkmVAKC_18tracing_attributes6expand20IdentAndTypesRenamerNtNtNtCs6IAuOt8vWmF_3syn3gen9visit_mut8VisitMut26visit_type_param_bound_mutB6_, symObjAddr: 0x5184, symBinAddr: 0x5DDC, symSize: 0x3C }
  - { offset: 0x133CD, size: 0x8, addend: 0x0, symName: __RNvYNtNtCs8noNfkmVAKC_18tracing_attributes6expand20IdentAndTypesRenamerNtNtNtCs6IAuOt8vWmF_3syn3gen9visit_mut8VisitMut27visit_foreign_item_type_mutB6_, symObjAddr: 0x51C0, symBinAddr: 0x5E18, symSize: 0x3C }
  - { offset: 0x1340F, size: 0x8, addend: 0x0, symName: __RNvYNtNtCs8noNfkmVAKC_18tracing_attributes6expand20IdentAndTypesRenamerNtNtNtCs6IAuOt8vWmF_3syn3gen9visit_mut8VisitMut27visit_item_extern_crate_mutB6_, symObjAddr: 0x51FC, symBinAddr: 0x5E54, symSize: 0x3C }
  - { offset: 0x13451, size: 0x8, addend: 0x0, symName: __RNvYNtNtCs8noNfkmVAKC_18tracing_attributes6expand20IdentAndTypesRenamerNtNtNtCs6IAuOt8vWmF_3syn3gen9visit_mut8VisitMut27visit_static_mutability_mutB6_, symObjAddr: 0x5238, symBinAddr: 0x5E90, symSize: 0x3C }
  - { offset: 0x13493, size: 0x8, addend: 0x0, symName: __RNvYNtNtCs8noNfkmVAKC_18tracing_attributes6expand20IdentAndTypesRenamerNtNtNtCs6IAuOt8vWmF_3syn3gen9visit_mut8VisitMut28visit_foreign_item_macro_mutB6_, symObjAddr: 0x5274, symBinAddr: 0x5ECC, symSize: 0x3C }
  - { offset: 0x134D5, size: 0x8, addend: 0x0, symName: __RNvYNtNtCs8noNfkmVAKC_18tracing_attributes6expand20IdentAndTypesRenamerNtNtNtCs6IAuOt8vWmF_3syn3gen9visit_mut8VisitMut28visit_pointer_mutability_mutB6_, symObjAddr: 0x52B0, symBinAddr: 0x5F08, symSize: 0x3C }
  - { offset: 0x13517, size: 0x8, addend: 0x0, symName: __RNvYNtNtCs8noNfkmVAKC_18tracing_attributes6expand20IdentAndTypesRenamerNtNtNtCs6IAuOt8vWmF_3syn3gen9visit_mut8VisitMut28visit_predicate_lifetime_mutB6_, symObjAddr: 0x52EC, symBinAddr: 0x5F44, symSize: 0x3C }
  - { offset: 0x13559, size: 0x8, addend: 0x0, symName: __RNvYNtNtCs8noNfkmVAKC_18tracing_attributes6expand20IdentAndTypesRenamerNtNtNtCs6IAuOt8vWmF_3syn3gen9visit_mut8VisitMut29visit_foreign_item_static_mutB6_, symObjAddr: 0x5328, symBinAddr: 0x5F80, symSize: 0x3C }
  - { offset: 0x1359B, size: 0x8, addend: 0x0, symName: __RNvYNtNtCs8noNfkmVAKC_18tracing_attributes6expand20IdentAndTypesRenamerNtNtNtCs6IAuOt8vWmF_3syn3gen9visit_mut8VisitMut30visit_trait_bound_modifier_mutB6_, symObjAddr: 0x5364, symBinAddr: 0x5FBC, symSize: 0x3C }
  - { offset: 0x135DD, size: 0x8, addend: 0x0, symName: __RNvYNtNtCs8noNfkmVAKC_18tracing_attributes6expand20IdentAndTypesRenamerNtNtNtCs6IAuOt8vWmF_3syn3gen9visit_mut8VisitMut41visit_parenthesized_generic_arguments_mutB6_, symObjAddr: 0x53A0, symBinAddr: 0x5FF8, symSize: 0x3C }
  - { offset: 0x1361F, size: 0x8, addend: 0x0, symName: __RNvYNtNtCs8noNfkmVAKC_18tracing_attributes6expand20IdentAndTypesRenamerNtNtNtCs6IAuOt8vWmF_3syn3gen9visit_mut8VisitMut43visit_angle_bracketed_generic_arguments_mutB6_, symObjAddr: 0x53DC, symBinAddr: 0x6034, symSize: 0x3C }
  - { offset: 0x13CB0, size: 0x8, addend: 0x0, symName: __RNvMNtCs8noNfkmVAKC_18tracing_attributes6expandNtB2_10RecordType13parse_from_ty, symObjAddr: 0x14204, symBinAddr: 0x14E5C, symSize: 0x1A4 }
  - { offset: 0x13D72, size: 0x8, addend: 0x0, symName: __RNvMs_NtCs8noNfkmVAKC_18tracing_attributes6expandNtB4_9AsyncInfo7from_fn, symObjAddr: 0x15318, symBinAddr: 0x15F70, symSize: 0xC60 }
  - { offset: 0x14353, size: 0x8, addend: 0x0, symName: __RNvMs_NtCs8noNfkmVAKC_18tracing_attributes6expandNtB4_9AsyncInfo9gen_async, symObjAddr: 0x16150, symBinAddr: 0x16DA8, symSize: 0xB20 }
  - { offset: 0x157A8, size: 0x8, addend: 0x0, symName: __RINvNtNtCs6IAuOt8vWmF_3syn3gen9visit_mut13visit_abi_mutNtNtCs8noNfkmVAKC_18tracing_attributes6expand15ImplTraitEraserEBV_, symObjAddr: 0x0, symBinAddr: 0x18108, symSize: 0x84 }
  - { offset: 0x160FF, size: 0x8, addend: 0x0, symName: __RINvNtNtCs6IAuOt8vWmF_3syn3gen9visit_mut13visit_abi_mutNtNtCs8noNfkmVAKC_18tracing_attributes6expand15ImplTraitEraserEBV_, symObjAddr: 0x0, symBinAddr: 0x18108, symSize: 0x84 }
  - { offset: 0x1615F, size: 0x8, addend: 0x0, symName: __RINvNtNtCs6IAuOt8vWmF_3syn3gen9visit_mut13visit_abi_mutNtNtCs8noNfkmVAKC_18tracing_attributes6expand20IdentAndTypesRenamerEBV_, symObjAddr: 0x84, symBinAddr: 0x1818C, symSize: 0x84 }
  - { offset: 0x161BF, size: 0x8, addend: 0x0, symName: __RINvNtNtCs6IAuOt8vWmF_3syn3gen9visit_mut13visit_arm_mutNtNtCs8noNfkmVAKC_18tracing_attributes6expand15ImplTraitEraserEBV_, symObjAddr: 0x108, symBinAddr: 0x18210, symSize: 0xFC }
  - { offset: 0x16217, size: 0x8, addend: 0x0, symName: __RINvNtNtCs6IAuOt8vWmF_3syn3gen9visit_mut13visit_arm_mutNtNtCs8noNfkmVAKC_18tracing_attributes6expand20IdentAndTypesRenamerEBV_, symObjAddr: 0x204, symBinAddr: 0x1830C, symSize: 0xFC }
  - { offset: 0x1626F, size: 0x8, addend: 0x0, symName: __RINvNtNtCs6IAuOt8vWmF_3syn3gen9visit_mut13visit_lit_mutNtNtCs8noNfkmVAKC_18tracing_attributes6expand15ImplTraitEraserEBV_, symObjAddr: 0x300, symBinAddr: 0x18408, symSize: 0x264 }
  - { offset: 0x163A1, size: 0x8, addend: 0x0, symName: __RINvNtNtCs6IAuOt8vWmF_3syn3gen9visit_mut13visit_lit_mutNtNtCs8noNfkmVAKC_18tracing_attributes6expand20IdentAndTypesRenamerEBV_, symObjAddr: 0x564, symBinAddr: 0x1866C, symSize: 0x264 }
  - { offset: 0x164D3, size: 0x8, addend: 0x0, symName: __RINvNtNtCs6IAuOt8vWmF_3syn3gen9visit_mut13visit_pat_mutNtNtCs8noNfkmVAKC_18tracing_attributes6expand15ImplTraitEraserEBV_, symObjAddr: 0x7C8, symBinAddr: 0x188D0, symSize: 0x390 }
  - { offset: 0x16711, size: 0x8, addend: 0x0, symName: __RINvNtNtCs6IAuOt8vWmF_3syn3gen9visit_mut13visit_pat_mutNtNtCs8noNfkmVAKC_18tracing_attributes6expand20IdentAndTypesRenamerEBV_, symObjAddr: 0xB58, symBinAddr: 0x18C60, symSize: 0x390 }
  - { offset: 0x1694F, size: 0x8, addend: 0x0, symName: __RINvNtNtCs6IAuOt8vWmF_3syn3gen9visit_mut14visit_expr_mutNtNtCs8noNfkmVAKC_18tracing_attributes6expand15ImplTraitEraserEBW_, symObjAddr: 0xEE8, symBinAddr: 0x18FF0, symSize: 0x7D8 }
  - { offset: 0x16E59, size: 0x8, addend: 0x0, symName: __RINvNtNtCs6IAuOt8vWmF_3syn3gen9visit_mut14visit_expr_mutNtNtCs8noNfkmVAKC_18tracing_attributes6expand20IdentAndTypesRenamerEBW_, symObjAddr: 0x16C0, symBinAddr: 0x197C8, symSize: 0x7D8 }
  - { offset: 0x17363, size: 0x8, addend: 0x0, symName: __RINvNtNtCs6IAuOt8vWmF_3syn3gen9visit_mut14visit_item_mutNtNtCs8noNfkmVAKC_18tracing_attributes6expand15ImplTraitEraserEBW_, symObjAddr: 0x1E98, symBinAddr: 0x19FA0, symSize: 0x35C }
  - { offset: 0x17583, size: 0x8, addend: 0x0, symName: __RINvNtNtCs6IAuOt8vWmF_3syn3gen9visit_mut14visit_item_mutNtNtCs8noNfkmVAKC_18tracing_attributes6expand20IdentAndTypesRenamerEBW_, symObjAddr: 0x21F4, symBinAddr: 0x1A2FC, symSize: 0x35C }
  - { offset: 0x177A3, size: 0x8, addend: 0x0, symName: __RINvNtNtCs6IAuOt8vWmF_3syn3gen9visit_mut14visit_meta_mutNtNtCs8noNfkmVAKC_18tracing_attributes6expand15ImplTraitEraserEBW_, symObjAddr: 0x2550, symBinAddr: 0x1A658, symSize: 0xE8 }
  - { offset: 0x17837, size: 0x8, addend: 0x0, symName: __RINvNtNtCs6IAuOt8vWmF_3syn3gen9visit_mut14visit_meta_mutNtNtCs8noNfkmVAKC_18tracing_attributes6expand20IdentAndTypesRenamerEBW_, symObjAddr: 0x2638, symBinAddr: 0x1A740, symSize: 0xE8 }
  - { offset: 0x178CB, size: 0x8, addend: 0x0, symName: __RINvNtNtCs6IAuOt8vWmF_3syn3gen9visit_mut14visit_path_mutNtNtCs8noNfkmVAKC_18tracing_attributes6expand15ImplTraitEraserEBW_, symObjAddr: 0x2720, symBinAddr: 0x1A828, symSize: 0xC8 }
  - { offset: 0x17960, size: 0x8, addend: 0x0, symName: __RINvNtNtCs6IAuOt8vWmF_3syn3gen9visit_mut14visit_path_mutNtNtCs8noNfkmVAKC_18tracing_attributes6expand20IdentAndTypesRenamerEBW_, symObjAddr: 0x27E8, symBinAddr: 0x1A8F0, symSize: 0xC8 }
  - { offset: 0x179F5, size: 0x8, addend: 0x0, symName: __RINvNtNtCs6IAuOt8vWmF_3syn3gen9visit_mut14visit_stmt_mutNtNtCs8noNfkmVAKC_18tracing_attributes6expand15ImplTraitEraserEBW_, symObjAddr: 0x28B0, symBinAddr: 0x1A9B8, symSize: 0x12C }
  - { offset: 0x17AB7, size: 0x8, addend: 0x0, symName: __RINvNtNtCs6IAuOt8vWmF_3syn3gen9visit_mut14visit_stmt_mutNtNtCs8noNfkmVAKC_18tracing_attributes6expand20IdentAndTypesRenamerEBW_, symObjAddr: 0x29DC, symBinAddr: 0x1AAE4, symSize: 0x12C }
  - { offset: 0x17B79, size: 0x8, addend: 0x0, symName: __RINvNtNtCs6IAuOt8vWmF_3syn3gen9visit_mut14visit_type_mutNtNtCs8noNfkmVAKC_18tracing_attributes6expand15ImplTraitEraserEBW_, symObjAddr: 0x2B08, symBinAddr: 0x1AC10, symSize: 0x328 }
  - { offset: 0x17D79, size: 0x8, addend: 0x0, symName: __RINvNtNtCs6IAuOt8vWmF_3syn3gen9visit_mut15visit_block_mutNtNtCs8noNfkmVAKC_18tracing_attributes6expand15ImplTraitEraserEBX_, symObjAddr: 0x2E30, symBinAddr: 0x1AF38, symSize: 0x98 }
  - { offset: 0x17DEF, size: 0x8, addend: 0x0, symName: __RINvNtNtCs6IAuOt8vWmF_3syn3gen9visit_mut15visit_block_mutNtNtCs8noNfkmVAKC_18tracing_attributes6expand20IdentAndTypesRenamerEBX_, symObjAddr: 0x2EC8, symBinAddr: 0x1AFD0, symSize: 0x98 }
  - { offset: 0x17E65, size: 0x8, addend: 0x0, symName: __RINvNtNtCs6IAuOt8vWmF_3syn3gen9visit_mut15visit_field_mutNtNtCs8noNfkmVAKC_18tracing_attributes6expand15ImplTraitEraserEBX_, symObjAddr: 0x2F60, symBinAddr: 0x1B068, symSize: 0xC4 }
  - { offset: 0x17EC5, size: 0x8, addend: 0x0, symName: __RINvNtNtCs6IAuOt8vWmF_3syn3gen9visit_mut15visit_field_mutNtNtCs8noNfkmVAKC_18tracing_attributes6expand20IdentAndTypesRenamerEBX_, symObjAddr: 0x3024, symBinAddr: 0x1B12C, symSize: 0xC4 }
  - { offset: 0x17F25, size: 0x8, addend: 0x0, symName: __RINvNtNtCs6IAuOt8vWmF_3syn3gen9visit_mut15visit_ident_mutNtNtCs8noNfkmVAKC_18tracing_attributes6expand15ImplTraitEraserEBX_, symObjAddr: 0x30E8, symBinAddr: 0x1B1F0, symSize: 0x68 }
  - { offset: 0x17F85, size: 0x8, addend: 0x0, symName: __RINvNtNtCs6IAuOt8vWmF_3syn3gen9visit_mut15visit_index_mutNtNtCs8noNfkmVAKC_18tracing_attributes6expand15ImplTraitEraserEBX_, symObjAddr: 0x3150, symBinAddr: 0x1B258, symSize: 0x3C }
  - { offset: 0x17FC7, size: 0x8, addend: 0x0, symName: __RINvNtNtCs6IAuOt8vWmF_3syn3gen9visit_mut15visit_index_mutNtNtCs8noNfkmVAKC_18tracing_attributes6expand20IdentAndTypesRenamerEBX_, symObjAddr: 0x318C, symBinAddr: 0x1B294, symSize: 0x3C }
  - { offset: 0x18009, size: 0x8, addend: 0x0, symName: __RINvNtNtCs6IAuOt8vWmF_3syn3gen9visit_mut15visit_label_mutNtNtCs8noNfkmVAKC_18tracing_attributes6expand15ImplTraitEraserEBX_, symObjAddr: 0x31C8, symBinAddr: 0x1B2D0, symSize: 0x3C }
  - { offset: 0x1804B, size: 0x8, addend: 0x0, symName: __RINvNtNtCs6IAuOt8vWmF_3syn3gen9visit_mut15visit_label_mutNtNtCs8noNfkmVAKC_18tracing_attributes6expand20IdentAndTypesRenamerEBX_, symObjAddr: 0x3204, symBinAddr: 0x1B30C, symSize: 0x3C }
  - { offset: 0x1808D, size: 0x8, addend: 0x0, symName: __RINvNtNtCs6IAuOt8vWmF_3syn3gen9visit_mut15visit_local_mutNtNtCs8noNfkmVAKC_18tracing_attributes6expand15ImplTraitEraserEBX_, symObjAddr: 0x3240, symBinAddr: 0x1B348, symSize: 0xA4 }
  - { offset: 0x180ED, size: 0x8, addend: 0x0, symName: __RINvNtNtCs6IAuOt8vWmF_3syn3gen9visit_mut15visit_local_mutNtNtCs8noNfkmVAKC_18tracing_attributes6expand20IdentAndTypesRenamerEBX_, symObjAddr: 0x32E4, symBinAddr: 0x1B3EC, symSize: 0xA4 }
  - { offset: 0x1814D, size: 0x8, addend: 0x0, symName: __RINvNtNtCs6IAuOt8vWmF_3syn3gen9visit_mut15visit_macro_mutNtNtCs8noNfkmVAKC_18tracing_attributes6expand15ImplTraitEraserEBX_, symObjAddr: 0x3388, symBinAddr: 0x1B490, symSize: 0x60 }
  - { offset: 0x1818F, size: 0x8, addend: 0x0, symName: __RINvNtNtCs6IAuOt8vWmF_3syn3gen9visit_mut15visit_macro_mutNtNtCs8noNfkmVAKC_18tracing_attributes6expand20IdentAndTypesRenamerEBX_, symObjAddr: 0x33E8, symBinAddr: 0x1B4F0, symSize: 0x60 }
  - { offset: 0x181D1, size: 0x8, addend: 0x0, symName: __RINvNtNtCs6IAuOt8vWmF_3syn3gen9visit_mut15visit_qself_mutNtNtCs8noNfkmVAKC_18tracing_attributes6expand15ImplTraitEraserEBX_, symObjAddr: 0x3448, symBinAddr: 0x1B550, symSize: 0x68 }
  - { offset: 0x18213, size: 0x8, addend: 0x0, symName: __RINvNtNtCs6IAuOt8vWmF_3syn3gen9visit_mut15visit_qself_mutNtNtCs8noNfkmVAKC_18tracing_attributes6expand20IdentAndTypesRenamerEBX_, symObjAddr: 0x34B0, symBinAddr: 0x1B5B8, symSize: 0x68 }
  - { offset: 0x18255, size: 0x8, addend: 0x0, symName: __RINvNtNtCs6IAuOt8vWmF_3syn3gen9visit_mut15visit_un_op_mutNtNtCs8noNfkmVAKC_18tracing_attributes6expand15ImplTraitEraserEBX_, symObjAddr: 0x3518, symBinAddr: 0x1B620, symSize: 0xA8 }
  - { offset: 0x18297, size: 0x8, addend: 0x0, symName: __RINvNtNtCs6IAuOt8vWmF_3syn3gen9visit_mut15visit_un_op_mutNtNtCs8noNfkmVAKC_18tracing_attributes6expand20IdentAndTypesRenamerEBX_, symObjAddr: 0x35C0, symBinAddr: 0x1B6C8, symSize: 0xA8 }
  - { offset: 0x182D9, size: 0x8, addend: 0x0, symName: __RINvNtNtCs6IAuOt8vWmF_3syn3gen9visit_mut16visit_bin_op_mutNtNtCs8noNfkmVAKC_18tracing_attributes6expand15ImplTraitEraserEBY_, symObjAddr: 0x3668, symBinAddr: 0x1B770, symSize: 0x438 }
  - { offset: 0x1831B, size: 0x8, addend: 0x0, symName: __RINvNtNtCs6IAuOt8vWmF_3syn3gen9visit_mut16visit_bin_op_mutNtNtCs8noNfkmVAKC_18tracing_attributes6expand20IdentAndTypesRenamerEBY_, symObjAddr: 0x3AA0, symBinAddr: 0x1BBA8, symSize: 0x438 }
  - { offset: 0x1835D, size: 0x8, addend: 0x0, symName: __RINvNtNtCs6IAuOt8vWmF_3syn3gen9visit_mut16visit_fields_mutNtNtCs8noNfkmVAKC_18tracing_attributes6expand15ImplTraitEraserEBY_, symObjAddr: 0x3ED8, symBinAddr: 0x1BFE0, symSize: 0xC4 }
  - { offset: 0x183DB, size: 0x8, addend: 0x0, symName: __RINvNtNtCs6IAuOt8vWmF_3syn3gen9visit_mut16visit_fields_mutNtNtCs8noNfkmVAKC_18tracing_attributes6expand20IdentAndTypesRenamerEBY_, symObjAddr: 0x3F9C, symBinAddr: 0x1C0A4, symSize: 0xC4 }
  - { offset: 0x18459, size: 0x8, addend: 0x0, symName: __RINvNtNtCs6IAuOt8vWmF_3syn3gen9visit_mut16visit_fn_arg_mutNtNtCs8noNfkmVAKC_18tracing_attributes6expand15ImplTraitEraserEBY_, symObjAddr: 0x4060, symBinAddr: 0x1C168, symSize: 0xA0 }
  - { offset: 0x184CF, size: 0x8, addend: 0x0, symName: __RINvNtNtCs6IAuOt8vWmF_3syn3gen9visit_mut16visit_fn_arg_mutNtNtCs8noNfkmVAKC_18tracing_attributes6expand20IdentAndTypesRenamerEBY_, symObjAddr: 0x4100, symBinAddr: 0x1C208, symSize: 0xA0 }
  - { offset: 0x18545, size: 0x8, addend: 0x0, symName: __RINvNtNtCs6IAuOt8vWmF_3syn3gen9visit_mut16visit_member_mutNtNtCs8noNfkmVAKC_18tracing_attributes6expand15ImplTraitEraserEBY_, symObjAddr: 0x41A0, symBinAddr: 0x1C2A8, symSize: 0x98 }
  - { offset: 0x185BB, size: 0x8, addend: 0x0, symName: __RINvNtNtCs6IAuOt8vWmF_3syn3gen9visit_mut16visit_member_mutNtNtCs8noNfkmVAKC_18tracing_attributes6expand20IdentAndTypesRenamerEBY_, symObjAddr: 0x4238, symBinAddr: 0x1C340, symSize: 0x98 }
  - { offset: 0x18631, size: 0x8, addend: 0x0, symName: __RINvNtNtCs6IAuOt8vWmF_3syn3gen9visit_mut16visit_pat_or_mutNtNtCs8noNfkmVAKC_18tracing_attributes6expand15ImplTraitEraserEBY_, symObjAddr: 0x42D0, symBinAddr: 0x1C3D8, symSize: 0xD0 }
  - { offset: 0x186C6, size: 0x8, addend: 0x0, symName: __RINvNtNtCs6IAuOt8vWmF_3syn3gen9visit_mut16visit_pat_or_mutNtNtCs8noNfkmVAKC_18tracing_attributes6expand20IdentAndTypesRenamerEBY_, symObjAddr: 0x43A0, symBinAddr: 0x1C4A8, symSize: 0xD0 }
  - { offset: 0x1875B, size: 0x8, addend: 0x0, symName: __RINvNtNtCs6IAuOt8vWmF_3syn3gen9visit_mut17visit_expr_if_mutNtNtCs8noNfkmVAKC_18tracing_attributes6expand15ImplTraitEraserEBZ_, symObjAddr: 0x4470, symBinAddr: 0x1C578, symSize: 0x104 }
  - { offset: 0x187B3, size: 0x8, addend: 0x0, symName: __RINvNtNtCs6IAuOt8vWmF_3syn3gen9visit_mut17visit_expr_if_mutNtNtCs8noNfkmVAKC_18tracing_attributes6expand20IdentAndTypesRenamerEBZ_, symObjAddr: 0x4574, symBinAddr: 0x1C67C, symSize: 0x104 }
  - { offset: 0x1880B, size: 0x8, addend: 0x0, symName: __RINvNtNtCs6IAuOt8vWmF_3syn3gen9visit_mut17visit_item_fn_mutNtNtCs8noNfkmVAKC_18tracing_attributes6expand15ImplTraitEraserEBZ_, symObjAddr: 0x4678, symBinAddr: 0x1C780, symSize: 0x98 }
  - { offset: 0x1884D, size: 0x8, addend: 0x0, symName: __RINvNtNtCs6IAuOt8vWmF_3syn3gen9visit_mut17visit_item_fn_mutNtNtCs8noNfkmVAKC_18tracing_attributes6expand20IdentAndTypesRenamerEBZ_, symObjAddr: 0x4710, symBinAddr: 0x1C818, symSize: 0x98 }
  - { offset: 0x1888F, size: 0x8, addend: 0x0, symName: __RINvNtNtCs6IAuOt8vWmF_3syn3gen9visit_mut17visit_lit_int_mutNtNtCs8noNfkmVAKC_18tracing_attributes6expand15ImplTraitEraserEBZ_, symObjAddr: 0x47A8, symBinAddr: 0x1C8B0, symSize: 0x24 }
  - { offset: 0x188D1, size: 0x8, addend: 0x0, symName: __RINvNtNtCs6IAuOt8vWmF_3syn3gen9visit_mut17visit_lit_int_mutNtNtCs8noNfkmVAKC_18tracing_attributes6expand20IdentAndTypesRenamerEBZ_, symObjAddr: 0x47CC, symBinAddr: 0x1C8D4, symSize: 0x24 }
  - { offset: 0x18913, size: 0x8, addend: 0x0, symName: __RINvNtNtCs6IAuOt8vWmF_3syn3gen9visit_mut17visit_lit_str_mutNtNtCs8noNfkmVAKC_18tracing_attributes6expand15ImplTraitEraserEBZ_, symObjAddr: 0x47F0, symBinAddr: 0x1C8F8, symSize: 0x24 }
  - { offset: 0x18955, size: 0x8, addend: 0x0, symName: __RINvNtNtCs6IAuOt8vWmF_3syn3gen9visit_mut17visit_lit_str_mutNtNtCs8noNfkmVAKC_18tracing_attributes6expand20IdentAndTypesRenamerEBZ_, symObjAddr: 0x4814, symBinAddr: 0x1C91C, symSize: 0x24 }
  - { offset: 0x18997, size: 0x8, addend: 0x0, symName: __RINvNtNtCs6IAuOt8vWmF_3syn3gen9visit_mut17visit_variant_mutNtNtCs8noNfkmVAKC_18tracing_attributes6expand15ImplTraitEraserEBZ_, symObjAddr: 0x4838, symBinAddr: 0x1C940, symSize: 0xB4 }
  - { offset: 0x189F7, size: 0x8, addend: 0x0, symName: __RINvNtNtCs6IAuOt8vWmF_3syn3gen9visit_mut17visit_variant_mutNtNtCs8noNfkmVAKC_18tracing_attributes6expand20IdentAndTypesRenamerEBZ_, symObjAddr: 0x48EC, symBinAddr: 0x1C9F4, symSize: 0xB4 }
  - { offset: 0x18A57, size: 0x8, addend: 0x0, symName: __RINvNtNtCs6IAuOt8vWmF_3syn3gen9visit_mut18visit_expr_let_mutNtNtCs8noNfkmVAKC_18tracing_attributes6expand15ImplTraitEraserEB10_, symObjAddr: 0x49A0, symBinAddr: 0x1CAA8, symSize: 0xAC }
  - { offset: 0x18A99, size: 0x8, addend: 0x0, symName: __RINvNtNtCs6IAuOt8vWmF_3syn3gen9visit_mut18visit_expr_let_mutNtNtCs8noNfkmVAKC_18tracing_attributes6expand20IdentAndTypesRenamerEB10_, symObjAddr: 0x4A4C, symBinAddr: 0x1CB54, symSize: 0xAC }
  - { offset: 0x18ADB, size: 0x8, addend: 0x0, symName: __RINvNtNtCs6IAuOt8vWmF_3syn3gen9visit_mut18visit_expr_lit_mutNtNtCs8noNfkmVAKC_18tracing_attributes6expand15ImplTraitEraserEB10_, symObjAddr: 0x4AF8, symBinAddr: 0x1CC00, symSize: 0x50 }
  - { offset: 0x18B1D, size: 0x8, addend: 0x0, symName: __RINvNtNtCs6IAuOt8vWmF_3syn3gen9visit_mut18visit_expr_lit_mutNtNtCs8noNfkmVAKC_18tracing_attributes6expand20IdentAndTypesRenamerEB10_, symObjAddr: 0x4B48, symBinAddr: 0x1CC50, symSize: 0x50 }
  - { offset: 0x18B5F, size: 0x8, addend: 0x0, symName: __RINvNtNtCs6IAuOt8vWmF_3syn3gen9visit_mut18visit_expr_try_mutNtNtCs8noNfkmVAKC_18tracing_attributes6expand15ImplTraitEraserEB10_, symObjAddr: 0x4B98, symBinAddr: 0x1CCA0, symSize: 0x78 }
  - { offset: 0x18BA1, size: 0x8, addend: 0x0, symName: __RINvNtNtCs6IAuOt8vWmF_3syn3gen9visit_mut18visit_expr_try_mutNtNtCs8noNfkmVAKC_18tracing_attributes6expand20IdentAndTypesRenamerEB10_, symObjAddr: 0x4C10, symBinAddr: 0x1CD18, symSize: 0x78 }
  - { offset: 0x18BE3, size: 0x8, addend: 0x0, symName: __RINvNtNtCs6IAuOt8vWmF_3syn3gen9visit_mut18visit_generics_mutNtNtCs8noNfkmVAKC_18tracing_attributes6expand15ImplTraitEraserEB10_, symObjAddr: 0x4C88, symBinAddr: 0x1CD90, symSize: 0x124 }
  - { offset: 0x18C8E, size: 0x8, addend: 0x0, symName: __RINvNtNtCs6IAuOt8vWmF_3syn3gen9visit_mut18visit_generics_mutNtNtCs8noNfkmVAKC_18tracing_attributes6expand20IdentAndTypesRenamerEB10_, symObjAddr: 0x4DAC, symBinAddr: 0x1CEB4, symSize: 0x124 }
  - { offset: 0x18D39, size: 0x8, addend: 0x0, symName: __RINvNtNtCs6IAuOt8vWmF_3syn3gen9visit_mut18visit_item_mod_mutNtNtCs8noNfkmVAKC_18tracing_attributes6expand15ImplTraitEraserEB10_, symObjAddr: 0x4ED0, symBinAddr: 0x1CFD8, symSize: 0x108 }
  - { offset: 0x18DC5, size: 0x8, addend: 0x0, symName: __RINvNtNtCs6IAuOt8vWmF_3syn3gen9visit_mut18visit_item_mod_mutNtNtCs8noNfkmVAKC_18tracing_attributes6expand20IdentAndTypesRenamerEB10_, symObjAddr: 0x4FD8, symBinAddr: 0x1D0E0, symSize: 0x108 }
  - { offset: 0x18E51, size: 0x8, addend: 0x0, symName: __RINvNtNtCs6IAuOt8vWmF_3syn3gen9visit_mut18visit_item_use_mutNtNtCs8noNfkmVAKC_18tracing_attributes6expand15ImplTraitEraserEB10_, symObjAddr: 0x50E0, symBinAddr: 0x1D1E8, symSize: 0x60 }
  - { offset: 0x18E93, size: 0x8, addend: 0x0, symName: __RINvNtNtCs6IAuOt8vWmF_3syn3gen9visit_mut18visit_item_use_mutNtNtCs8noNfkmVAKC_18tracing_attributes6expand20IdentAndTypesRenamerEB10_, symObjAddr: 0x5140, symBinAddr: 0x1D248, symSize: 0x60 }
  - { offset: 0x18ED5, size: 0x8, addend: 0x0, symName: __RINvNtNtCs6IAuOt8vWmF_3syn3gen9visit_mut18visit_lifetime_mutNtNtCs8noNfkmVAKC_18tracing_attributes6expand15ImplTraitEraserEB10_, symObjAddr: 0x51A0, symBinAddr: 0x1D2A8, symSize: 0x50 }
  - { offset: 0x18F17, size: 0x8, addend: 0x0, symName: __RINvNtNtCs6IAuOt8vWmF_3syn3gen9visit_mut18visit_lifetime_mutNtNtCs8noNfkmVAKC_18tracing_attributes6expand20IdentAndTypesRenamerEB10_, symObjAddr: 0x51F0, symBinAddr: 0x1D2F8, symSize: 0x50 }
  - { offset: 0x18F59, size: 0x8, addend: 0x0, symName: __RINvNtNtCs6IAuOt8vWmF_3syn3gen9visit_mut18visit_lit_bool_mutNtNtCs8noNfkmVAKC_18tracing_attributes6expand15ImplTraitEraserEB10_, symObjAddr: 0x5240, symBinAddr: 0x1D348, symSize: 0x3C }
  - { offset: 0x18F9B, size: 0x8, addend: 0x0, symName: __RINvNtNtCs6IAuOt8vWmF_3syn3gen9visit_mut18visit_lit_bool_mutNtNtCs8noNfkmVAKC_18tracing_attributes6expand20IdentAndTypesRenamerEB10_, symObjAddr: 0x527C, symBinAddr: 0x1D384, symSize: 0x3C }
  - { offset: 0x18FDD, size: 0x8, addend: 0x0, symName: __RINvNtNtCs6IAuOt8vWmF_3syn3gen9visit_mut18visit_lit_byte_mutNtNtCs8noNfkmVAKC_18tracing_attributes6expand15ImplTraitEraserEB10_, symObjAddr: 0x52B8, symBinAddr: 0x1D3C0, symSize: 0x24 }
  - { offset: 0x1901F, size: 0x8, addend: 0x0, symName: __RINvNtNtCs6IAuOt8vWmF_3syn3gen9visit_mut18visit_lit_byte_mutNtNtCs8noNfkmVAKC_18tracing_attributes6expand20IdentAndTypesRenamerEB10_, symObjAddr: 0x52DC, symBinAddr: 0x1D3E4, symSize: 0x24 }
  - { offset: 0x19061, size: 0x8, addend: 0x0, symName: __RINvNtNtCs6IAuOt8vWmF_3syn3gen9visit_mut18visit_lit_char_mutNtNtCs8noNfkmVAKC_18tracing_attributes6expand15ImplTraitEraserEB10_, symObjAddr: 0x5300, symBinAddr: 0x1D408, symSize: 0x24 }
  - { offset: 0x190A3, size: 0x8, addend: 0x0, symName: __RINvNtNtCs6IAuOt8vWmF_3syn3gen9visit_mut18visit_lit_char_mutNtNtCs8noNfkmVAKC_18tracing_attributes6expand20IdentAndTypesRenamerEB10_, symObjAddr: 0x5324, symBinAddr: 0x1D42C, symSize: 0x24 }
  - { offset: 0x190E5, size: 0x8, addend: 0x0, symName: __RINvNtNtCs6IAuOt8vWmF_3syn3gen9visit_mut18visit_lit_cstr_mutNtNtCs8noNfkmVAKC_18tracing_attributes6expand15ImplTraitEraserEB10_, symObjAddr: 0x5348, symBinAddr: 0x1D450, symSize: 0x24 }
  - { offset: 0x19127, size: 0x8, addend: 0x0, symName: __RINvNtNtCs6IAuOt8vWmF_3syn3gen9visit_mut18visit_lit_cstr_mutNtNtCs8noNfkmVAKC_18tracing_attributes6expand20IdentAndTypesRenamerEB10_, symObjAddr: 0x536C, symBinAddr: 0x1D474, symSize: 0x24 }
  - { offset: 0x19169, size: 0x8, addend: 0x0, symName: __RINvNtNtCs6IAuOt8vWmF_3syn3gen9visit_mut18visit_pat_rest_mutNtNtCs8noNfkmVAKC_18tracing_attributes6expand15ImplTraitEraserEB10_, symObjAddr: 0x5390, symBinAddr: 0x1D498, symSize: 0x3C }
  - { offset: 0x191AB, size: 0x8, addend: 0x0, symName: __RINvNtNtCs6IAuOt8vWmF_3syn3gen9visit_mut18visit_pat_rest_mutNtNtCs8noNfkmVAKC_18tracing_attributes6expand20IdentAndTypesRenamerEB10_, symObjAddr: 0x53CC, symBinAddr: 0x1D4D4, symSize: 0x3C }
  - { offset: 0x191ED, size: 0x8, addend: 0x0, symName: __RINvNtNtCs6IAuOt8vWmF_3syn3gen9visit_mut18visit_pat_type_mutNtNtCs8noNfkmVAKC_18tracing_attributes6expand15ImplTraitEraserEB10_, symObjAddr: 0x5408, symBinAddr: 0x1D510, symSize: 0xAC }
  - { offset: 0x1922F, size: 0x8, addend: 0x0, symName: __RINvNtNtCs6IAuOt8vWmF_3syn3gen9visit_mut18visit_pat_type_mutNtNtCs8noNfkmVAKC_18tracing_attributes6expand20IdentAndTypesRenamerEB10_, symObjAddr: 0x54B4, symBinAddr: 0x1D5BC, symSize: 0xAC }
  - { offset: 0x19271, size: 0x8, addend: 0x0, symName: __RINvNtNtCs6IAuOt8vWmF_3syn3gen9visit_mut18visit_pat_wild_mutNtNtCs8noNfkmVAKC_18tracing_attributes6expand15ImplTraitEraserEB10_, symObjAddr: 0x5560, symBinAddr: 0x1D668, symSize: 0x3C }
  - { offset: 0x192B3, size: 0x8, addend: 0x0, symName: __RINvNtNtCs6IAuOt8vWmF_3syn3gen9visit_mut18visit_pat_wild_mutNtNtCs8noNfkmVAKC_18tracing_attributes6expand20IdentAndTypesRenamerEB10_, symObjAddr: 0x559C, symBinAddr: 0x1D6A4, symSize: 0x3C }
  - { offset: 0x192F5, size: 0x8, addend: 0x0, symName: __RINvNtNtCs6IAuOt8vWmF_3syn3gen9visit_mut18visit_receiver_mutNtNtCs8noNfkmVAKC_18tracing_attributes6expand15ImplTraitEraserEB10_, symObjAddr: 0x55D8, symBinAddr: 0x1D6E0, symSize: 0x10C }
  - { offset: 0x19363, size: 0x8, addend: 0x0, symName: __RINvNtNtCs6IAuOt8vWmF_3syn3gen9visit_mut18visit_receiver_mutNtNtCs8noNfkmVAKC_18tracing_attributes6expand20IdentAndTypesRenamerEB10_, symObjAddr: 0x56E4, symBinAddr: 0x1D7EC, symSize: 0x10C }
  - { offset: 0x193D1, size: 0x8, addend: 0x0, symName: __RINvNtNtCs6IAuOt8vWmF_3syn3gen9visit_mut18visit_type_ptr_mutNtNtCs8noNfkmVAKC_18tracing_attributes6expand15ImplTraitEraserEB10_, symObjAddr: 0x57F0, symBinAddr: 0x1D8F8, symSize: 0x68 }
  - { offset: 0x19413, size: 0x8, addend: 0x0, symName: __RINvNtNtCs6IAuOt8vWmF_3syn3gen9visit_mut18visit_use_glob_mutNtNtCs8noNfkmVAKC_18tracing_attributes6expand15ImplTraitEraserEB10_, symObjAddr: 0x5858, symBinAddr: 0x1D960, symSize: 0x24 }
  - { offset: 0x19455, size: 0x8, addend: 0x0, symName: __RINvNtNtCs6IAuOt8vWmF_3syn3gen9visit_mut18visit_use_glob_mutNtNtCs8noNfkmVAKC_18tracing_attributes6expand20IdentAndTypesRenamerEB10_, symObjAddr: 0x587C, symBinAddr: 0x1D984, symSize: 0x24 }
  - { offset: 0x19497, size: 0x8, addend: 0x0, symName: __RINvNtNtCs6IAuOt8vWmF_3syn3gen9visit_mut18visit_use_name_mutNtNtCs8noNfkmVAKC_18tracing_attributes6expand15ImplTraitEraserEB10_, symObjAddr: 0x58A0, symBinAddr: 0x1D9A8, symSize: 0x3C }
  - { offset: 0x194D9, size: 0x8, addend: 0x0, symName: __RINvNtNtCs6IAuOt8vWmF_3syn3gen9visit_mut18visit_use_name_mutNtNtCs8noNfkmVAKC_18tracing_attributes6expand20IdentAndTypesRenamerEB10_, symObjAddr: 0x58DC, symBinAddr: 0x1D9E4, symSize: 0x3C }
  - { offset: 0x1951B, size: 0x8, addend: 0x0, symName: __RINvNtNtCs6IAuOt8vWmF_3syn3gen9visit_mut18visit_use_path_mutNtNtCs8noNfkmVAKC_18tracing_attributes6expand15ImplTraitEraserEB10_, symObjAddr: 0x5918, symBinAddr: 0x1DA20, symSize: 0x7C }
  - { offset: 0x1955D, size: 0x8, addend: 0x0, symName: __RINvNtNtCs6IAuOt8vWmF_3syn3gen9visit_mut18visit_use_path_mutNtNtCs8noNfkmVAKC_18tracing_attributes6expand20IdentAndTypesRenamerEB10_, symObjAddr: 0x5994, symBinAddr: 0x1DA9C, symSize: 0x7C }
  - { offset: 0x1959F, size: 0x8, addend: 0x0, symName: __RINvNtNtCs6IAuOt8vWmF_3syn3gen9visit_mut18visit_use_tree_mutNtNtCs8noNfkmVAKC_18tracing_attributes6expand15ImplTraitEraserEB10_, symObjAddr: 0x5A10, symBinAddr: 0x1DB18, symSize: 0x15C }
  - { offset: 0x1966F, size: 0x8, addend: 0x0, symName: __RINvNtNtCs6IAuOt8vWmF_3syn3gen9visit_mut18visit_use_tree_mutNtNtCs8noNfkmVAKC_18tracing_attributes6expand20IdentAndTypesRenamerEB10_, symObjAddr: 0x5B6C, symBinAddr: 0x1DC74, symSize: 0x15C }
  - { offset: 0x1973F, size: 0x8, addend: 0x0, symName: __RINvNtNtCs6IAuOt8vWmF_3syn3gen9visit_mut18visit_variadic_mutNtNtCs8noNfkmVAKC_18tracing_attributes6expand15ImplTraitEraserEB10_, symObjAddr: 0x5CC8, symBinAddr: 0x1DDD0, symSize: 0xB8 }
  - { offset: 0x19797, size: 0x8, addend: 0x0, symName: __RINvNtNtCs6IAuOt8vWmF_3syn3gen9visit_mut18visit_variadic_mutNtNtCs8noNfkmVAKC_18tracing_attributes6expand20IdentAndTypesRenamerEB10_, symObjAddr: 0x5D80, symBinAddr: 0x1DE88, symSize: 0xB8 }
  - { offset: 0x197EF, size: 0x8, addend: 0x0, symName: __RINvNtNtCs6IAuOt8vWmF_3syn3gen9visit_mut19visit_attribute_mutNtNtCs8noNfkmVAKC_18tracing_attributes6expand15ImplTraitEraserEB11_, symObjAddr: 0x5E38, symBinAddr: 0x1DF40, symSize: 0x50 }
  - { offset: 0x19831, size: 0x8, addend: 0x0, symName: __RINvNtNtCs6IAuOt8vWmF_3syn3gen9visit_mut19visit_attribute_mutNtNtCs8noNfkmVAKC_18tracing_attributes6expand20IdentAndTypesRenamerEB11_, symObjAddr: 0x5E88, symBinAddr: 0x1DF90, symSize: 0x50 }
  - { offset: 0x19873, size: 0x8, addend: 0x0, symName: __RINvNtNtCs6IAuOt8vWmF_3syn3gen9visit_mut19visit_expr_call_mutNtNtCs8noNfkmVAKC_18tracing_attributes6expand15ImplTraitEraserEB11_, symObjAddr: 0x5ED8, symBinAddr: 0x1DFE0, symSize: 0x108 }
  - { offset: 0x19908, size: 0x8, addend: 0x0, symName: __RINvNtNtCs6IAuOt8vWmF_3syn3gen9visit_mut19visit_expr_call_mutNtNtCs8noNfkmVAKC_18tracing_attributes6expand20IdentAndTypesRenamerEB11_, symObjAddr: 0x5FE0, symBinAddr: 0x1E0E8, symSize: 0x108 }
  - { offset: 0x1999D, size: 0x8, addend: 0x0, symName: __RINvNtNtCs6IAuOt8vWmF_3syn3gen9visit_mut19visit_expr_cast_mutNtNtCs8noNfkmVAKC_18tracing_attributes6expand15ImplTraitEraserEB11_, symObjAddr: 0x60E8, symBinAddr: 0x1E1F0, symSize: 0xAC }
  - { offset: 0x199DF, size: 0x8, addend: 0x0, symName: __RINvNtNtCs6IAuOt8vWmF_3syn3gen9visit_mut19visit_expr_cast_mutNtNtCs8noNfkmVAKC_18tracing_attributes6expand20IdentAndTypesRenamerEB11_, symObjAddr: 0x6194, symBinAddr: 0x1E29C, symSize: 0xAC }
  - { offset: 0x19A21, size: 0x8, addend: 0x0, symName: __RINvNtNtCs6IAuOt8vWmF_3syn3gen9visit_mut19visit_expr_loop_mutNtNtCs8noNfkmVAKC_18tracing_attributes6expand15ImplTraitEraserEB11_, symObjAddr: 0x6240, symBinAddr: 0x1E348, symSize: 0xA4 }
  - { offset: 0x19A81, size: 0x8, addend: 0x0, symName: __RINvNtNtCs6IAuOt8vWmF_3syn3gen9visit_mut19visit_expr_loop_mutNtNtCs8noNfkmVAKC_18tracing_attributes6expand20IdentAndTypesRenamerEB11_, symObjAddr: 0x62E4, symBinAddr: 0x1E3EC, symSize: 0xA4 }
  - { offset: 0x19AE1, size: 0x8, addend: 0x0, symName: __RINvNtNtCs6IAuOt8vWmF_3syn3gen9visit_mut19visit_expr_path_mutNtNtCs8noNfkmVAKC_18tracing_attributes6expand15ImplTraitEraserEB11_, symObjAddr: 0x6388, symBinAddr: 0x1E490, symSize: 0xA4 }
  - { offset: 0x19B41, size: 0x8, addend: 0x0, symName: __RINvNtNtCs6IAuOt8vWmF_3syn3gen9visit_mut19visit_expr_path_mutNtNtCs8noNfkmVAKC_18tracing_attributes6expand20IdentAndTypesRenamerEB11_, symObjAddr: 0x642C, symBinAddr: 0x1E534, symSize: 0xA4 }
  - { offset: 0x19BA1, size: 0x8, addend: 0x0, symName: __RINvNtNtCs6IAuOt8vWmF_3syn3gen9visit_mut19visit_field_pat_mutNtNtCs8noNfkmVAKC_18tracing_attributes6expand15ImplTraitEraserEB11_, symObjAddr: 0x64D0, symBinAddr: 0x1E5D8, symSize: 0x88 }
  - { offset: 0x19BE3, size: 0x8, addend: 0x0, symName: __RINvNtNtCs6IAuOt8vWmF_3syn3gen9visit_mut19visit_field_pat_mutNtNtCs8noNfkmVAKC_18tracing_attributes6expand20IdentAndTypesRenamerEB11_, symObjAddr: 0x6558, symBinAddr: 0x1E660, symSize: 0x88 }
  - { offset: 0x19C25, size: 0x8, addend: 0x0, symName: __RINvNtNtCs6IAuOt8vWmF_3syn3gen9visit_mut19visit_impl_item_mutNtNtCs8noNfkmVAKC_18tracing_attributes6expand15ImplTraitEraserEB11_, symObjAddr: 0x65E0, symBinAddr: 0x1E6E8, symSize: 0x168 }
  - { offset: 0x19CF5, size: 0x8, addend: 0x0, symName: __RINvNtNtCs6IAuOt8vWmF_3syn3gen9visit_mut19visit_impl_item_mutNtNtCs8noNfkmVAKC_18tracing_attributes6expand20IdentAndTypesRenamerEB11_, symObjAddr: 0x6748, symBinAddr: 0x1E850, symSize: 0x168 }
  - { offset: 0x19DC5, size: 0x8, addend: 0x0, symName: __RINvNtNtCs6IAuOt8vWmF_3syn3gen9visit_mut19visit_item_enum_mutNtNtCs8noNfkmVAKC_18tracing_attributes6expand15ImplTraitEraserEB11_, symObjAddr: 0x68B0, symBinAddr: 0x1E9B8, symSize: 0x100 }
  - { offset: 0x19E5A, size: 0x8, addend: 0x0, symName: __RINvNtNtCs6IAuOt8vWmF_3syn3gen9visit_mut19visit_item_enum_mutNtNtCs8noNfkmVAKC_18tracing_attributes6expand20IdentAndTypesRenamerEB11_, symObjAddr: 0x69B0, symBinAddr: 0x1EAB8, symSize: 0x100 }
  - { offset: 0x19EEF, size: 0x8, addend: 0x0, symName: __RINvNtNtCs6IAuOt8vWmF_3syn3gen9visit_mut19visit_item_impl_mutNtNtCs8noNfkmVAKC_18tracing_attributes6expand15ImplTraitEraserEB11_, symObjAddr: 0x6AB0, symBinAddr: 0x1EBB8, symSize: 0x13C }
  - { offset: 0x19F83, size: 0x8, addend: 0x0, symName: __RINvNtNtCs6IAuOt8vWmF_3syn3gen9visit_mut19visit_item_impl_mutNtNtCs8noNfkmVAKC_18tracing_attributes6expand20IdentAndTypesRenamerEB11_, symObjAddr: 0x6BEC, symBinAddr: 0x1ECF4, symSize: 0x13C }
  - { offset: 0x1A017, size: 0x8, addend: 0x0, symName: __RINvNtNtCs6IAuOt8vWmF_3syn3gen9visit_mut19visit_item_type_mutNtNtCs8noNfkmVAKC_18tracing_attributes6expand15ImplTraitEraserEB11_, symObjAddr: 0x6D28, symBinAddr: 0x1EE30, symSize: 0xA8 }
  - { offset: 0x1A059, size: 0x8, addend: 0x0, symName: __RINvNtNtCs6IAuOt8vWmF_3syn3gen9visit_mut19visit_item_type_mutNtNtCs8noNfkmVAKC_18tracing_attributes6expand20IdentAndTypesRenamerEB11_, symObjAddr: 0x6DD0, symBinAddr: 0x1EED8, symSize: 0xA8 }
  - { offset: 0x1A09B, size: 0x8, addend: 0x0, symName: __RINvNtNtCs6IAuOt8vWmF_3syn3gen9visit_mut19visit_lit_float_mutNtNtCs8noNfkmVAKC_18tracing_attributes6expand15ImplTraitEraserEB11_, symObjAddr: 0x6E78, symBinAddr: 0x1EF80, symSize: 0x24 }
  - { offset: 0x1A0DD, size: 0x8, addend: 0x0, symName: __RINvNtNtCs6IAuOt8vWmF_3syn3gen9visit_mut19visit_lit_float_mutNtNtCs8noNfkmVAKC_18tracing_attributes6expand20IdentAndTypesRenamerEB11_, symObjAddr: 0x6E9C, symBinAddr: 0x1EFA4, symSize: 0x24 }
  - { offset: 0x1A11F, size: 0x8, addend: 0x0, symName: __RINvNtNtCs6IAuOt8vWmF_3syn3gen9visit_mut19visit_meta_list_mutNtNtCs8noNfkmVAKC_18tracing_attributes6expand15ImplTraitEraserEB11_, symObjAddr: 0x6EC0, symBinAddr: 0x1EFC8, symSize: 0x60 }
  - { offset: 0x1A161, size: 0x8, addend: 0x0, symName: __RINvNtNtCs6IAuOt8vWmF_3syn3gen9visit_mut19visit_meta_list_mutNtNtCs8noNfkmVAKC_18tracing_attributes6expand20IdentAndTypesRenamerEB11_, symObjAddr: 0x6F20, symBinAddr: 0x1F028, symSize: 0x60 }
  - { offset: 0x1A1A3, size: 0x8, addend: 0x0, symName: __RINvNtNtCs6IAuOt8vWmF_3syn3gen9visit_mut19visit_pat_ident_mutNtNtCs8noNfkmVAKC_18tracing_attributes6expand15ImplTraitEraserEB11_, symObjAddr: 0x6F80, symBinAddr: 0x1F088, symSize: 0xC8 }
  - { offset: 0x1A1FB, size: 0x8, addend: 0x0, symName: __RINvNtNtCs6IAuOt8vWmF_3syn3gen9visit_mut19visit_pat_ident_mutNtNtCs8noNfkmVAKC_18tracing_attributes6expand20IdentAndTypesRenamerEB11_, symObjAddr: 0x7048, symBinAddr: 0x1F150, symSize: 0xC8 }
  - { offset: 0x1A253, size: 0x8, addend: 0x0, symName: __RINvNtNtCs6IAuOt8vWmF_3syn3gen9visit_mut19visit_pat_paren_mutNtNtCs8noNfkmVAKC_18tracing_attributes6expand15ImplTraitEraserEB11_, symObjAddr: 0x7110, symBinAddr: 0x1F218, symSize: 0x78 }
  - { offset: 0x1A295, size: 0x8, addend: 0x0, symName: __RINvNtNtCs6IAuOt8vWmF_3syn3gen9visit_mut19visit_pat_paren_mutNtNtCs8noNfkmVAKC_18tracing_attributes6expand20IdentAndTypesRenamerEB11_, symObjAddr: 0x7188, symBinAddr: 0x1F290, symSize: 0x78 }
  - { offset: 0x1A2D7, size: 0x8, addend: 0x0, symName: __RINvNtNtCs6IAuOt8vWmF_3syn3gen9visit_mut19visit_pat_slice_mutNtNtCs8noNfkmVAKC_18tracing_attributes6expand15ImplTraitEraserEB11_, symObjAddr: 0x7200, symBinAddr: 0x1F308, symSize: 0xD0 }
  - { offset: 0x1A36C, size: 0x8, addend: 0x0, symName: __RINvNtNtCs6IAuOt8vWmF_3syn3gen9visit_mut19visit_pat_slice_mutNtNtCs8noNfkmVAKC_18tracing_attributes6expand20IdentAndTypesRenamerEB11_, symObjAddr: 0x72D0, symBinAddr: 0x1F3D8, symSize: 0xD0 }
  - { offset: 0x1A401, size: 0x8, addend: 0x0, symName: __RINvNtNtCs6IAuOt8vWmF_3syn3gen9visit_mut19visit_pat_tuple_mutNtNtCs8noNfkmVAKC_18tracing_attributes6expand15ImplTraitEraserEB11_, symObjAddr: 0x73A0, symBinAddr: 0x1F4A8, symSize: 0xD0 }
  - { offset: 0x1A496, size: 0x8, addend: 0x0, symName: __RINvNtNtCs6IAuOt8vWmF_3syn3gen9visit_mut19visit_pat_tuple_mutNtNtCs8noNfkmVAKC_18tracing_attributes6expand20IdentAndTypesRenamerEB11_, symObjAddr: 0x7470, symBinAddr: 0x1F578, symSize: 0xD0 }
  - { offset: 0x1A52B, size: 0x8, addend: 0x0, symName: __RINvNtNtCs6IAuOt8vWmF_3syn3gen9visit_mut19visit_signature_mutNtNtCs8noNfkmVAKC_18tracing_attributes6expand15ImplTraitEraserEB11_, symObjAddr: 0x7540, symBinAddr: 0x1F648, symSize: 0x198 }
  - { offset: 0x1A5F4, size: 0x8, addend: 0x0, symName: __RINvNtNtCs6IAuOt8vWmF_3syn3gen9visit_mut19visit_signature_mutNtNtCs8noNfkmVAKC_18tracing_attributes6expand20IdentAndTypesRenamerEB11_, symObjAddr: 0x76D8, symBinAddr: 0x1F7E0, symSize: 0x198 }
  - { offset: 0x1A6BD, size: 0x8, addend: 0x0, symName: __RINvNtNtCs6IAuOt8vWmF_3syn3gen9visit_mut19visit_type_path_mutNtNtCs8noNfkmVAKC_18tracing_attributes6expand15ImplTraitEraserEB11_, symObjAddr: 0x7870, symBinAddr: 0x1F978, symSize: 0x94 }
  - { offset: 0x1A71D, size: 0x8, addend: 0x0, symName: __RINvNtNtCs6IAuOt8vWmF_3syn3gen9visit_mut19visit_use_group_mutNtNtCs8noNfkmVAKC_18tracing_attributes6expand15ImplTraitEraserEB11_, symObjAddr: 0x7904, symBinAddr: 0x1FA0C, symSize: 0xC8 }
  - { offset: 0x1A7B2, size: 0x8, addend: 0x0, symName: __RINvNtNtCs6IAuOt8vWmF_3syn3gen9visit_mut19visit_use_group_mutNtNtCs8noNfkmVAKC_18tracing_attributes6expand20IdentAndTypesRenamerEB11_, symObjAddr: 0x79CC, symBinAddr: 0x1FAD4, symSize: 0xC8 }
  - { offset: 0x1A847, size: 0x8, addend: 0x0, symName: __RINvNtNtCs6IAuOt8vWmF_3syn3gen9visit_mut20visit_assoc_type_mutNtNtCs8noNfkmVAKC_18tracing_attributes6expand15ImplTraitEraserEB12_, symObjAddr: 0x7A94, symBinAddr: 0x1FB9C, symSize: 0xA8 }
  - { offset: 0x1A8A7, size: 0x8, addend: 0x0, symName: __RINvNtNtCs6IAuOt8vWmF_3syn3gen9visit_mut20visit_assoc_type_mutNtNtCs8noNfkmVAKC_18tracing_attributes6expand20IdentAndTypesRenamerEB12_, symObjAddr: 0x7B3C, symBinAddr: 0x1FC44, symSize: 0xA8 }
  - { offset: 0x1A907, size: 0x8, addend: 0x0, symName: __RINvNtNtCs6IAuOt8vWmF_3syn3gen9visit_mut20visit_attr_style_mutNtNtCs8noNfkmVAKC_18tracing_attributes6expand15ImplTraitEraserEB12_, symObjAddr: 0x7BE4, symBinAddr: 0x1FCEC, symSize: 0x60 }
  - { offset: 0x1A949, size: 0x8, addend: 0x0, symName: __RINvNtNtCs6IAuOt8vWmF_3syn3gen9visit_mut20visit_attr_style_mutNtNtCs8noNfkmVAKC_18tracing_attributes6expand20IdentAndTypesRenamerEB12_, symObjAddr: 0x7C44, symBinAddr: 0x1FD4C, symSize: 0x60 }
  - { offset: 0x1A98B, size: 0x8, addend: 0x0, symName: __RINvNtNtCs6IAuOt8vWmF_3syn3gen9visit_mut20visit_constraint_mutNtNtCs8noNfkmVAKC_18tracing_attributes6expand15ImplTraitEraserEB12_, symObjAddr: 0x7CA4, symBinAddr: 0x1FDAC, symSize: 0x128 }
  - { offset: 0x1AA3E, size: 0x8, addend: 0x0, symName: __RINvNtNtCs6IAuOt8vWmF_3syn3gen9visit_mut20visit_constraint_mutNtNtCs8noNfkmVAKC_18tracing_attributes6expand20IdentAndTypesRenamerEB12_, symObjAddr: 0x7DCC, symBinAddr: 0x1FED4, symSize: 0x128 }
  - { offset: 0x1AAF1, size: 0x8, addend: 0x0, symName: __RINvNtNtCs6IAuOt8vWmF_3syn3gen9visit_mut20visit_expr_array_mutNtNtCs8noNfkmVAKC_18tracing_attributes6expand15ImplTraitEraserEB12_, symObjAddr: 0x7EF4, symBinAddr: 0x1FFFC, symSize: 0xD0 }
  - { offset: 0x1AB86, size: 0x8, addend: 0x0, symName: __RINvNtNtCs6IAuOt8vWmF_3syn3gen9visit_mut20visit_expr_array_mutNtNtCs8noNfkmVAKC_18tracing_attributes6expand20IdentAndTypesRenamerEB12_, symObjAddr: 0x7FC4, symBinAddr: 0x200CC, symSize: 0xD0 }
  - { offset: 0x1AC1B, size: 0x8, addend: 0x0, symName: __RINvNtNtCs6IAuOt8vWmF_3syn3gen9visit_mut20visit_expr_async_mutNtNtCs8noNfkmVAKC_18tracing_attributes6expand15ImplTraitEraserEB12_, symObjAddr: 0x8094, symBinAddr: 0x2019C, symSize: 0x50 }
  - { offset: 0x1AC5D, size: 0x8, addend: 0x0, symName: __RINvNtNtCs6IAuOt8vWmF_3syn3gen9visit_mut20visit_expr_async_mutNtNtCs8noNfkmVAKC_18tracing_attributes6expand20IdentAndTypesRenamerEB12_, symObjAddr: 0x80E4, symBinAddr: 0x201EC, symSize: 0x50 }
  - { offset: 0x1AC9F, size: 0x8, addend: 0x0, symName: __RINvNtNtCs6IAuOt8vWmF_3syn3gen9visit_mut20visit_expr_await_mutNtNtCs8noNfkmVAKC_18tracing_attributes6expand15ImplTraitEraserEB12_, symObjAddr: 0x8134, symBinAddr: 0x2023C, symSize: 0x78 }
  - { offset: 0x1ACE1, size: 0x8, addend: 0x0, symName: __RINvNtNtCs6IAuOt8vWmF_3syn3gen9visit_mut20visit_expr_await_mutNtNtCs8noNfkmVAKC_18tracing_attributes6expand20IdentAndTypesRenamerEB12_, symObjAddr: 0x81AC, symBinAddr: 0x202B4, symSize: 0x78 }
  - { offset: 0x1AD23, size: 0x8, addend: 0x0, symName: __RINvNtNtCs6IAuOt8vWmF_3syn3gen9visit_mut20visit_expr_block_mutNtNtCs8noNfkmVAKC_18tracing_attributes6expand15ImplTraitEraserEB12_, symObjAddr: 0x8224, symBinAddr: 0x2032C, symSize: 0xA4 }
  - { offset: 0x1AD83, size: 0x8, addend: 0x0, symName: __RINvNtNtCs6IAuOt8vWmF_3syn3gen9visit_mut20visit_expr_block_mutNtNtCs8noNfkmVAKC_18tracing_attributes6expand20IdentAndTypesRenamerEB12_, symObjAddr: 0x82C8, symBinAddr: 0x203D0, symSize: 0xA4 }
  - { offset: 0x1ADE3, size: 0x8, addend: 0x0, symName: __RINvNtNtCs6IAuOt8vWmF_3syn3gen9visit_mut20visit_expr_break_mutNtNtCs8noNfkmVAKC_18tracing_attributes6expand15ImplTraitEraserEB12_, symObjAddr: 0x836C, symBinAddr: 0x20474, symSize: 0x110 }
  - { offset: 0x1AE59, size: 0x8, addend: 0x0, symName: __RINvNtNtCs6IAuOt8vWmF_3syn3gen9visit_mut20visit_expr_break_mutNtNtCs8noNfkmVAKC_18tracing_attributes6expand20IdentAndTypesRenamerEB12_, symObjAddr: 0x847C, symBinAddr: 0x20584, symSize: 0x110 }
  - { offset: 0x1AECF, size: 0x8, addend: 0x0, symName: __RINvNtNtCs6IAuOt8vWmF_3syn3gen9visit_mut20visit_expr_const_mutNtNtCs8noNfkmVAKC_18tracing_attributes6expand15ImplTraitEraserEB12_, symObjAddr: 0x858C, symBinAddr: 0x20694, symSize: 0x50 }
  - { offset: 0x1AF11, size: 0x8, addend: 0x0, symName: __RINvNtNtCs6IAuOt8vWmF_3syn3gen9visit_mut20visit_expr_const_mutNtNtCs8noNfkmVAKC_18tracing_attributes6expand20IdentAndTypesRenamerEB12_, symObjAddr: 0x85DC, symBinAddr: 0x206E4, symSize: 0x50 }
  - { offset: 0x1AF53, size: 0x8, addend: 0x0, symName: __RINvNtNtCs6IAuOt8vWmF_3syn3gen9visit_mut20visit_expr_field_mutNtNtCs8noNfkmVAKC_18tracing_attributes6expand15ImplTraitEraserEB12_, symObjAddr: 0x862C, symBinAddr: 0x20734, symSize: 0x88 }
  - { offset: 0x1AF95, size: 0x8, addend: 0x0, symName: __RINvNtNtCs6IAuOt8vWmF_3syn3gen9visit_mut20visit_expr_field_mutNtNtCs8noNfkmVAKC_18tracing_attributes6expand20IdentAndTypesRenamerEB12_, symObjAddr: 0x86B4, symBinAddr: 0x207BC, symSize: 0x88 }
  - { offset: 0x1AFD7, size: 0x8, addend: 0x0, symName: __RINvNtNtCs6IAuOt8vWmF_3syn3gen9visit_mut20visit_expr_group_mutNtNtCs8noNfkmVAKC_18tracing_attributes6expand15ImplTraitEraserEB12_, symObjAddr: 0x873C, symBinAddr: 0x20844, symSize: 0x78 }
  - { offset: 0x1B019, size: 0x8, addend: 0x0, symName: __RINvNtNtCs6IAuOt8vWmF_3syn3gen9visit_mut20visit_expr_group_mutNtNtCs8noNfkmVAKC_18tracing_attributes6expand20IdentAndTypesRenamerEB12_, symObjAddr: 0x87B4, symBinAddr: 0x208BC, symSize: 0x78 }
  - { offset: 0x1B05B, size: 0x8, addend: 0x0, symName: __RINvNtNtCs6IAuOt8vWmF_3syn3gen9visit_mut20visit_expr_index_mutNtNtCs8noNfkmVAKC_18tracing_attributes6expand15ImplTraitEraserEB12_, symObjAddr: 0x882C, symBinAddr: 0x20934, symSize: 0xAC }
  - { offset: 0x1B09D, size: 0x8, addend: 0x0, symName: __RINvNtNtCs6IAuOt8vWmF_3syn3gen9visit_mut20visit_expr_index_mutNtNtCs8noNfkmVAKC_18tracing_attributes6expand20IdentAndTypesRenamerEB12_, symObjAddr: 0x88D8, symBinAddr: 0x209E0, symSize: 0xAC }
  - { offset: 0x1B0DF, size: 0x8, addend: 0x0, symName: __RINvNtNtCs6IAuOt8vWmF_3syn3gen9visit_mut20visit_expr_infer_mutNtNtCs8noNfkmVAKC_18tracing_attributes6expand15ImplTraitEraserEB12_, symObjAddr: 0x8984, symBinAddr: 0x20A8C, symSize: 0x3C }
  - { offset: 0x1B121, size: 0x8, addend: 0x0, symName: __RINvNtNtCs6IAuOt8vWmF_3syn3gen9visit_mut20visit_expr_infer_mutNtNtCs8noNfkmVAKC_18tracing_attributes6expand20IdentAndTypesRenamerEB12_, symObjAddr: 0x89C0, symBinAddr: 0x20AC8, symSize: 0x3C }
  - { offset: 0x1B163, size: 0x8, addend: 0x0, symName: __RINvNtNtCs6IAuOt8vWmF_3syn3gen9visit_mut20visit_expr_macro_mutNtNtCs8noNfkmVAKC_18tracing_attributes6expand15ImplTraitEraserEB12_, symObjAddr: 0x89FC, symBinAddr: 0x20B04, symSize: 0x50 }
  - { offset: 0x1B1A5, size: 0x8, addend: 0x0, symName: __RINvNtNtCs6IAuOt8vWmF_3syn3gen9visit_mut20visit_expr_macro_mutNtNtCs8noNfkmVAKC_18tracing_attributes6expand20IdentAndTypesRenamerEB12_, symObjAddr: 0x8A4C, symBinAddr: 0x20B54, symSize: 0x50 }
  - { offset: 0x1B1E7, size: 0x8, addend: 0x0, symName: __RINvNtNtCs6IAuOt8vWmF_3syn3gen9visit_mut20visit_expr_match_mutNtNtCs8noNfkmVAKC_18tracing_attributes6expand15ImplTraitEraserEB12_, symObjAddr: 0x8A9C, symBinAddr: 0x20BA4, symSize: 0xD8 }
  - { offset: 0x1B25D, size: 0x8, addend: 0x0, symName: __RINvNtNtCs6IAuOt8vWmF_3syn3gen9visit_mut20visit_expr_match_mutNtNtCs8noNfkmVAKC_18tracing_attributes6expand20IdentAndTypesRenamerEB12_, symObjAddr: 0x8B74, symBinAddr: 0x20C7C, symSize: 0xD8 }
  - { offset: 0x1B2D3, size: 0x8, addend: 0x0, symName: __RINvNtNtCs6IAuOt8vWmF_3syn3gen9visit_mut20visit_expr_paren_mutNtNtCs8noNfkmVAKC_18tracing_attributes6expand15ImplTraitEraserEB12_, symObjAddr: 0x8C4C, symBinAddr: 0x20D54, symSize: 0x78 }
  - { offset: 0x1B315, size: 0x8, addend: 0x0, symName: __RINvNtNtCs6IAuOt8vWmF_3syn3gen9visit_mut20visit_expr_paren_mutNtNtCs8noNfkmVAKC_18tracing_attributes6expand20IdentAndTypesRenamerEB12_, symObjAddr: 0x8CC4, symBinAddr: 0x20DCC, symSize: 0x78 }
  - { offset: 0x1B357, size: 0x8, addend: 0x0, symName: __RINvNtNtCs6IAuOt8vWmF_3syn3gen9visit_mut20visit_expr_range_mutNtNtCs8noNfkmVAKC_18tracing_attributes6expand15ImplTraitEraserEB12_, symObjAddr: 0x8D3C, symBinAddr: 0x20E44, symSize: 0x144 }
  - { offset: 0x1B3C5, size: 0x8, addend: 0x0, symName: __RINvNtNtCs6IAuOt8vWmF_3syn3gen9visit_mut20visit_expr_range_mutNtNtCs8noNfkmVAKC_18tracing_attributes6expand20IdentAndTypesRenamerEB12_, symObjAddr: 0x8E80, symBinAddr: 0x20F88, symSize: 0x144 }
  - { offset: 0x1B433, size: 0x8, addend: 0x0, symName: __RINvNtNtCs6IAuOt8vWmF_3syn3gen9visit_mut20visit_expr_tuple_mutNtNtCs8noNfkmVAKC_18tracing_attributes6expand15ImplTraitEraserEB12_, symObjAddr: 0x8FC4, symBinAddr: 0x210CC, symSize: 0xD0 }
  - { offset: 0x1B4C8, size: 0x8, addend: 0x0, symName: __RINvNtNtCs6IAuOt8vWmF_3syn3gen9visit_mut20visit_expr_tuple_mutNtNtCs8noNfkmVAKC_18tracing_attributes6expand20IdentAndTypesRenamerEB12_, symObjAddr: 0x9094, symBinAddr: 0x2119C, symSize: 0xD0 }
  - { offset: 0x1B55D, size: 0x8, addend: 0x0, symName: __RINvNtNtCs6IAuOt8vWmF_3syn3gen9visit_mut20visit_expr_unary_mutNtNtCs8noNfkmVAKC_18tracing_attributes6expand15ImplTraitEraserEB12_, symObjAddr: 0x9164, symBinAddr: 0x2126C, symSize: 0x88 }
  - { offset: 0x1B59F, size: 0x8, addend: 0x0, symName: __RINvNtNtCs6IAuOt8vWmF_3syn3gen9visit_mut20visit_expr_unary_mutNtNtCs8noNfkmVAKC_18tracing_attributes6expand20IdentAndTypesRenamerEB12_, symObjAddr: 0x91EC, symBinAddr: 0x212F4, symSize: 0x88 }
  - { offset: 0x1B5E1, size: 0x8, addend: 0x0, symName: __RINvNtNtCs6IAuOt8vWmF_3syn3gen9visit_mut20visit_expr_while_mutNtNtCs8noNfkmVAKC_18tracing_attributes6expand15ImplTraitEraserEB12_, symObjAddr: 0x9274, symBinAddr: 0x2137C, symSize: 0xD8 }
  - { offset: 0x1B641, size: 0x8, addend: 0x0, symName: __RINvNtNtCs6IAuOt8vWmF_3syn3gen9visit_mut20visit_expr_while_mutNtNtCs8noNfkmVAKC_18tracing_attributes6expand20IdentAndTypesRenamerEB12_, symObjAddr: 0x934C, symBinAddr: 0x21454, symSize: 0xD8 }
  - { offset: 0x1B6A1, size: 0x8, addend: 0x0, symName: __RINvNtNtCs6IAuOt8vWmF_3syn3gen9visit_mut20visit_expr_yield_mutNtNtCs8noNfkmVAKC_18tracing_attributes6expand15ImplTraitEraserEB12_, symObjAddr: 0x9424, symBinAddr: 0x2152C, symSize: 0xB8 }
  - { offset: 0x1B6F9, size: 0x8, addend: 0x0, symName: __RINvNtNtCs6IAuOt8vWmF_3syn3gen9visit_mut20visit_expr_yield_mutNtNtCs8noNfkmVAKC_18tracing_attributes6expand20IdentAndTypesRenamerEB12_, symObjAddr: 0x94DC, symBinAddr: 0x215E4, symSize: 0xB8 }
  - { offset: 0x1B751, size: 0x8, addend: 0x0, symName: __RINvNtNtCs6IAuOt8vWmF_3syn3gen9visit_mut20visit_item_const_mutNtNtCs8noNfkmVAKC_18tracing_attributes6expand15ImplTraitEraserEB12_, symObjAddr: 0x9594, symBinAddr: 0x2169C, symSize: 0xDC }
  - { offset: 0x1B793, size: 0x8, addend: 0x0, symName: __RINvNtNtCs6IAuOt8vWmF_3syn3gen9visit_mut20visit_item_const_mutNtNtCs8noNfkmVAKC_18tracing_attributes6expand20IdentAndTypesRenamerEB12_, symObjAddr: 0x9670, symBinAddr: 0x21778, symSize: 0xDC }
  - { offset: 0x1B7D5, size: 0x8, addend: 0x0, symName: __RINvNtNtCs6IAuOt8vWmF_3syn3gen9visit_mut20visit_item_macro_mutNtNtCs8noNfkmVAKC_18tracing_attributes6expand15ImplTraitEraserEB12_, symObjAddr: 0x974C, symBinAddr: 0x21854, symSize: 0xA4 }
  - { offset: 0x1B835, size: 0x8, addend: 0x0, symName: __RINvNtNtCs6IAuOt8vWmF_3syn3gen9visit_mut20visit_item_macro_mutNtNtCs8noNfkmVAKC_18tracing_attributes6expand20IdentAndTypesRenamerEB12_, symObjAddr: 0x97F0, symBinAddr: 0x218F8, symSize: 0xA4 }
  - { offset: 0x1B895, size: 0x8, addend: 0x0, symName: __RINvNtNtCs6IAuOt8vWmF_3syn3gen9visit_mut20visit_item_trait_mutNtNtCs8noNfkmVAKC_18tracing_attributes6expand15ImplTraitEraserEB12_, symObjAddr: 0x9894, symBinAddr: 0x2199C, symSize: 0x164 }
  - { offset: 0x1B97A, size: 0x8, addend: 0x0, symName: __RINvNtNtCs6IAuOt8vWmF_3syn3gen9visit_mut20visit_item_trait_mutNtNtCs8noNfkmVAKC_18tracing_attributes6expand20IdentAndTypesRenamerEB12_, symObjAddr: 0x99F8, symBinAddr: 0x21B00, symSize: 0x164 }
  - { offset: 0x1BA5F, size: 0x8, addend: 0x0, symName: __RINvNtNtCs6IAuOt8vWmF_3syn3gen9visit_mut20visit_item_union_mutNtNtCs8noNfkmVAKC_18tracing_attributes6expand15ImplTraitEraserEB12_, symObjAddr: 0x9B5C, symBinAddr: 0x21C64, symSize: 0x80 }
  - { offset: 0x1BAA1, size: 0x8, addend: 0x0, symName: __RINvNtNtCs6IAuOt8vWmF_3syn3gen9visit_mut20visit_item_union_mutNtNtCs8noNfkmVAKC_18tracing_attributes6expand20IdentAndTypesRenamerEB12_, symObjAddr: 0x9BDC, symBinAddr: 0x21CE4, symSize: 0x80 }
  - { offset: 0x1BAE3, size: 0x8, addend: 0x0, symName: __RINvNtNtCs6IAuOt8vWmF_3syn3gen9visit_mut20visit_local_init_mutNtNtCs8noNfkmVAKC_18tracing_attributes6expand15ImplTraitEraserEB12_, symObjAddr: 0x9C5C, symBinAddr: 0x21D64, symSize: 0xE8 }
  - { offset: 0x1BB3B, size: 0x8, addend: 0x0, symName: __RINvNtNtCs6IAuOt8vWmF_3syn3gen9visit_mut20visit_local_init_mutNtNtCs8noNfkmVAKC_18tracing_attributes6expand20IdentAndTypesRenamerEB12_, symObjAddr: 0x9D44, symBinAddr: 0x21E4C, symSize: 0xE8 }
  - { offset: 0x1BB93, size: 0x8, addend: 0x0, symName: __RINvNtNtCs6IAuOt8vWmF_3syn3gen9visit_mut20visit_pat_struct_mutNtNtCs8noNfkmVAKC_18tracing_attributes6expand15ImplTraitEraserEB12_, symObjAddr: 0x9E2C, symBinAddr: 0x21F34, symSize: 0x18C }
  - { offset: 0x1BC5C, size: 0x8, addend: 0x0, symName: __RINvNtNtCs6IAuOt8vWmF_3syn3gen9visit_mut20visit_pat_struct_mutNtNtCs8noNfkmVAKC_18tracing_attributes6expand20IdentAndTypesRenamerEB12_, symObjAddr: 0x9FB8, symBinAddr: 0x220C0, symSize: 0x18C }
  - { offset: 0x1BD25, size: 0x8, addend: 0x0, symName: __RINvNtNtCs6IAuOt8vWmF_3syn3gen9visit_mut20visit_stmt_macro_mutNtNtCs8noNfkmVAKC_18tracing_attributes6expand15ImplTraitEraserEB12_, symObjAddr: 0xA144, symBinAddr: 0x2224C, symSize: 0x50 }
  - { offset: 0x1BD67, size: 0x8, addend: 0x0, symName: __RINvNtNtCs6IAuOt8vWmF_3syn3gen9visit_mut20visit_stmt_macro_mutNtNtCs8noNfkmVAKC_18tracing_attributes6expand20IdentAndTypesRenamerEB12_, symObjAddr: 0xA194, symBinAddr: 0x2229C, symSize: 0x50 }
  - { offset: 0x1BDA9, size: 0x8, addend: 0x0, symName: __RINvNtNtCs6IAuOt8vWmF_3syn3gen9visit_mut20visit_trait_item_mutNtNtCs8noNfkmVAKC_18tracing_attributes6expand15ImplTraitEraserEB12_, symObjAddr: 0xA1E4, symBinAddr: 0x222EC, symSize: 0x168 }
  - { offset: 0x1BE79, size: 0x8, addend: 0x0, symName: __RINvNtNtCs6IAuOt8vWmF_3syn3gen9visit_mut20visit_trait_item_mutNtNtCs8noNfkmVAKC_18tracing_attributes6expand20IdentAndTypesRenamerEB12_, symObjAddr: 0xA34C, symBinAddr: 0x22454, symSize: 0x168 }
  - { offset: 0x1BF49, size: 0x8, addend: 0x0, symName: __RINvNtNtCs6IAuOt8vWmF_3syn3gen9visit_mut20visit_type_array_mutNtNtCs8noNfkmVAKC_18tracing_attributes6expand15ImplTraitEraserEB12_, symObjAddr: 0xA4B4, symBinAddr: 0x225BC, symSize: 0x78 }
  - { offset: 0x1BF8B, size: 0x8, addend: 0x0, symName: __RINvNtNtCs6IAuOt8vWmF_3syn3gen9visit_mut20visit_type_group_mutNtNtCs8noNfkmVAKC_18tracing_attributes6expand15ImplTraitEraserEB12_, symObjAddr: 0xA52C, symBinAddr: 0x22634, symSize: 0x68 }
  - { offset: 0x1BFCD, size: 0x8, addend: 0x0, symName: __RINvNtNtCs6IAuOt8vWmF_3syn3gen9visit_mut20visit_type_infer_mutNtNtCs8noNfkmVAKC_18tracing_attributes6expand15ImplTraitEraserEB12_, symObjAddr: 0xA594, symBinAddr: 0x2269C, symSize: 0x24 }
  - { offset: 0x1C00F, size: 0x8, addend: 0x0, symName: __RINvNtNtCs6IAuOt8vWmF_3syn3gen9visit_mut20visit_type_macro_mutNtNtCs8noNfkmVAKC_18tracing_attributes6expand15ImplTraitEraserEB12_, symObjAddr: 0xA5B8, symBinAddr: 0x226C0, symSize: 0x3C }
  - { offset: 0x1C051, size: 0x8, addend: 0x0, symName: __RINvNtNtCs6IAuOt8vWmF_3syn3gen9visit_mut20visit_type_never_mutNtNtCs8noNfkmVAKC_18tracing_attributes6expand15ImplTraitEraserEB12_, symObjAddr: 0xA5F4, symBinAddr: 0x226FC, symSize: 0x24 }
  - { offset: 0x1C093, size: 0x8, addend: 0x0, symName: __RINvNtNtCs6IAuOt8vWmF_3syn3gen9visit_mut20visit_type_param_mutNtNtCs8noNfkmVAKC_18tracing_attributes6expand15ImplTraitEraserEB12_, symObjAddr: 0xA618, symBinAddr: 0x22720, symSize: 0x134 }
  - { offset: 0x1C13E, size: 0x8, addend: 0x0, symName: __RINvNtNtCs6IAuOt8vWmF_3syn3gen9visit_mut20visit_type_param_mutNtNtCs8noNfkmVAKC_18tracing_attributes6expand20IdentAndTypesRenamerEB12_, symObjAddr: 0xA74C, symBinAddr: 0x22854, symSize: 0x134 }
  - { offset: 0x1C1E9, size: 0x8, addend: 0x0, symName: __RINvNtNtCs6IAuOt8vWmF_3syn3gen9visit_mut20visit_type_paren_mutNtNtCs8noNfkmVAKC_18tracing_attributes6expand15ImplTraitEraserEB12_, symObjAddr: 0xA880, symBinAddr: 0x22988, symSize: 0x68 }
  - { offset: 0x1C22B, size: 0x8, addend: 0x0, symName: __RINvNtNtCs6IAuOt8vWmF_3syn3gen9visit_mut20visit_type_slice_mutNtNtCs8noNfkmVAKC_18tracing_attributes6expand15ImplTraitEraserEB12_, symObjAddr: 0xA8E8, symBinAddr: 0x229F0, symSize: 0x68 }
  - { offset: 0x1C26D, size: 0x8, addend: 0x0, symName: __RINvNtNtCs6IAuOt8vWmF_3syn3gen9visit_mut20visit_type_tuple_mutNtNtCs8noNfkmVAKC_18tracing_attributes6expand15ImplTraitEraserEB12_, symObjAddr: 0xA950, symBinAddr: 0x22A58, symSize: 0xC8 }
  - { offset: 0x1C302, size: 0x8, addend: 0x0, symName: __RINvNtNtCs6IAuOt8vWmF_3syn3gen9visit_mut20visit_use_rename_mutNtNtCs8noNfkmVAKC_18tracing_attributes6expand15ImplTraitEraserEB12_, symObjAddr: 0xAA18, symBinAddr: 0x22B20, symSize: 0x50 }
  - { offset: 0x1C344, size: 0x8, addend: 0x0, symName: __RINvNtNtCs6IAuOt8vWmF_3syn3gen9visit_mut20visit_use_rename_mutNtNtCs8noNfkmVAKC_18tracing_attributes6expand20IdentAndTypesRenamerEB12_, symObjAddr: 0xAA68, symBinAddr: 0x22B70, symSize: 0x50 }
  - { offset: 0x1C386, size: 0x8, addend: 0x0, symName: __RINvNtNtCs6IAuOt8vWmF_3syn3gen9visit_mut20visit_visibility_mutNtNtCs8noNfkmVAKC_18tracing_attributes6expand15ImplTraitEraserEB12_, symObjAddr: 0xAAB8, symBinAddr: 0x22BC0, symSize: 0xC4 }
  - { offset: 0x1C3E6, size: 0x8, addend: 0x0, symName: __RINvNtNtCs6IAuOt8vWmF_3syn3gen9visit_mut20visit_visibility_mutNtNtCs8noNfkmVAKC_18tracing_attributes6expand20IdentAndTypesRenamerEB12_, symObjAddr: 0xAB7C, symBinAddr: 0x22C84, symSize: 0xC4 }
  - { offset: 0x1C446, size: 0x8, addend: 0x0, symName: __RINvNtNtCs6IAuOt8vWmF_3syn3gen9visit_mut21visit_assoc_const_mutNtNtCs8noNfkmVAKC_18tracing_attributes6expand15ImplTraitEraserEB13_, symObjAddr: 0xAC40, symBinAddr: 0x22D48, symSize: 0xA8 }
  - { offset: 0x1C4A6, size: 0x8, addend: 0x0, symName: __RINvNtNtCs6IAuOt8vWmF_3syn3gen9visit_mut21visit_assoc_const_mutNtNtCs8noNfkmVAKC_18tracing_attributes6expand20IdentAndTypesRenamerEB13_, symObjAddr: 0xACE8, symBinAddr: 0x22DF0, symSize: 0xA8 }
  - { offset: 0x1C506, size: 0x8, addend: 0x0, symName: __RINvNtNtCs6IAuOt8vWmF_3syn3gen9visit_mut21visit_bare_fn_arg_mutNtNtCs8noNfkmVAKC_18tracing_attributes6expand15ImplTraitEraserEB13_, symObjAddr: 0xAD90, symBinAddr: 0x22E98, symSize: 0xA4 }
  - { offset: 0x1C566, size: 0x8, addend: 0x0, symName: __RINvNtNtCs6IAuOt8vWmF_3syn3gen9visit_mut21visit_const_param_mutNtNtCs8noNfkmVAKC_18tracing_attributes6expand15ImplTraitEraserEB13_, symObjAddr: 0xAE34, symBinAddr: 0x22F3C, symSize: 0xB4 }
  - { offset: 0x1C5C6, size: 0x8, addend: 0x0, symName: __RINvNtNtCs6IAuOt8vWmF_3syn3gen9visit_mut21visit_const_param_mutNtNtCs8noNfkmVAKC_18tracing_attributes6expand20IdentAndTypesRenamerEB13_, symObjAddr: 0xAEE8, symBinAddr: 0x22FF0, symSize: 0xB4 }
  - { offset: 0x1C626, size: 0x8, addend: 0x0, symName: __RINvNtNtCs6IAuOt8vWmF_3syn3gen9visit_mut21visit_expr_assign_mutNtNtCs8noNfkmVAKC_18tracing_attributes6expand15ImplTraitEraserEB13_, symObjAddr: 0xAF9C, symBinAddr: 0x230A4, symSize: 0xAC }
  - { offset: 0x1C668, size: 0x8, addend: 0x0, symName: __RINvNtNtCs6IAuOt8vWmF_3syn3gen9visit_mut21visit_expr_assign_mutNtNtCs8noNfkmVAKC_18tracing_attributes6expand20IdentAndTypesRenamerEB13_, symObjAddr: 0xB048, symBinAddr: 0x23150, symSize: 0xAC }
  - { offset: 0x1C6AA, size: 0x8, addend: 0x0, symName: __RINvNtNtCs6IAuOt8vWmF_3syn3gen9visit_mut21visit_expr_binary_mutNtNtCs8noNfkmVAKC_18tracing_attributes6expand15ImplTraitEraserEB13_, symObjAddr: 0xB0F4, symBinAddr: 0x231FC, symSize: 0xBC }
  - { offset: 0x1C6EC, size: 0x8, addend: 0x0, symName: __RINvNtNtCs6IAuOt8vWmF_3syn3gen9visit_mut21visit_expr_binary_mutNtNtCs8noNfkmVAKC_18tracing_attributes6expand20IdentAndTypesRenamerEB13_, symObjAddr: 0xB1B0, symBinAddr: 0x232B8, symSize: 0xBC }
  - { offset: 0x1C72E, size: 0x8, addend: 0x0, symName: __RINvNtNtCs6IAuOt8vWmF_3syn3gen9visit_mut21visit_expr_repeat_mutNtNtCs8noNfkmVAKC_18tracing_attributes6expand15ImplTraitEraserEB13_, symObjAddr: 0xB26C, symBinAddr: 0x23374, symSize: 0xAC }
  - { offset: 0x1C770, size: 0x8, addend: 0x0, symName: __RINvNtNtCs6IAuOt8vWmF_3syn3gen9visit_mut21visit_expr_repeat_mutNtNtCs8noNfkmVAKC_18tracing_attributes6expand20IdentAndTypesRenamerEB13_, symObjAddr: 0xB318, symBinAddr: 0x23420, symSize: 0xAC }
  - { offset: 0x1C7B2, size: 0x8, addend: 0x0, symName: __RINvNtNtCs6IAuOt8vWmF_3syn3gen9visit_mut21visit_expr_return_mutNtNtCs8noNfkmVAKC_18tracing_attributes6expand15ImplTraitEraserEB13_, symObjAddr: 0xB3C4, symBinAddr: 0x234CC, symSize: 0xB8 }
  - { offset: 0x1C80A, size: 0x8, addend: 0x0, symName: __RINvNtNtCs6IAuOt8vWmF_3syn3gen9visit_mut21visit_expr_return_mutNtNtCs8noNfkmVAKC_18tracing_attributes6expand20IdentAndTypesRenamerEB13_, symObjAddr: 0xB47C, symBinAddr: 0x23584, symSize: 0xB8 }
  - { offset: 0x1C862, size: 0x8, addend: 0x0, symName: __RINvNtNtCs6IAuOt8vWmF_3syn3gen9visit_mut21visit_expr_struct_mutNtNtCs8noNfkmVAKC_18tracing_attributes6expand15ImplTraitEraserEB13_, symObjAddr: 0xB534, symBinAddr: 0x2363C, symSize: 0x1B0 }
  - { offset: 0x1C92B, size: 0x8, addend: 0x0, symName: __RINvNtNtCs6IAuOt8vWmF_3syn3gen9visit_mut21visit_expr_struct_mutNtNtCs8noNfkmVAKC_18tracing_attributes6expand20IdentAndTypesRenamerEB13_, symObjAddr: 0xB6E4, symBinAddr: 0x237EC, symSize: 0x1B0 }
  - { offset: 0x1C9F4, size: 0x8, addend: 0x0, symName: __RINvNtNtCs6IAuOt8vWmF_3syn3gen9visit_mut21visit_expr_unsafe_mutNtNtCs8noNfkmVAKC_18tracing_attributes6expand15ImplTraitEraserEB13_, symObjAddr: 0xB894, symBinAddr: 0x2399C, symSize: 0x50 }
  - { offset: 0x1CA36, size: 0x8, addend: 0x0, symName: __RINvNtNtCs6IAuOt8vWmF_3syn3gen9visit_mut21visit_expr_unsafe_mutNtNtCs8noNfkmVAKC_18tracing_attributes6expand20IdentAndTypesRenamerEB13_, symObjAddr: 0xB8E4, symBinAddr: 0x239EC, symSize: 0x50 }
  - { offset: 0x1CA78, size: 0x8, addend: 0x0, symName: __RINvNtNtCs6IAuOt8vWmF_3syn3gen9visit_mut21visit_field_value_mutNtNtCs8noNfkmVAKC_18tracing_attributes6expand15ImplTraitEraserEB13_, symObjAddr: 0xB934, symBinAddr: 0x23A3C, symSize: 0x60 }
  - { offset: 0x1CABA, size: 0x8, addend: 0x0, symName: __RINvNtNtCs6IAuOt8vWmF_3syn3gen9visit_mut21visit_field_value_mutNtNtCs8noNfkmVAKC_18tracing_attributes6expand20IdentAndTypesRenamerEB13_, symObjAddr: 0xB994, symBinAddr: 0x23A9C, symSize: 0x60 }
  - { offset: 0x1CAFC, size: 0x8, addend: 0x0, symName: __RINvNtNtCs6IAuOt8vWmF_3syn3gen9visit_mut21visit_item_static_mutNtNtCs8noNfkmVAKC_18tracing_attributes6expand15ImplTraitEraserEB13_, symObjAddr: 0xB9F4, symBinAddr: 0x23AFC, symSize: 0xDC }
  - { offset: 0x1CB3E, size: 0x8, addend: 0x0, symName: __RINvNtNtCs6IAuOt8vWmF_3syn3gen9visit_mut21visit_item_static_mutNtNtCs8noNfkmVAKC_18tracing_attributes6expand20IdentAndTypesRenamerEB13_, symObjAddr: 0xBAD0, symBinAddr: 0x23BD8, symSize: 0xDC }
  - { offset: 0x1CB80, size: 0x8, addend: 0x0, symName: __RINvNtNtCs6IAuOt8vWmF_3syn3gen9visit_mut21visit_item_struct_mutNtNtCs8noNfkmVAKC_18tracing_attributes6expand15ImplTraitEraserEB13_, symObjAddr: 0xBBAC, symBinAddr: 0x23CB4, symSize: 0x80 }
  - { offset: 0x1CBC2, size: 0x8, addend: 0x0, symName: __RINvNtNtCs6IAuOt8vWmF_3syn3gen9visit_mut21visit_item_struct_mutNtNtCs8noNfkmVAKC_18tracing_attributes6expand20IdentAndTypesRenamerEB13_, symObjAddr: 0xBC2C, symBinAddr: 0x23D34, symSize: 0x80 }
  - { offset: 0x1CC04, size: 0x8, addend: 0x0, symName: __RINvNtNtCs6IAuOt8vWmF_3syn3gen9visit_mut21visit_return_type_mutNtNtCs8noNfkmVAKC_18tracing_attributes6expand15ImplTraitEraserEB13_, symObjAddr: 0xBCAC, symBinAddr: 0x23DB4, symSize: 0xB0 }
  - { offset: 0x1CC6C, size: 0x8, addend: 0x0, symName: __RINvNtNtCs6IAuOt8vWmF_3syn3gen9visit_mut21visit_return_type_mutNtNtCs8noNfkmVAKC_18tracing_attributes6expand20IdentAndTypesRenamerEB13_, symObjAddr: 0xBD5C, symBinAddr: 0x23E64, symSize: 0xB0 }
  - { offset: 0x1CCD4, size: 0x8, addend: 0x0, symName: __RINvNtNtCs6IAuOt8vWmF_3syn3gen9visit_mut21visit_trait_bound_mutNtNtCs8noNfkmVAKC_18tracing_attributes6expand15ImplTraitEraserEB13_, symObjAddr: 0xBE0C, symBinAddr: 0x23F14, symSize: 0xA8 }
  - { offset: 0x1CD34, size: 0x8, addend: 0x0, symName: __RINvNtNtCs6IAuOt8vWmF_3syn3gen9visit_mut21visit_trait_bound_mutNtNtCs8noNfkmVAKC_18tracing_attributes6expand20IdentAndTypesRenamerEB13_, symObjAddr: 0xBEB4, symBinAddr: 0x23FBC, symSize: 0xA8 }
  - { offset: 0x1CD94, size: 0x8, addend: 0x0, symName: __RINvNtNtCs6IAuOt8vWmF_3syn3gen9visit_mut22visit_expr_closure_mutNtNtCs8noNfkmVAKC_18tracing_attributes6expand15ImplTraitEraserEB14_, symObjAddr: 0xBF5C, symBinAddr: 0x24064, symSize: 0x16C }
  - { offset: 0x1CE47, size: 0x8, addend: 0x0, symName: __RINvNtNtCs6IAuOt8vWmF_3syn3gen9visit_mut22visit_expr_closure_mutNtNtCs8noNfkmVAKC_18tracing_attributes6expand20IdentAndTypesRenamerEB14_, symObjAddr: 0xC0C8, symBinAddr: 0x241D0, symSize: 0x16C }
  - { offset: 0x1CEFA, size: 0x8, addend: 0x0, symName: __RINvNtNtCs6IAuOt8vWmF_3syn3gen9visit_mut22visit_fields_named_mutNtNtCs8noNfkmVAKC_18tracing_attributes6expand15ImplTraitEraserEB14_, symObjAddr: 0xC234, symBinAddr: 0x2433C, symSize: 0xC8 }
  - { offset: 0x1CF8F, size: 0x8, addend: 0x0, symName: __RINvNtNtCs6IAuOt8vWmF_3syn3gen9visit_mut22visit_fields_named_mutNtNtCs8noNfkmVAKC_18tracing_attributes6expand20IdentAndTypesRenamerEB14_, symObjAddr: 0xC2FC, symBinAddr: 0x24404, symSize: 0xC8 }
  - { offset: 0x1D024, size: 0x8, addend: 0x0, symName: __RINvNtNtCs6IAuOt8vWmF_3syn3gen9visit_mut22visit_foreign_item_mutNtNtCs8noNfkmVAKC_18tracing_attributes6expand15ImplTraitEraserEB14_, symObjAddr: 0xC3C4, symBinAddr: 0x244CC, symSize: 0x168 }
  - { offset: 0x1D0F4, size: 0x8, addend: 0x0, symName: __RINvNtNtCs6IAuOt8vWmF_3syn3gen9visit_mut22visit_foreign_item_mutNtNtCs8noNfkmVAKC_18tracing_attributes6expand20IdentAndTypesRenamerEB14_, symObjAddr: 0xC52C, symBinAddr: 0x24634, symSize: 0x168 }
  - { offset: 0x1D1C4, size: 0x8, addend: 0x0, symName: __RINvNtNtCs6IAuOt8vWmF_3syn3gen9visit_mut22visit_impl_item_fn_mutNtNtCs8noNfkmVAKC_18tracing_attributes6expand15ImplTraitEraserEB14_, symObjAddr: 0xC694, symBinAddr: 0x2479C, symSize: 0x70 }
  - { offset: 0x1D206, size: 0x8, addend: 0x0, symName: __RINvNtNtCs6IAuOt8vWmF_3syn3gen9visit_mut22visit_impl_item_fn_mutNtNtCs8noNfkmVAKC_18tracing_attributes6expand20IdentAndTypesRenamerEB14_, symObjAddr: 0xC704, symBinAddr: 0x2480C, symSize: 0x70 }
  - { offset: 0x1D248, size: 0x8, addend: 0x0, symName: __RINvNtNtCs6IAuOt8vWmF_3syn3gen9visit_mut22visit_lit_byte_str_mutNtNtCs8noNfkmVAKC_18tracing_attributes6expand15ImplTraitEraserEB14_, symObjAddr: 0xC774, symBinAddr: 0x2487C, symSize: 0x24 }
  - { offset: 0x1D28A, size: 0x8, addend: 0x0, symName: __RINvNtNtCs6IAuOt8vWmF_3syn3gen9visit_mut22visit_lit_byte_str_mutNtNtCs8noNfkmVAKC_18tracing_attributes6expand20IdentAndTypesRenamerEB14_, symObjAddr: 0xC798, symBinAddr: 0x248A0, symSize: 0x24 }
  - { offset: 0x1D2CC, size: 0x8, addend: 0x0, symName: __RINvNtNtCs6IAuOt8vWmF_3syn3gen9visit_mut22visit_path_segment_mutNtNtCs8noNfkmVAKC_18tracing_attributes6expand15ImplTraitEraserEB14_, symObjAddr: 0xC7BC, symBinAddr: 0x248C4, symSize: 0x50 }
  - { offset: 0x1D30E, size: 0x8, addend: 0x0, symName: __RINvNtNtCs6IAuOt8vWmF_3syn3gen9visit_mut22visit_path_segment_mutNtNtCs8noNfkmVAKC_18tracing_attributes6expand20IdentAndTypesRenamerEB14_, symObjAddr: 0xC80C, symBinAddr: 0x24914, symSize: 0x50 }
  - { offset: 0x1D350, size: 0x8, addend: 0x0, symName: __RINvNtNtCs6IAuOt8vWmF_3syn3gen9visit_mut22visit_range_limits_mutNtNtCs8noNfkmVAKC_18tracing_attributes6expand15ImplTraitEraserEB14_, symObjAddr: 0xC85C, symBinAddr: 0x24964, symSize: 0x6C }
  - { offset: 0x1D392, size: 0x8, addend: 0x0, symName: __RINvNtNtCs6IAuOt8vWmF_3syn3gen9visit_mut22visit_range_limits_mutNtNtCs8noNfkmVAKC_18tracing_attributes6expand20IdentAndTypesRenamerEB14_, symObjAddr: 0xC8C8, symBinAddr: 0x249D0, symSize: 0x6C }
  - { offset: 0x1D3D4, size: 0x8, addend: 0x0, symName: __RINvNtNtCs6IAuOt8vWmF_3syn3gen9visit_mut22visit_type_bare_fn_mutNtNtCs8noNfkmVAKC_18tracing_attributes6expand15ImplTraitEraserEB14_, symObjAddr: 0xC934, symBinAddr: 0x24A3C, symSize: 0x1CC }
  - { offset: 0x1D4BB, size: 0x8, addend: 0x0, symName: __RINvNtNtCs6IAuOt8vWmF_3syn3gen9visit_mut22visit_where_clause_mutNtNtCs8noNfkmVAKC_18tracing_attributes6expand15ImplTraitEraserEB14_, symObjAddr: 0xCB00, symBinAddr: 0x24C08, symSize: 0xC8 }
  - { offset: 0x1D550, size: 0x8, addend: 0x0, symName: __RINvNtNtCs6IAuOt8vWmF_3syn3gen9visit_mut22visit_where_clause_mutNtNtCs8noNfkmVAKC_18tracing_attributes6expand20IdentAndTypesRenamerEB14_, symObjAddr: 0xCBC8, symBinAddr: 0x24CD0, symSize: 0xC8 }
  - { offset: 0x1D5E5, size: 0x8, addend: 0x0, symName: __RINvNtNtCs6IAuOt8vWmF_3syn3gen9visit_mut23visit_bare_variadic_mutNtNtCs8noNfkmVAKC_18tracing_attributes6expand15ImplTraitEraserEB15_, symObjAddr: 0xCC90, symBinAddr: 0x24D98, symSize: 0x94 }
  - { offset: 0x1D645, size: 0x8, addend: 0x0, symName: __RINvNtNtCs6IAuOt8vWmF_3syn3gen9visit_mut23visit_expr_continue_mutNtNtCs8noNfkmVAKC_18tracing_attributes6expand15ImplTraitEraserEB15_, symObjAddr: 0xCD24, symBinAddr: 0x24E2C, symSize: 0x94 }
  - { offset: 0x1D6A5, size: 0x8, addend: 0x0, symName: __RINvNtNtCs6IAuOt8vWmF_3syn3gen9visit_mut23visit_expr_continue_mutNtNtCs8noNfkmVAKC_18tracing_attributes6expand20IdentAndTypesRenamerEB15_, symObjAddr: 0xCDB8, symBinAddr: 0x24EC0, symSize: 0x94 }
  - { offset: 0x1D705, size: 0x8, addend: 0x0, symName: __RINvNtNtCs6IAuOt8vWmF_3syn3gen9visit_mut23visit_expr_for_loop_mutNtNtCs8noNfkmVAKC_18tracing_attributes6expand15ImplTraitEraserEB15_, symObjAddr: 0xCE4C, symBinAddr: 0x24F54, symSize: 0x10C }
  - { offset: 0x1D765, size: 0x8, addend: 0x0, symName: __RINvNtNtCs6IAuOt8vWmF_3syn3gen9visit_mut23visit_expr_for_loop_mutNtNtCs8noNfkmVAKC_18tracing_attributes6expand20IdentAndTypesRenamerEB15_, symObjAddr: 0xCF58, symBinAddr: 0x25060, symSize: 0x10C }
  - { offset: 0x1D7C5, size: 0x8, addend: 0x0, symName: __RINvNtNtCs6IAuOt8vWmF_3syn3gen9visit_mut23visit_expr_raw_addr_mutNtNtCs8noNfkmVAKC_18tracing_attributes6expand15ImplTraitEraserEB15_, symObjAddr: 0xD064, symBinAddr: 0x2516C, symSize: 0x88 }
  - { offset: 0x1D807, size: 0x8, addend: 0x0, symName: __RINvNtNtCs6IAuOt8vWmF_3syn3gen9visit_mut23visit_expr_raw_addr_mutNtNtCs8noNfkmVAKC_18tracing_attributes6expand20IdentAndTypesRenamerEB15_, symObjAddr: 0xD0EC, symBinAddr: 0x251F4, symSize: 0x88 }
  - { offset: 0x1D849, size: 0x8, addend: 0x0, symName: __RINvNtNtCs6IAuOt8vWmF_3syn3gen9visit_mut23visit_generic_param_mutNtNtCs8noNfkmVAKC_18tracing_attributes6expand15ImplTraitEraserEB15_, symObjAddr: 0xD174, symBinAddr: 0x2527C, symSize: 0xE8 }
  - { offset: 0x1D8DD, size: 0x8, addend: 0x0, symName: __RINvNtNtCs6IAuOt8vWmF_3syn3gen9visit_mut23visit_generic_param_mutNtNtCs8noNfkmVAKC_18tracing_attributes6expand20IdentAndTypesRenamerEB15_, symObjAddr: 0xD25C, symBinAddr: 0x25364, symSize: 0xE8 }
  - { offset: 0x1D971, size: 0x8, addend: 0x0, symName: __RINvNtNtCs6IAuOt8vWmF_3syn3gen9visit_mut23visit_pat_reference_mutNtNtCs8noNfkmVAKC_18tracing_attributes6expand15ImplTraitEraserEB15_, symObjAddr: 0xD344, symBinAddr: 0x2544C, symSize: 0x78 }
  - { offset: 0x1D9B3, size: 0x8, addend: 0x0, symName: __RINvNtNtCs6IAuOt8vWmF_3syn3gen9visit_mut23visit_pat_reference_mutNtNtCs8noNfkmVAKC_18tracing_attributes6expand20IdentAndTypesRenamerEB15_, symObjAddr: 0xD3BC, symBinAddr: 0x254C4, symSize: 0x78 }
  - { offset: 0x1D9F5, size: 0x8, addend: 0x0, symName: __RINvNtNtCs6IAuOt8vWmF_3syn3gen9visit_mut23visit_trait_item_fn_mutNtNtCs8noNfkmVAKC_18tracing_attributes6expand15ImplTraitEraserEB15_, symObjAddr: 0xD434, symBinAddr: 0x2553C, symSize: 0xA8 }
  - { offset: 0x1DA55, size: 0x8, addend: 0x0, symName: __RINvNtNtCs6IAuOt8vWmF_3syn3gen9visit_mut23visit_trait_item_fn_mutNtNtCs8noNfkmVAKC_18tracing_attributes6expand20IdentAndTypesRenamerEB15_, symObjAddr: 0xD4DC, symBinAddr: 0x255E4, symSize: 0xA8 }
  - { offset: 0x1DAB5, size: 0x8, addend: 0x0, symName: __RINvNtNtCs6IAuOt8vWmF_3syn3gen9visit_mut24visit_captured_param_mutNtNtCs8noNfkmVAKC_18tracing_attributes6expand15ImplTraitEraserEB16_, symObjAddr: 0xD584, symBinAddr: 0x2568C, symSize: 0x94 }
  - { offset: 0x1DB2B, size: 0x8, addend: 0x0, symName: __RINvNtNtCs6IAuOt8vWmF_3syn3gen9visit_mut24visit_captured_param_mutNtNtCs8noNfkmVAKC_18tracing_attributes6expand20IdentAndTypesRenamerEB16_, symObjAddr: 0xD618, symBinAddr: 0x25720, symSize: 0x94 }
  - { offset: 0x1DBA1, size: 0x8, addend: 0x0, symName: __RINvNtNtCs6IAuOt8vWmF_3syn3gen9visit_mut24visit_expr_reference_mutNtNtCs8noNfkmVAKC_18tracing_attributes6expand15ImplTraitEraserEB16_, symObjAddr: 0xD6AC, symBinAddr: 0x257B4, symSize: 0x78 }
  - { offset: 0x1DBE3, size: 0x8, addend: 0x0, symName: __RINvNtNtCs6IAuOt8vWmF_3syn3gen9visit_mut24visit_expr_reference_mutNtNtCs8noNfkmVAKC_18tracing_attributes6expand20IdentAndTypesRenamerEB16_, symObjAddr: 0xD724, symBinAddr: 0x2582C, symSize: 0x78 }
  - { offset: 0x1DC25, size: 0x8, addend: 0x0, symName: __RINvNtNtCs6IAuOt8vWmF_3syn3gen9visit_mut24visit_expr_try_block_mutNtNtCs8noNfkmVAKC_18tracing_attributes6expand15ImplTraitEraserEB16_, symObjAddr: 0xD79C, symBinAddr: 0x258A4, symSize: 0x50 }
  - { offset: 0x1DC67, size: 0x8, addend: 0x0, symName: __RINvNtNtCs6IAuOt8vWmF_3syn3gen9visit_mut24visit_expr_try_block_mutNtNtCs8noNfkmVAKC_18tracing_attributes6expand20IdentAndTypesRenamerEB16_, symObjAddr: 0xD7EC, symBinAddr: 0x258F4, symSize: 0x50 }
  - { offset: 0x1DCA9, size: 0x8, addend: 0x0, symName: __RINvNtNtCs6IAuOt8vWmF_3syn3gen9visit_mut24visit_fields_unnamed_mutNtNtCs8noNfkmVAKC_18tracing_attributes6expand15ImplTraitEraserEB16_, symObjAddr: 0xD83C, symBinAddr: 0x25944, symSize: 0xC8 }
  - { offset: 0x1DD3E, size: 0x8, addend: 0x0, symName: __RINvNtNtCs6IAuOt8vWmF_3syn3gen9visit_mut24visit_fields_unnamed_mutNtNtCs8noNfkmVAKC_18tracing_attributes6expand20IdentAndTypesRenamerEB16_, symObjAddr: 0xD904, symBinAddr: 0x25A0C, symSize: 0xC8 }
  - { offset: 0x1DDD3, size: 0x8, addend: 0x0, symName: __RINvNtNtCs6IAuOt8vWmF_3syn3gen9visit_mut24visit_impl_item_type_mutNtNtCs8noNfkmVAKC_18tracing_attributes6expand15ImplTraitEraserEB16_, symObjAddr: 0xD9CC, symBinAddr: 0x25AD4, symSize: 0x80 }
  - { offset: 0x1DE15, size: 0x8, addend: 0x0, symName: __RINvNtNtCs6IAuOt8vWmF_3syn3gen9visit_mut24visit_impl_item_type_mutNtNtCs8noNfkmVAKC_18tracing_attributes6expand20IdentAndTypesRenamerEB16_, symObjAddr: 0xDA4C, symBinAddr: 0x25B54, symSize: 0x80 }
  - { offset: 0x1DE57, size: 0x8, addend: 0x0, symName: __RINvNtNtCs6IAuOt8vWmF_3syn3gen9visit_mut24visit_lifetime_param_mutNtNtCs8noNfkmVAKC_18tracing_attributes6expand15ImplTraitEraserEB16_, symObjAddr: 0xDACC, symBinAddr: 0x25BD4, symSize: 0xE0 }
  - { offset: 0x1DEEC, size: 0x8, addend: 0x0, symName: __RINvNtNtCs6IAuOt8vWmF_3syn3gen9visit_mut24visit_lifetime_param_mutNtNtCs8noNfkmVAKC_18tracing_attributes6expand20IdentAndTypesRenamerEB16_, symObjAddr: 0xDBAC, symBinAddr: 0x25CB4, symSize: 0xE0 }
  - { offset: 0x1DF81, size: 0x8, addend: 0x0, symName: __RINvNtNtCs6IAuOt8vWmF_3syn3gen9visit_mut24visit_path_arguments_mutNtNtCs8noNfkmVAKC_18tracing_attributes6expand15ImplTraitEraserEB16_, symObjAddr: 0xDC8C, symBinAddr: 0x25D94, symSize: 0xD4 }
  - { offset: 0x1DFF7, size: 0x8, addend: 0x0, symName: __RINvNtNtCs6IAuOt8vWmF_3syn3gen9visit_mut24visit_path_arguments_mutNtNtCs8noNfkmVAKC_18tracing_attributes6expand20IdentAndTypesRenamerEB16_, symObjAddr: 0xDD60, symBinAddr: 0x25E68, symSize: 0xD4 }
  - { offset: 0x1E06D, size: 0x8, addend: 0x0, symName: __RINvNtNtCs6IAuOt8vWmF_3syn3gen9visit_mut24visit_predicate_type_mutNtNtCs8noNfkmVAKC_18tracing_attributes6expand15ImplTraitEraserEB16_, symObjAddr: 0xDE34, symBinAddr: 0x25F3C, symSize: 0x128 }
  - { offset: 0x1E120, size: 0x8, addend: 0x0, symName: __RINvNtNtCs6IAuOt8vWmF_3syn3gen9visit_mut24visit_predicate_type_mutNtNtCs8noNfkmVAKC_18tracing_attributes6expand20IdentAndTypesRenamerEB16_, symObjAddr: 0xDF5C, symBinAddr: 0x26064, symSize: 0x128 }
  - { offset: 0x1E1D3, size: 0x8, addend: 0x0, symName: __RINvNtNtCs6IAuOt8vWmF_3syn3gen9visit_mut24visit_type_reference_mutNtNtCs8noNfkmVAKC_18tracing_attributes6expand15ImplTraitEraserEB16_, symObjAddr: 0xE084, symBinAddr: 0x2618C, symSize: 0xBC }
  - { offset: 0x1E233, size: 0x8, addend: 0x0, symName: __RINvNtNtCs6IAuOt8vWmF_3syn3gen9visit_mut24visit_vis_restricted_mutNtNtCs8noNfkmVAKC_18tracing_attributes6expand15ImplTraitEraserEB16_, symObjAddr: 0xE140, symBinAddr: 0x26248, symSize: 0x68 }
  - { offset: 0x1E275, size: 0x8, addend: 0x0, symName: __RINvNtNtCs6IAuOt8vWmF_3syn3gen9visit_mut24visit_vis_restricted_mutNtNtCs8noNfkmVAKC_18tracing_attributes6expand20IdentAndTypesRenamerEB16_, symObjAddr: 0xE1A8, symBinAddr: 0x262B0, symSize: 0x68 }
  - { offset: 0x1E2B7, size: 0x8, addend: 0x0, symName: __RINvNtNtCs6IAuOt8vWmF_3syn3gen9visit_mut25visit_bound_lifetimes_mutNtNtCs8noNfkmVAKC_18tracing_attributes6expand15ImplTraitEraserEB17_, symObjAddr: 0xE210, symBinAddr: 0x26318, symSize: 0xC8 }
  - { offset: 0x1E34C, size: 0x8, addend: 0x0, symName: __RINvNtNtCs6IAuOt8vWmF_3syn3gen9visit_mut25visit_bound_lifetimes_mutNtNtCs8noNfkmVAKC_18tracing_attributes6expand20IdentAndTypesRenamerEB17_, symObjAddr: 0xE2D8, symBinAddr: 0x263E0, symSize: 0xC8 }
  - { offset: 0x1E3E1, size: 0x8, addend: 0x0, symName: __RINvNtNtCs6IAuOt8vWmF_3syn3gen9visit_mut25visit_foreign_item_fn_mutNtNtCs8noNfkmVAKC_18tracing_attributes6expand15ImplTraitEraserEB17_, symObjAddr: 0xE3A0, symBinAddr: 0x264A8, symSize: 0x60 }
  - { offset: 0x1E423, size: 0x8, addend: 0x0, symName: __RINvNtNtCs6IAuOt8vWmF_3syn3gen9visit_mut25visit_foreign_item_fn_mutNtNtCs8noNfkmVAKC_18tracing_attributes6expand20IdentAndTypesRenamerEB17_, symObjAddr: 0xE400, symBinAddr: 0x26508, symSize: 0x60 }
  - { offset: 0x1E465, size: 0x8, addend: 0x0, symName: __RINvNtNtCs6IAuOt8vWmF_3syn3gen9visit_mut25visit_impl_item_const_mutNtNtCs8noNfkmVAKC_18tracing_attributes6expand15ImplTraitEraserEB17_, symObjAddr: 0xE460, symBinAddr: 0x26568, symSize: 0x90 }
  - { offset: 0x1E4A7, size: 0x8, addend: 0x0, symName: __RINvNtNtCs6IAuOt8vWmF_3syn3gen9visit_mut25visit_impl_item_const_mutNtNtCs8noNfkmVAKC_18tracing_attributes6expand20IdentAndTypesRenamerEB17_, symObjAddr: 0xE4F0, symBinAddr: 0x265F8, symSize: 0x90 }
  - { offset: 0x1E4E9, size: 0x8, addend: 0x0, symName: __RINvNtNtCs6IAuOt8vWmF_3syn3gen9visit_mut25visit_impl_item_macro_mutNtNtCs8noNfkmVAKC_18tracing_attributes6expand15ImplTraitEraserEB17_, symObjAddr: 0xE580, symBinAddr: 0x26688, symSize: 0x50 }
  - { offset: 0x1E52B, size: 0x8, addend: 0x0, symName: __RINvNtNtCs6IAuOt8vWmF_3syn3gen9visit_mut25visit_impl_item_macro_mutNtNtCs8noNfkmVAKC_18tracing_attributes6expand20IdentAndTypesRenamerEB17_, symObjAddr: 0xE5D0, symBinAddr: 0x266D8, symSize: 0x50 }
  - { offset: 0x1E56D, size: 0x8, addend: 0x0, symName: __RINvNtNtCs6IAuOt8vWmF_3syn3gen9visit_mut25visit_macro_delimiter_mutNtNtCs8noNfkmVAKC_18tracing_attributes6expand15ImplTraitEraserEB17_, symObjAddr: 0xE620, symBinAddr: 0x26728, symSize: 0xA8 }
  - { offset: 0x1E5AF, size: 0x8, addend: 0x0, symName: __RINvNtNtCs6IAuOt8vWmF_3syn3gen9visit_mut25visit_macro_delimiter_mutNtNtCs8noNfkmVAKC_18tracing_attributes6expand20IdentAndTypesRenamerEB17_, symObjAddr: 0xE6C8, symBinAddr: 0x267D0, symSize: 0xA8 }
  - { offset: 0x1E5F1, size: 0x8, addend: 0x0, symName: __RINvNtNtCs6IAuOt8vWmF_3syn3gen9visit_mut25visit_meta_name_value_mutNtNtCs8noNfkmVAKC_18tracing_attributes6expand15ImplTraitEraserEB17_, symObjAddr: 0xE770, symBinAddr: 0x26878, symSize: 0x50 }
  - { offset: 0x1E633, size: 0x8, addend: 0x0, symName: __RINvNtNtCs6IAuOt8vWmF_3syn3gen9visit_mut25visit_meta_name_value_mutNtNtCs8noNfkmVAKC_18tracing_attributes6expand20IdentAndTypesRenamerEB17_, symObjAddr: 0xE7C0, symBinAddr: 0x268C8, symSize: 0x50 }
  - { offset: 0x1E675, size: 0x8, addend: 0x0, symName: __RINvNtNtCs6IAuOt8vWmF_3syn3gen9visit_mut25visit_precise_capture_mutNtNtCs8noNfkmVAKC_18tracing_attributes6expand15ImplTraitEraserEB17_, symObjAddr: 0xE810, symBinAddr: 0x26918, symSize: 0xC8 }
  - { offset: 0x1E70A, size: 0x8, addend: 0x0, symName: __RINvNtNtCs6IAuOt8vWmF_3syn3gen9visit_mut25visit_precise_capture_mutNtNtCs8noNfkmVAKC_18tracing_attributes6expand20IdentAndTypesRenamerEB17_, symObjAddr: 0xE8D8, symBinAddr: 0x269E0, symSize: 0xC8 }
  - { offset: 0x1E79F, size: 0x8, addend: 0x0, symName: __RINvNtNtCs6IAuOt8vWmF_3syn3gen9visit_mut25visit_trait_item_type_mutNtNtCs8noNfkmVAKC_18tracing_attributes6expand15ImplTraitEraserEB17_, symObjAddr: 0xE9A0, symBinAddr: 0x26AA8, symSize: 0x148 }
  - { offset: 0x1E84A, size: 0x8, addend: 0x0, symName: __RINvNtNtCs6IAuOt8vWmF_3syn3gen9visit_mut25visit_trait_item_type_mutNtNtCs8noNfkmVAKC_18tracing_attributes6expand20IdentAndTypesRenamerEB17_, symObjAddr: 0xEAE8, symBinAddr: 0x26BF0, symSize: 0x148 }
  - { offset: 0x1E8F5, size: 0x8, addend: 0x0, symName: __RINvNtNtCs6IAuOt8vWmF_3syn3gen9visit_mut25visit_type_impl_trait_mutNtNtCs8noNfkmVAKC_18tracing_attributes6expand15ImplTraitEraserEB17_, symObjAddr: 0xEC30, symBinAddr: 0x26D38, symSize: 0xC8 }
  - { offset: 0x1E98A, size: 0x8, addend: 0x0, symName: __RINvNtNtCs6IAuOt8vWmF_3syn3gen9visit_mut25visit_where_predicate_mutNtNtCs8noNfkmVAKC_18tracing_attributes6expand15ImplTraitEraserEB17_, symObjAddr: 0xECF8, symBinAddr: 0x26E00, symSize: 0x98 }
  - { offset: 0x1EA00, size: 0x8, addend: 0x0, symName: __RINvNtNtCs6IAuOt8vWmF_3syn3gen9visit_mut25visit_where_predicate_mutNtNtCs8noNfkmVAKC_18tracing_attributes6expand20IdentAndTypesRenamerEB17_, symObjAddr: 0xED90, symBinAddr: 0x26E98, symSize: 0x98 }
  - { offset: 0x1EA76, size: 0x8, addend: 0x0, symName: __RINvNtNtCs6IAuOt8vWmF_3syn3gen9visit_mut26visit_expr_method_call_mutNtNtCs8noNfkmVAKC_18tracing_attributes6expand15ImplTraitEraserEB18_, symObjAddr: 0xEE28, symBinAddr: 0x26F30, symSize: 0x170 }
  - { offset: 0x1EB21, size: 0x8, addend: 0x0, symName: __RINvNtNtCs6IAuOt8vWmF_3syn3gen9visit_mut26visit_expr_method_call_mutNtNtCs8noNfkmVAKC_18tracing_attributes6expand20IdentAndTypesRenamerEB18_, symObjAddr: 0xEF98, symBinAddr: 0x270A0, symSize: 0x170 }
  - { offset: 0x1EBCC, size: 0x8, addend: 0x0, symName: __RINvNtNtCs6IAuOt8vWmF_3syn3gen9visit_mut26visit_field_mutability_mutNtNtCs8noNfkmVAKC_18tracing_attributes6expand15ImplTraitEraserEB18_, symObjAddr: 0xF108, symBinAddr: 0x27210, symSize: 0x24 }
  - { offset: 0x1EC0E, size: 0x8, addend: 0x0, symName: __RINvNtNtCs6IAuOt8vWmF_3syn3gen9visit_mut26visit_field_mutability_mutNtNtCs8noNfkmVAKC_18tracing_attributes6expand20IdentAndTypesRenamerEB18_, symObjAddr: 0xF12C, symBinAddr: 0x27234, symSize: 0x24 }
  - { offset: 0x1EC50, size: 0x8, addend: 0x0, symName: __RINvNtNtCs6IAuOt8vWmF_3syn3gen9visit_mut26visit_generic_argument_mutNtNtCs8noNfkmVAKC_18tracing_attributes6expand15ImplTraitEraserEB18_, symObjAddr: 0xF150, symBinAddr: 0x27258, symSize: 0x1A8 }
  - { offset: 0x1ED3E, size: 0x8, addend: 0x0, symName: __RINvNtNtCs6IAuOt8vWmF_3syn3gen9visit_mut26visit_generic_argument_mutNtNtCs8noNfkmVAKC_18tracing_attributes6expand20IdentAndTypesRenamerEB18_, symObjAddr: 0xF2F8, symBinAddr: 0x27400, symSize: 0x1A8 }
  - { offset: 0x1EE2C, size: 0x8, addend: 0x0, symName: __RINvNtNtCs6IAuOt8vWmF_3syn3gen9visit_mut26visit_item_foreign_mod_mutNtNtCs8noNfkmVAKC_18tracing_attributes6expand15ImplTraitEraserEB18_, symObjAddr: 0xF4A0, symBinAddr: 0x275A8, symSize: 0xB0 }
  - { offset: 0x1EEA2, size: 0x8, addend: 0x0, symName: __RINvNtNtCs6IAuOt8vWmF_3syn3gen9visit_mut26visit_item_foreign_mod_mutNtNtCs8noNfkmVAKC_18tracing_attributes6expand20IdentAndTypesRenamerEB18_, symObjAddr: 0xF550, symBinAddr: 0x27658, symSize: 0xB0 }
  - { offset: 0x1EF18, size: 0x8, addend: 0x0, symName: __RINvNtNtCs6IAuOt8vWmF_3syn3gen9visit_mut26visit_item_trait_alias_mutNtNtCs8noNfkmVAKC_18tracing_attributes6expand15ImplTraitEraserEB18_, symObjAddr: 0xF600, symBinAddr: 0x27708, symSize: 0x100 }
  - { offset: 0x1EFAD, size: 0x8, addend: 0x0, symName: __RINvNtNtCs6IAuOt8vWmF_3syn3gen9visit_mut26visit_item_trait_alias_mutNtNtCs8noNfkmVAKC_18tracing_attributes6expand20IdentAndTypesRenamerEB18_, symObjAddr: 0xF700, symBinAddr: 0x27808, symSize: 0x100 }
  - { offset: 0x1F042, size: 0x8, addend: 0x0, symName: __RINvNtNtCs6IAuOt8vWmF_3syn3gen9visit_mut26visit_pat_tuple_struct_mutNtNtCs8noNfkmVAKC_18tracing_attributes6expand15ImplTraitEraserEB18_, symObjAddr: 0xF800, symBinAddr: 0x27908, symSize: 0x134 }
  - { offset: 0x1F0F5, size: 0x8, addend: 0x0, symName: __RINvNtNtCs6IAuOt8vWmF_3syn3gen9visit_mut26visit_pat_tuple_struct_mutNtNtCs8noNfkmVAKC_18tracing_attributes6expand20IdentAndTypesRenamerEB18_, symObjAddr: 0xF934, symBinAddr: 0x27A3C, symSize: 0x134 }
  - { offset: 0x1F1A8, size: 0x8, addend: 0x0, symName: __RINvNtNtCs6IAuOt8vWmF_3syn3gen9visit_mut26visit_trait_item_const_mutNtNtCs8noNfkmVAKC_18tracing_attributes6expand15ImplTraitEraserEB18_, symObjAddr: 0xFA68, symBinAddr: 0x27B70, symSize: 0xC4 }
  - { offset: 0x1F208, size: 0x8, addend: 0x0, symName: __RINvNtNtCs6IAuOt8vWmF_3syn3gen9visit_mut26visit_trait_item_const_mutNtNtCs8noNfkmVAKC_18tracing_attributes6expand20IdentAndTypesRenamerEB18_, symObjAddr: 0xFB2C, symBinAddr: 0x27C34, symSize: 0xC4 }
  - { offset: 0x1F268, size: 0x8, addend: 0x0, symName: __RINvNtNtCs6IAuOt8vWmF_3syn3gen9visit_mut26visit_trait_item_macro_mutNtNtCs8noNfkmVAKC_18tracing_attributes6expand15ImplTraitEraserEB18_, symObjAddr: 0xFBF0, symBinAddr: 0x27CF8, symSize: 0x50 }
  - { offset: 0x1F2AA, size: 0x8, addend: 0x0, symName: __RINvNtNtCs6IAuOt8vWmF_3syn3gen9visit_mut26visit_trait_item_macro_mutNtNtCs8noNfkmVAKC_18tracing_attributes6expand20IdentAndTypesRenamerEB18_, symObjAddr: 0xFC40, symBinAddr: 0x27D48, symSize: 0x50 }
  - { offset: 0x1F2EC, size: 0x8, addend: 0x0, symName: __RINvNtNtCs6IAuOt8vWmF_3syn3gen9visit_mut26visit_type_param_bound_mutNtNtCs8noNfkmVAKC_18tracing_attributes6expand15ImplTraitEraserEB18_, symObjAddr: 0xFC90, symBinAddr: 0x27D98, symSize: 0x12C }
  - { offset: 0x1F39E, size: 0x8, addend: 0x0, symName: __RINvNtNtCs6IAuOt8vWmF_3syn3gen9visit_mut26visit_type_param_bound_mutNtNtCs8noNfkmVAKC_18tracing_attributes6expand20IdentAndTypesRenamerEB18_, symObjAddr: 0xFDBC, symBinAddr: 0x27EC4, symSize: 0x12C }
  - { offset: 0x1F450, size: 0x8, addend: 0x0, symName: __RINvNtNtCs6IAuOt8vWmF_3syn3gen9visit_mut27visit_foreign_item_type_mutNtNtCs8noNfkmVAKC_18tracing_attributes6expand15ImplTraitEraserEB19_, symObjAddr: 0xFEE8, symBinAddr: 0x27FF0, symSize: 0x70 }
  - { offset: 0x1F492, size: 0x8, addend: 0x0, symName: __RINvNtNtCs6IAuOt8vWmF_3syn3gen9visit_mut27visit_foreign_item_type_mutNtNtCs8noNfkmVAKC_18tracing_attributes6expand20IdentAndTypesRenamerEB19_, symObjAddr: 0xFF58, symBinAddr: 0x28060, symSize: 0x70 }
  - { offset: 0x1F4D4, size: 0x8, addend: 0x0, symName: __RINvNtNtCs6IAuOt8vWmF_3syn3gen9visit_mut27visit_item_extern_crate_mutNtNtCs8noNfkmVAKC_18tracing_attributes6expand15ImplTraitEraserEB19_, symObjAddr: 0xFFC8, symBinAddr: 0x280D0, symSize: 0xB4 }
  - { offset: 0x1F534, size: 0x8, addend: 0x0, symName: __RINvNtNtCs6IAuOt8vWmF_3syn3gen9visit_mut27visit_item_extern_crate_mutNtNtCs8noNfkmVAKC_18tracing_attributes6expand20IdentAndTypesRenamerEB19_, symObjAddr: 0x1007C, symBinAddr: 0x28184, symSize: 0xB4 }
  - { offset: 0x1F594, size: 0x8, addend: 0x0, symName: __RINvNtNtCs6IAuOt8vWmF_3syn3gen9visit_mut27visit_static_mutability_mutNtNtCs8noNfkmVAKC_18tracing_attributes6expand15ImplTraitEraserEB19_, symObjAddr: 0x10130, symBinAddr: 0x28238, symSize: 0x60 }
  - { offset: 0x1F5D6, size: 0x8, addend: 0x0, symName: __RINvNtNtCs6IAuOt8vWmF_3syn3gen9visit_mut27visit_static_mutability_mutNtNtCs8noNfkmVAKC_18tracing_attributes6expand20IdentAndTypesRenamerEB19_, symObjAddr: 0x10190, symBinAddr: 0x28298, symSize: 0x60 }
  - { offset: 0x1F618, size: 0x8, addend: 0x0, symName: __RINvNtNtCs6IAuOt8vWmF_3syn3gen9visit_mut27visit_type_trait_object_mutNtNtCs8noNfkmVAKC_18tracing_attributes6expand15ImplTraitEraserEB19_, symObjAddr: 0x101F0, symBinAddr: 0x282F8, symSize: 0xC8 }
  - { offset: 0x1F6AD, size: 0x8, addend: 0x0, symName: __RINvNtNtCs6IAuOt8vWmF_3syn3gen9visit_mut28visit_foreign_item_macro_mutNtNtCs8noNfkmVAKC_18tracing_attributes6expand15ImplTraitEraserEB1a_, symObjAddr: 0x102B8, symBinAddr: 0x283C0, symSize: 0x50 }
  - { offset: 0x1F6EF, size: 0x8, addend: 0x0, symName: __RINvNtNtCs6IAuOt8vWmF_3syn3gen9visit_mut28visit_foreign_item_macro_mutNtNtCs8noNfkmVAKC_18tracing_attributes6expand20IdentAndTypesRenamerEB1a_, symObjAddr: 0x10308, symBinAddr: 0x28410, symSize: 0x50 }
  - { offset: 0x1F731, size: 0x8, addend: 0x0, symName: __RINvNtNtCs6IAuOt8vWmF_3syn3gen9visit_mut28visit_pointer_mutability_mutNtNtCs8noNfkmVAKC_18tracing_attributes6expand15ImplTraitEraserEB1a_, symObjAddr: 0x10358, symBinAddr: 0x28460, symSize: 0x6C }
  - { offset: 0x1F773, size: 0x8, addend: 0x0, symName: __RINvNtNtCs6IAuOt8vWmF_3syn3gen9visit_mut28visit_pointer_mutability_mutNtNtCs8noNfkmVAKC_18tracing_attributes6expand20IdentAndTypesRenamerEB1a_, symObjAddr: 0x103C4, symBinAddr: 0x284CC, symSize: 0x6C }
  - { offset: 0x1F7B5, size: 0x8, addend: 0x0, symName: __RINvNtNtCs6IAuOt8vWmF_3syn3gen9visit_mut28visit_predicate_lifetime_mutNtNtCs8noNfkmVAKC_18tracing_attributes6expand15ImplTraitEraserEB1a_, symObjAddr: 0x10430, symBinAddr: 0x28538, symSize: 0xD0 }
  - { offset: 0x1F84A, size: 0x8, addend: 0x0, symName: __RINvNtNtCs6IAuOt8vWmF_3syn3gen9visit_mut28visit_predicate_lifetime_mutNtNtCs8noNfkmVAKC_18tracing_attributes6expand20IdentAndTypesRenamerEB1a_, symObjAddr: 0x10500, symBinAddr: 0x28608, symSize: 0xD0 }
  - { offset: 0x1F8DF, size: 0x8, addend: 0x0, symName: __RINvNtNtCs6IAuOt8vWmF_3syn3gen9visit_mut29visit_foreign_item_static_mutNtNtCs8noNfkmVAKC_18tracing_attributes6expand15ImplTraitEraserEB1b_, symObjAddr: 0x105D0, symBinAddr: 0x286D8, symSize: 0xA8 }
  - { offset: 0x1F921, size: 0x8, addend: 0x0, symName: __RINvNtNtCs6IAuOt8vWmF_3syn3gen9visit_mut29visit_foreign_item_static_mutNtNtCs8noNfkmVAKC_18tracing_attributes6expand20IdentAndTypesRenamerEB1b_, symObjAddr: 0x10678, symBinAddr: 0x28780, symSize: 0xA8 }
  - { offset: 0x1F963, size: 0x8, addend: 0x0, symName: __RINvNtNtCs6IAuOt8vWmF_3syn3gen9visit_mut30visit_trait_bound_modifier_mutNtNtCs8noNfkmVAKC_18tracing_attributes6expand15ImplTraitEraserEB1c_, symObjAddr: 0x10720, symBinAddr: 0x28828, symSize: 0x60 }
  - { offset: 0x1F9A5, size: 0x8, addend: 0x0, symName: __RINvNtNtCs6IAuOt8vWmF_3syn3gen9visit_mut30visit_trait_bound_modifier_mutNtNtCs8noNfkmVAKC_18tracing_attributes6expand20IdentAndTypesRenamerEB1c_, symObjAddr: 0x10780, symBinAddr: 0x28888, symSize: 0x60 }
  - { offset: 0x1F9E7, size: 0x8, addend: 0x0, symName: __RINvNtNtCs6IAuOt8vWmF_3syn3gen9visit_mut41visit_parenthesized_generic_arguments_mutNtNtCs8noNfkmVAKC_18tracing_attributes6expand15ImplTraitEraserEB1n_, symObjAddr: 0x107E0, symBinAddr: 0x288E8, symSize: 0xD8 }
  - { offset: 0x1FA7C, size: 0x8, addend: 0x0, symName: __RINvNtNtCs6IAuOt8vWmF_3syn3gen9visit_mut41visit_parenthesized_generic_arguments_mutNtNtCs8noNfkmVAKC_18tracing_attributes6expand20IdentAndTypesRenamerEB1n_, symObjAddr: 0x108B8, symBinAddr: 0x289C0, symSize: 0xD8 }
  - { offset: 0x1FB11, size: 0x8, addend: 0x0, symName: __RINvNtNtCs6IAuOt8vWmF_3syn3gen9visit_mut43visit_angle_bracketed_generic_arguments_mutNtNtCs8noNfkmVAKC_18tracing_attributes6expand15ImplTraitEraserEB1p_, symObjAddr: 0x10990, symBinAddr: 0x28A98, symSize: 0xC8 }
  - { offset: 0x1FBA6, size: 0x8, addend: 0x0, symName: __RINvNtNtCs6IAuOt8vWmF_3syn3gen9visit_mut43visit_angle_bracketed_generic_arguments_mutNtNtCs8noNfkmVAKC_18tracing_attributes6expand20IdentAndTypesRenamerEB1p_, symObjAddr: 0x10A58, symBinAddr: 0x28B60, symSize: 0xC8 }
  - { offset: 0x2A9FE, size: 0x8, addend: 0x0, symName: __RINvMsi_NtCse1nGBsou5OW_5alloc3vecINtB6_3VecNtCs3cP53eQoTwO_11proc_macro211TokenStreamE14extend_trustedINtNtNtNtCsfvfooZQ3Axs_4core4iter8adapters3map3MapINtNtNtB1M_5slice4iter4IterNtNtCs6IAuOt8vWmF_3syn4stmt4StmtENCNvMs_NtCs8noNfkmVAKC_18tracing_attributes6expandNtB3w_9AsyncInfo9gen_async0EEB3y_, symObjAddr: 0x0, symBinAddr: 0x28C28, symSize: 0x170 }
  - { offset: 0x35E2F, size: 0x8, addend: 0x0, symName: __RINvXsd_NtCse1nGBsou5OW_5alloc3vecINtB6_3VecNtCs3cP53eQoTwO_11proc_macro211TokenStreamEINtNtNtNtCsfvfooZQ3Axs_4core4iter6traits7collect12FromIteratorBG_E9from_iterINtNtNtB1u_8adapters3map3MapINtNtB2G_6filter6FilterINtNtNtB1w_5slice4iter4IterTNtBI_5IdentTB3S_NtNtCs8noNfkmVAKC_18tracing_attributes6expand10RecordTypeEEENCNCINvB4a_9gen_blockBG_Es0_0s2_0ENCB58_s3_0EEB4c_, symObjAddr: 0x1570, symBinAddr: 0x2A198, symSize: 0x3C }
  - { offset: 0x35E70, size: 0x8, addend: 0x0, symName: __RINvXsd_NtCse1nGBsou5OW_5alloc3vecINtB6_3VecNtCs3cP53eQoTwO_11proc_macro211TokenStreamEINtNtNtNtCsfvfooZQ3Axs_4core4iter6traits7collect12FromIteratorBG_E9from_iterINtNtNtB1u_8adapters3map3MapINtNtB2G_6filter6FilterINtNtNtB1w_5slice4iter4IterTNtBI_5IdentTB3S_NtNtCs8noNfkmVAKC_18tracing_attributes6expand10RecordTypeEEENCNCINvB4a_9gen_blockNtNtCs6IAuOt8vWmF_3syn4stmt5BlockEs0_0s2_0ENCB58_s3_0EEB4c_, symObjAddr: 0x15AC, symBinAddr: 0x2A1D4, symSize: 0x3C }
  - { offset: 0x35EB1, size: 0x8, addend: 0x0, symName: __RINvXsd_NtCse1nGBsou5OW_5alloc3vecINtB6_3VecNtCs3cP53eQoTwO_11proc_macro211TokenStreamEINtNtNtNtCsfvfooZQ3Axs_4core4iter6traits7collect12FromIteratorBG_E9from_iterINtNtNtB1u_8adapters3map3MapINtNtNtB1w_5slice4iter4IterNtNtCs6IAuOt8vWmF_3syn4stmt4StmtENCNvMs_NtCs8noNfkmVAKC_18tracing_attributes6expandNtB48_9AsyncInfo9gen_async0EEB4a_, symObjAddr: 0x15E8, symBinAddr: 0x2A210, symSize: 0x40 }
  - { offset: 0x35EF1, size: 0x8, addend: 0x0, symName: __RINvXsd_NtCse1nGBsou5OW_5alloc3vecINtB6_3VecTNtCs3cP53eQoTwO_11proc_macro25IdentBH_EEINtNtNtNtCsfvfooZQ3Axs_4core4iter6traits7collect12FromIteratorBG_E9from_iterINtNtNtB1s_8adapters3map3MapINtNtB6_9into_iter8IntoIterTBH_TBH_NtNtCs8noNfkmVAKC_18tracing_attributes6expand10RecordTypeEEENCNCINvB3C_9gen_blockNtBJ_11TokenStreamEs0_0s4_0EEB3E_, symObjAddr: 0x1628, symBinAddr: 0x2A250, symSize: 0x3C }
  - { offset: 0x35F32, size: 0x8, addend: 0x0, symName: __RINvXsd_NtCse1nGBsou5OW_5alloc3vecINtB6_3VecTNtCs3cP53eQoTwO_11proc_macro25IdentBH_EEINtNtNtNtCsfvfooZQ3Axs_4core4iter6traits7collect12FromIteratorBG_E9from_iterINtNtNtB1s_8adapters3map3MapINtNtB6_9into_iter8IntoIterTBH_TBH_NtNtCs8noNfkmVAKC_18tracing_attributes6expand10RecordTypeEEENCNCINvB3C_9gen_blockNtNtCs6IAuOt8vWmF_3syn4stmt5BlockEs0_0s4_0EEB3E_, symObjAddr: 0x1664, symBinAddr: 0x2A28C, symSize: 0x3C }
  - { offset: 0x35F73, size: 0x8, addend: 0x0, symName: __RINvXsd_NtCse1nGBsou5OW_5alloc3vecINtB6_3VecTNtCs3cP53eQoTwO_11proc_macro25IdentTBH_NtNtCs8noNfkmVAKC_18tracing_attributes6expand10RecordTypeEEEINtNtNtNtCsfvfooZQ3Axs_4core4iter6traits7collect12FromIteratorBG_E9from_iterINtNtNtB2p_8adapters3map3MapINtNtB3B_7flatten7FlatMapINtNtCs6IAuOt8vWmF_3syn10punctuated8IntoIterNtNtB4s_4item5FnArgEINtNtB8_5boxed3BoxDNtNtB2n_8iterator8Iteratorp4ItemB1g_EL_ENCNCINvB1m_9gen_blockNtBJ_11TokenStreamEs0_00ENCB6o_s_0EEB1o_, symObjAddr: 0x16A0, symBinAddr: 0x2A2C8, symSize: 0x3C }
  - { offset: 0x35FB4, size: 0x8, addend: 0x0, symName: __RINvXsd_NtCse1nGBsou5OW_5alloc3vecINtB6_3VecTNtCs3cP53eQoTwO_11proc_macro25IdentTBH_NtNtCs8noNfkmVAKC_18tracing_attributes6expand10RecordTypeEEEINtNtNtNtCsfvfooZQ3Axs_4core4iter6traits7collect12FromIteratorBG_E9from_iterINtNtNtB2p_8adapters3map3MapINtNtB3B_7flatten7FlatMapINtNtCs6IAuOt8vWmF_3syn10punctuated8IntoIterNtNtB4s_4item5FnArgEINtNtB8_5boxed3BoxDNtNtB2n_8iterator8Iteratorp4ItemB1g_EL_ENCNCINvB1m_9gen_blockNtNtB4s_4stmt5BlockEs0_00ENCB6o_s_0EEB1o_, symObjAddr: 0x16DC, symBinAddr: 0x2A304, symSize: 0x3C }
  - { offset: 0x35FFB, size: 0x8, addend: 0x0, symName: __RINvXsh_NtCse1nGBsou5OW_5alloc3vecINtB6_3VecNtCs3cP53eQoTwO_11proc_macro25IdentEINtNtNtNtCsfvfooZQ3Axs_4core4iter6traits7collect6ExtendBG_E6extendINtNtB1p_6option6OptionBG_EECs8noNfkmVAKC_18tracing_attributes, symObjAddr: 0x1718, symBinAddr: 0x2A340, symSize: 0x48 }
  - { offset: 0x36050, size: 0x8, addend: 0x0, symName: __RINvXsh_NtCse1nGBsou5OW_5alloc3vecINtB6_3VecNtCs3cP53eQoTwO_11proc_macro25IdentEINtNtNtNtCsfvfooZQ3Axs_4core4iter6traits7collect6ExtendBG_E6extendINtNtNtB1n_8adapters3map3MapINtNtB6_9into_iter8IntoIterTBG_NtNtCs6IAuOt8vWmF_3syn5token5CommaEENCNvXs8_NtB3l_10punctuatedINtB3Z_10PunctuatedBG_B3h_ENtB1j_12IntoIterator9into_iter0EECs8noNfkmVAKC_18tracing_attributes, symObjAddr: 0x1760, symBinAddr: 0x2A388, symSize: 0x48 }
  - { offset: 0x360A5, size: 0x8, addend: 0x0, symName: __RINvXsh_NtCse1nGBsou5OW_5alloc3vecINtB6_3VecNtNtCs6IAuOt8vWmF_3syn3pat3PatEINtNtNtNtCsfvfooZQ3Axs_4core4iter6traits7collect6ExtendBG_E6extendINtNtB1k_6option6OptionBG_EECs8noNfkmVAKC_18tracing_attributes, symObjAddr: 0x17A8, symBinAddr: 0x2A3D0, symSize: 0x48 }
  - { offset: 0x360FA, size: 0x8, addend: 0x0, symName: __RINvXsh_NtCse1nGBsou5OW_5alloc3vecINtB6_3VecNtNtCs6IAuOt8vWmF_3syn3pat3PatEINtNtNtNtCsfvfooZQ3Axs_4core4iter6traits7collect6ExtendBG_E6extendINtNtNtB1i_8adapters3map3MapINtNtB6_9into_iter8IntoIterTBG_NtNtBK_5token5CommaEENCNvXs8_NtBK_10punctuatedINtB3F_10PunctuatedBG_B3c_ENtB1e_12IntoIterator9into_iter0EECs8noNfkmVAKC_18tracing_attributes, symObjAddr: 0x17F0, symBinAddr: 0x2A418, symSize: 0x48 }
  - { offset: 0x3614F, size: 0x8, addend: 0x0, symName: __RINvXsh_NtCse1nGBsou5OW_5alloc3vecINtB6_3VecNtNtCs6IAuOt8vWmF_3syn3pat8FieldPatEINtNtNtNtCsfvfooZQ3Axs_4core4iter6traits7collect6ExtendBG_E6extendINtNtB1p_6option6OptionBG_EECs8noNfkmVAKC_18tracing_attributes, symObjAddr: 0x1838, symBinAddr: 0x2A460, symSize: 0x48 }
  - { offset: 0x361A4, size: 0x8, addend: 0x0, symName: __RINvXsh_NtCse1nGBsou5OW_5alloc3vecINtB6_3VecNtNtCs6IAuOt8vWmF_3syn3pat8FieldPatEINtNtNtNtCsfvfooZQ3Axs_4core4iter6traits7collect6ExtendBG_E6extendINtNtNtB1n_8adapters3map3MapINtNtB6_9into_iter8IntoIterTBG_NtNtBK_5token5CommaEENCNvXs8_NtBK_10punctuatedINtB3K_10PunctuatedBG_B3h_ENtB1j_12IntoIterator9into_iter0EECs8noNfkmVAKC_18tracing_attributes, symObjAddr: 0x1880, symBinAddr: 0x2A4A8, symSize: 0x48 }
  - { offset: 0x361F9, size: 0x8, addend: 0x0, symName: __RINvXsh_NtCse1nGBsou5OW_5alloc3vecINtB6_3VecNtNtCs6IAuOt8vWmF_3syn4item5FnArgEINtNtNtNtCsfvfooZQ3Axs_4core4iter6traits7collect6ExtendBG_E6extendINtNtB1n_6option6OptionBG_EECs8noNfkmVAKC_18tracing_attributes, symObjAddr: 0x18C8, symBinAddr: 0x2A4F0, symSize: 0x48 }
  - { offset: 0x3624E, size: 0x8, addend: 0x0, symName: __RINvXsh_NtCse1nGBsou5OW_5alloc3vecINtB6_3VecNtNtCs6IAuOt8vWmF_3syn4item5FnArgEINtNtNtNtCsfvfooZQ3Axs_4core4iter6traits7collect6ExtendBG_E6extendINtNtNtB1l_8adapters3map3MapINtNtB6_9into_iter8IntoIterTBG_NtNtBK_5token5CommaEENCNvXs8_NtBK_10punctuatedINtB3I_10PunctuatedBG_B3f_ENtB1h_12IntoIterator9into_iter0EECs8noNfkmVAKC_18tracing_attributes, symObjAddr: 0x1910, symBinAddr: 0x2A538, symSize: 0x48 }
  - { offset: 0x362A3, size: 0x8, addend: 0x0, symName: __RNvXsh_NtCse1nGBsou5OW_5alloc3vecINtB5_3VecNtNtCs6IAuOt8vWmF_3syn4attr9AttributeEINtNtNtNtCsfvfooZQ3Axs_4core4iter6traits7collect6ExtendBF_E10extend_oneCs8noNfkmVAKC_18tracing_attributes, symObjAddr: 0x51C8, symBinAddr: 0x2DDF0, symSize: 0x24 }
  - { offset: 0x362FA, size: 0x8, addend: 0x0, symName: __RNCINvMsi_NtCse1nGBsou5OW_5alloc3vecINtB8_3VecNtCs3cP53eQoTwO_11proc_macro211TokenStreamE14extend_trustedINtNtNtNtCsfvfooZQ3Axs_4core4iter8adapters3map3MapINtNtNtB1O_5slice4iter4IterNtNtCs6IAuOt8vWmF_3syn4stmt4StmtENCNvMs_NtCs8noNfkmVAKC_18tracing_attributes6expandNtB3y_9AsyncInfo9gen_async0EE0B3A_, symObjAddr: 0x1958, symBinAddr: 0x2A580, symSize: 0x3C }
  - { offset: 0x363AF, size: 0x8, addend: 0x0, symName: __RNCINvMsi_NtCse1nGBsou5OW_5alloc3vecINtB8_3VecNtCs3cP53eQoTwO_11proc_macro25IdentE14extend_trustedINtNtCsfvfooZQ3Axs_4core6option8IntoIterBI_EE0Cs8noNfkmVAKC_18tracing_attributes, symObjAddr: 0x1994, symBinAddr: 0x2A5BC, symSize: 0x44 }
  - { offset: 0x3645C, size: 0x8, addend: 0x0, symName: __RNCINvMsi_NtCse1nGBsou5OW_5alloc3vecINtB8_3VecNtCs3cP53eQoTwO_11proc_macro25IdentE14extend_trustedINtNtNtNtCsfvfooZQ3Axs_4core4iter8adapters3map3MapINtNtB8_9into_iter8IntoIterTBI_NtNtCs6IAuOt8vWmF_3syn5token5CommaEENCNvXs8_NtB2V_10punctuatedINtB3z_10PunctuatedBI_B2R_ENtNtNtB1F_6traits7collect12IntoIterator9into_iter0EE0Cs8noNfkmVAKC_18tracing_attributes, symObjAddr: 0x19D8, symBinAddr: 0x2A600, symSize: 0x44 }
  - { offset: 0x36509, size: 0x8, addend: 0x0, symName: __RNCINvMsi_NtCse1nGBsou5OW_5alloc3vecINtB8_3VecNtNtCs6IAuOt8vWmF_3syn3pat3PatE14extend_trustedINtNtCsfvfooZQ3Axs_4core6option8IntoIterBI_EE0Cs8noNfkmVAKC_18tracing_attributes, symObjAddr: 0x1A1C, symBinAddr: 0x2A644, symSize: 0x54 }
  - { offset: 0x365C7, size: 0x8, addend: 0x0, symName: __RNCINvMsi_NtCse1nGBsou5OW_5alloc3vecINtB8_3VecNtNtCs6IAuOt8vWmF_3syn3pat3PatE14extend_trustedINtNtNtNtCsfvfooZQ3Axs_4core4iter8adapters3map3MapINtNtB8_9into_iter8IntoIterTBI_NtNtBM_5token5CommaEENCNvXs8_NtBM_10punctuatedINtB3f_10PunctuatedBI_B2M_ENtNtNtB1A_6traits7collect12IntoIterator9into_iter0EE0Cs8noNfkmVAKC_18tracing_attributes, symObjAddr: 0x1A70, symBinAddr: 0x2A698, symSize: 0x54 }
  - { offset: 0x36685, size: 0x8, addend: 0x0, symName: __RNCINvMsi_NtCse1nGBsou5OW_5alloc3vecINtB8_3VecNtNtCs6IAuOt8vWmF_3syn3pat8FieldPatE14extend_trustedINtNtCsfvfooZQ3Axs_4core6option8IntoIterBI_EE0Cs8noNfkmVAKC_18tracing_attributes, symObjAddr: 0x1AC4, symBinAddr: 0x2A6EC, symSize: 0x4C }
  - { offset: 0x36743, size: 0x8, addend: 0x0, symName: __RNCINvMsi_NtCse1nGBsou5OW_5alloc3vecINtB8_3VecNtNtCs6IAuOt8vWmF_3syn3pat8FieldPatE14extend_trustedINtNtNtNtCsfvfooZQ3Axs_4core4iter8adapters3map3MapINtNtB8_9into_iter8IntoIterTBI_NtNtBM_5token5CommaEENCNvXs8_NtBM_10punctuatedINtB3k_10PunctuatedBI_B2R_ENtNtNtB1F_6traits7collect12IntoIterator9into_iter0EE0Cs8noNfkmVAKC_18tracing_attributes, symObjAddr: 0x1B10, symBinAddr: 0x2A738, symSize: 0x4C }
  - { offset: 0x36801, size: 0x8, addend: 0x0, symName: __RNCINvMsi_NtCse1nGBsou5OW_5alloc3vecINtB8_3VecNtNtCs6IAuOt8vWmF_3syn4item5FnArgE14extend_trustedINtNtCsfvfooZQ3Axs_4core6option8IntoIterBI_EE0Cs8noNfkmVAKC_18tracing_attributes, symObjAddr: 0x1B5C, symBinAddr: 0x2A784, symSize: 0x54 }
  - { offset: 0x368BF, size: 0x8, addend: 0x0, symName: __RNCINvMsi_NtCse1nGBsou5OW_5alloc3vecINtB8_3VecNtNtCs6IAuOt8vWmF_3syn4item5FnArgE14extend_trustedINtNtNtNtCsfvfooZQ3Axs_4core4iter8adapters3map3MapINtNtB8_9into_iter8IntoIterTBI_NtNtBM_5token5CommaEENCNvXs8_NtBM_10punctuatedINtB3i_10PunctuatedBI_B2P_ENtNtNtB1D_6traits7collect12IntoIterator9into_iter0EE0Cs8noNfkmVAKC_18tracing_attributes, symObjAddr: 0x1BB0, symBinAddr: 0x2A7D8, symSize: 0x54 }
  - { offset: 0x36B47, size: 0x8, addend: 0x0, symName: __RNvXNtNtCse1nGBsou5OW_5alloc3vec11spec_extendINtB4_3VecNtCs3cP53eQoTwO_11proc_macro211TokenStreamEINtB2_10SpecExtendBR_INtNtNtNtCsfvfooZQ3Axs_4core4iter8adapters3map3MapINtNtB1Y_6filter6FilterINtNtNtB22_5slice4iter4IterTNtBT_5IdentTB3w_NtNtCs8noNfkmVAKC_18tracing_attributes6expand10RecordTypeEEENCNCINvB3O_9gen_blockBR_Es0_0s2_0ENCB4M_s3_0EE11spec_extendB3Q_, symObjAddr: 0x3034, symBinAddr: 0x2BC5C, symSize: 0x24 }
  - { offset: 0x36B99, size: 0x8, addend: 0x0, symName: __RNvXNtNtCse1nGBsou5OW_5alloc3vec11spec_extendINtB4_3VecNtCs3cP53eQoTwO_11proc_macro211TokenStreamEINtB2_10SpecExtendBR_INtNtNtNtCsfvfooZQ3Axs_4core4iter8adapters3map3MapINtNtB1Y_6filter6FilterINtNtNtB22_5slice4iter4IterTNtBT_5IdentTB3w_NtNtCs8noNfkmVAKC_18tracing_attributes6expand10RecordTypeEEENCNCINvB3O_9gen_blockNtNtCs6IAuOt8vWmF_3syn4stmt5BlockEs0_0s2_0ENCB4M_s3_0EE11spec_extendB3Q_, symObjAddr: 0x3058, symBinAddr: 0x2BC80, symSize: 0x24 }
  - { offset: 0x36BEB, size: 0x8, addend: 0x0, symName: __RNvXNtNtCse1nGBsou5OW_5alloc3vec11spec_extendINtB4_3VecTNtCs3cP53eQoTwO_11proc_macro25IdentTBS_NtNtCs8noNfkmVAKC_18tracing_attributes6expand10RecordTypeEEEINtB2_10SpecExtendBR_INtNtNtNtCsfvfooZQ3Axs_4core4iter8adapters3map3MapINtNtB2T_7flatten7FlatMapINtNtCs6IAuOt8vWmF_3syn10punctuated8IntoIterNtNtB46_4item5FnArgEINtNtB6_5boxed3BoxDNtNtNtB2V_6traits8iterator8Iteratorp4ItemB1r_EL_ENCNCINvB1x_9gen_blockNtBU_11TokenStreamEs0_00ENCB6b_s_0EE11spec_extendB1z_, symObjAddr: 0x307C, symBinAddr: 0x2BCA4, symSize: 0x24 }
  - { offset: 0x36C3D, size: 0x8, addend: 0x0, symName: __RNvXNtNtCse1nGBsou5OW_5alloc3vec11spec_extendINtB4_3VecTNtCs3cP53eQoTwO_11proc_macro25IdentTBS_NtNtCs8noNfkmVAKC_18tracing_attributes6expand10RecordTypeEEEINtB2_10SpecExtendBR_INtNtNtNtCsfvfooZQ3Axs_4core4iter8adapters3map3MapINtNtB2T_7flatten7FlatMapINtNtCs6IAuOt8vWmF_3syn10punctuated8IntoIterNtNtB46_4item5FnArgEINtNtB6_5boxed3BoxDNtNtNtB2V_6traits8iterator8Iteratorp4ItemB1r_EL_ENCNCINvB1x_9gen_blockNtNtB46_4stmt5BlockEs0_00ENCB6b_s_0EE11spec_extendB1z_, symObjAddr: 0x30A0, symBinAddr: 0x2BCC8, symSize: 0x24 }
  - { offset: 0x36C95, size: 0x8, addend: 0x0, symName: __RNvXs_NtNtCse1nGBsou5OW_5alloc3vec11spec_extendINtB6_3VecNtCs3cP53eQoTwO_11proc_macro211TokenStreamEINtB4_10SpecExtendBT_INtNtNtNtCsfvfooZQ3Axs_4core4iter8adapters3map3MapINtNtNtB24_5slice4iter4IterNtNtCs6IAuOt8vWmF_3syn4stmt4StmtENCNvMs_NtCs8noNfkmVAKC_18tracing_attributes6expandNtB3O_9AsyncInfo9gen_async0EE11spec_extendB3Q_, symObjAddr: 0x3F20, symBinAddr: 0x2CB48, symSize: 0x34 }
  - { offset: 0x36CE6, size: 0x8, addend: 0x0, symName: __RNvXs_NtNtCse1nGBsou5OW_5alloc3vec11spec_extendINtB6_3VecNtCs3cP53eQoTwO_11proc_macro25IdentEINtB4_10SpecExtendBT_INtNtCsfvfooZQ3Axs_4core6option8IntoIterBT_EE11spec_extendCs8noNfkmVAKC_18tracing_attributes, symObjAddr: 0x3F54, symBinAddr: 0x2CB7C, symSize: 0x24 }
  - { offset: 0x36D38, size: 0x8, addend: 0x0, symName: __RNvXs_NtNtCse1nGBsou5OW_5alloc3vec11spec_extendINtB6_3VecNtCs3cP53eQoTwO_11proc_macro25IdentEINtB4_10SpecExtendBT_INtNtNtNtCsfvfooZQ3Axs_4core4iter8adapters3map3MapINtNtB6_9into_iter8IntoIterTBT_NtNtCs6IAuOt8vWmF_3syn5token5CommaEENCNvXs8_NtB3b_10punctuatedINtB3P_10PunctuatedBT_B37_ENtNtNtB1V_6traits7collect12IntoIterator9into_iter0EE11spec_extendCs8noNfkmVAKC_18tracing_attributes, symObjAddr: 0x3F78, symBinAddr: 0x2CBA0, symSize: 0x24 }
  - { offset: 0x36D8A, size: 0x8, addend: 0x0, symName: __RNvXs_NtNtCse1nGBsou5OW_5alloc3vec11spec_extendINtB6_3VecNtNtCs6IAuOt8vWmF_3syn3pat3PatEINtB4_10SpecExtendBT_INtNtCsfvfooZQ3Axs_4core6option8IntoIterBT_EE11spec_extendCs8noNfkmVAKC_18tracing_attributes, symObjAddr: 0x3F9C, symBinAddr: 0x2CBC4, symSize: 0x24 }
  - { offset: 0x36DDC, size: 0x8, addend: 0x0, symName: __RNvXs_NtNtCse1nGBsou5OW_5alloc3vec11spec_extendINtB6_3VecNtNtCs6IAuOt8vWmF_3syn3pat3PatEINtB4_10SpecExtendBT_INtNtNtNtCsfvfooZQ3Axs_4core4iter8adapters3map3MapINtNtB6_9into_iter8IntoIterTBT_NtNtBX_5token5CommaEENCNvXs8_NtBX_10punctuatedINtB3v_10PunctuatedBT_B32_ENtNtNtB1Q_6traits7collect12IntoIterator9into_iter0EE11spec_extendCs8noNfkmVAKC_18tracing_attributes, symObjAddr: 0x3FC0, symBinAddr: 0x2CBE8, symSize: 0x24 }
  - { offset: 0x36E2E, size: 0x8, addend: 0x0, symName: __RNvXs_NtNtCse1nGBsou5OW_5alloc3vec11spec_extendINtB6_3VecNtNtCs6IAuOt8vWmF_3syn3pat8FieldPatEINtB4_10SpecExtendBT_INtNtCsfvfooZQ3Axs_4core6option8IntoIterBT_EE11spec_extendCs8noNfkmVAKC_18tracing_attributes, symObjAddr: 0x3FE4, symBinAddr: 0x2CC0C, symSize: 0x24 }
  - { offset: 0x36E80, size: 0x8, addend: 0x0, symName: __RNvXs_NtNtCse1nGBsou5OW_5alloc3vec11spec_extendINtB6_3VecNtNtCs6IAuOt8vWmF_3syn3pat8FieldPatEINtB4_10SpecExtendBT_INtNtNtNtCsfvfooZQ3Axs_4core4iter8adapters3map3MapINtNtB6_9into_iter8IntoIterTBT_NtNtBX_5token5CommaEENCNvXs8_NtBX_10punctuatedINtB3A_10PunctuatedBT_B37_ENtNtNtB1V_6traits7collect12IntoIterator9into_iter0EE11spec_extendCs8noNfkmVAKC_18tracing_attributes, symObjAddr: 0x4008, symBinAddr: 0x2CC30, symSize: 0x24 }
  - { offset: 0x36ED2, size: 0x8, addend: 0x0, symName: __RNvXs_NtNtCse1nGBsou5OW_5alloc3vec11spec_extendINtB6_3VecNtNtCs6IAuOt8vWmF_3syn4item5FnArgEINtB4_10SpecExtendBT_INtNtCsfvfooZQ3Axs_4core6option8IntoIterBT_EE11spec_extendCs8noNfkmVAKC_18tracing_attributes, symObjAddr: 0x402C, symBinAddr: 0x2CC54, symSize: 0x24 }
  - { offset: 0x36F24, size: 0x8, addend: 0x0, symName: __RNvXs_NtNtCse1nGBsou5OW_5alloc3vec11spec_extendINtB6_3VecNtNtCs6IAuOt8vWmF_3syn4item5FnArgEINtB4_10SpecExtendBT_INtNtNtNtCsfvfooZQ3Axs_4core4iter8adapters3map3MapINtNtB6_9into_iter8IntoIterTBT_NtNtBX_5token5CommaEENCNvXs8_NtBX_10punctuatedINtB3y_10PunctuatedBT_B35_ENtNtNtB1T_6traits7collect12IntoIterator9into_iter0EE11spec_extendCs8noNfkmVAKC_18tracing_attributes, symObjAddr: 0x4050, symBinAddr: 0x2CC78, symSize: 0x24 }
  - { offset: 0x36F82, size: 0x8, addend: 0x0, symName: __RNvXNtNtCse1nGBsou5OW_5alloc3vec14spec_from_iterINtB4_3VecNtCs3cP53eQoTwO_11proc_macro211TokenStreamEINtB2_12SpecFromIterBU_INtNtNtNtCsfvfooZQ3Axs_4core4iter8adapters3map3MapINtNtB23_6filter6FilterINtNtNtB27_5slice4iter4IterTNtBW_5IdentTB3B_NtNtCs8noNfkmVAKC_18tracing_attributes6expand10RecordTypeEEENCNCINvB3T_9gen_blockBU_Es0_0s2_0ENCB4R_s3_0EE9from_iterB3V_, symObjAddr: 0x30C4, symBinAddr: 0x2BCEC, symSize: 0x14 }
  - { offset: 0x36FC1, size: 0x8, addend: 0x0, symName: __RNvXNtNtCse1nGBsou5OW_5alloc3vec14spec_from_iterINtB4_3VecNtCs3cP53eQoTwO_11proc_macro211TokenStreamEINtB2_12SpecFromIterBU_INtNtNtNtCsfvfooZQ3Axs_4core4iter8adapters3map3MapINtNtB23_6filter6FilterINtNtNtB27_5slice4iter4IterTNtBW_5IdentTB3B_NtNtCs8noNfkmVAKC_18tracing_attributes6expand10RecordTypeEEENCNCINvB3T_9gen_blockNtNtCs6IAuOt8vWmF_3syn4stmt5BlockEs0_0s2_0ENCB4R_s3_0EE9from_iterB3V_, symObjAddr: 0x30D8, symBinAddr: 0x2BD00, symSize: 0x14 }
  - { offset: 0x37000, size: 0x8, addend: 0x0, symName: __RNvXNtNtCse1nGBsou5OW_5alloc3vec14spec_from_iterINtB4_3VecNtCs3cP53eQoTwO_11proc_macro211TokenStreamEINtB2_12SpecFromIterBU_INtNtNtNtCsfvfooZQ3Axs_4core4iter8adapters3map3MapINtNtNtB27_5slice4iter4IterNtNtCs6IAuOt8vWmF_3syn4stmt4StmtENCNvMs_NtCs8noNfkmVAKC_18tracing_attributes6expandNtB3R_9AsyncInfo9gen_async0EE9from_iterB3T_, symObjAddr: 0x30EC, symBinAddr: 0x2BD14, symSize: 0x2C }
  - { offset: 0x3703E, size: 0x8, addend: 0x0, symName: __RNvXNtNtCse1nGBsou5OW_5alloc3vec14spec_from_iterINtB4_3VecTNtCs3cP53eQoTwO_11proc_macro25IdentTBV_NtNtCs8noNfkmVAKC_18tracing_attributes6expand10RecordTypeEEEINtB2_12SpecFromIterBU_INtNtNtNtCsfvfooZQ3Axs_4core4iter8adapters3map3MapINtNtB2Y_7flatten7FlatMapINtNtCs6IAuOt8vWmF_3syn10punctuated8IntoIterNtNtB4b_4item5FnArgEINtNtB6_5boxed3BoxDNtNtNtB30_6traits8iterator8Iteratorp4ItemB1u_EL_ENCNCINvB1A_9gen_blockNtBX_11TokenStreamEs0_00ENCB6g_s_0EE9from_iterB1C_, symObjAddr: 0x3118, symBinAddr: 0x2BD40, symSize: 0x14 }
  - { offset: 0x3707D, size: 0x8, addend: 0x0, symName: __RNvXNtNtCse1nGBsou5OW_5alloc3vec14spec_from_iterINtB4_3VecTNtCs3cP53eQoTwO_11proc_macro25IdentTBV_NtNtCs8noNfkmVAKC_18tracing_attributes6expand10RecordTypeEEEINtB2_12SpecFromIterBU_INtNtNtNtCsfvfooZQ3Axs_4core4iter8adapters3map3MapINtNtB2Y_7flatten7FlatMapINtNtCs6IAuOt8vWmF_3syn10punctuated8IntoIterNtNtB4b_4item5FnArgEINtNtB6_5boxed3BoxDNtNtNtB30_6traits8iterator8Iteratorp4ItemB1u_EL_ENCNCINvB1A_9gen_blockNtNtB4b_4stmt5BlockEs0_00ENCB6g_s_0EE9from_iterB1C_, symObjAddr: 0x312C, symBinAddr: 0x2BD54, symSize: 0x14 }
  - { offset: 0x370C8, size: 0x8, addend: 0x0, symName: __RNvXNtNtCse1nGBsou5OW_5alloc3vec21spec_from_iter_nestedINtB4_3VecNtCs3cP53eQoTwO_11proc_macro211TokenStreamEINtB2_18SpecFromIterNestedB11_INtNtNtNtCsfvfooZQ3Axs_4core4iter8adapters3map3MapINtNtB2h_6filter6FilterINtNtNtB2l_5slice4iter4IterTNtB13_5IdentTB3P_NtNtCs8noNfkmVAKC_18tracing_attributes6expand10RecordTypeEEENCNCINvB48_9gen_blockB11_Es0_0s2_0ENCB56_s3_0EE9from_iterB4a_, symObjAddr: 0x3140, symBinAddr: 0x2BD68, symSize: 0x218 }
  - { offset: 0x372E6, size: 0x8, addend: 0x0, symName: __RNvXNtNtCse1nGBsou5OW_5alloc3vec21spec_from_iter_nestedINtB4_3VecNtCs3cP53eQoTwO_11proc_macro211TokenStreamEINtB2_18SpecFromIterNestedB11_INtNtNtNtCsfvfooZQ3Axs_4core4iter8adapters3map3MapINtNtB2h_6filter6FilterINtNtNtB2l_5slice4iter4IterTNtB13_5IdentTB3P_NtNtCs8noNfkmVAKC_18tracing_attributes6expand10RecordTypeEEENCNCINvB48_9gen_blockNtNtCs6IAuOt8vWmF_3syn4stmt5BlockEs0_0s2_0ENCB56_s3_0EE9from_iterB4a_, symObjAddr: 0x3358, symBinAddr: 0x2BF80, symSize: 0x218 }
  - { offset: 0x37504, size: 0x8, addend: 0x0, symName: __RNvXNtNtCse1nGBsou5OW_5alloc3vec21spec_from_iter_nestedINtB4_3VecTNtCs3cP53eQoTwO_11proc_macro25IdentTB12_NtNtCs8noNfkmVAKC_18tracing_attributes6expand10RecordTypeEEEINtB2_18SpecFromIterNestedB11_INtNtNtNtCsfvfooZQ3Axs_4core4iter8adapters3map3MapINtNtB3d_7flatten7FlatMapINtNtCs6IAuOt8vWmF_3syn10punctuated8IntoIterNtNtB4q_4item5FnArgEINtNtB6_5boxed3BoxDNtNtNtB3f_6traits8iterator8Iteratorp4ItemB1B_EL_ENCNCINvB1I_9gen_blockNtB14_11TokenStreamEs0_00ENCB6v_s_0EE9from_iterB1K_, symObjAddr: 0x3570, symBinAddr: 0x2C198, symSize: 0x248 }
  - { offset: 0x37723, size: 0x8, addend: 0x0, symName: __RNvXNtNtCse1nGBsou5OW_5alloc3vec21spec_from_iter_nestedINtB4_3VecTNtCs3cP53eQoTwO_11proc_macro25IdentTB12_NtNtCs8noNfkmVAKC_18tracing_attributes6expand10RecordTypeEEEINtB2_18SpecFromIterNestedB11_INtNtNtNtCsfvfooZQ3Axs_4core4iter8adapters3map3MapINtNtB3d_7flatten7FlatMapINtNtCs6IAuOt8vWmF_3syn10punctuated8IntoIterNtNtB4q_4item5FnArgEINtNtB6_5boxed3BoxDNtNtNtB3f_6traits8iterator8Iteratorp4ItemB1B_EL_ENCNCINvB1I_9gen_blockNtNtB4q_4stmt5BlockEs0_00ENCB6v_s_0EE9from_iterB1K_, symObjAddr: 0x37B8, symBinAddr: 0x2C3E0, symSize: 0x248 }
  - { offset: 0x37948, size: 0x8, addend: 0x0, symName: __RNvXs_NtNtCse1nGBsou5OW_5alloc3vec21spec_from_iter_nestedINtB6_3VecNtCs3cP53eQoTwO_11proc_macro211TokenStreamEINtB4_18SpecFromIterNestedB13_INtNtNtNtCsfvfooZQ3Axs_4core4iter8adapters3map3MapINtNtNtB2n_5slice4iter4IterNtNtCs6IAuOt8vWmF_3syn4stmt4StmtENCNvMs_NtCs8noNfkmVAKC_18tracing_attributes6expandNtB47_9AsyncInfo9gen_async0EE9from_iterB49_, symObjAddr: 0x40C4, symBinAddr: 0x2CCEC, symSize: 0x168 }
  - { offset: 0x37A25, size: 0x8, addend: 0x0, symName: __RNvXs6_NtCse1nGBsou5OW_5alloc3vecINtB5_3VecNtCs3cP53eQoTwO_11proc_macro211TokenStreamENtNtNtCsfvfooZQ3Axs_4core3ops5deref5Deref5derefCs8noNfkmVAKC_18tracing_attributes, symObjAddr: 0x3A70, symBinAddr: 0x2C698, symSize: 0x24 }
  - { offset: 0x37A65, size: 0x8, addend: 0x0, symName: __RNvXs6_NtCse1nGBsou5OW_5alloc3vecINtB5_3VecNtNtCs6IAuOt8vWmF_3syn4stmt4StmtENtNtNtCsfvfooZQ3Axs_4core3ops5deref5Deref5derefCs8noNfkmVAKC_18tracing_attributes, symObjAddr: 0x3A94, symBinAddr: 0x2C6BC, symSize: 0x24 }
  - { offset: 0x37AA5, size: 0x8, addend: 0x0, symName: __RNvXs6_NtCse1nGBsou5OW_5alloc3vecINtB5_3VecNtNtCs6IAuOt8vWmF_3syn5error5ErrorENtNtNtCsfvfooZQ3Axs_4core3ops5deref5Deref5derefCs8noNfkmVAKC_18tracing_attributes, symObjAddr: 0x3AB8, symBinAddr: 0x2C6E0, symSize: 0x24 }
  - { offset: 0x37AE5, size: 0x8, addend: 0x0, symName: __RNvXs6_NtCse1nGBsou5OW_5alloc3vecINtB5_3VecTNtCs3cP53eQoTwO_11proc_macro25IdentNtNtCs6IAuOt8vWmF_3syn5token3DotEENtNtNtCsfvfooZQ3Axs_4core3ops5deref5Deref5derefCs8noNfkmVAKC_18tracing_attributes, symObjAddr: 0x3ADC, symBinAddr: 0x2C704, symSize: 0x24 }
  - { offset: 0x37B25, size: 0x8, addend: 0x0, symName: __RNvXs6_NtCse1nGBsou5OW_5alloc3vecINtB5_3VecTNtCs3cP53eQoTwO_11proc_macro25IdentTBG_NtNtCs8noNfkmVAKC_18tracing_attributes6expand10RecordTypeEEENtNtNtCsfvfooZQ3Axs_4core3ops5deref5Deref5derefB1n_, symObjAddr: 0x3B00, symBinAddr: 0x2C728, symSize: 0x24 }
  - { offset: 0x37B65, size: 0x8, addend: 0x0, symName: __RNvXs6_NtCse1nGBsou5OW_5alloc3vecINtB5_3VecTNtNtCs8noNfkmVAKC_18tracing_attributes4attr5FieldNtNtCs6IAuOt8vWmF_3syn5token5CommaEENtNtNtCsfvfooZQ3Axs_4core3ops5deref5Deref5derefBK_, symObjAddr: 0x3B24, symBinAddr: 0x2C74C, symSize: 0x24 }
  - { offset: 0x37CCB, size: 0x8, addend: 0x0, symName: __RNvXs7_NtCse1nGBsou5OW_5alloc3vecINtB5_3VecTNtNtCs6IAuOt8vWmF_3syn2ty4TypeNtNtBK_5token5CommaEENtNtNtCsfvfooZQ3Axs_4core3ops5deref8DerefMut9deref_mutCs8noNfkmVAKC_18tracing_attributes, symObjAddr: 0x3B48, symBinAddr: 0x2C770, symSize: 0x24 }
  - { offset: 0x37D0B, size: 0x8, addend: 0x0, symName: __RNvXs7_NtCse1nGBsou5OW_5alloc3vecINtB5_3VecTNtNtCs6IAuOt8vWmF_3syn2ty9BareFnArgNtNtBK_5token5CommaEENtNtNtCsfvfooZQ3Axs_4core3ops5deref8DerefMut9deref_mutCs8noNfkmVAKC_18tracing_attributes, symObjAddr: 0x3B6C, symBinAddr: 0x2C794, symSize: 0x24 }
  - { offset: 0x37D4B, size: 0x8, addend: 0x0, symName: __RNvXs7_NtCse1nGBsou5OW_5alloc3vecINtB5_3VecTNtNtCs6IAuOt8vWmF_3syn3pat3PatNtNtBK_5token2OrEENtNtNtCsfvfooZQ3Axs_4core3ops5deref8DerefMut9deref_mutCs8noNfkmVAKC_18tracing_attributes, symObjAddr: 0x3B90, symBinAddr: 0x2C7B8, symSize: 0x24 }
  - { offset: 0x37D8B, size: 0x8, addend: 0x0, symName: __RNvXs7_NtCse1nGBsou5OW_5alloc3vecINtB5_3VecTNtNtCs6IAuOt8vWmF_3syn3pat3PatNtNtBK_5token5CommaEENtNtNtCsfvfooZQ3Axs_4core3ops5deref8DerefMut9deref_mutCs8noNfkmVAKC_18tracing_attributes, symObjAddr: 0x3BB4, symBinAddr: 0x2C7DC, symSize: 0x24 }
  - { offset: 0x37DCB, size: 0x8, addend: 0x0, symName: __RNvXs7_NtCse1nGBsou5OW_5alloc3vecINtB5_3VecTNtNtCs6IAuOt8vWmF_3syn3pat8FieldPatNtNtBK_5token5CommaEENtNtNtCsfvfooZQ3Axs_4core3ops5deref8DerefMut9deref_mutCs8noNfkmVAKC_18tracing_attributes, symObjAddr: 0x3BD8, symBinAddr: 0x2C800, symSize: 0x24 }
  - { offset: 0x37E0B, size: 0x8, addend: 0x0, symName: __RNvXs7_NtCse1nGBsou5OW_5alloc3vecINtB5_3VecTNtNtCs6IAuOt8vWmF_3syn4data7VariantNtNtBK_5token5CommaEENtNtNtCsfvfooZQ3Axs_4core3ops5deref8DerefMut9deref_mutCs8noNfkmVAKC_18tracing_attributes, symObjAddr: 0x3BFC, symBinAddr: 0x2C824, symSize: 0x24 }
  - { offset: 0x37E4B, size: 0x8, addend: 0x0, symName: __RNvXs7_NtCse1nGBsou5OW_5alloc3vecINtB5_3VecTNtNtCs6IAuOt8vWmF_3syn4expr10FieldValueNtNtBK_5token5CommaEENtNtNtCsfvfooZQ3Axs_4core3ops5deref8DerefMut9deref_mutCs8noNfkmVAKC_18tracing_attributes, symObjAddr: 0x3C20, symBinAddr: 0x2C848, symSize: 0x24 }
  - { offset: 0x37E8B, size: 0x8, addend: 0x0, symName: __RNvXs7_NtCse1nGBsou5OW_5alloc3vecINtB5_3VecTNtNtCs6IAuOt8vWmF_3syn4expr4ExprNtNtBK_5token5CommaEENtNtNtCsfvfooZQ3Axs_4core3ops5deref8DerefMut9deref_mutCs8noNfkmVAKC_18tracing_attributes, symObjAddr: 0x3C44, symBinAddr: 0x2C86C, symSize: 0x24 }
  - { offset: 0x37ECB, size: 0x8, addend: 0x0, symName: __RNvXs7_NtCse1nGBsou5OW_5alloc3vecINtB5_3VecTNtNtCs6IAuOt8vWmF_3syn4item5FnArgNtNtBK_5token5CommaEENtNtNtCsfvfooZQ3Axs_4core3ops5deref8DerefMut9deref_mutCs8noNfkmVAKC_18tracing_attributes, symObjAddr: 0x3C68, symBinAddr: 0x2C890, symSize: 0x24 }
  - { offset: 0x37F0B, size: 0x8, addend: 0x0, symName: __RNvXs7_NtCse1nGBsou5OW_5alloc3vecINtB5_3VecTNtNtCs6IAuOt8vWmF_3syn4item7UseTreeNtNtBK_5token5CommaEENtNtNtCsfvfooZQ3Axs_4core3ops5deref8DerefMut9deref_mutCs8noNfkmVAKC_18tracing_attributes, symObjAddr: 0x3C8C, symBinAddr: 0x2C8B4, symSize: 0x24 }
  - { offset: 0x37F4B, size: 0x8, addend: 0x0, symName: __RNvXs7_NtCse1nGBsou5OW_5alloc3vecINtB5_3VecTNtNtCs6IAuOt8vWmF_3syn4path15GenericArgumentNtNtBK_5token5CommaEENtNtNtCsfvfooZQ3Axs_4core3ops5deref8DerefMut9deref_mutCs8noNfkmVAKC_18tracing_attributes, symObjAddr: 0x3CB0, symBinAddr: 0x2C8D8, symSize: 0x24 }
  - { offset: 0x37F8B, size: 0x8, addend: 0x0, symName: __RNvXs7_NtCse1nGBsou5OW_5alloc3vecINtB5_3VecTNtNtCs6IAuOt8vWmF_3syn8generics13CapturedParamNtNtBK_5token5CommaEENtNtNtCsfvfooZQ3Axs_4core3ops5deref8DerefMut9deref_mutCs8noNfkmVAKC_18tracing_attributes, symObjAddr: 0x3CD4, symBinAddr: 0x2C8FC, symSize: 0x24 }
  - { offset: 0x37FCB, size: 0x8, addend: 0x0, symName: __RNvXs7_NtCse1nGBsou5OW_5alloc3vecINtB5_3VecTNtNtCs6IAuOt8vWmF_3syn8generics14TypeParamBoundNtNtBK_5token4PlusEENtNtNtCsfvfooZQ3Axs_4core3ops5deref8DerefMut9deref_mutCs8noNfkmVAKC_18tracing_attributes, symObjAddr: 0x3CF8, symBinAddr: 0x2C920, symSize: 0x24 }
  - { offset: 0x3800B, size: 0x8, addend: 0x0, symName: __RNvXs7_NtCse1nGBsou5OW_5alloc3vecINtB5_3VecTNtNtCs6IAuOt8vWmF_3syn8generics14WherePredicateNtNtBK_5token5CommaEENtNtNtCsfvfooZQ3Axs_4core3ops5deref8DerefMut9deref_mutCs8noNfkmVAKC_18tracing_attributes, symObjAddr: 0x3D1C, symBinAddr: 0x2C944, symSize: 0x24 }
  - { offset: 0x3804B, size: 0x8, addend: 0x0, symName: __RNvXs7_NtCse1nGBsou5OW_5alloc3vecINtB5_3VecTNtNtCs6IAuOt8vWmF_3syn8lifetime8LifetimeNtNtBK_5token4PlusEENtNtNtCsfvfooZQ3Axs_4core3ops5deref8DerefMut9deref_mutCs8noNfkmVAKC_18tracing_attributes, symObjAddr: 0x3D40, symBinAddr: 0x2C968, symSize: 0x24 }
  - { offset: 0x3808B, size: 0x8, addend: 0x0, symName: __RNvXs7_NtCse1nGBsou5OW_5alloc3vecINtB5_3VecTNtNtCs8noNfkmVAKC_18tracing_attributes4attr5FieldNtNtCs6IAuOt8vWmF_3syn5token5CommaEENtNtNtCsfvfooZQ3Axs_4core3ops5deref8DerefMut9deref_mutBK_, symObjAddr: 0x3D64, symBinAddr: 0x2C98C, symSize: 0x24 }
  - { offset: 0x38251, size: 0x8, addend: 0x0, symName: __RNvXs9_NtCse1nGBsou5OW_5alloc3vecINtB5_3VecNtNtCs6IAuOt8vWmF_3syn5error5ErrorENtNtCsfvfooZQ3Axs_4core5clone5Clone5cloneCs8noNfkmVAKC_18tracing_attributes, symObjAddr: 0x3D88, symBinAddr: 0x2C9B0, symSize: 0x88 }
  - { offset: 0x38448, size: 0x8, addend: 0x0, symName: __RNvXs9_NtCse1nGBsou5OW_5alloc3vecINtB5_3VecTNtCs3cP53eQoTwO_11proc_macro25IdentNtNtCs6IAuOt8vWmF_3syn5token3DotEENtNtCsfvfooZQ3Axs_4core5clone5Clone5cloneCs8noNfkmVAKC_18tracing_attributes, symObjAddr: 0x3E10, symBinAddr: 0x2CA38, symSize: 0x88 }
  - { offset: 0x3863F, size: 0x8, addend: 0x0, symName: __RNvXs9_NtCse1nGBsou5OW_5alloc3vecINtB5_3VecTNtNtCs8noNfkmVAKC_18tracing_attributes4attr5FieldNtNtCs6IAuOt8vWmF_3syn5token5CommaEENtNtCsfvfooZQ3Axs_4core5clone5Clone5cloneBK_, symObjAddr: 0x3E98, symBinAddr: 0x2CAC0, symSize: 0x88 }
  - { offset: 0x38841, size: 0x8, addend: 0x0, symName: __RNvXs_NtNtCse1nGBsou5OW_5alloc3vec16in_place_collectINtB6_3VecTNtCs3cP53eQoTwO_11proc_macro25IdentBZ_EEINtNtB6_14spec_from_iter12SpecFromIterBY_INtNtNtNtCsfvfooZQ3Axs_4core4iter8adapters3map3MapINtNtB6_9into_iter8IntoIterTBZ_TBZ_NtNtCs8noNfkmVAKC_18tracing_attributes6expand10RecordTypeEEENCNCINvB3H_9gen_blockNtB11_11TokenStreamEs0_0s4_0EE9from_iterB3J_, symObjAddr: 0x4074, symBinAddr: 0x2CC9C, symSize: 0x28 }
  - { offset: 0x3889D, size: 0x8, addend: 0x0, symName: __RNvXs_NtNtCse1nGBsou5OW_5alloc3vec16in_place_collectINtB6_3VecTNtCs3cP53eQoTwO_11proc_macro25IdentBZ_EEINtNtB6_14spec_from_iter12SpecFromIterBY_INtNtNtNtCsfvfooZQ3Axs_4core4iter8adapters3map3MapINtNtB6_9into_iter8IntoIterTBZ_TBZ_NtNtCs8noNfkmVAKC_18tracing_attributes6expand10RecordTypeEEENCNCINvB3H_9gen_blockNtNtCs6IAuOt8vWmF_3syn4stmt5BlockEs0_0s4_0EE9from_iterB3J_, symObjAddr: 0x409C, symBinAddr: 0x2CCC4, symSize: 0x28 }
  - { offset: 0x38900, size: 0x8, addend: 0x0, symName: __RNvXsb_NtCse1nGBsou5OW_5alloc3vecINtB5_3VecTNtNtCs6IAuOt8vWmF_3syn4expr4ExprNtNtBK_5token5CommaEEINtNtNtCsfvfooZQ3Axs_4core3ops5index5IndexjE5indexCs8noNfkmVAKC_18tracing_attributes, symObjAddr: 0x422C, symBinAddr: 0x2CE54, symSize: 0x84 }
  - { offset: 0x38A88, size: 0x8, addend: 0x0, symName: __RNvXsc_NtCse1nGBsou5OW_5alloc3vecINtB5_3VecNtCs3cP53eQoTwO_11proc_macro211TokenStreamEINtNtNtCsfvfooZQ3Axs_4core3ops5index8IndexMutjE9index_mutCs8noNfkmVAKC_18tracing_attributes, symObjAddr: 0x42B0, symBinAddr: 0x2CED8, symSize: 0x84 }
  - { offset: 0x38BE2, size: 0x8, addend: 0x0, symName: __RNvXse_NtCse1nGBsou5OW_5alloc3vecINtB5_3VecNtCs3cP53eQoTwO_11proc_macro25IdentENtNtNtNtCsfvfooZQ3Axs_4core4iter6traits7collect12IntoIterator9into_iterCs8noNfkmVAKC_18tracing_attributes, symObjAddr: 0x4334, symBinAddr: 0x2CF5C, symSize: 0xE4 }
  - { offset: 0x38E74, size: 0x8, addend: 0x0, symName: __RNvXse_NtCse1nGBsou5OW_5alloc3vecINtB5_3VecNtNtCs6IAuOt8vWmF_3syn3pat3PatENtNtNtNtCsfvfooZQ3Axs_4core4iter6traits7collect12IntoIterator9into_iterCs8noNfkmVAKC_18tracing_attributes, symObjAddr: 0x4418, symBinAddr: 0x2D040, symSize: 0xE4 }
  - { offset: 0x39106, size: 0x8, addend: 0x0, symName: __RNvXse_NtCse1nGBsou5OW_5alloc3vecINtB5_3VecNtNtCs6IAuOt8vWmF_3syn3pat8FieldPatENtNtNtNtCsfvfooZQ3Axs_4core4iter6traits7collect12IntoIterator9into_iterCs8noNfkmVAKC_18tracing_attributes, symObjAddr: 0x44FC, symBinAddr: 0x2D124, symSize: 0xDC }
  - { offset: 0x39398, size: 0x8, addend: 0x0, symName: __RNvXse_NtCse1nGBsou5OW_5alloc3vecINtB5_3VecNtNtCs6IAuOt8vWmF_3syn4item5FnArgENtNtNtNtCsfvfooZQ3Axs_4core4iter6traits7collect12IntoIterator9into_iterCs8noNfkmVAKC_18tracing_attributes, symObjAddr: 0x45D8, symBinAddr: 0x2D200, symSize: 0xE4 }
  - { offset: 0x3962A, size: 0x8, addend: 0x0, symName: __RNvXse_NtCse1nGBsou5OW_5alloc3vecINtB5_3VecNtNtCs6IAuOt8vWmF_3syn4stmt4StmtENtNtNtNtCsfvfooZQ3Axs_4core4iter6traits7collect12IntoIterator9into_iterCs8noNfkmVAKC_18tracing_attributes, symObjAddr: 0x46BC, symBinAddr: 0x2D2E4, symSize: 0xE4 }
  - { offset: 0x398BC, size: 0x8, addend: 0x0, symName: __RNvXse_NtCse1nGBsou5OW_5alloc3vecINtB5_3VecTNtCs3cP53eQoTwO_11proc_macro25IdentNtNtCs6IAuOt8vWmF_3syn5token5CommaEENtNtNtNtCsfvfooZQ3Axs_4core4iter6traits7collect12IntoIterator9into_iterCs8noNfkmVAKC_18tracing_attributes, symObjAddr: 0x47A0, symBinAddr: 0x2D3C8, symSize: 0xDC }
  - { offset: 0x39B4E, size: 0x8, addend: 0x0, symName: __RNvXse_NtCse1nGBsou5OW_5alloc3vecINtB5_3VecTNtCs3cP53eQoTwO_11proc_macro25IdentTBG_NtNtCs8noNfkmVAKC_18tracing_attributes6expand10RecordTypeEEENtNtNtNtCsfvfooZQ3Axs_4core4iter6traits7collect12IntoIterator9into_iterB1n_, symObjAddr: 0x487C, symBinAddr: 0x2D4A4, symSize: 0xE4 }
  - { offset: 0x39DE0, size: 0x8, addend: 0x0, symName: __RNvXse_NtCse1nGBsou5OW_5alloc3vecINtB5_3VecTNtNtCs6IAuOt8vWmF_3syn3pat3PatNtNtBK_5token5CommaEENtNtNtNtCsfvfooZQ3Axs_4core4iter6traits7collect12IntoIterator9into_iterCs8noNfkmVAKC_18tracing_attributes, symObjAddr: 0x4960, symBinAddr: 0x2D588, symSize: 0xE4 }
  - { offset: 0x3A072, size: 0x8, addend: 0x0, symName: __RNvXse_NtCse1nGBsou5OW_5alloc3vecINtB5_3VecTNtNtCs6IAuOt8vWmF_3syn3pat8FieldPatNtNtBK_5token5CommaEENtNtNtNtCsfvfooZQ3Axs_4core4iter6traits7collect12IntoIterator9into_iterCs8noNfkmVAKC_18tracing_attributes, symObjAddr: 0x4A44, symBinAddr: 0x2D66C, symSize: 0xE4 }
  - { offset: 0x3A304, size: 0x8, addend: 0x0, symName: __RNvXse_NtCse1nGBsou5OW_5alloc3vecINtB5_3VecTNtNtCs6IAuOt8vWmF_3syn4item5FnArgNtNtBK_5token5CommaEENtNtNtNtCsfvfooZQ3Axs_4core4iter6traits7collect12IntoIterator9into_iterCs8noNfkmVAKC_18tracing_attributes, symObjAddr: 0x4B28, symBinAddr: 0x2D750, symSize: 0xE4 }
  - { offset: 0x3A647, size: 0x8, addend: 0x0, symName: __RNvXsf_NtCse1nGBsou5OW_5alloc3vecRINtB5_3VecTNtCs3cP53eQoTwO_11proc_macro25IdentBH_EENtNtNtNtCsfvfooZQ3Axs_4core4iter6traits7collect12IntoIterator9into_iterCs8noNfkmVAKC_18tracing_attributes, symObjAddr: 0x4C0C, symBinAddr: 0x2D834, symSize: 0xA4 }
  - { offset: 0x3A8A3, size: 0x8, addend: 0x0, symName: __RNvXsf_NtCse1nGBsou5OW_5alloc3vecRINtB5_3VecTReNtNtCs6IAuOt8vWmF_3syn2ty8TypePathEENtNtNtNtCsfvfooZQ3Axs_4core4iter6traits7collect12IntoIterator9into_iterCs8noNfkmVAKC_18tracing_attributes, symObjAddr: 0x4CB0, symBinAddr: 0x2D8D8, symSize: 0xA4 }
  - { offset: 0x3AB05, size: 0x8, addend: 0x0, symName: __RNvXsg_NtCse1nGBsou5OW_5alloc3vecQINtB5_3VecNtNtCs6IAuOt8vWmF_3syn4attr9AttributeENtNtNtNtCsfvfooZQ3Axs_4core4iter6traits7collect12IntoIterator9into_iterCs8noNfkmVAKC_18tracing_attributes, symObjAddr: 0x4D54, symBinAddr: 0x2D97C, symSize: 0x9C }
  - { offset: 0x3AD33, size: 0x8, addend: 0x0, symName: __RNvXsg_NtCse1nGBsou5OW_5alloc3vecQINtB5_3VecNtNtCs6IAuOt8vWmF_3syn4expr3ArmENtNtNtNtCsfvfooZQ3Axs_4core4iter6traits7collect12IntoIterator9into_iterCs8noNfkmVAKC_18tracing_attributes, symObjAddr: 0x4DF0, symBinAddr: 0x2DA18, symSize: 0xA4 }
  - { offset: 0x3AF61, size: 0x8, addend: 0x0, symName: __RNvXsg_NtCse1nGBsou5OW_5alloc3vecQINtB5_3VecNtNtCs6IAuOt8vWmF_3syn4item11ForeignItemENtNtNtNtCsfvfooZQ3Axs_4core4iter6traits7collect12IntoIterator9into_iterCs8noNfkmVAKC_18tracing_attributes, symObjAddr: 0x4E94, symBinAddr: 0x2DABC, symSize: 0xA4 }
  - { offset: 0x3B18F, size: 0x8, addend: 0x0, symName: __RNvXsg_NtCse1nGBsou5OW_5alloc3vecQINtB5_3VecNtNtCs6IAuOt8vWmF_3syn4item4ItemENtNtNtNtCsfvfooZQ3Axs_4core4iter6traits7collect12IntoIterator9into_iterCs8noNfkmVAKC_18tracing_attributes, symObjAddr: 0x4F38, symBinAddr: 0x2DB60, symSize: 0xA4 }
  - { offset: 0x3B3BD, size: 0x8, addend: 0x0, symName: __RNvXsg_NtCse1nGBsou5OW_5alloc3vecQINtB5_3VecNtNtCs6IAuOt8vWmF_3syn4item8ImplItemENtNtNtNtCsfvfooZQ3Axs_4core4iter6traits7collect12IntoIterator9into_iterCs8noNfkmVAKC_18tracing_attributes, symObjAddr: 0x4FDC, symBinAddr: 0x2DC04, symSize: 0xA4 }
  - { offset: 0x3B5EB, size: 0x8, addend: 0x0, symName: __RNvXsg_NtCse1nGBsou5OW_5alloc3vecQINtB5_3VecNtNtCs6IAuOt8vWmF_3syn4item9TraitItemENtNtNtNtCsfvfooZQ3Axs_4core4iter6traits7collect12IntoIterator9into_iterCs8noNfkmVAKC_18tracing_attributes, symObjAddr: 0x5080, symBinAddr: 0x2DCA8, symSize: 0xA4 }
  - { offset: 0x3B819, size: 0x8, addend: 0x0, symName: __RNvXsg_NtCse1nGBsou5OW_5alloc3vecQINtB5_3VecNtNtCs6IAuOt8vWmF_3syn4stmt4StmtENtNtNtNtCsfvfooZQ3Axs_4core4iter6traits7collect12IntoIterator9into_iterCs8noNfkmVAKC_18tracing_attributes, symObjAddr: 0x5124, symBinAddr: 0x2DD4C, symSize: 0xA4 }
  - { offset: 0x3BA4D, size: 0x8, addend: 0x0, symName: __RNvXsn_NtCse1nGBsou5OW_5alloc3vecINtB5_3VecNtCs3cP53eQoTwO_11proc_macro211TokenStreamENtNtNtCsfvfooZQ3Axs_4core3ops4drop4Drop4dropCs8noNfkmVAKC_18tracing_attributes, symObjAddr: 0x51EC, symBinAddr: 0x2DE14, symSize: 0x38 }
  - { offset: 0x3BAFD, size: 0x8, addend: 0x0, symName: __RNvXsn_NtCse1nGBsou5OW_5alloc3vecINtB5_3VecNtCs3cP53eQoTwO_11proc_macro25IdentENtNtNtCsfvfooZQ3Axs_4core3ops4drop4Drop4dropCs8noNfkmVAKC_18tracing_attributes, symObjAddr: 0x5224, symBinAddr: 0x2DE4C, symSize: 0x38 }
  - { offset: 0x3BBAD, size: 0x8, addend: 0x0, symName: __RNvXsn_NtCse1nGBsou5OW_5alloc3vecINtB5_3VecNtNtCs6IAuOt8vWmF_3syn3pat3PatENtNtNtCsfvfooZQ3Axs_4core3ops4drop4Drop4dropCs8noNfkmVAKC_18tracing_attributes, symObjAddr: 0x525C, symBinAddr: 0x2DE84, symSize: 0x38 }
  - { offset: 0x3BC5D, size: 0x8, addend: 0x0, symName: __RNvXsn_NtCse1nGBsou5OW_5alloc3vecINtB5_3VecNtNtCs6IAuOt8vWmF_3syn3pat8FieldPatENtNtNtCsfvfooZQ3Axs_4core3ops4drop4Drop4dropCs8noNfkmVAKC_18tracing_attributes, symObjAddr: 0x5294, symBinAddr: 0x2DEBC, symSize: 0x38 }
  - { offset: 0x3BD0D, size: 0x8, addend: 0x0, symName: __RNvXsn_NtCse1nGBsou5OW_5alloc3vecINtB5_3VecNtNtCs6IAuOt8vWmF_3syn4item5FnArgENtNtNtCsfvfooZQ3Axs_4core3ops4drop4Drop4dropCs8noNfkmVAKC_18tracing_attributes, symObjAddr: 0x52CC, symBinAddr: 0x2DEF4, symSize: 0x38 }
  - { offset: 0x3BDBD, size: 0x8, addend: 0x0, symName: __RNvXsn_NtCse1nGBsou5OW_5alloc3vecINtB5_3VecNtNtCs6IAuOt8vWmF_3syn5error5ErrorENtNtNtCsfvfooZQ3Axs_4core3ops4drop4Drop4dropCs8noNfkmVAKC_18tracing_attributes, symObjAddr: 0x5304, symBinAddr: 0x2DF2C, symSize: 0x38 }
  - { offset: 0x3BE6D, size: 0x8, addend: 0x0, symName: __RNvXsn_NtCse1nGBsou5OW_5alloc3vecINtB5_3VecTNtCs3cP53eQoTwO_11proc_macro25IdentBG_EENtNtNtCsfvfooZQ3Axs_4core3ops4drop4Drop4dropCs8noNfkmVAKC_18tracing_attributes, symObjAddr: 0x533C, symBinAddr: 0x2DF64, symSize: 0x38 }
  - { offset: 0x3BF1D, size: 0x8, addend: 0x0, symName: __RNvXsn_NtCse1nGBsou5OW_5alloc3vecINtB5_3VecTNtCs3cP53eQoTwO_11proc_macro25IdentNtNtCs6IAuOt8vWmF_3syn5token3DotEENtNtNtCsfvfooZQ3Axs_4core3ops4drop4Drop4dropCs8noNfkmVAKC_18tracing_attributes, symObjAddr: 0x5374, symBinAddr: 0x2DF9C, symSize: 0x38 }
  - { offset: 0x3BFCD, size: 0x8, addend: 0x0, symName: __RNvXsn_NtCse1nGBsou5OW_5alloc3vecINtB5_3VecTNtCs3cP53eQoTwO_11proc_macro25IdentNtNtCs6IAuOt8vWmF_3syn5token5CommaEENtNtNtCsfvfooZQ3Axs_4core3ops4drop4Drop4dropCs8noNfkmVAKC_18tracing_attributes, symObjAddr: 0x53AC, symBinAddr: 0x2DFD4, symSize: 0x38 }
  - { offset: 0x3C07D, size: 0x8, addend: 0x0, symName: __RNvXsn_NtCse1nGBsou5OW_5alloc3vecINtB5_3VecTNtCs3cP53eQoTwO_11proc_macro25IdentTBG_NtNtCs8noNfkmVAKC_18tracing_attributes6expand10RecordTypeEEENtNtNtCsfvfooZQ3Axs_4core3ops4drop4Drop4dropB1n_, symObjAddr: 0x53E4, symBinAddr: 0x2E00C, symSize: 0x38 }
  - { offset: 0x3C12D, size: 0x8, addend: 0x0, symName: __RNvXsn_NtCse1nGBsou5OW_5alloc3vecINtB5_3VecTNtNtCs8noNfkmVAKC_18tracing_attributes4attr5FieldNtNtCs6IAuOt8vWmF_3syn5token5CommaEENtNtNtCsfvfooZQ3Axs_4core3ops4drop4Drop4dropBK_, symObjAddr: 0x541C, symBinAddr: 0x2E044, symSize: 0x38 }
  - { offset: 0x3C1DD, size: 0x8, addend: 0x0, symName: __RNvXsn_NtCse1nGBsou5OW_5alloc3vecINtB5_3VecTReNtNtCs6IAuOt8vWmF_3syn2ty8TypePathEENtNtNtCsfvfooZQ3Axs_4core3ops4drop4Drop4dropCs8noNfkmVAKC_18tracing_attributes, symObjAddr: 0x5454, symBinAddr: 0x2E07C, symSize: 0x38 }
  - { offset: 0x3C293, size: 0x8, addend: 0x0, symName: __RNvXso_NtCse1nGBsou5OW_5alloc3vecINtB5_3VecNtNtCs6IAuOt8vWmF_3syn4attr9AttributeENtNtCsfvfooZQ3Axs_4core7default7Default7defaultCs8noNfkmVAKC_18tracing_attributes, symObjAddr: 0x548C, symBinAddr: 0x2E0B4, symSize: 0x14 }
  - { offset: 0x3C2B5, size: 0x8, addend: 0x0, symName: __RNvXso_NtCse1nGBsou5OW_5alloc3vecINtB5_3VecNtNtCs6IAuOt8vWmF_3syn4attr9AttributeENtNtCsfvfooZQ3Axs_4core7default7Default7defaultCs8noNfkmVAKC_18tracing_attributes, symObjAddr: 0x548C, symBinAddr: 0x2E0B4, symSize: 0x14 }
  - { offset: 0x3C2D0, size: 0x8, addend: 0x0, symName: __RNvXso_NtCse1nGBsou5OW_5alloc3vecINtB5_3VecNtNtCs6IAuOt8vWmF_3syn5error5ErrorENtNtCsfvfooZQ3Axs_4core7default7Default7defaultCs8noNfkmVAKC_18tracing_attributes, symObjAddr: 0x54A0, symBinAddr: 0x2E0C8, symSize: 0x14 }
  - { offset: 0x3C2F2, size: 0x8, addend: 0x0, symName: __RNvXso_NtCse1nGBsou5OW_5alloc3vecINtB5_3VecNtNtCs6IAuOt8vWmF_3syn5error5ErrorENtNtCsfvfooZQ3Axs_4core7default7Default7defaultCs8noNfkmVAKC_18tracing_attributes, symObjAddr: 0x54A0, symBinAddr: 0x2E0C8, symSize: 0x14 }
  - { offset: 0x41906, size: 0x8, addend: 0x0, symName: __RINvMsi_NtCse1nGBsou5OW_5alloc3vecINtB6_3VecNtCs3cP53eQoTwO_11proc_macro211TokenStreamE14extend_trustedINtNtNtNtCsfvfooZQ3Axs_4core4iter8adapters3map3MapINtNtNtB1M_5slice4iter4IterNtNtCs6IAuOt8vWmF_3syn4stmt4StmtENCNvMs_NtCs8noNfkmVAKC_18tracing_attributes6expandNtB3w_9AsyncInfo9gen_async0EEB3y_, symObjAddr: 0x0, symBinAddr: 0x28C28, symSize: 0x170 }
  - { offset: 0x41EA7, size: 0x8, addend: 0x0, symName: __RINvMsi_NtCse1nGBsou5OW_5alloc3vecINtB6_3VecNtCs3cP53eQoTwO_11proc_macro211TokenStreamE16extend_desugaredINtNtNtNtCsfvfooZQ3Axs_4core4iter8adapters3map3MapINtNtB1K_6filter6FilterINtNtNtB1O_5slice4iter4IterTNtBI_5IdentTB3i_NtNtCs8noNfkmVAKC_18tracing_attributes6expand10RecordTypeEEENCNCINvB3A_9gen_blockBG_Es0_0s2_0ENCB4y_s3_0EEB3C_, symObjAddr: 0x170, symBinAddr: 0x28D98, symSize: 0x1C4 }
  - { offset: 0x4223D, size: 0x8, addend: 0x0, symName: __RINvMsi_NtCse1nGBsou5OW_5alloc3vecINtB6_3VecNtCs3cP53eQoTwO_11proc_macro211TokenStreamE16extend_desugaredINtNtNtNtCsfvfooZQ3Axs_4core4iter8adapters3map3MapINtNtB1K_6filter6FilterINtNtNtB1O_5slice4iter4IterTNtBI_5IdentTB3i_NtNtCs8noNfkmVAKC_18tracing_attributes6expand10RecordTypeEEENCNCINvB3A_9gen_blockNtNtCs6IAuOt8vWmF_3syn4stmt5BlockEs0_0s2_0ENCB4y_s3_0EEB3C_, symObjAddr: 0x334, symBinAddr: 0x28F5C, symSize: 0x1C4 }
  - { offset: 0x42573, size: 0x8, addend: 0x0, symName: __RINvMsi_NtCse1nGBsou5OW_5alloc3vecINtB6_3VecNtCs3cP53eQoTwO_11proc_macro25IdentE14extend_trustedINtNtCsfvfooZQ3Axs_4core6option8IntoIterBG_EECs8noNfkmVAKC_18tracing_attributes, symObjAddr: 0x4F8, symBinAddr: 0x29120, symSize: 0x188 }
  - { offset: 0x4283C, size: 0x8, addend: 0x0, symName: __RINvMsi_NtCse1nGBsou5OW_5alloc3vecINtB6_3VecNtCs3cP53eQoTwO_11proc_macro25IdentE14extend_trustedINtNtNtNtCsfvfooZQ3Axs_4core4iter8adapters3map3MapINtNtB6_9into_iter8IntoIterTBG_NtNtCs6IAuOt8vWmF_3syn5token5CommaEENCNvXs8_NtB2T_10punctuatedINtB3x_10PunctuatedBG_B2P_ENtNtNtB1D_6traits7collect12IntoIterator9into_iter0EECs8noNfkmVAKC_18tracing_attributes, symObjAddr: 0x680, symBinAddr: 0x292A8, symSize: 0x188 }
  - { offset: 0x42B0E, size: 0x8, addend: 0x0, symName: __RINvMsi_NtCse1nGBsou5OW_5alloc3vecINtB6_3VecNtNtCs6IAuOt8vWmF_3syn3pat3PatE14extend_trustedINtNtCsfvfooZQ3Axs_4core6option8IntoIterBG_EECs8noNfkmVAKC_18tracing_attributes, symObjAddr: 0x808, symBinAddr: 0x29430, symSize: 0x1A0 }
  - { offset: 0x42DBA, size: 0x8, addend: 0x0, symName: __RINvMsi_NtCse1nGBsou5OW_5alloc3vecINtB6_3VecNtNtCs6IAuOt8vWmF_3syn3pat3PatE14extend_trustedINtNtNtNtCsfvfooZQ3Axs_4core4iter8adapters3map3MapINtNtB6_9into_iter8IntoIterTBG_NtNtBK_5token5CommaEENCNvXs8_NtBK_10punctuatedINtB3d_10PunctuatedBG_B2K_ENtNtNtB1y_6traits7collect12IntoIterator9into_iter0EECs8noNfkmVAKC_18tracing_attributes, symObjAddr: 0x9A8, symBinAddr: 0x295D0, symSize: 0x188 }
  - { offset: 0x4308C, size: 0x8, addend: 0x0, symName: __RINvMsi_NtCse1nGBsou5OW_5alloc3vecINtB6_3VecNtNtCs6IAuOt8vWmF_3syn3pat8FieldPatE14extend_trustedINtNtCsfvfooZQ3Axs_4core6option8IntoIterBG_EECs8noNfkmVAKC_18tracing_attributes, symObjAddr: 0xB30, symBinAddr: 0x29758, symSize: 0x1A0 }
  - { offset: 0x43337, size: 0x8, addend: 0x0, symName: __RINvMsi_NtCse1nGBsou5OW_5alloc3vecINtB6_3VecNtNtCs6IAuOt8vWmF_3syn3pat8FieldPatE14extend_trustedINtNtNtNtCsfvfooZQ3Axs_4core4iter8adapters3map3MapINtNtB6_9into_iter8IntoIterTBG_NtNtBK_5token5CommaEENCNvXs8_NtBK_10punctuatedINtB3i_10PunctuatedBG_B2P_ENtNtNtB1D_6traits7collect12IntoIterator9into_iter0EECs8noNfkmVAKC_18tracing_attributes, symObjAddr: 0xCD0, symBinAddr: 0x298F8, symSize: 0x188 }
  - { offset: 0x43609, size: 0x8, addend: 0x0, symName: __RINvMsi_NtCse1nGBsou5OW_5alloc3vecINtB6_3VecNtNtCs6IAuOt8vWmF_3syn4item5FnArgE14extend_trustedINtNtCsfvfooZQ3Axs_4core6option8IntoIterBG_EECs8noNfkmVAKC_18tracing_attributes, symObjAddr: 0xE58, symBinAddr: 0x29A80, symSize: 0x1A0 }
  - { offset: 0x438B4, size: 0x8, addend: 0x0, symName: __RINvMsi_NtCse1nGBsou5OW_5alloc3vecINtB6_3VecNtNtCs6IAuOt8vWmF_3syn4item5FnArgE14extend_trustedINtNtNtNtCsfvfooZQ3Axs_4core4iter8adapters3map3MapINtNtB6_9into_iter8IntoIterTBG_NtNtBK_5token5CommaEENCNvXs8_NtBK_10punctuatedINtB3g_10PunctuatedBG_B2N_ENtNtNtB1B_6traits7collect12IntoIterator9into_iter0EECs8noNfkmVAKC_18tracing_attributes, symObjAddr: 0xFF8, symBinAddr: 0x29C20, symSize: 0x188 }
  - { offset: 0x43C7C, size: 0x8, addend: 0x0, symName: __RINvMsi_NtCse1nGBsou5OW_5alloc3vecINtB6_3VecTNtCs3cP53eQoTwO_11proc_macro25IdentTBH_NtNtCs8noNfkmVAKC_18tracing_attributes6expand10RecordTypeEEE16extend_desugaredINtNtNtNtCsfvfooZQ3Axs_4core4iter8adapters3map3MapINtNtB2F_7flatten7FlatMapINtNtCs6IAuOt8vWmF_3syn10punctuated8IntoIterNtNtB3S_4item5FnArgEINtNtB8_5boxed3BoxDNtNtNtB2H_6traits8iterator8Iteratorp4ItemB1g_EL_ENCNCINvB1m_9gen_blockNtBJ_11TokenStreamEs0_00ENCB5X_s_0EEB1o_, symObjAddr: 0x1180, symBinAddr: 0x29DA8, symSize: 0x1F8 }
  - { offset: 0x44012, size: 0x8, addend: 0x0, symName: __RINvMsi_NtCse1nGBsou5OW_5alloc3vecINtB6_3VecTNtCs3cP53eQoTwO_11proc_macro25IdentTBH_NtNtCs8noNfkmVAKC_18tracing_attributes6expand10RecordTypeEEE16extend_desugaredINtNtNtNtCsfvfooZQ3Axs_4core4iter8adapters3map3MapINtNtB2F_7flatten7FlatMapINtNtCs6IAuOt8vWmF_3syn10punctuated8IntoIterNtNtB3S_4item5FnArgEINtNtB8_5boxed3BoxDNtNtNtB2H_6traits8iterator8Iteratorp4ItemB1g_EL_ENCNCINvB1m_9gen_blockNtNtB3S_4stmt5BlockEs0_00ENCB5X_s_0EEB1o_, symObjAddr: 0x1378, symBinAddr: 0x29FA0, symSize: 0x1F8 }
  - { offset: 0x44336, size: 0x8, addend: 0x0, symName: __RNvMNtCse1nGBsou5OW_5alloc3vecINtB2_3VecNtCs3cP53eQoTwO_11proc_macro25IdentE13with_capacityCs8noNfkmVAKC_18tracing_attributes, symObjAddr: 0x1C04, symBinAddr: 0x2A82C, symSize: 0x48 }
  - { offset: 0x44410, size: 0x8, addend: 0x0, symName: __RNvMNtCse1nGBsou5OW_5alloc3vecINtB2_3VecNtNtCs6IAuOt8vWmF_3syn3pat3PatE13with_capacityCs8noNfkmVAKC_18tracing_attributes, symObjAddr: 0x1C4C, symBinAddr: 0x2A874, symSize: 0x48 }
  - { offset: 0x444EA, size: 0x8, addend: 0x0, symName: __RNvMNtCse1nGBsou5OW_5alloc3vecINtB2_3VecNtNtCs6IAuOt8vWmF_3syn3pat8FieldPatE13with_capacityCs8noNfkmVAKC_18tracing_attributes, symObjAddr: 0x1C94, symBinAddr: 0x2A8BC, symSize: 0x48 }
  - { offset: 0x445C4, size: 0x8, addend: 0x0, symName: __RNvMNtCse1nGBsou5OW_5alloc3vecINtB2_3VecNtNtCs6IAuOt8vWmF_3syn4item5FnArgE13with_capacityCs8noNfkmVAKC_18tracing_attributes, symObjAddr: 0x1CDC, symBinAddr: 0x2A904, symSize: 0x48 }
  - { offset: 0x4463C, size: 0x8, addend: 0x0, symName: __RNvMNtCse1nGBsou5OW_5alloc3vecINtB2_3VecTNtCs3cP53eQoTwO_11proc_macro25IdentNtNtCs6IAuOt8vWmF_3syn5token3DotEE3newCs8noNfkmVAKC_18tracing_attributes, symObjAddr: 0x1D24, symBinAddr: 0x2A94C, symSize: 0x14 }
  - { offset: 0x44659, size: 0x8, addend: 0x0, symName: __RNvMNtCse1nGBsou5OW_5alloc3vecINtB2_3VecTNtCs3cP53eQoTwO_11proc_macro25IdentNtNtCs6IAuOt8vWmF_3syn5token5CommaEE3newCs8noNfkmVAKC_18tracing_attributes, symObjAddr: 0x1D38, symBinAddr: 0x2A960, symSize: 0x14 }
  - { offset: 0x44676, size: 0x8, addend: 0x0, symName: __RNvMNtCse1nGBsou5OW_5alloc3vecINtB2_3VecTNtNtCs8noNfkmVAKC_18tracing_attributes4attr5FieldNtNtCs6IAuOt8vWmF_3syn5token5CommaEE3newBH_, symObjAddr: 0x1D4C, symBinAddr: 0x2A974, symSize: 0x14 }
  - { offset: 0x446B1, size: 0x8, addend: 0x0, symName: __RNvMNtCse1nGBsou5OW_5alloc3vecINtB2_3VecTReNtNtCs6IAuOt8vWmF_3syn2ty8TypePathEE3newCs8noNfkmVAKC_18tracing_attributes, symObjAddr: 0x1D60, symBinAddr: 0x2A988, symSize: 0x14 }
  - { offset: 0x447FE, size: 0x8, addend: 0x0, symName: __RNvMs_NtCse1nGBsou5OW_5alloc3vecINtB4_3VecNtCs3cP53eQoTwO_11proc_macro211TokenStreamE7reserveCs8noNfkmVAKC_18tracing_attributes, symObjAddr: 0x1D74, symBinAddr: 0x2A99C, symSize: 0xC8 }
  - { offset: 0x449FC, size: 0x8, addend: 0x0, symName: __RNvMs_NtCse1nGBsou5OW_5alloc3vecINtB4_3VecNtCs3cP53eQoTwO_11proc_macro211TokenStreamE8as_sliceCs8noNfkmVAKC_18tracing_attributes, symObjAddr: 0x1E3C, symBinAddr: 0x2AA64, symSize: 0x64 }
  - { offset: 0x44BCC, size: 0x8, addend: 0x0, symName: __RNvMs_NtCse1nGBsou5OW_5alloc3vecINtB4_3VecNtCs3cP53eQoTwO_11proc_macro25IdentE7reserveCs8noNfkmVAKC_18tracing_attributes, symObjAddr: 0x1EA0, symBinAddr: 0x2AAC8, symSize: 0xC8 }
  - { offset: 0x44E49, size: 0x8, addend: 0x0, symName: __RNvMs_NtCse1nGBsou5OW_5alloc3vecINtB4_3VecNtNtCs6IAuOt8vWmF_3syn3pat3PatE7reserveCs8noNfkmVAKC_18tracing_attributes, symObjAddr: 0x1F68, symBinAddr: 0x2AB90, symSize: 0xC8 }
  - { offset: 0x450C6, size: 0x8, addend: 0x0, symName: __RNvMs_NtCse1nGBsou5OW_5alloc3vecINtB4_3VecNtNtCs6IAuOt8vWmF_3syn3pat8FieldPatE7reserveCs8noNfkmVAKC_18tracing_attributes, symObjAddr: 0x2030, symBinAddr: 0x2AC58, symSize: 0xC8 }
  - { offset: 0x45343, size: 0x8, addend: 0x0, symName: __RNvMs_NtCse1nGBsou5OW_5alloc3vecINtB4_3VecNtNtCs6IAuOt8vWmF_3syn4item5FnArgE7reserveCs8noNfkmVAKC_18tracing_attributes, symObjAddr: 0x20F8, symBinAddr: 0x2AD20, symSize: 0xC8 }
  - { offset: 0x45568, size: 0x8, addend: 0x0, symName: __RNvMs_NtCse1nGBsou5OW_5alloc3vecINtB4_3VecNtNtCs6IAuOt8vWmF_3syn4stmt4StmtE8as_sliceCs8noNfkmVAKC_18tracing_attributes, symObjAddr: 0x21C0, symBinAddr: 0x2ADE8, symSize: 0x64 }
  - { offset: 0x45735, size: 0x8, addend: 0x0, symName: __RNvMs_NtCse1nGBsou5OW_5alloc3vecINtB4_3VecNtNtCs6IAuOt8vWmF_3syn5error5ErrorE4pushCs8noNfkmVAKC_18tracing_attributes, symObjAddr: 0x2224, symBinAddr: 0x2AE4C, symSize: 0x108 }
  - { offset: 0x4598D, size: 0x8, addend: 0x0, symName: __RNvMs_NtCse1nGBsou5OW_5alloc3vecINtB4_3VecNtNtCs6IAuOt8vWmF_3syn5error5ErrorE8as_sliceCs8noNfkmVAKC_18tracing_attributes, symObjAddr: 0x232C, symBinAddr: 0x2AF54, symSize: 0x64 }
  - { offset: 0x45B5A, size: 0x8, addend: 0x0, symName: __RNvMs_NtCse1nGBsou5OW_5alloc3vecINtB4_3VecTNtCs3cP53eQoTwO_11proc_macro25IdentNtNtCs6IAuOt8vWmF_3syn5token3DotEE4pushCs8noNfkmVAKC_18tracing_attributes, symObjAddr: 0x2390, symBinAddr: 0x2AFB8, symSize: 0x100 }
  - { offset: 0x45DB2, size: 0x8, addend: 0x0, symName: __RNvMs_NtCse1nGBsou5OW_5alloc3vecINtB4_3VecTNtCs3cP53eQoTwO_11proc_macro25IdentNtNtCs6IAuOt8vWmF_3syn5token3DotEE8as_sliceCs8noNfkmVAKC_18tracing_attributes, symObjAddr: 0x2490, symBinAddr: 0x2B0B8, symSize: 0x64 }
  - { offset: 0x45E79, size: 0x8, addend: 0x0, symName: __RNvMs_NtCse1nGBsou5OW_5alloc3vecINtB4_3VecTNtCs3cP53eQoTwO_11proc_macro25IdentNtNtCs6IAuOt8vWmF_3syn5token5CommaEE3lenCs8noNfkmVAKC_18tracing_attributes, symObjAddr: 0x24F4, symBinAddr: 0x2B11C, symSize: 0x18 }
  - { offset: 0x45FB4, size: 0x8, addend: 0x0, symName: __RNvMs_NtCse1nGBsou5OW_5alloc3vecINtB4_3VecTNtCs3cP53eQoTwO_11proc_macro25IdentNtNtCs6IAuOt8vWmF_3syn5token5CommaEE4pushCs8noNfkmVAKC_18tracing_attributes, symObjAddr: 0x250C, symBinAddr: 0x2B134, symSize: 0x100 }
  - { offset: 0x4627E, size: 0x8, addend: 0x0, symName: __RNvMs_NtCse1nGBsou5OW_5alloc3vecINtB4_3VecTNtCs3cP53eQoTwO_11proc_macro25IdentTBF_NtNtCs8noNfkmVAKC_18tracing_attributes6expand10RecordTypeEEE7reserveB1m_, symObjAddr: 0x260C, symBinAddr: 0x2B234, symSize: 0xC8 }
  - { offset: 0x4647C, size: 0x8, addend: 0x0, symName: __RNvMs_NtCse1nGBsou5OW_5alloc3vecINtB4_3VecTNtCs3cP53eQoTwO_11proc_macro25IdentTBF_NtNtCs8noNfkmVAKC_18tracing_attributes6expand10RecordTypeEEE8as_sliceB1m_, symObjAddr: 0x26D4, symBinAddr: 0x2B2FC, symSize: 0x64 }
  - { offset: 0x46611, size: 0x8, addend: 0x0, symName: __RNvMs_NtCse1nGBsou5OW_5alloc3vecINtB4_3VecTNtNtCs6IAuOt8vWmF_3syn2ty4TypeNtNtBJ_5token5CommaEE12as_mut_sliceCs8noNfkmVAKC_18tracing_attributes, symObjAddr: 0x2738, symBinAddr: 0x2B360, symSize: 0x64 }
  - { offset: 0x467BB, size: 0x8, addend: 0x0, symName: __RNvMs_NtCse1nGBsou5OW_5alloc3vecINtB4_3VecTNtNtCs6IAuOt8vWmF_3syn2ty9BareFnArgNtNtBJ_5token5CommaEE12as_mut_sliceCs8noNfkmVAKC_18tracing_attributes, symObjAddr: 0x279C, symBinAddr: 0x2B3C4, symSize: 0x64 }
  - { offset: 0x46965, size: 0x8, addend: 0x0, symName: __RNvMs_NtCse1nGBsou5OW_5alloc3vecINtB4_3VecTNtNtCs6IAuOt8vWmF_3syn3pat3PatNtNtBJ_5token2OrEE12as_mut_sliceCs8noNfkmVAKC_18tracing_attributes, symObjAddr: 0x2800, symBinAddr: 0x2B428, symSize: 0x64 }
  - { offset: 0x46B02, size: 0x8, addend: 0x0, symName: __RNvMs_NtCse1nGBsou5OW_5alloc3vecINtB4_3VecTNtNtCs6IAuOt8vWmF_3syn3pat3PatNtNtBJ_5token5CommaEE12as_mut_sliceCs8noNfkmVAKC_18tracing_attributes, symObjAddr: 0x2864, symBinAddr: 0x2B48C, symSize: 0x64 }
  - { offset: 0x46C9F, size: 0x8, addend: 0x0, symName: __RNvMs_NtCse1nGBsou5OW_5alloc3vecINtB4_3VecTNtNtCs6IAuOt8vWmF_3syn3pat8FieldPatNtNtBJ_5token5CommaEE12as_mut_sliceCs8noNfkmVAKC_18tracing_attributes, symObjAddr: 0x28C8, symBinAddr: 0x2B4F0, symSize: 0x64 }
  - { offset: 0x46D7B, size: 0x8, addend: 0x0, symName: __RNvMs_NtCse1nGBsou5OW_5alloc3vecINtB4_3VecTNtNtCs6IAuOt8vWmF_3syn3pat8FieldPatNtNtBJ_5token5CommaEE3lenCs8noNfkmVAKC_18tracing_attributes, symObjAddr: 0x292C, symBinAddr: 0x2B554, symSize: 0x18 }
  - { offset: 0x46E8B, size: 0x8, addend: 0x0, symName: __RNvMs_NtCse1nGBsou5OW_5alloc3vecINtB4_3VecTNtNtCs6IAuOt8vWmF_3syn4data7VariantNtNtBJ_5token5CommaEE12as_mut_sliceCs8noNfkmVAKC_18tracing_attributes, symObjAddr: 0x2944, symBinAddr: 0x2B56C, symSize: 0x64 }
  - { offset: 0x47035, size: 0x8, addend: 0x0, symName: __RNvMs_NtCse1nGBsou5OW_5alloc3vecINtB4_3VecTNtNtCs6IAuOt8vWmF_3syn4expr10FieldValueNtNtBJ_5token5CommaEE12as_mut_sliceCs8noNfkmVAKC_18tracing_attributes, symObjAddr: 0x29A8, symBinAddr: 0x2B5D0, symSize: 0x64 }
  - { offset: 0x471DF, size: 0x8, addend: 0x0, symName: __RNvMs_NtCse1nGBsou5OW_5alloc3vecINtB4_3VecTNtNtCs6IAuOt8vWmF_3syn4expr4ExprNtNtBJ_5token5CommaEE12as_mut_sliceCs8noNfkmVAKC_18tracing_attributes, symObjAddr: 0x2A0C, symBinAddr: 0x2B634, symSize: 0x64 }
  - { offset: 0x4737C, size: 0x8, addend: 0x0, symName: __RNvMs_NtCse1nGBsou5OW_5alloc3vecINtB4_3VecTNtNtCs6IAuOt8vWmF_3syn4item5FnArgNtNtBJ_5token5CommaEE12as_mut_sliceCs8noNfkmVAKC_18tracing_attributes, symObjAddr: 0x2A70, symBinAddr: 0x2B698, symSize: 0x64 }
  - { offset: 0x47526, size: 0x8, addend: 0x0, symName: __RNvMs_NtCse1nGBsou5OW_5alloc3vecINtB4_3VecTNtNtCs6IAuOt8vWmF_3syn4item7UseTreeNtNtBJ_5token5CommaEE12as_mut_sliceCs8noNfkmVAKC_18tracing_attributes, symObjAddr: 0x2AD4, symBinAddr: 0x2B6FC, symSize: 0x64 }
  - { offset: 0x476D0, size: 0x8, addend: 0x0, symName: __RNvMs_NtCse1nGBsou5OW_5alloc3vecINtB4_3VecTNtNtCs6IAuOt8vWmF_3syn4path15GenericArgumentNtNtBJ_5token5CommaEE12as_mut_sliceCs8noNfkmVAKC_18tracing_attributes, symObjAddr: 0x2B38, symBinAddr: 0x2B760, symSize: 0x64 }
  - { offset: 0x4787A, size: 0x8, addend: 0x0, symName: __RNvMs_NtCse1nGBsou5OW_5alloc3vecINtB4_3VecTNtNtCs6IAuOt8vWmF_3syn8generics13CapturedParamNtNtBJ_5token5CommaEE12as_mut_sliceCs8noNfkmVAKC_18tracing_attributes, symObjAddr: 0x2B9C, symBinAddr: 0x2B7C4, symSize: 0x64 }
  - { offset: 0x47A24, size: 0x8, addend: 0x0, symName: __RNvMs_NtCse1nGBsou5OW_5alloc3vecINtB4_3VecTNtNtCs6IAuOt8vWmF_3syn8generics14TypeParamBoundNtNtBJ_5token4PlusEE12as_mut_sliceCs8noNfkmVAKC_18tracing_attributes, symObjAddr: 0x2C00, symBinAddr: 0x2B828, symSize: 0x64 }
  - { offset: 0x47BCE, size: 0x8, addend: 0x0, symName: __RNvMs_NtCse1nGBsou5OW_5alloc3vecINtB4_3VecTNtNtCs6IAuOt8vWmF_3syn8generics14WherePredicateNtNtBJ_5token5CommaEE12as_mut_sliceCs8noNfkmVAKC_18tracing_attributes, symObjAddr: 0x2C64, symBinAddr: 0x2B88C, symSize: 0x64 }
  - { offset: 0x47D78, size: 0x8, addend: 0x0, symName: __RNvMs_NtCse1nGBsou5OW_5alloc3vecINtB4_3VecTNtNtCs6IAuOt8vWmF_3syn8lifetime8LifetimeNtNtBJ_5token4PlusEE12as_mut_sliceCs8noNfkmVAKC_18tracing_attributes, symObjAddr: 0x2CC8, symBinAddr: 0x2B8F0, symSize: 0x64 }
  - { offset: 0x47F22, size: 0x8, addend: 0x0, symName: __RNvMs_NtCse1nGBsou5OW_5alloc3vecINtB4_3VecTNtNtCs8noNfkmVAKC_18tracing_attributes4attr5FieldNtNtCs6IAuOt8vWmF_3syn5token5CommaEE12as_mut_sliceBJ_, symObjAddr: 0x2D2C, symBinAddr: 0x2B954, symSize: 0x64 }
  - { offset: 0x480D0, size: 0x8, addend: 0x0, symName: __RNvMs_NtCse1nGBsou5OW_5alloc3vecINtB4_3VecTNtNtCs8noNfkmVAKC_18tracing_attributes4attr5FieldNtNtCs6IAuOt8vWmF_3syn5token5CommaEE4pushBJ_, symObjAddr: 0x2D90, symBinAddr: 0x2B9B8, symSize: 0x120 }
  - { offset: 0x48322, size: 0x8, addend: 0x0, symName: __RNvMs_NtCse1nGBsou5OW_5alloc3vecINtB4_3VecTNtNtCs8noNfkmVAKC_18tracing_attributes4attr5FieldNtNtCs6IAuOt8vWmF_3syn5token5CommaEE8as_sliceBJ_, symObjAddr: 0x2EB0, symBinAddr: 0x2BAD8, symSize: 0x64 }
  - { offset: 0x484EF, size: 0x8, addend: 0x0, symName: __RNvMs_NtCse1nGBsou5OW_5alloc3vecINtB4_3VecTReNtNtCs6IAuOt8vWmF_3syn2ty8TypePathEE4pushCs8noNfkmVAKC_18tracing_attributes, symObjAddr: 0x2F14, symBinAddr: 0x2BB3C, symSize: 0x120 }
  - { offset: 0x48BBA, size: 0x8, addend: 0x0, symName: __RNvXs4_NtNtCs2cqEZUIJimJ_5quote9___private3extINtNtCse1nGBsou5OW_5alloc3vec3VecNtCs3cP53eQoTwO_11proc_macro211TokenStreamENtB5_16RepAsIteratorExt15quote_into_iterCs8noNfkmVAKC_18tracing_attributes, symObjAddr: 0x3A00, symBinAddr: 0x2C628, symSize: 0x38 }
  - { offset: 0x48BEF, size: 0x8, addend: 0x0, symName: __RNvXs4_NtNtCs2cqEZUIJimJ_5quote9___private3extINtNtCse1nGBsou5OW_5alloc3vec3VecNtNtCs6IAuOt8vWmF_3syn4attr9AttributeENtB5_16RepAsIteratorExt15quote_into_iterCs8noNfkmVAKC_18tracing_attributes, symObjAddr: 0x3A38, symBinAddr: 0x2C660, symSize: 0x38 }
  - { offset: 0x4B462, size: 0x8, addend: 0x0, symName: __RINvXs2U_NtNtCsfvfooZQ3Axs_4core5slice4iterINtB7_4IterNtNtCs6IAuOt8vWmF_3syn4stmt4StmtENtNtNtNtBb_4iter6traits8iterator8Iterator4folduNCINvNtNtB1t_8adapters3map8map_foldRBQ_NtCs3cP53eQoTwO_11proc_macro211TokenStreamuNCNvMs_NtCs8noNfkmVAKC_18tracing_attributes6expandNtB3z_9AsyncInfo9gen_async0NCINvNvB1n_8for_each4callB2L_NCINvMsi_NtCse1nGBsou5OW_5alloc3vecINtB5j_3VecB2L_E14extend_trustedINtB2d_3MapBF_B3s_EE0E0E0EB3B_, symObjAddr: 0x0, symBinAddr: 0x2E0DC, symSize: 0x1B8 }
  - { offset: 0x52042, size: 0x8, addend: 0x0, symName: __RINvXs2U_NtNtCsfvfooZQ3Axs_4core5slice4iterINtB7_4IterNtNtCs6IAuOt8vWmF_3syn4stmt4StmtENtNtNtNtBb_4iter6traits8iterator8Iterator4folduNCINvNtNtB1t_8adapters3map8map_foldRBQ_NtCs3cP53eQoTwO_11proc_macro211TokenStreamuNCNvMs_NtCs8noNfkmVAKC_18tracing_attributes6expandNtB3z_9AsyncInfo9gen_async0NCINvNvB1n_8for_each4callB2L_NCINvMsi_NtCse1nGBsou5OW_5alloc3vecINtB5j_3VecB2L_E14extend_trustedINtB2d_3MapBF_B3s_EE0E0E0EB3B_, symObjAddr: 0x0, symBinAddr: 0x2E0DC, symSize: 0x1B8 }
  - { offset: 0x52196, size: 0x8, addend: 0x0, symName: __RINvXs2U_NtNtCsfvfooZQ3Axs_4core5slice4iterINtB7_4IterReENtNtNtNtBb_4iter6traits8iterator8Iterator3anyNCNCNvMNtCs8noNfkmVAKC_18tracing_attributes6expandNtB1J_10RecordType13parse_from_ty00EB1L_, symObjAddr: 0x1B8, symBinAddr: 0x2E294, symSize: 0xB4 }
  - { offset: 0x521FB, size: 0x8, addend: 0x0, symName: __RINvXs2U_NtNtCsfvfooZQ3Axs_4core5slice4iterINtB7_4IterTNtCs3cP53eQoTwO_11proc_macro25IdentTBR_NtNtCs8noNfkmVAKC_18tracing_attributes6expand10RecordTypeEEENtNtNtNtBb_4iter6traits8iterator8Iterator4findQNCNCINvB1w_9gen_blockNtBT_11TokenStreamEs0_0s2_0EB1y_, symObjAddr: 0x26C, symBinAddr: 0x2E348, symSize: 0xB4 }
  - { offset: 0x52260, size: 0x8, addend: 0x0, symName: __RINvXs2U_NtNtCsfvfooZQ3Axs_4core5slice4iterINtB7_4IterTNtCs3cP53eQoTwO_11proc_macro25IdentTBR_NtNtCs8noNfkmVAKC_18tracing_attributes6expand10RecordTypeEEENtNtNtNtBb_4iter6traits8iterator8Iterator4findQNCNCINvB1w_9gen_blockNtNtCs6IAuOt8vWmF_3syn4stmt5BlockEs0_0s2_0EB1y_, symObjAddr: 0x320, symBinAddr: 0x2E3FC, symSize: 0xB4 }
  - { offset: 0x522C5, size: 0x8, addend: 0x0, symName: __RNvXs2U_NtNtCsfvfooZQ3Axs_4core5slice4iterINtB6_4IterNtCs3cP53eQoTwO_11proc_macro211TokenStreamENtNtNtNtBa_4iter6traits8iterator8Iterator4nextCs8noNfkmVAKC_18tracing_attributes, symObjAddr: 0x1328, symBinAddr: 0x2F404, symSize: 0xBC }
  - { offset: 0x52413, size: 0x8, addend: 0x0, symName: __RNvXs2U_NtNtCsfvfooZQ3Axs_4core5slice4iterINtB6_4IterNtNtCs6IAuOt8vWmF_3syn4stmt4StmtENtNtNtNtBa_4iter6traits8iterator8Iterator9size_hintCs8noNfkmVAKC_18tracing_attributes, symObjAddr: 0x13E4, symBinAddr: 0x2F4C0, symSize: 0x70 }
  - { offset: 0x52482, size: 0x8, addend: 0x0, symName: __RNvXs2U_NtNtCsfvfooZQ3Axs_4core5slice4iterINtB6_4IterNtNtCs6IAuOt8vWmF_3syn5error5ErrorENtNtNtNtBa_4iter6traits8iterator8Iterator4nextCs8noNfkmVAKC_18tracing_attributes, symObjAddr: 0x1454, symBinAddr: 0x2F530, symSize: 0xBC }
  - { offset: 0x525D0, size: 0x8, addend: 0x0, symName: __RNvXs2U_NtNtCsfvfooZQ3Axs_4core5slice4iterINtB6_4IterTNtCs3cP53eQoTwO_11proc_macro25IdentBQ_EENtNtNtNtBa_4iter6traits8iterator8Iterator4nextCs8noNfkmVAKC_18tracing_attributes, symObjAddr: 0x1510, symBinAddr: 0x2F5EC, symSize: 0xBC }
  - { offset: 0x5271E, size: 0x8, addend: 0x0, symName: __RNvXs2U_NtNtCsfvfooZQ3Axs_4core5slice4iterINtB6_4IterTNtCs3cP53eQoTwO_11proc_macro25IdentNtNtCs6IAuOt8vWmF_3syn5token3DotEENtNtNtNtBa_4iter6traits8iterator8Iterator4nextCs8noNfkmVAKC_18tracing_attributes, symObjAddr: 0x15CC, symBinAddr: 0x2F6A8, symSize: 0xBC }
  - { offset: 0x5286C, size: 0x8, addend: 0x0, symName: __RNvXs2U_NtNtCsfvfooZQ3Axs_4core5slice4iterINtB6_4IterTNtCs3cP53eQoTwO_11proc_macro25IdentTBQ_NtNtCs8noNfkmVAKC_18tracing_attributes6expand10RecordTypeEEENtNtNtNtBa_4iter6traits8iterator8Iterator4nextB1x_, symObjAddr: 0x1688, symBinAddr: 0x2F764, symSize: 0xBC }
  - { offset: 0x529BA, size: 0x8, addend: 0x0, symName: __RNvXs2U_NtNtCsfvfooZQ3Axs_4core5slice4iterINtB6_4IterTNtCs3cP53eQoTwO_11proc_macro25IdentTBQ_NtNtCs8noNfkmVAKC_18tracing_attributes6expand10RecordTypeEEENtNtNtNtBa_4iter6traits8iterator8Iterator9size_hintB1x_, symObjAddr: 0x1744, symBinAddr: 0x2F820, symSize: 0x70 }
  - { offset: 0x52A29, size: 0x8, addend: 0x0, symName: __RNvXs2U_NtNtCsfvfooZQ3Axs_4core5slice4iterINtB6_4IterTNtNtCs8noNfkmVAKC_18tracing_attributes4attr5FieldNtNtCs6IAuOt8vWmF_3syn5token5CommaEENtNtNtNtBa_4iter6traits8iterator8Iterator4nextBU_, symObjAddr: 0x17B4, symBinAddr: 0x2F890, symSize: 0xBC }
  - { offset: 0x52B77, size: 0x8, addend: 0x0, symName: __RNvXs2U_NtNtCsfvfooZQ3Axs_4core5slice4iterINtB6_4IterTReNtNtCs6IAuOt8vWmF_3syn2ty8TypePathEENtNtNtNtBa_4iter6traits8iterator8Iterator4nextCs8noNfkmVAKC_18tracing_attributes, symObjAddr: 0x1870, symBinAddr: 0x2F94C, symSize: 0xBC }
  - { offset: 0x539AF, size: 0x8, addend: 0x0, symName: __RNvXs2V_NtNtCsfvfooZQ3Axs_4core5slice4iterINtB6_4IterNtNtCs6IAuOt8vWmF_3syn4stmt4StmtENtNtNtNtBa_4iter6traits12double_ended19DoubleEndedIterator9next_backCs8noNfkmVAKC_18tracing_attributes, symObjAddr: 0x192C, symBinAddr: 0x2FA08, symSize: 0x100 }
  - { offset: 0x53B0B, size: 0x8, addend: 0x0, symName: __RNvXs2V_NtNtCsfvfooZQ3Axs_4core5slice4iterINtB6_4IterTNtCs3cP53eQoTwO_11proc_macro25IdentNtNtCs6IAuOt8vWmF_3syn5token3DotEENtNtNtNtBa_4iter6traits12double_ended19DoubleEndedIterator9next_backCs8noNfkmVAKC_18tracing_attributes, symObjAddr: 0x1A2C, symBinAddr: 0x2FB08, symSize: 0x100 }
  - { offset: 0x53C67, size: 0x8, addend: 0x0, symName: __RNvXs2V_NtNtCsfvfooZQ3Axs_4core5slice4iterINtB6_4IterTNtNtCs8noNfkmVAKC_18tracing_attributes4attr5FieldNtNtCs6IAuOt8vWmF_3syn5token5CommaEENtNtNtNtBa_4iter6traits12double_ended19DoubleEndedIterator9next_backBU_, symObjAddr: 0x1B2C, symBinAddr: 0x2FC08, symSize: 0x100 }
  - { offset: 0x541A9, size: 0x8, addend: 0x0, symName: __RNvXs32_NtNtCsfvfooZQ3Axs_4core5slice4iterINtB6_7IterMutNtNtCs6IAuOt8vWmF_3syn4attr9AttributeENtNtNtNtBa_4iter6traits8iterator8Iterator4nextCs8noNfkmVAKC_18tracing_attributes, symObjAddr: 0x1C2C, symBinAddr: 0x2FD08, symSize: 0xBC }
  - { offset: 0x542E2, size: 0x8, addend: 0x0, symName: __RNvXs32_NtNtCsfvfooZQ3Axs_4core5slice4iterINtB6_7IterMutNtNtCs6IAuOt8vWmF_3syn4expr3ArmENtNtNtNtBa_4iter6traits8iterator8Iterator4nextCs8noNfkmVAKC_18tracing_attributes, symObjAddr: 0x1CE8, symBinAddr: 0x2FDC4, symSize: 0xBC }
  - { offset: 0x5441B, size: 0x8, addend: 0x0, symName: __RNvXs32_NtNtCsfvfooZQ3Axs_4core5slice4iterINtB6_7IterMutNtNtCs6IAuOt8vWmF_3syn4item11ForeignItemENtNtNtNtBa_4iter6traits8iterator8Iterator4nextCs8noNfkmVAKC_18tracing_attributes, symObjAddr: 0x1DA4, symBinAddr: 0x2FE80, symSize: 0xBC }
  - { offset: 0x54554, size: 0x8, addend: 0x0, symName: __RNvXs32_NtNtCsfvfooZQ3Axs_4core5slice4iterINtB6_7IterMutNtNtCs6IAuOt8vWmF_3syn4item4ItemENtNtNtNtBa_4iter6traits8iterator8Iterator4nextCs8noNfkmVAKC_18tracing_attributes, symObjAddr: 0x1E60, symBinAddr: 0x2FF3C, symSize: 0xBC }
  - { offset: 0x5468D, size: 0x8, addend: 0x0, symName: __RNvXs32_NtNtCsfvfooZQ3Axs_4core5slice4iterINtB6_7IterMutNtNtCs6IAuOt8vWmF_3syn4item8ImplItemENtNtNtNtBa_4iter6traits8iterator8Iterator4nextCs8noNfkmVAKC_18tracing_attributes, symObjAddr: 0x1F1C, symBinAddr: 0x2FFF8, symSize: 0xBC }
  - { offset: 0x547C6, size: 0x8, addend: 0x0, symName: __RNvXs32_NtNtCsfvfooZQ3Axs_4core5slice4iterINtB6_7IterMutNtNtCs6IAuOt8vWmF_3syn4item9TraitItemENtNtNtNtBa_4iter6traits8iterator8Iterator4nextCs8noNfkmVAKC_18tracing_attributes, symObjAddr: 0x1FD8, symBinAddr: 0x300B4, symSize: 0xBC }
  - { offset: 0x548FF, size: 0x8, addend: 0x0, symName: __RNvXs32_NtNtCsfvfooZQ3Axs_4core5slice4iterINtB6_7IterMutNtNtCs6IAuOt8vWmF_3syn4stmt4StmtENtNtNtNtBa_4iter6traits8iterator8Iterator4nextCs8noNfkmVAKC_18tracing_attributes, symObjAddr: 0x2094, symBinAddr: 0x30170, symSize: 0xBC }
  - { offset: 0x54A38, size: 0x8, addend: 0x0, symName: __RNvXs32_NtNtCsfvfooZQ3Axs_4core5slice4iterINtB6_7IterMutTNtNtCs6IAuOt8vWmF_3syn2ty4TypeNtNtBX_5token5CommaEENtNtNtNtBa_4iter6traits8iterator8Iterator4nextCs8noNfkmVAKC_18tracing_attributes, symObjAddr: 0x2150, symBinAddr: 0x3022C, symSize: 0xBC }
  - { offset: 0x54B71, size: 0x8, addend: 0x0, symName: __RNvXs32_NtNtCsfvfooZQ3Axs_4core5slice4iterINtB6_7IterMutTNtNtCs6IAuOt8vWmF_3syn2ty9BareFnArgNtNtBX_5token5CommaEENtNtNtNtBa_4iter6traits8iterator8Iterator4nextCs8noNfkmVAKC_18tracing_attributes, symObjAddr: 0x220C, symBinAddr: 0x302E8, symSize: 0xBC }
  - { offset: 0x54CAA, size: 0x8, addend: 0x0, symName: __RNvXs32_NtNtCsfvfooZQ3Axs_4core5slice4iterINtB6_7IterMutTNtNtCs6IAuOt8vWmF_3syn3pat3PatNtNtBX_5token2OrEENtNtNtNtBa_4iter6traits8iterator8Iterator4nextCs8noNfkmVAKC_18tracing_attributes, symObjAddr: 0x22C8, symBinAddr: 0x303A4, symSize: 0xBC }
  - { offset: 0x54DE3, size: 0x8, addend: 0x0, symName: __RNvXs32_NtNtCsfvfooZQ3Axs_4core5slice4iterINtB6_7IterMutTNtNtCs6IAuOt8vWmF_3syn3pat3PatNtNtBX_5token5CommaEENtNtNtNtBa_4iter6traits8iterator8Iterator4nextCs8noNfkmVAKC_18tracing_attributes, symObjAddr: 0x2384, symBinAddr: 0x30460, symSize: 0xBC }
  - { offset: 0x54F1C, size: 0x8, addend: 0x0, symName: __RNvXs32_NtNtCsfvfooZQ3Axs_4core5slice4iterINtB6_7IterMutTNtNtCs6IAuOt8vWmF_3syn3pat8FieldPatNtNtBX_5token5CommaEENtNtNtNtBa_4iter6traits8iterator8Iterator4nextCs8noNfkmVAKC_18tracing_attributes, symObjAddr: 0x2440, symBinAddr: 0x3051C, symSize: 0xBC }
  - { offset: 0x55055, size: 0x8, addend: 0x0, symName: __RNvXs32_NtNtCsfvfooZQ3Axs_4core5slice4iterINtB6_7IterMutTNtNtCs6IAuOt8vWmF_3syn4data7VariantNtNtBX_5token5CommaEENtNtNtNtBa_4iter6traits8iterator8Iterator4nextCs8noNfkmVAKC_18tracing_attributes, symObjAddr: 0x24FC, symBinAddr: 0x305D8, symSize: 0xBC }
  - { offset: 0x5518E, size: 0x8, addend: 0x0, symName: __RNvXs32_NtNtCsfvfooZQ3Axs_4core5slice4iterINtB6_7IterMutTNtNtCs6IAuOt8vWmF_3syn4expr10FieldValueNtNtBX_5token5CommaEENtNtNtNtBa_4iter6traits8iterator8Iterator4nextCs8noNfkmVAKC_18tracing_attributes, symObjAddr: 0x25B8, symBinAddr: 0x30694, symSize: 0xBC }
  - { offset: 0x552C7, size: 0x8, addend: 0x0, symName: __RNvXs32_NtNtCsfvfooZQ3Axs_4core5slice4iterINtB6_7IterMutTNtNtCs6IAuOt8vWmF_3syn4expr4ExprNtNtBX_5token5CommaEENtNtNtNtBa_4iter6traits8iterator8Iterator4nextCs8noNfkmVAKC_18tracing_attributes, symObjAddr: 0x2674, symBinAddr: 0x30750, symSize: 0xBC }
  - { offset: 0x55400, size: 0x8, addend: 0x0, symName: __RNvXs32_NtNtCsfvfooZQ3Axs_4core5slice4iterINtB6_7IterMutTNtNtCs6IAuOt8vWmF_3syn4item5FnArgNtNtBX_5token5CommaEENtNtNtNtBa_4iter6traits8iterator8Iterator4nextCs8noNfkmVAKC_18tracing_attributes, symObjAddr: 0x2730, symBinAddr: 0x3080C, symSize: 0xBC }
  - { offset: 0x55539, size: 0x8, addend: 0x0, symName: __RNvXs32_NtNtCsfvfooZQ3Axs_4core5slice4iterINtB6_7IterMutTNtNtCs6IAuOt8vWmF_3syn4item7UseTreeNtNtBX_5token5CommaEENtNtNtNtBa_4iter6traits8iterator8Iterator4nextCs8noNfkmVAKC_18tracing_attributes, symObjAddr: 0x27EC, symBinAddr: 0x308C8, symSize: 0xBC }
  - { offset: 0x55672, size: 0x8, addend: 0x0, symName: __RNvXs32_NtNtCsfvfooZQ3Axs_4core5slice4iterINtB6_7IterMutTNtNtCs6IAuOt8vWmF_3syn4path15GenericArgumentNtNtBX_5token5CommaEENtNtNtNtBa_4iter6traits8iterator8Iterator4nextCs8noNfkmVAKC_18tracing_attributes, symObjAddr: 0x28A8, symBinAddr: 0x30984, symSize: 0xBC }
  - { offset: 0x557AB, size: 0x8, addend: 0x0, symName: __RNvXs32_NtNtCsfvfooZQ3Axs_4core5slice4iterINtB6_7IterMutTNtNtCs6IAuOt8vWmF_3syn8generics13CapturedParamNtNtBX_5token5CommaEENtNtNtNtBa_4iter6traits8iterator8Iterator4nextCs8noNfkmVAKC_18tracing_attributes, symObjAddr: 0x2964, symBinAddr: 0x30A40, symSize: 0xBC }
  - { offset: 0x558E4, size: 0x8, addend: 0x0, symName: __RNvXs32_NtNtCsfvfooZQ3Axs_4core5slice4iterINtB6_7IterMutTNtNtCs6IAuOt8vWmF_3syn8generics14TypeParamBoundNtNtBX_5token4PlusEENtNtNtNtBa_4iter6traits8iterator8Iterator4nextCs8noNfkmVAKC_18tracing_attributes, symObjAddr: 0x2A20, symBinAddr: 0x30AFC, symSize: 0xBC }
  - { offset: 0x55A1D, size: 0x8, addend: 0x0, symName: __RNvXs32_NtNtCsfvfooZQ3Axs_4core5slice4iterINtB6_7IterMutTNtNtCs6IAuOt8vWmF_3syn8generics14WherePredicateNtNtBX_5token5CommaEENtNtNtNtBa_4iter6traits8iterator8Iterator4nextCs8noNfkmVAKC_18tracing_attributes, symObjAddr: 0x2ADC, symBinAddr: 0x30BB8, symSize: 0xBC }
  - { offset: 0x55B56, size: 0x8, addend: 0x0, symName: __RNvXs32_NtNtCsfvfooZQ3Axs_4core5slice4iterINtB6_7IterMutTNtNtCs6IAuOt8vWmF_3syn8lifetime8LifetimeNtNtBX_5token4PlusEENtNtNtNtBa_4iter6traits8iterator8Iterator4nextCs8noNfkmVAKC_18tracing_attributes, symObjAddr: 0x2B98, symBinAddr: 0x30C74, symSize: 0xBC }
  - { offset: 0x55C8F, size: 0x8, addend: 0x0, symName: __RNvXs32_NtNtCsfvfooZQ3Axs_4core5slice4iterINtB6_7IterMutTNtNtCs8noNfkmVAKC_18tracing_attributes4attr5FieldNtNtCs6IAuOt8vWmF_3syn5token5CommaEENtNtNtNtBa_4iter6traits8iterator8Iterator4nextBX_, symObjAddr: 0x2C54, symBinAddr: 0x30D30, symSize: 0xBC }
  - { offset: 0x55FE4, size: 0x8, addend: 0x0, symName: __RNvXs33_NtNtCsfvfooZQ3Axs_4core5slice4iterINtB6_7IterMutTNtNtCs8noNfkmVAKC_18tracing_attributes4attr5FieldNtNtCs6IAuOt8vWmF_3syn5token5CommaEENtNtNtNtBa_4iter6traits12double_ended19DoubleEndedIterator9next_backBX_, symObjAddr: 0x2D10, symBinAddr: 0x30DEC, symSize: 0x100 }
  - { offset: 0x56146, size: 0x8, addend: 0x0, symName: __RNvXs5_NtNtCsfvfooZQ3Axs_4core5slice4iterINtB5_4IterTNtCs3cP53eQoTwO_11proc_macro25IdentNtNtCs6IAuOt8vWmF_3syn5token3DotEENtNtB9_5clone5Clone5cloneCs8noNfkmVAKC_18tracing_attributes, symObjAddr: 0x2E10, symBinAddr: 0x30EEC, symSize: 0x20 }
  - { offset: 0x5617B, size: 0x8, addend: 0x0, symName: __RNvXs5_NtNtCsfvfooZQ3Axs_4core5slice4iterINtB5_4IterTNtNtCs8noNfkmVAKC_18tracing_attributes4attr5FieldNtNtCs6IAuOt8vWmF_3syn5token5CommaEENtNtB9_5clone5Clone5cloneBT_, symObjAddr: 0x2E30, symBinAddr: 0x30F0C, symSize: 0x20 }
  - { offset: 0x561FD, size: 0x8, addend: 0x0, symName: __RINvYINtNtNtCsfvfooZQ3Axs_4core5slice4iter4IterNtNtCs6IAuOt8vWmF_3syn4stmt4StmtENtNtNtNtBa_4iter6traits12double_ended19DoubleEndedIterator9try_rfolduNCINvNvNtNtB1k_8iterator8Iterator8find_map5checkRBJ_TB39_RNtNtBN_4expr4ExprENCNvMs_NtCs8noNfkmVAKC_18tracing_attributes6expandNtB3I_9AsyncInfo7from_fns_0E0INtNtNtBa_3ops12control_flow11ControlFlowB3d_EEB3K_, symObjAddr: 0x3D4, symBinAddr: 0x2E4B0, symSize: 0x178 }
  - { offset: 0x562BD, size: 0x8, addend: 0x0, symName: __RINvYINtNtNtCsfvfooZQ3Axs_4core5slice4iter4IterNtNtCs6IAuOt8vWmF_3syn4stmt4StmtENtNtNtNtBa_4iter6traits8iterator8Iterator10filter_mapTRBJ_RNtNtBN_4item6ItemFnENCNvMs_NtCs8noNfkmVAKC_18tracing_attributes6expandNtB2E_9AsyncInfo7from_fn0EB2G_, symObjAddr: 0x54C, symBinAddr: 0x2E628, symSize: 0x1C }
  - { offset: 0x56315, size: 0x8, addend: 0x0, symName: __RINvYINtNtNtCsfvfooZQ3Axs_4core5slice4iter4IterNtNtCs6IAuOt8vWmF_3syn4stmt4StmtENtNtNtNtBa_4iter6traits8iterator8Iterator3mapNtCs3cP53eQoTwO_11proc_macro211TokenStreamNCNvMs_NtCs8noNfkmVAKC_18tracing_attributes6expandNtB2M_9AsyncInfo9gen_async0EB2O_, symObjAddr: 0x568, symBinAddr: 0x2E644, symSize: 0x1C }
  - { offset: 0x5636D, size: 0x8, addend: 0x0, symName: __RINvYINtNtNtCsfvfooZQ3Axs_4core5slice4iter4IterNtNtCs6IAuOt8vWmF_3syn4stmt4StmtENtNtNtNtBa_4iter6traits8iterator8Iterator8try_folduNCINvNtNtB1m_8adapters10filter_map19filter_map_try_foldRBJ_TB2Y_RNtNtBN_4item6ItemFnEuINtNtNtBa_3ops12control_flow11ControlFlowB32_ENCNvMs_NtCs8noNfkmVAKC_18tracing_attributes6expandNtB4k_9AsyncInfo7from_fn0NCINvNvB1g_4find5checkB32_NCB4f_s0_0E0E0B3t_EB4m_, symObjAddr: 0x584, symBinAddr: 0x2E660, symSize: 0x180 }
  - { offset: 0x56428, size: 0x8, addend: 0x0, symName: __RINvYINtNtNtCsfvfooZQ3Axs_4core5slice4iter4IterNtNtCs6IAuOt8vWmF_3syn4stmt4StmtENtNtNtNtBa_4iter6traits8iterator8Iterator8try_folduNCINvNvXs_NtNtB1m_8adapters9enumerateINtB2f_9EnumeratepEB1g_8try_fold9enumerateRBJ_uINtNtNtBa_3ops12control_flow11ControlFlowTjB3m_EENCINvNvB1g_4find5checkB46_NCNvMs_NtCs8noNfkmVAKC_18tracing_attributes6expandNtB4L_9AsyncInfo9gen_asyncs_0E0E0B3r_EB4N_, symObjAddr: 0x704, symBinAddr: 0x2E7E0, symSize: 0x180 }
  - { offset: 0x564E3, size: 0x8, addend: 0x0, symName: __RINvYINtNtNtCsfvfooZQ3Axs_4core5slice4iter4IterNtNtCs6IAuOt8vWmF_3syn5error5ErrorENtNtNtNtBa_4iter6traits8iterator8Iterator3mapNtCs3cP53eQoTwO_11proc_macro211TokenStreamNCNvMNtCs8noNfkmVAKC_18tracing_attributes4attrNtB2M_14InstrumentArgs8warnings0EB2O_, symObjAddr: 0x884, symBinAddr: 0x2E960, symSize: 0x1C }
  - { offset: 0x5653B, size: 0x8, addend: 0x0, symName: __RINvYINtNtNtCsfvfooZQ3Axs_4core5slice4iter4IterTNtCs3cP53eQoTwO_11proc_macro25IdentTBK_NtNtCs8noNfkmVAKC_18tracing_attributes6expand10RecordTypeEEENtNtNtNtBa_4iter6traits8iterator8Iterator3mapRBK_NCNCINvB1p_9gen_blockNtBM_11TokenStreamEs0_0s0_0EB1r_, symObjAddr: 0x8A0, symBinAddr: 0x2E97C, symSize: 0x1C }
  - { offset: 0x56593, size: 0x8, addend: 0x0, symName: __RINvYINtNtNtCsfvfooZQ3Axs_4core5slice4iter4IterTNtCs3cP53eQoTwO_11proc_macro25IdentTBK_NtNtCs8noNfkmVAKC_18tracing_attributes6expand10RecordTypeEEENtNtNtNtBa_4iter6traits8iterator8Iterator3mapRBK_NCNCINvB1p_9gen_blockNtNtCs6IAuOt8vWmF_3syn4stmt5BlockEs0_0s0_0EB1r_, symObjAddr: 0x8BC, symBinAddr: 0x2E998, symSize: 0x1C }
  - { offset: 0x565EB, size: 0x8, addend: 0x0, symName: __RINvYINtNtNtCsfvfooZQ3Axs_4core5slice4iter4IterTNtCs3cP53eQoTwO_11proc_macro25IdentTBK_NtNtCs8noNfkmVAKC_18tracing_attributes6expand10RecordTypeEEENtNtNtNtBa_4iter6traits8iterator8Iterator6filterNCNCINvB1p_9gen_blockNtBM_11TokenStreamEs0_0s2_0EB1r_, symObjAddr: 0x8D8, symBinAddr: 0x2E9B4, symSize: 0x30 }
  - { offset: 0x5664F, size: 0x8, addend: 0x0, symName: __RINvYINtNtNtCsfvfooZQ3Axs_4core5slice4iter4IterTNtCs3cP53eQoTwO_11proc_macro25IdentTBK_NtNtCs8noNfkmVAKC_18tracing_attributes6expand10RecordTypeEEENtNtNtNtBa_4iter6traits8iterator8Iterator6filterNCNCINvB1p_9gen_blockNtNtCs6IAuOt8vWmF_3syn4stmt5BlockEs0_0s2_0EB1r_, symObjAddr: 0x908, symBinAddr: 0x2E9E4, symSize: 0x30 }
  - { offset: 0x566B3, size: 0x8, addend: 0x0, symName: __RINvYINtNtNtCsfvfooZQ3Axs_4core5slice4iter4IterTNtCs3cP53eQoTwO_11proc_macro25IdentTBK_NtNtCs8noNfkmVAKC_18tracing_attributes6expand10RecordTypeEEENtNtNtNtBa_4iter6traits8iterator8Iterator8try_folduNCINvNtNtB2r_8adapters3map12map_try_foldRBJ_RBK_uINtNtNtBa_3ops12control_flow11ControlFlowuENCNCINvB1p_9gen_blockNtBM_11TokenStreamEs0_0s0_0NCINvNvB2l_3any5checkB3S_NCB4G_s1_0E0E0B3X_EB1r_, symObjAddr: 0x938, symBinAddr: 0x2EA14, symSize: 0x13C }
  - { offset: 0x5676D, size: 0x8, addend: 0x0, symName: __RINvYINtNtNtCsfvfooZQ3Axs_4core5slice4iter4IterTNtCs3cP53eQoTwO_11proc_macro25IdentTBK_NtNtCs8noNfkmVAKC_18tracing_attributes6expand10RecordTypeEEENtNtNtNtBa_4iter6traits8iterator8Iterator8try_folduNCINvNtNtB2r_8adapters3map12map_try_foldRBJ_RBK_uINtNtNtBa_3ops12control_flow11ControlFlowuENCNCINvB1p_9gen_blockNtNtCs6IAuOt8vWmF_3syn4stmt5BlockEs0_0s0_0NCINvNvB2l_3any5checkB3S_NCB4G_s1_0E0E0B3X_EB1r_, symObjAddr: 0xA74, symBinAddr: 0x2EB50, symSize: 0x13C }
  - { offset: 0x56827, size: 0x8, addend: 0x0, symName: __RNvYINtNtNtCsfvfooZQ3Axs_4core5slice4iter4IterNtNtCs6IAuOt8vWmF_3syn4stmt4StmtENtNtNtNtB9_4iter6traits8iterator8Iterator3revCs8noNfkmVAKC_18tracing_attributes, symObjAddr: 0x2E50, symBinAddr: 0x30F2C, symSize: 0x1C }
  - { offset: 0x5685E, size: 0x8, addend: 0x0, symName: __RNvYINtNtNtCsfvfooZQ3Axs_4core5slice4iter4IterNtNtCs6IAuOt8vWmF_3syn4stmt4StmtENtNtNtNtB9_4iter6traits8iterator8Iterator9enumerateCs8noNfkmVAKC_18tracing_attributes, symObjAddr: 0x2E6C, symBinAddr: 0x30F48, symSize: 0x28 }
  - { offset: 0x5D4D2, size: 0x8, addend: 0x0, symName: __RNvMs4_NtNtCsfvfooZQ3Axs_4core5slice4iterINtB5_4IterNtCs3cP53eQoTwO_11proc_macro211TokenStreamE3newCs8noNfkmVAKC_18tracing_attributes, symObjAddr: 0xBB0, symBinAddr: 0x2EC8C, symSize: 0x50 }
  - { offset: 0x5D6A0, size: 0x8, addend: 0x0, symName: __RNvMs4_NtNtCsfvfooZQ3Axs_4core5slice4iterINtB5_4IterNtNtCs6IAuOt8vWmF_3syn4stmt4StmtE3newCs8noNfkmVAKC_18tracing_attributes, symObjAddr: 0xC00, symBinAddr: 0x2ECDC, symSize: 0x58 }
  - { offset: 0x5D888, size: 0x8, addend: 0x0, symName: __RNvMs4_NtNtCsfvfooZQ3Axs_4core5slice4iterINtB5_4IterNtNtCs6IAuOt8vWmF_3syn5error5ErrorE3newCs8noNfkmVAKC_18tracing_attributes, symObjAddr: 0xC58, symBinAddr: 0x2ED34, symSize: 0x58 }
  - { offset: 0x5DA70, size: 0x8, addend: 0x0, symName: __RNvMs4_NtNtCsfvfooZQ3Axs_4core5slice4iterINtB5_4IterTNtCs3cP53eQoTwO_11proc_macro25IdentNtNtCs6IAuOt8vWmF_3syn5token3DotEE3newCs8noNfkmVAKC_18tracing_attributes, symObjAddr: 0xCB0, symBinAddr: 0x2ED8C, symSize: 0x50 }
  - { offset: 0x5DC3E, size: 0x8, addend: 0x0, symName: __RNvMs4_NtNtCsfvfooZQ3Axs_4core5slice4iterINtB5_4IterTNtCs3cP53eQoTwO_11proc_macro25IdentTBP_NtNtCs8noNfkmVAKC_18tracing_attributes6expand10RecordTypeEEE3newB1w_, symObjAddr: 0xD00, symBinAddr: 0x2EDDC, symSize: 0x58 }
  - { offset: 0x5DE26, size: 0x8, addend: 0x0, symName: __RNvMs4_NtNtCsfvfooZQ3Axs_4core5slice4iterINtB5_4IterTNtNtCs8noNfkmVAKC_18tracing_attributes4attr5FieldNtNtCs6IAuOt8vWmF_3syn5token5CommaEE3newBT_, symObjAddr: 0xD58, symBinAddr: 0x2EE34, symSize: 0x58 }
  - { offset: 0x5E00E, size: 0x8, addend: 0x0, symName: __RNvMsa_NtNtCsfvfooZQ3Axs_4core5slice4iterINtB5_7IterMutTNtNtCs6IAuOt8vWmF_3syn2ty4TypeNtNtBW_5token5CommaEE3newCs8noNfkmVAKC_18tracing_attributes, symObjAddr: 0xDB0, symBinAddr: 0x2EE8C, symSize: 0x58 }
  - { offset: 0x5E1F6, size: 0x8, addend: 0x0, symName: __RNvMsa_NtNtCsfvfooZQ3Axs_4core5slice4iterINtB5_7IterMutTNtNtCs6IAuOt8vWmF_3syn2ty9BareFnArgNtNtBW_5token5CommaEE3newCs8noNfkmVAKC_18tracing_attributes, symObjAddr: 0xE08, symBinAddr: 0x2EEE4, symSize: 0x58 }
  - { offset: 0x5E3DE, size: 0x8, addend: 0x0, symName: __RNvMsa_NtNtCsfvfooZQ3Axs_4core5slice4iterINtB5_7IterMutTNtNtCs6IAuOt8vWmF_3syn3pat3PatNtNtBW_5token2OrEE3newCs8noNfkmVAKC_18tracing_attributes, symObjAddr: 0xE60, symBinAddr: 0x2EF3C, symSize: 0x58 }
  - { offset: 0x5E5C6, size: 0x8, addend: 0x0, symName: __RNvMsa_NtNtCsfvfooZQ3Axs_4core5slice4iterINtB5_7IterMutTNtNtCs6IAuOt8vWmF_3syn3pat3PatNtNtBW_5token5CommaEE3newCs8noNfkmVAKC_18tracing_attributes, symObjAddr: 0xEB8, symBinAddr: 0x2EF94, symSize: 0x58 }
  - { offset: 0x5E7AE, size: 0x8, addend: 0x0, symName: __RNvMsa_NtNtCsfvfooZQ3Axs_4core5slice4iterINtB5_7IterMutTNtNtCs6IAuOt8vWmF_3syn3pat8FieldPatNtNtBW_5token5CommaEE3newCs8noNfkmVAKC_18tracing_attributes, symObjAddr: 0xF10, symBinAddr: 0x2EFEC, symSize: 0x58 }
  - { offset: 0x5E996, size: 0x8, addend: 0x0, symName: __RNvMsa_NtNtCsfvfooZQ3Axs_4core5slice4iterINtB5_7IterMutTNtNtCs6IAuOt8vWmF_3syn4data7VariantNtNtBW_5token5CommaEE3newCs8noNfkmVAKC_18tracing_attributes, symObjAddr: 0xF68, symBinAddr: 0x2F044, symSize: 0x58 }
  - { offset: 0x5EB7E, size: 0x8, addend: 0x0, symName: __RNvMsa_NtNtCsfvfooZQ3Axs_4core5slice4iterINtB5_7IterMutTNtNtCs6IAuOt8vWmF_3syn4expr10FieldValueNtNtBW_5token5CommaEE3newCs8noNfkmVAKC_18tracing_attributes, symObjAddr: 0xFC0, symBinAddr: 0x2F09C, symSize: 0x58 }
  - { offset: 0x5ED66, size: 0x8, addend: 0x0, symName: __RNvMsa_NtNtCsfvfooZQ3Axs_4core5slice4iterINtB5_7IterMutTNtNtCs6IAuOt8vWmF_3syn4expr4ExprNtNtBW_5token5CommaEE3newCs8noNfkmVAKC_18tracing_attributes, symObjAddr: 0x1018, symBinAddr: 0x2F0F4, symSize: 0x58 }
  - { offset: 0x5EF4E, size: 0x8, addend: 0x0, symName: __RNvMsa_NtNtCsfvfooZQ3Axs_4core5slice4iterINtB5_7IterMutTNtNtCs6IAuOt8vWmF_3syn4item5FnArgNtNtBW_5token5CommaEE3newCs8noNfkmVAKC_18tracing_attributes, symObjAddr: 0x1070, symBinAddr: 0x2F14C, symSize: 0x58 }
  - { offset: 0x5F136, size: 0x8, addend: 0x0, symName: __RNvMsa_NtNtCsfvfooZQ3Axs_4core5slice4iterINtB5_7IterMutTNtNtCs6IAuOt8vWmF_3syn4item7UseTreeNtNtBW_5token5CommaEE3newCs8noNfkmVAKC_18tracing_attributes, symObjAddr: 0x10C8, symBinAddr: 0x2F1A4, symSize: 0x58 }
  - { offset: 0x5F31E, size: 0x8, addend: 0x0, symName: __RNvMsa_NtNtCsfvfooZQ3Axs_4core5slice4iterINtB5_7IterMutTNtNtCs6IAuOt8vWmF_3syn4path15GenericArgumentNtNtBW_5token5CommaEE3newCs8noNfkmVAKC_18tracing_attributes, symObjAddr: 0x1120, symBinAddr: 0x2F1FC, symSize: 0x58 }
  - { offset: 0x5F506, size: 0x8, addend: 0x0, symName: __RNvMsa_NtNtCsfvfooZQ3Axs_4core5slice4iterINtB5_7IterMutTNtNtCs6IAuOt8vWmF_3syn8generics13CapturedParamNtNtBW_5token5CommaEE3newCs8noNfkmVAKC_18tracing_attributes, symObjAddr: 0x1178, symBinAddr: 0x2F254, symSize: 0x58 }
  - { offset: 0x5F6EE, size: 0x8, addend: 0x0, symName: __RNvMsa_NtNtCsfvfooZQ3Axs_4core5slice4iterINtB5_7IterMutTNtNtCs6IAuOt8vWmF_3syn8generics14TypeParamBoundNtNtBW_5token4PlusEE3newCs8noNfkmVAKC_18tracing_attributes, symObjAddr: 0x11D0, symBinAddr: 0x2F2AC, symSize: 0x50 }
  - { offset: 0x5F8D6, size: 0x8, addend: 0x0, symName: __RNvMsa_NtNtCsfvfooZQ3Axs_4core5slice4iterINtB5_7IterMutTNtNtCs6IAuOt8vWmF_3syn8generics14WherePredicateNtNtBW_5token5CommaEE3newCs8noNfkmVAKC_18tracing_attributes, symObjAddr: 0x1220, symBinAddr: 0x2F2FC, symSize: 0x58 }
  - { offset: 0x5FABE, size: 0x8, addend: 0x0, symName: __RNvMsa_NtNtCsfvfooZQ3Axs_4core5slice4iterINtB5_7IterMutTNtNtCs6IAuOt8vWmF_3syn8lifetime8LifetimeNtNtBW_5token4PlusEE3newCs8noNfkmVAKC_18tracing_attributes, symObjAddr: 0x1278, symBinAddr: 0x2F354, symSize: 0x58 }
  - { offset: 0x5FC65, size: 0x8, addend: 0x0, symName: __RNvMsa_NtNtCsfvfooZQ3Axs_4core5slice4iterINtB5_7IterMutTNtNtCs8noNfkmVAKC_18tracing_attributes4attr5FieldNtNtCs6IAuOt8vWmF_3syn5token5CommaEE3newBW_, symObjAddr: 0x12D0, symBinAddr: 0x2F3AC, symSize: 0x58 }
  - { offset: 0x61EFB, size: 0x8, addend: 0x0, symName: __RINvMs6_NtCsloNvcHxBCre_9hashbrown3rawINtB6_8RawTableTNtCs3cP53eQoTwO_11proc_macro25IdentuEE14reserve_rehashNCINvNtB8_3map11make_hasherBQ_uNtNtNtCscOYdFFY2T5N_3std4hash6random11RandomStateE0ECs8noNfkmVAKC_18tracing_attributes, symObjAddr: 0x0, symBinAddr: 0x1DFC50, symSize: 0x840 }
  - { offset: 0x61F37, size: 0x8, addend: 0x0, symName: __RNCINvMs6_NtCsloNvcHxBCre_9hashbrown3rawINtB8_8RawTableTNtCs3cP53eQoTwO_11proc_macro25IdentuEE14reserve_rehashNCINvNtBa_3map11make_hasherBS_uNtNtNtCscOYdFFY2T5N_3std4hash6random11RandomStateE0E0Cs8noNfkmVAKC_18tracing_attributes, symObjAddr: 0x15E4, symBinAddr: 0x31D14, symSize: 0xC0 }
  - { offset: 0x620F4, size: 0x8, addend: 0x0, symName: __RNCINvMs6_NtCsloNvcHxBCre_9hashbrown3rawINtB8_8RawTableTNtCs3cP53eQoTwO_11proc_macro25IdentuEE14reserve_rehashNCINvNtBa_3map11make_hasherBS_uNtNtNtCscOYdFFY2T5N_3std4hash6random11RandomStateE0Es_0Cs8noNfkmVAKC_18tracing_attributes, symObjAddr: 0x16A4, symBinAddr: 0x31DD4, symSize: 0x30 }
  - { offset: 0x62151, size: 0x8, addend: 0x0, symName: __RNCINvMs6_NtCsloNvcHxBCre_9hashbrown3rawINtB8_8RawTableTNtCs3cP53eQoTwO_11proc_macro25IdentuEE24find_or_find_insert_slotNCINvNtBa_3map14equivalent_keyBS_BS_uE0NCINvB1Z_11make_hasherBS_uNtNtNtCscOYdFFY2T5N_3std4hash6random11RandomStateE0E0Cs8noNfkmVAKC_18tracing_attributes, symObjAddr: 0x16D4, symBinAddr: 0x31E04, symSize: 0xC4 }
  - { offset: 0x62324, size: 0x8, addend: 0x0, symName: __RNCINvMs6_NtCsloNvcHxBCre_9hashbrown3rawINtB8_8RawTableTNtCs3cP53eQoTwO_11proc_macro25IdentuEE4findNCINvNtBa_3map14equivalent_keyBS_BS_uE0E0Cs8noNfkmVAKC_18tracing_attributes, symObjAddr: 0x1798, symBinAddr: 0x31EC8, symSize: 0xC4 }
  - { offset: 0x62D43, size: 0x8, addend: 0x0, symName: __RNCINvMsa_NtCsloNvcHxBCre_9hashbrown3rawNtB8_13RawTableInner14prepare_resizeNtNtCse1nGBsou5OW_5alloc5alloc6GlobalE0Cs8noNfkmVAKC_18tracing_attributes, symObjAddr: 0x185C, symBinAddr: 0x31F8C, symSize: 0xBC }
  - { offset: 0x62F26, size: 0x8, addend: 0x0, symName: __RNCNvMsa_NtCsloNvcHxBCre_9hashbrown3rawNtB7_13RawTableInner15rehash_in_place0Cs8noNfkmVAKC_18tracing_attributes, symObjAddr: 0x1918, symBinAddr: 0x32048, symSize: 0x23C }
  - { offset: 0x63549, size: 0x8, addend: 0x0, symName: __RNCNvMse_NtCsloNvcHxBCre_9hashbrown3rawINtB7_8RawTableTNtCs3cP53eQoTwO_11proc_macro25IdentuEE15clone_from_impl0Cs8noNfkmVAKC_18tracing_attributes, symObjAddr: 0x1B54, symBinAddr: 0x32284, symSize: 0x19C }
  - { offset: 0x63890, size: 0x8, addend: 0x0, symName: __RNvNtCsloNvcHxBCre_9hashbrown3raw19capacity_to_bucketsCs8noNfkmVAKC_18tracing_attributes, symObjAddr: 0x33E8, symBinAddr: 0x33B18, symSize: 0x198 }
  - { offset: 0x63A4B, size: 0x8, addend: 0x0, symName: __RNvXsb_NtCsloNvcHxBCre_9hashbrown3rawINtB5_8RawTableTNtCs3cP53eQoTwO_11proc_macro25IdentuEENtNtCsfvfooZQ3Axs_4core5clone5Clone5cloneCs8noNfkmVAKC_18tracing_attributes, symObjAddr: 0x3580, symBinAddr: 0x33CB0, symSize: 0x124 }
  - { offset: 0x63B20, size: 0x8, addend: 0x0, symName: __RNvXsc_NtCsloNvcHxBCre_9hashbrown3rawINtB5_8RawTableTNtCs3cP53eQoTwO_11proc_macro25IdentuEENtB5_13RawTableClone15clone_from_specCs8noNfkmVAKC_18tracing_attributes, symObjAddr: 0x36A4, symBinAddr: 0x33DD4, symSize: 0x2C }
  - { offset: 0x63B70, size: 0x8, addend: 0x0, symName: __RNvXsg_NtCsloNvcHxBCre_9hashbrown3rawINtB5_8RawTableTNtCs3cP53eQoTwO_11proc_macro25IdentuEENtNtNtCsfvfooZQ3Axs_4core3ops4drop4Drop4dropCs8noNfkmVAKC_18tracing_attributes, symObjAddr: 0x36D0, symBinAddr: 0x33E00, symSize: 0x3C }
  - { offset: 0x67907, size: 0x8, addend: 0x0, symName: __RINvMs6_NtCsloNvcHxBCre_9hashbrown3rawINtB6_8RawTableTNtCs3cP53eQoTwO_11proc_macro25IdentuEE14reserve_rehashNCINvNtB8_3map11make_hasherBQ_uNtNtNtCscOYdFFY2T5N_3std4hash6random11RandomStateE0ECs8noNfkmVAKC_18tracing_attributes, symObjAddr: 0x0, symBinAddr: 0x1DFC50, symSize: 0x840 }
  - { offset: 0x682F7, size: 0x8, addend: 0x0, symName: __RINvMs6_NtCsloNvcHxBCre_9hashbrown3rawINtB6_8RawTableTNtCs3cP53eQoTwO_11proc_macro25IdentuEE24find_or_find_insert_slotNCINvNtB8_3map14equivalent_keyBQ_BQ_uE0NCINvB1X_11make_hasherBQ_uNtNtNtCscOYdFFY2T5N_3std4hash6random11RandomStateE0ECs8noNfkmVAKC_18tracing_attributes, symObjAddr: 0x840, symBinAddr: 0x30F70, symSize: 0x13C }
  - { offset: 0x68771, size: 0x8, addend: 0x0, symName: __RINvMs6_NtCsloNvcHxBCre_9hashbrown3rawINtB6_8RawTableTNtCs3cP53eQoTwO_11proc_macro25IdentuEE4findNCINvNtB8_3map14equivalent_keyBQ_BQ_uE0ECs8noNfkmVAKC_18tracing_attributes, symObjAddr: 0x97C, symBinAddr: 0x310AC, symSize: 0x330 }
  - { offset: 0x68C2C, size: 0x8, addend: 0x0, symName: __RINvMs6_NtCsloNvcHxBCre_9hashbrown3rawINtB6_8RawTableTNtCs3cP53eQoTwO_11proc_macro25IdentuEE7reserveNCINvNtB8_3map11make_hasherBQ_uNtNtNtCscOYdFFY2T5N_3std4hash6random11RandomStateE0ECs8noNfkmVAKC_18tracing_attributes, symObjAddr: 0xCAC, symBinAddr: 0x313DC, symSize: 0xCC }
  - { offset: 0x68E10, size: 0x8, addend: 0x0, symName: __RINvMsa_NtCsloNvcHxBCre_9hashbrown3rawNtB6_13RawTableInner13drop_elementsTNtCs3cP53eQoTwO_11proc_macro25IdentuEECs8noNfkmVAKC_18tracing_attributes, symObjAddr: 0xD78, symBinAddr: 0x314A8, symSize: 0x174 }
  - { offset: 0x6917D, size: 0x8, addend: 0x0, symName: __RINvMsa_NtCsloNvcHxBCre_9hashbrown3rawNtB6_13RawTableInner16drop_inner_tableTNtCs3cP53eQoTwO_11proc_macro25IdentuENtNtCse1nGBsou5OW_5alloc5alloc6GlobalECs8noNfkmVAKC_18tracing_attributes, symObjAddr: 0xEEC, symBinAddr: 0x3161C, symSize: 0xBC }
  - { offset: 0x69390, size: 0x8, addend: 0x0, symName: __RINvMsa_NtCsloNvcHxBCre_9hashbrown3rawNtB6_13RawTableInner17new_uninitializedNtNtCse1nGBsou5OW_5alloc5alloc6GlobalECs8noNfkmVAKC_18tracing_attributes, symObjAddr: 0xFA8, symBinAddr: 0x316D8, symSize: 0x1B0 }
  - { offset: 0x695C9, size: 0x8, addend: 0x0, symName: __RINvMsa_NtCsloNvcHxBCre_9hashbrown3rawNtB6_13RawTableInner22fallible_with_capacityNtNtCse1nGBsou5OW_5alloc5alloc6GlobalECs8noNfkmVAKC_18tracing_attributes, symObjAddr: 0x1158, symBinAddr: 0x31888, symSize: 0x2A8 }
  - { offset: 0x69A40, size: 0x8, addend: 0x0, symName: __RINvMsi_NtCsloNvcHxBCre_9hashbrown3rawINtB6_12RawIterRangeTNtCs3cP53eQoTwO_11proc_macro25IdentuEE9next_implKb0_ECs8noNfkmVAKC_18tracing_attributes, symObjAddr: 0x1400, symBinAddr: 0x31B30, symSize: 0x1E4 }
  - { offset: 0x6A49B, size: 0x8, addend: 0x0, symName: __RNvMs1_NtCsloNvcHxBCre_9hashbrown3rawNtB5_11TableLayout20calculate_layout_forCs8noNfkmVAKC_18tracing_attributes, symObjAddr: 0x1CF0, symBinAddr: 0x32420, symSize: 0x210 }
  - { offset: 0x6A928, size: 0x8, addend: 0x0, symName: __RNvMs6_NtCsloNvcHxBCre_9hashbrown3rawINtB5_8RawTableTNtCs3cP53eQoTwO_11proc_macro25IdentuEE14insert_in_slotCs8noNfkmVAKC_18tracing_attributes, symObjAddr: 0x1F00, symBinAddr: 0x32630, symSize: 0x138 }
  - { offset: 0x6ACA4, size: 0x8, addend: 0x0, symName: __RNvMs6_NtCsloNvcHxBCre_9hashbrown3rawINtB5_8RawTableTNtCs3cP53eQoTwO_11proc_macro25IdentuEE17new_uninitializedCs8noNfkmVAKC_18tracing_attributes, symObjAddr: 0x2038, symBinAddr: 0x32768, symSize: 0x15C }
  - { offset: 0x6AECC, size: 0x8, addend: 0x0, symName: __RNvMsa_NtCsloNvcHxBCre_9hashbrown3rawNtB5_13RawTableInner15fix_insert_slotCs8noNfkmVAKC_18tracing_attributes, symObjAddr: 0x2194, symBinAddr: 0x328C4, symSize: 0x128 }
  - { offset: 0x6B24A, size: 0x8, addend: 0x0, symName: __RNvMsa_NtCsloNvcHxBCre_9hashbrown3rawNtB5_13RawTableInner15rehash_in_placeCs8noNfkmVAKC_18tracing_attributes, symObjAddr: 0x22BC, symBinAddr: 0x329EC, symSize: 0x4E8 }
  - { offset: 0x6BA54, size: 0x8, addend: 0x0, symName: __RNvMsa_NtCsloNvcHxBCre_9hashbrown3rawNtB5_13RawTableInner16find_insert_slotCs8noNfkmVAKC_18tracing_attributes, symObjAddr: 0x27A4, symBinAddr: 0x32ED4, symSize: 0x10C }
  - { offset: 0x6BC45, size: 0x8, addend: 0x0, symName: __RNvMsa_NtCsloNvcHxBCre_9hashbrown3rawNtB5_13RawTableInner19prepare_insert_slotCs8noNfkmVAKC_18tracing_attributes, symObjAddr: 0x28B0, symBinAddr: 0x32FE0, symSize: 0x74 }
  - { offset: 0x6BF37, size: 0x8, addend: 0x0, symName: __RNvMsa_NtCsloNvcHxBCre_9hashbrown3rawNtB5_13RawTableInner23prepare_rehash_in_placeCs8noNfkmVAKC_18tracing_attributes, symObjAddr: 0x2924, symBinAddr: 0x33054, symSize: 0x254 }
  - { offset: 0x6C633, size: 0x8, addend: 0x0, symName: __RNvMsa_NtCsloNvcHxBCre_9hashbrown3rawNtB5_13RawTableInner25find_insert_slot_in_groupCs8noNfkmVAKC_18tracing_attributes, symObjAddr: 0x2B78, symBinAddr: 0x332A8, symSize: 0x160 }
  - { offset: 0x6C8FC, size: 0x8, addend: 0x0, symName: __RNvMsa_NtCsloNvcHxBCre_9hashbrown3rawNtB5_13RawTableInner30find_or_find_insert_slot_innerCs8noNfkmVAKC_18tracing_attributes, symObjAddr: 0x2CD8, symBinAddr: 0x33408, symSize: 0x2BC }
  - { offset: 0x6CF5D, size: 0x8, addend: 0x0, symName: __RNvMse_NtCsloNvcHxBCre_9hashbrown3rawINtB5_8RawTableTNtCs3cP53eQoTwO_11proc_macro25IdentuEE15clone_from_implCs8noNfkmVAKC_18tracing_attributes, symObjAddr: 0x2F94, symBinAddr: 0x336C4, symSize: 0x394 }
  - { offset: 0x6D5E5, size: 0x8, addend: 0x0, symName: __RNvMsi_NtCsloNvcHxBCre_9hashbrown3rawINtB5_12RawIterRangeTNtCs3cP53eQoTwO_11proc_macro25IdentuEE3newCs8noNfkmVAKC_18tracing_attributes, symObjAddr: 0x3328, symBinAddr: 0x33A58, symSize: 0xC0 }
  - { offset: 0x6D8EB, size: 0x8, addend: 0x0, symName: __RINvYINtNtCs6IAuOt8vWmF_3syn10punctuated4IterNtNtCs8noNfkmVAKC_18tracing_attributes4attr5FieldENtNtNtNtCsfvfooZQ3Axs_4core4iter6traits8iterator8Iterator3allNCNCNCINvNtBL_6expand9gen_blockNtCs3cP53eQoTwO_11proc_macro211TokenStreamEs0_0s2_00EBL_, symObjAddr: 0x0, symBinAddr: 0x33E3C, symSize: 0x44 }
  - { offset: 0x6E249, size: 0x8, addend: 0x0, symName: __RNCNCNvXsG_NtCs6IAuOt8vWmF_3syn10punctuatedINtB9_14PrivateIterMutNtNtCs8noNfkmVAKC_18tracing_attributes4attr5FieldNtNtBb_5token5CommaENtNtNtNtCsfvfooZQ3Axs_4core4iter6traits12double_ended19DoubleEndedIterator9next_back00B15_, symObjAddr: 0xF58, symBinAddr: 0x34D94, symSize: 0x24 }
  - { offset: 0x6E29C, size: 0x8, addend: 0x0, symName: __RNCNvXsG_NtCs6IAuOt8vWmF_3syn10punctuatedINtB7_14PrivateIterMutNtNtCs8noNfkmVAKC_18tracing_attributes4attr5FieldNtNtB9_5token5CommaENtNtNtNtCsfvfooZQ3Axs_4core4iter6traits12double_ended19DoubleEndedIterator9next_back0B13_, symObjAddr: 0x1384, symBinAddr: 0x351C0, symSize: 0x38 }
  - { offset: 0x6E2DF, size: 0x8, addend: 0x0, symName: __RNvXsG_NtCs6IAuOt8vWmF_3syn10punctuatedINtB5_14PrivateIterMutNtNtCs8noNfkmVAKC_18tracing_attributes4attr5FieldNtNtB7_5token5CommaENtNtNtNtCsfvfooZQ3Axs_4core4iter6traits12double_ended19DoubleEndedIterator9next_backB11_, symObjAddr: 0x59A8, symBinAddr: 0x397E4, symSize: 0x40 }
  - { offset: 0x6E32F, size: 0x8, addend: 0x0, symName: __RNCNCNvXsx_NtCs6IAuOt8vWmF_3syn10punctuatedINtB9_11PrivateIterNtCs3cP53eQoTwO_11proc_macro25IdentNtNtBb_5token3DotENtNtNtNtCsfvfooZQ3Axs_4core4iter6traits12double_ended19DoubleEndedIterator9next_back00Cs8noNfkmVAKC_18tracing_attributes, symObjAddr: 0xF7C, symBinAddr: 0x34DB8, symSize: 0x24 }
  - { offset: 0x6E37A, size: 0x8, addend: 0x0, symName: __RNCNCNvXsx_NtCs6IAuOt8vWmF_3syn10punctuatedINtB9_11PrivateIterNtNtCs8noNfkmVAKC_18tracing_attributes4attr5FieldNtNtBb_5token5CommaENtNtNtNtCsfvfooZQ3Axs_4core4iter6traits12double_ended19DoubleEndedIterator9next_back00B12_, symObjAddr: 0xFA0, symBinAddr: 0x34DDC, symSize: 0x24 }
  - { offset: 0x6E3D4, size: 0x8, addend: 0x0, symName: __RNCNvXsx_NtCs6IAuOt8vWmF_3syn10punctuatedINtB7_11PrivateIterNtCs3cP53eQoTwO_11proc_macro25IdentNtNtB9_5token3DotENtNtNtNtCsfvfooZQ3Axs_4core4iter6traits12double_ended19DoubleEndedIterator9next_back0Cs8noNfkmVAKC_18tracing_attributes, symObjAddr: 0x1E6C, symBinAddr: 0x35CA8, symSize: 0x38 }
  - { offset: 0x6E416, size: 0x8, addend: 0x0, symName: __RNCNvXsx_NtCs6IAuOt8vWmF_3syn10punctuatedINtB7_11PrivateIterNtNtCs8noNfkmVAKC_18tracing_attributes4attr5FieldNtNtB9_5token5CommaENtNtNtNtCsfvfooZQ3Axs_4core4iter6traits12double_ended19DoubleEndedIterator9next_back0B10_, symObjAddr: 0x1EA4, symBinAddr: 0x35CE0, symSize: 0x38 }
  - { offset: 0x6E459, size: 0x8, addend: 0x0, symName: __RNvXsx_NtCs6IAuOt8vWmF_3syn10punctuatedINtB5_11PrivateIterNtCs3cP53eQoTwO_11proc_macro25IdentNtNtB7_5token3DotENtNtNtNtCsfvfooZQ3Axs_4core4iter6traits12double_ended19DoubleEndedIterator9next_backCs8noNfkmVAKC_18tracing_attributes, symObjAddr: 0x6970, symBinAddr: 0x3A7AC, symSize: 0x40 }
  - { offset: 0x6E499, size: 0x8, addend: 0x0, symName: __RNvXsx_NtCs6IAuOt8vWmF_3syn10punctuatedINtB5_11PrivateIterNtNtCs8noNfkmVAKC_18tracing_attributes4attr5FieldNtNtB7_5token5CommaENtNtNtNtCsfvfooZQ3Axs_4core4iter6traits12double_ended19DoubleEndedIterator9next_backBY_, symObjAddr: 0x69B0, symBinAddr: 0x3A7EC, symSize: 0x40 }
  - { offset: 0x6E4E4, size: 0x8, addend: 0x0, symName: __RNCNvXs8_NtCs6IAuOt8vWmF_3syn10punctuatedINtB7_10PunctuatedNtCs3cP53eQoTwO_11proc_macro25IdentNtNtB9_5token5CommaENtNtNtNtCsfvfooZQ3Axs_4core4iter6traits7collect12IntoIterator9into_iter0Cs8noNfkmVAKC_18tracing_attributes, symObjAddr: 0xFC4, symBinAddr: 0x34E00, symSize: 0x34 }
  - { offset: 0x6E52F, size: 0x8, addend: 0x0, symName: __RNCNvXs8_NtCs6IAuOt8vWmF_3syn10punctuatedINtB7_10PunctuatedNtCs3cP53eQoTwO_11proc_macro25IdentNtNtB9_5token5CommaENtNtNtNtCsfvfooZQ3Axs_4core4iter6traits7collect12IntoIterator9into_iters_0Cs8noNfkmVAKC_18tracing_attributes, symObjAddr: 0xFF8, symBinAddr: 0x34E34, symSize: 0xA0 }
  - { offset: 0x6E57A, size: 0x8, addend: 0x0, symName: __RNCNvXs8_NtCs6IAuOt8vWmF_3syn10punctuatedINtB7_10PunctuatedNtNtB9_3pat3PatNtNtB9_5token5CommaENtNtNtNtCsfvfooZQ3Axs_4core4iter6traits7collect12IntoIterator9into_iter0Cs8noNfkmVAKC_18tracing_attributes, symObjAddr: 0x1098, symBinAddr: 0x34ED4, symSize: 0x44 }
  - { offset: 0x6E5C6, size: 0x8, addend: 0x0, symName: __RNCNvXs8_NtCs6IAuOt8vWmF_3syn10punctuatedINtB7_10PunctuatedNtNtB9_3pat3PatNtNtB9_5token5CommaENtNtNtNtCsfvfooZQ3Axs_4core4iter6traits7collect12IntoIterator9into_iters_0Cs8noNfkmVAKC_18tracing_attributes, symObjAddr: 0x10DC, symBinAddr: 0x34F18, symSize: 0x98 }
  - { offset: 0x6E611, size: 0x8, addend: 0x0, symName: __RNCNvXs8_NtCs6IAuOt8vWmF_3syn10punctuatedINtB7_10PunctuatedNtNtB9_3pat8FieldPatNtNtB9_5token5CommaENtNtNtNtCsfvfooZQ3Axs_4core4iter6traits7collect12IntoIterator9into_iter0Cs8noNfkmVAKC_18tracing_attributes, symObjAddr: 0x1174, symBinAddr: 0x34FB0, symSize: 0x44 }
  - { offset: 0x6E65D, size: 0x8, addend: 0x0, symName: __RNCNvXs8_NtCs6IAuOt8vWmF_3syn10punctuatedINtB7_10PunctuatedNtNtB9_3pat8FieldPatNtNtB9_5token5CommaENtNtNtNtCsfvfooZQ3Axs_4core4iter6traits7collect12IntoIterator9into_iters_0Cs8noNfkmVAKC_18tracing_attributes, symObjAddr: 0x11B8, symBinAddr: 0x34FF4, symSize: 0x98 }
  - { offset: 0x6E6A8, size: 0x8, addend: 0x0, symName: __RNCNvXs8_NtCs6IAuOt8vWmF_3syn10punctuatedINtB7_10PunctuatedNtNtB9_4item5FnArgNtNtB9_5token5CommaENtNtNtNtCsfvfooZQ3Axs_4core4iter6traits7collect12IntoIterator9into_iter0Cs8noNfkmVAKC_18tracing_attributes, symObjAddr: 0x1250, symBinAddr: 0x3508C, symSize: 0x44 }
  - { offset: 0x6E6F4, size: 0x8, addend: 0x0, symName: __RNCNvXs8_NtCs6IAuOt8vWmF_3syn10punctuatedINtB7_10PunctuatedNtNtB9_4item5FnArgNtNtB9_5token5CommaENtNtNtNtCsfvfooZQ3Axs_4core4iter6traits7collect12IntoIterator9into_iters_0Cs8noNfkmVAKC_18tracing_attributes, symObjAddr: 0x1294, symBinAddr: 0x350D0, symSize: 0x98 }
  - { offset: 0x6E778, size: 0x8, addend: 0x0, symName: __RNvXs8_NtCs6IAuOt8vWmF_3syn10punctuatedINtB5_10PunctuatedNtCs3cP53eQoTwO_11proc_macro25IdentNtNtB7_5token5CommaENtNtNtNtCsfvfooZQ3Axs_4core4iter6traits7collect12IntoIterator9into_iterCs8noNfkmVAKC_18tracing_attributes, symObjAddr: 0x50C0, symBinAddr: 0x38EFC, symSize: 0x1C0 }
  - { offset: 0x6E7CF, size: 0x8, addend: 0x0, symName: __RNvXs8_NtCs6IAuOt8vWmF_3syn10punctuatedINtB5_10PunctuatedNtNtB7_3pat3PatNtNtB7_5token5CommaENtNtNtNtCsfvfooZQ3Axs_4core4iter6traits7collect12IntoIterator9into_iterCs8noNfkmVAKC_18tracing_attributes, symObjAddr: 0x5280, symBinAddr: 0x390BC, symSize: 0x1C0 }
  - { offset: 0x6E826, size: 0x8, addend: 0x0, symName: __RNvXs8_NtCs6IAuOt8vWmF_3syn10punctuatedINtB5_10PunctuatedNtNtB7_3pat8FieldPatNtNtB7_5token5CommaENtNtNtNtCsfvfooZQ3Axs_4core4iter6traits7collect12IntoIterator9into_iterCs8noNfkmVAKC_18tracing_attributes, symObjAddr: 0x5440, symBinAddr: 0x3927C, symSize: 0x1C0 }
  - { offset: 0x6E87D, size: 0x8, addend: 0x0, symName: __RNvXs8_NtCs6IAuOt8vWmF_3syn10punctuatedINtB5_10PunctuatedNtNtB7_4item5FnArgNtNtB7_5token5CommaENtNtNtNtCsfvfooZQ3Axs_4core4iter6traits7collect12IntoIterator9into_iterCs8noNfkmVAKC_18tracing_attributes, symObjAddr: 0x5600, symBinAddr: 0x3943C, symSize: 0x1C0 }
  - { offset: 0x6E8DF, size: 0x8, addend: 0x0, symName: __RNCNvXsF_NtCs6IAuOt8vWmF_3syn10punctuatedINtB7_14PrivateIterMutNtNtCs8noNfkmVAKC_18tracing_attributes4attr5FieldNtNtB9_5token5CommaENtNtNtNtCsfvfooZQ3Axs_4core4iter6traits8iterator8Iterator4next0B13_, symObjAddr: 0x132C, symBinAddr: 0x35168, symSize: 0x24 }
  - { offset: 0x6E92A, size: 0x8, addend: 0x0, symName: __RNCNvXsF_NtCs6IAuOt8vWmF_3syn10punctuatedINtB7_14PrivateIterMutNtNtCs8noNfkmVAKC_18tracing_attributes4attr5FieldNtNtB9_5token5CommaENtNtNtNtCsfvfooZQ3Axs_4core4iter6traits8iterator8Iterator4nexts_0B13_, symObjAddr: 0x1350, symBinAddr: 0x3518C, symSize: 0x34 }
  - { offset: 0x6E974, size: 0x8, addend: 0x0, symName: __RNvXsF_NtCs6IAuOt8vWmF_3syn10punctuatedINtB5_14PrivateIterMutNtNtCs8noNfkmVAKC_18tracing_attributes4attr5FieldNtNtB7_5token5CommaENtNtNtNtCsfvfooZQ3Axs_4core4iter6traits8iterator8Iterator4nextB11_, symObjAddr: 0x5964, symBinAddr: 0x397A0, symSize: 0x44 }
  - { offset: 0x6E9BF, size: 0x8, addend: 0x0, symName: __RNCNvXsc_NtCs6IAuOt8vWmF_3syn10punctuatedINtB7_5PairsNtCs3cP53eQoTwO_11proc_macro25IdentNtNtB9_5token3DotENtNtNtNtCsfvfooZQ3Axs_4core4iter6traits8iterator8Iterator4next0Cs8noNfkmVAKC_18tracing_attributes, symObjAddr: 0x13BC, symBinAddr: 0x351F8, symSize: 0x40 }
  - { offset: 0x6EA34, size: 0x8, addend: 0x0, symName: __RNCNvXsc_NtCs6IAuOt8vWmF_3syn10punctuatedINtB7_5PairsNtCs3cP53eQoTwO_11proc_macro25IdentNtNtB9_5token3DotENtNtNtNtCsfvfooZQ3Axs_4core4iter6traits8iterator8Iterator4nexts_0Cs8noNfkmVAKC_18tracing_attributes, symObjAddr: 0x13FC, symBinAddr: 0x35238, symSize: 0x40 }
  - { offset: 0x6EA76, size: 0x8, addend: 0x0, symName: __RNCNvXsc_NtCs6IAuOt8vWmF_3syn10punctuatedINtB7_5PairsNtNtCs8noNfkmVAKC_18tracing_attributes4attr5FieldNtNtB9_5token5CommaENtNtNtNtCsfvfooZQ3Axs_4core4iter6traits8iterator8Iterator4next0BT_, symObjAddr: 0x143C, symBinAddr: 0x35278, symSize: 0x40 }
  - { offset: 0x6EAEB, size: 0x8, addend: 0x0, symName: __RNCNvXsc_NtCs6IAuOt8vWmF_3syn10punctuatedINtB7_5PairsNtNtCs8noNfkmVAKC_18tracing_attributes4attr5FieldNtNtB9_5token5CommaENtNtNtNtCsfvfooZQ3Axs_4core4iter6traits8iterator8Iterator4nexts_0BT_, symObjAddr: 0x147C, symBinAddr: 0x352B8, symSize: 0x40 }
  - { offset: 0x6EB3C, size: 0x8, addend: 0x0, symName: __RNvXsc_NtCs6IAuOt8vWmF_3syn10punctuatedINtB5_5PairsNtCs3cP53eQoTwO_11proc_macro25IdentNtNtB7_5token3DotENtNtNtNtCsfvfooZQ3Axs_4core4iter6traits8iterator8Iterator4nextCs8noNfkmVAKC_18tracing_attributes, symObjAddr: 0x5E50, symBinAddr: 0x39C8C, symSize: 0x58 }
  - { offset: 0x6EB7C, size: 0x8, addend: 0x0, symName: __RNvXsc_NtCs6IAuOt8vWmF_3syn10punctuatedINtB5_5PairsNtNtCs8noNfkmVAKC_18tracing_attributes4attr5FieldNtNtB7_5token5CommaENtNtNtNtCsfvfooZQ3Axs_4core4iter6traits8iterator8Iterator4nextBR_, symObjAddr: 0x5EA8, symBinAddr: 0x39CE4, symSize: 0x58 }
  - { offset: 0x6EBC7, size: 0x8, addend: 0x0, symName: __RNCNvXsg_NtCs6IAuOt8vWmF_3syn10punctuatedINtB7_8PairsMutNtNtB9_2ty4TypeNtNtB9_5token5CommaENtNtNtNtCsfvfooZQ3Axs_4core4iter6traits8iterator8Iterator4next0Cs8noNfkmVAKC_18tracing_attributes, symObjAddr: 0x14BC, symBinAddr: 0x352F8, symSize: 0x40 }
  - { offset: 0x6EC3C, size: 0x8, addend: 0x0, symName: __RNCNvXsg_NtCs6IAuOt8vWmF_3syn10punctuatedINtB7_8PairsMutNtNtB9_2ty4TypeNtNtB9_5token5CommaENtNtNtNtCsfvfooZQ3Axs_4core4iter6traits8iterator8Iterator4nexts_0Cs8noNfkmVAKC_18tracing_attributes, symObjAddr: 0x14FC, symBinAddr: 0x35338, symSize: 0x40 }
  - { offset: 0x6EC7E, size: 0x8, addend: 0x0, symName: __RNCNvXsg_NtCs6IAuOt8vWmF_3syn10punctuatedINtB7_8PairsMutNtNtB9_2ty9BareFnArgNtNtB9_5token5CommaENtNtNtNtCsfvfooZQ3Axs_4core4iter6traits8iterator8Iterator4next0Cs8noNfkmVAKC_18tracing_attributes, symObjAddr: 0x153C, symBinAddr: 0x35378, symSize: 0x40 }
  - { offset: 0x6ECF3, size: 0x8, addend: 0x0, symName: __RNCNvXsg_NtCs6IAuOt8vWmF_3syn10punctuatedINtB7_8PairsMutNtNtB9_2ty9BareFnArgNtNtB9_5token5CommaENtNtNtNtCsfvfooZQ3Axs_4core4iter6traits8iterator8Iterator4nexts_0Cs8noNfkmVAKC_18tracing_attributes, symObjAddr: 0x157C, symBinAddr: 0x353B8, symSize: 0x40 }
  - { offset: 0x6ED35, size: 0x8, addend: 0x0, symName: __RNCNvXsg_NtCs6IAuOt8vWmF_3syn10punctuatedINtB7_8PairsMutNtNtB9_3pat3PatNtNtB9_5token2OrENtNtNtNtCsfvfooZQ3Axs_4core4iter6traits8iterator8Iterator4next0Cs8noNfkmVAKC_18tracing_attributes, symObjAddr: 0x15BC, symBinAddr: 0x353F8, symSize: 0x40 }
  - { offset: 0x6EDAA, size: 0x8, addend: 0x0, symName: __RNCNvXsg_NtCs6IAuOt8vWmF_3syn10punctuatedINtB7_8PairsMutNtNtB9_3pat3PatNtNtB9_5token2OrENtNtNtNtCsfvfooZQ3Axs_4core4iter6traits8iterator8Iterator4nexts_0Cs8noNfkmVAKC_18tracing_attributes, symObjAddr: 0x15FC, symBinAddr: 0x35438, symSize: 0x40 }
  - { offset: 0x6EDEC, size: 0x8, addend: 0x0, symName: __RNCNvXsg_NtCs6IAuOt8vWmF_3syn10punctuatedINtB7_8PairsMutNtNtB9_3pat3PatNtNtB9_5token5CommaENtNtNtNtCsfvfooZQ3Axs_4core4iter6traits8iterator8Iterator4next0Cs8noNfkmVAKC_18tracing_attributes, symObjAddr: 0x163C, symBinAddr: 0x35478, symSize: 0x40 }
  - { offset: 0x6EE61, size: 0x8, addend: 0x0, symName: __RNCNvXsg_NtCs6IAuOt8vWmF_3syn10punctuatedINtB7_8PairsMutNtNtB9_3pat3PatNtNtB9_5token5CommaENtNtNtNtCsfvfooZQ3Axs_4core4iter6traits8iterator8Iterator4nexts_0Cs8noNfkmVAKC_18tracing_attributes, symObjAddr: 0x167C, symBinAddr: 0x354B8, symSize: 0x40 }
  - { offset: 0x6EEA3, size: 0x8, addend: 0x0, symName: __RNCNvXsg_NtCs6IAuOt8vWmF_3syn10punctuatedINtB7_8PairsMutNtNtB9_3pat8FieldPatNtNtB9_5token5CommaENtNtNtNtCsfvfooZQ3Axs_4core4iter6traits8iterator8Iterator4next0Cs8noNfkmVAKC_18tracing_attributes, symObjAddr: 0x16BC, symBinAddr: 0x354F8, symSize: 0x40 }
  - { offset: 0x6EF18, size: 0x8, addend: 0x0, symName: __RNCNvXsg_NtCs6IAuOt8vWmF_3syn10punctuatedINtB7_8PairsMutNtNtB9_3pat8FieldPatNtNtB9_5token5CommaENtNtNtNtCsfvfooZQ3Axs_4core4iter6traits8iterator8Iterator4nexts_0Cs8noNfkmVAKC_18tracing_attributes, symObjAddr: 0x16FC, symBinAddr: 0x35538, symSize: 0x40 }
  - { offset: 0x6EF5A, size: 0x8, addend: 0x0, symName: __RNCNvXsg_NtCs6IAuOt8vWmF_3syn10punctuatedINtB7_8PairsMutNtNtB9_4data5FieldNtNtB9_5token5CommaENtNtNtNtCsfvfooZQ3Axs_4core4iter6traits8iterator8Iterator4next0Cs8noNfkmVAKC_18tracing_attributes, symObjAddr: 0x173C, symBinAddr: 0x35578, symSize: 0x40 }
  - { offset: 0x6EFCF, size: 0x8, addend: 0x0, symName: __RNCNvXsg_NtCs6IAuOt8vWmF_3syn10punctuatedINtB7_8PairsMutNtNtB9_4data5FieldNtNtB9_5token5CommaENtNtNtNtCsfvfooZQ3Axs_4core4iter6traits8iterator8Iterator4nexts_0Cs8noNfkmVAKC_18tracing_attributes, symObjAddr: 0x177C, symBinAddr: 0x355B8, symSize: 0x40 }
  - { offset: 0x6F011, size: 0x8, addend: 0x0, symName: __RNCNvXsg_NtCs6IAuOt8vWmF_3syn10punctuatedINtB7_8PairsMutNtNtB9_4data7VariantNtNtB9_5token5CommaENtNtNtNtCsfvfooZQ3Axs_4core4iter6traits8iterator8Iterator4next0Cs8noNfkmVAKC_18tracing_attributes, symObjAddr: 0x17BC, symBinAddr: 0x355F8, symSize: 0x40 }
  - { offset: 0x6F086, size: 0x8, addend: 0x0, symName: __RNCNvXsg_NtCs6IAuOt8vWmF_3syn10punctuatedINtB7_8PairsMutNtNtB9_4data7VariantNtNtB9_5token5CommaENtNtNtNtCsfvfooZQ3Axs_4core4iter6traits8iterator8Iterator4nexts_0Cs8noNfkmVAKC_18tracing_attributes, symObjAddr: 0x17FC, symBinAddr: 0x35638, symSize: 0x40 }
  - { offset: 0x6F0C8, size: 0x8, addend: 0x0, symName: __RNCNvXsg_NtCs6IAuOt8vWmF_3syn10punctuatedINtB7_8PairsMutNtNtB9_4expr10FieldValueNtNtB9_5token5CommaENtNtNtNtCsfvfooZQ3Axs_4core4iter6traits8iterator8Iterator4next0Cs8noNfkmVAKC_18tracing_attributes, symObjAddr: 0x183C, symBinAddr: 0x35678, symSize: 0x40 }
  - { offset: 0x6F13D, size: 0x8, addend: 0x0, symName: __RNCNvXsg_NtCs6IAuOt8vWmF_3syn10punctuatedINtB7_8PairsMutNtNtB9_4expr10FieldValueNtNtB9_5token5CommaENtNtNtNtCsfvfooZQ3Axs_4core4iter6traits8iterator8Iterator4nexts_0Cs8noNfkmVAKC_18tracing_attributes, symObjAddr: 0x187C, symBinAddr: 0x356B8, symSize: 0x40 }
  - { offset: 0x6F17F, size: 0x8, addend: 0x0, symName: __RNCNvXsg_NtCs6IAuOt8vWmF_3syn10punctuatedINtB7_8PairsMutNtNtB9_4expr4ExprNtNtB9_5token5CommaENtNtNtNtCsfvfooZQ3Axs_4core4iter6traits8iterator8Iterator4next0Cs8noNfkmVAKC_18tracing_attributes, symObjAddr: 0x18BC, symBinAddr: 0x356F8, symSize: 0x40 }
  - { offset: 0x6F1F4, size: 0x8, addend: 0x0, symName: __RNCNvXsg_NtCs6IAuOt8vWmF_3syn10punctuatedINtB7_8PairsMutNtNtB9_4expr4ExprNtNtB9_5token5CommaENtNtNtNtCsfvfooZQ3Axs_4core4iter6traits8iterator8Iterator4nexts_0Cs8noNfkmVAKC_18tracing_attributes, symObjAddr: 0x18FC, symBinAddr: 0x35738, symSize: 0x40 }
  - { offset: 0x6F236, size: 0x8, addend: 0x0, symName: __RNCNvXsg_NtCs6IAuOt8vWmF_3syn10punctuatedINtB7_8PairsMutNtNtB9_4item5FnArgNtNtB9_5token5CommaENtNtNtNtCsfvfooZQ3Axs_4core4iter6traits8iterator8Iterator4next0Cs8noNfkmVAKC_18tracing_attributes, symObjAddr: 0x193C, symBinAddr: 0x35778, symSize: 0x40 }
  - { offset: 0x6F2AB, size: 0x8, addend: 0x0, symName: __RNCNvXsg_NtCs6IAuOt8vWmF_3syn10punctuatedINtB7_8PairsMutNtNtB9_4item5FnArgNtNtB9_5token5CommaENtNtNtNtCsfvfooZQ3Axs_4core4iter6traits8iterator8Iterator4nexts_0Cs8noNfkmVAKC_18tracing_attributes, symObjAddr: 0x197C, symBinAddr: 0x357B8, symSize: 0x40 }
  - { offset: 0x6F2ED, size: 0x8, addend: 0x0, symName: __RNCNvXsg_NtCs6IAuOt8vWmF_3syn10punctuatedINtB7_8PairsMutNtNtB9_4item7UseTreeNtNtB9_5token5CommaENtNtNtNtCsfvfooZQ3Axs_4core4iter6traits8iterator8Iterator4next0Cs8noNfkmVAKC_18tracing_attributes, symObjAddr: 0x19BC, symBinAddr: 0x357F8, symSize: 0x40 }
  - { offset: 0x6F362, size: 0x8, addend: 0x0, symName: __RNCNvXsg_NtCs6IAuOt8vWmF_3syn10punctuatedINtB7_8PairsMutNtNtB9_4item7UseTreeNtNtB9_5token5CommaENtNtNtNtCsfvfooZQ3Axs_4core4iter6traits8iterator8Iterator4nexts_0Cs8noNfkmVAKC_18tracing_attributes, symObjAddr: 0x19FC, symBinAddr: 0x35838, symSize: 0x40 }
  - { offset: 0x6F3A4, size: 0x8, addend: 0x0, symName: __RNCNvXsg_NtCs6IAuOt8vWmF_3syn10punctuatedINtB7_8PairsMutNtNtB9_4path11PathSegmentNtNtB9_5token7PathSepENtNtNtNtCsfvfooZQ3Axs_4core4iter6traits8iterator8Iterator4next0Cs8noNfkmVAKC_18tracing_attributes, symObjAddr: 0x1A3C, symBinAddr: 0x35878, symSize: 0x40 }
  - { offset: 0x6F419, size: 0x8, addend: 0x0, symName: __RNCNvXsg_NtCs6IAuOt8vWmF_3syn10punctuatedINtB7_8PairsMutNtNtB9_4path11PathSegmentNtNtB9_5token7PathSepENtNtNtNtCsfvfooZQ3Axs_4core4iter6traits8iterator8Iterator4nexts_0Cs8noNfkmVAKC_18tracing_attributes, symObjAddr: 0x1A7C, symBinAddr: 0x358B8, symSize: 0x40 }
  - { offset: 0x6F45B, size: 0x8, addend: 0x0, symName: __RNCNvXsg_NtCs6IAuOt8vWmF_3syn10punctuatedINtB7_8PairsMutNtNtB9_4path15GenericArgumentNtNtB9_5token5CommaENtNtNtNtCsfvfooZQ3Axs_4core4iter6traits8iterator8Iterator4next0Cs8noNfkmVAKC_18tracing_attributes, symObjAddr: 0x1ABC, symBinAddr: 0x358F8, symSize: 0x40 }
  - { offset: 0x6F4D0, size: 0x8, addend: 0x0, symName: __RNCNvXsg_NtCs6IAuOt8vWmF_3syn10punctuatedINtB7_8PairsMutNtNtB9_4path15GenericArgumentNtNtB9_5token5CommaENtNtNtNtCsfvfooZQ3Axs_4core4iter6traits8iterator8Iterator4nexts_0Cs8noNfkmVAKC_18tracing_attributes, symObjAddr: 0x1AFC, symBinAddr: 0x35938, symSize: 0x40 }
  - { offset: 0x6F512, size: 0x8, addend: 0x0, symName: __RNCNvXsg_NtCs6IAuOt8vWmF_3syn10punctuatedINtB7_8PairsMutNtNtB9_8generics12GenericParamNtNtB9_5token5CommaENtNtNtNtCsfvfooZQ3Axs_4core4iter6traits8iterator8Iterator4next0Cs8noNfkmVAKC_18tracing_attributes, symObjAddr: 0x1B3C, symBinAddr: 0x35978, symSize: 0x40 }
  - { offset: 0x6F587, size: 0x8, addend: 0x0, symName: __RNCNvXsg_NtCs6IAuOt8vWmF_3syn10punctuatedINtB7_8PairsMutNtNtB9_8generics12GenericParamNtNtB9_5token5CommaENtNtNtNtCsfvfooZQ3Axs_4core4iter6traits8iterator8Iterator4nexts_0Cs8noNfkmVAKC_18tracing_attributes, symObjAddr: 0x1B7C, symBinAddr: 0x359B8, symSize: 0x40 }
  - { offset: 0x6F5C9, size: 0x8, addend: 0x0, symName: __RNCNvXsg_NtCs6IAuOt8vWmF_3syn10punctuatedINtB7_8PairsMutNtNtB9_8generics13CapturedParamNtNtB9_5token5CommaENtNtNtNtCsfvfooZQ3Axs_4core4iter6traits8iterator8Iterator4next0Cs8noNfkmVAKC_18tracing_attributes, symObjAddr: 0x1BBC, symBinAddr: 0x359F8, symSize: 0x40 }
  - { offset: 0x6F63E, size: 0x8, addend: 0x0, symName: __RNCNvXsg_NtCs6IAuOt8vWmF_3syn10punctuatedINtB7_8PairsMutNtNtB9_8generics13CapturedParamNtNtB9_5token5CommaENtNtNtNtCsfvfooZQ3Axs_4core4iter6traits8iterator8Iterator4nexts_0Cs8noNfkmVAKC_18tracing_attributes, symObjAddr: 0x1BFC, symBinAddr: 0x35A38, symSize: 0x40 }
  - { offset: 0x6F680, size: 0x8, addend: 0x0, symName: __RNCNvXsg_NtCs6IAuOt8vWmF_3syn10punctuatedINtB7_8PairsMutNtNtB9_8generics14TypeParamBoundNtNtB9_5token4PlusENtNtNtNtCsfvfooZQ3Axs_4core4iter6traits8iterator8Iterator4next0Cs8noNfkmVAKC_18tracing_attributes, symObjAddr: 0x1C3C, symBinAddr: 0x35A78, symSize: 0x40 }
  - { offset: 0x6F6F5, size: 0x8, addend: 0x0, symName: __RNCNvXsg_NtCs6IAuOt8vWmF_3syn10punctuatedINtB7_8PairsMutNtNtB9_8generics14TypeParamBoundNtNtB9_5token4PlusENtNtNtNtCsfvfooZQ3Axs_4core4iter6traits8iterator8Iterator4nexts_0Cs8noNfkmVAKC_18tracing_attributes, symObjAddr: 0x1C7C, symBinAddr: 0x35AB8, symSize: 0x40 }
  - { offset: 0x6F737, size: 0x8, addend: 0x0, symName: __RNCNvXsg_NtCs6IAuOt8vWmF_3syn10punctuatedINtB7_8PairsMutNtNtB9_8generics14WherePredicateNtNtB9_5token5CommaENtNtNtNtCsfvfooZQ3Axs_4core4iter6traits8iterator8Iterator4next0Cs8noNfkmVAKC_18tracing_attributes, symObjAddr: 0x1CBC, symBinAddr: 0x35AF8, symSize: 0x40 }
  - { offset: 0x6F7AC, size: 0x8, addend: 0x0, symName: __RNCNvXsg_NtCs6IAuOt8vWmF_3syn10punctuatedINtB7_8PairsMutNtNtB9_8generics14WherePredicateNtNtB9_5token5CommaENtNtNtNtCsfvfooZQ3Axs_4core4iter6traits8iterator8Iterator4nexts_0Cs8noNfkmVAKC_18tracing_attributes, symObjAddr: 0x1CFC, symBinAddr: 0x35B38, symSize: 0x40 }
  - { offset: 0x6F7EE, size: 0x8, addend: 0x0, symName: __RNCNvXsg_NtCs6IAuOt8vWmF_3syn10punctuatedINtB7_8PairsMutNtNtB9_8lifetime8LifetimeNtNtB9_5token4PlusENtNtNtNtCsfvfooZQ3Axs_4core4iter6traits8iterator8Iterator4next0Cs8noNfkmVAKC_18tracing_attributes, symObjAddr: 0x1D3C, symBinAddr: 0x35B78, symSize: 0x40 }
  - { offset: 0x6F863, size: 0x8, addend: 0x0, symName: __RNCNvXsg_NtCs6IAuOt8vWmF_3syn10punctuatedINtB7_8PairsMutNtNtB9_8lifetime8LifetimeNtNtB9_5token4PlusENtNtNtNtCsfvfooZQ3Axs_4core4iter6traits8iterator8Iterator4nexts_0Cs8noNfkmVAKC_18tracing_attributes, symObjAddr: 0x1D7C, symBinAddr: 0x35BB8, symSize: 0x40 }
  - { offset: 0x6F924, size: 0x8, addend: 0x0, symName: __RNvXsg_NtCs6IAuOt8vWmF_3syn10punctuatedINtB5_8PairsMutNtNtB7_2ty4TypeNtNtB7_5token5CommaENtNtNtNtCsfvfooZQ3Axs_4core4iter6traits8iterator8Iterator4nextCs8noNfkmVAKC_18tracing_attributes, symObjAddr: 0x5F00, symBinAddr: 0x39D3C, symSize: 0x58 }
  - { offset: 0x6F964, size: 0x8, addend: 0x0, symName: __RNvXsg_NtCs6IAuOt8vWmF_3syn10punctuatedINtB5_8PairsMutNtNtB7_2ty9BareFnArgNtNtB7_5token5CommaENtNtNtNtCsfvfooZQ3Axs_4core4iter6traits8iterator8Iterator4nextCs8noNfkmVAKC_18tracing_attributes, symObjAddr: 0x5F58, symBinAddr: 0x39D94, symSize: 0x58 }
  - { offset: 0x6F9A4, size: 0x8, addend: 0x0, symName: __RNvXsg_NtCs6IAuOt8vWmF_3syn10punctuatedINtB5_8PairsMutNtNtB7_3pat3PatNtNtB7_5token2OrENtNtNtNtCsfvfooZQ3Axs_4core4iter6traits8iterator8Iterator4nextCs8noNfkmVAKC_18tracing_attributes, symObjAddr: 0x5FB0, symBinAddr: 0x39DEC, symSize: 0x58 }
  - { offset: 0x6F9E4, size: 0x8, addend: 0x0, symName: __RNvXsg_NtCs6IAuOt8vWmF_3syn10punctuatedINtB5_8PairsMutNtNtB7_3pat3PatNtNtB7_5token5CommaENtNtNtNtCsfvfooZQ3Axs_4core4iter6traits8iterator8Iterator4nextCs8noNfkmVAKC_18tracing_attributes, symObjAddr: 0x6008, symBinAddr: 0x39E44, symSize: 0x58 }
  - { offset: 0x6FA24, size: 0x8, addend: 0x0, symName: __RNvXsg_NtCs6IAuOt8vWmF_3syn10punctuatedINtB5_8PairsMutNtNtB7_3pat8FieldPatNtNtB7_5token5CommaENtNtNtNtCsfvfooZQ3Axs_4core4iter6traits8iterator8Iterator4nextCs8noNfkmVAKC_18tracing_attributes, symObjAddr: 0x6060, symBinAddr: 0x39E9C, symSize: 0x58 }
  - { offset: 0x6FA64, size: 0x8, addend: 0x0, symName: __RNvXsg_NtCs6IAuOt8vWmF_3syn10punctuatedINtB5_8PairsMutNtNtB7_4data5FieldNtNtB7_5token5CommaENtNtNtNtCsfvfooZQ3Axs_4core4iter6traits8iterator8Iterator4nextCs8noNfkmVAKC_18tracing_attributes, symObjAddr: 0x60B8, symBinAddr: 0x39EF4, symSize: 0x58 }
  - { offset: 0x6FAA4, size: 0x8, addend: 0x0, symName: __RNvXsg_NtCs6IAuOt8vWmF_3syn10punctuatedINtB5_8PairsMutNtNtB7_4data7VariantNtNtB7_5token5CommaENtNtNtNtCsfvfooZQ3Axs_4core4iter6traits8iterator8Iterator4nextCs8noNfkmVAKC_18tracing_attributes, symObjAddr: 0x6110, symBinAddr: 0x39F4C, symSize: 0x58 }
  - { offset: 0x6FAE4, size: 0x8, addend: 0x0, symName: __RNvXsg_NtCs6IAuOt8vWmF_3syn10punctuatedINtB5_8PairsMutNtNtB7_4expr10FieldValueNtNtB7_5token5CommaENtNtNtNtCsfvfooZQ3Axs_4core4iter6traits8iterator8Iterator4nextCs8noNfkmVAKC_18tracing_attributes, symObjAddr: 0x6168, symBinAddr: 0x39FA4, symSize: 0x58 }
  - { offset: 0x6FB24, size: 0x8, addend: 0x0, symName: __RNvXsg_NtCs6IAuOt8vWmF_3syn10punctuatedINtB5_8PairsMutNtNtB7_4expr4ExprNtNtB7_5token5CommaENtNtNtNtCsfvfooZQ3Axs_4core4iter6traits8iterator8Iterator4nextCs8noNfkmVAKC_18tracing_attributes, symObjAddr: 0x61C0, symBinAddr: 0x39FFC, symSize: 0x58 }
  - { offset: 0x6FB64, size: 0x8, addend: 0x0, symName: __RNvXsg_NtCs6IAuOt8vWmF_3syn10punctuatedINtB5_8PairsMutNtNtB7_4item5FnArgNtNtB7_5token5CommaENtNtNtNtCsfvfooZQ3Axs_4core4iter6traits8iterator8Iterator4nextCs8noNfkmVAKC_18tracing_attributes, symObjAddr: 0x6218, symBinAddr: 0x3A054, symSize: 0x58 }
  - { offset: 0x6FBA4, size: 0x8, addend: 0x0, symName: __RNvXsg_NtCs6IAuOt8vWmF_3syn10punctuatedINtB5_8PairsMutNtNtB7_4item7UseTreeNtNtB7_5token5CommaENtNtNtNtCsfvfooZQ3Axs_4core4iter6traits8iterator8Iterator4nextCs8noNfkmVAKC_18tracing_attributes, symObjAddr: 0x6270, symBinAddr: 0x3A0AC, symSize: 0x58 }
  - { offset: 0x6FBE4, size: 0x8, addend: 0x0, symName: __RNvXsg_NtCs6IAuOt8vWmF_3syn10punctuatedINtB5_8PairsMutNtNtB7_4path11PathSegmentNtNtB7_5token7PathSepENtNtNtNtCsfvfooZQ3Axs_4core4iter6traits8iterator8Iterator4nextCs8noNfkmVAKC_18tracing_attributes, symObjAddr: 0x62C8, symBinAddr: 0x3A104, symSize: 0x58 }
  - { offset: 0x6FC24, size: 0x8, addend: 0x0, symName: __RNvXsg_NtCs6IAuOt8vWmF_3syn10punctuatedINtB5_8PairsMutNtNtB7_4path15GenericArgumentNtNtB7_5token5CommaENtNtNtNtCsfvfooZQ3Axs_4core4iter6traits8iterator8Iterator4nextCs8noNfkmVAKC_18tracing_attributes, symObjAddr: 0x6320, symBinAddr: 0x3A15C, symSize: 0x58 }
  - { offset: 0x6FC64, size: 0x8, addend: 0x0, symName: __RNvXsg_NtCs6IAuOt8vWmF_3syn10punctuatedINtB5_8PairsMutNtNtB7_8generics12GenericParamNtNtB7_5token5CommaENtNtNtNtCsfvfooZQ3Axs_4core4iter6traits8iterator8Iterator4nextCs8noNfkmVAKC_18tracing_attributes, symObjAddr: 0x6378, symBinAddr: 0x3A1B4, symSize: 0x58 }
  - { offset: 0x6FCA4, size: 0x8, addend: 0x0, symName: __RNvXsg_NtCs6IAuOt8vWmF_3syn10punctuatedINtB5_8PairsMutNtNtB7_8generics13CapturedParamNtNtB7_5token5CommaENtNtNtNtCsfvfooZQ3Axs_4core4iter6traits8iterator8Iterator4nextCs8noNfkmVAKC_18tracing_attributes, symObjAddr: 0x63D0, symBinAddr: 0x3A20C, symSize: 0x58 }
  - { offset: 0x6FCE4, size: 0x8, addend: 0x0, symName: __RNvXsg_NtCs6IAuOt8vWmF_3syn10punctuatedINtB5_8PairsMutNtNtB7_8generics14TypeParamBoundNtNtB7_5token4PlusENtNtNtNtCsfvfooZQ3Axs_4core4iter6traits8iterator8Iterator4nextCs8noNfkmVAKC_18tracing_attributes, symObjAddr: 0x6428, symBinAddr: 0x3A264, symSize: 0x58 }
  - { offset: 0x6FD24, size: 0x8, addend: 0x0, symName: __RNvXsg_NtCs6IAuOt8vWmF_3syn10punctuatedINtB5_8PairsMutNtNtB7_8generics14WherePredicateNtNtB7_5token5CommaENtNtNtNtCsfvfooZQ3Axs_4core4iter6traits8iterator8Iterator4nextCs8noNfkmVAKC_18tracing_attributes, symObjAddr: 0x6480, symBinAddr: 0x3A2BC, symSize: 0x58 }
  - { offset: 0x6FD64, size: 0x8, addend: 0x0, symName: __RNvXsg_NtCs6IAuOt8vWmF_3syn10punctuatedINtB5_8PairsMutNtNtB7_8lifetime8LifetimeNtNtB7_5token4PlusENtNtNtNtCsfvfooZQ3Axs_4core4iter6traits8iterator8Iterator4nextCs8noNfkmVAKC_18tracing_attributes, symObjAddr: 0x64D8, symBinAddr: 0x3A314, symSize: 0x58 }
  - { offset: 0x6FDAF, size: 0x8, addend: 0x0, symName: __RNCNvXsw_NtCs6IAuOt8vWmF_3syn10punctuatedINtB7_11PrivateIterNtCs3cP53eQoTwO_11proc_macro25IdentNtNtB9_5token3DotENtNtNtNtCsfvfooZQ3Axs_4core4iter6traits8iterator8Iterator4next0Cs8noNfkmVAKC_18tracing_attributes, symObjAddr: 0x1DBC, symBinAddr: 0x35BF8, symSize: 0x24 }
  - { offset: 0x6FDFA, size: 0x8, addend: 0x0, symName: __RNCNvXsw_NtCs6IAuOt8vWmF_3syn10punctuatedINtB7_11PrivateIterNtCs3cP53eQoTwO_11proc_macro25IdentNtNtB9_5token3DotENtNtNtNtCsfvfooZQ3Axs_4core4iter6traits8iterator8Iterator4nexts_0Cs8noNfkmVAKC_18tracing_attributes, symObjAddr: 0x1DE0, symBinAddr: 0x35C1C, symSize: 0x34 }
  - { offset: 0x6FE3C, size: 0x8, addend: 0x0, symName: __RNCNvXsw_NtCs6IAuOt8vWmF_3syn10punctuatedINtB7_11PrivateIterNtNtCs8noNfkmVAKC_18tracing_attributes4attr5FieldNtNtB9_5token5CommaENtNtNtNtCsfvfooZQ3Axs_4core4iter6traits8iterator8Iterator4next0B10_, symObjAddr: 0x1E14, symBinAddr: 0x35C50, symSize: 0x24 }
  - { offset: 0x6FE87, size: 0x8, addend: 0x0, symName: __RNCNvXsw_NtCs6IAuOt8vWmF_3syn10punctuatedINtB7_11PrivateIterNtNtCs8noNfkmVAKC_18tracing_attributes4attr5FieldNtNtB9_5token5CommaENtNtNtNtCsfvfooZQ3Axs_4core4iter6traits8iterator8Iterator4nexts_0B10_, symObjAddr: 0x1E38, symBinAddr: 0x35C74, symSize: 0x34 }
  - { offset: 0x6FED8, size: 0x8, addend: 0x0, symName: __RNvXsw_NtCs6IAuOt8vWmF_3syn10punctuatedINtB5_11PrivateIterNtCs3cP53eQoTwO_11proc_macro25IdentNtNtB7_5token3DotENtNtNtNtCsfvfooZQ3Axs_4core4iter6traits8iterator8Iterator4nextCs8noNfkmVAKC_18tracing_attributes, symObjAddr: 0x68E8, symBinAddr: 0x3A724, symSize: 0x44 }
  - { offset: 0x6FF18, size: 0x8, addend: 0x0, symName: __RNvXsw_NtCs6IAuOt8vWmF_3syn10punctuatedINtB5_11PrivateIterNtNtCs8noNfkmVAKC_18tracing_attributes4attr5FieldNtNtB7_5token5CommaENtNtNtNtCsfvfooZQ3Axs_4core4iter6traits8iterator8Iterator4nextBY_, symObjAddr: 0x692C, symBinAddr: 0x3A768, symSize: 0x44 }
  - { offset: 0x6FF63, size: 0x8, addend: 0x0, symName: __RNcNtINtNtCs6IAuOt8vWmF_3syn10punctuated4PairQNtNtB8_2ty4TypeQNtNtB8_5token5CommaE3End0Cs8noNfkmVAKC_18tracing_attributes, symObjAddr: 0x1EDC, symBinAddr: 0x35D18, symSize: 0x1C }
  - { offset: 0x6FF9F, size: 0x8, addend: 0x0, symName: __RNcNtINtNtCs6IAuOt8vWmF_3syn10punctuated4PairQNtNtB8_2ty9BareFnArgQNtNtB8_5token5CommaE3End0Cs8noNfkmVAKC_18tracing_attributes, symObjAddr: 0x1EF8, symBinAddr: 0x35D34, symSize: 0x1C }
  - { offset: 0x6FFDB, size: 0x8, addend: 0x0, symName: __RNcNtINtNtCs6IAuOt8vWmF_3syn10punctuated4PairQNtNtB8_3pat3PatQNtNtB8_5token2OrE3End0Cs8noNfkmVAKC_18tracing_attributes, symObjAddr: 0x1F14, symBinAddr: 0x35D50, symSize: 0x1C }
  - { offset: 0x70017, size: 0x8, addend: 0x0, symName: __RNcNtINtNtCs6IAuOt8vWmF_3syn10punctuated4PairQNtNtB8_3pat3PatQNtNtB8_5token5CommaE3End0Cs8noNfkmVAKC_18tracing_attributes, symObjAddr: 0x1F30, symBinAddr: 0x35D6C, symSize: 0x1C }
  - { offset: 0x70053, size: 0x8, addend: 0x0, symName: __RNcNtINtNtCs6IAuOt8vWmF_3syn10punctuated4PairQNtNtB8_3pat8FieldPatQNtNtB8_5token5CommaE3End0Cs8noNfkmVAKC_18tracing_attributes, symObjAddr: 0x1F4C, symBinAddr: 0x35D88, symSize: 0x1C }
  - { offset: 0x7008F, size: 0x8, addend: 0x0, symName: __RNcNtINtNtCs6IAuOt8vWmF_3syn10punctuated4PairQNtNtB8_4data5FieldQNtNtB8_5token5CommaE3End0Cs8noNfkmVAKC_18tracing_attributes, symObjAddr: 0x1F68, symBinAddr: 0x35DA4, symSize: 0x1C }
  - { offset: 0x700CB, size: 0x8, addend: 0x0, symName: __RNcNtINtNtCs6IAuOt8vWmF_3syn10punctuated4PairQNtNtB8_4data7VariantQNtNtB8_5token5CommaE3End0Cs8noNfkmVAKC_18tracing_attributes, symObjAddr: 0x1F84, symBinAddr: 0x35DC0, symSize: 0x1C }
  - { offset: 0x70107, size: 0x8, addend: 0x0, symName: __RNcNtINtNtCs6IAuOt8vWmF_3syn10punctuated4PairQNtNtB8_4expr10FieldValueQNtNtB8_5token5CommaE3End0Cs8noNfkmVAKC_18tracing_attributes, symObjAddr: 0x1FA0, symBinAddr: 0x35DDC, symSize: 0x1C }
  - { offset: 0x70143, size: 0x8, addend: 0x0, symName: __RNcNtINtNtCs6IAuOt8vWmF_3syn10punctuated4PairQNtNtB8_4expr4ExprQNtNtB8_5token5CommaE3End0Cs8noNfkmVAKC_18tracing_attributes, symObjAddr: 0x1FBC, symBinAddr: 0x35DF8, symSize: 0x1C }
  - { offset: 0x7017F, size: 0x8, addend: 0x0, symName: __RNcNtINtNtCs6IAuOt8vWmF_3syn10punctuated4PairQNtNtB8_4item5FnArgQNtNtB8_5token5CommaE3End0Cs8noNfkmVAKC_18tracing_attributes, symObjAddr: 0x1FD8, symBinAddr: 0x35E14, symSize: 0x1C }
  - { offset: 0x701BB, size: 0x8, addend: 0x0, symName: __RNcNtINtNtCs6IAuOt8vWmF_3syn10punctuated4PairQNtNtB8_4item7UseTreeQNtNtB8_5token5CommaE3End0Cs8noNfkmVAKC_18tracing_attributes, symObjAddr: 0x1FF4, symBinAddr: 0x35E30, symSize: 0x1C }
  - { offset: 0x701F7, size: 0x8, addend: 0x0, symName: __RNcNtINtNtCs6IAuOt8vWmF_3syn10punctuated4PairQNtNtB8_4path11PathSegmentQNtNtB8_5token7PathSepE3End0Cs8noNfkmVAKC_18tracing_attributes, symObjAddr: 0x2010, symBinAddr: 0x35E4C, symSize: 0x1C }
  - { offset: 0x70233, size: 0x8, addend: 0x0, symName: __RNcNtINtNtCs6IAuOt8vWmF_3syn10punctuated4PairQNtNtB8_4path15GenericArgumentQNtNtB8_5token5CommaE3End0Cs8noNfkmVAKC_18tracing_attributes, symObjAddr: 0x202C, symBinAddr: 0x35E68, symSize: 0x1C }
  - { offset: 0x7026F, size: 0x8, addend: 0x0, symName: __RNcNtINtNtCs6IAuOt8vWmF_3syn10punctuated4PairQNtNtB8_8generics12GenericParamQNtNtB8_5token5CommaE3End0Cs8noNfkmVAKC_18tracing_attributes, symObjAddr: 0x2048, symBinAddr: 0x35E84, symSize: 0x1C }
  - { offset: 0x702AB, size: 0x8, addend: 0x0, symName: __RNcNtINtNtCs6IAuOt8vWmF_3syn10punctuated4PairQNtNtB8_8generics13CapturedParamQNtNtB8_5token5CommaE3End0Cs8noNfkmVAKC_18tracing_attributes, symObjAddr: 0x2064, symBinAddr: 0x35EA0, symSize: 0x1C }
  - { offset: 0x702E7, size: 0x8, addend: 0x0, symName: __RNcNtINtNtCs6IAuOt8vWmF_3syn10punctuated4PairQNtNtB8_8generics14TypeParamBoundQNtNtB8_5token4PlusE3End0Cs8noNfkmVAKC_18tracing_attributes, symObjAddr: 0x2080, symBinAddr: 0x35EBC, symSize: 0x1C }
  - { offset: 0x70323, size: 0x8, addend: 0x0, symName: __RNcNtINtNtCs6IAuOt8vWmF_3syn10punctuated4PairQNtNtB8_8generics14WherePredicateQNtNtB8_5token5CommaE3End0Cs8noNfkmVAKC_18tracing_attributes, symObjAddr: 0x209C, symBinAddr: 0x35ED8, symSize: 0x1C }
  - { offset: 0x7035F, size: 0x8, addend: 0x0, symName: __RNcNtINtNtCs6IAuOt8vWmF_3syn10punctuated4PairQNtNtB8_8lifetime8LifetimeQNtNtB8_5token4PlusE3End0Cs8noNfkmVAKC_18tracing_attributes, symObjAddr: 0x20B8, symBinAddr: 0x35EF4, symSize: 0x1C }
  - { offset: 0x7039B, size: 0x8, addend: 0x0, symName: __RNcNtINtNtCs6IAuOt8vWmF_3syn10punctuated4PairRNtCs3cP53eQoTwO_11proc_macro25IdentRNtNtB8_5token3DotE3End0Cs8noNfkmVAKC_18tracing_attributes, symObjAddr: 0x20D4, symBinAddr: 0x35F10, symSize: 0x1C }
  - { offset: 0x703D7, size: 0x8, addend: 0x0, symName: __RNcNtINtNtCs6IAuOt8vWmF_3syn10punctuated4PairRNtNtCs8noNfkmVAKC_18tracing_attributes4attr5FieldRNtNtB8_5token5CommaE3End0BM_, symObjAddr: 0x20F0, symBinAddr: 0x35F2C, symSize: 0x1C }
  - { offset: 0x71799, size: 0x8, addend: 0x0, symName: __RNvXNtNtCs6IAuOt8vWmF_3syn10punctuated8printingINtB4_10PunctuatedNtCs3cP53eQoTwO_11proc_macro25IdentNtNtB6_5token3DotENtNtCs2cqEZUIJimJ_5quote9to_tokens8ToTokens9to_tokensCs8noNfkmVAKC_18tracing_attributes, symObjAddr: 0x4E40, symBinAddr: 0x38C7C, symSize: 0x50 }
  - { offset: 0x717E4, size: 0x8, addend: 0x0, symName: __RNvXNtNtCs6IAuOt8vWmF_3syn10punctuated8printingINtB4_10PunctuatedNtNtCs8noNfkmVAKC_18tracing_attributes4attr5FieldNtNtB6_5token5CommaENtNtCs2cqEZUIJimJ_5quote9to_tokens8ToTokens9to_tokensB15_, symObjAddr: 0x4E90, symBinAddr: 0x38CCC, symSize: 0x50 }
  - { offset: 0x71835, size: 0x8, addend: 0x0, symName: __RNvXs_NtNtCs6IAuOt8vWmF_3syn10punctuated8printingINtB6_4PairRNtCs3cP53eQoTwO_11proc_macro25IdentRNtNtB8_5token3DotENtNtCs2cqEZUIJimJ_5quote9to_tokens8ToTokens9to_tokensCs8noNfkmVAKC_18tracing_attributes, symObjAddr: 0x5CE8, symBinAddr: 0x39B24, symSize: 0xB4 }
  - { offset: 0x718C4, size: 0x8, addend: 0x0, symName: __RNvXs_NtNtCs6IAuOt8vWmF_3syn10punctuated8printingINtB6_4PairRNtNtCs8noNfkmVAKC_18tracing_attributes4attr5FieldRNtNtB8_5token5CommaENtNtCs2cqEZUIJimJ_5quote9to_tokens8ToTokens9to_tokensB11_, symObjAddr: 0x5D9C, symBinAddr: 0x39BD8, symSize: 0xB4 }
  - { offset: 0x7195A, size: 0x8, addend: 0x0, symName: __RNvXs9_NtCs6IAuOt8vWmF_3syn10punctuatedRINtB5_10PunctuatedNtNtB7_4item5FnArgNtNtB7_5token5CommaENtNtNtNtCsfvfooZQ3Axs_4core4iter6traits7collect12IntoIterator9into_iterCs8noNfkmVAKC_18tracing_attributes, symObjAddr: 0x57C0, symBinAddr: 0x395FC, symSize: 0x34 }
  - { offset: 0x719A0, size: 0x8, addend: 0x0, symName: __RNvXsA_NtCs6IAuOt8vWmF_3syn10punctuatedINtB5_11PrivateIterNtCs3cP53eQoTwO_11proc_macro25IdentNtNtB7_5token3DotEINtB5_9IterTraitBU_E9clone_boxCs8noNfkmVAKC_18tracing_attributes, symObjAddr: 0x57F4, symBinAddr: 0x39630, symSize: 0x94 }
  - { offset: 0x719FE, size: 0x8, addend: 0x0, symName: __RNvXsA_NtCs6IAuOt8vWmF_3syn10punctuatedINtB5_11PrivateIterNtNtCs8noNfkmVAKC_18tracing_attributes4attr5FieldNtNtB7_5token5CommaEINtB5_9IterTraitBU_E9clone_boxBY_, symObjAddr: 0x5888, symBinAddr: 0x396C4, symSize: 0x94 }
  - { offset: 0x71A62, size: 0x8, addend: 0x0, symName: __RNvXsC_NtCs6IAuOt8vWmF_3syn10punctuatedINtB5_7IterMutNtNtCs8noNfkmVAKC_18tracing_attributes4attr5FieldENtNtNtNtCsfvfooZQ3Axs_4core4iter6traits8iterator8Iterator4nextBT_, symObjAddr: 0x591C, symBinAddr: 0x39758, symSize: 0x48 }
  - { offset: 0x71A9F, size: 0x8, addend: 0x0, symName: __RNvXsH_NtCs6IAuOt8vWmF_3syn10punctuatedINtB5_14PrivateIterMutNtNtCs8noNfkmVAKC_18tracing_attributes4attr5FieldNtNtB7_5token5CommaENtNtNtNtCsfvfooZQ3Axs_4core4iter6traits10exact_size17ExactSizeIterator3lenB11_, symObjAddr: 0x59E8, symBinAddr: 0x39824, symSize: 0x94 }
  - { offset: 0x71B19, size: 0x8, addend: 0x0, symName: __RNvXsN_NtCs6IAuOt8vWmF_3syn10punctuatedINtB5_10PunctuatedNtNtB7_4expr4ExprNtNtB7_5token5CommaEINtNtNtCsfvfooZQ3Axs_4core3ops5index5IndexjE5indexCs8noNfkmVAKC_18tracing_attributes, symObjAddr: 0x5A7C, symBinAddr: 0x398B8, symSize: 0x134 }
  - { offset: 0x71B84, size: 0x8, addend: 0x0, symName: __RNvXs_NtCs6IAuOt8vWmF_3syn10punctuatedINtB4_10PunctuatedNtCs3cP53eQoTwO_11proc_macro25IdentNtNtB6_5token3DotENtNtCsfvfooZQ3Axs_4core5clone5Clone5cloneCs8noNfkmVAKC_18tracing_attributes, symObjAddr: 0x5BB0, symBinAddr: 0x399EC, symSize: 0x9C }
  - { offset: 0x71BC4, size: 0x8, addend: 0x0, symName: __RNvXs_NtCs6IAuOt8vWmF_3syn10punctuatedINtB4_10PunctuatedNtNtCs8noNfkmVAKC_18tracing_attributes4attr5FieldNtNtB6_5token5CommaENtNtCsfvfooZQ3Axs_4core5clone5Clone5cloneBW_, symObjAddr: 0x5C4C, symBinAddr: 0x39A88, symSize: 0x9C }
  - { offset: 0x71C0A, size: 0x8, addend: 0x0, symName: __RNvXsn_NtCs6IAuOt8vWmF_3syn10punctuatedINtB5_8IntoIterNtCs3cP53eQoTwO_11proc_macro25IdentENtNtNtNtCsfvfooZQ3Axs_4core4iter6traits8iterator8Iterator4nextCs8noNfkmVAKC_18tracing_attributes, symObjAddr: 0x6530, symBinAddr: 0x3A36C, symSize: 0x34 }
  - { offset: 0x71C41, size: 0x8, addend: 0x0, symName: __RNvXsn_NtCs6IAuOt8vWmF_3syn10punctuatedINtB5_8IntoIterNtNtB7_3pat3PatENtNtNtNtCsfvfooZQ3Axs_4core4iter6traits8iterator8Iterator4nextCs8noNfkmVAKC_18tracing_attributes, symObjAddr: 0x6564, symBinAddr: 0x3A3A0, symSize: 0x34 }
  - { offset: 0x71C78, size: 0x8, addend: 0x0, symName: __RNvXsn_NtCs6IAuOt8vWmF_3syn10punctuatedINtB5_8IntoIterNtNtB7_3pat3PatENtNtNtNtCsfvfooZQ3Axs_4core4iter6traits8iterator8Iterator9size_hintCs8noNfkmVAKC_18tracing_attributes, symObjAddr: 0x6598, symBinAddr: 0x3A3D4, symSize: 0x7C }
  - { offset: 0x71CAF, size: 0x8, addend: 0x0, symName: __RNvXsn_NtCs6IAuOt8vWmF_3syn10punctuatedINtB5_8IntoIterNtNtB7_3pat8FieldPatENtNtNtNtCsfvfooZQ3Axs_4core4iter6traits8iterator8Iterator4nextCs8noNfkmVAKC_18tracing_attributes, symObjAddr: 0x6614, symBinAddr: 0x3A450, symSize: 0x34 }
  - { offset: 0x71CE6, size: 0x8, addend: 0x0, symName: __RNvXsn_NtCs6IAuOt8vWmF_3syn10punctuatedINtB5_8IntoIterNtNtB7_3pat8FieldPatENtNtNtNtCsfvfooZQ3Axs_4core4iter6traits8iterator8Iterator9size_hintCs8noNfkmVAKC_18tracing_attributes, symObjAddr: 0x6648, symBinAddr: 0x3A484, symSize: 0x7C }
  - { offset: 0x71D1D, size: 0x8, addend: 0x0, symName: __RNvXsn_NtCs6IAuOt8vWmF_3syn10punctuatedINtB5_8IntoIterNtNtB7_4item5FnArgENtNtNtNtCsfvfooZQ3Axs_4core4iter6traits8iterator8Iterator4nextCs8noNfkmVAKC_18tracing_attributes, symObjAddr: 0x66C4, symBinAddr: 0x3A500, symSize: 0x34 }
  - { offset: 0x71D54, size: 0x8, addend: 0x0, symName: __RNvXsn_NtCs6IAuOt8vWmF_3syn10punctuatedINtB5_8IntoIterNtNtB7_4item5FnArgENtNtNtNtCsfvfooZQ3Axs_4core4iter6traits8iterator8Iterator9size_hintCs8noNfkmVAKC_18tracing_attributes, symObjAddr: 0x66F8, symBinAddr: 0x3A534, symSize: 0x7C }
  - { offset: 0x71D91, size: 0x8, addend: 0x0, symName: __RNvXsp_NtCs6IAuOt8vWmF_3syn10punctuatedINtB5_8IntoIterNtNtB7_3pat3PatENtNtNtNtCsfvfooZQ3Axs_4core4iter6traits10exact_size17ExactSizeIterator3lenCs8noNfkmVAKC_18tracing_attributes, symObjAddr: 0x6774, symBinAddr: 0x3A5B0, symSize: 0x34 }
  - { offset: 0x71DC8, size: 0x8, addend: 0x0, symName: __RNvXsp_NtCs6IAuOt8vWmF_3syn10punctuatedINtB5_8IntoIterNtNtB7_3pat8FieldPatENtNtNtNtCsfvfooZQ3Axs_4core4iter6traits10exact_size17ExactSizeIterator3lenCs8noNfkmVAKC_18tracing_attributes, symObjAddr: 0x67A8, symBinAddr: 0x3A5E4, symSize: 0x34 }
  - { offset: 0x71DFF, size: 0x8, addend: 0x0, symName: __RNvXsp_NtCs6IAuOt8vWmF_3syn10punctuatedINtB5_8IntoIterNtNtB7_4item5FnArgENtNtNtNtCsfvfooZQ3Axs_4core4iter6traits10exact_size17ExactSizeIterator3lenCs8noNfkmVAKC_18tracing_attributes, symObjAddr: 0x67DC, symBinAddr: 0x3A618, symSize: 0x34 }
  - { offset: 0x71E3C, size: 0x8, addend: 0x0, symName: __RNvXst_NtCs6IAuOt8vWmF_3syn10punctuatedINtB5_4IterNtCs3cP53eQoTwO_11proc_macro25IdentENtNtNtNtCsfvfooZQ3Axs_4core4iter6traits8iterator8Iterator4nextCs8noNfkmVAKC_18tracing_attributes, symObjAddr: 0x6810, symBinAddr: 0x3A64C, symSize: 0x48 }
  - { offset: 0x71E73, size: 0x8, addend: 0x0, symName: __RNvXst_NtCs6IAuOt8vWmF_3syn10punctuatedINtB5_4IterNtNtCs8noNfkmVAKC_18tracing_attributes4attr5FieldENtNtNtNtCsfvfooZQ3Axs_4core4iter6traits8iterator8Iterator4nextBQ_, symObjAddr: 0x6858, symBinAddr: 0x3A694, symSize: 0x48 }
  - { offset: 0x71EB0, size: 0x8, addend: 0x0, symName: __RNvXsu_NtCs6IAuOt8vWmF_3syn10punctuatedINtB5_4IterNtCs3cP53eQoTwO_11proc_macro25IdentENtNtNtNtCsfvfooZQ3Axs_4core4iter6traits12double_ended19DoubleEndedIterator9next_backCs8noNfkmVAKC_18tracing_attributes, symObjAddr: 0x68A0, symBinAddr: 0x3A6DC, symSize: 0x48 }
  - { offset: 0x71EED, size: 0x8, addend: 0x0, symName: __RNvXsy_NtCs6IAuOt8vWmF_3syn10punctuatedINtB5_11PrivateIterNtCs3cP53eQoTwO_11proc_macro25IdentNtNtB7_5token3DotENtNtNtNtCsfvfooZQ3Axs_4core4iter6traits10exact_size17ExactSizeIterator3lenCs8noNfkmVAKC_18tracing_attributes, symObjAddr: 0x69F0, symBinAddr: 0x3A82C, symSize: 0x94 }
  - { offset: 0x71F61, size: 0x8, addend: 0x0, symName: __RNvXsy_NtCs6IAuOt8vWmF_3syn10punctuatedINtB5_11PrivateIterNtNtCs8noNfkmVAKC_18tracing_attributes4attr5FieldNtNtB7_5token5CommaENtNtNtNtCsfvfooZQ3Axs_4core4iter6traits10exact_size17ExactSizeIterator3lenBY_, symObjAddr: 0x6A84, symBinAddr: 0x3A8C0, symSize: 0x94 }
  - { offset: 0x71FDB, size: 0x8, addend: 0x0, symName: __RNvXsz_NtCs6IAuOt8vWmF_3syn10punctuatedINtB5_11PrivateIterNtCs3cP53eQoTwO_11proc_macro25IdentNtNtB7_5token3DotENtNtCsfvfooZQ3Axs_4core5clone5Clone5cloneCs8noNfkmVAKC_18tracing_attributes, symObjAddr: 0x6B18, symBinAddr: 0x3A954, symSize: 0x68 }
  - { offset: 0x7201B, size: 0x8, addend: 0x0, symName: __RNvXsz_NtCs6IAuOt8vWmF_3syn10punctuatedINtB5_11PrivateIterNtNtCs8noNfkmVAKC_18tracing_attributes4attr5FieldNtNtB7_5token5CommaENtNtCsfvfooZQ3Axs_4core5clone5Clone5cloneBY_, symObjAddr: 0x6B80, symBinAddr: 0x3A9BC, symSize: 0x68 }
  - { offset: 0x7BCD8, size: 0x8, addend: 0x0, symName: __RINvYINtNtCs6IAuOt8vWmF_3syn10punctuated4IterNtNtCs8noNfkmVAKC_18tracing_attributes4attr5FieldENtNtNtNtCsfvfooZQ3Axs_4core4iter6traits8iterator8Iterator3allNCNCNCINvNtBL_6expand9gen_blockNtCs3cP53eQoTwO_11proc_macro211TokenStreamEs0_0s2_00EBL_, symObjAddr: 0x0, symBinAddr: 0x33E3C, symSize: 0x44 }
  - { offset: 0x7BD27, size: 0x8, addend: 0x0, symName: __RINvYINtNtCs6IAuOt8vWmF_3syn10punctuated4IterNtNtCs8noNfkmVAKC_18tracing_attributes4attr5FieldENtNtNtNtCsfvfooZQ3Axs_4core4iter6traits8iterator8Iterator3allNCNCNCINvNtBL_6expand9gen_blockNtNtB8_4stmt5BlockEs0_0s2_00EBL_, symObjAddr: 0x44, symBinAddr: 0x33E80, symSize: 0x44 }
  - { offset: 0x7BD76, size: 0x8, addend: 0x0, symName: __RINvYINtNtCs6IAuOt8vWmF_3syn10punctuated4IterNtNtCs8noNfkmVAKC_18tracing_attributes4attr5FieldENtNtNtNtCsfvfooZQ3Axs_4core4iter6traits8iterator8Iterator8try_folduNCINvNvB1v_3all5checkRBH_NCNCNCINvNtBL_6expand9gen_blockNtCs3cP53eQoTwO_11proc_macro211TokenStreamEs0_0s2_00E0INtNtNtB1D_3ops12control_flow11ControlFlowuEEBL_, symObjAddr: 0x88, symBinAddr: 0x33EC4, symSize: 0x138 }
  - { offset: 0x7BE30, size: 0x8, addend: 0x0, symName: __RINvYINtNtCs6IAuOt8vWmF_3syn10punctuated4IterNtNtCs8noNfkmVAKC_18tracing_attributes4attr5FieldENtNtNtNtCsfvfooZQ3Axs_4core4iter6traits8iterator8Iterator8try_folduNCINvNvB1v_3all5checkRBH_NCNCNCINvNtBL_6expand9gen_blockNtNtB8_4stmt5BlockEs0_0s2_00E0INtNtNtB1D_3ops12control_flow11ControlFlowuEEBL_, symObjAddr: 0x1C0, symBinAddr: 0x33FFC, symSize: 0x138 }
  - { offset: 0x7BEEA, size: 0x8, addend: 0x0, symName: __RINvYINtNtCs6IAuOt8vWmF_3syn10punctuated7IterMutNtNtCs8noNfkmVAKC_18tracing_attributes4attr5FieldENtNtNtNtCsfvfooZQ3Axs_4core4iter6traits8iterator8Iterator10filter_mapQNtNtB8_4expr4ExprNCNCINvNtBO_6expand9gen_blockNtCs3cP53eQoTwO_11proc_macro211TokenStreamEs0_0s5_0EBO_, symObjAddr: 0x2F8, symBinAddr: 0x34134, symSize: 0x1C }
  - { offset: 0x7BF42, size: 0x8, addend: 0x0, symName: __RINvYINtNtCs6IAuOt8vWmF_3syn10punctuated7IterMutNtNtCs8noNfkmVAKC_18tracing_attributes4attr5FieldENtNtNtNtCsfvfooZQ3Axs_4core4iter6traits8iterator8Iterator10filter_mapQNtNtB8_4expr4ExprNCNCINvNtBO_6expand9gen_blockNtNtB8_4stmt5BlockEs0_0s5_0EBO_, symObjAddr: 0x314, symBinAddr: 0x34150, symSize: 0x1C }
  - { offset: 0x7BF9A, size: 0x8, addend: 0x0, symName: __RINvYINtNtCs6IAuOt8vWmF_3syn10punctuated7IterMutNtNtCs8noNfkmVAKC_18tracing_attributes4attr5FieldENtNtNtNtCsfvfooZQ3Axs_4core4iter6traits8iterator8Iterator8find_mapQNtNtB8_4expr4ExprQNCNCINvNtBO_6expand9gen_blockNtCs3cP53eQoTwO_11proc_macro211TokenStreamEs0_0s5_0EBO_, symObjAddr: 0x330, symBinAddr: 0x3416C, symSize: 0x7C }
  - { offset: 0x7C01E, size: 0x8, addend: 0x0, symName: __RINvYINtNtCs6IAuOt8vWmF_3syn10punctuated7IterMutNtNtCs8noNfkmVAKC_18tracing_attributes4attr5FieldENtNtNtNtCsfvfooZQ3Axs_4core4iter6traits8iterator8Iterator8find_mapQNtNtB8_4expr4ExprQNCNCINvNtBO_6expand9gen_blockNtNtB8_4stmt5BlockEs0_0s5_0EBO_, symObjAddr: 0x3AC, symBinAddr: 0x341E8, symSize: 0x7C }
  - { offset: 0x7C0A2, size: 0x8, addend: 0x0, symName: __RINvYINtNtCs6IAuOt8vWmF_3syn10punctuated7IterMutNtNtCs8noNfkmVAKC_18tracing_attributes4attr5FieldENtNtNtNtCsfvfooZQ3Axs_4core4iter6traits8iterator8Iterator8try_folduNCINvNvB1y_8find_map5checkQBK_QNtNtB8_4expr4ExprQNCNCINvNtBO_6expand9gen_blockNtCs3cP53eQoTwO_11proc_macro211TokenStreamEs0_0s5_0E0INtNtNtB1G_3ops12control_flow11ControlFlowB37_EEBO_, symObjAddr: 0x428, symBinAddr: 0x34264, symSize: 0x144 }
  - { offset: 0x7C15D, size: 0x8, addend: 0x0, symName: __RINvYINtNtCs6IAuOt8vWmF_3syn10punctuated7IterMutNtNtCs8noNfkmVAKC_18tracing_attributes4attr5FieldENtNtNtNtCsfvfooZQ3Axs_4core4iter6traits8iterator8Iterator8try_folduNCINvNvB1y_8find_map5checkQBK_QNtNtB8_4expr4ExprQNCNCINvNtBO_6expand9gen_blockNtNtB8_4stmt5BlockEs0_0s5_0E0INtNtNtB1G_3ops12control_flow11ControlFlowB37_EEBO_, symObjAddr: 0x56C, symBinAddr: 0x343A8, symSize: 0x144 }
  - { offset: 0x7C218, size: 0x8, addend: 0x0, symName: __RINvYINtNtCs6IAuOt8vWmF_3syn10punctuated8IntoIterNtNtB8_3pat3PatENtNtNtNtCsfvfooZQ3Axs_4core4iter6traits8iterator8Iterator3mapINtNtCse1nGBsou5OW_5alloc5boxed3BoxDB11_p4ItemTNtCs3cP53eQoTwO_11proc_macro25IdentNtNtCs8noNfkmVAKC_18tracing_attributes6expand10RecordTypeEEL_ENCNvB3m_11param_namess0_0EB3o_, symObjAddr: 0x6B0, symBinAddr: 0x344EC, symSize: 0x1C }
  - { offset: 0x7C285, size: 0x8, addend: 0x0, symName: __RINvYINtNtCs6IAuOt8vWmF_3syn10punctuated8IntoIterNtNtB8_3pat3PatENtNtNtNtCsfvfooZQ3Axs_4core4iter6traits8iterator8Iterator3mapINtNtCse1nGBsou5OW_5alloc5boxed3BoxDB11_p4ItemTNtCs3cP53eQoTwO_11proc_macro25IdentNtNtCs8noNfkmVAKC_18tracing_attributes6expand10RecordTypeEEL_ENCNvB3m_11param_namess_0EB3o_, symObjAddr: 0x6CC, symBinAddr: 0x34508, symSize: 0x1C }
  - { offset: 0x7C319, size: 0x8, addend: 0x0, symName: __RINvYINtNtCs6IAuOt8vWmF_3syn10punctuated8IntoIterNtNtB8_3pat3PatENtNtNtNtCsfvfooZQ3Axs_4core4iter6traits8iterator8Iterator8flat_mapINtNtCse1nGBsou5OW_5alloc5boxed3BoxDB11_p4ItemTNtCs3cP53eQoTwO_11proc_macro25IdentNtNtCs8noNfkmVAKC_18tracing_attributes6expand10RecordTypeEEL_ENCNvB3r_11param_namess0_0EB3t_, symObjAddr: 0x6E8, symBinAddr: 0x34524, symSize: 0x8C }
  - { offset: 0x7C412, size: 0x8, addend: 0x0, symName: __RINvYINtNtCs6IAuOt8vWmF_3syn10punctuated8IntoIterNtNtB8_3pat3PatENtNtNtNtCsfvfooZQ3Axs_4core4iter6traits8iterator8Iterator8flat_mapINtNtCse1nGBsou5OW_5alloc5boxed3BoxDB11_p4ItemTNtCs3cP53eQoTwO_11proc_macro25IdentNtNtCs8noNfkmVAKC_18tracing_attributes6expand10RecordTypeEEL_ENCNvB3r_11param_namess_0EB3t_, symObjAddr: 0x774, symBinAddr: 0x345B0, symSize: 0x8C }
  - { offset: 0x7C4E4, size: 0x8, addend: 0x0, symName: __RINvYINtNtCs6IAuOt8vWmF_3syn10punctuated8IntoIterNtNtB8_3pat3PatENtNtNtNtCsfvfooZQ3Axs_4core4iter6traits8iterator8Iterator8try_foldjNCINvNtNtB17_8adapters3map12map_try_foldBL_INtNtCse1nGBsou5OW_5alloc5boxed3BoxDB11_p4ItemTNtCs3cP53eQoTwO_11proc_macro25IdentNtNtCs8noNfkmVAKC_18tracing_attributes6expand10RecordTypeEEL_EjINtNtNtB19_3ops12control_flow11ControlFlowujENCNvB49_11param_namess0_0NCINvNvMst_NtB2d_7flattenINtB6r_13FlattenCompatppE13iter_try_fold7flattenB2N_jB58_INvNvXsv_B6r_B6F_B11_10advance_by7advanceB2N_EE0E0B58_EB4b_, symObjAddr: 0x800, symBinAddr: 0x3463C, symSize: 0x1CC }
  - { offset: 0x7C5A1, size: 0x8, addend: 0x0, symName: __RINvYINtNtCs6IAuOt8vWmF_3syn10punctuated8IntoIterNtNtB8_3pat3PatENtNtNtNtCsfvfooZQ3Axs_4core4iter6traits8iterator8Iterator8try_foldjNCINvNtNtB17_8adapters3map12map_try_foldBL_INtNtCse1nGBsou5OW_5alloc5boxed3BoxDB11_p4ItemTNtCs3cP53eQoTwO_11proc_macro25IdentNtNtCs8noNfkmVAKC_18tracing_attributes6expand10RecordTypeEEL_EjINtNtNtB19_3ops12control_flow11ControlFlowujENCNvB49_11param_namess_0NCINvNvMst_NtB2d_7flattenINtB6q_13FlattenCompatppE13iter_try_fold7flattenB2N_jB58_INvNvXsv_B6q_B6E_B11_10advance_by7advanceB2N_EE0E0B58_EB4b_, symObjAddr: 0x9CC, symBinAddr: 0x34808, symSize: 0x1CC }
  - { offset: 0x7C65E, size: 0x8, addend: 0x0, symName: __RINvYINtNtCs6IAuOt8vWmF_3syn10punctuated8IntoIterNtNtB8_3pat8FieldPatENtNtNtNtCsfvfooZQ3Axs_4core4iter6traits8iterator8Iterator3mapINtNtCse1nGBsou5OW_5alloc5boxed3BoxDB16_p4ItemTNtCs3cP53eQoTwO_11proc_macro25IdentNtNtCs8noNfkmVAKC_18tracing_attributes6expand10RecordTypeEEL_ENCNvB3r_11param_names0EB3t_, symObjAddr: 0xB98, symBinAddr: 0x349D4, symSize: 0x1C }
  - { offset: 0x7C6F2, size: 0x8, addend: 0x0, symName: __RINvYINtNtCs6IAuOt8vWmF_3syn10punctuated8IntoIterNtNtB8_3pat8FieldPatENtNtNtNtCsfvfooZQ3Axs_4core4iter6traits8iterator8Iterator8flat_mapINtNtCse1nGBsou5OW_5alloc5boxed3BoxDB16_p4ItemTNtCs3cP53eQoTwO_11proc_macro25IdentNtNtCs8noNfkmVAKC_18tracing_attributes6expand10RecordTypeEEL_ENCNvB3w_11param_names0EB3y_, symObjAddr: 0xBB4, symBinAddr: 0x349F0, symSize: 0x8C }
  - { offset: 0x7C7C4, size: 0x8, addend: 0x0, symName: __RINvYINtNtCs6IAuOt8vWmF_3syn10punctuated8IntoIterNtNtB8_3pat8FieldPatENtNtNtNtCsfvfooZQ3Axs_4core4iter6traits8iterator8Iterator8try_foldjNCINvNtNtB1c_8adapters3map12map_try_foldBL_INtNtCse1nGBsou5OW_5alloc5boxed3BoxDB16_p4ItemTNtCs3cP53eQoTwO_11proc_macro25IdentNtNtCs8noNfkmVAKC_18tracing_attributes6expand10RecordTypeEEL_EjINtNtNtB1e_3ops12control_flow11ControlFlowujENCNvB4e_11param_names0NCINvNvMst_NtB2i_7flattenINtB6t_13FlattenCompatppE13iter_try_fold7flattenB2S_jB5d_INvNvXsv_B6t_B6H_B16_10advance_by7advanceB2S_EE0E0B5d_EB4g_, symObjAddr: 0xC40, symBinAddr: 0x34A7C, symSize: 0x1C8 }
  - { offset: 0x7C881, size: 0x8, addend: 0x0, symName: __RINvYINtNtCs6IAuOt8vWmF_3syn10punctuated8IntoIterNtNtB8_4item5FnArgENtNtNtNtCsfvfooZQ3Axs_4core4iter6traits8iterator8Iterator3mapINtNtCse1nGBsou5OW_5alloc5boxed3BoxDB14_p4ItemTNtCs3cP53eQoTwO_11proc_macro25IdentNtNtCs8noNfkmVAKC_18tracing_attributes6expand10RecordTypeEEL_ENCNCINvB3p_9gen_blockNtB2Q_11TokenStreamEs0_00EB3r_, symObjAddr: 0xE08, symBinAddr: 0x34C44, symSize: 0x1C }
  - { offset: 0x7C8EE, size: 0x8, addend: 0x0, symName: __RINvYINtNtCs6IAuOt8vWmF_3syn10punctuated8IntoIterNtNtB8_4item5FnArgENtNtNtNtCsfvfooZQ3Axs_4core4iter6traits8iterator8Iterator3mapINtNtCse1nGBsou5OW_5alloc5boxed3BoxDB14_p4ItemTNtCs3cP53eQoTwO_11proc_macro25IdentNtNtCs8noNfkmVAKC_18tracing_attributes6expand10RecordTypeEEL_ENCNCINvB3p_9gen_blockNtNtB8_4stmt5BlockEs0_00EB3r_, symObjAddr: 0xE24, symBinAddr: 0x34C60, symSize: 0x1C }
  - { offset: 0x7C982, size: 0x8, addend: 0x0, symName: __RINvYINtNtCs6IAuOt8vWmF_3syn10punctuated8IntoIterNtNtB8_4item5FnArgENtNtNtNtCsfvfooZQ3Axs_4core4iter6traits8iterator8Iterator8flat_mapINtNtCse1nGBsou5OW_5alloc5boxed3BoxDB14_p4ItemTNtCs3cP53eQoTwO_11proc_macro25IdentNtNtCs8noNfkmVAKC_18tracing_attributes6expand10RecordTypeEEL_ENCNCINvB3u_9gen_blockNtB2V_11TokenStreamEs0_00EB3w_, symObjAddr: 0xE40, symBinAddr: 0x34C7C, symSize: 0x8C }
  - { offset: 0x7CA7B, size: 0x8, addend: 0x0, symName: __RINvYINtNtCs6IAuOt8vWmF_3syn10punctuated8IntoIterNtNtB8_4item5FnArgENtNtNtNtCsfvfooZQ3Axs_4core4iter6traits8iterator8Iterator8flat_mapINtNtCse1nGBsou5OW_5alloc5boxed3BoxDB14_p4ItemTNtCs3cP53eQoTwO_11proc_macro25IdentNtNtCs8noNfkmVAKC_18tracing_attributes6expand10RecordTypeEEL_ENCNCINvB3u_9gen_blockNtNtB8_4stmt5BlockEs0_00EB3w_, symObjAddr: 0xECC, symBinAddr: 0x34D08, symSize: 0x8C }
  - { offset: 0x7CB4D, size: 0x8, addend: 0x0, symName: __RNvYINtNtCs6IAuOt8vWmF_3syn10punctuated11PrivateIterNtCs3cP53eQoTwO_11proc_macro25IdentNtNtB7_5token3DotENtNtNtNtCsfvfooZQ3Axs_4core4iter6traits8iterator8Iterator10advance_byCs8noNfkmVAKC_18tracing_attributes, symObjAddr: 0x6DB0, symBinAddr: 0x3ABEC, symSize: 0x134 }
  - { offset: 0x7CCA3, size: 0x8, addend: 0x0, symName: __RNvYINtNtCs6IAuOt8vWmF_3syn10punctuated11PrivateIterNtCs3cP53eQoTwO_11proc_macro25IdentNtNtB7_5token3DotENtNtNtNtCsfvfooZQ3Axs_4core4iter6traits8iterator8Iterator3nthCs8noNfkmVAKC_18tracing_attributes, symObjAddr: 0x6EE4, symBinAddr: 0x3AD20, symSize: 0x80 }
  - { offset: 0x7CD6F, size: 0x8, addend: 0x0, symName: __RNvYINtNtCs6IAuOt8vWmF_3syn10punctuated11PrivateIterNtCs3cP53eQoTwO_11proc_macro25IdentNtNtB7_5token3DotENtNtNtNtCsfvfooZQ3Axs_4core4iter6traits8iterator8Iterator9size_hintCs8noNfkmVAKC_18tracing_attributes, symObjAddr: 0x6F64, symBinAddr: 0x3ADA0, symSize: 0x34 }
  - { offset: 0x7CDA4, size: 0x8, addend: 0x0, symName: __RNvYINtNtCs6IAuOt8vWmF_3syn10punctuated11PrivateIterNtNtCs8noNfkmVAKC_18tracing_attributes4attr5FieldNtNtB7_5token5CommaENtNtNtNtCsfvfooZQ3Axs_4core4iter6traits8iterator8Iterator10advance_byBS_, symObjAddr: 0x7160, symBinAddr: 0x3AF9C, symSize: 0x134 }
  - { offset: 0x7CEFA, size: 0x8, addend: 0x0, symName: __RNvYINtNtCs6IAuOt8vWmF_3syn10punctuated11PrivateIterNtNtCs8noNfkmVAKC_18tracing_attributes4attr5FieldNtNtB7_5token5CommaENtNtNtNtCsfvfooZQ3Axs_4core4iter6traits8iterator8Iterator3nthBS_, symObjAddr: 0x7294, symBinAddr: 0x3B0D0, symSize: 0x80 }
  - { offset: 0x7CFC6, size: 0x8, addend: 0x0, symName: __RNvYINtNtCs6IAuOt8vWmF_3syn10punctuated11PrivateIterNtNtCs8noNfkmVAKC_18tracing_attributes4attr5FieldNtNtB7_5token5CommaENtNtNtNtCsfvfooZQ3Axs_4core4iter6traits8iterator8Iterator9size_hintBS_, symObjAddr: 0x7314, symBinAddr: 0x3B150, symSize: 0x34 }
  - { offset: 0x7CFFB, size: 0x8, addend: 0x0, symName: __RNvYINtNtCs6IAuOt8vWmF_3syn10punctuated14PrivateIterMutNtNtCs8noNfkmVAKC_18tracing_attributes4attr5FieldNtNtB7_5token5CommaENtNtNtNtCsfvfooZQ3Axs_4core4iter6traits8iterator8Iterator10advance_byBV_, symObjAddr: 0x7510, symBinAddr: 0x3B34C, symSize: 0x134 }
  - { offset: 0x7D151, size: 0x8, addend: 0x0, symName: __RNvYINtNtCs6IAuOt8vWmF_3syn10punctuated14PrivateIterMutNtNtCs8noNfkmVAKC_18tracing_attributes4attr5FieldNtNtB7_5token5CommaENtNtNtNtCsfvfooZQ3Axs_4core4iter6traits8iterator8Iterator3nthBV_, symObjAddr: 0x7644, symBinAddr: 0x3B480, symSize: 0x80 }
  - { offset: 0x7D21D, size: 0x8, addend: 0x0, symName: __RNvYINtNtCs6IAuOt8vWmF_3syn10punctuated14PrivateIterMutNtNtCs8noNfkmVAKC_18tracing_attributes4attr5FieldNtNtB7_5token5CommaENtNtNtNtCsfvfooZQ3Axs_4core4iter6traits8iterator8Iterator9size_hintBV_, symObjAddr: 0x76C4, symBinAddr: 0x3B500, symSize: 0x34 }
  - { offset: 0x7D2C2, size: 0x8, addend: 0x0, symName: __RNvXNtNtNtCsfvfooZQ3Axs_4core4iter6traits7collectINtNtCs6IAuOt8vWmF_3syn10punctuated5PairsNtCs3cP53eQoTwO_11proc_macro25IdentNtNtBQ_5token3DotENtB2_12IntoIterator9into_iterCs8noNfkmVAKC_18tracing_attributes, symObjAddr: 0x4EE0, symBinAddr: 0x38D1C, symSize: 0x18 }
  - { offset: 0x7D2F9, size: 0x8, addend: 0x0, symName: __RNvXNtNtNtCsfvfooZQ3Axs_4core4iter6traits7collectINtNtCs6IAuOt8vWmF_3syn10punctuated5PairsNtNtCs8noNfkmVAKC_18tracing_attributes4attr5FieldNtNtBQ_5token5CommaENtB2_12IntoIterator9into_iterB1u_, symObjAddr: 0x4EF8, symBinAddr: 0x38D34, symSize: 0x18 }
  - { offset: 0x7D330, size: 0x8, addend: 0x0, symName: __RNvXNtNtNtCsfvfooZQ3Axs_4core4iter6traits7collectINtNtCs6IAuOt8vWmF_3syn10punctuated8PairsMutNtNtBQ_2ty4TypeNtNtBQ_5token5CommaENtB2_12IntoIterator9into_iterCs8noNfkmVAKC_18tracing_attributes, symObjAddr: 0x4F10, symBinAddr: 0x38D4C, symSize: 0x18 }
  - { offset: 0x7D367, size: 0x8, addend: 0x0, symName: __RNvXNtNtNtCsfvfooZQ3Axs_4core4iter6traits7collectINtNtCs6IAuOt8vWmF_3syn10punctuated8PairsMutNtNtBQ_2ty9BareFnArgNtNtBQ_5token5CommaENtB2_12IntoIterator9into_iterCs8noNfkmVAKC_18tracing_attributes, symObjAddr: 0x4F28, symBinAddr: 0x38D64, symSize: 0x18 }
  - { offset: 0x7D39E, size: 0x8, addend: 0x0, symName: __RNvXNtNtNtCsfvfooZQ3Axs_4core4iter6traits7collectINtNtCs6IAuOt8vWmF_3syn10punctuated8PairsMutNtNtBQ_3pat3PatNtNtBQ_5token2OrENtB2_12IntoIterator9into_iterCs8noNfkmVAKC_18tracing_attributes, symObjAddr: 0x4F40, symBinAddr: 0x38D7C, symSize: 0x18 }
  - { offset: 0x7D3D5, size: 0x8, addend: 0x0, symName: __RNvXNtNtNtCsfvfooZQ3Axs_4core4iter6traits7collectINtNtCs6IAuOt8vWmF_3syn10punctuated8PairsMutNtNtBQ_3pat3PatNtNtBQ_5token5CommaENtB2_12IntoIterator9into_iterCs8noNfkmVAKC_18tracing_attributes, symObjAddr: 0x4F58, symBinAddr: 0x38D94, symSize: 0x18 }
  - { offset: 0x7D40C, size: 0x8, addend: 0x0, symName: __RNvXNtNtNtCsfvfooZQ3Axs_4core4iter6traits7collectINtNtCs6IAuOt8vWmF_3syn10punctuated8PairsMutNtNtBQ_3pat8FieldPatNtNtBQ_5token5CommaENtB2_12IntoIterator9into_iterCs8noNfkmVAKC_18tracing_attributes, symObjAddr: 0x4F70, symBinAddr: 0x38DAC, symSize: 0x18 }
  - { offset: 0x7D443, size: 0x8, addend: 0x0, symName: __RNvXNtNtNtCsfvfooZQ3Axs_4core4iter6traits7collectINtNtCs6IAuOt8vWmF_3syn10punctuated8PairsMutNtNtBQ_4data5FieldNtNtBQ_5token5CommaENtB2_12IntoIterator9into_iterCs8noNfkmVAKC_18tracing_attributes, symObjAddr: 0x4F88, symBinAddr: 0x38DC4, symSize: 0x18 }
  - { offset: 0x7D47A, size: 0x8, addend: 0x0, symName: __RNvXNtNtNtCsfvfooZQ3Axs_4core4iter6traits7collectINtNtCs6IAuOt8vWmF_3syn10punctuated8PairsMutNtNtBQ_4data7VariantNtNtBQ_5token5CommaENtB2_12IntoIterator9into_iterCs8noNfkmVAKC_18tracing_attributes, symObjAddr: 0x4FA0, symBinAddr: 0x38DDC, symSize: 0x18 }
  - { offset: 0x7D4B1, size: 0x8, addend: 0x0, symName: __RNvXNtNtNtCsfvfooZQ3Axs_4core4iter6traits7collectINtNtCs6IAuOt8vWmF_3syn10punctuated8PairsMutNtNtBQ_4expr10FieldValueNtNtBQ_5token5CommaENtB2_12IntoIterator9into_iterCs8noNfkmVAKC_18tracing_attributes, symObjAddr: 0x4FB8, symBinAddr: 0x38DF4, symSize: 0x18 }
  - { offset: 0x7D4E8, size: 0x8, addend: 0x0, symName: __RNvXNtNtNtCsfvfooZQ3Axs_4core4iter6traits7collectINtNtCs6IAuOt8vWmF_3syn10punctuated8PairsMutNtNtBQ_4expr4ExprNtNtBQ_5token5CommaENtB2_12IntoIterator9into_iterCs8noNfkmVAKC_18tracing_attributes, symObjAddr: 0x4FD0, symBinAddr: 0x38E0C, symSize: 0x18 }
  - { offset: 0x7D51F, size: 0x8, addend: 0x0, symName: __RNvXNtNtNtCsfvfooZQ3Axs_4core4iter6traits7collectINtNtCs6IAuOt8vWmF_3syn10punctuated8PairsMutNtNtBQ_4item5FnArgNtNtBQ_5token5CommaENtB2_12IntoIterator9into_iterCs8noNfkmVAKC_18tracing_attributes, symObjAddr: 0x4FE8, symBinAddr: 0x38E24, symSize: 0x18 }
  - { offset: 0x7D556, size: 0x8, addend: 0x0, symName: __RNvXNtNtNtCsfvfooZQ3Axs_4core4iter6traits7collectINtNtCs6IAuOt8vWmF_3syn10punctuated8PairsMutNtNtBQ_4item7UseTreeNtNtBQ_5token5CommaENtB2_12IntoIterator9into_iterCs8noNfkmVAKC_18tracing_attributes, symObjAddr: 0x5000, symBinAddr: 0x38E3C, symSize: 0x18 }
  - { offset: 0x7D58D, size: 0x8, addend: 0x0, symName: __RNvXNtNtNtCsfvfooZQ3Axs_4core4iter6traits7collectINtNtCs6IAuOt8vWmF_3syn10punctuated8PairsMutNtNtBQ_4path11PathSegmentNtNtBQ_5token7PathSepENtB2_12IntoIterator9into_iterCs8noNfkmVAKC_18tracing_attributes, symObjAddr: 0x5018, symBinAddr: 0x38E54, symSize: 0x18 }
  - { offset: 0x7D5C4, size: 0x8, addend: 0x0, symName: __RNvXNtNtNtCsfvfooZQ3Axs_4core4iter6traits7collectINtNtCs6IAuOt8vWmF_3syn10punctuated8PairsMutNtNtBQ_4path15GenericArgumentNtNtBQ_5token5CommaENtB2_12IntoIterator9into_iterCs8noNfkmVAKC_18tracing_attributes, symObjAddr: 0x5030, symBinAddr: 0x38E6C, symSize: 0x18 }
  - { offset: 0x7D5FB, size: 0x8, addend: 0x0, symName: __RNvXNtNtNtCsfvfooZQ3Axs_4core4iter6traits7collectINtNtCs6IAuOt8vWmF_3syn10punctuated8PairsMutNtNtBQ_8generics12GenericParamNtNtBQ_5token5CommaENtB2_12IntoIterator9into_iterCs8noNfkmVAKC_18tracing_attributes, symObjAddr: 0x5048, symBinAddr: 0x38E84, symSize: 0x18 }
  - { offset: 0x7D632, size: 0x8, addend: 0x0, symName: __RNvXNtNtNtCsfvfooZQ3Axs_4core4iter6traits7collectINtNtCs6IAuOt8vWmF_3syn10punctuated8PairsMutNtNtBQ_8generics13CapturedParamNtNtBQ_5token5CommaENtB2_12IntoIterator9into_iterCs8noNfkmVAKC_18tracing_attributes, symObjAddr: 0x5060, symBinAddr: 0x38E9C, symSize: 0x18 }
  - { offset: 0x7D669, size: 0x8, addend: 0x0, symName: __RNvXNtNtNtCsfvfooZQ3Axs_4core4iter6traits7collectINtNtCs6IAuOt8vWmF_3syn10punctuated8PairsMutNtNtBQ_8generics14TypeParamBoundNtNtBQ_5token4PlusENtB2_12IntoIterator9into_iterCs8noNfkmVAKC_18tracing_attributes, symObjAddr: 0x5078, symBinAddr: 0x38EB4, symSize: 0x18 }
  - { offset: 0x7D6A0, size: 0x8, addend: 0x0, symName: __RNvXNtNtNtCsfvfooZQ3Axs_4core4iter6traits7collectINtNtCs6IAuOt8vWmF_3syn10punctuated8PairsMutNtNtBQ_8generics14WherePredicateNtNtBQ_5token5CommaENtB2_12IntoIterator9into_iterCs8noNfkmVAKC_18tracing_attributes, symObjAddr: 0x5090, symBinAddr: 0x38ECC, symSize: 0x18 }
  - { offset: 0x7D6D7, size: 0x8, addend: 0x0, symName: __RNvXNtNtNtCsfvfooZQ3Axs_4core4iter6traits7collectINtNtCs6IAuOt8vWmF_3syn10punctuated8PairsMutNtNtBQ_8lifetime8LifetimeNtNtBQ_5token4PlusENtB2_12IntoIterator9into_iterCs8noNfkmVAKC_18tracing_attributes, symObjAddr: 0x50A8, symBinAddr: 0x38EE4, symSize: 0x18 }
  - { offset: 0x7D71A, size: 0x8, addend: 0x0, symName: __RNvYINtNtCs6IAuOt8vWmF_3syn10punctuated11PrivateIterNtCs3cP53eQoTwO_11proc_macro25IdentNtNtB7_5token3DotENtNtNtNtCsfvfooZQ3Axs_4core4iter6traits10exact_size17ExactSizeIterator8is_emptyCs8noNfkmVAKC_18tracing_attributes, symObjAddr: 0x6BE8, symBinAddr: 0x3AA24, symSize: 0x2C }
  - { offset: 0x7D74F, size: 0x8, addend: 0x0, symName: __RNvYINtNtCs6IAuOt8vWmF_3syn10punctuated11PrivateIterNtNtCs8noNfkmVAKC_18tracing_attributes4attr5FieldNtNtB7_5token5CommaENtNtNtNtCsfvfooZQ3Axs_4core4iter6traits10exact_size17ExactSizeIterator8is_emptyBS_, symObjAddr: 0x6F98, symBinAddr: 0x3ADD4, symSize: 0x2C }
  - { offset: 0x7D784, size: 0x8, addend: 0x0, symName: __RNvYINtNtCs6IAuOt8vWmF_3syn10punctuated14PrivateIterMutNtNtCs8noNfkmVAKC_18tracing_attributes4attr5FieldNtNtB7_5token5CommaENtNtNtNtCsfvfooZQ3Axs_4core4iter6traits10exact_size17ExactSizeIterator8is_emptyBV_, symObjAddr: 0x7348, symBinAddr: 0x3B184, symSize: 0x2C }
  - { offset: 0x7D7C5, size: 0x8, addend: 0x0, symName: __RNvYINtNtCs6IAuOt8vWmF_3syn10punctuated11PrivateIterNtCs3cP53eQoTwO_11proc_macro25IdentNtNtB7_5token3DotENtNtNtNtCsfvfooZQ3Axs_4core4iter6traits12double_ended19DoubleEndedIterator15advance_back_byCs8noNfkmVAKC_18tracing_attributes, symObjAddr: 0x6C14, symBinAddr: 0x3AA50, symSize: 0x134 }
  - { offset: 0x7D913, size: 0x8, addend: 0x0, symName: __RNvYINtNtCs6IAuOt8vWmF_3syn10punctuated11PrivateIterNtCs3cP53eQoTwO_11proc_macro25IdentNtNtB7_5token3DotENtNtNtNtCsfvfooZQ3Axs_4core4iter6traits12double_ended19DoubleEndedIterator8nth_backCs8noNfkmVAKC_18tracing_attributes, symObjAddr: 0x6D48, symBinAddr: 0x3AB84, symSize: 0x68 }
  - { offset: 0x7D991, size: 0x8, addend: 0x0, symName: __RNvYINtNtCs6IAuOt8vWmF_3syn10punctuated11PrivateIterNtNtCs8noNfkmVAKC_18tracing_attributes4attr5FieldNtNtB7_5token5CommaENtNtNtNtCsfvfooZQ3Axs_4core4iter6traits12double_ended19DoubleEndedIterator15advance_back_byBS_, symObjAddr: 0x6FC4, symBinAddr: 0x3AE00, symSize: 0x134 }
  - { offset: 0x7DADF, size: 0x8, addend: 0x0, symName: __RNvYINtNtCs6IAuOt8vWmF_3syn10punctuated11PrivateIterNtNtCs8noNfkmVAKC_18tracing_attributes4attr5FieldNtNtB7_5token5CommaENtNtNtNtCsfvfooZQ3Axs_4core4iter6traits12double_ended19DoubleEndedIterator8nth_backBS_, symObjAddr: 0x70F8, symBinAddr: 0x3AF34, symSize: 0x68 }
  - { offset: 0x7DB5D, size: 0x8, addend: 0x0, symName: __RNvYINtNtCs6IAuOt8vWmF_3syn10punctuated14PrivateIterMutNtNtCs8noNfkmVAKC_18tracing_attributes4attr5FieldNtNtB7_5token5CommaENtNtNtNtCsfvfooZQ3Axs_4core4iter6traits12double_ended19DoubleEndedIterator15advance_back_byBV_, symObjAddr: 0x7374, symBinAddr: 0x3B1B0, symSize: 0x134 }
  - { offset: 0x7DCAB, size: 0x8, addend: 0x0, symName: __RNvYINtNtCs6IAuOt8vWmF_3syn10punctuated14PrivateIterMutNtNtCs8noNfkmVAKC_18tracing_attributes4attr5FieldNtNtB7_5token5CommaENtNtNtNtCsfvfooZQ3Axs_4core4iter6traits12double_ended19DoubleEndedIterator8nth_backBV_, symObjAddr: 0x74A8, symBinAddr: 0x3B2E4, symSize: 0x68 }
  - { offset: 0x80E5B, size: 0x8, addend: 0x0, symName: __RNvMNtCs6IAuOt8vWmF_3syn10punctuatedINtB2_10PunctuatedNtCs3cP53eQoTwO_11proc_macro25IdentNtNtB4_5token3DotE10push_punctCs8noNfkmVAKC_18tracing_attributes, symObjAddr: 0x210C, symBinAddr: 0x35F48, symSize: 0x1F0 }
  - { offset: 0x80ED8, size: 0x8, addend: 0x0, symName: __RNvMNtCs6IAuOt8vWmF_3syn10punctuatedINtB2_10PunctuatedNtCs3cP53eQoTwO_11proc_macro25IdentNtNtB4_5token3DotE10push_valueCs8noNfkmVAKC_18tracing_attributes, symObjAddr: 0x22FC, symBinAddr: 0x36138, symSize: 0x1A4 }
  - { offset: 0x80F46, size: 0x8, addend: 0x0, symName: __RNvMNtCs6IAuOt8vWmF_3syn10punctuatedINtB2_10PunctuatedNtCs3cP53eQoTwO_11proc_macro25IdentNtNtB4_5token3DotE17empty_or_trailingCs8noNfkmVAKC_18tracing_attributes, symObjAddr: 0x24A0, symBinAddr: 0x362DC, symSize: 0x34 }
  - { offset: 0x80FEE, size: 0x8, addend: 0x0, symName: __RNvMNtCs6IAuOt8vWmF_3syn10punctuatedINtB2_10PunctuatedNtCs3cP53eQoTwO_11proc_macro25IdentNtNtB4_5token3DotE29parse_separated_nonempty_withCs8noNfkmVAKC_18tracing_attributes, symObjAddr: 0x24D4, symBinAddr: 0x36310, symSize: 0x31C }
  - { offset: 0x810F3, size: 0x8, addend: 0x0, symName: __RNvMNtCs6IAuOt8vWmF_3syn10punctuatedINtB2_10PunctuatedNtCs3cP53eQoTwO_11proc_macro25IdentNtNtB4_5token3DotE3newCs8noNfkmVAKC_18tracing_attributes, symObjAddr: 0x27F0, symBinAddr: 0x3662C, symSize: 0x54 }
  - { offset: 0x8116E, size: 0x8, addend: 0x0, symName: __RNvMNtCs6IAuOt8vWmF_3syn10punctuatedINtB2_10PunctuatedNtCs3cP53eQoTwO_11proc_macro25IdentNtNtB4_5token3DotE4iterCs8noNfkmVAKC_18tracing_attributes, symObjAddr: 0x2844, symBinAddr: 0x36680, symSize: 0xC8 }
  - { offset: 0x811BF, size: 0x8, addend: 0x0, symName: __RNvMNtCs6IAuOt8vWmF_3syn10punctuatedINtB2_10PunctuatedNtCs3cP53eQoTwO_11proc_macro25IdentNtNtB4_5token3DotE4lastCs8noNfkmVAKC_18tracing_attributes, symObjAddr: 0x290C, symBinAddr: 0x36748, symSize: 0x84 }
  - { offset: 0x811F3, size: 0x8, addend: 0x0, symName: __RNvMNtCs6IAuOt8vWmF_3syn10punctuatedINtB2_10PunctuatedNtCs3cP53eQoTwO_11proc_macro25IdentNtNtB4_5token3DotE5firstCs8noNfkmVAKC_18tracing_attributes, symObjAddr: 0x2990, symBinAddr: 0x367CC, symSize: 0x84 }
  - { offset: 0x81227, size: 0x8, addend: 0x0, symName: __RNvMNtCs6IAuOt8vWmF_3syn10punctuatedINtB2_10PunctuatedNtCs3cP53eQoTwO_11proc_macro25IdentNtNtB4_5token3DotE5pairsCs8noNfkmVAKC_18tracing_attributes, symObjAddr: 0x2A14, symBinAddr: 0x36850, symSize: 0x74 }
  - { offset: 0x81286, size: 0x8, addend: 0x0, symName: __RNvMNtCs6IAuOt8vWmF_3syn10punctuatedINtB2_10PunctuatedNtCs3cP53eQoTwO_11proc_macro25IdentNtNtB4_5token5CommaE10push_punctCs8noNfkmVAKC_18tracing_attributes, symObjAddr: 0x2A88, symBinAddr: 0x368C4, symSize: 0x1F0 }
  - { offset: 0x81303, size: 0x8, addend: 0x0, symName: __RNvMNtCs6IAuOt8vWmF_3syn10punctuatedINtB2_10PunctuatedNtCs3cP53eQoTwO_11proc_macro25IdentNtNtB4_5token5CommaE10push_valueCs8noNfkmVAKC_18tracing_attributes, symObjAddr: 0x2C78, symBinAddr: 0x36AB4, symSize: 0x1A4 }
  - { offset: 0x81371, size: 0x8, addend: 0x0, symName: __RNvMNtCs6IAuOt8vWmF_3syn10punctuatedINtB2_10PunctuatedNtCs3cP53eQoTwO_11proc_macro25IdentNtNtB4_5token5CommaE17empty_or_trailingCs8noNfkmVAKC_18tracing_attributes, symObjAddr: 0x2E1C, symBinAddr: 0x36C58, symSize: 0x34 }
  - { offset: 0x813A5, size: 0x8, addend: 0x0, symName: __RNvMNtCs6IAuOt8vWmF_3syn10punctuatedINtB2_10PunctuatedNtCs3cP53eQoTwO_11proc_macro25IdentNtNtB4_5token5CommaE21parse_terminated_withCs8noNfkmVAKC_18tracing_attributes, symObjAddr: 0x2E50, symBinAddr: 0x36C8C, symSize: 0x33C }
  - { offset: 0x814AA, size: 0x8, addend: 0x0, symName: __RNvMNtCs6IAuOt8vWmF_3syn10punctuatedINtB2_10PunctuatedNtCs3cP53eQoTwO_11proc_macro25IdentNtNtB4_5token5CommaE3lenCs8noNfkmVAKC_18tracing_attributes, symObjAddr: 0x318C, symBinAddr: 0x36FC8, symSize: 0xA0 }
  - { offset: 0x814DE, size: 0x8, addend: 0x0, symName: __RNvMNtCs6IAuOt8vWmF_3syn10punctuatedINtB2_10PunctuatedNtCs3cP53eQoTwO_11proc_macro25IdentNtNtB4_5token5CommaE3newCs8noNfkmVAKC_18tracing_attributes, symObjAddr: 0x322C, symBinAddr: 0x37068, symSize: 0x54 }
  - { offset: 0x81545, size: 0x8, addend: 0x0, symName: __RNvMNtCs6IAuOt8vWmF_3syn10punctuatedINtB2_10PunctuatedNtNtB4_2ty4TypeNtNtB4_5token5CommaE9pairs_mutCs8noNfkmVAKC_18tracing_attributes, symObjAddr: 0x3280, symBinAddr: 0x370BC, symSize: 0x74 }
  - { offset: 0x815BA, size: 0x8, addend: 0x0, symName: __RNvMNtCs6IAuOt8vWmF_3syn10punctuatedINtB2_10PunctuatedNtNtB4_2ty9BareFnArgNtNtB4_5token5CommaE9pairs_mutCs8noNfkmVAKC_18tracing_attributes, symObjAddr: 0x32F4, symBinAddr: 0x37130, symSize: 0x74 }
  - { offset: 0x8162F, size: 0x8, addend: 0x0, symName: __RNvMNtCs6IAuOt8vWmF_3syn10punctuatedINtB2_10PunctuatedNtNtB4_3pat3PatNtNtB4_5token2OrE9pairs_mutCs8noNfkmVAKC_18tracing_attributes, symObjAddr: 0x3368, symBinAddr: 0x371A4, symSize: 0x74 }
  - { offset: 0x81697, size: 0x8, addend: 0x0, symName: __RNvMNtCs6IAuOt8vWmF_3syn10punctuatedINtB2_10PunctuatedNtNtB4_3pat3PatNtNtB4_5token5CommaE9pairs_mutCs8noNfkmVAKC_18tracing_attributes, symObjAddr: 0x33DC, symBinAddr: 0x37218, symSize: 0x74 }
  - { offset: 0x816D8, size: 0x8, addend: 0x0, symName: __RNvMNtCs6IAuOt8vWmF_3syn10punctuatedINtB2_10PunctuatedNtNtB4_3pat8FieldPatNtNtB4_5token5CommaE3lenCs8noNfkmVAKC_18tracing_attributes, symObjAddr: 0x3450, symBinAddr: 0x3728C, symSize: 0xA0 }
  - { offset: 0x8174D, size: 0x8, addend: 0x0, symName: __RNvMNtCs6IAuOt8vWmF_3syn10punctuatedINtB2_10PunctuatedNtNtB4_3pat8FieldPatNtNtB4_5token5CommaE9pairs_mutCs8noNfkmVAKC_18tracing_attributes, symObjAddr: 0x34F0, symBinAddr: 0x3732C, symSize: 0x74 }
  - { offset: 0x817C2, size: 0x8, addend: 0x0, symName: __RNvMNtCs6IAuOt8vWmF_3syn10punctuatedINtB2_10PunctuatedNtNtB4_4data5FieldNtNtB4_5token5CommaE9pairs_mutCs8noNfkmVAKC_18tracing_attributes, symObjAddr: 0x3564, symBinAddr: 0x373A0, symSize: 0x74 }
  - { offset: 0x81837, size: 0x8, addend: 0x0, symName: __RNvMNtCs6IAuOt8vWmF_3syn10punctuatedINtB2_10PunctuatedNtNtB4_4data7VariantNtNtB4_5token5CommaE9pairs_mutCs8noNfkmVAKC_18tracing_attributes, symObjAddr: 0x35D8, symBinAddr: 0x37414, symSize: 0x74 }
  - { offset: 0x818AC, size: 0x8, addend: 0x0, symName: __RNvMNtCs6IAuOt8vWmF_3syn10punctuatedINtB2_10PunctuatedNtNtB4_4expr10FieldValueNtNtB4_5token5CommaE9pairs_mutCs8noNfkmVAKC_18tracing_attributes, symObjAddr: 0x364C, symBinAddr: 0x37488, symSize: 0x74 }
  - { offset: 0x81914, size: 0x8, addend: 0x0, symName: __RNvMNtCs6IAuOt8vWmF_3syn10punctuatedINtB2_10PunctuatedNtNtB4_4expr4ExprNtNtB4_5token5CommaE9pairs_mutCs8noNfkmVAKC_18tracing_attributes, symObjAddr: 0x36C0, symBinAddr: 0x374FC, symSize: 0x74 }
  - { offset: 0x81955, size: 0x8, addend: 0x0, symName: __RNvMNtCs6IAuOt8vWmF_3syn10punctuatedINtB2_10PunctuatedNtNtB4_4item5FnArgNtNtB4_5token5CommaE3lenCs8noNfkmVAKC_18tracing_attributes, symObjAddr: 0x3734, symBinAddr: 0x37570, symSize: 0xA0 }
  - { offset: 0x819CA, size: 0x8, addend: 0x0, symName: __RNvMNtCs6IAuOt8vWmF_3syn10punctuatedINtB2_10PunctuatedNtNtB4_4item5FnArgNtNtB4_5token5CommaE9pairs_mutCs8noNfkmVAKC_18tracing_attributes, symObjAddr: 0x37D4, symBinAddr: 0x37610, symSize: 0x74 }
  - { offset: 0x81A3F, size: 0x8, addend: 0x0, symName: __RNvMNtCs6IAuOt8vWmF_3syn10punctuatedINtB2_10PunctuatedNtNtB4_4item7UseTreeNtNtB4_5token5CommaE9pairs_mutCs8noNfkmVAKC_18tracing_attributes, symObjAddr: 0x3848, symBinAddr: 0x37684, symSize: 0x74 }
  - { offset: 0x81AB4, size: 0x8, addend: 0x0, symName: __RNvMNtCs6IAuOt8vWmF_3syn10punctuatedINtB2_10PunctuatedNtNtB4_4path11PathSegmentNtNtB4_5token7PathSepE9pairs_mutCs8noNfkmVAKC_18tracing_attributes, symObjAddr: 0x38BC, symBinAddr: 0x376F8, symSize: 0x74 }
  - { offset: 0x81B29, size: 0x8, addend: 0x0, symName: __RNvMNtCs6IAuOt8vWmF_3syn10punctuatedINtB2_10PunctuatedNtNtB4_4path15GenericArgumentNtNtB4_5token5CommaE9pairs_mutCs8noNfkmVAKC_18tracing_attributes, symObjAddr: 0x3930, symBinAddr: 0x3776C, symSize: 0x74 }
  - { offset: 0x81B9E, size: 0x8, addend: 0x0, symName: __RNvMNtCs6IAuOt8vWmF_3syn10punctuatedINtB2_10PunctuatedNtNtB4_8generics12GenericParamNtNtB4_5token5CommaE9pairs_mutCs8noNfkmVAKC_18tracing_attributes, symObjAddr: 0x39A4, symBinAddr: 0x377E0, symSize: 0x74 }
  - { offset: 0x81C13, size: 0x8, addend: 0x0, symName: __RNvMNtCs6IAuOt8vWmF_3syn10punctuatedINtB2_10PunctuatedNtNtB4_8generics13CapturedParamNtNtB4_5token5CommaE9pairs_mutCs8noNfkmVAKC_18tracing_attributes, symObjAddr: 0x3A18, symBinAddr: 0x37854, symSize: 0x74 }
  - { offset: 0x81C88, size: 0x8, addend: 0x0, symName: __RNvMNtCs6IAuOt8vWmF_3syn10punctuatedINtB2_10PunctuatedNtNtB4_8generics14TypeParamBoundNtNtB4_5token4PlusE9pairs_mutCs8noNfkmVAKC_18tracing_attributes, symObjAddr: 0x3A8C, symBinAddr: 0x378C8, symSize: 0x74 }
  - { offset: 0x81CFD, size: 0x8, addend: 0x0, symName: __RNvMNtCs6IAuOt8vWmF_3syn10punctuatedINtB2_10PunctuatedNtNtB4_8generics14WherePredicateNtNtB4_5token5CommaE9pairs_mutCs8noNfkmVAKC_18tracing_attributes, symObjAddr: 0x3B00, symBinAddr: 0x3793C, symSize: 0x74 }
  - { offset: 0x81D72, size: 0x8, addend: 0x0, symName: __RNvMNtCs6IAuOt8vWmF_3syn10punctuatedINtB2_10PunctuatedNtNtB4_8lifetime8LifetimeNtNtB4_5token4PlusE9pairs_mutCs8noNfkmVAKC_18tracing_attributes, symObjAddr: 0x3B74, symBinAddr: 0x379B0, symSize: 0x74 }
  - { offset: 0x81DEB, size: 0x8, addend: 0x0, symName: __RNvMNtCs6IAuOt8vWmF_3syn10punctuatedINtB2_10PunctuatedNtNtCs8noNfkmVAKC_18tracing_attributes4attr5FieldNtNtB4_5token5CommaE10push_punctBU_, symObjAddr: 0x3BE8, symBinAddr: 0x37A24, symSize: 0x200 }
  - { offset: 0x81E69, size: 0x8, addend: 0x0, symName: __RNvMNtCs6IAuOt8vWmF_3syn10punctuatedINtB2_10PunctuatedNtNtCs8noNfkmVAKC_18tracing_attributes4attr5FieldNtNtB4_5token5CommaE10push_valueBU_, symObjAddr: 0x3DE8, symBinAddr: 0x37C24, symSize: 0x1B4 }
  - { offset: 0x81ED7, size: 0x8, addend: 0x0, symName: __RNvMNtCs6IAuOt8vWmF_3syn10punctuatedINtB2_10PunctuatedNtNtCs8noNfkmVAKC_18tracing_attributes4attr5FieldNtNtB4_5token5CommaE17empty_or_trailingBU_, symObjAddr: 0x3F9C, symBinAddr: 0x37DD8, symSize: 0x34 }
  - { offset: 0x81F23, size: 0x8, addend: 0x0, symName: __RNvMNtCs6IAuOt8vWmF_3syn10punctuatedINtB2_10PunctuatedNtNtCs8noNfkmVAKC_18tracing_attributes4attr5FieldNtNtB4_5token5CommaE21parse_terminated_withBU_, symObjAddr: 0x3FD0, symBinAddr: 0x37E0C, symSize: 0x370 }
  - { offset: 0x82028, size: 0x8, addend: 0x0, symName: __RNvMNtCs6IAuOt8vWmF_3syn10punctuatedINtB2_10PunctuatedNtNtCs8noNfkmVAKC_18tracing_attributes4attr5FieldNtNtB4_5token5CommaE3newBU_, symObjAddr: 0x4340, symBinAddr: 0x3817C, symSize: 0x54 }
  - { offset: 0x82089, size: 0x8, addend: 0x0, symName: __RNvMNtCs6IAuOt8vWmF_3syn10punctuatedINtB2_10PunctuatedNtNtCs8noNfkmVAKC_18tracing_attributes4attr5FieldNtNtB4_5token5CommaE4iterBU_, symObjAddr: 0x4394, symBinAddr: 0x381D0, symSize: 0xC8 }
  - { offset: 0x820DA, size: 0x8, addend: 0x0, symName: __RNvMNtCs6IAuOt8vWmF_3syn10punctuatedINtB2_10PunctuatedNtNtCs8noNfkmVAKC_18tracing_attributes4attr5FieldNtNtB4_5token5CommaE5pairsBU_, symObjAddr: 0x445C, symBinAddr: 0x38298, symSize: 0x74 }
  - { offset: 0x82163, size: 0x8, addend: 0x0, symName: __RNvMNtCs6IAuOt8vWmF_3syn10punctuatedINtB2_10PunctuatedNtNtCs8noNfkmVAKC_18tracing_attributes4attr5FieldNtNtB4_5token5CommaE8iter_mutBU_, symObjAddr: 0x44D0, symBinAddr: 0x3830C, symSize: 0xC8 }
  - { offset: 0x821DB, size: 0x8, addend: 0x0, symName: __RNvMsJ_NtCs6IAuOt8vWmF_3syn10punctuatedINtB5_4PairQNtNtB7_2ty4TypeQNtNtB7_5token5CommaE9value_mutCs8noNfkmVAKC_18tracing_attributes, symObjAddr: 0x4598, symBinAddr: 0x383D4, symSize: 0x74 }
  - { offset: 0x82248, size: 0x8, addend: 0x0, symName: __RNvMsJ_NtCs6IAuOt8vWmF_3syn10punctuatedINtB5_4PairQNtNtB7_2ty9BareFnArgQNtNtB7_5token5CommaE9value_mutCs8noNfkmVAKC_18tracing_attributes, symObjAddr: 0x460C, symBinAddr: 0x38448, symSize: 0x74 }
  - { offset: 0x822C2, size: 0x8, addend: 0x0, symName: __RNvMsJ_NtCs6IAuOt8vWmF_3syn10punctuatedINtB5_4PairQNtNtB7_3pat3PatQNtNtB7_5token2OrE9value_mutCs8noNfkmVAKC_18tracing_attributes, symObjAddr: 0x4680, symBinAddr: 0x384BC, symSize: 0x74 }
  - { offset: 0x82322, size: 0x8, addend: 0x0, symName: __RNvMsJ_NtCs6IAuOt8vWmF_3syn10punctuatedINtB5_4PairQNtNtB7_3pat3PatQNtNtB7_5token5CommaE9value_mutCs8noNfkmVAKC_18tracing_attributes, symObjAddr: 0x46F4, symBinAddr: 0x38530, symSize: 0x74 }
  - { offset: 0x8238F, size: 0x8, addend: 0x0, symName: __RNvMsJ_NtCs6IAuOt8vWmF_3syn10punctuatedINtB5_4PairQNtNtB7_3pat8FieldPatQNtNtB7_5token5CommaE9value_mutCs8noNfkmVAKC_18tracing_attributes, symObjAddr: 0x4768, symBinAddr: 0x385A4, symSize: 0x74 }
  - { offset: 0x823FC, size: 0x8, addend: 0x0, symName: __RNvMsJ_NtCs6IAuOt8vWmF_3syn10punctuatedINtB5_4PairQNtNtB7_4data5FieldQNtNtB7_5token5CommaE9value_mutCs8noNfkmVAKC_18tracing_attributes, symObjAddr: 0x47DC, symBinAddr: 0x38618, symSize: 0x74 }
  - { offset: 0x82469, size: 0x8, addend: 0x0, symName: __RNvMsJ_NtCs6IAuOt8vWmF_3syn10punctuatedINtB5_4PairQNtNtB7_4data7VariantQNtNtB7_5token5CommaE9value_mutCs8noNfkmVAKC_18tracing_attributes, symObjAddr: 0x4850, symBinAddr: 0x3868C, symSize: 0x74 }
  - { offset: 0x824D6, size: 0x8, addend: 0x0, symName: __RNvMsJ_NtCs6IAuOt8vWmF_3syn10punctuatedINtB5_4PairQNtNtB7_4expr10FieldValueQNtNtB7_5token5CommaE9value_mutCs8noNfkmVAKC_18tracing_attributes, symObjAddr: 0x48C4, symBinAddr: 0x38700, symSize: 0x74 }
  - { offset: 0x82543, size: 0x8, addend: 0x0, symName: __RNvMsJ_NtCs6IAuOt8vWmF_3syn10punctuatedINtB5_4PairQNtNtB7_4expr4ExprQNtNtB7_5token5CommaE9value_mutCs8noNfkmVAKC_18tracing_attributes, symObjAddr: 0x4938, symBinAddr: 0x38774, symSize: 0x74 }
  - { offset: 0x825B0, size: 0x8, addend: 0x0, symName: __RNvMsJ_NtCs6IAuOt8vWmF_3syn10punctuatedINtB5_4PairQNtNtB7_4item5FnArgQNtNtB7_5token5CommaE9value_mutCs8noNfkmVAKC_18tracing_attributes, symObjAddr: 0x49AC, symBinAddr: 0x387E8, symSize: 0x74 }
  - { offset: 0x8261D, size: 0x8, addend: 0x0, symName: __RNvMsJ_NtCs6IAuOt8vWmF_3syn10punctuatedINtB5_4PairQNtNtB7_4item7UseTreeQNtNtB7_5token5CommaE9value_mutCs8noNfkmVAKC_18tracing_attributes, symObjAddr: 0x4A20, symBinAddr: 0x3885C, symSize: 0x74 }
  - { offset: 0x82697, size: 0x8, addend: 0x0, symName: __RNvMsJ_NtCs6IAuOt8vWmF_3syn10punctuatedINtB5_4PairQNtNtB7_4path11PathSegmentQNtNtB7_5token7PathSepE9value_mutCs8noNfkmVAKC_18tracing_attributes, symObjAddr: 0x4A94, symBinAddr: 0x388D0, symSize: 0x74 }
  - { offset: 0x82704, size: 0x8, addend: 0x0, symName: __RNvMsJ_NtCs6IAuOt8vWmF_3syn10punctuatedINtB5_4PairQNtNtB7_4path15GenericArgumentQNtNtB7_5token5CommaE9value_mutCs8noNfkmVAKC_18tracing_attributes, symObjAddr: 0x4B08, symBinAddr: 0x38944, symSize: 0x74 }
  - { offset: 0x82771, size: 0x8, addend: 0x0, symName: __RNvMsJ_NtCs6IAuOt8vWmF_3syn10punctuatedINtB5_4PairQNtNtB7_8generics12GenericParamQNtNtB7_5token5CommaE9value_mutCs8noNfkmVAKC_18tracing_attributes, symObjAddr: 0x4B7C, symBinAddr: 0x389B8, symSize: 0x74 }
  - { offset: 0x827DE, size: 0x8, addend: 0x0, symName: __RNvMsJ_NtCs6IAuOt8vWmF_3syn10punctuatedINtB5_4PairQNtNtB7_8generics13CapturedParamQNtNtB7_5token5CommaE9value_mutCs8noNfkmVAKC_18tracing_attributes, symObjAddr: 0x4BF0, symBinAddr: 0x38A2C, symSize: 0x74 }
  - { offset: 0x82858, size: 0x8, addend: 0x0, symName: __RNvMsJ_NtCs6IAuOt8vWmF_3syn10punctuatedINtB5_4PairQNtNtB7_8generics14TypeParamBoundQNtNtB7_5token4PlusE9value_mutCs8noNfkmVAKC_18tracing_attributes, symObjAddr: 0x4C64, symBinAddr: 0x38AA0, symSize: 0x74 }
  - { offset: 0x828C5, size: 0x8, addend: 0x0, symName: __RNvMsJ_NtCs6IAuOt8vWmF_3syn10punctuatedINtB5_4PairQNtNtB7_8generics14WherePredicateQNtNtB7_5token5CommaE9value_mutCs8noNfkmVAKC_18tracing_attributes, symObjAddr: 0x4CD8, symBinAddr: 0x38B14, symSize: 0x74 }
  - { offset: 0x82932, size: 0x8, addend: 0x0, symName: __RNvMsJ_NtCs6IAuOt8vWmF_3syn10punctuatedINtB5_4PairQNtNtB7_8lifetime8LifetimeQNtNtB7_5token4PlusE9value_mutCs8noNfkmVAKC_18tracing_attributes, symObjAddr: 0x4D4C, symBinAddr: 0x38B88, symSize: 0x74 }
  - { offset: 0x82994, size: 0x8, addend: 0x0, symName: __RNvXNtCs2cqEZUIJimJ_5quote9to_tokensRINtNtCs6IAuOt8vWmF_3syn10punctuated10PunctuatedNtCs3cP53eQoTwO_11proc_macro25IdentNtNtBE_5token3DotENtB2_8ToTokens9to_tokensCs8noNfkmVAKC_18tracing_attributes, symObjAddr: 0x4DC0, symBinAddr: 0x38BFC, symSize: 0x40 }
  - { offset: 0x829D3, size: 0x8, addend: 0x0, symName: __RNvXNtCs2cqEZUIJimJ_5quote9to_tokensRINtNtCs6IAuOt8vWmF_3syn10punctuated10PunctuatedNtNtBE_8generics12GenericParamNtNtBE_5token5CommaENtB2_8ToTokens9to_tokensCs8noNfkmVAKC_18tracing_attributes, symObjAddr: 0x4E00, symBinAddr: 0x38C3C, symSize: 0x40 }
  - { offset: 0x832C5, size: 0x8, addend: 0x0, symName: __RINvXs3_NtNtCse1nGBsou5OW_5alloc3vec9into_iterINtB6_8IntoIterNtNtCs6IAuOt8vWmF_3syn4attr9AttributeENtNtNtNtCsfvfooZQ3Axs_4core4iter6traits8iterator8Iterator4folduNCINvNvB1z_9partition6extendBX_INtB8_3VecBX_ENCNvXs0_Cs8noNfkmVAKC_18tracing_attributesNtB3r_11MaybeItemFnINtNtB1H_7convert4FromNtNtB11_4item6ItemFnE4from0E0EB3r_, symObjAddr: 0x0, symBinAddr: 0x3B534, symSize: 0x130 }
  - { offset: 0x877D5, size: 0x8, addend: 0x0, symName: __RINvYINtNtNtCse1nGBsou5OW_5alloc3vec9into_iter8IntoIterNtNtCs6IAuOt8vWmF_3syn4attr9AttributeENtNtNtNtCsfvfooZQ3Axs_4core4iter6traits8iterator8Iterator9partitionINtB8_3VecBR_ENCNvXs0_Cs8noNfkmVAKC_18tracing_attributesNtB2U_11MaybeItemFnINtNtB1B_7convert4FromNtNtBV_4item6ItemFnE4from0EB2U_, symObjAddr: 0xA2C, symBinAddr: 0x3BF60, symSize: 0x144 }
  - { offset: 0x8785A, size: 0x8, addend: 0x0, symName: __RINvYINtNtNtCse1nGBsou5OW_5alloc3vec9into_iter8IntoIterTNtCs3cP53eQoTwO_11proc_macro25IdentNtNtCs6IAuOt8vWmF_3syn5token5CommaEENtNtNtNtCsfvfooZQ3Axs_4core4iter6traits8iterator8Iterator3mapBS_NCNvXs8_NtB1v_10punctuatedINtB3b_10PunctuatedBS_B1r_ENtNtB25_7collect12IntoIterator9into_iter0ECs8noNfkmVAKC_18tracing_attributes, symObjAddr: 0xB70, symBinAddr: 0x3C0A4, symSize: 0x1C }
  - { offset: 0x878C7, size: 0x8, addend: 0x0, symName: __RINvYINtNtNtCse1nGBsou5OW_5alloc3vec9into_iter8IntoIterTNtCs3cP53eQoTwO_11proc_macro25IdentTBS_NtNtCs8noNfkmVAKC_18tracing_attributes6expand10RecordTypeEEENtNtNtNtCsfvfooZQ3Axs_4core4iter6traits8iterator8Iterator3mapTBS_BS_ENCNCINvB1x_9gen_blockNtBU_11TokenStreamEs0_0s4_0EB1z_, symObjAddr: 0xB8C, symBinAddr: 0x3C0C0, symSize: 0x1C }
  - { offset: 0x87934, size: 0x8, addend: 0x0, symName: __RINvYINtNtNtCse1nGBsou5OW_5alloc3vec9into_iter8IntoIterTNtCs3cP53eQoTwO_11proc_macro25IdentTBS_NtNtCs8noNfkmVAKC_18tracing_attributes6expand10RecordTypeEEENtNtNtNtCsfvfooZQ3Axs_4core4iter6traits8iterator8Iterator3mapTBS_BS_ENCNCINvB1x_9gen_blockNtNtCs6IAuOt8vWmF_3syn4stmt5BlockEs0_0s4_0EB1z_, symObjAddr: 0xBA8, symBinAddr: 0x3C0DC, symSize: 0x1C }
  - { offset: 0x879A1, size: 0x8, addend: 0x0, symName: __RINvYINtNtNtCse1nGBsou5OW_5alloc3vec9into_iter8IntoIterTNtNtCs6IAuOt8vWmF_3syn3pat3PatNtNtBW_5token5CommaEENtNtNtNtCsfvfooZQ3Axs_4core4iter6traits8iterator8Iterator3mapBS_NCNvXs8_NtBW_10punctuatedINtB2R_10PunctuatedBS_B1m_ENtNtB1L_7collect12IntoIterator9into_iter0ECs8noNfkmVAKC_18tracing_attributes, symObjAddr: 0xBC4, symBinAddr: 0x3C0F8, symSize: 0x1C }
  - { offset: 0x87A0E, size: 0x8, addend: 0x0, symName: __RINvYINtNtNtCse1nGBsou5OW_5alloc3vec9into_iter8IntoIterTNtNtCs6IAuOt8vWmF_3syn3pat8FieldPatNtNtBW_5token5CommaEENtNtNtNtCsfvfooZQ3Axs_4core4iter6traits8iterator8Iterator3mapBS_NCNvXs8_NtBW_10punctuatedINtB2W_10PunctuatedBS_B1r_ENtNtB1Q_7collect12IntoIterator9into_iter0ECs8noNfkmVAKC_18tracing_attributes, symObjAddr: 0xBE0, symBinAddr: 0x3C114, symSize: 0x1C }
  - { offset: 0x87A7B, size: 0x8, addend: 0x0, symName: __RINvYINtNtNtCse1nGBsou5OW_5alloc3vec9into_iter8IntoIterTNtNtCs6IAuOt8vWmF_3syn4item5FnArgNtNtBW_5token5CommaEENtNtNtNtCsfvfooZQ3Axs_4core4iter6traits8iterator8Iterator3mapBS_NCNvXs8_NtBW_10punctuatedINtB2U_10PunctuatedBS_B1p_ENtNtB1O_7collect12IntoIterator9into_iter0ECs8noNfkmVAKC_18tracing_attributes, symObjAddr: 0xBFC, symBinAddr: 0x3C130, symSize: 0x1C }
  - { offset: 0x87D1E, size: 0x8, addend: 0x0, symName: __RNvYINtNtNtCse1nGBsou5OW_5alloc3vec9into_iter8IntoIterNtCs3cP53eQoTwO_11proc_macro25IdentENtNtNtNtCsfvfooZQ3Axs_4core4iter6traits10exact_size17ExactSizeIterator3lenCs8noNfkmVAKC_18tracing_attributes, symObjAddr: 0x2040, symBinAddr: 0x3D574, symSize: 0xF4 }
  - { offset: 0x87E11, size: 0x8, addend: 0x0, symName: __RNvYINtNtNtCse1nGBsou5OW_5alloc3vec9into_iter8IntoIterNtNtCs6IAuOt8vWmF_3syn3pat3PatENtNtNtNtCsfvfooZQ3Axs_4core4iter6traits10exact_size17ExactSizeIterator3lenCs8noNfkmVAKC_18tracing_attributes, symObjAddr: 0x2134, symBinAddr: 0x3D668, symSize: 0xF4 }
  - { offset: 0x87F04, size: 0x8, addend: 0x0, symName: __RNvYINtNtNtCse1nGBsou5OW_5alloc3vec9into_iter8IntoIterNtNtCs6IAuOt8vWmF_3syn3pat8FieldPatENtNtNtNtCsfvfooZQ3Axs_4core4iter6traits10exact_size17ExactSizeIterator3lenCs8noNfkmVAKC_18tracing_attributes, symObjAddr: 0x2228, symBinAddr: 0x3D75C, symSize: 0xF4 }
  - { offset: 0x87FF7, size: 0x8, addend: 0x0, symName: __RNvYINtNtNtCse1nGBsou5OW_5alloc3vec9into_iter8IntoIterNtNtCs6IAuOt8vWmF_3syn4item5FnArgENtNtNtNtCsfvfooZQ3Axs_4core4iter6traits10exact_size17ExactSizeIterator3lenCs8noNfkmVAKC_18tracing_attributes, symObjAddr: 0x231C, symBinAddr: 0x3D850, symSize: 0xF4 }
  - { offset: 0x880EA, size: 0x8, addend: 0x0, symName: __RNvYINtNtNtCse1nGBsou5OW_5alloc3vec9into_iter8IntoIterNtNtCs6IAuOt8vWmF_3syn4stmt4StmtENtNtNtNtCsfvfooZQ3Axs_4core4iter6traits10exact_size17ExactSizeIterator3lenCs8noNfkmVAKC_18tracing_attributes, symObjAddr: 0x2410, symBinAddr: 0x3D944, symSize: 0xF4 }
  - { offset: 0x881DD, size: 0x8, addend: 0x0, symName: __RNvYINtNtNtCse1nGBsou5OW_5alloc3vec9into_iter8IntoIterTNtCs3cP53eQoTwO_11proc_macro25IdentNtNtCs6IAuOt8vWmF_3syn5token5CommaEENtNtNtNtCsfvfooZQ3Axs_4core4iter6traits10exact_size17ExactSizeIterator3lenCs8noNfkmVAKC_18tracing_attributes, symObjAddr: 0x2504, symBinAddr: 0x3DA38, symSize: 0xF4 }
  - { offset: 0x882D0, size: 0x8, addend: 0x0, symName: __RNvYINtNtNtCse1nGBsou5OW_5alloc3vec9into_iter8IntoIterTNtCs3cP53eQoTwO_11proc_macro25IdentTBR_NtNtCs8noNfkmVAKC_18tracing_attributes6expand10RecordTypeEEENtNtNtNtCsfvfooZQ3Axs_4core4iter6traits10exact_size17ExactSizeIterator3lenB1y_, symObjAddr: 0x25F8, symBinAddr: 0x3DB2C, symSize: 0xF4 }
  - { offset: 0x883C3, size: 0x8, addend: 0x0, symName: __RNvYINtNtNtCse1nGBsou5OW_5alloc3vec9into_iter8IntoIterTNtNtCs6IAuOt8vWmF_3syn3pat3PatNtNtBV_5token5CommaEENtNtNtNtCsfvfooZQ3Axs_4core4iter6traits10exact_size17ExactSizeIterator3lenCs8noNfkmVAKC_18tracing_attributes, symObjAddr: 0x26EC, symBinAddr: 0x3DC20, symSize: 0xF4 }
  - { offset: 0x884B6, size: 0x8, addend: 0x0, symName: __RNvYINtNtNtCse1nGBsou5OW_5alloc3vec9into_iter8IntoIterTNtNtCs6IAuOt8vWmF_3syn3pat8FieldPatNtNtBV_5token5CommaEENtNtNtNtCsfvfooZQ3Axs_4core4iter6traits10exact_size17ExactSizeIterator3lenCs8noNfkmVAKC_18tracing_attributes, symObjAddr: 0x27E0, symBinAddr: 0x3DD14, symSize: 0xF4 }
  - { offset: 0x885A9, size: 0x8, addend: 0x0, symName: __RNvYINtNtNtCse1nGBsou5OW_5alloc3vec9into_iter8IntoIterTNtNtCs6IAuOt8vWmF_3syn4item5FnArgNtNtBV_5token5CommaEENtNtNtNtCsfvfooZQ3Axs_4core4iter6traits10exact_size17ExactSizeIterator3lenCs8noNfkmVAKC_18tracing_attributes, symObjAddr: 0x28D4, symBinAddr: 0x3DE08, symSize: 0xF4 }
  - { offset: 0x8DD5F, size: 0x8, addend: 0x0, symName: __RINvXs3_NtNtCse1nGBsou5OW_5alloc3vec9into_iterINtB6_8IntoIterNtNtCs6IAuOt8vWmF_3syn4attr9AttributeENtNtNtNtCsfvfooZQ3Axs_4core4iter6traits8iterator8Iterator4folduNCINvNvB1z_9partition6extendBX_INtB8_3VecBX_ENCNvXs0_Cs8noNfkmVAKC_18tracing_attributesNtB3r_11MaybeItemFnINtNtB1H_7convert4FromNtNtB11_4item6ItemFnE4from0E0EB3r_, symObjAddr: 0x0, symBinAddr: 0x3B534, symSize: 0x130 }
  - { offset: 0x8DF2F, size: 0x8, addend: 0x0, symName: __RINvXs3_NtNtCse1nGBsou5OW_5alloc3vec9into_iterINtB6_8IntoIterTNtCs3cP53eQoTwO_11proc_macro25IdentNtNtCs6IAuOt8vWmF_3syn5token5CommaEENtNtNtNtCsfvfooZQ3Axs_4core4iter6traits8iterator8Iterator4folduNCINvNtNtB2d_8adapters3map8map_foldBX_BY_uNCNvXs8_NtB1B_10punctuatedINtB3W_10PunctuatedBY_B1x_ENtNtB2b_7collect12IntoIterator9into_iter0NCINvNvB27_8for_each4callBY_NCINvMsi_B8_INtB8_3VecBY_E14extend_trustedINtB3d_3MapBI_B3O_EE0E0E0ECs8noNfkmVAKC_18tracing_attributes, symObjAddr: 0x130, symBinAddr: 0x3B664, symSize: 0x138 }
  - { offset: 0x8E0FD, size: 0x8, addend: 0x0, symName: __RINvXs3_NtNtCse1nGBsou5OW_5alloc3vec9into_iterINtB6_8IntoIterTNtCs3cP53eQoTwO_11proc_macro25IdentTBY_NtNtCs8noNfkmVAKC_18tracing_attributes6expand10RecordTypeEEENtNtNtNtCsfvfooZQ3Axs_4core4iter6traits8iterator8Iterator8try_foldINtNtB8_13in_place_drop11InPlaceDropTBY_BY_EENCINvNtNtB2F_8adapters3map12map_try_foldBX_B4d_B3D_INtNtB2H_6result6ResultB3D_zENCNCINvB1D_9gen_blockNtB10_11TokenStreamEs0_0s4_0NCINvNtB8_16in_place_collect24write_in_place_with_dropB4d_E0E0B5b_EB1F_, symObjAddr: 0x268, symBinAddr: 0x3B79C, symSize: 0x1F0 }
  - { offset: 0x8E2DF, size: 0x8, addend: 0x0, symName: __RINvXs3_NtNtCse1nGBsou5OW_5alloc3vec9into_iterINtB6_8IntoIterTNtCs3cP53eQoTwO_11proc_macro25IdentTBY_NtNtCs8noNfkmVAKC_18tracing_attributes6expand10RecordTypeEEENtNtNtNtCsfvfooZQ3Axs_4core4iter6traits8iterator8Iterator8try_foldINtNtB8_13in_place_drop11InPlaceDropTBY_BY_EENCINvNtNtB2F_8adapters3map12map_try_foldBX_B4d_B3D_INtNtB2H_6result6ResultB3D_zENCNCINvB1D_9gen_blockNtNtCs6IAuOt8vWmF_3syn4stmt5BlockEs0_0s4_0NCINvNtB8_16in_place_collect24write_in_place_with_dropB4d_E0E0B5b_EB1F_, symObjAddr: 0x458, symBinAddr: 0x3B98C, symSize: 0x1F0 }
  - { offset: 0x8E4C1, size: 0x8, addend: 0x0, symName: __RINvXs3_NtNtCse1nGBsou5OW_5alloc3vec9into_iterINtB6_8IntoIterTNtNtCs6IAuOt8vWmF_3syn3pat3PatNtNtB12_5token5CommaEENtNtNtNtCsfvfooZQ3Axs_4core4iter6traits8iterator8Iterator4folduNCINvNtNtB1U_8adapters3map8map_foldBX_BY_uNCNvXs8_NtB12_10punctuatedINtB3D_10PunctuatedBY_B1s_ENtNtB1S_7collect12IntoIterator9into_iter0NCINvNvB1O_8for_each4callBY_NCINvMsi_B8_INtB8_3VecBY_E14extend_trustedINtB2U_3MapBI_B3v_EE0E0E0ECs8noNfkmVAKC_18tracing_attributes, symObjAddr: 0x648, symBinAddr: 0x3BB7C, symSize: 0x14C }
  - { offset: 0x8E691, size: 0x8, addend: 0x0, symName: __RINvXs3_NtNtCse1nGBsou5OW_5alloc3vec9into_iterINtB6_8IntoIterTNtNtCs6IAuOt8vWmF_3syn3pat8FieldPatNtNtB12_5token5CommaEENtNtNtNtCsfvfooZQ3Axs_4core4iter6traits8iterator8Iterator4folduNCINvNtNtB1Z_8adapters3map8map_foldBX_BY_uNCNvXs8_NtB12_10punctuatedINtB3I_10PunctuatedBY_B1x_ENtNtB1X_7collect12IntoIterator9into_iter0NCINvNvB1T_8for_each4callBY_NCINvMsi_B8_INtB8_3VecBY_E14extend_trustedINtB2Z_3MapBI_B3A_EE0E0E0ECs8noNfkmVAKC_18tracing_attributes, symObjAddr: 0x794, symBinAddr: 0x3BCC8, symSize: 0x14C }
  - { offset: 0x8E861, size: 0x8, addend: 0x0, symName: __RINvXs3_NtNtCse1nGBsou5OW_5alloc3vec9into_iterINtB6_8IntoIterTNtNtCs6IAuOt8vWmF_3syn4item5FnArgNtNtB12_5token5CommaEENtNtNtNtCsfvfooZQ3Axs_4core4iter6traits8iterator8Iterator4folduNCINvNtNtB1X_8adapters3map8map_foldBX_BY_uNCNvXs8_NtB12_10punctuatedINtB3G_10PunctuatedBY_B1v_ENtNtB1V_7collect12IntoIterator9into_iter0NCINvNvB1R_8for_each4callBY_NCINvMsi_B8_INtB8_3VecBY_E14extend_trustedINtB2X_3MapBI_B3y_EE0E0E0ECs8noNfkmVAKC_18tracing_attributes, symObjAddr: 0x8E0, symBinAddr: 0x3BE14, symSize: 0x14C }
  - { offset: 0x8EA31, size: 0x8, addend: 0x0, symName: __RNvXs3_NtNtCse1nGBsou5OW_5alloc3vec9into_iterINtB5_8IntoIterNtCs3cP53eQoTwO_11proc_macro25IdentENtNtNtNtCsfvfooZQ3Axs_4core4iter6traits8iterator8Iterator4nextCs8noNfkmVAKC_18tracing_attributes, symObjAddr: 0x119C, symBinAddr: 0x3C6D0, symSize: 0xD0 }
  - { offset: 0x8EBAC, size: 0x8, addend: 0x0, symName: __RNvXs3_NtNtCse1nGBsou5OW_5alloc3vec9into_iterINtB5_8IntoIterNtCs3cP53eQoTwO_11proc_macro25IdentENtNtNtNtCsfvfooZQ3Axs_4core4iter6traits8iterator8Iterator9size_hintCs8noNfkmVAKC_18tracing_attributes, symObjAddr: 0x126C, symBinAddr: 0x3C7A0, symSize: 0x6C }
  - { offset: 0x8EC07, size: 0x8, addend: 0x0, symName: __RNvXs3_NtNtCse1nGBsou5OW_5alloc3vec9into_iterINtB5_8IntoIterNtNtCs6IAuOt8vWmF_3syn3pat3PatENtNtNtNtCsfvfooZQ3Axs_4core4iter6traits8iterator8Iterator4nextCs8noNfkmVAKC_18tracing_attributes, symObjAddr: 0x12D8, symBinAddr: 0x3C80C, symSize: 0xE8 }
  - { offset: 0x8ED7B, size: 0x8, addend: 0x0, symName: __RNvXs3_NtNtCse1nGBsou5OW_5alloc3vec9into_iterINtB5_8IntoIterNtNtCs6IAuOt8vWmF_3syn3pat3PatENtNtNtNtCsfvfooZQ3Axs_4core4iter6traits8iterator8Iterator9size_hintCs8noNfkmVAKC_18tracing_attributes, symObjAddr: 0x13C0, symBinAddr: 0x3C8F4, symSize: 0x6C }
  - { offset: 0x8EDD6, size: 0x8, addend: 0x0, symName: __RNvXs3_NtNtCse1nGBsou5OW_5alloc3vec9into_iterINtB5_8IntoIterNtNtCs6IAuOt8vWmF_3syn3pat8FieldPatENtNtNtNtCsfvfooZQ3Axs_4core4iter6traits8iterator8Iterator4nextCs8noNfkmVAKC_18tracing_attributes, symObjAddr: 0x142C, symBinAddr: 0x3C960, symSize: 0xDC }
  - { offset: 0x8EF48, size: 0x8, addend: 0x0, symName: __RNvXs3_NtNtCse1nGBsou5OW_5alloc3vec9into_iterINtB5_8IntoIterNtNtCs6IAuOt8vWmF_3syn3pat8FieldPatENtNtNtNtCsfvfooZQ3Axs_4core4iter6traits8iterator8Iterator9size_hintCs8noNfkmVAKC_18tracing_attributes, symObjAddr: 0x1508, symBinAddr: 0x3CA3C, symSize: 0x6C }
  - { offset: 0x8EFA3, size: 0x8, addend: 0x0, symName: __RNvXs3_NtNtCse1nGBsou5OW_5alloc3vec9into_iterINtB5_8IntoIterNtNtCs6IAuOt8vWmF_3syn4item5FnArgENtNtNtNtCsfvfooZQ3Axs_4core4iter6traits8iterator8Iterator4nextCs8noNfkmVAKC_18tracing_attributes, symObjAddr: 0x1574, symBinAddr: 0x3CAA8, symSize: 0xDC }
  - { offset: 0x8F115, size: 0x8, addend: 0x0, symName: __RNvXs3_NtNtCse1nGBsou5OW_5alloc3vec9into_iterINtB5_8IntoIterNtNtCs6IAuOt8vWmF_3syn4item5FnArgENtNtNtNtCsfvfooZQ3Axs_4core4iter6traits8iterator8Iterator9size_hintCs8noNfkmVAKC_18tracing_attributes, symObjAddr: 0x1650, symBinAddr: 0x3CB84, symSize: 0x6C }
  - { offset: 0x8F170, size: 0x8, addend: 0x0, symName: __RNvXs3_NtNtCse1nGBsou5OW_5alloc3vec9into_iterINtB5_8IntoIterNtNtCs6IAuOt8vWmF_3syn4stmt4StmtENtNtNtNtCsfvfooZQ3Axs_4core4iter6traits8iterator8Iterator4nextCs8noNfkmVAKC_18tracing_attributes, symObjAddr: 0x16BC, symBinAddr: 0x3CBF0, symSize: 0xE4 }
  - { offset: 0x8F2E4, size: 0x8, addend: 0x0, symName: __RNvXs3_NtNtCse1nGBsou5OW_5alloc3vec9into_iterINtB5_8IntoIterNtNtCs6IAuOt8vWmF_3syn4stmt4StmtENtNtNtNtCsfvfooZQ3Axs_4core4iter6traits8iterator8Iterator9size_hintCs8noNfkmVAKC_18tracing_attributes, symObjAddr: 0x17A0, symBinAddr: 0x3CCD4, symSize: 0x6C }
  - { offset: 0x8F33F, size: 0x8, addend: 0x0, symName: __RNvXs3_NtNtCse1nGBsou5OW_5alloc3vec9into_iterINtB5_8IntoIterTNtCs3cP53eQoTwO_11proc_macro25IdentNtNtCs6IAuOt8vWmF_3syn5token5CommaEENtNtNtNtCsfvfooZQ3Axs_4core4iter6traits8iterator8Iterator9size_hintCs8noNfkmVAKC_18tracing_attributes, symObjAddr: 0x180C, symBinAddr: 0x3CD40, symSize: 0x6C }
  - { offset: 0x8F39A, size: 0x8, addend: 0x0, symName: __RNvXs3_NtNtCse1nGBsou5OW_5alloc3vec9into_iterINtB5_8IntoIterTNtCs3cP53eQoTwO_11proc_macro25IdentTBX_NtNtCs8noNfkmVAKC_18tracing_attributes6expand10RecordTypeEEENtNtNtNtCsfvfooZQ3Axs_4core4iter6traits8iterator8Iterator9size_hintB1E_, symObjAddr: 0x1878, symBinAddr: 0x3CDAC, symSize: 0x6C }
  - { offset: 0x8F3F5, size: 0x8, addend: 0x0, symName: __RNvXs3_NtNtCse1nGBsou5OW_5alloc3vec9into_iterINtB5_8IntoIterTNtNtCs6IAuOt8vWmF_3syn3pat3PatNtNtB11_5token5CommaEENtNtNtNtCsfvfooZQ3Axs_4core4iter6traits8iterator8Iterator9size_hintCs8noNfkmVAKC_18tracing_attributes, symObjAddr: 0x18E4, symBinAddr: 0x3CE18, symSize: 0x6C }
  - { offset: 0x8F450, size: 0x8, addend: 0x0, symName: __RNvXs3_NtNtCse1nGBsou5OW_5alloc3vec9into_iterINtB5_8IntoIterTNtNtCs6IAuOt8vWmF_3syn3pat8FieldPatNtNtB11_5token5CommaEENtNtNtNtCsfvfooZQ3Axs_4core4iter6traits8iterator8Iterator9size_hintCs8noNfkmVAKC_18tracing_attributes, symObjAddr: 0x1950, symBinAddr: 0x3CE84, symSize: 0x6C }
  - { offset: 0x8F4AB, size: 0x8, addend: 0x0, symName: __RNvXs3_NtNtCse1nGBsou5OW_5alloc3vec9into_iterINtB5_8IntoIterTNtNtCs6IAuOt8vWmF_3syn4item5FnArgNtNtB11_5token5CommaEENtNtNtNtCsfvfooZQ3Axs_4core4iter6traits8iterator8Iterator9size_hintCs8noNfkmVAKC_18tracing_attributes, symObjAddr: 0x19BC, symBinAddr: 0x3CEF0, symSize: 0x6C }
  - { offset: 0x8F7EB, size: 0x8, addend: 0x0, symName: __RNvXNvXsd_NtNtCse1nGBsou5OW_5alloc3vec9into_iterINtB8_8IntoIterppENtNtNtCsfvfooZQ3Axs_4core3ops4drop4Drop4dropINtB2_9DropGuardNtCs3cP53eQoTwO_11proc_macro25IdentNtNtBc_5alloc6GlobalEB12_4dropCs8noNfkmVAKC_18tracing_attributes, symObjAddr: 0xCC4, symBinAddr: 0x3C1F8, symSize: 0x7C }
  - { offset: 0x8F8F8, size: 0x8, addend: 0x0, symName: __RNvXNvXsd_NtNtCse1nGBsou5OW_5alloc3vec9into_iterINtB8_8IntoIterppENtNtNtCsfvfooZQ3Axs_4core3ops4drop4Drop4dropINtB2_9DropGuardNtNtCs6IAuOt8vWmF_3syn3pat3PatNtNtBc_5alloc6GlobalEB12_4dropCs8noNfkmVAKC_18tracing_attributes, symObjAddr: 0xD40, symBinAddr: 0x3C274, symSize: 0x7C }
  - { offset: 0x8FA05, size: 0x8, addend: 0x0, symName: __RNvXNvXsd_NtNtCse1nGBsou5OW_5alloc3vec9into_iterINtB8_8IntoIterppENtNtNtCsfvfooZQ3Axs_4core3ops4drop4Drop4dropINtB2_9DropGuardNtNtCs6IAuOt8vWmF_3syn3pat8FieldPatNtNtBc_5alloc6GlobalEB12_4dropCs8noNfkmVAKC_18tracing_attributes, symObjAddr: 0xDBC, symBinAddr: 0x3C2F0, symSize: 0x7C }
  - { offset: 0x8FB12, size: 0x8, addend: 0x0, symName: __RNvXNvXsd_NtNtCse1nGBsou5OW_5alloc3vec9into_iterINtB8_8IntoIterppENtNtNtCsfvfooZQ3Axs_4core3ops4drop4Drop4dropINtB2_9DropGuardNtNtCs6IAuOt8vWmF_3syn4item5FnArgNtNtBc_5alloc6GlobalEB12_4dropCs8noNfkmVAKC_18tracing_attributes, symObjAddr: 0xE38, symBinAddr: 0x3C36C, symSize: 0x7C }
  - { offset: 0x8FC1F, size: 0x8, addend: 0x0, symName: __RNvXNvXsd_NtNtCse1nGBsou5OW_5alloc3vec9into_iterINtB8_8IntoIterppENtNtNtCsfvfooZQ3Axs_4core3ops4drop4Drop4dropINtB2_9DropGuardNtNtCs6IAuOt8vWmF_3syn4stmt4StmtNtNtBc_5alloc6GlobalEB12_4dropCs8noNfkmVAKC_18tracing_attributes, symObjAddr: 0xEB4, symBinAddr: 0x3C3E8, symSize: 0x7C }
  - { offset: 0x8FD2C, size: 0x8, addend: 0x0, symName: __RNvXNvXsd_NtNtCse1nGBsou5OW_5alloc3vec9into_iterINtB8_8IntoIterppENtNtNtCsfvfooZQ3Axs_4core3ops4drop4Drop4dropINtB2_9DropGuardTNtCs3cP53eQoTwO_11proc_macro25IdentNtNtCs6IAuOt8vWmF_3syn5token5CommaENtNtBc_5alloc6GlobalEB12_4dropCs8noNfkmVAKC_18tracing_attributes, symObjAddr: 0xF30, symBinAddr: 0x3C464, symSize: 0x7C }
  - { offset: 0x8FE39, size: 0x8, addend: 0x0, symName: __RNvXNvXsd_NtNtCse1nGBsou5OW_5alloc3vec9into_iterINtB8_8IntoIterppENtNtNtCsfvfooZQ3Axs_4core3ops4drop4Drop4dropINtB2_9DropGuardTNtCs3cP53eQoTwO_11proc_macro25IdentTB21_NtNtCs8noNfkmVAKC_18tracing_attributes6expand10RecordTypeEENtNtBc_5alloc6GlobalEB12_4dropB2J_, symObjAddr: 0xFAC, symBinAddr: 0x3C4E0, symSize: 0x7C }
  - { offset: 0x8FF46, size: 0x8, addend: 0x0, symName: __RNvXNvXsd_NtNtCse1nGBsou5OW_5alloc3vec9into_iterINtB8_8IntoIterppENtNtNtCsfvfooZQ3Axs_4core3ops4drop4Drop4dropINtB2_9DropGuardTNtNtCs6IAuOt8vWmF_3syn3pat3PatNtNtB25_5token5CommaENtNtBc_5alloc6GlobalEB12_4dropCs8noNfkmVAKC_18tracing_attributes, symObjAddr: 0x1028, symBinAddr: 0x3C55C, symSize: 0x7C }
  - { offset: 0x90053, size: 0x8, addend: 0x0, symName: __RNvXNvXsd_NtNtCse1nGBsou5OW_5alloc3vec9into_iterINtB8_8IntoIterppENtNtNtCsfvfooZQ3Axs_4core3ops4drop4Drop4dropINtB2_9DropGuardTNtNtCs6IAuOt8vWmF_3syn3pat8FieldPatNtNtB25_5token5CommaENtNtBc_5alloc6GlobalEB12_4dropCs8noNfkmVAKC_18tracing_attributes, symObjAddr: 0x10A4, symBinAddr: 0x3C5D8, symSize: 0x7C }
  - { offset: 0x90160, size: 0x8, addend: 0x0, symName: __RNvXNvXsd_NtNtCse1nGBsou5OW_5alloc3vec9into_iterINtB8_8IntoIterppENtNtNtCsfvfooZQ3Axs_4core3ops4drop4Drop4dropINtB2_9DropGuardTNtNtCs6IAuOt8vWmF_3syn4item5FnArgNtNtB25_5token5CommaENtNtBc_5alloc6GlobalEB12_4dropCs8noNfkmVAKC_18tracing_attributes, symObjAddr: 0x1120, symBinAddr: 0x3C654, symSize: 0x7C }
  - { offset: 0x903F5, size: 0x8, addend: 0x0, symName: __RNvXsd_NtNtCse1nGBsou5OW_5alloc3vec9into_iterINtB5_8IntoIterNtCs3cP53eQoTwO_11proc_macro25IdentENtNtNtCsfvfooZQ3Axs_4core3ops4drop4Drop4dropCs8noNfkmVAKC_18tracing_attributes, symObjAddr: 0x1A28, symBinAddr: 0x3CF5C, symSize: 0x98 }
  - { offset: 0x9048F, size: 0x8, addend: 0x0, symName: __RNvXsd_NtNtCse1nGBsou5OW_5alloc3vec9into_iterINtB5_8IntoIterNtNtCs6IAuOt8vWmF_3syn3pat3PatENtNtNtCsfvfooZQ3Axs_4core3ops4drop4Drop4dropCs8noNfkmVAKC_18tracing_attributes, symObjAddr: 0x1AC0, symBinAddr: 0x3CFF4, symSize: 0x98 }
  - { offset: 0x90529, size: 0x8, addend: 0x0, symName: __RNvXsd_NtNtCse1nGBsou5OW_5alloc3vec9into_iterINtB5_8IntoIterNtNtCs6IAuOt8vWmF_3syn3pat8FieldPatENtNtNtCsfvfooZQ3Axs_4core3ops4drop4Drop4dropCs8noNfkmVAKC_18tracing_attributes, symObjAddr: 0x1B58, symBinAddr: 0x3D08C, symSize: 0x98 }
  - { offset: 0x905C3, size: 0x8, addend: 0x0, symName: __RNvXsd_NtNtCse1nGBsou5OW_5alloc3vec9into_iterINtB5_8IntoIterNtNtCs6IAuOt8vWmF_3syn4item5FnArgENtNtNtCsfvfooZQ3Axs_4core3ops4drop4Drop4dropCs8noNfkmVAKC_18tracing_attributes, symObjAddr: 0x1BF0, symBinAddr: 0x3D124, symSize: 0x98 }
  - { offset: 0x9065D, size: 0x8, addend: 0x0, symName: __RNvXsd_NtNtCse1nGBsou5OW_5alloc3vec9into_iterINtB5_8IntoIterNtNtCs6IAuOt8vWmF_3syn4stmt4StmtENtNtNtCsfvfooZQ3Axs_4core3ops4drop4Drop4dropCs8noNfkmVAKC_18tracing_attributes, symObjAddr: 0x1C88, symBinAddr: 0x3D1BC, symSize: 0x98 }
  - { offset: 0x906F7, size: 0x8, addend: 0x0, symName: __RNvXsd_NtNtCse1nGBsou5OW_5alloc3vec9into_iterINtB5_8IntoIterTNtCs3cP53eQoTwO_11proc_macro25IdentNtNtCs6IAuOt8vWmF_3syn5token5CommaEENtNtNtCsfvfooZQ3Axs_4core3ops4drop4Drop4dropCs8noNfkmVAKC_18tracing_attributes, symObjAddr: 0x1D20, symBinAddr: 0x3D254, symSize: 0x98 }
  - { offset: 0x90791, size: 0x8, addend: 0x0, symName: __RNvXsd_NtNtCse1nGBsou5OW_5alloc3vec9into_iterINtB5_8IntoIterTNtCs3cP53eQoTwO_11proc_macro25IdentTBX_NtNtCs8noNfkmVAKC_18tracing_attributes6expand10RecordTypeEEENtNtNtCsfvfooZQ3Axs_4core3ops4drop4Drop4dropB1E_, symObjAddr: 0x1DB8, symBinAddr: 0x3D2EC, symSize: 0x98 }
  - { offset: 0x9082B, size: 0x8, addend: 0x0, symName: __RNvXsd_NtNtCse1nGBsou5OW_5alloc3vec9into_iterINtB5_8IntoIterTNtNtCs6IAuOt8vWmF_3syn3pat3PatNtNtB11_5token5CommaEENtNtNtCsfvfooZQ3Axs_4core3ops4drop4Drop4dropCs8noNfkmVAKC_18tracing_attributes, symObjAddr: 0x1E50, symBinAddr: 0x3D384, symSize: 0x98 }
  - { offset: 0x908C5, size: 0x8, addend: 0x0, symName: __RNvXsd_NtNtCse1nGBsou5OW_5alloc3vec9into_iterINtB5_8IntoIterTNtNtCs6IAuOt8vWmF_3syn3pat8FieldPatNtNtB11_5token5CommaEENtNtNtCsfvfooZQ3Axs_4core3ops4drop4Drop4dropCs8noNfkmVAKC_18tracing_attributes, symObjAddr: 0x1EE8, symBinAddr: 0x3D41C, symSize: 0x98 }
  - { offset: 0x9095F, size: 0x8, addend: 0x0, symName: __RNvXsd_NtNtCse1nGBsou5OW_5alloc3vec9into_iterINtB5_8IntoIterTNtNtCs6IAuOt8vWmF_3syn4item5FnArgNtNtB11_5token5CommaEENtNtNtCsfvfooZQ3Axs_4core3ops4drop4Drop4dropCs8noNfkmVAKC_18tracing_attributes, symObjAddr: 0x1F80, symBinAddr: 0x3D4B4, symSize: 0x98 }
  - { offset: 0x90CB1, size: 0x8, addend: 0x0, symName: __RNvXsf_NtNtCse1nGBsou5OW_5alloc3vec9into_iterINtB5_8IntoIterTNtCs3cP53eQoTwO_11proc_macro25IdentTBX_NtNtCs8noNfkmVAKC_18tracing_attributes6expand10RecordTypeEEENtNtNtCsfvfooZQ3Axs_4core4iter8adapters10SourceIter8as_innerB1E_, symObjAddr: 0x2018, symBinAddr: 0x3D54C, symSize: 0x14 }
  - { offset: 0x90CF7, size: 0x8, addend: 0x0, symName: __RNvXsg_NtNtCse1nGBsou5OW_5alloc3vec9into_iterINtB5_8IntoIterTNtCs3cP53eQoTwO_11proc_macro25IdentTBX_NtNtCs8noNfkmVAKC_18tracing_attributes6expand10RecordTypeEEENtNtB7_16in_place_collect13AsVecIntoIter12as_into_iterB1E_, symObjAddr: 0x202C, symBinAddr: 0x3D560, symSize: 0x14 }
  - { offset: 0x92452, size: 0x8, addend: 0x0, symName: __RNvMs_NtNtCse1nGBsou5OW_5alloc3vec9into_iterINtB4_8IntoIterTNtCs3cP53eQoTwO_11proc_macro25IdentTBW_NtNtCs8noNfkmVAKC_18tracing_attributes6expand10RecordTypeEEE32forget_allocation_drop_remainingB1D_, symObjAddr: 0xC18, symBinAddr: 0x3C14C, symSize: 0xAC }
  - { offset: 0x934A0, size: 0x8, addend: 0x0, symName: __RINvMNtCsfvfooZQ3Axs_4core6optionINtB3_6OptionINtNtCs6IAuOt8vWmF_3syn10punctuated4PairQNtNtBN_2ty4TypeQNtNtBN_5token5CommaEE7or_elseNCNvXsg_BL_INtBL_8PairsMutB1n_B1D_ENtNtNtNtB5_4iter6traits8iterator8Iterator4nexts_0ECs8noNfkmVAKC_18tracing_attributes, symObjAddr: 0x0, symBinAddr: 0x3DEFC, symSize: 0xB4 }
  - { offset: 0x9386D, size: 0x8, addend: 0x0, symName: __RNvXsR_NtCs9i5KxIbZ5ph_10proc_macro6bridgeINtNtCsfvfooZQ3Axs_4core6option6OptionNtNtB5_6client11TokenStreamEINtNtB5_3rpc6EncodeuE6encodeCs8noNfkmVAKC_18tracing_attributes, symObjAddr: 0x4C98, symBinAddr: 0x42B94, symSize: 0xCC }
  - { offset: 0x93913, size: 0x8, addend: 0x0, symName: __RNvXsR_NtCs9i5KxIbZ5ph_10proc_macro6bridgeINtNtCsfvfooZQ3Axs_4core6option6OptionReEINtNtB5_3rpc6EncodeuE6encodeCs8noNfkmVAKC_18tracing_attributes, symObjAddr: 0x4D64, symBinAddr: 0x42C60, symSize: 0xD8 }
  - { offset: 0x9A639, size: 0x8, addend: 0x0, symName: __RNvXs3_NtCsfvfooZQ3Axs_4core6optionINtB5_6OptionINtNtCse1nGBsou5OW_5alloc5boxed3BoxNtCs3cP53eQoTwO_11proc_macro25IdentEENtNtB7_5clone5Clone5cloneCs8noNfkmVAKC_18tracing_attributes, symObjAddr: 0x4598, symBinAddr: 0x42494, symSize: 0x5C }
  - { offset: 0x9A68E, size: 0x8, addend: 0x0, symName: __RNvXs3_NtCsfvfooZQ3Axs_4core6optionINtB5_6OptionINtNtCse1nGBsou5OW_5alloc5boxed3BoxNtNtCs8noNfkmVAKC_18tracing_attributes4attr5FieldEENtNtB7_5clone5Clone5cloneB1n_, symObjAddr: 0x45F4, symBinAddr: 0x424F0, symSize: 0x5C }
  - { offset: 0x9A6E3, size: 0x8, addend: 0x0, symName: __RNvXs3_NtCsfvfooZQ3Axs_4core6optionINtB5_6OptionNtNtCs8noNfkmVAKC_18tracing_attributes4attr13LitStrOrIdentENtNtB7_5clone5Clone5cloneBO_, symObjAddr: 0x4650, symBinAddr: 0x4254C, symSize: 0x78 }
  - { offset: 0x9A738, size: 0x8, addend: 0x0, symName: __RNvXs3_NtCsfvfooZQ3Axs_4core6optionINtB5_6OptionNtNtCs8noNfkmVAKC_18tracing_attributes4attr5LevelENtNtB7_5clone5Clone5cloneBO_, symObjAddr: 0x46C8, symBinAddr: 0x425C4, symSize: 0x88 }
  - { offset: 0x9A78D, size: 0x8, addend: 0x0, symName: __RNvXs3_NtCsfvfooZQ3Axs_4core6optionINtB5_6OptionNtNtCs8noNfkmVAKC_18tracing_attributes4attr6FieldsENtNtB7_5clone5Clone5cloneBO_, symObjAddr: 0x4750, symBinAddr: 0x4264C, symSize: 0x7C }
  - { offset: 0x9A7E2, size: 0x8, addend: 0x0, symName: __RNvXs3_NtCsfvfooZQ3Axs_4core6optionINtB5_6OptionNtNtCs8noNfkmVAKC_18tracing_attributes4attr9EventArgsENtNtB7_5clone5Clone5cloneBO_, symObjAddr: 0x47CC, symBinAddr: 0x426C8, symSize: 0x88 }
  - { offset: 0x9A8A9, size: 0x8, addend: 0x0, symName: __RNvXs4_NtCsfvfooZQ3Axs_4core6optionINtB5_6OptionNtNtCs6IAuOt8vWmF_3syn4expr4ExprENtNtB7_7default7Default7defaultCs8noNfkmVAKC_18tracing_attributes, symObjAddr: 0x4854, symBinAddr: 0x42750, symSize: 0x10 }
  - { offset: 0x9A8D1, size: 0x8, addend: 0x0, symName: __RNvXs4_NtCsfvfooZQ3Axs_4core6optionINtB5_6OptionNtNtCs8noNfkmVAKC_18tracing_attributes4attr13LitStrOrIdentENtNtB7_7default7Default7defaultBO_, symObjAddr: 0x4864, symBinAddr: 0x42760, symSize: 0x10 }
  - { offset: 0x9A8F9, size: 0x8, addend: 0x0, symName: __RNvXs4_NtCsfvfooZQ3Axs_4core6optionINtB5_6OptionNtNtCs8noNfkmVAKC_18tracing_attributes4attr5LevelENtNtB7_7default7Default7defaultBO_, symObjAddr: 0x4874, symBinAddr: 0x42770, symSize: 0x14 }
  - { offset: 0x9A921, size: 0x8, addend: 0x0, symName: __RNvXs4_NtCsfvfooZQ3Axs_4core6optionINtB5_6OptionNtNtCs8noNfkmVAKC_18tracing_attributes4attr6FieldsENtNtB7_7default7Default7defaultBO_, symObjAddr: 0x4888, symBinAddr: 0x42784, symSize: 0x10 }
  - { offset: 0x9A949, size: 0x8, addend: 0x0, symName: __RNvXs4_NtCsfvfooZQ3Axs_4core6optionINtB5_6OptionNtNtCs8noNfkmVAKC_18tracing_attributes4attr9EventArgsENtNtB7_7default7Default7defaultBO_, symObjAddr: 0x4898, symBinAddr: 0x42794, symSize: 0x14 }
  - { offset: 0x9A977, size: 0x8, addend: 0x0, symName: __RNvXs5_NtCsfvfooZQ3Axs_4core6optionINtB5_6OptionNtCs3cP53eQoTwO_11proc_macro25IdentENtNtNtNtB7_4iter6traits7collect12IntoIterator9into_iterCs8noNfkmVAKC_18tracing_attributes, symObjAddr: 0x48AC, symBinAddr: 0x427A8, symSize: 0x30 }
  - { offset: 0x9A9AE, size: 0x8, addend: 0x0, symName: __RNvXs5_NtCsfvfooZQ3Axs_4core6optionINtB5_6OptionNtNtCs6IAuOt8vWmF_3syn3pat3PatENtNtNtNtB7_4iter6traits7collect12IntoIterator9into_iterCs8noNfkmVAKC_18tracing_attributes, symObjAddr: 0x48DC, symBinAddr: 0x427D8, symSize: 0x48 }
  - { offset: 0x9A9E6, size: 0x8, addend: 0x0, symName: __RNvXs5_NtCsfvfooZQ3Axs_4core6optionINtB5_6OptionNtNtCs6IAuOt8vWmF_3syn3pat8FieldPatENtNtNtNtB7_4iter6traits7collect12IntoIterator9into_iterCs8noNfkmVAKC_18tracing_attributes, symObjAddr: 0x4924, symBinAddr: 0x42820, symSize: 0x48 }
  - { offset: 0x9AA1E, size: 0x8, addend: 0x0, symName: __RNvXs5_NtCsfvfooZQ3Axs_4core6optionINtB5_6OptionNtNtCs6IAuOt8vWmF_3syn4item5FnArgENtNtNtNtB7_4iter6traits7collect12IntoIterator9into_iterCs8noNfkmVAKC_18tracing_attributes, symObjAddr: 0x496C, symBinAddr: 0x42868, symSize: 0x48 }
  - { offset: 0x9AA56, size: 0x8, addend: 0x0, symName: __RNvXs5_NtCsfvfooZQ3Axs_4core6optionINtB5_6OptionQNtNtCs6IAuOt8vWmF_3syn2ty4TypeENtNtNtNtB7_4iter6traits7collect12IntoIterator9into_iterCs8noNfkmVAKC_18tracing_attributes, symObjAddr: 0x49B4, symBinAddr: 0x428B0, symSize: 0x14 }
  - { offset: 0x9AA8D, size: 0x8, addend: 0x0, symName: __RNvXs5_NtCsfvfooZQ3Axs_4core6optionINtB5_6OptionQNtNtCs6IAuOt8vWmF_3syn2ty9BareFnArgENtNtNtNtB7_4iter6traits7collect12IntoIterator9into_iterCs8noNfkmVAKC_18tracing_attributes, symObjAddr: 0x49C8, symBinAddr: 0x428C4, symSize: 0x14 }
  - { offset: 0x9AAC4, size: 0x8, addend: 0x0, symName: __RNvXs5_NtCsfvfooZQ3Axs_4core6optionINtB5_6OptionQNtNtCs6IAuOt8vWmF_3syn3pat3PatENtNtNtNtB7_4iter6traits7collect12IntoIterator9into_iterCs8noNfkmVAKC_18tracing_attributes, symObjAddr: 0x49DC, symBinAddr: 0x428D8, symSize: 0x14 }
  - { offset: 0x9AAFB, size: 0x8, addend: 0x0, symName: __RNvXs5_NtCsfvfooZQ3Axs_4core6optionINtB5_6OptionQNtNtCs6IAuOt8vWmF_3syn3pat8FieldPatENtNtNtNtB7_4iter6traits7collect12IntoIterator9into_iterCs8noNfkmVAKC_18tracing_attributes, symObjAddr: 0x49F0, symBinAddr: 0x428EC, symSize: 0x14 }
  - { offset: 0x9AB32, size: 0x8, addend: 0x0, symName: __RNvXs5_NtCsfvfooZQ3Axs_4core6optionINtB5_6OptionQNtNtCs6IAuOt8vWmF_3syn4data7VariantENtNtNtNtB7_4iter6traits7collect12IntoIterator9into_iterCs8noNfkmVAKC_18tracing_attributes, symObjAddr: 0x4A04, symBinAddr: 0x42900, symSize: 0x14 }
  - { offset: 0x9AB69, size: 0x8, addend: 0x0, symName: __RNvXs5_NtCsfvfooZQ3Axs_4core6optionINtB5_6OptionQNtNtCs6IAuOt8vWmF_3syn4expr10FieldValueENtNtNtNtB7_4iter6traits7collect12IntoIterator9into_iterCs8noNfkmVAKC_18tracing_attributes, symObjAddr: 0x4A18, symBinAddr: 0x42914, symSize: 0x14 }
  - { offset: 0x9ABA0, size: 0x8, addend: 0x0, symName: __RNvXs5_NtCsfvfooZQ3Axs_4core6optionINtB5_6OptionQNtNtCs6IAuOt8vWmF_3syn4expr4ExprENtNtNtNtB7_4iter6traits7collect12IntoIterator9into_iterCs8noNfkmVAKC_18tracing_attributes, symObjAddr: 0x4A2C, symBinAddr: 0x42928, symSize: 0x14 }
  - { offset: 0x9ABD7, size: 0x8, addend: 0x0, symName: __RNvXs5_NtCsfvfooZQ3Axs_4core6optionINtB5_6OptionQNtNtCs6IAuOt8vWmF_3syn4item5FnArgENtNtNtNtB7_4iter6traits7collect12IntoIterator9into_iterCs8noNfkmVAKC_18tracing_attributes, symObjAddr: 0x4A40, symBinAddr: 0x4293C, symSize: 0x14 }
  - { offset: 0x9AC0E, size: 0x8, addend: 0x0, symName: __RNvXs5_NtCsfvfooZQ3Axs_4core6optionINtB5_6OptionQNtNtCs6IAuOt8vWmF_3syn4item7UseTreeENtNtNtNtB7_4iter6traits7collect12IntoIterator9into_iterCs8noNfkmVAKC_18tracing_attributes, symObjAddr: 0x4A54, symBinAddr: 0x42950, symSize: 0x14 }
  - { offset: 0x9AC45, size: 0x8, addend: 0x0, symName: __RNvXs5_NtCsfvfooZQ3Axs_4core6optionINtB5_6OptionQNtNtCs6IAuOt8vWmF_3syn4path15GenericArgumentENtNtNtNtB7_4iter6traits7collect12IntoIterator9into_iterCs8noNfkmVAKC_18tracing_attributes, symObjAddr: 0x4A68, symBinAddr: 0x42964, symSize: 0x14 }
  - { offset: 0x9AC7C, size: 0x8, addend: 0x0, symName: __RNvXs5_NtCsfvfooZQ3Axs_4core6optionINtB5_6OptionQNtNtCs6IAuOt8vWmF_3syn8generics13CapturedParamENtNtNtNtB7_4iter6traits7collect12IntoIterator9into_iterCs8noNfkmVAKC_18tracing_attributes, symObjAddr: 0x4A7C, symBinAddr: 0x42978, symSize: 0x14 }
  - { offset: 0x9ACB3, size: 0x8, addend: 0x0, symName: __RNvXs5_NtCsfvfooZQ3Axs_4core6optionINtB5_6OptionQNtNtCs6IAuOt8vWmF_3syn8generics14TypeParamBoundENtNtNtNtB7_4iter6traits7collect12IntoIterator9into_iterCs8noNfkmVAKC_18tracing_attributes, symObjAddr: 0x4A90, symBinAddr: 0x4298C, symSize: 0x14 }
  - { offset: 0x9ACEA, size: 0x8, addend: 0x0, symName: __RNvXs5_NtCsfvfooZQ3Axs_4core6optionINtB5_6OptionQNtNtCs6IAuOt8vWmF_3syn8generics14WherePredicateENtNtNtNtB7_4iter6traits7collect12IntoIterator9into_iterCs8noNfkmVAKC_18tracing_attributes, symObjAddr: 0x4AA4, symBinAddr: 0x429A0, symSize: 0x14 }
  - { offset: 0x9AD21, size: 0x8, addend: 0x0, symName: __RNvXs5_NtCsfvfooZQ3Axs_4core6optionINtB5_6OptionQNtNtCs6IAuOt8vWmF_3syn8lifetime8LifetimeENtNtNtNtB7_4iter6traits7collect12IntoIterator9into_iterCs8noNfkmVAKC_18tracing_attributes, symObjAddr: 0x4AB8, symBinAddr: 0x429B4, symSize: 0x14 }
  - { offset: 0x9AD58, size: 0x8, addend: 0x0, symName: __RNvXs5_NtCsfvfooZQ3Axs_4core6optionINtB5_6OptionQNtNtCs8noNfkmVAKC_18tracing_attributes4attr5FieldENtNtNtNtB7_4iter6traits7collect12IntoIterator9into_iterBP_, symObjAddr: 0x4ACC, symBinAddr: 0x429C8, symSize: 0x14 }
  - { offset: 0x9AD8F, size: 0x8, addend: 0x0, symName: __RNvXs5_NtCsfvfooZQ3Axs_4core6optionINtB5_6OptionRNtCs3cP53eQoTwO_11proc_macro25IdentENtNtNtNtB7_4iter6traits7collect12IntoIterator9into_iterCs8noNfkmVAKC_18tracing_attributes, symObjAddr: 0x4AE0, symBinAddr: 0x429DC, symSize: 0x14 }
  - { offset: 0x9ADC6, size: 0x8, addend: 0x0, symName: __RNvXs5_NtCsfvfooZQ3Axs_4core6optionINtB5_6OptionRNtNtCs8noNfkmVAKC_18tracing_attributes4attr5FieldENtNtNtNtB7_4iter6traits7collect12IntoIterator9into_iterBP_, symObjAddr: 0x4AF4, symBinAddr: 0x429F0, symSize: 0x14 }
  - { offset: 0x9AE03, size: 0x8, addend: 0x0, symName: __RNvXsB_NtCsfvfooZQ3Axs_4core6optionINtB5_6OptionTRNtNtCs6IAuOt8vWmF_3syn4stmt4StmtRNtNtBQ_4expr4ExprEENtNtNtB7_3ops9try_trait3Try6branchCs8noNfkmVAKC_18tracing_attributes, symObjAddr: 0x4B08, symBinAddr: 0x42A04, symSize: 0x54 }
  - { offset: 0x9AE58, size: 0x8, addend: 0x0, symName: __RNvXsB_NtCsfvfooZQ3Axs_4core6optionINtB5_6OptionTRNtNtCs6IAuOt8vWmF_3syn4stmt4StmtRNtNtBQ_4item6ItemFnEENtNtNtB7_3ops9try_trait3Try6branchCs8noNfkmVAKC_18tracing_attributes, symObjAddr: 0x4B5C, symBinAddr: 0x42A58, symSize: 0x54 }
  - { offset: 0x9AEB3, size: 0x8, addend: 0x0, symName: __RNvXsC_NtCsfvfooZQ3Axs_4core6optionINtB5_6OptionNtNtCs8noNfkmVAKC_18tracing_attributes6expand9AsyncInfoEINtNtNtB7_3ops9try_trait12FromResidualIBy_NtNtB7_7convert10InfallibleEE13from_residualBO_, symObjAddr: 0x4BB0, symBinAddr: 0x42AAC, symSize: 0x18 }
  - { offset: 0x9AF40, size: 0x8, addend: 0x0, symName: __RNvXsO_NtCsfvfooZQ3Axs_4core6optionINtB5_8IntoIterRNtCs3cP53eQoTwO_11proc_macro25IdentENtNtB7_5clone5Clone5cloneCs8noNfkmVAKC_18tracing_attributes, symObjAddr: 0x4BC8, symBinAddr: 0x42AC4, symSize: 0x68 }
  - { offset: 0x9AFE7, size: 0x8, addend: 0x0, symName: __RNvXsO_NtCsfvfooZQ3Axs_4core6optionINtB5_8IntoIterRNtNtCs8noNfkmVAKC_18tracing_attributes4attr5FieldENtNtB7_5clone5Clone5cloneBR_, symObjAddr: 0x4C30, symBinAddr: 0x42B2C, symSize: 0x68 }
  - { offset: 0x9B094, size: 0x8, addend: 0x0, symName: __RNvXsc_NtCsfvfooZQ3Axs_4core6optionINtB5_6OptionRNtCs3cP53eQoTwO_11proc_macro25IdentENtNtB7_3cmp9PartialEq2eqCs8noNfkmVAKC_18tracing_attributes, symObjAddr: 0x4E3C, symBinAddr: 0x42D38, symSize: 0xAC }
  - { offset: 0x9B52B, size: 0x8, addend: 0x0, symName: __RNvXsk_NtCsfvfooZQ3Axs_4core6optionINtB5_4IterNtNtCs6IAuOt8vWmF_3syn4expr4ExprENtNtNtNtB7_4iter6traits8iterator8Iterator4nextCs8noNfkmVAKC_18tracing_attributes, symObjAddr: 0x4EE8, symBinAddr: 0x42DE4, symSize: 0x20 }
  - { offset: 0x9B5CE, size: 0x8, addend: 0x0, symName: __RNvXsk_NtCsfvfooZQ3Axs_4core6optionINtB5_4IterRNtCs3cP53eQoTwO_11proc_macro25IdentENtNtNtNtB7_4iter6traits8iterator8Iterator4nextCs8noNfkmVAKC_18tracing_attributes, symObjAddr: 0x4F08, symBinAddr: 0x42E04, symSize: 0x20 }
  - { offset: 0x9B677, size: 0x8, addend: 0x0, symName: __RNvXsv_NtCsfvfooZQ3Axs_4core6optionINtB5_8IntoIterNtCs3cP53eQoTwO_11proc_macro25IdentENtNtNtNtB7_4iter6traits8iterator8Iterator4nextCs8noNfkmVAKC_18tracing_attributes, symObjAddr: 0x4F28, symBinAddr: 0x42E24, symSize: 0x40 }
  - { offset: 0x9B71A, size: 0x8, addend: 0x0, symName: __RNvXsv_NtCsfvfooZQ3Axs_4core6optionINtB5_8IntoIterNtCs3cP53eQoTwO_11proc_macro25IdentENtNtNtNtB7_4iter6traits8iterator8Iterator9size_hintCs8noNfkmVAKC_18tracing_attributes, symObjAddr: 0x4F68, symBinAddr: 0x42E64, symSize: 0x44 }
  - { offset: 0x9B792, size: 0x8, addend: 0x0, symName: __RNvXsv_NtCsfvfooZQ3Axs_4core6optionINtB5_8IntoIterNtNtCs6IAuOt8vWmF_3syn3pat3PatENtNtNtNtB7_4iter6traits8iterator8Iterator4nextCs8noNfkmVAKC_18tracing_attributes, symObjAddr: 0x4FAC, symBinAddr: 0x42EA8, symSize: 0x64 }
  - { offset: 0x9B835, size: 0x8, addend: 0x0, symName: __RNvXsv_NtCsfvfooZQ3Axs_4core6optionINtB5_8IntoIterNtNtCs6IAuOt8vWmF_3syn3pat3PatENtNtNtNtB7_4iter6traits8iterator8Iterator9size_hintCs8noNfkmVAKC_18tracing_attributes, symObjAddr: 0x5010, symBinAddr: 0x42F0C, symSize: 0x4C }
  - { offset: 0x9B8AD, size: 0x8, addend: 0x0, symName: __RNvXsv_NtCsfvfooZQ3Axs_4core6optionINtB5_8IntoIterNtNtCs6IAuOt8vWmF_3syn3pat8FieldPatENtNtNtNtB7_4iter6traits8iterator8Iterator4nextCs8noNfkmVAKC_18tracing_attributes, symObjAddr: 0x505C, symBinAddr: 0x42F58, symSize: 0x60 }
  - { offset: 0x9B950, size: 0x8, addend: 0x0, symName: __RNvXsv_NtCsfvfooZQ3Axs_4core6optionINtB5_8IntoIterNtNtCs6IAuOt8vWmF_3syn3pat8FieldPatENtNtNtNtB7_4iter6traits8iterator8Iterator9size_hintCs8noNfkmVAKC_18tracing_attributes, symObjAddr: 0x50BC, symBinAddr: 0x42FB8, symSize: 0x48 }
  - { offset: 0x9B9C8, size: 0x8, addend: 0x0, symName: __RNvXsv_NtCsfvfooZQ3Axs_4core6optionINtB5_8IntoIterNtNtCs6IAuOt8vWmF_3syn4item5FnArgENtNtNtNtB7_4iter6traits8iterator8Iterator4nextCs8noNfkmVAKC_18tracing_attributes, symObjAddr: 0x5104, symBinAddr: 0x43000, symSize: 0x60 }
  - { offset: 0x9BA6B, size: 0x8, addend: 0x0, symName: __RNvXsv_NtCsfvfooZQ3Axs_4core6optionINtB5_8IntoIterNtNtCs6IAuOt8vWmF_3syn4item5FnArgENtNtNtNtB7_4iter6traits8iterator8Iterator9size_hintCs8noNfkmVAKC_18tracing_attributes, symObjAddr: 0x5164, symBinAddr: 0x43060, symSize: 0x48 }
  - { offset: 0x9BAE3, size: 0x8, addend: 0x0, symName: __RNvXsv_NtCsfvfooZQ3Axs_4core6optionINtB5_8IntoIterQNtNtCs6IAuOt8vWmF_3syn2ty4TypeENtNtNtNtB7_4iter6traits8iterator8Iterator4nextCs8noNfkmVAKC_18tracing_attributes, symObjAddr: 0x51AC, symBinAddr: 0x430A8, symSize: 0x28 }
  - { offset: 0x9BB86, size: 0x8, addend: 0x0, symName: __RNvXsv_NtCsfvfooZQ3Axs_4core6optionINtB5_8IntoIterQNtNtCs6IAuOt8vWmF_3syn2ty9BareFnArgENtNtNtNtB7_4iter6traits8iterator8Iterator4nextCs8noNfkmVAKC_18tracing_attributes, symObjAddr: 0x51D4, symBinAddr: 0x430D0, symSize: 0x28 }
  - { offset: 0x9BC29, size: 0x8, addend: 0x0, symName: __RNvXsv_NtCsfvfooZQ3Axs_4core6optionINtB5_8IntoIterQNtNtCs6IAuOt8vWmF_3syn3pat3PatENtNtNtNtB7_4iter6traits8iterator8Iterator4nextCs8noNfkmVAKC_18tracing_attributes, symObjAddr: 0x51FC, symBinAddr: 0x430F8, symSize: 0x28 }
  - { offset: 0x9BCCC, size: 0x8, addend: 0x0, symName: __RNvXsv_NtCsfvfooZQ3Axs_4core6optionINtB5_8IntoIterQNtNtCs6IAuOt8vWmF_3syn3pat8FieldPatENtNtNtNtB7_4iter6traits8iterator8Iterator4nextCs8noNfkmVAKC_18tracing_attributes, symObjAddr: 0x5224, symBinAddr: 0x43120, symSize: 0x28 }
  - { offset: 0x9BD6F, size: 0x8, addend: 0x0, symName: __RNvXsv_NtCsfvfooZQ3Axs_4core6optionINtB5_8IntoIterQNtNtCs6IAuOt8vWmF_3syn4data7VariantENtNtNtNtB7_4iter6traits8iterator8Iterator4nextCs8noNfkmVAKC_18tracing_attributes, symObjAddr: 0x524C, symBinAddr: 0x43148, symSize: 0x28 }
  - { offset: 0x9BE12, size: 0x8, addend: 0x0, symName: __RNvXsv_NtCsfvfooZQ3Axs_4core6optionINtB5_8IntoIterQNtNtCs6IAuOt8vWmF_3syn4expr10FieldValueENtNtNtNtB7_4iter6traits8iterator8Iterator4nextCs8noNfkmVAKC_18tracing_attributes, symObjAddr: 0x5274, symBinAddr: 0x43170, symSize: 0x28 }
  - { offset: 0x9BEB5, size: 0x8, addend: 0x0, symName: __RNvXsv_NtCsfvfooZQ3Axs_4core6optionINtB5_8IntoIterQNtNtCs6IAuOt8vWmF_3syn4expr4ExprENtNtNtNtB7_4iter6traits8iterator8Iterator4nextCs8noNfkmVAKC_18tracing_attributes, symObjAddr: 0x529C, symBinAddr: 0x43198, symSize: 0x28 }
  - { offset: 0x9BF58, size: 0x8, addend: 0x0, symName: __RNvXsv_NtCsfvfooZQ3Axs_4core6optionINtB5_8IntoIterQNtNtCs6IAuOt8vWmF_3syn4item5FnArgENtNtNtNtB7_4iter6traits8iterator8Iterator4nextCs8noNfkmVAKC_18tracing_attributes, symObjAddr: 0x52C4, symBinAddr: 0x431C0, symSize: 0x28 }
  - { offset: 0x9BFFB, size: 0x8, addend: 0x0, symName: __RNvXsv_NtCsfvfooZQ3Axs_4core6optionINtB5_8IntoIterQNtNtCs6IAuOt8vWmF_3syn4item7UseTreeENtNtNtNtB7_4iter6traits8iterator8Iterator4nextCs8noNfkmVAKC_18tracing_attributes, symObjAddr: 0x52EC, symBinAddr: 0x431E8, symSize: 0x28 }
  - { offset: 0x9C09E, size: 0x8, addend: 0x0, symName: __RNvXsv_NtCsfvfooZQ3Axs_4core6optionINtB5_8IntoIterQNtNtCs6IAuOt8vWmF_3syn4path15GenericArgumentENtNtNtNtB7_4iter6traits8iterator8Iterator4nextCs8noNfkmVAKC_18tracing_attributes, symObjAddr: 0x5314, symBinAddr: 0x43210, symSize: 0x28 }
  - { offset: 0x9C141, size: 0x8, addend: 0x0, symName: __RNvXsv_NtCsfvfooZQ3Axs_4core6optionINtB5_8IntoIterQNtNtCs6IAuOt8vWmF_3syn8generics13CapturedParamENtNtNtNtB7_4iter6traits8iterator8Iterator4nextCs8noNfkmVAKC_18tracing_attributes, symObjAddr: 0x533C, symBinAddr: 0x43238, symSize: 0x28 }
  - { offset: 0x9C1E4, size: 0x8, addend: 0x0, symName: __RNvXsv_NtCsfvfooZQ3Axs_4core6optionINtB5_8IntoIterQNtNtCs6IAuOt8vWmF_3syn8generics14TypeParamBoundENtNtNtNtB7_4iter6traits8iterator8Iterator4nextCs8noNfkmVAKC_18tracing_attributes, symObjAddr: 0x5364, symBinAddr: 0x43260, symSize: 0x28 }
  - { offset: 0x9C287, size: 0x8, addend: 0x0, symName: __RNvXsv_NtCsfvfooZQ3Axs_4core6optionINtB5_8IntoIterQNtNtCs6IAuOt8vWmF_3syn8generics14WherePredicateENtNtNtNtB7_4iter6traits8iterator8Iterator4nextCs8noNfkmVAKC_18tracing_attributes, symObjAddr: 0x538C, symBinAddr: 0x43288, symSize: 0x28 }
  - { offset: 0x9C32A, size: 0x8, addend: 0x0, symName: __RNvXsv_NtCsfvfooZQ3Axs_4core6optionINtB5_8IntoIterQNtNtCs6IAuOt8vWmF_3syn8lifetime8LifetimeENtNtNtNtB7_4iter6traits8iterator8Iterator4nextCs8noNfkmVAKC_18tracing_attributes, symObjAddr: 0x53B4, symBinAddr: 0x432B0, symSize: 0x28 }
  - { offset: 0x9C3CD, size: 0x8, addend: 0x0, symName: __RNvXsv_NtCsfvfooZQ3Axs_4core6optionINtB5_8IntoIterQNtNtCs8noNfkmVAKC_18tracing_attributes4attr5FieldENtNtNtNtB7_4iter6traits8iterator8Iterator4nextBR_, symObjAddr: 0x53DC, symBinAddr: 0x432D8, symSize: 0x28 }
  - { offset: 0x9C470, size: 0x8, addend: 0x0, symName: __RNvXsv_NtCsfvfooZQ3Axs_4core6optionINtB5_8IntoIterQNtNtCs8noNfkmVAKC_18tracing_attributes4attr5FieldENtNtNtNtB7_4iter6traits8iterator8Iterator9size_hintBR_, symObjAddr: 0x5404, symBinAddr: 0x43300, symSize: 0x44 }
  - { offset: 0x9C4E8, size: 0x8, addend: 0x0, symName: __RNvXsv_NtCsfvfooZQ3Axs_4core6optionINtB5_8IntoIterRNtCs3cP53eQoTwO_11proc_macro25IdentENtNtNtNtB7_4iter6traits8iterator8Iterator4nextCs8noNfkmVAKC_18tracing_attributes, symObjAddr: 0x5448, symBinAddr: 0x43344, symSize: 0x28 }
  - { offset: 0x9C58B, size: 0x8, addend: 0x0, symName: __RNvXsv_NtCsfvfooZQ3Axs_4core6optionINtB5_8IntoIterRNtCs3cP53eQoTwO_11proc_macro25IdentENtNtNtNtB7_4iter6traits8iterator8Iterator9size_hintCs8noNfkmVAKC_18tracing_attributes, symObjAddr: 0x5470, symBinAddr: 0x4336C, symSize: 0x44 }
  - { offset: 0x9C603, size: 0x8, addend: 0x0, symName: __RNvXsv_NtCsfvfooZQ3Axs_4core6optionINtB5_8IntoIterRNtNtCs8noNfkmVAKC_18tracing_attributes4attr5FieldENtNtNtNtB7_4iter6traits8iterator8Iterator4nextBR_, symObjAddr: 0x54B4, symBinAddr: 0x433B0, symSize: 0x28 }
  - { offset: 0x9C6A6, size: 0x8, addend: 0x0, symName: __RNvXsv_NtCsfvfooZQ3Axs_4core6optionINtB5_8IntoIterRNtNtCs8noNfkmVAKC_18tracing_attributes4attr5FieldENtNtNtNtB7_4iter6traits8iterator8Iterator9size_hintBR_, symObjAddr: 0x54DC, symBinAddr: 0x433D8, symSize: 0x44 }
  - { offset: 0x9D674, size: 0x8, addend: 0x0, symName: __RINvYINtNtCsfvfooZQ3Axs_4core6option4IterRNtCs3cP53eQoTwO_11proc_macro25IdentENtNtNtNtB8_4iter6traits8iterator8Iterator3anyNCNCNCNCINvNtCs8noNfkmVAKC_18tracing_attributes6expand9gen_blockNtBG_11TokenStreamEs0_0s2_000EB2a_, symObjAddr: 0x2EA8, symBinAddr: 0x40DA4, symSize: 0x44 }
  - { offset: 0x9D6C3, size: 0x8, addend: 0x0, symName: __RINvYINtNtCsfvfooZQ3Axs_4core6option4IterRNtCs3cP53eQoTwO_11proc_macro25IdentENtNtNtNtB8_4iter6traits8iterator8Iterator3anyNCNCNCNCINvNtCs8noNfkmVAKC_18tracing_attributes6expand9gen_blockNtNtCs6IAuOt8vWmF_3syn4stmt5BlockEs0_0s2_000EB2a_, symObjAddr: 0x2EEC, symBinAddr: 0x40DE8, symSize: 0x44 }
  - { offset: 0x9D712, size: 0x8, addend: 0x0, symName: __RINvYINtNtCsfvfooZQ3Axs_4core6option4IterRNtCs3cP53eQoTwO_11proc_macro25IdentENtNtNtNtB8_4iter6traits8iterator8Iterator8try_folduNCINvNvB1e_3any5checkRBD_NCNCNCNCINvNtCs8noNfkmVAKC_18tracing_attributes6expand9gen_blockNtBG_11TokenStreamEs0_0s2_000E0INtNtNtB8_3ops12control_flow11ControlFlowuEEB2F_, symObjAddr: 0x2F30, symBinAddr: 0x40E2C, symSize: 0x138 }
  - { offset: 0x9D7CC, size: 0x8, addend: 0x0, symName: __RINvYINtNtCsfvfooZQ3Axs_4core6option4IterRNtCs3cP53eQoTwO_11proc_macro25IdentENtNtNtNtB8_4iter6traits8iterator8Iterator8try_folduNCINvNvB1e_3any5checkRBD_NCNCNCNCINvNtCs8noNfkmVAKC_18tracing_attributes6expand9gen_blockNtNtCs6IAuOt8vWmF_3syn4stmt5BlockEs0_0s2_000E0INtNtNtB8_3ops12control_flow11ControlFlowuEEB2F_, symObjAddr: 0x3068, symBinAddr: 0x40F64, symSize: 0x138 }
  - { offset: 0x9D886, size: 0x8, addend: 0x0, symName: __RINvYINtNtCsfvfooZQ3Axs_4core6option8IntoIterNtCs3cP53eQoTwO_11proc_macro25IdentENtNtNtNtB8_4iter6traits8iterator8Iterator4folduNCINvNvB1h_8for_each4callBH_NCINvMsi_NtCse1nGBsou5OW_5alloc3vecINtB2D_3VecBH_E14extend_trustedB3_E0E0ECs8noNfkmVAKC_18tracing_attributes, symObjAddr: 0x31A0, symBinAddr: 0x4109C, symSize: 0x12C }
  - { offset: 0x9DA30, size: 0x8, addend: 0x0, symName: __RINvYINtNtCsfvfooZQ3Axs_4core6option8IntoIterNtCs3cP53eQoTwO_11proc_macro25IdentENtNtNtNtB8_4iter6traits8iterator8Iterator8for_eachNCINvMsi_NtCse1nGBsou5OW_5alloc3vecINtB2e_3VecBH_E14extend_trustedB3_E0ECs8noNfkmVAKC_18tracing_attributes, symObjAddr: 0x32CC, symBinAddr: 0x411C8, symSize: 0x34 }
  - { offset: 0x9DA9C, size: 0x8, addend: 0x0, symName: __RINvYINtNtCsfvfooZQ3Axs_4core6option8IntoIterNtNtCs6IAuOt8vWmF_3syn3pat3PatENtNtNtNtB8_4iter6traits8iterator8Iterator4folduNCINvNvB1c_8for_each4callBH_NCINvMsi_NtCse1nGBsou5OW_5alloc3vecINtB2y_3VecBH_E14extend_trustedB3_E0E0ECs8noNfkmVAKC_18tracing_attributes, symObjAddr: 0x3300, symBinAddr: 0x411FC, symSize: 0x14C }
  - { offset: 0x9DB2E, size: 0x8, addend: 0x0, symName: __RINvYINtNtCsfvfooZQ3Axs_4core6option8IntoIterNtNtCs6IAuOt8vWmF_3syn3pat3PatENtNtNtNtB8_4iter6traits8iterator8Iterator8for_eachNCINvMsi_NtCse1nGBsou5OW_5alloc3vecINtB29_3VecBH_E14extend_trustedB3_E0ECs8noNfkmVAKC_18tracing_attributes, symObjAddr: 0x344C, symBinAddr: 0x41348, symSize: 0x34 }
  - { offset: 0x9DB9A, size: 0x8, addend: 0x0, symName: __RINvYINtNtCsfvfooZQ3Axs_4core6option8IntoIterNtNtCs6IAuOt8vWmF_3syn3pat8FieldPatENtNtNtNtB8_4iter6traits8iterator8Iterator4folduNCINvNvB1h_8for_each4callBH_NCINvMsi_NtCse1nGBsou5OW_5alloc3vecINtB2D_3VecBH_E14extend_trustedB3_E0E0ECs8noNfkmVAKC_18tracing_attributes, symObjAddr: 0x3480, symBinAddr: 0x4137C, symSize: 0x148 }
  - { offset: 0x9DC2C, size: 0x8, addend: 0x0, symName: __RINvYINtNtCsfvfooZQ3Axs_4core6option8IntoIterNtNtCs6IAuOt8vWmF_3syn3pat8FieldPatENtNtNtNtB8_4iter6traits8iterator8Iterator8for_eachNCINvMsi_NtCse1nGBsou5OW_5alloc3vecINtB2e_3VecBH_E14extend_trustedB3_E0ECs8noNfkmVAKC_18tracing_attributes, symObjAddr: 0x35C8, symBinAddr: 0x414C4, symSize: 0x34 }
  - { offset: 0x9DC98, size: 0x8, addend: 0x0, symName: __RINvYINtNtCsfvfooZQ3Axs_4core6option8IntoIterNtNtCs6IAuOt8vWmF_3syn4item5FnArgENtNtNtNtB8_4iter6traits8iterator8Iterator4folduNCINvNvB1f_8for_each4callBH_NCINvMsi_NtCse1nGBsou5OW_5alloc3vecINtB2B_3VecBH_E14extend_trustedB3_E0E0ECs8noNfkmVAKC_18tracing_attributes, symObjAddr: 0x35FC, symBinAddr: 0x414F8, symSize: 0x148 }
  - { offset: 0x9DD2A, size: 0x8, addend: 0x0, symName: __RINvYINtNtCsfvfooZQ3Axs_4core6option8IntoIterNtNtCs6IAuOt8vWmF_3syn4item5FnArgENtNtNtNtB8_4iter6traits8iterator8Iterator8for_eachNCINvMsi_NtCse1nGBsou5OW_5alloc3vecINtB2c_3VecBH_E14extend_trustedB3_E0ECs8noNfkmVAKC_18tracing_attributes, symObjAddr: 0x3744, symBinAddr: 0x41640, symSize: 0x34 }
  - { offset: 0x9DDD4, size: 0x8, addend: 0x0, symName: __RNvYINtNtCsfvfooZQ3Axs_4core6option8IntoIterQNtNtCs8noNfkmVAKC_18tracing_attributes4attr5FieldENtNtNtNtB7_4iter6traits10exact_size17ExactSizeIterator3lenBL_, symObjAddr: 0x5574, symBinAddr: 0x43470, symSize: 0xF4 }
  - { offset: 0x9DEC7, size: 0x8, addend: 0x0, symName: __RNvYINtNtCsfvfooZQ3Axs_4core6option8IntoIterRNtCs3cP53eQoTwO_11proc_macro25IdentENtNtNtNtB7_4iter6traits10exact_size17ExactSizeIterator3lenCs8noNfkmVAKC_18tracing_attributes, symObjAddr: 0x5668, symBinAddr: 0x43564, symSize: 0xF4 }
  - { offset: 0x9DFBA, size: 0x8, addend: 0x0, symName: __RNvYINtNtCsfvfooZQ3Axs_4core6option8IntoIterRNtNtCs8noNfkmVAKC_18tracing_attributes4attr5FieldENtNtNtNtB7_4iter6traits10exact_size17ExactSizeIterator3lenBL_, symObjAddr: 0x575C, symBinAddr: 0x43658, symSize: 0xF4 }
  - { offset: 0x9E415, size: 0x8, addend: 0x0, symName: __RNvYINtNtCsfvfooZQ3Axs_4core6option6OptionRNtCs3cP53eQoTwO_11proc_macro25IdentENtNtB7_3cmp9PartialEq2neCs8noNfkmVAKC_18tracing_attributes, symObjAddr: 0x5544, symBinAddr: 0x43440, symSize: 0x30 }
  - { offset: 0xA54F4, size: 0x8, addend: 0x0, symName: __RINvMNtCsfvfooZQ3Axs_4core6optionINtB3_6OptionINtNtCs6IAuOt8vWmF_3syn10punctuated4PairQNtNtBN_2ty4TypeQNtNtBN_5token5CommaEE7or_elseNCNvXsg_BL_INtBL_8PairsMutB1n_B1D_ENtNtNtNtB5_4iter6traits8iterator8Iterator4nexts_0ECs8noNfkmVAKC_18tracing_attributes, symObjAddr: 0x0, symBinAddr: 0x3DEFC, symSize: 0xB4 }
  - { offset: 0xA5571, size: 0x8, addend: 0x0, symName: __RINvMNtCsfvfooZQ3Axs_4core6optionINtB3_6OptionINtNtCs6IAuOt8vWmF_3syn10punctuated4PairQNtNtBN_2ty9BareFnArgQNtNtBN_5token5CommaEE7or_elseNCNvXsg_BL_INtBL_8PairsMutB1n_B1I_ENtNtNtNtB5_4iter6traits8iterator8Iterator4nexts_0ECs8noNfkmVAKC_18tracing_attributes, symObjAddr: 0xB4, symBinAddr: 0x3DFB0, symSize: 0xB4 }
  - { offset: 0xA55FB, size: 0x8, addend: 0x0, symName: __RINvMNtCsfvfooZQ3Axs_4core6optionINtB3_6OptionINtNtCs6IAuOt8vWmF_3syn10punctuated4PairQNtNtBN_3pat3PatQNtNtBN_5token2OrEE7or_elseNCNvXsg_BL_INtBL_8PairsMutB1n_B1D_ENtNtNtNtB5_4iter6traits8iterator8Iterator4nexts_0ECs8noNfkmVAKC_18tracing_attributes, symObjAddr: 0x168, symBinAddr: 0x3E064, symSize: 0xB4 }
  - { offset: 0xA565E, size: 0x8, addend: 0x0, symName: __RINvMNtCsfvfooZQ3Axs_4core6optionINtB3_6OptionINtNtCs6IAuOt8vWmF_3syn10punctuated4PairQNtNtBN_3pat3PatQNtNtBN_5token5CommaEE7or_elseNCNvXsg_BL_INtBL_8PairsMutB1n_B1D_ENtNtNtNtB5_4iter6traits8iterator8Iterator4nexts_0ECs8noNfkmVAKC_18tracing_attributes, symObjAddr: 0x21C, symBinAddr: 0x3E118, symSize: 0xB4 }
  - { offset: 0xA56DB, size: 0x8, addend: 0x0, symName: __RINvMNtCsfvfooZQ3Axs_4core6optionINtB3_6OptionINtNtCs6IAuOt8vWmF_3syn10punctuated4PairQNtNtBN_3pat8FieldPatQNtNtBN_5token5CommaEE7or_elseNCNvXsg_BL_INtBL_8PairsMutB1n_B1I_ENtNtNtNtB5_4iter6traits8iterator8Iterator4nexts_0ECs8noNfkmVAKC_18tracing_attributes, symObjAddr: 0x2D0, symBinAddr: 0x3E1CC, symSize: 0xB4 }
  - { offset: 0xA5758, size: 0x8, addend: 0x0, symName: __RINvMNtCsfvfooZQ3Axs_4core6optionINtB3_6OptionINtNtCs6IAuOt8vWmF_3syn10punctuated4PairQNtNtBN_4data5FieldQNtNtBN_5token5CommaEE7or_elseNCNvXsg_BL_INtBL_8PairsMutB1n_B1G_ENtNtNtNtB5_4iter6traits8iterator8Iterator4nexts_0ECs8noNfkmVAKC_18tracing_attributes, symObjAddr: 0x384, symBinAddr: 0x3E280, symSize: 0xB4 }
  - { offset: 0xA57D5, size: 0x8, addend: 0x0, symName: __RINvMNtCsfvfooZQ3Axs_4core6optionINtB3_6OptionINtNtCs6IAuOt8vWmF_3syn10punctuated4PairQNtNtBN_4data7VariantQNtNtBN_5token5CommaEE7or_elseNCNvXsg_BL_INtBL_8PairsMutB1n_B1I_ENtNtNtNtB5_4iter6traits8iterator8Iterator4nexts_0ECs8noNfkmVAKC_18tracing_attributes, symObjAddr: 0x438, symBinAddr: 0x3E334, symSize: 0xB4 }
  - { offset: 0xA5852, size: 0x8, addend: 0x0, symName: __RINvMNtCsfvfooZQ3Axs_4core6optionINtB3_6OptionINtNtCs6IAuOt8vWmF_3syn10punctuated4PairQNtNtBN_4expr10FieldValueQNtNtBN_5token5CommaEE7or_elseNCNvXsg_BL_INtBL_8PairsMutB1n_B1M_ENtNtNtNtB5_4iter6traits8iterator8Iterator4nexts_0ECs8noNfkmVAKC_18tracing_attributes, symObjAddr: 0x4EC, symBinAddr: 0x3E3E8, symSize: 0xB4 }
  - { offset: 0xA58CF, size: 0x8, addend: 0x0, symName: __RINvMNtCsfvfooZQ3Axs_4core6optionINtB3_6OptionINtNtCs6IAuOt8vWmF_3syn10punctuated4PairQNtNtBN_4expr4ExprQNtNtBN_5token5CommaEE7or_elseNCNvXsg_BL_INtBL_8PairsMutB1n_B1F_ENtNtNtNtB5_4iter6traits8iterator8Iterator4nexts_0ECs8noNfkmVAKC_18tracing_attributes, symObjAddr: 0x5A0, symBinAddr: 0x3E49C, symSize: 0xB4 }
  - { offset: 0xA594C, size: 0x8, addend: 0x0, symName: __RINvMNtCsfvfooZQ3Axs_4core6optionINtB3_6OptionINtNtCs6IAuOt8vWmF_3syn10punctuated4PairQNtNtBN_4item5FnArgQNtNtBN_5token5CommaEE7or_elseNCNvXsg_BL_INtBL_8PairsMutB1n_B1G_ENtNtNtNtB5_4iter6traits8iterator8Iterator4nexts_0ECs8noNfkmVAKC_18tracing_attributes, symObjAddr: 0x654, symBinAddr: 0x3E550, symSize: 0xB4 }
  - { offset: 0xA59C9, size: 0x8, addend: 0x0, symName: __RINvMNtCsfvfooZQ3Axs_4core6optionINtB3_6OptionINtNtCs6IAuOt8vWmF_3syn10punctuated4PairQNtNtBN_4item7UseTreeQNtNtBN_5token5CommaEE7or_elseNCNvXsg_BL_INtBL_8PairsMutB1n_B1I_ENtNtNtNtB5_4iter6traits8iterator8Iterator4nexts_0ECs8noNfkmVAKC_18tracing_attributes, symObjAddr: 0x708, symBinAddr: 0x3E604, symSize: 0xB4 }
  - { offset: 0xA5A53, size: 0x8, addend: 0x0, symName: __RINvMNtCsfvfooZQ3Axs_4core6optionINtB3_6OptionINtNtCs6IAuOt8vWmF_3syn10punctuated4PairQNtNtBN_4path11PathSegmentQNtNtBN_5token7PathSepEE7or_elseNCNvXsg_BL_INtBL_8PairsMutB1n_B1N_ENtNtNtNtB5_4iter6traits8iterator8Iterator4nexts_0ECs8noNfkmVAKC_18tracing_attributes, symObjAddr: 0x7BC, symBinAddr: 0x3E6B8, symSize: 0xB4 }
  - { offset: 0xA5AD0, size: 0x8, addend: 0x0, symName: __RINvMNtCsfvfooZQ3Axs_4core6optionINtB3_6OptionINtNtCs6IAuOt8vWmF_3syn10punctuated4PairQNtNtBN_4path15GenericArgumentQNtNtBN_5token5CommaEE7or_elseNCNvXsg_BL_INtBL_8PairsMutB1n_B1R_ENtNtNtNtB5_4iter6traits8iterator8Iterator4nexts_0ECs8noNfkmVAKC_18tracing_attributes, symObjAddr: 0x870, symBinAddr: 0x3E76C, symSize: 0xB4 }
  - { offset: 0xA5B4D, size: 0x8, addend: 0x0, symName: __RINvMNtCsfvfooZQ3Axs_4core6optionINtB3_6OptionINtNtCs6IAuOt8vWmF_3syn10punctuated4PairQNtNtBN_8generics12GenericParamQNtNtBN_5token5CommaEE7or_elseNCNvXsg_BL_INtBL_8PairsMutB1n_B1S_ENtNtNtNtB5_4iter6traits8iterator8Iterator4nexts_0ECs8noNfkmVAKC_18tracing_attributes, symObjAddr: 0x924, symBinAddr: 0x3E820, symSize: 0xB4 }
  - { offset: 0xA5BCA, size: 0x8, addend: 0x0, symName: __RINvMNtCsfvfooZQ3Axs_4core6optionINtB3_6OptionINtNtCs6IAuOt8vWmF_3syn10punctuated4PairQNtNtBN_8generics13CapturedParamQNtNtBN_5token5CommaEE7or_elseNCNvXsg_BL_INtBL_8PairsMutB1n_B1T_ENtNtNtNtB5_4iter6traits8iterator8Iterator4nexts_0ECs8noNfkmVAKC_18tracing_attributes, symObjAddr: 0x9D8, symBinAddr: 0x3E8D4, symSize: 0xB4 }
  - { offset: 0xA5C54, size: 0x8, addend: 0x0, symName: __RINvMNtCsfvfooZQ3Axs_4core6optionINtB3_6OptionINtNtCs6IAuOt8vWmF_3syn10punctuated4PairQNtNtBN_8generics14TypeParamBoundQNtNtBN_5token4PlusEE7or_elseNCNvXsg_BL_INtBL_8PairsMutB1n_B1U_ENtNtNtNtB5_4iter6traits8iterator8Iterator4nexts_0ECs8noNfkmVAKC_18tracing_attributes, symObjAddr: 0xA8C, symBinAddr: 0x3E988, symSize: 0xB4 }
  - { offset: 0xA5CD1, size: 0x8, addend: 0x0, symName: __RINvMNtCsfvfooZQ3Axs_4core6optionINtB3_6OptionINtNtCs6IAuOt8vWmF_3syn10punctuated4PairQNtNtBN_8generics14WherePredicateQNtNtBN_5token5CommaEE7or_elseNCNvXsg_BL_INtBL_8PairsMutB1n_B1U_ENtNtNtNtB5_4iter6traits8iterator8Iterator4nexts_0ECs8noNfkmVAKC_18tracing_attributes, symObjAddr: 0xB40, symBinAddr: 0x3EA3C, symSize: 0xB4 }
  - { offset: 0xA5D4E, size: 0x8, addend: 0x0, symName: __RINvMNtCsfvfooZQ3Axs_4core6optionINtB3_6OptionINtNtCs6IAuOt8vWmF_3syn10punctuated4PairQNtNtBN_8lifetime8LifetimeQNtNtBN_5token4PlusEE7or_elseNCNvXsg_BL_INtBL_8PairsMutB1n_B1N_ENtNtNtNtB5_4iter6traits8iterator8Iterator4nexts_0ECs8noNfkmVAKC_18tracing_attributes, symObjAddr: 0xBF4, symBinAddr: 0x3EAF0, symSize: 0xB4 }
  - { offset: 0xA5DD8, size: 0x8, addend: 0x0, symName: __RINvMNtCsfvfooZQ3Axs_4core6optionINtB3_6OptionINtNtCs6IAuOt8vWmF_3syn10punctuated4PairRNtCs3cP53eQoTwO_11proc_macro25IdentRNtNtBN_5token3DotEE7or_elseNCNvXsc_BL_INtBL_5PairsB1n_B1X_ENtNtNtNtB5_4iter6traits8iterator8Iterator4nexts_0ECs8noNfkmVAKC_18tracing_attributes, symObjAddr: 0xCA8, symBinAddr: 0x3EBA4, symSize: 0xB4 }
  - { offset: 0xA5E8D, size: 0x8, addend: 0x0, symName: __RINvMNtCsfvfooZQ3Axs_4core6optionINtB3_6OptionINtNtCs6IAuOt8vWmF_3syn10punctuated4PairRNtNtCs8noNfkmVAKC_18tracing_attributes4attr5FieldRNtNtBN_5token5CommaEE7or_elseNCNvXsc_BL_INtBL_5PairsB1n_B2b_ENtNtNtNtB5_4iter6traits8iterator8Iterator4nexts_0EB1r_, symObjAddr: 0xD5C, symBinAddr: 0x3EC58, symSize: 0xB4 }
  - { offset: 0xA5EF0, size: 0x8, addend: 0x0, symName: __RINvMNtCsfvfooZQ3Axs_4core6optionINtB3_6OptionINtNtCse1nGBsou5OW_5alloc5boxed3BoxNtCs3cP53eQoTwO_11proc_macro25IdentEE3mapB1h_NCNvXs8_NtCs6IAuOt8vWmF_3syn10punctuatedINtB28_10PunctuatedB1h_NtNtB2a_5token5CommaENtNtNtNtB5_4iter6traits7collect12IntoIterator9into_iters_0ECs8noNfkmVAKC_18tracing_attributes, symObjAddr: 0xE10, symBinAddr: 0x3ED0C, symSize: 0x6C }
  - { offset: 0xA5F5B, size: 0x8, addend: 0x0, symName: __RINvMNtCsfvfooZQ3Axs_4core6optionINtB3_6OptionINtNtCse1nGBsou5OW_5alloc5boxed3BoxNtNtCs6IAuOt8vWmF_3syn3pat3PatEE3mapB1h_NCNvXs8_NtB1l_10punctuatedINtB23_10PunctuatedB1h_NtNtB1l_5token5CommaENtNtNtNtB5_4iter6traits7collect12IntoIterator9into_iters_0ECs8noNfkmVAKC_18tracing_attributes, symObjAddr: 0xE7C, symBinAddr: 0x3ED78, symSize: 0x74 }
  - { offset: 0xA5FC6, size: 0x8, addend: 0x0, symName: __RINvMNtCsfvfooZQ3Axs_4core6optionINtB3_6OptionINtNtCse1nGBsou5OW_5alloc5boxed3BoxNtNtCs6IAuOt8vWmF_3syn3pat8FieldPatEE3mapB1h_NCNvXs8_NtB1l_10punctuatedINtB28_10PunctuatedB1h_NtNtB1l_5token5CommaENtNtNtNtB5_4iter6traits7collect12IntoIterator9into_iters_0ECs8noNfkmVAKC_18tracing_attributes, symObjAddr: 0xEF0, symBinAddr: 0x3EDEC, symSize: 0x70 }
  - { offset: 0xA6031, size: 0x8, addend: 0x0, symName: __RINvMNtCsfvfooZQ3Axs_4core6optionINtB3_6OptionINtNtCse1nGBsou5OW_5alloc5boxed3BoxNtNtCs6IAuOt8vWmF_3syn4item5FnArgEE3mapB1h_NCNvXs8_NtB1l_10punctuatedINtB26_10PunctuatedB1h_NtNtB1l_5token5CommaENtNtNtNtB5_4iter6traits7collect12IntoIterator9into_iters_0ECs8noNfkmVAKC_18tracing_attributes, symObjAddr: 0xF60, symBinAddr: 0x3EE5C, symSize: 0x70 }
  - { offset: 0xA60B4, size: 0x8, addend: 0x0, symName: __RINvMNtCsfvfooZQ3Axs_4core6optionINtB3_6OptionINtNtNtB5_3num7nonzero7NonZerojEE6map_orINtNtB5_6result6ResultuBI_ENcNtB1m_3Err0ECs8noNfkmVAKC_18tracing_attributes, symObjAddr: 0xFD0, symBinAddr: 0x3EECC, symSize: 0xA8 }
  - { offset: 0xA615E, size: 0x8, addend: 0x0, symName: __RINvMNtCsfvfooZQ3Axs_4core6optionINtB3_6OptionNtCs3cP53eQoTwO_11proc_macro211TokenStreamE14unwrap_or_elseNCINvNtCs8noNfkmVAKC_18tracing_attributes6expand9gen_blockBI_Es_0EB1M_, symObjAddr: 0x1078, symBinAddr: 0x3EF74, symSize: 0x7C }
  - { offset: 0xA61C1, size: 0x8, addend: 0x0, symName: __RINvMNtCsfvfooZQ3Axs_4core6optionINtB3_6OptionNtCs3cP53eQoTwO_11proc_macro211TokenStreamE14unwrap_or_elseNCINvNtCs8noNfkmVAKC_18tracing_attributes6expand9gen_blockNtNtCs6IAuOt8vWmF_3syn4stmt5BlockEs_0EB1M_, symObjAddr: 0x10F4, symBinAddr: 0x3EFF0, symSize: 0x7C }
  - { offset: 0xA6249, size: 0x8, addend: 0x0, symName: __RINvMNtCsfvfooZQ3Axs_4core6optionINtB3_6OptionQINtNtCse1nGBsou5OW_5alloc5boxed3BoxNtNtCs6IAuOt8vWmF_3syn2ty4TypeEE3mapQB1i_NvYBJ_INtNtB5_7convert5AsMutB1i_E6as_mutECs8noNfkmVAKC_18tracing_attributes, symObjAddr: 0x1170, symBinAddr: 0x3F06C, symSize: 0x50 }
  - { offset: 0xA62D9, size: 0x8, addend: 0x0, symName: __RINvMNtCsfvfooZQ3Axs_4core6optionINtB3_6OptionQINtNtCse1nGBsou5OW_5alloc5boxed3BoxNtNtCs6IAuOt8vWmF_3syn2ty9BareFnArgEE3mapQB1i_NvYBJ_INtNtB5_7convert5AsMutB1i_E6as_mutECs8noNfkmVAKC_18tracing_attributes, symObjAddr: 0x11C0, symBinAddr: 0x3F0BC, symSize: 0x50 }
  - { offset: 0xA6369, size: 0x8, addend: 0x0, symName: __RINvMNtCsfvfooZQ3Axs_4core6optionINtB3_6OptionQINtNtCse1nGBsou5OW_5alloc5boxed3BoxNtNtCs6IAuOt8vWmF_3syn3pat3PatEE3mapQB1i_NvYBJ_INtNtB5_7convert5AsMutB1i_E6as_mutECs8noNfkmVAKC_18tracing_attributes, symObjAddr: 0x1210, symBinAddr: 0x3F10C, symSize: 0x50 }
  - { offset: 0xA63F9, size: 0x8, addend: 0x0, symName: __RINvMNtCsfvfooZQ3Axs_4core6optionINtB3_6OptionQINtNtCse1nGBsou5OW_5alloc5boxed3BoxNtNtCs6IAuOt8vWmF_3syn3pat8FieldPatEE3mapQB1i_NvYBJ_INtNtB5_7convert5AsMutB1i_E6as_mutECs8noNfkmVAKC_18tracing_attributes, symObjAddr: 0x1260, symBinAddr: 0x3F15C, symSize: 0x50 }
  - { offset: 0xA6489, size: 0x8, addend: 0x0, symName: __RINvMNtCsfvfooZQ3Axs_4core6optionINtB3_6OptionQINtNtCse1nGBsou5OW_5alloc5boxed3BoxNtNtCs6IAuOt8vWmF_3syn4data7VariantEE3mapQB1i_NvYBJ_INtNtB5_7convert5AsMutB1i_E6as_mutECs8noNfkmVAKC_18tracing_attributes, symObjAddr: 0x12B0, symBinAddr: 0x3F1AC, symSize: 0x50 }
  - { offset: 0xA6519, size: 0x8, addend: 0x0, symName: __RINvMNtCsfvfooZQ3Axs_4core6optionINtB3_6OptionQINtNtCse1nGBsou5OW_5alloc5boxed3BoxNtNtCs6IAuOt8vWmF_3syn4expr10FieldValueEE3mapQB1i_NvYBJ_INtNtB5_7convert5AsMutB1i_E6as_mutECs8noNfkmVAKC_18tracing_attributes, symObjAddr: 0x1300, symBinAddr: 0x3F1FC, symSize: 0x50 }
  - { offset: 0xA65A9, size: 0x8, addend: 0x0, symName: __RINvMNtCsfvfooZQ3Axs_4core6optionINtB3_6OptionQINtNtCse1nGBsou5OW_5alloc5boxed3BoxNtNtCs6IAuOt8vWmF_3syn4expr4ExprEE3mapQB1i_NvYBJ_INtNtB5_7convert5AsMutB1i_E6as_mutECs8noNfkmVAKC_18tracing_attributes, symObjAddr: 0x1350, symBinAddr: 0x3F24C, symSize: 0x50 }
  - { offset: 0xA6639, size: 0x8, addend: 0x0, symName: __RINvMNtCsfvfooZQ3Axs_4core6optionINtB3_6OptionQINtNtCse1nGBsou5OW_5alloc5boxed3BoxNtNtCs6IAuOt8vWmF_3syn4item5FnArgEE3mapQB1i_NvYBJ_INtNtB5_7convert5AsMutB1i_E6as_mutECs8noNfkmVAKC_18tracing_attributes, symObjAddr: 0x13A0, symBinAddr: 0x3F29C, symSize: 0x50 }
  - { offset: 0xA66C9, size: 0x8, addend: 0x0, symName: __RINvMNtCsfvfooZQ3Axs_4core6optionINtB3_6OptionQINtNtCse1nGBsou5OW_5alloc5boxed3BoxNtNtCs6IAuOt8vWmF_3syn4item7UseTreeEE3mapQB1i_NvYBJ_INtNtB5_7convert5AsMutB1i_E6as_mutECs8noNfkmVAKC_18tracing_attributes, symObjAddr: 0x13F0, symBinAddr: 0x3F2EC, symSize: 0x50 }
  - { offset: 0xA6759, size: 0x8, addend: 0x0, symName: __RINvMNtCsfvfooZQ3Axs_4core6optionINtB3_6OptionQINtNtCse1nGBsou5OW_5alloc5boxed3BoxNtNtCs6IAuOt8vWmF_3syn4path15GenericArgumentEE3mapQB1i_NvYBJ_INtNtB5_7convert5AsMutB1i_E6as_mutECs8noNfkmVAKC_18tracing_attributes, symObjAddr: 0x1440, symBinAddr: 0x3F33C, symSize: 0x50 }
  - { offset: 0xA67E9, size: 0x8, addend: 0x0, symName: __RINvMNtCsfvfooZQ3Axs_4core6optionINtB3_6OptionQINtNtCse1nGBsou5OW_5alloc5boxed3BoxNtNtCs6IAuOt8vWmF_3syn8generics13CapturedParamEE3mapQB1i_NvYBJ_INtNtB5_7convert5AsMutB1i_E6as_mutECs8noNfkmVAKC_18tracing_attributes, symObjAddr: 0x1490, symBinAddr: 0x3F38C, symSize: 0x50 }
  - { offset: 0xA6879, size: 0x8, addend: 0x0, symName: __RINvMNtCsfvfooZQ3Axs_4core6optionINtB3_6OptionQINtNtCse1nGBsou5OW_5alloc5boxed3BoxNtNtCs6IAuOt8vWmF_3syn8generics14TypeParamBoundEE3mapQB1i_NvYBJ_INtNtB5_7convert5AsMutB1i_E6as_mutECs8noNfkmVAKC_18tracing_attributes, symObjAddr: 0x14E0, symBinAddr: 0x3F3DC, symSize: 0x50 }
  - { offset: 0xA6909, size: 0x8, addend: 0x0, symName: __RINvMNtCsfvfooZQ3Axs_4core6optionINtB3_6OptionQINtNtCse1nGBsou5OW_5alloc5boxed3BoxNtNtCs6IAuOt8vWmF_3syn8generics14WherePredicateEE3mapQB1i_NvYBJ_INtNtB5_7convert5AsMutB1i_E6as_mutECs8noNfkmVAKC_18tracing_attributes, symObjAddr: 0x1530, symBinAddr: 0x3F42C, symSize: 0x50 }
  - { offset: 0xA6999, size: 0x8, addend: 0x0, symName: __RINvMNtCsfvfooZQ3Axs_4core6optionINtB3_6OptionQINtNtCse1nGBsou5OW_5alloc5boxed3BoxNtNtCs6IAuOt8vWmF_3syn8lifetime8LifetimeEE3mapQB1i_NvYBJ_INtNtB5_7convert5AsMutB1i_E6as_mutECs8noNfkmVAKC_18tracing_attributes, symObjAddr: 0x1580, symBinAddr: 0x3F47C, symSize: 0x50 }
  - { offset: 0xA6A43, size: 0x8, addend: 0x0, symName: __RINvMNtCsfvfooZQ3Axs_4core6optionINtB3_6OptionQINtNtCse1nGBsou5OW_5alloc5boxed3BoxNtNtCs8noNfkmVAKC_18tracing_attributes4attr5FieldEE3mapQB1i_NvYBJ_INtNtB5_7convert5AsMutB1i_E6as_mutEB1m_, symObjAddr: 0x15D0, symBinAddr: 0x3F4CC, symSize: 0x50 }
  - { offset: 0xA6AC6, size: 0x8, addend: 0x0, symName: __RINvMNtCsfvfooZQ3Axs_4core6optionINtB3_6OptionQNtNtCs6IAuOt8vWmF_3syn2ty4TypeE3mapINtNtBN_10punctuated4PairBI_QNtNtBN_5token5CommaENcNtB1i_3End0ECs8noNfkmVAKC_18tracing_attributes, symObjAddr: 0x1620, symBinAddr: 0x3F51C, symSize: 0x68 }
  - { offset: 0xA6B49, size: 0x8, addend: 0x0, symName: __RINvMNtCsfvfooZQ3Axs_4core6optionINtB3_6OptionQNtNtCs6IAuOt8vWmF_3syn2ty9BareFnArgE3mapINtNtBN_10punctuated4PairBI_QNtNtBN_5token5CommaENcNtB1n_3End0ECs8noNfkmVAKC_18tracing_attributes, symObjAddr: 0x1688, symBinAddr: 0x3F584, symSize: 0x68 }
  - { offset: 0xA6BCC, size: 0x8, addend: 0x0, symName: __RINvMNtCsfvfooZQ3Axs_4core6optionINtB3_6OptionQNtNtCs6IAuOt8vWmF_3syn3pat3PatE3mapINtNtBN_10punctuated4PairBI_QNtNtBN_5token2OrENcNtB1i_3End0ECs8noNfkmVAKC_18tracing_attributes, symObjAddr: 0x16F0, symBinAddr: 0x3F5EC, symSize: 0x68 }
  - { offset: 0xA6C4F, size: 0x8, addend: 0x0, symName: __RINvMNtCsfvfooZQ3Axs_4core6optionINtB3_6OptionQNtNtCs6IAuOt8vWmF_3syn3pat3PatE3mapINtNtBN_10punctuated4PairBI_QNtNtBN_5token5CommaENcNtB1i_3End0ECs8noNfkmVAKC_18tracing_attributes, symObjAddr: 0x1758, symBinAddr: 0x3F654, symSize: 0x68 }
  - { offset: 0xA6CD2, size: 0x8, addend: 0x0, symName: __RINvMNtCsfvfooZQ3Axs_4core6optionINtB3_6OptionQNtNtCs6IAuOt8vWmF_3syn3pat8FieldPatE3mapINtNtBN_10punctuated4PairBI_QNtNtBN_5token5CommaENcNtB1n_3End0ECs8noNfkmVAKC_18tracing_attributes, symObjAddr: 0x17C0, symBinAddr: 0x3F6BC, symSize: 0x68 }
  - { offset: 0xA6D55, size: 0x8, addend: 0x0, symName: __RINvMNtCsfvfooZQ3Axs_4core6optionINtB3_6OptionQNtNtCs6IAuOt8vWmF_3syn4data5FieldE3mapINtNtBN_10punctuated4PairBI_QNtNtBN_5token5CommaENcNtB1l_3End0ECs8noNfkmVAKC_18tracing_attributes, symObjAddr: 0x1828, symBinAddr: 0x3F724, symSize: 0x68 }
  - { offset: 0xA6DD8, size: 0x8, addend: 0x0, symName: __RINvMNtCsfvfooZQ3Axs_4core6optionINtB3_6OptionQNtNtCs6IAuOt8vWmF_3syn4data7VariantE3mapINtNtBN_10punctuated4PairBI_QNtNtBN_5token5CommaENcNtB1n_3End0ECs8noNfkmVAKC_18tracing_attributes, symObjAddr: 0x1890, symBinAddr: 0x3F78C, symSize: 0x68 }
  - { offset: 0xA6E5B, size: 0x8, addend: 0x0, symName: __RINvMNtCsfvfooZQ3Axs_4core6optionINtB3_6OptionQNtNtCs6IAuOt8vWmF_3syn4expr10FieldValueE3mapINtNtBN_10punctuated4PairBI_QNtNtBN_5token5CommaENcNtB1r_3End0ECs8noNfkmVAKC_18tracing_attributes, symObjAddr: 0x18F8, symBinAddr: 0x3F7F4, symSize: 0x68 }
  - { offset: 0xA6EDE, size: 0x8, addend: 0x0, symName: __RINvMNtCsfvfooZQ3Axs_4core6optionINtB3_6OptionQNtNtCs6IAuOt8vWmF_3syn4expr4ExprE3mapINtNtBN_10punctuated4PairBI_QNtNtBN_5token5CommaENcNtB1k_3End0ECs8noNfkmVAKC_18tracing_attributes, symObjAddr: 0x1960, symBinAddr: 0x3F85C, symSize: 0x68 }
  - { offset: 0xA6F61, size: 0x8, addend: 0x0, symName: __RINvMNtCsfvfooZQ3Axs_4core6optionINtB3_6OptionQNtNtCs6IAuOt8vWmF_3syn4item5FnArgE3mapINtNtBN_10punctuated4PairBI_QNtNtBN_5token5CommaENcNtB1l_3End0ECs8noNfkmVAKC_18tracing_attributes, symObjAddr: 0x19C8, symBinAddr: 0x3F8C4, symSize: 0x68 }
  - { offset: 0xA6FE4, size: 0x8, addend: 0x0, symName: __RINvMNtCsfvfooZQ3Axs_4core6optionINtB3_6OptionQNtNtCs6IAuOt8vWmF_3syn4item7UseTreeE3mapINtNtBN_10punctuated4PairBI_QNtNtBN_5token5CommaENcNtB1n_3End0ECs8noNfkmVAKC_18tracing_attributes, symObjAddr: 0x1A30, symBinAddr: 0x3F92C, symSize: 0x68 }
  - { offset: 0xA7067, size: 0x8, addend: 0x0, symName: __RINvMNtCsfvfooZQ3Axs_4core6optionINtB3_6OptionQNtNtCs6IAuOt8vWmF_3syn4path11PathSegmentE3mapINtNtBN_10punctuated4PairBI_QNtNtBN_5token7PathSepENcNtB1s_3End0ECs8noNfkmVAKC_18tracing_attributes, symObjAddr: 0x1A98, symBinAddr: 0x3F994, symSize: 0x68 }
  - { offset: 0xA70EA, size: 0x8, addend: 0x0, symName: __RINvMNtCsfvfooZQ3Axs_4core6optionINtB3_6OptionQNtNtCs6IAuOt8vWmF_3syn4path15GenericArgumentE3mapINtNtBN_10punctuated4PairBI_QNtNtBN_5token5CommaENcNtB1w_3End0ECs8noNfkmVAKC_18tracing_attributes, symObjAddr: 0x1B00, symBinAddr: 0x3F9FC, symSize: 0x68 }
  - { offset: 0xA716D, size: 0x8, addend: 0x0, symName: __RINvMNtCsfvfooZQ3Axs_4core6optionINtB3_6OptionQNtNtCs6IAuOt8vWmF_3syn8generics12GenericParamE3mapINtNtBN_10punctuated4PairBI_QNtNtBN_5token5CommaENcNtB1x_3End0ECs8noNfkmVAKC_18tracing_attributes, symObjAddr: 0x1B68, symBinAddr: 0x3FA64, symSize: 0x68 }
  - { offset: 0xA71F0, size: 0x8, addend: 0x0, symName: __RINvMNtCsfvfooZQ3Axs_4core6optionINtB3_6OptionQNtNtCs6IAuOt8vWmF_3syn8generics13CapturedParamE3mapINtNtBN_10punctuated4PairBI_QNtNtBN_5token5CommaENcNtB1y_3End0ECs8noNfkmVAKC_18tracing_attributes, symObjAddr: 0x1BD0, symBinAddr: 0x3FACC, symSize: 0x68 }
  - { offset: 0xA7273, size: 0x8, addend: 0x0, symName: __RINvMNtCsfvfooZQ3Axs_4core6optionINtB3_6OptionQNtNtCs6IAuOt8vWmF_3syn8generics14TypeParamBoundE3mapINtNtBN_10punctuated4PairBI_QNtNtBN_5token4PlusENcNtB1z_3End0ECs8noNfkmVAKC_18tracing_attributes, symObjAddr: 0x1C38, symBinAddr: 0x3FB34, symSize: 0x68 }
  - { offset: 0xA72F6, size: 0x8, addend: 0x0, symName: __RINvMNtCsfvfooZQ3Axs_4core6optionINtB3_6OptionQNtNtCs6IAuOt8vWmF_3syn8generics14WherePredicateE3mapINtNtBN_10punctuated4PairBI_QNtNtBN_5token5CommaENcNtB1z_3End0ECs8noNfkmVAKC_18tracing_attributes, symObjAddr: 0x1CA0, symBinAddr: 0x3FB9C, symSize: 0x68 }
  - { offset: 0xA7379, size: 0x8, addend: 0x0, symName: __RINvMNtCsfvfooZQ3Axs_4core6optionINtB3_6OptionQNtNtCs6IAuOt8vWmF_3syn8lifetime8LifetimeE3mapINtNtBN_10punctuated4PairBI_QNtNtBN_5token4PlusENcNtB1s_3End0ECs8noNfkmVAKC_18tracing_attributes, symObjAddr: 0x1D08, symBinAddr: 0x3FC04, symSize: 0x68 }
  - { offset: 0xA73F1, size: 0x8, addend: 0x0, symName: __RINvMNtCsfvfooZQ3Axs_4core6optionINtB3_6OptionQNtNtCs8noNfkmVAKC_18tracing_attributes4attr5FieldE7or_elseNCNvXsF_NtCs6IAuOt8vWmF_3syn10punctuatedINtB1N_14PrivateIterMutBJ_NtNtB1P_5token5CommaENtNtNtNtB5_4iter6traits8iterator8Iterator4nexts_0EBN_, symObjAddr: 0x1D70, symBinAddr: 0x3FC6C, symSize: 0xA8 }
  - { offset: 0xA74A5, size: 0x8, addend: 0x0, symName: __RINvMNtCsfvfooZQ3Axs_4core6optionINtB3_6OptionQNtNtCs8noNfkmVAKC_18tracing_attributes4attr5FieldE7or_elseNCNvXsG_NtCs6IAuOt8vWmF_3syn10punctuatedINtB1N_14PrivateIterMutBJ_NtNtB1P_5token5CommaENtNtNtNtB5_4iter6traits12double_ended19DoubleEndedIterator9next_back0EBN_, symObjAddr: 0x1E18, symBinAddr: 0x3FD14, symSize: 0xA8 }
  - { offset: 0xA7514, size: 0x8, addend: 0x0, symName: __RINvMNtCsfvfooZQ3Axs_4core6optionINtB3_6OptionQTNtNtCs6IAuOt8vWmF_3syn2ty4TypeNtNtBO_5token5CommaEE3mapINtNtBO_10punctuated4PairQBK_QB1e_ENCNvXsg_B1G_INtB1G_8PairsMutBK_B1e_ENtNtNtNtB5_4iter6traits8iterator8Iterator4next0ECs8noNfkmVAKC_18tracing_attributes, symObjAddr: 0x1EC0, symBinAddr: 0x3FDBC, symSize: 0x68 }
  - { offset: 0xA758C, size: 0x8, addend: 0x0, symName: __RINvMNtCsfvfooZQ3Axs_4core6optionINtB3_6OptionQTNtNtCs6IAuOt8vWmF_3syn2ty9BareFnArgNtNtBO_5token5CommaEE3mapINtNtBO_10punctuated4PairQBK_QB1j_ENCNvXsg_B1L_INtB1L_8PairsMutBK_B1j_ENtNtNtNtB5_4iter6traits8iterator8Iterator4next0ECs8noNfkmVAKC_18tracing_attributes, symObjAddr: 0x1F28, symBinAddr: 0x3FE24, symSize: 0x68 }
  - { offset: 0xA7604, size: 0x8, addend: 0x0, symName: __RINvMNtCsfvfooZQ3Axs_4core6optionINtB3_6OptionQTNtNtCs6IAuOt8vWmF_3syn3pat3PatNtNtBO_5token2OrEE3mapINtNtBO_10punctuated4PairQBK_QB1e_ENCNvXsg_B1D_INtB1D_8PairsMutBK_B1e_ENtNtNtNtB5_4iter6traits8iterator8Iterator4next0ECs8noNfkmVAKC_18tracing_attributes, symObjAddr: 0x1F90, symBinAddr: 0x3FE8C, symSize: 0x68 }
  - { offset: 0xA767C, size: 0x8, addend: 0x0, symName: __RINvMNtCsfvfooZQ3Axs_4core6optionINtB3_6OptionQTNtNtCs6IAuOt8vWmF_3syn3pat3PatNtNtBO_5token5CommaEE3mapINtNtBO_10punctuated4PairQBK_QB1e_ENCNvXsg_B1G_INtB1G_8PairsMutBK_B1e_ENtNtNtNtB5_4iter6traits8iterator8Iterator4next0ECs8noNfkmVAKC_18tracing_attributes, symObjAddr: 0x1FF8, symBinAddr: 0x3FEF4, symSize: 0x68 }
  - { offset: 0xA76F4, size: 0x8, addend: 0x0, symName: __RINvMNtCsfvfooZQ3Axs_4core6optionINtB3_6OptionQTNtNtCs6IAuOt8vWmF_3syn3pat8FieldPatNtNtBO_5token5CommaEE3mapINtNtBO_10punctuated4PairQBK_QB1j_ENCNvXsg_B1L_INtB1L_8PairsMutBK_B1j_ENtNtNtNtB5_4iter6traits8iterator8Iterator4next0ECs8noNfkmVAKC_18tracing_attributes, symObjAddr: 0x2060, symBinAddr: 0x3FF5C, symSize: 0x68 }
  - { offset: 0xA776C, size: 0x8, addend: 0x0, symName: __RINvMNtCsfvfooZQ3Axs_4core6optionINtB3_6OptionQTNtNtCs6IAuOt8vWmF_3syn4data5FieldNtNtBO_5token5CommaEE3mapINtNtBO_10punctuated4PairQBK_QB1h_ENCNvXsg_B1J_INtB1J_8PairsMutBK_B1h_ENtNtNtNtB5_4iter6traits8iterator8Iterator4next0ECs8noNfkmVAKC_18tracing_attributes, symObjAddr: 0x20C8, symBinAddr: 0x3FFC4, symSize: 0x68 }
  - { offset: 0xA77E4, size: 0x8, addend: 0x0, symName: __RINvMNtCsfvfooZQ3Axs_4core6optionINtB3_6OptionQTNtNtCs6IAuOt8vWmF_3syn4data7VariantNtNtBO_5token5CommaEE3mapINtNtBO_10punctuated4PairQBK_QB1j_ENCNvXsg_B1L_INtB1L_8PairsMutBK_B1j_ENtNtNtNtB5_4iter6traits8iterator8Iterator4next0ECs8noNfkmVAKC_18tracing_attributes, symObjAddr: 0x2130, symBinAddr: 0x4002C, symSize: 0x68 }
  - { offset: 0xA785C, size: 0x8, addend: 0x0, symName: __RINvMNtCsfvfooZQ3Axs_4core6optionINtB3_6OptionQTNtNtCs6IAuOt8vWmF_3syn4expr10FieldValueNtNtBO_5token5CommaEE3mapINtNtBO_10punctuated4PairQBK_QB1n_ENCNvXsg_B1P_INtB1P_8PairsMutBK_B1n_ENtNtNtNtB5_4iter6traits8iterator8Iterator4next0ECs8noNfkmVAKC_18tracing_attributes, symObjAddr: 0x2198, symBinAddr: 0x40094, symSize: 0x68 }
  - { offset: 0xA78D4, size: 0x8, addend: 0x0, symName: __RINvMNtCsfvfooZQ3Axs_4core6optionINtB3_6OptionQTNtNtCs6IAuOt8vWmF_3syn4expr4ExprNtNtBO_5token5CommaEE3mapINtNtBO_10punctuated4PairQBK_QB1g_ENCNvXsg_B1I_INtB1I_8PairsMutBK_B1g_ENtNtNtNtB5_4iter6traits8iterator8Iterator4next0ECs8noNfkmVAKC_18tracing_attributes, symObjAddr: 0x2200, symBinAddr: 0x400FC, symSize: 0x68 }
  - { offset: 0xA794C, size: 0x8, addend: 0x0, symName: __RINvMNtCsfvfooZQ3Axs_4core6optionINtB3_6OptionQTNtNtCs6IAuOt8vWmF_3syn4item5FnArgNtNtBO_5token5CommaEE3mapINtNtBO_10punctuated4PairQBK_QB1h_ENCNvXsg_B1J_INtB1J_8PairsMutBK_B1h_ENtNtNtNtB5_4iter6traits8iterator8Iterator4next0ECs8noNfkmVAKC_18tracing_attributes, symObjAddr: 0x2268, symBinAddr: 0x40164, symSize: 0x68 }
  - { offset: 0xA79C4, size: 0x8, addend: 0x0, symName: __RINvMNtCsfvfooZQ3Axs_4core6optionINtB3_6OptionQTNtNtCs6IAuOt8vWmF_3syn4item7UseTreeNtNtBO_5token5CommaEE3mapINtNtBO_10punctuated4PairQBK_QB1j_ENCNvXsg_B1L_INtB1L_8PairsMutBK_B1j_ENtNtNtNtB5_4iter6traits8iterator8Iterator4next0ECs8noNfkmVAKC_18tracing_attributes, symObjAddr: 0x22D0, symBinAddr: 0x401CC, symSize: 0x68 }
  - { offset: 0xA7A3C, size: 0x8, addend: 0x0, symName: __RINvMNtCsfvfooZQ3Axs_4core6optionINtB3_6OptionQTNtNtCs6IAuOt8vWmF_3syn4path11PathSegmentNtNtBO_5token7PathSepEE3mapINtNtBO_10punctuated4PairQBK_QB1o_ENCNvXsg_B1S_INtB1S_8PairsMutBK_B1o_ENtNtNtNtB5_4iter6traits8iterator8Iterator4next0ECs8noNfkmVAKC_18tracing_attributes, symObjAddr: 0x2338, symBinAddr: 0x40234, symSize: 0x68 }
  - { offset: 0xA7AB4, size: 0x8, addend: 0x0, symName: __RINvMNtCsfvfooZQ3Axs_4core6optionINtB3_6OptionQTNtNtCs6IAuOt8vWmF_3syn4path15GenericArgumentNtNtBO_5token5CommaEE3mapINtNtBO_10punctuated4PairQBK_QB1s_ENCNvXsg_B1U_INtB1U_8PairsMutBK_B1s_ENtNtNtNtB5_4iter6traits8iterator8Iterator4next0ECs8noNfkmVAKC_18tracing_attributes, symObjAddr: 0x23A0, symBinAddr: 0x4029C, symSize: 0x68 }
  - { offset: 0xA7B2C, size: 0x8, addend: 0x0, symName: __RINvMNtCsfvfooZQ3Axs_4core6optionINtB3_6OptionQTNtNtCs6IAuOt8vWmF_3syn8generics12GenericParamNtNtBO_5token5CommaEE3mapINtNtBO_10punctuated4PairQBK_QB1t_ENCNvXsg_B1V_INtB1V_8PairsMutBK_B1t_ENtNtNtNtB5_4iter6traits8iterator8Iterator4next0ECs8noNfkmVAKC_18tracing_attributes, symObjAddr: 0x2408, symBinAddr: 0x40304, symSize: 0x68 }
  - { offset: 0xA7BA4, size: 0x8, addend: 0x0, symName: __RINvMNtCsfvfooZQ3Axs_4core6optionINtB3_6OptionQTNtNtCs6IAuOt8vWmF_3syn8generics13CapturedParamNtNtBO_5token5CommaEE3mapINtNtBO_10punctuated4PairQBK_QB1u_ENCNvXsg_B1W_INtB1W_8PairsMutBK_B1u_ENtNtNtNtB5_4iter6traits8iterator8Iterator4next0ECs8noNfkmVAKC_18tracing_attributes, symObjAddr: 0x2470, symBinAddr: 0x4036C, symSize: 0x68 }
  - { offset: 0xA7C1C, size: 0x8, addend: 0x0, symName: __RINvMNtCsfvfooZQ3Axs_4core6optionINtB3_6OptionQTNtNtCs6IAuOt8vWmF_3syn8generics14TypeParamBoundNtNtBO_5token4PlusEE3mapINtNtBO_10punctuated4PairQBK_QB1v_ENCNvXsg_B1W_INtB1W_8PairsMutBK_B1v_ENtNtNtNtB5_4iter6traits8iterator8Iterator4next0ECs8noNfkmVAKC_18tracing_attributes, symObjAddr: 0x24D8, symBinAddr: 0x403D4, symSize: 0x68 }
  - { offset: 0xA7C94, size: 0x8, addend: 0x0, symName: __RINvMNtCsfvfooZQ3Axs_4core6optionINtB3_6OptionQTNtNtCs6IAuOt8vWmF_3syn8generics14WherePredicateNtNtBO_5token5CommaEE3mapINtNtBO_10punctuated4PairQBK_QB1v_ENCNvXsg_B1X_INtB1X_8PairsMutBK_B1v_ENtNtNtNtB5_4iter6traits8iterator8Iterator4next0ECs8noNfkmVAKC_18tracing_attributes, symObjAddr: 0x2540, symBinAddr: 0x4043C, symSize: 0x68 }
  - { offset: 0xA7D0C, size: 0x8, addend: 0x0, symName: __RINvMNtCsfvfooZQ3Axs_4core6optionINtB3_6OptionQTNtNtCs6IAuOt8vWmF_3syn8lifetime8LifetimeNtNtBO_5token4PlusEE3mapINtNtBO_10punctuated4PairQBK_QB1o_ENCNvXsg_B1P_INtB1P_8PairsMutBK_B1o_ENtNtNtNtB5_4iter6traits8iterator8Iterator4next0ECs8noNfkmVAKC_18tracing_attributes, symObjAddr: 0x25A8, symBinAddr: 0x404A4, symSize: 0x68 }
  - { offset: 0xA7D77, size: 0x8, addend: 0x0, symName: __RINvMNtCsfvfooZQ3Axs_4core6optionINtB3_6OptionQTNtNtCs8noNfkmVAKC_18tracing_attributes4attr5FieldNtNtCs6IAuOt8vWmF_3syn5token5CommaEE3mapQBK_NCNCNvXsG_NtB1B_10punctuatedINtB2p_14PrivateIterMutBK_B1x_ENtNtNtNtB5_4iter6traits12double_ended19DoubleEndedIterator9next_back00EBO_, symObjAddr: 0x2610, symBinAddr: 0x4050C, symSize: 0x50 }
  - { offset: 0xA7DE2, size: 0x8, addend: 0x0, symName: __RINvMNtCsfvfooZQ3Axs_4core6optionINtB3_6OptionQTNtNtCs8noNfkmVAKC_18tracing_attributes4attr5FieldNtNtCs6IAuOt8vWmF_3syn5token5CommaEE3mapQBK_NCNvXsF_NtB1B_10punctuatedINtB2n_14PrivateIterMutBK_B1x_ENtNtNtNtB5_4iter6traits8iterator8Iterator4next0EBO_, symObjAddr: 0x2660, symBinAddr: 0x4055C, symSize: 0x50 }
  - { offset: 0xA7ED8, size: 0x8, addend: 0x0, symName: __RINvMNtCsfvfooZQ3Axs_4core6optionINtB3_6OptionRINtNtCse1nGBsou5OW_5alloc5boxed3BoxDNtNtNtNtB5_4iter6traits8iterator8Iteratorp4ItemTNtCs3cP53eQoTwO_11proc_macro25IdentNtNtCs8noNfkmVAKC_18tracing_attributes6expand10RecordTypeEEL_EE6map_orTjIBw_jEENvYBJ_B1j_9size_hintEB2I_, symObjAddr: 0x26B0, symBinAddr: 0x405AC, symSize: 0xAC }
  - { offset: 0xA7F78, size: 0x8, addend: 0x0, symName: __RINvMNtCsfvfooZQ3Axs_4core6optionINtB3_6OptionRINtNtCse1nGBsou5OW_5alloc5boxed3BoxNtCs3cP53eQoTwO_11proc_macro25IdentEE3mapRB1i_NvYBJ_INtNtB5_7convert5AsRefB1i_E6as_refECs8noNfkmVAKC_18tracing_attributes, symObjAddr: 0x275C, symBinAddr: 0x40658, symSize: 0x50 }
  - { offset: 0xA8008, size: 0x8, addend: 0x0, symName: __RINvMNtCsfvfooZQ3Axs_4core6optionINtB3_6OptionRINtNtCse1nGBsou5OW_5alloc5boxed3BoxNtNtCs8noNfkmVAKC_18tracing_attributes4attr5FieldEE3mapRB1i_NvYBJ_INtNtB5_7convert5AsRefB1i_E6as_refEB1m_, symObjAddr: 0x27AC, symBinAddr: 0x406A8, symSize: 0x50 }
  - { offset: 0xA808B, size: 0x8, addend: 0x0, symName: __RINvMNtCsfvfooZQ3Axs_4core6optionINtB3_6OptionRNtCs3cP53eQoTwO_11proc_macro25IdentE3mapINtNtCs6IAuOt8vWmF_3syn10punctuated4PairBI_RNtNtB1s_5token3DotENcNtB1n_3End0ECs8noNfkmVAKC_18tracing_attributes, symObjAddr: 0x27FC, symBinAddr: 0x406F8, symSize: 0x68 }
  - { offset: 0xA80F6, size: 0x8, addend: 0x0, symName: __RINvMNtCsfvfooZQ3Axs_4core6optionINtB3_6OptionRNtCs3cP53eQoTwO_11proc_macro25IdentE7or_elseNCNvXsw_NtCs6IAuOt8vWmF_3syn10punctuatedINtB1z_11PrivateIterBJ_NtNtB1B_5token3DotENtNtNtNtB5_4iter6traits8iterator8Iterator4nexts_0ECs8noNfkmVAKC_18tracing_attributes, symObjAddr: 0x2864, symBinAddr: 0x40760, symSize: 0xA8 }
  - { offset: 0xA817F, size: 0x8, addend: 0x0, symName: __RINvMNtCsfvfooZQ3Axs_4core6optionINtB3_6OptionRNtCs3cP53eQoTwO_11proc_macro25IdentE7or_elseNCNvXsx_NtCs6IAuOt8vWmF_3syn10punctuatedINtB1z_11PrivateIterBJ_NtNtB1B_5token3DotENtNtNtNtB5_4iter6traits12double_ended19DoubleEndedIterator9next_back0ECs8noNfkmVAKC_18tracing_attributes, symObjAddr: 0x290C, symBinAddr: 0x40808, symSize: 0xA8 }
  - { offset: 0xA81EE, size: 0x8, addend: 0x0, symName: __RINvMNtCsfvfooZQ3Axs_4core6optionINtB3_6OptionRNtNtCs6IAuOt8vWmF_3syn4path11PathSegmentE3mapbNCNvMNtCs8noNfkmVAKC_18tracing_attributes6expandNtB1y_10RecordType13parse_from_ty0EB1A_, symObjAddr: 0x29B4, symBinAddr: 0x408B0, symSize: 0x54 }
  - { offset: 0xA8266, size: 0x8, addend: 0x0, symName: __RINvMNtCsfvfooZQ3Axs_4core6optionINtB3_6OptionRNtNtCs8noNfkmVAKC_18tracing_attributes4attr13LitStrOrIdentE3mapNtCs3cP53eQoTwO_11proc_macro211TokenStreamNCINvNtBN_6expand9gen_blockB1K_E0EBN_, symObjAddr: 0x2A08, symBinAddr: 0x40904, symSize: 0x6C }
  - { offset: 0xA82D1, size: 0x8, addend: 0x0, symName: __RINvMNtCsfvfooZQ3Axs_4core6optionINtB3_6OptionRNtNtCs8noNfkmVAKC_18tracing_attributes4attr13LitStrOrIdentE3mapNtCs3cP53eQoTwO_11proc_macro211TokenStreamNCINvNtBN_6expand9gen_blockNtNtCs6IAuOt8vWmF_3syn4stmt5BlockE0EBN_, symObjAddr: 0x2A74, symBinAddr: 0x40970, symSize: 0x6C }
  - { offset: 0xA8354, size: 0x8, addend: 0x0, symName: __RINvMNtCsfvfooZQ3Axs_4core6optionINtB3_6OptionRNtNtCs8noNfkmVAKC_18tracing_attributes4attr5FieldE3mapINtNtCs6IAuOt8vWmF_3syn10punctuated4PairBI_RNtNtB1G_5token5CommaENcNtB1B_3End0EBN_, symObjAddr: 0x2AE0, symBinAddr: 0x409DC, symSize: 0x68 }
  - { offset: 0xA83BF, size: 0x8, addend: 0x0, symName: __RINvMNtCsfvfooZQ3Axs_4core6optionINtB3_6OptionRNtNtCs8noNfkmVAKC_18tracing_attributes4attr5FieldE7or_elseNCNvXsw_NtCs6IAuOt8vWmF_3syn10punctuatedINtB1N_11PrivateIterBJ_NtNtB1P_5token5CommaENtNtNtNtB5_4iter6traits8iterator8Iterator4nexts_0EBN_, symObjAddr: 0x2B48, symBinAddr: 0x40A44, symSize: 0xA8 }
  - { offset: 0xA843B, size: 0x8, addend: 0x0, symName: __RINvMNtCsfvfooZQ3Axs_4core6optionINtB3_6OptionRNtNtCs8noNfkmVAKC_18tracing_attributes4attr5FieldE7or_elseNCNvXsx_NtCs6IAuOt8vWmF_3syn10punctuatedINtB1N_11PrivateIterBJ_NtNtB1P_5token5CommaENtNtNtNtB5_4iter6traits12double_ended19DoubleEndedIterator9next_back0EBN_, symObjAddr: 0x2BF0, symBinAddr: 0x40AEC, symSize: 0xA8 }
  - { offset: 0xA849D, size: 0x8, addend: 0x0, symName: __RINvMNtCsfvfooZQ3Axs_4core6optionINtB3_6OptionRTNtCs3cP53eQoTwO_11proc_macro25IdentNtNtCs6IAuOt8vWmF_3syn5token3DotEE3mapINtNtB1n_10punctuated4PairRBK_RB1j_ENCNvXsc_B1Y_INtB1Y_5PairsBK_B1j_ENtNtNtNtB5_4iter6traits8iterator8Iterator4next0ECs8noNfkmVAKC_18tracing_attributes, symObjAddr: 0x2C98, symBinAddr: 0x40B94, symSize: 0x68 }
  - { offset: 0xA8508, size: 0x8, addend: 0x0, symName: __RINvMNtCsfvfooZQ3Axs_4core6optionINtB3_6OptionRTNtCs3cP53eQoTwO_11proc_macro25IdentNtNtCs6IAuOt8vWmF_3syn5token3DotEE3mapRBK_NCNCNvXsx_NtB1n_10punctuatedINtB29_11PrivateIterBK_B1j_ENtNtNtNtB5_4iter6traits12double_ended19DoubleEndedIterator9next_back00ECs8noNfkmVAKC_18tracing_attributes, symObjAddr: 0x2D00, symBinAddr: 0x40BFC, symSize: 0x50 }
  - { offset: 0xA8573, size: 0x8, addend: 0x0, symName: __RINvMNtCsfvfooZQ3Axs_4core6optionINtB3_6OptionRTNtCs3cP53eQoTwO_11proc_macro25IdentNtNtCs6IAuOt8vWmF_3syn5token3DotEE3mapRBK_NCNvXsw_NtB1n_10punctuatedINtB27_11PrivateIterBK_B1j_ENtNtNtNtB5_4iter6traits8iterator8Iterator4next0ECs8noNfkmVAKC_18tracing_attributes, symObjAddr: 0x2D50, symBinAddr: 0x40C4C, symSize: 0x50 }
  - { offset: 0xA85DE, size: 0x8, addend: 0x0, symName: __RINvMNtCsfvfooZQ3Axs_4core6optionINtB3_6OptionRTNtNtCs8noNfkmVAKC_18tracing_attributes4attr5FieldNtNtCs6IAuOt8vWmF_3syn5token5CommaEE3mapINtNtB1B_10punctuated4PairRBK_RB1x_ENCNvXsc_B2e_INtB2e_5PairsBK_B1x_ENtNtNtNtB5_4iter6traits8iterator8Iterator4next0EBO_, symObjAddr: 0x2DA0, symBinAddr: 0x40C9C, symSize: 0x68 }
  - { offset: 0xA8649, size: 0x8, addend: 0x0, symName: __RINvMNtCsfvfooZQ3Axs_4core6optionINtB3_6OptionRTNtNtCs8noNfkmVAKC_18tracing_attributes4attr5FieldNtNtCs6IAuOt8vWmF_3syn5token5CommaEE3mapRBK_NCNCNvXsx_NtB1B_10punctuatedINtB2p_11PrivateIterBK_B1x_ENtNtNtNtB5_4iter6traits12double_ended19DoubleEndedIterator9next_back00EBO_, symObjAddr: 0x2E08, symBinAddr: 0x40D04, symSize: 0x50 }
  - { offset: 0xA86B4, size: 0x8, addend: 0x0, symName: __RINvMNtCsfvfooZQ3Axs_4core6optionINtB3_6OptionRTNtNtCs8noNfkmVAKC_18tracing_attributes4attr5FieldNtNtCs6IAuOt8vWmF_3syn5token5CommaEE3mapRBK_NCNvXsw_NtB1B_10punctuatedINtB2n_11PrivateIterBK_B1x_ENtNtNtNtB5_4iter6traits8iterator8Iterator4next0EBO_, symObjAddr: 0x2E58, symBinAddr: 0x40D54, symSize: 0x50 }
  - { offset: 0xA878B, size: 0x8, addend: 0x0, symName: __RNvMNtCsfvfooZQ3Axs_4core6optionINtB2_6OptionINtNtB4_4cell4CellTyyEEE4takeCs8noNfkmVAKC_18tracing_attributes, symObjAddr: 0x3778, symBinAddr: 0x41674, symSize: 0x3C }
  - { offset: 0xA8881, size: 0x8, addend: 0x0, symName: __RNvMNtCsfvfooZQ3Axs_4core6optionINtB2_6OptionINtNtCse1nGBsou5OW_5alloc5boxed3BoxDNtNtNtNtB4_4iter6traits8iterator8Iteratorp4ItemTNtCs3cP53eQoTwO_11proc_macro25IdentNtNtCs8noNfkmVAKC_18tracing_attributes6expand10RecordTypeEEL_EE6insertB2G_, symObjAddr: 0x37B4, symBinAddr: 0x416B0, symSize: 0xC0 }
  - { offset: 0xA8920, size: 0x8, addend: 0x0, symName: __RNvMNtCsfvfooZQ3Axs_4core6optionINtB2_6OptionINtNtCse1nGBsou5OW_5alloc5boxed3BoxNtCs3cP53eQoTwO_11proc_macro25IdentEE4takeCs8noNfkmVAKC_18tracing_attributes, symObjAddr: 0x3874, symBinAddr: 0x41770, symSize: 0x28 }
  - { offset: 0xA89B3, size: 0x8, addend: 0x0, symName: __RNvMNtCsfvfooZQ3Axs_4core6optionINtB2_6OptionINtNtCse1nGBsou5OW_5alloc5boxed3BoxNtCs3cP53eQoTwO_11proc_macro25IdentEE6as_refCs8noNfkmVAKC_18tracing_attributes, symObjAddr: 0x389C, symBinAddr: 0x41798, symSize: 0x4C }
  - { offset: 0xA8A19, size: 0x8, addend: 0x0, symName: __RNvMNtCsfvfooZQ3Axs_4core6optionINtB2_6OptionINtNtCse1nGBsou5OW_5alloc5boxed3BoxNtCs3cP53eQoTwO_11proc_macro25IdentEE7is_noneCs8noNfkmVAKC_18tracing_attributes, symObjAddr: 0x38E8, symBinAddr: 0x417E4, symSize: 0x28 }
  - { offset: 0xA8A63, size: 0x8, addend: 0x0, symName: __RNvMNtCsfvfooZQ3Axs_4core6optionINtB2_6OptionINtNtCse1nGBsou5OW_5alloc5boxed3BoxNtCs3cP53eQoTwO_11proc_macro25IdentEE7is_someCs8noNfkmVAKC_18tracing_attributes, symObjAddr: 0x3910, symBinAddr: 0x4180C, symSize: 0x28 }
  - { offset: 0xA8A9C, size: 0x8, addend: 0x0, symName: __RNvMNtCsfvfooZQ3Axs_4core6optionINtB2_6OptionINtNtCse1nGBsou5OW_5alloc5boxed3BoxNtNtCs6IAuOt8vWmF_3syn2ty4TypeEE6as_mutCs8noNfkmVAKC_18tracing_attributes, symObjAddr: 0x3938, symBinAddr: 0x41834, symSize: 0x4C }
  - { offset: 0xA8AF3, size: 0x8, addend: 0x0, symName: __RNvMNtCsfvfooZQ3Axs_4core6optionINtB2_6OptionINtNtCse1nGBsou5OW_5alloc5boxed3BoxNtNtCs6IAuOt8vWmF_3syn2ty9BareFnArgEE6as_mutCs8noNfkmVAKC_18tracing_attributes, symObjAddr: 0x3984, symBinAddr: 0x41880, symSize: 0x4C }
  - { offset: 0xA8B4A, size: 0x8, addend: 0x0, symName: __RNvMNtCsfvfooZQ3Axs_4core6optionINtB2_6OptionINtNtCse1nGBsou5OW_5alloc5boxed3BoxNtNtCs6IAuOt8vWmF_3syn3pat3PatEE6as_mutCs8noNfkmVAKC_18tracing_attributes, symObjAddr: 0x39D0, symBinAddr: 0x418CC, symSize: 0x4C }
  - { offset: 0xA8BA1, size: 0x8, addend: 0x0, symName: __RNvMNtCsfvfooZQ3Axs_4core6optionINtB2_6OptionINtNtCse1nGBsou5OW_5alloc5boxed3BoxNtNtCs6IAuOt8vWmF_3syn3pat8FieldPatEE6as_mutCs8noNfkmVAKC_18tracing_attributes, symObjAddr: 0x3A1C, symBinAddr: 0x41918, symSize: 0x4C }
  - { offset: 0xA8BF8, size: 0x8, addend: 0x0, symName: __RNvMNtCsfvfooZQ3Axs_4core6optionINtB2_6OptionINtNtCse1nGBsou5OW_5alloc5boxed3BoxNtNtCs6IAuOt8vWmF_3syn4data7VariantEE6as_mutCs8noNfkmVAKC_18tracing_attributes, symObjAddr: 0x3A68, symBinAddr: 0x41964, symSize: 0x4C }
  - { offset: 0xA8C4F, size: 0x8, addend: 0x0, symName: __RNvMNtCsfvfooZQ3Axs_4core6optionINtB2_6OptionINtNtCse1nGBsou5OW_5alloc5boxed3BoxNtNtCs6IAuOt8vWmF_3syn4expr10FieldValueEE6as_mutCs8noNfkmVAKC_18tracing_attributes, symObjAddr: 0x3AB4, symBinAddr: 0x419B0, symSize: 0x4C }
  - { offset: 0xA8CA6, size: 0x8, addend: 0x0, symName: __RNvMNtCsfvfooZQ3Axs_4core6optionINtB2_6OptionINtNtCse1nGBsou5OW_5alloc5boxed3BoxNtNtCs6IAuOt8vWmF_3syn4expr4ExprEE6as_mutCs8noNfkmVAKC_18tracing_attributes, symObjAddr: 0x3B00, symBinAddr: 0x419FC, symSize: 0x4C }
  - { offset: 0xA8CFD, size: 0x8, addend: 0x0, symName: __RNvMNtCsfvfooZQ3Axs_4core6optionINtB2_6OptionINtNtCse1nGBsou5OW_5alloc5boxed3BoxNtNtCs6IAuOt8vWmF_3syn4item5FnArgEE6as_mutCs8noNfkmVAKC_18tracing_attributes, symObjAddr: 0x3B4C, symBinAddr: 0x41A48, symSize: 0x4C }
  - { offset: 0xA8D54, size: 0x8, addend: 0x0, symName: __RNvMNtCsfvfooZQ3Axs_4core6optionINtB2_6OptionINtNtCse1nGBsou5OW_5alloc5boxed3BoxNtNtCs6IAuOt8vWmF_3syn4item7UseTreeEE6as_mutCs8noNfkmVAKC_18tracing_attributes, symObjAddr: 0x3B98, symBinAddr: 0x41A94, symSize: 0x4C }
  - { offset: 0xA8DAB, size: 0x8, addend: 0x0, symName: __RNvMNtCsfvfooZQ3Axs_4core6optionINtB2_6OptionINtNtCse1nGBsou5OW_5alloc5boxed3BoxNtNtCs6IAuOt8vWmF_3syn4path15GenericArgumentEE6as_mutCs8noNfkmVAKC_18tracing_attributes, symObjAddr: 0x3BE4, symBinAddr: 0x41AE0, symSize: 0x4C }
  - { offset: 0xA8E02, size: 0x8, addend: 0x0, symName: __RNvMNtCsfvfooZQ3Axs_4core6optionINtB2_6OptionINtNtCse1nGBsou5OW_5alloc5boxed3BoxNtNtCs6IAuOt8vWmF_3syn8generics13CapturedParamEE6as_mutCs8noNfkmVAKC_18tracing_attributes, symObjAddr: 0x3C30, symBinAddr: 0x41B2C, symSize: 0x4C }
  - { offset: 0xA8E59, size: 0x8, addend: 0x0, symName: __RNvMNtCsfvfooZQ3Axs_4core6optionINtB2_6OptionINtNtCse1nGBsou5OW_5alloc5boxed3BoxNtNtCs6IAuOt8vWmF_3syn8generics14TypeParamBoundEE6as_mutCs8noNfkmVAKC_18tracing_attributes, symObjAddr: 0x3C7C, symBinAddr: 0x41B78, symSize: 0x4C }
  - { offset: 0xA8EB0, size: 0x8, addend: 0x0, symName: __RNvMNtCsfvfooZQ3Axs_4core6optionINtB2_6OptionINtNtCse1nGBsou5OW_5alloc5boxed3BoxNtNtCs6IAuOt8vWmF_3syn8generics14WherePredicateEE6as_mutCs8noNfkmVAKC_18tracing_attributes, symObjAddr: 0x3CC8, symBinAddr: 0x41BC4, symSize: 0x4C }
  - { offset: 0xA8F07, size: 0x8, addend: 0x0, symName: __RNvMNtCsfvfooZQ3Axs_4core6optionINtB2_6OptionINtNtCse1nGBsou5OW_5alloc5boxed3BoxNtNtCs6IAuOt8vWmF_3syn8lifetime8LifetimeEE6as_mutCs8noNfkmVAKC_18tracing_attributes, symObjAddr: 0x3D14, symBinAddr: 0x41C10, symSize: 0x4C }
  - { offset: 0xA8F5E, size: 0x8, addend: 0x0, symName: __RNvMNtCsfvfooZQ3Axs_4core6optionINtB2_6OptionINtNtCse1nGBsou5OW_5alloc5boxed3BoxNtNtCs8noNfkmVAKC_18tracing_attributes4attr5FieldEE4takeB1k_, symObjAddr: 0x3D60, symBinAddr: 0x41C5C, symSize: 0x28 }
  - { offset: 0xA8FE4, size: 0x8, addend: 0x0, symName: __RNvMNtCsfvfooZQ3Axs_4core6optionINtB2_6OptionINtNtCse1nGBsou5OW_5alloc5boxed3BoxNtNtCs8noNfkmVAKC_18tracing_attributes4attr5FieldEE6as_mutB1k_, symObjAddr: 0x3D88, symBinAddr: 0x41C84, symSize: 0x4C }
  - { offset: 0xA903B, size: 0x8, addend: 0x0, symName: __RNvMNtCsfvfooZQ3Axs_4core6optionINtB2_6OptionINtNtCse1nGBsou5OW_5alloc5boxed3BoxNtNtCs8noNfkmVAKC_18tracing_attributes4attr5FieldEE6as_refB1k_, symObjAddr: 0x3DD4, symBinAddr: 0x41CD0, symSize: 0x4C }
  - { offset: 0xA90A1, size: 0x8, addend: 0x0, symName: __RNvMNtCsfvfooZQ3Axs_4core6optionINtB2_6OptionINtNtCse1nGBsou5OW_5alloc5boxed3BoxNtNtCs8noNfkmVAKC_18tracing_attributes4attr5FieldEE7is_noneB1k_, symObjAddr: 0x3E20, symBinAddr: 0x41D1C, symSize: 0x28 }
  - { offset: 0xA90EB, size: 0x8, addend: 0x0, symName: __RNvMNtCsfvfooZQ3Axs_4core6optionINtB2_6OptionINtNtCse1nGBsou5OW_5alloc5boxed3BoxNtNtCs8noNfkmVAKC_18tracing_attributes4attr5FieldEE7is_someB1k_, symObjAddr: 0x3E48, symBinAddr: 0x41D44, symSize: 0x28 }
  - { offset: 0xA9131, size: 0x8, addend: 0x0, symName: __RNvMNtCsfvfooZQ3Axs_4core6optionINtB2_6OptionNtNtCs6IAuOt8vWmF_3syn2ty8TypePathE6as_refCs8noNfkmVAKC_18tracing_attributes, symObjAddr: 0x3E70, symBinAddr: 0x41D6C, symSize: 0x50 }
  - { offset: 0xA91C0, size: 0x8, addend: 0x0, symName: __RNvMNtCsfvfooZQ3Axs_4core6optionINtB2_6OptionNtNtCs6IAuOt8vWmF_3syn4expr4ExprE4iterCs8noNfkmVAKC_18tracing_attributes, symObjAddr: 0x3EC0, symBinAddr: 0x41DBC, symSize: 0x4C }
  - { offset: 0xA922D, size: 0x8, addend: 0x0, symName: __RNvMNtCsfvfooZQ3Axs_4core6optionINtB2_6OptionNtNtCs6IAuOt8vWmF_3syn4expr4ExprE6as_mutCs8noNfkmVAKC_18tracing_attributes, symObjAddr: 0x3F0C, symBinAddr: 0x41E08, symSize: 0x4C }
  - { offset: 0xA9284, size: 0x8, addend: 0x0, symName: __RNvMNtCsfvfooZQ3Axs_4core6optionINtB2_6OptionNtNtCs6IAuOt8vWmF_3syn5token5AsyncE7is_someCs8noNfkmVAKC_18tracing_attributes, symObjAddr: 0x3F58, symBinAddr: 0x41E54, symSize: 0x20 }
  - { offset: 0xA92BD, size: 0x8, addend: 0x0, symName: __RNvMNtCsfvfooZQ3Axs_4core6optionINtB2_6OptionNtNtCs6IAuOt8vWmF_3syn5token5ConstE7is_someCs8noNfkmVAKC_18tracing_attributes, symObjAddr: 0x3F78, symBinAddr: 0x41E74, symSize: 0x20 }
  - { offset: 0xA92F6, size: 0x8, addend: 0x0, symName: __RNvMNtCsfvfooZQ3Axs_4core6optionINtB2_6OptionNtNtCs8noNfkmVAKC_18tracing_attributes4attr13LitStrOrIdentE6as_refBL_, symObjAddr: 0x3F98, symBinAddr: 0x41E94, symSize: 0x4C }
  - { offset: 0xA9340, size: 0x8, addend: 0x0, symName: __RNvMNtCsfvfooZQ3Axs_4core6optionINtB2_6OptionNtNtCs8noNfkmVAKC_18tracing_attributes4attr13LitStrOrIdentE7is_someBL_, symObjAddr: 0x3FE4, symBinAddr: 0x41EE0, symSize: 0x28 }
  - { offset: 0xA9379, size: 0x8, addend: 0x0, symName: __RNvMNtCsfvfooZQ3Axs_4core6optionINtB2_6OptionNtNtCs8noNfkmVAKC_18tracing_attributes4attr5LevelE7is_someBL_, symObjAddr: 0x400C, symBinAddr: 0x41F08, symSize: 0x30 }
  - { offset: 0xA93A5, size: 0x8, addend: 0x0, symName: __RNvMNtCsfvfooZQ3Axs_4core6optionINtB2_6OptionNtNtCs8noNfkmVAKC_18tracing_attributes4attr5LevelE9unwrap_orBL_, symObjAddr: 0x403C, symBinAddr: 0x41F38, symSize: 0x90 }
  - { offset: 0xA940D, size: 0x8, addend: 0x0, symName: __RNvMNtCsfvfooZQ3Axs_4core6optionINtB2_6OptionNtNtCs8noNfkmVAKC_18tracing_attributes4attr6FieldsE7is_someBL_, symObjAddr: 0x40CC, symBinAddr: 0x41FC8, symSize: 0x2C }
  - { offset: 0xA947E, size: 0x8, addend: 0x0, symName: __RNvMNtCsfvfooZQ3Axs_4core6optionINtB2_6OptionRNtCs3cP53eQoTwO_11proc_macro25IdentE4iterCs8noNfkmVAKC_18tracing_attributes, symObjAddr: 0x40F8, symBinAddr: 0x41FF4, symSize: 0x4C }
  - { offset: 0xA94EB, size: 0x8, addend: 0x0, symName: __RNvMNtCsfvfooZQ3Axs_4core6optionINtB2_6OptionRNtNtCs6IAuOt8vWmF_3syn2ty8TypePathE7is_someCs8noNfkmVAKC_18tracing_attributes, symObjAddr: 0x4144, symBinAddr: 0x42040, symSize: 0x28 }
  - { offset: 0xA9517, size: 0x8, addend: 0x0, symName: __RNvMNtCsfvfooZQ3Axs_4core6optionINtB2_6OptionbE9unwrap_orCs8noNfkmVAKC_18tracing_attributes, symObjAddr: 0x416C, symBinAddr: 0x42068, symSize: 0x5C }
  - { offset: 0xA957F, size: 0x8, addend: 0x0, symName: __RNvXNtCs2cqEZUIJimJ_5quote9to_tokensRINtNtCsfvfooZQ3Axs_4core6option6OptionNtNtCs6IAuOt8vWmF_3syn2ty3AbiENtB2_8ToTokens9to_tokensCs8noNfkmVAKC_18tracing_attributes, symObjAddr: 0x41C8, symBinAddr: 0x420C4, symSize: 0x40 }
  - { offset: 0xA95BE, size: 0x8, addend: 0x0, symName: __RNvXNtCs2cqEZUIJimJ_5quote9to_tokensRINtNtCsfvfooZQ3Axs_4core6option6OptionNtNtCs6IAuOt8vWmF_3syn5token2GtENtB2_8ToTokens9to_tokensCs8noNfkmVAKC_18tracing_attributes, symObjAddr: 0x4208, symBinAddr: 0x42104, symSize: 0x40 }
  - { offset: 0xA95FD, size: 0x8, addend: 0x0, symName: __RNvXNtCs2cqEZUIJimJ_5quote9to_tokensRINtNtCsfvfooZQ3Axs_4core6option6OptionNtNtCs6IAuOt8vWmF_3syn5token2LtENtB2_8ToTokens9to_tokensCs8noNfkmVAKC_18tracing_attributes, symObjAddr: 0x4248, symBinAddr: 0x42144, symSize: 0x40 }
  - { offset: 0xA963C, size: 0x8, addend: 0x0, symName: __RNvXNtCs2cqEZUIJimJ_5quote9to_tokensRINtNtCsfvfooZQ3Axs_4core6option6OptionNtNtCs6IAuOt8vWmF_3syn5token5AsyncENtB2_8ToTokens9to_tokensCs8noNfkmVAKC_18tracing_attributes, symObjAddr: 0x4288, symBinAddr: 0x42184, symSize: 0x40 }
  - { offset: 0xA967B, size: 0x8, addend: 0x0, symName: __RNvXNtCs2cqEZUIJimJ_5quote9to_tokensRINtNtCsfvfooZQ3Axs_4core6option6OptionNtNtCs6IAuOt8vWmF_3syn5token5ConstENtB2_8ToTokens9to_tokensCs8noNfkmVAKC_18tracing_attributes, symObjAddr: 0x42C8, symBinAddr: 0x421C4, symSize: 0x40 }
  - { offset: 0xA96BA, size: 0x8, addend: 0x0, symName: __RNvXNtCs2cqEZUIJimJ_5quote9to_tokensRINtNtCsfvfooZQ3Axs_4core6option6OptionNtNtCs6IAuOt8vWmF_3syn5token6UnsafeENtB2_8ToTokens9to_tokensCs8noNfkmVAKC_18tracing_attributes, symObjAddr: 0x4308, symBinAddr: 0x42204, symSize: 0x40 }
  - { offset: 0xA96F9, size: 0x8, addend: 0x0, symName: __RNvXNtCs2cqEZUIJimJ_5quote9to_tokensRINtNtCsfvfooZQ3Axs_4core6option6OptionNtNtCs8noNfkmVAKC_18tracing_attributes4attr6FieldsENtB2_8ToTokens9to_tokensB1f_, symObjAddr: 0x4348, symBinAddr: 0x42244, symSize: 0x40 }
  - { offset: 0xA973E, size: 0x8, addend: 0x0, symName: __RNvXs3_NtCs2cqEZUIJimJ_5quote9to_tokensINtNtCsfvfooZQ3Axs_4core6option6OptionNtNtCs6IAuOt8vWmF_3syn4item8VariadicENtB5_8ToTokens9to_tokensCs8noNfkmVAKC_18tracing_attributes, symObjAddr: 0x4388, symBinAddr: 0x42284, symSize: 0x88 }
  - { offset: 0xA979A, size: 0x8, addend: 0x0, symName: __RNvXs3_NtCs2cqEZUIJimJ_5quote9to_tokensINtNtCsfvfooZQ3Axs_4core6option6OptionNtNtCs6IAuOt8vWmF_3syn5token2GtENtB5_8ToTokens9to_tokensCs8noNfkmVAKC_18tracing_attributes, symObjAddr: 0x4410, symBinAddr: 0x4230C, symSize: 0x80 }
  - { offset: 0xA97F6, size: 0x8, addend: 0x0, symName: __RNvXs3_NtCs2cqEZUIJimJ_5quote9to_tokensINtNtCsfvfooZQ3Axs_4core6option6OptionNtNtCs6IAuOt8vWmF_3syn5token2LtENtB5_8ToTokens9to_tokensCs8noNfkmVAKC_18tracing_attributes, symObjAddr: 0x4490, symBinAddr: 0x4238C, symSize: 0x80 }
  - { offset: 0xA9852, size: 0x8, addend: 0x0, symName: __RNvXs3_NtCs2cqEZUIJimJ_5quote9to_tokensINtNtCsfvfooZQ3Axs_4core6option6OptionNtNtCs8noNfkmVAKC_18tracing_attributes4attr6FieldsENtB5_8ToTokens9to_tokensB1h_, symObjAddr: 0x4510, symBinAddr: 0x4240C, symSize: 0x88 }
  - { offset: 0xA98BF, size: 0x8, addend: 0x0, symName: __RNvYINtNtCsfvfooZQ3Axs_4core6option4IterNtNtCs6IAuOt8vWmF_3syn4expr4ExprENtNtNtCs2cqEZUIJimJ_5quote9___private3ext14RepIteratorExt15quote_into_iterCs8noNfkmVAKC_18tracing_attributes, symObjAddr: 0x5520, symBinAddr: 0x4341C, symSize: 0x24 }
  - { offset: 0xA9F3E, size: 0x8, addend: 0x0, symName: __RINvMst_NtNtNtCsfvfooZQ3Axs_4core4iter8adapters7flattenINtB6_13FlattenCompatINtNtB8_3map3MapINtNtCs6IAuOt8vWmF_3syn10punctuated8IntoIterNtNtB1x_3pat3PatENCNvNtCs8noNfkmVAKC_18tracing_attributes6expand11param_namess0_0EINtNtCse1nGBsou5OW_5alloc5boxed3BoxDNtNtNtBa_6traits8iterator8Iteratorp4ItemTNtCs3cP53eQoTwO_11proc_macro25IdentNtB2v_10RecordTypeEEL_EE13iter_try_foldjINvNvXsv_B6_IBS_ppEB44_10advance_by7advanceB3u_EINtNtNtBc_3ops12control_flow11ControlFlowujEEB2x_, symObjAddr: 0x0, symBinAddr: 0x4374C, symSize: 0x3A4 }
  - { offset: 0xAA994, size: 0x8, addend: 0x0, symName: __RNCINvNvMst_NtNtNtCsfvfooZQ3Axs_4core4iter8adapters7flattenINtBa_13FlattenCompatppE13iter_try_fold7flattenINtNtCse1nGBsou5OW_5alloc5boxed3BoxDNtNtNtBe_6traits8iterator8Iteratorp4ItemTNtCs3cP53eQoTwO_11proc_macro25IdentNtNtCs8noNfkmVAKC_18tracing_attributes6expand10RecordTypeEEL_EjINtNtNtBg_3ops12control_flow11ControlFlowujEINvNvXsv_Ba_BV_B2g_10advance_by7advanceB1G_EE0B3y_, symObjAddr: 0xD2C, symBinAddr: 0x44478, symSize: 0xD8 }
  - { offset: 0xAAC5C, size: 0x8, addend: 0x0, symName: __RINvNtNtNtCsfvfooZQ3Axs_4core4iter8adapters7flatten17and_then_or_clearINtNtCse1nGBsou5OW_5alloc5boxed3BoxDNtNtNtB6_6traits8iterator8Iteratorp4ItemTNtCs3cP53eQoTwO_11proc_macro25IdentNtNtCs8noNfkmVAKC_18tracing_attributes6expand10RecordTypeEEL_EB2k_NvYB16_B1G_4nextEB2Y_, symObjAddr: 0xAEC, symBinAddr: 0x44238, symSize: 0x120 }
  - { offset: 0xAADA5, size: 0x8, addend: 0x0, symName: __RINvNvXsv_NtNtNtCsfvfooZQ3Axs_4core4iter8adapters7flattenINtB8_13FlattenCompatppENtNtNtBc_6traits8iterator8Iterator10advance_by7advanceINtNtCse1nGBsou5OW_5alloc5boxed3BoxDB1h_p4ItemTNtCs3cP53eQoTwO_11proc_macro25IdentNtNtCs8noNfkmVAKC_18tracing_attributes6expand10RecordTypeEEL_EEB3x_, symObjAddr: 0xC0C, symBinAddr: 0x44358, symSize: 0x88 }
  - { offset: 0xAAE0A, size: 0x8, addend: 0x0, symName: __RNvXsv_NtNtNtCsfvfooZQ3Axs_4core4iter8adapters7flattenINtB5_13FlattenCompatINtNtB7_3map3MapINtNtCs6IAuOt8vWmF_3syn10punctuated8IntoIterNtNtB1w_3pat3PatENCNvNtCs8noNfkmVAKC_18tracing_attributes6expand11param_namess0_0EINtNtCse1nGBsou5OW_5alloc5boxed3BoxDNtNtNtB9_6traits8iterator8Iteratorp4ItemTNtCs3cP53eQoTwO_11proc_macro25IdentNtB2u_10RecordTypeEEL_EEB43_10advance_byB2w_, symObjAddr: 0xFE4, symBinAddr: 0x44730, symSize: 0x60 }
  - { offset: 0xAAE77, size: 0x8, addend: 0x0, symName: __RNvXsv_NtNtNtCsfvfooZQ3Axs_4core4iter8adapters7flattenINtB5_13FlattenCompatINtNtB7_3map3MapINtNtCs6IAuOt8vWmF_3syn10punctuated8IntoIterNtNtB1w_3pat3PatENCNvNtCs8noNfkmVAKC_18tracing_attributes6expand11param_namess0_0EINtNtCse1nGBsou5OW_5alloc5boxed3BoxDNtNtNtB9_6traits8iterator8Iteratorp4ItemTNtCs3cP53eQoTwO_11proc_macro25IdentNtB2u_10RecordTypeEEL_EEB43_4nextB2w_, symObjAddr: 0x1044, symBinAddr: 0x44790, symSize: 0x130 }
  - { offset: 0xAAF09, size: 0x8, addend: 0x0, symName: __RNvXsv_NtNtNtCsfvfooZQ3Axs_4core4iter8adapters7flattenINtB5_13FlattenCompatINtNtB7_3map3MapINtNtCs6IAuOt8vWmF_3syn10punctuated8IntoIterNtNtB1w_3pat3PatENCNvNtCs8noNfkmVAKC_18tracing_attributes6expand11param_namess0_0EINtNtCse1nGBsou5OW_5alloc5boxed3BoxDNtNtNtB9_6traits8iterator8Iteratorp4ItemTNtCs3cP53eQoTwO_11proc_macro25IdentNtB2u_10RecordTypeEEL_EEB43_9size_hintB2w_, symObjAddr: 0x1174, symBinAddr: 0x448C0, symSize: 0x770 }
  - { offset: 0xAB608, size: 0x8, addend: 0x0, symName: __RNvXsv_NtNtNtCsfvfooZQ3Axs_4core4iter8adapters7flattenINtB5_13FlattenCompatINtNtB7_3map3MapINtNtCs6IAuOt8vWmF_3syn10punctuated8IntoIterNtNtB1w_3pat3PatENCNvNtCs8noNfkmVAKC_18tracing_attributes6expand11param_namess_0EINtNtCse1nGBsou5OW_5alloc5boxed3BoxDNtNtNtB9_6traits8iterator8Iteratorp4ItemTNtCs3cP53eQoTwO_11proc_macro25IdentNtB2u_10RecordTypeEEL_EEB42_10advance_byB2w_, symObjAddr: 0x18E4, symBinAddr: 0x45030, symSize: 0x60 }
  - { offset: 0xAB675, size: 0x8, addend: 0x0, symName: __RNvXsv_NtNtNtCsfvfooZQ3Axs_4core4iter8adapters7flattenINtB5_13FlattenCompatINtNtB7_3map3MapINtNtCs6IAuOt8vWmF_3syn10punctuated8IntoIterNtNtB1w_3pat3PatENCNvNtCs8noNfkmVAKC_18tracing_attributes6expand11param_namess_0EINtNtCse1nGBsou5OW_5alloc5boxed3BoxDNtNtNtB9_6traits8iterator8Iteratorp4ItemTNtCs3cP53eQoTwO_11proc_macro25IdentNtB2u_10RecordTypeEEL_EEB42_4nextB2w_, symObjAddr: 0x1944, symBinAddr: 0x45090, symSize: 0x130 }
  - { offset: 0xAB707, size: 0x8, addend: 0x0, symName: __RNvXsv_NtNtNtCsfvfooZQ3Axs_4core4iter8adapters7flattenINtB5_13FlattenCompatINtNtB7_3map3MapINtNtCs6IAuOt8vWmF_3syn10punctuated8IntoIterNtNtB1w_3pat3PatENCNvNtCs8noNfkmVAKC_18tracing_attributes6expand11param_namess_0EINtNtCse1nGBsou5OW_5alloc5boxed3BoxDNtNtNtB9_6traits8iterator8Iteratorp4ItemTNtCs3cP53eQoTwO_11proc_macro25IdentNtB2u_10RecordTypeEEL_EEB42_9size_hintB2w_, symObjAddr: 0x1A74, symBinAddr: 0x451C0, symSize: 0x770 }
  - { offset: 0xABE06, size: 0x8, addend: 0x0, symName: __RNvXsv_NtNtNtCsfvfooZQ3Axs_4core4iter8adapters7flattenINtB5_13FlattenCompatINtNtB7_3map3MapINtNtCs6IAuOt8vWmF_3syn10punctuated8IntoIterNtNtB1w_3pat8FieldPatENCNvNtCs8noNfkmVAKC_18tracing_attributes6expand11param_names0EINtNtCse1nGBsou5OW_5alloc5boxed3BoxDNtNtNtB9_6traits8iterator8Iteratorp4ItemTNtCs3cP53eQoTwO_11proc_macro25IdentNtB2z_10RecordTypeEEL_EEB45_10advance_byB2B_, symObjAddr: 0x21E4, symBinAddr: 0x45930, symSize: 0x60 }
  - { offset: 0xABE73, size: 0x8, addend: 0x0, symName: __RNvXsv_NtNtNtCsfvfooZQ3Axs_4core4iter8adapters7flattenINtB5_13FlattenCompatINtNtB7_3map3MapINtNtCs6IAuOt8vWmF_3syn10punctuated8IntoIterNtNtB1w_3pat8FieldPatENCNvNtCs8noNfkmVAKC_18tracing_attributes6expand11param_names0EINtNtCse1nGBsou5OW_5alloc5boxed3BoxDNtNtNtB9_6traits8iterator8Iteratorp4ItemTNtCs3cP53eQoTwO_11proc_macro25IdentNtB2z_10RecordTypeEEL_EEB45_4nextB2B_, symObjAddr: 0x2244, symBinAddr: 0x45990, symSize: 0x130 }
  - { offset: 0xABF05, size: 0x8, addend: 0x0, symName: __RNvXsv_NtNtNtCsfvfooZQ3Axs_4core4iter8adapters7flattenINtB5_13FlattenCompatINtNtB7_3map3MapINtNtCs6IAuOt8vWmF_3syn10punctuated8IntoIterNtNtB1w_3pat8FieldPatENCNvNtCs8noNfkmVAKC_18tracing_attributes6expand11param_names0EINtNtCse1nGBsou5OW_5alloc5boxed3BoxDNtNtNtB9_6traits8iterator8Iteratorp4ItemTNtCs3cP53eQoTwO_11proc_macro25IdentNtB2z_10RecordTypeEEL_EEB45_9size_hintB2B_, symObjAddr: 0x2374, symBinAddr: 0x45AC0, symSize: 0x770 }
  - { offset: 0xAC604, size: 0x8, addend: 0x0, symName: __RNvXsv_NtNtNtCsfvfooZQ3Axs_4core4iter8adapters7flattenINtB5_13FlattenCompatINtNtB7_3map3MapINtNtCs6IAuOt8vWmF_3syn10punctuated8IntoIterNtNtB1w_4item5FnArgENCNCINvNtCs8noNfkmVAKC_18tracing_attributes6expand9gen_blockNtCs3cP53eQoTwO_11proc_macro211TokenStreamEs0_00EINtNtCse1nGBsou5OW_5alloc5boxed3BoxDNtNtNtB9_6traits8iterator8Iteratorp4ItemTNtB3t_5IdentNtB2A_10RecordTypeEEL_EEB4O_4nextB2C_, symObjAddr: 0x2AE4, symBinAddr: 0x46230, symSize: 0x130 }
  - { offset: 0xAC696, size: 0x8, addend: 0x0, symName: __RNvXsv_NtNtNtCsfvfooZQ3Axs_4core4iter8adapters7flattenINtB5_13FlattenCompatINtNtB7_3map3MapINtNtCs6IAuOt8vWmF_3syn10punctuated8IntoIterNtNtB1w_4item5FnArgENCNCINvNtCs8noNfkmVAKC_18tracing_attributes6expand9gen_blockNtCs3cP53eQoTwO_11proc_macro211TokenStreamEs0_00EINtNtCse1nGBsou5OW_5alloc5boxed3BoxDNtNtNtB9_6traits8iterator8Iteratorp4ItemTNtB3t_5IdentNtB2A_10RecordTypeEEL_EEB4O_9size_hintB2C_, symObjAddr: 0x2C14, symBinAddr: 0x46360, symSize: 0x770 }
  - { offset: 0xACD95, size: 0x8, addend: 0x0, symName: __RNvXsv_NtNtNtCsfvfooZQ3Axs_4core4iter8adapters7flattenINtB5_13FlattenCompatINtNtB7_3map3MapINtNtCs6IAuOt8vWmF_3syn10punctuated8IntoIterNtNtB1w_4item5FnArgENCNCINvNtCs8noNfkmVAKC_18tracing_attributes6expand9gen_blockNtNtB1w_4stmt5BlockEs0_00EINtNtCse1nGBsou5OW_5alloc5boxed3BoxDNtNtNtB9_6traits8iterator8Iteratorp4ItemTNtCs3cP53eQoTwO_11proc_macro25IdentNtB2A_10RecordTypeEEL_EEB4r_4nextB2C_, symObjAddr: 0x3384, symBinAddr: 0x46AD0, symSize: 0x130 }
  - { offset: 0xACE27, size: 0x8, addend: 0x0, symName: __RNvXsv_NtNtNtCsfvfooZQ3Axs_4core4iter8adapters7flattenINtB5_13FlattenCompatINtNtB7_3map3MapINtNtCs6IAuOt8vWmF_3syn10punctuated8IntoIterNtNtB1w_4item5FnArgENCNCINvNtCs8noNfkmVAKC_18tracing_attributes6expand9gen_blockNtNtB1w_4stmt5BlockEs0_00EINtNtCse1nGBsou5OW_5alloc5boxed3BoxDNtNtNtB9_6traits8iterator8Iteratorp4ItemTNtCs3cP53eQoTwO_11proc_macro25IdentNtB2A_10RecordTypeEEL_EEB4r_9size_hintB2C_, symObjAddr: 0x34B4, symBinAddr: 0x46C00, symSize: 0x770 }
  - { offset: 0xAD60A, size: 0x8, addend: 0x0, symName: __RNvXs1_NtNtNtCsfvfooZQ3Axs_4core4iter8adapters7flattenINtB5_7FlatMapINtNtCs6IAuOt8vWmF_3syn10punctuated8IntoIterNtNtB19_3pat3PatEINtNtCse1nGBsou5OW_5alloc5boxed3BoxDNtNtNtB9_6traits8iterator8Iteratorp4ItemTNtCs3cP53eQoTwO_11proc_macro25IdentNtNtCs8noNfkmVAKC_18tracing_attributes6expand10RecordTypeEEL_ENCNvB3T_11param_namess0_0EB2D_10advance_byB3V_, symObjAddr: 0xE04, symBinAddr: 0x44550, symSize: 0x28 }
  - { offset: 0xAD65F, size: 0x8, addend: 0x0, symName: __RNvXs1_NtNtNtCsfvfooZQ3Axs_4core4iter8adapters7flattenINtB5_7FlatMapINtNtCs6IAuOt8vWmF_3syn10punctuated8IntoIterNtNtB19_3pat3PatEINtNtCse1nGBsou5OW_5alloc5boxed3BoxDNtNtNtB9_6traits8iterator8Iteratorp4ItemTNtCs3cP53eQoTwO_11proc_macro25IdentNtNtCs8noNfkmVAKC_18tracing_attributes6expand10RecordTypeEEL_ENCNvB3T_11param_namess0_0EB2D_4nextB3V_, symObjAddr: 0xE2C, symBinAddr: 0x44578, symSize: 0x24 }
  - { offset: 0xAD6A6, size: 0x8, addend: 0x0, symName: __RNvXs1_NtNtNtCsfvfooZQ3Axs_4core4iter8adapters7flattenINtB5_7FlatMapINtNtCs6IAuOt8vWmF_3syn10punctuated8IntoIterNtNtB19_3pat3PatEINtNtCse1nGBsou5OW_5alloc5boxed3BoxDNtNtNtB9_6traits8iterator8Iteratorp4ItemTNtCs3cP53eQoTwO_11proc_macro25IdentNtNtCs8noNfkmVAKC_18tracing_attributes6expand10RecordTypeEEL_ENCNvB3T_11param_namess0_0EB2D_9size_hintB3V_, symObjAddr: 0xE50, symBinAddr: 0x4459C, symSize: 0x24 }
  - { offset: 0xAD6ED, size: 0x8, addend: 0x0, symName: __RNvXs1_NtNtNtCsfvfooZQ3Axs_4core4iter8adapters7flattenINtB5_7FlatMapINtNtCs6IAuOt8vWmF_3syn10punctuated8IntoIterNtNtB19_3pat3PatEINtNtCse1nGBsou5OW_5alloc5boxed3BoxDNtNtNtB9_6traits8iterator8Iteratorp4ItemTNtCs3cP53eQoTwO_11proc_macro25IdentNtNtCs8noNfkmVAKC_18tracing_attributes6expand10RecordTypeEEL_ENCNvB3T_11param_namess_0EB2D_10advance_byB3V_, symObjAddr: 0xE74, symBinAddr: 0x445C0, symSize: 0x28 }
  - { offset: 0xAD742, size: 0x8, addend: 0x0, symName: __RNvXs1_NtNtNtCsfvfooZQ3Axs_4core4iter8adapters7flattenINtB5_7FlatMapINtNtCs6IAuOt8vWmF_3syn10punctuated8IntoIterNtNtB19_3pat3PatEINtNtCse1nGBsou5OW_5alloc5boxed3BoxDNtNtNtB9_6traits8iterator8Iteratorp4ItemTNtCs3cP53eQoTwO_11proc_macro25IdentNtNtCs8noNfkmVAKC_18tracing_attributes6expand10RecordTypeEEL_ENCNvB3T_11param_namess_0EB2D_4nextB3V_, symObjAddr: 0xE9C, symBinAddr: 0x445E8, symSize: 0x24 }
  - { offset: 0xAD789, size: 0x8, addend: 0x0, symName: __RNvXs1_NtNtNtCsfvfooZQ3Axs_4core4iter8adapters7flattenINtB5_7FlatMapINtNtCs6IAuOt8vWmF_3syn10punctuated8IntoIterNtNtB19_3pat3PatEINtNtCse1nGBsou5OW_5alloc5boxed3BoxDNtNtNtB9_6traits8iterator8Iteratorp4ItemTNtCs3cP53eQoTwO_11proc_macro25IdentNtNtCs8noNfkmVAKC_18tracing_attributes6expand10RecordTypeEEL_ENCNvB3T_11param_namess_0EB2D_9size_hintB3V_, symObjAddr: 0xEC0, symBinAddr: 0x4460C, symSize: 0x24 }
  - { offset: 0xAD7D0, size: 0x8, addend: 0x0, symName: __RNvXs1_NtNtNtCsfvfooZQ3Axs_4core4iter8adapters7flattenINtB5_7FlatMapINtNtCs6IAuOt8vWmF_3syn10punctuated8IntoIterNtNtB19_3pat8FieldPatEINtNtCse1nGBsou5OW_5alloc5boxed3BoxDNtNtNtB9_6traits8iterator8Iteratorp4ItemTNtCs3cP53eQoTwO_11proc_macro25IdentNtNtCs8noNfkmVAKC_18tracing_attributes6expand10RecordTypeEEL_ENCNvB3Y_11param_names0EB2I_10advance_byB40_, symObjAddr: 0xEE4, symBinAddr: 0x44630, symSize: 0x28 }
  - { offset: 0xAD825, size: 0x8, addend: 0x0, symName: __RNvXs1_NtNtNtCsfvfooZQ3Axs_4core4iter8adapters7flattenINtB5_7FlatMapINtNtCs6IAuOt8vWmF_3syn10punctuated8IntoIterNtNtB19_3pat8FieldPatEINtNtCse1nGBsou5OW_5alloc5boxed3BoxDNtNtNtB9_6traits8iterator8Iteratorp4ItemTNtCs3cP53eQoTwO_11proc_macro25IdentNtNtCs8noNfkmVAKC_18tracing_attributes6expand10RecordTypeEEL_ENCNvB3Y_11param_names0EB2I_4nextB40_, symObjAddr: 0xF0C, symBinAddr: 0x44658, symSize: 0x24 }
  - { offset: 0xAD86C, size: 0x8, addend: 0x0, symName: __RNvXs1_NtNtNtCsfvfooZQ3Axs_4core4iter8adapters7flattenINtB5_7FlatMapINtNtCs6IAuOt8vWmF_3syn10punctuated8IntoIterNtNtB19_3pat8FieldPatEINtNtCse1nGBsou5OW_5alloc5boxed3BoxDNtNtNtB9_6traits8iterator8Iteratorp4ItemTNtCs3cP53eQoTwO_11proc_macro25IdentNtNtCs8noNfkmVAKC_18tracing_attributes6expand10RecordTypeEEL_ENCNvB3Y_11param_names0EB2I_9size_hintB40_, symObjAddr: 0xF30, symBinAddr: 0x4467C, symSize: 0x24 }
  - { offset: 0xAD8B3, size: 0x8, addend: 0x0, symName: __RNvXs1_NtNtNtCsfvfooZQ3Axs_4core4iter8adapters7flattenINtB5_7FlatMapINtNtCs6IAuOt8vWmF_3syn10punctuated8IntoIterNtNtB19_4item5FnArgEINtNtCse1nGBsou5OW_5alloc5boxed3BoxDNtNtNtB9_6traits8iterator8Iteratorp4ItemTNtCs3cP53eQoTwO_11proc_macro25IdentNtNtCs8noNfkmVAKC_18tracing_attributes6expand10RecordTypeEEL_ENCNCINvB3W_9gen_blockNtB3n_11TokenStreamEs0_00EB2G_4nextB3Y_, symObjAddr: 0xF54, symBinAddr: 0x446A0, symSize: 0x24 }
  - { offset: 0xAD8FA, size: 0x8, addend: 0x0, symName: __RNvXs1_NtNtNtCsfvfooZQ3Axs_4core4iter8adapters7flattenINtB5_7FlatMapINtNtCs6IAuOt8vWmF_3syn10punctuated8IntoIterNtNtB19_4item5FnArgEINtNtCse1nGBsou5OW_5alloc5boxed3BoxDNtNtNtB9_6traits8iterator8Iteratorp4ItemTNtCs3cP53eQoTwO_11proc_macro25IdentNtNtCs8noNfkmVAKC_18tracing_attributes6expand10RecordTypeEEL_ENCNCINvB3W_9gen_blockNtB3n_11TokenStreamEs0_00EB2G_9size_hintB3Y_, symObjAddr: 0xF78, symBinAddr: 0x446C4, symSize: 0x24 }
  - { offset: 0xAD941, size: 0x8, addend: 0x0, symName: __RNvXs1_NtNtNtCsfvfooZQ3Axs_4core4iter8adapters7flattenINtB5_7FlatMapINtNtCs6IAuOt8vWmF_3syn10punctuated8IntoIterNtNtB19_4item5FnArgEINtNtCse1nGBsou5OW_5alloc5boxed3BoxDNtNtNtB9_6traits8iterator8Iteratorp4ItemTNtCs3cP53eQoTwO_11proc_macro25IdentNtNtCs8noNfkmVAKC_18tracing_attributes6expand10RecordTypeEEL_ENCNCINvB3W_9gen_blockNtNtB19_4stmt5BlockEs0_00EB2G_4nextB3Y_, symObjAddr: 0xF9C, symBinAddr: 0x446E8, symSize: 0x24 }
  - { offset: 0xAD988, size: 0x8, addend: 0x0, symName: __RNvXs1_NtNtNtCsfvfooZQ3Axs_4core4iter8adapters7flattenINtB5_7FlatMapINtNtCs6IAuOt8vWmF_3syn10punctuated8IntoIterNtNtB19_4item5FnArgEINtNtCse1nGBsou5OW_5alloc5boxed3BoxDNtNtNtB9_6traits8iterator8Iteratorp4ItemTNtCs3cP53eQoTwO_11proc_macro25IdentNtNtCs8noNfkmVAKC_18tracing_attributes6expand10RecordTypeEEL_ENCNCINvB3W_9gen_blockNtNtB19_4stmt5BlockEs0_00EB2G_9size_hintB3Y_, symObjAddr: 0xFC0, symBinAddr: 0x4470C, symSize: 0x24 }
  - { offset: 0xADFD6, size: 0x8, addend: 0x0, symName: __RINvYINtNtNtNtCsfvfooZQ3Axs_4core4iter8adapters7flatten7FlatMapINtNtCs6IAuOt8vWmF_3syn10punctuated8IntoIterNtNtB14_4item5FnArgEINtNtCse1nGBsou5OW_5alloc5boxed3BoxDNtNtNtBa_6traits8iterator8Iteratorp4ItemTNtCs3cP53eQoTwO_11proc_macro25IdentNtNtCs8noNfkmVAKC_18tracing_attributes6expand10RecordTypeEEL_ENCNCINvB3R_9gen_blockNtB3i_11TokenStreamEs0_00EB2B_3mapTB3g_B3f_ENCB4R_s_0EB3T_, symObjAddr: 0xC94, symBinAddr: 0x443E0, symSize: 0x4C }
  - { offset: 0xAE044, size: 0x8, addend: 0x0, symName: __RINvYINtNtNtNtCsfvfooZQ3Axs_4core4iter8adapters7flatten7FlatMapINtNtCs6IAuOt8vWmF_3syn10punctuated8IntoIterNtNtB14_4item5FnArgEINtNtCse1nGBsou5OW_5alloc5boxed3BoxDNtNtNtBa_6traits8iterator8Iteratorp4ItemTNtCs3cP53eQoTwO_11proc_macro25IdentNtNtCs8noNfkmVAKC_18tracing_attributes6expand10RecordTypeEEL_ENCNCINvB3R_9gen_blockNtNtB14_4stmt5BlockEs0_00EB2B_3mapTB3g_B3f_ENCB4R_s_0EB3T_, symObjAddr: 0xCE0, symBinAddr: 0x4442C, symSize: 0x4C }
  - { offset: 0xAE0B2, size: 0x8, addend: 0x0, symName: __RNvYINtNtNtNtCsfvfooZQ3Axs_4core4iter8adapters7flatten7FlatMapINtNtCs6IAuOt8vWmF_3syn10punctuated8IntoIterNtNtB13_3pat3PatEINtNtCse1nGBsou5OW_5alloc5boxed3BoxDNtNtNtB9_6traits8iterator8Iteratorp4ItemTNtCs3cP53eQoTwO_11proc_macro25IdentNtNtCs8noNfkmVAKC_18tracing_attributes6expand10RecordTypeEEL_ENCNvB3N_11param_namess0_0EB2x_3nthB3P_, symObjAddr: 0x3C24, symBinAddr: 0x47370, symSize: 0x88 }
  - { offset: 0xAE17E, size: 0x8, addend: 0x0, symName: __RNvYINtNtNtNtCsfvfooZQ3Axs_4core4iter8adapters7flatten7FlatMapINtNtCs6IAuOt8vWmF_3syn10punctuated8IntoIterNtNtB13_3pat3PatEINtNtCse1nGBsou5OW_5alloc5boxed3BoxDNtNtNtB9_6traits8iterator8Iteratorp4ItemTNtCs3cP53eQoTwO_11proc_macro25IdentNtNtCs8noNfkmVAKC_18tracing_attributes6expand10RecordTypeEEL_ENCNvB3N_11param_namess_0EB2x_3nthB3P_, symObjAddr: 0x3CAC, symBinAddr: 0x473F8, symSize: 0x88 }
  - { offset: 0xAE24A, size: 0x8, addend: 0x0, symName: __RNvYINtNtNtNtCsfvfooZQ3Axs_4core4iter8adapters7flatten7FlatMapINtNtCs6IAuOt8vWmF_3syn10punctuated8IntoIterNtNtB13_3pat8FieldPatEINtNtCse1nGBsou5OW_5alloc5boxed3BoxDNtNtNtB9_6traits8iterator8Iteratorp4ItemTNtCs3cP53eQoTwO_11proc_macro25IdentNtNtCs8noNfkmVAKC_18tracing_attributes6expand10RecordTypeEEL_ENCNvB3S_11param_names0EB2C_3nthB3U_, symObjAddr: 0x3D34, symBinAddr: 0x47480, symSize: 0x88 }
  - { offset: 0xB7661, size: 0x8, addend: 0x0, symName: __RINvMst_NtNtNtCsfvfooZQ3Axs_4core4iter8adapters7flattenINtB6_13FlattenCompatINtNtB8_3map3MapINtNtCs6IAuOt8vWmF_3syn10punctuated8IntoIterNtNtB1x_3pat3PatENCNvNtCs8noNfkmVAKC_18tracing_attributes6expand11param_namess0_0EINtNtCse1nGBsou5OW_5alloc5boxed3BoxDNtNtNtBa_6traits8iterator8Iteratorp4ItemTNtCs3cP53eQoTwO_11proc_macro25IdentNtB2v_10RecordTypeEEL_EE13iter_try_foldjINvNvXsv_B6_IBS_ppEB44_10advance_by7advanceB3u_EINtNtNtBc_3ops12control_flow11ControlFlowujEEB2x_, symObjAddr: 0x0, symBinAddr: 0x4374C, symSize: 0x3A4 }
  - { offset: 0xB77C5, size: 0x8, addend: 0x0, symName: __RINvMst_NtNtNtCsfvfooZQ3Axs_4core4iter8adapters7flattenINtB6_13FlattenCompatINtNtB8_3map3MapINtNtCs6IAuOt8vWmF_3syn10punctuated8IntoIterNtNtB1x_3pat3PatENCNvNtCs8noNfkmVAKC_18tracing_attributes6expand11param_namess_0EINtNtCse1nGBsou5OW_5alloc5boxed3BoxDNtNtNtBa_6traits8iterator8Iteratorp4ItemTNtCs3cP53eQoTwO_11proc_macro25IdentNtB2v_10RecordTypeEEL_EE13iter_try_foldjINvNvXsv_B6_IBS_ppEB43_10advance_by7advanceB3t_EINtNtNtBc_3ops12control_flow11ControlFlowujEEB2x_, symObjAddr: 0x3A4, symBinAddr: 0x43AF0, symSize: 0x3A4 }
  - { offset: 0xB7936, size: 0x8, addend: 0x0, symName: __RINvMst_NtNtNtCsfvfooZQ3Axs_4core4iter8adapters7flattenINtB6_13FlattenCompatINtNtB8_3map3MapINtNtCs6IAuOt8vWmF_3syn10punctuated8IntoIterNtNtB1x_3pat8FieldPatENCNvNtCs8noNfkmVAKC_18tracing_attributes6expand11param_names0EINtNtCse1nGBsou5OW_5alloc5boxed3BoxDNtNtNtBa_6traits8iterator8Iteratorp4ItemTNtCs3cP53eQoTwO_11proc_macro25IdentNtB2A_10RecordTypeEEL_EE13iter_try_foldjINvNvXsv_B6_IBS_ppEB46_10advance_by7advanceB3w_EINtNtNtBc_3ops12control_flow11ControlFlowujEEB2C_, symObjAddr: 0x748, symBinAddr: 0x43E94, symSize: 0x3A4 }
  - { offset: 0xB7F48, size: 0x8, addend: 0x0, symName: __RINvCs6IAuOt8vWmF_3syn5parseNtCs8noNfkmVAKC_18tracing_attributes11MaybeItemFnEBs_, symObjAddr: 0x0, symBinAddr: 0x47508, symSize: 0x30 }
  - { offset: 0xB8B57, size: 0x8, addend: 0x0, symName: __RNCNvMNtCs8noNfkmVAKC_18tracing_attributes4attrNtB4_14InstrumentArgs8warnings0B6_, symObjAddr: 0x1108, symBinAddr: 0x48610, symSize: 0x6BC }
  - { offset: 0xB8D18, size: 0x8, addend: 0x0, symName: __RNvXs_NtCs8noNfkmVAKC_18tracing_attributes4attrNtB4_14InstrumentArgsNtNtCs6IAuOt8vWmF_3syn5parse5Parse5parse, symObjAddr: 0x17C4, symBinAddr: 0x48CCC, symSize: 0x18F0 }
  - { offset: 0xB8FD6, size: 0x8, addend: 0x0, symName: __RNvXs1_NtCs8noNfkmVAKC_18tracing_attributes4attrNtB5_9EventArgsNtNtCs6IAuOt8vWmF_3syn5parse5Parse5parse, symObjAddr: 0x3168, symBinAddr: 0x4A670, symSize: 0x464 }
  - { offset: 0xB90BF, size: 0x8, addend: 0x0, symName: __RNCNvXs1_NtCs8noNfkmVAKC_18tracing_attributes4attrNtB7_9EventArgsNtNtCs6IAuOt8vWmF_3syn5parse5Parse5parse0B9_, symObjAddr: 0x35CC, symBinAddr: 0x4AAD4, symSize: 0x5A8 }
  - { offset: 0xB919C, size: 0x8, addend: 0x0, symName: __RNvXs2_NtCs8noNfkmVAKC_18tracing_attributes4attrNtB5_13LitStrOrIdentNtNtCs2cqEZUIJimJ_5quote9to_tokens8ToTokens9to_tokens, symObjAddr: 0x3B74, symBinAddr: 0x4B07C, symSize: 0x94 }
  - { offset: 0xB920A, size: 0x8, addend: 0x0, symName: __RNvXs3_NtCs8noNfkmVAKC_18tracing_attributes4attrNtB5_13LitStrOrIdentNtNtCs6IAuOt8vWmF_3syn5parse5Parse5parse, symObjAddr: 0x3C08, symBinAddr: 0x4B110, symSize: 0x68 }
  - { offset: 0xB923B, size: 0x8, addend: 0x0, symName: __RNCNvXs3_NtCs8noNfkmVAKC_18tracing_attributes4attrNtB7_13LitStrOrIdentNtNtCs6IAuOt8vWmF_3syn5parse5Parse5parse0B9_, symObjAddr: 0x3C70, symBinAddr: 0x4B178, symSize: 0x88 }
  - { offset: 0xB927B, size: 0x8, addend: 0x0, symName: __RNvXs4_NtCs8noNfkmVAKC_18tracing_attributes4attrINtB5_6StrArgNtNtB5_2kw4nameENtNtCs6IAuOt8vWmF_3syn5parse5Parse5parseB7_, symObjAddr: 0x3CF8, symBinAddr: 0x4B200, symSize: 0x1D4 }
  - { offset: 0xB9328, size: 0x8, addend: 0x0, symName: __RNvXs4_NtCs8noNfkmVAKC_18tracing_attributes4attrINtB5_6StrArgNtNtB5_2kw6targetENtNtCs6IAuOt8vWmF_3syn5parse5Parse5parseB7_, symObjAddr: 0x3ECC, symBinAddr: 0x4B3D4, symSize: 0x1D4 }
  - { offset: 0xB93DB, size: 0x8, addend: 0x0, symName: __RNvXs5_NtCs8noNfkmVAKC_18tracing_attributes4attrINtB5_7ExprArgNtNtB5_2kw12follows_fromENtNtCs6IAuOt8vWmF_3syn5parse5Parse5parseB7_, symObjAddr: 0x40A0, symBinAddr: 0x4B5A8, symSize: 0x1E4 }
  - { offset: 0xB948E, size: 0x8, addend: 0x0, symName: __RNvXs5_NtCs8noNfkmVAKC_18tracing_attributes4attrINtB5_7ExprArgNtNtB5_2kw6parentENtNtCs6IAuOt8vWmF_3syn5parse5Parse5parseB7_, symObjAddr: 0x4284, symBinAddr: 0x4B78C, symSize: 0x1E4 }
  - { offset: 0xB9547, size: 0x8, addend: 0x0, symName: __RNvXs6_NtCs8noNfkmVAKC_18tracing_attributes4attrNtB5_5SkipsNtNtCs6IAuOt8vWmF_3syn5parse5Parse5parse, symObjAddr: 0x4468, symBinAddr: 0x4B970, symSize: 0x4AC }
  - { offset: 0xB965B, size: 0x8, addend: 0x0, symName: __RNvXs7_NtCs8noNfkmVAKC_18tracing_attributes4attrNtB5_6FieldsNtNtCs6IAuOt8vWmF_3syn5parse5Parse5parse, symObjAddr: 0x4914, symBinAddr: 0x4BE1C, symSize: 0x218 }
  - { offset: 0xB9711, size: 0x8, addend: 0x0, symName: __RNvXs8_NtCs8noNfkmVAKC_18tracing_attributes4attrNtB5_6FieldsNtNtCs2cqEZUIJimJ_5quote9to_tokens8ToTokens9to_tokens, symObjAddr: 0x4B2C, symBinAddr: 0x4C034, symSize: 0x3C }
  - { offset: 0xB9750, size: 0x8, addend: 0x0, symName: __RNvXs9_NtCs8noNfkmVAKC_18tracing_attributes4attrNtB5_5FieldNtNtCs6IAuOt8vWmF_3syn5parse5Parse5parse, symObjAddr: 0x4B68, symBinAddr: 0x4C070, symSize: 0x664 }
  - { offset: 0xB98A9, size: 0x8, addend: 0x0, symName: __RNvXsa_NtCs8noNfkmVAKC_18tracing_attributes4attrNtB5_5FieldNtNtCs2cqEZUIJimJ_5quote9to_tokens8ToTokens9to_tokens, symObjAddr: 0x51CC, symBinAddr: 0x4C6D4, symSize: 0x278 }
  - { offset: 0xB9971, size: 0x8, addend: 0x0, symName: __RNvXsb_NtCs8noNfkmVAKC_18tracing_attributes4attrNtB5_9FieldKindNtNtCs2cqEZUIJimJ_5quote9to_tokens8ToTokens9to_tokens, symObjAddr: 0x5444, symBinAddr: 0x4C94C, symSize: 0x13C }
  - { offset: 0xB99DD, size: 0x8, addend: 0x0, symName: __RNvXsc_NtCs8noNfkmVAKC_18tracing_attributes4attrNtB5_5LevelNtNtCs6IAuOt8vWmF_3syn5parse5Parse5parse, symObjAddr: 0x5580, symBinAddr: 0x4CA88, symSize: 0xB10 }
  - { offset: 0xB9CC9, size: 0x8, addend: 0x0, symName: __RNvNvXsc_NtCs8noNfkmVAKC_18tracing_attributes4attrNtB7_5LevelNtNtCs6IAuOt8vWmF_3syn5parse5Parse5parse8is_level, symObjAddr: 0x6090, symBinAddr: 0x4D598, symSize: 0xA0 }
  - { offset: 0xB9D2B, size: 0x8, addend: 0x0, symName: __RNvXsd_NtCs8noNfkmVAKC_18tracing_attributes4attrNtB5_5LevelNtNtCs2cqEZUIJimJ_5quote9to_tokens8ToTokens9to_tokens, symObjAddr: 0x6130, symBinAddr: 0x4D638, symSize: 0x550 }
  - { offset: 0xB9E0B, size: 0x8, addend: 0x0, symName: __RNvXse_NtCs8noNfkmVAKC_18tracing_attributes4attrNtB5_9EventArgsNtNtCsfvfooZQ3Axs_4core5clone5Clone5cloneB7_, symObjAddr: 0x6680, symBinAddr: 0x4DB88, symSize: 0x88 }
  - { offset: 0xB9E3D, size: 0x8, addend: 0x0, symName: __RNvXsf_NtCs8noNfkmVAKC_18tracing_attributes4attrNtB5_9EventArgsNtNtCsfvfooZQ3Axs_4core7default7Default7defaultB7_, symObjAddr: 0x6708, symBinAddr: 0x4DC10, symSize: 0x78 }
  - { offset: 0xB9E60, size: 0x8, addend: 0x0, symName: __RNvXsh_NtCs8noNfkmVAKC_18tracing_attributes4attrNtB5_14InstrumentArgsNtNtCsfvfooZQ3Axs_4core5clone5Clone5cloneB7_, symObjAddr: 0x6780, symBinAddr: 0x4DC88, symSize: 0x2E8 }
  - { offset: 0xB9E92, size: 0x8, addend: 0x0, symName: __RNvXsi_NtCs8noNfkmVAKC_18tracing_attributes4attrNtB5_14InstrumentArgsNtNtCsfvfooZQ3Axs_4core7default7Default7defaultB7_, symObjAddr: 0x6A68, symBinAddr: 0x4DF70, symSize: 0x280 }
  - { offset: 0xB9ECF, size: 0x8, addend: 0x0, symName: __RNcNtNtNtCs8noNfkmVAKC_18tracing_attributes4attr13LitStrOrIdent6LitStr0B7_, symObjAddr: 0x6CE8, symBinAddr: 0x4E1F0, symSize: 0x24 }
  - { offset: 0xB9EFD, size: 0x8, addend: 0x0, symName: __RNcNtNtNtCs8noNfkmVAKC_18tracing_attributes4attr13LitStrOrIdent5Ident0B7_, symObjAddr: 0x6D0C, symBinAddr: 0x4E214, symSize: 0x18 }
  - { offset: 0xB9F2C, size: 0x8, addend: 0x0, symName: __RNvXsl_NtCs8noNfkmVAKC_18tracing_attributes4attrNtB5_13LitStrOrIdentNtNtCsfvfooZQ3Axs_4core5clone5Clone5cloneB7_, symObjAddr: 0x6D24, symBinAddr: 0x4E22C, symSize: 0x8C }
  - { offset: 0xB9F98, size: 0x8, addend: 0x0, symName: __RNvXsm_NtCs8noNfkmVAKC_18tracing_attributes4attrNtB5_10FormatModeNtNtCsfvfooZQ3Axs_4core5clone5Clone5cloneB7_, symObjAddr: 0x6DB0, symBinAddr: 0x4E2B8, symSize: 0x5C }
  - { offset: 0xB9FCC, size: 0x8, addend: 0x0, symName: __RNvXsq_NtCs8noNfkmVAKC_18tracing_attributes4attrNtB5_10FormatModeNtNtCsfvfooZQ3Axs_4core3cmp9PartialEq2eqB7_, symObjAddr: 0x6E0C, symBinAddr: 0x4E314, symSize: 0x34 }
  - { offset: 0xBA04B, size: 0x8, addend: 0x0, symName: __RNvXss_NtCs8noNfkmVAKC_18tracing_attributes4attrNtB5_10FormatModeNtNtCsfvfooZQ3Axs_4core7default7Default7defaultB7_, symObjAddr: 0x6E40, symBinAddr: 0x4E348, symSize: 0x14 }
  - { offset: 0xBA06F, size: 0x8, addend: 0x0, symName: __RNvXst_NtCs8noNfkmVAKC_18tracing_attributes4attrNtB5_6FieldsNtNtCsfvfooZQ3Axs_4core5clone5Clone5cloneB7_, symObjAddr: 0x6E54, symBinAddr: 0x4E35C, symSize: 0x40 }
  - { offset: 0xBA0A3, size: 0x8, addend: 0x0, symName: __RNvXsv_NtCs8noNfkmVAKC_18tracing_attributes4attrNtB5_5FieldNtNtCsfvfooZQ3Axs_4core5clone5Clone5cloneB7_, symObjAddr: 0x6E94, symBinAddr: 0x4E39C, symSize: 0xD0 }
  - { offset: 0xBA0D7, size: 0x8, addend: 0x0, symName: __RNvXsx_NtCs8noNfkmVAKC_18tracing_attributes4attrNtB5_9FieldKindNtNtCsfvfooZQ3Axs_4core5clone5Clone5cloneB7_, symObjAddr: 0x6F64, symBinAddr: 0x4E46C, symSize: 0x5C }
  - { offset: 0xBA10B, size: 0x8, addend: 0x0, symName: __RNvXsB_NtCs8noNfkmVAKC_18tracing_attributes4attrNtB5_9FieldKindNtNtCsfvfooZQ3Axs_4core3cmp9PartialEq2eqB7_, symObjAddr: 0x6FC0, symBinAddr: 0x4E4C8, symSize: 0x34 }
  - { offset: 0xBA18A, size: 0x8, addend: 0x0, symName: __RNvXsC_NtCs8noNfkmVAKC_18tracing_attributes4attrNtB5_5LevelNtNtCsfvfooZQ3Axs_4core5clone5Clone5cloneB7_, symObjAddr: 0x6FF4, symBinAddr: 0x4E4FC, symSize: 0x118 }
  - { offset: 0xBD778, size: 0x8, addend: 0x0, symName: __RINvNtCsfvfooZQ3Axs_4core9panicking13panic_displayNtNtCs6IAuOt8vWmF_3syn5error5ErrorECs8noNfkmVAKC_18tracing_attributes, symObjAddr: 0x2FC, symBinAddr: 0x47804, symSize: 0x88 }
  - { offset: 0xBDAC9, size: 0x8, addend: 0x0, symName: __RNvMNtCsfvfooZQ3Axs_4core5sliceSTNtNtCs6IAuOt8vWmF_3syn4expr10FieldValueNtNtBz_5token5CommaE8iter_mutCs8noNfkmVAKC_18tracing_attributes, symObjAddr: 0x6F0, symBinAddr: 0x47BF8, symSize: 0x28 }
  - { offset: 0xBDB00, size: 0x8, addend: 0x0, symName: __RNvMNtCsfvfooZQ3Axs_4core5sliceSTNtNtCs6IAuOt8vWmF_3syn4expr4ExprNtNtBz_5token5CommaE8iter_mutCs8noNfkmVAKC_18tracing_attributes, symObjAddr: 0x718, symBinAddr: 0x47C20, symSize: 0x28 }
  - { offset: 0xBDB37, size: 0x8, addend: 0x0, symName: __RNvMNtCsfvfooZQ3Axs_4core5sliceSTNtNtCs8noNfkmVAKC_18tracing_attributes4attr5FieldNtNtCs6IAuOt8vWmF_3syn5token5CommaE4iterBz_, symObjAddr: 0x740, symBinAddr: 0x47C48, symSize: 0x28 }
  - { offset: 0xBDB6E, size: 0x8, addend: 0x0, symName: __RNvMNtCsfvfooZQ3Axs_4core5sliceSTNtNtCs8noNfkmVAKC_18tracing_attributes4attr5FieldNtNtCs6IAuOt8vWmF_3syn5token5CommaE8iter_mutBz_, symObjAddr: 0x768, symBinAddr: 0x47C70, symSize: 0x28 }
  - { offset: 0xBDCE0, size: 0x8, addend: 0x0, symName: __RNvXsh_NtNtNtCsfvfooZQ3Axs_4core4iter8adapters7step_byINtNtNtBb_3ops5range5RangejEINtB5_14SpecRangeSetupBQ_E5setupCs8noNfkmVAKC_18tracing_attributes, symObjAddr: 0xC1C, symBinAddr: 0x48124, symSize: 0x12C }
  - { offset: 0xBDE91, size: 0x8, addend: 0x0, symName: __RNvXNtNtNtCsfvfooZQ3Axs_4core4iter6traits7collectINtNtNtB8_3ops5range5RangejENtB2_12IntoIterator9into_iterCs8noNfkmVAKC_18tracing_attributes, symObjAddr: 0xB24, symBinAddr: 0x4802C, symSize: 0x14 }
  - { offset: 0xBDED5, size: 0x8, addend: 0x0, symName: __RNvXs3_NtNtCsfvfooZQ3Axs_4core4iter5rangeINtNtNtB9_3ops5range5RangejENtB5_17RangeIteratorImpl9spec_nextCs8noNfkmVAKC_18tracing_attributes, symObjAddr: 0xB64, symBinAddr: 0x4806C, symSize: 0x94 }
  - { offset: 0xBDF56, size: 0x8, addend: 0x0, symName: __RNvXs4_NtNtCsfvfooZQ3Axs_4core4iter5rangeINtNtNtB9_3ops5range5RangejENtNtNtB7_6traits8iterator8Iterator4nextCs8noNfkmVAKC_18tracing_attributes, symObjAddr: 0xBF8, symBinAddr: 0x48100, symSize: 0x24 }
  - { offset: 0xBDFFB, size: 0x8, addend: 0x0, symName: __RNvXs2_NtNtNtCsfvfooZQ3Axs_4core3ops8function5implsQNCNvMNtCs8noNfkmVAKC_18tracing_attributes4attrNtBT_14InstrumentArgs8warnings0INtB7_6FnOnceTRNtNtCs6IAuOt8vWmF_3syn5error5ErrorEE9call_onceBV_, symObjAddr: 0xB38, symBinAddr: 0x48040, symSize: 0x2C }
  - { offset: 0xBE07C, size: 0x8, addend: 0x0, symName: __RNvNvNtCsfvfooZQ3Axs_4core9ub_checks23maybe_is_nonoverlapping7runtimeCs8noNfkmVAKC_18tracing_attributes, symObjAddr: 0x870, symBinAddr: 0x47D78, symSize: 0xD8 }
  - { offset: 0xBE234, size: 0x8, addend: 0x0, symName: __RNvXNtNtCsfvfooZQ3Axs_4core5clone6uninitNtNtCs8noNfkmVAKC_18tracing_attributes4attr5FieldNtB2_8CopySpec9clone_oneBG_, symObjAddr: 0xAD4, symBinAddr: 0x47FDC, symSize: 0x50 }
  - { offset: 0xBE305, size: 0x8, addend: 0x0, symName: __RNvYNtNtCs8noNfkmVAKC_18tracing_attributes4attr10FormatModeNtNtCsfvfooZQ3Axs_4core3cmp9PartialEq2neB6_, symObjAddr: 0xD48, symBinAddr: 0x48250, symSize: 0x30 }
  - { offset: 0xBE3B5, size: 0x8, addend: 0x0, symName: __RINvCs6IAuOt8vWmF_3syn5parseNtCs8noNfkmVAKC_18tracing_attributes11MaybeItemFnEBs_, symObjAddr: 0x0, symBinAddr: 0x47508, symSize: 0x30 }
  - { offset: 0xBE3EC, size: 0x8, addend: 0x0, symName: __RINvCs6IAuOt8vWmF_3syn5parseNtNtB2_4item6ItemFnECs8noNfkmVAKC_18tracing_attributes, symObjAddr: 0x30, symBinAddr: 0x47538, symSize: 0x30 }
  - { offset: 0xBE423, size: 0x8, addend: 0x0, symName: __RINvCs6IAuOt8vWmF_3syn5parseNtNtCs8noNfkmVAKC_18tracing_attributes4attr14InstrumentArgsEBu_, symObjAddr: 0x60, symBinAddr: 0x47568, symSize: 0x30 }
  - { offset: 0xC4664, size: 0x8, addend: 0x0, symName: __RINvXNtNtCse1nGBsou5OW_5alloc5slice4hackTNtNtCs8noNfkmVAKC_18tracing_attributes4attr5FieldNtNtCs6IAuOt8vWmF_3syn5token5CommaENtB3_10ConvertVec6to_vecNtNtB7_5alloc6GlobalEBH_, symObjAddr: 0x384, symBinAddr: 0x4788C, symSize: 0x36C }
  - { offset: 0xC4C57, size: 0x8, addend: 0x0, symName: __RINvMs_NtNtCsfvfooZQ3Axs_4core3fmt2rtNtB5_8Argument11new_displayRNtNtCs6IAuOt8vWmF_3syn5error5ErrorECs8noNfkmVAKC_18tracing_attributes, symObjAddr: 0x90, symBinAddr: 0x47598, symSize: 0x2C }
  - { offset: 0xC51DD, size: 0x8, addend: 0x0, symName: __RINvMsiX_NtCs6IAuOt8vWmF_3syn5tokenNtB7_5Brace8surroundNCINvNtCs8noNfkmVAKC_18tracing_attributes6expand12gen_functionNtCs3cP53eQoTwO_11proc_macro211TokenStreamEs_0EBY_, symObjAddr: 0xBC, symBinAddr: 0x475C4, symSize: 0x124 }
  - { offset: 0xC527F, size: 0x8, addend: 0x0, symName: __RINvMsjf_NtCs6IAuOt8vWmF_3syn5tokenNtB7_5Paren8surroundNCINvNtCs8noNfkmVAKC_18tracing_attributes6expand12gen_functionNtCs3cP53eQoTwO_11proc_macro211TokenStreamE0EBY_, symObjAddr: 0x1E0, symBinAddr: 0x476E8, symSize: 0x11C }
  - { offset: 0xC5834, size: 0x8, addend: 0x0, symName: __RNvMNtNtNtCsfvfooZQ3Axs_4core4iter8adapters7step_byINtB2_6StepByINtNtNtB8_3ops5range5RangejEE3newCs8noNfkmVAKC_18tracing_attributes, symObjAddr: 0x790, symBinAddr: 0x47C98, symSize: 0xE0 }
  - { offset: 0xC58B7, size: 0x8, addend: 0x0, symName: __RNvXNtCs2cqEZUIJimJ_5quote9to_tokensRNtNtCs6IAuOt8vWmF_3syn5token2FnNtB2_8ToTokens9to_tokensCs8noNfkmVAKC_18tracing_attributes, symObjAddr: 0x948, symBinAddr: 0x47E50, symSize: 0x40 }
  - { offset: 0xC58F6, size: 0x8, addend: 0x0, symName: __RNvXNtCs2cqEZUIJimJ_5quote9to_tokensRNtNtCs6IAuOt8vWmF_3syn5token3DotNtB2_8ToTokens9to_tokensCs8noNfkmVAKC_18tracing_attributes, symObjAddr: 0x988, symBinAddr: 0x47E90, symSize: 0x40 }
  - { offset: 0xC5935, size: 0x8, addend: 0x0, symName: __RNvXNtCs2cqEZUIJimJ_5quote9to_tokensRNtNtCs8noNfkmVAKC_18tracing_attributes4attr13LitStrOrIdentNtB2_8ToTokens9to_tokensBD_, symObjAddr: 0x9C8, symBinAddr: 0x47ED0, symSize: 0x40 }
  - { offset: 0xC5974, size: 0x8, addend: 0x0, symName: __RNvXNtCs2cqEZUIJimJ_5quote9to_tokensRNtNtCs8noNfkmVAKC_18tracing_attributes4attr5FieldNtB2_8ToTokens9to_tokensBD_, symObjAddr: 0xA08, symBinAddr: 0x47F10, symSize: 0x40 }
  - { offset: 0xC59B3, size: 0x8, addend: 0x0, symName: __RNvXNtCs2cqEZUIJimJ_5quote9to_tokensRNtNtCs8noNfkmVAKC_18tracing_attributes4attr9FieldKindNtB2_8ToTokens9to_tokensBD_, symObjAddr: 0xA48, symBinAddr: 0x47F50, symSize: 0x40 }
  - { offset: 0xC59F2, size: 0x8, addend: 0x0, symName: __RNvXNtCs2cqEZUIJimJ_5quote9to_tokensReNtB2_8ToTokens9to_tokensCs8noNfkmVAKC_18tracing_attributes, symObjAddr: 0xA88, symBinAddr: 0x47F90, symSize: 0x4C }
  - { offset: 0xC5BEA, size: 0x8, addend: 0x0, symName: __RNvMNtCs8noNfkmVAKC_18tracing_attributes4attrNtB2_14InstrumentArgs5level, symObjAddr: 0xD78, symBinAddr: 0x48280, symSize: 0x5C }
  - { offset: 0xC5C0C, size: 0x8, addend: 0x0, symName: __RNvMNtCs8noNfkmVAKC_18tracing_attributes4attrNtB2_14InstrumentArgs6target, symObjAddr: 0xDD4, symBinAddr: 0x482DC, symSize: 0x160 }
  - { offset: 0xC5C6E, size: 0x8, addend: 0x0, symName: __RNvMNtCs8noNfkmVAKC_18tracing_attributes4attrNtB2_14InstrumentArgs8warnings, symObjAddr: 0xF34, symBinAddr: 0x4843C, symSize: 0x1D4 }
  - { offset: 0xC5D69, size: 0x8, addend: 0x0, symName: __RNvMs0_NtCs8noNfkmVAKC_18tracing_attributes4attrNtB5_9EventArgs5level, symObjAddr: 0x30B4, symBinAddr: 0x4A5BC, symSize: 0xB4 }
  - { offset: 0xC603D, size: 0x8, addend: 0x0, symName: __RINvMs0_NtNtNtCscOYdFFY2T5N_3std11collections4hash3setINtB6_7HashSetNtCs3cP53eQoTwO_11proc_macro25IdentE8containsB14_ECs8noNfkmVAKC_18tracing_attributes, symObjAddr: 0x0, symBinAddr: 0x4E614, symSize: 0x5C }
  - { offset: 0xC6418, size: 0x8, addend: 0x0, symName: __RNvXs9_NtNtNtCscOYdFFY2T5N_3std11collections4hash3setINtB5_7HashSetNtCs3cP53eQoTwO_11proc_macro25IdentENtNtCsfvfooZQ3Axs_4core7default7Default7defaultCs8noNfkmVAKC_18tracing_attributes, symObjAddr: 0x17D8, symBinAddr: 0x4FDEC, symSize: 0x54 }
  - { offset: 0xC6464, size: 0x8, addend: 0x0, symName: __RNvXs1_NtNtNtCscOYdFFY2T5N_3std11collections4hash3setINtB5_7HashSetNtCs3cP53eQoTwO_11proc_macro25IdentENtNtCsfvfooZQ3Axs_4core5clone5Clone5cloneCs8noNfkmVAKC_18tracing_attributes, symObjAddr: 0x16E4, symBinAddr: 0x4FCF8, symSize: 0x64 }
  - { offset: 0xC64E6, size: 0x8, addend: 0x0, symName: __RNvXsg_NtNtNtCscOYdFFY2T5N_3std11collections4hash3setRINtB5_7HashSetNtCs3cP53eQoTwO_11proc_macro25IdentENtNtNtNtCsfvfooZQ3Axs_4core4iter6traits7collect12IntoIterator9into_iterCs8noNfkmVAKC_18tracing_attributes, symObjAddr: 0x20C8, symBinAddr: 0x506DC, symSize: 0x80 }
  - { offset: 0xC6585, size: 0x8, addend: 0x0, symName: __RNvXsj_NtNtNtCscOYdFFY2T5N_3std11collections4hash3setINtB5_4IterNtCs3cP53eQoTwO_11proc_macro25IdentENtNtNtNtCsfvfooZQ3Axs_4core4iter6traits8iterator8Iterator4nextCs8noNfkmVAKC_18tracing_attributes, symObjAddr: 0x2148, symBinAddr: 0x5075C, symSize: 0x6C }
  - { offset: 0xC979D, size: 0x8, addend: 0x0, symName: __RINvXs_NtNtNtCsfvfooZQ3Axs_4core4iter8adapters3revINtB5_3RevINtNtNtBb_5slice4iter4IterNtNtCs6IAuOt8vWmF_3syn4stmt4StmtEENtNtNtB9_6traits8iterator8Iterator8try_folduNCINvNvB1U_8find_map5checkRB1m_TB32_RNtNtB1q_4expr4ExprENCNvMs_NtCs8noNfkmVAKC_18tracing_attributes6expandNtB3D_9AsyncInfo7from_fns_0E0INtNtNtBb_3ops12control_flow11ControlFlowB37_EEB3F_, symObjAddr: 0x1B0, symBinAddr: 0x4E7C4, symSize: 0x24 }
  - { offset: 0xC9839, size: 0x8, addend: 0x0, symName: __RINvYINtNtNtNtCsfvfooZQ3Axs_4core4iter8adapters3rev3RevINtNtNtBc_5slice4iter4IterNtNtCs6IAuOt8vWmF_3syn4stmt4StmtEENtNtNtBa_6traits8iterator8Iterator8find_mapTRB1h_RNtNtB1l_4expr4ExprENCNvMs_NtCs8noNfkmVAKC_18tracing_attributes6expandNtB33_9AsyncInfo7from_fns_0EB35_, symObjAddr: 0x294, symBinAddr: 0x4E8A8, symSize: 0x88 }
  - { offset: 0xC9A14, size: 0x8, addend: 0x0, symName: __RNvXNtNtCsfvfooZQ3Axs_4core3ops12control_flowINtB2_11ControlFlowQNtNtCs6IAuOt8vWmF_3syn4expr4ExprENtNtB4_9try_trait3Try11from_outputCs8noNfkmVAKC_18tracing_attributes, symObjAddr: 0x10DC, symBinAddr: 0x4F6F0, symSize: 0x14 }
  - { offset: 0xC9A52, size: 0x8, addend: 0x0, symName: __RNvXNtNtCsfvfooZQ3Axs_4core3ops12control_flowINtB2_11ControlFlowQNtNtCs6IAuOt8vWmF_3syn4expr4ExprENtNtB4_9try_trait3Try6branchCs8noNfkmVAKC_18tracing_attributes, symObjAddr: 0x10F0, symBinAddr: 0x4F704, symSize: 0x48 }
  - { offset: 0xC9ACA, size: 0x8, addend: 0x0, symName: __RNvXNtNtCsfvfooZQ3Axs_4core3ops12control_flowINtB2_11ControlFlowTRNtNtCs6IAuOt8vWmF_3syn4stmt4StmtRNtNtB16_4expr4ExprEENtNtB4_9try_trait3Try11from_outputCs8noNfkmVAKC_18tracing_attributes, symObjAddr: 0x1138, symBinAddr: 0x4F74C, symSize: 0x18 }
  - { offset: 0xC9B08, size: 0x8, addend: 0x0, symName: __RNvXNtNtCsfvfooZQ3Axs_4core3ops12control_flowINtB2_11ControlFlowTRNtNtCs6IAuOt8vWmF_3syn4stmt4StmtRNtNtB16_4expr4ExprEENtNtB4_9try_trait3Try6branchCs8noNfkmVAKC_18tracing_attributes, symObjAddr: 0x1150, symBinAddr: 0x4F764, symSize: 0x64 }
  - { offset: 0xC9B81, size: 0x8, addend: 0x0, symName: __RNvXNtNtCsfvfooZQ3Axs_4core3ops12control_flowINtB2_11ControlFlowTRNtNtCs6IAuOt8vWmF_3syn4stmt4StmtRNtNtB16_4item6ItemFnEENtNtB4_9try_trait3Try11from_outputCs8noNfkmVAKC_18tracing_attributes, symObjAddr: 0x11B4, symBinAddr: 0x4F7C8, symSize: 0x18 }
  - { offset: 0xC9BBF, size: 0x8, addend: 0x0, symName: __RNvXNtNtCsfvfooZQ3Axs_4core3ops12control_flowINtB2_11ControlFlowTRNtNtCs6IAuOt8vWmF_3syn4stmt4StmtRNtNtB16_4item6ItemFnEENtNtB4_9try_trait3Try6branchCs8noNfkmVAKC_18tracing_attributes, symObjAddr: 0x11CC, symBinAddr: 0x4F7E0, symSize: 0x64 }
  - { offset: 0xC9C38, size: 0x8, addend: 0x0, symName: __RNvXNtNtCsfvfooZQ3Axs_4core3ops12control_flowINtB2_11ControlFlowTjRNtNtCs6IAuOt8vWmF_3syn4stmt4StmtEENtNtB4_9try_trait3Try11from_outputCs8noNfkmVAKC_18tracing_attributes, symObjAddr: 0x1230, symBinAddr: 0x4F844, symSize: 0x18 }
  - { offset: 0xC9C76, size: 0x8, addend: 0x0, symName: __RNvXNtNtCsfvfooZQ3Axs_4core3ops12control_flowINtB2_11ControlFlowTjRNtNtCs6IAuOt8vWmF_3syn4stmt4StmtEENtNtB4_9try_trait3Try6branchCs8noNfkmVAKC_18tracing_attributes, symObjAddr: 0x1248, symBinAddr: 0x4F85C, symSize: 0x64 }
  - { offset: 0xC9CEF, size: 0x8, addend: 0x0, symName: __RNvXNtNtCsfvfooZQ3Axs_4core3ops12control_flowINtB2_11ControlFlowujENtNtB4_9try_trait3Try11from_outputCs8noNfkmVAKC_18tracing_attributes, symObjAddr: 0x12AC, symBinAddr: 0x4F8C0, symSize: 0x20 }
  - { offset: 0xC9D2D, size: 0x8, addend: 0x0, symName: __RNvXNtNtCsfvfooZQ3Axs_4core3ops12control_flowINtB2_11ControlFlowujENtNtB4_9try_trait3Try6branchCs8noNfkmVAKC_18tracing_attributes, symObjAddr: 0x12CC, symBinAddr: 0x4F8E0, symSize: 0x48 }
  - { offset: 0xC9E2A, size: 0x8, addend: 0x0, symName: __RNvXs_NtNtCsfvfooZQ3Axs_4core3ops12control_flowINtB4_11ControlFlowQNtNtCs6IAuOt8vWmF_3syn4expr4ExprEINtNtB6_9try_trait12FromResidualIBK_B12_NtNtB8_7convert10InfallibleEE13from_residualCs8noNfkmVAKC_18tracing_attributes, symObjAddr: 0x1F04, symBinAddr: 0x50518, symSize: 0x1C }
  - { offset: 0xC9E68, size: 0x8, addend: 0x0, symName: __RNvXs_NtNtCsfvfooZQ3Axs_4core3ops12control_flowINtB4_11ControlFlowTRNtNtCs6IAuOt8vWmF_3syn4stmt4StmtRNtNtB18_4expr4ExprEEINtNtB6_9try_trait12FromResidualIBK_B12_NtNtB8_7convert10InfallibleEE13from_residualCs8noNfkmVAKC_18tracing_attributes, symObjAddr: 0x1F20, symBinAddr: 0x50534, symSize: 0x2C }
  - { offset: 0xC9EA6, size: 0x8, addend: 0x0, symName: __RNvXs_NtNtCsfvfooZQ3Axs_4core3ops12control_flowINtB4_11ControlFlowTRNtNtCs6IAuOt8vWmF_3syn4stmt4StmtRNtNtB18_4item6ItemFnEEINtNtB6_9try_trait12FromResidualIBK_B12_NtNtB8_7convert10InfallibleEE13from_residualCs8noNfkmVAKC_18tracing_attributes, symObjAddr: 0x1F4C, symBinAddr: 0x50560, symSize: 0x2C }
  - { offset: 0xC9EE4, size: 0x8, addend: 0x0, symName: __RNvXs_NtNtCsfvfooZQ3Axs_4core3ops12control_flowINtB4_11ControlFlowTjRNtNtCs6IAuOt8vWmF_3syn4stmt4StmtEEINtNtB6_9try_trait12FromResidualIBK_B12_NtNtB8_7convert10InfallibleEE13from_residualCs8noNfkmVAKC_18tracing_attributes, symObjAddr: 0x1F78, symBinAddr: 0x5058C, symSize: 0x2C }
