---
triple:          'arm64-apple-darwin'
binary-path:     '/Users/cedric/orange/ran-llm-claude-flow/src/rust-pipeline/target/debug/deps/libasync_trait-bafb3b962c463ba0.dylib'
relocations:
  - { offset: 0x1E, size: 0x8, addend: 0x0, symName: __RINvNtNtCs6IAuOt8vWmF_3syn3gen9visit_mut13visit_abi_mutNtNtCsdE2kXyKmOF1_11async_trait8lifetime16CollectLifetimesEBV_, symObjAddr: 0x0, symBinAddr: 0xC50, symSize: 0x84 }
  - { offset: 0x975, size: 0x8, addend: 0x0, symName: __RINvNtNtCs6IAuOt8vWmF_3syn3gen9visit_mut13visit_abi_mutNtNtCsdE2kXyKmOF1_11async_trait8lifetime16CollectLifetimesEBV_, symObjAddr: 0x0, symBinAddr: 0xC50, symSize: 0x84 }
  - { offset: 0x9D5, size: 0x8, addend: 0x0, symName: __RINvNtNtCs6IAuOt8vWmF_3syn3gen9visit_mut13visit_abi_mutNtNtCsdE2kXyKmOF1_11async_trait8lifetime22AddLifetimeToImplTraitEBV_, symObjAddr: 0x84, symBinAddr: 0xCD4, symSize: 0x84 }
  - { offset: 0xA35, size: 0x8, addend: 0x0, symName: __RINvNtNtCs6IAuOt8vWmF_3syn3gen9visit_mut13visit_abi_mutNtNtCsdE2kXyKmOF1_11async_trait8receiver11ReplaceSelfEBV_, symObjAddr: 0x108, symBinAddr: 0xD58, symSize: 0x84 }
  - { offset: 0xA95, size: 0x8, addend: 0x0, symName: __RINvNtNtCs6IAuOt8vWmF_3syn3gen9visit_mut13visit_abi_mutNtNtCsdE2kXyKmOF1_11async_trait8receiver7HasSelfEBV_, symObjAddr: 0x18C, symBinAddr: 0xDDC, symSize: 0x84 }
  - { offset: 0xAF5, size: 0x8, addend: 0x0, symName: __RINvNtNtCs6IAuOt8vWmF_3syn3gen9visit_mut13visit_abi_mutNtNtCsdE2kXyKmOF1_11async_trait8receiver9HasMutPatEBV_, symObjAddr: 0x210, symBinAddr: 0xE60, symSize: 0x84 }
  - { offset: 0xB55, size: 0x8, addend: 0x0, symName: __RINvNtNtCs6IAuOt8vWmF_3syn3gen9visit_mut13visit_abi_mutNtNvNtCsdE2kXyKmOF1_11async_trait6expand29replace_impl_trait_with_infer25ReplaceImplTraitWithInferEBX_, symObjAddr: 0x294, symBinAddr: 0xEE4, symSize: 0x84 }
  - { offset: 0xBB5, size: 0x8, addend: 0x0, symName: __RINvNtNtCs6IAuOt8vWmF_3syn3gen9visit_mut13visit_abi_mutNtNvNtCsdE2kXyKmOF1_11async_trait6expand35contains_associated_type_impl_trait24AssociatedTypeImplTraitsEBX_, symObjAddr: 0x318, symBinAddr: 0xF68, symSize: 0x84 }
  - { offset: 0xC15, size: 0x8, addend: 0x0, symName: __RINvNtNtCs6IAuOt8vWmF_3syn3gen9visit_mut13visit_arm_mutNtNtCsdE2kXyKmOF1_11async_trait8lifetime16CollectLifetimesEBV_, symObjAddr: 0x39C, symBinAddr: 0xFEC, symSize: 0xFC }
  - { offset: 0xC6D, size: 0x8, addend: 0x0, symName: __RINvNtNtCs6IAuOt8vWmF_3syn3gen9visit_mut13visit_arm_mutNtNtCsdE2kXyKmOF1_11async_trait8receiver11ReplaceSelfEBV_, symObjAddr: 0x498, symBinAddr: 0x10E8, symSize: 0xFC }
  - { offset: 0xCC5, size: 0x8, addend: 0x0, symName: __RINvNtNtCs6IAuOt8vWmF_3syn3gen9visit_mut13visit_arm_mutNtNtCsdE2kXyKmOF1_11async_trait8receiver7HasSelfEBV_, symObjAddr: 0x594, symBinAddr: 0x11E4, symSize: 0xFC }
  - { offset: 0xD1D, size: 0x8, addend: 0x0, symName: __RINvNtNtCs6IAuOt8vWmF_3syn3gen9visit_mut13visit_arm_mutNtNtCsdE2kXyKmOF1_11async_trait8receiver9HasMutPatEBV_, symObjAddr: 0x690, symBinAddr: 0x12E0, symSize: 0xFC }
  - { offset: 0xD75, size: 0x8, addend: 0x0, symName: __RINvNtNtCs6IAuOt8vWmF_3syn3gen9visit_mut13visit_arm_mutNtNvNtCsdE2kXyKmOF1_11async_trait6expand29replace_impl_trait_with_infer25ReplaceImplTraitWithInferEBX_, symObjAddr: 0x78C, symBinAddr: 0x13DC, symSize: 0xFC }
  - { offset: 0xDCD, size: 0x8, addend: 0x0, symName: __RINvNtNtCs6IAuOt8vWmF_3syn3gen9visit_mut13visit_arm_mutNtNvNtCsdE2kXyKmOF1_11async_trait6expand35contains_associated_type_impl_trait24AssociatedTypeImplTraitsEBX_, symObjAddr: 0x888, symBinAddr: 0x14D8, symSize: 0xFC }
  - { offset: 0xE25, size: 0x8, addend: 0x0, symName: __RINvNtNtCs6IAuOt8vWmF_3syn3gen9visit_mut13visit_lit_mutNtNtCsdE2kXyKmOF1_11async_trait8lifetime16CollectLifetimesEBV_, symObjAddr: 0x984, symBinAddr: 0x15D4, symSize: 0x264 }
  - { offset: 0xF57, size: 0x8, addend: 0x0, symName: __RINvNtNtCs6IAuOt8vWmF_3syn3gen9visit_mut13visit_lit_mutNtNtCsdE2kXyKmOF1_11async_trait8receiver11ReplaceSelfEBV_, symObjAddr: 0xBE8, symBinAddr: 0x1838, symSize: 0x264 }
  - { offset: 0x1089, size: 0x8, addend: 0x0, symName: __RINvNtNtCs6IAuOt8vWmF_3syn3gen9visit_mut13visit_lit_mutNtNtCsdE2kXyKmOF1_11async_trait8receiver7HasSelfEBV_, symObjAddr: 0xE4C, symBinAddr: 0x1A9C, symSize: 0x264 }
  - { offset: 0x11BB, size: 0x8, addend: 0x0, symName: __RINvNtNtCs6IAuOt8vWmF_3syn3gen9visit_mut13visit_lit_mutNtNtCsdE2kXyKmOF1_11async_trait8receiver9HasMutPatEBV_, symObjAddr: 0x10B0, symBinAddr: 0x1D00, symSize: 0x264 }
  - { offset: 0x12ED, size: 0x8, addend: 0x0, symName: __RINvNtNtCs6IAuOt8vWmF_3syn3gen9visit_mut13visit_lit_mutNtNvNtCsdE2kXyKmOF1_11async_trait6expand29replace_impl_trait_with_infer25ReplaceImplTraitWithInferEBX_, symObjAddr: 0x1314, symBinAddr: 0x1F64, symSize: 0x264 }
  - { offset: 0x141F, size: 0x8, addend: 0x0, symName: __RINvNtNtCs6IAuOt8vWmF_3syn3gen9visit_mut13visit_lit_mutNtNvNtCsdE2kXyKmOF1_11async_trait6expand35contains_associated_type_impl_trait24AssociatedTypeImplTraitsEBX_, symObjAddr: 0x1578, symBinAddr: 0x21C8, symSize: 0x264 }
  - { offset: 0x1551, size: 0x8, addend: 0x0, symName: __RINvNtNtCs6IAuOt8vWmF_3syn3gen9visit_mut13visit_pat_mutNtNtCsdE2kXyKmOF1_11async_trait8lifetime16CollectLifetimesEBV_, symObjAddr: 0x17DC, symBinAddr: 0x242C, symSize: 0x390 }
  - { offset: 0x178F, size: 0x8, addend: 0x0, symName: __RINvNtNtCs6IAuOt8vWmF_3syn3gen9visit_mut13visit_pat_mutNtNtCsdE2kXyKmOF1_11async_trait8receiver11ReplaceSelfEBV_, symObjAddr: 0x1B6C, symBinAddr: 0x27BC, symSize: 0x390 }
  - { offset: 0x19CD, size: 0x8, addend: 0x0, symName: __RINvNtNtCs6IAuOt8vWmF_3syn3gen9visit_mut13visit_pat_mutNtNtCsdE2kXyKmOF1_11async_trait8receiver7HasSelfEBV_, symObjAddr: 0x1EFC, symBinAddr: 0x2B4C, symSize: 0x390 }
  - { offset: 0x1C0B, size: 0x8, addend: 0x0, symName: __RINvNtNtCs6IAuOt8vWmF_3syn3gen9visit_mut13visit_pat_mutNtNtCsdE2kXyKmOF1_11async_trait8receiver9HasMutPatEBV_, symObjAddr: 0x228C, symBinAddr: 0x2EDC, symSize: 0x390 }
  - { offset: 0x1E49, size: 0x8, addend: 0x0, symName: __RINvNtNtCs6IAuOt8vWmF_3syn3gen9visit_mut13visit_pat_mutNtNvNtCsdE2kXyKmOF1_11async_trait6expand29replace_impl_trait_with_infer25ReplaceImplTraitWithInferEBX_, symObjAddr: 0x261C, symBinAddr: 0x326C, symSize: 0x390 }
  - { offset: 0x2087, size: 0x8, addend: 0x0, symName: __RINvNtNtCs6IAuOt8vWmF_3syn3gen9visit_mut13visit_pat_mutNtNvNtCsdE2kXyKmOF1_11async_trait6expand35contains_associated_type_impl_trait24AssociatedTypeImplTraitsEBX_, symObjAddr: 0x29AC, symBinAddr: 0x35FC, symSize: 0x390 }
  - { offset: 0x22C5, size: 0x8, addend: 0x0, symName: __RINvNtNtCs6IAuOt8vWmF_3syn3gen9visit_mut14visit_expr_mutNtNtCsdE2kXyKmOF1_11async_trait8lifetime16CollectLifetimesEBW_, symObjAddr: 0x2D3C, symBinAddr: 0x398C, symSize: 0x7D8 }
  - { offset: 0x27CF, size: 0x8, addend: 0x0, symName: __RINvNtNtCs6IAuOt8vWmF_3syn3gen9visit_mut14visit_expr_mutNtNtCsdE2kXyKmOF1_11async_trait8receiver11ReplaceSelfEBW_, symObjAddr: 0x3514, symBinAddr: 0x4164, symSize: 0x7D8 }
  - { offset: 0x2CD9, size: 0x8, addend: 0x0, symName: __RINvNtNtCs6IAuOt8vWmF_3syn3gen9visit_mut14visit_expr_mutNtNtCsdE2kXyKmOF1_11async_trait8receiver7HasSelfEBW_, symObjAddr: 0x3CEC, symBinAddr: 0x493C, symSize: 0x7D8 }
  - { offset: 0x31E3, size: 0x8, addend: 0x0, symName: __RINvNtNtCs6IAuOt8vWmF_3syn3gen9visit_mut14visit_expr_mutNtNtCsdE2kXyKmOF1_11async_trait8receiver9HasMutPatEBW_, symObjAddr: 0x44C4, symBinAddr: 0x5114, symSize: 0x7D8 }
  - { offset: 0x36ED, size: 0x8, addend: 0x0, symName: __RINvNtNtCs6IAuOt8vWmF_3syn3gen9visit_mut14visit_expr_mutNtNvNtCsdE2kXyKmOF1_11async_trait6expand29replace_impl_trait_with_infer25ReplaceImplTraitWithInferEBY_, symObjAddr: 0x4C9C, symBinAddr: 0x58EC, symSize: 0x7D8 }
  - { offset: 0x3BF7, size: 0x8, addend: 0x0, symName: __RINvNtNtCs6IAuOt8vWmF_3syn3gen9visit_mut14visit_expr_mutNtNvNtCsdE2kXyKmOF1_11async_trait6expand35contains_associated_type_impl_trait24AssociatedTypeImplTraitsEBY_, symObjAddr: 0x5474, symBinAddr: 0x60C4, symSize: 0x7D8 }
  - { offset: 0x4101, size: 0x8, addend: 0x0, symName: __RINvNtNtCs6IAuOt8vWmF_3syn3gen9visit_mut14visit_item_mutNtNtCsdE2kXyKmOF1_11async_trait8lifetime16CollectLifetimesEBW_, symObjAddr: 0x5C4C, symBinAddr: 0x689C, symSize: 0x35C }
  - { offset: 0x4321, size: 0x8, addend: 0x0, symName: __RINvNtNtCs6IAuOt8vWmF_3syn3gen9visit_mut14visit_item_mutNtNtCsdE2kXyKmOF1_11async_trait8receiver9HasMutPatEBW_, symObjAddr: 0x5FA8, symBinAddr: 0x6BF8, symSize: 0x35C }
  - { offset: 0x4541, size: 0x8, addend: 0x0, symName: __RINvNtNtCs6IAuOt8vWmF_3syn3gen9visit_mut14visit_item_mutNtNvNtCsdE2kXyKmOF1_11async_trait6expand29replace_impl_trait_with_infer25ReplaceImplTraitWithInferEBY_, symObjAddr: 0x6304, symBinAddr: 0x6F54, symSize: 0x35C }
  - { offset: 0x4761, size: 0x8, addend: 0x0, symName: __RINvNtNtCs6IAuOt8vWmF_3syn3gen9visit_mut14visit_item_mutNtNvNtCsdE2kXyKmOF1_11async_trait6expand35contains_associated_type_impl_trait24AssociatedTypeImplTraitsEBY_, symObjAddr: 0x6660, symBinAddr: 0x72B0, symSize: 0x35C }
  - { offset: 0x4981, size: 0x8, addend: 0x0, symName: __RINvNtNtCs6IAuOt8vWmF_3syn3gen9visit_mut14visit_meta_mutNtNtCsdE2kXyKmOF1_11async_trait8lifetime16CollectLifetimesEBW_, symObjAddr: 0x69BC, symBinAddr: 0x760C, symSize: 0xE8 }
  - { offset: 0x4A15, size: 0x8, addend: 0x0, symName: __RINvNtNtCs6IAuOt8vWmF_3syn3gen9visit_mut14visit_meta_mutNtNtCsdE2kXyKmOF1_11async_trait8lifetime22AddLifetimeToImplTraitEBW_, symObjAddr: 0x6AA4, symBinAddr: 0x76F4, symSize: 0xE8 }
  - { offset: 0x4AA9, size: 0x8, addend: 0x0, symName: __RINvNtNtCs6IAuOt8vWmF_3syn3gen9visit_mut14visit_meta_mutNtNtCsdE2kXyKmOF1_11async_trait8receiver11ReplaceSelfEBW_, symObjAddr: 0x6B8C, symBinAddr: 0x77DC, symSize: 0xE8 }
  - { offset: 0x4B3D, size: 0x8, addend: 0x0, symName: __RINvNtNtCs6IAuOt8vWmF_3syn3gen9visit_mut14visit_meta_mutNtNtCsdE2kXyKmOF1_11async_trait8receiver7HasSelfEBW_, symObjAddr: 0x6C74, symBinAddr: 0x78C4, symSize: 0xE8 }
  - { offset: 0x4BD1, size: 0x8, addend: 0x0, symName: __RINvNtNtCs6IAuOt8vWmF_3syn3gen9visit_mut14visit_meta_mutNtNtCsdE2kXyKmOF1_11async_trait8receiver9HasMutPatEBW_, symObjAddr: 0x6D5C, symBinAddr: 0x79AC, symSize: 0xE8 }
  - { offset: 0x4C65, size: 0x8, addend: 0x0, symName: __RINvNtNtCs6IAuOt8vWmF_3syn3gen9visit_mut14visit_meta_mutNtNvNtCsdE2kXyKmOF1_11async_trait6expand29replace_impl_trait_with_infer25ReplaceImplTraitWithInferEBY_, symObjAddr: 0x6E44, symBinAddr: 0x7A94, symSize: 0xE8 }
  - { offset: 0x4CF9, size: 0x8, addend: 0x0, symName: __RINvNtNtCs6IAuOt8vWmF_3syn3gen9visit_mut14visit_meta_mutNtNvNtCsdE2kXyKmOF1_11async_trait6expand35contains_associated_type_impl_trait24AssociatedTypeImplTraitsEBY_, symObjAddr: 0x6F2C, symBinAddr: 0x7B7C, symSize: 0xE8 }
  - { offset: 0x4D8D, size: 0x8, addend: 0x0, symName: __RINvNtNtCs6IAuOt8vWmF_3syn3gen9visit_mut14visit_path_mutNtNtCsdE2kXyKmOF1_11async_trait8lifetime16CollectLifetimesEBW_, symObjAddr: 0x7014, symBinAddr: 0x7C64, symSize: 0xC8 }
  - { offset: 0x4E22, size: 0x8, addend: 0x0, symName: __RINvNtNtCs6IAuOt8vWmF_3syn3gen9visit_mut14visit_path_mutNtNtCsdE2kXyKmOF1_11async_trait8lifetime22AddLifetimeToImplTraitEBW_, symObjAddr: 0x70DC, symBinAddr: 0x7D2C, symSize: 0xC8 }
  - { offset: 0x4EB7, size: 0x8, addend: 0x0, symName: __RINvNtNtCs6IAuOt8vWmF_3syn3gen9visit_mut14visit_path_mutNtNtCsdE2kXyKmOF1_11async_trait8receiver7HasSelfEBW_, symObjAddr: 0x71A4, symBinAddr: 0x7DF4, symSize: 0xC8 }
  - { offset: 0x4F4C, size: 0x8, addend: 0x0, symName: __RINvNtNtCs6IAuOt8vWmF_3syn3gen9visit_mut14visit_path_mutNtNtCsdE2kXyKmOF1_11async_trait8receiver9HasMutPatEBW_, symObjAddr: 0x726C, symBinAddr: 0x7EBC, symSize: 0xC8 }
  - { offset: 0x4FE1, size: 0x8, addend: 0x0, symName: __RINvNtNtCs6IAuOt8vWmF_3syn3gen9visit_mut14visit_path_mutNtNvNtCsdE2kXyKmOF1_11async_trait6expand29replace_impl_trait_with_infer25ReplaceImplTraitWithInferEBY_, symObjAddr: 0x7334, symBinAddr: 0x7F84, symSize: 0xC8 }
  - { offset: 0x5076, size: 0x8, addend: 0x0, symName: __RINvNtNtCs6IAuOt8vWmF_3syn3gen9visit_mut14visit_path_mutNtNvNtCsdE2kXyKmOF1_11async_trait6expand35contains_associated_type_impl_trait24AssociatedTypeImplTraitsEBY_, symObjAddr: 0x73FC, symBinAddr: 0x804C, symSize: 0xC8 }
  - { offset: 0x510B, size: 0x8, addend: 0x0, symName: __RINvNtNtCs6IAuOt8vWmF_3syn3gen9visit_mut14visit_stmt_mutNtNtCsdE2kXyKmOF1_11async_trait8lifetime16CollectLifetimesEBW_, symObjAddr: 0x74C4, symBinAddr: 0x8114, symSize: 0x12C }
  - { offset: 0x51CD, size: 0x8, addend: 0x0, symName: __RINvNtNtCs6IAuOt8vWmF_3syn3gen9visit_mut14visit_stmt_mutNtNtCsdE2kXyKmOF1_11async_trait8receiver11ReplaceSelfEBW_, symObjAddr: 0x75F0, symBinAddr: 0x8240, symSize: 0x12C }
  - { offset: 0x528F, size: 0x8, addend: 0x0, symName: __RINvNtNtCs6IAuOt8vWmF_3syn3gen9visit_mut14visit_stmt_mutNtNtCsdE2kXyKmOF1_11async_trait8receiver7HasSelfEBW_, symObjAddr: 0x771C, symBinAddr: 0x836C, symSize: 0x12C }
  - { offset: 0x5351, size: 0x8, addend: 0x0, symName: __RINvNtNtCs6IAuOt8vWmF_3syn3gen9visit_mut14visit_stmt_mutNtNtCsdE2kXyKmOF1_11async_trait8receiver9HasMutPatEBW_, symObjAddr: 0x7848, symBinAddr: 0x8498, symSize: 0x12C }
  - { offset: 0x5413, size: 0x8, addend: 0x0, symName: __RINvNtNtCs6IAuOt8vWmF_3syn3gen9visit_mut14visit_stmt_mutNtNvNtCsdE2kXyKmOF1_11async_trait6expand29replace_impl_trait_with_infer25ReplaceImplTraitWithInferEBY_, symObjAddr: 0x7974, symBinAddr: 0x85C4, symSize: 0x12C }
  - { offset: 0x54D5, size: 0x8, addend: 0x0, symName: __RINvNtNtCs6IAuOt8vWmF_3syn3gen9visit_mut14visit_stmt_mutNtNvNtCsdE2kXyKmOF1_11async_trait6expand35contains_associated_type_impl_trait24AssociatedTypeImplTraitsEBY_, symObjAddr: 0x7AA0, symBinAddr: 0x86F0, symSize: 0x12C }
  - { offset: 0x5597, size: 0x8, addend: 0x0, symName: __RINvNtNtCs6IAuOt8vWmF_3syn3gen9visit_mut14visit_type_mutNtNtCsdE2kXyKmOF1_11async_trait8lifetime16CollectLifetimesEBW_, symObjAddr: 0x7BCC, symBinAddr: 0x881C, symSize: 0x328 }
  - { offset: 0x5797, size: 0x8, addend: 0x0, symName: __RINvNtNtCs6IAuOt8vWmF_3syn3gen9visit_mut14visit_type_mutNtNtCsdE2kXyKmOF1_11async_trait8lifetime22AddLifetimeToImplTraitEBW_, symObjAddr: 0x7EF4, symBinAddr: 0x8B44, symSize: 0x328 }
  - { offset: 0x5997, size: 0x8, addend: 0x0, symName: __RINvNtNtCs6IAuOt8vWmF_3syn3gen9visit_mut14visit_type_mutNtNtCsdE2kXyKmOF1_11async_trait8receiver11ReplaceSelfEBW_, symObjAddr: 0x821C, symBinAddr: 0x8E6C, symSize: 0x328 }
  - { offset: 0x5B97, size: 0x8, addend: 0x0, symName: __RINvNtNtCs6IAuOt8vWmF_3syn3gen9visit_mut14visit_type_mutNtNtCsdE2kXyKmOF1_11async_trait8receiver7HasSelfEBW_, symObjAddr: 0x8544, symBinAddr: 0x9194, symSize: 0x328 }
  - { offset: 0x5D97, size: 0x8, addend: 0x0, symName: __RINvNtNtCs6IAuOt8vWmF_3syn3gen9visit_mut14visit_type_mutNtNtCsdE2kXyKmOF1_11async_trait8receiver9HasMutPatEBW_, symObjAddr: 0x886C, symBinAddr: 0x94BC, symSize: 0x328 }
  - { offset: 0x5F97, size: 0x8, addend: 0x0, symName: __RINvNtNtCs6IAuOt8vWmF_3syn3gen9visit_mut14visit_type_mutNtNvNtCsdE2kXyKmOF1_11async_trait6expand29replace_impl_trait_with_infer25ReplaceImplTraitWithInferEBY_, symObjAddr: 0x8B94, symBinAddr: 0x97E4, symSize: 0x328 }
  - { offset: 0x6197, size: 0x8, addend: 0x0, symName: __RINvNtNtCs6IAuOt8vWmF_3syn3gen9visit_mut14visit_type_mutNtNvNtCsdE2kXyKmOF1_11async_trait6expand35contains_associated_type_impl_trait24AssociatedTypeImplTraitsEBY_, symObjAddr: 0x8EBC, symBinAddr: 0x9B0C, symSize: 0x328 }
  - { offset: 0x6397, size: 0x8, addend: 0x0, symName: __RINvNtNtCs6IAuOt8vWmF_3syn3gen9visit_mut15visit_block_mutNtNtCsdE2kXyKmOF1_11async_trait8lifetime16CollectLifetimesEBX_, symObjAddr: 0x91E4, symBinAddr: 0x9E34, symSize: 0x98 }
  - { offset: 0x640D, size: 0x8, addend: 0x0, symName: __RINvNtNtCs6IAuOt8vWmF_3syn3gen9visit_mut15visit_block_mutNtNtCsdE2kXyKmOF1_11async_trait8receiver11ReplaceSelfEBX_, symObjAddr: 0x927C, symBinAddr: 0x9ECC, symSize: 0x98 }
  - { offset: 0x6483, size: 0x8, addend: 0x0, symName: __RINvNtNtCs6IAuOt8vWmF_3syn3gen9visit_mut15visit_block_mutNtNtCsdE2kXyKmOF1_11async_trait8receiver7HasSelfEBX_, symObjAddr: 0x9314, symBinAddr: 0x9F64, symSize: 0x98 }
  - { offset: 0x64F9, size: 0x8, addend: 0x0, symName: __RINvNtNtCs6IAuOt8vWmF_3syn3gen9visit_mut15visit_block_mutNtNtCsdE2kXyKmOF1_11async_trait8receiver9HasMutPatEBX_, symObjAddr: 0x93AC, symBinAddr: 0x9FFC, symSize: 0x98 }
  - { offset: 0x656F, size: 0x8, addend: 0x0, symName: __RINvNtNtCs6IAuOt8vWmF_3syn3gen9visit_mut15visit_block_mutNtNvNtCsdE2kXyKmOF1_11async_trait6expand29replace_impl_trait_with_infer25ReplaceImplTraitWithInferEBZ_, symObjAddr: 0x9444, symBinAddr: 0xA094, symSize: 0x98 }
  - { offset: 0x65E5, size: 0x8, addend: 0x0, symName: __RINvNtNtCs6IAuOt8vWmF_3syn3gen9visit_mut15visit_block_mutNtNvNtCsdE2kXyKmOF1_11async_trait6expand35contains_associated_type_impl_trait24AssociatedTypeImplTraitsEBZ_, symObjAddr: 0x94DC, symBinAddr: 0xA12C, symSize: 0x98 }
  - { offset: 0x665B, size: 0x8, addend: 0x0, symName: __RINvNtNtCs6IAuOt8vWmF_3syn3gen9visit_mut15visit_field_mutNtNtCsdE2kXyKmOF1_11async_trait8lifetime16CollectLifetimesEBX_, symObjAddr: 0x9574, symBinAddr: 0xA1C4, symSize: 0xC4 }
  - { offset: 0x66BB, size: 0x8, addend: 0x0, symName: __RINvNtNtCs6IAuOt8vWmF_3syn3gen9visit_mut15visit_field_mutNtNtCsdE2kXyKmOF1_11async_trait8receiver9HasMutPatEBX_, symObjAddr: 0x9638, symBinAddr: 0xA288, symSize: 0xC4 }
  - { offset: 0x671B, size: 0x8, addend: 0x0, symName: __RINvNtNtCs6IAuOt8vWmF_3syn3gen9visit_mut15visit_field_mutNtNvNtCsdE2kXyKmOF1_11async_trait6expand29replace_impl_trait_with_infer25ReplaceImplTraitWithInferEBZ_, symObjAddr: 0x96FC, symBinAddr: 0xA34C, symSize: 0xC4 }
  - { offset: 0x677B, size: 0x8, addend: 0x0, symName: __RINvNtNtCs6IAuOt8vWmF_3syn3gen9visit_mut15visit_field_mutNtNvNtCsdE2kXyKmOF1_11async_trait6expand35contains_associated_type_impl_trait24AssociatedTypeImplTraitsEBZ_, symObjAddr: 0x97C0, symBinAddr: 0xA410, symSize: 0xC4 }
  - { offset: 0x67DB, size: 0x8, addend: 0x0, symName: __RINvNtNtCs6IAuOt8vWmF_3syn3gen9visit_mut15visit_ident_mutNtNtCsdE2kXyKmOF1_11async_trait8lifetime16CollectLifetimesEBX_, symObjAddr: 0x9884, symBinAddr: 0xA4D4, symSize: 0x68 }
  - { offset: 0x683B, size: 0x8, addend: 0x0, symName: __RINvNtNtCs6IAuOt8vWmF_3syn3gen9visit_mut15visit_ident_mutNtNtCsdE2kXyKmOF1_11async_trait8lifetime22AddLifetimeToImplTraitEBX_, symObjAddr: 0x98EC, symBinAddr: 0xA53C, symSize: 0x68 }
  - { offset: 0x689B, size: 0x8, addend: 0x0, symName: __RINvNtNtCs6IAuOt8vWmF_3syn3gen9visit_mut15visit_ident_mutNtNtCsdE2kXyKmOF1_11async_trait8receiver7HasSelfEBX_, symObjAddr: 0x9954, symBinAddr: 0xA5A4, symSize: 0x68 }
  - { offset: 0x68FB, size: 0x8, addend: 0x0, symName: __RINvNtNtCs6IAuOt8vWmF_3syn3gen9visit_mut15visit_ident_mutNtNtCsdE2kXyKmOF1_11async_trait8receiver9HasMutPatEBX_, symObjAddr: 0x99BC, symBinAddr: 0xA60C, symSize: 0x68 }
  - { offset: 0x695B, size: 0x8, addend: 0x0, symName: __RINvNtNtCs6IAuOt8vWmF_3syn3gen9visit_mut15visit_ident_mutNtNvNtCsdE2kXyKmOF1_11async_trait6expand29replace_impl_trait_with_infer25ReplaceImplTraitWithInferEBZ_, symObjAddr: 0x9A24, symBinAddr: 0xA674, symSize: 0x68 }
  - { offset: 0x69BB, size: 0x8, addend: 0x0, symName: __RINvNtNtCs6IAuOt8vWmF_3syn3gen9visit_mut15visit_ident_mutNtNvNtCsdE2kXyKmOF1_11async_trait6expand35contains_associated_type_impl_trait24AssociatedTypeImplTraitsEBZ_, symObjAddr: 0x9A8C, symBinAddr: 0xA6DC, symSize: 0x68 }
  - { offset: 0x6A1B, size: 0x8, addend: 0x0, symName: __RINvNtNtCs6IAuOt8vWmF_3syn3gen9visit_mut15visit_index_mutNtNtCsdE2kXyKmOF1_11async_trait8lifetime16CollectLifetimesEBX_, symObjAddr: 0x9AF4, symBinAddr: 0xA744, symSize: 0x3C }
  - { offset: 0x6A5D, size: 0x8, addend: 0x0, symName: __RINvNtNtCs6IAuOt8vWmF_3syn3gen9visit_mut15visit_index_mutNtNtCsdE2kXyKmOF1_11async_trait8receiver11ReplaceSelfEBX_, symObjAddr: 0x9B30, symBinAddr: 0xA780, symSize: 0x3C }
  - { offset: 0x6A9F, size: 0x8, addend: 0x0, symName: __RINvNtNtCs6IAuOt8vWmF_3syn3gen9visit_mut15visit_index_mutNtNtCsdE2kXyKmOF1_11async_trait8receiver7HasSelfEBX_, symObjAddr: 0x9B6C, symBinAddr: 0xA7BC, symSize: 0x3C }
  - { offset: 0x6AE1, size: 0x8, addend: 0x0, symName: __RINvNtNtCs6IAuOt8vWmF_3syn3gen9visit_mut15visit_index_mutNtNtCsdE2kXyKmOF1_11async_trait8receiver9HasMutPatEBX_, symObjAddr: 0x9BA8, symBinAddr: 0xA7F8, symSize: 0x3C }
  - { offset: 0x6B23, size: 0x8, addend: 0x0, symName: __RINvNtNtCs6IAuOt8vWmF_3syn3gen9visit_mut15visit_index_mutNtNvNtCsdE2kXyKmOF1_11async_trait6expand29replace_impl_trait_with_infer25ReplaceImplTraitWithInferEBZ_, symObjAddr: 0x9BE4, symBinAddr: 0xA834, symSize: 0x3C }
  - { offset: 0x6B65, size: 0x8, addend: 0x0, symName: __RINvNtNtCs6IAuOt8vWmF_3syn3gen9visit_mut15visit_index_mutNtNvNtCsdE2kXyKmOF1_11async_trait6expand35contains_associated_type_impl_trait24AssociatedTypeImplTraitsEBZ_, symObjAddr: 0x9C20, symBinAddr: 0xA870, symSize: 0x3C }
  - { offset: 0x6BA7, size: 0x8, addend: 0x0, symName: __RINvNtNtCs6IAuOt8vWmF_3syn3gen9visit_mut15visit_label_mutNtNtCsdE2kXyKmOF1_11async_trait8lifetime16CollectLifetimesEBX_, symObjAddr: 0x9C5C, symBinAddr: 0xA8AC, symSize: 0x3C }
  - { offset: 0x6BE9, size: 0x8, addend: 0x0, symName: __RINvNtNtCs6IAuOt8vWmF_3syn3gen9visit_mut15visit_label_mutNtNtCsdE2kXyKmOF1_11async_trait8receiver11ReplaceSelfEBX_, symObjAddr: 0x9C98, symBinAddr: 0xA8E8, symSize: 0x3C }
  - { offset: 0x6C2B, size: 0x8, addend: 0x0, symName: __RINvNtNtCs6IAuOt8vWmF_3syn3gen9visit_mut15visit_label_mutNtNtCsdE2kXyKmOF1_11async_trait8receiver7HasSelfEBX_, symObjAddr: 0x9CD4, symBinAddr: 0xA924, symSize: 0x3C }
  - { offset: 0x6C6D, size: 0x8, addend: 0x0, symName: __RINvNtNtCs6IAuOt8vWmF_3syn3gen9visit_mut15visit_label_mutNtNtCsdE2kXyKmOF1_11async_trait8receiver9HasMutPatEBX_, symObjAddr: 0x9D10, symBinAddr: 0xA960, symSize: 0x3C }
  - { offset: 0x6CAF, size: 0x8, addend: 0x0, symName: __RINvNtNtCs6IAuOt8vWmF_3syn3gen9visit_mut15visit_label_mutNtNvNtCsdE2kXyKmOF1_11async_trait6expand29replace_impl_trait_with_infer25ReplaceImplTraitWithInferEBZ_, symObjAddr: 0x9D4C, symBinAddr: 0xA99C, symSize: 0x3C }
  - { offset: 0x6CF1, size: 0x8, addend: 0x0, symName: __RINvNtNtCs6IAuOt8vWmF_3syn3gen9visit_mut15visit_label_mutNtNvNtCsdE2kXyKmOF1_11async_trait6expand35contains_associated_type_impl_trait24AssociatedTypeImplTraitsEBZ_, symObjAddr: 0x9D88, symBinAddr: 0xA9D8, symSize: 0x3C }
  - { offset: 0x6D33, size: 0x8, addend: 0x0, symName: __RINvNtNtCs6IAuOt8vWmF_3syn3gen9visit_mut15visit_local_mutNtNtCsdE2kXyKmOF1_11async_trait8lifetime16CollectLifetimesEBX_, symObjAddr: 0x9DC4, symBinAddr: 0xAA14, symSize: 0xA4 }
  - { offset: 0x6D93, size: 0x8, addend: 0x0, symName: __RINvNtNtCs6IAuOt8vWmF_3syn3gen9visit_mut15visit_local_mutNtNtCsdE2kXyKmOF1_11async_trait8receiver11ReplaceSelfEBX_, symObjAddr: 0x9E68, symBinAddr: 0xAAB8, symSize: 0xA4 }
  - { offset: 0x6DF3, size: 0x8, addend: 0x0, symName: __RINvNtNtCs6IAuOt8vWmF_3syn3gen9visit_mut15visit_local_mutNtNtCsdE2kXyKmOF1_11async_trait8receiver7HasSelfEBX_, symObjAddr: 0x9F0C, symBinAddr: 0xAB5C, symSize: 0xA4 }
  - { offset: 0x6E53, size: 0x8, addend: 0x0, symName: __RINvNtNtCs6IAuOt8vWmF_3syn3gen9visit_mut15visit_local_mutNtNtCsdE2kXyKmOF1_11async_trait8receiver9HasMutPatEBX_, symObjAddr: 0x9FB0, symBinAddr: 0xAC00, symSize: 0xA4 }
  - { offset: 0x6EB3, size: 0x8, addend: 0x0, symName: __RINvNtNtCs6IAuOt8vWmF_3syn3gen9visit_mut15visit_local_mutNtNvNtCsdE2kXyKmOF1_11async_trait6expand29replace_impl_trait_with_infer25ReplaceImplTraitWithInferEBZ_, symObjAddr: 0xA054, symBinAddr: 0xACA4, symSize: 0xA4 }
  - { offset: 0x6F13, size: 0x8, addend: 0x0, symName: __RINvNtNtCs6IAuOt8vWmF_3syn3gen9visit_mut15visit_local_mutNtNvNtCsdE2kXyKmOF1_11async_trait6expand35contains_associated_type_impl_trait24AssociatedTypeImplTraitsEBZ_, symObjAddr: 0xA0F8, symBinAddr: 0xAD48, symSize: 0xA4 }
  - { offset: 0x6F73, size: 0x8, addend: 0x0, symName: __RINvNtNtCs6IAuOt8vWmF_3syn3gen9visit_mut15visit_macro_mutNtNtCsdE2kXyKmOF1_11async_trait8lifetime16CollectLifetimesEBX_, symObjAddr: 0xA19C, symBinAddr: 0xADEC, symSize: 0x60 }
  - { offset: 0x6FB5, size: 0x8, addend: 0x0, symName: __RINvNtNtCs6IAuOt8vWmF_3syn3gen9visit_mut15visit_macro_mutNtNtCsdE2kXyKmOF1_11async_trait8lifetime22AddLifetimeToImplTraitEBX_, symObjAddr: 0xA1FC, symBinAddr: 0xAE4C, symSize: 0x60 }
  - { offset: 0x6FF7, size: 0x8, addend: 0x0, symName: __RINvNtNtCs6IAuOt8vWmF_3syn3gen9visit_mut15visit_macro_mutNtNtCsdE2kXyKmOF1_11async_trait8receiver9HasMutPatEBX_, symObjAddr: 0xA25C, symBinAddr: 0xAEAC, symSize: 0x60 }
  - { offset: 0x7039, size: 0x8, addend: 0x0, symName: __RINvNtNtCs6IAuOt8vWmF_3syn3gen9visit_mut15visit_macro_mutNtNvNtCsdE2kXyKmOF1_11async_trait6expand29replace_impl_trait_with_infer25ReplaceImplTraitWithInferEBZ_, symObjAddr: 0xA2BC, symBinAddr: 0xAF0C, symSize: 0x60 }
  - { offset: 0x707B, size: 0x8, addend: 0x0, symName: __RINvNtNtCs6IAuOt8vWmF_3syn3gen9visit_mut15visit_macro_mutNtNvNtCsdE2kXyKmOF1_11async_trait6expand35contains_associated_type_impl_trait24AssociatedTypeImplTraitsEBZ_, symObjAddr: 0xA31C, symBinAddr: 0xAF6C, symSize: 0x60 }
  - { offset: 0x70BD, size: 0x8, addend: 0x0, symName: __RINvNtNtCs6IAuOt8vWmF_3syn3gen9visit_mut15visit_qself_mutNtNtCsdE2kXyKmOF1_11async_trait8lifetime16CollectLifetimesEBX_, symObjAddr: 0xA37C, symBinAddr: 0xAFCC, symSize: 0x68 }
  - { offset: 0x70FF, size: 0x8, addend: 0x0, symName: __RINvNtNtCs6IAuOt8vWmF_3syn3gen9visit_mut15visit_qself_mutNtNtCsdE2kXyKmOF1_11async_trait8lifetime22AddLifetimeToImplTraitEBX_, symObjAddr: 0xA3E4, symBinAddr: 0xB034, symSize: 0x68 }
  - { offset: 0x7141, size: 0x8, addend: 0x0, symName: __RINvNtNtCs6IAuOt8vWmF_3syn3gen9visit_mut15visit_qself_mutNtNtCsdE2kXyKmOF1_11async_trait8receiver11ReplaceSelfEBX_, symObjAddr: 0xA44C, symBinAddr: 0xB09C, symSize: 0x68 }
  - { offset: 0x7183, size: 0x8, addend: 0x0, symName: __RINvNtNtCs6IAuOt8vWmF_3syn3gen9visit_mut15visit_qself_mutNtNtCsdE2kXyKmOF1_11async_trait8receiver7HasSelfEBX_, symObjAddr: 0xA4B4, symBinAddr: 0xB104, symSize: 0x68 }
  - { offset: 0x71C5, size: 0x8, addend: 0x0, symName: __RINvNtNtCs6IAuOt8vWmF_3syn3gen9visit_mut15visit_qself_mutNtNtCsdE2kXyKmOF1_11async_trait8receiver9HasMutPatEBX_, symObjAddr: 0xA51C, symBinAddr: 0xB16C, symSize: 0x68 }
  - { offset: 0x7207, size: 0x8, addend: 0x0, symName: __RINvNtNtCs6IAuOt8vWmF_3syn3gen9visit_mut15visit_qself_mutNtNvNtCsdE2kXyKmOF1_11async_trait6expand29replace_impl_trait_with_infer25ReplaceImplTraitWithInferEBZ_, symObjAddr: 0xA584, symBinAddr: 0xB1D4, symSize: 0x68 }
  - { offset: 0x7249, size: 0x8, addend: 0x0, symName: __RINvNtNtCs6IAuOt8vWmF_3syn3gen9visit_mut15visit_qself_mutNtNvNtCsdE2kXyKmOF1_11async_trait6expand35contains_associated_type_impl_trait24AssociatedTypeImplTraitsEBZ_, symObjAddr: 0xA5EC, symBinAddr: 0xB23C, symSize: 0x68 }
  - { offset: 0x728B, size: 0x8, addend: 0x0, symName: __RINvNtNtCs6IAuOt8vWmF_3syn3gen9visit_mut15visit_un_op_mutNtNtCsdE2kXyKmOF1_11async_trait8lifetime16CollectLifetimesEBX_, symObjAddr: 0xA654, symBinAddr: 0xB2A4, symSize: 0xA8 }
  - { offset: 0x72CD, size: 0x8, addend: 0x0, symName: __RINvNtNtCs6IAuOt8vWmF_3syn3gen9visit_mut15visit_un_op_mutNtNtCsdE2kXyKmOF1_11async_trait8receiver11ReplaceSelfEBX_, symObjAddr: 0xA6FC, symBinAddr: 0xB34C, symSize: 0xA8 }
  - { offset: 0x730F, size: 0x8, addend: 0x0, symName: __RINvNtNtCs6IAuOt8vWmF_3syn3gen9visit_mut15visit_un_op_mutNtNtCsdE2kXyKmOF1_11async_trait8receiver7HasSelfEBX_, symObjAddr: 0xA7A4, symBinAddr: 0xB3F4, symSize: 0xA8 }
  - { offset: 0x7351, size: 0x8, addend: 0x0, symName: __RINvNtNtCs6IAuOt8vWmF_3syn3gen9visit_mut15visit_un_op_mutNtNtCsdE2kXyKmOF1_11async_trait8receiver9HasMutPatEBX_, symObjAddr: 0xA84C, symBinAddr: 0xB49C, symSize: 0xA8 }
  - { offset: 0x7393, size: 0x8, addend: 0x0, symName: __RINvNtNtCs6IAuOt8vWmF_3syn3gen9visit_mut15visit_un_op_mutNtNvNtCsdE2kXyKmOF1_11async_trait6expand29replace_impl_trait_with_infer25ReplaceImplTraitWithInferEBZ_, symObjAddr: 0xA8F4, symBinAddr: 0xB544, symSize: 0xA8 }
  - { offset: 0x73D5, size: 0x8, addend: 0x0, symName: __RINvNtNtCs6IAuOt8vWmF_3syn3gen9visit_mut15visit_un_op_mutNtNvNtCsdE2kXyKmOF1_11async_trait6expand35contains_associated_type_impl_trait24AssociatedTypeImplTraitsEBZ_, symObjAddr: 0xA99C, symBinAddr: 0xB5EC, symSize: 0xA8 }
  - { offset: 0x7417, size: 0x8, addend: 0x0, symName: __RINvNtNtCs6IAuOt8vWmF_3syn3gen9visit_mut16visit_bin_op_mutNtNtCsdE2kXyKmOF1_11async_trait8lifetime16CollectLifetimesEBY_, symObjAddr: 0xAA44, symBinAddr: 0xB694, symSize: 0x438 }
  - { offset: 0x7459, size: 0x8, addend: 0x0, symName: __RINvNtNtCs6IAuOt8vWmF_3syn3gen9visit_mut16visit_bin_op_mutNtNtCsdE2kXyKmOF1_11async_trait8receiver11ReplaceSelfEBY_, symObjAddr: 0xAE7C, symBinAddr: 0xBACC, symSize: 0x438 }
  - { offset: 0x749B, size: 0x8, addend: 0x0, symName: __RINvNtNtCs6IAuOt8vWmF_3syn3gen9visit_mut16visit_bin_op_mutNtNtCsdE2kXyKmOF1_11async_trait8receiver7HasSelfEBY_, symObjAddr: 0xB2B4, symBinAddr: 0xBF04, symSize: 0x438 }
  - { offset: 0x74DD, size: 0x8, addend: 0x0, symName: __RINvNtNtCs6IAuOt8vWmF_3syn3gen9visit_mut16visit_bin_op_mutNtNtCsdE2kXyKmOF1_11async_trait8receiver9HasMutPatEBY_, symObjAddr: 0xB6EC, symBinAddr: 0xC33C, symSize: 0x438 }
  - { offset: 0x751F, size: 0x8, addend: 0x0, symName: __RINvNtNtCs6IAuOt8vWmF_3syn3gen9visit_mut16visit_bin_op_mutNtNvNtCsdE2kXyKmOF1_11async_trait6expand29replace_impl_trait_with_infer25ReplaceImplTraitWithInferEB10_, symObjAddr: 0xBB24, symBinAddr: 0xC774, symSize: 0x438 }
  - { offset: 0x7561, size: 0x8, addend: 0x0, symName: __RINvNtNtCs6IAuOt8vWmF_3syn3gen9visit_mut16visit_bin_op_mutNtNvNtCsdE2kXyKmOF1_11async_trait6expand35contains_associated_type_impl_trait24AssociatedTypeImplTraitsEB10_, symObjAddr: 0xBF5C, symBinAddr: 0xCBAC, symSize: 0x438 }
  - { offset: 0x75A3, size: 0x8, addend: 0x0, symName: __RINvNtNtCs6IAuOt8vWmF_3syn3gen9visit_mut16visit_fields_mutNtNtCsdE2kXyKmOF1_11async_trait8lifetime16CollectLifetimesEBY_, symObjAddr: 0xC394, symBinAddr: 0xCFE4, symSize: 0xC4 }
  - { offset: 0x7621, size: 0x8, addend: 0x0, symName: __RINvNtNtCs6IAuOt8vWmF_3syn3gen9visit_mut16visit_fields_mutNtNtCsdE2kXyKmOF1_11async_trait8receiver9HasMutPatEBY_, symObjAddr: 0xC458, symBinAddr: 0xD0A8, symSize: 0xC4 }
  - { offset: 0x769F, size: 0x8, addend: 0x0, symName: __RINvNtNtCs6IAuOt8vWmF_3syn3gen9visit_mut16visit_fields_mutNtNvNtCsdE2kXyKmOF1_11async_trait6expand29replace_impl_trait_with_infer25ReplaceImplTraitWithInferEB10_, symObjAddr: 0xC51C, symBinAddr: 0xD16C, symSize: 0xC4 }
  - { offset: 0x771D, size: 0x8, addend: 0x0, symName: __RINvNtNtCs6IAuOt8vWmF_3syn3gen9visit_mut16visit_fields_mutNtNvNtCsdE2kXyKmOF1_11async_trait6expand35contains_associated_type_impl_trait24AssociatedTypeImplTraitsEB10_, symObjAddr: 0xC5E0, symBinAddr: 0xD230, symSize: 0xC4 }
  - { offset: 0x779B, size: 0x8, addend: 0x0, symName: __RINvNtNtCs6IAuOt8vWmF_3syn3gen9visit_mut16visit_fn_arg_mutNtNtCsdE2kXyKmOF1_11async_trait8lifetime16CollectLifetimesEBY_, symObjAddr: 0xC6A4, symBinAddr: 0xD2F4, symSize: 0xA0 }
  - { offset: 0x7811, size: 0x8, addend: 0x0, symName: __RINvNtNtCs6IAuOt8vWmF_3syn3gen9visit_mut16visit_fn_arg_mutNtNtCsdE2kXyKmOF1_11async_trait8receiver7HasSelfEBY_, symObjAddr: 0xC744, symBinAddr: 0xD394, symSize: 0xA0 }
  - { offset: 0x7887, size: 0x8, addend: 0x0, symName: __RINvNtNtCs6IAuOt8vWmF_3syn3gen9visit_mut16visit_fn_arg_mutNtNtCsdE2kXyKmOF1_11async_trait8receiver9HasMutPatEBY_, symObjAddr: 0xC7E4, symBinAddr: 0xD434, symSize: 0xA0 }
  - { offset: 0x78FD, size: 0x8, addend: 0x0, symName: __RINvNtNtCs6IAuOt8vWmF_3syn3gen9visit_mut16visit_fn_arg_mutNtNvNtCsdE2kXyKmOF1_11async_trait6expand29replace_impl_trait_with_infer25ReplaceImplTraitWithInferEB10_, symObjAddr: 0xC884, symBinAddr: 0xD4D4, symSize: 0xA0 }
  - { offset: 0x7973, size: 0x8, addend: 0x0, symName: __RINvNtNtCs6IAuOt8vWmF_3syn3gen9visit_mut16visit_fn_arg_mutNtNvNtCsdE2kXyKmOF1_11async_trait6expand35contains_associated_type_impl_trait24AssociatedTypeImplTraitsEB10_, symObjAddr: 0xC924, symBinAddr: 0xD574, symSize: 0xA0 }
  - { offset: 0x79E9, size: 0x8, addend: 0x0, symName: __RINvNtNtCs6IAuOt8vWmF_3syn3gen9visit_mut16visit_member_mutNtNtCsdE2kXyKmOF1_11async_trait8lifetime16CollectLifetimesEBY_, symObjAddr: 0xC9C4, symBinAddr: 0xD614, symSize: 0x98 }
  - { offset: 0x7A5F, size: 0x8, addend: 0x0, symName: __RINvNtNtCs6IAuOt8vWmF_3syn3gen9visit_mut16visit_member_mutNtNtCsdE2kXyKmOF1_11async_trait8receiver11ReplaceSelfEBY_, symObjAddr: 0xCA5C, symBinAddr: 0xD6AC, symSize: 0x98 }
  - { offset: 0x7AD5, size: 0x8, addend: 0x0, symName: __RINvNtNtCs6IAuOt8vWmF_3syn3gen9visit_mut16visit_member_mutNtNtCsdE2kXyKmOF1_11async_trait8receiver7HasSelfEBY_, symObjAddr: 0xCAF4, symBinAddr: 0xD744, symSize: 0x98 }
  - { offset: 0x7B4B, size: 0x8, addend: 0x0, symName: __RINvNtNtCs6IAuOt8vWmF_3syn3gen9visit_mut16visit_member_mutNtNtCsdE2kXyKmOF1_11async_trait8receiver9HasMutPatEBY_, symObjAddr: 0xCB8C, symBinAddr: 0xD7DC, symSize: 0x98 }
  - { offset: 0x7BC1, size: 0x8, addend: 0x0, symName: __RINvNtNtCs6IAuOt8vWmF_3syn3gen9visit_mut16visit_member_mutNtNvNtCsdE2kXyKmOF1_11async_trait6expand29replace_impl_trait_with_infer25ReplaceImplTraitWithInferEB10_, symObjAddr: 0xCC24, symBinAddr: 0xD874, symSize: 0x98 }
  - { offset: 0x7C37, size: 0x8, addend: 0x0, symName: __RINvNtNtCs6IAuOt8vWmF_3syn3gen9visit_mut16visit_member_mutNtNvNtCsdE2kXyKmOF1_11async_trait6expand35contains_associated_type_impl_trait24AssociatedTypeImplTraitsEB10_, symObjAddr: 0xCCBC, symBinAddr: 0xD90C, symSize: 0x98 }
  - { offset: 0x7CAD, size: 0x8, addend: 0x0, symName: __RINvNtNtCs6IAuOt8vWmF_3syn3gen9visit_mut16visit_pat_or_mutNtNtCsdE2kXyKmOF1_11async_trait8lifetime16CollectLifetimesEBY_, symObjAddr: 0xCD54, symBinAddr: 0xD9A4, symSize: 0xD0 }
  - { offset: 0x7D42, size: 0x8, addend: 0x0, symName: __RINvNtNtCs6IAuOt8vWmF_3syn3gen9visit_mut16visit_pat_or_mutNtNtCsdE2kXyKmOF1_11async_trait8receiver11ReplaceSelfEBY_, symObjAddr: 0xCE24, symBinAddr: 0xDA74, symSize: 0xD0 }
  - { offset: 0x7DD7, size: 0x8, addend: 0x0, symName: __RINvNtNtCs6IAuOt8vWmF_3syn3gen9visit_mut16visit_pat_or_mutNtNtCsdE2kXyKmOF1_11async_trait8receiver7HasSelfEBY_, symObjAddr: 0xCEF4, symBinAddr: 0xDB44, symSize: 0xD0 }
  - { offset: 0x7E6C, size: 0x8, addend: 0x0, symName: __RINvNtNtCs6IAuOt8vWmF_3syn3gen9visit_mut16visit_pat_or_mutNtNtCsdE2kXyKmOF1_11async_trait8receiver9HasMutPatEBY_, symObjAddr: 0xCFC4, symBinAddr: 0xDC14, symSize: 0xD0 }
  - { offset: 0x7F01, size: 0x8, addend: 0x0, symName: __RINvNtNtCs6IAuOt8vWmF_3syn3gen9visit_mut16visit_pat_or_mutNtNvNtCsdE2kXyKmOF1_11async_trait6expand29replace_impl_trait_with_infer25ReplaceImplTraitWithInferEB10_, symObjAddr: 0xD094, symBinAddr: 0xDCE4, symSize: 0xD0 }
  - { offset: 0x7F96, size: 0x8, addend: 0x0, symName: __RINvNtNtCs6IAuOt8vWmF_3syn3gen9visit_mut16visit_pat_or_mutNtNvNtCsdE2kXyKmOF1_11async_trait6expand35contains_associated_type_impl_trait24AssociatedTypeImplTraitsEB10_, symObjAddr: 0xD164, symBinAddr: 0xDDB4, symSize: 0xD0 }
  - { offset: 0x802B, size: 0x8, addend: 0x0, symName: __RINvNtNtCs6IAuOt8vWmF_3syn3gen9visit_mut17visit_expr_if_mutNtNtCsdE2kXyKmOF1_11async_trait8lifetime16CollectLifetimesEBZ_, symObjAddr: 0xD234, symBinAddr: 0xDE84, symSize: 0x104 }
  - { offset: 0x8083, size: 0x8, addend: 0x0, symName: __RINvNtNtCs6IAuOt8vWmF_3syn3gen9visit_mut17visit_expr_if_mutNtNtCsdE2kXyKmOF1_11async_trait8receiver11ReplaceSelfEBZ_, symObjAddr: 0xD338, symBinAddr: 0xDF88, symSize: 0x104 }
  - { offset: 0x80DB, size: 0x8, addend: 0x0, symName: __RINvNtNtCs6IAuOt8vWmF_3syn3gen9visit_mut17visit_expr_if_mutNtNtCsdE2kXyKmOF1_11async_trait8receiver7HasSelfEBZ_, symObjAddr: 0xD43C, symBinAddr: 0xE08C, symSize: 0x104 }
  - { offset: 0x8133, size: 0x8, addend: 0x0, symName: __RINvNtNtCs6IAuOt8vWmF_3syn3gen9visit_mut17visit_expr_if_mutNtNtCsdE2kXyKmOF1_11async_trait8receiver9HasMutPatEBZ_, symObjAddr: 0xD540, symBinAddr: 0xE190, symSize: 0x104 }
  - { offset: 0x818B, size: 0x8, addend: 0x0, symName: __RINvNtNtCs6IAuOt8vWmF_3syn3gen9visit_mut17visit_expr_if_mutNtNvNtCsdE2kXyKmOF1_11async_trait6expand29replace_impl_trait_with_infer25ReplaceImplTraitWithInferEB11_, symObjAddr: 0xD644, symBinAddr: 0xE294, symSize: 0x104 }
  - { offset: 0x81E3, size: 0x8, addend: 0x0, symName: __RINvNtNtCs6IAuOt8vWmF_3syn3gen9visit_mut17visit_expr_if_mutNtNvNtCsdE2kXyKmOF1_11async_trait6expand35contains_associated_type_impl_trait24AssociatedTypeImplTraitsEB11_, symObjAddr: 0xD748, symBinAddr: 0xE398, symSize: 0x104 }
  - { offset: 0x823B, size: 0x8, addend: 0x0, symName: __RINvNtNtCs6IAuOt8vWmF_3syn3gen9visit_mut17visit_item_fn_mutNtNtCsdE2kXyKmOF1_11async_trait8lifetime16CollectLifetimesEBZ_, symObjAddr: 0xD84C, symBinAddr: 0xE49C, symSize: 0x98 }
  - { offset: 0x827D, size: 0x8, addend: 0x0, symName: __RINvNtNtCs6IAuOt8vWmF_3syn3gen9visit_mut17visit_item_fn_mutNtNtCsdE2kXyKmOF1_11async_trait8receiver9HasMutPatEBZ_, symObjAddr: 0xD8E4, symBinAddr: 0xE534, symSize: 0x98 }
  - { offset: 0x82BF, size: 0x8, addend: 0x0, symName: __RINvNtNtCs6IAuOt8vWmF_3syn3gen9visit_mut17visit_item_fn_mutNtNvNtCsdE2kXyKmOF1_11async_trait6expand29replace_impl_trait_with_infer25ReplaceImplTraitWithInferEB11_, symObjAddr: 0xD97C, symBinAddr: 0xE5CC, symSize: 0x98 }
  - { offset: 0x8301, size: 0x8, addend: 0x0, symName: __RINvNtNtCs6IAuOt8vWmF_3syn3gen9visit_mut17visit_item_fn_mutNtNvNtCsdE2kXyKmOF1_11async_trait6expand35contains_associated_type_impl_trait24AssociatedTypeImplTraitsEB11_, symObjAddr: 0xDA14, symBinAddr: 0xE664, symSize: 0x98 }
  - { offset: 0x8343, size: 0x8, addend: 0x0, symName: __RINvNtNtCs6IAuOt8vWmF_3syn3gen9visit_mut17visit_lit_int_mutNtNtCsdE2kXyKmOF1_11async_trait8lifetime16CollectLifetimesEBZ_, symObjAddr: 0xDAAC, symBinAddr: 0xE6FC, symSize: 0x24 }
  - { offset: 0x8385, size: 0x8, addend: 0x0, symName: __RINvNtNtCs6IAuOt8vWmF_3syn3gen9visit_mut17visit_lit_int_mutNtNtCsdE2kXyKmOF1_11async_trait8receiver11ReplaceSelfEBZ_, symObjAddr: 0xDAD0, symBinAddr: 0xE720, symSize: 0x24 }
  - { offset: 0x83C7, size: 0x8, addend: 0x0, symName: __RINvNtNtCs6IAuOt8vWmF_3syn3gen9visit_mut17visit_lit_int_mutNtNtCsdE2kXyKmOF1_11async_trait8receiver7HasSelfEBZ_, symObjAddr: 0xDAF4, symBinAddr: 0xE744, symSize: 0x24 }
  - { offset: 0x8409, size: 0x8, addend: 0x0, symName: __RINvNtNtCs6IAuOt8vWmF_3syn3gen9visit_mut17visit_lit_int_mutNtNtCsdE2kXyKmOF1_11async_trait8receiver9HasMutPatEBZ_, symObjAddr: 0xDB18, symBinAddr: 0xE768, symSize: 0x24 }
  - { offset: 0x844B, size: 0x8, addend: 0x0, symName: __RINvNtNtCs6IAuOt8vWmF_3syn3gen9visit_mut17visit_lit_int_mutNtNvNtCsdE2kXyKmOF1_11async_trait6expand29replace_impl_trait_with_infer25ReplaceImplTraitWithInferEB11_, symObjAddr: 0xDB3C, symBinAddr: 0xE78C, symSize: 0x24 }
  - { offset: 0x848D, size: 0x8, addend: 0x0, symName: __RINvNtNtCs6IAuOt8vWmF_3syn3gen9visit_mut17visit_lit_int_mutNtNvNtCsdE2kXyKmOF1_11async_trait6expand35contains_associated_type_impl_trait24AssociatedTypeImplTraitsEB11_, symObjAddr: 0xDB60, symBinAddr: 0xE7B0, symSize: 0x24 }
  - { offset: 0x84CF, size: 0x8, addend: 0x0, symName: __RINvNtNtCs6IAuOt8vWmF_3syn3gen9visit_mut17visit_lit_str_mutNtNtCsdE2kXyKmOF1_11async_trait8lifetime16CollectLifetimesEBZ_, symObjAddr: 0xDB84, symBinAddr: 0xE7D4, symSize: 0x24 }
  - { offset: 0x8511, size: 0x8, addend: 0x0, symName: __RINvNtNtCs6IAuOt8vWmF_3syn3gen9visit_mut17visit_lit_str_mutNtNtCsdE2kXyKmOF1_11async_trait8lifetime22AddLifetimeToImplTraitEBZ_, symObjAddr: 0xDBA8, symBinAddr: 0xE7F8, symSize: 0x24 }
  - { offset: 0x8553, size: 0x8, addend: 0x0, symName: __RINvNtNtCs6IAuOt8vWmF_3syn3gen9visit_mut17visit_lit_str_mutNtNtCsdE2kXyKmOF1_11async_trait8receiver11ReplaceSelfEBZ_, symObjAddr: 0xDBCC, symBinAddr: 0xE81C, symSize: 0x24 }
  - { offset: 0x8595, size: 0x8, addend: 0x0, symName: __RINvNtNtCs6IAuOt8vWmF_3syn3gen9visit_mut17visit_lit_str_mutNtNtCsdE2kXyKmOF1_11async_trait8receiver7HasSelfEBZ_, symObjAddr: 0xDBF0, symBinAddr: 0xE840, symSize: 0x24 }
  - { offset: 0x85D7, size: 0x8, addend: 0x0, symName: __RINvNtNtCs6IAuOt8vWmF_3syn3gen9visit_mut17visit_lit_str_mutNtNtCsdE2kXyKmOF1_11async_trait8receiver9HasMutPatEBZ_, symObjAddr: 0xDC14, symBinAddr: 0xE864, symSize: 0x24 }
  - { offset: 0x8619, size: 0x8, addend: 0x0, symName: __RINvNtNtCs6IAuOt8vWmF_3syn3gen9visit_mut17visit_lit_str_mutNtNvNtCsdE2kXyKmOF1_11async_trait6expand29replace_impl_trait_with_infer25ReplaceImplTraitWithInferEB11_, symObjAddr: 0xDC38, symBinAddr: 0xE888, symSize: 0x24 }
  - { offset: 0x865B, size: 0x8, addend: 0x0, symName: __RINvNtNtCs6IAuOt8vWmF_3syn3gen9visit_mut17visit_lit_str_mutNtNvNtCsdE2kXyKmOF1_11async_trait6expand35contains_associated_type_impl_trait24AssociatedTypeImplTraitsEB11_, symObjAddr: 0xDC5C, symBinAddr: 0xE8AC, symSize: 0x24 }
  - { offset: 0x869D, size: 0x8, addend: 0x0, symName: __RINvNtNtCs6IAuOt8vWmF_3syn3gen9visit_mut17visit_variant_mutNtNtCsdE2kXyKmOF1_11async_trait8lifetime16CollectLifetimesEBZ_, symObjAddr: 0xDC80, symBinAddr: 0xE8D0, symSize: 0xB4 }
  - { offset: 0x86FD, size: 0x8, addend: 0x0, symName: __RINvNtNtCs6IAuOt8vWmF_3syn3gen9visit_mut17visit_variant_mutNtNtCsdE2kXyKmOF1_11async_trait8receiver9HasMutPatEBZ_, symObjAddr: 0xDD34, symBinAddr: 0xE984, symSize: 0xB4 }
  - { offset: 0x875D, size: 0x8, addend: 0x0, symName: __RINvNtNtCs6IAuOt8vWmF_3syn3gen9visit_mut17visit_variant_mutNtNvNtCsdE2kXyKmOF1_11async_trait6expand29replace_impl_trait_with_infer25ReplaceImplTraitWithInferEB11_, symObjAddr: 0xDDE8, symBinAddr: 0xEA38, symSize: 0xB4 }
  - { offset: 0x87BD, size: 0x8, addend: 0x0, symName: __RINvNtNtCs6IAuOt8vWmF_3syn3gen9visit_mut17visit_variant_mutNtNvNtCsdE2kXyKmOF1_11async_trait6expand35contains_associated_type_impl_trait24AssociatedTypeImplTraitsEB11_, symObjAddr: 0xDE9C, symBinAddr: 0xEAEC, symSize: 0xB4 }
  - { offset: 0x881D, size: 0x8, addend: 0x0, symName: __RINvNtNtCs6IAuOt8vWmF_3syn3gen9visit_mut18visit_expr_let_mutNtNtCsdE2kXyKmOF1_11async_trait8lifetime16CollectLifetimesEB10_, symObjAddr: 0xDF50, symBinAddr: 0xEBA0, symSize: 0xAC }
  - { offset: 0x885F, size: 0x8, addend: 0x0, symName: __RINvNtNtCs6IAuOt8vWmF_3syn3gen9visit_mut18visit_expr_let_mutNtNtCsdE2kXyKmOF1_11async_trait8receiver11ReplaceSelfEB10_, symObjAddr: 0xDFFC, symBinAddr: 0xEC4C, symSize: 0xAC }
  - { offset: 0x88A1, size: 0x8, addend: 0x0, symName: __RINvNtNtCs6IAuOt8vWmF_3syn3gen9visit_mut18visit_expr_let_mutNtNtCsdE2kXyKmOF1_11async_trait8receiver7HasSelfEB10_, symObjAddr: 0xE0A8, symBinAddr: 0xECF8, symSize: 0xAC }
  - { offset: 0x88E3, size: 0x8, addend: 0x0, symName: __RINvNtNtCs6IAuOt8vWmF_3syn3gen9visit_mut18visit_expr_let_mutNtNtCsdE2kXyKmOF1_11async_trait8receiver9HasMutPatEB10_, symObjAddr: 0xE154, symBinAddr: 0xEDA4, symSize: 0xAC }
  - { offset: 0x8925, size: 0x8, addend: 0x0, symName: __RINvNtNtCs6IAuOt8vWmF_3syn3gen9visit_mut18visit_expr_let_mutNtNvNtCsdE2kXyKmOF1_11async_trait6expand29replace_impl_trait_with_infer25ReplaceImplTraitWithInferEB12_, symObjAddr: 0xE200, symBinAddr: 0xEE50, symSize: 0xAC }
  - { offset: 0x8967, size: 0x8, addend: 0x0, symName: __RINvNtNtCs6IAuOt8vWmF_3syn3gen9visit_mut18visit_expr_let_mutNtNvNtCsdE2kXyKmOF1_11async_trait6expand35contains_associated_type_impl_trait24AssociatedTypeImplTraitsEB12_, symObjAddr: 0xE2AC, symBinAddr: 0xEEFC, symSize: 0xAC }
  - { offset: 0x89A9, size: 0x8, addend: 0x0, symName: __RINvNtNtCs6IAuOt8vWmF_3syn3gen9visit_mut18visit_expr_lit_mutNtNtCsdE2kXyKmOF1_11async_trait8lifetime16CollectLifetimesEB10_, symObjAddr: 0xE358, symBinAddr: 0xEFA8, symSize: 0x50 }
  - { offset: 0x89EB, size: 0x8, addend: 0x0, symName: __RINvNtNtCs6IAuOt8vWmF_3syn3gen9visit_mut18visit_expr_lit_mutNtNtCsdE2kXyKmOF1_11async_trait8receiver11ReplaceSelfEB10_, symObjAddr: 0xE3A8, symBinAddr: 0xEFF8, symSize: 0x50 }
  - { offset: 0x8A2D, size: 0x8, addend: 0x0, symName: __RINvNtNtCs6IAuOt8vWmF_3syn3gen9visit_mut18visit_expr_lit_mutNtNtCsdE2kXyKmOF1_11async_trait8receiver7HasSelfEB10_, symObjAddr: 0xE3F8, symBinAddr: 0xF048, symSize: 0x50 }
  - { offset: 0x8A6F, size: 0x8, addend: 0x0, symName: __RINvNtNtCs6IAuOt8vWmF_3syn3gen9visit_mut18visit_expr_lit_mutNtNtCsdE2kXyKmOF1_11async_trait8receiver9HasMutPatEB10_, symObjAddr: 0xE448, symBinAddr: 0xF098, symSize: 0x50 }
  - { offset: 0x8AB1, size: 0x8, addend: 0x0, symName: __RINvNtNtCs6IAuOt8vWmF_3syn3gen9visit_mut18visit_expr_lit_mutNtNvNtCsdE2kXyKmOF1_11async_trait6expand29replace_impl_trait_with_infer25ReplaceImplTraitWithInferEB12_, symObjAddr: 0xE498, symBinAddr: 0xF0E8, symSize: 0x50 }
  - { offset: 0x8AF3, size: 0x8, addend: 0x0, symName: __RINvNtNtCs6IAuOt8vWmF_3syn3gen9visit_mut18visit_expr_lit_mutNtNvNtCsdE2kXyKmOF1_11async_trait6expand35contains_associated_type_impl_trait24AssociatedTypeImplTraitsEB12_, symObjAddr: 0xE4E8, symBinAddr: 0xF138, symSize: 0x50 }
  - { offset: 0x8B35, size: 0x8, addend: 0x0, symName: __RINvNtNtCs6IAuOt8vWmF_3syn3gen9visit_mut18visit_expr_try_mutNtNtCsdE2kXyKmOF1_11async_trait8lifetime16CollectLifetimesEB10_, symObjAddr: 0xE538, symBinAddr: 0xF188, symSize: 0x78 }
  - { offset: 0x8B77, size: 0x8, addend: 0x0, symName: __RINvNtNtCs6IAuOt8vWmF_3syn3gen9visit_mut18visit_expr_try_mutNtNtCsdE2kXyKmOF1_11async_trait8receiver11ReplaceSelfEB10_, symObjAddr: 0xE5B0, symBinAddr: 0xF200, symSize: 0x78 }
  - { offset: 0x8BB9, size: 0x8, addend: 0x0, symName: __RINvNtNtCs6IAuOt8vWmF_3syn3gen9visit_mut18visit_expr_try_mutNtNtCsdE2kXyKmOF1_11async_trait8receiver7HasSelfEB10_, symObjAddr: 0xE628, symBinAddr: 0xF278, symSize: 0x78 }
  - { offset: 0x8BFB, size: 0x8, addend: 0x0, symName: __RINvNtNtCs6IAuOt8vWmF_3syn3gen9visit_mut18visit_expr_try_mutNtNtCsdE2kXyKmOF1_11async_trait8receiver9HasMutPatEB10_, symObjAddr: 0xE6A0, symBinAddr: 0xF2F0, symSize: 0x78 }
  - { offset: 0x8C3D, size: 0x8, addend: 0x0, symName: __RINvNtNtCs6IAuOt8vWmF_3syn3gen9visit_mut18visit_expr_try_mutNtNvNtCsdE2kXyKmOF1_11async_trait6expand29replace_impl_trait_with_infer25ReplaceImplTraitWithInferEB12_, symObjAddr: 0xE718, symBinAddr: 0xF368, symSize: 0x78 }
  - { offset: 0x8C7F, size: 0x8, addend: 0x0, symName: __RINvNtNtCs6IAuOt8vWmF_3syn3gen9visit_mut18visit_expr_try_mutNtNvNtCsdE2kXyKmOF1_11async_trait6expand35contains_associated_type_impl_trait24AssociatedTypeImplTraitsEB12_, symObjAddr: 0xE790, symBinAddr: 0xF3E0, symSize: 0x78 }
  - { offset: 0x8CC1, size: 0x8, addend: 0x0, symName: __RINvNtNtCs6IAuOt8vWmF_3syn3gen9visit_mut18visit_generics_mutNtNtCsdE2kXyKmOF1_11async_trait8lifetime16CollectLifetimesEB10_, symObjAddr: 0xE808, symBinAddr: 0xF458, symSize: 0x124 }
  - { offset: 0x8D6C, size: 0x8, addend: 0x0, symName: __RINvNtNtCs6IAuOt8vWmF_3syn3gen9visit_mut18visit_generics_mutNtNtCsdE2kXyKmOF1_11async_trait8receiver7HasSelfEB10_, symObjAddr: 0xE92C, symBinAddr: 0xF57C, symSize: 0x124 }
  - { offset: 0x8E17, size: 0x8, addend: 0x0, symName: __RINvNtNtCs6IAuOt8vWmF_3syn3gen9visit_mut18visit_generics_mutNtNtCsdE2kXyKmOF1_11async_trait8receiver9HasMutPatEB10_, symObjAddr: 0xEA50, symBinAddr: 0xF6A0, symSize: 0x124 }
  - { offset: 0x8EC2, size: 0x8, addend: 0x0, symName: __RINvNtNtCs6IAuOt8vWmF_3syn3gen9visit_mut18visit_generics_mutNtNvNtCsdE2kXyKmOF1_11async_trait6expand29replace_impl_trait_with_infer25ReplaceImplTraitWithInferEB12_, symObjAddr: 0xEB74, symBinAddr: 0xF7C4, symSize: 0x124 }
  - { offset: 0x8F6D, size: 0x8, addend: 0x0, symName: __RINvNtNtCs6IAuOt8vWmF_3syn3gen9visit_mut18visit_generics_mutNtNvNtCsdE2kXyKmOF1_11async_trait6expand35contains_associated_type_impl_trait24AssociatedTypeImplTraitsEB12_, symObjAddr: 0xEC98, symBinAddr: 0xF8E8, symSize: 0x124 }
  - { offset: 0x9018, size: 0x8, addend: 0x0, symName: __RINvNtNtCs6IAuOt8vWmF_3syn3gen9visit_mut18visit_item_mod_mutNtNtCsdE2kXyKmOF1_11async_trait8lifetime16CollectLifetimesEB10_, symObjAddr: 0xEDBC, symBinAddr: 0xFA0C, symSize: 0x108 }
  - { offset: 0x90A4, size: 0x8, addend: 0x0, symName: __RINvNtNtCs6IAuOt8vWmF_3syn3gen9visit_mut18visit_item_mod_mutNtNtCsdE2kXyKmOF1_11async_trait8receiver9HasMutPatEB10_, symObjAddr: 0xEEC4, symBinAddr: 0xFB14, symSize: 0x108 }
  - { offset: 0x9130, size: 0x8, addend: 0x0, symName: __RINvNtNtCs6IAuOt8vWmF_3syn3gen9visit_mut18visit_item_mod_mutNtNvNtCsdE2kXyKmOF1_11async_trait6expand29replace_impl_trait_with_infer25ReplaceImplTraitWithInferEB12_, symObjAddr: 0xEFCC, symBinAddr: 0xFC1C, symSize: 0x108 }
  - { offset: 0x91BC, size: 0x8, addend: 0x0, symName: __RINvNtNtCs6IAuOt8vWmF_3syn3gen9visit_mut18visit_item_mod_mutNtNvNtCsdE2kXyKmOF1_11async_trait6expand35contains_associated_type_impl_trait24AssociatedTypeImplTraitsEB12_, symObjAddr: 0xF0D4, symBinAddr: 0xFD24, symSize: 0x108 }
  - { offset: 0x9248, size: 0x8, addend: 0x0, symName: __RINvNtNtCs6IAuOt8vWmF_3syn3gen9visit_mut18visit_item_use_mutNtNtCsdE2kXyKmOF1_11async_trait8lifetime16CollectLifetimesEB10_, symObjAddr: 0xF1DC, symBinAddr: 0xFE2C, symSize: 0x60 }
  - { offset: 0x928A, size: 0x8, addend: 0x0, symName: __RINvNtNtCs6IAuOt8vWmF_3syn3gen9visit_mut18visit_item_use_mutNtNtCsdE2kXyKmOF1_11async_trait8receiver9HasMutPatEB10_, symObjAddr: 0xF23C, symBinAddr: 0xFE8C, symSize: 0x60 }
  - { offset: 0x92CC, size: 0x8, addend: 0x0, symName: __RINvNtNtCs6IAuOt8vWmF_3syn3gen9visit_mut18visit_item_use_mutNtNvNtCsdE2kXyKmOF1_11async_trait6expand29replace_impl_trait_with_infer25ReplaceImplTraitWithInferEB12_, symObjAddr: 0xF29C, symBinAddr: 0xFEEC, symSize: 0x60 }
  - { offset: 0x930E, size: 0x8, addend: 0x0, symName: __RINvNtNtCs6IAuOt8vWmF_3syn3gen9visit_mut18visit_item_use_mutNtNvNtCsdE2kXyKmOF1_11async_trait6expand35contains_associated_type_impl_trait24AssociatedTypeImplTraitsEB12_, symObjAddr: 0xF2FC, symBinAddr: 0xFF4C, symSize: 0x60 }
  - { offset: 0x9350, size: 0x8, addend: 0x0, symName: __RINvNtNtCs6IAuOt8vWmF_3syn3gen9visit_mut18visit_lifetime_mutNtNtCsdE2kXyKmOF1_11async_trait8lifetime16CollectLifetimesEB10_, symObjAddr: 0xF35C, symBinAddr: 0xFFAC, symSize: 0x50 }
  - { offset: 0x9392, size: 0x8, addend: 0x0, symName: __RINvNtNtCs6IAuOt8vWmF_3syn3gen9visit_mut18visit_lifetime_mutNtNtCsdE2kXyKmOF1_11async_trait8lifetime22AddLifetimeToImplTraitEB10_, symObjAddr: 0xF3AC, symBinAddr: 0xFFFC, symSize: 0x50 }
  - { offset: 0x93D4, size: 0x8, addend: 0x0, symName: __RINvNtNtCs6IAuOt8vWmF_3syn3gen9visit_mut18visit_lifetime_mutNtNtCsdE2kXyKmOF1_11async_trait8receiver11ReplaceSelfEB10_, symObjAddr: 0xF3FC, symBinAddr: 0x1004C, symSize: 0x50 }
  - { offset: 0x9416, size: 0x8, addend: 0x0, symName: __RINvNtNtCs6IAuOt8vWmF_3syn3gen9visit_mut18visit_lifetime_mutNtNtCsdE2kXyKmOF1_11async_trait8receiver7HasSelfEB10_, symObjAddr: 0xF44C, symBinAddr: 0x1009C, symSize: 0x50 }
  - { offset: 0x9458, size: 0x8, addend: 0x0, symName: __RINvNtNtCs6IAuOt8vWmF_3syn3gen9visit_mut18visit_lifetime_mutNtNtCsdE2kXyKmOF1_11async_trait8receiver9HasMutPatEB10_, symObjAddr: 0xF49C, symBinAddr: 0x100EC, symSize: 0x50 }
  - { offset: 0x949A, size: 0x8, addend: 0x0, symName: __RINvNtNtCs6IAuOt8vWmF_3syn3gen9visit_mut18visit_lifetime_mutNtNvNtCsdE2kXyKmOF1_11async_trait6expand29replace_impl_trait_with_infer25ReplaceImplTraitWithInferEB12_, symObjAddr: 0xF4EC, symBinAddr: 0x1013C, symSize: 0x50 }
  - { offset: 0x94DC, size: 0x8, addend: 0x0, symName: __RINvNtNtCs6IAuOt8vWmF_3syn3gen9visit_mut18visit_lifetime_mutNtNvNtCsdE2kXyKmOF1_11async_trait6expand35contains_associated_type_impl_trait24AssociatedTypeImplTraitsEB12_, symObjAddr: 0xF53C, symBinAddr: 0x1018C, symSize: 0x50 }
  - { offset: 0x951E, size: 0x8, addend: 0x0, symName: __RINvNtNtCs6IAuOt8vWmF_3syn3gen9visit_mut18visit_lit_bool_mutNtNtCsdE2kXyKmOF1_11async_trait8lifetime16CollectLifetimesEB10_, symObjAddr: 0xF58C, symBinAddr: 0x101DC, symSize: 0x3C }
  - { offset: 0x9560, size: 0x8, addend: 0x0, symName: __RINvNtNtCs6IAuOt8vWmF_3syn3gen9visit_mut18visit_lit_bool_mutNtNtCsdE2kXyKmOF1_11async_trait8receiver11ReplaceSelfEB10_, symObjAddr: 0xF5C8, symBinAddr: 0x10218, symSize: 0x3C }
  - { offset: 0x95A2, size: 0x8, addend: 0x0, symName: __RINvNtNtCs6IAuOt8vWmF_3syn3gen9visit_mut18visit_lit_bool_mutNtNtCsdE2kXyKmOF1_11async_trait8receiver7HasSelfEB10_, symObjAddr: 0xF604, symBinAddr: 0x10254, symSize: 0x3C }
  - { offset: 0x95E4, size: 0x8, addend: 0x0, symName: __RINvNtNtCs6IAuOt8vWmF_3syn3gen9visit_mut18visit_lit_bool_mutNtNtCsdE2kXyKmOF1_11async_trait8receiver9HasMutPatEB10_, symObjAddr: 0xF640, symBinAddr: 0x10290, symSize: 0x3C }
  - { offset: 0x9626, size: 0x8, addend: 0x0, symName: __RINvNtNtCs6IAuOt8vWmF_3syn3gen9visit_mut18visit_lit_bool_mutNtNvNtCsdE2kXyKmOF1_11async_trait6expand29replace_impl_trait_with_infer25ReplaceImplTraitWithInferEB12_, symObjAddr: 0xF67C, symBinAddr: 0x102CC, symSize: 0x3C }
  - { offset: 0x9668, size: 0x8, addend: 0x0, symName: __RINvNtNtCs6IAuOt8vWmF_3syn3gen9visit_mut18visit_lit_bool_mutNtNvNtCsdE2kXyKmOF1_11async_trait6expand35contains_associated_type_impl_trait24AssociatedTypeImplTraitsEB12_, symObjAddr: 0xF6B8, symBinAddr: 0x10308, symSize: 0x3C }
  - { offset: 0x96AA, size: 0x8, addend: 0x0, symName: __RINvNtNtCs6IAuOt8vWmF_3syn3gen9visit_mut18visit_lit_byte_mutNtNtCsdE2kXyKmOF1_11async_trait8lifetime16CollectLifetimesEB10_, symObjAddr: 0xF6F4, symBinAddr: 0x10344, symSize: 0x24 }
  - { offset: 0x96EC, size: 0x8, addend: 0x0, symName: __RINvNtNtCs6IAuOt8vWmF_3syn3gen9visit_mut18visit_lit_byte_mutNtNtCsdE2kXyKmOF1_11async_trait8receiver11ReplaceSelfEB10_, symObjAddr: 0xF718, symBinAddr: 0x10368, symSize: 0x24 }
  - { offset: 0x972E, size: 0x8, addend: 0x0, symName: __RINvNtNtCs6IAuOt8vWmF_3syn3gen9visit_mut18visit_lit_byte_mutNtNtCsdE2kXyKmOF1_11async_trait8receiver7HasSelfEB10_, symObjAddr: 0xF73C, symBinAddr: 0x1038C, symSize: 0x24 }
  - { offset: 0x9770, size: 0x8, addend: 0x0, symName: __RINvNtNtCs6IAuOt8vWmF_3syn3gen9visit_mut18visit_lit_byte_mutNtNtCsdE2kXyKmOF1_11async_trait8receiver9HasMutPatEB10_, symObjAddr: 0xF760, symBinAddr: 0x103B0, symSize: 0x24 }
  - { offset: 0x97B2, size: 0x8, addend: 0x0, symName: __RINvNtNtCs6IAuOt8vWmF_3syn3gen9visit_mut18visit_lit_byte_mutNtNvNtCsdE2kXyKmOF1_11async_trait6expand29replace_impl_trait_with_infer25ReplaceImplTraitWithInferEB12_, symObjAddr: 0xF784, symBinAddr: 0x103D4, symSize: 0x24 }
  - { offset: 0x97F4, size: 0x8, addend: 0x0, symName: __RINvNtNtCs6IAuOt8vWmF_3syn3gen9visit_mut18visit_lit_byte_mutNtNvNtCsdE2kXyKmOF1_11async_trait6expand35contains_associated_type_impl_trait24AssociatedTypeImplTraitsEB12_, symObjAddr: 0xF7A8, symBinAddr: 0x103F8, symSize: 0x24 }
  - { offset: 0x9836, size: 0x8, addend: 0x0, symName: __RINvNtNtCs6IAuOt8vWmF_3syn3gen9visit_mut18visit_lit_char_mutNtNtCsdE2kXyKmOF1_11async_trait8lifetime16CollectLifetimesEB10_, symObjAddr: 0xF7CC, symBinAddr: 0x1041C, symSize: 0x24 }
  - { offset: 0x9878, size: 0x8, addend: 0x0, symName: __RINvNtNtCs6IAuOt8vWmF_3syn3gen9visit_mut18visit_lit_char_mutNtNtCsdE2kXyKmOF1_11async_trait8receiver11ReplaceSelfEB10_, symObjAddr: 0xF7F0, symBinAddr: 0x10440, symSize: 0x24 }
  - { offset: 0x98BA, size: 0x8, addend: 0x0, symName: __RINvNtNtCs6IAuOt8vWmF_3syn3gen9visit_mut18visit_lit_char_mutNtNtCsdE2kXyKmOF1_11async_trait8receiver7HasSelfEB10_, symObjAddr: 0xF814, symBinAddr: 0x10464, symSize: 0x24 }
  - { offset: 0x98FC, size: 0x8, addend: 0x0, symName: __RINvNtNtCs6IAuOt8vWmF_3syn3gen9visit_mut18visit_lit_char_mutNtNtCsdE2kXyKmOF1_11async_trait8receiver9HasMutPatEB10_, symObjAddr: 0xF838, symBinAddr: 0x10488, symSize: 0x24 }
  - { offset: 0x993E, size: 0x8, addend: 0x0, symName: __RINvNtNtCs6IAuOt8vWmF_3syn3gen9visit_mut18visit_lit_char_mutNtNvNtCsdE2kXyKmOF1_11async_trait6expand29replace_impl_trait_with_infer25ReplaceImplTraitWithInferEB12_, symObjAddr: 0xF85C, symBinAddr: 0x104AC, symSize: 0x24 }
  - { offset: 0x9980, size: 0x8, addend: 0x0, symName: __RINvNtNtCs6IAuOt8vWmF_3syn3gen9visit_mut18visit_lit_char_mutNtNvNtCsdE2kXyKmOF1_11async_trait6expand35contains_associated_type_impl_trait24AssociatedTypeImplTraitsEB12_, symObjAddr: 0xF880, symBinAddr: 0x104D0, symSize: 0x24 }
  - { offset: 0x99C2, size: 0x8, addend: 0x0, symName: __RINvNtNtCs6IAuOt8vWmF_3syn3gen9visit_mut18visit_lit_cstr_mutNtNtCsdE2kXyKmOF1_11async_trait8lifetime16CollectLifetimesEB10_, symObjAddr: 0xF8A4, symBinAddr: 0x104F4, symSize: 0x24 }
  - { offset: 0x9A04, size: 0x8, addend: 0x0, symName: __RINvNtNtCs6IAuOt8vWmF_3syn3gen9visit_mut18visit_lit_cstr_mutNtNtCsdE2kXyKmOF1_11async_trait8receiver11ReplaceSelfEB10_, symObjAddr: 0xF8C8, symBinAddr: 0x10518, symSize: 0x24 }
  - { offset: 0x9A46, size: 0x8, addend: 0x0, symName: __RINvNtNtCs6IAuOt8vWmF_3syn3gen9visit_mut18visit_lit_cstr_mutNtNtCsdE2kXyKmOF1_11async_trait8receiver7HasSelfEB10_, symObjAddr: 0xF8EC, symBinAddr: 0x1053C, symSize: 0x24 }
  - { offset: 0x9A88, size: 0x8, addend: 0x0, symName: __RINvNtNtCs6IAuOt8vWmF_3syn3gen9visit_mut18visit_lit_cstr_mutNtNtCsdE2kXyKmOF1_11async_trait8receiver9HasMutPatEB10_, symObjAddr: 0xF910, symBinAddr: 0x10560, symSize: 0x24 }
  - { offset: 0x9ACA, size: 0x8, addend: 0x0, symName: __RINvNtNtCs6IAuOt8vWmF_3syn3gen9visit_mut18visit_lit_cstr_mutNtNvNtCsdE2kXyKmOF1_11async_trait6expand29replace_impl_trait_with_infer25ReplaceImplTraitWithInferEB12_, symObjAddr: 0xF934, symBinAddr: 0x10584, symSize: 0x24 }
  - { offset: 0x9B0C, size: 0x8, addend: 0x0, symName: __RINvNtNtCs6IAuOt8vWmF_3syn3gen9visit_mut18visit_lit_cstr_mutNtNvNtCsdE2kXyKmOF1_11async_trait6expand35contains_associated_type_impl_trait24AssociatedTypeImplTraitsEB12_, symObjAddr: 0xF958, symBinAddr: 0x105A8, symSize: 0x24 }
  - { offset: 0x9B4E, size: 0x8, addend: 0x0, symName: __RINvNtNtCs6IAuOt8vWmF_3syn3gen9visit_mut18visit_pat_rest_mutNtNtCsdE2kXyKmOF1_11async_trait8lifetime16CollectLifetimesEB10_, symObjAddr: 0xF97C, symBinAddr: 0x105CC, symSize: 0x3C }
  - { offset: 0x9B90, size: 0x8, addend: 0x0, symName: __RINvNtNtCs6IAuOt8vWmF_3syn3gen9visit_mut18visit_pat_rest_mutNtNtCsdE2kXyKmOF1_11async_trait8receiver11ReplaceSelfEB10_, symObjAddr: 0xF9B8, symBinAddr: 0x10608, symSize: 0x3C }
  - { offset: 0x9BD2, size: 0x8, addend: 0x0, symName: __RINvNtNtCs6IAuOt8vWmF_3syn3gen9visit_mut18visit_pat_rest_mutNtNtCsdE2kXyKmOF1_11async_trait8receiver7HasSelfEB10_, symObjAddr: 0xF9F4, symBinAddr: 0x10644, symSize: 0x3C }
  - { offset: 0x9C14, size: 0x8, addend: 0x0, symName: __RINvNtNtCs6IAuOt8vWmF_3syn3gen9visit_mut18visit_pat_rest_mutNtNtCsdE2kXyKmOF1_11async_trait8receiver9HasMutPatEB10_, symObjAddr: 0xFA30, symBinAddr: 0x10680, symSize: 0x3C }
  - { offset: 0x9C56, size: 0x8, addend: 0x0, symName: __RINvNtNtCs6IAuOt8vWmF_3syn3gen9visit_mut18visit_pat_rest_mutNtNvNtCsdE2kXyKmOF1_11async_trait6expand29replace_impl_trait_with_infer25ReplaceImplTraitWithInferEB12_, symObjAddr: 0xFA6C, symBinAddr: 0x106BC, symSize: 0x3C }
  - { offset: 0x9C98, size: 0x8, addend: 0x0, symName: __RINvNtNtCs6IAuOt8vWmF_3syn3gen9visit_mut18visit_pat_rest_mutNtNvNtCsdE2kXyKmOF1_11async_trait6expand35contains_associated_type_impl_trait24AssociatedTypeImplTraitsEB12_, symObjAddr: 0xFAA8, symBinAddr: 0x106F8, symSize: 0x3C }
  - { offset: 0x9CDA, size: 0x8, addend: 0x0, symName: __RINvNtNtCs6IAuOt8vWmF_3syn3gen9visit_mut18visit_pat_type_mutNtNtCsdE2kXyKmOF1_11async_trait8lifetime16CollectLifetimesEB10_, symObjAddr: 0xFAE4, symBinAddr: 0x10734, symSize: 0xAC }
  - { offset: 0x9D1C, size: 0x8, addend: 0x0, symName: __RINvNtNtCs6IAuOt8vWmF_3syn3gen9visit_mut18visit_pat_type_mutNtNtCsdE2kXyKmOF1_11async_trait8receiver11ReplaceSelfEB10_, symObjAddr: 0xFB90, symBinAddr: 0x107E0, symSize: 0xAC }
  - { offset: 0x9D5E, size: 0x8, addend: 0x0, symName: __RINvNtNtCs6IAuOt8vWmF_3syn3gen9visit_mut18visit_pat_type_mutNtNtCsdE2kXyKmOF1_11async_trait8receiver7HasSelfEB10_, symObjAddr: 0xFC3C, symBinAddr: 0x1088C, symSize: 0xAC }
  - { offset: 0x9DA0, size: 0x8, addend: 0x0, symName: __RINvNtNtCs6IAuOt8vWmF_3syn3gen9visit_mut18visit_pat_type_mutNtNtCsdE2kXyKmOF1_11async_trait8receiver9HasMutPatEB10_, symObjAddr: 0xFCE8, symBinAddr: 0x10938, symSize: 0xAC }
  - { offset: 0x9DE2, size: 0x8, addend: 0x0, symName: __RINvNtNtCs6IAuOt8vWmF_3syn3gen9visit_mut18visit_pat_type_mutNtNvNtCsdE2kXyKmOF1_11async_trait6expand29replace_impl_trait_with_infer25ReplaceImplTraitWithInferEB12_, symObjAddr: 0xFD94, symBinAddr: 0x109E4, symSize: 0xAC }
  - { offset: 0x9E24, size: 0x8, addend: 0x0, symName: __RINvNtNtCs6IAuOt8vWmF_3syn3gen9visit_mut18visit_pat_type_mutNtNvNtCsdE2kXyKmOF1_11async_trait6expand35contains_associated_type_impl_trait24AssociatedTypeImplTraitsEB12_, symObjAddr: 0xFE40, symBinAddr: 0x10A90, symSize: 0xAC }
  - { offset: 0x9E66, size: 0x8, addend: 0x0, symName: __RINvNtNtCs6IAuOt8vWmF_3syn3gen9visit_mut18visit_pat_wild_mutNtNtCsdE2kXyKmOF1_11async_trait8lifetime16CollectLifetimesEB10_, symObjAddr: 0xFEEC, symBinAddr: 0x10B3C, symSize: 0x3C }
  - { offset: 0x9EA8, size: 0x8, addend: 0x0, symName: __RINvNtNtCs6IAuOt8vWmF_3syn3gen9visit_mut18visit_pat_wild_mutNtNtCsdE2kXyKmOF1_11async_trait8receiver11ReplaceSelfEB10_, symObjAddr: 0xFF28, symBinAddr: 0x10B78, symSize: 0x3C }
  - { offset: 0x9EEA, size: 0x8, addend: 0x0, symName: __RINvNtNtCs6IAuOt8vWmF_3syn3gen9visit_mut18visit_pat_wild_mutNtNtCsdE2kXyKmOF1_11async_trait8receiver7HasSelfEB10_, symObjAddr: 0xFF64, symBinAddr: 0x10BB4, symSize: 0x3C }
  - { offset: 0x9F2C, size: 0x8, addend: 0x0, symName: __RINvNtNtCs6IAuOt8vWmF_3syn3gen9visit_mut18visit_pat_wild_mutNtNtCsdE2kXyKmOF1_11async_trait8receiver9HasMutPatEB10_, symObjAddr: 0xFFA0, symBinAddr: 0x10BF0, symSize: 0x3C }
  - { offset: 0x9F6E, size: 0x8, addend: 0x0, symName: __RINvNtNtCs6IAuOt8vWmF_3syn3gen9visit_mut18visit_pat_wild_mutNtNvNtCsdE2kXyKmOF1_11async_trait6expand29replace_impl_trait_with_infer25ReplaceImplTraitWithInferEB12_, symObjAddr: 0xFFDC, symBinAddr: 0x10C2C, symSize: 0x3C }
  - { offset: 0x9FB0, size: 0x8, addend: 0x0, symName: __RINvNtNtCs6IAuOt8vWmF_3syn3gen9visit_mut18visit_pat_wild_mutNtNvNtCsdE2kXyKmOF1_11async_trait6expand35contains_associated_type_impl_trait24AssociatedTypeImplTraitsEB12_, symObjAddr: 0x10018, symBinAddr: 0x10C68, symSize: 0x3C }
  - { offset: 0x9FF2, size: 0x8, addend: 0x0, symName: __RINvNtNtCs6IAuOt8vWmF_3syn3gen9visit_mut18visit_receiver_mutNtNtCsdE2kXyKmOF1_11async_trait8receiver9HasMutPatEB10_, symObjAddr: 0x10054, symBinAddr: 0x10CA4, symSize: 0x10C }
  - { offset: 0xA060, size: 0x8, addend: 0x0, symName: __RINvNtNtCs6IAuOt8vWmF_3syn3gen9visit_mut18visit_receiver_mutNtNvNtCsdE2kXyKmOF1_11async_trait6expand29replace_impl_trait_with_infer25ReplaceImplTraitWithInferEB12_, symObjAddr: 0x10160, symBinAddr: 0x10DB0, symSize: 0x10C }
  - { offset: 0xA0CE, size: 0x8, addend: 0x0, symName: __RINvNtNtCs6IAuOt8vWmF_3syn3gen9visit_mut18visit_receiver_mutNtNvNtCsdE2kXyKmOF1_11async_trait6expand35contains_associated_type_impl_trait24AssociatedTypeImplTraitsEB12_, symObjAddr: 0x1026C, symBinAddr: 0x10EBC, symSize: 0x10C }
  - { offset: 0xA13C, size: 0x8, addend: 0x0, symName: __RINvNtNtCs6IAuOt8vWmF_3syn3gen9visit_mut18visit_type_ptr_mutNtNtCsdE2kXyKmOF1_11async_trait8lifetime16CollectLifetimesEB10_, symObjAddr: 0x10378, symBinAddr: 0x10FC8, symSize: 0x68 }
  - { offset: 0xA17E, size: 0x8, addend: 0x0, symName: __RINvNtNtCs6IAuOt8vWmF_3syn3gen9visit_mut18visit_type_ptr_mutNtNtCsdE2kXyKmOF1_11async_trait8lifetime22AddLifetimeToImplTraitEB10_, symObjAddr: 0x103E0, symBinAddr: 0x11030, symSize: 0x68 }
  - { offset: 0xA1C0, size: 0x8, addend: 0x0, symName: __RINvNtNtCs6IAuOt8vWmF_3syn3gen9visit_mut18visit_type_ptr_mutNtNtCsdE2kXyKmOF1_11async_trait8receiver11ReplaceSelfEB10_, symObjAddr: 0x10448, symBinAddr: 0x11098, symSize: 0x68 }
  - { offset: 0xA202, size: 0x8, addend: 0x0, symName: __RINvNtNtCs6IAuOt8vWmF_3syn3gen9visit_mut18visit_type_ptr_mutNtNtCsdE2kXyKmOF1_11async_trait8receiver7HasSelfEB10_, symObjAddr: 0x104B0, symBinAddr: 0x11100, symSize: 0x68 }
  - { offset: 0xA244, size: 0x8, addend: 0x0, symName: __RINvNtNtCs6IAuOt8vWmF_3syn3gen9visit_mut18visit_type_ptr_mutNtNtCsdE2kXyKmOF1_11async_trait8receiver9HasMutPatEB10_, symObjAddr: 0x10518, symBinAddr: 0x11168, symSize: 0x68 }
  - { offset: 0xA286, size: 0x8, addend: 0x0, symName: __RINvNtNtCs6IAuOt8vWmF_3syn3gen9visit_mut18visit_type_ptr_mutNtNvNtCsdE2kXyKmOF1_11async_trait6expand29replace_impl_trait_with_infer25ReplaceImplTraitWithInferEB12_, symObjAddr: 0x10580, symBinAddr: 0x111D0, symSize: 0x68 }
  - { offset: 0xA2C8, size: 0x8, addend: 0x0, symName: __RINvNtNtCs6IAuOt8vWmF_3syn3gen9visit_mut18visit_type_ptr_mutNtNvNtCsdE2kXyKmOF1_11async_trait6expand35contains_associated_type_impl_trait24AssociatedTypeImplTraitsEB12_, symObjAddr: 0x105E8, symBinAddr: 0x11238, symSize: 0x68 }
  - { offset: 0xA30A, size: 0x8, addend: 0x0, symName: __RINvNtNtCs6IAuOt8vWmF_3syn3gen9visit_mut18visit_use_glob_mutNtNtCsdE2kXyKmOF1_11async_trait8lifetime16CollectLifetimesEB10_, symObjAddr: 0x10650, symBinAddr: 0x112A0, symSize: 0x24 }
  - { offset: 0xA34C, size: 0x8, addend: 0x0, symName: __RINvNtNtCs6IAuOt8vWmF_3syn3gen9visit_mut18visit_use_glob_mutNtNtCsdE2kXyKmOF1_11async_trait8receiver9HasMutPatEB10_, symObjAddr: 0x10674, symBinAddr: 0x112C4, symSize: 0x24 }
  - { offset: 0xA38E, size: 0x8, addend: 0x0, symName: __RINvNtNtCs6IAuOt8vWmF_3syn3gen9visit_mut18visit_use_glob_mutNtNvNtCsdE2kXyKmOF1_11async_trait6expand29replace_impl_trait_with_infer25ReplaceImplTraitWithInferEB12_, symObjAddr: 0x10698, symBinAddr: 0x112E8, symSize: 0x24 }
  - { offset: 0xA3D0, size: 0x8, addend: 0x0, symName: __RINvNtNtCs6IAuOt8vWmF_3syn3gen9visit_mut18visit_use_glob_mutNtNvNtCsdE2kXyKmOF1_11async_trait6expand35contains_associated_type_impl_trait24AssociatedTypeImplTraitsEB12_, symObjAddr: 0x106BC, symBinAddr: 0x1130C, symSize: 0x24 }
  - { offset: 0xA412, size: 0x8, addend: 0x0, symName: __RINvNtNtCs6IAuOt8vWmF_3syn3gen9visit_mut18visit_use_name_mutNtNtCsdE2kXyKmOF1_11async_trait8lifetime16CollectLifetimesEB10_, symObjAddr: 0x106E0, symBinAddr: 0x11330, symSize: 0x3C }
  - { offset: 0xA454, size: 0x8, addend: 0x0, symName: __RINvNtNtCs6IAuOt8vWmF_3syn3gen9visit_mut18visit_use_name_mutNtNtCsdE2kXyKmOF1_11async_trait8receiver9HasMutPatEB10_, symObjAddr: 0x1071C, symBinAddr: 0x1136C, symSize: 0x3C }
  - { offset: 0xA496, size: 0x8, addend: 0x0, symName: __RINvNtNtCs6IAuOt8vWmF_3syn3gen9visit_mut18visit_use_name_mutNtNvNtCsdE2kXyKmOF1_11async_trait6expand29replace_impl_trait_with_infer25ReplaceImplTraitWithInferEB12_, symObjAddr: 0x10758, symBinAddr: 0x113A8, symSize: 0x3C }
  - { offset: 0xA4D8, size: 0x8, addend: 0x0, symName: __RINvNtNtCs6IAuOt8vWmF_3syn3gen9visit_mut18visit_use_name_mutNtNvNtCsdE2kXyKmOF1_11async_trait6expand35contains_associated_type_impl_trait24AssociatedTypeImplTraitsEB12_, symObjAddr: 0x10794, symBinAddr: 0x113E4, symSize: 0x3C }
  - { offset: 0xA51A, size: 0x8, addend: 0x0, symName: __RINvNtNtCs6IAuOt8vWmF_3syn3gen9visit_mut18visit_use_path_mutNtNtCsdE2kXyKmOF1_11async_trait8lifetime16CollectLifetimesEB10_, symObjAddr: 0x107D0, symBinAddr: 0x11420, symSize: 0x7C }
  - { offset: 0xA55C, size: 0x8, addend: 0x0, symName: __RINvNtNtCs6IAuOt8vWmF_3syn3gen9visit_mut18visit_use_path_mutNtNtCsdE2kXyKmOF1_11async_trait8receiver9HasMutPatEB10_, symObjAddr: 0x1084C, symBinAddr: 0x1149C, symSize: 0x7C }
  - { offset: 0xA59E, size: 0x8, addend: 0x0, symName: __RINvNtNtCs6IAuOt8vWmF_3syn3gen9visit_mut18visit_use_path_mutNtNvNtCsdE2kXyKmOF1_11async_trait6expand29replace_impl_trait_with_infer25ReplaceImplTraitWithInferEB12_, symObjAddr: 0x108C8, symBinAddr: 0x11518, symSize: 0x7C }
  - { offset: 0xA5E0, size: 0x8, addend: 0x0, symName: __RINvNtNtCs6IAuOt8vWmF_3syn3gen9visit_mut18visit_use_path_mutNtNvNtCsdE2kXyKmOF1_11async_trait6expand35contains_associated_type_impl_trait24AssociatedTypeImplTraitsEB12_, symObjAddr: 0x10944, symBinAddr: 0x11594, symSize: 0x7C }
  - { offset: 0xA622, size: 0x8, addend: 0x0, symName: __RINvNtNtCs6IAuOt8vWmF_3syn3gen9visit_mut18visit_use_tree_mutNtNtCsdE2kXyKmOF1_11async_trait8lifetime16CollectLifetimesEB10_, symObjAddr: 0x109C0, symBinAddr: 0x11610, symSize: 0x15C }
  - { offset: 0xA6F2, size: 0x8, addend: 0x0, symName: __RINvNtNtCs6IAuOt8vWmF_3syn3gen9visit_mut18visit_use_tree_mutNtNtCsdE2kXyKmOF1_11async_trait8receiver9HasMutPatEB10_, symObjAddr: 0x10B1C, symBinAddr: 0x1176C, symSize: 0x15C }
  - { offset: 0xA7C2, size: 0x8, addend: 0x0, symName: __RINvNtNtCs6IAuOt8vWmF_3syn3gen9visit_mut18visit_use_tree_mutNtNvNtCsdE2kXyKmOF1_11async_trait6expand29replace_impl_trait_with_infer25ReplaceImplTraitWithInferEB12_, symObjAddr: 0x10C78, symBinAddr: 0x118C8, symSize: 0x15C }
  - { offset: 0xA892, size: 0x8, addend: 0x0, symName: __RINvNtNtCs6IAuOt8vWmF_3syn3gen9visit_mut18visit_use_tree_mutNtNvNtCsdE2kXyKmOF1_11async_trait6expand35contains_associated_type_impl_trait24AssociatedTypeImplTraitsEB12_, symObjAddr: 0x10DD4, symBinAddr: 0x11A24, symSize: 0x15C }
  - { offset: 0xA962, size: 0x8, addend: 0x0, symName: __RINvNtNtCs6IAuOt8vWmF_3syn3gen9visit_mut18visit_variadic_mutNtNtCsdE2kXyKmOF1_11async_trait8lifetime16CollectLifetimesEB10_, symObjAddr: 0x10F30, symBinAddr: 0x11B80, symSize: 0xB8 }
  - { offset: 0xA9BA, size: 0x8, addend: 0x0, symName: __RINvNtNtCs6IAuOt8vWmF_3syn3gen9visit_mut18visit_variadic_mutNtNtCsdE2kXyKmOF1_11async_trait8receiver7HasSelfEB10_, symObjAddr: 0x10FE8, symBinAddr: 0x11C38, symSize: 0xB8 }
  - { offset: 0xAA12, size: 0x8, addend: 0x0, symName: __RINvNtNtCs6IAuOt8vWmF_3syn3gen9visit_mut18visit_variadic_mutNtNtCsdE2kXyKmOF1_11async_trait8receiver9HasMutPatEB10_, symObjAddr: 0x110A0, symBinAddr: 0x11CF0, symSize: 0xB8 }
  - { offset: 0xAA6A, size: 0x8, addend: 0x0, symName: __RINvNtNtCs6IAuOt8vWmF_3syn3gen9visit_mut18visit_variadic_mutNtNvNtCsdE2kXyKmOF1_11async_trait6expand29replace_impl_trait_with_infer25ReplaceImplTraitWithInferEB12_, symObjAddr: 0x11158, symBinAddr: 0x11DA8, symSize: 0xB8 }
  - { offset: 0xAAC2, size: 0x8, addend: 0x0, symName: __RINvNtNtCs6IAuOt8vWmF_3syn3gen9visit_mut18visit_variadic_mutNtNvNtCsdE2kXyKmOF1_11async_trait6expand35contains_associated_type_impl_trait24AssociatedTypeImplTraitsEB12_, symObjAddr: 0x11210, symBinAddr: 0x11E60, symSize: 0xB8 }
  - { offset: 0xAB1A, size: 0x8, addend: 0x0, symName: __RINvNtNtCs6IAuOt8vWmF_3syn3gen9visit_mut19visit_attribute_mutNtNtCsdE2kXyKmOF1_11async_trait8lifetime16CollectLifetimesEB11_, symObjAddr: 0x112C8, symBinAddr: 0x11F18, symSize: 0x50 }
  - { offset: 0xAB5C, size: 0x8, addend: 0x0, symName: __RINvNtNtCs6IAuOt8vWmF_3syn3gen9visit_mut19visit_attribute_mutNtNtCsdE2kXyKmOF1_11async_trait8lifetime22AddLifetimeToImplTraitEB11_, symObjAddr: 0x11318, symBinAddr: 0x11F68, symSize: 0x50 }
  - { offset: 0xAB9E, size: 0x8, addend: 0x0, symName: __RINvNtNtCs6IAuOt8vWmF_3syn3gen9visit_mut19visit_attribute_mutNtNtCsdE2kXyKmOF1_11async_trait8receiver11ReplaceSelfEB11_, symObjAddr: 0x11368, symBinAddr: 0x11FB8, symSize: 0x50 }
  - { offset: 0xABE0, size: 0x8, addend: 0x0, symName: __RINvNtNtCs6IAuOt8vWmF_3syn3gen9visit_mut19visit_attribute_mutNtNtCsdE2kXyKmOF1_11async_trait8receiver7HasSelfEB11_, symObjAddr: 0x113B8, symBinAddr: 0x12008, symSize: 0x50 }
  - { offset: 0xAC22, size: 0x8, addend: 0x0, symName: __RINvNtNtCs6IAuOt8vWmF_3syn3gen9visit_mut19visit_attribute_mutNtNtCsdE2kXyKmOF1_11async_trait8receiver9HasMutPatEB11_, symObjAddr: 0x11408, symBinAddr: 0x12058, symSize: 0x50 }
  - { offset: 0xAC64, size: 0x8, addend: 0x0, symName: __RINvNtNtCs6IAuOt8vWmF_3syn3gen9visit_mut19visit_attribute_mutNtNvNtCsdE2kXyKmOF1_11async_trait6expand29replace_impl_trait_with_infer25ReplaceImplTraitWithInferEB13_, symObjAddr: 0x11458, symBinAddr: 0x120A8, symSize: 0x50 }
  - { offset: 0xACA6, size: 0x8, addend: 0x0, symName: __RINvNtNtCs6IAuOt8vWmF_3syn3gen9visit_mut19visit_attribute_mutNtNvNtCsdE2kXyKmOF1_11async_trait6expand35contains_associated_type_impl_trait24AssociatedTypeImplTraitsEB13_, symObjAddr: 0x114A8, symBinAddr: 0x120F8, symSize: 0x50 }
  - { offset: 0xACE8, size: 0x8, addend: 0x0, symName: __RINvNtNtCs6IAuOt8vWmF_3syn3gen9visit_mut19visit_expr_call_mutNtNtCsdE2kXyKmOF1_11async_trait8lifetime16CollectLifetimesEB11_, symObjAddr: 0x114F8, symBinAddr: 0x12148, symSize: 0x108 }
  - { offset: 0xAD7D, size: 0x8, addend: 0x0, symName: __RINvNtNtCs6IAuOt8vWmF_3syn3gen9visit_mut19visit_expr_call_mutNtNtCsdE2kXyKmOF1_11async_trait8receiver11ReplaceSelfEB11_, symObjAddr: 0x11600, symBinAddr: 0x12250, symSize: 0x108 }
  - { offset: 0xAE12, size: 0x8, addend: 0x0, symName: __RINvNtNtCs6IAuOt8vWmF_3syn3gen9visit_mut19visit_expr_call_mutNtNtCsdE2kXyKmOF1_11async_trait8receiver7HasSelfEB11_, symObjAddr: 0x11708, symBinAddr: 0x12358, symSize: 0x108 }
  - { offset: 0xAEA7, size: 0x8, addend: 0x0, symName: __RINvNtNtCs6IAuOt8vWmF_3syn3gen9visit_mut19visit_expr_call_mutNtNtCsdE2kXyKmOF1_11async_trait8receiver9HasMutPatEB11_, symObjAddr: 0x11810, symBinAddr: 0x12460, symSize: 0x108 }
  - { offset: 0xAF3C, size: 0x8, addend: 0x0, symName: __RINvNtNtCs6IAuOt8vWmF_3syn3gen9visit_mut19visit_expr_call_mutNtNvNtCsdE2kXyKmOF1_11async_trait6expand29replace_impl_trait_with_infer25ReplaceImplTraitWithInferEB13_, symObjAddr: 0x11918, symBinAddr: 0x12568, symSize: 0x108 }
  - { offset: 0xAFD1, size: 0x8, addend: 0x0, symName: __RINvNtNtCs6IAuOt8vWmF_3syn3gen9visit_mut19visit_expr_call_mutNtNvNtCsdE2kXyKmOF1_11async_trait6expand35contains_associated_type_impl_trait24AssociatedTypeImplTraitsEB13_, symObjAddr: 0x11A20, symBinAddr: 0x12670, symSize: 0x108 }
  - { offset: 0xB066, size: 0x8, addend: 0x0, symName: __RINvNtNtCs6IAuOt8vWmF_3syn3gen9visit_mut19visit_expr_cast_mutNtNtCsdE2kXyKmOF1_11async_trait8lifetime16CollectLifetimesEB11_, symObjAddr: 0x11B28, symBinAddr: 0x12778, symSize: 0xAC }
  - { offset: 0xB0A8, size: 0x8, addend: 0x0, symName: __RINvNtNtCs6IAuOt8vWmF_3syn3gen9visit_mut19visit_expr_cast_mutNtNtCsdE2kXyKmOF1_11async_trait8receiver11ReplaceSelfEB11_, symObjAddr: 0x11BD4, symBinAddr: 0x12824, symSize: 0xAC }
  - { offset: 0xB0EA, size: 0x8, addend: 0x0, symName: __RINvNtNtCs6IAuOt8vWmF_3syn3gen9visit_mut19visit_expr_cast_mutNtNtCsdE2kXyKmOF1_11async_trait8receiver7HasSelfEB11_, symObjAddr: 0x11C80, symBinAddr: 0x128D0, symSize: 0xAC }
  - { offset: 0xB12C, size: 0x8, addend: 0x0, symName: __RINvNtNtCs6IAuOt8vWmF_3syn3gen9visit_mut19visit_expr_cast_mutNtNtCsdE2kXyKmOF1_11async_trait8receiver9HasMutPatEB11_, symObjAddr: 0x11D2C, symBinAddr: 0x1297C, symSize: 0xAC }
  - { offset: 0xB16E, size: 0x8, addend: 0x0, symName: __RINvNtNtCs6IAuOt8vWmF_3syn3gen9visit_mut19visit_expr_cast_mutNtNvNtCsdE2kXyKmOF1_11async_trait6expand29replace_impl_trait_with_infer25ReplaceImplTraitWithInferEB13_, symObjAddr: 0x11DD8, symBinAddr: 0x12A28, symSize: 0xAC }
  - { offset: 0xB1B0, size: 0x8, addend: 0x0, symName: __RINvNtNtCs6IAuOt8vWmF_3syn3gen9visit_mut19visit_expr_cast_mutNtNvNtCsdE2kXyKmOF1_11async_trait6expand35contains_associated_type_impl_trait24AssociatedTypeImplTraitsEB13_, symObjAddr: 0x11E84, symBinAddr: 0x12AD4, symSize: 0xAC }
  - { offset: 0xB1F2, size: 0x8, addend: 0x0, symName: __RINvNtNtCs6IAuOt8vWmF_3syn3gen9visit_mut19visit_expr_loop_mutNtNtCsdE2kXyKmOF1_11async_trait8lifetime16CollectLifetimesEB11_, symObjAddr: 0x11F30, symBinAddr: 0x12B80, symSize: 0xA4 }
  - { offset: 0xB252, size: 0x8, addend: 0x0, symName: __RINvNtNtCs6IAuOt8vWmF_3syn3gen9visit_mut19visit_expr_loop_mutNtNtCsdE2kXyKmOF1_11async_trait8receiver11ReplaceSelfEB11_, symObjAddr: 0x11FD4, symBinAddr: 0x12C24, symSize: 0xA4 }
  - { offset: 0xB2B2, size: 0x8, addend: 0x0, symName: __RINvNtNtCs6IAuOt8vWmF_3syn3gen9visit_mut19visit_expr_loop_mutNtNtCsdE2kXyKmOF1_11async_trait8receiver7HasSelfEB11_, symObjAddr: 0x12078, symBinAddr: 0x12CC8, symSize: 0xA4 }
  - { offset: 0xB312, size: 0x8, addend: 0x0, symName: __RINvNtNtCs6IAuOt8vWmF_3syn3gen9visit_mut19visit_expr_loop_mutNtNtCsdE2kXyKmOF1_11async_trait8receiver9HasMutPatEB11_, symObjAddr: 0x1211C, symBinAddr: 0x12D6C, symSize: 0xA4 }
  - { offset: 0xB372, size: 0x8, addend: 0x0, symName: __RINvNtNtCs6IAuOt8vWmF_3syn3gen9visit_mut19visit_expr_loop_mutNtNvNtCsdE2kXyKmOF1_11async_trait6expand29replace_impl_trait_with_infer25ReplaceImplTraitWithInferEB13_, symObjAddr: 0x121C0, symBinAddr: 0x12E10, symSize: 0xA4 }
  - { offset: 0xB3D2, size: 0x8, addend: 0x0, symName: __RINvNtNtCs6IAuOt8vWmF_3syn3gen9visit_mut19visit_expr_loop_mutNtNvNtCsdE2kXyKmOF1_11async_trait6expand35contains_associated_type_impl_trait24AssociatedTypeImplTraitsEB13_, symObjAddr: 0x12264, symBinAddr: 0x12EB4, symSize: 0xA4 }
  - { offset: 0xB432, size: 0x8, addend: 0x0, symName: __RINvNtNtCs6IAuOt8vWmF_3syn3gen9visit_mut19visit_expr_path_mutNtNtCsdE2kXyKmOF1_11async_trait8lifetime16CollectLifetimesEB11_, symObjAddr: 0x12308, symBinAddr: 0x12F58, symSize: 0xA4 }
  - { offset: 0xB492, size: 0x8, addend: 0x0, symName: __RINvNtNtCs6IAuOt8vWmF_3syn3gen9visit_mut19visit_expr_path_mutNtNtCsdE2kXyKmOF1_11async_trait8receiver11ReplaceSelfEB11_, symObjAddr: 0x123AC, symBinAddr: 0x12FFC, symSize: 0xA4 }
  - { offset: 0xB4F2, size: 0x8, addend: 0x0, symName: __RINvNtNtCs6IAuOt8vWmF_3syn3gen9visit_mut19visit_expr_path_mutNtNtCsdE2kXyKmOF1_11async_trait8receiver7HasSelfEB11_, symObjAddr: 0x12450, symBinAddr: 0x130A0, symSize: 0xA4 }
  - { offset: 0xB552, size: 0x8, addend: 0x0, symName: __RINvNtNtCs6IAuOt8vWmF_3syn3gen9visit_mut19visit_expr_path_mutNtNtCsdE2kXyKmOF1_11async_trait8receiver9HasMutPatEB11_, symObjAddr: 0x124F4, symBinAddr: 0x13144, symSize: 0xA4 }
  - { offset: 0xB5B2, size: 0x8, addend: 0x0, symName: __RINvNtNtCs6IAuOt8vWmF_3syn3gen9visit_mut19visit_expr_path_mutNtNvNtCsdE2kXyKmOF1_11async_trait6expand29replace_impl_trait_with_infer25ReplaceImplTraitWithInferEB13_, symObjAddr: 0x12598, symBinAddr: 0x131E8, symSize: 0xA4 }
  - { offset: 0xB612, size: 0x8, addend: 0x0, symName: __RINvNtNtCs6IAuOt8vWmF_3syn3gen9visit_mut19visit_expr_path_mutNtNvNtCsdE2kXyKmOF1_11async_trait6expand35contains_associated_type_impl_trait24AssociatedTypeImplTraitsEB13_, symObjAddr: 0x1263C, symBinAddr: 0x1328C, symSize: 0xA4 }
  - { offset: 0xB672, size: 0x8, addend: 0x0, symName: __RINvNtNtCs6IAuOt8vWmF_3syn3gen9visit_mut19visit_field_pat_mutNtNtCsdE2kXyKmOF1_11async_trait8lifetime16CollectLifetimesEB11_, symObjAddr: 0x126E0, symBinAddr: 0x13330, symSize: 0x88 }
  - { offset: 0xB6B4, size: 0x8, addend: 0x0, symName: __RINvNtNtCs6IAuOt8vWmF_3syn3gen9visit_mut19visit_field_pat_mutNtNtCsdE2kXyKmOF1_11async_trait8receiver11ReplaceSelfEB11_, symObjAddr: 0x12768, symBinAddr: 0x133B8, symSize: 0x88 }
  - { offset: 0xB6F6, size: 0x8, addend: 0x0, symName: __RINvNtNtCs6IAuOt8vWmF_3syn3gen9visit_mut19visit_field_pat_mutNtNtCsdE2kXyKmOF1_11async_trait8receiver7HasSelfEB11_, symObjAddr: 0x127F0, symBinAddr: 0x13440, symSize: 0x88 }
  - { offset: 0xB738, size: 0x8, addend: 0x0, symName: __RINvNtNtCs6IAuOt8vWmF_3syn3gen9visit_mut19visit_field_pat_mutNtNtCsdE2kXyKmOF1_11async_trait8receiver9HasMutPatEB11_, symObjAddr: 0x12878, symBinAddr: 0x134C8, symSize: 0x88 }
  - { offset: 0xB77A, size: 0x8, addend: 0x0, symName: __RINvNtNtCs6IAuOt8vWmF_3syn3gen9visit_mut19visit_field_pat_mutNtNvNtCsdE2kXyKmOF1_11async_trait6expand29replace_impl_trait_with_infer25ReplaceImplTraitWithInferEB13_, symObjAddr: 0x12900, symBinAddr: 0x13550, symSize: 0x88 }
  - { offset: 0xB7BC, size: 0x8, addend: 0x0, symName: __RINvNtNtCs6IAuOt8vWmF_3syn3gen9visit_mut19visit_field_pat_mutNtNvNtCsdE2kXyKmOF1_11async_trait6expand35contains_associated_type_impl_trait24AssociatedTypeImplTraitsEB13_, symObjAddr: 0x12988, symBinAddr: 0x135D8, symSize: 0x88 }
  - { offset: 0xB7FE, size: 0x8, addend: 0x0, symName: __RINvNtNtCs6IAuOt8vWmF_3syn3gen9visit_mut19visit_impl_item_mutNtNtCsdE2kXyKmOF1_11async_trait8lifetime16CollectLifetimesEB11_, symObjAddr: 0x12A10, symBinAddr: 0x13660, symSize: 0x168 }
  - { offset: 0xB8CE, size: 0x8, addend: 0x0, symName: __RINvNtNtCs6IAuOt8vWmF_3syn3gen9visit_mut19visit_impl_item_mutNtNtCsdE2kXyKmOF1_11async_trait8receiver9HasMutPatEB11_, symObjAddr: 0x12B78, symBinAddr: 0x137C8, symSize: 0x168 }
  - { offset: 0xB99E, size: 0x8, addend: 0x0, symName: __RINvNtNtCs6IAuOt8vWmF_3syn3gen9visit_mut19visit_impl_item_mutNtNvNtCsdE2kXyKmOF1_11async_trait6expand29replace_impl_trait_with_infer25ReplaceImplTraitWithInferEB13_, symObjAddr: 0x12CE0, symBinAddr: 0x13930, symSize: 0x168 }
  - { offset: 0xBA6E, size: 0x8, addend: 0x0, symName: __RINvNtNtCs6IAuOt8vWmF_3syn3gen9visit_mut19visit_impl_item_mutNtNvNtCsdE2kXyKmOF1_11async_trait6expand35contains_associated_type_impl_trait24AssociatedTypeImplTraitsEB13_, symObjAddr: 0x12E48, symBinAddr: 0x13A98, symSize: 0x168 }
  - { offset: 0xBB3E, size: 0x8, addend: 0x0, symName: __RINvNtNtCs6IAuOt8vWmF_3syn3gen9visit_mut19visit_item_enum_mutNtNtCsdE2kXyKmOF1_11async_trait8lifetime16CollectLifetimesEB11_, symObjAddr: 0x12FB0, symBinAddr: 0x13C00, symSize: 0x100 }
  - { offset: 0xBBD3, size: 0x8, addend: 0x0, symName: __RINvNtNtCs6IAuOt8vWmF_3syn3gen9visit_mut19visit_item_enum_mutNtNtCsdE2kXyKmOF1_11async_trait8receiver9HasMutPatEB11_, symObjAddr: 0x130B0, symBinAddr: 0x13D00, symSize: 0x100 }
  - { offset: 0xBC68, size: 0x8, addend: 0x0, symName: __RINvNtNtCs6IAuOt8vWmF_3syn3gen9visit_mut19visit_item_enum_mutNtNvNtCsdE2kXyKmOF1_11async_trait6expand29replace_impl_trait_with_infer25ReplaceImplTraitWithInferEB13_, symObjAddr: 0x131B0, symBinAddr: 0x13E00, symSize: 0x100 }
  - { offset: 0xBCFD, size: 0x8, addend: 0x0, symName: __RINvNtNtCs6IAuOt8vWmF_3syn3gen9visit_mut19visit_item_enum_mutNtNvNtCsdE2kXyKmOF1_11async_trait6expand35contains_associated_type_impl_trait24AssociatedTypeImplTraitsEB13_, symObjAddr: 0x132B0, symBinAddr: 0x13F00, symSize: 0x100 }
  - { offset: 0xBD92, size: 0x8, addend: 0x0, symName: __RINvNtNtCs6IAuOt8vWmF_3syn3gen9visit_mut19visit_item_impl_mutNtNtCsdE2kXyKmOF1_11async_trait8lifetime16CollectLifetimesEB11_, symObjAddr: 0x133B0, symBinAddr: 0x14000, symSize: 0x13C }
  - { offset: 0xBE26, size: 0x8, addend: 0x0, symName: __RINvNtNtCs6IAuOt8vWmF_3syn3gen9visit_mut19visit_item_impl_mutNtNtCsdE2kXyKmOF1_11async_trait8receiver9HasMutPatEB11_, symObjAddr: 0x134EC, symBinAddr: 0x1413C, symSize: 0x13C }
  - { offset: 0xBEBA, size: 0x8, addend: 0x0, symName: __RINvNtNtCs6IAuOt8vWmF_3syn3gen9visit_mut19visit_item_impl_mutNtNvNtCsdE2kXyKmOF1_11async_trait6expand29replace_impl_trait_with_infer25ReplaceImplTraitWithInferEB13_, symObjAddr: 0x13628, symBinAddr: 0x14278, symSize: 0x13C }
  - { offset: 0xBF4E, size: 0x8, addend: 0x0, symName: __RINvNtNtCs6IAuOt8vWmF_3syn3gen9visit_mut19visit_item_impl_mutNtNvNtCsdE2kXyKmOF1_11async_trait6expand35contains_associated_type_impl_trait24AssociatedTypeImplTraitsEB13_, symObjAddr: 0x13764, symBinAddr: 0x143B4, symSize: 0x13C }
  - { offset: 0xBFE2, size: 0x8, addend: 0x0, symName: __RINvNtNtCs6IAuOt8vWmF_3syn3gen9visit_mut19visit_item_type_mutNtNtCsdE2kXyKmOF1_11async_trait8lifetime16CollectLifetimesEB11_, symObjAddr: 0x138A0, symBinAddr: 0x144F0, symSize: 0xA8 }
  - { offset: 0xC024, size: 0x8, addend: 0x0, symName: __RINvNtNtCs6IAuOt8vWmF_3syn3gen9visit_mut19visit_item_type_mutNtNtCsdE2kXyKmOF1_11async_trait8receiver9HasMutPatEB11_, symObjAddr: 0x13948, symBinAddr: 0x14598, symSize: 0xA8 }
  - { offset: 0xC066, size: 0x8, addend: 0x0, symName: __RINvNtNtCs6IAuOt8vWmF_3syn3gen9visit_mut19visit_item_type_mutNtNvNtCsdE2kXyKmOF1_11async_trait6expand29replace_impl_trait_with_infer25ReplaceImplTraitWithInferEB13_, symObjAddr: 0x139F0, symBinAddr: 0x14640, symSize: 0xA8 }
  - { offset: 0xC0A8, size: 0x8, addend: 0x0, symName: __RINvNtNtCs6IAuOt8vWmF_3syn3gen9visit_mut19visit_item_type_mutNtNvNtCsdE2kXyKmOF1_11async_trait6expand35contains_associated_type_impl_trait24AssociatedTypeImplTraitsEB13_, symObjAddr: 0x13A98, symBinAddr: 0x146E8, symSize: 0xA8 }
  - { offset: 0xC0EA, size: 0x8, addend: 0x0, symName: __RINvNtNtCs6IAuOt8vWmF_3syn3gen9visit_mut19visit_lit_float_mutNtNtCsdE2kXyKmOF1_11async_trait8lifetime16CollectLifetimesEB11_, symObjAddr: 0x13B40, symBinAddr: 0x14790, symSize: 0x24 }
  - { offset: 0xC12C, size: 0x8, addend: 0x0, symName: __RINvNtNtCs6IAuOt8vWmF_3syn3gen9visit_mut19visit_lit_float_mutNtNtCsdE2kXyKmOF1_11async_trait8receiver11ReplaceSelfEB11_, symObjAddr: 0x13B64, symBinAddr: 0x147B4, symSize: 0x24 }
  - { offset: 0xC16E, size: 0x8, addend: 0x0, symName: __RINvNtNtCs6IAuOt8vWmF_3syn3gen9visit_mut19visit_lit_float_mutNtNtCsdE2kXyKmOF1_11async_trait8receiver7HasSelfEB11_, symObjAddr: 0x13B88, symBinAddr: 0x147D8, symSize: 0x24 }
  - { offset: 0xC1B0, size: 0x8, addend: 0x0, symName: __RINvNtNtCs6IAuOt8vWmF_3syn3gen9visit_mut19visit_lit_float_mutNtNtCsdE2kXyKmOF1_11async_trait8receiver9HasMutPatEB11_, symObjAddr: 0x13BAC, symBinAddr: 0x147FC, symSize: 0x24 }
  - { offset: 0xC1F2, size: 0x8, addend: 0x0, symName: __RINvNtNtCs6IAuOt8vWmF_3syn3gen9visit_mut19visit_lit_float_mutNtNvNtCsdE2kXyKmOF1_11async_trait6expand29replace_impl_trait_with_infer25ReplaceImplTraitWithInferEB13_, symObjAddr: 0x13BD0, symBinAddr: 0x14820, symSize: 0x24 }
  - { offset: 0xC234, size: 0x8, addend: 0x0, symName: __RINvNtNtCs6IAuOt8vWmF_3syn3gen9visit_mut19visit_lit_float_mutNtNvNtCsdE2kXyKmOF1_11async_trait6expand35contains_associated_type_impl_trait24AssociatedTypeImplTraitsEB13_, symObjAddr: 0x13BF4, symBinAddr: 0x14844, symSize: 0x24 }
  - { offset: 0xC276, size: 0x8, addend: 0x0, symName: __RINvNtNtCs6IAuOt8vWmF_3syn3gen9visit_mut19visit_meta_list_mutNtNtCsdE2kXyKmOF1_11async_trait8lifetime16CollectLifetimesEB11_, symObjAddr: 0x13C18, symBinAddr: 0x14868, symSize: 0x60 }
  - { offset: 0xC2B8, size: 0x8, addend: 0x0, symName: __RINvNtNtCs6IAuOt8vWmF_3syn3gen9visit_mut19visit_meta_list_mutNtNtCsdE2kXyKmOF1_11async_trait8lifetime22AddLifetimeToImplTraitEB11_, symObjAddr: 0x13C78, symBinAddr: 0x148C8, symSize: 0x60 }
  - { offset: 0xC2FA, size: 0x8, addend: 0x0, symName: __RINvNtNtCs6IAuOt8vWmF_3syn3gen9visit_mut19visit_meta_list_mutNtNtCsdE2kXyKmOF1_11async_trait8receiver11ReplaceSelfEB11_, symObjAddr: 0x13CD8, symBinAddr: 0x14928, symSize: 0x60 }
  - { offset: 0xC33C, size: 0x8, addend: 0x0, symName: __RINvNtNtCs6IAuOt8vWmF_3syn3gen9visit_mut19visit_meta_list_mutNtNtCsdE2kXyKmOF1_11async_trait8receiver7HasSelfEB11_, symObjAddr: 0x13D38, symBinAddr: 0x14988, symSize: 0x60 }
  - { offset: 0xC37E, size: 0x8, addend: 0x0, symName: __RINvNtNtCs6IAuOt8vWmF_3syn3gen9visit_mut19visit_meta_list_mutNtNtCsdE2kXyKmOF1_11async_trait8receiver9HasMutPatEB11_, symObjAddr: 0x13D98, symBinAddr: 0x149E8, symSize: 0x60 }
  - { offset: 0xC3C0, size: 0x8, addend: 0x0, symName: __RINvNtNtCs6IAuOt8vWmF_3syn3gen9visit_mut19visit_meta_list_mutNtNvNtCsdE2kXyKmOF1_11async_trait6expand29replace_impl_trait_with_infer25ReplaceImplTraitWithInferEB13_, symObjAddr: 0x13DF8, symBinAddr: 0x14A48, symSize: 0x60 }
  - { offset: 0xC402, size: 0x8, addend: 0x0, symName: __RINvNtNtCs6IAuOt8vWmF_3syn3gen9visit_mut19visit_meta_list_mutNtNvNtCsdE2kXyKmOF1_11async_trait6expand35contains_associated_type_impl_trait24AssociatedTypeImplTraitsEB13_, symObjAddr: 0x13E58, symBinAddr: 0x14AA8, symSize: 0x60 }
  - { offset: 0xC444, size: 0x8, addend: 0x0, symName: __RINvNtNtCs6IAuOt8vWmF_3syn3gen9visit_mut19visit_pat_ident_mutNtNtCsdE2kXyKmOF1_11async_trait8lifetime16CollectLifetimesEB11_, symObjAddr: 0x13EB8, symBinAddr: 0x14B08, symSize: 0xC8 }
  - { offset: 0xC49C, size: 0x8, addend: 0x0, symName: __RINvNtNtCs6IAuOt8vWmF_3syn3gen9visit_mut19visit_pat_ident_mutNtNtCsdE2kXyKmOF1_11async_trait8receiver11ReplaceSelfEB11_, symObjAddr: 0x13F80, symBinAddr: 0x14BD0, symSize: 0xC8 }
  - { offset: 0xC4F4, size: 0x8, addend: 0x0, symName: __RINvNtNtCs6IAuOt8vWmF_3syn3gen9visit_mut19visit_pat_ident_mutNtNtCsdE2kXyKmOF1_11async_trait8receiver7HasSelfEB11_, symObjAddr: 0x14048, symBinAddr: 0x14C98, symSize: 0xC8 }
  - { offset: 0xC54C, size: 0x8, addend: 0x0, symName: __RINvNtNtCs6IAuOt8vWmF_3syn3gen9visit_mut19visit_pat_ident_mutNtNtCsdE2kXyKmOF1_11async_trait8receiver9HasMutPatEB11_, symObjAddr: 0x14110, symBinAddr: 0x14D60, symSize: 0xC8 }
  - { offset: 0xC5A4, size: 0x8, addend: 0x0, symName: __RINvNtNtCs6IAuOt8vWmF_3syn3gen9visit_mut19visit_pat_ident_mutNtNvNtCsdE2kXyKmOF1_11async_trait6expand29replace_impl_trait_with_infer25ReplaceImplTraitWithInferEB13_, symObjAddr: 0x141D8, symBinAddr: 0x14E28, symSize: 0xC8 }
  - { offset: 0xC5FC, size: 0x8, addend: 0x0, symName: __RINvNtNtCs6IAuOt8vWmF_3syn3gen9visit_mut19visit_pat_ident_mutNtNvNtCsdE2kXyKmOF1_11async_trait6expand35contains_associated_type_impl_trait24AssociatedTypeImplTraitsEB13_, symObjAddr: 0x142A0, symBinAddr: 0x14EF0, symSize: 0xC8 }
  - { offset: 0xC654, size: 0x8, addend: 0x0, symName: __RINvNtNtCs6IAuOt8vWmF_3syn3gen9visit_mut19visit_pat_paren_mutNtNtCsdE2kXyKmOF1_11async_trait8lifetime16CollectLifetimesEB11_, symObjAddr: 0x14368, symBinAddr: 0x14FB8, symSize: 0x78 }
  - { offset: 0xC696, size: 0x8, addend: 0x0, symName: __RINvNtNtCs6IAuOt8vWmF_3syn3gen9visit_mut19visit_pat_paren_mutNtNtCsdE2kXyKmOF1_11async_trait8receiver11ReplaceSelfEB11_, symObjAddr: 0x143E0, symBinAddr: 0x15030, symSize: 0x78 }
  - { offset: 0xC6D8, size: 0x8, addend: 0x0, symName: __RINvNtNtCs6IAuOt8vWmF_3syn3gen9visit_mut19visit_pat_paren_mutNtNtCsdE2kXyKmOF1_11async_trait8receiver7HasSelfEB11_, symObjAddr: 0x14458, symBinAddr: 0x150A8, symSize: 0x78 }
  - { offset: 0xC71A, size: 0x8, addend: 0x0, symName: __RINvNtNtCs6IAuOt8vWmF_3syn3gen9visit_mut19visit_pat_paren_mutNtNtCsdE2kXyKmOF1_11async_trait8receiver9HasMutPatEB11_, symObjAddr: 0x144D0, symBinAddr: 0x15120, symSize: 0x78 }
  - { offset: 0xC75C, size: 0x8, addend: 0x0, symName: __RINvNtNtCs6IAuOt8vWmF_3syn3gen9visit_mut19visit_pat_paren_mutNtNvNtCsdE2kXyKmOF1_11async_trait6expand29replace_impl_trait_with_infer25ReplaceImplTraitWithInferEB13_, symObjAddr: 0x14548, symBinAddr: 0x15198, symSize: 0x78 }
  - { offset: 0xC79E, size: 0x8, addend: 0x0, symName: __RINvNtNtCs6IAuOt8vWmF_3syn3gen9visit_mut19visit_pat_paren_mutNtNvNtCsdE2kXyKmOF1_11async_trait6expand35contains_associated_type_impl_trait24AssociatedTypeImplTraitsEB13_, symObjAddr: 0x145C0, symBinAddr: 0x15210, symSize: 0x78 }
  - { offset: 0xC7E0, size: 0x8, addend: 0x0, symName: __RINvNtNtCs6IAuOt8vWmF_3syn3gen9visit_mut19visit_pat_slice_mutNtNtCsdE2kXyKmOF1_11async_trait8lifetime16CollectLifetimesEB11_, symObjAddr: 0x14638, symBinAddr: 0x15288, symSize: 0xD0 }
  - { offset: 0xC875, size: 0x8, addend: 0x0, symName: __RINvNtNtCs6IAuOt8vWmF_3syn3gen9visit_mut19visit_pat_slice_mutNtNtCsdE2kXyKmOF1_11async_trait8receiver11ReplaceSelfEB11_, symObjAddr: 0x14708, symBinAddr: 0x15358, symSize: 0xD0 }
  - { offset: 0xC90A, size: 0x8, addend: 0x0, symName: __RINvNtNtCs6IAuOt8vWmF_3syn3gen9visit_mut19visit_pat_slice_mutNtNtCsdE2kXyKmOF1_11async_trait8receiver7HasSelfEB11_, symObjAddr: 0x147D8, symBinAddr: 0x15428, symSize: 0xD0 }
  - { offset: 0xC99F, size: 0x8, addend: 0x0, symName: __RINvNtNtCs6IAuOt8vWmF_3syn3gen9visit_mut19visit_pat_slice_mutNtNtCsdE2kXyKmOF1_11async_trait8receiver9HasMutPatEB11_, symObjAddr: 0x148A8, symBinAddr: 0x154F8, symSize: 0xD0 }
  - { offset: 0xCA34, size: 0x8, addend: 0x0, symName: __RINvNtNtCs6IAuOt8vWmF_3syn3gen9visit_mut19visit_pat_slice_mutNtNvNtCsdE2kXyKmOF1_11async_trait6expand29replace_impl_trait_with_infer25ReplaceImplTraitWithInferEB13_, symObjAddr: 0x14978, symBinAddr: 0x155C8, symSize: 0xD0 }
  - { offset: 0xCAC9, size: 0x8, addend: 0x0, symName: __RINvNtNtCs6IAuOt8vWmF_3syn3gen9visit_mut19visit_pat_slice_mutNtNvNtCsdE2kXyKmOF1_11async_trait6expand35contains_associated_type_impl_trait24AssociatedTypeImplTraitsEB13_, symObjAddr: 0x14A48, symBinAddr: 0x15698, symSize: 0xD0 }
  - { offset: 0xCB5E, size: 0x8, addend: 0x0, symName: __RINvNtNtCs6IAuOt8vWmF_3syn3gen9visit_mut19visit_pat_tuple_mutNtNtCsdE2kXyKmOF1_11async_trait8lifetime16CollectLifetimesEB11_, symObjAddr: 0x14B18, symBinAddr: 0x15768, symSize: 0xD0 }
  - { offset: 0xCBF3, size: 0x8, addend: 0x0, symName: __RINvNtNtCs6IAuOt8vWmF_3syn3gen9visit_mut19visit_pat_tuple_mutNtNtCsdE2kXyKmOF1_11async_trait8receiver11ReplaceSelfEB11_, symObjAddr: 0x14BE8, symBinAddr: 0x15838, symSize: 0xD0 }
  - { offset: 0xCC88, size: 0x8, addend: 0x0, symName: __RINvNtNtCs6IAuOt8vWmF_3syn3gen9visit_mut19visit_pat_tuple_mutNtNtCsdE2kXyKmOF1_11async_trait8receiver7HasSelfEB11_, symObjAddr: 0x14CB8, symBinAddr: 0x15908, symSize: 0xD0 }
  - { offset: 0xCD1D, size: 0x8, addend: 0x0, symName: __RINvNtNtCs6IAuOt8vWmF_3syn3gen9visit_mut19visit_pat_tuple_mutNtNtCsdE2kXyKmOF1_11async_trait8receiver9HasMutPatEB11_, symObjAddr: 0x14D88, symBinAddr: 0x159D8, symSize: 0xD0 }
  - { offset: 0xCDB2, size: 0x8, addend: 0x0, symName: __RINvNtNtCs6IAuOt8vWmF_3syn3gen9visit_mut19visit_pat_tuple_mutNtNvNtCsdE2kXyKmOF1_11async_trait6expand29replace_impl_trait_with_infer25ReplaceImplTraitWithInferEB13_, symObjAddr: 0x14E58, symBinAddr: 0x15AA8, symSize: 0xD0 }
  - { offset: 0xCE47, size: 0x8, addend: 0x0, symName: __RINvNtNtCs6IAuOt8vWmF_3syn3gen9visit_mut19visit_pat_tuple_mutNtNvNtCsdE2kXyKmOF1_11async_trait6expand35contains_associated_type_impl_trait24AssociatedTypeImplTraitsEB13_, symObjAddr: 0x14F28, symBinAddr: 0x15B78, symSize: 0xD0 }
  - { offset: 0xCEDC, size: 0x8, addend: 0x0, symName: __RINvNtNtCs6IAuOt8vWmF_3syn3gen9visit_mut19visit_signature_mutNtNtCsdE2kXyKmOF1_11async_trait8lifetime16CollectLifetimesEB11_, symObjAddr: 0x14FF8, symBinAddr: 0x15C48, symSize: 0x198 }
  - { offset: 0xCFA5, size: 0x8, addend: 0x0, symName: __RINvNtNtCs6IAuOt8vWmF_3syn3gen9visit_mut19visit_signature_mutNtNtCsdE2kXyKmOF1_11async_trait8receiver7HasSelfEB11_, symObjAddr: 0x15190, symBinAddr: 0x15DE0, symSize: 0x198 }
  - { offset: 0xD06E, size: 0x8, addend: 0x0, symName: __RINvNtNtCs6IAuOt8vWmF_3syn3gen9visit_mut19visit_signature_mutNtNtCsdE2kXyKmOF1_11async_trait8receiver9HasMutPatEB11_, symObjAddr: 0x15328, symBinAddr: 0x15F78, symSize: 0x198 }
  - { offset: 0xD137, size: 0x8, addend: 0x0, symName: __RINvNtNtCs6IAuOt8vWmF_3syn3gen9visit_mut19visit_signature_mutNtNvNtCsdE2kXyKmOF1_11async_trait6expand29replace_impl_trait_with_infer25ReplaceImplTraitWithInferEB13_, symObjAddr: 0x154C0, symBinAddr: 0x16110, symSize: 0x198 }
  - { offset: 0xD200, size: 0x8, addend: 0x0, symName: __RINvNtNtCs6IAuOt8vWmF_3syn3gen9visit_mut19visit_signature_mutNtNvNtCsdE2kXyKmOF1_11async_trait6expand35contains_associated_type_impl_trait24AssociatedTypeImplTraitsEB13_, symObjAddr: 0x15658, symBinAddr: 0x162A8, symSize: 0x198 }
  - { offset: 0xD2C9, size: 0x8, addend: 0x0, symName: __RINvNtNtCs6IAuOt8vWmF_3syn3gen9visit_mut19visit_type_path_mutNtNtCsdE2kXyKmOF1_11async_trait8lifetime16CollectLifetimesEB11_, symObjAddr: 0x157F0, symBinAddr: 0x16440, symSize: 0x94 }
  - { offset: 0xD329, size: 0x8, addend: 0x0, symName: __RINvNtNtCs6IAuOt8vWmF_3syn3gen9visit_mut19visit_type_path_mutNtNtCsdE2kXyKmOF1_11async_trait8lifetime22AddLifetimeToImplTraitEB11_, symObjAddr: 0x15884, symBinAddr: 0x164D4, symSize: 0x94 }
  - { offset: 0xD389, size: 0x8, addend: 0x0, symName: __RINvNtNtCs6IAuOt8vWmF_3syn3gen9visit_mut19visit_type_path_mutNtNtCsdE2kXyKmOF1_11async_trait8receiver11ReplaceSelfEB11_, symObjAddr: 0x15918, symBinAddr: 0x16568, symSize: 0x94 }
  - { offset: 0xD3E9, size: 0x8, addend: 0x0, symName: __RINvNtNtCs6IAuOt8vWmF_3syn3gen9visit_mut19visit_type_path_mutNtNtCsdE2kXyKmOF1_11async_trait8receiver7HasSelfEB11_, symObjAddr: 0x159AC, symBinAddr: 0x165FC, symSize: 0x94 }
  - { offset: 0xD449, size: 0x8, addend: 0x0, symName: __RINvNtNtCs6IAuOt8vWmF_3syn3gen9visit_mut19visit_type_path_mutNtNtCsdE2kXyKmOF1_11async_trait8receiver9HasMutPatEB11_, symObjAddr: 0x15A40, symBinAddr: 0x16690, symSize: 0x94 }
  - { offset: 0xD4A9, size: 0x8, addend: 0x0, symName: __RINvNtNtCs6IAuOt8vWmF_3syn3gen9visit_mut19visit_type_path_mutNtNvNtCsdE2kXyKmOF1_11async_trait6expand29replace_impl_trait_with_infer25ReplaceImplTraitWithInferEB13_, symObjAddr: 0x15AD4, symBinAddr: 0x16724, symSize: 0x94 }
  - { offset: 0xD509, size: 0x8, addend: 0x0, symName: __RINvNtNtCs6IAuOt8vWmF_3syn3gen9visit_mut19visit_type_path_mutNtNvNtCsdE2kXyKmOF1_11async_trait6expand35contains_associated_type_impl_trait24AssociatedTypeImplTraitsEB13_, symObjAddr: 0x15B68, symBinAddr: 0x167B8, symSize: 0x94 }
  - { offset: 0xD569, size: 0x8, addend: 0x0, symName: __RINvNtNtCs6IAuOt8vWmF_3syn3gen9visit_mut19visit_use_group_mutNtNtCsdE2kXyKmOF1_11async_trait8lifetime16CollectLifetimesEB11_, symObjAddr: 0x15BFC, symBinAddr: 0x1684C, symSize: 0xC8 }
  - { offset: 0xD5FE, size: 0x8, addend: 0x0, symName: __RINvNtNtCs6IAuOt8vWmF_3syn3gen9visit_mut19visit_use_group_mutNtNtCsdE2kXyKmOF1_11async_trait8receiver9HasMutPatEB11_, symObjAddr: 0x15CC4, symBinAddr: 0x16914, symSize: 0xC8 }
  - { offset: 0xD693, size: 0x8, addend: 0x0, symName: __RINvNtNtCs6IAuOt8vWmF_3syn3gen9visit_mut19visit_use_group_mutNtNvNtCsdE2kXyKmOF1_11async_trait6expand29replace_impl_trait_with_infer25ReplaceImplTraitWithInferEB13_, symObjAddr: 0x15D8C, symBinAddr: 0x169DC, symSize: 0xC8 }
  - { offset: 0xD728, size: 0x8, addend: 0x0, symName: __RINvNtNtCs6IAuOt8vWmF_3syn3gen9visit_mut19visit_use_group_mutNtNvNtCsdE2kXyKmOF1_11async_trait6expand35contains_associated_type_impl_trait24AssociatedTypeImplTraitsEB13_, symObjAddr: 0x15E54, symBinAddr: 0x16AA4, symSize: 0xC8 }
  - { offset: 0xD7BD, size: 0x8, addend: 0x0, symName: __RINvNtNtCs6IAuOt8vWmF_3syn3gen9visit_mut20visit_assoc_type_mutNtNtCsdE2kXyKmOF1_11async_trait8lifetime16CollectLifetimesEB12_, symObjAddr: 0x15F1C, symBinAddr: 0x16B6C, symSize: 0xA8 }
  - { offset: 0xD81D, size: 0x8, addend: 0x0, symName: __RINvNtNtCs6IAuOt8vWmF_3syn3gen9visit_mut20visit_assoc_type_mutNtNtCsdE2kXyKmOF1_11async_trait8lifetime22AddLifetimeToImplTraitEB12_, symObjAddr: 0x15FC4, symBinAddr: 0x16C14, symSize: 0xA8 }
  - { offset: 0xD87D, size: 0x8, addend: 0x0, symName: __RINvNtNtCs6IAuOt8vWmF_3syn3gen9visit_mut20visit_assoc_type_mutNtNtCsdE2kXyKmOF1_11async_trait8receiver11ReplaceSelfEB12_, symObjAddr: 0x1606C, symBinAddr: 0x16CBC, symSize: 0xA8 }
  - { offset: 0xD8DD, size: 0x8, addend: 0x0, symName: __RINvNtNtCs6IAuOt8vWmF_3syn3gen9visit_mut20visit_assoc_type_mutNtNtCsdE2kXyKmOF1_11async_trait8receiver7HasSelfEB12_, symObjAddr: 0x16114, symBinAddr: 0x16D64, symSize: 0xA8 }
  - { offset: 0xD93D, size: 0x8, addend: 0x0, symName: __RINvNtNtCs6IAuOt8vWmF_3syn3gen9visit_mut20visit_assoc_type_mutNtNtCsdE2kXyKmOF1_11async_trait8receiver9HasMutPatEB12_, symObjAddr: 0x161BC, symBinAddr: 0x16E0C, symSize: 0xA8 }
  - { offset: 0xD99D, size: 0x8, addend: 0x0, symName: __RINvNtNtCs6IAuOt8vWmF_3syn3gen9visit_mut20visit_assoc_type_mutNtNvNtCsdE2kXyKmOF1_11async_trait6expand29replace_impl_trait_with_infer25ReplaceImplTraitWithInferEB14_, symObjAddr: 0x16264, symBinAddr: 0x16EB4, symSize: 0xA8 }
  - { offset: 0xD9FD, size: 0x8, addend: 0x0, symName: __RINvNtNtCs6IAuOt8vWmF_3syn3gen9visit_mut20visit_assoc_type_mutNtNvNtCsdE2kXyKmOF1_11async_trait6expand35contains_associated_type_impl_trait24AssociatedTypeImplTraitsEB14_, symObjAddr: 0x1630C, symBinAddr: 0x16F5C, symSize: 0xA8 }
  - { offset: 0xDA5D, size: 0x8, addend: 0x0, symName: __RINvNtNtCs6IAuOt8vWmF_3syn3gen9visit_mut20visit_attr_style_mutNtNtCsdE2kXyKmOF1_11async_trait8lifetime16CollectLifetimesEB12_, symObjAddr: 0x163B4, symBinAddr: 0x17004, symSize: 0x60 }
  - { offset: 0xDA9F, size: 0x8, addend: 0x0, symName: __RINvNtNtCs6IAuOt8vWmF_3syn3gen9visit_mut20visit_attr_style_mutNtNtCsdE2kXyKmOF1_11async_trait8lifetime22AddLifetimeToImplTraitEB12_, symObjAddr: 0x16414, symBinAddr: 0x17064, symSize: 0x60 }
  - { offset: 0xDAE1, size: 0x8, addend: 0x0, symName: __RINvNtNtCs6IAuOt8vWmF_3syn3gen9visit_mut20visit_attr_style_mutNtNtCsdE2kXyKmOF1_11async_trait8receiver11ReplaceSelfEB12_, symObjAddr: 0x16474, symBinAddr: 0x170C4, symSize: 0x60 }
  - { offset: 0xDB23, size: 0x8, addend: 0x0, symName: __RINvNtNtCs6IAuOt8vWmF_3syn3gen9visit_mut20visit_attr_style_mutNtNtCsdE2kXyKmOF1_11async_trait8receiver7HasSelfEB12_, symObjAddr: 0x164D4, symBinAddr: 0x17124, symSize: 0x60 }
  - { offset: 0xDB65, size: 0x8, addend: 0x0, symName: __RINvNtNtCs6IAuOt8vWmF_3syn3gen9visit_mut20visit_attr_style_mutNtNtCsdE2kXyKmOF1_11async_trait8receiver9HasMutPatEB12_, symObjAddr: 0x16534, symBinAddr: 0x17184, symSize: 0x60 }
  - { offset: 0xDBA7, size: 0x8, addend: 0x0, symName: __RINvNtNtCs6IAuOt8vWmF_3syn3gen9visit_mut20visit_attr_style_mutNtNvNtCsdE2kXyKmOF1_11async_trait6expand29replace_impl_trait_with_infer25ReplaceImplTraitWithInferEB14_, symObjAddr: 0x16594, symBinAddr: 0x171E4, symSize: 0x60 }
  - { offset: 0xDBE9, size: 0x8, addend: 0x0, symName: __RINvNtNtCs6IAuOt8vWmF_3syn3gen9visit_mut20visit_attr_style_mutNtNvNtCsdE2kXyKmOF1_11async_trait6expand35contains_associated_type_impl_trait24AssociatedTypeImplTraitsEB14_, symObjAddr: 0x165F4, symBinAddr: 0x17244, symSize: 0x60 }
  - { offset: 0xDC2B, size: 0x8, addend: 0x0, symName: __RINvNtNtCs6IAuOt8vWmF_3syn3gen9visit_mut20visit_constraint_mutNtNtCsdE2kXyKmOF1_11async_trait8lifetime16CollectLifetimesEB12_, symObjAddr: 0x16654, symBinAddr: 0x172A4, symSize: 0x128 }
  - { offset: 0xDCDE, size: 0x8, addend: 0x0, symName: __RINvNtNtCs6IAuOt8vWmF_3syn3gen9visit_mut20visit_constraint_mutNtNtCsdE2kXyKmOF1_11async_trait8lifetime22AddLifetimeToImplTraitEB12_, symObjAddr: 0x1677C, symBinAddr: 0x173CC, symSize: 0x128 }
  - { offset: 0xDD91, size: 0x8, addend: 0x0, symName: __RINvNtNtCs6IAuOt8vWmF_3syn3gen9visit_mut20visit_constraint_mutNtNtCsdE2kXyKmOF1_11async_trait8receiver11ReplaceSelfEB12_, symObjAddr: 0x168A4, symBinAddr: 0x174F4, symSize: 0x128 }
  - { offset: 0xDE44, size: 0x8, addend: 0x0, symName: __RINvNtNtCs6IAuOt8vWmF_3syn3gen9visit_mut20visit_constraint_mutNtNtCsdE2kXyKmOF1_11async_trait8receiver7HasSelfEB12_, symObjAddr: 0x169CC, symBinAddr: 0x1761C, symSize: 0x128 }
  - { offset: 0xDEF7, size: 0x8, addend: 0x0, symName: __RINvNtNtCs6IAuOt8vWmF_3syn3gen9visit_mut20visit_constraint_mutNtNtCsdE2kXyKmOF1_11async_trait8receiver9HasMutPatEB12_, symObjAddr: 0x16AF4, symBinAddr: 0x17744, symSize: 0x128 }
  - { offset: 0xDFAA, size: 0x8, addend: 0x0, symName: __RINvNtNtCs6IAuOt8vWmF_3syn3gen9visit_mut20visit_constraint_mutNtNvNtCsdE2kXyKmOF1_11async_trait6expand29replace_impl_trait_with_infer25ReplaceImplTraitWithInferEB14_, symObjAddr: 0x16C1C, symBinAddr: 0x1786C, symSize: 0x128 }
  - { offset: 0xE05D, size: 0x8, addend: 0x0, symName: __RINvNtNtCs6IAuOt8vWmF_3syn3gen9visit_mut20visit_constraint_mutNtNvNtCsdE2kXyKmOF1_11async_trait6expand35contains_associated_type_impl_trait24AssociatedTypeImplTraitsEB14_, symObjAddr: 0x16D44, symBinAddr: 0x17994, symSize: 0x128 }
  - { offset: 0xE110, size: 0x8, addend: 0x0, symName: __RINvNtNtCs6IAuOt8vWmF_3syn3gen9visit_mut20visit_expr_array_mutNtNtCsdE2kXyKmOF1_11async_trait8lifetime16CollectLifetimesEB12_, symObjAddr: 0x16E6C, symBinAddr: 0x17ABC, symSize: 0xD0 }
  - { offset: 0xE1A5, size: 0x8, addend: 0x0, symName: __RINvNtNtCs6IAuOt8vWmF_3syn3gen9visit_mut20visit_expr_array_mutNtNtCsdE2kXyKmOF1_11async_trait8receiver11ReplaceSelfEB12_, symObjAddr: 0x16F3C, symBinAddr: 0x17B8C, symSize: 0xD0 }
  - { offset: 0xE23A, size: 0x8, addend: 0x0, symName: __RINvNtNtCs6IAuOt8vWmF_3syn3gen9visit_mut20visit_expr_array_mutNtNtCsdE2kXyKmOF1_11async_trait8receiver7HasSelfEB12_, symObjAddr: 0x1700C, symBinAddr: 0x17C5C, symSize: 0xD0 }
  - { offset: 0xE2CF, size: 0x8, addend: 0x0, symName: __RINvNtNtCs6IAuOt8vWmF_3syn3gen9visit_mut20visit_expr_array_mutNtNtCsdE2kXyKmOF1_11async_trait8receiver9HasMutPatEB12_, symObjAddr: 0x170DC, symBinAddr: 0x17D2C, symSize: 0xD0 }
  - { offset: 0xE364, size: 0x8, addend: 0x0, symName: __RINvNtNtCs6IAuOt8vWmF_3syn3gen9visit_mut20visit_expr_array_mutNtNvNtCsdE2kXyKmOF1_11async_trait6expand29replace_impl_trait_with_infer25ReplaceImplTraitWithInferEB14_, symObjAddr: 0x171AC, symBinAddr: 0x17DFC, symSize: 0xD0 }
  - { offset: 0xE3F9, size: 0x8, addend: 0x0, symName: __RINvNtNtCs6IAuOt8vWmF_3syn3gen9visit_mut20visit_expr_array_mutNtNvNtCsdE2kXyKmOF1_11async_trait6expand35contains_associated_type_impl_trait24AssociatedTypeImplTraitsEB14_, symObjAddr: 0x1727C, symBinAddr: 0x17ECC, symSize: 0xD0 }
  - { offset: 0xE48E, size: 0x8, addend: 0x0, symName: __RINvNtNtCs6IAuOt8vWmF_3syn3gen9visit_mut20visit_expr_async_mutNtNtCsdE2kXyKmOF1_11async_trait8lifetime16CollectLifetimesEB12_, symObjAddr: 0x1734C, symBinAddr: 0x17F9C, symSize: 0x50 }
  - { offset: 0xE4D0, size: 0x8, addend: 0x0, symName: __RINvNtNtCs6IAuOt8vWmF_3syn3gen9visit_mut20visit_expr_async_mutNtNtCsdE2kXyKmOF1_11async_trait8receiver11ReplaceSelfEB12_, symObjAddr: 0x1739C, symBinAddr: 0x17FEC, symSize: 0x50 }
  - { offset: 0xE512, size: 0x8, addend: 0x0, symName: __RINvNtNtCs6IAuOt8vWmF_3syn3gen9visit_mut20visit_expr_async_mutNtNtCsdE2kXyKmOF1_11async_trait8receiver7HasSelfEB12_, symObjAddr: 0x173EC, symBinAddr: 0x1803C, symSize: 0x50 }
  - { offset: 0xE554, size: 0x8, addend: 0x0, symName: __RINvNtNtCs6IAuOt8vWmF_3syn3gen9visit_mut20visit_expr_async_mutNtNtCsdE2kXyKmOF1_11async_trait8receiver9HasMutPatEB12_, symObjAddr: 0x1743C, symBinAddr: 0x1808C, symSize: 0x50 }
  - { offset: 0xE596, size: 0x8, addend: 0x0, symName: __RINvNtNtCs6IAuOt8vWmF_3syn3gen9visit_mut20visit_expr_async_mutNtNvNtCsdE2kXyKmOF1_11async_trait6expand29replace_impl_trait_with_infer25ReplaceImplTraitWithInferEB14_, symObjAddr: 0x1748C, symBinAddr: 0x180DC, symSize: 0x50 }
  - { offset: 0xE5D8, size: 0x8, addend: 0x0, symName: __RINvNtNtCs6IAuOt8vWmF_3syn3gen9visit_mut20visit_expr_async_mutNtNvNtCsdE2kXyKmOF1_11async_trait6expand35contains_associated_type_impl_trait24AssociatedTypeImplTraitsEB14_, symObjAddr: 0x174DC, symBinAddr: 0x1812C, symSize: 0x50 }
  - { offset: 0xE61A, size: 0x8, addend: 0x0, symName: __RINvNtNtCs6IAuOt8vWmF_3syn3gen9visit_mut20visit_expr_await_mutNtNtCsdE2kXyKmOF1_11async_trait8lifetime16CollectLifetimesEB12_, symObjAddr: 0x1752C, symBinAddr: 0x1817C, symSize: 0x78 }
  - { offset: 0xE65C, size: 0x8, addend: 0x0, symName: __RINvNtNtCs6IAuOt8vWmF_3syn3gen9visit_mut20visit_expr_await_mutNtNtCsdE2kXyKmOF1_11async_trait8receiver11ReplaceSelfEB12_, symObjAddr: 0x175A4, symBinAddr: 0x181F4, symSize: 0x78 }
  - { offset: 0xE69E, size: 0x8, addend: 0x0, symName: __RINvNtNtCs6IAuOt8vWmF_3syn3gen9visit_mut20visit_expr_await_mutNtNtCsdE2kXyKmOF1_11async_trait8receiver7HasSelfEB12_, symObjAddr: 0x1761C, symBinAddr: 0x1826C, symSize: 0x78 }
  - { offset: 0xE6E0, size: 0x8, addend: 0x0, symName: __RINvNtNtCs6IAuOt8vWmF_3syn3gen9visit_mut20visit_expr_await_mutNtNtCsdE2kXyKmOF1_11async_trait8receiver9HasMutPatEB12_, symObjAddr: 0x17694, symBinAddr: 0x182E4, symSize: 0x78 }
  - { offset: 0xE722, size: 0x8, addend: 0x0, symName: __RINvNtNtCs6IAuOt8vWmF_3syn3gen9visit_mut20visit_expr_await_mutNtNvNtCsdE2kXyKmOF1_11async_trait6expand29replace_impl_trait_with_infer25ReplaceImplTraitWithInferEB14_, symObjAddr: 0x1770C, symBinAddr: 0x1835C, symSize: 0x78 }
  - { offset: 0xE764, size: 0x8, addend: 0x0, symName: __RINvNtNtCs6IAuOt8vWmF_3syn3gen9visit_mut20visit_expr_await_mutNtNvNtCsdE2kXyKmOF1_11async_trait6expand35contains_associated_type_impl_trait24AssociatedTypeImplTraitsEB14_, symObjAddr: 0x17784, symBinAddr: 0x183D4, symSize: 0x78 }
  - { offset: 0xE7A6, size: 0x8, addend: 0x0, symName: __RINvNtNtCs6IAuOt8vWmF_3syn3gen9visit_mut20visit_expr_block_mutNtNtCsdE2kXyKmOF1_11async_trait8lifetime16CollectLifetimesEB12_, symObjAddr: 0x177FC, symBinAddr: 0x1844C, symSize: 0xA4 }
  - { offset: 0xE806, size: 0x8, addend: 0x0, symName: __RINvNtNtCs6IAuOt8vWmF_3syn3gen9visit_mut20visit_expr_block_mutNtNtCsdE2kXyKmOF1_11async_trait8receiver11ReplaceSelfEB12_, symObjAddr: 0x178A0, symBinAddr: 0x184F0, symSize: 0xA4 }
  - { offset: 0xE866, size: 0x8, addend: 0x0, symName: __RINvNtNtCs6IAuOt8vWmF_3syn3gen9visit_mut20visit_expr_block_mutNtNtCsdE2kXyKmOF1_11async_trait8receiver7HasSelfEB12_, symObjAddr: 0x17944, symBinAddr: 0x18594, symSize: 0xA4 }
  - { offset: 0xE8C6, size: 0x8, addend: 0x0, symName: __RINvNtNtCs6IAuOt8vWmF_3syn3gen9visit_mut20visit_expr_block_mutNtNtCsdE2kXyKmOF1_11async_trait8receiver9HasMutPatEB12_, symObjAddr: 0x179E8, symBinAddr: 0x18638, symSize: 0xA4 }
  - { offset: 0xE926, size: 0x8, addend: 0x0, symName: __RINvNtNtCs6IAuOt8vWmF_3syn3gen9visit_mut20visit_expr_block_mutNtNvNtCsdE2kXyKmOF1_11async_trait6expand29replace_impl_trait_with_infer25ReplaceImplTraitWithInferEB14_, symObjAddr: 0x17A8C, symBinAddr: 0x186DC, symSize: 0xA4 }
  - { offset: 0xE986, size: 0x8, addend: 0x0, symName: __RINvNtNtCs6IAuOt8vWmF_3syn3gen9visit_mut20visit_expr_block_mutNtNvNtCsdE2kXyKmOF1_11async_trait6expand35contains_associated_type_impl_trait24AssociatedTypeImplTraitsEB14_, symObjAddr: 0x17B30, symBinAddr: 0x18780, symSize: 0xA4 }
  - { offset: 0xE9E6, size: 0x8, addend: 0x0, symName: __RINvNtNtCs6IAuOt8vWmF_3syn3gen9visit_mut20visit_expr_break_mutNtNtCsdE2kXyKmOF1_11async_trait8lifetime16CollectLifetimesEB12_, symObjAddr: 0x17BD4, symBinAddr: 0x18824, symSize: 0x110 }
  - { offset: 0xEA5C, size: 0x8, addend: 0x0, symName: __RINvNtNtCs6IAuOt8vWmF_3syn3gen9visit_mut20visit_expr_break_mutNtNtCsdE2kXyKmOF1_11async_trait8receiver11ReplaceSelfEB12_, symObjAddr: 0x17CE4, symBinAddr: 0x18934, symSize: 0x110 }
  - { offset: 0xEAD2, size: 0x8, addend: 0x0, symName: __RINvNtNtCs6IAuOt8vWmF_3syn3gen9visit_mut20visit_expr_break_mutNtNtCsdE2kXyKmOF1_11async_trait8receiver7HasSelfEB12_, symObjAddr: 0x17DF4, symBinAddr: 0x18A44, symSize: 0x110 }
  - { offset: 0xEB48, size: 0x8, addend: 0x0, symName: __RINvNtNtCs6IAuOt8vWmF_3syn3gen9visit_mut20visit_expr_break_mutNtNtCsdE2kXyKmOF1_11async_trait8receiver9HasMutPatEB12_, symObjAddr: 0x17F04, symBinAddr: 0x18B54, symSize: 0x110 }
  - { offset: 0xEBBE, size: 0x8, addend: 0x0, symName: __RINvNtNtCs6IAuOt8vWmF_3syn3gen9visit_mut20visit_expr_break_mutNtNvNtCsdE2kXyKmOF1_11async_trait6expand29replace_impl_trait_with_infer25ReplaceImplTraitWithInferEB14_, symObjAddr: 0x18014, symBinAddr: 0x18C64, symSize: 0x110 }
  - { offset: 0xEC34, size: 0x8, addend: 0x0, symName: __RINvNtNtCs6IAuOt8vWmF_3syn3gen9visit_mut20visit_expr_break_mutNtNvNtCsdE2kXyKmOF1_11async_trait6expand35contains_associated_type_impl_trait24AssociatedTypeImplTraitsEB14_, symObjAddr: 0x18124, symBinAddr: 0x18D74, symSize: 0x110 }
  - { offset: 0xECAA, size: 0x8, addend: 0x0, symName: __RINvNtNtCs6IAuOt8vWmF_3syn3gen9visit_mut20visit_expr_const_mutNtNtCsdE2kXyKmOF1_11async_trait8lifetime16CollectLifetimesEB12_, symObjAddr: 0x18234, symBinAddr: 0x18E84, symSize: 0x50 }
  - { offset: 0xECEC, size: 0x8, addend: 0x0, symName: __RINvNtNtCs6IAuOt8vWmF_3syn3gen9visit_mut20visit_expr_const_mutNtNtCsdE2kXyKmOF1_11async_trait8receiver11ReplaceSelfEB12_, symObjAddr: 0x18284, symBinAddr: 0x18ED4, symSize: 0x50 }
  - { offset: 0xED2E, size: 0x8, addend: 0x0, symName: __RINvNtNtCs6IAuOt8vWmF_3syn3gen9visit_mut20visit_expr_const_mutNtNtCsdE2kXyKmOF1_11async_trait8receiver7HasSelfEB12_, symObjAddr: 0x182D4, symBinAddr: 0x18F24, symSize: 0x50 }
  - { offset: 0xED70, size: 0x8, addend: 0x0, symName: __RINvNtNtCs6IAuOt8vWmF_3syn3gen9visit_mut20visit_expr_const_mutNtNtCsdE2kXyKmOF1_11async_trait8receiver9HasMutPatEB12_, symObjAddr: 0x18324, symBinAddr: 0x18F74, symSize: 0x50 }
  - { offset: 0xEDB2, size: 0x8, addend: 0x0, symName: __RINvNtNtCs6IAuOt8vWmF_3syn3gen9visit_mut20visit_expr_const_mutNtNvNtCsdE2kXyKmOF1_11async_trait6expand29replace_impl_trait_with_infer25ReplaceImplTraitWithInferEB14_, symObjAddr: 0x18374, symBinAddr: 0x18FC4, symSize: 0x50 }
  - { offset: 0xEDF4, size: 0x8, addend: 0x0, symName: __RINvNtNtCs6IAuOt8vWmF_3syn3gen9visit_mut20visit_expr_const_mutNtNvNtCsdE2kXyKmOF1_11async_trait6expand35contains_associated_type_impl_trait24AssociatedTypeImplTraitsEB14_, symObjAddr: 0x183C4, symBinAddr: 0x19014, symSize: 0x50 }
  - { offset: 0xEE36, size: 0x8, addend: 0x0, symName: __RINvNtNtCs6IAuOt8vWmF_3syn3gen9visit_mut20visit_expr_field_mutNtNtCsdE2kXyKmOF1_11async_trait8lifetime16CollectLifetimesEB12_, symObjAddr: 0x18414, symBinAddr: 0x19064, symSize: 0x88 }
  - { offset: 0xEE78, size: 0x8, addend: 0x0, symName: __RINvNtNtCs6IAuOt8vWmF_3syn3gen9visit_mut20visit_expr_field_mutNtNtCsdE2kXyKmOF1_11async_trait8receiver11ReplaceSelfEB12_, symObjAddr: 0x1849C, symBinAddr: 0x190EC, symSize: 0x88 }
  - { offset: 0xEEBA, size: 0x8, addend: 0x0, symName: __RINvNtNtCs6IAuOt8vWmF_3syn3gen9visit_mut20visit_expr_field_mutNtNtCsdE2kXyKmOF1_11async_trait8receiver7HasSelfEB12_, symObjAddr: 0x18524, symBinAddr: 0x19174, symSize: 0x88 }
  - { offset: 0xEEFC, size: 0x8, addend: 0x0, symName: __RINvNtNtCs6IAuOt8vWmF_3syn3gen9visit_mut20visit_expr_field_mutNtNtCsdE2kXyKmOF1_11async_trait8receiver9HasMutPatEB12_, symObjAddr: 0x185AC, symBinAddr: 0x191FC, symSize: 0x88 }
  - { offset: 0xEF3E, size: 0x8, addend: 0x0, symName: __RINvNtNtCs6IAuOt8vWmF_3syn3gen9visit_mut20visit_expr_field_mutNtNvNtCsdE2kXyKmOF1_11async_trait6expand29replace_impl_trait_with_infer25ReplaceImplTraitWithInferEB14_, symObjAddr: 0x18634, symBinAddr: 0x19284, symSize: 0x88 }
  - { offset: 0xEF80, size: 0x8, addend: 0x0, symName: __RINvNtNtCs6IAuOt8vWmF_3syn3gen9visit_mut20visit_expr_field_mutNtNvNtCsdE2kXyKmOF1_11async_trait6expand35contains_associated_type_impl_trait24AssociatedTypeImplTraitsEB14_, symObjAddr: 0x186BC, symBinAddr: 0x1930C, symSize: 0x88 }
  - { offset: 0xEFC2, size: 0x8, addend: 0x0, symName: __RINvNtNtCs6IAuOt8vWmF_3syn3gen9visit_mut20visit_expr_group_mutNtNtCsdE2kXyKmOF1_11async_trait8lifetime16CollectLifetimesEB12_, symObjAddr: 0x18744, symBinAddr: 0x19394, symSize: 0x78 }
  - { offset: 0xF004, size: 0x8, addend: 0x0, symName: __RINvNtNtCs6IAuOt8vWmF_3syn3gen9visit_mut20visit_expr_group_mutNtNtCsdE2kXyKmOF1_11async_trait8receiver11ReplaceSelfEB12_, symObjAddr: 0x187BC, symBinAddr: 0x1940C, symSize: 0x78 }
  - { offset: 0xF046, size: 0x8, addend: 0x0, symName: __RINvNtNtCs6IAuOt8vWmF_3syn3gen9visit_mut20visit_expr_group_mutNtNtCsdE2kXyKmOF1_11async_trait8receiver7HasSelfEB12_, symObjAddr: 0x18834, symBinAddr: 0x19484, symSize: 0x78 }
  - { offset: 0xF088, size: 0x8, addend: 0x0, symName: __RINvNtNtCs6IAuOt8vWmF_3syn3gen9visit_mut20visit_expr_group_mutNtNtCsdE2kXyKmOF1_11async_trait8receiver9HasMutPatEB12_, symObjAddr: 0x188AC, symBinAddr: 0x194FC, symSize: 0x78 }
  - { offset: 0xF0CA, size: 0x8, addend: 0x0, symName: __RINvNtNtCs6IAuOt8vWmF_3syn3gen9visit_mut20visit_expr_group_mutNtNvNtCsdE2kXyKmOF1_11async_trait6expand29replace_impl_trait_with_infer25ReplaceImplTraitWithInferEB14_, symObjAddr: 0x18924, symBinAddr: 0x19574, symSize: 0x78 }
  - { offset: 0xF10C, size: 0x8, addend: 0x0, symName: __RINvNtNtCs6IAuOt8vWmF_3syn3gen9visit_mut20visit_expr_group_mutNtNvNtCsdE2kXyKmOF1_11async_trait6expand35contains_associated_type_impl_trait24AssociatedTypeImplTraitsEB14_, symObjAddr: 0x1899C, symBinAddr: 0x195EC, symSize: 0x78 }
  - { offset: 0xF14E, size: 0x8, addend: 0x0, symName: __RINvNtNtCs6IAuOt8vWmF_3syn3gen9visit_mut20visit_expr_index_mutNtNtCsdE2kXyKmOF1_11async_trait8lifetime16CollectLifetimesEB12_, symObjAddr: 0x18A14, symBinAddr: 0x19664, symSize: 0xAC }
  - { offset: 0xF190, size: 0x8, addend: 0x0, symName: __RINvNtNtCs6IAuOt8vWmF_3syn3gen9visit_mut20visit_expr_index_mutNtNtCsdE2kXyKmOF1_11async_trait8receiver11ReplaceSelfEB12_, symObjAddr: 0x18AC0, symBinAddr: 0x19710, symSize: 0xAC }
  - { offset: 0xF1D2, size: 0x8, addend: 0x0, symName: __RINvNtNtCs6IAuOt8vWmF_3syn3gen9visit_mut20visit_expr_index_mutNtNtCsdE2kXyKmOF1_11async_trait8receiver7HasSelfEB12_, symObjAddr: 0x18B6C, symBinAddr: 0x197BC, symSize: 0xAC }
  - { offset: 0xF214, size: 0x8, addend: 0x0, symName: __RINvNtNtCs6IAuOt8vWmF_3syn3gen9visit_mut20visit_expr_index_mutNtNtCsdE2kXyKmOF1_11async_trait8receiver9HasMutPatEB12_, symObjAddr: 0x18C18, symBinAddr: 0x19868, symSize: 0xAC }
  - { offset: 0xF256, size: 0x8, addend: 0x0, symName: __RINvNtNtCs6IAuOt8vWmF_3syn3gen9visit_mut20visit_expr_index_mutNtNvNtCsdE2kXyKmOF1_11async_trait6expand29replace_impl_trait_with_infer25ReplaceImplTraitWithInferEB14_, symObjAddr: 0x18CC4, symBinAddr: 0x19914, symSize: 0xAC }
  - { offset: 0xF298, size: 0x8, addend: 0x0, symName: __RINvNtNtCs6IAuOt8vWmF_3syn3gen9visit_mut20visit_expr_index_mutNtNvNtCsdE2kXyKmOF1_11async_trait6expand35contains_associated_type_impl_trait24AssociatedTypeImplTraitsEB14_, symObjAddr: 0x18D70, symBinAddr: 0x199C0, symSize: 0xAC }
  - { offset: 0xF2DA, size: 0x8, addend: 0x0, symName: __RINvNtNtCs6IAuOt8vWmF_3syn3gen9visit_mut20visit_expr_infer_mutNtNtCsdE2kXyKmOF1_11async_trait8lifetime16CollectLifetimesEB12_, symObjAddr: 0x18E1C, symBinAddr: 0x19A6C, symSize: 0x3C }
  - { offset: 0xF31C, size: 0x8, addend: 0x0, symName: __RINvNtNtCs6IAuOt8vWmF_3syn3gen9visit_mut20visit_expr_infer_mutNtNtCsdE2kXyKmOF1_11async_trait8receiver11ReplaceSelfEB12_, symObjAddr: 0x18E58, symBinAddr: 0x19AA8, symSize: 0x3C }
  - { offset: 0xF35E, size: 0x8, addend: 0x0, symName: __RINvNtNtCs6IAuOt8vWmF_3syn3gen9visit_mut20visit_expr_infer_mutNtNtCsdE2kXyKmOF1_11async_trait8receiver7HasSelfEB12_, symObjAddr: 0x18E94, symBinAddr: 0x19AE4, symSize: 0x3C }
  - { offset: 0xF3A0, size: 0x8, addend: 0x0, symName: __RINvNtNtCs6IAuOt8vWmF_3syn3gen9visit_mut20visit_expr_infer_mutNtNtCsdE2kXyKmOF1_11async_trait8receiver9HasMutPatEB12_, symObjAddr: 0x18ED0, symBinAddr: 0x19B20, symSize: 0x3C }
  - { offset: 0xF3E2, size: 0x8, addend: 0x0, symName: __RINvNtNtCs6IAuOt8vWmF_3syn3gen9visit_mut20visit_expr_infer_mutNtNvNtCsdE2kXyKmOF1_11async_trait6expand29replace_impl_trait_with_infer25ReplaceImplTraitWithInferEB14_, symObjAddr: 0x18F0C, symBinAddr: 0x19B5C, symSize: 0x3C }
  - { offset: 0xF424, size: 0x8, addend: 0x0, symName: __RINvNtNtCs6IAuOt8vWmF_3syn3gen9visit_mut20visit_expr_infer_mutNtNvNtCsdE2kXyKmOF1_11async_trait6expand35contains_associated_type_impl_trait24AssociatedTypeImplTraitsEB14_, symObjAddr: 0x18F48, symBinAddr: 0x19B98, symSize: 0x3C }
  - { offset: 0xF466, size: 0x8, addend: 0x0, symName: __RINvNtNtCs6IAuOt8vWmF_3syn3gen9visit_mut20visit_expr_macro_mutNtNtCsdE2kXyKmOF1_11async_trait8lifetime16CollectLifetimesEB12_, symObjAddr: 0x18F84, symBinAddr: 0x19BD4, symSize: 0x50 }
  - { offset: 0xF4A8, size: 0x8, addend: 0x0, symName: __RINvNtNtCs6IAuOt8vWmF_3syn3gen9visit_mut20visit_expr_macro_mutNtNtCsdE2kXyKmOF1_11async_trait8receiver11ReplaceSelfEB12_, symObjAddr: 0x18FD4, symBinAddr: 0x19C24, symSize: 0x50 }
  - { offset: 0xF4EA, size: 0x8, addend: 0x0, symName: __RINvNtNtCs6IAuOt8vWmF_3syn3gen9visit_mut20visit_expr_macro_mutNtNtCsdE2kXyKmOF1_11async_trait8receiver7HasSelfEB12_, symObjAddr: 0x19024, symBinAddr: 0x19C74, symSize: 0x50 }
  - { offset: 0xF52C, size: 0x8, addend: 0x0, symName: __RINvNtNtCs6IAuOt8vWmF_3syn3gen9visit_mut20visit_expr_macro_mutNtNtCsdE2kXyKmOF1_11async_trait8receiver9HasMutPatEB12_, symObjAddr: 0x19074, symBinAddr: 0x19CC4, symSize: 0x50 }
  - { offset: 0xF56E, size: 0x8, addend: 0x0, symName: __RINvNtNtCs6IAuOt8vWmF_3syn3gen9visit_mut20visit_expr_macro_mutNtNvNtCsdE2kXyKmOF1_11async_trait6expand29replace_impl_trait_with_infer25ReplaceImplTraitWithInferEB14_, symObjAddr: 0x190C4, symBinAddr: 0x19D14, symSize: 0x50 }
  - { offset: 0xF5B0, size: 0x8, addend: 0x0, symName: __RINvNtNtCs6IAuOt8vWmF_3syn3gen9visit_mut20visit_expr_macro_mutNtNvNtCsdE2kXyKmOF1_11async_trait6expand35contains_associated_type_impl_trait24AssociatedTypeImplTraitsEB14_, symObjAddr: 0x19114, symBinAddr: 0x19D64, symSize: 0x50 }
  - { offset: 0xF5F2, size: 0x8, addend: 0x0, symName: __RINvNtNtCs6IAuOt8vWmF_3syn3gen9visit_mut20visit_expr_match_mutNtNtCsdE2kXyKmOF1_11async_trait8lifetime16CollectLifetimesEB12_, symObjAddr: 0x19164, symBinAddr: 0x19DB4, symSize: 0xD8 }
  - { offset: 0xF668, size: 0x8, addend: 0x0, symName: __RINvNtNtCs6IAuOt8vWmF_3syn3gen9visit_mut20visit_expr_match_mutNtNtCsdE2kXyKmOF1_11async_trait8receiver11ReplaceSelfEB12_, symObjAddr: 0x1923C, symBinAddr: 0x19E8C, symSize: 0xD8 }
  - { offset: 0xF6DE, size: 0x8, addend: 0x0, symName: __RINvNtNtCs6IAuOt8vWmF_3syn3gen9visit_mut20visit_expr_match_mutNtNtCsdE2kXyKmOF1_11async_trait8receiver7HasSelfEB12_, symObjAddr: 0x19314, symBinAddr: 0x19F64, symSize: 0xD8 }
  - { offset: 0xF754, size: 0x8, addend: 0x0, symName: __RINvNtNtCs6IAuOt8vWmF_3syn3gen9visit_mut20visit_expr_match_mutNtNtCsdE2kXyKmOF1_11async_trait8receiver9HasMutPatEB12_, symObjAddr: 0x193EC, symBinAddr: 0x1A03C, symSize: 0xD8 }
  - { offset: 0xF7CA, size: 0x8, addend: 0x0, symName: __RINvNtNtCs6IAuOt8vWmF_3syn3gen9visit_mut20visit_expr_match_mutNtNvNtCsdE2kXyKmOF1_11async_trait6expand29replace_impl_trait_with_infer25ReplaceImplTraitWithInferEB14_, symObjAddr: 0x194C4, symBinAddr: 0x1A114, symSize: 0xD8 }
  - { offset: 0xF840, size: 0x8, addend: 0x0, symName: __RINvNtNtCs6IAuOt8vWmF_3syn3gen9visit_mut20visit_expr_match_mutNtNvNtCsdE2kXyKmOF1_11async_trait6expand35contains_associated_type_impl_trait24AssociatedTypeImplTraitsEB14_, symObjAddr: 0x1959C, symBinAddr: 0x1A1EC, symSize: 0xD8 }
  - { offset: 0xF8B6, size: 0x8, addend: 0x0, symName: __RINvNtNtCs6IAuOt8vWmF_3syn3gen9visit_mut20visit_expr_paren_mutNtNtCsdE2kXyKmOF1_11async_trait8lifetime16CollectLifetimesEB12_, symObjAddr: 0x19674, symBinAddr: 0x1A2C4, symSize: 0x78 }
  - { offset: 0xF8F8, size: 0x8, addend: 0x0, symName: __RINvNtNtCs6IAuOt8vWmF_3syn3gen9visit_mut20visit_expr_paren_mutNtNtCsdE2kXyKmOF1_11async_trait8receiver11ReplaceSelfEB12_, symObjAddr: 0x196EC, symBinAddr: 0x1A33C, symSize: 0x78 }
  - { offset: 0xF93A, size: 0x8, addend: 0x0, symName: __RINvNtNtCs6IAuOt8vWmF_3syn3gen9visit_mut20visit_expr_paren_mutNtNtCsdE2kXyKmOF1_11async_trait8receiver7HasSelfEB12_, symObjAddr: 0x19764, symBinAddr: 0x1A3B4, symSize: 0x78 }
  - { offset: 0xF97C, size: 0x8, addend: 0x0, symName: __RINvNtNtCs6IAuOt8vWmF_3syn3gen9visit_mut20visit_expr_paren_mutNtNtCsdE2kXyKmOF1_11async_trait8receiver9HasMutPatEB12_, symObjAddr: 0x197DC, symBinAddr: 0x1A42C, symSize: 0x78 }
  - { offset: 0xF9BE, size: 0x8, addend: 0x0, symName: __RINvNtNtCs6IAuOt8vWmF_3syn3gen9visit_mut20visit_expr_paren_mutNtNvNtCsdE2kXyKmOF1_11async_trait6expand29replace_impl_trait_with_infer25ReplaceImplTraitWithInferEB14_, symObjAddr: 0x19854, symBinAddr: 0x1A4A4, symSize: 0x78 }
  - { offset: 0xFA00, size: 0x8, addend: 0x0, symName: __RINvNtNtCs6IAuOt8vWmF_3syn3gen9visit_mut20visit_expr_paren_mutNtNvNtCsdE2kXyKmOF1_11async_trait6expand35contains_associated_type_impl_trait24AssociatedTypeImplTraitsEB14_, symObjAddr: 0x198CC, symBinAddr: 0x1A51C, symSize: 0x78 }
  - { offset: 0xFA42, size: 0x8, addend: 0x0, symName: __RINvNtNtCs6IAuOt8vWmF_3syn3gen9visit_mut20visit_expr_range_mutNtNtCsdE2kXyKmOF1_11async_trait8lifetime16CollectLifetimesEB12_, symObjAddr: 0x19944, symBinAddr: 0x1A594, symSize: 0x144 }
  - { offset: 0xFAB0, size: 0x8, addend: 0x0, symName: __RINvNtNtCs6IAuOt8vWmF_3syn3gen9visit_mut20visit_expr_range_mutNtNtCsdE2kXyKmOF1_11async_trait8receiver11ReplaceSelfEB12_, symObjAddr: 0x19A88, symBinAddr: 0x1A6D8, symSize: 0x144 }
  - { offset: 0xFB1E, size: 0x8, addend: 0x0, symName: __RINvNtNtCs6IAuOt8vWmF_3syn3gen9visit_mut20visit_expr_range_mutNtNtCsdE2kXyKmOF1_11async_trait8receiver7HasSelfEB12_, symObjAddr: 0x19BCC, symBinAddr: 0x1A81C, symSize: 0x144 }
  - { offset: 0xFB8C, size: 0x8, addend: 0x0, symName: __RINvNtNtCs6IAuOt8vWmF_3syn3gen9visit_mut20visit_expr_range_mutNtNtCsdE2kXyKmOF1_11async_trait8receiver9HasMutPatEB12_, symObjAddr: 0x19D10, symBinAddr: 0x1A960, symSize: 0x144 }
  - { offset: 0xFBFA, size: 0x8, addend: 0x0, symName: __RINvNtNtCs6IAuOt8vWmF_3syn3gen9visit_mut20visit_expr_range_mutNtNvNtCsdE2kXyKmOF1_11async_trait6expand29replace_impl_trait_with_infer25ReplaceImplTraitWithInferEB14_, symObjAddr: 0x19E54, symBinAddr: 0x1AAA4, symSize: 0x144 }
  - { offset: 0xFC68, size: 0x8, addend: 0x0, symName: __RINvNtNtCs6IAuOt8vWmF_3syn3gen9visit_mut20visit_expr_range_mutNtNvNtCsdE2kXyKmOF1_11async_trait6expand35contains_associated_type_impl_trait24AssociatedTypeImplTraitsEB14_, symObjAddr: 0x19F98, symBinAddr: 0x1ABE8, symSize: 0x144 }
  - { offset: 0xFCD6, size: 0x8, addend: 0x0, symName: __RINvNtNtCs6IAuOt8vWmF_3syn3gen9visit_mut20visit_expr_tuple_mutNtNtCsdE2kXyKmOF1_11async_trait8lifetime16CollectLifetimesEB12_, symObjAddr: 0x1A0DC, symBinAddr: 0x1AD2C, symSize: 0xD0 }
  - { offset: 0xFD6B, size: 0x8, addend: 0x0, symName: __RINvNtNtCs6IAuOt8vWmF_3syn3gen9visit_mut20visit_expr_tuple_mutNtNtCsdE2kXyKmOF1_11async_trait8receiver11ReplaceSelfEB12_, symObjAddr: 0x1A1AC, symBinAddr: 0x1ADFC, symSize: 0xD0 }
  - { offset: 0xFE00, size: 0x8, addend: 0x0, symName: __RINvNtNtCs6IAuOt8vWmF_3syn3gen9visit_mut20visit_expr_tuple_mutNtNtCsdE2kXyKmOF1_11async_trait8receiver7HasSelfEB12_, symObjAddr: 0x1A27C, symBinAddr: 0x1AECC, symSize: 0xD0 }
  - { offset: 0xFE95, size: 0x8, addend: 0x0, symName: __RINvNtNtCs6IAuOt8vWmF_3syn3gen9visit_mut20visit_expr_tuple_mutNtNtCsdE2kXyKmOF1_11async_trait8receiver9HasMutPatEB12_, symObjAddr: 0x1A34C, symBinAddr: 0x1AF9C, symSize: 0xD0 }
  - { offset: 0xFF2A, size: 0x8, addend: 0x0, symName: __RINvNtNtCs6IAuOt8vWmF_3syn3gen9visit_mut20visit_expr_tuple_mutNtNvNtCsdE2kXyKmOF1_11async_trait6expand29replace_impl_trait_with_infer25ReplaceImplTraitWithInferEB14_, symObjAddr: 0x1A41C, symBinAddr: 0x1B06C, symSize: 0xD0 }
  - { offset: 0xFFBF, size: 0x8, addend: 0x0, symName: __RINvNtNtCs6IAuOt8vWmF_3syn3gen9visit_mut20visit_expr_tuple_mutNtNvNtCsdE2kXyKmOF1_11async_trait6expand35contains_associated_type_impl_trait24AssociatedTypeImplTraitsEB14_, symObjAddr: 0x1A4EC, symBinAddr: 0x1B13C, symSize: 0xD0 }
  - { offset: 0x10054, size: 0x8, addend: 0x0, symName: __RINvNtNtCs6IAuOt8vWmF_3syn3gen9visit_mut20visit_expr_unary_mutNtNtCsdE2kXyKmOF1_11async_trait8lifetime16CollectLifetimesEB12_, symObjAddr: 0x1A5BC, symBinAddr: 0x1B20C, symSize: 0x88 }
  - { offset: 0x10096, size: 0x8, addend: 0x0, symName: __RINvNtNtCs6IAuOt8vWmF_3syn3gen9visit_mut20visit_expr_unary_mutNtNtCsdE2kXyKmOF1_11async_trait8receiver11ReplaceSelfEB12_, symObjAddr: 0x1A644, symBinAddr: 0x1B294, symSize: 0x88 }
  - { offset: 0x100D8, size: 0x8, addend: 0x0, symName: __RINvNtNtCs6IAuOt8vWmF_3syn3gen9visit_mut20visit_expr_unary_mutNtNtCsdE2kXyKmOF1_11async_trait8receiver7HasSelfEB12_, symObjAddr: 0x1A6CC, symBinAddr: 0x1B31C, symSize: 0x88 }
  - { offset: 0x1011A, size: 0x8, addend: 0x0, symName: __RINvNtNtCs6IAuOt8vWmF_3syn3gen9visit_mut20visit_expr_unary_mutNtNtCsdE2kXyKmOF1_11async_trait8receiver9HasMutPatEB12_, symObjAddr: 0x1A754, symBinAddr: 0x1B3A4, symSize: 0x88 }
  - { offset: 0x1015C, size: 0x8, addend: 0x0, symName: __RINvNtNtCs6IAuOt8vWmF_3syn3gen9visit_mut20visit_expr_unary_mutNtNvNtCsdE2kXyKmOF1_11async_trait6expand29replace_impl_trait_with_infer25ReplaceImplTraitWithInferEB14_, symObjAddr: 0x1A7DC, symBinAddr: 0x1B42C, symSize: 0x88 }
  - { offset: 0x1019E, size: 0x8, addend: 0x0, symName: __RINvNtNtCs6IAuOt8vWmF_3syn3gen9visit_mut20visit_expr_unary_mutNtNvNtCsdE2kXyKmOF1_11async_trait6expand35contains_associated_type_impl_trait24AssociatedTypeImplTraitsEB14_, symObjAddr: 0x1A864, symBinAddr: 0x1B4B4, symSize: 0x88 }
  - { offset: 0x101E0, size: 0x8, addend: 0x0, symName: __RINvNtNtCs6IAuOt8vWmF_3syn3gen9visit_mut20visit_expr_while_mutNtNtCsdE2kXyKmOF1_11async_trait8lifetime16CollectLifetimesEB12_, symObjAddr: 0x1A8EC, symBinAddr: 0x1B53C, symSize: 0xD8 }
  - { offset: 0x10240, size: 0x8, addend: 0x0, symName: __RINvNtNtCs6IAuOt8vWmF_3syn3gen9visit_mut20visit_expr_while_mutNtNtCsdE2kXyKmOF1_11async_trait8receiver11ReplaceSelfEB12_, symObjAddr: 0x1A9C4, symBinAddr: 0x1B614, symSize: 0xD8 }
  - { offset: 0x102A0, size: 0x8, addend: 0x0, symName: __RINvNtNtCs6IAuOt8vWmF_3syn3gen9visit_mut20visit_expr_while_mutNtNtCsdE2kXyKmOF1_11async_trait8receiver7HasSelfEB12_, symObjAddr: 0x1AA9C, symBinAddr: 0x1B6EC, symSize: 0xD8 }
  - { offset: 0x10300, size: 0x8, addend: 0x0, symName: __RINvNtNtCs6IAuOt8vWmF_3syn3gen9visit_mut20visit_expr_while_mutNtNtCsdE2kXyKmOF1_11async_trait8receiver9HasMutPatEB12_, symObjAddr: 0x1AB74, symBinAddr: 0x1B7C4, symSize: 0xD8 }
  - { offset: 0x10360, size: 0x8, addend: 0x0, symName: __RINvNtNtCs6IAuOt8vWmF_3syn3gen9visit_mut20visit_expr_while_mutNtNvNtCsdE2kXyKmOF1_11async_trait6expand29replace_impl_trait_with_infer25ReplaceImplTraitWithInferEB14_, symObjAddr: 0x1AC4C, symBinAddr: 0x1B89C, symSize: 0xD8 }
  - { offset: 0x103C0, size: 0x8, addend: 0x0, symName: __RINvNtNtCs6IAuOt8vWmF_3syn3gen9visit_mut20visit_expr_while_mutNtNvNtCsdE2kXyKmOF1_11async_trait6expand35contains_associated_type_impl_trait24AssociatedTypeImplTraitsEB14_, symObjAddr: 0x1AD24, symBinAddr: 0x1B974, symSize: 0xD8 }
  - { offset: 0x10420, size: 0x8, addend: 0x0, symName: __RINvNtNtCs6IAuOt8vWmF_3syn3gen9visit_mut20visit_expr_yield_mutNtNtCsdE2kXyKmOF1_11async_trait8lifetime16CollectLifetimesEB12_, symObjAddr: 0x1ADFC, symBinAddr: 0x1BA4C, symSize: 0xB8 }
  - { offset: 0x10478, size: 0x8, addend: 0x0, symName: __RINvNtNtCs6IAuOt8vWmF_3syn3gen9visit_mut20visit_expr_yield_mutNtNtCsdE2kXyKmOF1_11async_trait8receiver11ReplaceSelfEB12_, symObjAddr: 0x1AEB4, symBinAddr: 0x1BB04, symSize: 0xB8 }
  - { offset: 0x104D0, size: 0x8, addend: 0x0, symName: __RINvNtNtCs6IAuOt8vWmF_3syn3gen9visit_mut20visit_expr_yield_mutNtNtCsdE2kXyKmOF1_11async_trait8receiver7HasSelfEB12_, symObjAddr: 0x1AF6C, symBinAddr: 0x1BBBC, symSize: 0xB8 }
  - { offset: 0x10528, size: 0x8, addend: 0x0, symName: __RINvNtNtCs6IAuOt8vWmF_3syn3gen9visit_mut20visit_expr_yield_mutNtNtCsdE2kXyKmOF1_11async_trait8receiver9HasMutPatEB12_, symObjAddr: 0x1B024, symBinAddr: 0x1BC74, symSize: 0xB8 }
  - { offset: 0x10580, size: 0x8, addend: 0x0, symName: __RINvNtNtCs6IAuOt8vWmF_3syn3gen9visit_mut20visit_expr_yield_mutNtNvNtCsdE2kXyKmOF1_11async_trait6expand29replace_impl_trait_with_infer25ReplaceImplTraitWithInferEB14_, symObjAddr: 0x1B0DC, symBinAddr: 0x1BD2C, symSize: 0xB8 }
  - { offset: 0x105D8, size: 0x8, addend: 0x0, symName: __RINvNtNtCs6IAuOt8vWmF_3syn3gen9visit_mut20visit_expr_yield_mutNtNvNtCsdE2kXyKmOF1_11async_trait6expand35contains_associated_type_impl_trait24AssociatedTypeImplTraitsEB14_, symObjAddr: 0x1B194, symBinAddr: 0x1BDE4, symSize: 0xB8 }
  - { offset: 0x10630, size: 0x8, addend: 0x0, symName: __RINvNtNtCs6IAuOt8vWmF_3syn3gen9visit_mut20visit_item_const_mutNtNtCsdE2kXyKmOF1_11async_trait8lifetime16CollectLifetimesEB12_, symObjAddr: 0x1B24C, symBinAddr: 0x1BE9C, symSize: 0xDC }
  - { offset: 0x10672, size: 0x8, addend: 0x0, symName: __RINvNtNtCs6IAuOt8vWmF_3syn3gen9visit_mut20visit_item_const_mutNtNtCsdE2kXyKmOF1_11async_trait8receiver9HasMutPatEB12_, symObjAddr: 0x1B328, symBinAddr: 0x1BF78, symSize: 0xDC }
  - { offset: 0x106B4, size: 0x8, addend: 0x0, symName: __RINvNtNtCs6IAuOt8vWmF_3syn3gen9visit_mut20visit_item_const_mutNtNvNtCsdE2kXyKmOF1_11async_trait6expand29replace_impl_trait_with_infer25ReplaceImplTraitWithInferEB14_, symObjAddr: 0x1B404, symBinAddr: 0x1C054, symSize: 0xDC }
  - { offset: 0x106F6, size: 0x8, addend: 0x0, symName: __RINvNtNtCs6IAuOt8vWmF_3syn3gen9visit_mut20visit_item_const_mutNtNvNtCsdE2kXyKmOF1_11async_trait6expand35contains_associated_type_impl_trait24AssociatedTypeImplTraitsEB14_, symObjAddr: 0x1B4E0, symBinAddr: 0x1C130, symSize: 0xDC }
  - { offset: 0x10738, size: 0x8, addend: 0x0, symName: __RINvNtNtCs6IAuOt8vWmF_3syn3gen9visit_mut20visit_item_macro_mutNtNtCsdE2kXyKmOF1_11async_trait8lifetime16CollectLifetimesEB12_, symObjAddr: 0x1B5BC, symBinAddr: 0x1C20C, symSize: 0xA4 }
  - { offset: 0x10798, size: 0x8, addend: 0x0, symName: __RINvNtNtCs6IAuOt8vWmF_3syn3gen9visit_mut20visit_item_macro_mutNtNtCsdE2kXyKmOF1_11async_trait8receiver9HasMutPatEB12_, symObjAddr: 0x1B660, symBinAddr: 0x1C2B0, symSize: 0xA4 }
  - { offset: 0x107F8, size: 0x8, addend: 0x0, symName: __RINvNtNtCs6IAuOt8vWmF_3syn3gen9visit_mut20visit_item_macro_mutNtNvNtCsdE2kXyKmOF1_11async_trait6expand29replace_impl_trait_with_infer25ReplaceImplTraitWithInferEB14_, symObjAddr: 0x1B704, symBinAddr: 0x1C354, symSize: 0xA4 }
  - { offset: 0x10858, size: 0x8, addend: 0x0, symName: __RINvNtNtCs6IAuOt8vWmF_3syn3gen9visit_mut20visit_item_macro_mutNtNvNtCsdE2kXyKmOF1_11async_trait6expand35contains_associated_type_impl_trait24AssociatedTypeImplTraitsEB14_, symObjAddr: 0x1B7A8, symBinAddr: 0x1C3F8, symSize: 0xA4 }
  - { offset: 0x108B8, size: 0x8, addend: 0x0, symName: __RINvNtNtCs6IAuOt8vWmF_3syn3gen9visit_mut20visit_item_trait_mutNtNtCsdE2kXyKmOF1_11async_trait8lifetime16CollectLifetimesEB12_, symObjAddr: 0x1B84C, symBinAddr: 0x1C49C, symSize: 0x164 }
  - { offset: 0x1099D, size: 0x8, addend: 0x0, symName: __RINvNtNtCs6IAuOt8vWmF_3syn3gen9visit_mut20visit_item_trait_mutNtNtCsdE2kXyKmOF1_11async_trait8receiver9HasMutPatEB12_, symObjAddr: 0x1B9B0, symBinAddr: 0x1C600, symSize: 0x164 }
  - { offset: 0x10A82, size: 0x8, addend: 0x0, symName: __RINvNtNtCs6IAuOt8vWmF_3syn3gen9visit_mut20visit_item_trait_mutNtNvNtCsdE2kXyKmOF1_11async_trait6expand29replace_impl_trait_with_infer25ReplaceImplTraitWithInferEB14_, symObjAddr: 0x1BB14, symBinAddr: 0x1C764, symSize: 0x164 }
  - { offset: 0x10B67, size: 0x8, addend: 0x0, symName: __RINvNtNtCs6IAuOt8vWmF_3syn3gen9visit_mut20visit_item_trait_mutNtNvNtCsdE2kXyKmOF1_11async_trait6expand35contains_associated_type_impl_trait24AssociatedTypeImplTraitsEB14_, symObjAddr: 0x1BC78, symBinAddr: 0x1C8C8, symSize: 0x164 }
  - { offset: 0x10C4C, size: 0x8, addend: 0x0, symName: __RINvNtNtCs6IAuOt8vWmF_3syn3gen9visit_mut20visit_item_union_mutNtNtCsdE2kXyKmOF1_11async_trait8lifetime16CollectLifetimesEB12_, symObjAddr: 0x1BDDC, symBinAddr: 0x1CA2C, symSize: 0x80 }
  - { offset: 0x10C8E, size: 0x8, addend: 0x0, symName: __RINvNtNtCs6IAuOt8vWmF_3syn3gen9visit_mut20visit_item_union_mutNtNtCsdE2kXyKmOF1_11async_trait8receiver9HasMutPatEB12_, symObjAddr: 0x1BE5C, symBinAddr: 0x1CAAC, symSize: 0x80 }
  - { offset: 0x10CD0, size: 0x8, addend: 0x0, symName: __RINvNtNtCs6IAuOt8vWmF_3syn3gen9visit_mut20visit_item_union_mutNtNvNtCsdE2kXyKmOF1_11async_trait6expand29replace_impl_trait_with_infer25ReplaceImplTraitWithInferEB14_, symObjAddr: 0x1BEDC, symBinAddr: 0x1CB2C, symSize: 0x80 }
  - { offset: 0x10D12, size: 0x8, addend: 0x0, symName: __RINvNtNtCs6IAuOt8vWmF_3syn3gen9visit_mut20visit_item_union_mutNtNvNtCsdE2kXyKmOF1_11async_trait6expand35contains_associated_type_impl_trait24AssociatedTypeImplTraitsEB14_, symObjAddr: 0x1BF5C, symBinAddr: 0x1CBAC, symSize: 0x80 }
  - { offset: 0x10D54, size: 0x8, addend: 0x0, symName: __RINvNtNtCs6IAuOt8vWmF_3syn3gen9visit_mut20visit_local_init_mutNtNtCsdE2kXyKmOF1_11async_trait8lifetime16CollectLifetimesEB12_, symObjAddr: 0x1BFDC, symBinAddr: 0x1CC2C, symSize: 0xE8 }
  - { offset: 0x10DAC, size: 0x8, addend: 0x0, symName: __RINvNtNtCs6IAuOt8vWmF_3syn3gen9visit_mut20visit_local_init_mutNtNtCsdE2kXyKmOF1_11async_trait8receiver11ReplaceSelfEB12_, symObjAddr: 0x1C0C4, symBinAddr: 0x1CD14, symSize: 0xE8 }
  - { offset: 0x10E04, size: 0x8, addend: 0x0, symName: __RINvNtNtCs6IAuOt8vWmF_3syn3gen9visit_mut20visit_local_init_mutNtNtCsdE2kXyKmOF1_11async_trait8receiver7HasSelfEB12_, symObjAddr: 0x1C1AC, symBinAddr: 0x1CDFC, symSize: 0xE8 }
  - { offset: 0x10E5C, size: 0x8, addend: 0x0, symName: __RINvNtNtCs6IAuOt8vWmF_3syn3gen9visit_mut20visit_local_init_mutNtNtCsdE2kXyKmOF1_11async_trait8receiver9HasMutPatEB12_, symObjAddr: 0x1C294, symBinAddr: 0x1CEE4, symSize: 0xE8 }
  - { offset: 0x10EB4, size: 0x8, addend: 0x0, symName: __RINvNtNtCs6IAuOt8vWmF_3syn3gen9visit_mut20visit_local_init_mutNtNvNtCsdE2kXyKmOF1_11async_trait6expand29replace_impl_trait_with_infer25ReplaceImplTraitWithInferEB14_, symObjAddr: 0x1C37C, symBinAddr: 0x1CFCC, symSize: 0xE8 }
  - { offset: 0x10F0C, size: 0x8, addend: 0x0, symName: __RINvNtNtCs6IAuOt8vWmF_3syn3gen9visit_mut20visit_local_init_mutNtNvNtCsdE2kXyKmOF1_11async_trait6expand35contains_associated_type_impl_trait24AssociatedTypeImplTraitsEB14_, symObjAddr: 0x1C464, symBinAddr: 0x1D0B4, symSize: 0xE8 }
  - { offset: 0x10F64, size: 0x8, addend: 0x0, symName: __RINvNtNtCs6IAuOt8vWmF_3syn3gen9visit_mut20visit_pat_struct_mutNtNtCsdE2kXyKmOF1_11async_trait8lifetime16CollectLifetimesEB12_, symObjAddr: 0x1C54C, symBinAddr: 0x1D19C, symSize: 0x18C }
  - { offset: 0x1102D, size: 0x8, addend: 0x0, symName: __RINvNtNtCs6IAuOt8vWmF_3syn3gen9visit_mut20visit_pat_struct_mutNtNtCsdE2kXyKmOF1_11async_trait8receiver11ReplaceSelfEB12_, symObjAddr: 0x1C6D8, symBinAddr: 0x1D328, symSize: 0x18C }
  - { offset: 0x110F6, size: 0x8, addend: 0x0, symName: __RINvNtNtCs6IAuOt8vWmF_3syn3gen9visit_mut20visit_pat_struct_mutNtNtCsdE2kXyKmOF1_11async_trait8receiver7HasSelfEB12_, symObjAddr: 0x1C864, symBinAddr: 0x1D4B4, symSize: 0x18C }
  - { offset: 0x111BF, size: 0x8, addend: 0x0, symName: __RINvNtNtCs6IAuOt8vWmF_3syn3gen9visit_mut20visit_pat_struct_mutNtNtCsdE2kXyKmOF1_11async_trait8receiver9HasMutPatEB12_, symObjAddr: 0x1C9F0, symBinAddr: 0x1D640, symSize: 0x18C }
  - { offset: 0x11288, size: 0x8, addend: 0x0, symName: __RINvNtNtCs6IAuOt8vWmF_3syn3gen9visit_mut20visit_pat_struct_mutNtNvNtCsdE2kXyKmOF1_11async_trait6expand29replace_impl_trait_with_infer25ReplaceImplTraitWithInferEB14_, symObjAddr: 0x1CB7C, symBinAddr: 0x1D7CC, symSize: 0x18C }
  - { offset: 0x11351, size: 0x8, addend: 0x0, symName: __RINvNtNtCs6IAuOt8vWmF_3syn3gen9visit_mut20visit_pat_struct_mutNtNvNtCsdE2kXyKmOF1_11async_trait6expand35contains_associated_type_impl_trait24AssociatedTypeImplTraitsEB14_, symObjAddr: 0x1CD08, symBinAddr: 0x1D958, symSize: 0x18C }
  - { offset: 0x1141A, size: 0x8, addend: 0x0, symName: __RINvNtNtCs6IAuOt8vWmF_3syn3gen9visit_mut20visit_stmt_macro_mutNtNtCsdE2kXyKmOF1_11async_trait8lifetime16CollectLifetimesEB12_, symObjAddr: 0x1CE94, symBinAddr: 0x1DAE4, symSize: 0x50 }
  - { offset: 0x1145C, size: 0x8, addend: 0x0, symName: __RINvNtNtCs6IAuOt8vWmF_3syn3gen9visit_mut20visit_stmt_macro_mutNtNtCsdE2kXyKmOF1_11async_trait8receiver11ReplaceSelfEB12_, symObjAddr: 0x1CEE4, symBinAddr: 0x1DB34, symSize: 0x50 }
  - { offset: 0x1149E, size: 0x8, addend: 0x0, symName: __RINvNtNtCs6IAuOt8vWmF_3syn3gen9visit_mut20visit_stmt_macro_mutNtNtCsdE2kXyKmOF1_11async_trait8receiver7HasSelfEB12_, symObjAddr: 0x1CF34, symBinAddr: 0x1DB84, symSize: 0x50 }
  - { offset: 0x114E0, size: 0x8, addend: 0x0, symName: __RINvNtNtCs6IAuOt8vWmF_3syn3gen9visit_mut20visit_stmt_macro_mutNtNtCsdE2kXyKmOF1_11async_trait8receiver9HasMutPatEB12_, symObjAddr: 0x1CF84, symBinAddr: 0x1DBD4, symSize: 0x50 }
  - { offset: 0x11522, size: 0x8, addend: 0x0, symName: __RINvNtNtCs6IAuOt8vWmF_3syn3gen9visit_mut20visit_stmt_macro_mutNtNvNtCsdE2kXyKmOF1_11async_trait6expand29replace_impl_trait_with_infer25ReplaceImplTraitWithInferEB14_, symObjAddr: 0x1CFD4, symBinAddr: 0x1DC24, symSize: 0x50 }
  - { offset: 0x11564, size: 0x8, addend: 0x0, symName: __RINvNtNtCs6IAuOt8vWmF_3syn3gen9visit_mut20visit_stmt_macro_mutNtNvNtCsdE2kXyKmOF1_11async_trait6expand35contains_associated_type_impl_trait24AssociatedTypeImplTraitsEB14_, symObjAddr: 0x1D024, symBinAddr: 0x1DC74, symSize: 0x50 }
  - { offset: 0x115A6, size: 0x8, addend: 0x0, symName: __RINvNtNtCs6IAuOt8vWmF_3syn3gen9visit_mut20visit_trait_item_mutNtNtCsdE2kXyKmOF1_11async_trait8lifetime16CollectLifetimesEB12_, symObjAddr: 0x1D074, symBinAddr: 0x1DCC4, symSize: 0x168 }
  - { offset: 0x11676, size: 0x8, addend: 0x0, symName: __RINvNtNtCs6IAuOt8vWmF_3syn3gen9visit_mut20visit_trait_item_mutNtNtCsdE2kXyKmOF1_11async_trait8receiver9HasMutPatEB12_, symObjAddr: 0x1D1DC, symBinAddr: 0x1DE2C, symSize: 0x168 }
  - { offset: 0x11746, size: 0x8, addend: 0x0, symName: __RINvNtNtCs6IAuOt8vWmF_3syn3gen9visit_mut20visit_trait_item_mutNtNvNtCsdE2kXyKmOF1_11async_trait6expand29replace_impl_trait_with_infer25ReplaceImplTraitWithInferEB14_, symObjAddr: 0x1D344, symBinAddr: 0x1DF94, symSize: 0x168 }
  - { offset: 0x11816, size: 0x8, addend: 0x0, symName: __RINvNtNtCs6IAuOt8vWmF_3syn3gen9visit_mut20visit_trait_item_mutNtNvNtCsdE2kXyKmOF1_11async_trait6expand35contains_associated_type_impl_trait24AssociatedTypeImplTraitsEB14_, symObjAddr: 0x1D4AC, symBinAddr: 0x1E0FC, symSize: 0x168 }
  - { offset: 0x118E6, size: 0x8, addend: 0x0, symName: __RINvNtNtCs6IAuOt8vWmF_3syn3gen9visit_mut20visit_type_array_mutNtNtCsdE2kXyKmOF1_11async_trait8lifetime16CollectLifetimesEB12_, symObjAddr: 0x1D614, symBinAddr: 0x1E264, symSize: 0x78 }
  - { offset: 0x11928, size: 0x8, addend: 0x0, symName: __RINvNtNtCs6IAuOt8vWmF_3syn3gen9visit_mut20visit_type_array_mutNtNtCsdE2kXyKmOF1_11async_trait8lifetime22AddLifetimeToImplTraitEB12_, symObjAddr: 0x1D68C, symBinAddr: 0x1E2DC, symSize: 0x78 }
  - { offset: 0x1196A, size: 0x8, addend: 0x0, symName: __RINvNtNtCs6IAuOt8vWmF_3syn3gen9visit_mut20visit_type_array_mutNtNtCsdE2kXyKmOF1_11async_trait8receiver11ReplaceSelfEB12_, symObjAddr: 0x1D704, symBinAddr: 0x1E354, symSize: 0x78 }
  - { offset: 0x119AC, size: 0x8, addend: 0x0, symName: __RINvNtNtCs6IAuOt8vWmF_3syn3gen9visit_mut20visit_type_array_mutNtNtCsdE2kXyKmOF1_11async_trait8receiver7HasSelfEB12_, symObjAddr: 0x1D77C, symBinAddr: 0x1E3CC, symSize: 0x78 }
  - { offset: 0x119EE, size: 0x8, addend: 0x0, symName: __RINvNtNtCs6IAuOt8vWmF_3syn3gen9visit_mut20visit_type_array_mutNtNtCsdE2kXyKmOF1_11async_trait8receiver9HasMutPatEB12_, symObjAddr: 0x1D7F4, symBinAddr: 0x1E444, symSize: 0x78 }
  - { offset: 0x11A30, size: 0x8, addend: 0x0, symName: __RINvNtNtCs6IAuOt8vWmF_3syn3gen9visit_mut20visit_type_array_mutNtNvNtCsdE2kXyKmOF1_11async_trait6expand29replace_impl_trait_with_infer25ReplaceImplTraitWithInferEB14_, symObjAddr: 0x1D86C, symBinAddr: 0x1E4BC, symSize: 0x78 }
  - { offset: 0x11A72, size: 0x8, addend: 0x0, symName: __RINvNtNtCs6IAuOt8vWmF_3syn3gen9visit_mut20visit_type_array_mutNtNvNtCsdE2kXyKmOF1_11async_trait6expand35contains_associated_type_impl_trait24AssociatedTypeImplTraitsEB14_, symObjAddr: 0x1D8E4, symBinAddr: 0x1E534, symSize: 0x78 }
  - { offset: 0x11AB4, size: 0x8, addend: 0x0, symName: __RINvNtNtCs6IAuOt8vWmF_3syn3gen9visit_mut20visit_type_group_mutNtNtCsdE2kXyKmOF1_11async_trait8lifetime16CollectLifetimesEB12_, symObjAddr: 0x1D95C, symBinAddr: 0x1E5AC, symSize: 0x68 }
  - { offset: 0x11AF6, size: 0x8, addend: 0x0, symName: __RINvNtNtCs6IAuOt8vWmF_3syn3gen9visit_mut20visit_type_group_mutNtNtCsdE2kXyKmOF1_11async_trait8lifetime22AddLifetimeToImplTraitEB12_, symObjAddr: 0x1D9C4, symBinAddr: 0x1E614, symSize: 0x68 }
  - { offset: 0x11B38, size: 0x8, addend: 0x0, symName: __RINvNtNtCs6IAuOt8vWmF_3syn3gen9visit_mut20visit_type_group_mutNtNtCsdE2kXyKmOF1_11async_trait8receiver11ReplaceSelfEB12_, symObjAddr: 0x1DA2C, symBinAddr: 0x1E67C, symSize: 0x68 }
  - { offset: 0x11B7A, size: 0x8, addend: 0x0, symName: __RINvNtNtCs6IAuOt8vWmF_3syn3gen9visit_mut20visit_type_group_mutNtNtCsdE2kXyKmOF1_11async_trait8receiver7HasSelfEB12_, symObjAddr: 0x1DA94, symBinAddr: 0x1E6E4, symSize: 0x68 }
  - { offset: 0x11BBC, size: 0x8, addend: 0x0, symName: __RINvNtNtCs6IAuOt8vWmF_3syn3gen9visit_mut20visit_type_group_mutNtNtCsdE2kXyKmOF1_11async_trait8receiver9HasMutPatEB12_, symObjAddr: 0x1DAFC, symBinAddr: 0x1E74C, symSize: 0x68 }
  - { offset: 0x11BFE, size: 0x8, addend: 0x0, symName: __RINvNtNtCs6IAuOt8vWmF_3syn3gen9visit_mut20visit_type_group_mutNtNvNtCsdE2kXyKmOF1_11async_trait6expand29replace_impl_trait_with_infer25ReplaceImplTraitWithInferEB14_, symObjAddr: 0x1DB64, symBinAddr: 0x1E7B4, symSize: 0x68 }
  - { offset: 0x11C40, size: 0x8, addend: 0x0, symName: __RINvNtNtCs6IAuOt8vWmF_3syn3gen9visit_mut20visit_type_group_mutNtNvNtCsdE2kXyKmOF1_11async_trait6expand35contains_associated_type_impl_trait24AssociatedTypeImplTraitsEB14_, symObjAddr: 0x1DBCC, symBinAddr: 0x1E81C, symSize: 0x68 }
  - { offset: 0x11C82, size: 0x8, addend: 0x0, symName: __RINvNtNtCs6IAuOt8vWmF_3syn3gen9visit_mut20visit_type_infer_mutNtNtCsdE2kXyKmOF1_11async_trait8lifetime16CollectLifetimesEB12_, symObjAddr: 0x1DC34, symBinAddr: 0x1E884, symSize: 0x24 }
  - { offset: 0x11CC4, size: 0x8, addend: 0x0, symName: __RINvNtNtCs6IAuOt8vWmF_3syn3gen9visit_mut20visit_type_infer_mutNtNtCsdE2kXyKmOF1_11async_trait8lifetime22AddLifetimeToImplTraitEB12_, symObjAddr: 0x1DC58, symBinAddr: 0x1E8A8, symSize: 0x24 }
  - { offset: 0x11D06, size: 0x8, addend: 0x0, symName: __RINvNtNtCs6IAuOt8vWmF_3syn3gen9visit_mut20visit_type_infer_mutNtNtCsdE2kXyKmOF1_11async_trait8receiver11ReplaceSelfEB12_, symObjAddr: 0x1DC7C, symBinAddr: 0x1E8CC, symSize: 0x24 }
  - { offset: 0x11D48, size: 0x8, addend: 0x0, symName: __RINvNtNtCs6IAuOt8vWmF_3syn3gen9visit_mut20visit_type_infer_mutNtNtCsdE2kXyKmOF1_11async_trait8receiver7HasSelfEB12_, symObjAddr: 0x1DCA0, symBinAddr: 0x1E8F0, symSize: 0x24 }
  - { offset: 0x11D8A, size: 0x8, addend: 0x0, symName: __RINvNtNtCs6IAuOt8vWmF_3syn3gen9visit_mut20visit_type_infer_mutNtNtCsdE2kXyKmOF1_11async_trait8receiver9HasMutPatEB12_, symObjAddr: 0x1DCC4, symBinAddr: 0x1E914, symSize: 0x24 }
  - { offset: 0x11DCC, size: 0x8, addend: 0x0, symName: __RINvNtNtCs6IAuOt8vWmF_3syn3gen9visit_mut20visit_type_infer_mutNtNvNtCsdE2kXyKmOF1_11async_trait6expand29replace_impl_trait_with_infer25ReplaceImplTraitWithInferEB14_, symObjAddr: 0x1DCE8, symBinAddr: 0x1E938, symSize: 0x24 }
  - { offset: 0x11E0E, size: 0x8, addend: 0x0, symName: __RINvNtNtCs6IAuOt8vWmF_3syn3gen9visit_mut20visit_type_infer_mutNtNvNtCsdE2kXyKmOF1_11async_trait6expand35contains_associated_type_impl_trait24AssociatedTypeImplTraitsEB14_, symObjAddr: 0x1DD0C, symBinAddr: 0x1E95C, symSize: 0x24 }
  - { offset: 0x11E50, size: 0x8, addend: 0x0, symName: __RINvNtNtCs6IAuOt8vWmF_3syn3gen9visit_mut20visit_type_macro_mutNtNtCsdE2kXyKmOF1_11async_trait8lifetime16CollectLifetimesEB12_, symObjAddr: 0x1DD30, symBinAddr: 0x1E980, symSize: 0x3C }
  - { offset: 0x11E92, size: 0x8, addend: 0x0, symName: __RINvNtNtCs6IAuOt8vWmF_3syn3gen9visit_mut20visit_type_macro_mutNtNtCsdE2kXyKmOF1_11async_trait8lifetime22AddLifetimeToImplTraitEB12_, symObjAddr: 0x1DD6C, symBinAddr: 0x1E9BC, symSize: 0x3C }
  - { offset: 0x11ED4, size: 0x8, addend: 0x0, symName: __RINvNtNtCs6IAuOt8vWmF_3syn3gen9visit_mut20visit_type_macro_mutNtNtCsdE2kXyKmOF1_11async_trait8receiver11ReplaceSelfEB12_, symObjAddr: 0x1DDA8, symBinAddr: 0x1E9F8, symSize: 0x3C }
  - { offset: 0x11F16, size: 0x8, addend: 0x0, symName: __RINvNtNtCs6IAuOt8vWmF_3syn3gen9visit_mut20visit_type_macro_mutNtNtCsdE2kXyKmOF1_11async_trait8receiver7HasSelfEB12_, symObjAddr: 0x1DDE4, symBinAddr: 0x1EA34, symSize: 0x3C }
  - { offset: 0x11F58, size: 0x8, addend: 0x0, symName: __RINvNtNtCs6IAuOt8vWmF_3syn3gen9visit_mut20visit_type_macro_mutNtNtCsdE2kXyKmOF1_11async_trait8receiver9HasMutPatEB12_, symObjAddr: 0x1DE20, symBinAddr: 0x1EA70, symSize: 0x3C }
  - { offset: 0x11F9A, size: 0x8, addend: 0x0, symName: __RINvNtNtCs6IAuOt8vWmF_3syn3gen9visit_mut20visit_type_macro_mutNtNvNtCsdE2kXyKmOF1_11async_trait6expand29replace_impl_trait_with_infer25ReplaceImplTraitWithInferEB14_, symObjAddr: 0x1DE5C, symBinAddr: 0x1EAAC, symSize: 0x3C }
  - { offset: 0x11FDC, size: 0x8, addend: 0x0, symName: __RINvNtNtCs6IAuOt8vWmF_3syn3gen9visit_mut20visit_type_macro_mutNtNvNtCsdE2kXyKmOF1_11async_trait6expand35contains_associated_type_impl_trait24AssociatedTypeImplTraitsEB14_, symObjAddr: 0x1DE98, symBinAddr: 0x1EAE8, symSize: 0x3C }
  - { offset: 0x1201E, size: 0x8, addend: 0x0, symName: __RINvNtNtCs6IAuOt8vWmF_3syn3gen9visit_mut20visit_type_never_mutNtNtCsdE2kXyKmOF1_11async_trait8lifetime16CollectLifetimesEB12_, symObjAddr: 0x1DED4, symBinAddr: 0x1EB24, symSize: 0x24 }
  - { offset: 0x12060, size: 0x8, addend: 0x0, symName: __RINvNtNtCs6IAuOt8vWmF_3syn3gen9visit_mut20visit_type_never_mutNtNtCsdE2kXyKmOF1_11async_trait8lifetime22AddLifetimeToImplTraitEB12_, symObjAddr: 0x1DEF8, symBinAddr: 0x1EB48, symSize: 0x24 }
  - { offset: 0x120A2, size: 0x8, addend: 0x0, symName: __RINvNtNtCs6IAuOt8vWmF_3syn3gen9visit_mut20visit_type_never_mutNtNtCsdE2kXyKmOF1_11async_trait8receiver11ReplaceSelfEB12_, symObjAddr: 0x1DF1C, symBinAddr: 0x1EB6C, symSize: 0x24 }
  - { offset: 0x120E4, size: 0x8, addend: 0x0, symName: __RINvNtNtCs6IAuOt8vWmF_3syn3gen9visit_mut20visit_type_never_mutNtNtCsdE2kXyKmOF1_11async_trait8receiver7HasSelfEB12_, symObjAddr: 0x1DF40, symBinAddr: 0x1EB90, symSize: 0x24 }
  - { offset: 0x12126, size: 0x8, addend: 0x0, symName: __RINvNtNtCs6IAuOt8vWmF_3syn3gen9visit_mut20visit_type_never_mutNtNtCsdE2kXyKmOF1_11async_trait8receiver9HasMutPatEB12_, symObjAddr: 0x1DF64, symBinAddr: 0x1EBB4, symSize: 0x24 }
  - { offset: 0x12168, size: 0x8, addend: 0x0, symName: __RINvNtNtCs6IAuOt8vWmF_3syn3gen9visit_mut20visit_type_never_mutNtNvNtCsdE2kXyKmOF1_11async_trait6expand29replace_impl_trait_with_infer25ReplaceImplTraitWithInferEB14_, symObjAddr: 0x1DF88, symBinAddr: 0x1EBD8, symSize: 0x24 }
  - { offset: 0x121AA, size: 0x8, addend: 0x0, symName: __RINvNtNtCs6IAuOt8vWmF_3syn3gen9visit_mut20visit_type_never_mutNtNvNtCsdE2kXyKmOF1_11async_trait6expand35contains_associated_type_impl_trait24AssociatedTypeImplTraitsEB14_, symObjAddr: 0x1DFAC, symBinAddr: 0x1EBFC, symSize: 0x24 }
  - { offset: 0x121EC, size: 0x8, addend: 0x0, symName: __RINvNtNtCs6IAuOt8vWmF_3syn3gen9visit_mut20visit_type_param_mutNtNtCsdE2kXyKmOF1_11async_trait8lifetime16CollectLifetimesEB12_, symObjAddr: 0x1DFD0, symBinAddr: 0x1EC20, symSize: 0x134 }
  - { offset: 0x12297, size: 0x8, addend: 0x0, symName: __RINvNtNtCs6IAuOt8vWmF_3syn3gen9visit_mut20visit_type_param_mutNtNtCsdE2kXyKmOF1_11async_trait8lifetime22AddLifetimeToImplTraitEB12_, symObjAddr: 0x1E104, symBinAddr: 0x1ED54, symSize: 0x134 }
  - { offset: 0x12342, size: 0x8, addend: 0x0, symName: __RINvNtNtCs6IAuOt8vWmF_3syn3gen9visit_mut20visit_type_param_mutNtNtCsdE2kXyKmOF1_11async_trait8receiver11ReplaceSelfEB12_, symObjAddr: 0x1E238, symBinAddr: 0x1EE88, symSize: 0x134 }
  - { offset: 0x123ED, size: 0x8, addend: 0x0, symName: __RINvNtNtCs6IAuOt8vWmF_3syn3gen9visit_mut20visit_type_param_mutNtNtCsdE2kXyKmOF1_11async_trait8receiver7HasSelfEB12_, symObjAddr: 0x1E36C, symBinAddr: 0x1EFBC, symSize: 0x134 }
  - { offset: 0x12498, size: 0x8, addend: 0x0, symName: __RINvNtNtCs6IAuOt8vWmF_3syn3gen9visit_mut20visit_type_param_mutNtNtCsdE2kXyKmOF1_11async_trait8receiver9HasMutPatEB12_, symObjAddr: 0x1E4A0, symBinAddr: 0x1F0F0, symSize: 0x134 }
  - { offset: 0x12543, size: 0x8, addend: 0x0, symName: __RINvNtNtCs6IAuOt8vWmF_3syn3gen9visit_mut20visit_type_param_mutNtNvNtCsdE2kXyKmOF1_11async_trait6expand29replace_impl_trait_with_infer25ReplaceImplTraitWithInferEB14_, symObjAddr: 0x1E5D4, symBinAddr: 0x1F224, symSize: 0x134 }
  - { offset: 0x125EE, size: 0x8, addend: 0x0, symName: __RINvNtNtCs6IAuOt8vWmF_3syn3gen9visit_mut20visit_type_param_mutNtNvNtCsdE2kXyKmOF1_11async_trait6expand35contains_associated_type_impl_trait24AssociatedTypeImplTraitsEB14_, symObjAddr: 0x1E708, symBinAddr: 0x1F358, symSize: 0x134 }
  - { offset: 0x12699, size: 0x8, addend: 0x0, symName: __RINvNtNtCs6IAuOt8vWmF_3syn3gen9visit_mut20visit_type_paren_mutNtNtCsdE2kXyKmOF1_11async_trait8lifetime16CollectLifetimesEB12_, symObjAddr: 0x1E83C, symBinAddr: 0x1F48C, symSize: 0x68 }
  - { offset: 0x126DB, size: 0x8, addend: 0x0, symName: __RINvNtNtCs6IAuOt8vWmF_3syn3gen9visit_mut20visit_type_paren_mutNtNtCsdE2kXyKmOF1_11async_trait8lifetime22AddLifetimeToImplTraitEB12_, symObjAddr: 0x1E8A4, symBinAddr: 0x1F4F4, symSize: 0x68 }
  - { offset: 0x1271D, size: 0x8, addend: 0x0, symName: __RINvNtNtCs6IAuOt8vWmF_3syn3gen9visit_mut20visit_type_paren_mutNtNtCsdE2kXyKmOF1_11async_trait8receiver11ReplaceSelfEB12_, symObjAddr: 0x1E90C, symBinAddr: 0x1F55C, symSize: 0x68 }
  - { offset: 0x1275F, size: 0x8, addend: 0x0, symName: __RINvNtNtCs6IAuOt8vWmF_3syn3gen9visit_mut20visit_type_paren_mutNtNtCsdE2kXyKmOF1_11async_trait8receiver7HasSelfEB12_, symObjAddr: 0x1E974, symBinAddr: 0x1F5C4, symSize: 0x68 }
  - { offset: 0x127A1, size: 0x8, addend: 0x0, symName: __RINvNtNtCs6IAuOt8vWmF_3syn3gen9visit_mut20visit_type_paren_mutNtNtCsdE2kXyKmOF1_11async_trait8receiver9HasMutPatEB12_, symObjAddr: 0x1E9DC, symBinAddr: 0x1F62C, symSize: 0x68 }
  - { offset: 0x127E3, size: 0x8, addend: 0x0, symName: __RINvNtNtCs6IAuOt8vWmF_3syn3gen9visit_mut20visit_type_paren_mutNtNvNtCsdE2kXyKmOF1_11async_trait6expand29replace_impl_trait_with_infer25ReplaceImplTraitWithInferEB14_, symObjAddr: 0x1EA44, symBinAddr: 0x1F694, symSize: 0x68 }
  - { offset: 0x12825, size: 0x8, addend: 0x0, symName: __RINvNtNtCs6IAuOt8vWmF_3syn3gen9visit_mut20visit_type_paren_mutNtNvNtCsdE2kXyKmOF1_11async_trait6expand35contains_associated_type_impl_trait24AssociatedTypeImplTraitsEB14_, symObjAddr: 0x1EAAC, symBinAddr: 0x1F6FC, symSize: 0x68 }
  - { offset: 0x12867, size: 0x8, addend: 0x0, symName: __RINvNtNtCs6IAuOt8vWmF_3syn3gen9visit_mut20visit_type_slice_mutNtNtCsdE2kXyKmOF1_11async_trait8lifetime16CollectLifetimesEB12_, symObjAddr: 0x1EB14, symBinAddr: 0x1F764, symSize: 0x68 }
  - { offset: 0x128A9, size: 0x8, addend: 0x0, symName: __RINvNtNtCs6IAuOt8vWmF_3syn3gen9visit_mut20visit_type_slice_mutNtNtCsdE2kXyKmOF1_11async_trait8lifetime22AddLifetimeToImplTraitEB12_, symObjAddr: 0x1EB7C, symBinAddr: 0x1F7CC, symSize: 0x68 }
  - { offset: 0x128EB, size: 0x8, addend: 0x0, symName: __RINvNtNtCs6IAuOt8vWmF_3syn3gen9visit_mut20visit_type_slice_mutNtNtCsdE2kXyKmOF1_11async_trait8receiver11ReplaceSelfEB12_, symObjAddr: 0x1EBE4, symBinAddr: 0x1F834, symSize: 0x68 }
  - { offset: 0x1292D, size: 0x8, addend: 0x0, symName: __RINvNtNtCs6IAuOt8vWmF_3syn3gen9visit_mut20visit_type_slice_mutNtNtCsdE2kXyKmOF1_11async_trait8receiver7HasSelfEB12_, symObjAddr: 0x1EC4C, symBinAddr: 0x1F89C, symSize: 0x68 }
  - { offset: 0x1296F, size: 0x8, addend: 0x0, symName: __RINvNtNtCs6IAuOt8vWmF_3syn3gen9visit_mut20visit_type_slice_mutNtNtCsdE2kXyKmOF1_11async_trait8receiver9HasMutPatEB12_, symObjAddr: 0x1ECB4, symBinAddr: 0x1F904, symSize: 0x68 }
  - { offset: 0x129B1, size: 0x8, addend: 0x0, symName: __RINvNtNtCs6IAuOt8vWmF_3syn3gen9visit_mut20visit_type_slice_mutNtNvNtCsdE2kXyKmOF1_11async_trait6expand29replace_impl_trait_with_infer25ReplaceImplTraitWithInferEB14_, symObjAddr: 0x1ED1C, symBinAddr: 0x1F96C, symSize: 0x68 }
  - { offset: 0x129F3, size: 0x8, addend: 0x0, symName: __RINvNtNtCs6IAuOt8vWmF_3syn3gen9visit_mut20visit_type_slice_mutNtNvNtCsdE2kXyKmOF1_11async_trait6expand35contains_associated_type_impl_trait24AssociatedTypeImplTraitsEB14_, symObjAddr: 0x1ED84, symBinAddr: 0x1F9D4, symSize: 0x68 }
  - { offset: 0x12A35, size: 0x8, addend: 0x0, symName: __RINvNtNtCs6IAuOt8vWmF_3syn3gen9visit_mut20visit_type_tuple_mutNtNtCsdE2kXyKmOF1_11async_trait8lifetime16CollectLifetimesEB12_, symObjAddr: 0x1EDEC, symBinAddr: 0x1FA3C, symSize: 0xC8 }
  - { offset: 0x12ACA, size: 0x8, addend: 0x0, symName: __RINvNtNtCs6IAuOt8vWmF_3syn3gen9visit_mut20visit_type_tuple_mutNtNtCsdE2kXyKmOF1_11async_trait8lifetime22AddLifetimeToImplTraitEB12_, symObjAddr: 0x1EEB4, symBinAddr: 0x1FB04, symSize: 0xC8 }
  - { offset: 0x12B5F, size: 0x8, addend: 0x0, symName: __RINvNtNtCs6IAuOt8vWmF_3syn3gen9visit_mut20visit_type_tuple_mutNtNtCsdE2kXyKmOF1_11async_trait8receiver11ReplaceSelfEB12_, symObjAddr: 0x1EF7C, symBinAddr: 0x1FBCC, symSize: 0xC8 }
  - { offset: 0x12BF4, size: 0x8, addend: 0x0, symName: __RINvNtNtCs6IAuOt8vWmF_3syn3gen9visit_mut20visit_type_tuple_mutNtNtCsdE2kXyKmOF1_11async_trait8receiver7HasSelfEB12_, symObjAddr: 0x1F044, symBinAddr: 0x1FC94, symSize: 0xC8 }
  - { offset: 0x12C89, size: 0x8, addend: 0x0, symName: __RINvNtNtCs6IAuOt8vWmF_3syn3gen9visit_mut20visit_type_tuple_mutNtNtCsdE2kXyKmOF1_11async_trait8receiver9HasMutPatEB12_, symObjAddr: 0x1F10C, symBinAddr: 0x1FD5C, symSize: 0xC8 }
  - { offset: 0x12D1E, size: 0x8, addend: 0x0, symName: __RINvNtNtCs6IAuOt8vWmF_3syn3gen9visit_mut20visit_type_tuple_mutNtNvNtCsdE2kXyKmOF1_11async_trait6expand29replace_impl_trait_with_infer25ReplaceImplTraitWithInferEB14_, symObjAddr: 0x1F1D4, symBinAddr: 0x1FE24, symSize: 0xC8 }
  - { offset: 0x12DB3, size: 0x8, addend: 0x0, symName: __RINvNtNtCs6IAuOt8vWmF_3syn3gen9visit_mut20visit_type_tuple_mutNtNvNtCsdE2kXyKmOF1_11async_trait6expand35contains_associated_type_impl_trait24AssociatedTypeImplTraitsEB14_, symObjAddr: 0x1F29C, symBinAddr: 0x1FEEC, symSize: 0xC8 }
  - { offset: 0x12E48, size: 0x8, addend: 0x0, symName: __RINvNtNtCs6IAuOt8vWmF_3syn3gen9visit_mut20visit_use_rename_mutNtNtCsdE2kXyKmOF1_11async_trait8lifetime16CollectLifetimesEB12_, symObjAddr: 0x1F364, symBinAddr: 0x1FFB4, symSize: 0x50 }
  - { offset: 0x12E8A, size: 0x8, addend: 0x0, symName: __RINvNtNtCs6IAuOt8vWmF_3syn3gen9visit_mut20visit_use_rename_mutNtNtCsdE2kXyKmOF1_11async_trait8receiver9HasMutPatEB12_, symObjAddr: 0x1F3B4, symBinAddr: 0x20004, symSize: 0x50 }
  - { offset: 0x12ECC, size: 0x8, addend: 0x0, symName: __RINvNtNtCs6IAuOt8vWmF_3syn3gen9visit_mut20visit_use_rename_mutNtNvNtCsdE2kXyKmOF1_11async_trait6expand29replace_impl_trait_with_infer25ReplaceImplTraitWithInferEB14_, symObjAddr: 0x1F404, symBinAddr: 0x20054, symSize: 0x50 }
  - { offset: 0x12F0E, size: 0x8, addend: 0x0, symName: __RINvNtNtCs6IAuOt8vWmF_3syn3gen9visit_mut20visit_use_rename_mutNtNvNtCsdE2kXyKmOF1_11async_trait6expand35contains_associated_type_impl_trait24AssociatedTypeImplTraitsEB14_, symObjAddr: 0x1F454, symBinAddr: 0x200A4, symSize: 0x50 }
  - { offset: 0x12F50, size: 0x8, addend: 0x0, symName: __RINvNtNtCs6IAuOt8vWmF_3syn3gen9visit_mut20visit_visibility_mutNtNtCsdE2kXyKmOF1_11async_trait8lifetime16CollectLifetimesEB12_, symObjAddr: 0x1F4A4, symBinAddr: 0x200F4, symSize: 0xC4 }
  - { offset: 0x12FB0, size: 0x8, addend: 0x0, symName: __RINvNtNtCs6IAuOt8vWmF_3syn3gen9visit_mut20visit_visibility_mutNtNtCsdE2kXyKmOF1_11async_trait8receiver9HasMutPatEB12_, symObjAddr: 0x1F568, symBinAddr: 0x201B8, symSize: 0xC4 }
  - { offset: 0x13010, size: 0x8, addend: 0x0, symName: __RINvNtNtCs6IAuOt8vWmF_3syn3gen9visit_mut20visit_visibility_mutNtNvNtCsdE2kXyKmOF1_11async_trait6expand29replace_impl_trait_with_infer25ReplaceImplTraitWithInferEB14_, symObjAddr: 0x1F62C, symBinAddr: 0x2027C, symSize: 0xC4 }
  - { offset: 0x13070, size: 0x8, addend: 0x0, symName: __RINvNtNtCs6IAuOt8vWmF_3syn3gen9visit_mut20visit_visibility_mutNtNvNtCsdE2kXyKmOF1_11async_trait6expand35contains_associated_type_impl_trait24AssociatedTypeImplTraitsEB14_, symObjAddr: 0x1F6F0, symBinAddr: 0x20340, symSize: 0xC4 }
  - { offset: 0x130D0, size: 0x8, addend: 0x0, symName: __RINvNtNtCs6IAuOt8vWmF_3syn3gen9visit_mut21visit_assoc_const_mutNtNtCsdE2kXyKmOF1_11async_trait8lifetime16CollectLifetimesEB13_, symObjAddr: 0x1F7B4, symBinAddr: 0x20404, symSize: 0xA8 }
  - { offset: 0x13130, size: 0x8, addend: 0x0, symName: __RINvNtNtCs6IAuOt8vWmF_3syn3gen9visit_mut21visit_assoc_const_mutNtNtCsdE2kXyKmOF1_11async_trait8lifetime22AddLifetimeToImplTraitEB13_, symObjAddr: 0x1F85C, symBinAddr: 0x204AC, symSize: 0xA8 }
  - { offset: 0x13190, size: 0x8, addend: 0x0, symName: __RINvNtNtCs6IAuOt8vWmF_3syn3gen9visit_mut21visit_assoc_const_mutNtNtCsdE2kXyKmOF1_11async_trait8receiver11ReplaceSelfEB13_, symObjAddr: 0x1F904, symBinAddr: 0x20554, symSize: 0xA8 }
  - { offset: 0x131F0, size: 0x8, addend: 0x0, symName: __RINvNtNtCs6IAuOt8vWmF_3syn3gen9visit_mut21visit_assoc_const_mutNtNtCsdE2kXyKmOF1_11async_trait8receiver7HasSelfEB13_, symObjAddr: 0x1F9AC, symBinAddr: 0x205FC, symSize: 0xA8 }
  - { offset: 0x13250, size: 0x8, addend: 0x0, symName: __RINvNtNtCs6IAuOt8vWmF_3syn3gen9visit_mut21visit_assoc_const_mutNtNtCsdE2kXyKmOF1_11async_trait8receiver9HasMutPatEB13_, symObjAddr: 0x1FA54, symBinAddr: 0x206A4, symSize: 0xA8 }
  - { offset: 0x132B0, size: 0x8, addend: 0x0, symName: __RINvNtNtCs6IAuOt8vWmF_3syn3gen9visit_mut21visit_assoc_const_mutNtNvNtCsdE2kXyKmOF1_11async_trait6expand29replace_impl_trait_with_infer25ReplaceImplTraitWithInferEB15_, symObjAddr: 0x1FAFC, symBinAddr: 0x2074C, symSize: 0xA8 }
  - { offset: 0x13310, size: 0x8, addend: 0x0, symName: __RINvNtNtCs6IAuOt8vWmF_3syn3gen9visit_mut21visit_assoc_const_mutNtNvNtCsdE2kXyKmOF1_11async_trait6expand35contains_associated_type_impl_trait24AssociatedTypeImplTraitsEB15_, symObjAddr: 0x1FBA4, symBinAddr: 0x207F4, symSize: 0xA8 }
  - { offset: 0x13370, size: 0x8, addend: 0x0, symName: __RINvNtNtCs6IAuOt8vWmF_3syn3gen9visit_mut21visit_bare_fn_arg_mutNtNtCsdE2kXyKmOF1_11async_trait8lifetime16CollectLifetimesEB13_, symObjAddr: 0x1FC4C, symBinAddr: 0x2089C, symSize: 0xA4 }
  - { offset: 0x133D0, size: 0x8, addend: 0x0, symName: __RINvNtNtCs6IAuOt8vWmF_3syn3gen9visit_mut21visit_bare_fn_arg_mutNtNtCsdE2kXyKmOF1_11async_trait8lifetime22AddLifetimeToImplTraitEB13_, symObjAddr: 0x1FCF0, symBinAddr: 0x20940, symSize: 0xA4 }
  - { offset: 0x13430, size: 0x8, addend: 0x0, symName: __RINvNtNtCs6IAuOt8vWmF_3syn3gen9visit_mut21visit_bare_fn_arg_mutNtNtCsdE2kXyKmOF1_11async_trait8receiver11ReplaceSelfEB13_, symObjAddr: 0x1FD94, symBinAddr: 0x209E4, symSize: 0xA4 }
  - { offset: 0x13490, size: 0x8, addend: 0x0, symName: __RINvNtNtCs6IAuOt8vWmF_3syn3gen9visit_mut21visit_bare_fn_arg_mutNtNtCsdE2kXyKmOF1_11async_trait8receiver7HasSelfEB13_, symObjAddr: 0x1FE38, symBinAddr: 0x20A88, symSize: 0xA4 }
  - { offset: 0x134F0, size: 0x8, addend: 0x0, symName: __RINvNtNtCs6IAuOt8vWmF_3syn3gen9visit_mut21visit_bare_fn_arg_mutNtNtCsdE2kXyKmOF1_11async_trait8receiver9HasMutPatEB13_, symObjAddr: 0x1FEDC, symBinAddr: 0x20B2C, symSize: 0xA4 }
  - { offset: 0x13550, size: 0x8, addend: 0x0, symName: __RINvNtNtCs6IAuOt8vWmF_3syn3gen9visit_mut21visit_bare_fn_arg_mutNtNvNtCsdE2kXyKmOF1_11async_trait6expand29replace_impl_trait_with_infer25ReplaceImplTraitWithInferEB15_, symObjAddr: 0x1FF80, symBinAddr: 0x20BD0, symSize: 0xA4 }
  - { offset: 0x135B0, size: 0x8, addend: 0x0, symName: __RINvNtNtCs6IAuOt8vWmF_3syn3gen9visit_mut21visit_bare_fn_arg_mutNtNvNtCsdE2kXyKmOF1_11async_trait6expand35contains_associated_type_impl_trait24AssociatedTypeImplTraitsEB15_, symObjAddr: 0x20024, symBinAddr: 0x20C74, symSize: 0xA4 }
  - { offset: 0x13610, size: 0x8, addend: 0x0, symName: __RINvNtNtCs6IAuOt8vWmF_3syn3gen9visit_mut21visit_const_param_mutNtNtCsdE2kXyKmOF1_11async_trait8lifetime16CollectLifetimesEB13_, symObjAddr: 0x200C8, symBinAddr: 0x20D18, symSize: 0xB4 }
  - { offset: 0x13670, size: 0x8, addend: 0x0, symName: __RINvNtNtCs6IAuOt8vWmF_3syn3gen9visit_mut21visit_const_param_mutNtNtCsdE2kXyKmOF1_11async_trait8lifetime22AddLifetimeToImplTraitEB13_, symObjAddr: 0x2017C, symBinAddr: 0x20DCC, symSize: 0xB4 }
  - { offset: 0x136D0, size: 0x8, addend: 0x0, symName: __RINvNtNtCs6IAuOt8vWmF_3syn3gen9visit_mut21visit_const_param_mutNtNtCsdE2kXyKmOF1_11async_trait8receiver11ReplaceSelfEB13_, symObjAddr: 0x20230, symBinAddr: 0x20E80, symSize: 0xB4 }
  - { offset: 0x13730, size: 0x8, addend: 0x0, symName: __RINvNtNtCs6IAuOt8vWmF_3syn3gen9visit_mut21visit_const_param_mutNtNtCsdE2kXyKmOF1_11async_trait8receiver7HasSelfEB13_, symObjAddr: 0x202E4, symBinAddr: 0x20F34, symSize: 0xB4 }
  - { offset: 0x13790, size: 0x8, addend: 0x0, symName: __RINvNtNtCs6IAuOt8vWmF_3syn3gen9visit_mut21visit_const_param_mutNtNtCsdE2kXyKmOF1_11async_trait8receiver9HasMutPatEB13_, symObjAddr: 0x20398, symBinAddr: 0x20FE8, symSize: 0xB4 }
  - { offset: 0x137F0, size: 0x8, addend: 0x0, symName: __RINvNtNtCs6IAuOt8vWmF_3syn3gen9visit_mut21visit_const_param_mutNtNvNtCsdE2kXyKmOF1_11async_trait6expand29replace_impl_trait_with_infer25ReplaceImplTraitWithInferEB15_, symObjAddr: 0x2044C, symBinAddr: 0x2109C, symSize: 0xB4 }
  - { offset: 0x13850, size: 0x8, addend: 0x0, symName: __RINvNtNtCs6IAuOt8vWmF_3syn3gen9visit_mut21visit_const_param_mutNtNvNtCsdE2kXyKmOF1_11async_trait6expand35contains_associated_type_impl_trait24AssociatedTypeImplTraitsEB15_, symObjAddr: 0x20500, symBinAddr: 0x21150, symSize: 0xB4 }
  - { offset: 0x138B0, size: 0x8, addend: 0x0, symName: __RINvNtNtCs6IAuOt8vWmF_3syn3gen9visit_mut21visit_expr_assign_mutNtNtCsdE2kXyKmOF1_11async_trait8lifetime16CollectLifetimesEB13_, symObjAddr: 0x205B4, symBinAddr: 0x21204, symSize: 0xAC }
  - { offset: 0x138F2, size: 0x8, addend: 0x0, symName: __RINvNtNtCs6IAuOt8vWmF_3syn3gen9visit_mut21visit_expr_assign_mutNtNtCsdE2kXyKmOF1_11async_trait8receiver11ReplaceSelfEB13_, symObjAddr: 0x20660, symBinAddr: 0x212B0, symSize: 0xAC }
  - { offset: 0x13934, size: 0x8, addend: 0x0, symName: __RINvNtNtCs6IAuOt8vWmF_3syn3gen9visit_mut21visit_expr_assign_mutNtNtCsdE2kXyKmOF1_11async_trait8receiver7HasSelfEB13_, symObjAddr: 0x2070C, symBinAddr: 0x2135C, symSize: 0xAC }
  - { offset: 0x13976, size: 0x8, addend: 0x0, symName: __RINvNtNtCs6IAuOt8vWmF_3syn3gen9visit_mut21visit_expr_assign_mutNtNtCsdE2kXyKmOF1_11async_trait8receiver9HasMutPatEB13_, symObjAddr: 0x207B8, symBinAddr: 0x21408, symSize: 0xAC }
  - { offset: 0x139B8, size: 0x8, addend: 0x0, symName: __RINvNtNtCs6IAuOt8vWmF_3syn3gen9visit_mut21visit_expr_assign_mutNtNvNtCsdE2kXyKmOF1_11async_trait6expand29replace_impl_trait_with_infer25ReplaceImplTraitWithInferEB15_, symObjAddr: 0x20864, symBinAddr: 0x214B4, symSize: 0xAC }
  - { offset: 0x139FA, size: 0x8, addend: 0x0, symName: __RINvNtNtCs6IAuOt8vWmF_3syn3gen9visit_mut21visit_expr_assign_mutNtNvNtCsdE2kXyKmOF1_11async_trait6expand35contains_associated_type_impl_trait24AssociatedTypeImplTraitsEB15_, symObjAddr: 0x20910, symBinAddr: 0x21560, symSize: 0xAC }
  - { offset: 0x13A3C, size: 0x8, addend: 0x0, symName: __RINvNtNtCs6IAuOt8vWmF_3syn3gen9visit_mut21visit_expr_binary_mutNtNtCsdE2kXyKmOF1_11async_trait8lifetime16CollectLifetimesEB13_, symObjAddr: 0x209BC, symBinAddr: 0x2160C, symSize: 0xBC }
  - { offset: 0x13A7E, size: 0x8, addend: 0x0, symName: __RINvNtNtCs6IAuOt8vWmF_3syn3gen9visit_mut21visit_expr_binary_mutNtNtCsdE2kXyKmOF1_11async_trait8receiver11ReplaceSelfEB13_, symObjAddr: 0x20A78, symBinAddr: 0x216C8, symSize: 0xBC }
  - { offset: 0x13AC0, size: 0x8, addend: 0x0, symName: __RINvNtNtCs6IAuOt8vWmF_3syn3gen9visit_mut21visit_expr_binary_mutNtNtCsdE2kXyKmOF1_11async_trait8receiver7HasSelfEB13_, symObjAddr: 0x20B34, symBinAddr: 0x21784, symSize: 0xBC }
  - { offset: 0x13B02, size: 0x8, addend: 0x0, symName: __RINvNtNtCs6IAuOt8vWmF_3syn3gen9visit_mut21visit_expr_binary_mutNtNtCsdE2kXyKmOF1_11async_trait8receiver9HasMutPatEB13_, symObjAddr: 0x20BF0, symBinAddr: 0x21840, symSize: 0xBC }
  - { offset: 0x13B44, size: 0x8, addend: 0x0, symName: __RINvNtNtCs6IAuOt8vWmF_3syn3gen9visit_mut21visit_expr_binary_mutNtNvNtCsdE2kXyKmOF1_11async_trait6expand29replace_impl_trait_with_infer25ReplaceImplTraitWithInferEB15_, symObjAddr: 0x20CAC, symBinAddr: 0x218FC, symSize: 0xBC }
  - { offset: 0x13B86, size: 0x8, addend: 0x0, symName: __RINvNtNtCs6IAuOt8vWmF_3syn3gen9visit_mut21visit_expr_binary_mutNtNvNtCsdE2kXyKmOF1_11async_trait6expand35contains_associated_type_impl_trait24AssociatedTypeImplTraitsEB15_, symObjAddr: 0x20D68, symBinAddr: 0x219B8, symSize: 0xBC }
  - { offset: 0x13BC8, size: 0x8, addend: 0x0, symName: __RINvNtNtCs6IAuOt8vWmF_3syn3gen9visit_mut21visit_expr_repeat_mutNtNtCsdE2kXyKmOF1_11async_trait8lifetime16CollectLifetimesEB13_, symObjAddr: 0x20E24, symBinAddr: 0x21A74, symSize: 0xAC }
  - { offset: 0x13C0A, size: 0x8, addend: 0x0, symName: __RINvNtNtCs6IAuOt8vWmF_3syn3gen9visit_mut21visit_expr_repeat_mutNtNtCsdE2kXyKmOF1_11async_trait8receiver11ReplaceSelfEB13_, symObjAddr: 0x20ED0, symBinAddr: 0x21B20, symSize: 0xAC }
  - { offset: 0x13C4C, size: 0x8, addend: 0x0, symName: __RINvNtNtCs6IAuOt8vWmF_3syn3gen9visit_mut21visit_expr_repeat_mutNtNtCsdE2kXyKmOF1_11async_trait8receiver7HasSelfEB13_, symObjAddr: 0x20F7C, symBinAddr: 0x21BCC, symSize: 0xAC }
  - { offset: 0x13C8E, size: 0x8, addend: 0x0, symName: __RINvNtNtCs6IAuOt8vWmF_3syn3gen9visit_mut21visit_expr_repeat_mutNtNtCsdE2kXyKmOF1_11async_trait8receiver9HasMutPatEB13_, symObjAddr: 0x21028, symBinAddr: 0x21C78, symSize: 0xAC }
  - { offset: 0x13CD0, size: 0x8, addend: 0x0, symName: __RINvNtNtCs6IAuOt8vWmF_3syn3gen9visit_mut21visit_expr_repeat_mutNtNvNtCsdE2kXyKmOF1_11async_trait6expand29replace_impl_trait_with_infer25ReplaceImplTraitWithInferEB15_, symObjAddr: 0x210D4, symBinAddr: 0x21D24, symSize: 0xAC }
  - { offset: 0x13D12, size: 0x8, addend: 0x0, symName: __RINvNtNtCs6IAuOt8vWmF_3syn3gen9visit_mut21visit_expr_repeat_mutNtNvNtCsdE2kXyKmOF1_11async_trait6expand35contains_associated_type_impl_trait24AssociatedTypeImplTraitsEB15_, symObjAddr: 0x21180, symBinAddr: 0x21DD0, symSize: 0xAC }
  - { offset: 0x13D54, size: 0x8, addend: 0x0, symName: __RINvNtNtCs6IAuOt8vWmF_3syn3gen9visit_mut21visit_expr_return_mutNtNtCsdE2kXyKmOF1_11async_trait8lifetime16CollectLifetimesEB13_, symObjAddr: 0x2122C, symBinAddr: 0x21E7C, symSize: 0xB8 }
  - { offset: 0x13DAC, size: 0x8, addend: 0x0, symName: __RINvNtNtCs6IAuOt8vWmF_3syn3gen9visit_mut21visit_expr_return_mutNtNtCsdE2kXyKmOF1_11async_trait8receiver11ReplaceSelfEB13_, symObjAddr: 0x212E4, symBinAddr: 0x21F34, symSize: 0xB8 }
  - { offset: 0x13E04, size: 0x8, addend: 0x0, symName: __RINvNtNtCs6IAuOt8vWmF_3syn3gen9visit_mut21visit_expr_return_mutNtNtCsdE2kXyKmOF1_11async_trait8receiver7HasSelfEB13_, symObjAddr: 0x2139C, symBinAddr: 0x21FEC, symSize: 0xB8 }
  - { offset: 0x13E5C, size: 0x8, addend: 0x0, symName: __RINvNtNtCs6IAuOt8vWmF_3syn3gen9visit_mut21visit_expr_return_mutNtNtCsdE2kXyKmOF1_11async_trait8receiver9HasMutPatEB13_, symObjAddr: 0x21454, symBinAddr: 0x220A4, symSize: 0xB8 }
  - { offset: 0x13EB4, size: 0x8, addend: 0x0, symName: __RINvNtNtCs6IAuOt8vWmF_3syn3gen9visit_mut21visit_expr_return_mutNtNvNtCsdE2kXyKmOF1_11async_trait6expand29replace_impl_trait_with_infer25ReplaceImplTraitWithInferEB15_, symObjAddr: 0x2150C, symBinAddr: 0x2215C, symSize: 0xB8 }
  - { offset: 0x13F0C, size: 0x8, addend: 0x0, symName: __RINvNtNtCs6IAuOt8vWmF_3syn3gen9visit_mut21visit_expr_return_mutNtNvNtCsdE2kXyKmOF1_11async_trait6expand35contains_associated_type_impl_trait24AssociatedTypeImplTraitsEB15_, symObjAddr: 0x215C4, symBinAddr: 0x22214, symSize: 0xB8 }
  - { offset: 0x13F64, size: 0x8, addend: 0x0, symName: __RINvNtNtCs6IAuOt8vWmF_3syn3gen9visit_mut21visit_expr_struct_mutNtNtCsdE2kXyKmOF1_11async_trait8lifetime16CollectLifetimesEB13_, symObjAddr: 0x2167C, symBinAddr: 0x222CC, symSize: 0x1B0 }
  - { offset: 0x1402D, size: 0x8, addend: 0x0, symName: __RINvNtNtCs6IAuOt8vWmF_3syn3gen9visit_mut21visit_expr_struct_mutNtNtCsdE2kXyKmOF1_11async_trait8receiver11ReplaceSelfEB13_, symObjAddr: 0x2182C, symBinAddr: 0x2247C, symSize: 0x1B0 }
  - { offset: 0x140F6, size: 0x8, addend: 0x0, symName: __RINvNtNtCs6IAuOt8vWmF_3syn3gen9visit_mut21visit_expr_struct_mutNtNtCsdE2kXyKmOF1_11async_trait8receiver7HasSelfEB13_, symObjAddr: 0x219DC, symBinAddr: 0x2262C, symSize: 0x1B0 }
  - { offset: 0x141BF, size: 0x8, addend: 0x0, symName: __RINvNtNtCs6IAuOt8vWmF_3syn3gen9visit_mut21visit_expr_struct_mutNtNtCsdE2kXyKmOF1_11async_trait8receiver9HasMutPatEB13_, symObjAddr: 0x21B8C, symBinAddr: 0x227DC, symSize: 0x1B0 }
  - { offset: 0x14288, size: 0x8, addend: 0x0, symName: __RINvNtNtCs6IAuOt8vWmF_3syn3gen9visit_mut21visit_expr_struct_mutNtNvNtCsdE2kXyKmOF1_11async_trait6expand29replace_impl_trait_with_infer25ReplaceImplTraitWithInferEB15_, symObjAddr: 0x21D3C, symBinAddr: 0x2298C, symSize: 0x1B0 }
  - { offset: 0x14351, size: 0x8, addend: 0x0, symName: __RINvNtNtCs6IAuOt8vWmF_3syn3gen9visit_mut21visit_expr_struct_mutNtNvNtCsdE2kXyKmOF1_11async_trait6expand35contains_associated_type_impl_trait24AssociatedTypeImplTraitsEB15_, symObjAddr: 0x21EEC, symBinAddr: 0x22B3C, symSize: 0x1B0 }
  - { offset: 0x1441A, size: 0x8, addend: 0x0, symName: __RINvNtNtCs6IAuOt8vWmF_3syn3gen9visit_mut21visit_expr_unsafe_mutNtNtCsdE2kXyKmOF1_11async_trait8lifetime16CollectLifetimesEB13_, symObjAddr: 0x2209C, symBinAddr: 0x22CEC, symSize: 0x50 }
  - { offset: 0x1445C, size: 0x8, addend: 0x0, symName: __RINvNtNtCs6IAuOt8vWmF_3syn3gen9visit_mut21visit_expr_unsafe_mutNtNtCsdE2kXyKmOF1_11async_trait8receiver11ReplaceSelfEB13_, symObjAddr: 0x220EC, symBinAddr: 0x22D3C, symSize: 0x50 }
  - { offset: 0x1449E, size: 0x8, addend: 0x0, symName: __RINvNtNtCs6IAuOt8vWmF_3syn3gen9visit_mut21visit_expr_unsafe_mutNtNtCsdE2kXyKmOF1_11async_trait8receiver7HasSelfEB13_, symObjAddr: 0x2213C, symBinAddr: 0x22D8C, symSize: 0x50 }
  - { offset: 0x144E0, size: 0x8, addend: 0x0, symName: __RINvNtNtCs6IAuOt8vWmF_3syn3gen9visit_mut21visit_expr_unsafe_mutNtNtCsdE2kXyKmOF1_11async_trait8receiver9HasMutPatEB13_, symObjAddr: 0x2218C, symBinAddr: 0x22DDC, symSize: 0x50 }
  - { offset: 0x14522, size: 0x8, addend: 0x0, symName: __RINvNtNtCs6IAuOt8vWmF_3syn3gen9visit_mut21visit_expr_unsafe_mutNtNvNtCsdE2kXyKmOF1_11async_trait6expand29replace_impl_trait_with_infer25ReplaceImplTraitWithInferEB15_, symObjAddr: 0x221DC, symBinAddr: 0x22E2C, symSize: 0x50 }
  - { offset: 0x14564, size: 0x8, addend: 0x0, symName: __RINvNtNtCs6IAuOt8vWmF_3syn3gen9visit_mut21visit_expr_unsafe_mutNtNvNtCsdE2kXyKmOF1_11async_trait6expand35contains_associated_type_impl_trait24AssociatedTypeImplTraitsEB15_, symObjAddr: 0x2222C, symBinAddr: 0x22E7C, symSize: 0x50 }
  - { offset: 0x145A6, size: 0x8, addend: 0x0, symName: __RINvNtNtCs6IAuOt8vWmF_3syn3gen9visit_mut21visit_field_value_mutNtNtCsdE2kXyKmOF1_11async_trait8lifetime16CollectLifetimesEB13_, symObjAddr: 0x2227C, symBinAddr: 0x22ECC, symSize: 0x60 }
  - { offset: 0x145E8, size: 0x8, addend: 0x0, symName: __RINvNtNtCs6IAuOt8vWmF_3syn3gen9visit_mut21visit_field_value_mutNtNtCsdE2kXyKmOF1_11async_trait8receiver11ReplaceSelfEB13_, symObjAddr: 0x222DC, symBinAddr: 0x22F2C, symSize: 0x60 }
  - { offset: 0x1462A, size: 0x8, addend: 0x0, symName: __RINvNtNtCs6IAuOt8vWmF_3syn3gen9visit_mut21visit_field_value_mutNtNtCsdE2kXyKmOF1_11async_trait8receiver7HasSelfEB13_, symObjAddr: 0x2233C, symBinAddr: 0x22F8C, symSize: 0x60 }
  - { offset: 0x1466C, size: 0x8, addend: 0x0, symName: __RINvNtNtCs6IAuOt8vWmF_3syn3gen9visit_mut21visit_field_value_mutNtNtCsdE2kXyKmOF1_11async_trait8receiver9HasMutPatEB13_, symObjAddr: 0x2239C, symBinAddr: 0x22FEC, symSize: 0x60 }
  - { offset: 0x146AE, size: 0x8, addend: 0x0, symName: __RINvNtNtCs6IAuOt8vWmF_3syn3gen9visit_mut21visit_field_value_mutNtNvNtCsdE2kXyKmOF1_11async_trait6expand29replace_impl_trait_with_infer25ReplaceImplTraitWithInferEB15_, symObjAddr: 0x223FC, symBinAddr: 0x2304C, symSize: 0x60 }
  - { offset: 0x146F0, size: 0x8, addend: 0x0, symName: __RINvNtNtCs6IAuOt8vWmF_3syn3gen9visit_mut21visit_field_value_mutNtNvNtCsdE2kXyKmOF1_11async_trait6expand35contains_associated_type_impl_trait24AssociatedTypeImplTraitsEB15_, symObjAddr: 0x2245C, symBinAddr: 0x230AC, symSize: 0x60 }
  - { offset: 0x14732, size: 0x8, addend: 0x0, symName: __RINvNtNtCs6IAuOt8vWmF_3syn3gen9visit_mut21visit_item_static_mutNtNtCsdE2kXyKmOF1_11async_trait8lifetime16CollectLifetimesEB13_, symObjAddr: 0x224BC, symBinAddr: 0x2310C, symSize: 0xDC }
  - { offset: 0x14774, size: 0x8, addend: 0x0, symName: __RINvNtNtCs6IAuOt8vWmF_3syn3gen9visit_mut21visit_item_static_mutNtNtCsdE2kXyKmOF1_11async_trait8receiver9HasMutPatEB13_, symObjAddr: 0x22598, symBinAddr: 0x231E8, symSize: 0xDC }
  - { offset: 0x147B6, size: 0x8, addend: 0x0, symName: __RINvNtNtCs6IAuOt8vWmF_3syn3gen9visit_mut21visit_item_static_mutNtNvNtCsdE2kXyKmOF1_11async_trait6expand29replace_impl_trait_with_infer25ReplaceImplTraitWithInferEB15_, symObjAddr: 0x22674, symBinAddr: 0x232C4, symSize: 0xDC }
  - { offset: 0x147F8, size: 0x8, addend: 0x0, symName: __RINvNtNtCs6IAuOt8vWmF_3syn3gen9visit_mut21visit_item_static_mutNtNvNtCsdE2kXyKmOF1_11async_trait6expand35contains_associated_type_impl_trait24AssociatedTypeImplTraitsEB15_, symObjAddr: 0x22750, symBinAddr: 0x233A0, symSize: 0xDC }
  - { offset: 0x1483A, size: 0x8, addend: 0x0, symName: __RINvNtNtCs6IAuOt8vWmF_3syn3gen9visit_mut21visit_item_struct_mutNtNtCsdE2kXyKmOF1_11async_trait8lifetime16CollectLifetimesEB13_, symObjAddr: 0x2282C, symBinAddr: 0x2347C, symSize: 0x80 }
  - { offset: 0x1487C, size: 0x8, addend: 0x0, symName: __RINvNtNtCs6IAuOt8vWmF_3syn3gen9visit_mut21visit_item_struct_mutNtNtCsdE2kXyKmOF1_11async_trait8receiver9HasMutPatEB13_, symObjAddr: 0x228AC, symBinAddr: 0x234FC, symSize: 0x80 }
  - { offset: 0x148BE, size: 0x8, addend: 0x0, symName: __RINvNtNtCs6IAuOt8vWmF_3syn3gen9visit_mut21visit_item_struct_mutNtNvNtCsdE2kXyKmOF1_11async_trait6expand29replace_impl_trait_with_infer25ReplaceImplTraitWithInferEB15_, symObjAddr: 0x2292C, symBinAddr: 0x2357C, symSize: 0x80 }
  - { offset: 0x14900, size: 0x8, addend: 0x0, symName: __RINvNtNtCs6IAuOt8vWmF_3syn3gen9visit_mut21visit_item_struct_mutNtNvNtCsdE2kXyKmOF1_11async_trait6expand35contains_associated_type_impl_trait24AssociatedTypeImplTraitsEB15_, symObjAddr: 0x229AC, symBinAddr: 0x235FC, symSize: 0x80 }
  - { offset: 0x14942, size: 0x8, addend: 0x0, symName: __RINvNtNtCs6IAuOt8vWmF_3syn3gen9visit_mut21visit_return_type_mutNtNtCsdE2kXyKmOF1_11async_trait8lifetime16CollectLifetimesEB13_, symObjAddr: 0x22A2C, symBinAddr: 0x2367C, symSize: 0xB0 }
  - { offset: 0x149AA, size: 0x8, addend: 0x0, symName: __RINvNtNtCs6IAuOt8vWmF_3syn3gen9visit_mut21visit_return_type_mutNtNtCsdE2kXyKmOF1_11async_trait8lifetime22AddLifetimeToImplTraitEB13_, symObjAddr: 0x22ADC, symBinAddr: 0x2372C, symSize: 0xB0 }
  - { offset: 0x14A12, size: 0x8, addend: 0x0, symName: __RINvNtNtCs6IAuOt8vWmF_3syn3gen9visit_mut21visit_return_type_mutNtNtCsdE2kXyKmOF1_11async_trait8receiver11ReplaceSelfEB13_, symObjAddr: 0x22B8C, symBinAddr: 0x237DC, symSize: 0xB0 }
  - { offset: 0x14A7A, size: 0x8, addend: 0x0, symName: __RINvNtNtCs6IAuOt8vWmF_3syn3gen9visit_mut21visit_return_type_mutNtNtCsdE2kXyKmOF1_11async_trait8receiver7HasSelfEB13_, symObjAddr: 0x22C3C, symBinAddr: 0x2388C, symSize: 0xB0 }
  - { offset: 0x14AE2, size: 0x8, addend: 0x0, symName: __RINvNtNtCs6IAuOt8vWmF_3syn3gen9visit_mut21visit_return_type_mutNtNtCsdE2kXyKmOF1_11async_trait8receiver9HasMutPatEB13_, symObjAddr: 0x22CEC, symBinAddr: 0x2393C, symSize: 0xB0 }
  - { offset: 0x14B4A, size: 0x8, addend: 0x0, symName: __RINvNtNtCs6IAuOt8vWmF_3syn3gen9visit_mut21visit_return_type_mutNtNvNtCsdE2kXyKmOF1_11async_trait6expand29replace_impl_trait_with_infer25ReplaceImplTraitWithInferEB15_, symObjAddr: 0x22D9C, symBinAddr: 0x239EC, symSize: 0xB0 }
  - { offset: 0x14BB2, size: 0x8, addend: 0x0, symName: __RINvNtNtCs6IAuOt8vWmF_3syn3gen9visit_mut21visit_return_type_mutNtNvNtCsdE2kXyKmOF1_11async_trait6expand35contains_associated_type_impl_trait24AssociatedTypeImplTraitsEB15_, symObjAddr: 0x22E4C, symBinAddr: 0x23A9C, symSize: 0xB0 }
  - { offset: 0x14C1A, size: 0x8, addend: 0x0, symName: __RINvNtNtCs6IAuOt8vWmF_3syn3gen9visit_mut21visit_trait_bound_mutNtNtCsdE2kXyKmOF1_11async_trait8lifetime16CollectLifetimesEB13_, symObjAddr: 0x22EFC, symBinAddr: 0x23B4C, symSize: 0xA8 }
  - { offset: 0x14C7A, size: 0x8, addend: 0x0, symName: __RINvNtNtCs6IAuOt8vWmF_3syn3gen9visit_mut21visit_trait_bound_mutNtNtCsdE2kXyKmOF1_11async_trait8lifetime22AddLifetimeToImplTraitEB13_, symObjAddr: 0x22FA4, symBinAddr: 0x23BF4, symSize: 0xA8 }
  - { offset: 0x14CDA, size: 0x8, addend: 0x0, symName: __RINvNtNtCs6IAuOt8vWmF_3syn3gen9visit_mut21visit_trait_bound_mutNtNtCsdE2kXyKmOF1_11async_trait8receiver11ReplaceSelfEB13_, symObjAddr: 0x2304C, symBinAddr: 0x23C9C, symSize: 0xA8 }
  - { offset: 0x14D3A, size: 0x8, addend: 0x0, symName: __RINvNtNtCs6IAuOt8vWmF_3syn3gen9visit_mut21visit_trait_bound_mutNtNtCsdE2kXyKmOF1_11async_trait8receiver7HasSelfEB13_, symObjAddr: 0x230F4, symBinAddr: 0x23D44, symSize: 0xA8 }
  - { offset: 0x14D9A, size: 0x8, addend: 0x0, symName: __RINvNtNtCs6IAuOt8vWmF_3syn3gen9visit_mut21visit_trait_bound_mutNtNtCsdE2kXyKmOF1_11async_trait8receiver9HasMutPatEB13_, symObjAddr: 0x2319C, symBinAddr: 0x23DEC, symSize: 0xA8 }
  - { offset: 0x14DFA, size: 0x8, addend: 0x0, symName: __RINvNtNtCs6IAuOt8vWmF_3syn3gen9visit_mut21visit_trait_bound_mutNtNvNtCsdE2kXyKmOF1_11async_trait6expand29replace_impl_trait_with_infer25ReplaceImplTraitWithInferEB15_, symObjAddr: 0x23244, symBinAddr: 0x23E94, symSize: 0xA8 }
  - { offset: 0x14E5A, size: 0x8, addend: 0x0, symName: __RINvNtNtCs6IAuOt8vWmF_3syn3gen9visit_mut21visit_trait_bound_mutNtNvNtCsdE2kXyKmOF1_11async_trait6expand35contains_associated_type_impl_trait24AssociatedTypeImplTraitsEB15_, symObjAddr: 0x232EC, symBinAddr: 0x23F3C, symSize: 0xA8 }
  - { offset: 0x14EBA, size: 0x8, addend: 0x0, symName: __RINvNtNtCs6IAuOt8vWmF_3syn3gen9visit_mut22visit_expr_closure_mutNtNtCsdE2kXyKmOF1_11async_trait8lifetime16CollectLifetimesEB14_, symObjAddr: 0x23394, symBinAddr: 0x23FE4, symSize: 0x16C }
  - { offset: 0x14F6D, size: 0x8, addend: 0x0, symName: __RINvNtNtCs6IAuOt8vWmF_3syn3gen9visit_mut22visit_expr_closure_mutNtNtCsdE2kXyKmOF1_11async_trait8receiver11ReplaceSelfEB14_, symObjAddr: 0x23500, symBinAddr: 0x24150, symSize: 0x16C }
  - { offset: 0x15020, size: 0x8, addend: 0x0, symName: __RINvNtNtCs6IAuOt8vWmF_3syn3gen9visit_mut22visit_expr_closure_mutNtNtCsdE2kXyKmOF1_11async_trait8receiver7HasSelfEB14_, symObjAddr: 0x2366C, symBinAddr: 0x242BC, symSize: 0x16C }
  - { offset: 0x150D3, size: 0x8, addend: 0x0, symName: __RINvNtNtCs6IAuOt8vWmF_3syn3gen9visit_mut22visit_expr_closure_mutNtNtCsdE2kXyKmOF1_11async_trait8receiver9HasMutPatEB14_, symObjAddr: 0x237D8, symBinAddr: 0x24428, symSize: 0x16C }
  - { offset: 0x15186, size: 0x8, addend: 0x0, symName: __RINvNtNtCs6IAuOt8vWmF_3syn3gen9visit_mut22visit_expr_closure_mutNtNvNtCsdE2kXyKmOF1_11async_trait6expand29replace_impl_trait_with_infer25ReplaceImplTraitWithInferEB16_, symObjAddr: 0x23944, symBinAddr: 0x24594, symSize: 0x16C }
  - { offset: 0x15239, size: 0x8, addend: 0x0, symName: __RINvNtNtCs6IAuOt8vWmF_3syn3gen9visit_mut22visit_expr_closure_mutNtNvNtCsdE2kXyKmOF1_11async_trait6expand35contains_associated_type_impl_trait24AssociatedTypeImplTraitsEB16_, symObjAddr: 0x23AB0, symBinAddr: 0x24700, symSize: 0x16C }
  - { offset: 0x152EC, size: 0x8, addend: 0x0, symName: __RINvNtNtCs6IAuOt8vWmF_3syn3gen9visit_mut22visit_fields_named_mutNtNtCsdE2kXyKmOF1_11async_trait8lifetime16CollectLifetimesEB14_, symObjAddr: 0x23C1C, symBinAddr: 0x2486C, symSize: 0xC8 }
  - { offset: 0x15381, size: 0x8, addend: 0x0, symName: __RINvNtNtCs6IAuOt8vWmF_3syn3gen9visit_mut22visit_fields_named_mutNtNtCsdE2kXyKmOF1_11async_trait8receiver9HasMutPatEB14_, symObjAddr: 0x23CE4, symBinAddr: 0x24934, symSize: 0xC8 }
  - { offset: 0x15416, size: 0x8, addend: 0x0, symName: __RINvNtNtCs6IAuOt8vWmF_3syn3gen9visit_mut22visit_fields_named_mutNtNvNtCsdE2kXyKmOF1_11async_trait6expand29replace_impl_trait_with_infer25ReplaceImplTraitWithInferEB16_, symObjAddr: 0x23DAC, symBinAddr: 0x249FC, symSize: 0xC8 }
  - { offset: 0x154AB, size: 0x8, addend: 0x0, symName: __RINvNtNtCs6IAuOt8vWmF_3syn3gen9visit_mut22visit_fields_named_mutNtNvNtCsdE2kXyKmOF1_11async_trait6expand35contains_associated_type_impl_trait24AssociatedTypeImplTraitsEB16_, symObjAddr: 0x23E74, symBinAddr: 0x24AC4, symSize: 0xC8 }
  - { offset: 0x15540, size: 0x8, addend: 0x0, symName: __RINvNtNtCs6IAuOt8vWmF_3syn3gen9visit_mut22visit_foreign_item_mutNtNtCsdE2kXyKmOF1_11async_trait8lifetime16CollectLifetimesEB14_, symObjAddr: 0x23F3C, symBinAddr: 0x24B8C, symSize: 0x168 }
  - { offset: 0x15610, size: 0x8, addend: 0x0, symName: __RINvNtNtCs6IAuOt8vWmF_3syn3gen9visit_mut22visit_foreign_item_mutNtNtCsdE2kXyKmOF1_11async_trait8receiver9HasMutPatEB14_, symObjAddr: 0x240A4, symBinAddr: 0x24CF4, symSize: 0x168 }
  - { offset: 0x156E0, size: 0x8, addend: 0x0, symName: __RINvNtNtCs6IAuOt8vWmF_3syn3gen9visit_mut22visit_foreign_item_mutNtNvNtCsdE2kXyKmOF1_11async_trait6expand29replace_impl_trait_with_infer25ReplaceImplTraitWithInferEB16_, symObjAddr: 0x2420C, symBinAddr: 0x24E5C, symSize: 0x168 }
  - { offset: 0x157B0, size: 0x8, addend: 0x0, symName: __RINvNtNtCs6IAuOt8vWmF_3syn3gen9visit_mut22visit_foreign_item_mutNtNvNtCsdE2kXyKmOF1_11async_trait6expand35contains_associated_type_impl_trait24AssociatedTypeImplTraitsEB16_, symObjAddr: 0x24374, symBinAddr: 0x24FC4, symSize: 0x168 }
  - { offset: 0x15880, size: 0x8, addend: 0x0, symName: __RINvNtNtCs6IAuOt8vWmF_3syn3gen9visit_mut22visit_impl_item_fn_mutNtNtCsdE2kXyKmOF1_11async_trait8lifetime16CollectLifetimesEB14_, symObjAddr: 0x244DC, symBinAddr: 0x2512C, symSize: 0x70 }
  - { offset: 0x158C2, size: 0x8, addend: 0x0, symName: __RINvNtNtCs6IAuOt8vWmF_3syn3gen9visit_mut22visit_impl_item_fn_mutNtNtCsdE2kXyKmOF1_11async_trait8receiver9HasMutPatEB14_, symObjAddr: 0x2454C, symBinAddr: 0x2519C, symSize: 0x70 }
  - { offset: 0x15904, size: 0x8, addend: 0x0, symName: __RINvNtNtCs6IAuOt8vWmF_3syn3gen9visit_mut22visit_impl_item_fn_mutNtNvNtCsdE2kXyKmOF1_11async_trait6expand29replace_impl_trait_with_infer25ReplaceImplTraitWithInferEB16_, symObjAddr: 0x245BC, symBinAddr: 0x2520C, symSize: 0x70 }
  - { offset: 0x15946, size: 0x8, addend: 0x0, symName: __RINvNtNtCs6IAuOt8vWmF_3syn3gen9visit_mut22visit_impl_item_fn_mutNtNvNtCsdE2kXyKmOF1_11async_trait6expand35contains_associated_type_impl_trait24AssociatedTypeImplTraitsEB16_, symObjAddr: 0x2462C, symBinAddr: 0x2527C, symSize: 0x70 }
  - { offset: 0x15988, size: 0x8, addend: 0x0, symName: __RINvNtNtCs6IAuOt8vWmF_3syn3gen9visit_mut22visit_lit_byte_str_mutNtNtCsdE2kXyKmOF1_11async_trait8lifetime16CollectLifetimesEB14_, symObjAddr: 0x2469C, symBinAddr: 0x252EC, symSize: 0x24 }
  - { offset: 0x159CA, size: 0x8, addend: 0x0, symName: __RINvNtNtCs6IAuOt8vWmF_3syn3gen9visit_mut22visit_lit_byte_str_mutNtNtCsdE2kXyKmOF1_11async_trait8receiver11ReplaceSelfEB14_, symObjAddr: 0x246C0, symBinAddr: 0x25310, symSize: 0x24 }
  - { offset: 0x15A0C, size: 0x8, addend: 0x0, symName: __RINvNtNtCs6IAuOt8vWmF_3syn3gen9visit_mut22visit_lit_byte_str_mutNtNtCsdE2kXyKmOF1_11async_trait8receiver7HasSelfEB14_, symObjAddr: 0x246E4, symBinAddr: 0x25334, symSize: 0x24 }
  - { offset: 0x15A4E, size: 0x8, addend: 0x0, symName: __RINvNtNtCs6IAuOt8vWmF_3syn3gen9visit_mut22visit_lit_byte_str_mutNtNtCsdE2kXyKmOF1_11async_trait8receiver9HasMutPatEB14_, symObjAddr: 0x24708, symBinAddr: 0x25358, symSize: 0x24 }
  - { offset: 0x15A90, size: 0x8, addend: 0x0, symName: __RINvNtNtCs6IAuOt8vWmF_3syn3gen9visit_mut22visit_lit_byte_str_mutNtNvNtCsdE2kXyKmOF1_11async_trait6expand29replace_impl_trait_with_infer25ReplaceImplTraitWithInferEB16_, symObjAddr: 0x2472C, symBinAddr: 0x2537C, symSize: 0x24 }
  - { offset: 0x15AD2, size: 0x8, addend: 0x0, symName: __RINvNtNtCs6IAuOt8vWmF_3syn3gen9visit_mut22visit_lit_byte_str_mutNtNvNtCsdE2kXyKmOF1_11async_trait6expand35contains_associated_type_impl_trait24AssociatedTypeImplTraitsEB16_, symObjAddr: 0x24750, symBinAddr: 0x253A0, symSize: 0x24 }
  - { offset: 0x15B14, size: 0x8, addend: 0x0, symName: __RINvNtNtCs6IAuOt8vWmF_3syn3gen9visit_mut22visit_path_segment_mutNtNtCsdE2kXyKmOF1_11async_trait8lifetime16CollectLifetimesEB14_, symObjAddr: 0x24774, symBinAddr: 0x253C4, symSize: 0x50 }
  - { offset: 0x15B56, size: 0x8, addend: 0x0, symName: __RINvNtNtCs6IAuOt8vWmF_3syn3gen9visit_mut22visit_path_segment_mutNtNtCsdE2kXyKmOF1_11async_trait8lifetime22AddLifetimeToImplTraitEB14_, symObjAddr: 0x247C4, symBinAddr: 0x25414, symSize: 0x50 }
  - { offset: 0x15B98, size: 0x8, addend: 0x0, symName: __RINvNtNtCs6IAuOt8vWmF_3syn3gen9visit_mut22visit_path_segment_mutNtNtCsdE2kXyKmOF1_11async_trait8receiver7HasSelfEB14_, symObjAddr: 0x24814, symBinAddr: 0x25464, symSize: 0x50 }
  - { offset: 0x15BDA, size: 0x8, addend: 0x0, symName: __RINvNtNtCs6IAuOt8vWmF_3syn3gen9visit_mut22visit_path_segment_mutNtNtCsdE2kXyKmOF1_11async_trait8receiver9HasMutPatEB14_, symObjAddr: 0x24864, symBinAddr: 0x254B4, symSize: 0x50 }
  - { offset: 0x15C1C, size: 0x8, addend: 0x0, symName: __RINvNtNtCs6IAuOt8vWmF_3syn3gen9visit_mut22visit_path_segment_mutNtNvNtCsdE2kXyKmOF1_11async_trait6expand29replace_impl_trait_with_infer25ReplaceImplTraitWithInferEB16_, symObjAddr: 0x248B4, symBinAddr: 0x25504, symSize: 0x50 }
  - { offset: 0x15C5E, size: 0x8, addend: 0x0, symName: __RINvNtNtCs6IAuOt8vWmF_3syn3gen9visit_mut22visit_path_segment_mutNtNvNtCsdE2kXyKmOF1_11async_trait6expand35contains_associated_type_impl_trait24AssociatedTypeImplTraitsEB16_, symObjAddr: 0x24904, symBinAddr: 0x25554, symSize: 0x50 }
  - { offset: 0x15CA0, size: 0x8, addend: 0x0, symName: __RINvNtNtCs6IAuOt8vWmF_3syn3gen9visit_mut22visit_range_limits_mutNtNtCsdE2kXyKmOF1_11async_trait8lifetime16CollectLifetimesEB14_, symObjAddr: 0x24954, symBinAddr: 0x255A4, symSize: 0x6C }
  - { offset: 0x15CE2, size: 0x8, addend: 0x0, symName: __RINvNtNtCs6IAuOt8vWmF_3syn3gen9visit_mut22visit_range_limits_mutNtNtCsdE2kXyKmOF1_11async_trait8receiver11ReplaceSelfEB14_, symObjAddr: 0x249C0, symBinAddr: 0x25610, symSize: 0x6C }
  - { offset: 0x15D24, size: 0x8, addend: 0x0, symName: __RINvNtNtCs6IAuOt8vWmF_3syn3gen9visit_mut22visit_range_limits_mutNtNtCsdE2kXyKmOF1_11async_trait8receiver7HasSelfEB14_, symObjAddr: 0x24A2C, symBinAddr: 0x2567C, symSize: 0x6C }
  - { offset: 0x15D66, size: 0x8, addend: 0x0, symName: __RINvNtNtCs6IAuOt8vWmF_3syn3gen9visit_mut22visit_range_limits_mutNtNtCsdE2kXyKmOF1_11async_trait8receiver9HasMutPatEB14_, symObjAddr: 0x24A98, symBinAddr: 0x256E8, symSize: 0x6C }
  - { offset: 0x15DA8, size: 0x8, addend: 0x0, symName: __RINvNtNtCs6IAuOt8vWmF_3syn3gen9visit_mut22visit_range_limits_mutNtNvNtCsdE2kXyKmOF1_11async_trait6expand29replace_impl_trait_with_infer25ReplaceImplTraitWithInferEB16_, symObjAddr: 0x24B04, symBinAddr: 0x25754, symSize: 0x6C }
  - { offset: 0x15DEA, size: 0x8, addend: 0x0, symName: __RINvNtNtCs6IAuOt8vWmF_3syn3gen9visit_mut22visit_range_limits_mutNtNvNtCsdE2kXyKmOF1_11async_trait6expand35contains_associated_type_impl_trait24AssociatedTypeImplTraitsEB16_, symObjAddr: 0x24B70, symBinAddr: 0x257C0, symSize: 0x6C }
  - { offset: 0x15E2C, size: 0x8, addend: 0x0, symName: __RINvNtNtCs6IAuOt8vWmF_3syn3gen9visit_mut22visit_type_bare_fn_mutNtNtCsdE2kXyKmOF1_11async_trait8lifetime16CollectLifetimesEB14_, symObjAddr: 0x24BDC, symBinAddr: 0x2582C, symSize: 0x1CC }
  - { offset: 0x15F13, size: 0x8, addend: 0x0, symName: __RINvNtNtCs6IAuOt8vWmF_3syn3gen9visit_mut22visit_type_bare_fn_mutNtNtCsdE2kXyKmOF1_11async_trait8lifetime22AddLifetimeToImplTraitEB14_, symObjAddr: 0x24DA8, symBinAddr: 0x259F8, symSize: 0x1CC }
  - { offset: 0x15FFA, size: 0x8, addend: 0x0, symName: __RINvNtNtCs6IAuOt8vWmF_3syn3gen9visit_mut22visit_type_bare_fn_mutNtNtCsdE2kXyKmOF1_11async_trait8receiver11ReplaceSelfEB14_, symObjAddr: 0x24F74, symBinAddr: 0x25BC4, symSize: 0x1CC }
  - { offset: 0x160E1, size: 0x8, addend: 0x0, symName: __RINvNtNtCs6IAuOt8vWmF_3syn3gen9visit_mut22visit_type_bare_fn_mutNtNtCsdE2kXyKmOF1_11async_trait8receiver7HasSelfEB14_, symObjAddr: 0x25140, symBinAddr: 0x25D90, symSize: 0x1CC }
  - { offset: 0x161C8, size: 0x8, addend: 0x0, symName: __RINvNtNtCs6IAuOt8vWmF_3syn3gen9visit_mut22visit_type_bare_fn_mutNtNtCsdE2kXyKmOF1_11async_trait8receiver9HasMutPatEB14_, symObjAddr: 0x2530C, symBinAddr: 0x25F5C, symSize: 0x1CC }
  - { offset: 0x162AF, size: 0x8, addend: 0x0, symName: __RINvNtNtCs6IAuOt8vWmF_3syn3gen9visit_mut22visit_type_bare_fn_mutNtNvNtCsdE2kXyKmOF1_11async_trait6expand29replace_impl_trait_with_infer25ReplaceImplTraitWithInferEB16_, symObjAddr: 0x254D8, symBinAddr: 0x26128, symSize: 0x1CC }
  - { offset: 0x16396, size: 0x8, addend: 0x0, symName: __RINvNtNtCs6IAuOt8vWmF_3syn3gen9visit_mut22visit_type_bare_fn_mutNtNvNtCsdE2kXyKmOF1_11async_trait6expand35contains_associated_type_impl_trait24AssociatedTypeImplTraitsEB16_, symObjAddr: 0x256A4, symBinAddr: 0x262F4, symSize: 0x1CC }
  - { offset: 0x1647D, size: 0x8, addend: 0x0, symName: __RINvNtNtCs6IAuOt8vWmF_3syn3gen9visit_mut22visit_where_clause_mutNtNtCsdE2kXyKmOF1_11async_trait8lifetime16CollectLifetimesEB14_, symObjAddr: 0x25870, symBinAddr: 0x264C0, symSize: 0xC8 }
  - { offset: 0x16512, size: 0x8, addend: 0x0, symName: __RINvNtNtCs6IAuOt8vWmF_3syn3gen9visit_mut22visit_where_clause_mutNtNtCsdE2kXyKmOF1_11async_trait8receiver7HasSelfEB14_, symObjAddr: 0x25938, symBinAddr: 0x26588, symSize: 0xC8 }
  - { offset: 0x165A7, size: 0x8, addend: 0x0, symName: __RINvNtNtCs6IAuOt8vWmF_3syn3gen9visit_mut22visit_where_clause_mutNtNtCsdE2kXyKmOF1_11async_trait8receiver9HasMutPatEB14_, symObjAddr: 0x25A00, symBinAddr: 0x26650, symSize: 0xC8 }
  - { offset: 0x1663C, size: 0x8, addend: 0x0, symName: __RINvNtNtCs6IAuOt8vWmF_3syn3gen9visit_mut22visit_where_clause_mutNtNvNtCsdE2kXyKmOF1_11async_trait6expand29replace_impl_trait_with_infer25ReplaceImplTraitWithInferEB16_, symObjAddr: 0x25AC8, symBinAddr: 0x26718, symSize: 0xC8 }
  - { offset: 0x166D1, size: 0x8, addend: 0x0, symName: __RINvNtNtCs6IAuOt8vWmF_3syn3gen9visit_mut22visit_where_clause_mutNtNvNtCsdE2kXyKmOF1_11async_trait6expand35contains_associated_type_impl_trait24AssociatedTypeImplTraitsEB16_, symObjAddr: 0x25B90, symBinAddr: 0x267E0, symSize: 0xC8 }
  - { offset: 0x16766, size: 0x8, addend: 0x0, symName: __RINvNtNtCs6IAuOt8vWmF_3syn3gen9visit_mut23visit_bare_variadic_mutNtNtCsdE2kXyKmOF1_11async_trait8lifetime16CollectLifetimesEB15_, symObjAddr: 0x25C58, symBinAddr: 0x268A8, symSize: 0x94 }
  - { offset: 0x167C6, size: 0x8, addend: 0x0, symName: __RINvNtNtCs6IAuOt8vWmF_3syn3gen9visit_mut23visit_bare_variadic_mutNtNtCsdE2kXyKmOF1_11async_trait8lifetime22AddLifetimeToImplTraitEB15_, symObjAddr: 0x25CEC, symBinAddr: 0x2693C, symSize: 0x94 }
  - { offset: 0x16826, size: 0x8, addend: 0x0, symName: __RINvNtNtCs6IAuOt8vWmF_3syn3gen9visit_mut23visit_bare_variadic_mutNtNtCsdE2kXyKmOF1_11async_trait8receiver11ReplaceSelfEB15_, symObjAddr: 0x25D80, symBinAddr: 0x269D0, symSize: 0x94 }
  - { offset: 0x16886, size: 0x8, addend: 0x0, symName: __RINvNtNtCs6IAuOt8vWmF_3syn3gen9visit_mut23visit_bare_variadic_mutNtNtCsdE2kXyKmOF1_11async_trait8receiver7HasSelfEB15_, symObjAddr: 0x25E14, symBinAddr: 0x26A64, symSize: 0x94 }
  - { offset: 0x168E6, size: 0x8, addend: 0x0, symName: __RINvNtNtCs6IAuOt8vWmF_3syn3gen9visit_mut23visit_bare_variadic_mutNtNtCsdE2kXyKmOF1_11async_trait8receiver9HasMutPatEB15_, symObjAddr: 0x25EA8, symBinAddr: 0x26AF8, symSize: 0x94 }
  - { offset: 0x16946, size: 0x8, addend: 0x0, symName: __RINvNtNtCs6IAuOt8vWmF_3syn3gen9visit_mut23visit_bare_variadic_mutNtNvNtCsdE2kXyKmOF1_11async_trait6expand29replace_impl_trait_with_infer25ReplaceImplTraitWithInferEB17_, symObjAddr: 0x25F3C, symBinAddr: 0x26B8C, symSize: 0x94 }
  - { offset: 0x169A6, size: 0x8, addend: 0x0, symName: __RINvNtNtCs6IAuOt8vWmF_3syn3gen9visit_mut23visit_bare_variadic_mutNtNvNtCsdE2kXyKmOF1_11async_trait6expand35contains_associated_type_impl_trait24AssociatedTypeImplTraitsEB17_, symObjAddr: 0x25FD0, symBinAddr: 0x26C20, symSize: 0x94 }
  - { offset: 0x16A06, size: 0x8, addend: 0x0, symName: __RINvNtNtCs6IAuOt8vWmF_3syn3gen9visit_mut23visit_expr_continue_mutNtNtCsdE2kXyKmOF1_11async_trait8lifetime16CollectLifetimesEB15_, symObjAddr: 0x26064, symBinAddr: 0x26CB4, symSize: 0x94 }
  - { offset: 0x16A66, size: 0x8, addend: 0x0, symName: __RINvNtNtCs6IAuOt8vWmF_3syn3gen9visit_mut23visit_expr_continue_mutNtNtCsdE2kXyKmOF1_11async_trait8receiver11ReplaceSelfEB15_, symObjAddr: 0x260F8, symBinAddr: 0x26D48, symSize: 0x94 }
  - { offset: 0x16AC6, size: 0x8, addend: 0x0, symName: __RINvNtNtCs6IAuOt8vWmF_3syn3gen9visit_mut23visit_expr_continue_mutNtNtCsdE2kXyKmOF1_11async_trait8receiver7HasSelfEB15_, symObjAddr: 0x2618C, symBinAddr: 0x26DDC, symSize: 0x94 }
  - { offset: 0x16B26, size: 0x8, addend: 0x0, symName: __RINvNtNtCs6IAuOt8vWmF_3syn3gen9visit_mut23visit_expr_continue_mutNtNtCsdE2kXyKmOF1_11async_trait8receiver9HasMutPatEB15_, symObjAddr: 0x26220, symBinAddr: 0x26E70, symSize: 0x94 }
  - { offset: 0x16B86, size: 0x8, addend: 0x0, symName: __RINvNtNtCs6IAuOt8vWmF_3syn3gen9visit_mut23visit_expr_continue_mutNtNvNtCsdE2kXyKmOF1_11async_trait6expand29replace_impl_trait_with_infer25ReplaceImplTraitWithInferEB17_, symObjAddr: 0x262B4, symBinAddr: 0x26F04, symSize: 0x94 }
  - { offset: 0x16BE6, size: 0x8, addend: 0x0, symName: __RINvNtNtCs6IAuOt8vWmF_3syn3gen9visit_mut23visit_expr_continue_mutNtNvNtCsdE2kXyKmOF1_11async_trait6expand35contains_associated_type_impl_trait24AssociatedTypeImplTraitsEB17_, symObjAddr: 0x26348, symBinAddr: 0x26F98, symSize: 0x94 }
  - { offset: 0x16C46, size: 0x8, addend: 0x0, symName: __RINvNtNtCs6IAuOt8vWmF_3syn3gen9visit_mut23visit_expr_for_loop_mutNtNtCsdE2kXyKmOF1_11async_trait8lifetime16CollectLifetimesEB15_, symObjAddr: 0x263DC, symBinAddr: 0x2702C, symSize: 0x10C }
  - { offset: 0x16CA6, size: 0x8, addend: 0x0, symName: __RINvNtNtCs6IAuOt8vWmF_3syn3gen9visit_mut23visit_expr_for_loop_mutNtNtCsdE2kXyKmOF1_11async_trait8receiver11ReplaceSelfEB15_, symObjAddr: 0x264E8, symBinAddr: 0x27138, symSize: 0x10C }
  - { offset: 0x16D06, size: 0x8, addend: 0x0, symName: __RINvNtNtCs6IAuOt8vWmF_3syn3gen9visit_mut23visit_expr_for_loop_mutNtNtCsdE2kXyKmOF1_11async_trait8receiver7HasSelfEB15_, symObjAddr: 0x265F4, symBinAddr: 0x27244, symSize: 0x10C }
  - { offset: 0x16D66, size: 0x8, addend: 0x0, symName: __RINvNtNtCs6IAuOt8vWmF_3syn3gen9visit_mut23visit_expr_for_loop_mutNtNtCsdE2kXyKmOF1_11async_trait8receiver9HasMutPatEB15_, symObjAddr: 0x26700, symBinAddr: 0x27350, symSize: 0x10C }
  - { offset: 0x16DC6, size: 0x8, addend: 0x0, symName: __RINvNtNtCs6IAuOt8vWmF_3syn3gen9visit_mut23visit_expr_for_loop_mutNtNvNtCsdE2kXyKmOF1_11async_trait6expand29replace_impl_trait_with_infer25ReplaceImplTraitWithInferEB17_, symObjAddr: 0x2680C, symBinAddr: 0x2745C, symSize: 0x10C }
  - { offset: 0x16E26, size: 0x8, addend: 0x0, symName: __RINvNtNtCs6IAuOt8vWmF_3syn3gen9visit_mut23visit_expr_for_loop_mutNtNvNtCsdE2kXyKmOF1_11async_trait6expand35contains_associated_type_impl_trait24AssociatedTypeImplTraitsEB17_, symObjAddr: 0x26918, symBinAddr: 0x27568, symSize: 0x10C }
  - { offset: 0x16E86, size: 0x8, addend: 0x0, symName: __RINvNtNtCs6IAuOt8vWmF_3syn3gen9visit_mut23visit_expr_raw_addr_mutNtNtCsdE2kXyKmOF1_11async_trait8lifetime16CollectLifetimesEB15_, symObjAddr: 0x26A24, symBinAddr: 0x27674, symSize: 0x88 }
  - { offset: 0x16EC8, size: 0x8, addend: 0x0, symName: __RINvNtNtCs6IAuOt8vWmF_3syn3gen9visit_mut23visit_expr_raw_addr_mutNtNtCsdE2kXyKmOF1_11async_trait8receiver11ReplaceSelfEB15_, symObjAddr: 0x26AAC, symBinAddr: 0x276FC, symSize: 0x88 }
  - { offset: 0x16F0A, size: 0x8, addend: 0x0, symName: __RINvNtNtCs6IAuOt8vWmF_3syn3gen9visit_mut23visit_expr_raw_addr_mutNtNtCsdE2kXyKmOF1_11async_trait8receiver7HasSelfEB15_, symObjAddr: 0x26B34, symBinAddr: 0x27784, symSize: 0x88 }
  - { offset: 0x16F4C, size: 0x8, addend: 0x0, symName: __RINvNtNtCs6IAuOt8vWmF_3syn3gen9visit_mut23visit_expr_raw_addr_mutNtNtCsdE2kXyKmOF1_11async_trait8receiver9HasMutPatEB15_, symObjAddr: 0x26BBC, symBinAddr: 0x2780C, symSize: 0x88 }
  - { offset: 0x16F8E, size: 0x8, addend: 0x0, symName: __RINvNtNtCs6IAuOt8vWmF_3syn3gen9visit_mut23visit_expr_raw_addr_mutNtNvNtCsdE2kXyKmOF1_11async_trait6expand29replace_impl_trait_with_infer25ReplaceImplTraitWithInferEB17_, symObjAddr: 0x26C44, symBinAddr: 0x27894, symSize: 0x88 }
  - { offset: 0x16FD0, size: 0x8, addend: 0x0, symName: __RINvNtNtCs6IAuOt8vWmF_3syn3gen9visit_mut23visit_expr_raw_addr_mutNtNvNtCsdE2kXyKmOF1_11async_trait6expand35contains_associated_type_impl_trait24AssociatedTypeImplTraitsEB17_, symObjAddr: 0x26CCC, symBinAddr: 0x2791C, symSize: 0x88 }
  - { offset: 0x17012, size: 0x8, addend: 0x0, symName: __RINvNtNtCs6IAuOt8vWmF_3syn3gen9visit_mut23visit_generic_param_mutNtNtCsdE2kXyKmOF1_11async_trait8lifetime16CollectLifetimesEB15_, symObjAddr: 0x26D54, symBinAddr: 0x279A4, symSize: 0xE8 }
  - { offset: 0x170A6, size: 0x8, addend: 0x0, symName: __RINvNtNtCs6IAuOt8vWmF_3syn3gen9visit_mut23visit_generic_param_mutNtNtCsdE2kXyKmOF1_11async_trait8lifetime22AddLifetimeToImplTraitEB15_, symObjAddr: 0x26E3C, symBinAddr: 0x27A8C, symSize: 0xE8 }
  - { offset: 0x1713A, size: 0x8, addend: 0x0, symName: __RINvNtNtCs6IAuOt8vWmF_3syn3gen9visit_mut23visit_generic_param_mutNtNtCsdE2kXyKmOF1_11async_trait8receiver11ReplaceSelfEB15_, symObjAddr: 0x26F24, symBinAddr: 0x27B74, symSize: 0xE8 }
  - { offset: 0x171CE, size: 0x8, addend: 0x0, symName: __RINvNtNtCs6IAuOt8vWmF_3syn3gen9visit_mut23visit_generic_param_mutNtNtCsdE2kXyKmOF1_11async_trait8receiver7HasSelfEB15_, symObjAddr: 0x2700C, symBinAddr: 0x27C5C, symSize: 0xE8 }
  - { offset: 0x17262, size: 0x8, addend: 0x0, symName: __RINvNtNtCs6IAuOt8vWmF_3syn3gen9visit_mut23visit_generic_param_mutNtNtCsdE2kXyKmOF1_11async_trait8receiver9HasMutPatEB15_, symObjAddr: 0x270F4, symBinAddr: 0x27D44, symSize: 0xE8 }
  - { offset: 0x172F6, size: 0x8, addend: 0x0, symName: __RINvNtNtCs6IAuOt8vWmF_3syn3gen9visit_mut23visit_generic_param_mutNtNvNtCsdE2kXyKmOF1_11async_trait6expand29replace_impl_trait_with_infer25ReplaceImplTraitWithInferEB17_, symObjAddr: 0x271DC, symBinAddr: 0x27E2C, symSize: 0xE8 }
  - { offset: 0x1738A, size: 0x8, addend: 0x0, symName: __RINvNtNtCs6IAuOt8vWmF_3syn3gen9visit_mut23visit_generic_param_mutNtNvNtCsdE2kXyKmOF1_11async_trait6expand35contains_associated_type_impl_trait24AssociatedTypeImplTraitsEB17_, symObjAddr: 0x272C4, symBinAddr: 0x27F14, symSize: 0xE8 }
  - { offset: 0x1741E, size: 0x8, addend: 0x0, symName: __RINvNtNtCs6IAuOt8vWmF_3syn3gen9visit_mut23visit_pat_reference_mutNtNtCsdE2kXyKmOF1_11async_trait8lifetime16CollectLifetimesEB15_, symObjAddr: 0x273AC, symBinAddr: 0x27FFC, symSize: 0x78 }
  - { offset: 0x17460, size: 0x8, addend: 0x0, symName: __RINvNtNtCs6IAuOt8vWmF_3syn3gen9visit_mut23visit_pat_reference_mutNtNtCsdE2kXyKmOF1_11async_trait8receiver11ReplaceSelfEB15_, symObjAddr: 0x27424, symBinAddr: 0x28074, symSize: 0x78 }
  - { offset: 0x174A2, size: 0x8, addend: 0x0, symName: __RINvNtNtCs6IAuOt8vWmF_3syn3gen9visit_mut23visit_pat_reference_mutNtNtCsdE2kXyKmOF1_11async_trait8receiver7HasSelfEB15_, symObjAddr: 0x2749C, symBinAddr: 0x280EC, symSize: 0x78 }
  - { offset: 0x174E4, size: 0x8, addend: 0x0, symName: __RINvNtNtCs6IAuOt8vWmF_3syn3gen9visit_mut23visit_pat_reference_mutNtNtCsdE2kXyKmOF1_11async_trait8receiver9HasMutPatEB15_, symObjAddr: 0x27514, symBinAddr: 0x28164, symSize: 0x78 }
  - { offset: 0x17526, size: 0x8, addend: 0x0, symName: __RINvNtNtCs6IAuOt8vWmF_3syn3gen9visit_mut23visit_pat_reference_mutNtNvNtCsdE2kXyKmOF1_11async_trait6expand29replace_impl_trait_with_infer25ReplaceImplTraitWithInferEB17_, symObjAddr: 0x2758C, symBinAddr: 0x281DC, symSize: 0x78 }
  - { offset: 0x17568, size: 0x8, addend: 0x0, symName: __RINvNtNtCs6IAuOt8vWmF_3syn3gen9visit_mut23visit_pat_reference_mutNtNvNtCsdE2kXyKmOF1_11async_trait6expand35contains_associated_type_impl_trait24AssociatedTypeImplTraitsEB17_, symObjAddr: 0x27604, symBinAddr: 0x28254, symSize: 0x78 }
  - { offset: 0x175AA, size: 0x8, addend: 0x0, symName: __RINvNtNtCs6IAuOt8vWmF_3syn3gen9visit_mut23visit_trait_item_fn_mutNtNtCsdE2kXyKmOF1_11async_trait8lifetime16CollectLifetimesEB15_, symObjAddr: 0x2767C, symBinAddr: 0x282CC, symSize: 0xA8 }
  - { offset: 0x1760A, size: 0x8, addend: 0x0, symName: __RINvNtNtCs6IAuOt8vWmF_3syn3gen9visit_mut23visit_trait_item_fn_mutNtNtCsdE2kXyKmOF1_11async_trait8receiver9HasMutPatEB15_, symObjAddr: 0x27724, symBinAddr: 0x28374, symSize: 0xA8 }
  - { offset: 0x1766A, size: 0x8, addend: 0x0, symName: __RINvNtNtCs6IAuOt8vWmF_3syn3gen9visit_mut23visit_trait_item_fn_mutNtNvNtCsdE2kXyKmOF1_11async_trait6expand29replace_impl_trait_with_infer25ReplaceImplTraitWithInferEB17_, symObjAddr: 0x277CC, symBinAddr: 0x2841C, symSize: 0xA8 }
  - { offset: 0x176CA, size: 0x8, addend: 0x0, symName: __RINvNtNtCs6IAuOt8vWmF_3syn3gen9visit_mut23visit_trait_item_fn_mutNtNvNtCsdE2kXyKmOF1_11async_trait6expand35contains_associated_type_impl_trait24AssociatedTypeImplTraitsEB17_, symObjAddr: 0x27874, symBinAddr: 0x284C4, symSize: 0xA8 }
  - { offset: 0x1772A, size: 0x8, addend: 0x0, symName: __RINvNtNtCs6IAuOt8vWmF_3syn3gen9visit_mut24visit_captured_param_mutNtNtCsdE2kXyKmOF1_11async_trait8lifetime16CollectLifetimesEB16_, symObjAddr: 0x2791C, symBinAddr: 0x2856C, symSize: 0x94 }
  - { offset: 0x177A0, size: 0x8, addend: 0x0, symName: __RINvNtNtCs6IAuOt8vWmF_3syn3gen9visit_mut24visit_captured_param_mutNtNtCsdE2kXyKmOF1_11async_trait8lifetime22AddLifetimeToImplTraitEB16_, symObjAddr: 0x279B0, symBinAddr: 0x28600, symSize: 0x94 }
  - { offset: 0x17816, size: 0x8, addend: 0x0, symName: __RINvNtNtCs6IAuOt8vWmF_3syn3gen9visit_mut24visit_captured_param_mutNtNtCsdE2kXyKmOF1_11async_trait8receiver11ReplaceSelfEB16_, symObjAddr: 0x27A44, symBinAddr: 0x28694, symSize: 0x94 }
  - { offset: 0x1788C, size: 0x8, addend: 0x0, symName: __RINvNtNtCs6IAuOt8vWmF_3syn3gen9visit_mut24visit_captured_param_mutNtNtCsdE2kXyKmOF1_11async_trait8receiver7HasSelfEB16_, symObjAddr: 0x27AD8, symBinAddr: 0x28728, symSize: 0x94 }
  - { offset: 0x17902, size: 0x8, addend: 0x0, symName: __RINvNtNtCs6IAuOt8vWmF_3syn3gen9visit_mut24visit_captured_param_mutNtNtCsdE2kXyKmOF1_11async_trait8receiver9HasMutPatEB16_, symObjAddr: 0x27B6C, symBinAddr: 0x287BC, symSize: 0x94 }
  - { offset: 0x17978, size: 0x8, addend: 0x0, symName: __RINvNtNtCs6IAuOt8vWmF_3syn3gen9visit_mut24visit_captured_param_mutNtNvNtCsdE2kXyKmOF1_11async_trait6expand29replace_impl_trait_with_infer25ReplaceImplTraitWithInferEB18_, symObjAddr: 0x27C00, symBinAddr: 0x28850, symSize: 0x94 }
  - { offset: 0x179EE, size: 0x8, addend: 0x0, symName: __RINvNtNtCs6IAuOt8vWmF_3syn3gen9visit_mut24visit_captured_param_mutNtNvNtCsdE2kXyKmOF1_11async_trait6expand35contains_associated_type_impl_trait24AssociatedTypeImplTraitsEB18_, symObjAddr: 0x27C94, symBinAddr: 0x288E4, symSize: 0x94 }
  - { offset: 0x17A64, size: 0x8, addend: 0x0, symName: __RINvNtNtCs6IAuOt8vWmF_3syn3gen9visit_mut24visit_expr_reference_mutNtNtCsdE2kXyKmOF1_11async_trait8lifetime16CollectLifetimesEB16_, symObjAddr: 0x27D28, symBinAddr: 0x28978, symSize: 0x78 }
  - { offset: 0x17AA6, size: 0x8, addend: 0x0, symName: __RINvNtNtCs6IAuOt8vWmF_3syn3gen9visit_mut24visit_expr_reference_mutNtNtCsdE2kXyKmOF1_11async_trait8receiver11ReplaceSelfEB16_, symObjAddr: 0x27DA0, symBinAddr: 0x289F0, symSize: 0x78 }
  - { offset: 0x17AE8, size: 0x8, addend: 0x0, symName: __RINvNtNtCs6IAuOt8vWmF_3syn3gen9visit_mut24visit_expr_reference_mutNtNtCsdE2kXyKmOF1_11async_trait8receiver7HasSelfEB16_, symObjAddr: 0x27E18, symBinAddr: 0x28A68, symSize: 0x78 }
  - { offset: 0x17B2A, size: 0x8, addend: 0x0, symName: __RINvNtNtCs6IAuOt8vWmF_3syn3gen9visit_mut24visit_expr_reference_mutNtNtCsdE2kXyKmOF1_11async_trait8receiver9HasMutPatEB16_, symObjAddr: 0x27E90, symBinAddr: 0x28AE0, symSize: 0x78 }
  - { offset: 0x17B6C, size: 0x8, addend: 0x0, symName: __RINvNtNtCs6IAuOt8vWmF_3syn3gen9visit_mut24visit_expr_reference_mutNtNvNtCsdE2kXyKmOF1_11async_trait6expand29replace_impl_trait_with_infer25ReplaceImplTraitWithInferEB18_, symObjAddr: 0x27F08, symBinAddr: 0x28B58, symSize: 0x78 }
  - { offset: 0x17BAE, size: 0x8, addend: 0x0, symName: __RINvNtNtCs6IAuOt8vWmF_3syn3gen9visit_mut24visit_expr_reference_mutNtNvNtCsdE2kXyKmOF1_11async_trait6expand35contains_associated_type_impl_trait24AssociatedTypeImplTraitsEB18_, symObjAddr: 0x27F80, symBinAddr: 0x28BD0, symSize: 0x78 }
  - { offset: 0x17BF0, size: 0x8, addend: 0x0, symName: __RINvNtNtCs6IAuOt8vWmF_3syn3gen9visit_mut24visit_expr_try_block_mutNtNtCsdE2kXyKmOF1_11async_trait8lifetime16CollectLifetimesEB16_, symObjAddr: 0x27FF8, symBinAddr: 0x28C48, symSize: 0x50 }
  - { offset: 0x17C32, size: 0x8, addend: 0x0, symName: __RINvNtNtCs6IAuOt8vWmF_3syn3gen9visit_mut24visit_expr_try_block_mutNtNtCsdE2kXyKmOF1_11async_trait8receiver11ReplaceSelfEB16_, symObjAddr: 0x28048, symBinAddr: 0x28C98, symSize: 0x50 }
  - { offset: 0x17C74, size: 0x8, addend: 0x0, symName: __RINvNtNtCs6IAuOt8vWmF_3syn3gen9visit_mut24visit_expr_try_block_mutNtNtCsdE2kXyKmOF1_11async_trait8receiver7HasSelfEB16_, symObjAddr: 0x28098, symBinAddr: 0x28CE8, symSize: 0x50 }
  - { offset: 0x17CB6, size: 0x8, addend: 0x0, symName: __RINvNtNtCs6IAuOt8vWmF_3syn3gen9visit_mut24visit_expr_try_block_mutNtNtCsdE2kXyKmOF1_11async_trait8receiver9HasMutPatEB16_, symObjAddr: 0x280E8, symBinAddr: 0x28D38, symSize: 0x50 }
  - { offset: 0x17CF8, size: 0x8, addend: 0x0, symName: __RINvNtNtCs6IAuOt8vWmF_3syn3gen9visit_mut24visit_expr_try_block_mutNtNvNtCsdE2kXyKmOF1_11async_trait6expand29replace_impl_trait_with_infer25ReplaceImplTraitWithInferEB18_, symObjAddr: 0x28138, symBinAddr: 0x28D88, symSize: 0x50 }
  - { offset: 0x17D3A, size: 0x8, addend: 0x0, symName: __RINvNtNtCs6IAuOt8vWmF_3syn3gen9visit_mut24visit_expr_try_block_mutNtNvNtCsdE2kXyKmOF1_11async_trait6expand35contains_associated_type_impl_trait24AssociatedTypeImplTraitsEB18_, symObjAddr: 0x28188, symBinAddr: 0x28DD8, symSize: 0x50 }
  - { offset: 0x17D7C, size: 0x8, addend: 0x0, symName: __RINvNtNtCs6IAuOt8vWmF_3syn3gen9visit_mut24visit_fields_unnamed_mutNtNtCsdE2kXyKmOF1_11async_trait8lifetime16CollectLifetimesEB16_, symObjAddr: 0x281D8, symBinAddr: 0x28E28, symSize: 0xC8 }
  - { offset: 0x17E11, size: 0x8, addend: 0x0, symName: __RINvNtNtCs6IAuOt8vWmF_3syn3gen9visit_mut24visit_fields_unnamed_mutNtNtCsdE2kXyKmOF1_11async_trait8receiver9HasMutPatEB16_, symObjAddr: 0x282A0, symBinAddr: 0x28EF0, symSize: 0xC8 }
  - { offset: 0x17EA6, size: 0x8, addend: 0x0, symName: __RINvNtNtCs6IAuOt8vWmF_3syn3gen9visit_mut24visit_fields_unnamed_mutNtNvNtCsdE2kXyKmOF1_11async_trait6expand29replace_impl_trait_with_infer25ReplaceImplTraitWithInferEB18_, symObjAddr: 0x28368, symBinAddr: 0x28FB8, symSize: 0xC8 }
  - { offset: 0x17F3B, size: 0x8, addend: 0x0, symName: __RINvNtNtCs6IAuOt8vWmF_3syn3gen9visit_mut24visit_fields_unnamed_mutNtNvNtCsdE2kXyKmOF1_11async_trait6expand35contains_associated_type_impl_trait24AssociatedTypeImplTraitsEB18_, symObjAddr: 0x28430, symBinAddr: 0x29080, symSize: 0xC8 }
  - { offset: 0x17FD0, size: 0x8, addend: 0x0, symName: __RINvNtNtCs6IAuOt8vWmF_3syn3gen9visit_mut24visit_impl_item_type_mutNtNtCsdE2kXyKmOF1_11async_trait8lifetime16CollectLifetimesEB16_, symObjAddr: 0x284F8, symBinAddr: 0x29148, symSize: 0x80 }
  - { offset: 0x18012, size: 0x8, addend: 0x0, symName: __RINvNtNtCs6IAuOt8vWmF_3syn3gen9visit_mut24visit_impl_item_type_mutNtNtCsdE2kXyKmOF1_11async_trait8receiver9HasMutPatEB16_, symObjAddr: 0x28578, symBinAddr: 0x291C8, symSize: 0x80 }
  - { offset: 0x18054, size: 0x8, addend: 0x0, symName: __RINvNtNtCs6IAuOt8vWmF_3syn3gen9visit_mut24visit_impl_item_type_mutNtNvNtCsdE2kXyKmOF1_11async_trait6expand29replace_impl_trait_with_infer25ReplaceImplTraitWithInferEB18_, symObjAddr: 0x285F8, symBinAddr: 0x29248, symSize: 0x80 }
  - { offset: 0x18096, size: 0x8, addend: 0x0, symName: __RINvNtNtCs6IAuOt8vWmF_3syn3gen9visit_mut24visit_impl_item_type_mutNtNvNtCsdE2kXyKmOF1_11async_trait6expand35contains_associated_type_impl_trait24AssociatedTypeImplTraitsEB18_, symObjAddr: 0x28678, symBinAddr: 0x292C8, symSize: 0x80 }
  - { offset: 0x180D8, size: 0x8, addend: 0x0, symName: __RINvNtNtCs6IAuOt8vWmF_3syn3gen9visit_mut24visit_lifetime_param_mutNtNtCsdE2kXyKmOF1_11async_trait8lifetime16CollectLifetimesEB16_, symObjAddr: 0x286F8, symBinAddr: 0x29348, symSize: 0xE0 }
  - { offset: 0x1816D, size: 0x8, addend: 0x0, symName: __RINvNtNtCs6IAuOt8vWmF_3syn3gen9visit_mut24visit_lifetime_param_mutNtNtCsdE2kXyKmOF1_11async_trait8lifetime22AddLifetimeToImplTraitEB16_, symObjAddr: 0x287D8, symBinAddr: 0x29428, symSize: 0xE0 }
  - { offset: 0x18202, size: 0x8, addend: 0x0, symName: __RINvNtNtCs6IAuOt8vWmF_3syn3gen9visit_mut24visit_lifetime_param_mutNtNtCsdE2kXyKmOF1_11async_trait8receiver11ReplaceSelfEB16_, symObjAddr: 0x288B8, symBinAddr: 0x29508, symSize: 0xE0 }
  - { offset: 0x18297, size: 0x8, addend: 0x0, symName: __RINvNtNtCs6IAuOt8vWmF_3syn3gen9visit_mut24visit_lifetime_param_mutNtNtCsdE2kXyKmOF1_11async_trait8receiver7HasSelfEB16_, symObjAddr: 0x28998, symBinAddr: 0x295E8, symSize: 0xE0 }
  - { offset: 0x1832C, size: 0x8, addend: 0x0, symName: __RINvNtNtCs6IAuOt8vWmF_3syn3gen9visit_mut24visit_lifetime_param_mutNtNtCsdE2kXyKmOF1_11async_trait8receiver9HasMutPatEB16_, symObjAddr: 0x28A78, symBinAddr: 0x296C8, symSize: 0xE0 }
  - { offset: 0x183C1, size: 0x8, addend: 0x0, symName: __RINvNtNtCs6IAuOt8vWmF_3syn3gen9visit_mut24visit_lifetime_param_mutNtNvNtCsdE2kXyKmOF1_11async_trait6expand29replace_impl_trait_with_infer25ReplaceImplTraitWithInferEB18_, symObjAddr: 0x28B58, symBinAddr: 0x297A8, symSize: 0xE0 }
  - { offset: 0x18456, size: 0x8, addend: 0x0, symName: __RINvNtNtCs6IAuOt8vWmF_3syn3gen9visit_mut24visit_lifetime_param_mutNtNvNtCsdE2kXyKmOF1_11async_trait6expand35contains_associated_type_impl_trait24AssociatedTypeImplTraitsEB18_, symObjAddr: 0x28C38, symBinAddr: 0x29888, symSize: 0xE0 }
  - { offset: 0x184EB, size: 0x8, addend: 0x0, symName: __RINvNtNtCs6IAuOt8vWmF_3syn3gen9visit_mut24visit_path_arguments_mutNtNtCsdE2kXyKmOF1_11async_trait8lifetime16CollectLifetimesEB16_, symObjAddr: 0x28D18, symBinAddr: 0x29968, symSize: 0xD4 }
  - { offset: 0x18561, size: 0x8, addend: 0x0, symName: __RINvNtNtCs6IAuOt8vWmF_3syn3gen9visit_mut24visit_path_arguments_mutNtNtCsdE2kXyKmOF1_11async_trait8lifetime22AddLifetimeToImplTraitEB16_, symObjAddr: 0x28DEC, symBinAddr: 0x29A3C, symSize: 0xD4 }
  - { offset: 0x185D7, size: 0x8, addend: 0x0, symName: __RINvNtNtCs6IAuOt8vWmF_3syn3gen9visit_mut24visit_path_arguments_mutNtNtCsdE2kXyKmOF1_11async_trait8receiver11ReplaceSelfEB16_, symObjAddr: 0x28EC0, symBinAddr: 0x29B10, symSize: 0xD4 }
  - { offset: 0x1864D, size: 0x8, addend: 0x0, symName: __RINvNtNtCs6IAuOt8vWmF_3syn3gen9visit_mut24visit_path_arguments_mutNtNtCsdE2kXyKmOF1_11async_trait8receiver7HasSelfEB16_, symObjAddr: 0x28F94, symBinAddr: 0x29BE4, symSize: 0xD4 }
  - { offset: 0x186C3, size: 0x8, addend: 0x0, symName: __RINvNtNtCs6IAuOt8vWmF_3syn3gen9visit_mut24visit_path_arguments_mutNtNtCsdE2kXyKmOF1_11async_trait8receiver9HasMutPatEB16_, symObjAddr: 0x29068, symBinAddr: 0x29CB8, symSize: 0xD4 }
  - { offset: 0x18739, size: 0x8, addend: 0x0, symName: __RINvNtNtCs6IAuOt8vWmF_3syn3gen9visit_mut24visit_path_arguments_mutNtNvNtCsdE2kXyKmOF1_11async_trait6expand29replace_impl_trait_with_infer25ReplaceImplTraitWithInferEB18_, symObjAddr: 0x2913C, symBinAddr: 0x29D8C, symSize: 0xD4 }
  - { offset: 0x187AF, size: 0x8, addend: 0x0, symName: __RINvNtNtCs6IAuOt8vWmF_3syn3gen9visit_mut24visit_path_arguments_mutNtNvNtCsdE2kXyKmOF1_11async_trait6expand35contains_associated_type_impl_trait24AssociatedTypeImplTraitsEB18_, symObjAddr: 0x29210, symBinAddr: 0x29E60, symSize: 0xD4 }
  - { offset: 0x18825, size: 0x8, addend: 0x0, symName: __RINvNtNtCs6IAuOt8vWmF_3syn3gen9visit_mut24visit_predicate_type_mutNtNtCsdE2kXyKmOF1_11async_trait8lifetime16CollectLifetimesEB16_, symObjAddr: 0x292E4, symBinAddr: 0x29F34, symSize: 0x128 }
  - { offset: 0x188D8, size: 0x8, addend: 0x0, symName: __RINvNtNtCs6IAuOt8vWmF_3syn3gen9visit_mut24visit_predicate_type_mutNtNtCsdE2kXyKmOF1_11async_trait8receiver7HasSelfEB16_, symObjAddr: 0x2940C, symBinAddr: 0x2A05C, symSize: 0x128 }
  - { offset: 0x1898B, size: 0x8, addend: 0x0, symName: __RINvNtNtCs6IAuOt8vWmF_3syn3gen9visit_mut24visit_predicate_type_mutNtNtCsdE2kXyKmOF1_11async_trait8receiver9HasMutPatEB16_, symObjAddr: 0x29534, symBinAddr: 0x2A184, symSize: 0x128 }
  - { offset: 0x18A3E, size: 0x8, addend: 0x0, symName: __RINvNtNtCs6IAuOt8vWmF_3syn3gen9visit_mut24visit_predicate_type_mutNtNvNtCsdE2kXyKmOF1_11async_trait6expand29replace_impl_trait_with_infer25ReplaceImplTraitWithInferEB18_, symObjAddr: 0x2965C, symBinAddr: 0x2A2AC, symSize: 0x128 }
  - { offset: 0x18AF1, size: 0x8, addend: 0x0, symName: __RINvNtNtCs6IAuOt8vWmF_3syn3gen9visit_mut24visit_predicate_type_mutNtNvNtCsdE2kXyKmOF1_11async_trait6expand35contains_associated_type_impl_trait24AssociatedTypeImplTraitsEB18_, symObjAddr: 0x29784, symBinAddr: 0x2A3D4, symSize: 0x128 }
  - { offset: 0x18BA4, size: 0x8, addend: 0x0, symName: __RINvNtNtCs6IAuOt8vWmF_3syn3gen9visit_mut24visit_type_reference_mutNtNtCsdE2kXyKmOF1_11async_trait8lifetime16CollectLifetimesEB16_, symObjAddr: 0x298AC, symBinAddr: 0x2A4FC, symSize: 0xBC }
  - { offset: 0x18C04, size: 0x8, addend: 0x0, symName: __RINvNtNtCs6IAuOt8vWmF_3syn3gen9visit_mut24visit_type_reference_mutNtNtCsdE2kXyKmOF1_11async_trait8lifetime22AddLifetimeToImplTraitEB16_, symObjAddr: 0x29968, symBinAddr: 0x2A5B8, symSize: 0xBC }
  - { offset: 0x18C64, size: 0x8, addend: 0x0, symName: __RINvNtNtCs6IAuOt8vWmF_3syn3gen9visit_mut24visit_type_reference_mutNtNtCsdE2kXyKmOF1_11async_trait8receiver11ReplaceSelfEB16_, symObjAddr: 0x29A24, symBinAddr: 0x2A674, symSize: 0xBC }
  - { offset: 0x18CC4, size: 0x8, addend: 0x0, symName: __RINvNtNtCs6IAuOt8vWmF_3syn3gen9visit_mut24visit_type_reference_mutNtNtCsdE2kXyKmOF1_11async_trait8receiver7HasSelfEB16_, symObjAddr: 0x29AE0, symBinAddr: 0x2A730, symSize: 0xBC }
  - { offset: 0x18D24, size: 0x8, addend: 0x0, symName: __RINvNtNtCs6IAuOt8vWmF_3syn3gen9visit_mut24visit_type_reference_mutNtNtCsdE2kXyKmOF1_11async_trait8receiver9HasMutPatEB16_, symObjAddr: 0x29B9C, symBinAddr: 0x2A7EC, symSize: 0xBC }
  - { offset: 0x18D84, size: 0x8, addend: 0x0, symName: __RINvNtNtCs6IAuOt8vWmF_3syn3gen9visit_mut24visit_type_reference_mutNtNvNtCsdE2kXyKmOF1_11async_trait6expand29replace_impl_trait_with_infer25ReplaceImplTraitWithInferEB18_, symObjAddr: 0x29C58, symBinAddr: 0x2A8A8, symSize: 0xBC }
  - { offset: 0x18DE4, size: 0x8, addend: 0x0, symName: __RINvNtNtCs6IAuOt8vWmF_3syn3gen9visit_mut24visit_type_reference_mutNtNvNtCsdE2kXyKmOF1_11async_trait6expand35contains_associated_type_impl_trait24AssociatedTypeImplTraitsEB18_, symObjAddr: 0x29D14, symBinAddr: 0x2A964, symSize: 0xBC }
  - { offset: 0x18E44, size: 0x8, addend: 0x0, symName: __RINvNtNtCs6IAuOt8vWmF_3syn3gen9visit_mut24visit_vis_restricted_mutNtNtCsdE2kXyKmOF1_11async_trait8lifetime16CollectLifetimesEB16_, symObjAddr: 0x29DD0, symBinAddr: 0x2AA20, symSize: 0x68 }
  - { offset: 0x18E86, size: 0x8, addend: 0x0, symName: __RINvNtNtCs6IAuOt8vWmF_3syn3gen9visit_mut24visit_vis_restricted_mutNtNtCsdE2kXyKmOF1_11async_trait8receiver9HasMutPatEB16_, symObjAddr: 0x29E38, symBinAddr: 0x2AA88, symSize: 0x68 }
  - { offset: 0x18EC8, size: 0x8, addend: 0x0, symName: __RINvNtNtCs6IAuOt8vWmF_3syn3gen9visit_mut24visit_vis_restricted_mutNtNvNtCsdE2kXyKmOF1_11async_trait6expand29replace_impl_trait_with_infer25ReplaceImplTraitWithInferEB18_, symObjAddr: 0x29EA0, symBinAddr: 0x2AAF0, symSize: 0x68 }
  - { offset: 0x18F0A, size: 0x8, addend: 0x0, symName: __RINvNtNtCs6IAuOt8vWmF_3syn3gen9visit_mut24visit_vis_restricted_mutNtNvNtCsdE2kXyKmOF1_11async_trait6expand35contains_associated_type_impl_trait24AssociatedTypeImplTraitsEB18_, symObjAddr: 0x29F08, symBinAddr: 0x2AB58, symSize: 0x68 }
  - { offset: 0x18F4C, size: 0x8, addend: 0x0, symName: __RINvNtNtCs6IAuOt8vWmF_3syn3gen9visit_mut25visit_bound_lifetimes_mutNtNtCsdE2kXyKmOF1_11async_trait8lifetime16CollectLifetimesEB17_, symObjAddr: 0x29F70, symBinAddr: 0x2ABC0, symSize: 0xC8 }
  - { offset: 0x18FE1, size: 0x8, addend: 0x0, symName: __RINvNtNtCs6IAuOt8vWmF_3syn3gen9visit_mut25visit_bound_lifetimes_mutNtNtCsdE2kXyKmOF1_11async_trait8lifetime22AddLifetimeToImplTraitEB17_, symObjAddr: 0x2A038, symBinAddr: 0x2AC88, symSize: 0xC8 }
  - { offset: 0x19076, size: 0x8, addend: 0x0, symName: __RINvNtNtCs6IAuOt8vWmF_3syn3gen9visit_mut25visit_bound_lifetimes_mutNtNtCsdE2kXyKmOF1_11async_trait8receiver11ReplaceSelfEB17_, symObjAddr: 0x2A100, symBinAddr: 0x2AD50, symSize: 0xC8 }
  - { offset: 0x1910B, size: 0x8, addend: 0x0, symName: __RINvNtNtCs6IAuOt8vWmF_3syn3gen9visit_mut25visit_bound_lifetimes_mutNtNtCsdE2kXyKmOF1_11async_trait8receiver7HasSelfEB17_, symObjAddr: 0x2A1C8, symBinAddr: 0x2AE18, symSize: 0xC8 }
  - { offset: 0x191A0, size: 0x8, addend: 0x0, symName: __RINvNtNtCs6IAuOt8vWmF_3syn3gen9visit_mut25visit_bound_lifetimes_mutNtNtCsdE2kXyKmOF1_11async_trait8receiver9HasMutPatEB17_, symObjAddr: 0x2A290, symBinAddr: 0x2AEE0, symSize: 0xC8 }
  - { offset: 0x19235, size: 0x8, addend: 0x0, symName: __RINvNtNtCs6IAuOt8vWmF_3syn3gen9visit_mut25visit_bound_lifetimes_mutNtNvNtCsdE2kXyKmOF1_11async_trait6expand29replace_impl_trait_with_infer25ReplaceImplTraitWithInferEB19_, symObjAddr: 0x2A358, symBinAddr: 0x2AFA8, symSize: 0xC8 }
  - { offset: 0x192CA, size: 0x8, addend: 0x0, symName: __RINvNtNtCs6IAuOt8vWmF_3syn3gen9visit_mut25visit_bound_lifetimes_mutNtNvNtCsdE2kXyKmOF1_11async_trait6expand35contains_associated_type_impl_trait24AssociatedTypeImplTraitsEB19_, symObjAddr: 0x2A420, symBinAddr: 0x2B070, symSize: 0xC8 }
  - { offset: 0x1935F, size: 0x8, addend: 0x0, symName: __RINvNtNtCs6IAuOt8vWmF_3syn3gen9visit_mut25visit_foreign_item_fn_mutNtNtCsdE2kXyKmOF1_11async_trait8lifetime16CollectLifetimesEB17_, symObjAddr: 0x2A4E8, symBinAddr: 0x2B138, symSize: 0x60 }
  - { offset: 0x193A1, size: 0x8, addend: 0x0, symName: __RINvNtNtCs6IAuOt8vWmF_3syn3gen9visit_mut25visit_foreign_item_fn_mutNtNtCsdE2kXyKmOF1_11async_trait8receiver9HasMutPatEB17_, symObjAddr: 0x2A548, symBinAddr: 0x2B198, symSize: 0x60 }
  - { offset: 0x193E3, size: 0x8, addend: 0x0, symName: __RINvNtNtCs6IAuOt8vWmF_3syn3gen9visit_mut25visit_foreign_item_fn_mutNtNvNtCsdE2kXyKmOF1_11async_trait6expand29replace_impl_trait_with_infer25ReplaceImplTraitWithInferEB19_, symObjAddr: 0x2A5A8, symBinAddr: 0x2B1F8, symSize: 0x60 }
  - { offset: 0x19425, size: 0x8, addend: 0x0, symName: __RINvNtNtCs6IAuOt8vWmF_3syn3gen9visit_mut25visit_foreign_item_fn_mutNtNvNtCsdE2kXyKmOF1_11async_trait6expand35contains_associated_type_impl_trait24AssociatedTypeImplTraitsEB19_, symObjAddr: 0x2A608, symBinAddr: 0x2B258, symSize: 0x60 }
  - { offset: 0x19467, size: 0x8, addend: 0x0, symName: __RINvNtNtCs6IAuOt8vWmF_3syn3gen9visit_mut25visit_impl_item_const_mutNtNtCsdE2kXyKmOF1_11async_trait8lifetime16CollectLifetimesEB17_, symObjAddr: 0x2A668, symBinAddr: 0x2B2B8, symSize: 0x90 }
  - { offset: 0x194A9, size: 0x8, addend: 0x0, symName: __RINvNtNtCs6IAuOt8vWmF_3syn3gen9visit_mut25visit_impl_item_const_mutNtNtCsdE2kXyKmOF1_11async_trait8receiver9HasMutPatEB17_, symObjAddr: 0x2A6F8, symBinAddr: 0x2B348, symSize: 0x90 }
  - { offset: 0x194EB, size: 0x8, addend: 0x0, symName: __RINvNtNtCs6IAuOt8vWmF_3syn3gen9visit_mut25visit_impl_item_const_mutNtNvNtCsdE2kXyKmOF1_11async_trait6expand29replace_impl_trait_with_infer25ReplaceImplTraitWithInferEB19_, symObjAddr: 0x2A788, symBinAddr: 0x2B3D8, symSize: 0x90 }
  - { offset: 0x1952D, size: 0x8, addend: 0x0, symName: __RINvNtNtCs6IAuOt8vWmF_3syn3gen9visit_mut25visit_impl_item_const_mutNtNvNtCsdE2kXyKmOF1_11async_trait6expand35contains_associated_type_impl_trait24AssociatedTypeImplTraitsEB19_, symObjAddr: 0x2A818, symBinAddr: 0x2B468, symSize: 0x90 }
  - { offset: 0x1956F, size: 0x8, addend: 0x0, symName: __RINvNtNtCs6IAuOt8vWmF_3syn3gen9visit_mut25visit_impl_item_macro_mutNtNtCsdE2kXyKmOF1_11async_trait8lifetime16CollectLifetimesEB17_, symObjAddr: 0x2A8A8, symBinAddr: 0x2B4F8, symSize: 0x50 }
  - { offset: 0x195B1, size: 0x8, addend: 0x0, symName: __RINvNtNtCs6IAuOt8vWmF_3syn3gen9visit_mut25visit_impl_item_macro_mutNtNtCsdE2kXyKmOF1_11async_trait8receiver9HasMutPatEB17_, symObjAddr: 0x2A8F8, symBinAddr: 0x2B548, symSize: 0x50 }
  - { offset: 0x195F3, size: 0x8, addend: 0x0, symName: __RINvNtNtCs6IAuOt8vWmF_3syn3gen9visit_mut25visit_impl_item_macro_mutNtNvNtCsdE2kXyKmOF1_11async_trait6expand29replace_impl_trait_with_infer25ReplaceImplTraitWithInferEB19_, symObjAddr: 0x2A948, symBinAddr: 0x2B598, symSize: 0x50 }
  - { offset: 0x19635, size: 0x8, addend: 0x0, symName: __RINvNtNtCs6IAuOt8vWmF_3syn3gen9visit_mut25visit_impl_item_macro_mutNtNvNtCsdE2kXyKmOF1_11async_trait6expand35contains_associated_type_impl_trait24AssociatedTypeImplTraitsEB19_, symObjAddr: 0x2A998, symBinAddr: 0x2B5E8, symSize: 0x50 }
  - { offset: 0x19677, size: 0x8, addend: 0x0, symName: __RINvNtNtCs6IAuOt8vWmF_3syn3gen9visit_mut25visit_macro_delimiter_mutNtNtCsdE2kXyKmOF1_11async_trait8lifetime16CollectLifetimesEB17_, symObjAddr: 0x2A9E8, symBinAddr: 0x2B638, symSize: 0xA8 }
  - { offset: 0x196B9, size: 0x8, addend: 0x0, symName: __RINvNtNtCs6IAuOt8vWmF_3syn3gen9visit_mut25visit_macro_delimiter_mutNtNtCsdE2kXyKmOF1_11async_trait8lifetime22AddLifetimeToImplTraitEB17_, symObjAddr: 0x2AA90, symBinAddr: 0x2B6E0, symSize: 0xA8 }
  - { offset: 0x196FB, size: 0x8, addend: 0x0, symName: __RINvNtNtCs6IAuOt8vWmF_3syn3gen9visit_mut25visit_macro_delimiter_mutNtNtCsdE2kXyKmOF1_11async_trait8receiver11ReplaceSelfEB17_, symObjAddr: 0x2AB38, symBinAddr: 0x2B788, symSize: 0xA8 }
  - { offset: 0x1973D, size: 0x8, addend: 0x0, symName: __RINvNtNtCs6IAuOt8vWmF_3syn3gen9visit_mut25visit_macro_delimiter_mutNtNtCsdE2kXyKmOF1_11async_trait8receiver7HasSelfEB17_, symObjAddr: 0x2ABE0, symBinAddr: 0x2B830, symSize: 0xA8 }
  - { offset: 0x1977F, size: 0x8, addend: 0x0, symName: __RINvNtNtCs6IAuOt8vWmF_3syn3gen9visit_mut25visit_macro_delimiter_mutNtNtCsdE2kXyKmOF1_11async_trait8receiver9HasMutPatEB17_, symObjAddr: 0x2AC88, symBinAddr: 0x2B8D8, symSize: 0xA8 }
  - { offset: 0x197C1, size: 0x8, addend: 0x0, symName: __RINvNtNtCs6IAuOt8vWmF_3syn3gen9visit_mut25visit_macro_delimiter_mutNtNvNtCsdE2kXyKmOF1_11async_trait6expand29replace_impl_trait_with_infer25ReplaceImplTraitWithInferEB19_, symObjAddr: 0x2AD30, symBinAddr: 0x2B980, symSize: 0xA8 }
  - { offset: 0x19803, size: 0x8, addend: 0x0, symName: __RINvNtNtCs6IAuOt8vWmF_3syn3gen9visit_mut25visit_macro_delimiter_mutNtNvNtCsdE2kXyKmOF1_11async_trait6expand35contains_associated_type_impl_trait24AssociatedTypeImplTraitsEB19_, symObjAddr: 0x2ADD8, symBinAddr: 0x2BA28, symSize: 0xA8 }
  - { offset: 0x19845, size: 0x8, addend: 0x0, symName: __RINvNtNtCs6IAuOt8vWmF_3syn3gen9visit_mut25visit_meta_name_value_mutNtNtCsdE2kXyKmOF1_11async_trait8lifetime16CollectLifetimesEB17_, symObjAddr: 0x2AE80, symBinAddr: 0x2BAD0, symSize: 0x50 }
  - { offset: 0x19887, size: 0x8, addend: 0x0, symName: __RINvNtNtCs6IAuOt8vWmF_3syn3gen9visit_mut25visit_meta_name_value_mutNtNtCsdE2kXyKmOF1_11async_trait8lifetime22AddLifetimeToImplTraitEB17_, symObjAddr: 0x2AED0, symBinAddr: 0x2BB20, symSize: 0x50 }
  - { offset: 0x198C9, size: 0x8, addend: 0x0, symName: __RINvNtNtCs6IAuOt8vWmF_3syn3gen9visit_mut25visit_meta_name_value_mutNtNtCsdE2kXyKmOF1_11async_trait8receiver11ReplaceSelfEB17_, symObjAddr: 0x2AF20, symBinAddr: 0x2BB70, symSize: 0x50 }
  - { offset: 0x1990B, size: 0x8, addend: 0x0, symName: __RINvNtNtCs6IAuOt8vWmF_3syn3gen9visit_mut25visit_meta_name_value_mutNtNtCsdE2kXyKmOF1_11async_trait8receiver7HasSelfEB17_, symObjAddr: 0x2AF70, symBinAddr: 0x2BBC0, symSize: 0x50 }
  - { offset: 0x1994D, size: 0x8, addend: 0x0, symName: __RINvNtNtCs6IAuOt8vWmF_3syn3gen9visit_mut25visit_meta_name_value_mutNtNtCsdE2kXyKmOF1_11async_trait8receiver9HasMutPatEB17_, symObjAddr: 0x2AFC0, symBinAddr: 0x2BC10, symSize: 0x50 }
  - { offset: 0x1998F, size: 0x8, addend: 0x0, symName: __RINvNtNtCs6IAuOt8vWmF_3syn3gen9visit_mut25visit_meta_name_value_mutNtNvNtCsdE2kXyKmOF1_11async_trait6expand29replace_impl_trait_with_infer25ReplaceImplTraitWithInferEB19_, symObjAddr: 0x2B010, symBinAddr: 0x2BC60, symSize: 0x50 }
  - { offset: 0x199D1, size: 0x8, addend: 0x0, symName: __RINvNtNtCs6IAuOt8vWmF_3syn3gen9visit_mut25visit_meta_name_value_mutNtNvNtCsdE2kXyKmOF1_11async_trait6expand35contains_associated_type_impl_trait24AssociatedTypeImplTraitsEB19_, symObjAddr: 0x2B060, symBinAddr: 0x2BCB0, symSize: 0x50 }
  - { offset: 0x19A13, size: 0x8, addend: 0x0, symName: __RINvNtNtCs6IAuOt8vWmF_3syn3gen9visit_mut25visit_precise_capture_mutNtNtCsdE2kXyKmOF1_11async_trait8lifetime16CollectLifetimesEB17_, symObjAddr: 0x2B0B0, symBinAddr: 0x2BD00, symSize: 0xC8 }
  - { offset: 0x19AA8, size: 0x8, addend: 0x0, symName: __RINvNtNtCs6IAuOt8vWmF_3syn3gen9visit_mut25visit_precise_capture_mutNtNtCsdE2kXyKmOF1_11async_trait8lifetime22AddLifetimeToImplTraitEB17_, symObjAddr: 0x2B178, symBinAddr: 0x2BDC8, symSize: 0xC8 }
  - { offset: 0x19B3D, size: 0x8, addend: 0x0, symName: __RINvNtNtCs6IAuOt8vWmF_3syn3gen9visit_mut25visit_precise_capture_mutNtNtCsdE2kXyKmOF1_11async_trait8receiver11ReplaceSelfEB17_, symObjAddr: 0x2B240, symBinAddr: 0x2BE90, symSize: 0xC8 }
  - { offset: 0x19BD2, size: 0x8, addend: 0x0, symName: __RINvNtNtCs6IAuOt8vWmF_3syn3gen9visit_mut25visit_precise_capture_mutNtNtCsdE2kXyKmOF1_11async_trait8receiver7HasSelfEB17_, symObjAddr: 0x2B308, symBinAddr: 0x2BF58, symSize: 0xC8 }
  - { offset: 0x19C67, size: 0x8, addend: 0x0, symName: __RINvNtNtCs6IAuOt8vWmF_3syn3gen9visit_mut25visit_precise_capture_mutNtNtCsdE2kXyKmOF1_11async_trait8receiver9HasMutPatEB17_, symObjAddr: 0x2B3D0, symBinAddr: 0x2C020, symSize: 0xC8 }
  - { offset: 0x19CFC, size: 0x8, addend: 0x0, symName: __RINvNtNtCs6IAuOt8vWmF_3syn3gen9visit_mut25visit_precise_capture_mutNtNvNtCsdE2kXyKmOF1_11async_trait6expand29replace_impl_trait_with_infer25ReplaceImplTraitWithInferEB19_, symObjAddr: 0x2B498, symBinAddr: 0x2C0E8, symSize: 0xC8 }
  - { offset: 0x19D91, size: 0x8, addend: 0x0, symName: __RINvNtNtCs6IAuOt8vWmF_3syn3gen9visit_mut25visit_precise_capture_mutNtNvNtCsdE2kXyKmOF1_11async_trait6expand35contains_associated_type_impl_trait24AssociatedTypeImplTraitsEB19_, symObjAddr: 0x2B560, symBinAddr: 0x2C1B0, symSize: 0xC8 }
  - { offset: 0x19E26, size: 0x8, addend: 0x0, symName: __RINvNtNtCs6IAuOt8vWmF_3syn3gen9visit_mut25visit_trait_item_type_mutNtNtCsdE2kXyKmOF1_11async_trait8lifetime16CollectLifetimesEB17_, symObjAddr: 0x2B628, symBinAddr: 0x2C278, symSize: 0x148 }
  - { offset: 0x19ED1, size: 0x8, addend: 0x0, symName: __RINvNtNtCs6IAuOt8vWmF_3syn3gen9visit_mut25visit_trait_item_type_mutNtNtCsdE2kXyKmOF1_11async_trait8receiver9HasMutPatEB17_, symObjAddr: 0x2B770, symBinAddr: 0x2C3C0, symSize: 0x148 }
  - { offset: 0x19F7C, size: 0x8, addend: 0x0, symName: __RINvNtNtCs6IAuOt8vWmF_3syn3gen9visit_mut25visit_trait_item_type_mutNtNvNtCsdE2kXyKmOF1_11async_trait6expand29replace_impl_trait_with_infer25ReplaceImplTraitWithInferEB19_, symObjAddr: 0x2B8B8, symBinAddr: 0x2C508, symSize: 0x148 }
  - { offset: 0x1A027, size: 0x8, addend: 0x0, symName: __RINvNtNtCs6IAuOt8vWmF_3syn3gen9visit_mut25visit_trait_item_type_mutNtNvNtCsdE2kXyKmOF1_11async_trait6expand35contains_associated_type_impl_trait24AssociatedTypeImplTraitsEB19_, symObjAddr: 0x2BA00, symBinAddr: 0x2C650, symSize: 0x148 }
  - { offset: 0x1A0D2, size: 0x8, addend: 0x0, symName: __RINvNtNtCs6IAuOt8vWmF_3syn3gen9visit_mut25visit_type_impl_trait_mutNtNtCsdE2kXyKmOF1_11async_trait8lifetime16CollectLifetimesEB17_, symObjAddr: 0x2BB48, symBinAddr: 0x2C798, symSize: 0xC8 }
  - { offset: 0x1A167, size: 0x8, addend: 0x0, symName: __RINvNtNtCs6IAuOt8vWmF_3syn3gen9visit_mut25visit_type_impl_trait_mutNtNtCsdE2kXyKmOF1_11async_trait8lifetime22AddLifetimeToImplTraitEB17_, symObjAddr: 0x2BC10, symBinAddr: 0x2C860, symSize: 0xC8 }
  - { offset: 0x1A1FC, size: 0x8, addend: 0x0, symName: __RINvNtNtCs6IAuOt8vWmF_3syn3gen9visit_mut25visit_type_impl_trait_mutNtNtCsdE2kXyKmOF1_11async_trait8receiver11ReplaceSelfEB17_, symObjAddr: 0x2BCD8, symBinAddr: 0x2C928, symSize: 0xC8 }
  - { offset: 0x1A291, size: 0x8, addend: 0x0, symName: __RINvNtNtCs6IAuOt8vWmF_3syn3gen9visit_mut25visit_type_impl_trait_mutNtNtCsdE2kXyKmOF1_11async_trait8receiver7HasSelfEB17_, symObjAddr: 0x2BDA0, symBinAddr: 0x2C9F0, symSize: 0xC8 }
  - { offset: 0x1A326, size: 0x8, addend: 0x0, symName: __RINvNtNtCs6IAuOt8vWmF_3syn3gen9visit_mut25visit_type_impl_trait_mutNtNtCsdE2kXyKmOF1_11async_trait8receiver9HasMutPatEB17_, symObjAddr: 0x2BE68, symBinAddr: 0x2CAB8, symSize: 0xC8 }
  - { offset: 0x1A3BB, size: 0x8, addend: 0x0, symName: __RINvNtNtCs6IAuOt8vWmF_3syn3gen9visit_mut25visit_type_impl_trait_mutNtNvNtCsdE2kXyKmOF1_11async_trait6expand29replace_impl_trait_with_infer25ReplaceImplTraitWithInferEB19_, symObjAddr: 0x2BF30, symBinAddr: 0x2CB80, symSize: 0xC8 }
  - { offset: 0x1A450, size: 0x8, addend: 0x0, symName: __RINvNtNtCs6IAuOt8vWmF_3syn3gen9visit_mut25visit_type_impl_trait_mutNtNvNtCsdE2kXyKmOF1_11async_trait6expand35contains_associated_type_impl_trait24AssociatedTypeImplTraitsEB19_, symObjAddr: 0x2BFF8, symBinAddr: 0x2CC48, symSize: 0xC8 }
  - { offset: 0x1A4E5, size: 0x8, addend: 0x0, symName: __RINvNtNtCs6IAuOt8vWmF_3syn3gen9visit_mut25visit_where_predicate_mutNtNtCsdE2kXyKmOF1_11async_trait8lifetime16CollectLifetimesEB17_, symObjAddr: 0x2C0C0, symBinAddr: 0x2CD10, symSize: 0x98 }
  - { offset: 0x1A55B, size: 0x8, addend: 0x0, symName: __RINvNtNtCs6IAuOt8vWmF_3syn3gen9visit_mut25visit_where_predicate_mutNtNtCsdE2kXyKmOF1_11async_trait8receiver7HasSelfEB17_, symObjAddr: 0x2C158, symBinAddr: 0x2CDA8, symSize: 0x98 }
  - { offset: 0x1A5D1, size: 0x8, addend: 0x0, symName: __RINvNtNtCs6IAuOt8vWmF_3syn3gen9visit_mut25visit_where_predicate_mutNtNtCsdE2kXyKmOF1_11async_trait8receiver9HasMutPatEB17_, symObjAddr: 0x2C1F0, symBinAddr: 0x2CE40, symSize: 0x98 }
  - { offset: 0x1A647, size: 0x8, addend: 0x0, symName: __RINvNtNtCs6IAuOt8vWmF_3syn3gen9visit_mut25visit_where_predicate_mutNtNvNtCsdE2kXyKmOF1_11async_trait6expand29replace_impl_trait_with_infer25ReplaceImplTraitWithInferEB19_, symObjAddr: 0x2C288, symBinAddr: 0x2CED8, symSize: 0x98 }
  - { offset: 0x1A6BD, size: 0x8, addend: 0x0, symName: __RINvNtNtCs6IAuOt8vWmF_3syn3gen9visit_mut25visit_where_predicate_mutNtNvNtCsdE2kXyKmOF1_11async_trait6expand35contains_associated_type_impl_trait24AssociatedTypeImplTraitsEB19_, symObjAddr: 0x2C320, symBinAddr: 0x2CF70, symSize: 0x98 }
  - { offset: 0x1A733, size: 0x8, addend: 0x0, symName: __RINvNtNtCs6IAuOt8vWmF_3syn3gen9visit_mut26visit_expr_method_call_mutNtNtCsdE2kXyKmOF1_11async_trait8lifetime16CollectLifetimesEB18_, symObjAddr: 0x2C3B8, symBinAddr: 0x2D008, symSize: 0x170 }
  - { offset: 0x1A7DE, size: 0x8, addend: 0x0, symName: __RINvNtNtCs6IAuOt8vWmF_3syn3gen9visit_mut26visit_expr_method_call_mutNtNtCsdE2kXyKmOF1_11async_trait8receiver11ReplaceSelfEB18_, symObjAddr: 0x2C528, symBinAddr: 0x2D178, symSize: 0x170 }
  - { offset: 0x1A889, size: 0x8, addend: 0x0, symName: __RINvNtNtCs6IAuOt8vWmF_3syn3gen9visit_mut26visit_expr_method_call_mutNtNtCsdE2kXyKmOF1_11async_trait8receiver7HasSelfEB18_, symObjAddr: 0x2C698, symBinAddr: 0x2D2E8, symSize: 0x170 }
  - { offset: 0x1A934, size: 0x8, addend: 0x0, symName: __RINvNtNtCs6IAuOt8vWmF_3syn3gen9visit_mut26visit_expr_method_call_mutNtNtCsdE2kXyKmOF1_11async_trait8receiver9HasMutPatEB18_, symObjAddr: 0x2C808, symBinAddr: 0x2D458, symSize: 0x170 }
  - { offset: 0x1A9DF, size: 0x8, addend: 0x0, symName: __RINvNtNtCs6IAuOt8vWmF_3syn3gen9visit_mut26visit_expr_method_call_mutNtNvNtCsdE2kXyKmOF1_11async_trait6expand29replace_impl_trait_with_infer25ReplaceImplTraitWithInferEB1a_, symObjAddr: 0x2C978, symBinAddr: 0x2D5C8, symSize: 0x170 }
  - { offset: 0x1AA8A, size: 0x8, addend: 0x0, symName: __RINvNtNtCs6IAuOt8vWmF_3syn3gen9visit_mut26visit_expr_method_call_mutNtNvNtCsdE2kXyKmOF1_11async_trait6expand35contains_associated_type_impl_trait24AssociatedTypeImplTraitsEB1a_, symObjAddr: 0x2CAE8, symBinAddr: 0x2D738, symSize: 0x170 }
  - { offset: 0x1AB35, size: 0x8, addend: 0x0, symName: __RINvNtNtCs6IAuOt8vWmF_3syn3gen9visit_mut26visit_field_mutability_mutNtNtCsdE2kXyKmOF1_11async_trait8lifetime16CollectLifetimesEB18_, symObjAddr: 0x2CC58, symBinAddr: 0x2D8A8, symSize: 0x24 }
  - { offset: 0x1AB77, size: 0x8, addend: 0x0, symName: __RINvNtNtCs6IAuOt8vWmF_3syn3gen9visit_mut26visit_field_mutability_mutNtNtCsdE2kXyKmOF1_11async_trait8receiver9HasMutPatEB18_, symObjAddr: 0x2CC7C, symBinAddr: 0x2D8CC, symSize: 0x24 }
  - { offset: 0x1ABB9, size: 0x8, addend: 0x0, symName: __RINvNtNtCs6IAuOt8vWmF_3syn3gen9visit_mut26visit_field_mutability_mutNtNvNtCsdE2kXyKmOF1_11async_trait6expand29replace_impl_trait_with_infer25ReplaceImplTraitWithInferEB1a_, symObjAddr: 0x2CCA0, symBinAddr: 0x2D8F0, symSize: 0x24 }
  - { offset: 0x1ABFB, size: 0x8, addend: 0x0, symName: __RINvNtNtCs6IAuOt8vWmF_3syn3gen9visit_mut26visit_field_mutability_mutNtNvNtCsdE2kXyKmOF1_11async_trait6expand35contains_associated_type_impl_trait24AssociatedTypeImplTraitsEB1a_, symObjAddr: 0x2CCC4, symBinAddr: 0x2D914, symSize: 0x24 }
  - { offset: 0x1AC3D, size: 0x8, addend: 0x0, symName: __RINvNtNtCs6IAuOt8vWmF_3syn3gen9visit_mut26visit_generic_argument_mutNtNtCsdE2kXyKmOF1_11async_trait8lifetime16CollectLifetimesEB18_, symObjAddr: 0x2CCE8, symBinAddr: 0x2D938, symSize: 0x1A8 }
  - { offset: 0x1AD2B, size: 0x8, addend: 0x0, symName: __RINvNtNtCs6IAuOt8vWmF_3syn3gen9visit_mut26visit_generic_argument_mutNtNtCsdE2kXyKmOF1_11async_trait8lifetime22AddLifetimeToImplTraitEB18_, symObjAddr: 0x2CE90, symBinAddr: 0x2DAE0, symSize: 0x1A8 }
  - { offset: 0x1AE19, size: 0x8, addend: 0x0, symName: __RINvNtNtCs6IAuOt8vWmF_3syn3gen9visit_mut26visit_generic_argument_mutNtNtCsdE2kXyKmOF1_11async_trait8receiver11ReplaceSelfEB18_, symObjAddr: 0x2D038, symBinAddr: 0x2DC88, symSize: 0x1A8 }
  - { offset: 0x1AF07, size: 0x8, addend: 0x0, symName: __RINvNtNtCs6IAuOt8vWmF_3syn3gen9visit_mut26visit_generic_argument_mutNtNtCsdE2kXyKmOF1_11async_trait8receiver7HasSelfEB18_, symObjAddr: 0x2D1E0, symBinAddr: 0x2DE30, symSize: 0x1A8 }
  - { offset: 0x1AFF5, size: 0x8, addend: 0x0, symName: __RINvNtNtCs6IAuOt8vWmF_3syn3gen9visit_mut26visit_generic_argument_mutNtNtCsdE2kXyKmOF1_11async_trait8receiver9HasMutPatEB18_, symObjAddr: 0x2D388, symBinAddr: 0x2DFD8, symSize: 0x1A8 }
  - { offset: 0x1B0E3, size: 0x8, addend: 0x0, symName: __RINvNtNtCs6IAuOt8vWmF_3syn3gen9visit_mut26visit_generic_argument_mutNtNvNtCsdE2kXyKmOF1_11async_trait6expand29replace_impl_trait_with_infer25ReplaceImplTraitWithInferEB1a_, symObjAddr: 0x2D530, symBinAddr: 0x2E180, symSize: 0x1A8 }
  - { offset: 0x1B1D1, size: 0x8, addend: 0x0, symName: __RINvNtNtCs6IAuOt8vWmF_3syn3gen9visit_mut26visit_generic_argument_mutNtNvNtCsdE2kXyKmOF1_11async_trait6expand35contains_associated_type_impl_trait24AssociatedTypeImplTraitsEB1a_, symObjAddr: 0x2D6D8, symBinAddr: 0x2E328, symSize: 0x1A8 }
  - { offset: 0x1B2BF, size: 0x8, addend: 0x0, symName: __RINvNtNtCs6IAuOt8vWmF_3syn3gen9visit_mut26visit_item_foreign_mod_mutNtNtCsdE2kXyKmOF1_11async_trait8lifetime16CollectLifetimesEB18_, symObjAddr: 0x2D880, symBinAddr: 0x2E4D0, symSize: 0xB0 }
  - { offset: 0x1B335, size: 0x8, addend: 0x0, symName: __RINvNtNtCs6IAuOt8vWmF_3syn3gen9visit_mut26visit_item_foreign_mod_mutNtNtCsdE2kXyKmOF1_11async_trait8receiver9HasMutPatEB18_, symObjAddr: 0x2D930, symBinAddr: 0x2E580, symSize: 0xB0 }
  - { offset: 0x1B3AB, size: 0x8, addend: 0x0, symName: __RINvNtNtCs6IAuOt8vWmF_3syn3gen9visit_mut26visit_item_foreign_mod_mutNtNvNtCsdE2kXyKmOF1_11async_trait6expand29replace_impl_trait_with_infer25ReplaceImplTraitWithInferEB1a_, symObjAddr: 0x2D9E0, symBinAddr: 0x2E630, symSize: 0xB0 }
  - { offset: 0x1B421, size: 0x8, addend: 0x0, symName: __RINvNtNtCs6IAuOt8vWmF_3syn3gen9visit_mut26visit_item_foreign_mod_mutNtNvNtCsdE2kXyKmOF1_11async_trait6expand35contains_associated_type_impl_trait24AssociatedTypeImplTraitsEB1a_, symObjAddr: 0x2DA90, symBinAddr: 0x2E6E0, symSize: 0xB0 }
  - { offset: 0x1B497, size: 0x8, addend: 0x0, symName: __RINvNtNtCs6IAuOt8vWmF_3syn3gen9visit_mut26visit_item_trait_alias_mutNtNtCsdE2kXyKmOF1_11async_trait8lifetime16CollectLifetimesEB18_, symObjAddr: 0x2DB40, symBinAddr: 0x2E790, symSize: 0x100 }
  - { offset: 0x1B52C, size: 0x8, addend: 0x0, symName: __RINvNtNtCs6IAuOt8vWmF_3syn3gen9visit_mut26visit_item_trait_alias_mutNtNtCsdE2kXyKmOF1_11async_trait8receiver9HasMutPatEB18_, symObjAddr: 0x2DC40, symBinAddr: 0x2E890, symSize: 0x100 }
  - { offset: 0x1B5C1, size: 0x8, addend: 0x0, symName: __RINvNtNtCs6IAuOt8vWmF_3syn3gen9visit_mut26visit_item_trait_alias_mutNtNvNtCsdE2kXyKmOF1_11async_trait6expand29replace_impl_trait_with_infer25ReplaceImplTraitWithInferEB1a_, symObjAddr: 0x2DD40, symBinAddr: 0x2E990, symSize: 0x100 }
  - { offset: 0x1B656, size: 0x8, addend: 0x0, symName: __RINvNtNtCs6IAuOt8vWmF_3syn3gen9visit_mut26visit_item_trait_alias_mutNtNvNtCsdE2kXyKmOF1_11async_trait6expand35contains_associated_type_impl_trait24AssociatedTypeImplTraitsEB1a_, symObjAddr: 0x2DE40, symBinAddr: 0x2EA90, symSize: 0x100 }
  - { offset: 0x1B6EB, size: 0x8, addend: 0x0, symName: __RINvNtNtCs6IAuOt8vWmF_3syn3gen9visit_mut26visit_pat_tuple_struct_mutNtNtCsdE2kXyKmOF1_11async_trait8lifetime16CollectLifetimesEB18_, symObjAddr: 0x2DF40, symBinAddr: 0x2EB90, symSize: 0x134 }
  - { offset: 0x1B79E, size: 0x8, addend: 0x0, symName: __RINvNtNtCs6IAuOt8vWmF_3syn3gen9visit_mut26visit_pat_tuple_struct_mutNtNtCsdE2kXyKmOF1_11async_trait8receiver11ReplaceSelfEB18_, symObjAddr: 0x2E074, symBinAddr: 0x2ECC4, symSize: 0x134 }
  - { offset: 0x1B851, size: 0x8, addend: 0x0, symName: __RINvNtNtCs6IAuOt8vWmF_3syn3gen9visit_mut26visit_pat_tuple_struct_mutNtNtCsdE2kXyKmOF1_11async_trait8receiver7HasSelfEB18_, symObjAddr: 0x2E1A8, symBinAddr: 0x2EDF8, symSize: 0x134 }
  - { offset: 0x1B904, size: 0x8, addend: 0x0, symName: __RINvNtNtCs6IAuOt8vWmF_3syn3gen9visit_mut26visit_pat_tuple_struct_mutNtNtCsdE2kXyKmOF1_11async_trait8receiver9HasMutPatEB18_, symObjAddr: 0x2E2DC, symBinAddr: 0x2EF2C, symSize: 0x134 }
  - { offset: 0x1B9B7, size: 0x8, addend: 0x0, symName: __RINvNtNtCs6IAuOt8vWmF_3syn3gen9visit_mut26visit_pat_tuple_struct_mutNtNvNtCsdE2kXyKmOF1_11async_trait6expand29replace_impl_trait_with_infer25ReplaceImplTraitWithInferEB1a_, symObjAddr: 0x2E410, symBinAddr: 0x2F060, symSize: 0x134 }
  - { offset: 0x1BA6A, size: 0x8, addend: 0x0, symName: __RINvNtNtCs6IAuOt8vWmF_3syn3gen9visit_mut26visit_pat_tuple_struct_mutNtNvNtCsdE2kXyKmOF1_11async_trait6expand35contains_associated_type_impl_trait24AssociatedTypeImplTraitsEB1a_, symObjAddr: 0x2E544, symBinAddr: 0x2F194, symSize: 0x134 }
  - { offset: 0x1BB1D, size: 0x8, addend: 0x0, symName: __RINvNtNtCs6IAuOt8vWmF_3syn3gen9visit_mut26visit_trait_item_const_mutNtNtCsdE2kXyKmOF1_11async_trait8lifetime16CollectLifetimesEB18_, symObjAddr: 0x2E678, symBinAddr: 0x2F2C8, symSize: 0xC4 }
  - { offset: 0x1BB7D, size: 0x8, addend: 0x0, symName: __RINvNtNtCs6IAuOt8vWmF_3syn3gen9visit_mut26visit_trait_item_const_mutNtNtCsdE2kXyKmOF1_11async_trait8receiver9HasMutPatEB18_, symObjAddr: 0x2E73C, symBinAddr: 0x2F38C, symSize: 0xC4 }
  - { offset: 0x1BBDD, size: 0x8, addend: 0x0, symName: __RINvNtNtCs6IAuOt8vWmF_3syn3gen9visit_mut26visit_trait_item_const_mutNtNvNtCsdE2kXyKmOF1_11async_trait6expand29replace_impl_trait_with_infer25ReplaceImplTraitWithInferEB1a_, symObjAddr: 0x2E800, symBinAddr: 0x2F450, symSize: 0xC4 }
  - { offset: 0x1BC3D, size: 0x8, addend: 0x0, symName: __RINvNtNtCs6IAuOt8vWmF_3syn3gen9visit_mut26visit_trait_item_const_mutNtNvNtCsdE2kXyKmOF1_11async_trait6expand35contains_associated_type_impl_trait24AssociatedTypeImplTraitsEB1a_, symObjAddr: 0x2E8C4, symBinAddr: 0x2F514, symSize: 0xC4 }
  - { offset: 0x1BC9D, size: 0x8, addend: 0x0, symName: __RINvNtNtCs6IAuOt8vWmF_3syn3gen9visit_mut26visit_trait_item_macro_mutNtNtCsdE2kXyKmOF1_11async_trait8lifetime16CollectLifetimesEB18_, symObjAddr: 0x2E988, symBinAddr: 0x2F5D8, symSize: 0x50 }
  - { offset: 0x1BCDF, size: 0x8, addend: 0x0, symName: __RINvNtNtCs6IAuOt8vWmF_3syn3gen9visit_mut26visit_trait_item_macro_mutNtNtCsdE2kXyKmOF1_11async_trait8receiver9HasMutPatEB18_, symObjAddr: 0x2E9D8, symBinAddr: 0x2F628, symSize: 0x50 }
  - { offset: 0x1BD21, size: 0x8, addend: 0x0, symName: __RINvNtNtCs6IAuOt8vWmF_3syn3gen9visit_mut26visit_trait_item_macro_mutNtNvNtCsdE2kXyKmOF1_11async_trait6expand29replace_impl_trait_with_infer25ReplaceImplTraitWithInferEB1a_, symObjAddr: 0x2EA28, symBinAddr: 0x2F678, symSize: 0x50 }
  - { offset: 0x1BD63, size: 0x8, addend: 0x0, symName: __RINvNtNtCs6IAuOt8vWmF_3syn3gen9visit_mut26visit_trait_item_macro_mutNtNvNtCsdE2kXyKmOF1_11async_trait6expand35contains_associated_type_impl_trait24AssociatedTypeImplTraitsEB1a_, symObjAddr: 0x2EA78, symBinAddr: 0x2F6C8, symSize: 0x50 }
  - { offset: 0x1BDA5, size: 0x8, addend: 0x0, symName: __RINvNtNtCs6IAuOt8vWmF_3syn3gen9visit_mut26visit_type_param_bound_mutNtNtCsdE2kXyKmOF1_11async_trait8lifetime16CollectLifetimesEB18_, symObjAddr: 0x2EAC8, symBinAddr: 0x2F718, symSize: 0x12C }
  - { offset: 0x1BE57, size: 0x8, addend: 0x0, symName: __RINvNtNtCs6IAuOt8vWmF_3syn3gen9visit_mut26visit_type_param_bound_mutNtNtCsdE2kXyKmOF1_11async_trait8lifetime22AddLifetimeToImplTraitEB18_, symObjAddr: 0x2EBF4, symBinAddr: 0x2F844, symSize: 0x12C }
  - { offset: 0x1BF09, size: 0x8, addend: 0x0, symName: __RINvNtNtCs6IAuOt8vWmF_3syn3gen9visit_mut26visit_type_param_bound_mutNtNtCsdE2kXyKmOF1_11async_trait8receiver11ReplaceSelfEB18_, symObjAddr: 0x2ED20, symBinAddr: 0x2F970, symSize: 0x12C }
  - { offset: 0x1BFBB, size: 0x8, addend: 0x0, symName: __RINvNtNtCs6IAuOt8vWmF_3syn3gen9visit_mut26visit_type_param_bound_mutNtNtCsdE2kXyKmOF1_11async_trait8receiver7HasSelfEB18_, symObjAddr: 0x2EE4C, symBinAddr: 0x2FA9C, symSize: 0x12C }
  - { offset: 0x1C06D, size: 0x8, addend: 0x0, symName: __RINvNtNtCs6IAuOt8vWmF_3syn3gen9visit_mut26visit_type_param_bound_mutNtNtCsdE2kXyKmOF1_11async_trait8receiver9HasMutPatEB18_, symObjAddr: 0x2EF78, symBinAddr: 0x2FBC8, symSize: 0x12C }
  - { offset: 0x1C11F, size: 0x8, addend: 0x0, symName: __RINvNtNtCs6IAuOt8vWmF_3syn3gen9visit_mut26visit_type_param_bound_mutNtNvNtCsdE2kXyKmOF1_11async_trait6expand29replace_impl_trait_with_infer25ReplaceImplTraitWithInferEB1a_, symObjAddr: 0x2F0A4, symBinAddr: 0x2FCF4, symSize: 0x12C }
  - { offset: 0x1C1D1, size: 0x8, addend: 0x0, symName: __RINvNtNtCs6IAuOt8vWmF_3syn3gen9visit_mut26visit_type_param_bound_mutNtNvNtCsdE2kXyKmOF1_11async_trait6expand35contains_associated_type_impl_trait24AssociatedTypeImplTraitsEB1a_, symObjAddr: 0x2F1D0, symBinAddr: 0x2FE20, symSize: 0x12C }
  - { offset: 0x1C283, size: 0x8, addend: 0x0, symName: __RINvNtNtCs6IAuOt8vWmF_3syn3gen9visit_mut27visit_foreign_item_type_mutNtNtCsdE2kXyKmOF1_11async_trait8lifetime16CollectLifetimesEB19_, symObjAddr: 0x2F2FC, symBinAddr: 0x2FF4C, symSize: 0x70 }
  - { offset: 0x1C2C5, size: 0x8, addend: 0x0, symName: __RINvNtNtCs6IAuOt8vWmF_3syn3gen9visit_mut27visit_foreign_item_type_mutNtNtCsdE2kXyKmOF1_11async_trait8receiver9HasMutPatEB19_, symObjAddr: 0x2F36C, symBinAddr: 0x2FFBC, symSize: 0x70 }
  - { offset: 0x1C307, size: 0x8, addend: 0x0, symName: __RINvNtNtCs6IAuOt8vWmF_3syn3gen9visit_mut27visit_foreign_item_type_mutNtNvNtCsdE2kXyKmOF1_11async_trait6expand29replace_impl_trait_with_infer25ReplaceImplTraitWithInferEB1b_, symObjAddr: 0x2F3DC, symBinAddr: 0x3002C, symSize: 0x70 }
  - { offset: 0x1C349, size: 0x8, addend: 0x0, symName: __RINvNtNtCs6IAuOt8vWmF_3syn3gen9visit_mut27visit_foreign_item_type_mutNtNvNtCsdE2kXyKmOF1_11async_trait6expand35contains_associated_type_impl_trait24AssociatedTypeImplTraitsEB1b_, symObjAddr: 0x2F44C, symBinAddr: 0x3009C, symSize: 0x70 }
  - { offset: 0x1C38B, size: 0x8, addend: 0x0, symName: __RINvNtNtCs6IAuOt8vWmF_3syn3gen9visit_mut27visit_item_extern_crate_mutNtNtCsdE2kXyKmOF1_11async_trait8lifetime16CollectLifetimesEB19_, symObjAddr: 0x2F4BC, symBinAddr: 0x3010C, symSize: 0xB4 }
  - { offset: 0x1C3EB, size: 0x8, addend: 0x0, symName: __RINvNtNtCs6IAuOt8vWmF_3syn3gen9visit_mut27visit_item_extern_crate_mutNtNtCsdE2kXyKmOF1_11async_trait8receiver9HasMutPatEB19_, symObjAddr: 0x2F570, symBinAddr: 0x301C0, symSize: 0xB4 }
  - { offset: 0x1C44B, size: 0x8, addend: 0x0, symName: __RINvNtNtCs6IAuOt8vWmF_3syn3gen9visit_mut27visit_item_extern_crate_mutNtNvNtCsdE2kXyKmOF1_11async_trait6expand29replace_impl_trait_with_infer25ReplaceImplTraitWithInferEB1b_, symObjAddr: 0x2F624, symBinAddr: 0x30274, symSize: 0xB4 }
  - { offset: 0x1C4AB, size: 0x8, addend: 0x0, symName: __RINvNtNtCs6IAuOt8vWmF_3syn3gen9visit_mut27visit_item_extern_crate_mutNtNvNtCsdE2kXyKmOF1_11async_trait6expand35contains_associated_type_impl_trait24AssociatedTypeImplTraitsEB1b_, symObjAddr: 0x2F6D8, symBinAddr: 0x30328, symSize: 0xB4 }
  - { offset: 0x1C50B, size: 0x8, addend: 0x0, symName: __RINvNtNtCs6IAuOt8vWmF_3syn3gen9visit_mut27visit_static_mutability_mutNtNtCsdE2kXyKmOF1_11async_trait8lifetime16CollectLifetimesEB19_, symObjAddr: 0x2F78C, symBinAddr: 0x303DC, symSize: 0x60 }
  - { offset: 0x1C54D, size: 0x8, addend: 0x0, symName: __RINvNtNtCs6IAuOt8vWmF_3syn3gen9visit_mut27visit_static_mutability_mutNtNtCsdE2kXyKmOF1_11async_trait8receiver9HasMutPatEB19_, symObjAddr: 0x2F7EC, symBinAddr: 0x3043C, symSize: 0x60 }
  - { offset: 0x1C58F, size: 0x8, addend: 0x0, symName: __RINvNtNtCs6IAuOt8vWmF_3syn3gen9visit_mut27visit_static_mutability_mutNtNvNtCsdE2kXyKmOF1_11async_trait6expand29replace_impl_trait_with_infer25ReplaceImplTraitWithInferEB1b_, symObjAddr: 0x2F84C, symBinAddr: 0x3049C, symSize: 0x60 }
  - { offset: 0x1C5D1, size: 0x8, addend: 0x0, symName: __RINvNtNtCs6IAuOt8vWmF_3syn3gen9visit_mut27visit_static_mutability_mutNtNvNtCsdE2kXyKmOF1_11async_trait6expand35contains_associated_type_impl_trait24AssociatedTypeImplTraitsEB1b_, symObjAddr: 0x2F8AC, symBinAddr: 0x304FC, symSize: 0x60 }
  - { offset: 0x1C613, size: 0x8, addend: 0x0, symName: __RINvNtNtCs6IAuOt8vWmF_3syn3gen9visit_mut27visit_type_trait_object_mutNtNtCsdE2kXyKmOF1_11async_trait8lifetime16CollectLifetimesEB19_, symObjAddr: 0x2F90C, symBinAddr: 0x3055C, symSize: 0xC8 }
  - { offset: 0x1C6A8, size: 0x8, addend: 0x0, symName: __RINvNtNtCs6IAuOt8vWmF_3syn3gen9visit_mut27visit_type_trait_object_mutNtNtCsdE2kXyKmOF1_11async_trait8lifetime22AddLifetimeToImplTraitEB19_, symObjAddr: 0x2F9D4, symBinAddr: 0x30624, symSize: 0xC8 }
  - { offset: 0x1C73D, size: 0x8, addend: 0x0, symName: __RINvNtNtCs6IAuOt8vWmF_3syn3gen9visit_mut27visit_type_trait_object_mutNtNtCsdE2kXyKmOF1_11async_trait8receiver11ReplaceSelfEB19_, symObjAddr: 0x2FA9C, symBinAddr: 0x306EC, symSize: 0xC8 }
  - { offset: 0x1C7D2, size: 0x8, addend: 0x0, symName: __RINvNtNtCs6IAuOt8vWmF_3syn3gen9visit_mut27visit_type_trait_object_mutNtNtCsdE2kXyKmOF1_11async_trait8receiver7HasSelfEB19_, symObjAddr: 0x2FB64, symBinAddr: 0x307B4, symSize: 0xC8 }
  - { offset: 0x1C867, size: 0x8, addend: 0x0, symName: __RINvNtNtCs6IAuOt8vWmF_3syn3gen9visit_mut27visit_type_trait_object_mutNtNtCsdE2kXyKmOF1_11async_trait8receiver9HasMutPatEB19_, symObjAddr: 0x2FC2C, symBinAddr: 0x3087C, symSize: 0xC8 }
  - { offset: 0x1C8FC, size: 0x8, addend: 0x0, symName: __RINvNtNtCs6IAuOt8vWmF_3syn3gen9visit_mut27visit_type_trait_object_mutNtNvNtCsdE2kXyKmOF1_11async_trait6expand29replace_impl_trait_with_infer25ReplaceImplTraitWithInferEB1b_, symObjAddr: 0x2FCF4, symBinAddr: 0x30944, symSize: 0xC8 }
  - { offset: 0x1C991, size: 0x8, addend: 0x0, symName: __RINvNtNtCs6IAuOt8vWmF_3syn3gen9visit_mut27visit_type_trait_object_mutNtNvNtCsdE2kXyKmOF1_11async_trait6expand35contains_associated_type_impl_trait24AssociatedTypeImplTraitsEB1b_, symObjAddr: 0x2FDBC, symBinAddr: 0x30A0C, symSize: 0xC8 }
  - { offset: 0x1CA26, size: 0x8, addend: 0x0, symName: __RINvNtNtCs6IAuOt8vWmF_3syn3gen9visit_mut28visit_foreign_item_macro_mutNtNtCsdE2kXyKmOF1_11async_trait8lifetime16CollectLifetimesEB1a_, symObjAddr: 0x2FE84, symBinAddr: 0x30AD4, symSize: 0x50 }
  - { offset: 0x1CA68, size: 0x8, addend: 0x0, symName: __RINvNtNtCs6IAuOt8vWmF_3syn3gen9visit_mut28visit_foreign_item_macro_mutNtNtCsdE2kXyKmOF1_11async_trait8receiver9HasMutPatEB1a_, symObjAddr: 0x2FED4, symBinAddr: 0x30B24, symSize: 0x50 }
  - { offset: 0x1CAAA, size: 0x8, addend: 0x0, symName: __RINvNtNtCs6IAuOt8vWmF_3syn3gen9visit_mut28visit_foreign_item_macro_mutNtNvNtCsdE2kXyKmOF1_11async_trait6expand29replace_impl_trait_with_infer25ReplaceImplTraitWithInferEB1c_, symObjAddr: 0x2FF24, symBinAddr: 0x30B74, symSize: 0x50 }
  - { offset: 0x1CAEC, size: 0x8, addend: 0x0, symName: __RINvNtNtCs6IAuOt8vWmF_3syn3gen9visit_mut28visit_foreign_item_macro_mutNtNvNtCsdE2kXyKmOF1_11async_trait6expand35contains_associated_type_impl_trait24AssociatedTypeImplTraitsEB1c_, symObjAddr: 0x2FF74, symBinAddr: 0x30BC4, symSize: 0x50 }
  - { offset: 0x1CB2E, size: 0x8, addend: 0x0, symName: __RINvNtNtCs6IAuOt8vWmF_3syn3gen9visit_mut28visit_pointer_mutability_mutNtNtCsdE2kXyKmOF1_11async_trait8lifetime16CollectLifetimesEB1a_, symObjAddr: 0x2FFC4, symBinAddr: 0x30C14, symSize: 0x6C }
  - { offset: 0x1CB70, size: 0x8, addend: 0x0, symName: __RINvNtNtCs6IAuOt8vWmF_3syn3gen9visit_mut28visit_pointer_mutability_mutNtNtCsdE2kXyKmOF1_11async_trait8receiver11ReplaceSelfEB1a_, symObjAddr: 0x30030, symBinAddr: 0x30C80, symSize: 0x6C }
  - { offset: 0x1CBB2, size: 0x8, addend: 0x0, symName: __RINvNtNtCs6IAuOt8vWmF_3syn3gen9visit_mut28visit_pointer_mutability_mutNtNtCsdE2kXyKmOF1_11async_trait8receiver7HasSelfEB1a_, symObjAddr: 0x3009C, symBinAddr: 0x30CEC, symSize: 0x6C }
  - { offset: 0x1CBF4, size: 0x8, addend: 0x0, symName: __RINvNtNtCs6IAuOt8vWmF_3syn3gen9visit_mut28visit_pointer_mutability_mutNtNtCsdE2kXyKmOF1_11async_trait8receiver9HasMutPatEB1a_, symObjAddr: 0x30108, symBinAddr: 0x30D58, symSize: 0x6C }
  - { offset: 0x1CC36, size: 0x8, addend: 0x0, symName: __RINvNtNtCs6IAuOt8vWmF_3syn3gen9visit_mut28visit_pointer_mutability_mutNtNvNtCsdE2kXyKmOF1_11async_trait6expand29replace_impl_trait_with_infer25ReplaceImplTraitWithInferEB1c_, symObjAddr: 0x30174, symBinAddr: 0x30DC4, symSize: 0x6C }
  - { offset: 0x1CC78, size: 0x8, addend: 0x0, symName: __RINvNtNtCs6IAuOt8vWmF_3syn3gen9visit_mut28visit_pointer_mutability_mutNtNvNtCsdE2kXyKmOF1_11async_trait6expand35contains_associated_type_impl_trait24AssociatedTypeImplTraitsEB1c_, symObjAddr: 0x301E0, symBinAddr: 0x30E30, symSize: 0x6C }
  - { offset: 0x1CCBA, size: 0x8, addend: 0x0, symName: __RINvNtNtCs6IAuOt8vWmF_3syn3gen9visit_mut28visit_predicate_lifetime_mutNtNtCsdE2kXyKmOF1_11async_trait8lifetime16CollectLifetimesEB1a_, symObjAddr: 0x3024C, symBinAddr: 0x30E9C, symSize: 0xD0 }
  - { offset: 0x1CD4F, size: 0x8, addend: 0x0, symName: __RINvNtNtCs6IAuOt8vWmF_3syn3gen9visit_mut28visit_predicate_lifetime_mutNtNtCsdE2kXyKmOF1_11async_trait8receiver7HasSelfEB1a_, symObjAddr: 0x3031C, symBinAddr: 0x30F6C, symSize: 0xD0 }
  - { offset: 0x1CDE4, size: 0x8, addend: 0x0, symName: __RINvNtNtCs6IAuOt8vWmF_3syn3gen9visit_mut28visit_predicate_lifetime_mutNtNtCsdE2kXyKmOF1_11async_trait8receiver9HasMutPatEB1a_, symObjAddr: 0x303EC, symBinAddr: 0x3103C, symSize: 0xD0 }
  - { offset: 0x1CE79, size: 0x8, addend: 0x0, symName: __RINvNtNtCs6IAuOt8vWmF_3syn3gen9visit_mut28visit_predicate_lifetime_mutNtNvNtCsdE2kXyKmOF1_11async_trait6expand29replace_impl_trait_with_infer25ReplaceImplTraitWithInferEB1c_, symObjAddr: 0x304BC, symBinAddr: 0x3110C, symSize: 0xD0 }
  - { offset: 0x1CF0E, size: 0x8, addend: 0x0, symName: __RINvNtNtCs6IAuOt8vWmF_3syn3gen9visit_mut28visit_predicate_lifetime_mutNtNvNtCsdE2kXyKmOF1_11async_trait6expand35contains_associated_type_impl_trait24AssociatedTypeImplTraitsEB1c_, symObjAddr: 0x3058C, symBinAddr: 0x311DC, symSize: 0xD0 }
  - { offset: 0x1CFA3, size: 0x8, addend: 0x0, symName: __RINvNtNtCs6IAuOt8vWmF_3syn3gen9visit_mut29visit_foreign_item_static_mutNtNtCsdE2kXyKmOF1_11async_trait8lifetime16CollectLifetimesEB1b_, symObjAddr: 0x3065C, symBinAddr: 0x312AC, symSize: 0xA8 }
  - { offset: 0x1CFE5, size: 0x8, addend: 0x0, symName: __RINvNtNtCs6IAuOt8vWmF_3syn3gen9visit_mut29visit_foreign_item_static_mutNtNtCsdE2kXyKmOF1_11async_trait8receiver9HasMutPatEB1b_, symObjAddr: 0x30704, symBinAddr: 0x31354, symSize: 0xA8 }
  - { offset: 0x1D027, size: 0x8, addend: 0x0, symName: __RINvNtNtCs6IAuOt8vWmF_3syn3gen9visit_mut29visit_foreign_item_static_mutNtNvNtCsdE2kXyKmOF1_11async_trait6expand29replace_impl_trait_with_infer25ReplaceImplTraitWithInferEB1d_, symObjAddr: 0x307AC, symBinAddr: 0x313FC, symSize: 0xA8 }
  - { offset: 0x1D069, size: 0x8, addend: 0x0, symName: __RINvNtNtCs6IAuOt8vWmF_3syn3gen9visit_mut29visit_foreign_item_static_mutNtNvNtCsdE2kXyKmOF1_11async_trait6expand35contains_associated_type_impl_trait24AssociatedTypeImplTraitsEB1d_, symObjAddr: 0x30854, symBinAddr: 0x314A4, symSize: 0xA8 }
  - { offset: 0x1D0AB, size: 0x8, addend: 0x0, symName: __RINvNtNtCs6IAuOt8vWmF_3syn3gen9visit_mut30visit_trait_bound_modifier_mutNtNtCsdE2kXyKmOF1_11async_trait8lifetime16CollectLifetimesEB1c_, symObjAddr: 0x308FC, symBinAddr: 0x3154C, symSize: 0x60 }
  - { offset: 0x1D0ED, size: 0x8, addend: 0x0, symName: __RINvNtNtCs6IAuOt8vWmF_3syn3gen9visit_mut30visit_trait_bound_modifier_mutNtNtCsdE2kXyKmOF1_11async_trait8lifetime22AddLifetimeToImplTraitEB1c_, symObjAddr: 0x3095C, symBinAddr: 0x315AC, symSize: 0x60 }
  - { offset: 0x1D12F, size: 0x8, addend: 0x0, symName: __RINvNtNtCs6IAuOt8vWmF_3syn3gen9visit_mut30visit_trait_bound_modifier_mutNtNtCsdE2kXyKmOF1_11async_trait8receiver11ReplaceSelfEB1c_, symObjAddr: 0x309BC, symBinAddr: 0x3160C, symSize: 0x60 }
  - { offset: 0x1D171, size: 0x8, addend: 0x0, symName: __RINvNtNtCs6IAuOt8vWmF_3syn3gen9visit_mut30visit_trait_bound_modifier_mutNtNtCsdE2kXyKmOF1_11async_trait8receiver7HasSelfEB1c_, symObjAddr: 0x30A1C, symBinAddr: 0x3166C, symSize: 0x60 }
  - { offset: 0x1D1B3, size: 0x8, addend: 0x0, symName: __RINvNtNtCs6IAuOt8vWmF_3syn3gen9visit_mut30visit_trait_bound_modifier_mutNtNtCsdE2kXyKmOF1_11async_trait8receiver9HasMutPatEB1c_, symObjAddr: 0x30A7C, symBinAddr: 0x316CC, symSize: 0x60 }
  - { offset: 0x1D1F5, size: 0x8, addend: 0x0, symName: __RINvNtNtCs6IAuOt8vWmF_3syn3gen9visit_mut30visit_trait_bound_modifier_mutNtNvNtCsdE2kXyKmOF1_11async_trait6expand29replace_impl_trait_with_infer25ReplaceImplTraitWithInferEB1e_, symObjAddr: 0x30ADC, symBinAddr: 0x3172C, symSize: 0x60 }
  - { offset: 0x1D237, size: 0x8, addend: 0x0, symName: __RINvNtNtCs6IAuOt8vWmF_3syn3gen9visit_mut30visit_trait_bound_modifier_mutNtNvNtCsdE2kXyKmOF1_11async_trait6expand35contains_associated_type_impl_trait24AssociatedTypeImplTraitsEB1e_, symObjAddr: 0x30B3C, symBinAddr: 0x3178C, symSize: 0x60 }
  - { offset: 0x1D279, size: 0x8, addend: 0x0, symName: __RINvNtNtCs6IAuOt8vWmF_3syn3gen9visit_mut41visit_parenthesized_generic_arguments_mutNtNtCsdE2kXyKmOF1_11async_trait8lifetime16CollectLifetimesEB1n_, symObjAddr: 0x30B9C, symBinAddr: 0x317EC, symSize: 0xD8 }
  - { offset: 0x1D30E, size: 0x8, addend: 0x0, symName: __RINvNtNtCs6IAuOt8vWmF_3syn3gen9visit_mut41visit_parenthesized_generic_arguments_mutNtNtCsdE2kXyKmOF1_11async_trait8lifetime22AddLifetimeToImplTraitEB1n_, symObjAddr: 0x30C74, symBinAddr: 0x318C4, symSize: 0xD8 }
  - { offset: 0x1D3A3, size: 0x8, addend: 0x0, symName: __RINvNtNtCs6IAuOt8vWmF_3syn3gen9visit_mut41visit_parenthesized_generic_arguments_mutNtNtCsdE2kXyKmOF1_11async_trait8receiver11ReplaceSelfEB1n_, symObjAddr: 0x30D4C, symBinAddr: 0x3199C, symSize: 0xD8 }
  - { offset: 0x1D438, size: 0x8, addend: 0x0, symName: __RINvNtNtCs6IAuOt8vWmF_3syn3gen9visit_mut41visit_parenthesized_generic_arguments_mutNtNtCsdE2kXyKmOF1_11async_trait8receiver7HasSelfEB1n_, symObjAddr: 0x30E24, symBinAddr: 0x31A74, symSize: 0xD8 }
  - { offset: 0x1D4CD, size: 0x8, addend: 0x0, symName: __RINvNtNtCs6IAuOt8vWmF_3syn3gen9visit_mut41visit_parenthesized_generic_arguments_mutNtNtCsdE2kXyKmOF1_11async_trait8receiver9HasMutPatEB1n_, symObjAddr: 0x30EFC, symBinAddr: 0x31B4C, symSize: 0xD8 }
  - { offset: 0x1D562, size: 0x8, addend: 0x0, symName: __RINvNtNtCs6IAuOt8vWmF_3syn3gen9visit_mut41visit_parenthesized_generic_arguments_mutNtNvNtCsdE2kXyKmOF1_11async_trait6expand29replace_impl_trait_with_infer25ReplaceImplTraitWithInferEB1p_, symObjAddr: 0x30FD4, symBinAddr: 0x31C24, symSize: 0xD8 }
  - { offset: 0x1D5F7, size: 0x8, addend: 0x0, symName: __RINvNtNtCs6IAuOt8vWmF_3syn3gen9visit_mut41visit_parenthesized_generic_arguments_mutNtNvNtCsdE2kXyKmOF1_11async_trait6expand35contains_associated_type_impl_trait24AssociatedTypeImplTraitsEB1p_, symObjAddr: 0x310AC, symBinAddr: 0x31CFC, symSize: 0xD8 }
  - { offset: 0x1D68C, size: 0x8, addend: 0x0, symName: __RINvNtNtCs6IAuOt8vWmF_3syn3gen9visit_mut43visit_angle_bracketed_generic_arguments_mutNtNtCsdE2kXyKmOF1_11async_trait8lifetime16CollectLifetimesEB1p_, symObjAddr: 0x31184, symBinAddr: 0x31DD4, symSize: 0xC8 }
  - { offset: 0x1D721, size: 0x8, addend: 0x0, symName: __RINvNtNtCs6IAuOt8vWmF_3syn3gen9visit_mut43visit_angle_bracketed_generic_arguments_mutNtNtCsdE2kXyKmOF1_11async_trait8lifetime22AddLifetimeToImplTraitEB1p_, symObjAddr: 0x3124C, symBinAddr: 0x31E9C, symSize: 0xC8 }
  - { offset: 0x1D7B6, size: 0x8, addend: 0x0, symName: __RINvNtNtCs6IAuOt8vWmF_3syn3gen9visit_mut43visit_angle_bracketed_generic_arguments_mutNtNtCsdE2kXyKmOF1_11async_trait8receiver11ReplaceSelfEB1p_, symObjAddr: 0x31314, symBinAddr: 0x31F64, symSize: 0xC8 }
  - { offset: 0x1D84B, size: 0x8, addend: 0x0, symName: __RINvNtNtCs6IAuOt8vWmF_3syn3gen9visit_mut43visit_angle_bracketed_generic_arguments_mutNtNtCsdE2kXyKmOF1_11async_trait8receiver7HasSelfEB1p_, symObjAddr: 0x313DC, symBinAddr: 0x3202C, symSize: 0xC8 }
  - { offset: 0x1D8E0, size: 0x8, addend: 0x0, symName: __RINvNtNtCs6IAuOt8vWmF_3syn3gen9visit_mut43visit_angle_bracketed_generic_arguments_mutNtNtCsdE2kXyKmOF1_11async_trait8receiver9HasMutPatEB1p_, symObjAddr: 0x314A4, symBinAddr: 0x320F4, symSize: 0xC8 }
  - { offset: 0x1D975, size: 0x8, addend: 0x0, symName: __RINvNtNtCs6IAuOt8vWmF_3syn3gen9visit_mut43visit_angle_bracketed_generic_arguments_mutNtNvNtCsdE2kXyKmOF1_11async_trait6expand29replace_impl_trait_with_infer25ReplaceImplTraitWithInferEB1r_, symObjAddr: 0x3156C, symBinAddr: 0x321BC, symSize: 0xC8 }
  - { offset: 0x1DA0A, size: 0x8, addend: 0x0, symName: __RINvNtNtCs6IAuOt8vWmF_3syn3gen9visit_mut43visit_angle_bracketed_generic_arguments_mutNtNvNtCsdE2kXyKmOF1_11async_trait6expand35contains_associated_type_impl_trait24AssociatedTypeImplTraitsEB1r_, symObjAddr: 0x31634, symBinAddr: 0x32284, symSize: 0xC8 }
  - { offset: 0x28CEA, size: 0x8, addend: 0x0, symName: __RINvMNtNtNtCse1nGBsou5OW_5alloc11collections5btree4nodeINtB3_8LeafNodeNtCs3cP53eQoTwO_11proc_macro25IdentNtNtB5_7set_val9SetValZSTE3newNtNtB9_5alloc6GlobalECsdE2kXyKmOF1_11async_trait, symObjAddr: 0x0, symBinAddr: 0x3234C, symSize: 0x68 }
  - { offset: 0x2ECAC, size: 0x8, addend: 0x0, symName: __RINvNtNtNtCse1nGBsou5OW_5alloc11collections5btree4node12slice_insertINtNtNtCsfvfooZQ3Axs_4core3ptr8non_null7NonNullINtB2_8LeafNodeNtCs3cP53eQoTwO_11proc_macro25IdentNtNtB4_7set_val9SetValZSTEEECsdE2kXyKmOF1_11async_trait, symObjAddr: 0x22D0, symBinAddr: 0x3461C, symSize: 0x114 }
  - { offset: 0x2EE30, size: 0x8, addend: 0x0, symName: __RINvNtNtNtCse1nGBsou5OW_5alloc11collections5btree4node12slice_insertNtCs3cP53eQoTwO_11proc_macro25IdentECsdE2kXyKmOF1_11async_trait, symObjAddr: 0x23E4, symBinAddr: 0x34730, symSize: 0x150 }
  - { offset: 0x2EFB7, size: 0x8, addend: 0x0, symName: __RINvNtNtNtCse1nGBsou5OW_5alloc11collections5btree4node12slice_insertNtNtB4_7set_val9SetValZSTECsdE2kXyKmOF1_11async_trait, symObjAddr: 0x2534, symBinAddr: 0x34880, symSize: 0xD0 }
  - { offset: 0x2F0CC, size: 0x8, addend: 0x0, symName: __RINvNtNtNtCse1nGBsou5OW_5alloc11collections5btree4node13move_to_sliceINtNtNtCsfvfooZQ3Axs_4core3ptr8non_null7NonNullINtB2_8LeafNodeNtCs3cP53eQoTwO_11proc_macro25IdentNtNtB4_7set_val9SetValZSTEEECsdE2kXyKmOF1_11async_trait, symObjAddr: 0x2604, symBinAddr: 0x34950, symSize: 0xA8 }
  - { offset: 0x2F178, size: 0x8, addend: 0x0, symName: __RINvNtNtNtCse1nGBsou5OW_5alloc11collections5btree4node13move_to_sliceNtCs3cP53eQoTwO_11proc_macro25IdentECsdE2kXyKmOF1_11async_trait, symObjAddr: 0x26AC, symBinAddr: 0x349F8, symSize: 0xB0 }
  - { offset: 0x2F224, size: 0x8, addend: 0x0, symName: __RINvNtNtNtCse1nGBsou5OW_5alloc11collections5btree4node13move_to_sliceNtNtB4_7set_val9SetValZSTECsdE2kXyKmOF1_11async_trait, symObjAddr: 0x275C, symBinAddr: 0x34AA8, symSize: 0xAC }
  - { offset: 0x2F2DA, size: 0x8, addend: 0x0, symName: __RNCINvMss_NtNtNtCse1nGBsou5OW_5alloc11collections5btree4nodeINtB8_7NodeRefNtNtB8_6marker5OwnedNtCs3cP53eQoTwO_11proc_macro25IdentNtNtBa_7set_val9SetValZSTNtB1c_14LeafOrInternalE19push_internal_levelNtNtBe_5alloc6GlobalE0CsdE2kXyKmOF1_11async_trait, symObjAddr: 0x2808, symBinAddr: 0x34B54, symSize: 0x34 }
  - { offset: 0x2F636, size: 0x8, addend: 0x0, symName: __RNvXNvMsT_NtNtNtCse1nGBsou5OW_5alloc11collections5btree4nodeINtB8_6HandleINtB8_7NodeRefNtNtB8_6marker5DyingpppENtB1p_2KVE12drop_key_valINtB2_7DropperNtNtBa_7set_val9SetValZSTENtNtNtCsfvfooZQ3Axs_4core3ops4drop4Drop4dropCsdE2kXyKmOF1_11async_trait, symObjAddr: 0x4400, symBinAddr: 0x3674C, symSize: 0x1C }
  - { offset: 0x300DA, size: 0x8, addend: 0x0, symName: __RINvMNtNtNtCse1nGBsou5OW_5alloc11collections5btree4nodeINtB3_8LeafNodeNtCs3cP53eQoTwO_11proc_macro25IdentNtNtB5_7set_val9SetValZSTE3newNtNtB9_5alloc6GlobalECsdE2kXyKmOF1_11async_trait, symObjAddr: 0x0, symBinAddr: 0x3234C, symSize: 0x68 }
  - { offset: 0x30435, size: 0x8, addend: 0x0, symName: __RINvMs0_NtNtNtCse1nGBsou5OW_5alloc11collections5btree6searchINtNtB8_4node7NodeRefNtNtBZ_6marker3MutNtCs3cP53eQoTwO_11proc_macro25IdentNtNtB8_7set_val9SetValZSTNtB1j_14LeafOrInternalE14find_key_indexB1z_ECsdE2kXyKmOF1_11async_trait, symObjAddr: 0x68, symBinAddr: 0x323B4, symSize: 0x1E4 }
  - { offset: 0x30890, size: 0x8, addend: 0x0, symName: __RINvMs0_NtNtNtCse1nGBsou5OW_5alloc11collections5btree6searchINtNtB8_4node7NodeRefNtNtBZ_6marker5ImmutNtCs3cP53eQoTwO_11proc_macro25IdentNtNtB8_7set_val9SetValZSTNtB1j_14LeafOrInternalE14find_key_indexB1B_ECsdE2kXyKmOF1_11async_trait, symObjAddr: 0x24C, symBinAddr: 0x32598, symSize: 0x1E4 }
  - { offset: 0x30C4D, size: 0x8, addend: 0x0, symName: __RINvMs8_NtNtNtCse1nGBsou5OW_5alloc11collections5btree4nodeINtB6_7NodeRefNtNtB6_6marker5OwnedNtCs3cP53eQoTwO_11proc_macro25IdentNtNtB8_7set_val9SetValZSTNtB1a_4LeafE8new_leafNtNtBc_5alloc6GlobalECsdE2kXyKmOF1_11async_trait, symObjAddr: 0x430, symBinAddr: 0x3277C, symSize: 0x38 }
  - { offset: 0x30D7C, size: 0x8, addend: 0x0, symName: __RINvMs9_NtNtNtCse1nGBsou5OW_5alloc11collections5btree4nodeINtB6_7NodeRefNtNtB6_6marker5OwnedNtCs3cP53eQoTwO_11proc_macro25IdentNtNtB8_7set_val9SetValZSTNtB1a_8InternalE12new_internalNtNtBc_5alloc6GlobalECsdE2kXyKmOF1_11async_trait, symObjAddr: 0x468, symBinAddr: 0x327B4, symSize: 0x98 }
  - { offset: 0x30FCD, size: 0x8, addend: 0x0, symName: __RINvMs9_NtNtNtCse1nGBsou5OW_5alloc11collections5btree4nodeINtB6_7NodeRefNtNtB6_6marker5OwnedNtCs3cP53eQoTwO_11proc_macro25IdentNtNtB8_7set_val9SetValZSTNtB1a_8InternalE17from_new_internalNtNtBc_5alloc6GlobalECsdE2kXyKmOF1_11async_trait, symObjAddr: 0x500, symBinAddr: 0x3284C, symSize: 0xC0 }
  - { offset: 0x313FB, size: 0x8, addend: 0x0, symName: __RINvMsK_NtNtNtCse1nGBsou5OW_5alloc11collections5btree4nodeINtB6_6HandleINtB6_7NodeRefNtNtB6_6marker3MutNtCs3cP53eQoTwO_11proc_macro25IdentNtNtB8_7set_val9SetValZSTNtB1n_4LeafENtB1n_4EdgeE6insertNtNtBc_5alloc6GlobalECsdE2kXyKmOF1_11async_trait, symObjAddr: 0x5C0, symBinAddr: 0x3290C, symSize: 0x508 }
  - { offset: 0x3180D, size: 0x8, addend: 0x0, symName: __RINvMsM_NtNtNtCse1nGBsou5OW_5alloc11collections5btree4nodeINtB6_6HandleINtB6_7NodeRefNtNtB6_6marker3MutNtCs3cP53eQoTwO_11proc_macro25IdentNtNtB8_7set_val9SetValZSTNtB1n_8InternalENtB1n_4EdgeE6insertNtNtBc_5alloc6GlobalECsdE2kXyKmOF1_11async_trait, symObjAddr: 0xAC8, symBinAddr: 0x32E14, symSize: 0x574 }
  - { offset: 0x31AE0, size: 0x8, addend: 0x0, symName: __RINvMsN_NtNtNtCse1nGBsou5OW_5alloc11collections5btree4nodeINtB6_6HandleINtB6_7NodeRefNtNtB6_6marker3MutNtCs3cP53eQoTwO_11proc_macro25IdentNtNtB8_7set_val9SetValZSTNtB1n_4LeafENtB1n_4EdgeE16insert_recursingNtNtBc_5alloc6GlobalNCNvMs6_NtNtB8_3map5entryINtB3J_11VacantEntryB1D_B2c_E12insert_entry0ECsdE2kXyKmOF1_11async_trait, symObjAddr: 0x103C, symBinAddr: 0x33388, symSize: 0x480 }
  - { offset: 0x31D8C, size: 0x8, addend: 0x0, symName: __RINvMsV_NtNtNtCse1nGBsou5OW_5alloc11collections5btree4nodeINtB6_6HandleINtB6_7NodeRefNtNtB6_6marker3MutNtCs3cP53eQoTwO_11proc_macro25IdentNtNtB8_7set_val9SetValZSTNtB1n_4LeafENtB1n_2KVE5splitNtNtBc_5alloc6GlobalECsdE2kXyKmOF1_11async_trait, symObjAddr: 0x14BC, symBinAddr: 0x33808, symSize: 0xE0 }
  - { offset: 0x31FE9, size: 0x8, addend: 0x0, symName: __RINvMsW_NtNtNtCse1nGBsou5OW_5alloc11collections5btree4nodeINtB6_6HandleINtB6_7NodeRefNtNtB6_6marker3MutNtCs3cP53eQoTwO_11proc_macro25IdentNtNtB8_7set_val9SetValZSTNtB1n_8InternalENtB1n_2KVE5splitNtNtBc_5alloc6GlobalECsdE2kXyKmOF1_11async_trait, symObjAddr: 0x159C, symBinAddr: 0x338E8, symSize: 0x240 }
  - { offset: 0x3238C, size: 0x8, addend: 0x0, symName: __RINvMs_NtNtNtCse1nGBsou5OW_5alloc11collections5btree4nodeINtB5_12InternalNodeNtCs3cP53eQoTwO_11proc_macro25IdentNtNtB7_7set_val9SetValZSTE3newNtNtBb_5alloc6GlobalECsdE2kXyKmOF1_11async_trait, symObjAddr: 0x17DC, symBinAddr: 0x33B28, symSize: 0x68 }
  - { offset: 0x32683, size: 0x8, addend: 0x0, symName: __RINvMs_NtNtNtCse1nGBsou5OW_5alloc11collections5btree6searchINtNtB7_4node7NodeRefNtNtBY_6marker3MutNtCs3cP53eQoTwO_11proc_macro25IdentNtNtB7_7set_val9SetValZSTNtB1i_14LeafOrInternalE11search_treeB1y_ECsdE2kXyKmOF1_11async_trait, symObjAddr: 0x1844, symBinAddr: 0x33B90, symSize: 0x240 }
  - { offset: 0x32A04, size: 0x8, addend: 0x0, symName: __RINvMs_NtNtNtCse1nGBsou5OW_5alloc11collections5btree6searchINtNtB7_4node7NodeRefNtNtBY_6marker5ImmutNtCs3cP53eQoTwO_11proc_macro25IdentNtNtB7_7set_val9SetValZSTNtB1i_14LeafOrInternalE11search_treeB1A_ECsdE2kXyKmOF1_11async_trait, symObjAddr: 0x1A84, symBinAddr: 0x33DD0, symSize: 0x240 }
  - { offset: 0x32CD7, size: 0x8, addend: 0x0, symName: __RINvMsh_NtNtNtCse1nGBsou5OW_5alloc11collections5btree4nodeINtB6_7NodeRefNtNtB6_6marker5DyingNtCs3cP53eQoTwO_11proc_macro25IdentNtNtB8_7set_val9SetValZSTNtB1a_14LeafOrInternalE21deallocate_and_ascendNtNtBc_5alloc6GlobalECsdE2kXyKmOF1_11async_trait, symObjAddr: 0x1CC4, symBinAddr: 0x34010, symSize: 0x178 }
  - { offset: 0x32F1D, size: 0x8, addend: 0x0, symName: __RINvMsj_NtNtNtCse1nGBsou5OW_5alloc11collections5btree8navigateINtNtB8_4node6HandleINtB11_7NodeRefNtNtB11_6marker5DyingNtCs3cP53eQoTwO_11proc_macro25IdentNtNtB8_7set_val9SetValZSTNtB1z_4LeafENtB1z_4EdgeE16deallocating_endNtNtBc_5alloc6GlobalECsdE2kXyKmOF1_11async_trait, symObjAddr: 0x1E3C, symBinAddr: 0x34188, symSize: 0xD8 }
  - { offset: 0x33191, size: 0x8, addend: 0x0, symName: __RINvMsj_NtNtNtCse1nGBsou5OW_5alloc11collections5btree8navigateINtNtB8_4node6HandleINtB11_7NodeRefNtNtB11_6marker5DyingNtCs3cP53eQoTwO_11proc_macro25IdentNtNtB8_7set_val9SetValZSTNtB1z_4LeafENtB1z_4EdgeE17deallocating_nextNtNtBc_5alloc6GlobalECsdE2kXyKmOF1_11async_trait, symObjAddr: 0x1F14, symBinAddr: 0x34260, symSize: 0x254 }
  - { offset: 0x333DC, size: 0x8, addend: 0x0, symName: __RINvMsp_NtNtNtCse1nGBsou5OW_5alloc11collections5btree4nodeINtB6_7NodeRefNtNtB6_6marker3MutNtCs3cP53eQoTwO_11proc_macro25IdentNtNtB8_7set_val9SetValZSTNtB1a_8InternalE30correct_childrens_parent_linksINtNtNtCsfvfooZQ3Axs_4core3ops5range14RangeInclusivejEECsdE2kXyKmOF1_11async_trait, symObjAddr: 0x2168, symBinAddr: 0x344B4, symSize: 0xB4 }
  - { offset: 0x33513, size: 0x8, addend: 0x0, symName: __RINvMsp_NtNtNtCse1nGBsou5OW_5alloc11collections5btree4nodeINtB6_7NodeRefNtNtB6_6marker3MutNtCs3cP53eQoTwO_11proc_macro25IdentNtNtB8_7set_val9SetValZSTNtB1a_8InternalE30correct_childrens_parent_linksINtNtNtCsfvfooZQ3Axs_4core3ops5range5RangejEECsdE2kXyKmOF1_11async_trait, symObjAddr: 0x221C, symBinAddr: 0x34568, symSize: 0xB4 }
  - { offset: 0x33923, size: 0x8, addend: 0x0, symName: __RNvMsJ_NtNtNtCse1nGBsou5OW_5alloc11collections5btree4nodeINtB5_6HandleINtB5_7NodeRefNtNtB5_6marker3MutNtCs3cP53eQoTwO_11proc_macro25IdentNtNtB7_7set_val9SetValZSTNtB1m_4LeafENtB1m_4EdgeE10insert_fitCsdE2kXyKmOF1_11async_trait, symObjAddr: 0x283C, symBinAddr: 0x34B88, symSize: 0x1E4 }
  - { offset: 0x33DA7, size: 0x8, addend: 0x0, symName: __RNvMsL_NtNtNtCse1nGBsou5OW_5alloc11collections5btree4nodeINtB5_6HandleINtB5_7NodeRefNtNtB5_6marker3MutNtCs3cP53eQoTwO_11proc_macro25IdentNtNtB7_7set_val9SetValZSTNtB1m_8InternalENtB1m_4EdgeE19correct_parent_linkCsdE2kXyKmOF1_11async_trait, symObjAddr: 0x2A20, symBinAddr: 0x34D6C, symSize: 0xA4 }
  - { offset: 0x340F3, size: 0x8, addend: 0x0, symName: __RNvMsM_NtNtNtCse1nGBsou5OW_5alloc11collections5btree4nodeINtB5_6HandleINtB5_7NodeRefNtNtB5_6marker3MutNtCs3cP53eQoTwO_11proc_macro25IdentNtNtB7_7set_val9SetValZSTNtB1m_8InternalENtB1m_4EdgeE10insert_fitCsdE2kXyKmOF1_11async_trait, symObjAddr: 0x2AC4, symBinAddr: 0x34E10, symSize: 0x27C }
  - { offset: 0x34663, size: 0x8, addend: 0x0, symName: __RNvMsO_NtNtNtCse1nGBsou5OW_5alloc11collections5btree4nodeINtB5_6HandleINtB5_7NodeRefNtNtB5_6marker3MutNtCs3cP53eQoTwO_11proc_macro25IdentNtNtB7_7set_val9SetValZSTNtB1m_8InternalENtB1m_4EdgeE7descendCsdE2kXyKmOF1_11async_trait, symObjAddr: 0x2D40, symBinAddr: 0x3508C, symSize: 0x94 }
  - { offset: 0x34849, size: 0x8, addend: 0x0, symName: __RNvMsO_NtNtNtCse1nGBsou5OW_5alloc11collections5btree4nodeINtB5_6HandleINtB5_7NodeRefNtNtB5_6marker5DyingNtCs3cP53eQoTwO_11proc_macro25IdentNtNtB7_7set_val9SetValZSTNtB1m_8InternalENtB1m_4EdgeE7descendCsdE2kXyKmOF1_11async_trait, symObjAddr: 0x2DD4, symBinAddr: 0x35120, symSize: 0x94 }
  - { offset: 0x34A2F, size: 0x8, addend: 0x0, symName: __RNvMsO_NtNtNtCse1nGBsou5OW_5alloc11collections5btree4nodeINtB5_6HandleINtB5_7NodeRefNtNtB5_6marker5ImmutNtCs3cP53eQoTwO_11proc_macro25IdentNtNtB7_7set_val9SetValZSTNtB1m_8InternalENtB1m_4EdgeE7descendCsdE2kXyKmOF1_11async_trait, symObjAddr: 0x2E68, symBinAddr: 0x351B4, symSize: 0x94 }
  - { offset: 0x34D23, size: 0x8, addend: 0x0, symName: __RNvMsP_NtNtNtCse1nGBsou5OW_5alloc11collections5btree4nodeINtB5_6HandleINtB5_7NodeRefNtNtB5_6marker5ImmutNtCs3cP53eQoTwO_11proc_macro25IdentNtNtB7_7set_val9SetValZSTNtB1m_14LeafOrInternalENtB1m_2KVE7into_kvCsdE2kXyKmOF1_11async_trait, symObjAddr: 0x2EFC, symBinAddr: 0x35248, symSize: 0xE0 }
  - { offset: 0x34FE8, size: 0x8, addend: 0x0, symName: __RNvMsQ_NtNtNtCse1nGBsou5OW_5alloc11collections5btree4nodeINtB5_6HandleINtB5_7NodeRefNtNtB5_6marker3MutNtCs3cP53eQoTwO_11proc_macro25IdentNtNtB7_7set_val9SetValZSTNtB1m_14LeafOrInternalENtB1m_2KVE12into_val_mutCsdE2kXyKmOF1_11async_trait, symObjAddr: 0x2FDC, symBinAddr: 0x35328, symSize: 0x80 }
  - { offset: 0x351CF, size: 0x8, addend: 0x0, symName: __RNvMsS_NtNtNtCse1nGBsou5OW_5alloc11collections5btree4nodeINtB5_6HandleINtB5_7NodeRefNtNtB5_6marker3MutNtCs3cP53eQoTwO_11proc_macro25IdentNtNtB7_7set_val9SetValZSTNtB1m_14LeafOrInternalENtB1m_2KVE6kv_mutCsdE2kXyKmOF1_11async_trait, symObjAddr: 0x305C, symBinAddr: 0x353A8, symSize: 0xEC }
  - { offset: 0x35482, size: 0x8, addend: 0x0, symName: __RNvMsT_NtNtNtCse1nGBsou5OW_5alloc11collections5btree4nodeINtB5_6HandleINtB5_7NodeRefNtNtB5_6marker5DyingNtCs3cP53eQoTwO_11proc_macro25IdentNtNtB7_7set_val9SetValZSTNtB1m_14LeafOrInternalENtB1m_2KVE12drop_key_valCsdE2kXyKmOF1_11async_trait, symObjAddr: 0x3148, symBinAddr: 0x35494, symSize: 0x118 }
  - { offset: 0x35914, size: 0x8, addend: 0x0, symName: __RNvMsU_NtNtNtCse1nGBsou5OW_5alloc11collections5btree4nodeINtB5_6HandleINtB5_7NodeRefNtNtB5_6marker3MutNtCs3cP53eQoTwO_11proc_macro25IdentNtNtB7_7set_val9SetValZSTNtB1m_4LeafENtB1m_2KVE15split_leaf_dataCsdE2kXyKmOF1_11async_trait, symObjAddr: 0x3260, symBinAddr: 0x355AC, symSize: 0x3B4 }
  - { offset: 0x3631A, size: 0x8, addend: 0x0, symName: __RNvMsU_NtNtNtCse1nGBsou5OW_5alloc11collections5btree4nodeINtB5_6HandleINtB5_7NodeRefNtNtB5_6marker3MutNtCs3cP53eQoTwO_11proc_macro25IdentNtNtB7_7set_val9SetValZSTNtB1m_8InternalENtB1m_2KVE15split_leaf_dataCsdE2kXyKmOF1_11async_trait, symObjAddr: 0x3614, symBinAddr: 0x35960, symSize: 0x3B4 }
  - { offset: 0x36BC7, size: 0x8, addend: 0x0, symName: __RNvMse_NtNtNtCse1nGBsou5OW_5alloc11collections5btree4nodeINtB5_7NodeRefNtNtB5_6marker3MutNtCs3cP53eQoTwO_11proc_macro25IdentNtNtB7_7set_val9SetValZSTNtB19_14LeafOrInternalE6ascendCsdE2kXyKmOF1_11async_trait, symObjAddr: 0x39C8, symBinAddr: 0x35D14, symSize: 0x168 }
  - { offset: 0x36E0B, size: 0x8, addend: 0x0, symName: __RNvMse_NtNtNtCse1nGBsou5OW_5alloc11collections5btree4nodeINtB5_7NodeRefNtNtB5_6marker5DyingNtCs3cP53eQoTwO_11proc_macro25IdentNtNtB7_7set_val9SetValZSTNtB19_14LeafOrInternalE6ascendCsdE2kXyKmOF1_11async_trait, symObjAddr: 0x3B30, symBinAddr: 0x35E7C, symSize: 0x168 }
  - { offset: 0x36FEB, size: 0x8, addend: 0x0, symName: __RNvMsg_NtNtNtCse1nGBsou5OW_5alloc11collections5btree4nodeINtB5_7NodeRefNtNtB5_6marker5ImmutNtCs3cP53eQoTwO_11proc_macro25IdentNtNtB7_7set_val9SetValZSTNtB19_14LeafOrInternalE4keysCsdE2kXyKmOF1_11async_trait, symObjAddr: 0x3C98, symBinAddr: 0x35FE4, symSize: 0xA0 }
  - { offset: 0x37354, size: 0x8, addend: 0x0, symName: __RNvMsp_NtNtNtCse1nGBsou5OW_5alloc11collections5btree8navigateINtNtB7_4node6HandleINtB10_7NodeRefNtNtB10_6marker5DyingNtCs3cP53eQoTwO_11proc_macro25IdentNtNtB7_7set_val9SetValZSTNtB1y_14LeafOrInternalENtB1y_2KVE14next_leaf_edgeCsdE2kXyKmOF1_11async_trait, symObjAddr: 0x3D38, symBinAddr: 0x36084, symSize: 0x210 }
  - { offset: 0x37772, size: 0x8, addend: 0x0, symName: __RNvMsu_NtNtNtCse1nGBsou5OW_5alloc11collections5btree4nodeINtB5_7NodeRefNtNtB5_6marker3MutNtCs3cP53eQoTwO_11proc_macro25IdentNtNtB7_7set_val9SetValZSTNtB19_4LeafE16push_with_handleCsdE2kXyKmOF1_11async_trait, symObjAddr: 0x3F48, symBinAddr: 0x36294, symSize: 0x1E0 }
  - { offset: 0x37DA3, size: 0x8, addend: 0x0, symName: __RNvMsv_NtNtNtCse1nGBsou5OW_5alloc11collections5btree4nodeINtB5_7NodeRefNtNtB5_6marker3MutNtCs3cP53eQoTwO_11proc_macro25IdentNtNtB7_7set_val9SetValZSTNtB19_8InternalE4pushCsdE2kXyKmOF1_11async_trait, symObjAddr: 0x4128, symBinAddr: 0x36474, symSize: 0x2D8 }
  - { offset: 0x382C1, size: 0x8, addend: 0x0, symName: __RINvMNtCsfvfooZQ3Axs_4core6optionINtB3_6OptionINtNtCs6IAuOt8vWmF_3syn10punctuated4PairQNtNtBN_2ty4TypeQNtNtBN_5token5CommaEE7or_elseNCNvXsg_BL_INtBL_8PairsMutB1n_B1D_ENtNtNtNtB5_4iter6traits8iterator8Iterator4nexts_0ECsdE2kXyKmOF1_11async_trait, symObjAddr: 0x0, symBinAddr: 0x36768, symSize: 0xB4 }
  - { offset: 0x3868E, size: 0x8, addend: 0x0, symName: __RNvXsR_NtCs9i5KxIbZ5ph_10proc_macro6bridgeINtNtCsfvfooZQ3Axs_4core6option6OptionNtNtB5_6client11TokenStreamEINtNtB5_3rpc6EncodeuE6encodeCsdE2kXyKmOF1_11async_trait, symObjAddr: 0x2944, symBinAddr: 0x390AC, symSize: 0xCC }
  - { offset: 0x38734, size: 0x8, addend: 0x0, symName: __RNvXsR_NtCs9i5KxIbZ5ph_10proc_macro6bridgeINtNtCsfvfooZQ3Axs_4core6option6OptionReEINtNtB5_3rpc6EncodeuE6encodeCsdE2kXyKmOF1_11async_trait, symObjAddr: 0x2A10, symBinAddr: 0x39178, symSize: 0xD8 }
  - { offset: 0x3DC12, size: 0x8, addend: 0x0, symName: __RNvXs5_NtCsfvfooZQ3Axs_4core6optionINtB5_6OptionQNtNtCs6IAuOt8vWmF_3syn2ty4TypeENtNtNtNtB7_4iter6traits7collect12IntoIterator9into_iterCsdE2kXyKmOF1_11async_trait, symObjAddr: 0x282C, symBinAddr: 0x38F94, symSize: 0x14 }
  - { offset: 0x3DC49, size: 0x8, addend: 0x0, symName: __RNvXs5_NtCsfvfooZQ3Axs_4core6optionINtB5_6OptionQNtNtCs6IAuOt8vWmF_3syn2ty9BareFnArgENtNtNtNtB7_4iter6traits7collect12IntoIterator9into_iterCsdE2kXyKmOF1_11async_trait, symObjAddr: 0x2840, symBinAddr: 0x38FA8, symSize: 0x14 }
  - { offset: 0x3DC80, size: 0x8, addend: 0x0, symName: __RNvXs5_NtCsfvfooZQ3Axs_4core6optionINtB5_6OptionQNtNtCs6IAuOt8vWmF_3syn3pat3PatENtNtNtNtB7_4iter6traits7collect12IntoIterator9into_iterCsdE2kXyKmOF1_11async_trait, symObjAddr: 0x2854, symBinAddr: 0x38FBC, symSize: 0x14 }
  - { offset: 0x3DCB7, size: 0x8, addend: 0x0, symName: __RNvXs5_NtCsfvfooZQ3Axs_4core6optionINtB5_6OptionQNtNtCs6IAuOt8vWmF_3syn3pat8FieldPatENtNtNtNtB7_4iter6traits7collect12IntoIterator9into_iterCsdE2kXyKmOF1_11async_trait, symObjAddr: 0x2868, symBinAddr: 0x38FD0, symSize: 0x14 }
  - { offset: 0x3DCEE, size: 0x8, addend: 0x0, symName: __RNvXs5_NtCsfvfooZQ3Axs_4core6optionINtB5_6OptionQNtNtCs6IAuOt8vWmF_3syn4data7VariantENtNtNtNtB7_4iter6traits7collect12IntoIterator9into_iterCsdE2kXyKmOF1_11async_trait, symObjAddr: 0x287C, symBinAddr: 0x38FE4, symSize: 0x14 }
  - { offset: 0x3DD25, size: 0x8, addend: 0x0, symName: __RNvXs5_NtCsfvfooZQ3Axs_4core6optionINtB5_6OptionQNtNtCs6IAuOt8vWmF_3syn4expr10FieldValueENtNtNtNtB7_4iter6traits7collect12IntoIterator9into_iterCsdE2kXyKmOF1_11async_trait, symObjAddr: 0x2890, symBinAddr: 0x38FF8, symSize: 0x14 }
  - { offset: 0x3DD5C, size: 0x8, addend: 0x0, symName: __RNvXs5_NtCsfvfooZQ3Axs_4core6optionINtB5_6OptionQNtNtCs6IAuOt8vWmF_3syn4expr4ExprENtNtNtNtB7_4iter6traits7collect12IntoIterator9into_iterCsdE2kXyKmOF1_11async_trait, symObjAddr: 0x28A4, symBinAddr: 0x3900C, symSize: 0x14 }
  - { offset: 0x3DD93, size: 0x8, addend: 0x0, symName: __RNvXs5_NtCsfvfooZQ3Axs_4core6optionINtB5_6OptionQNtNtCs6IAuOt8vWmF_3syn4item5FnArgENtNtNtNtB7_4iter6traits7collect12IntoIterator9into_iterCsdE2kXyKmOF1_11async_trait, symObjAddr: 0x28B8, symBinAddr: 0x39020, symSize: 0x14 }
  - { offset: 0x3DDCA, size: 0x8, addend: 0x0, symName: __RNvXs5_NtCsfvfooZQ3Axs_4core6optionINtB5_6OptionQNtNtCs6IAuOt8vWmF_3syn4item7UseTreeENtNtNtNtB7_4iter6traits7collect12IntoIterator9into_iterCsdE2kXyKmOF1_11async_trait, symObjAddr: 0x28CC, symBinAddr: 0x39034, symSize: 0x14 }
  - { offset: 0x3DE01, size: 0x8, addend: 0x0, symName: __RNvXs5_NtCsfvfooZQ3Axs_4core6optionINtB5_6OptionQNtNtCs6IAuOt8vWmF_3syn4path15GenericArgumentENtNtNtNtB7_4iter6traits7collect12IntoIterator9into_iterCsdE2kXyKmOF1_11async_trait, symObjAddr: 0x28E0, symBinAddr: 0x39048, symSize: 0x14 }
  - { offset: 0x3DE38, size: 0x8, addend: 0x0, symName: __RNvXs5_NtCsfvfooZQ3Axs_4core6optionINtB5_6OptionQNtNtCs6IAuOt8vWmF_3syn8generics13CapturedParamENtNtNtNtB7_4iter6traits7collect12IntoIterator9into_iterCsdE2kXyKmOF1_11async_trait, symObjAddr: 0x28F4, symBinAddr: 0x3905C, symSize: 0x14 }
  - { offset: 0x3DE6F, size: 0x8, addend: 0x0, symName: __RNvXs5_NtCsfvfooZQ3Axs_4core6optionINtB5_6OptionQNtNtCs6IAuOt8vWmF_3syn8generics14TypeParamBoundENtNtNtNtB7_4iter6traits7collect12IntoIterator9into_iterCsdE2kXyKmOF1_11async_trait, symObjAddr: 0x2908, symBinAddr: 0x39070, symSize: 0x14 }
  - { offset: 0x3DEA6, size: 0x8, addend: 0x0, symName: __RNvXs5_NtCsfvfooZQ3Axs_4core6optionINtB5_6OptionQNtNtCs6IAuOt8vWmF_3syn8generics14WherePredicateENtNtNtNtB7_4iter6traits7collect12IntoIterator9into_iterCsdE2kXyKmOF1_11async_trait, symObjAddr: 0x291C, symBinAddr: 0x39084, symSize: 0x14 }
  - { offset: 0x3DEDD, size: 0x8, addend: 0x0, symName: __RNvXs5_NtCsfvfooZQ3Axs_4core6optionINtB5_6OptionQNtNtCs6IAuOt8vWmF_3syn8lifetime8LifetimeENtNtNtNtB7_4iter6traits7collect12IntoIterator9into_iterCsdE2kXyKmOF1_11async_trait, symObjAddr: 0x2930, symBinAddr: 0x39098, symSize: 0x14 }
  - { offset: 0x3E0B5, size: 0x8, addend: 0x0, symName: __RNvXsv_NtCsfvfooZQ3Axs_4core6optionINtB5_8IntoIterQNtNtCs6IAuOt8vWmF_3syn2ty4TypeENtNtNtNtB7_4iter6traits8iterator8Iterator4nextCsdE2kXyKmOF1_11async_trait, symObjAddr: 0x2AE8, symBinAddr: 0x39250, symSize: 0x28 }
  - { offset: 0x3E158, size: 0x8, addend: 0x0, symName: __RNvXsv_NtCsfvfooZQ3Axs_4core6optionINtB5_8IntoIterQNtNtCs6IAuOt8vWmF_3syn2ty9BareFnArgENtNtNtNtB7_4iter6traits8iterator8Iterator4nextCsdE2kXyKmOF1_11async_trait, symObjAddr: 0x2B10, symBinAddr: 0x39278, symSize: 0x28 }
  - { offset: 0x3E1FB, size: 0x8, addend: 0x0, symName: __RNvXsv_NtCsfvfooZQ3Axs_4core6optionINtB5_8IntoIterQNtNtCs6IAuOt8vWmF_3syn3pat3PatENtNtNtNtB7_4iter6traits8iterator8Iterator4nextCsdE2kXyKmOF1_11async_trait, symObjAddr: 0x2B38, symBinAddr: 0x392A0, symSize: 0x28 }
  - { offset: 0x3E29E, size: 0x8, addend: 0x0, symName: __RNvXsv_NtCsfvfooZQ3Axs_4core6optionINtB5_8IntoIterQNtNtCs6IAuOt8vWmF_3syn3pat8FieldPatENtNtNtNtB7_4iter6traits8iterator8Iterator4nextCsdE2kXyKmOF1_11async_trait, symObjAddr: 0x2B60, symBinAddr: 0x392C8, symSize: 0x28 }
  - { offset: 0x3E341, size: 0x8, addend: 0x0, symName: __RNvXsv_NtCsfvfooZQ3Axs_4core6optionINtB5_8IntoIterQNtNtCs6IAuOt8vWmF_3syn4data7VariantENtNtNtNtB7_4iter6traits8iterator8Iterator4nextCsdE2kXyKmOF1_11async_trait, symObjAddr: 0x2B88, symBinAddr: 0x392F0, symSize: 0x28 }
  - { offset: 0x3E3E4, size: 0x8, addend: 0x0, symName: __RNvXsv_NtCsfvfooZQ3Axs_4core6optionINtB5_8IntoIterQNtNtCs6IAuOt8vWmF_3syn4expr10FieldValueENtNtNtNtB7_4iter6traits8iterator8Iterator4nextCsdE2kXyKmOF1_11async_trait, symObjAddr: 0x2BB0, symBinAddr: 0x39318, symSize: 0x28 }
  - { offset: 0x3E487, size: 0x8, addend: 0x0, symName: __RNvXsv_NtCsfvfooZQ3Axs_4core6optionINtB5_8IntoIterQNtNtCs6IAuOt8vWmF_3syn4expr4ExprENtNtNtNtB7_4iter6traits8iterator8Iterator4nextCsdE2kXyKmOF1_11async_trait, symObjAddr: 0x2BD8, symBinAddr: 0x39340, symSize: 0x28 }
  - { offset: 0x3E52A, size: 0x8, addend: 0x0, symName: __RNvXsv_NtCsfvfooZQ3Axs_4core6optionINtB5_8IntoIterQNtNtCs6IAuOt8vWmF_3syn4item5FnArgENtNtNtNtB7_4iter6traits8iterator8Iterator4nextCsdE2kXyKmOF1_11async_trait, symObjAddr: 0x2C00, symBinAddr: 0x39368, symSize: 0x28 }
  - { offset: 0x3E5CD, size: 0x8, addend: 0x0, symName: __RNvXsv_NtCsfvfooZQ3Axs_4core6optionINtB5_8IntoIterQNtNtCs6IAuOt8vWmF_3syn4item5FnArgENtNtNtNtB7_4iter6traits8iterator8Iterator9size_hintCsdE2kXyKmOF1_11async_trait, symObjAddr: 0x2C28, symBinAddr: 0x39390, symSize: 0x44 }
  - { offset: 0x3E645, size: 0x8, addend: 0x0, symName: __RNvXsv_NtCsfvfooZQ3Axs_4core6optionINtB5_8IntoIterQNtNtCs6IAuOt8vWmF_3syn4item7UseTreeENtNtNtNtB7_4iter6traits8iterator8Iterator4nextCsdE2kXyKmOF1_11async_trait, symObjAddr: 0x2C6C, symBinAddr: 0x393D4, symSize: 0x28 }
  - { offset: 0x3E6E8, size: 0x8, addend: 0x0, symName: __RNvXsv_NtCsfvfooZQ3Axs_4core6optionINtB5_8IntoIterQNtNtCs6IAuOt8vWmF_3syn4path15GenericArgumentENtNtNtNtB7_4iter6traits8iterator8Iterator4nextCsdE2kXyKmOF1_11async_trait, symObjAddr: 0x2C94, symBinAddr: 0x393FC, symSize: 0x28 }
  - { offset: 0x3E78B, size: 0x8, addend: 0x0, symName: __RNvXsv_NtCsfvfooZQ3Axs_4core6optionINtB5_8IntoIterQNtNtCs6IAuOt8vWmF_3syn8generics13CapturedParamENtNtNtNtB7_4iter6traits8iterator8Iterator4nextCsdE2kXyKmOF1_11async_trait, symObjAddr: 0x2CBC, symBinAddr: 0x39424, symSize: 0x28 }
  - { offset: 0x3E82E, size: 0x8, addend: 0x0, symName: __RNvXsv_NtCsfvfooZQ3Axs_4core6optionINtB5_8IntoIterQNtNtCs6IAuOt8vWmF_3syn8generics14TypeParamBoundENtNtNtNtB7_4iter6traits8iterator8Iterator4nextCsdE2kXyKmOF1_11async_trait, symObjAddr: 0x2CE4, symBinAddr: 0x3944C, symSize: 0x28 }
  - { offset: 0x3E8D1, size: 0x8, addend: 0x0, symName: __RNvXsv_NtCsfvfooZQ3Axs_4core6optionINtB5_8IntoIterQNtNtCs6IAuOt8vWmF_3syn8generics14WherePredicateENtNtNtNtB7_4iter6traits8iterator8Iterator4nextCsdE2kXyKmOF1_11async_trait, symObjAddr: 0x2D0C, symBinAddr: 0x39474, symSize: 0x28 }
  - { offset: 0x3E974, size: 0x8, addend: 0x0, symName: __RNvXsv_NtCsfvfooZQ3Axs_4core6optionINtB5_8IntoIterQNtNtCs6IAuOt8vWmF_3syn8lifetime8LifetimeENtNtNtNtB7_4iter6traits8iterator8Iterator4nextCsdE2kXyKmOF1_11async_trait, symObjAddr: 0x2D34, symBinAddr: 0x3949C, symSize: 0x28 }
  - { offset: 0x3F670, size: 0x8, addend: 0x0, symName: __RNvYINtNtCsfvfooZQ3Axs_4core6option8IntoIterQNtNtCs6IAuOt8vWmF_3syn4item5FnArgENtNtNtNtB7_4iter6traits10exact_size17ExactSizeIterator3lenCsdE2kXyKmOF1_11async_trait, symObjAddr: 0x2D5C, symBinAddr: 0x394C4, symSize: 0xF4 }
  - { offset: 0x44FB2, size: 0x8, addend: 0x0, symName: __RNvYNtNtCsdE2kXyKmOF1_11async_trait8receiver11ReplaceSelfNtNtNtCs6IAuOt8vWmF_3syn3gen9visit_mut8VisitMut13visit_abi_mutB6_, symObjAddr: 0x2E50, symBinAddr: 0x395B8, symSize: 0x3C }
  - { offset: 0x44FF1, size: 0x8, addend: 0x0, symName: __RNvYNtNtCsdE2kXyKmOF1_11async_trait8receiver11ReplaceSelfNtNtNtCs6IAuOt8vWmF_3syn3gen9visit_mut8VisitMut13visit_arm_mutB6_, symObjAddr: 0x2E8C, symBinAddr: 0x395F4, symSize: 0x3C }
  - { offset: 0x45030, size: 0x8, addend: 0x0, symName: __RNvYNtNtCsdE2kXyKmOF1_11async_trait8receiver11ReplaceSelfNtNtNtCs6IAuOt8vWmF_3syn3gen9visit_mut8VisitMut13visit_lit_mutB6_, symObjAddr: 0x2EC8, symBinAddr: 0x39630, symSize: 0x3C }
  - { offset: 0x45072, size: 0x8, addend: 0x0, symName: __RNvYNtNtCsdE2kXyKmOF1_11async_trait8receiver11ReplaceSelfNtNtNtCs6IAuOt8vWmF_3syn3gen9visit_mut8VisitMut13visit_pat_mutB6_, symObjAddr: 0x2F04, symBinAddr: 0x3966C, symSize: 0x3C }
  - { offset: 0x450B4, size: 0x8, addend: 0x0, symName: __RNvYNtNtCsdE2kXyKmOF1_11async_trait8receiver11ReplaceSelfNtNtNtCs6IAuOt8vWmF_3syn3gen9visit_mut8VisitMut14visit_expr_mutB6_, symObjAddr: 0x2F40, symBinAddr: 0x396A8, symSize: 0x3C }
  - { offset: 0x450F3, size: 0x8, addend: 0x0, symName: __RNvYNtNtCsdE2kXyKmOF1_11async_trait8receiver11ReplaceSelfNtNtNtCs6IAuOt8vWmF_3syn3gen9visit_mut8VisitMut14visit_meta_mutB6_, symObjAddr: 0x2F7C, symBinAddr: 0x396E4, symSize: 0x3C }
  - { offset: 0x45135, size: 0x8, addend: 0x0, symName: __RNvYNtNtCsdE2kXyKmOF1_11async_trait8receiver11ReplaceSelfNtNtNtCs6IAuOt8vWmF_3syn3gen9visit_mut8VisitMut14visit_span_mutB6_, symObjAddr: 0x2FB8, symBinAddr: 0x39720, symSize: 0x24 }
  - { offset: 0x45177, size: 0x8, addend: 0x0, symName: __RNvYNtNtCsdE2kXyKmOF1_11async_trait8receiver11ReplaceSelfNtNtNtCs6IAuOt8vWmF_3syn3gen9visit_mut8VisitMut14visit_stmt_mutB6_, symObjAddr: 0x2FDC, symBinAddr: 0x39744, symSize: 0x3C }
  - { offset: 0x451B9, size: 0x8, addend: 0x0, symName: __RNvYNtNtCsdE2kXyKmOF1_11async_trait8receiver11ReplaceSelfNtNtNtCs6IAuOt8vWmF_3syn3gen9visit_mut8VisitMut14visit_type_mutB6_, symObjAddr: 0x3018, symBinAddr: 0x39780, symSize: 0x3C }
  - { offset: 0x451FB, size: 0x8, addend: 0x0, symName: __RNvYNtNtCsdE2kXyKmOF1_11async_trait8receiver11ReplaceSelfNtNtNtCs6IAuOt8vWmF_3syn3gen9visit_mut8VisitMut15visit_block_mutB6_, symObjAddr: 0x3054, symBinAddr: 0x397BC, symSize: 0x3C }
  - { offset: 0x4523A, size: 0x8, addend: 0x0, symName: __RNvYNtNtCsdE2kXyKmOF1_11async_trait8receiver11ReplaceSelfNtNtNtCs6IAuOt8vWmF_3syn3gen9visit_mut8VisitMut15visit_index_mutB6_, symObjAddr: 0x3090, symBinAddr: 0x397F8, symSize: 0x3C }
  - { offset: 0x4527C, size: 0x8, addend: 0x0, symName: __RNvYNtNtCsdE2kXyKmOF1_11async_trait8receiver11ReplaceSelfNtNtNtCs6IAuOt8vWmF_3syn3gen9visit_mut8VisitMut15visit_label_mutB6_, symObjAddr: 0x30CC, symBinAddr: 0x39834, symSize: 0x3C }
  - { offset: 0x452BE, size: 0x8, addend: 0x0, symName: __RNvYNtNtCsdE2kXyKmOF1_11async_trait8receiver11ReplaceSelfNtNtNtCs6IAuOt8vWmF_3syn3gen9visit_mut8VisitMut15visit_local_mutB6_, symObjAddr: 0x3108, symBinAddr: 0x39870, symSize: 0x3C }
  - { offset: 0x45300, size: 0x8, addend: 0x0, symName: __RNvYNtNtCsdE2kXyKmOF1_11async_trait8receiver11ReplaceSelfNtNtNtCs6IAuOt8vWmF_3syn3gen9visit_mut8VisitMut15visit_qself_mutB6_, symObjAddr: 0x3144, symBinAddr: 0x398AC, symSize: 0x3C }
  - { offset: 0x45342, size: 0x8, addend: 0x0, symName: __RNvYNtNtCsdE2kXyKmOF1_11async_trait8receiver11ReplaceSelfNtNtNtCs6IAuOt8vWmF_3syn3gen9visit_mut8VisitMut15visit_un_op_mutB6_, symObjAddr: 0x3180, symBinAddr: 0x398E8, symSize: 0x3C }
  - { offset: 0x45384, size: 0x8, addend: 0x0, symName: __RNvYNtNtCsdE2kXyKmOF1_11async_trait8receiver11ReplaceSelfNtNtNtCs6IAuOt8vWmF_3syn3gen9visit_mut8VisitMut16visit_bin_op_mutB6_, symObjAddr: 0x31BC, symBinAddr: 0x39924, symSize: 0x3C }
  - { offset: 0x453C3, size: 0x8, addend: 0x0, symName: __RNvYNtNtCsdE2kXyKmOF1_11async_trait8receiver11ReplaceSelfNtNtNtCs6IAuOt8vWmF_3syn3gen9visit_mut8VisitMut16visit_member_mutB6_, symObjAddr: 0x31F8, symBinAddr: 0x39960, symSize: 0x3C }
  - { offset: 0x45405, size: 0x8, addend: 0x0, symName: __RNvYNtNtCsdE2kXyKmOF1_11async_trait8receiver11ReplaceSelfNtNtNtCs6IAuOt8vWmF_3syn3gen9visit_mut8VisitMut16visit_pat_or_mutB6_, symObjAddr: 0x3234, symBinAddr: 0x3999C, symSize: 0x3C }
  - { offset: 0x45447, size: 0x8, addend: 0x0, symName: __RNvYNtNtCsdE2kXyKmOF1_11async_trait8receiver11ReplaceSelfNtNtNtCs6IAuOt8vWmF_3syn3gen9visit_mut8VisitMut17visit_expr_if_mutB6_, symObjAddr: 0x3270, symBinAddr: 0x399D8, symSize: 0x3C }
  - { offset: 0x45486, size: 0x8, addend: 0x0, symName: __RNvYNtNtCsdE2kXyKmOF1_11async_trait8receiver11ReplaceSelfNtNtNtCs6IAuOt8vWmF_3syn3gen9visit_mut8VisitMut17visit_lit_int_mutB6_, symObjAddr: 0x32AC, symBinAddr: 0x39A14, symSize: 0x3C }
  - { offset: 0x454C8, size: 0x8, addend: 0x0, symName: __RNvYNtNtCsdE2kXyKmOF1_11async_trait8receiver11ReplaceSelfNtNtNtCs6IAuOt8vWmF_3syn3gen9visit_mut8VisitMut17visit_lit_str_mutB6_, symObjAddr: 0x32E8, symBinAddr: 0x39A50, symSize: 0x3C }
  - { offset: 0x4550A, size: 0x8, addend: 0x0, symName: __RNvYNtNtCsdE2kXyKmOF1_11async_trait8receiver11ReplaceSelfNtNtNtCs6IAuOt8vWmF_3syn3gen9visit_mut8VisitMut18visit_expr_let_mutB6_, symObjAddr: 0x3324, symBinAddr: 0x39A8C, symSize: 0x3C }
  - { offset: 0x45549, size: 0x8, addend: 0x0, symName: __RNvYNtNtCsdE2kXyKmOF1_11async_trait8receiver11ReplaceSelfNtNtNtCs6IAuOt8vWmF_3syn3gen9visit_mut8VisitMut18visit_expr_lit_mutB6_, symObjAddr: 0x3360, symBinAddr: 0x39AC8, symSize: 0x3C }
  - { offset: 0x45588, size: 0x8, addend: 0x0, symName: __RNvYNtNtCsdE2kXyKmOF1_11async_trait8receiver11ReplaceSelfNtNtNtCs6IAuOt8vWmF_3syn3gen9visit_mut8VisitMut18visit_expr_try_mutB6_, symObjAddr: 0x339C, symBinAddr: 0x39B04, symSize: 0x3C }
  - { offset: 0x455CA, size: 0x8, addend: 0x0, symName: __RNvYNtNtCsdE2kXyKmOF1_11async_trait8receiver11ReplaceSelfNtNtNtCs6IAuOt8vWmF_3syn3gen9visit_mut8VisitMut18visit_lifetime_mutB6_, symObjAddr: 0x33D8, symBinAddr: 0x39B40, symSize: 0x3C }
  - { offset: 0x4560C, size: 0x8, addend: 0x0, symName: __RNvYNtNtCsdE2kXyKmOF1_11async_trait8receiver11ReplaceSelfNtNtNtCs6IAuOt8vWmF_3syn3gen9visit_mut8VisitMut18visit_lit_bool_mutB6_, symObjAddr: 0x3414, symBinAddr: 0x39B7C, symSize: 0x3C }
  - { offset: 0x4564E, size: 0x8, addend: 0x0, symName: __RNvYNtNtCsdE2kXyKmOF1_11async_trait8receiver11ReplaceSelfNtNtNtCs6IAuOt8vWmF_3syn3gen9visit_mut8VisitMut18visit_lit_byte_mutB6_, symObjAddr: 0x3450, symBinAddr: 0x39BB8, symSize: 0x3C }
  - { offset: 0x45690, size: 0x8, addend: 0x0, symName: __RNvYNtNtCsdE2kXyKmOF1_11async_trait8receiver11ReplaceSelfNtNtNtCs6IAuOt8vWmF_3syn3gen9visit_mut8VisitMut18visit_lit_char_mutB6_, symObjAddr: 0x348C, symBinAddr: 0x39BF4, symSize: 0x3C }
  - { offset: 0x456D2, size: 0x8, addend: 0x0, symName: __RNvYNtNtCsdE2kXyKmOF1_11async_trait8receiver11ReplaceSelfNtNtNtCs6IAuOt8vWmF_3syn3gen9visit_mut8VisitMut18visit_lit_cstr_mutB6_, symObjAddr: 0x34C8, symBinAddr: 0x39C30, symSize: 0x3C }
  - { offset: 0x45714, size: 0x8, addend: 0x0, symName: __RNvYNtNtCsdE2kXyKmOF1_11async_trait8receiver11ReplaceSelfNtNtNtCs6IAuOt8vWmF_3syn3gen9visit_mut8VisitMut18visit_pat_rest_mutB6_, symObjAddr: 0x3504, symBinAddr: 0x39C6C, symSize: 0x3C }
  - { offset: 0x45756, size: 0x8, addend: 0x0, symName: __RNvYNtNtCsdE2kXyKmOF1_11async_trait8receiver11ReplaceSelfNtNtNtCs6IAuOt8vWmF_3syn3gen9visit_mut8VisitMut18visit_pat_type_mutB6_, symObjAddr: 0x3540, symBinAddr: 0x39CA8, symSize: 0x3C }
  - { offset: 0x45798, size: 0x8, addend: 0x0, symName: __RNvYNtNtCsdE2kXyKmOF1_11async_trait8receiver11ReplaceSelfNtNtNtCs6IAuOt8vWmF_3syn3gen9visit_mut8VisitMut18visit_pat_wild_mutB6_, symObjAddr: 0x357C, symBinAddr: 0x39CE4, symSize: 0x3C }
  - { offset: 0x457DA, size: 0x8, addend: 0x0, symName: __RNvYNtNtCsdE2kXyKmOF1_11async_trait8receiver11ReplaceSelfNtNtNtCs6IAuOt8vWmF_3syn3gen9visit_mut8VisitMut18visit_type_ptr_mutB6_, symObjAddr: 0x35B8, symBinAddr: 0x39D20, symSize: 0x3C }
  - { offset: 0x4581C, size: 0x8, addend: 0x0, symName: __RNvYNtNtCsdE2kXyKmOF1_11async_trait8receiver11ReplaceSelfNtNtNtCs6IAuOt8vWmF_3syn3gen9visit_mut8VisitMut19visit_attribute_mutB6_, symObjAddr: 0x35F4, symBinAddr: 0x39D5C, symSize: 0x3C }
  - { offset: 0x4585B, size: 0x8, addend: 0x0, symName: __RNvYNtNtCsdE2kXyKmOF1_11async_trait8receiver11ReplaceSelfNtNtNtCs6IAuOt8vWmF_3syn3gen9visit_mut8VisitMut19visit_expr_call_mutB6_, symObjAddr: 0x3630, symBinAddr: 0x39D98, symSize: 0x3C }
  - { offset: 0x4589A, size: 0x8, addend: 0x0, symName: __RNvYNtNtCsdE2kXyKmOF1_11async_trait8receiver11ReplaceSelfNtNtNtCs6IAuOt8vWmF_3syn3gen9visit_mut8VisitMut19visit_expr_cast_mutB6_, symObjAddr: 0x366C, symBinAddr: 0x39DD4, symSize: 0x3C }
  - { offset: 0x458D9, size: 0x8, addend: 0x0, symName: __RNvYNtNtCsdE2kXyKmOF1_11async_trait8receiver11ReplaceSelfNtNtNtCs6IAuOt8vWmF_3syn3gen9visit_mut8VisitMut19visit_expr_loop_mutB6_, symObjAddr: 0x36A8, symBinAddr: 0x39E10, symSize: 0x3C }
  - { offset: 0x45918, size: 0x8, addend: 0x0, symName: __RNvYNtNtCsdE2kXyKmOF1_11async_trait8receiver11ReplaceSelfNtNtNtCs6IAuOt8vWmF_3syn3gen9visit_mut8VisitMut19visit_expr_path_mutB6_, symObjAddr: 0x36E4, symBinAddr: 0x39E4C, symSize: 0x3C }
  - { offset: 0x4595A, size: 0x8, addend: 0x0, symName: __RNvYNtNtCsdE2kXyKmOF1_11async_trait8receiver11ReplaceSelfNtNtNtCs6IAuOt8vWmF_3syn3gen9visit_mut8VisitMut19visit_field_pat_mutB6_, symObjAddr: 0x3720, symBinAddr: 0x39E88, symSize: 0x3C }
  - { offset: 0x4599C, size: 0x8, addend: 0x0, symName: __RNvYNtNtCsdE2kXyKmOF1_11async_trait8receiver11ReplaceSelfNtNtNtCs6IAuOt8vWmF_3syn3gen9visit_mut8VisitMut19visit_lit_float_mutB6_, symObjAddr: 0x375C, symBinAddr: 0x39EC4, symSize: 0x3C }
  - { offset: 0x459DE, size: 0x8, addend: 0x0, symName: __RNvYNtNtCsdE2kXyKmOF1_11async_trait8receiver11ReplaceSelfNtNtNtCs6IAuOt8vWmF_3syn3gen9visit_mut8VisitMut19visit_meta_list_mutB6_, symObjAddr: 0x3798, symBinAddr: 0x39F00, symSize: 0x3C }
  - { offset: 0x45A20, size: 0x8, addend: 0x0, symName: __RNvYNtNtCsdE2kXyKmOF1_11async_trait8receiver11ReplaceSelfNtNtNtCs6IAuOt8vWmF_3syn3gen9visit_mut8VisitMut19visit_pat_ident_mutB6_, symObjAddr: 0x37D4, symBinAddr: 0x39F3C, symSize: 0x3C }
  - { offset: 0x45A62, size: 0x8, addend: 0x0, symName: __RNvYNtNtCsdE2kXyKmOF1_11async_trait8receiver11ReplaceSelfNtNtNtCs6IAuOt8vWmF_3syn3gen9visit_mut8VisitMut19visit_pat_paren_mutB6_, symObjAddr: 0x3810, symBinAddr: 0x39F78, symSize: 0x3C }
  - { offset: 0x45AA4, size: 0x8, addend: 0x0, symName: __RNvYNtNtCsdE2kXyKmOF1_11async_trait8receiver11ReplaceSelfNtNtNtCs6IAuOt8vWmF_3syn3gen9visit_mut8VisitMut19visit_pat_slice_mutB6_, symObjAddr: 0x384C, symBinAddr: 0x39FB4, symSize: 0x3C }
  - { offset: 0x45AE6, size: 0x8, addend: 0x0, symName: __RNvYNtNtCsdE2kXyKmOF1_11async_trait8receiver11ReplaceSelfNtNtNtCs6IAuOt8vWmF_3syn3gen9visit_mut8VisitMut19visit_pat_tuple_mutB6_, symObjAddr: 0x3888, symBinAddr: 0x39FF0, symSize: 0x3C }
  - { offset: 0x45B28, size: 0x8, addend: 0x0, symName: __RNvYNtNtCsdE2kXyKmOF1_11async_trait8receiver11ReplaceSelfNtNtNtCs6IAuOt8vWmF_3syn3gen9visit_mut8VisitMut19visit_type_path_mutB6_, symObjAddr: 0x38C4, symBinAddr: 0x3A02C, symSize: 0x3C }
  - { offset: 0x45B6A, size: 0x8, addend: 0x0, symName: __RNvYNtNtCsdE2kXyKmOF1_11async_trait8receiver11ReplaceSelfNtNtNtCs6IAuOt8vWmF_3syn3gen9visit_mut8VisitMut20visit_assoc_type_mutB6_, symObjAddr: 0x3900, symBinAddr: 0x3A068, symSize: 0x3C }
  - { offset: 0x45BA9, size: 0x8, addend: 0x0, symName: __RNvYNtNtCsdE2kXyKmOF1_11async_trait8receiver11ReplaceSelfNtNtNtCs6IAuOt8vWmF_3syn3gen9visit_mut8VisitMut20visit_attr_style_mutB6_, symObjAddr: 0x393C, symBinAddr: 0x3A0A4, symSize: 0x3C }
  - { offset: 0x45BE8, size: 0x8, addend: 0x0, symName: __RNvYNtNtCsdE2kXyKmOF1_11async_trait8receiver11ReplaceSelfNtNtNtCs6IAuOt8vWmF_3syn3gen9visit_mut8VisitMut20visit_attributes_mutB6_, symObjAddr: 0x3978, symBinAddr: 0x3A0E0, symSize: 0x98 }
  - { offset: 0x45C59, size: 0x8, addend: 0x0, symName: __RNvYNtNtCsdE2kXyKmOF1_11async_trait8receiver11ReplaceSelfNtNtNtCs6IAuOt8vWmF_3syn3gen9visit_mut8VisitMut20visit_constraint_mutB6_, symObjAddr: 0x3A10, symBinAddr: 0x3A178, symSize: 0x3C }
  - { offset: 0x45C98, size: 0x8, addend: 0x0, symName: __RNvYNtNtCsdE2kXyKmOF1_11async_trait8receiver11ReplaceSelfNtNtNtCs6IAuOt8vWmF_3syn3gen9visit_mut8VisitMut20visit_expr_array_mutB6_, symObjAddr: 0x3A4C, symBinAddr: 0x3A1B4, symSize: 0x3C }
  - { offset: 0x45CD7, size: 0x8, addend: 0x0, symName: __RNvYNtNtCsdE2kXyKmOF1_11async_trait8receiver11ReplaceSelfNtNtNtCs6IAuOt8vWmF_3syn3gen9visit_mut8VisitMut20visit_expr_async_mutB6_, symObjAddr: 0x3A88, symBinAddr: 0x3A1F0, symSize: 0x3C }
  - { offset: 0x45D16, size: 0x8, addend: 0x0, symName: __RNvYNtNtCsdE2kXyKmOF1_11async_trait8receiver11ReplaceSelfNtNtNtCs6IAuOt8vWmF_3syn3gen9visit_mut8VisitMut20visit_expr_await_mutB6_, symObjAddr: 0x3AC4, symBinAddr: 0x3A22C, symSize: 0x3C }
  - { offset: 0x45D55, size: 0x8, addend: 0x0, symName: __RNvYNtNtCsdE2kXyKmOF1_11async_trait8receiver11ReplaceSelfNtNtNtCs6IAuOt8vWmF_3syn3gen9visit_mut8VisitMut20visit_expr_block_mutB6_, symObjAddr: 0x3B00, symBinAddr: 0x3A268, symSize: 0x3C }
  - { offset: 0x45D94, size: 0x8, addend: 0x0, symName: __RNvYNtNtCsdE2kXyKmOF1_11async_trait8receiver11ReplaceSelfNtNtNtCs6IAuOt8vWmF_3syn3gen9visit_mut8VisitMut20visit_expr_break_mutB6_, symObjAddr: 0x3B3C, symBinAddr: 0x3A2A4, symSize: 0x3C }
  - { offset: 0x45DD3, size: 0x8, addend: 0x0, symName: __RNvYNtNtCsdE2kXyKmOF1_11async_trait8receiver11ReplaceSelfNtNtNtCs6IAuOt8vWmF_3syn3gen9visit_mut8VisitMut20visit_expr_const_mutB6_, symObjAddr: 0x3B78, symBinAddr: 0x3A2E0, symSize: 0x3C }
  - { offset: 0x45E12, size: 0x8, addend: 0x0, symName: __RNvYNtNtCsdE2kXyKmOF1_11async_trait8receiver11ReplaceSelfNtNtNtCs6IAuOt8vWmF_3syn3gen9visit_mut8VisitMut20visit_expr_field_mutB6_, symObjAddr: 0x3BB4, symBinAddr: 0x3A31C, symSize: 0x3C }
  - { offset: 0x45E51, size: 0x8, addend: 0x0, symName: __RNvYNtNtCsdE2kXyKmOF1_11async_trait8receiver11ReplaceSelfNtNtNtCs6IAuOt8vWmF_3syn3gen9visit_mut8VisitMut20visit_expr_group_mutB6_, symObjAddr: 0x3BF0, symBinAddr: 0x3A358, symSize: 0x3C }
  - { offset: 0x45E90, size: 0x8, addend: 0x0, symName: __RNvYNtNtCsdE2kXyKmOF1_11async_trait8receiver11ReplaceSelfNtNtNtCs6IAuOt8vWmF_3syn3gen9visit_mut8VisitMut20visit_expr_index_mutB6_, symObjAddr: 0x3C2C, symBinAddr: 0x3A394, symSize: 0x3C }
  - { offset: 0x45ECF, size: 0x8, addend: 0x0, symName: __RNvYNtNtCsdE2kXyKmOF1_11async_trait8receiver11ReplaceSelfNtNtNtCs6IAuOt8vWmF_3syn3gen9visit_mut8VisitMut20visit_expr_infer_mutB6_, symObjAddr: 0x3C68, symBinAddr: 0x3A3D0, symSize: 0x3C }
  - { offset: 0x45F0E, size: 0x8, addend: 0x0, symName: __RNvYNtNtCsdE2kXyKmOF1_11async_trait8receiver11ReplaceSelfNtNtNtCs6IAuOt8vWmF_3syn3gen9visit_mut8VisitMut20visit_expr_macro_mutB6_, symObjAddr: 0x3CA4, symBinAddr: 0x3A40C, symSize: 0x3C }
  - { offset: 0x45F4D, size: 0x8, addend: 0x0, symName: __RNvYNtNtCsdE2kXyKmOF1_11async_trait8receiver11ReplaceSelfNtNtNtCs6IAuOt8vWmF_3syn3gen9visit_mut8VisitMut20visit_expr_match_mutB6_, symObjAddr: 0x3CE0, symBinAddr: 0x3A448, symSize: 0x3C }
  - { offset: 0x45F8F, size: 0x8, addend: 0x0, symName: __RNvYNtNtCsdE2kXyKmOF1_11async_trait8receiver11ReplaceSelfNtNtNtCs6IAuOt8vWmF_3syn3gen9visit_mut8VisitMut20visit_expr_paren_mutB6_, symObjAddr: 0x3D1C, symBinAddr: 0x3A484, symSize: 0x3C }
  - { offset: 0x45FD1, size: 0x8, addend: 0x0, symName: __RNvYNtNtCsdE2kXyKmOF1_11async_trait8receiver11ReplaceSelfNtNtNtCs6IAuOt8vWmF_3syn3gen9visit_mut8VisitMut20visit_expr_range_mutB6_, symObjAddr: 0x3D58, symBinAddr: 0x3A4C0, symSize: 0x3C }
  - { offset: 0x46013, size: 0x8, addend: 0x0, symName: __RNvYNtNtCsdE2kXyKmOF1_11async_trait8receiver11ReplaceSelfNtNtNtCs6IAuOt8vWmF_3syn3gen9visit_mut8VisitMut20visit_expr_tuple_mutB6_, symObjAddr: 0x3D94, symBinAddr: 0x3A4FC, symSize: 0x3C }
  - { offset: 0x46055, size: 0x8, addend: 0x0, symName: __RNvYNtNtCsdE2kXyKmOF1_11async_trait8receiver11ReplaceSelfNtNtNtCs6IAuOt8vWmF_3syn3gen9visit_mut8VisitMut20visit_expr_unary_mutB6_, symObjAddr: 0x3DD0, symBinAddr: 0x3A538, symSize: 0x3C }
  - { offset: 0x46097, size: 0x8, addend: 0x0, symName: __RNvYNtNtCsdE2kXyKmOF1_11async_trait8receiver11ReplaceSelfNtNtNtCs6IAuOt8vWmF_3syn3gen9visit_mut8VisitMut20visit_expr_while_mutB6_, symObjAddr: 0x3E0C, symBinAddr: 0x3A574, symSize: 0x3C }
  - { offset: 0x460D9, size: 0x8, addend: 0x0, symName: __RNvYNtNtCsdE2kXyKmOF1_11async_trait8receiver11ReplaceSelfNtNtNtCs6IAuOt8vWmF_3syn3gen9visit_mut8VisitMut20visit_expr_yield_mutB6_, symObjAddr: 0x3E48, symBinAddr: 0x3A5B0, symSize: 0x3C }
  - { offset: 0x4611B, size: 0x8, addend: 0x0, symName: __RNvYNtNtCsdE2kXyKmOF1_11async_trait8receiver11ReplaceSelfNtNtNtCs6IAuOt8vWmF_3syn3gen9visit_mut8VisitMut20visit_local_init_mutB6_, symObjAddr: 0x3E84, symBinAddr: 0x3A5EC, symSize: 0x3C }
  - { offset: 0x4615D, size: 0x8, addend: 0x0, symName: __RNvYNtNtCsdE2kXyKmOF1_11async_trait8receiver11ReplaceSelfNtNtNtCs6IAuOt8vWmF_3syn3gen9visit_mut8VisitMut20visit_pat_struct_mutB6_, symObjAddr: 0x3EC0, symBinAddr: 0x3A628, symSize: 0x3C }
  - { offset: 0x4619F, size: 0x8, addend: 0x0, symName: __RNvYNtNtCsdE2kXyKmOF1_11async_trait8receiver11ReplaceSelfNtNtNtCs6IAuOt8vWmF_3syn3gen9visit_mut8VisitMut20visit_stmt_macro_mutB6_, symObjAddr: 0x3EFC, symBinAddr: 0x3A664, symSize: 0x3C }
  - { offset: 0x461E1, size: 0x8, addend: 0x0, symName: __RNvYNtNtCsdE2kXyKmOF1_11async_trait8receiver11ReplaceSelfNtNtNtCs6IAuOt8vWmF_3syn3gen9visit_mut8VisitMut20visit_type_array_mutB6_, symObjAddr: 0x3F38, symBinAddr: 0x3A6A0, symSize: 0x3C }
  - { offset: 0x46223, size: 0x8, addend: 0x0, symName: __RNvYNtNtCsdE2kXyKmOF1_11async_trait8receiver11ReplaceSelfNtNtNtCs6IAuOt8vWmF_3syn3gen9visit_mut8VisitMut20visit_type_group_mutB6_, symObjAddr: 0x3F74, symBinAddr: 0x3A6DC, symSize: 0x3C }
  - { offset: 0x46265, size: 0x8, addend: 0x0, symName: __RNvYNtNtCsdE2kXyKmOF1_11async_trait8receiver11ReplaceSelfNtNtNtCs6IAuOt8vWmF_3syn3gen9visit_mut8VisitMut20visit_type_infer_mutB6_, symObjAddr: 0x3FB0, symBinAddr: 0x3A718, symSize: 0x3C }
  - { offset: 0x462A7, size: 0x8, addend: 0x0, symName: __RNvYNtNtCsdE2kXyKmOF1_11async_trait8receiver11ReplaceSelfNtNtNtCs6IAuOt8vWmF_3syn3gen9visit_mut8VisitMut20visit_type_macro_mutB6_, symObjAddr: 0x3FEC, symBinAddr: 0x3A754, symSize: 0x3C }
  - { offset: 0x462E9, size: 0x8, addend: 0x0, symName: __RNvYNtNtCsdE2kXyKmOF1_11async_trait8receiver11ReplaceSelfNtNtNtCs6IAuOt8vWmF_3syn3gen9visit_mut8VisitMut20visit_type_never_mutB6_, symObjAddr: 0x4028, symBinAddr: 0x3A790, symSize: 0x3C }
  - { offset: 0x4632B, size: 0x8, addend: 0x0, symName: __RNvYNtNtCsdE2kXyKmOF1_11async_trait8receiver11ReplaceSelfNtNtNtCs6IAuOt8vWmF_3syn3gen9visit_mut8VisitMut20visit_type_param_mutB6_, symObjAddr: 0x4064, symBinAddr: 0x3A7CC, symSize: 0x3C }
  - { offset: 0x4636D, size: 0x8, addend: 0x0, symName: __RNvYNtNtCsdE2kXyKmOF1_11async_trait8receiver11ReplaceSelfNtNtNtCs6IAuOt8vWmF_3syn3gen9visit_mut8VisitMut20visit_type_paren_mutB6_, symObjAddr: 0x40A0, symBinAddr: 0x3A808, symSize: 0x3C }
  - { offset: 0x463AF, size: 0x8, addend: 0x0, symName: __RNvYNtNtCsdE2kXyKmOF1_11async_trait8receiver11ReplaceSelfNtNtNtCs6IAuOt8vWmF_3syn3gen9visit_mut8VisitMut20visit_type_slice_mutB6_, symObjAddr: 0x40DC, symBinAddr: 0x3A844, symSize: 0x3C }
  - { offset: 0x463F1, size: 0x8, addend: 0x0, symName: __RNvYNtNtCsdE2kXyKmOF1_11async_trait8receiver11ReplaceSelfNtNtNtCs6IAuOt8vWmF_3syn3gen9visit_mut8VisitMut20visit_type_tuple_mutB6_, symObjAddr: 0x4118, symBinAddr: 0x3A880, symSize: 0x3C }
  - { offset: 0x46433, size: 0x8, addend: 0x0, symName: __RNvYNtNtCsdE2kXyKmOF1_11async_trait8receiver11ReplaceSelfNtNtNtCs6IAuOt8vWmF_3syn3gen9visit_mut8VisitMut21visit_assoc_const_mutB6_, symObjAddr: 0x4154, symBinAddr: 0x3A8BC, symSize: 0x3C }
  - { offset: 0x46472, size: 0x8, addend: 0x0, symName: __RNvYNtNtCsdE2kXyKmOF1_11async_trait8receiver11ReplaceSelfNtNtNtCs6IAuOt8vWmF_3syn3gen9visit_mut8VisitMut21visit_bare_fn_arg_mutB6_, symObjAddr: 0x4190, symBinAddr: 0x3A8F8, symSize: 0x3C }
  - { offset: 0x464B1, size: 0x8, addend: 0x0, symName: __RNvYNtNtCsdE2kXyKmOF1_11async_trait8receiver11ReplaceSelfNtNtNtCs6IAuOt8vWmF_3syn3gen9visit_mut8VisitMut21visit_const_param_mutB6_, symObjAddr: 0x41CC, symBinAddr: 0x3A934, symSize: 0x3C }
  - { offset: 0x464F0, size: 0x8, addend: 0x0, symName: __RNvYNtNtCsdE2kXyKmOF1_11async_trait8receiver11ReplaceSelfNtNtNtCs6IAuOt8vWmF_3syn3gen9visit_mut8VisitMut21visit_expr_assign_mutB6_, symObjAddr: 0x4208, symBinAddr: 0x3A970, symSize: 0x3C }
  - { offset: 0x4652F, size: 0x8, addend: 0x0, symName: __RNvYNtNtCsdE2kXyKmOF1_11async_trait8receiver11ReplaceSelfNtNtNtCs6IAuOt8vWmF_3syn3gen9visit_mut8VisitMut21visit_expr_binary_mutB6_, symObjAddr: 0x4244, symBinAddr: 0x3A9AC, symSize: 0x3C }
  - { offset: 0x4656E, size: 0x8, addend: 0x0, symName: __RNvYNtNtCsdE2kXyKmOF1_11async_trait8receiver11ReplaceSelfNtNtNtCs6IAuOt8vWmF_3syn3gen9visit_mut8VisitMut21visit_expr_repeat_mutB6_, symObjAddr: 0x4280, symBinAddr: 0x3A9E8, symSize: 0x3C }
  - { offset: 0x465B0, size: 0x8, addend: 0x0, symName: __RNvYNtNtCsdE2kXyKmOF1_11async_trait8receiver11ReplaceSelfNtNtNtCs6IAuOt8vWmF_3syn3gen9visit_mut8VisitMut21visit_expr_return_mutB6_, symObjAddr: 0x42BC, symBinAddr: 0x3AA24, symSize: 0x3C }
  - { offset: 0x465F2, size: 0x8, addend: 0x0, symName: __RNvYNtNtCsdE2kXyKmOF1_11async_trait8receiver11ReplaceSelfNtNtNtCs6IAuOt8vWmF_3syn3gen9visit_mut8VisitMut21visit_expr_struct_mutB6_, symObjAddr: 0x42F8, symBinAddr: 0x3AA60, symSize: 0x3C }
  - { offset: 0x46634, size: 0x8, addend: 0x0, symName: __RNvYNtNtCsdE2kXyKmOF1_11async_trait8receiver11ReplaceSelfNtNtNtCs6IAuOt8vWmF_3syn3gen9visit_mut8VisitMut21visit_expr_unsafe_mutB6_, symObjAddr: 0x4334, symBinAddr: 0x3AA9C, symSize: 0x3C }
  - { offset: 0x46676, size: 0x8, addend: 0x0, symName: __RNvYNtNtCsdE2kXyKmOF1_11async_trait8receiver11ReplaceSelfNtNtNtCs6IAuOt8vWmF_3syn3gen9visit_mut8VisitMut21visit_field_value_mutB6_, symObjAddr: 0x4370, symBinAddr: 0x3AAD8, symSize: 0x3C }
  - { offset: 0x466B8, size: 0x8, addend: 0x0, symName: __RNvYNtNtCsdE2kXyKmOF1_11async_trait8receiver11ReplaceSelfNtNtNtCs6IAuOt8vWmF_3syn3gen9visit_mut8VisitMut21visit_return_type_mutB6_, symObjAddr: 0x43AC, symBinAddr: 0x3AB14, symSize: 0x3C }
  - { offset: 0x466FA, size: 0x8, addend: 0x0, symName: __RNvYNtNtCsdE2kXyKmOF1_11async_trait8receiver11ReplaceSelfNtNtNtCs6IAuOt8vWmF_3syn3gen9visit_mut8VisitMut21visit_trait_bound_mutB6_, symObjAddr: 0x43E8, symBinAddr: 0x3AB50, symSize: 0x3C }
  - { offset: 0x4673C, size: 0x8, addend: 0x0, symName: __RNvYNtNtCsdE2kXyKmOF1_11async_trait8receiver11ReplaceSelfNtNtNtCs6IAuOt8vWmF_3syn3gen9visit_mut8VisitMut22visit_expr_closure_mutB6_, symObjAddr: 0x4424, symBinAddr: 0x3AB8C, symSize: 0x3C }
  - { offset: 0x4677B, size: 0x8, addend: 0x0, symName: __RNvYNtNtCsdE2kXyKmOF1_11async_trait8receiver11ReplaceSelfNtNtNtCs6IAuOt8vWmF_3syn3gen9visit_mut8VisitMut22visit_lit_byte_str_mutB6_, symObjAddr: 0x4460, symBinAddr: 0x3ABC8, symSize: 0x3C }
  - { offset: 0x467BD, size: 0x8, addend: 0x0, symName: __RNvYNtNtCsdE2kXyKmOF1_11async_trait8receiver11ReplaceSelfNtNtNtCs6IAuOt8vWmF_3syn3gen9visit_mut8VisitMut22visit_range_limits_mutB6_, symObjAddr: 0x449C, symBinAddr: 0x3AC04, symSize: 0x3C }
  - { offset: 0x467FF, size: 0x8, addend: 0x0, symName: __RNvYNtNtCsdE2kXyKmOF1_11async_trait8receiver11ReplaceSelfNtNtNtCs6IAuOt8vWmF_3syn3gen9visit_mut8VisitMut22visit_token_stream_mutB6_, symObjAddr: 0x44D8, symBinAddr: 0x3AC40, symSize: 0x24 }
  - { offset: 0x46841, size: 0x8, addend: 0x0, symName: __RNvYNtNtCsdE2kXyKmOF1_11async_trait8receiver11ReplaceSelfNtNtNtCs6IAuOt8vWmF_3syn3gen9visit_mut8VisitMut22visit_type_bare_fn_mutB6_, symObjAddr: 0x44FC, symBinAddr: 0x3AC64, symSize: 0x3C }
  - { offset: 0x46883, size: 0x8, addend: 0x0, symName: __RNvYNtNtCsdE2kXyKmOF1_11async_trait8receiver11ReplaceSelfNtNtNtCs6IAuOt8vWmF_3syn3gen9visit_mut8VisitMut23visit_bare_variadic_mutB6_, symObjAddr: 0x4538, symBinAddr: 0x3ACA0, symSize: 0x3C }
  - { offset: 0x468C2, size: 0x8, addend: 0x0, symName: __RNvYNtNtCsdE2kXyKmOF1_11async_trait8receiver11ReplaceSelfNtNtNtCs6IAuOt8vWmF_3syn3gen9visit_mut8VisitMut23visit_expr_continue_mutB6_, symObjAddr: 0x4574, symBinAddr: 0x3ACDC, symSize: 0x3C }
  - { offset: 0x46901, size: 0x8, addend: 0x0, symName: __RNvYNtNtCsdE2kXyKmOF1_11async_trait8receiver11ReplaceSelfNtNtNtCs6IAuOt8vWmF_3syn3gen9visit_mut8VisitMut23visit_expr_for_loop_mutB6_, symObjAddr: 0x45B0, symBinAddr: 0x3AD18, symSize: 0x3C }
  - { offset: 0x46940, size: 0x8, addend: 0x0, symName: __RNvYNtNtCsdE2kXyKmOF1_11async_trait8receiver11ReplaceSelfNtNtNtCs6IAuOt8vWmF_3syn3gen9visit_mut8VisitMut23visit_expr_raw_addr_mutB6_, symObjAddr: 0x45EC, symBinAddr: 0x3AD54, symSize: 0x3C }
  - { offset: 0x46982, size: 0x8, addend: 0x0, symName: __RNvYNtNtCsdE2kXyKmOF1_11async_trait8receiver11ReplaceSelfNtNtNtCs6IAuOt8vWmF_3syn3gen9visit_mut8VisitMut23visit_generic_param_mutB6_, symObjAddr: 0x4628, symBinAddr: 0x3AD90, symSize: 0x3C }
  - { offset: 0x469C4, size: 0x8, addend: 0x0, symName: __RNvYNtNtCsdE2kXyKmOF1_11async_trait8receiver11ReplaceSelfNtNtNtCs6IAuOt8vWmF_3syn3gen9visit_mut8VisitMut23visit_pat_reference_mutB6_, symObjAddr: 0x4664, symBinAddr: 0x3ADCC, symSize: 0x3C }
  - { offset: 0x46A06, size: 0x8, addend: 0x0, symName: __RNvYNtNtCsdE2kXyKmOF1_11async_trait8receiver11ReplaceSelfNtNtNtCs6IAuOt8vWmF_3syn3gen9visit_mut8VisitMut24visit_captured_param_mutB6_, symObjAddr: 0x46A0, symBinAddr: 0x3AE08, symSize: 0x3C }
  - { offset: 0x46A45, size: 0x8, addend: 0x0, symName: __RNvYNtNtCsdE2kXyKmOF1_11async_trait8receiver11ReplaceSelfNtNtNtCs6IAuOt8vWmF_3syn3gen9visit_mut8VisitMut24visit_expr_reference_mutB6_, symObjAddr: 0x46DC, symBinAddr: 0x3AE44, symSize: 0x3C }
  - { offset: 0x46A87, size: 0x8, addend: 0x0, symName: __RNvYNtNtCsdE2kXyKmOF1_11async_trait8receiver11ReplaceSelfNtNtNtCs6IAuOt8vWmF_3syn3gen9visit_mut8VisitMut24visit_expr_try_block_mutB6_, symObjAddr: 0x4718, symBinAddr: 0x3AE80, symSize: 0x3C }
  - { offset: 0x46AC9, size: 0x8, addend: 0x0, symName: __RNvYNtNtCsdE2kXyKmOF1_11async_trait8receiver11ReplaceSelfNtNtNtCs6IAuOt8vWmF_3syn3gen9visit_mut8VisitMut24visit_lifetime_param_mutB6_, symObjAddr: 0x4754, symBinAddr: 0x3AEBC, symSize: 0x3C }
  - { offset: 0x46B0B, size: 0x8, addend: 0x0, symName: __RNvYNtNtCsdE2kXyKmOF1_11async_trait8receiver11ReplaceSelfNtNtNtCs6IAuOt8vWmF_3syn3gen9visit_mut8VisitMut24visit_path_arguments_mutB6_, symObjAddr: 0x4790, symBinAddr: 0x3AEF8, symSize: 0x3C }
  - { offset: 0x46B4D, size: 0x8, addend: 0x0, symName: __RNvYNtNtCsdE2kXyKmOF1_11async_trait8receiver11ReplaceSelfNtNtNtCs6IAuOt8vWmF_3syn3gen9visit_mut8VisitMut24visit_type_reference_mutB6_, symObjAddr: 0x47CC, symBinAddr: 0x3AF34, symSize: 0x3C }
  - { offset: 0x46B8F, size: 0x8, addend: 0x0, symName: __RNvYNtNtCsdE2kXyKmOF1_11async_trait8receiver11ReplaceSelfNtNtNtCs6IAuOt8vWmF_3syn3gen9visit_mut8VisitMut25visit_bound_lifetimes_mutB6_, symObjAddr: 0x4808, symBinAddr: 0x3AF70, symSize: 0x3C }
  - { offset: 0x46BCE, size: 0x8, addend: 0x0, symName: __RNvYNtNtCsdE2kXyKmOF1_11async_trait8receiver11ReplaceSelfNtNtNtCs6IAuOt8vWmF_3syn3gen9visit_mut8VisitMut25visit_macro_delimiter_mutB6_, symObjAddr: 0x4844, symBinAddr: 0x3AFAC, symSize: 0x3C }
  - { offset: 0x46C10, size: 0x8, addend: 0x0, symName: __RNvYNtNtCsdE2kXyKmOF1_11async_trait8receiver11ReplaceSelfNtNtNtCs6IAuOt8vWmF_3syn3gen9visit_mut8VisitMut25visit_meta_name_value_mutB6_, symObjAddr: 0x4880, symBinAddr: 0x3AFE8, symSize: 0x3C }
  - { offset: 0x46C52, size: 0x8, addend: 0x0, symName: __RNvYNtNtCsdE2kXyKmOF1_11async_trait8receiver11ReplaceSelfNtNtNtCs6IAuOt8vWmF_3syn3gen9visit_mut8VisitMut25visit_precise_capture_mutB6_, symObjAddr: 0x48BC, symBinAddr: 0x3B024, symSize: 0x3C }
  - { offset: 0x46C94, size: 0x8, addend: 0x0, symName: __RNvYNtNtCsdE2kXyKmOF1_11async_trait8receiver11ReplaceSelfNtNtNtCs6IAuOt8vWmF_3syn3gen9visit_mut8VisitMut25visit_type_impl_trait_mutB6_, symObjAddr: 0x48F8, symBinAddr: 0x3B060, symSize: 0x3C }
  - { offset: 0x46CD6, size: 0x8, addend: 0x0, symName: __RNvYNtNtCsdE2kXyKmOF1_11async_trait8receiver11ReplaceSelfNtNtNtCs6IAuOt8vWmF_3syn3gen9visit_mut8VisitMut26visit_expr_method_call_mutB6_, symObjAddr: 0x4934, symBinAddr: 0x3B09C, symSize: 0x3C }
  - { offset: 0x46D18, size: 0x8, addend: 0x0, symName: __RNvYNtNtCsdE2kXyKmOF1_11async_trait8receiver11ReplaceSelfNtNtNtCs6IAuOt8vWmF_3syn3gen9visit_mut8VisitMut26visit_generic_argument_mutB6_, symObjAddr: 0x4970, symBinAddr: 0x3B0D8, symSize: 0x3C }
  - { offset: 0x46D5A, size: 0x8, addend: 0x0, symName: __RNvYNtNtCsdE2kXyKmOF1_11async_trait8receiver11ReplaceSelfNtNtNtCs6IAuOt8vWmF_3syn3gen9visit_mut8VisitMut26visit_pat_tuple_struct_mutB6_, symObjAddr: 0x49AC, symBinAddr: 0x3B114, symSize: 0x3C }
  - { offset: 0x46D9C, size: 0x8, addend: 0x0, symName: __RNvYNtNtCsdE2kXyKmOF1_11async_trait8receiver11ReplaceSelfNtNtNtCs6IAuOt8vWmF_3syn3gen9visit_mut8VisitMut26visit_type_param_bound_mutB6_, symObjAddr: 0x49E8, symBinAddr: 0x3B150, symSize: 0x3C }
  - { offset: 0x46DDE, size: 0x8, addend: 0x0, symName: __RNvYNtNtCsdE2kXyKmOF1_11async_trait8receiver11ReplaceSelfNtNtNtCs6IAuOt8vWmF_3syn3gen9visit_mut8VisitMut27visit_type_trait_object_mutB6_, symObjAddr: 0x4A24, symBinAddr: 0x3B18C, symSize: 0x3C }
  - { offset: 0x46E20, size: 0x8, addend: 0x0, symName: __RNvYNtNtCsdE2kXyKmOF1_11async_trait8receiver11ReplaceSelfNtNtNtCs6IAuOt8vWmF_3syn3gen9visit_mut8VisitMut28visit_pointer_mutability_mutB6_, symObjAddr: 0x4A60, symBinAddr: 0x3B1C8, symSize: 0x3C }
  - { offset: 0x46E62, size: 0x8, addend: 0x0, symName: __RNvYNtNtCsdE2kXyKmOF1_11async_trait8receiver11ReplaceSelfNtNtNtCs6IAuOt8vWmF_3syn3gen9visit_mut8VisitMut30visit_trait_bound_modifier_mutB6_, symObjAddr: 0x4A9C, symBinAddr: 0x3B204, symSize: 0x3C }
  - { offset: 0x46EA4, size: 0x8, addend: 0x0, symName: __RNvYNtNtCsdE2kXyKmOF1_11async_trait8receiver11ReplaceSelfNtNtNtCs6IAuOt8vWmF_3syn3gen9visit_mut8VisitMut41visit_parenthesized_generic_arguments_mutB6_, symObjAddr: 0x4AD8, symBinAddr: 0x3B240, symSize: 0x3C }
  - { offset: 0x46EE6, size: 0x8, addend: 0x0, symName: __RNvYNtNtCsdE2kXyKmOF1_11async_trait8receiver11ReplaceSelfNtNtNtCs6IAuOt8vWmF_3syn3gen9visit_mut8VisitMut43visit_angle_bracketed_generic_arguments_mutB6_, symObjAddr: 0x4B14, symBinAddr: 0x3B27C, symSize: 0x3C }
  - { offset: 0x46F25, size: 0x8, addend: 0x0, symName: __RNvYNtNtCsdE2kXyKmOF1_11async_trait8receiver7HasSelfNtNtNtCs6IAuOt8vWmF_3syn3gen9visit_mut8VisitMut13visit_abi_mutB6_, symObjAddr: 0x4B50, symBinAddr: 0x3B2B8, symSize: 0x3C }
  - { offset: 0x46F64, size: 0x8, addend: 0x0, symName: __RNvYNtNtCsdE2kXyKmOF1_11async_trait8receiver7HasSelfNtNtNtCs6IAuOt8vWmF_3syn3gen9visit_mut8VisitMut13visit_arm_mutB6_, symObjAddr: 0x4B8C, symBinAddr: 0x3B2F4, symSize: 0x3C }
  - { offset: 0x46FA3, size: 0x8, addend: 0x0, symName: __RNvYNtNtCsdE2kXyKmOF1_11async_trait8receiver7HasSelfNtNtNtCs6IAuOt8vWmF_3syn3gen9visit_mut8VisitMut13visit_lit_mutB6_, symObjAddr: 0x4BC8, symBinAddr: 0x3B330, symSize: 0x3C }
  - { offset: 0x46FE5, size: 0x8, addend: 0x0, symName: __RNvYNtNtCsdE2kXyKmOF1_11async_trait8receiver7HasSelfNtNtNtCs6IAuOt8vWmF_3syn3gen9visit_mut8VisitMut13visit_pat_mutB6_, symObjAddr: 0x4C04, symBinAddr: 0x3B36C, symSize: 0x3C }
  - { offset: 0x47027, size: 0x8, addend: 0x0, symName: __RNvYNtNtCsdE2kXyKmOF1_11async_trait8receiver7HasSelfNtNtNtCs6IAuOt8vWmF_3syn3gen9visit_mut8VisitMut14visit_expr_mutB6_, symObjAddr: 0x4C40, symBinAddr: 0x3B3A8, symSize: 0x3C }
  - { offset: 0x47066, size: 0x8, addend: 0x0, symName: __RNvYNtNtCsdE2kXyKmOF1_11async_trait8receiver7HasSelfNtNtNtCs6IAuOt8vWmF_3syn3gen9visit_mut8VisitMut14visit_meta_mutB6_, symObjAddr: 0x4C7C, symBinAddr: 0x3B3E4, symSize: 0x3C }
  - { offset: 0x470A8, size: 0x8, addend: 0x0, symName: __RNvYNtNtCsdE2kXyKmOF1_11async_trait8receiver7HasSelfNtNtNtCs6IAuOt8vWmF_3syn3gen9visit_mut8VisitMut14visit_path_mutB6_, symObjAddr: 0x4CB8, symBinAddr: 0x3B420, symSize: 0x3C }
  - { offset: 0x470EA, size: 0x8, addend: 0x0, symName: __RNvYNtNtCsdE2kXyKmOF1_11async_trait8receiver7HasSelfNtNtNtCs6IAuOt8vWmF_3syn3gen9visit_mut8VisitMut14visit_span_mutB6_, symObjAddr: 0x4CF4, symBinAddr: 0x3B45C, symSize: 0x24 }
  - { offset: 0x4712C, size: 0x8, addend: 0x0, symName: __RNvYNtNtCsdE2kXyKmOF1_11async_trait8receiver7HasSelfNtNtNtCs6IAuOt8vWmF_3syn3gen9visit_mut8VisitMut14visit_stmt_mutB6_, symObjAddr: 0x4D18, symBinAddr: 0x3B480, symSize: 0x3C }
  - { offset: 0x4716E, size: 0x8, addend: 0x0, symName: __RNvYNtNtCsdE2kXyKmOF1_11async_trait8receiver7HasSelfNtNtNtCs6IAuOt8vWmF_3syn3gen9visit_mut8VisitMut14visit_type_mutB6_, symObjAddr: 0x4D54, symBinAddr: 0x3B4BC, symSize: 0x3C }
  - { offset: 0x471B0, size: 0x8, addend: 0x0, symName: __RNvYNtNtCsdE2kXyKmOF1_11async_trait8receiver7HasSelfNtNtNtCs6IAuOt8vWmF_3syn3gen9visit_mut8VisitMut15visit_block_mutB6_, symObjAddr: 0x4D90, symBinAddr: 0x3B4F8, symSize: 0x3C }
  - { offset: 0x471EF, size: 0x8, addend: 0x0, symName: __RNvYNtNtCsdE2kXyKmOF1_11async_trait8receiver7HasSelfNtNtNtCs6IAuOt8vWmF_3syn3gen9visit_mut8VisitMut15visit_ident_mutB6_, symObjAddr: 0x4DCC, symBinAddr: 0x3B534, symSize: 0x3C }
  - { offset: 0x47231, size: 0x8, addend: 0x0, symName: __RNvYNtNtCsdE2kXyKmOF1_11async_trait8receiver7HasSelfNtNtNtCs6IAuOt8vWmF_3syn3gen9visit_mut8VisitMut15visit_index_mutB6_, symObjAddr: 0x4E08, symBinAddr: 0x3B570, symSize: 0x3C }
  - { offset: 0x47273, size: 0x8, addend: 0x0, symName: __RNvYNtNtCsdE2kXyKmOF1_11async_trait8receiver7HasSelfNtNtNtCs6IAuOt8vWmF_3syn3gen9visit_mut8VisitMut15visit_label_mutB6_, symObjAddr: 0x4E44, symBinAddr: 0x3B5AC, symSize: 0x3C }
  - { offset: 0x472B5, size: 0x8, addend: 0x0, symName: __RNvYNtNtCsdE2kXyKmOF1_11async_trait8receiver7HasSelfNtNtNtCs6IAuOt8vWmF_3syn3gen9visit_mut8VisitMut15visit_local_mutB6_, symObjAddr: 0x4E80, symBinAddr: 0x3B5E8, symSize: 0x3C }
  - { offset: 0x472F7, size: 0x8, addend: 0x0, symName: __RNvYNtNtCsdE2kXyKmOF1_11async_trait8receiver7HasSelfNtNtNtCs6IAuOt8vWmF_3syn3gen9visit_mut8VisitMut15visit_qself_mutB6_, symObjAddr: 0x4EBC, symBinAddr: 0x3B624, symSize: 0x3C }
  - { offset: 0x47339, size: 0x8, addend: 0x0, symName: __RNvYNtNtCsdE2kXyKmOF1_11async_trait8receiver7HasSelfNtNtNtCs6IAuOt8vWmF_3syn3gen9visit_mut8VisitMut15visit_un_op_mutB6_, symObjAddr: 0x4EF8, symBinAddr: 0x3B660, symSize: 0x3C }
  - { offset: 0x4737B, size: 0x8, addend: 0x0, symName: __RNvYNtNtCsdE2kXyKmOF1_11async_trait8receiver7HasSelfNtNtNtCs6IAuOt8vWmF_3syn3gen9visit_mut8VisitMut16visit_bin_op_mutB6_, symObjAddr: 0x4F34, symBinAddr: 0x3B69C, symSize: 0x3C }
  - { offset: 0x473BA, size: 0x8, addend: 0x0, symName: __RNvYNtNtCsdE2kXyKmOF1_11async_trait8receiver7HasSelfNtNtNtCs6IAuOt8vWmF_3syn3gen9visit_mut8VisitMut16visit_fn_arg_mutB6_, symObjAddr: 0x4F70, symBinAddr: 0x3B6D8, symSize: 0x3C }
  - { offset: 0x473FC, size: 0x8, addend: 0x0, symName: __RNvYNtNtCsdE2kXyKmOF1_11async_trait8receiver7HasSelfNtNtNtCs6IAuOt8vWmF_3syn3gen9visit_mut8VisitMut16visit_member_mutB6_, symObjAddr: 0x4FAC, symBinAddr: 0x3B714, symSize: 0x3C }
  - { offset: 0x4743E, size: 0x8, addend: 0x0, symName: __RNvYNtNtCsdE2kXyKmOF1_11async_trait8receiver7HasSelfNtNtNtCs6IAuOt8vWmF_3syn3gen9visit_mut8VisitMut16visit_pat_or_mutB6_, symObjAddr: 0x4FE8, symBinAddr: 0x3B750, symSize: 0x3C }
  - { offset: 0x47480, size: 0x8, addend: 0x0, symName: __RNvYNtNtCsdE2kXyKmOF1_11async_trait8receiver7HasSelfNtNtNtCs6IAuOt8vWmF_3syn3gen9visit_mut8VisitMut17visit_expr_if_mutB6_, symObjAddr: 0x5024, symBinAddr: 0x3B78C, symSize: 0x3C }
  - { offset: 0x474BF, size: 0x8, addend: 0x0, symName: __RNvYNtNtCsdE2kXyKmOF1_11async_trait8receiver7HasSelfNtNtNtCs6IAuOt8vWmF_3syn3gen9visit_mut8VisitMut17visit_lit_int_mutB6_, symObjAddr: 0x5060, symBinAddr: 0x3B7C8, symSize: 0x3C }
  - { offset: 0x47501, size: 0x8, addend: 0x0, symName: __RNvYNtNtCsdE2kXyKmOF1_11async_trait8receiver7HasSelfNtNtNtCs6IAuOt8vWmF_3syn3gen9visit_mut8VisitMut17visit_lit_str_mutB6_, symObjAddr: 0x509C, symBinAddr: 0x3B804, symSize: 0x3C }
  - { offset: 0x47543, size: 0x8, addend: 0x0, symName: __RNvYNtNtCsdE2kXyKmOF1_11async_trait8receiver7HasSelfNtNtNtCs6IAuOt8vWmF_3syn3gen9visit_mut8VisitMut18visit_expr_let_mutB6_, symObjAddr: 0x50D8, symBinAddr: 0x3B840, symSize: 0x3C }
  - { offset: 0x47582, size: 0x8, addend: 0x0, symName: __RNvYNtNtCsdE2kXyKmOF1_11async_trait8receiver7HasSelfNtNtNtCs6IAuOt8vWmF_3syn3gen9visit_mut8VisitMut18visit_expr_lit_mutB6_, symObjAddr: 0x5114, symBinAddr: 0x3B87C, symSize: 0x3C }
  - { offset: 0x475C1, size: 0x8, addend: 0x0, symName: __RNvYNtNtCsdE2kXyKmOF1_11async_trait8receiver7HasSelfNtNtNtCs6IAuOt8vWmF_3syn3gen9visit_mut8VisitMut18visit_expr_try_mutB6_, symObjAddr: 0x5150, symBinAddr: 0x3B8B8, symSize: 0x3C }
  - { offset: 0x47603, size: 0x8, addend: 0x0, symName: __RNvYNtNtCsdE2kXyKmOF1_11async_trait8receiver7HasSelfNtNtNtCs6IAuOt8vWmF_3syn3gen9visit_mut8VisitMut18visit_generics_mutB6_, symObjAddr: 0x518C, symBinAddr: 0x3B8F4, symSize: 0x3C }
  - { offset: 0x47645, size: 0x8, addend: 0x0, symName: __RNvYNtNtCsdE2kXyKmOF1_11async_trait8receiver7HasSelfNtNtNtCs6IAuOt8vWmF_3syn3gen9visit_mut8VisitMut18visit_lifetime_mutB6_, symObjAddr: 0x51C8, symBinAddr: 0x3B930, symSize: 0x3C }
  - { offset: 0x47687, size: 0x8, addend: 0x0, symName: __RNvYNtNtCsdE2kXyKmOF1_11async_trait8receiver7HasSelfNtNtNtCs6IAuOt8vWmF_3syn3gen9visit_mut8VisitMut18visit_lit_bool_mutB6_, symObjAddr: 0x5204, symBinAddr: 0x3B96C, symSize: 0x3C }
  - { offset: 0x476C9, size: 0x8, addend: 0x0, symName: __RNvYNtNtCsdE2kXyKmOF1_11async_trait8receiver7HasSelfNtNtNtCs6IAuOt8vWmF_3syn3gen9visit_mut8VisitMut18visit_lit_byte_mutB6_, symObjAddr: 0x5240, symBinAddr: 0x3B9A8, symSize: 0x3C }
  - { offset: 0x4770B, size: 0x8, addend: 0x0, symName: __RNvYNtNtCsdE2kXyKmOF1_11async_trait8receiver7HasSelfNtNtNtCs6IAuOt8vWmF_3syn3gen9visit_mut8VisitMut18visit_lit_char_mutB6_, symObjAddr: 0x527C, symBinAddr: 0x3B9E4, symSize: 0x3C }
  - { offset: 0x4774D, size: 0x8, addend: 0x0, symName: __RNvYNtNtCsdE2kXyKmOF1_11async_trait8receiver7HasSelfNtNtNtCs6IAuOt8vWmF_3syn3gen9visit_mut8VisitMut18visit_lit_cstr_mutB6_, symObjAddr: 0x52B8, symBinAddr: 0x3BA20, symSize: 0x3C }
  - { offset: 0x4778F, size: 0x8, addend: 0x0, symName: __RNvYNtNtCsdE2kXyKmOF1_11async_trait8receiver7HasSelfNtNtNtCs6IAuOt8vWmF_3syn3gen9visit_mut8VisitMut18visit_pat_rest_mutB6_, symObjAddr: 0x52F4, symBinAddr: 0x3BA5C, symSize: 0x3C }
  - { offset: 0x477D1, size: 0x8, addend: 0x0, symName: __RNvYNtNtCsdE2kXyKmOF1_11async_trait8receiver7HasSelfNtNtNtCs6IAuOt8vWmF_3syn3gen9visit_mut8VisitMut18visit_pat_type_mutB6_, symObjAddr: 0x5330, symBinAddr: 0x3BA98, symSize: 0x3C }
  - { offset: 0x47813, size: 0x8, addend: 0x0, symName: __RNvYNtNtCsdE2kXyKmOF1_11async_trait8receiver7HasSelfNtNtNtCs6IAuOt8vWmF_3syn3gen9visit_mut8VisitMut18visit_pat_wild_mutB6_, symObjAddr: 0x536C, symBinAddr: 0x3BAD4, symSize: 0x3C }
  - { offset: 0x47855, size: 0x8, addend: 0x0, symName: __RNvYNtNtCsdE2kXyKmOF1_11async_trait8receiver7HasSelfNtNtNtCs6IAuOt8vWmF_3syn3gen9visit_mut8VisitMut18visit_type_ptr_mutB6_, symObjAddr: 0x53A8, symBinAddr: 0x3BB10, symSize: 0x3C }
  - { offset: 0x47897, size: 0x8, addend: 0x0, symName: __RNvYNtNtCsdE2kXyKmOF1_11async_trait8receiver7HasSelfNtNtNtCs6IAuOt8vWmF_3syn3gen9visit_mut8VisitMut18visit_variadic_mutB6_, symObjAddr: 0x53E4, symBinAddr: 0x3BB4C, symSize: 0x3C }
  - { offset: 0x478D9, size: 0x8, addend: 0x0, symName: __RNvYNtNtCsdE2kXyKmOF1_11async_trait8receiver7HasSelfNtNtNtCs6IAuOt8vWmF_3syn3gen9visit_mut8VisitMut19visit_attribute_mutB6_, symObjAddr: 0x5420, symBinAddr: 0x3BB88, symSize: 0x3C }
  - { offset: 0x47918, size: 0x8, addend: 0x0, symName: __RNvYNtNtCsdE2kXyKmOF1_11async_trait8receiver7HasSelfNtNtNtCs6IAuOt8vWmF_3syn3gen9visit_mut8VisitMut19visit_expr_call_mutB6_, symObjAddr: 0x545C, symBinAddr: 0x3BBC4, symSize: 0x3C }
  - { offset: 0x47957, size: 0x8, addend: 0x0, symName: __RNvYNtNtCsdE2kXyKmOF1_11async_trait8receiver7HasSelfNtNtNtCs6IAuOt8vWmF_3syn3gen9visit_mut8VisitMut19visit_expr_cast_mutB6_, symObjAddr: 0x5498, symBinAddr: 0x3BC00, symSize: 0x3C }
  - { offset: 0x47996, size: 0x8, addend: 0x0, symName: __RNvYNtNtCsdE2kXyKmOF1_11async_trait8receiver7HasSelfNtNtNtCs6IAuOt8vWmF_3syn3gen9visit_mut8VisitMut19visit_expr_loop_mutB6_, symObjAddr: 0x54D4, symBinAddr: 0x3BC3C, symSize: 0x3C }
  - { offset: 0x479D5, size: 0x8, addend: 0x0, symName: __RNvYNtNtCsdE2kXyKmOF1_11async_trait8receiver7HasSelfNtNtNtCs6IAuOt8vWmF_3syn3gen9visit_mut8VisitMut19visit_field_pat_mutB6_, symObjAddr: 0x5510, symBinAddr: 0x3BC78, symSize: 0x3C }
  - { offset: 0x47A17, size: 0x8, addend: 0x0, symName: __RNvYNtNtCsdE2kXyKmOF1_11async_trait8receiver7HasSelfNtNtNtCs6IAuOt8vWmF_3syn3gen9visit_mut8VisitMut19visit_lit_float_mutB6_, symObjAddr: 0x554C, symBinAddr: 0x3BCB4, symSize: 0x3C }
  - { offset: 0x47A59, size: 0x8, addend: 0x0, symName: __RNvYNtNtCsdE2kXyKmOF1_11async_trait8receiver7HasSelfNtNtNtCs6IAuOt8vWmF_3syn3gen9visit_mut8VisitMut19visit_meta_list_mutB6_, symObjAddr: 0x5588, symBinAddr: 0x3BCF0, symSize: 0x3C }
  - { offset: 0x47A9B, size: 0x8, addend: 0x0, symName: __RNvYNtNtCsdE2kXyKmOF1_11async_trait8receiver7HasSelfNtNtNtCs6IAuOt8vWmF_3syn3gen9visit_mut8VisitMut19visit_pat_ident_mutB6_, symObjAddr: 0x55C4, symBinAddr: 0x3BD2C, symSize: 0x3C }
  - { offset: 0x47ADD, size: 0x8, addend: 0x0, symName: __RNvYNtNtCsdE2kXyKmOF1_11async_trait8receiver7HasSelfNtNtNtCs6IAuOt8vWmF_3syn3gen9visit_mut8VisitMut19visit_pat_paren_mutB6_, symObjAddr: 0x5600, symBinAddr: 0x3BD68, symSize: 0x3C }
  - { offset: 0x47B1F, size: 0x8, addend: 0x0, symName: __RNvYNtNtCsdE2kXyKmOF1_11async_trait8receiver7HasSelfNtNtNtCs6IAuOt8vWmF_3syn3gen9visit_mut8VisitMut19visit_pat_slice_mutB6_, symObjAddr: 0x563C, symBinAddr: 0x3BDA4, symSize: 0x3C }
  - { offset: 0x47B61, size: 0x8, addend: 0x0, symName: __RNvYNtNtCsdE2kXyKmOF1_11async_trait8receiver7HasSelfNtNtNtCs6IAuOt8vWmF_3syn3gen9visit_mut8VisitMut19visit_pat_tuple_mutB6_, symObjAddr: 0x5678, symBinAddr: 0x3BDE0, symSize: 0x3C }
  - { offset: 0x47BA3, size: 0x8, addend: 0x0, symName: __RNvYNtNtCsdE2kXyKmOF1_11async_trait8receiver7HasSelfNtNtNtCs6IAuOt8vWmF_3syn3gen9visit_mut8VisitMut19visit_signature_mutB6_, symObjAddr: 0x56B4, symBinAddr: 0x3BE1C, symSize: 0x3C }
  - { offset: 0x47BE5, size: 0x8, addend: 0x0, symName: __RNvYNtNtCsdE2kXyKmOF1_11async_trait8receiver7HasSelfNtNtNtCs6IAuOt8vWmF_3syn3gen9visit_mut8VisitMut20visit_assoc_type_mutB6_, symObjAddr: 0x56F0, symBinAddr: 0x3BE58, symSize: 0x3C }
  - { offset: 0x47C24, size: 0x8, addend: 0x0, symName: __RNvYNtNtCsdE2kXyKmOF1_11async_trait8receiver7HasSelfNtNtNtCs6IAuOt8vWmF_3syn3gen9visit_mut8VisitMut20visit_attr_style_mutB6_, symObjAddr: 0x572C, symBinAddr: 0x3BE94, symSize: 0x3C }
  - { offset: 0x47C63, size: 0x8, addend: 0x0, symName: __RNvYNtNtCsdE2kXyKmOF1_11async_trait8receiver7HasSelfNtNtNtCs6IAuOt8vWmF_3syn3gen9visit_mut8VisitMut20visit_attributes_mutB6_, symObjAddr: 0x5768, symBinAddr: 0x3BED0, symSize: 0x98 }
  - { offset: 0x47CD4, size: 0x8, addend: 0x0, symName: __RNvYNtNtCsdE2kXyKmOF1_11async_trait8receiver7HasSelfNtNtNtCs6IAuOt8vWmF_3syn3gen9visit_mut8VisitMut20visit_constraint_mutB6_, symObjAddr: 0x5800, symBinAddr: 0x3BF68, symSize: 0x3C }
  - { offset: 0x47D13, size: 0x8, addend: 0x0, symName: __RNvYNtNtCsdE2kXyKmOF1_11async_trait8receiver7HasSelfNtNtNtCs6IAuOt8vWmF_3syn3gen9visit_mut8VisitMut20visit_expr_array_mutB6_, symObjAddr: 0x583C, symBinAddr: 0x3BFA4, symSize: 0x3C }
  - { offset: 0x47D52, size: 0x8, addend: 0x0, symName: __RNvYNtNtCsdE2kXyKmOF1_11async_trait8receiver7HasSelfNtNtNtCs6IAuOt8vWmF_3syn3gen9visit_mut8VisitMut20visit_expr_async_mutB6_, symObjAddr: 0x5878, symBinAddr: 0x3BFE0, symSize: 0x3C }
  - { offset: 0x47D91, size: 0x8, addend: 0x0, symName: __RNvYNtNtCsdE2kXyKmOF1_11async_trait8receiver7HasSelfNtNtNtCs6IAuOt8vWmF_3syn3gen9visit_mut8VisitMut20visit_expr_await_mutB6_, symObjAddr: 0x58B4, symBinAddr: 0x3C01C, symSize: 0x3C }
  - { offset: 0x47DD0, size: 0x8, addend: 0x0, symName: __RNvYNtNtCsdE2kXyKmOF1_11async_trait8receiver7HasSelfNtNtNtCs6IAuOt8vWmF_3syn3gen9visit_mut8VisitMut20visit_expr_block_mutB6_, symObjAddr: 0x58F0, symBinAddr: 0x3C058, symSize: 0x3C }
  - { offset: 0x47E0F, size: 0x8, addend: 0x0, symName: __RNvYNtNtCsdE2kXyKmOF1_11async_trait8receiver7HasSelfNtNtNtCs6IAuOt8vWmF_3syn3gen9visit_mut8VisitMut20visit_expr_break_mutB6_, symObjAddr: 0x592C, symBinAddr: 0x3C094, symSize: 0x3C }
  - { offset: 0x47E4E, size: 0x8, addend: 0x0, symName: __RNvYNtNtCsdE2kXyKmOF1_11async_trait8receiver7HasSelfNtNtNtCs6IAuOt8vWmF_3syn3gen9visit_mut8VisitMut20visit_expr_const_mutB6_, symObjAddr: 0x5968, symBinAddr: 0x3C0D0, symSize: 0x3C }
  - { offset: 0x47E8D, size: 0x8, addend: 0x0, symName: __RNvYNtNtCsdE2kXyKmOF1_11async_trait8receiver7HasSelfNtNtNtCs6IAuOt8vWmF_3syn3gen9visit_mut8VisitMut20visit_expr_field_mutB6_, symObjAddr: 0x59A4, symBinAddr: 0x3C10C, symSize: 0x3C }
  - { offset: 0x47ECC, size: 0x8, addend: 0x0, symName: __RNvYNtNtCsdE2kXyKmOF1_11async_trait8receiver7HasSelfNtNtNtCs6IAuOt8vWmF_3syn3gen9visit_mut8VisitMut20visit_expr_group_mutB6_, symObjAddr: 0x59E0, symBinAddr: 0x3C148, symSize: 0x3C }
  - { offset: 0x47F0B, size: 0x8, addend: 0x0, symName: __RNvYNtNtCsdE2kXyKmOF1_11async_trait8receiver7HasSelfNtNtNtCs6IAuOt8vWmF_3syn3gen9visit_mut8VisitMut20visit_expr_index_mutB6_, symObjAddr: 0x5A1C, symBinAddr: 0x3C184, symSize: 0x3C }
  - { offset: 0x47F4A, size: 0x8, addend: 0x0, symName: __RNvYNtNtCsdE2kXyKmOF1_11async_trait8receiver7HasSelfNtNtNtCs6IAuOt8vWmF_3syn3gen9visit_mut8VisitMut20visit_expr_infer_mutB6_, symObjAddr: 0x5A58, symBinAddr: 0x3C1C0, symSize: 0x3C }
  - { offset: 0x47F89, size: 0x8, addend: 0x0, symName: __RNvYNtNtCsdE2kXyKmOF1_11async_trait8receiver7HasSelfNtNtNtCs6IAuOt8vWmF_3syn3gen9visit_mut8VisitMut20visit_expr_macro_mutB6_, symObjAddr: 0x5A94, symBinAddr: 0x3C1FC, symSize: 0x3C }
  - { offset: 0x47FC8, size: 0x8, addend: 0x0, symName: __RNvYNtNtCsdE2kXyKmOF1_11async_trait8receiver7HasSelfNtNtNtCs6IAuOt8vWmF_3syn3gen9visit_mut8VisitMut20visit_expr_match_mutB6_, symObjAddr: 0x5AD0, symBinAddr: 0x3C238, symSize: 0x3C }
  - { offset: 0x4800A, size: 0x8, addend: 0x0, symName: __RNvYNtNtCsdE2kXyKmOF1_11async_trait8receiver7HasSelfNtNtNtCs6IAuOt8vWmF_3syn3gen9visit_mut8VisitMut20visit_expr_paren_mutB6_, symObjAddr: 0x5B0C, symBinAddr: 0x3C274, symSize: 0x3C }
  - { offset: 0x4804C, size: 0x8, addend: 0x0, symName: __RNvYNtNtCsdE2kXyKmOF1_11async_trait8receiver7HasSelfNtNtNtCs6IAuOt8vWmF_3syn3gen9visit_mut8VisitMut20visit_expr_range_mutB6_, symObjAddr: 0x5B48, symBinAddr: 0x3C2B0, symSize: 0x3C }
  - { offset: 0x4808E, size: 0x8, addend: 0x0, symName: __RNvYNtNtCsdE2kXyKmOF1_11async_trait8receiver7HasSelfNtNtNtCs6IAuOt8vWmF_3syn3gen9visit_mut8VisitMut20visit_expr_tuple_mutB6_, symObjAddr: 0x5B84, symBinAddr: 0x3C2EC, symSize: 0x3C }
  - { offset: 0x480D0, size: 0x8, addend: 0x0, symName: __RNvYNtNtCsdE2kXyKmOF1_11async_trait8receiver7HasSelfNtNtNtCs6IAuOt8vWmF_3syn3gen9visit_mut8VisitMut20visit_expr_unary_mutB6_, symObjAddr: 0x5BC0, symBinAddr: 0x3C328, symSize: 0x3C }
  - { offset: 0x48112, size: 0x8, addend: 0x0, symName: __RNvYNtNtCsdE2kXyKmOF1_11async_trait8receiver7HasSelfNtNtNtCs6IAuOt8vWmF_3syn3gen9visit_mut8VisitMut20visit_expr_while_mutB6_, symObjAddr: 0x5BFC, symBinAddr: 0x3C364, symSize: 0x3C }
  - { offset: 0x48154, size: 0x8, addend: 0x0, symName: __RNvYNtNtCsdE2kXyKmOF1_11async_trait8receiver7HasSelfNtNtNtCs6IAuOt8vWmF_3syn3gen9visit_mut8VisitMut20visit_expr_yield_mutB6_, symObjAddr: 0x5C38, symBinAddr: 0x3C3A0, symSize: 0x3C }
  - { offset: 0x48196, size: 0x8, addend: 0x0, symName: __RNvYNtNtCsdE2kXyKmOF1_11async_trait8receiver7HasSelfNtNtNtCs6IAuOt8vWmF_3syn3gen9visit_mut8VisitMut20visit_local_init_mutB6_, symObjAddr: 0x5C74, symBinAddr: 0x3C3DC, symSize: 0x3C }
  - { offset: 0x481D8, size: 0x8, addend: 0x0, symName: __RNvYNtNtCsdE2kXyKmOF1_11async_trait8receiver7HasSelfNtNtNtCs6IAuOt8vWmF_3syn3gen9visit_mut8VisitMut20visit_pat_struct_mutB6_, symObjAddr: 0x5CB0, symBinAddr: 0x3C418, symSize: 0x3C }
  - { offset: 0x4821A, size: 0x8, addend: 0x0, symName: __RNvYNtNtCsdE2kXyKmOF1_11async_trait8receiver7HasSelfNtNtNtCs6IAuOt8vWmF_3syn3gen9visit_mut8VisitMut20visit_stmt_macro_mutB6_, symObjAddr: 0x5CEC, symBinAddr: 0x3C454, symSize: 0x3C }
  - { offset: 0x4825C, size: 0x8, addend: 0x0, symName: __RNvYNtNtCsdE2kXyKmOF1_11async_trait8receiver7HasSelfNtNtNtCs6IAuOt8vWmF_3syn3gen9visit_mut8VisitMut20visit_type_array_mutB6_, symObjAddr: 0x5D28, symBinAddr: 0x3C490, symSize: 0x3C }
  - { offset: 0x4829E, size: 0x8, addend: 0x0, symName: __RNvYNtNtCsdE2kXyKmOF1_11async_trait8receiver7HasSelfNtNtNtCs6IAuOt8vWmF_3syn3gen9visit_mut8VisitMut20visit_type_group_mutB6_, symObjAddr: 0x5D64, symBinAddr: 0x3C4CC, symSize: 0x3C }
  - { offset: 0x482E0, size: 0x8, addend: 0x0, symName: __RNvYNtNtCsdE2kXyKmOF1_11async_trait8receiver7HasSelfNtNtNtCs6IAuOt8vWmF_3syn3gen9visit_mut8VisitMut20visit_type_infer_mutB6_, symObjAddr: 0x5DA0, symBinAddr: 0x3C508, symSize: 0x3C }
  - { offset: 0x48322, size: 0x8, addend: 0x0, symName: __RNvYNtNtCsdE2kXyKmOF1_11async_trait8receiver7HasSelfNtNtNtCs6IAuOt8vWmF_3syn3gen9visit_mut8VisitMut20visit_type_macro_mutB6_, symObjAddr: 0x5DDC, symBinAddr: 0x3C544, symSize: 0x3C }
  - { offset: 0x48364, size: 0x8, addend: 0x0, symName: __RNvYNtNtCsdE2kXyKmOF1_11async_trait8receiver7HasSelfNtNtNtCs6IAuOt8vWmF_3syn3gen9visit_mut8VisitMut20visit_type_never_mutB6_, symObjAddr: 0x5E18, symBinAddr: 0x3C580, symSize: 0x3C }
  - { offset: 0x483A6, size: 0x8, addend: 0x0, symName: __RNvYNtNtCsdE2kXyKmOF1_11async_trait8receiver7HasSelfNtNtNtCs6IAuOt8vWmF_3syn3gen9visit_mut8VisitMut20visit_type_param_mutB6_, symObjAddr: 0x5E54, symBinAddr: 0x3C5BC, symSize: 0x3C }
  - { offset: 0x483E8, size: 0x8, addend: 0x0, symName: __RNvYNtNtCsdE2kXyKmOF1_11async_trait8receiver7HasSelfNtNtNtCs6IAuOt8vWmF_3syn3gen9visit_mut8VisitMut20visit_type_paren_mutB6_, symObjAddr: 0x5E90, symBinAddr: 0x3C5F8, symSize: 0x3C }
  - { offset: 0x4842A, size: 0x8, addend: 0x0, symName: __RNvYNtNtCsdE2kXyKmOF1_11async_trait8receiver7HasSelfNtNtNtCs6IAuOt8vWmF_3syn3gen9visit_mut8VisitMut20visit_type_slice_mutB6_, symObjAddr: 0x5ECC, symBinAddr: 0x3C634, symSize: 0x3C }
  - { offset: 0x4846C, size: 0x8, addend: 0x0, symName: __RNvYNtNtCsdE2kXyKmOF1_11async_trait8receiver7HasSelfNtNtNtCs6IAuOt8vWmF_3syn3gen9visit_mut8VisitMut20visit_type_tuple_mutB6_, symObjAddr: 0x5F08, symBinAddr: 0x3C670, symSize: 0x3C }
  - { offset: 0x484AE, size: 0x8, addend: 0x0, symName: __RNvYNtNtCsdE2kXyKmOF1_11async_trait8receiver7HasSelfNtNtNtCs6IAuOt8vWmF_3syn3gen9visit_mut8VisitMut21visit_assoc_const_mutB6_, symObjAddr: 0x5F44, symBinAddr: 0x3C6AC, symSize: 0x3C }
  - { offset: 0x484ED, size: 0x8, addend: 0x0, symName: __RNvYNtNtCsdE2kXyKmOF1_11async_trait8receiver7HasSelfNtNtNtCs6IAuOt8vWmF_3syn3gen9visit_mut8VisitMut21visit_bare_fn_arg_mutB6_, symObjAddr: 0x5F80, symBinAddr: 0x3C6E8, symSize: 0x3C }
  - { offset: 0x4852C, size: 0x8, addend: 0x0, symName: __RNvYNtNtCsdE2kXyKmOF1_11async_trait8receiver7HasSelfNtNtNtCs6IAuOt8vWmF_3syn3gen9visit_mut8VisitMut21visit_const_param_mutB6_, symObjAddr: 0x5FBC, symBinAddr: 0x3C724, symSize: 0x3C }
  - { offset: 0x4856B, size: 0x8, addend: 0x0, symName: __RNvYNtNtCsdE2kXyKmOF1_11async_trait8receiver7HasSelfNtNtNtCs6IAuOt8vWmF_3syn3gen9visit_mut8VisitMut21visit_expr_assign_mutB6_, symObjAddr: 0x5FF8, symBinAddr: 0x3C760, symSize: 0x3C }
  - { offset: 0x485AA, size: 0x8, addend: 0x0, symName: __RNvYNtNtCsdE2kXyKmOF1_11async_trait8receiver7HasSelfNtNtNtCs6IAuOt8vWmF_3syn3gen9visit_mut8VisitMut21visit_expr_binary_mutB6_, symObjAddr: 0x6034, symBinAddr: 0x3C79C, symSize: 0x3C }
  - { offset: 0x485E9, size: 0x8, addend: 0x0, symName: __RNvYNtNtCsdE2kXyKmOF1_11async_trait8receiver7HasSelfNtNtNtCs6IAuOt8vWmF_3syn3gen9visit_mut8VisitMut21visit_expr_repeat_mutB6_, symObjAddr: 0x6070, symBinAddr: 0x3C7D8, symSize: 0x3C }
  - { offset: 0x4862B, size: 0x8, addend: 0x0, symName: __RNvYNtNtCsdE2kXyKmOF1_11async_trait8receiver7HasSelfNtNtNtCs6IAuOt8vWmF_3syn3gen9visit_mut8VisitMut21visit_expr_return_mutB6_, symObjAddr: 0x60AC, symBinAddr: 0x3C814, symSize: 0x3C }
  - { offset: 0x4866D, size: 0x8, addend: 0x0, symName: __RNvYNtNtCsdE2kXyKmOF1_11async_trait8receiver7HasSelfNtNtNtCs6IAuOt8vWmF_3syn3gen9visit_mut8VisitMut21visit_expr_struct_mutB6_, symObjAddr: 0x60E8, symBinAddr: 0x3C850, symSize: 0x3C }
  - { offset: 0x486AF, size: 0x8, addend: 0x0, symName: __RNvYNtNtCsdE2kXyKmOF1_11async_trait8receiver7HasSelfNtNtNtCs6IAuOt8vWmF_3syn3gen9visit_mut8VisitMut21visit_expr_unsafe_mutB6_, symObjAddr: 0x6124, symBinAddr: 0x3C88C, symSize: 0x3C }
  - { offset: 0x486F1, size: 0x8, addend: 0x0, symName: __RNvYNtNtCsdE2kXyKmOF1_11async_trait8receiver7HasSelfNtNtNtCs6IAuOt8vWmF_3syn3gen9visit_mut8VisitMut21visit_field_value_mutB6_, symObjAddr: 0x6160, symBinAddr: 0x3C8C8, symSize: 0x3C }
  - { offset: 0x48733, size: 0x8, addend: 0x0, symName: __RNvYNtNtCsdE2kXyKmOF1_11async_trait8receiver7HasSelfNtNtNtCs6IAuOt8vWmF_3syn3gen9visit_mut8VisitMut21visit_return_type_mutB6_, symObjAddr: 0x619C, symBinAddr: 0x3C904, symSize: 0x3C }
  - { offset: 0x48775, size: 0x8, addend: 0x0, symName: __RNvYNtNtCsdE2kXyKmOF1_11async_trait8receiver7HasSelfNtNtNtCs6IAuOt8vWmF_3syn3gen9visit_mut8VisitMut21visit_trait_bound_mutB6_, symObjAddr: 0x61D8, symBinAddr: 0x3C940, symSize: 0x3C }
  - { offset: 0x487B7, size: 0x8, addend: 0x0, symName: __RNvYNtNtCsdE2kXyKmOF1_11async_trait8receiver7HasSelfNtNtNtCs6IAuOt8vWmF_3syn3gen9visit_mut8VisitMut22visit_expr_closure_mutB6_, symObjAddr: 0x6214, symBinAddr: 0x3C97C, symSize: 0x3C }
  - { offset: 0x487F6, size: 0x8, addend: 0x0, symName: __RNvYNtNtCsdE2kXyKmOF1_11async_trait8receiver7HasSelfNtNtNtCs6IAuOt8vWmF_3syn3gen9visit_mut8VisitMut22visit_lit_byte_str_mutB6_, symObjAddr: 0x6250, symBinAddr: 0x3C9B8, symSize: 0x3C }
  - { offset: 0x48838, size: 0x8, addend: 0x0, symName: __RNvYNtNtCsdE2kXyKmOF1_11async_trait8receiver7HasSelfNtNtNtCs6IAuOt8vWmF_3syn3gen9visit_mut8VisitMut22visit_path_segment_mutB6_, symObjAddr: 0x628C, symBinAddr: 0x3C9F4, symSize: 0x3C }
  - { offset: 0x4887A, size: 0x8, addend: 0x0, symName: __RNvYNtNtCsdE2kXyKmOF1_11async_trait8receiver7HasSelfNtNtNtCs6IAuOt8vWmF_3syn3gen9visit_mut8VisitMut22visit_range_limits_mutB6_, symObjAddr: 0x62C8, symBinAddr: 0x3CA30, symSize: 0x3C }
  - { offset: 0x488BC, size: 0x8, addend: 0x0, symName: __RNvYNtNtCsdE2kXyKmOF1_11async_trait8receiver7HasSelfNtNtNtCs6IAuOt8vWmF_3syn3gen9visit_mut8VisitMut22visit_token_stream_mutB6_, symObjAddr: 0x6304, symBinAddr: 0x3CA6C, symSize: 0x24 }
  - { offset: 0x488FE, size: 0x8, addend: 0x0, symName: __RNvYNtNtCsdE2kXyKmOF1_11async_trait8receiver7HasSelfNtNtNtCs6IAuOt8vWmF_3syn3gen9visit_mut8VisitMut22visit_type_bare_fn_mutB6_, symObjAddr: 0x6328, symBinAddr: 0x3CA90, symSize: 0x3C }
  - { offset: 0x48940, size: 0x8, addend: 0x0, symName: __RNvYNtNtCsdE2kXyKmOF1_11async_trait8receiver7HasSelfNtNtNtCs6IAuOt8vWmF_3syn3gen9visit_mut8VisitMut22visit_where_clause_mutB6_, symObjAddr: 0x6364, symBinAddr: 0x3CACC, symSize: 0x3C }
  - { offset: 0x48982, size: 0x8, addend: 0x0, symName: __RNvYNtNtCsdE2kXyKmOF1_11async_trait8receiver7HasSelfNtNtNtCs6IAuOt8vWmF_3syn3gen9visit_mut8VisitMut23visit_bare_variadic_mutB6_, symObjAddr: 0x63A0, symBinAddr: 0x3CB08, symSize: 0x3C }
  - { offset: 0x489C1, size: 0x8, addend: 0x0, symName: __RNvYNtNtCsdE2kXyKmOF1_11async_trait8receiver7HasSelfNtNtNtCs6IAuOt8vWmF_3syn3gen9visit_mut8VisitMut23visit_expr_continue_mutB6_, symObjAddr: 0x63DC, symBinAddr: 0x3CB44, symSize: 0x3C }
  - { offset: 0x48A00, size: 0x8, addend: 0x0, symName: __RNvYNtNtCsdE2kXyKmOF1_11async_trait8receiver7HasSelfNtNtNtCs6IAuOt8vWmF_3syn3gen9visit_mut8VisitMut23visit_expr_for_loop_mutB6_, symObjAddr: 0x6418, symBinAddr: 0x3CB80, symSize: 0x3C }
  - { offset: 0x48A3F, size: 0x8, addend: 0x0, symName: __RNvYNtNtCsdE2kXyKmOF1_11async_trait8receiver7HasSelfNtNtNtCs6IAuOt8vWmF_3syn3gen9visit_mut8VisitMut23visit_expr_raw_addr_mutB6_, symObjAddr: 0x6454, symBinAddr: 0x3CBBC, symSize: 0x3C }
  - { offset: 0x48A81, size: 0x8, addend: 0x0, symName: __RNvYNtNtCsdE2kXyKmOF1_11async_trait8receiver7HasSelfNtNtNtCs6IAuOt8vWmF_3syn3gen9visit_mut8VisitMut23visit_generic_param_mutB6_, symObjAddr: 0x6490, symBinAddr: 0x3CBF8, symSize: 0x3C }
  - { offset: 0x48AC3, size: 0x8, addend: 0x0, symName: __RNvYNtNtCsdE2kXyKmOF1_11async_trait8receiver7HasSelfNtNtNtCs6IAuOt8vWmF_3syn3gen9visit_mut8VisitMut23visit_pat_reference_mutB6_, symObjAddr: 0x64CC, symBinAddr: 0x3CC34, symSize: 0x3C }
  - { offset: 0x48B05, size: 0x8, addend: 0x0, symName: __RNvYNtNtCsdE2kXyKmOF1_11async_trait8receiver7HasSelfNtNtNtCs6IAuOt8vWmF_3syn3gen9visit_mut8VisitMut24visit_captured_param_mutB6_, symObjAddr: 0x6508, symBinAddr: 0x3CC70, symSize: 0x3C }
  - { offset: 0x48B44, size: 0x8, addend: 0x0, symName: __RNvYNtNtCsdE2kXyKmOF1_11async_trait8receiver7HasSelfNtNtNtCs6IAuOt8vWmF_3syn3gen9visit_mut8VisitMut24visit_expr_reference_mutB6_, symObjAddr: 0x6544, symBinAddr: 0x3CCAC, symSize: 0x3C }
  - { offset: 0x48B86, size: 0x8, addend: 0x0, symName: __RNvYNtNtCsdE2kXyKmOF1_11async_trait8receiver7HasSelfNtNtNtCs6IAuOt8vWmF_3syn3gen9visit_mut8VisitMut24visit_expr_try_block_mutB6_, symObjAddr: 0x6580, symBinAddr: 0x3CCE8, symSize: 0x3C }
  - { offset: 0x48BC8, size: 0x8, addend: 0x0, symName: __RNvYNtNtCsdE2kXyKmOF1_11async_trait8receiver7HasSelfNtNtNtCs6IAuOt8vWmF_3syn3gen9visit_mut8VisitMut24visit_lifetime_param_mutB6_, symObjAddr: 0x65BC, symBinAddr: 0x3CD24, symSize: 0x3C }
  - { offset: 0x48C0A, size: 0x8, addend: 0x0, symName: __RNvYNtNtCsdE2kXyKmOF1_11async_trait8receiver7HasSelfNtNtNtCs6IAuOt8vWmF_3syn3gen9visit_mut8VisitMut24visit_path_arguments_mutB6_, symObjAddr: 0x65F8, symBinAddr: 0x3CD60, symSize: 0x3C }
  - { offset: 0x48C4C, size: 0x8, addend: 0x0, symName: __RNvYNtNtCsdE2kXyKmOF1_11async_trait8receiver7HasSelfNtNtNtCs6IAuOt8vWmF_3syn3gen9visit_mut8VisitMut24visit_predicate_type_mutB6_, symObjAddr: 0x6634, symBinAddr: 0x3CD9C, symSize: 0x3C }
  - { offset: 0x48C8E, size: 0x8, addend: 0x0, symName: __RNvYNtNtCsdE2kXyKmOF1_11async_trait8receiver7HasSelfNtNtNtCs6IAuOt8vWmF_3syn3gen9visit_mut8VisitMut24visit_type_reference_mutB6_, symObjAddr: 0x6670, symBinAddr: 0x3CDD8, symSize: 0x3C }
  - { offset: 0x48CD0, size: 0x8, addend: 0x0, symName: __RNvYNtNtCsdE2kXyKmOF1_11async_trait8receiver7HasSelfNtNtNtCs6IAuOt8vWmF_3syn3gen9visit_mut8VisitMut25visit_bound_lifetimes_mutB6_, symObjAddr: 0x66AC, symBinAddr: 0x3CE14, symSize: 0x3C }
  - { offset: 0x48D0F, size: 0x8, addend: 0x0, symName: __RNvYNtNtCsdE2kXyKmOF1_11async_trait8receiver7HasSelfNtNtNtCs6IAuOt8vWmF_3syn3gen9visit_mut8VisitMut25visit_macro_delimiter_mutB6_, symObjAddr: 0x66E8, symBinAddr: 0x3CE50, symSize: 0x3C }
  - { offset: 0x48D51, size: 0x8, addend: 0x0, symName: __RNvYNtNtCsdE2kXyKmOF1_11async_trait8receiver7HasSelfNtNtNtCs6IAuOt8vWmF_3syn3gen9visit_mut8VisitMut25visit_meta_name_value_mutB6_, symObjAddr: 0x6724, symBinAddr: 0x3CE8C, symSize: 0x3C }
  - { offset: 0x48D93, size: 0x8, addend: 0x0, symName: __RNvYNtNtCsdE2kXyKmOF1_11async_trait8receiver7HasSelfNtNtNtCs6IAuOt8vWmF_3syn3gen9visit_mut8VisitMut25visit_precise_capture_mutB6_, symObjAddr: 0x6760, symBinAddr: 0x3CEC8, symSize: 0x3C }
  - { offset: 0x48DD5, size: 0x8, addend: 0x0, symName: __RNvYNtNtCsdE2kXyKmOF1_11async_trait8receiver7HasSelfNtNtNtCs6IAuOt8vWmF_3syn3gen9visit_mut8VisitMut25visit_type_impl_trait_mutB6_, symObjAddr: 0x679C, symBinAddr: 0x3CF04, symSize: 0x3C }
  - { offset: 0x48E17, size: 0x8, addend: 0x0, symName: __RNvYNtNtCsdE2kXyKmOF1_11async_trait8receiver7HasSelfNtNtNtCs6IAuOt8vWmF_3syn3gen9visit_mut8VisitMut25visit_where_predicate_mutB6_, symObjAddr: 0x67D8, symBinAddr: 0x3CF40, symSize: 0x3C }
  - { offset: 0x48E59, size: 0x8, addend: 0x0, symName: __RNvYNtNtCsdE2kXyKmOF1_11async_trait8receiver7HasSelfNtNtNtCs6IAuOt8vWmF_3syn3gen9visit_mut8VisitMut26visit_expr_method_call_mutB6_, symObjAddr: 0x6814, symBinAddr: 0x3CF7C, symSize: 0x3C }
  - { offset: 0x48E9B, size: 0x8, addend: 0x0, symName: __RNvYNtNtCsdE2kXyKmOF1_11async_trait8receiver7HasSelfNtNtNtCs6IAuOt8vWmF_3syn3gen9visit_mut8VisitMut26visit_generic_argument_mutB6_, symObjAddr: 0x6850, symBinAddr: 0x3CFB8, symSize: 0x3C }
  - { offset: 0x48EDD, size: 0x8, addend: 0x0, symName: __RNvYNtNtCsdE2kXyKmOF1_11async_trait8receiver7HasSelfNtNtNtCs6IAuOt8vWmF_3syn3gen9visit_mut8VisitMut26visit_pat_tuple_struct_mutB6_, symObjAddr: 0x688C, symBinAddr: 0x3CFF4, symSize: 0x3C }
  - { offset: 0x48F1F, size: 0x8, addend: 0x0, symName: __RNvYNtNtCsdE2kXyKmOF1_11async_trait8receiver7HasSelfNtNtNtCs6IAuOt8vWmF_3syn3gen9visit_mut8VisitMut26visit_type_param_bound_mutB6_, symObjAddr: 0x68C8, symBinAddr: 0x3D030, symSize: 0x3C }
  - { offset: 0x48F61, size: 0x8, addend: 0x0, symName: __RNvYNtNtCsdE2kXyKmOF1_11async_trait8receiver7HasSelfNtNtNtCs6IAuOt8vWmF_3syn3gen9visit_mut8VisitMut27visit_type_trait_object_mutB6_, symObjAddr: 0x6904, symBinAddr: 0x3D06C, symSize: 0x3C }
  - { offset: 0x48FA3, size: 0x8, addend: 0x0, symName: __RNvYNtNtCsdE2kXyKmOF1_11async_trait8receiver7HasSelfNtNtNtCs6IAuOt8vWmF_3syn3gen9visit_mut8VisitMut28visit_pointer_mutability_mutB6_, symObjAddr: 0x6940, symBinAddr: 0x3D0A8, symSize: 0x3C }
  - { offset: 0x48FE5, size: 0x8, addend: 0x0, symName: __RNvYNtNtCsdE2kXyKmOF1_11async_trait8receiver7HasSelfNtNtNtCs6IAuOt8vWmF_3syn3gen9visit_mut8VisitMut28visit_predicate_lifetime_mutB6_, symObjAddr: 0x697C, symBinAddr: 0x3D0E4, symSize: 0x3C }
  - { offset: 0x49027, size: 0x8, addend: 0x0, symName: __RNvYNtNtCsdE2kXyKmOF1_11async_trait8receiver7HasSelfNtNtNtCs6IAuOt8vWmF_3syn3gen9visit_mut8VisitMut30visit_trait_bound_modifier_mutB6_, symObjAddr: 0x69B8, symBinAddr: 0x3D120, symSize: 0x3C }
  - { offset: 0x49069, size: 0x8, addend: 0x0, symName: __RNvYNtNtCsdE2kXyKmOF1_11async_trait8receiver7HasSelfNtNtNtCs6IAuOt8vWmF_3syn3gen9visit_mut8VisitMut41visit_parenthesized_generic_arguments_mutB6_, symObjAddr: 0x69F4, symBinAddr: 0x3D15C, symSize: 0x3C }
  - { offset: 0x490AB, size: 0x8, addend: 0x0, symName: __RNvYNtNtCsdE2kXyKmOF1_11async_trait8receiver7HasSelfNtNtNtCs6IAuOt8vWmF_3syn3gen9visit_mut8VisitMut43visit_angle_bracketed_generic_arguments_mutB6_, symObjAddr: 0x6A30, symBinAddr: 0x3D198, symSize: 0x3C }
  - { offset: 0x490EA, size: 0x8, addend: 0x0, symName: __RNvYNtNtCsdE2kXyKmOF1_11async_trait8receiver9HasMutPatNtNtNtCs6IAuOt8vWmF_3syn3gen9visit_mut8VisitMut13visit_abi_mutB6_, symObjAddr: 0x6A6C, symBinAddr: 0x3D1D4, symSize: 0x3C }
  - { offset: 0x49129, size: 0x8, addend: 0x0, symName: __RNvYNtNtCsdE2kXyKmOF1_11async_trait8receiver9HasMutPatNtNtNtCs6IAuOt8vWmF_3syn3gen9visit_mut8VisitMut13visit_arm_mutB6_, symObjAddr: 0x6AA8, symBinAddr: 0x3D210, symSize: 0x3C }
  - { offset: 0x49168, size: 0x8, addend: 0x0, symName: __RNvYNtNtCsdE2kXyKmOF1_11async_trait8receiver9HasMutPatNtNtNtCs6IAuOt8vWmF_3syn3gen9visit_mut8VisitMut13visit_lit_mutB6_, symObjAddr: 0x6AE4, symBinAddr: 0x3D24C, symSize: 0x3C }
  - { offset: 0x491AA, size: 0x8, addend: 0x0, symName: __RNvYNtNtCsdE2kXyKmOF1_11async_trait8receiver9HasMutPatNtNtNtCs6IAuOt8vWmF_3syn3gen9visit_mut8VisitMut13visit_pat_mutB6_, symObjAddr: 0x6B20, symBinAddr: 0x3D288, symSize: 0x3C }
  - { offset: 0x491EC, size: 0x8, addend: 0x0, symName: __RNvYNtNtCsdE2kXyKmOF1_11async_trait8receiver9HasMutPatNtNtNtCs6IAuOt8vWmF_3syn3gen9visit_mut8VisitMut14visit_expr_mutB6_, symObjAddr: 0x6B5C, symBinAddr: 0x3D2C4, symSize: 0x3C }
  - { offset: 0x4922B, size: 0x8, addend: 0x0, symName: __RNvYNtNtCsdE2kXyKmOF1_11async_trait8receiver9HasMutPatNtNtNtCs6IAuOt8vWmF_3syn3gen9visit_mut8VisitMut14visit_item_mutB6_, symObjAddr: 0x6B98, symBinAddr: 0x3D300, symSize: 0x3C }
  - { offset: 0x4926D, size: 0x8, addend: 0x0, symName: __RNvYNtNtCsdE2kXyKmOF1_11async_trait8receiver9HasMutPatNtNtNtCs6IAuOt8vWmF_3syn3gen9visit_mut8VisitMut14visit_meta_mutB6_, symObjAddr: 0x6BD4, symBinAddr: 0x3D33C, symSize: 0x3C }
  - { offset: 0x492AF, size: 0x8, addend: 0x0, symName: __RNvYNtNtCsdE2kXyKmOF1_11async_trait8receiver9HasMutPatNtNtNtCs6IAuOt8vWmF_3syn3gen9visit_mut8VisitMut14visit_path_mutB6_, symObjAddr: 0x6C10, symBinAddr: 0x3D378, symSize: 0x3C }
  - { offset: 0x492F1, size: 0x8, addend: 0x0, symName: __RNvYNtNtCsdE2kXyKmOF1_11async_trait8receiver9HasMutPatNtNtNtCs6IAuOt8vWmF_3syn3gen9visit_mut8VisitMut14visit_span_mutB6_, symObjAddr: 0x6C4C, symBinAddr: 0x3D3B4, symSize: 0x24 }
  - { offset: 0x49333, size: 0x8, addend: 0x0, symName: __RNvYNtNtCsdE2kXyKmOF1_11async_trait8receiver9HasMutPatNtNtNtCs6IAuOt8vWmF_3syn3gen9visit_mut8VisitMut14visit_stmt_mutB6_, symObjAddr: 0x6C70, symBinAddr: 0x3D3D8, symSize: 0x3C }
  - { offset: 0x49375, size: 0x8, addend: 0x0, symName: __RNvYNtNtCsdE2kXyKmOF1_11async_trait8receiver9HasMutPatNtNtNtCs6IAuOt8vWmF_3syn3gen9visit_mut8VisitMut14visit_type_mutB6_, symObjAddr: 0x6CAC, symBinAddr: 0x3D414, symSize: 0x3C }
  - { offset: 0x493B7, size: 0x8, addend: 0x0, symName: __RNvYNtNtCsdE2kXyKmOF1_11async_trait8receiver9HasMutPatNtNtNtCs6IAuOt8vWmF_3syn3gen9visit_mut8VisitMut15visit_block_mutB6_, symObjAddr: 0x6CE8, symBinAddr: 0x3D450, symSize: 0x3C }
  - { offset: 0x493F6, size: 0x8, addend: 0x0, symName: __RNvYNtNtCsdE2kXyKmOF1_11async_trait8receiver9HasMutPatNtNtNtCs6IAuOt8vWmF_3syn3gen9visit_mut8VisitMut15visit_field_mutB6_, symObjAddr: 0x6D24, symBinAddr: 0x3D48C, symSize: 0x3C }
  - { offset: 0x49438, size: 0x8, addend: 0x0, symName: __RNvYNtNtCsdE2kXyKmOF1_11async_trait8receiver9HasMutPatNtNtNtCs6IAuOt8vWmF_3syn3gen9visit_mut8VisitMut15visit_ident_mutB6_, symObjAddr: 0x6D60, symBinAddr: 0x3D4C8, symSize: 0x3C }
  - { offset: 0x4947A, size: 0x8, addend: 0x0, symName: __RNvYNtNtCsdE2kXyKmOF1_11async_trait8receiver9HasMutPatNtNtNtCs6IAuOt8vWmF_3syn3gen9visit_mut8VisitMut15visit_index_mutB6_, symObjAddr: 0x6D9C, symBinAddr: 0x3D504, symSize: 0x3C }
  - { offset: 0x494BC, size: 0x8, addend: 0x0, symName: __RNvYNtNtCsdE2kXyKmOF1_11async_trait8receiver9HasMutPatNtNtNtCs6IAuOt8vWmF_3syn3gen9visit_mut8VisitMut15visit_label_mutB6_, symObjAddr: 0x6DD8, symBinAddr: 0x3D540, symSize: 0x3C }
  - { offset: 0x494FE, size: 0x8, addend: 0x0, symName: __RNvYNtNtCsdE2kXyKmOF1_11async_trait8receiver9HasMutPatNtNtNtCs6IAuOt8vWmF_3syn3gen9visit_mut8VisitMut15visit_local_mutB6_, symObjAddr: 0x6E14, symBinAddr: 0x3D57C, symSize: 0x3C }
  - { offset: 0x49540, size: 0x8, addend: 0x0, symName: __RNvYNtNtCsdE2kXyKmOF1_11async_trait8receiver9HasMutPatNtNtNtCs6IAuOt8vWmF_3syn3gen9visit_mut8VisitMut15visit_macro_mutB6_, symObjAddr: 0x6E50, symBinAddr: 0x3D5B8, symSize: 0x3C }
  - { offset: 0x49582, size: 0x8, addend: 0x0, symName: __RNvYNtNtCsdE2kXyKmOF1_11async_trait8receiver9HasMutPatNtNtNtCs6IAuOt8vWmF_3syn3gen9visit_mut8VisitMut15visit_qself_mutB6_, symObjAddr: 0x6E8C, symBinAddr: 0x3D5F4, symSize: 0x3C }
  - { offset: 0x495C4, size: 0x8, addend: 0x0, symName: __RNvYNtNtCsdE2kXyKmOF1_11async_trait8receiver9HasMutPatNtNtNtCs6IAuOt8vWmF_3syn3gen9visit_mut8VisitMut15visit_un_op_mutB6_, symObjAddr: 0x6EC8, symBinAddr: 0x3D630, symSize: 0x3C }
  - { offset: 0x49606, size: 0x8, addend: 0x0, symName: __RNvYNtNtCsdE2kXyKmOF1_11async_trait8receiver9HasMutPatNtNtNtCs6IAuOt8vWmF_3syn3gen9visit_mut8VisitMut16visit_bin_op_mutB6_, symObjAddr: 0x6F04, symBinAddr: 0x3D66C, symSize: 0x3C }
  - { offset: 0x49645, size: 0x8, addend: 0x0, symName: __RNvYNtNtCsdE2kXyKmOF1_11async_trait8receiver9HasMutPatNtNtNtCs6IAuOt8vWmF_3syn3gen9visit_mut8VisitMut16visit_fields_mutB6_, symObjAddr: 0x6F40, symBinAddr: 0x3D6A8, symSize: 0x3C }
  - { offset: 0x49687, size: 0x8, addend: 0x0, symName: __RNvYNtNtCsdE2kXyKmOF1_11async_trait8receiver9HasMutPatNtNtNtCs6IAuOt8vWmF_3syn3gen9visit_mut8VisitMut16visit_fn_arg_mutB6_, symObjAddr: 0x6F7C, symBinAddr: 0x3D6E4, symSize: 0x3C }
  - { offset: 0x496C9, size: 0x8, addend: 0x0, symName: __RNvYNtNtCsdE2kXyKmOF1_11async_trait8receiver9HasMutPatNtNtNtCs6IAuOt8vWmF_3syn3gen9visit_mut8VisitMut16visit_member_mutB6_, symObjAddr: 0x6FB8, symBinAddr: 0x3D720, symSize: 0x3C }
  - { offset: 0x4970B, size: 0x8, addend: 0x0, symName: __RNvYNtNtCsdE2kXyKmOF1_11async_trait8receiver9HasMutPatNtNtNtCs6IAuOt8vWmF_3syn3gen9visit_mut8VisitMut16visit_pat_or_mutB6_, symObjAddr: 0x6FF4, symBinAddr: 0x3D75C, symSize: 0x3C }
  - { offset: 0x4974D, size: 0x8, addend: 0x0, symName: __RNvYNtNtCsdE2kXyKmOF1_11async_trait8receiver9HasMutPatNtNtNtCs6IAuOt8vWmF_3syn3gen9visit_mut8VisitMut17visit_expr_if_mutB6_, symObjAddr: 0x7030, symBinAddr: 0x3D798, symSize: 0x3C }
  - { offset: 0x4978C, size: 0x8, addend: 0x0, symName: __RNvYNtNtCsdE2kXyKmOF1_11async_trait8receiver9HasMutPatNtNtNtCs6IAuOt8vWmF_3syn3gen9visit_mut8VisitMut17visit_item_fn_mutB6_, symObjAddr: 0x706C, symBinAddr: 0x3D7D4, symSize: 0x3C }
  - { offset: 0x497CE, size: 0x8, addend: 0x0, symName: __RNvYNtNtCsdE2kXyKmOF1_11async_trait8receiver9HasMutPatNtNtNtCs6IAuOt8vWmF_3syn3gen9visit_mut8VisitMut17visit_lit_int_mutB6_, symObjAddr: 0x70A8, symBinAddr: 0x3D810, symSize: 0x3C }
  - { offset: 0x49810, size: 0x8, addend: 0x0, symName: __RNvYNtNtCsdE2kXyKmOF1_11async_trait8receiver9HasMutPatNtNtNtCs6IAuOt8vWmF_3syn3gen9visit_mut8VisitMut17visit_lit_str_mutB6_, symObjAddr: 0x70E4, symBinAddr: 0x3D84C, symSize: 0x3C }
  - { offset: 0x49852, size: 0x8, addend: 0x0, symName: __RNvYNtNtCsdE2kXyKmOF1_11async_trait8receiver9HasMutPatNtNtNtCs6IAuOt8vWmF_3syn3gen9visit_mut8VisitMut17visit_variant_mutB6_, symObjAddr: 0x7120, symBinAddr: 0x3D888, symSize: 0x3C }
  - { offset: 0x49894, size: 0x8, addend: 0x0, symName: __RNvYNtNtCsdE2kXyKmOF1_11async_trait8receiver9HasMutPatNtNtNtCs6IAuOt8vWmF_3syn3gen9visit_mut8VisitMut18visit_expr_let_mutB6_, symObjAddr: 0x715C, symBinAddr: 0x3D8C4, symSize: 0x3C }
  - { offset: 0x498D3, size: 0x8, addend: 0x0, symName: __RNvYNtNtCsdE2kXyKmOF1_11async_trait8receiver9HasMutPatNtNtNtCs6IAuOt8vWmF_3syn3gen9visit_mut8VisitMut18visit_expr_lit_mutB6_, symObjAddr: 0x7198, symBinAddr: 0x3D900, symSize: 0x3C }
  - { offset: 0x49912, size: 0x8, addend: 0x0, symName: __RNvYNtNtCsdE2kXyKmOF1_11async_trait8receiver9HasMutPatNtNtNtCs6IAuOt8vWmF_3syn3gen9visit_mut8VisitMut18visit_expr_try_mutB6_, symObjAddr: 0x71D4, symBinAddr: 0x3D93C, symSize: 0x3C }
  - { offset: 0x49954, size: 0x8, addend: 0x0, symName: __RNvYNtNtCsdE2kXyKmOF1_11async_trait8receiver9HasMutPatNtNtNtCs6IAuOt8vWmF_3syn3gen9visit_mut8VisitMut18visit_generics_mutB6_, symObjAddr: 0x7210, symBinAddr: 0x3D978, symSize: 0x3C }
  - { offset: 0x49996, size: 0x8, addend: 0x0, symName: __RNvYNtNtCsdE2kXyKmOF1_11async_trait8receiver9HasMutPatNtNtNtCs6IAuOt8vWmF_3syn3gen9visit_mut8VisitMut18visit_item_mod_mutB6_, symObjAddr: 0x724C, symBinAddr: 0x3D9B4, symSize: 0x3C }
  - { offset: 0x499D8, size: 0x8, addend: 0x0, symName: __RNvYNtNtCsdE2kXyKmOF1_11async_trait8receiver9HasMutPatNtNtNtCs6IAuOt8vWmF_3syn3gen9visit_mut8VisitMut18visit_item_use_mutB6_, symObjAddr: 0x7288, symBinAddr: 0x3D9F0, symSize: 0x3C }
  - { offset: 0x49A1A, size: 0x8, addend: 0x0, symName: __RNvYNtNtCsdE2kXyKmOF1_11async_trait8receiver9HasMutPatNtNtNtCs6IAuOt8vWmF_3syn3gen9visit_mut8VisitMut18visit_lifetime_mutB6_, symObjAddr: 0x72C4, symBinAddr: 0x3DA2C, symSize: 0x3C }
  - { offset: 0x49A5C, size: 0x8, addend: 0x0, symName: __RNvYNtNtCsdE2kXyKmOF1_11async_trait8receiver9HasMutPatNtNtNtCs6IAuOt8vWmF_3syn3gen9visit_mut8VisitMut18visit_lit_bool_mutB6_, symObjAddr: 0x7300, symBinAddr: 0x3DA68, symSize: 0x3C }
  - { offset: 0x49A9E, size: 0x8, addend: 0x0, symName: __RNvYNtNtCsdE2kXyKmOF1_11async_trait8receiver9HasMutPatNtNtNtCs6IAuOt8vWmF_3syn3gen9visit_mut8VisitMut18visit_lit_byte_mutB6_, symObjAddr: 0x733C, symBinAddr: 0x3DAA4, symSize: 0x3C }
  - { offset: 0x49AE0, size: 0x8, addend: 0x0, symName: __RNvYNtNtCsdE2kXyKmOF1_11async_trait8receiver9HasMutPatNtNtNtCs6IAuOt8vWmF_3syn3gen9visit_mut8VisitMut18visit_lit_char_mutB6_, symObjAddr: 0x7378, symBinAddr: 0x3DAE0, symSize: 0x3C }
  - { offset: 0x49B22, size: 0x8, addend: 0x0, symName: __RNvYNtNtCsdE2kXyKmOF1_11async_trait8receiver9HasMutPatNtNtNtCs6IAuOt8vWmF_3syn3gen9visit_mut8VisitMut18visit_lit_cstr_mutB6_, symObjAddr: 0x73B4, symBinAddr: 0x3DB1C, symSize: 0x3C }
  - { offset: 0x49B64, size: 0x8, addend: 0x0, symName: __RNvYNtNtCsdE2kXyKmOF1_11async_trait8receiver9HasMutPatNtNtNtCs6IAuOt8vWmF_3syn3gen9visit_mut8VisitMut18visit_pat_rest_mutB6_, symObjAddr: 0x73F0, symBinAddr: 0x3DB58, symSize: 0x3C }
  - { offset: 0x49BA6, size: 0x8, addend: 0x0, symName: __RNvYNtNtCsdE2kXyKmOF1_11async_trait8receiver9HasMutPatNtNtNtCs6IAuOt8vWmF_3syn3gen9visit_mut8VisitMut18visit_pat_type_mutB6_, symObjAddr: 0x742C, symBinAddr: 0x3DB94, symSize: 0x3C }
  - { offset: 0x49BE8, size: 0x8, addend: 0x0, symName: __RNvYNtNtCsdE2kXyKmOF1_11async_trait8receiver9HasMutPatNtNtNtCs6IAuOt8vWmF_3syn3gen9visit_mut8VisitMut18visit_pat_wild_mutB6_, symObjAddr: 0x7468, symBinAddr: 0x3DBD0, symSize: 0x3C }
  - { offset: 0x49C2A, size: 0x8, addend: 0x0, symName: __RNvYNtNtCsdE2kXyKmOF1_11async_trait8receiver9HasMutPatNtNtNtCs6IAuOt8vWmF_3syn3gen9visit_mut8VisitMut18visit_receiver_mutB6_, symObjAddr: 0x74A4, symBinAddr: 0x3DC0C, symSize: 0x3C }
  - { offset: 0x49C6C, size: 0x8, addend: 0x0, symName: __RNvYNtNtCsdE2kXyKmOF1_11async_trait8receiver9HasMutPatNtNtNtCs6IAuOt8vWmF_3syn3gen9visit_mut8VisitMut18visit_type_ptr_mutB6_, symObjAddr: 0x74E0, symBinAddr: 0x3DC48, symSize: 0x3C }
  - { offset: 0x49CAE, size: 0x8, addend: 0x0, symName: __RNvYNtNtCsdE2kXyKmOF1_11async_trait8receiver9HasMutPatNtNtNtCs6IAuOt8vWmF_3syn3gen9visit_mut8VisitMut18visit_use_glob_mutB6_, symObjAddr: 0x751C, symBinAddr: 0x3DC84, symSize: 0x3C }
  - { offset: 0x49CF0, size: 0x8, addend: 0x0, symName: __RNvYNtNtCsdE2kXyKmOF1_11async_trait8receiver9HasMutPatNtNtNtCs6IAuOt8vWmF_3syn3gen9visit_mut8VisitMut18visit_use_name_mutB6_, symObjAddr: 0x7558, symBinAddr: 0x3DCC0, symSize: 0x3C }
  - { offset: 0x49D32, size: 0x8, addend: 0x0, symName: __RNvYNtNtCsdE2kXyKmOF1_11async_trait8receiver9HasMutPatNtNtNtCs6IAuOt8vWmF_3syn3gen9visit_mut8VisitMut18visit_use_path_mutB6_, symObjAddr: 0x7594, symBinAddr: 0x3DCFC, symSize: 0x3C }
  - { offset: 0x49D74, size: 0x8, addend: 0x0, symName: __RNvYNtNtCsdE2kXyKmOF1_11async_trait8receiver9HasMutPatNtNtNtCs6IAuOt8vWmF_3syn3gen9visit_mut8VisitMut18visit_use_tree_mutB6_, symObjAddr: 0x75D0, symBinAddr: 0x3DD38, symSize: 0x3C }
  - { offset: 0x49DB6, size: 0x8, addend: 0x0, symName: __RNvYNtNtCsdE2kXyKmOF1_11async_trait8receiver9HasMutPatNtNtNtCs6IAuOt8vWmF_3syn3gen9visit_mut8VisitMut18visit_variadic_mutB6_, symObjAddr: 0x760C, symBinAddr: 0x3DD74, symSize: 0x3C }
  - { offset: 0x49DF8, size: 0x8, addend: 0x0, symName: __RNvYNtNtCsdE2kXyKmOF1_11async_trait8receiver9HasMutPatNtNtNtCs6IAuOt8vWmF_3syn3gen9visit_mut8VisitMut19visit_attribute_mutB6_, symObjAddr: 0x7648, symBinAddr: 0x3DDB0, symSize: 0x3C }
  - { offset: 0x49E37, size: 0x8, addend: 0x0, symName: __RNvYNtNtCsdE2kXyKmOF1_11async_trait8receiver9HasMutPatNtNtNtCs6IAuOt8vWmF_3syn3gen9visit_mut8VisitMut19visit_expr_call_mutB6_, symObjAddr: 0x7684, symBinAddr: 0x3DDEC, symSize: 0x3C }
  - { offset: 0x49E76, size: 0x8, addend: 0x0, symName: __RNvYNtNtCsdE2kXyKmOF1_11async_trait8receiver9HasMutPatNtNtNtCs6IAuOt8vWmF_3syn3gen9visit_mut8VisitMut19visit_expr_cast_mutB6_, symObjAddr: 0x76C0, symBinAddr: 0x3DE28, symSize: 0x3C }
  - { offset: 0x49EB5, size: 0x8, addend: 0x0, symName: __RNvYNtNtCsdE2kXyKmOF1_11async_trait8receiver9HasMutPatNtNtNtCs6IAuOt8vWmF_3syn3gen9visit_mut8VisitMut19visit_expr_loop_mutB6_, symObjAddr: 0x76FC, symBinAddr: 0x3DE64, symSize: 0x3C }
  - { offset: 0x49EF4, size: 0x8, addend: 0x0, symName: __RNvYNtNtCsdE2kXyKmOF1_11async_trait8receiver9HasMutPatNtNtNtCs6IAuOt8vWmF_3syn3gen9visit_mut8VisitMut19visit_expr_path_mutB6_, symObjAddr: 0x7738, symBinAddr: 0x3DEA0, symSize: 0x3C }
  - { offset: 0x49F36, size: 0x8, addend: 0x0, symName: __RNvYNtNtCsdE2kXyKmOF1_11async_trait8receiver9HasMutPatNtNtNtCs6IAuOt8vWmF_3syn3gen9visit_mut8VisitMut19visit_field_pat_mutB6_, symObjAddr: 0x7774, symBinAddr: 0x3DEDC, symSize: 0x3C }
  - { offset: 0x49F78, size: 0x8, addend: 0x0, symName: __RNvYNtNtCsdE2kXyKmOF1_11async_trait8receiver9HasMutPatNtNtNtCs6IAuOt8vWmF_3syn3gen9visit_mut8VisitMut19visit_impl_item_mutB6_, symObjAddr: 0x77B0, symBinAddr: 0x3DF18, symSize: 0x3C }
  - { offset: 0x49FBA, size: 0x8, addend: 0x0, symName: __RNvYNtNtCsdE2kXyKmOF1_11async_trait8receiver9HasMutPatNtNtNtCs6IAuOt8vWmF_3syn3gen9visit_mut8VisitMut19visit_item_enum_mutB6_, symObjAddr: 0x77EC, symBinAddr: 0x3DF54, symSize: 0x3C }
  - { offset: 0x49FFC, size: 0x8, addend: 0x0, symName: __RNvYNtNtCsdE2kXyKmOF1_11async_trait8receiver9HasMutPatNtNtNtCs6IAuOt8vWmF_3syn3gen9visit_mut8VisitMut19visit_item_impl_mutB6_, symObjAddr: 0x7828, symBinAddr: 0x3DF90, symSize: 0x3C }
  - { offset: 0x4A03E, size: 0x8, addend: 0x0, symName: __RNvYNtNtCsdE2kXyKmOF1_11async_trait8receiver9HasMutPatNtNtNtCs6IAuOt8vWmF_3syn3gen9visit_mut8VisitMut19visit_item_type_mutB6_, symObjAddr: 0x7864, symBinAddr: 0x3DFCC, symSize: 0x3C }
  - { offset: 0x4A080, size: 0x8, addend: 0x0, symName: __RNvYNtNtCsdE2kXyKmOF1_11async_trait8receiver9HasMutPatNtNtNtCs6IAuOt8vWmF_3syn3gen9visit_mut8VisitMut19visit_lit_float_mutB6_, symObjAddr: 0x78A0, symBinAddr: 0x3E008, symSize: 0x3C }
  - { offset: 0x4A0C2, size: 0x8, addend: 0x0, symName: __RNvYNtNtCsdE2kXyKmOF1_11async_trait8receiver9HasMutPatNtNtNtCs6IAuOt8vWmF_3syn3gen9visit_mut8VisitMut19visit_meta_list_mutB6_, symObjAddr: 0x78DC, symBinAddr: 0x3E044, symSize: 0x3C }
  - { offset: 0x4A104, size: 0x8, addend: 0x0, symName: __RNvYNtNtCsdE2kXyKmOF1_11async_trait8receiver9HasMutPatNtNtNtCs6IAuOt8vWmF_3syn3gen9visit_mut8VisitMut19visit_pat_paren_mutB6_, symObjAddr: 0x7918, symBinAddr: 0x3E080, symSize: 0x3C }
  - { offset: 0x4A146, size: 0x8, addend: 0x0, symName: __RNvYNtNtCsdE2kXyKmOF1_11async_trait8receiver9HasMutPatNtNtNtCs6IAuOt8vWmF_3syn3gen9visit_mut8VisitMut19visit_pat_slice_mutB6_, symObjAddr: 0x7954, symBinAddr: 0x3E0BC, symSize: 0x3C }
  - { offset: 0x4A188, size: 0x8, addend: 0x0, symName: __RNvYNtNtCsdE2kXyKmOF1_11async_trait8receiver9HasMutPatNtNtNtCs6IAuOt8vWmF_3syn3gen9visit_mut8VisitMut19visit_pat_tuple_mutB6_, symObjAddr: 0x7990, symBinAddr: 0x3E0F8, symSize: 0x3C }
  - { offset: 0x4A1CA, size: 0x8, addend: 0x0, symName: __RNvYNtNtCsdE2kXyKmOF1_11async_trait8receiver9HasMutPatNtNtNtCs6IAuOt8vWmF_3syn3gen9visit_mut8VisitMut19visit_signature_mutB6_, symObjAddr: 0x79CC, symBinAddr: 0x3E134, symSize: 0x3C }
  - { offset: 0x4A20C, size: 0x8, addend: 0x0, symName: __RNvYNtNtCsdE2kXyKmOF1_11async_trait8receiver9HasMutPatNtNtNtCs6IAuOt8vWmF_3syn3gen9visit_mut8VisitMut19visit_type_path_mutB6_, symObjAddr: 0x7A08, symBinAddr: 0x3E170, symSize: 0x3C }
  - { offset: 0x4A24E, size: 0x8, addend: 0x0, symName: __RNvYNtNtCsdE2kXyKmOF1_11async_trait8receiver9HasMutPatNtNtNtCs6IAuOt8vWmF_3syn3gen9visit_mut8VisitMut19visit_use_group_mutB6_, symObjAddr: 0x7A44, symBinAddr: 0x3E1AC, symSize: 0x3C }
  - { offset: 0x4A290, size: 0x8, addend: 0x0, symName: __RNvYNtNtCsdE2kXyKmOF1_11async_trait8receiver9HasMutPatNtNtNtCs6IAuOt8vWmF_3syn3gen9visit_mut8VisitMut20visit_assoc_type_mutB6_, symObjAddr: 0x7A80, symBinAddr: 0x3E1E8, symSize: 0x3C }
  - { offset: 0x4A2CF, size: 0x8, addend: 0x0, symName: __RNvYNtNtCsdE2kXyKmOF1_11async_trait8receiver9HasMutPatNtNtNtCs6IAuOt8vWmF_3syn3gen9visit_mut8VisitMut20visit_attr_style_mutB6_, symObjAddr: 0x7ABC, symBinAddr: 0x3E224, symSize: 0x3C }
  - { offset: 0x4A30E, size: 0x8, addend: 0x0, symName: __RNvYNtNtCsdE2kXyKmOF1_11async_trait8receiver9HasMutPatNtNtNtCs6IAuOt8vWmF_3syn3gen9visit_mut8VisitMut20visit_attributes_mutB6_, symObjAddr: 0x7AF8, symBinAddr: 0x3E260, symSize: 0x98 }
  - { offset: 0x4A37F, size: 0x8, addend: 0x0, symName: __RNvYNtNtCsdE2kXyKmOF1_11async_trait8receiver9HasMutPatNtNtNtCs6IAuOt8vWmF_3syn3gen9visit_mut8VisitMut20visit_constraint_mutB6_, symObjAddr: 0x7B90, symBinAddr: 0x3E2F8, symSize: 0x3C }
  - { offset: 0x4A3BE, size: 0x8, addend: 0x0, symName: __RNvYNtNtCsdE2kXyKmOF1_11async_trait8receiver9HasMutPatNtNtNtCs6IAuOt8vWmF_3syn3gen9visit_mut8VisitMut20visit_expr_array_mutB6_, symObjAddr: 0x7BCC, symBinAddr: 0x3E334, symSize: 0x3C }
  - { offset: 0x4A3FD, size: 0x8, addend: 0x0, symName: __RNvYNtNtCsdE2kXyKmOF1_11async_trait8receiver9HasMutPatNtNtNtCs6IAuOt8vWmF_3syn3gen9visit_mut8VisitMut20visit_expr_async_mutB6_, symObjAddr: 0x7C08, symBinAddr: 0x3E370, symSize: 0x3C }
  - { offset: 0x4A43C, size: 0x8, addend: 0x0, symName: __RNvYNtNtCsdE2kXyKmOF1_11async_trait8receiver9HasMutPatNtNtNtCs6IAuOt8vWmF_3syn3gen9visit_mut8VisitMut20visit_expr_await_mutB6_, symObjAddr: 0x7C44, symBinAddr: 0x3E3AC, symSize: 0x3C }
  - { offset: 0x4A47B, size: 0x8, addend: 0x0, symName: __RNvYNtNtCsdE2kXyKmOF1_11async_trait8receiver9HasMutPatNtNtNtCs6IAuOt8vWmF_3syn3gen9visit_mut8VisitMut20visit_expr_block_mutB6_, symObjAddr: 0x7C80, symBinAddr: 0x3E3E8, symSize: 0x3C }
  - { offset: 0x4A4BA, size: 0x8, addend: 0x0, symName: __RNvYNtNtCsdE2kXyKmOF1_11async_trait8receiver9HasMutPatNtNtNtCs6IAuOt8vWmF_3syn3gen9visit_mut8VisitMut20visit_expr_break_mutB6_, symObjAddr: 0x7CBC, symBinAddr: 0x3E424, symSize: 0x3C }
  - { offset: 0x4A4F9, size: 0x8, addend: 0x0, symName: __RNvYNtNtCsdE2kXyKmOF1_11async_trait8receiver9HasMutPatNtNtNtCs6IAuOt8vWmF_3syn3gen9visit_mut8VisitMut20visit_expr_const_mutB6_, symObjAddr: 0x7CF8, symBinAddr: 0x3E460, symSize: 0x3C }
  - { offset: 0x4A538, size: 0x8, addend: 0x0, symName: __RNvYNtNtCsdE2kXyKmOF1_11async_trait8receiver9HasMutPatNtNtNtCs6IAuOt8vWmF_3syn3gen9visit_mut8VisitMut20visit_expr_field_mutB6_, symObjAddr: 0x7D34, symBinAddr: 0x3E49C, symSize: 0x3C }
  - { offset: 0x4A577, size: 0x8, addend: 0x0, symName: __RNvYNtNtCsdE2kXyKmOF1_11async_trait8receiver9HasMutPatNtNtNtCs6IAuOt8vWmF_3syn3gen9visit_mut8VisitMut20visit_expr_group_mutB6_, symObjAddr: 0x7D70, symBinAddr: 0x3E4D8, symSize: 0x3C }
  - { offset: 0x4A5B6, size: 0x8, addend: 0x0, symName: __RNvYNtNtCsdE2kXyKmOF1_11async_trait8receiver9HasMutPatNtNtNtCs6IAuOt8vWmF_3syn3gen9visit_mut8VisitMut20visit_expr_index_mutB6_, symObjAddr: 0x7DAC, symBinAddr: 0x3E514, symSize: 0x3C }
  - { offset: 0x4A5F5, size: 0x8, addend: 0x0, symName: __RNvYNtNtCsdE2kXyKmOF1_11async_trait8receiver9HasMutPatNtNtNtCs6IAuOt8vWmF_3syn3gen9visit_mut8VisitMut20visit_expr_infer_mutB6_, symObjAddr: 0x7DE8, symBinAddr: 0x3E550, symSize: 0x3C }
  - { offset: 0x4A634, size: 0x8, addend: 0x0, symName: __RNvYNtNtCsdE2kXyKmOF1_11async_trait8receiver9HasMutPatNtNtNtCs6IAuOt8vWmF_3syn3gen9visit_mut8VisitMut20visit_expr_macro_mutB6_, symObjAddr: 0x7E24, symBinAddr: 0x3E58C, symSize: 0x3C }
  - { offset: 0x4A673, size: 0x8, addend: 0x0, symName: __RNvYNtNtCsdE2kXyKmOF1_11async_trait8receiver9HasMutPatNtNtNtCs6IAuOt8vWmF_3syn3gen9visit_mut8VisitMut20visit_expr_match_mutB6_, symObjAddr: 0x7E60, symBinAddr: 0x3E5C8, symSize: 0x3C }
  - { offset: 0x4A6B5, size: 0x8, addend: 0x0, symName: __RNvYNtNtCsdE2kXyKmOF1_11async_trait8receiver9HasMutPatNtNtNtCs6IAuOt8vWmF_3syn3gen9visit_mut8VisitMut20visit_expr_paren_mutB6_, symObjAddr: 0x7E9C, symBinAddr: 0x3E604, symSize: 0x3C }
  - { offset: 0x4A6F7, size: 0x8, addend: 0x0, symName: __RNvYNtNtCsdE2kXyKmOF1_11async_trait8receiver9HasMutPatNtNtNtCs6IAuOt8vWmF_3syn3gen9visit_mut8VisitMut20visit_expr_range_mutB6_, symObjAddr: 0x7ED8, symBinAddr: 0x3E640, symSize: 0x3C }
  - { offset: 0x4A739, size: 0x8, addend: 0x0, symName: __RNvYNtNtCsdE2kXyKmOF1_11async_trait8receiver9HasMutPatNtNtNtCs6IAuOt8vWmF_3syn3gen9visit_mut8VisitMut20visit_expr_tuple_mutB6_, symObjAddr: 0x7F14, symBinAddr: 0x3E67C, symSize: 0x3C }
  - { offset: 0x4A77B, size: 0x8, addend: 0x0, symName: __RNvYNtNtCsdE2kXyKmOF1_11async_trait8receiver9HasMutPatNtNtNtCs6IAuOt8vWmF_3syn3gen9visit_mut8VisitMut20visit_expr_unary_mutB6_, symObjAddr: 0x7F50, symBinAddr: 0x3E6B8, symSize: 0x3C }
  - { offset: 0x4A7BD, size: 0x8, addend: 0x0, symName: __RNvYNtNtCsdE2kXyKmOF1_11async_trait8receiver9HasMutPatNtNtNtCs6IAuOt8vWmF_3syn3gen9visit_mut8VisitMut20visit_expr_while_mutB6_, symObjAddr: 0x7F8C, symBinAddr: 0x3E6F4, symSize: 0x3C }
  - { offset: 0x4A7FF, size: 0x8, addend: 0x0, symName: __RNvYNtNtCsdE2kXyKmOF1_11async_trait8receiver9HasMutPatNtNtNtCs6IAuOt8vWmF_3syn3gen9visit_mut8VisitMut20visit_expr_yield_mutB6_, symObjAddr: 0x7FC8, symBinAddr: 0x3E730, symSize: 0x3C }
  - { offset: 0x4A841, size: 0x8, addend: 0x0, symName: __RNvYNtNtCsdE2kXyKmOF1_11async_trait8receiver9HasMutPatNtNtNtCs6IAuOt8vWmF_3syn3gen9visit_mut8VisitMut20visit_item_const_mutB6_, symObjAddr: 0x8004, symBinAddr: 0x3E76C, symSize: 0x3C }
  - { offset: 0x4A883, size: 0x8, addend: 0x0, symName: __RNvYNtNtCsdE2kXyKmOF1_11async_trait8receiver9HasMutPatNtNtNtCs6IAuOt8vWmF_3syn3gen9visit_mut8VisitMut20visit_item_macro_mutB6_, symObjAddr: 0x8040, symBinAddr: 0x3E7A8, symSize: 0x3C }
  - { offset: 0x4A8C5, size: 0x8, addend: 0x0, symName: __RNvYNtNtCsdE2kXyKmOF1_11async_trait8receiver9HasMutPatNtNtNtCs6IAuOt8vWmF_3syn3gen9visit_mut8VisitMut20visit_item_trait_mutB6_, symObjAddr: 0x807C, symBinAddr: 0x3E7E4, symSize: 0x3C }
  - { offset: 0x4A907, size: 0x8, addend: 0x0, symName: __RNvYNtNtCsdE2kXyKmOF1_11async_trait8receiver9HasMutPatNtNtNtCs6IAuOt8vWmF_3syn3gen9visit_mut8VisitMut20visit_item_union_mutB6_, symObjAddr: 0x80B8, symBinAddr: 0x3E820, symSize: 0x3C }
  - { offset: 0x4A949, size: 0x8, addend: 0x0, symName: __RNvYNtNtCsdE2kXyKmOF1_11async_trait8receiver9HasMutPatNtNtNtCs6IAuOt8vWmF_3syn3gen9visit_mut8VisitMut20visit_local_init_mutB6_, symObjAddr: 0x80F4, symBinAddr: 0x3E85C, symSize: 0x3C }
  - { offset: 0x4A98B, size: 0x8, addend: 0x0, symName: __RNvYNtNtCsdE2kXyKmOF1_11async_trait8receiver9HasMutPatNtNtNtCs6IAuOt8vWmF_3syn3gen9visit_mut8VisitMut20visit_pat_struct_mutB6_, symObjAddr: 0x8130, symBinAddr: 0x3E898, symSize: 0x3C }
  - { offset: 0x4A9CD, size: 0x8, addend: 0x0, symName: __RNvYNtNtCsdE2kXyKmOF1_11async_trait8receiver9HasMutPatNtNtNtCs6IAuOt8vWmF_3syn3gen9visit_mut8VisitMut20visit_stmt_macro_mutB6_, symObjAddr: 0x816C, symBinAddr: 0x3E8D4, symSize: 0x3C }
  - { offset: 0x4AA0F, size: 0x8, addend: 0x0, symName: __RNvYNtNtCsdE2kXyKmOF1_11async_trait8receiver9HasMutPatNtNtNtCs6IAuOt8vWmF_3syn3gen9visit_mut8VisitMut20visit_trait_item_mutB6_, symObjAddr: 0x81A8, symBinAddr: 0x3E910, symSize: 0x3C }
  - { offset: 0x4AA51, size: 0x8, addend: 0x0, symName: __RNvYNtNtCsdE2kXyKmOF1_11async_trait8receiver9HasMutPatNtNtNtCs6IAuOt8vWmF_3syn3gen9visit_mut8VisitMut20visit_type_array_mutB6_, symObjAddr: 0x81E4, symBinAddr: 0x3E94C, symSize: 0x3C }
  - { offset: 0x4AA93, size: 0x8, addend: 0x0, symName: __RNvYNtNtCsdE2kXyKmOF1_11async_trait8receiver9HasMutPatNtNtNtCs6IAuOt8vWmF_3syn3gen9visit_mut8VisitMut20visit_type_group_mutB6_, symObjAddr: 0x8220, symBinAddr: 0x3E988, symSize: 0x3C }
  - { offset: 0x4AAD5, size: 0x8, addend: 0x0, symName: __RNvYNtNtCsdE2kXyKmOF1_11async_trait8receiver9HasMutPatNtNtNtCs6IAuOt8vWmF_3syn3gen9visit_mut8VisitMut20visit_type_infer_mutB6_, symObjAddr: 0x825C, symBinAddr: 0x3E9C4, symSize: 0x3C }
  - { offset: 0x4AB17, size: 0x8, addend: 0x0, symName: __RNvYNtNtCsdE2kXyKmOF1_11async_trait8receiver9HasMutPatNtNtNtCs6IAuOt8vWmF_3syn3gen9visit_mut8VisitMut20visit_type_macro_mutB6_, symObjAddr: 0x8298, symBinAddr: 0x3EA00, symSize: 0x3C }
  - { offset: 0x4AB59, size: 0x8, addend: 0x0, symName: __RNvYNtNtCsdE2kXyKmOF1_11async_trait8receiver9HasMutPatNtNtNtCs6IAuOt8vWmF_3syn3gen9visit_mut8VisitMut20visit_type_never_mutB6_, symObjAddr: 0x82D4, symBinAddr: 0x3EA3C, symSize: 0x3C }
  - { offset: 0x4AB9B, size: 0x8, addend: 0x0, symName: __RNvYNtNtCsdE2kXyKmOF1_11async_trait8receiver9HasMutPatNtNtNtCs6IAuOt8vWmF_3syn3gen9visit_mut8VisitMut20visit_type_param_mutB6_, symObjAddr: 0x8310, symBinAddr: 0x3EA78, symSize: 0x3C }
  - { offset: 0x4ABDD, size: 0x8, addend: 0x0, symName: __RNvYNtNtCsdE2kXyKmOF1_11async_trait8receiver9HasMutPatNtNtNtCs6IAuOt8vWmF_3syn3gen9visit_mut8VisitMut20visit_type_paren_mutB6_, symObjAddr: 0x834C, symBinAddr: 0x3EAB4, symSize: 0x3C }
  - { offset: 0x4AC1F, size: 0x8, addend: 0x0, symName: __RNvYNtNtCsdE2kXyKmOF1_11async_trait8receiver9HasMutPatNtNtNtCs6IAuOt8vWmF_3syn3gen9visit_mut8VisitMut20visit_type_slice_mutB6_, symObjAddr: 0x8388, symBinAddr: 0x3EAF0, symSize: 0x3C }
  - { offset: 0x4AC61, size: 0x8, addend: 0x0, symName: __RNvYNtNtCsdE2kXyKmOF1_11async_trait8receiver9HasMutPatNtNtNtCs6IAuOt8vWmF_3syn3gen9visit_mut8VisitMut20visit_type_tuple_mutB6_, symObjAddr: 0x83C4, symBinAddr: 0x3EB2C, symSize: 0x3C }
  - { offset: 0x4ACA3, size: 0x8, addend: 0x0, symName: __RNvYNtNtCsdE2kXyKmOF1_11async_trait8receiver9HasMutPatNtNtNtCs6IAuOt8vWmF_3syn3gen9visit_mut8VisitMut20visit_use_rename_mutB6_, symObjAddr: 0x8400, symBinAddr: 0x3EB68, symSize: 0x3C }
  - { offset: 0x4ACE5, size: 0x8, addend: 0x0, symName: __RNvYNtNtCsdE2kXyKmOF1_11async_trait8receiver9HasMutPatNtNtNtCs6IAuOt8vWmF_3syn3gen9visit_mut8VisitMut20visit_visibility_mutB6_, symObjAddr: 0x843C, symBinAddr: 0x3EBA4, symSize: 0x3C }
  - { offset: 0x4AD27, size: 0x8, addend: 0x0, symName: __RNvYNtNtCsdE2kXyKmOF1_11async_trait8receiver9HasMutPatNtNtNtCs6IAuOt8vWmF_3syn3gen9visit_mut8VisitMut21visit_assoc_const_mutB6_, symObjAddr: 0x8478, symBinAddr: 0x3EBE0, symSize: 0x3C }
  - { offset: 0x4AD66, size: 0x8, addend: 0x0, symName: __RNvYNtNtCsdE2kXyKmOF1_11async_trait8receiver9HasMutPatNtNtNtCs6IAuOt8vWmF_3syn3gen9visit_mut8VisitMut21visit_bare_fn_arg_mutB6_, symObjAddr: 0x84B4, symBinAddr: 0x3EC1C, symSize: 0x3C }
  - { offset: 0x4ADA5, size: 0x8, addend: 0x0, symName: __RNvYNtNtCsdE2kXyKmOF1_11async_trait8receiver9HasMutPatNtNtNtCs6IAuOt8vWmF_3syn3gen9visit_mut8VisitMut21visit_const_param_mutB6_, symObjAddr: 0x84F0, symBinAddr: 0x3EC58, symSize: 0x3C }
  - { offset: 0x4ADE4, size: 0x8, addend: 0x0, symName: __RNvYNtNtCsdE2kXyKmOF1_11async_trait8receiver9HasMutPatNtNtNtCs6IAuOt8vWmF_3syn3gen9visit_mut8VisitMut21visit_expr_assign_mutB6_, symObjAddr: 0x852C, symBinAddr: 0x3EC94, symSize: 0x3C }
  - { offset: 0x4AE23, size: 0x8, addend: 0x0, symName: __RNvYNtNtCsdE2kXyKmOF1_11async_trait8receiver9HasMutPatNtNtNtCs6IAuOt8vWmF_3syn3gen9visit_mut8VisitMut21visit_expr_binary_mutB6_, symObjAddr: 0x8568, symBinAddr: 0x3ECD0, symSize: 0x3C }
  - { offset: 0x4AE62, size: 0x8, addend: 0x0, symName: __RNvYNtNtCsdE2kXyKmOF1_11async_trait8receiver9HasMutPatNtNtNtCs6IAuOt8vWmF_3syn3gen9visit_mut8VisitMut21visit_expr_repeat_mutB6_, symObjAddr: 0x85A4, symBinAddr: 0x3ED0C, symSize: 0x3C }
  - { offset: 0x4AEA4, size: 0x8, addend: 0x0, symName: __RNvYNtNtCsdE2kXyKmOF1_11async_trait8receiver9HasMutPatNtNtNtCs6IAuOt8vWmF_3syn3gen9visit_mut8VisitMut21visit_expr_return_mutB6_, symObjAddr: 0x85E0, symBinAddr: 0x3ED48, symSize: 0x3C }
  - { offset: 0x4AEE6, size: 0x8, addend: 0x0, symName: __RNvYNtNtCsdE2kXyKmOF1_11async_trait8receiver9HasMutPatNtNtNtCs6IAuOt8vWmF_3syn3gen9visit_mut8VisitMut21visit_expr_struct_mutB6_, symObjAddr: 0x861C, symBinAddr: 0x3ED84, symSize: 0x3C }
  - { offset: 0x4AF28, size: 0x8, addend: 0x0, symName: __RNvYNtNtCsdE2kXyKmOF1_11async_trait8receiver9HasMutPatNtNtNtCs6IAuOt8vWmF_3syn3gen9visit_mut8VisitMut21visit_expr_unsafe_mutB6_, symObjAddr: 0x8658, symBinAddr: 0x3EDC0, symSize: 0x3C }
  - { offset: 0x4AF6A, size: 0x8, addend: 0x0, symName: __RNvYNtNtCsdE2kXyKmOF1_11async_trait8receiver9HasMutPatNtNtNtCs6IAuOt8vWmF_3syn3gen9visit_mut8VisitMut21visit_field_value_mutB6_, symObjAddr: 0x8694, symBinAddr: 0x3EDFC, symSize: 0x3C }
  - { offset: 0x4AFAC, size: 0x8, addend: 0x0, symName: __RNvYNtNtCsdE2kXyKmOF1_11async_trait8receiver9HasMutPatNtNtNtCs6IAuOt8vWmF_3syn3gen9visit_mut8VisitMut21visit_item_static_mutB6_, symObjAddr: 0x86D0, symBinAddr: 0x3EE38, symSize: 0x3C }
  - { offset: 0x4AFEE, size: 0x8, addend: 0x0, symName: __RNvYNtNtCsdE2kXyKmOF1_11async_trait8receiver9HasMutPatNtNtNtCs6IAuOt8vWmF_3syn3gen9visit_mut8VisitMut21visit_item_struct_mutB6_, symObjAddr: 0x870C, symBinAddr: 0x3EE74, symSize: 0x3C }
  - { offset: 0x4B030, size: 0x8, addend: 0x0, symName: __RNvYNtNtCsdE2kXyKmOF1_11async_trait8receiver9HasMutPatNtNtNtCs6IAuOt8vWmF_3syn3gen9visit_mut8VisitMut21visit_return_type_mutB6_, symObjAddr: 0x8748, symBinAddr: 0x3EEB0, symSize: 0x3C }
  - { offset: 0x4B072, size: 0x8, addend: 0x0, symName: __RNvYNtNtCsdE2kXyKmOF1_11async_trait8receiver9HasMutPatNtNtNtCs6IAuOt8vWmF_3syn3gen9visit_mut8VisitMut21visit_trait_bound_mutB6_, symObjAddr: 0x8784, symBinAddr: 0x3EEEC, symSize: 0x3C }
  - { offset: 0x4B0B4, size: 0x8, addend: 0x0, symName: __RNvYNtNtCsdE2kXyKmOF1_11async_trait8receiver9HasMutPatNtNtNtCs6IAuOt8vWmF_3syn3gen9visit_mut8VisitMut22visit_expr_closure_mutB6_, symObjAddr: 0x87C0, symBinAddr: 0x3EF28, symSize: 0x3C }
  - { offset: 0x4B0F3, size: 0x8, addend: 0x0, symName: __RNvYNtNtCsdE2kXyKmOF1_11async_trait8receiver9HasMutPatNtNtNtCs6IAuOt8vWmF_3syn3gen9visit_mut8VisitMut22visit_fields_named_mutB6_, symObjAddr: 0x87FC, symBinAddr: 0x3EF64, symSize: 0x3C }
  - { offset: 0x4B135, size: 0x8, addend: 0x0, symName: __RNvYNtNtCsdE2kXyKmOF1_11async_trait8receiver9HasMutPatNtNtNtCs6IAuOt8vWmF_3syn3gen9visit_mut8VisitMut22visit_foreign_item_mutB6_, symObjAddr: 0x8838, symBinAddr: 0x3EFA0, symSize: 0x3C }
  - { offset: 0x4B177, size: 0x8, addend: 0x0, symName: __RNvYNtNtCsdE2kXyKmOF1_11async_trait8receiver9HasMutPatNtNtNtCs6IAuOt8vWmF_3syn3gen9visit_mut8VisitMut22visit_impl_item_fn_mutB6_, symObjAddr: 0x8874, symBinAddr: 0x3EFDC, symSize: 0x3C }
  - { offset: 0x4B1B9, size: 0x8, addend: 0x0, symName: __RNvYNtNtCsdE2kXyKmOF1_11async_trait8receiver9HasMutPatNtNtNtCs6IAuOt8vWmF_3syn3gen9visit_mut8VisitMut22visit_lit_byte_str_mutB6_, symObjAddr: 0x88B0, symBinAddr: 0x3F018, symSize: 0x3C }
  - { offset: 0x4B1FB, size: 0x8, addend: 0x0, symName: __RNvYNtNtCsdE2kXyKmOF1_11async_trait8receiver9HasMutPatNtNtNtCs6IAuOt8vWmF_3syn3gen9visit_mut8VisitMut22visit_path_segment_mutB6_, symObjAddr: 0x88EC, symBinAddr: 0x3F054, symSize: 0x3C }
  - { offset: 0x4B23D, size: 0x8, addend: 0x0, symName: __RNvYNtNtCsdE2kXyKmOF1_11async_trait8receiver9HasMutPatNtNtNtCs6IAuOt8vWmF_3syn3gen9visit_mut8VisitMut22visit_range_limits_mutB6_, symObjAddr: 0x8928, symBinAddr: 0x3F090, symSize: 0x3C }
  - { offset: 0x4B27F, size: 0x8, addend: 0x0, symName: __RNvYNtNtCsdE2kXyKmOF1_11async_trait8receiver9HasMutPatNtNtNtCs6IAuOt8vWmF_3syn3gen9visit_mut8VisitMut22visit_token_stream_mutB6_, symObjAddr: 0x8964, symBinAddr: 0x3F0CC, symSize: 0x24 }
  - { offset: 0x4B2C1, size: 0x8, addend: 0x0, symName: __RNvYNtNtCsdE2kXyKmOF1_11async_trait8receiver9HasMutPatNtNtNtCs6IAuOt8vWmF_3syn3gen9visit_mut8VisitMut22visit_type_bare_fn_mutB6_, symObjAddr: 0x8988, symBinAddr: 0x3F0F0, symSize: 0x3C }
  - { offset: 0x4B303, size: 0x8, addend: 0x0, symName: __RNvYNtNtCsdE2kXyKmOF1_11async_trait8receiver9HasMutPatNtNtNtCs6IAuOt8vWmF_3syn3gen9visit_mut8VisitMut22visit_where_clause_mutB6_, symObjAddr: 0x89C4, symBinAddr: 0x3F12C, symSize: 0x3C }
  - { offset: 0x4B345, size: 0x8, addend: 0x0, symName: __RNvYNtNtCsdE2kXyKmOF1_11async_trait8receiver9HasMutPatNtNtNtCs6IAuOt8vWmF_3syn3gen9visit_mut8VisitMut23visit_bare_variadic_mutB6_, symObjAddr: 0x8A00, symBinAddr: 0x3F168, symSize: 0x3C }
  - { offset: 0x4B384, size: 0x8, addend: 0x0, symName: __RNvYNtNtCsdE2kXyKmOF1_11async_trait8receiver9HasMutPatNtNtNtCs6IAuOt8vWmF_3syn3gen9visit_mut8VisitMut23visit_expr_continue_mutB6_, symObjAddr: 0x8A3C, symBinAddr: 0x3F1A4, symSize: 0x3C }
  - { offset: 0x4B3C3, size: 0x8, addend: 0x0, symName: __RNvYNtNtCsdE2kXyKmOF1_11async_trait8receiver9HasMutPatNtNtNtCs6IAuOt8vWmF_3syn3gen9visit_mut8VisitMut23visit_expr_for_loop_mutB6_, symObjAddr: 0x8A78, symBinAddr: 0x3F1E0, symSize: 0x3C }
  - { offset: 0x4B402, size: 0x8, addend: 0x0, symName: __RNvYNtNtCsdE2kXyKmOF1_11async_trait8receiver9HasMutPatNtNtNtCs6IAuOt8vWmF_3syn3gen9visit_mut8VisitMut23visit_expr_raw_addr_mutB6_, symObjAddr: 0x8AB4, symBinAddr: 0x3F21C, symSize: 0x3C }
  - { offset: 0x4B444, size: 0x8, addend: 0x0, symName: __RNvYNtNtCsdE2kXyKmOF1_11async_trait8receiver9HasMutPatNtNtNtCs6IAuOt8vWmF_3syn3gen9visit_mut8VisitMut23visit_generic_param_mutB6_, symObjAddr: 0x8AF0, symBinAddr: 0x3F258, symSize: 0x3C }
  - { offset: 0x4B486, size: 0x8, addend: 0x0, symName: __RNvYNtNtCsdE2kXyKmOF1_11async_trait8receiver9HasMutPatNtNtNtCs6IAuOt8vWmF_3syn3gen9visit_mut8VisitMut23visit_pat_reference_mutB6_, symObjAddr: 0x8B2C, symBinAddr: 0x3F294, symSize: 0x3C }
  - { offset: 0x4B4C8, size: 0x8, addend: 0x0, symName: __RNvYNtNtCsdE2kXyKmOF1_11async_trait8receiver9HasMutPatNtNtNtCs6IAuOt8vWmF_3syn3gen9visit_mut8VisitMut23visit_trait_item_fn_mutB6_, symObjAddr: 0x8B68, symBinAddr: 0x3F2D0, symSize: 0x3C }
  - { offset: 0x4B50A, size: 0x8, addend: 0x0, symName: __RNvYNtNtCsdE2kXyKmOF1_11async_trait8receiver9HasMutPatNtNtNtCs6IAuOt8vWmF_3syn3gen9visit_mut8VisitMut24visit_captured_param_mutB6_, symObjAddr: 0x8BA4, symBinAddr: 0x3F30C, symSize: 0x3C }
  - { offset: 0x4B549, size: 0x8, addend: 0x0, symName: __RNvYNtNtCsdE2kXyKmOF1_11async_trait8receiver9HasMutPatNtNtNtCs6IAuOt8vWmF_3syn3gen9visit_mut8VisitMut24visit_expr_reference_mutB6_, symObjAddr: 0x8BE0, symBinAddr: 0x3F348, symSize: 0x3C }
  - { offset: 0x4B58B, size: 0x8, addend: 0x0, symName: __RNvYNtNtCsdE2kXyKmOF1_11async_trait8receiver9HasMutPatNtNtNtCs6IAuOt8vWmF_3syn3gen9visit_mut8VisitMut24visit_expr_try_block_mutB6_, symObjAddr: 0x8C1C, symBinAddr: 0x3F384, symSize: 0x3C }
  - { offset: 0x4B5CD, size: 0x8, addend: 0x0, symName: __RNvYNtNtCsdE2kXyKmOF1_11async_trait8receiver9HasMutPatNtNtNtCs6IAuOt8vWmF_3syn3gen9visit_mut8VisitMut24visit_fields_unnamed_mutB6_, symObjAddr: 0x8C58, symBinAddr: 0x3F3C0, symSize: 0x3C }
  - { offset: 0x4B60F, size: 0x8, addend: 0x0, symName: __RNvYNtNtCsdE2kXyKmOF1_11async_trait8receiver9HasMutPatNtNtNtCs6IAuOt8vWmF_3syn3gen9visit_mut8VisitMut24visit_impl_item_type_mutB6_, symObjAddr: 0x8C94, symBinAddr: 0x3F3FC, symSize: 0x3C }
  - { offset: 0x4B651, size: 0x8, addend: 0x0, symName: __RNvYNtNtCsdE2kXyKmOF1_11async_trait8receiver9HasMutPatNtNtNtCs6IAuOt8vWmF_3syn3gen9visit_mut8VisitMut24visit_lifetime_param_mutB6_, symObjAddr: 0x8CD0, symBinAddr: 0x3F438, symSize: 0x3C }
  - { offset: 0x4B693, size: 0x8, addend: 0x0, symName: __RNvYNtNtCsdE2kXyKmOF1_11async_trait8receiver9HasMutPatNtNtNtCs6IAuOt8vWmF_3syn3gen9visit_mut8VisitMut24visit_path_arguments_mutB6_, symObjAddr: 0x8D0C, symBinAddr: 0x3F474, symSize: 0x3C }
  - { offset: 0x4B6D5, size: 0x8, addend: 0x0, symName: __RNvYNtNtCsdE2kXyKmOF1_11async_trait8receiver9HasMutPatNtNtNtCs6IAuOt8vWmF_3syn3gen9visit_mut8VisitMut24visit_predicate_type_mutB6_, symObjAddr: 0x8D48, symBinAddr: 0x3F4B0, symSize: 0x3C }
  - { offset: 0x4B717, size: 0x8, addend: 0x0, symName: __RNvYNtNtCsdE2kXyKmOF1_11async_trait8receiver9HasMutPatNtNtNtCs6IAuOt8vWmF_3syn3gen9visit_mut8VisitMut24visit_type_reference_mutB6_, symObjAddr: 0x8D84, symBinAddr: 0x3F4EC, symSize: 0x3C }
  - { offset: 0x4B759, size: 0x8, addend: 0x0, symName: __RNvYNtNtCsdE2kXyKmOF1_11async_trait8receiver9HasMutPatNtNtNtCs6IAuOt8vWmF_3syn3gen9visit_mut8VisitMut24visit_vis_restricted_mutB6_, symObjAddr: 0x8DC0, symBinAddr: 0x3F528, symSize: 0x3C }
  - { offset: 0x4B79B, size: 0x8, addend: 0x0, symName: __RNvYNtNtCsdE2kXyKmOF1_11async_trait8receiver9HasMutPatNtNtNtCs6IAuOt8vWmF_3syn3gen9visit_mut8VisitMut25visit_bound_lifetimes_mutB6_, symObjAddr: 0x8DFC, symBinAddr: 0x3F564, symSize: 0x3C }
  - { offset: 0x4B7DA, size: 0x8, addend: 0x0, symName: __RNvYNtNtCsdE2kXyKmOF1_11async_trait8receiver9HasMutPatNtNtNtCs6IAuOt8vWmF_3syn3gen9visit_mut8VisitMut25visit_foreign_item_fn_mutB6_, symObjAddr: 0x8E38, symBinAddr: 0x3F5A0, symSize: 0x3C }
  - { offset: 0x4B81C, size: 0x8, addend: 0x0, symName: __RNvYNtNtCsdE2kXyKmOF1_11async_trait8receiver9HasMutPatNtNtNtCs6IAuOt8vWmF_3syn3gen9visit_mut8VisitMut25visit_impl_item_const_mutB6_, symObjAddr: 0x8E74, symBinAddr: 0x3F5DC, symSize: 0x3C }
  - { offset: 0x4B85E, size: 0x8, addend: 0x0, symName: __RNvYNtNtCsdE2kXyKmOF1_11async_trait8receiver9HasMutPatNtNtNtCs6IAuOt8vWmF_3syn3gen9visit_mut8VisitMut25visit_impl_item_macro_mutB6_, symObjAddr: 0x8EB0, symBinAddr: 0x3F618, symSize: 0x3C }
  - { offset: 0x4B8A0, size: 0x8, addend: 0x0, symName: __RNvYNtNtCsdE2kXyKmOF1_11async_trait8receiver9HasMutPatNtNtNtCs6IAuOt8vWmF_3syn3gen9visit_mut8VisitMut25visit_macro_delimiter_mutB6_, symObjAddr: 0x8EEC, symBinAddr: 0x3F654, symSize: 0x3C }
  - { offset: 0x4B8E2, size: 0x8, addend: 0x0, symName: __RNvYNtNtCsdE2kXyKmOF1_11async_trait8receiver9HasMutPatNtNtNtCs6IAuOt8vWmF_3syn3gen9visit_mut8VisitMut25visit_meta_name_value_mutB6_, symObjAddr: 0x8F28, symBinAddr: 0x3F690, symSize: 0x3C }
  - { offset: 0x4B924, size: 0x8, addend: 0x0, symName: __RNvYNtNtCsdE2kXyKmOF1_11async_trait8receiver9HasMutPatNtNtNtCs6IAuOt8vWmF_3syn3gen9visit_mut8VisitMut25visit_precise_capture_mutB6_, symObjAddr: 0x8F64, symBinAddr: 0x3F6CC, symSize: 0x3C }
  - { offset: 0x4B966, size: 0x8, addend: 0x0, symName: __RNvYNtNtCsdE2kXyKmOF1_11async_trait8receiver9HasMutPatNtNtNtCs6IAuOt8vWmF_3syn3gen9visit_mut8VisitMut25visit_trait_item_type_mutB6_, symObjAddr: 0x8FA0, symBinAddr: 0x3F708, symSize: 0x3C }
  - { offset: 0x4B9A8, size: 0x8, addend: 0x0, symName: __RNvYNtNtCsdE2kXyKmOF1_11async_trait8receiver9HasMutPatNtNtNtCs6IAuOt8vWmF_3syn3gen9visit_mut8VisitMut25visit_type_impl_trait_mutB6_, symObjAddr: 0x8FDC, symBinAddr: 0x3F744, symSize: 0x3C }
  - { offset: 0x4B9EA, size: 0x8, addend: 0x0, symName: __RNvYNtNtCsdE2kXyKmOF1_11async_trait8receiver9HasMutPatNtNtNtCs6IAuOt8vWmF_3syn3gen9visit_mut8VisitMut25visit_where_predicate_mutB6_, symObjAddr: 0x9018, symBinAddr: 0x3F780, symSize: 0x3C }
  - { offset: 0x4BA2C, size: 0x8, addend: 0x0, symName: __RNvYNtNtCsdE2kXyKmOF1_11async_trait8receiver9HasMutPatNtNtNtCs6IAuOt8vWmF_3syn3gen9visit_mut8VisitMut26visit_expr_method_call_mutB6_, symObjAddr: 0x9054, symBinAddr: 0x3F7BC, symSize: 0x3C }
  - { offset: 0x4BA6E, size: 0x8, addend: 0x0, symName: __RNvYNtNtCsdE2kXyKmOF1_11async_trait8receiver9HasMutPatNtNtNtCs6IAuOt8vWmF_3syn3gen9visit_mut8VisitMut26visit_field_mutability_mutB6_, symObjAddr: 0x9090, symBinAddr: 0x3F7F8, symSize: 0x3C }
  - { offset: 0x4BAB0, size: 0x8, addend: 0x0, symName: __RNvYNtNtCsdE2kXyKmOF1_11async_trait8receiver9HasMutPatNtNtNtCs6IAuOt8vWmF_3syn3gen9visit_mut8VisitMut26visit_generic_argument_mutB6_, symObjAddr: 0x90CC, symBinAddr: 0x3F834, symSize: 0x3C }
  - { offset: 0x4BAF2, size: 0x8, addend: 0x0, symName: __RNvYNtNtCsdE2kXyKmOF1_11async_trait8receiver9HasMutPatNtNtNtCs6IAuOt8vWmF_3syn3gen9visit_mut8VisitMut26visit_item_foreign_mod_mutB6_, symObjAddr: 0x9108, symBinAddr: 0x3F870, symSize: 0x3C }
  - { offset: 0x4BB34, size: 0x8, addend: 0x0, symName: __RNvYNtNtCsdE2kXyKmOF1_11async_trait8receiver9HasMutPatNtNtNtCs6IAuOt8vWmF_3syn3gen9visit_mut8VisitMut26visit_item_trait_alias_mutB6_, symObjAddr: 0x9144, symBinAddr: 0x3F8AC, symSize: 0x3C }
  - { offset: 0x4BB76, size: 0x8, addend: 0x0, symName: __RNvYNtNtCsdE2kXyKmOF1_11async_trait8receiver9HasMutPatNtNtNtCs6IAuOt8vWmF_3syn3gen9visit_mut8VisitMut26visit_pat_tuple_struct_mutB6_, symObjAddr: 0x9180, symBinAddr: 0x3F8E8, symSize: 0x3C }
  - { offset: 0x4BBB8, size: 0x8, addend: 0x0, symName: __RNvYNtNtCsdE2kXyKmOF1_11async_trait8receiver9HasMutPatNtNtNtCs6IAuOt8vWmF_3syn3gen9visit_mut8VisitMut26visit_trait_item_const_mutB6_, symObjAddr: 0x91BC, symBinAddr: 0x3F924, symSize: 0x3C }
  - { offset: 0x4BBFA, size: 0x8, addend: 0x0, symName: __RNvYNtNtCsdE2kXyKmOF1_11async_trait8receiver9HasMutPatNtNtNtCs6IAuOt8vWmF_3syn3gen9visit_mut8VisitMut26visit_trait_item_macro_mutB6_, symObjAddr: 0x91F8, symBinAddr: 0x3F960, symSize: 0x3C }
  - { offset: 0x4BC3C, size: 0x8, addend: 0x0, symName: __RNvYNtNtCsdE2kXyKmOF1_11async_trait8receiver9HasMutPatNtNtNtCs6IAuOt8vWmF_3syn3gen9visit_mut8VisitMut26visit_type_param_bound_mutB6_, symObjAddr: 0x9234, symBinAddr: 0x3F99C, symSize: 0x3C }
  - { offset: 0x4BC7E, size: 0x8, addend: 0x0, symName: __RNvYNtNtCsdE2kXyKmOF1_11async_trait8receiver9HasMutPatNtNtNtCs6IAuOt8vWmF_3syn3gen9visit_mut8VisitMut27visit_foreign_item_type_mutB6_, symObjAddr: 0x9270, symBinAddr: 0x3F9D8, symSize: 0x3C }
  - { offset: 0x4BCC0, size: 0x8, addend: 0x0, symName: __RNvYNtNtCsdE2kXyKmOF1_11async_trait8receiver9HasMutPatNtNtNtCs6IAuOt8vWmF_3syn3gen9visit_mut8VisitMut27visit_item_extern_crate_mutB6_, symObjAddr: 0x92AC, symBinAddr: 0x3FA14, symSize: 0x3C }
  - { offset: 0x4BD02, size: 0x8, addend: 0x0, symName: __RNvYNtNtCsdE2kXyKmOF1_11async_trait8receiver9HasMutPatNtNtNtCs6IAuOt8vWmF_3syn3gen9visit_mut8VisitMut27visit_static_mutability_mutB6_, symObjAddr: 0x92E8, symBinAddr: 0x3FA50, symSize: 0x3C }
  - { offset: 0x4BD44, size: 0x8, addend: 0x0, symName: __RNvYNtNtCsdE2kXyKmOF1_11async_trait8receiver9HasMutPatNtNtNtCs6IAuOt8vWmF_3syn3gen9visit_mut8VisitMut27visit_type_trait_object_mutB6_, symObjAddr: 0x9324, symBinAddr: 0x3FA8C, symSize: 0x3C }
  - { offset: 0x4BD86, size: 0x8, addend: 0x0, symName: __RNvYNtNtCsdE2kXyKmOF1_11async_trait8receiver9HasMutPatNtNtNtCs6IAuOt8vWmF_3syn3gen9visit_mut8VisitMut28visit_foreign_item_macro_mutB6_, symObjAddr: 0x9360, symBinAddr: 0x3FAC8, symSize: 0x3C }
  - { offset: 0x4BDC8, size: 0x8, addend: 0x0, symName: __RNvYNtNtCsdE2kXyKmOF1_11async_trait8receiver9HasMutPatNtNtNtCs6IAuOt8vWmF_3syn3gen9visit_mut8VisitMut28visit_pointer_mutability_mutB6_, symObjAddr: 0x939C, symBinAddr: 0x3FB04, symSize: 0x3C }
  - { offset: 0x4BE0A, size: 0x8, addend: 0x0, symName: __RNvYNtNtCsdE2kXyKmOF1_11async_trait8receiver9HasMutPatNtNtNtCs6IAuOt8vWmF_3syn3gen9visit_mut8VisitMut28visit_predicate_lifetime_mutB6_, symObjAddr: 0x93D8, symBinAddr: 0x3FB40, symSize: 0x3C }
  - { offset: 0x4BE4C, size: 0x8, addend: 0x0, symName: __RNvYNtNtCsdE2kXyKmOF1_11async_trait8receiver9HasMutPatNtNtNtCs6IAuOt8vWmF_3syn3gen9visit_mut8VisitMut29visit_foreign_item_static_mutB6_, symObjAddr: 0x9414, symBinAddr: 0x3FB7C, symSize: 0x3C }
  - { offset: 0x4BE8E, size: 0x8, addend: 0x0, symName: __RNvYNtNtCsdE2kXyKmOF1_11async_trait8receiver9HasMutPatNtNtNtCs6IAuOt8vWmF_3syn3gen9visit_mut8VisitMut30visit_trait_bound_modifier_mutB6_, symObjAddr: 0x9450, symBinAddr: 0x3FBB8, symSize: 0x3C }
  - { offset: 0x4BED0, size: 0x8, addend: 0x0, symName: __RNvYNtNtCsdE2kXyKmOF1_11async_trait8receiver9HasMutPatNtNtNtCs6IAuOt8vWmF_3syn3gen9visit_mut8VisitMut41visit_parenthesized_generic_arguments_mutB6_, symObjAddr: 0x948C, symBinAddr: 0x3FBF4, symSize: 0x3C }
  - { offset: 0x4BF12, size: 0x8, addend: 0x0, symName: __RNvYNtNtCsdE2kXyKmOF1_11async_trait8receiver9HasMutPatNtNtNtCs6IAuOt8vWmF_3syn3gen9visit_mut8VisitMut43visit_angle_bracketed_generic_arguments_mutB6_, symObjAddr: 0x94C8, symBinAddr: 0x3FC30, symSize: 0x3C }
  - { offset: 0x4D23C, size: 0x8, addend: 0x0, symName: __RINvMNtCsfvfooZQ3Axs_4core6optionINtB3_6OptionINtNtCs6IAuOt8vWmF_3syn10punctuated4PairQNtNtBN_2ty4TypeQNtNtBN_5token5CommaEE7or_elseNCNvXsg_BL_INtBL_8PairsMutB1n_B1D_ENtNtNtNtB5_4iter6traits8iterator8Iterator4nexts_0ECsdE2kXyKmOF1_11async_trait, symObjAddr: 0x0, symBinAddr: 0x36768, symSize: 0xB4 }
  - { offset: 0x4D2B9, size: 0x8, addend: 0x0, symName: __RINvMNtCsfvfooZQ3Axs_4core6optionINtB3_6OptionINtNtCs6IAuOt8vWmF_3syn10punctuated4PairQNtNtBN_2ty9BareFnArgQNtNtBN_5token5CommaEE7or_elseNCNvXsg_BL_INtBL_8PairsMutB1n_B1I_ENtNtNtNtB5_4iter6traits8iterator8Iterator4nexts_0ECsdE2kXyKmOF1_11async_trait, symObjAddr: 0xB4, symBinAddr: 0x3681C, symSize: 0xB4 }
  - { offset: 0x4D343, size: 0x8, addend: 0x0, symName: __RINvMNtCsfvfooZQ3Axs_4core6optionINtB3_6OptionINtNtCs6IAuOt8vWmF_3syn10punctuated4PairQNtNtBN_3pat3PatQNtNtBN_5token2OrEE7or_elseNCNvXsg_BL_INtBL_8PairsMutB1n_B1D_ENtNtNtNtB5_4iter6traits8iterator8Iterator4nexts_0ECsdE2kXyKmOF1_11async_trait, symObjAddr: 0x168, symBinAddr: 0x368D0, symSize: 0xB4 }
  - { offset: 0x4D3A6, size: 0x8, addend: 0x0, symName: __RINvMNtCsfvfooZQ3Axs_4core6optionINtB3_6OptionINtNtCs6IAuOt8vWmF_3syn10punctuated4PairQNtNtBN_3pat3PatQNtNtBN_5token5CommaEE7or_elseNCNvXsg_BL_INtBL_8PairsMutB1n_B1D_ENtNtNtNtB5_4iter6traits8iterator8Iterator4nexts_0ECsdE2kXyKmOF1_11async_trait, symObjAddr: 0x21C, symBinAddr: 0x36984, symSize: 0xB4 }
  - { offset: 0x4D423, size: 0x8, addend: 0x0, symName: __RINvMNtCsfvfooZQ3Axs_4core6optionINtB3_6OptionINtNtCs6IAuOt8vWmF_3syn10punctuated4PairQNtNtBN_3pat8FieldPatQNtNtBN_5token5CommaEE7or_elseNCNvXsg_BL_INtBL_8PairsMutB1n_B1I_ENtNtNtNtB5_4iter6traits8iterator8Iterator4nexts_0ECsdE2kXyKmOF1_11async_trait, symObjAddr: 0x2D0, symBinAddr: 0x36A38, symSize: 0xB4 }
  - { offset: 0x4D4A0, size: 0x8, addend: 0x0, symName: __RINvMNtCsfvfooZQ3Axs_4core6optionINtB3_6OptionINtNtCs6IAuOt8vWmF_3syn10punctuated4PairQNtNtBN_4data5FieldQNtNtBN_5token5CommaEE7or_elseNCNvXsg_BL_INtBL_8PairsMutB1n_B1G_ENtNtNtNtB5_4iter6traits8iterator8Iterator4nexts_0ECsdE2kXyKmOF1_11async_trait, symObjAddr: 0x384, symBinAddr: 0x36AEC, symSize: 0xB4 }
  - { offset: 0x4D51D, size: 0x8, addend: 0x0, symName: __RINvMNtCsfvfooZQ3Axs_4core6optionINtB3_6OptionINtNtCs6IAuOt8vWmF_3syn10punctuated4PairQNtNtBN_4data7VariantQNtNtBN_5token5CommaEE7or_elseNCNvXsg_BL_INtBL_8PairsMutB1n_B1I_ENtNtNtNtB5_4iter6traits8iterator8Iterator4nexts_0ECsdE2kXyKmOF1_11async_trait, symObjAddr: 0x438, symBinAddr: 0x36BA0, symSize: 0xB4 }
  - { offset: 0x4D59A, size: 0x8, addend: 0x0, symName: __RINvMNtCsfvfooZQ3Axs_4core6optionINtB3_6OptionINtNtCs6IAuOt8vWmF_3syn10punctuated4PairQNtNtBN_4expr10FieldValueQNtNtBN_5token5CommaEE7or_elseNCNvXsg_BL_INtBL_8PairsMutB1n_B1M_ENtNtNtNtB5_4iter6traits8iterator8Iterator4nexts_0ECsdE2kXyKmOF1_11async_trait, symObjAddr: 0x4EC, symBinAddr: 0x36C54, symSize: 0xB4 }
  - { offset: 0x4D617, size: 0x8, addend: 0x0, symName: __RINvMNtCsfvfooZQ3Axs_4core6optionINtB3_6OptionINtNtCs6IAuOt8vWmF_3syn10punctuated4PairQNtNtBN_4expr4ExprQNtNtBN_5token5CommaEE7or_elseNCNvXsg_BL_INtBL_8PairsMutB1n_B1F_ENtNtNtNtB5_4iter6traits8iterator8Iterator4nexts_0ECsdE2kXyKmOF1_11async_trait, symObjAddr: 0x5A0, symBinAddr: 0x36D08, symSize: 0xB4 }
  - { offset: 0x4D694, size: 0x8, addend: 0x0, symName: __RINvMNtCsfvfooZQ3Axs_4core6optionINtB3_6OptionINtNtCs6IAuOt8vWmF_3syn10punctuated4PairQNtNtBN_4item5FnArgQNtNtBN_5token5CommaEE7or_elseNCNvXsg_BL_INtBL_8PairsMutB1n_B1G_ENtNtNtNtB5_4iter6traits8iterator8Iterator4nexts_0ECsdE2kXyKmOF1_11async_trait, symObjAddr: 0x654, symBinAddr: 0x36DBC, symSize: 0xB4 }
  - { offset: 0x4D711, size: 0x8, addend: 0x0, symName: __RINvMNtCsfvfooZQ3Axs_4core6optionINtB3_6OptionINtNtCs6IAuOt8vWmF_3syn10punctuated4PairQNtNtBN_4item7UseTreeQNtNtBN_5token5CommaEE7or_elseNCNvXsg_BL_INtBL_8PairsMutB1n_B1I_ENtNtNtNtB5_4iter6traits8iterator8Iterator4nexts_0ECsdE2kXyKmOF1_11async_trait, symObjAddr: 0x708, symBinAddr: 0x36E70, symSize: 0xB4 }
  - { offset: 0x4D79B, size: 0x8, addend: 0x0, symName: __RINvMNtCsfvfooZQ3Axs_4core6optionINtB3_6OptionINtNtCs6IAuOt8vWmF_3syn10punctuated4PairQNtNtBN_4path11PathSegmentQNtNtBN_5token7PathSepEE7or_elseNCNvXsg_BL_INtBL_8PairsMutB1n_B1N_ENtNtNtNtB5_4iter6traits8iterator8Iterator4nexts_0ECsdE2kXyKmOF1_11async_trait, symObjAddr: 0x7BC, symBinAddr: 0x36F24, symSize: 0xB4 }
  - { offset: 0x4D818, size: 0x8, addend: 0x0, symName: __RINvMNtCsfvfooZQ3Axs_4core6optionINtB3_6OptionINtNtCs6IAuOt8vWmF_3syn10punctuated4PairQNtNtBN_4path15GenericArgumentQNtNtBN_5token5CommaEE7or_elseNCNvXsg_BL_INtBL_8PairsMutB1n_B1R_ENtNtNtNtB5_4iter6traits8iterator8Iterator4nexts_0ECsdE2kXyKmOF1_11async_trait, symObjAddr: 0x870, symBinAddr: 0x36FD8, symSize: 0xB4 }
  - { offset: 0x4D895, size: 0x8, addend: 0x0, symName: __RINvMNtCsfvfooZQ3Axs_4core6optionINtB3_6OptionINtNtCs6IAuOt8vWmF_3syn10punctuated4PairQNtNtBN_8generics12GenericParamQNtNtBN_5token5CommaEE7or_elseNCNvXsg_BL_INtBL_8PairsMutB1n_B1S_ENtNtNtNtB5_4iter6traits8iterator8Iterator4nexts_0ECsdE2kXyKmOF1_11async_trait, symObjAddr: 0x924, symBinAddr: 0x3708C, symSize: 0xB4 }
  - { offset: 0x4D912, size: 0x8, addend: 0x0, symName: __RINvMNtCsfvfooZQ3Axs_4core6optionINtB3_6OptionINtNtCs6IAuOt8vWmF_3syn10punctuated4PairQNtNtBN_8generics13CapturedParamQNtNtBN_5token5CommaEE7or_elseNCNvXsg_BL_INtBL_8PairsMutB1n_B1T_ENtNtNtNtB5_4iter6traits8iterator8Iterator4nexts_0ECsdE2kXyKmOF1_11async_trait, symObjAddr: 0x9D8, symBinAddr: 0x37140, symSize: 0xB4 }
  - { offset: 0x4D99C, size: 0x8, addend: 0x0, symName: __RINvMNtCsfvfooZQ3Axs_4core6optionINtB3_6OptionINtNtCs6IAuOt8vWmF_3syn10punctuated4PairQNtNtBN_8generics14TypeParamBoundQNtNtBN_5token4PlusEE7or_elseNCNvXsg_BL_INtBL_8PairsMutB1n_B1U_ENtNtNtNtB5_4iter6traits8iterator8Iterator4nexts_0ECsdE2kXyKmOF1_11async_trait, symObjAddr: 0xA8C, symBinAddr: 0x371F4, symSize: 0xB4 }
  - { offset: 0x4DA19, size: 0x8, addend: 0x0, symName: __RINvMNtCsfvfooZQ3Axs_4core6optionINtB3_6OptionINtNtCs6IAuOt8vWmF_3syn10punctuated4PairQNtNtBN_8generics14WherePredicateQNtNtBN_5token5CommaEE7or_elseNCNvXsg_BL_INtBL_8PairsMutB1n_B1U_ENtNtNtNtB5_4iter6traits8iterator8Iterator4nexts_0ECsdE2kXyKmOF1_11async_trait, symObjAddr: 0xB40, symBinAddr: 0x372A8, symSize: 0xB4 }
  - { offset: 0x4DA96, size: 0x8, addend: 0x0, symName: __RINvMNtCsfvfooZQ3Axs_4core6optionINtB3_6OptionINtNtCs6IAuOt8vWmF_3syn10punctuated4PairQNtNtBN_8lifetime8LifetimeQNtNtBN_5token4PlusEE7or_elseNCNvXsg_BL_INtBL_8PairsMutB1n_B1N_ENtNtNtNtB5_4iter6traits8iterator8Iterator4nexts_0ECsdE2kXyKmOF1_11async_trait, symObjAddr: 0xBF4, symBinAddr: 0x3735C, symSize: 0xB4 }
  - { offset: 0x4DBB1, size: 0x8, addend: 0x0, symName: __RNvNtCsdE2kXyKmOF1_11async_trait8receiver15has_self_in_sig, symObjAddr: 0x9504, symBinAddr: 0x3FC6C, symSize: 0x48 }
  - { offset: 0x4DBF2, size: 0x8, addend: 0x0, symName: __RNvNtCsdE2kXyKmOF1_11async_trait8receiver17has_self_in_block, symObjAddr: 0x954C, symBinAddr: 0x3FCB4, symSize: 0x48 }
  - { offset: 0x4DC33, size: 0x8, addend: 0x0, symName: __RNvNtCsdE2kXyKmOF1_11async_trait8receiver24has_self_in_token_stream, symObjAddr: 0x9594, symBinAddr: 0x3FCFC, symSize: 0x78 }
  - { offset: 0x4DC65, size: 0x8, addend: 0x0, symName: __RNCNvNtCsdE2kXyKmOF1_11async_trait8receiver24has_self_in_token_stream0B5_, symObjAddr: 0x960C, symBinAddr: 0x3FD74, symSize: 0x20C }
  - { offset: 0x4DCCF, size: 0x8, addend: 0x0, symName: __RNvNtCsdE2kXyKmOF1_11async_trait8receiver7mut_pat, symObjAddr: 0x9818, symBinAddr: 0x3FF80, symSize: 0x58 }
  - { offset: 0x4DD10, size: 0x8, addend: 0x0, symName: __RNvNtCsdE2kXyKmOF1_11async_trait8receiver11contains_fn, symObjAddr: 0x9870, symBinAddr: 0x3FFD8, symSize: 0x78 }
  - { offset: 0x4DD42, size: 0x8, addend: 0x0, symName: __RNCNvNtCsdE2kXyKmOF1_11async_trait8receiver11contains_fn0B5_, symObjAddr: 0x98E8, symBinAddr: 0x40050, symSize: 0x20C }
  - { offset: 0x4DDB1, size: 0x8, addend: 0x0, symName: __RNvXNtCsdE2kXyKmOF1_11async_trait8receiverNtB2_9HasMutPatNtNtNtCs6IAuOt8vWmF_3syn3gen9visit_mut8VisitMut19visit_pat_ident_mut, symObjAddr: 0x9AF4, symBinAddr: 0x4025C, symSize: 0xA8 }
  - { offset: 0x4DE0A, size: 0x8, addend: 0x0, symName: __RNvXs_NtCsdE2kXyKmOF1_11async_trait8receiverNtB4_7HasSelfNtNtNtCs6IAuOt8vWmF_3syn3gen9visit_mut8VisitMut19visit_expr_path_mut, symObjAddr: 0x9B9C, symBinAddr: 0x40304, symSize: 0x7C }
  - { offset: 0x4DE40, size: 0x8, addend: 0x0, symName: __RNvXs_NtCsdE2kXyKmOF1_11async_trait8receiverNtB4_7HasSelfNtNtNtCs6IAuOt8vWmF_3syn3gen9visit_mut8VisitMut19visit_type_path_mut, symObjAddr: 0x9C18, symBinAddr: 0x40380, symSize: 0x84 }
  - { offset: 0x4DE76, size: 0x8, addend: 0x0, symName: __RNvXs_NtCsdE2kXyKmOF1_11async_trait8receiverNtB4_7HasSelfNtNtNtCs6IAuOt8vWmF_3syn3gen9visit_mut8VisitMut18visit_receiver_mut, symObjAddr: 0x9C9C, symBinAddr: 0x40404, symSize: 0x30 }
  - { offset: 0x4DEAC, size: 0x8, addend: 0x0, symName: __RNvXs_NtCsdE2kXyKmOF1_11async_trait8receiverNtB4_7HasSelfNtNtNtCs6IAuOt8vWmF_3syn3gen9visit_mut8VisitMut14visit_item_mut, symObjAddr: 0x9CCC, symBinAddr: 0x40434, symSize: 0x24 }
  - { offset: 0x4DEDE, size: 0x8, addend: 0x0, symName: __RNvXs_NtCsdE2kXyKmOF1_11async_trait8receiverNtB4_7HasSelfNtNtNtCs6IAuOt8vWmF_3syn3gen9visit_mut8VisitMut15visit_macro_mut, symObjAddr: 0x9CF0, symBinAddr: 0x40458, symSize: 0xA4 }
  - { offset: 0x4DF15, size: 0x8, addend: 0x0, symName: __RNvNtCsdE2kXyKmOF1_11async_trait8receiver26prepend_underscore_to_self, symObjAddr: 0x9D94, symBinAddr: 0x404FC, symSize: 0xE8 }
  - { offset: 0x4DF83, size: 0x8, addend: 0x0, symName: __RNvNvMs0_NtCsdE2kXyKmOF1_11async_trait8receiverNtB7_11ReplaceSelf18visit_token_stream23visit_token_stream_impl, symObjAddr: 0x9FE8, symBinAddr: 0x40750, symSize: 0x430 }
  - { offset: 0x4E077, size: 0x8, addend: 0x0, symName: __RNvXs1_NtCsdE2kXyKmOF1_11async_trait8receiverNtB5_11ReplaceSelfNtNtNtCs6IAuOt8vWmF_3syn3gen9visit_mut8VisitMut15visit_ident_mut, symObjAddr: 0xA418, symBinAddr: 0x40B80, symSize: 0x40 }
  - { offset: 0x4E0AD, size: 0x8, addend: 0x0, symName: __RNvXs1_NtCsdE2kXyKmOF1_11async_trait8receiverNtB5_11ReplaceSelfNtNtNtCs6IAuOt8vWmF_3syn3gen9visit_mut8VisitMut14visit_path_mut, symObjAddr: 0xA458, symBinAddr: 0x40BC0, symSize: 0x130 }
  - { offset: 0x4E115, size: 0x8, addend: 0x0, symName: __RNvXs1_NtCsdE2kXyKmOF1_11async_trait8receiverNtB5_11ReplaceSelfNtNtNtCs6IAuOt8vWmF_3syn3gen9visit_mut8VisitMut14visit_item_mut, symObjAddr: 0xA588, symBinAddr: 0x40CF0, symSize: 0x134 }
  - { offset: 0x4E17D, size: 0x8, addend: 0x0, symName: __RNvXs1_NtCsdE2kXyKmOF1_11async_trait8receiverNtB5_11ReplaceSelfNtNtNtCs6IAuOt8vWmF_3syn3gen9visit_mut8VisitMut15visit_macro_mut, symObjAddr: 0xA6BC, symBinAddr: 0x40E24, symSize: 0x84 }
  - { offset: 0x4E1E0, size: 0x8, addend: 0x0, symName: __RINvMNtCsfvfooZQ3Axs_4core6optionINtB3_6OptionNtNtCs6IAuOt8vWmF_3syn8generics11WhereClauseE18get_or_insert_withNCNvNtCsdE2kXyKmOF1_11async_trait6expand23where_clause_or_default0EB1R_, symObjAddr: 0xCA8, symBinAddr: 0x37410, symSize: 0x138 }
  - { offset: 0x4E2A0, size: 0x8, addend: 0x0, symName: __RINvMNtCsfvfooZQ3Axs_4core6optionINtB3_6OptionQINtNtCse1nGBsou5OW_5alloc5boxed3BoxNtNtCs6IAuOt8vWmF_3syn2ty4TypeEE3mapQB1i_NvYBJ_INtNtB5_7convert5AsMutB1i_E6as_mutECsdE2kXyKmOF1_11async_trait, symObjAddr: 0xDE0, symBinAddr: 0x37548, symSize: 0x50 }
  - { offset: 0x4E330, size: 0x8, addend: 0x0, symName: __RINvMNtCsfvfooZQ3Axs_4core6optionINtB3_6OptionQINtNtCse1nGBsou5OW_5alloc5boxed3BoxNtNtCs6IAuOt8vWmF_3syn2ty9BareFnArgEE3mapQB1i_NvYBJ_INtNtB5_7convert5AsMutB1i_E6as_mutECsdE2kXyKmOF1_11async_trait, symObjAddr: 0xE30, symBinAddr: 0x37598, symSize: 0x50 }
  - { offset: 0x4E3C0, size: 0x8, addend: 0x0, symName: __RINvMNtCsfvfooZQ3Axs_4core6optionINtB3_6OptionQINtNtCse1nGBsou5OW_5alloc5boxed3BoxNtNtCs6IAuOt8vWmF_3syn3pat3PatEE3mapQB1i_NvYBJ_INtNtB5_7convert5AsMutB1i_E6as_mutECsdE2kXyKmOF1_11async_trait, symObjAddr: 0xE80, symBinAddr: 0x375E8, symSize: 0x50 }
  - { offset: 0x4E450, size: 0x8, addend: 0x0, symName: __RINvMNtCsfvfooZQ3Axs_4core6optionINtB3_6OptionQINtNtCse1nGBsou5OW_5alloc5boxed3BoxNtNtCs6IAuOt8vWmF_3syn3pat8FieldPatEE3mapQB1i_NvYBJ_INtNtB5_7convert5AsMutB1i_E6as_mutECsdE2kXyKmOF1_11async_trait, symObjAddr: 0xED0, symBinAddr: 0x37638, symSize: 0x50 }
  - { offset: 0x4E4E0, size: 0x8, addend: 0x0, symName: __RINvMNtCsfvfooZQ3Axs_4core6optionINtB3_6OptionQINtNtCse1nGBsou5OW_5alloc5boxed3BoxNtNtCs6IAuOt8vWmF_3syn4data7VariantEE3mapQB1i_NvYBJ_INtNtB5_7convert5AsMutB1i_E6as_mutECsdE2kXyKmOF1_11async_trait, symObjAddr: 0xF20, symBinAddr: 0x37688, symSize: 0x50 }
  - { offset: 0x4E570, size: 0x8, addend: 0x0, symName: __RINvMNtCsfvfooZQ3Axs_4core6optionINtB3_6OptionQINtNtCse1nGBsou5OW_5alloc5boxed3BoxNtNtCs6IAuOt8vWmF_3syn4expr10FieldValueEE3mapQB1i_NvYBJ_INtNtB5_7convert5AsMutB1i_E6as_mutECsdE2kXyKmOF1_11async_trait, symObjAddr: 0xF70, symBinAddr: 0x376D8, symSize: 0x50 }
  - { offset: 0x4E600, size: 0x8, addend: 0x0, symName: __RINvMNtCsfvfooZQ3Axs_4core6optionINtB3_6OptionQINtNtCse1nGBsou5OW_5alloc5boxed3BoxNtNtCs6IAuOt8vWmF_3syn4expr4ExprEE3mapQB1i_NvYBJ_INtNtB5_7convert5AsMutB1i_E6as_mutECsdE2kXyKmOF1_11async_trait, symObjAddr: 0xFC0, symBinAddr: 0x37728, symSize: 0x50 }
  - { offset: 0x4E690, size: 0x8, addend: 0x0, symName: __RINvMNtCsfvfooZQ3Axs_4core6optionINtB3_6OptionQINtNtCse1nGBsou5OW_5alloc5boxed3BoxNtNtCs6IAuOt8vWmF_3syn4item5FnArgEE3mapQB1i_NvYBJ_INtNtB5_7convert5AsMutB1i_E6as_mutECsdE2kXyKmOF1_11async_trait, symObjAddr: 0x1010, symBinAddr: 0x37778, symSize: 0x50 }
  - { offset: 0x4E720, size: 0x8, addend: 0x0, symName: __RINvMNtCsfvfooZQ3Axs_4core6optionINtB3_6OptionQINtNtCse1nGBsou5OW_5alloc5boxed3BoxNtNtCs6IAuOt8vWmF_3syn4item7UseTreeEE3mapQB1i_NvYBJ_INtNtB5_7convert5AsMutB1i_E6as_mutECsdE2kXyKmOF1_11async_trait, symObjAddr: 0x1060, symBinAddr: 0x377C8, symSize: 0x50 }
  - { offset: 0x4E7B0, size: 0x8, addend: 0x0, symName: __RINvMNtCsfvfooZQ3Axs_4core6optionINtB3_6OptionQINtNtCse1nGBsou5OW_5alloc5boxed3BoxNtNtCs6IAuOt8vWmF_3syn4path15GenericArgumentEE3mapQB1i_NvYBJ_INtNtB5_7convert5AsMutB1i_E6as_mutECsdE2kXyKmOF1_11async_trait, symObjAddr: 0x10B0, symBinAddr: 0x37818, symSize: 0x50 }
  - { offset: 0x4E840, size: 0x8, addend: 0x0, symName: __RINvMNtCsfvfooZQ3Axs_4core6optionINtB3_6OptionQINtNtCse1nGBsou5OW_5alloc5boxed3BoxNtNtCs6IAuOt8vWmF_3syn8generics13CapturedParamEE3mapQB1i_NvYBJ_INtNtB5_7convert5AsMutB1i_E6as_mutECsdE2kXyKmOF1_11async_trait, symObjAddr: 0x1100, symBinAddr: 0x37868, symSize: 0x50 }
  - { offset: 0x4E8D0, size: 0x8, addend: 0x0, symName: __RINvMNtCsfvfooZQ3Axs_4core6optionINtB3_6OptionQINtNtCse1nGBsou5OW_5alloc5boxed3BoxNtNtCs6IAuOt8vWmF_3syn8generics14TypeParamBoundEE3mapQB1i_NvYBJ_INtNtB5_7convert5AsMutB1i_E6as_mutECsdE2kXyKmOF1_11async_trait, symObjAddr: 0x1150, symBinAddr: 0x378B8, symSize: 0x50 }
  - { offset: 0x4E960, size: 0x8, addend: 0x0, symName: __RINvMNtCsfvfooZQ3Axs_4core6optionINtB3_6OptionQINtNtCse1nGBsou5OW_5alloc5boxed3BoxNtNtCs6IAuOt8vWmF_3syn8generics14WherePredicateEE3mapQB1i_NvYBJ_INtNtB5_7convert5AsMutB1i_E6as_mutECsdE2kXyKmOF1_11async_trait, symObjAddr: 0x11A0, symBinAddr: 0x37908, symSize: 0x50 }
  - { offset: 0x4E9F0, size: 0x8, addend: 0x0, symName: __RINvMNtCsfvfooZQ3Axs_4core6optionINtB3_6OptionQINtNtCse1nGBsou5OW_5alloc5boxed3BoxNtNtCs6IAuOt8vWmF_3syn8lifetime8LifetimeEE3mapQB1i_NvYBJ_INtNtB5_7convert5AsMutB1i_E6as_mutECsdE2kXyKmOF1_11async_trait, symObjAddr: 0x11F0, symBinAddr: 0x37958, symSize: 0x50 }
  - { offset: 0x4EA73, size: 0x8, addend: 0x0, symName: __RINvMNtCsfvfooZQ3Axs_4core6optionINtB3_6OptionQNtNtCs6IAuOt8vWmF_3syn2ty4TypeE3mapINtNtBN_10punctuated4PairBI_QNtNtBN_5token5CommaENcNtB1i_3End0ECsdE2kXyKmOF1_11async_trait, symObjAddr: 0x1240, symBinAddr: 0x379A8, symSize: 0x68 }
  - { offset: 0x4EAF6, size: 0x8, addend: 0x0, symName: __RINvMNtCsfvfooZQ3Axs_4core6optionINtB3_6OptionQNtNtCs6IAuOt8vWmF_3syn2ty9BareFnArgE3mapINtNtBN_10punctuated4PairBI_QNtNtBN_5token5CommaENcNtB1n_3End0ECsdE2kXyKmOF1_11async_trait, symObjAddr: 0x12A8, symBinAddr: 0x37A10, symSize: 0x68 }
  - { offset: 0x4EB79, size: 0x8, addend: 0x0, symName: __RINvMNtCsfvfooZQ3Axs_4core6optionINtB3_6OptionQNtNtCs6IAuOt8vWmF_3syn3pat3PatE3mapINtNtBN_10punctuated4PairBI_QNtNtBN_5token2OrENcNtB1i_3End0ECsdE2kXyKmOF1_11async_trait, symObjAddr: 0x1310, symBinAddr: 0x37A78, symSize: 0x68 }
  - { offset: 0x4EBFC, size: 0x8, addend: 0x0, symName: __RINvMNtCsfvfooZQ3Axs_4core6optionINtB3_6OptionQNtNtCs6IAuOt8vWmF_3syn3pat3PatE3mapINtNtBN_10punctuated4PairBI_QNtNtBN_5token5CommaENcNtB1i_3End0ECsdE2kXyKmOF1_11async_trait, symObjAddr: 0x1378, symBinAddr: 0x37AE0, symSize: 0x68 }
  - { offset: 0x4EC7F, size: 0x8, addend: 0x0, symName: __RINvMNtCsfvfooZQ3Axs_4core6optionINtB3_6OptionQNtNtCs6IAuOt8vWmF_3syn3pat8FieldPatE3mapINtNtBN_10punctuated4PairBI_QNtNtBN_5token5CommaENcNtB1n_3End0ECsdE2kXyKmOF1_11async_trait, symObjAddr: 0x13E0, symBinAddr: 0x37B48, symSize: 0x68 }
  - { offset: 0x4ED02, size: 0x8, addend: 0x0, symName: __RINvMNtCsfvfooZQ3Axs_4core6optionINtB3_6OptionQNtNtCs6IAuOt8vWmF_3syn4data5FieldE3mapINtNtBN_10punctuated4PairBI_QNtNtBN_5token5CommaENcNtB1l_3End0ECsdE2kXyKmOF1_11async_trait, symObjAddr: 0x1448, symBinAddr: 0x37BB0, symSize: 0x68 }
  - { offset: 0x4ED85, size: 0x8, addend: 0x0, symName: __RINvMNtCsfvfooZQ3Axs_4core6optionINtB3_6OptionQNtNtCs6IAuOt8vWmF_3syn4data7VariantE3mapINtNtBN_10punctuated4PairBI_QNtNtBN_5token5CommaENcNtB1n_3End0ECsdE2kXyKmOF1_11async_trait, symObjAddr: 0x14B0, symBinAddr: 0x37C18, symSize: 0x68 }
  - { offset: 0x4EE08, size: 0x8, addend: 0x0, symName: __RINvMNtCsfvfooZQ3Axs_4core6optionINtB3_6OptionQNtNtCs6IAuOt8vWmF_3syn4expr10FieldValueE3mapINtNtBN_10punctuated4PairBI_QNtNtBN_5token5CommaENcNtB1r_3End0ECsdE2kXyKmOF1_11async_trait, symObjAddr: 0x1518, symBinAddr: 0x37C80, symSize: 0x68 }
  - { offset: 0x4EE8B, size: 0x8, addend: 0x0, symName: __RINvMNtCsfvfooZQ3Axs_4core6optionINtB3_6OptionQNtNtCs6IAuOt8vWmF_3syn4expr4ExprE3mapINtNtBN_10punctuated4PairBI_QNtNtBN_5token5CommaENcNtB1k_3End0ECsdE2kXyKmOF1_11async_trait, symObjAddr: 0x1580, symBinAddr: 0x37CE8, symSize: 0x68 }
  - { offset: 0x4EF0E, size: 0x8, addend: 0x0, symName: __RINvMNtCsfvfooZQ3Axs_4core6optionINtB3_6OptionQNtNtCs6IAuOt8vWmF_3syn4item5FnArgE3mapINtNtBN_10punctuated4PairBI_QNtNtBN_5token5CommaENcNtB1l_3End0ECsdE2kXyKmOF1_11async_trait, symObjAddr: 0x15E8, symBinAddr: 0x37D50, symSize: 0x68 }
  - { offset: 0x4EF79, size: 0x8, addend: 0x0, symName: __RINvMNtCsfvfooZQ3Axs_4core6optionINtB3_6OptionQNtNtCs6IAuOt8vWmF_3syn4item5FnArgE7or_elseNCNvXsF_NtBN_10punctuatedINtB1x_14PrivateIterMutBJ_NtNtBN_5token5CommaENtNtNtNtB5_4iter6traits8iterator8Iterator4nexts_0ECsdE2kXyKmOF1_11async_trait, symObjAddr: 0x1650, symBinAddr: 0x37DB8, symSize: 0xA8 }
  - { offset: 0x4F00F, size: 0x8, addend: 0x0, symName: __RINvMNtCsfvfooZQ3Axs_4core6optionINtB3_6OptionQNtNtCs6IAuOt8vWmF_3syn4item5FnArgE7or_elseNCNvXsG_NtBN_10punctuatedINtB1x_14PrivateIterMutBJ_NtNtBN_5token5CommaENtNtNtNtB5_4iter6traits12double_ended19DoubleEndedIterator9next_back0ECsdE2kXyKmOF1_11async_trait, symObjAddr: 0x16F8, symBinAddr: 0x37E60, symSize: 0xA8 }
  - { offset: 0x4F089, size: 0x8, addend: 0x0, symName: __RINvMNtCsfvfooZQ3Axs_4core6optionINtB3_6OptionQNtNtCs6IAuOt8vWmF_3syn4item7UseTreeE3mapINtNtBN_10punctuated4PairBI_QNtNtBN_5token5CommaENcNtB1n_3End0ECsdE2kXyKmOF1_11async_trait, symObjAddr: 0x17A0, symBinAddr: 0x37F08, symSize: 0x68 }
  - { offset: 0x4F10C, size: 0x8, addend: 0x0, symName: __RINvMNtCsfvfooZQ3Axs_4core6optionINtB3_6OptionQNtNtCs6IAuOt8vWmF_3syn4path11PathSegmentE3mapINtNtBN_10punctuated4PairBI_QNtNtBN_5token7PathSepENcNtB1s_3End0ECsdE2kXyKmOF1_11async_trait, symObjAddr: 0x1808, symBinAddr: 0x37F70, symSize: 0x68 }
  - { offset: 0x4F18F, size: 0x8, addend: 0x0, symName: __RINvMNtCsfvfooZQ3Axs_4core6optionINtB3_6OptionQNtNtCs6IAuOt8vWmF_3syn4path15GenericArgumentE3mapINtNtBN_10punctuated4PairBI_QNtNtBN_5token5CommaENcNtB1w_3End0ECsdE2kXyKmOF1_11async_trait, symObjAddr: 0x1870, symBinAddr: 0x37FD8, symSize: 0x68 }
  - { offset: 0x4F212, size: 0x8, addend: 0x0, symName: __RINvMNtCsfvfooZQ3Axs_4core6optionINtB3_6OptionQNtNtCs6IAuOt8vWmF_3syn8generics12GenericParamE3mapINtNtBN_10punctuated4PairBI_QNtNtBN_5token5CommaENcNtB1x_3End0ECsdE2kXyKmOF1_11async_trait, symObjAddr: 0x18D8, symBinAddr: 0x38040, symSize: 0x68 }
  - { offset: 0x4F295, size: 0x8, addend: 0x0, symName: __RINvMNtCsfvfooZQ3Axs_4core6optionINtB3_6OptionQNtNtCs6IAuOt8vWmF_3syn8generics13CapturedParamE3mapINtNtBN_10punctuated4PairBI_QNtNtBN_5token5CommaENcNtB1y_3End0ECsdE2kXyKmOF1_11async_trait, symObjAddr: 0x1940, symBinAddr: 0x380A8, symSize: 0x68 }
  - { offset: 0x4F318, size: 0x8, addend: 0x0, symName: __RINvMNtCsfvfooZQ3Axs_4core6optionINtB3_6OptionQNtNtCs6IAuOt8vWmF_3syn8generics14TypeParamBoundE3mapINtNtBN_10punctuated4PairBI_QNtNtBN_5token4PlusENcNtB1z_3End0ECsdE2kXyKmOF1_11async_trait, symObjAddr: 0x19A8, symBinAddr: 0x38110, symSize: 0x68 }
  - { offset: 0x4F39B, size: 0x8, addend: 0x0, symName: __RINvMNtCsfvfooZQ3Axs_4core6optionINtB3_6OptionQNtNtCs6IAuOt8vWmF_3syn8generics14WherePredicateE3mapINtNtBN_10punctuated4PairBI_QNtNtBN_5token5CommaENcNtB1z_3End0ECsdE2kXyKmOF1_11async_trait, symObjAddr: 0x1A10, symBinAddr: 0x38178, symSize: 0x68 }
  - { offset: 0x4F41E, size: 0x8, addend: 0x0, symName: __RINvMNtCsfvfooZQ3Axs_4core6optionINtB3_6OptionQNtNtCs6IAuOt8vWmF_3syn8lifetime8LifetimeE3mapINtNtBN_10punctuated4PairBI_QNtNtBN_5token4PlusENcNtB1s_3End0ECsdE2kXyKmOF1_11async_trait, symObjAddr: 0x1A78, symBinAddr: 0x381E0, symSize: 0x68 }
  - { offset: 0x4F496, size: 0x8, addend: 0x0, symName: __RINvMNtCsfvfooZQ3Axs_4core6optionINtB3_6OptionQTNtNtCs6IAuOt8vWmF_3syn2ty4TypeNtNtBO_5token5CommaEE3mapINtNtBO_10punctuated4PairQBK_QB1e_ENCNvXsg_B1G_INtB1G_8PairsMutBK_B1e_ENtNtNtNtB5_4iter6traits8iterator8Iterator4next0ECsdE2kXyKmOF1_11async_trait, symObjAddr: 0x1AE0, symBinAddr: 0x38248, symSize: 0x68 }
  - { offset: 0x4F50E, size: 0x8, addend: 0x0, symName: __RINvMNtCsfvfooZQ3Axs_4core6optionINtB3_6OptionQTNtNtCs6IAuOt8vWmF_3syn2ty9BareFnArgNtNtBO_5token5CommaEE3mapINtNtBO_10punctuated4PairQBK_QB1j_ENCNvXsg_B1L_INtB1L_8PairsMutBK_B1j_ENtNtNtNtB5_4iter6traits8iterator8Iterator4next0ECsdE2kXyKmOF1_11async_trait, symObjAddr: 0x1B48, symBinAddr: 0x382B0, symSize: 0x68 }
  - { offset: 0x4F586, size: 0x8, addend: 0x0, symName: __RINvMNtCsfvfooZQ3Axs_4core6optionINtB3_6OptionQTNtNtCs6IAuOt8vWmF_3syn3pat3PatNtNtBO_5token2OrEE3mapINtNtBO_10punctuated4PairQBK_QB1e_ENCNvXsg_B1D_INtB1D_8PairsMutBK_B1e_ENtNtNtNtB5_4iter6traits8iterator8Iterator4next0ECsdE2kXyKmOF1_11async_trait, symObjAddr: 0x1BB0, symBinAddr: 0x38318, symSize: 0x68 }
  - { offset: 0x4F5FE, size: 0x8, addend: 0x0, symName: __RINvMNtCsfvfooZQ3Axs_4core6optionINtB3_6OptionQTNtNtCs6IAuOt8vWmF_3syn3pat3PatNtNtBO_5token5CommaEE3mapINtNtBO_10punctuated4PairQBK_QB1e_ENCNvXsg_B1G_INtB1G_8PairsMutBK_B1e_ENtNtNtNtB5_4iter6traits8iterator8Iterator4next0ECsdE2kXyKmOF1_11async_trait, symObjAddr: 0x1C18, symBinAddr: 0x38380, symSize: 0x68 }
  - { offset: 0x4F676, size: 0x8, addend: 0x0, symName: __RINvMNtCsfvfooZQ3Axs_4core6optionINtB3_6OptionQTNtNtCs6IAuOt8vWmF_3syn3pat8FieldPatNtNtBO_5token5CommaEE3mapINtNtBO_10punctuated4PairQBK_QB1j_ENCNvXsg_B1L_INtB1L_8PairsMutBK_B1j_ENtNtNtNtB5_4iter6traits8iterator8Iterator4next0ECsdE2kXyKmOF1_11async_trait, symObjAddr: 0x1C80, symBinAddr: 0x383E8, symSize: 0x68 }
  - { offset: 0x4F6EE, size: 0x8, addend: 0x0, symName: __RINvMNtCsfvfooZQ3Axs_4core6optionINtB3_6OptionQTNtNtCs6IAuOt8vWmF_3syn4data5FieldNtNtBO_5token5CommaEE3mapINtNtBO_10punctuated4PairQBK_QB1h_ENCNvXsg_B1J_INtB1J_8PairsMutBK_B1h_ENtNtNtNtB5_4iter6traits8iterator8Iterator4next0ECsdE2kXyKmOF1_11async_trait, symObjAddr: 0x1CE8, symBinAddr: 0x38450, symSize: 0x68 }
  - { offset: 0x4F766, size: 0x8, addend: 0x0, symName: __RINvMNtCsfvfooZQ3Axs_4core6optionINtB3_6OptionQTNtNtCs6IAuOt8vWmF_3syn4data7VariantNtNtBO_5token5CommaEE3mapINtNtBO_10punctuated4PairQBK_QB1j_ENCNvXsg_B1L_INtB1L_8PairsMutBK_B1j_ENtNtNtNtB5_4iter6traits8iterator8Iterator4next0ECsdE2kXyKmOF1_11async_trait, symObjAddr: 0x1D50, symBinAddr: 0x384B8, symSize: 0x68 }
  - { offset: 0x4F7DE, size: 0x8, addend: 0x0, symName: __RINvMNtCsfvfooZQ3Axs_4core6optionINtB3_6OptionQTNtNtCs6IAuOt8vWmF_3syn4expr10FieldValueNtNtBO_5token5CommaEE3mapINtNtBO_10punctuated4PairQBK_QB1n_ENCNvXsg_B1P_INtB1P_8PairsMutBK_B1n_ENtNtNtNtB5_4iter6traits8iterator8Iterator4next0ECsdE2kXyKmOF1_11async_trait, symObjAddr: 0x1DB8, symBinAddr: 0x38520, symSize: 0x68 }
  - { offset: 0x4F856, size: 0x8, addend: 0x0, symName: __RINvMNtCsfvfooZQ3Axs_4core6optionINtB3_6OptionQTNtNtCs6IAuOt8vWmF_3syn4expr4ExprNtNtBO_5token5CommaEE3mapINtNtBO_10punctuated4PairQBK_QB1g_ENCNvXsg_B1I_INtB1I_8PairsMutBK_B1g_ENtNtNtNtB5_4iter6traits8iterator8Iterator4next0ECsdE2kXyKmOF1_11async_trait, symObjAddr: 0x1E20, symBinAddr: 0x38588, symSize: 0x68 }
  - { offset: 0x4F8C1, size: 0x8, addend: 0x0, symName: __RINvMNtCsfvfooZQ3Axs_4core6optionINtB3_6OptionQTNtNtCs6IAuOt8vWmF_3syn4item5FnArgNtNtBO_5token5CommaEE3mapINtNtBO_10punctuated4PairQBK_QB1h_ENCNvXsg_B1J_INtB1J_8PairsMutBK_B1h_ENtNtNtNtB5_4iter6traits8iterator8Iterator4next0ECsdE2kXyKmOF1_11async_trait, symObjAddr: 0x1E88, symBinAddr: 0x385F0, symSize: 0x68 }
  - { offset: 0x4F92C, size: 0x8, addend: 0x0, symName: __RINvMNtCsfvfooZQ3Axs_4core6optionINtB3_6OptionQTNtNtCs6IAuOt8vWmF_3syn4item5FnArgNtNtBO_5token5CommaEE3mapQBK_NCNCNvXsG_NtBO_10punctuatedINtB1U_14PrivateIterMutBK_B1h_ENtNtNtNtB5_4iter6traits12double_ended19DoubleEndedIterator9next_back00ECsdE2kXyKmOF1_11async_trait, symObjAddr: 0x1EF0, symBinAddr: 0x38658, symSize: 0x50 }
  - { offset: 0x4F997, size: 0x8, addend: 0x0, symName: __RINvMNtCsfvfooZQ3Axs_4core6optionINtB3_6OptionQTNtNtCs6IAuOt8vWmF_3syn4item5FnArgNtNtBO_5token5CommaEE3mapQBK_NCNvXsF_NtBO_10punctuatedINtB1S_14PrivateIterMutBK_B1h_ENtNtNtNtB5_4iter6traits8iterator8Iterator4next0ECsdE2kXyKmOF1_11async_trait, symObjAddr: 0x1F40, symBinAddr: 0x386A8, symSize: 0x50 }
  - { offset: 0x4FA0F, size: 0x8, addend: 0x0, symName: __RINvMNtCsfvfooZQ3Axs_4core6optionINtB3_6OptionQTNtNtCs6IAuOt8vWmF_3syn4item7UseTreeNtNtBO_5token5CommaEE3mapINtNtBO_10punctuated4PairQBK_QB1j_ENCNvXsg_B1L_INtB1L_8PairsMutBK_B1j_ENtNtNtNtB5_4iter6traits8iterator8Iterator4next0ECsdE2kXyKmOF1_11async_trait, symObjAddr: 0x1F90, symBinAddr: 0x386F8, symSize: 0x68 }
  - { offset: 0x4FA87, size: 0x8, addend: 0x0, symName: __RINvMNtCsfvfooZQ3Axs_4core6optionINtB3_6OptionQTNtNtCs6IAuOt8vWmF_3syn4path11PathSegmentNtNtBO_5token7PathSepEE3mapINtNtBO_10punctuated4PairQBK_QB1o_ENCNvXsg_B1S_INtB1S_8PairsMutBK_B1o_ENtNtNtNtB5_4iter6traits8iterator8Iterator4next0ECsdE2kXyKmOF1_11async_trait, symObjAddr: 0x1FF8, symBinAddr: 0x38760, symSize: 0x68 }
  - { offset: 0x4FAFF, size: 0x8, addend: 0x0, symName: __RINvMNtCsfvfooZQ3Axs_4core6optionINtB3_6OptionQTNtNtCs6IAuOt8vWmF_3syn4path15GenericArgumentNtNtBO_5token5CommaEE3mapINtNtBO_10punctuated4PairQBK_QB1s_ENCNvXsg_B1U_INtB1U_8PairsMutBK_B1s_ENtNtNtNtB5_4iter6traits8iterator8Iterator4next0ECsdE2kXyKmOF1_11async_trait, symObjAddr: 0x2060, symBinAddr: 0x387C8, symSize: 0x68 }
  - { offset: 0x4FB77, size: 0x8, addend: 0x0, symName: __RINvMNtCsfvfooZQ3Axs_4core6optionINtB3_6OptionQTNtNtCs6IAuOt8vWmF_3syn8generics12GenericParamNtNtBO_5token5CommaEE3mapINtNtBO_10punctuated4PairQBK_QB1t_ENCNvXsg_B1V_INtB1V_8PairsMutBK_B1t_ENtNtNtNtB5_4iter6traits8iterator8Iterator4next0ECsdE2kXyKmOF1_11async_trait, symObjAddr: 0x20C8, symBinAddr: 0x38830, symSize: 0x68 }
  - { offset: 0x4FBEF, size: 0x8, addend: 0x0, symName: __RINvMNtCsfvfooZQ3Axs_4core6optionINtB3_6OptionQTNtNtCs6IAuOt8vWmF_3syn8generics13CapturedParamNtNtBO_5token5CommaEE3mapINtNtBO_10punctuated4PairQBK_QB1u_ENCNvXsg_B1W_INtB1W_8PairsMutBK_B1u_ENtNtNtNtB5_4iter6traits8iterator8Iterator4next0ECsdE2kXyKmOF1_11async_trait, symObjAddr: 0x2130, symBinAddr: 0x38898, symSize: 0x68 }
  - { offset: 0x4FC67, size: 0x8, addend: 0x0, symName: __RINvMNtCsfvfooZQ3Axs_4core6optionINtB3_6OptionQTNtNtCs6IAuOt8vWmF_3syn8generics14TypeParamBoundNtNtBO_5token4PlusEE3mapINtNtBO_10punctuated4PairQBK_QB1v_ENCNvXsg_B1W_INtB1W_8PairsMutBK_B1v_ENtNtNtNtB5_4iter6traits8iterator8Iterator4next0ECsdE2kXyKmOF1_11async_trait, symObjAddr: 0x2198, symBinAddr: 0x38900, symSize: 0x68 }
  - { offset: 0x4FCDF, size: 0x8, addend: 0x0, symName: __RINvMNtCsfvfooZQ3Axs_4core6optionINtB3_6OptionQTNtNtCs6IAuOt8vWmF_3syn8generics14WherePredicateNtNtBO_5token5CommaEE3mapINtNtBO_10punctuated4PairQBK_QB1v_ENCNvXsg_B1X_INtB1X_8PairsMutBK_B1v_ENtNtNtNtB5_4iter6traits8iterator8Iterator4next0ECsdE2kXyKmOF1_11async_trait, symObjAddr: 0x2200, symBinAddr: 0x38968, symSize: 0x68 }
  - { offset: 0x4FD57, size: 0x8, addend: 0x0, symName: __RINvMNtCsfvfooZQ3Axs_4core6optionINtB3_6OptionQTNtNtCs6IAuOt8vWmF_3syn8lifetime8LifetimeNtNtBO_5token4PlusEE3mapINtNtBO_10punctuated4PairQBK_QB1o_ENCNvXsg_B1P_INtB1P_8PairsMutBK_B1o_ENtNtNtNtB5_4iter6traits8iterator8Iterator4next0ECsdE2kXyKmOF1_11async_trait, symObjAddr: 0x2268, symBinAddr: 0x389D0, symSize: 0x68 }
  - { offset: 0x4FDCF, size: 0x8, addend: 0x0, symName: __RNvMNtCsfvfooZQ3Axs_4core6optionINtB2_6OptionINtNtCse1nGBsou5OW_5alloc5boxed3BoxNtNtCs6IAuOt8vWmF_3syn2ty4TypeEE6as_mutCsdE2kXyKmOF1_11async_trait, symObjAddr: 0x22D0, symBinAddr: 0x38A38, symSize: 0x4C }
  - { offset: 0x4FE26, size: 0x8, addend: 0x0, symName: __RNvMNtCsfvfooZQ3Axs_4core6optionINtB2_6OptionINtNtCse1nGBsou5OW_5alloc5boxed3BoxNtNtCs6IAuOt8vWmF_3syn2ty9BareFnArgEE6as_mutCsdE2kXyKmOF1_11async_trait, symObjAddr: 0x231C, symBinAddr: 0x38A84, symSize: 0x4C }
  - { offset: 0x4FE7D, size: 0x8, addend: 0x0, symName: __RNvMNtCsfvfooZQ3Axs_4core6optionINtB2_6OptionINtNtCse1nGBsou5OW_5alloc5boxed3BoxNtNtCs6IAuOt8vWmF_3syn3pat3PatEE6as_mutCsdE2kXyKmOF1_11async_trait, symObjAddr: 0x2368, symBinAddr: 0x38AD0, symSize: 0x4C }
  - { offset: 0x4FED4, size: 0x8, addend: 0x0, symName: __RNvMNtCsfvfooZQ3Axs_4core6optionINtB2_6OptionINtNtCse1nGBsou5OW_5alloc5boxed3BoxNtNtCs6IAuOt8vWmF_3syn3pat8FieldPatEE6as_mutCsdE2kXyKmOF1_11async_trait, symObjAddr: 0x23B4, symBinAddr: 0x38B1C, symSize: 0x4C }
  - { offset: 0x4FF2B, size: 0x8, addend: 0x0, symName: __RNvMNtCsfvfooZQ3Axs_4core6optionINtB2_6OptionINtNtCse1nGBsou5OW_5alloc5boxed3BoxNtNtCs6IAuOt8vWmF_3syn4data7VariantEE6as_mutCsdE2kXyKmOF1_11async_trait, symObjAddr: 0x2400, symBinAddr: 0x38B68, symSize: 0x4C }
  - { offset: 0x4FF82, size: 0x8, addend: 0x0, symName: __RNvMNtCsfvfooZQ3Axs_4core6optionINtB2_6OptionINtNtCse1nGBsou5OW_5alloc5boxed3BoxNtNtCs6IAuOt8vWmF_3syn4expr10FieldValueEE6as_mutCsdE2kXyKmOF1_11async_trait, symObjAddr: 0x244C, symBinAddr: 0x38BB4, symSize: 0x4C }
  - { offset: 0x4FFD9, size: 0x8, addend: 0x0, symName: __RNvMNtCsfvfooZQ3Axs_4core6optionINtB2_6OptionINtNtCse1nGBsou5OW_5alloc5boxed3BoxNtNtCs6IAuOt8vWmF_3syn4expr4ExprEE6as_mutCsdE2kXyKmOF1_11async_trait, symObjAddr: 0x2498, symBinAddr: 0x38C00, symSize: 0x4C }
  - { offset: 0x50030, size: 0x8, addend: 0x0, symName: __RNvMNtCsfvfooZQ3Axs_4core6optionINtB2_6OptionINtNtCse1nGBsou5OW_5alloc5boxed3BoxNtNtCs6IAuOt8vWmF_3syn4item5FnArgEE6as_mutCsdE2kXyKmOF1_11async_trait, symObjAddr: 0x24E4, symBinAddr: 0x38C4C, symSize: 0x4C }
  - { offset: 0x50087, size: 0x8, addend: 0x0, symName: __RNvMNtCsfvfooZQ3Axs_4core6optionINtB2_6OptionINtNtCse1nGBsou5OW_5alloc5boxed3BoxNtNtCs6IAuOt8vWmF_3syn4item7UseTreeEE6as_mutCsdE2kXyKmOF1_11async_trait, symObjAddr: 0x2530, symBinAddr: 0x38C98, symSize: 0x4C }
  - { offset: 0x500DE, size: 0x8, addend: 0x0, symName: __RNvMNtCsfvfooZQ3Axs_4core6optionINtB2_6OptionINtNtCse1nGBsou5OW_5alloc5boxed3BoxNtNtCs6IAuOt8vWmF_3syn4path15GenericArgumentEE6as_mutCsdE2kXyKmOF1_11async_trait, symObjAddr: 0x257C, symBinAddr: 0x38CE4, symSize: 0x4C }
  - { offset: 0x50135, size: 0x8, addend: 0x0, symName: __RNvMNtCsfvfooZQ3Axs_4core6optionINtB2_6OptionINtNtCse1nGBsou5OW_5alloc5boxed3BoxNtNtCs6IAuOt8vWmF_3syn8generics13CapturedParamEE6as_mutCsdE2kXyKmOF1_11async_trait, symObjAddr: 0x25C8, symBinAddr: 0x38D30, symSize: 0x4C }
  - { offset: 0x5018C, size: 0x8, addend: 0x0, symName: __RNvMNtCsfvfooZQ3Axs_4core6optionINtB2_6OptionINtNtCse1nGBsou5OW_5alloc5boxed3BoxNtNtCs6IAuOt8vWmF_3syn8generics14TypeParamBoundEE6as_mutCsdE2kXyKmOF1_11async_trait, symObjAddr: 0x2614, symBinAddr: 0x38D7C, symSize: 0x4C }
  - { offset: 0x501E3, size: 0x8, addend: 0x0, symName: __RNvMNtCsfvfooZQ3Axs_4core6optionINtB2_6OptionINtNtCse1nGBsou5OW_5alloc5boxed3BoxNtNtCs6IAuOt8vWmF_3syn8generics14WherePredicateEE6as_mutCsdE2kXyKmOF1_11async_trait, symObjAddr: 0x2660, symBinAddr: 0x38DC8, symSize: 0x4C }
  - { offset: 0x5023A, size: 0x8, addend: 0x0, symName: __RNvMNtCsfvfooZQ3Axs_4core6optionINtB2_6OptionINtNtCse1nGBsou5OW_5alloc5boxed3BoxNtNtCs6IAuOt8vWmF_3syn8lifetime8LifetimeEE6as_mutCsdE2kXyKmOF1_11async_trait, symObjAddr: 0x26AC, symBinAddr: 0x38E14, symSize: 0x4C }
  - { offset: 0x50291, size: 0x8, addend: 0x0, symName: __RNvMNtCsfvfooZQ3Axs_4core6optionINtB2_6OptionNtNtCs6IAuOt8vWmF_3syn4stmt5BlockE7is_someCsdE2kXyKmOF1_11async_trait, symObjAddr: 0x26F8, symBinAddr: 0x38E60, symSize: 0x2C }
  - { offset: 0x502E6, size: 0x8, addend: 0x0, symName: __RNvMNtCsfvfooZQ3Axs_4core6optionINtB2_6OptionNtNtCs6IAuOt8vWmF_3syn5token2GtE7is_noneCsdE2kXyKmOF1_11async_trait, symObjAddr: 0x2724, symBinAddr: 0x38E8C, symSize: 0x20 }
  - { offset: 0x5033D, size: 0x8, addend: 0x0, symName: __RNvMNtCsfvfooZQ3Axs_4core6optionINtB2_6OptionNtNtCs6IAuOt8vWmF_3syn5token5AsyncE4takeCsdE2kXyKmOF1_11async_trait, symObjAddr: 0x2744, symBinAddr: 0x38EAC, symSize: 0x34 }
  - { offset: 0x503D0, size: 0x8, addend: 0x0, symName: __RNvMNtCsfvfooZQ3Axs_4core6optionINtB2_6OptionNtNtCs6IAuOt8vWmF_3syn5token5AsyncE7is_someCsdE2kXyKmOF1_11async_trait, symObjAddr: 0x2778, symBinAddr: 0x38EE0, symSize: 0x20 }
  - { offset: 0x50409, size: 0x8, addend: 0x0, symName: __RNvMNtCsfvfooZQ3Axs_4core6optionINtB2_6OptionNtNtCs6IAuOt8vWmF_3syn5token5ColonE4takeCsdE2kXyKmOF1_11async_trait, symObjAddr: 0x2798, symBinAddr: 0x38F00, symSize: 0x2C }
  - { offset: 0x504B8, size: 0x8, addend: 0x0, symName: __RNvMNtCsfvfooZQ3Axs_4core6optionINtB2_6OptionTNtNtCs6IAuOt8vWmF_3syn5token3AndIBv_NtNtBM_8lifetime8LifetimeEEE7is_noneCsdE2kXyKmOF1_11async_trait, symObjAddr: 0x27C4, symBinAddr: 0x38F2C, symSize: 0x28 }
  - { offset: 0x50511, size: 0x8, addend: 0x0, symName: __RNvXNtCs2cqEZUIJimJ_5quote9to_tokensRINtNtCsfvfooZQ3Axs_4core6option6OptionNtNtCs6IAuOt8vWmF_3syn5token3MutENtB2_8ToTokens9to_tokensCsdE2kXyKmOF1_11async_trait, symObjAddr: 0x27EC, symBinAddr: 0x38F54, symSize: 0x40 }
  - { offset: 0x507A3, size: 0x8, addend: 0x0, symName: __RNvMs0_NtCsdE2kXyKmOF1_11async_trait8receiverNtB5_11ReplaceSelf18visit_token_stream, symObjAddr: 0x9E7C, symBinAddr: 0x405E4, symSize: 0x16C }
  - { offset: 0x511A5, size: 0x8, addend: 0x0, symName: __RNvXs1_NtNtNtCsfvfooZQ3Axs_4core3ops8function5implsQNCNCNvNtCsdE2kXyKmOF1_11async_trait6expand15transform_block00INtB7_5FnMutTRRNtNtCs6IAuOt8vWmF_3syn4attr9AttributeEE8call_mutBW_, symObjAddr: 0x0, symBinAddr: 0x40EA8, symSize: 0x30 }
  - { offset: 0x51BC0, size: 0x8, addend: 0x0, symName: __RNCNvMs_NtCsdE2kXyKmOF1_11async_trait6expandNtB6_7Context9lifetimes0B8_, symObjAddr: 0x56A8, symBinAddr: 0x46550, symSize: 0xCC }
  - { offset: 0x51C13, size: 0x8, addend: 0x0, symName: __RNvNtCsdE2kXyKmOF1_11async_trait6expand6expand, symObjAddr: 0x5774, symBinAddr: 0x4661C, symSize: 0x9E4 }
  - { offset: 0x51F2D, size: 0x8, addend: 0x0, symName: __RNvNtCsdE2kXyKmOF1_11async_trait6expand23lint_suppress_with_body, symObjAddr: 0x6158, symBinAddr: 0x47000, symSize: 0x444 }
  - { offset: 0x51F8B, size: 0x8, addend: 0x0, symName: __RNvNtCsdE2kXyKmOF1_11async_trait6expand26lint_suppress_without_body, symObjAddr: 0x659C, symBinAddr: 0x47444, symSize: 0x214 }
  - { offset: 0x51FE9, size: 0x8, addend: 0x0, symName: __RNvNtCsdE2kXyKmOF1_11async_trait6expand13transform_sig, symObjAddr: 0x67B0, symBinAddr: 0x47658, symSize: 0x220C }
  - { offset: 0x52716, size: 0x8, addend: 0x0, symName: __RNCNvNtCsdE2kXyKmOF1_11async_trait6expand13transform_sig0B5_, symObjAddr: 0x89BC, symBinAddr: 0x49864, symSize: 0xD8 }
  - { offset: 0x5279D, size: 0x8, addend: 0x0, symName: __RNvNtCsdE2kXyKmOF1_11async_trait6expand15transform_block, symObjAddr: 0x8A94, symBinAddr: 0x4993C, symSize: 0xF20 }
  - { offset: 0x52C57, size: 0x8, addend: 0x0, symName: __RNCNvNtCsdE2kXyKmOF1_11async_trait6expand15transform_block0B5_, symObjAddr: 0x99B4, symBinAddr: 0x4A85C, symSize: 0x7C0 }
  - { offset: 0x52F97, size: 0x8, addend: 0x0, symName: __RNCNCNvNtCsdE2kXyKmOF1_11async_trait6expand15transform_block00B7_, symObjAddr: 0xA174, symBinAddr: 0x4B01C, symSize: 0x50 }
  - { offset: 0x52FEC, size: 0x8, addend: 0x0, symName: __RNvNtCsdE2kXyKmOF1_11async_trait6expand14positional_arg, symObjAddr: 0xA1C4, symBinAddr: 0x4B06C, symSize: 0x138 }
  - { offset: 0x5307D, size: 0x8, addend: 0x0, symName: __RNvNtCsdE2kXyKmOF1_11async_trait6expand35contains_associated_type_impl_trait, symObjAddr: 0xA2FC, symBinAddr: 0x4B1A4, symSize: 0x94 }
  - { offset: 0x530F1, size: 0x8, addend: 0x0, symName: __RNvXNvNtCsdE2kXyKmOF1_11async_trait6expand35contains_associated_type_impl_traitNtB2_24AssociatedTypeImplTraitsNtNtNtCs6IAuOt8vWmF_3syn3gen9visit_mut8VisitMut19visit_type_path_mut, symObjAddr: 0xA390, symBinAddr: 0x4B238, symSize: 0x140 }
  - { offset: 0x5314D, size: 0x8, addend: 0x0, symName: __RNvNtCsdE2kXyKmOF1_11async_trait6expand23where_clause_or_default, symObjAddr: 0xA4D0, symBinAddr: 0x4B378, symSize: 0x34 }
  - { offset: 0x53180, size: 0x8, addend: 0x0, symName: __RNCNvNtCsdE2kXyKmOF1_11async_trait6expand23where_clause_or_default0B5_, symObjAddr: 0xA504, symBinAddr: 0x4B3AC, symSize: 0x58 }
  - { offset: 0x531B2, size: 0x8, addend: 0x0, symName: __RNvNtCsdE2kXyKmOF1_11async_trait6expand29replace_impl_trait_with_infer, symObjAddr: 0xA55C, symBinAddr: 0x4B404, symSize: 0x3C }
  - { offset: 0x531E6, size: 0x8, addend: 0x0, symName: __RNvXNvNtCsdE2kXyKmOF1_11async_trait6expand29replace_impl_trait_with_inferNtB2_25ReplaceImplTraitWithInferNtNtNtCs6IAuOt8vWmF_3syn3gen9visit_mut8VisitMut14visit_type_mut, symObjAddr: 0xA598, symBinAddr: 0x4B440, symSize: 0x110 }
  - { offset: 0x5333C, size: 0x8, addend: 0x0, symName: __RNvXs1_NtNtNtCsfvfooZQ3Axs_4core3ops8function5implsQNCNCNvNtCsdE2kXyKmOF1_11async_trait6expand15transform_block00INtB7_5FnMutTRRNtNtCs6IAuOt8vWmF_3syn4attr9AttributeEE8call_mutBW_, symObjAddr: 0x0, symBinAddr: 0x40EA8, symSize: 0x30 }
  - { offset: 0x5338B, size: 0x8, addend: 0x0, symName: __RNvXs1_NtNtNtCsfvfooZQ3Axs_4core3ops8function5implsQNCNvMs_NtCsdE2kXyKmOF1_11async_trait6expandNtBV_7Context9lifetimes0INtB7_5FnMutTRNtNtCs6IAuOt8vWmF_3syn8generics12GenericParamEE8call_mutBX_, symObjAddr: 0x30, symBinAddr: 0x40ED8, symSize: 0x30 }
  - { offset: 0x533DA, size: 0x8, addend: 0x0, symName: __RNvXs1_NtNtNtCsfvfooZQ3Axs_4core3ops8function5implsQNCNvNtCsdE2kXyKmOF1_11async_trait6expand13transform_sig0INtB7_5FnMutTRRNtNtBU_5bound13InferredBoundEE8call_mutBU_, symObjAddr: 0x60, symBinAddr: 0x40F08, symSize: 0x30 }
  - { offset: 0x5342F, size: 0x8, addend: 0x0, symName: __RNvXs2_NtNtNtCsfvfooZQ3Axs_4core3ops8function5implsQNCNvNtCsdE2kXyKmOF1_11async_trait6expand15transform_block0INtB7_6FnOnceTTjRNtNtCs6IAuOt8vWmF_3syn4item5FnArgEEE9call_onceBU_, symObjAddr: 0x90, symBinAddr: 0x40F38, symSize: 0x34 }
  - { offset: 0x55B39, size: 0x8, addend: 0x0, symName: __RNvYNtNvNtCsdE2kXyKmOF1_11async_trait6expand29replace_impl_trait_with_infer25ReplaceImplTraitWithInferNtNtNtCs6IAuOt8vWmF_3syn3gen9visit_mut8VisitMut13visit_abi_mutB8_, symObjAddr: 0xC4, symBinAddr: 0x40F6C, symSize: 0x3C }
  - { offset: 0x55B78, size: 0x8, addend: 0x0, symName: __RNvYNtNvNtCsdE2kXyKmOF1_11async_trait6expand29replace_impl_trait_with_infer25ReplaceImplTraitWithInferNtNtNtCs6IAuOt8vWmF_3syn3gen9visit_mut8VisitMut13visit_arm_mutB8_, symObjAddr: 0x100, symBinAddr: 0x40FA8, symSize: 0x3C }
  - { offset: 0x55BB7, size: 0x8, addend: 0x0, symName: __RNvYNtNvNtCsdE2kXyKmOF1_11async_trait6expand29replace_impl_trait_with_infer25ReplaceImplTraitWithInferNtNtNtCs6IAuOt8vWmF_3syn3gen9visit_mut8VisitMut13visit_lit_mutB8_, symObjAddr: 0x13C, symBinAddr: 0x40FE4, symSize: 0x3C }
  - { offset: 0x55BF9, size: 0x8, addend: 0x0, symName: __RNvYNtNvNtCsdE2kXyKmOF1_11async_trait6expand29replace_impl_trait_with_infer25ReplaceImplTraitWithInferNtNtNtCs6IAuOt8vWmF_3syn3gen9visit_mut8VisitMut13visit_pat_mutB8_, symObjAddr: 0x178, symBinAddr: 0x41020, symSize: 0x3C }
  - { offset: 0x55C3B, size: 0x8, addend: 0x0, symName: __RNvYNtNvNtCsdE2kXyKmOF1_11async_trait6expand29replace_impl_trait_with_infer25ReplaceImplTraitWithInferNtNtNtCs6IAuOt8vWmF_3syn3gen9visit_mut8VisitMut14visit_expr_mutB8_, symObjAddr: 0x1B4, symBinAddr: 0x4105C, symSize: 0x3C }
  - { offset: 0x55C7A, size: 0x8, addend: 0x0, symName: __RNvYNtNvNtCsdE2kXyKmOF1_11async_trait6expand29replace_impl_trait_with_infer25ReplaceImplTraitWithInferNtNtNtCs6IAuOt8vWmF_3syn3gen9visit_mut8VisitMut14visit_item_mutB8_, symObjAddr: 0x1F0, symBinAddr: 0x41098, symSize: 0x3C }
  - { offset: 0x55CBC, size: 0x8, addend: 0x0, symName: __RNvYNtNvNtCsdE2kXyKmOF1_11async_trait6expand29replace_impl_trait_with_infer25ReplaceImplTraitWithInferNtNtNtCs6IAuOt8vWmF_3syn3gen9visit_mut8VisitMut14visit_meta_mutB8_, symObjAddr: 0x22C, symBinAddr: 0x410D4, symSize: 0x3C }
  - { offset: 0x55CFE, size: 0x8, addend: 0x0, symName: __RNvYNtNvNtCsdE2kXyKmOF1_11async_trait6expand29replace_impl_trait_with_infer25ReplaceImplTraitWithInferNtNtNtCs6IAuOt8vWmF_3syn3gen9visit_mut8VisitMut14visit_path_mutB8_, symObjAddr: 0x268, symBinAddr: 0x41110, symSize: 0x3C }
  - { offset: 0x55D40, size: 0x8, addend: 0x0, symName: __RNvYNtNvNtCsdE2kXyKmOF1_11async_trait6expand29replace_impl_trait_with_infer25ReplaceImplTraitWithInferNtNtNtCs6IAuOt8vWmF_3syn3gen9visit_mut8VisitMut14visit_span_mutB8_, symObjAddr: 0x2A4, symBinAddr: 0x4114C, symSize: 0x24 }
  - { offset: 0x55D82, size: 0x8, addend: 0x0, symName: __RNvYNtNvNtCsdE2kXyKmOF1_11async_trait6expand29replace_impl_trait_with_infer25ReplaceImplTraitWithInferNtNtNtCs6IAuOt8vWmF_3syn3gen9visit_mut8VisitMut14visit_stmt_mutB8_, symObjAddr: 0x2C8, symBinAddr: 0x41170, symSize: 0x3C }
  - { offset: 0x55DC4, size: 0x8, addend: 0x0, symName: __RNvYNtNvNtCsdE2kXyKmOF1_11async_trait6expand29replace_impl_trait_with_infer25ReplaceImplTraitWithInferNtNtNtCs6IAuOt8vWmF_3syn3gen9visit_mut8VisitMut15visit_block_mutB8_, symObjAddr: 0x304, symBinAddr: 0x411AC, symSize: 0x3C }
  - { offset: 0x55E03, size: 0x8, addend: 0x0, symName: __RNvYNtNvNtCsdE2kXyKmOF1_11async_trait6expand29replace_impl_trait_with_infer25ReplaceImplTraitWithInferNtNtNtCs6IAuOt8vWmF_3syn3gen9visit_mut8VisitMut15visit_field_mutB8_, symObjAddr: 0x340, symBinAddr: 0x411E8, symSize: 0x3C }
  - { offset: 0x55E45, size: 0x8, addend: 0x0, symName: __RNvYNtNvNtCsdE2kXyKmOF1_11async_trait6expand29replace_impl_trait_with_infer25ReplaceImplTraitWithInferNtNtNtCs6IAuOt8vWmF_3syn3gen9visit_mut8VisitMut15visit_ident_mutB8_, symObjAddr: 0x37C, symBinAddr: 0x41224, symSize: 0x3C }
  - { offset: 0x55E87, size: 0x8, addend: 0x0, symName: __RNvYNtNvNtCsdE2kXyKmOF1_11async_trait6expand29replace_impl_trait_with_infer25ReplaceImplTraitWithInferNtNtNtCs6IAuOt8vWmF_3syn3gen9visit_mut8VisitMut15visit_index_mutB8_, symObjAddr: 0x3B8, symBinAddr: 0x41260, symSize: 0x3C }
  - { offset: 0x55EC9, size: 0x8, addend: 0x0, symName: __RNvYNtNvNtCsdE2kXyKmOF1_11async_trait6expand29replace_impl_trait_with_infer25ReplaceImplTraitWithInferNtNtNtCs6IAuOt8vWmF_3syn3gen9visit_mut8VisitMut15visit_label_mutB8_, symObjAddr: 0x3F4, symBinAddr: 0x4129C, symSize: 0x3C }
  - { offset: 0x55F0B, size: 0x8, addend: 0x0, symName: __RNvYNtNvNtCsdE2kXyKmOF1_11async_trait6expand29replace_impl_trait_with_infer25ReplaceImplTraitWithInferNtNtNtCs6IAuOt8vWmF_3syn3gen9visit_mut8VisitMut15visit_local_mutB8_, symObjAddr: 0x430, symBinAddr: 0x412D8, symSize: 0x3C }
  - { offset: 0x55F4D, size: 0x8, addend: 0x0, symName: __RNvYNtNvNtCsdE2kXyKmOF1_11async_trait6expand29replace_impl_trait_with_infer25ReplaceImplTraitWithInferNtNtNtCs6IAuOt8vWmF_3syn3gen9visit_mut8VisitMut15visit_macro_mutB8_, symObjAddr: 0x46C, symBinAddr: 0x41314, symSize: 0x3C }
  - { offset: 0x55F8F, size: 0x8, addend: 0x0, symName: __RNvYNtNvNtCsdE2kXyKmOF1_11async_trait6expand29replace_impl_trait_with_infer25ReplaceImplTraitWithInferNtNtNtCs6IAuOt8vWmF_3syn3gen9visit_mut8VisitMut15visit_qself_mutB8_, symObjAddr: 0x4A8, symBinAddr: 0x41350, symSize: 0x3C }
  - { offset: 0x55FD1, size: 0x8, addend: 0x0, symName: __RNvYNtNvNtCsdE2kXyKmOF1_11async_trait6expand29replace_impl_trait_with_infer25ReplaceImplTraitWithInferNtNtNtCs6IAuOt8vWmF_3syn3gen9visit_mut8VisitMut15visit_un_op_mutB8_, symObjAddr: 0x4E4, symBinAddr: 0x4138C, symSize: 0x3C }
  - { offset: 0x56013, size: 0x8, addend: 0x0, symName: __RNvYNtNvNtCsdE2kXyKmOF1_11async_trait6expand29replace_impl_trait_with_infer25ReplaceImplTraitWithInferNtNtNtCs6IAuOt8vWmF_3syn3gen9visit_mut8VisitMut16visit_bin_op_mutB8_, symObjAddr: 0x520, symBinAddr: 0x413C8, symSize: 0x3C }
  - { offset: 0x56052, size: 0x8, addend: 0x0, symName: __RNvYNtNvNtCsdE2kXyKmOF1_11async_trait6expand29replace_impl_trait_with_infer25ReplaceImplTraitWithInferNtNtNtCs6IAuOt8vWmF_3syn3gen9visit_mut8VisitMut16visit_fields_mutB8_, symObjAddr: 0x55C, symBinAddr: 0x41404, symSize: 0x3C }
  - { offset: 0x56094, size: 0x8, addend: 0x0, symName: __RNvYNtNvNtCsdE2kXyKmOF1_11async_trait6expand29replace_impl_trait_with_infer25ReplaceImplTraitWithInferNtNtNtCs6IAuOt8vWmF_3syn3gen9visit_mut8VisitMut16visit_fn_arg_mutB8_, symObjAddr: 0x598, symBinAddr: 0x41440, symSize: 0x3C }
  - { offset: 0x560D6, size: 0x8, addend: 0x0, symName: __RNvYNtNvNtCsdE2kXyKmOF1_11async_trait6expand29replace_impl_trait_with_infer25ReplaceImplTraitWithInferNtNtNtCs6IAuOt8vWmF_3syn3gen9visit_mut8VisitMut16visit_member_mutB8_, symObjAddr: 0x5D4, symBinAddr: 0x4147C, symSize: 0x3C }
  - { offset: 0x56118, size: 0x8, addend: 0x0, symName: __RNvYNtNvNtCsdE2kXyKmOF1_11async_trait6expand29replace_impl_trait_with_infer25ReplaceImplTraitWithInferNtNtNtCs6IAuOt8vWmF_3syn3gen9visit_mut8VisitMut16visit_pat_or_mutB8_, symObjAddr: 0x610, symBinAddr: 0x414B8, symSize: 0x3C }
  - { offset: 0x5615A, size: 0x8, addend: 0x0, symName: __RNvYNtNvNtCsdE2kXyKmOF1_11async_trait6expand29replace_impl_trait_with_infer25ReplaceImplTraitWithInferNtNtNtCs6IAuOt8vWmF_3syn3gen9visit_mut8VisitMut17visit_expr_if_mutB8_, symObjAddr: 0x64C, symBinAddr: 0x414F4, symSize: 0x3C }
  - { offset: 0x56199, size: 0x8, addend: 0x0, symName: __RNvYNtNvNtCsdE2kXyKmOF1_11async_trait6expand29replace_impl_trait_with_infer25ReplaceImplTraitWithInferNtNtNtCs6IAuOt8vWmF_3syn3gen9visit_mut8VisitMut17visit_item_fn_mutB8_, symObjAddr: 0x688, symBinAddr: 0x41530, symSize: 0x3C }
  - { offset: 0x561DB, size: 0x8, addend: 0x0, symName: __RNvYNtNvNtCsdE2kXyKmOF1_11async_trait6expand29replace_impl_trait_with_infer25ReplaceImplTraitWithInferNtNtNtCs6IAuOt8vWmF_3syn3gen9visit_mut8VisitMut17visit_lit_int_mutB8_, symObjAddr: 0x6C4, symBinAddr: 0x4156C, symSize: 0x3C }
  - { offset: 0x5621D, size: 0x8, addend: 0x0, symName: __RNvYNtNvNtCsdE2kXyKmOF1_11async_trait6expand29replace_impl_trait_with_infer25ReplaceImplTraitWithInferNtNtNtCs6IAuOt8vWmF_3syn3gen9visit_mut8VisitMut17visit_lit_str_mutB8_, symObjAddr: 0x700, symBinAddr: 0x415A8, symSize: 0x3C }
  - { offset: 0x5625F, size: 0x8, addend: 0x0, symName: __RNvYNtNvNtCsdE2kXyKmOF1_11async_trait6expand29replace_impl_trait_with_infer25ReplaceImplTraitWithInferNtNtNtCs6IAuOt8vWmF_3syn3gen9visit_mut8VisitMut17visit_variant_mutB8_, symObjAddr: 0x73C, symBinAddr: 0x415E4, symSize: 0x3C }
  - { offset: 0x562A1, size: 0x8, addend: 0x0, symName: __RNvYNtNvNtCsdE2kXyKmOF1_11async_trait6expand29replace_impl_trait_with_infer25ReplaceImplTraitWithInferNtNtNtCs6IAuOt8vWmF_3syn3gen9visit_mut8VisitMut18visit_expr_let_mutB8_, symObjAddr: 0x778, symBinAddr: 0x41620, symSize: 0x3C }
  - { offset: 0x562E0, size: 0x8, addend: 0x0, symName: __RNvYNtNvNtCsdE2kXyKmOF1_11async_trait6expand29replace_impl_trait_with_infer25ReplaceImplTraitWithInferNtNtNtCs6IAuOt8vWmF_3syn3gen9visit_mut8VisitMut18visit_expr_lit_mutB8_, symObjAddr: 0x7B4, symBinAddr: 0x4165C, symSize: 0x3C }
  - { offset: 0x5631F, size: 0x8, addend: 0x0, symName: __RNvYNtNvNtCsdE2kXyKmOF1_11async_trait6expand29replace_impl_trait_with_infer25ReplaceImplTraitWithInferNtNtNtCs6IAuOt8vWmF_3syn3gen9visit_mut8VisitMut18visit_expr_try_mutB8_, symObjAddr: 0x7F0, symBinAddr: 0x41698, symSize: 0x3C }
  - { offset: 0x56361, size: 0x8, addend: 0x0, symName: __RNvYNtNvNtCsdE2kXyKmOF1_11async_trait6expand29replace_impl_trait_with_infer25ReplaceImplTraitWithInferNtNtNtCs6IAuOt8vWmF_3syn3gen9visit_mut8VisitMut18visit_generics_mutB8_, symObjAddr: 0x82C, symBinAddr: 0x416D4, symSize: 0x3C }
  - { offset: 0x563A3, size: 0x8, addend: 0x0, symName: __RNvYNtNvNtCsdE2kXyKmOF1_11async_trait6expand29replace_impl_trait_with_infer25ReplaceImplTraitWithInferNtNtNtCs6IAuOt8vWmF_3syn3gen9visit_mut8VisitMut18visit_item_mod_mutB8_, symObjAddr: 0x868, symBinAddr: 0x41710, symSize: 0x3C }
  - { offset: 0x563E5, size: 0x8, addend: 0x0, symName: __RNvYNtNvNtCsdE2kXyKmOF1_11async_trait6expand29replace_impl_trait_with_infer25ReplaceImplTraitWithInferNtNtNtCs6IAuOt8vWmF_3syn3gen9visit_mut8VisitMut18visit_item_use_mutB8_, symObjAddr: 0x8A4, symBinAddr: 0x4174C, symSize: 0x3C }
  - { offset: 0x56427, size: 0x8, addend: 0x0, symName: __RNvYNtNvNtCsdE2kXyKmOF1_11async_trait6expand29replace_impl_trait_with_infer25ReplaceImplTraitWithInferNtNtNtCs6IAuOt8vWmF_3syn3gen9visit_mut8VisitMut18visit_lifetime_mutB8_, symObjAddr: 0x8E0, symBinAddr: 0x41788, symSize: 0x3C }
  - { offset: 0x56469, size: 0x8, addend: 0x0, symName: __RNvYNtNvNtCsdE2kXyKmOF1_11async_trait6expand29replace_impl_trait_with_infer25ReplaceImplTraitWithInferNtNtNtCs6IAuOt8vWmF_3syn3gen9visit_mut8VisitMut18visit_lit_bool_mutB8_, symObjAddr: 0x91C, symBinAddr: 0x417C4, symSize: 0x3C }
  - { offset: 0x564AB, size: 0x8, addend: 0x0, symName: __RNvYNtNvNtCsdE2kXyKmOF1_11async_trait6expand29replace_impl_trait_with_infer25ReplaceImplTraitWithInferNtNtNtCs6IAuOt8vWmF_3syn3gen9visit_mut8VisitMut18visit_lit_byte_mutB8_, symObjAddr: 0x958, symBinAddr: 0x41800, symSize: 0x3C }
  - { offset: 0x564ED, size: 0x8, addend: 0x0, symName: __RNvYNtNvNtCsdE2kXyKmOF1_11async_trait6expand29replace_impl_trait_with_infer25ReplaceImplTraitWithInferNtNtNtCs6IAuOt8vWmF_3syn3gen9visit_mut8VisitMut18visit_lit_char_mutB8_, symObjAddr: 0x994, symBinAddr: 0x4183C, symSize: 0x3C }
  - { offset: 0x5652F, size: 0x8, addend: 0x0, symName: __RNvYNtNvNtCsdE2kXyKmOF1_11async_trait6expand29replace_impl_trait_with_infer25ReplaceImplTraitWithInferNtNtNtCs6IAuOt8vWmF_3syn3gen9visit_mut8VisitMut18visit_lit_cstr_mutB8_, symObjAddr: 0x9D0, symBinAddr: 0x41878, symSize: 0x3C }
  - { offset: 0x56571, size: 0x8, addend: 0x0, symName: __RNvYNtNvNtCsdE2kXyKmOF1_11async_trait6expand29replace_impl_trait_with_infer25ReplaceImplTraitWithInferNtNtNtCs6IAuOt8vWmF_3syn3gen9visit_mut8VisitMut18visit_pat_rest_mutB8_, symObjAddr: 0xA0C, symBinAddr: 0x418B4, symSize: 0x3C }
  - { offset: 0x565B3, size: 0x8, addend: 0x0, symName: __RNvYNtNvNtCsdE2kXyKmOF1_11async_trait6expand29replace_impl_trait_with_infer25ReplaceImplTraitWithInferNtNtNtCs6IAuOt8vWmF_3syn3gen9visit_mut8VisitMut18visit_pat_type_mutB8_, symObjAddr: 0xA48, symBinAddr: 0x418F0, symSize: 0x3C }
  - { offset: 0x565F5, size: 0x8, addend: 0x0, symName: __RNvYNtNvNtCsdE2kXyKmOF1_11async_trait6expand29replace_impl_trait_with_infer25ReplaceImplTraitWithInferNtNtNtCs6IAuOt8vWmF_3syn3gen9visit_mut8VisitMut18visit_pat_wild_mutB8_, symObjAddr: 0xA84, symBinAddr: 0x4192C, symSize: 0x3C }
  - { offset: 0x56637, size: 0x8, addend: 0x0, symName: __RNvYNtNvNtCsdE2kXyKmOF1_11async_trait6expand29replace_impl_trait_with_infer25ReplaceImplTraitWithInferNtNtNtCs6IAuOt8vWmF_3syn3gen9visit_mut8VisitMut18visit_receiver_mutB8_, symObjAddr: 0xAC0, symBinAddr: 0x41968, symSize: 0x3C }
  - { offset: 0x56679, size: 0x8, addend: 0x0, symName: __RNvYNtNvNtCsdE2kXyKmOF1_11async_trait6expand29replace_impl_trait_with_infer25ReplaceImplTraitWithInferNtNtNtCs6IAuOt8vWmF_3syn3gen9visit_mut8VisitMut18visit_type_ptr_mutB8_, symObjAddr: 0xAFC, symBinAddr: 0x419A4, symSize: 0x3C }
  - { offset: 0x566BB, size: 0x8, addend: 0x0, symName: __RNvYNtNvNtCsdE2kXyKmOF1_11async_trait6expand29replace_impl_trait_with_infer25ReplaceImplTraitWithInferNtNtNtCs6IAuOt8vWmF_3syn3gen9visit_mut8VisitMut18visit_use_glob_mutB8_, symObjAddr: 0xB38, symBinAddr: 0x419E0, symSize: 0x3C }
  - { offset: 0x566FD, size: 0x8, addend: 0x0, symName: __RNvYNtNvNtCsdE2kXyKmOF1_11async_trait6expand29replace_impl_trait_with_infer25ReplaceImplTraitWithInferNtNtNtCs6IAuOt8vWmF_3syn3gen9visit_mut8VisitMut18visit_use_name_mutB8_, symObjAddr: 0xB74, symBinAddr: 0x41A1C, symSize: 0x3C }
  - { offset: 0x5673F, size: 0x8, addend: 0x0, symName: __RNvYNtNvNtCsdE2kXyKmOF1_11async_trait6expand29replace_impl_trait_with_infer25ReplaceImplTraitWithInferNtNtNtCs6IAuOt8vWmF_3syn3gen9visit_mut8VisitMut18visit_use_path_mutB8_, symObjAddr: 0xBB0, symBinAddr: 0x41A58, symSize: 0x3C }
  - { offset: 0x56781, size: 0x8, addend: 0x0, symName: __RNvYNtNvNtCsdE2kXyKmOF1_11async_trait6expand29replace_impl_trait_with_infer25ReplaceImplTraitWithInferNtNtNtCs6IAuOt8vWmF_3syn3gen9visit_mut8VisitMut18visit_use_tree_mutB8_, symObjAddr: 0xBEC, symBinAddr: 0x41A94, symSize: 0x3C }
  - { offset: 0x567C3, size: 0x8, addend: 0x0, symName: __RNvYNtNvNtCsdE2kXyKmOF1_11async_trait6expand29replace_impl_trait_with_infer25ReplaceImplTraitWithInferNtNtNtCs6IAuOt8vWmF_3syn3gen9visit_mut8VisitMut18visit_variadic_mutB8_, symObjAddr: 0xC28, symBinAddr: 0x41AD0, symSize: 0x3C }
  - { offset: 0x56805, size: 0x8, addend: 0x0, symName: __RNvYNtNvNtCsdE2kXyKmOF1_11async_trait6expand29replace_impl_trait_with_infer25ReplaceImplTraitWithInferNtNtNtCs6IAuOt8vWmF_3syn3gen9visit_mut8VisitMut19visit_attribute_mutB8_, symObjAddr: 0xC64, symBinAddr: 0x41B0C, symSize: 0x3C }
  - { offset: 0x56844, size: 0x8, addend: 0x0, symName: __RNvYNtNvNtCsdE2kXyKmOF1_11async_trait6expand29replace_impl_trait_with_infer25ReplaceImplTraitWithInferNtNtNtCs6IAuOt8vWmF_3syn3gen9visit_mut8VisitMut19visit_expr_call_mutB8_, symObjAddr: 0xCA0, symBinAddr: 0x41B48, symSize: 0x3C }
  - { offset: 0x56883, size: 0x8, addend: 0x0, symName: __RNvYNtNvNtCsdE2kXyKmOF1_11async_trait6expand29replace_impl_trait_with_infer25ReplaceImplTraitWithInferNtNtNtCs6IAuOt8vWmF_3syn3gen9visit_mut8VisitMut19visit_expr_cast_mutB8_, symObjAddr: 0xCDC, symBinAddr: 0x41B84, symSize: 0x3C }
  - { offset: 0x568C2, size: 0x8, addend: 0x0, symName: __RNvYNtNvNtCsdE2kXyKmOF1_11async_trait6expand29replace_impl_trait_with_infer25ReplaceImplTraitWithInferNtNtNtCs6IAuOt8vWmF_3syn3gen9visit_mut8VisitMut19visit_expr_loop_mutB8_, symObjAddr: 0xD18, symBinAddr: 0x41BC0, symSize: 0x3C }
  - { offset: 0x56901, size: 0x8, addend: 0x0, symName: __RNvYNtNvNtCsdE2kXyKmOF1_11async_trait6expand29replace_impl_trait_with_infer25ReplaceImplTraitWithInferNtNtNtCs6IAuOt8vWmF_3syn3gen9visit_mut8VisitMut19visit_expr_path_mutB8_, symObjAddr: 0xD54, symBinAddr: 0x41BFC, symSize: 0x3C }
  - { offset: 0x56943, size: 0x8, addend: 0x0, symName: __RNvYNtNvNtCsdE2kXyKmOF1_11async_trait6expand29replace_impl_trait_with_infer25ReplaceImplTraitWithInferNtNtNtCs6IAuOt8vWmF_3syn3gen9visit_mut8VisitMut19visit_field_pat_mutB8_, symObjAddr: 0xD90, symBinAddr: 0x41C38, symSize: 0x3C }
  - { offset: 0x56985, size: 0x8, addend: 0x0, symName: __RNvYNtNvNtCsdE2kXyKmOF1_11async_trait6expand29replace_impl_trait_with_infer25ReplaceImplTraitWithInferNtNtNtCs6IAuOt8vWmF_3syn3gen9visit_mut8VisitMut19visit_impl_item_mutB8_, symObjAddr: 0xDCC, symBinAddr: 0x41C74, symSize: 0x3C }
  - { offset: 0x569C7, size: 0x8, addend: 0x0, symName: __RNvYNtNvNtCsdE2kXyKmOF1_11async_trait6expand29replace_impl_trait_with_infer25ReplaceImplTraitWithInferNtNtNtCs6IAuOt8vWmF_3syn3gen9visit_mut8VisitMut19visit_item_enum_mutB8_, symObjAddr: 0xE08, symBinAddr: 0x41CB0, symSize: 0x3C }
  - { offset: 0x56A09, size: 0x8, addend: 0x0, symName: __RNvYNtNvNtCsdE2kXyKmOF1_11async_trait6expand29replace_impl_trait_with_infer25ReplaceImplTraitWithInferNtNtNtCs6IAuOt8vWmF_3syn3gen9visit_mut8VisitMut19visit_item_impl_mutB8_, symObjAddr: 0xE44, symBinAddr: 0x41CEC, symSize: 0x3C }
  - { offset: 0x56A4B, size: 0x8, addend: 0x0, symName: __RNvYNtNvNtCsdE2kXyKmOF1_11async_trait6expand29replace_impl_trait_with_infer25ReplaceImplTraitWithInferNtNtNtCs6IAuOt8vWmF_3syn3gen9visit_mut8VisitMut19visit_item_type_mutB8_, symObjAddr: 0xE80, symBinAddr: 0x41D28, symSize: 0x3C }
  - { offset: 0x56A8D, size: 0x8, addend: 0x0, symName: __RNvYNtNvNtCsdE2kXyKmOF1_11async_trait6expand29replace_impl_trait_with_infer25ReplaceImplTraitWithInferNtNtNtCs6IAuOt8vWmF_3syn3gen9visit_mut8VisitMut19visit_lit_float_mutB8_, symObjAddr: 0xEBC, symBinAddr: 0x41D64, symSize: 0x3C }
  - { offset: 0x56ACF, size: 0x8, addend: 0x0, symName: __RNvYNtNvNtCsdE2kXyKmOF1_11async_trait6expand29replace_impl_trait_with_infer25ReplaceImplTraitWithInferNtNtNtCs6IAuOt8vWmF_3syn3gen9visit_mut8VisitMut19visit_meta_list_mutB8_, symObjAddr: 0xEF8, symBinAddr: 0x41DA0, symSize: 0x3C }
  - { offset: 0x56B11, size: 0x8, addend: 0x0, symName: __RNvYNtNvNtCsdE2kXyKmOF1_11async_trait6expand29replace_impl_trait_with_infer25ReplaceImplTraitWithInferNtNtNtCs6IAuOt8vWmF_3syn3gen9visit_mut8VisitMut19visit_pat_ident_mutB8_, symObjAddr: 0xF34, symBinAddr: 0x41DDC, symSize: 0x3C }
  - { offset: 0x56B53, size: 0x8, addend: 0x0, symName: __RNvYNtNvNtCsdE2kXyKmOF1_11async_trait6expand29replace_impl_trait_with_infer25ReplaceImplTraitWithInferNtNtNtCs6IAuOt8vWmF_3syn3gen9visit_mut8VisitMut19visit_pat_paren_mutB8_, symObjAddr: 0xF70, symBinAddr: 0x41E18, symSize: 0x3C }
  - { offset: 0x56B95, size: 0x8, addend: 0x0, symName: __RNvYNtNvNtCsdE2kXyKmOF1_11async_trait6expand29replace_impl_trait_with_infer25ReplaceImplTraitWithInferNtNtNtCs6IAuOt8vWmF_3syn3gen9visit_mut8VisitMut19visit_pat_slice_mutB8_, symObjAddr: 0xFAC, symBinAddr: 0x41E54, symSize: 0x3C }
  - { offset: 0x56BD7, size: 0x8, addend: 0x0, symName: __RNvYNtNvNtCsdE2kXyKmOF1_11async_trait6expand29replace_impl_trait_with_infer25ReplaceImplTraitWithInferNtNtNtCs6IAuOt8vWmF_3syn3gen9visit_mut8VisitMut19visit_pat_tuple_mutB8_, symObjAddr: 0xFE8, symBinAddr: 0x41E90, symSize: 0x3C }
  - { offset: 0x56C19, size: 0x8, addend: 0x0, symName: __RNvYNtNvNtCsdE2kXyKmOF1_11async_trait6expand29replace_impl_trait_with_infer25ReplaceImplTraitWithInferNtNtNtCs6IAuOt8vWmF_3syn3gen9visit_mut8VisitMut19visit_signature_mutB8_, symObjAddr: 0x1024, symBinAddr: 0x41ECC, symSize: 0x3C }
  - { offset: 0x56C5B, size: 0x8, addend: 0x0, symName: __RNvYNtNvNtCsdE2kXyKmOF1_11async_trait6expand29replace_impl_trait_with_infer25ReplaceImplTraitWithInferNtNtNtCs6IAuOt8vWmF_3syn3gen9visit_mut8VisitMut19visit_type_path_mutB8_, symObjAddr: 0x1060, symBinAddr: 0x41F08, symSize: 0x3C }
  - { offset: 0x56C9D, size: 0x8, addend: 0x0, symName: __RNvYNtNvNtCsdE2kXyKmOF1_11async_trait6expand29replace_impl_trait_with_infer25ReplaceImplTraitWithInferNtNtNtCs6IAuOt8vWmF_3syn3gen9visit_mut8VisitMut19visit_use_group_mutB8_, symObjAddr: 0x109C, symBinAddr: 0x41F44, symSize: 0x3C }
  - { offset: 0x56CDF, size: 0x8, addend: 0x0, symName: __RNvYNtNvNtCsdE2kXyKmOF1_11async_trait6expand29replace_impl_trait_with_infer25ReplaceImplTraitWithInferNtNtNtCs6IAuOt8vWmF_3syn3gen9visit_mut8VisitMut20visit_assoc_type_mutB8_, symObjAddr: 0x10D8, symBinAddr: 0x41F80, symSize: 0x3C }
  - { offset: 0x56D1E, size: 0x8, addend: 0x0, symName: __RNvYNtNvNtCsdE2kXyKmOF1_11async_trait6expand29replace_impl_trait_with_infer25ReplaceImplTraitWithInferNtNtNtCs6IAuOt8vWmF_3syn3gen9visit_mut8VisitMut20visit_attr_style_mutB8_, symObjAddr: 0x1114, symBinAddr: 0x41FBC, symSize: 0x3C }
  - { offset: 0x56D5D, size: 0x8, addend: 0x0, symName: __RNvYNtNvNtCsdE2kXyKmOF1_11async_trait6expand29replace_impl_trait_with_infer25ReplaceImplTraitWithInferNtNtNtCs6IAuOt8vWmF_3syn3gen9visit_mut8VisitMut20visit_attributes_mutB8_, symObjAddr: 0x1150, symBinAddr: 0x41FF8, symSize: 0x98 }
  - { offset: 0x56DCE, size: 0x8, addend: 0x0, symName: __RNvYNtNvNtCsdE2kXyKmOF1_11async_trait6expand29replace_impl_trait_with_infer25ReplaceImplTraitWithInferNtNtNtCs6IAuOt8vWmF_3syn3gen9visit_mut8VisitMut20visit_constraint_mutB8_, symObjAddr: 0x11E8, symBinAddr: 0x42090, symSize: 0x3C }
  - { offset: 0x56E0D, size: 0x8, addend: 0x0, symName: __RNvYNtNvNtCsdE2kXyKmOF1_11async_trait6expand29replace_impl_trait_with_infer25ReplaceImplTraitWithInferNtNtNtCs6IAuOt8vWmF_3syn3gen9visit_mut8VisitMut20visit_expr_array_mutB8_, symObjAddr: 0x1224, symBinAddr: 0x420CC, symSize: 0x3C }
  - { offset: 0x56E4C, size: 0x8, addend: 0x0, symName: __RNvYNtNvNtCsdE2kXyKmOF1_11async_trait6expand29replace_impl_trait_with_infer25ReplaceImplTraitWithInferNtNtNtCs6IAuOt8vWmF_3syn3gen9visit_mut8VisitMut20visit_expr_async_mutB8_, symObjAddr: 0x1260, symBinAddr: 0x42108, symSize: 0x3C }
  - { offset: 0x56E8B, size: 0x8, addend: 0x0, symName: __RNvYNtNvNtCsdE2kXyKmOF1_11async_trait6expand29replace_impl_trait_with_infer25ReplaceImplTraitWithInferNtNtNtCs6IAuOt8vWmF_3syn3gen9visit_mut8VisitMut20visit_expr_await_mutB8_, symObjAddr: 0x129C, symBinAddr: 0x42144, symSize: 0x3C }
  - { offset: 0x56ECA, size: 0x8, addend: 0x0, symName: __RNvYNtNvNtCsdE2kXyKmOF1_11async_trait6expand29replace_impl_trait_with_infer25ReplaceImplTraitWithInferNtNtNtCs6IAuOt8vWmF_3syn3gen9visit_mut8VisitMut20visit_expr_block_mutB8_, symObjAddr: 0x12D8, symBinAddr: 0x42180, symSize: 0x3C }
  - { offset: 0x56F09, size: 0x8, addend: 0x0, symName: __RNvYNtNvNtCsdE2kXyKmOF1_11async_trait6expand29replace_impl_trait_with_infer25ReplaceImplTraitWithInferNtNtNtCs6IAuOt8vWmF_3syn3gen9visit_mut8VisitMut20visit_expr_break_mutB8_, symObjAddr: 0x1314, symBinAddr: 0x421BC, symSize: 0x3C }
  - { offset: 0x56F48, size: 0x8, addend: 0x0, symName: __RNvYNtNvNtCsdE2kXyKmOF1_11async_trait6expand29replace_impl_trait_with_infer25ReplaceImplTraitWithInferNtNtNtCs6IAuOt8vWmF_3syn3gen9visit_mut8VisitMut20visit_expr_const_mutB8_, symObjAddr: 0x1350, symBinAddr: 0x421F8, symSize: 0x3C }
  - { offset: 0x56F87, size: 0x8, addend: 0x0, symName: __RNvYNtNvNtCsdE2kXyKmOF1_11async_trait6expand29replace_impl_trait_with_infer25ReplaceImplTraitWithInferNtNtNtCs6IAuOt8vWmF_3syn3gen9visit_mut8VisitMut20visit_expr_field_mutB8_, symObjAddr: 0x138C, symBinAddr: 0x42234, symSize: 0x3C }
  - { offset: 0x56FC6, size: 0x8, addend: 0x0, symName: __RNvYNtNvNtCsdE2kXyKmOF1_11async_trait6expand29replace_impl_trait_with_infer25ReplaceImplTraitWithInferNtNtNtCs6IAuOt8vWmF_3syn3gen9visit_mut8VisitMut20visit_expr_group_mutB8_, symObjAddr: 0x13C8, symBinAddr: 0x42270, symSize: 0x3C }
  - { offset: 0x57005, size: 0x8, addend: 0x0, symName: __RNvYNtNvNtCsdE2kXyKmOF1_11async_trait6expand29replace_impl_trait_with_infer25ReplaceImplTraitWithInferNtNtNtCs6IAuOt8vWmF_3syn3gen9visit_mut8VisitMut20visit_expr_index_mutB8_, symObjAddr: 0x1404, symBinAddr: 0x422AC, symSize: 0x3C }
  - { offset: 0x57044, size: 0x8, addend: 0x0, symName: __RNvYNtNvNtCsdE2kXyKmOF1_11async_trait6expand29replace_impl_trait_with_infer25ReplaceImplTraitWithInferNtNtNtCs6IAuOt8vWmF_3syn3gen9visit_mut8VisitMut20visit_expr_infer_mutB8_, symObjAddr: 0x1440, symBinAddr: 0x422E8, symSize: 0x3C }
  - { offset: 0x57083, size: 0x8, addend: 0x0, symName: __RNvYNtNvNtCsdE2kXyKmOF1_11async_trait6expand29replace_impl_trait_with_infer25ReplaceImplTraitWithInferNtNtNtCs6IAuOt8vWmF_3syn3gen9visit_mut8VisitMut20visit_expr_macro_mutB8_, symObjAddr: 0x147C, symBinAddr: 0x42324, symSize: 0x3C }
  - { offset: 0x570C2, size: 0x8, addend: 0x0, symName: __RNvYNtNvNtCsdE2kXyKmOF1_11async_trait6expand29replace_impl_trait_with_infer25ReplaceImplTraitWithInferNtNtNtCs6IAuOt8vWmF_3syn3gen9visit_mut8VisitMut20visit_expr_match_mutB8_, symObjAddr: 0x14B8, symBinAddr: 0x42360, symSize: 0x3C }
  - { offset: 0x57104, size: 0x8, addend: 0x0, symName: __RNvYNtNvNtCsdE2kXyKmOF1_11async_trait6expand29replace_impl_trait_with_infer25ReplaceImplTraitWithInferNtNtNtCs6IAuOt8vWmF_3syn3gen9visit_mut8VisitMut20visit_expr_paren_mutB8_, symObjAddr: 0x14F4, symBinAddr: 0x4239C, symSize: 0x3C }
  - { offset: 0x57146, size: 0x8, addend: 0x0, symName: __RNvYNtNvNtCsdE2kXyKmOF1_11async_trait6expand29replace_impl_trait_with_infer25ReplaceImplTraitWithInferNtNtNtCs6IAuOt8vWmF_3syn3gen9visit_mut8VisitMut20visit_expr_range_mutB8_, symObjAddr: 0x1530, symBinAddr: 0x423D8, symSize: 0x3C }
  - { offset: 0x57188, size: 0x8, addend: 0x0, symName: __RNvYNtNvNtCsdE2kXyKmOF1_11async_trait6expand29replace_impl_trait_with_infer25ReplaceImplTraitWithInferNtNtNtCs6IAuOt8vWmF_3syn3gen9visit_mut8VisitMut20visit_expr_tuple_mutB8_, symObjAddr: 0x156C, symBinAddr: 0x42414, symSize: 0x3C }
  - { offset: 0x571CA, size: 0x8, addend: 0x0, symName: __RNvYNtNvNtCsdE2kXyKmOF1_11async_trait6expand29replace_impl_trait_with_infer25ReplaceImplTraitWithInferNtNtNtCs6IAuOt8vWmF_3syn3gen9visit_mut8VisitMut20visit_expr_unary_mutB8_, symObjAddr: 0x15A8, symBinAddr: 0x42450, symSize: 0x3C }
  - { offset: 0x5720C, size: 0x8, addend: 0x0, symName: __RNvYNtNvNtCsdE2kXyKmOF1_11async_trait6expand29replace_impl_trait_with_infer25ReplaceImplTraitWithInferNtNtNtCs6IAuOt8vWmF_3syn3gen9visit_mut8VisitMut20visit_expr_while_mutB8_, symObjAddr: 0x15E4, symBinAddr: 0x4248C, symSize: 0x3C }
  - { offset: 0x5724E, size: 0x8, addend: 0x0, symName: __RNvYNtNvNtCsdE2kXyKmOF1_11async_trait6expand29replace_impl_trait_with_infer25ReplaceImplTraitWithInferNtNtNtCs6IAuOt8vWmF_3syn3gen9visit_mut8VisitMut20visit_expr_yield_mutB8_, symObjAddr: 0x1620, symBinAddr: 0x424C8, symSize: 0x3C }
  - { offset: 0x57290, size: 0x8, addend: 0x0, symName: __RNvYNtNvNtCsdE2kXyKmOF1_11async_trait6expand29replace_impl_trait_with_infer25ReplaceImplTraitWithInferNtNtNtCs6IAuOt8vWmF_3syn3gen9visit_mut8VisitMut20visit_item_const_mutB8_, symObjAddr: 0x165C, symBinAddr: 0x42504, symSize: 0x3C }
  - { offset: 0x572D2, size: 0x8, addend: 0x0, symName: __RNvYNtNvNtCsdE2kXyKmOF1_11async_trait6expand29replace_impl_trait_with_infer25ReplaceImplTraitWithInferNtNtNtCs6IAuOt8vWmF_3syn3gen9visit_mut8VisitMut20visit_item_macro_mutB8_, symObjAddr: 0x1698, symBinAddr: 0x42540, symSize: 0x3C }
  - { offset: 0x57314, size: 0x8, addend: 0x0, symName: __RNvYNtNvNtCsdE2kXyKmOF1_11async_trait6expand29replace_impl_trait_with_infer25ReplaceImplTraitWithInferNtNtNtCs6IAuOt8vWmF_3syn3gen9visit_mut8VisitMut20visit_item_trait_mutB8_, symObjAddr: 0x16D4, symBinAddr: 0x4257C, symSize: 0x3C }
  - { offset: 0x57356, size: 0x8, addend: 0x0, symName: __RNvYNtNvNtCsdE2kXyKmOF1_11async_trait6expand29replace_impl_trait_with_infer25ReplaceImplTraitWithInferNtNtNtCs6IAuOt8vWmF_3syn3gen9visit_mut8VisitMut20visit_item_union_mutB8_, symObjAddr: 0x1710, symBinAddr: 0x425B8, symSize: 0x3C }
  - { offset: 0x57398, size: 0x8, addend: 0x0, symName: __RNvYNtNvNtCsdE2kXyKmOF1_11async_trait6expand29replace_impl_trait_with_infer25ReplaceImplTraitWithInferNtNtNtCs6IAuOt8vWmF_3syn3gen9visit_mut8VisitMut20visit_local_init_mutB8_, symObjAddr: 0x174C, symBinAddr: 0x425F4, symSize: 0x3C }
  - { offset: 0x573DA, size: 0x8, addend: 0x0, symName: __RNvYNtNvNtCsdE2kXyKmOF1_11async_trait6expand29replace_impl_trait_with_infer25ReplaceImplTraitWithInferNtNtNtCs6IAuOt8vWmF_3syn3gen9visit_mut8VisitMut20visit_pat_struct_mutB8_, symObjAddr: 0x1788, symBinAddr: 0x42630, symSize: 0x3C }
  - { offset: 0x5741C, size: 0x8, addend: 0x0, symName: __RNvYNtNvNtCsdE2kXyKmOF1_11async_trait6expand29replace_impl_trait_with_infer25ReplaceImplTraitWithInferNtNtNtCs6IAuOt8vWmF_3syn3gen9visit_mut8VisitMut20visit_stmt_macro_mutB8_, symObjAddr: 0x17C4, symBinAddr: 0x4266C, symSize: 0x3C }
  - { offset: 0x5745E, size: 0x8, addend: 0x0, symName: __RNvYNtNvNtCsdE2kXyKmOF1_11async_trait6expand29replace_impl_trait_with_infer25ReplaceImplTraitWithInferNtNtNtCs6IAuOt8vWmF_3syn3gen9visit_mut8VisitMut20visit_trait_item_mutB8_, symObjAddr: 0x1800, symBinAddr: 0x426A8, symSize: 0x3C }
  - { offset: 0x574A0, size: 0x8, addend: 0x0, symName: __RNvYNtNvNtCsdE2kXyKmOF1_11async_trait6expand29replace_impl_trait_with_infer25ReplaceImplTraitWithInferNtNtNtCs6IAuOt8vWmF_3syn3gen9visit_mut8VisitMut20visit_type_array_mutB8_, symObjAddr: 0x183C, symBinAddr: 0x426E4, symSize: 0x3C }
  - { offset: 0x574E2, size: 0x8, addend: 0x0, symName: __RNvYNtNvNtCsdE2kXyKmOF1_11async_trait6expand29replace_impl_trait_with_infer25ReplaceImplTraitWithInferNtNtNtCs6IAuOt8vWmF_3syn3gen9visit_mut8VisitMut20visit_type_group_mutB8_, symObjAddr: 0x1878, symBinAddr: 0x42720, symSize: 0x3C }
  - { offset: 0x57524, size: 0x8, addend: 0x0, symName: __RNvYNtNvNtCsdE2kXyKmOF1_11async_trait6expand29replace_impl_trait_with_infer25ReplaceImplTraitWithInferNtNtNtCs6IAuOt8vWmF_3syn3gen9visit_mut8VisitMut20visit_type_infer_mutB8_, symObjAddr: 0x18B4, symBinAddr: 0x4275C, symSize: 0x3C }
  - { offset: 0x57566, size: 0x8, addend: 0x0, symName: __RNvYNtNvNtCsdE2kXyKmOF1_11async_trait6expand29replace_impl_trait_with_infer25ReplaceImplTraitWithInferNtNtNtCs6IAuOt8vWmF_3syn3gen9visit_mut8VisitMut20visit_type_macro_mutB8_, symObjAddr: 0x18F0, symBinAddr: 0x42798, symSize: 0x3C }
  - { offset: 0x575A8, size: 0x8, addend: 0x0, symName: __RNvYNtNvNtCsdE2kXyKmOF1_11async_trait6expand29replace_impl_trait_with_infer25ReplaceImplTraitWithInferNtNtNtCs6IAuOt8vWmF_3syn3gen9visit_mut8VisitMut20visit_type_never_mutB8_, symObjAddr: 0x192C, symBinAddr: 0x427D4, symSize: 0x3C }
  - { offset: 0x575EA, size: 0x8, addend: 0x0, symName: __RNvYNtNvNtCsdE2kXyKmOF1_11async_trait6expand29replace_impl_trait_with_infer25ReplaceImplTraitWithInferNtNtNtCs6IAuOt8vWmF_3syn3gen9visit_mut8VisitMut20visit_type_param_mutB8_, symObjAddr: 0x1968, symBinAddr: 0x42810, symSize: 0x3C }
  - { offset: 0x5762C, size: 0x8, addend: 0x0, symName: __RNvYNtNvNtCsdE2kXyKmOF1_11async_trait6expand29replace_impl_trait_with_infer25ReplaceImplTraitWithInferNtNtNtCs6IAuOt8vWmF_3syn3gen9visit_mut8VisitMut20visit_type_paren_mutB8_, symObjAddr: 0x19A4, symBinAddr: 0x4284C, symSize: 0x3C }
  - { offset: 0x5766E, size: 0x8, addend: 0x0, symName: __RNvYNtNvNtCsdE2kXyKmOF1_11async_trait6expand29replace_impl_trait_with_infer25ReplaceImplTraitWithInferNtNtNtCs6IAuOt8vWmF_3syn3gen9visit_mut8VisitMut20visit_type_slice_mutB8_, symObjAddr: 0x19E0, symBinAddr: 0x42888, symSize: 0x3C }
  - { offset: 0x576B0, size: 0x8, addend: 0x0, symName: __RNvYNtNvNtCsdE2kXyKmOF1_11async_trait6expand29replace_impl_trait_with_infer25ReplaceImplTraitWithInferNtNtNtCs6IAuOt8vWmF_3syn3gen9visit_mut8VisitMut20visit_type_tuple_mutB8_, symObjAddr: 0x1A1C, symBinAddr: 0x428C4, symSize: 0x3C }
  - { offset: 0x576F2, size: 0x8, addend: 0x0, symName: __RNvYNtNvNtCsdE2kXyKmOF1_11async_trait6expand29replace_impl_trait_with_infer25ReplaceImplTraitWithInferNtNtNtCs6IAuOt8vWmF_3syn3gen9visit_mut8VisitMut20visit_use_rename_mutB8_, symObjAddr: 0x1A58, symBinAddr: 0x42900, symSize: 0x3C }
  - { offset: 0x57734, size: 0x8, addend: 0x0, symName: __RNvYNtNvNtCsdE2kXyKmOF1_11async_trait6expand29replace_impl_trait_with_infer25ReplaceImplTraitWithInferNtNtNtCs6IAuOt8vWmF_3syn3gen9visit_mut8VisitMut20visit_visibility_mutB8_, symObjAddr: 0x1A94, symBinAddr: 0x4293C, symSize: 0x3C }
  - { offset: 0x57776, size: 0x8, addend: 0x0, symName: __RNvYNtNvNtCsdE2kXyKmOF1_11async_trait6expand29replace_impl_trait_with_infer25ReplaceImplTraitWithInferNtNtNtCs6IAuOt8vWmF_3syn3gen9visit_mut8VisitMut21visit_assoc_const_mutB8_, symObjAddr: 0x1AD0, symBinAddr: 0x42978, symSize: 0x3C }
  - { offset: 0x577B5, size: 0x8, addend: 0x0, symName: __RNvYNtNvNtCsdE2kXyKmOF1_11async_trait6expand29replace_impl_trait_with_infer25ReplaceImplTraitWithInferNtNtNtCs6IAuOt8vWmF_3syn3gen9visit_mut8VisitMut21visit_bare_fn_arg_mutB8_, symObjAddr: 0x1B0C, symBinAddr: 0x429B4, symSize: 0x3C }
  - { offset: 0x577F4, size: 0x8, addend: 0x0, symName: __RNvYNtNvNtCsdE2kXyKmOF1_11async_trait6expand29replace_impl_trait_with_infer25ReplaceImplTraitWithInferNtNtNtCs6IAuOt8vWmF_3syn3gen9visit_mut8VisitMut21visit_const_param_mutB8_, symObjAddr: 0x1B48, symBinAddr: 0x429F0, symSize: 0x3C }
  - { offset: 0x57833, size: 0x8, addend: 0x0, symName: __RNvYNtNvNtCsdE2kXyKmOF1_11async_trait6expand29replace_impl_trait_with_infer25ReplaceImplTraitWithInferNtNtNtCs6IAuOt8vWmF_3syn3gen9visit_mut8VisitMut21visit_expr_assign_mutB8_, symObjAddr: 0x1B84, symBinAddr: 0x42A2C, symSize: 0x3C }
  - { offset: 0x57872, size: 0x8, addend: 0x0, symName: __RNvYNtNvNtCsdE2kXyKmOF1_11async_trait6expand29replace_impl_trait_with_infer25ReplaceImplTraitWithInferNtNtNtCs6IAuOt8vWmF_3syn3gen9visit_mut8VisitMut21visit_expr_binary_mutB8_, symObjAddr: 0x1BC0, symBinAddr: 0x42A68, symSize: 0x3C }
  - { offset: 0x578B1, size: 0x8, addend: 0x0, symName: __RNvYNtNvNtCsdE2kXyKmOF1_11async_trait6expand29replace_impl_trait_with_infer25ReplaceImplTraitWithInferNtNtNtCs6IAuOt8vWmF_3syn3gen9visit_mut8VisitMut21visit_expr_repeat_mutB8_, symObjAddr: 0x1BFC, symBinAddr: 0x42AA4, symSize: 0x3C }
  - { offset: 0x578F3, size: 0x8, addend: 0x0, symName: __RNvYNtNvNtCsdE2kXyKmOF1_11async_trait6expand29replace_impl_trait_with_infer25ReplaceImplTraitWithInferNtNtNtCs6IAuOt8vWmF_3syn3gen9visit_mut8VisitMut21visit_expr_return_mutB8_, symObjAddr: 0x1C38, symBinAddr: 0x42AE0, symSize: 0x3C }
  - { offset: 0x57935, size: 0x8, addend: 0x0, symName: __RNvYNtNvNtCsdE2kXyKmOF1_11async_trait6expand29replace_impl_trait_with_infer25ReplaceImplTraitWithInferNtNtNtCs6IAuOt8vWmF_3syn3gen9visit_mut8VisitMut21visit_expr_struct_mutB8_, symObjAddr: 0x1C74, symBinAddr: 0x42B1C, symSize: 0x3C }
  - { offset: 0x57977, size: 0x8, addend: 0x0, symName: __RNvYNtNvNtCsdE2kXyKmOF1_11async_trait6expand29replace_impl_trait_with_infer25ReplaceImplTraitWithInferNtNtNtCs6IAuOt8vWmF_3syn3gen9visit_mut8VisitMut21visit_expr_unsafe_mutB8_, symObjAddr: 0x1CB0, symBinAddr: 0x42B58, symSize: 0x3C }
  - { offset: 0x579B9, size: 0x8, addend: 0x0, symName: __RNvYNtNvNtCsdE2kXyKmOF1_11async_trait6expand29replace_impl_trait_with_infer25ReplaceImplTraitWithInferNtNtNtCs6IAuOt8vWmF_3syn3gen9visit_mut8VisitMut21visit_field_value_mutB8_, symObjAddr: 0x1CEC, symBinAddr: 0x42B94, symSize: 0x3C }
  - { offset: 0x579FB, size: 0x8, addend: 0x0, symName: __RNvYNtNvNtCsdE2kXyKmOF1_11async_trait6expand29replace_impl_trait_with_infer25ReplaceImplTraitWithInferNtNtNtCs6IAuOt8vWmF_3syn3gen9visit_mut8VisitMut21visit_item_static_mutB8_, symObjAddr: 0x1D28, symBinAddr: 0x42BD0, symSize: 0x3C }
  - { offset: 0x57A3D, size: 0x8, addend: 0x0, symName: __RNvYNtNvNtCsdE2kXyKmOF1_11async_trait6expand29replace_impl_trait_with_infer25ReplaceImplTraitWithInferNtNtNtCs6IAuOt8vWmF_3syn3gen9visit_mut8VisitMut21visit_item_struct_mutB8_, symObjAddr: 0x1D64, symBinAddr: 0x42C0C, symSize: 0x3C }
  - { offset: 0x57A7F, size: 0x8, addend: 0x0, symName: __RNvYNtNvNtCsdE2kXyKmOF1_11async_trait6expand29replace_impl_trait_with_infer25ReplaceImplTraitWithInferNtNtNtCs6IAuOt8vWmF_3syn3gen9visit_mut8VisitMut21visit_return_type_mutB8_, symObjAddr: 0x1DA0, symBinAddr: 0x42C48, symSize: 0x3C }
  - { offset: 0x57AC1, size: 0x8, addend: 0x0, symName: __RNvYNtNvNtCsdE2kXyKmOF1_11async_trait6expand29replace_impl_trait_with_infer25ReplaceImplTraitWithInferNtNtNtCs6IAuOt8vWmF_3syn3gen9visit_mut8VisitMut21visit_trait_bound_mutB8_, symObjAddr: 0x1DDC, symBinAddr: 0x42C84, symSize: 0x3C }
  - { offset: 0x57B03, size: 0x8, addend: 0x0, symName: __RNvYNtNvNtCsdE2kXyKmOF1_11async_trait6expand29replace_impl_trait_with_infer25ReplaceImplTraitWithInferNtNtNtCs6IAuOt8vWmF_3syn3gen9visit_mut8VisitMut22visit_expr_closure_mutB8_, symObjAddr: 0x1E18, symBinAddr: 0x42CC0, symSize: 0x3C }
  - { offset: 0x57B42, size: 0x8, addend: 0x0, symName: __RNvYNtNvNtCsdE2kXyKmOF1_11async_trait6expand29replace_impl_trait_with_infer25ReplaceImplTraitWithInferNtNtNtCs6IAuOt8vWmF_3syn3gen9visit_mut8VisitMut22visit_fields_named_mutB8_, symObjAddr: 0x1E54, symBinAddr: 0x42CFC, symSize: 0x3C }
  - { offset: 0x57B84, size: 0x8, addend: 0x0, symName: __RNvYNtNvNtCsdE2kXyKmOF1_11async_trait6expand29replace_impl_trait_with_infer25ReplaceImplTraitWithInferNtNtNtCs6IAuOt8vWmF_3syn3gen9visit_mut8VisitMut22visit_foreign_item_mutB8_, symObjAddr: 0x1E90, symBinAddr: 0x42D38, symSize: 0x3C }
  - { offset: 0x57BC6, size: 0x8, addend: 0x0, symName: __RNvYNtNvNtCsdE2kXyKmOF1_11async_trait6expand29replace_impl_trait_with_infer25ReplaceImplTraitWithInferNtNtNtCs6IAuOt8vWmF_3syn3gen9visit_mut8VisitMut22visit_impl_item_fn_mutB8_, symObjAddr: 0x1ECC, symBinAddr: 0x42D74, symSize: 0x3C }
  - { offset: 0x57C08, size: 0x8, addend: 0x0, symName: __RNvYNtNvNtCsdE2kXyKmOF1_11async_trait6expand29replace_impl_trait_with_infer25ReplaceImplTraitWithInferNtNtNtCs6IAuOt8vWmF_3syn3gen9visit_mut8VisitMut22visit_lit_byte_str_mutB8_, symObjAddr: 0x1F08, symBinAddr: 0x42DB0, symSize: 0x3C }
  - { offset: 0x57C4A, size: 0x8, addend: 0x0, symName: __RNvYNtNvNtCsdE2kXyKmOF1_11async_trait6expand29replace_impl_trait_with_infer25ReplaceImplTraitWithInferNtNtNtCs6IAuOt8vWmF_3syn3gen9visit_mut8VisitMut22visit_path_segment_mutB8_, symObjAddr: 0x1F44, symBinAddr: 0x42DEC, symSize: 0x3C }
  - { offset: 0x57C8C, size: 0x8, addend: 0x0, symName: __RNvYNtNvNtCsdE2kXyKmOF1_11async_trait6expand29replace_impl_trait_with_infer25ReplaceImplTraitWithInferNtNtNtCs6IAuOt8vWmF_3syn3gen9visit_mut8VisitMut22visit_range_limits_mutB8_, symObjAddr: 0x1F80, symBinAddr: 0x42E28, symSize: 0x3C }
  - { offset: 0x57CCE, size: 0x8, addend: 0x0, symName: __RNvYNtNvNtCsdE2kXyKmOF1_11async_trait6expand29replace_impl_trait_with_infer25ReplaceImplTraitWithInferNtNtNtCs6IAuOt8vWmF_3syn3gen9visit_mut8VisitMut22visit_token_stream_mutB8_, symObjAddr: 0x1FBC, symBinAddr: 0x42E64, symSize: 0x24 }
  - { offset: 0x57D10, size: 0x8, addend: 0x0, symName: __RNvYNtNvNtCsdE2kXyKmOF1_11async_trait6expand29replace_impl_trait_with_infer25ReplaceImplTraitWithInferNtNtNtCs6IAuOt8vWmF_3syn3gen9visit_mut8VisitMut22visit_type_bare_fn_mutB8_, symObjAddr: 0x1FE0, symBinAddr: 0x42E88, symSize: 0x3C }
  - { offset: 0x57D52, size: 0x8, addend: 0x0, symName: __RNvYNtNvNtCsdE2kXyKmOF1_11async_trait6expand29replace_impl_trait_with_infer25ReplaceImplTraitWithInferNtNtNtCs6IAuOt8vWmF_3syn3gen9visit_mut8VisitMut22visit_where_clause_mutB8_, symObjAddr: 0x201C, symBinAddr: 0x42EC4, symSize: 0x3C }
  - { offset: 0x57D94, size: 0x8, addend: 0x0, symName: __RNvYNtNvNtCsdE2kXyKmOF1_11async_trait6expand29replace_impl_trait_with_infer25ReplaceImplTraitWithInferNtNtNtCs6IAuOt8vWmF_3syn3gen9visit_mut8VisitMut23visit_bare_variadic_mutB8_, symObjAddr: 0x2058, symBinAddr: 0x42F00, symSize: 0x3C }
  - { offset: 0x57DD3, size: 0x8, addend: 0x0, symName: __RNvYNtNvNtCsdE2kXyKmOF1_11async_trait6expand29replace_impl_trait_with_infer25ReplaceImplTraitWithInferNtNtNtCs6IAuOt8vWmF_3syn3gen9visit_mut8VisitMut23visit_expr_continue_mutB8_, symObjAddr: 0x2094, symBinAddr: 0x42F3C, symSize: 0x3C }
  - { offset: 0x57E12, size: 0x8, addend: 0x0, symName: __RNvYNtNvNtCsdE2kXyKmOF1_11async_trait6expand29replace_impl_trait_with_infer25ReplaceImplTraitWithInferNtNtNtCs6IAuOt8vWmF_3syn3gen9visit_mut8VisitMut23visit_expr_for_loop_mutB8_, symObjAddr: 0x20D0, symBinAddr: 0x42F78, symSize: 0x3C }
  - { offset: 0x57E51, size: 0x8, addend: 0x0, symName: __RNvYNtNvNtCsdE2kXyKmOF1_11async_trait6expand29replace_impl_trait_with_infer25ReplaceImplTraitWithInferNtNtNtCs6IAuOt8vWmF_3syn3gen9visit_mut8VisitMut23visit_expr_raw_addr_mutB8_, symObjAddr: 0x210C, symBinAddr: 0x42FB4, symSize: 0x3C }
  - { offset: 0x57E93, size: 0x8, addend: 0x0, symName: __RNvYNtNvNtCsdE2kXyKmOF1_11async_trait6expand29replace_impl_trait_with_infer25ReplaceImplTraitWithInferNtNtNtCs6IAuOt8vWmF_3syn3gen9visit_mut8VisitMut23visit_generic_param_mutB8_, symObjAddr: 0x2148, symBinAddr: 0x42FF0, symSize: 0x3C }
  - { offset: 0x57ED5, size: 0x8, addend: 0x0, symName: __RNvYNtNvNtCsdE2kXyKmOF1_11async_trait6expand29replace_impl_trait_with_infer25ReplaceImplTraitWithInferNtNtNtCs6IAuOt8vWmF_3syn3gen9visit_mut8VisitMut23visit_pat_reference_mutB8_, symObjAddr: 0x2184, symBinAddr: 0x4302C, symSize: 0x3C }
  - { offset: 0x57F17, size: 0x8, addend: 0x0, symName: __RNvYNtNvNtCsdE2kXyKmOF1_11async_trait6expand29replace_impl_trait_with_infer25ReplaceImplTraitWithInferNtNtNtCs6IAuOt8vWmF_3syn3gen9visit_mut8VisitMut23visit_trait_item_fn_mutB8_, symObjAddr: 0x21C0, symBinAddr: 0x43068, symSize: 0x3C }
  - { offset: 0x57F59, size: 0x8, addend: 0x0, symName: __RNvYNtNvNtCsdE2kXyKmOF1_11async_trait6expand29replace_impl_trait_with_infer25ReplaceImplTraitWithInferNtNtNtCs6IAuOt8vWmF_3syn3gen9visit_mut8VisitMut24visit_captured_param_mutB8_, symObjAddr: 0x21FC, symBinAddr: 0x430A4, symSize: 0x3C }
  - { offset: 0x57F98, size: 0x8, addend: 0x0, symName: __RNvYNtNvNtCsdE2kXyKmOF1_11async_trait6expand29replace_impl_trait_with_infer25ReplaceImplTraitWithInferNtNtNtCs6IAuOt8vWmF_3syn3gen9visit_mut8VisitMut24visit_expr_reference_mutB8_, symObjAddr: 0x2238, symBinAddr: 0x430E0, symSize: 0x3C }
  - { offset: 0x57FDA, size: 0x8, addend: 0x0, symName: __RNvYNtNvNtCsdE2kXyKmOF1_11async_trait6expand29replace_impl_trait_with_infer25ReplaceImplTraitWithInferNtNtNtCs6IAuOt8vWmF_3syn3gen9visit_mut8VisitMut24visit_expr_try_block_mutB8_, symObjAddr: 0x2274, symBinAddr: 0x4311C, symSize: 0x3C }
  - { offset: 0x5801C, size: 0x8, addend: 0x0, symName: __RNvYNtNvNtCsdE2kXyKmOF1_11async_trait6expand29replace_impl_trait_with_infer25ReplaceImplTraitWithInferNtNtNtCs6IAuOt8vWmF_3syn3gen9visit_mut8VisitMut24visit_fields_unnamed_mutB8_, symObjAddr: 0x22B0, symBinAddr: 0x43158, symSize: 0x3C }
  - { offset: 0x5805E, size: 0x8, addend: 0x0, symName: __RNvYNtNvNtCsdE2kXyKmOF1_11async_trait6expand29replace_impl_trait_with_infer25ReplaceImplTraitWithInferNtNtNtCs6IAuOt8vWmF_3syn3gen9visit_mut8VisitMut24visit_impl_item_type_mutB8_, symObjAddr: 0x22EC, symBinAddr: 0x43194, symSize: 0x3C }
  - { offset: 0x580A0, size: 0x8, addend: 0x0, symName: __RNvYNtNvNtCsdE2kXyKmOF1_11async_trait6expand29replace_impl_trait_with_infer25ReplaceImplTraitWithInferNtNtNtCs6IAuOt8vWmF_3syn3gen9visit_mut8VisitMut24visit_lifetime_param_mutB8_, symObjAddr: 0x2328, symBinAddr: 0x431D0, symSize: 0x3C }
  - { offset: 0x580E2, size: 0x8, addend: 0x0, symName: __RNvYNtNvNtCsdE2kXyKmOF1_11async_trait6expand29replace_impl_trait_with_infer25ReplaceImplTraitWithInferNtNtNtCs6IAuOt8vWmF_3syn3gen9visit_mut8VisitMut24visit_path_arguments_mutB8_, symObjAddr: 0x2364, symBinAddr: 0x4320C, symSize: 0x3C }
  - { offset: 0x58124, size: 0x8, addend: 0x0, symName: __RNvYNtNvNtCsdE2kXyKmOF1_11async_trait6expand29replace_impl_trait_with_infer25ReplaceImplTraitWithInferNtNtNtCs6IAuOt8vWmF_3syn3gen9visit_mut8VisitMut24visit_predicate_type_mutB8_, symObjAddr: 0x23A0, symBinAddr: 0x43248, symSize: 0x3C }
  - { offset: 0x58166, size: 0x8, addend: 0x0, symName: __RNvYNtNvNtCsdE2kXyKmOF1_11async_trait6expand29replace_impl_trait_with_infer25ReplaceImplTraitWithInferNtNtNtCs6IAuOt8vWmF_3syn3gen9visit_mut8VisitMut24visit_type_reference_mutB8_, symObjAddr: 0x23DC, symBinAddr: 0x43284, symSize: 0x3C }
  - { offset: 0x581A8, size: 0x8, addend: 0x0, symName: __RNvYNtNvNtCsdE2kXyKmOF1_11async_trait6expand29replace_impl_trait_with_infer25ReplaceImplTraitWithInferNtNtNtCs6IAuOt8vWmF_3syn3gen9visit_mut8VisitMut24visit_vis_restricted_mutB8_, symObjAddr: 0x2418, symBinAddr: 0x432C0, symSize: 0x3C }
  - { offset: 0x581EA, size: 0x8, addend: 0x0, symName: __RNvYNtNvNtCsdE2kXyKmOF1_11async_trait6expand29replace_impl_trait_with_infer25ReplaceImplTraitWithInferNtNtNtCs6IAuOt8vWmF_3syn3gen9visit_mut8VisitMut25visit_bound_lifetimes_mutB8_, symObjAddr: 0x2454, symBinAddr: 0x432FC, symSize: 0x3C }
  - { offset: 0x58229, size: 0x8, addend: 0x0, symName: __RNvYNtNvNtCsdE2kXyKmOF1_11async_trait6expand29replace_impl_trait_with_infer25ReplaceImplTraitWithInferNtNtNtCs6IAuOt8vWmF_3syn3gen9visit_mut8VisitMut25visit_foreign_item_fn_mutB8_, symObjAddr: 0x2490, symBinAddr: 0x43338, symSize: 0x3C }
  - { offset: 0x5826B, size: 0x8, addend: 0x0, symName: __RNvYNtNvNtCsdE2kXyKmOF1_11async_trait6expand29replace_impl_trait_with_infer25ReplaceImplTraitWithInferNtNtNtCs6IAuOt8vWmF_3syn3gen9visit_mut8VisitMut25visit_impl_item_const_mutB8_, symObjAddr: 0x24CC, symBinAddr: 0x43374, symSize: 0x3C }
  - { offset: 0x582AD, size: 0x8, addend: 0x0, symName: __RNvYNtNvNtCsdE2kXyKmOF1_11async_trait6expand29replace_impl_trait_with_infer25ReplaceImplTraitWithInferNtNtNtCs6IAuOt8vWmF_3syn3gen9visit_mut8VisitMut25visit_impl_item_macro_mutB8_, symObjAddr: 0x2508, symBinAddr: 0x433B0, symSize: 0x3C }
  - { offset: 0x582EF, size: 0x8, addend: 0x0, symName: __RNvYNtNvNtCsdE2kXyKmOF1_11async_trait6expand29replace_impl_trait_with_infer25ReplaceImplTraitWithInferNtNtNtCs6IAuOt8vWmF_3syn3gen9visit_mut8VisitMut25visit_macro_delimiter_mutB8_, symObjAddr: 0x2544, symBinAddr: 0x433EC, symSize: 0x3C }
  - { offset: 0x58331, size: 0x8, addend: 0x0, symName: __RNvYNtNvNtCsdE2kXyKmOF1_11async_trait6expand29replace_impl_trait_with_infer25ReplaceImplTraitWithInferNtNtNtCs6IAuOt8vWmF_3syn3gen9visit_mut8VisitMut25visit_meta_name_value_mutB8_, symObjAddr: 0x2580, symBinAddr: 0x43428, symSize: 0x3C }
  - { offset: 0x58373, size: 0x8, addend: 0x0, symName: __RNvYNtNvNtCsdE2kXyKmOF1_11async_trait6expand29replace_impl_trait_with_infer25ReplaceImplTraitWithInferNtNtNtCs6IAuOt8vWmF_3syn3gen9visit_mut8VisitMut25visit_precise_capture_mutB8_, symObjAddr: 0x25BC, symBinAddr: 0x43464, symSize: 0x3C }
  - { offset: 0x583B5, size: 0x8, addend: 0x0, symName: __RNvYNtNvNtCsdE2kXyKmOF1_11async_trait6expand29replace_impl_trait_with_infer25ReplaceImplTraitWithInferNtNtNtCs6IAuOt8vWmF_3syn3gen9visit_mut8VisitMut25visit_trait_item_type_mutB8_, symObjAddr: 0x25F8, symBinAddr: 0x434A0, symSize: 0x3C }
  - { offset: 0x583F7, size: 0x8, addend: 0x0, symName: __RNvYNtNvNtCsdE2kXyKmOF1_11async_trait6expand29replace_impl_trait_with_infer25ReplaceImplTraitWithInferNtNtNtCs6IAuOt8vWmF_3syn3gen9visit_mut8VisitMut25visit_type_impl_trait_mutB8_, symObjAddr: 0x2634, symBinAddr: 0x434DC, symSize: 0x3C }
  - { offset: 0x58439, size: 0x8, addend: 0x0, symName: __RNvYNtNvNtCsdE2kXyKmOF1_11async_trait6expand29replace_impl_trait_with_infer25ReplaceImplTraitWithInferNtNtNtCs6IAuOt8vWmF_3syn3gen9visit_mut8VisitMut25visit_where_predicate_mutB8_, symObjAddr: 0x2670, symBinAddr: 0x43518, symSize: 0x3C }
  - { offset: 0x5847B, size: 0x8, addend: 0x0, symName: __RNvYNtNvNtCsdE2kXyKmOF1_11async_trait6expand29replace_impl_trait_with_infer25ReplaceImplTraitWithInferNtNtNtCs6IAuOt8vWmF_3syn3gen9visit_mut8VisitMut26visit_expr_method_call_mutB8_, symObjAddr: 0x26AC, symBinAddr: 0x43554, symSize: 0x3C }
  - { offset: 0x584BD, size: 0x8, addend: 0x0, symName: __RNvYNtNvNtCsdE2kXyKmOF1_11async_trait6expand29replace_impl_trait_with_infer25ReplaceImplTraitWithInferNtNtNtCs6IAuOt8vWmF_3syn3gen9visit_mut8VisitMut26visit_field_mutability_mutB8_, symObjAddr: 0x26E8, symBinAddr: 0x43590, symSize: 0x3C }
  - { offset: 0x584FF, size: 0x8, addend: 0x0, symName: __RNvYNtNvNtCsdE2kXyKmOF1_11async_trait6expand29replace_impl_trait_with_infer25ReplaceImplTraitWithInferNtNtNtCs6IAuOt8vWmF_3syn3gen9visit_mut8VisitMut26visit_generic_argument_mutB8_, symObjAddr: 0x2724, symBinAddr: 0x435CC, symSize: 0x3C }
  - { offset: 0x58541, size: 0x8, addend: 0x0, symName: __RNvYNtNvNtCsdE2kXyKmOF1_11async_trait6expand29replace_impl_trait_with_infer25ReplaceImplTraitWithInferNtNtNtCs6IAuOt8vWmF_3syn3gen9visit_mut8VisitMut26visit_item_foreign_mod_mutB8_, symObjAddr: 0x2760, symBinAddr: 0x43608, symSize: 0x3C }
  - { offset: 0x58583, size: 0x8, addend: 0x0, symName: __RNvYNtNvNtCsdE2kXyKmOF1_11async_trait6expand29replace_impl_trait_with_infer25ReplaceImplTraitWithInferNtNtNtCs6IAuOt8vWmF_3syn3gen9visit_mut8VisitMut26visit_item_trait_alias_mutB8_, symObjAddr: 0x279C, symBinAddr: 0x43644, symSize: 0x3C }
  - { offset: 0x585C5, size: 0x8, addend: 0x0, symName: __RNvYNtNvNtCsdE2kXyKmOF1_11async_trait6expand29replace_impl_trait_with_infer25ReplaceImplTraitWithInferNtNtNtCs6IAuOt8vWmF_3syn3gen9visit_mut8VisitMut26visit_pat_tuple_struct_mutB8_, symObjAddr: 0x27D8, symBinAddr: 0x43680, symSize: 0x3C }
  - { offset: 0x58607, size: 0x8, addend: 0x0, symName: __RNvYNtNvNtCsdE2kXyKmOF1_11async_trait6expand29replace_impl_trait_with_infer25ReplaceImplTraitWithInferNtNtNtCs6IAuOt8vWmF_3syn3gen9visit_mut8VisitMut26visit_trait_item_const_mutB8_, symObjAddr: 0x2814, symBinAddr: 0x436BC, symSize: 0x3C }
  - { offset: 0x58649, size: 0x8, addend: 0x0, symName: __RNvYNtNvNtCsdE2kXyKmOF1_11async_trait6expand29replace_impl_trait_with_infer25ReplaceImplTraitWithInferNtNtNtCs6IAuOt8vWmF_3syn3gen9visit_mut8VisitMut26visit_trait_item_macro_mutB8_, symObjAddr: 0x2850, symBinAddr: 0x436F8, symSize: 0x3C }
  - { offset: 0x5868B, size: 0x8, addend: 0x0, symName: __RNvYNtNvNtCsdE2kXyKmOF1_11async_trait6expand29replace_impl_trait_with_infer25ReplaceImplTraitWithInferNtNtNtCs6IAuOt8vWmF_3syn3gen9visit_mut8VisitMut26visit_type_param_bound_mutB8_, symObjAddr: 0x288C, symBinAddr: 0x43734, symSize: 0x3C }
  - { offset: 0x586CD, size: 0x8, addend: 0x0, symName: __RNvYNtNvNtCsdE2kXyKmOF1_11async_trait6expand29replace_impl_trait_with_infer25ReplaceImplTraitWithInferNtNtNtCs6IAuOt8vWmF_3syn3gen9visit_mut8VisitMut27visit_foreign_item_type_mutB8_, symObjAddr: 0x28C8, symBinAddr: 0x43770, symSize: 0x3C }
  - { offset: 0x5870F, size: 0x8, addend: 0x0, symName: __RNvYNtNvNtCsdE2kXyKmOF1_11async_trait6expand29replace_impl_trait_with_infer25ReplaceImplTraitWithInferNtNtNtCs6IAuOt8vWmF_3syn3gen9visit_mut8VisitMut27visit_item_extern_crate_mutB8_, symObjAddr: 0x2904, symBinAddr: 0x437AC, symSize: 0x3C }
  - { offset: 0x58751, size: 0x8, addend: 0x0, symName: __RNvYNtNvNtCsdE2kXyKmOF1_11async_trait6expand29replace_impl_trait_with_infer25ReplaceImplTraitWithInferNtNtNtCs6IAuOt8vWmF_3syn3gen9visit_mut8VisitMut27visit_static_mutability_mutB8_, symObjAddr: 0x2940, symBinAddr: 0x437E8, symSize: 0x3C }
  - { offset: 0x58793, size: 0x8, addend: 0x0, symName: __RNvYNtNvNtCsdE2kXyKmOF1_11async_trait6expand29replace_impl_trait_with_infer25ReplaceImplTraitWithInferNtNtNtCs6IAuOt8vWmF_3syn3gen9visit_mut8VisitMut27visit_type_trait_object_mutB8_, symObjAddr: 0x297C, symBinAddr: 0x43824, symSize: 0x3C }
  - { offset: 0x587D5, size: 0x8, addend: 0x0, symName: __RNvYNtNvNtCsdE2kXyKmOF1_11async_trait6expand29replace_impl_trait_with_infer25ReplaceImplTraitWithInferNtNtNtCs6IAuOt8vWmF_3syn3gen9visit_mut8VisitMut28visit_foreign_item_macro_mutB8_, symObjAddr: 0x29B8, symBinAddr: 0x43860, symSize: 0x3C }
  - { offset: 0x58817, size: 0x8, addend: 0x0, symName: __RNvYNtNvNtCsdE2kXyKmOF1_11async_trait6expand29replace_impl_trait_with_infer25ReplaceImplTraitWithInferNtNtNtCs6IAuOt8vWmF_3syn3gen9visit_mut8VisitMut28visit_pointer_mutability_mutB8_, symObjAddr: 0x29F4, symBinAddr: 0x4389C, symSize: 0x3C }
  - { offset: 0x58859, size: 0x8, addend: 0x0, symName: __RNvYNtNvNtCsdE2kXyKmOF1_11async_trait6expand29replace_impl_trait_with_infer25ReplaceImplTraitWithInferNtNtNtCs6IAuOt8vWmF_3syn3gen9visit_mut8VisitMut28visit_predicate_lifetime_mutB8_, symObjAddr: 0x2A30, symBinAddr: 0x438D8, symSize: 0x3C }
  - { offset: 0x5889B, size: 0x8, addend: 0x0, symName: __RNvYNtNvNtCsdE2kXyKmOF1_11async_trait6expand29replace_impl_trait_with_infer25ReplaceImplTraitWithInferNtNtNtCs6IAuOt8vWmF_3syn3gen9visit_mut8VisitMut29visit_foreign_item_static_mutB8_, symObjAddr: 0x2A6C, symBinAddr: 0x43914, symSize: 0x3C }
  - { offset: 0x588DD, size: 0x8, addend: 0x0, symName: __RNvYNtNvNtCsdE2kXyKmOF1_11async_trait6expand29replace_impl_trait_with_infer25ReplaceImplTraitWithInferNtNtNtCs6IAuOt8vWmF_3syn3gen9visit_mut8VisitMut30visit_trait_bound_modifier_mutB8_, symObjAddr: 0x2AA8, symBinAddr: 0x43950, symSize: 0x3C }
  - { offset: 0x5891F, size: 0x8, addend: 0x0, symName: __RNvYNtNvNtCsdE2kXyKmOF1_11async_trait6expand29replace_impl_trait_with_infer25ReplaceImplTraitWithInferNtNtNtCs6IAuOt8vWmF_3syn3gen9visit_mut8VisitMut41visit_parenthesized_generic_arguments_mutB8_, symObjAddr: 0x2AE4, symBinAddr: 0x4398C, symSize: 0x3C }
  - { offset: 0x58961, size: 0x8, addend: 0x0, symName: __RNvYNtNvNtCsdE2kXyKmOF1_11async_trait6expand29replace_impl_trait_with_infer25ReplaceImplTraitWithInferNtNtNtCs6IAuOt8vWmF_3syn3gen9visit_mut8VisitMut43visit_angle_bracketed_generic_arguments_mutB8_, symObjAddr: 0x2B20, symBinAddr: 0x439C8, symSize: 0x3C }
  - { offset: 0x589A0, size: 0x8, addend: 0x0, symName: __RNvYNtNvNtCsdE2kXyKmOF1_11async_trait6expand35contains_associated_type_impl_trait24AssociatedTypeImplTraitsNtNtNtCs6IAuOt8vWmF_3syn3gen9visit_mut8VisitMut13visit_abi_mutB8_, symObjAddr: 0x2B5C, symBinAddr: 0x43A04, symSize: 0x3C }
  - { offset: 0x589DF, size: 0x8, addend: 0x0, symName: __RNvYNtNvNtCsdE2kXyKmOF1_11async_trait6expand35contains_associated_type_impl_trait24AssociatedTypeImplTraitsNtNtNtCs6IAuOt8vWmF_3syn3gen9visit_mut8VisitMut13visit_arm_mutB8_, symObjAddr: 0x2B98, symBinAddr: 0x43A40, symSize: 0x3C }
  - { offset: 0x58A1E, size: 0x8, addend: 0x0, symName: __RNvYNtNvNtCsdE2kXyKmOF1_11async_trait6expand35contains_associated_type_impl_trait24AssociatedTypeImplTraitsNtNtNtCs6IAuOt8vWmF_3syn3gen9visit_mut8VisitMut13visit_lit_mutB8_, symObjAddr: 0x2BD4, symBinAddr: 0x43A7C, symSize: 0x3C }
  - { offset: 0x58A60, size: 0x8, addend: 0x0, symName: __RNvYNtNvNtCsdE2kXyKmOF1_11async_trait6expand35contains_associated_type_impl_trait24AssociatedTypeImplTraitsNtNtNtCs6IAuOt8vWmF_3syn3gen9visit_mut8VisitMut13visit_pat_mutB8_, symObjAddr: 0x2C10, symBinAddr: 0x43AB8, symSize: 0x3C }
  - { offset: 0x58AA2, size: 0x8, addend: 0x0, symName: __RNvYNtNvNtCsdE2kXyKmOF1_11async_trait6expand35contains_associated_type_impl_trait24AssociatedTypeImplTraitsNtNtNtCs6IAuOt8vWmF_3syn3gen9visit_mut8VisitMut14visit_expr_mutB8_, symObjAddr: 0x2C4C, symBinAddr: 0x43AF4, symSize: 0x3C }
  - { offset: 0x58AE1, size: 0x8, addend: 0x0, symName: __RNvYNtNvNtCsdE2kXyKmOF1_11async_trait6expand35contains_associated_type_impl_trait24AssociatedTypeImplTraitsNtNtNtCs6IAuOt8vWmF_3syn3gen9visit_mut8VisitMut14visit_item_mutB8_, symObjAddr: 0x2C88, symBinAddr: 0x43B30, symSize: 0x3C }
  - { offset: 0x58B23, size: 0x8, addend: 0x0, symName: __RNvYNtNvNtCsdE2kXyKmOF1_11async_trait6expand35contains_associated_type_impl_trait24AssociatedTypeImplTraitsNtNtNtCs6IAuOt8vWmF_3syn3gen9visit_mut8VisitMut14visit_meta_mutB8_, symObjAddr: 0x2CC4, symBinAddr: 0x43B6C, symSize: 0x3C }
  - { offset: 0x58B65, size: 0x8, addend: 0x0, symName: __RNvYNtNvNtCsdE2kXyKmOF1_11async_trait6expand35contains_associated_type_impl_trait24AssociatedTypeImplTraitsNtNtNtCs6IAuOt8vWmF_3syn3gen9visit_mut8VisitMut14visit_path_mutB8_, symObjAddr: 0x2D00, symBinAddr: 0x43BA8, symSize: 0x3C }
  - { offset: 0x58BA7, size: 0x8, addend: 0x0, symName: __RNvYNtNvNtCsdE2kXyKmOF1_11async_trait6expand35contains_associated_type_impl_trait24AssociatedTypeImplTraitsNtNtNtCs6IAuOt8vWmF_3syn3gen9visit_mut8VisitMut14visit_span_mutB8_, symObjAddr: 0x2D3C, symBinAddr: 0x43BE4, symSize: 0x24 }
  - { offset: 0x58BE9, size: 0x8, addend: 0x0, symName: __RNvYNtNvNtCsdE2kXyKmOF1_11async_trait6expand35contains_associated_type_impl_trait24AssociatedTypeImplTraitsNtNtNtCs6IAuOt8vWmF_3syn3gen9visit_mut8VisitMut14visit_stmt_mutB8_, symObjAddr: 0x2D60, symBinAddr: 0x43C08, symSize: 0x3C }
  - { offset: 0x58C2B, size: 0x8, addend: 0x0, symName: __RNvYNtNvNtCsdE2kXyKmOF1_11async_trait6expand35contains_associated_type_impl_trait24AssociatedTypeImplTraitsNtNtNtCs6IAuOt8vWmF_3syn3gen9visit_mut8VisitMut14visit_type_mutB8_, symObjAddr: 0x2D9C, symBinAddr: 0x43C44, symSize: 0x3C }
  - { offset: 0x58C6D, size: 0x8, addend: 0x0, symName: __RNvYNtNvNtCsdE2kXyKmOF1_11async_trait6expand35contains_associated_type_impl_trait24AssociatedTypeImplTraitsNtNtNtCs6IAuOt8vWmF_3syn3gen9visit_mut8VisitMut15visit_block_mutB8_, symObjAddr: 0x2DD8, symBinAddr: 0x43C80, symSize: 0x3C }
  - { offset: 0x58CAC, size: 0x8, addend: 0x0, symName: __RNvYNtNvNtCsdE2kXyKmOF1_11async_trait6expand35contains_associated_type_impl_trait24AssociatedTypeImplTraitsNtNtNtCs6IAuOt8vWmF_3syn3gen9visit_mut8VisitMut15visit_field_mutB8_, symObjAddr: 0x2E14, symBinAddr: 0x43CBC, symSize: 0x3C }
  - { offset: 0x58CEE, size: 0x8, addend: 0x0, symName: __RNvYNtNvNtCsdE2kXyKmOF1_11async_trait6expand35contains_associated_type_impl_trait24AssociatedTypeImplTraitsNtNtNtCs6IAuOt8vWmF_3syn3gen9visit_mut8VisitMut15visit_ident_mutB8_, symObjAddr: 0x2E50, symBinAddr: 0x43CF8, symSize: 0x3C }
  - { offset: 0x58D30, size: 0x8, addend: 0x0, symName: __RNvYNtNvNtCsdE2kXyKmOF1_11async_trait6expand35contains_associated_type_impl_trait24AssociatedTypeImplTraitsNtNtNtCs6IAuOt8vWmF_3syn3gen9visit_mut8VisitMut15visit_index_mutB8_, symObjAddr: 0x2E8C, symBinAddr: 0x43D34, symSize: 0x3C }
  - { offset: 0x58D72, size: 0x8, addend: 0x0, symName: __RNvYNtNvNtCsdE2kXyKmOF1_11async_trait6expand35contains_associated_type_impl_trait24AssociatedTypeImplTraitsNtNtNtCs6IAuOt8vWmF_3syn3gen9visit_mut8VisitMut15visit_label_mutB8_, symObjAddr: 0x2EC8, symBinAddr: 0x43D70, symSize: 0x3C }
  - { offset: 0x58DB4, size: 0x8, addend: 0x0, symName: __RNvYNtNvNtCsdE2kXyKmOF1_11async_trait6expand35contains_associated_type_impl_trait24AssociatedTypeImplTraitsNtNtNtCs6IAuOt8vWmF_3syn3gen9visit_mut8VisitMut15visit_local_mutB8_, symObjAddr: 0x2F04, symBinAddr: 0x43DAC, symSize: 0x3C }
  - { offset: 0x58DF6, size: 0x8, addend: 0x0, symName: __RNvYNtNvNtCsdE2kXyKmOF1_11async_trait6expand35contains_associated_type_impl_trait24AssociatedTypeImplTraitsNtNtNtCs6IAuOt8vWmF_3syn3gen9visit_mut8VisitMut15visit_macro_mutB8_, symObjAddr: 0x2F40, symBinAddr: 0x43DE8, symSize: 0x3C }
  - { offset: 0x58E38, size: 0x8, addend: 0x0, symName: __RNvYNtNvNtCsdE2kXyKmOF1_11async_trait6expand35contains_associated_type_impl_trait24AssociatedTypeImplTraitsNtNtNtCs6IAuOt8vWmF_3syn3gen9visit_mut8VisitMut15visit_qself_mutB8_, symObjAddr: 0x2F7C, symBinAddr: 0x43E24, symSize: 0x3C }
  - { offset: 0x58E7A, size: 0x8, addend: 0x0, symName: __RNvYNtNvNtCsdE2kXyKmOF1_11async_trait6expand35contains_associated_type_impl_trait24AssociatedTypeImplTraitsNtNtNtCs6IAuOt8vWmF_3syn3gen9visit_mut8VisitMut15visit_un_op_mutB8_, symObjAddr: 0x2FB8, symBinAddr: 0x43E60, symSize: 0x3C }
  - { offset: 0x58EBC, size: 0x8, addend: 0x0, symName: __RNvYNtNvNtCsdE2kXyKmOF1_11async_trait6expand35contains_associated_type_impl_trait24AssociatedTypeImplTraitsNtNtNtCs6IAuOt8vWmF_3syn3gen9visit_mut8VisitMut16visit_bin_op_mutB8_, symObjAddr: 0x2FF4, symBinAddr: 0x43E9C, symSize: 0x3C }
  - { offset: 0x58EFB, size: 0x8, addend: 0x0, symName: __RNvYNtNvNtCsdE2kXyKmOF1_11async_trait6expand35contains_associated_type_impl_trait24AssociatedTypeImplTraitsNtNtNtCs6IAuOt8vWmF_3syn3gen9visit_mut8VisitMut16visit_fields_mutB8_, symObjAddr: 0x3030, symBinAddr: 0x43ED8, symSize: 0x3C }
  - { offset: 0x58F3D, size: 0x8, addend: 0x0, symName: __RNvYNtNvNtCsdE2kXyKmOF1_11async_trait6expand35contains_associated_type_impl_trait24AssociatedTypeImplTraitsNtNtNtCs6IAuOt8vWmF_3syn3gen9visit_mut8VisitMut16visit_fn_arg_mutB8_, symObjAddr: 0x306C, symBinAddr: 0x43F14, symSize: 0x3C }
  - { offset: 0x58F7F, size: 0x8, addend: 0x0, symName: __RNvYNtNvNtCsdE2kXyKmOF1_11async_trait6expand35contains_associated_type_impl_trait24AssociatedTypeImplTraitsNtNtNtCs6IAuOt8vWmF_3syn3gen9visit_mut8VisitMut16visit_member_mutB8_, symObjAddr: 0x30A8, symBinAddr: 0x43F50, symSize: 0x3C }
  - { offset: 0x58FC1, size: 0x8, addend: 0x0, symName: __RNvYNtNvNtCsdE2kXyKmOF1_11async_trait6expand35contains_associated_type_impl_trait24AssociatedTypeImplTraitsNtNtNtCs6IAuOt8vWmF_3syn3gen9visit_mut8VisitMut16visit_pat_or_mutB8_, symObjAddr: 0x30E4, symBinAddr: 0x43F8C, symSize: 0x3C }
  - { offset: 0x59003, size: 0x8, addend: 0x0, symName: __RNvYNtNvNtCsdE2kXyKmOF1_11async_trait6expand35contains_associated_type_impl_trait24AssociatedTypeImplTraitsNtNtNtCs6IAuOt8vWmF_3syn3gen9visit_mut8VisitMut17visit_expr_if_mutB8_, symObjAddr: 0x3120, symBinAddr: 0x43FC8, symSize: 0x3C }
  - { offset: 0x59042, size: 0x8, addend: 0x0, symName: __RNvYNtNvNtCsdE2kXyKmOF1_11async_trait6expand35contains_associated_type_impl_trait24AssociatedTypeImplTraitsNtNtNtCs6IAuOt8vWmF_3syn3gen9visit_mut8VisitMut17visit_item_fn_mutB8_, symObjAddr: 0x315C, symBinAddr: 0x44004, symSize: 0x3C }
  - { offset: 0x59084, size: 0x8, addend: 0x0, symName: __RNvYNtNvNtCsdE2kXyKmOF1_11async_trait6expand35contains_associated_type_impl_trait24AssociatedTypeImplTraitsNtNtNtCs6IAuOt8vWmF_3syn3gen9visit_mut8VisitMut17visit_lit_int_mutB8_, symObjAddr: 0x3198, symBinAddr: 0x44040, symSize: 0x3C }
  - { offset: 0x590C6, size: 0x8, addend: 0x0, symName: __RNvYNtNvNtCsdE2kXyKmOF1_11async_trait6expand35contains_associated_type_impl_trait24AssociatedTypeImplTraitsNtNtNtCs6IAuOt8vWmF_3syn3gen9visit_mut8VisitMut17visit_lit_str_mutB8_, symObjAddr: 0x31D4, symBinAddr: 0x4407C, symSize: 0x3C }
  - { offset: 0x59108, size: 0x8, addend: 0x0, symName: __RNvYNtNvNtCsdE2kXyKmOF1_11async_trait6expand35contains_associated_type_impl_trait24AssociatedTypeImplTraitsNtNtNtCs6IAuOt8vWmF_3syn3gen9visit_mut8VisitMut17visit_variant_mutB8_, symObjAddr: 0x3210, symBinAddr: 0x440B8, symSize: 0x3C }
  - { offset: 0x5914A, size: 0x8, addend: 0x0, symName: __RNvYNtNvNtCsdE2kXyKmOF1_11async_trait6expand35contains_associated_type_impl_trait24AssociatedTypeImplTraitsNtNtNtCs6IAuOt8vWmF_3syn3gen9visit_mut8VisitMut18visit_expr_let_mutB8_, symObjAddr: 0x324C, symBinAddr: 0x440F4, symSize: 0x3C }
  - { offset: 0x59189, size: 0x8, addend: 0x0, symName: __RNvYNtNvNtCsdE2kXyKmOF1_11async_trait6expand35contains_associated_type_impl_trait24AssociatedTypeImplTraitsNtNtNtCs6IAuOt8vWmF_3syn3gen9visit_mut8VisitMut18visit_expr_lit_mutB8_, symObjAddr: 0x3288, symBinAddr: 0x44130, symSize: 0x3C }
  - { offset: 0x591C8, size: 0x8, addend: 0x0, symName: __RNvYNtNvNtCsdE2kXyKmOF1_11async_trait6expand35contains_associated_type_impl_trait24AssociatedTypeImplTraitsNtNtNtCs6IAuOt8vWmF_3syn3gen9visit_mut8VisitMut18visit_expr_try_mutB8_, symObjAddr: 0x32C4, symBinAddr: 0x4416C, symSize: 0x3C }
  - { offset: 0x5920A, size: 0x8, addend: 0x0, symName: __RNvYNtNvNtCsdE2kXyKmOF1_11async_trait6expand35contains_associated_type_impl_trait24AssociatedTypeImplTraitsNtNtNtCs6IAuOt8vWmF_3syn3gen9visit_mut8VisitMut18visit_generics_mutB8_, symObjAddr: 0x3300, symBinAddr: 0x441A8, symSize: 0x3C }
  - { offset: 0x5924C, size: 0x8, addend: 0x0, symName: __RNvYNtNvNtCsdE2kXyKmOF1_11async_trait6expand35contains_associated_type_impl_trait24AssociatedTypeImplTraitsNtNtNtCs6IAuOt8vWmF_3syn3gen9visit_mut8VisitMut18visit_item_mod_mutB8_, symObjAddr: 0x333C, symBinAddr: 0x441E4, symSize: 0x3C }
  - { offset: 0x5928E, size: 0x8, addend: 0x0, symName: __RNvYNtNvNtCsdE2kXyKmOF1_11async_trait6expand35contains_associated_type_impl_trait24AssociatedTypeImplTraitsNtNtNtCs6IAuOt8vWmF_3syn3gen9visit_mut8VisitMut18visit_item_use_mutB8_, symObjAddr: 0x3378, symBinAddr: 0x44220, symSize: 0x3C }
  - { offset: 0x592D0, size: 0x8, addend: 0x0, symName: __RNvYNtNvNtCsdE2kXyKmOF1_11async_trait6expand35contains_associated_type_impl_trait24AssociatedTypeImplTraitsNtNtNtCs6IAuOt8vWmF_3syn3gen9visit_mut8VisitMut18visit_lifetime_mutB8_, symObjAddr: 0x33B4, symBinAddr: 0x4425C, symSize: 0x3C }
  - { offset: 0x59312, size: 0x8, addend: 0x0, symName: __RNvYNtNvNtCsdE2kXyKmOF1_11async_trait6expand35contains_associated_type_impl_trait24AssociatedTypeImplTraitsNtNtNtCs6IAuOt8vWmF_3syn3gen9visit_mut8VisitMut18visit_lit_bool_mutB8_, symObjAddr: 0x33F0, symBinAddr: 0x44298, symSize: 0x3C }
  - { offset: 0x59354, size: 0x8, addend: 0x0, symName: __RNvYNtNvNtCsdE2kXyKmOF1_11async_trait6expand35contains_associated_type_impl_trait24AssociatedTypeImplTraitsNtNtNtCs6IAuOt8vWmF_3syn3gen9visit_mut8VisitMut18visit_lit_byte_mutB8_, symObjAddr: 0x342C, symBinAddr: 0x442D4, symSize: 0x3C }
  - { offset: 0x59396, size: 0x8, addend: 0x0, symName: __RNvYNtNvNtCsdE2kXyKmOF1_11async_trait6expand35contains_associated_type_impl_trait24AssociatedTypeImplTraitsNtNtNtCs6IAuOt8vWmF_3syn3gen9visit_mut8VisitMut18visit_lit_char_mutB8_, symObjAddr: 0x3468, symBinAddr: 0x44310, symSize: 0x3C }
  - { offset: 0x593D8, size: 0x8, addend: 0x0, symName: __RNvYNtNvNtCsdE2kXyKmOF1_11async_trait6expand35contains_associated_type_impl_trait24AssociatedTypeImplTraitsNtNtNtCs6IAuOt8vWmF_3syn3gen9visit_mut8VisitMut18visit_lit_cstr_mutB8_, symObjAddr: 0x34A4, symBinAddr: 0x4434C, symSize: 0x3C }
  - { offset: 0x5941A, size: 0x8, addend: 0x0, symName: __RNvYNtNvNtCsdE2kXyKmOF1_11async_trait6expand35contains_associated_type_impl_trait24AssociatedTypeImplTraitsNtNtNtCs6IAuOt8vWmF_3syn3gen9visit_mut8VisitMut18visit_pat_rest_mutB8_, symObjAddr: 0x34E0, symBinAddr: 0x44388, symSize: 0x3C }
  - { offset: 0x5945C, size: 0x8, addend: 0x0, symName: __RNvYNtNvNtCsdE2kXyKmOF1_11async_trait6expand35contains_associated_type_impl_trait24AssociatedTypeImplTraitsNtNtNtCs6IAuOt8vWmF_3syn3gen9visit_mut8VisitMut18visit_pat_type_mutB8_, symObjAddr: 0x351C, symBinAddr: 0x443C4, symSize: 0x3C }
  - { offset: 0x5949E, size: 0x8, addend: 0x0, symName: __RNvYNtNvNtCsdE2kXyKmOF1_11async_trait6expand35contains_associated_type_impl_trait24AssociatedTypeImplTraitsNtNtNtCs6IAuOt8vWmF_3syn3gen9visit_mut8VisitMut18visit_pat_wild_mutB8_, symObjAddr: 0x3558, symBinAddr: 0x44400, symSize: 0x3C }
  - { offset: 0x594E0, size: 0x8, addend: 0x0, symName: __RNvYNtNvNtCsdE2kXyKmOF1_11async_trait6expand35contains_associated_type_impl_trait24AssociatedTypeImplTraitsNtNtNtCs6IAuOt8vWmF_3syn3gen9visit_mut8VisitMut18visit_receiver_mutB8_, symObjAddr: 0x3594, symBinAddr: 0x4443C, symSize: 0x3C }
  - { offset: 0x59522, size: 0x8, addend: 0x0, symName: __RNvYNtNvNtCsdE2kXyKmOF1_11async_trait6expand35contains_associated_type_impl_trait24AssociatedTypeImplTraitsNtNtNtCs6IAuOt8vWmF_3syn3gen9visit_mut8VisitMut18visit_type_ptr_mutB8_, symObjAddr: 0x35D0, symBinAddr: 0x44478, symSize: 0x3C }
  - { offset: 0x59564, size: 0x8, addend: 0x0, symName: __RNvYNtNvNtCsdE2kXyKmOF1_11async_trait6expand35contains_associated_type_impl_trait24AssociatedTypeImplTraitsNtNtNtCs6IAuOt8vWmF_3syn3gen9visit_mut8VisitMut18visit_use_glob_mutB8_, symObjAddr: 0x360C, symBinAddr: 0x444B4, symSize: 0x3C }
  - { offset: 0x595A6, size: 0x8, addend: 0x0, symName: __RNvYNtNvNtCsdE2kXyKmOF1_11async_trait6expand35contains_associated_type_impl_trait24AssociatedTypeImplTraitsNtNtNtCs6IAuOt8vWmF_3syn3gen9visit_mut8VisitMut18visit_use_name_mutB8_, symObjAddr: 0x3648, symBinAddr: 0x444F0, symSize: 0x3C }
  - { offset: 0x595E8, size: 0x8, addend: 0x0, symName: __RNvYNtNvNtCsdE2kXyKmOF1_11async_trait6expand35contains_associated_type_impl_trait24AssociatedTypeImplTraitsNtNtNtCs6IAuOt8vWmF_3syn3gen9visit_mut8VisitMut18visit_use_path_mutB8_, symObjAddr: 0x3684, symBinAddr: 0x4452C, symSize: 0x3C }
  - { offset: 0x5962A, size: 0x8, addend: 0x0, symName: __RNvYNtNvNtCsdE2kXyKmOF1_11async_trait6expand35contains_associated_type_impl_trait24AssociatedTypeImplTraitsNtNtNtCs6IAuOt8vWmF_3syn3gen9visit_mut8VisitMut18visit_use_tree_mutB8_, symObjAddr: 0x36C0, symBinAddr: 0x44568, symSize: 0x3C }
  - { offset: 0x5966C, size: 0x8, addend: 0x0, symName: __RNvYNtNvNtCsdE2kXyKmOF1_11async_trait6expand35contains_associated_type_impl_trait24AssociatedTypeImplTraitsNtNtNtCs6IAuOt8vWmF_3syn3gen9visit_mut8VisitMut18visit_variadic_mutB8_, symObjAddr: 0x36FC, symBinAddr: 0x445A4, symSize: 0x3C }
  - { offset: 0x596AE, size: 0x8, addend: 0x0, symName: __RNvYNtNvNtCsdE2kXyKmOF1_11async_trait6expand35contains_associated_type_impl_trait24AssociatedTypeImplTraitsNtNtNtCs6IAuOt8vWmF_3syn3gen9visit_mut8VisitMut19visit_attribute_mutB8_, symObjAddr: 0x3738, symBinAddr: 0x445E0, symSize: 0x3C }
  - { offset: 0x596ED, size: 0x8, addend: 0x0, symName: __RNvYNtNvNtCsdE2kXyKmOF1_11async_trait6expand35contains_associated_type_impl_trait24AssociatedTypeImplTraitsNtNtNtCs6IAuOt8vWmF_3syn3gen9visit_mut8VisitMut19visit_expr_call_mutB8_, symObjAddr: 0x3774, symBinAddr: 0x4461C, symSize: 0x3C }
  - { offset: 0x5972C, size: 0x8, addend: 0x0, symName: __RNvYNtNvNtCsdE2kXyKmOF1_11async_trait6expand35contains_associated_type_impl_trait24AssociatedTypeImplTraitsNtNtNtCs6IAuOt8vWmF_3syn3gen9visit_mut8VisitMut19visit_expr_cast_mutB8_, symObjAddr: 0x37B0, symBinAddr: 0x44658, symSize: 0x3C }
  - { offset: 0x5976B, size: 0x8, addend: 0x0, symName: __RNvYNtNvNtCsdE2kXyKmOF1_11async_trait6expand35contains_associated_type_impl_trait24AssociatedTypeImplTraitsNtNtNtCs6IAuOt8vWmF_3syn3gen9visit_mut8VisitMut19visit_expr_loop_mutB8_, symObjAddr: 0x37EC, symBinAddr: 0x44694, symSize: 0x3C }
  - { offset: 0x597AA, size: 0x8, addend: 0x0, symName: __RNvYNtNvNtCsdE2kXyKmOF1_11async_trait6expand35contains_associated_type_impl_trait24AssociatedTypeImplTraitsNtNtNtCs6IAuOt8vWmF_3syn3gen9visit_mut8VisitMut19visit_expr_path_mutB8_, symObjAddr: 0x3828, symBinAddr: 0x446D0, symSize: 0x3C }
  - { offset: 0x597EC, size: 0x8, addend: 0x0, symName: __RNvYNtNvNtCsdE2kXyKmOF1_11async_trait6expand35contains_associated_type_impl_trait24AssociatedTypeImplTraitsNtNtNtCs6IAuOt8vWmF_3syn3gen9visit_mut8VisitMut19visit_field_pat_mutB8_, symObjAddr: 0x3864, symBinAddr: 0x4470C, symSize: 0x3C }
  - { offset: 0x5982E, size: 0x8, addend: 0x0, symName: __RNvYNtNvNtCsdE2kXyKmOF1_11async_trait6expand35contains_associated_type_impl_trait24AssociatedTypeImplTraitsNtNtNtCs6IAuOt8vWmF_3syn3gen9visit_mut8VisitMut19visit_impl_item_mutB8_, symObjAddr: 0x38A0, symBinAddr: 0x44748, symSize: 0x3C }
  - { offset: 0x59870, size: 0x8, addend: 0x0, symName: __RNvYNtNvNtCsdE2kXyKmOF1_11async_trait6expand35contains_associated_type_impl_trait24AssociatedTypeImplTraitsNtNtNtCs6IAuOt8vWmF_3syn3gen9visit_mut8VisitMut19visit_item_enum_mutB8_, symObjAddr: 0x38DC, symBinAddr: 0x44784, symSize: 0x3C }
  - { offset: 0x598B2, size: 0x8, addend: 0x0, symName: __RNvYNtNvNtCsdE2kXyKmOF1_11async_trait6expand35contains_associated_type_impl_trait24AssociatedTypeImplTraitsNtNtNtCs6IAuOt8vWmF_3syn3gen9visit_mut8VisitMut19visit_item_impl_mutB8_, symObjAddr: 0x3918, symBinAddr: 0x447C0, symSize: 0x3C }
  - { offset: 0x598F4, size: 0x8, addend: 0x0, symName: __RNvYNtNvNtCsdE2kXyKmOF1_11async_trait6expand35contains_associated_type_impl_trait24AssociatedTypeImplTraitsNtNtNtCs6IAuOt8vWmF_3syn3gen9visit_mut8VisitMut19visit_item_type_mutB8_, symObjAddr: 0x3954, symBinAddr: 0x447FC, symSize: 0x3C }
