---
triple:          'arm64-apple-darwin'
binary-path:     '/Users/cedric/orange/ran-llm-claude-flow/src/rust-pipeline/target/debug/build/crc32fast-a9ee6294825916e1/build_script_build-a9ee6294825916e1'
relocations:
  - { offset: 0x1E, size: 0x8, addend: 0x0, symName: __RINvMNtCsfvfooZQ3Axs_4core3stre5parsemECsaYbxp8rU3yk_18build_script_build, symObjAddr: 0x0, symBinAddr: 0x100000BF0, symSize: 0x38 }
  - { offset: 0x68, size: 0x8, addend: 0x0, symName: __RNCINvNtCscOYdFFY2T5N_3std2rt10lang_startuE0CsaYbxp8rU3yk_18build_script_build, symObjAddr: 0x1CDC, symBinAddr: 0x1000027F4, symSize: 0x34 }
  - { offset: 0xD2, size: 0x8, addend: 0x0, symName: __RINvNtCscOYdFFY2T5N_3std2rt10lang_startuECsaYbxp8rU3yk_18build_script_build, symObjAddr: 0x95C, symBinAddr: 0x10000154C, symSize: 0x60 }
  - { offset: 0x170, size: 0x8, addend: 0x0, symName: __RNvXNvNtNtCscOYdFFY2T5N_3std2io5Write9write_fmtINtB2_7AdapterNtNtNtNtNtB8_3sys3pal4unix5stdio6StderrENtNtCsfvfooZQ3Axs_4core3fmt5Write9write_strCsaYbxp8rU3yk_18build_script_build, symObjAddr: 0x42F8, symBinAddr: 0x100004E0C, symSize: 0xB8 }
  - { offset: 0x1CE, size: 0x8, addend: 0x0, symName: __RNvYNtNtNtNtNtCscOYdFFY2T5N_3std3sys3pal4unix5stdio6StderrNtNtBc_2io5Write9write_allCsaYbxp8rU3yk_18build_script_build, symObjAddr: 0x58E8, symBinAddr: 0x1000063FC, symSize: 0x180 }
  - { offset: 0x26F, size: 0x8, addend: 0x0, symName: __RNvYNtNtNtNtNtCscOYdFFY2T5N_3std3sys3pal4unix5stdio6StderrNtNtBc_2io5Write9write_fmtCsaYbxp8rU3yk_18build_script_build, symObjAddr: 0x5A68, symBinAddr: 0x10000657C, symSize: 0x128 }
  - { offset: 0x429, size: 0x8, addend: 0x0, symName: __RNCNvXs1_NtNtNtCscOYdFFY2T5N_3std2io5error14repr_bitpackedNtB7_4ReprNtNtNtCsfvfooZQ3Axs_4core3ops4drop4Drop4drop0CsaYbxp8rU3yk_18build_script_build, symObjAddr: 0x1D24, symBinAddr: 0x10000283C, symSize: 0x34 }
  - { offset: 0x4DE, size: 0x8, addend: 0x0, symName: __RNvXs1_NtNtNtCscOYdFFY2T5N_3std2io5error14repr_bitpackedNtB5_4ReprNtNtNtCsfvfooZQ3Axs_4core3ops4drop4Drop4dropCsaYbxp8rU3yk_18build_script_build, symObjAddr: 0x452C, symBinAddr: 0x100005040, symSize: 0x38 }
  - { offset: 0x507, size: 0x8, addend: 0x0, symName: __RINvNtNtNtCscOYdFFY2T5N_3std2io5error14repr_bitpacked11decode_reprINtNtCse1nGBsou5OW_5alloc5boxed3BoxNtB4_6CustomENCNvXs1_B2_NtB2_4ReprNtNtNtCsfvfooZQ3Axs_4core3ops4drop4Drop4drop0ECsaYbxp8rU3yk_18build_script_build, symObjAddr: 0x1758, symBinAddr: 0x100002270, symSize: 0x230 }
  - { offset: 0x7BD, size: 0x8, addend: 0x0, symName: __RNCNvMs0_NtNtNtCscOYdFFY2T5N_3std2io5error14repr_bitpackedNtB7_4Repr4data0CsaYbxp8rU3yk_18build_script_build, symObjAddr: 0x1D10, symBinAddr: 0x100002828, symSize: 0x14 }
  - { offset: 0x7F5, size: 0x8, addend: 0x0, symName: __RINvNtNtNtCscOYdFFY2T5N_3std2io5error14repr_bitpacked11decode_reprRNtB4_6CustomNCNvMs0_B2_NtB2_4Repr4data0ECsaYbxp8rU3yk_18build_script_build, symObjAddr: 0x1988, symBinAddr: 0x1000024A0, symSize: 0x230 }
  - { offset: 0xA9A, size: 0x8, addend: 0x0, symName: __RNvNtNtNtCscOYdFFY2T5N_3std2io5error14repr_bitpacked14kind_from_primCsaYbxp8rU3yk_18build_script_build, symObjAddr: 0x366C, symBinAddr: 0x100004180, symSize: 0x608 }
  - { offset: 0x17C4, size: 0x8, addend: 0x0, symName: __RNvNtNtNtNtCscOYdFFY2T5N_3std3sys3pal4unix2fs23debug_assert_fd_is_openCsaYbxp8rU3yk_18build_script_build, symObjAddr: 0x3C74, symBinAddr: 0x100004788, symSize: 0xC8 }
  - { offset: 0x1874, size: 0x8, addend: 0x0, symName: __RINvNtNtCscOYdFFY2T5N_3std3sys9backtrace28___rust_begin_short_backtraceFEuuECsaYbxp8rU3yk_18build_script_build, symObjAddr: 0x1734, symBinAddr: 0x10000224C, symSize: 0x24 }
  - { offset: 0x19B9, size: 0x8, addend: 0x0, symName: __RNvXsT_NtCscOYdFFY2T5N_3std7processuNtB5_11Termination6reportCsaYbxp8rU3yk_18build_script_build, symObjAddr: 0x4CD8, symBinAddr: 0x1000057EC, symSize: 0x10 }
  - { offset: 0x1A09, size: 0x8, addend: 0x0, symName: __RNvXs3_NtNtCscOYdFFY2T5N_3std3ffi6os_strNtB5_8OsStringINtNtNtCsfvfooZQ3Axs_4core3ops5index5IndexNtNtBV_5range9RangeFullE5indexCsaYbxp8rU3yk_18build_script_build, symObjAddr: 0x46A8, symBinAddr: 0x1000051BC, symSize: 0x78 }
  - { offset: 0x1B6F, size: 0x8, addend: 0x0, symName: __RNvXsV_NtNtCscOYdFFY2T5N_3std3ffi6os_strNtB5_8OsStringINtNtCsfvfooZQ3Axs_4core7convert5AsRefNtB5_5OsStrE6as_refCsaYbxp8rU3yk_18build_script_build, symObjAddr: 0x4CE8, symBinAddr: 0x1000057FC, symSize: 0x2C }
  - { offset: 0x1BC1, size: 0x8, addend: 0x0, symName: __RNvXsW_NtNtCscOYdFFY2T5N_3std3ffi6os_streINtNtCsfvfooZQ3Axs_4core7convert5AsRefNtB5_5OsStrE6as_refCsaYbxp8rU3yk_18build_script_build, symObjAddr: 0x4D14, symBinAddr: 0x100005828, symSize: 0x18 }
  - { offset: 0x1C75, size: 0x8, addend: 0x0, symName: __RNvXs5_NtNtNtCscOYdFFY2T5N_3std2os2fd5ownedNtB5_7OwnedFdNtNtNtCsfvfooZQ3Axs_4core3ops4drop4Drop4dropCsaYbxp8rU3yk_18build_script_build, symObjAddr: 0x47FC, symBinAddr: 0x100005310, symSize: 0x40 }
  - { offset: 0x1CA6, size: 0x8, addend: 0x0, symName: __RINvNtCscOYdFFY2T5N_3std3env6var_osReECsaYbxp8rU3yk_18build_script_build, symObjAddr: 0x9BC, symBinAddr: 0x1000015AC, symSize: 0x68 }
  - { offset: 0x1D53, size: 0x8, addend: 0x0, symName: __RNvXs5_NtNtCsfvfooZQ3Axs_4core3num5errorNtB5_15TryFromIntErrorNtNtB9_3fmt5Debug3fmtCsaYbxp8rU3yk_18build_script_build, symObjAddr: 0x4720, symBinAddr: 0x100005234, symSize: 0x54 }
  - { offset: 0x1F44, size: 0x8, addend: 0x0, symName: __RNvMsA_NtCsfvfooZQ3Axs_4core3numm16from_ascii_radixCsaYbxp8rU3yk_18build_script_build, symObjAddr: 0x21EC, symBinAddr: 0x100002D04, symSize: 0x53C }
  - { offset: 0x21EF, size: 0x8, addend: 0x0, symName: __RNvNvMs9_NtCsfvfooZQ3Axs_4core3numj13unchecked_add18precondition_checkCsaYbxp8rU3yk_18build_script_build, symObjAddr: 0x3DC4, symBinAddr: 0x1000048D8, symSize: 0x44 }
  - { offset: 0x234E, size: 0x8, addend: 0x0, symName: __RNvNvMsc_NtNtCsfvfooZQ3Axs_4core3num7nonzeroINtB7_7NonZeropE13new_unchecked18precondition_checkCsaYbxp8rU3yk_18build_script_build, symObjAddr: 0x3E08, symBinAddr: 0x10000491C, symSize: 0x1C }
  - { offset: 0x23CB, size: 0x8, addend: 0x0, symName: __RNvXsz_NtCsfvfooZQ3Axs_4core3nummNtNtNtB7_3str6traits7FromStr8from_strCsaYbxp8rU3yk_18build_script_build, symObjAddr: 0x55E8, symBinAddr: 0x1000060FC, symSize: 0x40 }
  - { offset: 0x2B87, size: 0x8, addend: 0x0, symName: __RNvNvMs1_NtNtCsfvfooZQ3Axs_4core3ptr8non_nullINtB7_7NonNullpE13new_unchecked18precondition_checkCsaYbxp8rU3yk_18build_script_build, symObjAddr: 0x3D8C, symBinAddr: 0x1000048A0, symSize: 0x38 }
  - { offset: 0x324C, size: 0x8, addend: 0x0, symName: __RINvNtCsfvfooZQ3Axs_4core3ptr13drop_in_placeINtNtB4_6option6OptionINtNtCse1nGBsou5OW_5alloc5boxed3BoxSmEEECsaYbxp8rU3yk_18build_script_build, symObjAddr: 0xACC, symBinAddr: 0x100001614, symSize: 0x44 }
  - { offset: 0x327B, size: 0x8, addend: 0x0, symName: __RINvNtCsfvfooZQ3Axs_4core3ptr13drop_in_placeINtNtB4_6option6OptionNtNtNtCscOYdFFY2T5N_3std3ffi6os_str8OsStringEECsaYbxp8rU3yk_18build_script_build, symObjAddr: 0xB10, symBinAddr: 0x100001658, symSize: 0x48 }
  - { offset: 0x32AA, size: 0x8, addend: 0x0, symName: __RINvNtCsfvfooZQ3Axs_4core3ptr13drop_in_placeINtNtB4_6option6OptionNtNtNtCse1nGBsou5OW_5alloc3ffi5c_str7CStringEECsaYbxp8rU3yk_18build_script_build, symObjAddr: 0xB58, symBinAddr: 0x1000016A0, symSize: 0x44 }
  - { offset: 0x32D9, size: 0x8, addend: 0x0, symName: __RINvNtCsfvfooZQ3Axs_4core3ptr13drop_in_placeINtNtB4_6option6OptionNtNtNtNtNtNtCscOYdFFY2T5N_3std3sys3pal4unix7process14process_common5StdioEECsaYbxp8rU3yk_18build_script_build, symObjAddr: 0xB9C, symBinAddr: 0x1000016E4, symSize: 0x44 }
  - { offset: 0x3308, size: 0x8, addend: 0x0, symName: __RINvNtCsfvfooZQ3Axs_4core3ptr13drop_in_placeINtNtB4_6result6ResultNtNtCscOYdFFY2T5N_3std7process6OutputNtNtNtB16_2io5error5ErrorEECsaYbxp8rU3yk_18build_script_build, symObjAddr: 0xBE0, symBinAddr: 0x100001728, symSize: 0x5C }
  - { offset: 0x3337, size: 0x8, addend: 0x0, symName: __RINvNtCsfvfooZQ3Axs_4core3ptr13drop_in_placeINtNtB4_6result6ResultuNtNtNtCscOYdFFY2T5N_3std2io5error5ErrorEECsaYbxp8rU3yk_18build_script_build, symObjAddr: 0xC3C, symBinAddr: 0x100001784, symSize: 0x44 }
  - { offset: 0x3366, size: 0x8, addend: 0x0, symName: __RINvNtCsfvfooZQ3Axs_4core3ptr13drop_in_placeINtNtCse1nGBsou5OW_5alloc3vec3VecINtNtBL_5boxed3BoxDINtNtNtB4_3ops8function5FnMutuEp6OutputINtNtB4_6result6ResultuNtNtNtCscOYdFFY2T5N_3std2io5error5ErrorENtNtB4_6marker4SendNtB3c_4SyncEL_EEECsaYbxp8rU3yk_18build_script_build, symObjAddr: 0xC80, symBinAddr: 0x1000017C8, symSize: 0x5C }
  - { offset: 0x3395, size: 0x8, addend: 0x0, symName: __RINvNtCsfvfooZQ3Axs_4core3ptr13drop_in_placeINtNtCse1nGBsou5OW_5alloc3vec3VecNtNtNtBL_3ffi5c_str7CStringEECsaYbxp8rU3yk_18build_script_build, symObjAddr: 0xCDC, symBinAddr: 0x100001824, symSize: 0x5C }
  - { offset: 0x33C4, size: 0x8, addend: 0x0, symName: __RINvNtCsfvfooZQ3Axs_4core3ptr13drop_in_placeINtNtCse1nGBsou5OW_5alloc3vec3VecPaEECsaYbxp8rU3yk_18build_script_build, symObjAddr: 0xD38, symBinAddr: 0x100001880, symSize: 0x5C }
  - { offset: 0x33F3, size: 0x8, addend: 0x0, symName: __RINvNtCsfvfooZQ3Axs_4core3ptr13drop_in_placeINtNtCse1nGBsou5OW_5alloc3vec3VechEECsaYbxp8rU3yk_18build_script_build, symObjAddr: 0xD94, symBinAddr: 0x1000018DC, symSize: 0x5C }
  - { offset: 0x3422, size: 0x8, addend: 0x0, symName: __RINvNtCsfvfooZQ3Axs_4core3ptr13drop_in_placeINtNtCse1nGBsou5OW_5alloc5boxed3BoxDINtNtNtB4_3ops8function5FnMutuEp6OutputINtNtB4_6result6ResultuNtNtNtCscOYdFFY2T5N_3std2io5error5ErrorENtNtB4_6marker4SendNtB2W_4SyncEL_EECsaYbxp8rU3yk_18build_script_build, symObjAddr: 0xDF0, symBinAddr: 0x100001938, symSize: 0x80 }
  - { offset: 0x3451, size: 0x8, addend: 0x0, symName: __RINvNtCsfvfooZQ3Axs_4core3ptr13drop_in_placeINtNtCse1nGBsou5OW_5alloc5boxed3BoxDNtNtB4_5error5ErrorNtNtB4_6marker4SendNtB1B_4SyncEL_EECsaYbxp8rU3yk_18build_script_build, symObjAddr: 0xE70, symBinAddr: 0x1000019B8, symSize: 0x80 }
  - { offset: 0x3480, size: 0x8, addend: 0x0, symName: __RINvNtCsfvfooZQ3Axs_4core3ptr13drop_in_placeINtNtCse1nGBsou5OW_5alloc5boxed3BoxNtNtNtCscOYdFFY2T5N_3std2io5error6CustomEECsaYbxp8rU3yk_18build_script_build, symObjAddr: 0xEF0, symBinAddr: 0x100001A38, symSize: 0x60 }
  - { offset: 0x34AF, size: 0x8, addend: 0x0, symName: __RINvNtCsfvfooZQ3Axs_4core3ptr13drop_in_placeINtNtCse1nGBsou5OW_5alloc5boxed3BoxShEECsaYbxp8rU3yk_18build_script_build, symObjAddr: 0xF50, symBinAddr: 0x100001A98, symSize: 0x2C }
  - { offset: 0x34DE, size: 0x8, addend: 0x0, symName: __RINvNtCsfvfooZQ3Axs_4core3ptr13drop_in_placeINtNtCse1nGBsou5OW_5alloc5boxed3BoxSmEECsaYbxp8rU3yk_18build_script_build, symObjAddr: 0xF7C, symBinAddr: 0x100001AC4, symSize: 0x2C }
  - { offset: 0x350D, size: 0x8, addend: 0x0, symName: __RINvNtCsfvfooZQ3Axs_4core3ptr13drop_in_placeINtNtCse1nGBsou5OW_5alloc7raw_vec6RawVecINtNtBL_5boxed3BoxDINtNtNtB4_3ops8function5FnMutuEp6OutputINtNtB4_6result6ResultuNtNtNtCscOYdFFY2T5N_3std2io5error5ErrorENtNtB4_6marker4SendNtB3j_4SyncEL_EEECsaYbxp8rU3yk_18build_script_build, symObjAddr: 0xFA8, symBinAddr: 0x100001AF0, symSize: 0x24 }
  - { offset: 0x353C, size: 0x8, addend: 0x0, symName: __RINvNtCsfvfooZQ3Axs_4core3ptr13drop_in_placeINtNtCse1nGBsou5OW_5alloc7raw_vec6RawVecNtNtNtBL_3ffi5c_str7CStringEECsaYbxp8rU3yk_18build_script_build, symObjAddr: 0xFCC, symBinAddr: 0x100001B14, symSize: 0x24 }
  - { offset: 0x356B, size: 0x8, addend: 0x0, symName: __RINvNtCsfvfooZQ3Axs_4core3ptr13drop_in_placeINtNtCse1nGBsou5OW_5alloc7raw_vec6RawVecPaEECsaYbxp8rU3yk_18build_script_build, symObjAddr: 0xFF0, symBinAddr: 0x100001B38, symSize: 0x24 }
  - { offset: 0x359A, size: 0x8, addend: 0x0, symName: __RINvNtCsfvfooZQ3Axs_4core3ptr13drop_in_placeINtNtCse1nGBsou5OW_5alloc7raw_vec6RawVechEECsaYbxp8rU3yk_18build_script_build, symObjAddr: 0x1014, symBinAddr: 0x100001B5C, symSize: 0x24 }
  - { offset: 0x35C9, size: 0x8, addend: 0x0, symName: __RINvNtCsfvfooZQ3Axs_4core3ptr13drop_in_placeINtNtNtCscOYdFFY2T5N_3std2io5error9ErrorDataINtNtCse1nGBsou5OW_5alloc5boxed3BoxNtBJ_6CustomEEECsaYbxp8rU3yk_18build_script_build, symObjAddr: 0x1038, symBinAddr: 0x100001B80, symSize: 0x48 }
  - { offset: 0x35F8, size: 0x8, addend: 0x0, symName: __RINvNtCsfvfooZQ3Axs_4core3ptr13drop_in_placeINtNtNtNtCse1nGBsou5OW_5alloc11collections5btree3map8BTreeMapNtNtNtCscOYdFFY2T5N_3std3ffi6os_str8OsStringINtNtB4_6option6OptionB1F_EEECsaYbxp8rU3yk_18build_script_build, symObjAddr: 0x1080, symBinAddr: 0x100001BC8, symSize: 0x24 }
  - { offset: 0x3627, size: 0x8, addend: 0x0, symName: __RINvNtCsfvfooZQ3Axs_4core3ptr13drop_in_placeINtNtNtNtCse1nGBsou5OW_5alloc11collections5btree3map8IntoIterNtNtNtCscOYdFFY2T5N_3std3ffi6os_str8OsStringINtNtB4_6option6OptionB1F_EEECsaYbxp8rU3yk_18build_script_build, symObjAddr: 0x10A4, symBinAddr: 0x100001BEC, symSize: 0x24 }
  - { offset: 0x3656, size: 0x8, addend: 0x0, symName: __RINvNtCsfvfooZQ3Axs_4core3ptr13drop_in_placeINtNvMsT_NtNtNtCse1nGBsou5OW_5alloc11collections5btree4nodeINtBP_6HandleINtBP_7NodeRefNtNtBP_6marker5DyingpppENtB26_2KVE12drop_key_val7DropperINtNtB4_6option6OptionNtNtNtCscOYdFFY2T5N_3std3ffi6os_str8OsStringEEECsaYbxp8rU3yk_18build_script_build, symObjAddr: 0x10C8, symBinAddr: 0x100001C10, symSize: 0x24 }
  - { offset: 0x3685, size: 0x8, addend: 0x0, symName: __RINvNtCsfvfooZQ3Axs_4core3ptr13drop_in_placeINtNvNtNtCscOYdFFY2T5N_3std2io5Write9write_fmt7AdapterNtNtNtNtNtBP_3sys3pal4unix5stdio6StderrEECsaYbxp8rU3yk_18build_script_build, symObjAddr: 0x10EC, symBinAddr: 0x100001C34, symSize: 0x24 }
  - { offset: 0x36B4, size: 0x8, addend: 0x0, symName: __RINvNtCsfvfooZQ3Axs_4core3ptr13drop_in_placeINtNvXsw_NtNtNtCse1nGBsou5OW_5alloc11collections5btree3mapINtBP_8IntoIterpppENtNtNtB4_3ops4drop4Drop4drop9DropGuardNtNtNtCscOYdFFY2T5N_3std3ffi6os_str8OsStringINtNtB4_6option6OptionB2x_ENtNtBV_5alloc6GlobalEECsaYbxp8rU3yk_18build_script_build, symObjAddr: 0x1110, symBinAddr: 0x100001C58, symSize: 0x24 }
  - { offset: 0x36E3, size: 0x8, addend: 0x0, symName: __RINvNtCsfvfooZQ3Axs_4core3ptr13drop_in_placeNtNtCscOYdFFY2T5N_3std7process6OutputECsaYbxp8rU3yk_18build_script_build, symObjAddr: 0x1144, symBinAddr: 0x100001C7C, symSize: 0x60 }
  - { offset: 0x3712, size: 0x8, addend: 0x0, symName: __RINvNtCsfvfooZQ3Axs_4core3ptr13drop_in_placeNtNtCscOYdFFY2T5N_3std7process7CommandECsaYbxp8rU3yk_18build_script_build, symObjAddr: 0x11A4, symBinAddr: 0x100001CDC, symSize: 0x24 }
  - { offset: 0x3741, size: 0x8, addend: 0x0, symName: __RINvNtCsfvfooZQ3Axs_4core3ptr13drop_in_placeNtNtNtCscOYdFFY2T5N_3std10sys_common7process10CommandEnvECsaYbxp8rU3yk_18build_script_build, symObjAddr: 0x11D8, symBinAddr: 0x100001D00, symSize: 0x24 }
  - { offset: 0x3770, size: 0x8, addend: 0x0, symName: __RINvNtCsfvfooZQ3Axs_4core3ptr13drop_in_placeNtNtNtCscOYdFFY2T5N_3std2io5error5ErrorECsaYbxp8rU3yk_18build_script_build, symObjAddr: 0x11FC, symBinAddr: 0x100001D24, symSize: 0x24 }
  - { offset: 0x379F, size: 0x8, addend: 0x0, symName: __RINvNtCsfvfooZQ3Axs_4core3ptr13drop_in_placeNtNtNtCscOYdFFY2T5N_3std2io5error6CustomECsaYbxp8rU3yk_18build_script_build, symObjAddr: 0x1220, symBinAddr: 0x100001D48, symSize: 0x24 }
  - { offset: 0x37CE, size: 0x8, addend: 0x0, symName: __RINvNtCsfvfooZQ3Axs_4core3ptr13drop_in_placeNtNtNtCscOYdFFY2T5N_3std3ffi6os_str8OsStringECsaYbxp8rU3yk_18build_script_build, symObjAddr: 0x1244, symBinAddr: 0x100001D6C, symSize: 0x24 }
  - { offset: 0x37FD, size: 0x8, addend: 0x0, symName: __RINvNtCsfvfooZQ3Axs_4core3ptr13drop_in_placeNtNtNtCse1nGBsou5OW_5alloc3ffi5c_str7CStringECsaYbxp8rU3yk_18build_script_build, symObjAddr: 0x1268, symBinAddr: 0x100001D90, symSize: 0x5C }
  - { offset: 0x382C, size: 0x8, addend: 0x0, symName: __RINvNtCsfvfooZQ3Axs_4core3ptr13drop_in_placeNtNtNtNtCscOYdFFY2T5N_3std2io5error14repr_bitpacked4ReprECsaYbxp8rU3yk_18build_script_build, symObjAddr: 0x12C4, symBinAddr: 0x100001DEC, symSize: 0x24 }
  - { offset: 0x385B, size: 0x8, addend: 0x0, symName: __RINvNtCsfvfooZQ3Axs_4core3ptr13drop_in_placeNtNtNtNtCscOYdFFY2T5N_3std2os2fd5owned7OwnedFdECsaYbxp8rU3yk_18build_script_build, symObjAddr: 0x12E8, symBinAddr: 0x100001E10, symSize: 0x24 }
  - { offset: 0x388A, size: 0x8, addend: 0x0, symName: __RINvNtCsfvfooZQ3Axs_4core3ptr13drop_in_placeNtNtNtNtCscOYdFFY2T5N_3std3sys6os_str5bytes3BufECsaYbxp8rU3yk_18build_script_build, symObjAddr: 0x130C, symBinAddr: 0x100001E34, symSize: 0x24 }
  - { offset: 0x38B9, size: 0x8, addend: 0x0, symName: __RINvNtCsfvfooZQ3Axs_4core3ptr13drop_in_placeNtNtNtNtNtCscOYdFFY2T5N_3std3sys3pal4unix2fd8FileDescECsaYbxp8rU3yk_18build_script_build, symObjAddr: 0x1330, symBinAddr: 0x100001E58, symSize: 0x24 }
  - { offset: 0x38E8, size: 0x8, addend: 0x0, symName: __RINvNtCsfvfooZQ3Axs_4core3ptr13drop_in_placeNtNtNtNtNtNtCscOYdFFY2T5N_3std3sys3pal4unix7process14process_common4ArgvECsaYbxp8rU3yk_18build_script_build, symObjAddr: 0x1354, symBinAddr: 0x100001E7C, symSize: 0x24 }
  - { offset: 0x3917, size: 0x8, addend: 0x0, symName: __RINvNtCsfvfooZQ3Axs_4core3ptr13drop_in_placeNtNtNtNtNtNtCscOYdFFY2T5N_3std3sys3pal4unix7process14process_common5StdioECsaYbxp8rU3yk_18build_script_build, symObjAddr: 0x1378, symBinAddr: 0x100001EA0, symSize: 0x44 }
  - { offset: 0x3946, size: 0x8, addend: 0x0, symName: __RINvNtCsfvfooZQ3Axs_4core3ptr13drop_in_placeNtNtNtNtNtNtCscOYdFFY2T5N_3std3sys3pal4unix7process14process_common7CommandECsaYbxp8rU3yk_18build_script_build, symObjAddr: 0x13BC, symBinAddr: 0x100001EE4, symSize: 0x1DC }
  - { offset: 0x3975, size: 0x8, addend: 0x0, symName: __RINvNtCsfvfooZQ3Axs_4core3ptr13drop_in_placeNtNvNtNtNtCse1nGBsou5OW_5alloc11collections5btree3mem7replace10PanicGuardECsaYbxp8rU3yk_18build_script_build, symObjAddr: 0x1598, symBinAddr: 0x1000020C0, symSize: 0x24 }
  - { offset: 0x39A4, size: 0x8, addend: 0x0, symName: __RINvNtCsfvfooZQ3Axs_4core3ptr13drop_in_placeSINtNtCse1nGBsou5OW_5alloc5boxed3BoxDINtNtNtB4_3ops8function5FnMutuEp6OutputINtNtB4_6result6ResultuNtNtNtCscOYdFFY2T5N_3std2io5error5ErrorENtNtB4_6marker4SendNtB2X_4SyncEL_EECsaYbxp8rU3yk_18build_script_build, symObjAddr: 0x15CC, symBinAddr: 0x1000020E4, symSize: 0xB4 }
  - { offset: 0x39D3, size: 0x8, addend: 0x0, symName: __RINvNtCsfvfooZQ3Axs_4core3ptr13drop_in_placeSNtNtNtCse1nGBsou5OW_5alloc3ffi5c_str7CStringECsaYbxp8rU3yk_18build_script_build, symObjAddr: 0x1680, symBinAddr: 0x100002198, symSize: 0xB4 }
  - { offset: 0x438C, size: 0x8, addend: 0x0, symName: __RNvXs1a_NtCsfvfooZQ3Axs_4core3fmtRuNtB6_5Debug3fmtCsaYbxp8rU3yk_18build_script_build, symObjAddr: 0x4564, symBinAddr: 0x100005078, symSize: 0x30 }
  - { offset: 0x43E2, size: 0x8, addend: 0x0, symName: __RNvXs_NvNtNtCsfvfooZQ3Axs_4core3fmt5Write9write_fmtQINtNvNtNtCscOYdFFY2T5N_3std2io5Write9write_fmt7AdapterNtNtNtNtNtBX_3sys3pal4unix5stdio6StderrENtB4_12SpecWriteFmt14spec_write_fmtCsaYbxp8rU3yk_18build_script_build, symObjAddr: 0x517C, symBinAddr: 0x100005C90, symSize: 0x164 }
  - { offset: 0x4491, size: 0x8, addend: 0x0, symName: __RNvYINtNvNtNtCscOYdFFY2T5N_3std2io5Write9write_fmt7AdapterNtNtNtNtNtBb_3sys3pal4unix5stdio6StderrENtNtCsfvfooZQ3Axs_4core3fmt5Write10write_charCsaYbxp8rU3yk_18build_script_build, symObjAddr: 0x5808, symBinAddr: 0x10000631C, symSize: 0x70 }
  - { offset: 0x44F9, size: 0x8, addend: 0x0, symName: __RNvYINtNvNtNtCscOYdFFY2T5N_3std2io5Write9write_fmt7AdapterNtNtNtNtNtBb_3sys3pal4unix5stdio6StderrENtNtCsfvfooZQ3Axs_4core3fmt5Write9write_fmtCsaYbxp8rU3yk_18build_script_build, symObjAddr: 0x5878, symBinAddr: 0x10000638C, symSize: 0x24 }
  - { offset: 0x4543, size: 0x8, addend: 0x0, symName: __RNvXss_NtCsfvfooZQ3Axs_4core3fmtuNtB5_5Debug3fmtCsaYbxp8rU3yk_18build_script_build, symObjAddr: 0x5374, symBinAddr: 0x100005E88, symSize: 0x40 }
  - { offset: 0x458C, size: 0x8, addend: 0x0, symName: __RINvMNtCsfvfooZQ3Axs_4core3stre5parsemECsaYbxp8rU3yk_18build_script_build, symObjAddr: 0x0, symBinAddr: 0x100000BF0, symSize: 0x38 }
  - { offset: 0x45C3, size: 0x8, addend: 0x0, symName: __RINvMNtCsfvfooZQ3Axs_4core3stre5splitcECsaYbxp8rU3yk_18build_script_build, symObjAddr: 0x38, symBinAddr: 0x100000C28, symSize: 0x98 }
  - { offset: 0x476A, size: 0x8, addend: 0x0, symName: __RNvNvXs5_NtNtCsfvfooZQ3Axs_4core3str6traitsINtNtNtBb_3ops5range5RangejEINtNtNtBb_5slice5index10SliceIndexeE13get_unchecked18precondition_checkCsaYbxp8rU3yk_18build_script_build, symObjAddr: 0x41F0, symBinAddr: 0x100004D04, symSize: 0x60 }
  - { offset: 0x4847, size: 0x8, addend: 0x0, symName: __RNvXsX_NtNtCsfvfooZQ3Axs_4core3str4iterINtB5_5SplitcENtNtNtNtB9_4iter6traits8iterator8Iterator4nextCsaYbxp8rU3yk_18build_script_build, symObjAddr: 0x4D2C, symBinAddr: 0x100005840, symSize: 0x24 }
  - { offset: 0x490F, size: 0x8, addend: 0x0, symName: __RNvXs2_NtNtCsfvfooZQ3Axs_4core3str7patterncNtB5_7Pattern13into_searcherCsaYbxp8rU3yk_18build_script_build, symObjAddr: 0x4594, symBinAddr: 0x1000050A8, symSize: 0x114 }
  - { offset: 0x4A2D, size: 0x8, addend: 0x0, symName: __RNvXs_NtNtCsfvfooZQ3Axs_4core3str7patternNtB4_12CharSearcherNtB4_8Searcher10next_matchCsaYbxp8rU3yk_18build_script_build, symObjAddr: 0x4DD8, symBinAddr: 0x1000058EC, symSize: 0x384 }
  - { offset: 0x4ECE, size: 0x8, addend: 0x0, symName: __RNvXs_NtNtCsfvfooZQ3Axs_4core3str7patternNtB4_12CharSearcherNtB4_8Searcher8haystackCsaYbxp8rU3yk_18build_script_build, symObjAddr: 0x515C, symBinAddr: 0x100005C70, symSize: 0x20 }
  - { offset: 0x58BD, size: 0x8, addend: 0x0, symName: __RNvXsB_NtCsfvfooZQ3Axs_4core6optionINtB5_6OptionNtNtNtCscOYdFFY2T5N_3std3ffi6os_str8OsStringENtNtNtB7_3ops9try_trait3Try6branchCsaYbxp8rU3yk_18build_script_build, symObjAddr: 0x4C10, symBinAddr: 0x100005724, symSize: 0x68 }
  - { offset: 0x59F5, size: 0x8, addend: 0x0, symName: __RNvXsC_NtCsfvfooZQ3Axs_4core6optionINtB5_6OptionmEINtNtNtB7_3ops9try_trait12FromResidualIBy_NtNtB7_7convert10InfallibleEE13from_residualCsaYbxp8rU3yk_18build_script_build, symObjAddr: 0x4C78, symBinAddr: 0x10000578C, symSize: 0x18 }
  - { offset: 0x6368, size: 0x8, addend: 0x0, symName: __RNvNvMNtNtCsfvfooZQ3Axs_4core5alloc6layoutNtB4_6Layout25from_size_align_unchecked18precondition_checkCsaYbxp8rU3yk_18build_script_build, symObjAddr: 0x3D3C, symBinAddr: 0x100004850, symSize: 0x50 }
  - { offset: 0x6418, size: 0x8, addend: 0x0, symName: __RNvNvNtCsfvfooZQ3Axs_4core4hint21unreachable_unchecked18precondition_checkCsaYbxp8rU3yk_18build_script_build, symObjAddr: 0x3E24, symBinAddr: 0x100004938, symSize: 0x1C }
  - { offset: 0x6442, size: 0x8, addend: 0x0, symName: __RNSNvYNCINvNtCscOYdFFY2T5N_3std2rt10lang_startuE0INtNtNtCsfvfooZQ3Axs_4core3ops8function6FnOnceuE9call_once6vtableCsaYbxp8rU3yk_18build_script_build, symObjAddr: 0x1D58, symBinAddr: 0x100002870, symSize: 0x28 }
  - { offset: 0x6486, size: 0x8, addend: 0x0, symName: __RNvYFEuINtNtNtCsfvfooZQ3Axs_4core3ops8function6FnOnceuE9call_onceCsaYbxp8rU3yk_18build_script_build, symObjAddr: 0x5628, symBinAddr: 0x10000613C, symSize: 0x20 }
  - { offset: 0x64C6, size: 0x8, addend: 0x0, symName: __RNvYNCINvNtCscOYdFFY2T5N_3std2rt10lang_startuE0INtNtNtCsfvfooZQ3Axs_4core3ops8function6FnOnceuE9call_onceCsaYbxp8rU3yk_18build_script_build, symObjAddr: 0x589C, symBinAddr: 0x1000063B0, symSize: 0x4C }
  - { offset: 0x677D, size: 0x8, addend: 0x0, symName: __RNvMNtNtCsfvfooZQ3Axs_4core4char7methodsc8to_digitCsaYbxp8rU3yk_18build_script_build, symObjAddr: 0x1F68, symBinAddr: 0x100002A80, symSize: 0x14C }
  - { offset: 0x68D1, size: 0x8, addend: 0x0, symName: __RNvNtNtCsfvfooZQ3Axs_4core4char7methods15encode_utf8_rawCsaYbxp8rU3yk_18build_script_build, symObjAddr: 0x3330, symBinAddr: 0x100003E44, symSize: 0x228 }
  - { offset: 0x6B2D, size: 0x8, addend: 0x0, symName: __RNvNvXs0_NtNtCsfvfooZQ3Axs_4core5slice5indexjINtB7_10SliceIndexSpE13get_unchecked18precondition_checkCsaYbxp8rU3yk_18build_script_build, symObjAddr: 0x4110, symBinAddr: 0x100004C24, symSize: 0x40 }
  - { offset: 0x6B69, size: 0x8, addend: 0x0, symName: __RNvNvXs0_NtNtCsfvfooZQ3Axs_4core5slice5indexjINtB7_10SliceIndexSpE17get_unchecked_mut18precondition_checkCsaYbxp8rU3yk_18build_script_build, symObjAddr: 0x4150, symBinAddr: 0x100004C64, symSize: 0x40 }
  - { offset: 0x6C9F, size: 0x8, addend: 0x0, symName: __RNvNvXs2_NtNtCsfvfooZQ3Axs_4core5slice5indexINtNtNtBb_3ops5range5RangejEINtB7_10SliceIndexSpE13get_unchecked18precondition_checkCsaYbxp8rU3yk_18build_script_build, symObjAddr: 0x4190, symBinAddr: 0x100004CA4, symSize: 0x60 }
  - { offset: 0x6E15, size: 0x8, addend: 0x0, symName: __RNvXs5_NtNtCsfvfooZQ3Axs_4core5slice5indexINtNtNtB9_3ops5range9RangeFromjEINtB5_10SliceIndexShE5indexCsaYbxp8rU3yk_18build_script_build, symObjAddr: 0x4774, symBinAddr: 0x100005288, symSize: 0x88 }
  - { offset: 0x7244, size: 0x8, addend: 0x0, symName: __RNvNvNtNtCsfvfooZQ3Axs_4core5slice3raw14from_raw_parts18precondition_checkCsaYbxp8rU3yk_18build_script_build, symObjAddr: 0x3E40, symBinAddr: 0x100004954, symSize: 0x168 }
  - { offset: 0x738A, size: 0x8, addend: 0x0, symName: __RNvNvNtNtCsfvfooZQ3Axs_4core5slice3raw18from_raw_parts_mut18precondition_checkCsaYbxp8rU3yk_18build_script_build, symObjAddr: 0x3FA8, symBinAddr: 0x100004ABC, symSize: 0x168 }
  - { offset: 0x7536, size: 0x8, addend: 0x0, symName: __RNvNtNtCsfvfooZQ3Axs_4core5slice6memchr6memchrCsaYbxp8rU3yk_18build_script_build, symObjAddr: 0x3558, symBinAddr: 0x10000406C, symSize: 0x114 }
  - { offset: 0x75F6, size: 0x8, addend: 0x0, symName: __RNvXNtCsfvfooZQ3Axs_4core7convertReINtB2_5AsRefNtNtNtCscOYdFFY2T5N_3std3ffi6os_str5OsStrE6as_refCsaYbxp8rU3yk_18build_script_build, symObjAddr: 0x4250, symBinAddr: 0x100004D64, symSize: 0x30 }
  - { offset: 0x77F5, size: 0x8, addend: 0x0, symName: __RNvXsF_NtNtCsfvfooZQ3Axs_4core4iter5rangejNtB5_4Step17forward_uncheckedCsaYbxp8rU3yk_18build_script_build, symObjAddr: 0x4C90, symBinAddr: 0x1000057A4, symSize: 0x48 }
  - { offset: 0x78CE, size: 0x8, addend: 0x0, symName: __RNvYINtNtNtCsfvfooZQ3Axs_4core3str4iter5SplitcENtNtNtNtB9_4iter6traits8iterator8Iterator10advance_byCsaYbxp8rU3yk_18build_script_build, symObjAddr: 0x5648, symBinAddr: 0x10000615C, symSize: 0x138 }
  - { offset: 0x7A23, size: 0x8, addend: 0x0, symName: __RNvYINtNtNtCsfvfooZQ3Axs_4core3str4iter5SplitcENtNtNtNtB9_4iter6traits8iterator8Iterator3nthCsaYbxp8rU3yk_18build_script_build, symObjAddr: 0x5780, symBinAddr: 0x100006294, symSize: 0x88 }
  - { offset: 0x7E4C, size: 0x8, addend: 0x0, symName: __RNvXs6_NtCse1nGBsou5OW_5alloc3vecINtB5_3VechENtNtNtCsfvfooZQ3Axs_4core3ops5deref5Deref5derefCsaYbxp8rU3yk_18build_script_build, symObjAddr: 0x483C, symBinAddr: 0x100005350, symSize: 0x24 }
  - { offset: 0x7E92, size: 0x8, addend: 0x0, symName: __RNvXsn_NtCse1nGBsou5OW_5alloc3vecINtB5_3VecINtNtB7_5boxed3BoxDINtNtNtCsfvfooZQ3Axs_4core3ops8function5FnMutuEp6OutputINtNtB15_6result6ResultuNtNtNtCscOYdFFY2T5N_3std2io5error5ErrorENtNtB15_6marker4SendNtB2V_4SyncEL_EENtNtB13_4drop4Drop4dropCsaYbxp8rU3yk_18build_script_build, symObjAddr: 0x52E0, symBinAddr: 0x100005DF4, symSize: 0x38 }
  - { offset: 0x7F42, size: 0x8, addend: 0x0, symName: __RNvXsn_NtCse1nGBsou5OW_5alloc3vecINtB5_3VecNtNtNtB7_3ffi5c_str7CStringENtNtNtCsfvfooZQ3Axs_4core3ops4drop4Drop4dropCsaYbxp8rU3yk_18build_script_build, symObjAddr: 0x5318, symBinAddr: 0x100005E2C, symSize: 0x38 }
  - { offset: 0x7FF2, size: 0x8, addend: 0x0, symName: __RNvXsn_NtCse1nGBsou5OW_5alloc3vecINtB5_3VecPaENtNtNtCsfvfooZQ3Axs_4core3ops4drop4Drop4dropCsaYbxp8rU3yk_18build_script_build, symObjAddr: 0x5350, symBinAddr: 0x100005E64, symSize: 0x24 }
  - { offset: 0x80B6, size: 0x8, addend: 0x0, symName: __RNvXs1_NtCse1nGBsou5OW_5alloc5allocNtB5_6GlobalNtNtCsfvfooZQ3Axs_4core5clone5Clone5cloneCsaYbxp8rU3yk_18build_script_build, symObjAddr: 0x4484, symBinAddr: 0x100004F98, symSize: 0x10 }
  - { offset: 0x8107, size: 0x8, addend: 0x0, symName: __RNvXs_NtCse1nGBsou5OW_5alloc5allocNtB4_6GlobalNtNtCsfvfooZQ3Axs_4core5alloc9Allocator10deallocateCsaYbxp8rU3yk_18build_script_build, symObjAddr: 0x4D50, symBinAddr: 0x100005864, symSize: 0x88 }
  - { offset: 0x84D0, size: 0x8, addend: 0x0, symName: __RNvXs1_NtCse1nGBsou5OW_5alloc7raw_vecINtB5_6RawVecINtNtB7_5boxed3BoxDINtNtNtCsfvfooZQ3Axs_4core3ops8function5FnMutuEp6OutputINtNtB1c_6result6ResultuNtNtNtCscOYdFFY2T5N_3std2io5error5ErrorENtNtB1c_6marker4SendNtB32_4SyncEL_EENtNtB1a_4drop4Drop4dropCsaYbxp8rU3yk_18build_script_build, symObjAddr: 0x4494, symBinAddr: 0x100004FA8, symSize: 0x34 }
  - { offset: 0x850C, size: 0x8, addend: 0x0, symName: __RNvXs1_NtCse1nGBsou5OW_5alloc7raw_vecINtB5_6RawVecNtNtNtB7_3ffi5c_str7CStringENtNtNtCsfvfooZQ3Axs_4core3ops4drop4Drop4dropCsaYbxp8rU3yk_18build_script_build, symObjAddr: 0x44C8, symBinAddr: 0x100004FDC, symSize: 0x34 }
  - { offset: 0x8548, size: 0x8, addend: 0x0, symName: __RNvXs1_NtCse1nGBsou5OW_5alloc7raw_vecINtB5_6RawVecPaENtNtNtCsfvfooZQ3Axs_4core3ops4drop4Drop4dropCsaYbxp8rU3yk_18build_script_build, symObjAddr: 0x44FC, symBinAddr: 0x100005010, symSize: 0x30 }
  - { offset: 0x8754, size: 0x8, addend: 0x0, symName: __RNCINvMsm_NtNtNtCse1nGBsou5OW_5alloc11collections5btree8navigateINtNtBa_4node6HandleINtB13_7NodeRefNtNtB13_6marker5DyingNtNtNtCscOYdFFY2T5N_3std3ffi6os_str8OsStringINtNtCsfvfooZQ3Axs_4core6option6OptionB1U_ENtB1B_4LeafENtB1B_4EdgeE27deallocating_next_uncheckedNtNtBe_5alloc6GlobalE0CsaYbxp8rU3yk_18build_script_build, symObjAddr: 0x1C84, symBinAddr: 0x10000279C, symSize: 0x58 }
  - { offset: 0x932B, size: 0x8, addend: 0x0, symName: __RNvXNvMsT_NtNtNtCse1nGBsou5OW_5alloc11collections5btree4nodeINtB8_6HandleINtB8_7NodeRefNtNtB8_6marker5DyingpppENtB1p_2KVE12drop_key_valINtB2_7DropperINtNtCsfvfooZQ3Axs_4core6option6OptionNtNtNtCscOYdFFY2T5N_3std3ffi6os_str8OsStringEENtNtNtB2s_3ops4drop4Drop4dropCsaYbxp8rU3yk_18build_script_build, symObjAddr: 0x42CC, symBinAddr: 0x100004DE0, symSize: 0x2C }
  - { offset: 0x9475, size: 0x8, addend: 0x0, symName: __RNvXNtNtNtCse1nGBsou5OW_5alloc11collections5btree3mapINtB2_8BTreeMapNtNtNtCscOYdFFY2T5N_3std3ffi6os_str8OsStringINtNtCsfvfooZQ3Axs_4core6option6OptionB14_EENtNtNtB1R_3ops4drop4Drop4dropCsaYbxp8rU3yk_18build_script_build, symObjAddr: 0x4280, symBinAddr: 0x100004D94, symSize: 0x4C }
  - { offset: 0x9502, size: 0x8, addend: 0x0, symName: __RNvXNvXsw_NtNtNtCse1nGBsou5OW_5alloc11collections5btree3mapINtB8_8IntoIterpppENtNtNtCsfvfooZQ3Axs_4core3ops4drop4Drop4dropINtB2_9DropGuardNtNtNtCscOYdFFY2T5N_3std3ffi6os_str8OsStringINtNtB1k_6option6OptionB2c_ENtNtBe_5alloc6GlobalEB1e_4dropCsaYbxp8rU3yk_18build_script_build, symObjAddr: 0x43B0, symBinAddr: 0x100004EC4, symSize: 0x68 }
  - { offset: 0x9597, size: 0x8, addend: 0x0, symName: __RNvXsw_NtNtNtCse1nGBsou5OW_5alloc11collections5btree3mapINtB5_8IntoIterNtNtNtCscOYdFFY2T5N_3std3ffi6os_str8OsStringINtNtCsfvfooZQ3Axs_4core6option6OptionB17_EENtNtNtB1U_3ops4drop4Drop4dropCsaYbxp8rU3yk_18build_script_build, symObjAddr: 0x5548, symBinAddr: 0x10000605C, symSize: 0xA0 }
  - { offset: 0x960E, size: 0x8, addend: 0x0, symName: __RNvXsv_NtNtNtCse1nGBsou5OW_5alloc11collections5btree3mapINtB5_8BTreeMapNtNtNtCscOYdFFY2T5N_3std3ffi6os_str8OsStringINtNtCsfvfooZQ3Axs_4core6option6OptionB17_EENtNtNtNtB1U_4iter6traits7collect12IntoIterator9into_iterCsaYbxp8rU3yk_18build_script_build, symObjAddr: 0x53B4, symBinAddr: 0x100005EC8, symSize: 0x194 }
  - { offset: 0x97CB, size: 0x8, addend: 0x0, symName: __RINvNtNtNtCse1nGBsou5OW_5alloc11collections5btree3mem7replaceINtNtB4_4node6HandleINtB10_7NodeRefNtNtB10_6marker5DyingNtNtNtCscOYdFFY2T5N_3std3ffi6os_str8OsStringINtNtCsfvfooZQ3Axs_4core6option6OptionB1R_ENtB1y_4LeafENtB1y_4EdgeEIBY_IB1i_B1w_B1R_B2z_NtB1y_14LeafOrInternalENtB1y_2KVENCINvMsm_NtB4_8navigateBX_27deallocating_next_uncheckedNtNtB8_5alloc6GlobalE0ECsaYbxp8rU3yk_18build_script_build, symObjAddr: 0x1BB8, symBinAddr: 0x1000026D0, symSize: 0xCC }
  - { offset: 0x98F0, size: 0x8, addend: 0x0, symName: __RNvXs0_NtNtCse1nGBsou5OW_5alloc3ffi5c_strNtB5_7CStringNtNtNtCsfvfooZQ3Axs_4core3ops4drop4Drop4dropCsaYbxp8rU3yk_18build_script_build, symObjAddr: 0x4418, symBinAddr: 0x100004F2C, symSize: 0x6C }
  - { offset: 0x99F9, size: 0x8, addend: 0x0, symName: __RNvXs6_NtCse1nGBsou5OW_5alloc5boxedINtB5_3BoxDINtNtNtCsfvfooZQ3Axs_4core3ops8function5FnMutuEp6OutputINtNtBP_6result6ResultuNtNtNtCscOYdFFY2T5N_3std2io5error5ErrorENtNtBP_6marker4SendNtB2E_4SyncEL_ENtNtBN_4drop4Drop4dropCsaYbxp8rU3yk_18build_script_build, symObjAddr: 0x4860, symBinAddr: 0x100005374, symSize: 0xC4 }
  - { offset: 0x9B30, size: 0x8, addend: 0x0, symName: __RNvXs6_NtCse1nGBsou5OW_5alloc5boxedINtB5_3BoxDNtNtCsfvfooZQ3Axs_4core5error5ErrorNtNtBM_6marker4SendNtB1j_4SyncEL_ENtNtNtBM_3ops4drop4Drop4dropCsaYbxp8rU3yk_18build_script_build, symObjAddr: 0x4924, symBinAddr: 0x100005438, symSize: 0xC4 }
  - { offset: 0x9C67, size: 0x8, addend: 0x0, symName: __RNvXs6_NtCse1nGBsou5OW_5alloc5boxedINtB5_3BoxNtNtNtCscOYdFFY2T5N_3std2io5error6CustomENtNtNtCsfvfooZQ3Axs_4core3ops4drop4Drop4dropCsaYbxp8rU3yk_18build_script_build, symObjAddr: 0x49E8, symBinAddr: 0x1000054FC, symSize: 0xB0 }
  - { offset: 0x9D9E, size: 0x8, addend: 0x0, symName: __RNvXs6_NtCse1nGBsou5OW_5alloc5boxedINtB5_3BoxShENtNtNtCsfvfooZQ3Axs_4core3ops4drop4Drop4dropCsaYbxp8rU3yk_18build_script_build, symObjAddr: 0x4A98, symBinAddr: 0x1000055AC, symSize: 0xBC }
  - { offset: 0x9ED5, size: 0x8, addend: 0x0, symName: __RNvXs6_NtCse1nGBsou5OW_5alloc5boxedINtB5_3BoxSmENtNtNtCsfvfooZQ3Axs_4core3ops4drop4Drop4dropCsaYbxp8rU3yk_18build_script_build, symObjAddr: 0x4B54, symBinAddr: 0x100005668, symSize: 0xBC }
  - { offset: 0xA045, size: 0x8, addend: 0x0, symName: __RNCNCNCNvCsaYbxp8rU3yk_18build_script_build19minor_rustc_version000B7_, symObjAddr: 0x5EC8, symBinAddr: 0x1000069DC, symSize: 0x54 }
  - { offset: 0xA083, size: 0x8, addend: 0x0, symName: __RNCNCNvCsaYbxp8rU3yk_18build_script_build19minor_rustc_version00B5_, symObjAddr: 0x5E70, symBinAddr: 0x100006984, symSize: 0x58 }
  - { offset: 0xA0BA, size: 0x8, addend: 0x0, symName: __RNCNvCsaYbxp8rU3yk_18build_script_build19minor_rustc_version0B3_, symObjAddr: 0x5DBC, symBinAddr: 0x1000068D0, symSize: 0xB4 }
  - { offset: 0xA0F2, size: 0x8, addend: 0x0, symName: __RNvCsaYbxp8rU3yk_18build_script_build4main, symObjAddr: 0x5B90, symBinAddr: 0x1000066A4, symSize: 0xC8 }
  - { offset: 0xA121, size: 0x8, addend: 0x0, symName: __RNvCsaYbxp8rU3yk_18build_script_build19minor_rustc_version, symObjAddr: 0x5C58, symBinAddr: 0x10000676C, symSize: 0x164 }
  - { offset: 0xA15D, size: 0x8, addend: 0x0, symName: __RINvMNtCsfvfooZQ3Axs_4core6optionINtB3_6OptionNtNtCscOYdFFY2T5N_3std7process6OutputE8and_thenmNCNvCsaYbxp8rU3yk_18build_script_build19minor_rustc_version0EB1y_, symObjAddr: 0xD0, symBinAddr: 0x100000CC0, symSize: 0x88 }
  - { offset: 0xA1C9, size: 0x8, addend: 0x0, symName: __RINvMNtCsfvfooZQ3Axs_4core6optionINtB3_6OptionReE8and_thenmNCNCNCNvCsaYbxp8rU3yk_18build_script_build19minor_rustc_version000EB13_, symObjAddr: 0x158, symBinAddr: 0x100000D48, symSize: 0x64 }
  - { offset: 0xA234, size: 0x8, addend: 0x0, symName: __RINvMNtCsfvfooZQ3Axs_4core6optionINtB3_6OptionReE8and_thenmNCNCNvCsaYbxp8rU3yk_18build_script_build19minor_rustc_version00EB11_, symObjAddr: 0x1BC, symBinAddr: 0x100000DAC, symSize: 0x64 }
  - { offset: 0xA3A7, size: 0x8, addend: 0x0, symName: __RINvMs3_NtCsfvfooZQ3Axs_4core3fmtNtB6_9Arguments9new_constKj1_ECsaYbxp8rU3yk_18build_script_build, symObjAddr: 0x220, symBinAddr: 0x100000E10, symSize: 0x48 }
  - { offset: 0xA45B, size: 0x8, addend: 0x0, symName: __RINvMsb_NtNtNtCse1nGBsou5OW_5alloc11collections5btree8navigateINtB6_13LazyLeafRangeNtNtNtB8_4node6marker5DyingNtNtNtCscOYdFFY2T5N_3std3ffi6os_str8OsStringINtNtCsfvfooZQ3Axs_4core6option6OptionB1K_EE16deallocating_endNtNtBc_5alloc6GlobalECsaYbxp8rU3yk_18build_script_build, symObjAddr: 0x268, symBinAddr: 0x100000E58, symSize: 0xA8 }
  - { offset: 0xA53A, size: 0x8, addend: 0x0, symName: __RINvMsb_NtNtNtCse1nGBsou5OW_5alloc11collections5btree8navigateINtB6_13LazyLeafRangeNtNtNtB8_4node6marker5DyingNtNtNtCscOYdFFY2T5N_3std3ffi6os_str8OsStringINtNtCsfvfooZQ3Axs_4core6option6OptionB1K_EE27deallocating_next_uncheckedNtNtBc_5alloc6GlobalECsaYbxp8rU3yk_18build_script_build, symObjAddr: 0x310, symBinAddr: 0x100000F00, symSize: 0xA8 }
  - { offset: 0xA6C5, size: 0x8, addend: 0x0, symName: __RINvMsh_NtNtNtCse1nGBsou5OW_5alloc11collections5btree4nodeINtB6_7NodeRefNtNtB6_6marker5DyingNtNtNtCscOYdFFY2T5N_3std3ffi6os_str8OsStringINtNtCsfvfooZQ3Axs_4core6option6OptionB1s_ENtB1a_14LeafOrInternalE21deallocate_and_ascendNtNtBc_5alloc6GlobalECsaYbxp8rU3yk_18build_script_build, symObjAddr: 0x3B8, symBinAddr: 0x100000FA8, symSize: 0x178 }
  - { offset: 0xA8ED, size: 0x8, addend: 0x0, symName: __RINvMsj_NtNtNtCse1nGBsou5OW_5alloc11collections5btree8navigateINtNtB8_4node6HandleINtB11_7NodeRefNtNtB11_6marker5DyingNtNtNtCscOYdFFY2T5N_3std3ffi6os_str8OsStringINtNtCsfvfooZQ3Axs_4core6option6OptionB1S_ENtB1z_4LeafENtB1z_4EdgeE16deallocating_endNtNtBc_5alloc6GlobalECsaYbxp8rU3yk_18build_script_build, symObjAddr: 0x530, symBinAddr: 0x100001120, symSize: 0xD8 }
  - { offset: 0xAB6E, size: 0x8, addend: 0x0, symName: __RINvMsj_NtNtNtCse1nGBsou5OW_5alloc11collections5btree8navigateINtNtB8_4node6HandleINtB11_7NodeRefNtNtB11_6marker5DyingNtNtNtCscOYdFFY2T5N_3std3ffi6os_str8OsStringINtNtCsfvfooZQ3Axs_4core6option6OptionB1S_ENtB1z_4LeafENtB1z_4EdgeE17deallocating_nextNtNtBc_5alloc6GlobalECsaYbxp8rU3yk_18build_script_build, symObjAddr: 0x608, symBinAddr: 0x1000011F8, symSize: 0x254 }
  - { offset: 0xAE53, size: 0x8, addend: 0x0, symName: __RINvMsk_NtCscOYdFFY2T5N_3std7processNtB6_7Command3argReECsaYbxp8rU3yk_18build_script_build, symObjAddr: 0x85C, symBinAddr: 0x10000144C, symSize: 0x70 }
  - { offset: 0xAE8E, size: 0x8, addend: 0x0, symName: __RINvMsk_NtCscOYdFFY2T5N_3std7processNtB6_7Command3newNtNtNtB8_3ffi6os_str8OsStringECsaYbxp8rU3yk_18build_script_build, symObjAddr: 0x8CC, symBinAddr: 0x1000014BC, symSize: 0x90 }
  - { offset: 0xB146, size: 0x8, addend: 0x0, symName: __RNvMNtCsfvfooZQ3Axs_4core6resultINtB2_6ResultNtNtCscOYdFFY2T5N_3std7process6OutputNtNtNtBL_2io5error5ErrorE2okCsaYbxp8rU3yk_18build_script_build, symObjAddr: 0x1D80, symBinAddr: 0x100002898, symSize: 0xA8 }
  - { offset: 0xB19A, size: 0x8, addend: 0x0, symName: __RNvMNtCsfvfooZQ3Axs_4core6resultINtB2_6ResultReNtNtNtB4_3str5error9Utf8ErrorE2okCsaYbxp8rU3yk_18build_script_build, symObjAddr: 0x1E28, symBinAddr: 0x100002940, symSize: 0x60 }
  - { offset: 0xB1EE, size: 0x8, addend: 0x0, symName: __RNvMNtCsfvfooZQ3Axs_4core6resultINtB2_6ResulthNtNtNtB4_3num5error15TryFromIntErrorE6expectCsaYbxp8rU3yk_18build_script_build, symObjAddr: 0x1E88, symBinAddr: 0x1000029A0, symSize: 0x84 }
  - { offset: 0xB250, size: 0x8, addend: 0x0, symName: __RNvMNtCsfvfooZQ3Axs_4core6resultINtB2_6ResultmNtNtNtB4_3num5error13ParseIntErrorE2okCsaYbxp8rU3yk_18build_script_build, symObjAddr: 0x1F0C, symBinAddr: 0x100002A24, symSize: 0x5C }
  - { offset: 0xB2F0, size: 0x8, addend: 0x0, symName: __RNvMs5_NtNtCscOYdFFY2T5N_3std2io5errorNtB5_5Error14is_interruptedCsaYbxp8rU3yk_18build_script_build, symObjAddr: 0x20B4, symBinAddr: 0x100002BCC, symSize: 0x138 }
  - { offset: 0xB544, size: 0x8, addend: 0x0, symName: __RNvMsO_NtNtNtCse1nGBsou5OW_5alloc11collections5btree4nodeINtB5_6HandleINtB5_7NodeRefNtNtB5_6marker5DyingNtNtNtCscOYdFFY2T5N_3std3ffi6os_str8OsStringINtNtCsfvfooZQ3Axs_4core6option6OptionB1E_ENtB1m_8InternalENtB1m_4EdgeE7descendCsaYbxp8rU3yk_18build_script_build, symObjAddr: 0x2728, symBinAddr: 0x100003240, symSize: 0x94 }
  - { offset: 0xB849, size: 0x8, addend: 0x0, symName: __RNvMsT_NtNtNtCse1nGBsou5OW_5alloc11collections5btree4nodeINtB5_6HandleINtB5_7NodeRefNtNtB5_6marker5DyingNtNtNtCscOYdFFY2T5N_3std3ffi6os_str8OsStringINtNtCsfvfooZQ3Axs_4core6option6OptionB1E_ENtB1m_14LeafOrInternalENtB1m_2KVE12drop_key_valCsaYbxp8rU3yk_18build_script_build, symObjAddr: 0x27BC, symBinAddr: 0x1000032D4, symSize: 0x128 }
  - { offset: 0xBAF9, size: 0x8, addend: 0x0, symName: __RNvMs_NtCse1nGBsou5OW_5alloc3vecINtB4_3VechE8as_sliceCsaYbxp8rU3yk_18build_script_build, symObjAddr: 0x28E4, symBinAddr: 0x1000033FC, symSize: 0x60 }
  - { offset: 0xBD2B, size: 0x8, addend: 0x0, symName: __RNvMsb_NtNtNtCse1nGBsou5OW_5alloc11collections5btree8navigateINtB5_13LazyLeafRangeNtNtNtB7_4node6marker5DyingNtNtNtCscOYdFFY2T5N_3std3ffi6os_str8OsStringINtNtCsfvfooZQ3Axs_4core6option6OptionB1J_EE10take_frontCsaYbxp8rU3yk_18build_script_build, symObjAddr: 0x2944, symBinAddr: 0x10000345C, symSize: 0x1C4 }
  - { offset: 0xC0B4, size: 0x8, addend: 0x0, symName: __RNvMsc_NtNtNtCse1nGBsou5OW_5alloc11collections5btree8navigateINtB5_13LazyLeafRangeNtNtNtB7_4node6marker5DyingNtNtNtCscOYdFFY2T5N_3std3ffi6os_str8OsStringINtNtCsfvfooZQ3Axs_4core6option6OptionB1J_EE10init_frontCsaYbxp8rU3yk_18build_script_build, symObjAddr: 0x2B08, symBinAddr: 0x100003620, symSize: 0x1C4 }
  - { offset: 0xC34D, size: 0x8, addend: 0x0, symName: __RNvMse_NtNtNtCse1nGBsou5OW_5alloc11collections5btree4nodeINtB5_7NodeRefNtNtB5_6marker5DyingNtNtNtCscOYdFFY2T5N_3std3ffi6os_str8OsStringINtNtCsfvfooZQ3Axs_4core6option6OptionB1r_ENtB19_14LeafOrInternalE6ascendCsaYbxp8rU3yk_18build_script_build, symObjAddr: 0x2CCC, symBinAddr: 0x1000037E4, symSize: 0x168 }
  - { offset: 0xC4FB, size: 0x8, addend: 0x0, symName: __RNvMsf_NtNtCsfvfooZQ3Axs_4core3str4iterINtB5_13SplitInternalcE4nextCsaYbxp8rU3yk_18build_script_build, symObjAddr: 0x2E34, symBinAddr: 0x10000394C, symSize: 0x138 }
  - { offset: 0xC637, size: 0x8, addend: 0x0, symName: __RNvMsf_NtNtCsfvfooZQ3Axs_4core3str4iterINtB5_13SplitInternalcE7get_endCsaYbxp8rU3yk_18build_script_build, symObjAddr: 0x2F6C, symBinAddr: 0x100003A84, symSize: 0x120 }
  - { offset: 0xC949, size: 0x8, addend: 0x0, symName: __RNvMsp_NtNtNtCse1nGBsou5OW_5alloc11collections5btree8navigateINtNtB7_4node6HandleINtB10_7NodeRefNtNtB10_6marker5DyingNtNtNtCscOYdFFY2T5N_3std3ffi6os_str8OsStringINtNtCsfvfooZQ3Axs_4core6option6OptionB1R_ENtB1y_14LeafOrInternalENtB1y_2KVE14next_leaf_edgeCsaYbxp8rU3yk_18build_script_build, symObjAddr: 0x308C, symBinAddr: 0x100003BA4, symSize: 0x210 }
  - { offset: 0xCBB2, size: 0x8, addend: 0x0, symName: __RNvMsx_NtNtNtCse1nGBsou5OW_5alloc11collections5btree3mapINtB5_8IntoIterNtNtNtCscOYdFFY2T5N_3std3ffi6os_str8OsStringINtNtCsfvfooZQ3Axs_4core6option6OptionB17_EE10dying_nextCsaYbxp8rU3yk_18build_script_build, symObjAddr: 0x329C, symBinAddr: 0x100003DB4, symSize: 0x90 }
  - { offset: 0xD9EE, size: 0x8, addend: 0x0, symName: ___llvm_profile_get_magic, symObjAddr: 0x28, symBinAddr: 0x100006A70, symSize: 0x14 }
  - { offset: 0xDA0F, size: 0x8, addend: 0x0, symName: ___llvm_profile_get_num_padding_bytes, symObjAddr: 0x44, symBinAddr: 0x100006A84, symSize: 0xC }
  - { offset: 0xDA17, size: 0x8, addend: 0x0, symName: ___llvm_profile_get_version, symObjAddr: 0x50, symBinAddr: 0x100006A90, symSize: 0xC }
  - { offset: 0xDA40, size: 0x8, addend: 0x0, symName: ___llvm_profile_get_version, symObjAddr: 0x50, symBinAddr: 0x100006A90, symSize: 0xC }
  - { offset: 0xDAB5, size: 0x8, addend: 0x0, symName: ___llvm_profile_is_continuous_mode_enabled, symObjAddr: 0x0, symBinAddr: 0x100006A9C, symSize: 0x20 }
  - { offset: 0xDAD2, size: 0x8, addend: 0x0, symName: __MergedGlobals, symObjAddr: 0x3E20, symBinAddr: 0x1000610F0, symSize: 0x0 }
  - { offset: 0xDAF4, size: 0x8, addend: 0x0, symName: __MergedGlobals, symObjAddr: 0x3E20, symBinAddr: 0x1000610F0, symSize: 0x0 }
  - { offset: 0xDB24, size: 0x8, addend: 0x0, symName: ___llvm_profile_is_continuous_mode_enabled, symObjAddr: 0x0, symBinAddr: 0x100006A9C, symSize: 0x20 }
  - { offset: 0xDB2C, size: 0x8, addend: 0x0, symName: ___llvm_profile_enable_continuous_mode, symObjAddr: 0x20, symBinAddr: 0x100006ABC, symSize: 0x10 }
  - { offset: 0xDB3C, size: 0x8, addend: 0x0, symName: ___llvm_profile_enable_continuous_mode, symObjAddr: 0x20, symBinAddr: 0x100006ABC, symSize: 0x10 }
  - { offset: 0xDB44, size: 0x8, addend: 0x0, symName: ___llvm_profile_disable_continuous_mode, symObjAddr: 0x30, symBinAddr: 0x100006ACC, symSize: 0xC }
  - { offset: 0xDB59, size: 0x8, addend: 0x0, symName: ___llvm_profile_disable_continuous_mode, symObjAddr: 0x30, symBinAddr: 0x100006ACC, symSize: 0xC }
  - { offset: 0xDB61, size: 0x8, addend: 0x0, symName: ___llvm_profile_set_page_size, symObjAddr: 0x3C, symBinAddr: 0x100006AD8, symSize: 0xC }
  - { offset: 0xDB76, size: 0x8, addend: 0x0, symName: ___llvm_profile_set_page_size, symObjAddr: 0x3C, symBinAddr: 0x100006AD8, symSize: 0xC }
  - { offset: 0xDB7E, size: 0x8, addend: 0x0, symName: ___llvm_profile_get_size_for_buffer, symObjAddr: 0x48, symBinAddr: 0x100006AE4, symSize: 0xC4 }
  - { offset: 0xDBA1, size: 0x8, addend: 0x0, symName: ___llvm_profile_get_size_for_buffer, symObjAddr: 0x48, symBinAddr: 0x100006AE4, symSize: 0xC4 }
  - { offset: 0xDBA9, size: 0x8, addend: 0x0, symName: ___llvm_profile_get_size_for_buffer_internal, symObjAddr: 0x10C, symBinAddr: 0x100006BA8, symSize: 0x1C0 }
  - { offset: 0xE00C, size: 0x8, addend: 0x0, symName: ___llvm_profile_get_size_for_buffer_internal, symObjAddr: 0x10C, symBinAddr: 0x100006BA8, symSize: 0x1C0 }
  - { offset: 0xE014, size: 0x8, addend: 0x0, symName: ___llvm_profile_get_num_data, symObjAddr: 0x2CC, symBinAddr: 0x100006D68, symSize: 0x10 }
  - { offset: 0xE403, size: 0x8, addend: 0x0, symName: ___llvm_profile_get_num_data, symObjAddr: 0x2CC, symBinAddr: 0x100006D68, symSize: 0x10 }
  - { offset: 0xE40B, size: 0x8, addend: 0x0, symName: ___llvm_profile_get_data_size, symObjAddr: 0x2DC, symBinAddr: 0x100006D78, symSize: 0x10 }
  - { offset: 0xE43C, size: 0x8, addend: 0x0, symName: ___llvm_profile_get_data_size, symObjAddr: 0x2DC, symBinAddr: 0x100006D78, symSize: 0x10 }
  - { offset: 0xE444, size: 0x8, addend: 0x0, symName: ___llvm_profile_get_num_vtable, symObjAddr: 0x2EC, symBinAddr: 0x100006D88, symSize: 0x18 }
  - { offset: 0xE468, size: 0x8, addend: 0x0, symName: ___llvm_profile_get_data_size, symObjAddr: 0x2DC, symBinAddr: 0x100006D78, symSize: 0x10 }
  - { offset: 0xE49A, size: 0x8, addend: 0x0, symName: ___llvm_profile_get_num_vtable, symObjAddr: 0x2EC, symBinAddr: 0x100006D88, symSize: 0x18 }
  - { offset: 0xE4A2, size: 0x8, addend: 0x0, symName: ___llvm_profile_get_vtable_section_size, symObjAddr: 0x304, symBinAddr: 0x100006DA0, symSize: 0x8 }
  - { offset: 0xE4F4, size: 0x8, addend: 0x0, symName: ___llvm_profile_get_vtable_section_size, symObjAddr: 0x304, symBinAddr: 0x100006DA0, symSize: 0x8 }
  - { offset: 0xE4FC, size: 0x8, addend: 0x0, symName: ___llvm_profile_counter_entry_size, symObjAddr: 0x30C, symBinAddr: 0x100006DA8, symSize: 0x1C }
  - { offset: 0xE51D, size: 0x8, addend: 0x0, symName: ___llvm_profile_counter_entry_size, symObjAddr: 0x30C, symBinAddr: 0x100006DA8, symSize: 0x1C }
  - { offset: 0xE525, size: 0x8, addend: 0x0, symName: ___llvm_profile_get_num_counters, symObjAddr: 0x328, symBinAddr: 0x100006DC4, symSize: 0x48 }
  - { offset: 0xE535, size: 0x8, addend: 0x0, symName: ___llvm_profile_get_num_counters, symObjAddr: 0x328, symBinAddr: 0x100006DC4, symSize: 0x48 }
  - { offset: 0xE53D, size: 0x8, addend: 0x0, symName: ___llvm_profile_get_counters_size, symObjAddr: 0x370, symBinAddr: 0x100006E0C, symSize: 0x5C }
  - { offset: 0xE5A2, size: 0x8, addend: 0x0, symName: ___llvm_profile_get_counters_size, symObjAddr: 0x370, symBinAddr: 0x100006E0C, symSize: 0x5C }
  - { offset: 0xE5AA, size: 0x8, addend: 0x0, symName: ___llvm_profile_get_num_bitmap_bytes, symObjAddr: 0x3CC, symBinAddr: 0x100006E68, symSize: 0x8 }
  - { offset: 0xE64E, size: 0x8, addend: 0x0, symName: ___llvm_profile_get_num_bitmap_bytes, symObjAddr: 0x3CC, symBinAddr: 0x100006E68, symSize: 0x8 }
  - { offset: 0xE656, size: 0x8, addend: 0x0, symName: ___llvm_profile_get_name_size, symObjAddr: 0x3D4, symBinAddr: 0x100006E70, symSize: 0x8 }
  - { offset: 0xE677, size: 0x8, addend: 0x0, symName: ___llvm_profile_get_name_size, symObjAddr: 0x3D4, symBinAddr: 0x100006E70, symSize: 0x8 }
  - { offset: 0xE67F, size: 0x8, addend: 0x0, symName: ___llvm_profile_get_padding_sizes_for_counters, symObjAddr: 0x3DC, symBinAddr: 0x100006E78, symSize: 0x15C }
  - { offset: 0xE6A0, size: 0x8, addend: 0x0, symName: ___llvm_profile_get_padding_sizes_for_counters, symObjAddr: 0x3DC, symBinAddr: 0x100006E78, symSize: 0x15C }
  - { offset: 0xE6A8, size: 0x8, addend: 0x0, symName: _initBufferWriter, symObjAddr: 0x538, symBinAddr: 0x100006FD4, symSize: 0x10 }
  - { offset: 0xE7FC, size: 0x8, addend: 0x0, symName: _initBufferWriter, symObjAddr: 0x538, symBinAddr: 0x100006FD4, symSize: 0x10 }
  - { offset: 0xE966, size: 0x8, addend: 0x0, symName: __MergedGlobals, symObjAddr: 0xA4F0, symBinAddr: 0x100061100, symSize: 0x0 }
  - { offset: 0xEA82, size: 0x8, addend: 0x0, symName: __MergedGlobals, symObjAddr: 0xA4F0, symBinAddr: 0x100061100, symSize: 0x0 }
  - { offset: 0xECB2, size: 0x8, addend: 0x0, symName: __MergedGlobals, symObjAddr: 0xA4F0, symBinAddr: 0x100061100, symSize: 0x0 }
  - { offset: 0xEDD7, size: 0x8, addend: 0x0, symName: _getCurFilenameLength, symObjAddr: 0x1C8, symBinAddr: 0x100006FE4, symSize: 0x108 }
  - { offset: 0xEDDF, size: 0x8, addend: 0x0, symName: _getCurFilename, symObjAddr: 0x2D0, symBinAddr: 0x1000070EC, symSize: 0x2B8 }
  - { offset: 0xEE5C, size: 0x8, addend: 0x0, symName: _getCurFilename, symObjAddr: 0x2D0, symBinAddr: 0x1000070EC, symSize: 0x2B8 }
  - { offset: 0xF076, size: 0x8, addend: 0x0, symName: _parseAndSetFilename, symObjAddr: 0x688, symBinAddr: 0x1000073A4, symSize: 0x4B8 }
  - { offset: 0xF07E, size: 0x8, addend: 0x0, symName: ___llvm_profile_initialize, symObjAddr: 0xB40, symBinAddr: 0x10000785C, symSize: 0xB8 }
  - { offset: 0xF25D, size: 0x8, addend: 0x0, symName: ___llvm_profile_initialize, symObjAddr: 0xB40, symBinAddr: 0x10000785C, symSize: 0xB8 }
  - { offset: 0xF2D9, size: 0x8, addend: 0x0, symName: ___llvm_profile_write_file, symObjAddr: 0xC74, symBinAddr: 0x100007914, symSize: 0x1B4 }
  - { offset: 0xF2E1, size: 0x8, addend: 0x0, symName: _writeFile, symObjAddr: 0xE28, symBinAddr: 0x100007AC8, symSize: 0x294 }
  - { offset: 0xF42C, size: 0x8, addend: 0x0, symName: _writeFile, symObjAddr: 0xE28, symBinAddr: 0x100007AC8, symSize: 0x294 }
  - { offset: 0xF59D, size: 0x8, addend: 0x0, symName: _writeFileWithoutReturn, symObjAddr: 0x138C, symBinAddr: 0x100007D5C, symSize: 0x4 }
  - { offset: 0xF5D2, size: 0x8, addend: 0x0, symName: _getProfileFileSizeForMerging, symObjAddr: 0x1574, symBinAddr: 0x100007D60, symSize: 0x110 }
  - { offset: 0xF5DA, size: 0x8, addend: 0x0, symName: _mmapProfileForMerging, symObjAddr: 0x1684, symBinAddr: 0x100007E70, symSize: 0xBC }
  - { offset: 0xF614, size: 0x8, addend: 0x0, symName: _mmapProfileForMerging, symObjAddr: 0x1684, symBinAddr: 0x100007E70, symSize: 0xBC }
  - { offset: 0xF61C, size: 0x8, addend: 0x0, symName: _mmapForContinuousMode, symObjAddr: 0x1740, symBinAddr: 0x100007F2C, symSize: 0x264 }
  - { offset: 0xF667, size: 0x8, addend: 0x0, symName: _mmapForContinuousMode, symObjAddr: 0x1740, symBinAddr: 0x100007F2C, symSize: 0x264 }
  - { offset: 0xF66F, size: 0x8, addend: 0x0, symName: _fileWriter, symObjAddr: 0x19A4, symBinAddr: 0x100008190, symSize: 0x140 }
  - { offset: 0xF82D, size: 0x8, addend: 0x0, symName: _fileWriter, symObjAddr: 0x19A4, symBinAddr: 0x100008190, symSize: 0x140 }
  - { offset: 0xF835, size: 0x8, addend: 0x0, symName: _truncateCurrentFile, symObjAddr: 0x1AE4, symBinAddr: 0x1000082D0, symSize: 0xD8 }
  - { offset: 0xF8F6, size: 0x8, addend: 0x0, symName: _truncateCurrentFile, symObjAddr: 0x1AE4, symBinAddr: 0x1000082D0, symSize: 0xD8 }
  - { offset: 0xF8FE, size: 0x8, addend: 0x0, symName: _initializeProfileForContinuousMode, symObjAddr: 0x1BBC, symBinAddr: 0x1000083A8, symSize: 0x25C }
  - { offset: 0xF995, size: 0x8, addend: 0x0, symName: _initializeProfileForContinuousMode, symObjAddr: 0x1BBC, symBinAddr: 0x1000083A8, symSize: 0x25C }
  - { offset: 0xF99D, size: 0x8, addend: 0x0, symName: _createProfileDir, symObjAddr: 0x1E18, symBinAddr: 0x100008604, symSize: 0xA4 }
  - { offset: 0xFB61, size: 0x8, addend: 0x0, symName: _createProfileDir, symObjAddr: 0x1E18, symBinAddr: 0x100008604, symSize: 0xA4 }
  - { offset: 0xFB69, size: 0x8, addend: 0x0, symName: _parseAndSetFilename.cold.1, symObjAddr: 0x1EBC, symBinAddr: 0x100044FB4, symSize: 0x24 }
  - { offset: 0xFBC3, size: 0x8, addend: 0x0, symName: _parseAndSetFilename.cold.1, symObjAddr: 0x1EBC, symBinAddr: 0x100044FB4, symSize: 0x24 }
  - { offset: 0xFBCB, size: 0x8, addend: 0x0, symName: _parseAndSetFilename.cold.2, symObjAddr: 0x1EE0, symBinAddr: 0x100044FD8, symSize: 0x24 }
  - { offset: 0xFBED, size: 0x8, addend: 0x0, symName: _parseAndSetFilename.cold.2, symObjAddr: 0x1EE0, symBinAddr: 0x100044FD8, symSize: 0x24 }
  - { offset: 0xFC07, size: 0x8, addend: 0x0, symName: _parseAndSetFilename.cold.2, symObjAddr: 0x1EE0, symBinAddr: 0x100044FD8, symSize: 0x24 }
  - { offset: 0xFC17, size: 0x8, addend: 0x0, symName: _parseAndSetFilename.cold.2, symObjAddr: 0x1EE0, symBinAddr: 0x100044FD8, symSize: 0x24 }
  - { offset: 0xFD7C, size: 0x8, addend: 0x0, symName: _lprofProfileDumped, symObjAddr: 0x0, symBinAddr: 0x1000086A8, symSize: 0xC }
  - { offset: 0xFD99, size: 0x8, addend: 0x0, symName: _ProfileDumped, symObjAddr: 0x4E0, symBinAddr: 0x1000611D0, symSize: 0x0 }
  - { offset: 0xFDA9, size: 0x8, addend: 0x0, symName: _lprofProfileDumped, symObjAddr: 0x0, symBinAddr: 0x1000086A8, symSize: 0xC }
  - { offset: 0xFDF1, size: 0x8, addend: 0x0, symName: _lprofGetLoadModuleSignature, symObjAddr: 0x0, symBinAddr: 0x1000086B4, symSize: 0xD0 }
  - { offset: 0xFE1E, size: 0x8, addend: 0x0, symName: _VPMergeHook, symBinAddr: 0x1000610E8, symSize: 0x0 }
  - { offset: 0x10082, size: 0x8, addend: 0x0, symName: _lprofGetLoadModuleSignature, symObjAddr: 0x0, symBinAddr: 0x1000086B4, symSize: 0xD0 }
  - { offset: 0x1008A, size: 0x8, addend: 0x0, symName: ___llvm_profile_check_compatibility, symObjAddr: 0xD0, symBinAddr: 0x100008784, symSize: 0x1CC }
  - { offset: 0x100F9, size: 0x8, addend: 0x0, symName: ___llvm_profile_check_compatibility, symObjAddr: 0xD0, symBinAddr: 0x100008784, symSize: 0x1CC }
  - { offset: 0x10101, size: 0x8, addend: 0x0, symName: ___llvm_profile_merge_from_buffer, symObjAddr: 0x29C, symBinAddr: 0x100008950, symSize: 0x48C }
  - { offset: 0x101D9, size: 0x8, addend: 0x0, symName: ___llvm_profile_merge_from_buffer, symObjAddr: 0x29C, symBinAddr: 0x100008950, symSize: 0x48C }
  - { offset: 0x10440, size: 0x8, addend: 0x0, symName: _lprofMergeValueProfData, symObjAddr: 0x0, symBinAddr: 0x100008DDC, symSize: 0xF0 }
  - { offset: 0x10451, size: 0x8, addend: 0x0, symName: _lprofMergeValueProfData, symObjAddr: 0x0, symBinAddr: 0x100008DDC, symSize: 0xF0 }
  - { offset: 0x1071C, size: 0x8, addend: 0x0, symName: ___llvm_profile_begin_data, symObjAddr: 0x0, symBinAddr: 0x100008ECC, symSize: 0xC }
  - { offset: 0x1073B, size: 0x8, addend: 0x0, symName: _CurrentVNode, symObjAddr: 0xC0, symBinAddr: 0x100060590, symSize: 0x0 }
  - { offset: 0x107B7, size: 0x8, addend: 0x0, symName: _EndVNode, symObjAddr: 0xC8, symBinAddr: 0x100060598, symSize: 0x0 }
  - { offset: 0x107C0, size: 0x8, addend: 0x0, symName: ___llvm_profile_begin_data, symObjAddr: 0x0, symBinAddr: 0x100008ECC, symSize: 0xC }
  - { offset: 0x107C8, size: 0x8, addend: 0x0, symName: ___llvm_profile_end_data, symObjAddr: 0xC, symBinAddr: 0x100008ED8, symSize: 0xC }
  - { offset: 0x107E1, size: 0x8, addend: 0x0, symName: ___llvm_profile_end_data, symObjAddr: 0xC, symBinAddr: 0x100008ED8, symSize: 0xC }
  - { offset: 0x107E9, size: 0x8, addend: 0x0, symName: ___llvm_profile_begin_names, symObjAddr: 0x18, symBinAddr: 0x100008EE4, symSize: 0xC }
  - { offset: 0x10802, size: 0x8, addend: 0x0, symName: ___llvm_profile_begin_names, symObjAddr: 0x18, symBinAddr: 0x100008EE4, symSize: 0xC }
  - { offset: 0x1080A, size: 0x8, addend: 0x0, symName: ___llvm_profile_end_names, symObjAddr: 0x24, symBinAddr: 0x100008EF0, symSize: 0xC }
  - { offset: 0x10823, size: 0x8, addend: 0x0, symName: ___llvm_profile_end_names, symObjAddr: 0x24, symBinAddr: 0x100008EF0, symSize: 0xC }
  - { offset: 0x1082B, size: 0x8, addend: 0x0, symName: ___llvm_profile_begin_counters, symObjAddr: 0x30, symBinAddr: 0x100008EFC, symSize: 0xC }
  - { offset: 0x10844, size: 0x8, addend: 0x0, symName: ___llvm_profile_begin_counters, symObjAddr: 0x30, symBinAddr: 0x100008EFC, symSize: 0xC }
  - { offset: 0x1084C, size: 0x8, addend: 0x0, symName: ___llvm_profile_end_counters, symObjAddr: 0x3C, symBinAddr: 0x100008F08, symSize: 0xC }
  - { offset: 0x10865, size: 0x8, addend: 0x0, symName: ___llvm_profile_end_counters, symObjAddr: 0x3C, symBinAddr: 0x100008F08, symSize: 0xC }
  - { offset: 0x1086D, size: 0x8, addend: 0x0, symName: ___llvm_profile_begin_bitmap, symObjAddr: 0x48, symBinAddr: 0x100008F14, symSize: 0xC }
  - { offset: 0x10886, size: 0x8, addend: 0x0, symName: ___llvm_profile_begin_bitmap, symObjAddr: 0x48, symBinAddr: 0x100008F14, symSize: 0xC }
  - { offset: 0x1088E, size: 0x8, addend: 0x0, symName: ___llvm_profile_end_bitmap, symObjAddr: 0x54, symBinAddr: 0x100008F20, symSize: 0xC }
  - { offset: 0x108A7, size: 0x8, addend: 0x0, symName: ___llvm_profile_end_bitmap, symObjAddr: 0x54, symBinAddr: 0x100008F20, symSize: 0xC }
  - { offset: 0x108AF, size: 0x8, addend: 0x0, symName: ___llvm_profile_begin_vtables, symObjAddr: 0x60, symBinAddr: 0x100008F2C, symSize: 0xC }
  - { offset: 0x108C9, size: 0x8, addend: 0x0, symName: ___llvm_profile_begin_vtables, symObjAddr: 0x60, symBinAddr: 0x100008F2C, symSize: 0xC }
  - { offset: 0x108D1, size: 0x8, addend: 0x0, symName: ___llvm_profile_end_vtables, symObjAddr: 0x6C, symBinAddr: 0x100008F38, symSize: 0xC }
  - { offset: 0x108EA, size: 0x8, addend: 0x0, symName: ___llvm_profile_end_vtables, symObjAddr: 0x6C, symBinAddr: 0x100008F38, symSize: 0xC }
  - { offset: 0x108F2, size: 0x8, addend: 0x0, symName: ___llvm_profile_begin_vtabnames, symObjAddr: 0x78, symBinAddr: 0x100008F44, symSize: 0xC }
  - { offset: 0x1090A, size: 0x8, addend: 0x0, symName: ___llvm_profile_begin_vtabnames, symObjAddr: 0x78, symBinAddr: 0x100008F44, symSize: 0xC }
  - { offset: 0x10912, size: 0x8, addend: 0x0, symName: ___llvm_profile_end_vtabnames, symObjAddr: 0x84, symBinAddr: 0x100008F50, symSize: 0xC }
  - { offset: 0x1092B, size: 0x8, addend: 0x0, symName: ___llvm_profile_end_vtabnames, symObjAddr: 0x84, symBinAddr: 0x100008F50, symSize: 0xC }
  - { offset: 0x1094D, size: 0x8, addend: 0x0, symName: ___llvm_profile_begin_vnodes, symObjAddr: 0x9C, symBinAddr: 0x100008F5C, symSize: 0xC }
  - { offset: 0x10955, size: 0x8, addend: 0x0, symName: ___llvm_profile_end_vnodes, symObjAddr: 0xA8, symBinAddr: 0x100008F68, symSize: 0xC }
  - { offset: 0x1096E, size: 0x8, addend: 0x0, symName: ___llvm_profile_end_vnodes, symObjAddr: 0xA8, symBinAddr: 0x100008F68, symSize: 0xC }
  - { offset: 0x10976, size: 0x8, addend: 0x0, symName: ___llvm_write_binary_ids, symObjAddr: 0xB4, symBinAddr: 0x100008F74, symSize: 0x8 }
  - { offset: 0x1098E, size: 0x8, addend: 0x0, symName: ___llvm_write_binary_ids, symObjAddr: 0xB4, symBinAddr: 0x100008F74, symSize: 0x8 }
  - { offset: 0x10C14, size: 0x8, addend: 0x0, symName: __GLOBAL__sub_I_InstrProfilingRuntime.cpp, symObjAddr: 0x0, symBinAddr: 0x100008F7C, symSize: 0x18 }
  - { offset: 0x10C37, size: 0x8, addend: 0x0, symName: ___llvm_profile_runtime, symObjAddr: 0x590, symBinAddr: 0x1000610A4, symSize: 0x0 }
  - { offset: 0x10C67, size: 0x8, addend: 0x0, symName: __GLOBAL__sub_I_InstrProfilingRuntime.cpp, symObjAddr: 0x0, symBinAddr: 0x100008F7C, symSize: 0x18 }
  - { offset: 0x10CE3, size: 0x8, addend: 0x0, symName: ___llvm_profile_recursive_mkdir, symObjAddr: 0x0, symBinAddr: 0x100008F94, symSize: 0x58 }
  - { offset: 0x10CEB, size: 0x8, addend: 0x0, symName: _lprofDirMode, symObjAddr: 0x5A8, symBinAddr: 0x1000605A0, symSize: 0x0 }
  - { offset: 0x10D02, size: 0x8, addend: 0x0, symName: _lprofDirMode, symObjAddr: 0x5A8, symBinAddr: 0x1000605A0, symSize: 0x0 }
  - { offset: 0x10D37, size: 0x8, addend: 0x0, symName: ___llvm_profile_recursive_mkdir, symObjAddr: 0x0, symBinAddr: 0x100008F94, symSize: 0x58 }
  - { offset: 0x10DB6, size: 0x8, addend: 0x0, symName: _lprofGetHostName, symObjAddr: 0x70, symBinAddr: 0x100008FEC, symSize: 0x80 }
  - { offset: 0x10EEB, size: 0x8, addend: 0x0, symName: _lprofLockFileHandle, symObjAddr: 0x208, symBinAddr: 0x10000906C, symSize: 0x90 }
  - { offset: 0x10EF3, size: 0x8, addend: 0x0, symName: _lprofUnlockFileHandle, symObjAddr: 0x298, symBinAddr: 0x1000090FC, symSize: 0x90 }
  - { offset: 0x10F79, size: 0x8, addend: 0x0, symName: _lprofUnlockFileHandle, symObjAddr: 0x298, symBinAddr: 0x1000090FC, symSize: 0x90 }
  - { offset: 0x10F81, size: 0x8, addend: 0x0, symName: _lprofOpenFileEx, symObjAddr: 0x328, symBinAddr: 0x10000918C, symSize: 0xD0 }
  - { offset: 0x10FE1, size: 0x8, addend: 0x0, symName: _lprofOpenFileEx, symObjAddr: 0x328, symBinAddr: 0x10000918C, symSize: 0xD0 }
  - { offset: 0x11059, size: 0x8, addend: 0x0, symName: _lprofFindFirstDirSeparator, symObjAddr: 0x538, symBinAddr: 0x10000925C, symSize: 0x8 }
  - { offset: 0x11098, size: 0x8, addend: 0x0, symName: _lprofSuspendSigKill, symObjAddr: 0x548, symBinAddr: 0x100009264, symSize: 0x8 }
  - { offset: 0x110A0, size: 0x8, addend: 0x0, symName: _lprofRestoreSigKill, symObjAddr: 0x550, symBinAddr: 0x10000926C, symSize: 0x4 }
  - { offset: 0x110BA, size: 0x8, addend: 0x0, symName: _lprofRestoreSigKill, symObjAddr: 0x550, symBinAddr: 0x10000926C, symSize: 0x4 }
  - { offset: 0x11364, size: 0x8, addend: 0x0, symName: _getValueProfRecordHeaderSize, symObjAddr: 0x0, symBinAddr: 0x100009270, symSize: 0xC }
  - { offset: 0x11383, size: 0x8, addend: 0x0, symName: _VPMaxNumValsPerSite, symObjAddr: 0x1740, symBinAddr: 0x1000605A8, symSize: 0x0 }
  - { offset: 0x11418, size: 0x8, addend: 0x0, symName: __MergedGlobals, symObjAddr: 0xEF68, symBinAddr: 0x100061200, symSize: 0x0 }
  - { offset: 0x1143F, size: 0x8, addend: 0x0, symName: __MergedGlobals, symObjAddr: 0xEF68, symBinAddr: 0x100061200, symSize: 0x0 }
  - { offset: 0x11456, size: 0x8, addend: 0x0, symName: __MergedGlobals, symObjAddr: 0xEF68, symBinAddr: 0x100061200, symSize: 0x0 }
  - { offset: 0x11475, size: 0x8, addend: 0x0, symName: _TheVPDataReader, symObjAddr: 0x1748, symBinAddr: 0x1000605B0, symSize: 0x0 }
  - { offset: 0x11715, size: 0x8, addend: 0x0, symName: _RTRecord, symObjAddr: 0xEF40, symBinAddr: 0x1000611D8, symSize: 0x0 }
  - { offset: 0x11909, size: 0x8, addend: 0x0, symName: _getValueProfRecordHeaderSize, symObjAddr: 0x0, symBinAddr: 0x100009270, symSize: 0xC }
  - { offset: 0x1195E, size: 0x8, addend: 0x0, symName: _getValueProfRecordValueData, symObjAddr: 0x1C, symBinAddr: 0x10000927C, symSize: 0x14 }
  - { offset: 0x11A0A, size: 0x8, addend: 0x0, symName: _getValueProfRecordNext, symObjAddr: 0x1B4, symBinAddr: 0x100009290, symSize: 0x1A4 }
  - { offset: 0x11A12, size: 0x8, addend: 0x0, symName: _getFirstValueProfRecord, symObjAddr: 0x358, symBinAddr: 0x100009434, symSize: 0x8 }
  - { offset: 0x11A79, size: 0x8, addend: 0x0, symName: _getFirstValueProfRecord, symObjAddr: 0x358, symBinAddr: 0x100009434, symSize: 0x8 }
  - { offset: 0x11B57, size: 0x8, addend: 0x0, symName: _lprofSetupValueProfiler, symObjAddr: 0xB38, symBinAddr: 0x10000943C, symSize: 0x64 }
  - { offset: 0x11C68, size: 0x8, addend: 0x0, symName: ___llvm_profile_instrument_target_value, symObjAddr: 0xE30, symBinAddr: 0x1000094A0, symSize: 0x290 }
  - { offset: 0x11D86, size: 0x8, addend: 0x0, symName: _lprofGetVPDataReader, symObjAddr: 0x1108, symBinAddr: 0x100009730, symSize: 0xC }
  - { offset: 0x11D8E, size: 0x8, addend: 0x0, symName: _initializeValueProfRuntimeRecord, symObjAddr: 0x1114, symBinAddr: 0x10000973C, symSize: 0x210 }
  - { offset: 0x11DA7, size: 0x8, addend: 0x0, symName: _initializeValueProfRuntimeRecord, symObjAddr: 0x1114, symBinAddr: 0x10000973C, symSize: 0x210 }
  - { offset: 0x11DAF, size: 0x8, addend: 0x0, symName: _getNumValueDataForSiteWrapper, symObjAddr: 0x1324, symBinAddr: 0x10000994C, symSize: 0x14 }
  - { offset: 0x11EBE, size: 0x8, addend: 0x0, symName: _getNumValueDataForSiteWrapper, symObjAddr: 0x1324, symBinAddr: 0x10000994C, symSize: 0x14 }
  - { offset: 0x11EC6, size: 0x8, addend: 0x0, symName: _getValueProfDataSizeWrapper, symObjAddr: 0x1338, symBinAddr: 0x100009960, symSize: 0xDC }
  - { offset: 0x11F03, size: 0x8, addend: 0x0, symName: _getNumValueDataForSiteWrapper, symObjAddr: 0x1324, symBinAddr: 0x10000994C, symSize: 0x14 }
  - { offset: 0x11F28, size: 0x8, addend: 0x0, symName: _getValueProfDataSizeWrapper, symObjAddr: 0x1338, symBinAddr: 0x100009960, symSize: 0xDC }
  - { offset: 0x11F30, size: 0x8, addend: 0x0, symName: _getNextNValueData, symObjAddr: 0x1414, symBinAddr: 0x100009A3C, symSize: 0x44 }
  - { offset: 0x11FC6, size: 0x8, addend: 0x0, symName: _getNextNValueData, symObjAddr: 0x1414, symBinAddr: 0x100009A3C, symSize: 0x44 }
  - { offset: 0x11FCE, size: 0x8, addend: 0x0, symName: _getNumValueSitesRT, symObjAddr: 0x1458, symBinAddr: 0x100009A80, symSize: 0x10 }
  - { offset: 0x12056, size: 0x8, addend: 0x0, symName: _getNumValueSitesRT, symObjAddr: 0x1458, symBinAddr: 0x100009A80, symSize: 0x10 }
  - { offset: 0x1205E, size: 0x8, addend: 0x0, symName: _getNumValueDataRT, symObjAddr: 0x1468, symBinAddr: 0x100009A90, symSize: 0x190 }
  - { offset: 0x12097, size: 0x8, addend: 0x0, symName: _getNumValueDataRT, symObjAddr: 0x1468, symBinAddr: 0x100009A90, symSize: 0x190 }
  - { offset: 0x12109, size: 0x8, addend: 0x0, symName: ___llvm_profile_instrument_target_value.cold.1, symObjAddr: 0x161C, symBinAddr: 0x100044FFC, symSize: 0x24 }
  - { offset: 0x12199, size: 0x8, addend: 0x0, symName: ___llvm_profile_raw_version, symObjAddr: 0x0, symBinAddr: 0x1000605E0, symSize: 0x0 }
  - { offset: 0x121DB, size: 0x8, addend: 0x0, symName: _lprofBufferWriter, symObjAddr: 0x0, symBinAddr: 0x100009C20, symSize: 0x6C }
  - { offset: 0x121FA, size: 0x8, addend: 0x0, symName: _FreeHook, symObjAddr: 0x4F30, symBinAddr: 0x1000610A8, symSize: 0x0 }
  - { offset: 0x12220, size: 0x8, addend: 0x0, symName: _DynamicBufferIOBuffer, symObjAddr: 0x4F38, symBinAddr: 0x1000610B0, symSize: 0x0 }
  - { offset: 0x1224E, size: 0x8, addend: 0x0, symName: _VPBufferSize, symObjAddr: 0x4F40, symBinAddr: 0x1000610B8, symSize: 0x0 }
  - { offset: 0x12275, size: 0x8, addend: 0x0, symName: __MergedGlobals, symObjAddr: 0x6F48, symBinAddr: 0x100063210, symSize: 0x0 }
  - { offset: 0x123BF, size: 0x8, addend: 0x0, symName: _BufferIOBuffer, symObjAddr: 0x4F48, symBinAddr: 0x100061210, symSize: 0x0 }
  - { offset: 0x123E9, size: 0x8, addend: 0x0, symName: __MergedGlobals, symObjAddr: 0x6F48, symBinAddr: 0x100063210, symSize: 0x0 }
  - { offset: 0x12465, size: 0x8, addend: 0x0, symName: _lprofBufferWriter, symObjAddr: 0x0, symBinAddr: 0x100009C20, symSize: 0x6C }
  - { offset: 0x1257D, size: 0x8, addend: 0x0, symName: _lprofBufferIOWrite, symObjAddr: 0x100, symBinAddr: 0x100009C8C, symSize: 0x134 }
  - { offset: 0x1267E, size: 0x8, addend: 0x0, symName: _lprofWriteData, symObjAddr: 0x2F4, symBinAddr: 0x100009DC0, symSize: 0xD4 }
  - { offset: 0x12686, size: 0x8, addend: 0x0, symName: _lprofWriteDataImpl, symObjAddr: 0x3C8, symBinAddr: 0x100009E94, symSize: 0x46C }
  - { offset: 0x12AAB, size: 0x8, addend: 0x0, symName: _lprofWriteDataImpl, symObjAddr: 0x3C8, symBinAddr: 0x100009E94, symSize: 0x46C }
  - { offset: 0x12DBE, size: 0x8, addend: 0x0, symName: _writeOneValueProfData, symObjAddr: 0x8C0, symBinAddr: 0x10000A300, symSize: 0x4A8 }
  - { offset: 0x13083, size: 0x8, addend: 0x0, symName: '__ZN108_$LT$alloc..collections..btree..map..Iter$LT$K$C$V$GT$$u20$as$u20$core..iter..traits..iterator..Iterator$GT$4next17h45e1d25cf43a5166E', symObjAddr: 0x0, symBinAddr: 0x10000A7A8, symSize: 0x13C }
  - { offset: 0x13499, size: 0x8, addend: 0x0, symName: '__ZN5alloc11collections5btree4node208Handle$LT$alloc..collections..btree..node..NodeRef$LT$alloc..collections..btree..node..marker..Mut$C$K$C$V$C$alloc..collections..btree..node..marker..Leaf$GT$$C$alloc..collections..btree..node..marker..KV$GT$5split17ha102f583f1ae45bdE', symObjAddr: 0xF314, symBinAddr: 0x100017324, symSize: 0x1C8 }
  - { offset: 0x13957, size: 0x8, addend: 0x0, symName: '__ZN5alloc11collections5btree4node212Handle$LT$alloc..collections..btree..node..NodeRef$LT$alloc..collections..btree..node..marker..Mut$C$K$C$V$C$alloc..collections..btree..node..marker..Internal$GT$$C$alloc..collections..btree..node..marker..KV$GT$5split17he1631b8e3d135de0E', symObjAddr: 0xF950, symBinAddr: 0x1000174EC, symSize: 0x294 }
  - { offset: 0x14070, size: 0x8, addend: 0x0, symName: '__ZN5alloc11collections5btree6remove259_$LT$impl$u20$alloc..collections..btree..node..Handle$LT$alloc..collections..btree..node..NodeRef$LT$alloc..collections..btree..node..marker..Mut$C$K$C$V$C$alloc..collections..btree..node..marker..Leaf$GT$$C$alloc..collections..btree..node..marker..KV$GT$$GT$14remove_leaf_kv17h6b3fb6c543c3f14fE', symObjAddr: 0x10904, symBinAddr: 0x100017F04, symSize: 0x59C }
  - { offset: 0x1571E, size: 0x8, addend: 0x0, symName: '__ZN5alloc11collections5btree4node29BalancingContext$LT$K$C$V$GT$15bulk_steal_left17h116648e9c1058487E', symObjAddr: 0xFBE4, symBinAddr: 0x100017780, symSize: 0x284 }
  - { offset: 0x15D73, size: 0x8, addend: 0x0, symName: '__ZN5alloc11collections5btree4node29BalancingContext$LT$K$C$V$GT$16bulk_steal_right17h7dc2c295fb017210E', symObjAddr: 0xFE68, symBinAddr: 0x100017A04, symSize: 0x2A8 }
  - { offset: 0x164A9, size: 0x8, addend: 0x0, symName: '__ZN5alloc11collections5btree4node29BalancingContext$LT$K$C$V$GT$8do_merge17h5a11588cadfa6da9E', symObjAddr: 0x10110, symBinAddr: 0x100017CAC, symSize: 0x258 }
  - { offset: 0x16C18, size: 0x8, addend: 0x0, symName: '__ZN108_$LT$alloc..collections..btree..map..Iter$LT$K$C$V$GT$$u20$as$u20$core..iter..traits..iterator..Iterator$GT$4next17h45e1d25cf43a5166E', symObjAddr: 0x0, symBinAddr: 0x10000A7A8, symSize: 0x13C }
  - { offset: 0x16FAB, size: 0x8, addend: 0x0, symName: '__ZN5alloc11collections5btree3map25BTreeMap$LT$K$C$V$C$A$GT$6insert17h4e30f42673c48afbE', symObjAddr: 0xD8AC, symBinAddr: 0x1000162D8, symSize: 0x9E0 }
  - { offset: 0x18895, size: 0x8, addend: 0x0, symName: '__ZN5alloc11collections5btree3map25IntoIter$LT$K$C$V$C$A$GT$10dying_next17h1d88f957430bad1dE', symObjAddr: 0xECA8, symBinAddr: 0x100016CB8, symSize: 0x224 }
  - { offset: 0x18C84, size: 0x8, addend: 0x0, symName: '__ZN5alloc11collections5btree3map25IntoIter$LT$K$C$V$C$A$GT$10dying_next17h50da07c4ee930b47E', symObjAddr: 0xEECC, symBinAddr: 0x100016EDC, symSize: 0x224 }
  - { offset: 0x19073, size: 0x8, addend: 0x0, symName: '__ZN5alloc11collections5btree3map25IntoIter$LT$K$C$V$C$A$GT$10dying_next17hfaa5a005d7e39d8eE', symObjAddr: 0xF0F0, symBinAddr: 0x100017100, symSize: 0x224 }
  - { offset: 0x19F99, size: 0x8, addend: 0x0, symName: '__ZN5alloc7raw_vec19RawVec$LT$T$C$A$GT$8grow_one17h095dc4f4c91ff6b9E', symObjAddr: 0x114B8, symBinAddr: 0x10001888C, symSize: 0xD0 }
  - { offset: 0x1A0EF, size: 0x8, addend: 0x0, symName: '__ZN5alloc7raw_vec19RawVec$LT$T$C$A$GT$8grow_one17h3a19a4ab2b92359dE', symObjAddr: 0x11658, symBinAddr: 0x10001895C, symSize: 0xC0 }
  - { offset: 0x1A245, size: 0x8, addend: 0x0, symName: '__ZN5alloc7raw_vec19RawVec$LT$T$C$A$GT$8grow_one17h40071feec6bbd372E', symObjAddr: 0x11718, symBinAddr: 0x100018A1C, symSize: 0xD0 }
  - { offset: 0x1A39B, size: 0x8, addend: 0x0, symName: '__ZN5alloc7raw_vec19RawVec$LT$T$C$A$GT$8grow_one17h4a39c02819ac1667E', symObjAddr: 0x117E8, symBinAddr: 0x100018AEC, symSize: 0xD0 }
  - { offset: 0x1A4F1, size: 0x8, addend: 0x0, symName: '__ZN5alloc7raw_vec19RawVec$LT$T$C$A$GT$8grow_one17h4a92fc1fe476e477E', symObjAddr: 0x118B8, symBinAddr: 0x100018BBC, symSize: 0xC0 }
  - { offset: 0x1A647, size: 0x8, addend: 0x0, symName: '__ZN5alloc7raw_vec19RawVec$LT$T$C$A$GT$8grow_one17h4fe34a41a9b5eb13E', symObjAddr: 0x11978, symBinAddr: 0x100018C7C, symSize: 0xC0 }
  - { offset: 0x1A79D, size: 0x8, addend: 0x0, symName: '__ZN5alloc7raw_vec19RawVec$LT$T$C$A$GT$8grow_one17h51ebdaf7922ccb0fE', symObjAddr: 0x11A38, symBinAddr: 0x100018D3C, symSize: 0xD0 }
  - { offset: 0x1A8F3, size: 0x8, addend: 0x0, symName: '__ZN5alloc7raw_vec19RawVec$LT$T$C$A$GT$8grow_one17h5fa1addd75b9c473E', symObjAddr: 0x11B08, symBinAddr: 0x100018E0C, symSize: 0xC0 }
  - { offset: 0x1AA49, size: 0x8, addend: 0x0, symName: '__ZN5alloc7raw_vec19RawVec$LT$T$C$A$GT$8grow_one17h86dfd012ac0923eeE', symObjAddr: 0x11BC8, symBinAddr: 0x100018ECC, symSize: 0xCC }
  - { offset: 0x1AB9F, size: 0x8, addend: 0x0, symName: '__ZN5alloc7raw_vec19RawVec$LT$T$C$A$GT$8grow_one17h94e52b7d38af74feE', symObjAddr: 0x11C94, symBinAddr: 0x100018F98, symSize: 0xCC }
  - { offset: 0x1ACF5, size: 0x8, addend: 0x0, symName: '__ZN5alloc7raw_vec19RawVec$LT$T$C$A$GT$8grow_one17hbaffb1ea2421dae5E', symObjAddr: 0x11D60, symBinAddr: 0x100019064, symSize: 0xCC }
  - { offset: 0x1B58F, size: 0x8, addend: 0x0, symName: __ZN5alloc7raw_vec11finish_grow17hd37f20dcfa74548bE, symObjAddr: 0x11430, symBinAddr: 0x1000451CC, symSize: 0x88 }
  - { offset: 0x1B62A, size: 0x8, addend: 0x0, symName: '__ZN5alloc7raw_vec20RawVecInner$LT$A$GT$7reserve21do_reserve_and_handle17h59c9ec03f2a10329E', symObjAddr: 0x11E2C, symBinAddr: 0x100045254, symSize: 0xF0 }
  - { offset: 0x1CC4A, size: 0x8, addend: 0x0, symName: '__ZN5alloc4sync16Arc$LT$T$C$A$GT$9drop_slow17h382cff577ce4ab40E', symObjAddr: 0x10FD0, symBinAddr: 0x1000184A0, symSize: 0x100 }
  - { offset: 0x1CF7A, size: 0x8, addend: 0x0, symName: '__ZN5alloc4sync16Arc$LT$T$C$A$GT$9drop_slow17h5608352b196d8cb3E', symObjAddr: 0x110D0, symBinAddr: 0x1000185A0, symSize: 0xA0 }
  - { offset: 0x1D29E, size: 0x8, addend: 0x0, symName: '__ZN5alloc4sync16Arc$LT$T$C$A$GT$9drop_slow17h5ede859a095ca78aE', symObjAddr: 0x111E4, symBinAddr: 0x100018640, symSize: 0x78 }
  - { offset: 0x1D46A, size: 0x8, addend: 0x0, symName: '__ZN5alloc4sync16Arc$LT$T$C$A$GT$9drop_slow17h7cf1d5f987884bcfE', symObjAddr: 0x1125C, symBinAddr: 0x1000186B8, symSize: 0xC0 }
  - { offset: 0x1D78F, size: 0x8, addend: 0x0, symName: '__ZN5alloc4sync16Arc$LT$T$C$A$GT$9drop_slow17h90e2e762cfbfaa1eE', symObjAddr: 0x1131C, symBinAddr: 0x100018778, symSize: 0x44 }
  - { offset: 0x1D86C, size: 0x8, addend: 0x0, symName: '__ZN5alloc4sync16Arc$LT$T$C$A$GT$9drop_slow17h9659d3e2cd59fce8E', symObjAddr: 0x11360, symBinAddr: 0x1000187BC, symSize: 0xD0 }
  - { offset: 0x1DDE2, size: 0x8, addend: 0x0, symName: '__ZN64_$LT$alloc..ffi..c_str..NulError$u20$as$u20$core..fmt..Debug$GT$3fmt17h18ce3d950e35fa91E', symObjAddr: 0x18D64, symBinAddr: 0x10001FF78, symSize: 0x4C }
  - { offset: 0x1E29F, size: 0x8, addend: 0x0, symName: '__ZN58_$LT$alloc..string..String$u20$as$u20$core..fmt..Debug$GT$3fmt17hdbacb71d50eff926E', symObjAddr: 0xD6B8, symBinAddr: 0x1000160E4, symSize: 0x1C }
  - { offset: 0x1E35A, size: 0x8, addend: 0x0, symName: '__ZN58_$LT$alloc..string..String$u20$as$u20$core..fmt..Write$GT$10write_char17h67c485e816708459E', symObjAddr: 0xD6D4, symBinAddr: 0x100016100, symSize: 0x158 }
  - { offset: 0x1E5BF, size: 0x8, addend: 0x0, symName: '__ZN58_$LT$alloc..string..String$u20$as$u20$core..fmt..Write$GT$9write_str17h4bc2793cacc1d696E', symObjAddr: 0xD82C, symBinAddr: 0x100016258, symSize: 0x80 }
  - { offset: 0x1E718, size: 0x8, addend: 0x0, symName: '__ZN60_$LT$alloc..string..String$u20$as$u20$core..fmt..Display$GT$3fmt17ha0099383a97e68c2E', symObjAddr: 0x18D48, symBinAddr: 0x10001FF5C, symSize: 0x1C }
  - { offset: 0x1FF27, size: 0x8, addend: 0x0, symName: '__ZN4core3ptr107drop_in_place$LT$alloc..vec..Vec$LT$$LP$std..ffi..os_str..OsString$C$std..ffi..os_str..OsString$RP$$GT$$GT$17h6612d33457a8ea03E', symObjAddr: 0x1AE4, symBinAddr: 0x10000B484, symSize: 0x94 }
  - { offset: 0x201AE, size: 0x8, addend: 0x0, symName: '__ZN4core3ptr107drop_in_place$LT$core..option..Option$LT$std..sys..pal..unix..process..process_common..CStringArray$GT$$GT$17hf3f42dd5b05d3cc1E', symObjAddr: 0x1C04, symBinAddr: 0x10000B518, symSize: 0xAC }
  - { offset: 0x203BF, size: 0x8, addend: 0x0, symName: '__ZN4core3ptr107drop_in_place$LT$core..pin..Pin$LT$alloc..boxed..Box$LT$std..sys..pal..unix..sync..mutex..Mutex$GT$$GT$$GT$17hc07c140671e79445E', symObjAddr: 0x1CB0, symBinAddr: 0x10000B5C4, symSize: 0x2C }
  - { offset: 0x204B8, size: 0x8, addend: 0x0, symName: '__ZN4core3ptr108drop_in_place$LT$alloc..collections..btree..map..BTreeMap$LT$u64$C$gimli..read..abbrev..Abbreviation$GT$$GT$17haa74a0211d9ed923E', symObjAddr: 0x1CDC, symBinAddr: 0x10000B5F0, symSize: 0xB0 }
  - { offset: 0x2068B, size: 0x8, addend: 0x0, symName: '__ZN4core3ptr109drop_in_place$LT$alloc..sync..Arc$LT$std..sync..poison..mutex..Mutex$LT$alloc..vec..Vec$LT$u8$GT$$GT$$GT$$GT$17h61b1cac8a1fede90E', symObjAddr: 0x1D8C, symBinAddr: 0x10000B6A0, symSize: 0x30 }
  - { offset: 0x2072E, size: 0x8, addend: 0x0, symName: '__ZN4core3ptr118drop_in_place$LT$std..io..Write..write_fmt..Adapter$LT$std..io..cursor..Cursor$LT$$RF$mut$u20$$u5b$u8$u5d$$GT$$GT$$GT$17h5c63d0c0bee45058E', symObjAddr: 0x1E54, symBinAddr: 0x10000B6D0, symSize: 0x20 }
  - { offset: 0x20766, size: 0x8, addend: 0x0, symName: '__ZN4core3ptr123drop_in_place$LT$addr2line..Context$LT$gimli..read..endian_slice..EndianSlice$LT$gimli..endianity..LittleEndian$GT$$GT$$GT$17hc6d5be859abd218dE', symObjAddr: 0x1E74, symBinAddr: 0x10000B6F0, symSize: 0x70 }
  - { offset: 0x2083B, size: 0x8, addend: 0x0, symName: '__ZN4core3ptr124drop_in_place$LT$alloc..collections..btree..map..BTreeMap$LT$std..ffi..os_str..OsString$C$std..ffi..os_str..OsString$GT$$GT$17hc9840ba1a16bc149E', symObjAddr: 0x1EE4, symBinAddr: 0x10000B760, symSize: 0xB8 }
  - { offset: 0x20A6E, size: 0x8, addend: 0x0, symName: '__ZN4core3ptr124drop_in_place$LT$alloc..collections..btree..map..IntoIter$LT$std..ffi..os_str..OsString$C$std..ffi..os_str..OsString$GT$$GT$17h1e45a95309140dfeE', symObjAddr: 0x1F9C, symBinAddr: 0x10000B818, symSize: 0x90 }
  - { offset: 0x20CF5, size: 0x8, addend: 0x0, symName: '__ZN4core3ptr129drop_in_place$LT$addr2line..unit..ResUnit$LT$gimli..read..endian_slice..EndianSlice$LT$gimli..endianity..LittleEndian$GT$$GT$$GT$17h3200663a94d9b140E', symObjAddr: 0x202C, symBinAddr: 0x10000B8A8, symSize: 0xE4 }
  - { offset: 0x20F17, size: 0x8, addend: 0x0, symName: '__ZN4core3ptr129drop_in_place$LT$addr2line..unit..SupUnit$LT$gimli..read..endian_slice..EndianSlice$LT$gimli..endianity..LittleEndian$GT$$GT$$GT$17hea048140b03f01afE', symObjAddr: 0x2110, symBinAddr: 0x10000B98C, symSize: 0x54 }
  - { offset: 0x20FF2, size: 0x8, addend: 0x0, symName: '__ZN4core3ptr130drop_in_place$LT$addr2line..unit..ResUnits$LT$gimli..read..endian_slice..EndianSlice$LT$gimli..endianity..LittleEndian$GT$$GT$$GT$17he56c193886414dbaE', symObjAddr: 0x2164, symBinAddr: 0x10000B9E0, symSize: 0xD0 }
  - { offset: 0x2119B, size: 0x8, addend: 0x0, symName: '__ZN4core3ptr130drop_in_place$LT$addr2line..unit..SupUnits$LT$gimli..read..endian_slice..EndianSlice$LT$gimli..endianity..LittleEndian$GT$$GT$$GT$17h74d4d2bc946c0774E', symObjAddr: 0x2234, symBinAddr: 0x10000BAB0, symSize: 0xE4 }
  - { offset: 0x21359, size: 0x8, addend: 0x0, symName: '__ZN4core3ptr130drop_in_place$LT$gimli..read..dwarf..Dwarf$LT$gimli..read..endian_slice..EndianSlice$LT$gimli..endianity..LittleEndian$GT$$GT$$GT$17h733659cc5e33a4cbE', symObjAddr: 0x2318, symBinAddr: 0x10000BB94, symSize: 0x58 }
  - { offset: 0x21427, size: 0x8, addend: 0x0, symName: '__ZN4core3ptr131drop_in_place$LT$$u5b$core..option..Option$LT$core..option..Option$LT$std..backtrace_rs..symbolize..gimli..Mapping$GT$$GT$$u5d$$GT$17h1b55ae3732cae68aE', symObjAddr: 0x2370, symBinAddr: 0x10000BBEC, symSize: 0xCC }
  - { offset: 0x214D1, size: 0x8, addend: 0x0, symName: '__ZN4core3ptr137drop_in_place$LT$gimli..read..dwarf..Unit$LT$gimli..read..endian_slice..EndianSlice$LT$gimli..endianity..LittleEndian$GT$$C$usize$GT$$GT$17h90351d6bab11b82cE', symObjAddr: 0x2500, symBinAddr: 0x10000BCB8, symSize: 0x54 }
  - { offset: 0x215CE, size: 0x8, addend: 0x0, symName: '__ZN4core3ptr138drop_in_place$LT$addr2line..function..LazyFunction$LT$gimli..read..endian_slice..EndianSlice$LT$gimli..endianity..LittleEndian$GT$$GT$$GT$17h0f9458c797bd90e9E', symObjAddr: 0x2554, symBinAddr: 0x10000BD0C, symSize: 0x64 }
  - { offset: 0x215E5, size: 0x8, addend: 0x0, symName: '__ZN4core3ptr138drop_in_place$LT$addr2line..function..LazyFunction$LT$gimli..read..endian_slice..EndianSlice$LT$gimli..endianity..LittleEndian$GT$$GT$$GT$17h0f9458c797bd90e9E', symObjAddr: 0x2554, symBinAddr: 0x10000BD0C, symSize: 0x64 }
  - { offset: 0x215FA, size: 0x8, addend: 0x0, symName: '__ZN4core3ptr138drop_in_place$LT$addr2line..function..LazyFunction$LT$gimli..read..endian_slice..EndianSlice$LT$gimli..endianity..LittleEndian$GT$$GT$$GT$17h0f9458c797bd90e9E', symObjAddr: 0x2554, symBinAddr: 0x10000BD0C, symSize: 0x64 }
  - { offset: 0x2160F, size: 0x8, addend: 0x0, symName: '__ZN4core3ptr138drop_in_place$LT$addr2line..function..LazyFunction$LT$gimli..read..endian_slice..EndianSlice$LT$gimli..endianity..LittleEndian$GT$$GT$$GT$17h0f9458c797bd90e9E', symObjAddr: 0x2554, symBinAddr: 0x10000BD0C, symSize: 0x64 }
  - { offset: 0x21751, size: 0x8, addend: 0x0, symName: '__ZN4core3ptr144drop_in_place$LT$alloc..vec..Vec$LT$core..option..Option$LT$core..option..Option$LT$std..backtrace_rs..symbolize..gimli..Mapping$GT$$GT$$GT$$GT$17hd5b41028903956eeE', symObjAddr: 0x25B8, symBinAddr: 0x10000BD70, symSize: 0x78 }
  - { offset: 0x218B9, size: 0x8, addend: 0x0, symName: '__ZN4core3ptr152drop_in_place$LT$alloc..vec..Vec$LT$addr2line..unit..ResUnit$LT$gimli..read..endian_slice..EndianSlice$LT$gimli..endianity..LittleEndian$GT$$GT$$GT$$GT$17hdd35552c1680b2ebE', symObjAddr: 0x26FC, symBinAddr: 0x10000BDE8, symSize: 0xC4 }
  - { offset: 0x21A28, size: 0x8, addend: 0x0, symName: '__ZN4core3ptr152drop_in_place$LT$alloc..vec..Vec$LT$addr2line..unit..SupUnit$LT$gimli..read..endian_slice..EndianSlice$LT$gimli..endianity..LittleEndian$GT$$GT$$GT$$GT$17h6431a2f92897bef0E', symObjAddr: 0x27C0, symBinAddr: 0x10000BEAC, symSize: 0xF4 }
  - { offset: 0x21C40, size: 0x8, addend: 0x0, symName: '__ZN4core3ptr156drop_in_place$LT$alloc..boxed..Box$LT$$u5b$core..option..Option$LT$core..option..Option$LT$std..backtrace_rs..symbolize..gimli..Mapping$GT$$GT$$u5d$$GT$$GT$17h61627ecd782bd92dE', symObjAddr: 0x28B4, symBinAddr: 0x10000BFA0, symSize: 0xF8 }
  - { offset: 0x21D6A, size: 0x8, addend: 0x0, symName: '__ZN4core3ptr159drop_in_place$LT$alloc..sync..ArcInner$LT$gimli..read..dwarf..Dwarf$LT$gimli..read..endian_slice..EndianSlice$LT$gimli..endianity..LittleEndian$GT$$GT$$GT$$GT$17h71c073e2ea863d36E', symObjAddr: 0x29AC, symBinAddr: 0x10000C098, symSize: 0x58 }
  - { offset: 0x21E47, size: 0x8, addend: 0x0, symName: '__ZN4core3ptr161drop_in_place$LT$alloc..vec..Vec$LT$addr2line..function..LazyFunction$LT$gimli..read..endian_slice..EndianSlice$LT$gimli..endianity..LittleEndian$GT$$GT$$GT$$GT$17h938f97b5a308fc3cE', symObjAddr: 0x2A04, symBinAddr: 0x10000C0F0, symSize: 0xAC }
  - { offset: 0x22084, size: 0x8, addend: 0x0, symName: '__ZN4core3ptr172drop_in_place$LT$core..result..Result$LT$addr2line..Context$LT$gimli..read..endian_slice..EndianSlice$LT$gimli..endianity..LittleEndian$GT$$GT$$C$gimli..read..Error$GT$$GT$17h8205db00afecd676E', symObjAddr: 0x2B5C, symBinAddr: 0x10000C19C, symSize: 0x80 }
  - { offset: 0x22119, size: 0x8, addend: 0x0, symName: '__ZN4core3ptr173drop_in_place$LT$alloc..boxed..Box$LT$$u5b$addr2line..function..LazyFunction$LT$gimli..read..endian_slice..EndianSlice$LT$gimli..endianity..LittleEndian$GT$$GT$$u5d$$GT$$GT$17h141b901e37828fa3E', symObjAddr: 0x2BDC, symBinAddr: 0x10000C21C, symSize: 0x9C }
  - { offset: 0x22130, size: 0x8, addend: 0x0, symName: '__ZN4core3ptr173drop_in_place$LT$alloc..boxed..Box$LT$$u5b$addr2line..function..LazyFunction$LT$gimli..read..endian_slice..EndianSlice$LT$gimli..endianity..LittleEndian$GT$$GT$$u5d$$GT$$GT$17h141b901e37828fa3E', symObjAddr: 0x2BDC, symBinAddr: 0x10000C21C, symSize: 0x9C }
  - { offset: 0x22375, size: 0x8, addend: 0x0, symName: '__ZN4core3ptr181drop_in_place$LT$core..option..Option$LT$gimli..read..line..IncompleteLineProgram$LT$gimli..read..endian_slice..EndianSlice$LT$gimli..endianity..LittleEndian$GT$$C$usize$GT$$GT$$GT$17h0ce7bfce5e4abb6bE', symObjAddr: 0x2CE8, symBinAddr: 0x10000C2B8, symSize: 0x98 }
  - { offset: 0x22630, size: 0x8, addend: 0x0, symName: '__ZN4core3ptr181drop_in_place$LT$core..result..Result$LT$addr2line..frame..FrameIter$LT$gimli..read..endian_slice..EndianSlice$LT$gimli..endianity..LittleEndian$GT$$GT$$C$gimli..read..Error$GT$$GT$17hc32763af75cf70e4E', symObjAddr: 0x2D80, symBinAddr: 0x10000C350, symSize: 0x44 }
  - { offset: 0x2276E, size: 0x8, addend: 0x0, symName: '__ZN4core3ptr184drop_in_place$LT$core..result..Result$LT$addr2line..function..Functions$LT$gimli..read..endian_slice..EndianSlice$LT$gimli..endianity..LittleEndian$GT$$GT$$C$gimli..read..Error$GT$$GT$17hae974801a783d12aE', symObjAddr: 0x2DC4, symBinAddr: 0x10000C394, symSize: 0xD8 }
  - { offset: 0x23267, size: 0x8, addend: 0x0, symName: '__ZN4core3ptr223drop_in_place$LT$std..sys..thread_local..native..lazy..State$LT$core..cell..Cell$LT$core..option..Option$LT$alloc..sync..Arc$LT$std..sync..poison..mutex..Mutex$LT$alloc..vec..Vec$LT$u8$GT$$GT$$GT$$GT$$GT$$C$$LP$$RP$$GT$$GT$17h8e1dbbdc8aa6e2b2E', symObjAddr: 0x2F10, symBinAddr: 0x10000C46C, symSize: 0x40 }
  - { offset: 0x23353, size: 0x8, addend: 0x0, symName: '__ZN4core3ptr231drop_in_place$LT$core..result..Result$LT$core..option..Option$LT$alloc..boxed..Box$LT$addr2line..unit..DwoUnit$LT$gimli..read..endian_slice..EndianSlice$LT$gimli..endianity..LittleEndian$GT$$GT$$GT$$GT$$C$gimli..read..Error$GT$$GT$17h48abe14940fae1d7E', symObjAddr: 0x2F50, symBinAddr: 0x10000C4AC, symSize: 0xD4 }
  - { offset: 0x2353C, size: 0x8, addend: 0x0, symName: '__ZN4core3ptr275drop_in_place$LT$gimli..read..line..LineRows$LT$gimli..read..endian_slice..EndianSlice$LT$gimli..endianity..LittleEndian$GT$$C$gimli..read..line..IncompleteLineProgram$LT$gimli..read..endian_slice..EndianSlice$LT$gimli..endianity..LittleEndian$GT$$C$usize$GT$$C$usize$GT$$GT$17h1fb49ddc3575d792E', symObjAddr: 0x304C, symBinAddr: 0x10000C580, symSize: 0x8C }
  - { offset: 0x237B1, size: 0x8, addend: 0x0, symName: '__ZN4core3ptr280drop_in_place$LT$$LT$alloc..collections..btree..map..IntoIter$LT$K$C$V$C$A$GT$$u20$as$u20$core..ops..drop..Drop$GT$..drop..DropGuard$LT$u64$C$core..result..Result$LT$alloc..sync..Arc$LT$gimli..read..abbrev..Abbreviations$GT$$C$gimli..read..Error$GT$$C$alloc..alloc..Global$GT$$GT$17h412edb4cf40f508aE', symObjAddr: 0x30D8, symBinAddr: 0x10000C60C, symSize: 0x84 }
  - { offset: 0x23954, size: 0x8, addend: 0x0, symName: '__ZN4core3ptr37drop_in_place$LT$std..env..VarsOs$GT$17h8833fb9321bef3f6E', symObjAddr: 0x315C, symBinAddr: 0x10000C690, symSize: 0xAC }
  - { offset: 0x23C53, size: 0x8, addend: 0x0, symName: '__ZN4core3ptr42drop_in_place$LT$alloc..string..String$GT$17h49e49416d7fc736bE', symObjAddr: 0x3330, symBinAddr: 0x10000C73C, symSize: 0x28 }
  - { offset: 0x23D2E, size: 0x8, addend: 0x0, symName: '__ZN4core3ptr42drop_in_place$LT$std..io..error..Error$GT$17h2076e24185186a1eE', symObjAddr: 0x3358, symBinAddr: 0x10000C764, symSize: 0xAC }
  - { offset: 0x23F48, size: 0x8, addend: 0x0, symName: '__ZN4core3ptr44drop_in_place$LT$object..read..ObjectMap$GT$17hefa7b8970618855fE', symObjAddr: 0x3404, symBinAddr: 0x10000C810, symSize: 0x58 }
  - { offset: 0x24077, size: 0x8, addend: 0x0, symName: '__ZN4core3ptr46drop_in_place$LT$alloc..vec..Vec$LT$u8$GT$$GT$17he05f3434a0e55321E', symObjAddr: 0x350C, symBinAddr: 0x10000C868, symSize: 0x28 }
  - { offset: 0x24104, size: 0x8, addend: 0x0, symName: '__ZN4core3ptr46drop_in_place$LT$std..io..stdio..StdinLock$GT$17h7f23f0068af34be6E', symObjAddr: 0x3534, symBinAddr: 0x10000C890, symSize: 0x54 }
  - { offset: 0x2411B, size: 0x8, addend: 0x0, symName: '__ZN4core3ptr46drop_in_place$LT$std..io..stdio..StdinLock$GT$17h7f23f0068af34be6E', symObjAddr: 0x3534, symBinAddr: 0x10000C890, symSize: 0x54 }
  - { offset: 0x24130, size: 0x8, addend: 0x0, symName: '__ZN4core3ptr46drop_in_place$LT$std..io..stdio..StdinLock$GT$17h7f23f0068af34be6E', symObjAddr: 0x3534, symBinAddr: 0x10000C890, symSize: 0x54 }
  - { offset: 0x24214, size: 0x8, addend: 0x0, symName: '__ZN4core3ptr48drop_in_place$LT$alloc..ffi..c_str..NulError$GT$17hf807e8c3d992613aE', symObjAddr: 0x35E0, symBinAddr: 0x10000C8E4, symSize: 0x28 }
  - { offset: 0x242D3, size: 0x8, addend: 0x0, symName: '__ZN4core3ptr55drop_in_place$LT$gimli..read..abbrev..Abbreviations$GT$17h5028fd7f23a66a5dE', symObjAddr: 0x38D4, symBinAddr: 0x10000C90C, symSize: 0x84 }
  - { offset: 0x2448E, size: 0x8, addend: 0x0, symName: '__ZN4core3ptr60drop_in_place$LT$gimli..read..abbrev..AbbreviationsCache$GT$17h109635aebb38ad94E', symObjAddr: 0x39E8, symBinAddr: 0x10000C990, symSize: 0xCC }
  - { offset: 0x24650, size: 0x8, addend: 0x0, symName: '__ZN4core3ptr62drop_in_place$LT$std..sys..sync..rwlock..queue..PanicGuard$GT$17ha6ff6fed8f58b75aE', symObjAddr: 0x3AB4, symBinAddr: 0x10000CA5C, symSize: 0x44 }
  - { offset: 0x24697, size: 0x8, addend: 0x0, symName: '__ZN4core3ptr64drop_in_place$LT$std..sys..pal..unix..sync..mutex..AttrGuard$GT$17hfae1c338ebc17455E', symObjAddr: 0x3AF8, symBinAddr: 0x10000CAA0, symSize: 0x48 }
  - { offset: 0x246D6, size: 0x8, addend: 0x0, symName: '__ZN4core3ptr65drop_in_place$LT$alloc..vec..Vec$LT$alloc..string..String$GT$$GT$17h0e8d3320a68b6c20E', symObjAddr: 0x3B40, symBinAddr: 0x10000CAE8, symSize: 0x80 }
  - { offset: 0x24874, size: 0x8, addend: 0x0, symName: '__ZN4core3ptr65drop_in_place$LT$std..backtrace_rs..symbolize..gimli..Context$GT$17he1a9681aa2b789c5E', symObjAddr: 0x3BC0, symBinAddr: 0x10000CB68, symSize: 0xE8 }
  - { offset: 0x24B06, size: 0x8, addend: 0x0, symName: '__ZN4core3ptr65drop_in_place$LT$std..backtrace_rs..symbolize..gimli..Mapping$GT$17h1ad26fdf3d4d883aE', symObjAddr: 0x3CA8, symBinAddr: 0x10000CC50, symSize: 0x50 }
  - { offset: 0x24B71, size: 0x8, addend: 0x0, symName: '__ZN4core3ptr66drop_in_place$LT$std..backtrace_rs..backtrace..libunwind..Bomb$GT$17hcf55bbc6e2408f91E', symObjAddr: 0x3D50, symBinAddr: 0x10000CCA0, symSize: 0x40 }
  - { offset: 0x24BAF, size: 0x8, addend: 0x0, symName: '__ZN4core3ptr70drop_in_place$LT$alloc..vec..Vec$LT$alloc..ffi..c_str..CString$GT$$GT$17hfd0a4040cac87084E', symObjAddr: 0x3D90, symBinAddr: 0x10000CCE0, symSize: 0x7C }
  - { offset: 0x24D62, size: 0x8, addend: 0x0, symName: '__ZN4core3ptr70drop_in_place$LT$std..backtrace_rs..symbolize..gimli..stash..Stash$GT$17h823b9ed5294710a1E', symObjAddr: 0x3E8C, symBinAddr: 0x10000CD5C, symSize: 0xB8 }
  - { offset: 0x25008, size: 0x8, addend: 0x0, symName: '__ZN4core3ptr71drop_in_place$LT$std..backtrace_rs..symbolize..gimli..macho..Object$GT$17h7d766a5d50e6fcdbE', symObjAddr: 0x3F44, symBinAddr: 0x10000CE14, symSize: 0xD8 }
  - { offset: 0x252DB, size: 0x8, addend: 0x0, symName: '__ZN4core3ptr72drop_in_place$LT$core..option..Option$LT$object..read..ObjectMap$GT$$GT$17hc34cda9cf8984625E', symObjAddr: 0x4088, symBinAddr: 0x10000CEEC, symSize: 0x64 }
  - { offset: 0x25458, size: 0x8, addend: 0x0, symName: '__ZN4core3ptr73drop_in_place$LT$alloc..vec..Vec$LT$addr2line..line..LineSequence$GT$$GT$17h0feaef6467c5bb06E', symObjAddr: 0x40EC, symBinAddr: 0x10000CF50, symSize: 0x84 }
  - { offset: 0x255B0, size: 0x8, addend: 0x0, symName: '__ZN4core3ptr77drop_in_place$LT$alloc..boxed..Box$LT$$u5b$alloc..string..String$u5d$$GT$$GT$17h8657c1556d878703E', symObjAddr: 0x41C8, symBinAddr: 0x10000CFD4, symSize: 0x70 }
  - { offset: 0x255C7, size: 0x8, addend: 0x0, symName: '__ZN4core3ptr77drop_in_place$LT$alloc..boxed..Box$LT$$u5b$alloc..string..String$u5d$$GT$$GT$17h8657c1556d878703E', symObjAddr: 0x41C8, symBinAddr: 0x10000CFD4, symSize: 0x70 }
  - { offset: 0x256D3, size: 0x8, addend: 0x0, symName: '__ZN4core3ptr77drop_in_place$LT$std..panicking..begin_panic_handler..FormatStringPayload$GT$17h1141e34cc3e1cd8cE', symObjAddr: 0x4238, symBinAddr: 0x10000D044, symSize: 0x34 }
  - { offset: 0x2579D, size: 0x8, addend: 0x0, symName: '__ZN4core3ptr77drop_in_place$LT$std..sys..pal..unix..process..process_common..ChildPipes$GT$17h620614c70ca5ad33E', symObjAddr: 0x426C, symBinAddr: 0x10000D078, symSize: 0x78 }
  - { offset: 0x258AD, size: 0x8, addend: 0x0, symName: '__ZN4core3ptr77drop_in_place$LT$std..sys..pal..unix..process..process_common..StdioPipes$GT$17ha094cdbd3e642bc1E', symObjAddr: 0x42E4, symBinAddr: 0x10000D0F0, symSize: 0x54 }
  - { offset: 0x25A09, size: 0x8, addend: 0x0, symName: '__ZN4core3ptr78drop_in_place$LT$core..result..Result$LT$usize$C$std..io..error..Error$GT$$GT$17h31f04dfac34de6cfE', symObjAddr: 0x4338, symBinAddr: 0x10000D144, symSize: 0x24 }
  - { offset: 0x25A1D, size: 0x8, addend: 0x0, symName: '__ZN4core3ptr79drop_in_place$LT$std..sync..poison..rwlock..RwLockReadGuard$LT$$LP$$RP$$GT$$GT$17h3c7acdfaefb6864dE', symObjAddr: 0x435C, symBinAddr: 0x10000D168, symSize: 0x68 }
  - { offset: 0x25AB9, size: 0x8, addend: 0x0, symName: '__ZN4core3ptr79drop_in_place$LT$std..sys..pal..unix..process..process_common..CStringArray$GT$17h6aeb88f15641d3f5E', symObjAddr: 0x43C4, symBinAddr: 0x10000D1D0, symSize: 0x94 }
  - { offset: 0x25C98, size: 0x8, addend: 0x0, symName: '__ZN4core3ptr81drop_in_place$LT$$LP$usize$C$std..backtrace_rs..symbolize..gimli..Mapping$RP$$GT$17h0fc60d1e178e2af3E', symObjAddr: 0x4458, symBinAddr: 0x10000D264, symSize: 0x54 }
  - { offset: 0x25D19, size: 0x8, addend: 0x0, symName: '__ZN4core3ptr81drop_in_place$LT$core..result..Result$LT$$LP$$RP$$C$std..io..error..Error$GT$$GT$17h32d66e7d6b4290f9E', symObjAddr: 0x44AC, symBinAddr: 0x10000D2B8, symSize: 0x20 }
  - { offset: 0x25D2D, size: 0x8, addend: 0x0, symName: '__ZN4core3ptr84drop_in_place$LT$$LP$std..ffi..os_str..OsString$C$std..ffi..os_str..OsString$RP$$GT$17hce73656bd67f13b5E', symObjAddr: 0x4510, symBinAddr: 0x10000D2D8, symSize: 0x4C }
  - { offset: 0x25E88, size: 0x8, addend: 0x0, symName: '__ZN4core3ptr84drop_in_place$LT$alloc..sync..ArcInner$LT$gimli..read..abbrev..Abbreviations$GT$$GT$17hc1742a6ee5f4f5c4E', symObjAddr: 0x455C, symBinAddr: 0x10000D324, symSize: 0x84 }
  - { offset: 0x26052, size: 0x8, addend: 0x0, symName: '__ZN4core3ptr87drop_in_place$LT$alloc..sync..ArcInner$LT$std..sys..pal..unix..fs..InnerReadDir$GT$$GT$17h22f7f5fc9c3aa8bdE', symObjAddr: 0x45E0, symBinAddr: 0x10000D3A8, symSize: 0x60 }
  - { offset: 0x2623B, size: 0x8, addend: 0x0, symName: '__ZN4core3ptr88drop_in_place$LT$alloc..vec..Vec$LT$std..backtrace_rs..symbolize..gimli..Library$GT$$GT$17heda6be67225cff8cE', symObjAddr: 0x4674, symBinAddr: 0x10000D408, symSize: 0x98 }
  - { offset: 0x26451, size: 0x8, addend: 0x0, symName: '__ZN4core3ptr90drop_in_place$LT$std..io..buffered..bufwriter..BufWriter$LT$W$GT$..flush_buf..BufGuard$GT$17h18eab3e558793eacE', symObjAddr: 0x470C, symBinAddr: 0x10000D4A0, symSize: 0x60 }
  - { offset: 0x26612, size: 0x8, addend: 0x0, symName: '__ZN4core3ptr92drop_in_place$LT$core..result..Result$LT$addr2line..line..Lines$C$gimli..read..Error$GT$$GT$17h75873180c89d56d0E', symObjAddr: 0x47E8, symBinAddr: 0x10000D500, symSize: 0xE4 }
  - { offset: 0x26858, size: 0x8, addend: 0x0, symName: '__ZN4core3ptr93drop_in_place$LT$core..option..Option$LT$std..backtrace_rs..symbolize..gimli..Mapping$GT$$GT$17h8ea9f8655928f4fcE', symObjAddr: 0x48CC, symBinAddr: 0x10000D5E4, symSize: 0x6C }
  - { offset: 0x268F5, size: 0x8, addend: 0x0, symName: '__ZN4core3ptr95drop_in_place$LT$core..option..IntoIter$LT$std..backtrace_rs..symbolize..gimli..Library$GT$$GT$17he46fad7f279ea952E', symObjAddr: 0x4938, symBinAddr: 0x10000D650, symSize: 0x5C }
  - { offset: 0x26913, size: 0x8, addend: 0x0, symName: '__ZN4core3ptr95drop_in_place$LT$core..option..IntoIter$LT$std..backtrace_rs..symbolize..gimli..Library$GT$$GT$17he46fad7f279ea952E', symObjAddr: 0x4938, symBinAddr: 0x10000D650, symSize: 0x5C }
  - { offset: 0x26928, size: 0x8, addend: 0x0, symName: '__ZN4core3ptr95drop_in_place$LT$core..option..IntoIter$LT$std..backtrace_rs..symbolize..gimli..Library$GT$$GT$17he46fad7f279ea952E', symObjAddr: 0x4938, symBinAddr: 0x10000D650, symSize: 0x5C }
  - { offset: 0x26A91, size: 0x8, addend: 0x0, symName: '__ZN4core3ptr95drop_in_place$LT$std..io..buffered..linewriter..LineWriter$LT$std..io..stdio..StdoutRaw$GT$$GT$17h3bd57fa990556d59E', symObjAddr: 0x4994, symBinAddr: 0x10000D6AC, symSize: 0xF0 }
  - { offset: 0x295BD, size: 0x8, addend: 0x0, symName: __ZN4core5slice4sort6shared5pivot11median3_rec17h025645fbfb2d8cd1E, symObjAddr: 0x4D90, symBinAddr: 0x10000D8AC, symSize: 0x134 }
  - { offset: 0x297E4, size: 0x8, addend: 0x0, symName: __ZN4core5slice4sort6shared5pivot11median3_rec17h246a4f2d911688a1E, symObjAddr: 0x4EC4, symBinAddr: 0x10000D9E0, symSize: 0xD0 }
  - { offset: 0x298DF, size: 0x8, addend: 0x0, symName: __ZN4core5slice4sort6shared5pivot11median3_rec17h6ce4cdb71517d19eE, symObjAddr: 0x4F94, symBinAddr: 0x10000DAB0, symSize: 0xCC }
  - { offset: 0x299DA, size: 0x8, addend: 0x0, symName: __ZN4core5slice4sort6shared5pivot11median3_rec17h6e4fd85017a3f5e4E, symObjAddr: 0x5060, symBinAddr: 0x10000DB7C, symSize: 0xD0 }
  - { offset: 0x29AD5, size: 0x8, addend: 0x0, symName: __ZN4core5slice4sort6shared5pivot11median3_rec17ha3c898ebd570d9a9E, symObjAddr: 0x5130, symBinAddr: 0x10000DC4C, symSize: 0xCC }
  - { offset: 0x29C26, size: 0x8, addend: 0x0, symName: __ZN4core5slice4sort6shared5pivot11median3_rec17hbe3f226301cd071dE, symObjAddr: 0x51FC, symBinAddr: 0x10000DD18, symSize: 0xCC }
  - { offset: 0x29D21, size: 0x8, addend: 0x0, symName: __ZN4core5slice4sort6shared5pivot11median3_rec17hc3d7c76f255c304aE, symObjAddr: 0x52C8, symBinAddr: 0x10000DDE4, symSize: 0xD0 }
  - { offset: 0x29E1C, size: 0x8, addend: 0x0, symName: __ZN4core5slice4sort6shared5pivot11median3_rec17heb13e39171436e07E, symObjAddr: 0x5398, symBinAddr: 0x10000DEB4, symSize: 0x11C }
  - { offset: 0x29FF2, size: 0x8, addend: 0x0, symName: __ZN4core5slice4sort6shared9smallsort12sort4_stable17h29d5ecfff8d25808E, symObjAddr: 0x54B4, symBinAddr: 0x10000DFD0, symSize: 0x1B4 }
  - { offset: 0x2A19D, size: 0x8, addend: 0x0, symName: __ZN4core5slice4sort6shared9smallsort12sort4_stable17he2b82e95c0946cc4E, symObjAddr: 0x5668, symBinAddr: 0x10000E184, symSize: 0x180 }
  - { offset: 0x2A5BF, size: 0x8, addend: 0x0, symName: __ZN4core5slice4sort6shared9smallsort12sort8_stable17h40f301b851efa79fE, symObjAddr: 0x57E8, symBinAddr: 0x10000E304, symSize: 0x2B8 }
  - { offset: 0x2AB58, size: 0x8, addend: 0x0, symName: __ZN4core5slice4sort6shared9smallsort18small_sort_general17h8f0f2bfe6ac37bfbE, symObjAddr: 0x5AA0, symBinAddr: 0x10000E5BC, symSize: 0x490 }
  - { offset: 0x2B26D, size: 0x8, addend: 0x0, symName: __ZN4core5slice4sort6shared9smallsort18small_sort_general17h9886ba35fa9ddf7bE, symObjAddr: 0x5F30, symBinAddr: 0x10000EA4C, symSize: 0x3E0 }
  - { offset: 0x2B787, size: 0x8, addend: 0x0, symName: __ZN4core5slice4sort6shared9smallsort25insertion_sort_shift_left17h001473db42a80264E, symObjAddr: 0x6310, symBinAddr: 0x10000EE2C, symSize: 0xB0 }
  - { offset: 0x2B82A, size: 0x8, addend: 0x0, symName: __ZN4core5slice4sort6shared9smallsort25insertion_sort_shift_left17h1e1ea2c4d7503f74E, symObjAddr: 0x63C0, symBinAddr: 0x10000EEDC, symSize: 0xCC }
  - { offset: 0x2B92B, size: 0x8, addend: 0x0, symName: __ZN4core5slice4sort6shared9smallsort25insertion_sort_shift_left17h4c238536f310567cE, symObjAddr: 0x648C, symBinAddr: 0x10000EFA8, symSize: 0xFC }
  - { offset: 0x2BAC2, size: 0x8, addend: 0x0, symName: __ZN4core5slice4sort6shared9smallsort25insertion_sort_shift_left17h5ae8ea909444dc00E, symObjAddr: 0x6588, symBinAddr: 0x10000F0A4, symSize: 0xAC }
  - { offset: 0x2BB65, size: 0x8, addend: 0x0, symName: __ZN4core5slice4sort6shared9smallsort25insertion_sort_shift_left17h677848d84e66ea2aE, symObjAddr: 0x6634, symBinAddr: 0x10000F150, symSize: 0xA8 }
  - { offset: 0x2BC08, size: 0x8, addend: 0x0, symName: __ZN4core5slice4sort6shared9smallsort25insertion_sort_shift_left17h753c2c33d7211ceaE, symObjAddr: 0x66DC, symBinAddr: 0x10000F1F8, symSize: 0xBC }
  - { offset: 0x2BCAB, size: 0x8, addend: 0x0, symName: __ZN4core5slice4sort6shared9smallsort25insertion_sort_shift_left17hceef73df05978c22E, symObjAddr: 0x6798, symBinAddr: 0x10000F2B4, symSize: 0x90 }
  - { offset: 0x2BD4E, size: 0x8, addend: 0x0, symName: __ZN4core5slice4sort6shared9smallsort25insertion_sort_shift_left17hfb494d5f79707c02E, symObjAddr: 0x6828, symBinAddr: 0x10000F344, symSize: 0xAC }
  - { offset: 0x2C03E, size: 0x8, addend: 0x0, symName: __ZN4core5slice4sort6stable14driftsort_main17h103ff636fd5ab89dE, symObjAddr: 0x68D4, symBinAddr: 0x10000F3F0, symSize: 0x148 }
  - { offset: 0x2C2E1, size: 0x8, addend: 0x0, symName: __ZN4core5slice4sort6stable14driftsort_main17h1e88dc2727ad5c37E, symObjAddr: 0x6A1C, symBinAddr: 0x10000F538, symSize: 0x16C }
  - { offset: 0x2C5DA, size: 0x8, addend: 0x0, symName: __ZN4core5slice4sort6stable14driftsort_main17h54d923433181cd8aE, symObjAddr: 0x6B88, symBinAddr: 0x10000F6A4, symSize: 0x16C }
  - { offset: 0x2C8D3, size: 0x8, addend: 0x0, symName: __ZN4core5slice4sort6stable14driftsort_main17h76405073938de01eE, symObjAddr: 0x6CF4, symBinAddr: 0x10000F810, symSize: 0x148 }
  - { offset: 0x2CB76, size: 0x8, addend: 0x0, symName: __ZN4core5slice4sort6stable14driftsort_main17h9cb82a8482cd4f53E, symObjAddr: 0x6E3C, symBinAddr: 0x10000F958, symSize: 0x148 }
  - { offset: 0x2CE19, size: 0x8, addend: 0x0, symName: __ZN4core5slice4sort6stable14driftsort_main17hf9ea8a01734384bdE, symObjAddr: 0x6F84, symBinAddr: 0x10000FAA0, symSize: 0x148 }
  - { offset: 0x2D22B, size: 0x8, addend: 0x0, symName: __ZN4core5slice4sort6stable5drift4sort17h00ab1c6180ac4055E, symObjAddr: 0x70CC, symBinAddr: 0x10000FBE8, symSize: 0x4E0 }
  - { offset: 0x2D860, size: 0x8, addend: 0x0, symName: __ZN4core5slice4sort6stable5drift4sort17h0aa4aacce1cc6d7cE, symObjAddr: 0x75AC, symBinAddr: 0x1000100C8, symSize: 0x5E8 }
  - { offset: 0x2DEE8, size: 0x8, addend: 0x0, symName: __ZN4core5slice4sort6stable5drift4sort17h343dbae25f37733bE, symObjAddr: 0x7B94, symBinAddr: 0x1000106B0, symSize: 0x538 }
  - { offset: 0x2E5BB, size: 0x8, addend: 0x0, symName: __ZN4core5slice4sort6stable5drift4sort17h4258b1bc2caa3ec0E, symObjAddr: 0x80CC, symBinAddr: 0x100010BE8, symSize: 0x6F0 }
  - { offset: 0x2EC91, size: 0x8, addend: 0x0, symName: __ZN4core5slice4sort6stable5drift4sort17h9cf8228521243839E, symObjAddr: 0x87BC, symBinAddr: 0x1000112D8, symSize: 0x5E8 }
  - { offset: 0x2F319, size: 0x8, addend: 0x0, symName: __ZN4core5slice4sort6stable5drift4sort17he5c0348fca8b4ee7E, symObjAddr: 0x8DA4, symBinAddr: 0x1000118C0, symSize: 0x63C }
  - { offset: 0x2FB91, size: 0x8, addend: 0x0, symName: __ZN4core5slice4sort6stable9quicksort9quicksort17h115e1a8136b6fa84E, symObjAddr: 0x93E0, symBinAddr: 0x100011EFC, symSize: 0x820 }
  - { offset: 0x3075E, size: 0x8, addend: 0x0, symName: __ZN4core5slice4sort6stable9quicksort9quicksort17h270cbea95e7bc0c9E, symObjAddr: 0x9C00, symBinAddr: 0x10001271C, symSize: 0x73C }
  - { offset: 0x30E7F, size: 0x8, addend: 0x0, symName: __ZN4core5slice4sort6stable9quicksort9quicksort17h3e7b305b5c7976baE, symObjAddr: 0xA33C, symBinAddr: 0x100012E58, symSize: 0x6C8 }
  - { offset: 0x3190C, size: 0x8, addend: 0x0, symName: __ZN4core5slice4sort6stable9quicksort9quicksort17hc1d95435bd0f54c5E, symObjAddr: 0xAA04, symBinAddr: 0x100013520, symSize: 0x828 }
  - { offset: 0x329CD, size: 0x8, addend: 0x0, symName: __ZN4core5slice4sort6stable9quicksort9quicksort17hcf4fb219382f768bE, symObjAddr: 0xB22C, symBinAddr: 0x100013D48, symSize: 0x7FC }
  - { offset: 0x3359A, size: 0x8, addend: 0x0, symName: __ZN4core5slice4sort6stable9quicksort9quicksort17hfd59b4f11a472dd5E, symObjAddr: 0xBA28, symBinAddr: 0x100014544, symSize: 0x6D0 }
  - { offset: 0x34062, size: 0x8, addend: 0x0, symName: __ZN4core5slice4sort8unstable7ipnsort17h519db9bb88c7d2c0E, symObjAddr: 0xC0F8, symBinAddr: 0x100014C14, symSize: 0x1E4 }
  - { offset: 0x34179, size: 0x8, addend: 0x0, symName: __ZN4core5slice4sort8unstable7ipnsort17hc49a474c49f61d9aE, symObjAddr: 0xC2DC, symBinAddr: 0x100014DF8, symSize: 0x290 }
  - { offset: 0x34422, size: 0x8, addend: 0x0, symName: __ZN4core5slice4sort8unstable8heapsort8heapsort17h6b7b52018c9f5da0E, symObjAddr: 0xC56C, symBinAddr: 0x100015088, symSize: 0x10C }
  - { offset: 0x34629, size: 0x8, addend: 0x0, symName: __ZN4core5slice4sort8unstable8heapsort8heapsort17h719a9553e129d672E, symObjAddr: 0xC678, symBinAddr: 0x100015194, symSize: 0x160 }
  - { offset: 0x349C7, size: 0x8, addend: 0x0, symName: __ZN4core5slice4sort8unstable9quicksort9quicksort17h96e7db41672c501eE, symObjAddr: 0xC7D8, symBinAddr: 0x1000152F4, symSize: 0x448 }
  - { offset: 0x3527D, size: 0x8, addend: 0x0, symName: __ZN4core5slice4sort8unstable9quicksort9quicksort17ha039472c97b018d8E, symObjAddr: 0xCC20, symBinAddr: 0x10001573C, symSize: 0x5BC }
  - { offset: 0x35FAF, size: 0x8, addend: 0x0, symName: '__ZN36_$LT$T$u20$as$u20$core..any..Any$GT$7type_id17h225d92188c8db6c3E', symObjAddr: 0x13C, symBinAddr: 0x10000A8E4, symSize: 0x30 }
  - { offset: 0x35FC9, size: 0x8, addend: 0x0, symName: '__ZN36_$LT$T$u20$as$u20$core..any..Any$GT$7type_id17h22a55d7ebb819ea6E', symObjAddr: 0x16C, symBinAddr: 0x10000A914, symSize: 0x30 }
  - { offset: 0x36037, size: 0x8, addend: 0x0, symName: '__ZN42_$LT$$RF$T$u20$as$u20$core..fmt..Debug$GT$3fmt17h229631da8bdd67acE', symObjAddr: 0x464, symBinAddr: 0x10000A944, symSize: 0x1C }
  - { offset: 0x3604B, size: 0x8, addend: 0x0, symName: '__ZN42_$LT$$RF$T$u20$as$u20$core..fmt..Debug$GT$3fmt17h45300256e973f494E', symObjAddr: 0x4F8, symBinAddr: 0x10000A960, symSize: 0x30 }
  - { offset: 0x36091, size: 0x8, addend: 0x0, symName: '__ZN42_$LT$$RF$T$u20$as$u20$core..fmt..Debug$GT$3fmt17h6cf282856d53ef8fE', symObjAddr: 0x66C, symBinAddr: 0x10000A990, symSize: 0x74 }
  - { offset: 0x361D3, size: 0x8, addend: 0x0, symName: '__ZN42_$LT$$RF$T$u20$as$u20$core..fmt..Debug$GT$3fmt17h832369a0cde054d2E', symObjAddr: 0x77C, symBinAddr: 0x10000AA04, symSize: 0x30 }
  - { offset: 0x36227, size: 0x8, addend: 0x0, symName: '__ZN42_$LT$$RF$T$u20$as$u20$core..fmt..Debug$GT$3fmt17h8bbb2abac655b284E', symObjAddr: 0x7AC, symBinAddr: 0x10000AA34, symSize: 0x9C }
  - { offset: 0x362D1, size: 0x8, addend: 0x0, symName: '__ZN42_$LT$$RF$T$u20$as$u20$core..fmt..Debug$GT$3fmt17h99ba184c1a5db1eaE', symObjAddr: 0x91C, symBinAddr: 0x10000AAD0, symSize: 0x1C }
  - { offset: 0x36310, size: 0x8, addend: 0x0, symName: '__ZN42_$LT$$RF$T$u20$as$u20$core..fmt..Debug$GT$3fmt17h9e2071203f91d82eE', symObjAddr: 0x938, symBinAddr: 0x10000AAEC, symSize: 0x74 }
  - { offset: 0x363CF, size: 0x8, addend: 0x0, symName: '__ZN42_$LT$$RF$T$u20$as$u20$core..fmt..Debug$GT$3fmt17hc3e2ad6268e8985cE', symObjAddr: 0xB50, symBinAddr: 0x10000AB60, symSize: 0x20 }
  - { offset: 0x36485, size: 0x8, addend: 0x0, symName: '__ZN4core3fmt3num50_$LT$impl$u20$core..fmt..Debug$u20$for$u20$i32$GT$3fmt17h15c50277390862aeE', symObjAddr: 0xCF0, symBinAddr: 0x10000AC04, symSize: 0x2C }
  - { offset: 0x364B4, size: 0x8, addend: 0x0, symName: '__ZN4core3fmt3num52_$LT$impl$u20$core..fmt..Debug$u20$for$u20$usize$GT$3fmt17h6def11b803266407E', symObjAddr: 0xDA0, symBinAddr: 0x10000AC30, symSize: 0x2C }
  - { offset: 0x36533, size: 0x8, addend: 0x0, symName: '__ZN44_$LT$$RF$T$u20$as$u20$core..fmt..Display$GT$3fmt17h3bfca5eae23b0d69E', symObjAddr: 0xC20, symBinAddr: 0x10000AB80, symSize: 0x1C }
  - { offset: 0x3654E, size: 0x8, addend: 0x0, symName: '__ZN44_$LT$$RF$T$u20$as$u20$core..fmt..Display$GT$3fmt17ha43e2829162aef39E', symObjAddr: 0xC3C, symBinAddr: 0x10000AB9C, symSize: 0x68 }
  - { offset: 0x36999, size: 0x8, addend: 0x0, symName: __ZN4core3fmt5Write10write_char17h2bd2da6422df0c04E, symObjAddr: 0xDCC, symBinAddr: 0x10000AC5C, symSize: 0x128 }
  - { offset: 0x36B31, size: 0x8, addend: 0x0, symName: __ZN4core3fmt5Write10write_char17h375232e784da95c3E, symObjAddr: 0xEF4, symBinAddr: 0x10000AD84, symSize: 0x174 }
  - { offset: 0x36D33, size: 0x8, addend: 0x0, symName: __ZN4core3fmt5Write10write_char17h5fd94b4a6a085facE, symObjAddr: 0x11E8, symBinAddr: 0x10000AEF8, symSize: 0x140 }
  - { offset: 0x36D99, size: 0x8, addend: 0x0, symName: __ZN4core3fmt5Write10write_char17h7453f2c039370a9dE, symObjAddr: 0x1328, symBinAddr: 0x10000B038, symSize: 0x180 }
  - { offset: 0x36F85, size: 0x8, addend: 0x0, symName: __ZN4core3fmt5Write9write_fmt17h2a0fceba8367f855E, symObjAddr: 0x1620, symBinAddr: 0x10000B1B8, symSize: 0x1C }
  - { offset: 0x36FB4, size: 0x8, addend: 0x0, symName: __ZN4core3fmt5Write9write_fmt17h7b0eee5bb9fc5859E, symObjAddr: 0x163C, symBinAddr: 0x10000B1D4, symSize: 0x1C }
  - { offset: 0x36FE3, size: 0x8, addend: 0x0, symName: __ZN4core3fmt5Write9write_fmt17hb212afec46fd02ecE, symObjAddr: 0x1658, symBinAddr: 0x10000B1F0, symSize: 0x1C }
  - { offset: 0x37012, size: 0x8, addend: 0x0, symName: __ZN4core3fmt5Write9write_fmt17hbad323a678cb2207E, symObjAddr: 0x1674, symBinAddr: 0x10000B20C, symSize: 0x1C }
  - { offset: 0x37041, size: 0x8, addend: 0x0, symName: __ZN4core3fmt5Write9write_fmt17he153d8ed26875afeE, symObjAddr: 0x1690, symBinAddr: 0x10000B228, symSize: 0x1C }
  - { offset: 0x3709E, size: 0x8, addend: 0x0, symName: '__ZN50_$LT$$BP$mut$u20$T$u20$as$u20$core..fmt..Debug$GT$3fmt17he39465caf33bcc4eE', symObjAddr: 0xD258, symBinAddr: 0x100015CF8, symSize: 0x14 }
  - { offset: 0x370EB, size: 0x8, addend: 0x0, symName: '__ZN52_$LT$$RF$mut$u20$T$u20$as$u20$core..fmt..Display$GT$3fmt17hc6db9c4561bb0640E', symObjAddr: 0xD2E0, symBinAddr: 0x100015D0C, symSize: 0x1C }
  - { offset: 0x3766E, size: 0x8, addend: 0x0, symName: '__ZN70_$LT$core..num..error..TryFromIntError$u20$as$u20$core..fmt..Debug$GT$3fmt17heb63bc146d788e8fE', symObjAddr: 0x19870, symBinAddr: 0x100020630, symSize: 0x40 }
  - { offset: 0x37814, size: 0x8, addend: 0x0, symName: '__ZN4core5array69_$LT$impl$u20$core..fmt..Debug$u20$for$u20$$u5b$T$u3b$$u20$N$u5d$$GT$3fmt17h705a2aa453ffacd4E', symObjAddr: 0x4BD8, symBinAddr: 0x10000D79C, symSize: 0xFC }
  - { offset: 0x37D37, size: 0x8, addend: 0x0, symName: '__ZN55_$LT$$RF$str$u20$as$u20$core..str..pattern..Pattern$GT$15is_contained_in17h07538af93eae73f4E', symObjAddr: 0xD2FC, symBinAddr: 0x100015D28, symSize: 0x3BC }
  - { offset: 0x38156, size: 0x8, addend: 0x0, symName: __ZN4core5panic12PanicPayload6as_str17h5cdc46f655586ed2E, symObjAddr: 0x4D7C, symBinAddr: 0x10000D898, symSize: 0x14 }
  - { offset: 0x391EF, size: 0x8, addend: 0x0, symName: '__ZN4core3ops8function6FnOnce40call_once$u7b$$u7b$vtable.shim$u7d$$u7d$17h372dd670162a11a3E', symObjAddr: 0x1714, symBinAddr: 0x10000B244, symSize: 0x18 }
  - { offset: 0x39240, size: 0x8, addend: 0x0, symName: '__ZN4core3ops8function6FnOnce40call_once$u7b$$u7b$vtable.shim$u7d$$u7d$17h49be7b3161c92e51E', symObjAddr: 0x172C, symBinAddr: 0x10000B25C, symSize: 0x28 }
  - { offset: 0x3927C, size: 0x8, addend: 0x0, symName: '__ZN4core3ops8function6FnOnce40call_once$u7b$$u7b$vtable.shim$u7d$$u7d$17h4dbfbb5401248555E', symObjAddr: 0x1754, symBinAddr: 0x10000B284, symSize: 0xA4 }
  - { offset: 0x393C2, size: 0x8, addend: 0x0, symName: '__ZN4core3ops8function6FnOnce40call_once$u7b$$u7b$vtable.shim$u7d$$u7d$17h59664865ad50834bE', symObjAddr: 0x17F8, symBinAddr: 0x10000B328, symSize: 0x10 }
  - { offset: 0x393FE, size: 0x8, addend: 0x0, symName: '__ZN4core3ops8function6FnOnce40call_once$u7b$$u7b$vtable.shim$u7d$$u7d$17h5dd18c650d3d28d5E', symObjAddr: 0x18B8, symBinAddr: 0x10000B338, symSize: 0x80 }
  - { offset: 0x39593, size: 0x8, addend: 0x0, symName: '__ZN4core3ops8function6FnOnce40call_once$u7b$$u7b$vtable.shim$u7d$$u7d$17hb8f0a3a311886dd1E', symObjAddr: 0x194C, symBinAddr: 0x10000B3B8, symSize: 0x18 }
  - { offset: 0x395E4, size: 0x8, addend: 0x0, symName: '__ZN4core3ops8function6FnOnce40call_once$u7b$$u7b$vtable.shim$u7d$$u7d$17hc37bdb1ed22c5dd7E', symObjAddr: 0x19E0, symBinAddr: 0x10000B3D0, symSize: 0x10 }
  - { offset: 0x39620, size: 0x8, addend: 0x0, symName: '__ZN4core3ops8function6FnOnce40call_once$u7b$$u7b$vtable.shim$u7d$$u7d$17heb56308df1374649E', symObjAddr: 0x19F0, symBinAddr: 0x10000B3E0, symSize: 0x60 }
  - { offset: 0x39722, size: 0x8, addend: 0x0, symName: __ZN4core3ops8function6FnOnce9call_once17he5d2535e31b739dcE, symObjAddr: 0x1A78, symBinAddr: 0x10000B440, symSize: 0x44 }
  - { offset: 0x3C037, size: 0x8, addend: 0x0, symName: '__ZN4core4cell4once17OnceCell$LT$T$GT$8try_init17he4193c4098c349bdE', symObjAddr: 0x4A84, symBinAddr: 0x100045020, symSize: 0x154 }
  - { offset: 0x3C519, size: 0x8, addend: 0x0, symName: __ZN4core9panicking13assert_failed17h5ef480159103c8ebE, symObjAddr: 0xD1DC, symBinAddr: 0x100045174, symSize: 0x34 }
  - { offset: 0x3C534, size: 0x8, addend: 0x0, symName: __ZN4core9panicking13assert_failed17he664f25a4eeebf5cE, symObjAddr: 0xD234, symBinAddr: 0x1000451A8, symSize: 0x24 }
  - { offset: 0x3C9B7, size: 0x8, addend: 0x0, symName: __ZN3std9panicking11panic_count8increase17h1d24b79d4790a8a8E, symObjAddr: 0x3A9E8, symBinAddr: 0x10002B8E8, symSize: 0x80 }
  - { offset: 0x3CAAE, size: 0x8, addend: 0x0, symName: __ZN3std9panicking11panic_count17is_zero_slow_path17hbb753c2ecca816a8E, symObjAddr: 0x3AB00, symBinAddr: 0x1000459F0, symSize: 0x2C }
  - { offset: 0x3CBE4, size: 0x8, addend: 0x0, symName: ___rust_drop_panic, symObjAddr: 0x39FEC, symBinAddr: 0x10002B160, symSize: 0xB8 }
  - { offset: 0x3CDD6, size: 0x8, addend: 0x0, symName: ___rust_foreign_exception, symObjAddr: 0x3A0A4, symBinAddr: 0x10002B218, symSize: 0xB8 }
  - { offset: 0x3CFC8, size: 0x8, addend: 0x0, symName: __ZN3std9panicking12default_hook17ha0b223ccc4379930E, symObjAddr: 0x3A3D0, symBinAddr: 0x10002B2D0, symSize: 0x1EC }
  - { offset: 0x3D269, size: 0x8, addend: 0x0, symName: '__ZN3std9panicking12default_hook28_$u7b$$u7b$closure$u7d$$u7d$17h5c3a234feebd11a5E', symObjAddr: 0x3A5BC, symBinAddr: 0x10002B4BC, symSize: 0x1A8 }
  - { offset: 0x3D44D, size: 0x8, addend: 0x0, symName: '__ZN3std9panicking12default_hook28_$u7b$$u7b$closure$u7d$$u7d$28_$u7b$$u7b$closure$u7d$$u7d$17h2cb359aea37a8eccE', symObjAddr: 0x3A764, symBinAddr: 0x10002B664, symSize: 0x284 }
  - { offset: 0x3D8C3, size: 0x8, addend: 0x0, symName: _rust_begin_unwind, symObjAddr: 0x3AB80, symBinAddr: 0x10002B968, symSize: 0x20 }
  - { offset: 0x3D92C, size: 0x8, addend: 0x0, symName: '__ZN102_$LT$std..panicking..begin_panic_handler..FormatStringPayload$u20$as$u20$core..panic..PanicPayload$GT$8take_box17hf9936339f9bb3e6eE', symObjAddr: 0x3ABA0, symBinAddr: 0x10002B988, symSize: 0x110 }
  - { offset: 0x3DBC0, size: 0x8, addend: 0x0, symName: '__ZN102_$LT$std..panicking..begin_panic_handler..FormatStringPayload$u20$as$u20$core..panic..PanicPayload$GT$3get17h671f5c789103ccc6E', symObjAddr: 0x3ACB0, symBinAddr: 0x10002BA98, symSize: 0xB0 }
  - { offset: 0x3DCF9, size: 0x8, addend: 0x0, symName: '__ZN95_$LT$std..panicking..begin_panic_handler..FormatStringPayload$u20$as$u20$core..fmt..Display$GT$3fmt17h1a7e141a9fd2e841E', symObjAddr: 0x3AD60, symBinAddr: 0x10002BB48, symSize: 0x5C }
  - { offset: 0x3DDF6, size: 0x8, addend: 0x0, symName: '__ZN99_$LT$std..panicking..begin_panic_handler..StaticStrPayload$u20$as$u20$core..panic..PanicPayload$GT$8take_box17hfde794f38dfdff84E', symObjAddr: 0x3ADBC, symBinAddr: 0x10002BBA4, symSize: 0x50 }
  - { offset: 0x3DE6D, size: 0x8, addend: 0x0, symName: '__ZN99_$LT$std..panicking..begin_panic_handler..StaticStrPayload$u20$as$u20$core..panic..PanicPayload$GT$3get17h40c5dcbca42c5d43E', symObjAddr: 0x3AE0C, symBinAddr: 0x10002BBF4, symSize: 0x18 }
  - { offset: 0x3DE88, size: 0x8, addend: 0x0, symName: '__ZN99_$LT$std..panicking..begin_panic_handler..StaticStrPayload$u20$as$u20$core..panic..PanicPayload$GT$6as_str17h36252a21ddc56c9bE', symObjAddr: 0x3AE24, symBinAddr: 0x10002BC0C, symSize: 0x18 }
  - { offset: 0x3DEA9, size: 0x8, addend: 0x0, symName: '__ZN92_$LT$std..panicking..begin_panic_handler..StaticStrPayload$u20$as$u20$core..fmt..Display$GT$3fmt17hd84ef799566d4562E', symObjAddr: 0x3AE3C, symBinAddr: 0x10002BC24, symSize: 0x1C }
  - { offset: 0x3DEC5, size: 0x8, addend: 0x0, symName: '__ZN3std9panicking19begin_panic_handler28_$u7b$$u7b$closure$u7d$$u7d$17hcc8f653f753c0254E', symObjAddr: 0x3AE58, symBinAddr: 0x10002BC40, symSize: 0xC4 }
  - { offset: 0x3E02D, size: 0x8, addend: 0x0, symName: __ZN3std9panicking14payload_as_str17h326c21158c3ccbd7E, symObjAddr: 0x3B008, symBinAddr: 0x10002BD04, symSize: 0xB0 }
  - { offset: 0x3E111, size: 0x8, addend: 0x0, symName: __ZN3std9panicking20rust_panic_with_hook17h203f96c93e7ac62dE, symObjAddr: 0x3B0B8, symBinAddr: 0x10002BDB4, symSize: 0x3F8 }
  - { offset: 0x3E924, size: 0x8, addend: 0x0, symName: _rust_panic, symObjAddr: 0x3B5E4, symBinAddr: 0x10002C1AC, symSize: 0x60 }
  - { offset: 0x3E96A, size: 0x8, addend: 0x0, symName: __ZN3std7process7Command6output17h173f2f9f8e9cb0e1E, symObjAddr: 0x35188, symBinAddr: 0x100029F2C, symSize: 0x2FC }
  - { offset: 0x3EF3C, size: 0x8, addend: 0x0, symName: __ZN3std7process5abort17h5bdab09773b2c592E, symObjAddr: 0x35D9C, symBinAddr: 0x100045620, symSize: 0xC }
  - { offset: 0x3EFCA, size: 0x8, addend: 0x0, symName: __ZN3std4path4Path13_strip_prefix17h55294dff41b26308E, symObjAddr: 0x33B38, symBinAddr: 0x100029B64, symSize: 0x21C }
  - { offset: 0x3F10A, size: 0x8, addend: 0x0, symName: __ZN3std4path4Path5_join17h516bc57fe1e4225dE, symObjAddr: 0x34358, symBinAddr: 0x100029D80, symSize: 0x1AC }
  - { offset: 0x3F6B2, size: 0x8, addend: 0x0, symName: __ZN3std4path10Components15len_before_body17ha7ee2271a8a6c6d9E, symObjAddr: 0x31DBC, symBinAddr: 0x100028D1C, symSize: 0x188 }
  - { offset: 0x3F6C9, size: 0x8, addend: 0x0, symName: __ZN3std4path10Components15len_before_body17ha7ee2271a8a6c6d9E, symObjAddr: 0x31DBC, symBinAddr: 0x100028D1C, symSize: 0x188 }
  - { offset: 0x3F6DE, size: 0x8, addend: 0x0, symName: __ZN3std4path10Components15len_before_body17ha7ee2271a8a6c6d9E, symObjAddr: 0x31DBC, symBinAddr: 0x100028D1C, symSize: 0x188 }
  - { offset: 0x3F8C0, size: 0x8, addend: 0x0, symName: __ZN3std4path10Components7as_path17h6e25608fa8cb9557E, symObjAddr: 0x31F44, symBinAddr: 0x100028EA4, symSize: 0x530 }
  - { offset: 0x3FD93, size: 0x8, addend: 0x0, symName: __ZN3std4path10Components25parse_next_component_back17h5239b6f3b65d70c8E, symObjAddr: 0x32474, symBinAddr: 0x1000293D4, symSize: 0x120 }
  - { offset: 0x3FF9E, size: 0x8, addend: 0x0, symName: '__ZN80_$LT$std..path..Components$u20$as$u20$core..iter..traits..iterator..Iterator$GT$4next17h6e8b0f281526c929E', symObjAddr: 0x3272C, symBinAddr: 0x1000294F4, symSize: 0x340 }
  - { offset: 0x402ED, size: 0x8, addend: 0x0, symName: '__ZN95_$LT$std..path..Components$u20$as$u20$core..iter..traits..double_ended..DoubleEndedIterator$GT$9next_back17h15500b5b5dde7decE', symObjAddr: 0x32A6C, symBinAddr: 0x100029834, symSize: 0x330 }
  - { offset: 0x404A4, size: 0x8, addend: 0x0, symName: '__ZN61_$LT$std..path..Component$u20$as$u20$core..cmp..PartialEq$GT$2eq17h238f4f8a8cc29bb2E', symObjAddr: 0x3C0CC, symBinAddr: 0x10002C8F4, symSize: 0x138 }
  - { offset: 0x4066E, size: 0x8, addend: 0x0, symName: __ZN3std3sys3pal4unix2fs4File6open_c17h0a400570de534b0aE, symObjAddr: 0x3D220, symBinAddr: 0x10002CE58, symSize: 0x1B0 }
  - { offset: 0x407D7, size: 0x8, addend: 0x0, symName: '__ZN91_$LT$std..sys..pal..unix..fs..ReadDir$u20$as$u20$core..iter..traits..iterator..Iterator$GT$4next17he1b3299a727d70eaE', symObjAddr: 0x3CD90, symBinAddr: 0x10002CC54, symSize: 0x138 }
  - { offset: 0x40A7E, size: 0x8, addend: 0x0, symName: '__ZN70_$LT$std..sys..pal..unix..fs..Dir$u20$as$u20$core..ops..drop..Drop$GT$4drop17h2f7cbb54b209bd1fE', symObjAddr: 0x3CEC8, symBinAddr: 0x10002CD8C, symSize: 0xCC }
  - { offset: 0x40B71, size: 0x8, addend: 0x0, symName: __ZN3std3sys3pal4unix2fs7readdir17h52c204b360126013E, symObjAddr: 0x3DAF4, symBinAddr: 0x10002D008, symSize: 0x1A4 }
  - { offset: 0x40E65, size: 0x8, addend: 0x0, symName: __ZN3std3sys3pal4unix2fd8FileDesc11read_to_end17hb48365a6d7f4162dE, symObjAddr: 0x3C5C8, symBinAddr: 0x10002CA2C, symSize: 0x228 }
  - { offset: 0x412FA, size: 0x8, addend: 0x0, symName: __ZN3std3sys3pal4unix7process13process_inner7Process4wait17h3c2b205dcceaa54aE, symObjAddr: 0x44A18, symBinAddr: 0x10002FFD0, symSize: 0xA0 }
  - { offset: 0x41491, size: 0x8, addend: 0x0, symName: __ZN3std3sys3pal4unix7process14process_common7Command3new17h1d046efb69807da0E, symObjAddr: 0x40DB4, symBinAddr: 0x10002D9C8, symSize: 0x2C4 }
  - { offset: 0x419FB, size: 0x8, addend: 0x0, symName: __ZN3std3sys3pal4unix7process14process_common7Command3arg17h236ab9fd4e9e458bE, symObjAddr: 0x411AC, symBinAddr: 0x10002DC8C, symSize: 0x15C }
  - { offset: 0x41D74, size: 0x8, addend: 0x0, symName: __ZN3std3sys3pal4unix7process14process_common7Command11capture_env17h73b5aff2a246da54E, symObjAddr: 0x41528, symBinAddr: 0x10002DDE8, symSize: 0xA9C }
  - { offset: 0x43A9F, size: 0x8, addend: 0x0, symName: __ZN3std3sys3pal4unix7process14process_common7Command8setup_io17hcfeddda79479f9dfE, symObjAddr: 0x41FC4, symBinAddr: 0x10002E884, symSize: 0x2F0 }
  - { offset: 0x43F58, size: 0x8, addend: 0x0, symName: '__ZN3std3sys3pal4unix7process13process_inner71_$LT$impl$u20$std..sys..pal..unix..process..process_common..Command$GT$5spawn17hbb692d0a4a0abbffE', symObjAddr: 0x43CC4, symBinAddr: 0x10002F2C8, symSize: 0x9A8 }
  - { offset: 0x451AC, size: 0x8, addend: 0x0, symName: '__ZN3std3sys3pal4unix7process13process_inner71_$LT$impl$u20$std..sys..pal..unix..process..process_common..Command$GT$7do_exec17he847cfd6d5f995b9E', symObjAddr: 0x4466C, symBinAddr: 0x10002FC70, symSize: 0x360 }
  - { offset: 0x45B0D, size: 0x8, addend: 0x0, symName: __ZN3std3sys3pal4unix7process14process_common5Stdio14to_child_stdio17ha05e85644a02177cE, symObjAddr: 0x422B4, symBinAddr: 0x10002EB74, symSize: 0x15C }
  - { offset: 0x45D0C, size: 0x8, addend: 0x0, symName: __ZN3std3sys3pal4unix2os5errno17h1e687568046dfc01E, symObjAddr: 0x3FC68, symBinAddr: 0x10002D1AC, symSize: 0x18 }
  - { offset: 0x45D20, size: 0x8, addend: 0x0, symName: __ZN3std3sys3pal4unix2os13env_read_lock17h1370e80127ab09adE, symObjAddr: 0x400EC, symBinAddr: 0x10002D1C4, symSize: 0x2EC }
  - { offset: 0x463D0, size: 0x8, addend: 0x0, symName: '__ZN3std3sys3pal4unix2os6getenv28_$u7b$$u7b$closure$u7d$$u7d$17h09d09dd30efbeda3E', symObjAddr: 0x403D8, symBinAddr: 0x10002D4B0, symSize: 0x150 }
  - { offset: 0x46613, size: 0x8, addend: 0x0, symName: '__ZN69_$LT$std..sys..pal..unix..stdio..Stderr$u20$as$u20$std..io..Write$GT$5write17hf7eb28e2e3a5bd7dE', symObjAddr: 0x43178, symBinAddr: 0x10002F060, symSize: 0x4C }
  - { offset: 0x466D4, size: 0x8, addend: 0x0, symName: '__ZN69_$LT$std..sys..pal..unix..stdio..Stderr$u20$as$u20$std..io..Write$GT$14write_vectored17h6899437ee14ad0e1E', symObjAddr: 0x431C4, symBinAddr: 0x10002F0AC, symSize: 0x4C }
  - { offset: 0x46795, size: 0x8, addend: 0x0, symName: '__ZN69_$LT$std..sys..pal..unix..stdio..Stderr$u20$as$u20$std..io..Write$GT$17is_write_vectored17h9b2366713f7e1db9E', symObjAddr: 0x43210, symBinAddr: 0x10002F0F8, symSize: 0x14 }
  - { offset: 0x467AF, size: 0x8, addend: 0x0, symName: '__ZN69_$LT$std..sys..pal..unix..stdio..Stderr$u20$as$u20$std..io..Write$GT$5flush17hd9b43cd37b405524E', symObjAddr: 0x43224, symBinAddr: 0x10002F10C, symSize: 0x14 }
  - { offset: 0x46821, size: 0x8, addend: 0x0, symName: __ZN3std3sys3pal4unix4sync5mutex5Mutex4init17hdf1c4f248d85eb16E, symObjAddr: 0x43238, symBinAddr: 0x10002F120, symSize: 0x16C }
  - { offset: 0x468D8, size: 0x8, addend: 0x0, symName: __ZN3std3sys3pal4unix4sync5mutex5Mutex4lock4fail17h6819c36a4f036f8cE, symObjAddr: 0x433C0, symBinAddr: 0x100045A74, symSize: 0xDC }
  - { offset: 0x46B98, size: 0x8, addend: 0x0, symName: __ZN3std3sys3pal4unix14stack_overflow3imp14signal_handler17h2fa8e10590380ab0E, symObjAddr: 0x42C40, symBinAddr: 0x10002ECD0, symSize: 0xB0 }
  - { offset: 0x46C49, size: 0x8, addend: 0x0, symName: '__ZN3std3sys3pal4unix14stack_overflow3imp14signal_handler28_$u7b$$u7b$closure$u7d$$u7d$17h58562be330c5529fE', symObjAddr: 0x42CF0, symBinAddr: 0x10002ED80, symSize: 0x100 }
  - { offset: 0x46E6F, size: 0x8, addend: 0x0, symName: __ZN3std3sys3pal4unix14stack_overflow3imp12make_handler17ha0e2e74c0ff811adE, symObjAddr: 0x42DF0, symBinAddr: 0x10002EE80, symSize: 0x1E0 }
  - { offset: 0x4721A, size: 0x8, addend: 0x0, symName: __ZN3std3sys3pal4unix4pipe8AnonPipe5write17h9d42360bb4720a56E, symObjAddr: 0x40B14, symBinAddr: 0x10002D728, symSize: 0x48 }
  - { offset: 0x472E2, size: 0x8, addend: 0x0, symName: __ZN3std3sys3pal4unix4pipe9anon_pipe17h3f2ef7b4629c71e8E, symObjAddr: 0x409EC, symBinAddr: 0x10002D600, symSize: 0x128 }
  - { offset: 0x475D7, size: 0x8, addend: 0x0, symName: __ZN3std3sys3pal4unix4pipe5read217he4ec31afe54221baE, symObjAddr: 0x40B5C, symBinAddr: 0x10002D770, symSize: 0x258 }
  - { offset: 0x47B05, size: 0x8, addend: 0x0, symName: '__ZN3std3sys3pal4unix4weak18DlsymWeak$LT$F$GT$10initialize17h5e388e39dc1ce791E', symObjAddr: 0x3C314, symBinAddr: 0x100045A1C, symSize: 0x58 }
  - { offset: 0x47B87, size: 0x8, addend: 0x0, symName: __ZN3std3sys3pal4unix17decode_error_kind17h7a8628d240588c97E, symObjAddr: 0x43C48, symBinAddr: 0x10002F28C, symSize: 0x30 }
  - { offset: 0x47BA1, size: 0x8, addend: 0x0, symName: __ZN3std3sys3pal4unix14abort_internal17h1f437a045e84c0acE, symObjAddr: 0x43C78, symBinAddr: 0x10002F2BC, symSize: 0xC }
  - { offset: 0x47C3F, size: 0x8, addend: 0x0, symName: __ZN3std3sys3pal6common14small_c_string24run_with_cstr_allocating17h0222687f57b5b8d8E, symObjAddr: 0x378C4, symBinAddr: 0x1000456F8, symSize: 0xAC }
  - { offset: 0x47D9B, size: 0x8, addend: 0x0, symName: __ZN3std3sys3pal6common14small_c_string24run_with_cstr_allocating17h89545bf18b96ebe8E, symObjAddr: 0x37BC8, symBinAddr: 0x1000457A4, symSize: 0x9C }
  - { offset: 0x47F0A, size: 0x8, addend: 0x0, symName: __ZN3std3sys3pal6common14small_c_string24run_with_cstr_allocating17hf540475ca51d3e7bE, symObjAddr: 0x37DE8, symBinAddr: 0x100045840, symSize: 0xC4 }
  - { offset: 0x48195, size: 0x8, addend: 0x0, symName: '__ZN69_$LT$std..sys..os_str..bytes..Slice$u20$as$u20$core..fmt..Display$GT$3fmt17h9ac75767c8ed01b2E', symObjAddr: 0x466F4, symBinAddr: 0x100030408, symSize: 0xA0 }
  - { offset: 0x48206, size: 0x8, addend: 0x0, symName: '__ZN3std3sys11personality3gcc14find_eh_action28_$u7b$$u7b$closure$u7d$$u7d$17heb526fe46b317879E', symObjAddr: 0x44DB8, symBinAddr: 0x100030070, symSize: 0x18 }
  - { offset: 0x4821A, size: 0x8, addend: 0x0, symName: '__ZN3std3sys11personality3gcc14find_eh_action28_$u7b$$u7b$closure$u7d$$u7d$17hdfacf1f5ab590eb6E', symObjAddr: 0x44DD0, symBinAddr: 0x100030088, symSize: 0x18 }
  - { offset: 0x4824A, size: 0x8, addend: 0x0, symName: _rust_eh_personality, symObjAddr: 0x44DE8, symBinAddr: 0x1000300A0, symSize: 0x368 }
  - { offset: 0x4857F, size: 0x8, addend: 0x0, symName: __ZN3std3sys11personality5dwarf2eh19read_encoded_offset17he9cb5faabb9c188bE, symObjAddr: 0x3801C, symBinAddr: 0x10002A564, symSize: 0x150 }
  - { offset: 0x486E2, size: 0x8, addend: 0x0, symName: '__ZN3std3sys9backtrace10_print_fmt28_$u7b$$u7b$closure$u7d$$u7d$17h1863ed5b66499a89E', symObjAddr: 0x38458, symBinAddr: 0x10002A9A0, symSize: 0x30 }
  - { offset: 0x4870B, size: 0x8, addend: 0x0, symName: '__ZN3std3sys9backtrace10_print_fmt28_$u7b$$u7b$closure$u7d$$u7d$17h49125cd88324db11E', symObjAddr: 0x38488, symBinAddr: 0x10002A9D0, symSize: 0x134 }
  - { offset: 0x4881F, size: 0x8, addend: 0x0, symName: '__ZN3std3sys9backtrace10_print_fmt28_$u7b$$u7b$closure$u7d$$u7d$28_$u7b$$u7b$closure$u7d$$u7d$17heb5be01c54158345E', symObjAddr: 0x385BC, symBinAddr: 0x10002AB04, symSize: 0x25C }
  - { offset: 0x48A5B, size: 0x8, addend: 0x0, symName: __ZN3std3sys9backtrace4lock17h6e02177f0f3558baE, symObjAddr: 0x3816C, symBinAddr: 0x10002A6B4, symSize: 0x70 }
  - { offset: 0x48BA4, size: 0x8, addend: 0x0, symName: __ZN3std3sys9backtrace13BacktraceLock5print17h115149c0b879e5c3E, symObjAddr: 0x381DC, symBinAddr: 0x10002A724, symSize: 0x54 }
  - { offset: 0x48BF1, size: 0x8, addend: 0x0, symName: '__ZN98_$LT$std..sys..backtrace..BacktraceLock..print..DisplayBacktrace$u20$as$u20$core..fmt..Display$GT$3fmt17h217270392019d164E', symObjAddr: 0x38230, symBinAddr: 0x10002A778, symSize: 0x228 }
  - { offset: 0x49173, size: 0x8, addend: 0x0, symName: __ZN3std3sys9backtrace26__rust_end_short_backtrace17h911de07218b69a6cE, symObjAddr: 0x38818, symBinAddr: 0x10002AD60, symSize: 0xC }
  - { offset: 0x4918D, size: 0x8, addend: 0x0, symName: __ZN3std3sys9backtrace15output_filename17h988a0b5399b264d6E, symObjAddr: 0x38830, symBinAddr: 0x10002AD6C, symSize: 0xFC }
  - { offset: 0x49351, size: 0x8, addend: 0x0, symName: '__ZN3std3sys4sync8once_box16OnceBox$LT$T$GT$10initialize17h482967fb77aa636aE', symObjAddr: 0x3899C, symBinAddr: 0x100045904, symSize: 0xEC }
  - { offset: 0x4963A, size: 0x8, addend: 0x0, symName: __ZN3std3sys4sync6rwlock5queue6RwLock21read_unlock_contended17ha1da939695eb68a4E, symObjAddr: 0x479D0, symBinAddr: 0x100045CB0, symSize: 0x50 }
  - { offset: 0x497AA, size: 0x8, addend: 0x0, symName: __ZN3std3sys4sync6rwlock5queue6RwLock16unlock_contended17hb1bda0f6c9583d94E, symObjAddr: 0x47A20, symBinAddr: 0x100045D00, symSize: 0x50 }
  - { offset: 0x49886, size: 0x8, addend: 0x0, symName: __ZN3std3sys4sync6rwlock5queue6RwLock12unlock_queue17h1e38a16940d3a0e6E, symObjAddr: 0x47B84, symBinAddr: 0x100030754, symSize: 0x1D8 }
  - { offset: 0x49FD3, size: 0x8, addend: 0x0, symName: __ZN3std3sys4sync6rwlock5queue9read_lock17h02feed94edb2ee18E, symObjAddr: 0x47710, symBinAddr: 0x100030728, symSize: 0x2C }
  - { offset: 0x4A0AE, size: 0x8, addend: 0x0, symName: __ZN3std3sys4sync4once5queue4Once4call17hc1cbcad9bb87275cE, symObjAddr: 0x47310, symBinAddr: 0x100045B50, symSize: 0x160 }
  - { offset: 0x4A1D6, size: 0x8, addend: 0x0, symName: __ZN3std3sys4sync4once5queue4wait17h58ee39f231bfccb9E, symObjAddr: 0x47470, symBinAddr: 0x1000304A8, symSize: 0x198 }
  - { offset: 0x4A752, size: 0x8, addend: 0x0, symName: '__ZN82_$LT$std..sys..sync..once..queue..WaiterQueue$u20$as$u20$core..ops..drop..Drop$GT$4drop17h45f863b67fd27f71E', symObjAddr: 0x47608, symBinAddr: 0x100030640, symSize: 0xE8 }
  - { offset: 0x4A9B0, size: 0x8, addend: 0x0, symName: '__ZN3std3sys12thread_local6native4lazy20Storage$LT$T$C$D$GT$10initialize17h61fa4697cd48c6f6E', symObjAddr: 0x47E24, symBinAddr: 0x100045D50, symSize: 0xC0 }
  - { offset: 0x4ABA6, size: 0x8, addend: 0x0, symName: __ZN3std3sys12thread_local6native4lazy7destroy17h26d4ae6c1bac34fbE, symObjAddr: 0x47EE4, symBinAddr: 0x10003092C, symSize: 0x54 }
  - { offset: 0x4AD14, size: 0x8, addend: 0x0, symName: __ZN3std3sys12thread_local5guard5apple6enable9run_dtors17h15022dedc81e5063E, symObjAddr: 0x4807C, symBinAddr: 0x100030AC4, symSize: 0x13C }
  - { offset: 0x4B26E, size: 0x8, addend: 0x0, symName: __ZN3std3sys12thread_local11destructors4list8register17h51fb0c77f8b321e6E, symObjAddr: 0x47F38, symBinAddr: 0x100030980, symSize: 0x144 }
  - { offset: 0x4B920, size: 0x8, addend: 0x0, symName: '__ZN80_$LT$std..io..Write..write_fmt..Adapter$LT$T$GT$$u20$as$u20$core..fmt..Write$GT$9write_str17h0698cdf4cfa713e8E', symObjAddr: 0x2D538, symBinAddr: 0x100028998, symSize: 0xD8 }
  - { offset: 0x4BA73, size: 0x8, addend: 0x0, symName: '__ZN80_$LT$std..io..Write..write_fmt..Adapter$LT$T$GT$$u20$as$u20$core..fmt..Write$GT$9write_str17h1c13ca75cd138050E', symObjAddr: 0x2D610, symBinAddr: 0x100028A70, symSize: 0x50 }
  - { offset: 0x4BA9D, size: 0x8, addend: 0x0, symName: '__ZN80_$LT$std..io..Write..write_fmt..Adapter$LT$T$GT$$u20$as$u20$core..fmt..Write$GT$9write_str17h58a4ca428f95c900E', symObjAddr: 0x2D738, symBinAddr: 0x100028AC0, symSize: 0xD0 }
  - { offset: 0x4BC53, size: 0x8, addend: 0x0, symName: '__ZN80_$LT$std..io..Write..write_fmt..Adapter$LT$T$GT$$u20$as$u20$core..fmt..Write$GT$9write_str17h6eb5a36b1832c95eE', symObjAddr: 0x2D808, symBinAddr: 0x100028B90, symSize: 0x80 }
  - { offset: 0x4BDD9, size: 0x8, addend: 0x0, symName: __ZN3std2io5Write9write_all17h87bc481c06d6b6c7E, symObjAddr: 0x2CC10, symBinAddr: 0x100028070, symSize: 0xB8 }
  - { offset: 0x4BF09, size: 0x8, addend: 0x0, symName: __ZN3std2io5Write18write_all_vectored17h0d3be626dc41da2eE, symObjAddr: 0x2CCC8, symBinAddr: 0x100028128, symSize: 0x264 }
  - { offset: 0x4C3B1, size: 0x8, addend: 0x0, symName: __ZN3std2io5Write18write_all_vectored17h0f11e99192ac0da3E, symObjAddr: 0x2CF2C, symBinAddr: 0x10002838C, symSize: 0x2A0 }
  - { offset: 0x4C84F, size: 0x8, addend: 0x0, symName: __ZN3std2io5Write9write_fmt17h6564db7565ec4928E, symObjAddr: 0x2D1CC, symBinAddr: 0x10002862C, symSize: 0x124 }
  - { offset: 0x4CA63, size: 0x8, addend: 0x0, symName: __ZN3std2io5Write9write_fmt17h6e471a53cbe47e27E, symObjAddr: 0x2D2F0, symBinAddr: 0x100028750, symSize: 0x124 }
  - { offset: 0x4CC77, size: 0x8, addend: 0x0, symName: __ZN3std2io5Write9write_fmt17hb32eaafcfd249a19E, symObjAddr: 0x2D414, symBinAddr: 0x100028874, symSize: 0x124 }
  - { offset: 0x4CEA4, size: 0x8, addend: 0x0, symName: '__ZN3std2io5impls74_$LT$impl$u20$std..io..Write$u20$for$u20$alloc..vec..Vec$LT$u8$C$A$GT$$GT$5write17hf1a6df91b3a9c331E', symObjAddr: 0x2731C, symBinAddr: 0x100027404, symSize: 0x84 }
  - { offset: 0x4CFE9, size: 0x8, addend: 0x0, symName: '__ZN3std2io5impls74_$LT$impl$u20$std..io..Write$u20$for$u20$alloc..vec..Vec$LT$u8$C$A$GT$$GT$14write_vectored17h935681c1f031c204E', symObjAddr: 0x273A0, symBinAddr: 0x100027488, symSize: 0x174 }
  - { offset: 0x4D236, size: 0x8, addend: 0x0, symName: '__ZN3std2io5impls74_$LT$impl$u20$std..io..Write$u20$for$u20$alloc..vec..Vec$LT$u8$C$A$GT$$GT$17is_write_vectored17h4055b148f544ec6cE', symObjAddr: 0x27514, symBinAddr: 0x1000275FC, symSize: 0x14 }
  - { offset: 0x4D251, size: 0x8, addend: 0x0, symName: '__ZN3std2io5impls74_$LT$impl$u20$std..io..Write$u20$for$u20$alloc..vec..Vec$LT$u8$C$A$GT$$GT$9write_all17h8667482891c5bc01E', symObjAddr: 0x27528, symBinAddr: 0x100027610, symSize: 0x80 }
  - { offset: 0x4D38F, size: 0x8, addend: 0x0, symName: '__ZN3std2io5impls74_$LT$impl$u20$std..io..Write$u20$for$u20$alloc..vec..Vec$LT$u8$C$A$GT$$GT$5flush17h1aa70c4ce0391c44E', symObjAddr: 0x275A8, symBinAddr: 0x100027690, symSize: 0x14 }
  - { offset: 0x4D567, size: 0x8, addend: 0x0, symName: __ZN3std2io5error14repr_bitpacked11decode_repr17h37cbf447dd36b64bE, symObjAddr: 0x26A7C, symBinAddr: 0x100026EF8, symSize: 0x64 }
  - { offset: 0x4D5D6, size: 0x8, addend: 0x0, symName: '__ZN58_$LT$std..io..error..Error$u20$as$u20$core..fmt..Debug$GT$3fmt17h4ed4286e752207faE', symObjAddr: 0x26AE0, symBinAddr: 0x100026F5C, symSize: 0x10 }
  - { offset: 0x4D609, size: 0x8, addend: 0x0, symName: '__ZN3std2io5error83_$LT$impl$u20$core..fmt..Debug$u20$for$u20$std..io..error..repr_bitpacked..Repr$GT$3fmt17h65ae83bc7dc9681bE', symObjAddr: 0x26D88, symBinAddr: 0x100026F6C, symSize: 0x294 }
  - { offset: 0x4D854, size: 0x8, addend: 0x0, symName: '__ZN60_$LT$std..io..error..Error$u20$as$u20$core..fmt..Display$GT$3fmt17h9bd80ee0c1811a25E', symObjAddr: 0x2701C, symBinAddr: 0x100027200, symSize: 0x204 }
  - { offset: 0x4DAB3, size: 0x8, addend: 0x0, symName: '__ZN62_$LT$std..io..error..ErrorKind$u20$as$u20$core..fmt..Debug$GT$3fmt17h219a5c9d2c7eda43E', symObjAddr: 0x3C098, symBinAddr: 0x10002C8C0, symSize: 0x34 }
  - { offset: 0x4DAEB, size: 0x8, addend: 0x0, symName: '__ZN3std2io8buffered9bufwriter18BufWriter$LT$W$GT$9flush_buf17h4bdccd2184fd8b56E', symObjAddr: 0x25FE4, symBinAddr: 0x100026CF4, symSize: 0x204 }
  - { offset: 0x4E0A1, size: 0x8, addend: 0x0, symName: '__ZN3std2io8buffered9bufwriter18BufWriter$LT$W$GT$14write_all_cold17h03d13fe4cf302958E', symObjAddr: 0x26374, symBinAddr: 0x1000454F8, symSize: 0x128 }
  - { offset: 0x4E4CF, size: 0x8, addend: 0x0, symName: '__ZN61_$LT$$RF$std..io..stdio..Stdout$u20$as$u20$std..io..Write$GT$9write_fmt17h14426c11ecd17a4cE', symObjAddr: 0x2A280, symBinAddr: 0x1000276A4, symSize: 0x18C }
  - { offset: 0x4E8C9, size: 0x8, addend: 0x0, symName: '__ZN61_$LT$std..io..stdio..StdoutLock$u20$as$u20$std..io..Write$GT$9write_all17hdf550e962fae6ee2E', symObjAddr: 0x2A744, symBinAddr: 0x100027830, symSize: 0x268 }
  - { offset: 0x4F0A4, size: 0x8, addend: 0x0, symName: __ZN3std2io5stdio6Stderr4lock17ha6b178440672670eE, symObjAddr: 0x2ACBC, symBinAddr: 0x100027A98, symSize: 0xF0 }
  - { offset: 0x4F394, size: 0x8, addend: 0x0, symName: __ZN3std2io5stdio22try_set_output_capture17h3c34954bc62c0e61E, symObjAddr: 0x2BA8C, symBinAddr: 0x100027B88, symSize: 0xF4 }
  - { offset: 0x4F5E7, size: 0x8, addend: 0x0, symName: __ZN3std2io5stdio31print_to_buffer_if_capture_used17h604f8acf6a08e2ebE, symObjAddr: 0x2BB80, symBinAddr: 0x100027C7C, symSize: 0x20C }
  - { offset: 0x4FCF2, size: 0x8, addend: 0x0, symName: __ZN3std2io5stdio6_print17h6200d46cef53dee1E, symObjAddr: 0x2BE5C, symBinAddr: 0x100027E88, symSize: 0xE4 }
  - { offset: 0x4FE57, size: 0x8, addend: 0x0, symName: __ZN3std2io19default_read_to_end16small_probe_read17heb774478ee1d979dE, symObjAddr: 0x2CA8C, symBinAddr: 0x100027F6C, symSize: 0x104 }
  - { offset: 0x50095, size: 0x8, addend: 0x0, symName: '__ZN3std4sync6poison4once4Once15call_once_force28_$u7b$$u7b$closure$u7d$$u7d$17hb663b4fc9d65cdd9E', symObjAddr: 0x36574, symBinAddr: 0x10002A484, symSize: 0x60 }
  - { offset: 0x50177, size: 0x8, addend: 0x0, symName: '__ZN3std4sync6poison4once4Once15call_once_force28_$u7b$$u7b$closure$u7d$$u7d$17hdc9b4573ce8ff5c2E', symObjAddr: 0x365D4, symBinAddr: 0x10002A4E4, symSize: 0x80 }
  - { offset: 0x502E5, size: 0x8, addend: 0x0, symName: '__ZN3std4sync6poison4once4Once9call_once28_$u7b$$u7b$closure$u7d$$u7d$17h972e10e961241d2eE', symObjAddr: 0x36114, symBinAddr: 0x10002A228, symSize: 0x25C }
  - { offset: 0x50D38, size: 0x8, addend: 0x0, symName: '__ZN3std4sync9once_lock17OnceLock$LT$T$GT$10initialize17h5a4e2f750c24f788E', symObjAddr: 0x37008, symBinAddr: 0x10004562C, symSize: 0x64 }
  - { offset: 0x50D63, size: 0x8, addend: 0x0, symName: '__ZN3std4sync9once_lock17OnceLock$LT$T$GT$10initialize17h5a4e2f750c24f788E', symObjAddr: 0x37008, symBinAddr: 0x10004562C, symSize: 0x64 }
  - { offset: 0x50D77, size: 0x8, addend: 0x0, symName: '__ZN3std4sync9once_lock17OnceLock$LT$T$GT$10initialize17h5a4e2f750c24f788E', symObjAddr: 0x37008, symBinAddr: 0x10004562C, symSize: 0x64 }
  - { offset: 0x50D8B, size: 0x8, addend: 0x0, symName: '__ZN3std4sync9once_lock17OnceLock$LT$T$GT$10initialize17h5a4e2f750c24f788E', symObjAddr: 0x37008, symBinAddr: 0x10004562C, symSize: 0x64 }
  - { offset: 0x50DA1, size: 0x8, addend: 0x0, symName: '__ZN3std4sync9once_lock17OnceLock$LT$T$GT$10initialize17hde8bf60cb9cf1a08E', symObjAddr: 0x3706C, symBinAddr: 0x100045690, symSize: 0x68 }
  - { offset: 0x50DCC, size: 0x8, addend: 0x0, symName: '__ZN3std4sync9once_lock17OnceLock$LT$T$GT$10initialize17hde8bf60cb9cf1a08E', symObjAddr: 0x3706C, symBinAddr: 0x100045690, symSize: 0x68 }
  - { offset: 0x50DE0, size: 0x8, addend: 0x0, symName: '__ZN3std4sync9once_lock17OnceLock$LT$T$GT$10initialize17hde8bf60cb9cf1a08E', symObjAddr: 0x3706C, symBinAddr: 0x100045690, symSize: 0x68 }
  - { offset: 0x50DF4, size: 0x8, addend: 0x0, symName: '__ZN3std4sync9once_lock17OnceLock$LT$T$GT$10initialize17hde8bf60cb9cf1a08E', symObjAddr: 0x3706C, symBinAddr: 0x100045690, symSize: 0x68 }
  - { offset: 0x50F3F, size: 0x8, addend: 0x0, symName: __ZN3std2rt19lang_start_internal17h95cf27b851151b9cE, symObjAddr: 0x1EEA4, symBinAddr: 0x100025AE4, symSize: 0x684 }
  - { offset: 0x51B6B, size: 0x8, addend: 0x0, symName: __ZN3std12backtrace_rs9symbolize5gimli7Context3new17h596fdfe772dc2bb6E, symObjAddr: 0x482F4, symBinAddr: 0x100030C8C, symSize: 0x2410 }
  - { offset: 0x55A2C, size: 0x8, addend: 0x0, symName: __ZN3std12backtrace_rs9symbolize5gimli7Context11find_frames17h5933b96d93a6487fE, symObjAddr: 0x4A704, symBinAddr: 0x10003309C, symSize: 0x37C }
  - { offset: 0x55EC0, size: 0x8, addend: 0x0, symName: __ZN3std12backtrace_rs9symbolize5gimli5macho6Object5parse17h7c99ba302784e02bE, symObjAddr: 0x4D518, symBinAddr: 0x100035E80, symSize: 0xBD0 }
  - { offset: 0x57D7F, size: 0x8, addend: 0x0, symName: __ZN3std12backtrace_rs9symbolize5gimli5macho6Object7section17h7775decf80db3f1dE, symObjAddr: 0x4E0E8, symBinAddr: 0x100036A50, symSize: 0x3A0 }
  - { offset: 0x58255, size: 0x8, addend: 0x0, symName: __ZN3std12backtrace_rs9symbolize5gimli5macho11find_header17hcafb8c4177e72185E, symObjAddr: 0x4D344, symBinAddr: 0x100035CAC, symSize: 0x1D4 }
  - { offset: 0x58958, size: 0x8, addend: 0x0, symName: __ZN3std12backtrace_rs9symbolize5gimli4mmap17h52426abb42b033dbE, symObjAddr: 0x4AA80, symBinAddr: 0x100033418, symSize: 0x160 }
  - { offset: 0x58F6E, size: 0x8, addend: 0x0, symName: __ZN3std12backtrace_rs9symbolize5gimli7resolve17h4e500df68d74bbd0E, symObjAddr: 0x4ABE0, symBinAddr: 0x100033578, symSize: 0x2734 }
  - { offset: 0x5EF79, size: 0x8, addend: 0x0, symName: __ZN3std12backtrace_rs9symbolize6Symbol4name17hfe1d12d8092fe441E, symObjAddr: 0x3B724, symBinAddr: 0x10002C20C, symSize: 0xE4 }
  - { offset: 0x5F0B4, size: 0x8, addend: 0x0, symName: '__ZN79_$LT$std..backtrace_rs..symbolize..SymbolName$u20$as$u20$core..fmt..Display$GT$3fmt17hebc8fecc1f34ea4cE', symObjAddr: 0x3B948, symBinAddr: 0x10002C2F0, symSize: 0x100 }
  - { offset: 0x5F1F2, size: 0x8, addend: 0x0, symName: __ZN3std12backtrace_rs9backtrace9libunwind5trace8trace_fn17h8dbf4a7a3c414c4fE, symObjAddr: 0x482AC, symBinAddr: 0x100030C44, symSize: 0x48 }
  - { offset: 0x5F2D1, size: 0x8, addend: 0x0, symName: __ZN3std12backtrace_rs5print17BacktraceFrameFmt21print_raw_with_column17h4b2c8f5f934c00c0E, symObjAddr: 0x3BB48, symBinAddr: 0x10002C3F0, symSize: 0x4D0 }
  - { offset: 0x5F5D5, size: 0x8, addend: 0x0, symName: __ZN3std6thread7current16try_with_current17h38cb00b0189d4132E, symObjAddr: 0x1F754, symBinAddr: 0x100026168, symSize: 0x98 }
  - { offset: 0x5F709, size: 0x8, addend: 0x0, symName: __ZN3std6thread7current12init_current17hb7b435bd17801980E, symObjAddr: 0x1F900, symBinAddr: 0x100045344, symSize: 0x17C }
  - { offset: 0x5FAD5, size: 0x8, addend: 0x0, symName: __ZN3std6thread6Thread3new17h37ed5d6af114daceE, symObjAddr: 0x20814, symBinAddr: 0x1000262FC, symSize: 0x164 }
  - { offset: 0x5FFA0, size: 0x8, addend: 0x0, symName: '__ZN118_$LT$std..thread..thread_name_string..ThreadNameString$u20$as$u20$core..convert..From$LT$alloc..string..String$GT$$GT$4from17h83ebc56d52812e83E', symObjAddr: 0x20718, symBinAddr: 0x100026200, symSize: 0xFC }
  - { offset: 0x6018B, size: 0x8, addend: 0x0, symName: __ZN3std6thread8ThreadId3new9exhausted17h1c0c206286c216f1E, symObjAddr: 0x206E0, symBinAddr: 0x1000454C0, symSize: 0x38 }
  - { offset: 0x60274, size: 0x8, addend: 0x0, symName: __ZN3std5panic19get_backtrace_style17hb0947c7d43e173b3E, symObjAddr: 0x31B78, symBinAddr: 0x100028C10, symSize: 0x10C }
  - { offset: 0x60292, size: 0x8, addend: 0x0, symName: __ZN3std5panic19get_backtrace_style17hb0947c7d43e173b3E, symObjAddr: 0x31B78, symBinAddr: 0x100028C10, symSize: 0x10C }
  - { offset: 0x602A7, size: 0x8, addend: 0x0, symName: __ZN3std5panic19get_backtrace_style17hb0947c7d43e173b3E, symObjAddr: 0x31B78, symBinAddr: 0x100028C10, symSize: 0x10C }
  - { offset: 0x606A1, size: 0x8, addend: 0x0, symName: __ZN3std3env11current_dir17h378d2e00353b8c55E, symObjAddr: 0x21D9C, symBinAddr: 0x100026460, symSize: 0x1D0 }
  - { offset: 0x60A1A, size: 0x8, addend: 0x0, symName: __ZN3std3env7vars_os17h852cf544c003c314E, symObjAddr: 0x21F7C, symBinAddr: 0x100026630, symSize: 0x314 }
  - { offset: 0x6109D, size: 0x8, addend: 0x0, symName: __ZN3std3env7_var_os17h91cf52b19c1ae9d5E, symObjAddr: 0x22698, symBinAddr: 0x100026944, symSize: 0x160 }
  - { offset: 0x61360, size: 0x8, addend: 0x0, symName: __ZN3std2fs11OpenOptions5_open17h060c4979cd359a16E, symObjAddr: 0x24BC4, symBinAddr: 0x100026AA4, symSize: 0x250 }
  - { offset: 0x615A7, size: 0x8, addend: 0x0, symName: __ZN3std5alloc24default_alloc_error_hook17h2ab9053c5916c535E, symObjAddr: 0x39CF4, symBinAddr: 0x10002AE68, symSize: 0x13C }
  - { offset: 0x617EA, size: 0x8, addend: 0x0, symName: ___rdl_alloc, symObjAddr: 0x39E30, symBinAddr: 0x10002AFA4, symSize: 0x6C }
  - { offset: 0x61866, size: 0x8, addend: 0x0, symName: ___rdl_dealloc, symObjAddr: 0x39E9C, symBinAddr: 0x10002B010, symSize: 0x10 }
  - { offset: 0x61896, size: 0x8, addend: 0x0, symName: ___rdl_realloc, symObjAddr: 0x39EAC, symBinAddr: 0x10002B020, symSize: 0xB0 }
  - { offset: 0x61968, size: 0x8, addend: 0x0, symName: ___rdl_alloc_zeroed, symObjAddr: 0x39F5C, symBinAddr: 0x10002B0D0, symSize: 0x90 }
  - { offset: 0x61A06, size: 0x8, addend: 0x0, symName: __ZN3std5alloc8rust_oom17hb46c5aeb63fa3cb5E, symObjAddr: 0x481B8, symBinAddr: 0x100030C00, symSize: 0x2C }
  - { offset: 0x61A55, size: 0x8, addend: 0x0, symName: ___rg_oom, symObjAddr: 0x481E4, symBinAddr: 0x100030C2C, symSize: 0x18 }
  - { offset: 0x61B9C, size: 0x8, addend: 0x0, symName: '__ZN5gimli4read4unit32AttributeValue$LT$R$C$Offset$GT$11udata_value17h2b61cc9b6a98fb32E', symObjAddr: 0x14DE0, symBinAddr: 0x10001BFF4, symSize: 0x90 }
  - { offset: 0x61BF7, size: 0x8, addend: 0x0, symName: __ZN5gimli4read4unit15parse_attribute17h49f957a62d462029E, symObjAddr: 0x130AC, symBinAddr: 0x10001A2C0, symSize: 0xF74 }
  - { offset: 0x648EA, size: 0x8, addend: 0x0, symName: __ZN5gimli4read4unit15skip_attributes17h31562773efeee2f1E, symObjAddr: 0x14020, symBinAddr: 0x10001B234, symSize: 0x52C }
  - { offset: 0x6530C, size: 0x8, addend: 0x0, symName: '__ZN5gimli4read4unit18Attribute$LT$R$GT$5value17hbc90a819c686a39aE', symObjAddr: 0x1454C, symBinAddr: 0x10001B760, symSize: 0x5DC }
  - { offset: 0x658B1, size: 0x8, addend: 0x0, symName: '__ZN5gimli4read4unit22EntriesCursor$LT$R$GT$10next_entry17hdf28d3cec3327cb6E', symObjAddr: 0x14B28, symBinAddr: 0x10001BD3C, symSize: 0x2B8 }
  - { offset: 0x65EA7, size: 0x8, addend: 0x0, symName: '__ZN5gimli4read4unit33DebugInfoUnitHeadersIter$LT$R$GT$4next17h34712ebaabdffee4E', symObjAddr: 0x14E70, symBinAddr: 0x10001C084, symSize: 0x524 }
  - { offset: 0x66FE0, size: 0x8, addend: 0x0, symName: '__ZN90_$LT$gimli..read..unit..AttributeValue$LT$R$C$Offset$GT$$u20$as$u20$core..clone..Clone$GT$5clone17h20eda0c245e8425dE', symObjAddr: 0x19914, symBinAddr: 0x100020670, symSize: 0x68 }
  - { offset: 0x67231, size: 0x8, addend: 0x0, symName: __ZN5gimli4read6reader6Reader11read_offset17hb66bf69f998efb74E, symObjAddr: 0x179B8, symBinAddr: 0x10001EBCC, symSize: 0xBC }
  - { offset: 0x6746D, size: 0x8, addend: 0x0, symName: __ZN5gimli4read6reader6Reader12read_sleb12817hd93e25793436fd15E, symObjAddr: 0x17A74, symBinAddr: 0x10001EC88, symSize: 0x21C }
  - { offset: 0x6755D, size: 0x8, addend: 0x0, symName: __ZN5gimli4read6reader6Reader12read_uleb12817ha415c724c08e32b4E, symObjAddr: 0x17C90, symBinAddr: 0x10001EEA4, symSize: 0xB0 }
  - { offset: 0x67613, size: 0x8, addend: 0x0, symName: __ZN5gimli4read6reader6Reader17read_sized_offset17hbf387c98074d1971E, symObjAddr: 0x17D40, symBinAddr: 0x10001EF54, symSize: 0xEC }
  - { offset: 0x67A26, size: 0x8, addend: 0x0, symName: __ZN5gimli4read4line13parse_file_v517hcd59a31a0bc27fa9E, symObjAddr: 0x11F1C, symBinAddr: 0x100019130, symSize: 0x2B4 }
  - { offset: 0x67B9E, size: 0x8, addend: 0x0, symName: __ZN5gimli4read4line15FileEntryFormat5parse17he68be02eb21a6f6cE, symObjAddr: 0x121D0, symBinAddr: 0x1000193E4, symSize: 0x370 }
  - { offset: 0x683C5, size: 0x8, addend: 0x0, symName: __ZN5gimli4read4line15parse_attribute17h6dcb28bb0d8f0d55E, symObjAddr: 0x12540, symBinAddr: 0x100019754, symSize: 0x86C }
  - { offset: 0x69B62, size: 0x8, addend: 0x0, symName: __ZN5gimli4read4line18parse_directory_v517h7ed9e48bb2fa518bE, symObjAddr: 0x12DAC, symBinAddr: 0x100019FC0, symSize: 0xE8 }
  - { offset: 0x69BF3, size: 0x8, addend: 0x0, symName: '__ZN5gimli4read4line27FileEntry$LT$R$C$Offset$GT$5parse17h0cf5e73c1698de2fE', symObjAddr: 0x12E94, symBinAddr: 0x10001A0A8, symSize: 0x218 }
  - { offset: 0x6A319, size: 0x8, addend: 0x0, symName: '__ZN5gimli4read5dwarf14Dwarf$LT$R$GT$11attr_string17hc40cc697c7ad324fE', symObjAddr: 0x17104, symBinAddr: 0x10001E318, symSize: 0x1E8 }
  - { offset: 0x6AB67, size: 0x8, addend: 0x0, symName: '__ZN5gimli4read5dwarf13Unit$LT$R$GT$3new17h9c8abef5d8c50a6dE', symObjAddr: 0x15394, symBinAddr: 0x10001C5A8, symSize: 0x1D70 }
  - { offset: 0x6E779, size: 0x8, addend: 0x0, symName: '__ZN5gimli4read5index18UnitIndex$LT$R$GT$5parse17haa9f95b067464b66E', symObjAddr: 0x172EC, symBinAddr: 0x10001E500, symSize: 0x6CC }
  - { offset: 0x6ED40, size: 0x8, addend: 0x0, symName: '__ZN5gimli4read7aranges30ArangeHeader$LT$R$C$Offset$GT$5parse17h20619b15205da501E', symObjAddr: 0x17E2C, symBinAddr: 0x10001F040, symSize: 0x2A8 }
  - { offset: 0x6F5F7, size: 0x8, addend: 0x0, symName: '__ZN5gimli4read8rnglists20RngListIter$LT$R$GT$4next17h7e27fd598c933045E', symObjAddr: 0x180D4, symBinAddr: 0x10001F2E8, symSize: 0xC74 }
  - { offset: 0x72536, size: 0x8, addend: 0x0, symName: '__ZN9addr2line8function17Function$LT$R$GT$14parse_children17he1d2dd4eaf8a7357E', symObjAddr: 0x1DDF8, symBinAddr: 0x100024A9C, symSize: 0xE88 }
  - { offset: 0x73D75, size: 0x8, addend: 0x0, symName: __ZN9addr2line8function10name_entry17hd712c6a5749c0b0eE, symObjAddr: 0x1DA8C, symBinAddr: 0x100024730, symSize: 0x36C }
  - { offset: 0x7423E, size: 0x8, addend: 0x0, symName: __ZN9addr2line8function9name_attr17h41adbb1d91e81904E, symObjAddr: 0x1EC80, symBinAddr: 0x100025924, symSize: 0x1C0 }
  - { offset: 0x74461, size: 0x8, addend: 0x0, symName: '__ZN9addr2line4unit16ResUnit$LT$R$GT$25find_function_or_location17h353b18e237b7b2c9E', symObjAddr: 0x1BBAC, symBinAddr: 0x100022850, symSize: 0x39C }
  - { offset: 0x749C6, size: 0x8, addend: 0x0, symName: '__ZN9addr2line4unit16ResUnit$LT$R$GT$25find_function_or_location28_$u7b$$u7b$closure$u7d$$u7d$17h6a4d5a45c96dd11cE', symObjAddr: 0x1BF48, symBinAddr: 0x100022BEC, symSize: 0x1490 }
  - { offset: 0x77302, size: 0x8, addend: 0x0, symName: '__ZN9addr2line16Context$LT$R$GT$9find_unit17h672f8cef0a6cef5fE', symObjAddr: 0x19A34, symBinAddr: 0x1000206D8, symSize: 0x168 }
  - { offset: 0x77499, size: 0x8, addend: 0x0, symName: __ZN9addr2line4line11render_file17h56c7df47359e37daE, symObjAddr: 0x19B9C, symBinAddr: 0x100020840, symSize: 0x4C0 }
  - { offset: 0x77DAF, size: 0x8, addend: 0x0, symName: __ZN9addr2line4line9LazyLines6borrow17ha6d975a019e23e93E, symObjAddr: 0x1A05C, symBinAddr: 0x100020D00, symSize: 0x1B50 }
  - { offset: 0x7B1FA, size: 0x8, addend: 0x0, symName: '__ZN9addr2line6lookup30LoopingLookup$LT$T$C$L$C$F$GT$10new_lookup17h590d4f5c6451cf3cE', symObjAddr: 0x1D654, symBinAddr: 0x1000242F8, symSize: 0x438 }
  - { offset: 0x7B799, size: 0x8, addend: 0x0, symName: '__ZN9addr2line5frame18FrameIter$LT$R$GT$4next17h4512ac685f8f4647E', symObjAddr: 0x1D3D8, symBinAddr: 0x10002407C, symSize: 0x27C }
  - { offset: 0x7BC39, size: 0x8, addend: 0x0, symName: __ZN6object4read7archive13ArchiveMember5parse17he23e9c7a2dcdb639E, symObjAddr: 0x19204, symBinAddr: 0x10001FFC4, symSize: 0x41C }
  - { offset: 0x7C7CB, size: 0x8, addend: 0x0, symName: __ZN6object4read7archive23parse_bsd_extended_name17hc2b3d25eef9eeec9E, symObjAddr: 0x19620, symBinAddr: 0x1000203E0, symSize: 0x250 }
  - { offset: 0x7D5F0, size: 0x8, addend: 0x0, symName: _OUTLINED_FUNCTION_0, symObjAddr: 0x4E488, symBinAddr: 0x100036DF0, symSize: 0x24 }
  - { offset: 0x7D608, size: 0x8, addend: 0x0, symName: _OUTLINED_FUNCTION_1, symObjAddr: 0x4E4AC, symBinAddr: 0x100036E14, symSize: 0x8 }
  - { offset: 0x7D620, size: 0x8, addend: 0x0, symName: _OUTLINED_FUNCTION_2, symObjAddr: 0x4E4B4, symBinAddr: 0x100036E1C, symSize: 0x10 }
  - { offset: 0x7D638, size: 0x8, addend: 0x0, symName: _OUTLINED_FUNCTION_3, symObjAddr: 0x4E4C4, symBinAddr: 0x100036E2C, symSize: 0x8 }
  - { offset: 0x7D650, size: 0x8, addend: 0x0, symName: _OUTLINED_FUNCTION_4, symObjAddr: 0x4E4CC, symBinAddr: 0x100036E34, symSize: 0x8 }
  - { offset: 0x7D668, size: 0x8, addend: 0x0, symName: _OUTLINED_FUNCTION_5, symObjAddr: 0x4E4D4, symBinAddr: 0x100036E3C, symSize: 0xC }
  - { offset: 0x7D69E, size: 0x8, addend: 0x0, symName: '__ZN4core3ptr49drop_in_place$LT$panic_unwind..imp..Exception$GT$17h82c2656372694058E', symObjAddr: 0x0, symBinAddr: 0x100036E48, symSize: 0x78 }
  - { offset: 0x7D6C4, size: 0x8, addend: 0x0, symName: '__ZN4core3ptr49drop_in_place$LT$panic_unwind..imp..Exception$GT$17h82c2656372694058E', symObjAddr: 0x0, symBinAddr: 0x100036E48, symSize: 0x78 }
  - { offset: 0x7D7CB, size: 0x8, addend: 0x0, symName: '__ZN4core3ptr74drop_in_place$LT$alloc..boxed..Box$LT$panic_unwind..imp..Exception$GT$$GT$17h401304109b323233E', symObjAddr: 0x78, symBinAddr: 0x100036EC0, symSize: 0x8C }
  - { offset: 0x7DAA1, size: 0x8, addend: 0x0, symName: __ZN12panic_unwind3imp5panic17exception_cleanup17h71dcf2e4fc4aa769E, symObjAddr: 0x214, symBinAddr: 0x10003705C, symSize: 0x18 }
  - { offset: 0x7DABD, size: 0x8, addend: 0x0, symName: ___rust_panic_cleanup, symObjAddr: 0x104, symBinAddr: 0x100036F4C, symSize: 0x68 }
  - { offset: 0x7DB5F, size: 0x8, addend: 0x0, symName: ___rust_start_panic, symObjAddr: 0x16C, symBinAddr: 0x100036FB4, symSize: 0xA8 }
  - { offset: 0x7DD08, size: 0x8, addend: 0x0, symName: '__ZN69_$LT$core..alloc..layout..LayoutError$u20$as$u20$core..fmt..Debug$GT$3fmt17h847390e718c251f1E', symObjAddr: 0x1C0, symBinAddr: 0x10003F82C, symSize: 0x20 }
  - { offset: 0x7E063, size: 0x8, addend: 0x0, symName: __ZN5alloc7raw_vec17capacity_overflow17hf0a187d8de84083bE, symObjAddr: 0x1E0, symBinAddr: 0x10003F84C, symSize: 0x34 }
  - { offset: 0x7E0A5, size: 0x8, addend: 0x0, symName: '__ZN5alloc7raw_vec19RawVec$LT$T$C$A$GT$8grow_one17h207f2a977af11d07E', symObjAddr: 0x214, symBinAddr: 0x10003F880, symSize: 0xAC }
  - { offset: 0x7E229, size: 0x8, addend: 0x0, symName: '__ZN5alloc7raw_vec20RawVecInner$LT$A$GT$7reserve21do_reserve_and_handle17hf907109019113e80E', symObjAddr: 0x2C0, symBinAddr: 0x100045EC4, symSize: 0xB0 }
  - { offset: 0x7E32B, size: 0x8, addend: 0x0, symName: __ZN5alloc7raw_vec11finish_grow17h91993be477efd13cE, symObjAddr: 0x370, symBinAddr: 0x100045F74, symSize: 0x88 }
  - { offset: 0x7E3A1, size: 0x8, addend: 0x0, symName: __ZN5alloc7raw_vec12handle_error17h7f0cbdf2396d2d52E, symObjAddr: 0x3F8, symBinAddr: 0x100045FFC, symSize: 0x18 }
  - { offset: 0x7E49B, size: 0x8, addend: 0x0, symName: __ZN5alloc5alloc18handle_alloc_error17h14470fb7117d6c37E, symObjAddr: 0x410, symBinAddr: 0x100046014, symSize: 0x18 }
  - { offset: 0x7E526, size: 0x8, addend: 0x0, symName: '__ZN93_$LT$alloc..collections..btree..mem..replace..PanicGuard$u20$as$u20$core..ops..drop..Drop$GT$4drop17h4dbb92e5b56c174aE', symObjAddr: 0xE10, symBinAddr: 0x10003F92C, symSize: 0xC }
  - { offset: 0x7E676, size: 0x8, addend: 0x0, symName: __ZN5alloc6string6String15from_utf8_lossy17h7d31b366d97043dfE, symObjAddr: 0x2F28, symBinAddr: 0x10003FC3C, symSize: 0x238 }
  - { offset: 0x7EBC3, size: 0x8, addend: 0x0, symName: '__ZN98_$LT$alloc..string..String$u20$as$u20$core..convert..From$LT$alloc..borrow..Cow$LT$str$GT$$GT$$GT$4from17hde800050cd4f6a42E', symObjAddr: 0x4D48, symBinAddr: 0x10003FE74, symSize: 0xBC }
  - { offset: 0x7EE23, size: 0x8, addend: 0x0, symName: '__ZN72_$LT$$RF$str$u20$as$u20$alloc..ffi..c_str..CString..new..SpecNewImpl$GT$13spec_new_impl17h37cb9b6572c7448bE', symObjAddr: 0xEA8, symBinAddr: 0x10003F938, symSize: 0x11C }
  - { offset: 0x7F064, size: 0x8, addend: 0x0, symName: __ZN5alloc3ffi5c_str7CString19_from_vec_unchecked17h8dccb886daea0b28E, symObjAddr: 0x1110, symBinAddr: 0x10003FA54, symSize: 0x160 }
  - { offset: 0x7F390, size: 0x8, addend: 0x0, symName: '__ZN5alloc3ffi5c_str131_$LT$impl$u20$core..convert..From$LT$$RF$core..ffi..c_str..CStr$GT$$u20$for$u20$alloc..boxed..Box$LT$core..ffi..c_str..CStr$GT$$GT$4from17hdf0b8dc43b6e7f83E', symObjAddr: 0x15EC, symBinAddr: 0x10003FBB4, symSize: 0x88 }
  - { offset: 0x7F491, size: 0x8, addend: 0x0, symName: __ZN5alloc4sync32arcinner_layout_for_value_layout17h83c76efa9058bc15E, symObjAddr: 0x516C, symBinAddr: 0x10003FF30, symSize: 0x74 }
  - { offset: 0x7F795, size: 0x8, addend: 0x0, symName: __ZN4core3num22from_ascii_radix_panic8do_panic7runtime17hbd3939a7be6472a6E, symObjAddr: 0x17130, symBinAddr: 0x1000443A4, symSize: 0x44 }
  - { offset: 0x7F7C8, size: 0x8, addend: 0x0, symName: __ZN4core3num22from_ascii_radix_panic17h997eb0f270b6b988E, symObjAddr: 0x4294, symBinAddr: 0x10004602C, symSize: 0xC }
  - { offset: 0x7FB77, size: 0x8, addend: 0x0, symName: __ZN4core5slice5index26slice_start_index_len_fail8do_panic7runtime17h9ddc6a7ecebba1e9E, symObjAddr: 0x1B12C, symBinAddr: 0x100044D1C, symSize: 0x50 }
  - { offset: 0x7FBAA, size: 0x8, addend: 0x0, symName: __ZN4core5slice5index26slice_start_index_len_fail17hbef4cde757a23982E, symObjAddr: 0xEAAC, symBinAddr: 0x10004644C, symSize: 0xC }
  - { offset: 0x7FBF0, size: 0x8, addend: 0x0, symName: __ZN4core5slice5index24slice_end_index_len_fail8do_panic7runtime17h385f2d9d99153a75E, symObjAddr: 0x1B17C, symBinAddr: 0x100044D6C, symSize: 0x50 }
  - { offset: 0x7FC23, size: 0x8, addend: 0x0, symName: __ZN4core5slice5index24slice_end_index_len_fail17ha150b75f771021fbE, symObjAddr: 0xEAB8, symBinAddr: 0x100046458, symSize: 0xC }
  - { offset: 0x7FC69, size: 0x8, addend: 0x0, symName: __ZN4core5slice5index22slice_index_order_fail8do_panic7runtime17he0b28f8ab2cd970eE, symObjAddr: 0x1B1CC, symBinAddr: 0x100044DBC, symSize: 0x50 }
  - { offset: 0x7FC9C, size: 0x8, addend: 0x0, symName: __ZN4core5slice5index22slice_index_order_fail17h7613890af586566aE, symObjAddr: 0xEAC4, symBinAddr: 0x100046464, symSize: 0xC }
  - { offset: 0x8008D, size: 0x8, addend: 0x0, symName: __ZN4core5slice6memchr14memchr_aligned17h6296e9c99467795dE, symObjAddr: 0xE3FC, symBinAddr: 0x1000423EC, symSize: 0xE8 }
  - { offset: 0x80169, size: 0x8, addend: 0x0, symName: __ZN4core5slice6memchr7memrchr17h6227400e5108dcb2E, symObjAddr: 0xE4E4, symBinAddr: 0x1000424D4, symSize: 0x120 }
  - { offset: 0x802C2, size: 0x8, addend: 0x0, symName: __ZN4core5slice4sort6stable5drift11sqrt_approx17hea6fce954f57e78dE, symObjAddr: 0xE604, symBinAddr: 0x1000425F4, symSize: 0x38 }
  - { offset: 0x8033F, size: 0x8, addend: 0x0, symName: __ZN4core5slice4sort6shared9smallsort22panic_on_ord_violation17h87158ad44664865dE, symObjAddr: 0xE63C, symBinAddr: 0x100046414, symSize: 0x38 }
  - { offset: 0x804EC, size: 0x8, addend: 0x0, symName: '__ZN42_$LT$str$u20$as$u20$core..fmt..Display$GT$3fmt17hf009c24fe723987dE', symObjAddr: 0xE0B4, symBinAddr: 0x10004216C, symSize: 0x20 }
  - { offset: 0x806BE, size: 0x8, addend: 0x0, symName: __ZN4core3fmt9Formatter12pad_integral17hc0a697f6bef9bc99E, symObjAddr: 0xB878, symBinAddr: 0x100040FFC, symSize: 0x3E8 }
  - { offset: 0x809B4, size: 0x8, addend: 0x0, symName: __ZN4core3fmt9Formatter3pad17hc45fb048fd353932E, symObjAddr: 0xBCDC, symBinAddr: 0x100041460, symSize: 0x370 }
  - { offset: 0x80E6F, size: 0x8, addend: 0x0, symName: __ZN4core3fmt9Formatter9write_str17h325369b1c335017bE, symObjAddr: 0xC49C, symBinAddr: 0x1000417D0, symSize: 0x1C }
  - { offset: 0x80E83, size: 0x8, addend: 0x0, symName: __ZN4core3fmt9Formatter12debug_struct17h01892abf43f6400aE, symObjAddr: 0xC4B8, symBinAddr: 0x1000417EC, symSize: 0x3C }
  - { offset: 0x80EC2, size: 0x8, addend: 0x0, symName: __ZN4core3fmt9Formatter26debug_struct_field1_finish17h9a6aad483cd91d8bE, symObjAddr: 0xC4F4, symBinAddr: 0x100041828, symSize: 0xD0 }
  - { offset: 0x80F99, size: 0x8, addend: 0x0, symName: __ZN4core3fmt9Formatter26debug_struct_field2_finish17h50e0aebce8a58786E, symObjAddr: 0xC5C4, symBinAddr: 0x1000418F8, symSize: 0x104 }
  - { offset: 0x81070, size: 0x8, addend: 0x0, symName: __ZN4core3fmt9Formatter11debug_tuple17hc10fd19a9736e89bE, symObjAddr: 0xCBD8, symBinAddr: 0x1000419FC, symSize: 0x50 }
  - { offset: 0x810C5, size: 0x8, addend: 0x0, symName: __ZN4core3fmt9Formatter25debug_tuple_field1_finish17ha7de20751beabbe9E, symObjAddr: 0xCC28, symBinAddr: 0x100041A4C, symSize: 0x168 }
  - { offset: 0x812C7, size: 0x8, addend: 0x0, symName: __ZN4core3fmt9Formatter25debug_tuple_field2_finish17h4e3f51f71b24019cE, symObjAddr: 0xCD90, symBinAddr: 0x100041BB4, symSize: 0x1E0 }
  - { offset: 0x81581, size: 0x8, addend: 0x0, symName: __ZN4core3fmt9Formatter10debug_list17h017ce85e0805b545E, symObjAddr: 0xDB70, symBinAddr: 0x100041D94, symSize: 0x48 }
  - { offset: 0x81629, size: 0x8, addend: 0x0, symName: __ZN4core3fmt8builders11DebugStruct5field17h2f0dca0d2df6974aE, symObjAddr: 0x84A0, symBinAddr: 0x1000407F4, symSize: 0x1B8 }
  - { offset: 0x81828, size: 0x8, addend: 0x0, symName: __ZN4core3fmt8builders11DebugStruct6finish17he06e5b5d674203a3E, symObjAddr: 0x871C, symBinAddr: 0x1000409AC, symSize: 0x80 }
  - { offset: 0x81929, size: 0x8, addend: 0x0, symName: '__ZN68_$LT$core..fmt..builders..PadAdapter$u20$as$u20$core..fmt..Write$GT$9write_str17hfaa313c4119f7ed4E', symObjAddr: 0x81D0, symBinAddr: 0x100040524, symSize: 0x250 }
  - { offset: 0x81BD4, size: 0x8, addend: 0x0, symName: '__ZN68_$LT$core..fmt..builders..PadAdapter$u20$as$u20$core..fmt..Write$GT$10write_char17hde86c020ea7d2eadE', symObjAddr: 0x8420, symBinAddr: 0x100040774, symSize: 0x80 }
  - { offset: 0x81C59, size: 0x8, addend: 0x0, symName: __ZN4core3fmt8builders10DebugTuple5field17hd1be49f816fc5cc6E, symObjAddr: 0x879C, symBinAddr: 0x100040A2C, symSize: 0x14C }
  - { offset: 0x81DE5, size: 0x8, addend: 0x0, symName: __ZN4core3fmt8builders10DebugTuple6finish17h27cf27fbab1a8a2aE, symObjAddr: 0x89A8, symBinAddr: 0x100040B78, symSize: 0xB0 }
  - { offset: 0x81F34, size: 0x8, addend: 0x0, symName: __ZN4core3fmt8builders8DebugSet5entry17h30a73ad81f14a0f2E, symObjAddr: 0x8A58, symBinAddr: 0x100040C28, symSize: 0x14C }
  - { offset: 0x820D9, size: 0x8, addend: 0x0, symName: __ZN4core3fmt8builders9DebugList6finish17h106b57f1a22a675eE, symObjAddr: 0x8D7C, symBinAddr: 0x100040D74, symSize: 0x4C }
  - { offset: 0x82195, size: 0x8, addend: 0x0, symName: '__ZN4core3fmt3num3imp52_$LT$impl$u20$core..fmt..Display$u20$for$u20$u32$GT$3fmt17hbf1c5d9b6583f29fE', symObjAddr: 0x19B78, symBinAddr: 0x100044860, symSize: 0x1C }
  - { offset: 0x821BC, size: 0x8, addend: 0x0, symName: '__ZN4core3fmt3num3imp52_$LT$impl$u20$core..fmt..Display$u20$for$u20$u64$GT$3fmt17h339ac4429cb37bf0E', symObjAddr: 0x19CE0, symBinAddr: 0x1000449C8, symSize: 0x1C }
  - { offset: 0x821E3, size: 0x8, addend: 0x0, symName: '__ZN4core3fmt3num3imp52_$LT$impl$u20$core..fmt..Display$u20$for$u20$i32$GT$3fmt17hf55f78073eda7290E', symObjAddr: 0x19B94, symBinAddr: 0x10004487C, symSize: 0x28 }
  - { offset: 0x82248, size: 0x8, addend: 0x0, symName: '__ZN4core3fmt3num3imp51_$LT$impl$u20$core..fmt..Display$u20$for$u20$u8$GT$3fmt17h4f4911bf2ed93697E', symObjAddr: 0x198A4, symBinAddr: 0x1000447B0, symSize: 0xB0 }
  - { offset: 0x8230E, size: 0x8, addend: 0x0, symName: '__ZN4core3fmt3num3imp21_$LT$impl$u20$u32$GT$4_fmt17h2969b048172ebb80E', symObjAddr: 0x19BBC, symBinAddr: 0x1000448A4, symSize: 0x124 }
  - { offset: 0x823EF, size: 0x8, addend: 0x0, symName: '__ZN4core3fmt3num3imp21_$LT$impl$u20$u64$GT$4_fmt17h99108e3731ddbd8bE', symObjAddr: 0x19D24, symBinAddr: 0x1000449E4, symSize: 0x130 }
  - { offset: 0x8260A, size: 0x8, addend: 0x0, symName: '__ZN4core3fmt3num53_$LT$impl$u20$core..fmt..LowerHex$u20$for$u20$i32$GT$3fmt17ha0cbda09c03c5041E', symObjAddr: 0x18C80, symBinAddr: 0x1000445B0, symSize: 0x80 }
  - { offset: 0x826B2, size: 0x8, addend: 0x0, symName: '__ZN4core3fmt3num53_$LT$impl$u20$core..fmt..UpperHex$u20$for$u20$i32$GT$3fmt17heb47dcda93036a36E', symObjAddr: 0x18D00, symBinAddr: 0x100044630, symSize: 0x80 }
  - { offset: 0x8275A, size: 0x8, addend: 0x0, symName: '__ZN4core3fmt3num53_$LT$impl$u20$core..fmt..LowerHex$u20$for$u20$i64$GT$3fmt17hf3c2c8f0bf48439fE', symObjAddr: 0x18E60, symBinAddr: 0x1000446B0, symSize: 0x80 }
  - { offset: 0x82802, size: 0x8, addend: 0x0, symName: '__ZN4core3fmt3num53_$LT$impl$u20$core..fmt..UpperHex$u20$for$u20$i64$GT$3fmt17h4be4db71703d1dabE', symObjAddr: 0x18EE0, symBinAddr: 0x100044730, symSize: 0x80 }
  - { offset: 0x8289D, size: 0x8, addend: 0x0, symName: '__ZN4core3fmt3num52_$LT$impl$u20$core..fmt..LowerHex$u20$for$u20$i8$GT$3fmt17h7bff1931c71ac012E', symObjAddr: 0x188C0, symBinAddr: 0x1000444B0, symSize: 0x80 }
  - { offset: 0x8294C, size: 0x8, addend: 0x0, symName: '__ZN4core3fmt3num52_$LT$impl$u20$core..fmt..UpperHex$u20$for$u20$i8$GT$3fmt17h8dba84f19f74308cE', symObjAddr: 0x18940, symBinAddr: 0x100044530, symSize: 0x80 }
  - { offset: 0x82A0A, size: 0x8, addend: 0x0, symName: '__ZN57_$LT$core..fmt..Formatter$u20$as$u20$core..fmt..Write$GT$10write_char17h712a7a5b14df20b9E', symObjAddr: 0xDCC0, symBinAddr: 0x100041DDC, symSize: 0x1C }
  - { offset: 0x82A3D, size: 0x8, addend: 0x0, symName: __ZN4core3fmt5Write9write_fmt17h3451af32630eef07E, symObjAddr: 0xB4E4, symBinAddr: 0x100040DC0, symSize: 0x1C }
  - { offset: 0x82AA6, size: 0x8, addend: 0x0, symName: '__ZN59_$LT$core..fmt..Arguments$u20$as$u20$core..fmt..Display$GT$3fmt17h5a31f19e8734f16eE', symObjAddr: 0xB658, symBinAddr: 0x100040DDC, symSize: 0x18 }
  - { offset: 0x82AD7, size: 0x8, addend: 0x0, symName: __ZN4core3fmt5write17he22fcab56bd3ec61E, symObjAddr: 0xB670, symBinAddr: 0x100040DF4, symSize: 0x208 }
  - { offset: 0x82CEA, size: 0x8, addend: 0x0, symName: __ZN4core3fmt9Formatter12pad_integral12write_prefix17h37c97ab3a7046bd2E, symObjAddr: 0xBC60, symBinAddr: 0x1000413E4, symSize: 0x7C }
  - { offset: 0x82D30, size: 0x8, addend: 0x0, symName: '__ZN42_$LT$$RF$T$u20$as$u20$core..fmt..Debug$GT$3fmt17h3133fac5ab5169ddE', symObjAddr: 0x1AE44, symBinAddr: 0x100044B14, symSize: 0xEC }
  - { offset: 0x82E62, size: 0x8, addend: 0x0, symName: '__ZN42_$LT$$RF$T$u20$as$u20$core..fmt..Debug$GT$3fmt17h54e81ade5e5de57dE', symObjAddr: 0x1AF30, symBinAddr: 0x100044C00, symSize: 0x1C }
  - { offset: 0x82E76, size: 0x8, addend: 0x0, symName: '__ZN42_$LT$$RF$T$u20$as$u20$core..fmt..Debug$GT$3fmt17h91eecf8d28a7cefeE', symObjAddr: 0x1AF4C, symBinAddr: 0x100044C1C, symSize: 0xE4 }
  - { offset: 0x82FD0, size: 0x8, addend: 0x0, symName: '__ZN40_$LT$str$u20$as$u20$core..fmt..Debug$GT$3fmt17hd8879d369458d53aE', symObjAddr: 0xDD40, symBinAddr: 0x100041DF8, symSize: 0x374 }
  - { offset: 0x83429, size: 0x8, addend: 0x0, symName: '__ZN41_$LT$char$u20$as$u20$core..fmt..Debug$GT$3fmt17ha35a21095fe6b2aeE', symObjAddr: 0xE0D4, symBinAddr: 0x10004218C, symSize: 0xAC }
  - { offset: 0x83530, size: 0x8, addend: 0x0, symName: '__ZN43_$LT$char$u20$as$u20$core..fmt..Display$GT$3fmt17h3667dcfbeb89f1b7E', symObjAddr: 0xE180, symBinAddr: 0x100042238, symSize: 0xF0 }
  - { offset: 0x835B8, size: 0x8, addend: 0x0, symName: __ZN4core3fmt17pointer_fmt_inner17ha05a056f67b250baE, symObjAddr: 0xE270, symBinAddr: 0x100042328, symSize: 0xC4 }
  - { offset: 0x83676, size: 0x8, addend: 0x0, symName: '__ZN44_$LT$$RF$T$u20$as$u20$core..fmt..Display$GT$3fmt17h09a056bd82e73243E', symObjAddr: 0x1B044, symBinAddr: 0x100044D00, symSize: 0x1C }
  - { offset: 0x8381E, size: 0x8, addend: 0x0, symName: __ZN4core6option13unwrap_failed17h84f662fc2717d129E, symObjAddr: 0x7B40, symBinAddr: 0x10004607C, symSize: 0x1C }
  - { offset: 0x83839, size: 0x8, addend: 0x0, symName: __ZN4core6option13expect_failed17h064f2cf84916882aE, symObjAddr: 0x7B5C, symBinAddr: 0x100046098, symSize: 0x48 }
  - { offset: 0x83891, size: 0x8, addend: 0x0, symName: '__ZN71_$LT$core..ops..range..Range$LT$Idx$GT$$u20$as$u20$core..fmt..Debug$GT$3fmt17h8610e207370f6ef7E', symObjAddr: 0x442C, symBinAddr: 0x10003FFA4, symSize: 0x1FC }
  - { offset: 0x83D87, size: 0x8, addend: 0x0, symName: __ZN4core6result13unwrap_failed17h2bf1684417afbe6bE, symObjAddr: 0x80FC, symBinAddr: 0x1000463B8, symSize: 0x5C }
  - { offset: 0x8404E, size: 0x8, addend: 0x0, symName: __ZN4core3str7pattern11StrSearcher3new17habaad989c72fb7a8E, symObjAddr: 0x10248, symBinAddr: 0x100043244, symSize: 0x904 }
  - { offset: 0x842F9, size: 0x8, addend: 0x0, symName: __ZN4core3str5count14do_count_chars17hc555c670c9b10e3bE, symObjAddr: 0xF128, symBinAddr: 0x100042870, symSize: 0x724 }
  - { offset: 0x8464A, size: 0x8, addend: 0x0, symName: __ZN4core3str5count23char_count_general_case17h0a6ef21a4825751aE, symObjAddr: 0xF84C, symBinAddr: 0x100042F94, symSize: 0x2B0 }
  - { offset: 0x847B0, size: 0x8, addend: 0x0, symName: __ZN4core3str6traits23str_index_overflow_fail17h6ba0069023d715bdE, symObjAddr: 0x10214, symBinAddr: 0x100046470, symSize: 0x34 }
  - { offset: 0x847E5, size: 0x8, addend: 0x0, symName: __ZN4core3str8converts9from_utf817h5b7081f8e3c98111E, symObjAddr: 0xECA0, symBinAddr: 0x10004262C, symSize: 0x244 }
  - { offset: 0x84867, size: 0x8, addend: 0x0, symName: '__ZN87_$LT$core..str..lossy..Utf8Chunks$u20$as$u20$core..iter..traits..iterator..Iterator$GT$4next17hc0bb2f8797014ed2E', symObjAddr: 0x10F30, symBinAddr: 0x100043B48, symSize: 0x1DC }
  - { offset: 0x84A6A, size: 0x8, addend: 0x0, symName: __ZN4core3str16slice_error_fail17h8b847e853482f553E, symObjAddr: 0x111D8, symBinAddr: 0x1000464A4, symSize: 0xC }
  - { offset: 0x84A84, size: 0x8, addend: 0x0, symName: __ZN4core3str19slice_error_fail_rt17hd494714b9640772bE, symObjAddr: 0x11218, symBinAddr: 0x100043D24, symSize: 0x390 }
  - { offset: 0x84D2D, size: 0x8, addend: 0x0, symName: '__ZN4core4char7methods22_$LT$impl$u20$char$GT$16escape_debug_ext17hbfb443f01c84243eE', symObjAddr: 0x50B8, symBinAddr: 0x1000401C4, symSize: 0x260 }
  - { offset: 0x84F25, size: 0x8, addend: 0x0, symName: __ZN4core4char7methods15encode_utf8_raw8do_panic7runtime17h78f2c250983698c5E, symObjAddr: 0x171EC, symBinAddr: 0x1000443E8, symSize: 0xC8 }
  - { offset: 0x84FBC, size: 0x8, addend: 0x0, symName: '__ZN63_$LT$core..cell..BorrowMutError$u20$as$u20$core..fmt..Debug$GT$3fmt17h4f632190c10a8f91E', symObjAddr: 0x4F3C, symBinAddr: 0x1000401A0, symSize: 0x24 }
  - { offset: 0x85019, size: 0x8, addend: 0x0, symName: __ZN4core4cell22panic_already_borrowed17ha893d1f06b8b63deE, symObjAddr: 0x4F80, symBinAddr: 0x100046038, symSize: 0x44 }
  - { offset: 0x85069, size: 0x8, addend: 0x0, symName: __ZN4core7unicode12unicode_data15grapheme_extend11lookup_slow17hbcdf8b5a821a33ffE, symObjAddr: 0x1C978, symBinAddr: 0x100044E30, symSize: 0x174 }
  - { offset: 0x85254, size: 0x8, addend: 0x0, symName: __ZN4core7unicode12unicode_data2cc6lookup17he25d7ab2d2fa0f97E, symObjAddr: 0x1C954, symBinAddr: 0x100044E0C, symSize: 0x24 }
  - { offset: 0x852C0, size: 0x8, addend: 0x0, symName: __ZN4core7unicode9printable12is_printable17haae76351f6525626E, symObjAddr: 0x12144, symBinAddr: 0x1000440B4, symSize: 0x2C0 }
  - { offset: 0x856FE, size: 0x8, addend: 0x0, symName: __ZN4core3ffi5c_str4CStr19from_bytes_with_nul17h10506affebd054b1E, symObjAddr: 0x5700, symBinAddr: 0x100040424, symSize: 0x100 }
  - { offset: 0x857EB, size: 0x8, addend: 0x0, symName: __ZN4core9panicking9panic_fmt17h6a4014bec58fba4fE, symObjAddr: 0x7C94, symBinAddr: 0x1000460E0, symSize: 0x20 }
  - { offset: 0x8582E, size: 0x8, addend: 0x0, symName: __ZN4core9panicking18panic_nounwind_fmt17hc1d4bd06ab2bbbabE, symObjAddr: 0x7CB4, symBinAddr: 0x100046100, symSize: 0x3C }
  - { offset: 0x85873, size: 0x8, addend: 0x0, symName: __ZN4core9panicking5panic17h3ce9043ca357f318E, symObjAddr: 0x7CF0, symBinAddr: 0x10004613C, symSize: 0x34 }
  - { offset: 0x858A2, size: 0x8, addend: 0x0, symName: __ZN4core9panicking14panic_nounwind17h96b8083b1a8e2dbdE, symObjAddr: 0x7D24, symBinAddr: 0x100046170, symSize: 0x3C }
  - { offset: 0x858D1, size: 0x8, addend: 0x0, symName: __ZN4core9panicking26panic_nounwind_nobacktrace17h984deb6b7d0bc614E, symObjAddr: 0x7D60, symBinAddr: 0x1000461AC, symSize: 0x3C }
  - { offset: 0x85900, size: 0x8, addend: 0x0, symName: __ZN4core9panicking18panic_bounds_check17h1ecfa3d00f46f81cE, symObjAddr: 0x7DE4, symBinAddr: 0x1000461E8, symSize: 0x50 }
  - { offset: 0x85932, size: 0x8, addend: 0x0, symName: __ZN4core9panicking19panic_cannot_unwind17ha5edf28dd2569dc8E, symObjAddr: 0x7EF8, symBinAddr: 0x100046238, symSize: 0x18 }
  - { offset: 0x8594D, size: 0x8, addend: 0x0, symName: __ZN4core9panicking16panic_in_cleanup17hb960b8c5dea287d4E, symObjAddr: 0x7F10, symBinAddr: 0x100046250, symSize: 0x18 }
  - { offset: 0x85968, size: 0x8, addend: 0x0, symName: __ZN4core9panicking13assert_failed17h2af7932842d934b6E, symObjAddr: 0x7F8C, symBinAddr: 0x100046268, symSize: 0x24 }
  - { offset: 0x85983, size: 0x8, addend: 0x0, symName: __ZN4core9panicking13assert_failed17hc7c9e0269eebc316E, symObjAddr: 0x7FB0, symBinAddr: 0x10004628C, symSize: 0x24 }
  - { offset: 0x8599E, size: 0x8, addend: 0x0, symName: __ZN4core9panicking19assert_failed_inner17hafd35c69af0230bfE, symObjAddr: 0x7FF4, symBinAddr: 0x1000462B0, symSize: 0x108 }
  - { offset: 0x859EB, size: 0x8, addend: 0x0, symName: __ZN4core9panicking11panic_const23panic_const_div_by_zero17h0422238fbdaad2d7E, symObjAddr: 0x179B8, symBinAddr: 0x1000464B0, symSize: 0x34 }
  - { offset: 0x85A1A, size: 0x8, addend: 0x0, symName: __ZN4core9panicking11panic_const23panic_const_rem_by_zero17h723f338bbd7af040E, symObjAddr: 0x179EC, symBinAddr: 0x1000464E4, symSize: 0x34 }
  - { offset: 0x85A93, size: 0x8, addend: 0x0, symName: __ZN4core5alloc6layout6Layout19is_size_align_valid17h054933e8a3b2a17cE, symObjAddr: 0x126A0, symBinAddr: 0x100044374, symSize: 0x30 }
  - { offset: 0x85AEC, size: 0x8, addend: 0x0, symName: _OUTLINED_FUNCTION_0, symObjAddr: 0x1D194, symBinAddr: 0x100044FA4, symSize: 0x10 }
...
