---
triple:          'arm64-apple-darwin'
binary-path:     '/Users/cedric/orange/ran-llm-claude-flow/src/rust-pipeline/target/debug/build/indexmap-cee9a4b8c5da2884/build_script_build-cee9a4b8c5da2884'
relocations:
  - { offset: 0x1E, size: 0x8, addend: 0x0, symName: __RINvNtCscOYdFFY2T5N_3std2rt10lang_startuECsbDWS5362tTn_18build_script_build, symObjAddr: 0x0, symBinAddr: 0x100000BF0, symSize: 0x60 }
  - { offset: 0x5B, size: 0x8, addend: 0x0, symName: __RNCINvNtCscOYdFFY2T5N_3std2rt10lang_startuE0CsbDWS5362tTn_18build_script_build, symObjAddr: 0x94, symBinAddr: 0x100000C74, symSize: 0x34 }
  - { offset: 0xC5, size: 0x8, addend: 0x0, symName: __RINvNtCscOYdFFY2T5N_3std2rt10lang_startuECsbDWS5362tTn_18build_script_build, symObjAddr: 0x0, symBinAddr: 0x100000BF0, symSize: 0x60 }
  - { offset: 0x12F, size: 0x8, addend: 0x0, symName: __RINvNtNtCscOYdFFY2T5N_3std3sys9backtrace28___rust_begin_short_backtraceFEuuECsbDWS5362tTn_18build_script_build, symObjAddr: 0x70, symBinAddr: 0x100000C50, symSize: 0x24 }
  - { offset: 0x21D, size: 0x8, addend: 0x0, symName: __RNvXsT_NtCscOYdFFY2T5N_3std7processuNtB5_11Termination6reportCsbDWS5362tTn_18build_script_build, symObjAddr: 0xF0, symBinAddr: 0x100000CD0, symSize: 0x10 }
  - { offset: 0x296, size: 0x8, addend: 0x0, symName: __RNSNvYNCINvNtCscOYdFFY2T5N_3std2rt10lang_startuE0INtNtNtCsfvfooZQ3Axs_4core3ops8function6FnOnceuE9call_once6vtableCsbDWS5362tTn_18build_script_build, symObjAddr: 0xC8, symBinAddr: 0x100000CA8, symSize: 0x28 }
  - { offset: 0x2DA, size: 0x8, addend: 0x0, symName: __RNvYFEuINtNtNtCsfvfooZQ3Axs_4core3ops8function6FnOnceuE9call_onceCsbDWS5362tTn_18build_script_build, symObjAddr: 0x100, symBinAddr: 0x100000CE0, symSize: 0x20 }
  - { offset: 0x31A, size: 0x8, addend: 0x0, symName: __RNvYNCINvNtCscOYdFFY2T5N_3std2rt10lang_startuE0INtNtNtCsfvfooZQ3Axs_4core3ops8function6FnOnceuE9call_onceCsbDWS5362tTn_18build_script_build, symObjAddr: 0x120, symBinAddr: 0x100000D00, symSize: 0x4C }
  - { offset: 0x39B, size: 0x8, addend: 0x0, symName: __RNvCsbDWS5362tTn_18build_script_build4main, symObjAddr: 0x16C, symBinAddr: 0x100000D4C, symSize: 0x124 }
  - { offset: 0x401, size: 0x8, addend: 0x0, symName: __RINvMs6_NtCsloNvcHxBCre_9hashbrown3rawINtB6_8RawTableTyuEE14reserve_rehashNCINvNtB8_3map11make_hasheryuNtNtNtCscOYdFFY2T5N_3std4hash6random11RandomStateE0ECsceeBBjCCtRQ_7autocfg, symObjAddr: 0x0, symBinAddr: 0x100057B4C, symSize: 0x824 }
  - { offset: 0x43D, size: 0x8, addend: 0x0, symName: __RNCINvMs6_NtCsloNvcHxBCre_9hashbrown3rawINtB8_8RawTableTyuEE14reserve_rehashNCINvNtBa_3map11make_hasheryuNtNtNtCscOYdFFY2T5N_3std4hash6random11RandomStateE0E0CsceeBBjCCtRQ_7autocfg, symObjAddr: 0x114C, symBinAddr: 0x1000017D8, symSize: 0xC0 }
  - { offset: 0x600, size: 0x8, addend: 0x0, symName: __RNCINvMs6_NtCsloNvcHxBCre_9hashbrown3rawINtB8_8RawTableTyuEE24find_or_find_insert_slotNCINvNtBa_3map14equivalent_keyyyuE0NCINvB1r_11make_hasheryuNtNtNtCscOYdFFY2T5N_3std4hash6random11RandomStateE0E0CsceeBBjCCtRQ_7autocfg, symObjAddr: 0x120C, symBinAddr: 0x100001898, symSize: 0xC4 }
  - { offset: 0xF45, size: 0x8, addend: 0x0, symName: __RNCINvMsa_NtCsloNvcHxBCre_9hashbrown3rawNtB8_13RawTableInner14prepare_resizeNtNtCse1nGBsou5OW_5alloc5alloc6GlobalE0CsceeBBjCCtRQ_7autocfg, symObjAddr: 0x12D0, symBinAddr: 0x10000195C, symSize: 0xBC }
  - { offset: 0x1128, size: 0x8, addend: 0x0, symName: __RNCNvMsa_NtCsloNvcHxBCre_9hashbrown3rawNtB7_13RawTableInner15rehash_in_place0CsceeBBjCCtRQ_7autocfg, symObjAddr: 0x138C, symBinAddr: 0x100001A18, symSize: 0x23C }
  - { offset: 0x1740, size: 0x8, addend: 0x0, symName: __RNvNtCsloNvcHxBCre_9hashbrown3raw19capacity_to_bucketsCsceeBBjCCtRQ_7autocfg, symObjAddr: 0x29AC, symBinAddr: 0x100003038, symSize: 0x198 }
  - { offset: 0x18FB, size: 0x8, addend: 0x0, symName: __RNvXsB_NtCsloNvcHxBCre_9hashbrown3rawINtB5_11RawIntoIterTyuEENtNtNtCsfvfooZQ3Axs_4core3ops4drop4Drop4dropCsceeBBjCCtRQ_7autocfg, symObjAddr: 0x2B44, symBinAddr: 0x1000031D0, symSize: 0x78 }
  - { offset: 0x19B7, size: 0x8, addend: 0x0, symName: __RNvXsD_NtCsloNvcHxBCre_9hashbrown3rawINtB5_11RawIntoIterTyuEENtNtNtNtCsfvfooZQ3Axs_4core4iter6traits8iterator8Iterator4nextCsceeBBjCCtRQ_7autocfg, symObjAddr: 0x2BBC, symBinAddr: 0x100003248, symSize: 0xF4 }
  - { offset: 0x1B44, size: 0x8, addend: 0x0, symName: __RNvXsg_NtCsloNvcHxBCre_9hashbrown3rawINtB5_8RawTableTyuEENtNtNtCsfvfooZQ3Axs_4core3ops4drop4Drop4dropCsceeBBjCCtRQ_7autocfg, symObjAddr: 0x2CB0, symBinAddr: 0x10000333C, symSize: 0x38 }
  - { offset: 0x1B86, size: 0x8, addend: 0x0, symName: __RNvXsh_NtCsloNvcHxBCre_9hashbrown3rawINtB5_8RawTableTyuEENtNtNtNtCsfvfooZQ3Axs_4core4iter6traits7collect12IntoIterator9into_iterCsceeBBjCCtRQ_7autocfg, symObjAddr: 0x2CE8, symBinAddr: 0x100003374, symSize: 0x11C }
  - { offset: 0x548A, size: 0x8, addend: 0x0, symName: __RINvMs6_NtCsloNvcHxBCre_9hashbrown3rawINtB6_8RawTableTyuEE14reserve_rehashNCINvNtB8_3map11make_hasheryuNtNtNtCscOYdFFY2T5N_3std4hash6random11RandomStateE0ECsceeBBjCCtRQ_7autocfg, symObjAddr: 0x0, symBinAddr: 0x100057B4C, symSize: 0x824 }
  - { offset: 0x5E7A, size: 0x8, addend: 0x0, symName: __RINvMs6_NtCsloNvcHxBCre_9hashbrown3rawINtB6_8RawTableTyuEE24find_or_find_insert_slotNCINvNtB8_3map14equivalent_keyyyuE0NCINvB1p_11make_hasheryuNtNtNtCscOYdFFY2T5N_3std4hash6random11RandomStateE0ECsceeBBjCCtRQ_7autocfg, symObjAddr: 0x824, symBinAddr: 0x100000EB0, symSize: 0x13C }
  - { offset: 0x605E, size: 0x8, addend: 0x0, symName: __RINvMs6_NtCsloNvcHxBCre_9hashbrown3rawINtB6_8RawTableTyuEE7reserveNCINvNtB8_3map11make_hasheryuNtNtNtCscOYdFFY2T5N_3std4hash6random11RandomStateE0ECsceeBBjCCtRQ_7autocfg, symObjAddr: 0x960, symBinAddr: 0x100000FEC, symSize: 0xCC }
  - { offset: 0x61D1, size: 0x8, addend: 0x0, symName: __RINvMsa_NtCsloNvcHxBCre_9hashbrown3rawNtB6_13RawTableInner13drop_elementsTyuEECsceeBBjCCtRQ_7autocfg, symObjAddr: 0xA2C, symBinAddr: 0x1000010B8, symSize: 0x28 }
  - { offset: 0x643C, size: 0x8, addend: 0x0, symName: __RINvMsa_NtCsloNvcHxBCre_9hashbrown3rawNtB6_13RawTableInner16drop_inner_tableTyuENtNtCse1nGBsou5OW_5alloc5alloc6GlobalECsceeBBjCCtRQ_7autocfg, symObjAddr: 0xA54, symBinAddr: 0x1000010E0, symSize: 0xBC }
  - { offset: 0x664F, size: 0x8, addend: 0x0, symName: __RINvMsa_NtCsloNvcHxBCre_9hashbrown3rawNtB6_13RawTableInner17new_uninitializedNtNtCse1nGBsou5OW_5alloc5alloc6GlobalECsceeBBjCCtRQ_7autocfg, symObjAddr: 0xB10, symBinAddr: 0x10000119C, symSize: 0x1B0 }
  - { offset: 0x6888, size: 0x8, addend: 0x0, symName: __RINvMsa_NtCsloNvcHxBCre_9hashbrown3rawNtB6_13RawTableInner22fallible_with_capacityNtNtCse1nGBsou5OW_5alloc5alloc6GlobalECsceeBBjCCtRQ_7autocfg, symObjAddr: 0xCC0, symBinAddr: 0x10000134C, symSize: 0x2A8 }
  - { offset: 0x6CFF, size: 0x8, addend: 0x0, symName: __RINvMsi_NtCsloNvcHxBCre_9hashbrown3rawINtB6_12RawIterRangeTyuEE9next_implKb0_ECsceeBBjCCtRQ_7autocfg, symObjAddr: 0xF68, symBinAddr: 0x1000015F4, symSize: 0x1E4 }
  - { offset: 0x7497, size: 0x8, addend: 0x0, symName: __RNvMs1_NtCsloNvcHxBCre_9hashbrown3rawNtB5_11TableLayout20calculate_layout_forCsceeBBjCCtRQ_7autocfg, symObjAddr: 0x15C8, symBinAddr: 0x100001C54, symSize: 0x210 }
  - { offset: 0x7924, size: 0x8, addend: 0x0, symName: __RNvMs6_NtCsloNvcHxBCre_9hashbrown3rawINtB5_8RawTableTyuEE14insert_in_slotCsceeBBjCCtRQ_7autocfg, symObjAddr: 0x17D8, symBinAddr: 0x100001E64, symSize: 0x130 }
  - { offset: 0x7CD4, size: 0x8, addend: 0x0, symName: __RNvMs6_NtCsloNvcHxBCre_9hashbrown3rawINtB5_8RawTableTyuEE14into_iter_fromCsceeBBjCCtRQ_7autocfg, symObjAddr: 0x1908, symBinAddr: 0x100001F94, symSize: 0x90 }
  - { offset: 0x7DC0, size: 0x8, addend: 0x0, symName: __RNvMs6_NtCsloNvcHxBCre_9hashbrown3rawINtB5_8RawTableTyuEE15into_allocationCsceeBBjCCtRQ_7autocfg, symObjAddr: 0x1998, symBinAddr: 0x100002024, symSize: 0x138 }
  - { offset: 0x8001, size: 0x8, addend: 0x0, symName: __RNvMsa_NtCsloNvcHxBCre_9hashbrown3rawNtB5_13RawTableInner15fix_insert_slotCsceeBBjCCtRQ_7autocfg, symObjAddr: 0x1AD0, symBinAddr: 0x10000215C, symSize: 0x128 }
  - { offset: 0x837F, size: 0x8, addend: 0x0, symName: __RNvMsa_NtCsloNvcHxBCre_9hashbrown3rawNtB5_13RawTableInner15rehash_in_placeCsceeBBjCCtRQ_7autocfg, symObjAddr: 0x1BF8, symBinAddr: 0x100002284, symSize: 0x4E8 }
  - { offset: 0x8B96, size: 0x8, addend: 0x0, symName: __RNvMsa_NtCsloNvcHxBCre_9hashbrown3rawNtB5_13RawTableInner16find_insert_slotCsceeBBjCCtRQ_7autocfg, symObjAddr: 0x20E0, symBinAddr: 0x10000276C, symSize: 0x10C }
  - { offset: 0x8D87, size: 0x8, addend: 0x0, symName: __RNvMsa_NtCsloNvcHxBCre_9hashbrown3rawNtB5_13RawTableInner19prepare_insert_slotCsceeBBjCCtRQ_7autocfg, symObjAddr: 0x21EC, symBinAddr: 0x100002878, symSize: 0x74 }
  - { offset: 0x9079, size: 0x8, addend: 0x0, symName: __RNvMsa_NtCsloNvcHxBCre_9hashbrown3rawNtB5_13RawTableInner23prepare_rehash_in_placeCsceeBBjCCtRQ_7autocfg, symObjAddr: 0x2260, symBinAddr: 0x1000028EC, symSize: 0x254 }
  - { offset: 0x9775, size: 0x8, addend: 0x0, symName: __RNvMsa_NtCsloNvcHxBCre_9hashbrown3rawNtB5_13RawTableInner25find_insert_slot_in_groupCsceeBBjCCtRQ_7autocfg, symObjAddr: 0x24B4, symBinAddr: 0x100002B40, symSize: 0x160 }
  - { offset: 0x9A86, size: 0x8, addend: 0x0, symName: __RNvMsa_NtCsloNvcHxBCre_9hashbrown3rawNtB5_13RawTableInner30find_or_find_insert_slot_innerCsceeBBjCCtRQ_7autocfg, symObjAddr: 0x2614, symBinAddr: 0x100002CA0, symSize: 0x2BC }
  - { offset: 0x9E81, size: 0x8, addend: 0x0, symName: __RNvMsi_NtCsloNvcHxBCre_9hashbrown3rawINtB5_12RawIterRangeTyuEE3newCsceeBBjCCtRQ_7autocfg, symObjAddr: 0x28D0, symBinAddr: 0x100002F5C, symSize: 0xC0 }
  - { offset: 0xA115, size: 0x8, addend: 0x0, symName: __RNvMso_NtCsloNvcHxBCre_9hashbrown3rawINtB5_7RawIterTyuEE13drop_elementsCsceeBBjCCtRQ_7autocfg, symObjAddr: 0x2990, symBinAddr: 0x10000301C, symSize: 0x1C }
  - { offset: 0xA339, size: 0x8, addend: 0x0, symName: __RINvMNtCsfvfooZQ3Axs_4core6optionINtB3_6OptionNtNtCscOYdFFY2T5N_3std4path7PathBufE14unwrap_or_elseNCNCNCNvCsceeBBjCCtRQ_7autocfg19dir_contains_target000EB1G_, symObjAddr: 0x0, symBinAddr: 0x100003490, symSize: 0x70 }
  - { offset: 0xA3F7, size: 0x8, addend: 0x0, symName: __RNvXs5_NtNtCsfvfooZQ3Axs_4core3num5errorNtB5_15TryFromIntErrorNtNtB9_3fmt5Debug3fmtCsceeBBjCCtRQ_7autocfg, symObjAddr: 0x2704, symBinAddr: 0x100005ABC, symSize: 0x54 }
  - { offset: 0xA437, size: 0x8, addend: 0x0, symName: __RNvXsb_NtNtCsfvfooZQ3Axs_4core3num5errorNtB5_13ParseIntErrorNtNtB9_3fmt5Debug3fmtCsceeBBjCCtRQ_7autocfg, symObjAddr: 0x3348, symBinAddr: 0x1000066C0, symSize: 0x64 }
  - { offset: 0xA477, size: 0x8, addend: 0x0, symName: __RNvXsg_NtNtCsfvfooZQ3Axs_4core3num5errorNtB5_12IntErrorKindNtNtB9_3fmt5Debug3fmtCsceeBBjCCtRQ_7autocfg, symObjAddr: 0x3464, symBinAddr: 0x1000067DC, symSize: 0xF4 }
  - { offset: 0xA86D, size: 0x8, addend: 0x0, symName: __RNvXs1a_NtCsfvfooZQ3Axs_4core3fmtRINtNtB8_6option6OptionhENtB6_5Debug3fmtCsceeBBjCCtRQ_7autocfg, symObjAddr: 0x2474, symBinAddr: 0x100005904, symSize: 0x30 }
  - { offset: 0xA8B3, size: 0x8, addend: 0x0, symName: __RNvXs1a_NtCsfvfooZQ3Axs_4core3fmtRNtNtNtB8_3num5error12IntErrorKindNtB6_5Debug3fmtCsceeBBjCCtRQ_7autocfg, symObjAddr: 0x24A4, symBinAddr: 0x100005934, symSize: 0x30 }
  - { offset: 0xA8F9, size: 0x8, addend: 0x0, symName: __RNvXs1a_NtCsfvfooZQ3Axs_4core3fmtRNtNtNtB8_3num5error13ParseIntErrorNtB6_5Debug3fmtCsceeBBjCCtRQ_7autocfg, symObjAddr: 0x24D4, symBinAddr: 0x100005964, symSize: 0x30 }
  - { offset: 0xB519, size: 0x8, addend: 0x0, symName: __RNvXsn_NtNtCsfvfooZQ3Axs_4core3cmp5implsyNtB7_9PartialEq2eqCsceeBBjCCtRQ_7autocfg, symObjAddr: 0x3578, symBinAddr: 0x1000068F0, symSize: 0x2C }
  - { offset: 0xB5F3, size: 0x8, addend: 0x0, symName: __RNvYINtNtCsfvfooZQ3Axs_4core6option6OptionNtNtNtCscOYdFFY2T5N_3std3ffi6os_str8OsStringENtNtB7_3cmp9PartialEq2neCsceeBBjCCtRQ_7autocfg, symObjAddr: 0x3F3C, symBinAddr: 0x1000072B4, symSize: 0x30 }
  - { offset: 0xC55D, size: 0x8, addend: 0x0, symName: __RNvXs5_NtCsfvfooZQ3Axs_4core6optionINtB5_6OptionRNtNtCscOYdFFY2T5N_3std4path7PathBufENtNtNtNtB7_4iter6traits7collect12IntoIterator9into_iterCsceeBBjCCtRQ_7autocfg, symObjAddr: 0x26F0, symBinAddr: 0x100005AA8, symSize: 0x14 }
  - { offset: 0xC59A, size: 0x8, addend: 0x0, symName: __RNvXsI_NtCsfvfooZQ3Axs_4core6optionINtB5_6OptionhENtNtB7_3fmt5Debug3fmtCsceeBBjCCtRQ_7autocfg, symObjAddr: 0x2E10, symBinAddr: 0x1000061C8, symSize: 0x98 }
  - { offset: 0xC717, size: 0x8, addend: 0x0, symName: __RNvXsc_NtCsfvfooZQ3Axs_4core6optionINtB5_6OptionNtNtNtCscOYdFFY2T5N_3std3ffi6os_str8OsStringENtNtB7_3cmp9PartialEq2eqCsceeBBjCCtRQ_7autocfg, symObjAddr: 0x33AC, symBinAddr: 0x100006724, symSize: 0xB8 }
  - { offset: 0xC7CD, size: 0x8, addend: 0x0, symName: __RNvXsk_NtCsfvfooZQ3Axs_4core6optionINtB5_4IterNtNtCscOYdFFY2T5N_3std4path7PathBufENtNtNtNtB7_4iter6traits8iterator8Iterator4nextCsceeBBjCCtRQ_7autocfg, symObjAddr: 0x3558, symBinAddr: 0x1000068D0, symSize: 0x20 }
  - { offset: 0xC876, size: 0x8, addend: 0x0, symName: __RNvXsv_NtCsfvfooZQ3Axs_4core6optionINtB5_8IntoIterRNtNtCscOYdFFY2T5N_3std4path7PathBufENtNtNtNtB7_4iter6traits8iterator8Iterator4nextCsceeBBjCCtRQ_7autocfg, symObjAddr: 0x38E8, symBinAddr: 0x100006C60, symSize: 0x28 }
  - { offset: 0xD149, size: 0x8, addend: 0x0, symName: __RINvYINtNtCsfvfooZQ3Axs_4core6option4IterNtNtCscOYdFFY2T5N_3std4path7PathBufENtNtNtNtB8_4iter6traits8iterator8Iterator5chainB3_ECsceeBBjCCtRQ_7autocfg, symObjAddr: 0x1694, symBinAddr: 0x100004B24, symSize: 0xA8 }
  - { offset: 0xD1CA, size: 0x8, addend: 0x0, symName: __RNvXNtNtNtCsfvfooZQ3Axs_4core4iter6traits7collectINtNtB8_6option4IterNtNtCscOYdFFY2T5N_3std4path7PathBufENtB2_12IntoIterator9into_iterCsceeBBjCCtRQ_7autocfg, symObjAddr: 0x2424, symBinAddr: 0x1000058B4, symSize: 0x14 }
  - { offset: 0xD3B9, size: 0x8, addend: 0x0, symName: __RNvXs2_NtNtCsfvfooZQ3Axs_4core3str7patterncNtB5_7Pattern13into_searcherCsceeBBjCCtRQ_7autocfg, symObjAddr: 0x2504, symBinAddr: 0x100005994, symSize: 0x114 }
  - { offset: 0xD4D7, size: 0x8, addend: 0x0, symName: __RNvXs7_NtNtCsfvfooZQ3Axs_4core3str7patternINtB5_18MultiCharEqPatternNCNvMB7_e4trim0ENtB5_7Pattern13into_searcherCsceeBBjCCtRQ_7autocfg, symObjAddr: 0x2B08, symBinAddr: 0x100005EC0, symSize: 0x90 }
  - { offset: 0xD539, size: 0x8, addend: 0x0, symName: __RNvXs8_NtNtCsfvfooZQ3Axs_4core3str7patternINtB5_19MultiCharEqSearcherNCNvMB7_e4trim0ENtB5_8Searcher4nextCsceeBBjCCtRQ_7autocfg, symObjAddr: 0x2B98, symBinAddr: 0x100005F50, symSize: 0x13C }
  - { offset: 0xD65F, size: 0x8, addend: 0x0, symName: __RNvXs9_NtNtCsfvfooZQ3Axs_4core3str7patternINtB5_19MultiCharEqSearcherNCNvMB7_e4trim0ENtB5_15ReverseSearcher9next_backCsceeBBjCCtRQ_7autocfg, symObjAddr: 0x2CD4, symBinAddr: 0x10000608C, symSize: 0x13C }
  - { offset: 0xD7EC, size: 0x8, addend: 0x0, symName: __RNvXs_NtNtCsfvfooZQ3Axs_4core3str7patternNtB4_12CharSearcherNtB4_8Searcher10next_matchCsceeBBjCCtRQ_7autocfg, symObjAddr: 0x2FA4, symBinAddr: 0x10000631C, symSize: 0x384 }
  - { offset: 0xDC8D, size: 0x8, addend: 0x0, symName: __RNvXs_NtNtCsfvfooZQ3Axs_4core3str7patternNtB4_12CharSearcherNtB4_8Searcher8haystackCsceeBBjCCtRQ_7autocfg, symObjAddr: 0x3328, symBinAddr: 0x1000066A0, symSize: 0x20 }
  - { offset: 0xDCC1, size: 0x8, addend: 0x0, symName: __RNvXso_NtNtCsfvfooZQ3Axs_4core3str7patternINtB5_21CharPredicateSearcherNCNvMB7_e4trim0ENtB5_8Searcher11next_rejectCsceeBBjCCtRQ_7autocfg, symObjAddr: 0x35A4, symBinAddr: 0x10000691C, symSize: 0x24 }
  - { offset: 0xDCFE, size: 0x8, addend: 0x0, symName: __RNvXsp_NtNtCsfvfooZQ3Axs_4core3str7patternINtB5_21CharPredicateSearcherNCNvMB7_e4trim0ENtB5_15ReverseSearcher16next_reject_backCsceeBBjCCtRQ_7autocfg, symObjAddr: 0x35C8, symBinAddr: 0x100006940, symSize: 0x24 }
  - { offset: 0xDD3B, size: 0x8, addend: 0x0, symName: __RNvXst_NtNtCsfvfooZQ3Axs_4core3str7patternReNtB5_7Pattern12is_prefix_ofCsceeBBjCCtRQ_7autocfg, symObjAddr: 0x35EC, symBinAddr: 0x100006964, symSize: 0x4C }
  - { offset: 0xDDA2, size: 0x8, addend: 0x0, symName: __RNvXst_NtNtCsfvfooZQ3Axs_4core3str7patternReNtB5_7Pattern15is_contained_inCsceeBBjCCtRQ_7autocfg, symObjAddr: 0x3638, symBinAddr: 0x1000069B0, symSize: 0x1D0 }
  - { offset: 0xE051, size: 0x8, addend: 0x0, symName: __RNvXst_NtNtCsfvfooZQ3Axs_4core3str7patternReNtB5_7Pattern15strip_suffix_ofCsceeBBjCCtRQ_7autocfg, symObjAddr: 0x3808, symBinAddr: 0x100006B80, symSize: 0xE0 }
  - { offset: 0xE25E, size: 0x8, addend: 0x0, symName: __RNvXsv_NtNtCsfvfooZQ3Axs_4core3str7patternNtB5_11StrSearcherNtB5_8Searcher10next_matchCsceeBBjCCtRQ_7autocfg, symObjAddr: 0x3910, symBinAddr: 0x100006C88, symSize: 0x148 }
  - { offset: 0xE2EA, size: 0x8, addend: 0x0, symName: __RNvXsv_NtNtCsfvfooZQ3Axs_4core3str7patternNtB5_11StrSearcherNtB5_8Searcher4nextCsceeBBjCCtRQ_7autocfg, symObjAddr: 0x3A58, symBinAddr: 0x100006DD0, symSize: 0x444 }
  - { offset: 0xE5F5, size: 0x8, addend: 0x0, symName: __RNvXsy_NtNtCsfvfooZQ3Axs_4core3str7patternNtB5_9MatchOnlyNtB5_14TwoWayStrategy16use_early_rejectCsceeBBjCCtRQ_7autocfg, symObjAddr: 0x3E9C, symBinAddr: 0x100007214, symSize: 0xC }
  - { offset: 0xE613, size: 0x8, addend: 0x0, symName: __RNvXsy_NtNtCsfvfooZQ3Axs_4core3str7patternNtB5_9MatchOnlyNtB5_14TwoWayStrategy8matchingCsceeBBjCCtRQ_7autocfg, symObjAddr: 0x3EA8, symBinAddr: 0x100007220, symSize: 0x28 }
  - { offset: 0xE650, size: 0x8, addend: 0x0, symName: __RNvXsy_NtNtCsfvfooZQ3Axs_4core3str7patternNtB5_9MatchOnlyNtB5_14TwoWayStrategy9rejectingCsceeBBjCCtRQ_7autocfg, symObjAddr: 0x3ED0, symBinAddr: 0x100007248, symSize: 0x18 }
  - { offset: 0xE693, size: 0x8, addend: 0x0, symName: __RNvXsz_NtNtCsfvfooZQ3Axs_4core3str7patternNtB5_14RejectAndMatchNtB5_14TwoWayStrategy16use_early_rejectCsceeBBjCCtRQ_7autocfg, symObjAddr: 0x3EE8, symBinAddr: 0x100007260, symSize: 0xC }
  - { offset: 0xE6B1, size: 0x8, addend: 0x0, symName: __RNvXsz_NtNtCsfvfooZQ3Axs_4core3str7patternNtB5_14RejectAndMatchNtB5_14TwoWayStrategy8matchingCsceeBBjCCtRQ_7autocfg, symObjAddr: 0x3EF4, symBinAddr: 0x10000726C, symSize: 0x20 }
  - { offset: 0xE6EE, size: 0x8, addend: 0x0, symName: __RNvXsz_NtNtCsfvfooZQ3Axs_4core3str7patternNtB5_14RejectAndMatchNtB5_14TwoWayStrategy9rejectingCsceeBBjCCtRQ_7autocfg, symObjAddr: 0x3F14, symBinAddr: 0x10000728C, symSize: 0x28 }
  - { offset: 0xE731, size: 0x8, addend: 0x0, symName: __RNvYINtNtNtCsfvfooZQ3Axs_4core3str7pattern19MultiCharEqSearcherNCNvMB7_e4trim0ENtB5_15ReverseSearcher16next_reject_backCsceeBBjCCtRQ_7autocfg, symObjAddr: 0x3F6C, symBinAddr: 0x1000072E4, symSize: 0x90 }
  - { offset: 0xE79C, size: 0x8, addend: 0x0, symName: __RNvYINtNtNtCsfvfooZQ3Axs_4core3str7pattern19MultiCharEqSearcherNCNvMB7_e4trim0ENtB5_8Searcher11next_rejectCsceeBBjCCtRQ_7autocfg, symObjAddr: 0x3FFC, symBinAddr: 0x100007374, symSize: 0x90 }
  - { offset: 0x10303, size: 0x8, addend: 0x0, symName: __RNvNvNtCsfvfooZQ3Axs_4core9ub_checks23maybe_is_nonoverlapping7runtimeCsceeBBjCCtRQ_7autocfg, symObjAddr: 0x2338, symBinAddr: 0x1000057C8, symSize: 0xD8 }
  - { offset: 0x104B6, size: 0x8, addend: 0x0, symName: __RNvXNtCsfvfooZQ3Axs_4core6borrowyINtB2_6BorrowyE6borrowCsceeBBjCCtRQ_7autocfg, symObjAddr: 0x2410, symBinAddr: 0x1000058A0, symSize: 0x14 }
  - { offset: 0x10D99, size: 0x8, addend: 0x0, symName: __RNvNtCse1nGBsou5OW_5alloc5alloc12alloc_zeroedCsceeBBjCCtRQ_7autocfg, symObjAddr: 0x2230, symBinAddr: 0x1000056C0, symSize: 0x84 }
  - { offset: 0x10E30, size: 0x8, addend: 0x0, symName: __RNvNtCse1nGBsou5OW_5alloc5alloc5allocCsceeBBjCCtRQ_7autocfg, symObjAddr: 0x22B4, symBinAddr: 0x100005744, symSize: 0x84 }
  - { offset: 0x10ECC, size: 0x8, addend: 0x0, symName: __RNvXs1_NtCse1nGBsou5OW_5alloc5allocNtB5_6GlobalNtNtCsfvfooZQ3Axs_4core5clone5Clone5cloneCsceeBBjCCtRQ_7autocfg, symObjAddr: 0x2464, symBinAddr: 0x1000058F4, symSize: 0x10 }
  - { offset: 0x10F1D, size: 0x8, addend: 0x0, symName: __RNvXs_NtCse1nGBsou5OW_5alloc5allocNtB4_6GlobalNtNtCsfvfooZQ3Axs_4core5alloc9Allocator10deallocateCsceeBBjCCtRQ_7autocfg, symObjAddr: 0x2EE8, symBinAddr: 0x100006260, symSize: 0x88 }
  - { offset: 0x10FF8, size: 0x8, addend: 0x0, symName: __RNvXs_NtCse1nGBsou5OW_5alloc5allocNtB4_6GlobalNtNtCsfvfooZQ3Axs_4core5alloc9Allocator8allocateCsceeBBjCCtRQ_7autocfg, symObjAddr: 0x2F70, symBinAddr: 0x1000062E8, symSize: 0x34 }
  - { offset: 0x11BBC, size: 0x8, addend: 0x0, symName: __RNvXNvMsT_NtNtNtCse1nGBsou5OW_5alloc11collections5btree4nodeINtB8_6HandleINtB8_7NodeRefNtNtB8_6marker5DyingpppENtB1p_2KVE12drop_key_valINtB2_7DropperINtNtCsfvfooZQ3Axs_4core6option6OptionNtNtNtCscOYdFFY2T5N_3std3ffi6os_str8OsStringEENtNtNtB2s_3ops4drop4Drop4dropCsceeBBjCCtRQ_7autocfg, symObjAddr: 0x2438, symBinAddr: 0x1000058C8, symSize: 0x2C }
  - { offset: 0x11CE6, size: 0x8, addend: 0x0, symName: __RNvXs6_NtCse1nGBsou5OW_5alloc5boxedINtB5_3BoxDINtNtNtCsfvfooZQ3Axs_4core3ops8function5FnMutuEp6OutputINtNtBP_6result6ResultuNtNtNtCscOYdFFY2T5N_3std2io5error5ErrorENtNtBP_6marker4SendNtB2E_4SyncEL_ENtNtBN_4drop4Drop4dropCsceeBBjCCtRQ_7autocfg, symObjAddr: 0x2758, symBinAddr: 0x100005B10, symSize: 0xC4 }
  - { offset: 0x11E1D, size: 0x8, addend: 0x0, symName: __RNvXs6_NtCse1nGBsou5OW_5alloc5boxedINtB5_3BoxDNtNtCsfvfooZQ3Axs_4core5error5ErrorNtNtBM_6marker4SendNtB1j_4SyncEL_ENtNtNtBM_3ops4drop4Drop4dropCsceeBBjCCtRQ_7autocfg, symObjAddr: 0x281C, symBinAddr: 0x100005BD4, symSize: 0xC4 }
  - { offset: 0x11F54, size: 0x8, addend: 0x0, symName: __RNvXs6_NtCse1nGBsou5OW_5alloc5boxedINtB5_3BoxNtNtNtCscOYdFFY2T5N_3std2io5error6CustomENtNtNtCsfvfooZQ3Axs_4core3ops4drop4Drop4dropCsceeBBjCCtRQ_7autocfg, symObjAddr: 0x28E0, symBinAddr: 0x100005C98, symSize: 0xB0 }
  - { offset: 0x1208B, size: 0x8, addend: 0x0, symName: __RNvXs6_NtCse1nGBsou5OW_5alloc5boxedINtB5_3BoxShENtNtNtCsfvfooZQ3Axs_4core3ops4drop4Drop4dropCsceeBBjCCtRQ_7autocfg, symObjAddr: 0x2990, symBinAddr: 0x100005D48, symSize: 0xBC }
  - { offset: 0x121C2, size: 0x8, addend: 0x0, symName: __RNvXs6_NtCse1nGBsou5OW_5alloc5boxedINtB5_3BoxSmENtNtNtCsfvfooZQ3Axs_4core3ops4drop4Drop4dropCsceeBBjCCtRQ_7autocfg, symObjAddr: 0x2A4C, symBinAddr: 0x100005E04, symSize: 0xBC }
  - { offset: 0x123AD, size: 0x8, addend: 0x0, symName: __RNCNvMNtCsceeBBjCCtRQ_7autocfg5rustcNtB4_5Rustc3new0B6_, symObjAddr: 0x4258, symBinAddr: 0x100007518, symSize: 0x44 }
  - { offset: 0x1243D, size: 0x8, addend: 0x0, symName: __RNvNtCsceeBBjCCtRQ_7autocfg5rustc17get_rustc_wrapper, symObjAddr: 0x482C, symBinAddr: 0x100007AEC, symSize: 0x2F0 }
  - { offset: 0x12606, size: 0x8, addend: 0x0, symName: __RINvMNtCsfvfooZQ3Axs_4core6optionINtB3_6OptionNtNtCscOYdFFY2T5N_3std4path7PathBufE14unwrap_or_elseNCNCNCNvCsceeBBjCCtRQ_7autocfg19dir_contains_target000EB1G_, symObjAddr: 0x0, symBinAddr: 0x100003490, symSize: 0x70 }
  - { offset: 0x12669, size: 0x8, addend: 0x0, symName: __RINvMNtCsfvfooZQ3Axs_4core6optionINtB3_6OptionNtNtNtCscOYdFFY2T5N_3std3ffi6os_str8OsStringE14unwrap_or_elseNCNvMNtCsceeBBjCCtRQ_7autocfg5rustcNtB1M_5Rustc3new0EB1O_, symObjAddr: 0x70, symBinAddr: 0x100003500, symSize: 0x70 }
  - { offset: 0x126E4, size: 0x8, addend: 0x0, symName: __RINvMNtCsfvfooZQ3Axs_4core6optionINtB3_6OptionNtNtNtCscOYdFFY2T5N_3std3ffi6os_str8OsStringE3mapNtNtBO_4path7PathBufNvYB1v_INtNtB5_7convert4FromBI_E4fromECsceeBBjCCtRQ_7autocfg, symObjAddr: 0xE0, symBinAddr: 0x100003570, symSize: 0x90 }
  - { offset: 0x1276A, size: 0x8, addend: 0x0, symName: __RINvMNtCsfvfooZQ3Axs_4core6optionINtB3_6OptionRNtNtCscOYdFFY2T5N_3std4path7PathBufE7or_elseNCNvXs_NtNtNtB5_4iter8adapters5chainINtB1y_5ChainIB22_INtB3_4IterBJ_EB2j_EINtB3_8IntoIterBI_EENtNtNtB1C_6traits8iterator8Iterator4next0ECsceeBBjCCtRQ_7autocfg, symObjAddr: 0x170, symBinAddr: 0x100003600, symSize: 0xA8 }
  - { offset: 0x127D9, size: 0x8, addend: 0x0, symName: __RINvMNtCsfvfooZQ3Axs_4core6optionINtB3_6OptionRNtNtCscOYdFFY2T5N_3std4path7PathBufE7or_elseNCNvXs_NtNtNtB5_4iter8adapters5chainINtB1y_5ChainINtB3_4IterBJ_EB2e_ENtNtNtB1C_6traits8iterator8Iterator4next0ECsceeBBjCCtRQ_7autocfg, symObjAddr: 0x218, symBinAddr: 0x1000036A8, symSize: 0xA8 }
  - { offset: 0x12883, size: 0x8, addend: 0x0, symName: __RINvMNtCsfvfooZQ3Axs_4core6optionINtB3_6OptionRNtNtNtCscOYdFFY2T5N_3std3ffi6os_str8OsStringE8and_thenbNCNvCsceeBBjCCtRQ_7autocfg19dir_contains_target0EB1G_, symObjAddr: 0x2C0, symBinAddr: 0x100003750, symSize: 0x78 }
  - { offset: 0x1295F, size: 0x8, addend: 0x0, symName: __RINvMNtCsfvfooZQ3Axs_4core6optionINtB3_6OptionReE10ok_or_elseNtNtCsceeBBjCCtRQ_7autocfg5error5ErrorNCNvMNtB11_7versionNtB1E_7Version12from_commands0_0EB11_, symObjAddr: 0x338, symBinAddr: 0x1000037C8, symSize: 0x80 }
  - { offset: 0x129CA, size: 0x8, addend: 0x0, symName: __RINvMNtCsfvfooZQ3Axs_4core6optionINtB3_6OptionReE10ok_or_elseNtNtCsceeBBjCCtRQ_7autocfg5error5ErrorNCNvMNtB11_7versionNtB1E_7Version12from_commands1_0EB11_, symObjAddr: 0x3B8, symBinAddr: 0x100003848, symSize: 0x80 }
  - { offset: 0x12A35, size: 0x8, addend: 0x0, symName: __RINvMNtCsfvfooZQ3Axs_4core6optionINtB3_6OptionReE10ok_or_elseNtNtCsceeBBjCCtRQ_7autocfg5error5ErrorNCNvMNtB11_7versionNtB1E_7Version12from_commands_0EB11_, symObjAddr: 0x438, symBinAddr: 0x1000038C8, symSize: 0x80 }
  - { offset: 0x12BB3, size: 0x8, addend: 0x0, symName: __RINvMNtCsfvfooZQ3Axs_4core6optionINtB3_6OptionReE11map_or_elseNtNtCse1nGBsou5OW_5alloc6string6StringNCNvNtB12_3fmt6format0NvYeNtNtB12_6borrow7ToOwned8to_ownedECsceeBBjCCtRQ_7autocfg, symObjAddr: 0x4B8, symBinAddr: 0x100003948, symSize: 0xCC }
  - { offset: 0x12C43, size: 0x8, addend: 0x0, symName: __RINvMNtCsfvfooZQ3Axs_4core6optionINtB3_6OptionReE3mapbNCNCNCNvCsceeBBjCCtRQ_7autocfg19dir_contains_target00s_0EBY_, symObjAddr: 0x584, symBinAddr: 0x100003A14, symSize: 0x6C }
  - { offset: 0x12CBB, size: 0x8, addend: 0x0, symName: __RINvMNtCsfvfooZQ3Axs_4core6optionINtB3_6OptionReE8and_thenbNCNCNvCsceeBBjCCtRQ_7autocfg19dir_contains_target00EB11_, symObjAddr: 0x5F0, symBinAddr: 0x100003A80, symSize: 0x84 }
  - { offset: 0x12D84, size: 0x8, addend: 0x0, symName: __RINvMs2_NtNtCscOYdFFY2T5N_3std6thread5localINtB6_8LocalKeyINtNtCsfvfooZQ3Axs_4core4cell4CellTyyEEE4withNCNvMNtNtBa_4hash6randomNtB1I_11RandomState3new0B21_ECsceeBBjCCtRQ_7autocfg, symObjAddr: 0x674, symBinAddr: 0x100003B04, symSize: 0x50 }
  - { offset: 0x12E3D, size: 0x8, addend: 0x0, symName: __RINvMs2_NtNtCscOYdFFY2T5N_3std6thread5localINtB6_8LocalKeyINtNtCsfvfooZQ3Axs_4core4cell4CellTyyEEE8try_withNCNvMNtNtBa_4hash6randomNtB1M_11RandomState3new0B25_ECsceeBBjCCtRQ_7autocfg, symObjAddr: 0x6C4, symBinAddr: 0x100003B54, symSize: 0xE8 }
  - { offset: 0x130B9, size: 0x8, addend: 0x0, symName: __RINvMsh_NtNtNtCse1nGBsou5OW_5alloc11collections5btree4nodeINtB6_7NodeRefNtNtB6_6marker5DyingNtNtNtCscOYdFFY2T5N_3std3ffi6os_str8OsStringINtNtCsfvfooZQ3Axs_4core6option6OptionB1s_ENtB1a_14LeafOrInternalE21deallocate_and_ascendNtNtBc_5alloc6GlobalECsceeBBjCCtRQ_7autocfg, symObjAddr: 0x7AC, symBinAddr: 0x100003C3C, symSize: 0x178 }
  - { offset: 0x132FF, size: 0x8, addend: 0x0, symName: __RINvMsj_NtNtNtCse1nGBsou5OW_5alloc11collections5btree8navigateINtNtB8_4node6HandleINtB11_7NodeRefNtNtB11_6marker5DyingNtNtNtCscOYdFFY2T5N_3std3ffi6os_str8OsStringINtNtCsfvfooZQ3Axs_4core6option6OptionB1S_ENtB1z_4LeafENtB1z_4EdgeE16deallocating_endNtNtBc_5alloc6GlobalECsceeBBjCCtRQ_7autocfg, symObjAddr: 0x924, symBinAddr: 0x100003DB4, symSize: 0xD8 }
  - { offset: 0x13580, size: 0x8, addend: 0x0, symName: __RINvMsj_NtNtNtCse1nGBsou5OW_5alloc11collections5btree8navigateINtNtB8_4node6HandleINtB11_7NodeRefNtNtB11_6marker5DyingNtNtNtCscOYdFFY2T5N_3std3ffi6os_str8OsStringINtNtCsfvfooZQ3Axs_4core6option6OptionB1S_ENtB1z_4LeafENtB1z_4EdgeE17deallocating_nextNtNtBc_5alloc6GlobalECsceeBBjCCtRQ_7autocfg, symObjAddr: 0x9FC, symBinAddr: 0x100003E8C, symSize: 0x254 }
  - { offset: 0x137E8, size: 0x8, addend: 0x0, symName: __RINvMsx_NtNtCsfvfooZQ3Axs_4core3str7patternNtB6_14TwoWaySearcher4nextNtB6_14RejectAndMatchECsceeBBjCCtRQ_7autocfg, symObjAddr: 0xC50, symBinAddr: 0x1000040E0, symSize: 0x4F8 }
  - { offset: 0x13B1A, size: 0x8, addend: 0x0, symName: __RINvMsx_NtNtCsfvfooZQ3Axs_4core3str7patternNtB6_14TwoWaySearcher4nextNtB6_9MatchOnlyECsceeBBjCCtRQ_7autocfg, symObjAddr: 0x1148, symBinAddr: 0x1000045D8, symSize: 0x4F8 }
  - { offset: 0x13E2C, size: 0x8, addend: 0x0, symName: __RINvXs8_NtCsloNvcHxBCre_9hashbrown3setINtB6_7HashSetyNtNtNtCscOYdFFY2T5N_3std4hash6random11RandomStateEINtNtNtNtCsfvfooZQ3Axs_4core4iter6traits7collect6ExtendyE6extendINtNtNtB1M_3ops5range5RangeyEECsceeBBjCCtRQ_7autocfg, symObjAddr: 0x1640, symBinAddr: 0x100004AD0, symSize: 0x54 }
  - { offset: 0x13E8E, size: 0x8, addend: 0x0, symName: __RNCINvXs8_NtCsloNvcHxBCre_9hashbrown3setINtB8_7HashSetyNtNtNtCscOYdFFY2T5N_3std4hash6random11RandomStateEINtNtNtNtCsfvfooZQ3Axs_4core4iter6traits7collect6ExtendyE6extendINtNtNtB1O_3ops5range5RangeyEE0CsceeBBjCCtRQ_7autocfg, symObjAddr: 0x173C, symBinAddr: 0x100004BCC, symSize: 0x1C }
  - { offset: 0x1424F, size: 0x8, addend: 0x0, symName: __RNvMNtCse1nGBsou5OW_5alloc5allocNtB2_6Global10alloc_implCsceeBBjCCtRQ_7autocfg, symObjAddr: 0x1758, symBinAddr: 0x100004BE8, symSize: 0x194 }
  - { offset: 0x1455C, size: 0x8, addend: 0x0, symName: __RNvMNtCsfvfooZQ3Axs_4core6optionINtB2_6OptionINtNtB4_4cell4CellTyyEEE4takeCsceeBBjCCtRQ_7autocfg, symObjAddr: 0x18EC, symBinAddr: 0x100004D7C, symSize: 0x3C }
  - { offset: 0x1461A, size: 0x8, addend: 0x0, symName: __RNvMNtCsfvfooZQ3Axs_4core6optionINtB2_6OptionNtNtCscOYdFFY2T5N_3std4path7PathBufE4iterCsceeBBjCCtRQ_7autocfg, symObjAddr: 0x1928, symBinAddr: 0x100004DB8, symSize: 0x50 }
  - { offset: 0x14687, size: 0x8, addend: 0x0, symName: __RNvMNtCsfvfooZQ3Axs_4core6optionINtB2_6OptionNtNtCscOYdFFY2T5N_3std7process10ChildStdinE4takeCsceeBBjCCtRQ_7autocfg, symObjAddr: 0x1978, symBinAddr: 0x100004E08, symSize: 0x2C }
  - { offset: 0x1470D, size: 0x8, addend: 0x0, symName: __RNvMNtCsfvfooZQ3Axs_4core6optionINtB2_6OptionNtNtCscOYdFFY2T5N_3std7process10ChildStdinE6expectCsceeBBjCCtRQ_7autocfg, symObjAddr: 0x19A4, symBinAddr: 0x100004E34, symSize: 0x5C }
  - { offset: 0x14762, size: 0x8, addend: 0x0, symName: __RNvMNtCsfvfooZQ3Axs_4core6optionINtB2_6OptionNtNtCse1nGBsou5OW_5alloc6string6StringE6as_refCsceeBBjCCtRQ_7autocfg, symObjAddr: 0x1A00, symBinAddr: 0x100004E90, symSize: 0x50 }
  - { offset: 0x147B9, size: 0x8, addend: 0x0, symName: __RNvMNtCsfvfooZQ3Axs_4core6optionINtB2_6OptionNtNtNtCscOYdFFY2T5N_3std3ffi6os_str8OsStringE6as_refCsceeBBjCCtRQ_7autocfg, symObjAddr: 0x1A50, symBinAddr: 0x100004EE0, symSize: 0x50 }
  - { offset: 0x1481F, size: 0x8, addend: 0x0, symName: __RNvMNtCsfvfooZQ3Axs_4core6optionINtB2_6OptionNtNtNtCscOYdFFY2T5N_3std3ffi6os_str8OsStringE7is_noneCsceeBBjCCtRQ_7autocfg, symObjAddr: 0x1AA0, symBinAddr: 0x100004F30, symSize: 0x2C }
  - { offset: 0x14869, size: 0x8, addend: 0x0, symName: __RNvMNtCsfvfooZQ3Axs_4core6optionINtB2_6OptionbE9unwrap_orCsceeBBjCCtRQ_7autocfg, symObjAddr: 0x1ACC, symBinAddr: 0x100004F5C, symSize: 0x5C }
  - { offset: 0x148CF, size: 0x8, addend: 0x0, symName: __RNvMNtNtNtCsloNvcHxBCre_9hashbrown7control5group4neonNtB2_5Group10match_fullCsceeBBjCCtRQ_7autocfg, symObjAddr: 0x1B28, symBinAddr: 0x100004FB8, symSize: 0x68 }
  - { offset: 0x14907, size: 0x8, addend: 0x0, symName: __RNvMNtNtNtCsloNvcHxBCre_9hashbrown7control5group4neonNtB2_5Group22match_empty_or_deletedCsceeBBjCCtRQ_7autocfg, symObjAddr: 0x1B90, symBinAddr: 0x100005020, symSize: 0x68 }
  - { offset: 0x1493F, size: 0x8, addend: 0x0, symName: __RNvMNtNtNtCsloNvcHxBCre_9hashbrown7control5group4neonNtB2_5Group44convert_special_to_empty_and_full_to_deletedCsceeBBjCCtRQ_7autocfg, symObjAddr: 0x1BF8, symBinAddr: 0x100005088, symSize: 0x88 }
  - { offset: 0x14977, size: 0x8, addend: 0x0, symName: __RNvMNtNtNtCsloNvcHxBCre_9hashbrown7control5group4neonNtB2_5Group9match_tagCsceeBBjCCtRQ_7autocfg, symObjAddr: 0x1C80, symBinAddr: 0x100005110, symSize: 0x7C }
  - { offset: 0x14A93, size: 0x8, addend: 0x0, symName: __RNvMsO_NtNtNtCse1nGBsou5OW_5alloc11collections5btree4nodeINtB5_6HandleINtB5_7NodeRefNtNtB5_6marker5DyingNtNtNtCscOYdFFY2T5N_3std3ffi6os_str8OsStringINtNtCsfvfooZQ3Axs_4core6option6OptionB1E_ENtB1m_8InternalENtB1m_4EdgeE7descendCsceeBBjCCtRQ_7autocfg, symObjAddr: 0x1CFC, symBinAddr: 0x10000518C, symSize: 0x94 }
  - { offset: 0x14D98, size: 0x8, addend: 0x0, symName: __RNvMsT_NtNtNtCse1nGBsou5OW_5alloc11collections5btree4nodeINtB5_6HandleINtB5_7NodeRefNtNtB5_6marker5DyingNtNtNtCscOYdFFY2T5N_3std3ffi6os_str8OsStringINtNtCsfvfooZQ3Axs_4core6option6OptionB1E_ENtB1m_14LeafOrInternalENtB1m_2KVE12drop_key_valCsceeBBjCCtRQ_7autocfg, symObjAddr: 0x1D90, symBinAddr: 0x100005220, symSize: 0x128 }
  - { offset: 0x150C4, size: 0x8, addend: 0x0, symName: __RNvMse_NtNtNtCse1nGBsou5OW_5alloc11collections5btree4nodeINtB5_7NodeRefNtNtB5_6marker5DyingNtNtNtCscOYdFFY2T5N_3std3ffi6os_str8OsStringINtNtCsfvfooZQ3Axs_4core6option6OptionB1r_ENtB19_14LeafOrInternalE6ascendCsceeBBjCCtRQ_7autocfg, symObjAddr: 0x1EB8, symBinAddr: 0x100005348, symSize: 0x168 }
  - { offset: 0x15430, size: 0x8, addend: 0x0, symName: __RNvMsp_NtNtNtCse1nGBsou5OW_5alloc11collections5btree8navigateINtNtB7_4node6HandleINtB10_7NodeRefNtNtB10_6marker5DyingNtNtNtCscOYdFFY2T5N_3std3ffi6os_str8OsStringINtNtCsfvfooZQ3Axs_4core6option6OptionB1R_ENtB1y_14LeafOrInternalENtB1y_2KVE14next_leaf_edgeCsceeBBjCCtRQ_7autocfg, symObjAddr: 0x2020, symBinAddr: 0x1000054B0, symSize: 0x210 }
  - { offset: 0x15C90, size: 0x8, addend: 0x0, symName: __RNvMNtCsceeBBjCCtRQ_7autocfg5rustcNtB2_5Rustc3new, symObjAddr: 0x4144, symBinAddr: 0x100007404, symSize: 0x114 }
  - { offset: 0x15D98, size: 0x8, addend: 0x0, symName: __RNvMNtCsceeBBjCCtRQ_7autocfg5rustcNtB2_5Rustc7command, symObjAddr: 0x429C, symBinAddr: 0x10000755C, symSize: 0x1B4 }
  - { offset: 0x15E36, size: 0x8, addend: 0x0, symName: __RNvMNtCsceeBBjCCtRQ_7autocfg5rustcNtB2_5Rustc7version, symObjAddr: 0x4450, symBinAddr: 0x100007710, symSize: 0x3DC }
  - { offset: 0x16049, size: 0x8, addend: 0x0, symName: __RINvMNtCsfvfooZQ3Axs_4core3stre11starts_withReECsceeBBjCCtRQ_7autocfg, symObjAddr: 0x0, symBinAddr: 0x100007DDC, symSize: 0x4C }
  - { offset: 0x1616E, size: 0x8, addend: 0x0, symName: __RNvNvMCsceeBBjCCtRQ_7autocfgNtB4_7AutoCfg14new_crate_name2ID, symObjAddr: 0x1DC38, symBinAddr: 0x10007DF00, symSize: 0x0 }
  - { offset: 0x1617D, size: 0x8, addend: 0x0, symName: __RNvCsceeBBjCCtRQ_7autocfg4emit, symObjAddr: 0x1908, symBinAddr: 0x100009480, symSize: 0x68 }
  - { offset: 0x161A5, size: 0x8, addend: 0x0, symName: __RNvCsceeBBjCCtRQ_7autocfg10rerun_path, symObjAddr: 0x1970, symBinAddr: 0x1000094E8, symSize: 0x68 }
  - { offset: 0x161CD, size: 0x8, addend: 0x0, symName: __RNvCsceeBBjCCtRQ_7autocfg16emit_possibility, symObjAddr: 0x1A40, symBinAddr: 0x100009550, symSize: 0x68 }
  - { offset: 0x16575, size: 0x8, addend: 0x0, symName: __RNvCsceeBBjCCtRQ_7autocfg3new, symObjAddr: 0x1AA8, symBinAddr: 0x1000095B8, symSize: 0xD4 }
  - { offset: 0x165C6, size: 0x8, addend: 0x0, symName: __RNvCsceeBBjCCtRQ_7autocfg6mangle, symObjAddr: 0x3CA0, symBinAddr: 0x10000AAA8, symSize: 0x48 }
  - { offset: 0x165F9, size: 0x8, addend: 0x0, symName: __RNCNvCsceeBBjCCtRQ_7autocfg6mangle0B3_, symObjAddr: 0x3CE8, symBinAddr: 0x10000AAF0, symSize: 0xFC }
  - { offset: 0x1663A, size: 0x8, addend: 0x0, symName: __RNvCsceeBBjCCtRQ_7autocfg19dir_contains_target, symObjAddr: 0x3DE4, symBinAddr: 0x10000ABEC, symSize: 0xD8 }
  - { offset: 0x1668C, size: 0x8, addend: 0x0, symName: __RNCNvCsceeBBjCCtRQ_7autocfg19dir_contains_target0B3_, symObjAddr: 0x3EBC, symBinAddr: 0x10000ACC4, symSize: 0xC8 }
  - { offset: 0x166E1, size: 0x8, addend: 0x0, symName: __RNCNCNvCsceeBBjCCtRQ_7autocfg19dir_contains_target00B5_, symObjAddr: 0x3F84, symBinAddr: 0x10000AD8C, symSize: 0x100 }
  - { offset: 0x1674E, size: 0x8, addend: 0x0, symName: __RNCNCNCNvCsceeBBjCCtRQ_7autocfg19dir_contains_target000B7_, symObjAddr: 0x4084, symBinAddr: 0x10000AE8C, symSize: 0x3C }
  - { offset: 0x16778, size: 0x8, addend: 0x0, symName: __RNCNCNCNvCsceeBBjCCtRQ_7autocfg19dir_contains_target00s_0B7_, symObjAddr: 0x40C0, symBinAddr: 0x10000AEC8, symSize: 0x54 }
  - { offset: 0x167C1, size: 0x8, addend: 0x0, symName: __RNvCsceeBBjCCtRQ_7autocfg9rustflags, symObjAddr: 0x4114, symBinAddr: 0x10000AF1C, symSize: 0x3B0 }
  - { offset: 0x16831, size: 0x8, addend: 0x0, symName: __RNCNvCsceeBBjCCtRQ_7autocfg9rustflags0B3_, symObjAddr: 0x44C4, symBinAddr: 0x10000B2CC, symSize: 0x44 }
  - { offset: 0x16872, size: 0x8, addend: 0x0, symName: __RNvCsceeBBjCCtRQ_7autocfg8new_uuid, symObjAddr: 0x4508, symBinAddr: 0x10000B310, symSize: 0x134 }
  - { offset: 0x16BB2, size: 0x8, addend: 0x0, symName: __RNvYNtNtNtNtNtCscOYdFFY2T5N_3std3sys3pal4unix5stdio6StderrNtNtBc_2io5Write9write_allCsceeBBjCCtRQ_7autocfg, symObjAddr: 0x1660, symBinAddr: 0x1000091D8, symSize: 0x180 }
  - { offset: 0x16C53, size: 0x8, addend: 0x0, symName: __RNvYNtNtNtNtNtCscOYdFFY2T5N_3std3sys3pal4unix5stdio6StderrNtNtBc_2io5Write9write_fmtCsceeBBjCCtRQ_7autocfg, symObjAddr: 0x17E0, symBinAddr: 0x100009358, symSize: 0x128 }
  - { offset: 0x17157, size: 0x8, addend: 0x0, symName: __RINvXNtNtNtNtCscOYdFFY2T5N_3std3sys12thread_local6native4lazyzNtB3_14DestroyedState13register_dtorINtNtCsfvfooZQ3Axs_4core4cell4CellTyyEEECsceeBBjCCtRQ_7autocfg, symObjAddr: 0x758, symBinAddr: 0x1000082D0, symSize: 0x10 }
  - { offset: 0x17AA2, size: 0x8, addend: 0x0, symName: __RNvNvMs9_NtCsfvfooZQ3Axs_4core3numj13unchecked_add18precondition_checkCsceeBBjCCtRQ_7autocfg, symObjAddr: 0x10D0, symBinAddr: 0x100008C48, symSize: 0x44 }
  - { offset: 0x17B04, size: 0x8, addend: 0x0, symName: __RNvNvMs9_NtCsfvfooZQ3Axs_4core3numj13unchecked_sub18precondition_checkCsceeBBjCCtRQ_7autocfg, symObjAddr: 0x1114, symBinAddr: 0x100008C8C, symSize: 0x40 }
  - { offset: 0x17B41, size: 0x8, addend: 0x0, symName: __RNvMsu_NtCsfvfooZQ3Axs_4core3numj16from_ascii_radixCsceeBBjCCtRQ_7autocfg, symObjAddr: 0xA1C, symBinAddr: 0x100008594, symSize: 0x58C }
  - { offset: 0x17DE1, size: 0x8, addend: 0x0, symName: __RNvNvMs3_NtCsfvfooZQ3Axs_4core3numi13unchecked_neg18precondition_checkCsceeBBjCCtRQ_7autocfg, symObjAddr: 0x1040, symBinAddr: 0x100008BB8, symSize: 0x4C }
  - { offset: 0x17E7B, size: 0x8, addend: 0x0, symName: __RNvNvMs7_NtCsfvfooZQ3Axs_4core3numy13unchecked_add18precondition_checkCsceeBBjCCtRQ_7autocfg, symObjAddr: 0x108C, symBinAddr: 0x100008C04, symSize: 0x44 }
  - { offset: 0x17F08, size: 0x8, addend: 0x0, symName: __RNvXst_NtCsfvfooZQ3Axs_4core3numjNtNtNtB7_3str6traits7FromStr8from_strCsceeBBjCCtRQ_7autocfg, symObjAddr: 0x1630, symBinAddr: 0x1000091A8, symSize: 0x30 }
  - { offset: 0x17FBF, size: 0x8, addend: 0x0, symName: __RINvMNtCsfvfooZQ3Axs_4core3stre11starts_withReECsceeBBjCCtRQ_7autocfg, symObjAddr: 0x0, symBinAddr: 0x100007DDC, symSize: 0x4C }
  - { offset: 0x18039, size: 0x8, addend: 0x0, symName: __RINvMNtCsfvfooZQ3Axs_4core3stre12trim_matchesNCNvB2_4trim0ECsceeBBjCCtRQ_7autocfg, symObjAddr: 0x4C, symBinAddr: 0x100007E28, symSize: 0x128 }
  - { offset: 0x181E3, size: 0x8, addend: 0x0, symName: __RINvMNtCsfvfooZQ3Axs_4core3stre4findcECsceeBBjCCtRQ_7autocfg, symObjAddr: 0x174, symBinAddr: 0x100007F50, symSize: 0xC8 }
  - { offset: 0x1826B, size: 0x8, addend: 0x0, symName: __RINvMNtCsfvfooZQ3Axs_4core3stre5parsejECsceeBBjCCtRQ_7autocfg, symObjAddr: 0x23C, symBinAddr: 0x100008018, symSize: 0x28 }
  - { offset: 0x182A2, size: 0x8, addend: 0x0, symName: __RINvMNtCsfvfooZQ3Axs_4core3stre5splitcECsceeBBjCCtRQ_7autocfg, symObjAddr: 0x264, symBinAddr: 0x100008040, symSize: 0x98 }
  - { offset: 0x1831B, size: 0x8, addend: 0x0, symName: __RINvMNtCsfvfooZQ3Axs_4core3stre6splitncECsceeBBjCCtRQ_7autocfg, symObjAddr: 0x2FC, symBinAddr: 0x1000080D8, symSize: 0xD0 }
  - { offset: 0x18396, size: 0x8, addend: 0x0, symName: __RINvMNtCsfvfooZQ3Axs_4core3stre8containsReECsceeBBjCCtRQ_7autocfg, symObjAddr: 0x3CC, symBinAddr: 0x1000081A8, symSize: 0x4C }
  - { offset: 0x183E1, size: 0x8, addend: 0x0, symName: __RNCNvMNtCsfvfooZQ3Axs_4core3stre4trim0CsceeBBjCCtRQ_7autocfg, symObjAddr: 0x768, symBinAddr: 0x1000082E0, symSize: 0x94 }
  - { offset: 0x1844E, size: 0x8, addend: 0x0, symName: __RNvMNtCsfvfooZQ3Axs_4core3stre3lenCsceeBBjCCtRQ_7autocfg, symObjAddr: 0x7FC, symBinAddr: 0x100008374, symSize: 0x1C }
  - { offset: 0x1847A, size: 0x8, addend: 0x0, symName: __RNvMNtCsfvfooZQ3Axs_4core3stre4trimCsceeBBjCCtRQ_7autocfg, symObjAddr: 0x818, symBinAddr: 0x100008390, symSize: 0x28 }
  - { offset: 0x184A8, size: 0x8, addend: 0x0, symName: __RNvMNtCsfvfooZQ3Axs_4core3stre5charsCsceeBBjCCtRQ_7autocfg, symObjAddr: 0x840, symBinAddr: 0x1000083B8, symSize: 0x20 }
  - { offset: 0x1854A, size: 0x8, addend: 0x0, symName: __RNvMNtCsfvfooZQ3Axs_4core3stre5linesCsceeBBjCCtRQ_7autocfg, symObjAddr: 0x860, symBinAddr: 0x1000083D8, symSize: 0xC4 }
  - { offset: 0x185DA, size: 0x8, addend: 0x0, symName: __RNvMNtCsfvfooZQ3Axs_4core3stre8is_emptyCsceeBBjCCtRQ_7autocfg, symObjAddr: 0x924, symBinAddr: 0x10000849C, symSize: 0x1C }
  - { offset: 0x1883A, size: 0x8, addend: 0x0, symName: __RNvXs3_NtNtCsfvfooZQ3Axs_4core3str7patternNCNvMB7_e4trim0NtB5_11MultiCharEq7matchesCsceeBBjCCtRQ_7autocfg, symObjAddr: 0x1584, symBinAddr: 0x1000090FC, symSize: 0x28 }
  - { offset: 0x18886, size: 0x8, addend: 0x0, symName: __RNvXsr_NtNtCsfvfooZQ3Axs_4core3str7patternNCNvMB7_e4trim0NtB5_7Pattern13into_searcherCsceeBBjCCtRQ_7autocfg, symObjAddr: 0x15E8, symBinAddr: 0x100009160, symSize: 0x48 }
  - { offset: 0x1892F, size: 0x8, addend: 0x0, symName: __RNvXs3_NtCsfvfooZQ3Axs_4core3strNtB5_8LinesMapINtNtNtB7_3ops8function2FnTReEE4callCsceeBBjCCtRQ_7autocfg, symObjAddr: 0x1408, symBinAddr: 0x100008F80, symSize: 0x17C }
  - { offset: 0x18A5A, size: 0x8, addend: 0x0, symName: __RNvXs4_NtCsfvfooZQ3Axs_4core3strNtB5_8LinesMapINtNtNtB7_3ops8function5FnMutTReEE8call_mutCsceeBBjCCtRQ_7autocfg, symObjAddr: 0x15AC, symBinAddr: 0x100009124, symSize: 0x3C }
  - { offset: 0x19B31, size: 0x8, addend: 0x0, symName: __RNvXs1k_NtNtCsfvfooZQ3Axs_4core3fmt3numhNtB8_5Debug3fmtCsceeBBjCCtRQ_7autocfg, symObjAddr: 0x12B4, symBinAddr: 0x100008E2C, symSize: 0x90 }
  - { offset: 0x19BAB, size: 0x8, addend: 0x0, symName: __RNvXs1p_NtNtCsfvfooZQ3Axs_4core3fmt3numjNtB8_5Debug3fmtCsceeBBjCCtRQ_7autocfg, symObjAddr: 0x1344, symBinAddr: 0x100008EBC, symSize: 0x90 }
  - { offset: 0x19CCF, size: 0x8, addend: 0x0, symName: __RNvXs1_NtNtNtCsfvfooZQ3Axs_4core3ops8function5implsQNCNvCsceeBBjCCtRQ_7autocfg9rustflags0INtB7_5FnMutTRReEE8call_mutBS_, symObjAddr: 0x1284, symBinAddr: 0x100008DFC, symSize: 0x30 }
  - { offset: 0x19D24, size: 0x8, addend: 0x0, symName: __RNvXs2_NtNtNtCsfvfooZQ3Axs_4core3ops8function5implsQNtNtBb_3str8LinesMapINtB7_6FnOnceTReEE9call_onceCsceeBBjCCtRQ_7autocfg, symObjAddr: 0x13D4, symBinAddr: 0x100008F4C, symSize: 0x34 }
  - { offset: 0x19F92, size: 0x8, addend: 0x0, symName: __RINvNtNtNtCsfvfooZQ3Axs_4core9core_arch10arm_shared4neon13vget_lane_u64Kl0_ECsceeBBjCCtRQ_7autocfg, symObjAddr: 0x740, symBinAddr: 0x1000082B8, symSize: 0x18 }
  - { offset: 0x1A00C, size: 0x8, addend: 0x0, symName: __RNvNtNtNtCsfvfooZQ3Axs_4core9core_arch10arm_shared4neon9vdup_n_u8CsceeBBjCCtRQ_7autocfg, symObjAddr: 0xFA8, symBinAddr: 0x100008B20, symSize: 0x34 }
  - { offset: 0x1A08F, size: 0x8, addend: 0x0, symName: __RNvNtNtNtCsfvfooZQ3Axs_4core9core_arch7aarch644neon7vld1_u8CsceeBBjCCtRQ_7autocfg, symObjAddr: 0xFDC, symBinAddr: 0x100008B54, symSize: 0x2C }
  - { offset: 0x1A0BD, size: 0x8, addend: 0x0, symName: __RNvNtNtNtCsfvfooZQ3Axs_4core9core_arch7aarch644neon7vst1_u8CsceeBBjCCtRQ_7autocfg, symObjAddr: 0x1008, symBinAddr: 0x100008B80, symSize: 0x38 }
  - { offset: 0x1A1F3, size: 0x8, addend: 0x0, symName: __RNvNvXs0_NtNtCsfvfooZQ3Axs_4core5slice5indexjINtB7_10SliceIndexSpE13get_unchecked18precondition_checkCsceeBBjCCtRQ_7autocfg, symObjAddr: 0x1154, symBinAddr: 0x100008CCC, symSize: 0x40 }
  - { offset: 0x1A22F, size: 0x8, addend: 0x0, symName: __RNvNvXs0_NtNtCsfvfooZQ3Axs_4core5slice5indexjINtB7_10SliceIndexSpE17get_unchecked_mut18precondition_checkCsceeBBjCCtRQ_7autocfg, symObjAddr: 0x1194, symBinAddr: 0x100008D0C, symSize: 0x40 }
  - { offset: 0x1A271, size: 0x8, addend: 0x0, symName: __RNvNvXs2_NtNtCsfvfooZQ3Axs_4core5slice5indexINtNtNtBb_3ops5range5RangejEINtB7_10SliceIndexSpE13get_unchecked18precondition_checkCsceeBBjCCtRQ_7autocfg, symObjAddr: 0x11D4, symBinAddr: 0x100008D4C, symSize: 0x60 }
  - { offset: 0x1A740, size: 0x8, addend: 0x0, symName: __RINvMs0_NtNtNtNtCscOYdFFY2T5N_3std3sys12thread_local6native4lazyINtB6_7StorageINtNtCsfvfooZQ3Axs_4core4cell4CellTyyEEzE10initializeNvNvNvMNtNtBe_4hash6randomNtB2c_11RandomState3new4KEYS6___initECsceeBBjCCtRQ_7autocfg, symObjAddr: 0x418, symBinAddr: 0x100058370, symSize: 0x264 }
  - { offset: 0x1A994, size: 0x8, addend: 0x0, symName: __RINvMs0_NtNtNtNtCscOYdFFY2T5N_3std3sys12thread_local6native4lazyINtB6_7StorageINtNtCsfvfooZQ3Axs_4core4cell4CellTyyEEzE11get_or_initNvNvNvMNtNtBe_4hash6randomNtB2d_11RandomState3new4KEYS6___initECsceeBBjCCtRQ_7autocfg, symObjAddr: 0x67C, symBinAddr: 0x1000081F4, symSize: 0xC4 }
  - { offset: 0x1AB0A, size: 0x8, addend: 0x0, symName: __RNvMs1e_NtNtCsfvfooZQ3Axs_4core4sync6atomicNtB6_11AtomicUsize9fetch_addCsceeBBjCCtRQ_7autocfg, symObjAddr: 0x940, symBinAddr: 0x1000084B8, symSize: 0xDC }
  - { offset: 0x1AC58, size: 0x8, addend: 0x0, symName: __RNvXCsloNvcHxBCre_9hashbrownyINtB2_10EquivalentyE10equivalentCsceeBBjCCtRQ_7autocfg, symObjAddr: 0x1234, symBinAddr: 0x100008DAC, symSize: 0x50 }
  - { offset: 0x1B568, size: 0x8, addend: 0x0, symName: __RNvMCsceeBBjCCtRQ_7autocfgNtB2_7AutoCfg3new, symObjAddr: 0x1B7C, symBinAddr: 0x10000968C, symSize: 0xC8 }
  - { offset: 0x1B599, size: 0x8, addend: 0x0, symName: __RINvMCsceeBBjCCtRQ_7autocfgNtB3_7AutoCfg8with_dirNtNtNtCscOYdFFY2T5N_3std3ffi6os_str8OsStringEB3_, symObjAddr: 0x1C44, symBinAddr: 0x100009754, symSize: 0x6C8 }
  - { offset: 0x1B6C2, size: 0x8, addend: 0x0, symName: __RNvMCsceeBBjCCtRQ_7autocfgNtB2_7AutoCfg14new_crate_name, symObjAddr: 0x2650, symBinAddr: 0x100009E1C, symSize: 0x1AC }
  - { offset: 0x1B723, size: 0x8, addend: 0x0, symName: __RNvMCsceeBBjCCtRQ_7autocfgNtB2_7AutoCfg9probe_fmt, symObjAddr: 0x27FC, symBinAddr: 0x100009FC8, symSize: 0x728 }
  - { offset: 0x1B894, size: 0x8, addend: 0x0, symName: __RNvMCsceeBBjCCtRQ_7autocfgNtB2_7AutoCfg5probe, symObjAddr: 0x2F24, symBinAddr: 0x10000A6F0, symSize: 0x108 }
  - { offset: 0x1B8E6, size: 0x8, addend: 0x0, symName: __RNvMCsceeBBjCCtRQ_7autocfgNtB2_7AutoCfg9probe_raw, symObjAddr: 0x302C, symBinAddr: 0x10000A7F8, symSize: 0x7C }
  - { offset: 0x1B918, size: 0x8, addend: 0x0, symName: __RNvMCsceeBBjCCtRQ_7autocfgNtB2_7AutoCfg19probe_sysroot_crate, symObjAddr: 0x30A8, symBinAddr: 0x10000A874, symSize: 0x74 }
  - { offset: 0x1B94A, size: 0x8, addend: 0x0, symName: __RNvMCsceeBBjCCtRQ_7autocfgNtB2_7AutoCfg18emit_sysroot_crate, symObjAddr: 0x311C, symBinAddr: 0x10000A8E8, symSize: 0x1C0 }
  - { offset: 0x1BDE9, size: 0x8, addend: 0x0, symName: __RINvMs12_NtCscOYdFFY2T5N_3std4pathNtB7_4Path4joinNtNtCse1nGBsou5OW_5alloc6string6StringECsceeBBjCCtRQ_7autocfg, symObjAddr: 0x0, symBinAddr: 0x10000B444, symSize: 0x94 }
  - { offset: 0x1D2EA, size: 0x8, addend: 0x0, symName: __RNvXs1a_NtCsfvfooZQ3Axs_4core3fmtRNtNtNtB8_3str5error9Utf8ErrorNtB6_5Debug3fmtCsceeBBjCCtRQ_7autocfg, symObjAddr: 0x2EC8, symBinAddr: 0x10000DF50, symSize: 0x30 }
  - { offset: 0x1D330, size: 0x8, addend: 0x0, symName: __RNvXs1a_NtCsfvfooZQ3Axs_4core3fmtRReNtB6_5Debug3fmtCsceeBBjCCtRQ_7autocfg, symObjAddr: 0x2EF8, symBinAddr: 0x10000DF80, symSize: 0x30 }
  - { offset: 0x1D376, size: 0x8, addend: 0x0, symName: __RNvXs1a_NtCsfvfooZQ3Axs_4core3fmtReNtB6_5Debug3fmtCsceeBBjCCtRQ_7autocfg, symObjAddr: 0x2F28, symBinAddr: 0x10000DFB0, symSize: 0x3C }
  - { offset: 0x1D3BC, size: 0x8, addend: 0x0, symName: __RNvXs1a_NtCsfvfooZQ3Axs_4core3fmtRhNtB6_5Debug3fmtCsceeBBjCCtRQ_7autocfg, symObjAddr: 0x2F64, symBinAddr: 0x10000DFEC, symSize: 0x30 }
  - { offset: 0x1D402, size: 0x8, addend: 0x0, symName: __RNvXs1a_NtCsfvfooZQ3Axs_4core3fmtRuNtB6_5Debug3fmtCsceeBBjCCtRQ_7autocfg, symObjAddr: 0x2F94, symBinAddr: 0x10000E01C, symSize: 0x30 }
  - { offset: 0x1D44E, size: 0x8, addend: 0x0, symName: __RNvXs1c_NtCsfvfooZQ3Axs_4core3fmtReNtB6_7Display3fmtCsceeBBjCCtRQ_7autocfg, symObjAddr: 0x2FC4, symBinAddr: 0x10000E04C, symSize: 0x3C }
  - { offset: 0x1D49A, size: 0x8, addend: 0x0, symName: __RNvXss_NtCsfvfooZQ3Axs_4core3fmtuNtB5_5Debug3fmtCsceeBBjCCtRQ_7autocfg, symObjAddr: 0x365C, symBinAddr: 0x10000E6E4, symSize: 0x40 }
  - { offset: 0x1D9D5, size: 0x8, addend: 0x0, symName: __RINvNtCsfvfooZQ3Axs_4core3ptr13drop_in_placeINtNtB4_6option6OptionINtNtCse1nGBsou5OW_5alloc5boxed3BoxSmEEECsceeBBjCCtRQ_7autocfg, symObjAddr: 0x3FC, symBinAddr: 0x10000B734, symSize: 0x44 }
  - { offset: 0x1DA04, size: 0x8, addend: 0x0, symName: __RINvNtCsfvfooZQ3Axs_4core3ptr13drop_in_placeINtNtB4_6option6OptionNtNtCscOYdFFY2T5N_3std4path7PathBufEECsceeBBjCCtRQ_7autocfg, symObjAddr: 0x440, symBinAddr: 0x10000B778, symSize: 0x48 }
  - { offset: 0x1DA33, size: 0x8, addend: 0x0, symName: __RINvNtCsfvfooZQ3Axs_4core3ptr13drop_in_placeINtNtB4_6option6OptionNtNtCscOYdFFY2T5N_3std7process10ChildStdinEECsceeBBjCCtRQ_7autocfg, symObjAddr: 0x488, symBinAddr: 0x10000B7C0, symSize: 0x44 }
  - { offset: 0x1DA62, size: 0x8, addend: 0x0, symName: __RINvNtCsfvfooZQ3Axs_4core3ptr13drop_in_placeINtNtB4_6option6OptionNtNtCscOYdFFY2T5N_3std7process11ChildStderrEECsceeBBjCCtRQ_7autocfg, symObjAddr: 0x4CC, symBinAddr: 0x10000B804, symSize: 0x44 }
  - { offset: 0x1DA91, size: 0x8, addend: 0x0, symName: __RINvNtCsfvfooZQ3Axs_4core3ptr13drop_in_placeINtNtB4_6option6OptionNtNtCscOYdFFY2T5N_3std7process11ChildStdoutEECsceeBBjCCtRQ_7autocfg, symObjAddr: 0x510, symBinAddr: 0x10000B848, symSize: 0x44 }
  - { offset: 0x1DAC0, size: 0x8, addend: 0x0, symName: __RINvNtCsfvfooZQ3Axs_4core3ptr13drop_in_placeINtNtB4_6option6OptionNtNtCse1nGBsou5OW_5alloc6string6StringEECsceeBBjCCtRQ_7autocfg, symObjAddr: 0x554, symBinAddr: 0x10000B88C, symSize: 0x48 }
  - { offset: 0x1DAEF, size: 0x8, addend: 0x0, symName: __RINvNtCsfvfooZQ3Axs_4core3ptr13drop_in_placeINtNtB4_6option6OptionNtNtNtCscOYdFFY2T5N_3std3ffi6os_str8OsStringEECsceeBBjCCtRQ_7autocfg, symObjAddr: 0x59C, symBinAddr: 0x10000B8D4, symSize: 0x48 }
  - { offset: 0x1DB1E, size: 0x8, addend: 0x0, symName: __RINvNtCsfvfooZQ3Axs_4core3ptr13drop_in_placeINtNtB4_6option6OptionNtNtNtCse1nGBsou5OW_5alloc3ffi5c_str7CStringEECsceeBBjCCtRQ_7autocfg, symObjAddr: 0x5E4, symBinAddr: 0x10000B91C, symSize: 0x44 }
  - { offset: 0x1DB4D, size: 0x8, addend: 0x0, symName: __RINvNtCsfvfooZQ3Axs_4core3ptr13drop_in_placeINtNtB4_6option6OptionNtNtNtNtNtNtCscOYdFFY2T5N_3std3sys3pal4unix7process14process_common5StdioEECsceeBBjCCtRQ_7autocfg, symObjAddr: 0x628, symBinAddr: 0x10000B960, symSize: 0x44 }
  - { offset: 0x1DB7C, size: 0x8, addend: 0x0, symName: __RINvNtCsfvfooZQ3Axs_4core3ptr13drop_in_placeINtNtB4_6result6ResultNtNtCsceeBBjCCtRQ_7autocfg7version7VersionNtNtB16_5error5ErrorEEB16_, symObjAddr: 0x66C, symBinAddr: 0x10000B9A4, symSize: 0x40 }
  - { offset: 0x1DBAB, size: 0x8, addend: 0x0, symName: __RINvNtCsfvfooZQ3Axs_4core3ptr13drop_in_placeINtNtB4_6result6ResultNtNtCse1nGBsou5OW_5alloc6string6StringNtNtCscOYdFFY2T5N_3std3env8VarErrorEECsceeBBjCCtRQ_7autocfg, symObjAddr: 0x6AC, symBinAddr: 0x10000B9E4, symSize: 0x50 }
  - { offset: 0x1DBDA, size: 0x8, addend: 0x0, symName: __RINvNtCsfvfooZQ3Axs_4core3ptr13drop_in_placeINtNtB4_6result6ResultuNtNtCsceeBBjCCtRQ_7autocfg5error5ErrorEEB17_, symObjAddr: 0x6FC, symBinAddr: 0x10000BA34, symSize: 0x44 }
  - { offset: 0x1DC09, size: 0x8, addend: 0x0, symName: __RINvNtCsfvfooZQ3Axs_4core3ptr13drop_in_placeINtNtB4_6result6ResultuNtNtNtCscOYdFFY2T5N_3std2io5error5ErrorEECsceeBBjCCtRQ_7autocfg, symObjAddr: 0x740, symBinAddr: 0x10000BA78, symSize: 0x44 }
  - { offset: 0x1DC38, size: 0x8, addend: 0x0, symName: __RINvNtCsfvfooZQ3Axs_4core3ptr13drop_in_placeINtNtCse1nGBsou5OW_5alloc3vec3VecINtNtBL_5boxed3BoxDINtNtNtB4_3ops8function5FnMutuEp6OutputINtNtB4_6result6ResultuNtNtNtCscOYdFFY2T5N_3std2io5error5ErrorENtNtB4_6marker4SendNtB3c_4SyncEL_EEECsceeBBjCCtRQ_7autocfg, symObjAddr: 0x784, symBinAddr: 0x10000BABC, symSize: 0x5C }
  - { offset: 0x1DC67, size: 0x8, addend: 0x0, symName: __RINvNtCsfvfooZQ3Axs_4core3ptr13drop_in_placeINtNtCse1nGBsou5OW_5alloc3vec3VecNtNtBL_6string6StringEECsceeBBjCCtRQ_7autocfg, symObjAddr: 0x7E0, symBinAddr: 0x10000BB18, symSize: 0x5C }
  - { offset: 0x1DC96, size: 0x8, addend: 0x0, symName: __RINvNtCsfvfooZQ3Axs_4core3ptr13drop_in_placeINtNtCse1nGBsou5OW_5alloc3vec3VecNtNtNtBL_3ffi5c_str7CStringEECsceeBBjCCtRQ_7autocfg, symObjAddr: 0x83C, symBinAddr: 0x10000BB74, symSize: 0x5C }
  - { offset: 0x1DCC5, size: 0x8, addend: 0x0, symName: __RINvNtCsfvfooZQ3Axs_4core3ptr13drop_in_placeINtNtCse1nGBsou5OW_5alloc3vec3VecPaEECsceeBBjCCtRQ_7autocfg, symObjAddr: 0x898, symBinAddr: 0x10000BBD0, symSize: 0x5C }
  - { offset: 0x1DCF4, size: 0x8, addend: 0x0, symName: __RINvNtCsfvfooZQ3Axs_4core3ptr13drop_in_placeINtNtCse1nGBsou5OW_5alloc3vec3VechEECsceeBBjCCtRQ_7autocfg, symObjAddr: 0x8F4, symBinAddr: 0x10000BC2C, symSize: 0x5C }
  - { offset: 0x1DD23, size: 0x8, addend: 0x0, symName: __RINvNtCsfvfooZQ3Axs_4core3ptr13drop_in_placeINtNtCse1nGBsou5OW_5alloc5boxed3BoxDINtNtNtB4_3ops8function5FnMutuEp6OutputINtNtB4_6result6ResultuNtNtNtCscOYdFFY2T5N_3std2io5error5ErrorENtNtB4_6marker4SendNtB2W_4SyncEL_EECsceeBBjCCtRQ_7autocfg, symObjAddr: 0x950, symBinAddr: 0x10000BC88, symSize: 0x80 }
  - { offset: 0x1DD52, size: 0x8, addend: 0x0, symName: __RINvNtCsfvfooZQ3Axs_4core3ptr13drop_in_placeINtNtCse1nGBsou5OW_5alloc5boxed3BoxDNtNtB4_5error5ErrorNtNtB4_6marker4SendNtB1B_4SyncEL_EECsceeBBjCCtRQ_7autocfg, symObjAddr: 0x9D0, symBinAddr: 0x10000BD08, symSize: 0x80 }
  - { offset: 0x1DD81, size: 0x8, addend: 0x0, symName: __RINvNtCsfvfooZQ3Axs_4core3ptr13drop_in_placeINtNtCse1nGBsou5OW_5alloc5boxed3BoxNtNtNtCscOYdFFY2T5N_3std2io5error6CustomEECsceeBBjCCtRQ_7autocfg, symObjAddr: 0xA50, symBinAddr: 0x10000BD88, symSize: 0x60 }
  - { offset: 0x1DDB0, size: 0x8, addend: 0x0, symName: __RINvNtCsfvfooZQ3Axs_4core3ptr13drop_in_placeINtNtCse1nGBsou5OW_5alloc5boxed3BoxShEECsceeBBjCCtRQ_7autocfg, symObjAddr: 0xAB0, symBinAddr: 0x10000BDE8, symSize: 0x2C }
  - { offset: 0x1DDDF, size: 0x8, addend: 0x0, symName: __RINvNtCsfvfooZQ3Axs_4core3ptr13drop_in_placeINtNtCse1nGBsou5OW_5alloc5boxed3BoxSmEECsceeBBjCCtRQ_7autocfg, symObjAddr: 0xADC, symBinAddr: 0x10000BE14, symSize: 0x2C }
  - { offset: 0x1DE0E, size: 0x8, addend: 0x0, symName: __RINvNtCsfvfooZQ3Axs_4core3ptr13drop_in_placeINtNtCse1nGBsou5OW_5alloc7raw_vec6RawVecINtNtBL_5boxed3BoxDINtNtNtB4_3ops8function5FnMutuEp6OutputINtNtB4_6result6ResultuNtNtNtCscOYdFFY2T5N_3std2io5error5ErrorENtNtB4_6marker4SendNtB3j_4SyncEL_EEECsceeBBjCCtRQ_7autocfg, symObjAddr: 0xB08, symBinAddr: 0x10000BE40, symSize: 0x24 }
  - { offset: 0x1DE3D, size: 0x8, addend: 0x0, symName: __RINvNtCsfvfooZQ3Axs_4core3ptr13drop_in_placeINtNtCse1nGBsou5OW_5alloc7raw_vec6RawVecNtNtBL_6string6StringEECsceeBBjCCtRQ_7autocfg, symObjAddr: 0xB2C, symBinAddr: 0x10000BE64, symSize: 0x24 }
  - { offset: 0x1DE6C, size: 0x8, addend: 0x0, symName: __RINvNtCsfvfooZQ3Axs_4core3ptr13drop_in_placeINtNtCse1nGBsou5OW_5alloc7raw_vec6RawVecNtNtNtBL_3ffi5c_str7CStringEECsceeBBjCCtRQ_7autocfg, symObjAddr: 0xB50, symBinAddr: 0x10000BE88, symSize: 0x24 }
  - { offset: 0x1DE9B, size: 0x8, addend: 0x0, symName: __RINvNtCsfvfooZQ3Axs_4core3ptr13drop_in_placeINtNtCse1nGBsou5OW_5alloc7raw_vec6RawVecPaEECsceeBBjCCtRQ_7autocfg, symObjAddr: 0xB74, symBinAddr: 0x10000BEAC, symSize: 0x24 }
  - { offset: 0x1DECA, size: 0x8, addend: 0x0, symName: __RINvNtCsfvfooZQ3Axs_4core3ptr13drop_in_placeINtNtCse1nGBsou5OW_5alloc7raw_vec6RawVechEECsceeBBjCCtRQ_7autocfg, symObjAddr: 0xB98, symBinAddr: 0x10000BED0, symSize: 0x24 }
  - { offset: 0x1DEF9, size: 0x8, addend: 0x0, symName: __RINvNtCsfvfooZQ3Axs_4core3ptr13drop_in_placeINtNtCsloNvcHxBCre_9hashbrown10scopeguard10ScopeGuardNtNtBL_3raw13RawTableInnerNCINvMsa_B1z_B1x_14prepare_resizeNtNtCse1nGBsou5OW_5alloc5alloc6GlobalE0EECsceeBBjCCtRQ_7autocfg, symObjAddr: 0xBBC, symBinAddr: 0x10000BEF4, symSize: 0x24 }
  - { offset: 0x1DF28, size: 0x8, addend: 0x0, symName: __RINvNtCsfvfooZQ3Axs_4core3ptr13drop_in_placeINtNtCsloNvcHxBCre_9hashbrown10scopeguard10ScopeGuardQNtNtBL_3raw13RawTableInnerNCNvMsa_B1A_B1y_15rehash_in_place0EECsceeBBjCCtRQ_7autocfg, symObjAddr: 0xBE0, symBinAddr: 0x10000BF18, symSize: 0x24 }
  - { offset: 0x1DF57, size: 0x8, addend: 0x0, symName: __RINvNtCsfvfooZQ3Axs_4core3ptr13drop_in_placeINtNtCsloNvcHxBCre_9hashbrown3map7HashMapyuNtNtNtCscOYdFFY2T5N_3std4hash6random11RandomStateEECsceeBBjCCtRQ_7autocfg, symObjAddr: 0xC04, symBinAddr: 0x10000BF3C, symSize: 0x24 }
  - { offset: 0x1DF86, size: 0x8, addend: 0x0, symName: __RINvNtCsfvfooZQ3Axs_4core3ptr13drop_in_placeINtNtCsloNvcHxBCre_9hashbrown3map8IntoIteryuEECsceeBBjCCtRQ_7autocfg, symObjAddr: 0xC28, symBinAddr: 0x10000BF60, symSize: 0x24 }
  - { offset: 0x1DFB5, size: 0x8, addend: 0x0, symName: __RINvNtCsfvfooZQ3Axs_4core3ptr13drop_in_placeINtNtCsloNvcHxBCre_9hashbrown3raw11RawIntoIterTyuEEECsceeBBjCCtRQ_7autocfg, symObjAddr: 0xC4C, symBinAddr: 0x10000BF84, symSize: 0x24 }
  - { offset: 0x1DFE4, size: 0x8, addend: 0x0, symName: __RINvNtCsfvfooZQ3Axs_4core3ptr13drop_in_placeINtNtCsloNvcHxBCre_9hashbrown3raw8RawTableTyuEEECsceeBBjCCtRQ_7autocfg, symObjAddr: 0xC70, symBinAddr: 0x10000BFA8, symSize: 0x24 }
  - { offset: 0x1E013, size: 0x8, addend: 0x0, symName: __RINvNtCsfvfooZQ3Axs_4core3ptr13drop_in_placeINtNtCsloNvcHxBCre_9hashbrown3set7HashSetyNtNtNtCscOYdFFY2T5N_3std4hash6random11RandomStateEECsceeBBjCCtRQ_7autocfg, symObjAddr: 0xC94, symBinAddr: 0x10000BFCC, symSize: 0x24 }
  - { offset: 0x1E042, size: 0x8, addend: 0x0, symName: __RINvNtCsfvfooZQ3Axs_4core3ptr13drop_in_placeINtNtCsloNvcHxBCre_9hashbrown3set8IntoIteryEECsceeBBjCCtRQ_7autocfg, symObjAddr: 0xCB8, symBinAddr: 0x10000BFF0, symSize: 0x24 }
  - { offset: 0x1E071, size: 0x8, addend: 0x0, symName: __RINvNtCsfvfooZQ3Axs_4core3ptr13drop_in_placeINtNtNtCscOYdFFY2T5N_3std2io5error9ErrorDataINtNtCse1nGBsou5OW_5alloc5boxed3BoxNtBJ_6CustomEEECsceeBBjCCtRQ_7autocfg, symObjAddr: 0xCDC, symBinAddr: 0x10000C014, symSize: 0x48 }
  - { offset: 0x1E0A0, size: 0x8, addend: 0x0, symName: __RINvNtCsfvfooZQ3Axs_4core3ptr13drop_in_placeINtNtNtNtCscOYdFFY2T5N_3std11collections4hash3set7HashSetyEECsceeBBjCCtRQ_7autocfg, symObjAddr: 0xD24, symBinAddr: 0x10000C05C, symSize: 0x24 }
  - { offset: 0x1E0CF, size: 0x8, addend: 0x0, symName: __RINvNtCsfvfooZQ3Axs_4core3ptr13drop_in_placeINtNtNtNtCscOYdFFY2T5N_3std11collections4hash3set8IntoIteryEECsceeBBjCCtRQ_7autocfg, symObjAddr: 0xD48, symBinAddr: 0x10000C080, symSize: 0x24 }
  - { offset: 0x1E0FE, size: 0x8, addend: 0x0, symName: __RINvNtCsfvfooZQ3Axs_4core3ptr13drop_in_placeINtNtNtNtCse1nGBsou5OW_5alloc11collections5btree3map8BTreeMapNtNtNtCscOYdFFY2T5N_3std3ffi6os_str8OsStringINtNtB4_6option6OptionB1F_EEECsceeBBjCCtRQ_7autocfg, symObjAddr: 0xD6C, symBinAddr: 0x10000C0A4, symSize: 0x24 }
  - { offset: 0x1E12D, size: 0x8, addend: 0x0, symName: __RINvNtCsfvfooZQ3Axs_4core3ptr13drop_in_placeINtNtNtNtCse1nGBsou5OW_5alloc11collections5btree3map8IntoIterNtNtNtCscOYdFFY2T5N_3std3ffi6os_str8OsStringINtNtB4_6option6OptionB1F_EEECsceeBBjCCtRQ_7autocfg, symObjAddr: 0xD90, symBinAddr: 0x10000C0C8, symSize: 0x24 }
  - { offset: 0x1E15C, size: 0x8, addend: 0x0, symName: __RINvNtCsfvfooZQ3Axs_4core3ptr13drop_in_placeINtNvMsT_NtNtNtCse1nGBsou5OW_5alloc11collections5btree4nodeINtBP_6HandleINtBP_7NodeRefNtNtBP_6marker5DyingpppENtB26_2KVE12drop_key_val7DropperINtNtB4_6option6OptionNtNtNtCscOYdFFY2T5N_3std3ffi6os_str8OsStringEEECsceeBBjCCtRQ_7autocfg, symObjAddr: 0xDB4, symBinAddr: 0x10000C0EC, symSize: 0x24 }
  - { offset: 0x1E18B, size: 0x8, addend: 0x0, symName: __RINvNtCsfvfooZQ3Axs_4core3ptr13drop_in_placeINtNvNtNtCscOYdFFY2T5N_3std2io5Write9write_fmt7AdapterNtNtBP_7process10ChildStdinEECsceeBBjCCtRQ_7autocfg, symObjAddr: 0xDD8, symBinAddr: 0x10000C110, symSize: 0x24 }
  - { offset: 0x1E1BA, size: 0x8, addend: 0x0, symName: __RINvNtCsfvfooZQ3Axs_4core3ptr13drop_in_placeINtNvNtNtCscOYdFFY2T5N_3std2io5Write9write_fmt7AdapterNtNtNtNtNtBP_3sys3pal4unix5stdio6StderrEECsceeBBjCCtRQ_7autocfg, symObjAddr: 0xDFC, symBinAddr: 0x10000C134, symSize: 0x24 }
  - { offset: 0x1E1E9, size: 0x8, addend: 0x0, symName: __RINvNtCsfvfooZQ3Axs_4core3ptr13drop_in_placeINtNvXsw_NtNtNtCse1nGBsou5OW_5alloc11collections5btree3mapINtBP_8IntoIterpppENtNtNtB4_3ops4drop4Drop4drop9DropGuardNtNtNtCscOYdFFY2T5N_3std3ffi6os_str8OsStringINtNtB4_6option6OptionB2x_ENtNtBV_5alloc6GlobalEECsceeBBjCCtRQ_7autocfg, symObjAddr: 0xE20, symBinAddr: 0x10000C158, symSize: 0x24 }
  - { offset: 0x1E218, size: 0x8, addend: 0x0, symName: __RINvNtCsfvfooZQ3Axs_4core3ptr13drop_in_placeNCNCNvCsceeBBjCCtRQ_7autocfg19dir_contains_target00EBM_, symObjAddr: 0xE64, symBinAddr: 0x10000C17C, symSize: 0x24 }
  - { offset: 0x1E247, size: 0x8, addend: 0x0, symName: __RINvNtCsfvfooZQ3Axs_4core3ptr13drop_in_placeNCNvCsceeBBjCCtRQ_7autocfg19dir_contains_target0EBK_, symObjAddr: 0xE88, symBinAddr: 0x10000C1A0, symSize: 0x24 }
  - { offset: 0x1E276, size: 0x8, addend: 0x0, symName: __RINvNtCsfvfooZQ3Axs_4core3ptr13drop_in_placeNtCsceeBBjCCtRQ_7autocfg7AutoCfgEBI_, symObjAddr: 0xEAC, symBinAddr: 0x10000C1C4, symSize: 0xF0 }
  - { offset: 0x1E2A5, size: 0x8, addend: 0x0, symName: __RINvNtCsfvfooZQ3Axs_4core3ptr13drop_in_placeNtNtCscOYdFFY2T5N_3std3env8VarErrorECsceeBBjCCtRQ_7autocfg, symObjAddr: 0xF9C, symBinAddr: 0x10000C2B4, symSize: 0x48 }
  - { offset: 0x1E2D4, size: 0x8, addend: 0x0, symName: __RINvNtCsfvfooZQ3Axs_4core3ptr13drop_in_placeNtNtCscOYdFFY2T5N_3std4path7PathBufECsceeBBjCCtRQ_7autocfg, symObjAddr: 0xFE4, symBinAddr: 0x10000C2FC, symSize: 0x24 }
  - { offset: 0x1E303, size: 0x8, addend: 0x0, symName: __RINvNtCsfvfooZQ3Axs_4core3ptr13drop_in_placeNtNtCscOYdFFY2T5N_3std7process10ChildStdinECsceeBBjCCtRQ_7autocfg, symObjAddr: 0x1008, symBinAddr: 0x10000C320, symSize: 0x24 }
  - { offset: 0x1E332, size: 0x8, addend: 0x0, symName: __RINvNtCsfvfooZQ3Axs_4core3ptr13drop_in_placeNtNtCscOYdFFY2T5N_3std7process11ChildStderrECsceeBBjCCtRQ_7autocfg, symObjAddr: 0x102C, symBinAddr: 0x10000C344, symSize: 0x24 }
  - { offset: 0x1E361, size: 0x8, addend: 0x0, symName: __RINvNtCsfvfooZQ3Axs_4core3ptr13drop_in_placeNtNtCscOYdFFY2T5N_3std7process11ChildStdoutECsceeBBjCCtRQ_7autocfg, symObjAddr: 0x1050, symBinAddr: 0x10000C368, symSize: 0x24 }
  - { offset: 0x1E390, size: 0x8, addend: 0x0, symName: __RINvNtCsfvfooZQ3Axs_4core3ptr13drop_in_placeNtNtCscOYdFFY2T5N_3std7process5ChildECsceeBBjCCtRQ_7autocfg, symObjAddr: 0x1074, symBinAddr: 0x10000C38C, symSize: 0x94 }
  - { offset: 0x1E3BF, size: 0x8, addend: 0x0, symName: __RINvNtCsfvfooZQ3Axs_4core3ptr13drop_in_placeNtNtCscOYdFFY2T5N_3std7process6OutputECsceeBBjCCtRQ_7autocfg, symObjAddr: 0x1108, symBinAddr: 0x10000C420, symSize: 0x60 }
  - { offset: 0x1E3EE, size: 0x8, addend: 0x0, symName: __RINvNtCsfvfooZQ3Axs_4core3ptr13drop_in_placeNtNtCscOYdFFY2T5N_3std7process7CommandECsceeBBjCCtRQ_7autocfg, symObjAddr: 0x1168, symBinAddr: 0x10000C480, symSize: 0x24 }
  - { offset: 0x1E41D, size: 0x8, addend: 0x0, symName: __RINvNtCsfvfooZQ3Axs_4core3ptr13drop_in_placeNtNtCsceeBBjCCtRQ_7autocfg5error5ErrorEBK_, symObjAddr: 0x118C, symBinAddr: 0x10000C4A4, symSize: 0x24 }
  - { offset: 0x1E44C, size: 0x8, addend: 0x0, symName: __RINvNtCsfvfooZQ3Axs_4core3ptr13drop_in_placeNtNtCsceeBBjCCtRQ_7autocfg5error9ErrorKindEBK_, symObjAddr: 0x11B0, symBinAddr: 0x10000C4C8, symSize: 0x40 }
  - { offset: 0x1E47B, size: 0x8, addend: 0x0, symName: __RINvNtCsfvfooZQ3Axs_4core3ptr13drop_in_placeNtNtCsceeBBjCCtRQ_7autocfg5rustc5RustcEBK_, symObjAddr: 0x11F0, symBinAddr: 0x10000C508, symSize: 0x90 }
  - { offset: 0x1E4AA, size: 0x8, addend: 0x0, symName: __RINvNtCsfvfooZQ3Axs_4core3ptr13drop_in_placeNtNtCse1nGBsou5OW_5alloc6string6StringECsceeBBjCCtRQ_7autocfg, symObjAddr: 0x1280, symBinAddr: 0x10000C598, symSize: 0x24 }
  - { offset: 0x1E4D9, size: 0x8, addend: 0x0, symName: __RINvNtCsfvfooZQ3Axs_4core3ptr13drop_in_placeNtNtNtCscOYdFFY2T5N_3std10sys_common7process10CommandEnvECsceeBBjCCtRQ_7autocfg, symObjAddr: 0x12D4, symBinAddr: 0x10000C5BC, symSize: 0x24 }
  - { offset: 0x1E508, size: 0x8, addend: 0x0, symName: __RINvNtCsfvfooZQ3Axs_4core3ptr13drop_in_placeNtNtNtCscOYdFFY2T5N_3std2io5error5ErrorECsceeBBjCCtRQ_7autocfg, symObjAddr: 0x12F8, symBinAddr: 0x10000C5E0, symSize: 0x24 }
  - { offset: 0x1E537, size: 0x8, addend: 0x0, symName: __RINvNtCsfvfooZQ3Axs_4core3ptr13drop_in_placeNtNtNtCscOYdFFY2T5N_3std2io5error6CustomECsceeBBjCCtRQ_7autocfg, symObjAddr: 0x131C, symBinAddr: 0x10000C604, symSize: 0x24 }
  - { offset: 0x1E566, size: 0x8, addend: 0x0, symName: __RINvNtCsfvfooZQ3Axs_4core3ptr13drop_in_placeNtNtNtCscOYdFFY2T5N_3std3ffi6os_str8OsStringECsceeBBjCCtRQ_7autocfg, symObjAddr: 0x1340, symBinAddr: 0x10000C628, symSize: 0x24 }
  - { offset: 0x1E595, size: 0x8, addend: 0x0, symName: __RINvNtCsfvfooZQ3Axs_4core3ptr13drop_in_placeNtNtNtCse1nGBsou5OW_5alloc3ffi5c_str7CStringECsceeBBjCCtRQ_7autocfg, symObjAddr: 0x1364, symBinAddr: 0x10000C64C, symSize: 0x5C }
  - { offset: 0x1E5C4, size: 0x8, addend: 0x0, symName: __RINvNtCsfvfooZQ3Axs_4core3ptr13drop_in_placeNtNtNtNtCscOYdFFY2T5N_3std2io5error14repr_bitpacked4ReprECsceeBBjCCtRQ_7autocfg, symObjAddr: 0x13C0, symBinAddr: 0x10000C6A8, symSize: 0x24 }
  - { offset: 0x1E5F3, size: 0x8, addend: 0x0, symName: __RINvNtCsfvfooZQ3Axs_4core3ptr13drop_in_placeNtNtNtNtCscOYdFFY2T5N_3std2os2fd5owned7OwnedFdECsceeBBjCCtRQ_7autocfg, symObjAddr: 0x13E4, symBinAddr: 0x10000C6CC, symSize: 0x24 }
  - { offset: 0x1E622, size: 0x8, addend: 0x0, symName: __RINvNtCsfvfooZQ3Axs_4core3ptr13drop_in_placeNtNtNtNtCscOYdFFY2T5N_3std3sys6os_str5bytes3BufECsceeBBjCCtRQ_7autocfg, symObjAddr: 0x1408, symBinAddr: 0x10000C6F0, symSize: 0x24 }
  - { offset: 0x1E651, size: 0x8, addend: 0x0, symName: __RINvNtCsfvfooZQ3Axs_4core3ptr13drop_in_placeNtNtNtNtNtCscOYdFFY2T5N_3std3sys3pal4unix2fd8FileDescECsceeBBjCCtRQ_7autocfg, symObjAddr: 0x142C, symBinAddr: 0x10000C714, symSize: 0x24 }
  - { offset: 0x1E680, size: 0x8, addend: 0x0, symName: __RINvNtCsfvfooZQ3Axs_4core3ptr13drop_in_placeNtNtNtNtNtCscOYdFFY2T5N_3std3sys3pal4unix4pipe8AnonPipeECsceeBBjCCtRQ_7autocfg, symObjAddr: 0x1450, symBinAddr: 0x10000C738, symSize: 0x24 }
  - { offset: 0x1E6AF, size: 0x8, addend: 0x0, symName: __RINvNtCsfvfooZQ3Axs_4core3ptr13drop_in_placeNtNtNtNtNtNtCscOYdFFY2T5N_3std3sys3pal4unix7process14process_common4ArgvECsceeBBjCCtRQ_7autocfg, symObjAddr: 0x1474, symBinAddr: 0x10000C75C, symSize: 0x24 }
  - { offset: 0x1E6DE, size: 0x8, addend: 0x0, symName: __RINvNtCsfvfooZQ3Axs_4core3ptr13drop_in_placeNtNtNtNtNtNtCscOYdFFY2T5N_3std3sys3pal4unix7process14process_common5StdioECsceeBBjCCtRQ_7autocfg, symObjAddr: 0x1498, symBinAddr: 0x10000C780, symSize: 0x44 }
  - { offset: 0x1E70D, size: 0x8, addend: 0x0, symName: __RINvNtCsfvfooZQ3Axs_4core3ptr13drop_in_placeNtNtNtNtNtNtCscOYdFFY2T5N_3std3sys3pal4unix7process14process_common7CommandECsceeBBjCCtRQ_7autocfg, symObjAddr: 0x14DC, symBinAddr: 0x10000C7C4, symSize: 0x1DC }
  - { offset: 0x1E73C, size: 0x8, addend: 0x0, symName: __RINvNtCsfvfooZQ3Axs_4core3ptr13drop_in_placeNtNvNtNtNtCse1nGBsou5OW_5alloc11collections5btree3mem7replace10PanicGuardECsceeBBjCCtRQ_7autocfg, symObjAddr: 0x16B8, symBinAddr: 0x10000C9A0, symSize: 0x24 }
  - { offset: 0x1E76B, size: 0x8, addend: 0x0, symName: __RINvNtCsfvfooZQ3Axs_4core3ptr13drop_in_placeSINtNtCse1nGBsou5OW_5alloc5boxed3BoxDINtNtNtB4_3ops8function5FnMutuEp6OutputINtNtB4_6result6ResultuNtNtNtCscOYdFFY2T5N_3std2io5error5ErrorENtNtB4_6marker4SendNtB2X_4SyncEL_EECsceeBBjCCtRQ_7autocfg, symObjAddr: 0x178C, symBinAddr: 0x10000C9C4, symSize: 0xB4 }
  - { offset: 0x1E79A, size: 0x8, addend: 0x0, symName: __RINvNtCsfvfooZQ3Axs_4core3ptr13drop_in_placeSNtNtCse1nGBsou5OW_5alloc6string6StringECsceeBBjCCtRQ_7autocfg, symObjAddr: 0x1840, symBinAddr: 0x10000CA78, symSize: 0xC4 }
  - { offset: 0x1E7C9, size: 0x8, addend: 0x0, symName: __RINvNtCsfvfooZQ3Axs_4core3ptr13drop_in_placeSNtNtNtCse1nGBsou5OW_5alloc3ffi5c_str7CStringECsceeBBjCCtRQ_7autocfg, symObjAddr: 0x1904, symBinAddr: 0x10000CB3C, symSize: 0xB4 }
  - { offset: 0x1F005, size: 0x8, addend: 0x0, symName: __RINvNtNtNtCsfvfooZQ3Axs_4core4iter8adapters5chain17and_then_or_clearINtB2_5ChainINtNtB8_6option4IterNtNtCscOYdFFY2T5N_3std4path7PathBufEB1g_ERB1A_NvYB14_NtNtNtB6_6traits8iterator8Iterator4nextECsceeBBjCCtRQ_7autocfg, symObjAddr: 0x1A94, symBinAddr: 0x10000CCBC, symSize: 0xC8 }
  - { offset: 0x1F143, size: 0x8, addend: 0x0, symName: __RINvNtNtNtCsfvfooZQ3Axs_4core4iter8adapters5chain17and_then_or_clearINtNtB8_6option4IterNtNtCscOYdFFY2T5N_3std4path7PathBufERB1o_NvYB14_NtNtNtB6_6traits8iterator8Iterator4nextECsceeBBjCCtRQ_7autocfg, symObjAddr: 0x1B5C, symBinAddr: 0x10000CD84, symSize: 0xC0 }
  - { offset: 0x1F2EC, size: 0x8, addend: 0x0, symName: __RNCNvXs_NtNtNtCsfvfooZQ3Axs_4core4iter8adapters5chainINtB6_5ChainIBQ_INtNtBc_6option4IterNtNtCscOYdFFY2T5N_3std4path7PathBufEB15_EINtB18_8IntoIterRB1p_EENtNtNtBa_6traits8iterator8Iterator4next0CsceeBBjCCtRQ_7autocfg, symObjAddr: 0x22A0, symBinAddr: 0x10000D4C8, symSize: 0x7C }
  - { offset: 0x1F3BC, size: 0x8, addend: 0x0, symName: __RNCNvXs_NtNtNtCsfvfooZQ3Axs_4core4iter8adapters5chainINtB6_5ChainINtNtBc_6option4IterNtNtCscOYdFFY2T5N_3std4path7PathBufEB11_ENtNtNtBa_6traits8iterator8Iterator4next0CsceeBBjCCtRQ_7autocfg, symObjAddr: 0x231C, symBinAddr: 0x10000D544, symSize: 0x7C }
  - { offset: 0x1F48D, size: 0x8, addend: 0x0, symName: __RNvXs_NtNtNtCsfvfooZQ3Axs_4core4iter8adapters5chainINtB4_5ChainIBO_INtNtBa_6option4IterNtNtCscOYdFFY2T5N_3std4path7PathBufEB13_EINtB16_8IntoIterRB1n_EENtNtNtB8_6traits8iterator8Iterator4nextCsceeBBjCCtRQ_7autocfg, symObjAddr: 0x35A4, symBinAddr: 0x10000E62C, symSize: 0x30 }
  - { offset: 0x1F4CB, size: 0x8, addend: 0x0, symName: __RNvXs_NtNtNtCsfvfooZQ3Axs_4core4iter8adapters5chainINtB4_5ChainINtNtBa_6option4IterNtNtCscOYdFFY2T5N_3std4path7PathBufEBZ_ENtNtNtB8_6traits8iterator8Iterator4nextCsceeBBjCCtRQ_7autocfg, symObjAddr: 0x35D4, symBinAddr: 0x10000E65C, symSize: 0x30 }
  - { offset: 0x1F68D, size: 0x8, addend: 0x0, symName: __RINvYINtNtNtCsfvfooZQ3Axs_4core3str4iter5SplitcENtNtNtNtBa_4iter6traits8iterator8Iterator3mapNtNtCse1nGBsou5OW_5alloc6string6StringNvYeNtB1v_8ToString9to_stringECsceeBBjCCtRQ_7autocfg, symObjAddr: 0x1C1C, symBinAddr: 0x10000CE44, symSize: 0x30 }
  - { offset: 0x1F6FB, size: 0x8, addend: 0x0, symName: __RINvYINtNtNtCsfvfooZQ3Axs_4core3str4iter5SplitcENtNtNtNtBa_4iter6traits8iterator8Iterator3mapReNvMB8_e4trimECsceeBBjCCtRQ_7autocfg, symObjAddr: 0x1C4C, symBinAddr: 0x10000CE74, symSize: 0x30 }
  - { offset: 0x1F769, size: 0x8, addend: 0x0, symName: __RINvYINtNtNtCsfvfooZQ3Axs_4core3str4iter5SplitcENtNtNtNtBa_4iter6traits8iterator8Iterator8try_folduNCINvNtNtBQ_8adapters3map12map_try_foldReB2c_uINtNtNtBa_3ops12control_flow11ControlFlowB2c_ENvMB8_e4trimNCINvNvBK_4find5checkB2c_QNCNvCsceeBBjCCtRQ_7autocfg9rustflags0E0E0B2j_EB3J_, symObjAddr: 0x1C7C, symBinAddr: 0x10000CEA4, symSize: 0x19C }
  - { offset: 0x1F827, size: 0x8, addend: 0x0, symName: __RINvYINtNtNtNtCsfvfooZQ3Axs_4core4iter8adapters5chain5ChainINtNtBc_6option4IterNtNtCscOYdFFY2T5N_3std4path7PathBufEBV_ENtNtNtBa_6traits8iterator8Iterator5chainINtBY_6OptionRB1f_EECsceeBBjCCtRQ_7autocfg, symObjAddr: 0x1E18, symBinAddr: 0x10000D040, symSize: 0xAC }
  - { offset: 0x1F89D, size: 0x8, addend: 0x0, symName: __RINvYNtNtNtCsfvfooZQ3Axs_4core3str4iter5CharsNtNtNtNtB9_4iter6traits8iterator8Iterator3mapcNCNvCsceeBBjCCtRQ_7autocfg6mangle0EB1v_, symObjAddr: 0x1F48, symBinAddr: 0x10000D170, symSize: 0x1C }
  - { offset: 0x1F8F5, size: 0x8, addend: 0x0, symName: __RINvYNtNtNtCsfvfooZQ3Axs_4core3str4iter5CharsNtNtNtNtB9_4iter6traits8iterator8Iterator4folduNCINvNtNtBN_8adapters3map8map_foldccuNCNvCsceeBBjCCtRQ_7autocfg6mangle0NCINvNvBH_8for_each4callcNCINvXsb_NtCse1nGBsou5OW_5alloc6stringNtB39_6StringINtNtBL_7collect6ExtendcE6extendINtB1x_3MapB3_B23_EE0E0E0EB27_, symObjAddr: 0x1F64, symBinAddr: 0x10000D18C, symSize: 0xB8 }
  - { offset: 0x1F984, size: 0x8, addend: 0x0, symName: __RINvYNtNtNtCsfvfooZQ3Axs_4core3str4iter5LinesNtNtNtNtB9_4iter6traits8iterator8Iterator4findNCNvMNtCsceeBBjCCtRQ_7autocfg7versionNtB1w_7Version12from_command0EB1y_, symObjAddr: 0x201C, symBinAddr: 0x10000D244, symSize: 0x88 }
  - { offset: 0x1F9FF, size: 0x8, addend: 0x0, symName: __RINvYNtNtNtCsfvfooZQ3Axs_4core3str4iter5LinesNtNtNtNtB9_4iter6traits8iterator8Iterator8try_folduNCINvNvBH_4find5checkReNCNvMNtCsceeBBjCCtRQ_7autocfg7versionNtB1Y_7Version12from_command0E0INtNtNtB9_3ops12control_flow11ControlFlowB1R_EEB20_, symObjAddr: 0x20A4, symBinAddr: 0x10000D2CC, symSize: 0x194 }
  - { offset: 0x1FABD, size: 0x8, addend: 0x0, symName: __RNvYINtNtNtCsfvfooZQ3Axs_4core3str4iter5SplitcENtNtNtNtB9_4iter6traits8iterator8Iterator9size_hintCsceeBBjCCtRQ_7autocfg, symObjAddr: 0x3724, symBinAddr: 0x10000E7AC, symSize: 0x34 }
  - { offset: 0x1FB4F, size: 0x8, addend: 0x0, symName: __RNvXNtNtNtCsfvfooZQ3Axs_4core4iter6traits7collectINtNtNtB6_8adapters5chain5ChainIBM_INtNtB8_6option4IterNtNtCscOYdFFY2T5N_3std4path7PathBufEB1k_EINtB1n_8IntoIterRB1E_EENtB2_12IntoIterator9into_iterCsceeBBjCCtRQ_7autocfg, symObjAddr: 0x2E24, symBinAddr: 0x10000DECC, symSize: 0x30 }
  - { offset: 0x1FE36, size: 0x8, addend: 0x0, symName: __RNSNvYNCINvMs6_NtCsloNvcHxBCre_9hashbrown3rawINtBd_8RawTableTyuEE14reserve_rehashNCINvNtBf_3map11make_hasheryuNtNtNtCscOYdFFY2T5N_3std4hash6random11RandomStateE0E0INtNtNtCsfvfooZQ3Axs_4core3ops8function6FnOnceTQNtBd_13RawTableInnerjEE9call_once6vtableCsceeBBjCCtRQ_7autocfg, symObjAddr: 0x2398, symBinAddr: 0x10000D5C0, symSize: 0x38 }
  - { offset: 0x1FE7A, size: 0x8, addend: 0x0, symName: __RNSNvYNCINvMs6_NtCsloNvcHxBCre_9hashbrown3rawINtBd_8RawTableTyuEE24find_or_find_insert_slotNCINvNtBf_3map14equivalent_keyyyuE0NCINvB1w_11make_hasheryuNtNtNtCscOYdFFY2T5N_3std4hash6random11RandomStateE0E0INtNtNtCsfvfooZQ3Axs_4core3ops8function6FnOnceTjEE9call_once6vtableCsceeBBjCCtRQ_7autocfg, symObjAddr: 0x23D0, symBinAddr: 0x10000D5F8, symSize: 0x38 }
  - { offset: 0x1FEBE, size: 0x8, addend: 0x0, symName: __RNvYNCINvMs6_NtCsloNvcHxBCre_9hashbrown3rawINtBb_8RawTableTyuEE14reserve_rehashNCINvNtBd_3map11make_hasheryuNtNtNtCscOYdFFY2T5N_3std4hash6random11RandomStateE0E0INtNtNtCsfvfooZQ3Axs_4core3ops8function6FnOnceTQNtBb_13RawTableInnerjEE9call_onceCsceeBBjCCtRQ_7autocfg, symObjAddr: 0x3758, symBinAddr: 0x10000E7E0, symSize: 0x5C }
  - { offset: 0x1FF02, size: 0x8, addend: 0x0, symName: __RNvYNCINvMs6_NtCsloNvcHxBCre_9hashbrown3rawINtBb_8RawTableTyuEE24find_or_find_insert_slotNCINvNtBd_3map14equivalent_keyyyuE0NCINvB1u_11make_hasheryuNtNtNtCscOYdFFY2T5N_3std4hash6random11RandomStateE0E0INtNtNtCsfvfooZQ3Axs_4core3ops8function6FnOnceTjEE9call_onceCsceeBBjCCtRQ_7autocfg, symObjAddr: 0x37B4, symBinAddr: 0x10000E83C, symSize: 0x58 }
  - { offset: 0x1FF46, size: 0x8, addend: 0x0, symName: __RNvYNCNkNvNvMNtNtCscOYdFFY2T5N_3std4hash6randomNtBb_11RandomState3new4KEYS0s_0INtNtNtCsfvfooZQ3Axs_4core3ops8function6FnOnceTINtNtB1l_6option6OptionQIB20_INtNtB1l_4cell4CellTyyEEEEEE9call_onceCsceeBBjCCtRQ_7autocfg, symObjAddr: 0x380C, symBinAddr: 0x10000E894, symSize: 0x4C }
  - { offset: 0x1FF8A, size: 0x8, addend: 0x0, symName: __RNvYNcNtNtCscOYdFFY2T5N_3std2fs8Metadata0INtNtNtCsfvfooZQ3Axs_4core3ops8function6FnOnceTNtNtNtNtNtB8_3sys3pal4unix2fs8FileAttrEE9call_onceCsceeBBjCCtRQ_7autocfg, symObjAddr: 0x3858, symBinAddr: 0x10000E8E0, symSize: 0x40 }
  - { offset: 0x1FFCE, size: 0x8, addend: 0x0, symName: __RNvYNvMNtCsfvfooZQ3Axs_4core6optionINtB5_6OptionINtNtB7_4cell4CellTyyEEE4takeINtNtNtB7_3ops8function6FnOnceTQBx_EE9call_onceCsceeBBjCCtRQ_7autocfg, symObjAddr: 0x39BC, symBinAddr: 0x10000E98C, symSize: 0x24 }
  - { offset: 0x20012, size: 0x8, addend: 0x0, symName: __RNvYNvNtCsceeBBjCCtRQ_7autocfg5error7from_ioINtNtNtCsfvfooZQ3Axs_4core3ops8function6FnOnceTNtNtNtCscOYdFFY2T5N_3std2io5error5ErrorEE9call_onceB6_, symObjAddr: 0x39E0, symBinAddr: 0x10000E9B0, symSize: 0x24 }
  - { offset: 0x20056, size: 0x8, addend: 0x0, symName: __RNvYNvNtCsceeBBjCCtRQ_7autocfg5error8from_numINtNtNtCsfvfooZQ3Axs_4core3ops8function6FnOnceTNtNtNtBO_3num5error13ParseIntErrorEE9call_onceB6_, symObjAddr: 0x3A04, symBinAddr: 0x10000E9D4, symSize: 0x24 }
  - { offset: 0x2009A, size: 0x8, addend: 0x0, symName: __RNvYNvNtCsceeBBjCCtRQ_7autocfg5error9from_utf8INtNtNtCsfvfooZQ3Axs_4core3ops8function6FnOnceTNtNtNtBP_3str5error9Utf8ErrorEE9call_onceB6_, symObjAddr: 0x3A28, symBinAddr: 0x10000E9F8, symSize: 0x28 }
  - { offset: 0x200DE, size: 0x8, addend: 0x0, symName: __RNvYNvNvNvMNtNtCscOYdFFY2T5N_3std4hash6randomNtB9_11RandomState3new4KEYS6___initINtNtNtCsfvfooZQ3Axs_4core3ops8function6FnOnceuE9call_onceCsceeBBjCCtRQ_7autocfg, symObjAddr: 0x3A50, symBinAddr: 0x10000EA20, symSize: 0x1C }
  - { offset: 0x20122, size: 0x8, addend: 0x0, symName: __RNvYNvYINtNtCsfvfooZQ3Axs_4core6option4IterNtNtCscOYdFFY2T5N_3std4path7PathBufENtNtNtNtBa_4iter6traits8iterator8Iterator4nextINtNtNtBa_3ops8function6FnOnceTQB5_EE9call_onceCsceeBBjCCtRQ_7autocfg, symObjAddr: 0x3A6C, symBinAddr: 0x10000EA3C, symSize: 0x24 }
  - { offset: 0x20166, size: 0x8, addend: 0x0, symName: __RNvYNvYINtNtNtNtCsfvfooZQ3Axs_4core4iter8adapters5chain5ChainINtNtBe_6option4IterNtNtCscOYdFFY2T5N_3std4path7PathBufEBX_ENtNtNtBc_6traits8iterator8Iterator4nextINtNtNtBe_3ops8function6FnOnceTQB5_EE9call_onceCsceeBBjCCtRQ_7autocfg, symObjAddr: 0x3A90, symBinAddr: 0x10000EA60, symSize: 0x24 }
  - { offset: 0x201AA, size: 0x8, addend: 0x0, symName: __RNvYNvYNtNtCscOYdFFY2T5N_3std4path7PathBufINtNtCsfvfooZQ3Axs_4core7convert4FromNtNtNtB9_3ffi6os_str8OsStringE4fromINtNtNtBJ_3ops8function6FnOnceTB1f_EE9call_onceCsceeBBjCCtRQ_7autocfg, symObjAddr: 0x3AB4, symBinAddr: 0x10000EA84, symSize: 0x34 }
  - { offset: 0x201EE, size: 0x8, addend: 0x0, symName: __RNvYNvYeNtNtCse1nGBsou5OW_5alloc6borrow7ToOwned8to_ownedINtNtNtCsfvfooZQ3Axs_4core3ops8function6FnOnceTReEE9call_onceCsceeBBjCCtRQ_7autocfg, symObjAddr: 0x3AE8, symBinAddr: 0x10000EAB8, symSize: 0x2C }
  - { offset: 0x20238, size: 0x8, addend: 0x0, symName: __RNvYNvMNtCsfvfooZQ3Axs_4core3stre4trimINtNtNtB7_3ops8function5FnMutTReEE8call_mutCsceeBBjCCtRQ_7autocfg, symObjAddr: 0x398C, symBinAddr: 0x10000E95C, symSize: 0x30 }
  - { offset: 0x2027C, size: 0x8, addend: 0x0, symName: __RNvYNvYeNtNtCse1nGBsou5OW_5alloc6string8ToString9to_stringINtNtNtCsfvfooZQ3Axs_4core3ops8function5FnMutTReEE8call_mutCsceeBBjCCtRQ_7autocfg, symObjAddr: 0x3B14, symBinAddr: 0x10000EAE4, symSize: 0x30 }
  - { offset: 0x20343, size: 0x8, addend: 0x0, symName: __RNvXNtCsfvfooZQ3Axs_4core7convertRNtNtCscOYdFFY2T5N_3std4path7PathBufINtB2_5AsRefNtBy_4PathE6as_refCsceeBBjCCtRQ_7autocfg, symObjAddr: 0x2C70, symBinAddr: 0x10000DD18, symSize: 0x28 }
  - { offset: 0x20383, size: 0x8, addend: 0x0, symName: __RNvXNtCsfvfooZQ3Axs_4core7convertRNtNtCscOYdFFY2T5N_3std4path7PathBufINtB2_5AsRefNtNtNtBA_3ffi6os_str5OsStrE6as_refCsceeBBjCCtRQ_7autocfg, symObjAddr: 0x2C98, symBinAddr: 0x10000DD40, symSize: 0x28 }
  - { offset: 0x203C3, size: 0x8, addend: 0x0, symName: __RNvXNtCsfvfooZQ3Axs_4core7convertRRNtNtCscOYdFFY2T5N_3std4path7PathBufINtB2_5AsRefNtNtNtBB_3ffi6os_str5OsStrE6as_refCsceeBBjCCtRQ_7autocfg, symObjAddr: 0x2CC0, symBinAddr: 0x10000DD68, symSize: 0x28 }
  - { offset: 0x20403, size: 0x8, addend: 0x0, symName: __RNvXNtCsfvfooZQ3Axs_4core7convertRReINtB2_5AsRefNtNtNtCscOYdFFY2T5N_3std3ffi6os_str5OsStrE6as_refCsceeBBjCCtRQ_7autocfg, symObjAddr: 0x2CE8, symBinAddr: 0x10000DD90, symSize: 0x28 }
  - { offset: 0x20443, size: 0x8, addend: 0x0, symName: __RNvXNtCsfvfooZQ3Axs_4core7convertReINtB2_5AsRefNtNtNtCscOYdFFY2T5N_3std3ffi6os_str5OsStrE6as_refCsceeBBjCCtRQ_7autocfg, symObjAddr: 0x2D10, symBinAddr: 0x10000DDB8, symSize: 0x30 }
  - { offset: 0x20489, size: 0x8, addend: 0x0, symName: __RNvXs1_NtCsfvfooZQ3Axs_4core7convertReINtB5_4IntoNtNtNtCscOYdFFY2T5N_3std3ffi6os_str8OsStringE4intoCsceeBBjCCtRQ_7autocfg, symObjAddr: 0x2EA0, symBinAddr: 0x10000DF28, symSize: 0x28 }
  - { offset: 0x20631, size: 0x8, addend: 0x0, symName: __RNvXNtNtCsfvfooZQ3Axs_4core3str4iterNtB2_5CharsNtNtNtNtB6_4iter6traits8iterator8Iterator4nextCsceeBBjCCtRQ_7autocfg, symObjAddr: 0x2D40, symBinAddr: 0x10000DDE8, symSize: 0x70 }
  - { offset: 0x206C8, size: 0x8, addend: 0x0, symName: __RNvXNtNtCsfvfooZQ3Axs_4core3str4iterNtB2_5CharsNtNtNtNtB6_4iter6traits8iterator8Iterator9size_hintCsceeBBjCCtRQ_7autocfg, symObjAddr: 0x2DB0, symBinAddr: 0x10000DE58, symSize: 0x74 }
  - { offset: 0x20766, size: 0x8, addend: 0x0, symName: __RNvXs1i_NtNtCsfvfooZQ3Axs_4core3str4iterINtB6_6SplitNcENtNtNtNtBa_4iter6traits8iterator8Iterator4nextCsceeBBjCCtRQ_7autocfg, symObjAddr: 0x3000, symBinAddr: 0x10000E088, symSize: 0x24 }
  - { offset: 0x207B8, size: 0x8, addend: 0x0, symName: __RNvXs3_NtNtCsfvfooZQ3Axs_4core3str4iterNtB5_11CharIndicesNtNtNtNtB9_4iter6traits8iterator8Iterator4nextCsceeBBjCCtRQ_7autocfg, symObjAddr: 0x3160, symBinAddr: 0x10000E1E8, symSize: 0x120 }
  - { offset: 0x209F1, size: 0x8, addend: 0x0, symName: __RNvXs4_NtNtCsfvfooZQ3Axs_4core3str4iterNtB5_11CharIndicesNtNtNtNtB9_4iter6traits12double_ended19DoubleEndedIterator9next_backCsceeBBjCCtRQ_7autocfg, symObjAddr: 0x3280, symBinAddr: 0x10000E308, symSize: 0x13C }
  - { offset: 0x20B44, size: 0x8, addend: 0x0, symName: __RNvXsH_NtNtCsfvfooZQ3Axs_4core3str4iterINtB5_14SplitInclusivecENtNtNtNtB9_4iter6traits8iterator8Iterator4nextCsceeBBjCCtRQ_7autocfg, symObjAddr: 0x3490, symBinAddr: 0x10000E518, symSize: 0x24 }
  - { offset: 0x20B81, size: 0x8, addend: 0x0, symName: __RNvXsX_NtNtCsfvfooZQ3Axs_4core3str4iterINtB5_5SplitcENtNtNtNtB9_4iter6traits8iterator8Iterator4nextCsceeBBjCCtRQ_7autocfg, symObjAddr: 0x34B4, symBinAddr: 0x10000E53C, symSize: 0x24 }
  - { offset: 0x20BBE, size: 0x8, addend: 0x0, symName: __RNvXss_NtNtCsfvfooZQ3Axs_4core3str4iterNtB5_5LinesNtNtNtNtB9_4iter6traits8iterator8Iterator4nextCsceeBBjCCtRQ_7autocfg, symObjAddr: 0x369C, symBinAddr: 0x10000E724, symSize: 0x24 }
  - { offset: 0x20CE2, size: 0x8, addend: 0x0, symName: __RNvXs8_NtNtCsfvfooZQ3Axs_4core3str5errorNtB5_9Utf8ErrorNtNtB9_3fmt5Debug3fmtCsceeBBjCCtRQ_7autocfg, symObjAddr: 0x33BC, symBinAddr: 0x10000E444, symSize: 0x88 }
  - { offset: 0x20DF9, size: 0x8, addend: 0x0, symName: __RNvNvXs5_NtNtCsfvfooZQ3Axs_4core3str6traitsINtNtNtBb_3ops5range5RangejEINtNtNtBb_5slice5index10SliceIndexeE13get_unchecked18precondition_checkCsceeBBjCCtRQ_7autocfg, symObjAddr: 0x2C10, symBinAddr: 0x10000DCB8, symSize: 0x60 }
  - { offset: 0x20E44, size: 0x8, addend: 0x0, symName: __RNvXs2_NtNtCsfvfooZQ3Axs_4core3str6traitseINtNtNtB9_3ops5index5IndexINtNtBJ_5range7RangeTojEE5indexCsceeBBjCCtRQ_7autocfg, symObjAddr: 0x30BC, symBinAddr: 0x10000E144, symSize: 0x44 }
  - { offset: 0x20E87, size: 0x8, addend: 0x0, symName: __RNvXs2_NtNtCsfvfooZQ3Axs_4core3str6traitseINtNtNtB9_3ops5index5IndexINtNtBJ_5range9RangeFromjEE5indexCsceeBBjCCtRQ_7autocfg, symObjAddr: 0x3100, symBinAddr: 0x10000E188, symSize: 0x44 }
  - { offset: 0x20F81, size: 0x8, addend: 0x0, symName: __RINvYNtNtNtCscOYdFFY2T5N_3std4hash6random11RandomStateNtNtCsfvfooZQ3Axs_4core4hash11BuildHasher8hash_oneRyECsceeBBjCCtRQ_7autocfg, symObjAddr: 0x1EC4, symBinAddr: 0x10000D0EC, symSize: 0x84 }
  - { offset: 0x21130, size: 0x8, addend: 0x0, symName: __RNvYNtNtNtCscOYdFFY2T5N_3std4hash6random13DefaultHasherNtNtCsfvfooZQ3Axs_4core4hash6Hasher9write_u64CsceeBBjCCtRQ_7autocfg, symObjAddr: 0x3898, symBinAddr: 0x10000E920, symSize: 0x3C }
  - { offset: 0x2124B, size: 0x8, addend: 0x0, symName: __RNvNtNtNtNtCsfvfooZQ3Axs_4core9core_arch10arm_shared4neon9generated18vreinterpret_s8_u8CsceeBBjCCtRQ_7autocfg, symObjAddr: 0x2BAC, symBinAddr: 0x10000DC54, symSize: 0xC }
  - { offset: 0x21279, size: 0x8, addend: 0x0, symName: __RNvNtNtNtNtCsfvfooZQ3Axs_4core9core_arch10arm_shared4neon9generated19vreinterpret_u64_u8CsceeBBjCCtRQ_7autocfg, symObjAddr: 0x2BB8, symBinAddr: 0x10000DC60, symSize: 0xC }
  - { offset: 0x212A7, size: 0x8, addend: 0x0, symName: __RNvNtNtNtNtCsfvfooZQ3Axs_4core9core_arch10arm_shared4neon9generated7vceq_u8CsceeBBjCCtRQ_7autocfg, symObjAddr: 0x2BC4, symBinAddr: 0x10000DC6C, symSize: 0x14 }
  - { offset: 0x212E4, size: 0x8, addend: 0x0, symName: __RNvNtNtNtNtCsfvfooZQ3Axs_4core9core_arch10arm_shared4neon9generated7vorr_u8CsceeBBjCCtRQ_7autocfg, symObjAddr: 0x2BD8, symBinAddr: 0x10000DC80, symSize: 0x14 }
  - { offset: 0x215D6, size: 0x8, addend: 0x0, symName: __RNvXsb_NtCsfvfooZQ3Axs_4core5arrayRARNtNtCscOYdFFY2T5N_3std4path7PathBufj2_NtNtNtNtB7_4iter6traits7collect12IntoIterator9into_iterCsceeBBjCCtRQ_7autocfg, symObjAddr: 0x3604, symBinAddr: 0x10000E68C, symSize: 0x58 }
  - { offset: 0x21BFC, size: 0x8, addend: 0x0, symName: __RNvNtNtNtNtCscOYdFFY2T5N_3std3sys3pal4unix2fs23debug_assert_fd_is_openCsceeBBjCCtRQ_7autocfg, symObjAddr: 0x2AE4, symBinAddr: 0x10000DB8C, symSize: 0xC8 }
  - { offset: 0x21DCA, size: 0x8, addend: 0x0, symName: __RNvXs11_NtCscOYdFFY2T5N_3std4pathNtB6_7PathBufINtNtCsfvfooZQ3Axs_4core7convert5AsRefNtNtNtB8_3ffi6os_str5OsStrE6as_refCsceeBBjCCtRQ_7autocfg, symObjAddr: 0x2E74, symBinAddr: 0x10000DEFC, symSize: 0x2C }
  - { offset: 0x21E1C, size: 0x8, addend: 0x0, symName: __RNvXsH_NtCscOYdFFY2T5N_3std4pathNtB5_7PathBufNtNtNtCsfvfooZQ3Axs_4core3ops5deref5Deref5derefCsceeBBjCCtRQ_7autocfg, symObjAddr: 0x345C, symBinAddr: 0x10000E4E4, symSize: 0x34 }
  - { offset: 0x21EAA, size: 0x8, addend: 0x0, symName: __RNvXs1j_NtCscOYdFFY2T5N_3std4pathNtB6_7PathBufINtNtCsfvfooZQ3Axs_4core7convert5AsRefNtB6_4PathE6as_refCsceeBBjCCtRQ_7autocfg, symObjAddr: 0x3024, symBinAddr: 0x10000E0AC, symSize: 0x34 }
  - { offset: 0x21F56, size: 0x8, addend: 0x0, symName: __RNvXsA_NtCscOYdFFY2T5N_3std4pathNtB5_7PathBufINtNtCsfvfooZQ3Axs_4core7convert4FromNtNtNtB7_3ffi6os_str8OsStringE4fromCsceeBBjCCtRQ_7autocfg, symObjAddr: 0x3444, symBinAddr: 0x10000E4CC, symSize: 0x18 }
  - { offset: 0x21FA8, size: 0x8, addend: 0x0, symName: __RNvXsz_NtCscOYdFFY2T5N_3std4pathNtB5_7PathBufINtNtCsfvfooZQ3Axs_4core7convert4FromReE4fromCsceeBBjCCtRQ_7autocfg, symObjAddr: 0x36C0, symBinAddr: 0x10000E748, symSize: 0x64 }
  - { offset: 0x221F6, size: 0x8, addend: 0x0, symName: __RNCNkNvNvMNtNtCscOYdFFY2T5N_3std4hash6randomNtB8_11RandomState3new4KEYS0s_0CsceeBBjCCtRQ_7autocfg, symObjAddr: 0x2238, symBinAddr: 0x10000D460, symSize: 0x3C }
  - { offset: 0x22234, size: 0x8, addend: 0x0, symName: __RNvNvNvMNtNtCscOYdFFY2T5N_3std4hash6randomNtB6_11RandomState3new4KEYS6___initCsceeBBjCCtRQ_7autocfg, symObjAddr: 0x2BEC, symBinAddr: 0x10000DC94, symSize: 0x24 }
  - { offset: 0x22252, size: 0x8, addend: 0x0, symName: __RNCNvMNtNtCscOYdFFY2T5N_3std4hash6randomNtB4_11RandomState3new0CsceeBBjCCtRQ_7autocfg, symObjAddr: 0x2274, symBinAddr: 0x10000D49C, symSize: 0x2C }
  - { offset: 0x2232D, size: 0x8, addend: 0x0, symName: __RNvXs2_NtNtCscOYdFFY2T5N_3std4hash6randomNtB5_13DefaultHasherNtNtCsfvfooZQ3Axs_4core4hash6Hasher5writeCsceeBBjCCtRQ_7autocfg, symObjAddr: 0x3058, symBinAddr: 0x10000E0E0, symSize: 0x38 }
  - { offset: 0x22388, size: 0x8, addend: 0x0, symName: __RNvXs2_NtNtCscOYdFFY2T5N_3std4hash6randomNtB5_13DefaultHasherNtNtCsfvfooZQ3Axs_4core4hash6Hasher6finishCsceeBBjCCtRQ_7autocfg, symObjAddr: 0x3090, symBinAddr: 0x10000E118, symSize: 0x2C }
  - { offset: 0x22407, size: 0x8, addend: 0x0, symName: __RNvXs3_NtNtCscOYdFFY2T5N_3std4hash6randomNtB5_11RandomStateNtNtCsfvfooZQ3Axs_4core7default7Default7defaultCsceeBBjCCtRQ_7autocfg, symObjAddr: 0x3144, symBinAddr: 0x10000E1CC, symSize: 0x1C }
  - { offset: 0x2243F, size: 0x8, addend: 0x0, symName: __RNvXs_NtNtCscOYdFFY2T5N_3std4hash6randomNtB4_11RandomStateNtNtCsfvfooZQ3Axs_4core4hash11BuildHasher12build_hasherCsceeBBjCCtRQ_7autocfg, symObjAddr: 0x34D8, symBinAddr: 0x10000E560, symSize: 0xCC }
  - { offset: 0x22B49, size: 0x8, addend: 0x0, symName: __RINvNtNtNtCse1nGBsou5OW_5alloc11collections5btree3mem7replaceINtNtB4_4node6HandleINtB10_7NodeRefNtNtB10_6marker5DyingNtNtNtCscOYdFFY2T5N_3std3ffi6os_str8OsStringINtNtCsfvfooZQ3Axs_4core6option6OptionB1R_ENtB1y_4LeafENtB1y_4EdgeEIBY_IB1i_B1w_B1R_B2z_NtB1y_14LeafOrInternalENtB1y_2KVENCINvMsm_NtB4_8navigateBX_27deallocating_next_uncheckedNtNtB8_5alloc6GlobalE0ECsceeBBjCCtRQ_7autocfg, symObjAddr: 0x19C8, symBinAddr: 0x10000CBF0, symSize: 0xCC }
  - { offset: 0x22E70, size: 0x8, addend: 0x0, symName: __RINvMs12_NtCscOYdFFY2T5N_3std4pathNtB7_4Path4joinNtNtCse1nGBsou5OW_5alloc6string6StringECsceeBBjCCtRQ_7autocfg, symObjAddr: 0x0, symBinAddr: 0x10000B444, symSize: 0x94 }
  - { offset: 0x23010, size: 0x8, addend: 0x0, symName: __RINvMs3_NtCsfvfooZQ3Axs_4core3fmtNtB6_9Arguments6new_v1Kj1_KBS_ECsceeBBjCCtRQ_7autocfg, symObjAddr: 0x94, symBinAddr: 0x10000B4D8, symSize: 0x50 }
  - { offset: 0x23076, size: 0x8, addend: 0x0, symName: __RINvMs3_NtCsfvfooZQ3Axs_4core3fmtNtB6_9Arguments6new_v1Kj2_Kj1_ECsceeBBjCCtRQ_7autocfg, symObjAddr: 0x134, symBinAddr: 0x10000B528, symSize: 0x54 }
  - { offset: 0x230ED, size: 0x8, addend: 0x0, symName: __RINvMs_NtNtCsfvfooZQ3Axs_4core3fmt2rtNtB5_8Argument11new_displayNtB7_9ArgumentsECsceeBBjCCtRQ_7autocfg, symObjAddr: 0x188, symBinAddr: 0x10000B57C, symSize: 0x2C }
  - { offset: 0x2317A, size: 0x8, addend: 0x0, symName: __RINvMs_NtNtCsfvfooZQ3Axs_4core3fmt2rtNtB5_8Argument11new_displayNtNtCse1nGBsou5OW_5alloc6string6StringECsceeBBjCCtRQ_7autocfg, symObjAddr: 0x1B4, symBinAddr: 0x10000B5A8, symSize: 0x2C }
  - { offset: 0x23245, size: 0x8, addend: 0x0, symName: __RINvMs_NtNtCsfvfooZQ3Axs_4core3fmt2rtNtB5_8Argument11new_displayReECsceeBBjCCtRQ_7autocfg, symObjAddr: 0x20C, symBinAddr: 0x10000B5D4, symSize: 0x2C }
  - { offset: 0x232D2, size: 0x8, addend: 0x0, symName: __RINvMs_NtNtCsfvfooZQ3Axs_4core3fmt2rtNtB5_8Argument11new_displayjECsceeBBjCCtRQ_7autocfg, symObjAddr: 0x238, symBinAddr: 0x10000B600, symSize: 0x2C }
  - { offset: 0x2335F, size: 0x8, addend: 0x0, symName: __RINvMs_NtNtCsfvfooZQ3Axs_4core3fmt2rtNtB5_8Argument13new_lower_hexyECsceeBBjCCtRQ_7autocfg, symObjAddr: 0x264, symBinAddr: 0x10000B62C, symSize: 0x2C }
  - { offset: 0x233BB, size: 0x8, addend: 0x0, symName: __RINvMsr_NtCscOYdFFY2T5N_3std4pathNtB6_7PathBuf13set_extensionReECsceeBBjCCtRQ_7autocfg, symObjAddr: 0x290, symBinAddr: 0x10000B658, symSize: 0x74 }
  - { offset: 0x23403, size: 0x8, addend: 0x0, symName: __RINvMsr_NtCscOYdFFY2T5N_3std4pathNtB6_7PathBuf4pushRNtNtNtB8_3ffi6os_str8OsStringECsceeBBjCCtRQ_7autocfg, symObjAddr: 0x304, symBinAddr: 0x10000B6CC, symSize: 0x68 }
  - { offset: 0x23784, size: 0x8, addend: 0x0, symName: __RNvMNtNtCsfvfooZQ3Axs_4core3fmt2rtNtB2_11Placeholder3newCsceeBBjCCtRQ_7autocfg, symObjAddr: 0x2408, symBinAddr: 0x10000D630, symSize: 0x4C }
  - { offset: 0x237EC, size: 0x8, addend: 0x0, symName: __RNvMs0_NtNtCsfvfooZQ3Axs_4core3fmt2rtNtB5_9UnsafeArg3newCsceeBBjCCtRQ_7autocfg, symObjAddr: 0x2454, symBinAddr: 0x10000D67C, symSize: 0x4 }
  - { offset: 0x2386D, size: 0x8, addend: 0x0, symName: __RNvMs12_NtCscOYdFFY2T5N_3std4pathNtB6_4Path6to_strCsceeBBjCCtRQ_7autocfg, symObjAddr: 0x2458, symBinAddr: 0x10000D680, symSize: 0x88 }
  - { offset: 0x238E2, size: 0x8, addend: 0x0, symName: __RNvMs3_NtCsfvfooZQ3Axs_4core3fmtNtB5_9Arguments16new_v1_formattedCsceeBBjCCtRQ_7autocfg, symObjAddr: 0x24E0, symBinAddr: 0x10000D708, symSize: 0x58 }
  - { offset: 0x23978, size: 0x8, addend: 0x0, symName: __RNvMsf_NtNtCsfvfooZQ3Axs_4core3str4iterINtB5_13SplitInternalcE14next_inclusiveCsceeBBjCCtRQ_7autocfg, symObjAddr: 0x26B8, symBinAddr: 0x10000D760, symSize: 0x128 }
  - { offset: 0x23AA3, size: 0x8, addend: 0x0, symName: __RNvMsf_NtNtCsfvfooZQ3Axs_4core3str4iterINtB5_13SplitInternalcE4nextCsceeBBjCCtRQ_7autocfg, symObjAddr: 0x27E0, symBinAddr: 0x10000D888, symSize: 0x138 }
  - { offset: 0x23BDF, size: 0x8, addend: 0x0, symName: __RNvMsf_NtNtCsfvfooZQ3Axs_4core3str4iterINtB5_13SplitInternalcE7get_endCsceeBBjCCtRQ_7autocfg, symObjAddr: 0x2918, symBinAddr: 0x10000D9C0, symSize: 0x120 }
  - { offset: 0x23CEA, size: 0x8, addend: 0x0, symName: __RNvMsl_NtNtCsfvfooZQ3Axs_4core3str4iterINtB5_14SplitNInternalcE4nextCsceeBBjCCtRQ_7autocfg, symObjAddr: 0x2A38, symBinAddr: 0x10000DAE0, symSize: 0xAC }
  - { offset: 0x25200, size: 0x8, addend: 0x0, symName: __RINvMsk_NtCscOYdFFY2T5N_3std7processNtB6_7Command3argRNtNtB8_4path7PathBufECsceeBBjCCtRQ_7autocfg, symObjAddr: 0x0, symBinAddr: 0x10000EB14, symSize: 0x6C }
  - { offset: 0x254EE, size: 0x8, addend: 0x0, symName: __RNvYNtNtCscOYdFFY2T5N_3std7process10ChildStdinNtNtB6_2io5Write9write_allCsceeBBjCCtRQ_7autocfg, symObjAddr: 0x21B8, symBinAddr: 0x100010818, symSize: 0x180 }
  - { offset: 0x2558F, size: 0x8, addend: 0x0, symName: __RNvYNtNtCscOYdFFY2T5N_3std7process10ChildStdinNtNtB6_2io5Write9write_fmtCsceeBBjCCtRQ_7autocfg, symObjAddr: 0x2338, symBinAddr: 0x100010998, symSize: 0x128 }
  - { offset: 0x25BB2, size: 0x8, addend: 0x0, symName: __RNvXs18_NtCscOYdFFY2T5N_3std7processNtB6_10ExitStatusNtNtCsfvfooZQ3Axs_4core3fmt5Debug3fmtCsceeBBjCCtRQ_7autocfg, symObjAddr: 0x1C50, symBinAddr: 0x1000102E0, symSize: 0x54 }
  - { offset: 0x25DAF, size: 0x8, addend: 0x0, symName: __RINvXs5_NtNtNtCscOYdFFY2T5N_3std11collections4hash3setINtB6_7HashSetyEINtNtNtNtCsfvfooZQ3Axs_4core4iter6traits7collect12FromIteratoryE9from_iterINtNtNtB1f_3ops5range5RangeyEECsceeBBjCCtRQ_7autocfg, symObjAddr: 0xAE0, symBinAddr: 0x10000F470, symSize: 0x14C }
  - { offset: 0x25E9B, size: 0x8, addend: 0x0, symName: __RNvXsh_NtNtNtCscOYdFFY2T5N_3std11collections4hash3setINtB5_7HashSetyENtNtNtNtCsfvfooZQ3Axs_4core4iter6traits7collect12IntoIterator9into_iterCsceeBBjCCtRQ_7autocfg, symObjAddr: 0x1E84, symBinAddr: 0x1000104E4, symSize: 0x90 }
  - { offset: 0x25F01, size: 0x8, addend: 0x0, symName: __RNvXsn_NtNtNtCscOYdFFY2T5N_3std11collections4hash3setINtB5_8IntoIteryENtNtNtNtCsfvfooZQ3Axs_4core4iter6traits8iterator8Iterator4nextCsceeBBjCCtRQ_7autocfg, symObjAddr: 0x1F14, symBinAddr: 0x100010574, symSize: 0x70 }
  - { offset: 0x26838, size: 0x8, addend: 0x0, symName: __RINvNtCsfvfooZQ3Axs_4core3ptr14read_unalignedNtNtNtNtB4_9core_arch10arm_shared4neon9uint8x8_tECsceeBBjCCtRQ_7autocfg, symObjAddr: 0x57C, symBinAddr: 0x10000F090, symSize: 0x8C }
  - { offset: 0x2690C, size: 0x8, addend: 0x0, symName: __RINvNtCsfvfooZQ3Axs_4core3ptr15write_unalignedNtNtNtNtB4_9core_arch10arm_shared4neon9uint8x8_tECsceeBBjCCtRQ_7autocfg, symObjAddr: 0x608, symBinAddr: 0x10000F11C, symSize: 0x70 }
  - { offset: 0x26A66, size: 0x8, addend: 0x0, symName: __RINvNvNtCsfvfooZQ3Axs_4core3ptr19swap_nonoverlapping7runtimehECsceeBBjCCtRQ_7autocfg, symObjAddr: 0x7FC, symBinAddr: 0x10000F18C, symSize: 0x1B4 }
  - { offset: 0x27114, size: 0x8, addend: 0x0, symName: __RNvNvNtCsfvfooZQ3Axs_4core3ptr13read_volatile18precondition_checkCsceeBBjCCtRQ_7autocfg, symObjAddr: 0x169C, symBinAddr: 0x10001002C, symSize: 0x100 }
  - { offset: 0x27229, size: 0x8, addend: 0x0, symName: __RNvNvNtCsfvfooZQ3Axs_4core3ptr7replace18precondition_checkCsceeBBjCCtRQ_7autocfg, symObjAddr: 0x1A9C, symBinAddr: 0x10001012C, symSize: 0x100 }
  - { offset: 0x27755, size: 0x8, addend: 0x0, symName: __RNvXs1a_NtCsfvfooZQ3Axs_4core3fmtRNtNtCscOYdFFY2T5N_3std7process10ExitStatusNtB6_5Debug3fmtCsceeBBjCCtRQ_7autocfg, symObjAddr: 0x1D38, symBinAddr: 0x1000103C8, symSize: 0x30 }
  - { offset: 0x2779B, size: 0x8, addend: 0x0, symName: __RNvXs1a_NtCsfvfooZQ3Axs_4core3fmtRNtNtNtCscOYdFFY2T5N_3std2io5error5ErrorNtB6_5Debug3fmtCsceeBBjCCtRQ_7autocfg, symObjAddr: 0x1D68, symBinAddr: 0x1000103F8, symSize: 0x30 }
  - { offset: 0x28348, size: 0x8, addend: 0x0, symName: __RINvXs3_NtNtCsfvfooZQ3Axs_4core4hash5implsRyNtB8_4Hash4hashNtNtNtCscOYdFFY2T5N_3std4hash6random13DefaultHasherECsceeBBjCCtRQ_7autocfg, symObjAddr: 0xAB0, symBinAddr: 0x10000F440, symSize: 0x30 }
  - { offset: 0x28399, size: 0x8, addend: 0x0, symName: __RINvXsa_NtNtCsfvfooZQ3Axs_4core4hash5implsyNtB8_4Hash4hashNtNtNtCscOYdFFY2T5N_3std4hash6random13DefaultHasherECsceeBBjCCtRQ_7autocfg, symObjAddr: 0xC2C, symBinAddr: 0x10000F5BC, symSize: 0x38 }
  - { offset: 0x28630, size: 0x8, addend: 0x0, symName: __RNvXs1_NtNtNtCsfvfooZQ3Axs_4core4iter8adapters6filterINtB5_6FilterINtNtB7_3map3MapINtNtNtBb_3str4iter5SplitcENvMB1n_e4trimENCNvCsceeBBjCCtRQ_7autocfg9rustflags0ENtNtNtB9_6traits8iterator8Iterator4nextB21_, symObjAddr: 0x1CC0, symBinAddr: 0x100010350, symSize: 0x2C }
  - { offset: 0x2866E, size: 0x8, addend: 0x0, symName: __RNvXs1_NtNtNtCsfvfooZQ3Axs_4core4iter8adapters6filterINtB5_6FilterINtNtB7_3map3MapINtNtNtBb_3str4iter5SplitcENvMB1n_e4trimENCNvCsceeBBjCCtRQ_7autocfg9rustflags0ENtNtNtB9_6traits8iterator8Iterator9size_hintB21_, symObjAddr: 0x1CEC, symBinAddr: 0x10001037C, symSize: 0x4C }
  - { offset: 0x2873A, size: 0x8, addend: 0x0, symName: __RINvYINtNtNtNtCsfvfooZQ3Axs_4core4iter8adapters6filter6FilterINtNtB8_3map3MapINtNtNtBc_3str4iter5SplitcENvMB1i_e4trimENCNvCsceeBBjCCtRQ_7autocfg9rustflags0ENtNtNtBa_6traits8iterator8Iterator3mapNtNtCse1nGBsou5OW_5alloc6string6StringNvYeNtB38_8ToString9to_stringEB1W_, symObjAddr: 0xC64, symBinAddr: 0x10000F5F4, symSize: 0x30 }
  - { offset: 0x288AE, size: 0x8, addend: 0x0, symName: __RNvMNtNtCsfvfooZQ3Axs_4core4char7methodsc8to_digitCsceeBBjCCtRQ_7autocfg, symObjAddr: 0xD30, symBinAddr: 0x10000F6C0, symSize: 0x14C }
  - { offset: 0x289AE, size: 0x8, addend: 0x0, symName: __RNvNtNtCsfvfooZQ3Axs_4core4char7methods15encode_utf8_rawCsceeBBjCCtRQ_7autocfg, symObjAddr: 0x1328, symBinAddr: 0x10000FCB8, symSize: 0x228 }
  - { offset: 0x28B94, size: 0x8, addend: 0x0, symName: __RNvXs1_NtCsfvfooZQ3Axs_4core7convertNtNtCscOYdFFY2T5N_3std7process5StdioINtB5_4IntoBy_E4intoCsceeBBjCCtRQ_7autocfg, symObjAddr: 0x1CA4, symBinAddr: 0x100010334, symSize: 0x1C }
  - { offset: 0x28D3B, size: 0x8, addend: 0x0, symName: __RNvNtNtNtCsfvfooZQ3Axs_4core7unicode12unicode_data11white_space6lookupCsceeBBjCCtRQ_7autocfg, symObjAddr: 0x1550, symBinAddr: 0x10000FEE0, symSize: 0x14C }
  - { offset: 0x28EB5, size: 0x8, addend: 0x0, symName: __RNvYjNtNtCsfvfooZQ3Axs_4core3cmp3Ord3maxCsceeBBjCCtRQ_7autocfg, symObjAddr: 0x24D0, symBinAddr: 0x100010AC0, symSize: 0x80 }
  - { offset: 0x28F23, size: 0x8, addend: 0x0, symName: __RNvYjNtNtCsfvfooZQ3Axs_4core3cmp3Ord3minCsceeBBjCCtRQ_7autocfg, symObjAddr: 0x2550, symBinAddr: 0x100010B40, symSize: 0x80 }
  - { offset: 0x29394, size: 0x8, addend: 0x0, symName: __RNvXNtNtNtCse1nGBsou5OW_5alloc11collections5btree3mapINtB2_8BTreeMapNtNtNtCscOYdFFY2T5N_3std3ffi6os_str8OsStringINtNtCsfvfooZQ3Axs_4core6option6OptionB14_EENtNtNtB1R_3ops4drop4Drop4dropCsceeBBjCCtRQ_7autocfg, symObjAddr: 0x1B9C, symBinAddr: 0x10001022C, symSize: 0x4C }
  - { offset: 0x29421, size: 0x8, addend: 0x0, symName: __RNvXNvXsw_NtNtNtCse1nGBsou5OW_5alloc11collections5btree3mapINtB8_8IntoIterpppENtNtNtCsfvfooZQ3Axs_4core3ops4drop4Drop4dropINtB2_9DropGuardNtNtNtCscOYdFFY2T5N_3std3ffi6os_str8OsStringINtNtB1k_6option6OptionB2c_ENtNtBe_5alloc6GlobalEB1e_4dropCsceeBBjCCtRQ_7autocfg, symObjAddr: 0x1BE8, symBinAddr: 0x100010278, symSize: 0x68 }
  - { offset: 0x294B6, size: 0x8, addend: 0x0, symName: __RNvXsw_NtNtNtCse1nGBsou5OW_5alloc11collections5btree3mapINtB5_8IntoIterNtNtNtCscOYdFFY2T5N_3std3ffi6os_str8OsStringINtNtCsfvfooZQ3Axs_4core6option6OptionB17_EENtNtNtB1U_3ops4drop4Drop4dropCsceeBBjCCtRQ_7autocfg, symObjAddr: 0x2118, symBinAddr: 0x100010778, symSize: 0xA0 }
  - { offset: 0x2952D, size: 0x8, addend: 0x0, symName: __RNvXsv_NtNtNtCse1nGBsou5OW_5alloc11collections5btree3mapINtB5_8BTreeMapNtNtNtCscOYdFFY2T5N_3std3ffi6os_str8OsStringINtNtCsfvfooZQ3Axs_4core6option6OptionB17_EENtNtNtNtB1U_4iter6traits7collect12IntoIterator9into_iterCsceeBBjCCtRQ_7autocfg, symObjAddr: 0x1F84, symBinAddr: 0x1000105E4, symSize: 0x194 }
  - { offset: 0x29BCC, size: 0x8, addend: 0x0, symName: __RNvXs2_NtCse1nGBsou5OW_5alloc3streNtNtB7_6borrow7ToOwned8to_ownedCsceeBBjCCtRQ_7autocfg, symObjAddr: 0x1DC8, symBinAddr: 0x100010428, symSize: 0x50 }
  - { offset: 0x29E30, size: 0x8, addend: 0x0, symName: __RINvMsk_NtCscOYdFFY2T5N_3std7processNtB6_7Command3argRNtNtB8_4path7PathBufECsceeBBjCCtRQ_7autocfg, symObjAddr: 0x0, symBinAddr: 0x10000EB14, symSize: 0x6C }
  - { offset: 0x29E78, size: 0x8, addend: 0x0, symName: __RINvMsk_NtCscOYdFFY2T5N_3std7processNtB6_7Command3argRNtNtCse1nGBsou5OW_5alloc6string6StringECsceeBBjCCtRQ_7autocfg, symObjAddr: 0x6C, symBinAddr: 0x10000EB80, symSize: 0x6C }
  - { offset: 0x29EDA, size: 0x8, addend: 0x0, symName: __RINvMsk_NtCscOYdFFY2T5N_3std7processNtB6_7Command3argRNtNtNtB8_3ffi6os_str5OsStrECsceeBBjCCtRQ_7autocfg, symObjAddr: 0xD8, symBinAddr: 0x10000EBEC, symSize: 0x70 }
  - { offset: 0x29F22, size: 0x8, addend: 0x0, symName: __RINvMsk_NtCscOYdFFY2T5N_3std7processNtB6_7Command3argRNtNtNtB8_3ffi6os_str8OsStringECsceeBBjCCtRQ_7autocfg, symObjAddr: 0x148, symBinAddr: 0x10000EC5C, symSize: 0x6C }
  - { offset: 0x29F5D, size: 0x8, addend: 0x0, symName: __RINvMsk_NtCscOYdFFY2T5N_3std7processNtB6_7Command3argReECsceeBBjCCtRQ_7autocfg, symObjAddr: 0x1B4, symBinAddr: 0x10000ECC8, symSize: 0x70 }
  - { offset: 0x29F98, size: 0x8, addend: 0x0, symName: __RINvMsk_NtCscOYdFFY2T5N_3std7processNtB6_7Command3newRNtNtB8_4path7PathBufECsceeBBjCCtRQ_7autocfg, symObjAddr: 0x224, symBinAddr: 0x10000ED38, symSize: 0x80 }
  - { offset: 0x29FEB, size: 0x8, addend: 0x0, symName: __RINvMsk_NtCscOYdFFY2T5N_3std7processNtB6_7Command4argsRARNtNtB8_4path7PathBufj2_RBS_ECsceeBBjCCtRQ_7autocfg, symObjAddr: 0x2A4, symBinAddr: 0x10000EDB8, symSize: 0xD4 }
  - { offset: 0x2A082, size: 0x8, addend: 0x0, symName: __RINvMsk_NtCscOYdFFY2T5N_3std7processNtB6_7Command4argsRARej2_RBS_ECsceeBBjCCtRQ_7autocfg, symObjAddr: 0x378, symBinAddr: 0x10000EE8C, symSize: 0xD4 }
  - { offset: 0x2A0FF, size: 0x8, addend: 0x0, symName: __RINvMsk_NtCscOYdFFY2T5N_3std7processNtB6_7Command4argsRINtNtCse1nGBsou5OW_5alloc3vec3VecNtNtBW_6string6StringERB1o_ECsceeBBjCCtRQ_7autocfg, symObjAddr: 0x44C, symBinAddr: 0x10000EF60, symSize: 0xD4 }
  - { offset: 0x2A16F, size: 0x8, addend: 0x0, symName: __RINvMsk_NtCscOYdFFY2T5N_3std7processNtB6_7Command5stdinNtB6_5StdioECsceeBBjCCtRQ_7autocfg, symObjAddr: 0x520, symBinAddr: 0x10000F034, symSize: 0x5C }
  - { offset: 0x2A5A9, size: 0x8, addend: 0x0, symName: __RINvXs1i_NtCsloNvcHxBCre_9hashbrown3mapINtB7_7HashMapyuNtNtNtCscOYdFFY2T5N_3std4hash6random11RandomStateEINtNtNtNtCsfvfooZQ3Axs_4core4iter6traits7collect6ExtendTyuEE6extendINtNtNtB1M_8adapters3map3MapINtNtNtB1O_3ops5range5RangeyENCINvXs8_NtB9_3setINtB3O_7HashSetyBR_EIB1G_yE6extendB3c_E0EECsceeBBjCCtRQ_7autocfg, symObjAddr: 0x9B0, symBinAddr: 0x10000F340, symSize: 0x100 }
  - { offset: 0x2A6B7, size: 0x8, addend: 0x0, symName: __RNCINvXs1i_NtCsloNvcHxBCre_9hashbrown3mapINtB9_7HashMapyuNtNtNtCscOYdFFY2T5N_3std4hash6random11RandomStateEINtNtNtNtCsfvfooZQ3Axs_4core4iter6traits7collect6ExtendTyuEE6extendINtNtNtB1O_8adapters3map3MapINtNtNtB1Q_3ops5range5RangeyENCINvXs8_NtBb_3setINtB3Q_7HashSetyBT_EIB1I_yE6extendB3e_E0EE0CsceeBBjCCtRQ_7autocfg, symObjAddr: 0xD00, symBinAddr: 0x10000F690, symSize: 0x30 }
  - { offset: 0x2A789, size: 0x8, addend: 0x0, symName: __RNCINvNtCsloNvcHxBCre_9hashbrown3map11make_hasheryuNtNtNtCscOYdFFY2T5N_3std4hash6random11RandomStateE0CsceeBBjCCtRQ_7autocfg, symObjAddr: 0xC94, symBinAddr: 0x10000F624, symSize: 0x3C }
  - { offset: 0x2A80B, size: 0x8, addend: 0x0, symName: __RNCINvNtCsloNvcHxBCre_9hashbrown3map14equivalent_keyyyuE0CsceeBBjCCtRQ_7autocfg, symObjAddr: 0xCD0, symBinAddr: 0x10000F660, symSize: 0x30 }
  - { offset: 0x2A8A1, size: 0x8, addend: 0x0, symName: __RNvXsE_NtCsloNvcHxBCre_9hashbrown3mapINtB5_7HashMapyuNtNtNtCscOYdFFY2T5N_3std4hash6random11RandomStateENtNtNtNtCsfvfooZQ3Axs_4core4iter6traits7collect12IntoIterator9into_iterCsceeBBjCCtRQ_7autocfg, symObjAddr: 0x1E18, symBinAddr: 0x100010478, symSize: 0x6C }
  - { offset: 0x2AE0A, size: 0x8, addend: 0x0, symName: __RNvMNtNtNtCsfvfooZQ3Axs_4core4iter8adapters7step_byINtB2_6StepByINtNtNtB8_3ops5range5RangejEE3newCsceeBBjCCtRQ_7autocfg, symObjAddr: 0xE7C, symBinAddr: 0x10000F80C, symSize: 0xE0 }
  - { offset: 0x2AF40, size: 0x8, addend: 0x0, symName: __RNvMs1_NtCsloNvcHxBCre_9hashbrown3mapINtB5_7HashMapyuNtNtNtCscOYdFFY2T5N_3std4hash6random11RandomStateE6insertCsceeBBjCCtRQ_7autocfg, symObjAddr: 0xF5C, symBinAddr: 0x10000F8EC, symSize: 0x17C }
  - { offset: 0x2B0E8, size: 0x8, addend: 0x0, symName: __RNvMs5_NtNtCscOYdFFY2T5N_3std2io5errorNtB5_5Error14is_interruptedCsceeBBjCCtRQ_7autocfg, symObjAddr: 0x10D8, symBinAddr: 0x10000FA68, symSize: 0x138 }
  - { offset: 0x2B2F0, size: 0x8, addend: 0x0, symName: __RNvMsC_NtCscOYdFFY2T5N_3std7processNtB5_10ExitStatus7successCsceeBBjCCtRQ_7autocfg, symObjAddr: 0x1210, symBinAddr: 0x10000FBA0, symSize: 0x70 }
  - { offset: 0x2B3B7, size: 0x8, addend: 0x0, symName: __RNvMsr_NtCscOYdFFY2T5N_3std7processNtB5_5Stdio5pipedCsceeBBjCCtRQ_7autocfg, symObjAddr: 0x1280, symBinAddr: 0x10000FC10, symSize: 0x18 }
  - { offset: 0x2B413, size: 0x8, addend: 0x0, symName: __RNvMsx_NtNtNtCse1nGBsou5OW_5alloc11collections5btree3mapINtB5_8IntoIterNtNtNtCscOYdFFY2T5N_3std3ffi6os_str8OsStringINtNtCsfvfooZQ3Axs_4core6option6OptionB17_EE10dying_nextCsceeBBjCCtRQ_7autocfg, symObjAddr: 0x1298, symBinAddr: 0x10000FC28, symSize: 0x90 }
  - { offset: 0x2B750, size: 0x8, addend: 0x0, symName: __RINvMsi_NtCse1nGBsou5OW_5alloc3vecINtB6_3VecNtNtB8_6string6StringE16extend_desugaredINtNtNtNtCsfvfooZQ3Axs_4core4iter8adapters3map3MapINtNtB1p_6filter6FilterIB1l_INtNtNtB1t_3str4iter5SplitcENvMB2F_e4trimENCNvCsceeBBjCCtRQ_7autocfg9rustflags0ENvYeNtBI_8ToString9to_stringEEB3k_, symObjAddr: 0x0, symBinAddr: 0x100010BC0, symSize: 0x1CC }
  - { offset: 0x2B7E5, size: 0x8, addend: 0x0, symName: __RNvXNvNtNtCscOYdFFY2T5N_3std2io5Write9write_fmtINtB2_7AdapterNtNtB8_7process10ChildStdinENtNtCsfvfooZQ3Axs_4core3fmt5Write9write_strCsceeBBjCCtRQ_7autocfg, symObjAddr: 0x142C, symBinAddr: 0x100011F94, symSize: 0xB8 }
  - { offset: 0x2B841, size: 0x8, addend: 0x0, symName: __RNvXNvNtNtCscOYdFFY2T5N_3std2io5Write9write_fmtINtB2_7AdapterNtNtNtNtNtB8_3sys3pal4unix5stdio6StderrENtNtCsfvfooZQ3Axs_4core3fmt5Write9write_strCsceeBBjCCtRQ_7autocfg, symObjAddr: 0x14E4, symBinAddr: 0x10001204C, symSize: 0xB8 }
  - { offset: 0x2BCDD, size: 0x8, addend: 0x0, symName: __RNvXs5_NtNtNtCscOYdFFY2T5N_3std2os2fd5ownedNtB5_7OwnedFdNtNtNtCsfvfooZQ3Axs_4core3ops4drop4Drop4dropCsceeBBjCCtRQ_7autocfg, symObjAddr: 0x1A98, symBinAddr: 0x100012600, symSize: 0x40 }
  - { offset: 0x2BD0E, size: 0x8, addend: 0x0, symName: __RINvNtCscOYdFFY2T5N_3std2fs11remove_fileNtNtB4_4path7PathBufECsceeBBjCCtRQ_7autocfg, symObjAddr: 0x398, symBinAddr: 0x100010F58, symSize: 0x74 }
  - { offset: 0x2BD9D, size: 0x8, addend: 0x0, symName: __RINvNtCscOYdFFY2T5N_3std2fs8metadataRNtNtB4_4path7PathBufECsceeBBjCCtRQ_7autocfg, symObjAddr: 0x40C, symBinAddr: 0x100010FCC, symSize: 0xFC }
  - { offset: 0x2BE24, size: 0x8, addend: 0x0, symName: __RNcNtNtCscOYdFFY2T5N_3std2fs8Metadata0CsceeBBjCCtRQ_7autocfg, symObjAddr: 0x6AC, symBinAddr: 0x100011218, symSize: 0x30 }
  - { offset: 0x2BFAD, size: 0x8, addend: 0x0, symName: __RNvXsV_NtNtCscOYdFFY2T5N_3std3ffi6os_strNtB5_8OsStringINtNtCsfvfooZQ3Axs_4core7convert5AsRefNtB5_5OsStrE6as_refCsceeBBjCCtRQ_7autocfg, symObjAddr: 0x1D38, symBinAddr: 0x1000128A0, symSize: 0x2C }
  - { offset: 0x2BFFF, size: 0x8, addend: 0x0, symName: __RNvXs2_NtNtCscOYdFFY2T5N_3std3ffi6os_strNtB5_8OsStringINtNtCsfvfooZQ3Axs_4core7convert4FromReE4fromCsceeBBjCCtRQ_7autocfg, symObjAddr: 0x19CC, symBinAddr: 0x100012534, symSize: 0x54 }
  - { offset: 0x2C05A, size: 0x8, addend: 0x0, symName: __RNvXs3_NtNtCscOYdFFY2T5N_3std3ffi6os_strNtB5_8OsStringINtNtNtCsfvfooZQ3Axs_4core3ops5index5IndexNtNtBV_5range9RangeFullE5indexCsceeBBjCCtRQ_7autocfg, symObjAddr: 0x1A20, symBinAddr: 0x100012588, symSize: 0x78 }
  - { offset: 0x2C1B2, size: 0x8, addend: 0x0, symName: __RNvXsU_NtNtCscOYdFFY2T5N_3std3ffi6os_strNtB5_5OsStrINtNtCsfvfooZQ3Axs_4core7convert5AsRefBC_E6as_refCsceeBBjCCtRQ_7autocfg, symObjAddr: 0x1D20, symBinAddr: 0x100012888, symSize: 0x18 }
  - { offset: 0x2C1E6, size: 0x8, addend: 0x0, symName: __RNvXsW_NtNtCscOYdFFY2T5N_3std3ffi6os_streINtNtCsfvfooZQ3Axs_4core7convert5AsRefNtB5_5OsStrE6as_refCsceeBBjCCtRQ_7autocfg, symObjAddr: 0x1D64, symBinAddr: 0x1000128CC, symSize: 0x18 }
  - { offset: 0x2C24A, size: 0x8, addend: 0x0, symName: __RNvXsa_NtNtCscOYdFFY2T5N_3std3ffi6os_strNtB5_8OsStringNtNtCsfvfooZQ3Axs_4core3cmp9PartialEq2eqCsceeBBjCCtRQ_7autocfg, symObjAddr: 0x2044, symBinAddr: 0x100012BAC, symSize: 0x134 }
  - { offset: 0x2C68E, size: 0x8, addend: 0x0, symName: __RNvXs1g_NtCscOYdFFY2T5N_3std4pathNtNtNtB8_3ffi6os_str8OsStringINtNtCsfvfooZQ3Axs_4core7convert5AsRefNtB6_4PathE6as_refCsceeBBjCCtRQ_7autocfg, symObjAddr: 0x15B0, symBinAddr: 0x100012118, symSize: 0x2C }
  - { offset: 0x2D5EA, size: 0x8, addend: 0x0, symName: __RNvNvMNtNtCsfvfooZQ3Axs_4core3ptr9const_ptrPp7sub_ptr18precondition_checkCsceeBBjCCtRQ_7autocfg, symObjAddr: 0xB80, symBinAddr: 0x1000116E8, symSize: 0x40 }
  - { offset: 0x2DB5D, size: 0x8, addend: 0x0, symName: __RNvXs_NvNtNtCsfvfooZQ3Axs_4core3fmt5Write9write_fmtQINtNvNtNtCscOYdFFY2T5N_3std2io5Write9write_fmt7AdapterNtNtBX_7process10ChildStdinENtB4_12SpecWriteFmt14spec_write_fmtCsceeBBjCCtRQ_7autocfg, symObjAddr: 0x1D7C, symBinAddr: 0x1000128E4, symSize: 0x164 }
  - { offset: 0x2DC0A, size: 0x8, addend: 0x0, symName: __RNvXs_NvNtNtCsfvfooZQ3Axs_4core3fmt5Write9write_fmtQINtNvNtNtCscOYdFFY2T5N_3std2io5Write9write_fmt7AdapterNtNtNtNtNtBX_3sys3pal4unix5stdio6StderrENtB4_12SpecWriteFmt14spec_write_fmtCsceeBBjCCtRQ_7autocfg, symObjAddr: 0x1EE0, symBinAddr: 0x100012A48, symSize: 0x164 }
  - { offset: 0x2DCB9, size: 0x8, addend: 0x0, symName: __RNvYINtNvNtNtCscOYdFFY2T5N_3std2io5Write9write_fmt7AdapterNtNtBb_7process10ChildStdinENtNtCsfvfooZQ3Axs_4core3fmt5Write10write_charCsceeBBjCCtRQ_7autocfg, symObjAddr: 0x22E8, symBinAddr: 0x100012E50, symSize: 0x70 }
  - { offset: 0x2DD21, size: 0x8, addend: 0x0, symName: __RNvYINtNvNtNtCscOYdFFY2T5N_3std2io5Write9write_fmt7AdapterNtNtBb_7process10ChildStdinENtNtCsfvfooZQ3Axs_4core3fmt5Write9write_fmtCsceeBBjCCtRQ_7autocfg, symObjAddr: 0x2358, symBinAddr: 0x100012EC0, symSize: 0x24 }
  - { offset: 0x2DD65, size: 0x8, addend: 0x0, symName: __RNvYINtNvNtNtCscOYdFFY2T5N_3std2io5Write9write_fmt7AdapterNtNtNtNtNtBb_3sys3pal4unix5stdio6StderrENtNtCsfvfooZQ3Axs_4core3fmt5Write10write_charCsceeBBjCCtRQ_7autocfg, symObjAddr: 0x237C, symBinAddr: 0x100012EE4, symSize: 0x70 }
  - { offset: 0x2DDCD, size: 0x8, addend: 0x0, symName: __RNvYINtNvNtNtCscOYdFFY2T5N_3std2io5Write9write_fmt7AdapterNtNtNtNtNtBb_3sys3pal4unix5stdio6StderrENtNtCsfvfooZQ3Axs_4core3fmt5Write9write_fmtCsceeBBjCCtRQ_7autocfg, symObjAddr: 0x23EC, symBinAddr: 0x100012F54, symSize: 0x24 }
  - { offset: 0x2DF57, size: 0x8, addend: 0x0, symName: __RNvXsD_NtNtCsfvfooZQ3Axs_4core4iter5rangeyNtB5_4Step13steps_betweenCsceeBBjCCtRQ_7autocfg, symObjAddr: 0x1AFC, symBinAddr: 0x100012664, symSize: 0xA4 }
  - { offset: 0x2DFB2, size: 0x8, addend: 0x0, symName: __RNvXsD_NtNtCsfvfooZQ3Axs_4core4iter5rangeyNtB5_4Step17forward_uncheckedCsceeBBjCCtRQ_7autocfg, symObjAddr: 0x1BA0, symBinAddr: 0x100012708, symSize: 0x4C }
  - { offset: 0x2E017, size: 0x8, addend: 0x0, symName: __RNvXsF_NtNtCsfvfooZQ3Axs_4core4iter5rangejNtB5_4Step13steps_betweenCsceeBBjCCtRQ_7autocfg, symObjAddr: 0x1BEC, symBinAddr: 0x100012754, symSize: 0xA4 }
  - { offset: 0x2E072, size: 0x8, addend: 0x0, symName: __RNvXsF_NtNtCsfvfooZQ3Axs_4core4iter5rangejNtB5_4Step17forward_uncheckedCsceeBBjCCtRQ_7autocfg, symObjAddr: 0x1C90, symBinAddr: 0x1000127F8, symSize: 0x48 }
  - { offset: 0x2E0D1, size: 0x8, addend: 0x0, symName: __RNvXsF_NtNtCsfvfooZQ3Axs_4core4iter5rangejNtB5_4Step18backward_uncheckedCsceeBBjCCtRQ_7autocfg, symObjAddr: 0x1CD8, symBinAddr: 0x100012840, symSize: 0x48 }
  - { offset: 0x2E280, size: 0x8, addend: 0x0, symName: __RNvNvNtCsfvfooZQ3Axs_4core10intrinsics19copy_nonoverlapping18precondition_checkCsceeBBjCCtRQ_7autocfg, symObjAddr: 0xC10, symBinAddr: 0x100011778, symSize: 0x2E4 }
  - { offset: 0x2E64D, size: 0x8, addend: 0x0, symName: __RNvNtNtCsfvfooZQ3Axs_4core5slice6memchr6memchrCsceeBBjCCtRQ_7autocfg, symObjAddr: 0x99C, symBinAddr: 0x100011504, symSize: 0x114 }
  - { offset: 0x2E7D6, size: 0x8, addend: 0x0, symName: __RNvXs2U_NtNtCsfvfooZQ3Axs_4core5slice4iterINtB6_4IterNtNtCse1nGBsou5OW_5alloc6string6StringENtNtNtNtBa_4iter6traits8iterator8Iterator4nextCsceeBBjCCtRQ_7autocfg, symObjAddr: 0x15DC, symBinAddr: 0x100012144, symSize: 0xBC }
  - { offset: 0x2E924, size: 0x8, addend: 0x0, symName: __RNvXs2U_NtNtCsfvfooZQ3Axs_4core5slice4iterINtB6_4IterRNtNtCscOYdFFY2T5N_3std4path7PathBufENtNtNtNtBa_4iter6traits8iterator8Iterator4nextCsceeBBjCCtRQ_7autocfg, symObjAddr: 0x1698, symBinAddr: 0x100012200, symSize: 0xBC }
  - { offset: 0x2EA72, size: 0x8, addend: 0x0, symName: __RNvXs2U_NtNtCsfvfooZQ3Axs_4core5slice4iterINtB6_4IterReENtNtNtNtBa_4iter6traits8iterator8Iterator4nextCsceeBBjCCtRQ_7autocfg, symObjAddr: 0x1754, symBinAddr: 0x1000122BC, symSize: 0xBC }
  - { offset: 0x2EBC0, size: 0x8, addend: 0x0, symName: __RNvXs2U_NtNtCsfvfooZQ3Axs_4core5slice4iterINtB6_4IterhENtNtNtNtBa_4iter6traits8iterator8Iterator4nextCsceeBBjCCtRQ_7autocfg, symObjAddr: 0x1810, symBinAddr: 0x100012378, symSize: 0xBC }
  - { offset: 0x2EE60, size: 0x8, addend: 0x0, symName: __RNvXs2V_NtNtCsfvfooZQ3Axs_4core5slice4iterINtB6_4IterhENtNtNtNtBa_4iter6traits12double_ended19DoubleEndedIterator9next_backCsceeBBjCCtRQ_7autocfg, symObjAddr: 0x18CC, symBinAddr: 0x100012434, symSize: 0x100 }
  - { offset: 0x2F04E, size: 0x8, addend: 0x0, symName: __RNvNvMNtNtCsfvfooZQ3Axs_4core5alloc6layoutNtB4_6Layout25from_size_align_unchecked18precondition_checkCsceeBBjCCtRQ_7autocfg, symObjAddr: 0xBC0, symBinAddr: 0x100011728, symSize: 0x50 }
  - { offset: 0x2F3FE, size: 0x8, addend: 0x0, symName: __RNvNtNtNtNtCsfvfooZQ3Axs_4core9core_arch7aarch644neon9generated8vcgez_s8CsceeBBjCCtRQ_7autocfg, symObjAddr: 0xAB0, symBinAddr: 0x100011618, symSize: 0x68 }
  - { offset: 0x2F4A0, size: 0x8, addend: 0x0, symName: __RNvNtNtNtNtCsfvfooZQ3Axs_4core9core_arch7aarch644neon9generated8vcltz_s8CsceeBBjCCtRQ_7autocfg, symObjAddr: 0xB18, symBinAddr: 0x100011680, symSize: 0x68 }
  - { offset: 0x2F637, size: 0x8, addend: 0x0, symName: __RNvXNtCsfvfooZQ3Axs_4core7convertRNtNtNtCscOYdFFY2T5N_3std3ffi6os_str5OsStrINtB2_5AsRefBw_E6as_refCsceeBBjCCtRQ_7autocfg, symObjAddr: 0xEF4, symBinAddr: 0x100011A5C, symSize: 0x30 }
  - { offset: 0x2F677, size: 0x8, addend: 0x0, symName: __RNvXNtCsfvfooZQ3Axs_4core7convertRNtNtNtCscOYdFFY2T5N_3std3ffi6os_str8OsStringINtB2_5AsRefNtBy_5OsStrE6as_refCsceeBBjCCtRQ_7autocfg, symObjAddr: 0xF24, symBinAddr: 0x100011A8C, symSize: 0x28 }
  - { offset: 0x2F6B7, size: 0x8, addend: 0x0, symName: __RNvXNtCsfvfooZQ3Axs_4core7convertRNtNtNtCscOYdFFY2T5N_3std3ffi6os_str8OsStringINtB2_5AsRefNtNtBC_4path4PathE6as_refCsceeBBjCCtRQ_7autocfg, symObjAddr: 0xF4C, symBinAddr: 0x100011AB4, symSize: 0x28 }
  - { offset: 0x2F6FD, size: 0x8, addend: 0x0, symName: __RNvXs1_NtCsfvfooZQ3Axs_4core7convertNtNtNtCscOYdFFY2T5N_3std3ffi6os_str8OsStringINtB5_4IntoNtNtBE_4path7PathBufE4intoCsceeBBjCCtRQ_7autocfg, symObjAddr: 0x159C, symBinAddr: 0x100012104, symSize: 0x14 }
  - { offset: 0x2F7FA, size: 0x8, addend: 0x0, symName: __RNvYNtNtNtCscOYdFFY2T5N_3std3ffi6os_str8OsStringNtNtCsfvfooZQ3Axs_4core3cmp9PartialEq2neCsceeBBjCCtRQ_7autocfg, symObjAddr: 0x2410, symBinAddr: 0x100012F78, symSize: 0x30 }
  - { offset: 0x2FD12, size: 0x8, addend: 0x0, symName: __RINvXsd_NtCse1nGBsou5OW_5alloc3vecINtB6_3VecNtNtB8_6string6StringEINtNtNtNtCsfvfooZQ3Axs_4core4iter6traits7collect12FromIteratorBG_E9from_iterINtNtNtB19_8adapters3map3MapINtNtB2l_6filter6FilterIB2h_INtNtNtB1b_3str4iter5SplitcENvMB3f_e4trimENCNvCsceeBBjCCtRQ_7autocfg9rustflags0ENvYeNtBI_8ToString9to_stringEEB3U_, symObjAddr: 0x634, symBinAddr: 0x1000111A0, symSize: 0x3C }
  - { offset: 0x2FD53, size: 0x8, addend: 0x0, symName: __RINvXsd_NtCse1nGBsou5OW_5alloc3vecINtB6_3VecNtNtB8_6string6StringEINtNtNtNtCsfvfooZQ3Axs_4core4iter6traits7collect12FromIteratorBG_E9from_iterINtNtNtB19_8adapters3map3MapINtNtNtB1b_3str4iter5SplitcENvYeNtBI_8ToString9to_stringEECsceeBBjCCtRQ_7autocfg, symObjAddr: 0x670, symBinAddr: 0x1000111DC, symSize: 0x3C }
  - { offset: 0x2FD9F, size: 0x8, addend: 0x0, symName: __RNvXNtNtCse1nGBsou5OW_5alloc3vec11spec_extendINtB4_3VecNtNtB6_6string6StringEINtB2_10SpecExtendBR_INtNtNtNtCsfvfooZQ3Axs_4core4iter8adapters3map3MapINtNtB1D_6filter6FilterIB1z_INtNtNtB1H_3str4iter5SplitcENvMB2T_e4trimENCNvCsceeBBjCCtRQ_7autocfg9rustflags0ENvYeNtBT_8ToString9to_stringEE11spec_extendB3y_, symObjAddr: 0xF74, symBinAddr: 0x100011ADC, symSize: 0x24 }
  - { offset: 0x2FDF1, size: 0x8, addend: 0x0, symName: __RNvXNtNtCse1nGBsou5OW_5alloc3vec11spec_extendINtB4_3VecNtNtB6_6string6StringEINtB2_10SpecExtendBR_INtNtNtNtCsfvfooZQ3Axs_4core4iter8adapters3map3MapINtNtNtB1H_3str4iter5SplitcENvYeNtBT_8ToString9to_stringEE11spec_extendCsceeBBjCCtRQ_7autocfg, symObjAddr: 0xF98, symBinAddr: 0x100011B00, symSize: 0x24 }
  - { offset: 0x2FE4F, size: 0x8, addend: 0x0, symName: __RNvXNtNtCse1nGBsou5OW_5alloc3vec14spec_from_iterINtB4_3VecNtNtB6_6string6StringEINtB2_12SpecFromIterBU_INtNtNtNtCsfvfooZQ3Axs_4core4iter8adapters3map3MapINtNtB1I_6filter6FilterIB1E_INtNtNtB1M_3str4iter5SplitcENvMB2Y_e4trimENCNvCsceeBBjCCtRQ_7autocfg9rustflags0ENvYeNtBW_8ToString9to_stringEE9from_iterB3D_, symObjAddr: 0xFBC, symBinAddr: 0x100011B24, symSize: 0x14 }
  - { offset: 0x2FE8E, size: 0x8, addend: 0x0, symName: __RNvXNtNtCse1nGBsou5OW_5alloc3vec14spec_from_iterINtB4_3VecNtNtB6_6string6StringEINtB2_12SpecFromIterBU_INtNtNtNtCsfvfooZQ3Axs_4core4iter8adapters3map3MapINtNtNtB1M_3str4iter5SplitcENvYeNtBW_8ToString9to_stringEE9from_iterCsceeBBjCCtRQ_7autocfg, symObjAddr: 0xFD0, symBinAddr: 0x100011B38, symSize: 0x14 }
  - { offset: 0x2FED9, size: 0x8, addend: 0x0, symName: __RNvXNtNtCse1nGBsou5OW_5alloc3vec21spec_from_iter_nestedINtB4_3VecNtNtB6_6string6StringEINtB2_18SpecFromIterNestedB11_INtNtNtNtCsfvfooZQ3Axs_4core4iter8adapters3map3MapINtNtB1W_6filter6FilterIB1S_INtNtNtB20_3str4iter5SplitcENvMB3c_e4trimENCNvCsceeBBjCCtRQ_7autocfg9rustflags0ENvYeNtB13_8ToString9to_stringEE9from_iterB3R_, symObjAddr: 0xFE4, symBinAddr: 0x100011B4C, symSize: 0x224 }
  - { offset: 0x300F8, size: 0x8, addend: 0x0, symName: __RNvXNtNtCse1nGBsou5OW_5alloc3vec21spec_from_iter_nestedINtB4_3VecNtNtB6_6string6StringEINtB2_18SpecFromIterNestedB11_INtNtNtNtCsfvfooZQ3Axs_4core4iter8adapters3map3MapINtNtNtB20_3str4iter5SplitcENvYeNtB13_8ToString9to_stringEE9from_iterCsceeBBjCCtRQ_7autocfg, symObjAddr: 0x1208, symBinAddr: 0x100011D70, symSize: 0x224 }
  - { offset: 0x3034E, size: 0x8, addend: 0x0, symName: __RNvXs6_NtCse1nGBsou5OW_5alloc3vecINtB5_3VechENtNtNtCsfvfooZQ3Axs_4core3ops5deref5Deref5derefCsceeBBjCCtRQ_7autocfg, symObjAddr: 0x1AD8, symBinAddr: 0x100012640, symSize: 0x24 }
  - { offset: 0x303F4, size: 0x8, addend: 0x0, symName: __RNvXsf_NtCse1nGBsou5OW_5alloc3vecRINtB5_3VecNtNtB7_6string6StringENtNtNtNtCsfvfooZQ3Axs_4core4iter6traits7collect12IntoIterator9into_iterCsceeBBjCCtRQ_7autocfg, symObjAddr: 0x2178, symBinAddr: 0x100012CE0, symSize: 0xA4 }
  - { offset: 0x306B1, size: 0x8, addend: 0x0, symName: __RNvXsn_NtCse1nGBsou5OW_5alloc3vecINtB5_3VecINtNtB7_5boxed3BoxDINtNtNtCsfvfooZQ3Axs_4core3ops8function5FnMutuEp6OutputINtNtB15_6result6ResultuNtNtNtCscOYdFFY2T5N_3std2io5error5ErrorENtNtB15_6marker4SendNtB2V_4SyncEL_EENtNtB13_4drop4Drop4dropCsceeBBjCCtRQ_7autocfg, symObjAddr: 0x221C, symBinAddr: 0x100012D84, symSize: 0x38 }
  - { offset: 0x30761, size: 0x8, addend: 0x0, symName: __RNvXsn_NtCse1nGBsou5OW_5alloc3vecINtB5_3VecNtNtB7_6string6StringENtNtNtCsfvfooZQ3Axs_4core3ops4drop4Drop4dropCsceeBBjCCtRQ_7autocfg, symObjAddr: 0x2254, symBinAddr: 0x100012DBC, symSize: 0x38 }
  - { offset: 0x30811, size: 0x8, addend: 0x0, symName: __RNvXsn_NtCse1nGBsou5OW_5alloc3vecINtB5_3VecNtNtNtB7_3ffi5c_str7CStringENtNtNtCsfvfooZQ3Axs_4core3ops4drop4Drop4dropCsceeBBjCCtRQ_7autocfg, symObjAddr: 0x228C, symBinAddr: 0x100012DF4, symSize: 0x38 }
  - { offset: 0x308C1, size: 0x8, addend: 0x0, symName: __RNvXsn_NtCse1nGBsou5OW_5alloc3vecINtB5_3VecPaENtNtNtCsfvfooZQ3Axs_4core3ops4drop4Drop4dropCsceeBBjCCtRQ_7autocfg, symObjAddr: 0x22C4, symBinAddr: 0x100012E2C, symSize: 0x24 }
  - { offset: 0x30F6A, size: 0x8, addend: 0x0, symName: __RINvXs_NtNtCse1nGBsou5OW_5alloc5slice4hackhNtB5_10ConvertVec6to_vecNtNtB9_5alloc6GlobalECsceeBBjCCtRQ_7autocfg, symObjAddr: 0x55C, symBinAddr: 0x1000110C8, symSize: 0xD8 }
  - { offset: 0x3137C, size: 0x8, addend: 0x0, symName: __RINvMsi_NtCse1nGBsou5OW_5alloc3vecINtB6_3VecNtNtB8_6string6StringE16extend_desugaredINtNtNtNtCsfvfooZQ3Axs_4core4iter8adapters3map3MapINtNtB1p_6filter6FilterIB1l_INtNtNtB1t_3str4iter5SplitcENvMB2F_e4trimENCNvCsceeBBjCCtRQ_7autocfg9rustflags0ENvYeNtBI_8ToString9to_stringEEB3k_, symObjAddr: 0x0, symBinAddr: 0x100010BC0, symSize: 0x1CC }
  - { offset: 0x31712, size: 0x8, addend: 0x0, symName: __RINvMsi_NtCse1nGBsou5OW_5alloc3vecINtB6_3VecNtNtB8_6string6StringE16extend_desugaredINtNtNtNtCsfvfooZQ3Axs_4core4iter8adapters3map3MapINtNtNtB1t_3str4iter5SplitcENvYeNtBI_8ToString9to_stringEECsceeBBjCCtRQ_7autocfg, symObjAddr: 0x1CC, symBinAddr: 0x100010D8C, symSize: 0x1CC }
  - { offset: 0x31C62, size: 0x8, addend: 0x0, symName: __RNvMNtCse1nGBsou5OW_5alloc3vecINtB2_3VecNtNtB4_6string6StringE3newCsceeBBjCCtRQ_7autocfg, symObjAddr: 0x6DC, symBinAddr: 0x100011248, symSize: 0x14 }
  - { offset: 0x31C9B, size: 0x8, addend: 0x0, symName: __RNvMs0_NtNtCscOYdFFY2T5N_3std3ffi6os_strNtB5_8OsString3newCsceeBBjCCtRQ_7autocfg, symObjAddr: 0x6F0, symBinAddr: 0x10001125C, symSize: 0x40 }
  - { offset: 0x31E1D, size: 0x8, addend: 0x0, symName: __RNvMs_NtCse1nGBsou5OW_5alloc3vecINtB4_3VecNtNtB6_6string6StringE7reserveCsceeBBjCCtRQ_7autocfg, symObjAddr: 0x730, symBinAddr: 0x10001129C, symSize: 0xC8 }
  - { offset: 0x32063, size: 0x8, addend: 0x0, symName: __RNvMs_NtCse1nGBsou5OW_5alloc3vecINtB4_3VechE4pushCsceeBBjCCtRQ_7autocfg, symObjAddr: 0x7F8, symBinAddr: 0x100011364, symSize: 0xDC }
  - { offset: 0x32292, size: 0x8, addend: 0x0, symName: __RNvMs_NtCse1nGBsou5OW_5alloc3vecINtB4_3VechE8as_sliceCsceeBBjCCtRQ_7autocfg, symObjAddr: 0x8D4, symBinAddr: 0x100011440, symSize: 0x60 }
  - { offset: 0x3236C, size: 0x8, addend: 0x0, symName: __RNvMsf_NtCscOYdFFY2T5N_3std2fsNtB5_8Metadata11permissionsCsceeBBjCCtRQ_7autocfg, symObjAddr: 0x934, symBinAddr: 0x1000114A0, symSize: 0x18 }
  - { offset: 0x323EF, size: 0x8, addend: 0x0, symName: __RNvMsf_NtCscOYdFFY2T5N_3std2fsNtB5_8Metadata6is_dirCsceeBBjCCtRQ_7autocfg, symObjAddr: 0x94C, symBinAddr: 0x1000114B8, symSize: 0x28 }
  - { offset: 0x324BC, size: 0x8, addend: 0x0, symName: __RNvMsm_NtCscOYdFFY2T5N_3std2fsNtB5_11Permissions8readonlyCsceeBBjCCtRQ_7autocfg, symObjAddr: 0x974, symBinAddr: 0x1000114E0, symSize: 0x24 }
  - { offset: 0x33657, size: 0x8, addend: 0x0, symName: __RINvMsb_NtNtNtCse1nGBsou5OW_5alloc11collections5btree8navigateINtB6_13LazyLeafRangeNtNtNtB8_4node6marker5DyingNtNtNtCscOYdFFY2T5N_3std3ffi6os_str8OsStringINtNtCsfvfooZQ3Axs_4core6option6OptionB1K_EE16deallocating_endNtNtBc_5alloc6GlobalECsceeBBjCCtRQ_7autocfg, symObjAddr: 0x0, symBinAddr: 0x100012FA8, symSize: 0xA8 }
  - { offset: 0x3381F, size: 0x8, addend: 0x0, symName: __RNCNvXs1_NtNtNtCscOYdFFY2T5N_3std2io5error14repr_bitpackedNtB7_4ReprNtNtNtCsfvfooZQ3Axs_4core3ops4drop4Drop4drop0CsceeBBjCCtRQ_7autocfg, symObjAddr: 0x734, symBinAddr: 0x1000136DC, symSize: 0x34 }
  - { offset: 0x338D4, size: 0x8, addend: 0x0, symName: __RNvXs1_NtNtNtCscOYdFFY2T5N_3std2io5error14repr_bitpackedNtB5_4ReprNtNtNtCsfvfooZQ3Axs_4core3ops4drop4Drop4dropCsceeBBjCCtRQ_7autocfg, symObjAddr: 0x1A80, symBinAddr: 0x100014A28, symSize: 0x38 }
  - { offset: 0x338FD, size: 0x8, addend: 0x0, symName: __RINvNtNtNtCscOYdFFY2T5N_3std2io5error14repr_bitpacked11decode_reprINtNtCse1nGBsou5OW_5alloc5boxed3BoxNtB4_6CustomENCNvXs1_B2_NtB2_4ReprNtNtNtCsfvfooZQ3Axs_4core3ops4drop4Drop4drop0ECsceeBBjCCtRQ_7autocfg, symObjAddr: 0x220, symBinAddr: 0x1000131C8, symSize: 0x230 }
  - { offset: 0x33BB3, size: 0x8, addend: 0x0, symName: __RNCNvMs0_NtNtNtCscOYdFFY2T5N_3std2io5error14repr_bitpackedNtB7_4Repr4data0CsceeBBjCCtRQ_7autocfg, symObjAddr: 0x6D8, symBinAddr: 0x100013680, symSize: 0x14 }
  - { offset: 0x33BEB, size: 0x8, addend: 0x0, symName: __RINvNtNtNtCscOYdFFY2T5N_3std2io5error14repr_bitpacked11decode_reprRNtB4_6CustomNCNvMs0_B2_NtB2_4Repr4data0ECsceeBBjCCtRQ_7autocfg, symObjAddr: 0x450, symBinAddr: 0x1000133F8, symSize: 0x230 }
  - { offset: 0x33E90, size: 0x8, addend: 0x0, symName: __RNvNtNtNtCscOYdFFY2T5N_3std2io5error14repr_bitpacked14kind_from_primCsceeBBjCCtRQ_7autocfg, symObjAddr: 0xFF8, symBinAddr: 0x100013FA0, symSize: 0x608 }
  - { offset: 0x348DA, size: 0x8, addend: 0x0, symName: __RINvNtCscOYdFFY2T5N_3std3env3varReECsceeBBjCCtRQ_7autocfg, symObjAddr: 0x150, symBinAddr: 0x1000130F8, symSize: 0x68 }
  - { offset: 0x3490F, size: 0x8, addend: 0x0, symName: __RINvNtCscOYdFFY2T5N_3std3env6var_osReECsceeBBjCCtRQ_7autocfg, symObjAddr: 0x1B8, symBinAddr: 0x100013160, symSize: 0x68 }
  - { offset: 0x34C39, size: 0x8, addend: 0x0, symName: __RNvXs1a_NtCsfvfooZQ3Axs_4core3fmtRNtNtNtNtNtNtCscOYdFFY2T5N_3std3sys3pal4unix7process13process_inner10ExitStatusNtB6_5Debug3fmtCsceeBBjCCtRQ_7autocfg, symObjAddr: 0x1AB8, symBinAddr: 0x100014A60, symSize: 0x30 }
  - { offset: 0x35115, size: 0x8, addend: 0x0, symName: __RNvNvMs1_NtNtCsfvfooZQ3Axs_4core3ptr8non_nullINtB7_7NonNullpE13new_unchecked18precondition_checkCsceeBBjCCtRQ_7autocfg, symObjAddr: 0x1600, symBinAddr: 0x1000145A8, symSize: 0x38 }
  - { offset: 0x36087, size: 0x8, addend: 0x0, symName: __RNvNvNtCsfvfooZQ3Axs_4core4hint16assert_unchecked18precondition_checkCsceeBBjCCtRQ_7autocfg, symObjAddr: 0x1638, symBinAddr: 0x1000145E0, symSize: 0x38 }
  - { offset: 0x360B5, size: 0x8, addend: 0x0, symName: __RNvNvNtCsfvfooZQ3Axs_4core4hint21unreachable_unchecked18precondition_checkCsceeBBjCCtRQ_7autocfg, symObjAddr: 0x1670, symBinAddr: 0x100014618, symSize: 0x1C }
  - { offset: 0x3619B, size: 0x8, addend: 0x0, symName: __RNvNtNtCsfvfooZQ3Axs_4core4hash3sip9u8to64_leCsceeBBjCCtRQ_7autocfg, symObjAddr: 0xDD0, symBinAddr: 0x100013D78, symSize: 0x228 }
  - { offset: 0x36358, size: 0x8, addend: 0x0, symName: __RNvXs3_NtNtCsfvfooZQ3Axs_4core4hash3sipINtB5_6HasherNtB5_11Sip13RoundsENtB7_6Hasher5writeCsceeBBjCCtRQ_7autocfg, symObjAddr: 0x1AE8, symBinAddr: 0x100014A90, symSize: 0x230 }
  - { offset: 0x364CE, size: 0x8, addend: 0x0, symName: __RNvXs3_NtNtCsfvfooZQ3Axs_4core4hash3sipINtB5_6HasherNtB5_11Sip13RoundsENtB7_6Hasher6finishCsceeBBjCCtRQ_7autocfg, symObjAddr: 0x1D18, symBinAddr: 0x100014CC0, symSize: 0xA0 }
  - { offset: 0x36547, size: 0x8, addend: 0x0, symName: __RNvXs6_NtNtCsfvfooZQ3Axs_4core4hash3sipNtB5_11Sip13RoundsNtB5_3Sip8c_roundsCsceeBBjCCtRQ_7autocfg, symObjAddr: 0x1DB8, symBinAddr: 0x100014D60, symSize: 0x170 }
  - { offset: 0x366BD, size: 0x8, addend: 0x0, symName: __RNvXs6_NtNtCsfvfooZQ3Axs_4core4hash3sipNtB5_11Sip13RoundsNtB5_3Sip8d_roundsCsceeBBjCCtRQ_7autocfg, symObjAddr: 0x1F28, symBinAddr: 0x100014ED0, symSize: 0x408 }
  - { offset: 0x36E2F, size: 0x8, addend: 0x0, symName: __RNvNvNtNtCsfvfooZQ3Axs_4core5slice3raw14from_raw_parts18precondition_checkCsceeBBjCCtRQ_7autocfg, symObjAddr: 0x168C, symBinAddr: 0x100014634, symSize: 0x168 }
  - { offset: 0x36F75, size: 0x8, addend: 0x0, symName: __RNvNvNtNtCsfvfooZQ3Axs_4core5slice3raw18from_raw_parts_mut18precondition_checkCsceeBBjCCtRQ_7autocfg, symObjAddr: 0x17F4, symBinAddr: 0x10001479C, symSize: 0x168 }
  - { offset: 0x373EB, size: 0x8, addend: 0x0, symName: __RNCINvMsm_NtNtNtCse1nGBsou5OW_5alloc11collections5btree8navigateINtNtBa_4node6HandleINtB13_7NodeRefNtNtB13_6marker5DyingNtNtNtCscOYdFFY2T5N_3std3ffi6os_str8OsStringINtNtCsfvfooZQ3Axs_4core6option6OptionB1U_ENtB1B_4LeafENtB1B_4EdgeE27deallocating_next_uncheckedNtNtBe_5alloc6GlobalE0CsceeBBjCCtRQ_7autocfg, symObjAddr: 0x680, symBinAddr: 0x100013628, symSize: 0x58 }
  - { offset: 0x37AA3, size: 0x8, addend: 0x0, symName: __RNvXs1_NtCse1nGBsou5OW_5alloc7raw_vecINtB5_6RawVecINtNtB7_5boxed3BoxDINtNtNtCsfvfooZQ3Axs_4core3ops8function5FnMutuEp6OutputINtNtB1c_6result6ResultuNtNtNtCscOYdFFY2T5N_3std2io5error5ErrorENtNtB1c_6marker4SendNtB32_4SyncEL_EENtNtB1a_4drop4Drop4dropCsceeBBjCCtRQ_7autocfg, symObjAddr: 0x195C, symBinAddr: 0x100014904, symSize: 0x34 }
  - { offset: 0x37ADF, size: 0x8, addend: 0x0, symName: __RNvXs1_NtCse1nGBsou5OW_5alloc7raw_vecINtB5_6RawVecNtNtB7_6string6StringENtNtNtCsfvfooZQ3Axs_4core3ops4drop4Drop4dropCsceeBBjCCtRQ_7autocfg, symObjAddr: 0x1990, symBinAddr: 0x100014938, symSize: 0x34 }
  - { offset: 0x37B1B, size: 0x8, addend: 0x0, symName: __RNvXs1_NtCse1nGBsou5OW_5alloc7raw_vecINtB5_6RawVecNtNtNtB7_3ffi5c_str7CStringENtNtNtCsfvfooZQ3Axs_4core3ops4drop4Drop4dropCsceeBBjCCtRQ_7autocfg, symObjAddr: 0x19C4, symBinAddr: 0x10001496C, symSize: 0x34 }
  - { offset: 0x37B57, size: 0x8, addend: 0x0, symName: __RNvXs1_NtCse1nGBsou5OW_5alloc7raw_vecINtB5_6RawVecPaENtNtNtCsfvfooZQ3Axs_4core3ops4drop4Drop4dropCsceeBBjCCtRQ_7autocfg, symObjAddr: 0x19F8, symBinAddr: 0x1000149A0, symSize: 0x30 }
  - { offset: 0x37C6B, size: 0x8, addend: 0x0, symName: __RNCNvNtCse1nGBsou5OW_5alloc3fmt6format0CsceeBBjCCtRQ_7autocfg, symObjAddr: 0x6EC, symBinAddr: 0x100013694, symSize: 0x48 }
  - { offset: 0x37C9C, size: 0x8, addend: 0x0, symName: __RNvNtCse1nGBsou5OW_5alloc3fmt6formatCsceeBBjCCtRQ_7autocfg, symObjAddr: 0xCFC, symBinAddr: 0x100013CA4, symSize: 0xD4 }
  - { offset: 0x37E5E, size: 0x8, addend: 0x0, symName: __RINvMsb_NtNtNtCse1nGBsou5OW_5alloc11collections5btree8navigateINtB6_13LazyLeafRangeNtNtNtB8_4node6marker5DyingNtNtNtCscOYdFFY2T5N_3std3ffi6os_str8OsStringINtNtCsfvfooZQ3Axs_4core6option6OptionB1K_EE16deallocating_endNtNtBc_5alloc6GlobalECsceeBBjCCtRQ_7autocfg, symObjAddr: 0x0, symBinAddr: 0x100012FA8, symSize: 0xA8 }
  - { offset: 0x37F6B, size: 0x8, addend: 0x0, symName: __RINvMsb_NtNtNtCse1nGBsou5OW_5alloc11collections5btree8navigateINtB6_13LazyLeafRangeNtNtNtB8_4node6marker5DyingNtNtNtCscOYdFFY2T5N_3std3ffi6os_str8OsStringINtNtCsfvfooZQ3Axs_4core6option6OptionB1K_EE27deallocating_next_uncheckedNtNtBc_5alloc6GlobalECsceeBBjCCtRQ_7autocfg, symObjAddr: 0xA8, symBinAddr: 0x100013050, symSize: 0xA8 }
  - { offset: 0x3830E, size: 0x8, addend: 0x0, symName: __RNvMs0_NtNtCsfvfooZQ3Axs_4core4hash3sipINtB5_6HasherNtB5_11Sip13RoundsE5resetCsceeBBjCCtRQ_7autocfg, symObjAddr: 0x768, symBinAddr: 0x100013710, symSize: 0x8C }
  - { offset: 0x38355, size: 0x8, addend: 0x0, symName: __RNvMs1_NtNtCsfvfooZQ3Axs_4core3ptr8non_nullINtB5_7NonNullhE7sub_ptrCsceeBBjCCtRQ_7autocfg, symObjAddr: 0x7F4, symBinAddr: 0x10001379C, symSize: 0x74 }
  - { offset: 0x384D3, size: 0x8, addend: 0x0, symName: __RNvMs2_NtCse1nGBsou5OW_5alloc7raw_vecNtB5_11RawVecInner16with_capacity_inCsceeBBjCCtRQ_7autocfg, symObjAddr: 0x868, symBinAddr: 0x100013810, symSize: 0x10C }
  - { offset: 0x387B3, size: 0x8, addend: 0x0, symName: __RNvMsb_NtNtNtCse1nGBsou5OW_5alloc11collections5btree8navigateINtB5_13LazyLeafRangeNtNtNtB7_4node6marker5DyingNtNtNtCscOYdFFY2T5N_3std3ffi6os_str8OsStringINtNtCsfvfooZQ3Axs_4core6option6OptionB1J_EE10take_frontCsceeBBjCCtRQ_7autocfg, symObjAddr: 0x974, symBinAddr: 0x10001391C, symSize: 0x1C4 }
  - { offset: 0x38B3C, size: 0x8, addend: 0x0, symName: __RNvMsc_NtNtNtCse1nGBsou5OW_5alloc11collections5btree8navigateINtB5_13LazyLeafRangeNtNtNtB7_4node6marker5DyingNtNtNtCscOYdFFY2T5N_3std3ffi6os_str8OsStringINtNtCsfvfooZQ3Axs_4core6option6OptionB1J_EE10init_frontCsceeBBjCCtRQ_7autocfg, symObjAddr: 0xB38, symBinAddr: 0x100013AE0, symSize: 0x1C4 }
  - { offset: 0x38E6E, size: 0x8, addend: 0x0, symName: __RNvXs1_NtCsloNvcHxBCre_9hashbrown10scopeguardINtB5_10ScopeGuardNtNtB7_3raw13RawTableInnerNCINvMsa_B11_BZ_14prepare_resizeNtNtCse1nGBsou5OW_5alloc5alloc6GlobalE0ENtNtNtCsfvfooZQ3Axs_4core3ops4drop4Drop4dropCsceeBBjCCtRQ_7autocfg, symObjAddr: 0x1A28, symBinAddr: 0x1000149D0, symSize: 0x2C }
  - { offset: 0x38EA8, size: 0x8, addend: 0x0, symName: __RNvXs1_NtCsloNvcHxBCre_9hashbrown10scopeguardINtB5_10ScopeGuardQNtNtB7_3raw13RawTableInnerNCNvMsa_B12_B10_15rehash_in_place0ENtNtNtCsfvfooZQ3Axs_4core3ops4drop4Drop4dropCsceeBBjCCtRQ_7autocfg, symObjAddr: 0x1A54, symBinAddr: 0x1000149FC, symSize: 0x2C }
  - { offset: 0x3917C, size: 0x8, addend: 0x0, symName: __RINvMNtCsfvfooZQ3Axs_4core6resultINtB3_6ResultNtNtCscOYdFFY2T5N_3std2fs8MetadataNtNtNtBM_2io5error5ErrorE7map_errNtNtCsceeBBjCCtRQ_7autocfg5error5ErrorNvB1P_7from_ioEB1R_, symObjAddr: 0x0, symBinAddr: 0x1000152D8, symSize: 0xA0 }
  - { offset: 0x3995D, size: 0x8, addend: 0x0, symName: __RINvNtNtCsfvfooZQ3Axs_4core3str11validations15next_code_pointINtNtNtB6_5slice4iter4IterhEECsceeBBjCCtRQ_7autocfg, symObjAddr: 0x378, symBinAddr: 0x100015650, symSize: 0x20C }
  - { offset: 0x39C17, size: 0x8, addend: 0x0, symName: __RINvNtNtCsfvfooZQ3Axs_4core3str11validations23next_code_point_reverseINtNtNtB6_5slice4iter4IterhEECsceeBBjCCtRQ_7autocfg, symObjAddr: 0x584, symBinAddr: 0x10001585C, symSize: 0x234 }
  - { offset: 0x3A1CB, size: 0x8, addend: 0x0, symName: __RNvXs8_NtNtCsfvfooZQ3Axs_4core3str6traitsINtNtNtB9_3ops5range7RangeTojEINtNtNtB9_5slice5index10SliceIndexeE3getCsceeBBjCCtRQ_7autocfg, symObjAddr: 0x1974, symBinAddr: 0x100016C4C, symSize: 0x138 }
  - { offset: 0x3A2E4, size: 0x8, addend: 0x0, symName: __RNvXs8_NtNtCsfvfooZQ3Axs_4core3str6traitsINtNtNtB9_3ops5range7RangeTojEINtNtNtB9_5slice5index10SliceIndexeE5indexCsceeBBjCCtRQ_7autocfg, symObjAddr: 0x1AAC, symBinAddr: 0x100016D84, symSize: 0x84 }
  - { offset: 0x3A37F, size: 0x8, addend: 0x0, symName: __RNvXs9_NtNtCsfvfooZQ3Axs_4core3str6traitsINtNtNtB9_3ops5range9RangeFromjEINtNtNtB9_5slice5index10SliceIndexeE3getCsceeBBjCCtRQ_7autocfg, symObjAddr: 0x1B30, symBinAddr: 0x100016E08, symSize: 0x148 }
  - { offset: 0x3A4EE, size: 0x8, addend: 0x0, symName: __RNvXs9_NtNtCsfvfooZQ3Axs_4core3str6traitsINtNtNtB9_3ops5range9RangeFromjEINtNtNtB9_5slice5index10SliceIndexeE5indexCsceeBBjCCtRQ_7autocfg, symObjAddr: 0x1C78, symBinAddr: 0x100016F50, symSize: 0x88 }
  - { offset: 0x3AEED, size: 0x8, addend: 0x0, symName: __RNvXs1a_NtCsfvfooZQ3Axs_4core3fmtRNtNtCsceeBBjCCtRQ_7autocfg5error9ErrorKindNtB6_5Debug3fmtBA_, symObjAddr: 0x1724, symBinAddr: 0x1000169FC, symSize: 0x30 }
  - { offset: 0x3BA6F, size: 0x8, addend: 0x0, symName: __RINvNtCsfvfooZQ3Axs_4core3mem4dropNtNtCscOYdFFY2T5N_3std7process10ChildStdinECsceeBBjCCtRQ_7autocfg, symObjAddr: 0x350, symBinAddr: 0x100015628, symSize: 0x28 }
  - { offset: 0x3BD15, size: 0x8, addend: 0x0, symName: __RNvXNtNtCsfvfooZQ3Axs_4core3ops12control_flowINtB2_11ControlFlowReENtNtB4_9try_trait3Try11from_outputCsceeBBjCCtRQ_7autocfg, symObjAddr: 0x12D4, symBinAddr: 0x1000165AC, symSize: 0x18 }
  - { offset: 0x3BD53, size: 0x8, addend: 0x0, symName: __RNvXNtNtCsfvfooZQ3Axs_4core3ops12control_flowINtB2_11ControlFlowReENtNtB4_9try_trait3Try6branchCsceeBBjCCtRQ_7autocfg, symObjAddr: 0x12EC, symBinAddr: 0x1000165C4, symSize: 0x64 }
  - { offset: 0x3BDD2, size: 0x8, addend: 0x0, symName: __RNvXs_NtNtCsfvfooZQ3Axs_4core3ops12control_flowINtB4_11ControlFlowReEINtNtB6_9try_trait12FromResidualIBK_B12_NtNtB8_7convert10InfallibleEE13from_residualCsceeBBjCCtRQ_7autocfg, symObjAddr: 0x1D78, symBinAddr: 0x100017050, symSize: 0x2C }
  - { offset: 0x3BF13, size: 0x8, addend: 0x0, symName: __RNvXs2_NtNtNtCsfvfooZQ3Axs_4core3ops8function5implsQNvYeNtNtCse1nGBsou5OW_5alloc6string8ToString9to_stringINtB7_6FnOnceTReEE9call_onceCsceeBBjCCtRQ_7autocfg, symObjAddr: 0x1778, symBinAddr: 0x100016A50, symSize: 0x34 }
  - { offset: 0x3C010, size: 0x8, addend: 0x0, symName: __RNvXNtCsfvfooZQ3Axs_4core7convertRNtNtCse1nGBsou5OW_5alloc6string6StringINtB2_5AsRefNtNtNtCscOYdFFY2T5N_3std3ffi6os_str5OsStrE6as_refCsceeBBjCCtRQ_7autocfg, symObjAddr: 0x12AC, symBinAddr: 0x100016584, symSize: 0x28 }
  - { offset: 0x3C0BD, size: 0x8, addend: 0x0, symName: __RINvXs0_NtNtNtCsfvfooZQ3Axs_4core4iter8adapters3mapINtB6_3MapINtNtNtBc_3ops5range5RangeyENCINvXs8_NtCsloNvcHxBCre_9hashbrown3setINtB1y_7HashSetyNtNtNtCscOYdFFY2T5N_3std4hash6random11RandomStateEINtNtNtBa_6traits7collect6ExtendyE6extendBX_E0ENtNtB3b_8iterator8Iterator4folduNCINvNvB3R_8for_each4callTyuENCINvXs1i_NtB1A_3mapINtB50_7HashMapyuB2i_EIB37_B4M_E6extendBN_E0E0ECsceeBBjCCtRQ_7autocfg, symObjAddr: 0x7B8, symBinAddr: 0x100015A90, symSize: 0x2C }
  - { offset: 0x3C12E, size: 0x8, addend: 0x0, symName: __RINvXs0_NtNtNtCsfvfooZQ3Axs_4core4iter8adapters3mapINtB6_3MapINtNtNtBc_3str4iter5SplitcENvMB12_e4trimENtNtNtBa_6traits8iterator8Iterator8try_folduNCINvNvB1C_4find5checkReQNCNvCsceeBBjCCtRQ_7autocfg9rustflags0E0INtNtNtBc_3ops12control_flow11ControlFlowB2G_EEB2N_, symObjAddr: 0x7E4, symBinAddr: 0x100015ABC, symSize: 0x38 }
  - { offset: 0x3C1AC, size: 0x8, addend: 0x0, symName: __RINvXs0_NtNtNtCsfvfooZQ3Axs_4core4iter8adapters3mapINtB6_3MapNtNtNtBc_3str4iter5CharsNCNvCsceeBBjCCtRQ_7autocfg6mangle0ENtNtNtBa_6traits8iterator8Iterator4folduNCINvNvB1U_8for_each4callcNCINvXsb_NtCse1nGBsou5OW_5alloc6stringNtB37_6StringINtNtB1Y_7collect6ExtendcE6extendBN_E0E0EB1p_, symObjAddr: 0x81C, symBinAddr: 0x100015AF4, symSize: 0x34 }
  - { offset: 0x3C21D, size: 0x8, addend: 0x0, symName: __RNvXs0_NtNtNtCsfvfooZQ3Axs_4core4iter8adapters3mapINtB5_3MapINtNtB7_6filter6FilterIBN_INtNtNtBb_3str4iter5SplitcENvMB1r_e4trimENCNvCsceeBBjCCtRQ_7autocfg9rustflags0ENvYeNtNtCse1nGBsou5OW_5alloc6string8ToString9to_stringENtNtNtB9_6traits8iterator8Iterator4nextB25_, symObjAddr: 0x1460, symBinAddr: 0x100016738, symSize: 0x9C }
  - { offset: 0x3C297, size: 0x8, addend: 0x0, symName: __RNvXs0_NtNtNtCsfvfooZQ3Axs_4core4iter8adapters3mapINtB5_3MapINtNtB7_6filter6FilterIBN_INtNtNtBb_3str4iter5SplitcENvMB1r_e4trimENCNvCsceeBBjCCtRQ_7autocfg9rustflags0ENvYeNtNtCse1nGBsou5OW_5alloc6string8ToString9to_stringENtNtNtB9_6traits8iterator8Iterator9size_hintB25_, symObjAddr: 0x14FC, symBinAddr: 0x1000167D4, symSize: 0x24 }
  - { offset: 0x3C2DE, size: 0x8, addend: 0x0, symName: __RNvXs0_NtNtNtCsfvfooZQ3Axs_4core4iter8adapters3mapINtB5_3MapINtNtNtBb_3ops5range5RangeyENCINvXs8_NtCsloNvcHxBCre_9hashbrown3setINtB1x_7HashSetyNtNtNtCscOYdFFY2T5N_3std4hash6random11RandomStateEINtNtNtB9_6traits7collect6ExtendyE6extendBW_E0ENtNtB3a_8iterator8Iterator9size_hintCsceeBBjCCtRQ_7autocfg, symObjAddr: 0x1520, symBinAddr: 0x1000167F8, symSize: 0x24 }
  - { offset: 0x3C325, size: 0x8, addend: 0x0, symName: __RNvXs0_NtNtNtCsfvfooZQ3Axs_4core4iter8adapters3mapINtB5_3MapINtNtNtBb_3str4iter14SplitInclusivecENtB11_8LinesMapENtNtNtB9_6traits8iterator8Iterator4nextCsceeBBjCCtRQ_7autocfg, symObjAddr: 0x1544, symBinAddr: 0x10001681C, symSize: 0x88 }
  - { offset: 0x3C39F, size: 0x8, addend: 0x0, symName: __RNvXs0_NtNtNtCsfvfooZQ3Axs_4core4iter8adapters3mapINtB5_3MapINtNtNtBb_3str4iter5SplitcENvMB11_e4trimENtNtNtB9_6traits8iterator8Iterator9size_hintCsceeBBjCCtRQ_7autocfg, symObjAddr: 0x15CC, symBinAddr: 0x1000168A4, symSize: 0x24 }
  - { offset: 0x3C3E6, size: 0x8, addend: 0x0, symName: __RNvXs0_NtNtNtCsfvfooZQ3Axs_4core4iter8adapters3mapINtB5_3MapINtNtNtBb_3str4iter5SplitcENvYeNtNtCse1nGBsou5OW_5alloc6string8ToString9to_stringENtNtNtB9_6traits8iterator8Iterator4nextCsceeBBjCCtRQ_7autocfg, symObjAddr: 0x15F0, symBinAddr: 0x1000168C8, symSize: 0x9C }
  - { offset: 0x3C460, size: 0x8, addend: 0x0, symName: __RNvXs0_NtNtNtCsfvfooZQ3Axs_4core4iter8adapters3mapINtB5_3MapINtNtNtBb_3str4iter5SplitcENvYeNtNtCse1nGBsou5OW_5alloc6string8ToString9to_stringENtNtNtB9_6traits8iterator8Iterator9size_hintCsceeBBjCCtRQ_7autocfg, symObjAddr: 0x168C, symBinAddr: 0x100016964, symSize: 0x24 }
  - { offset: 0x3C4A7, size: 0x8, addend: 0x0, symName: __RNvXs0_NtNtNtCsfvfooZQ3Axs_4core4iter8adapters3mapINtB5_3MapNtNtNtBb_3str4iter5CharsNCNvCsceeBBjCCtRQ_7autocfg6mangle0ENtNtNtB9_6traits8iterator8Iterator9size_hintB1o_, symObjAddr: 0x16B0, symBinAddr: 0x100016988, symSize: 0x24 }
  - { offset: 0x3C527, size: 0x8, addend: 0x0, symName: __RNCINvNtNtNtCsfvfooZQ3Axs_4core4iter8adapters3map12map_try_foldReBZ_uINtNtNtBa_3ops12control_flow11ControlFlowBZ_ENvMNtBa_3stre4trimNCINvNvNtNtNtB8_6traits8iterator8Iterator4find5checkBZ_QNCNvCsceeBBjCCtRQ_7autocfg9rustflags0E0E0B34_, symObjAddr: 0xC28, symBinAddr: 0x100015F00, symSize: 0x9C }
  - { offset: 0x3C5BF, size: 0x8, addend: 0x0, symName: __RNCINvNtNtNtCsfvfooZQ3Axs_4core4iter8adapters3map8map_foldccuNCNvCsceeBBjCCtRQ_7autocfg6mangle0NCINvNvNtNtNtB8_6traits8iterator8Iterator8for_each4callcNCINvXsb_NtCse1nGBsou5OW_5alloc6stringNtB2y_6StringINtNtB1G_7collect6ExtendcE6extendINtB4_3MapNtNtNtBa_3str4iter5CharsBX_EE0E0E0B11_, symObjAddr: 0xCC4, symBinAddr: 0x100015F9C, symSize: 0x78 }
  - { offset: 0x3C644, size: 0x8, addend: 0x0, symName: __RNCINvNtNtNtCsfvfooZQ3Axs_4core4iter8adapters3map8map_foldyTyuEuNCINvXs8_NtCsloNvcHxBCre_9hashbrown3setINtB19_7HashSetyNtNtNtCscOYdFFY2T5N_3std4hash6random11RandomStateEINtNtNtB8_6traits7collect6ExtendyE6extendINtNtNtBa_3ops5range5RangeyEE0NCINvNvNtNtB2M_8iterator8Iterator8for_each4callBV_NCINvXs1i_NtB1b_3mapINtB4O_7HashMapyuB1T_EIB2I_BV_E6extendINtB4_3MapB3m_B10_EE0E0E0CsceeBBjCCtRQ_7autocfg, symObjAddr: 0xD3C, symBinAddr: 0x100016014, symSize: 0x78 }
  - { offset: 0x3C857, size: 0x8, addend: 0x0, symName: __RNvXsh_NtNtNtCsfvfooZQ3Axs_4core4iter8adapters7step_byINtNtNtBb_3ops5range5RangejEINtB5_14SpecRangeSetupBQ_E5setupCsceeBBjCCtRQ_7autocfg, symObjAddr: 0x1DFC, symBinAddr: 0x1000170D4, symSize: 0x12C }
  - { offset: 0x3C969, size: 0x8, addend: 0x0, symName: __RINvYINtNtNtCsfvfooZQ3Axs_4core3ops5range5RangeyENtNtNtNtBa_4iter6traits8iterator8Iterator3mapTyuENCINvXs8_NtCsloNvcHxBCre_9hashbrown3setINtB1H_7HashSetyNtNtNtCscOYdFFY2T5N_3std4hash6random11RandomStateEINtNtBP_7collect6ExtendyE6extendB3_E0ECsceeBBjCCtRQ_7autocfg, symObjAddr: 0x9B0, symBinAddr: 0x100015C88, symSize: 0x14 }
  - { offset: 0x3C9C1, size: 0x8, addend: 0x0, symName: __RINvYINtNtNtCsfvfooZQ3Axs_4core3ops5range5RangeyENtNtNtNtBa_4iter6traits8iterator8Iterator4folduNCINvNtNtBR_8adapters3map8map_foldyTyuEuNCINvXs8_NtCsloNvcHxBCre_9hashbrown3setINtB2j_7HashSetyNtNtNtCscOYdFFY2T5N_3std4hash6random11RandomStateEINtNtBP_7collect6ExtendyE6extendB3_E0NCINvNvBL_8for_each4callB25_NCINvXs1i_NtB2l_3mapINtB54_7HashMapyuB33_EIB3S_B25_E6extendINtB1B_3MapB3_B2a_EE0E0E0ECsceeBBjCCtRQ_7autocfg, symObjAddr: 0x9C4, symBinAddr: 0x100015C9C, symSize: 0xBC }
  - { offset: 0x3CA50, size: 0x8, addend: 0x0, symName: __RINvYINtNtNtCsfvfooZQ3Axs_4core3ops5range5RangeyENtNtNtNtBa_4iter6traits8iterator8Iterator7collectINtNtNtNtCscOYdFFY2T5N_3std11collections4hash3set7HashSetyEECsceeBBjCCtRQ_7autocfg, symObjAddr: 0xA80, symBinAddr: 0x100015D58, symSize: 0x24 }
  - { offset: 0x3CA90, size: 0x8, addend: 0x0, symName: __RINvYINtNtNtNtCsfvfooZQ3Axs_4core4iter8adapters3map3MapINtNtB8_6filter6FilterIB4_INtNtNtBc_3str4iter5SplitcENvMB1m_e4trimENCNvCsceeBBjCCtRQ_7autocfg9rustflags0ENvYeNtNtCse1nGBsou5OW_5alloc6string8ToString9to_stringENtNtNtBa_6traits8iterator8Iterator7collectINtNtB2G_3vec3VecNtB2E_6StringEEB20_, symObjAddr: 0xAA4, symBinAddr: 0x100015D7C, symSize: 0x1C }
  - { offset: 0x3CAD1, size: 0x8, addend: 0x0, symName: __RINvYINtNtNtNtCsfvfooZQ3Axs_4core4iter8adapters3map3MapINtNtNtBc_3ops5range5RangeyENCINvXs8_NtCsloNvcHxBCre_9hashbrown3setINtB1s_7HashSetyNtNtNtCscOYdFFY2T5N_3std4hash6random11RandomStateEINtNtNtBa_6traits7collect6ExtendyE6extendBR_E0ENtNtB35_8iterator8Iterator8for_eachNCINvXs1i_NtB1u_3mapINtB4u_7HashMapyuB2c_EIB31_TyuEE6extendB3_E0ECsceeBBjCCtRQ_7autocfg, symObjAddr: 0xAC0, symBinAddr: 0x100015D98, symSize: 0x2C }
  - { offset: 0x3CB1C, size: 0x8, addend: 0x0, symName: __RINvYINtNtNtNtCsfvfooZQ3Axs_4core4iter8adapters3map3MapINtNtNtBc_3str4iter5SplitcENvMBW_e4trimENtNtNtBa_6traits8iterator8Iterator4findQNCNvCsceeBBjCCtRQ_7autocfg9rustflags0EB2d_, symObjAddr: 0xAEC, symBinAddr: 0x100015DC4, symSize: 0x90 }
  - { offset: 0x3CB97, size: 0x8, addend: 0x0, symName: __RINvYINtNtNtNtCsfvfooZQ3Axs_4core4iter8adapters3map3MapINtNtNtBc_3str4iter5SplitcENvMBW_e4trimENtNtNtBa_6traits8iterator8Iterator6filterNCNvCsceeBBjCCtRQ_7autocfg9rustflags0EB2e_, symObjAddr: 0xB7C, symBinAddr: 0x100015E54, symSize: 0x30 }
  - { offset: 0x3CBFC, size: 0x8, addend: 0x0, symName: __RINvYINtNtNtNtCsfvfooZQ3Axs_4core4iter8adapters3map3MapINtNtNtBc_3str4iter5SplitcENvYeNtNtCse1nGBsou5OW_5alloc6string8ToString9to_stringENtNtNtBa_6traits8iterator8Iterator7collectINtNtB1q_3vec3VecNtB1o_6StringEECsceeBBjCCtRQ_7autocfg, symObjAddr: 0xBAC, symBinAddr: 0x100015E84, symSize: 0x1C }
  - { offset: 0x3CC3D, size: 0x8, addend: 0x0, symName: __RINvYINtNtNtNtCsfvfooZQ3Axs_4core4iter8adapters3map3MapNtNtNtBc_3str4iter5CharsNCNvCsceeBBjCCtRQ_7autocfg6mangle0ENtNtNtBa_6traits8iterator8Iterator7collectNtNtCse1nGBsou5OW_5alloc6string6StringEB1j_, symObjAddr: 0xBC8, symBinAddr: 0x100015EA0, symSize: 0x2C }
  - { offset: 0x3CC7D, size: 0x8, addend: 0x0, symName: __RINvYINtNtNtNtCsfvfooZQ3Axs_4core4iter8adapters3map3MapNtNtNtBc_3str4iter5CharsNCNvCsceeBBjCCtRQ_7autocfg6mangle0ENtNtNtBa_6traits8iterator8Iterator8for_eachNCINvXsb_NtCse1nGBsou5OW_5alloc6stringNtB2E_6StringINtNtB1S_7collect6ExtendcE6extendB3_E0EB1j_, symObjAddr: 0xBF4, symBinAddr: 0x100015ECC, symSize: 0x34 }
  - { offset: 0x3CCD2, size: 0x8, addend: 0x0, symName: __RNCINvNvNtNtNtNtCsfvfooZQ3Axs_4core4iter6traits8iterator8Iterator4find5checkReNCNvMNtCsceeBBjCCtRQ_7autocfg7versionNtB1j_7Version12from_command0E0B1l_, symObjAddr: 0xDB4, symBinAddr: 0x10001608C, symSize: 0x84 }
  - { offset: 0x3CD2E, size: 0x8, addend: 0x0, symName: __RNCINvNvNtNtNtNtCsfvfooZQ3Axs_4core4iter6traits8iterator8Iterator4find5checkReQNCNvCsceeBBjCCtRQ_7autocfg9rustflags0E0B1j_, symObjAddr: 0xE38, symBinAddr: 0x100016110, symSize: 0x84 }
  - { offset: 0x3CDA9, size: 0x8, addend: 0x0, symName: __RNCINvNvNtNtNtNtCsfvfooZQ3Axs_4core4iter6traits8iterator8Iterator8for_each4callTyuENCINvXs1i_NtCsloNvcHxBCre_9hashbrown3mapINtB1t_7HashMapyuNtNtNtCscOYdFFY2T5N_3std4hash6random11RandomStateEINtNtBa_7collect6ExtendB1f_E6extendINtNtNtBc_8adapters3map3MapINtNtNtBe_3ops5range5RangeyENCINvXs8_NtB1v_3setINtB4D_7HashSetyB2e_EIB33_yE6extendB42_E0EE0E0CsceeBBjCCtRQ_7autocfg, symObjAddr: 0xEBC, symBinAddr: 0x100016194, symSize: 0x28 }
  - { offset: 0x3CE01, size: 0x8, addend: 0x0, symName: __RNCINvNvNtNtNtNtCsfvfooZQ3Axs_4core4iter6traits8iterator8Iterator8for_each4callcNCINvXsb_NtCse1nGBsou5OW_5alloc6stringNtB1p_6StringINtNtBa_7collect6ExtendcE6extendINtNtNtBc_8adapters3map3MapNtNtNtBe_3str4iter5CharsNCNvCsceeBBjCCtRQ_7autocfg6mangle0EE0E0B3u_, symObjAddr: 0xEE4, symBinAddr: 0x1000161BC, symSize: 0x28 }
  - { offset: 0x3CE8D, size: 0x8, addend: 0x0, symName: __RNvXNtNtNtCsfvfooZQ3Axs_4core4iter6traits7collectINtNtNtB6_8adapters3map3MapINtNtBQ_6filter6FilterIBM_INtNtNtB8_3str4iter5SplitcENvMB1H_e4trimENCNvCsceeBBjCCtRQ_7autocfg9rustflags0ENvYeNtNtCse1nGBsou5OW_5alloc6string8ToString9to_stringENtB2_12IntoIterator9into_iterB2l_, symObjAddr: 0x1350, symBinAddr: 0x100016628, symSize: 0x30 }
  - { offset: 0x3CEC5, size: 0x8, addend: 0x0, symName: __RNvXNtNtNtCsfvfooZQ3Axs_4core4iter6traits7collectINtNtNtB6_8adapters3map3MapINtNtNtB8_3ops5range5RangeyENCINvXs8_NtCsloNvcHxBCre_9hashbrown3setINtB1N_7HashSetyNtNtNtCscOYdFFY2T5N_3std4hash6random11RandomStateEINtB2_6ExtendyE6extendB1c_E0ENtB2_12IntoIterator9into_iterCsceeBBjCCtRQ_7autocfg, symObjAddr: 0x1380, symBinAddr: 0x100016658, symSize: 0x14 }
  - { offset: 0x3CEFC, size: 0x8, addend: 0x0, symName: __RNvXNtNtNtCsfvfooZQ3Axs_4core4iter6traits7collectINtNtNtB6_8adapters3map3MapINtNtNtB8_3str4iter5SplitcENvYeNtNtCse1nGBsou5OW_5alloc6string8ToString9to_stringENtB2_12IntoIterator9into_iterCsceeBBjCCtRQ_7autocfg, symObjAddr: 0x1394, symBinAddr: 0x10001666C, symSize: 0x30 }
  - { offset: 0x3CF34, size: 0x8, addend: 0x0, symName: __RNvXNtNtNtCsfvfooZQ3Axs_4core4iter6traits7collectINtNtNtB6_8adapters3map3MapNtNtNtB8_3str4iter5CharsNCNvCsceeBBjCCtRQ_7autocfg6mangle0ENtB2_12IntoIterator9into_iterB1E_, symObjAddr: 0x13C4, symBinAddr: 0x10001669C, symSize: 0x1C }
  - { offset: 0x3CF6B, size: 0x8, addend: 0x0, symName: __RNvXNtNtNtCsfvfooZQ3Axs_4core4iter6traits7collectINtNtNtB8_3ops5range5RangeyENtB2_12IntoIterator9into_iterCsceeBBjCCtRQ_7autocfg, symObjAddr: 0x13E0, symBinAddr: 0x1000166B8, symSize: 0x14 }
  - { offset: 0x3CFAF, size: 0x8, addend: 0x0, symName: __RNvXs3_NtNtCsfvfooZQ3Axs_4core4iter5rangeINtNtNtB9_3ops5range5RangeyENtB5_17RangeIteratorImpl9spec_nextCsceeBBjCCtRQ_7autocfg, symObjAddr: 0x17AC, symBinAddr: 0x100016A84, symSize: 0x94 }
  - { offset: 0x3D030, size: 0x8, addend: 0x0, symName: __RNvXs4_NtNtCsfvfooZQ3Axs_4core4iter5rangeINtNtNtB9_3ops5range5RangeyENtNtNtB7_6traits8iterator8Iterator4nextCsceeBBjCCtRQ_7autocfg, symObjAddr: 0x1840, symBinAddr: 0x100016B18, symSize: 0x24 }
  - { offset: 0x3D067, size: 0x8, addend: 0x0, symName: __RNvXs4_NtNtCsfvfooZQ3Axs_4core4iter5rangeINtNtNtB9_3ops5range5RangeyENtNtNtB7_6traits8iterator8Iterator9size_hintCsceeBBjCCtRQ_7autocfg, symObjAddr: 0x1864, symBinAddr: 0x100016B3C, symSize: 0x88 }
  - { offset: 0x3D1A0, size: 0x8, addend: 0x0, symName: __RNvNvNtNtCsfvfooZQ3Axs_4core4char7convert18from_u32_unchecked18precondition_checkCsceeBBjCCtRQ_7autocfg, symObjAddr: 0x1214, symBinAddr: 0x1000164EC, symSize: 0x98 }
  - { offset: 0x3D4EE, size: 0x8, addend: 0x0, symName: __RNvXs5_NtNtCsfvfooZQ3Axs_4core5slice5indexINtNtNtB9_3ops5range9RangeFromjEINtB5_10SliceIndexShE5indexCsceeBBjCCtRQ_7autocfg, symObjAddr: 0x18EC, symBinAddr: 0x100016BC4, symSize: 0x88 }
  - { offset: 0x3D644, size: 0x8, addend: 0x0, symName: __RNvXsb_NtCsfvfooZQ3Axs_4core5arrayRARej2_NtNtNtNtB7_4iter6traits7collect12IntoIterator9into_iterCsceeBBjCCtRQ_7autocfg, symObjAddr: 0x1DA4, symBinAddr: 0x10001707C, symSize: 0x58 }
  - { offset: 0x3DB31, size: 0x8, addend: 0x0, symName: __RNvNtNtCscOYdFFY2T5N_3std2io5stdio6stderrCsceeBBjCCtRQ_7autocfg, symObjAddr: 0x1208, symBinAddr: 0x1000164E0, symSize: 0xC }
  - { offset: 0x3DFE7, size: 0x8, addend: 0x0, symName: __RNvXs1i_NtCscOYdFFY2T5N_3std4pathNtNtCse1nGBsou5OW_5alloc6string6StringINtNtCsfvfooZQ3Axs_4core7convert5AsRefNtB6_4PathE6as_refCsceeBBjCCtRQ_7autocfg, symObjAddr: 0x1754, symBinAddr: 0x100016A2C, symSize: 0x24 }
  - { offset: 0x3E059, size: 0x8, addend: 0x0, symName: __RNvXsX_NtNtCscOYdFFY2T5N_3std3ffi6os_strNtNtCse1nGBsou5OW_5alloc6string6StringINtNtCsfvfooZQ3Axs_4core7convert5AsRefNtB5_5OsStrE6as_refCsceeBBjCCtRQ_7autocfg, symObjAddr: 0x1D00, symBinAddr: 0x100016FD8, symSize: 0x78 }
  - { offset: 0x3E471, size: 0x8, addend: 0x0, symName: __RNvNtCsceeBBjCCtRQ_7autocfg5error9from_exit, symObjAddr: 0x2378, symBinAddr: 0x1000172CC, symSize: 0x40 }
  - { offset: 0x3E49D, size: 0x8, addend: 0x0, symName: __RNvNtCsceeBBjCCtRQ_7autocfg5error7from_io, symObjAddr: 0x23B8, symBinAddr: 0x10001730C, symSize: 0x40 }
  - { offset: 0x3E4C9, size: 0x8, addend: 0x0, symName: __RNvNtCsceeBBjCCtRQ_7autocfg5error8from_num, symObjAddr: 0x23F8, symBinAddr: 0x10001734C, symSize: 0x40 }
  - { offset: 0x3E4F5, size: 0x8, addend: 0x0, symName: __RNvNtCsceeBBjCCtRQ_7autocfg5error9from_utf8, symObjAddr: 0x2438, symBinAddr: 0x10001738C, symSize: 0x44 }
  - { offset: 0x3E521, size: 0x8, addend: 0x0, symName: __RNvNtCsceeBBjCCtRQ_7autocfg5error8from_str, symObjAddr: 0x247C, symBinAddr: 0x1000173D0, symSize: 0x4C }
  - { offset: 0x3E552, size: 0x8, addend: 0x0, symName: __RNvXs0_NtCsceeBBjCCtRQ_7autocfg5errorNtB5_5ErrorNtNtCsfvfooZQ3Axs_4core3fmt5Debug3fmtB7_, symObjAddr: 0x2D5C, symBinAddr: 0x100017CB0, symSize: 0x64 }
  - { offset: 0x3E592, size: 0x8, addend: 0x0, symName: __RNvXs1_NtCsceeBBjCCtRQ_7autocfg5errorNtB5_9ErrorKindNtNtCsfvfooZQ3Axs_4core3fmt5Debug3fmtB7_, symObjAddr: 0x2DC0, symBinAddr: 0x100017D14, symSize: 0x190 }
  - { offset: 0x3E6DC, size: 0x8, addend: 0x0, symName: __RNCNvMNtCsceeBBjCCtRQ_7autocfg7versionNtB4_7Version12from_command0B6_, symObjAddr: 0x2D0C, symBinAddr: 0x100017C60, symSize: 0x50 }
  - { offset: 0x3E712, size: 0x8, addend: 0x0, symName: __RNCNvMNtCsceeBBjCCtRQ_7autocfg7versionNtB4_7Version12from_commands_0B6_, symObjAddr: 0x3018, symBinAddr: 0x100017EA4, symSize: 0x3C }
  - { offset: 0x3E73A, size: 0x8, addend: 0x0, symName: __RNCNvMNtCsceeBBjCCtRQ_7autocfg7versionNtB4_7Version12from_commands0_0B6_, symObjAddr: 0x3054, symBinAddr: 0x100017EE0, symSize: 0x3C }
  - { offset: 0x3E762, size: 0x8, addend: 0x0, symName: __RNCNvMNtCsceeBBjCCtRQ_7autocfg7versionNtB4_7Version12from_commands1_0B6_, symObjAddr: 0x3090, symBinAddr: 0x100017F1C, symSize: 0x3C }
  - { offset: 0x3E98A, size: 0x8, addend: 0x0, symName: __RINvMNtCsfvfooZQ3Axs_4core6resultINtB3_6ResultNtNtCscOYdFFY2T5N_3std2fs8MetadataNtNtNtBM_2io5error5ErrorE7map_errNtNtCsceeBBjCCtRQ_7autocfg5error5ErrorNvB1P_7from_ioEB1R_, symObjAddr: 0x0, symBinAddr: 0x1000152D8, symSize: 0xA0 }
  - { offset: 0x3EA1D, size: 0x8, addend: 0x0, symName: __RINvMNtCsfvfooZQ3Axs_4core6resultINtB3_6ResultNtNtCscOYdFFY2T5N_3std7process5ChildNtNtNtBM_2io5error5ErrorE7map_errNtNtCsceeBBjCCtRQ_7autocfg5error5ErrorNvB1R_7from_ioEB1T_, symObjAddr: 0xA0, symBinAddr: 0x100015378, symSize: 0x9C }
  - { offset: 0x3EEF0, size: 0x8, addend: 0x0, symName: __RINvXs5_NtCse1nGBsou5OW_5alloc6stringNtB6_6StringINtNtNtNtCsfvfooZQ3Axs_4core4iter6traits7collect12FromIteratorcE9from_iterINtNtNtBS_8adapters3map3MapNtNtNtBU_3str4iter5CharsNCNvCsceeBBjCCtRQ_7autocfg6mangle0EEB2Q_, symObjAddr: 0x850, symBinAddr: 0x100015B28, symSize: 0xA0 }
  - { offset: 0x3EF6E, size: 0x8, addend: 0x0, symName: __RINvXsb_NtCse1nGBsou5OW_5alloc6stringNtB6_6StringINtNtNtNtCsfvfooZQ3Axs_4core4iter6traits7collect6ExtendcE6extendINtNtNtBS_8adapters3map3MapNtNtNtBU_3str4iter5CharsNCNvCsceeBBjCCtRQ_7autocfg6mangle0EEB2G_, symObjAddr: 0x8F0, symBinAddr: 0x100015BC8, symSize: 0xC0 }
  - { offset: 0x3F00F, size: 0x8, addend: 0x0, symName: __RNCINvXsb_NtCse1nGBsou5OW_5alloc6stringNtB8_6StringINtNtNtNtCsfvfooZQ3Axs_4core4iter6traits7collect6ExtendcE6extendINtNtNtBU_8adapters3map3MapNtNtNtBW_3str4iter5CharsNCNvCsceeBBjCCtRQ_7autocfg6mangle0EE0B2I_, symObjAddr: 0xF0C, symBinAddr: 0x1000161E4, symSize: 0x2C }
  - { offset: 0x3F091, size: 0x8, addend: 0x0, symName: __RNvXs1K_NtCse1nGBsou5OW_5alloc6stringeNtB6_12SpecToString14spec_to_stringCsceeBBjCCtRQ_7autocfg, symObjAddr: 0x16D4, symBinAddr: 0x1000169AC, symSize: 0x50 }
  - { offset: 0x3F1FE, size: 0x8, addend: 0x0, symName: __RNvXss_NtCse1nGBsou5OW_5alloc6stringNtB5_6StringNtNtNtCsfvfooZQ3Axs_4core3ops5deref5Deref5derefCsceeBBjCCtRQ_7autocfg, symObjAddr: 0x1FA8, symBinAddr: 0x100017280, symSize: 0x24 }
  - { offset: 0x3F232, size: 0x8, addend: 0x0, symName: __RNvXsl_NtCse1nGBsou5OW_5alloc6stringNtB5_6StringNtNtCsfvfooZQ3Axs_4core3fmt7Display3fmtCsceeBBjCCtRQ_7autocfg, symObjAddr: 0x1F28, symBinAddr: 0x100017200, symSize: 0x80 }
  - { offset: 0x3F397, size: 0x8, addend: 0x0, symName: __RNvXsw_NtCse1nGBsou5OW_5alloc6stringeNtB5_8ToString9to_stringCsceeBBjCCtRQ_7autocfg, symObjAddr: 0x1FCC, symBinAddr: 0x1000172A4, symSize: 0x28 }
  - { offset: 0x3F3DF, size: 0x8, addend: 0x0, symName: __RNvXs0_NtNtCse1nGBsou5OW_5alloc3ffi5c_strNtB5_7CStringNtNtNtCsfvfooZQ3Axs_4core3ops4drop4Drop4dropCsceeBBjCCtRQ_7autocfg, symObjAddr: 0x13F4, symBinAddr: 0x1000166CC, symSize: 0x6C }
  - { offset: 0x3F6FD, size: 0x8, addend: 0x0, symName: __RINvMNtCsfvfooZQ3Axs_4core6resultINtB3_6ResultNtNtCscOYdFFY2T5N_3std7process6OutputNtNtNtBM_2io5error5ErrorE7map_errNtNtCsceeBBjCCtRQ_7autocfg5error5ErrorNvB1S_7from_ioEB1U_, symObjAddr: 0x13C, symBinAddr: 0x100015414, symSize: 0xA0 }
  - { offset: 0x3F7A8, size: 0x8, addend: 0x0, symName: __RINvMNtCsfvfooZQ3Axs_4core6resultINtB3_6ResultReNtNtNtB5_3str5error9Utf8ErrorE7map_errNtNtCsceeBBjCCtRQ_7autocfg5error5ErrorNvB1o_9from_utf8EB1q_, symObjAddr: 0x1DC, symBinAddr: 0x1000154B4, symSize: 0x90 }
  - { offset: 0x3F853, size: 0x8, addend: 0x0, symName: __RINvMNtCsfvfooZQ3Axs_4core6resultINtB3_6ResultjNtNtNtB5_3num5error13ParseIntErrorE7map_errNtNtCsceeBBjCCtRQ_7autocfg5error5ErrorNvB1s_8from_numEB1u_, symObjAddr: 0x26C, symBinAddr: 0x100015544, symSize: 0x78 }
  - { offset: 0x3F8E6, size: 0x8, addend: 0x0, symName: __RINvMNtCsfvfooZQ3Axs_4core6resultINtB3_6ResultuNtNtNtCscOYdFFY2T5N_3std2io5error5ErrorE7map_errNtNtCsceeBBjCCtRQ_7autocfg5error5ErrorNvB1x_7from_ioEB1z_, symObjAddr: 0x2E4, symBinAddr: 0x1000155BC, symSize: 0x6C }
  - { offset: 0x3FC67, size: 0x8, addend: 0x0, symName: __RNvMNtCse1nGBsou5OW_5alloc6stringNtB2_6String4pushCsceeBBjCCtRQ_7autocfg, symObjAddr: 0xF38, symBinAddr: 0x100016210, symSize: 0x100 }
  - { offset: 0x3FF1A, size: 0x8, addend: 0x0, symName: __RNvMNtCse1nGBsou5OW_5alloc6stringNtB2_6String6as_strCsceeBBjCCtRQ_7autocfg, symObjAddr: 0x1038, symBinAddr: 0x100016310, symSize: 0x70 }
  - { offset: 0x4004F, size: 0x8, addend: 0x0, symName: __RNvMNtCse1nGBsou5OW_5alloc6stringNtB2_6String8is_emptyCsceeBBjCCtRQ_7autocfg, symObjAddr: 0x10A8, symBinAddr: 0x100016380, symSize: 0x20 }
  - { offset: 0x400A5, size: 0x8, addend: 0x0, symName: __RNvMNtCsfvfooZQ3Axs_4core6resultINtB2_6ResulthNtNtNtB4_3num5error15TryFromIntErrorE6expectCsceeBBjCCtRQ_7autocfg, symObjAddr: 0x10C8, symBinAddr: 0x1000163A0, symSize: 0x84 }
  - { offset: 0x40114, size: 0x8, addend: 0x0, symName: __RNvMNtCsfvfooZQ3Axs_4core6resultINtB2_6ResultuNtNtCsceeBBjCCtRQ_7autocfg5error5ErrorE5is_okBM_, symObjAddr: 0x114C, symBinAddr: 0x100016424, symSize: 0x28 }
  - { offset: 0x4016E, size: 0x8, addend: 0x0, symName: __RNvMNtCsfvfooZQ3Axs_4core6resultINtB2_6ResultuNtNtCsceeBBjCCtRQ_7autocfg5error5ErrorE6is_errBM_, symObjAddr: 0x1174, symBinAddr: 0x10001644C, symSize: 0x28 }
  - { offset: 0x401C1, size: 0x8, addend: 0x0, symName: __RNvMNtCsfvfooZQ3Axs_4core6resultINtB2_6ResultuNtNtNtCscOYdFFY2T5N_3std2io5error5ErrorE2okCsceeBBjCCtRQ_7autocfg, symObjAddr: 0x119C, symBinAddr: 0x100016474, symSize: 0x6C }
  - { offset: 0x40688, size: 0x8, addend: 0x0, symName: __RNvMNtCsceeBBjCCtRQ_7autocfg7versionNtB2_7Version3new, symObjAddr: 0x24C8, symBinAddr: 0x10001741C, symSize: 0x34 }
  - { offset: 0x40804, size: 0x8, addend: 0x0, symName: __RNvMNtCsceeBBjCCtRQ_7autocfg7versionNtB2_7Version12from_command, symObjAddr: 0x24FC, symBinAddr: 0x100017450, symSize: 0x810 }
  - { offset: 0x40D51, size: 0x8, addend: 0x0, symName: ___llvm_profile_get_magic, symObjAddr: 0x28, symBinAddr: 0x100017F58, symSize: 0x14 }
  - { offset: 0x40D72, size: 0x8, addend: 0x0, symName: ___llvm_profile_get_num_padding_bytes, symObjAddr: 0x44, symBinAddr: 0x100017F6C, symSize: 0xC }
  - { offset: 0x40D7A, size: 0x8, addend: 0x0, symName: ___llvm_profile_get_version, symObjAddr: 0x50, symBinAddr: 0x100017F78, symSize: 0xC }
  - { offset: 0x40DA3, size: 0x8, addend: 0x0, symName: ___llvm_profile_get_version, symObjAddr: 0x50, symBinAddr: 0x100017F78, symSize: 0xC }
  - { offset: 0x40E18, size: 0x8, addend: 0x0, symName: ___llvm_profile_is_continuous_mode_enabled, symObjAddr: 0x0, symBinAddr: 0x100017F84, symSize: 0x20 }
  - { offset: 0x40E35, size: 0x8, addend: 0x0, symName: __MergedGlobals, symObjAddr: 0x3E20, symBinAddr: 0x10007DF08, symSize: 0x0 }
  - { offset: 0x40E57, size: 0x8, addend: 0x0, symName: __MergedGlobals, symObjAddr: 0x3E20, symBinAddr: 0x10007DF08, symSize: 0x0 }
  - { offset: 0x40E87, size: 0x8, addend: 0x0, symName: ___llvm_profile_is_continuous_mode_enabled, symObjAddr: 0x0, symBinAddr: 0x100017F84, symSize: 0x20 }
  - { offset: 0x40E8F, size: 0x8, addend: 0x0, symName: ___llvm_profile_enable_continuous_mode, symObjAddr: 0x20, symBinAddr: 0x100017FA4, symSize: 0x10 }
  - { offset: 0x40E9F, size: 0x8, addend: 0x0, symName: ___llvm_profile_enable_continuous_mode, symObjAddr: 0x20, symBinAddr: 0x100017FA4, symSize: 0x10 }
  - { offset: 0x40EA7, size: 0x8, addend: 0x0, symName: ___llvm_profile_disable_continuous_mode, symObjAddr: 0x30, symBinAddr: 0x100017FB4, symSize: 0xC }
  - { offset: 0x40EBC, size: 0x8, addend: 0x0, symName: ___llvm_profile_disable_continuous_mode, symObjAddr: 0x30, symBinAddr: 0x100017FB4, symSize: 0xC }
  - { offset: 0x40EC4, size: 0x8, addend: 0x0, symName: ___llvm_profile_set_page_size, symObjAddr: 0x3C, symBinAddr: 0x100017FC0, symSize: 0xC }
  - { offset: 0x40ED9, size: 0x8, addend: 0x0, symName: ___llvm_profile_set_page_size, symObjAddr: 0x3C, symBinAddr: 0x100017FC0, symSize: 0xC }
  - { offset: 0x40EE1, size: 0x8, addend: 0x0, symName: ___llvm_profile_get_size_for_buffer, symObjAddr: 0x48, symBinAddr: 0x100017FCC, symSize: 0xC4 }
  - { offset: 0x40F04, size: 0x8, addend: 0x0, symName: ___llvm_profile_get_size_for_buffer, symObjAddr: 0x48, symBinAddr: 0x100017FCC, symSize: 0xC4 }
  - { offset: 0x40F0C, size: 0x8, addend: 0x0, symName: ___llvm_profile_get_size_for_buffer_internal, symObjAddr: 0x10C, symBinAddr: 0x100018090, symSize: 0x1C0 }
  - { offset: 0x41372, size: 0x8, addend: 0x0, symName: ___llvm_profile_get_size_for_buffer_internal, symObjAddr: 0x10C, symBinAddr: 0x100018090, symSize: 0x1C0 }
  - { offset: 0x4137A, size: 0x8, addend: 0x0, symName: ___llvm_profile_get_num_data, symObjAddr: 0x2CC, symBinAddr: 0x100018250, symSize: 0x10 }
  - { offset: 0x41797, size: 0x8, addend: 0x0, symName: ___llvm_profile_get_num_data, symObjAddr: 0x2CC, symBinAddr: 0x100018250, symSize: 0x10 }
  - { offset: 0x4179F, size: 0x8, addend: 0x0, symName: ___llvm_profile_get_data_size, symObjAddr: 0x2DC, symBinAddr: 0x100018260, symSize: 0x10 }
  - { offset: 0x417D5, size: 0x8, addend: 0x0, symName: ___llvm_profile_get_data_size, symObjAddr: 0x2DC, symBinAddr: 0x100018260, symSize: 0x10 }
  - { offset: 0x417DD, size: 0x8, addend: 0x0, symName: ___llvm_profile_get_num_vtable, symObjAddr: 0x2EC, symBinAddr: 0x100018270, symSize: 0x18 }
  - { offset: 0x41804, size: 0x8, addend: 0x0, symName: ___llvm_profile_get_data_size, symObjAddr: 0x2DC, symBinAddr: 0x100018260, symSize: 0x10 }
  - { offset: 0x4183A, size: 0x8, addend: 0x0, symName: ___llvm_profile_get_num_vtable, symObjAddr: 0x2EC, symBinAddr: 0x100018270, symSize: 0x18 }
  - { offset: 0x41842, size: 0x8, addend: 0x0, symName: ___llvm_profile_get_vtable_section_size, symObjAddr: 0x304, symBinAddr: 0x100018288, symSize: 0x8 }
  - { offset: 0x41896, size: 0x8, addend: 0x0, symName: ___llvm_profile_get_vtable_section_size, symObjAddr: 0x304, symBinAddr: 0x100018288, symSize: 0x8 }
  - { offset: 0x4189E, size: 0x8, addend: 0x0, symName: ___llvm_profile_counter_entry_size, symObjAddr: 0x30C, symBinAddr: 0x100018290, symSize: 0x1C }
  - { offset: 0x418C1, size: 0x8, addend: 0x0, symName: ___llvm_profile_counter_entry_size, symObjAddr: 0x30C, symBinAddr: 0x100018290, symSize: 0x1C }
  - { offset: 0x418C9, size: 0x8, addend: 0x0, symName: ___llvm_profile_get_num_counters, symObjAddr: 0x328, symBinAddr: 0x1000182AC, symSize: 0x48 }
  - { offset: 0x418DA, size: 0x8, addend: 0x0, symName: ___llvm_profile_get_num_counters, symObjAddr: 0x328, symBinAddr: 0x1000182AC, symSize: 0x48 }
  - { offset: 0x418E2, size: 0x8, addend: 0x0, symName: ___llvm_profile_get_counters_size, symObjAddr: 0x370, symBinAddr: 0x1000182F4, symSize: 0x5C }
  - { offset: 0x4194E, size: 0x8, addend: 0x0, symName: ___llvm_profile_get_counters_size, symObjAddr: 0x370, symBinAddr: 0x1000182F4, symSize: 0x5C }
  - { offset: 0x41956, size: 0x8, addend: 0x0, symName: ___llvm_profile_get_num_bitmap_bytes, symObjAddr: 0x3CC, symBinAddr: 0x100018350, symSize: 0x8 }
  - { offset: 0x41A05, size: 0x8, addend: 0x0, symName: ___llvm_profile_get_num_bitmap_bytes, symObjAddr: 0x3CC, symBinAddr: 0x100018350, symSize: 0x8 }
  - { offset: 0x41A0D, size: 0x8, addend: 0x0, symName: ___llvm_profile_get_name_size, symObjAddr: 0x3D4, symBinAddr: 0x100018358, symSize: 0x8 }
  - { offset: 0x41A31, size: 0x8, addend: 0x0, symName: ___llvm_profile_get_name_size, symObjAddr: 0x3D4, symBinAddr: 0x100018358, symSize: 0x8 }
  - { offset: 0x41A39, size: 0x8, addend: 0x0, symName: ___llvm_profile_get_padding_sizes_for_counters, symObjAddr: 0x3DC, symBinAddr: 0x100018360, symSize: 0x15C }
  - { offset: 0x41A5D, size: 0x8, addend: 0x0, symName: ___llvm_profile_get_padding_sizes_for_counters, symObjAddr: 0x3DC, symBinAddr: 0x100018360, symSize: 0x15C }
  - { offset: 0x41A65, size: 0x8, addend: 0x0, symName: _initBufferWriter, symObjAddr: 0x538, symBinAddr: 0x1000184BC, symSize: 0x10 }
  - { offset: 0x41BD4, size: 0x8, addend: 0x0, symName: _initBufferWriter, symObjAddr: 0x538, symBinAddr: 0x1000184BC, symSize: 0x10 }
  - { offset: 0x41D46, size: 0x8, addend: 0x0, symName: __MergedGlobals, symObjAddr: 0xA4F0, symBinAddr: 0x10007DF18, symSize: 0x0 }
  - { offset: 0x41E67, size: 0x8, addend: 0x0, symName: __MergedGlobals, symObjAddr: 0xA4F0, symBinAddr: 0x10007DF18, symSize: 0x0 }
  - { offset: 0x420A0, size: 0x8, addend: 0x0, symName: __MergedGlobals, symObjAddr: 0xA4F0, symBinAddr: 0x10007DF18, symSize: 0x0 }
  - { offset: 0x421CB, size: 0x8, addend: 0x0, symName: _getCurFilenameLength, symObjAddr: 0x1C8, symBinAddr: 0x1000184CC, symSize: 0x108 }
  - { offset: 0x421D3, size: 0x8, addend: 0x0, symName: _getCurFilename, symObjAddr: 0x2D0, symBinAddr: 0x1000185D4, symSize: 0x2B8 }
  - { offset: 0x42256, size: 0x8, addend: 0x0, symName: _getCurFilename, symObjAddr: 0x2D0, symBinAddr: 0x1000185D4, symSize: 0x2B8 }
  - { offset: 0x4248B, size: 0x8, addend: 0x0, symName: _parseAndSetFilename, symObjAddr: 0x688, symBinAddr: 0x10001888C, symSize: 0x4B8 }
  - { offset: 0x42493, size: 0x8, addend: 0x0, symName: ___llvm_profile_initialize, symObjAddr: 0xB40, symBinAddr: 0x100018D44, symSize: 0xB8 }
  - { offset: 0x4268B, size: 0x8, addend: 0x0, symName: ___llvm_profile_initialize, symObjAddr: 0xB40, symBinAddr: 0x100018D44, symSize: 0xB8 }
  - { offset: 0x4270B, size: 0x8, addend: 0x0, symName: ___llvm_profile_write_file, symObjAddr: 0xC74, symBinAddr: 0x100018DFC, symSize: 0x1B4 }
  - { offset: 0x42713, size: 0x8, addend: 0x0, symName: _writeFile, symObjAddr: 0xE28, symBinAddr: 0x100018FB0, symSize: 0x294 }
  - { offset: 0x4286E, size: 0x8, addend: 0x0, symName: _writeFile, symObjAddr: 0xE28, symBinAddr: 0x100018FB0, symSize: 0x294 }
  - { offset: 0x429EA, size: 0x8, addend: 0x0, symName: _writeFileWithoutReturn, symObjAddr: 0x138C, symBinAddr: 0x100019244, symSize: 0x4 }
  - { offset: 0x42A21, size: 0x8, addend: 0x0, symName: _getProfileFileSizeForMerging, symObjAddr: 0x1574, symBinAddr: 0x100019248, symSize: 0x110 }
  - { offset: 0x42A29, size: 0x8, addend: 0x0, symName: _mmapProfileForMerging, symObjAddr: 0x1684, symBinAddr: 0x100019358, symSize: 0xBC }
  - { offset: 0x42A66, size: 0x8, addend: 0x0, symName: _mmapProfileForMerging, symObjAddr: 0x1684, symBinAddr: 0x100019358, symSize: 0xBC }
  - { offset: 0x42A6E, size: 0x8, addend: 0x0, symName: _mmapForContinuousMode, symObjAddr: 0x1740, symBinAddr: 0x100019414, symSize: 0x264 }
  - { offset: 0x42ABC, size: 0x8, addend: 0x0, symName: _mmapForContinuousMode, symObjAddr: 0x1740, symBinAddr: 0x100019414, symSize: 0x264 }
  - { offset: 0x42AC4, size: 0x8, addend: 0x0, symName: _fileWriter, symObjAddr: 0x19A4, symBinAddr: 0x100019678, symSize: 0x140 }
  - { offset: 0x42C83, size: 0x8, addend: 0x0, symName: _fileWriter, symObjAddr: 0x19A4, symBinAddr: 0x100019678, symSize: 0x140 }
  - { offset: 0x42C8B, size: 0x8, addend: 0x0, symName: _truncateCurrentFile, symObjAddr: 0x1AE4, symBinAddr: 0x1000197B8, symSize: 0xD8 }
  - { offset: 0x42D53, size: 0x8, addend: 0x0, symName: _truncateCurrentFile, symObjAddr: 0x1AE4, symBinAddr: 0x1000197B8, symSize: 0xD8 }
  - { offset: 0x42D5B, size: 0x8, addend: 0x0, symName: _initializeProfileForContinuousMode, symObjAddr: 0x1BBC, symBinAddr: 0x100019890, symSize: 0x25C }
  - { offset: 0x42DF9, size: 0x8, addend: 0x0, symName: _initializeProfileForContinuousMode, symObjAddr: 0x1BBC, symBinAddr: 0x100019890, symSize: 0x25C }
  - { offset: 0x42E01, size: 0x8, addend: 0x0, symName: _createProfileDir, symObjAddr: 0x1E18, symBinAddr: 0x100019AEC, symSize: 0xA4 }
  - { offset: 0x42FD8, size: 0x8, addend: 0x0, symName: _createProfileDir, symObjAddr: 0x1E18, symBinAddr: 0x100019AEC, symSize: 0xA4 }
  - { offset: 0x42FE0, size: 0x8, addend: 0x0, symName: _parseAndSetFilename.cold.1, symObjAddr: 0x1EBC, symBinAddr: 0x1000585D4, symSize: 0x24 }
  - { offset: 0x4303D, size: 0x8, addend: 0x0, symName: _parseAndSetFilename.cold.1, symObjAddr: 0x1EBC, symBinAddr: 0x1000585D4, symSize: 0x24 }
  - { offset: 0x43045, size: 0x8, addend: 0x0, symName: _parseAndSetFilename.cold.2, symObjAddr: 0x1EE0, symBinAddr: 0x1000585F8, symSize: 0x24 }
  - { offset: 0x43067, size: 0x8, addend: 0x0, symName: _parseAndSetFilename.cold.2, symObjAddr: 0x1EE0, symBinAddr: 0x1000585F8, symSize: 0x24 }
  - { offset: 0x43081, size: 0x8, addend: 0x0, symName: _parseAndSetFilename.cold.2, symObjAddr: 0x1EE0, symBinAddr: 0x1000585F8, symSize: 0x24 }
  - { offset: 0x43091, size: 0x8, addend: 0x0, symName: _parseAndSetFilename.cold.2, symObjAddr: 0x1EE0, symBinAddr: 0x1000585F8, symSize: 0x24 }
  - { offset: 0x431F8, size: 0x8, addend: 0x0, symName: _lprofProfileDumped, symObjAddr: 0x0, symBinAddr: 0x100019B90, symSize: 0xC }
  - { offset: 0x43215, size: 0x8, addend: 0x0, symName: _ProfileDumped, symObjAddr: 0x4E0, symBinAddr: 0x10007DFE8, symSize: 0x0 }
  - { offset: 0x43225, size: 0x8, addend: 0x0, symName: _lprofProfileDumped, symObjAddr: 0x0, symBinAddr: 0x100019B90, symSize: 0xC }
  - { offset: 0x4326D, size: 0x8, addend: 0x0, symName: _lprofGetLoadModuleSignature, symObjAddr: 0x0, symBinAddr: 0x100019B9C, symSize: 0xD0 }
  - { offset: 0x4329A, size: 0x8, addend: 0x0, symName: _VPMergeHook, symBinAddr: 0x10007DEF8, symSize: 0x0 }
  - { offset: 0x43500, size: 0x8, addend: 0x0, symName: _lprofGetLoadModuleSignature, symObjAddr: 0x0, symBinAddr: 0x100019B9C, symSize: 0xD0 }
  - { offset: 0x43508, size: 0x8, addend: 0x0, symName: ___llvm_profile_check_compatibility, symObjAddr: 0xD0, symBinAddr: 0x100019C6C, symSize: 0x1CC }
  - { offset: 0x43577, size: 0x8, addend: 0x0, symName: ___llvm_profile_check_compatibility, symObjAddr: 0xD0, symBinAddr: 0x100019C6C, symSize: 0x1CC }
  - { offset: 0x4357F, size: 0x8, addend: 0x0, symName: ___llvm_profile_merge_from_buffer, symObjAddr: 0x29C, symBinAddr: 0x100019E38, symSize: 0x48C }
  - { offset: 0x43658, size: 0x8, addend: 0x0, symName: ___llvm_profile_merge_from_buffer, symObjAddr: 0x29C, symBinAddr: 0x100019E38, symSize: 0x48C }
  - { offset: 0x438C3, size: 0x8, addend: 0x0, symName: _lprofMergeValueProfData, symObjAddr: 0x0, symBinAddr: 0x10001A2C4, symSize: 0xF0 }
  - { offset: 0x438D4, size: 0x8, addend: 0x0, symName: _lprofMergeValueProfData, symObjAddr: 0x0, symBinAddr: 0x10001A2C4, symSize: 0xF0 }
  - { offset: 0x43BA1, size: 0x8, addend: 0x0, symName: ___llvm_profile_begin_data, symObjAddr: 0x0, symBinAddr: 0x10001A3B4, symSize: 0xC }
  - { offset: 0x43BC0, size: 0x8, addend: 0x0, symName: _CurrentVNode, symObjAddr: 0xC0, symBinAddr: 0x10007D350, symSize: 0x0 }
  - { offset: 0x43C3D, size: 0x8, addend: 0x0, symName: _EndVNode, symObjAddr: 0xC8, symBinAddr: 0x10007D358, symSize: 0x0 }
  - { offset: 0x43C46, size: 0x8, addend: 0x0, symName: ___llvm_profile_begin_data, symObjAddr: 0x0, symBinAddr: 0x10001A3B4, symSize: 0xC }
  - { offset: 0x43C4E, size: 0x8, addend: 0x0, symName: ___llvm_profile_end_data, symObjAddr: 0xC, symBinAddr: 0x10001A3C0, symSize: 0xC }
  - { offset: 0x43C67, size: 0x8, addend: 0x0, symName: ___llvm_profile_end_data, symObjAddr: 0xC, symBinAddr: 0x10001A3C0, symSize: 0xC }
  - { offset: 0x43C6F, size: 0x8, addend: 0x0, symName: ___llvm_profile_begin_names, symObjAddr: 0x18, symBinAddr: 0x10001A3CC, symSize: 0xC }
  - { offset: 0x43C88, size: 0x8, addend: 0x0, symName: ___llvm_profile_begin_names, symObjAddr: 0x18, symBinAddr: 0x10001A3CC, symSize: 0xC }
  - { offset: 0x43C90, size: 0x8, addend: 0x0, symName: ___llvm_profile_end_names, symObjAddr: 0x24, symBinAddr: 0x10001A3D8, symSize: 0xC }
  - { offset: 0x43CA9, size: 0x8, addend: 0x0, symName: ___llvm_profile_end_names, symObjAddr: 0x24, symBinAddr: 0x10001A3D8, symSize: 0xC }
  - { offset: 0x43CB1, size: 0x8, addend: 0x0, symName: ___llvm_profile_begin_counters, symObjAddr: 0x30, symBinAddr: 0x10001A3E4, symSize: 0xC }
  - { offset: 0x43CCA, size: 0x8, addend: 0x0, symName: ___llvm_profile_begin_counters, symObjAddr: 0x30, symBinAddr: 0x10001A3E4, symSize: 0xC }
  - { offset: 0x43CD2, size: 0x8, addend: 0x0, symName: ___llvm_profile_end_counters, symObjAddr: 0x3C, symBinAddr: 0x10001A3F0, symSize: 0xC }
  - { offset: 0x43CEB, size: 0x8, addend: 0x0, symName: ___llvm_profile_end_counters, symObjAddr: 0x3C, symBinAddr: 0x10001A3F0, symSize: 0xC }
  - { offset: 0x43CF3, size: 0x8, addend: 0x0, symName: ___llvm_profile_begin_bitmap, symObjAddr: 0x48, symBinAddr: 0x10001A3FC, symSize: 0xC }
  - { offset: 0x43D0C, size: 0x8, addend: 0x0, symName: ___llvm_profile_begin_bitmap, symObjAddr: 0x48, symBinAddr: 0x10001A3FC, symSize: 0xC }
  - { offset: 0x43D14, size: 0x8, addend: 0x0, symName: ___llvm_profile_end_bitmap, symObjAddr: 0x54, symBinAddr: 0x10001A408, symSize: 0xC }
  - { offset: 0x43D2D, size: 0x8, addend: 0x0, symName: ___llvm_profile_end_bitmap, symObjAddr: 0x54, symBinAddr: 0x10001A408, symSize: 0xC }
  - { offset: 0x43D35, size: 0x8, addend: 0x0, symName: ___llvm_profile_begin_vtables, symObjAddr: 0x60, symBinAddr: 0x10001A414, symSize: 0xC }
  - { offset: 0x43D4F, size: 0x8, addend: 0x0, symName: ___llvm_profile_begin_vtables, symObjAddr: 0x60, symBinAddr: 0x10001A414, symSize: 0xC }
  - { offset: 0x43D57, size: 0x8, addend: 0x0, symName: ___llvm_profile_end_vtables, symObjAddr: 0x6C, symBinAddr: 0x10001A420, symSize: 0xC }
  - { offset: 0x43D70, size: 0x8, addend: 0x0, symName: ___llvm_profile_end_vtables, symObjAddr: 0x6C, symBinAddr: 0x10001A420, symSize: 0xC }
  - { offset: 0x43D78, size: 0x8, addend: 0x0, symName: ___llvm_profile_begin_vtabnames, symObjAddr: 0x78, symBinAddr: 0x10001A42C, symSize: 0xC }
  - { offset: 0x43D90, size: 0x8, addend: 0x0, symName: ___llvm_profile_begin_vtabnames, symObjAddr: 0x78, symBinAddr: 0x10001A42C, symSize: 0xC }
  - { offset: 0x43D98, size: 0x8, addend: 0x0, symName: ___llvm_profile_end_vtabnames, symObjAddr: 0x84, symBinAddr: 0x10001A438, symSize: 0xC }
  - { offset: 0x43DB1, size: 0x8, addend: 0x0, symName: ___llvm_profile_end_vtabnames, symObjAddr: 0x84, symBinAddr: 0x10001A438, symSize: 0xC }
  - { offset: 0x43DD3, size: 0x8, addend: 0x0, symName: ___llvm_profile_begin_vnodes, symObjAddr: 0x9C, symBinAddr: 0x10001A444, symSize: 0xC }
  - { offset: 0x43DDB, size: 0x8, addend: 0x0, symName: ___llvm_profile_end_vnodes, symObjAddr: 0xA8, symBinAddr: 0x10001A450, symSize: 0xC }
  - { offset: 0x43DF4, size: 0x8, addend: 0x0, symName: ___llvm_profile_end_vnodes, symObjAddr: 0xA8, symBinAddr: 0x10001A450, symSize: 0xC }
  - { offset: 0x43DFC, size: 0x8, addend: 0x0, symName: ___llvm_write_binary_ids, symObjAddr: 0xB4, symBinAddr: 0x10001A45C, symSize: 0x8 }
  - { offset: 0x43E14, size: 0x8, addend: 0x0, symName: ___llvm_write_binary_ids, symObjAddr: 0xB4, symBinAddr: 0x10001A45C, symSize: 0x8 }
  - { offset: 0x4409F, size: 0x8, addend: 0x0, symName: __GLOBAL__sub_I_InstrProfilingRuntime.cpp, symObjAddr: 0x0, symBinAddr: 0x10001A464, symSize: 0x18 }
  - { offset: 0x440C2, size: 0x8, addend: 0x0, symName: ___llvm_profile_runtime, symObjAddr: 0x590, symBinAddr: 0x10007DE94, symSize: 0x0 }
  - { offset: 0x440F2, size: 0x8, addend: 0x0, symName: __GLOBAL__sub_I_InstrProfilingRuntime.cpp, symObjAddr: 0x0, symBinAddr: 0x10001A464, symSize: 0x18 }
  - { offset: 0x4416E, size: 0x8, addend: 0x0, symName: ___llvm_profile_recursive_mkdir, symObjAddr: 0x0, symBinAddr: 0x10001A47C, symSize: 0x58 }
  - { offset: 0x44176, size: 0x8, addend: 0x0, symName: _lprofDirMode, symObjAddr: 0x5A8, symBinAddr: 0x10007D360, symSize: 0x0 }
  - { offset: 0x4418D, size: 0x8, addend: 0x0, symName: _lprofDirMode, symObjAddr: 0x5A8, symBinAddr: 0x10007D360, symSize: 0x0 }
  - { offset: 0x441C2, size: 0x8, addend: 0x0, symName: ___llvm_profile_recursive_mkdir, symObjAddr: 0x0, symBinAddr: 0x10001A47C, symSize: 0x58 }
  - { offset: 0x44242, size: 0x8, addend: 0x0, symName: _lprofGetHostName, symObjAddr: 0x70, symBinAddr: 0x10001A4D4, symSize: 0x80 }
  - { offset: 0x44378, size: 0x8, addend: 0x0, symName: _lprofLockFileHandle, symObjAddr: 0x208, symBinAddr: 0x10001A554, symSize: 0x90 }
  - { offset: 0x44380, size: 0x8, addend: 0x0, symName: _lprofUnlockFileHandle, symObjAddr: 0x298, symBinAddr: 0x10001A5E4, symSize: 0x90 }
  - { offset: 0x44409, size: 0x8, addend: 0x0, symName: _lprofUnlockFileHandle, symObjAddr: 0x298, symBinAddr: 0x10001A5E4, symSize: 0x90 }
  - { offset: 0x44411, size: 0x8, addend: 0x0, symName: _lprofOpenFileEx, symObjAddr: 0x328, symBinAddr: 0x10001A674, symSize: 0xD0 }
  - { offset: 0x44474, size: 0x8, addend: 0x0, symName: _lprofOpenFileEx, symObjAddr: 0x328, symBinAddr: 0x10001A674, symSize: 0xD0 }
  - { offset: 0x444EF, size: 0x8, addend: 0x0, symName: _lprofFindFirstDirSeparator, symObjAddr: 0x538, symBinAddr: 0x10001A744, symSize: 0x8 }
  - { offset: 0x4452F, size: 0x8, addend: 0x0, symName: _lprofSuspendSigKill, symObjAddr: 0x548, symBinAddr: 0x10001A74C, symSize: 0x8 }
  - { offset: 0x44537, size: 0x8, addend: 0x0, symName: _lprofRestoreSigKill, symObjAddr: 0x550, symBinAddr: 0x10001A754, symSize: 0x4 }
  - { offset: 0x44551, size: 0x8, addend: 0x0, symName: _lprofRestoreSigKill, symObjAddr: 0x550, symBinAddr: 0x10001A754, symSize: 0x4 }
  - { offset: 0x44804, size: 0x8, addend: 0x0, symName: _getValueProfRecordHeaderSize, symObjAddr: 0x0, symBinAddr: 0x10001A758, symSize: 0xC }
  - { offset: 0x44823, size: 0x8, addend: 0x0, symName: _VPMaxNumValsPerSite, symObjAddr: 0x1740, symBinAddr: 0x10007D368, symSize: 0x0 }
  - { offset: 0x448B9, size: 0x8, addend: 0x0, symName: __MergedGlobals, symObjAddr: 0xEF68, symBinAddr: 0x10007E018, symSize: 0x0 }
  - { offset: 0x448E0, size: 0x8, addend: 0x0, symName: __MergedGlobals, symObjAddr: 0xEF68, symBinAddr: 0x10007E018, symSize: 0x0 }
  - { offset: 0x448F7, size: 0x8, addend: 0x0, symName: __MergedGlobals, symObjAddr: 0xEF68, symBinAddr: 0x10007E018, symSize: 0x0 }
  - { offset: 0x44917, size: 0x8, addend: 0x0, symName: _TheVPDataReader, symObjAddr: 0x1748, symBinAddr: 0x10007D370, symSize: 0x0 }
  - { offset: 0x44BC0, size: 0x8, addend: 0x0, symName: _RTRecord, symObjAddr: 0xEF40, symBinAddr: 0x10007DFF0, symSize: 0x0 }
  - { offset: 0x44DBC, size: 0x8, addend: 0x0, symName: _getValueProfRecordHeaderSize, symObjAddr: 0x0, symBinAddr: 0x10001A758, symSize: 0xC }
  - { offset: 0x44E15, size: 0x8, addend: 0x0, symName: _getValueProfRecordValueData, symObjAddr: 0x1C, symBinAddr: 0x10001A764, symSize: 0x14 }
  - { offset: 0x44EC6, size: 0x8, addend: 0x0, symName: _getValueProfRecordNext, symObjAddr: 0x1B4, symBinAddr: 0x10001A778, symSize: 0x1A4 }
  - { offset: 0x44ECE, size: 0x8, addend: 0x0, symName: _getFirstValueProfRecord, symObjAddr: 0x358, symBinAddr: 0x10001A91C, symSize: 0x8 }
  - { offset: 0x44F3A, size: 0x8, addend: 0x0, symName: _getFirstValueProfRecord, symObjAddr: 0x358, symBinAddr: 0x10001A91C, symSize: 0x8 }
  - { offset: 0x4501E, size: 0x8, addend: 0x0, symName: _lprofSetupValueProfiler, symObjAddr: 0xB38, symBinAddr: 0x10001A924, symSize: 0x64 }
  - { offset: 0x45131, size: 0x8, addend: 0x0, symName: ___llvm_profile_instrument_target_value, symObjAddr: 0xE30, symBinAddr: 0x10001A988, symSize: 0x290 }
  - { offset: 0x45260, size: 0x8, addend: 0x0, symName: _lprofGetVPDataReader, symObjAddr: 0x1108, symBinAddr: 0x10001AC18, symSize: 0xC }
  - { offset: 0x45268, size: 0x8, addend: 0x0, symName: _initializeValueProfRuntimeRecord, symObjAddr: 0x1114, symBinAddr: 0x10001AC24, symSize: 0x210 }
  - { offset: 0x45282, size: 0x8, addend: 0x0, symName: _initializeValueProfRuntimeRecord, symObjAddr: 0x1114, symBinAddr: 0x10001AC24, symSize: 0x210 }
  - { offset: 0x4528A, size: 0x8, addend: 0x0, symName: _getNumValueDataForSiteWrapper, symObjAddr: 0x1324, symBinAddr: 0x10001AE34, symSize: 0x14 }
  - { offset: 0x453A5, size: 0x8, addend: 0x0, symName: _getNumValueDataForSiteWrapper, symObjAddr: 0x1324, symBinAddr: 0x10001AE34, symSize: 0x14 }
  - { offset: 0x453AD, size: 0x8, addend: 0x0, symName: _getValueProfDataSizeWrapper, symObjAddr: 0x1338, symBinAddr: 0x10001AE48, symSize: 0xDC }
  - { offset: 0x453EB, size: 0x8, addend: 0x0, symName: _getNumValueDataForSiteWrapper, symObjAddr: 0x1324, symBinAddr: 0x10001AE34, symSize: 0x14 }
  - { offset: 0x45413, size: 0x8, addend: 0x0, symName: _getValueProfDataSizeWrapper, symObjAddr: 0x1338, symBinAddr: 0x10001AE48, symSize: 0xDC }
  - { offset: 0x4541B, size: 0x8, addend: 0x0, symName: _getNextNValueData, symObjAddr: 0x1414, symBinAddr: 0x10001AF24, symSize: 0x44 }
  - { offset: 0x454BA, size: 0x8, addend: 0x0, symName: _getNextNValueData, symObjAddr: 0x1414, symBinAddr: 0x10001AF24, symSize: 0x44 }
  - { offset: 0x454C2, size: 0x8, addend: 0x0, symName: _getNumValueSitesRT, symObjAddr: 0x1458, symBinAddr: 0x10001AF68, symSize: 0x10 }
  - { offset: 0x45550, size: 0x8, addend: 0x0, symName: _getNumValueSitesRT, symObjAddr: 0x1458, symBinAddr: 0x10001AF68, symSize: 0x10 }
  - { offset: 0x45558, size: 0x8, addend: 0x0, symName: _getNumValueDataRT, symObjAddr: 0x1468, symBinAddr: 0x10001AF78, symSize: 0x190 }
  - { offset: 0x45593, size: 0x8, addend: 0x0, symName: _getNumValueDataRT, symObjAddr: 0x1468, symBinAddr: 0x10001AF78, symSize: 0x190 }
  - { offset: 0x45609, size: 0x8, addend: 0x0, symName: ___llvm_profile_instrument_target_value.cold.1, symObjAddr: 0x161C, symBinAddr: 0x10005861C, symSize: 0x24 }
  - { offset: 0x4569B, size: 0x8, addend: 0x0, symName: ___llvm_profile_raw_version, symObjAddr: 0x0, symBinAddr: 0x10007D3A0, symSize: 0x0 }
  - { offset: 0x456DD, size: 0x8, addend: 0x0, symName: _lprofBufferWriter, symObjAddr: 0x0, symBinAddr: 0x10001B108, symSize: 0x6C }
  - { offset: 0x456FC, size: 0x8, addend: 0x0, symName: _FreeHook, symObjAddr: 0x4F30, symBinAddr: 0x10007DE98, symSize: 0x0 }
  - { offset: 0x45722, size: 0x8, addend: 0x0, symName: _DynamicBufferIOBuffer, symObjAddr: 0x4F38, symBinAddr: 0x10007DEA0, symSize: 0x0 }
  - { offset: 0x45750, size: 0x8, addend: 0x0, symName: _VPBufferSize, symObjAddr: 0x4F40, symBinAddr: 0x10007DEA8, symSize: 0x0 }
  - { offset: 0x45777, size: 0x8, addend: 0x0, symName: __MergedGlobals, symObjAddr: 0x6F48, symBinAddr: 0x100080028, symSize: 0x0 }
  - { offset: 0x458C6, size: 0x8, addend: 0x0, symName: _BufferIOBuffer, symObjAddr: 0x4F48, symBinAddr: 0x10007E028, symSize: 0x0 }
  - { offset: 0x458F0, size: 0x8, addend: 0x0, symName: __MergedGlobals, symObjAddr: 0x6F48, symBinAddr: 0x100080028, symSize: 0x0 }
  - { offset: 0x4596E, size: 0x8, addend: 0x0, symName: _lprofBufferWriter, symObjAddr: 0x0, symBinAddr: 0x10001B108, symSize: 0x6C }
  - { offset: 0x45A8C, size: 0x8, addend: 0x0, symName: _lprofBufferIOWrite, symObjAddr: 0x100, symBinAddr: 0x10001B174, symSize: 0x134 }
  - { offset: 0x45B95, size: 0x8, addend: 0x0, symName: _lprofWriteData, symObjAddr: 0x2F4, symBinAddr: 0x10001B2A8, symSize: 0xD4 }
  - { offset: 0x45B9D, size: 0x8, addend: 0x0, symName: _lprofWriteDataImpl, symObjAddr: 0x3C8, symBinAddr: 0x10001B37C, symSize: 0x46C }
  - { offset: 0x45FCE, size: 0x8, addend: 0x0, symName: _lprofWriteDataImpl, symObjAddr: 0x3C8, symBinAddr: 0x10001B37C, symSize: 0x46C }
  - { offset: 0x46304, size: 0x8, addend: 0x0, symName: _writeOneValueProfData, symObjAddr: 0x8C0, symBinAddr: 0x10001B7E8, symSize: 0x4A8 }
  - { offset: 0x465CF, size: 0x8, addend: 0x0, symName: '__ZN108_$LT$alloc..collections..btree..map..Iter$LT$K$C$V$GT$$u20$as$u20$core..iter..traits..iterator..Iterator$GT$4next17h45e1d25cf43a5166E', symObjAddr: 0x0, symBinAddr: 0x10001BC90, symSize: 0x13C }
  - { offset: 0x469E5, size: 0x8, addend: 0x0, symName: '__ZN5alloc11collections5btree4node208Handle$LT$alloc..collections..btree..node..NodeRef$LT$alloc..collections..btree..node..marker..Mut$C$K$C$V$C$alloc..collections..btree..node..marker..Leaf$GT$$C$alloc..collections..btree..node..marker..KV$GT$5split17ha102f583f1ae45bdE', symObjAddr: 0xF314, symBinAddr: 0x10002880C, symSize: 0x1C8 }
  - { offset: 0x46EA3, size: 0x8, addend: 0x0, symName: '__ZN5alloc11collections5btree4node212Handle$LT$alloc..collections..btree..node..NodeRef$LT$alloc..collections..btree..node..marker..Mut$C$K$C$V$C$alloc..collections..btree..node..marker..Internal$GT$$C$alloc..collections..btree..node..marker..KV$GT$5split17he1631b8e3d135de0E', symObjAddr: 0xF950, symBinAddr: 0x1000289D4, symSize: 0x294 }
  - { offset: 0x475BC, size: 0x8, addend: 0x0, symName: '__ZN5alloc11collections5btree6remove259_$LT$impl$u20$alloc..collections..btree..node..Handle$LT$alloc..collections..btree..node..NodeRef$LT$alloc..collections..btree..node..marker..Mut$C$K$C$V$C$alloc..collections..btree..node..marker..Leaf$GT$$C$alloc..collections..btree..node..marker..KV$GT$$GT$14remove_leaf_kv17h6b3fb6c543c3f14fE', symObjAddr: 0x10904, symBinAddr: 0x1000293EC, symSize: 0x59C }
  - { offset: 0x48C6A, size: 0x8, addend: 0x0, symName: '__ZN5alloc11collections5btree4node29BalancingContext$LT$K$C$V$GT$15bulk_steal_left17h116648e9c1058487E', symObjAddr: 0xFBE4, symBinAddr: 0x100028C68, symSize: 0x284 }
  - { offset: 0x492BF, size: 0x8, addend: 0x0, symName: '__ZN5alloc11collections5btree4node29BalancingContext$LT$K$C$V$GT$16bulk_steal_right17h7dc2c295fb017210E', symObjAddr: 0xFE68, symBinAddr: 0x100028EEC, symSize: 0x2A8 }
  - { offset: 0x499F5, size: 0x8, addend: 0x0, symName: '__ZN5alloc11collections5btree4node29BalancingContext$LT$K$C$V$GT$8do_merge17h5a11588cadfa6da9E', symObjAddr: 0x10110, symBinAddr: 0x100029194, symSize: 0x258 }
  - { offset: 0x4A164, size: 0x8, addend: 0x0, symName: '__ZN108_$LT$alloc..collections..btree..map..Iter$LT$K$C$V$GT$$u20$as$u20$core..iter..traits..iterator..Iterator$GT$4next17h45e1d25cf43a5166E', symObjAddr: 0x0, symBinAddr: 0x10001BC90, symSize: 0x13C }
  - { offset: 0x4A4F7, size: 0x8, addend: 0x0, symName: '__ZN5alloc11collections5btree3map25BTreeMap$LT$K$C$V$C$A$GT$6insert17h4e30f42673c48afbE', symObjAddr: 0xD8AC, symBinAddr: 0x1000277C0, symSize: 0x9E0 }
  - { offset: 0x4BDE1, size: 0x8, addend: 0x0, symName: '__ZN5alloc11collections5btree3map25IntoIter$LT$K$C$V$C$A$GT$10dying_next17h1d88f957430bad1dE', symObjAddr: 0xECA8, symBinAddr: 0x1000281A0, symSize: 0x224 }
  - { offset: 0x4C1D0, size: 0x8, addend: 0x0, symName: '__ZN5alloc11collections5btree3map25IntoIter$LT$K$C$V$C$A$GT$10dying_next17h50da07c4ee930b47E', symObjAddr: 0xEECC, symBinAddr: 0x1000283C4, symSize: 0x224 }
  - { offset: 0x4C5BF, size: 0x8, addend: 0x0, symName: '__ZN5alloc11collections5btree3map25IntoIter$LT$K$C$V$C$A$GT$10dying_next17hfaa5a005d7e39d8eE', symObjAddr: 0xF0F0, symBinAddr: 0x1000285E8, symSize: 0x224 }
  - { offset: 0x4D50F, size: 0x8, addend: 0x0, symName: '__ZN5alloc7raw_vec19RawVec$LT$T$C$A$GT$8grow_one17h095dc4f4c91ff6b9E', symObjAddr: 0x114B8, symBinAddr: 0x100029D74, symSize: 0xD0 }
  - { offset: 0x4D665, size: 0x8, addend: 0x0, symName: '__ZN5alloc7raw_vec19RawVec$LT$T$C$A$GT$8grow_one17h3a19a4ab2b92359dE', symObjAddr: 0x11658, symBinAddr: 0x100029E44, symSize: 0xC0 }
  - { offset: 0x4D7BB, size: 0x8, addend: 0x0, symName: '__ZN5alloc7raw_vec19RawVec$LT$T$C$A$GT$8grow_one17h40071feec6bbd372E', symObjAddr: 0x11718, symBinAddr: 0x100029F04, symSize: 0xD0 }
  - { offset: 0x4D911, size: 0x8, addend: 0x0, symName: '__ZN5alloc7raw_vec19RawVec$LT$T$C$A$GT$8grow_one17h4a39c02819ac1667E', symObjAddr: 0x117E8, symBinAddr: 0x100029FD4, symSize: 0xD0 }
  - { offset: 0x4DA67, size: 0x8, addend: 0x0, symName: '__ZN5alloc7raw_vec19RawVec$LT$T$C$A$GT$8grow_one17h4a92fc1fe476e477E', symObjAddr: 0x118B8, symBinAddr: 0x10002A0A4, symSize: 0xC0 }
  - { offset: 0x4DBBD, size: 0x8, addend: 0x0, symName: '__ZN5alloc7raw_vec19RawVec$LT$T$C$A$GT$8grow_one17h4fe34a41a9b5eb13E', symObjAddr: 0x11978, symBinAddr: 0x10002A164, symSize: 0xC0 }
  - { offset: 0x4DD13, size: 0x8, addend: 0x0, symName: '__ZN5alloc7raw_vec19RawVec$LT$T$C$A$GT$8grow_one17h51ebdaf7922ccb0fE', symObjAddr: 0x11A38, symBinAddr: 0x10002A224, symSize: 0xD0 }
  - { offset: 0x4DE69, size: 0x8, addend: 0x0, symName: '__ZN5alloc7raw_vec19RawVec$LT$T$C$A$GT$8grow_one17h5fa1addd75b9c473E', symObjAddr: 0x11B08, symBinAddr: 0x10002A2F4, symSize: 0xC0 }
  - { offset: 0x4DFBF, size: 0x8, addend: 0x0, symName: '__ZN5alloc7raw_vec19RawVec$LT$T$C$A$GT$8grow_one17h86dfd012ac0923eeE', symObjAddr: 0x11BC8, symBinAddr: 0x10002A3B4, symSize: 0xCC }
  - { offset: 0x4E115, size: 0x8, addend: 0x0, symName: '__ZN5alloc7raw_vec19RawVec$LT$T$C$A$GT$8grow_one17h94e52b7d38af74feE', symObjAddr: 0x11C94, symBinAddr: 0x10002A480, symSize: 0xCC }
  - { offset: 0x4E26B, size: 0x8, addend: 0x0, symName: '__ZN5alloc7raw_vec19RawVec$LT$T$C$A$GT$8grow_one17hbaffb1ea2421dae5E', symObjAddr: 0x11D60, symBinAddr: 0x10002A54C, symSize: 0xCC }
  - { offset: 0x4EB21, size: 0x8, addend: 0x0, symName: __ZN5alloc7raw_vec11finish_grow17hd37f20dcfa74548bE, symObjAddr: 0x11430, symBinAddr: 0x1000587EC, symSize: 0x88 }
  - { offset: 0x4EBBC, size: 0x8, addend: 0x0, symName: '__ZN5alloc7raw_vec20RawVecInner$LT$A$GT$7reserve21do_reserve_and_handle17h59c9ec03f2a10329E', symObjAddr: 0x11E2C, symBinAddr: 0x100058874, symSize: 0xF0 }
  - { offset: 0x5023E, size: 0x8, addend: 0x0, symName: '__ZN5alloc4sync16Arc$LT$T$C$A$GT$9drop_slow17h382cff577ce4ab40E', symObjAddr: 0x10FD0, symBinAddr: 0x100029988, symSize: 0x100 }
  - { offset: 0x5056E, size: 0x8, addend: 0x0, symName: '__ZN5alloc4sync16Arc$LT$T$C$A$GT$9drop_slow17h5608352b196d8cb3E', symObjAddr: 0x110D0, symBinAddr: 0x100029A88, symSize: 0xA0 }
  - { offset: 0x50892, size: 0x8, addend: 0x0, symName: '__ZN5alloc4sync16Arc$LT$T$C$A$GT$9drop_slow17h5ede859a095ca78aE', symObjAddr: 0x111E4, symBinAddr: 0x100029B28, symSize: 0x78 }
  - { offset: 0x50A5E, size: 0x8, addend: 0x0, symName: '__ZN5alloc4sync16Arc$LT$T$C$A$GT$9drop_slow17h7cf1d5f987884bcfE', symObjAddr: 0x1125C, symBinAddr: 0x100029BA0, symSize: 0xC0 }
  - { offset: 0x50D83, size: 0x8, addend: 0x0, symName: '__ZN5alloc4sync16Arc$LT$T$C$A$GT$9drop_slow17h90e2e762cfbfaa1eE', symObjAddr: 0x1131C, symBinAddr: 0x100029C60, symSize: 0x44 }
  - { offset: 0x50E60, size: 0x8, addend: 0x0, symName: '__ZN5alloc4sync16Arc$LT$T$C$A$GT$9drop_slow17h9659d3e2cd59fce8E', symObjAddr: 0x11360, symBinAddr: 0x100029CA4, symSize: 0xD0 }
  - { offset: 0x513D6, size: 0x8, addend: 0x0, symName: '__ZN64_$LT$alloc..ffi..c_str..NulError$u20$as$u20$core..fmt..Debug$GT$3fmt17h18ce3d950e35fa91E', symObjAddr: 0x18D64, symBinAddr: 0x100031460, symSize: 0x4C }
  - { offset: 0x518AF, size: 0x8, addend: 0x0, symName: '__ZN58_$LT$alloc..string..String$u20$as$u20$core..fmt..Debug$GT$3fmt17hdbacb71d50eff926E', symObjAddr: 0xD6B8, symBinAddr: 0x1000275CC, symSize: 0x1C }
  - { offset: 0x5196A, size: 0x8, addend: 0x0, symName: '__ZN58_$LT$alloc..string..String$u20$as$u20$core..fmt..Write$GT$10write_char17h67c485e816708459E', symObjAddr: 0xD6D4, symBinAddr: 0x1000275E8, symSize: 0x158 }
  - { offset: 0x51BCF, size: 0x8, addend: 0x0, symName: '__ZN58_$LT$alloc..string..String$u20$as$u20$core..fmt..Write$GT$9write_str17h4bc2793cacc1d696E', symObjAddr: 0xD82C, symBinAddr: 0x100027740, symSize: 0x80 }
  - { offset: 0x51D28, size: 0x8, addend: 0x0, symName: '__ZN60_$LT$alloc..string..String$u20$as$u20$core..fmt..Display$GT$3fmt17ha0099383a97e68c2E', symObjAddr: 0x18D48, symBinAddr: 0x100031444, symSize: 0x1C }
  - { offset: 0x535D1, size: 0x8, addend: 0x0, symName: '__ZN4core3ptr107drop_in_place$LT$alloc..vec..Vec$LT$$LP$std..ffi..os_str..OsString$C$std..ffi..os_str..OsString$RP$$GT$$GT$17h6612d33457a8ea03E', symObjAddr: 0x1AE4, symBinAddr: 0x10001C96C, symSize: 0x94 }
  - { offset: 0x53858, size: 0x8, addend: 0x0, symName: '__ZN4core3ptr107drop_in_place$LT$core..option..Option$LT$std..sys..pal..unix..process..process_common..CStringArray$GT$$GT$17hf3f42dd5b05d3cc1E', symObjAddr: 0x1C04, symBinAddr: 0x10001CA00, symSize: 0xAC }
  - { offset: 0x53A69, size: 0x8, addend: 0x0, symName: '__ZN4core3ptr107drop_in_place$LT$core..pin..Pin$LT$alloc..boxed..Box$LT$std..sys..pal..unix..sync..mutex..Mutex$GT$$GT$$GT$17hc07c140671e79445E', symObjAddr: 0x1CB0, symBinAddr: 0x10001CAAC, symSize: 0x2C }
  - { offset: 0x53B62, size: 0x8, addend: 0x0, symName: '__ZN4core3ptr108drop_in_place$LT$alloc..collections..btree..map..BTreeMap$LT$u64$C$gimli..read..abbrev..Abbreviation$GT$$GT$17haa74a0211d9ed923E', symObjAddr: 0x1CDC, symBinAddr: 0x10001CAD8, symSize: 0xB0 }
  - { offset: 0x53D35, size: 0x8, addend: 0x0, symName: '__ZN4core3ptr109drop_in_place$LT$alloc..sync..Arc$LT$std..sync..poison..mutex..Mutex$LT$alloc..vec..Vec$LT$u8$GT$$GT$$GT$$GT$17h61b1cac8a1fede90E', symObjAddr: 0x1D8C, symBinAddr: 0x10001CB88, symSize: 0x30 }
  - { offset: 0x53DD8, size: 0x8, addend: 0x0, symName: '__ZN4core3ptr118drop_in_place$LT$std..io..Write..write_fmt..Adapter$LT$std..io..cursor..Cursor$LT$$RF$mut$u20$$u5b$u8$u5d$$GT$$GT$$GT$17h5c63d0c0bee45058E', symObjAddr: 0x1E54, symBinAddr: 0x10001CBB8, symSize: 0x20 }
  - { offset: 0x53E10, size: 0x8, addend: 0x0, symName: '__ZN4core3ptr123drop_in_place$LT$addr2line..Context$LT$gimli..read..endian_slice..EndianSlice$LT$gimli..endianity..LittleEndian$GT$$GT$$GT$17hc6d5be859abd218dE', symObjAddr: 0x1E74, symBinAddr: 0x10001CBD8, symSize: 0x70 }
  - { offset: 0x53EE5, size: 0x8, addend: 0x0, symName: '__ZN4core3ptr124drop_in_place$LT$alloc..collections..btree..map..BTreeMap$LT$std..ffi..os_str..OsString$C$std..ffi..os_str..OsString$GT$$GT$17hc9840ba1a16bc149E', symObjAddr: 0x1EE4, symBinAddr: 0x10001CC48, symSize: 0xB8 }
  - { offset: 0x54118, size: 0x8, addend: 0x0, symName: '__ZN4core3ptr124drop_in_place$LT$alloc..collections..btree..map..IntoIter$LT$std..ffi..os_str..OsString$C$std..ffi..os_str..OsString$GT$$GT$17h1e45a95309140dfeE', symObjAddr: 0x1F9C, symBinAddr: 0x10001CD00, symSize: 0x90 }
  - { offset: 0x5439F, size: 0x8, addend: 0x0, symName: '__ZN4core3ptr129drop_in_place$LT$addr2line..unit..ResUnit$LT$gimli..read..endian_slice..EndianSlice$LT$gimli..endianity..LittleEndian$GT$$GT$$GT$17h3200663a94d9b140E', symObjAddr: 0x202C, symBinAddr: 0x10001CD90, symSize: 0xE4 }
  - { offset: 0x545C1, size: 0x8, addend: 0x0, symName: '__ZN4core3ptr129drop_in_place$LT$addr2line..unit..SupUnit$LT$gimli..read..endian_slice..EndianSlice$LT$gimli..endianity..LittleEndian$GT$$GT$$GT$17hea048140b03f01afE', symObjAddr: 0x2110, symBinAddr: 0x10001CE74, symSize: 0x54 }
  - { offset: 0x5469C, size: 0x8, addend: 0x0, symName: '__ZN4core3ptr130drop_in_place$LT$addr2line..unit..ResUnits$LT$gimli..read..endian_slice..EndianSlice$LT$gimli..endianity..LittleEndian$GT$$GT$$GT$17he56c193886414dbaE', symObjAddr: 0x2164, symBinAddr: 0x10001CEC8, symSize: 0xD0 }
  - { offset: 0x54845, size: 0x8, addend: 0x0, symName: '__ZN4core3ptr130drop_in_place$LT$addr2line..unit..SupUnits$LT$gimli..read..endian_slice..EndianSlice$LT$gimli..endianity..LittleEndian$GT$$GT$$GT$17h74d4d2bc946c0774E', symObjAddr: 0x2234, symBinAddr: 0x10001CF98, symSize: 0xE4 }
  - { offset: 0x54A03, size: 0x8, addend: 0x0, symName: '__ZN4core3ptr130drop_in_place$LT$gimli..read..dwarf..Dwarf$LT$gimli..read..endian_slice..EndianSlice$LT$gimli..endianity..LittleEndian$GT$$GT$$GT$17h733659cc5e33a4cbE', symObjAddr: 0x2318, symBinAddr: 0x10001D07C, symSize: 0x58 }
  - { offset: 0x54AD1, size: 0x8, addend: 0x0, symName: '__ZN4core3ptr131drop_in_place$LT$$u5b$core..option..Option$LT$core..option..Option$LT$std..backtrace_rs..symbolize..gimli..Mapping$GT$$GT$$u5d$$GT$17h1b55ae3732cae68aE', symObjAddr: 0x2370, symBinAddr: 0x10001D0D4, symSize: 0xCC }
  - { offset: 0x54B7B, size: 0x8, addend: 0x0, symName: '__ZN4core3ptr137drop_in_place$LT$gimli..read..dwarf..Unit$LT$gimli..read..endian_slice..EndianSlice$LT$gimli..endianity..LittleEndian$GT$$C$usize$GT$$GT$17h90351d6bab11b82cE', symObjAddr: 0x2500, symBinAddr: 0x10001D1A0, symSize: 0x54 }
  - { offset: 0x54C78, size: 0x8, addend: 0x0, symName: '__ZN4core3ptr138drop_in_place$LT$addr2line..function..LazyFunction$LT$gimli..read..endian_slice..EndianSlice$LT$gimli..endianity..LittleEndian$GT$$GT$$GT$17h0f9458c797bd90e9E', symObjAddr: 0x2554, symBinAddr: 0x10001D1F4, symSize: 0x64 }
  - { offset: 0x54C8F, size: 0x8, addend: 0x0, symName: '__ZN4core3ptr138drop_in_place$LT$addr2line..function..LazyFunction$LT$gimli..read..endian_slice..EndianSlice$LT$gimli..endianity..LittleEndian$GT$$GT$$GT$17h0f9458c797bd90e9E', symObjAddr: 0x2554, symBinAddr: 0x10001D1F4, symSize: 0x64 }
  - { offset: 0x54CA4, size: 0x8, addend: 0x0, symName: '__ZN4core3ptr138drop_in_place$LT$addr2line..function..LazyFunction$LT$gimli..read..endian_slice..EndianSlice$LT$gimli..endianity..LittleEndian$GT$$GT$$GT$17h0f9458c797bd90e9E', symObjAddr: 0x2554, symBinAddr: 0x10001D1F4, symSize: 0x64 }
  - { offset: 0x54CB9, size: 0x8, addend: 0x0, symName: '__ZN4core3ptr138drop_in_place$LT$addr2line..function..LazyFunction$LT$gimli..read..endian_slice..EndianSlice$LT$gimli..endianity..LittleEndian$GT$$GT$$GT$17h0f9458c797bd90e9E', symObjAddr: 0x2554, symBinAddr: 0x10001D1F4, symSize: 0x64 }
  - { offset: 0x54DFB, size: 0x8, addend: 0x0, symName: '__ZN4core3ptr144drop_in_place$LT$alloc..vec..Vec$LT$core..option..Option$LT$core..option..Option$LT$std..backtrace_rs..symbolize..gimli..Mapping$GT$$GT$$GT$$GT$17hd5b41028903956eeE', symObjAddr: 0x25B8, symBinAddr: 0x10001D258, symSize: 0x78 }
  - { offset: 0x54F63, size: 0x8, addend: 0x0, symName: '__ZN4core3ptr152drop_in_place$LT$alloc..vec..Vec$LT$addr2line..unit..ResUnit$LT$gimli..read..endian_slice..EndianSlice$LT$gimli..endianity..LittleEndian$GT$$GT$$GT$$GT$17hdd35552c1680b2ebE', symObjAddr: 0x26FC, symBinAddr: 0x10001D2D0, symSize: 0xC4 }
  - { offset: 0x550D2, size: 0x8, addend: 0x0, symName: '__ZN4core3ptr152drop_in_place$LT$alloc..vec..Vec$LT$addr2line..unit..SupUnit$LT$gimli..read..endian_slice..EndianSlice$LT$gimli..endianity..LittleEndian$GT$$GT$$GT$$GT$17h6431a2f92897bef0E', symObjAddr: 0x27C0, symBinAddr: 0x10001D394, symSize: 0xF4 }
  - { offset: 0x552EA, size: 0x8, addend: 0x0, symName: '__ZN4core3ptr156drop_in_place$LT$alloc..boxed..Box$LT$$u5b$core..option..Option$LT$core..option..Option$LT$std..backtrace_rs..symbolize..gimli..Mapping$GT$$GT$$u5d$$GT$$GT$17h61627ecd782bd92dE', symObjAddr: 0x28B4, symBinAddr: 0x10001D488, symSize: 0xF8 }
  - { offset: 0x55414, size: 0x8, addend: 0x0, symName: '__ZN4core3ptr159drop_in_place$LT$alloc..sync..ArcInner$LT$gimli..read..dwarf..Dwarf$LT$gimli..read..endian_slice..EndianSlice$LT$gimli..endianity..LittleEndian$GT$$GT$$GT$$GT$17h71c073e2ea863d36E', symObjAddr: 0x29AC, symBinAddr: 0x10001D580, symSize: 0x58 }
  - { offset: 0x554F1, size: 0x8, addend: 0x0, symName: '__ZN4core3ptr161drop_in_place$LT$alloc..vec..Vec$LT$addr2line..function..LazyFunction$LT$gimli..read..endian_slice..EndianSlice$LT$gimli..endianity..LittleEndian$GT$$GT$$GT$$GT$17h938f97b5a308fc3cE', symObjAddr: 0x2A04, symBinAddr: 0x10001D5D8, symSize: 0xAC }
  - { offset: 0x5572E, size: 0x8, addend: 0x0, symName: '__ZN4core3ptr172drop_in_place$LT$core..result..Result$LT$addr2line..Context$LT$gimli..read..endian_slice..EndianSlice$LT$gimli..endianity..LittleEndian$GT$$GT$$C$gimli..read..Error$GT$$GT$17h8205db00afecd676E', symObjAddr: 0x2B5C, symBinAddr: 0x10001D684, symSize: 0x80 }
  - { offset: 0x557C3, size: 0x8, addend: 0x0, symName: '__ZN4core3ptr173drop_in_place$LT$alloc..boxed..Box$LT$$u5b$addr2line..function..LazyFunction$LT$gimli..read..endian_slice..EndianSlice$LT$gimli..endianity..LittleEndian$GT$$GT$$u5d$$GT$$GT$17h141b901e37828fa3E', symObjAddr: 0x2BDC, symBinAddr: 0x10001D704, symSize: 0x9C }
  - { offset: 0x557DA, size: 0x8, addend: 0x0, symName: '__ZN4core3ptr173drop_in_place$LT$alloc..boxed..Box$LT$$u5b$addr2line..function..LazyFunction$LT$gimli..read..endian_slice..EndianSlice$LT$gimli..endianity..LittleEndian$GT$$GT$$u5d$$GT$$GT$17h141b901e37828fa3E', symObjAddr: 0x2BDC, symBinAddr: 0x10001D704, symSize: 0x9C }
  - { offset: 0x55A1F, size: 0x8, addend: 0x0, symName: '__ZN4core3ptr181drop_in_place$LT$core..option..Option$LT$gimli..read..line..IncompleteLineProgram$LT$gimli..read..endian_slice..EndianSlice$LT$gimli..endianity..LittleEndian$GT$$C$usize$GT$$GT$$GT$17h0ce7bfce5e4abb6bE', symObjAddr: 0x2CE8, symBinAddr: 0x10001D7A0, symSize: 0x98 }
  - { offset: 0x55CDA, size: 0x8, addend: 0x0, symName: '__ZN4core3ptr181drop_in_place$LT$core..result..Result$LT$addr2line..frame..FrameIter$LT$gimli..read..endian_slice..EndianSlice$LT$gimli..endianity..LittleEndian$GT$$GT$$C$gimli..read..Error$GT$$GT$17hc32763af75cf70e4E', symObjAddr: 0x2D80, symBinAddr: 0x10001D838, symSize: 0x44 }
  - { offset: 0x55E18, size: 0x8, addend: 0x0, symName: '__ZN4core3ptr184drop_in_place$LT$core..result..Result$LT$addr2line..function..Functions$LT$gimli..read..endian_slice..EndianSlice$LT$gimli..endianity..LittleEndian$GT$$GT$$C$gimli..read..Error$GT$$GT$17hae974801a783d12aE', symObjAddr: 0x2DC4, symBinAddr: 0x10001D87C, symSize: 0xD8 }
  - { offset: 0x56911, size: 0x8, addend: 0x0, symName: '__ZN4core3ptr223drop_in_place$LT$std..sys..thread_local..native..lazy..State$LT$core..cell..Cell$LT$core..option..Option$LT$alloc..sync..Arc$LT$std..sync..poison..mutex..Mutex$LT$alloc..vec..Vec$LT$u8$GT$$GT$$GT$$GT$$GT$$C$$LP$$RP$$GT$$GT$17h8e1dbbdc8aa6e2b2E', symObjAddr: 0x2F10, symBinAddr: 0x10001D954, symSize: 0x40 }
  - { offset: 0x569FD, size: 0x8, addend: 0x0, symName: '__ZN4core3ptr231drop_in_place$LT$core..result..Result$LT$core..option..Option$LT$alloc..boxed..Box$LT$addr2line..unit..DwoUnit$LT$gimli..read..endian_slice..EndianSlice$LT$gimli..endianity..LittleEndian$GT$$GT$$GT$$GT$$C$gimli..read..Error$GT$$GT$17h48abe14940fae1d7E', symObjAddr: 0x2F50, symBinAddr: 0x10001D994, symSize: 0xD4 }
  - { offset: 0x56BE6, size: 0x8, addend: 0x0, symName: '__ZN4core3ptr275drop_in_place$LT$gimli..read..line..LineRows$LT$gimli..read..endian_slice..EndianSlice$LT$gimli..endianity..LittleEndian$GT$$C$gimli..read..line..IncompleteLineProgram$LT$gimli..read..endian_slice..EndianSlice$LT$gimli..endianity..LittleEndian$GT$$C$usize$GT$$C$usize$GT$$GT$17h1fb49ddc3575d792E', symObjAddr: 0x304C, symBinAddr: 0x10001DA68, symSize: 0x8C }
  - { offset: 0x56E5B, size: 0x8, addend: 0x0, symName: '__ZN4core3ptr280drop_in_place$LT$$LT$alloc..collections..btree..map..IntoIter$LT$K$C$V$C$A$GT$$u20$as$u20$core..ops..drop..Drop$GT$..drop..DropGuard$LT$u64$C$core..result..Result$LT$alloc..sync..Arc$LT$gimli..read..abbrev..Abbreviations$GT$$C$gimli..read..Error$GT$$C$alloc..alloc..Global$GT$$GT$17h412edb4cf40f508aE', symObjAddr: 0x30D8, symBinAddr: 0x10001DAF4, symSize: 0x84 }
  - { offset: 0x56FFE, size: 0x8, addend: 0x0, symName: '__ZN4core3ptr37drop_in_place$LT$std..env..VarsOs$GT$17h8833fb9321bef3f6E', symObjAddr: 0x315C, symBinAddr: 0x10001DB78, symSize: 0xAC }
  - { offset: 0x57319, size: 0x8, addend: 0x0, symName: '__ZN4core3ptr42drop_in_place$LT$alloc..string..String$GT$17h49e49416d7fc736bE', symObjAddr: 0x3330, symBinAddr: 0x10001DC24, symSize: 0x28 }
  - { offset: 0x573F4, size: 0x8, addend: 0x0, symName: '__ZN4core3ptr42drop_in_place$LT$std..io..error..Error$GT$17h2076e24185186a1eE', symObjAddr: 0x3358, symBinAddr: 0x10001DC4C, symSize: 0xAC }
  - { offset: 0x5760E, size: 0x8, addend: 0x0, symName: '__ZN4core3ptr44drop_in_place$LT$object..read..ObjectMap$GT$17hefa7b8970618855fE', symObjAddr: 0x3404, symBinAddr: 0x10001DCF8, symSize: 0x58 }
  - { offset: 0x5773D, size: 0x8, addend: 0x0, symName: '__ZN4core3ptr46drop_in_place$LT$alloc..vec..Vec$LT$u8$GT$$GT$17he05f3434a0e55321E', symObjAddr: 0x350C, symBinAddr: 0x10001DD50, symSize: 0x28 }
  - { offset: 0x577CA, size: 0x8, addend: 0x0, symName: '__ZN4core3ptr46drop_in_place$LT$std..io..stdio..StdinLock$GT$17h7f23f0068af34be6E', symObjAddr: 0x3534, symBinAddr: 0x10001DD78, symSize: 0x54 }
  - { offset: 0x577E1, size: 0x8, addend: 0x0, symName: '__ZN4core3ptr46drop_in_place$LT$std..io..stdio..StdinLock$GT$17h7f23f0068af34be6E', symObjAddr: 0x3534, symBinAddr: 0x10001DD78, symSize: 0x54 }
  - { offset: 0x577F6, size: 0x8, addend: 0x0, symName: '__ZN4core3ptr46drop_in_place$LT$std..io..stdio..StdinLock$GT$17h7f23f0068af34be6E', symObjAddr: 0x3534, symBinAddr: 0x10001DD78, symSize: 0x54 }
  - { offset: 0x578DA, size: 0x8, addend: 0x0, symName: '__ZN4core3ptr48drop_in_place$LT$alloc..ffi..c_str..NulError$GT$17hf807e8c3d992613aE', symObjAddr: 0x35E0, symBinAddr: 0x10001DDCC, symSize: 0x28 }
  - { offset: 0x57999, size: 0x8, addend: 0x0, symName: '__ZN4core3ptr55drop_in_place$LT$gimli..read..abbrev..Abbreviations$GT$17h5028fd7f23a66a5dE', symObjAddr: 0x38D4, symBinAddr: 0x10001DDF4, symSize: 0x84 }
  - { offset: 0x57B54, size: 0x8, addend: 0x0, symName: '__ZN4core3ptr60drop_in_place$LT$gimli..read..abbrev..AbbreviationsCache$GT$17h109635aebb38ad94E', symObjAddr: 0x39E8, symBinAddr: 0x10001DE78, symSize: 0xCC }
  - { offset: 0x57D16, size: 0x8, addend: 0x0, symName: '__ZN4core3ptr62drop_in_place$LT$std..sys..sync..rwlock..queue..PanicGuard$GT$17ha6ff6fed8f58b75aE', symObjAddr: 0x3AB4, symBinAddr: 0x10001DF44, symSize: 0x44 }
  - { offset: 0x57D5D, size: 0x8, addend: 0x0, symName: '__ZN4core3ptr64drop_in_place$LT$std..sys..pal..unix..sync..mutex..AttrGuard$GT$17hfae1c338ebc17455E', symObjAddr: 0x3AF8, symBinAddr: 0x10001DF88, symSize: 0x48 }
  - { offset: 0x57D9C, size: 0x8, addend: 0x0, symName: '__ZN4core3ptr65drop_in_place$LT$alloc..vec..Vec$LT$alloc..string..String$GT$$GT$17h0e8d3320a68b6c20E', symObjAddr: 0x3B40, symBinAddr: 0x10001DFD0, symSize: 0x80 }
  - { offset: 0x57F3A, size: 0x8, addend: 0x0, symName: '__ZN4core3ptr65drop_in_place$LT$std..backtrace_rs..symbolize..gimli..Context$GT$17he1a9681aa2b789c5E', symObjAddr: 0x3BC0, symBinAddr: 0x10001E050, symSize: 0xE8 }
  - { offset: 0x581CC, size: 0x8, addend: 0x0, symName: '__ZN4core3ptr65drop_in_place$LT$std..backtrace_rs..symbolize..gimli..Mapping$GT$17h1ad26fdf3d4d883aE', symObjAddr: 0x3CA8, symBinAddr: 0x10001E138, symSize: 0x50 }
  - { offset: 0x58237, size: 0x8, addend: 0x0, symName: '__ZN4core3ptr66drop_in_place$LT$std..backtrace_rs..backtrace..libunwind..Bomb$GT$17hcf55bbc6e2408f91E', symObjAddr: 0x3D50, symBinAddr: 0x10001E188, symSize: 0x40 }
  - { offset: 0x58275, size: 0x8, addend: 0x0, symName: '__ZN4core3ptr70drop_in_place$LT$alloc..vec..Vec$LT$alloc..ffi..c_str..CString$GT$$GT$17hfd0a4040cac87084E', symObjAddr: 0x3D90, symBinAddr: 0x10001E1C8, symSize: 0x7C }
  - { offset: 0x58428, size: 0x8, addend: 0x0, symName: '__ZN4core3ptr70drop_in_place$LT$std..backtrace_rs..symbolize..gimli..stash..Stash$GT$17h823b9ed5294710a1E', symObjAddr: 0x3E8C, symBinAddr: 0x10001E244, symSize: 0xB8 }
  - { offset: 0x586CE, size: 0x8, addend: 0x0, symName: '__ZN4core3ptr71drop_in_place$LT$std..backtrace_rs..symbolize..gimli..macho..Object$GT$17h7d766a5d50e6fcdbE', symObjAddr: 0x3F44, symBinAddr: 0x10001E2FC, symSize: 0xD8 }
  - { offset: 0x589A1, size: 0x8, addend: 0x0, symName: '__ZN4core3ptr72drop_in_place$LT$core..option..Option$LT$object..read..ObjectMap$GT$$GT$17hc34cda9cf8984625E', symObjAddr: 0x4088, symBinAddr: 0x10001E3D4, symSize: 0x64 }
  - { offset: 0x58B1E, size: 0x8, addend: 0x0, symName: '__ZN4core3ptr73drop_in_place$LT$alloc..vec..Vec$LT$addr2line..line..LineSequence$GT$$GT$17h0feaef6467c5bb06E', symObjAddr: 0x40EC, symBinAddr: 0x10001E438, symSize: 0x84 }
  - { offset: 0x58C76, size: 0x8, addend: 0x0, symName: '__ZN4core3ptr77drop_in_place$LT$alloc..boxed..Box$LT$$u5b$alloc..string..String$u5d$$GT$$GT$17h8657c1556d878703E', symObjAddr: 0x41C8, symBinAddr: 0x10001E4BC, symSize: 0x70 }
  - { offset: 0x58C8D, size: 0x8, addend: 0x0, symName: '__ZN4core3ptr77drop_in_place$LT$alloc..boxed..Box$LT$$u5b$alloc..string..String$u5d$$GT$$GT$17h8657c1556d878703E', symObjAddr: 0x41C8, symBinAddr: 0x10001E4BC, symSize: 0x70 }
  - { offset: 0x58D99, size: 0x8, addend: 0x0, symName: '__ZN4core3ptr77drop_in_place$LT$std..panicking..begin_panic_handler..FormatStringPayload$GT$17h1141e34cc3e1cd8cE', symObjAddr: 0x4238, symBinAddr: 0x10001E52C, symSize: 0x34 }
  - { offset: 0x58E63, size: 0x8, addend: 0x0, symName: '__ZN4core3ptr77drop_in_place$LT$std..sys..pal..unix..process..process_common..ChildPipes$GT$17h620614c70ca5ad33E', symObjAddr: 0x426C, symBinAddr: 0x10001E560, symSize: 0x78 }
  - { offset: 0x58F73, size: 0x8, addend: 0x0, symName: '__ZN4core3ptr77drop_in_place$LT$std..sys..pal..unix..process..process_common..StdioPipes$GT$17ha094cdbd3e642bc1E', symObjAddr: 0x42E4, symBinAddr: 0x10001E5D8, symSize: 0x54 }
  - { offset: 0x590CF, size: 0x8, addend: 0x0, symName: '__ZN4core3ptr78drop_in_place$LT$core..result..Result$LT$usize$C$std..io..error..Error$GT$$GT$17h31f04dfac34de6cfE', symObjAddr: 0x4338, symBinAddr: 0x10001E62C, symSize: 0x24 }
  - { offset: 0x590E3, size: 0x8, addend: 0x0, symName: '__ZN4core3ptr79drop_in_place$LT$std..sync..poison..rwlock..RwLockReadGuard$LT$$LP$$RP$$GT$$GT$17h3c7acdfaefb6864dE', symObjAddr: 0x435C, symBinAddr: 0x10001E650, symSize: 0x68 }
  - { offset: 0x5917F, size: 0x8, addend: 0x0, symName: '__ZN4core3ptr79drop_in_place$LT$std..sys..pal..unix..process..process_common..CStringArray$GT$17h6aeb88f15641d3f5E', symObjAddr: 0x43C4, symBinAddr: 0x10001E6B8, symSize: 0x94 }
  - { offset: 0x5935E, size: 0x8, addend: 0x0, symName: '__ZN4core3ptr81drop_in_place$LT$$LP$usize$C$std..backtrace_rs..symbolize..gimli..Mapping$RP$$GT$17h0fc60d1e178e2af3E', symObjAddr: 0x4458, symBinAddr: 0x10001E74C, symSize: 0x54 }
  - { offset: 0x593DF, size: 0x8, addend: 0x0, symName: '__ZN4core3ptr81drop_in_place$LT$core..result..Result$LT$$LP$$RP$$C$std..io..error..Error$GT$$GT$17h32d66e7d6b4290f9E', symObjAddr: 0x44AC, symBinAddr: 0x10001E7A0, symSize: 0x20 }
  - { offset: 0x593F3, size: 0x8, addend: 0x0, symName: '__ZN4core3ptr84drop_in_place$LT$$LP$std..ffi..os_str..OsString$C$std..ffi..os_str..OsString$RP$$GT$17hce73656bd67f13b5E', symObjAddr: 0x4510, symBinAddr: 0x10001E7C0, symSize: 0x4C }
  - { offset: 0x5954E, size: 0x8, addend: 0x0, symName: '__ZN4core3ptr84drop_in_place$LT$alloc..sync..ArcInner$LT$gimli..read..abbrev..Abbreviations$GT$$GT$17hc1742a6ee5f4f5c4E', symObjAddr: 0x455C, symBinAddr: 0x10001E80C, symSize: 0x84 }
  - { offset: 0x59718, size: 0x8, addend: 0x0, symName: '__ZN4core3ptr87drop_in_place$LT$alloc..sync..ArcInner$LT$std..sys..pal..unix..fs..InnerReadDir$GT$$GT$17h22f7f5fc9c3aa8bdE', symObjAddr: 0x45E0, symBinAddr: 0x10001E890, symSize: 0x60 }
  - { offset: 0x59901, size: 0x8, addend: 0x0, symName: '__ZN4core3ptr88drop_in_place$LT$alloc..vec..Vec$LT$std..backtrace_rs..symbolize..gimli..Library$GT$$GT$17heda6be67225cff8cE', symObjAddr: 0x4674, symBinAddr: 0x10001E8F0, symSize: 0x98 }
  - { offset: 0x59B17, size: 0x8, addend: 0x0, symName: '__ZN4core3ptr90drop_in_place$LT$std..io..buffered..bufwriter..BufWriter$LT$W$GT$..flush_buf..BufGuard$GT$17h18eab3e558793eacE', symObjAddr: 0x470C, symBinAddr: 0x10001E988, symSize: 0x60 }
  - { offset: 0x59CD8, size: 0x8, addend: 0x0, symName: '__ZN4core3ptr92drop_in_place$LT$core..result..Result$LT$addr2line..line..Lines$C$gimli..read..Error$GT$$GT$17h75873180c89d56d0E', symObjAddr: 0x47E8, symBinAddr: 0x10001E9E8, symSize: 0xE4 }
  - { offset: 0x59F1E, size: 0x8, addend: 0x0, symName: '__ZN4core3ptr93drop_in_place$LT$core..option..Option$LT$std..backtrace_rs..symbolize..gimli..Mapping$GT$$GT$17h8ea9f8655928f4fcE', symObjAddr: 0x48CC, symBinAddr: 0x10001EACC, symSize: 0x6C }
  - { offset: 0x59FBB, size: 0x8, addend: 0x0, symName: '__ZN4core3ptr95drop_in_place$LT$core..option..IntoIter$LT$std..backtrace_rs..symbolize..gimli..Library$GT$$GT$17he46fad7f279ea952E', symObjAddr: 0x4938, symBinAddr: 0x10001EB38, symSize: 0x5C }
  - { offset: 0x59FD9, size: 0x8, addend: 0x0, symName: '__ZN4core3ptr95drop_in_place$LT$core..option..IntoIter$LT$std..backtrace_rs..symbolize..gimli..Library$GT$$GT$17he46fad7f279ea952E', symObjAddr: 0x4938, symBinAddr: 0x10001EB38, symSize: 0x5C }
  - { offset: 0x59FEE, size: 0x8, addend: 0x0, symName: '__ZN4core3ptr95drop_in_place$LT$core..option..IntoIter$LT$std..backtrace_rs..symbolize..gimli..Library$GT$$GT$17he46fad7f279ea952E', symObjAddr: 0x4938, symBinAddr: 0x10001EB38, symSize: 0x5C }
  - { offset: 0x5A157, size: 0x8, addend: 0x0, symName: '__ZN4core3ptr95drop_in_place$LT$std..io..buffered..linewriter..LineWriter$LT$std..io..stdio..StdoutRaw$GT$$GT$17h3bd57fa990556d59E', symObjAddr: 0x4994, symBinAddr: 0x10001EB94, symSize: 0xF0 }
  - { offset: 0x5CDF5, size: 0x8, addend: 0x0, symName: __ZN4core5slice4sort6shared5pivot11median3_rec17h025645fbfb2d8cd1E, symObjAddr: 0x4D90, symBinAddr: 0x10001ED94, symSize: 0x134 }
  - { offset: 0x5D01C, size: 0x8, addend: 0x0, symName: __ZN4core5slice4sort6shared5pivot11median3_rec17h246a4f2d911688a1E, symObjAddr: 0x4EC4, symBinAddr: 0x10001EEC8, symSize: 0xD0 }
  - { offset: 0x5D117, size: 0x8, addend: 0x0, symName: __ZN4core5slice4sort6shared5pivot11median3_rec17h6ce4cdb71517d19eE, symObjAddr: 0x4F94, symBinAddr: 0x10001EF98, symSize: 0xCC }
  - { offset: 0x5D212, size: 0x8, addend: 0x0, symName: __ZN4core5slice4sort6shared5pivot11median3_rec17h6e4fd85017a3f5e4E, symObjAddr: 0x5060, symBinAddr: 0x10001F064, symSize: 0xD0 }
  - { offset: 0x5D30D, size: 0x8, addend: 0x0, symName: __ZN4core5slice4sort6shared5pivot11median3_rec17ha3c898ebd570d9a9E, symObjAddr: 0x5130, symBinAddr: 0x10001F134, symSize: 0xCC }
  - { offset: 0x5D45E, size: 0x8, addend: 0x0, symName: __ZN4core5slice4sort6shared5pivot11median3_rec17hbe3f226301cd071dE, symObjAddr: 0x51FC, symBinAddr: 0x10001F200, symSize: 0xCC }
  - { offset: 0x5D559, size: 0x8, addend: 0x0, symName: __ZN4core5slice4sort6shared5pivot11median3_rec17hc3d7c76f255c304aE, symObjAddr: 0x52C8, symBinAddr: 0x10001F2CC, symSize: 0xD0 }
  - { offset: 0x5D654, size: 0x8, addend: 0x0, symName: __ZN4core5slice4sort6shared5pivot11median3_rec17heb13e39171436e07E, symObjAddr: 0x5398, symBinAddr: 0x10001F39C, symSize: 0x11C }
  - { offset: 0x5D82A, size: 0x8, addend: 0x0, symName: __ZN4core5slice4sort6shared9smallsort12sort4_stable17h29d5ecfff8d25808E, symObjAddr: 0x54B4, symBinAddr: 0x10001F4B8, symSize: 0x1B4 }
  - { offset: 0x5D9D5, size: 0x8, addend: 0x0, symName: __ZN4core5slice4sort6shared9smallsort12sort4_stable17he2b82e95c0946cc4E, symObjAddr: 0x5668, symBinAddr: 0x10001F66C, symSize: 0x180 }
  - { offset: 0x5DDF7, size: 0x8, addend: 0x0, symName: __ZN4core5slice4sort6shared9smallsort12sort8_stable17h40f301b851efa79fE, symObjAddr: 0x57E8, symBinAddr: 0x10001F7EC, symSize: 0x2B8 }
  - { offset: 0x5E390, size: 0x8, addend: 0x0, symName: __ZN4core5slice4sort6shared9smallsort18small_sort_general17h8f0f2bfe6ac37bfbE, symObjAddr: 0x5AA0, symBinAddr: 0x10001FAA4, symSize: 0x490 }
  - { offset: 0x5EAA5, size: 0x8, addend: 0x0, symName: __ZN4core5slice4sort6shared9smallsort18small_sort_general17h9886ba35fa9ddf7bE, symObjAddr: 0x5F30, symBinAddr: 0x10001FF34, symSize: 0x3E0 }
  - { offset: 0x5EFBF, size: 0x8, addend: 0x0, symName: __ZN4core5slice4sort6shared9smallsort25insertion_sort_shift_left17h001473db42a80264E, symObjAddr: 0x6310, symBinAddr: 0x100020314, symSize: 0xB0 }
  - { offset: 0x5F062, size: 0x8, addend: 0x0, symName: __ZN4core5slice4sort6shared9smallsort25insertion_sort_shift_left17h1e1ea2c4d7503f74E, symObjAddr: 0x63C0, symBinAddr: 0x1000203C4, symSize: 0xCC }
  - { offset: 0x5F163, size: 0x8, addend: 0x0, symName: __ZN4core5slice4sort6shared9smallsort25insertion_sort_shift_left17h4c238536f310567cE, symObjAddr: 0x648C, symBinAddr: 0x100020490, symSize: 0xFC }
  - { offset: 0x5F2FA, size: 0x8, addend: 0x0, symName: __ZN4core5slice4sort6shared9smallsort25insertion_sort_shift_left17h5ae8ea909444dc00E, symObjAddr: 0x6588, symBinAddr: 0x10002058C, symSize: 0xAC }
  - { offset: 0x5F39D, size: 0x8, addend: 0x0, symName: __ZN4core5slice4sort6shared9smallsort25insertion_sort_shift_left17h677848d84e66ea2aE, symObjAddr: 0x6634, symBinAddr: 0x100020638, symSize: 0xA8 }
  - { offset: 0x5F440, size: 0x8, addend: 0x0, symName: __ZN4core5slice4sort6shared9smallsort25insertion_sort_shift_left17h753c2c33d7211ceaE, symObjAddr: 0x66DC, symBinAddr: 0x1000206E0, symSize: 0xBC }
  - { offset: 0x5F4E3, size: 0x8, addend: 0x0, symName: __ZN4core5slice4sort6shared9smallsort25insertion_sort_shift_left17hceef73df05978c22E, symObjAddr: 0x6798, symBinAddr: 0x10002079C, symSize: 0x90 }
  - { offset: 0x5F586, size: 0x8, addend: 0x0, symName: __ZN4core5slice4sort6shared9smallsort25insertion_sort_shift_left17hfb494d5f79707c02E, symObjAddr: 0x6828, symBinAddr: 0x10002082C, symSize: 0xAC }
  - { offset: 0x5F876, size: 0x8, addend: 0x0, symName: __ZN4core5slice4sort6stable14driftsort_main17h103ff636fd5ab89dE, symObjAddr: 0x68D4, symBinAddr: 0x1000208D8, symSize: 0x148 }
  - { offset: 0x5FB19, size: 0x8, addend: 0x0, symName: __ZN4core5slice4sort6stable14driftsort_main17h1e88dc2727ad5c37E, symObjAddr: 0x6A1C, symBinAddr: 0x100020A20, symSize: 0x16C }
  - { offset: 0x5FE12, size: 0x8, addend: 0x0, symName: __ZN4core5slice4sort6stable14driftsort_main17h54d923433181cd8aE, symObjAddr: 0x6B88, symBinAddr: 0x100020B8C, symSize: 0x16C }
  - { offset: 0x6010B, size: 0x8, addend: 0x0, symName: __ZN4core5slice4sort6stable14driftsort_main17h76405073938de01eE, symObjAddr: 0x6CF4, symBinAddr: 0x100020CF8, symSize: 0x148 }
  - { offset: 0x603AE, size: 0x8, addend: 0x0, symName: __ZN4core5slice4sort6stable14driftsort_main17h9cb82a8482cd4f53E, symObjAddr: 0x6E3C, symBinAddr: 0x100020E40, symSize: 0x148 }
  - { offset: 0x60651, size: 0x8, addend: 0x0, symName: __ZN4core5slice4sort6stable14driftsort_main17hf9ea8a01734384bdE, symObjAddr: 0x6F84, symBinAddr: 0x100020F88, symSize: 0x148 }
  - { offset: 0x60A63, size: 0x8, addend: 0x0, symName: __ZN4core5slice4sort6stable5drift4sort17h00ab1c6180ac4055E, symObjAddr: 0x70CC, symBinAddr: 0x1000210D0, symSize: 0x4E0 }
  - { offset: 0x61098, size: 0x8, addend: 0x0, symName: __ZN4core5slice4sort6stable5drift4sort17h0aa4aacce1cc6d7cE, symObjAddr: 0x75AC, symBinAddr: 0x1000215B0, symSize: 0x5E8 }
  - { offset: 0x61720, size: 0x8, addend: 0x0, symName: __ZN4core5slice4sort6stable5drift4sort17h343dbae25f37733bE, symObjAddr: 0x7B94, symBinAddr: 0x100021B98, symSize: 0x538 }
  - { offset: 0x61DF3, size: 0x8, addend: 0x0, symName: __ZN4core5slice4sort6stable5drift4sort17h4258b1bc2caa3ec0E, symObjAddr: 0x80CC, symBinAddr: 0x1000220D0, symSize: 0x6F0 }
  - { offset: 0x624C9, size: 0x8, addend: 0x0, symName: __ZN4core5slice4sort6stable5drift4sort17h9cf8228521243839E, symObjAddr: 0x87BC, symBinAddr: 0x1000227C0, symSize: 0x5E8 }
  - { offset: 0x62B51, size: 0x8, addend: 0x0, symName: __ZN4core5slice4sort6stable5drift4sort17he5c0348fca8b4ee7E, symObjAddr: 0x8DA4, symBinAddr: 0x100022DA8, symSize: 0x63C }
  - { offset: 0x633C9, size: 0x8, addend: 0x0, symName: __ZN4core5slice4sort6stable9quicksort9quicksort17h115e1a8136b6fa84E, symObjAddr: 0x93E0, symBinAddr: 0x1000233E4, symSize: 0x820 }
  - { offset: 0x63F96, size: 0x8, addend: 0x0, symName: __ZN4core5slice4sort6stable9quicksort9quicksort17h270cbea95e7bc0c9E, symObjAddr: 0x9C00, symBinAddr: 0x100023C04, symSize: 0x73C }
  - { offset: 0x646B7, size: 0x8, addend: 0x0, symName: __ZN4core5slice4sort6stable9quicksort9quicksort17h3e7b305b5c7976baE, symObjAddr: 0xA33C, symBinAddr: 0x100024340, symSize: 0x6C8 }
  - { offset: 0x65144, size: 0x8, addend: 0x0, symName: __ZN4core5slice4sort6stable9quicksort9quicksort17hc1d95435bd0f54c5E, symObjAddr: 0xAA04, symBinAddr: 0x100024A08, symSize: 0x828 }
  - { offset: 0x66205, size: 0x8, addend: 0x0, symName: __ZN4core5slice4sort6stable9quicksort9quicksort17hcf4fb219382f768bE, symObjAddr: 0xB22C, symBinAddr: 0x100025230, symSize: 0x7FC }
  - { offset: 0x66DD2, size: 0x8, addend: 0x0, symName: __ZN4core5slice4sort6stable9quicksort9quicksort17hfd59b4f11a472dd5E, symObjAddr: 0xBA28, symBinAddr: 0x100025A2C, symSize: 0x6D0 }
  - { offset: 0x6789A, size: 0x8, addend: 0x0, symName: __ZN4core5slice4sort8unstable7ipnsort17h519db9bb88c7d2c0E, symObjAddr: 0xC0F8, symBinAddr: 0x1000260FC, symSize: 0x1E4 }
  - { offset: 0x679B1, size: 0x8, addend: 0x0, symName: __ZN4core5slice4sort8unstable7ipnsort17hc49a474c49f61d9aE, symObjAddr: 0xC2DC, symBinAddr: 0x1000262E0, symSize: 0x290 }
  - { offset: 0x67C5A, size: 0x8, addend: 0x0, symName: __ZN4core5slice4sort8unstable8heapsort8heapsort17h6b7b52018c9f5da0E, symObjAddr: 0xC56C, symBinAddr: 0x100026570, symSize: 0x10C }
  - { offset: 0x67E61, size: 0x8, addend: 0x0, symName: __ZN4core5slice4sort8unstable8heapsort8heapsort17h719a9553e129d672E, symObjAddr: 0xC678, symBinAddr: 0x10002667C, symSize: 0x160 }
  - { offset: 0x681FF, size: 0x8, addend: 0x0, symName: __ZN4core5slice4sort8unstable9quicksort9quicksort17h96e7db41672c501eE, symObjAddr: 0xC7D8, symBinAddr: 0x1000267DC, symSize: 0x448 }
  - { offset: 0x68AB5, size: 0x8, addend: 0x0, symName: __ZN4core5slice4sort8unstable9quicksort9quicksort17ha039472c97b018d8E, symObjAddr: 0xCC20, symBinAddr: 0x100026C24, symSize: 0x5BC }
  - { offset: 0x697F4, size: 0x8, addend: 0x0, symName: '__ZN36_$LT$T$u20$as$u20$core..any..Any$GT$7type_id17h225d92188c8db6c3E', symObjAddr: 0x13C, symBinAddr: 0x10001BDCC, symSize: 0x30 }
  - { offset: 0x6980E, size: 0x8, addend: 0x0, symName: '__ZN36_$LT$T$u20$as$u20$core..any..Any$GT$7type_id17h22a55d7ebb819ea6E', symObjAddr: 0x16C, symBinAddr: 0x10001BDFC, symSize: 0x30 }
  - { offset: 0x6987C, size: 0x8, addend: 0x0, symName: '__ZN42_$LT$$RF$T$u20$as$u20$core..fmt..Debug$GT$3fmt17h229631da8bdd67acE', symObjAddr: 0x464, symBinAddr: 0x10001BE2C, symSize: 0x1C }
  - { offset: 0x69890, size: 0x8, addend: 0x0, symName: '__ZN42_$LT$$RF$T$u20$as$u20$core..fmt..Debug$GT$3fmt17h45300256e973f494E', symObjAddr: 0x4F8, symBinAddr: 0x10001BE48, symSize: 0x30 }
  - { offset: 0x698D6, size: 0x8, addend: 0x0, symName: '__ZN42_$LT$$RF$T$u20$as$u20$core..fmt..Debug$GT$3fmt17h6cf282856d53ef8fE', symObjAddr: 0x66C, symBinAddr: 0x10001BE78, symSize: 0x74 }
  - { offset: 0x69A18, size: 0x8, addend: 0x0, symName: '__ZN42_$LT$$RF$T$u20$as$u20$core..fmt..Debug$GT$3fmt17h832369a0cde054d2E', symObjAddr: 0x77C, symBinAddr: 0x10001BEEC, symSize: 0x30 }
  - { offset: 0x69A6C, size: 0x8, addend: 0x0, symName: '__ZN42_$LT$$RF$T$u20$as$u20$core..fmt..Debug$GT$3fmt17h8bbb2abac655b284E', symObjAddr: 0x7AC, symBinAddr: 0x10001BF1C, symSize: 0x9C }
  - { offset: 0x69B16, size: 0x8, addend: 0x0, symName: '__ZN42_$LT$$RF$T$u20$as$u20$core..fmt..Debug$GT$3fmt17h99ba184c1a5db1eaE', symObjAddr: 0x91C, symBinAddr: 0x10001BFB8, symSize: 0x1C }
  - { offset: 0x69B55, size: 0x8, addend: 0x0, symName: '__ZN42_$LT$$RF$T$u20$as$u20$core..fmt..Debug$GT$3fmt17h9e2071203f91d82eE', symObjAddr: 0x938, symBinAddr: 0x10001BFD4, symSize: 0x74 }
  - { offset: 0x69C14, size: 0x8, addend: 0x0, symName: '__ZN42_$LT$$RF$T$u20$as$u20$core..fmt..Debug$GT$3fmt17hc3e2ad6268e8985cE', symObjAddr: 0xB50, symBinAddr: 0x10001C048, symSize: 0x20 }
  - { offset: 0x69CD8, size: 0x8, addend: 0x0, symName: '__ZN4core3fmt3num50_$LT$impl$u20$core..fmt..Debug$u20$for$u20$i32$GT$3fmt17h15c50277390862aeE', symObjAddr: 0xCF0, symBinAddr: 0x10001C0EC, symSize: 0x2C }
  - { offset: 0x69D07, size: 0x8, addend: 0x0, symName: '__ZN4core3fmt3num52_$LT$impl$u20$core..fmt..Debug$u20$for$u20$usize$GT$3fmt17h6def11b803266407E', symObjAddr: 0xDA0, symBinAddr: 0x10001C118, symSize: 0x2C }
  - { offset: 0x69D86, size: 0x8, addend: 0x0, symName: '__ZN44_$LT$$RF$T$u20$as$u20$core..fmt..Display$GT$3fmt17h3bfca5eae23b0d69E', symObjAddr: 0xC20, symBinAddr: 0x10001C068, symSize: 0x1C }
  - { offset: 0x69DA1, size: 0x8, addend: 0x0, symName: '__ZN44_$LT$$RF$T$u20$as$u20$core..fmt..Display$GT$3fmt17ha43e2829162aef39E', symObjAddr: 0xC3C, symBinAddr: 0x10001C084, symSize: 0x68 }
  - { offset: 0x6A224, size: 0x8, addend: 0x0, symName: __ZN4core3fmt5Write10write_char17h2bd2da6422df0c04E, symObjAddr: 0xDCC, symBinAddr: 0x10001C144, symSize: 0x128 }
  - { offset: 0x6A3BC, size: 0x8, addend: 0x0, symName: __ZN4core3fmt5Write10write_char17h375232e784da95c3E, symObjAddr: 0xEF4, symBinAddr: 0x10001C26C, symSize: 0x174 }
  - { offset: 0x6A5BE, size: 0x8, addend: 0x0, symName: __ZN4core3fmt5Write10write_char17h5fd94b4a6a085facE, symObjAddr: 0x11E8, symBinAddr: 0x10001C3E0, symSize: 0x140 }
  - { offset: 0x6A624, size: 0x8, addend: 0x0, symName: __ZN4core3fmt5Write10write_char17h7453f2c039370a9dE, symObjAddr: 0x1328, symBinAddr: 0x10001C520, symSize: 0x180 }
  - { offset: 0x6A810, size: 0x8, addend: 0x0, symName: __ZN4core3fmt5Write9write_fmt17h2a0fceba8367f855E, symObjAddr: 0x1620, symBinAddr: 0x10001C6A0, symSize: 0x1C }
  - { offset: 0x6A83F, size: 0x8, addend: 0x0, symName: __ZN4core3fmt5Write9write_fmt17h7b0eee5bb9fc5859E, symObjAddr: 0x163C, symBinAddr: 0x10001C6BC, symSize: 0x1C }
  - { offset: 0x6A86E, size: 0x8, addend: 0x0, symName: __ZN4core3fmt5Write9write_fmt17hb212afec46fd02ecE, symObjAddr: 0x1658, symBinAddr: 0x10001C6D8, symSize: 0x1C }
  - { offset: 0x6A89D, size: 0x8, addend: 0x0, symName: __ZN4core3fmt5Write9write_fmt17hbad323a678cb2207E, symObjAddr: 0x1674, symBinAddr: 0x10001C6F4, symSize: 0x1C }
  - { offset: 0x6A8CC, size: 0x8, addend: 0x0, symName: __ZN4core3fmt5Write9write_fmt17he153d8ed26875afeE, symObjAddr: 0x1690, symBinAddr: 0x10001C710, symSize: 0x1C }
  - { offset: 0x6A929, size: 0x8, addend: 0x0, symName: '__ZN50_$LT$$BP$mut$u20$T$u20$as$u20$core..fmt..Debug$GT$3fmt17he39465caf33bcc4eE', symObjAddr: 0xD258, symBinAddr: 0x1000271E0, symSize: 0x14 }
  - { offset: 0x6A976, size: 0x8, addend: 0x0, symName: '__ZN52_$LT$$RF$mut$u20$T$u20$as$u20$core..fmt..Display$GT$3fmt17hc6db9c4561bb0640E', symObjAddr: 0xD2E0, symBinAddr: 0x1000271F4, symSize: 0x1C }
  - { offset: 0x6AF15, size: 0x8, addend: 0x0, symName: '__ZN70_$LT$core..num..error..TryFromIntError$u20$as$u20$core..fmt..Debug$GT$3fmt17heb63bc146d788e8fE', symObjAddr: 0x19870, symBinAddr: 0x100031B18, symSize: 0x40 }
  - { offset: 0x6B0BB, size: 0x8, addend: 0x0, symName: '__ZN4core5array69_$LT$impl$u20$core..fmt..Debug$u20$for$u20$$u5b$T$u3b$$u20$N$u5d$$GT$3fmt17h705a2aa453ffacd4E', symObjAddr: 0x4BD8, symBinAddr: 0x10001EC84, symSize: 0xFC }
  - { offset: 0x6B639, size: 0x8, addend: 0x0, symName: '__ZN55_$LT$$RF$str$u20$as$u20$core..str..pattern..Pattern$GT$15is_contained_in17h07538af93eae73f4E', symObjAddr: 0xD2FC, symBinAddr: 0x100027210, symSize: 0x3BC }
  - { offset: 0x6BA58, size: 0x8, addend: 0x0, symName: __ZN4core5panic12PanicPayload6as_str17h5cdc46f655586ed2E, symObjAddr: 0x4D7C, symBinAddr: 0x10001ED80, symSize: 0x14 }
  - { offset: 0x6CB37, size: 0x8, addend: 0x0, symName: '__ZN4core3ops8function6FnOnce40call_once$u7b$$u7b$vtable.shim$u7d$$u7d$17h372dd670162a11a3E', symObjAddr: 0x1714, symBinAddr: 0x10001C72C, symSize: 0x18 }
  - { offset: 0x6CB88, size: 0x8, addend: 0x0, symName: '__ZN4core3ops8function6FnOnce40call_once$u7b$$u7b$vtable.shim$u7d$$u7d$17h49be7b3161c92e51E', symObjAddr: 0x172C, symBinAddr: 0x10001C744, symSize: 0x28 }
  - { offset: 0x6CBC4, size: 0x8, addend: 0x0, symName: '__ZN4core3ops8function6FnOnce40call_once$u7b$$u7b$vtable.shim$u7d$$u7d$17h4dbfbb5401248555E', symObjAddr: 0x1754, symBinAddr: 0x10001C76C, symSize: 0xA4 }
  - { offset: 0x6CD0A, size: 0x8, addend: 0x0, symName: '__ZN4core3ops8function6FnOnce40call_once$u7b$$u7b$vtable.shim$u7d$$u7d$17h59664865ad50834bE', symObjAddr: 0x17F8, symBinAddr: 0x10001C810, symSize: 0x10 }
  - { offset: 0x6CD46, size: 0x8, addend: 0x0, symName: '__ZN4core3ops8function6FnOnce40call_once$u7b$$u7b$vtable.shim$u7d$$u7d$17h5dd18c650d3d28d5E', symObjAddr: 0x18B8, symBinAddr: 0x10001C820, symSize: 0x80 }
  - { offset: 0x6CEDB, size: 0x8, addend: 0x0, symName: '__ZN4core3ops8function6FnOnce40call_once$u7b$$u7b$vtable.shim$u7d$$u7d$17hb8f0a3a311886dd1E', symObjAddr: 0x194C, symBinAddr: 0x10001C8A0, symSize: 0x18 }
  - { offset: 0x6CF2C, size: 0x8, addend: 0x0, symName: '__ZN4core3ops8function6FnOnce40call_once$u7b$$u7b$vtable.shim$u7d$$u7d$17hc37bdb1ed22c5dd7E', symObjAddr: 0x19E0, symBinAddr: 0x10001C8B8, symSize: 0x10 }
  - { offset: 0x6CF68, size: 0x8, addend: 0x0, symName: '__ZN4core3ops8function6FnOnce40call_once$u7b$$u7b$vtable.shim$u7d$$u7d$17heb56308df1374649E', symObjAddr: 0x19F0, symBinAddr: 0x10001C8C8, symSize: 0x60 }
  - { offset: 0x6D06A, size: 0x8, addend: 0x0, symName: __ZN4core3ops8function6FnOnce9call_once17he5d2535e31b739dcE, symObjAddr: 0x1A78, symBinAddr: 0x10001C928, symSize: 0x44 }
  - { offset: 0x6FA7A, size: 0x8, addend: 0x0, symName: '__ZN4core4cell4once17OnceCell$LT$T$GT$8try_init17he4193c4098c349bdE', symObjAddr: 0x4A84, symBinAddr: 0x100058640, symSize: 0x154 }
  - { offset: 0x6FF86, size: 0x8, addend: 0x0, symName: __ZN4core9panicking13assert_failed17h5ef480159103c8ebE, symObjAddr: 0xD1DC, symBinAddr: 0x100058794, symSize: 0x34 }
  - { offset: 0x6FFA1, size: 0x8, addend: 0x0, symName: __ZN4core9panicking13assert_failed17he664f25a4eeebf5cE, symObjAddr: 0xD234, symBinAddr: 0x1000587C8, symSize: 0x24 }
  - { offset: 0x70440, size: 0x8, addend: 0x0, symName: __ZN3std9panicking11panic_count8increase17h1d24b79d4790a8a8E, symObjAddr: 0x3A9E8, symBinAddr: 0x10003D68C, symSize: 0x80 }
  - { offset: 0x70537, size: 0x8, addend: 0x0, symName: __ZN3std9panicking11panic_count17is_zero_slow_path17hbb753c2ecca816a8E, symObjAddr: 0x3AB00, symBinAddr: 0x1000591E0, symSize: 0x2C }
  - { offset: 0x7066D, size: 0x8, addend: 0x0, symName: ___rust_drop_panic, symObjAddr: 0x39FEC, symBinAddr: 0x10003CF04, symSize: 0xB8 }
  - { offset: 0x7085F, size: 0x8, addend: 0x0, symName: ___rust_foreign_exception, symObjAddr: 0x3A0A4, symBinAddr: 0x10003CFBC, symSize: 0xB8 }
  - { offset: 0x70A51, size: 0x8, addend: 0x0, symName: __ZN3std9panicking12default_hook17ha0b223ccc4379930E, symObjAddr: 0x3A3D0, symBinAddr: 0x10003D074, symSize: 0x1EC }
  - { offset: 0x70CF2, size: 0x8, addend: 0x0, symName: '__ZN3std9panicking12default_hook28_$u7b$$u7b$closure$u7d$$u7d$17h5c3a234feebd11a5E', symObjAddr: 0x3A5BC, symBinAddr: 0x10003D260, symSize: 0x1A8 }
  - { offset: 0x70ED6, size: 0x8, addend: 0x0, symName: '__ZN3std9panicking12default_hook28_$u7b$$u7b$closure$u7d$$u7d$28_$u7b$$u7b$closure$u7d$$u7d$17h2cb359aea37a8eccE', symObjAddr: 0x3A764, symBinAddr: 0x10003D408, symSize: 0x284 }
  - { offset: 0x7134C, size: 0x8, addend: 0x0, symName: _rust_begin_unwind, symObjAddr: 0x3AB80, symBinAddr: 0x10003D70C, symSize: 0x20 }
  - { offset: 0x713B5, size: 0x8, addend: 0x0, symName: '__ZN102_$LT$std..panicking..begin_panic_handler..FormatStringPayload$u20$as$u20$core..panic..PanicPayload$GT$8take_box17hf9936339f9bb3e6eE', symObjAddr: 0x3ABA0, symBinAddr: 0x10003D72C, symSize: 0x110 }
  - { offset: 0x71649, size: 0x8, addend: 0x0, symName: '__ZN102_$LT$std..panicking..begin_panic_handler..FormatStringPayload$u20$as$u20$core..panic..PanicPayload$GT$3get17h671f5c789103ccc6E', symObjAddr: 0x3ACB0, symBinAddr: 0x10003D83C, symSize: 0xB0 }
  - { offset: 0x71782, size: 0x8, addend: 0x0, symName: '__ZN95_$LT$std..panicking..begin_panic_handler..FormatStringPayload$u20$as$u20$core..fmt..Display$GT$3fmt17h1a7e141a9fd2e841E', symObjAddr: 0x3AD60, symBinAddr: 0x10003D8EC, symSize: 0x5C }
  - { offset: 0x7187F, size: 0x8, addend: 0x0, symName: '__ZN99_$LT$std..panicking..begin_panic_handler..StaticStrPayload$u20$as$u20$core..panic..PanicPayload$GT$8take_box17hfde794f38dfdff84E', symObjAddr: 0x3ADBC, symBinAddr: 0x10003D948, symSize: 0x50 }
  - { offset: 0x718F6, size: 0x8, addend: 0x0, symName: '__ZN99_$LT$std..panicking..begin_panic_handler..StaticStrPayload$u20$as$u20$core..panic..PanicPayload$GT$3get17h40c5dcbca42c5d43E', symObjAddr: 0x3AE0C, symBinAddr: 0x10003D998, symSize: 0x18 }
  - { offset: 0x71911, size: 0x8, addend: 0x0, symName: '__ZN99_$LT$std..panicking..begin_panic_handler..StaticStrPayload$u20$as$u20$core..panic..PanicPayload$GT$6as_str17h36252a21ddc56c9bE', symObjAddr: 0x3AE24, symBinAddr: 0x10003D9B0, symSize: 0x18 }
  - { offset: 0x71932, size: 0x8, addend: 0x0, symName: '__ZN92_$LT$std..panicking..begin_panic_handler..StaticStrPayload$u20$as$u20$core..fmt..Display$GT$3fmt17hd84ef799566d4562E', symObjAddr: 0x3AE3C, symBinAddr: 0x10003D9C8, symSize: 0x1C }
  - { offset: 0x7194E, size: 0x8, addend: 0x0, symName: '__ZN3std9panicking19begin_panic_handler28_$u7b$$u7b$closure$u7d$$u7d$17hcc8f653f753c0254E', symObjAddr: 0x3AE58, symBinAddr: 0x10003D9E4, symSize: 0xC4 }
  - { offset: 0x71AB6, size: 0x8, addend: 0x0, symName: __ZN3std9panicking14payload_as_str17h326c21158c3ccbd7E, symObjAddr: 0x3B008, symBinAddr: 0x10003DAA8, symSize: 0xB0 }
  - { offset: 0x71B9A, size: 0x8, addend: 0x0, symName: __ZN3std9panicking20rust_panic_with_hook17h203f96c93e7ac62dE, symObjAddr: 0x3B0B8, symBinAddr: 0x10003DB58, symSize: 0x3F8 }
  - { offset: 0x723AD, size: 0x8, addend: 0x0, symName: _rust_panic, symObjAddr: 0x3B5E4, symBinAddr: 0x10003DF50, symSize: 0x60 }
  - { offset: 0x723F3, size: 0x8, addend: 0x0, symName: __ZN3std7process7Command5spawn17h2f2ecb68e43a155aE, symObjAddr: 0x35110, symBinAddr: 0x10003BB2C, symSize: 0x78 }
  - { offset: 0x72424, size: 0x8, addend: 0x0, symName: __ZN3std7process7Command6output17h173f2f9f8e9cb0e1E, symObjAddr: 0x35188, symBinAddr: 0x10003BBA4, symSize: 0x2FC }
  - { offset: 0x72A09, size: 0x8, addend: 0x0, symName: __ZN3std7process5Child4wait17h3afaeed38f55e2bfE, symObjAddr: 0x35934, symBinAddr: 0x10003BEA0, symSize: 0xBC }
  - { offset: 0x72BC1, size: 0x8, addend: 0x0, symName: __ZN3std7process5abort17h5bdab09773b2c592E, symObjAddr: 0x35D9C, symBinAddr: 0x100058C84, symSize: 0xC }
  - { offset: 0x72C79, size: 0x8, addend: 0x0, symName: __ZN3std4path4Path13_strip_prefix17h55294dff41b26308E, symObjAddr: 0x33B38, symBinAddr: 0x10003B764, symSize: 0x21C }
  - { offset: 0x72DB9, size: 0x8, addend: 0x0, symName: __ZN3std4path4Path5_join17h516bc57fe1e4225dE, symObjAddr: 0x34358, symBinAddr: 0x10003B980, symSize: 0x1AC }
  - { offset: 0x73383, size: 0x8, addend: 0x0, symName: __ZN3std4path10Components15len_before_body17ha7ee2271a8a6c6d9E, symObjAddr: 0x31DBC, symBinAddr: 0x10003A518, symSize: 0x188 }
  - { offset: 0x7339A, size: 0x8, addend: 0x0, symName: __ZN3std4path10Components15len_before_body17ha7ee2271a8a6c6d9E, symObjAddr: 0x31DBC, symBinAddr: 0x10003A518, symSize: 0x188 }
  - { offset: 0x733AF, size: 0x8, addend: 0x0, symName: __ZN3std4path10Components15len_before_body17ha7ee2271a8a6c6d9E, symObjAddr: 0x31DBC, symBinAddr: 0x10003A518, symSize: 0x188 }
  - { offset: 0x73591, size: 0x8, addend: 0x0, symName: __ZN3std4path10Components7as_path17h6e25608fa8cb9557E, symObjAddr: 0x31F44, symBinAddr: 0x10003A6A0, symSize: 0x530 }
  - { offset: 0x73A64, size: 0x8, addend: 0x0, symName: __ZN3std4path10Components25parse_next_component_back17h5239b6f3b65d70c8E, symObjAddr: 0x32474, symBinAddr: 0x10003ABD0, symSize: 0x120 }
  - { offset: 0x73C6F, size: 0x8, addend: 0x0, symName: '__ZN80_$LT$std..path..Components$u20$as$u20$core..iter..traits..iterator..Iterator$GT$4next17h6e8b0f281526c929E', symObjAddr: 0x3272C, symBinAddr: 0x10003ACF0, symSize: 0x340 }
  - { offset: 0x73FBE, size: 0x8, addend: 0x0, symName: '__ZN95_$LT$std..path..Components$u20$as$u20$core..iter..traits..double_ended..DoubleEndedIterator$GT$9next_back17h15500b5b5dde7decE', symObjAddr: 0x32A6C, symBinAddr: 0x10003B030, symSize: 0x330 }
  - { offset: 0x7410A, size: 0x8, addend: 0x0, symName: __ZN3std4path7PathBuf5_push17h9efea54f682ab9e9E, symObjAddr: 0x330A0, symBinAddr: 0x10003B360, symSize: 0x10C }
  - { offset: 0x743F2, size: 0x8, addend: 0x0, symName: __ZN3std4path7PathBuf14_set_extension17hb490c0af28c20392E, symObjAddr: 0x333F4, symBinAddr: 0x10003B46C, symSize: 0x2F8 }
  - { offset: 0x74C89, size: 0x8, addend: 0x0, symName: '__ZN61_$LT$std..path..Component$u20$as$u20$core..cmp..PartialEq$GT$2eq17h238f4f8a8cc29bb2E', symObjAddr: 0x3C0CC, symBinAddr: 0x10003E698, symSize: 0x138 }
  - { offset: 0x74E61, size: 0x8, addend: 0x0, symName: __ZN3std3sys3pal4unix2fs4File6open_c17h0a400570de534b0aE, symObjAddr: 0x3D220, symBinAddr: 0x10003EBFC, symSize: 0x1B0 }
  - { offset: 0x74FD2, size: 0x8, addend: 0x0, symName: '__ZN3std3sys3pal4unix2fs4stat28_$u7b$$u7b$closure$u7d$$u7d$17h74f038e96895fd65E', symObjAddr: 0x3E9C0, symBinAddr: 0x10003F16C, symSize: 0xAC }
  - { offset: 0x750D2, size: 0x8, addend: 0x0, symName: '__ZN91_$LT$std..sys..pal..unix..fs..ReadDir$u20$as$u20$core..iter..traits..iterator..Iterator$GT$4next17he1b3299a727d70eaE', symObjAddr: 0x3CD90, symBinAddr: 0x10003E9F8, symSize: 0x138 }
  - { offset: 0x75379, size: 0x8, addend: 0x0, symName: '__ZN70_$LT$std..sys..pal..unix..fs..Dir$u20$as$u20$core..ops..drop..Drop$GT$4drop17h2f7cbb54b209bd1fE', symObjAddr: 0x3CEC8, symBinAddr: 0x10003EB30, symSize: 0xCC }
  - { offset: 0x7546C, size: 0x8, addend: 0x0, symName: __ZN3std3sys3pal4unix2fs7readdir17h52c204b360126013E, symObjAddr: 0x3DAF4, symBinAddr: 0x10003EDAC, symSize: 0x1A4 }
  - { offset: 0x75724, size: 0x8, addend: 0x0, symName: '__ZN3std3sys3pal4unix2fs6unlink28_$u7b$$u7b$closure$u7d$$u7d$17h7a9b839f7315f066E', symObjAddr: 0x3DD58, symBinAddr: 0x10003F010, symSize: 0x38 }
  - { offset: 0x757A6, size: 0x8, addend: 0x0, symName: __ZN3std3sys3pal4unix2fs6unlink17h2ffbec680a2409dfE, symObjAddr: 0x3DC98, symBinAddr: 0x10003EF50, symSize: 0xC0 }
  - { offset: 0x758AA, size: 0x8, addend: 0x0, symName: __ZN3std3sys3pal4unix2fs4stat17h8c3731ef29288e82E, symObjAddr: 0x3E89C, symBinAddr: 0x10003F048, symSize: 0x124 }
  - { offset: 0x75A5A, size: 0x8, addend: 0x0, symName: __ZN3std3sys3pal4unix2fd8FileDesc11read_to_end17hb48365a6d7f4162dE, symObjAddr: 0x3C5C8, symBinAddr: 0x10003E7D0, symSize: 0x228 }
  - { offset: 0x75ED3, size: 0x8, addend: 0x0, symName: '__ZN92_$LT$std..sys..pal..unix..process..process_inner..ExitStatus$u20$as$u20$core..fmt..Debug$GT$3fmt17hb93e25abe1ed6b50E', symObjAddr: 0x44AB8, symBinAddr: 0x100042120, symSize: 0x58 }
  - { offset: 0x75F17, size: 0x8, addend: 0x0, symName: __ZN3std3sys3pal4unix7process13process_inner7Process4wait17h3c2b205dcceaa54aE, symObjAddr: 0x44A18, symBinAddr: 0x100042080, symSize: 0xA0 }
  - { offset: 0x760AE, size: 0x8, addend: 0x0, symName: __ZN3std3sys3pal4unix7process14process_common7Command3new17h1d046efb69807da0E, symObjAddr: 0x40DB4, symBinAddr: 0x10003FA34, symSize: 0x2C4 }
  - { offset: 0x76618, size: 0x8, addend: 0x0, symName: __ZN3std3sys3pal4unix7process14process_common7Command3arg17h236ab9fd4e9e458bE, symObjAddr: 0x411AC, symBinAddr: 0x10003FCF8, symSize: 0x15C }
  - { offset: 0x76991, size: 0x8, addend: 0x0, symName: __ZN3std3sys3pal4unix7process14process_common7Command5stdin17hbd7bc1ec5978e376E, symObjAddr: 0x4145C, symBinAddr: 0x10003FE54, symSize: 0x44 }
  - { offset: 0x76A1A, size: 0x8, addend: 0x0, symName: __ZN3std3sys3pal4unix7process14process_common7Command11capture_env17h73b5aff2a246da54E, symObjAddr: 0x41528, symBinAddr: 0x10003FE98, symSize: 0xA9C }
  - { offset: 0x78745, size: 0x8, addend: 0x0, symName: __ZN3std3sys3pal4unix7process14process_common7Command8setup_io17hcfeddda79479f9dfE, symObjAddr: 0x41FC4, symBinAddr: 0x100040934, symSize: 0x2F0 }
  - { offset: 0x78BFE, size: 0x8, addend: 0x0, symName: '__ZN3std3sys3pal4unix7process13process_inner71_$LT$impl$u20$std..sys..pal..unix..process..process_common..Command$GT$5spawn17hbb692d0a4a0abbffE', symObjAddr: 0x43CC4, symBinAddr: 0x100041378, symSize: 0x9A8 }
  - { offset: 0x79E52, size: 0x8, addend: 0x0, symName: '__ZN3std3sys3pal4unix7process13process_inner71_$LT$impl$u20$std..sys..pal..unix..process..process_common..Command$GT$7do_exec17he847cfd6d5f995b9E', symObjAddr: 0x4466C, symBinAddr: 0x100041D20, symSize: 0x360 }
  - { offset: 0x7A7B3, size: 0x8, addend: 0x0, symName: __ZN3std3sys3pal4unix7process14process_common5Stdio14to_child_stdio17ha05e85644a02177cE, symObjAddr: 0x422B4, symBinAddr: 0x100040C24, symSize: 0x15C }
  - { offset: 0x7A9B2, size: 0x8, addend: 0x0, symName: __ZN3std3sys3pal4unix2os5errno17h1e687568046dfc01E, symObjAddr: 0x3FC68, symBinAddr: 0x10003F218, symSize: 0x18 }
  - { offset: 0x7A9C6, size: 0x8, addend: 0x0, symName: __ZN3std3sys3pal4unix2os13env_read_lock17h1370e80127ab09adE, symObjAddr: 0x400EC, symBinAddr: 0x10003F230, symSize: 0x2EC }
  - { offset: 0x7B076, size: 0x8, addend: 0x0, symName: '__ZN3std3sys3pal4unix2os6getenv28_$u7b$$u7b$closure$u7d$$u7d$17h09d09dd30efbeda3E', symObjAddr: 0x403D8, symBinAddr: 0x10003F51C, symSize: 0x150 }
  - { offset: 0x7B2B9, size: 0x8, addend: 0x0, symName: '__ZN69_$LT$std..sys..pal..unix..stdio..Stderr$u20$as$u20$std..io..Write$GT$5write17hf7eb28e2e3a5bd7dE', symObjAddr: 0x43178, symBinAddr: 0x100041110, symSize: 0x4C }
  - { offset: 0x7B37A, size: 0x8, addend: 0x0, symName: '__ZN69_$LT$std..sys..pal..unix..stdio..Stderr$u20$as$u20$std..io..Write$GT$14write_vectored17h6899437ee14ad0e1E', symObjAddr: 0x431C4, symBinAddr: 0x10004115C, symSize: 0x4C }
  - { offset: 0x7B43B, size: 0x8, addend: 0x0, symName: '__ZN69_$LT$std..sys..pal..unix..stdio..Stderr$u20$as$u20$std..io..Write$GT$17is_write_vectored17h9b2366713f7e1db9E', symObjAddr: 0x43210, symBinAddr: 0x1000411A8, symSize: 0x14 }
  - { offset: 0x7B455, size: 0x8, addend: 0x0, symName: '__ZN69_$LT$std..sys..pal..unix..stdio..Stderr$u20$as$u20$std..io..Write$GT$5flush17hd9b43cd37b405524E', symObjAddr: 0x43224, symBinAddr: 0x1000411BC, symSize: 0x14 }
  - { offset: 0x7B4C7, size: 0x8, addend: 0x0, symName: __ZN3std3sys3pal4unix4sync5mutex5Mutex4init17hdf1c4f248d85eb16E, symObjAddr: 0x43238, symBinAddr: 0x1000411D0, symSize: 0x16C }
  - { offset: 0x7B57E, size: 0x8, addend: 0x0, symName: __ZN3std3sys3pal4unix4sync5mutex5Mutex4lock4fail17h6819c36a4f036f8cE, symObjAddr: 0x433C0, symBinAddr: 0x100059264, symSize: 0xDC }
  - { offset: 0x7B83E, size: 0x8, addend: 0x0, symName: __ZN3std3sys3pal4unix14stack_overflow3imp14signal_handler17h2fa8e10590380ab0E, symObjAddr: 0x42C40, symBinAddr: 0x100040D80, symSize: 0xB0 }
  - { offset: 0x7B8EF, size: 0x8, addend: 0x0, symName: '__ZN3std3sys3pal4unix14stack_overflow3imp14signal_handler28_$u7b$$u7b$closure$u7d$$u7d$17h58562be330c5529fE', symObjAddr: 0x42CF0, symBinAddr: 0x100040E30, symSize: 0x100 }
  - { offset: 0x7BB15, size: 0x8, addend: 0x0, symName: __ZN3std3sys3pal4unix14stack_overflow3imp12make_handler17ha0e2e74c0ff811adE, symObjAddr: 0x42DF0, symBinAddr: 0x100040F30, symSize: 0x1E0 }
  - { offset: 0x7BEC0, size: 0x8, addend: 0x0, symName: __ZN3std3sys3pal4unix4pipe8AnonPipe5write17h9d42360bb4720a56E, symObjAddr: 0x40B14, symBinAddr: 0x10003F794, symSize: 0x48 }
  - { offset: 0x7BF88, size: 0x8, addend: 0x0, symName: __ZN3std3sys3pal4unix4pipe9anon_pipe17h3f2ef7b4629c71e8E, symObjAddr: 0x409EC, symBinAddr: 0x10003F66C, symSize: 0x128 }
  - { offset: 0x7C27D, size: 0x8, addend: 0x0, symName: __ZN3std3sys3pal4unix4pipe5read217he4ec31afe54221baE, symObjAddr: 0x40B5C, symBinAddr: 0x10003F7DC, symSize: 0x258 }
  - { offset: 0x7C7AB, size: 0x8, addend: 0x0, symName: '__ZN3std3sys3pal4unix4weak18DlsymWeak$LT$F$GT$10initialize17h5e388e39dc1ce791E', symObjAddr: 0x3C314, symBinAddr: 0x10005920C, symSize: 0x58 }
  - { offset: 0x7C82D, size: 0x8, addend: 0x0, symName: __ZN3std3sys3pal4unix17decode_error_kind17h7a8628d240588c97E, symObjAddr: 0x43C48, symBinAddr: 0x10004133C, symSize: 0x30 }
  - { offset: 0x7C847, size: 0x8, addend: 0x0, symName: __ZN3std3sys3pal4unix14abort_internal17h1f437a045e84c0acE, symObjAddr: 0x43C78, symBinAddr: 0x10004136C, symSize: 0xC }
  - { offset: 0x7C919, size: 0x8, addend: 0x0, symName: __ZN3std3sys3pal6common14small_c_string24run_with_cstr_allocating17h0222687f57b5b8d8E, symObjAddr: 0x378C4, symBinAddr: 0x100058D5C, symSize: 0xAC }
  - { offset: 0x7CA75, size: 0x8, addend: 0x0, symName: __ZN3std3sys3pal6common14small_c_string24run_with_cstr_allocating17h4f14323b58a959d9E, symObjAddr: 0x37970, symBinAddr: 0x100058E08, symSize: 0xBC }
  - { offset: 0x7CC51, size: 0x8, addend: 0x0, symName: __ZN3std3sys3pal6common14small_c_string24run_with_cstr_allocating17h757b93bb2bee65ffE, symObjAddr: 0x37AF8, symBinAddr: 0x100058EC4, symSize: 0xD0 }
  - { offset: 0x7CE1A, size: 0x8, addend: 0x0, symName: __ZN3std3sys3pal6common14small_c_string24run_with_cstr_allocating17h89545bf18b96ebe8E, symObjAddr: 0x37BC8, symBinAddr: 0x100058F94, symSize: 0x9C }
  - { offset: 0x7CF89, size: 0x8, addend: 0x0, symName: __ZN3std3sys3pal6common14small_c_string24run_with_cstr_allocating17hf540475ca51d3e7bE, symObjAddr: 0x37DE8, symBinAddr: 0x100059030, symSize: 0xC4 }
  - { offset: 0x7D269, size: 0x8, addend: 0x0, symName: __ZN3std3sys6os_str5bytes5Slice8to_owned17hc513e25113f5e8a9E, symObjAddr: 0x46A14, symBinAddr: 0x1000426E8, symSize: 0x98 }
  - { offset: 0x7D3A0, size: 0x8, addend: 0x0, symName: '__ZN69_$LT$std..sys..os_str..bytes..Slice$u20$as$u20$core..fmt..Display$GT$3fmt17h9ac75767c8ed01b2E', symObjAddr: 0x466F4, symBinAddr: 0x100042510, symSize: 0xA0 }
  - { offset: 0x7D3EE, size: 0x8, addend: 0x0, symName: __ZN3std3sys6os_str5bytes5Slice21check_public_boundary9slow_path17h97dd09e607eb8f29E, symObjAddr: 0x468CC, symBinAddr: 0x1000425B0, symSize: 0x138 }
  - { offset: 0x7D599, size: 0x8, addend: 0x0, symName: '__ZN3std3sys11personality3gcc14find_eh_action28_$u7b$$u7b$closure$u7d$$u7d$17heb526fe46b317879E', symObjAddr: 0x44DB8, symBinAddr: 0x100042178, symSize: 0x18 }
  - { offset: 0x7D5AD, size: 0x8, addend: 0x0, symName: '__ZN3std3sys11personality3gcc14find_eh_action28_$u7b$$u7b$closure$u7d$$u7d$17hdfacf1f5ab590eb6E', symObjAddr: 0x44DD0, symBinAddr: 0x100042190, symSize: 0x18 }
  - { offset: 0x7D5DD, size: 0x8, addend: 0x0, symName: _rust_eh_personality, symObjAddr: 0x44DE8, symBinAddr: 0x1000421A8, symSize: 0x368 }
  - { offset: 0x7D912, size: 0x8, addend: 0x0, symName: __ZN3std3sys11personality5dwarf2eh19read_encoded_offset17he9cb5faabb9c188bE, symObjAddr: 0x3801C, symBinAddr: 0x10003C298, symSize: 0x150 }
  - { offset: 0x7DA75, size: 0x8, addend: 0x0, symName: '__ZN3std3sys9backtrace10_print_fmt28_$u7b$$u7b$closure$u7d$$u7d$17h1863ed5b66499a89E', symObjAddr: 0x38458, symBinAddr: 0x10003C6D4, symSize: 0x30 }
  - { offset: 0x7DA9E, size: 0x8, addend: 0x0, symName: '__ZN3std3sys9backtrace10_print_fmt28_$u7b$$u7b$closure$u7d$$u7d$17h49125cd88324db11E', symObjAddr: 0x38488, symBinAddr: 0x10003C704, symSize: 0x134 }
  - { offset: 0x7DBB2, size: 0x8, addend: 0x0, symName: '__ZN3std3sys9backtrace10_print_fmt28_$u7b$$u7b$closure$u7d$$u7d$28_$u7b$$u7b$closure$u7d$$u7d$17heb5be01c54158345E', symObjAddr: 0x385BC, symBinAddr: 0x10003C838, symSize: 0x25C }
  - { offset: 0x7DDEE, size: 0x8, addend: 0x0, symName: __ZN3std3sys9backtrace4lock17h6e02177f0f3558baE, symObjAddr: 0x3816C, symBinAddr: 0x10003C3E8, symSize: 0x70 }
  - { offset: 0x7DF37, size: 0x8, addend: 0x0, symName: __ZN3std3sys9backtrace13BacktraceLock5print17h115149c0b879e5c3E, symObjAddr: 0x381DC, symBinAddr: 0x10003C458, symSize: 0x54 }
  - { offset: 0x7DF84, size: 0x8, addend: 0x0, symName: '__ZN98_$LT$std..sys..backtrace..BacktraceLock..print..DisplayBacktrace$u20$as$u20$core..fmt..Display$GT$3fmt17h217270392019d164E', symObjAddr: 0x38230, symBinAddr: 0x10003C4AC, symSize: 0x228 }
  - { offset: 0x7E506, size: 0x8, addend: 0x0, symName: __ZN3std3sys9backtrace26__rust_end_short_backtrace17h911de07218b69a6cE, symObjAddr: 0x38818, symBinAddr: 0x10003CA94, symSize: 0xC }
  - { offset: 0x7E520, size: 0x8, addend: 0x0, symName: __ZN3std3sys9backtrace15output_filename17h988a0b5399b264d6E, symObjAddr: 0x38830, symBinAddr: 0x10003CAA0, symSize: 0xFC }
  - { offset: 0x7E6F1, size: 0x8, addend: 0x0, symName: '__ZN3std3sys4sync8once_box16OnceBox$LT$T$GT$10initialize17h482967fb77aa636aE', symObjAddr: 0x3899C, symBinAddr: 0x1000590F4, symSize: 0xEC }
  - { offset: 0x7E9E7, size: 0x8, addend: 0x0, symName: __ZN3std3sys4sync6rwlock5queue6RwLock21read_unlock_contended17ha1da939695eb68a4E, symObjAddr: 0x479D0, symBinAddr: 0x1000594A0, symSize: 0x50 }
  - { offset: 0x7EB57, size: 0x8, addend: 0x0, symName: __ZN3std3sys4sync6rwlock5queue6RwLock16unlock_contended17hb1bda0f6c9583d94E, symObjAddr: 0x47A20, symBinAddr: 0x1000594F0, symSize: 0x50 }
  - { offset: 0x7EC33, size: 0x8, addend: 0x0, symName: __ZN3std3sys4sync6rwlock5queue6RwLock12unlock_queue17h1e38a16940d3a0e6E, symObjAddr: 0x47B84, symBinAddr: 0x100042A2C, symSize: 0x1D8 }
  - { offset: 0x7F380, size: 0x8, addend: 0x0, symName: __ZN3std3sys4sync6rwlock5queue9read_lock17h02feed94edb2ee18E, symObjAddr: 0x47710, symBinAddr: 0x100042A00, symSize: 0x2C }
  - { offset: 0x7F45B, size: 0x8, addend: 0x0, symName: __ZN3std3sys4sync4once5queue4Once4call17hc1cbcad9bb87275cE, symObjAddr: 0x47310, symBinAddr: 0x100059340, symSize: 0x160 }
  - { offset: 0x7F583, size: 0x8, addend: 0x0, symName: __ZN3std3sys4sync4once5queue4wait17h58ee39f231bfccb9E, symObjAddr: 0x47470, symBinAddr: 0x100042780, symSize: 0x198 }
  - { offset: 0x7FAFF, size: 0x8, addend: 0x0, symName: '__ZN82_$LT$std..sys..sync..once..queue..WaiterQueue$u20$as$u20$core..ops..drop..Drop$GT$4drop17h45f863b67fd27f71E', symObjAddr: 0x47608, symBinAddr: 0x100042918, symSize: 0xE8 }
  - { offset: 0x7FD5D, size: 0x8, addend: 0x0, symName: '__ZN3std3sys12thread_local6native4lazy20Storage$LT$T$C$D$GT$10initialize17h61fa4697cd48c6f6E', symObjAddr: 0x47E24, symBinAddr: 0x100059540, symSize: 0xC0 }
  - { offset: 0x7FF53, size: 0x8, addend: 0x0, symName: __ZN3std3sys12thread_local6native4lazy7destroy17h26d4ae6c1bac34fbE, symObjAddr: 0x47EE4, symBinAddr: 0x100042C04, symSize: 0x54 }
  - { offset: 0x800C1, size: 0x8, addend: 0x0, symName: __ZN3std3sys12thread_local5guard5apple6enable9run_dtors17h15022dedc81e5063E, symObjAddr: 0x4807C, symBinAddr: 0x100042D9C, symSize: 0x13C }
  - { offset: 0x8061B, size: 0x8, addend: 0x0, symName: __ZN3std3sys12thread_local11destructors4list8register17h51fb0c77f8b321e6E, symObjAddr: 0x47F38, symBinAddr: 0x100042C58, symSize: 0x144 }
  - { offset: 0x80A0D, size: 0x8, addend: 0x0, symName: __ZN3std3sys6random19hashmap_random_keys17h3b9528076369d374E, symObjAddr: 0x3892C, symBinAddr: 0x10003CB9C, symSize: 0x70 }
  - { offset: 0x80CD5, size: 0x8, addend: 0x0, symName: '__ZN3std3ffi6os_str95_$LT$impl$u20$core..convert..TryFrom$LT$$RF$std..ffi..os_str..OsStr$GT$$u20$for$u20$$RF$str$GT$8try_from17h427b4a2ebd0ab8b0E', symObjAddr: 0x23944, symBinAddr: 0x10003806C, symSize: 0x10 }
  - { offset: 0x80D0C, size: 0x8, addend: 0x0, symName: '__ZN62_$LT$std..ffi..os_str..Display$u20$as$u20$core..fmt..Debug$GT$3fmt17h939ff389e0b3b6aaE', symObjAddr: 0x23954, symBinAddr: 0x10003807C, symSize: 0x28 }
  - { offset: 0x80E98, size: 0x8, addend: 0x0, symName: '__ZN80_$LT$std..io..Write..write_fmt..Adapter$LT$T$GT$$u20$as$u20$core..fmt..Write$GT$9write_str17h0698cdf4cfa713e8E', symObjAddr: 0x2D538, symBinAddr: 0x10003A194, symSize: 0xD8 }
  - { offset: 0x80FEB, size: 0x8, addend: 0x0, symName: '__ZN80_$LT$std..io..Write..write_fmt..Adapter$LT$T$GT$$u20$as$u20$core..fmt..Write$GT$9write_str17h1c13ca75cd138050E', symObjAddr: 0x2D610, symBinAddr: 0x10003A26C, symSize: 0x50 }
  - { offset: 0x81015, size: 0x8, addend: 0x0, symName: '__ZN80_$LT$std..io..Write..write_fmt..Adapter$LT$T$GT$$u20$as$u20$core..fmt..Write$GT$9write_str17h58a4ca428f95c900E', symObjAddr: 0x2D738, symBinAddr: 0x10003A2BC, symSize: 0xD0 }
  - { offset: 0x811CB, size: 0x8, addend: 0x0, symName: '__ZN80_$LT$std..io..Write..write_fmt..Adapter$LT$T$GT$$u20$as$u20$core..fmt..Write$GT$9write_str17h6eb5a36b1832c95eE', symObjAddr: 0x2D808, symBinAddr: 0x10003A38C, symSize: 0x80 }
  - { offset: 0x81351, size: 0x8, addend: 0x0, symName: __ZN3std2io5Write9write_all17h87bc481c06d6b6c7E, symObjAddr: 0x2CC10, symBinAddr: 0x10003986C, symSize: 0xB8 }
  - { offset: 0x81481, size: 0x8, addend: 0x0, symName: __ZN3std2io5Write18write_all_vectored17h0d3be626dc41da2eE, symObjAddr: 0x2CCC8, symBinAddr: 0x100039924, symSize: 0x264 }
  - { offset: 0x81929, size: 0x8, addend: 0x0, symName: __ZN3std2io5Write18write_all_vectored17h0f11e99192ac0da3E, symObjAddr: 0x2CF2C, symBinAddr: 0x100039B88, symSize: 0x2A0 }
  - { offset: 0x81DC7, size: 0x8, addend: 0x0, symName: __ZN3std2io5Write9write_fmt17h6564db7565ec4928E, symObjAddr: 0x2D1CC, symBinAddr: 0x100039E28, symSize: 0x124 }
  - { offset: 0x81FDB, size: 0x8, addend: 0x0, symName: __ZN3std2io5Write9write_fmt17h6e471a53cbe47e27E, symObjAddr: 0x2D2F0, symBinAddr: 0x100039F4C, symSize: 0x124 }
  - { offset: 0x821EF, size: 0x8, addend: 0x0, symName: __ZN3std2io5Write9write_fmt17hb32eaafcfd249a19E, symObjAddr: 0x2D414, symBinAddr: 0x10003A070, symSize: 0x124 }
  - { offset: 0x8241C, size: 0x8, addend: 0x0, symName: '__ZN3std2io5impls74_$LT$impl$u20$std..io..Write$u20$for$u20$alloc..vec..Vec$LT$u8$C$A$GT$$GT$5write17hf1a6df91b3a9c331E', symObjAddr: 0x2731C, symBinAddr: 0x100038A50, symSize: 0x84 }
  - { offset: 0x82561, size: 0x8, addend: 0x0, symName: '__ZN3std2io5impls74_$LT$impl$u20$std..io..Write$u20$for$u20$alloc..vec..Vec$LT$u8$C$A$GT$$GT$14write_vectored17h935681c1f031c204E', symObjAddr: 0x273A0, symBinAddr: 0x100038AD4, symSize: 0x174 }
  - { offset: 0x827AE, size: 0x8, addend: 0x0, symName: '__ZN3std2io5impls74_$LT$impl$u20$std..io..Write$u20$for$u20$alloc..vec..Vec$LT$u8$C$A$GT$$GT$17is_write_vectored17h4055b148f544ec6cE', symObjAddr: 0x27514, symBinAddr: 0x100038C48, symSize: 0x14 }
  - { offset: 0x827C9, size: 0x8, addend: 0x0, symName: '__ZN3std2io5impls74_$LT$impl$u20$std..io..Write$u20$for$u20$alloc..vec..Vec$LT$u8$C$A$GT$$GT$9write_all17h8667482891c5bc01E', symObjAddr: 0x27528, symBinAddr: 0x100038C5C, symSize: 0x80 }
  - { offset: 0x82907, size: 0x8, addend: 0x0, symName: '__ZN3std2io5impls74_$LT$impl$u20$std..io..Write$u20$for$u20$alloc..vec..Vec$LT$u8$C$A$GT$$GT$5flush17h1aa70c4ce0391c44E', symObjAddr: 0x275A8, symBinAddr: 0x100038CDC, symSize: 0x14 }
  - { offset: 0x82ADF, size: 0x8, addend: 0x0, symName: __ZN3std2io5error14repr_bitpacked11decode_repr17h37cbf447dd36b64bE, symObjAddr: 0x26A7C, symBinAddr: 0x100038544, symSize: 0x64 }
  - { offset: 0x82B4E, size: 0x8, addend: 0x0, symName: '__ZN58_$LT$std..io..error..Error$u20$as$u20$core..fmt..Debug$GT$3fmt17h4ed4286e752207faE', symObjAddr: 0x26AE0, symBinAddr: 0x1000385A8, symSize: 0x10 }
  - { offset: 0x82B81, size: 0x8, addend: 0x0, symName: '__ZN3std2io5error83_$LT$impl$u20$core..fmt..Debug$u20$for$u20$std..io..error..repr_bitpacked..Repr$GT$3fmt17h65ae83bc7dc9681bE', symObjAddr: 0x26D88, symBinAddr: 0x1000385B8, symSize: 0x294 }
  - { offset: 0x82DCC, size: 0x8, addend: 0x0, symName: '__ZN60_$LT$std..io..error..Error$u20$as$u20$core..fmt..Display$GT$3fmt17h9bd80ee0c1811a25E', symObjAddr: 0x2701C, symBinAddr: 0x10003884C, symSize: 0x204 }
  - { offset: 0x8302B, size: 0x8, addend: 0x0, symName: '__ZN62_$LT$std..io..error..ErrorKind$u20$as$u20$core..fmt..Debug$GT$3fmt17h219a5c9d2c7eda43E', symObjAddr: 0x3C098, symBinAddr: 0x10003E664, symSize: 0x34 }
  - { offset: 0x83063, size: 0x8, addend: 0x0, symName: '__ZN3std2io8buffered9bufwriter18BufWriter$LT$W$GT$9flush_buf17h4bdccd2184fd8b56E', symObjAddr: 0x25FE4, symBinAddr: 0x100038340, symSize: 0x204 }
  - { offset: 0x83619, size: 0x8, addend: 0x0, symName: '__ZN3std2io8buffered9bufwriter18BufWriter$LT$W$GT$14write_all_cold17h03d13fe4cf302958E', symObjAddr: 0x26374, symBinAddr: 0x100058B5C, symSize: 0x128 }
  - { offset: 0x83A5A, size: 0x8, addend: 0x0, symName: '__ZN61_$LT$$RF$std..io..stdio..Stdout$u20$as$u20$std..io..Write$GT$9write_fmt17h14426c11ecd17a4cE', symObjAddr: 0x2A280, symBinAddr: 0x100038CF0, symSize: 0x18C }
  - { offset: 0x83E54, size: 0x8, addend: 0x0, symName: '__ZN61_$LT$std..io..stdio..StdoutLock$u20$as$u20$std..io..Write$GT$9write_all17hdf550e962fae6ee2E', symObjAddr: 0x2A744, symBinAddr: 0x100038E7C, symSize: 0x268 }
  - { offset: 0x8462F, size: 0x8, addend: 0x0, symName: __ZN3std2io5stdio6Stderr4lock17ha6b178440672670eE, symObjAddr: 0x2ACBC, symBinAddr: 0x1000390E4, symSize: 0xF0 }
  - { offset: 0x848E9, size: 0x8, addend: 0x0, symName: '__ZN57_$LT$std..io..stdio..Stderr$u20$as$u20$std..io..Write$GT$9write_all17h260734355be000e3E', symObjAddr: 0x2AEAC, symBinAddr: 0x1000391D4, symSize: 0x9C }
  - { offset: 0x84B03, size: 0x8, addend: 0x0, symName: '__ZN61_$LT$std..io..stdio..StderrLock$u20$as$u20$std..io..Write$GT$9write_all17hc3e90b133b2e80baE', symObjAddr: 0x2B7D4, symBinAddr: 0x100039270, symSize: 0x114 }
  - { offset: 0x84EA4, size: 0x8, addend: 0x0, symName: __ZN3std2io5stdio22try_set_output_capture17h3c34954bc62c0e61E, symObjAddr: 0x2BA8C, symBinAddr: 0x100039384, symSize: 0xF4 }
  - { offset: 0x850F7, size: 0x8, addend: 0x0, symName: __ZN3std2io5stdio31print_to_buffer_if_capture_used17h604f8acf6a08e2ebE, symObjAddr: 0x2BB80, symBinAddr: 0x100039478, symSize: 0x20C }
  - { offset: 0x85802, size: 0x8, addend: 0x0, symName: __ZN3std2io5stdio6_print17h6200d46cef53dee1E, symObjAddr: 0x2BE5C, symBinAddr: 0x100039684, symSize: 0xE4 }
  - { offset: 0x85967, size: 0x8, addend: 0x0, symName: __ZN3std2io19default_read_to_end16small_probe_read17heb774478ee1d979dE, symObjAddr: 0x2CA8C, symBinAddr: 0x100039768, symSize: 0x104 }
  - { offset: 0x85BA5, size: 0x8, addend: 0x0, symName: '__ZN3std4sync6poison4once4Once15call_once_force28_$u7b$$u7b$closure$u7d$$u7d$17hb663b4fc9d65cdd9E', symObjAddr: 0x36574, symBinAddr: 0x10003C1B8, symSize: 0x60 }
  - { offset: 0x85C87, size: 0x8, addend: 0x0, symName: '__ZN3std4sync6poison4once4Once15call_once_force28_$u7b$$u7b$closure$u7d$$u7d$17hdc9b4573ce8ff5c2E', symObjAddr: 0x365D4, symBinAddr: 0x10003C218, symSize: 0x80 }
  - { offset: 0x85DF5, size: 0x8, addend: 0x0, symName: '__ZN3std4sync6poison4once4Once9call_once28_$u7b$$u7b$closure$u7d$$u7d$17h972e10e961241d2eE', symObjAddr: 0x36114, symBinAddr: 0x10003BF5C, symSize: 0x25C }
  - { offset: 0x86848, size: 0x8, addend: 0x0, symName: '__ZN3std4sync9once_lock17OnceLock$LT$T$GT$10initialize17h5a4e2f750c24f788E', symObjAddr: 0x37008, symBinAddr: 0x100058C90, symSize: 0x64 }
  - { offset: 0x86873, size: 0x8, addend: 0x0, symName: '__ZN3std4sync9once_lock17OnceLock$LT$T$GT$10initialize17h5a4e2f750c24f788E', symObjAddr: 0x37008, symBinAddr: 0x100058C90, symSize: 0x64 }
  - { offset: 0x86887, size: 0x8, addend: 0x0, symName: '__ZN3std4sync9once_lock17OnceLock$LT$T$GT$10initialize17h5a4e2f750c24f788E', symObjAddr: 0x37008, symBinAddr: 0x100058C90, symSize: 0x64 }
  - { offset: 0x8689B, size: 0x8, addend: 0x0, symName: '__ZN3std4sync9once_lock17OnceLock$LT$T$GT$10initialize17h5a4e2f750c24f788E', symObjAddr: 0x37008, symBinAddr: 0x100058C90, symSize: 0x64 }
  - { offset: 0x868B1, size: 0x8, addend: 0x0, symName: '__ZN3std4sync9once_lock17OnceLock$LT$T$GT$10initialize17hde8bf60cb9cf1a08E', symObjAddr: 0x3706C, symBinAddr: 0x100058CF4, symSize: 0x68 }
  - { offset: 0x868DC, size: 0x8, addend: 0x0, symName: '__ZN3std4sync9once_lock17OnceLock$LT$T$GT$10initialize17hde8bf60cb9cf1a08E', symObjAddr: 0x3706C, symBinAddr: 0x100058CF4, symSize: 0x68 }
  - { offset: 0x868F0, size: 0x8, addend: 0x0, symName: '__ZN3std4sync9once_lock17OnceLock$LT$T$GT$10initialize17hde8bf60cb9cf1a08E', symObjAddr: 0x3706C, symBinAddr: 0x100058CF4, symSize: 0x68 }
  - { offset: 0x86904, size: 0x8, addend: 0x0, symName: '__ZN3std4sync9once_lock17OnceLock$LT$T$GT$10initialize17hde8bf60cb9cf1a08E', symObjAddr: 0x3706C, symBinAddr: 0x100058CF4, symSize: 0x68 }
  - { offset: 0x86A78, size: 0x8, addend: 0x0, symName: __ZN3std2rt19lang_start_internal17h95cf27b851151b9cE, symObjAddr: 0x1EEA4, symBinAddr: 0x100036FCC, symSize: 0x684 }
  - { offset: 0x876A4, size: 0x8, addend: 0x0, symName: __ZN3std12backtrace_rs9symbolize5gimli7Context3new17h596fdfe772dc2bb6E, symObjAddr: 0x482F4, symBinAddr: 0x100042F64, symSize: 0x2410 }
  - { offset: 0x8B565, size: 0x8, addend: 0x0, symName: __ZN3std12backtrace_rs9symbolize5gimli7Context11find_frames17h5933b96d93a6487fE, symObjAddr: 0x4A704, symBinAddr: 0x100045374, symSize: 0x37C }
  - { offset: 0x8B9F9, size: 0x8, addend: 0x0, symName: __ZN3std12backtrace_rs9symbolize5gimli5macho6Object5parse17h7c99ba302784e02bE, symObjAddr: 0x4D518, symBinAddr: 0x100048158, symSize: 0xBD0 }
  - { offset: 0x8D8B8, size: 0x8, addend: 0x0, symName: __ZN3std12backtrace_rs9symbolize5gimli5macho6Object7section17h7775decf80db3f1dE, symObjAddr: 0x4E0E8, symBinAddr: 0x100048D28, symSize: 0x3A0 }
  - { offset: 0x8DD8E, size: 0x8, addend: 0x0, symName: __ZN3std12backtrace_rs9symbolize5gimli5macho11find_header17hcafb8c4177e72185E, symObjAddr: 0x4D344, symBinAddr: 0x100047F84, symSize: 0x1D4 }
  - { offset: 0x8E491, size: 0x8, addend: 0x0, symName: __ZN3std12backtrace_rs9symbolize5gimli4mmap17h52426abb42b033dbE, symObjAddr: 0x4AA80, symBinAddr: 0x1000456F0, symSize: 0x160 }
  - { offset: 0x8EAA7, size: 0x8, addend: 0x0, symName: __ZN3std12backtrace_rs9symbolize5gimli7resolve17h4e500df68d74bbd0E, symObjAddr: 0x4ABE0, symBinAddr: 0x100045850, symSize: 0x2734 }
  - { offset: 0x94AB2, size: 0x8, addend: 0x0, symName: __ZN3std12backtrace_rs9symbolize6Symbol4name17hfe1d12d8092fe441E, symObjAddr: 0x3B724, symBinAddr: 0x10003DFB0, symSize: 0xE4 }
  - { offset: 0x94BED, size: 0x8, addend: 0x0, symName: '__ZN79_$LT$std..backtrace_rs..symbolize..SymbolName$u20$as$u20$core..fmt..Display$GT$3fmt17hebc8fecc1f34ea4cE', symObjAddr: 0x3B948, symBinAddr: 0x10003E094, symSize: 0x100 }
  - { offset: 0x94D2B, size: 0x8, addend: 0x0, symName: __ZN3std12backtrace_rs9backtrace9libunwind5trace8trace_fn17h8dbf4a7a3c414c4fE, symObjAddr: 0x482AC, symBinAddr: 0x100042F1C, symSize: 0x48 }
  - { offset: 0x94E0A, size: 0x8, addend: 0x0, symName: __ZN3std12backtrace_rs5print17BacktraceFrameFmt21print_raw_with_column17h4b2c8f5f934c00c0E, symObjAddr: 0x3BB48, symBinAddr: 0x10003E194, symSize: 0x4D0 }
  - { offset: 0x9510E, size: 0x8, addend: 0x0, symName: __ZN3std6thread7current16try_with_current17h38cb00b0189d4132E, symObjAddr: 0x1F754, symBinAddr: 0x100037650, symSize: 0x98 }
  - { offset: 0x95242, size: 0x8, addend: 0x0, symName: __ZN3std6thread7current12init_current17hb7b435bd17801980E, symObjAddr: 0x1F900, symBinAddr: 0x100058964, symSize: 0x17C }
  - { offset: 0x9560E, size: 0x8, addend: 0x0, symName: __ZN3std6thread6Thread3new17h37ed5d6af114daceE, symObjAddr: 0x20814, symBinAddr: 0x10003781C, symSize: 0x164 }
  - { offset: 0x95A7B, size: 0x8, addend: 0x0, symName: '__ZN68_$LT$std..thread..local..AccessError$u20$as$u20$core..fmt..Debug$GT$3fmt17hadafb6691b43fd9bE', symObjAddr: 0x20080, symBinAddr: 0x1000376E8, symSize: 0x38 }
  - { offset: 0x95A96, size: 0x8, addend: 0x0, symName: __ZN3std6thread5local18panic_access_error17h9c565d65be312c10E, symObjAddr: 0x200D8, symBinAddr: 0x100058AE0, symSize: 0x44 }
  - { offset: 0x95B29, size: 0x8, addend: 0x0, symName: '__ZN118_$LT$std..thread..thread_name_string..ThreadNameString$u20$as$u20$core..convert..From$LT$alloc..string..String$GT$$GT$4from17h83ebc56d52812e83E', symObjAddr: 0x20718, symBinAddr: 0x100037720, symSize: 0xFC }
  - { offset: 0x95D14, size: 0x8, addend: 0x0, symName: __ZN3std6thread8ThreadId3new9exhausted17h1c0c206286c216f1E, symObjAddr: 0x206E0, symBinAddr: 0x100058B24, symSize: 0x38 }
  - { offset: 0x95DFD, size: 0x8, addend: 0x0, symName: __ZN3std5panic19get_backtrace_style17hb0947c7d43e173b3E, symObjAddr: 0x31B78, symBinAddr: 0x10003A40C, symSize: 0x10C }
  - { offset: 0x95E1B, size: 0x8, addend: 0x0, symName: __ZN3std5panic19get_backtrace_style17hb0947c7d43e173b3E, symObjAddr: 0x31B78, symBinAddr: 0x10003A40C, symSize: 0x10C }
  - { offset: 0x95E30, size: 0x8, addend: 0x0, symName: __ZN3std5panic19get_backtrace_style17hb0947c7d43e173b3E, symObjAddr: 0x31B78, symBinAddr: 0x10003A40C, symSize: 0x10C }
  - { offset: 0x96244, size: 0x8, addend: 0x0, symName: __ZN3std3env11current_dir17h378d2e00353b8c55E, symObjAddr: 0x21D9C, symBinAddr: 0x100037980, symSize: 0x1D0 }
  - { offset: 0x965BD, size: 0x8, addend: 0x0, symName: __ZN3std3env7vars_os17h852cf544c003c314E, symObjAddr: 0x21F7C, symBinAddr: 0x100037B50, symSize: 0x314 }
  - { offset: 0x96C40, size: 0x8, addend: 0x0, symName: __ZN3std3env4_var17hedb8b309980f1fb0E, symObjAddr: 0x225F0, symBinAddr: 0x100037E64, symSize: 0xA8 }
  - { offset: 0x96D3C, size: 0x8, addend: 0x0, symName: __ZN3std3env7_var_os17h91cf52b19c1ae9d5E, symObjAddr: 0x22698, symBinAddr: 0x100037F0C, symSize: 0x160 }
  - { offset: 0x96FFF, size: 0x8, addend: 0x0, symName: __ZN3std2fs11OpenOptions5_open17h060c4979cd359a16E, symObjAddr: 0x24BC4, symBinAddr: 0x1000380F0, symSize: 0x250 }
  - { offset: 0x971BC, size: 0x8, addend: 0x0, symName: '__ZN48_$LT$std..fs..File$u20$as$u20$std..io..Write$GT$5write17hae8351bd5e30937bE', symObjAddr: 0x2486C, symBinAddr: 0x1000380A4, symSize: 0x4C }
  - { offset: 0x9735C, size: 0x8, addend: 0x0, symName: __ZN3std5alloc24default_alloc_error_hook17h2ab9053c5916c535E, symObjAddr: 0x39CF4, symBinAddr: 0x10003CC0C, symSize: 0x13C }
  - { offset: 0x9759F, size: 0x8, addend: 0x0, symName: ___rdl_alloc, symObjAddr: 0x39E30, symBinAddr: 0x10003CD48, symSize: 0x6C }
  - { offset: 0x9761B, size: 0x8, addend: 0x0, symName: ___rdl_dealloc, symObjAddr: 0x39E9C, symBinAddr: 0x10003CDB4, symSize: 0x10 }
  - { offset: 0x9764B, size: 0x8, addend: 0x0, symName: ___rdl_realloc, symObjAddr: 0x39EAC, symBinAddr: 0x10003CDC4, symSize: 0xB0 }
  - { offset: 0x9771D, size: 0x8, addend: 0x0, symName: ___rdl_alloc_zeroed, symObjAddr: 0x39F5C, symBinAddr: 0x10003CE74, symSize: 0x90 }
  - { offset: 0x977BB, size: 0x8, addend: 0x0, symName: __ZN3std5alloc8rust_oom17hb46c5aeb63fa3cb5E, symObjAddr: 0x481B8, symBinAddr: 0x100042ED8, symSize: 0x2C }
  - { offset: 0x9780A, size: 0x8, addend: 0x0, symName: ___rg_oom, symObjAddr: 0x481E4, symBinAddr: 0x100042F04, symSize: 0x18 }
  - { offset: 0x97951, size: 0x8, addend: 0x0, symName: '__ZN5gimli4read4unit32AttributeValue$LT$R$C$Offset$GT$11udata_value17h2b61cc9b6a98fb32E', symObjAddr: 0x14DE0, symBinAddr: 0x10002D4DC, symSize: 0x90 }
  - { offset: 0x979AC, size: 0x8, addend: 0x0, symName: __ZN5gimli4read4unit15parse_attribute17h49f957a62d462029E, symObjAddr: 0x130AC, symBinAddr: 0x10002B7A8, symSize: 0xF74 }
  - { offset: 0x9A69F, size: 0x8, addend: 0x0, symName: __ZN5gimli4read4unit15skip_attributes17h31562773efeee2f1E, symObjAddr: 0x14020, symBinAddr: 0x10002C71C, symSize: 0x52C }
  - { offset: 0x9B0C1, size: 0x8, addend: 0x0, symName: '__ZN5gimli4read4unit18Attribute$LT$R$GT$5value17hbc90a819c686a39aE', symObjAddr: 0x1454C, symBinAddr: 0x10002CC48, symSize: 0x5DC }
  - { offset: 0x9B666, size: 0x8, addend: 0x0, symName: '__ZN5gimli4read4unit22EntriesCursor$LT$R$GT$10next_entry17hdf28d3cec3327cb6E', symObjAddr: 0x14B28, symBinAddr: 0x10002D224, symSize: 0x2B8 }
  - { offset: 0x9BC5C, size: 0x8, addend: 0x0, symName: '__ZN5gimli4read4unit33DebugInfoUnitHeadersIter$LT$R$GT$4next17h34712ebaabdffee4E', symObjAddr: 0x14E70, symBinAddr: 0x10002D56C, symSize: 0x524 }
  - { offset: 0x9CD95, size: 0x8, addend: 0x0, symName: '__ZN90_$LT$gimli..read..unit..AttributeValue$LT$R$C$Offset$GT$$u20$as$u20$core..clone..Clone$GT$5clone17h20eda0c245e8425dE', symObjAddr: 0x19914, symBinAddr: 0x100031B58, symSize: 0x68 }
  - { offset: 0x9CFE6, size: 0x8, addend: 0x0, symName: __ZN5gimli4read6reader6Reader11read_offset17hb66bf69f998efb74E, symObjAddr: 0x179B8, symBinAddr: 0x1000300B4, symSize: 0xBC }
  - { offset: 0x9D222, size: 0x8, addend: 0x0, symName: __ZN5gimli4read6reader6Reader12read_sleb12817hd93e25793436fd15E, symObjAddr: 0x17A74, symBinAddr: 0x100030170, symSize: 0x21C }
  - { offset: 0x9D312, size: 0x8, addend: 0x0, symName: __ZN5gimli4read6reader6Reader12read_uleb12817ha415c724c08e32b4E, symObjAddr: 0x17C90, symBinAddr: 0x10003038C, symSize: 0xB0 }
  - { offset: 0x9D3C8, size: 0x8, addend: 0x0, symName: __ZN5gimli4read6reader6Reader17read_sized_offset17hbf387c98074d1971E, symObjAddr: 0x17D40, symBinAddr: 0x10003043C, symSize: 0xEC }
  - { offset: 0x9D7DB, size: 0x8, addend: 0x0, symName: __ZN5gimli4read4line13parse_file_v517hcd59a31a0bc27fa9E, symObjAddr: 0x11F1C, symBinAddr: 0x10002A618, symSize: 0x2B4 }
  - { offset: 0x9D953, size: 0x8, addend: 0x0, symName: __ZN5gimli4read4line15FileEntryFormat5parse17he68be02eb21a6f6cE, symObjAddr: 0x121D0, symBinAddr: 0x10002A8CC, symSize: 0x370 }
  - { offset: 0x9E17A, size: 0x8, addend: 0x0, symName: __ZN5gimli4read4line15parse_attribute17h6dcb28bb0d8f0d55E, symObjAddr: 0x12540, symBinAddr: 0x10002AC3C, symSize: 0x86C }
  - { offset: 0x9F917, size: 0x8, addend: 0x0, symName: __ZN5gimli4read4line18parse_directory_v517h7ed9e48bb2fa518bE, symObjAddr: 0x12DAC, symBinAddr: 0x10002B4A8, symSize: 0xE8 }
  - { offset: 0x9F9A8, size: 0x8, addend: 0x0, symName: '__ZN5gimli4read4line27FileEntry$LT$R$C$Offset$GT$5parse17h0cf5e73c1698de2fE', symObjAddr: 0x12E94, symBinAddr: 0x10002B590, symSize: 0x218 }
  - { offset: 0xA00CE, size: 0x8, addend: 0x0, symName: '__ZN5gimli4read5dwarf14Dwarf$LT$R$GT$11attr_string17hc40cc697c7ad324fE', symObjAddr: 0x17104, symBinAddr: 0x10002F800, symSize: 0x1E8 }
  - { offset: 0xA091C, size: 0x8, addend: 0x0, symName: '__ZN5gimli4read5dwarf13Unit$LT$R$GT$3new17h9c8abef5d8c50a6dE', symObjAddr: 0x15394, symBinAddr: 0x10002DA90, symSize: 0x1D70 }
  - { offset: 0xA452E, size: 0x8, addend: 0x0, symName: '__ZN5gimli4read5index18UnitIndex$LT$R$GT$5parse17haa9f95b067464b66E', symObjAddr: 0x172EC, symBinAddr: 0x10002F9E8, symSize: 0x6CC }
  - { offset: 0xA4AF5, size: 0x8, addend: 0x0, symName: '__ZN5gimli4read7aranges30ArangeHeader$LT$R$C$Offset$GT$5parse17h20619b15205da501E', symObjAddr: 0x17E2C, symBinAddr: 0x100030528, symSize: 0x2A8 }
  - { offset: 0xA53AC, size: 0x8, addend: 0x0, symName: '__ZN5gimli4read8rnglists20RngListIter$LT$R$GT$4next17h7e27fd598c933045E', symObjAddr: 0x180D4, symBinAddr: 0x1000307D0, symSize: 0xC74 }
  - { offset: 0xA82EB, size: 0x8, addend: 0x0, symName: '__ZN9addr2line8function17Function$LT$R$GT$14parse_children17he1d2dd4eaf8a7357E', symObjAddr: 0x1DDF8, symBinAddr: 0x100035F84, symSize: 0xE88 }
  - { offset: 0xA9B2A, size: 0x8, addend: 0x0, symName: __ZN9addr2line8function10name_entry17hd712c6a5749c0b0eE, symObjAddr: 0x1DA8C, symBinAddr: 0x100035C18, symSize: 0x36C }
  - { offset: 0xA9FF3, size: 0x8, addend: 0x0, symName: __ZN9addr2line8function9name_attr17h41adbb1d91e81904E, symObjAddr: 0x1EC80, symBinAddr: 0x100036E0C, symSize: 0x1C0 }
  - { offset: 0xAA216, size: 0x8, addend: 0x0, symName: '__ZN9addr2line4unit16ResUnit$LT$R$GT$25find_function_or_location17h353b18e237b7b2c9E', symObjAddr: 0x1BBAC, symBinAddr: 0x100033D38, symSize: 0x39C }
  - { offset: 0xAA77B, size: 0x8, addend: 0x0, symName: '__ZN9addr2line4unit16ResUnit$LT$R$GT$25find_function_or_location28_$u7b$$u7b$closure$u7d$$u7d$17h6a4d5a45c96dd11cE', symObjAddr: 0x1BF48, symBinAddr: 0x1000340D4, symSize: 0x1490 }
  - { offset: 0xAD0B7, size: 0x8, addend: 0x0, symName: '__ZN9addr2line16Context$LT$R$GT$9find_unit17h672f8cef0a6cef5fE', symObjAddr: 0x19A34, symBinAddr: 0x100031BC0, symSize: 0x168 }
  - { offset: 0xAD24E, size: 0x8, addend: 0x0, symName: __ZN9addr2line4line11render_file17h56c7df47359e37daE, symObjAddr: 0x19B9C, symBinAddr: 0x100031D28, symSize: 0x4C0 }
  - { offset: 0xADB64, size: 0x8, addend: 0x0, symName: __ZN9addr2line4line9LazyLines6borrow17ha6d975a019e23e93E, symObjAddr: 0x1A05C, symBinAddr: 0x1000321E8, symSize: 0x1B50 }
  - { offset: 0xB0FAF, size: 0x8, addend: 0x0, symName: '__ZN9addr2line6lookup30LoopingLookup$LT$T$C$L$C$F$GT$10new_lookup17h590d4f5c6451cf3cE', symObjAddr: 0x1D654, symBinAddr: 0x1000357E0, symSize: 0x438 }
  - { offset: 0xB154E, size: 0x8, addend: 0x0, symName: '__ZN9addr2line5frame18FrameIter$LT$R$GT$4next17h4512ac685f8f4647E', symObjAddr: 0x1D3D8, symBinAddr: 0x100035564, symSize: 0x27C }
  - { offset: 0xB19EE, size: 0x8, addend: 0x0, symName: __ZN6object4read7archive13ArchiveMember5parse17he23e9c7a2dcdb639E, symObjAddr: 0x19204, symBinAddr: 0x1000314AC, symSize: 0x41C }
  - { offset: 0xB2580, size: 0x8, addend: 0x0, symName: __ZN6object4read7archive23parse_bsd_extended_name17hc2b3d25eef9eeec9E, symObjAddr: 0x19620, symBinAddr: 0x1000318C8, symSize: 0x250 }
  - { offset: 0xB33A5, size: 0x8, addend: 0x0, symName: _OUTLINED_FUNCTION_0, symObjAddr: 0x4E488, symBinAddr: 0x1000490C8, symSize: 0x24 }
  - { offset: 0xB33BD, size: 0x8, addend: 0x0, symName: _OUTLINED_FUNCTION_1, symObjAddr: 0x4E4AC, symBinAddr: 0x1000490EC, symSize: 0x8 }
  - { offset: 0xB33D5, size: 0x8, addend: 0x0, symName: _OUTLINED_FUNCTION_2, symObjAddr: 0x4E4B4, symBinAddr: 0x1000490F4, symSize: 0x10 }
  - { offset: 0xB33ED, size: 0x8, addend: 0x0, symName: _OUTLINED_FUNCTION_3, symObjAddr: 0x4E4C4, symBinAddr: 0x100049104, symSize: 0x8 }
  - { offset: 0xB3405, size: 0x8, addend: 0x0, symName: _OUTLINED_FUNCTION_4, symObjAddr: 0x4E4CC, symBinAddr: 0x10004910C, symSize: 0x8 }
  - { offset: 0xB341D, size: 0x8, addend: 0x0, symName: _OUTLINED_FUNCTION_5, symObjAddr: 0x4E4D4, symBinAddr: 0x100049114, symSize: 0xC }
  - { offset: 0xB3453, size: 0x8, addend: 0x0, symName: '__ZN4core3ptr49drop_in_place$LT$panic_unwind..imp..Exception$GT$17h82c2656372694058E', symObjAddr: 0x0, symBinAddr: 0x100049120, symSize: 0x78 }
  - { offset: 0xB3479, size: 0x8, addend: 0x0, symName: '__ZN4core3ptr49drop_in_place$LT$panic_unwind..imp..Exception$GT$17h82c2656372694058E', symObjAddr: 0x0, symBinAddr: 0x100049120, symSize: 0x78 }
  - { offset: 0xB3580, size: 0x8, addend: 0x0, symName: '__ZN4core3ptr74drop_in_place$LT$alloc..boxed..Box$LT$panic_unwind..imp..Exception$GT$$GT$17h401304109b323233E', symObjAddr: 0x78, symBinAddr: 0x100049198, symSize: 0x8C }
  - { offset: 0xB3856, size: 0x8, addend: 0x0, symName: __ZN12panic_unwind3imp5panic17exception_cleanup17h71dcf2e4fc4aa769E, symObjAddr: 0x214, symBinAddr: 0x100049334, symSize: 0x18 }
  - { offset: 0xB3872, size: 0x8, addend: 0x0, symName: ___rust_panic_cleanup, symObjAddr: 0x104, symBinAddr: 0x100049224, symSize: 0x68 }
  - { offset: 0xB3914, size: 0x8, addend: 0x0, symName: ___rust_start_panic, symObjAddr: 0x16C, symBinAddr: 0x10004928C, symSize: 0xA8 }
  - { offset: 0xB3A0B, size: 0x8, addend: 0x0, symName: __ZN9hashbrown3raw11Fallibility17capacity_overflow17h33a5876e92dc1319E, symObjAddr: 0xC8, symBinAddr: 0x100051BA4, symSize: 0x44 }
  - { offset: 0xB3A3A, size: 0x8, addend: 0x0, symName: __ZN9hashbrown3raw11Fallibility9alloc_err17h5d107b542d4ae344E, symObjAddr: 0x10C, symBinAddr: 0x100051BE8, symSize: 0x24 }
  - { offset: 0xB3AAB, size: 0x8, addend: 0x0, symName: __ZN4core3fmt5Write9write_fmt17h34da48fe3ce12459E, symObjAddr: 0xB0, symBinAddr: 0x100051C0C, symSize: 0x1C }
  - { offset: 0xB3AED, size: 0x8, addend: 0x0, symName: '__ZN53_$LT$core..fmt..Error$u20$as$u20$core..fmt..Debug$GT$3fmt17h157e499588de2939E', symObjAddr: 0x1A0, symBinAddr: 0x100051C50, symSize: 0x20 }
  - { offset: 0xB3B74, size: 0x8, addend: 0x0, symName: '__ZN4core3ptr42drop_in_place$LT$alloc..string..String$GT$17h80ba3db6f9cea51cE', symObjAddr: 0xF4, symBinAddr: 0x100051C28, symSize: 0x28 }
  - { offset: 0xB3C7A, size: 0x8, addend: 0x0, symName: '__ZN69_$LT$core..alloc..layout..LayoutError$u20$as$u20$core..fmt..Debug$GT$3fmt17h847390e718c251f1E', symObjAddr: 0x1C0, symBinAddr: 0x100051C70, symSize: 0x20 }
  - { offset: 0xB40E6, size: 0x8, addend: 0x0, symName: __ZN5alloc7raw_vec17capacity_overflow17hf0a187d8de84083bE, symObjAddr: 0x1E0, symBinAddr: 0x100051C90, symSize: 0x34 }
  - { offset: 0xB4128, size: 0x8, addend: 0x0, symName: '__ZN5alloc7raw_vec19RawVec$LT$T$C$A$GT$8grow_one17h207f2a977af11d07E', symObjAddr: 0x214, symBinAddr: 0x100051CC4, symSize: 0xAC }
  - { offset: 0xB42C7, size: 0x8, addend: 0x0, symName: '__ZN5alloc7raw_vec20RawVecInner$LT$A$GT$7reserve21do_reserve_and_handle17hf907109019113e80E', symObjAddr: 0x2C0, symBinAddr: 0x1000596B4, symSize: 0xB0 }
  - { offset: 0xB43C9, size: 0x8, addend: 0x0, symName: __ZN5alloc7raw_vec11finish_grow17h91993be477efd13cE, symObjAddr: 0x370, symBinAddr: 0x100059764, symSize: 0x88 }
  - { offset: 0xB443F, size: 0x8, addend: 0x0, symName: __ZN5alloc7raw_vec12handle_error17h7f0cbdf2396d2d52E, symObjAddr: 0x3F8, symBinAddr: 0x1000597EC, symSize: 0x18 }
  - { offset: 0xB4539, size: 0x8, addend: 0x0, symName: __ZN5alloc5alloc18handle_alloc_error17h14470fb7117d6c37E, symObjAddr: 0x410, symBinAddr: 0x100059804, symSize: 0x18 }
  - { offset: 0xB45C4, size: 0x8, addend: 0x0, symName: '__ZN93_$LT$alloc..collections..btree..mem..replace..PanicGuard$u20$as$u20$core..ops..drop..Drop$GT$4drop17h4dbb92e5b56c174aE', symObjAddr: 0xE10, symBinAddr: 0x100051D70, symSize: 0xC }
  - { offset: 0xB4768, size: 0x8, addend: 0x0, symName: __ZN5alloc6string6String15from_utf8_lossy17h7d31b366d97043dfE, symObjAddr: 0x2F28, symBinAddr: 0x100052230, symSize: 0x238 }
  - { offset: 0xB4CC3, size: 0x8, addend: 0x0, symName: '__ZN98_$LT$alloc..string..String$u20$as$u20$core..convert..From$LT$alloc..borrow..Cow$LT$str$GT$$GT$$GT$4from17hde800050cd4f6a42E', symObjAddr: 0x4D48, symBinAddr: 0x100052468, symSize: 0xBC }
  - { offset: 0xB4E39, size: 0x8, addend: 0x0, symName: '__ZN58_$LT$alloc..string..String$u20$as$u20$core..fmt..Write$GT$9write_str17h4bc2793cacc1d696E', symObjAddr: 0x4E04, symBinAddr: 0x100052524, symSize: 0x78 }
  - { offset: 0xB4F8C, size: 0x8, addend: 0x0, symName: '__ZN58_$LT$alloc..string..String$u20$as$u20$core..fmt..Write$GT$10write_char17h67c485e816708459E', symObjAddr: 0x4E7C, symBinAddr: 0x10005259C, symSize: 0x148 }
  - { offset: 0xB52E1, size: 0x8, addend: 0x0, symName: '__ZN72_$LT$$RF$str$u20$as$u20$alloc..ffi..c_str..CString..new..SpecNewImpl$GT$13spec_new_impl17h37cb9b6572c7448bE', symObjAddr: 0xEA8, symBinAddr: 0x100051D7C, symSize: 0x11C }
  - { offset: 0xB5522, size: 0x8, addend: 0x0, symName: __ZN5alloc3ffi5c_str7CString19_from_vec_unchecked17h8dccb886daea0b28E, symObjAddr: 0x1110, symBinAddr: 0x100051E98, symSize: 0x160 }
  - { offset: 0xB584E, size: 0x8, addend: 0x0, symName: '__ZN5alloc3ffi5c_str131_$LT$impl$u20$core..convert..From$LT$$RF$core..ffi..c_str..CStr$GT$$u20$for$u20$alloc..boxed..Box$LT$core..ffi..c_str..CStr$GT$$GT$4from17hdf0b8dc43b6e7f83E', symObjAddr: 0x15EC, symBinAddr: 0x100051FF8, symSize: 0x88 }
  - { offset: 0xB5954, size: 0x8, addend: 0x0, symName: __ZN5alloc3fmt6format12format_inner17ha4482be48280c9dcE, symObjAddr: 0x195C, symBinAddr: 0x100052080, symSize: 0x1B0 }
  - { offset: 0xB5B9D, size: 0x8, addend: 0x0, symName: __ZN5alloc4sync32arcinner_layout_for_value_layout17h83c76efa9058bc15E, symObjAddr: 0x516C, symBinAddr: 0x1000526E4, symSize: 0x74 }
  - { offset: 0xB5EDE, size: 0x8, addend: 0x0, symName: __ZN4core3num22from_ascii_radix_panic8do_panic7runtime17hbd3939a7be6472a6E, symObjAddr: 0x17130, symBinAddr: 0x100056F3C, symSize: 0x44 }
  - { offset: 0xB5F11, size: 0x8, addend: 0x0, symName: __ZN4core3num22from_ascii_radix_panic17h997eb0f270b6b988E, symObjAddr: 0x4294, symBinAddr: 0x10005981C, symSize: 0xC }
  - { offset: 0xB62C0, size: 0x8, addend: 0x0, symName: __ZN4core5slice5index26slice_start_index_len_fail8do_panic7runtime17h9ddc6a7ecebba1e9E, symObjAddr: 0x1B12C, symBinAddr: 0x1000578B4, symSize: 0x50 }
  - { offset: 0xB62F3, size: 0x8, addend: 0x0, symName: __ZN4core5slice5index26slice_start_index_len_fail17hbef4cde757a23982E, symObjAddr: 0xEAAC, symBinAddr: 0x100059C3C, symSize: 0xC }
  - { offset: 0xB6339, size: 0x8, addend: 0x0, symName: __ZN4core5slice5index24slice_end_index_len_fail8do_panic7runtime17h385f2d9d99153a75E, symObjAddr: 0x1B17C, symBinAddr: 0x100057904, symSize: 0x50 }
  - { offset: 0xB636C, size: 0x8, addend: 0x0, symName: __ZN4core5slice5index24slice_end_index_len_fail17ha150b75f771021fbE, symObjAddr: 0xEAB8, symBinAddr: 0x100059C48, symSize: 0xC }
  - { offset: 0xB63B2, size: 0x8, addend: 0x0, symName: __ZN4core5slice5index22slice_index_order_fail8do_panic7runtime17he0b28f8ab2cd970eE, symObjAddr: 0x1B1CC, symBinAddr: 0x100057954, symSize: 0x50 }
  - { offset: 0xB63E5, size: 0x8, addend: 0x0, symName: __ZN4core5slice5index22slice_index_order_fail17h7613890af586566aE, symObjAddr: 0xEAC4, symBinAddr: 0x100059C54, symSize: 0xC }
  - { offset: 0xB67D6, size: 0x8, addend: 0x0, symName: __ZN4core5slice6memchr14memchr_aligned17h6296e9c99467795dE, symObjAddr: 0xE3FC, symBinAddr: 0x100054BA0, symSize: 0xE8 }
  - { offset: 0xB68B2, size: 0x8, addend: 0x0, symName: __ZN4core5slice6memchr7memrchr17h6227400e5108dcb2E, symObjAddr: 0xE4E4, symBinAddr: 0x100054C88, symSize: 0x120 }
  - { offset: 0xB6A0B, size: 0x8, addend: 0x0, symName: __ZN4core5slice4sort6stable5drift11sqrt_approx17hea6fce954f57e78dE, symObjAddr: 0xE604, symBinAddr: 0x100054DA8, symSize: 0x38 }
  - { offset: 0xB6A88, size: 0x8, addend: 0x0, symName: __ZN4core5slice4sort6shared9smallsort22panic_on_ord_violation17h87158ad44664865dE, symObjAddr: 0xE63C, symBinAddr: 0x100059C04, symSize: 0x38 }
  - { offset: 0xB6C51, size: 0x8, addend: 0x0, symName: '__ZN42_$LT$str$u20$as$u20$core..fmt..Display$GT$3fmt17hf009c24fe723987dE', symObjAddr: 0xE0B4, symBinAddr: 0x100054920, symSize: 0x20 }
  - { offset: 0xB6E3F, size: 0x8, addend: 0x0, symName: __ZN4core3fmt9Formatter12pad_integral17hc0a697f6bef9bc99E, symObjAddr: 0xB878, symBinAddr: 0x1000537B0, symSize: 0x3E8 }
  - { offset: 0xB7135, size: 0x8, addend: 0x0, symName: __ZN4core3fmt9Formatter3pad17hc45fb048fd353932E, symObjAddr: 0xBCDC, symBinAddr: 0x100053C14, symSize: 0x370 }
  - { offset: 0xB75F0, size: 0x8, addend: 0x0, symName: __ZN4core3fmt9Formatter9write_str17h325369b1c335017bE, symObjAddr: 0xC49C, symBinAddr: 0x100053F84, symSize: 0x1C }
  - { offset: 0xB7604, size: 0x8, addend: 0x0, symName: __ZN4core3fmt9Formatter12debug_struct17h01892abf43f6400aE, symObjAddr: 0xC4B8, symBinAddr: 0x100053FA0, symSize: 0x3C }
  - { offset: 0xB7643, size: 0x8, addend: 0x0, symName: __ZN4core3fmt9Formatter26debug_struct_field1_finish17h9a6aad483cd91d8bE, symObjAddr: 0xC4F4, symBinAddr: 0x100053FDC, symSize: 0xD0 }
  - { offset: 0xB771A, size: 0x8, addend: 0x0, symName: __ZN4core3fmt9Formatter26debug_struct_field2_finish17h50e0aebce8a58786E, symObjAddr: 0xC5C4, symBinAddr: 0x1000540AC, symSize: 0x104 }
  - { offset: 0xB77F1, size: 0x8, addend: 0x0, symName: __ZN4core3fmt9Formatter11debug_tuple17hc10fd19a9736e89bE, symObjAddr: 0xCBD8, symBinAddr: 0x1000541B0, symSize: 0x50 }
  - { offset: 0xB7846, size: 0x8, addend: 0x0, symName: __ZN4core3fmt9Formatter25debug_tuple_field1_finish17ha7de20751beabbe9E, symObjAddr: 0xCC28, symBinAddr: 0x100054200, symSize: 0x168 }
  - { offset: 0xB7A48, size: 0x8, addend: 0x0, symName: __ZN4core3fmt9Formatter25debug_tuple_field2_finish17h4e3f51f71b24019cE, symObjAddr: 0xCD90, symBinAddr: 0x100054368, symSize: 0x1E0 }
  - { offset: 0xB7D02, size: 0x8, addend: 0x0, symName: __ZN4core3fmt9Formatter10debug_list17h017ce85e0805b545E, symObjAddr: 0xDB70, symBinAddr: 0x100054548, symSize: 0x48 }
  - { offset: 0xB7DAA, size: 0x8, addend: 0x0, symName: __ZN4core3fmt8builders11DebugStruct5field17h2f0dca0d2df6974aE, symObjAddr: 0x84A0, symBinAddr: 0x100052FA8, symSize: 0x1B8 }
  - { offset: 0xB7FA9, size: 0x8, addend: 0x0, symName: __ZN4core3fmt8builders11DebugStruct6finish17he06e5b5d674203a3E, symObjAddr: 0x871C, symBinAddr: 0x100053160, symSize: 0x80 }
  - { offset: 0xB80AA, size: 0x8, addend: 0x0, symName: '__ZN68_$LT$core..fmt..builders..PadAdapter$u20$as$u20$core..fmt..Write$GT$9write_str17hfaa313c4119f7ed4E', symObjAddr: 0x81D0, symBinAddr: 0x100052CD8, symSize: 0x250 }
  - { offset: 0xB8355, size: 0x8, addend: 0x0, symName: '__ZN68_$LT$core..fmt..builders..PadAdapter$u20$as$u20$core..fmt..Write$GT$10write_char17hde86c020ea7d2eadE', symObjAddr: 0x8420, symBinAddr: 0x100052F28, symSize: 0x80 }
  - { offset: 0xB83DA, size: 0x8, addend: 0x0, symName: __ZN4core3fmt8builders10DebugTuple5field17hd1be49f816fc5cc6E, symObjAddr: 0x879C, symBinAddr: 0x1000531E0, symSize: 0x14C }
  - { offset: 0xB8566, size: 0x8, addend: 0x0, symName: __ZN4core3fmt8builders10DebugTuple6finish17h27cf27fbab1a8a2aE, symObjAddr: 0x89A8, symBinAddr: 0x10005332C, symSize: 0xB0 }
  - { offset: 0xB86B5, size: 0x8, addend: 0x0, symName: __ZN4core3fmt8builders8DebugSet5entry17h30a73ad81f14a0f2E, symObjAddr: 0x8A58, symBinAddr: 0x1000533DC, symSize: 0x14C }
  - { offset: 0xB885A, size: 0x8, addend: 0x0, symName: __ZN4core3fmt8builders9DebugList6finish17h106b57f1a22a675eE, symObjAddr: 0x8D7C, symBinAddr: 0x100053528, symSize: 0x4C }
  - { offset: 0xB8916, size: 0x8, addend: 0x0, symName: '__ZN4core3fmt3num3imp52_$LT$impl$u20$core..fmt..Display$u20$for$u20$u32$GT$3fmt17hbf1c5d9b6583f29fE', symObjAddr: 0x19B78, symBinAddr: 0x1000573F8, symSize: 0x1C }
  - { offset: 0xB893D, size: 0x8, addend: 0x0, symName: '__ZN4core3fmt3num3imp52_$LT$impl$u20$core..fmt..Display$u20$for$u20$u64$GT$3fmt17h339ac4429cb37bf0E', symObjAddr: 0x19CE0, symBinAddr: 0x100057560, symSize: 0x1C }
  - { offset: 0xB8964, size: 0x8, addend: 0x0, symName: '__ZN4core3fmt3num3imp52_$LT$impl$u20$core..fmt..Display$u20$for$u20$i32$GT$3fmt17hf55f78073eda7290E', symObjAddr: 0x19B94, symBinAddr: 0x100057414, symSize: 0x28 }
  - { offset: 0xB89C9, size: 0x8, addend: 0x0, symName: '__ZN4core3fmt3num3imp51_$LT$impl$u20$core..fmt..Display$u20$for$u20$u8$GT$3fmt17h4f4911bf2ed93697E', symObjAddr: 0x198A4, symBinAddr: 0x100057348, symSize: 0xB0 }
  - { offset: 0xB8A8F, size: 0x8, addend: 0x0, symName: '__ZN4core3fmt3num3imp21_$LT$impl$u20$u32$GT$4_fmt17h2969b048172ebb80E', symObjAddr: 0x19BBC, symBinAddr: 0x10005743C, symSize: 0x124 }
  - { offset: 0xB8B70, size: 0x8, addend: 0x0, symName: '__ZN4core3fmt3num3imp21_$LT$impl$u20$u64$GT$4_fmt17h99108e3731ddbd8bE', symObjAddr: 0x19D24, symBinAddr: 0x10005757C, symSize: 0x130 }
  - { offset: 0xB8D8B, size: 0x8, addend: 0x0, symName: '__ZN4core3fmt3num53_$LT$impl$u20$core..fmt..LowerHex$u20$for$u20$i32$GT$3fmt17ha0cbda09c03c5041E', symObjAddr: 0x18C80, symBinAddr: 0x100057148, symSize: 0x80 }
  - { offset: 0xB8E33, size: 0x8, addend: 0x0, symName: '__ZN4core3fmt3num53_$LT$impl$u20$core..fmt..UpperHex$u20$for$u20$i32$GT$3fmt17heb47dcda93036a36E', symObjAddr: 0x18D00, symBinAddr: 0x1000571C8, symSize: 0x80 }
  - { offset: 0xB8EDB, size: 0x8, addend: 0x0, symName: '__ZN4core3fmt3num53_$LT$impl$u20$core..fmt..LowerHex$u20$for$u20$i64$GT$3fmt17hf3c2c8f0bf48439fE', symObjAddr: 0x18E60, symBinAddr: 0x100057248, symSize: 0x80 }
  - { offset: 0xB8F83, size: 0x8, addend: 0x0, symName: '__ZN4core3fmt3num53_$LT$impl$u20$core..fmt..UpperHex$u20$for$u20$i64$GT$3fmt17h4be4db71703d1dabE', symObjAddr: 0x18EE0, symBinAddr: 0x1000572C8, symSize: 0x80 }
  - { offset: 0xB901E, size: 0x8, addend: 0x0, symName: '__ZN4core3fmt3num52_$LT$impl$u20$core..fmt..LowerHex$u20$for$u20$i8$GT$3fmt17h7bff1931c71ac012E', symObjAddr: 0x188C0, symBinAddr: 0x100057048, symSize: 0x80 }
  - { offset: 0xB90CD, size: 0x8, addend: 0x0, symName: '__ZN4core3fmt3num52_$LT$impl$u20$core..fmt..UpperHex$u20$for$u20$i8$GT$3fmt17h8dba84f19f74308cE', symObjAddr: 0x18940, symBinAddr: 0x1000570C8, symSize: 0x80 }
  - { offset: 0xB918B, size: 0x8, addend: 0x0, symName: '__ZN57_$LT$core..fmt..Formatter$u20$as$u20$core..fmt..Write$GT$10write_char17h712a7a5b14df20b9E', symObjAddr: 0xDCC0, symBinAddr: 0x100054590, symSize: 0x1C }
  - { offset: 0xB91BE, size: 0x8, addend: 0x0, symName: __ZN4core3fmt5Write9write_fmt17h3451af32630eef07E, symObjAddr: 0xB4E4, symBinAddr: 0x100053574, symSize: 0x1C }
  - { offset: 0xB9227, size: 0x8, addend: 0x0, symName: '__ZN59_$LT$core..fmt..Arguments$u20$as$u20$core..fmt..Display$GT$3fmt17h5a31f19e8734f16eE', symObjAddr: 0xB658, symBinAddr: 0x100053590, symSize: 0x18 }
  - { offset: 0xB9258, size: 0x8, addend: 0x0, symName: __ZN4core3fmt5write17he22fcab56bd3ec61E, symObjAddr: 0xB670, symBinAddr: 0x1000535A8, symSize: 0x208 }
  - { offset: 0xB946B, size: 0x8, addend: 0x0, symName: __ZN4core3fmt9Formatter12pad_integral12write_prefix17h37c97ab3a7046bd2E, symObjAddr: 0xBC60, symBinAddr: 0x100053B98, symSize: 0x7C }
  - { offset: 0xB94B1, size: 0x8, addend: 0x0, symName: '__ZN42_$LT$$RF$T$u20$as$u20$core..fmt..Debug$GT$3fmt17h3133fac5ab5169ddE', symObjAddr: 0x1AE44, symBinAddr: 0x1000576AC, symSize: 0xEC }
  - { offset: 0xB95E3, size: 0x8, addend: 0x0, symName: '__ZN42_$LT$$RF$T$u20$as$u20$core..fmt..Debug$GT$3fmt17h54e81ade5e5de57dE', symObjAddr: 0x1AF30, symBinAddr: 0x100057798, symSize: 0x1C }
  - { offset: 0xB95F7, size: 0x8, addend: 0x0, symName: '__ZN42_$LT$$RF$T$u20$as$u20$core..fmt..Debug$GT$3fmt17h91eecf8d28a7cefeE', symObjAddr: 0x1AF4C, symBinAddr: 0x1000577B4, symSize: 0xE4 }
  - { offset: 0xB9751, size: 0x8, addend: 0x0, symName: '__ZN40_$LT$str$u20$as$u20$core..fmt..Debug$GT$3fmt17hd8879d369458d53aE', symObjAddr: 0xDD40, symBinAddr: 0x1000545AC, symSize: 0x374 }
  - { offset: 0xB9BAA, size: 0x8, addend: 0x0, symName: '__ZN41_$LT$char$u20$as$u20$core..fmt..Debug$GT$3fmt17ha35a21095fe6b2aeE', symObjAddr: 0xE0D4, symBinAddr: 0x100054940, symSize: 0xAC }
  - { offset: 0xB9CB1, size: 0x8, addend: 0x0, symName: '__ZN43_$LT$char$u20$as$u20$core..fmt..Display$GT$3fmt17h3667dcfbeb89f1b7E', symObjAddr: 0xE180, symBinAddr: 0x1000549EC, symSize: 0xF0 }
  - { offset: 0xB9D39, size: 0x8, addend: 0x0, symName: __ZN4core3fmt17pointer_fmt_inner17ha05a056f67b250baE, symObjAddr: 0xE270, symBinAddr: 0x100054ADC, symSize: 0xC4 }
  - { offset: 0xB9DF7, size: 0x8, addend: 0x0, symName: '__ZN44_$LT$$RF$T$u20$as$u20$core..fmt..Display$GT$3fmt17h09a056bd82e73243E', symObjAddr: 0x1B044, symBinAddr: 0x100057898, symSize: 0x1C }
  - { offset: 0xB9FB3, size: 0x8, addend: 0x0, symName: __ZN4core6option13unwrap_failed17h84f662fc2717d129E, symObjAddr: 0x7B40, symBinAddr: 0x10005986C, symSize: 0x1C }
  - { offset: 0xB9FCE, size: 0x8, addend: 0x0, symName: __ZN4core6option13expect_failed17h064f2cf84916882aE, symObjAddr: 0x7B5C, symBinAddr: 0x100059888, symSize: 0x48 }
  - { offset: 0xBA026, size: 0x8, addend: 0x0, symName: '__ZN71_$LT$core..ops..range..Range$LT$Idx$GT$$u20$as$u20$core..fmt..Debug$GT$3fmt17h8610e207370f6ef7E', symObjAddr: 0x442C, symBinAddr: 0x100052758, symSize: 0x1FC }
  - { offset: 0xBA51C, size: 0x8, addend: 0x0, symName: __ZN4core6result13unwrap_failed17h2bf1684417afbe6bE, symObjAddr: 0x80FC, symBinAddr: 0x100059BA8, symSize: 0x5C }
  - { offset: 0xBA7FD, size: 0x8, addend: 0x0, symName: __ZN4core3str7pattern11StrSearcher3new17habaad989c72fb7a8E, symObjAddr: 0x10248, symBinAddr: 0x1000559F8, symSize: 0x904 }
  - { offset: 0xBAAA8, size: 0x8, addend: 0x0, symName: __ZN4core3str5count14do_count_chars17hc555c670c9b10e3bE, symObjAddr: 0xF128, symBinAddr: 0x100055024, symSize: 0x724 }
  - { offset: 0xBADF9, size: 0x8, addend: 0x0, symName: __ZN4core3str5count23char_count_general_case17h0a6ef21a4825751aE, symObjAddr: 0xF84C, symBinAddr: 0x100055748, symSize: 0x2B0 }
  - { offset: 0xBAFAF, size: 0x8, addend: 0x0, symName: __ZN4core3str6traits23str_index_overflow_fail17h6ba0069023d715bdE, symObjAddr: 0x10214, symBinAddr: 0x100059C60, symSize: 0x34 }
  - { offset: 0xBAFE4, size: 0x8, addend: 0x0, symName: __ZN4core3str8converts9from_utf817h5b7081f8e3c98111E, symObjAddr: 0xECA0, symBinAddr: 0x100054DE0, symSize: 0x244 }
  - { offset: 0xBB053, size: 0x8, addend: 0x0, symName: '__ZN60_$LT$core..str..lossy..Debug$u20$as$u20$core..fmt..Debug$GT$3fmt17h509fb95436d3e626E', symObjAddr: 0x10B4C, symBinAddr: 0x1000562FC, symSize: 0x3E4 }
  - { offset: 0xBB3EF, size: 0x8, addend: 0x0, symName: '__ZN87_$LT$core..str..lossy..Utf8Chunks$u20$as$u20$core..iter..traits..iterator..Iterator$GT$4next17hc0bb2f8797014ed2E', symObjAddr: 0x10F30, symBinAddr: 0x1000566E0, symSize: 0x1DC }
  - { offset: 0xBB5F2, size: 0x8, addend: 0x0, symName: __ZN4core3str16slice_error_fail17h8b847e853482f553E, symObjAddr: 0x111D8, symBinAddr: 0x100059C94, symSize: 0xC }
  - { offset: 0xBB60C, size: 0x8, addend: 0x0, symName: __ZN4core3str19slice_error_fail_rt17hd494714b9640772bE, symObjAddr: 0x11218, symBinAddr: 0x1000568BC, symSize: 0x390 }
  - { offset: 0xBB8B5, size: 0x8, addend: 0x0, symName: '__ZN4core4char7methods22_$LT$impl$u20$char$GT$16escape_debug_ext17hbfb443f01c84243eE', symObjAddr: 0x50B8, symBinAddr: 0x100052978, symSize: 0x260 }
  - { offset: 0xBBAD7, size: 0x8, addend: 0x0, symName: __ZN4core4char7methods15encode_utf8_raw8do_panic7runtime17h78f2c250983698c5E, symObjAddr: 0x171EC, symBinAddr: 0x100056F80, symSize: 0xC8 }
  - { offset: 0xBBB9E, size: 0x8, addend: 0x0, symName: '__ZN63_$LT$core..cell..BorrowMutError$u20$as$u20$core..fmt..Debug$GT$3fmt17h4f632190c10a8f91E', symObjAddr: 0x4F3C, symBinAddr: 0x100052954, symSize: 0x24 }
  - { offset: 0xBBBFB, size: 0x8, addend: 0x0, symName: __ZN4core4cell22panic_already_borrowed17ha893d1f06b8b63deE, symObjAddr: 0x4F80, symBinAddr: 0x100059828, symSize: 0x44 }
  - { offset: 0xBBC4B, size: 0x8, addend: 0x0, symName: __ZN4core7unicode12unicode_data15grapheme_extend11lookup_slow17hbcdf8b5a821a33ffE, symObjAddr: 0x1C978, symBinAddr: 0x1000579C8, symSize: 0x174 }
  - { offset: 0xBBE36, size: 0x8, addend: 0x0, symName: __ZN4core7unicode12unicode_data2cc6lookup17he25d7ab2d2fa0f97E, symObjAddr: 0x1C954, symBinAddr: 0x1000579A4, symSize: 0x24 }
  - { offset: 0xBBEA2, size: 0x8, addend: 0x0, symName: __ZN4core7unicode9printable12is_printable17haae76351f6525626E, symObjAddr: 0x12144, symBinAddr: 0x100056C4C, symSize: 0x2C0 }
  - { offset: 0xBC2E0, size: 0x8, addend: 0x0, symName: __ZN4core3ffi5c_str4CStr19from_bytes_with_nul17h10506affebd054b1E, symObjAddr: 0x5700, symBinAddr: 0x100052BD8, symSize: 0x100 }
  - { offset: 0xBC3CD, size: 0x8, addend: 0x0, symName: __ZN4core9panicking9panic_fmt17h6a4014bec58fba4fE, symObjAddr: 0x7C94, symBinAddr: 0x1000598D0, symSize: 0x20 }
  - { offset: 0xBC410, size: 0x8, addend: 0x0, symName: __ZN4core9panicking18panic_nounwind_fmt17hc1d4bd06ab2bbbabE, symObjAddr: 0x7CB4, symBinAddr: 0x1000598F0, symSize: 0x3C }
  - { offset: 0xBC455, size: 0x8, addend: 0x0, symName: __ZN4core9panicking5panic17h3ce9043ca357f318E, symObjAddr: 0x7CF0, symBinAddr: 0x10005992C, symSize: 0x34 }
  - { offset: 0xBC484, size: 0x8, addend: 0x0, symName: __ZN4core9panicking14panic_nounwind17h96b8083b1a8e2dbdE, symObjAddr: 0x7D24, symBinAddr: 0x100059960, symSize: 0x3C }
  - { offset: 0xBC4B3, size: 0x8, addend: 0x0, symName: __ZN4core9panicking26panic_nounwind_nobacktrace17h984deb6b7d0bc614E, symObjAddr: 0x7D60, symBinAddr: 0x10005999C, symSize: 0x3C }
  - { offset: 0xBC4E2, size: 0x8, addend: 0x0, symName: __ZN4core9panicking18panic_bounds_check17h1ecfa3d00f46f81cE, symObjAddr: 0x7DE4, symBinAddr: 0x1000599D8, symSize: 0x50 }
  - { offset: 0xBC514, size: 0x8, addend: 0x0, symName: __ZN4core9panicking19panic_cannot_unwind17ha5edf28dd2569dc8E, symObjAddr: 0x7EF8, symBinAddr: 0x100059A28, symSize: 0x18 }
  - { offset: 0xBC52F, size: 0x8, addend: 0x0, symName: __ZN4core9panicking16panic_in_cleanup17hb960b8c5dea287d4E, symObjAddr: 0x7F10, symBinAddr: 0x100059A40, symSize: 0x18 }
  - { offset: 0xBC54A, size: 0x8, addend: 0x0, symName: __ZN4core9panicking13assert_failed17h2af7932842d934b6E, symObjAddr: 0x7F8C, symBinAddr: 0x100059A58, symSize: 0x24 }
  - { offset: 0xBC565, size: 0x8, addend: 0x0, symName: __ZN4core9panicking13assert_failed17hc7c9e0269eebc316E, symObjAddr: 0x7FB0, symBinAddr: 0x100059A7C, symSize: 0x24 }
  - { offset: 0xBC580, size: 0x8, addend: 0x0, symName: __ZN4core9panicking19assert_failed_inner17hafd35c69af0230bfE, symObjAddr: 0x7FF4, symBinAddr: 0x100059AA0, symSize: 0x108 }
  - { offset: 0xBC5CD, size: 0x8, addend: 0x0, symName: __ZN4core9panicking11panic_const24panic_const_add_overflow17h0235fd41b8202631E, symObjAddr: 0x17818, symBinAddr: 0x100059CA0, symSize: 0x34 }
  - { offset: 0xBC5FC, size: 0x8, addend: 0x0, symName: __ZN4core9panicking11panic_const23panic_const_div_by_zero17h0422238fbdaad2d7E, symObjAddr: 0x179B8, symBinAddr: 0x100059CD4, symSize: 0x34 }
  - { offset: 0xBC62B, size: 0x8, addend: 0x0, symName: __ZN4core9panicking11panic_const23panic_const_rem_by_zero17h723f338bbd7af040E, symObjAddr: 0x179EC, symBinAddr: 0x100059D08, symSize: 0x34 }
  - { offset: 0xBC6A4, size: 0x8, addend: 0x0, symName: __ZN4core5alloc6layout6Layout19is_size_align_valid17h054933e8a3b2a17cE, symObjAddr: 0x126A0, symBinAddr: 0x100056F0C, symSize: 0x30 }
  - { offset: 0xBC6FD, size: 0x8, addend: 0x0, symName: _OUTLINED_FUNCTION_0, symObjAddr: 0x1D194, symBinAddr: 0x100057B3C, symSize: 0x10 }
...
