---
triple:          'arm64-apple-darwin'
binary-path:     '/Users/cedric/orange/ran-llm-claude-flow/src/rust-pipeline/target/debug/build/bzip2-sys-d096f8401eeaa2f8/build_script_build-d096f8401eeaa2f8'
relocations:
  - { offset: 0x1E, size: 0x8, addend: 0x0, symName: __RINvMNtCsfvfooZQ3Axs_4core6optionINtB3_6OptionReE3mapINtNtCse1nGBsou5OW_5alloc4sync3ArceENvYBI_INtNtB5_7convert4IntoBP_E4intoECscPlE3KlDYkr_18build_script_build, symObjAddr: 0x0, symBinAddr: 0x100000C28, symSize: 0x64 }
  - { offset: 0x68, size: 0x8, addend: 0x0, symName: __RNCINvNtCscOYdFFY2T5N_3std2rt10lang_startuE0CscPlE3KlDYkr_18build_script_build, symObjAddr: 0x654, symBinAddr: 0x10000125C, symSize: 0x34 }
  - { offset: 0xD2, size: 0x8, addend: 0x0, symName: __RINvNtCscOYdFFY2T5N_3std2rt10lang_startuECscPlE3KlDYkr_18build_script_build, symObjAddr: 0x554, symBinAddr: 0x10000117C, symSize: 0x60 }
  - { offset: 0x3E9, size: 0x8, addend: 0x0, symName: __RNvXsk_NtCscOYdFFY2T5N_3std3envNtB5_8VarErrorNtNtCsfvfooZQ3Axs_4core3fmt5Debug3fmtCscPlE3KlDYkr_18build_script_build, symObjAddr: 0xD1C, symBinAddr: 0x100001924, symSize: 0xA0 }
  - { offset: 0x518, size: 0x8, addend: 0x0, symName: __RNvXs3_NtNtCscOYdFFY2T5N_3std3ffi6os_strNtB5_8OsStringINtNtNtCsfvfooZQ3Axs_4core3ops5index5IndexNtNtBV_5range9RangeFullE5indexCscPlE3KlDYkr_18build_script_build, symObjAddr: 0xC48, symBinAddr: 0x100001850, symSize: 0x78 }
  - { offset: 0x758, size: 0x8, addend: 0x0, symName: __RINvNtNtCscOYdFFY2T5N_3std3sys9backtrace28___rust_begin_short_backtraceFEuuECscPlE3KlDYkr_18build_script_build, symObjAddr: 0x630, symBinAddr: 0x100001238, symSize: 0x24 }
  - { offset: 0x86A, size: 0x8, addend: 0x0, symName: __RNvXsH_NtCscOYdFFY2T5N_3std4pathNtB5_7PathBufNtNtNtCsfvfooZQ3Axs_4core3ops5deref5Deref5derefCscPlE3KlDYkr_18build_script_build, symObjAddr: 0xCD8, symBinAddr: 0x1000018E0, symSize: 0x34 }
  - { offset: 0x8F8, size: 0x8, addend: 0x0, symName: __RNvXs1j_NtCscOYdFFY2T5N_3std4pathNtB6_7PathBufINtNtCsfvfooZQ3Axs_4core7convert5AsRefNtB6_4PathE6as_refCscPlE3KlDYkr_18build_script_build, symObjAddr: 0xC14, symBinAddr: 0x10000181C, symSize: 0x34 }
  - { offset: 0x9A4, size: 0x8, addend: 0x0, symName: __RNvXsA_NtCscOYdFFY2T5N_3std4pathNtB5_7PathBufINtNtCsfvfooZQ3Axs_4core7convert4FromNtNtNtB7_3ffi6os_str8OsStringE4fromCscPlE3KlDYkr_18build_script_build, symObjAddr: 0xCC0, symBinAddr: 0x1000018C8, symSize: 0x18 }
  - { offset: 0xCD4, size: 0x8, addend: 0x0, symName: __RINvNtCscOYdFFY2T5N_3std2fs14create_dir_allRNtNtB4_4path7PathBufECscPlE3KlDYkr_18build_script_build, symObjAddr: 0x408, symBinAddr: 0x100001030, symSize: 0x88 }
  - { offset: 0xD3E, size: 0x8, addend: 0x0, symName: __RINvNtCscOYdFFY2T5N_3std2fs4copyNtNtB4_4path7PathBufBu_ECscPlE3KlDYkr_18build_script_build, symObjAddr: 0x490, symBinAddr: 0x1000010B8, symSize: 0xC4 }
  - { offset: 0xE07, size: 0x8, addend: 0x0, symName: __RNvXsT_NtCscOYdFFY2T5N_3std7processuNtB5_11Termination6reportCscPlE3KlDYkr_18build_script_build, symObjAddr: 0xD0C, symBinAddr: 0x100001914, symSize: 0x10 }
  - { offset: 0x127A, size: 0x8, addend: 0x0, symName: __RINvNtCsfvfooZQ3Axs_4core3ptr13drop_in_placeINtNtB4_6result6ResultNtCs8sZPpv4WdDS_10pkg_config7LibraryNtB14_5ErrorEECscPlE3KlDYkr_18build_script_build, symObjAddr: 0x5B4, symBinAddr: 0x1000011DC, symSize: 0x5C }
  - { offset: 0x23A3, size: 0x8, addend: 0x0, symName: __RNSNvYNCINvNtCscOYdFFY2T5N_3std2rt10lang_startuE0INtNtNtCsfvfooZQ3Axs_4core3ops8function6FnOnceuE9call_once6vtableCscPlE3KlDYkr_18build_script_build, symObjAddr: 0x688, symBinAddr: 0x100001290, symSize: 0x28 }
  - { offset: 0x23E7, size: 0x8, addend: 0x0, symName: __RNvYFEuINtNtNtCsfvfooZQ3Axs_4core3ops8function6FnOnceuE9call_onceCscPlE3KlDYkr_18build_script_build, symObjAddr: 0xDE0, symBinAddr: 0x1000019E8, symSize: 0x20 }
  - { offset: 0x2427, size: 0x8, addend: 0x0, symName: __RNvYNCINvNtCscOYdFFY2T5N_3std2rt10lang_startuE0INtNtNtCsfvfooZQ3Axs_4core3ops8function6FnOnceuE9call_onceCscPlE3KlDYkr_18build_script_build, symObjAddr: 0xE00, symBinAddr: 0x100001A08, symSize: 0x4C }
  - { offset: 0x246B, size: 0x8, addend: 0x0, symName: __RNvYNvYReINtNtCsfvfooZQ3Axs_4core7convert4IntoINtNtCse1nGBsou5OW_5alloc4sync3ArceEE4intoINtNtNtBc_3ops8function6FnOnceTB5_EE9call_onceCscPlE3KlDYkr_18build_script_build, symObjAddr: 0xE4C, symBinAddr: 0x100001A54, symSize: 0x34 }
  - { offset: 0x24FF, size: 0x8, addend: 0x0, symName: __RNvNvNtNtCsfvfooZQ3Axs_4core5slice3raw14from_raw_parts18precondition_checkCscPlE3KlDYkr_18build_script_build, symObjAddr: 0xA88, symBinAddr: 0x100001690, symSize: 0x168 }
  - { offset: 0x278D, size: 0x8, addend: 0x0, symName: __RNvXs1_NtCsfvfooZQ3Axs_4core7convertINtNtB7_6option6OptionReEINtB5_4IntoBy_E4intoCscPlE3KlDYkr_18build_script_build, symObjAddr: 0xBF0, symBinAddr: 0x1000017F8, symSize: 0x24 }
  - { offset: 0x327E, size: 0x8, addend: 0x0, symName: __RNvXss_NtCse1nGBsou5OW_5alloc6stringNtB5_6StringNtNtNtCsfvfooZQ3Axs_4core3ops5deref5Deref5derefCscPlE3KlDYkr_18build_script_build, symObjAddr: 0xDBC, symBinAddr: 0x1000019C4, symSize: 0x24 }
  - { offset: 0x389F, size: 0x8, addend: 0x0, symName: __RINvMNtCsfvfooZQ3Axs_4core6optionINtB3_6OptionReE3mapINtNtCse1nGBsou5OW_5alloc4sync3ArceENvYBI_INtNtB5_7convert4IntoBP_E4intoECscPlE3KlDYkr_18build_script_build, symObjAddr: 0x0, symBinAddr: 0x100000C28, symSize: 0x64 }
  - { offset: 0x3E5B, size: 0x8, addend: 0x0, symName: __RINvMs3_CsdARyWrlPtHl_2ccNtB6_5Build4fileReECscPlE3KlDYkr_18build_script_build, symObjAddr: 0x64, symBinAddr: 0x100000C8C, symSize: 0xAC }
  - { offset: 0x3E96, size: 0x8, addend: 0x0, symName: __RINvMs3_CsdARyWrlPtHl_2ccNtB6_5Build6defineINtNtCsfvfooZQ3Axs_4core6option6OptionReEECscPlE3KlDYkr_18build_script_build, symObjAddr: 0x110, symBinAddr: 0x100000D38, symSize: 0x150 }
  - { offset: 0x3EE0, size: 0x8, addend: 0x0, symName: __RINvMs3_CsdARyWrlPtHl_2ccNtB6_5Build7includeReECscPlE3KlDYkr_18build_script_build, symObjAddr: 0x260, symBinAddr: 0x100000E88, symSize: 0xAC }
  - { offset: 0x3F1B, size: 0x8, addend: 0x0, symName: __RINvMs3_CsdARyWrlPtHl_2ccNtB6_5Build7out_dirNtNtCscOYdFFY2T5N_3std4path7PathBufECscPlE3KlDYkr_18build_script_build, symObjAddr: 0x30C, symBinAddr: 0x100000F34, symSize: 0xFC }
  - { offset: 0x40C9, size: 0x8, addend: 0x0, symName: __RNvMNtCse1nGBsou5OW_5alloc6stringNtB2_6String6as_strCscPlE3KlDYkr_18build_script_build, symObjAddr: 0x6B0, symBinAddr: 0x1000012B8, symSize: 0x70 }
  - { offset: 0x43A4, size: 0x8, addend: 0x0, symName: __RNvMNtCsfvfooZQ3Axs_4core6resultINtB2_6ResultNtCs8sZPpv4WdDS_10pkg_config7LibraryNtBJ_5ErrorE5is_okCscPlE3KlDYkr_18build_script_build, symObjAddr: 0x720, symBinAddr: 0x100001328, symSize: 0x30 }
  - { offset: 0x443F, size: 0x8, addend: 0x0, symName: __RNvMs0_NtCse1nGBsou5OW_5alloc7raw_vecINtB5_6RawVecINtNtB7_4sync3ArcNtNtCscOYdFFY2T5N_3std4path4PathEE8grow_oneCscPlE3KlDYkr_18build_script_build, symObjAddr: 0x750, symBinAddr: 0x100001358, symSize: 0x94 }
  - { offset: 0x44ED, size: 0x8, addend: 0x0, symName: __RNvMs0_NtCse1nGBsou5OW_5alloc7raw_vecINtB5_6RawVecTINtNtB7_4sync3ArceEINtNtCsfvfooZQ3Axs_4core6option6OptionBN_EEE8grow_oneCscPlE3KlDYkr_18build_script_build, symObjAddr: 0x7E4, symBinAddr: 0x1000013EC, symSize: 0x94 }
  - { offset: 0x4592, size: 0x8, addend: 0x0, symName: __RNvMs12_NtCscOYdFFY2T5N_3std4pathNtB6_4Path7displayCscPlE3KlDYkr_18build_script_build, symObjAddr: 0x878, symBinAddr: 0x100001480, symSize: 0x18 }
  - { offset: 0x46C8, size: 0x8, addend: 0x0, symName: __RNvMs_NtCse1nGBsou5OW_5alloc3vecINtB4_3VecINtNtB6_4sync3ArcNtNtCscOYdFFY2T5N_3std4path4PathEE4pushCscPlE3KlDYkr_18build_script_build, symObjAddr: 0x890, symBinAddr: 0x100001498, symSize: 0xF8 }
  - { offset: 0x498C, size: 0x8, addend: 0x0, symName: __RNvMs_NtCse1nGBsou5OW_5alloc3vecINtB4_3VecTINtNtB6_4sync3ArceEINtNtCsfvfooZQ3Axs_4core6option6OptionBF_EEE4pushCscPlE3KlDYkr_18build_script_build, symObjAddr: 0x988, symBinAddr: 0x100001590, symSize: 0x100 }
  - { offset: 0x4EC5, size: 0x8, addend: 0x0, symName: __RNvCscPlE3KlDYkr_18build_script_build4main, symObjAddr: 0xE80, symBinAddr: 0x100001A88, symSize: 0xA98 }
  - { offset: 0x50AA, size: 0x8, addend: 0x0, symName: __RINvMsx_NtNtCsfvfooZQ3Axs_4core3str7patternNtB6_14TwoWaySearcher4nextNtB6_14RejectAndMatchECs8sZPpv4WdDS_10pkg_config, symObjAddr: 0x0, symBinAddr: 0x100002560, symSize: 0x4F8 }
  - { offset: 0x56C7, size: 0x8, addend: 0x0, symName: __RINvXs2U_NtNtCsfvfooZQ3Axs_4core5slice4iterINtB7_4IterNtNtCscOYdFFY2T5N_3std4path7PathBufENtNtNtNtBb_4iter6traits8iterator8Iterator3anyNCNCNvCs8sZPpv4WdDS_10pkg_config19is_static_available0s_0EB2f_, symObjAddr: 0x9F0, symBinAddr: 0x100002F50, symSize: 0xB4 }
  - { offset: 0x572C, size: 0x8, addend: 0x0, symName: __RINvXs2U_NtNtCsfvfooZQ3Axs_4core5slice4iterINtB7_4IterNtNtCscOYdFFY2T5N_3std4path7PathBufENtNtNtNtBb_4iter6traits8iterator8Iterator3anyNCNvCs8sZPpv4WdDS_10pkg_config19is_static_available0EB2d_, symObjAddr: 0xAA4, symBinAddr: 0x100003004, symSize: 0xB8 }
  - { offset: 0x5791, size: 0x8, addend: 0x0, symName: __RINvXs2U_NtNtCsfvfooZQ3Axs_4core5slice4iterINtB7_4IterNtNtCse1nGBsou5OW_5alloc6string6StringENtNtNtNtBb_4iter6traits8iterator8Iterator3anyNCNCNvCs8sZPpv4WdDS_10pkg_config19is_static_available00EB2i_, symObjAddr: 0xB5C, symBinAddr: 0x1000030BC, symSize: 0xB4 }
  - { offset: 0x57F6, size: 0x8, addend: 0x0, symName: __RINvXs2U_NtNtCsfvfooZQ3Axs_4core5slice4iterINtB7_4IterNtNtCse1nGBsou5OW_5alloc6string6StringENtNtNtNtBb_4iter6traits8iterator8Iterator4findQNCNvMs5_Cs8sZPpv4WdDS_10pkg_configNtB2m_7Library17parse_libs_cflagss0_0EB2m_, symObjAddr: 0xC10, symBinAddr: 0x100003170, symSize: 0xB4 }
  - { offset: 0x585B, size: 0x8, addend: 0x0, symName: __RINvXs2U_NtNtCsfvfooZQ3Axs_4core5slice4iterINtB7_4IterNtNtCse1nGBsou5OW_5alloc6string6StringENtNtNtNtBb_4iter6traits8iterator8Iterator4findQNCNvMs5_Cs8sZPpv4WdDS_10pkg_configNtB2m_7Library17parse_libs_cflagss4_0EB2m_, symObjAddr: 0xCC4, symBinAddr: 0x100003224, symSize: 0xB4 }
  - { offset: 0x58C0, size: 0x8, addend: 0x0, symName: __RINvXs2U_NtNtCsfvfooZQ3Axs_4core5slice4iterINtB7_4IterNtNtNtCscOYdFFY2T5N_3std3ffi6os_str8OsStringENtNtNtNtBb_4iter6traits8iterator8Iterator4folduNCINvNtNtB1F_8adapters3map8map_foldRBQ_BQ_uNCINvMCs8sZPpv4WdDS_10pkg_configNtB37_14WrappedCommand4argsRINtNtCse1nGBsou5OW_5alloc3vec3VecBQ_EB2T_E0NCINvNvB1z_8for_each4callBQ_NCINvMsi_B42_B3Z_14extend_trustedINtB2p_3MapBF_B31_EE0E0E0EB37_, symObjAddr: 0xD78, symBinAddr: 0x1000032D8, symSize: 0x1B8 }
  - { offset: 0x5A14, size: 0x8, addend: 0x0, symName: __RINvXs2U_NtNtCsfvfooZQ3Axs_4core5slice4iterINtB7_4IterNtNtNtCscOYdFFY2T5N_3std3ffi6os_str8OsStringENtNtNtNtBb_4iter6traits8iterator8Iterator4folduNCINvNtNtB1F_8adapters3map8map_foldRBQ_NtNtCse1nGBsou5OW_5alloc6string6StringuNCNvXs_Cs8sZPpv4WdDS_10pkg_configNtB3H_14WrappedCommandNtNtBb_3fmt7Display3fmts_0NCINvNvB1z_8for_each4callB2X_NCINvMsi_NtB31_3vecINtB5v_3VecB2X_E14extend_trustedINtB2p_3MapBF_B3A_EE0E0E0EB3H_, symObjAddr: 0xF30, symBinAddr: 0x100003490, symSize: 0x1B8 }
  - { offset: 0x5B68, size: 0x8, addend: 0x0, symName: __RINvXs2U_NtNtCsfvfooZQ3Axs_4core5slice4iterINtB7_4IterReENtNtNtNtBb_4iter6traits8iterator8Iterator3anyNCNvXsd_NtB9_3cmpBQ_NtB1K_13SliceContains14slice_contains0ECs8sZPpv4WdDS_10pkg_config, symObjAddr: 0x10E8, symBinAddr: 0x100003648, symSize: 0xB4 }
  - { offset: 0x5BCD, size: 0x8, addend: 0x0, symName: __RINvXs2U_NtNtCsfvfooZQ3Axs_4core5slice4iterINtB7_4IterReENtNtNtNtBb_4iter6traits8iterator8Iterator4folduNCINvNtNtBZ_8adapters3map8map_foldRBQ_NtNtNtCscOYdFFY2T5N_3std3ffi6os_str8OsStringuNCINvMCs8sZPpv4WdDS_10pkg_configNtB35_14WrappedCommand4argsRSBQ_B2c_E0NCINvNvBT_8for_each4callB2g_NCINvMsi_NtCse1nGBsou5OW_5alloc3vecINtB4I_3VecB2g_E14extend_trustedINtB1J_3MapBF_B2Z_EE0E0E0EB35_, symObjAddr: 0x119C, symBinAddr: 0x1000036FC, symSize: 0x1B0 }
  - { offset: 0x5D21, size: 0x8, addend: 0x0, symName: __RINvXs2U_NtNtCsfvfooZQ3Axs_4core5slice4iterINtB7_4IterTNtNtNtCscOYdFFY2T5N_3std3ffi6os_str8OsStringBR_EENtNtNtNtBb_4iter6traits8iterator8Iterator4folduNCINvNtNtB1K_8adapters3map8map_foldRBQ_NtNtCse1nGBsou5OW_5alloc6string6StringuNCNvXs_Cs8sZPpv4WdDS_10pkg_configNtB3M_14WrappedCommandNtNtBb_3fmt7Display3fmt0NCINvNvB1E_8for_each4callB32_NCINvMsi_NtB36_3vecINtB5y_3VecB32_E14extend_trustedINtB2u_3MapBF_B3F_EE0E0E0EB3M_, symObjAddr: 0x134C, symBinAddr: 0x1000038AC, symSize: 0x1B8 }
  - { offset: 0x5E75, size: 0x8, addend: 0x0, symName: __RINvXs2U_NtNtCsfvfooZQ3Axs_4core5slice4iterINtB7_4IterhENtNtNtNtBb_4iter6traits8iterator8Iterator4folduNCINvNtNtBY_8adapters3map8map_foldRhhuNCNvNtCse1nGBsou5OW_5alloc3str13replace_ascii0NCINvNvBS_8for_each4callhNCINvMsi_NtB2l_3vecINtB3x_3VechE14extend_trustedINtB1I_3MapBF_B2f_EE0E0E0ECs8sZPpv4WdDS_10pkg_config, symObjAddr: 0x1504, symBinAddr: 0x100003A64, symSize: 0x1B0 }
  - { offset: 0x5FC9, size: 0x8, addend: 0x0, symName: __RNvXs2U_NtNtCsfvfooZQ3Axs_4core5slice4iterINtB6_4IterNtNtCscOYdFFY2T5N_3std4path7PathBufENtNtNtNtBa_4iter6traits8iterator8Iterator4nextCs8sZPpv4WdDS_10pkg_config, symObjAddr: 0x1CF4, symBinAddr: 0x1000041E8, symSize: 0xBC }
  - { offset: 0x6117, size: 0x8, addend: 0x0, symName: __RNvXs2U_NtNtCsfvfooZQ3Axs_4core5slice4iterINtB6_4IterNtNtCse1nGBsou5OW_5alloc6string6StringENtNtNtNtBa_4iter6traits8iterator8Iterator4nextCs8sZPpv4WdDS_10pkg_config, symObjAddr: 0x1DB0, symBinAddr: 0x1000042A4, symSize: 0xBC }
  - { offset: 0x6265, size: 0x8, addend: 0x0, symName: __RNvXs2U_NtNtCsfvfooZQ3Axs_4core5slice4iterINtB6_4IterNtNtNtCscOYdFFY2T5N_3std3ffi6os_str8OsStringENtNtNtNtBa_4iter6traits8iterator8Iterator4nextCs8sZPpv4WdDS_10pkg_config, symObjAddr: 0x1E6C, symBinAddr: 0x100004360, symSize: 0xBC }
  - { offset: 0x63B3, size: 0x8, addend: 0x0, symName: __RNvXs2U_NtNtCsfvfooZQ3Axs_4core5slice4iterINtB6_4IterNtNtNtCscOYdFFY2T5N_3std3ffi6os_str8OsStringENtNtNtNtBa_4iter6traits8iterator8Iterator9size_hintCs8sZPpv4WdDS_10pkg_config, symObjAddr: 0x1F28, symBinAddr: 0x10000441C, symSize: 0x70 }
  - { offset: 0x6422, size: 0x8, addend: 0x0, symName: __RNvXs2U_NtNtCsfvfooZQ3Axs_4core5slice4iterINtB6_4IterReENtNtNtNtBa_4iter6traits8iterator8Iterator4nextCs8sZPpv4WdDS_10pkg_config, symObjAddr: 0x1F98, symBinAddr: 0x10000448C, symSize: 0xBC }
  - { offset: 0x6570, size: 0x8, addend: 0x0, symName: __RNvXs2U_NtNtCsfvfooZQ3Axs_4core5slice4iterINtB6_4IterReENtNtNtNtBa_4iter6traits8iterator8Iterator9size_hintCs8sZPpv4WdDS_10pkg_config, symObjAddr: 0x2054, symBinAddr: 0x100004548, symSize: 0x70 }
  - { offset: 0x65DF, size: 0x8, addend: 0x0, symName: __RNvXs2U_NtNtCsfvfooZQ3Axs_4core5slice4iterINtB6_4IterTNtNtNtCscOYdFFY2T5N_3std3ffi6os_str8OsStringBQ_EENtNtNtNtBa_4iter6traits8iterator8Iterator9size_hintCs8sZPpv4WdDS_10pkg_config, symObjAddr: 0x20C4, symBinAddr: 0x1000045B8, symSize: 0x70 }
  - { offset: 0x664E, size: 0x8, addend: 0x0, symName: __RNvXs2U_NtNtCsfvfooZQ3Axs_4core5slice4iterINtB6_4IterhENtNtNtNtBa_4iter6traits8iterator8Iterator4nextCs8sZPpv4WdDS_10pkg_config, symObjAddr: 0x2134, symBinAddr: 0x100004628, symSize: 0xBC }
  - { offset: 0x679C, size: 0x8, addend: 0x0, symName: __RNvXs2U_NtNtCsfvfooZQ3Axs_4core5slice4iterINtB6_4IterhENtNtNtNtBa_4iter6traits8iterator8Iterator9size_hintCs8sZPpv4WdDS_10pkg_config, symObjAddr: 0x21F0, symBinAddr: 0x1000046E4, symSize: 0x70 }
  - { offset: 0x6BC2, size: 0x8, addend: 0x0, symName: __RNvXs2V_NtNtCsfvfooZQ3Axs_4core5slice4iterINtB6_4IterhENtNtNtNtBa_4iter6traits12double_ended19DoubleEndedIterator9next_backCs8sZPpv4WdDS_10pkg_config, symObjAddr: 0x2260, symBinAddr: 0x100004754, symSize: 0x100 }
  - { offset: 0x6DE4, size: 0x8, addend: 0x0, symName: __RNvXs_NtNtCsfvfooZQ3Axs_4core5slice4iterRSReNtNtNtNtB8_4iter6traits7collect12IntoIterator9into_iterCs8sZPpv4WdDS_10pkg_config, symObjAddr: 0x2E70, symBinAddr: 0x100005198, symSize: 0x50 }
  - { offset: 0x6F33, size: 0x8, addend: 0x0, symName: __RNvXs_NtNtCsfvfooZQ3Axs_4core5slice4iterRShNtNtNtNtB8_4iter6traits7collect12IntoIterator9into_iterCs8sZPpv4WdDS_10pkg_config, symObjAddr: 0x2EC0, symBinAddr: 0x1000051E8, symSize: 0x50 }
  - { offset: 0x79D8, size: 0x8, addend: 0x0, symName: __RNvXst_NtNtCsfvfooZQ3Axs_4core3str7patternReNtB5_7Pattern12is_prefix_ofCs8sZPpv4WdDS_10pkg_config, symObjAddr: 0x2FC8, symBinAddr: 0x1000052CC, symSize: 0x4C }
  - { offset: 0x7A3F, size: 0x8, addend: 0x0, symName: __RNvXst_NtNtCsfvfooZQ3Axs_4core3str7patternReNtB5_7Pattern15is_contained_inCs8sZPpv4WdDS_10pkg_config, symObjAddr: 0x3014, symBinAddr: 0x100005318, symSize: 0x1D0 }
  - { offset: 0x7CEE, size: 0x8, addend: 0x0, symName: __RNvXst_NtNtCsfvfooZQ3Axs_4core3str7patternReNtB5_7Pattern15strip_suffix_ofCs8sZPpv4WdDS_10pkg_config, symObjAddr: 0x31E4, symBinAddr: 0x1000054E8, symSize: 0xE0 }
  - { offset: 0x7E2D, size: 0x8, addend: 0x0, symName: __RNvXs2_NtNtCsfvfooZQ3Axs_4core3str7patterncNtB5_7Pattern12is_prefix_ofCs8sZPpv4WdDS_10pkg_config, symObjAddr: 0x2360, symBinAddr: 0x100004854, symSize: 0x78 }
  - { offset: 0x7ED4, size: 0x8, addend: 0x0, symName: __RNvXs2_NtNtCsfvfooZQ3Axs_4core3str7patterncNtB5_7Pattern13into_searcherCs8sZPpv4WdDS_10pkg_config, symObjAddr: 0x23D8, symBinAddr: 0x1000048CC, symSize: 0x114 }
  - { offset: 0x7FEC, size: 0x8, addend: 0x0, symName: __RNvXs2_NtNtCsfvfooZQ3Axs_4core3str7patterncNtB5_7Pattern15as_utf8_patternCs8sZPpv4WdDS_10pkg_config, symObjAddr: 0x24EC, symBinAddr: 0x1000049E0, symSize: 0x34 }
  - { offset: 0x801A, size: 0x8, addend: 0x0, symName: __RNvXs2_NtNtCsfvfooZQ3Axs_4core3str7patterncNtB5_7Pattern15is_contained_inCs8sZPpv4WdDS_10pkg_config, symObjAddr: 0x2520, symBinAddr: 0x100004A14, symSize: 0xD8 }
  - { offset: 0x812A, size: 0x8, addend: 0x0, symName: __RNvXs7_NtNtCsfvfooZQ3Axs_4core3str7patternINtB5_18MultiCharEqPatternNCNvMB7_e4trim0ENtB5_7Pattern13into_searcherCs8sZPpv4WdDS_10pkg_config, symObjAddr: 0x25F8, symBinAddr: 0x100004AEC, symSize: 0x90 }
  - { offset: 0x818C, size: 0x8, addend: 0x0, symName: __RNvXs8_NtNtCsfvfooZQ3Axs_4core3str7patternINtB5_19MultiCharEqSearcherNCNvMB7_e4trim0ENtB5_8Searcher4nextCs8sZPpv4WdDS_10pkg_config, symObjAddr: 0x2718, symBinAddr: 0x100004B7C, symSize: 0x13C }
  - { offset: 0x82B2, size: 0x8, addend: 0x0, symName: __RNvXs9_NtNtCsfvfooZQ3Axs_4core3str7patternINtB5_19MultiCharEqSearcherNCNvMB7_e4trim0ENtB5_15ReverseSearcher9next_backCs8sZPpv4WdDS_10pkg_config, symObjAddr: 0x2854, symBinAddr: 0x100004CB8, symSize: 0x13C }
  - { offset: 0x843F, size: 0x8, addend: 0x0, symName: __RNvXs_NtNtCsfvfooZQ3Axs_4core3str7patternNtB4_12CharSearcherNtB4_8Searcher10next_matchCs8sZPpv4WdDS_10pkg_config, symObjAddr: 0x2ACC, symBinAddr: 0x100004DF4, symSize: 0x384 }
  - { offset: 0x88E0, size: 0x8, addend: 0x0, symName: __RNvXs_NtNtCsfvfooZQ3Axs_4core3str7patternNtB4_12CharSearcherNtB4_8Searcher8haystackCs8sZPpv4WdDS_10pkg_config, symObjAddr: 0x2E50, symBinAddr: 0x100005178, symSize: 0x20 }
  - { offset: 0x8914, size: 0x8, addend: 0x0, symName: __RNvXso_NtNtCsfvfooZQ3Axs_4core3str7patternINtB5_21CharPredicateSearcherNCNvMB7_e4trim0ENtB5_8Searcher11next_rejectCs8sZPpv4WdDS_10pkg_config, symObjAddr: 0x2F10, symBinAddr: 0x100005238, symSize: 0x24 }
  - { offset: 0x8951, size: 0x8, addend: 0x0, symName: __RNvXsp_NtNtCsfvfooZQ3Axs_4core3str7patternINtB5_21CharPredicateSearcherNCNvMB7_e4trim0ENtB5_15ReverseSearcher16next_reject_backCs8sZPpv4WdDS_10pkg_config, symObjAddr: 0x2F34, symBinAddr: 0x10000525C, symSize: 0x24 }
  - { offset: 0x89A5, size: 0x8, addend: 0x0, symName: __RNvXss_NtNtCsfvfooZQ3Axs_4core3str7patternRReNtB5_7Pattern12is_suffix_ofCs8sZPpv4WdDS_10pkg_config, symObjAddr: 0x2F7C, symBinAddr: 0x100005280, symSize: 0x4C }
  - { offset: 0x8AF1, size: 0x8, addend: 0x0, symName: __RNvXsv_NtNtCsfvfooZQ3Axs_4core3str7patternNtB5_11StrSearcherNtB5_8Searcher10next_matchCs8sZPpv4WdDS_10pkg_config, symObjAddr: 0x32C4, symBinAddr: 0x1000055C8, symSize: 0x148 }
  - { offset: 0x8B7D, size: 0x8, addend: 0x0, symName: __RNvXsv_NtNtCsfvfooZQ3Axs_4core3str7patternNtB5_11StrSearcherNtB5_8Searcher4nextCs8sZPpv4WdDS_10pkg_config, symObjAddr: 0x340C, symBinAddr: 0x100005710, symSize: 0x444 }
  - { offset: 0x8E88, size: 0x8, addend: 0x0, symName: __RNvXsy_NtNtCsfvfooZQ3Axs_4core3str7patternNtB5_9MatchOnlyNtB5_14TwoWayStrategy16use_early_rejectCs8sZPpv4WdDS_10pkg_config, symObjAddr: 0x3850, symBinAddr: 0x100005B54, symSize: 0xC }
  - { offset: 0x8EA6, size: 0x8, addend: 0x0, symName: __RNvXsy_NtNtCsfvfooZQ3Axs_4core3str7patternNtB5_9MatchOnlyNtB5_14TwoWayStrategy8matchingCs8sZPpv4WdDS_10pkg_config, symObjAddr: 0x385C, symBinAddr: 0x100005B60, symSize: 0x28 }
  - { offset: 0x8EE3, size: 0x8, addend: 0x0, symName: __RNvXsy_NtNtCsfvfooZQ3Axs_4core3str7patternNtB5_9MatchOnlyNtB5_14TwoWayStrategy9rejectingCs8sZPpv4WdDS_10pkg_config, symObjAddr: 0x3884, symBinAddr: 0x100005B88, symSize: 0x18 }
  - { offset: 0x8F26, size: 0x8, addend: 0x0, symName: __RNvXsz_NtNtCsfvfooZQ3Axs_4core3str7patternNtB5_14RejectAndMatchNtB5_14TwoWayStrategy16use_early_rejectCs8sZPpv4WdDS_10pkg_config, symObjAddr: 0x389C, symBinAddr: 0x100005BA0, symSize: 0xC }
  - { offset: 0x8F44, size: 0x8, addend: 0x0, symName: __RNvXsz_NtNtCsfvfooZQ3Axs_4core3str7patternNtB5_14RejectAndMatchNtB5_14TwoWayStrategy8matchingCs8sZPpv4WdDS_10pkg_config, symObjAddr: 0x38A8, symBinAddr: 0x100005BAC, symSize: 0x20 }
  - { offset: 0x8F81, size: 0x8, addend: 0x0, symName: __RNvXsz_NtNtCsfvfooZQ3Axs_4core3str7patternNtB5_14RejectAndMatchNtB5_14TwoWayStrategy9rejectingCs8sZPpv4WdDS_10pkg_config, symObjAddr: 0x38C8, symBinAddr: 0x100005BCC, symSize: 0x28 }
  - { offset: 0x8FC4, size: 0x8, addend: 0x0, symName: __RNvYINtNtNtCsfvfooZQ3Axs_4core3str7pattern19MultiCharEqSearcherNCNvMB7_e4trim0ENtB5_15ReverseSearcher16next_reject_backCs8sZPpv4WdDS_10pkg_config, symObjAddr: 0x38F0, symBinAddr: 0x100005BF4, symSize: 0x90 }
  - { offset: 0x902F, size: 0x8, addend: 0x0, symName: __RNvYINtNtNtCsfvfooZQ3Axs_4core3str7pattern19MultiCharEqSearcherNCNvMB7_e4trim0ENtB5_8Searcher11next_rejectCs8sZPpv4WdDS_10pkg_config, symObjAddr: 0x3980, symBinAddr: 0x100005C84, symSize: 0x90 }
  - { offset: 0x9A8E, size: 0x8, addend: 0x0, symName: __RINvYINtNtNtCsfvfooZQ3Axs_4core5slice4iter4IterNtNtCse1nGBsou5OW_5alloc6string6StringENtNtNtNtBa_4iter6traits8iterator8Iterator3mapINtNtBN_3vec3VecReENCNvMs5_Cs8sZPpv4WdDS_10pkg_configNtB2w_7Library17parse_libs_cflagss3_0EB2w_, symObjAddr: 0x16B4, symBinAddr: 0x100003C14, symSize: 0x1C }
  - { offset: 0x9AE6, size: 0x8, addend: 0x0, symName: __RINvYINtNtNtCsfvfooZQ3Axs_4core5slice4iter4IterNtNtCse1nGBsou5OW_5alloc6string6StringENtNtNtNtBa_4iter6traits8iterator8Iterator6filterNCNvMs5_Cs8sZPpv4WdDS_10pkg_configNtB2g_7Library17parse_libs_cflagss0_0EB2g_, symObjAddr: 0x16D0, symBinAddr: 0x100003C30, symSize: 0x1C }
  - { offset: 0x9B35, size: 0x8, addend: 0x0, symName: __RINvYINtNtNtCsfvfooZQ3Axs_4core5slice4iter4IterNtNtCse1nGBsou5OW_5alloc6string6StringENtNtNtNtBa_4iter6traits8iterator8Iterator6filterNCNvMs5_Cs8sZPpv4WdDS_10pkg_configNtB2g_7Library17parse_libs_cflagss4_0EB2g_, symObjAddr: 0x16EC, symBinAddr: 0x100003C4C, symSize: 0x1C }
  - { offset: 0x9BAB, size: 0x8, addend: 0x0, symName: __RINvYINtNtNtCsfvfooZQ3Axs_4core5slice4iter4IterNtNtCse1nGBsou5OW_5alloc6string6StringENtNtNtNtBa_4iter6traits8iterator8Iterator8flat_mapINtNtBN_3vec3VecReENCNvMs5_Cs8sZPpv4WdDS_10pkg_configNtB2B_7Library17parse_libs_cflagss3_0EB2B_, symObjAddr: 0x1708, symBinAddr: 0x100003C68, symSize: 0x94 }
  - { offset: 0x9C79, size: 0x8, addend: 0x0, symName: __RINvYINtNtNtCsfvfooZQ3Axs_4core5slice4iter4IterNtNtCse1nGBsou5OW_5alloc6string6StringENtNtNtNtBa_4iter6traits8iterator8Iterator8try_foldjNCINvNtNtB1s_8adapters3map12map_try_foldRBJ_jjINtNtBa_6option6OptionjENCNCINvNtBN_3str17join_generic_copyehBJ_E00NvMs9_NtBa_3numj11checked_addE0B2V_ECs8sZPpv4WdDS_10pkg_config, symObjAddr: 0x179C, symBinAddr: 0x100003CFC, symSize: 0x180 }
  - { offset: 0x9D35, size: 0x8, addend: 0x0, symName: __RINvYINtNtNtCsfvfooZQ3Axs_4core5slice4iter4IterNtNtNtCscOYdFFY2T5N_3std3ffi6os_str8OsStringENtNtNtNtBa_4iter6traits8iterator8Iterator3mapBJ_NCINvMCs8sZPpv4WdDS_10pkg_configNtB2k_14WrappedCommand4argsRINtNtCse1nGBsou5OW_5alloc3vec3VecBJ_ERBJ_E0EB2k_, symObjAddr: 0x191C, symBinAddr: 0x100003E7C, symSize: 0x1C }
  - { offset: 0x9D8D, size: 0x8, addend: 0x0, symName: __RINvYINtNtNtCsfvfooZQ3Axs_4core5slice4iter4IterNtNtNtCscOYdFFY2T5N_3std3ffi6os_str8OsStringENtNtNtNtBa_4iter6traits8iterator8Iterator3mapNtNtCse1nGBsou5OW_5alloc6string6StringNCNvXs_Cs8sZPpv4WdDS_10pkg_configNtB2U_14WrappedCommandNtNtBa_3fmt7Display3fmts_0EB2U_, symObjAddr: 0x1938, symBinAddr: 0x100003E98, symSize: 0x1C }
  - { offset: 0x9DE5, size: 0x8, addend: 0x0, symName: __RINvYINtNtNtCsfvfooZQ3Axs_4core5slice4iter4IterReENtNtNtNtBa_4iter6traits8iterator8Iterator3mapNtNtNtCscOYdFFY2T5N_3std3ffi6os_str8OsStringNCINvMCs8sZPpv4WdDS_10pkg_configNtB2j_14WrappedCommand4argsRSBJ_RBJ_E0EB2j_, symObjAddr: 0x1954, symBinAddr: 0x100003EB4, symSize: 0x1C }
  - { offset: 0x9E3D, size: 0x8, addend: 0x0, symName: __RINvYINtNtNtCsfvfooZQ3Axs_4core5slice4iter4IterReENtNtNtNtBa_4iter6traits8iterator8Iterator8try_foldjNCINvNtNtBS_8adapters3map12map_try_foldRBJ_jjINtNtBa_6option6OptionjENCNCINvNtCse1nGBsou5OW_5alloc3str17join_generic_copyehBJ_E00NvMs9_NtBa_3numj11checked_addE0B2k_ECs8sZPpv4WdDS_10pkg_config, symObjAddr: 0x1970, symBinAddr: 0x100003ED0, symSize: 0x180 }
  - { offset: 0x9EF9, size: 0x8, addend: 0x0, symName: __RINvYINtNtNtCsfvfooZQ3Axs_4core5slice4iter4IterTNtNtNtCscOYdFFY2T5N_3std3ffi6os_str8OsStringBK_EENtNtNtNtBa_4iter6traits8iterator8Iterator3mapNtNtCse1nGBsou5OW_5alloc6string6StringNCNvXs_Cs8sZPpv4WdDS_10pkg_configNtB2Z_14WrappedCommandNtNtBa_3fmt7Display3fmt0EB2Z_, symObjAddr: 0x1AF0, symBinAddr: 0x100004050, symSize: 0x1C }
  - { offset: 0x9FC8, size: 0x8, addend: 0x0, symName: __RNvXNtNtNtCsfvfooZQ3Axs_4core4iter6traits7collectINtNtNtB8_5slice4iter4IterhENtB2_12IntoIterator9into_iterCs8sZPpv4WdDS_10pkg_config, symObjAddr: 0x1CD8, symBinAddr: 0x1000041CC, symSize: 0x1C }
  - { offset: 0xB2E9, size: 0x8, addend: 0x0, symName: __RINvMsx_NtNtCsfvfooZQ3Axs_4core3str7patternNtB6_14TwoWaySearcher4nextNtB6_14RejectAndMatchECs8sZPpv4WdDS_10pkg_config, symObjAddr: 0x0, symBinAddr: 0x100002560, symSize: 0x4F8 }
  - { offset: 0xB639, size: 0x8, addend: 0x0, symName: __RINvMsx_NtNtCsfvfooZQ3Axs_4core3str7patternNtB6_14TwoWaySearcher4nextNtB6_9MatchOnlyECs8sZPpv4WdDS_10pkg_config, symObjAddr: 0x4F8, symBinAddr: 0x100002A58, symSize: 0x4F8 }
  - { offset: 0xC0D8, size: 0x8, addend: 0x0, symName: __RNvMs4_NtNtCsfvfooZQ3Axs_4core5slice4iterINtB5_4IterNtNtCscOYdFFY2T5N_3std4path7PathBufE3newCs8sZPpv4WdDS_10pkg_config, symObjAddr: 0x1B0C, symBinAddr: 0x10000406C, symSize: 0x58 }
  - { offset: 0xC2A6, size: 0x8, addend: 0x0, symName: __RNvMs4_NtNtCsfvfooZQ3Axs_4core5slice4iterINtB5_4IterNtNtCse1nGBsou5OW_5alloc6string6StringE3newCs8sZPpv4WdDS_10pkg_config, symObjAddr: 0x1B64, symBinAddr: 0x1000040C4, symSize: 0x58 }
  - { offset: 0xC474, size: 0x8, addend: 0x0, symName: __RNvMs4_NtNtCsfvfooZQ3Axs_4core5slice4iterINtB5_4IterNtNtNtCscOYdFFY2T5N_3std3ffi6os_str8OsStringE3newCs8sZPpv4WdDS_10pkg_config, symObjAddr: 0x1BBC, symBinAddr: 0x10000411C, symSize: 0x58 }
  - { offset: 0xC694, size: 0x8, addend: 0x0, symName: __RNvMs4_NtNtCsfvfooZQ3Axs_4core5slice4iterINtB5_4IterTNtNtNtCscOYdFFY2T5N_3std3ffi6os_str8OsStringBP_EE3newCs8sZPpv4WdDS_10pkg_config, symObjAddr: 0x1C64, symBinAddr: 0x100004174, symSize: 0x58 }
  - { offset: 0xD120, size: 0x8, addend: 0x0, symName: __RINvMs6_NtCsloNvcHxBCre_9hashbrown3rawINtB6_8RawTableTNtNtCse1nGBsou5OW_5alloc6string6StringINtNtCsfvfooZQ3Axs_4core6option6OptionBQ_EEE14reserve_rehashNCINvNtB8_3map11make_hasherBQ_B1s_NtNtNtCscOYdFFY2T5N_3std4hash6random11RandomStateE0ECs8sZPpv4WdDS_10pkg_config, symObjAddr: 0x0, symBinAddr: 0x1000FCEEC, symSize: 0x830 }
  - { offset: 0xD15C, size: 0x8, addend: 0x0, symName: __RNCINvMs6_NtCsloNvcHxBCre_9hashbrown3rawINtB8_8RawTableTNtNtCse1nGBsou5OW_5alloc6string6StringINtNtCsfvfooZQ3Axs_4core6option6OptionBS_EEE14reserve_rehashNCINvNtBa_3map11make_hasherBS_B1u_NtNtNtCscOYdFFY2T5N_3std4hash6random11RandomStateE0E0Cs8sZPpv4WdDS_10pkg_config, symObjAddr: 0x12A4, symBinAddr: 0x100006788, symSize: 0xC0 }
  - { offset: 0xD319, size: 0x8, addend: 0x0, symName: __RNCINvMs6_NtCsloNvcHxBCre_9hashbrown3rawINtB8_8RawTableTNtNtCse1nGBsou5OW_5alloc6string6StringINtNtCsfvfooZQ3Axs_4core6option6OptionBS_EEE14reserve_rehashNCINvNtBa_3map11make_hasherBS_B1u_NtNtNtCscOYdFFY2T5N_3std4hash6random11RandomStateE0Es_0Cs8sZPpv4WdDS_10pkg_config, symObjAddr: 0x1364, symBinAddr: 0x100006848, symSize: 0x30 }
  - { offset: 0xD376, size: 0x8, addend: 0x0, symName: __RNCINvMs6_NtCsloNvcHxBCre_9hashbrown3rawINtB8_8RawTableTNtNtCse1nGBsou5OW_5alloc6string6StringINtNtCsfvfooZQ3Axs_4core6option6OptionBS_EEE24find_or_find_insert_slotNCINvNtBa_3map14equivalent_keyBS_BS_B1u_E0NCINvB2H_11make_hasherBS_B1u_NtNtNtCscOYdFFY2T5N_3std4hash6random11RandomStateE0E0Cs8sZPpv4WdDS_10pkg_config, symObjAddr: 0x1394, symBinAddr: 0x100006878, symSize: 0xC4 }
  - { offset: 0xDC3E, size: 0x8, addend: 0x0, symName: __RNCINvMsa_NtCsloNvcHxBCre_9hashbrown3rawNtB8_13RawTableInner14prepare_resizeNtNtCse1nGBsou5OW_5alloc5alloc6GlobalE0Cs8sZPpv4WdDS_10pkg_config, symObjAddr: 0x1458, symBinAddr: 0x10000693C, symSize: 0xBC }
  - { offset: 0xDE21, size: 0x8, addend: 0x0, symName: __RNCNvMsa_NtCsloNvcHxBCre_9hashbrown3rawNtB7_13RawTableInner15rehash_in_place0Cs8sZPpv4WdDS_10pkg_config, symObjAddr: 0x1514, symBinAddr: 0x1000069F8, symSize: 0x23C }
  - { offset: 0xE3FC, size: 0x8, addend: 0x0, symName: __RNvNtCsloNvcHxBCre_9hashbrown3raw19capacity_to_bucketsCs8sZPpv4WdDS_10pkg_config, symObjAddr: 0x2960, symBinAddr: 0x100007E44, symSize: 0x198 }
  - { offset: 0xE5B7, size: 0x8, addend: 0x0, symName: __RNvXsg_NtCsloNvcHxBCre_9hashbrown3rawINtB5_8RawTableTNtNtCse1nGBsou5OW_5alloc6string6StringINtNtCsfvfooZQ3Axs_4core6option6OptionBP_EEENtNtNtB1w_3ops4drop4Drop4dropCs8sZPpv4WdDS_10pkg_config, symObjAddr: 0x2AF8, symBinAddr: 0x100007FDC, symSize: 0x3C }
  - { offset: 0x11C50, size: 0x8, addend: 0x0, symName: __RINvMs6_NtCsloNvcHxBCre_9hashbrown3rawINtB6_8RawTableTNtNtCse1nGBsou5OW_5alloc6string6StringINtNtCsfvfooZQ3Axs_4core6option6OptionBQ_EEE14reserve_rehashNCINvNtB8_3map11make_hasherBQ_B1s_NtNtNtCscOYdFFY2T5N_3std4hash6random11RandomStateE0ECs8sZPpv4WdDS_10pkg_config, symObjAddr: 0x0, symBinAddr: 0x1000FCEEC, symSize: 0x830 }
  - { offset: 0x12640, size: 0x8, addend: 0x0, symName: __RINvMs6_NtCsloNvcHxBCre_9hashbrown3rawINtB6_8RawTableTNtNtCse1nGBsou5OW_5alloc6string6StringINtNtCsfvfooZQ3Axs_4core6option6OptionBQ_EEE24find_or_find_insert_slotNCINvNtB8_3map14equivalent_keyBQ_BQ_B1s_E0NCINvB2F_11make_hasherBQ_B1s_NtNtNtCscOYdFFY2T5N_3std4hash6random11RandomStateE0ECs8sZPpv4WdDS_10pkg_config, symObjAddr: 0x830, symBinAddr: 0x100005D14, symSize: 0x13C }
  - { offset: 0x12824, size: 0x8, addend: 0x0, symName: __RINvMs6_NtCsloNvcHxBCre_9hashbrown3rawINtB6_8RawTableTNtNtCse1nGBsou5OW_5alloc6string6StringINtNtCsfvfooZQ3Axs_4core6option6OptionBQ_EEE7reserveNCINvNtB8_3map11make_hasherBQ_B1s_NtNtNtCscOYdFFY2T5N_3std4hash6random11RandomStateE0ECs8sZPpv4WdDS_10pkg_config, symObjAddr: 0x96C, symBinAddr: 0x100005E50, symSize: 0xCC }
  - { offset: 0x12A08, size: 0x8, addend: 0x0, symName: __RINvMsa_NtCsloNvcHxBCre_9hashbrown3rawNtB6_13RawTableInner13drop_elementsTNtNtCse1nGBsou5OW_5alloc6string6StringINtNtCsfvfooZQ3Axs_4core6option6OptionB1a_EEECs8sZPpv4WdDS_10pkg_config, symObjAddr: 0xA38, symBinAddr: 0x100005F1C, symSize: 0x174 }
  - { offset: 0x12D75, size: 0x8, addend: 0x0, symName: __RINvMsa_NtCsloNvcHxBCre_9hashbrown3rawNtB6_13RawTableInner16drop_inner_tableTNtNtCse1nGBsou5OW_5alloc6string6StringINtNtCsfvfooZQ3Axs_4core6option6OptionB1d_EENtNtB1h_5alloc6GlobalECs8sZPpv4WdDS_10pkg_config, symObjAddr: 0xBAC, symBinAddr: 0x100006090, symSize: 0xBC }
  - { offset: 0x12F88, size: 0x8, addend: 0x0, symName: __RINvMsa_NtCsloNvcHxBCre_9hashbrown3rawNtB6_13RawTableInner17new_uninitializedNtNtCse1nGBsou5OW_5alloc5alloc6GlobalECs8sZPpv4WdDS_10pkg_config, symObjAddr: 0xC68, symBinAddr: 0x10000614C, symSize: 0x1B0 }
  - { offset: 0x131C1, size: 0x8, addend: 0x0, symName: __RINvMsa_NtCsloNvcHxBCre_9hashbrown3rawNtB6_13RawTableInner22fallible_with_capacityNtNtCse1nGBsou5OW_5alloc5alloc6GlobalECs8sZPpv4WdDS_10pkg_config, symObjAddr: 0xE18, symBinAddr: 0x1000062FC, symSize: 0x2A8 }
  - { offset: 0x13638, size: 0x8, addend: 0x0, symName: __RINvMsi_NtCsloNvcHxBCre_9hashbrown3rawINtB6_12RawIterRangeTNtNtCse1nGBsou5OW_5alloc6string6StringINtNtCsfvfooZQ3Axs_4core6option6OptionBV_EEE9next_implKb0_ECs8sZPpv4WdDS_10pkg_config, symObjAddr: 0x10C0, symBinAddr: 0x1000065A4, symSize: 0x1E4 }
  - { offset: 0x13DD0, size: 0x8, addend: 0x0, symName: __RNvMs1_NtCsloNvcHxBCre_9hashbrown3rawNtB5_11TableLayout20calculate_layout_forCs8sZPpv4WdDS_10pkg_config, symObjAddr: 0x1750, symBinAddr: 0x100006C34, symSize: 0x210 }
  - { offset: 0x1425D, size: 0x8, addend: 0x0, symName: __RNvMs6_NtCsloNvcHxBCre_9hashbrown3rawINtB5_8RawTableTNtNtCse1nGBsou5OW_5alloc6string6StringINtNtCsfvfooZQ3Axs_4core6option6OptionBP_EEE14insert_in_slotCs8sZPpv4WdDS_10pkg_config, symObjAddr: 0x1960, symBinAddr: 0x100006E44, symSize: 0x140 }
  - { offset: 0x14700, size: 0x8, addend: 0x0, symName: __RNvMsa_NtCsloNvcHxBCre_9hashbrown3rawNtB5_13RawTableInner15fix_insert_slotCs8sZPpv4WdDS_10pkg_config, symObjAddr: 0x1AA0, symBinAddr: 0x100006F84, symSize: 0x128 }
  - { offset: 0x14A7E, size: 0x8, addend: 0x0, symName: __RNvMsa_NtCsloNvcHxBCre_9hashbrown3rawNtB5_13RawTableInner15rehash_in_placeCs8sZPpv4WdDS_10pkg_config, symObjAddr: 0x1BC8, symBinAddr: 0x1000070AC, symSize: 0x4E8 }
  - { offset: 0x15295, size: 0x8, addend: 0x0, symName: __RNvMsa_NtCsloNvcHxBCre_9hashbrown3rawNtB5_13RawTableInner16find_insert_slotCs8sZPpv4WdDS_10pkg_config, symObjAddr: 0x20B0, symBinAddr: 0x100007594, symSize: 0x10C }
  - { offset: 0x15486, size: 0x8, addend: 0x0, symName: __RNvMsa_NtCsloNvcHxBCre_9hashbrown3rawNtB5_13RawTableInner19prepare_insert_slotCs8sZPpv4WdDS_10pkg_config, symObjAddr: 0x21BC, symBinAddr: 0x1000076A0, symSize: 0x74 }
  - { offset: 0x15778, size: 0x8, addend: 0x0, symName: __RNvMsa_NtCsloNvcHxBCre_9hashbrown3rawNtB5_13RawTableInner23prepare_rehash_in_placeCs8sZPpv4WdDS_10pkg_config, symObjAddr: 0x2230, symBinAddr: 0x100007714, symSize: 0x254 }
  - { offset: 0x15E74, size: 0x8, addend: 0x0, symName: __RNvMsa_NtCsloNvcHxBCre_9hashbrown3rawNtB5_13RawTableInner25find_insert_slot_in_groupCs8sZPpv4WdDS_10pkg_config, symObjAddr: 0x2484, symBinAddr: 0x100007968, symSize: 0x160 }
  - { offset: 0x16185, size: 0x8, addend: 0x0, symName: __RNvMsa_NtCsloNvcHxBCre_9hashbrown3rawNtB5_13RawTableInner30find_or_find_insert_slot_innerCs8sZPpv4WdDS_10pkg_config, symObjAddr: 0x25E4, symBinAddr: 0x100007AC8, symSize: 0x2BC }
  - { offset: 0x16580, size: 0x8, addend: 0x0, symName: __RNvMsi_NtCsloNvcHxBCre_9hashbrown3rawINtB5_12RawIterRangeTNtNtCse1nGBsou5OW_5alloc6string6StringINtNtCsfvfooZQ3Axs_4core6option6OptionBU_EEE3newCs8sZPpv4WdDS_10pkg_config, symObjAddr: 0x28A0, symBinAddr: 0x100007D84, symSize: 0xC0 }
  - { offset: 0x16807, size: 0x8, addend: 0x0, symName: __RNvXs1_NtNtNtCsfvfooZQ3Axs_4core3ops8function5implsQNCNvMs5_Cs8sZPpv4WdDS_10pkg_configNtBW_7Library17parse_libs_cflagss0_0INtB7_5FnMutTRRNtNtCse1nGBsou5OW_5alloc6string6StringEE8call_mutBW_, symObjAddr: 0x0, symBinAddr: 0x100008018, symSize: 0x30 }
  - { offset: 0x17967, size: 0x8, addend: 0x0, symName: __RNvXs1_NtNtNtCsfvfooZQ3Axs_4core3ops8function5implsQNCNvMs5_Cs8sZPpv4WdDS_10pkg_configNtBW_7Library17parse_libs_cflagss0_0INtB7_5FnMutTRRNtNtCse1nGBsou5OW_5alloc6string6StringEE8call_mutBW_, symObjAddr: 0x0, symBinAddr: 0x100008018, symSize: 0x30 }
  - { offset: 0x179B6, size: 0x8, addend: 0x0, symName: __RNvXs1_NtNtNtCsfvfooZQ3Axs_4core3ops8function5implsQNCNvMs5_Cs8sZPpv4WdDS_10pkg_configNtBW_7Library17parse_libs_cflagss4_0INtB7_5FnMutTRRNtNtCse1nGBsou5OW_5alloc6string6StringEE8call_mutBW_, symObjAddr: 0x30, symBinAddr: 0x100008048, symSize: 0x30 }
  - { offset: 0x17A0B, size: 0x8, addend: 0x0, symName: __RNvXs2_NtNtNtCsfvfooZQ3Axs_4core3ops8function5implsQNCNvMs5_Cs8sZPpv4WdDS_10pkg_configNtBW_7Library17parse_libs_cflagss1_0INtB7_6FnOnceTRNtNtCse1nGBsou5OW_5alloc6string6StringEE9call_onceBW_, symObjAddr: 0x60, symBinAddr: 0x100008078, symSize: 0x2C }
  - { offset: 0x17A5A, size: 0x8, addend: 0x0, symName: __RNvXs2_NtNtNtCsfvfooZQ3Axs_4core3ops8function5implsQNCNvMs5_Cs8sZPpv4WdDS_10pkg_configNtBW_7Library17parse_libs_cflagss3_0INtB7_6FnOnceTRNtNtCse1nGBsou5OW_5alloc6string6StringEE9call_onceBW_, symObjAddr: 0x8C, symBinAddr: 0x1000080A4, symSize: 0x2C }
  - { offset: 0x18D6A, size: 0x8, addend: 0x0, symName: __RNCINvMCs8sZPpv4WdDS_10pkg_configNtB5_14WrappedCommand4argsRINtNtCse1nGBsou5OW_5alloc3vec3VecNtNtNtCscOYdFFY2T5N_3std3ffi6os_str8OsStringERB1t_E0B5_, symObjAddr: 0x5A0, symBinAddr: 0x10000841C, symSize: 0x78 }
  - { offset: 0x18DB2, size: 0x8, addend: 0x0, symName: __RNCINvMCs8sZPpv4WdDS_10pkg_configNtB5_14WrappedCommand4argsRSReRBX_E0B5_, symObjAddr: 0x618, symBinAddr: 0x100008494, symSize: 0x78 }
  - { offset: 0x18E0A, size: 0x8, addend: 0x0, symName: __RNvCs8sZPpv4WdDS_10pkg_config15quote_if_needed, symObjAddr: 0xB44, symBinAddr: 0x1000089C0, symSize: 0x140 }
  - { offset: 0x18E59, size: 0x8, addend: 0x0, symName: __RNvXs_Cs8sZPpv4WdDS_10pkg_configNtB4_14WrappedCommandNtNtCsfvfooZQ3Axs_4core3fmt7Display3fmt, symObjAddr: 0xC84, symBinAddr: 0x100008B00, symSize: 0x2E0 }
  - { offset: 0x18ECD, size: 0x8, addend: 0x0, symName: __RNCNvXs_Cs8sZPpv4WdDS_10pkg_configNtB6_14WrappedCommandNtNtCsfvfooZQ3Axs_4core3fmt7Display3fmt0B6_, symObjAddr: 0xF64, symBinAddr: 0x100008DE0, symSize: 0x1A4 }
  - { offset: 0x18F65, size: 0x8, addend: 0x0, symName: __RNCNvXs_Cs8sZPpv4WdDS_10pkg_configNtB6_14WrappedCommandNtNtCsfvfooZQ3Axs_4core3fmt7Display3fmts_0B6_, symObjAddr: 0x1108, symBinAddr: 0x100008F84, symSize: 0xA0 }
  - { offset: 0x19301, size: 0x8, addend: 0x0, symName: __RNCNvMs3_Cs8sZPpv4WdDS_10pkg_configNtB7_6Config5probe0B7_, symObjAddr: 0x3738, symBinAddr: 0x100009750, symSize: 0x204 }
  - { offset: 0x1938E, size: 0x8, addend: 0x0, symName: __RNCNvMs3_Cs8sZPpv4WdDS_10pkg_configNtB7_6Config16targeted_env_var0B7_, symObjAddr: 0x451C, symBinAddr: 0x10000A474, symSize: 0xF8 }
  - { offset: 0x193FF, size: 0x8, addend: 0x0, symName: __RNCNvMs3_Cs8sZPpv4WdDS_10pkg_configNtB7_6Config16targeted_env_vars_0B7_, symObjAddr: 0x4614, symBinAddr: 0x10000A56C, symSize: 0xF8 }
  - { offset: 0x19470, size: 0x8, addend: 0x0, symName: __RNCNvMs3_Cs8sZPpv4WdDS_10pkg_configNtB7_6Config16targeted_env_vars0_0B7_, symObjAddr: 0x470C, symBinAddr: 0x10000A664, symSize: 0x48 }
  - { offset: 0x194B7, size: 0x8, addend: 0x0, symName: __RNCNvMs3_Cs8sZPpv4WdDS_10pkg_configNtB7_6Config9is_static0B7_, symObjAddr: 0x4854, symBinAddr: 0x10000A7AC, symSize: 0x48 }
  - { offset: 0x194FE, size: 0x8, addend: 0x0, symName: __RNCNvMs3_Cs8sZPpv4WdDS_10pkg_configNtB7_6Config3run0B7_, symObjAddr: 0x4D64, symBinAddr: 0x10000ACBC, symSize: 0x3C }
  - { offset: 0x19528, size: 0x8, addend: 0x0, symName: __RNCNvMs3_Cs8sZPpv4WdDS_10pkg_configNtB7_6Config3runs_0B7_, symObjAddr: 0x4DA0, symBinAddr: 0x10000ACF8, symSize: 0x1DC }
  - { offset: 0x196E3, size: 0x8, addend: 0x0, symName: __RNvNvMs5_Cs8sZPpv4WdDS_10pkg_configNtB7_7Library25extract_lib_from_filename13test_suffixes, symObjAddr: 0x622C, symBinAddr: 0x10000C0B8, symSize: 0x15C }
  - { offset: 0x19752, size: 0x8, addend: 0x0, symName: __RNCNvMs5_Cs8sZPpv4WdDS_10pkg_configNtB7_7Library17parse_libs_cflags0B7_, symObjAddr: 0x7EC0, symBinAddr: 0x10000DD4C, symSize: 0x48 }
  - { offset: 0x1978B, size: 0x8, addend: 0x0, symName: __RNCNvMs5_Cs8sZPpv4WdDS_10pkg_configNtB7_7Library17parse_libs_cflagss0_0B7_, symObjAddr: 0x7F08, symBinAddr: 0x10000DD94, symSize: 0x44 }
  - { offset: 0x197C4, size: 0x8, addend: 0x0, symName: __RNCNvMs5_Cs8sZPpv4WdDS_10pkg_configNtB7_7Library17parse_libs_cflagss1_0B7_, symObjAddr: 0x7F4C, symBinAddr: 0x10000DDD8, symSize: 0xA0 }
  - { offset: 0x197FD, size: 0x8, addend: 0x0, symName: __RNCNvMs5_Cs8sZPpv4WdDS_10pkg_configNtB7_7Library17parse_libs_cflagss2_0B7_, symObjAddr: 0x7FEC, symBinAddr: 0x10000DE78, symSize: 0x38 }
  - { offset: 0x19836, size: 0x8, addend: 0x0, symName: __RNCNvMs5_Cs8sZPpv4WdDS_10pkg_configNtB7_7Library17parse_libs_cflagss3_0B7_, symObjAddr: 0x8024, symBinAddr: 0x10000DEB0, symSize: 0x184 }
  - { offset: 0x1986F, size: 0x8, addend: 0x0, symName: __RNCNvMs5_Cs8sZPpv4WdDS_10pkg_configNtB7_7Library17parse_libs_cflagss4_0B7_, symObjAddr: 0x81A8, symBinAddr: 0x10000E034, symSize: 0x50 }
  - { offset: 0x198D4, size: 0x8, addend: 0x0, symName: __RNvCs8sZPpv4WdDS_10pkg_config6envify, symObjAddr: 0x82A0, symBinAddr: 0x10000E12C, symSize: 0x4C }
  - { offset: 0x19907, size: 0x8, addend: 0x0, symName: __RNCNvCs8sZPpv4WdDS_10pkg_config6envify0B3_, symObjAddr: 0x82EC, symBinAddr: 0x10000E178, symSize: 0x3C }
  - { offset: 0x19940, size: 0x8, addend: 0x0, symName: __RNCNvCs8sZPpv4WdDS_10pkg_config6envifys_0B3_, symObjAddr: 0x8328, symBinAddr: 0x10000E1B4, symSize: 0x64 }
  - { offset: 0x19988, size: 0x8, addend: 0x0, symName: __RNvCs8sZPpv4WdDS_10pkg_config19is_static_available, symObjAddr: 0x838C, symBinAddr: 0x10000E218, symSize: 0x1E4 }
  - { offset: 0x19A30, size: 0x8, addend: 0x0, symName: __RNCNvCs8sZPpv4WdDS_10pkg_config19is_static_available0B3_, symObjAddr: 0x8570, symBinAddr: 0x10000E3FC, symSize: 0xD8 }
  - { offset: 0x19AA7, size: 0x8, addend: 0x0, symName: __RNCNCNvCs8sZPpv4WdDS_10pkg_config19is_static_available00B5_, symObjAddr: 0x8648, symBinAddr: 0x10000E4D4, symSize: 0xB4 }
  - { offset: 0x19AE7, size: 0x8, addend: 0x0, symName: __RNCNCNvCs8sZPpv4WdDS_10pkg_config19is_static_available0s_0B5_, symObjAddr: 0x86FC, symBinAddr: 0x10000E588, symSize: 0x4C }
  - { offset: 0x19B29, size: 0x8, addend: 0x0, symName: __RNvCs8sZPpv4WdDS_10pkg_config11split_flags, symObjAddr: 0x8748, symBinAddr: 0x10000E5D4, symSize: 0x4F4 }
  - { offset: 0x19DAC, size: 0x8, addend: 0x0, symName: __RINvMCs8sZPpv4WdDS_10pkg_configNtB3_14WrappedCommand3newNtNtNtCscOYdFFY2T5N_3std3ffi6os_str8OsStringEB3_, symObjAddr: 0x254, symBinAddr: 0x1000080D0, symSize: 0x168 }
  - { offset: 0x19E0C, size: 0x8, addend: 0x0, symName: __RINvMCs8sZPpv4WdDS_10pkg_configNtB3_14WrappedCommand4argsRINtNtCse1nGBsou5OW_5alloc3vec3VecNtNtNtCscOYdFFY2T5N_3std3ffi6os_str8OsStringERB1r_EB3_, symObjAddr: 0x3BC, symBinAddr: 0x100008238, symSize: 0xE8 }
  - { offset: 0x19ECA, size: 0x8, addend: 0x0, symName: __RINvMCs8sZPpv4WdDS_10pkg_configNtB3_14WrappedCommand4argsRSReRBV_EB3_, symObjAddr: 0x4A4, symBinAddr: 0x100008320, symSize: 0xFC }
  - { offset: 0x19F36, size: 0x8, addend: 0x0, symName: __RINvMCs8sZPpv4WdDS_10pkg_configNtB3_14WrappedCommand3argRNtNtCse1nGBsou5OW_5alloc6string6StringEB3_, symObjAddr: 0x690, symBinAddr: 0x10000850C, symSize: 0xC8 }
  - { offset: 0x19F6F, size: 0x8, addend: 0x0, symName: __RINvMCs8sZPpv4WdDS_10pkg_configNtB3_14WrappedCommand3argReEB3_, symObjAddr: 0x758, symBinAddr: 0x1000085D4, symSize: 0xCC }
  - { offset: 0x19FA8, size: 0x8, addend: 0x0, symName: __RINvMCs8sZPpv4WdDS_10pkg_configNtB3_14WrappedCommand3envReBS_EB3_, symObjAddr: 0x824, symBinAddr: 0x1000086A0, symSize: 0x168 }
  - { offset: 0x19FFA, size: 0x8, addend: 0x0, symName: __RINvMCs8sZPpv4WdDS_10pkg_configNtB3_14WrappedCommand3envReNtNtNtCscOYdFFY2T5N_3std3ffi6os_str8OsStringEB3_, symObjAddr: 0x98C, symBinAddr: 0x100008808, symSize: 0x184 }
  - { offset: 0x1A0AE, size: 0x8, addend: 0x0, symName: __RNvMCs8sZPpv4WdDS_10pkg_configNtB2_14WrappedCommand6output, symObjAddr: 0xB10, symBinAddr: 0x10000898C, symSize: 0x34 }
  - { offset: 0x1A120, size: 0x8, addend: 0x0, symName: __RNvMs3_Cs8sZPpv4WdDS_10pkg_configNtB5_6Config3new, symObjAddr: 0x2C54, symBinAddr: 0x100009024, symSize: 0xD0 }
  - { offset: 0x1A140, size: 0x8, addend: 0x0, symName: __RNvMs3_Cs8sZPpv4WdDS_10pkg_configNtB5_6Config14cargo_metadata, symObjAddr: 0x2F94, symBinAddr: 0x1000090F4, symSize: 0x2C }
  - { offset: 0x1A26C, size: 0x8, addend: 0x0, symName: __RNvMs3_Cs8sZPpv4WdDS_10pkg_configNtB5_6Config5probe, symObjAddr: 0x3108, symBinAddr: 0x100009120, symSize: 0x630 }
  - { offset: 0x1A3E3, size: 0x8, addend: 0x0, symName: __RNvMs3_Cs8sZPpv4WdDS_10pkg_configNtB5_6Config16target_supported, symObjAddr: 0x393C, symBinAddr: 0x100009954, symSize: 0x36C }
  - { offset: 0x1A462, size: 0x8, addend: 0x0, symName: __RNvMs3_Cs8sZPpv4WdDS_10pkg_configNtB5_6Config16targeted_env_var, symObjAddr: 0x3D68, symBinAddr: 0x100009CC0, symSize: 0x7B4 }
  - { offset: 0x1A529, size: 0x8, addend: 0x0, symName: __RNvMs3_Cs8sZPpv4WdDS_10pkg_configNtB5_6Config10env_var_os, symObjAddr: 0x4754, symBinAddr: 0x10000A6AC, symSize: 0xA8 }
  - { offset: 0x1A55B, size: 0x8, addend: 0x0, symName: __RNvMs3_Cs8sZPpv4WdDS_10pkg_configNtB5_6Config9is_static, symObjAddr: 0x47FC, symBinAddr: 0x10000A754, symSize: 0x58 }
  - { offset: 0x1A58D, size: 0x8, addend: 0x0, symName: __RNvMs3_Cs8sZPpv4WdDS_10pkg_configNtB5_6Config3run, symObjAddr: 0x489C, symBinAddr: 0x10000A7F4, symSize: 0x4C8 }
  - { offset: 0x1A699, size: 0x8, addend: 0x0, symName: __RNvMs3_Cs8sZPpv4WdDS_10pkg_configNtB5_6Config7command, symObjAddr: 0x4F7C, symBinAddr: 0x10000AED4, symSize: 0x7F0 }
  - { offset: 0x1A81F, size: 0x8, addend: 0x0, symName: __RNvMs3_Cs8sZPpv4WdDS_10pkg_configNtB5_6Config14print_metadata, symObjAddr: 0x576C, symBinAddr: 0x10000B6C4, symSize: 0x94 }
  - { offset: 0x1A851, size: 0x8, addend: 0x0, symName: __RNvMs3_Cs8sZPpv4WdDS_10pkg_configNtB5_6Config12infer_static, symObjAddr: 0x5800, symBinAddr: 0x10000B758, symSize: 0x43C }
  - { offset: 0x1A8D8, size: 0x8, addend: 0x0, symName: __RNvMs5_Cs8sZPpv4WdDS_10pkg_configNtB5_7Library3new, symObjAddr: 0x5D08, symBinAddr: 0x10000BB94, symSize: 0x224 }
  - { offset: 0x1A8EB, size: 0x8, addend: 0x0, symName: __RNvMs5_Cs8sZPpv4WdDS_10pkg_configNtB5_7Library25extract_lib_from_filename, symObjAddr: 0x5F2C, symBinAddr: 0x10000BDB8, symSize: 0x300 }
  - { offset: 0x1A9E5, size: 0x8, addend: 0x0, symName: __RNvMs5_Cs8sZPpv4WdDS_10pkg_configNtB5_7Library17parse_libs_cflags, symObjAddr: 0x6388, symBinAddr: 0x10000C214, symSize: 0x1B38 }
  - { offset: 0x1AF41, size: 0x8, addend: 0x0, symName: __RNvMs5_Cs8sZPpv4WdDS_10pkg_configNtB5_7Library16parse_modversion, symObjAddr: 0x81F8, symBinAddr: 0x10000E084, symSize: 0xA8 }
  - { offset: 0x1B1C9, size: 0x8, addend: 0x0, symName: __RINvMNtCse1nGBsou5OW_5alloc5sliceSNtNtCscOYdFFY2T5N_3std4path7PathBuf8into_vecNtNtB5_5alloc6GlobalECs8sZPpv4WdDS_10pkg_config, symObjAddr: 0x0, symBinAddr: 0x10000EAC8, symSize: 0x28 }
  - { offset: 0x1B234, size: 0x8, addend: 0x0, symName: __RNvXNvNtNtCscOYdFFY2T5N_3std2io5Write9write_fmtINtB2_7AdapterNtNtNtNtNtB8_3sys3pal4unix5stdio6StderrENtNtCsfvfooZQ3Axs_4core3fmt5Write9write_strCs8sZPpv4WdDS_10pkg_config, symObjAddr: 0x3520, symBinAddr: 0x100011BAC, symSize: 0xB8 }
  - { offset: 0x1B82F, size: 0x8, addend: 0x0, symName: __RNvXs14_NtCscOYdFFY2T5N_3std4pathNtB6_4PathINtNtCsfvfooZQ3Axs_4core7convert5AsRefNtNtNtB8_3ffi6os_str5OsStrE6as_refCs8sZPpv4WdDS_10pkg_config, symObjAddr: 0x3640, symBinAddr: 0x100011CCC, symSize: 0x18 }
  - { offset: 0x1B863, size: 0x8, addend: 0x0, symName: __RNvXs1d_NtCscOYdFFY2T5N_3std4pathNtB6_4PathINtNtCsfvfooZQ3Axs_4core7convert5AsRefBv_E6as_refCs8sZPpv4WdDS_10pkg_config, symObjAddr: 0x377C, symBinAddr: 0x100011DD8, symSize: 0x18 }
  - { offset: 0x1B8B5, size: 0x8, addend: 0x0, symName: __RNvXsH_NtCscOYdFFY2T5N_3std4pathNtB5_7PathBufNtNtNtCsfvfooZQ3Axs_4core3ops5deref5Deref5derefCs8sZPpv4WdDS_10pkg_config, symObjAddr: 0x47A0, symBinAddr: 0x100012DD4, symSize: 0x34 }
  - { offset: 0x1B943, size: 0x8, addend: 0x0, symName: __RNvXs1j_NtCscOYdFFY2T5N_3std4pathNtB6_7PathBufINtNtCsfvfooZQ3Axs_4core7convert5AsRefNtB6_4PathE6as_refCs8sZPpv4WdDS_10pkg_config, symObjAddr: 0x3794, symBinAddr: 0x100011DF0, symSize: 0x34 }
  - { offset: 0x1BA31, size: 0x8, addend: 0x0, symName: __RNvXsz_NtCscOYdFFY2T5N_3std4pathNtB5_7PathBufINtNtCsfvfooZQ3Axs_4core7convert4FromRNtB5_4PathE4fromCs8sZPpv4WdDS_10pkg_config, symObjAddr: 0x4E48, symBinAddr: 0x1000133F4, symSize: 0x64 }
  - { offset: 0x1BAA4, size: 0x8, addend: 0x0, symName: __RNvXsz_NtCscOYdFFY2T5N_3std4pathNtB5_7PathBufINtNtCsfvfooZQ3Axs_4core7convert4FromReE4fromCs8sZPpv4WdDS_10pkg_config, symObjAddr: 0x4EAC, symBinAddr: 0x100013458, symSize: 0x64 }
  - { offset: 0x1BD09, size: 0x8, addend: 0x0, symName: __RINvNtCscOYdFFY2T5N_3std2fs8metadataRNtNtB4_4path4PathECs8sZPpv4WdDS_10pkg_config, symObjAddr: 0x8B0, symBinAddr: 0x10000F208, symSize: 0x100 }
  - { offset: 0x1BD91, size: 0x8, addend: 0x0, symName: __RNcNtNtCscOYdFFY2T5N_3std2fs8Metadata0Cs8sZPpv4WdDS_10pkg_config, symObjAddr: 0x2DEC, symBinAddr: 0x100011514, symSize: 0x30 }
  - { offset: 0x1CBA1, size: 0x8, addend: 0x0, symName: __RNvNvMNtNtCsfvfooZQ3Axs_4core3ptr9const_ptrPp7sub_ptr18precondition_checkCs8sZPpv4WdDS_10pkg_config, symObjAddr: 0x33C8, symBinAddr: 0x100011A54, symSize: 0x40 }
  - { offset: 0x1CF2C, size: 0x8, addend: 0x0, symName: __RINvNtCsfvfooZQ3Axs_4core3ptr13drop_in_placeINtNtB4_6option6OptionIBH_NtNtCse1nGBsou5OW_5alloc6string6StringEEECs8sZPpv4WdDS_10pkg_config, symObjAddr: 0xA40, symBinAddr: 0x10000F308, symSize: 0x48 }
  - { offset: 0x1CF5B, size: 0x8, addend: 0x0, symName: __RINvNtCsfvfooZQ3Axs_4core3ptr13drop_in_placeINtNtB4_6option6OptionINtNtCse1nGBsou5OW_5alloc5boxed3BoxSmEEECs8sZPpv4WdDS_10pkg_config, symObjAddr: 0xA88, symBinAddr: 0x10000F350, symSize: 0x44 }
  - { offset: 0x1CF8A, size: 0x8, addend: 0x0, symName: __RINvNtCsfvfooZQ3Axs_4core3ptr13drop_in_placeINtNtB4_6option6OptionINtNtNtCse1nGBsou5OW_5alloc3vec9into_iter8IntoIterReEEECs8sZPpv4WdDS_10pkg_config, symObjAddr: 0xACC, symBinAddr: 0x10000F394, symSize: 0x44 }
  - { offset: 0x1CFB9, size: 0x8, addend: 0x0, symName: __RINvNtCsfvfooZQ3Axs_4core3ptr13drop_in_placeINtNtB4_6option6OptionNtNtCse1nGBsou5OW_5alloc6string6StringEECs8sZPpv4WdDS_10pkg_config, symObjAddr: 0xB10, symBinAddr: 0x10000F3D8, symSize: 0x48 }
  - { offset: 0x1CFE8, size: 0x8, addend: 0x0, symName: __RINvNtCsfvfooZQ3Axs_4core3ptr13drop_in_placeINtNtB4_6option6OptionNtNtNtCscOYdFFY2T5N_3std3ffi6os_str8OsStringEECs8sZPpv4WdDS_10pkg_config, symObjAddr: 0xB58, symBinAddr: 0x10000F420, symSize: 0x48 }
  - { offset: 0x1D017, size: 0x8, addend: 0x0, symName: __RINvNtCsfvfooZQ3Axs_4core3ptr13drop_in_placeINtNtB4_6option6OptionNtNtNtCse1nGBsou5OW_5alloc3ffi5c_str7CStringEECs8sZPpv4WdDS_10pkg_config, symObjAddr: 0xBA0, symBinAddr: 0x10000F468, symSize: 0x44 }
  - { offset: 0x1D046, size: 0x8, addend: 0x0, symName: __RINvNtCsfvfooZQ3Axs_4core3ptr13drop_in_placeINtNtB4_6option6OptionNtNtNtNtNtNtCscOYdFFY2T5N_3std3sys3pal4unix7process14process_common5StdioEECs8sZPpv4WdDS_10pkg_config, symObjAddr: 0xBE4, symBinAddr: 0x10000F4AC, symSize: 0x44 }
  - { offset: 0x1D075, size: 0x8, addend: 0x0, symName: __RINvNtCsfvfooZQ3Axs_4core3ptr13drop_in_placeINtNtB4_6result6ResultNtNtCscOYdFFY2T5N_3std2fs8MetadataNtNtNtB16_2io5error5ErrorEECs8sZPpv4WdDS_10pkg_config, symObjAddr: 0xC70, symBinAddr: 0x10000F4F0, symSize: 0x40 }
  - { offset: 0x1D0A4, size: 0x8, addend: 0x0, symName: __RINvNtCsfvfooZQ3Axs_4core3ptr13drop_in_placeINtNtB4_6result6ResultNtNtCse1nGBsou5OW_5alloc6string6StringNtNtCscOYdFFY2T5N_3std3env8VarErrorEECs8sZPpv4WdDS_10pkg_config, symObjAddr: 0xCB0, symBinAddr: 0x10000F530, symSize: 0x50 }
  - { offset: 0x1D0D3, size: 0x8, addend: 0x0, symName: __RINvNtCsfvfooZQ3Axs_4core3ptr13drop_in_placeINtNtB4_6result6ResultuNtNtNtCscOYdFFY2T5N_3std2io5error5ErrorEECs8sZPpv4WdDS_10pkg_config, symObjAddr: 0xD00, symBinAddr: 0x10000F580, symSize: 0x44 }
  - { offset: 0x1D102, size: 0x8, addend: 0x0, symName: __RINvNtCsfvfooZQ3Axs_4core3ptr13drop_in_placeINtNtCse1nGBsou5OW_5alloc3vec3VecIBH_NtNtBL_6string6StringEEECs8sZPpv4WdDS_10pkg_config, symObjAddr: 0xD44, symBinAddr: 0x10000F5C4, symSize: 0x5C }
  - { offset: 0x1D131, size: 0x8, addend: 0x0, symName: __RINvNtCsfvfooZQ3Axs_4core3ptr13drop_in_placeINtNtCse1nGBsou5OW_5alloc3vec3VecINtNtBL_5boxed3BoxDINtNtNtB4_3ops8function5FnMutuEp6OutputINtNtB4_6result6ResultuNtNtNtCscOYdFFY2T5N_3std2io5error5ErrorENtNtB4_6marker4SendNtB3c_4SyncEL_EEECs8sZPpv4WdDS_10pkg_config, symObjAddr: 0xDA0, symBinAddr: 0x10000F620, symSize: 0x5C }
  - { offset: 0x1D160, size: 0x8, addend: 0x0, symName: __RINvNtCsfvfooZQ3Axs_4core3ptr13drop_in_placeINtNtCse1nGBsou5OW_5alloc3vec3VecNtNtBL_6string6StringEECs8sZPpv4WdDS_10pkg_config, symObjAddr: 0xDFC, symBinAddr: 0x10000F67C, symSize: 0x5C }
  - { offset: 0x1D18F, size: 0x8, addend: 0x0, symName: __RINvNtCsfvfooZQ3Axs_4core3ptr13drop_in_placeINtNtCse1nGBsou5OW_5alloc3vec3VecNtNtCscOYdFFY2T5N_3std4path7PathBufEECs8sZPpv4WdDS_10pkg_config, symObjAddr: 0xE58, symBinAddr: 0x10000F6D8, symSize: 0x5C }
  - { offset: 0x1D1BE, size: 0x8, addend: 0x0, symName: __RINvNtCsfvfooZQ3Axs_4core3ptr13drop_in_placeINtNtCse1nGBsou5OW_5alloc3vec3VecNtNtNtBL_3ffi5c_str7CStringEECs8sZPpv4WdDS_10pkg_config, symObjAddr: 0xEB4, symBinAddr: 0x10000F734, symSize: 0x5C }
  - { offset: 0x1D1ED, size: 0x8, addend: 0x0, symName: __RINvNtCsfvfooZQ3Axs_4core3ptr13drop_in_placeINtNtCse1nGBsou5OW_5alloc3vec3VecNtNtNtCscOYdFFY2T5N_3std3ffi6os_str8OsStringEECs8sZPpv4WdDS_10pkg_config, symObjAddr: 0xF10, symBinAddr: 0x10000F790, symSize: 0x5C }
  - { offset: 0x1D21C, size: 0x8, addend: 0x0, symName: __RINvNtCsfvfooZQ3Axs_4core3ptr13drop_in_placeINtNtCse1nGBsou5OW_5alloc3vec3VecPaEECs8sZPpv4WdDS_10pkg_config, symObjAddr: 0xF6C, symBinAddr: 0x10000F7EC, symSize: 0x5C }
  - { offset: 0x1D24B, size: 0x8, addend: 0x0, symName: __RINvNtCsfvfooZQ3Axs_4core3ptr13drop_in_placeINtNtCse1nGBsou5OW_5alloc3vec3VecReEECs8sZPpv4WdDS_10pkg_config, symObjAddr: 0xFC8, symBinAddr: 0x10000F848, symSize: 0x5C }
  - { offset: 0x1D27A, size: 0x8, addend: 0x0, symName: __RINvNtCsfvfooZQ3Axs_4core3ptr13drop_in_placeINtNtCse1nGBsou5OW_5alloc3vec3VecTNtNtNtCscOYdFFY2T5N_3std3ffi6os_str8OsStringB1e_EEECs8sZPpv4WdDS_10pkg_config, symObjAddr: 0x1024, symBinAddr: 0x10000F8A4, symSize: 0x5C }
  - { offset: 0x1D2A9, size: 0x8, addend: 0x0, symName: __RINvNtCsfvfooZQ3Axs_4core3ptr13drop_in_placeINtNtCse1nGBsou5OW_5alloc3vec3VechEECs8sZPpv4WdDS_10pkg_config, symObjAddr: 0x1080, symBinAddr: 0x10000F900, symSize: 0x5C }
  - { offset: 0x1D2D8, size: 0x8, addend: 0x0, symName: __RINvNtCsfvfooZQ3Axs_4core3ptr13drop_in_placeINtNtCse1nGBsou5OW_5alloc5boxed3BoxARej1_EECs8sZPpv4WdDS_10pkg_config, symObjAddr: 0x10DC, symBinAddr: 0x10000F95C, symSize: 0x2C }
  - { offset: 0x1D307, size: 0x8, addend: 0x0, symName: __RINvNtCsfvfooZQ3Axs_4core3ptr13drop_in_placeINtNtCse1nGBsou5OW_5alloc5boxed3BoxDINtNtNtB4_3ops8function5FnMutuEp6OutputINtNtB4_6result6ResultuNtNtNtCscOYdFFY2T5N_3std2io5error5ErrorENtNtB4_6marker4SendNtB2W_4SyncEL_EECs8sZPpv4WdDS_10pkg_config, symObjAddr: 0x1108, symBinAddr: 0x10000F988, symSize: 0x80 }
  - { offset: 0x1D336, size: 0x8, addend: 0x0, symName: __RINvNtCsfvfooZQ3Axs_4core3ptr13drop_in_placeINtNtCse1nGBsou5OW_5alloc5boxed3BoxDNtNtB4_5error5ErrorNtNtB4_6marker4SendNtB1B_4SyncEL_EECs8sZPpv4WdDS_10pkg_config, symObjAddr: 0x1188, symBinAddr: 0x10000FA08, symSize: 0x80 }
  - { offset: 0x1D365, size: 0x8, addend: 0x0, symName: __RINvNtCsfvfooZQ3Axs_4core3ptr13drop_in_placeINtNtCse1nGBsou5OW_5alloc5boxed3BoxNtNtNtCscOYdFFY2T5N_3std2io5error6CustomEECs8sZPpv4WdDS_10pkg_config, symObjAddr: 0x1208, symBinAddr: 0x10000FA88, symSize: 0x60 }
  - { offset: 0x1D394, size: 0x8, addend: 0x0, symName: __RINvNtCsfvfooZQ3Axs_4core3ptr13drop_in_placeINtNtCse1nGBsou5OW_5alloc5boxed3BoxShEECs8sZPpv4WdDS_10pkg_config, symObjAddr: 0x1268, symBinAddr: 0x10000FAE8, symSize: 0x2C }
  - { offset: 0x1D3C3, size: 0x8, addend: 0x0, symName: __RINvNtCsfvfooZQ3Axs_4core3ptr13drop_in_placeINtNtCse1nGBsou5OW_5alloc5boxed3BoxSmEECs8sZPpv4WdDS_10pkg_config, symObjAddr: 0x1294, symBinAddr: 0x10000FB14, symSize: 0x2C }
  - { offset: 0x1D3F2, size: 0x8, addend: 0x0, symName: __RINvNtCsfvfooZQ3Axs_4core3ptr13drop_in_placeINtNtCse1nGBsou5OW_5alloc6borrow3CoweEECs8sZPpv4WdDS_10pkg_config, symObjAddr: 0x12C0, symBinAddr: 0x10000FB40, symSize: 0x48 }
  - { offset: 0x1D421, size: 0x8, addend: 0x0, symName: __RINvNtCsfvfooZQ3Axs_4core3ptr13drop_in_placeINtNtCse1nGBsou5OW_5alloc7raw_vec6RawVecINtNtBL_3vec3VecNtNtBL_6string6StringEEECs8sZPpv4WdDS_10pkg_config, symObjAddr: 0x1308, symBinAddr: 0x10000FB88, symSize: 0x24 }
  - { offset: 0x1D450, size: 0x8, addend: 0x0, symName: __RINvNtCsfvfooZQ3Axs_4core3ptr13drop_in_placeINtNtCse1nGBsou5OW_5alloc7raw_vec6RawVecINtNtBL_5boxed3BoxDINtNtNtB4_3ops8function5FnMutuEp6OutputINtNtB4_6result6ResultuNtNtNtCscOYdFFY2T5N_3std2io5error5ErrorENtNtB4_6marker4SendNtB3j_4SyncEL_EEECs8sZPpv4WdDS_10pkg_config, symObjAddr: 0x132C, symBinAddr: 0x10000FBAC, symSize: 0x24 }
  - { offset: 0x1D47F, size: 0x8, addend: 0x0, symName: __RINvNtCsfvfooZQ3Axs_4core3ptr13drop_in_placeINtNtCse1nGBsou5OW_5alloc7raw_vec6RawVecNtNtBL_6string6StringEECs8sZPpv4WdDS_10pkg_config, symObjAddr: 0x1350, symBinAddr: 0x10000FBD0, symSize: 0x24 }
  - { offset: 0x1D4AE, size: 0x8, addend: 0x0, symName: __RINvNtCsfvfooZQ3Axs_4core3ptr13drop_in_placeINtNtCse1nGBsou5OW_5alloc7raw_vec6RawVecNtNtCscOYdFFY2T5N_3std4path7PathBufEECs8sZPpv4WdDS_10pkg_config, symObjAddr: 0x1374, symBinAddr: 0x10000FBF4, symSize: 0x24 }
  - { offset: 0x1D4DD, size: 0x8, addend: 0x0, symName: __RINvNtCsfvfooZQ3Axs_4core3ptr13drop_in_placeINtNtCse1nGBsou5OW_5alloc7raw_vec6RawVecNtNtNtBL_3ffi5c_str7CStringEECs8sZPpv4WdDS_10pkg_config, symObjAddr: 0x1398, symBinAddr: 0x10000FC18, symSize: 0x24 }
  - { offset: 0x1D50C, size: 0x8, addend: 0x0, symName: __RINvNtCsfvfooZQ3Axs_4core3ptr13drop_in_placeINtNtCse1nGBsou5OW_5alloc7raw_vec6RawVecNtNtNtCscOYdFFY2T5N_3std3ffi6os_str8OsStringEECs8sZPpv4WdDS_10pkg_config, symObjAddr: 0x13BC, symBinAddr: 0x10000FC3C, symSize: 0x24 }
  - { offset: 0x1D53B, size: 0x8, addend: 0x0, symName: __RINvNtCsfvfooZQ3Axs_4core3ptr13drop_in_placeINtNtCse1nGBsou5OW_5alloc7raw_vec6RawVecPaEECs8sZPpv4WdDS_10pkg_config, symObjAddr: 0x13E0, symBinAddr: 0x10000FC60, symSize: 0x24 }
  - { offset: 0x1D56A, size: 0x8, addend: 0x0, symName: __RINvNtCsfvfooZQ3Axs_4core3ptr13drop_in_placeINtNtCse1nGBsou5OW_5alloc7raw_vec6RawVecReEECs8sZPpv4WdDS_10pkg_config, symObjAddr: 0x1404, symBinAddr: 0x10000FC84, symSize: 0x24 }
  - { offset: 0x1D599, size: 0x8, addend: 0x0, symName: __RINvNtCsfvfooZQ3Axs_4core3ptr13drop_in_placeINtNtCse1nGBsou5OW_5alloc7raw_vec6RawVecTNtNtNtCscOYdFFY2T5N_3std3ffi6os_str8OsStringB1l_EEECs8sZPpv4WdDS_10pkg_config, symObjAddr: 0x1428, symBinAddr: 0x10000FCA8, symSize: 0x24 }
  - { offset: 0x1D5C8, size: 0x8, addend: 0x0, symName: __RINvNtCsfvfooZQ3Axs_4core3ptr13drop_in_placeINtNtCse1nGBsou5OW_5alloc7raw_vec6RawVechEECs8sZPpv4WdDS_10pkg_config, symObjAddr: 0x144C, symBinAddr: 0x10000FCCC, symSize: 0x24 }
  - { offset: 0x1D5F7, size: 0x8, addend: 0x0, symName: __RINvNtCsfvfooZQ3Axs_4core3ptr13drop_in_placeINtNtCsloNvcHxBCre_9hashbrown10scopeguard10ScopeGuardNtNtBL_3raw13RawTableInnerNCINvMsa_B1z_B1x_14prepare_resizeNtNtCse1nGBsou5OW_5alloc5alloc6GlobalE0EECs8sZPpv4WdDS_10pkg_config, symObjAddr: 0x1470, symBinAddr: 0x10000FCF0, symSize: 0x24 }
  - { offset: 0x1D626, size: 0x8, addend: 0x0, symName: __RINvNtCsfvfooZQ3Axs_4core3ptr13drop_in_placeINtNtCsloNvcHxBCre_9hashbrown10scopeguard10ScopeGuardQNtNtBL_3raw13RawTableInnerNCNvMsa_B1A_B1y_15rehash_in_place0EECs8sZPpv4WdDS_10pkg_config, symObjAddr: 0x1494, symBinAddr: 0x10000FD14, symSize: 0x24 }
  - { offset: 0x1D655, size: 0x8, addend: 0x0, symName: __RINvNtCsfvfooZQ3Axs_4core3ptr13drop_in_placeINtNtCsloNvcHxBCre_9hashbrown3map7HashMapNtNtCse1nGBsou5OW_5alloc6string6StringINtNtB4_6option6OptionB1l_ENtNtNtCscOYdFFY2T5N_3std4hash6random11RandomStateEECs8sZPpv4WdDS_10pkg_config, symObjAddr: 0x14B8, symBinAddr: 0x10000FD38, symSize: 0x24 }
  - { offset: 0x1D684, size: 0x8, addend: 0x0, symName: __RINvNtCsfvfooZQ3Axs_4core3ptr13drop_in_placeINtNtCsloNvcHxBCre_9hashbrown3raw8RawTableTNtNtCse1nGBsou5OW_5alloc6string6StringINtNtB4_6option6OptionB1n_EEEECs8sZPpv4WdDS_10pkg_config, symObjAddr: 0x14DC, symBinAddr: 0x10000FD5C, symSize: 0x24 }
  - { offset: 0x1D6B3, size: 0x8, addend: 0x0, symName: __RINvNtCsfvfooZQ3Axs_4core3ptr13drop_in_placeINtNtNtB4_3ops5range5BoundNtNtCse1nGBsou5OW_5alloc6string6StringEECs8sZPpv4WdDS_10pkg_config, symObjAddr: 0x1500, symBinAddr: 0x10000FD80, symSize: 0x64 }
  - { offset: 0x1D6E2, size: 0x8, addend: 0x0, symName: __RINvNtCsfvfooZQ3Axs_4core3ptr13drop_in_placeINtNtNtCscOYdFFY2T5N_3std2io5error9ErrorDataINtNtCse1nGBsou5OW_5alloc5boxed3BoxNtBJ_6CustomEEECs8sZPpv4WdDS_10pkg_config, symObjAddr: 0x1564, symBinAddr: 0x10000FDE4, symSize: 0x48 }
  - { offset: 0x1D711, size: 0x8, addend: 0x0, symName: __RINvNtCsfvfooZQ3Axs_4core3ptr13drop_in_placeINtNtNtCse1nGBsou5OW_5alloc3vec9into_iter8IntoIterReEECs8sZPpv4WdDS_10pkg_config, symObjAddr: 0x15AC, symBinAddr: 0x10000FE2C, symSize: 0x24 }
  - { offset: 0x1D740, size: 0x8, addend: 0x0, symName: __RINvNtCsfvfooZQ3Axs_4core3ptr13drop_in_placeINtNtNtNtB4_4iter8adapters3map3MapINtNtNtCse1nGBsou5OW_5alloc3vec9into_iter8IntoIterReENvYNtNtB1l_6string6StringINtNtB4_7convert4FromB22_E4fromEECs8sZPpv4WdDS_10pkg_config, symObjAddr: 0x15D0, symBinAddr: 0x10000FE50, symSize: 0x24 }
  - { offset: 0x1D76F, size: 0x8, addend: 0x0, symName: __RINvNtCsfvfooZQ3Axs_4core3ptr13drop_in_placeINtNtNtNtB4_4iter8adapters7flatten13FlattenCompatINtNtBL_3map3MapINtNtNtB4_5slice4iter4IterNtNtCse1nGBsou5OW_5alloc6string6StringENCNvMs5_Cs8sZPpv4WdDS_10pkg_configNtB2U_7Library17parse_libs_cflagss3_0EINtNtNtB2d_3vec9into_iter8IntoIterReEEEB2U_, symObjAddr: 0x15F4, symBinAddr: 0x10000FE74, symSize: 0x60 }
  - { offset: 0x1D79E, size: 0x8, addend: 0x0, symName: __RINvNtCsfvfooZQ3Axs_4core3ptr13drop_in_placeINtNtNtNtB4_4iter8adapters7flatten7FlatMapINtNtNtB4_5slice4iter4IterNtNtCse1nGBsou5OW_5alloc6string6StringEINtNtB1Q_3vec3VecReENCNvMs5_Cs8sZPpv4WdDS_10pkg_configNtB2R_7Library17parse_libs_cflagss3_0EEB2R_, symObjAddr: 0x1654, symBinAddr: 0x10000FED4, symSize: 0x24 }
  - { offset: 0x1D7CD, size: 0x8, addend: 0x0, symName: __RINvNtCsfvfooZQ3Axs_4core3ptr13drop_in_placeINtNtNtNtCscOYdFFY2T5N_3std11collections4hash3map7HashMapNtNtCse1nGBsou5OW_5alloc6string6StringINtNtB4_6option6OptionB1B_EEECs8sZPpv4WdDS_10pkg_config, symObjAddr: 0x1678, symBinAddr: 0x10000FEF8, symSize: 0x24 }
  - { offset: 0x1D7FC, size: 0x8, addend: 0x0, symName: __RINvNtCsfvfooZQ3Axs_4core3ptr13drop_in_placeINtNtNtNtCse1nGBsou5OW_5alloc11collections5btree3map8BTreeMapNtNtNtCscOYdFFY2T5N_3std3ffi6os_str8OsStringINtNtB4_6option6OptionB1F_EEECs8sZPpv4WdDS_10pkg_config, symObjAddr: 0x169C, symBinAddr: 0x10000FF1C, symSize: 0x24 }
  - { offset: 0x1D82B, size: 0x8, addend: 0x0, symName: __RINvNtCsfvfooZQ3Axs_4core3ptr13drop_in_placeINtNtNtNtCse1nGBsou5OW_5alloc11collections5btree3map8IntoIterNtNtNtCscOYdFFY2T5N_3std3ffi6os_str8OsStringINtNtB4_6option6OptionB1F_EEECs8sZPpv4WdDS_10pkg_config, symObjAddr: 0x16C0, symBinAddr: 0x10000FF40, symSize: 0x24 }
  - { offset: 0x1D85A, size: 0x8, addend: 0x0, symName: __RINvNtCsfvfooZQ3Axs_4core3ptr13drop_in_placeINtNvMsT_NtNtNtCse1nGBsou5OW_5alloc11collections5btree4nodeINtBP_6HandleINtBP_7NodeRefNtNtBP_6marker5DyingpppENtB26_2KVE12drop_key_val7DropperINtNtB4_6option6OptionNtNtNtCscOYdFFY2T5N_3std3ffi6os_str8OsStringEEECs8sZPpv4WdDS_10pkg_config, symObjAddr: 0x16E4, symBinAddr: 0x10000FF64, symSize: 0x24 }
  - { offset: 0x1D889, size: 0x8, addend: 0x0, symName: __RINvNtCsfvfooZQ3Axs_4core3ptr13drop_in_placeINtNvNtNtCscOYdFFY2T5N_3std2io5Write9write_fmt7AdapterNtNtNtNtNtBP_3sys3pal4unix5stdio6StderrEECs8sZPpv4WdDS_10pkg_config, symObjAddr: 0x1708, symBinAddr: 0x10000FF88, symSize: 0x24 }
  - { offset: 0x1D8B8, size: 0x8, addend: 0x0, symName: __RINvNtCsfvfooZQ3Axs_4core3ptr13drop_in_placeINtNvXsd_NtNtCse1nGBsou5OW_5alloc3vec9into_iterINtBP_8IntoIterppENtNtNtB4_3ops4drop4Drop4drop9DropGuardReNtNtBT_5alloc6GlobalEECs8sZPpv4WdDS_10pkg_config, symObjAddr: 0x172C, symBinAddr: 0x10000FFAC, symSize: 0x24 }
  - { offset: 0x1D8E7, size: 0x8, addend: 0x0, symName: __RINvNtCsfvfooZQ3Axs_4core3ptr13drop_in_placeINtNvXsw_NtNtNtCse1nGBsou5OW_5alloc11collections5btree3mapINtBP_8IntoIterpppENtNtNtB4_3ops4drop4Drop4drop9DropGuardNtNtNtCscOYdFFY2T5N_3std3ffi6os_str8OsStringINtNtB4_6option6OptionB2x_ENtNtBV_5alloc6GlobalEECs8sZPpv4WdDS_10pkg_config, symObjAddr: 0x1750, symBinAddr: 0x10000FFD0, symSize: 0x24 }
  - { offset: 0x1D916, size: 0x8, addend: 0x0, symName: __RINvNtCsfvfooZQ3Axs_4core3ptr13drop_in_placeNCINvMsi_NtCse1nGBsou5OW_5alloc3vecINtBP_3VecNtNtBR_6string6StringE14extend_trustedINtNtNtNtB4_4iter8adapters3map3MapINtNtBP_9into_iter8IntoIterReENvYB1p_INtNtB4_7convert4FromB30_E4fromEE0ECs8sZPpv4WdDS_10pkg_config, symObjAddr: 0x1794, symBinAddr: 0x10000FFF4, symSize: 0x24 }
  - { offset: 0x1D945, size: 0x8, addend: 0x0, symName: __RINvNtCsfvfooZQ3Axs_4core3ptr13drop_in_placeNCINvMsi_NtCse1nGBsou5OW_5alloc3vecINtBP_3VecNtNtBR_6string6StringE14extend_trustedINtNtNtNtB4_4iter8adapters3map3MapINtNtNtB4_5slice4iter4IterNtNtNtCscOYdFFY2T5N_3std3ffi6os_str8OsStringENCNvXs_Cs8sZPpv4WdDS_10pkg_configNtB3P_14WrappedCommandNtNtB4_3fmt7Display3fmts_0EE0EB3P_, symObjAddr: 0x17B8, symBinAddr: 0x100010018, symSize: 0x24 }
  - { offset: 0x1D974, size: 0x8, addend: 0x0, symName: __RINvNtCsfvfooZQ3Axs_4core3ptr13drop_in_placeNCINvMsi_NtCse1nGBsou5OW_5alloc3vecINtBP_3VecNtNtBR_6string6StringE14extend_trustedINtNtNtNtB4_4iter8adapters3map3MapINtNtNtB4_5slice4iter4IterTNtNtNtCscOYdFFY2T5N_3std3ffi6os_str8OsStringB30_EENCNvXs_Cs8sZPpv4WdDS_10pkg_configNtB3V_14WrappedCommandNtNtB4_3fmt7Display3fmt0EE0EB3V_, symObjAddr: 0x17DC, symBinAddr: 0x10001003C, symSize: 0x24 }
  - { offset: 0x1D9A3, size: 0x8, addend: 0x0, symName: __RINvNtCsfvfooZQ3Axs_4core3ptr13drop_in_placeNCINvMsi_NtCse1nGBsou5OW_5alloc3vecINtBP_3VecNtNtNtCscOYdFFY2T5N_3std3ffi6os_str8OsStringE14extend_trustedINtNtNtNtB4_4iter8adapters3map3MapINtNtNtB4_5slice4iter4IterB1p_ENCINvMCs8sZPpv4WdDS_10pkg_configNtB3x_14WrappedCommand4argsRB1f_RB1p_E0EE0EB3x_, symObjAddr: 0x1800, symBinAddr: 0x100010060, symSize: 0x24 }
  - { offset: 0x1D9D2, size: 0x8, addend: 0x0, symName: __RINvNtCsfvfooZQ3Axs_4core3ptr13drop_in_placeNCINvMsi_NtCse1nGBsou5OW_5alloc3vecINtBP_3VecNtNtNtCscOYdFFY2T5N_3std3ffi6os_str8OsStringE14extend_trustedINtNtNtNtB4_4iter8adapters3map3MapINtNtNtB4_5slice4iter4IterReENCINvMCs8sZPpv4WdDS_10pkg_configNtB3v_14WrappedCommand4argsRSB3m_RB3m_E0EE0EB3v_, symObjAddr: 0x1824, symBinAddr: 0x100010084, symSize: 0x24 }
  - { offset: 0x1DA01, size: 0x8, addend: 0x0, symName: __RINvNtCsfvfooZQ3Axs_4core3ptr13drop_in_placeNCINvMsi_NtCse1nGBsou5OW_5alloc3vecINtBP_3VechE14extend_trustedINtNtNtNtB4_4iter8adapters3map3MapINtNtNtB4_5slice4iter4IterhENCNvNtBR_3str13replace_ascii0EE0ECs8sZPpv4WdDS_10pkg_config, symObjAddr: 0x1848, symBinAddr: 0x1000100A8, symSize: 0x24 }
  - { offset: 0x1DA30, size: 0x8, addend: 0x0, symName: __RINvNtCsfvfooZQ3Axs_4core3ptr13drop_in_placeNCINvNtNtNtB4_4iter8adapters3map8map_foldRNtNtNtCscOYdFFY2T5N_3std3ffi6os_str8OsStringB1m_uNCINvMCs8sZPpv4WdDS_10pkg_configNtB2f_14WrappedCommand4argsRINtNtCse1nGBsou5OW_5alloc3vec3VecB1m_EB1l_E0NCINvNvNtNtNtBP_6traits8iterator8Iterator8for_each4callB1m_NCINvMsi_B3a_B37_14extend_trustedINtBL_3MapINtNtNtB4_5slice4iter4IterB1m_EB29_EE0E0E0EB2f_, symObjAddr: 0x186C, symBinAddr: 0x1000100CC, symSize: 0x24 }
  - { offset: 0x1DA5F, size: 0x8, addend: 0x0, symName: __RINvNtCsfvfooZQ3Axs_4core3ptr13drop_in_placeNCINvNtNtNtB4_4iter8adapters3map8map_foldRNtNtNtCscOYdFFY2T5N_3std3ffi6os_str8OsStringNtNtCse1nGBsou5OW_5alloc6string6StringuNCNvXs_Cs8sZPpv4WdDS_10pkg_configNtB2O_14WrappedCommandNtNtB4_3fmt7Display3fmts_0NCINvNvNtNtNtBP_6traits8iterator8Iterator8for_each4callB24_NCINvMsi_NtB28_3vecINtB56_3VecB24_E14extend_trustedINtBL_3MapINtNtNtB4_5slice4iter4IterB1m_EB2H_EE0E0E0EB2O_, symObjAddr: 0x1890, symBinAddr: 0x1000100F0, symSize: 0x24 }
  - { offset: 0x1DA8E, size: 0x8, addend: 0x0, symName: __RINvNtCsfvfooZQ3Axs_4core3ptr13drop_in_placeNCINvNtNtNtB4_4iter8adapters3map8map_foldRReNtNtNtCscOYdFFY2T5N_3std3ffi6os_str8OsStringuNCINvMCs8sZPpv4WdDS_10pkg_configNtB2d_14WrappedCommand4argsRSB1m_B1l_E0NCINvNvNtNtNtBP_6traits8iterator8Iterator8for_each4callB1o_NCINvMsi_NtCse1nGBsou5OW_5alloc3vecINtB4m_3VecB1o_E14extend_trustedINtBL_3MapINtNtNtB4_5slice4iter4IterB1m_EB27_EE0E0E0EB2d_, symObjAddr: 0x18B4, symBinAddr: 0x100010114, symSize: 0x24 }
  - { offset: 0x1DABD, size: 0x8, addend: 0x0, symName: __RINvNtCsfvfooZQ3Axs_4core3ptr13drop_in_placeNCINvNtNtNtB4_4iter8adapters3map8map_foldRTNtNtNtCscOYdFFY2T5N_3std3ffi6os_str8OsStringB1n_ENtNtCse1nGBsou5OW_5alloc6string6StringuNCNvXs_Cs8sZPpv4WdDS_10pkg_configNtB2U_14WrappedCommandNtNtB4_3fmt7Display3fmt0NCINvNvNtNtNtBP_6traits8iterator8Iterator8for_each4callB2a_NCINvMsi_NtB2e_3vecINtB5a_3VecB2a_E14extend_trustedINtBL_3MapINtNtNtB4_5slice4iter4IterB1m_EB2N_EE0E0E0EB2U_, symObjAddr: 0x18D8, symBinAddr: 0x100010138, symSize: 0x24 }
  - { offset: 0x1DAEC, size: 0x8, addend: 0x0, symName: __RINvNtCsfvfooZQ3Axs_4core3ptr13drop_in_placeNCINvNtNtNtB4_4iter8adapters3map8map_foldReNtNtCse1nGBsou5OW_5alloc6string6StringuNvYB1n_INtNtB4_7convert4FromB1l_E4fromNCINvNvNtNtNtBP_6traits8iterator8Iterator8for_each4callB1n_NCINvMsi_NtB1r_3vecINtB3I_3VecB1n_E14extend_trustedINtBL_3MapINtNtB3I_9into_iter8IntoIterB1l_EB20_EE0E0E0ECs8sZPpv4WdDS_10pkg_config, symObjAddr: 0x18FC, symBinAddr: 0x10001015C, symSize: 0x24 }
  - { offset: 0x1DB1B, size: 0x8, addend: 0x0, symName: __RINvNtCsfvfooZQ3Axs_4core3ptr13drop_in_placeNCINvNtNtNtB4_4iter8adapters3map8map_foldRhhuNCNvNtCse1nGBsou5OW_5alloc3str13replace_ascii0NCINvNvNtNtNtBP_6traits8iterator8Iterator8for_each4callhNCINvMsi_NtB1v_3vecINtB3c_3VechE14extend_trustedINtBL_3MapINtNtNtB4_5slice4iter4IterhEB1p_EE0E0E0ECs8sZPpv4WdDS_10pkg_config, symObjAddr: 0x1920, symBinAddr: 0x100010180, symSize: 0x24 }
  - { offset: 0x1DB4A, size: 0x8, addend: 0x0, symName: __RINvNtCsfvfooZQ3Axs_4core3ptr13drop_in_placeNCINvNvNtNtNtNtB4_4iter6traits8iterator8Iterator8for_each4callNtNtCse1nGBsou5OW_5alloc6string6StringNCINvMsi_NtB1K_3vecINtB2r_3VecB1G_E14extend_trustedINtNtNtBT_8adapters3map3MapINtNtB2r_9into_iter8IntoIterReENvYB1G_INtNtB4_7convert4FromB40_E4fromEE0E0ECs8sZPpv4WdDS_10pkg_config, symObjAddr: 0x1944, symBinAddr: 0x1000101A4, symSize: 0x24 }
  - { offset: 0x1DB79, size: 0x8, addend: 0x0, symName: __RINvNtCsfvfooZQ3Axs_4core3ptr13drop_in_placeNCINvNvNtNtNtNtB4_4iter6traits8iterator8Iterator8for_each4callNtNtCse1nGBsou5OW_5alloc6string6StringNCINvMsi_NtB1K_3vecINtB2r_3VecB1G_E14extend_trustedINtNtNtBT_8adapters3map3MapINtNtNtB4_5slice4iter4IterNtNtNtCscOYdFFY2T5N_3std3ffi6os_str8OsStringENCNvXs_Cs8sZPpv4WdDS_10pkg_configNtB4O_14WrappedCommandNtNtB4_3fmt7Display3fmts_0EE0E0EB4O_, symObjAddr: 0x1968, symBinAddr: 0x1000101C8, symSize: 0x24 }
  - { offset: 0x1DBA8, size: 0x8, addend: 0x0, symName: __RINvNtCsfvfooZQ3Axs_4core3ptr13drop_in_placeNCINvNvNtNtNtNtB4_4iter6traits8iterator8Iterator8for_each4callNtNtCse1nGBsou5OW_5alloc6string6StringNCINvMsi_NtB1K_3vecINtB2r_3VecB1G_E14extend_trustedINtNtNtBT_8adapters3map3MapINtNtNtB4_5slice4iter4IterTNtNtNtCscOYdFFY2T5N_3std3ffi6os_str8OsStringB3Z_EENCNvXs_Cs8sZPpv4WdDS_10pkg_configNtB4U_14WrappedCommandNtNtB4_3fmt7Display3fmt0EE0E0EB4U_, symObjAddr: 0x198C, symBinAddr: 0x1000101EC, symSize: 0x24 }
  - { offset: 0x1DBD7, size: 0x8, addend: 0x0, symName: __RINvNtCsfvfooZQ3Axs_4core3ptr13drop_in_placeNCINvNvNtNtNtNtB4_4iter6traits8iterator8Iterator8for_each4callNtNtNtCscOYdFFY2T5N_3std3ffi6os_str8OsStringNCINvMsi_NtCse1nGBsou5OW_5alloc3vecINtB2x_3VecB1G_E14extend_trustedINtNtNtBT_8adapters3map3MapINtNtNtB4_5slice4iter4IterB1G_ENCINvMCs8sZPpv4WdDS_10pkg_configNtB4v_14WrappedCommand4argsRB2X_RB1G_E0EE0E0EB4v_, symObjAddr: 0x19B0, symBinAddr: 0x100010210, symSize: 0x24 }
  - { offset: 0x1DC06, size: 0x8, addend: 0x0, symName: __RINvNtCsfvfooZQ3Axs_4core3ptr13drop_in_placeNCINvNvNtNtNtNtB4_4iter6traits8iterator8Iterator8for_each4callNtNtNtCscOYdFFY2T5N_3std3ffi6os_str8OsStringNCINvMsi_NtCse1nGBsou5OW_5alloc3vecINtB2x_3VecB1G_E14extend_trustedINtNtNtBT_8adapters3map3MapINtNtNtB4_5slice4iter4IterReENCINvMCs8sZPpv4WdDS_10pkg_configNtB4t_14WrappedCommand4argsRSB4k_RB4k_E0EE0E0EB4t_, symObjAddr: 0x19D4, symBinAddr: 0x100010234, symSize: 0x24 }
  - { offset: 0x1DC35, size: 0x8, addend: 0x0, symName: __RINvNtCsfvfooZQ3Axs_4core3ptr13drop_in_placeNCINvNvNtNtNtNtB4_4iter6traits8iterator8Iterator8for_each4callhNCINvMsi_NtCse1nGBsou5OW_5alloc3vecINtB1Q_3VechE14extend_trustedINtNtNtBT_8adapters3map3MapINtNtNtB4_5slice4iter4IterhENCNvNtB1S_3str13replace_ascii0EE0E0ECs8sZPpv4WdDS_10pkg_config, symObjAddr: 0x19F8, symBinAddr: 0x100010258, symSize: 0x24 }
  - { offset: 0x1DC64, size: 0x8, addend: 0x0, symName: __RINvNtCsfvfooZQ3Axs_4core3ptr13drop_in_placeNCNvMs3_Cs8sZPpv4WdDS_10pkg_configNtBO_6Config3runs_0EBO_, symObjAddr: 0x1A1C, symBinAddr: 0x10001027C, symSize: 0x24 }
  - { offset: 0x1DC93, size: 0x8, addend: 0x0, symName: __RINvNtCsfvfooZQ3Axs_4core3ptr13drop_in_placeNtCs8sZPpv4WdDS_10pkg_config14WrappedCommandEBI_, symObjAddr: 0x1A40, symBinAddr: 0x1000102A0, symSize: 0xC0 }
  - { offset: 0x1DCC2, size: 0x8, addend: 0x0, symName: __RINvNtCsfvfooZQ3Axs_4core3ptr13drop_in_placeNtCs8sZPpv4WdDS_10pkg_config5ErrorEBI_, symObjAddr: 0x1B00, symBinAddr: 0x100010360, symSize: 0x180 }
  - { offset: 0x1DCF1, size: 0x8, addend: 0x0, symName: __RINvNtCsfvfooZQ3Axs_4core3ptr13drop_in_placeNtCs8sZPpv4WdDS_10pkg_config6ConfigEBI_, symObjAddr: 0x1C80, symBinAddr: 0x1000104E0, symSize: 0x90 }
  - { offset: 0x1DD20, size: 0x8, addend: 0x0, symName: __RINvNtCsfvfooZQ3Axs_4core3ptr13drop_in_placeNtCs8sZPpv4WdDS_10pkg_config7LibraryEBI_, symObjAddr: 0x1D10, symBinAddr: 0x100010570, symSize: 0x1B0 }
  - { offset: 0x1DD4F, size: 0x8, addend: 0x0, symName: __RINvNtCsfvfooZQ3Axs_4core3ptr13drop_in_placeNtNtCscOYdFFY2T5N_3std3env8VarErrorECs8sZPpv4WdDS_10pkg_config, symObjAddr: 0x1ED0, symBinAddr: 0x100010720, symSize: 0x48 }
  - { offset: 0x1DD7E, size: 0x8, addend: 0x0, symName: __RINvNtCsfvfooZQ3Axs_4core3ptr13drop_in_placeNtNtCscOYdFFY2T5N_3std4path7PathBufECs8sZPpv4WdDS_10pkg_config, symObjAddr: 0x1F18, symBinAddr: 0x100010768, symSize: 0x24 }
  - { offset: 0x1DDAD, size: 0x8, addend: 0x0, symName: __RINvNtCsfvfooZQ3Axs_4core3ptr13drop_in_placeNtNtCscOYdFFY2T5N_3std7process6OutputECs8sZPpv4WdDS_10pkg_config, symObjAddr: 0x1F3C, symBinAddr: 0x10001078C, symSize: 0x60 }
  - { offset: 0x1DDDC, size: 0x8, addend: 0x0, symName: __RINvNtCsfvfooZQ3Axs_4core3ptr13drop_in_placeNtNtCscOYdFFY2T5N_3std7process7CommandECs8sZPpv4WdDS_10pkg_config, symObjAddr: 0x1F9C, symBinAddr: 0x1000107EC, symSize: 0x24 }
  - { offset: 0x1DE0B, size: 0x8, addend: 0x0, symName: __RINvNtCsfvfooZQ3Axs_4core3ptr13drop_in_placeNtNtCse1nGBsou5OW_5alloc6string13FromUtf8ErrorECs8sZPpv4WdDS_10pkg_config, symObjAddr: 0x1FC0, symBinAddr: 0x100010810, symSize: 0x24 }
  - { offset: 0x1DE3A, size: 0x8, addend: 0x0, symName: __RINvNtCsfvfooZQ3Axs_4core3ptr13drop_in_placeNtNtCse1nGBsou5OW_5alloc6string6StringECs8sZPpv4WdDS_10pkg_config, symObjAddr: 0x1FE4, symBinAddr: 0x100010834, symSize: 0x24 }
  - { offset: 0x1DE69, size: 0x8, addend: 0x0, symName: __RINvNtCsfvfooZQ3Axs_4core3ptr13drop_in_placeNtNtNtCscOYdFFY2T5N_3std10sys_common7process10CommandEnvECs8sZPpv4WdDS_10pkg_config, symObjAddr: 0x2028, symBinAddr: 0x100010858, symSize: 0x24 }
  - { offset: 0x1DE98, size: 0x8, addend: 0x0, symName: __RINvNtCsfvfooZQ3Axs_4core3ptr13drop_in_placeNtNtNtCscOYdFFY2T5N_3std2io5error5ErrorECs8sZPpv4WdDS_10pkg_config, symObjAddr: 0x204C, symBinAddr: 0x10001087C, symSize: 0x24 }
  - { offset: 0x1DEC7, size: 0x8, addend: 0x0, symName: __RINvNtCsfvfooZQ3Axs_4core3ptr13drop_in_placeNtNtNtCscOYdFFY2T5N_3std2io5error6CustomECs8sZPpv4WdDS_10pkg_config, symObjAddr: 0x2070, symBinAddr: 0x1000108A0, symSize: 0x24 }
  - { offset: 0x1DEF6, size: 0x8, addend: 0x0, symName: __RINvNtCsfvfooZQ3Axs_4core3ptr13drop_in_placeNtNtNtCscOYdFFY2T5N_3std3ffi6os_str8OsStringECs8sZPpv4WdDS_10pkg_config, symObjAddr: 0x2094, symBinAddr: 0x1000108C4, symSize: 0x24 }
  - { offset: 0x1DF25, size: 0x8, addend: 0x0, symName: __RINvNtCsfvfooZQ3Axs_4core3ptr13drop_in_placeNtNtNtCse1nGBsou5OW_5alloc3ffi5c_str7CStringECs8sZPpv4WdDS_10pkg_config, symObjAddr: 0x20B8, symBinAddr: 0x1000108E8, symSize: 0x5C }
  - { offset: 0x1DF54, size: 0x8, addend: 0x0, symName: __RINvNtCsfvfooZQ3Axs_4core3ptr13drop_in_placeNtNtNtCse1nGBsou5OW_5alloc3vec15set_len_on_drop12SetLenOnDropECs8sZPpv4WdDS_10pkg_config, symObjAddr: 0x2114, symBinAddr: 0x100010944, symSize: 0x24 }
  - { offset: 0x1DF83, size: 0x8, addend: 0x0, symName: __RINvNtCsfvfooZQ3Axs_4core3ptr13drop_in_placeNtNtNtNtCscOYdFFY2T5N_3std2io5error14repr_bitpacked4ReprECs8sZPpv4WdDS_10pkg_config, symObjAddr: 0x2138, symBinAddr: 0x100010968, symSize: 0x24 }
  - { offset: 0x1DFB2, size: 0x8, addend: 0x0, symName: __RINvNtCsfvfooZQ3Axs_4core3ptr13drop_in_placeNtNtNtNtCscOYdFFY2T5N_3std2os2fd5owned7OwnedFdECs8sZPpv4WdDS_10pkg_config, symObjAddr: 0x215C, symBinAddr: 0x10001098C, symSize: 0x24 }
  - { offset: 0x1DFE1, size: 0x8, addend: 0x0, symName: __RINvNtCsfvfooZQ3Axs_4core3ptr13drop_in_placeNtNtNtNtCscOYdFFY2T5N_3std3sys6os_str5bytes3BufECs8sZPpv4WdDS_10pkg_config, symObjAddr: 0x2180, symBinAddr: 0x1000109B0, symSize: 0x24 }
  - { offset: 0x1E010, size: 0x8, addend: 0x0, symName: __RINvNtCsfvfooZQ3Axs_4core3ptr13drop_in_placeNtNtNtNtNtCscOYdFFY2T5N_3std3sys3pal4unix2fd8FileDescECs8sZPpv4WdDS_10pkg_config, symObjAddr: 0x21A4, symBinAddr: 0x1000109D4, symSize: 0x24 }
  - { offset: 0x1E03F, size: 0x8, addend: 0x0, symName: __RINvNtCsfvfooZQ3Axs_4core3ptr13drop_in_placeNtNtNtNtNtNtCscOYdFFY2T5N_3std3sys3pal4unix7process14process_common4ArgvECs8sZPpv4WdDS_10pkg_config, symObjAddr: 0x21C8, symBinAddr: 0x1000109F8, symSize: 0x24 }
  - { offset: 0x1E06E, size: 0x8, addend: 0x0, symName: __RINvNtCsfvfooZQ3Axs_4core3ptr13drop_in_placeNtNtNtNtNtNtCscOYdFFY2T5N_3std3sys3pal4unix7process14process_common5StdioECs8sZPpv4WdDS_10pkg_config, symObjAddr: 0x21EC, symBinAddr: 0x100010A1C, symSize: 0x44 }
  - { offset: 0x1E09D, size: 0x8, addend: 0x0, symName: __RINvNtCsfvfooZQ3Axs_4core3ptr13drop_in_placeNtNtNtNtNtNtCscOYdFFY2T5N_3std3sys3pal4unix7process14process_common7CommandECs8sZPpv4WdDS_10pkg_config, symObjAddr: 0x2230, symBinAddr: 0x100010A60, symSize: 0x1DC }
  - { offset: 0x1E0CC, size: 0x8, addend: 0x0, symName: __RINvNtCsfvfooZQ3Axs_4core3ptr13drop_in_placeNtNvNtNtNtCse1nGBsou5OW_5alloc11collections5btree3mem7replace10PanicGuardECs8sZPpv4WdDS_10pkg_config, symObjAddr: 0x240C, symBinAddr: 0x100010C3C, symSize: 0x24 }
  - { offset: 0x1E0FB, size: 0x8, addend: 0x0, symName: __RINvNtCsfvfooZQ3Axs_4core3ptr13drop_in_placeSINtNtCse1nGBsou5OW_5alloc3vec3VecNtNtBM_6string6StringEECs8sZPpv4WdDS_10pkg_config, symObjAddr: 0x2470, symBinAddr: 0x100010C60, symSize: 0xC4 }
  - { offset: 0x1E12A, size: 0x8, addend: 0x0, symName: __RINvNtCsfvfooZQ3Axs_4core3ptr13drop_in_placeSINtNtCse1nGBsou5OW_5alloc5boxed3BoxDINtNtNtB4_3ops8function5FnMutuEp6OutputINtNtB4_6result6ResultuNtNtNtCscOYdFFY2T5N_3std2io5error5ErrorENtNtB4_6marker4SendNtB2X_4SyncEL_EECs8sZPpv4WdDS_10pkg_config, symObjAddr: 0x2534, symBinAddr: 0x100010D24, symSize: 0xB4 }
  - { offset: 0x1E159, size: 0x8, addend: 0x0, symName: __RINvNtCsfvfooZQ3Axs_4core3ptr13drop_in_placeSNtNtCscOYdFFY2T5N_3std4path7PathBufECs8sZPpv4WdDS_10pkg_config, symObjAddr: 0x25E8, symBinAddr: 0x100010DD8, symSize: 0xC4 }
  - { offset: 0x1E188, size: 0x8, addend: 0x0, symName: __RINvNtCsfvfooZQ3Axs_4core3ptr13drop_in_placeSNtNtCse1nGBsou5OW_5alloc6string6StringECs8sZPpv4WdDS_10pkg_config, symObjAddr: 0x26AC, symBinAddr: 0x100010E9C, symSize: 0xC4 }
  - { offset: 0x1E1B7, size: 0x8, addend: 0x0, symName: __RINvNtCsfvfooZQ3Axs_4core3ptr13drop_in_placeSNtNtNtCscOYdFFY2T5N_3std3ffi6os_str8OsStringECs8sZPpv4WdDS_10pkg_config, symObjAddr: 0x2770, symBinAddr: 0x100010F60, symSize: 0xC4 }
  - { offset: 0x1E1E6, size: 0x8, addend: 0x0, symName: __RINvNtCsfvfooZQ3Axs_4core3ptr13drop_in_placeSNtNtNtCse1nGBsou5OW_5alloc3ffi5c_str7CStringECs8sZPpv4WdDS_10pkg_config, symObjAddr: 0x2834, symBinAddr: 0x100011024, symSize: 0xB4 }
  - { offset: 0x1E215, size: 0x8, addend: 0x0, symName: __RINvNtCsfvfooZQ3Axs_4core3ptr13drop_in_placeSTNtNtNtCscOYdFFY2T5N_3std3ffi6os_str8OsStringBI_EECs8sZPpv4WdDS_10pkg_config, symObjAddr: 0x28E8, symBinAddr: 0x1000110D8, symSize: 0xC4 }
  - { offset: 0x1E244, size: 0x8, addend: 0x0, symName: __RINvNtCsfvfooZQ3Axs_4core3ptr13drop_in_placeTNtNtCse1nGBsou5OW_5alloc6string6StringINtNtB4_6option6OptionBH_EEECs8sZPpv4WdDS_10pkg_config, symObjAddr: 0x29AC, symBinAddr: 0x10001119C, symSize: 0x60 }
  - { offset: 0x1E273, size: 0x8, addend: 0x0, symName: __RINvNtCsfvfooZQ3Axs_4core3ptr13drop_in_placeTNtNtNtCscOYdFFY2T5N_3std3ffi6os_str8OsStringBH_EECs8sZPpv4WdDS_10pkg_config, symObjAddr: 0x2A0C, symBinAddr: 0x1000111FC, symSize: 0x60 }
  - { offset: 0x1E96A, size: 0x8, addend: 0x0, symName: __RNvXs1a_NtCsfvfooZQ3Axs_4core3fmtRhNtB6_5Debug3fmtCs8sZPpv4WdDS_10pkg_config, symObjAddr: 0x36B0, symBinAddr: 0x100011D3C, symSize: 0x30 }
  - { offset: 0x1E9B0, size: 0x8, addend: 0x0, symName: __RNvXs1a_NtCsfvfooZQ3Axs_4core3fmtRuNtB6_5Debug3fmtCs8sZPpv4WdDS_10pkg_config, symObjAddr: 0x36E0, symBinAddr: 0x100011D6C, symSize: 0x30 }
  - { offset: 0x1E9FC, size: 0x8, addend: 0x0, symName: __RNvXs1c_NtCsfvfooZQ3Axs_4core3fmtReNtB6_7Display3fmtCs8sZPpv4WdDS_10pkg_config, symObjAddr: 0x3740, symBinAddr: 0x100011D9C, symSize: 0x3C }
  - { offset: 0x1EA4D, size: 0x8, addend: 0x0, symName: __RNvXs1k_NtNtCsfvfooZQ3Axs_4core3fmt3numhNtB8_5Debug3fmtCs8sZPpv4WdDS_10pkg_config, symObjAddr: 0x37C8, symBinAddr: 0x100011E24, symSize: 0x90 }
  - { offset: 0x1EAC7, size: 0x8, addend: 0x0, symName: __RNvXs1p_NtNtCsfvfooZQ3Axs_4core3fmt3numjNtB8_5Debug3fmtCs8sZPpv4WdDS_10pkg_config, symObjAddr: 0x3858, symBinAddr: 0x100011EB4, symSize: 0x90 }
  - { offset: 0x1EB4C, size: 0x8, addend: 0x0, symName: __RNvXs_NvNtNtCsfvfooZQ3Axs_4core3fmt5Write9write_fmtQINtNvNtNtCscOYdFFY2T5N_3std2io5Write9write_fmt7AdapterNtNtNtNtNtBX_3sys3pal4unix5stdio6StderrENtB4_12SpecWriteFmt14spec_write_fmtCs8sZPpv4WdDS_10pkg_config, symObjAddr: 0x482C, symBinAddr: 0x100012E20, symSize: 0x164 }
  - { offset: 0x1EBFB, size: 0x8, addend: 0x0, symName: __RNvYINtNvNtNtCscOYdFFY2T5N_3std2io5Write9write_fmt7AdapterNtNtNtNtNtBb_3sys3pal4unix5stdio6StderrENtNtCsfvfooZQ3Axs_4core3fmt5Write10write_charCs8sZPpv4WdDS_10pkg_config, symObjAddr: 0x4F10, symBinAddr: 0x1000134BC, symSize: 0x70 }
  - { offset: 0x1EC63, size: 0x8, addend: 0x0, symName: __RNvYINtNvNtNtCscOYdFFY2T5N_3std2io5Write9write_fmt7AdapterNtNtNtNtNtBb_3sys3pal4unix5stdio6StderrENtNtCsfvfooZQ3Axs_4core3fmt5Write9write_fmtCs8sZPpv4WdDS_10pkg_config, symObjAddr: 0x4F80, symBinAddr: 0x10001352C, symSize: 0x24 }
  - { offset: 0x1ECAD, size: 0x8, addend: 0x0, symName: __RNvXsr_NtCsfvfooZQ3Axs_4core3fmtShNtB5_5Debug3fmtCs8sZPpv4WdDS_10pkg_config, symObjAddr: 0x4ABC, symBinAddr: 0x1000130B0, symSize: 0x88 }
  - { offset: 0x1EE11, size: 0x8, addend: 0x0, symName: __RNvXss_NtCsfvfooZQ3Axs_4core3fmtuNtB5_5Debug3fmtCs8sZPpv4WdDS_10pkg_config, symObjAddr: 0x4BD4, symBinAddr: 0x100013180, symSize: 0x40 }
  - { offset: 0x1EE5A, size: 0x8, addend: 0x0, symName: __RINvMNtCsfvfooZQ3Axs_4core3stre11starts_withReECs8sZPpv4WdDS_10pkg_config, symObjAddr: 0x28, symBinAddr: 0x10000EAF0, symSize: 0x4C }
  - { offset: 0x1EEA0, size: 0x8, addend: 0x0, symName: __RINvMNtCsfvfooZQ3Axs_4core3stre11starts_withcECs8sZPpv4WdDS_10pkg_config, symObjAddr: 0x74, symBinAddr: 0x10000EB3C, symSize: 0x44 }
  - { offset: 0x1EF1A, size: 0x8, addend: 0x0, symName: __RINvMNtCsfvfooZQ3Axs_4core3stre12trim_matchesNCNvB2_4trim0ECs8sZPpv4WdDS_10pkg_config, symObjAddr: 0xB8, symBinAddr: 0x10000EB80, symSize: 0x128 }
  - { offset: 0x1F0B7, size: 0x8, addend: 0x0, symName: __RINvMNtCsfvfooZQ3Axs_4core3stre5splitcECs8sZPpv4WdDS_10pkg_config, symObjAddr: 0x2B4, symBinAddr: 0x10000ECA8, symSize: 0x98 }
  - { offset: 0x1F0FD, size: 0x8, addend: 0x0, symName: __RINvMNtCsfvfooZQ3Axs_4core3stre8containsReECs8sZPpv4WdDS_10pkg_config, symObjAddr: 0x34C, symBinAddr: 0x10000ED40, symSize: 0x4C }
  - { offset: 0x1F143, size: 0x8, addend: 0x0, symName: __RINvMNtCsfvfooZQ3Axs_4core3stre8containscECs8sZPpv4WdDS_10pkg_config, symObjAddr: 0x398, symBinAddr: 0x10000ED8C, symSize: 0x44 }
  - { offset: 0x1F189, size: 0x8, addend: 0x0, symName: __RINvMNtCsfvfooZQ3Axs_4core3stre9ends_withRReECs8sZPpv4WdDS_10pkg_config, symObjAddr: 0x3DC, symBinAddr: 0x10000EDD0, symSize: 0x48 }
  - { offset: 0x1F1D4, size: 0x8, addend: 0x0, symName: __RNCNvMNtCsfvfooZQ3Axs_4core3stre4trim0Cs8sZPpv4WdDS_10pkg_config, symObjAddr: 0x2C38, symBinAddr: 0x1000113F4, symSize: 0x94 }
  - { offset: 0x1F241, size: 0x8, addend: 0x0, symName: __RNvMNtCsfvfooZQ3Axs_4core3stre3lenCs8sZPpv4WdDS_10pkg_config, symObjAddr: 0x2E1C, symBinAddr: 0x100011544, symSize: 0x1C }
  - { offset: 0x1F26D, size: 0x8, addend: 0x0, symName: __RNvMNtCsfvfooZQ3Axs_4core3stre4trimCs8sZPpv4WdDS_10pkg_config, symObjAddr: 0x2E38, symBinAddr: 0x100011560, symSize: 0x28 }
  - { offset: 0x1F29B, size: 0x8, addend: 0x0, symName: __RNvMNtCsfvfooZQ3Axs_4core3stre5charsCs8sZPpv4WdDS_10pkg_config, symObjAddr: 0x2E60, symBinAddr: 0x100011588, symSize: 0x20 }
  - { offset: 0x1F33D, size: 0x8, addend: 0x0, symName: __RNvMNtCsfvfooZQ3Axs_4core3stre5linesCs8sZPpv4WdDS_10pkg_config, symObjAddr: 0x2E80, symBinAddr: 0x1000115A8, symSize: 0xC4 }
  - { offset: 0x1F52E, size: 0x8, addend: 0x0, symName: __RNvXs5_NtNtCsfvfooZQ3Axs_4core3str6traitsINtNtNtB9_3ops5range5RangejEINtNtNtB9_5slice5index10SliceIndexeE3getCs8sZPpv4WdDS_10pkg_config, symObjAddr: 0x3B3C, symBinAddr: 0x100012170, symSize: 0x200 }
  - { offset: 0x1F66D, size: 0x8, addend: 0x0, symName: __RNvXs5_NtNtCsfvfooZQ3Axs_4core3str6traitsINtNtNtB9_3ops5range5RangejEINtNtNtB9_5slice5index10SliceIndexeE5indexCs8sZPpv4WdDS_10pkg_config, symObjAddr: 0x3D3C, symBinAddr: 0x100012370, symSize: 0x90 }
  - { offset: 0x1F762, size: 0x8, addend: 0x0, symName: __RNvXs4_NtNtCsfvfooZQ3Axs_4core3str6traitsNtNtNtB9_3ops5range9RangeFullINtNtNtB9_5slice5index10SliceIndexeE5indexCs8sZPpv4WdDS_10pkg_config, symObjAddr: 0x3B24, symBinAddr: 0x100012158, symSize: 0x18 }
  - { offset: 0x1F7C9, size: 0x8, addend: 0x0, symName: __RNvXs8_NtNtCsfvfooZQ3Axs_4core3str6traitsINtNtNtB9_3ops5range7RangeTojEINtNtNtB9_5slice5index10SliceIndexeE3getCs8sZPpv4WdDS_10pkg_config, symObjAddr: 0x4414, symBinAddr: 0x100012A48, symSize: 0x138 }
  - { offset: 0x1F8E2, size: 0x8, addend: 0x0, symName: __RNvXs8_NtNtCsfvfooZQ3Axs_4core3str6traitsINtNtNtB9_3ops5range7RangeTojEINtNtNtB9_5slice5index10SliceIndexeE5indexCs8sZPpv4WdDS_10pkg_config, symObjAddr: 0x454C, symBinAddr: 0x100012B80, symSize: 0x84 }
  - { offset: 0x1F97D, size: 0x8, addend: 0x0, symName: __RNvXs9_NtNtCsfvfooZQ3Axs_4core3str6traitsINtNtNtB9_3ops5range9RangeFromjEINtNtNtB9_5slice5index10SliceIndexeE3getCs8sZPpv4WdDS_10pkg_config, symObjAddr: 0x45D0, symBinAddr: 0x100012C04, symSize: 0x148 }
  - { offset: 0x1FAEC, size: 0x8, addend: 0x0, symName: __RNvXs9_NtNtCsfvfooZQ3Axs_4core3str6traitsINtNtNtB9_3ops5range9RangeFromjEINtNtNtB9_5slice5index10SliceIndexeE5indexCs8sZPpv4WdDS_10pkg_config, symObjAddr: 0x4718, symBinAddr: 0x100012D4C, symSize: 0x88 }
  - { offset: 0x1FCDE, size: 0x8, addend: 0x0, symName: __RNvXs3_NtNtCsfvfooZQ3Axs_4core3str7patternNCNvMB7_e4trim0NtB5_11MultiCharEq7matchesCs8sZPpv4WdDS_10pkg_config, symObjAddr: 0x3A98, symBinAddr: 0x1000120F4, symSize: 0x28 }
  - { offset: 0x1FD2A, size: 0x8, addend: 0x0, symName: __RNvXsr_NtNtCsfvfooZQ3Axs_4core3str7patternNCNvMB7_e4trim0NtB5_7Pattern13into_searcherCs8sZPpv4WdDS_10pkg_config, symObjAddr: 0x4B44, symBinAddr: 0x100013138, symSize: 0x48 }
  - { offset: 0x1FDD3, size: 0x8, addend: 0x0, symName: __RNvXs3_NtCsfvfooZQ3Axs_4core3strNtB5_8LinesMapINtNtNtB7_3ops8function2FnTReEE4callCs8sZPpv4WdDS_10pkg_config, symObjAddr: 0x391C, symBinAddr: 0x100011F78, symSize: 0x17C }
  - { offset: 0x1FEFE, size: 0x8, addend: 0x0, symName: __RNvXs4_NtCsfvfooZQ3Axs_4core3strNtB5_8LinesMapINtNtNtB7_3ops8function5FnMutTReEE8call_mutCs8sZPpv4WdDS_10pkg_config, symObjAddr: 0x3AE8, symBinAddr: 0x10001211C, symSize: 0x3C }
  - { offset: 0x1FF57, size: 0x8, addend: 0x0, symName: __RNvXs_NtCsfvfooZQ3Axs_4core3streINtNtB6_7convert5AsRefShE6as_refCs8sZPpv4WdDS_10pkg_config, symObjAddr: 0x4814, symBinAddr: 0x100012E08, symSize: 0x18 }
  - { offset: 0x20144, size: 0x8, addend: 0x0, symName: __RNSNvYNCINvMs6_NtCsloNvcHxBCre_9hashbrown3rawINtBd_8RawTableTNtNtCse1nGBsou5OW_5alloc6string6StringINtNtCsfvfooZQ3Axs_4core6option6OptionBX_EEE14reserve_rehashNCINvNtBf_3map11make_hasherBX_B1z_NtNtNtCscOYdFFY2T5N_3std4hash6random11RandomStateE0E0INtNtNtB1E_3ops8function6FnOnceTQNtBd_13RawTableInnerjEE9call_once6vtableCs8sZPpv4WdDS_10pkg_config, symObjAddr: 0x2D7C, symBinAddr: 0x1000114A4, symSize: 0x38 }
  - { offset: 0x20188, size: 0x8, addend: 0x0, symName: __RNSNvYNCINvMs6_NtCsloNvcHxBCre_9hashbrown3rawINtBd_8RawTableTNtNtCse1nGBsou5OW_5alloc6string6StringINtNtCsfvfooZQ3Axs_4core6option6OptionBX_EEE24find_or_find_insert_slotNCINvNtBf_3map14equivalent_keyBX_BX_B1z_E0NCINvB2M_11make_hasherBX_B1z_NtNtNtCscOYdFFY2T5N_3std4hash6random11RandomStateE0E0INtNtNtB1E_3ops8function6FnOnceTjEE9call_once6vtableCs8sZPpv4WdDS_10pkg_config, symObjAddr: 0x2DB4, symBinAddr: 0x1000114DC, symSize: 0x38 }
  - { offset: 0x201CC, size: 0x8, addend: 0x0, symName: __RNvYNCINvMs6_NtCsloNvcHxBCre_9hashbrown3rawINtBb_8RawTableTNtNtCse1nGBsou5OW_5alloc6string6StringINtNtCsfvfooZQ3Axs_4core6option6OptionBV_EEE14reserve_rehashNCINvNtBd_3map11make_hasherBV_B1x_NtNtNtCscOYdFFY2T5N_3std4hash6random11RandomStateE0E0INtNtNtB1C_3ops8function6FnOnceTQNtBb_13RawTableInnerjEE9call_onceCs8sZPpv4WdDS_10pkg_config, symObjAddr: 0x4FA4, symBinAddr: 0x100013550, symSize: 0x5C }
  - { offset: 0x20210, size: 0x8, addend: 0x0, symName: __RNvYNCINvMs6_NtCsloNvcHxBCre_9hashbrown3rawINtBb_8RawTableTNtNtCse1nGBsou5OW_5alloc6string6StringINtNtCsfvfooZQ3Axs_4core6option6OptionBV_EEE14reserve_rehashNCINvNtBd_3map11make_hasherBV_B1x_NtNtNtCscOYdFFY2T5N_3std4hash6random11RandomStateE0Es_0INtNtNtB1C_3ops8function6FnOnceTOhEE9call_onceCs8sZPpv4WdDS_10pkg_config, symObjAddr: 0x5000, symBinAddr: 0x1000135AC, symSize: 0x44 }
  - { offset: 0x20250, size: 0x8, addend: 0x0, symName: __RNvYNCINvMs6_NtCsloNvcHxBCre_9hashbrown3rawINtBb_8RawTableTNtNtCse1nGBsou5OW_5alloc6string6StringINtNtCsfvfooZQ3Axs_4core6option6OptionBV_EEE24find_or_find_insert_slotNCINvNtBd_3map14equivalent_keyBV_BV_B1x_E0NCINvB2K_11make_hasherBV_B1x_NtNtNtCscOYdFFY2T5N_3std4hash6random11RandomStateE0E0INtNtNtB1C_3ops8function6FnOnceTjEE9call_onceCs8sZPpv4WdDS_10pkg_config, symObjAddr: 0x5044, symBinAddr: 0x1000135F0, symSize: 0x58 }
  - { offset: 0x20294, size: 0x8, addend: 0x0, symName: __RNvYNCNkNvNvMNtNtCscOYdFFY2T5N_3std4hash6randomNtBb_11RandomState3new4KEYS0s_0INtNtNtCsfvfooZQ3Axs_4core3ops8function6FnOnceTINtNtB1l_6option6OptionQIB20_INtNtB1l_4cell4CellTyyEEEEEE9call_onceCs8sZPpv4WdDS_10pkg_config, symObjAddr: 0x509C, symBinAddr: 0x100013648, symSize: 0x4C }
  - { offset: 0x202D8, size: 0x8, addend: 0x0, symName: __RNvYNcNtNtCscOYdFFY2T5N_3std2fs8Metadata0INtNtNtCsfvfooZQ3Axs_4core3ops8function6FnOnceTNtNtNtNtNtB8_3sys3pal4unix2fs8FileAttrEE9call_onceCs8sZPpv4WdDS_10pkg_config, symObjAddr: 0x50E8, symBinAddr: 0x100013694, symSize: 0x40 }
  - { offset: 0x2031C, size: 0x8, addend: 0x0, symName: __RNvYNvMNtCsfvfooZQ3Axs_4core6optionINtB5_6OptionINtNtB7_4cell4CellTyyEEE4takeINtNtNtB7_3ops8function6FnOnceTQBx_EE9call_onceCs8sZPpv4WdDS_10pkg_config, symObjAddr: 0x5128, symBinAddr: 0x1000136D4, symSize: 0x24 }
  - { offset: 0x20360, size: 0x8, addend: 0x0, symName: __RNvYNvNvNvMNtNtCscOYdFFY2T5N_3std4hash6randomNtB9_11RandomState3new4KEYS6___initINtNtNtCsfvfooZQ3Axs_4core3ops8function6FnOnceuE9call_onceCs8sZPpv4WdDS_10pkg_config, symObjAddr: 0x517C, symBinAddr: 0x100013728, symSize: 0x1C }
  - { offset: 0x203A4, size: 0x8, addend: 0x0, symName: __RNvYNvYINtNtNtCse1nGBsou5OW_5alloc3vec9into_iter8IntoIterReENtNtNtNtCsfvfooZQ3Axs_4core4iter6traits8iterator8Iterator4nextINtNtNtB14_3ops8function6FnOnceTQB5_EE9call_onceCs8sZPpv4WdDS_10pkg_config, symObjAddr: 0x5198, symBinAddr: 0x100013744, symSize: 0x24 }
  - { offset: 0x203E8, size: 0x8, addend: 0x0, symName: __RNvYNvYeNtNtCse1nGBsou5OW_5alloc6borrow7ToOwned8to_ownedINtNtNtCsfvfooZQ3Axs_4core3ops8function6FnOnceTReEE9call_onceCs8sZPpv4WdDS_10pkg_config, symObjAddr: 0x51EC, symBinAddr: 0x100013798, symSize: 0x2C }
  - { offset: 0x20437, size: 0x8, addend: 0x0, symName: __RNvXs2_NtNtNtCsfvfooZQ3Axs_4core3ops8function5implsQNtNtBb_3str8LinesMapINtB7_6FnOnceTReEE9call_onceCs8sZPpv4WdDS_10pkg_config, symObjAddr: 0x38E8, symBinAddr: 0x100011F44, symSize: 0x34 }
  - { offset: 0x2048D, size: 0x8, addend: 0x0, symName: __RNvYNvMs9_NtCsfvfooZQ3Axs_4core3numj11checked_addINtNtNtBa_3ops8function5FnMutTjjEE8call_mutCs8sZPpv4WdDS_10pkg_config, symObjAddr: 0x514C, symBinAddr: 0x1000136F8, symSize: 0x30 }
  - { offset: 0x204D1, size: 0x8, addend: 0x0, symName: __RNvYNvYNtNtCse1nGBsou5OW_5alloc6string6StringINtNtCsfvfooZQ3Axs_4core7convert4FromReE4fromINtNtNtBM_3ops8function5FnMutTB1i_EE8call_mutCs8sZPpv4WdDS_10pkg_config, symObjAddr: 0x51BC, symBinAddr: 0x100013768, symSize: 0x30 }
  - { offset: 0x21038, size: 0x8, addend: 0x0, symName: __RNvXNtCsfvfooZQ3Axs_4core7convertRNtNtCscOYdFFY2T5N_3std4path4PathINtB2_5AsRefBw_E6as_refCs8sZPpv4WdDS_10pkg_config, symObjAddr: 0x3408, symBinAddr: 0x100011A94, symSize: 0x30 }
  - { offset: 0x21078, size: 0x8, addend: 0x0, symName: __RNvXNtCsfvfooZQ3Axs_4core7convertRNtNtCscOYdFFY2T5N_3std4path7PathBufINtB2_5AsRefNtBy_4PathE6as_refCs8sZPpv4WdDS_10pkg_config, symObjAddr: 0x3438, symBinAddr: 0x100011AC4, symSize: 0x28 }
  - { offset: 0x210B8, size: 0x8, addend: 0x0, symName: __RNvXNtCsfvfooZQ3Axs_4core7convertRReINtB2_5AsRefNtNtNtCscOYdFFY2T5N_3std3ffi6os_str5OsStrE6as_refCs8sZPpv4WdDS_10pkg_config, symObjAddr: 0x3460, symBinAddr: 0x100011AEC, symSize: 0x28 }
  - { offset: 0x210F8, size: 0x8, addend: 0x0, symName: __RNvXNtCsfvfooZQ3Axs_4core7convertReINtB2_5AsRefNtNtNtCscOYdFFY2T5N_3std3ffi6os_str5OsStrE6as_refCs8sZPpv4WdDS_10pkg_config, symObjAddr: 0x3488, symBinAddr: 0x100011B14, symSize: 0x30 }
  - { offset: 0x2114E, size: 0x8, addend: 0x0, symName: __RINvYINtNtNtNtCsfvfooZQ3Axs_4core4iter8adapters6filter6FilterINtNtNtBc_5slice4iter4IterNtNtCse1nGBsou5OW_5alloc6string6StringENCNvMs5_Cs8sZPpv4WdDS_10pkg_configNtB28_7Library17parse_libs_cflagss0_0ENtNtNtBa_6traits8iterator8Iterator3mapTReB3N_ENCB22_s1_0EB28_, symObjAddr: 0x2AA0, symBinAddr: 0x10001125C, symSize: 0x1C }
  - { offset: 0x211B0, size: 0x8, addend: 0x0, symName: __RNCINvNvNtNtNtNtCsfvfooZQ3Axs_4core4iter6traits8iterator8Iterator8for_each4callNtNtCse1nGBsou5OW_5alloc6string6StringNCINvMsi_NtB1j_3vecINtB20_3VecB1f_E14extend_trustedINtNtNtBc_8adapters3map3MapINtNtB20_9into_iter8IntoIterReENvYB1f_INtNtBe_7convert4FromB3z_E4fromEE0E0Cs8sZPpv4WdDS_10pkg_config, symObjAddr: 0x2ABC, symBinAddr: 0x100011278, symSize: 0x3C }
  - { offset: 0x21209, size: 0x8, addend: 0x0, symName: __RNCINvNvNtNtNtNtCsfvfooZQ3Axs_4core4iter6traits8iterator8Iterator8for_each4callNtNtCse1nGBsou5OW_5alloc6string6StringNCINvMsi_NtB1j_3vecINtB20_3VecB1f_E14extend_trustedINtNtNtBc_8adapters3map3MapINtNtNtBe_5slice4iter4IterNtNtNtCscOYdFFY2T5N_3std3ffi6os_str8OsStringENCNvXs_Cs8sZPpv4WdDS_10pkg_configNtB4n_14WrappedCommandNtNtBe_3fmt7Display3fmts_0EE0E0B4n_, symObjAddr: 0x2AF8, symBinAddr: 0x1000112B4, symSize: 0x3C }
  - { offset: 0x21262, size: 0x8, addend: 0x0, symName: __RNCINvNvNtNtNtNtCsfvfooZQ3Axs_4core4iter6traits8iterator8Iterator8for_each4callNtNtCse1nGBsou5OW_5alloc6string6StringNCINvMsi_NtB1j_3vecINtB20_3VecB1f_E14extend_trustedINtNtNtBc_8adapters3map3MapINtNtNtBe_5slice4iter4IterTNtNtNtCscOYdFFY2T5N_3std3ffi6os_str8OsStringB3y_EENCNvXs_Cs8sZPpv4WdDS_10pkg_configNtB4t_14WrappedCommandNtNtBe_3fmt7Display3fmt0EE0E0B4t_, symObjAddr: 0x2B34, symBinAddr: 0x1000112F0, symSize: 0x3C }
  - { offset: 0x212BB, size: 0x8, addend: 0x0, symName: __RNCINvNvNtNtNtNtCsfvfooZQ3Axs_4core4iter6traits8iterator8Iterator8for_each4callNtNtNtCscOYdFFY2T5N_3std3ffi6os_str8OsStringNCINvMsi_NtCse1nGBsou5OW_5alloc3vecINtB26_3VecB1f_E14extend_trustedINtNtNtBc_8adapters3map3MapINtNtNtBe_5slice4iter4IterB1f_ENCINvMCs8sZPpv4WdDS_10pkg_configNtB44_14WrappedCommand4argsRB2w_RB1f_E0EE0E0B44_, symObjAddr: 0x2B70, symBinAddr: 0x10001132C, symSize: 0x3C }
  - { offset: 0x21314, size: 0x8, addend: 0x0, symName: __RNCINvNvNtNtNtNtCsfvfooZQ3Axs_4core4iter6traits8iterator8Iterator8for_each4callNtNtNtCscOYdFFY2T5N_3std3ffi6os_str8OsStringNCINvMsi_NtCse1nGBsou5OW_5alloc3vecINtB26_3VecB1f_E14extend_trustedINtNtNtBc_8adapters3map3MapINtNtNtBe_5slice4iter4IterReENCINvMCs8sZPpv4WdDS_10pkg_configNtB42_14WrappedCommand4argsRSB3T_RB3T_E0EE0E0B42_, symObjAddr: 0x2BAC, symBinAddr: 0x100011368, symSize: 0x3C }
  - { offset: 0x2136D, size: 0x8, addend: 0x0, symName: __RNCINvNvNtNtNtNtCsfvfooZQ3Axs_4core4iter6traits8iterator8Iterator8for_each4callcNCINvXsb_NtCse1nGBsou5OW_5alloc6stringNtB1p_6StringINtNtBa_7collect6ExtendcE6extendINtNtNtBc_8adapters3map3MapIB2C_NtNtNtBe_3str4iter5CharsNCNvCs8sZPpv4WdDS_10pkg_config6envify0ENCB3x_s_0EE0E0B3z_, symObjAddr: 0x2BE8, symBinAddr: 0x1000113A4, symSize: 0x28 }
  - { offset: 0x213C5, size: 0x8, addend: 0x0, symName: __RNCINvNvNtNtNtNtCsfvfooZQ3Axs_4core4iter6traits8iterator8Iterator8for_each4callhNCINvMsi_NtCse1nGBsou5OW_5alloc3vecINtB1p_3VechE14extend_trustedINtNtNtBc_8adapters3map3MapINtNtNtBe_5slice4iter4IterhENCNvNtB1r_3str13replace_ascii0EE0E0Cs8sZPpv4WdDS_10pkg_config, symObjAddr: 0x2C10, symBinAddr: 0x1000113CC, symSize: 0x28 }
  - { offset: 0x214E3, size: 0x8, addend: 0x0, symName: __RNvXNtNtNtCsfvfooZQ3Axs_4core4iter6traits7collectINtNtNtB6_8adapters6filter6FilterINtNtNtB8_5slice4iter4IterNtNtCse1nGBsou5OW_5alloc6string6StringENCNvMs5_Cs8sZPpv4WdDS_10pkg_configNtB2t_7Library17parse_libs_cflagss4_0ENtB2_12IntoIterator9into_iterB2t_, symObjAddr: 0x3504, symBinAddr: 0x100011B90, symSize: 0x1C }
  - { offset: 0x2173D, size: 0x8, addend: 0x0, symName: __RNvXsh_NtNtNtCsfvfooZQ3Axs_4core4iter8adapters7step_byINtNtNtBb_3ops5range5RangejEINtB5_14SpecRangeSetupBQ_E5setupCs8sZPpv4WdDS_10pkg_config, symObjAddr: 0x4990, symBinAddr: 0x100012F84, symSize: 0x12C }
  - { offset: 0x21849, size: 0x8, addend: 0x0, symName: __RNvXs1_NtNtNtCsfvfooZQ3Axs_4core4iter8adapters6filterINtB5_6FilterINtNtNtBb_5slice4iter4IterNtNtCse1nGBsou5OW_5alloc6string6StringENCNvMs5_Cs8sZPpv4WdDS_10pkg_configNtB2d_7Library17parse_libs_cflagss0_0ENtNtNtB9_6traits8iterator8Iterator4nextB2d_, symObjAddr: 0x3658, symBinAddr: 0x100011CE4, symSize: 0x2C }
  - { offset: 0x21887, size: 0x8, addend: 0x0, symName: __RNvXs1_NtNtNtCsfvfooZQ3Axs_4core4iter8adapters6filterINtB5_6FilterINtNtNtBb_5slice4iter4IterNtNtCse1nGBsou5OW_5alloc6string6StringENCNvMs5_Cs8sZPpv4WdDS_10pkg_configNtB2d_7Library17parse_libs_cflagss4_0ENtNtNtB9_6traits8iterator8Iterator4nextB2d_, symObjAddr: 0x3684, symBinAddr: 0x100011D10, symSize: 0x2C }
  - { offset: 0x21B7A, size: 0x8, addend: 0x0, symName: __RNvMNtCsfvfooZQ3Axs_4core5sliceSNtNtCscOYdFFY2T5N_3std4path7PathBuf4iterCs8sZPpv4WdDS_10pkg_config, symObjAddr: 0x2F88, symBinAddr: 0x10001166C, symSize: 0x28 }
  - { offset: 0x21C60, size: 0x8, addend: 0x0, symName: __RNvXs5_NtNtCsfvfooZQ3Axs_4core5slice5indexINtNtNtB9_3ops5range9RangeFromjEINtB5_10SliceIndexShE5indexCs8sZPpv4WdDS_10pkg_config, symObjAddr: 0x3DCC, symBinAddr: 0x100012400, symSize: 0x88 }
  - { offset: 0x221F5, size: 0x8, addend: 0x0, symName: __RNvNtNtNtCsfvfooZQ3Axs_4core9core_arch7aarch644neon7vld1_u8Cs8sZPpv4WdDS_10pkg_config, symObjAddr: 0x3364, symBinAddr: 0x1000119F0, symSize: 0x2C }
  - { offset: 0x22223, size: 0x8, addend: 0x0, symName: __RNvNtNtNtCsfvfooZQ3Axs_4core9core_arch7aarch644neon7vst1_u8Cs8sZPpv4WdDS_10pkg_config, symObjAddr: 0x3390, symBinAddr: 0x100011A1C, symSize: 0x38 }
  - { offset: 0x224A9, size: 0x8, addend: 0x0, symName: __RINvMNtCse1nGBsou5OW_5alloc5sliceSNtNtCscOYdFFY2T5N_3std4path7PathBuf8into_vecNtNtB5_5alloc6GlobalECs8sZPpv4WdDS_10pkg_config, symObjAddr: 0x0, symBinAddr: 0x10000EAC8, symSize: 0x28 }
  - { offset: 0x2252D, size: 0x8, addend: 0x0, symName: __RNSNvXs_NtNtCse1nGBsou5OW_5alloc3vec21spec_from_iter_nestedINtB8_3VecNtNtBa_6string6StringEINtB6_18SpecFromIterNestedB15_INtNtNtNtCsfvfooZQ3Axs_4core4iter8adapters3map3MapINtNtB8_9into_iter8IntoIterReENvYB15_INtNtB24_7convert4FromB3a_E4fromEE9from_iter5reifyCs8sZPpv4WdDS_10pkg_config, symObjAddr: 0x2D60, symBinAddr: 0x100011488, symSize: 0x1C }
  - { offset: 0x22C3D, size: 0x8, addend: 0x0, symName: __RNvXNtNtNtCse1nGBsou5OW_5alloc11collections5btree3mapINtB2_8BTreeMapNtNtNtCscOYdFFY2T5N_3std3ffi6os_str8OsStringINtNtCsfvfooZQ3Axs_4core6option6OptionB14_EENtNtNtB1R_3ops4drop4Drop4dropCs8sZPpv4WdDS_10pkg_config, symObjAddr: 0x34B8, symBinAddr: 0x100011B44, symSize: 0x4C }
  - { offset: 0x22CCA, size: 0x8, addend: 0x0, symName: __RNvXNvXsw_NtNtNtCse1nGBsou5OW_5alloc11collections5btree3mapINtB8_8IntoIterpppENtNtNtCsfvfooZQ3Axs_4core3ops4drop4Drop4dropINtB2_9DropGuardNtNtNtCscOYdFFY2T5N_3std3ffi6os_str8OsStringINtNtB1k_6option6OptionB2c_ENtNtBe_5alloc6GlobalEB1e_4dropCs8sZPpv4WdDS_10pkg_config, symObjAddr: 0x35D8, symBinAddr: 0x100011C64, symSize: 0x68 }
  - { offset: 0x22D5F, size: 0x8, addend: 0x0, symName: __RNvXsw_NtNtNtCse1nGBsou5OW_5alloc11collections5btree3mapINtB5_8IntoIterNtNtNtCscOYdFFY2T5N_3std3ffi6os_str8OsStringINtNtCsfvfooZQ3Axs_4core6option6OptionB17_EENtNtNtB1U_3ops4drop4Drop4dropCs8sZPpv4WdDS_10pkg_config, symObjAddr: 0x4DA8, symBinAddr: 0x100013354, symSize: 0xA0 }
  - { offset: 0x22DD6, size: 0x8, addend: 0x0, symName: __RNvXsv_NtNtNtCse1nGBsou5OW_5alloc11collections5btree3mapINtB5_8BTreeMapNtNtNtCscOYdFFY2T5N_3std3ffi6os_str8OsStringINtNtCsfvfooZQ3Axs_4core6option6OptionB17_EENtNtNtNtB1U_4iter6traits7collect12IntoIterator9into_iterCs8sZPpv4WdDS_10pkg_config, symObjAddr: 0x4C14, symBinAddr: 0x1000131C0, symSize: 0x194 }
  - { offset: 0x233A5, size: 0x8, addend: 0x0, symName: __RNvXs6_NtCse1nGBsou5OW_5alloc5boxedINtB5_3BoxANtNtB7_6string6Stringj1_ENtNtNtCsfvfooZQ3Axs_4core3ops4drop4Drop4dropCs8sZPpv4WdDS_10pkg_config, symObjAddr: 0x3E54, symBinAddr: 0x100012488, symSize: 0xB0 }
  - { offset: 0x234DC, size: 0x8, addend: 0x0, symName: __RNvXs6_NtCse1nGBsou5OW_5alloc5boxedINtB5_3BoxANtNtCscOYdFFY2T5N_3std4path7PathBufj2_ENtNtNtCsfvfooZQ3Axs_4core3ops4drop4Drop4dropCs8sZPpv4WdDS_10pkg_config, symObjAddr: 0x3F04, symBinAddr: 0x100012538, symSize: 0xB0 }
  - { offset: 0x23613, size: 0x8, addend: 0x0, symName: __RNvXs6_NtCse1nGBsou5OW_5alloc5boxedINtB5_3BoxARej1_ENtNtNtCsfvfooZQ3Axs_4core3ops4drop4Drop4dropCs8sZPpv4WdDS_10pkg_config, symObjAddr: 0x3FB4, symBinAddr: 0x1000125E8, symSize: 0xB0 }
  - { offset: 0x2374A, size: 0x8, addend: 0x0, symName: __RNvXs6_NtCse1nGBsou5OW_5alloc5boxedINtB5_3BoxDINtNtNtCsfvfooZQ3Axs_4core3ops8function5FnMutuEp6OutputINtNtBP_6result6ResultuNtNtNtCscOYdFFY2T5N_3std2io5error5ErrorENtNtBP_6marker4SendNtB2E_4SyncEL_ENtNtBN_4drop4Drop4dropCs8sZPpv4WdDS_10pkg_config, symObjAddr: 0x4064, symBinAddr: 0x100012698, symSize: 0xC4 }
  - { offset: 0x23881, size: 0x8, addend: 0x0, symName: __RNvXs6_NtCse1nGBsou5OW_5alloc5boxedINtB5_3BoxDNtNtCsfvfooZQ3Axs_4core5error5ErrorNtNtBM_6marker4SendNtB1j_4SyncEL_ENtNtNtBM_3ops4drop4Drop4dropCs8sZPpv4WdDS_10pkg_config, symObjAddr: 0x4128, symBinAddr: 0x10001275C, symSize: 0xC4 }
  - { offset: 0x239B8, size: 0x8, addend: 0x0, symName: __RNvXs6_NtCse1nGBsou5OW_5alloc5boxedINtB5_3BoxNtNtNtCscOYdFFY2T5N_3std2io5error6CustomENtNtNtCsfvfooZQ3Axs_4core3ops4drop4Drop4dropCs8sZPpv4WdDS_10pkg_config, symObjAddr: 0x41EC, symBinAddr: 0x100012820, symSize: 0xB0 }
  - { offset: 0x23AEF, size: 0x8, addend: 0x0, symName: __RNvXs6_NtCse1nGBsou5OW_5alloc5boxedINtB5_3BoxShENtNtNtCsfvfooZQ3Axs_4core3ops4drop4Drop4dropCs8sZPpv4WdDS_10pkg_config, symObjAddr: 0x429C, symBinAddr: 0x1000128D0, symSize: 0xBC }
  - { offset: 0x23C26, size: 0x8, addend: 0x0, symName: __RNvXs6_NtCse1nGBsou5OW_5alloc5boxedINtB5_3BoxSmENtNtNtCsfvfooZQ3Axs_4core3ops4drop4Drop4dropCs8sZPpv4WdDS_10pkg_config, symObjAddr: 0x4358, symBinAddr: 0x10001298C, symSize: 0xBC }
  - { offset: 0x23EA9, size: 0x8, addend: 0x0, symName: __RINvMs12_NtCscOYdFFY2T5N_3std4pathNtB7_4Path11starts_withRNtB7_7PathBufECs8sZPpv4WdDS_10pkg_config, symObjAddr: 0x424, symBinAddr: 0x10000EE18, symSize: 0x7C }
  - { offset: 0x23EE4, size: 0x8, addend: 0x0, symName: __RINvMs12_NtCscOYdFFY2T5N_3std4pathNtB7_4Path3neweECs8sZPpv4WdDS_10pkg_config, symObjAddr: 0x4A0, symBinAddr: 0x10000EE94, symSize: 0x28 }
  - { offset: 0x23F2A, size: 0x8, addend: 0x0, symName: __RINvMs12_NtCscOYdFFY2T5N_3std4pathNtB7_4Path4joinRRNtNtCse1nGBsou5OW_5alloc6string6StringECs8sZPpv4WdDS_10pkg_config, symObjAddr: 0x4C8, symBinAddr: 0x10000EEBC, symSize: 0x7C }
  - { offset: 0x23FC2, size: 0x8, addend: 0x0, symName: __RINvMs2_NtNtCscOYdFFY2T5N_3std6thread5localINtB6_8LocalKeyINtNtCsfvfooZQ3Axs_4core4cell4CellTyyEEE4withNCNvMNtNtBa_4hash6randomNtB1I_11RandomState3new0B21_ECs8sZPpv4WdDS_10pkg_config, symObjAddr: 0x544, symBinAddr: 0x10000EF38, symSize: 0x50 }
  - { offset: 0x2407B, size: 0x8, addend: 0x0, symName: __RINvMs2_NtNtCscOYdFFY2T5N_3std6thread5localINtB6_8LocalKeyINtNtCsfvfooZQ3Axs_4core4cell4CellTyyEEE8try_withNCNvMNtNtBa_4hash6randomNtB1M_11RandomState3new0B25_ECs8sZPpv4WdDS_10pkg_config, symObjAddr: 0x594, symBinAddr: 0x10000EF88, symSize: 0xE8 }
  - { offset: 0x242E6, size: 0x8, addend: 0x0, symName: __RINvMs3_NtCsfvfooZQ3Axs_4core3fmtNtB6_9Arguments6new_v1Kj1_KBS_ECs8sZPpv4WdDS_10pkg_config, symObjAddr: 0x67C, symBinAddr: 0x10000F070, symSize: 0x50 }
  - { offset: 0x2434C, size: 0x8, addend: 0x0, symName: __RINvMs3_NtCsfvfooZQ3Axs_4core3fmtNtB6_9Arguments6new_v1Kj2_KBS_ECs8sZPpv4WdDS_10pkg_config, symObjAddr: 0x6CC, symBinAddr: 0x10000F0C0, symSize: 0x50 }
  - { offset: 0x2437E, size: 0x8, addend: 0x0, symName: __RINvMs3_NtCsfvfooZQ3Axs_4core3fmtNtB6_9Arguments6new_v1Kj2_Kj1_ECs8sZPpv4WdDS_10pkg_config, symObjAddr: 0x71C, symBinAddr: 0x10000F110, symSize: 0x54 }
  - { offset: 0x243E4, size: 0x8, addend: 0x0, symName: __RINvMs3_NtCsfvfooZQ3Axs_4core3fmtNtB6_9Arguments6new_v1Kj3_KBS_ECs8sZPpv4WdDS_10pkg_config, symObjAddr: 0x770, symBinAddr: 0x10000F164, symSize: 0x50 }
  - { offset: 0x24416, size: 0x8, addend: 0x0, symName: __RINvMs3_NtCsfvfooZQ3Axs_4core3fmtNtB6_9Arguments6new_v1Kj3_Kj2_ECs8sZPpv4WdDS_10pkg_config, symObjAddr: 0x7C0, symBinAddr: 0x10000F1B4, symSize: 0x54 }
  - { offset: 0x2468E, size: 0x8, addend: 0x0, symName: __RNvMNtNtNtCsfvfooZQ3Axs_4core4iter8adapters7step_byINtB2_6StepByINtNtNtB8_3ops5range5RangejEE3newCs8sZPpv4WdDS_10pkg_config, symObjAddr: 0x2FB0, symBinAddr: 0x100011694, symSize: 0xE0 }
  - { offset: 0x24716, size: 0x8, addend: 0x0, symName: __RNvMs12_NtCscOYdFFY2T5N_3std4pathNtB6_4Path6existsCs8sZPpv4WdDS_10pkg_config, symObjAddr: 0x3090, symBinAddr: 0x100011774, symSize: 0x54 }
  - { offset: 0x2477E, size: 0x8, addend: 0x0, symName: __RNvMs12_NtCscOYdFFY2T5N_3std4pathNtB6_4Path7displayCs8sZPpv4WdDS_10pkg_config, symObjAddr: 0x30E4, symBinAddr: 0x1000117C8, symSize: 0x18 }
  - { offset: 0x247FF, size: 0x8, addend: 0x0, symName: __RNvMsa_NtCsfvfooZQ3Axs_4core3fmtNtB5_9Formatter9write_fmtCs8sZPpv4WdDS_10pkg_config, symObjAddr: 0x3154, symBinAddr: 0x1000117E0, symSize: 0x180 }
  - { offset: 0x24927, size: 0x8, addend: 0x0, symName: __RNvMsx_NtNtNtCse1nGBsou5OW_5alloc11collections5btree3mapINtB5_8IntoIterNtNtNtCscOYdFFY2T5N_3std3ffi6os_str8OsStringINtNtCsfvfooZQ3Axs_4core6option6OptionB17_EE10dying_nextCs8sZPpv4WdDS_10pkg_config, symObjAddr: 0x32D4, symBinAddr: 0x100011960, symSize: 0x90 }
  - { offset: 0x261D7, size: 0x8, addend: 0x0, symName: __RINvMs3_NtCse1nGBsou5OW_5alloc3stre7replacecECs8sZPpv4WdDS_10pkg_config, symObjAddr: 0x0, symBinAddr: 0x1000137C4, symSize: 0x714 }
  - { offset: 0x2859D, size: 0x8, addend: 0x0, symName: __RNvXs2_NtNtNtCsfvfooZQ3Axs_4core3ops8function5implsQNCINvNtCse1nGBsou5OW_5alloc3str17join_generic_copyehNtNtBV_6string6StringEs_0INtB7_6FnOnceTRB1E_EE9call_onceCs8sZPpv4WdDS_10pkg_config, symObjAddr: 0x3560, symBinAddr: 0x100016D24, symSize: 0x2C }
  - { offset: 0x285EC, size: 0x8, addend: 0x0, symName: __RNvXs2_NtNtNtCsfvfooZQ3Axs_4core3ops8function5implsQNCINvNtCse1nGBsou5OW_5alloc3str17join_generic_copyehReEs_0INtB7_6FnOnceTRB1E_EE9call_onceCs8sZPpv4WdDS_10pkg_config, symObjAddr: 0x358C, symBinAddr: 0x100016D50, symSize: 0x2C }
  - { offset: 0x287FA, size: 0x8, addend: 0x0, symName: __RINvMs3_NtCse1nGBsou5OW_5alloc3stre7replacecECs8sZPpv4WdDS_10pkg_config, symObjAddr: 0x0, symBinAddr: 0x1000137C4, symSize: 0x714 }
  - { offset: 0x2947E, size: 0x8, addend: 0x0, symName: __RNCNvNtCse1nGBsou5OW_5alloc3str13replace_ascii0Cs8sZPpv4WdDS_10pkg_config, symObjAddr: 0x34AC, symBinAddr: 0x100016C70, symSize: 0x64 }
  - { offset: 0x29541, size: 0x8, addend: 0x0, symName: __RNCNCINvNtCse1nGBsou5OW_5alloc3str17join_generic_copyehNtNtB8_6string6StringE00Cs8sZPpv4WdDS_10pkg_config, symObjAddr: 0x343C, symBinAddr: 0x100016C00, symSize: 0x38 }
  - { offset: 0x29592, size: 0x8, addend: 0x0, symName: __RNCNCINvNtCse1nGBsou5OW_5alloc3str17join_generic_copyehReE00Cs8sZPpv4WdDS_10pkg_config, symObjAddr: 0x3474, symBinAddr: 0x100016C38, symSize: 0x38 }
  - { offset: 0x29648, size: 0x8, addend: 0x0, symName: __RNCINvNtCse1nGBsou5OW_5alloc3str17join_generic_copyehNtNtB6_6string6StringEs_0Cs8sZPpv4WdDS_10pkg_config, symObjAddr: 0x333C, symBinAddr: 0x100016B00, symSize: 0x80 }
  - { offset: 0x29715, size: 0x8, addend: 0x0, symName: __RNCINvNtCse1nGBsou5OW_5alloc3str17join_generic_copyehReEs_0Cs8sZPpv4WdDS_10pkg_config, symObjAddr: 0x33BC, symBinAddr: 0x100016B80, symSize: 0x80 }
  - { offset: 0x297E3, size: 0x8, addend: 0x0, symName: __RINvNtCse1nGBsou5OW_5alloc3str17join_generic_copyehNtNtB4_6string6StringECs8sZPpv4WdDS_10pkg_config, symObjAddr: 0x714, symBinAddr: 0x100013ED8, symSize: 0x161C }
  - { offset: 0x2ACD9, size: 0x8, addend: 0x0, symName: __RINvNtCse1nGBsou5OW_5alloc3str17join_generic_copyehReECs8sZPpv4WdDS_10pkg_config, symObjAddr: 0x1D30, symBinAddr: 0x1000154F4, symSize: 0x160C }
  - { offset: 0x2C1D4, size: 0x8, addend: 0x0, symName: __RNvXs2_NtCse1nGBsou5OW_5alloc3streNtNtB7_6borrow7ToOwned8to_ownedCs8sZPpv4WdDS_10pkg_config, symObjAddr: 0x3510, symBinAddr: 0x100016CD4, symSize: 0x50 }
  - { offset: 0x2C2C7, size: 0x8, addend: 0x0, symName: __RNvXs_NtCse1nGBsou5OW_5alloc3strSReINtNtB6_5slice4JoinBv_E4joinCs8sZPpv4WdDS_10pkg_config, symObjAddr: 0x35B8, symBinAddr: 0x100016D7C, symSize: 0x50 }
  - { offset: 0x2D989, size: 0x8, addend: 0x0, symName: __RINvNtNtCse1nGBsou5OW_5alloc5slice4hack8into_vecNtNtB6_6string6StringNtNtB6_5alloc6GlobalECs8sZPpv4WdDS_10pkg_config, symObjAddr: 0x0, symBinAddr: 0x100016DCC, symSize: 0x94 }
  - { offset: 0x2DF5E, size: 0x8, addend: 0x0, symName: __RNvNvMs1_NtNtCsfvfooZQ3Axs_4core3ptr8non_nullINtB7_7NonNullpE13new_unchecked18precondition_checkCs8sZPpv4WdDS_10pkg_config, symObjAddr: 0x1198, symBinAddr: 0x100017F34, symSize: 0x38 }
  - { offset: 0x2EA8E, size: 0x8, addend: 0x0, symName: __RNvNvXs0_NtNtCsfvfooZQ3Axs_4core5slice5indexjINtB7_10SliceIndexSpE13get_unchecked18precondition_checkCs8sZPpv4WdDS_10pkg_config, symObjAddr: 0x13B8, symBinAddr: 0x100018154, symSize: 0x40 }
  - { offset: 0x2EACA, size: 0x8, addend: 0x0, symName: __RNvNvXs0_NtNtCsfvfooZQ3Axs_4core5slice5indexjINtB7_10SliceIndexSpE17get_unchecked_mut18precondition_checkCs8sZPpv4WdDS_10pkg_config, symObjAddr: 0x13F8, symBinAddr: 0x100018194, symSize: 0x40 }
  - { offset: 0x2EB0C, size: 0x8, addend: 0x0, symName: __RNvNvXs2_NtNtCsfvfooZQ3Axs_4core5slice5indexINtNtNtBb_3ops5range5RangejEINtB7_10SliceIndexSpE13get_unchecked18precondition_checkCs8sZPpv4WdDS_10pkg_config, symObjAddr: 0x1438, symBinAddr: 0x1000181D4, symSize: 0x60 }
  - { offset: 0x2EB56, size: 0x8, addend: 0x0, symName: __RNvNvXs2_NtNtCsfvfooZQ3Axs_4core5slice5indexINtNtNtBb_3ops5range5RangejEINtB7_10SliceIndexSpE17get_unchecked_mut18precondition_checkCs8sZPpv4WdDS_10pkg_config, symObjAddr: 0x1498, symBinAddr: 0x100018234, symSize: 0x60 }
  - { offset: 0x2EE94, size: 0x8, addend: 0x0, symName: __RINvYINtNtNtCsfvfooZQ3Axs_4core3str4iter5SplitcENtNtNtNtBa_4iter6traits8iterator8Iterator7collectINtNtCse1nGBsou5OW_5alloc3vec3VecReEECs8sZPpv4WdDS_10pkg_config, symObjAddr: 0x2C4, symBinAddr: 0x100017060, symSize: 0x1C }
  - { offset: 0x2EED5, size: 0x8, addend: 0x0, symName: __RINvYNtNtNtCsfvfooZQ3Axs_4core3str4iter5CharsNtNtNtNtB9_4iter6traits8iterator8Iterator3mapcNCNvCs8sZPpv4WdDS_10pkg_config6envify0EB1v_, symObjAddr: 0x364, symBinAddr: 0x100017100, symSize: 0x1C }
  - { offset: 0x2EF2D, size: 0x8, addend: 0x0, symName: __RINvYNtNtNtCsfvfooZQ3Axs_4core3str4iter5CharsNtNtNtNtB9_4iter6traits8iterator8Iterator4folduNCINvNtNtBN_8adapters3map8map_foldccuNCNvCs8sZPpv4WdDS_10pkg_config6envify0NCIB1v_ccuNCB25_s_0NCINvNvBH_8for_each4callcNCINvXsb_NtCse1nGBsou5OW_5alloc6stringNtB3w_6StringINtNtBL_7collect6ExtendcE6extendINtB1x_3MapIB4J_B3_B23_EB2P_EE0E0E0E0EB27_, symObjAddr: 0x380, symBinAddr: 0x10001711C, symSize: 0xB8 }
  - { offset: 0x2EFBC, size: 0x8, addend: 0x0, symName: __RNvYINtNtNtCsfvfooZQ3Axs_4core3str4iter5SplitcENtNtNtNtB9_4iter6traits8iterator8Iterator9size_hintCs8sZPpv4WdDS_10pkg_config, symObjAddr: 0x262C, symBinAddr: 0x1000193C8, symSize: 0x34 }
  - { offset: 0x2F01C, size: 0x8, addend: 0x0, symName: __RNvXNtNtNtCsfvfooZQ3Axs_4core4iter6traits7collectINtNtNtB8_3str4iter5SplitcENtB2_12IntoIterator9into_iterCs8sZPpv4WdDS_10pkg_config, symObjAddr: 0x15DC, symBinAddr: 0x100018378, symSize: 0x30 }
  - { offset: 0x2F135, size: 0x8, addend: 0x0, symName: __RNCNvMsp_NtNtCsfvfooZQ3Axs_4core3str4iterINtB7_20MatchIndicesInternalcE4next0Cs8sZPpv4WdDS_10pkg_config, symObjAddr: 0x4A0, symBinAddr: 0x10001723C, symSize: 0xA0 }
  - { offset: 0x2F2BD, size: 0x8, addend: 0x0, symName: __RNvXNtNtCsfvfooZQ3Axs_4core3str4iterNtB2_5CharsNtNtNtNtB6_4iter6traits8iterator8Iterator4nextCs8sZPpv4WdDS_10pkg_config, symObjAddr: 0x14F8, symBinAddr: 0x100018294, symSize: 0x70 }
  - { offset: 0x2F354, size: 0x8, addend: 0x0, symName: __RNvXNtNtCsfvfooZQ3Axs_4core3str4iterNtB2_5CharsNtNtNtNtB6_4iter6traits8iterator8Iterator9size_hintCs8sZPpv4WdDS_10pkg_config, symObjAddr: 0x1568, symBinAddr: 0x100018304, symSize: 0x74 }
  - { offset: 0x2F407, size: 0x8, addend: 0x0, symName: __RNvXs3_NtNtCsfvfooZQ3Axs_4core3str4iterNtB5_11CharIndicesNtNtNtNtB9_4iter6traits8iterator8Iterator4nextCs8sZPpv4WdDS_10pkg_config, symObjAddr: 0x1700, symBinAddr: 0x10001849C, symSize: 0x120 }
  - { offset: 0x2F640, size: 0x8, addend: 0x0, symName: __RNvXs4_NtNtCsfvfooZQ3Axs_4core3str4iterNtB5_11CharIndicesNtNtNtNtB9_4iter6traits12double_ended19DoubleEndedIterator9next_backCs8sZPpv4WdDS_10pkg_config, symObjAddr: 0x1B4C, symBinAddr: 0x1000188E8, symSize: 0x13C }
  - { offset: 0x2F793, size: 0x8, addend: 0x0, symName: __RNvXsH_NtNtCsfvfooZQ3Axs_4core3str4iterINtB5_14SplitInclusivecENtNtNtNtB9_4iter6traits8iterator8Iterator4nextCs8sZPpv4WdDS_10pkg_config, symObjAddr: 0x2414, symBinAddr: 0x1000191B0, symSize: 0x24 }
  - { offset: 0x2F7D0, size: 0x8, addend: 0x0, symName: __RNvXsX_NtNtCsfvfooZQ3Axs_4core3str4iterINtB5_5SplitcENtNtNtNtB9_4iter6traits8iterator8Iterator4nextCs8sZPpv4WdDS_10pkg_config, symObjAddr: 0x2438, symBinAddr: 0x1000191D4, symSize: 0x24 }
  - { offset: 0x2F80D, size: 0x8, addend: 0x0, symName: __RNvXss_NtNtCsfvfooZQ3Axs_4core3str4iterNtB5_5LinesNtNtNtNtB9_4iter6traits8iterator8Iterator4nextCs8sZPpv4WdDS_10pkg_config, symObjAddr: 0x25E4, symBinAddr: 0x100019380, symSize: 0x24 }
  - { offset: 0x2FB2D, size: 0x8, addend: 0x0, symName: __RINvYNtNtNtCscOYdFFY2T5N_3std4hash6random11RandomStateNtNtCsfvfooZQ3Axs_4core4hash11BuildHasher8hash_oneRNtNtCse1nGBsou5OW_5alloc6string6StringECs8sZPpv4WdDS_10pkg_config, symObjAddr: 0x2E0, symBinAddr: 0x10001707C, symSize: 0x84 }
  - { offset: 0x2FC7C, size: 0x8, addend: 0x0, symName: __RNvNtNtCsfvfooZQ3Axs_4core4hash3sip9u8to64_leCs8sZPpv4WdDS_10pkg_config, symObjAddr: 0xF70, symBinAddr: 0x100017D0C, symSize: 0x228 }
  - { offset: 0x2FEAD, size: 0x8, addend: 0x0, symName: __RNvXs3_NtNtCsfvfooZQ3Axs_4core4hash3sipINtB5_6HasherNtB5_11Sip13RoundsENtB7_6Hasher5writeCs8sZPpv4WdDS_10pkg_config, symObjAddr: 0x1820, symBinAddr: 0x1000185BC, symSize: 0x230 }
  - { offset: 0x30023, size: 0x8, addend: 0x0, symName: __RNvXs3_NtNtCsfvfooZQ3Axs_4core4hash3sipINtB5_6HasherNtB5_11Sip13RoundsENtB7_6Hasher6finishCs8sZPpv4WdDS_10pkg_config, symObjAddr: 0x1A50, symBinAddr: 0x1000187EC, symSize: 0xA0 }
  - { offset: 0x30096, size: 0x8, addend: 0x0, symName: __RNvXs3_NtNtCsfvfooZQ3Axs_4core4hash3sipINtB5_6HasherNtB5_11Sip13RoundsENtB7_6Hasher9write_strCs8sZPpv4WdDS_10pkg_config, symObjAddr: 0x1AF0, symBinAddr: 0x10001888C, symSize: 0x5C }
  - { offset: 0x300FC, size: 0x8, addend: 0x0, symName: __RNvXs6_NtNtCsfvfooZQ3Axs_4core4hash3sipNtB5_11Sip13RoundsNtB5_3Sip8c_roundsCs8sZPpv4WdDS_10pkg_config, symObjAddr: 0x1CC8, symBinAddr: 0x100018A64, symSize: 0x170 }
  - { offset: 0x30272, size: 0x8, addend: 0x0, symName: __RNvXs6_NtNtCsfvfooZQ3Axs_4core4hash3sipNtB5_11Sip13RoundsNtB5_3Sip8d_roundsCs8sZPpv4WdDS_10pkg_config, symObjAddr: 0x1E38, symBinAddr: 0x100018BD4, symSize: 0x408 }
  - { offset: 0x311F0, size: 0x8, addend: 0x0, symName: __RNvNvNtCsfvfooZQ3Axs_4core4hint16assert_unchecked18precondition_checkCs8sZPpv4WdDS_10pkg_config, symObjAddr: 0x11D0, symBinAddr: 0x100017F6C, symSize: 0x38 }
  - { offset: 0x3121E, size: 0x8, addend: 0x0, symName: __RNvNvNtCsfvfooZQ3Axs_4core4hint21unreachable_unchecked18precondition_checkCs8sZPpv4WdDS_10pkg_config, symObjAddr: 0x1208, symBinAddr: 0x100017FA4, symSize: 0x1C }
  - { offset: 0x31243, size: 0x8, addend: 0x0, symName: __RNvNvNtCsfvfooZQ3Axs_4core9ub_checks23maybe_is_nonoverlapping7runtimeCs8sZPpv4WdDS_10pkg_config, symObjAddr: 0x1224, symBinAddr: 0x100017FC0, symSize: 0xD8 }
  - { offset: 0x3142C, size: 0x8, addend: 0x0, symName: __RNvNvNtNtCsfvfooZQ3Axs_4core4char7convert18from_u32_unchecked18precondition_checkCs8sZPpv4WdDS_10pkg_config, symObjAddr: 0x12FC, symBinAddr: 0x100018098, symSize: 0x98 }
  - { offset: 0x315A4, size: 0x8, addend: 0x0, symName: __RNvXs7_NtNtCsfvfooZQ3Axs_4core3cmp5implsReNtB7_9PartialEq2eqCs8sZPpv4WdDS_10pkg_config, symObjAddr: 0x2240, symBinAddr: 0x100018FDC, symSize: 0x44 }
  - { offset: 0x3162A, size: 0x8, addend: 0x0, symName: __RNvYjNtNtCsfvfooZQ3Axs_4core3cmp3Ord3maxCs8sZPpv4WdDS_10pkg_config, symObjAddr: 0x2660, symBinAddr: 0x1000193FC, symSize: 0x80 }
  - { offset: 0x31698, size: 0x8, addend: 0x0, symName: __RNvYjNtNtCsfvfooZQ3Axs_4core3cmp3Ord3minCs8sZPpv4WdDS_10pkg_config, symObjAddr: 0x26E0, symBinAddr: 0x10001947C, symSize: 0x80 }
  - { offset: 0x3183D, size: 0x8, addend: 0x0, symName: __RNvXsD_NtCse1nGBsou5OW_5alloc6stringINtNtB7_6borrow3CoweENtB5_12SpecToString14spec_to_stringCs8sZPpv4WdDS_10pkg_config, symObjAddr: 0x2310, symBinAddr: 0x1000190AC, symSize: 0x104 }
  - { offset: 0x31AD8, size: 0x8, addend: 0x0, symName: __RNvXsw_NtCse1nGBsou5OW_5alloc6stringINtNtB7_6borrow3CoweENtB5_8ToString9to_stringCs8sZPpv4WdDS_10pkg_config, symObjAddr: 0x2608, symBinAddr: 0x1000193A4, symSize: 0x24 }
  - { offset: 0x31DA7, size: 0x8, addend: 0x0, symName: __RNvNtCse1nGBsou5OW_5alloc5alloc12alloc_zeroedCs8sZPpv4WdDS_10pkg_config, symObjAddr: 0xDC4, symBinAddr: 0x100017B60, symSize: 0x84 }
  - { offset: 0x31E6B, size: 0x8, addend: 0x0, symName: __RNvXs_NtCse1nGBsou5OW_5alloc5allocNtB4_6GlobalNtNtCsfvfooZQ3Axs_4core5alloc9Allocator10deallocateCs8sZPpv4WdDS_10pkg_config, symObjAddr: 0x245C, symBinAddr: 0x1000191F8, symSize: 0x88 }
  - { offset: 0x31F46, size: 0x8, addend: 0x0, symName: __RNvXs_NtCse1nGBsou5OW_5alloc5allocNtB4_6GlobalNtNtCsfvfooZQ3Axs_4core5alloc9Allocator8allocateCs8sZPpv4WdDS_10pkg_config, symObjAddr: 0x24E4, symBinAddr: 0x100019280, symSize: 0x34 }
  - { offset: 0x31F81, size: 0x8, addend: 0x0, symName: __RNvNtCse1nGBsou5OW_5alloc5alloc15exchange_mallocCs8sZPpv4WdDS_10pkg_config, symObjAddr: 0xE48, symBinAddr: 0x100017BE4, symSize: 0xA4 }
  - { offset: 0x32018, size: 0x8, addend: 0x0, symName: __RNvNtCse1nGBsou5OW_5alloc5alloc5allocCs8sZPpv4WdDS_10pkg_config, symObjAddr: 0xEEC, symBinAddr: 0x100017C88, symSize: 0x84 }
  - { offset: 0x320B4, size: 0x8, addend: 0x0, symName: __RNvXs1_NtCse1nGBsou5OW_5alloc5allocNtB5_6GlobalNtNtCsfvfooZQ3Axs_4core5clone5Clone5cloneCs8sZPpv4WdDS_10pkg_config, symObjAddr: 0x160C, symBinAddr: 0x1000183A8, symSize: 0x10 }
  - { offset: 0x323E7, size: 0x8, addend: 0x0, symName: __RINvNtNtCse1nGBsou5OW_5alloc5slice4hack8into_vecNtNtB6_6string6StringNtNtB6_5alloc6GlobalECs8sZPpv4WdDS_10pkg_config, symObjAddr: 0x0, symBinAddr: 0x100016DCC, symSize: 0x94 }
  - { offset: 0x325DA, size: 0x8, addend: 0x0, symName: __RINvNtNtCse1nGBsou5OW_5alloc5slice4hack8into_vecNtNtCscOYdFFY2T5N_3std4path7PathBufNtNtB6_5alloc6GlobalECs8sZPpv4WdDS_10pkg_config, symObjAddr: 0x94, symBinAddr: 0x100016E60, symSize: 0x94 }
  - { offset: 0x327CD, size: 0x8, addend: 0x0, symName: __RINvNtNtCse1nGBsou5OW_5alloc5slice4hack8into_vecReNtNtB6_5alloc6GlobalECs8sZPpv4WdDS_10pkg_config, symObjAddr: 0x128, symBinAddr: 0x100016EF4, symSize: 0x94 }
  - { offset: 0x329C5, size: 0x8, addend: 0x0, symName: __RINvXs_NtNtCse1nGBsou5OW_5alloc5slice4hackhNtB5_10ConvertVec6to_vecNtNtB9_5alloc6GlobalECs8sZPpv4WdDS_10pkg_config, symObjAddr: 0x1BC, symBinAddr: 0x100016F88, symSize: 0xD8 }
  - { offset: 0x32C69, size: 0x8, addend: 0x0, symName: __RNvXs2_NtCse1nGBsou5OW_5alloc6borrowINtB5_3CoweENtNtNtCsfvfooZQ3Axs_4core3ops5deref5Deref5derefCs8sZPpv4WdDS_10pkg_config, symObjAddr: 0x161C, symBinAddr: 0x1000183B8, symSize: 0x80 }
  - { offset: 0x32D27, size: 0x8, addend: 0x0, symName: __RNvXs9_NtCse1nGBsou5OW_5alloc6borrowINtB5_3CoweENtNtCsfvfooZQ3Axs_4core3fmt7Display3fmtCs8sZPpv4WdDS_10pkg_config, symObjAddr: 0x2284, symBinAddr: 0x100019020, symSize: 0x8C }
  - { offset: 0x330C2, size: 0x8, addend: 0x0, symName: __RNCNkNvNvMNtNtCscOYdFFY2T5N_3std4hash6randomNtB8_11RandomState3new4KEYS0s_0Cs8sZPpv4WdDS_10pkg_config, symObjAddr: 0x438, symBinAddr: 0x1000171D4, symSize: 0x3C }
  - { offset: 0x33100, size: 0x8, addend: 0x0, symName: __RNvNvNvMNtNtCscOYdFFY2T5N_3std4hash6randomNtB6_11RandomState3new4KEYS6___initCs8sZPpv4WdDS_10pkg_config, symObjAddr: 0x1394, symBinAddr: 0x100018130, symSize: 0x24 }
  - { offset: 0x3311E, size: 0x8, addend: 0x0, symName: __RNCNvMNtNtCscOYdFFY2T5N_3std4hash6randomNtB4_11RandomState3new0Cs8sZPpv4WdDS_10pkg_config, symObjAddr: 0x474, symBinAddr: 0x100017210, symSize: 0x2C }
  - { offset: 0x3323F, size: 0x8, addend: 0x0, symName: __RNvXs2_NtNtCscOYdFFY2T5N_3std4hash6randomNtB5_13DefaultHasherNtNtCsfvfooZQ3Axs_4core4hash6Hasher6finishCs8sZPpv4WdDS_10pkg_config, symObjAddr: 0x169C, symBinAddr: 0x100018438, symSize: 0x2C }
  - { offset: 0x33288, size: 0x8, addend: 0x0, symName: __RNvXs2_NtNtCscOYdFFY2T5N_3std4hash6randomNtB5_13DefaultHasherNtNtCsfvfooZQ3Axs_4core4hash6Hasher9write_strCs8sZPpv4WdDS_10pkg_config, symObjAddr: 0x16C8, symBinAddr: 0x100018464, symSize: 0x38 }
  - { offset: 0x332E9, size: 0x8, addend: 0x0, symName: __RNvXs_NtNtCscOYdFFY2T5N_3std4hash6randomNtB4_11RandomStateNtNtCsfvfooZQ3Axs_4core4hash11BuildHasher12build_hasherCs8sZPpv4WdDS_10pkg_config, symObjAddr: 0x2518, symBinAddr: 0x1000192B4, symSize: 0xCC }
  - { offset: 0x334A5, size: 0x8, addend: 0x0, symName: __RNvXs5_NtNtNtCscOYdFFY2T5N_3std2os2fd5ownedNtB5_7OwnedFdNtNtNtCsfvfooZQ3Axs_4core3ops4drop4Drop4dropCs8sZPpv4WdDS_10pkg_config, symObjAddr: 0x1C88, symBinAddr: 0x100018A24, symSize: 0x40 }
  - { offset: 0x33BD5, size: 0x8, addend: 0x0, symName: __RNvMNtCse1nGBsou5OW_5alloc5allocNtB2_6Global10alloc_implCs8sZPpv4WdDS_10pkg_config, symObjAddr: 0x540, symBinAddr: 0x1000172DC, symSize: 0x194 }
  - { offset: 0x34080, size: 0x8, addend: 0x0, symName: __RNvMNtNtNtCscOYdFFY2T5N_3std11collections4hash3mapINtB2_7HashMapNtNtCse1nGBsou5OW_5alloc6string6StringINtNtCsfvfooZQ3Axs_4core6option6OptionB10_EE3newCs8sZPpv4WdDS_10pkg_config, symObjAddr: 0x6D4, symBinAddr: 0x100017470, symSize: 0x7C }
  - { offset: 0x3413B, size: 0x8, addend: 0x0, symName: __RNvMs0_NtNtCsfvfooZQ3Axs_4core4hash3sipINtB5_6HasherNtB5_11Sip13RoundsE5resetCs8sZPpv4WdDS_10pkg_config, symObjAddr: 0x750, symBinAddr: 0x1000174EC, symSize: 0x8C }
  - { offset: 0x34173, size: 0x8, addend: 0x0, symName: __RNvMs0_NtNtNtCscOYdFFY2T5N_3std11collections4hash3mapINtB5_7HashMapNtNtCse1nGBsou5OW_5alloc6string6StringINtNtCsfvfooZQ3Axs_4core6option6OptionB13_EE6insertCs8sZPpv4WdDS_10pkg_config, symObjAddr: 0x7DC, symBinAddr: 0x100017578, symSize: 0x24 }
  - { offset: 0x341FA, size: 0x8, addend: 0x0, symName: __RNvMs1_NtNtCsfvfooZQ3Axs_4core3ptr8non_nullINtB5_7NonNullNtNtCse1nGBsou5OW_5alloc6string6StringE7sub_ptrCs8sZPpv4WdDS_10pkg_config, symObjAddr: 0x800, symBinAddr: 0x10001759C, symSize: 0x74 }
  - { offset: 0x34300, size: 0x8, addend: 0x0, symName: __RNvMs1_NtNtCsfvfooZQ3Axs_4core3ptr8non_nullINtB5_7NonNullNtNtNtCscOYdFFY2T5N_3std3ffi6os_str8OsStringE7sub_ptrCs8sZPpv4WdDS_10pkg_config, symObjAddr: 0x874, symBinAddr: 0x100017610, symSize: 0x74 }
  - { offset: 0x343F9, size: 0x8, addend: 0x0, symName: __RNvMs1_NtNtCsfvfooZQ3Axs_4core3ptr8non_nullINtB5_7NonNullReE7sub_ptrCs8sZPpv4WdDS_10pkg_config, symObjAddr: 0x8E8, symBinAddr: 0x100017684, symSize: 0x74 }
  - { offset: 0x3451D, size: 0x8, addend: 0x0, symName: __RNvMs1_NtNtCsfvfooZQ3Axs_4core3ptr8non_nullINtB5_7NonNullTNtNtNtCscOYdFFY2T5N_3std3ffi6os_str8OsStringBU_EE7sub_ptrCs8sZPpv4WdDS_10pkg_config, symObjAddr: 0x95C, symBinAddr: 0x1000176F8, symSize: 0x74 }
  - { offset: 0x34609, size: 0x8, addend: 0x0, symName: __RNvMs1_NtNtCsfvfooZQ3Axs_4core3ptr8non_nullINtB5_7NonNullhE7sub_ptrCs8sZPpv4WdDS_10pkg_config, symObjAddr: 0x9D0, symBinAddr: 0x10001776C, symSize: 0x74 }
  - { offset: 0x346E6, size: 0x8, addend: 0x0, symName: __RNvMsf_NtNtCsfvfooZQ3Axs_4core3str4iterINtB5_13SplitInternalcE14next_inclusiveCs8sZPpv4WdDS_10pkg_config, symObjAddr: 0xA44, symBinAddr: 0x1000177E0, symSize: 0x128 }
  - { offset: 0x34811, size: 0x8, addend: 0x0, symName: __RNvMsf_NtNtCsfvfooZQ3Axs_4core3str4iterINtB5_13SplitInternalcE4nextCs8sZPpv4WdDS_10pkg_config, symObjAddr: 0xB6C, symBinAddr: 0x100017908, symSize: 0x138 }
  - { offset: 0x3494D, size: 0x8, addend: 0x0, symName: __RNvMsf_NtNtCsfvfooZQ3Axs_4core3str4iterINtB5_13SplitInternalcE7get_endCs8sZPpv4WdDS_10pkg_config, symObjAddr: 0xCA4, symBinAddr: 0x100017A40, symSize: 0x120 }
  - { offset: 0x34FF2, size: 0x8, addend: 0x0, symName: __RINvMNtCse1nGBsou5OW_5alloc5sliceSRe4joinBw_ECs8sZPpv4WdDS_10pkg_config, symObjAddr: 0x0, symBinAddr: 0x1000194FC, symSize: 0x34 }
  - { offset: 0x3531F, size: 0x8, addend: 0x0, symName: __RNvXs1a_NtCsfvfooZQ3Axs_4core3fmtRNtNtNtB8_3str5error9Utf8ErrorNtB6_5Debug3fmtCs8sZPpv4WdDS_10pkg_config, symObjAddr: 0x321C, symBinAddr: 0x10001BD18, symSize: 0x30 }
  - { offset: 0x36D98, size: 0x8, addend: 0x0, symName: __RNvXso_NtCsfvfooZQ3Axs_4core6resultINtB5_6ResultINtNtCse1nGBsou5OW_5alloc3vec3VechENtCs8sZPpv4WdDS_10pkg_config5ErrorENtNtNtB7_3ops9try_trait3Try6branchB1l_, symObjAddr: 0x3724, symBinAddr: 0x10001C220, symSize: 0xC0 }
  - { offset: 0x36E1C, size: 0x8, addend: 0x0, symName: __RNvXsp_NtCsfvfooZQ3Axs_4core6resultINtB5_6ResultNtCs8sZPpv4WdDS_10pkg_config7LibraryNtBM_5ErrorEINtNtNtB7_3ops9try_trait12FromResidualIBy_NtNtB7_7convert10InfallibleB1k_EE13from_residualBM_, symObjAddr: 0x381C, symBinAddr: 0x10001C2E0, symSize: 0x74 }
  - { offset: 0x37687, size: 0x8, addend: 0x0, symName: __RNvMNtCsfvfooZQ3Axs_4core5sliceSNtNtNtCscOYdFFY2T5N_3std3ffi6os_str8OsString4iterCs8sZPpv4WdDS_10pkg_config, symObjAddr: 0x1A08, symBinAddr: 0x10001A980, symSize: 0x28 }
  - { offset: 0x376BE, size: 0x8, addend: 0x0, symName: __RNvMNtCsfvfooZQ3Axs_4core5sliceSTNtNtNtCscOYdFFY2T5N_3std3ffi6os_str8OsStringBv_E4iterCs8sZPpv4WdDS_10pkg_config, symObjAddr: 0x1A30, symBinAddr: 0x10001A9A8, symSize: 0x28 }
  - { offset: 0x37730, size: 0x8, addend: 0x0, symName: __RNvNtNtCsfvfooZQ3Axs_4core5slice6memchr6memchrCs8sZPpv4WdDS_10pkg_config, symObjAddr: 0x2030, symBinAddr: 0x10001AE5C, symSize: 0x114 }
  - { offset: 0x378BF, size: 0x8, addend: 0x0, symName: __RNvXNtCsfvfooZQ3Axs_4core7convertRNtNtNtCscOYdFFY2T5N_3std3ffi6os_str5OsStrINtB2_5AsRefBw_E6as_refCs8sZPpv4WdDS_10pkg_config, symObjAddr: 0x2B28, symBinAddr: 0x10001B714, symSize: 0x30 }
  - { offset: 0x378FF, size: 0x8, addend: 0x0, symName: __RNvXNtCsfvfooZQ3Axs_4core7convertRNtNtNtCscOYdFFY2T5N_3std3ffi6os_str8OsStringINtB2_5AsRefNtBy_5OsStrE6as_refCs8sZPpv4WdDS_10pkg_config, symObjAddr: 0x2B58, symBinAddr: 0x10001B744, symSize: 0x28 }
  - { offset: 0x3797D, size: 0x8, addend: 0x0, symName: __RINvNtNtNtCsfvfooZQ3Axs_4core4iter8adapters7flatten17and_then_or_clearINtNtNtCse1nGBsou5OW_5alloc3vec9into_iter8IntoIterReEB1U_NvYB16_NtNtNtB6_6traits8iterator8Iterator4nextECs8sZPpv4WdDS_10pkg_config, symObjAddr: 0xE7C, symBinAddr: 0x100019E10, symSize: 0x108 }
  - { offset: 0x37AC0, size: 0x8, addend: 0x0, symName: __RNvXs1_NtNtNtCsfvfooZQ3Axs_4core4iter8adapters7flattenINtB5_7FlatMapINtNtNtBb_5slice4iter4IterNtNtCse1nGBsou5OW_5alloc6string6StringEINtNtB1y_3vec3VecReENCNvMs5_Cs8sZPpv4WdDS_10pkg_configNtB2z_7Library17parse_libs_cflagss3_0ENtNtNtB9_6traits8iterator8Iterator4nextB2z_, symObjAddr: 0x31F8, symBinAddr: 0x10001BCF4, symSize: 0x24 }
  - { offset: 0x37B0D, size: 0x8, addend: 0x0, symName: __RNvXsv_NtNtNtCsfvfooZQ3Axs_4core4iter8adapters7flattenINtB5_13FlattenCompatINtNtB7_3map3MapINtNtNtBb_5slice4iter4IterNtNtCse1nGBsou5OW_5alloc6string6StringENCNvMs5_Cs8sZPpv4WdDS_10pkg_configNtB2C_7Library17parse_libs_cflagss3_0EINtNtNtB1V_3vec9into_iter8IntoIterReEENtNtNtB9_6traits8iterator8Iterator4nextB2C_, symObjAddr: 0x3910, symBinAddr: 0x10001C354, symSize: 0x134 }
  - { offset: 0x37C1B, size: 0x8, addend: 0x0, symName: __RINvXs0_NtNtNtCsfvfooZQ3Axs_4core4iter8adapters3mapINtB6_3MapIBO_NtNtNtBc_3str4iter5CharsNCNvCs8sZPpv4WdDS_10pkg_config6envify0ENCB1r_s_0ENtNtNtBa_6traits8iterator8Iterator4folduNCINvNvB2c_8for_each4callcNCINvXsb_NtCse1nGBsou5OW_5alloc6stringNtB3p_6StringINtNtB2g_7collect6ExtendcE6extendBN_E0E0EB1t_, symObjAddr: 0xF94, symBinAddr: 0x100019F28, symSize: 0x34 }
  - { offset: 0x37C8C, size: 0x8, addend: 0x0, symName: __RINvXs0_NtNtNtCsfvfooZQ3Axs_4core4iter8adapters3mapINtB6_3MapINtNtNtBc_5slice4iter4IterNtNtNtCscOYdFFY2T5N_3std3ffi6os_str8OsStringENCINvMCs8sZPpv4WdDS_10pkg_configNtB2c_14WrappedCommand4argsRINtNtCse1nGBsou5OW_5alloc3vec3VecB1n_ERB1n_E0ENtNtNtBa_6traits8iterator8Iterator4folduNCINvNvB3O_8for_each4callB1n_NCINvMsi_B37_B34_14extend_trustedBN_E0E0EB2c_, symObjAddr: 0xFC8, symBinAddr: 0x100019F5C, symSize: 0x44 }
  - { offset: 0x37D24, size: 0x8, addend: 0x0, symName: __RINvXs0_NtNtNtCsfvfooZQ3Axs_4core4iter8adapters3mapINtB6_3MapINtNtNtBc_5slice4iter4IterNtNtNtCscOYdFFY2T5N_3std3ffi6os_str8OsStringENCNvXs_Cs8sZPpv4WdDS_10pkg_configNtB2d_14WrappedCommandNtNtBc_3fmt7Display3fmts_0ENtNtNtBa_6traits8iterator8Iterator4folduNCINvNvB3q_8for_each4callNtNtCse1nGBsou5OW_5alloc6string6StringNCINvMsi_NtB4x_3vecINtB5e_3VecB4t_E14extend_trustedBN_E0E0EB2d_, symObjAddr: 0x100C, symBinAddr: 0x100019FA0, symSize: 0x44 }
  - { offset: 0x37DBC, size: 0x8, addend: 0x0, symName: __RINvXs0_NtNtNtCsfvfooZQ3Axs_4core4iter8adapters3mapINtB6_3MapINtNtNtBc_5slice4iter4IterReENCINvMCs8sZPpv4WdDS_10pkg_configNtB1w_14WrappedCommand4argsRSB1n_RB1n_E0ENtNtNtBa_6traits8iterator8Iterator4folduNCINvNvB2B_8for_each4callNtNtNtCscOYdFFY2T5N_3std3ffi6os_str8OsStringNCINvMsi_NtCse1nGBsou5OW_5alloc3vecINtB4v_3VecB3E_E14extend_trustedBN_E0E0EB1w_, symObjAddr: 0x1050, symBinAddr: 0x100019FE4, symSize: 0x44 }
  - { offset: 0x37E54, size: 0x8, addend: 0x0, symName: __RINvXs0_NtNtNtCsfvfooZQ3Axs_4core4iter8adapters3mapINtB6_3MapINtNtNtBc_5slice4iter4IterTNtNtNtCscOYdFFY2T5N_3std3ffi6os_str8OsStringB1o_EENCNvXs_Cs8sZPpv4WdDS_10pkg_configNtB2j_14WrappedCommandNtNtBc_3fmt7Display3fmt0ENtNtNtBa_6traits8iterator8Iterator4folduNCINvNvB3u_8for_each4callNtNtCse1nGBsou5OW_5alloc6string6StringNCINvMsi_NtB4B_3vecINtB5i_3VecB4x_E14extend_trustedBN_E0E0EB2j_, symObjAddr: 0x1094, symBinAddr: 0x10001A028, symSize: 0x44 }
  - { offset: 0x37EEC, size: 0x8, addend: 0x0, symName: __RINvXs0_NtNtNtCsfvfooZQ3Axs_4core4iter8adapters3mapINtB6_3MapINtNtNtBc_5slice4iter4IterhENCNvNtCse1nGBsou5OW_5alloc3str13replace_ascii0ENtNtNtBa_6traits8iterator8Iterator4folduNCINvNvB2a_8for_each4callhNCINvMsi_NtB1v_3vecINtB3n_3VechE14extend_trustedBN_E0E0ECs8sZPpv4WdDS_10pkg_config, symObjAddr: 0x10D8, symBinAddr: 0x10001A06C, symSize: 0x58 }
  - { offset: 0x37F85, size: 0x8, addend: 0x0, symName: __RINvXs0_NtNtNtCsfvfooZQ3Axs_4core4iter8adapters3mapINtB6_3MapINtNtNtCse1nGBsou5OW_5alloc3vec9into_iter8IntoIterReENvYNtNtB14_6string6StringINtNtBc_7convert4FromB1L_E4fromENtNtNtBa_6traits8iterator8Iterator4folduNCINvNvB2J_8for_each4callB1R_NCINvMsi_B12_INtB12_3VecB1R_E14extend_trustedBN_E0E0ECs8sZPpv4WdDS_10pkg_config, symObjAddr: 0x1130, symBinAddr: 0x10001A0C4, symSize: 0x4C }
  - { offset: 0x3801E, size: 0x8, addend: 0x0, symName: __RINvXs0_NtNtNtCsfvfooZQ3Axs_4core4iter8adapters3mapINtB6_3MapNtNtNtBc_3str4iter5CharsNCNvCs8sZPpv4WdDS_10pkg_config6envify0ENtNtNtBa_6traits8iterator8Iterator4folduNCINvB6_8map_foldccuNCB1n_s_0NCINvNvB1Y_8for_each4callcNCINvXsb_NtCse1nGBsou5OW_5alloc6stringNtB3E_6StringINtNtB22_7collect6ExtendcE6extendIBO_BN_B2W_EE0E0E0EB1p_, symObjAddr: 0x117C, symBinAddr: 0x10001A110, symSize: 0x34 }
  - { offset: 0x3808F, size: 0x8, addend: 0x0, symName: __RNvXs0_NtNtNtCsfvfooZQ3Axs_4core4iter8adapters3mapINtB5_3MapIBN_NtNtNtBb_3str4iter5CharsNCNvCs8sZPpv4WdDS_10pkg_config6envify0ENCB1q_s_0ENtNtNtB9_6traits8iterator8Iterator9size_hintB1s_, symObjAddr: 0x2C6C, symBinAddr: 0x10001B828, symSize: 0x24 }
  - { offset: 0x380D6, size: 0x8, addend: 0x0, symName: __RNvXs0_NtNtNtCsfvfooZQ3Axs_4core4iter8adapters3mapINtB5_3MapINtNtB7_6filter6FilterINtNtNtBb_5slice4iter4IterNtNtCse1nGBsou5OW_5alloc6string6StringENCNvMs5_Cs8sZPpv4WdDS_10pkg_configNtB2t_7Library17parse_libs_cflagss0_0ENCB2n_s1_0ENtNtNtB9_6traits8iterator8Iterator4nextB2t_, symObjAddr: 0x2C90, symBinAddr: 0x10001B84C, symSize: 0x8C }
  - { offset: 0x38150, size: 0x8, addend: 0x0, symName: __RNvXs0_NtNtNtCsfvfooZQ3Axs_4core4iter8adapters3mapINtB5_3MapINtNtNtBb_3str4iter14SplitInclusivecENtB11_8LinesMapENtNtNtB9_6traits8iterator8Iterator4nextCs8sZPpv4WdDS_10pkg_config, symObjAddr: 0x2D1C, symBinAddr: 0x10001B8D8, symSize: 0x88 }
  - { offset: 0x381CA, size: 0x8, addend: 0x0, symName: __RNvXs0_NtNtNtCsfvfooZQ3Axs_4core4iter8adapters3mapINtB5_3MapINtNtNtBb_5slice4iter4IterNtNtCse1nGBsou5OW_5alloc6string6StringENCNvMs5_Cs8sZPpv4WdDS_10pkg_configNtB27_7Library17parse_libs_cflagss3_0ENtNtNtB9_6traits8iterator8Iterator4nextB27_, symObjAddr: 0x2E64, symBinAddr: 0x10001B960, symSize: 0x90 }
  - { offset: 0x38244, size: 0x8, addend: 0x0, symName: __RNvXs0_NtNtNtCsfvfooZQ3Axs_4core4iter8adapters3mapINtB5_3MapINtNtNtBb_5slice4iter4IterNtNtNtCscOYdFFY2T5N_3std3ffi6os_str8OsStringENCINvMCs8sZPpv4WdDS_10pkg_configNtB2b_14WrappedCommand4argsRINtNtCse1nGBsou5OW_5alloc3vec3VecB1m_ERB1m_E0ENtNtNtB9_6traits8iterator8Iterator9size_hintB2b_, symObjAddr: 0x2EF4, symBinAddr: 0x10001B9F0, symSize: 0x24 }
  - { offset: 0x3828B, size: 0x8, addend: 0x0, symName: __RNvXs0_NtNtNtCsfvfooZQ3Axs_4core4iter8adapters3mapINtB5_3MapINtNtNtBb_5slice4iter4IterNtNtNtCscOYdFFY2T5N_3std3ffi6os_str8OsStringENCNvXs_Cs8sZPpv4WdDS_10pkg_configNtB2c_14WrappedCommandNtNtBb_3fmt7Display3fmts_0ENtNtNtB9_6traits8iterator8Iterator9size_hintB2c_, symObjAddr: 0x2F18, symBinAddr: 0x10001BA14, symSize: 0x24 }
  - { offset: 0x382D2, size: 0x8, addend: 0x0, symName: __RNvXs0_NtNtNtCsfvfooZQ3Axs_4core4iter8adapters3mapINtB5_3MapINtNtNtBb_5slice4iter4IterReENCINvMCs8sZPpv4WdDS_10pkg_configNtB1v_14WrappedCommand4argsRSB1m_RB1m_E0ENtNtNtB9_6traits8iterator8Iterator9size_hintB1v_, symObjAddr: 0x2F3C, symBinAddr: 0x10001BA38, symSize: 0x24 }
  - { offset: 0x38319, size: 0x8, addend: 0x0, symName: __RNvXs0_NtNtNtCsfvfooZQ3Axs_4core4iter8adapters3mapINtB5_3MapINtNtNtBb_5slice4iter4IterTNtNtNtCscOYdFFY2T5N_3std3ffi6os_str8OsStringB1n_EENCNvXs_Cs8sZPpv4WdDS_10pkg_configNtB2i_14WrappedCommandNtNtBb_3fmt7Display3fmt0ENtNtNtB9_6traits8iterator8Iterator9size_hintB2i_, symObjAddr: 0x2F60, symBinAddr: 0x10001BA5C, symSize: 0x24 }
  - { offset: 0x38360, size: 0x8, addend: 0x0, symName: __RNvXs0_NtNtNtCsfvfooZQ3Axs_4core4iter8adapters3mapINtB5_3MapINtNtNtBb_5slice4iter4IterhENCNvNtCse1nGBsou5OW_5alloc3str13replace_ascii0ENtNtNtB9_6traits8iterator8Iterator9size_hintCs8sZPpv4WdDS_10pkg_config, symObjAddr: 0x2F84, symBinAddr: 0x10001BA80, symSize: 0x24 }
  - { offset: 0x383A7, size: 0x8, addend: 0x0, symName: __RNvXs0_NtNtNtCsfvfooZQ3Axs_4core4iter8adapters3mapINtB5_3MapINtNtNtCse1nGBsou5OW_5alloc3vec9into_iter8IntoIterReENvYNtNtB13_6string6StringINtNtBb_7convert4FromB1K_E4fromENtNtNtB9_6traits8iterator8Iterator9size_hintCs8sZPpv4WdDS_10pkg_config, symObjAddr: 0x2FA8, symBinAddr: 0x10001BAA4, symSize: 0x24 }
  - { offset: 0x383EE, size: 0x8, addend: 0x0, symName: __RNvXs0_NtNtNtCsfvfooZQ3Axs_4core4iter8adapters3mapINtB5_3MapNtNtNtBb_3str4iter5CharsNCNvCs8sZPpv4WdDS_10pkg_config6envify0ENtNtNtB9_6traits8iterator8Iterator9size_hintB1o_, symObjAddr: 0x2FCC, symBinAddr: 0x10001BAC8, symSize: 0x24 }
  - { offset: 0x38543, size: 0x8, addend: 0x0, symName: __RNCINvNtNtNtCsfvfooZQ3Axs_4core4iter8adapters3map8map_foldRNtNtNtCscOYdFFY2T5N_3std3ffi6os_str8OsStringBV_uNCINvMCs8sZPpv4WdDS_10pkg_configNtB1N_14WrappedCommand4argsRINtNtCse1nGBsou5OW_5alloc3vec3VecBV_EBU_E0NCINvNvNtNtNtB8_6traits8iterator8Iterator8for_each4callBV_NCINvMsi_B2I_B2F_14extend_trustedINtB4_3MapINtNtNtBa_5slice4iter4IterBV_EB1H_EE0E0E0B1N_, symObjAddr: 0x1594, symBinAddr: 0x10001A50C, symSize: 0x8C }
  - { offset: 0x385C8, size: 0x8, addend: 0x0, symName: __RNCINvNtNtNtCsfvfooZQ3Axs_4core4iter8adapters3map8map_foldRNtNtNtCscOYdFFY2T5N_3std3ffi6os_str8OsStringNtNtCse1nGBsou5OW_5alloc6string6StringuNCNvXs_Cs8sZPpv4WdDS_10pkg_configNtB2n_14WrappedCommandNtNtBa_3fmt7Display3fmts_0NCINvNvNtNtNtB8_6traits8iterator8Iterator8for_each4callB1D_NCINvMsi_NtB1H_3vecINtB4F_3VecB1D_E14extend_trustedINtB4_3MapINtNtNtBa_5slice4iter4IterBV_EB2g_EE0E0E0B2n_, symObjAddr: 0x1620, symBinAddr: 0x10001A598, symSize: 0x8C }
  - { offset: 0x3864D, size: 0x8, addend: 0x0, symName: __RNCINvNtNtNtCsfvfooZQ3Axs_4core4iter8adapters3map8map_foldRReNtNtNtCscOYdFFY2T5N_3std3ffi6os_str8OsStringuNCINvMCs8sZPpv4WdDS_10pkg_configNtB1M_14WrappedCommand4argsRSBV_BU_E0NCINvNvNtNtNtB8_6traits8iterator8Iterator8for_each4callBX_NCINvMsi_NtCse1nGBsou5OW_5alloc3vecINtB3S_3VecBX_E14extend_trustedINtB4_3MapINtNtNtBa_5slice4iter4IterBV_EB1G_EE0E0E0B1M_, symObjAddr: 0x16AC, symBinAddr: 0x10001A624, symSize: 0x8C }
  - { offset: 0x386D2, size: 0x8, addend: 0x0, symName: __RNCINvNtNtNtCsfvfooZQ3Axs_4core4iter8adapters3map8map_foldRTNtNtNtCscOYdFFY2T5N_3std3ffi6os_str8OsStringBW_ENtNtCse1nGBsou5OW_5alloc6string6StringuNCNvXs_Cs8sZPpv4WdDS_10pkg_configNtB2s_14WrappedCommandNtNtBa_3fmt7Display3fmt0NCINvNvNtNtNtB8_6traits8iterator8Iterator8for_each4callB1I_NCINvMsi_NtB1M_3vecINtB4I_3VecB1I_E14extend_trustedINtB4_3MapINtNtNtBa_5slice4iter4IterBV_EB2l_EE0E0E0B2s_, symObjAddr: 0x1738, symBinAddr: 0x10001A6B0, symSize: 0x8C }
  - { offset: 0x38757, size: 0x8, addend: 0x0, symName: __RNCINvNtNtNtCsfvfooZQ3Axs_4core4iter8adapters3map8map_foldReNtNtCse1nGBsou5OW_5alloc6string6StringuNvYBW_INtNtBa_7convert4FromBU_E4fromNCINvNvNtNtNtB8_6traits8iterator8Iterator8for_each4callBW_NCINvMsi_NtB10_3vecINtB3e_3VecBW_E14extend_trustedINtB4_3MapINtNtB3e_9into_iter8IntoIterBU_EB1z_EE0E0E0Cs8sZPpv4WdDS_10pkg_config, symObjAddr: 0x17C4, symBinAddr: 0x10001A73C, symSize: 0x90 }
  - { offset: 0x387DC, size: 0x8, addend: 0x0, symName: __RNCINvNtNtNtCsfvfooZQ3Axs_4core4iter8adapters3map8map_foldRhhuNCNvNtCse1nGBsou5OW_5alloc3str13replace_ascii0NCINvNvNtNtNtB8_6traits8iterator8Iterator8for_each4callhNCINvMsi_NtB14_3vecINtB2L_3VechE14extend_trustedINtB4_3MapINtNtNtBa_5slice4iter4IterhEBY_EE0E0E0Cs8sZPpv4WdDS_10pkg_config, symObjAddr: 0x1854, symBinAddr: 0x10001A7CC, symSize: 0x7C }
  - { offset: 0x38861, size: 0x8, addend: 0x0, symName: __RNCINvNtNtNtCsfvfooZQ3Axs_4core4iter8adapters3map8map_foldccuNCNvCs8sZPpv4WdDS_10pkg_config6envify0NCIB2_ccuNCBZ_s_0NCINvNvNtNtNtB8_6traits8iterator8Iterator8for_each4callcNCINvXsb_NtCse1nGBsou5OW_5alloc6stringNtB2T_6StringINtNtB21_7collect6ExtendcE6extendINtB4_3MapIB47_NtNtNtBa_3str4iter5CharsBX_EB1I_EE0E0E0E0B11_, symObjAddr: 0x18D0, symBinAddr: 0x10001A848, symSize: 0x78 }
  - { offset: 0x388E6, size: 0x8, addend: 0x0, symName: __RNCINvNtNtNtCsfvfooZQ3Axs_4core4iter8adapters3map8map_foldccuNCNvCs8sZPpv4WdDS_10pkg_config6envifys_0NCINvNvNtNtNtB8_6traits8iterator8Iterator8for_each4callcNCINvXsb_NtCse1nGBsou5OW_5alloc6stringNtB2E_6StringINtNtB1M_7collect6ExtendcE6extendINtB4_3MapIB3S_NtNtNtBa_3str4iter5CharsNCBZ_0EBX_EE0E0E0B11_, symObjAddr: 0x1948, symBinAddr: 0x10001A8C0, symSize: 0x78 }
  - { offset: 0x38B33, size: 0x8, addend: 0x0, symName: __RNCINvNtNtNtCsfvfooZQ3Axs_4core4iter8adapters3map12map_try_foldRNtNtCse1nGBsou5OW_5alloc6string6StringjjINtNtBa_6option6OptionjENCNCINvNtB14_3str17join_generic_copyehB10_E00NvMs9_NtBa_3numj11checked_addE0Cs8sZPpv4WdDS_10pkg_config, symObjAddr: 0x1444, symBinAddr: 0x10001A3BC, symSize: 0xA8 }
  - { offset: 0x38BC5, size: 0x8, addend: 0x0, symName: __RNCINvNtNtNtCsfvfooZQ3Axs_4core4iter8adapters3map12map_try_foldRRejjINtNtBa_6option6OptionjENCNCINvNtCse1nGBsou5OW_5alloc3str17join_generic_copyehB10_E00NvMs9_NtBa_3numj11checked_addE0Cs8sZPpv4WdDS_10pkg_config, symObjAddr: 0x14EC, symBinAddr: 0x10001A464, symSize: 0xA8 }
  - { offset: 0x38E94, size: 0x8, addend: 0x0, symName: __RNvXs9_NtNtNtCsfvfooZQ3Axs_4core4iter8adapters4fuseINtB5_4FuseINtNtB7_3map3MapINtNtNtBb_5slice4iter4IterNtNtCse1nGBsou5OW_5alloc6string6StringENCNvMs5_Cs8sZPpv4WdDS_10pkg_configNtB2p_7Library17parse_libs_cflagss3_0EEINtB5_8FuseImplBY_E4nextB2p_, symObjAddr: 0x3448, symBinAddr: 0x10001BF44, symSize: 0x88 }
  - { offset: 0x391A4, size: 0x8, addend: 0x0, symName: __RINvYINtNtNtNtCsfvfooZQ3Axs_4core4iter8adapters3map3MapIB4_NtNtNtBc_3str4iter5CharsNCNvCs8sZPpv4WdDS_10pkg_config6envify0ENCB1l_s_0ENtNtNtBa_6traits8iterator8Iterator7collectNtNtCse1nGBsou5OW_5alloc6string6StringEB1n_, symObjAddr: 0x11B0, symBinAddr: 0x10001A144, symSize: 0x2C }
  - { offset: 0x391E4, size: 0x8, addend: 0x0, symName: __RINvYINtNtNtNtCsfvfooZQ3Axs_4core4iter8adapters3map3MapIB4_NtNtNtBc_3str4iter5CharsNCNvCs8sZPpv4WdDS_10pkg_config6envify0ENCB1l_s_0ENtNtNtBa_6traits8iterator8Iterator8for_eachNCINvXsb_NtCse1nGBsou5OW_5alloc6stringNtB2W_6StringINtNtB2a_7collect6ExtendcE6extendB3_E0EB1n_, symObjAddr: 0x11DC, symBinAddr: 0x10001A170, symSize: 0x34 }
  - { offset: 0x3922F, size: 0x8, addend: 0x0, symName: __RINvYINtNtNtNtCsfvfooZQ3Axs_4core4iter8adapters3map3MapINtNtNtBc_5slice4iter4IterNtNtNtCscOYdFFY2T5N_3std3ffi6os_str8OsStringENCINvMCs8sZPpv4WdDS_10pkg_configNtB26_14WrappedCommand4argsRINtNtCse1nGBsou5OW_5alloc3vec3VecB1h_ERB1h_E0ENtNtNtBa_6traits8iterator8Iterator8for_eachNCINvMsi_B31_B2Y_14extend_trustedB3_E0EB26_, symObjAddr: 0x122C, symBinAddr: 0x10001A1A4, symSize: 0x44 }
  - { offset: 0x3929A, size: 0x8, addend: 0x0, symName: __RINvYINtNtNtNtCsfvfooZQ3Axs_4core4iter8adapters3map3MapINtNtNtBc_5slice4iter4IterNtNtNtCscOYdFFY2T5N_3std3ffi6os_str8OsStringENCNvXs_Cs8sZPpv4WdDS_10pkg_configNtB27_14WrappedCommandNtNtBc_3fmt7Display3fmts_0ENtNtNtBa_6traits8iterator8Iterator7collectINtNtCse1nGBsou5OW_5alloc3vec3VecNtNtB45_6string6StringEEB27_, symObjAddr: 0x1270, symBinAddr: 0x10001A1E8, symSize: 0x34 }
  - { offset: 0x392DA, size: 0x8, addend: 0x0, symName: __RINvYINtNtNtNtCsfvfooZQ3Axs_4core4iter8adapters3map3MapINtNtNtBc_5slice4iter4IterNtNtNtCscOYdFFY2T5N_3std3ffi6os_str8OsStringENCNvXs_Cs8sZPpv4WdDS_10pkg_configNtB27_14WrappedCommandNtNtBc_3fmt7Display3fmts_0ENtNtNtBa_6traits8iterator8Iterator8for_eachNCINvMsi_NtCse1nGBsou5OW_5alloc3vecINtB4a_3VecNtNtB4c_6string6StringE14extend_trustedB3_E0EB27_, symObjAddr: 0x12A4, symBinAddr: 0x10001A21C, symSize: 0x44 }
  - { offset: 0x39345, size: 0x8, addend: 0x0, symName: __RINvYINtNtNtNtCsfvfooZQ3Axs_4core4iter8adapters3map3MapINtNtNtBc_5slice4iter4IterReENCINvMCs8sZPpv4WdDS_10pkg_configNtB1q_14WrappedCommand4argsRSB1h_RB1h_E0ENtNtNtBa_6traits8iterator8Iterator8for_eachNCINvMsi_NtCse1nGBsou5OW_5alloc3vecINtB3l_3VecNtNtNtCscOYdFFY2T5N_3std3ffi6os_str8OsStringE14extend_trustedB3_E0EB1q_, symObjAddr: 0x12E8, symBinAddr: 0x10001A260, symSize: 0x44 }
  - { offset: 0x393B0, size: 0x8, addend: 0x0, symName: __RINvYINtNtNtNtCsfvfooZQ3Axs_4core4iter8adapters3map3MapINtNtNtBc_5slice4iter4IterTNtNtNtCscOYdFFY2T5N_3std3ffi6os_str8OsStringB1i_EENCNvXs_Cs8sZPpv4WdDS_10pkg_configNtB2d_14WrappedCommandNtNtBc_3fmt7Display3fmt0ENtNtNtBa_6traits8iterator8Iterator7collectINtNtCse1nGBsou5OW_5alloc3vec3VecNtNtB49_6string6StringEEB2d_, symObjAddr: 0x132C, symBinAddr: 0x10001A2A4, symSize: 0x34 }
  - { offset: 0x393F0, size: 0x8, addend: 0x0, symName: __RINvYINtNtNtNtCsfvfooZQ3Axs_4core4iter8adapters3map3MapINtNtNtBc_5slice4iter4IterTNtNtNtCscOYdFFY2T5N_3std3ffi6os_str8OsStringB1i_EENCNvXs_Cs8sZPpv4WdDS_10pkg_configNtB2d_14WrappedCommandNtNtBc_3fmt7Display3fmt0ENtNtNtBa_6traits8iterator8Iterator8for_eachNCINvMsi_NtCse1nGBsou5OW_5alloc3vecINtB4e_3VecNtNtB4g_6string6StringE14extend_trustedB3_E0EB2d_, symObjAddr: 0x1360, symBinAddr: 0x10001A2D8, symSize: 0x44 }
  - { offset: 0x3945B, size: 0x8, addend: 0x0, symName: __RINvYINtNtNtNtCsfvfooZQ3Axs_4core4iter8adapters3map3MapINtNtNtBc_5slice4iter4IterhENCNvNtCse1nGBsou5OW_5alloc3str13replace_ascii0ENtNtNtBa_6traits8iterator8Iterator8for_eachNCINvMsi_NtB1p_3vecINtB2U_3VechE14extend_trustedB3_E0ECs8sZPpv4WdDS_10pkg_config, symObjAddr: 0x13A4, symBinAddr: 0x10001A31C, symSize: 0x34 }
  - { offset: 0x394C7, size: 0x8, addend: 0x0, symName: __RINvYINtNtNtNtCsfvfooZQ3Axs_4core4iter8adapters3map3MapINtNtNtCse1nGBsou5OW_5alloc3vec9into_iter8IntoIterReENvYNtNtBY_6string6StringINtNtBc_7convert4FromB1F_E4fromENtNtNtBa_6traits8iterator8Iterator7collectINtBW_3VecB1L_EECs8sZPpv4WdDS_10pkg_config, symObjAddr: 0x13D8, symBinAddr: 0x10001A350, symSize: 0x1C }
  - { offset: 0x39508, size: 0x8, addend: 0x0, symName: __RINvYINtNtNtNtCsfvfooZQ3Axs_4core4iter8adapters3map3MapINtNtNtCse1nGBsou5OW_5alloc3vec9into_iter8IntoIterReENvYNtNtBY_6string6StringINtNtBc_7convert4FromB1F_E4fromENtNtNtBa_6traits8iterator8Iterator8for_eachNCINvMsi_BW_INtBW_3VecB1L_E14extend_trustedB3_E0ECs8sZPpv4WdDS_10pkg_config, symObjAddr: 0x13F4, symBinAddr: 0x10001A36C, symSize: 0x34 }
  - { offset: 0x39574, size: 0x8, addend: 0x0, symName: __RINvYINtNtNtNtCsfvfooZQ3Axs_4core4iter8adapters3map3MapNtNtNtBc_3str4iter5CharsNCNvCs8sZPpv4WdDS_10pkg_config6envify0ENtNtNtBa_6traits8iterator8Iterator3mapcNCB1h_s_0EB1j_, symObjAddr: 0x1428, symBinAddr: 0x10001A3A0, symSize: 0x1C }
  - { offset: 0x395D8, size: 0x8, addend: 0x0, symName: __RNvXNtNtNtCsfvfooZQ3Axs_4core4iter6traits7collectINtNtNtB6_8adapters3map3MapIBM_NtNtNtB8_3str4iter5CharsNCNvCs8sZPpv4WdDS_10pkg_config6envify0ENCB1G_s_0ENtB2_12IntoIterator9into_iterB1I_, symObjAddr: 0x2B80, symBinAddr: 0x10001B76C, symSize: 0x1C }
  - { offset: 0x3960F, size: 0x8, addend: 0x0, symName: __RNvXNtNtNtCsfvfooZQ3Axs_4core4iter6traits7collectINtNtNtB6_8adapters3map3MapINtNtBQ_6filter6FilterINtNtNtB8_5slice4iter4IterNtNtCse1nGBsou5OW_5alloc6string6StringENCNvMs5_Cs8sZPpv4WdDS_10pkg_configNtB2J_7Library17parse_libs_cflagss0_0ENCB2D_s1_0ENtB2_12IntoIterator9into_iterB2J_, symObjAddr: 0x2B9C, symBinAddr: 0x10001B788, symSize: 0x1C }
  - { offset: 0x39646, size: 0x8, addend: 0x0, symName: __RNvXNtNtNtCsfvfooZQ3Axs_4core4iter6traits7collectINtNtNtB6_8adapters3map3MapINtNtNtB8_5slice4iter4IterNtNtNtCscOYdFFY2T5N_3std3ffi6os_str8OsStringENCINvMCs8sZPpv4WdDS_10pkg_configNtB2r_14WrappedCommand4argsRINtNtCse1nGBsou5OW_5alloc3vec3VecB1C_ERB1C_E0ENtB2_12IntoIterator9into_iterB2r_, symObjAddr: 0x2BE8, symBinAddr: 0x10001B7A4, symSize: 0x1C }
  - { offset: 0x3967D, size: 0x8, addend: 0x0, symName: __RNvXNtNtNtCsfvfooZQ3Axs_4core4iter6traits7collectINtNtNtB6_8adapters3map3MapINtNtNtB8_5slice4iter4IterNtNtNtCscOYdFFY2T5N_3std3ffi6os_str8OsStringENCNvXs_Cs8sZPpv4WdDS_10pkg_configNtB2s_14WrappedCommandNtNtB8_3fmt7Display3fmts_0ENtB2_12IntoIterator9into_iterB2s_, symObjAddr: 0x2C04, symBinAddr: 0x10001B7C0, symSize: 0x1C }
  - { offset: 0x396B4, size: 0x8, addend: 0x0, symName: __RNvXNtNtNtCsfvfooZQ3Axs_4core4iter6traits7collectINtNtNtB6_8adapters3map3MapINtNtNtB8_5slice4iter4IterReENCINvMCs8sZPpv4WdDS_10pkg_configNtB1L_14WrappedCommand4argsRSB1C_RB1C_E0ENtB2_12IntoIterator9into_iterB1L_, symObjAddr: 0x2C20, symBinAddr: 0x10001B7DC, symSize: 0x1C }
  - { offset: 0x396EB, size: 0x8, addend: 0x0, symName: __RNvXNtNtNtCsfvfooZQ3Axs_4core4iter6traits7collectINtNtNtB6_8adapters3map3MapINtNtNtB8_5slice4iter4IterTNtNtNtCscOYdFFY2T5N_3std3ffi6os_str8OsStringB1D_EENCNvXs_Cs8sZPpv4WdDS_10pkg_configNtB2y_14WrappedCommandNtNtB8_3fmt7Display3fmt0ENtB2_12IntoIterator9into_iterB2y_, symObjAddr: 0x2C3C, symBinAddr: 0x10001B7F8, symSize: 0x1C }
  - { offset: 0x39722, size: 0x8, addend: 0x0, symName: __RNvXNtNtNtCsfvfooZQ3Axs_4core4iter6traits7collectINtNtNtB6_8adapters3map3MapINtNtNtCse1nGBsou5OW_5alloc3vec9into_iter8IntoIterReENvYNtNtB1j_6string6StringINtNtB8_7convert4FromB20_E4fromENtB2_12IntoIterator9into_iterCs8sZPpv4WdDS_10pkg_config, symObjAddr: 0x2C58, symBinAddr: 0x10001B814, symSize: 0x14 }
  - { offset: 0x397A7, size: 0x8, addend: 0x0, symName: __RNvNvMNtNtCsfvfooZQ3Axs_4core5alloc6layoutNtB4_6Layout25from_size_align_unchecked18precondition_checkCs8sZPpv4WdDS_10pkg_config, symObjAddr: 0x2AD8, symBinAddr: 0x10001B6C4, symSize: 0x50 }
  - { offset: 0x397F0, size: 0x8, addend: 0x0, symName: __RNvNtNtNtCsfvfooZQ3Axs_4core7unicode12unicode_data11white_space6lookupCs8sZPpv4WdDS_10pkg_config, symObjAddr: 0x298C, symBinAddr: 0x10001B578, symSize: 0x14C }
  - { offset: 0x39838, size: 0x8, addend: 0x0, symName: __RNvXs8_NtNtCsfvfooZQ3Axs_4core3str5errorNtB5_9Utf8ErrorNtNtB9_3fmt5Debug3fmtCs8sZPpv4WdDS_10pkg_config, symObjAddr: 0x33C0, symBinAddr: 0x10001BEBC, symSize: 0x88 }
  - { offset: 0x399A7, size: 0x8, addend: 0x0, symName: __RNvXs7_NtNtCsfvfooZQ3Axs_4core3cmp5implsRNtNtNtCscOYdFFY2T5N_3std3ffi6os_str8OsStringINtB7_9PartialEqReE2eqCs8sZPpv4WdDS_10pkg_config, symObjAddr: 0x3384, symBinAddr: 0x10001BE80, symSize: 0x3C }
  - { offset: 0x39C63, size: 0x8, addend: 0x0, symName: __RNCNvXs1_NtNtNtCscOYdFFY2T5N_3std2io5error14repr_bitpackedNtB7_4ReprNtNtNtCsfvfooZQ3Axs_4core3ops4drop4Drop4drop0Cs8sZPpv4WdDS_10pkg_config, symObjAddr: 0x19D4, symBinAddr: 0x10001A94C, symSize: 0x34 }
  - { offset: 0x39D18, size: 0x8, addend: 0x0, symName: __RNvXs1_NtNtNtCscOYdFFY2T5N_3std2io5error14repr_bitpackedNtB5_4ReprNtNtNtCsfvfooZQ3Axs_4core3ops4drop4Drop4dropCs8sZPpv4WdDS_10pkg_config, symObjAddr: 0x31C0, symBinAddr: 0x10001BCBC, symSize: 0x38 }
  - { offset: 0x39D41, size: 0x8, addend: 0x0, symName: __RINvNtNtNtCscOYdFFY2T5N_3std2io5error14repr_bitpacked11decode_reprINtNtCse1nGBsou5OW_5alloc5boxed3BoxNtB4_6CustomENCNvXs1_B2_NtB2_4ReprNtNtNtCsfvfooZQ3Axs_4core3ops4drop4Drop4drop0ECs8sZPpv4WdDS_10pkg_config, symObjAddr: 0x950, symBinAddr: 0x1000198E4, symSize: 0x230 }
  - { offset: 0x39FF7, size: 0x8, addend: 0x0, symName: __RNCNvMs0_NtNtNtCscOYdFFY2T5N_3std2io5error14repr_bitpackedNtB7_4Repr4data0Cs8sZPpv4WdDS_10pkg_config, symObjAddr: 0x19C0, symBinAddr: 0x10001A938, symSize: 0x14 }
  - { offset: 0x3A02F, size: 0x8, addend: 0x0, symName: __RINvNtNtNtCscOYdFFY2T5N_3std2io5error14repr_bitpacked11decode_reprRNtB4_6CustomNCNvMs0_B2_NtB2_4Repr4data0ECs8sZPpv4WdDS_10pkg_config, symObjAddr: 0xB80, symBinAddr: 0x100019B14, symSize: 0x230 }
  - { offset: 0x3A2D4, size: 0x8, addend: 0x0, symName: __RNvNtNtNtCscOYdFFY2T5N_3std2io5error14repr_bitpacked14kind_from_primCs8sZPpv4WdDS_10pkg_config, symObjAddr: 0x2144, symBinAddr: 0x10001AF70, symSize: 0x608 }
  - { offset: 0x3AEE0, size: 0x8, addend: 0x0, symName: __RINvXNtNtNtNtCscOYdFFY2T5N_3std3sys12thread_local6native4lazyzNtB3_14DestroyedState13register_dtorINtNtCsfvfooZQ3Axs_4core4cell4CellTyyEEECs8sZPpv4WdDS_10pkg_config, symObjAddr: 0xF84, symBinAddr: 0x100019F18, symSize: 0x10 }
  - { offset: 0x3AFEC, size: 0x8, addend: 0x0, symName: __RNvXs2_NtNtCscOYdFFY2T5N_3std3ffi6os_strNtB5_8OsStringINtNtCsfvfooZQ3Axs_4core7convert4FromReE4fromCs8sZPpv4WdDS_10pkg_config, symObjAddr: 0x324C, symBinAddr: 0x10001BD48, symSize: 0x54 }
  - { offset: 0x3B047, size: 0x8, addend: 0x0, symName: __RNvXs3_NtNtCscOYdFFY2T5N_3std3ffi6os_strNtB5_8OsStringINtNtNtCsfvfooZQ3Axs_4core3ops5index5IndexNtNtBV_5range9RangeFullE5indexCs8sZPpv4WdDS_10pkg_config, symObjAddr: 0x32A0, symBinAddr: 0x10001BD9C, symSize: 0x78 }
  - { offset: 0x3B1CA, size: 0x8, addend: 0x0, symName: __RNvXs5_NtNtCscOYdFFY2T5N_3std3ffi6os_strNtB5_8OsStringNtNtNtCsfvfooZQ3Axs_4core3ops5deref5Deref5derefCs8sZPpv4WdDS_10pkg_config, symObjAddr: 0x3318, symBinAddr: 0x10001BE14, symSize: 0x2C }
  - { offset: 0x3B258, size: 0x8, addend: 0x0, symName: __RNvXs7_NtNtCscOYdFFY2T5N_3std3ffi6os_strNtB5_8OsStringNtNtCsfvfooZQ3Axs_4core7default7Default7defaultCs8sZPpv4WdDS_10pkg_config, symObjAddr: 0x3344, symBinAddr: 0x10001BE40, symSize: 0x40 }
  - { offset: 0x3B2D1, size: 0x8, addend: 0x0, symName: __RNvXsU_NtNtCscOYdFFY2T5N_3std3ffi6os_strNtB5_5OsStrINtNtCsfvfooZQ3Axs_4core7convert5AsRefBC_E6as_refCs8sZPpv4WdDS_10pkg_config, symObjAddr: 0x34D0, symBinAddr: 0x10001BFCC, symSize: 0x18 }
  - { offset: 0x3B305, size: 0x8, addend: 0x0, symName: __RNvXsV_NtNtCscOYdFFY2T5N_3std3ffi6os_strNtB5_8OsStringINtNtCsfvfooZQ3Axs_4core7convert5AsRefNtB5_5OsStrE6as_refCs8sZPpv4WdDS_10pkg_config, symObjAddr: 0x34E8, symBinAddr: 0x10001BFE4, symSize: 0x2C }
  - { offset: 0x3B357, size: 0x8, addend: 0x0, symName: __RNvXsW_NtNtCscOYdFFY2T5N_3std3ffi6os_streINtNtCsfvfooZQ3Axs_4core7convert5AsRefNtB5_5OsStrE6as_refCs8sZPpv4WdDS_10pkg_config, symObjAddr: 0x3514, symBinAddr: 0x10001C010, symSize: 0x18 }
  - { offset: 0x3B403, size: 0x8, addend: 0x0, symName: __RNvXsa_NtNtCscOYdFFY2T5N_3std3ffi6os_strNtB5_8OsStringNtNtCsfvfooZQ3Axs_4core3cmp9PartialEq2eqCs8sZPpv4WdDS_10pkg_config, symObjAddr: 0x352C, symBinAddr: 0x10001C028, symSize: 0x134 }
  - { offset: 0x3B83C, size: 0x8, addend: 0x0, symName: __RNvXsb_NtNtCscOYdFFY2T5N_3std3ffi6os_strNtB5_8OsStringINtNtCsfvfooZQ3Axs_4core3cmp9PartialEqeE2eqCs8sZPpv4WdDS_10pkg_config, symObjAddr: 0x3660, symBinAddr: 0x10001C15C, symSize: 0xC4 }
  - { offset: 0x3BC33, size: 0x8, addend: 0x0, symName: __RINvMNtCse1nGBsou5OW_5alloc5sliceSRe4joinBw_ECs8sZPpv4WdDS_10pkg_config, symObjAddr: 0x0, symBinAddr: 0x1000194FC, symSize: 0x34 }
  - { offset: 0x3BC82, size: 0x8, addend: 0x0, symName: __RINvMNtCse1nGBsou5OW_5alloc5sliceSRe8into_vecNtNtB5_5alloc6GlobalECs8sZPpv4WdDS_10pkg_config, symObjAddr: 0x34, symBinAddr: 0x100019530, symSize: 0x28 }
  - { offset: 0x3C364, size: 0x8, addend: 0x0, symName: __RNvXs1_NtCse1nGBsou5OW_5alloc7raw_vecINtB5_6RawVecINtNtB7_3vec3VecNtNtB7_6string6StringEENtNtNtCsfvfooZQ3Axs_4core3ops4drop4Drop4dropCs8sZPpv4WdDS_10pkg_config, symObjAddr: 0x2FF0, symBinAddr: 0x10001BAEC, symSize: 0x34 }
  - { offset: 0x3C3A0, size: 0x8, addend: 0x0, symName: __RNvXs1_NtCse1nGBsou5OW_5alloc7raw_vecINtB5_6RawVecINtNtB7_5boxed3BoxDINtNtNtCsfvfooZQ3Axs_4core3ops8function5FnMutuEp6OutputINtNtB1c_6result6ResultuNtNtNtCscOYdFFY2T5N_3std2io5error5ErrorENtNtB1c_6marker4SendNtB32_4SyncEL_EENtNtB1a_4drop4Drop4dropCs8sZPpv4WdDS_10pkg_config, symObjAddr: 0x3024, symBinAddr: 0x10001BB20, symSize: 0x34 }
  - { offset: 0x3C3DC, size: 0x8, addend: 0x0, symName: __RNvXs1_NtCse1nGBsou5OW_5alloc7raw_vecINtB5_6RawVecNtNtB7_6string6StringENtNtNtCsfvfooZQ3Axs_4core3ops4drop4Drop4dropCs8sZPpv4WdDS_10pkg_config, symObjAddr: 0x3058, symBinAddr: 0x10001BB54, symSize: 0x34 }
  - { offset: 0x3C418, size: 0x8, addend: 0x0, symName: __RNvXs1_NtCse1nGBsou5OW_5alloc7raw_vecINtB5_6RawVecNtNtCscOYdFFY2T5N_3std4path7PathBufENtNtNtCsfvfooZQ3Axs_4core3ops4drop4Drop4dropCs8sZPpv4WdDS_10pkg_config, symObjAddr: 0x308C, symBinAddr: 0x10001BB88, symSize: 0x34 }
  - { offset: 0x3C454, size: 0x8, addend: 0x0, symName: __RNvXs1_NtCse1nGBsou5OW_5alloc7raw_vecINtB5_6RawVecNtNtNtB7_3ffi5c_str7CStringENtNtNtCsfvfooZQ3Axs_4core3ops4drop4Drop4dropCs8sZPpv4WdDS_10pkg_config, symObjAddr: 0x30C0, symBinAddr: 0x10001BBBC, symSize: 0x34 }
  - { offset: 0x3C490, size: 0x8, addend: 0x0, symName: __RNvXs1_NtCse1nGBsou5OW_5alloc7raw_vecINtB5_6RawVecNtNtNtCscOYdFFY2T5N_3std3ffi6os_str8OsStringENtNtNtCsfvfooZQ3Axs_4core3ops4drop4Drop4dropCs8sZPpv4WdDS_10pkg_config, symObjAddr: 0x30F4, symBinAddr: 0x10001BBF0, symSize: 0x34 }
  - { offset: 0x3C4CC, size: 0x8, addend: 0x0, symName: __RNvXs1_NtCse1nGBsou5OW_5alloc7raw_vecINtB5_6RawVecPaENtNtNtCsfvfooZQ3Axs_4core3ops4drop4Drop4dropCs8sZPpv4WdDS_10pkg_config, symObjAddr: 0x3128, symBinAddr: 0x10001BC24, symSize: 0x30 }
  - { offset: 0x3C508, size: 0x8, addend: 0x0, symName: __RNvXs1_NtCse1nGBsou5OW_5alloc7raw_vecINtB5_6RawVecReENtNtNtCsfvfooZQ3Axs_4core3ops4drop4Drop4dropCs8sZPpv4WdDS_10pkg_config, symObjAddr: 0x3158, symBinAddr: 0x10001BC54, symSize: 0x34 }
  - { offset: 0x3C544, size: 0x8, addend: 0x0, symName: __RNvXs1_NtCse1nGBsou5OW_5alloc7raw_vecINtB5_6RawVecTNtNtNtCscOYdFFY2T5N_3std3ffi6os_str8OsStringBN_EENtNtNtCsfvfooZQ3Axs_4core3ops4drop4Drop4dropCs8sZPpv4WdDS_10pkg_config, symObjAddr: 0x318C, symBinAddr: 0x10001BC88, symSize: 0x34 }
  - { offset: 0x3C895, size: 0x8, addend: 0x0, symName: __RINvNtNtNtCse1nGBsou5OW_5alloc11collections5btree3mem7replaceINtNtB4_4node6HandleINtB10_7NodeRefNtNtB10_6marker5DyingNtNtNtCscOYdFFY2T5N_3std3ffi6os_str8OsStringINtNtCsfvfooZQ3Axs_4core6option6OptionB1R_ENtB1y_4LeafENtB1y_4EdgeEIBY_IB1i_B1w_B1R_B2z_NtB1y_14LeafOrInternalENtB1y_2KVENCINvMsm_NtB4_8navigateBX_27deallocating_next_uncheckedNtNtB8_5alloc6GlobalE0ECs8sZPpv4WdDS_10pkg_config, symObjAddr: 0xDB0, symBinAddr: 0x100019D44, symSize: 0xCC }
  - { offset: 0x3CF3E, size: 0x8, addend: 0x0, symName: __RINvMNtCsfvfooZQ3Axs_4core6resultINtB3_6ResultINtNtCse1nGBsou5OW_5alloc3vec3VechENtCs8sZPpv4WdDS_10pkg_config5ErrorE7map_errB1h_NCNvMs3_B1j_NtB1j_6Config5probe0EB1j_, symObjAddr: 0x5C, symBinAddr: 0x100019558, symSize: 0xDC }
  - { offset: 0x3D115, size: 0x8, addend: 0x0, symName: __RINvMNtCsfvfooZQ3Axs_4core6resultINtB3_6ResultNtNtCscOYdFFY2T5N_3std7process6OutputNtNtNtBM_2io5error5ErrorE7or_elseB1j_NCNvMs3_Cs8sZPpv4WdDS_10pkg_configNtB22_6Config3runs_0EB22_, symObjAddr: 0x2E0, symBinAddr: 0x100019634, symSize: 0xB4 }
  - { offset: 0x3D1D8, size: 0x8, addend: 0x0, symName: __RINvMNtCsfvfooZQ3Axs_4core6resultINtB3_6ResultRNtNtCse1nGBsou5OW_5alloc6string6StringRNtNtCscOYdFFY2T5N_3std3env8VarErrorE3mapbNCNvMs5_Cs8sZPpv4WdDS_10pkg_configNtB29_7Library17parse_libs_cflags0EB29_, symObjAddr: 0x4F0, symBinAddr: 0x1000196E8, symSize: 0x68 }
  - { offset: 0x3D3A0, size: 0x8, addend: 0x0, symName: __RINvMs0_NtNtNtNtCscOYdFFY2T5N_3std3sys12thread_local6native4lazyINtB6_7StorageINtNtCsfvfooZQ3Axs_4core4cell4CellTyyEEzE10initializeNvNvNvMNtNtBe_4hash6randomNtB2c_11RandomState3new4KEYS6___initECs8sZPpv4WdDS_10pkg_config, symObjAddr: 0x558, symBinAddr: 0x1000FD71C, symSize: 0x264 }
  - { offset: 0x3D5F4, size: 0x8, addend: 0x0, symName: __RINvMs0_NtNtNtNtCscOYdFFY2T5N_3std3sys12thread_local6native4lazyINtB6_7StorageINtNtCsfvfooZQ3Axs_4core4cell4CellTyyEEzE11get_or_initNvNvNvMNtNtBe_4hash6randomNtB2d_11RandomState3new4KEYS6___initECs8sZPpv4WdDS_10pkg_config, symObjAddr: 0x7BC, symBinAddr: 0x100019750, symSize: 0xC4 }
  - { offset: 0x3D72F, size: 0x8, addend: 0x0, symName: __RINvMs5_NtNtCsfvfooZQ3Axs_4core3fmt8buildersNtB6_9DebugList7entriesRhINtNtNtBa_5slice4iter4IterhEECs8sZPpv4WdDS_10pkg_config, symObjAddr: 0x880, symBinAddr: 0x100019814, symSize: 0xD0 }
  - { offset: 0x3DB6F, size: 0x8, addend: 0x0, symName: __RNvMNtCsfvfooZQ3Axs_4core6resultINtB2_6ResultNtNtCse1nGBsou5OW_5alloc6string6StringNtNtCscOYdFFY2T5N_3std3env8VarErrorE6as_refCs8sZPpv4WdDS_10pkg_config, symObjAddr: 0x1A58, symBinAddr: 0x10001A9D0, symSize: 0x68 }
  - { offset: 0x3DBE0, size: 0x8, addend: 0x0, symName: __RNvMNtCsfvfooZQ3Axs_4core6resultINtB2_6ResultbRNtNtCscOYdFFY2T5N_3std3env8VarErrorE9unwrap_orCs8sZPpv4WdDS_10pkg_config, symObjAddr: 0x1B94, symBinAddr: 0x10001AA38, symSize: 0x6C }
  - { offset: 0x3DC43, size: 0x8, addend: 0x0, symName: __RNvMNtCsfvfooZQ3Axs_4core6resultINtB2_6ResulthNtNtNtB4_3num5error15TryFromIntErrorE6expectCs8sZPpv4WdDS_10pkg_config, symObjAddr: 0x1C00, symBinAddr: 0x10001AAA4, symSize: 0x84 }
  - { offset: 0x3DCF7, size: 0x8, addend: 0x0, symName: __RNvMs0_NtCse1nGBsou5OW_5alloc7raw_vecINtB5_6RawVecINtNtB7_3vec3VecNtNtB7_6string6StringEE8grow_oneCs8sZPpv4WdDS_10pkg_config, symObjAddr: 0x1CFC, symBinAddr: 0x10001AB28, symSize: 0x94 }
  - { offset: 0x3DDA5, size: 0x8, addend: 0x0, symName: __RNvMs0_NtCse1nGBsou5OW_5alloc7raw_vecINtB5_6RawVecNtNtCscOYdFFY2T5N_3std4path7PathBufE8grow_oneCs8sZPpv4WdDS_10pkg_config, symObjAddr: 0x1D90, symBinAddr: 0x10001ABBC, symSize: 0x94 }
  - { offset: 0x3DE53, size: 0x8, addend: 0x0, symName: __RNvMs0_NtCse1nGBsou5OW_5alloc7raw_vecINtB5_6RawVecReE8grow_oneCs8sZPpv4WdDS_10pkg_config, symObjAddr: 0x1E24, symBinAddr: 0x10001AC50, symSize: 0x94 }
  - { offset: 0x3DF63, size: 0x8, addend: 0x0, symName: __RNvMs2_NtCse1nGBsou5OW_5alloc7raw_vecNtB5_11RawVecInner16with_capacity_inCs8sZPpv4WdDS_10pkg_config, symObjAddr: 0x1EB8, symBinAddr: 0x10001ACE4, symSize: 0x10C }
  - { offset: 0x3E0D4, size: 0x8, addend: 0x0, symName: __RNvMsl_NtNtCscOYdFFY2T5N_3std3ffi6os_strNtB5_5OsStr12to_os_stringCs8sZPpv4WdDS_10pkg_config, symObjAddr: 0x1FC4, symBinAddr: 0x10001ADF0, symSize: 0x44 }
  - { offset: 0x3E0F7, size: 0x8, addend: 0x0, symName: __RNvMsl_NtNtCscOYdFFY2T5N_3std3ffi6os_strNtB5_5OsStr15to_string_lossyCs8sZPpv4WdDS_10pkg_config, symObjAddr: 0x2008, symBinAddr: 0x10001AE34, symSize: 0x28 }
  - { offset: 0x3E907, size: 0x8, addend: 0x0, symName: __RINvMNtCse1nGBsou5OW_5alloc5sliceSNtNtB5_6string6String4joinReECs8sZPpv4WdDS_10pkg_config, symObjAddr: 0x0, symBinAddr: 0x10001C488, symSize: 0x34 }
  - { offset: 0x3EE88, size: 0x8, addend: 0x0, symName: __RINvXs5_NtCse1nGBsou5OW_5alloc6stringNtB6_6StringINtNtNtNtCsfvfooZQ3Axs_4core4iter6traits7collect12FromIteratorcE9from_iterINtNtNtBS_8adapters3map3MapIB1Y_NtNtNtBU_3str4iter5CharsNCNvCs8sZPpv4WdDS_10pkg_config6envify0ENCB2T_s_0EEB2V_, symObjAddr: 0xC18, symBinAddr: 0x10001CF9C, symSize: 0xA0 }
  - { offset: 0x3EF06, size: 0x8, addend: 0x0, symName: __RINvXsb_NtCse1nGBsou5OW_5alloc6stringNtB6_6StringINtNtNtNtCsfvfooZQ3Axs_4core4iter6traits7collect6ExtendcE6extendINtNtNtBS_8adapters3map3MapIB1O_NtNtNtBU_3str4iter5CharsNCNvCs8sZPpv4WdDS_10pkg_config6envify0ENCB2J_s_0EEB2L_, symObjAddr: 0xCB8, symBinAddr: 0x10001D03C, symSize: 0xC0 }
  - { offset: 0x3EFA7, size: 0x8, addend: 0x0, symName: __RNCINvXsb_NtCse1nGBsou5OW_5alloc6stringNtB8_6StringINtNtNtNtCsfvfooZQ3Axs_4core4iter6traits7collect6ExtendcE6extendINtNtNtBU_8adapters3map3MapIB1Q_NtNtNtBW_3str4iter5CharsNCNvCs8sZPpv4WdDS_10pkg_config6envify0ENCB2L_s_0EE0B2N_, symObjAddr: 0xEC4, symBinAddr: 0x10001D248, symSize: 0x2C }
  - { offset: 0x3F06A, size: 0x8, addend: 0x0, symName: __RNvXss_NtCse1nGBsou5OW_5alloc6stringNtB5_6StringNtNtNtCsfvfooZQ3Axs_4core3ops5deref5Deref5derefCs8sZPpv4WdDS_10pkg_config, symObjAddr: 0x2EB4, symBinAddr: 0x10001EF70, symSize: 0x24 }
  - { offset: 0x3F09E, size: 0x8, addend: 0x0, symName: __RINvXsn_NtCse1nGBsou5OW_5alloc6stringNtB6_6StringNtNtCsfvfooZQ3Axs_4core4hash4Hash4hashNtNtNtCscOYdFFY2T5N_3std4hash6random13DefaultHasherECs8sZPpv4WdDS_10pkg_config, symObjAddr: 0xD78, symBinAddr: 0x10001D0FC, symSize: 0x88 }
  - { offset: 0x3F28B, size: 0x8, addend: 0x0, symName: __RNvXsJ_NtCse1nGBsou5OW_5alloc6stringNtB5_6StringINtNtCsfvfooZQ3Axs_4core7convert4FromReE4fromCs8sZPpv4WdDS_10pkg_config, symObjAddr: 0x28DC, symBinAddr: 0x10001EB64, symSize: 0x50 }
  - { offset: 0x3F39E, size: 0x8, addend: 0x0, symName: __RNvXs1K_NtCse1nGBsou5OW_5alloc6stringeNtB6_12SpecToString14spec_to_stringCs8sZPpv4WdDS_10pkg_config, symObjAddr: 0x262C, symBinAddr: 0x10001E8B4, symSize: 0x50 }
  - { offset: 0x3F4CF, size: 0x8, addend: 0x0, symName: __RNvXs1e_NtCse1nGBsou5OW_5alloc6stringNtB6_6StringNtNtCsfvfooZQ3Axs_4core3cmp9PartialEq2eqCs8sZPpv4WdDS_10pkg_config, symObjAddr: 0x2704, symBinAddr: 0x10001E98C, symSize: 0x2C }
  - { offset: 0x3F512, size: 0x8, addend: 0x0, symName: __RNvXs1j_NtCse1nGBsou5OW_5alloc6stringNtB6_13FromUtf8ErrorNtNtCsfvfooZQ3Axs_4core3fmt5Debug3fmtCs8sZPpv4WdDS_10pkg_config, symObjAddr: 0x2754, symBinAddr: 0x10001E9DC, symSize: 0x88 }
  - { offset: 0x3F555, size: 0x8, addend: 0x0, symName: __RNvXsG_NtCse1nGBsou5OW_5alloc6stringNtB5_6StringINtNtCsfvfooZQ3Axs_4core7convert5AsRefeE6as_refCs8sZPpv4WdDS_10pkg_config, symObjAddr: 0x28B8, symBinAddr: 0x10001EB40, symSize: 0x24 }
  - { offset: 0x3F5A7, size: 0x8, addend: 0x0, symName: __RNvXsl_NtCse1nGBsou5OW_5alloc6stringNtB5_6StringNtNtCsfvfooZQ3Axs_4core3fmt7Display3fmtCs8sZPpv4WdDS_10pkg_config, symObjAddr: 0x2C9C, symBinAddr: 0x10001ED58, symSize: 0x80 }
  - { offset: 0x3F70C, size: 0x8, addend: 0x0, symName: __RNvXsq_NtCse1nGBsou5OW_5alloc6stringNtB5_6StringINtNtNtCsfvfooZQ3Axs_4core3ops5index5IndexINtNtBP_5range5RangejEE5indexCs8sZPpv4WdDS_10pkg_config, symObjAddr: 0x2D1C, symBinAddr: 0x10001EDD8, symSize: 0x94 }
  - { offset: 0x3F856, size: 0x8, addend: 0x0, symName: __RNvXsq_NtCse1nGBsou5OW_5alloc6stringNtB5_6StringINtNtNtCsfvfooZQ3Axs_4core3ops5index5IndexINtNtBP_5range9RangeFromjEE5indexCs8sZPpv4WdDS_10pkg_config, symObjAddr: 0x2DB0, symBinAddr: 0x10001EE6C, symSize: 0x88 }
  - { offset: 0x3F9A0, size: 0x8, addend: 0x0, symName: __RNvXsq_NtCse1nGBsou5OW_5alloc6stringNtB5_6StringINtNtNtCsfvfooZQ3Axs_4core3ops5index5IndexNtNtBP_5range9RangeFullE5indexCs8sZPpv4WdDS_10pkg_config, symObjAddr: 0x2E38, symBinAddr: 0x10001EEF4, symSize: 0x7C }
  - { offset: 0x3FAF0, size: 0x8, addend: 0x0, symName: __RNvXsw_NtCse1nGBsou5OW_5alloc6stringeNtB5_8ToString9to_stringCs8sZPpv4WdDS_10pkg_config, symObjAddr: 0x2ED8, symBinAddr: 0x10001EF94, symSize: 0x28 }
  - { offset: 0x3FB33, size: 0x8, addend: 0x0, symName: __RINvMNtCse1nGBsou5OW_5alloc5sliceSNtNtB5_6string6String4joinReECs8sZPpv4WdDS_10pkg_config, symObjAddr: 0x0, symBinAddr: 0x10001C488, symSize: 0x34 }
  - { offset: 0x3FB82, size: 0x8, addend: 0x0, symName: __RINvMNtCse1nGBsou5OW_5alloc5sliceSNtNtB5_6string6String8into_vecNtNtB5_5alloc6GlobalECs8sZPpv4WdDS_10pkg_config, symObjAddr: 0x34, symBinAddr: 0x10001C4BC, symSize: 0x28 }
  - { offset: 0x4091C, size: 0x8, addend: 0x0, symName: __RNvXNvMsT_NtNtNtCse1nGBsou5OW_5alloc11collections5btree4nodeINtB8_6HandleINtB8_7NodeRefNtNtB8_6marker5DyingpppENtB1p_2KVE12drop_key_valINtB2_7DropperINtNtCsfvfooZQ3Axs_4core6option6OptionNtNtNtCscOYdFFY2T5N_3std3ffi6os_str8OsStringEENtNtNtB2s_3ops4drop4Drop4dropCs8sZPpv4WdDS_10pkg_config, symObjAddr: 0x25D4, symBinAddr: 0x10001E85C, symSize: 0x2C }
  - { offset: 0x40B28, size: 0x8, addend: 0x0, symName: __RNCINvMsm_NtNtNtCse1nGBsou5OW_5alloc11collections5btree8navigateINtNtBa_4node6HandleINtB13_7NodeRefNtNtB13_6marker5DyingNtNtNtCscOYdFFY2T5N_3std3ffi6os_str8OsStringINtNtCsfvfooZQ3Axs_4core6option6OptionB1U_ENtB1B_4LeafENtB1B_4EdgeE27deallocating_next_uncheckedNtNtBe_5alloc6GlobalE0Cs8sZPpv4WdDS_10pkg_config, symObjAddr: 0xE00, symBinAddr: 0x10001D184, symSize: 0x58 }
  - { offset: 0x40BAF, size: 0x8, addend: 0x0, symName: __RNCNvNtCse1nGBsou5OW_5alloc3fmt6format0Cs8sZPpv4WdDS_10pkg_config, symObjAddr: 0xEF0, symBinAddr: 0x10001D274, symSize: 0x48 }
  - { offset: 0x40BE0, size: 0x8, addend: 0x0, symName: __RNvNtCse1nGBsou5OW_5alloc3fmt6formatCs8sZPpv4WdDS_10pkg_config, symObjAddr: 0x1FA0, symBinAddr: 0x10001E22C, symSize: 0xD4 }
  - { offset: 0x40C46, size: 0x8, addend: 0x0, symName: __RNvXs0_NtCse1nGBsou5OW_5alloc3strNtNtB7_6string6StringINtNtCsfvfooZQ3Axs_4core6borrow6BorroweE6borrowCs8sZPpv4WdDS_10pkg_config, symObjAddr: 0x2600, symBinAddr: 0x10001E888, symSize: 0x2C }
  - { offset: 0x40CB6, size: 0x8, addend: 0x0, symName: __RNvXs_NtCse1nGBsou5OW_5alloc3strSNtNtB6_6string6StringINtNtB6_5slice4JoinReE4joinCs8sZPpv4WdDS_10pkg_config, symObjAddr: 0x2A0C, symBinAddr: 0x10001EC2C, symSize: 0x50 }
  - { offset: 0x41A64, size: 0x8, addend: 0x0, symName: __RNvXs5_NtNtCsfvfooZQ3Axs_4core3num5errorNtB5_15TryFromIntErrorNtNtB9_3fmt5Debug3fmtCs8sZPpv4WdDS_10pkg_config, symObjAddr: 0x2864, symBinAddr: 0x10001EAEC, symSize: 0x54 }
  - { offset: 0x41C12, size: 0x8, addend: 0x0, symName: __RNvNvXs5_NtNtCsfvfooZQ3Axs_4core3str6traitsINtNtNtBb_3ops5range5RangejEINtNtNtBb_5slice5index10SliceIndexeE13get_unchecked18precondition_checkCs8sZPpv4WdDS_10pkg_config, symObjAddr: 0x2498, symBinAddr: 0x10001E720, symSize: 0x60 }
  - { offset: 0x41C5D, size: 0x8, addend: 0x0, symName: __RNvXs2_NtNtCsfvfooZQ3Axs_4core3str6traitseINtNtNtB9_3ops5index5IndexINtNtBJ_5range7RangeTojEE5indexCs8sZPpv4WdDS_10pkg_config, symObjAddr: 0x27DC, symBinAddr: 0x10001EA64, symSize: 0x44 }
  - { offset: 0x41CA0, size: 0x8, addend: 0x0, symName: __RNvXs2_NtNtCsfvfooZQ3Axs_4core3str6traitseINtNtNtB9_3ops5index5IndexINtNtBJ_5range9RangeFromjEE5indexCs8sZPpv4WdDS_10pkg_config, symObjAddr: 0x2820, symBinAddr: 0x10001EAA8, symSize: 0x44 }
  - { offset: 0x41CE9, size: 0x8, addend: 0x0, symName: __RNvXs_NtNtCsfvfooZQ3Axs_4core3str6traitseNtNtB8_3cmp9PartialEq2eqCs8sZPpv4WdDS_10pkg_config, symObjAddr: 0x2A5C, symBinAddr: 0x10001EC7C, symSize: 0x64 }
  - { offset: 0x4329B, size: 0x8, addend: 0x0, symName: __RNvXs1c_NtCsfvfooZQ3Axs_4core3fmtRNtNtCse1nGBsou5OW_5alloc6string6StringNtB6_7Display3fmtCs8sZPpv4WdDS_10pkg_config, symObjAddr: 0x26D4, symBinAddr: 0x10001E95C, symSize: 0x30 }
  - { offset: 0x43675, size: 0x8, addend: 0x0, symName: __RNvNvNtCsfvfooZQ3Axs_4core10intrinsics19copy_nonoverlapping18precondition_checkCs8sZPpv4WdDS_10pkg_config, symObjAddr: 0x21B4, symBinAddr: 0x10001E43C, symSize: 0x2E4 }
  - { offset: 0x438F8, size: 0x8, addend: 0x0, symName: __RINvNtNtNtCsfvfooZQ3Axs_4core9core_arch10arm_shared4neon13vget_lane_u64Kl0_ECs8sZPpv4WdDS_10pkg_config, symObjAddr: 0xBD0, symBinAddr: 0x10001CF54, symSize: 0x18 }
  - { offset: 0x43972, size: 0x8, addend: 0x0, symName: __RNvNtNtNtCsfvfooZQ3Axs_4core9core_arch10arm_shared4neon9vdup_n_u8Cs8sZPpv4WdDS_10pkg_config, symObjAddr: 0x2078, symBinAddr: 0x10001E300, symSize: 0x34 }
  - { offset: 0x439FB, size: 0x8, addend: 0x0, symName: __RINvXs3_NtNtCsfvfooZQ3Axs_4core4hash5implsRNtNtCse1nGBsou5OW_5alloc6string6StringNtB8_4Hash4hashNtNtNtCscOYdFFY2T5N_3std4hash6random13DefaultHasherECs8sZPpv4WdDS_10pkg_config, symObjAddr: 0xBE8, symBinAddr: 0x10001CF6C, symSize: 0x30 }
  - { offset: 0x43CDA, size: 0x8, addend: 0x0, symName: __RNCNvXsd_NtNtCsfvfooZQ3Axs_4core5slice3cmpReNtB7_13SliceContains14slice_contains0Cs8sZPpv4WdDS_10pkg_config, symObjAddr: 0xF38, symBinAddr: 0x10001D2BC, symSize: 0x38 }
  - { offset: 0x43D21, size: 0x8, addend: 0x0, symName: __RNvXsd_NtNtCsfvfooZQ3Axs_4core5slice3cmpReNtB5_13SliceContains14slice_containsCs8sZPpv4WdDS_10pkg_config, symObjAddr: 0x2C24, symBinAddr: 0x10001ECE0, symSize: 0x78 }
  - { offset: 0x44029, size: 0x8, addend: 0x0, symName: __RNvMNtCsfvfooZQ3Axs_4core5sliceSNtNtCse1nGBsou5OW_5alloc6string6String4iterCs8sZPpv4WdDS_10pkg_config, symObjAddr: 0x12D8, symBinAddr: 0x10001D65C, symSize: 0x28 }
  - { offset: 0x44060, size: 0x8, addend: 0x0, symName: __RNvMNtCsfvfooZQ3Axs_4core5sliceSRe8containsCs8sZPpv4WdDS_10pkg_config, symObjAddr: 0x1328, symBinAddr: 0x10001D684, symSize: 0x48 }
  - { offset: 0x4415F, size: 0x8, addend: 0x0, symName: __RNvNvMNtCsfvfooZQ3Axs_4core5sliceSp22split_at_mut_unchecked18precondition_checkCs8sZPpv4WdDS_10pkg_config, symObjAddr: 0x2174, symBinAddr: 0x10001E3FC, symSize: 0x40 }
  - { offset: 0x443E6, size: 0x8, addend: 0x0, symName: __RNvXNtCsfvfooZQ3Axs_4core7convertRNtNtCse1nGBsou5OW_5alloc6string6StringINtB2_5AsRefNtNtCscOYdFFY2T5N_3std4path4PathE6as_refCs8sZPpv4WdDS_10pkg_config, symObjAddr: 0x255C, symBinAddr: 0x10001E7E4, symSize: 0x28 }
  - { offset: 0x44426, size: 0x8, addend: 0x0, symName: __RNvXNtCsfvfooZQ3Axs_4core7convertRNtNtCse1nGBsou5OW_5alloc6string6StringINtB2_5AsRefNtNtNtCscOYdFFY2T5N_3std3ffi6os_str5OsStrE6as_refCs8sZPpv4WdDS_10pkg_config, symObjAddr: 0x2584, symBinAddr: 0x10001E80C, symSize: 0x28 }
  - { offset: 0x44466, size: 0x8, addend: 0x0, symName: __RNvXNtCsfvfooZQ3Axs_4core7convertRRNtNtCse1nGBsou5OW_5alloc6string6StringINtB2_5AsRefNtNtCscOYdFFY2T5N_3std4path4PathE6as_refCs8sZPpv4WdDS_10pkg_config, symObjAddr: 0x25AC, symBinAddr: 0x10001E834, symSize: 0x28 }
  - { offset: 0x446FF, size: 0x8, addend: 0x0, symName: __RNvXNtCsfvfooZQ3Axs_4core6borrowNtNtCse1nGBsou5OW_5alloc6string6StringINtB2_6BorrowBu_E6borrowCs8sZPpv4WdDS_10pkg_config, symObjAddr: 0x2548, symBinAddr: 0x10001E7D0, symSize: 0x14 }
  - { offset: 0x44808, size: 0x8, addend: 0x0, symName: __RNvYNtNtNtNtNtCscOYdFFY2T5N_3std3sys3pal4unix5stdio6StderrNtNtBc_2io5Write9write_allCs8sZPpv4WdDS_10pkg_config, symObjAddr: 0x2F24, symBinAddr: 0x10001EFBC, symSize: 0x180 }
  - { offset: 0x448A9, size: 0x8, addend: 0x0, symName: __RNvYNtNtNtNtNtCscOYdFFY2T5N_3std3sys3pal4unix5stdio6StderrNtNtBc_2io5Write9write_fmtCs8sZPpv4WdDS_10pkg_config, symObjAddr: 0x30A4, symBinAddr: 0x10001F13C, symSize: 0x128 }
  - { offset: 0x44E18, size: 0x8, addend: 0x0, symName: __RNvNtNtNtNtCscOYdFFY2T5N_3std3sys3pal4unix2fs23debug_assert_fd_is_openCs8sZPpv4WdDS_10pkg_config, symObjAddr: 0x20AC, symBinAddr: 0x10001E334, symSize: 0xC8 }
  - { offset: 0x45061, size: 0x8, addend: 0x0, symName: __RNvXsX_NtNtCscOYdFFY2T5N_3std3ffi6os_strNtNtCse1nGBsou5OW_5alloc6string6StringINtNtCsfvfooZQ3Axs_4core7convert5AsRefNtB5_5OsStrE6as_refCs8sZPpv4WdDS_10pkg_config, symObjAddr: 0x2994, symBinAddr: 0x10001EBB4, symSize: 0x78 }
  - { offset: 0x4526D, size: 0x8, addend: 0x0, symName: __RNvXs1i_NtCscOYdFFY2T5N_3std4pathNtNtCse1nGBsou5OW_5alloc6string6StringINtNtCsfvfooZQ3Axs_4core7convert5AsRefNtB6_4PathE6as_refCs8sZPpv4WdDS_10pkg_config, symObjAddr: 0x2730, symBinAddr: 0x10001E9B8, symSize: 0x24 }
  - { offset: 0x4546E, size: 0x8, addend: 0x0, symName: __RINvMs_NtNtCsfvfooZQ3Axs_4core3fmt2rtNtB5_8Argument11new_displayINtNtCse1nGBsou5OW_5alloc6borrow3CoweEECs8sZPpv4WdDS_10pkg_config, symObjAddr: 0x5C, symBinAddr: 0x10001C4E4, symSize: 0x2C }
  - { offset: 0x456B4, size: 0x8, addend: 0x0, symName: __RINvMs_NtNtCsfvfooZQ3Axs_4core3fmt2rtNtB5_8Argument11new_displayNtCs8sZPpv4WdDS_10pkg_config14WrappedCommandEB12_, symObjAddr: 0x88, symBinAddr: 0x10001C510, symSize: 0x2C }
  - { offset: 0x45768, size: 0x8, addend: 0x0, symName: __RINvMs_NtNtCsfvfooZQ3Axs_4core3fmt2rtNtB5_8Argument11new_displayNtNtCscOYdFFY2T5N_3std4path7DisplayECs8sZPpv4WdDS_10pkg_config, symObjAddr: 0xB4, symBinAddr: 0x10001C53C, symSize: 0x2C }
  - { offset: 0x4581F, size: 0x8, addend: 0x0, symName: __RINvMs_NtNtCsfvfooZQ3Axs_4core3fmt2rtNtB5_8Argument11new_displayNtNtCse1nGBsou5OW_5alloc6string6StringECs8sZPpv4WdDS_10pkg_config, symObjAddr: 0x10C, symBinAddr: 0x10001C568, symSize: 0x2C }
  - { offset: 0x458AC, size: 0x8, addend: 0x0, symName: __RINvMs_NtNtCsfvfooZQ3Axs_4core3fmt2rtNtB5_8Argument11new_displayRNtNtCse1nGBsou5OW_5alloc6string6StringECs8sZPpv4WdDS_10pkg_config, symObjAddr: 0x138, symBinAddr: 0x10001C594, symSize: 0x2C }
  - { offset: 0x4599A, size: 0x8, addend: 0x0, symName: __RINvMs_NtNtCsfvfooZQ3Axs_4core3fmt2rtNtB5_8Argument11new_displayReECs8sZPpv4WdDS_10pkg_config, symObjAddr: 0x1BC, symBinAddr: 0x10001C5C0, symSize: 0x2C }
  - { offset: 0x45A51, size: 0x8, addend: 0x0, symName: __RINvMs_NtNtCsfvfooZQ3Axs_4core3fmt2rtNtB5_8Argument9new_debugNtNtNtCscOYdFFY2T5N_3std3ffi6os_str8OsStringECs8sZPpv4WdDS_10pkg_config, symObjAddr: 0x214, symBinAddr: 0x10001C5EC, symSize: 0x2C }
  - { offset: 0x45AE2, size: 0x8, addend: 0x0, symName: __RINvMsb_NtNtNtCse1nGBsou5OW_5alloc11collections5btree8navigateINtB6_13LazyLeafRangeNtNtNtB8_4node6marker5DyingNtNtNtCscOYdFFY2T5N_3std3ffi6os_str8OsStringINtNtCsfvfooZQ3Axs_4core6option6OptionB1K_EE16deallocating_endNtNtBc_5alloc6GlobalECs8sZPpv4WdDS_10pkg_config, symObjAddr: 0x240, symBinAddr: 0x10001C618, symSize: 0xA8 }
  - { offset: 0x45BC1, size: 0x8, addend: 0x0, symName: __RINvMsb_NtNtNtCse1nGBsou5OW_5alloc11collections5btree8navigateINtB6_13LazyLeafRangeNtNtNtB8_4node6marker5DyingNtNtNtCscOYdFFY2T5N_3std3ffi6os_str8OsStringINtNtCsfvfooZQ3Axs_4core6option6OptionB1K_EE27deallocating_next_uncheckedNtNtBc_5alloc6GlobalECs8sZPpv4WdDS_10pkg_config, symObjAddr: 0x2E8, symBinAddr: 0x10001C6C0, symSize: 0xA8 }
  - { offset: 0x45D4C, size: 0x8, addend: 0x0, symName: __RINvMsh_NtNtNtCse1nGBsou5OW_5alloc11collections5btree4nodeINtB6_7NodeRefNtNtB6_6marker5DyingNtNtNtCscOYdFFY2T5N_3std3ffi6os_str8OsStringINtNtCsfvfooZQ3Axs_4core6option6OptionB1s_ENtB1a_14LeafOrInternalE21deallocate_and_ascendNtNtBc_5alloc6GlobalECs8sZPpv4WdDS_10pkg_config, symObjAddr: 0x390, symBinAddr: 0x10001C768, symSize: 0x178 }
  - { offset: 0x45F74, size: 0x8, addend: 0x0, symName: __RINvMsj_NtNtNtCse1nGBsou5OW_5alloc11collections5btree8navigateINtNtB8_4node6HandleINtB11_7NodeRefNtNtB11_6marker5DyingNtNtNtCscOYdFFY2T5N_3std3ffi6os_str8OsStringINtNtCsfvfooZQ3Axs_4core6option6OptionB1S_ENtB1z_4LeafENtB1z_4EdgeE16deallocating_endNtNtBc_5alloc6GlobalECs8sZPpv4WdDS_10pkg_config, symObjAddr: 0x508, symBinAddr: 0x10001C8E0, symSize: 0xD8 }
  - { offset: 0x461F5, size: 0x8, addend: 0x0, symName: __RINvMsj_NtNtNtCse1nGBsou5OW_5alloc11collections5btree8navigateINtNtB8_4node6HandleINtB11_7NodeRefNtNtB11_6marker5DyingNtNtNtCscOYdFFY2T5N_3std3ffi6os_str8OsStringINtNtCsfvfooZQ3Axs_4core6option6OptionB1S_ENtB1z_4LeafENtB1z_4EdgeE17deallocating_nextNtNtBc_5alloc6GlobalECs8sZPpv4WdDS_10pkg_config, symObjAddr: 0x5E0, symBinAddr: 0x10001C9B8, symSize: 0x254 }
  - { offset: 0x463DC, size: 0x8, addend: 0x0, symName: __RINvMsk_NtCscOYdFFY2T5N_3std7processNtB6_7Command3argRNtNtNtB8_3ffi6os_str5OsStrECs8sZPpv4WdDS_10pkg_config, symObjAddr: 0x834, symBinAddr: 0x10001CC0C, symSize: 0x70 }
  - { offset: 0x46444, size: 0x8, addend: 0x0, symName: __RINvMsk_NtCscOYdFFY2T5N_3std7processNtB6_7Command3envRNtNtNtB8_3ffi6os_str5OsStrBP_ECs8sZPpv4WdDS_10pkg_config, symObjAddr: 0x8A4, symBinAddr: 0x10001CC7C, symSize: 0xA4 }
  - { offset: 0x464B5, size: 0x8, addend: 0x0, symName: __RINvMsk_NtCscOYdFFY2T5N_3std7processNtB6_7Command3newRNtNtNtB8_3ffi6os_str5OsStrECs8sZPpv4WdDS_10pkg_config, symObjAddr: 0x948, symBinAddr: 0x10001CD20, symSize: 0x84 }
  - { offset: 0x464EE, size: 0x8, addend: 0x0, symName: __RINvMsk_NtCscOYdFFY2T5N_3std7processNtB6_7Command4argsRINtNtCse1nGBsou5OW_5alloc3vec3VecNtNtNtB8_3ffi6os_str8OsStringERB1o_ECs8sZPpv4WdDS_10pkg_config, symObjAddr: 0x9CC, symBinAddr: 0x10001CDA4, symSize: 0xD4 }
  - { offset: 0x46585, size: 0x8, addend: 0x0, symName: __RINvMsk_NtCscOYdFFY2T5N_3std7processNtB6_7Command4argsRSReRBS_ECs8sZPpv4WdDS_10pkg_config, symObjAddr: 0xAA0, symBinAddr: 0x10001CE78, symSize: 0xDC }
  - { offset: 0x467CF, size: 0x8, addend: 0x0, symName: __RNCINvNtCsloNvcHxBCre_9hashbrown3map11make_hasherNtNtCse1nGBsou5OW_5alloc6string6StringINtNtCsfvfooZQ3Axs_4core6option6OptionBL_ENtNtNtCscOYdFFY2T5N_3std4hash6random11RandomStateE0Cs8sZPpv4WdDS_10pkg_config, symObjAddr: 0xE58, symBinAddr: 0x10001D1DC, symSize: 0x3C }
  - { offset: 0x46851, size: 0x8, addend: 0x0, symName: __RNCINvNtCsloNvcHxBCre_9hashbrown3map14equivalent_keyNtNtCse1nGBsou5OW_5alloc6string6StringBO_INtNtCsfvfooZQ3Axs_4core6option6OptionBO_EE0Cs8sZPpv4WdDS_10pkg_config, symObjAddr: 0xE94, symBinAddr: 0x10001D218, symSize: 0x30 }
  - { offset: 0x46B1C, size: 0x8, addend: 0x0, symName: __RNvXCsloNvcHxBCre_9hashbrownNtNtCse1nGBsou5OW_5alloc6string6StringINtB2_10EquivalentBq_E10equivalentCs8sZPpv4WdDS_10pkg_config, symObjAddr: 0x24F8, symBinAddr: 0x10001E780, symSize: 0x50 }
  - { offset: 0x46B98, size: 0x8, addend: 0x0, symName: __RNvXs1_NtCsloNvcHxBCre_9hashbrown10scopeguardINtB5_10ScopeGuardNtNtB7_3raw13RawTableInnerNCINvMsa_B11_BZ_14prepare_resizeNtNtCse1nGBsou5OW_5alloc5alloc6GlobalE0ENtNtNtCsfvfooZQ3Axs_4core3ops4drop4Drop4dropCs8sZPpv4WdDS_10pkg_config, symObjAddr: 0x267C, symBinAddr: 0x10001E904, symSize: 0x2C }
  - { offset: 0x46BD2, size: 0x8, addend: 0x0, symName: __RNvXs1_NtCsloNvcHxBCre_9hashbrown10scopeguardINtB5_10ScopeGuardQNtNtB7_3raw13RawTableInnerNCNvMsa_B12_B10_15rehash_in_place0ENtNtNtCsfvfooZQ3Axs_4core3ops4drop4Drop4dropCs8sZPpv4WdDS_10pkg_config, symObjAddr: 0x26A8, symBinAddr: 0x10001E930, symSize: 0x2C }
  - { offset: 0x46C9B, size: 0x8, addend: 0x0, symName: __RNvMNtCse1nGBsou5OW_5alloc6stringNtB2_6String3lenCs8sZPpv4WdDS_10pkg_config, symObjAddr: 0xF70, symBinAddr: 0x10001D2F4, symSize: 0x18 }
  - { offset: 0x46CE3, size: 0x8, addend: 0x0, symName: __RNvMNtCse1nGBsou5OW_5alloc6stringNtB2_6String3newCs8sZPpv4WdDS_10pkg_config, symObjAddr: 0xF88, symBinAddr: 0x10001D30C, symSize: 0x30 }
  - { offset: 0x46E53, size: 0x8, addend: 0x0, symName: __RNvMNtCse1nGBsou5OW_5alloc6stringNtB2_6String4pushCs8sZPpv4WdDS_10pkg_config, symObjAddr: 0xFB8, symBinAddr: 0x10001D33C, symSize: 0x100 }
  - { offset: 0x470D2, size: 0x8, addend: 0x0, symName: __RNvMNtCse1nGBsou5OW_5alloc6stringNtB2_6String6as_strCs8sZPpv4WdDS_10pkg_config, symObjAddr: 0x10B8, symBinAddr: 0x10001D43C, symSize: 0x70 }
  - { offset: 0x472AE, size: 0x8, addend: 0x0, symName: __RNvMNtCse1nGBsou5OW_5alloc6stringNtB2_6String8push_strCs8sZPpv4WdDS_10pkg_config, symObjAddr: 0x1128, symBinAddr: 0x10001D4AC, symSize: 0x60 }
  - { offset: 0x474BB, size: 0x8, addend: 0x0, symName: __RNvMNtCse1nGBsou5OW_5alloc6stringNtB2_6String9from_utf8Cs8sZPpv4WdDS_10pkg_config, symObjAddr: 0x1188, symBinAddr: 0x10001D50C, symSize: 0x150 }
  - { offset: 0x476D7, size: 0x8, addend: 0x0, symName: __RNvMs1_NtCsloNvcHxBCre_9hashbrown3mapINtB5_7HashMapNtNtCse1nGBsou5OW_5alloc6string6StringINtNtCsfvfooZQ3Axs_4core6option6OptionBN_ENtNtNtCscOYdFFY2T5N_3std4hash6random11RandomStateE6insertCs8sZPpv4WdDS_10pkg_config, symObjAddr: 0x13C0, symBinAddr: 0x10001D6CC, symSize: 0x234 }
  - { offset: 0x4795E, size: 0x8, addend: 0x0, symName: __RNvMsC_NtCscOYdFFY2T5N_3std7processNtB5_10ExitStatus7successCs8sZPpv4WdDS_10pkg_config, symObjAddr: 0x1674, symBinAddr: 0x10001D900, symSize: 0x70 }
  - { offset: 0x47AF3, size: 0x8, addend: 0x0, symName: __RNvMsO_NtNtNtCse1nGBsou5OW_5alloc11collections5btree4nodeINtB5_6HandleINtB5_7NodeRefNtNtB5_6marker5DyingNtNtNtCscOYdFFY2T5N_3std3ffi6os_str8OsStringINtNtCsfvfooZQ3Axs_4core6option6OptionB1E_ENtB1m_8InternalENtB1m_4EdgeE7descendCs8sZPpv4WdDS_10pkg_config, symObjAddr: 0x16E4, symBinAddr: 0x10001D970, symSize: 0x94 }
  - { offset: 0x47DF8, size: 0x8, addend: 0x0, symName: __RNvMsT_NtNtNtCse1nGBsou5OW_5alloc11collections5btree4nodeINtB5_6HandleINtB5_7NodeRefNtNtB5_6marker5DyingNtNtNtCscOYdFFY2T5N_3std3ffi6os_str8OsStringINtNtCsfvfooZQ3Axs_4core6option6OptionB1E_ENtB1m_14LeafOrInternalENtB1m_2KVE12drop_key_valCs8sZPpv4WdDS_10pkg_config, symObjAddr: 0x1778, symBinAddr: 0x10001DA04, symSize: 0x128 }
  - { offset: 0x48189, size: 0x8, addend: 0x0, symName: __RNvMsb_NtNtNtCse1nGBsou5OW_5alloc11collections5btree8navigateINtB5_13LazyLeafRangeNtNtNtB7_4node6marker5DyingNtNtNtCscOYdFFY2T5N_3std3ffi6os_str8OsStringINtNtCsfvfooZQ3Axs_4core6option6OptionB1J_EE10take_frontCs8sZPpv4WdDS_10pkg_config, symObjAddr: 0x18A0, symBinAddr: 0x10001DB2C, symSize: 0x1C4 }
  - { offset: 0x48512, size: 0x8, addend: 0x0, symName: __RNvMsc_NtNtNtCse1nGBsou5OW_5alloc11collections5btree8navigateINtB5_13LazyLeafRangeNtNtNtB7_4node6marker5DyingNtNtNtCscOYdFFY2T5N_3std3ffi6os_str8OsStringINtNtCsfvfooZQ3Axs_4core6option6OptionB1J_EE10init_frontCs8sZPpv4WdDS_10pkg_config, symObjAddr: 0x1A64, symBinAddr: 0x10001DCF0, symSize: 0x1C4 }
  - { offset: 0x487B8, size: 0x8, addend: 0x0, symName: __RNvMse_NtNtNtCse1nGBsou5OW_5alloc11collections5btree4nodeINtB5_7NodeRefNtNtB5_6marker5DyingNtNtNtCscOYdFFY2T5N_3std3ffi6os_str8OsStringINtNtCsfvfooZQ3Axs_4core6option6OptionB1r_ENtB19_14LeafOrInternalE6ascendCs8sZPpv4WdDS_10pkg_config, symObjAddr: 0x1C28, symBinAddr: 0x10001DEB4, symSize: 0x168 }
  - { offset: 0x48B24, size: 0x8, addend: 0x0, symName: __RNvMsp_NtNtNtCse1nGBsou5OW_5alloc11collections5btree8navigateINtNtB7_4node6HandleINtB10_7NodeRefNtNtB10_6marker5DyingNtNtNtCscOYdFFY2T5N_3std3ffi6os_str8OsStringINtNtCsfvfooZQ3Axs_4core6option6OptionB1R_ENtB1y_14LeafOrInternalENtB1y_2KVE14next_leaf_edgeCs8sZPpv4WdDS_10pkg_config, symObjAddr: 0x1D90, symBinAddr: 0x10001E01C, symSize: 0x210 }
  - { offset: 0x494F1, size: 0x8, addend: 0x0, symName: __RINvMNtCsfvfooZQ3Axs_4core6optionINtB3_6OptionNtNtNtCscOYdFFY2T5N_3std3ffi6os_str8OsStringE14unwrap_or_elseNCNvMs3_Cs8sZPpv4WdDS_10pkg_configNtB1P_6Config3run0EB1P_, symObjAddr: 0x0, symBinAddr: 0x10001F264, symSize: 0x70 }
  - { offset: 0x49780, size: 0x8, addend: 0x0, symName: __RNvXs1a_NtCsfvfooZQ3Axs_4core3fmtRINtNtB8_6option6OptionhENtB6_5Debug3fmtCs8sZPpv4WdDS_10pkg_config, symObjAddr: 0x23EC, symBinAddr: 0x1000210A8, symSize: 0x30 }
  - { offset: 0x49CDA, size: 0x8, addend: 0x0, symName: __RNvXsB_NtCsfvfooZQ3Axs_4core6optionINtB5_6OptionjENtNtNtB7_3ops9try_trait3Try11from_outputCs8sZPpv4WdDS_10pkg_config, symObjAddr: 0x2570, symBinAddr: 0x1000211FC, symSize: 0x24 }
  - { offset: 0x49D11, size: 0x8, addend: 0x0, symName: __RNvXsB_NtCsfvfooZQ3Axs_4core6optionINtB5_6OptionjENtNtNtB7_3ops9try_trait3Try6branchCs8sZPpv4WdDS_10pkg_config, symObjAddr: 0x2594, symBinAddr: 0x100021220, symSize: 0x48 }
  - { offset: 0x49E7C, size: 0x8, addend: 0x0, symName: __RNvXsC_NtCsfvfooZQ3Axs_4core6optionINtB5_6OptionjEINtNtNtB7_3ops9try_trait12FromResidualIBy_NtNtB7_7convert10InfallibleEE13from_residualCs8sZPpv4WdDS_10pkg_config, symObjAddr: 0x25DC, symBinAddr: 0x100021268, symSize: 0x18 }
  - { offset: 0x49F98, size: 0x8, addend: 0x0, symName: __RNvXsI_NtCsfvfooZQ3Axs_4core6optionINtB5_6OptionhENtNtB7_3fmt5Debug3fmtCs8sZPpv4WdDS_10pkg_config, symObjAddr: 0x2728, symBinAddr: 0x1000213B4, symSize: 0x98 }
  - { offset: 0x4A240, size: 0x8, addend: 0x0, symName: __RINvNtCsfvfooZQ3Axs_4core3ptr14read_unalignedNtNtNtNtB4_9core_arch10arm_shared4neon9uint8x8_tECs8sZPpv4WdDS_10pkg_config, symObjAddr: 0x608, symBinAddr: 0x10001F808, symSize: 0x8C }
  - { offset: 0x4A314, size: 0x8, addend: 0x0, symName: __RINvNtCsfvfooZQ3Axs_4core3ptr15write_unalignedNtNtNtNtB4_9core_arch10arm_shared4neon9uint8x8_tECs8sZPpv4WdDS_10pkg_config, symObjAddr: 0x694, symBinAddr: 0x10001F894, symSize: 0x70 }
  - { offset: 0x4A46D, size: 0x8, addend: 0x0, symName: __RINvNvNtCsfvfooZQ3Axs_4core3ptr19swap_nonoverlapping7runtimehECs8sZPpv4WdDS_10pkg_config, symObjAddr: 0xCC8, symBinAddr: 0x10001FD44, symSize: 0x1B4 }
  - { offset: 0x4AD7A, size: 0x8, addend: 0x0, symName: __RNvNvNtCsfvfooZQ3Axs_4core3ptr13read_volatile18precondition_checkCs8sZPpv4WdDS_10pkg_config, symObjAddr: 0x1B14, symBinAddr: 0x100020AD0, symSize: 0x100 }
  - { offset: 0x4AE8F, size: 0x8, addend: 0x0, symName: __RNvNvNtCsfvfooZQ3Axs_4core3ptr7replace18precondition_checkCs8sZPpv4WdDS_10pkg_config, symObjAddr: 0x1F14, symBinAddr: 0x100020BD0, symSize: 0x100 }
  - { offset: 0x4B0A1, size: 0x8, addend: 0x0, symName: __RNvMs9_NtCsfvfooZQ3Axs_4core3numj11checked_addCs8sZPpv4WdDS_10pkg_config, symObjAddr: 0x1698, symBinAddr: 0x100020654, symSize: 0x74 }
  - { offset: 0x4B12B, size: 0x8, addend: 0x0, symName: __RNvNvMs9_NtCsfvfooZQ3Axs_4core3numj13unchecked_add18precondition_checkCs8sZPpv4WdDS_10pkg_config, symObjAddr: 0x1A90, symBinAddr: 0x100020A4C, symSize: 0x44 }
  - { offset: 0x4B18D, size: 0x8, addend: 0x0, symName: __RNvNvMs9_NtCsfvfooZQ3Axs_4core3numj13unchecked_sub18precondition_checkCs8sZPpv4WdDS_10pkg_config, symObjAddr: 0x1AD4, symBinAddr: 0x100020A90, symSize: 0x40 }
  - { offset: 0x4B348, size: 0x8, addend: 0x0, symName: __RNvNvMs3_NtCsfvfooZQ3Axs_4core3numi13unchecked_neg18precondition_checkCs8sZPpv4WdDS_10pkg_config, symObjAddr: 0x1A44, symBinAddr: 0x100020A00, symSize: 0x4C }
  - { offset: 0x4B86D, size: 0x8, addend: 0x0, symName: __RNvNtNtNtNtCsfvfooZQ3Axs_4core9core_arch10arm_shared4neon9generated18vreinterpret_s8_u8Cs8sZPpv4WdDS_10pkg_config, symObjAddr: 0x1934, symBinAddr: 0x1000208F0, symSize: 0xC }
  - { offset: 0x4B89B, size: 0x8, addend: 0x0, symName: __RNvNtNtNtNtCsfvfooZQ3Axs_4core9core_arch10arm_shared4neon9generated19vreinterpret_u64_u8Cs8sZPpv4WdDS_10pkg_config, symObjAddr: 0x1940, symBinAddr: 0x1000208FC, symSize: 0xC }
  - { offset: 0x4B8C9, size: 0x8, addend: 0x0, symName: __RNvNtNtNtNtCsfvfooZQ3Axs_4core9core_arch10arm_shared4neon9generated7vceq_u8Cs8sZPpv4WdDS_10pkg_config, symObjAddr: 0x194C, symBinAddr: 0x100020908, symSize: 0x14 }
  - { offset: 0x4B906, size: 0x8, addend: 0x0, symName: __RNvNtNtNtNtCsfvfooZQ3Axs_4core9core_arch10arm_shared4neon9generated7vorr_u8Cs8sZPpv4WdDS_10pkg_config, symObjAddr: 0x1960, symBinAddr: 0x10002091C, symSize: 0x14 }
  - { offset: 0x4B9D2, size: 0x8, addend: 0x0, symName: __RNvNtNtNtNtCsfvfooZQ3Axs_4core9core_arch7aarch644neon9generated8vcgez_s8Cs8sZPpv4WdDS_10pkg_config, symObjAddr: 0x1974, symBinAddr: 0x100020930, symSize: 0x68 }
  - { offset: 0x4BA74, size: 0x8, addend: 0x0, symName: __RNvNtNtNtNtCsfvfooZQ3Axs_4core9core_arch7aarch644neon9generated8vcltz_s8Cs8sZPpv4WdDS_10pkg_config, symObjAddr: 0x19DC, symBinAddr: 0x100020998, symSize: 0x68 }
  - { offset: 0x4BC66, size: 0x8, addend: 0x0, symName: __RINvNtNtCsfvfooZQ3Axs_4core3str11validations15next_code_pointINtNtNtB6_5slice4iter4IterhEECs8sZPpv4WdDS_10pkg_config, symObjAddr: 0x76C, symBinAddr: 0x10001F904, symSize: 0x20C }
  - { offset: 0x4BF20, size: 0x8, addend: 0x0, symName: __RINvNtNtCsfvfooZQ3Axs_4core3str11validations23next_code_point_reverseINtNtNtB6_5slice4iter4IterhEECs8sZPpv4WdDS_10pkg_config, symObjAddr: 0x978, symBinAddr: 0x10001FB10, symSize: 0x234 }
  - { offset: 0x4C325, size: 0x8, addend: 0x0, symName: __RINvYINtNtNtCse1nGBsou5OW_5alloc3vec9into_iter8IntoIterReENtNtNtNtCsfvfooZQ3Axs_4core4iter6traits8iterator8Iterator3mapNtNtBa_6string6StringNvYB1T_INtNtB12_7convert4FromBR_E4fromECs8sZPpv4WdDS_10pkg_config, symObjAddr: 0xFA0, symBinAddr: 0x10002001C, symSize: 0x1C }
  - { offset: 0x4C3E8, size: 0x8, addend: 0x0, symName: __RNvYINtNtNtCse1nGBsou5OW_5alloc3vec9into_iter8IntoIterReENtNtNtNtCsfvfooZQ3Axs_4core4iter6traits10exact_size17ExactSizeIterator3lenCs8sZPpv4WdDS_10pkg_config, symObjAddr: 0x286C, symBinAddr: 0x1000214F8, symSize: 0xF4 }
  - { offset: 0x4C4E8, size: 0x8, addend: 0x0, symName: __RNvXsF_NtNtCsfvfooZQ3Axs_4core4iter5rangejNtB5_4Step13steps_betweenCs8sZPpv4WdDS_10pkg_config, symObjAddr: 0x25F4, symBinAddr: 0x100021280, symSize: 0xA4 }
  - { offset: 0x4C543, size: 0x8, addend: 0x0, symName: __RNvXsF_NtNtCsfvfooZQ3Axs_4core4iter5rangejNtB5_4Step17forward_uncheckedCs8sZPpv4WdDS_10pkg_config, symObjAddr: 0x2698, symBinAddr: 0x100021324, symSize: 0x48 }
  - { offset: 0x4C5A2, size: 0x8, addend: 0x0, symName: __RNvXsF_NtNtCsfvfooZQ3Axs_4core4iter5rangejNtB5_4Step18backward_uncheckedCs8sZPpv4WdDS_10pkg_config, symObjAddr: 0x26E0, symBinAddr: 0x10002136C, symSize: 0x48 }
  - { offset: 0x4C65C, size: 0x8, addend: 0x0, symName: __RNvMNtCsfvfooZQ3Axs_4core5sliceSINtNtNtB4_3mem12maybe_uninit11MaybeUninithE15copy_from_sliceCs8sZPpv4WdDS_10pkg_config, symObjAddr: 0xFBC, symBinAddr: 0x100020038, symSize: 0xA4 }
  - { offset: 0x4C727, size: 0x8, addend: 0x0, symName: __RNvMNtCsfvfooZQ3Axs_4core5sliceSINtNtNtB4_3mem12maybe_uninit11MaybeUninithE22split_at_mut_uncheckedCs8sZPpv4WdDS_10pkg_config, symObjAddr: 0x1060, symBinAddr: 0x1000200DC, symSize: 0xE8 }
  - { offset: 0x4C948, size: 0x8, addend: 0x0, symName: __RNvNvNtNtCsfvfooZQ3Axs_4core5slice3raw14from_raw_parts18precondition_checkCs8sZPpv4WdDS_10pkg_config, symObjAddr: 0x2014, symBinAddr: 0x100020CD0, symSize: 0x168 }
  - { offset: 0x4CA8E, size: 0x8, addend: 0x0, symName: __RNvNvNtNtCsfvfooZQ3Axs_4core5slice3raw18from_raw_parts_mut18precondition_checkCs8sZPpv4WdDS_10pkg_config, symObjAddr: 0x217C, symBinAddr: 0x100020E38, symSize: 0x168 }
  - { offset: 0x4CCED, size: 0x8, addend: 0x0, symName: __RNvMNtNtCsfvfooZQ3Axs_4core4char7methodsc18to_ascii_uppercaseCs8sZPpv4WdDS_10pkg_config, symObjAddr: 0x124C, symBinAddr: 0x1000202C8, symSize: 0x80 }
  - { offset: 0x4CDA2, size: 0x8, addend: 0x0, symName: __RNvNtNtCsfvfooZQ3Axs_4core4char7methods15encode_utf8_rawCs8sZPpv4WdDS_10pkg_config, symObjAddr: 0x170C, symBinAddr: 0x1000206C8, symSize: 0x228 }
  - { offset: 0x4D178, size: 0x8, addend: 0x0, symName: __RNvXs0_NtCsfvfooZQ3Axs_4core6borrowReINtB5_6BorroweE6borrowCs8sZPpv4WdDS_10pkg_config, symObjAddr: 0x2360, symBinAddr: 0x10002101C, symSize: 0x20 }
  - { offset: 0x4D5B6, size: 0x8, addend: 0x0, symName: __RINvNtCscOYdFFY2T5N_3std3env3varReECs8sZPpv4WdDS_10pkg_config, symObjAddr: 0x538, symBinAddr: 0x10001F738, symSize: 0x68 }
  - { offset: 0x4D5EB, size: 0x8, addend: 0x0, symName: __RINvNtCscOYdFFY2T5N_3std3env6var_osReECs8sZPpv4WdDS_10pkg_config, symObjAddr: 0x5A0, symBinAddr: 0x10001F7A0, symSize: 0x68 }
  - { offset: 0x4D6F8, size: 0x8, addend: 0x0, symName: __RINvXs3_NtNtCse1nGBsou5OW_5alloc3vec9into_iterINtB6_8IntoIterReENtNtNtNtCsfvfooZQ3Axs_4core4iter6traits8iterator8Iterator4folduNCINvNtNtB16_8adapters3map8map_foldBX_NtNtBa_6string6StringuNvYB2D_INtNtB18_7convert4FromBX_E4fromNCINvNvB10_8for_each4callB2D_NCINvMsi_B8_INtB8_3VecB2D_E14extend_trustedINtB26_3MapBI_B2Z_EE0E0E0ECs8sZPpv4WdDS_10pkg_config, symObjAddr: 0xE7C, symBinAddr: 0x10001FEF8, symSize: 0x124 }
  - { offset: 0x4D8C4, size: 0x8, addend: 0x0, symName: __RNvXs3_NtNtCse1nGBsou5OW_5alloc3vec9into_iterINtB5_8IntoIterReENtNtNtNtCsfvfooZQ3Axs_4core4iter6traits8iterator8Iterator4nextCs8sZPpv4WdDS_10pkg_config, symObjAddr: 0x244C, symBinAddr: 0x1000210D8, symSize: 0xB8 }
  - { offset: 0x4DA3D, size: 0x8, addend: 0x0, symName: __RNvXs3_NtNtCse1nGBsou5OW_5alloc3vec9into_iterINtB5_8IntoIterReENtNtNtNtCsfvfooZQ3Axs_4core4iter6traits8iterator8Iterator9size_hintCs8sZPpv4WdDS_10pkg_config, symObjAddr: 0x2504, symBinAddr: 0x100021190, symSize: 0x6C }
  - { offset: 0x4DB32, size: 0x8, addend: 0x0, symName: __RNvXNvXsd_NtNtCse1nGBsou5OW_5alloc3vec9into_iterINtB8_8IntoIterppENtNtNtCsfvfooZQ3Axs_4core3ops4drop4Drop4dropINtB2_9DropGuardReNtNtBc_5alloc6GlobalEB12_4dropCs8sZPpv4WdDS_10pkg_config, symObjAddr: 0x22E4, symBinAddr: 0x100020FA0, symSize: 0x7C }
  - { offset: 0x4DC68, size: 0x8, addend: 0x0, symName: __RNvXsd_NtNtCse1nGBsou5OW_5alloc3vec9into_iterINtB5_8IntoIterReENtNtNtCsfvfooZQ3Axs_4core3ops4drop4Drop4dropCs8sZPpv4WdDS_10pkg_config, symObjAddr: 0x27E0, symBinAddr: 0x10002146C, symSize: 0x8C }
  - { offset: 0x4DD0E, size: 0x8, addend: 0x0, symName: __RNvXs_NtNtCse1nGBsou5OW_5alloc3vec15set_len_on_dropNtB4_12SetLenOnDropNtNtNtCsfvfooZQ3Axs_4core3ops4drop4Drop4dropCs8sZPpv4WdDS_10pkg_config, symObjAddr: 0x27C0, symBinAddr: 0x10002144C, symSize: 0x20 }
  - { offset: 0x4DF07, size: 0x8, addend: 0x0, symName: __RNvXs0_NtNtCse1nGBsou5OW_5alloc3ffi5c_strNtB5_7CStringNtNtNtCsfvfooZQ3Axs_4core3ops4drop4Drop4dropCs8sZPpv4WdDS_10pkg_config, symObjAddr: 0x2380, symBinAddr: 0x10002103C, symSize: 0x6C }
  - { offset: 0x4E123, size: 0x8, addend: 0x0, symName: __RINvMNtCsfvfooZQ3Axs_4core6optionINtB3_6OptionNtNtNtCscOYdFFY2T5N_3std3ffi6os_str8OsStringE14unwrap_or_elseNCNvMs3_Cs8sZPpv4WdDS_10pkg_configNtB1P_6Config3run0EB1P_, symObjAddr: 0x0, symBinAddr: 0x10001F264, symSize: 0x70 }
  - { offset: 0x4E1C1, size: 0x8, addend: 0x0, symName: __RINvMNtCsfvfooZQ3Axs_4core6optionINtB3_6OptionNtNtNtCscOYdFFY2T5N_3std3ffi6os_str8OsStringE7or_elseNCNvMs3_Cs8sZPpv4WdDS_10pkg_configNtB1H_6Config16targeted_env_var0EB1H_, symObjAddr: 0x70, symBinAddr: 0x10001F2D4, symSize: 0xE4 }
  - { offset: 0x4E225, size: 0x8, addend: 0x0, symName: __RINvMNtCsfvfooZQ3Axs_4core6optionINtB3_6OptionNtNtNtCscOYdFFY2T5N_3std3ffi6os_str8OsStringE7or_elseNCNvMs3_Cs8sZPpv4WdDS_10pkg_configNtB1H_6Config16targeted_env_vars0_0EB1H_, symObjAddr: 0x154, symBinAddr: 0x10001F3B8, symSize: 0xE0 }
  - { offset: 0x4E288, size: 0x8, addend: 0x0, symName: __RINvMNtCsfvfooZQ3Axs_4core6optionINtB3_6OptionNtNtNtCscOYdFFY2T5N_3std3ffi6os_str8OsStringE7or_elseNCNvMs3_Cs8sZPpv4WdDS_10pkg_configNtB1H_6Config16targeted_env_vars_0EB1H_, symObjAddr: 0x234, symBinAddr: 0x10001F498, symSize: 0xE4 }
  - { offset: 0x4E413, size: 0x8, addend: 0x0, symName: __RINvMNtCsfvfooZQ3Axs_4core6optionINtB3_6OptionReE11map_or_elseNtNtCse1nGBsou5OW_5alloc6string6StringNCNvNtB12_3fmt6format0NvYeNtNtB12_6borrow7ToOwned8to_ownedECs8sZPpv4WdDS_10pkg_config, symObjAddr: 0x318, symBinAddr: 0x10001F57C, symSize: 0xCC }
  - { offset: 0x4E496, size: 0x8, addend: 0x0, symName: __RINvMNtCsfvfooZQ3Axs_4core6optionINtB3_6OptionReE3mapNtNtCse1nGBsou5OW_5alloc6string6StringNCNvMs5_Cs8sZPpv4WdDS_10pkg_configNtB1z_7Library17parse_libs_cflagss2_0EB1z_, symObjAddr: 0x3E4, symBinAddr: 0x10001F648, symSize: 0x78 }
  - { offset: 0x4E501, size: 0x8, addend: 0x0, symName: __RINvMNtCsfvfooZQ3Axs_4core6optionINtB3_6OptionbE14unwrap_or_elseNCNvMs3_Cs8sZPpv4WdDS_10pkg_configNtB18_6Config9is_static0EB18_, symObjAddr: 0x45C, symBinAddr: 0x10001F6C0, symSize: 0x78 }
  - { offset: 0x4E852, size: 0x8, addend: 0x0, symName: __RNvMNtCsfvfooZQ3Axs_4core6optionINtB2_6OptionINtNtB4_4cell4CellTyyEEE4takeCs8sZPpv4WdDS_10pkg_config, symObjAddr: 0x1148, symBinAddr: 0x1000201C4, symSize: 0x3C }
  - { offset: 0x4E8D8, size: 0x8, addend: 0x0, symName: __RNvMNtCsfvfooZQ3Axs_4core6optionINtB2_6OptionNtNtNtCscOYdFFY2T5N_3std3ffi6os_str8OsStringE17unwrap_or_defaultCs8sZPpv4WdDS_10pkg_config, symObjAddr: 0x1184, symBinAddr: 0x100020200, symSize: 0x70 }
  - { offset: 0x4E94C, size: 0x8, addend: 0x0, symName: __RNvMNtCsfvfooZQ3Axs_4core6optionINtB2_6OptionNtNtNtCscOYdFFY2T5N_3std3ffi6os_str8OsStringE7is_noneCs8sZPpv4WdDS_10pkg_config, symObjAddr: 0x11F4, symBinAddr: 0x100020270, symSize: 0x2C }
  - { offset: 0x4E996, size: 0x8, addend: 0x0, symName: __RNvMNtCsfvfooZQ3Axs_4core6optionINtB2_6OptionNtNtNtCscOYdFFY2T5N_3std3ffi6os_str8OsStringE7is_someCs8sZPpv4WdDS_10pkg_config, symObjAddr: 0x1220, symBinAddr: 0x10002029C, symSize: 0x2C }
  - { offset: 0x4E9CF, size: 0x8, addend: 0x0, symName: __RNvMNtNtNtCsloNvcHxBCre_9hashbrown7control5group4neonNtB2_5Group10match_fullCs8sZPpv4WdDS_10pkg_config, symObjAddr: 0x12CC, symBinAddr: 0x100020348, symSize: 0x68 }
  - { offset: 0x4EA07, size: 0x8, addend: 0x0, symName: __RNvMNtNtNtCsloNvcHxBCre_9hashbrown7control5group4neonNtB2_5Group22match_empty_or_deletedCs8sZPpv4WdDS_10pkg_config, symObjAddr: 0x1334, symBinAddr: 0x1000203B0, symSize: 0x68 }
  - { offset: 0x4EA3F, size: 0x8, addend: 0x0, symName: __RNvMNtNtNtCsloNvcHxBCre_9hashbrown7control5group4neonNtB2_5Group44convert_special_to_empty_and_full_to_deletedCs8sZPpv4WdDS_10pkg_config, symObjAddr: 0x139C, symBinAddr: 0x100020418, symSize: 0x88 }
  - { offset: 0x4EA77, size: 0x8, addend: 0x0, symName: __RNvMNtNtNtCsloNvcHxBCre_9hashbrown7control5group4neonNtB2_5Group9match_tagCs8sZPpv4WdDS_10pkg_config, symObjAddr: 0x1424, symBinAddr: 0x1000204A0, symSize: 0x7C }
  - { offset: 0x4EB74, size: 0x8, addend: 0x0, symName: __RNvMs5_NtNtCscOYdFFY2T5N_3std2io5errorNtB5_5Error14is_interruptedCs8sZPpv4WdDS_10pkg_config, symObjAddr: 0x14A0, symBinAddr: 0x10002051C, symSize: 0x138 }
  - { offset: 0x4F0E4, size: 0x8, addend: 0x0, symName: __RINvMsi_NtCse1nGBsou5OW_5alloc3vecINtB6_3VecNtNtB8_6string6StringE14extend_trustedINtNtNtNtCsfvfooZQ3Axs_4core4iter8adapters3map3MapINtNtB6_9into_iter8IntoIterReENvYBG_INtNtB1r_7convert4FromB2x_E4fromEECs8sZPpv4WdDS_10pkg_config, symObjAddr: 0x0, symBinAddr: 0x1000215EC, symSize: 0x188 }
  - { offset: 0x52002, size: 0x8, addend: 0x0, symName: __RINvXsd_NtCse1nGBsou5OW_5alloc3vecINtB6_3VecNtNtB8_6string6StringEINtNtNtNtCsfvfooZQ3Axs_4core4iter6traits7collect12FromIteratorBG_E9from_iterINtNtNtB19_8adapters3map3MapINtNtB6_9into_iter8IntoIterReENvYBG_INtNtB1b_7convert4FromB39_E4fromEECs8sZPpv4WdDS_10pkg_config, symObjAddr: 0xC2C, symBinAddr: 0x10002204C, symSize: 0x3C }
  - { offset: 0x52043, size: 0x8, addend: 0x0, symName: __RINvXsd_NtCse1nGBsou5OW_5alloc3vecINtB6_3VecNtNtB8_6string6StringEINtNtNtNtCsfvfooZQ3Axs_4core4iter6traits7collect12FromIteratorBG_E9from_iterINtNtNtB19_8adapters3map3MapINtNtNtB1b_5slice4iter4IterNtNtNtCscOYdFFY2T5N_3std3ffi6os_str8OsStringENCNvXs_Cs8sZPpv4WdDS_10pkg_configNtB3Z_14WrappedCommandNtNtB1b_3fmt7Display3fmts_0EEB3Z_, symObjAddr: 0xCA4, symBinAddr: 0x100022088, symSize: 0x40 }
  - { offset: 0x52083, size: 0x8, addend: 0x0, symName: __RINvXsd_NtCse1nGBsou5OW_5alloc3vecINtB6_3VecNtNtB8_6string6StringEINtNtNtNtCsfvfooZQ3Axs_4core4iter6traits7collect12FromIteratorBG_E9from_iterINtNtNtB19_8adapters3map3MapINtNtNtB1b_5slice4iter4IterTNtNtNtCscOYdFFY2T5N_3std3ffi6os_str8OsStringB3a_EENCNvXs_Cs8sZPpv4WdDS_10pkg_configNtB45_14WrappedCommandNtNtB1b_3fmt7Display3fmt0EEB45_, symObjAddr: 0xCE4, symBinAddr: 0x1000220C8, symSize: 0x40 }
  - { offset: 0x520C3, size: 0x8, addend: 0x0, symName: __RINvXsd_NtCse1nGBsou5OW_5alloc3vecINtB6_3VecReEINtNtNtNtCsfvfooZQ3Axs_4core4iter6traits7collect12FromIteratorBG_E9from_iterINtNtNtBS_3str4iter5SplitcEECs8sZPpv4WdDS_10pkg_config, symObjAddr: 0xD24, symBinAddr: 0x100022108, symSize: 0x3C }
  - { offset: 0x5210A, size: 0x8, addend: 0x0, symName: __RINvXsh_NtCse1nGBsou5OW_5alloc3vecINtB6_3VecNtNtNtCscOYdFFY2T5N_3std3ffi6os_str8OsStringEINtNtNtNtCsfvfooZQ3Axs_4core4iter6traits7collect6ExtendBG_E6extendINtNtNtB1w_8adapters3map3MapINtNtNtB1y_5slice4iter4IterBG_ENCINvMCs8sZPpv4WdDS_10pkg_configNtB3w_14WrappedCommand4argsRBw_RBG_E0EEB3w_, symObjAddr: 0xD60, symBinAddr: 0x100022144, symSize: 0x60 }
  - { offset: 0x5215E, size: 0x8, addend: 0x0, symName: __RINvXsh_NtCse1nGBsou5OW_5alloc3vecINtB6_3VecNtNtNtCscOYdFFY2T5N_3std3ffi6os_str8OsStringEINtNtNtNtCsfvfooZQ3Axs_4core4iter6traits7collect6ExtendBG_E6extendINtNtNtB1w_8adapters3map3MapINtNtNtB1y_5slice4iter4IterReENCINvMCs8sZPpv4WdDS_10pkg_configNtB3v_14WrappedCommand4argsRSB3m_RB3m_E0EEB3v_, symObjAddr: 0xDC0, symBinAddr: 0x1000221A4, symSize: 0x60 }
  - { offset: 0x521BD, size: 0x8, addend: 0x0, symName: __RNCINvMsi_NtCse1nGBsou5OW_5alloc3vecINtB8_3VecNtNtBa_6string6StringE14extend_trustedINtNtNtNtCsfvfooZQ3Axs_4core4iter8adapters3map3MapINtNtB8_9into_iter8IntoIterReENvYBI_INtNtB1t_7convert4FromB2z_E4fromEE0Cs8sZPpv4WdDS_10pkg_config, symObjAddr: 0xE20, symBinAddr: 0x100022204, symSize: 0x44 }
  - { offset: 0x5226A, size: 0x8, addend: 0x0, symName: __RNCINvMsi_NtCse1nGBsou5OW_5alloc3vecINtB8_3VecNtNtBa_6string6StringE14extend_trustedINtNtNtNtCsfvfooZQ3Axs_4core4iter8adapters3map3MapINtNtNtB1t_5slice4iter4IterNtNtNtCscOYdFFY2T5N_3std3ffi6os_str8OsStringENCNvXs_Cs8sZPpv4WdDS_10pkg_configNtB3p_14WrappedCommandNtNtB1t_3fmt7Display3fmts_0EE0B3p_, symObjAddr: 0xE64, symBinAddr: 0x100022248, symSize: 0x44 }
  - { offset: 0x52317, size: 0x8, addend: 0x0, symName: __RNCINvMsi_NtCse1nGBsou5OW_5alloc3vecINtB8_3VecNtNtBa_6string6StringE14extend_trustedINtNtNtNtCsfvfooZQ3Axs_4core4iter8adapters3map3MapINtNtNtB1t_5slice4iter4IterTNtNtNtCscOYdFFY2T5N_3std3ffi6os_str8OsStringB2A_EENCNvXs_Cs8sZPpv4WdDS_10pkg_configNtB3v_14WrappedCommandNtNtB1t_3fmt7Display3fmt0EE0B3v_, symObjAddr: 0xEA8, symBinAddr: 0x10002228C, symSize: 0x44 }
  - { offset: 0x523C4, size: 0x8, addend: 0x0, symName: __RNCINvMsi_NtCse1nGBsou5OW_5alloc3vecINtB8_3VecNtNtNtCscOYdFFY2T5N_3std3ffi6os_str8OsStringE14extend_trustedINtNtNtNtCsfvfooZQ3Axs_4core4iter8adapters3map3MapINtNtNtB1Q_5slice4iter4IterBI_ENCINvMCs8sZPpv4WdDS_10pkg_configNtB36_14WrappedCommand4argsRBy_RBI_E0EE0B36_, symObjAddr: 0xEEC, symBinAddr: 0x1000222D0, symSize: 0x44 }
  - { offset: 0x52471, size: 0x8, addend: 0x0, symName: __RNCINvMsi_NtCse1nGBsou5OW_5alloc3vecINtB8_3VecNtNtNtCscOYdFFY2T5N_3std3ffi6os_str8OsStringE14extend_trustedINtNtNtNtCsfvfooZQ3Axs_4core4iter8adapters3map3MapINtNtNtB1Q_5slice4iter4IterReENCINvMCs8sZPpv4WdDS_10pkg_configNtB35_14WrappedCommand4argsRSB2W_RB2W_E0EE0B35_, symObjAddr: 0xF30, symBinAddr: 0x100022314, symSize: 0x44 }
  - { offset: 0x5251E, size: 0x8, addend: 0x0, symName: __RNCINvMsi_NtCse1nGBsou5OW_5alloc3vecINtB8_3VechE14extend_trustedINtNtNtNtCsfvfooZQ3Axs_4core4iter8adapters3map3MapINtNtNtB19_5slice4iter4IterhENCNvNtBa_3str13replace_ascii0EE0Cs8sZPpv4WdDS_10pkg_config, symObjAddr: 0xF74, symBinAddr: 0x100022358, symSize: 0x30 }
  - { offset: 0x52886, size: 0x8, addend: 0x0, symName: __RNvXs6_NtCse1nGBsou5OW_5alloc3vecINtB5_3VecNtNtB7_6string6StringENtNtNtCsfvfooZQ3Axs_4core3ops5deref5Deref5derefCs8sZPpv4WdDS_10pkg_config, symObjAddr: 0x21E8, symBinAddr: 0x100023370, symSize: 0x24 }
  - { offset: 0x528C6, size: 0x8, addend: 0x0, symName: __RNvXs6_NtCse1nGBsou5OW_5alloc3vecINtB5_3VecNtNtCscOYdFFY2T5N_3std4path7PathBufENtNtNtCsfvfooZQ3Axs_4core3ops5deref5Deref5derefCs8sZPpv4WdDS_10pkg_config, symObjAddr: 0x220C, symBinAddr: 0x100023394, symSize: 0x24 }
  - { offset: 0x52906, size: 0x8, addend: 0x0, symName: __RNvXs6_NtCse1nGBsou5OW_5alloc3vecINtB5_3VecNtNtNtCscOYdFFY2T5N_3std3ffi6os_str8OsStringENtNtNtCsfvfooZQ3Axs_4core3ops5deref5Deref5derefCs8sZPpv4WdDS_10pkg_config, symObjAddr: 0x2230, symBinAddr: 0x1000233B8, symSize: 0x24 }
  - { offset: 0x52946, size: 0x8, addend: 0x0, symName: __RNvXs6_NtCse1nGBsou5OW_5alloc3vecINtB5_3VecReENtNtNtCsfvfooZQ3Axs_4core3ops5deref5Deref5derefCs8sZPpv4WdDS_10pkg_config, symObjAddr: 0x2254, symBinAddr: 0x1000233DC, symSize: 0x24 }
  - { offset: 0x52986, size: 0x8, addend: 0x0, symName: __RNvXs6_NtCse1nGBsou5OW_5alloc3vecINtB5_3VecTNtNtNtCscOYdFFY2T5N_3std3ffi6os_str8OsStringBG_EENtNtNtCsfvfooZQ3Axs_4core3ops5deref5Deref5derefCs8sZPpv4WdDS_10pkg_config, symObjAddr: 0x2278, symBinAddr: 0x100023400, symSize: 0x24 }
  - { offset: 0x529C6, size: 0x8, addend: 0x0, symName: __RNvXs6_NtCse1nGBsou5OW_5alloc3vecINtB5_3VechENtNtNtCsfvfooZQ3Axs_4core3ops5deref5Deref5derefCs8sZPpv4WdDS_10pkg_config, symObjAddr: 0x229C, symBinAddr: 0x100023424, symSize: 0x24 }
  - { offset: 0x52ABD, size: 0x8, addend: 0x0, symName: __RNvXNtNtCse1nGBsou5OW_5alloc3vec10partial_eqINtB4_3VechENtNtCsfvfooZQ3Axs_4core3cmp9PartialEq2eqCs8sZPpv4WdDS_10pkg_config, symObjAddr: 0x1C04, symBinAddr: 0x100022FE8, symSize: 0xCC }
  - { offset: 0x52DAC, size: 0x8, addend: 0x0, symName: __RNvXNtNtCse1nGBsou5OW_5alloc3vec11spec_extendINtB4_3VecReEINtB2_10SpecExtendBR_INtNtNtCsfvfooZQ3Axs_4core3str4iter5SplitcEE11spec_extendCs8sZPpv4WdDS_10pkg_config, symObjAddr: 0x1CF4, symBinAddr: 0x1000230B4, symSize: 0x24 }
  - { offset: 0x52E04, size: 0x8, addend: 0x0, symName: __RNvXs_NtNtCse1nGBsou5OW_5alloc3vec11spec_extendINtB6_3VecNtNtB8_6string6StringEINtB4_10SpecExtendBT_INtNtNtNtCsfvfooZQ3Axs_4core4iter8adapters3map3MapINtNtB6_9into_iter8IntoIterReENvYBT_INtNtB1J_7convert4FromB2P_E4fromEE11spec_extendCs8sZPpv4WdDS_10pkg_config, symObjAddr: 0x22C0, symBinAddr: 0x100023448, symSize: 0x24 }
  - { offset: 0x52E56, size: 0x8, addend: 0x0, symName: __RNvXs_NtNtCse1nGBsou5OW_5alloc3vec11spec_extendINtB6_3VecNtNtB8_6string6StringEINtB4_10SpecExtendBT_INtNtNtNtCsfvfooZQ3Axs_4core4iter8adapters3map3MapINtNtNtB1J_5slice4iter4IterNtNtNtCscOYdFFY2T5N_3std3ffi6os_str8OsStringENCNvXs_Cs8sZPpv4WdDS_10pkg_configNtB3F_14WrappedCommandNtNtB1J_3fmt7Display3fmts_0EE11spec_extendB3F_, symObjAddr: 0x22E4, symBinAddr: 0x10002346C, symSize: 0x34 }
  - { offset: 0x52EA7, size: 0x8, addend: 0x0, symName: __RNvXs_NtNtCse1nGBsou5OW_5alloc3vec11spec_extendINtB6_3VecNtNtB8_6string6StringEINtB4_10SpecExtendBT_INtNtNtNtCsfvfooZQ3Axs_4core4iter8adapters3map3MapINtNtNtB1J_5slice4iter4IterTNtNtNtCscOYdFFY2T5N_3std3ffi6os_str8OsStringB2Q_EENCNvXs_Cs8sZPpv4WdDS_10pkg_configNtB3L_14WrappedCommandNtNtB1J_3fmt7Display3fmt0EE11spec_extendB3L_, symObjAddr: 0x2318, symBinAddr: 0x1000234A0, symSize: 0x34 }
  - { offset: 0x52EF8, size: 0x8, addend: 0x0, symName: __RNvXs_NtNtCse1nGBsou5OW_5alloc3vec11spec_extendINtB6_3VecNtNtNtCscOYdFFY2T5N_3std3ffi6os_str8OsStringEINtB4_10SpecExtendBT_INtNtNtNtCsfvfooZQ3Axs_4core4iter8adapters3map3MapINtNtNtB26_5slice4iter4IterBT_ENCINvMCs8sZPpv4WdDS_10pkg_configNtB3m_14WrappedCommand4argsRBJ_RBT_E0EE11spec_extendB3m_, symObjAddr: 0x234C, symBinAddr: 0x1000234D4, symSize: 0x34 }
  - { offset: 0x52F49, size: 0x8, addend: 0x0, symName: __RNvXs_NtNtCse1nGBsou5OW_5alloc3vec11spec_extendINtB6_3VecNtNtNtCscOYdFFY2T5N_3std3ffi6os_str8OsStringEINtB4_10SpecExtendBT_INtNtNtNtCsfvfooZQ3Axs_4core4iter8adapters3map3MapINtNtNtB26_5slice4iter4IterReENCINvMCs8sZPpv4WdDS_10pkg_configNtB3l_14WrappedCommand4argsRSB3c_RB3c_E0EE11spec_extendB3l_, symObjAddr: 0x2380, symBinAddr: 0x100023508, symSize: 0x34 }
  - { offset: 0x52F9A, size: 0x8, addend: 0x0, symName: __RNvXs_NtNtCse1nGBsou5OW_5alloc3vec11spec_extendINtB6_3VechEINtB4_10SpecExtendhINtNtNtNtCsfvfooZQ3Axs_4core4iter8adapters3map3MapINtNtNtB1n_5slice4iter4IterhENCNvNtB8_3str13replace_ascii0EE11spec_extendCs8sZPpv4WdDS_10pkg_config, symObjAddr: 0x23B4, symBinAddr: 0x10002353C, symSize: 0x24 }
  - { offset: 0x52FF8, size: 0x8, addend: 0x0, symName: __RNvXNtNtCse1nGBsou5OW_5alloc3vec14spec_from_iterINtB4_3VecNtNtB6_6string6StringEINtB2_12SpecFromIterBU_INtNtNtNtCsfvfooZQ3Axs_4core4iter8adapters3map3MapINtNtNtB1M_5slice4iter4IterNtNtNtCscOYdFFY2T5N_3std3ffi6os_str8OsStringENCNvXs_Cs8sZPpv4WdDS_10pkg_configNtB3I_14WrappedCommandNtNtB1M_3fmt7Display3fmts_0EE9from_iterB3I_, symObjAddr: 0x1D2C, symBinAddr: 0x1000230D8, symSize: 0x2C }
  - { offset: 0x53036, size: 0x8, addend: 0x0, symName: __RNvXNtNtCse1nGBsou5OW_5alloc3vec14spec_from_iterINtB4_3VecNtNtB6_6string6StringEINtB2_12SpecFromIterBU_INtNtNtNtCsfvfooZQ3Axs_4core4iter8adapters3map3MapINtNtNtB1M_5slice4iter4IterTNtNtNtCscOYdFFY2T5N_3std3ffi6os_str8OsStringB2T_EENCNvXs_Cs8sZPpv4WdDS_10pkg_configNtB3O_14WrappedCommandNtNtB1M_3fmt7Display3fmt0EE9from_iterB3O_, symObjAddr: 0x1D58, symBinAddr: 0x100023104, symSize: 0x2C }
  - { offset: 0x53074, size: 0x8, addend: 0x0, symName: __RNvXNtNtCse1nGBsou5OW_5alloc3vec14spec_from_iterINtB4_3VecReEINtB2_12SpecFromIterBU_INtNtNtCsfvfooZQ3Axs_4core3str4iter5SplitcEE9from_iterCs8sZPpv4WdDS_10pkg_config, symObjAddr: 0x1D84, symBinAddr: 0x100023130, symSize: 0x14 }
  - { offset: 0x530BF, size: 0x8, addend: 0x0, symName: __RNvXNtNtCse1nGBsou5OW_5alloc3vec21spec_from_iter_nestedINtB4_3VecReEINtB2_18SpecFromIterNestedB11_INtNtNtCsfvfooZQ3Axs_4core3str4iter5SplitcEE9from_iterCs8sZPpv4WdDS_10pkg_config, symObjAddr: 0x1FBC, symBinAddr: 0x100023144, symSize: 0x22C }
  - { offset: 0x532E4, size: 0x8, addend: 0x0, symName: __RNvXs_NtNtCse1nGBsou5OW_5alloc3vec21spec_from_iter_nestedINtB6_3VecNtNtB8_6string6StringEINtB4_18SpecFromIterNestedB13_INtNtNtNtCsfvfooZQ3Axs_4core4iter8adapters3map3MapINtNtB6_9into_iter8IntoIterReENvYB13_INtNtB22_7convert4FromB38_E4fromEE9from_iterCs8sZPpv4WdDS_10pkg_config, symObjAddr: 0x2400, symBinAddr: 0x100023588, symSize: 0x174 }
  - { offset: 0x533BB, size: 0x8, addend: 0x0, symName: __RNvXs_NtNtCse1nGBsou5OW_5alloc3vec21spec_from_iter_nestedINtB6_3VecNtNtB8_6string6StringEINtB4_18SpecFromIterNestedB13_INtNtNtNtCsfvfooZQ3Axs_4core4iter8adapters3map3MapINtNtNtB22_5slice4iter4IterNtNtNtCscOYdFFY2T5N_3std3ffi6os_str8OsStringENCNvXs_Cs8sZPpv4WdDS_10pkg_configNtB3Y_14WrappedCommandNtNtB22_3fmt7Display3fmts_0EE9from_iterB3Y_, symObjAddr: 0x2574, symBinAddr: 0x1000236FC, symSize: 0x168 }
  - { offset: 0x53491, size: 0x8, addend: 0x0, symName: __RNvXs_NtNtCse1nGBsou5OW_5alloc3vec21spec_from_iter_nestedINtB6_3VecNtNtB8_6string6StringEINtB4_18SpecFromIterNestedB13_INtNtNtNtCsfvfooZQ3Axs_4core4iter8adapters3map3MapINtNtNtB22_5slice4iter4IterTNtNtNtCscOYdFFY2T5N_3std3ffi6os_str8OsStringB39_EENCNvXs_Cs8sZPpv4WdDS_10pkg_configNtB44_14WrappedCommandNtNtB22_3fmt7Display3fmt0EE9from_iterB44_, symObjAddr: 0x26DC, symBinAddr: 0x100023864, symSize: 0x168 }
  - { offset: 0x53567, size: 0x8, addend: 0x0, symName: __RNvXs_NtNtCse1nGBsou5OW_5alloc3vec21spec_from_iter_nestedINtB6_3VechEINtB4_18SpecFromIterNestedhINtNtNtNtCsfvfooZQ3Axs_4core4iter8adapters3map3MapINtNtNtB1F_5slice4iter4IterhENCNvNtB8_3str13replace_ascii0EE9from_iterCs8sZPpv4WdDS_10pkg_config, symObjAddr: 0x2844, symBinAddr: 0x1000239CC, symSize: 0x168 }
  - { offset: 0x5364A, size: 0x8, addend: 0x0, symName: __RNvXs_NtNtCse1nGBsou5OW_5alloc3vec16in_place_collectINtB6_3VecNtNtB8_6string6StringEINtNtB6_14spec_from_iter12SpecFromIterBY_INtNtNtNtCsfvfooZQ3Axs_4core4iter8adapters3map3MapINtNtB6_9into_iter8IntoIterReENvYBY_INtNtB28_7convert4FromB3e_E4fromEE9from_iterCs8sZPpv4WdDS_10pkg_config, symObjAddr: 0x23D8, symBinAddr: 0x100023560, symSize: 0x28 }
  - { offset: 0x536AD, size: 0x8, addend: 0x0, symName: __RNvXse_NtCse1nGBsou5OW_5alloc3vecINtB5_3VecReENtNtNtNtCsfvfooZQ3Axs_4core4iter6traits7collect12IntoIterator9into_iterCs8sZPpv4WdDS_10pkg_config, symObjAddr: 0x29AC, symBinAddr: 0x100023B34, symSize: 0xDC }
  - { offset: 0x53945, size: 0x8, addend: 0x0, symName: __RNvXsf_NtCse1nGBsou5OW_5alloc3vecRINtB5_3VecNtNtNtCscOYdFFY2T5N_3std3ffi6os_str8OsStringENtNtNtNtCsfvfooZQ3Axs_4core4iter6traits7collect12IntoIterator9into_iterCs8sZPpv4WdDS_10pkg_config, symObjAddr: 0x2A88, symBinAddr: 0x100023C10, symSize: 0xA4 }
  - { offset: 0x53BA7, size: 0x8, addend: 0x0, symName: __RNvXsn_NtCse1nGBsou5OW_5alloc3vecINtB5_3VecIBw_NtNtB7_6string6StringEENtNtNtCsfvfooZQ3Axs_4core3ops4drop4Drop4dropCs8sZPpv4WdDS_10pkg_config, symObjAddr: 0x2B2C, symBinAddr: 0x100023CB4, symSize: 0x38 }
  - { offset: 0x53C57, size: 0x8, addend: 0x0, symName: __RNvXsn_NtCse1nGBsou5OW_5alloc3vecINtB5_3VecINtNtB7_5boxed3BoxDINtNtNtCsfvfooZQ3Axs_4core3ops8function5FnMutuEp6OutputINtNtB15_6result6ResultuNtNtNtCscOYdFFY2T5N_3std2io5error5ErrorENtNtB15_6marker4SendNtB2V_4SyncEL_EENtNtB13_4drop4Drop4dropCs8sZPpv4WdDS_10pkg_config, symObjAddr: 0x2B64, symBinAddr: 0x100023CEC, symSize: 0x38 }
  - { offset: 0x53D07, size: 0x8, addend: 0x0, symName: __RNvXsn_NtCse1nGBsou5OW_5alloc3vecINtB5_3VecNtNtB7_6string6StringENtNtNtCsfvfooZQ3Axs_4core3ops4drop4Drop4dropCs8sZPpv4WdDS_10pkg_config, symObjAddr: 0x2B9C, symBinAddr: 0x100023D24, symSize: 0x38 }
  - { offset: 0x53DB7, size: 0x8, addend: 0x0, symName: __RNvXsn_NtCse1nGBsou5OW_5alloc3vecINtB5_3VecNtNtCscOYdFFY2T5N_3std4path7PathBufENtNtNtCsfvfooZQ3Axs_4core3ops4drop4Drop4dropCs8sZPpv4WdDS_10pkg_config, symObjAddr: 0x2BD4, symBinAddr: 0x100023D5C, symSize: 0x38 }
  - { offset: 0x53E67, size: 0x8, addend: 0x0, symName: __RNvXsn_NtCse1nGBsou5OW_5alloc3vecINtB5_3VecNtNtNtB7_3ffi5c_str7CStringENtNtNtCsfvfooZQ3Axs_4core3ops4drop4Drop4dropCs8sZPpv4WdDS_10pkg_config, symObjAddr: 0x2C0C, symBinAddr: 0x100023D94, symSize: 0x38 }
  - { offset: 0x53F17, size: 0x8, addend: 0x0, symName: __RNvXsn_NtCse1nGBsou5OW_5alloc3vecINtB5_3VecNtNtNtCscOYdFFY2T5N_3std3ffi6os_str8OsStringENtNtNtCsfvfooZQ3Axs_4core3ops4drop4Drop4dropCs8sZPpv4WdDS_10pkg_config, symObjAddr: 0x2C44, symBinAddr: 0x100023DCC, symSize: 0x38 }
  - { offset: 0x53FC7, size: 0x8, addend: 0x0, symName: __RNvXsn_NtCse1nGBsou5OW_5alloc3vecINtB5_3VecPaENtNtNtCsfvfooZQ3Axs_4core3ops4drop4Drop4dropCs8sZPpv4WdDS_10pkg_config, symObjAddr: 0x2C7C, symBinAddr: 0x100023E04, symSize: 0x24 }
  - { offset: 0x54077, size: 0x8, addend: 0x0, symName: __RNvXsn_NtCse1nGBsou5OW_5alloc3vecINtB5_3VecReENtNtNtCsfvfooZQ3Axs_4core3ops4drop4Drop4dropCs8sZPpv4WdDS_10pkg_config, symObjAddr: 0x2CA0, symBinAddr: 0x100023E28, symSize: 0x24 }
  - { offset: 0x54127, size: 0x8, addend: 0x0, symName: __RNvXsn_NtCse1nGBsou5OW_5alloc3vecINtB5_3VecTNtNtNtCscOYdFFY2T5N_3std3ffi6os_str8OsStringBG_EENtNtNtCsfvfooZQ3Axs_4core3ops4drop4Drop4dropCs8sZPpv4WdDS_10pkg_config, symObjAddr: 0x2CC4, symBinAddr: 0x100023E4C, symSize: 0x38 }
  - { offset: 0x542EE, size: 0x8, addend: 0x0, symName: __RNvXsp_NtCse1nGBsou5OW_5alloc3vecINtB5_3VechENtNtCsfvfooZQ3Axs_4core3fmt5Debug3fmtCs8sZPpv4WdDS_10pkg_config, symObjAddr: 0x2CFC, symBinAddr: 0x100023E84, symSize: 0x70 }
  - { offset: 0x5456B, size: 0x8, addend: 0x0, symName: __RINvMsi_NtCse1nGBsou5OW_5alloc3vecINtB6_3VecNtNtB8_6string6StringE14extend_trustedINtNtNtNtCsfvfooZQ3Axs_4core4iter8adapters3map3MapINtNtB6_9into_iter8IntoIterReENvYBG_INtNtB1r_7convert4FromB2x_E4fromEECs8sZPpv4WdDS_10pkg_config, symObjAddr: 0x0, symBinAddr: 0x1000215EC, symSize: 0x188 }
  - { offset: 0x548D9, size: 0x8, addend: 0x0, symName: __RINvMsi_NtCse1nGBsou5OW_5alloc3vecINtB6_3VecNtNtB8_6string6StringE14extend_trustedINtNtNtNtCsfvfooZQ3Axs_4core4iter8adapters3map3MapINtNtNtB1r_5slice4iter4IterNtNtNtCscOYdFFY2T5N_3std3ffi6os_str8OsStringENCNvXs_Cs8sZPpv4WdDS_10pkg_configNtB3n_14WrappedCommandNtNtB1r_3fmt7Display3fmts_0EEB3n_, symObjAddr: 0x188, symBinAddr: 0x100021774, symSize: 0x170 }
  - { offset: 0x54BAE, size: 0x8, addend: 0x0, symName: __RINvMsi_NtCse1nGBsou5OW_5alloc3vecINtB6_3VecNtNtB8_6string6StringE14extend_trustedINtNtNtNtCsfvfooZQ3Axs_4core4iter8adapters3map3MapINtNtNtB1r_5slice4iter4IterTNtNtNtCscOYdFFY2T5N_3std3ffi6os_str8OsStringB2y_EENCNvXs_Cs8sZPpv4WdDS_10pkg_configNtB3t_14WrappedCommandNtNtB1r_3fmt7Display3fmt0EEB3t_, symObjAddr: 0x2F8, symBinAddr: 0x1000218E4, symSize: 0x170 }
  - { offset: 0x54E93, size: 0x8, addend: 0x0, symName: __RINvMsi_NtCse1nGBsou5OW_5alloc3vecINtB6_3VecNtNtNtCscOYdFFY2T5N_3std3ffi6os_str8OsStringE14extend_trustedINtNtNtNtCsfvfooZQ3Axs_4core4iter8adapters3map3MapINtNtNtB1O_5slice4iter4IterBG_ENCINvMCs8sZPpv4WdDS_10pkg_configNtB34_14WrappedCommand4argsRBw_RBG_E0EEB34_, symObjAddr: 0x634, symBinAddr: 0x100021A54, symSize: 0x170 }
  - { offset: 0x5513D, size: 0x8, addend: 0x0, symName: __RINvMsi_NtCse1nGBsou5OW_5alloc3vecINtB6_3VecNtNtNtCscOYdFFY2T5N_3std3ffi6os_str8OsStringE14extend_trustedINtNtNtNtCsfvfooZQ3Axs_4core4iter8adapters3map3MapINtNtNtB1O_5slice4iter4IterReENCINvMCs8sZPpv4WdDS_10pkg_configNtB33_14WrappedCommand4argsRSB2U_RB2U_E0EEB33_, symObjAddr: 0x7A4, symBinAddr: 0x100021BC4, symSize: 0x170 }
  - { offset: 0x554A2, size: 0x8, addend: 0x0, symName: __RINvMsi_NtCse1nGBsou5OW_5alloc3vecINtB6_3VecReE16extend_desugaredINtNtNtCsfvfooZQ3Axs_4core3str4iter5SplitcEECs8sZPpv4WdDS_10pkg_config, symObjAddr: 0x914, symBinAddr: 0x100021D34, symSize: 0x19C }
  - { offset: 0x557DA, size: 0x8, addend: 0x0, symName: __RINvMsi_NtCse1nGBsou5OW_5alloc3vecINtB6_3VechE14extend_trustedINtNtNtNtCsfvfooZQ3Axs_4core4iter8adapters3map3MapINtNtNtB17_5slice4iter4IterhENCNvNtB8_3str13replace_ascii0EECs8sZPpv4WdDS_10pkg_config, symObjAddr: 0xAB0, symBinAddr: 0x100021ED0, symSize: 0x17C }
  - { offset: 0x55A14, size: 0x8, addend: 0x0, symName: __RNvMNtCse1nGBsou5OW_5alloc3vecINtB2_3VecIBt_NtNtB4_6string6StringEE3newCs8sZPpv4WdDS_10pkg_config, symObjAddr: 0xFA4, symBinAddr: 0x100022388, symSize: 0x14 }
  - { offset: 0x55A31, size: 0x8, addend: 0x0, symName: __RNvMNtCse1nGBsou5OW_5alloc3vecINtB2_3VecNtNtB4_6string6StringE3newCs8sZPpv4WdDS_10pkg_config, symObjAddr: 0xFB8, symBinAddr: 0x10002239C, symSize: 0x14 }
  - { offset: 0x55A4E, size: 0x8, addend: 0x0, symName: __RNvMNtCse1nGBsou5OW_5alloc3vecINtB2_3VecNtNtCscOYdFFY2T5N_3std4path7PathBufE3newCs8sZPpv4WdDS_10pkg_config, symObjAddr: 0xFCC, symBinAddr: 0x1000223B0, symSize: 0x14 }
  - { offset: 0x55A6B, size: 0x8, addend: 0x0, symName: __RNvMNtCse1nGBsou5OW_5alloc3vecINtB2_3VecNtNtNtCscOYdFFY2T5N_3std3ffi6os_str8OsStringE3newCs8sZPpv4WdDS_10pkg_config, symObjAddr: 0xFE0, symBinAddr: 0x1000223C4, symSize: 0x14 }
  - { offset: 0x55A88, size: 0x8, addend: 0x0, symName: __RNvMNtCse1nGBsou5OW_5alloc3vecINtB2_3VecReE3newCs8sZPpv4WdDS_10pkg_config, symObjAddr: 0xFF4, symBinAddr: 0x1000223D8, symSize: 0x14 }
  - { offset: 0x55AA5, size: 0x8, addend: 0x0, symName: __RNvMNtCse1nGBsou5OW_5alloc3vecINtB2_3VecTNtNtNtCscOYdFFY2T5N_3std3ffi6os_str8OsStringBD_EE3newCs8sZPpv4WdDS_10pkg_config, symObjAddr: 0x1008, symBinAddr: 0x1000223EC, symSize: 0x14 }
  - { offset: 0x55AC2, size: 0x8, addend: 0x0, symName: __RNvMNtCse1nGBsou5OW_5alloc3vecINtB2_3VechE3newCs8sZPpv4WdDS_10pkg_config, symObjAddr: 0x101C, symBinAddr: 0x100022400, symSize: 0x14 }
  - { offset: 0x55BF2, size: 0x8, addend: 0x0, symName: __RNvMs_NtCse1nGBsou5OW_5alloc3vecINtB4_3VecIBv_NtNtB6_6string6StringEE4pushCs8sZPpv4WdDS_10pkg_config, symObjAddr: 0x1030, symBinAddr: 0x100022414, symSize: 0x108 }
  - { offset: 0x55E85, size: 0x8, addend: 0x0, symName: __RNvMs_NtCse1nGBsou5OW_5alloc3vecINtB4_3VecNtNtB6_6string6StringE4pushCs8sZPpv4WdDS_10pkg_config, symObjAddr: 0x1138, symBinAddr: 0x10002251C, symSize: 0x108 }
  - { offset: 0x56169, size: 0x8, addend: 0x0, symName: __RNvMs_NtCse1nGBsou5OW_5alloc3vecINtB4_3VecNtNtB6_6string6StringE7reserveCs8sZPpv4WdDS_10pkg_config, symObjAddr: 0x1240, symBinAddr: 0x100022624, symSize: 0xC8 }
  - { offset: 0x56367, size: 0x8, addend: 0x0, symName: __RNvMs_NtCse1nGBsou5OW_5alloc3vecINtB4_3VecNtNtB6_6string6StringE8as_sliceCs8sZPpv4WdDS_10pkg_config, symObjAddr: 0x1308, symBinAddr: 0x1000226EC, symSize: 0x64 }
  - { offset: 0x56534, size: 0x8, addend: 0x0, symName: __RNvMs_NtCse1nGBsou5OW_5alloc3vecINtB4_3VecNtNtCscOYdFFY2T5N_3std4path7PathBufE4pushCs8sZPpv4WdDS_10pkg_config, symObjAddr: 0x136C, symBinAddr: 0x100022750, symSize: 0x108 }
  - { offset: 0x5678C, size: 0x8, addend: 0x0, symName: __RNvMs_NtCse1nGBsou5OW_5alloc3vecINtB4_3VecNtNtCscOYdFFY2T5N_3std4path7PathBufE8as_sliceCs8sZPpv4WdDS_10pkg_config, symObjAddr: 0x1474, symBinAddr: 0x100022858, symSize: 0x64 }
  - { offset: 0x56925, size: 0x8, addend: 0x0, symName: __RNvMs_NtCse1nGBsou5OW_5alloc3vecINtB4_3VecNtNtNtCscOYdFFY2T5N_3std3ffi6os_str8OsStringE4pushCs8sZPpv4WdDS_10pkg_config, symObjAddr: 0x14D8, symBinAddr: 0x1000228BC, symSize: 0x108 }
  - { offset: 0x56BEF, size: 0x8, addend: 0x0, symName: __RNvMs_NtCse1nGBsou5OW_5alloc3vecINtB4_3VecNtNtNtCscOYdFFY2T5N_3std3ffi6os_str8OsStringE7reserveCs8sZPpv4WdDS_10pkg_config, symObjAddr: 0x15E0, symBinAddr: 0x1000229C4, symSize: 0xC8 }
  - { offset: 0x56DFA, size: 0x8, addend: 0x0, symName: __RNvMs_NtCse1nGBsou5OW_5alloc3vecINtB4_3VecNtNtNtCscOYdFFY2T5N_3std3ffi6os_str8OsStringE8as_sliceCs8sZPpv4WdDS_10pkg_config, symObjAddr: 0x16A8, symBinAddr: 0x100022A8C, symSize: 0x64 }
  - { offset: 0x56F93, size: 0x8, addend: 0x0, symName: __RNvMs_NtCse1nGBsou5OW_5alloc3vecINtB4_3VecReE4pushCs8sZPpv4WdDS_10pkg_config, symObjAddr: 0x170C, symBinAddr: 0x100022AF0, symSize: 0xF4 }
  - { offset: 0x5725C, size: 0x8, addend: 0x0, symName: __RNvMs_NtCse1nGBsou5OW_5alloc3vecINtB4_3VecReE7reserveCs8sZPpv4WdDS_10pkg_config, symObjAddr: 0x1800, symBinAddr: 0x100022BE4, symSize: 0xC8 }
  - { offset: 0x57433, size: 0x8, addend: 0x0, symName: __RNvMs_NtCse1nGBsou5OW_5alloc3vecINtB4_3VecReE8as_sliceCs8sZPpv4WdDS_10pkg_config, symObjAddr: 0x18C8, symBinAddr: 0x100022CAC, symSize: 0x64 }
  - { offset: 0x575F3, size: 0x8, addend: 0x0, symName: __RNvMs_NtCse1nGBsou5OW_5alloc3vecINtB4_3VecTNtNtNtCscOYdFFY2T5N_3std3ffi6os_str8OsStringBF_EE4pushCs8sZPpv4WdDS_10pkg_config, symObjAddr: 0x192C, symBinAddr: 0x100022D10, symSize: 0x118 }
  - { offset: 0x5784C, size: 0x8, addend: 0x0, symName: __RNvMs_NtCse1nGBsou5OW_5alloc3vecINtB4_3VecTNtNtNtCscOYdFFY2T5N_3std3ffi6os_str8OsStringBF_EE8as_sliceCs8sZPpv4WdDS_10pkg_config, symObjAddr: 0x1A44, symBinAddr: 0x100022E28, symSize: 0x64 }
  - { offset: 0x579E5, size: 0x8, addend: 0x0, symName: __RNvMs_NtCse1nGBsou5OW_5alloc3vecINtB4_3VechE4pushCs8sZPpv4WdDS_10pkg_config, symObjAddr: 0x1AA8, symBinAddr: 0x100022E8C, symSize: 0xDC }
  - { offset: 0x57C32, size: 0x8, addend: 0x0, symName: __RNvMs_NtCse1nGBsou5OW_5alloc3vecINtB4_3VechE8as_sliceCs8sZPpv4WdDS_10pkg_config, symObjAddr: 0x1B84, symBinAddr: 0x100022F68, symSize: 0x60 }
  - { offset: 0x57D11, size: 0x8, addend: 0x0, symName: __RNvMs_NtCse1nGBsou5OW_5alloc3vecINtB4_3VechE8is_emptyCs8sZPpv4WdDS_10pkg_config, symObjAddr: 0x1BE4, symBinAddr: 0x100022FC8, symSize: 0x20 }
  - { offset: 0x58A9A, size: 0x8, addend: 0x0, symName: __RINvXs3_NtNtCsfvfooZQ3Axs_4core4hash5implsRNtCsdARyWrlPtHl_2cc12CompilerFlagNtB8_4Hash4hashNtNtNtCscOYdFFY2T5N_3std4hash6random13DefaultHasherEBH_, symObjAddr: 0x0, symBinAddr: 0x100023EF4, symSize: 0x30 }
  - { offset: 0x58BC3, size: 0x8, addend: 0x0, symName: __RNvXNvMs4_CsdARyWrlPtHl_2ccNtB8_5Build26windows_registry_find_toolNtB2_14BuildEnvGetterNtNtNtB8_7windows10find_tools9EnvGetter7get_env, symObjAddr: 0x1DBFC, symBinAddr: 0x1000401D0, symSize: 0x50 }
  - { offset: 0x58C07, size: 0x8, addend: 0x0, symName: __RNCNvMs4_CsdARyWrlPtHl_2ccNtB7_5Build11try_compile0B7_, symObjAddr: 0x44A0, symBinAddr: 0x100027A10, symSize: 0x80 }
  - { offset: 0x58C52, size: 0x8, addend: 0x0, symName: __RNCNvMs4_CsdARyWrlPtHl_2ccNtB7_5Build11try_compiles_0B7_, symObjAddr: 0x4520, symBinAddr: 0x100027A90, symSize: 0x54 }
  - { offset: 0x58CA2, size: 0x8, addend: 0x0, symName: __RNCNCNvMs4_CsdARyWrlPtHl_2ccNtB9_5Build11try_compiles_00B9_, symObjAddr: 0x4574, symBinAddr: 0x100027AE4, symSize: 0xBC }
  - { offset: 0x58CFE, size: 0x8, addend: 0x0, symName: __RNCNCNCNvMs4_CsdARyWrlPtHl_2ccNtBb_5Build11try_compiles_000Bb_, symObjAddr: 0x4630, symBinAddr: 0x100027BA0, symSize: 0x54 }
  - { offset: 0x58D5A, size: 0x8, addend: 0x0, symName: __RNCNvMs4_CsdARyWrlPtHl_2ccNtB7_5Build15compile_objects0B7_, symObjAddr: 0x4DB8, symBinAddr: 0x100027EE0, symSize: 0x3EC }
  - { offset: 0x58E88, size: 0x8, addend: 0x0, symName: __RNCNCNvMs4_CsdARyWrlPtHl_2ccNtB9_5Build15compile_objects00B9_, symObjAddr: 0x51A4, symBinAddr: 0x1000282CC, symSize: 0xC8 }
  - { offset: 0x58F11, size: 0x8, addend: 0x0, symName: __RNCNCNCNvMs4_CsdARyWrlPtHl_2ccNtBb_5Build15compile_objects000Bb_, symObjAddr: 0x526C, symBinAddr: 0x100028394, symSize: 0x29C }
  - { offset: 0x5901B, size: 0x8, addend: 0x0, symName: __RNCNvMs4_CsdARyWrlPtHl_2ccNtB7_5Build15compile_objectss_0B7_, symObjAddr: 0x5508, symBinAddr: 0x100028630, symSize: 0x718 }
  - { offset: 0x59265, size: 0x8, addend: 0x0, symName: __RNCNCNvMs4_CsdARyWrlPtHl_2ccNtB9_5Build15compile_objectss_00B9_, symObjAddr: 0x5C20, symBinAddr: 0x100028D48, symSize: 0x134 }
  - { offset: 0x59314, size: 0x8, addend: 0x0, symName: __RNvXNvMs4_CsdARyWrlPtHl_2ccNtB8_5Build15compile_objectsNtB2_10KillOnDropNtNtNtCsfvfooZQ3Axs_4core3ops4drop4Drop4drop, symObjAddr: 0x5D54, symBinAddr: 0x100028E7C, symSize: 0x40 }
  - { offset: 0x59355, size: 0x8, addend: 0x0, symName: __RINvNvMs4_CsdARyWrlPtHl_2ccNtB8_5Build15compile_objects11cell_updateINtNtCse1nGBsou5OW_5alloc3vec3VecTNtNtCscOYdFFY2T5N_3std7process7CommandNtB2_10KillOnDropNtNtNtB8_8parallel9job_token8JobTokenEENCNCB2_00EB8_, symObjAddr: 0x5D94, symBinAddr: 0x100028EBC, symSize: 0xC8 }
  - { offset: 0x593DD, size: 0x8, addend: 0x0, symName: __RINvNvMs4_CsdARyWrlPtHl_2ccNtB8_5Build15compile_objects11cell_updateINtNtCse1nGBsou5OW_5alloc3vec3VecTNtNtCscOYdFFY2T5N_3std7process7CommandNtB2_10KillOnDropNtNtNtB8_8parallel9job_token8JobTokenEENCNCB2_s_00EB8_, symObjAddr: 0x5E5C, symBinAddr: 0x100028F84, symSize: 0xDC }
  - { offset: 0x597C0, size: 0x8, addend: 0x0, symName: __RNCNvMs4_CsdARyWrlPtHl_2ccNtB7_5Build20msvc_macro_assembler0B7_, symObjAddr: 0xD9C8, symBinAddr: 0x1000305D4, symSize: 0x48 }
  - { offset: 0x59807, size: 0x8, addend: 0x0, symName: __RNCNvMs4_CsdARyWrlPtHl_2ccNtB7_5Build8assemble0B7_, symObjAddr: 0xE4A0, symBinAddr: 0x1000310AC, symSize: 0x38 }
  - { offset: 0x59840, size: 0x8, addend: 0x0, symName: __RNCNvMs4_CsdARyWrlPtHl_2ccNtB7_5Build8assembles_0B7_, symObjAddr: 0xE4D8, symBinAddr: 0x1000310E4, symSize: 0x9C }
  - { offset: 0x59893, size: 0x8, addend: 0x0, symName: __RNCNCNvMs4_CsdARyWrlPtHl_2ccNtB9_5Build8assembles_00B9_, symObjAddr: 0xE574, symBinAddr: 0x100031180, symSize: 0x20 }
  - { offset: 0x598D9, size: 0x8, addend: 0x0, symName: __RNCNvMs4_CsdARyWrlPtHl_2ccNtB7_5Build17get_base_compiler0B7_, symObjAddr: 0x11620, symBinAddr: 0x10003422C, symSize: 0x410 }
  - { offset: 0x599BD, size: 0x8, addend: 0x0, symName: __RNCNvMs4_CsdARyWrlPtHl_2ccNtB7_5Build17get_base_compilers_0B7_, symObjAddr: 0x11A30, symBinAddr: 0x10003463C, symSize: 0x194 }
  - { offset: 0x59A25, size: 0x8, addend: 0x0, symName: __RNCNvMs4_CsdARyWrlPtHl_2ccNtB7_5Build17get_base_compilers0_0B7_, symObjAddr: 0x11BC4, symBinAddr: 0x1000347D0, symSize: 0x34 }
  - { offset: 0x59A5B, size: 0x8, addend: 0x0, symName: __RNCNvMs4_CsdARyWrlPtHl_2ccNtB7_5Build8env_tool0B7_, symObjAddr: 0x12938, symBinAddr: 0x100035544, symSize: 0x48 }
  - { offset: 0x59A94, size: 0x8, addend: 0x0, symName: __RNCNvMs4_CsdARyWrlPtHl_2ccNtB7_5Build8env_tools_0B7_, symObjAddr: 0x12980, symBinAddr: 0x10003558C, symSize: 0x48 }
  - { offset: 0x59AE1, size: 0x8, addend: 0x0, symName: __RNCNvMs4_CsdARyWrlPtHl_2ccNtB7_5Build25get_base_archiver_variant0B7_, symObjAddr: 0x15780, symBinAddr: 0x100037D54, symSize: 0x18C }
  - { offset: 0x59B7F, size: 0x8, addend: 0x0, symName: __RNCNvMs4_CsdARyWrlPtHl_2ccNtB7_5Build25get_base_archiver_variants_0B7_, symObjAddr: 0x1590C, symBinAddr: 0x100037EE0, symSize: 0x478 }
  - { offset: 0x59C79, size: 0x8, addend: 0x0, symName: __RNCNCNvMs4_CsdARyWrlPtHl_2ccNtB9_5Build25get_base_archiver_variants_00B9_, symObjAddr: 0x15D84, symBinAddr: 0x100038358, symSize: 0x38 }
  - { offset: 0x59CBA, size: 0x8, addend: 0x0, symName: __RNCNvMs4_CsdARyWrlPtHl_2ccNtB7_5Build25get_base_archiver_variants0_0B7_, symObjAddr: 0x15DBC, symBinAddr: 0x100038390, symSize: 0x2C0 }
  - { offset: 0x59DA0, size: 0x8, addend: 0x0, symName: __RNCNvMs4_CsdARyWrlPtHl_2ccNtB7_5Build25get_base_archiver_variants1_0B7_, symObjAddr: 0x1607C, symBinAddr: 0x100038650, symSize: 0x3C }
  - { offset: 0x59DF4, size: 0x8, addend: 0x0, symName: __RNCNvMs4_CsdARyWrlPtHl_2ccNtB7_5Build17prefix_for_target0B7_, symObjAddr: 0x161A8, symBinAddr: 0x10003877C, symSize: 0xB8 }
  - { offset: 0x59E2D, size: 0x8, addend: 0x0, symName: __RNCNvMs4_CsdARyWrlPtHl_2ccNtB7_5Build17prefix_for_targets_0B7_, symObjAddr: 0x16260, symBinAddr: 0x100038834, symSize: 0x54 }
  - { offset: 0x59E62, size: 0x8, addend: 0x0, symName: __RNCNCNvMs4_CsdARyWrlPtHl_2ccNtB9_5Build17prefix_for_targets_00B9_, symObjAddr: 0x162B4, symBinAddr: 0x100038888, symSize: 0x118 }
  - { offset: 0x59EA3, size: 0x8, addend: 0x0, symName: __RNCNvMs4_CsdARyWrlPtHl_2ccNtB7_5Build17prefix_for_targets0_0B7_, symObjAddr: 0x163CC, symBinAddr: 0x1000389A0, symSize: 0x1DB8 }
  - { offset: 0x59EF3, size: 0x8, addend: 0x0, symName: __RNCNvMs4_CsdARyWrlPtHl_2ccNtB7_5Build23find_working_gnu_prefix0B7_, symObjAddr: 0x182E4, symBinAddr: 0x10003A8B8, symSize: 0x6C }
  - { offset: 0x59F59, size: 0x8, addend: 0x0, symName: __RNCNCNvMs4_CsdARyWrlPtHl_2ccNtB9_5Build23find_working_gnu_prefix00B9_, symObjAddr: 0x18350, symBinAddr: 0x10003A924, symSize: 0x2C4 }
  - { offset: 0x5A027, size: 0x8, addend: 0x0, symName: __RNCNvMs4_CsdARyWrlPtHl_2ccNtB7_5Build23find_working_gnu_prefixs_0B7_, symObjAddr: 0x18614, symBinAddr: 0x10003ABE8, symSize: 0x40 }
  - { offset: 0x5A05D, size: 0x8, addend: 0x0, symName: __RNCNvMs4_CsdARyWrlPtHl_2ccNtB7_5Build9get_debug0B7_, symObjAddr: 0x18C3C, symBinAddr: 0x10003B210, symSize: 0x48 }
  - { offset: 0x5A093, size: 0x8, addend: 0x0, symName: __RNCNvMs4_CsdARyWrlPtHl_2ccNtB7_5Build23get_shell_escaped_flags0B7_, symObjAddr: 0x18CC8, symBinAddr: 0x10003B29C, symSize: 0x48 }
  - { offset: 0x5A0C9, size: 0x8, addend: 0x0, symName: __RNCNvMs4_CsdARyWrlPtHl_2ccNtB7_5Build23get_force_frame_pointer0B7_, symObjAddr: 0x19078, symBinAddr: 0x10003B64C, symSize: 0x38 }
  - { offset: 0x5A0FF, size: 0x8, addend: 0x0, symName: __RNCNvMs4_CsdARyWrlPtHl_2ccNtB7_5Build11get_out_dir0B7_, symObjAddr: 0x191F4, symBinAddr: 0x10003B7C8, symSize: 0x48 }
  - { offset: 0x5A136, size: 0x8, addend: 0x0, symName: __RNvNvMs4_CsdARyWrlPtHl_2ccNtB7_5Build6getenv17provided_by_cargo, symObjAddr: 0x19784, symBinAddr: 0x10003BD58, symSize: 0x2D0 }
  - { offset: 0x5A198, size: 0x8, addend: 0x0, symName: __RNCNvMs4_CsdARyWrlPtHl_2ccNtB7_5Build17getenv_unwrap_str0B7_, symObjAddr: 0x19E98, symBinAddr: 0x10003C46C, symSize: 0x90 }
  - { offset: 0x5A1EC, size: 0x8, addend: 0x0, symName: __RNCNvMs4_CsdARyWrlPtHl_2ccNtB7_5Build27getenv_with_target_prefixes0B7_, symObjAddr: 0x1A658, symBinAddr: 0x10003CC2C, symSize: 0x68 }
  - { offset: 0x5A245, size: 0x8, addend: 0x0, symName: __RNCNvMs4_CsdARyWrlPtHl_2ccNtB7_5Build20apple_sdk_root_inner0B7_, symObjAddr: 0x1B7EC, symBinAddr: 0x10003DDC0, symSize: 0xC4 }
  - { offset: 0x5A2A0, size: 0x8, addend: 0x0, symName: __RNCNCNvMs4_CsdARyWrlPtHl_2ccNtB9_5Build20apple_sdk_root_inner00B9_, symObjAddr: 0x1B8B0, symBinAddr: 0x10003DE84, symSize: 0x48 }
  - { offset: 0x5A2FA, size: 0x8, addend: 0x0, symName: __RNCNvMs4_CsdARyWrlPtHl_2ccNtB7_5Build23apple_deployment_target0B7_, symObjAddr: 0x1C2C4, symBinAddr: 0x10003E898, symSize: 0x2E4 }
  - { offset: 0x5A3A1, size: 0x8, addend: 0x0, symName: __RNCNvMs4_CsdARyWrlPtHl_2ccNtB7_5Build23apple_deployment_targets_0B7_, symObjAddr: 0x1C5A8, symBinAddr: 0x10003EB7C, symSize: 0x17C }
  - { offset: 0x5A423, size: 0x8, addend: 0x0, symName: __RNCNCNvMs4_CsdARyWrlPtHl_2ccNtB9_5Build23apple_deployment_targets_00B9_, symObjAddr: 0x1C724, symBinAddr: 0x10003ECF8, symSize: 0x88 }
  - { offset: 0x5A475, size: 0x8, addend: 0x0, symName: __RNCNCNvMs4_CsdARyWrlPtHl_2ccNtB9_5Build23apple_deployment_targets_0s_0B9_, symObjAddr: 0x1C7AC, symBinAddr: 0x10003ED80, symSize: 0x2C }
  - { offset: 0x5A4AA, size: 0x8, addend: 0x0, symName: __RNCNCNvMs4_CsdARyWrlPtHl_2ccNtB9_5Build23apple_deployment_targets_0s0_0B9_, symObjAddr: 0x1C7D8, symBinAddr: 0x10003EDAC, symSize: 0x48 }
  - { offset: 0x5A4F3, size: 0x8, addend: 0x0, symName: __RNCNvMs4_CsdARyWrlPtHl_2ccNtB7_5Build23apple_deployment_targets0_0B7_, symObjAddr: 0x1C820, symBinAddr: 0x10003EDF4, symSize: 0x3B0 }
  - { offset: 0x5A5A6, size: 0x8, addend: 0x0, symName: __RNCNCNvMs4_CsdARyWrlPtHl_2ccNtB9_5Build23apple_deployment_targets0_00B9_, symObjAddr: 0x1CBD0, symBinAddr: 0x10003F1A4, symSize: 0x7C }
  - { offset: 0x5A5E7, size: 0x8, addend: 0x0, symName: __RNCNvMs4_CsdARyWrlPtHl_2ccNtB7_5Build23apple_deployment_targets1_0B7_, symObjAddr: 0x1CC4C, symBinAddr: 0x10003F220, symSize: 0x168 }
  - { offset: 0x5A640, size: 0x8, addend: 0x0, symName: __RNCNvMs4_CsdARyWrlPtHl_2ccNtB7_5Build23apple_deployment_targets2_0B7_, symObjAddr: 0x1CDB4, symBinAddr: 0x10003F388, symSize: 0x44 }
  - { offset: 0x5A66A, size: 0x8, addend: 0x0, symName: __RNCNvMs4_CsdARyWrlPtHl_2ccNtB7_5Build23apple_deployment_targets3_0B7_, symObjAddr: 0x1CDF8, symBinAddr: 0x10003F3CC, symSize: 0x44 }
  - { offset: 0x5A694, size: 0x8, addend: 0x0, symName: __RNCNvMs4_CsdARyWrlPtHl_2ccNtB7_5Build23apple_deployment_targets4_0B7_, symObjAddr: 0x1CE3C, symBinAddr: 0x10003F410, symSize: 0x44 }
  - { offset: 0x5A6BE, size: 0x8, addend: 0x0, symName: __RNCNvMs4_CsdARyWrlPtHl_2ccNtB7_5Build23apple_deployment_targets5_0B7_, symObjAddr: 0x1CE80, symBinAddr: 0x10003F454, symSize: 0x44 }
  - { offset: 0x5A759, size: 0x8, addend: 0x0, symName: __RNCNvMs4_CsdARyWrlPtHl_2ccNtB7_5Build15cuda_file_count0B7_, symObjAddr: 0x1D1A4, symBinAddr: 0x10003F778, symSize: 0x80 }
  - { offset: 0x5A79F, size: 0x8, addend: 0x0, symName: __RNvNvMs4_CsdARyWrlPtHl_2ccNtB7_5Build5which9check_exe, symObjAddr: 0x1D30C, symBinAddr: 0x10003F8E0, symSize: 0x1B4 }
  - { offset: 0x5A803, size: 0x8, addend: 0x0, symName: __RNCNvMs4_CsdARyWrlPtHl_2ccNtB7_5Build5which0B7_, symObjAddr: 0x1D4C0, symBinAddr: 0x10003FA94, symSize: 0x6C }
  - { offset: 0x5A848, size: 0x8, addend: 0x0, symName: __RNCNCNvMs4_CsdARyWrlPtHl_2ccNtB9_5Build5which00B9_, symObjAddr: 0x1D52C, symBinAddr: 0x10003FB00, symSize: 0xB4 }
  - { offset: 0x5A88A, size: 0x8, addend: 0x0, symName: __RNCNvMs4_CsdARyWrlPtHl_2ccNtB7_5Build5whichs_0B7_, symObjAddr: 0x1D5E0, symBinAddr: 0x10003FBB4, symSize: 0x114 }
  - { offset: 0x5A922, size: 0x8, addend: 0x0, symName: __RNCNvMs4_CsdARyWrlPtHl_2ccNtB7_5Build21windows_registry_find0B7_, symObjAddr: 0x1DAD8, symBinAddr: 0x1000400AC, symSize: 0x64 }
  - { offset: 0x5B891, size: 0x8, addend: 0x0, symName: __RNvCsdARyWrlPtHl_2cc32NEW_STANDALONE_ANDROID_COMPILERS, symObjAddr: 0x24660, symBinAddr: 0x10016BCF8, symSize: 0x0 }
  - { offset: 0x5B8B1, size: 0x8, addend: 0x0, symName: __RNvNvCsdARyWrlPtHl_2cc11is_disabled5CACHE, symObjAddr: 0x71F78, symBinAddr: 0x100184D10, symSize: 0x0 }
  - { offset: 0x5B8BE, size: 0x8, addend: 0x0, symName: __RNvNvCsdARyWrlPtHl_2cc11is_disabled19compute_is_disabled, symObjAddr: 0x1EF38, symBinAddr: 0x1000414E8, symSize: 0x1D0 }
  - { offset: 0x5B964, size: 0x8, addend: 0x0, symName: __RNvXs_CsdARyWrlPtHl_2ccNtB4_5ErrorINtNtCsfvfooZQ3Axs_4core7convert4FromNtNtNtCscOYdFFY2T5N_3std2io5error5ErrorE4from, symObjAddr: 0x320, symBinAddr: 0x100024214, symSize: 0xD0 }
  - { offset: 0x5B9B6, size: 0x8, addend: 0x0, symName: __RNvXs0_CsdARyWrlPtHl_2ccNtB5_5ErrorNtNtCsfvfooZQ3Axs_4core3fmt7Display3fmt, symObjAddr: 0x3F0, symBinAddr: 0x1000242E4, symSize: 0x84 }
  - { offset: 0x5BE3C, size: 0x8, addend: 0x0, symName: __RNvCsdARyWrlPtHl_2cc4fail, symObjAddr: 0x1DC70, symBinAddr: 0x100040220, symSize: 0x64 }
  - { offset: 0x5BE66, size: 0x8, addend: 0x0, symName: __RNvCsdARyWrlPtHl_2cc49android_clang_compiler_uses_target_arg_internally, symObjAddr: 0x1DCD4, symBinAddr: 0x100040284, symSize: 0x15C }
  - { offset: 0x5BED6, size: 0x8, addend: 0x0, symName: __RNvCsdARyWrlPtHl_2cc27autodetect_android_compiler, symObjAddr: 0x1DE30, symBinAddr: 0x1000403E0, symSize: 0x80C }
  - { offset: 0x5C026, size: 0x8, addend: 0x0, symName: __RNCNvCsdARyWrlPtHl_2cc27autodetect_android_compiler0B3_, symObjAddr: 0x1E63C, symBinAddr: 0x100040BEC, symSize: 0x68 }
  - { offset: 0x5C064, size: 0x8, addend: 0x0, symName: __RNCNCNvCsdARyWrlPtHl_2cc27autodetect_android_compiler00B5_, symObjAddr: 0x1E6A4, symBinAddr: 0x100040C54, symSize: 0x58 }
  - { offset: 0x5C0AD, size: 0x8, addend: 0x0, symName: __RNvCsdARyWrlPtHl_2cc52map_darwin_target_from_rust_to_compiler_architecture, symObjAddr: 0x1E6FC, symBinAddr: 0x100040CAC, symSize: 0x3F8 }
  - { offset: 0x5C0F9, size: 0x8, addend: 0x0, symName: __RNvCsdARyWrlPtHl_2cc6is_arm, symObjAddr: 0x1EAF4, symBinAddr: 0x1000410A4, symSize: 0x104 }
  - { offset: 0x5C127, size: 0x8, addend: 0x0, symName: __RNvCsdARyWrlPtHl_2cc11is_disabled, symObjAddr: 0x1EDE8, symBinAddr: 0x100041398, symSize: 0x150 }
  - { offset: 0x5C190, size: 0x8, addend: 0x0, symName: __RNvCsdARyWrlPtHl_2cc14check_disabled, symObjAddr: 0x1F108, symBinAddr: 0x1000416B8, symSize: 0x98 }
  - { offset: 0x5C1B3, size: 0x8, addend: 0x0, symName: __RNvXsa_CsdARyWrlPtHl_2ccNtB5_12CompilerFlagNtNtCsfvfooZQ3Axs_4core3cmp9PartialEq2eqB5_, symObjAddr: 0x1F1A0, symBinAddr: 0x100041750, symSize: 0x60 }
  - { offset: 0x5C1F6, size: 0x8, addend: 0x0, symName: __RINvXsb_CsdARyWrlPtHl_2ccNtB6_12CompilerFlagNtNtCsfvfooZQ3Axs_4core4hash4Hash4hashNtNtNtCscOYdFFY2T5N_3std4hash6random13DefaultHasherEB6_, symObjAddr: 0x1F200, symBinAddr: 0x1000417B0, symSize: 0x40 }
  - { offset: 0x5C23E, size: 0x8, addend: 0x0, symName: __RNvXsd_CsdARyWrlPtHl_2ccNtB5_10BuildCacheNtNtCsfvfooZQ3Axs_4core7default7Default7defaultB5_, symObjAddr: 0x1F240, symBinAddr: 0x1000417F0, symSize: 0x180 }
  - { offset: 0x5C262, size: 0x8, addend: 0x0, symName: __RNvXsg_CsdARyWrlPtHl_2ccNtB5_9ErrorKindNtNtCsfvfooZQ3Axs_4core5clone5Clone5cloneB5_, symObjAddr: 0x1F3C0, symBinAddr: 0x100041970, symSize: 0x13C }
  - { offset: 0x5C296, size: 0x8, addend: 0x0, symName: __RNvXsh_CsdARyWrlPtHl_2ccNtB5_9ErrorKindNtNtCsfvfooZQ3Axs_4core3fmt5Debug3fmtB5_, symObjAddr: 0x1F4FC, symBinAddr: 0x100041AAC, symSize: 0x1E4 }
  - { offset: 0x5C2D9, size: 0x8, addend: 0x0, symName: __RNvXsi_CsdARyWrlPtHl_2ccNtB5_5ErrorNtNtCsfvfooZQ3Axs_4core5clone5Clone5cloneB5_, symObjAddr: 0x1F6E0, symBinAddr: 0x100041C90, symSize: 0x5C }
  - { offset: 0x5C30D, size: 0x8, addend: 0x0, symName: __RNvXsj_CsdARyWrlPtHl_2ccNtB5_5ErrorNtNtCsfvfooZQ3Axs_4core3fmt5Debug3fmtB5_, symObjAddr: 0x1F73C, symBinAddr: 0x100041CEC, symSize: 0x88 }
  - { offset: 0x5C350, size: 0x8, addend: 0x0, symName: __RNvXsp_CsdARyWrlPtHl_2ccNtB5_10AsmFileExtNtNtCsfvfooZQ3Axs_4core3cmp9PartialEq2eqB5_, symObjAddr: 0x1F7C4, symBinAddr: 0x100041D74, symSize: 0x3C }
  - { offset: 0x6069B, size: 0x8, addend: 0x0, symName: __RINvXs3_NtNtCsfvfooZQ3Axs_4core4hash5implsRNtCsdARyWrlPtHl_2cc12CompilerFlagNtB8_4Hash4hashNtNtNtCscOYdFFY2T5N_3std4hash6random13DefaultHasherEBH_, symObjAddr: 0x0, symBinAddr: 0x100023EF4, symSize: 0x30 }
  - { offset: 0x607B5, size: 0x8, addend: 0x0, symName: __RNvMNtCsfvfooZQ3Axs_4core5sliceSNtCsdARyWrlPtHl_2cc6Object4iterBw_, symObjAddr: 0x30, symBinAddr: 0x100023F24, symSize: 0x28 }
  - { offset: 0x60872, size: 0x8, addend: 0x0, symName: __RNvXs_NtNtCsfvfooZQ3Axs_4core5slice4iterRSNtCsdARyWrlPtHl_2cc6ObjectNtNtNtNtB8_4iter6traits7collect12IntoIterator9into_iterBG_, symObjAddr: 0x1E8, symBinAddr: 0x1000240DC, symSize: 0x58 }
  - { offset: 0x60BF6, size: 0x8, addend: 0x0, symName: __RNvXNtCsfvfooZQ3Axs_4core6borrowNtCsdARyWrlPtHl_2cc12CompilerFlagINtB2_6BorrowBu_E6borrowBw_, symObjAddr: 0xA8, symBinAddr: 0x100023F9C, symSize: 0x14 }
  - { offset: 0x60C3C, size: 0x8, addend: 0x0, symName: __RNvXs1_NtNtCsfvfooZQ3Axs_4core3ops5derefQNCNvMs4_CsdARyWrlPtHl_2ccNtBL_5Build15compile_objects0NtB5_8DerefMut9deref_mutBL_, symObjAddr: 0xBC, symBinAddr: 0x100023FB0, symSize: 0x18 }
  - { offset: 0x60C73, size: 0x8, addend: 0x0, symName: __RNvXs1_NtNtCsfvfooZQ3Axs_4core3ops5derefQNCNvMs4_CsdARyWrlPtHl_2ccNtBL_5Build15compile_objectss_0NtB5_8DerefMut9deref_mutBL_, symObjAddr: 0xD4, symBinAddr: 0x100023FC8, symSize: 0x18 }
  - { offset: 0x60CBB, size: 0x8, addend: 0x0, symName: __RNvXs1_NtNtNtCsfvfooZQ3Axs_4core3ops8function5implsQNCNvMs4_CsdARyWrlPtHl_2ccNtBW_5Build25get_base_archiver_variants0_0INtB7_5FnMutTRReEE8call_mutBW_, symObjAddr: 0xEC, symBinAddr: 0x100023FE0, symSize: 0x30 }
  - { offset: 0x60D0A, size: 0x8, addend: 0x0, symName: __RNvXs1_NtNtNtCsfvfooZQ3Axs_4core3ops8function5implsQNCNvMs4_CsdARyWrlPtHl_2ccNtBW_5Build27getenv_with_target_prefixes0INtB7_5FnMutTRNtNtCse1nGBsou5OW_5alloc6string6StringEE8call_mutBW_, symObjAddr: 0x11C, symBinAddr: 0x100024010, symSize: 0x30 }
  - { offset: 0x60D5F, size: 0x8, addend: 0x0, symName: __RNvXs2_NtNtNtCsfvfooZQ3Axs_4core3ops8function5implsQNCNCNvMs4_CsdARyWrlPtHl_2ccNtBY_5Build23apple_deployment_targets0_00INtB7_6FnOnceTReEE9call_onceBY_, symObjAddr: 0x14C, symBinAddr: 0x100024040, symSize: 0x34 }
  - { offset: 0x60DAE, size: 0x8, addend: 0x0, symName: __RNvXs2_NtNtNtCsfvfooZQ3Axs_4core3ops8function5implsQNCNvMs4_CsdARyWrlPtHl_2ccNtBW_5Build8env_tool0INtB7_6FnOnceTReEE9call_onceBW_, symObjAddr: 0x180, symBinAddr: 0x100024074, symSize: 0x34 }
  - { offset: 0x60DFD, size: 0x8, addend: 0x0, symName: __RNvXs2_NtNtNtCsfvfooZQ3Axs_4core3ops8function5implsQNCNvMs4_CsdARyWrlPtHl_2ccNtBW_5Build8env_tools_0INtB7_6FnOnceTReEE9call_onceBW_, symObjAddr: 0x1B4, symBinAddr: 0x1000240A8, symSize: 0x34 }
  - { offset: 0x62DA0, size: 0x8, addend: 0x0, symName: __RNvXCsloNvcHxBCre_9hashbrownNtCsdARyWrlPtHl_2cc12CompilerFlagINtB2_10EquivalentBq_E10equivalentBs_, symObjAddr: 0x58, symBinAddr: 0x100023F4C, symSize: 0x50 }
  - { offset: 0x63293, size: 0x8, addend: 0x0, symName: __RINvMCsdARyWrlPtHl_2ccNtB3_5Error3newNtNtCse1nGBsou5OW_5alloc6string6StringEB3_, symObjAddr: 0x240, symBinAddr: 0x100024134, symSize: 0x68 }
  - { offset: 0x632CF, size: 0x8, addend: 0x0, symName: __RINvMCsdARyWrlPtHl_2ccNtB3_5Error3newReEB3_, symObjAddr: 0x2A8, symBinAddr: 0x10002419C, symSize: 0x78 }
  - { offset: 0x6330A, size: 0x8, addend: 0x0, symName: __RNvMs2_CsdARyWrlPtHl_2ccNtB5_6Object3new, symObjAddr: 0x474, symBinAddr: 0x100024368, symSize: 0x38 }
  - { offset: 0x6333C, size: 0x8, addend: 0x0, symName: __RNvMs3_CsdARyWrlPtHl_2ccNtB5_5Build3new, symObjAddr: 0x4AC, symBinAddr: 0x1000243A0, symSize: 0x4C8 }
  - { offset: 0x6337A, size: 0x8, addend: 0x0, symName: __RINvMs3_CsdARyWrlPtHl_2ccNtB6_5Build4flagRNtNtNtCscOYdFFY2T5N_3std3ffi6os_str5OsStrEB6_, symObjAddr: 0x974, symBinAddr: 0x100024868, symSize: 0xAC }
  - { offset: 0x63405, size: 0x8, addend: 0x0, symName: __RNvMs3_CsdARyWrlPtHl_2ccNtB5_5Build3cpp, symObjAddr: 0xEF0, symBinAddr: 0x100024914, symSize: 0x2C }
  - { offset: 0x63437, size: 0x8, addend: 0x0, symName: __RNvMs3_CsdARyWrlPtHl_2ccNtB5_5Build4cuda, symObjAddr: 0xF1C, symBinAddr: 0x100024940, symSize: 0xE4 }
  - { offset: 0x63469, size: 0x8, addend: 0x0, symName: __RNvMs3_CsdARyWrlPtHl_2ccNtB5_5Build8warnings, symObjAddr: 0x11E4, symBinAddr: 0x100024A24, symSize: 0x40 }
  - { offset: 0x6349B, size: 0x8, addend: 0x0, symName: __RNvMs3_CsdARyWrlPtHl_2ccNtB5_5Build6target, symObjAddr: 0x1284, symBinAddr: 0x100024A64, symSize: 0xB0 }
  - { offset: 0x634CD, size: 0x8, addend: 0x0, symName: __RNvMs3_CsdARyWrlPtHl_2ccNtB5_5Build4host, symObjAddr: 0x1334, symBinAddr: 0x100024B14, symSize: 0xB0 }
  - { offset: 0x634FF, size: 0x8, addend: 0x0, symName: __RNvMs3_CsdARyWrlPtHl_2ccNtB5_5Build9opt_level, symObjAddr: 0x13E4, symBinAddr: 0x100024BC4, symSize: 0xB4 }
  - { offset: 0x63531, size: 0x8, addend: 0x0, symName: __RNvMs3_CsdARyWrlPtHl_2ccNtB5_5Build5debug, symObjAddr: 0x1548, symBinAddr: 0x100024C78, symSize: 0x34 }
  - { offset: 0x63563, size: 0x8, addend: 0x0, symName: __RINvMs3_CsdARyWrlPtHl_2ccNtB6_5Build8compilerRNtNtCscOYdFFY2T5N_3std4path4PathEB6_, symObjAddr: 0x15B0, symBinAddr: 0x100024CAC, symSize: 0xE4 }
  - { offset: 0x6359E, size: 0x8, addend: 0x0, symName: __RNvMs3_CsdARyWrlPtHl_2ccNtB5_5Build14cargo_metadata, symObjAddr: 0x1694, symBinAddr: 0x100024D90, symSize: 0x2C }
  - { offset: 0x635D0, size: 0x8, addend: 0x0, symName: __RNvMs3_CsdARyWrlPtHl_2ccNtB5_5Build25emit_rerun_if_env_changed, symObjAddr: 0x17E4, symBinAddr: 0x100024DBC, symSize: 0x2C }
  - { offset: 0x63602, size: 0x8, addend: 0x0, symName: __RNvMs3_CsdARyWrlPtHl_2ccNtB5_5Build17inherit_rustflags, symObjAddr: 0x1878, symBinAddr: 0x100024DE8, symSize: 0x2C }
  - { offset: 0x63634, size: 0x8, addend: 0x0, symName: __RNvMs4_CsdARyWrlPtHl_2ccNtB5_5Build17ensure_check_file, symObjAddr: 0x18A4, symBinAddr: 0x100024E14, symSize: 0x420 }
  - { offset: 0x637F8, size: 0x8, addend: 0x0, symName: __RNvMs4_CsdARyWrlPtHl_2ccNtB5_5Build23is_flag_supported_inner, symObjAddr: 0x1CC4, symBinAddr: 0x100025234, symSize: 0xE9C }
  - { offset: 0x63B35, size: 0x8, addend: 0x0, symName: __RNvMs4_CsdARyWrlPtHl_2ccNtB5_5Build11try_compile, symObjAddr: 0x2B60, symBinAddr: 0x1000260D0, symSize: 0x1940 }
  - { offset: 0x63EFF, size: 0x8, addend: 0x0, symName: __RNvMs4_CsdARyWrlPtHl_2ccNtB5_5Build7compile, symObjAddr: 0x4684, symBinAddr: 0x100027BF4, symSize: 0xDC }
  - { offset: 0x63F47, size: 0x8, addend: 0x0, symName: __RNvMs4_CsdARyWrlPtHl_2ccNtB5_5Build15compile_objects, symObjAddr: 0x4BA8, symBinAddr: 0x100027CD0, symSize: 0x210 }
  - { offset: 0x6441B, size: 0x8, addend: 0x0, symName: __RNvMs4_CsdARyWrlPtHl_2ccNtB5_5Build26compile_objects_sequential, symObjAddr: 0x5F38, symBinAddr: 0x100029060, symSize: 0x250 }
  - { offset: 0x64609, size: 0x8, addend: 0x0, symName: __RNvMs4_CsdARyWrlPtHl_2ccNtB5_5Build25create_compile_object_cmd, symObjAddr: 0x6188, symBinAddr: 0x1000292B0, symSize: 0x88C }
  - { offset: 0x64819, size: 0x8, addend: 0x0, symName: __RNvMs4_CsdARyWrlPtHl_2ccNtB5_5Build12get_compiler, symObjAddr: 0x6F30, symBinAddr: 0x100029B3C, symSize: 0xF8 }
  - { offset: 0x64853, size: 0x8, addend: 0x0, symName: __RNvMs4_CsdARyWrlPtHl_2ccNtB5_5Build16try_get_compiler, symObjAddr: 0x7028, symBinAddr: 0x100029C34, symSize: 0x1238 }
  - { offset: 0x64C14, size: 0x8, addend: 0x0, symName: __RNvMs4_CsdARyWrlPtHl_2ccNtB5_5Build17add_default_flags, symObjAddr: 0x8260, symBinAddr: 0x10002AE6C, symSize: 0x48F8 }
  - { offset: 0x65081, size: 0x8, addend: 0x0, symName: __RNvMs4_CsdARyWrlPtHl_2ccNtB5_5Build23add_inherited_rustflags, symObjAddr: 0xCB58, symBinAddr: 0x10002F764, symSize: 0x24C }
  - { offset: 0x65164, size: 0x8, addend: 0x0, symName: __RNvMs4_CsdARyWrlPtHl_2ccNtB5_5Build20msvc_macro_assembler, symObjAddr: 0xCDA4, symBinAddr: 0x10002F9B0, symSize: 0xC24 }
  - { offset: 0x653B3, size: 0x8, addend: 0x0, symName: __RNvMs4_CsdARyWrlPtHl_2ccNtB5_5Build8assemble, symObjAddr: 0xDA10, symBinAddr: 0x10003061C, symSize: 0xA90 }
  - { offset: 0x65629, size: 0x8, addend: 0x0, symName: __RNvMs4_CsdARyWrlPtHl_2ccNtB5_5Build20assemble_progressive, symObjAddr: 0xE594, symBinAddr: 0x1000311A0, symSize: 0x5F8 }
  - { offset: 0x65765, size: 0x8, addend: 0x0, symName: __RNvMs4_CsdARyWrlPtHl_2ccNtB5_5Build11apple_flags, symObjAddr: 0xEB8C, symBinAddr: 0x100031798, symSize: 0x9B0 }
  - { offset: 0x658BC, size: 0x8, addend: 0x0, symName: __RINvMs4_CsdARyWrlPtHl_2ccNtB6_5Build3cmdNtNtCscOYdFFY2T5N_3std4path7PathBufEB6_, symObjAddr: 0xF53C, symBinAddr: 0x100032148, symSize: 0x170 }
  - { offset: 0x65954, size: 0x8, addend: 0x0, symName: __RINvMs4_CsdARyWrlPtHl_2ccNtB6_5Build3cmdRNtNtCscOYdFFY2T5N_3std4path4PathEB6_, symObjAddr: 0xF6AC, symBinAddr: 0x1000322B8, symSize: 0x180 }
  - { offset: 0x659F9, size: 0x8, addend: 0x0, symName: __RINvMs4_CsdARyWrlPtHl_2ccNtB6_5Build3cmdRNtNtCscOYdFFY2T5N_3std4path7PathBufEB6_, symObjAddr: 0xF82C, symBinAddr: 0x100032438, symSize: 0x178 }
  - { offset: 0x65A90, size: 0x8, addend: 0x0, symName: __RINvMs4_CsdARyWrlPtHl_2ccNtB6_5Build3cmdReEB6_, symObjAddr: 0xF9A4, symBinAddr: 0x1000325B0, symSize: 0x180 }
  - { offset: 0x65B28, size: 0x8, addend: 0x0, symName: __RNvMs4_CsdARyWrlPtHl_2ccNtB5_5Build17get_base_compiler, symObjAddr: 0xFB24, symBinAddr: 0x100032730, symSize: 0x1AFC }
  - { offset: 0x65F13, size: 0x8, addend: 0x0, symName: __RNvMs4_CsdARyWrlPtHl_2ccNtB5_5Build22rustc_wrapper_fallback, symObjAddr: 0x11BF8, symBinAddr: 0x100034804, symSize: 0x2DC }
  - { offset: 0x66083, size: 0x8, addend: 0x0, symName: __RNvMs4_CsdARyWrlPtHl_2ccNtB5_5Build8env_tool, symObjAddr: 0x11ED4, symBinAddr: 0x100034AE0, symSize: 0xA64 }
  - { offset: 0x66284, size: 0x8, addend: 0x0, symName: __RNvMs4_CsdARyWrlPtHl_2ccNtB5_5Build19get_cpp_link_stdlib, symObjAddr: 0x129C8, symBinAddr: 0x1000355D4, symSize: 0x720 }
  - { offset: 0x66331, size: 0x8, addend: 0x0, symName: __RNvMs4_CsdARyWrlPtHl_2ccNtB5_5Build16try_get_archiver, symObjAddr: 0x131D4, symBinAddr: 0x100035CF4, symSize: 0x120 }
  - { offset: 0x663BB, size: 0x8, addend: 0x0, symName: __RNvMs4_CsdARyWrlPtHl_2ccNtB5_5Build26try_get_archiver_and_flags, symObjAddr: 0x132F4, symBinAddr: 0x100035E14, symSize: 0x3E8 }
  - { offset: 0x664DC, size: 0x8, addend: 0x0, symName: __RNvMs4_CsdARyWrlPtHl_2ccNtB5_5Build17get_base_archiver, symObjAddr: 0x136DC, symBinAddr: 0x1000361FC, symSize: 0x15C }
  - { offset: 0x6652B, size: 0x8, addend: 0x0, symName: __RNvMs4_CsdARyWrlPtHl_2ccNtB5_5Build25get_base_archiver_variant, symObjAddr: 0x13D84, symBinAddr: 0x100036358, symSize: 0x19FC }
  - { offset: 0x668E6, size: 0x8, addend: 0x0, symName: __RNvMs4_CsdARyWrlPtHl_2ccNtB5_5Build17prefix_for_target, symObjAddr: 0x160B8, symBinAddr: 0x10003868C, symSize: 0xF0 }
  - { offset: 0x66918, size: 0x8, addend: 0x0, symName: __RNvMs4_CsdARyWrlPtHl_2ccNtB5_5Build23find_working_gnu_prefix, symObjAddr: 0x18184, symBinAddr: 0x10003A758, symSize: 0x160 }
  - { offset: 0x66979, size: 0x8, addend: 0x0, symName: __RNvMs4_CsdARyWrlPtHl_2ccNtB5_5Build10get_target, symObjAddr: 0x18654, symBinAddr: 0x10003AC28, symSize: 0x180 }
  - { offset: 0x669CB, size: 0x8, addend: 0x0, symName: __RNvMs4_CsdARyWrlPtHl_2ccNtB5_5Build14get_raw_target, symObjAddr: 0x187D4, symBinAddr: 0x10003ADA8, symSize: 0xD4 }
  - { offset: 0x66A0C, size: 0x8, addend: 0x0, symName: __RNvMs4_CsdARyWrlPtHl_2ccNtB5_5Build20get_is_cross_compile, symObjAddr: 0x188A8, symBinAddr: 0x10003AE7C, symSize: 0x27C }
  - { offset: 0x66AD0, size: 0x8, addend: 0x0, symName: __RNvMs4_CsdARyWrlPtHl_2ccNtB5_5Build13get_opt_level, symObjAddr: 0x18B24, symBinAddr: 0x10003B0F8, symSize: 0xD4 }
  - { offset: 0x66B11, size: 0x8, addend: 0x0, symName: __RNvMs4_CsdARyWrlPtHl_2ccNtB5_5Build9get_debug, symObjAddr: 0x18BF8, symBinAddr: 0x10003B1CC, symSize: 0x44 }
  - { offset: 0x66B34, size: 0x8, addend: 0x0, symName: __RNvMs4_CsdARyWrlPtHl_2ccNtB5_5Build23get_shell_escaped_flags, symObjAddr: 0x18C84, symBinAddr: 0x10003B258, symSize: 0x44 }
  - { offset: 0x66B57, size: 0x8, addend: 0x0, symName: __RNvMs4_CsdARyWrlPtHl_2ccNtB5_5Build17get_dwarf_version, symObjAddr: 0x18D10, symBinAddr: 0x10003B2E4, symSize: 0x324 }
  - { offset: 0x66BCD, size: 0x8, addend: 0x0, symName: __RNvMs4_CsdARyWrlPtHl_2ccNtB5_5Build23get_force_frame_pointer, symObjAddr: 0x19034, symBinAddr: 0x10003B608, symSize: 0x44 }
  - { offset: 0x66BF0, size: 0x8, addend: 0x0, symName: __RNvMs4_CsdARyWrlPtHl_2ccNtB5_5Build11get_out_dir, symObjAddr: 0x190B0, symBinAddr: 0x10003B684, symSize: 0x144 }
  - { offset: 0x66CB7, size: 0x8, addend: 0x0, symName: __RNvMs4_CsdARyWrlPtHl_2ccNtB5_5Build6getenv, symObjAddr: 0x1923C, symBinAddr: 0x10003B810, symSize: 0x548 }
  - { offset: 0x66D84, size: 0x8, addend: 0x0, symName: __RNvMs4_CsdARyWrlPtHl_2ccNtB5_5Build14getenv_boolean, symObjAddr: 0x19A54, symBinAddr: 0x10003C028, symSize: 0x1CC }
  - { offset: 0x66DCD, size: 0x8, addend: 0x0, symName: __RNvMs4_CsdARyWrlPtHl_2ccNtB5_5Build13getenv_unwrap, symObjAddr: 0x19C20, symBinAddr: 0x10003C1F4, symSize: 0x120 }
  - { offset: 0x66E3C, size: 0x8, addend: 0x0, symName: __RNvMs4_CsdARyWrlPtHl_2ccNtB5_5Build17getenv_unwrap_str, symObjAddr: 0x19D40, symBinAddr: 0x10003C314, symSize: 0x158 }
  - { offset: 0x66ECF, size: 0x8, addend: 0x0, symName: __RNvMs4_CsdARyWrlPtHl_2ccNtB5_5Build11target_envs, symObjAddr: 0x19F28, symBinAddr: 0x10003C4FC, symSize: 0x46C }
  - { offset: 0x67008, size: 0x8, addend: 0x0, symName: __RNvMs4_CsdARyWrlPtHl_2ccNtB5_5Build27getenv_with_target_prefixes, symObjAddr: 0x1A394, symBinAddr: 0x10003C968, symSize: 0x2C4 }
  - { offset: 0x670D6, size: 0x8, addend: 0x0, symName: __RNvMs4_CsdARyWrlPtHl_2ccNtB5_5Build8envflags, symObjAddr: 0x1A6C0, symBinAddr: 0x10003CC94, symSize: 0x52C }
  - { offset: 0x671DC, size: 0x8, addend: 0x0, symName: __RNvMs4_CsdARyWrlPtHl_2ccNtB5_5Build20fix_env_for_apple_os, symObjAddr: 0x1ABEC, symBinAddr: 0x10003D1C0, symSize: 0x158 }
  - { offset: 0x67262, size: 0x8, addend: 0x0, symName: __RNvMs4_CsdARyWrlPtHl_2ccNtB5_5Build20apple_sdk_root_inner, symObjAddr: 0x1AD44, symBinAddr: 0x10003D318, symSize: 0xAA8 }
  - { offset: 0x67364, size: 0x8, addend: 0x0, symName: __RNvMs4_CsdARyWrlPtHl_2ccNtB5_5Build14apple_sdk_root, symObjAddr: 0x1B8F8, symBinAddr: 0x10003DECC, symSize: 0x3CC }
  - { offset: 0x67419, size: 0x8, addend: 0x0, symName: __RNvMs4_CsdARyWrlPtHl_2ccNtB5_5Build23apple_deployment_target, symObjAddr: 0x1BCC4, symBinAddr: 0x10003E298, symSize: 0x600 }
  - { offset: 0x674F4, size: 0x8, addend: 0x0, symName: __RNvMs4_CsdARyWrlPtHl_2ccNtB5_5Build17wasm_musl_sysroot, symObjAddr: 0x1CEC4, symBinAddr: 0x10003F498, symSize: 0x150 }
  - { offset: 0x67535, size: 0x8, addend: 0x0, symName: __RNvMs4_CsdARyWrlPtHl_2ccNtB5_5Build12wasi_sysroot, symObjAddr: 0x1D014, symBinAddr: 0x10003F5E8, symSize: 0x150 }
  - { offset: 0x67576, size: 0x8, addend: 0x0, symName: __RNvMs4_CsdARyWrlPtHl_2ccNtB5_5Build15cuda_file_count, symObjAddr: 0x1D164, symBinAddr: 0x10003F738, symSize: 0x40 }
  - { offset: 0x67599, size: 0x8, addend: 0x0, symName: __RNvMs4_CsdARyWrlPtHl_2ccNtB5_5Build5which, symObjAddr: 0x1D224, symBinAddr: 0x10003F7F8, symSize: 0xE8 }
  - { offset: 0x67600, size: 0x8, addend: 0x0, symName: __RNvMs4_CsdARyWrlPtHl_2ccNtB5_5Build15search_programs, symObjAddr: 0x1D6F4, symBinAddr: 0x10003FCC8, symSize: 0x384 }
  - { offset: 0x6771A, size: 0x8, addend: 0x0, symName: __RNvMs4_CsdARyWrlPtHl_2ccNtB5_5Build21windows_registry_find, symObjAddr: 0x1DA78, symBinAddr: 0x10004004C, symSize: 0x60 }
  - { offset: 0x6775B, size: 0x8, addend: 0x0, symName: __RNvMs4_CsdARyWrlPtHl_2ccNtB5_5Build26windows_registry_find_tool, symObjAddr: 0x1DB3C, symBinAddr: 0x100040110, symSize: 0xC0 }
  - { offset: 0x6779C, size: 0x8, addend: 0x0, symName: __RNvMs6_CsdARyWrlPtHl_2ccNtB5_10AsmFileExt9from_path, symObjAddr: 0x1EBF8, symBinAddr: 0x1000411A8, symSize: 0x1F0 }
  - { offset: 0x67C4B, size: 0x8, addend: 0x0, symName: __RINvMs6_NtCsloNvcHxBCre_9hashbrown3rawINtB6_8RawTableTINtNtCse1nGBsou5OW_5alloc5boxed3BoxSIBR_NtNtNtCscOYdFFY2T5N_3std3ffi6os_str5OsStrEENtNtCsdARyWrlPtHl_2cc4tool10ToolFamilyEE14reserve_rehashNCINvNtB8_3map11make_hasherBQ_B2b_NtNtNtB1A_4hash6random11RandomStateE0EB2f_, symObjAddr: 0x0, symBinAddr: 0x1000FD980, symSize: 0x840 }
  - { offset: 0x67C87, size: 0x8, addend: 0x0, symName: __RNCINvMs6_NtCsloNvcHxBCre_9hashbrown3rawINtB8_8RawTableTINtNtCse1nGBsou5OW_5alloc5boxed3BoxSIBT_NtNtNtCscOYdFFY2T5N_3std3ffi6os_str5OsStrEENtNtCsdARyWrlPtHl_2cc4tool10ToolFamilyEE14reserve_rehashNCINvNtBa_3map11make_hasherBS_B2d_NtNtNtB1C_4hash6random11RandomStateE0E0B2h_, symObjAddr: 0x5C10, symBinAddr: 0x100045090, symSize: 0xC0 }
  - { offset: 0x67E44, size: 0x8, addend: 0x0, symName: __RNCINvMs6_NtCsloNvcHxBCre_9hashbrown3rawINtB8_8RawTableTINtNtCse1nGBsou5OW_5alloc5boxed3BoxSIBT_NtNtNtCscOYdFFY2T5N_3std3ffi6os_str5OsStrEENtNtCsdARyWrlPtHl_2cc4tool10ToolFamilyEE14reserve_rehashNCINvNtBa_3map11make_hasherBS_B2d_NtNtNtB1C_4hash6random11RandomStateE0Es_0B2h_, symObjAddr: 0x5CD0, symBinAddr: 0x100045150, symSize: 0x30 }
  - { offset: 0x67E94, size: 0x8, addend: 0x0, symName: __RNCINvMs6_NtCsloNvcHxBCre_9hashbrown3rawINtB8_8RawTableTINtNtCse1nGBsou5OW_5alloc5boxed3BoxeEINtNtBX_4sync3ArcNtNtNtCscOYdFFY2T5N_3std3ffi6os_str5OsStrEEE14reserve_rehashNCINvNtBa_3map11make_hasherBS_B1t_NtNtNtB1Q_4hash6random11RandomStateE0E0CsdARyWrlPtHl_2cc, symObjAddr: 0x5E88, symBinAddr: 0x100045308, symSize: 0xC0 }
  - { offset: 0x68051, size: 0x8, addend: 0x0, symName: __RNCINvMs6_NtCsloNvcHxBCre_9hashbrown3rawINtB8_8RawTableTINtNtCse1nGBsou5OW_5alloc5boxed3BoxeEINtNtBX_4sync3ArcNtNtNtCscOYdFFY2T5N_3std3ffi6os_str5OsStrEEE14reserve_rehashNCINvNtBa_3map11make_hasherBS_B1t_NtNtNtB1Q_4hash6random11RandomStateE0Es_0CsdARyWrlPtHl_2cc, symObjAddr: 0x5F48, symBinAddr: 0x1000453C8, symSize: 0x30 }
  - { offset: 0x680A1, size: 0x8, addend: 0x0, symName: __RNCINvMs6_NtCsloNvcHxBCre_9hashbrown3rawINtB8_8RawTableTINtNtCse1nGBsou5OW_5alloc5boxed3BoxeEINtNtBX_4sync3ArceEEE14reserve_rehashNCINvNtBa_3map11make_hasherBS_B1t_NtNtNtCscOYdFFY2T5N_3std4hash6random11RandomStateE0E0CsdARyWrlPtHl_2cc, symObjAddr: 0x6100, symBinAddr: 0x100045580, symSize: 0xC0 }
  - { offset: 0x6825E, size: 0x8, addend: 0x0, symName: __RNCINvMs6_NtCsloNvcHxBCre_9hashbrown3rawINtB8_8RawTableTINtNtCse1nGBsou5OW_5alloc5boxed3BoxeEINtNtBX_4sync3ArceEEE14reserve_rehashNCINvNtBa_3map11make_hasherBS_B1t_NtNtNtCscOYdFFY2T5N_3std4hash6random11RandomStateE0Es_0CsdARyWrlPtHl_2cc, symObjAddr: 0x61C0, symBinAddr: 0x100045640, symSize: 0x30 }
  - { offset: 0x682AE, size: 0x8, addend: 0x0, symName: __RNCINvMs6_NtCsloNvcHxBCre_9hashbrown3rawINtB8_8RawTableTINtNtCse1nGBsou5OW_5alloc5boxed3BoxeEINtNtCsfvfooZQ3Axs_4core6option6OptionINtNtBX_4sync3ArcNtNtNtCscOYdFFY2T5N_3std3ffi6os_str5OsStrEEEE14reserve_rehashNCINvNtBa_3map11make_hasherBS_B1t_NtNtNtB2s_4hash6random11RandomStateE0E0CsdARyWrlPtHl_2cc, symObjAddr: 0x6378, symBinAddr: 0x1000457F8, symSize: 0xC0 }
  - { offset: 0x6846B, size: 0x8, addend: 0x0, symName: __RNCINvMs6_NtCsloNvcHxBCre_9hashbrown3rawINtB8_8RawTableTINtNtCse1nGBsou5OW_5alloc5boxed3BoxeEINtNtCsfvfooZQ3Axs_4core6option6OptionINtNtBX_4sync3ArcNtNtNtCscOYdFFY2T5N_3std3ffi6os_str5OsStrEEEE14reserve_rehashNCINvNtBa_3map11make_hasherBS_B1t_NtNtNtB2s_4hash6random11RandomStateE0Es_0CsdARyWrlPtHl_2cc, symObjAddr: 0x6438, symBinAddr: 0x1000458B8, symSize: 0x30 }
  - { offset: 0x684BB, size: 0x8, addend: 0x0, symName: __RNCINvMs6_NtCsloNvcHxBCre_9hashbrown3rawINtB8_8RawTableTNtCsdARyWrlPtHl_2cc12CompilerFlagbEE14reserve_rehashNCINvNtBa_3map11make_hasherBS_bNtNtNtCscOYdFFY2T5N_3std4hash6random11RandomStateE0E0BU_, symObjAddr: 0x65F0, symBinAddr: 0x100045A70, symSize: 0xC0 }
  - { offset: 0x68678, size: 0x8, addend: 0x0, symName: __RNCINvMs6_NtCsloNvcHxBCre_9hashbrown3rawINtB8_8RawTableTNtCsdARyWrlPtHl_2cc12CompilerFlagbEE14reserve_rehashNCINvNtBa_3map11make_hasherBS_bNtNtNtCscOYdFFY2T5N_3std4hash6random11RandomStateE0Es_0BU_, symObjAddr: 0x66B0, symBinAddr: 0x100045B30, symSize: 0x30 }
  - { offset: 0x686F1, size: 0x8, addend: 0x0, symName: __RNCINvMs6_NtCsloNvcHxBCre_9hashbrown3rawINtB8_8RawTableTINtNtCse1nGBsou5OW_5alloc5boxed3BoxSIBT_NtNtNtCscOYdFFY2T5N_3std3ffi6os_str5OsStrEENtNtCsdARyWrlPtHl_2cc4tool10ToolFamilyEE24find_or_find_insert_slotNCINvNtBa_3map14equivalent_keyBS_BS_B2d_E0NCINvB3m_11make_hasherBS_B2d_NtNtNtB1C_4hash6random11RandomStateE0E0B2h_, symObjAddr: 0x5D00, symBinAddr: 0x100045180, symSize: 0xC4 }
  - { offset: 0x688BE, size: 0x8, addend: 0x0, symName: __RNCINvMs6_NtCsloNvcHxBCre_9hashbrown3rawINtB8_8RawTableTINtNtCse1nGBsou5OW_5alloc5boxed3BoxeEINtNtBX_4sync3ArcNtNtNtCscOYdFFY2T5N_3std3ffi6os_str5OsStrEEE24find_or_find_insert_slotNCINvNtBa_3map14equivalent_keyBS_BS_B1t_E0NCINvB2X_11make_hasherBS_B1t_NtNtNtB1Q_4hash6random11RandomStateE0E0CsdARyWrlPtHl_2cc, symObjAddr: 0x5F78, symBinAddr: 0x1000453F8, symSize: 0xC4 }
  - { offset: 0x68A8B, size: 0x8, addend: 0x0, symName: __RNCINvMs6_NtCsloNvcHxBCre_9hashbrown3rawINtB8_8RawTableTINtNtCse1nGBsou5OW_5alloc5boxed3BoxeEINtNtBX_4sync3ArceEEE24find_or_find_insert_slotNCINvNtBa_3map14equivalent_keyBS_BS_B1t_E0NCINvB2j_11make_hasherBS_B1t_NtNtNtCscOYdFFY2T5N_3std4hash6random11RandomStateE0E0CsdARyWrlPtHl_2cc, symObjAddr: 0x61F0, symBinAddr: 0x100045670, symSize: 0xC4 }
  - { offset: 0x68C58, size: 0x8, addend: 0x0, symName: __RNCINvMs6_NtCsloNvcHxBCre_9hashbrown3rawINtB8_8RawTableTINtNtCse1nGBsou5OW_5alloc5boxed3BoxeEINtNtCsfvfooZQ3Axs_4core6option6OptionINtNtBX_4sync3ArcNtNtNtCscOYdFFY2T5N_3std3ffi6os_str5OsStrEEEE24find_or_find_insert_slotNCINvNtBa_3map14equivalent_keyBS_BS_B1t_E0NCINvB3A_11make_hasherBS_B1t_NtNtNtB2s_4hash6random11RandomStateE0E0CsdARyWrlPtHl_2cc, symObjAddr: 0x6468, symBinAddr: 0x1000458E8, symSize: 0xC4 }
  - { offset: 0x68E25, size: 0x8, addend: 0x0, symName: __RNCINvMs6_NtCsloNvcHxBCre_9hashbrown3rawINtB8_8RawTableTNtCsdARyWrlPtHl_2cc12CompilerFlagbEE24find_or_find_insert_slotNCINvNtBa_3map14equivalent_keyBS_BS_bE0NCINvB1X_11make_hasherBS_bNtNtNtCscOYdFFY2T5N_3std4hash6random11RandomStateE0E0BU_, symObjAddr: 0x66E0, symBinAddr: 0x100045B60, symSize: 0xC4 }
  - { offset: 0x68FF8, size: 0x8, addend: 0x0, symName: __RNCINvMs6_NtCsloNvcHxBCre_9hashbrown3rawINtB8_8RawTableTINtNtCse1nGBsou5OW_5alloc5boxed3BoxSIBT_NtNtNtCscOYdFFY2T5N_3std3ffi6os_str5OsStrEENtNtCsdARyWrlPtHl_2cc4tool10ToolFamilyEE4findNCINvNtBa_3map14equivalent_keyBS_BS_B2d_E0E0B2h_, symObjAddr: 0x5DC4, symBinAddr: 0x100045244, symSize: 0xC4 }
  - { offset: 0x691BC, size: 0x8, addend: 0x0, symName: __RNCINvMs6_NtCsloNvcHxBCre_9hashbrown3rawINtB8_8RawTableTINtNtCse1nGBsou5OW_5alloc5boxed3BoxeEINtNtBX_4sync3ArcNtNtNtCscOYdFFY2T5N_3std3ffi6os_str5OsStrEEE4findNCINvNtBa_3map14equivalent_keyeBS_B1t_E0E0CsdARyWrlPtHl_2cc, symObjAddr: 0x603C, symBinAddr: 0x1000454BC, symSize: 0xC4 }
  - { offset: 0x69380, size: 0x8, addend: 0x0, symName: __RNCINvMs6_NtCsloNvcHxBCre_9hashbrown3rawINtB8_8RawTableTINtNtCse1nGBsou5OW_5alloc5boxed3BoxeEINtNtBX_4sync3ArceEEE4findNCINvNtBa_3map14equivalent_keyeBS_B1t_E0E0CsdARyWrlPtHl_2cc, symObjAddr: 0x62B4, symBinAddr: 0x100045734, symSize: 0xC4 }
  - { offset: 0x69544, size: 0x8, addend: 0x0, symName: __RNCINvMs6_NtCsloNvcHxBCre_9hashbrown3rawINtB8_8RawTableTINtNtCse1nGBsou5OW_5alloc5boxed3BoxeEINtNtCsfvfooZQ3Axs_4core6option6OptionINtNtBX_4sync3ArcNtNtNtCscOYdFFY2T5N_3std3ffi6os_str5OsStrEEEE4findNCINvNtBa_3map14equivalent_keyeBS_B1t_E0E0CsdARyWrlPtHl_2cc, symObjAddr: 0x652C, symBinAddr: 0x1000459AC, symSize: 0xC4 }
  - { offset: 0x69708, size: 0x8, addend: 0x0, symName: __RNCINvMs6_NtCsloNvcHxBCre_9hashbrown3rawINtB8_8RawTableTNtCsdARyWrlPtHl_2cc12CompilerFlagbEE4findNCINvNtBa_3map14equivalent_keyBS_BS_bE0E0BU_, symObjAddr: 0x67A4, symBinAddr: 0x100045C24, symSize: 0xC4 }
  - { offset: 0x6A9E6, size: 0x8, addend: 0x0, symName: __RNCINvMsa_NtCsloNvcHxBCre_9hashbrown3rawNtB8_13RawTableInner14prepare_resizeNtNtCse1nGBsou5OW_5alloc5alloc6GlobalE0CsdARyWrlPtHl_2cc, symObjAddr: 0x6868, symBinAddr: 0x100045CE8, symSize: 0xBC }
  - { offset: 0x6ABC9, size: 0x8, addend: 0x0, symName: __RNCNvMsa_NtCsloNvcHxBCre_9hashbrown3rawNtB7_13RawTableInner15rehash_in_place0CsdARyWrlPtHl_2cc, symObjAddr: 0x6924, symBinAddr: 0x100045DA4, symSize: 0x23C }
  - { offset: 0x6B8C8, size: 0x8, addend: 0x0, symName: __RNvNtCsloNvcHxBCre_9hashbrown3raw19capacity_to_bucketsCsdARyWrlPtHl_2cc, symObjAddr: 0x8550, symBinAddr: 0x1000479D0, symSize: 0x198 }
  - { offset: 0x6BA83, size: 0x8, addend: 0x0, symName: __RNvXsg_NtCsloNvcHxBCre_9hashbrown3rawINtB5_8RawTableTINtNtCse1nGBsou5OW_5alloc5boxed3BoxSIBQ_NtNtNtCscOYdFFY2T5N_3std3ffi6os_str5OsStrEENtNtCsdARyWrlPtHl_2cc4tool10ToolFamilyEENtNtNtCsfvfooZQ3Axs_4core3ops4drop4Drop4dropB2e_, symObjAddr: 0x86E8, symBinAddr: 0x100047B68, symSize: 0x3C }
  - { offset: 0x6BABF, size: 0x8, addend: 0x0, symName: __RNvXsg_NtCsloNvcHxBCre_9hashbrown3rawINtB5_8RawTableTINtNtCse1nGBsou5OW_5alloc5boxed3BoxeEINtNtBU_4sync3ArcNtNtNtCscOYdFFY2T5N_3std3ffi6os_str5OsStrEEENtNtNtCsfvfooZQ3Axs_4core3ops4drop4Drop4dropCsdARyWrlPtHl_2cc, symObjAddr: 0x8724, symBinAddr: 0x100047BA4, symSize: 0x3C }
  - { offset: 0x6BAFB, size: 0x8, addend: 0x0, symName: __RNvXsg_NtCsloNvcHxBCre_9hashbrown3rawINtB5_8RawTableTINtNtCse1nGBsou5OW_5alloc5boxed3BoxeEINtNtBU_4sync3ArceEEENtNtNtCsfvfooZQ3Axs_4core3ops4drop4Drop4dropCsdARyWrlPtHl_2cc, symObjAddr: 0x8760, symBinAddr: 0x100047BE0, symSize: 0x3C }
  - { offset: 0x6BB37, size: 0x8, addend: 0x0, symName: __RNvXsg_NtCsloNvcHxBCre_9hashbrown3rawINtB5_8RawTableTINtNtCse1nGBsou5OW_5alloc5boxed3BoxeEINtNtCsfvfooZQ3Axs_4core6option6OptionINtNtBU_4sync3ArcNtNtNtCscOYdFFY2T5N_3std3ffi6os_str5OsStrEEEENtNtNtB1v_3ops4drop4Drop4dropCsdARyWrlPtHl_2cc, symObjAddr: 0x879C, symBinAddr: 0x100047C1C, symSize: 0x3C }
  - { offset: 0x6BB73, size: 0x8, addend: 0x0, symName: __RNvXsg_NtCsloNvcHxBCre_9hashbrown3rawINtB5_8RawTableTNtCsdARyWrlPtHl_2cc12CompilerFlagbEENtNtNtCsfvfooZQ3Axs_4core3ops4drop4Drop4dropBR_, symObjAddr: 0x87D8, symBinAddr: 0x100047C58, symSize: 0x3C }
  - { offset: 0x71386, size: 0x8, addend: 0x0, symName: __RINvMs6_NtCsloNvcHxBCre_9hashbrown3rawINtB6_8RawTableTINtNtCse1nGBsou5OW_5alloc5boxed3BoxSIBR_NtNtNtCscOYdFFY2T5N_3std3ffi6os_str5OsStrEENtNtCsdARyWrlPtHl_2cc4tool10ToolFamilyEE14reserve_rehashNCINvNtB8_3map11make_hasherBQ_B2b_NtNtNtB1A_4hash6random11RandomStateE0EB2f_, symObjAddr: 0x0, symBinAddr: 0x1000FD980, symSize: 0x840 }
  - { offset: 0x71D76, size: 0x8, addend: 0x0, symName: __RINvMs6_NtCsloNvcHxBCre_9hashbrown3rawINtB6_8RawTableTINtNtCse1nGBsou5OW_5alloc5boxed3BoxSIBR_NtNtNtCscOYdFFY2T5N_3std3ffi6os_str5OsStrEENtNtCsdARyWrlPtHl_2cc4tool10ToolFamilyEE24find_or_find_insert_slotNCINvNtB8_3map14equivalent_keyBQ_BQ_B2b_E0NCINvB3k_11make_hasherBQ_B2b_NtNtNtB1A_4hash6random11RandomStateE0EB2f_, symObjAddr: 0x840, symBinAddr: 0x100041DB0, symSize: 0x13C }
  - { offset: 0x721F0, size: 0x8, addend: 0x0, symName: __RINvMs6_NtCsloNvcHxBCre_9hashbrown3rawINtB6_8RawTableTINtNtCse1nGBsou5OW_5alloc5boxed3BoxSIBR_NtNtNtCscOYdFFY2T5N_3std3ffi6os_str5OsStrEENtNtCsdARyWrlPtHl_2cc4tool10ToolFamilyEE4findNCINvNtB8_3map14equivalent_keyBQ_BQ_B2b_E0EB2f_, symObjAddr: 0x97C, symBinAddr: 0x100041EEC, symSize: 0x330 }
  - { offset: 0x726AB, size: 0x8, addend: 0x0, symName: __RINvMs6_NtCsloNvcHxBCre_9hashbrown3rawINtB6_8RawTableTINtNtCse1nGBsou5OW_5alloc5boxed3BoxSIBR_NtNtNtCscOYdFFY2T5N_3std3ffi6os_str5OsStrEENtNtCsdARyWrlPtHl_2cc4tool10ToolFamilyEE7reserveNCINvNtB8_3map11make_hasherBQ_B2b_NtNtNtB1A_4hash6random11RandomStateE0EB2f_, symObjAddr: 0xCAC, symBinAddr: 0x10004221C, symSize: 0xCC }
  - { offset: 0x72783, size: 0x8, addend: 0x0, symName: __RINvMs6_NtCsloNvcHxBCre_9hashbrown3rawINtB6_8RawTableTINtNtCse1nGBsou5OW_5alloc5boxed3BoxeEINtNtBV_4sync3ArcNtNtNtCscOYdFFY2T5N_3std3ffi6os_str5OsStrEEE14reserve_rehashNCINvNtB8_3map11make_hasherBQ_B1r_NtNtNtB1O_4hash6random11RandomStateE0ECsdARyWrlPtHl_2cc, symObjAddr: 0xD78, symBinAddr: 0x1000FE1C0, symSize: 0x840 }
  - { offset: 0x73173, size: 0x8, addend: 0x0, symName: __RINvMs6_NtCsloNvcHxBCre_9hashbrown3rawINtB6_8RawTableTINtNtCse1nGBsou5OW_5alloc5boxed3BoxeEINtNtBV_4sync3ArcNtNtNtCscOYdFFY2T5N_3std3ffi6os_str5OsStrEEE24find_or_find_insert_slotNCINvNtB8_3map14equivalent_keyBQ_BQ_B1r_E0NCINvB2V_11make_hasherBQ_B1r_NtNtNtB1O_4hash6random11RandomStateE0ECsdARyWrlPtHl_2cc, symObjAddr: 0x15B8, symBinAddr: 0x1000422E8, symSize: 0x13C }
  - { offset: 0x733ED, size: 0x8, addend: 0x0, symName: __RINvMs6_NtCsloNvcHxBCre_9hashbrown3rawINtB6_8RawTableTINtNtCse1nGBsou5OW_5alloc5boxed3BoxeEINtNtBV_4sync3ArcNtNtNtCscOYdFFY2T5N_3std3ffi6os_str5OsStrEEE4findNCINvNtB8_3map14equivalent_keyeBQ_B1r_E0ECsdARyWrlPtHl_2cc, symObjAddr: 0x16F4, symBinAddr: 0x100042424, symSize: 0x334 }
  - { offset: 0x7389B, size: 0x8, addend: 0x0, symName: __RINvMs6_NtCsloNvcHxBCre_9hashbrown3rawINtB6_8RawTableTINtNtCse1nGBsou5OW_5alloc5boxed3BoxeEINtNtBV_4sync3ArcNtNtNtCscOYdFFY2T5N_3std3ffi6os_str5OsStrEEE7reserveNCINvNtB8_3map11make_hasherBQ_B1r_NtNtNtB1O_4hash6random11RandomStateE0ECsdARyWrlPtHl_2cc, symObjAddr: 0x1A28, symBinAddr: 0x100042758, symSize: 0xCC }
  - { offset: 0x73973, size: 0x8, addend: 0x0, symName: __RINvMs6_NtCsloNvcHxBCre_9hashbrown3rawINtB6_8RawTableTINtNtCse1nGBsou5OW_5alloc5boxed3BoxeEINtNtBV_4sync3ArceEEE14reserve_rehashNCINvNtB8_3map11make_hasherBQ_B1r_NtNtNtCscOYdFFY2T5N_3std4hash6random11RandomStateE0ECsdARyWrlPtHl_2cc, symObjAddr: 0x1AF4, symBinAddr: 0x1000FEA00, symSize: 0x840 }
  - { offset: 0x74363, size: 0x8, addend: 0x0, symName: __RINvMs6_NtCsloNvcHxBCre_9hashbrown3rawINtB6_8RawTableTINtNtCse1nGBsou5OW_5alloc5boxed3BoxeEINtNtBV_4sync3ArceEEE24find_or_find_insert_slotNCINvNtB8_3map14equivalent_keyBQ_BQ_B1r_E0NCINvB2h_11make_hasherBQ_B1r_NtNtNtCscOYdFFY2T5N_3std4hash6random11RandomStateE0ECsdARyWrlPtHl_2cc, symObjAddr: 0x2334, symBinAddr: 0x100042824, symSize: 0x13C }
  - { offset: 0x745DD, size: 0x8, addend: 0x0, symName: __RINvMs6_NtCsloNvcHxBCre_9hashbrown3rawINtB6_8RawTableTINtNtCse1nGBsou5OW_5alloc5boxed3BoxeEINtNtBV_4sync3ArceEEE4findNCINvNtB8_3map14equivalent_keyeBQ_B1r_E0ECsdARyWrlPtHl_2cc, symObjAddr: 0x2470, symBinAddr: 0x100042960, symSize: 0x334 }
  - { offset: 0x74A8B, size: 0x8, addend: 0x0, symName: __RINvMs6_NtCsloNvcHxBCre_9hashbrown3rawINtB6_8RawTableTINtNtCse1nGBsou5OW_5alloc5boxed3BoxeEINtNtBV_4sync3ArceEEE7reserveNCINvNtB8_3map11make_hasherBQ_B1r_NtNtNtCscOYdFFY2T5N_3std4hash6random11RandomStateE0ECsdARyWrlPtHl_2cc, symObjAddr: 0x27A4, symBinAddr: 0x100042C94, symSize: 0xCC }
  - { offset: 0x74B63, size: 0x8, addend: 0x0, symName: __RINvMs6_NtCsloNvcHxBCre_9hashbrown3rawINtB6_8RawTableTINtNtCse1nGBsou5OW_5alloc5boxed3BoxeEINtNtCsfvfooZQ3Axs_4core6option6OptionINtNtBV_4sync3ArcNtNtNtCscOYdFFY2T5N_3std3ffi6os_str5OsStrEEEE14reserve_rehashNCINvNtB8_3map11make_hasherBQ_B1r_NtNtNtB2q_4hash6random11RandomStateE0ECsdARyWrlPtHl_2cc, symObjAddr: 0x2870, symBinAddr: 0x1000FF240, symSize: 0x840 }
  - { offset: 0x75553, size: 0x8, addend: 0x0, symName: __RINvMs6_NtCsloNvcHxBCre_9hashbrown3rawINtB6_8RawTableTINtNtCse1nGBsou5OW_5alloc5boxed3BoxeEINtNtCsfvfooZQ3Axs_4core6option6OptionINtNtBV_4sync3ArcNtNtNtCscOYdFFY2T5N_3std3ffi6os_str5OsStrEEEE24find_or_find_insert_slotNCINvNtB8_3map14equivalent_keyBQ_BQ_B1r_E0NCINvB3y_11make_hasherBQ_B1r_NtNtNtB2q_4hash6random11RandomStateE0ECsdARyWrlPtHl_2cc, symObjAddr: 0x30B0, symBinAddr: 0x100042D60, symSize: 0x13C }
  - { offset: 0x757CD, size: 0x8, addend: 0x0, symName: __RINvMs6_NtCsloNvcHxBCre_9hashbrown3rawINtB6_8RawTableTINtNtCse1nGBsou5OW_5alloc5boxed3BoxeEINtNtCsfvfooZQ3Axs_4core6option6OptionINtNtBV_4sync3ArcNtNtNtCscOYdFFY2T5N_3std3ffi6os_str5OsStrEEEE4findNCINvNtB8_3map14equivalent_keyeBQ_B1r_E0ECsdARyWrlPtHl_2cc, symObjAddr: 0x31EC, symBinAddr: 0x100042E9C, symSize: 0x334 }
  - { offset: 0x75C7B, size: 0x8, addend: 0x0, symName: __RINvMs6_NtCsloNvcHxBCre_9hashbrown3rawINtB6_8RawTableTINtNtCse1nGBsou5OW_5alloc5boxed3BoxeEINtNtCsfvfooZQ3Axs_4core6option6OptionINtNtBV_4sync3ArcNtNtNtCscOYdFFY2T5N_3std3ffi6os_str5OsStrEEEE7reserveNCINvNtB8_3map11make_hasherBQ_B1r_NtNtNtB2q_4hash6random11RandomStateE0ECsdARyWrlPtHl_2cc, symObjAddr: 0x3520, symBinAddr: 0x1000431D0, symSize: 0xCC }
  - { offset: 0x75D53, size: 0x8, addend: 0x0, symName: __RINvMs6_NtCsloNvcHxBCre_9hashbrown3rawINtB6_8RawTableTNtCsdARyWrlPtHl_2cc12CompilerFlagbEE14reserve_rehashNCINvNtB8_3map11make_hasherBQ_bNtNtNtCscOYdFFY2T5N_3std4hash6random11RandomStateE0EBS_, symObjAddr: 0x35EC, symBinAddr: 0x1000FFA80, symSize: 0x830 }
  - { offset: 0x76743, size: 0x8, addend: 0x0, symName: __RINvMs6_NtCsloNvcHxBCre_9hashbrown3rawINtB6_8RawTableTNtCsdARyWrlPtHl_2cc12CompilerFlagbEE24find_or_find_insert_slotNCINvNtB8_3map14equivalent_keyBQ_BQ_bE0NCINvB1V_11make_hasherBQ_bNtNtNtCscOYdFFY2T5N_3std4hash6random11RandomStateE0EBS_, symObjAddr: 0x3E1C, symBinAddr: 0x10004329C, symSize: 0x13C }
  - { offset: 0x769BD, size: 0x8, addend: 0x0, symName: __RINvMs6_NtCsloNvcHxBCre_9hashbrown3rawINtB6_8RawTableTNtCsdARyWrlPtHl_2cc12CompilerFlagbEE4findNCINvNtB8_3map14equivalent_keyBQ_BQ_bE0EBS_, symObjAddr: 0x3F58, symBinAddr: 0x1000433D8, symSize: 0x330 }
  - { offset: 0x76E6B, size: 0x8, addend: 0x0, symName: __RINvMs6_NtCsloNvcHxBCre_9hashbrown3rawINtB6_8RawTableTNtCsdARyWrlPtHl_2cc12CompilerFlagbEE7reserveNCINvNtB8_3map11make_hasherBQ_bNtNtNtCscOYdFFY2T5N_3std4hash6random11RandomStateE0EBS_, symObjAddr: 0x4288, symBinAddr: 0x100043708, symSize: 0xCC }
  - { offset: 0x7704F, size: 0x8, addend: 0x0, symName: __RINvMsa_NtCsloNvcHxBCre_9hashbrown3rawNtB6_13RawTableInner13drop_elementsTINtNtCse1nGBsou5OW_5alloc5boxed3BoxSIB1b_NtNtNtCscOYdFFY2T5N_3std3ffi6os_str5OsStrEENtNtCsdARyWrlPtHl_2cc4tool10ToolFamilyEEB2A_, symObjAddr: 0x4354, symBinAddr: 0x1000437D4, symSize: 0x174 }
  - { offset: 0x7738E, size: 0x8, addend: 0x0, symName: __RINvMsa_NtCsloNvcHxBCre_9hashbrown3rawNtB6_13RawTableInner13drop_elementsTINtNtCse1nGBsou5OW_5alloc5boxed3BoxeEINtNtB1f_4sync3ArcNtNtNtCscOYdFFY2T5N_3std3ffi6os_str5OsStrEEECsdARyWrlPtHl_2cc, symObjAddr: 0x44C8, symBinAddr: 0x100043948, symSize: 0x174 }
  - { offset: 0x776CD, size: 0x8, addend: 0x0, symName: __RINvMsa_NtCsloNvcHxBCre_9hashbrown3rawNtB6_13RawTableInner13drop_elementsTINtNtCse1nGBsou5OW_5alloc5boxed3BoxeEINtNtB1f_4sync3ArceEEECsdARyWrlPtHl_2cc, symObjAddr: 0x463C, symBinAddr: 0x100043ABC, symSize: 0x174 }
  - { offset: 0x77A0C, size: 0x8, addend: 0x0, symName: __RINvMsa_NtCsloNvcHxBCre_9hashbrown3rawNtB6_13RawTableInner13drop_elementsTINtNtCse1nGBsou5OW_5alloc5boxed3BoxeEINtNtCsfvfooZQ3Axs_4core6option6OptionINtNtB1f_4sync3ArcNtNtNtCscOYdFFY2T5N_3std3ffi6os_str5OsStrEEEECsdARyWrlPtHl_2cc, symObjAddr: 0x47B0, symBinAddr: 0x100043C30, symSize: 0x174 }
  - { offset: 0x77D4B, size: 0x8, addend: 0x0, symName: __RINvMsa_NtCsloNvcHxBCre_9hashbrown3rawNtB6_13RawTableInner13drop_elementsTNtCsdARyWrlPtHl_2cc12CompilerFlagbEEB1c_, symObjAddr: 0x4924, symBinAddr: 0x100043DA4, symSize: 0x174 }
  - { offset: 0x780B8, size: 0x8, addend: 0x0, symName: __RINvMsa_NtCsloNvcHxBCre_9hashbrown3rawNtB6_13RawTableInner16drop_inner_tableTINtNtCse1nGBsou5OW_5alloc5boxed3BoxSIB1e_NtNtNtCscOYdFFY2T5N_3std3ffi6os_str5OsStrEENtNtCsdARyWrlPtHl_2cc4tool10ToolFamilyENtNtB1i_5alloc6GlobalEB2D_, symObjAddr: 0x4A98, symBinAddr: 0x100043F18, symSize: 0xBC }
  - { offset: 0x7835C, size: 0x8, addend: 0x0, symName: __RINvMsa_NtCsloNvcHxBCre_9hashbrown3rawNtB6_13RawTableInner16drop_inner_tableTINtNtCse1nGBsou5OW_5alloc5boxed3BoxeEINtNtB1i_4sync3ArcNtNtNtCscOYdFFY2T5N_3std3ffi6os_str5OsStrEENtNtB1i_5alloc6GlobalECsdARyWrlPtHl_2cc, symObjAddr: 0x4B54, symBinAddr: 0x100043FD4, symSize: 0xBC }
  - { offset: 0x78600, size: 0x8, addend: 0x0, symName: __RINvMsa_NtCsloNvcHxBCre_9hashbrown3rawNtB6_13RawTableInner16drop_inner_tableTINtNtCse1nGBsou5OW_5alloc5boxed3BoxeEINtNtB1i_4sync3ArceEENtNtB1i_5alloc6GlobalECsdARyWrlPtHl_2cc, symObjAddr: 0x4C10, symBinAddr: 0x100044090, symSize: 0xBC }
  - { offset: 0x788A4, size: 0x8, addend: 0x0, symName: __RINvMsa_NtCsloNvcHxBCre_9hashbrown3rawNtB6_13RawTableInner16drop_inner_tableTINtNtCse1nGBsou5OW_5alloc5boxed3BoxeEINtNtCsfvfooZQ3Axs_4core6option6OptionINtNtB1i_4sync3ArcNtNtNtCscOYdFFY2T5N_3std3ffi6os_str5OsStrEEENtNtB1i_5alloc6GlobalECsdARyWrlPtHl_2cc, symObjAddr: 0x4CCC, symBinAddr: 0x10004414C, symSize: 0xBC }
  - { offset: 0x78B48, size: 0x8, addend: 0x0, symName: __RINvMsa_NtCsloNvcHxBCre_9hashbrown3rawNtB6_13RawTableInner16drop_inner_tableTNtCsdARyWrlPtHl_2cc12CompilerFlagbENtNtCse1nGBsou5OW_5alloc5alloc6GlobalEB1f_, symObjAddr: 0x4D88, symBinAddr: 0x100044208, symSize: 0xBC }
  - { offset: 0x78D5B, size: 0x8, addend: 0x0, symName: __RINvMsa_NtCsloNvcHxBCre_9hashbrown3rawNtB6_13RawTableInner17new_uninitializedNtNtCse1nGBsou5OW_5alloc5alloc6GlobalECsdARyWrlPtHl_2cc, symObjAddr: 0x4E44, symBinAddr: 0x1000442C4, symSize: 0x1B0 }
  - { offset: 0x78F94, size: 0x8, addend: 0x0, symName: __RINvMsa_NtCsloNvcHxBCre_9hashbrown3rawNtB6_13RawTableInner22fallible_with_capacityNtNtCse1nGBsou5OW_5alloc5alloc6GlobalECsdARyWrlPtHl_2cc, symObjAddr: 0x4FF4, symBinAddr: 0x100044474, symSize: 0x2A8 }
  - { offset: 0x7940B, size: 0x8, addend: 0x0, symName: __RINvMsi_NtCsloNvcHxBCre_9hashbrown3rawINtB6_12RawIterRangeTINtNtCse1nGBsou5OW_5alloc5boxed3BoxSIBW_NtNtNtCscOYdFFY2T5N_3std3ffi6os_str5OsStrEENtNtCsdARyWrlPtHl_2cc4tool10ToolFamilyEE9next_implKb0_EB2k_, symObjAddr: 0x529C, symBinAddr: 0x10004471C, symSize: 0x1E4 }
  - { offset: 0x7988D, size: 0x8, addend: 0x0, symName: __RINvMsi_NtCsloNvcHxBCre_9hashbrown3rawINtB6_12RawIterRangeTINtNtCse1nGBsou5OW_5alloc5boxed3BoxeEINtNtB10_4sync3ArcNtNtNtCscOYdFFY2T5N_3std3ffi6os_str5OsStrEEE9next_implKb0_ECsdARyWrlPtHl_2cc, symObjAddr: 0x5480, symBinAddr: 0x100044900, symSize: 0x1E4 }
  - { offset: 0x79D0F, size: 0x8, addend: 0x0, symName: __RINvMsi_NtCsloNvcHxBCre_9hashbrown3rawINtB6_12RawIterRangeTINtNtCse1nGBsou5OW_5alloc5boxed3BoxeEINtNtB10_4sync3ArceEEE9next_implKb0_ECsdARyWrlPtHl_2cc, symObjAddr: 0x5664, symBinAddr: 0x100044AE4, symSize: 0x1E4 }
  - { offset: 0x7A191, size: 0x8, addend: 0x0, symName: __RINvMsi_NtCsloNvcHxBCre_9hashbrown3rawINtB6_12RawIterRangeTINtNtCse1nGBsou5OW_5alloc5boxed3BoxeEINtNtCsfvfooZQ3Axs_4core6option6OptionINtNtB10_4sync3ArcNtNtNtCscOYdFFY2T5N_3std3ffi6os_str5OsStrEEEE9next_implKb0_ECsdARyWrlPtHl_2cc, symObjAddr: 0x5848, symBinAddr: 0x100044CC8, symSize: 0x1E4 }
  - { offset: 0x7A613, size: 0x8, addend: 0x0, symName: __RINvMsi_NtCsloNvcHxBCre_9hashbrown3rawINtB6_12RawIterRangeTNtCsdARyWrlPtHl_2cc12CompilerFlagbEE9next_implKb0_EBX_, symObjAddr: 0x5A2C, symBinAddr: 0x100044EAC, symSize: 0x1E4 }
  - { offset: 0x7BDD7, size: 0x8, addend: 0x0, symName: __RNvMs1_NtCsloNvcHxBCre_9hashbrown3rawNtB5_11TableLayout20calculate_layout_forCsdARyWrlPtHl_2cc, symObjAddr: 0x6B60, symBinAddr: 0x100045FE0, symSize: 0x210 }
  - { offset: 0x7C264, size: 0x8, addend: 0x0, symName: __RNvMs6_NtCsloNvcHxBCre_9hashbrown3rawINtB5_8RawTableTINtNtCse1nGBsou5OW_5alloc5boxed3BoxSIBQ_NtNtNtCscOYdFFY2T5N_3std3ffi6os_str5OsStrEENtNtCsdARyWrlPtHl_2cc4tool10ToolFamilyEE14insert_in_slotB2e_, symObjAddr: 0x6D70, symBinAddr: 0x1000461F0, symSize: 0x138 }
  - { offset: 0x7C7B5, size: 0x8, addend: 0x0, symName: __RNvMs6_NtCsloNvcHxBCre_9hashbrown3rawINtB5_8RawTableTINtNtCse1nGBsou5OW_5alloc5boxed3BoxeEINtNtBU_4sync3ArcNtNtNtCscOYdFFY2T5N_3std3ffi6os_str5OsStrEEE14insert_in_slotCsdARyWrlPtHl_2cc, symObjAddr: 0x6EA8, symBinAddr: 0x100046328, symSize: 0x138 }
  - { offset: 0x7CD06, size: 0x8, addend: 0x0, symName: __RNvMs6_NtCsloNvcHxBCre_9hashbrown3rawINtB5_8RawTableTINtNtCse1nGBsou5OW_5alloc5boxed3BoxeEINtNtBU_4sync3ArceEEE14insert_in_slotCsdARyWrlPtHl_2cc, symObjAddr: 0x6FE0, symBinAddr: 0x100046460, symSize: 0x138 }
  - { offset: 0x7D257, size: 0x8, addend: 0x0, symName: __RNvMs6_NtCsloNvcHxBCre_9hashbrown3rawINtB5_8RawTableTINtNtCse1nGBsou5OW_5alloc5boxed3BoxeEINtNtCsfvfooZQ3Axs_4core6option6OptionINtNtBU_4sync3ArcNtNtNtCscOYdFFY2T5N_3std3ffi6os_str5OsStrEEEE14insert_in_slotCsdARyWrlPtHl_2cc, symObjAddr: 0x7118, symBinAddr: 0x100046598, symSize: 0x138 }
  - { offset: 0x7D7A8, size: 0x8, addend: 0x0, symName: __RNvMs6_NtCsloNvcHxBCre_9hashbrown3rawINtB5_8RawTableTNtCsdARyWrlPtHl_2cc12CompilerFlagbEE14insert_in_slotBR_, symObjAddr: 0x7250, symBinAddr: 0x1000466D0, symSize: 0x140 }
  - { offset: 0x7DC4B, size: 0x8, addend: 0x0, symName: __RNvMsa_NtCsloNvcHxBCre_9hashbrown3rawNtB5_13RawTableInner15fix_insert_slotCsdARyWrlPtHl_2cc, symObjAddr: 0x7390, symBinAddr: 0x100046810, symSize: 0x128 }
  - { offset: 0x7DFC9, size: 0x8, addend: 0x0, symName: __RNvMsa_NtCsloNvcHxBCre_9hashbrown3rawNtB5_13RawTableInner15rehash_in_placeCsdARyWrlPtHl_2cc, symObjAddr: 0x74B8, symBinAddr: 0x100046938, symSize: 0x4E8 }
  - { offset: 0x7E7D3, size: 0x8, addend: 0x0, symName: __RNvMsa_NtCsloNvcHxBCre_9hashbrown3rawNtB5_13RawTableInner16find_insert_slotCsdARyWrlPtHl_2cc, symObjAddr: 0x79A0, symBinAddr: 0x100046E20, symSize: 0x10C }
  - { offset: 0x7E9C4, size: 0x8, addend: 0x0, symName: __RNvMsa_NtCsloNvcHxBCre_9hashbrown3rawNtB5_13RawTableInner19prepare_insert_slotCsdARyWrlPtHl_2cc, symObjAddr: 0x7AAC, symBinAddr: 0x100046F2C, symSize: 0x74 }
  - { offset: 0x7ECB6, size: 0x8, addend: 0x0, symName: __RNvMsa_NtCsloNvcHxBCre_9hashbrown3rawNtB5_13RawTableInner23prepare_rehash_in_placeCsdARyWrlPtHl_2cc, symObjAddr: 0x7B20, symBinAddr: 0x100046FA0, symSize: 0x254 }
  - { offset: 0x7F3B2, size: 0x8, addend: 0x0, symName: __RNvMsa_NtCsloNvcHxBCre_9hashbrown3rawNtB5_13RawTableInner25find_insert_slot_in_groupCsdARyWrlPtHl_2cc, symObjAddr: 0x7D74, symBinAddr: 0x1000471F4, symSize: 0x160 }
  - { offset: 0x7F67B, size: 0x8, addend: 0x0, symName: __RNvMsa_NtCsloNvcHxBCre_9hashbrown3rawNtB5_13RawTableInner30find_or_find_insert_slot_innerCsdARyWrlPtHl_2cc, symObjAddr: 0x7ED4, symBinAddr: 0x100047354, symSize: 0x2BC }
  - { offset: 0x7FA76, size: 0x8, addend: 0x0, symName: __RNvMsi_NtCsloNvcHxBCre_9hashbrown3rawINtB5_12RawIterRangeTINtNtCse1nGBsou5OW_5alloc5boxed3BoxSIBV_NtNtNtCscOYdFFY2T5N_3std3ffi6os_str5OsStrEENtNtCsdARyWrlPtHl_2cc4tool10ToolFamilyEE3newB2j_, symObjAddr: 0x8190, symBinAddr: 0x100047610, symSize: 0xC0 }
  - { offset: 0x7FD13, size: 0x8, addend: 0x0, symName: __RNvMsi_NtCsloNvcHxBCre_9hashbrown3rawINtB5_12RawIterRangeTINtNtCse1nGBsou5OW_5alloc5boxed3BoxeEINtNtBZ_4sync3ArcNtNtNtCscOYdFFY2T5N_3std3ffi6os_str5OsStrEEE3newCsdARyWrlPtHl_2cc, symObjAddr: 0x8250, symBinAddr: 0x1000476D0, symSize: 0xC0 }
  - { offset: 0x7FFB0, size: 0x8, addend: 0x0, symName: __RNvMsi_NtCsloNvcHxBCre_9hashbrown3rawINtB5_12RawIterRangeTINtNtCse1nGBsou5OW_5alloc5boxed3BoxeEINtNtBZ_4sync3ArceEEE3newCsdARyWrlPtHl_2cc, symObjAddr: 0x8310, symBinAddr: 0x100047790, symSize: 0xC0 }
  - { offset: 0x8024D, size: 0x8, addend: 0x0, symName: __RNvMsi_NtCsloNvcHxBCre_9hashbrown3rawINtB5_12RawIterRangeTINtNtCse1nGBsou5OW_5alloc5boxed3BoxeEINtNtCsfvfooZQ3Axs_4core6option6OptionINtNtBZ_4sync3ArcNtNtNtCscOYdFFY2T5N_3std3ffi6os_str5OsStrEEEE3newCsdARyWrlPtHl_2cc, symObjAddr: 0x83D0, symBinAddr: 0x100047850, symSize: 0xC0 }
  - { offset: 0x804EA, size: 0x8, addend: 0x0, symName: __RNvMsi_NtCsloNvcHxBCre_9hashbrown3rawINtB5_12RawIterRangeTNtCsdARyWrlPtHl_2cc12CompilerFlagbEE3newBW_, symObjAddr: 0x8490, symBinAddr: 0x100047910, symSize: 0xC0 }
  - { offset: 0x848F2, size: 0x8, addend: 0x0, symName: __RNvMNtCsfvfooZQ3Axs_4core5sliceSRINtNtCse1nGBsou5OW_5alloc3vec3VechE4iterCsdARyWrlPtHl_2cc, symObjAddr: 0x1F20, symBinAddr: 0x1000495B8, symSize: 0x28 }
  - { offset: 0x867D0, size: 0x8, addend: 0x0, symName: __RINvNvMs_NtCse1nGBsou5OW_5alloc3vecINtB7_3VecppE10retain_mut12process_loopNCNCNCNvMs4_CsdARyWrlPtHl_2ccNtB1m_5Build15compile_objects000TNtNtCscOYdFFY2T5N_3std7process7CommandNtB1g_10KillOnDropNtNtNtB1m_8parallel9job_token8JobTokenENtNtB9_5alloc6GlobalKb0_EB1m_, symObjAddr: 0x1780, symBinAddr: 0x100048F0C, symSize: 0xE8 }
  - { offset: 0x86924, size: 0x8, addend: 0x0, symName: __RINvNvMs_NtCse1nGBsou5OW_5alloc3vecINtB7_3VecppE10retain_mut12process_loopNCNCNCNvMs4_CsdARyWrlPtHl_2ccNtB1m_5Build15compile_objects000TNtNtCscOYdFFY2T5N_3std7process7CommandNtB1g_10KillOnDropNtNtNtB1m_8parallel9job_token8JobTokenENtNtB9_5alloc6GlobalKb1_EB1m_, symObjAddr: 0x1868, symBinAddr: 0x100048FF4, symSize: 0x164 }
  - { offset: 0x86B18, size: 0x8, addend: 0x0, symName: __RNvXNvMs_NtCse1nGBsou5OW_5alloc3vecINtB7_3VecppE10retain_mutINtB2_15BackshiftOnDropTNtNtCscOYdFFY2T5N_3std7process7CommandNtNvMs4_CsdARyWrlPtHl_2ccNtB24_5Build15compile_objects10KillOnDropNtNtNtB24_8parallel9job_token8JobTokenENtNtB9_5alloc6GlobalENtNtNtCsfvfooZQ3Axs_4core3ops4drop4Drop4dropB24_, symObjAddr: 0x43C0, symBinAddr: 0x10004B854, symSize: 0x130 }
  - { offset: 0x88440, size: 0x8, addend: 0x0, symName: __RINvXsd_NtCse1nGBsou5OW_5alloc3vecINtB6_3VecINtNtB8_5boxed3BoxNtNtNtCscOYdFFY2T5N_3std3ffi6os_str5OsStrEEINtNtNtNtCsfvfooZQ3Axs_4core4iter6traits7collect12FromIteratorBG_E9from_iterINtNtNtB1M_8adapters3map3MapINtNtB2Y_5chain5ChainINtNtB2Y_6cloned6ClonedINtNtNtB1O_5slice4iter4IterRBY_EEIB2U_IB44_NtNtB8_6string6StringEINvMsl_B10_BY_3newB4K_EEENvYB4u_INtNtB1O_7convert4IntoBG_E4intoEECsdARyWrlPtHl_2cc, symObjAddr: 0x19CC, symBinAddr: 0x100049158, symSize: 0x3C }
  - { offset: 0x88481, size: 0x8, addend: 0x0, symName: __RINvXsd_NtCse1nGBsou5OW_5alloc3vecINtB6_3VecNtNtB8_6string6StringEINtNtNtNtCsfvfooZQ3Axs_4core4iter6traits7collect12FromIteratorBG_E9from_iterINtNtNtB19_8adapters3map3MapNtNtNtB1b_3str4iter15SplitWhitespaceNCNvMs4_CsdARyWrlPtHl_2ccNtB3q_5Build8env_tool0EEB3q_, symObjAddr: 0x1A08, symBinAddr: 0x100049194, symSize: 0x3C }
  - { offset: 0x884C2, size: 0x8, addend: 0x0, symName: __RINvXsd_NtCse1nGBsou5OW_5alloc3vecINtB6_3VecNtNtB8_6string6StringEINtNtNtNtCsfvfooZQ3Axs_4core4iter6traits7collect12FromIteratorBG_E9from_iterINtNtNtB19_8adapters3map3MapNtNtNtB1b_3str4iter15SplitWhitespaceNCNvMs4_CsdARyWrlPtHl_2ccNtB3q_5Build8env_tools_0EEB3q_, symObjAddr: 0x1A44, symBinAddr: 0x1000491D0, symSize: 0x3C }
  - { offset: 0x88503, size: 0x8, addend: 0x0, symName: __RINvXsd_NtCse1nGBsou5OW_5alloc3vecINtB6_3VecRNtNtCscOYdFFY2T5N_3std4path4PathEINtNtNtNtCsfvfooZQ3Axs_4core4iter6traits7collect12FromIteratorBG_E9from_iterINtNtNtB1l_8adapters5chain5ChainINtNtB2x_3map3MapINtNtNtB1n_5slice4iter4IterNtCsdARyWrlPtHl_2cc6ObjectENCNvMs4_B3I_NtB3I_5Build8assemble0EIB2Z_IB3g_INtNtB8_4sync3ArcBH_EENvYB4Q_NtNtNtB1n_3ops5deref5Deref5derefEEEB3I_, symObjAddr: 0x1ABC, symBinAddr: 0x10004920C, symSize: 0x3C }
  - { offset: 0x88544, size: 0x8, addend: 0x0, symName: __RINvXsd_NtCse1nGBsou5OW_5alloc3vecINtB6_3VecRNtNtNtCscOYdFFY2T5N_3std3ffi6os_str8OsStringEINtNtNtNtCsfvfooZQ3Axs_4core4iter6traits7collect12FromIteratorBG_E9from_iterINtNtNtB1x_8adapters6filter6FilterINtNtNtB1z_5slice4iter4IterBH_ENCNvMNtCsdARyWrlPtHl_2cc4toolNtB3M_4Tool10to_command0EEB3O_, symObjAddr: 0x1AF8, symBinAddr: 0x100049248, symSize: 0x3C }
  - { offset: 0x88585, size: 0x8, addend: 0x0, symName: __RINvXsd_NtCse1nGBsou5OW_5alloc3vecINtB6_3VecReEINtNtNtNtCsfvfooZQ3Axs_4core4iter6traits7collect12FromIteratorBG_E9from_iterINtNtNtBS_3str4iter5SplitcEECsdARyWrlPtHl_2cc, symObjAddr: 0x1B34, symBinAddr: 0x100049284, symSize: 0x3C }
  - { offset: 0x885CC, size: 0x8, addend: 0x0, symName: __RINvXsh_NtCse1nGBsou5OW_5alloc3vecINtB6_3VecNtNtB8_6string6StringEINtNtNtNtCsfvfooZQ3Axs_4core4iter6traits7collect6ExtendBG_E6extendINtNtNtB19_8adapters3map3MapNtNtNtB1b_3str4iter20SplitAsciiWhitespaceNvYeNtBI_8ToString9to_stringEECsdARyWrlPtHl_2cc, symObjAddr: 0x1BB8, symBinAddr: 0x1000492C0, symSize: 0x48 }
  - { offset: 0x88621, size: 0x8, addend: 0x0, symName: __RINvXsh_NtCse1nGBsou5OW_5alloc3vecINtB6_3VecNtNtB8_6string6StringEINtNtNtNtCsfvfooZQ3Axs_4core4iter6traits7collect6ExtendBG_E6extendNtCs9APsZDMLctY_5shlex5ShlexECsdARyWrlPtHl_2cc, symObjAddr: 0x1C00, symBinAddr: 0x100049308, symSize: 0x48 }
  - { offset: 0x88676, size: 0x8, addend: 0x0, symName: __RINvXsh_NtCse1nGBsou5OW_5alloc3vecINtB6_3VecNtNtNtCscOYdFFY2T5N_3std3ffi6os_str8OsStringEINtNtNtNtCsfvfooZQ3Axs_4core4iter6traits7collect6ExtendBG_E6extendABG_j6_ECsdARyWrlPtHl_2cc, symObjAddr: 0x1C48, symBinAddr: 0x100049350, symSize: 0x48 }
  - { offset: 0x886D6, size: 0x8, addend: 0x0, symName: __RNCINvMsi_NtCse1nGBsou5OW_5alloc3vecINtB8_3VecINtNtBa_5boxed3BoxNtNtNtCscOYdFFY2T5N_3std3ffi6os_str5OsStrEE14extend_trustedINtNtNtNtCsfvfooZQ3Axs_4core4iter8adapters3map3MapINtNtB22_5chain5ChainINtNtB22_6cloned6ClonedINtNtNtB26_5slice4iter4IterRB10_EEIB1Y_IB3u_NtNtBa_6string6StringEINvMsl_B12_B10_3newB4b_EEENvYB3U_INtNtB26_7convert4IntoBI_E4intoEE0CsdARyWrlPtHl_2cc, symObjAddr: 0x1D00, symBinAddr: 0x100049398, symSize: 0x40 }
  - { offset: 0x88793, size: 0x8, addend: 0x0, symName: __RNCINvMsi_NtCse1nGBsou5OW_5alloc3vecINtB8_3VecNtNtNtCscOYdFFY2T5N_3std3ffi6os_str8OsStringE14extend_trustedINtNtNtCsfvfooZQ3Axs_4core5array4iter8IntoIterBI_Kj6_EE0CsdARyWrlPtHl_2cc, symObjAddr: 0x1D40, symBinAddr: 0x1000493D8, symSize: 0x44 }
  - { offset: 0x88840, size: 0x8, addend: 0x0, symName: __RNCINvMsi_NtCse1nGBsou5OW_5alloc3vecINtB8_3VecRNtNtCscOYdFFY2T5N_3std4path4PathE14extend_trustedINtNtNtNtCsfvfooZQ3Axs_4core4iter8adapters5chain5ChainINtNtB1B_3map3MapINtNtNtB1F_5slice4iter4IterNtCsdARyWrlPtHl_2cc6ObjectENCNvMs4_B38_NtB38_5Build8assemble0EIB2p_IB2G_INtNtBa_4sync3ArcBJ_EENvYB4g_NtNtNtB1F_3ops5deref5Deref5derefEEE0B38_, symObjAddr: 0x1D84, symBinAddr: 0x10004941C, symSize: 0x40 }
  - { offset: 0x888FD, size: 0x8, addend: 0x0, symName: __RNCINvMsi_NtCse1nGBsou5OW_5alloc3vecINtB8_3VechE14extend_trustedINtNtNtNtCsfvfooZQ3Axs_4core4iter8adapters3map3MapINtNtNtB19_5slice4iter4IterhENCNvNtBa_3str13replace_ascii0EE0CsdARyWrlPtHl_2cc, symObjAddr: 0x1DC4, symBinAddr: 0x10004945C, symSize: 0x30 }
  - { offset: 0x88B08, size: 0x8, addend: 0x0, symName: __RNvXNtNtCse1nGBsou5OW_5alloc3vec11spec_extendINtB4_3VecNtNtB6_6string6StringEINtB2_10SpecExtendBR_INtNtNtNtCsfvfooZQ3Axs_4core4iter8adapters3map3MapNtNtNtB1H_3str4iter15SplitWhitespaceNCNvMs4_CsdARyWrlPtHl_2ccNtB34_5Build8env_tool0EE11spec_extendB34_, symObjAddr: 0x38E0, symBinAddr: 0x10004AE98, symSize: 0x24 }
  - { offset: 0x88B5A, size: 0x8, addend: 0x0, symName: __RNvXNtNtCse1nGBsou5OW_5alloc3vec11spec_extendINtB4_3VecNtNtB6_6string6StringEINtB2_10SpecExtendBR_INtNtNtNtCsfvfooZQ3Axs_4core4iter8adapters3map3MapNtNtNtB1H_3str4iter15SplitWhitespaceNCNvMs4_CsdARyWrlPtHl_2ccNtB34_5Build8env_tools_0EE11spec_extendB34_, symObjAddr: 0x3904, symBinAddr: 0x10004AEBC, symSize: 0x24 }
  - { offset: 0x88BAC, size: 0x8, addend: 0x0, symName: __RNvXNtNtCse1nGBsou5OW_5alloc3vec11spec_extendINtB4_3VecNtNtB6_6string6StringEINtB2_10SpecExtendBR_INtNtNtNtCsfvfooZQ3Axs_4core4iter8adapters3map3MapNtNtNtB1H_3str4iter20SplitAsciiWhitespaceNvYeNtBT_8ToString9to_stringEE11spec_extendCsdARyWrlPtHl_2cc, symObjAddr: 0x3928, symBinAddr: 0x10004AEE0, symSize: 0x24 }
  - { offset: 0x88BFE, size: 0x8, addend: 0x0, symName: __RNvXNtNtCse1nGBsou5OW_5alloc3vec11spec_extendINtB4_3VecNtNtB6_6string6StringEINtB2_10SpecExtendBR_NtCs9APsZDMLctY_5shlex5ShlexE11spec_extendCsdARyWrlPtHl_2cc, symObjAddr: 0x394C, symBinAddr: 0x10004AF04, symSize: 0x24 }
  - { offset: 0x88C50, size: 0x8, addend: 0x0, symName: __RNvXNtNtCse1nGBsou5OW_5alloc3vec11spec_extendINtB4_3VecRNtNtNtCscOYdFFY2T5N_3std3ffi6os_str8OsStringEINtB2_10SpecExtendBR_INtNtNtNtCsfvfooZQ3Axs_4core4iter8adapters6filter6FilterINtNtNtB25_5slice4iter4IterBS_ENCNvMNtCsdARyWrlPtHl_2cc4toolNtB3q_4Tool10to_command0EE11spec_extendB3s_, symObjAddr: 0x3970, symBinAddr: 0x10004AF28, symSize: 0x24 }
  - { offset: 0x88CA2, size: 0x8, addend: 0x0, symName: __RNvXNtNtCse1nGBsou5OW_5alloc3vec11spec_extendINtB4_3VecReEINtB2_10SpecExtendBR_INtNtNtCsfvfooZQ3Axs_4core3str4iter5SplitcEE11spec_extendCsdARyWrlPtHl_2cc, symObjAddr: 0x3994, symBinAddr: 0x10004AF4C, symSize: 0x24 }
  - { offset: 0x88CFA, size: 0x8, addend: 0x0, symName: __RNvXs_NtNtCse1nGBsou5OW_5alloc3vec11spec_extendINtB6_3VecINtNtB8_5boxed3BoxNtNtNtCscOYdFFY2T5N_3std3ffi6os_str5OsStrEEINtB4_10SpecExtendBT_INtNtNtNtCsfvfooZQ3Axs_4core4iter8adapters3map3MapINtNtB2i_5chain5ChainINtNtB2i_6cloned6ClonedINtNtNtB2m_5slice4iter4IterRB1b_EEIB2e_IB3K_NtNtB8_6string6StringEINvMsl_B1d_B1b_3newB4r_EEENvYB4a_INtNtB2m_7convert4IntoBT_E4intoEE11spec_extendCsdARyWrlPtHl_2cc, symObjAddr: 0x4950, symBinAddr: 0x10004BDC0, symSize: 0x24 }
  - { offset: 0x88D4C, size: 0x8, addend: 0x0, symName: __RNvXs_NtNtCse1nGBsou5OW_5alloc3vec11spec_extendINtB6_3VecNtNtNtCscOYdFFY2T5N_3std3ffi6os_str8OsStringEINtB4_10SpecExtendBT_INtNtNtCsfvfooZQ3Axs_4core5array4iter8IntoIterBT_Kj6_EE11spec_extendCsdARyWrlPtHl_2cc, symObjAddr: 0x4974, symBinAddr: 0x10004BDE4, symSize: 0x24 }
  - { offset: 0x88D9E, size: 0x8, addend: 0x0, symName: __RNvXs_NtNtCse1nGBsou5OW_5alloc3vec11spec_extendINtB6_3VecRNtNtCscOYdFFY2T5N_3std4path4PathEINtB4_10SpecExtendBT_INtNtNtNtCsfvfooZQ3Axs_4core4iter8adapters5chain5ChainINtNtB1R_3map3MapINtNtNtB1V_5slice4iter4IterNtCsdARyWrlPtHl_2cc6ObjectENCNvMs4_B3o_NtB3o_5Build8assemble0EIB2F_IB2W_INtNtB8_4sync3ArcBU_EENvYB4w_NtNtNtB1V_3ops5deref5Deref5derefEEE11spec_extendB3o_, symObjAddr: 0x4998, symBinAddr: 0x10004BE08, symSize: 0x24 }
  - { offset: 0x88DF0, size: 0x8, addend: 0x0, symName: __RNvXs_NtNtCse1nGBsou5OW_5alloc3vec11spec_extendINtB6_3VechEINtB4_10SpecExtendhINtNtNtNtCsfvfooZQ3Axs_4core4iter8adapters3map3MapINtNtNtB1n_5slice4iter4IterhENCNvNtB8_3str13replace_ascii0EE11spec_extendCsdARyWrlPtHl_2cc, symObjAddr: 0x49BC, symBinAddr: 0x10004BE2C, symSize: 0x24 }
  - { offset: 0x88E4E, size: 0x8, addend: 0x0, symName: __RNvXNtNtCse1nGBsou5OW_5alloc3vec14spec_from_iterINtB4_3VecINtNtB6_5boxed3BoxNtNtNtCscOYdFFY2T5N_3std3ffi6os_str5OsStrEEINtB2_12SpecFromIterBU_INtNtNtNtCsfvfooZQ3Axs_4core4iter8adapters3map3MapINtNtB2l_5chain5ChainINtNtB2l_6cloned6ClonedINtNtNtB2p_5slice4iter4IterRB1c_EEIB2h_IB3N_NtNtB6_6string6StringEINvMsl_B1e_B1c_3newB4u_EEENvYB4d_INtNtB2p_7convert4IntoBU_E4intoEE9from_iterCsdARyWrlPtHl_2cc, symObjAddr: 0x39B8, symBinAddr: 0x10004AF70, symSize: 0x14 }
  - { offset: 0x88E8D, size: 0x8, addend: 0x0, symName: __RNvXNtNtCse1nGBsou5OW_5alloc3vec14spec_from_iterINtB4_3VecNtNtB6_6string6StringEINtB2_12SpecFromIterBU_INtNtNtNtCsfvfooZQ3Axs_4core4iter8adapters3map3MapNtNtNtB1M_3str4iter15SplitWhitespaceNCNvMs4_CsdARyWrlPtHl_2ccNtB39_5Build8env_tool0EE9from_iterB39_, symObjAddr: 0x39CC, symBinAddr: 0x10004AF84, symSize: 0x14 }
  - { offset: 0x88ECC, size: 0x8, addend: 0x0, symName: __RNvXNtNtCse1nGBsou5OW_5alloc3vec14spec_from_iterINtB4_3VecNtNtB6_6string6StringEINtB2_12SpecFromIterBU_INtNtNtNtCsfvfooZQ3Axs_4core4iter8adapters3map3MapNtNtNtB1M_3str4iter15SplitWhitespaceNCNvMs4_CsdARyWrlPtHl_2ccNtB39_5Build8env_tools_0EE9from_iterB39_, symObjAddr: 0x39E0, symBinAddr: 0x10004AF98, symSize: 0x14 }
  - { offset: 0x88F0B, size: 0x8, addend: 0x0, symName: __RNvXNtNtCse1nGBsou5OW_5alloc3vec14spec_from_iterINtB4_3VecRNtNtCscOYdFFY2T5N_3std4path4PathEINtB2_12SpecFromIterBU_INtNtNtNtCsfvfooZQ3Axs_4core4iter8adapters5chain5ChainINtNtB1U_3map3MapINtNtNtB1Y_5slice4iter4IterNtCsdARyWrlPtHl_2cc6ObjectENCNvMs4_B3r_NtB3r_5Build8assemble0EIB2I_IB2Z_INtNtB6_4sync3ArcBV_EENvYB4z_NtNtNtB1Y_3ops5deref5Deref5derefEEE9from_iterB3r_, symObjAddr: 0x39F4, symBinAddr: 0x10004AFAC, symSize: 0x14 }
  - { offset: 0x88F4A, size: 0x8, addend: 0x0, symName: __RNvXNtNtCse1nGBsou5OW_5alloc3vec14spec_from_iterINtB4_3VecRNtNtNtCscOYdFFY2T5N_3std3ffi6os_str8OsStringEINtB2_12SpecFromIterBU_INtNtNtNtCsfvfooZQ3Axs_4core4iter8adapters6filter6FilterINtNtNtB2a_5slice4iter4IterBV_ENCNvMNtCsdARyWrlPtHl_2cc4toolNtB3v_4Tool10to_command0EE9from_iterB3x_, symObjAddr: 0x3A08, symBinAddr: 0x10004AFC0, symSize: 0x14 }
  - { offset: 0x88F89, size: 0x8, addend: 0x0, symName: __RNvXNtNtCse1nGBsou5OW_5alloc3vec14spec_from_iterINtB4_3VecReEINtB2_12SpecFromIterBU_INtNtNtCsfvfooZQ3Axs_4core3str4iter5SplitcEE9from_iterCsdARyWrlPtHl_2cc, symObjAddr: 0x3A1C, symBinAddr: 0x10004AFD4, symSize: 0x14 }
  - { offset: 0x88FD4, size: 0x8, addend: 0x0, symName: __RNvXNtNtCse1nGBsou5OW_5alloc3vec21spec_from_iter_nestedINtB4_3VecNtNtB6_6string6StringEINtB2_18SpecFromIterNestedB11_INtNtNtNtCsfvfooZQ3Axs_4core4iter8adapters3map3MapNtNtNtB20_3str4iter15SplitWhitespaceNCNvMs4_CsdARyWrlPtHl_2ccNtB3n_5Build8env_tool0EE9from_iterB3n_, symObjAddr: 0x3A30, symBinAddr: 0x10004AFE8, symSize: 0x224 }
  - { offset: 0x891F3, size: 0x8, addend: 0x0, symName: __RNvXNtNtCse1nGBsou5OW_5alloc3vec21spec_from_iter_nestedINtB4_3VecNtNtB6_6string6StringEINtB2_18SpecFromIterNestedB11_INtNtNtNtCsfvfooZQ3Axs_4core4iter8adapters3map3MapNtNtNtB20_3str4iter15SplitWhitespaceNCNvMs4_CsdARyWrlPtHl_2ccNtB3n_5Build8env_tools_0EE9from_iterB3n_, symObjAddr: 0x3C54, symBinAddr: 0x10004B20C, symSize: 0x224 }
  - { offset: 0x89412, size: 0x8, addend: 0x0, symName: __RNvXNtNtCse1nGBsou5OW_5alloc3vec21spec_from_iter_nestedINtB4_3VecRNtNtNtCscOYdFFY2T5N_3std3ffi6os_str8OsStringEINtB2_18SpecFromIterNestedB11_INtNtNtNtCsfvfooZQ3Axs_4core4iter8adapters6filter6FilterINtNtNtB2o_5slice4iter4IterB12_ENCNvMNtCsdARyWrlPtHl_2cc4toolNtB3K_4Tool10to_command0EE9from_iterB3M_, symObjAddr: 0x3E78, symBinAddr: 0x10004B430, symSize: 0x1F8 }
  - { offset: 0x89630, size: 0x8, addend: 0x0, symName: __RNvXNtNtCse1nGBsou5OW_5alloc3vec21spec_from_iter_nestedINtB4_3VecReEINtB2_18SpecFromIterNestedB11_INtNtNtCsfvfooZQ3Axs_4core3str4iter5SplitcEE9from_iterCsdARyWrlPtHl_2cc, symObjAddr: 0x4070, symBinAddr: 0x10004B628, symSize: 0x22C }
  - { offset: 0x89855, size: 0x8, addend: 0x0, symName: __RNvXs_NtNtCse1nGBsou5OW_5alloc3vec21spec_from_iter_nestedINtB6_3VecINtNtB8_5boxed3BoxNtNtNtCscOYdFFY2T5N_3std3ffi6os_str5OsStrEEINtB4_18SpecFromIterNestedB13_INtNtNtNtCsfvfooZQ3Axs_4core4iter8adapters3map3MapINtNtB2B_5chain5ChainINtNtB2B_6cloned6ClonedINtNtNtB2F_5slice4iter4IterRB1l_EEIB2x_IB43_NtNtB8_6string6StringEINvMsl_B1n_B1l_3newB4K_EEENvYB4t_INtNtB2F_7convert4IntoB13_E4intoEE9from_iterCsdARyWrlPtHl_2cc, symObjAddr: 0x4A08, symBinAddr: 0x10004BE50, symSize: 0x16C }
  - { offset: 0x8992C, size: 0x8, addend: 0x0, symName: __RNvXs_NtNtCse1nGBsou5OW_5alloc3vec21spec_from_iter_nestedINtB6_3VecRNtNtCscOYdFFY2T5N_3std4path4PathEINtB4_18SpecFromIterNestedB13_INtNtNtNtCsfvfooZQ3Axs_4core4iter8adapters5chain5ChainINtNtB2a_3map3MapINtNtNtB2e_5slice4iter4IterNtCsdARyWrlPtHl_2cc6ObjectENCNvMs4_B3H_NtB3H_5Build8assemble0EIB2Y_IB3f_INtNtB8_4sync3ArcB14_EENvYB4P_NtNtNtB2e_3ops5deref5Deref5derefEEE9from_iterB3H_, symObjAddr: 0x4B74, symBinAddr: 0x10004BFBC, symSize: 0x16C }
  - { offset: 0x89A03, size: 0x8, addend: 0x0, symName: __RNvXs_NtNtCse1nGBsou5OW_5alloc3vec21spec_from_iter_nestedINtB6_3VechEINtB4_18SpecFromIterNestedhINtNtNtNtCsfvfooZQ3Axs_4core4iter8adapters3map3MapINtNtNtB1F_5slice4iter4IterhENCNvNtB8_3str13replace_ascii0EE9from_iterCsdARyWrlPtHl_2cc, symObjAddr: 0x4CE0, symBinAddr: 0x10004C128, symSize: 0x168 }
  - { offset: 0x89AE1, size: 0x8, addend: 0x0, symName: __RNvXs6_NtCse1nGBsou5OW_5alloc3vecINtB5_3VecINtNtB7_4sync3ArcNtNtCscOYdFFY2T5N_3std4path4PathEENtNtNtCsfvfooZQ3Axs_4core3ops5deref5Deref5derefCsdARyWrlPtHl_2cc, symObjAddr: 0x44F0, symBinAddr: 0x10004B984, symSize: 0x24 }
  - { offset: 0x89B21, size: 0x8, addend: 0x0, symName: __RNvXs6_NtCse1nGBsou5OW_5alloc3vecINtB5_3VecINtNtB7_4sync3ArcNtNtNtCscOYdFFY2T5N_3std3ffi6os_str5OsStrEENtNtNtCsfvfooZQ3Axs_4core3ops5deref5Deref5derefCsdARyWrlPtHl_2cc, symObjAddr: 0x4514, symBinAddr: 0x10004B9A8, symSize: 0x24 }
  - { offset: 0x89B61, size: 0x8, addend: 0x0, symName: __RNvXs6_NtCse1nGBsou5OW_5alloc3vecINtB5_3VecNtCsdARyWrlPtHl_2cc6ObjectENtNtNtCsfvfooZQ3Axs_4core3ops5deref5Deref5derefBH_, symObjAddr: 0x4538, symBinAddr: 0x10004B9CC, symSize: 0x24 }
  - { offset: 0x89BA1, size: 0x8, addend: 0x0, symName: __RNvXs6_NtCse1nGBsou5OW_5alloc3vecINtB5_3VecNtNtB7_6string6StringENtNtNtCsfvfooZQ3Axs_4core3ops5deref5Deref5derefCsdARyWrlPtHl_2cc, symObjAddr: 0x455C, symBinAddr: 0x10004B9F0, symSize: 0x24 }
  - { offset: 0x89BE1, size: 0x8, addend: 0x0, symName: __RNvXs6_NtCse1nGBsou5OW_5alloc3vecINtB5_3VecNtNtNtCscOYdFFY2T5N_3std3ffi6os_str8OsStringENtNtNtCsfvfooZQ3Axs_4core3ops5deref5Deref5derefCsdARyWrlPtHl_2cc, symObjAddr: 0x4580, symBinAddr: 0x10004BA14, symSize: 0x24 }
  - { offset: 0x89C21, size: 0x8, addend: 0x0, symName: __RNvXs6_NtCse1nGBsou5OW_5alloc3vecINtB5_3VecRNtNtCscOYdFFY2T5N_3std4path4PathENtNtNtCsfvfooZQ3Axs_4core3ops5deref5Deref5derefCsdARyWrlPtHl_2cc, symObjAddr: 0x45A4, symBinAddr: 0x10004BA38, symSize: 0x24 }
  - { offset: 0x89C61, size: 0x8, addend: 0x0, symName: __RNvXs6_NtCse1nGBsou5OW_5alloc3vecINtB5_3VecReENtNtNtCsfvfooZQ3Axs_4core3ops5deref5Deref5derefCsdARyWrlPtHl_2cc, symObjAddr: 0x45C8, symBinAddr: 0x10004BA5C, symSize: 0x24 }
  - { offset: 0x89CA1, size: 0x8, addend: 0x0, symName: __RNvXs6_NtCse1nGBsou5OW_5alloc3vecINtB5_3VecTINtNtB7_4sync3ArcNtNtNtCscOYdFFY2T5N_3std3ffi6os_str5OsStrEBG_EENtNtNtCsfvfooZQ3Axs_4core3ops5deref5Deref5derefCsdARyWrlPtHl_2cc, symObjAddr: 0x45EC, symBinAddr: 0x10004BA80, symSize: 0x24 }
  - { offset: 0x89CE1, size: 0x8, addend: 0x0, symName: __RNvXs6_NtCse1nGBsou5OW_5alloc3vecINtB5_3VecTINtNtB7_4sync3ArceEINtNtCsfvfooZQ3Axs_4core6option6OptionBG_EEENtNtNtB14_3ops5deref5Deref5derefCsdARyWrlPtHl_2cc, symObjAddr: 0x4610, symBinAddr: 0x10004BAA4, symSize: 0x24 }
  - { offset: 0x89D21, size: 0x8, addend: 0x0, symName: __RNvXs6_NtCse1nGBsou5OW_5alloc3vecINtB5_3VecTNtNtNtCscOYdFFY2T5N_3std3ffi6os_str8OsStringBG_EENtNtNtCsfvfooZQ3Axs_4core3ops5deref5Deref5derefCsdARyWrlPtHl_2cc, symObjAddr: 0x4634, symBinAddr: 0x10004BAC8, symSize: 0x24 }
  - { offset: 0x89D61, size: 0x8, addend: 0x0, symName: __RNvXs6_NtCse1nGBsou5OW_5alloc3vecINtB5_3VechENtNtNtCsfvfooZQ3Axs_4core3ops5deref5Deref5derefCsdARyWrlPtHl_2cc, symObjAddr: 0x4658, symBinAddr: 0x10004BAEC, symSize: 0x24 }
  - { offset: 0x89F87, size: 0x8, addend: 0x0, symName: __RNvXs7_NtCse1nGBsou5OW_5alloc3vecINtB5_3VechENtNtNtCsfvfooZQ3Axs_4core3ops5deref8DerefMut9deref_mutCsdARyWrlPtHl_2cc, symObjAddr: 0x467C, symBinAddr: 0x10004BB10, symSize: 0x24 }
  - { offset: 0x89FFD, size: 0x8, addend: 0x0, symName: __RNvXs9_NtCse1nGBsou5OW_5alloc3vecINtB5_3VecNtNtB7_6string6StringENtNtCsfvfooZQ3Axs_4core5clone5Clone5cloneCsdARyWrlPtHl_2cc, symObjAddr: 0x46A0, symBinAddr: 0x10004BB34, symSize: 0x88 }
  - { offset: 0x8A1F4, size: 0x8, addend: 0x0, symName: __RNvXs9_NtCse1nGBsou5OW_5alloc3vecINtB5_3VecNtNtNtCscOYdFFY2T5N_3std3ffi6os_str8OsStringENtNtCsfvfooZQ3Axs_4core5clone5Clone5cloneCsdARyWrlPtHl_2cc, symObjAddr: 0x4728, symBinAddr: 0x10004BBBC, symSize: 0x88 }
  - { offset: 0x8A3EB, size: 0x8, addend: 0x0, symName: __RNvXs9_NtCse1nGBsou5OW_5alloc3vecINtB5_3VecTNtNtNtCscOYdFFY2T5N_3std3ffi6os_str8OsStringBG_EENtNtCsfvfooZQ3Axs_4core5clone5Clone5cloneCsdARyWrlPtHl_2cc, symObjAddr: 0x47B0, symBinAddr: 0x10004BC44, symSize: 0x88 }
  - { offset: 0x8A5E2, size: 0x8, addend: 0x0, symName: __RNvXs9_NtCse1nGBsou5OW_5alloc3vecINtB5_3VechENtNtCsfvfooZQ3Axs_4core5clone5Clone10clone_fromCsdARyWrlPtHl_2cc, symObjAddr: 0x4838, symBinAddr: 0x10004BCCC, symSize: 0x70 }
  - { offset: 0x8A6D0, size: 0x8, addend: 0x0, symName: __RNvXs9_NtCse1nGBsou5OW_5alloc3vecINtB5_3VechENtNtCsfvfooZQ3Axs_4core5clone5Clone5cloneCsdARyWrlPtHl_2cc, symObjAddr: 0x48A8, symBinAddr: 0x10004BD3C, symSize: 0x84 }
  - { offset: 0x8A8CD, size: 0x8, addend: 0x0, symName: __RNvXsb_NtCse1nGBsou5OW_5alloc3vecINtB5_3VechEINtNtNtCsfvfooZQ3Axs_4core3ops5index5IndexINtNtBM_5range7RangeTojEE5indexCsdARyWrlPtHl_2cc, symObjAddr: 0x4E48, symBinAddr: 0x10004C290, symSize: 0xD8 }
  - { offset: 0x8AAE4, size: 0x8, addend: 0x0, symName: __RNvXsc_NtCse1nGBsou5OW_5alloc3vecINtB5_3VechEINtNtNtCsfvfooZQ3Axs_4core3ops5index8IndexMutINtNtBM_5range9RangeFromjEE9index_mutCsdARyWrlPtHl_2cc, symObjAddr: 0x4F20, symBinAddr: 0x10004C368, symSize: 0x80 }
  - { offset: 0x8AC3E, size: 0x8, addend: 0x0, symName: __RNvXse_NtCse1nGBsou5OW_5alloc3vecINtB5_3VecNtNtB7_6string6StringENtNtNtNtCsfvfooZQ3Axs_4core4iter6traits7collect12IntoIterator9into_iterCsdARyWrlPtHl_2cc, symObjAddr: 0x5084, symBinAddr: 0x10004C3E8, symSize: 0xE4 }
  - { offset: 0x8AED6, size: 0x8, addend: 0x0, symName: __RNvXsf_NtCse1nGBsou5OW_5alloc3vecRINtB5_3VecINtNtB7_4sync3ArcNtNtNtCscOYdFFY2T5N_3std3ffi6os_str5OsStrEENtNtNtNtCsfvfooZQ3Axs_4core4iter6traits7collect12IntoIterator9into_iterCsdARyWrlPtHl_2cc, symObjAddr: 0x5168, symBinAddr: 0x10004C4CC, symSize: 0x9C }
  - { offset: 0x8B132, size: 0x8, addend: 0x0, symName: __RNvXsf_NtCse1nGBsou5OW_5alloc3vecRINtB5_3VecNtNtB7_6string6StringENtNtNtNtCsfvfooZQ3Axs_4core4iter6traits7collect12IntoIterator9into_iterCsdARyWrlPtHl_2cc, symObjAddr: 0x5204, symBinAddr: 0x10004C568, symSize: 0xA4 }
  - { offset: 0x8B38E, size: 0x8, addend: 0x0, symName: __RNvXsf_NtCse1nGBsou5OW_5alloc3vecRINtB5_3VecNtNtNtCscOYdFFY2T5N_3std3ffi6os_str8OsStringENtNtNtNtCsfvfooZQ3Axs_4core4iter6traits7collect12IntoIterator9into_iterCsdARyWrlPtHl_2cc, symObjAddr: 0x52A8, symBinAddr: 0x10004C60C, symSize: 0xA4 }
  - { offset: 0x8B5EA, size: 0x8, addend: 0x0, symName: __RNvXsf_NtCse1nGBsou5OW_5alloc3vecRINtB5_3VecRNtNtNtCscOYdFFY2T5N_3std3ffi6os_str8OsStringENtNtNtNtCsfvfooZQ3Axs_4core4iter6traits7collect12IntoIterator9into_iterCsdARyWrlPtHl_2cc, symObjAddr: 0x534C, symBinAddr: 0x10004C6B0, symSize: 0x98 }
  - { offset: 0x8B846, size: 0x8, addend: 0x0, symName: __RNvXsf_NtCse1nGBsou5OW_5alloc3vecRINtB5_3VecTNtNtNtCscOYdFFY2T5N_3std3ffi6os_str8OsStringBH_EENtNtNtNtCsfvfooZQ3Axs_4core4iter6traits7collect12IntoIterator9into_iterCsdARyWrlPtHl_2cc, symObjAddr: 0x53E4, symBinAddr: 0x10004C748, symSize: 0xA4 }
  - { offset: 0x8BAA8, size: 0x8, addend: 0x0, symName: __RNvXsn_NtCse1nGBsou5OW_5alloc3vecINtB5_3VecINtNtB7_4sync3ArcNtNtCscOYdFFY2T5N_3std4path4PathEENtNtNtCsfvfooZQ3Axs_4core3ops4drop4Drop4dropCsdARyWrlPtHl_2cc, symObjAddr: 0x5488, symBinAddr: 0x10004C7EC, symSize: 0x38 }
  - { offset: 0x8BB58, size: 0x8, addend: 0x0, symName: __RNvXsn_NtCse1nGBsou5OW_5alloc3vecINtB5_3VecINtNtB7_4sync3ArcNtNtNtCscOYdFFY2T5N_3std3ffi6os_str5OsStrEENtNtNtCsfvfooZQ3Axs_4core3ops4drop4Drop4dropCsdARyWrlPtHl_2cc, symObjAddr: 0x54C0, symBinAddr: 0x10004C824, symSize: 0x38 }
  - { offset: 0x8BC08, size: 0x8, addend: 0x0, symName: __RNvXsn_NtCse1nGBsou5OW_5alloc3vecINtB5_3VecINtNtB7_5boxed3BoxDINtNtNtCsfvfooZQ3Axs_4core3ops8function5FnMutuEp6OutputINtNtB15_6result6ResultuNtNtNtCscOYdFFY2T5N_3std2io5error5ErrorENtNtB15_6marker4SendNtB2V_4SyncEL_EENtNtB13_4drop4Drop4dropCsdARyWrlPtHl_2cc, symObjAddr: 0x54F8, symBinAddr: 0x10004C85C, symSize: 0x38 }
  - { offset: 0x8BCB8, size: 0x8, addend: 0x0, symName: __RNvXsn_NtCse1nGBsou5OW_5alloc3vecINtB5_3VecINtNtB7_5boxed3BoxNtNtNtCscOYdFFY2T5N_3std3ffi6os_str5OsStrEENtNtNtCsfvfooZQ3Axs_4core3ops4drop4Drop4dropCsdARyWrlPtHl_2cc, symObjAddr: 0x5530, symBinAddr: 0x10004C894, symSize: 0x38 }
  - { offset: 0x8BD68, size: 0x8, addend: 0x0, symName: __RNvXsn_NtCse1nGBsou5OW_5alloc3vecINtB5_3VecNtCsdARyWrlPtHl_2cc6ObjectENtNtNtCsfvfooZQ3Axs_4core3ops4drop4Drop4dropBH_, symObjAddr: 0x5568, symBinAddr: 0x10004C8CC, symSize: 0x38 }
  - { offset: 0x8BE18, size: 0x8, addend: 0x0, symName: __RNvXsn_NtCse1nGBsou5OW_5alloc3vecINtB5_3VecNtNtNtB7_3ffi5c_str7CStringENtNtNtCsfvfooZQ3Axs_4core3ops4drop4Drop4dropCsdARyWrlPtHl_2cc, symObjAddr: 0x55A0, symBinAddr: 0x10004C904, symSize: 0x38 }
  - { offset: 0x8BEC8, size: 0x8, addend: 0x0, symName: __RNvXsn_NtCse1nGBsou5OW_5alloc3vecINtB5_3VecNtNtNtCscOYdFFY2T5N_3std3ffi6os_str8OsStringENtNtNtCsfvfooZQ3Axs_4core3ops4drop4Drop4dropCsdARyWrlPtHl_2cc, symObjAddr: 0x55D8, symBinAddr: 0x10004C93C, symSize: 0x38 }
  - { offset: 0x8BF78, size: 0x8, addend: 0x0, symName: __RNvXsn_NtCse1nGBsou5OW_5alloc3vecINtB5_3VecNtNtNtNtCscOYdFFY2T5N_3std4sync4mpmc5waker5EntryENtNtNtCsfvfooZQ3Axs_4core3ops4drop4Drop4dropCsdARyWrlPtHl_2cc, symObjAddr: 0x5610, symBinAddr: 0x10004C974, symSize: 0x38 }
  - { offset: 0x8C028, size: 0x8, addend: 0x0, symName: __RNvXsn_NtCse1nGBsou5OW_5alloc3vecINtB5_3VecPaENtNtNtCsfvfooZQ3Axs_4core3ops4drop4Drop4dropCsdARyWrlPtHl_2cc, symObjAddr: 0x5648, symBinAddr: 0x10004C9AC, symSize: 0x24 }
  - { offset: 0x8C0D8, size: 0x8, addend: 0x0, symName: __RNvXsn_NtCse1nGBsou5OW_5alloc3vecINtB5_3VecRNtNtCscOYdFFY2T5N_3std4path4PathENtNtNtCsfvfooZQ3Axs_4core3ops4drop4Drop4dropCsdARyWrlPtHl_2cc, symObjAddr: 0x566C, symBinAddr: 0x10004C9D0, symSize: 0x24 }
  - { offset: 0x8C188, size: 0x8, addend: 0x0, symName: __RNvXsn_NtCse1nGBsou5OW_5alloc3vecINtB5_3VecRNtNtNtCscOYdFFY2T5N_3std3ffi6os_str8OsStringENtNtNtCsfvfooZQ3Axs_4core3ops4drop4Drop4dropCsdARyWrlPtHl_2cc, symObjAddr: 0x5690, symBinAddr: 0x10004C9F4, symSize: 0x24 }
  - { offset: 0x8C238, size: 0x8, addend: 0x0, symName: __RNvXsn_NtCse1nGBsou5OW_5alloc3vecINtB5_3VecReENtNtNtCsfvfooZQ3Axs_4core3ops4drop4Drop4dropCsdARyWrlPtHl_2cc, symObjAddr: 0x56B4, symBinAddr: 0x10004CA18, symSize: 0x24 }
  - { offset: 0x8C2E8, size: 0x8, addend: 0x0, symName: __RNvXsn_NtCse1nGBsou5OW_5alloc3vecINtB5_3VecTINtNtB7_4sync3ArcNtNtNtCscOYdFFY2T5N_3std3ffi6os_str5OsStrEBG_EENtNtNtCsfvfooZQ3Axs_4core3ops4drop4Drop4dropCsdARyWrlPtHl_2cc, symObjAddr: 0x56D8, symBinAddr: 0x10004CA3C, symSize: 0x38 }
  - { offset: 0x8C398, size: 0x8, addend: 0x0, symName: __RNvXsn_NtCse1nGBsou5OW_5alloc3vecINtB5_3VecTINtNtB7_4sync3ArceEINtNtCsfvfooZQ3Axs_4core6option6OptionBG_EEENtNtNtB14_3ops4drop4Drop4dropCsdARyWrlPtHl_2cc, symObjAddr: 0x5710, symBinAddr: 0x10004CA74, symSize: 0x38 }
  - { offset: 0x8C448, size: 0x8, addend: 0x0, symName: __RNvXsn_NtCse1nGBsou5OW_5alloc3vecINtB5_3VecTNtNtCscOYdFFY2T5N_3std7process7CommandNtNvMs4_CsdARyWrlPtHl_2ccNtB1q_5Build15compile_objects10KillOnDropNtNtNtB1q_8parallel9job_token8JobTokenEENtNtNtCsfvfooZQ3Axs_4core3ops4drop4Drop4dropB1q_, symObjAddr: 0x5748, symBinAddr: 0x10004CAAC, symSize: 0x38 }
  - { offset: 0x8C4F8, size: 0x8, addend: 0x0, symName: __RNvXsn_NtCse1nGBsou5OW_5alloc3vecINtB5_3VecTNtNtNtCscOYdFFY2T5N_3std3ffi6os_str8OsStringBG_EENtNtNtCsfvfooZQ3Axs_4core3ops4drop4Drop4dropCsdARyWrlPtHl_2cc, symObjAddr: 0x5780, symBinAddr: 0x10004CAE4, symSize: 0x38 }
  - { offset: 0x8C5AE, size: 0x8, addend: 0x0, symName: __RNvXso_NtCse1nGBsou5OW_5alloc3vecINtB5_3VecTNtNtCscOYdFFY2T5N_3std7process7CommandNtNvMs4_CsdARyWrlPtHl_2ccNtB1q_5Build15compile_objects10KillOnDropNtNtNtB1q_8parallel9job_token8JobTokenEENtNtCsfvfooZQ3Axs_4core7default7Default7defaultB1q_, symObjAddr: 0x57B8, symBinAddr: 0x10004CB1C, symSize: 0x14 }
  - { offset: 0x8C5D0, size: 0x8, addend: 0x0, symName: __RNvXso_NtCse1nGBsou5OW_5alloc3vecINtB5_3VecTNtNtCscOYdFFY2T5N_3std7process7CommandNtNvMs4_CsdARyWrlPtHl_2ccNtB1q_5Build15compile_objects10KillOnDropNtNtNtB1q_8parallel9job_token8JobTokenEENtNtCsfvfooZQ3Axs_4core7default7Default7defaultB1q_, symObjAddr: 0x57B8, symBinAddr: 0x10004CB1C, symSize: 0x14 }
  - { offset: 0x8E4F8, size: 0x8, addend: 0x0, symName: __RINvMs_NtCse1nGBsou5OW_5alloc3vecINtB5_3VecNtNtNtNtCscOYdFFY2T5N_3std4sync4mpmc5waker5EntryE5drainNtNtNtCsfvfooZQ3Axs_4core3ops5range9RangeFullECsdARyWrlPtHl_2cc, symObjAddr: 0x130, symBinAddr: 0x100047C94, symSize: 0x140 }
  - { offset: 0x8EF18, size: 0x8, addend: 0x0, symName: __RINvMs_NtCse1nGBsou5OW_5alloc3vecINtB5_3VecTNtNtCscOYdFFY2T5N_3std7process7CommandNtNvMs4_CsdARyWrlPtHl_2ccNtB1q_5Build15compile_objects10KillOnDropNtNtNtB1q_8parallel9job_token8JobTokenEE10retain_mutNCNCNCB1k_000EB1q_, symObjAddr: 0x270, symBinAddr: 0x100047DD4, symSize: 0xE4 }
  - { offset: 0x8F2E6, size: 0x8, addend: 0x0, symName: __RINvMsi_NtCse1nGBsou5OW_5alloc3vecINtB6_3VecINtNtB8_5boxed3BoxNtNtNtCscOYdFFY2T5N_3std3ffi6os_str5OsStrEE14extend_trustedINtNtNtNtCsfvfooZQ3Axs_4core4iter8adapters3map3MapINtNtB20_5chain5ChainINtNtB20_6cloned6ClonedINtNtNtB24_5slice4iter4IterRBY_EEIB1W_IB3s_NtNtB8_6string6StringEINvMsl_B10_BY_3newB48_EEENvYB3S_INtNtB24_7convert4IntoBG_E4intoEECsdARyWrlPtHl_2cc, symObjAddr: 0x4DC, symBinAddr: 0x100047EB8, symSize: 0x17C }
  - { offset: 0x8F659, size: 0x8, addend: 0x0, symName: __RINvMsi_NtCse1nGBsou5OW_5alloc3vecINtB6_3VecNtNtB8_6string6StringE16extend_desugaredINtNtNtNtCsfvfooZQ3Axs_4core4iter8adapters3map3MapNtNtNtB1t_3str4iter15SplitWhitespaceNCNvMs4_CsdARyWrlPtHl_2ccNtB2Q_5Build8env_tool0EEB2Q_, symObjAddr: 0x658, symBinAddr: 0x100048034, symSize: 0x1CC }
  - { offset: 0x8F9EF, size: 0x8, addend: 0x0, symName: __RINvMsi_NtCse1nGBsou5OW_5alloc3vecINtB6_3VecNtNtB8_6string6StringE16extend_desugaredINtNtNtNtCsfvfooZQ3Axs_4core4iter8adapters3map3MapNtNtNtB1t_3str4iter15SplitWhitespaceNCNvMs4_CsdARyWrlPtHl_2ccNtB2Q_5Build8env_tools_0EEB2Q_, symObjAddr: 0x824, symBinAddr: 0x100048200, symSize: 0x1CC }
  - { offset: 0x8FDBB, size: 0x8, addend: 0x0, symName: __RINvMsi_NtCse1nGBsou5OW_5alloc3vecINtB6_3VecNtNtB8_6string6StringE16extend_desugaredINtNtNtNtCsfvfooZQ3Axs_4core4iter8adapters3map3MapNtNtNtB1t_3str4iter20SplitAsciiWhitespaceNvYeNtBI_8ToString9to_stringEECsdARyWrlPtHl_2cc, symObjAddr: 0x9F0, symBinAddr: 0x1000483CC, symSize: 0x1CC }
  - { offset: 0x9019F, size: 0x8, addend: 0x0, symName: __RINvMsi_NtCse1nGBsou5OW_5alloc3vecINtB6_3VecNtNtB8_6string6StringE16extend_desugaredNtCs9APsZDMLctY_5shlex5ShlexECsdARyWrlPtHl_2cc, symObjAddr: 0xBBC, symBinAddr: 0x100048598, symSize: 0x1CC }
  - { offset: 0x904E2, size: 0x8, addend: 0x0, symName: __RINvMsi_NtCse1nGBsou5OW_5alloc3vecINtB6_3VecNtNtNtCscOYdFFY2T5N_3std3ffi6os_str8OsStringE14extend_trustedINtNtNtCsfvfooZQ3Axs_4core5array4iter8IntoIterBG_Kj6_EECsdARyWrlPtHl_2cc, symObjAddr: 0xD88, symBinAddr: 0x100048764, symSize: 0x1A0 }
  - { offset: 0x9081E, size: 0x8, addend: 0x0, symName: __RINvMsi_NtCse1nGBsou5OW_5alloc3vecINtB6_3VecRNtNtCscOYdFFY2T5N_3std4path4PathE14extend_trustedINtNtNtNtCsfvfooZQ3Axs_4core4iter8adapters5chain5ChainINtNtB1z_3map3MapINtNtNtB1D_5slice4iter4IterNtCsdARyWrlPtHl_2cc6ObjectENCNvMs4_B36_NtB36_5Build8assemble0EIB2n_IB2E_INtNtB8_4sync3ArcBH_EENvYB4e_NtNtNtB1D_3ops5deref5Deref5derefEEEB36_, symObjAddr: 0xF28, symBinAddr: 0x100048904, symSize: 0x17C }
  - { offset: 0x90BD6, size: 0x8, addend: 0x0, symName: __RINvMsi_NtCse1nGBsou5OW_5alloc3vecINtB6_3VecRNtNtNtCscOYdFFY2T5N_3std3ffi6os_str8OsStringE16extend_desugaredINtNtNtNtCsfvfooZQ3Axs_4core4iter8adapters6filter6FilterINtNtNtB1R_5slice4iter4IterBH_ENCNvMNtCsdARyWrlPtHl_2cc4toolNtB3c_4Tool10to_command0EEB3e_, symObjAddr: 0x10A4, symBinAddr: 0x100048A80, symSize: 0x174 }
  - { offset: 0x90FB8, size: 0x8, addend: 0x0, symName: __RINvMsi_NtCse1nGBsou5OW_5alloc3vecINtB6_3VecReE16extend_desugaredINtNtNtCsfvfooZQ3Axs_4core3str4iter5SplitcEECsdARyWrlPtHl_2cc, symObjAddr: 0x1218, symBinAddr: 0x100048BF4, symSize: 0x19C }
  - { offset: 0x912E3, size: 0x8, addend: 0x0, symName: __RINvMsi_NtCse1nGBsou5OW_5alloc3vecINtB6_3VechE14extend_trustedINtNtNtNtCsfvfooZQ3Axs_4core4iter8adapters3map3MapINtNtNtB17_5slice4iter4IterhENCNvNtB8_3str13replace_ascii0EECsdARyWrlPtHl_2cc, symObjAddr: 0x13B4, symBinAddr: 0x100048D90, symSize: 0x17C }
  - { offset: 0x91639, size: 0x8, addend: 0x0, symName: __RNvMNtCse1nGBsou5OW_5alloc3vecINtB2_3VecINtNtB4_4sync3ArcNtNtCscOYdFFY2T5N_3std4path4PathEE3newCsdARyWrlPtHl_2cc, symObjAddr: 0x1DF4, symBinAddr: 0x10004948C, symSize: 0x14 }
  - { offset: 0x91656, size: 0x8, addend: 0x0, symName: __RNvMNtCse1nGBsou5OW_5alloc3vecINtB2_3VecINtNtB4_4sync3ArcNtNtNtCscOYdFFY2T5N_3std3ffi6os_str5OsStrEE3newCsdARyWrlPtHl_2cc, symObjAddr: 0x1E08, symBinAddr: 0x1000494A0, symSize: 0x14 }
  - { offset: 0x916D5, size: 0x8, addend: 0x0, symName: __RNvMNtCse1nGBsou5OW_5alloc3vecINtB2_3VecNtCsdARyWrlPtHl_2cc6ObjectE13with_capacityBE_, symObjAddr: 0x1E1C, symBinAddr: 0x1000494B4, symSize: 0x48 }
  - { offset: 0x9174D, size: 0x8, addend: 0x0, symName: __RNvMNtCse1nGBsou5OW_5alloc3vecINtB2_3VecNtNtB4_6string6StringE3newCsdARyWrlPtHl_2cc, symObjAddr: 0x1E64, symBinAddr: 0x1000494FC, symSize: 0x14 }
  - { offset: 0x9176A, size: 0x8, addend: 0x0, symName: __RNvMNtCse1nGBsou5OW_5alloc3vecINtB2_3VecNtNtNtCscOYdFFY2T5N_3std3ffi6os_str8OsStringE3newCsdARyWrlPtHl_2cc, symObjAddr: 0x1E78, symBinAddr: 0x100049510, symSize: 0x14 }
  - { offset: 0x91787, size: 0x8, addend: 0x0, symName: __RNvMNtCse1nGBsou5OW_5alloc3vecINtB2_3VecTINtNtB4_4sync3ArcNtNtNtCscOYdFFY2T5N_3std3ffi6os_str5OsStrEBD_EE3newCsdARyWrlPtHl_2cc, symObjAddr: 0x1E8C, symBinAddr: 0x100049524, symSize: 0x14 }
  - { offset: 0x917A4, size: 0x8, addend: 0x0, symName: __RNvMNtCse1nGBsou5OW_5alloc3vecINtB2_3VecTINtNtB4_4sync3ArceEINtNtCsfvfooZQ3Axs_4core6option6OptionBD_EEE3newCsdARyWrlPtHl_2cc, symObjAddr: 0x1EA0, symBinAddr: 0x100049538, symSize: 0x14 }
  - { offset: 0x917C1, size: 0x8, addend: 0x0, symName: __RNvMNtCse1nGBsou5OW_5alloc3vecINtB2_3VecTNtNtCscOYdFFY2T5N_3std7process7CommandNtNvMs4_CsdARyWrlPtHl_2ccNtB1n_5Build15compile_objects10KillOnDropNtNtNtB1n_8parallel9job_token8JobTokenEE3newB1n_, symObjAddr: 0x1EB4, symBinAddr: 0x10004954C, symSize: 0x14 }
  - { offset: 0x917DE, size: 0x8, addend: 0x0, symName: __RNvMNtCse1nGBsou5OW_5alloc3vecINtB2_3VecTNtNtNtCscOYdFFY2T5N_3std3ffi6os_str8OsStringBD_EE3newCsdARyWrlPtHl_2cc, symObjAddr: 0x1EC8, symBinAddr: 0x100049560, symSize: 0x14 }
  - { offset: 0x9185D, size: 0x8, addend: 0x0, symName: __RNvMNtCse1nGBsou5OW_5alloc3vecINtB2_3VechE13with_capacityCsdARyWrlPtHl_2cc, symObjAddr: 0x1EDC, symBinAddr: 0x100049574, symSize: 0x44 }
  - { offset: 0x919F4, size: 0x8, addend: 0x0, symName: __RNvMs0_NtCse1nGBsou5OW_5alloc3vecINtB5_3VechE6resizeCsdARyWrlPtHl_2cc, symObjAddr: 0x1F48, symBinAddr: 0x1000495E0, symSize: 0x100 }
  - { offset: 0x91C95, size: 0x8, addend: 0x0, symName: __RNvMs2_NtCse1nGBsou5OW_5alloc3vecINtB5_3VechE11extend_withCsdARyWrlPtHl_2cc, symObjAddr: 0x2048, symBinAddr: 0x1000496E0, symSize: 0x230 }
  - { offset: 0x91FF7, size: 0x8, addend: 0x0, symName: __RNvMs_NtCse1nGBsou5OW_5alloc3vecINtB4_3VecINtNtB6_4sync3ArcNtNtCscOYdFFY2T5N_3std4path4PathEE8as_sliceCsdARyWrlPtHl_2cc, symObjAddr: 0x2290, symBinAddr: 0x100049910, symSize: 0x64 }
  - { offset: 0x92190, size: 0x8, addend: 0x0, symName: __RNvMs_NtCse1nGBsou5OW_5alloc3vecINtB4_3VecINtNtB6_4sync3ArcNtNtNtCscOYdFFY2T5N_3std3ffi6os_str5OsStrEE4pushCsdARyWrlPtHl_2cc, symObjAddr: 0x22F4, symBinAddr: 0x100049974, symSize: 0xF8 }
  - { offset: 0x923FF, size: 0x8, addend: 0x0, symName: __RNvMs_NtCse1nGBsou5OW_5alloc3vecINtB4_3VecINtNtB6_4sync3ArcNtNtNtCscOYdFFY2T5N_3std3ffi6os_str5OsStrEE8as_sliceCsdARyWrlPtHl_2cc, symObjAddr: 0x24B4, symBinAddr: 0x100049A6C, symSize: 0x64 }
  - { offset: 0x924DE, size: 0x8, addend: 0x0, symName: __RNvMs_NtCse1nGBsou5OW_5alloc3vecINtB4_3VecINtNtB6_4sync3ArcNtNtNtCscOYdFFY2T5N_3std3ffi6os_str5OsStrEE8is_emptyCsdARyWrlPtHl_2cc, symObjAddr: 0x2518, symBinAddr: 0x100049AD0, symSize: 0x20 }
  - { offset: 0x92644, size: 0x8, addend: 0x0, symName: __RNvMs_NtCse1nGBsou5OW_5alloc3vecINtB4_3VecINtNtB6_5boxed3BoxNtNtNtCscOYdFFY2T5N_3std3ffi6os_str5OsStrEE13shrink_to_fitCsdARyWrlPtHl_2cc, symObjAddr: 0x2538, symBinAddr: 0x100049AF0, symSize: 0xEC }
  - { offset: 0x92890, size: 0x8, addend: 0x0, symName: __RNvMs_NtCse1nGBsou5OW_5alloc3vecINtB4_3VecINtNtB6_5boxed3BoxNtNtNtCscOYdFFY2T5N_3std3ffi6os_str5OsStrEE16into_boxed_sliceCsdARyWrlPtHl_2cc, symObjAddr: 0x2624, symBinAddr: 0x100049BDC, symSize: 0x110 }
  - { offset: 0x92B62, size: 0x8, addend: 0x0, symName: __RNvMs_NtCse1nGBsou5OW_5alloc3vecINtB4_3VecINtNtB6_5boxed3BoxNtNtNtCscOYdFFY2T5N_3std3ffi6os_str5OsStrEE7reserveCsdARyWrlPtHl_2cc, symObjAddr: 0x2734, symBinAddr: 0x100049CEC, symSize: 0xC8 }
  - { offset: 0x92DCF, size: 0x8, addend: 0x0, symName: __RNvMs_NtCse1nGBsou5OW_5alloc3vecINtB4_3VecNtCsdARyWrlPtHl_2cc6ObjectE4pushBG_, symObjAddr: 0x27FC, symBinAddr: 0x100049DB4, symSize: 0x118 }
  - { offset: 0x93028, size: 0x8, addend: 0x0, symName: __RNvMs_NtCse1nGBsou5OW_5alloc3vecINtB4_3VecNtCsdARyWrlPtHl_2cc6ObjectE8as_sliceBG_, symObjAddr: 0x2914, symBinAddr: 0x100049ECC, symSize: 0x64 }
  - { offset: 0x93179, size: 0x8, addend: 0x0, symName: __RNvMs_NtCse1nGBsou5OW_5alloc3vecINtB4_3VecNtNtB6_6string6StringE8as_sliceCsdARyWrlPtHl_2cc, symObjAddr: 0x2978, symBinAddr: 0x100049F30, symSize: 0x64 }
  - { offset: 0x93312, size: 0x8, addend: 0x0, symName: __RNvMs_NtCse1nGBsou5OW_5alloc3vecINtB4_3VecNtNtNtCscOYdFFY2T5N_3std3ffi6os_str8OsStringE4pushCsdARyWrlPtHl_2cc, symObjAddr: 0x29DC, symBinAddr: 0x100049F94, symSize: 0x108 }
  - { offset: 0x935DC, size: 0x8, addend: 0x0, symName: __RNvMs_NtCse1nGBsou5OW_5alloc3vecINtB4_3VecNtNtNtCscOYdFFY2T5N_3std3ffi6os_str8OsStringE7reserveCsdARyWrlPtHl_2cc, symObjAddr: 0x2AE4, symBinAddr: 0x10004A09C, symSize: 0xC8 }
  - { offset: 0x937E7, size: 0x8, addend: 0x0, symName: __RNvMs_NtCse1nGBsou5OW_5alloc3vecINtB4_3VecNtNtNtCscOYdFFY2T5N_3std3ffi6os_str8OsStringE8as_sliceCsdARyWrlPtHl_2cc, symObjAddr: 0x2BAC, symBinAddr: 0x10004A164, symSize: 0x64 }
  - { offset: 0x938C6, size: 0x8, addend: 0x0, symName: __RNvMs_NtCse1nGBsou5OW_5alloc3vecINtB4_3VecNtNtNtCscOYdFFY2T5N_3std3ffi6os_str8OsStringE8is_emptyCsdARyWrlPtHl_2cc, symObjAddr: 0x2C10, symBinAddr: 0x10004A1C8, symSize: 0x20 }
  - { offset: 0x939F8, size: 0x8, addend: 0x0, symName: __RNvMs_NtCse1nGBsou5OW_5alloc3vecINtB4_3VecNtNtNtNtCscOYdFFY2T5N_3std4sync4mpmc5waker5EntryE4pushCsdARyWrlPtHl_2cc, symObjAddr: 0x2C30, symBinAddr: 0x10004A1E8, symSize: 0x108 }
  - { offset: 0x93C82, size: 0x8, addend: 0x0, symName: __RNvMs_NtCse1nGBsou5OW_5alloc3vecINtB4_3VecNtNtNtNtCscOYdFFY2T5N_3std4sync4mpmc5waker5EntryE6removeCsdARyWrlPtHl_2cc, symObjAddr: 0x2D38, symBinAddr: 0x10004A2F0, symSize: 0x130 }
  - { offset: 0x93F65, size: 0x8, addend: 0x0, symName: __RNvMs_NtCse1nGBsou5OW_5alloc3vecINtB4_3VecRNtNtCscOYdFFY2T5N_3std4path4PathE7reserveCsdARyWrlPtHl_2cc, symObjAddr: 0x2E68, symBinAddr: 0x10004A420, symSize: 0xC8 }
  - { offset: 0x94170, size: 0x8, addend: 0x0, symName: __RNvMs_NtCse1nGBsou5OW_5alloc3vecINtB4_3VecRNtNtCscOYdFFY2T5N_3std4path4PathE8as_sliceCsdARyWrlPtHl_2cc, symObjAddr: 0x2F30, symBinAddr: 0x10004A4E8, symSize: 0x64 }
  - { offset: 0x94340, size: 0x8, addend: 0x0, symName: __RNvMs_NtCse1nGBsou5OW_5alloc3vecINtB4_3VecRNtNtNtCscOYdFFY2T5N_3std3ffi6os_str8OsStringE7reserveCsdARyWrlPtHl_2cc, symObjAddr: 0x2F94, symBinAddr: 0x10004A54C, symSize: 0xBC }
  - { offset: 0x94586, size: 0x8, addend: 0x0, symName: __RNvMs_NtCse1nGBsou5OW_5alloc3vecINtB4_3VecReE4pushCsdARyWrlPtHl_2cc, symObjAddr: 0x3050, symBinAddr: 0x10004A608, symSize: 0xF4 }
  - { offset: 0x9484F, size: 0x8, addend: 0x0, symName: __RNvMs_NtCse1nGBsou5OW_5alloc3vecINtB4_3VecReE7reserveCsdARyWrlPtHl_2cc, symObjAddr: 0x3144, symBinAddr: 0x10004A6FC, symSize: 0xC8 }
  - { offset: 0x94A26, size: 0x8, addend: 0x0, symName: __RNvMs_NtCse1nGBsou5OW_5alloc3vecINtB4_3VecReE8as_sliceCsdARyWrlPtHl_2cc, symObjAddr: 0x320C, symBinAddr: 0x10004A7C4, symSize: 0x64 }
  - { offset: 0x94BAB, size: 0x8, addend: 0x0, symName: __RNvMs_NtCse1nGBsou5OW_5alloc3vecINtB4_3VecTINtNtB6_4sync3ArcNtNtNtCscOYdFFY2T5N_3std3ffi6os_str5OsStrEBF_EE8as_sliceCsdARyWrlPtHl_2cc, symObjAddr: 0x3270, symBinAddr: 0x10004A828, symSize: 0x64 }
  - { offset: 0x94D30, size: 0x8, addend: 0x0, symName: __RNvMs_NtCse1nGBsou5OW_5alloc3vecINtB4_3VecTINtNtB6_4sync3ArceEINtNtCsfvfooZQ3Axs_4core6option6OptionBF_EEE8as_sliceCsdARyWrlPtHl_2cc, symObjAddr: 0x32D4, symBinAddr: 0x10004A88C, symSize: 0x64 }
  - { offset: 0x94EC9, size: 0x8, addend: 0x0, symName: __RNvMs_NtCse1nGBsou5OW_5alloc3vecINtB4_3VecTNtNtCscOYdFFY2T5N_3std7process7CommandNtNvMs4_CsdARyWrlPtHl_2ccNtB1p_5Build15compile_objects10KillOnDropNtNtNtB1p_8parallel9job_token8JobTokenEE4pushB1p_, symObjAddr: 0x3338, symBinAddr: 0x10004A8F0, symSize: 0x120 }
  - { offset: 0x950A5, size: 0x8, addend: 0x0, symName: __RNvMs_NtCse1nGBsou5OW_5alloc3vecINtB4_3VecTNtNtCscOYdFFY2T5N_3std7process7CommandNtNvMs4_CsdARyWrlPtHl_2ccNtB1p_5Build15compile_objects10KillOnDropNtNtNtB1p_8parallel9job_token8JobTokenEE8is_emptyB1p_, symObjAddr: 0x3458, symBinAddr: 0x10004AA10, symSize: 0x20 }
  - { offset: 0x9520B, size: 0x8, addend: 0x0, symName: __RNvMs_NtCse1nGBsou5OW_5alloc3vecINtB4_3VecTNtNtNtCscOYdFFY2T5N_3std3ffi6os_str8OsStringBF_EE4pushCsdARyWrlPtHl_2cc, symObjAddr: 0x3478, symBinAddr: 0x10004AA30, symSize: 0x118 }
  - { offset: 0x95464, size: 0x8, addend: 0x0, symName: __RNvMs_NtCse1nGBsou5OW_5alloc3vecINtB4_3VecTNtNtNtCscOYdFFY2T5N_3std3ffi6os_str8OsStringBF_EE8as_sliceCsdARyWrlPtHl_2cc, symObjAddr: 0x3590, symBinAddr: 0x10004AB48, symSize: 0x64 }
  - { offset: 0x95543, size: 0x8, addend: 0x0, symName: __RNvMs_NtCse1nGBsou5OW_5alloc3vecINtB4_3VecTNtNtNtCscOYdFFY2T5N_3std3ffi6os_str8OsStringBF_EE8is_emptyCsdARyWrlPtHl_2cc, symObjAddr: 0x35F4, symBinAddr: 0x10004ABAC, symSize: 0x20 }
  - { offset: 0x95634, size: 0x8, addend: 0x0, symName: __RNvMs_NtCse1nGBsou5OW_5alloc3vecINtB4_3VechE12as_mut_sliceCsdARyWrlPtHl_2cc, symObjAddr: 0x3614, symBinAddr: 0x10004ABCC, symSize: 0x60 }
  - { offset: 0x95809, size: 0x8, addend: 0x0, symName: __RNvMs_NtCse1nGBsou5OW_5alloc3vecINtB4_3VechE13shrink_to_fitCsdARyWrlPtHl_2cc, symObjAddr: 0x3674, symBinAddr: 0x10004AC2C, symSize: 0xE4 }
  - { offset: 0x95A37, size: 0x8, addend: 0x0, symName: __RNvMs_NtCse1nGBsou5OW_5alloc3vecINtB4_3VechE16into_boxed_sliceCsdARyWrlPtHl_2cc, symObjAddr: 0x3758, symBinAddr: 0x10004AD10, symSize: 0x110 }
  - { offset: 0x95C00, size: 0x8, addend: 0x0, symName: __RNvMs_NtCse1nGBsou5OW_5alloc3vecINtB4_3VechE3lenCsdARyWrlPtHl_2cc, symObjAddr: 0x3868, symBinAddr: 0x10004AE20, symSize: 0x18 }
  - { offset: 0x95CA5, size: 0x8, addend: 0x0, symName: __RNvMs_NtCse1nGBsou5OW_5alloc3vecINtB4_3VechE8as_sliceCsdARyWrlPtHl_2cc, symObjAddr: 0x3880, symBinAddr: 0x10004AE38, symSize: 0x60 }
  - { offset: 0x97BDB, size: 0x8, addend: 0x0, symName: __RINvMsk_NtCscOYdFFY2T5N_3std7processNtB6_7Command10env_removeReECsdARyWrlPtHl_2cc, symObjAddr: 0x0, symBinAddr: 0x10004CB30, symSize: 0x78 }
  - { offset: 0x984B5, size: 0x8, addend: 0x0, symName: __RINvNtNtCscOYdFFY2T5N_3std4sync4mpmc7channelINtNtCsfvfooZQ3Axs_4core6result6ResultNtCs4Wq06SSluyi_9jobserver8AcquiredNtNtNtB6_2io5error5ErrorEECsdARyWrlPtHl_2cc, symObjAddr: 0x11CC, symBinAddr: 0x10004DC08, symSize: 0x280 }
  - { offset: 0x9878B, size: 0x8, addend: 0x0, symName: __RNCNvMs2_NtNtCscOYdFFY2T5N_3std4sync4mpmcINtB7_6SenderINtNtCsfvfooZQ3Axs_4core6result6ResultNtCs4Wq06SSluyi_9jobserver8AcquiredNtNtNtBb_2io5error5ErrorEE4send0CsdARyWrlPtHl_2cc, symObjAddr: 0x1518, symBinAddr: 0x10004DF54, symSize: 0xC0 }
  - { offset: 0x987FF, size: 0x8, addend: 0x0, symName: __RNCNvXs4_NtNtCscOYdFFY2T5N_3std4sync4mpmcINtB7_6SenderINtNtCsfvfooZQ3Axs_4core6result6ResultNtCs4Wq06SSluyi_9jobserver8AcquiredNtNtNtBb_2io5error5ErrorEENtNtNtBV_3ops4drop4Drop4drop0CsdARyWrlPtHl_2cc, symObjAddr: 0x15D8, symBinAddr: 0x10004E014, symSize: 0x24 }
  - { offset: 0x98841, size: 0x8, addend: 0x0, symName: __RNCNvXs4_NtNtCscOYdFFY2T5N_3std4sync4mpmcINtB7_6SenderINtNtCsfvfooZQ3Axs_4core6result6ResultNtCs4Wq06SSluyi_9jobserver8AcquiredNtNtNtBb_2io5error5ErrorEENtNtNtBV_3ops4drop4Drop4drops0_0CsdARyWrlPtHl_2cc, symObjAddr: 0x15FC, symBinAddr: 0x10004E038, symSize: 0x24 }
  - { offset: 0x98883, size: 0x8, addend: 0x0, symName: __RNCNvXs4_NtNtCscOYdFFY2T5N_3std4sync4mpmcINtB7_6SenderINtNtCsfvfooZQ3Axs_4core6result6ResultNtCs4Wq06SSluyi_9jobserver8AcquiredNtNtNtBb_2io5error5ErrorEENtNtNtBV_3ops4drop4Drop4drops_0CsdARyWrlPtHl_2cc, symObjAddr: 0x1620, symBinAddr: 0x10004E05C, symSize: 0x24 }
  - { offset: 0x988DB, size: 0x8, addend: 0x0, symName: __RNvXs4_NtNtCscOYdFFY2T5N_3std4sync4mpmcINtB5_6SenderINtNtCsfvfooZQ3Axs_4core6result6ResultNtCs4Wq06SSluyi_9jobserver8AcquiredNtNtNtB9_2io5error5ErrorEENtNtNtBT_3ops4drop4Drop4dropCsdARyWrlPtHl_2cc, symObjAddr: 0x1D20, symBinAddr: 0x10004E75C, symSize: 0x90 }
  - { offset: 0x98973, size: 0x8, addend: 0x0, symName: __RNCNvXsi_NtNtCscOYdFFY2T5N_3std4sync4mpmcINtB7_8ReceiverINtNtCsfvfooZQ3Axs_4core6result6ResultNtCs4Wq06SSluyi_9jobserver8AcquiredNtNtNtBb_2io5error5ErrorEENtNtNtBX_3ops4drop4Drop4drop0CsdARyWrlPtHl_2cc, symObjAddr: 0x16B4, symBinAddr: 0x10004E0F0, symSize: 0x24 }
  - { offset: 0x989B5, size: 0x8, addend: 0x0, symName: __RNCNvXsi_NtNtCscOYdFFY2T5N_3std4sync4mpmcINtB7_8ReceiverINtNtCsfvfooZQ3Axs_4core6result6ResultNtCs4Wq06SSluyi_9jobserver8AcquiredNtNtNtBb_2io5error5ErrorEENtNtNtBX_3ops4drop4Drop4drops0_0CsdARyWrlPtHl_2cc, symObjAddr: 0x16D8, symBinAddr: 0x10004E114, symSize: 0x24 }
  - { offset: 0x989F7, size: 0x8, addend: 0x0, symName: __RNCNvXsi_NtNtCscOYdFFY2T5N_3std4sync4mpmcINtB7_8ReceiverINtNtCsfvfooZQ3Axs_4core6result6ResultNtCs4Wq06SSluyi_9jobserver8AcquiredNtNtNtBb_2io5error5ErrorEENtNtNtBX_3ops4drop4Drop4drops_0CsdARyWrlPtHl_2cc, symObjAddr: 0x16FC, symBinAddr: 0x10004E138, symSize: 0x24 }
  - { offset: 0x98A4F, size: 0x8, addend: 0x0, symName: __RNvXsi_NtNtCscOYdFFY2T5N_3std4sync4mpmcINtB5_8ReceiverINtNtCsfvfooZQ3Axs_4core6result6ResultNtCs4Wq06SSluyi_9jobserver8AcquiredNtNtNtB9_2io5error5ErrorEENtNtNtBV_3ops4drop4Drop4dropCsdARyWrlPtHl_2cc, symObjAddr: 0x2070, symBinAddr: 0x10004EAAC, symSize: 0x90 }
  - { offset: 0x9945F, size: 0x8, addend: 0x0, symName: __RNvXs5_NtNtNtCscOYdFFY2T5N_3std2os4unix7processNtNtBb_7process11ChildStderrNtNtNtB9_2fd3raw7AsRawFd9as_raw_fdCsdARyWrlPtHl_2cc, symObjAddr: 0x1DB0, symBinAddr: 0x10004E7EC, symSize: 0x18 }
  - { offset: 0x99762, size: 0x8, addend: 0x0, symName: __RNvXsd_NtNtCscOYdFFY2T5N_3std2io5stdioNtB5_6StdoutNtB7_5Write17is_write_vectoredCsdARyWrlPtHl_2cc, symObjAddr: 0x1EBC, symBinAddr: 0x10004E8F8, symSize: 0x30 }
  - { offset: 0x99796, size: 0x8, addend: 0x0, symName: __RNvXse_NtNtCscOYdFFY2T5N_3std2io5stdioRNtB5_6StdoutNtB7_5Write17is_write_vectoredCsdARyWrlPtHl_2cc, symObjAddr: 0x1F64, symBinAddr: 0x10004E9A0, symSize: 0x74 }
  - { offset: 0x997DF, size: 0x8, addend: 0x0, symName: __RNvXsh_NtNtCscOYdFFY2T5N_3std2io5stdioNtB5_10StdoutLockNtB7_5Write17is_write_vectoredCsdARyWrlPtHl_2cc, symObjAddr: 0x1FD8, symBinAddr: 0x10004EA14, symSize: 0x98 }
  - { offset: 0x9A44F, size: 0x8, addend: 0x0, symName: __RNvNvMNtCsdARyWrlPtHl_2cc4toolNtB4_4Tool13with_features9is_zig_cc, symObjAddr: 0x77BC, symBinAddr: 0x1000539FC, symSize: 0x248 }
  - { offset: 0x9A4A4, size: 0x8, addend: 0x0, symName: __RNCNvNvMNtCsdARyWrlPtHl_2cc4toolNtB6_4Tool13with_features9is_zig_cc0B8_, symObjAddr: 0x7A04, symBinAddr: 0x100053C44, symSize: 0xE4 }
  - { offset: 0x9A4E3, size: 0x8, addend: 0x0, symName: __RNvNvMNtCsdARyWrlPtHl_2cc4toolNtB4_4Tool13with_features24guess_family_from_stdout, symObjAddr: 0x7AE8, symBinAddr: 0x100053D28, symSize: 0x48C }
  - { offset: 0x9A5DF, size: 0x8, addend: 0x0, symName: __RNvNvMNtCsdARyWrlPtHl_2cc4toolNtB4_4Tool13with_features19detect_family_inner, symObjAddr: 0x7F74, symBinAddr: 0x1000541B4, symSize: 0xD44 }
  - { offset: 0x9A924, size: 0x8, addend: 0x0, symName: __RNCNvNvMNtCsdARyWrlPtHl_2cc4toolNtB6_4Tool13with_features19detect_family_inner0B8_, symObjAddr: 0x8CB8, symBinAddr: 0x100054EF8, symSize: 0x48 }
  - { offset: 0x9A94C, size: 0x8, addend: 0x0, symName: __RNCNvNvMNtCsdARyWrlPtHl_2cc4toolNtB6_4Tool13with_features19detect_family_inners_0B8_, symObjAddr: 0x8D00, symBinAddr: 0x100054F40, symSize: 0x14C }
  - { offset: 0x9A9A6, size: 0x8, addend: 0x0, symName: __RNCNvNvMNtCsdARyWrlPtHl_2cc4toolNtB6_4Tool13with_features19detect_family_inners0_0B8_, symObjAddr: 0x8E4C, symBinAddr: 0x10005508C, symSize: 0x14C }
  - { offset: 0x9AA00, size: 0x8, addend: 0x0, symName: __RNCNvNvMNtCsdARyWrlPtHl_2cc4toolNtB6_4Tool13with_features19detect_family_inners1_0B8_, symObjAddr: 0x8F98, symBinAddr: 0x1000551D8, symSize: 0xB4 }
  - { offset: 0x9AA45, size: 0x8, addend: 0x0, symName: __RNCNvMNtCsdARyWrlPtHl_2cc4toolNtB4_4Tool13with_features0B6_, symObjAddr: 0x904C, symBinAddr: 0x10005528C, symSize: 0x4DC }
  - { offset: 0x9AB7C, size: 0x8, addend: 0x0, symName: __RNCNvMNtCsdARyWrlPtHl_2cc4toolNtB4_4Tool13with_featuress_0B6_, symObjAddr: 0x9528, symBinAddr: 0x100055768, symSize: 0x568 }
  - { offset: 0x9ACB2, size: 0x8, addend: 0x0, symName: __RNCNCNvMNtCsdARyWrlPtHl_2cc4toolNtB6_4Tool13with_featuress_00B8_, symObjAddr: 0x9A90, symBinAddr: 0x100055CD0, symSize: 0x70 }
  - { offset: 0x9AD22, size: 0x8, addend: 0x0, symName: __RNCNvMNtCsdARyWrlPtHl_2cc4toolNtB4_4Tool20is_duplicate_opt_arg0B6_, symObjAddr: 0x9E70, symBinAddr: 0x1000560B0, symSize: 0x8C }
  - { offset: 0x9AD68, size: 0x8, addend: 0x0, symName: __RNCNvMNtCsdARyWrlPtHl_2cc4toolNtB4_4Tool10to_command0B6_, symObjAddr: 0xA2F4, symBinAddr: 0x100056534, symSize: 0x58 }
  - { offset: 0x9ADC7, size: 0x8, addend: 0x0, symName: __RNCNvMs_NtCsdARyWrlPtHl_2cc4toolNtB6_10ToolFamily15add_debug_flags0B8_, symObjAddr: 0xABB8, symBinAddr: 0x100056978, symSize: 0x44 }
  - { offset: 0x9ADF1, size: 0x8, addend: 0x0, symName: __RNCNvMs_NtCsdARyWrlPtHl_2cc4toolNtB6_10ToolFamily15add_debug_flagss_0B8_, symObjAddr: 0xABFC, symBinAddr: 0x1000569BC, symSize: 0x80 }
  - { offset: 0x9AE5D, size: 0x8, addend: 0x0, symName: __RNvXs0_NtCsdARyWrlPtHl_2cc4toolNtB5_4ToolNtNtCsfvfooZQ3Axs_4core5clone5Clone5cloneB7_, symObjAddr: 0xAF40, symBinAddr: 0x100056D00, symSize: 0x200 }
  - { offset: 0x9AE8F, size: 0x8, addend: 0x0, symName: __RNvXs3_NtCsdARyWrlPtHl_2cc4toolNtB5_10ToolFamilyNtNtCsfvfooZQ3Axs_4core5clone5Clone5cloneB7_, symObjAddr: 0xB140, symBinAddr: 0x100056F00, symSize: 0x20 }
  - { offset: 0x9AEC3, size: 0x8, addend: 0x0, symName: __RNvXs4_NtCsdARyWrlPtHl_2cc4toolNtB5_10ToolFamilyNtNtCsfvfooZQ3Axs_4core3fmt5Debug3fmtB7_, symObjAddr: 0xB160, symBinAddr: 0x100056F20, symSize: 0x108 }
  - { offset: 0x9AF42, size: 0x8, addend: 0x0, symName: __RNvXs6_NtCsdARyWrlPtHl_2cc4toolNtB5_10ToolFamilyNtNtCsfvfooZQ3Axs_4core3cmp9PartialEq2eqB7_, symObjAddr: 0xB268, symBinAddr: 0x100057028, symSize: 0x120 }
  - { offset: 0x9B02A, size: 0x8, addend: 0x0, symName: __RNvNvMs0_NtNtCsdARyWrlPtHl_2cc8parallel9job_tokenNtB7_14JobTokenServer3new9JOBSERVER, symObjAddr: 0x461E0, symBinAddr: 0x100184D18, symSize: 0x0 }
  - { offset: 0x9B037, size: 0x8, addend: 0x0, symName: __RNCNvMs0_NtNtCsdARyWrlPtHl_2cc8parallel9job_tokenNtB7_14JobTokenServer3new0Bb_, symObjAddr: 0x21E4, symBinAddr: 0x10004EC20, symSize: 0x5C }
  - { offset: 0x9B064, size: 0x8, addend: 0x0, symName: __RNCNCNvMs0_NtNtCsdARyWrlPtHl_2cc8parallel9job_tokenNtB9_14JobTokenServer3new00Bd_, symObjAddr: 0x2240, symBinAddr: 0x10004EC7C, symSize: 0x4C }
  - { offset: 0x9B34F, size: 0x8, addend: 0x0, symName: __RNCNvMs0_NtNtNtCsdARyWrlPtHl_2cc8parallel9job_token19inherited_jobserverNtB7_15ActiveJobServer7acquire0Bd_, symObjAddr: 0x2BC0, symBinAddr: 0x10004F5FC, symSize: 0x924 }
  - { offset: 0x9B540, size: 0x8, addend: 0x0, symName: __RNCNvMNtNtNtCsdARyWrlPtHl_2cc8parallel9job_token19inherited_jobserverNtB4_9JobServer8from_env0Ba_, symObjAddr: 0x2734, symBinAddr: 0x10004F170, symSize: 0x88 }
  - { offset: 0x9B589, size: 0x8, addend: 0x0, symName: __RNCNvMs_NtNtNtCsdARyWrlPtHl_2cc8parallel9job_token19inherited_jobserverNtB6_12HelperThread3new0Bc_, symObjAddr: 0x2B50, symBinAddr: 0x10004F58C, symSize: 0x44 }
  - { offset: 0x9B6E8, size: 0x8, addend: 0x0, symName: __RNCNvMNtNtNtCsdARyWrlPtHl_2cc8parallel9job_token19inprocess_jobserverNtB4_9JobServer7acquire0Ba_, symObjAddr: 0x36E8, symBinAddr: 0x100050124, symSize: 0x238 }
  - { offset: 0x9B79F, size: 0x8, addend: 0x0, symName: __RNCNCNvMNtNtNtCsdARyWrlPtHl_2cc8parallel9job_token19inprocess_jobserverNtB6_9JobServer7acquire00Bc_, symObjAddr: 0x3920, symBinAddr: 0x10005035C, symSize: 0x40 }
  - { offset: 0x9B7E3, size: 0x8, addend: 0x0, symName: __RNCNvMNtNtNtCsdARyWrlPtHl_2cc8parallel9job_token19inprocess_jobserverNtB4_9JobServer3new0Ba_, symObjAddr: 0x356C, symBinAddr: 0x10004FFA8, symSize: 0xB4 }
  - { offset: 0x9B81A, size: 0x8, addend: 0x0, symName: __RNCNvMNtNtNtCsdARyWrlPtHl_2cc8parallel9job_token19inprocess_jobserverNtB4_9JobServer3news_0Ba_, symObjAddr: 0x3620, symBinAddr: 0x10005005C, symSize: 0x9C }
  - { offset: 0x9B895, size: 0x8, addend: 0x0, symName: __RNvXs_NtNtCsdARyWrlPtHl_2cc8parallel9job_tokenNtB4_8JobTokenNtNtNtCsfvfooZQ3Axs_4core3ops4drop4Drop4drop, symObjAddr: 0x2114, symBinAddr: 0x10004EB50, symSize: 0x8C }
  - { offset: 0x9B8FA, size: 0x8, addend: 0x0, symName: __RNcNtNtNtNtCsdARyWrlPtHl_2cc8parallel9job_token14JobTokenServer9Inherited0B9_, symObjAddr: 0x21A0, symBinAddr: 0x10004EBDC, symSize: 0x18 }
  - { offset: 0x9BA8B, size: 0x8, addend: 0x0, symName: __RNCNvMs1_NtNtCsdARyWrlPtHl_2cc8parallel9job_tokenNtB7_20ActiveJobTokenServer7acquire0Bb_, symObjAddr: 0x236C, symBinAddr: 0x10004EDA8, symSize: 0x390 }
  - { offset: 0x9BC83, size: 0x8, addend: 0x0, symName: __RNcNtNtNtNtCsdARyWrlPtHl_2cc7windows10find_tools3Env5Arced0B9_, symObjAddr: 0x653C, symBinAddr: 0x100052F60, symSize: 0x2C }
  - { offset: 0x9BCB2, size: 0x8, addend: 0x0, symName: __RNvXs_NtNtCsdARyWrlPtHl_2cc7windows10find_toolsNtB4_3EnvINtNtCsfvfooZQ3Axs_4core7convert5AsRefNtNtNtCscOYdFFY2T5N_3std3ffi6os_str5OsStrE6as_ref, symObjAddr: 0x6568, symBinAddr: 0x100052F8C, symSize: 0x34 }
  - { offset: 0x9BCE4, size: 0x8, addend: 0x0, symName: __RNvXs0_NtNtCsdARyWrlPtHl_2cc7windows10find_toolsNtB5_3EnvNtNtNtCsfvfooZQ3Axs_4core3ops5deref5Deref5deref, symObjAddr: 0x659C, symBinAddr: 0x100052FC0, symSize: 0xA8 }
  - { offset: 0x9BE2B, size: 0x8, addend: 0x0, symName: __RNvNtNtCsdARyWrlPtHl_2cc7windows10find_tools15find_tool_inner, symObjAddr: 0x68B4, symBinAddr: 0x100053068, symSize: 0x2BC }
  - { offset: 0x9BF47, size: 0x8, addend: 0x0, symName: __RNCNvNtNtCsdARyWrlPtHl_2cc7windows10find_tools15find_tool_inner0B7_, symObjAddr: 0x6B70, symBinAddr: 0x100053324, symSize: 0x58 }
  - { offset: 0x9BF95, size: 0x8, addend: 0x0, symName: __RNCNvNtNtCsdARyWrlPtHl_2cc7windows10find_tools15find_tool_inners_0B7_, symObjAddr: 0x6BC8, symBinAddr: 0x10005337C, symSize: 0x68 }
  - { offset: 0x9C010, size: 0x8, addend: 0x0, symName: __RNCNvNtNtCsdARyWrlPtHl_2cc7windows10find_tools15find_tool_inners0_0B7_, symObjAddr: 0x6C30, symBinAddr: 0x1000533E4, symSize: 0x68 }
  - { offset: 0x9C23C, size: 0x8, addend: 0x0, symName: __RNCNvMNtNtCsdARyWrlPtHl_2cc6target6parserNtB4_21TargetInfoParserInner32from_cargo_environment_variables0B8_, symObjAddr: 0x41A8, symBinAddr: 0x100050BE4, symSize: 0xDC }
  - { offset: 0x9C290, size: 0x8, addend: 0x0, symName: __RNCNvMNtNtCsdARyWrlPtHl_2cc6target6parserNtB4_21TargetInfoParserInner32from_cargo_environment_variabless_0B8_, symObjAddr: 0x4284, symBinAddr: 0x100050CC0, symSize: 0x238 }
  - { offset: 0x9C343, size: 0x8, addend: 0x0, symName: __RNCNvMNtNtCsdARyWrlPtHl_2cc6target6parserNtB4_21TargetInfoParserInner32from_cargo_environment_variabless0_0B8_, symObjAddr: 0x44BC, symBinAddr: 0x100050EF8, symSize: 0x30 }
  - { offset: 0x9C379, size: 0x8, addend: 0x0, symName: __RNCNvMNtNtCsdARyWrlPtHl_2cc6target6parserNtB4_21TargetInfoParserInner32from_cargo_environment_variabless1_0B8_, symObjAddr: 0x44EC, symBinAddr: 0x100050F28, symSize: 0x30 }
  - { offset: 0x9C3AF, size: 0x8, addend: 0x0, symName: __RNCNvMNtNtCsdARyWrlPtHl_2cc6target6parserNtB4_21TargetInfoParserInner32from_cargo_environment_variabless2_0B8_, symObjAddr: 0x451C, symBinAddr: 0x100050F58, symSize: 0x30 }
  - { offset: 0x9C3E5, size: 0x8, addend: 0x0, symName: __RNCNvMNtNtCsdARyWrlPtHl_2cc6target6parserNtB4_21TargetInfoParserInner32from_cargo_environment_variabless3_0B8_, symObjAddr: 0x454C, symBinAddr: 0x100050F88, symSize: 0x30 }
  - { offset: 0x9C41B, size: 0x8, addend: 0x0, symName: __RNCNvMNtNtCsdARyWrlPtHl_2cc6target6parserNtB4_21TargetInfoParserInner32from_cargo_environment_variabless4_0B8_, symObjAddr: 0x457C, symBinAddr: 0x100050FB8, symSize: 0x30 }
  - { offset: 0x9C451, size: 0x8, addend: 0x0, symName: __RNCNvMNtNtCsdARyWrlPtHl_2cc6target6parserNtB4_21TargetInfoParserInner32from_cargo_environment_variabless5_0B8_, symObjAddr: 0x45AC, symBinAddr: 0x100050FE8, symSize: 0x84 }
  - { offset: 0x9C4F4, size: 0x8, addend: 0x0, symName: __RNvNtNtCsdARyWrlPtHl_2cc6target6parser10parse_arch, symObjAddr: 0x4778, symBinAddr: 0x1000511B4, symSize: 0xF44 }
  - { offset: 0x9CA04, size: 0x8, addend: 0x0, symName: __RNvNtNtCsdARyWrlPtHl_2cc6target6parser12parse_envabi, symObjAddr: 0x56BC, symBinAddr: 0x1000520F8, symSize: 0xA50 }
  - { offset: 0x9CBCF, size: 0x8, addend: 0x0, symName: __RNCNvMs0_NtNtCsdARyWrlPtHl_2cc6target6parserNtB9_10TargetInfo17from_rustc_target0Bb_, symObjAddr: 0x610C, symBinAddr: 0x100052B48, symSize: 0x90 }
  - { offset: 0x9CC1C, size: 0x8, addend: 0x0, symName: __RNCNvMs0_NtNtCsdARyWrlPtHl_2cc6target6parserNtB9_10TargetInfo17from_rustc_targets_0Bb_, symObjAddr: 0x619C, symBinAddr: 0x100052BD8, symSize: 0xB4 }
  - { offset: 0x9CC84, size: 0x8, addend: 0x0, symName: __RNvXs2_NtNtCsdARyWrlPtHl_2cc6target6parserNtB5_16TargetInfoParserNtNtCsfvfooZQ3Axs_4core7default7Default7defaultB9_, symObjAddr: 0xAF04, symBinAddr: 0x100056CC4, symSize: 0x3C }
  - { offset: 0x9D9D3, size: 0x8, addend: 0x0, symName: __RINvNtNtNtCse1nGBsou5OW_5alloc11collections5btree3mem7replaceINtNtB4_4node6HandleINtB10_7NodeRefNtNtB10_6marker5DyingNtNtNtCscOYdFFY2T5N_3std3ffi6os_str8OsStringINtNtCsfvfooZQ3Axs_4core6option6OptionB1R_ENtB1y_4LeafENtB1y_4EdgeEIBY_IB1i_B1w_B1R_B2z_NtB1y_14LeafOrInternalENtB1y_2KVENCINvMsm_NtB4_8navigateBX_27deallocating_next_uncheckedNtNtB8_5alloc6GlobalE0ECsdARyWrlPtHl_2cc, symObjAddr: 0x144C, symBinAddr: 0x10004DE88, symSize: 0xCC }
  - { offset: 0x9E0FF, size: 0x8, addend: 0x0, symName: __RNvNvMNtNtCsfvfooZQ3Axs_4core3ptr9alignmentNtB4_9Alignment13new_unchecked18precondition_checkCsdARyWrlPtHl_2cc, symObjAddr: 0x1A48, symBinAddr: 0x10004E484, symSize: 0x50 }
  - { offset: 0x9FBDD, size: 0x8, addend: 0x0, symName: __RNvXs1a_NtCsfvfooZQ3Axs_4core3fmtRNtNtCscOYdFFY2T5N_3std7process7CommandNtB6_5Debug3fmtCsdARyWrlPtHl_2cc, symObjAddr: 0x1CA0, symBinAddr: 0x10004E6DC, symSize: 0x30 }
  - { offset: 0x9FC29, size: 0x8, addend: 0x0, symName: __RNvXs1b_NtCsfvfooZQ3Axs_4core3fmtQNtNtCscOYdFFY2T5N_3std7process7CommandNtB6_5Debug3fmtCsdARyWrlPtHl_2cc, symObjAddr: 0x1CD0, symBinAddr: 0x10004E70C, symSize: 0x30 }
  - { offset: 0xA0AB3, size: 0x8, addend: 0x0, symName: __RNCNvXsd_NtNtCsfvfooZQ3Axs_4core5slice3cmpNtNtNtCscOYdFFY2T5N_3std3ffi6os_str8OsStringNtB7_13SliceContains14slice_contains0CsdARyWrlPtHl_2cc, symObjAddr: 0x1644, symBinAddr: 0x10004E080, symSize: 0x38 }
  - { offset: 0xA0AF9, size: 0x8, addend: 0x0, symName: __RNCNvXsd_NtNtCsfvfooZQ3Axs_4core5slice3cmpReNtB7_13SliceContains14slice_contains0CsdARyWrlPtHl_2cc, symObjAddr: 0x167C, symBinAddr: 0x10004E0B8, symSize: 0x38 }
  - { offset: 0xA0B40, size: 0x8, addend: 0x0, symName: __RNvXsd_NtNtCsfvfooZQ3Axs_4core5slice3cmpReNtB5_13SliceContains14slice_containsCsdARyWrlPtHl_2cc, symObjAddr: 0x1EEC, symBinAddr: 0x10004E928, symSize: 0x78 }
  - { offset: 0xA0CA0, size: 0x8, addend: 0x0, symName: __RNvXsc_NtNtCsfvfooZQ3Axs_4core5slice3cmphNtB5_8SliceOrd7compareCsdARyWrlPtHl_2cc, symObjAddr: 0x1DC8, symBinAddr: 0x10004E804, symSize: 0xF4 }
  - { offset: 0xA0F77, size: 0x8, addend: 0x0, symName: __RNvXNtCsfvfooZQ3Axs_4core7convertRReINtB2_5AsRefNtNtNtCscOYdFFY2T5N_3std3ffi6os_str5OsStrE6as_refCsdARyWrlPtHl_2cc, symObjAddr: 0x1A98, symBinAddr: 0x10004E4D4, symSize: 0x28 }
  - { offset: 0xA0FB7, size: 0x8, addend: 0x0, symName: __RNvXNtCsfvfooZQ3Axs_4core7convertReINtB2_5AsRefNtNtCscOYdFFY2T5N_3std4path4PathE6as_refCsdARyWrlPtHl_2cc, symObjAddr: 0x1AC0, symBinAddr: 0x10004E4FC, symSize: 0x30 }
  - { offset: 0xA0FF7, size: 0x8, addend: 0x0, symName: __RNvXNtCsfvfooZQ3Axs_4core7convertReINtB2_5AsRefeE6as_refCsdARyWrlPtHl_2cc, symObjAddr: 0x1AF0, symBinAddr: 0x10004E52C, symSize: 0x28 }
  - { offset: 0xA103D, size: 0x8, addend: 0x0, symName: __RNvXs1_NtCsfvfooZQ3Axs_4core7convertNtNtCscOYdFFY2T5N_3std7process5StdioINtB5_4IntoBy_E4intoCsdARyWrlPtHl_2cc, symObjAddr: 0x1B8C, symBinAddr: 0x10004E5C8, symSize: 0x1C }
  - { offset: 0xA107D, size: 0x8, addend: 0x0, symName: __RNvXs1_NtCsfvfooZQ3Axs_4core7convertReINtB5_4IntoINtNtCse1nGBsou5OW_5alloc4sync3ArceEE4intoCsdARyWrlPtHl_2cc, symObjAddr: 0x1BA8, symBinAddr: 0x10004E5E4, symSize: 0x28 }
  - { offset: 0xA10BD, size: 0x8, addend: 0x0, symName: __RNvXs1_NtCsfvfooZQ3Axs_4core7convertReINtB5_4IntoINtNtCse1nGBsou5OW_5alloc5boxed3BoxeEE4intoCsdARyWrlPtHl_2cc, symObjAddr: 0x1BD0, symBinAddr: 0x10004E60C, symSize: 0x28 }
  - { offset: 0xA10FD, size: 0x8, addend: 0x0, symName: __RNvXs1_NtCsfvfooZQ3Axs_4core7convertReINtB5_4IntoNtNtCscOYdFFY2T5N_3std4path7PathBufE4intoCsdARyWrlPtHl_2cc, symObjAddr: 0x1BF8, symBinAddr: 0x10004E634, symSize: 0x28 }
  - { offset: 0xA113D, size: 0x8, addend: 0x0, symName: __RNvXs1_NtCsfvfooZQ3Axs_4core7convertReINtB5_4IntoNtNtCse1nGBsou5OW_5alloc6string6StringE4intoCsdARyWrlPtHl_2cc, symObjAddr: 0x1C20, symBinAddr: 0x10004E65C, symSize: 0x28 }
  - { offset: 0xA117D, size: 0x8, addend: 0x0, symName: __RNvXs1_NtCsfvfooZQ3Axs_4core7convertReINtB5_4IntoNtNtNtCscOYdFFY2T5N_3std3ffi6os_str8OsStringE4intoCsdARyWrlPtHl_2cc, symObjAddr: 0x1C48, symBinAddr: 0x10004E684, symSize: 0x28 }
  - { offset: 0xA11C3, size: 0x8, addend: 0x0, symName: __RNvXs4_NtCsfvfooZQ3Axs_4core7convertlINtB5_7TryIntojE8try_intoCsdARyWrlPtHl_2cc, symObjAddr: 0x1D00, symBinAddr: 0x10004E73C, symSize: 0x20 }
  - { offset: 0xA121E, size: 0x8, addend: 0x0, symName: __RNvXNtNtCsfvfooZQ3Axs_4core6future11into_futureNCNvMNtNtNtCsdARyWrlPtHl_2cc8parallel9job_token19inprocess_jobserverNtBO_9JobServer7acquire0NtB2_10IntoFuture11into_futureBU_, symObjAddr: 0x1B18, symBinAddr: 0x10004E554, symSize: 0x14 }
  - { offset: 0xA1253, size: 0x8, addend: 0x0, symName: __RNvXNtNtCsfvfooZQ3Axs_4core6future11into_futureNCNvMs0_NtNtNtCsdARyWrlPtHl_2cc8parallel9job_token19inherited_jobserverNtBR_15ActiveJobServer7acquire0NtB2_10IntoFuture11into_futureBX_, symObjAddr: 0x1B2C, symBinAddr: 0x10004E568, symSize: 0x30 }
  - { offset: 0xA1289, size: 0x8, addend: 0x0, symName: __RNvXNtNtCsfvfooZQ3Axs_4core6future11into_futureNCNvMs1_NtNtCsdARyWrlPtHl_2cc8parallel9job_tokenNtBR_20ActiveJobTokenServer7acquire0NtB2_10IntoFuture11into_futureBV_, symObjAddr: 0x1B5C, symBinAddr: 0x10004E598, symSize: 0x30 }
  - { offset: 0xA12D6, size: 0x8, addend: 0x0, symName: __RNvXs1_NtNtNtCsfvfooZQ3Axs_4core3ops8function5implsQNCNvMNtCsdARyWrlPtHl_2cc4toolNtBT_4Tool10to_command0INtB7_5FnMutTRRNtNtNtCscOYdFFY2T5N_3std3ffi6os_str8OsStringEE8call_mutBV_, symObjAddr: 0x1C70, symBinAddr: 0x10004E6AC, symSize: 0x30 }
  - { offset: 0xA1B07, size: 0x8, addend: 0x0, symName: __RINvMsk_NtCscOYdFFY2T5N_3std7processNtB6_7Command10env_removeReECsdARyWrlPtHl_2cc, symObjAddr: 0x0, symBinAddr: 0x10004CB30, symSize: 0x78 }
  - { offset: 0xA1B7E, size: 0x8, addend: 0x0, symName: __RINvMsk_NtCscOYdFFY2T5N_3std7processNtB6_7Command11current_dirINtNtCse1nGBsou5OW_5alloc6borrow3CowNtNtB8_4path4PathEECsdARyWrlPtHl_2cc, symObjAddr: 0x78, symBinAddr: 0x10004CBA8, symSize: 0x90 }
  - { offset: 0xA1BBA, size: 0x8, addend: 0x0, symName: __RINvMsk_NtCscOYdFFY2T5N_3std7processNtB6_7Command3argNtNtCse1nGBsou5OW_5alloc6string6StringECsdARyWrlPtHl_2cc, symObjAddr: 0x108, symBinAddr: 0x10004CC38, symSize: 0x84 }
  - { offset: 0xA1BF6, size: 0x8, addend: 0x0, symName: __RINvMsk_NtCscOYdFFY2T5N_3std7processNtB6_7Command3argNtNtNtB8_3ffi6os_str8OsStringECsdARyWrlPtHl_2cc, symObjAddr: 0x18C, symBinAddr: 0x10004CCBC, symSize: 0x84 }
  - { offset: 0xA1C32, size: 0x8, addend: 0x0, symName: __RINvMsk_NtCscOYdFFY2T5N_3std7processNtB6_7Command3argRNtNtB8_4path4PathECsdARyWrlPtHl_2cc, symObjAddr: 0x210, symBinAddr: 0x10004CD40, symSize: 0x70 }
  - { offset: 0xA1C7A, size: 0x8, addend: 0x0, symName: __RINvMsk_NtCscOYdFFY2T5N_3std7processNtB6_7Command3argRNtNtB8_4path7PathBufECsdARyWrlPtHl_2cc, symObjAddr: 0x280, symBinAddr: 0x10004CDB0, symSize: 0x6C }
  - { offset: 0xA1CD3, size: 0x8, addend: 0x0, symName: __RINvMsk_NtCscOYdFFY2T5N_3std7processNtB6_7Command3argRNtNtNtB8_3ffi6os_str5OsStrECsdARyWrlPtHl_2cc, symObjAddr: 0x2EC, symBinAddr: 0x10004CE1C, symSize: 0x70 }
  - { offset: 0xA1D0E, size: 0x8, addend: 0x0, symName: __RINvMsk_NtCscOYdFFY2T5N_3std7processNtB6_7Command3argReECsdARyWrlPtHl_2cc, symObjAddr: 0x35C, symBinAddr: 0x10004CE8C, symSize: 0x70 }
  - { offset: 0xA1D90, size: 0x8, addend: 0x0, symName: __RINvMsk_NtCscOYdFFY2T5N_3std7processNtB6_7Command3envRINtNtCse1nGBsou5OW_5alloc4sync3ArcNtNtNtB8_3ffi6os_str5OsStrEBP_ECsdARyWrlPtHl_2cc, symObjAddr: 0x3CC, symBinAddr: 0x10004CEFC, symSize: 0x9C }
  - { offset: 0xA1E21, size: 0x8, addend: 0x0, symName: __RINvMsk_NtCscOYdFFY2T5N_3std7processNtB6_7Command3envRNtNtNtB8_3ffi6os_str8OsStringBP_ECsdARyWrlPtHl_2cc, symObjAddr: 0x468, symBinAddr: 0x10004CF98, symSize: 0x9C }
  - { offset: 0xA1EA5, size: 0x8, addend: 0x0, symName: __RINvMsk_NtCscOYdFFY2T5N_3std7processNtB6_7Command3envReBP_ECsdARyWrlPtHl_2cc, symObjAddr: 0x504, symBinAddr: 0x10004D034, symSize: 0xA4 }
  - { offset: 0xA1F29, size: 0x8, addend: 0x0, symName: __RINvMsk_NtCscOYdFFY2T5N_3std7processNtB6_7Command3envReRNtNtNtB8_3ffi6os_str8OsStringECsdARyWrlPtHl_2cc, symObjAddr: 0x5A8, symBinAddr: 0x10004D0D8, symSize: 0xA0 }
  - { offset: 0xA1F9A, size: 0x8, addend: 0x0, symName: __RINvMsk_NtCscOYdFFY2T5N_3std7processNtB6_7Command3newNtNtB8_4path7PathBufECsdARyWrlPtHl_2cc, symObjAddr: 0x648, symBinAddr: 0x10004D178, symSize: 0x90 }
  - { offset: 0xA1FC7, size: 0x8, addend: 0x0, symName: __RINvMsk_NtCscOYdFFY2T5N_3std7processNtB6_7Command3newRNtNtB8_4path4PathECsdARyWrlPtHl_2cc, symObjAddr: 0x6D8, symBinAddr: 0x10004D208, symSize: 0x84 }
  - { offset: 0xA1FF3, size: 0x8, addend: 0x0, symName: __RINvMsk_NtCscOYdFFY2T5N_3std7processNtB6_7Command3newRNtNtB8_4path7PathBufECsdARyWrlPtHl_2cc, symObjAddr: 0x75C, symBinAddr: 0x10004D28C, symSize: 0x80 }
  - { offset: 0xA202C, size: 0x8, addend: 0x0, symName: __RINvMsk_NtCscOYdFFY2T5N_3std7processNtB6_7Command3newRNtNtCse1nGBsou5OW_5alloc6string6StringECsdARyWrlPtHl_2cc, symObjAddr: 0x7DC, symBinAddr: 0x10004D30C, symSize: 0x80 }
  - { offset: 0xA2065, size: 0x8, addend: 0x0, symName: __RINvMsk_NtCscOYdFFY2T5N_3std7processNtB6_7Command3newRReECsdARyWrlPtHl_2cc, symObjAddr: 0x85C, symBinAddr: 0x10004D38C, symSize: 0x80 }
  - { offset: 0xA2091, size: 0x8, addend: 0x0, symName: __RINvMsk_NtCscOYdFFY2T5N_3std7processNtB6_7Command3newReECsdARyWrlPtHl_2cc, symObjAddr: 0x8DC, symBinAddr: 0x10004D40C, symSize: 0x84 }
  - { offset: 0xA20CA, size: 0x8, addend: 0x0, symName: __RINvMsk_NtCscOYdFFY2T5N_3std7processNtB6_7Command4argsARej2_BR_ECsdARyWrlPtHl_2cc, symObjAddr: 0x960, symBinAddr: 0x10004D490, symSize: 0x10C }
  - { offset: 0xA213C, size: 0x8, addend: 0x0, symName: __RINvMsk_NtCscOYdFFY2T5N_3std7processNtB6_7Command4argsINtNtCse1nGBsou5OW_5alloc3vec3VecNtNtBV_6string6StringEB1n_ECsdARyWrlPtHl_2cc, symObjAddr: 0xA6C, symBinAddr: 0x10004D59C, symSize: 0x104 }
  - { offset: 0xA222C, size: 0x8, addend: 0x0, symName: __RINvMsk_NtCscOYdFFY2T5N_3std7processNtB6_7Command4argsINtNtNtNtCsfvfooZQ3Axs_4core4iter8adapters3map3MapINtNtNtBZ_5slice4iter4IterINtNtCse1nGBsou5OW_5alloc4sync3ArcNtNtNtB8_3ffi6os_str5OsStrEENvYB24_NtNtNtBZ_3ops5deref5Deref5derefERB2C_ECsdARyWrlPtHl_2cc, symObjAddr: 0xC64, symBinAddr: 0x10004D6A0, symSize: 0xF4 }
  - { offset: 0xA22A9, size: 0x8, addend: 0x0, symName: __RINvMsk_NtCscOYdFFY2T5N_3std7processNtB6_7Command4argsRINtNtCse1nGBsou5OW_5alloc3vec3VecNtNtNtB8_3ffi6os_str8OsStringERB1o_ECsdARyWrlPtHl_2cc, symObjAddr: 0xD58, symBinAddr: 0x10004D794, symSize: 0xD4 }
  - { offset: 0xA2333, size: 0x8, addend: 0x0, symName: __RINvMsk_NtCscOYdFFY2T5N_3std7processNtB6_7Command4argsRINtNtCse1nGBsou5OW_5alloc3vec3VecRNtNtNtB8_3ffi6os_str8OsStringERB1o_ECsdARyWrlPtHl_2cc, symObjAddr: 0xE2C, symBinAddr: 0x10004D868, symSize: 0xD4 }
  - { offset: 0xA23CA, size: 0x8, addend: 0x0, symName: __RINvMsk_NtCscOYdFFY2T5N_3std7processNtB6_7Command4argsRSNtNtCse1nGBsou5OW_5alloc6string6StringRBS_ECsdARyWrlPtHl_2cc, symObjAddr: 0xF00, symBinAddr: 0x10004D93C, symSize: 0xDC }
  - { offset: 0xA246E, size: 0x8, addend: 0x0, symName: __RINvMsk_NtCscOYdFFY2T5N_3std7processNtB6_7Command4argsRSRNtNtB8_4path4PathRBS_ECsdARyWrlPtHl_2cc, symObjAddr: 0xFDC, symBinAddr: 0x10004DA18, symSize: 0xDC }
  - { offset: 0xA24DE, size: 0x8, addend: 0x0, symName: __RINvMsk_NtCscOYdFFY2T5N_3std7processNtB6_7Command5stdinNtB6_5StdioECsdARyWrlPtHl_2cc, symObjAddr: 0x10B8, symBinAddr: 0x10004DAF4, symSize: 0x5C }
  - { offset: 0xA2519, size: 0x8, addend: 0x0, symName: __RINvMsk_NtCscOYdFFY2T5N_3std7processNtB6_7Command6stderrNtB6_5StdioECsdARyWrlPtHl_2cc, symObjAddr: 0x1114, symBinAddr: 0x10004DB50, symSize: 0x5C }
  - { offset: 0xA2554, size: 0x8, addend: 0x0, symName: __RINvMsk_NtCscOYdFFY2T5N_3std7processNtB6_7Command6stdoutNtB6_5StdioECsdARyWrlPtHl_2cc, symObjAddr: 0x1170, symBinAddr: 0x10004DBAC, symSize: 0x5C }
  - { offset: 0xA28E9, size: 0x8, addend: 0x0, symName: __RNvMs2_NtNtCscOYdFFY2T5N_3std4sync4mpmcINtB5_6SenderINtNtCsfvfooZQ3Axs_4core6result6ResultNtCs4Wq06SSluyi_9jobserver8AcquiredNtNtNtB9_2io5error5ErrorEE4sendCsdARyWrlPtHl_2cc, symObjAddr: 0x1720, symBinAddr: 0x10004E15C, symSize: 0x1CC }
  - { offset: 0xA2B41, size: 0x8, addend: 0x0, symName: __RNvMsC_NtCscOYdFFY2T5N_3std7processNtB5_10ExitStatus7successCsdARyWrlPtHl_2cc, symObjAddr: 0x18EC, symBinAddr: 0x10004E328, symSize: 0x70 }
  - { offset: 0xA2C8D, size: 0x8, addend: 0x0, symName: __RNvMsg_NtNtCscOYdFFY2T5N_3std4sync4mpmcINtB5_8ReceiverINtNtCsfvfooZQ3Axs_4core6result6ResultNtCs4Wq06SSluyi_9jobserver8AcquiredNtNtNtB9_2io5error5ErrorEE8try_recvCsdARyWrlPtHl_2cc, symObjAddr: 0x195C, symBinAddr: 0x10004E398, symSize: 0xA4 }
  - { offset: 0xA2DC6, size: 0x8, addend: 0x0, symName: __RNvMsr_NtCscOYdFFY2T5N_3std7processNtB5_5Stdio4nullCsdARyWrlPtHl_2cc, symObjAddr: 0x1A00, symBinAddr: 0x10004E43C, symSize: 0x18 }
  - { offset: 0xA2DD9, size: 0x8, addend: 0x0, symName: __RNvMsr_NtCscOYdFFY2T5N_3std7processNtB5_5Stdio5pipedCsdARyWrlPtHl_2cc, symObjAddr: 0x1A18, symBinAddr: 0x10004E454, symSize: 0x18 }
  - { offset: 0xA2DEC, size: 0x8, addend: 0x0, symName: __RNvMsr_NtCscOYdFFY2T5N_3std7processNtB5_5Stdio7inheritCsdARyWrlPtHl_2cc, symObjAddr: 0x1A30, symBinAddr: 0x10004E46C, symSize: 0x18 }
  - { offset: 0xA2FD7, size: 0x8, addend: 0x0, symName: __RNvMNtNtCsdARyWrlPtHl_2cc8parallel9job_tokenNtB2_8JobToken3new, symObjAddr: 0x2100, symBinAddr: 0x10004EB3C, symSize: 0x14 }
  - { offset: 0xA2FF7, size: 0x8, addend: 0x0, symName: __RNvMs0_NtNtCsdARyWrlPtHl_2cc8parallel9job_tokenNtB5_14JobTokenServer3new, symObjAddr: 0x21B8, symBinAddr: 0x10004EBF4, symSize: 0x2C }
  - { offset: 0xA30BA, size: 0x8, addend: 0x0, symName: __RNvMs1_NtNtCsdARyWrlPtHl_2cc8parallel9job_tokenNtB5_20ActiveJobTokenServer3new, symObjAddr: 0x228C, symBinAddr: 0x10004ECC8, symSize: 0xB4 }
  - { offset: 0xA3122, size: 0x8, addend: 0x0, symName: __RNvMs1_NtNtCsdARyWrlPtHl_2cc8parallel9job_tokenNtB5_20ActiveJobTokenServer7acquire, symObjAddr: 0x2340, symBinAddr: 0x10004ED7C, symSize: 0x2C }
  - { offset: 0xA3196, size: 0x8, addend: 0x0, symName: __RNvMNtNtNtCsdARyWrlPtHl_2cc8parallel9job_token19inherited_jobserverNtB2_9JobServer8from_env, symObjAddr: 0x26FC, symBinAddr: 0x10004F138, symSize: 0x38 }
  - { offset: 0xA31B6, size: 0x8, addend: 0x0, symName: __RNvMNtNtNtCsdARyWrlPtHl_2cc8parallel9job_token19inherited_jobserverNtB2_9JobServer25get_global_implicit_token, symObjAddr: 0x27BC, symBinAddr: 0x10004F1F8, symSize: 0x50 }
  - { offset: 0xA31D8, size: 0x8, addend: 0x0, symName: __RNvMNtNtNtCsdARyWrlPtHl_2cc8parallel9job_token19inherited_jobserverNtB2_9JobServer17release_token_raw, symObjAddr: 0x280C, symBinAddr: 0x10004F248, symSize: 0xF0 }
  - { offset: 0xA320F, size: 0x8, addend: 0x0, symName: __RNvMNtNtNtCsdARyWrlPtHl_2cc8parallel9job_token19inherited_jobserverNtB2_9JobServer12enter_active, symObjAddr: 0x28FC, symBinAddr: 0x10004F338, symSize: 0x58 }
  - { offset: 0xA3231, size: 0x8, addend: 0x0, symName: __RNvMs_NtNtNtCsdARyWrlPtHl_2cc8parallel9job_token19inherited_jobserverNtB4_12HelperThread3new, symObjAddr: 0x2954, symBinAddr: 0x10004F390, symSize: 0x1FC }
  - { offset: 0xA3295, size: 0x8, addend: 0x0, symName: __RNvMs0_NtNtNtCsdARyWrlPtHl_2cc8parallel9job_token19inherited_jobserverNtB5_15ActiveJobServer7acquire, symObjAddr: 0x2B94, symBinAddr: 0x10004F5D0, symSize: 0x2C }
  - { offset: 0xA32E0, size: 0x8, addend: 0x0, symName: __RNvMNtNtNtCsdARyWrlPtHl_2cc8parallel9job_token19inprocess_jobserverNtB2_9JobServer3new, symObjAddr: 0x34E4, symBinAddr: 0x10004FF20, symSize: 0x88 }
  - { offset: 0xA3311, size: 0x8, addend: 0x0, symName: __RNvMNtNtNtCsdARyWrlPtHl_2cc8parallel9job_token19inprocess_jobserverNtB2_9JobServer7acquire, symObjAddr: 0x36BC, symBinAddr: 0x1000500F8, symSize: 0x2C }
  - { offset: 0xA3333, size: 0x8, addend: 0x0, symName: __RNvMNtNtNtCsdARyWrlPtHl_2cc8parallel9job_token19inprocess_jobserverNtB2_9JobServer17release_token_raw, symObjAddr: 0x3960, symBinAddr: 0x10005039C, symSize: 0x44 }
  - { offset: 0xA3374, size: 0x8, addend: 0x0, symName: __RNvMNtNtCsdARyWrlPtHl_2cc6target6parserNtB2_21TargetInfoParserInner32from_cargo_environment_variables, symObjAddr: 0x39A4, symBinAddr: 0x1000503E0, symSize: 0x804 }
  - { offset: 0xA35C6, size: 0x8, addend: 0x0, symName: __RNvMs_NtNtCsdARyWrlPtHl_2cc6target6parserNtB4_16TargetInfoParser38parse_from_cargo_environment_variables, symObjAddr: 0x4630, symBinAddr: 0x10005106C, symSize: 0x148 }
  - { offset: 0xA3690, size: 0x8, addend: 0x0, symName: __RNvMNtNtCsdARyWrlPtHl_2cc7windows10find_toolsNtB2_10TargetArch3new, symObjAddr: 0x6250, symBinAddr: 0x100052C8C, symSize: 0x2D4 }
  - { offset: 0xA3718, size: 0x8, addend: 0x0, symName: __RNvMNtCsdARyWrlPtHl_2cc4toolNtB2_4Tool3new, symObjAddr: 0x720C, symBinAddr: 0x10005344C, symSize: 0xDC }
  - { offset: 0xA3765, size: 0x8, addend: 0x0, symName: __RNvMNtCsdARyWrlPtHl_2cc4toolNtB2_4Tool9with_args, symObjAddr: 0x72E8, symBinAddr: 0x100053528, symSize: 0x74 }
  - { offset: 0xA37C1, size: 0x8, addend: 0x0, symName: __RNvMNtCsdARyWrlPtHl_2cc4toolNtB2_4Tool11with_family, symObjAddr: 0x735C, symBinAddr: 0x10005359C, symSize: 0x188 }
  - { offset: 0xA37F2, size: 0x8, addend: 0x0, symName: __RNvMNtCsdARyWrlPtHl_2cc4toolNtB2_4Tool13with_features, symObjAddr: 0x74E4, symBinAddr: 0x100053724, symSize: 0x2D8 }
  - { offset: 0xA399F, size: 0x8, addend: 0x0, symName: __RNvMNtCsdARyWrlPtHl_2cc4toolNtB2_4Tool10remove_arg, symObjAddr: 0x9B00, symBinAddr: 0x100055D40, symSize: 0x3C }
  - { offset: 0xA39D2, size: 0x8, addend: 0x0, symName: __RNvMNtCsdARyWrlPtHl_2cc4toolNtB2_4Tool11push_cc_arg, symObjAddr: 0x9B3C, symBinAddr: 0x100055D7C, symSize: 0x11C }
  - { offset: 0xA3A12, size: 0x8, addend: 0x0, symName: __RNvMNtCsdARyWrlPtHl_2cc4toolNtB2_4Tool20is_duplicate_opt_arg, symObjAddr: 0x9C58, symBinAddr: 0x100055E98, symSize: 0x218 }
  - { offset: 0xA3A8F, size: 0x8, addend: 0x0, symName: __RNvMNtCsdARyWrlPtHl_2cc4toolNtB2_4Tool25push_opt_unless_duplicate, symObjAddr: 0x9EFC, symBinAddr: 0x10005613C, symSize: 0x130 }
  - { offset: 0xA3AC2, size: 0x8, addend: 0x0, symName: __RNvMNtCsdARyWrlPtHl_2cc4toolNtB2_4Tool10to_command, symObjAddr: 0xA02C, symBinAddr: 0x10005626C, symSize: 0x2C8 }
  - { offset: 0xA3B7E, size: 0x8, addend: 0x0, symName: __RNvMNtCsdARyWrlPtHl_2cc4toolNtB2_4Tool4path, symObjAddr: 0xA34C, symBinAddr: 0x10005658C, symSize: 0x34 }
  - { offset: 0xA3BC8, size: 0x8, addend: 0x0, symName: __RNvMNtCsdARyWrlPtHl_2cc4toolNtB2_4Tool4args, symObjAddr: 0xA380, symBinAddr: 0x1000565C0, symSize: 0x34 }
  - { offset: 0xA3C12, size: 0x8, addend: 0x0, symName: __RNvMNtCsdARyWrlPtHl_2cc4toolNtB2_4Tool3env, symObjAddr: 0xA3B4, symBinAddr: 0x1000565F4, symSize: 0x34 }
  - { offset: 0xA3C35, size: 0x8, addend: 0x0, symName: __RNvMNtCsdARyWrlPtHl_2cc4toolNtB2_4Tool11is_like_gnu, symObjAddr: 0xA7F0, symBinAddr: 0x100056628, symSize: 0x3C }
  - { offset: 0xA3C58, size: 0x8, addend: 0x0, symName: __RNvMNtCsdARyWrlPtHl_2cc4toolNtB2_4Tool13is_like_clang, symObjAddr: 0xA82C, symBinAddr: 0x100056664, symSize: 0x64 }
  - { offset: 0xA3C7B, size: 0x8, addend: 0x0, symName: __RNvMNtCsdARyWrlPtHl_2cc4toolNtB2_4Tool20is_xctoolchain_clang, symObjAddr: 0xA890, symBinAddr: 0x1000566C8, symSize: 0xAC }
  - { offset: 0xA3CB4, size: 0x8, addend: 0x0, symName: __RNvMNtCsdARyWrlPtHl_2cc4toolNtB2_4Tool12is_like_msvc, symObjAddr: 0xA93C, symBinAddr: 0x100056774, symSize: 0x64 }
  - { offset: 0xA3CD7, size: 0x8, addend: 0x0, symName: __RNvMNtCsdARyWrlPtHl_2cc4toolNtB2_4Tool23supports_path_delimiter, symObjAddr: 0xAA18, symBinAddr: 0x1000567D8, symSize: 0xBC }
  - { offset: 0xA3D07, size: 0x8, addend: 0x0, symName: __RNvMs_NtCsdARyWrlPtHl_2cc4toolNtB4_10ToolFamily15add_debug_flags, symObjAddr: 0xAAD4, symBinAddr: 0x100056894, symSize: 0xE4 }
  - { offset: 0xA3D48, size: 0x8, addend: 0x0, symName: __RNvMs_NtCsdARyWrlPtHl_2cc4toolNtB4_10ToolFamily23add_force_frame_pointer, symObjAddr: 0xAC7C, symBinAddr: 0x100056A3C, symSize: 0x9C }
  - { offset: 0xA3D7A, size: 0x8, addend: 0x0, symName: __RNvMs_NtCsdARyWrlPtHl_2cc4toolNtB4_10ToolFamily14warnings_flags, symObjAddr: 0xAD18, symBinAddr: 0x100056AD8, symSize: 0x88 }
  - { offset: 0xA3D9D, size: 0x8, addend: 0x0, symName: __RNvMs_NtCsdARyWrlPtHl_2cc4toolNtB4_10ToolFamily20extra_warnings_flags, symObjAddr: 0xADA0, symBinAddr: 0x100056B60, symSize: 0x78 }
  - { offset: 0xA3DC0, size: 0x8, addend: 0x0, symName: __RNvMs_NtCsdARyWrlPtHl_2cc4toolNtB4_10ToolFamily23warnings_to_errors_flag, symObjAddr: 0xAE18, symBinAddr: 0x100056BD8, symSize: 0x88 }
  - { offset: 0xA3DE3, size: 0x8, addend: 0x0, symName: __RNvMs_NtCsdARyWrlPtHl_2cc4toolNtB4_10ToolFamily14verbose_stderr, symObjAddr: 0xAEA0, symBinAddr: 0x100056C60, symSize: 0x64 }
  - { offset: 0xA4159, size: 0x8, addend: 0x0, symName: __RINvMs4_NtNtCsfvfooZQ3Axs_4core4sync6atomicINtB6_9AtomicPtruE12fetch_updateNCNvMs1_NtNtNtNtCscOYdFFY2T5N_3std3sys4sync6rwlock5queueNtB1j_6RwLock11read_unlock0ECsdARyWrlPtHl_2cc, symObjAddr: 0x0, symBinAddr: 0x100057148, symSize: 0x160 }
  - { offset: 0xA4EB7, size: 0x8, addend: 0x0, symName: __RINvNtNtCsfvfooZQ3Axs_4core4sync6atomic11atomic_loadOINtNtNtNtCscOYdFFY2T5N_3std4sync4mpmc4list5BlockINtNtB6_6result6ResultNtCs4Wq06SSluyi_9jobserver8AcquiredNtNtNtBY_2io5error5ErrorEEECsdARyWrlPtHl_2cc, symObjAddr: 0x478, symBinAddr: 0x1000575C0, symSize: 0x14C }
  - { offset: 0xA4F29, size: 0x8, addend: 0x0, symName: __RINvNtNtCsfvfooZQ3Axs_4core4sync6atomic11atomic_loadmECsdARyWrlPtHl_2cc, symObjAddr: 0x5C4, symBinAddr: 0x10005770C, symSize: 0x14C }
  - { offset: 0xA4F9B, size: 0x8, addend: 0x0, symName: __RINvNtNtCsfvfooZQ3Axs_4core4sync6atomic12atomic_storeOINtNtNtNtCscOYdFFY2T5N_3std4sync4mpmc4list5BlockINtNtB6_6result6ResultNtCs4Wq06SSluyi_9jobserver8AcquiredNtNtNtBZ_2io5error5ErrorEEECsdARyWrlPtHl_2cc, symObjAddr: 0x710, symBinAddr: 0x100057858, symSize: 0x150 }
  - { offset: 0xA5018, size: 0x8, addend: 0x0, symName: __RINvNtNtCsfvfooZQ3Axs_4core4sync6atomic12atomic_storeOuECsdARyWrlPtHl_2cc, symObjAddr: 0x860, symBinAddr: 0x1000579A8, symSize: 0x150 }
  - { offset: 0xA5095, size: 0x8, addend: 0x0, symName: __RINvNtNtCsfvfooZQ3Axs_4core4sync6atomic12atomic_storeyECsdARyWrlPtHl_2cc, symObjAddr: 0x9B0, symBinAddr: 0x100057AF8, symSize: 0x150 }
  - { offset: 0xA5112, size: 0x8, addend: 0x0, symName: __RINvNtNtCsfvfooZQ3Axs_4core4sync6atomic23atomic_compare_exchangeOINtNtNtNtCscOYdFFY2T5N_3std4sync4mpmc4list5BlockINtNtB6_6result6ResultNtCs4Wq06SSluyi_9jobserver8AcquiredNtNtNtB1a_2io5error5ErrorEEECsdARyWrlPtHl_2cc, symObjAddr: 0xB00, symBinAddr: 0x100057C48, symSize: 0x4E8 }
  - { offset: 0xA51DA, size: 0x8, addend: 0x0, symName: __RINvNtNtCsfvfooZQ3Axs_4core4sync6atomic23atomic_compare_exchangeOuECsdARyWrlPtHl_2cc, symObjAddr: 0xFE8, symBinAddr: 0x100058130, symSize: 0x4E8 }
  - { offset: 0xA52A2, size: 0x8, addend: 0x0, symName: __RINvNtNtCsfvfooZQ3Axs_4core4sync6atomic28atomic_compare_exchange_weakOuECsdARyWrlPtHl_2cc, symObjAddr: 0x14D0, symBinAddr: 0x100058618, symSize: 0x4E8 }
  - { offset: 0xA536A, size: 0x8, addend: 0x0, symName: __RINvNtNtCsfvfooZQ3Axs_4core4sync6atomic28atomic_compare_exchange_weakjECsdARyWrlPtHl_2cc, symObjAddr: 0x19B8, symBinAddr: 0x100058B00, symSize: 0x4E8 }
  - { offset: 0xA5432, size: 0x8, addend: 0x0, symName: __RINvNtNtCsfvfooZQ3Axs_4core4sync6atomic28atomic_compare_exchange_weakmECsdARyWrlPtHl_2cc, symObjAddr: 0x1EA0, symBinAddr: 0x100058FE8, symSize: 0x4E8 }
  - { offset: 0xA640A, size: 0x8, addend: 0x0, symName: __RNvXs_NvNtNtCsfvfooZQ3Axs_4core3fmt5Write9write_fmtQINtNvNtNtCscOYdFFY2T5N_3std2io5Write9write_fmt7AdapterINtNtNtBV_8buffered9bufwriter9BufWriterNtNtBV_5stdio6StdoutEENtB4_12SpecWriteFmt14spec_write_fmtCsdARyWrlPtHl_2cc, symObjAddr: 0x4B68, symBinAddr: 0x10005BC98, symSize: 0x164 }
  - { offset: 0xA64B7, size: 0x8, addend: 0x0, symName: __RNvXs_NvNtNtCsfvfooZQ3Axs_4core3fmt5Write9write_fmtQINtNvNtNtCscOYdFFY2T5N_3std2io5Write9write_fmt7AdapterNtNtBX_2fs4FileENtB4_12SpecWriteFmt14spec_write_fmtCsdARyWrlPtHl_2cc, symObjAddr: 0x4CCC, symBinAddr: 0x10005BDFC, symSize: 0x164 }
  - { offset: 0xA6566, size: 0x8, addend: 0x0, symName: __RNvYINtNvNtNtCscOYdFFY2T5N_3std2io5Write9write_fmt7AdapterINtNtNtB9_8buffered9bufwriter9BufWriterNtNtB9_5stdio6StdoutEENtNtCsfvfooZQ3Axs_4core3fmt5Write10write_charCsdARyWrlPtHl_2cc, symObjAddr: 0x4E30, symBinAddr: 0x10005BF60, symSize: 0x70 }
  - { offset: 0xA65CE, size: 0x8, addend: 0x0, symName: __RNvYINtNvNtNtCscOYdFFY2T5N_3std2io5Write9write_fmt7AdapterINtNtNtB9_8buffered9bufwriter9BufWriterNtNtB9_5stdio6StdoutEENtNtCsfvfooZQ3Axs_4core3fmt5Write9write_fmtCsdARyWrlPtHl_2cc, symObjAddr: 0x4EA0, symBinAddr: 0x10005BFD0, symSize: 0x24 }
  - { offset: 0xA6612, size: 0x8, addend: 0x0, symName: __RNvYINtNvNtNtCscOYdFFY2T5N_3std2io5Write9write_fmt7AdapterNtNtBb_2fs4FileENtNtCsfvfooZQ3Axs_4core3fmt5Write10write_charCsdARyWrlPtHl_2cc, symObjAddr: 0x4EC4, symBinAddr: 0x10005BFF4, symSize: 0x70 }
  - { offset: 0xA667A, size: 0x8, addend: 0x0, symName: __RNvYINtNvNtNtCscOYdFFY2T5N_3std2io5Write9write_fmt7AdapterNtNtBb_2fs4FileENtNtCsfvfooZQ3Axs_4core3fmt5Write9write_fmtCsdARyWrlPtHl_2cc, symObjAddr: 0x4F34, symBinAddr: 0x10005C064, symSize: 0x24 }
  - { offset: 0xA72B0, size: 0x8, addend: 0x0, symName: __RINvNtNtCsfvfooZQ3Axs_4core5slice5index5rangeINtNtNtB6_3ops5range9RangeFromjEECsdARyWrlPtHl_2cc, symObjAddr: 0x2388, symBinAddr: 0x1000594D0, symSize: 0x27C }
  - { offset: 0xA74BB, size: 0x8, addend: 0x0, symName: __RINvNtNtCsfvfooZQ3Axs_4core5slice5index5rangeNtNtNtB6_3ops5range9RangeFullECsdARyWrlPtHl_2cc, symObjAddr: 0x2604, symBinAddr: 0x10005974C, symSize: 0x29C }
  - { offset: 0xA779F, size: 0x8, addend: 0x0, symName: __RNvNvXs0_NtNtCsfvfooZQ3Axs_4core5slice5indexjINtB7_10SliceIndexSpE13get_unchecked18precondition_checkCsdARyWrlPtHl_2cc, symObjAddr: 0x42EC, symBinAddr: 0x10005B434, symSize: 0x40 }
  - { offset: 0xA77DB, size: 0x8, addend: 0x0, symName: __RNvNvXs0_NtNtCsfvfooZQ3Axs_4core5slice5indexjINtB7_10SliceIndexSpE17get_unchecked_mut18precondition_checkCsdARyWrlPtHl_2cc, symObjAddr: 0x432C, symBinAddr: 0x10005B474, symSize: 0x40 }
  - { offset: 0xA78AD, size: 0x8, addend: 0x0, symName: __RNvNvXs1_NtNtCsfvfooZQ3Axs_4core5slice5indexNtNtNtBb_3ops11index_range10IndexRangeINtB7_10SliceIndexSpE17get_unchecked_mut18precondition_checkCsdARyWrlPtHl_2cc, symObjAddr: 0x436C, symBinAddr: 0x10005B4B4, symSize: 0x40 }
  - { offset: 0xA78EF, size: 0x8, addend: 0x0, symName: __RNvNvXs2_NtNtCsfvfooZQ3Axs_4core5slice5indexINtNtNtBb_3ops5range5RangejEINtB7_10SliceIndexSpE13get_unchecked18precondition_checkCsdARyWrlPtHl_2cc, symObjAddr: 0x43AC, symBinAddr: 0x10005B4F4, symSize: 0x60 }
  - { offset: 0xA7939, size: 0x8, addend: 0x0, symName: __RNvNvXs2_NtNtCsfvfooZQ3Axs_4core5slice5indexINtNtNtBb_3ops5range5RangejEINtB7_10SliceIndexSpE17get_unchecked_mut18precondition_checkCsdARyWrlPtHl_2cc, symObjAddr: 0x440C, symBinAddr: 0x10005B554, symSize: 0x60 }
  - { offset: 0xA7FBD, size: 0x8, addend: 0x0, symName: __RNCINvNvXs_NtNtNtCsfvfooZQ3Axs_4core4iter8adapters9enumerateINtB9_9EnumeratepENtNtNtBd_6traits8iterator8Iterator8try_fold9enumerateRNtNtNtNtCscOYdFFY2T5N_3std4sync4mpmc5waker5EntryuINtNtNtBf_3ops12control_flow11ControlFlowTjB25_EENCINvNvB1e_4find5checkB3y_NCNvMB28_NtB28_5Waker10unregister0E0E0CsdARyWrlPtHl_2cc, symObjAddr: 0x28A0, symBinAddr: 0x1000599E8, symSize: 0xB4 }
  - { offset: 0xA8054, size: 0x8, addend: 0x0, symName: __RNvXs_NtNtNtCsfvfooZQ3Axs_4core4iter8adapters9enumerateINtB4_9EnumerateINtNtNtBa_5slice4iter4IterINtNtCse1nGBsou5OW_5alloc4sync3ArcNtNtNtCscOYdFFY2T5N_3std3ffi6os_str5OsStrEEENtNtNtB8_6traits8iterator8Iterator4nextCsdARyWrlPtHl_2cc, symObjAddr: 0x47E8, symBinAddr: 0x10005B918, symSize: 0xE0 }
  - { offset: 0xA812E, size: 0x8, addend: 0x0, symName: __RNvXs_NtNtNtCsfvfooZQ3Axs_4core4iter8adapters9enumerateINtB4_9EnumerateINtNtNtBa_5slice4iter4IterNtNtCse1nGBsou5OW_5alloc6string6StringEENtNtNtB8_6traits8iterator8Iterator4nextCsdARyWrlPtHl_2cc, symObjAddr: 0x48C8, symBinAddr: 0x10005B9F8, symSize: 0xE0 }
  - { offset: 0xA8208, size: 0x8, addend: 0x0, symName: __RNvXs_NtNtNtCsfvfooZQ3Axs_4core4iter8adapters9enumerateINtB4_9EnumerateINtNtNtBa_5slice4iter4IterNtNtNtCscOYdFFY2T5N_3std3ffi6os_str8OsStringEENtNtNtB8_6traits8iterator8Iterator4nextCsdARyWrlPtHl_2cc, symObjAddr: 0x49A8, symBinAddr: 0x10005BAD8, symSize: 0xE0 }
  - { offset: 0xA82E2, size: 0x8, addend: 0x0, symName: __RNvXs_NtNtNtCsfvfooZQ3Axs_4core4iter8adapters9enumerateINtB4_9EnumerateINtNtNtBa_5slice4iter4IterTNtNtNtCscOYdFFY2T5N_3std3ffi6os_str8OsStringB1y_EEENtNtNtB8_6traits8iterator8Iterator4nextCsdARyWrlPtHl_2cc, symObjAddr: 0x4A88, symBinAddr: 0x10005BBB8, symSize: 0xE0 }
  - { offset: 0xA8476, size: 0x8, addend: 0x0, symName: __RNvXNtNtNtCsfvfooZQ3Axs_4core4iter6traits7collectINtNtNtB6_8adapters9enumerate9EnumerateINtNtNtB8_5slice4iter4IterINtNtCse1nGBsou5OW_5alloc4sync3ArcNtNtNtCscOYdFFY2T5N_3std3ffi6os_str5OsStrEEENtB2_12IntoIterator9into_iterCsdARyWrlPtHl_2cc, symObjAddr: 0x446C, symBinAddr: 0x10005B5B4, symSize: 0x18 }
  - { offset: 0xA84E5, size: 0x8, addend: 0x0, symName: __RNvXsB_NtNtCsfvfooZQ3Axs_4core4iter5rangemNtB5_4Step17forward_uncheckedCsdARyWrlPtHl_2cc, symObjAddr: 0x4640, symBinAddr: 0x10005B770, symSize: 0x54 }
  - { offset: 0xA854A, size: 0x8, addend: 0x0, symName: __RNvXsF_NtNtCsfvfooZQ3Axs_4core4iter5rangejNtB5_4Step13steps_betweenCsdARyWrlPtHl_2cc, symObjAddr: 0x4694, symBinAddr: 0x10005B7C4, symSize: 0xA4 }
  - { offset: 0xA85A5, size: 0x8, addend: 0x0, symName: __RNvXsF_NtNtCsfvfooZQ3Axs_4core4iter5rangejNtB5_4Step17forward_uncheckedCsdARyWrlPtHl_2cc, symObjAddr: 0x4738, symBinAddr: 0x10005B868, symSize: 0x48 }
  - { offset: 0xA8604, size: 0x8, addend: 0x0, symName: __RNvXsF_NtNtCsfvfooZQ3Axs_4core4iter5rangejNtB5_4Step18backward_uncheckedCsdARyWrlPtHl_2cc, symObjAddr: 0x4780, symBinAddr: 0x10005B8B0, symSize: 0x48 }
  - { offset: 0xA89B5, size: 0x8, addend: 0x0, symName: __RNvXNvNtNtCscOYdFFY2T5N_3std2io5Write9write_fmtINtB2_7AdapterINtNtNtB6_8buffered9bufwriter9BufWriterNtNtB6_5stdio6StdoutEENtNtCsfvfooZQ3Axs_4core3fmt5Write9write_strCsdARyWrlPtHl_2cc, symObjAddr: 0x449C, symBinAddr: 0x10005B5CC, symSize: 0xB8 }
  - { offset: 0xA8A11, size: 0x8, addend: 0x0, symName: __RNvXNvNtNtCscOYdFFY2T5N_3std2io5Write9write_fmtINtB2_7AdapterNtNtB8_2fs4FileENtNtCsfvfooZQ3Axs_4core3fmt5Write9write_strCsdARyWrlPtHl_2cc, symObjAddr: 0x4554, symBinAddr: 0x10005B684, symSize: 0xB8 }
  - { offset: 0xA8E75, size: 0x8, addend: 0x0, symName: __RINvNtNtCscOYdFFY2T5N_3std4sync4mpsc7channelINtNtCsfvfooZQ3Axs_4core6result6ResultNtCs4Wq06SSluyi_9jobserver8AcquiredNtNtNtB6_2io5error5ErrorEECsdARyWrlPtHl_2cc, symObjAddr: 0x420, symBinAddr: 0x100057568, symSize: 0x58 }
  - { offset: 0xA91BA, size: 0x8, addend: 0x0, symName: __RNCNvMs_NtNtNtCscOYdFFY2T5N_3std4sync4mpmc5arrayINtB6_7ChannelINtNtCsfvfooZQ3Axs_4core6result6ResultNtCs4Wq06SSluyi_9jobserver8AcquiredNtNtNtBc_2io5error5ErrorEE4send0CsdARyWrlPtHl_2cc, symObjAddr: 0x2A3C, symBinAddr: 0x100059B84, symSize: 0x1B4 }
  - { offset: 0xA9C04, size: 0x8, addend: 0x0, symName: __RNvXs1_NtNtNtCscOYdFFY2T5N_3std4sync6poison7condvarNtB5_7CondvarNtNtCsfvfooZQ3Axs_4core7default7Default7defaultCsdARyWrlPtHl_2cc, symObjAddr: 0x460C, symBinAddr: 0x10005B73C, symSize: 0x34 }
  - { offset: 0xA9E88, size: 0x8, addend: 0x0, symName: __RNCNvMs1_NtNtNtNtCscOYdFFY2T5N_3std3sys4sync6rwlock5queueNtB7_6RwLock11read_unlock0CsdARyWrlPtHl_2cc, symObjAddr: 0x2954, symBinAddr: 0x100059A9C, symSize: 0xE8 }
  - { offset: 0xA9F58, size: 0x8, addend: 0x0, symName: __RNvNtNtNtNtCscOYdFFY2T5N_3std3sys4sync6rwlock5queue9read_lockCsdARyWrlPtHl_2cc, symObjAddr: 0x41F0, symBinAddr: 0x10005B338, symSize: 0xFC }
  - { offset: 0xAA35D, size: 0x8, addend: 0x0, symName: __RNvXs_NtNtCse1nGBsou5OW_5alloc3vec15set_len_on_dropNtB4_12SetLenOnDropNtNtNtCsfvfooZQ3Axs_4core3ops4drop4Drop4dropCsdARyWrlPtHl_2cc, symObjAddr: 0x47C8, symBinAddr: 0x10005B8F8, symSize: 0x20 }
  - { offset: 0xAAA43, size: 0x8, addend: 0x0, symName: __RNvNtNtCsdARyWrlPtHl_2cc8parallel6stderr9get_flags, symObjAddr: 0x4F58, symBinAddr: 0x10005C088, symSize: 0x1A4 }
  - { offset: 0xAAAC8, size: 0x8, addend: 0x0, symName: __RNvNtNtCsdARyWrlPtHl_2cc8parallel6stderr9set_flags, symObjAddr: 0x50FC, symBinAddr: 0x10005C22C, symSize: 0x19C }
  - { offset: 0xAAB3E, size: 0x8, addend: 0x0, symName: __RINvNtNtCsdARyWrlPtHl_2cc8parallel6stderr16set_non_blockingNtNtCscOYdFFY2T5N_3std7process11ChildStderrEB6_, symObjAddr: 0x5298, symBinAddr: 0x10005C3C8, symSize: 0xC8 }
  - { offset: 0xAABCA, size: 0x8, addend: 0x0, symName: __RNvNtNtCsdARyWrlPtHl_2cc8parallel6stderr15bytes_available, symObjAddr: 0x5360, symBinAddr: 0x10005C490, symSize: 0x220 }
  - { offset: 0xAAD2D, size: 0x8, addend: 0x0, symName: __RINvMs4_NtNtCsfvfooZQ3Axs_4core4sync6atomicINtB6_9AtomicPtruE12fetch_updateNCNvMs1_NtNtNtNtCscOYdFFY2T5N_3std3sys4sync6rwlock5queueNtB1j_6RwLock11read_unlock0ECsdARyWrlPtHl_2cc, symObjAddr: 0x0, symBinAddr: 0x100057148, symSize: 0x160 }
  - { offset: 0xAAEDD, size: 0x8, addend: 0x0, symName: __RINvMs4_NtNtCsfvfooZQ3Axs_4core4sync6atomicINtB6_9AtomicPtruE12fetch_updateNvNtNtNtNtCscOYdFFY2T5N_3std3sys4sync6rwlock5queue9read_lockECsdARyWrlPtHl_2cc, symObjAddr: 0x160, symBinAddr: 0x1000572A8, symSize: 0x160 }
  - { offset: 0xAB070, size: 0x8, addend: 0x0, symName: __RINvMsK_NtNtCsfvfooZQ3Axs_4core4sync6atomicNtB6_9AtomicU3212fetch_updateNCNCNvMNtNtNtCsdARyWrlPtHl_2cc8parallel9job_token19inprocess_jobserverNtB1f_9JobServer7acquire00EB1l_, symObjAddr: 0x2C0, symBinAddr: 0x100057408, symSize: 0x160 }
  - { offset: 0xAB74C, size: 0x8, addend: 0x0, symName: __RNvMs3_NtNtCscOYdFFY2T5N_3std4sync4mpscINtB5_6SenderINtNtCsfvfooZQ3Axs_4core6result6ResultNtCs4Wq06SSluyi_9jobserver8AcquiredNtNtNtB9_2io5error5ErrorEE4sendCsdARyWrlPtHl_2cc, symObjAddr: 0x2BF0, symBinAddr: 0x100059D38, symSize: 0x24 }
  - { offset: 0xAB788, size: 0x8, addend: 0x0, symName: __RNvMs3_NtNtCsfvfooZQ3Axs_4core4sync6atomicNtB5_10AtomicBool3newCsdARyWrlPtHl_2cc, symObjAddr: 0x2C14, symBinAddr: 0x100059D5C, symSize: 0x18 }
  - { offset: 0xAB7B8, size: 0x8, addend: 0x0, symName: __RNvMs3_NtNtCsfvfooZQ3Axs_4core4sync6atomicNtB5_10AtomicBool4loadCsdARyWrlPtHl_2cc, symObjAddr: 0x2C2C, symBinAddr: 0x100059D74, symSize: 0x38 }
  - { offset: 0xAB7EA, size: 0x8, addend: 0x0, symName: __RNvMs3_NtNtCsfvfooZQ3Axs_4core4sync6atomicNtB5_10AtomicBool5storeCsdARyWrlPtHl_2cc, symObjAddr: 0x2C64, symBinAddr: 0x100059DAC, symSize: 0x34 }
  - { offset: 0xABA0B, size: 0x8, addend: 0x0, symName: __RNvMs8_NtCscOYdFFY2T5N_3std2ioNtB5_7IoSlice14advance_slicesCsdARyWrlPtHl_2cc, symObjAddr: 0x2C98, symBinAddr: 0x100059DE0, symSize: 0x2F4 }
  - { offset: 0xABDCF, size: 0x8, addend: 0x0, symName: __RNvMs9_NtNtCscOYdFFY2T5N_3std4sync4mpscINtB5_8ReceiverINtNtCsfvfooZQ3Axs_4core6result6ResultNtCs4Wq06SSluyi_9jobserver8AcquiredNtNtNtB9_2io5error5ErrorEE8try_recvCsdARyWrlPtHl_2cc, symObjAddr: 0x2F8C, symBinAddr: 0x10005A0D4, symSize: 0x24 }
  - { offset: 0xABDFB, size: 0x8, addend: 0x0, symName: __RNvMsK_NtNtCsfvfooZQ3Axs_4core4sync6atomicNtB5_9AtomicU323newCsdARyWrlPtHl_2cc, symObjAddr: 0x2FB0, symBinAddr: 0x10005A0F8, symSize: 0x18 }
  - { offset: 0xABE54, size: 0x8, addend: 0x0, symName: __RNvMsK_NtNtCsfvfooZQ3Axs_4core4sync6atomicNtB5_9AtomicU329fetch_addCsdARyWrlPtHl_2cc, symObjAddr: 0x2FC8, symBinAddr: 0x10005A110, symSize: 0xDC }
  - { offset: 0xABFB4, size: 0x8, addend: 0x0, symName: __RNvMs_NtNtNtCscOYdFFY2T5N_3std4sync4mpmc5arrayINtB4_7ChannelINtNtCsfvfooZQ3Axs_4core6result6ResultNtCs4Wq06SSluyi_9jobserver8AcquiredNtNtNtBa_2io5error5ErrorEE10start_recvCsdARyWrlPtHl_2cc, symObjAddr: 0x30A4, symBinAddr: 0x10005A1EC, symSize: 0x3A0 }
  - { offset: 0xAC436, size: 0x8, addend: 0x0, symName: __RNvMs_NtNtNtCscOYdFFY2T5N_3std4sync4mpmc5arrayINtB4_7ChannelINtNtCsfvfooZQ3Axs_4core6result6ResultNtCs4Wq06SSluyi_9jobserver8AcquiredNtNtNtBa_2io5error5ErrorEE10start_sendCsdARyWrlPtHl_2cc, symObjAddr: 0x3444, symBinAddr: 0x10005A58C, symSize: 0x3B0 }
  - { offset: 0xAC8EE, size: 0x8, addend: 0x0, symName: __RNvMs_NtNtNtCscOYdFFY2T5N_3std4sync4mpmc5arrayINtB4_7ChannelINtNtCsfvfooZQ3Axs_4core6result6ResultNtCs4Wq06SSluyi_9jobserver8AcquiredNtNtNtBa_2io5error5ErrorEE18disconnect_sendersCsdARyWrlPtHl_2cc, symObjAddr: 0x37F4, symBinAddr: 0x10005A93C, symSize: 0xA4 }
  - { offset: 0xACA7D, size: 0x8, addend: 0x0, symName: __RNvMs_NtNtNtCscOYdFFY2T5N_3std4sync4mpmc5arrayINtB4_7ChannelINtNtCsfvfooZQ3Axs_4core6result6ResultNtCs4Wq06SSluyi_9jobserver8AcquiredNtNtNtBa_2io5error5ErrorEE20discard_all_messagesCsdARyWrlPtHl_2cc, symObjAddr: 0x3898, symBinAddr: 0x10005A9E0, symSize: 0x1D0 }
  - { offset: 0xACD4D, size: 0x8, addend: 0x0, symName: __RNvMs_NtNtNtCscOYdFFY2T5N_3std4sync4mpmc5arrayINtB4_7ChannelINtNtCsfvfooZQ3Axs_4core6result6ResultNtCs4Wq06SSluyi_9jobserver8AcquiredNtNtNtBa_2io5error5ErrorEE20disconnect_receiversCsdARyWrlPtHl_2cc, symObjAddr: 0x3A68, symBinAddr: 0x10005ABB0, symSize: 0xB4 }
  - { offset: 0xACED8, size: 0x8, addend: 0x0, symName: __RNvMs_NtNtNtCscOYdFFY2T5N_3std4sync4mpmc5arrayINtB4_7ChannelINtNtCsfvfooZQ3Axs_4core6result6ResultNtCs4Wq06SSluyi_9jobserver8AcquiredNtNtNtBa_2io5error5ErrorEE4readCsdARyWrlPtHl_2cc, symObjAddr: 0x3B1C, symBinAddr: 0x10005AC64, symSize: 0x12C }
  - { offset: 0xAD0E6, size: 0x8, addend: 0x0, symName: __RNvMs_NtNtNtCscOYdFFY2T5N_3std4sync4mpmc5arrayINtB4_7ChannelINtNtCsfvfooZQ3Axs_4core6result6ResultNtCs4Wq06SSluyi_9jobserver8AcquiredNtNtNtBa_2io5error5ErrorEE4sendCsdARyWrlPtHl_2cc, symObjAddr: 0x3C48, symBinAddr: 0x10005AD90, symSize: 0x2F0 }
  - { offset: 0xAD382, size: 0x8, addend: 0x0, symName: __RNvMs_NtNtNtCscOYdFFY2T5N_3std4sync4mpmc5arrayINtB4_7ChannelINtNtCsfvfooZQ3Axs_4core6result6ResultNtCs4Wq06SSluyi_9jobserver8AcquiredNtNtNtBa_2io5error5ErrorEE5writeCsdARyWrlPtHl_2cc, symObjAddr: 0x3F38, symBinAddr: 0x10005B080, symSize: 0xDC }
  - { offset: 0xAD4F3, size: 0x8, addend: 0x0, symName: __RNvMs_NtNtNtCscOYdFFY2T5N_3std4sync4mpmc5arrayINtB4_7ChannelINtNtCsfvfooZQ3Axs_4core6result6ResultNtCs4Wq06SSluyi_9jobserver8AcquiredNtNtNtBa_2io5error5ErrorEE7is_fullCsdARyWrlPtHl_2cc, symObjAddr: 0x4014, symBinAddr: 0x10005B15C, symSize: 0xB4 }
  - { offset: 0xAD671, size: 0x8, addend: 0x0, symName: __RNvMs_NtNtNtCscOYdFFY2T5N_3std4sync4mpmc5arrayINtB4_7ChannelINtNtCsfvfooZQ3Axs_4core6result6ResultNtCs4Wq06SSluyi_9jobserver8AcquiredNtNtNtBa_2io5error5ErrorEE8try_recvCsdARyWrlPtHl_2cc, symObjAddr: 0x40C8, symBinAddr: 0x10005B210, symSize: 0xC4 }
  - { offset: 0xAD720, size: 0x8, addend: 0x0, symName: __RNvMsq_NtNtCsfvfooZQ3Axs_4core4sync6atomicNtB5_8AtomicU84loadCsdARyWrlPtHl_2cc, symObjAddr: 0x418C, symBinAddr: 0x10005B2D4, symSize: 0x30 }
  - { offset: 0xAD752, size: 0x8, addend: 0x0, symName: __RNvMsq_NtNtCsfvfooZQ3Axs_4core4sync6atomicNtB5_8AtomicU85storeCsdARyWrlPtHl_2cc, symObjAddr: 0x41BC, symBinAddr: 0x10005B304, symSize: 0x34 }
  - { offset: 0xAD9FE, size: 0x8, addend: 0x0, symName: __RNvMNtNtCsdARyWrlPtHl_2cc6target5appleNtB4_10TargetInfo13get_apple_env, symObjAddr: 0x5580, symBinAddr: 0x10005C6B0, symSize: 0x16C }
  - { offset: 0xADA20, size: 0x8, addend: 0x0, symName: __RNvMNtNtCsdARyWrlPtHl_2cc6target5appleNtB4_10TargetInfo14apple_sdk_name, symObjAddr: 0x56EC, symBinAddr: 0x10005C81C, symSize: 0x3FC }
  - { offset: 0xADA60, size: 0x8, addend: 0x0, symName: __RNvMNtNtCsdARyWrlPtHl_2cc6target5appleNtB4_10TargetInfo18apple_version_flag, symObjAddr: 0x5AE8, symBinAddr: 0x10005CC18, symSize: 0x690 }
  - { offset: 0xADBDB, size: 0x8, addend: 0x0, symName: __RNvMNtNtCsdARyWrlPtHl_2cc6target4llvmNtB4_10TargetInfo11llvm_target, symObjAddr: 0x6178, symBinAddr: 0x10005D2A8, symSize: 0x123C }
  - { offset: 0xADF0E, size: 0x8, addend: 0x0, symName: __RNvMs0_NtNtCsdARyWrlPtHl_2cc6target6parserNtB7_10TargetInfo17from_rustc_target, symObjAddr: 0x73B4, symBinAddr: 0x10005E4E4, symSize: 0x13C0 }
  - { offset: 0xAE60A, size: 0x8, addend: 0x0, symName: __RNvNvMNtNtCsfvfooZQ3Axs_4core5alloc6layoutNtB4_6Layout25from_size_align_unchecked18precondition_checkCsdARyWrlPtHl_2cc, symObjAddr: 0x2F48, symBinAddr: 0x1000625B4, symSize: 0x50 }
  - { offset: 0xAE646, size: 0x8, addend: 0x0, symName: __RNvNvMNtNtCsfvfooZQ3Axs_4core5alloc6layoutNtB4_6Layout5array5innerCsdARyWrlPtHl_2cc, symObjAddr: 0x2F98, symBinAddr: 0x100062604, symSize: 0x108 }
  - { offset: 0xAE734, size: 0x8, addend: 0x0, symName: __RNvXsc_NtNtCsfvfooZQ3Axs_4core5alloc6layoutNtB5_11LayoutErrorNtNtB9_3fmt5Debug3fmtCsdARyWrlPtHl_2cc, symObjAddr: 0x4B54, symBinAddr: 0x1000641C0, symSize: 0x40 }
  - { offset: 0xAEAD2, size: 0x8, addend: 0x0, symName: __RNvXs1a_NtCsfvfooZQ3Axs_4core3fmtRNtNtNtCscOYdFFY2T5N_3std3ffi6os_str5OsStrNtB6_5Debug3fmtCsdARyWrlPtHl_2cc, symObjAddr: 0x33EC, symBinAddr: 0x100062A58, symSize: 0x3C }
  - { offset: 0xAEB18, size: 0x8, addend: 0x0, symName: __RNvXs1a_NtCsfvfooZQ3Axs_4core3fmtRNtNtNtCscOYdFFY2T5N_3std3ffi6os_str8OsStringNtB6_5Debug3fmtCsdARyWrlPtHl_2cc, symObjAddr: 0x3428, symBinAddr: 0x100062A94, symSize: 0x30 }
  - { offset: 0xAEB5E, size: 0x8, addend: 0x0, symName: __RNvXs1a_NtCsfvfooZQ3Axs_4core3fmtRbNtB6_5Debug3fmtCsdARyWrlPtHl_2cc, symObjAddr: 0x3458, symBinAddr: 0x100062AC4, symSize: 0x30 }
  - { offset: 0xAEBA4, size: 0x8, addend: 0x0, symName: __RNvXs1a_NtCsfvfooZQ3Axs_4core3fmtReNtB6_5Debug3fmtCsdARyWrlPtHl_2cc, symObjAddr: 0x3488, symBinAddr: 0x100062AF4, symSize: 0x3C }
  - { offset: 0xAEBF0, size: 0x8, addend: 0x0, symName: __RNvXs1c_NtCsfvfooZQ3Axs_4core3fmtRDNtB6_7DisplayEL_Bx_3fmtCsdARyWrlPtHl_2cc, symObjAddr: 0x34C4, symBinAddr: 0x100062B30, symSize: 0x3C }
  - { offset: 0xAEC36, size: 0x8, addend: 0x0, symName: __RNvXs1c_NtCsfvfooZQ3Axs_4core3fmtRINtNtCse1nGBsou5OW_5alloc4sync3ArceENtB6_7Display3fmtCsdARyWrlPtHl_2cc, symObjAddr: 0x3500, symBinAddr: 0x100062B6C, symSize: 0x30 }
  - { offset: 0xAEC7C, size: 0x8, addend: 0x0, symName: __RNvXs1c_NtCsfvfooZQ3Axs_4core3fmtRReNtB6_7Display3fmtCsdARyWrlPtHl_2cc, symObjAddr: 0x3530, symBinAddr: 0x100062B9C, symSize: 0x30 }
  - { offset: 0xAECC8, size: 0x8, addend: 0x0, symName: __RNvXsI_NtCsfvfooZQ3Axs_4core3fmtNtB5_5ErrorNtB5_5Debug3fmtCsdARyWrlPtHl_2cc, symObjAddr: 0x4118, symBinAddr: 0x100063784, symSize: 0x40 }
  - { offset: 0xAED08, size: 0x8, addend: 0x0, symName: __RNvXsf_NtCsfvfooZQ3Axs_4core3fmtbNtB5_5Debug3fmtCsdARyWrlPtHl_2cc, symObjAddr: 0x4CCC, symBinAddr: 0x100064338, symSize: 0x2C }
  - { offset: 0xAFDCA, size: 0x8, addend: 0x0, symName: __RNvNvMNtNtCsfvfooZQ3Axs_4core3ptr9const_ptrPp7sub_ptr18precondition_checkCsdARyWrlPtHl_2cc, symObjAddr: 0x2F08, symBinAddr: 0x100062574, symSize: 0x40 }
  - { offset: 0xAFFB1, size: 0x8, addend: 0x0, symName: __RNvXs7_NtNtCsfvfooZQ3Axs_4core3cmp5implsRNtNtNtCscOYdFFY2T5N_3std3ffi6os_str5OsStrINtB7_9PartialEqReE2neCsdARyWrlPtHl_2cc, symObjAddr: 0x371C, symBinAddr: 0x100062D88, symSize: 0x44 }
  - { offset: 0xB0000, size: 0x8, addend: 0x0, symName: __RNvXs7_NtNtCsfvfooZQ3Axs_4core3cmp5implsRNtNtNtCscOYdFFY2T5N_3std3ffi6os_str5OsStrNtB7_9PartialEq2eqCsdARyWrlPtHl_2cc, symObjAddr: 0x3760, symBinAddr: 0x100062DCC, symSize: 0x44 }
  - { offset: 0xB004F, size: 0x8, addend: 0x0, symName: __RNvXs7_NtNtCsfvfooZQ3Axs_4core3cmp5implsRNtNtNtCscOYdFFY2T5N_3std3ffi6os_str8OsStringINtB7_9PartialEqReE2eqCsdARyWrlPtHl_2cc, symObjAddr: 0x37A4, symBinAddr: 0x100062E10, symSize: 0x3C }
  - { offset: 0xB011D, size: 0x8, addend: 0x0, symName: __RNvYNtNtNtCscOYdFFY2T5N_3std3ffi6os_str5OsStrINtNtCsfvfooZQ3Axs_4core3cmp9PartialEqeE2neCsdARyWrlPtHl_2cc, symObjAddr: 0x5468, symBinAddr: 0x100064AD4, symSize: 0x38 }
  - { offset: 0xB016C, size: 0x8, addend: 0x0, symName: __RNvYNtNtNtCscOYdFFY2T5N_3std3ffi6os_str5OsStrNtNtCsfvfooZQ3Axs_4core3cmp9PartialEq2neCsdARyWrlPtHl_2cc, symObjAddr: 0x54A0, symBinAddr: 0x100064B0C, symSize: 0x38 }
  - { offset: 0xB01BB, size: 0x8, addend: 0x0, symName: __RNvYNtNtNtCscOYdFFY2T5N_3std3ffi6os_str8OsStringINtNtCsfvfooZQ3Axs_4core3cmp9PartialEqReE2neCsdARyWrlPtHl_2cc, symObjAddr: 0x54D8, symBinAddr: 0x100064B44, symSize: 0x30 }
  - { offset: 0xB21FD, size: 0x8, addend: 0x0, symName: __RINvNtNtNtCsfvfooZQ3Axs_4core4iter6traits8iterator12iter_compareINtNtNtB6_8adapters3rev3RevNtNtCscOYdFFY2T5N_3std4path10ComponentsEB10_NCINvNvNtB2_8Iterator5eq_by7compareNtB1t_9ComponentB2I_NCINvYB10_B2g_2eqB10_E0E0uECsdARyWrlPtHl_2cc, symObjAddr: 0x98C, symBinAddr: 0x1000600DC, symSize: 0xC4 }
  - { offset: 0xB2350, size: 0x8, addend: 0x0, symName: __RNCINvNvNtNtNtNtCsfvfooZQ3Axs_4core4iter6traits8iterator8Iterator12try_for_each4callNtNtCscOYdFFY2T5N_3std4path9ComponentINtNtNtBe_3ops12control_flow11ControlFlowIB1W_uNtNtBe_3cmp8OrderingEENCINvNvB8_12iter_compare7compareINtNtNtBc_8adapters3rev3RevNtB1m_10ComponentsEB1k_uNCINvNvB6_5eq_by7compareB1k_B1k_NCINvYB3y_B6_2eqB3y_E0E0E0E0CsdARyWrlPtHl_2cc, symObjAddr: 0x137C, symBinAddr: 0x100060ACC, symSize: 0x40 }
  - { offset: 0xB23C2, size: 0x8, addend: 0x0, symName: __RNCINvNvNtNtNtNtCsfvfooZQ3Axs_4core4iter6traits8iterator8Iterator4find5checkNtNtCscOYdFFY2T5N_3std4path7PathBufNCNCNvMs4_CsdARyWrlPtHl_2ccNtB1V_5Build11try_compiles_00E0B1V_, symObjAddr: 0x13BC, symBinAddr: 0x100060B0C, symSize: 0xAC }
  - { offset: 0xB241F, size: 0x8, addend: 0x0, symName: __RNCINvNvNtNtNtNtCsfvfooZQ3Axs_4core4iter6traits8iterator8Iterator4find5checkNtNtCscOYdFFY2T5N_3std4path7PathBufNCNCNvNtNtNtCsdARyWrlPtHl_2cc7windows10find_tools5impl_21find_msvc_environment0s_0E0B1X_, symObjAddr: 0x1468, symBinAddr: 0x100060BB8, symSize: 0xAC }
  - { offset: 0xB247C, size: 0x8, addend: 0x0, symName: __RNCINvNvNtNtNtNtCsfvfooZQ3Axs_4core4iter6traits8iterator8Iterator4find5checkRShQNtNtBe_3str15BytesIsNotEmptyE0CsdARyWrlPtHl_2cc, symObjAddr: 0x1514, symBinAddr: 0x100060C64, symSize: 0x84 }
  - { offset: 0xB24D8, size: 0x8, addend: 0x0, symName: __RNCINvNvNtNtNtNtCsfvfooZQ3Axs_4core4iter6traits8iterator8Iterator4find5checkReQNtNtBe_3str10IsNotEmptyE0CsdARyWrlPtHl_2cc, symObjAddr: 0x1598, symBinAddr: 0x100060CE8, symSize: 0x84 }
  - { offset: 0xB2534, size: 0x8, addend: 0x0, symName: __RNCINvNvNtNtNtNtCsfvfooZQ3Axs_4core4iter6traits8iterator8Iterator4find5checkTjRNtNtNtNtCscOYdFFY2T5N_3std4sync4mpmc5waker5EntryENCNvMB1h_NtB1h_5Waker10unregister0E0CsdARyWrlPtHl_2cc, symObjAddr: 0x161C, symBinAddr: 0x100060D6C, symSize: 0x84 }
  - { offset: 0xB259C, size: 0x8, addend: 0x0, symName: __RNCINvNvNtNtNtNtCsfvfooZQ3Axs_4core4iter6traits8iterator8Iterator5eq_by7compareNtNtCscOYdFFY2T5N_3std4path9ComponentB1f_NCINvYINtNtNtBc_8adapters3rev3RevNtB1h_10ComponentsEB6_2eqB20_E0E0CsdARyWrlPtHl_2cc, symObjAddr: 0x16A0, symBinAddr: 0x100060DF0, symSize: 0x88 }
  - { offset: 0xB2626, size: 0x8, addend: 0x0, symName: __RNCINvNvNtNtNtNtCsfvfooZQ3Axs_4core4iter6traits8iterator8Iterator8find_map5checkNtNtCscOYdFFY2T5N_3std4path7PathBufB1g_NCNCNvMs4_CsdARyWrlPtHl_2ccNtB23_5Build5which00E0B23_, symObjAddr: 0x1728, symBinAddr: 0x100060E78, symSize: 0x94 }
  - { offset: 0xB26AA, size: 0x8, addend: 0x0, symName: __RNCINvNvNtNtNtNtCsfvfooZQ3Axs_4core4iter6traits8iterator8Iterator8find_map5checkNtNtCscOYdFFY2T5N_3std4path7PathBufRReNCNCNvMs4_CsdARyWrlPtHl_2ccNtB22_5Build23find_working_gnu_prefix00E0B22_, symObjAddr: 0x17BC, symBinAddr: 0x100060F0C, symSize: 0x70 }
  - { offset: 0xB273A, size: 0x8, addend: 0x0, symName: __RNCINvNvNtNtNtNtCsfvfooZQ3Axs_4core4iter6traits8iterator8Iterator8for_each4callINtNtCse1nGBsou5OW_5alloc5boxed3BoxNtNtNtCscOYdFFY2T5N_3std3ffi6os_str5OsStrENCINvMsi_NtB1k_3vecINtB2D_3VecB1f_E14extend_trustedINtNtNtBc_8adapters3map3MapINtNtB3o_5chain5ChainINtNtB3o_6cloned6ClonedINtNtNtBe_5slice4iter4IterRB1O_EEIB3k_IB4t_NtNtB1k_6string6StringEINvMsl_B1Q_B1O_3newB59_EEENvYB4S_INtNtBe_7convert4IntoB1f_E4intoEE0E0CsdARyWrlPtHl_2cc, symObjAddr: 0x18D0, symBinAddr: 0x100060F7C, symSize: 0x30 }
  - { offset: 0xB2792, size: 0x8, addend: 0x0, symName: __RNCINvNvNtNtNtNtCsfvfooZQ3Axs_4core4iter6traits8iterator8Iterator8for_each4callNtNtNtCscOYdFFY2T5N_3std3ffi6os_str8OsStringNCINvMsi_NtCse1nGBsou5OW_5alloc3vecINtB26_3VecB1f_E14extend_trustedINtNtNtBe_5array4iter8IntoIterB1f_Kj6_EE0E0CsdARyWrlPtHl_2cc, symObjAddr: 0x1900, symBinAddr: 0x100060FAC, symSize: 0x3C }
  - { offset: 0xB27EB, size: 0x8, addend: 0x0, symName: __RNCINvNvNtNtNtNtCsfvfooZQ3Axs_4core4iter6traits8iterator8Iterator8for_each4callRNtNtCscOYdFFY2T5N_3std4path4PathNCINvMsi_NtCse1nGBsou5OW_5alloc3vecINtB1V_3VecB1f_E14extend_trustedINtNtNtBc_8adapters5chain5ChainINtNtB2W_3map3MapINtNtNtBe_5slice4iter4IterNtCsdARyWrlPtHl_2cc6ObjectENCNvMs4_B45_NtB45_5Build8assemble0EIB3n_IB3E_INtNtB1X_4sync3ArcB1g_EENvYB5d_NtNtNtBe_3ops5deref5Deref5derefEEE0E0B45_, symObjAddr: 0x193C, symBinAddr: 0x100060FE8, symSize: 0x30 }
  - { offset: 0xB2843, size: 0x8, addend: 0x0, symName: __RNCINvNvNtNtNtNtCsfvfooZQ3Axs_4core4iter6traits8iterator8Iterator8for_each4callhNCINvMsi_NtCse1nGBsou5OW_5alloc3vecINtB1p_3VechE14extend_trustedINtNtNtBc_8adapters3map3MapINtNtNtBe_5slice4iter4IterhENCNvNtB1r_3str13replace_ascii0EE0E0CsdARyWrlPtHl_2cc, symObjAddr: 0x196C, symBinAddr: 0x100061018, symSize: 0x28 }
  - { offset: 0xB28B5, size: 0x8, addend: 0x0, symName: __RNCINvYINtNtNtNtCsfvfooZQ3Axs_4core4iter8adapters3rev3RevNtNtCscOYdFFY2T5N_3std4path10ComponentsENtNtNtBc_6traits8iterator8Iterator2eqB5_E0CsdARyWrlPtHl_2cc, symObjAddr: 0x1994, symBinAddr: 0x100061040, symSize: 0x58 }
  - { offset: 0xB291E, size: 0x8, addend: 0x0, symName: __RNCNvYNtNtCscOYdFFY2T5N_3std4path10ComponentsNtNtNtNtCsfvfooZQ3Axs_4core4iter6traits8iterator8Iterator5count0CsdARyWrlPtHl_2cc, symObjAddr: 0x1A5C, symBinAddr: 0x100061108, symSize: 0x64 }
  - { offset: 0xB2977, size: 0x8, addend: 0x0, symName: __RNCINvNvNtNtNtCsfvfooZQ3Axs_4core4iter6traits8iterator12iter_compare7compareINtNtNtBa_8adapters3rev3RevNtNtCscOYdFFY2T5N_3std4path10ComponentsENtB1F_9ComponentuNCINvNvNtB6_8Iterator5eq_by7compareB2h_B2h_NCINvYB1c_B2F_2eqB1c_E0E0E0CsdARyWrlPtHl_2cc, symObjAddr: 0x1218, symBinAddr: 0x100060968, symSize: 0x164 }
  - { offset: 0xB2EB4, size: 0x8, addend: 0x0, symName: __RNvXs_NtNtCsfvfooZQ3Axs_4core5slice4iterRSINtNtCse1nGBsou5OW_5alloc4sync3ArcNtNtCscOYdFFY2T5N_3std4path4PathENtNtNtNtB8_4iter6traits7collect12IntoIterator9into_iterCsdARyWrlPtHl_2cc, symObjAddr: 0x490C, symBinAddr: 0x100063F78, symSize: 0x50 }
  - { offset: 0xB3157, size: 0x8, addend: 0x0, symName: __RNvMNtCsfvfooZQ3Axs_4core5sliceSINtNtCse1nGBsou5OW_5alloc4sync3ArcNtNtCscOYdFFY2T5N_3std4path4PathE4iterCsdARyWrlPtHl_2cc, symObjAddr: 0x1C54, symBinAddr: 0x100061300, symSize: 0x28 }
  - { offset: 0xB318E, size: 0x8, addend: 0x0, symName: __RNvMNtCsfvfooZQ3Axs_4core5sliceSINtNtCse1nGBsou5OW_5alloc4sync3ArcNtNtNtCscOYdFFY2T5N_3std3ffi6os_str5OsStrE4iterCsdARyWrlPtHl_2cc, symObjAddr: 0x1C7C, symBinAddr: 0x100061328, symSize: 0x28 }
  - { offset: 0xB31C5, size: 0x8, addend: 0x0, symName: __RNvMNtCsfvfooZQ3Axs_4core5sliceSNtNtNtCscOYdFFY2T5N_3std3ffi6os_str8OsString4iterCsdARyWrlPtHl_2cc, symObjAddr: 0x1CA4, symBinAddr: 0x100061350, symSize: 0x28 }
  - { offset: 0xB31FC, size: 0x8, addend: 0x0, symName: __RNvMNtCsfvfooZQ3Axs_4core5sliceSNtNtNtCscOYdFFY2T5N_3std3ffi6os_str8OsString8containsCsdARyWrlPtHl_2cc, symObjAddr: 0x1CCC, symBinAddr: 0x100061378, symSize: 0x48 }
  - { offset: 0xB3242, size: 0x8, addend: 0x0, symName: __RNvMNtCsfvfooZQ3Axs_4core5sliceSRNtNtNtCscOYdFFY2T5N_3std3ffi6os_str5OsStr4iterCsdARyWrlPtHl_2cc, symObjAddr: 0x1D14, symBinAddr: 0x1000613C0, symSize: 0x28 }
  - { offset: 0xB3279, size: 0x8, addend: 0x0, symName: __RNvMNtCsfvfooZQ3Axs_4core5sliceSTINtNtCse1nGBsou5OW_5alloc4sync3ArcNtNtNtCscOYdFFY2T5N_3std3ffi6os_str5OsStrEBv_E4iterCsdARyWrlPtHl_2cc, symObjAddr: 0x1D3C, symBinAddr: 0x1000613E8, symSize: 0x28 }
  - { offset: 0xB32B0, size: 0x8, addend: 0x0, symName: __RNvMNtCsfvfooZQ3Axs_4core5sliceSTINtNtCse1nGBsou5OW_5alloc4sync3ArceEINtNtB4_6option6OptionBv_EE4iterCsdARyWrlPtHl_2cc, symObjAddr: 0x1D64, symBinAddr: 0x100061410, symSize: 0x28 }
  - { offset: 0xB32E7, size: 0x8, addend: 0x0, symName: __RNvMNtCsfvfooZQ3Axs_4core5sliceSTNtNtNtCscOYdFFY2T5N_3std3ffi6os_str8OsStringBv_E4iterCsdARyWrlPtHl_2cc, symObjAddr: 0x1D8C, symBinAddr: 0x100061438, symSize: 0x28 }
  - { offset: 0xB34DB, size: 0x8, addend: 0x0, symName: __RNvXsd_NtNtCsfvfooZQ3Axs_4core5slice3cmpNtNtNtCscOYdFFY2T5N_3std3ffi6os_str8OsStringNtB5_13SliceContains14slice_containsCsdARyWrlPtHl_2cc, symObjAddr: 0x4C4C, symBinAddr: 0x1000642B8, symSize: 0x80 }
  - { offset: 0xB3D7B, size: 0x8, addend: 0x0, symName: __RNvXs1_NtNtNtCsfvfooZQ3Axs_4core3ops8function5implsQNCINvNvNtNtNtNtBb_4iter6traits8iterator8Iterator8for_each4callRNtNtCscOYdFFY2T5N_3std4path4PathNCINvMsi_NtCse1nGBsou5OW_5alloc3vecINtB2u_3VecB1O_E14extend_trustedINtNtNtB11_8adapters5chain5ChainINtNtB3v_3map3MapINtNtNtBb_5slice4iter4IterNtCsdARyWrlPtHl_2cc6ObjectENCNvMs4_B4F_NtB4F_5Build8assemble0EIB3X_IB4e_INtNtB2w_4sync3ArcB1P_EENvYB5N_NtNtB9_5deref5Deref5derefEEE0E0INtB7_5FnMutTuB1O_EE8call_mutB4F_, symObjAddr: 0x33B4, symBinAddr: 0x100062A20, symSize: 0x38 }
  - { offset: 0xB3E65, size: 0x8, addend: 0x0, symName: __RNvXs1_NtCsfvfooZQ3Axs_4core7convertRNtNtNtCscOYdFFY2T5N_3std3ffi6os_str5OsStrINtB5_4IntoINtNtCse1nGBsou5OW_5alloc4sync3ArcBz_EE4intoCsdARyWrlPtHl_2cc, symObjAddr: 0x32FC, symBinAddr: 0x100062968, symSize: 0x28 }
  - { offset: 0xB3EA5, size: 0x8, addend: 0x0, symName: __RNvXs1_NtCsfvfooZQ3Axs_4core7convertRNtNtNtCscOYdFFY2T5N_3std3ffi6os_str5OsStrINtB5_4IntoINtNtCse1nGBsou5OW_5alloc5boxed3BoxBz_EE4intoCsdARyWrlPtHl_2cc, symObjAddr: 0x3324, symBinAddr: 0x100062990, symSize: 0x28 }
  - { offset: 0xB3EE5, size: 0x8, addend: 0x0, symName: __RNvXs1_NtCsfvfooZQ3Axs_4core7convertRNtNtNtCscOYdFFY2T5N_3std3ffi6os_str5OsStrINtB5_4IntoNtBB_8OsStringE4intoCsdARyWrlPtHl_2cc, symObjAddr: 0x334C, symBinAddr: 0x1000629B8, symSize: 0x28 }
  - { offset: 0xB3F5B, size: 0x8, addend: 0x0, symName: __RNvXNtCsfvfooZQ3Axs_4core7convertRINtNtCse1nGBsou5OW_5alloc4sync3ArcNtNtNtCscOYdFFY2T5N_3std3ffi6os_str5OsStrEINtB2_5AsRefB14_E6as_refCsdARyWrlPtHl_2cc, symObjAddr: 0x30A0, symBinAddr: 0x10006270C, symSize: 0x28 }
  - { offset: 0xB3F9B, size: 0x8, addend: 0x0, symName: __RNvXNtCsfvfooZQ3Axs_4core7convertRNtNtNtCscOYdFFY2T5N_3std3ffi6os_str5OsStrINtB2_5AsRefBw_E6as_refCsdARyWrlPtHl_2cc, symObjAddr: 0x30C8, symBinAddr: 0x100062734, symSize: 0x30 }
  - { offset: 0xB3FDB, size: 0x8, addend: 0x0, symName: __RNvXNtCsfvfooZQ3Axs_4core7convertRNtNtNtCscOYdFFY2T5N_3std3ffi6os_str8OsStringINtB2_5AsRefNtBy_5OsStrE6as_refCsdARyWrlPtHl_2cc, symObjAddr: 0x30F8, symBinAddr: 0x100062764, symSize: 0x28 }
  - { offset: 0xB401B, size: 0x8, addend: 0x0, symName: __RNvXNtCsfvfooZQ3Axs_4core7convertRRNtNtNtCscOYdFFY2T5N_3std3ffi6os_str8OsStringINtB2_5AsRefNtBz_5OsStrE6as_refCsdARyWrlPtHl_2cc, symObjAddr: 0x3120, symBinAddr: 0x10006278C, symSize: 0x28 }
  - { offset: 0xB4216, size: 0x8, addend: 0x0, symName: __RNvXs8_NtNtCsfvfooZQ3Axs_4core4task4wakeNtB5_5WakerNtNtNtB9_3ops4drop4Drop4dropCsdARyWrlPtHl_2cc, symObjAddr: 0x3840, symBinAddr: 0x100062EAC, symSize: 0x30 }
  - { offset: 0xB43B7, size: 0x8, addend: 0x0, symName: __RNvNtNtNtCsfvfooZQ3Axs_4core7unicode12unicode_data11white_space6lookupCsdARyWrlPtHl_2cc, symObjAddr: 0x2DBC, symBinAddr: 0x100062428, symSize: 0x14C }
  - { offset: 0xB43F7, size: 0x8, addend: 0x0, symName: __RNvXNtNtCsfvfooZQ3Axs_4core5array4iterANtNtNtCscOYdFFY2T5N_3std3ffi6os_str8OsStringj6_NtNtNtNtB6_4iter6traits7collect12IntoIterator9into_iterCsdARyWrlPtHl_2cc, symObjAddr: 0x3148, symBinAddr: 0x1000627B4, symSize: 0x58 }
  - { offset: 0xB4488, size: 0x8, addend: 0x0, symName: __RNvYNtNvXsh_NtNtCse1nGBsou5OW_5alloc5boxed7convertINtBc_3BoxDNtNtCsfvfooZQ3Axs_4core5error5ErrorNtNtB11_6marker4SendNtB1y_4SyncEL_EINtNtB11_7convert4FromNtNtBe_6string6StringE4from11StringErrorBX_5causeCsdARyWrlPtHl_2cc, symObjAddr: 0x5508, symBinAddr: 0x100064B74, symSize: 0x24 }
  - { offset: 0xB44BD, size: 0x8, addend: 0x0, symName: __RNvYNtNvXsh_NtNtCse1nGBsou5OW_5alloc5boxed7convertINtBc_3BoxDNtNtCsfvfooZQ3Axs_4core5error5ErrorNtNtB11_6marker4SendNtB1y_4SyncEL_EINtNtB11_7convert4FromNtNtBe_6string6StringE4from11StringErrorBX_6sourceCsdARyWrlPtHl_2cc, symObjAddr: 0x552C, symBinAddr: 0x100064B98, symSize: 0x24 }
  - { offset: 0xB44F2, size: 0x8, addend: 0x0, symName: __RNvYNtNvXsh_NtNtCse1nGBsou5OW_5alloc5boxed7convertINtBc_3BoxDNtNtCsfvfooZQ3Axs_4core5error5ErrorNtNtB11_6marker4SendNtB1y_4SyncEL_EINtNtB11_7convert4FromNtNtBe_6string6StringE4from11StringErrorBX_7provideCsdARyWrlPtHl_2cc, symObjAddr: 0x5550, symBinAddr: 0x100064BBC, symSize: 0x18 }
  - { offset: 0xB4531, size: 0x8, addend: 0x0, symName: __RNvYNtNvXsh_NtNtCse1nGBsou5OW_5alloc5boxed7convertINtBc_3BoxDNtNtCsfvfooZQ3Axs_4core5error5ErrorNtNtB11_6marker4SendNtB1y_4SyncEL_EINtNtB11_7convert4FromNtNtBe_6string6StringE4from11StringErrorBX_7type_idCsdARyWrlPtHl_2cc, symObjAddr: 0x5568, symBinAddr: 0x100064BD4, symSize: 0x58 }
  - { offset: 0xB46A8, size: 0x8, addend: 0x0, symName: __RNvXsB_NtCscOYdFFY2T5N_3std4pathNtNtNtB7_3ffi6os_str8OsStringINtNtCsfvfooZQ3Axs_4core7convert4FromNtB5_7PathBufE4fromCsdARyWrlPtHl_2cc, symObjAddr: 0x3870, symBinAddr: 0x100062EDC, symSize: 0x18 }
  - { offset: 0xB46DC, size: 0x8, addend: 0x0, symName: __RNvXsQ_NtCscOYdFFY2T5N_3std4pathINtNtCse1nGBsou5OW_5alloc4sync3ArcNtB5_4PathEINtNtCsfvfooZQ3Axs_4core7convert4FromRB12_E4fromCsdARyWrlPtHl_2cc, symObjAddr: 0x4194, symBinAddr: 0x100063800, symSize: 0x44 }
  - { offset: 0xB4B7B, size: 0x8, addend: 0x0, symName: __RINvXsN_NtNtCscOYdFFY2T5N_3std3ffi6os_strNtB6_5OsStrNtNtCsfvfooZQ3Axs_4core4hash4Hash4hashNtNtNtBa_4hash6random13DefaultHasherECsdARyWrlPtHl_2cc, symObjAddr: 0x1124, symBinAddr: 0x100060874, symSize: 0x9C }
  - { offset: 0xB4CEE, size: 0x8, addend: 0x0, symName: __RNvXs5_NtNtCscOYdFFY2T5N_3std3ffi6os_strNtB5_8OsStringNtNtNtCsfvfooZQ3Axs_4core3ops5deref5Deref5derefCsdARyWrlPtHl_2cc, symObjAddr: 0x36F0, symBinAddr: 0x100062D5C, symSize: 0x2C }
  - { offset: 0xB4D9A, size: 0x8, addend: 0x0, symName: __RNvXs1_NtNtCscOYdFFY2T5N_3std3ffi6os_strNtB5_8OsStringINtNtCsfvfooZQ3Axs_4core7convert4FromNtNtCse1nGBsou5OW_5alloc6string6StringE4fromCsdARyWrlPtHl_2cc, symObjAddr: 0x3374, symBinAddr: 0x1000629E0, symSize: 0x40 }
  - { offset: 0xB4DF8, size: 0x8, addend: 0x0, symName: __RNvXs2_NtNtCscOYdFFY2T5N_3std3ffi6os_strNtB5_8OsStringINtNtCsfvfooZQ3Axs_4core7convert4FromRNtB5_5OsStrE4fromCsdARyWrlPtHl_2cc, symObjAddr: 0x3580, symBinAddr: 0x100062BEC, symSize: 0x54 }
  - { offset: 0xB4E4D, size: 0x8, addend: 0x0, symName: __RNvXs2_NtNtCscOYdFFY2T5N_3std3ffi6os_strNtB5_8OsStringINtNtCsfvfooZQ3Axs_4core7convert4FromRNtNtCse1nGBsou5OW_5alloc6string6StringE4fromCsdARyWrlPtHl_2cc, symObjAddr: 0x35D4, symBinAddr: 0x100062C40, symSize: 0x50 }
  - { offset: 0xB4EA2, size: 0x8, addend: 0x0, symName: __RNvXs2_NtNtCscOYdFFY2T5N_3std3ffi6os_strNtB5_8OsStringINtNtCsfvfooZQ3Axs_4core7convert4FromReE4fromCsdARyWrlPtHl_2cc, symObjAddr: 0x3624, symBinAddr: 0x100062C90, symSize: 0x54 }
  - { offset: 0xB4EFD, size: 0x8, addend: 0x0, symName: __RNvXs3_NtNtCscOYdFFY2T5N_3std3ffi6os_strNtB5_8OsStringINtNtNtCsfvfooZQ3Axs_4core3ops5index5IndexNtNtBV_5range9RangeFullE5indexCsdARyWrlPtHl_2cc, symObjAddr: 0x3678, symBinAddr: 0x100062CE4, symSize: 0x78 }
  - { offset: 0xB50AB, size: 0x8, addend: 0x0, symName: __RNvXs8_NtNtCscOYdFFY2T5N_3std3ffi6os_strNtB5_8OsStringNtNtCsfvfooZQ3Axs_4core5clone5Clone5cloneCsdARyWrlPtHl_2cc, symObjAddr: 0x37E0, symBinAddr: 0x100062E4C, symSize: 0x60 }
  - { offset: 0xB50FD, size: 0x8, addend: 0x0, symName: __RNvXsF_NtNtCscOYdFFY2T5N_3std3ffi6os_strRNtB5_5OsStrNtNtCsfvfooZQ3Axs_4core7default7Default7defaultCsdARyWrlPtHl_2cc, symObjAddr: 0x3888, symBinAddr: 0x100062EF4, symSize: 0x10 }
  - { offset: 0xB5121, size: 0x8, addend: 0x0, symName: __RNvXsG_NtNtCscOYdFFY2T5N_3std3ffi6os_strNtB5_5OsStrNtNtCsfvfooZQ3Axs_4core3cmp9PartialEq2eqCsdARyWrlPtHl_2cc, symObjAddr: 0x3898, symBinAddr: 0x100062F04, symSize: 0x4C }
  - { offset: 0xB52B7, size: 0x8, addend: 0x0, symName: __RNvXsW_NtNtCscOYdFFY2T5N_3std3ffi6os_streINtNtCsfvfooZQ3Axs_4core7convert5AsRefNtB5_5OsStrE6as_refCsdARyWrlPtHl_2cc, symObjAddr: 0x4350, symBinAddr: 0x1000639BC, symSize: 0x18 }
  - { offset: 0xB5327, size: 0x8, addend: 0x0, symName: __RNvXsH_NtNtCscOYdFFY2T5N_3std3ffi6os_strNtB5_5OsStrINtNtCsfvfooZQ3Axs_4core3cmp9PartialEqeE2eqCsdARyWrlPtHl_2cc, symObjAddr: 0x38E4, symBinAddr: 0x100062F50, symSize: 0x58 }
  - { offset: 0xB54C2, size: 0x8, addend: 0x0, symName: __RNvXsT_NtNtCscOYdFFY2T5N_3std3ffi6os_strNtB5_5OsStrNtNtCse1nGBsou5OW_5alloc6borrow7ToOwned8to_ownedCsdARyWrlPtHl_2cc, symObjAddr: 0x42C8, symBinAddr: 0x100063934, symSize: 0x44 }
  - { offset: 0xB5514, size: 0x8, addend: 0x0, symName: __RNvXsU_NtNtCscOYdFFY2T5N_3std3ffi6os_strNtB5_5OsStrINtNtCsfvfooZQ3Axs_4core7convert5AsRefBC_E6as_refCsdARyWrlPtHl_2cc, symObjAddr: 0x430C, symBinAddr: 0x100063978, symSize: 0x18 }
  - { offset: 0xB5548, size: 0x8, addend: 0x0, symName: __RNvXsV_NtNtCscOYdFFY2T5N_3std3ffi6os_strNtB5_8OsStringINtNtCsfvfooZQ3Axs_4core7convert5AsRefNtB5_5OsStrE6as_refCsdARyWrlPtHl_2cc, symObjAddr: 0x4324, symBinAddr: 0x100063990, symSize: 0x2C }
  - { offset: 0xB559A, size: 0x8, addend: 0x0, symName: __RNvXsa_NtNtCscOYdFFY2T5N_3std3ffi6os_strNtB5_8OsStringNtNtCsfvfooZQ3Axs_4core3cmp9PartialEq2eqCsdARyWrlPtHl_2cc, symObjAddr: 0x495C, symBinAddr: 0x100063FC8, symSize: 0x134 }
  - { offset: 0xB59A3, size: 0x8, addend: 0x0, symName: __RNvXsb_NtNtCscOYdFFY2T5N_3std3ffi6os_strNtB5_8OsStringINtNtCsfvfooZQ3Axs_4core3cmp9PartialEqeE2eqCsdARyWrlPtHl_2cc, symObjAddr: 0x4A90, symBinAddr: 0x1000640FC, symSize: 0xC4 }
  - { offset: 0xB5CBC, size: 0x8, addend: 0x0, symName: __RNvXsd_NtNtCscOYdFFY2T5N_3std3ffi6os_strNtB5_8OsStringINtNtCsfvfooZQ3Axs_4core3cmp9PartialEqReE2eqCsdARyWrlPtHl_2cc, symObjAddr: 0x4B94, symBinAddr: 0x100064200, symSize: 0xB8 }
  - { offset: 0xB5F70, size: 0x8, addend: 0x0, symName: __RNvXst_NtNtCscOYdFFY2T5N_3std3ffi6os_strINtNtCse1nGBsou5OW_5alloc4sync3ArcNtB5_5OsStrEINtNtCsfvfooZQ3Axs_4core7convert4FromNtB5_8OsStringE4fromCsdARyWrlPtHl_2cc, symObjAddr: 0x4F6C, symBinAddr: 0x1000645D8, symSize: 0x94 }
  - { offset: 0xB6014, size: 0x8, addend: 0x0, symName: __RNvXsu_NtNtCscOYdFFY2T5N_3std3ffi6os_strINtNtCse1nGBsou5OW_5alloc4sync3ArcNtB5_5OsStrEINtNtCsfvfooZQ3Axs_4core7convert4FromRB1a_E4fromCsdARyWrlPtHl_2cc, symObjAddr: 0x5000, symBinAddr: 0x10006466C, symSize: 0x78 }
  - { offset: 0xB6EB0, size: 0x8, addend: 0x0, symName: __RNvXs_NtCse1nGBsou5OW_5alloc5allocNtB4_6GlobalNtNtCsfvfooZQ3Axs_4core5alloc9Allocator10deallocateCsdARyWrlPtHl_2cc, symObjAddr: 0x4368, symBinAddr: 0x1000639D4, symSize: 0x88 }
  - { offset: 0xB6F8B, size: 0x8, addend: 0x0, symName: __RNvXs_NtCse1nGBsou5OW_5alloc5allocNtB4_6GlobalNtNtCsfvfooZQ3Axs_4core5alloc9Allocator15allocate_zeroedCsdARyWrlPtHl_2cc, symObjAddr: 0x43F0, symBinAddr: 0x100063A5C, symSize: 0x34 }
  - { offset: 0xB7021, size: 0x8, addend: 0x0, symName: __RNvXs_NtCse1nGBsou5OW_5alloc5allocNtB4_6GlobalNtNtCsfvfooZQ3Axs_4core5alloc9Allocator6shrinkCsdARyWrlPtHl_2cc, symObjAddr: 0x4424, symBinAddr: 0x100063A90, symSize: 0x490 }
  - { offset: 0xB776D, size: 0x8, addend: 0x0, symName: __RNvXs_NtCse1nGBsou5OW_5alloc5allocNtB4_6GlobalNtNtCsfvfooZQ3Axs_4core5alloc9Allocator8allocateCsdARyWrlPtHl_2cc, symObjAddr: 0x48B4, symBinAddr: 0x100063F20, symSize: 0x34 }
  - { offset: 0xB77A8, size: 0x8, addend: 0x0, symName: __RNvNtCse1nGBsou5OW_5alloc5alloc12alloc_zeroedCsdARyWrlPtHl_2cc, symObjAddr: 0x2C10, symBinAddr: 0x10006227C, symSize: 0x84 }
  - { offset: 0xB783F, size: 0x8, addend: 0x0, symName: __RNvNtCse1nGBsou5OW_5alloc5alloc15exchange_mallocCsdARyWrlPtHl_2cc, symObjAddr: 0x2C94, symBinAddr: 0x100062300, symSize: 0xA4 }
  - { offset: 0xB78D6, size: 0x8, addend: 0x0, symName: __RNvNtCse1nGBsou5OW_5alloc5alloc5allocCsdARyWrlPtHl_2cc, symObjAddr: 0x2D38, symBinAddr: 0x1000623A4, symSize: 0x84 }
  - { offset: 0xB7972, size: 0x8, addend: 0x0, symName: __RNvXs1_NtCse1nGBsou5OW_5alloc5allocNtB5_6GlobalNtNtCsfvfooZQ3Axs_4core5clone5Clone5cloneCsdARyWrlPtHl_2cc, symObjAddr: 0x32EC, symBinAddr: 0x100062958, symSize: 0x10 }
  - { offset: 0xB7ECA, size: 0x8, addend: 0x0, symName: __RNCINvMsm_NtNtNtCse1nGBsou5OW_5alloc11collections5btree8navigateINtNtBa_4node6HandleINtB13_7NodeRefNtNtB13_6marker5DyingNtNtNtCscOYdFFY2T5N_3std3ffi6os_str8OsStringINtNtCsfvfooZQ3Axs_4core6option6OptionB1U_ENtB1B_4LeafENtB1B_4EdgeE27deallocating_next_uncheckedNtNtBe_5alloc6GlobalE0CsdARyWrlPtHl_2cc, symObjAddr: 0x11C0, symBinAddr: 0x100060910, symSize: 0x58 }
  - { offset: 0xB85BE, size: 0x8, addend: 0x0, symName: __RNCNvMsm_NtCse1nGBsou5OW_5alloc4syncINtB7_3ArcShE18allocate_for_slice0CsdARyWrlPtHl_2cc, symObjAddr: 0x19EC, symBinAddr: 0x100061098, symSize: 0x48 }
  - { offset: 0xB8626, size: 0x8, addend: 0x0, symName: __RNCNvMsm_NtCse1nGBsou5OW_5alloc4syncINtB7_3ArcShE18allocate_for_slices_0CsdARyWrlPtHl_2cc, symObjAddr: 0x1A34, symBinAddr: 0x1000610E0, symSize: 0x28 }
  - { offset: 0xB88B6, size: 0x8, addend: 0x0, symName: __RINvNtCse1nGBsou5OW_5alloc4sync11data_offsetNtNtCscOYdFFY2T5N_3std4path4PathECsdARyWrlPtHl_2cc, symObjAddr: 0x73C, symBinAddr: 0x10005FE8C, symSize: 0x94 }
  - { offset: 0xB89A5, size: 0x8, addend: 0x0, symName: __RINvNtCse1nGBsou5OW_5alloc4sync11data_offsetNtNtNtCscOYdFFY2T5N_3std3ffi6os_str5OsStrECsdARyWrlPtHl_2cc, symObjAddr: 0x7D0, symBinAddr: 0x10005FF20, symSize: 0x94 }
  - { offset: 0xB8A94, size: 0x8, addend: 0x0, symName: __RINvNtCse1nGBsou5OW_5alloc4sync11data_offsetNtNtNtNtCscOYdFFY2T5N_3std3sys6os_str5bytes5SliceECsdARyWrlPtHl_2cc, symObjAddr: 0x864, symBinAddr: 0x10005FFB4, symSize: 0x94 }
  - { offset: 0xB8B83, size: 0x8, addend: 0x0, symName: __RINvNtCse1nGBsou5OW_5alloc4sync11data_offseteECsdARyWrlPtHl_2cc, symObjAddr: 0x8F8, symBinAddr: 0x100060048, symSize: 0x94 }
  - { offset: 0xB9328, size: 0x8, addend: 0x0, symName: __RNvXs11_NtCse1nGBsou5OW_5alloc4syncINtB6_3ArceEINtNtCsfvfooZQ3Axs_4core7convert4FromReE4fromCsdARyWrlPtHl_2cc, symObjAddr: 0x31A0, symBinAddr: 0x10006280C, symSize: 0x50 }
  - { offset: 0xB9452, size: 0x8, addend: 0x0, symName: __RNvXs13_NtCse1nGBsou5OW_5alloc4syncINtB6_3ArceEINtNtCsfvfooZQ3Axs_4core7convert4FromNtNtB8_6string6StringE4fromCsdARyWrlPtHl_2cc, symObjAddr: 0x31F0, symBinAddr: 0x10006285C, symSize: 0xFC }
  - { offset: 0xB9702, size: 0x8, addend: 0x0, symName: __RNvXsr_NtCse1nGBsou5OW_5alloc4syncINtB5_3ArcNtCsdARyWrlPtHl_2cc10BuildCacheENtNtNtCsfvfooZQ3Axs_4core3ops5deref5Deref5derefBI_, symObjAddr: 0x4ED4, symBinAddr: 0x100064540, symSize: 0x1C }
  - { offset: 0xB9775, size: 0x8, addend: 0x0, symName: __RNvXsr_NtCse1nGBsou5OW_5alloc4syncINtB5_3ArcNtNtCscOYdFFY2T5N_3std4path4PathENtNtNtCsfvfooZQ3Axs_4core3ops5deref5Deref5derefCsdARyWrlPtHl_2cc, symObjAddr: 0x4EF0, symBinAddr: 0x10006455C, symSize: 0x20 }
  - { offset: 0xB97E8, size: 0x8, addend: 0x0, symName: __RNvXsr_NtCse1nGBsou5OW_5alloc4syncINtB5_3ArcNtNtNtCscOYdFFY2T5N_3std3ffi6os_str5OsStrENtNtNtCsfvfooZQ3Axs_4core3ops5deref5Deref5derefCsdARyWrlPtHl_2cc, symObjAddr: 0x4F10, symBinAddr: 0x10006457C, symSize: 0x20 }
  - { offset: 0xB985B, size: 0x8, addend: 0x0, symName: __RNvXsr_NtCse1nGBsou5OW_5alloc4syncINtB5_3ArcNtNtNtCsfvfooZQ3Axs_4core4sync6atomic10AtomicBoolENtNtNtBM_3ops5deref5Deref5derefCsdARyWrlPtHl_2cc, symObjAddr: 0x4F30, symBinAddr: 0x10006459C, symSize: 0x1C }
  - { offset: 0xB98CE, size: 0x8, addend: 0x0, symName: __RNvXsr_NtCse1nGBsou5OW_5alloc4syncINtB5_3ArceENtNtNtCsfvfooZQ3Axs_4core3ops5deref5Deref5derefCsdARyWrlPtHl_2cc, symObjAddr: 0x4F4C, symBinAddr: 0x1000645B8, symSize: 0x20 }
  - { offset: 0xB9947, size: 0x8, addend: 0x0, symName: __RNvXs1d_NtCse1nGBsou5OW_5alloc4syncINtB6_3ArcNtNtNtCscOYdFFY2T5N_3std3ffi6os_str5OsStrEINtNtCsfvfooZQ3Axs_4core7convert5AsRefBH_E6as_refCsdARyWrlPtHl_2cc, symObjAddr: 0x3560, symBinAddr: 0x100062BCC, symSize: 0x20 }
  - { offset: 0xB9A5A, size: 0x8, addend: 0x0, symName: __RNvXsI_NtCse1nGBsou5OW_5alloc4syncINtB5_4WeakNtCsdARyWrlPtHl_2cc10BuildCacheRNtNtB7_5alloc6GlobalENtNtNtCsfvfooZQ3Axs_4core3ops4drop4Drop4dropBJ_, symObjAddr: 0x393C, symBinAddr: 0x100062FA8, symSize: 0x168 }
  - { offset: 0xB9C78, size: 0x8, addend: 0x0, symName: __RNvXsI_NtCse1nGBsou5OW_5alloc4syncINtB5_4WeakNtNtCscOYdFFY2T5N_3std4path4PathRNtNtB7_5alloc6GlobalENtNtNtCsfvfooZQ3Axs_4core3ops4drop4Drop4dropCsdARyWrlPtHl_2cc, symObjAddr: 0x3AA4, symBinAddr: 0x100063110, symSize: 0x1C0 }
  - { offset: 0xB9E96, size: 0x8, addend: 0x0, symName: __RNvXsI_NtCse1nGBsou5OW_5alloc4syncINtB5_4WeakNtNtNtCscOYdFFY2T5N_3std3ffi6os_str5OsStrRNtNtB7_5alloc6GlobalENtNtNtCsfvfooZQ3Axs_4core3ops4drop4Drop4dropCsdARyWrlPtHl_2cc, symObjAddr: 0x3C64, symBinAddr: 0x1000632D0, symSize: 0x1B4 }
  - { offset: 0xBA0B4, size: 0x8, addend: 0x0, symName: __RNvXsI_NtCse1nGBsou5OW_5alloc4syncINtB5_4WeakNtNtNtCsfvfooZQ3Axs_4core4sync6atomic10AtomicBoolRNtNtB7_5alloc6GlobalENtNtNtBN_3ops4drop4Drop4dropCsdARyWrlPtHl_2cc, symObjAddr: 0x3E18, symBinAddr: 0x100063484, symSize: 0x168 }
  - { offset: 0xBA2D2, size: 0x8, addend: 0x0, symName: __RNvXsI_NtCse1nGBsou5OW_5alloc4syncINtB5_4WeakeRNtNtB7_5alloc6GlobalENtNtNtCsfvfooZQ3Axs_4core3ops4drop4Drop4dropCsdARyWrlPtHl_2cc, symObjAddr: 0x3F80, symBinAddr: 0x1000635EC, symSize: 0x198 }
  - { offset: 0xBA662, size: 0x8, addend: 0x0, symName: __RNvXsP_NtCse1nGBsou5OW_5alloc4syncINtB5_3ArceENtNtCsfvfooZQ3Axs_4core3fmt7Display3fmtCsdARyWrlPtHl_2cc, symObjAddr: 0x4158, symBinAddr: 0x1000637C4, symSize: 0x3C }
  - { offset: 0xBA708, size: 0x8, addend: 0x0, symName: __RNvXsS_NtCse1nGBsou5OW_5alloc4syncINtB5_3ArcNtCsdARyWrlPtHl_2cc10BuildCacheENtNtCsfvfooZQ3Axs_4core7default7Default7defaultBI_, symObjAddr: 0x41D8, symBinAddr: 0x100063844, symSize: 0xF0 }
  - { offset: 0xBA835, size: 0x8, addend: 0x0, symName: __RNvXsq_NtCse1nGBsou5OW_5alloc4syncINtB5_3ArcNtNtNtCscOYdFFY2T5N_3std3ffi6os_str5OsStrENtNtCsfvfooZQ3Axs_4core5clone5Clone5cloneCsdARyWrlPtHl_2cc, symObjAddr: 0x4CF8, symBinAddr: 0x100064364, symSize: 0xA4 }
  - { offset: 0xBA928, size: 0x8, addend: 0x0, symName: __RNvXsq_NtCse1nGBsou5OW_5alloc4syncINtB5_3ArcNtNtNtCsfvfooZQ3Axs_4core4sync6atomic10AtomicBoolENtNtBM_5clone5Clone5cloneCsdARyWrlPtHl_2cc, symObjAddr: 0x4D9C, symBinAddr: 0x100064408, symSize: 0x94 }
  - { offset: 0xBAA1B, size: 0x8, addend: 0x0, symName: __RNvXsq_NtCse1nGBsou5OW_5alloc4syncINtB5_3ArceENtNtCsfvfooZQ3Axs_4core5clone5Clone5cloneCsdARyWrlPtHl_2cc, symObjAddr: 0x4E30, symBinAddr: 0x10006449C, symSize: 0xA4 }
  - { offset: 0xBAB14, size: 0x8, addend: 0x0, symName: __RNvXsz_NtCse1nGBsou5OW_5alloc4syncINtB5_3ArcNtCsdARyWrlPtHl_2cc10BuildCacheENtNtNtCsfvfooZQ3Axs_4core3ops4drop4Drop4dropBI_, symObjAddr: 0x5078, symBinAddr: 0x1000646E4, symSize: 0xA8 }
  - { offset: 0xBAC3E, size: 0x8, addend: 0x0, symName: __RNvXsz_NtCse1nGBsou5OW_5alloc4syncINtB5_3ArcNtNtCscOYdFFY2T5N_3std4path4PathENtNtNtCsfvfooZQ3Axs_4core3ops4drop4Drop4dropCsdARyWrlPtHl_2cc, symObjAddr: 0x5120, symBinAddr: 0x10006478C, symSize: 0xA8 }
  - { offset: 0xBAD68, size: 0x8, addend: 0x0, symName: __RNvXsz_NtCse1nGBsou5OW_5alloc4syncINtB5_3ArcNtNtNtCscOYdFFY2T5N_3std3ffi6os_str5OsStrENtNtNtCsfvfooZQ3Axs_4core3ops4drop4Drop4dropCsdARyWrlPtHl_2cc, symObjAddr: 0x51C8, symBinAddr: 0x100064834, symSize: 0xA8 }
  - { offset: 0xBAE92, size: 0x8, addend: 0x0, symName: __RNvXsz_NtCse1nGBsou5OW_5alloc4syncINtB5_3ArcNtNtNtCsfvfooZQ3Axs_4core4sync6atomic10AtomicBoolENtNtNtBM_3ops4drop4Drop4dropCsdARyWrlPtHl_2cc, symObjAddr: 0x5270, symBinAddr: 0x1000648DC, symSize: 0xA8 }
  - { offset: 0xBAFBC, size: 0x8, addend: 0x0, symName: __RNvXsz_NtCse1nGBsou5OW_5alloc4syncINtB5_3ArcNtNtNtNtCscOYdFFY2T5N_3std4sync4mpmc7context5InnerENtNtNtCsfvfooZQ3Axs_4core3ops4drop4Drop4dropCsdARyWrlPtHl_2cc, symObjAddr: 0x5318, symBinAddr: 0x100064984, symSize: 0xA8 }
  - { offset: 0xBB0E6, size: 0x8, addend: 0x0, symName: __RNvXsz_NtCse1nGBsou5OW_5alloc4syncINtB5_3ArceENtNtNtCsfvfooZQ3Axs_4core3ops4drop4Drop4dropCsdARyWrlPtHl_2cc, symObjAddr: 0x53C0, symBinAddr: 0x100064A2C, symSize: 0xA8 }
  - { offset: 0xBB3C4, size: 0x8, addend: 0x0, symName: __RINvXNtNtCse1nGBsou5OW_5alloc5slice4hackNtNtNtCscOYdFFY2T5N_3std3ffi6os_str8OsStringNtB3_10ConvertVec6to_vecNtNtB7_5alloc6GlobalECsdARyWrlPtHl_2cc, symObjAddr: 0xA50, symBinAddr: 0x1000601A0, symSize: 0x36C }
  - { offset: 0xBB887, size: 0x8, addend: 0x0, symName: __RINvXNtNtCse1nGBsou5OW_5alloc5slice4hackTNtNtNtCscOYdFFY2T5N_3std3ffi6os_str8OsStringBD_ENtB3_10ConvertVec6to_vecNtNtB7_5alloc6GlobalECsdARyWrlPtHl_2cc, symObjAddr: 0xDBC, symBinAddr: 0x10006050C, symSize: 0x368 }
  - { offset: 0xBC091, size: 0x8, addend: 0x0, symName: __RNvXs_NtCse1nGBsou5OW_5alloc6borrowNtNtNtCscOYdFFY2T5N_3std3ffi6os_str8OsStringNtB4_7ToOwned8to_ownedCsdARyWrlPtHl_2cc, symObjAddr: 0x48E8, symBinAddr: 0x100063F54, symSize: 0x24 }
  - { offset: 0xBC104, size: 0x8, addend: 0x0, symName: __RINvMs0_NtNtCscOYdFFY2T5N_3std3ffi6os_strNtB6_8OsString4pushNtNtBa_4path7PathBufECsdARyWrlPtHl_2cc, symObjAddr: 0x80, symBinAddr: 0x10005F8A4, symSize: 0x80 }
  - { offset: 0xBC174, size: 0x8, addend: 0x0, symName: __RINvMs0_NtNtCscOYdFFY2T5N_3std3ffi6os_strNtB6_8OsString4pushRNtNtBa_4path4PathECsdARyWrlPtHl_2cc, symObjAddr: 0x168, symBinAddr: 0x10005F924, symSize: 0x6C }
  - { offset: 0xBC313, size: 0x8, addend: 0x0, symName: __RINvMs3_NtCsfvfooZQ3Axs_4core3fmtNtB6_9Arguments6new_v1Kj3_KBS_ECsdARyWrlPtHl_2cc, symObjAddr: 0x240, symBinAddr: 0x10005F990, symSize: 0x50 }
  - { offset: 0xBC35F, size: 0x8, addend: 0x0, symName: __RINvMs3_NtCsfvfooZQ3Axs_4core3fmtNtB6_9Arguments6new_v1Kj3_Kj2_ECsdARyWrlPtHl_2cc, symObjAddr: 0x290, symBinAddr: 0x10005F9E0, symSize: 0x54 }
  - { offset: 0xBC3C5, size: 0x8, addend: 0x0, symName: __RINvMs3_NtCsfvfooZQ3Axs_4core3fmtNtB6_9Arguments6new_v1Kj4_KBS_ECsdARyWrlPtHl_2cc, symObjAddr: 0x2E4, symBinAddr: 0x10005FA34, symSize: 0x50 }
  - { offset: 0xBC42B, size: 0x8, addend: 0x0, symName: __RINvMs3_NtCsfvfooZQ3Axs_4core3fmtNtB6_9Arguments6new_v1Kj5_KBS_ECsdARyWrlPtHl_2cc, symObjAddr: 0x334, symBinAddr: 0x10005FA84, symSize: 0x50 }
  - { offset: 0xBC491, size: 0x8, addend: 0x0, symName: __RINvMs3_NtCsfvfooZQ3Axs_4core3fmtNtB6_9Arguments6new_v1Kj6_KBS_ECsdARyWrlPtHl_2cc, symObjAddr: 0x384, symBinAddr: 0x10005FAD4, symSize: 0x50 }
  - { offset: 0xBC554, size: 0x8, addend: 0x0, symName: __RINvMsb_NtNtNtCse1nGBsou5OW_5alloc11collections5btree8navigateINtB6_13LazyLeafRangeNtNtNtB8_4node6marker5DyingNtNtNtCscOYdFFY2T5N_3std3ffi6os_str8OsStringINtNtCsfvfooZQ3Axs_4core6option6OptionB1K_EE16deallocating_endNtNtBc_5alloc6GlobalECsdARyWrlPtHl_2cc, symObjAddr: 0x3D4, symBinAddr: 0x10005FB24, symSize: 0xA8 }
  - { offset: 0xBC633, size: 0x8, addend: 0x0, symName: __RINvMsb_NtNtNtCse1nGBsou5OW_5alloc11collections5btree8navigateINtB6_13LazyLeafRangeNtNtNtB8_4node6marker5DyingNtNtNtCscOYdFFY2T5N_3std3ffi6os_str8OsStringINtNtCsfvfooZQ3Axs_4core6option6OptionB1K_EE27deallocating_next_uncheckedNtNtBc_5alloc6GlobalECsdARyWrlPtHl_2cc, symObjAddr: 0x47C, symBinAddr: 0x10005FBCC, symSize: 0xA8 }
  - { offset: 0xBC881, size: 0x8, addend: 0x0, symName: __RINvMsk_NtCse1nGBsou5OW_5alloc4syncINtB6_3ArcShE19allocate_for_layoutNCNvMsm_B6_Bx_18allocate_for_slice0NCB17_s_0ECsdARyWrlPtHl_2cc, symObjAddr: 0x524, symBinAddr: 0x10005FC74, symSize: 0x184 }
  - { offset: 0xBCB09, size: 0x8, addend: 0x0, symName: __RINvMsl_NtNtCscOYdFFY2T5N_3std3ffi6os_strNtB6_5OsStr3newINtNtCse1nGBsou5OW_5alloc4sync3ArcBD_EECsdARyWrlPtHl_2cc, symObjAddr: 0x6A8, symBinAddr: 0x10005FDF8, symSize: 0x24 }
  - { offset: 0xBCB42, size: 0x8, addend: 0x0, symName: __RINvMsl_NtNtCscOYdFFY2T5N_3std3ffi6os_strNtB6_5OsStr3newNtNtCse1nGBsou5OW_5alloc6string6StringECsdARyWrlPtHl_2cc, symObjAddr: 0x6CC, symBinAddr: 0x10005FE1C, symSize: 0x24 }
  - { offset: 0xBCB7B, size: 0x8, addend: 0x0, symName: __RINvMsl_NtNtCscOYdFFY2T5N_3std3ffi6os_strNtB6_5OsStr3newReECsdARyWrlPtHl_2cc, symObjAddr: 0x6F0, symBinAddr: 0x10005FE40, symSize: 0x24 }
  - { offset: 0xBCBA7, size: 0x8, addend: 0x0, symName: __RINvMsl_NtNtCscOYdFFY2T5N_3std3ffi6os_strNtB6_5OsStr3neweECsdARyWrlPtHl_2cc, symObjAddr: 0x714, symBinAddr: 0x10005FE64, symSize: 0x28 }
  - { offset: 0xBD771, size: 0x8, addend: 0x0, symName: __RNvMNtCse1nGBsou5OW_5alloc5allocNtB2_6Global10alloc_implCsdARyWrlPtHl_2cc, symObjAddr: 0x1AC0, symBinAddr: 0x10006116C, symSize: 0x194 }
  - { offset: 0xBDAC7, size: 0x8, addend: 0x0, symName: __RNvMNtNtCsfvfooZQ3Axs_4core5alloc6layoutNtB2_6Layout18padding_needed_forCsdARyWrlPtHl_2cc, symObjAddr: 0x1DB4, symBinAddr: 0x100061460, symSize: 0xA8 }
  - { offset: 0xBDBD6, size: 0x8, addend: 0x0, symName: __RNvMs0_NtNtCscOYdFFY2T5N_3std3ffi6os_strNtB5_8OsString9as_os_strCsdARyWrlPtHl_2cc, symObjAddr: 0x1E9C, symBinAddr: 0x100061508, symSize: 0x2C }
  - { offset: 0xBDCDB, size: 0x8, addend: 0x0, symName: __RNvMs0_NtNtCsfvfooZQ3Axs_4core4task4wakeNtB5_7Context10from_wakerCsdARyWrlPtHl_2cc, symObjAddr: 0x1EC8, symBinAddr: 0x100061534, symSize: 0x40 }
  - { offset: 0xBDD11, size: 0x8, addend: 0x0, symName: __RNvMs3_NtCsfvfooZQ3Axs_4core3fmtNtB5_9Arguments16new_v1_formattedCsdARyWrlPtHl_2cc, symObjAddr: 0x1F08, symBinAddr: 0x100061574, symSize: 0x58 }
  - { offset: 0xBDD5E, size: 0x8, addend: 0x0, symName: __RNvMs6_NtNtCsfvfooZQ3Axs_4core4task4wakeNtB5_5Waker8from_rawCsdARyWrlPtHl_2cc, symObjAddr: 0x1F60, symBinAddr: 0x1000615CC, symSize: 0x1C }
  - { offset: 0xBDDD2, size: 0x8, addend: 0x0, symName: __RNvMsa_NtCsfvfooZQ3Axs_4core3fmtNtB5_9Formatter9write_fmtCsdARyWrlPtHl_2cc, symObjAddr: 0x1F7C, symBinAddr: 0x1000615E8, symSize: 0x180 }
  - { offset: 0xBE006, size: 0x8, addend: 0x0, symName: __RNvMsb_NtNtNtCse1nGBsou5OW_5alloc11collections5btree8navigateINtB5_13LazyLeafRangeNtNtNtB7_4node6marker5DyingNtNtNtCscOYdFFY2T5N_3std3ffi6os_str8OsStringINtNtCsfvfooZQ3Axs_4core6option6OptionB1J_EE10take_frontCsdARyWrlPtHl_2cc, symObjAddr: 0x20FC, symBinAddr: 0x100061768, symSize: 0x1C4 }
  - { offset: 0xBE39E, size: 0x8, addend: 0x0, symName: __RNvMsc_NtCse1nGBsou5OW_5alloc4syncINtB5_3ArcNtCs4Wq06SSluyi_9jobserver11HelperStateE3newCsdARyWrlPtHl_2cc, symObjAddr: 0x22C0, symBinAddr: 0x10006192C, symSize: 0xC8 }
  - { offset: 0xBE571, size: 0x8, addend: 0x0, symName: __RNvMsc_NtCse1nGBsou5OW_5alloc4syncINtB5_3ArcNtNtNtCsfvfooZQ3Axs_4core4sync6atomic10AtomicBoolE3newCsdARyWrlPtHl_2cc, symObjAddr: 0x2388, symBinAddr: 0x1000619F4, symSize: 0xB0 }
  - { offset: 0xBE81D, size: 0x8, addend: 0x0, symName: __RNvMsc_NtNtNtCse1nGBsou5OW_5alloc11collections5btree8navigateINtB5_13LazyLeafRangeNtNtNtB7_4node6marker5DyingNtNtNtCscOYdFFY2T5N_3std3ffi6os_str8OsStringINtNtCsfvfooZQ3Axs_4core6option6OptionB1J_EE10init_frontCsdARyWrlPtHl_2cc, symObjAddr: 0x2438, symBinAddr: 0x100061AA4, symSize: 0x1C4 }
  - { offset: 0xBEDDA, size: 0x8, addend: 0x0, symName: __RNvMsj_NtCse1nGBsou5OW_5alloc4syncINtB5_3ArcNtCsdARyWrlPtHl_2cc10BuildCacheE9drop_slowBI_, symObjAddr: 0x25FC, symBinAddr: 0x100061C68, symSize: 0x74 }
  - { offset: 0xBEEBE, size: 0x8, addend: 0x0, symName: __RNvMsj_NtCse1nGBsou5OW_5alloc4syncINtB5_3ArcNtNtCscOYdFFY2T5N_3std4path4PathE11from_raw_inCsdARyWrlPtHl_2cc, symObjAddr: 0x2670, symBinAddr: 0x100061CDC, symSize: 0x8C }
  - { offset: 0xBEFCA, size: 0x8, addend: 0x0, symName: __RNvMsj_NtCse1nGBsou5OW_5alloc4syncINtB5_3ArcNtNtCscOYdFFY2T5N_3std4path4PathE9drop_slowCsdARyWrlPtHl_2cc, symObjAddr: 0x26FC, symBinAddr: 0x100061D68, symSize: 0x54 }
  - { offset: 0xBF087, size: 0x8, addend: 0x0, symName: __RNvMsj_NtCse1nGBsou5OW_5alloc4syncINtB5_3ArcNtNtNtCscOYdFFY2T5N_3std3ffi6os_str5OsStrE11from_raw_inCsdARyWrlPtHl_2cc, symObjAddr: 0x2750, symBinAddr: 0x100061DBC, symSize: 0x8C }
  - { offset: 0xBF193, size: 0x8, addend: 0x0, symName: __RNvMsj_NtCse1nGBsou5OW_5alloc4syncINtB5_3ArcNtNtNtCscOYdFFY2T5N_3std3ffi6os_str5OsStrE9drop_slowCsdARyWrlPtHl_2cc, symObjAddr: 0x27DC, symBinAddr: 0x100061E48, symSize: 0x54 }
  - { offset: 0xBF1F3, size: 0x8, addend: 0x0, symName: __RNvMsj_NtCse1nGBsou5OW_5alloc4syncINtB5_3ArcNtNtNtCsfvfooZQ3Axs_4core4sync6atomic10AtomicBoolE9drop_slowCsdARyWrlPtHl_2cc, symObjAddr: 0x2830, symBinAddr: 0x100061E9C, symSize: 0x44 }
  - { offset: 0xBF2D7, size: 0x8, addend: 0x0, symName: __RNvMsj_NtCse1nGBsou5OW_5alloc4syncINtB5_3ArcNtNtNtNtCscOYdFFY2T5N_3std3sys6os_str5bytes5SliceE11from_raw_inCsdARyWrlPtHl_2cc, symObjAddr: 0x2874, symBinAddr: 0x100061EE0, symSize: 0x8C }
  - { offset: 0xBF440, size: 0x8, addend: 0x0, symName: __RNvMsj_NtCse1nGBsou5OW_5alloc4syncINtB5_3ArceE11from_raw_inCsdARyWrlPtHl_2cc, symObjAddr: 0x2900, symBinAddr: 0x100061F6C, symSize: 0x8C }
  - { offset: 0xBF54C, size: 0x8, addend: 0x0, symName: __RNvMsj_NtCse1nGBsou5OW_5alloc4syncINtB5_3ArceE9drop_slowCsdARyWrlPtHl_2cc, symObjAddr: 0x298C, symBinAddr: 0x100061FF8, symSize: 0x54 }
  - { offset: 0xBF59F, size: 0x8, addend: 0x0, symName: __RNvMsl_NtNtCscOYdFFY2T5N_3std3ffi6os_strNtB5_5OsStr15to_string_lossyCsdARyWrlPtHl_2cc, symObjAddr: 0x29E0, symBinAddr: 0x10006204C, symSize: 0x28 }
  - { offset: 0xBF5F6, size: 0x8, addend: 0x0, symName: __RNvMsl_NtNtCscOYdFFY2T5N_3std3ffi6os_strNtB5_5OsStr6to_strCsdARyWrlPtHl_2cc, symObjAddr: 0x2A08, symBinAddr: 0x100062074, symSize: 0x7C }
  - { offset: 0xBF64D, size: 0x8, addend: 0x0, symName: __RNvMsl_NtNtCscOYdFFY2T5N_3std3ffi6os_strNtB5_5OsStr8is_emptyCsdARyWrlPtHl_2cc, symObjAddr: 0x2A84, symBinAddr: 0x1000620F0, symSize: 0x1C }
  - { offset: 0xBF6EE, size: 0x8, addend: 0x0, symName: __RNvMsm_NtCse1nGBsou5OW_5alloc4syncINtB5_3ArcShE15copy_from_sliceCsdARyWrlPtHl_2cc, symObjAddr: 0x2AA0, symBinAddr: 0x10006210C, symSize: 0xC4 }
  - { offset: 0xBF83F, size: 0x8, addend: 0x0, symName: __RNvMsm_NtCse1nGBsou5OW_5alloc4syncINtB5_3ArcShE18allocate_for_sliceCsdARyWrlPtHl_2cc, symObjAddr: 0x2B64, symBinAddr: 0x1000621D0, symSize: 0xAC }
  - { offset: 0xC1631, size: 0x8, addend: 0x0, symName: __RINvMs1_NtCsloNvcHxBCre_9hashbrown3mapINtB6_7HashMapINtNtCse1nGBsou5OW_5alloc5boxed3BoxSIBP_NtNtNtCscOYdFFY2T5N_3std3ffi6os_str5OsStrEENtNtCsdARyWrlPtHl_2cc4tool10ToolFamilyNtNtNtB1y_4hash6random11RandomStateE9get_innerBO_EB2d_, symObjAddr: 0x0, symBinAddr: 0x100064C2C, symSize: 0xF8 }
  - { offset: 0xC16B1, size: 0x8, addend: 0x0, symName: __RNvXs5_NtNtCsfvfooZQ3Axs_4core3num5errorNtB5_15TryFromIntErrorNtNtB9_3fmt5Debug3fmtCsdARyWrlPtHl_2cc, symObjAddr: 0x3C64, symBinAddr: 0x100068614, symSize: 0x54 }
  - { offset: 0xC16F1, size: 0x8, addend: 0x0, symName: __RNvXsb_NtNtCsfvfooZQ3Axs_4core3num5errorNtB5_13ParseIntErrorNtNtB9_3fmt5Debug3fmtCsdARyWrlPtHl_2cc, symObjAddr: 0x4308, symBinAddr: 0x100068CB8, symSize: 0x64 }
  - { offset: 0xC1731, size: 0x8, addend: 0x0, symName: __RNvXsg_NtNtCsfvfooZQ3Axs_4core3num5errorNtB5_12IntErrorKindNtNtB9_3fmt5Debug3fmtCsdARyWrlPtHl_2cc, symObjAddr: 0x45EC, symBinAddr: 0x100068F9C, symSize: 0xF4 }
  - { offset: 0xC44B1, size: 0x8, addend: 0x0, symName: __RNvXs1a_NtCsfvfooZQ3Axs_4core3fmtRNtNtNtB8_3num5error12IntErrorKindNtB6_5Debug3fmtCsdARyWrlPtHl_2cc, symObjAddr: 0x3250, symBinAddr: 0x100067C00, symSize: 0x30 }
  - { offset: 0xC5434, size: 0x8, addend: 0x0, symName: __RINvXs0_NtNtCsfvfooZQ3Axs_4core4hash5implseNtB8_4Hash4hashNtNtNtCscOYdFFY2T5N_3std4hash6random13DefaultHasherECsdARyWrlPtHl_2cc, symObjAddr: 0x960, symBinAddr: 0x10006558C, symSize: 0x48 }
  - { offset: 0xC547C, size: 0x8, addend: 0x0, symName: __RINvXs3_NtNtCsfvfooZQ3Axs_4core4hash5implsReNtB8_4Hash4hashNtNtNtCscOYdFFY2T5N_3std4hash6random13DefaultHasherECsdARyWrlPtHl_2cc, symObjAddr: 0x9A8, symBinAddr: 0x1000655D4, symSize: 0x3C }
  - { offset: 0xC54CE, size: 0x8, addend: 0x0, symName: __RINvYNtNtNtCscOYdFFY2T5N_3std4hash6random11RandomStateNtNtCsfvfooZQ3Axs_4core4hash11BuildHasher8hash_oneRINtNtCse1nGBsou5OW_5alloc5boxed3BoxSIB1G_NtNtNtB9_3ffi6os_str5OsStrEEECsdARyWrlPtHl_2cc, symObjAddr: 0xF7C, symBinAddr: 0x100065BA8, symSize: 0x84 }
  - { offset: 0xC5533, size: 0x8, addend: 0x0, symName: __RINvYNtNtNtCscOYdFFY2T5N_3std4hash6random11RandomStateNtNtCsfvfooZQ3Axs_4core4hash11BuildHasher8hash_oneRINtNtCse1nGBsou5OW_5alloc5boxed3BoxeEECsdARyWrlPtHl_2cc, symObjAddr: 0x1000, symBinAddr: 0x100065C2C, symSize: 0x84 }
  - { offset: 0xC5598, size: 0x8, addend: 0x0, symName: __RINvYNtNtNtCscOYdFFY2T5N_3std4hash6random11RandomStateNtNtCsfvfooZQ3Axs_4core4hash11BuildHasher8hash_oneRNtCsdARyWrlPtHl_2cc12CompilerFlagEB1H_, symObjAddr: 0x1084, symBinAddr: 0x100065CB0, symSize: 0x84 }
  - { offset: 0xC55FD, size: 0x8, addend: 0x0, symName: __RINvYNtNtNtCscOYdFFY2T5N_3std4hash6random11RandomStateNtNtCsfvfooZQ3Axs_4core4hash11BuildHasher8hash_oneReECsdARyWrlPtHl_2cc, symObjAddr: 0x1108, symBinAddr: 0x100065D34, symSize: 0x88 }
  - { offset: 0xC57CF, size: 0x8, addend: 0x0, symName: __RNvYNtNtNtCscOYdFFY2T5N_3std4hash6random13DefaultHasherNtNtCsfvfooZQ3Axs_4core4hash6Hasher11write_usizeCsdARyWrlPtHl_2cc, symObjAddr: 0x4FE4, symBinAddr: 0x100069994, symSize: 0x3C }
  - { offset: 0xC582F, size: 0x8, addend: 0x0, symName: __RNvYNtNtNtCscOYdFFY2T5N_3std4hash6random13DefaultHasherNtNtCsfvfooZQ3Axs_4core4hash6Hasher19write_length_prefixCsdARyWrlPtHl_2cc, symObjAddr: 0x5020, symBinAddr: 0x1000699D0, symSize: 0x28 }
  - { offset: 0xC5887, size: 0x8, addend: 0x0, symName: __RINvXs_NtNtNtCsfvfooZQ3Axs_4core4iter8adapters3revINtB5_3RevNtNtCscOYdFFY2T5N_3std4path10ComponentsENtNtNtB9_6traits8iterator8Iterator8try_folduNCINvNvB1A_12try_for_each4callNtBY_9ComponentINtNtNtBb_3ops12control_flow11ControlFlowIB32_uNtNtBb_3cmp8OrderingEENCINvNvB1C_12iter_compare7compareBM_B2M_uNCINvNvB1A_5eq_by7compareB2M_B2M_NCINvYBM_B1A_2eqBM_E0E0E0E0B31_ECsdARyWrlPtHl_2cc, symObjAddr: 0x9E4, symBinAddr: 0x100065610, symSize: 0x2C }
  - { offset: 0xC58F3, size: 0x8, addend: 0x0, symName: __RNvXs_NtNtNtCsfvfooZQ3Axs_4core4iter8adapters3revINtB4_3RevINtNtNtBa_5slice4iter4IterNtNtCse1nGBsou5OW_5alloc6string6StringEENtNtNtB8_6traits8iterator8Iterator4nextCsdARyWrlPtHl_2cc, symObjAddr: 0x3DD0, symBinAddr: 0x100068780, symSize: 0x24 }
  - { offset: 0xC5928, size: 0x8, addend: 0x0, symName: __RNvXs_NtNtNtCsfvfooZQ3Axs_4core4iter8adapters3revINtB4_3RevNtNtCscOYdFFY2T5N_3std4path10ComponentsENtNtNtB8_6traits8iterator8Iterator4nextCsdARyWrlPtHl_2cc, symObjAddr: 0x3DF4, symBinAddr: 0x1000687A4, symSize: 0x24 }
  - { offset: 0xC59A5, size: 0x8, addend: 0x0, symName: __RINvXs_NtNtNtCsfvfooZQ3Axs_4core4iter8adapters5chainINtB5_5ChainINtNtB7_3map3MapINtNtNtBb_5slice4iter4IterNtCsdARyWrlPtHl_2cc6ObjectENCNvMs4_B1I_NtB1I_5Build8assemble0EIB11_IB1h_INtNtCse1nGBsou5OW_5alloc4sync3ArcNtNtCscOYdFFY2T5N_3std4path4PathEENvYB2Q_NtNtNtBb_3ops5deref5Deref5derefEENtNtNtB9_6traits8iterator8Iterator4folduNCINvNvB4A_8for_each4callRB3o_NCINvMsi_NtB2V_3vecINtB5R_3VecB5D_E14extend_trustedBO_E0E0EB1I_, symObjAddr: 0xA10, symBinAddr: 0x10006563C, symSize: 0x1D8 }
  - { offset: 0xC5A41, size: 0x8, addend: 0x0, symName: __RINvXs_NtNtNtCsfvfooZQ3Axs_4core4iter8adapters5chainINtB5_5ChainINtNtB7_6cloned6ClonedINtNtNtBb_5slice4iter4IterRNtNtNtCscOYdFFY2T5N_3std3ffi6os_str5OsStrEEINtNtB7_3map3MapIB1n_NtNtCse1nGBsou5OW_5alloc6string6StringEINvMsl_B1P_B1N_3newB2P_EEENtNtNtB9_6traits8iterator8Iterator4folduNCINvB2x_8map_foldB1M_INtNtB2T_5boxed3BoxB1N_EuNvYB1M_INtNtBb_7convert4IntoB4S_E4intoNCINvNvB3S_8for_each4callB4S_NCINvMsi_NtB2T_3vecINtB6v_3VecB4S_E14extend_trustedIB2v_BO_B5h_EE0E0E0ECsdARyWrlPtHl_2cc, symObjAddr: 0xBE8, symBinAddr: 0x100065814, symSize: 0x1D8 }
  - { offset: 0xC5ADD, size: 0x8, addend: 0x0, symName: __RNvXs_NtNtNtCsfvfooZQ3Axs_4core4iter8adapters5chainINtB4_5ChainINtNtB6_3map3MapINtNtNtBa_5slice4iter4IterNtCsdARyWrlPtHl_2cc6ObjectENCNvMs4_B1H_NtB1H_5Build8assemble0EIB10_IB1g_INtNtCse1nGBsou5OW_5alloc4sync3ArcNtNtCscOYdFFY2T5N_3std4path4PathEENvYB2P_NtNtNtBa_3ops5deref5Deref5derefEENtNtNtB8_6traits8iterator8Iterator9size_hintB1H_, symObjAddr: 0x3E18, symBinAddr: 0x1000687C8, symSize: 0x220 }
  - { offset: 0xC5CB1, size: 0x8, addend: 0x0, symName: __RNvXs_NtNtNtCsfvfooZQ3Axs_4core4iter8adapters5chainINtB4_5ChainINtNtB6_6cloned6ClonedINtNtNtBa_5slice4iter4IterRNtNtNtCscOYdFFY2T5N_3std3ffi6os_str5OsStrEEINtNtB6_3map3MapIB1m_NtNtCse1nGBsou5OW_5alloc6string6StringEINvMsl_B1O_B1M_3newB2O_EEENtNtNtB8_6traits8iterator8Iterator9size_hintCsdARyWrlPtHl_2cc, symObjAddr: 0x4038, symBinAddr: 0x1000689E8, symSize: 0x220 }
  - { offset: 0xC6043, size: 0x8, addend: 0x0, symName: __RINvYINtNtNtNtCsfvfooZQ3Axs_4core4iter8adapters3rev3RevNtNtCscOYdFFY2T5N_3std4path10ComponentsENtNtNtBa_6traits8iterator8Iterator12try_for_eachNCINvNvB1x_12iter_compare7compareB3_NtBT_9ComponentuNCINvNvB1v_5eq_by7compareB2R_B2R_NCINvYB3_B1v_2eqB3_E0E0E0INtNtNtBc_3ops12control_flow11ControlFlowIB44_uNtNtBc_3cmp8OrderingEEECsdARyWrlPtHl_2cc, symObjAddr: 0xDC0, symBinAddr: 0x1000659EC, symSize: 0x2C }
  - { offset: 0xC609B, size: 0x8, addend: 0x0, symName: __RINvYINtNtNtNtCsfvfooZQ3Axs_4core4iter8adapters3rev3RevNtNtCscOYdFFY2T5N_3std4path10ComponentsENtNtNtBa_6traits8iterator8Iterator5eq_byB3_NCINvYB3_B1v_2eqB3_E0ECsdARyWrlPtHl_2cc, symObjAddr: 0xDEC, symBinAddr: 0x100065A18, symSize: 0x124 }
  - { offset: 0xC6148, size: 0x8, addend: 0x0, symName: __RINvYINtNtNtNtCsfvfooZQ3Axs_4core4iter8adapters5chain5ChainINtNtB8_3map3MapINtNtNtBc_5slice4iter4IterNtCsdARyWrlPtHl_2cc6ObjectENCNvMs4_B1D_NtB1D_5Build8assemble0EIBW_IB1c_INtNtCse1nGBsou5OW_5alloc4sync3ArcNtNtCscOYdFFY2T5N_3std4path4PathEENvYB2K_NtNtNtBc_3ops5deref5Deref5derefEENtNtNtBa_6traits8iterator8Iterator7collectINtNtB2P_3vec3VecRB3i_EEB1D_, symObjAddr: 0xF10, symBinAddr: 0x100065B3C, symSize: 0x1C }
  - { offset: 0xC61EB, size: 0x8, addend: 0x0, symName: __RINvYINtNtNtNtCsfvfooZQ3Axs_4core4iter8adapters5chain5ChainINtNtB8_3map3MapINtNtNtBc_5slice4iter4IterNtCsdARyWrlPtHl_2cc6ObjectENCNvMs4_B1D_NtB1D_5Build8assemble0EIBW_IB1c_INtNtCse1nGBsou5OW_5alloc4sync3ArcNtNtCscOYdFFY2T5N_3std4path4PathEENvYB2K_NtNtNtBc_3ops5deref5Deref5derefEENtNtNtBa_6traits8iterator8Iterator8for_eachNCINvMsi_NtB2P_3vecINtB5k_3VecRB3i_E14extend_trustedB3_E0EB1D_, symObjAddr: 0xF2C, symBinAddr: 0x100065B58, symSize: 0x34 }
  - { offset: 0xC6257, size: 0x8, addend: 0x0, symName: __RINvYINtNtNtNtCsfvfooZQ3Axs_4core4iter8adapters5chain5ChainINtNtB8_6cloned6ClonedINtNtNtBc_5slice4iter4IterRNtNtNtCscOYdFFY2T5N_3std3ffi6os_str5OsStrEEINtNtB8_3map3MapIB1i_NtNtCse1nGBsou5OW_5alloc6string6StringEINvMsl_B1K_B1I_3newB2K_EEENtNtNtBa_6traits8iterator8Iterator3mapINtNtB2O_5boxed3BoxB1I_ENvYB1H_INtNtBc_7convert4IntoB4p_E4intoECsdARyWrlPtHl_2cc, symObjAddr: 0xF60, symBinAddr: 0x100065B8C, symSize: 0x1C }
  - { offset: 0xC6345, size: 0x8, addend: 0x0, symName: __RNvXNtNtNtCsfvfooZQ3Axs_4core4iter6traits7collectINtNtNtB6_8adapters3rev3RevINtNtNtB8_5slice4iter4IterNtNtCse1nGBsou5OW_5alloc6string6StringEENtB2_12IntoIterator9into_iterCsdARyWrlPtHl_2cc, symObjAddr: 0x31F0, symBinAddr: 0x100067BA0, symSize: 0x1C }
  - { offset: 0xC637C, size: 0x8, addend: 0x0, symName: __RNvXNtNtNtCsfvfooZQ3Axs_4core4iter6traits7collectINtNtNtB6_8adapters3rev3RevNtNtCscOYdFFY2T5N_3std4path10ComponentsENtB2_12IntoIterator9into_iterCsdARyWrlPtHl_2cc, symObjAddr: 0x320C, symBinAddr: 0x100067BBC, symSize: 0x30 }
  - { offset: 0xC63B4, size: 0x8, addend: 0x0, symName: __RNvXNtNtNtCsfvfooZQ3Axs_4core4iter6traits7collectINtNtNtB6_8adapters5chain5ChainINtNtBQ_3map3MapINtNtNtB8_5slice4iter4IterNtCsdARyWrlPtHl_2cc6ObjectENCNvMs4_B1Y_NtB1Y_5Build8assemble0EIB1h_IB1x_INtNtCse1nGBsou5OW_5alloc4sync3ArcNtNtCscOYdFFY2T5N_3std4path4PathEENvYB36_NtNtNtB8_3ops5deref5Deref5derefEENtB2_12IntoIterator9into_iterB1Y_, symObjAddr: 0x323C, symBinAddr: 0x100067BEC, symSize: 0x14 }
  - { offset: 0xC695C, size: 0x8, addend: 0x0, symName: __RNvXsb_NtCsfvfooZQ3Axs_4core5arrayRARej2_NtNtNtNtB7_4iter6traits7collect12IntoIterator9into_iterCsdARyWrlPtHl_2cc, symObjAddr: 0x4258, symBinAddr: 0x100068C08, symSize: 0x58 }
  - { offset: 0xC6AA4, size: 0x8, addend: 0x0, symName: __RNvXsb_NtCsfvfooZQ3Axs_4core5arrayRARej5_NtNtNtNtB7_4iter6traits7collect12IntoIterator9into_iterCsdARyWrlPtHl_2cc, symObjAddr: 0x42B0, symBinAddr: 0x100068C60, symSize: 0x58 }
  - { offset: 0xC6C35, size: 0x8, addend: 0x0, symName: __RNvYINtNtNtNtCscOYdFFY2T5N_3std2io8buffered9bufwriter9BufWriterNtNtB9_5stdio6StdoutENtB9_5Write18write_all_vectoredCsdARyWrlPtHl_2cc, symObjAddr: 0x4D5C, symBinAddr: 0x10006970C, symSize: 0x160 }
  - { offset: 0xC6CB0, size: 0x8, addend: 0x0, symName: __RNvYINtNtNtNtCscOYdFFY2T5N_3std2io8buffered9bufwriter9BufWriterNtNtB9_5stdio6StdoutENtB9_5Write9write_fmtCsdARyWrlPtHl_2cc, symObjAddr: 0x4EBC, symBinAddr: 0x10006986C, symSize: 0x128 }
  - { offset: 0xC6EE6, size: 0x8, addend: 0x0, symName: __RNCNvXs4_NtNtNtCscOYdFFY2T5N_3std2io8buffered9bufwriterINtB7_9BufWriterNtNtBb_5stdio6StdoutENtBb_5Write14write_vectored0CsdARyWrlPtHl_2cc, symObjAddr: 0x16E4, symBinAddr: 0x100066310, symSize: 0x80 }
  - { offset: 0xC6F8C, size: 0x8, addend: 0x0, symName: __RNCNvXs4_NtNtNtCscOYdFFY2T5N_3std2io8buffered9bufwriterINtB7_9BufWriterNtNtBb_5stdio6StdoutENtBb_5Write14write_vectoreds_0CsdARyWrlPtHl_2cc, symObjAddr: 0x1764, symBinAddr: 0x100066390, symSize: 0x88 }
  - { offset: 0xC70B2, size: 0x8, addend: 0x0, symName: __RNvXs4_NtNtNtCscOYdFFY2T5N_3std2io8buffered9bufwriterINtB5_9BufWriterNtNtB9_5stdio6StdoutENtB9_5Write14write_vectoredCsdARyWrlPtHl_2cc, symObjAddr: 0x3338, symBinAddr: 0x100067CE8, symSize: 0x7A0 }
  - { offset: 0xC7D0D, size: 0x8, addend: 0x0, symName: __RNvXs4_NtNtNtCscOYdFFY2T5N_3std2io8buffered9bufwriterINtB5_9BufWriterNtNtB9_5stdio6StdoutENtB9_5Write17is_write_vectoredCsdARyWrlPtHl_2cc, symObjAddr: 0x3AD8, symBinAddr: 0x100068488, symSize: 0x18 }
  - { offset: 0xC7D85, size: 0x8, addend: 0x0, symName: __RNvXs4_NtNtNtCscOYdFFY2T5N_3std2io8buffered9bufwriterINtB5_9BufWriterNtNtB9_5stdio6StdoutENtB9_5Write5flushCsdARyWrlPtHl_2cc, symObjAddr: 0x3AF0, symBinAddr: 0x1000684A0, symSize: 0x64 }
  - { offset: 0xC7E4B, size: 0x8, addend: 0x0, symName: __RNvXs4_NtNtNtCscOYdFFY2T5N_3std2io8buffered9bufwriterINtB5_9BufWriterNtNtB9_5stdio6StdoutENtB9_5Write5writeCsdARyWrlPtHl_2cc, symObjAddr: 0x3B54, symBinAddr: 0x100068504, symSize: 0x90 }
  - { offset: 0xC7F05, size: 0x8, addend: 0x0, symName: __RNvXs4_NtNtNtCscOYdFFY2T5N_3std2io8buffered9bufwriterINtB5_9BufWriterNtNtB9_5stdio6StdoutENtB9_5Write9write_allCsdARyWrlPtHl_2cc, symObjAddr: 0x3BE4, symBinAddr: 0x100068594, symSize: 0x80 }
  - { offset: 0xC8032, size: 0x8, addend: 0x0, symName: __RNvXs7_NtNtNtCscOYdFFY2T5N_3std2io8buffered9bufwriterINtB5_9BufWriterNtNtB9_5stdio6StdoutENtNtNtCsfvfooZQ3Axs_4core3ops4drop4Drop4dropCsdARyWrlPtHl_2cc, symObjAddr: 0x3CB8, symBinAddr: 0x100068668, symSize: 0x4C }
  - { offset: 0xC8425, size: 0x8, addend: 0x0, symName: __RNCNvMsd_NtNtNtCscOYdFFY2T5N_3std4sync6poison6rwlockINtB7_15RwLockReadGuardINtNtNtNtBd_11collections4hash3map7HashMapINtNtCse1nGBsou5OW_5alloc5boxed3BoxSIB1S_NtNtNtBd_3ffi6os_str5OsStrEENtNtCsdARyWrlPtHl_2cc4tool10ToolFamilyEE3new0B32_, symObjAddr: 0x14C8, symBinAddr: 0x1000660F4, symSize: 0x54 }
  - { offset: 0xC8495, size: 0x8, addend: 0x0, symName: __RNCNvMsd_NtNtNtCscOYdFFY2T5N_3std4sync6poison6rwlockINtB7_15RwLockReadGuardINtNtNtNtBd_11collections4hash3map7HashMapINtNtCse1nGBsou5OW_5alloc5boxed3BoxeEINtNtB1W_4sync3ArcNtNtNtBd_3ffi6os_str5OsStrEEE3new0CsdARyWrlPtHl_2cc, symObjAddr: 0x151C, symBinAddr: 0x100066148, symSize: 0x54 }
  - { offset: 0xC8505, size: 0x8, addend: 0x0, symName: __RNCNvMsd_NtNtNtCscOYdFFY2T5N_3std4sync6poison6rwlockINtB7_15RwLockReadGuardINtNtNtNtBd_11collections4hash3map7HashMapINtNtCse1nGBsou5OW_5alloc5boxed3BoxeEINtNtB1W_4sync3ArceEEE3new0CsdARyWrlPtHl_2cc, symObjAddr: 0x1570, symBinAddr: 0x10006619C, symSize: 0x54 }
  - { offset: 0xC8575, size: 0x8, addend: 0x0, symName: __RNCNvMsd_NtNtNtCscOYdFFY2T5N_3std4sync6poison6rwlockINtB7_15RwLockReadGuardINtNtNtNtBd_11collections4hash3map7HashMapINtNtCse1nGBsou5OW_5alloc5boxed3BoxeEINtNtCsfvfooZQ3Axs_4core6option6OptionINtNtB1W_4sync3ArcNtNtNtBd_3ffi6os_str5OsStrEEEE3new0CsdARyWrlPtHl_2cc, symObjAddr: 0x15C4, symBinAddr: 0x1000661F0, symSize: 0x54 }
  - { offset: 0xC85E5, size: 0x8, addend: 0x0, symName: __RNCNvMsd_NtNtNtCscOYdFFY2T5N_3std4sync6poison6rwlockINtB7_15RwLockReadGuardINtNtNtNtBd_11collections4hash3map7HashMapNtCsdARyWrlPtHl_2cc12CompilerFlagbEE3new0B1T_, symObjAddr: 0x1618, symBinAddr: 0x100066244, symSize: 0x54 }
  - { offset: 0xC8661, size: 0x8, addend: 0x0, symName: __RNCNvMse_NtNtNtCscOYdFFY2T5N_3std4sync6poison6rwlockINtB7_16RwLockWriteGuardINtNtNtNtBd_11collections4hash3map7HashMapINtNtCse1nGBsou5OW_5alloc5boxed3BoxSIB1T_NtNtNtBd_3ffi6os_str5OsStrEENtNtCsdARyWrlPtHl_2cc4tool10ToolFamilyEE3new0B33_, symObjAddr: 0x166C, symBinAddr: 0x100066298, symSize: 0x18 }
  - { offset: 0xC86A9, size: 0x8, addend: 0x0, symName: __RNCNvMse_NtNtNtCscOYdFFY2T5N_3std4sync6poison6rwlockINtB7_16RwLockWriteGuardINtNtNtNtBd_11collections4hash3map7HashMapINtNtCse1nGBsou5OW_5alloc5boxed3BoxeEINtNtB1X_4sync3ArcNtNtNtBd_3ffi6os_str5OsStrEEE3new0CsdARyWrlPtHl_2cc, symObjAddr: 0x1684, symBinAddr: 0x1000662B0, symSize: 0x18 }
  - { offset: 0xC86F1, size: 0x8, addend: 0x0, symName: __RNCNvMse_NtNtNtCscOYdFFY2T5N_3std4sync6poison6rwlockINtB7_16RwLockWriteGuardINtNtNtNtBd_11collections4hash3map7HashMapINtNtCse1nGBsou5OW_5alloc5boxed3BoxeEINtNtB1X_4sync3ArceEEE3new0CsdARyWrlPtHl_2cc, symObjAddr: 0x169C, symBinAddr: 0x1000662C8, symSize: 0x18 }
  - { offset: 0xC8739, size: 0x8, addend: 0x0, symName: __RNCNvMse_NtNtNtCscOYdFFY2T5N_3std4sync6poison6rwlockINtB7_16RwLockWriteGuardINtNtNtNtBd_11collections4hash3map7HashMapINtNtCse1nGBsou5OW_5alloc5boxed3BoxeEINtNtCsfvfooZQ3Axs_4core6option6OptionINtNtB1X_4sync3ArcNtNtNtBd_3ffi6os_str5OsStrEEEE3new0CsdARyWrlPtHl_2cc, symObjAddr: 0x16B4, symBinAddr: 0x1000662E0, symSize: 0x18 }
  - { offset: 0xC8781, size: 0x8, addend: 0x0, symName: __RNCNvMse_NtNtNtCscOYdFFY2T5N_3std4sync6poison6rwlockINtB7_16RwLockWriteGuardINtNtNtNtBd_11collections4hash3map7HashMapNtCsdARyWrlPtHl_2cc12CompilerFlagbEE3new0B1U_, symObjAddr: 0x16CC, symBinAddr: 0x1000662F8, symSize: 0x18 }
  - { offset: 0xC8D84, size: 0x8, addend: 0x0, symName: __RNvXsb_NtNtNtCscOYdFFY2T5N_3std4sync6poison6rwlockINtB5_6RwLockINtNtNtNtBb_11collections4hash3map7HashMapINtNtCse1nGBsou5OW_5alloc5boxed3BoxSIB1G_NtNtNtBb_3ffi6os_str5OsStrEENtNtCsdARyWrlPtHl_2cc4tool10ToolFamilyEENtNtCsfvfooZQ3Axs_4core7default7Default7defaultB2Q_, symObjAddr: 0x436C, symBinAddr: 0x100068D1C, symSize: 0x80 }
  - { offset: 0xC8E31, size: 0x8, addend: 0x0, symName: __RNvXsb_NtNtNtCscOYdFFY2T5N_3std4sync6poison6rwlockINtB5_6RwLockINtNtNtNtBb_11collections4hash3map7HashMapINtNtCse1nGBsou5OW_5alloc5boxed3BoxeEINtNtB1K_4sync3ArcNtNtNtBb_3ffi6os_str5OsStrEEENtNtCsfvfooZQ3Axs_4core7default7Default7defaultCsdARyWrlPtHl_2cc, symObjAddr: 0x43EC, symBinAddr: 0x100068D9C, symSize: 0x80 }
  - { offset: 0xC8EDE, size: 0x8, addend: 0x0, symName: __RNvXsb_NtNtNtCscOYdFFY2T5N_3std4sync6poison6rwlockINtB5_6RwLockINtNtNtNtBb_11collections4hash3map7HashMapINtNtCse1nGBsou5OW_5alloc5boxed3BoxeEINtNtB1K_4sync3ArceEEENtNtCsfvfooZQ3Axs_4core7default7Default7defaultCsdARyWrlPtHl_2cc, symObjAddr: 0x446C, symBinAddr: 0x100068E1C, symSize: 0x80 }
  - { offset: 0xC8F8B, size: 0x8, addend: 0x0, symName: __RNvXsb_NtNtNtCscOYdFFY2T5N_3std4sync6poison6rwlockINtB5_6RwLockINtNtNtNtBb_11collections4hash3map7HashMapINtNtCse1nGBsou5OW_5alloc5boxed3BoxeEINtNtCsfvfooZQ3Axs_4core6option6OptionINtNtB1K_4sync3ArcNtNtNtBb_3ffi6os_str5OsStrEEEENtNtB2l_7default7Default7defaultCsdARyWrlPtHl_2cc, symObjAddr: 0x44EC, symBinAddr: 0x100068E9C, symSize: 0x80 }
  - { offset: 0xC9038, size: 0x8, addend: 0x0, symName: __RNvXsb_NtNtNtCscOYdFFY2T5N_3std4sync6poison6rwlockINtB5_6RwLockINtNtNtNtBb_11collections4hash3map7HashMapNtCsdARyWrlPtHl_2cc12CompilerFlagbEENtNtCsfvfooZQ3Axs_4core7default7Default7defaultB1H_, symObjAddr: 0x456C, symBinAddr: 0x100068F1C, symSize: 0x80 }
  - { offset: 0xC90EB, size: 0x8, addend: 0x0, symName: __RNvXsn_NtNtNtCscOYdFFY2T5N_3std4sync6poison6rwlockINtB5_15RwLockReadGuardINtNtNtNtBb_11collections4hash3map7HashMapINtNtCse1nGBsou5OW_5alloc5boxed3BoxSIB1Q_NtNtNtBb_3ffi6os_str5OsStrEENtNtCsdARyWrlPtHl_2cc4tool10ToolFamilyEENtNtNtCsfvfooZQ3Axs_4core3ops5deref5Deref5derefB30_, symObjAddr: 0x46E0, symBinAddr: 0x100069090, symSize: 0x18 }
  - { offset: 0xC9137, size: 0x8, addend: 0x0, symName: __RNvXsn_NtNtNtCscOYdFFY2T5N_3std4sync6poison6rwlockINtB5_15RwLockReadGuardINtNtNtNtBb_11collections4hash3map7HashMapINtNtCse1nGBsou5OW_5alloc5boxed3BoxeEINtNtB1U_4sync3ArcNtNtNtBb_3ffi6os_str5OsStrEEENtNtNtCsfvfooZQ3Axs_4core3ops5deref5Deref5derefCsdARyWrlPtHl_2cc, symObjAddr: 0x46F8, symBinAddr: 0x1000690A8, symSize: 0x18 }
  - { offset: 0xC9183, size: 0x8, addend: 0x0, symName: __RNvXsn_NtNtNtCscOYdFFY2T5N_3std4sync6poison6rwlockINtB5_15RwLockReadGuardINtNtNtNtBb_11collections4hash3map7HashMapINtNtCse1nGBsou5OW_5alloc5boxed3BoxeEINtNtB1U_4sync3ArceEEENtNtNtCsfvfooZQ3Axs_4core3ops5deref5Deref5derefCsdARyWrlPtHl_2cc, symObjAddr: 0x4710, symBinAddr: 0x1000690C0, symSize: 0x18 }
  - { offset: 0xC91CF, size: 0x8, addend: 0x0, symName: __RNvXsn_NtNtNtCscOYdFFY2T5N_3std4sync6poison6rwlockINtB5_15RwLockReadGuardINtNtNtNtBb_11collections4hash3map7HashMapINtNtCse1nGBsou5OW_5alloc5boxed3BoxeEINtNtCsfvfooZQ3Axs_4core6option6OptionINtNtB1U_4sync3ArcNtNtNtBb_3ffi6os_str5OsStrEEEENtNtNtB2v_3ops5deref5Deref5derefCsdARyWrlPtHl_2cc, symObjAddr: 0x4728, symBinAddr: 0x1000690D8, symSize: 0x18 }
  - { offset: 0xC921B, size: 0x8, addend: 0x0, symName: __RNvXsn_NtNtNtCscOYdFFY2T5N_3std4sync6poison6rwlockINtB5_15RwLockReadGuardINtNtNtNtBb_11collections4hash3map7HashMapNtCsdARyWrlPtHl_2cc12CompilerFlagbEENtNtNtCsfvfooZQ3Axs_4core3ops5deref5Deref5derefB1R_, symObjAddr: 0x4740, symBinAddr: 0x1000690F0, symSize: 0x18 }
  - { offset: 0xC926D, size: 0x8, addend: 0x0, symName: __RNvXsp_NtNtNtCscOYdFFY2T5N_3std4sync6poison6rwlockINtB5_16RwLockWriteGuardINtNtNtNtBb_11collections4hash3map7HashMapINtNtCse1nGBsou5OW_5alloc5boxed3BoxSIB1R_NtNtNtBb_3ffi6os_str5OsStrEENtNtCsdARyWrlPtHl_2cc4tool10ToolFamilyEENtNtNtCsfvfooZQ3Axs_4core3ops5deref8DerefMut9deref_mutB31_, symObjAddr: 0x4758, symBinAddr: 0x100069108, symSize: 0x1C }
  - { offset: 0xC92B9, size: 0x8, addend: 0x0, symName: __RNvXsp_NtNtNtCscOYdFFY2T5N_3std4sync6poison6rwlockINtB5_16RwLockWriteGuardINtNtNtNtBb_11collections4hash3map7HashMapINtNtCse1nGBsou5OW_5alloc5boxed3BoxeEINtNtB1V_4sync3ArcNtNtNtBb_3ffi6os_str5OsStrEEENtNtNtCsfvfooZQ3Axs_4core3ops5deref8DerefMut9deref_mutCsdARyWrlPtHl_2cc, symObjAddr: 0x4774, symBinAddr: 0x100069124, symSize: 0x1C }
  - { offset: 0xC9305, size: 0x8, addend: 0x0, symName: __RNvXsp_NtNtNtCscOYdFFY2T5N_3std4sync6poison6rwlockINtB5_16RwLockWriteGuardINtNtNtNtBb_11collections4hash3map7HashMapINtNtCse1nGBsou5OW_5alloc5boxed3BoxeEINtNtB1V_4sync3ArceEEENtNtNtCsfvfooZQ3Axs_4core3ops5deref8DerefMut9deref_mutCsdARyWrlPtHl_2cc, symObjAddr: 0x4790, symBinAddr: 0x100069140, symSize: 0x1C }
  - { offset: 0xC9351, size: 0x8, addend: 0x0, symName: __RNvXsp_NtNtNtCscOYdFFY2T5N_3std4sync6poison6rwlockINtB5_16RwLockWriteGuardINtNtNtNtBb_11collections4hash3map7HashMapINtNtCse1nGBsou5OW_5alloc5boxed3BoxeEINtNtCsfvfooZQ3Axs_4core6option6OptionINtNtB1V_4sync3ArcNtNtNtBb_3ffi6os_str5OsStrEEEENtNtNtB2w_3ops5deref8DerefMut9deref_mutCsdARyWrlPtHl_2cc, symObjAddr: 0x47AC, symBinAddr: 0x10006915C, symSize: 0x1C }
  - { offset: 0xC939D, size: 0x8, addend: 0x0, symName: __RNvXsp_NtNtNtCscOYdFFY2T5N_3std4sync6poison6rwlockINtB5_16RwLockWriteGuardINtNtNtNtBb_11collections4hash3map7HashMapNtCsdARyWrlPtHl_2cc12CompilerFlagbEENtNtNtCsfvfooZQ3Axs_4core3ops5deref8DerefMut9deref_mutB1S_, symObjAddr: 0x47C8, symBinAddr: 0x100069178, symSize: 0x1C }
  - { offset: 0xC93EF, size: 0x8, addend: 0x0, symName: __RNvXst_NtNtNtCscOYdFFY2T5N_3std4sync6poison6rwlockINtB5_15RwLockReadGuardINtNtNtNtBb_11collections4hash3map7HashMapINtNtCse1nGBsou5OW_5alloc5boxed3BoxSIB1Q_NtNtNtBb_3ffi6os_str5OsStrEENtNtCsdARyWrlPtHl_2cc4tool10ToolFamilyEENtNtNtCsfvfooZQ3Axs_4core3ops4drop4Drop4dropB30_, symObjAddr: 0x47E4, symBinAddr: 0x100069194, symSize: 0x60 }
  - { offset: 0xC944E, size: 0x8, addend: 0x0, symName: __RNvXst_NtNtNtCscOYdFFY2T5N_3std4sync6poison6rwlockINtB5_15RwLockReadGuardINtNtNtNtBb_11collections4hash3map7HashMapINtNtCse1nGBsou5OW_5alloc5boxed3BoxeEINtNtB1U_4sync3ArcNtNtNtBb_3ffi6os_str5OsStrEEENtNtNtCsfvfooZQ3Axs_4core3ops4drop4Drop4dropCsdARyWrlPtHl_2cc, symObjAddr: 0x4844, symBinAddr: 0x1000691F4, symSize: 0x60 }
  - { offset: 0xC94AD, size: 0x8, addend: 0x0, symName: __RNvXst_NtNtNtCscOYdFFY2T5N_3std4sync6poison6rwlockINtB5_15RwLockReadGuardINtNtNtNtBb_11collections4hash3map7HashMapINtNtCse1nGBsou5OW_5alloc5boxed3BoxeEINtNtB1U_4sync3ArceEEENtNtNtCsfvfooZQ3Axs_4core3ops4drop4Drop4dropCsdARyWrlPtHl_2cc, symObjAddr: 0x48A4, symBinAddr: 0x100069254, symSize: 0x60 }
  - { offset: 0xC950C, size: 0x8, addend: 0x0, symName: __RNvXst_NtNtNtCscOYdFFY2T5N_3std4sync6poison6rwlockINtB5_15RwLockReadGuardINtNtNtNtBb_11collections4hash3map7HashMapINtNtCse1nGBsou5OW_5alloc5boxed3BoxeEINtNtCsfvfooZQ3Axs_4core6option6OptionINtNtB1U_4sync3ArcNtNtNtBb_3ffi6os_str5OsStrEEEENtNtNtB2v_3ops4drop4Drop4dropCsdARyWrlPtHl_2cc, symObjAddr: 0x4904, symBinAddr: 0x1000692B4, symSize: 0x60 }
  - { offset: 0xC956B, size: 0x8, addend: 0x0, symName: __RNvXst_NtNtNtCscOYdFFY2T5N_3std4sync6poison6rwlockINtB5_15RwLockReadGuardINtNtNtNtBb_11collections4hash3map7HashMapNtCsdARyWrlPtHl_2cc12CompilerFlagbEENtNtNtCsfvfooZQ3Axs_4core3ops4drop4Drop4dropB1R_, symObjAddr: 0x4964, symBinAddr: 0x100069314, symSize: 0x60 }
  - { offset: 0xC95D0, size: 0x8, addend: 0x0, symName: __RNvXsu_NtNtNtCscOYdFFY2T5N_3std4sync6poison6rwlockINtB5_16RwLockWriteGuardINtNtNtNtBb_11collections4hash3map7HashMapINtNtCse1nGBsou5OW_5alloc5boxed3BoxSIB1R_NtNtNtBb_3ffi6os_str5OsStrEENtNtCsdARyWrlPtHl_2cc4tool10ToolFamilyEENtNtNtCsfvfooZQ3Axs_4core3ops4drop4Drop4dropB31_, symObjAddr: 0x49C4, symBinAddr: 0x100069374, symSize: 0xB8 }
  - { offset: 0xC967C, size: 0x8, addend: 0x0, symName: __RNvXsu_NtNtNtCscOYdFFY2T5N_3std4sync6poison6rwlockINtB5_16RwLockWriteGuardINtNtNtNtBb_11collections4hash3map7HashMapINtNtCse1nGBsou5OW_5alloc5boxed3BoxeEINtNtB1V_4sync3ArcNtNtNtBb_3ffi6os_str5OsStrEEENtNtNtCsfvfooZQ3Axs_4core3ops4drop4Drop4dropCsdARyWrlPtHl_2cc, symObjAddr: 0x4A7C, symBinAddr: 0x10006942C, symSize: 0xB8 }
  - { offset: 0xC9728, size: 0x8, addend: 0x0, symName: __RNvXsu_NtNtNtCscOYdFFY2T5N_3std4sync6poison6rwlockINtB5_16RwLockWriteGuardINtNtNtNtBb_11collections4hash3map7HashMapINtNtCse1nGBsou5OW_5alloc5boxed3BoxeEINtNtB1V_4sync3ArceEEENtNtNtCsfvfooZQ3Axs_4core3ops4drop4Drop4dropCsdARyWrlPtHl_2cc, symObjAddr: 0x4B34, symBinAddr: 0x1000694E4, symSize: 0xB8 }
  - { offset: 0xC97D4, size: 0x8, addend: 0x0, symName: __RNvXsu_NtNtNtCscOYdFFY2T5N_3std4sync6poison6rwlockINtB5_16RwLockWriteGuardINtNtNtNtBb_11collections4hash3map7HashMapINtNtCse1nGBsou5OW_5alloc5boxed3BoxeEINtNtCsfvfooZQ3Axs_4core6option6OptionINtNtB1V_4sync3ArcNtNtNtBb_3ffi6os_str5OsStrEEEENtNtNtB2w_3ops4drop4Drop4dropCsdARyWrlPtHl_2cc, symObjAddr: 0x4BEC, symBinAddr: 0x10006959C, symSize: 0xB8 }
  - { offset: 0xC9880, size: 0x8, addend: 0x0, symName: __RNvXsu_NtNtNtCscOYdFFY2T5N_3std4sync6poison6rwlockINtB5_16RwLockWriteGuardINtNtNtNtBb_11collections4hash3map7HashMapNtCsdARyWrlPtHl_2cc12CompilerFlagbEENtNtNtCsfvfooZQ3Axs_4core3ops4drop4Drop4dropB1S_, symObjAddr: 0x4CA4, symBinAddr: 0x100069654, symSize: 0xB8 }
  - { offset: 0xCA144, size: 0x8, addend: 0x0, symName: __RNCNkNvNvMNtNtCscOYdFFY2T5N_3std4hash6randomNtB8_11RandomState3new4KEYS0s_0CsdARyWrlPtHl_2cc, symObjAddr: 0x1460, symBinAddr: 0x10006608C, symSize: 0x3C }
  - { offset: 0xCA182, size: 0x8, addend: 0x0, symName: __RNvNvNvMNtNtCscOYdFFY2T5N_3std4hash6randomNtB6_11RandomState3new4KEYS6___initCsdARyWrlPtHl_2cc, symObjAddr: 0x316C, symBinAddr: 0x100067B1C, symSize: 0x24 }
  - { offset: 0xCA1A0, size: 0x8, addend: 0x0, symName: __RNCNvMNtNtCscOYdFFY2T5N_3std4hash6randomNtB4_11RandomState3new0CsdARyWrlPtHl_2cc, symObjAddr: 0x149C, symBinAddr: 0x1000660C8, symSize: 0x2C }
  - { offset: 0xCA29F, size: 0x8, addend: 0x0, symName: __RNvXs2_NtNtCscOYdFFY2T5N_3std4hash6randomNtB5_13DefaultHasherNtNtCsfvfooZQ3Axs_4core4hash6Hasher5writeCsdARyWrlPtHl_2cc, symObjAddr: 0x3280, symBinAddr: 0x100067C30, symSize: 0x38 }
  - { offset: 0xCA2FA, size: 0x8, addend: 0x0, symName: __RNvXs2_NtNtCscOYdFFY2T5N_3std4hash6randomNtB5_13DefaultHasherNtNtCsfvfooZQ3Axs_4core4hash6Hasher6finishCsdARyWrlPtHl_2cc, symObjAddr: 0x32B8, symBinAddr: 0x100067C68, symSize: 0x2C }
  - { offset: 0xCA343, size: 0x8, addend: 0x0, symName: __RNvXs2_NtNtCscOYdFFY2T5N_3std4hash6randomNtB5_13DefaultHasherNtNtCsfvfooZQ3Axs_4core4hash6Hasher9write_strCsdARyWrlPtHl_2cc, symObjAddr: 0x32E4, symBinAddr: 0x100067C94, symSize: 0x38 }
  - { offset: 0xCA3A4, size: 0x8, addend: 0x0, symName: __RNvXs3_NtNtCscOYdFFY2T5N_3std4hash6randomNtB5_11RandomStateNtNtCsfvfooZQ3Axs_4core7default7Default7defaultCsdARyWrlPtHl_2cc, symObjAddr: 0x331C, symBinAddr: 0x100067CCC, symSize: 0x1C }
  - { offset: 0xCA3DC, size: 0x8, addend: 0x0, symName: __RNvXs_NtNtCscOYdFFY2T5N_3std4hash6randomNtB4_11RandomStateNtNtCsfvfooZQ3Axs_4core4hash11BuildHasher12build_hasherCsdARyWrlPtHl_2cc, symObjAddr: 0x3D04, symBinAddr: 0x1000686B4, symSize: 0xCC }
  - { offset: 0xCB954, size: 0x8, addend: 0x0, symName: __RNCINvNtCsloNvcHxBCre_9hashbrown3map14equivalent_keyINtNtCse1nGBsou5OW_5alloc5boxed3BoxSIBP_NtNtNtCscOYdFFY2T5N_3std3ffi6os_str5OsStrEEBO_NtNtCsdARyWrlPtHl_2cc4tool10ToolFamilyE0B2g_, symObjAddr: 0x12BC, symBinAddr: 0x100065EE8, symSize: 0x30 }
  - { offset: 0xCB9AB, size: 0x8, addend: 0x0, symName: __RNCINvNtCsloNvcHxBCre_9hashbrown3map14equivalent_keyINtNtCse1nGBsou5OW_5alloc5boxed3BoxeEBO_INtNtBT_4sync3ArcNtNtNtCscOYdFFY2T5N_3std3ffi6os_str5OsStrEE0CsdARyWrlPtHl_2cc, symObjAddr: 0x12EC, symBinAddr: 0x100065F18, symSize: 0x30 }
  - { offset: 0xCBA02, size: 0x8, addend: 0x0, symName: __RNCINvNtCsloNvcHxBCre_9hashbrown3map14equivalent_keyINtNtCse1nGBsou5OW_5alloc5boxed3BoxeEBO_INtNtBT_4sync3ArceEE0CsdARyWrlPtHl_2cc, symObjAddr: 0x131C, symBinAddr: 0x100065F48, symSize: 0x30 }
  - { offset: 0xCBA59, size: 0x8, addend: 0x0, symName: __RNCINvNtCsloNvcHxBCre_9hashbrown3map14equivalent_keyINtNtCse1nGBsou5OW_5alloc5boxed3BoxeEBO_INtNtCsfvfooZQ3Axs_4core6option6OptionINtNtBT_4sync3ArcNtNtNtCscOYdFFY2T5N_3std3ffi6os_str5OsStrEEE0CsdARyWrlPtHl_2cc, symObjAddr: 0x134C, symBinAddr: 0x100065F78, symSize: 0x30 }
  - { offset: 0xCBAB0, size: 0x8, addend: 0x0, symName: __RNCINvNtCsloNvcHxBCre_9hashbrown3map14equivalent_keyNtCsdARyWrlPtHl_2cc12CompilerFlagBO_bE0BQ_, symObjAddr: 0x137C, symBinAddr: 0x100065FA8, symSize: 0x30 }
  - { offset: 0xCBB07, size: 0x8, addend: 0x0, symName: __RNCINvNtCsloNvcHxBCre_9hashbrown3map14equivalent_keyeINtNtCse1nGBsou5OW_5alloc5boxed3BoxeEINtNtBU_4sync3ArcNtNtNtCscOYdFFY2T5N_3std3ffi6os_str5OsStrEE0CsdARyWrlPtHl_2cc, symObjAddr: 0x13AC, symBinAddr: 0x100065FD8, symSize: 0x3C }
  - { offset: 0xCBB5E, size: 0x8, addend: 0x0, symName: __RNCINvNtCsloNvcHxBCre_9hashbrown3map14equivalent_keyeINtNtCse1nGBsou5OW_5alloc5boxed3BoxeEINtNtBU_4sync3ArceEE0CsdARyWrlPtHl_2cc, symObjAddr: 0x13E8, symBinAddr: 0x100066014, symSize: 0x3C }
  - { offset: 0xCBBB5, size: 0x8, addend: 0x0, symName: __RNCINvNtCsloNvcHxBCre_9hashbrown3map14equivalent_keyeINtNtCse1nGBsou5OW_5alloc5boxed3BoxeEINtNtCsfvfooZQ3Axs_4core6option6OptionINtNtBU_4sync3ArcNtNtNtCscOYdFFY2T5N_3std3ffi6os_str5OsStrEEE0CsdARyWrlPtHl_2cc, symObjAddr: 0x1424, symBinAddr: 0x100066050, symSize: 0x3C }
  - { offset: 0xCC411, size: 0x8, addend: 0x0, symName: __RNCINvNtCsloNvcHxBCre_9hashbrown3map11make_hasherINtNtCse1nGBsou5OW_5alloc5boxed3BoxSIBM_NtNtNtCscOYdFFY2T5N_3std3ffi6os_str5OsStrEENtNtCsdARyWrlPtHl_2cc4tool10ToolFamilyNtNtNtB1v_4hash6random11RandomStateE0B2a_, symObjAddr: 0x1190, symBinAddr: 0x100065DBC, symSize: 0x3C }
  - { offset: 0xCC48D, size: 0x8, addend: 0x0, symName: __RNCINvNtCsloNvcHxBCre_9hashbrown3map11make_hasherINtNtCse1nGBsou5OW_5alloc5boxed3BoxeEINtNtBQ_4sync3ArcNtNtNtCscOYdFFY2T5N_3std3ffi6os_str5OsStrENtNtNtB1J_4hash6random11RandomStateE0CsdARyWrlPtHl_2cc, symObjAddr: 0x11CC, symBinAddr: 0x100065DF8, symSize: 0x3C }
  - { offset: 0xCC509, size: 0x8, addend: 0x0, symName: __RNCINvNtCsloNvcHxBCre_9hashbrown3map11make_hasherINtNtCse1nGBsou5OW_5alloc5boxed3BoxeEINtNtBQ_4sync3ArceENtNtNtCscOYdFFY2T5N_3std4hash6random11RandomStateE0CsdARyWrlPtHl_2cc, symObjAddr: 0x1208, symBinAddr: 0x100065E34, symSize: 0x3C }
  - { offset: 0xCC585, size: 0x8, addend: 0x0, symName: __RNCINvNtCsloNvcHxBCre_9hashbrown3map11make_hasherINtNtCse1nGBsou5OW_5alloc5boxed3BoxeEINtNtCsfvfooZQ3Axs_4core6option6OptionINtNtBQ_4sync3ArcNtNtNtCscOYdFFY2T5N_3std3ffi6os_str5OsStrEENtNtNtB2l_4hash6random11RandomStateE0CsdARyWrlPtHl_2cc, symObjAddr: 0x1244, symBinAddr: 0x100065E70, symSize: 0x3C }
  - { offset: 0xCC601, size: 0x8, addend: 0x0, symName: __RNCINvNtCsloNvcHxBCre_9hashbrown3map11make_hasherNtCsdARyWrlPtHl_2cc12CompilerFlagbNtNtNtCscOYdFFY2T5N_3std4hash6random11RandomStateE0BN_, symObjAddr: 0x1280, symBinAddr: 0x100065EAC, symSize: 0x3C }
  - { offset: 0xCC885, size: 0x8, addend: 0x0, symName: __RNvXCsloNvcHxBCre_9hashbrowneINtB2_10EquivalentINtNtCse1nGBsou5OW_5alloc5boxed3BoxeEE10equivalentCsdARyWrlPtHl_2cc, symObjAddr: 0x3190, symBinAddr: 0x100067B40, symSize: 0x60 }
  - { offset: 0xCCA46, size: 0x8, addend: 0x0, symName: __RINvMs1_NtCsloNvcHxBCre_9hashbrown3mapINtB6_7HashMapINtNtCse1nGBsou5OW_5alloc5boxed3BoxSIBP_NtNtNtCscOYdFFY2T5N_3std3ffi6os_str5OsStrEENtNtCsdARyWrlPtHl_2cc4tool10ToolFamilyNtNtNtB1y_4hash6random11RandomStateE9get_innerBO_EB2d_, symObjAddr: 0x0, symBinAddr: 0x100064C2C, symSize: 0xF8 }
  - { offset: 0xCCD7F, size: 0x8, addend: 0x0, symName: __RINvMs1_NtCsloNvcHxBCre_9hashbrown3mapINtB6_7HashMapINtNtCse1nGBsou5OW_5alloc5boxed3BoxeEINtNtBT_4sync3ArcNtNtNtCscOYdFFY2T5N_3std3ffi6os_str5OsStrENtNtNtB1M_4hash6random11RandomStateE9get_innereECsdARyWrlPtHl_2cc, symObjAddr: 0xF8, symBinAddr: 0x100064D24, symSize: 0x10C }
  - { offset: 0xCD09D, size: 0x8, addend: 0x0, symName: __RINvMs1_NtCsloNvcHxBCre_9hashbrown3mapINtB6_7HashMapINtNtCse1nGBsou5OW_5alloc5boxed3BoxeEINtNtBT_4sync3ArceENtNtNtCscOYdFFY2T5N_3std4hash6random11RandomStateE9get_innereECsdARyWrlPtHl_2cc, symObjAddr: 0x204, symBinAddr: 0x100064E30, symSize: 0x10C }
  - { offset: 0xCD394, size: 0x8, addend: 0x0, symName: __RINvMs1_NtCsloNvcHxBCre_9hashbrown3mapINtB6_7HashMapINtNtCse1nGBsou5OW_5alloc5boxed3BoxeEINtNtCsfvfooZQ3Axs_4core6option6OptionINtNtBT_4sync3ArcNtNtNtCscOYdFFY2T5N_3std3ffi6os_str5OsStrEENtNtNtB2o_4hash6random11RandomStateE9get_innereECsdARyWrlPtHl_2cc, symObjAddr: 0x310, symBinAddr: 0x100064F3C, symSize: 0x10C }
  - { offset: 0xCD6BF, size: 0x8, addend: 0x0, symName: __RINvMs1_NtCsloNvcHxBCre_9hashbrown3mapINtB6_7HashMapNtCsdARyWrlPtHl_2cc12CompilerFlagbNtNtNtCscOYdFFY2T5N_3std4hash6random11RandomStateE9get_innerBO_EBQ_, symObjAddr: 0x41C, symBinAddr: 0x100065048, symSize: 0xF8 }
  - { offset: 0xCD939, size: 0x8, addend: 0x0, symName: __RINvMs_NtNtCsfvfooZQ3Axs_4core3fmt2rtNtB5_8Argument11new_displayINtNtCsdARyWrlPtHl_2cc9utilities10JoinOsStrsINtNtCse1nGBsou5OW_5alloc4sync3ArcNtNtNtCscOYdFFY2T5N_3std3ffi6os_str5OsStrEEEB15_, symObjAddr: 0x514, symBinAddr: 0x100065140, symSize: 0x2C }
  - { offset: 0xCD9E4, size: 0x8, addend: 0x0, symName: __RINvMs_NtNtCsfvfooZQ3Axs_4core3fmt2rtNtB5_8Argument11new_displayINtNtCsdARyWrlPtHl_2cc9utilities18OptionOsStrDisplayRNtNtNtCscOYdFFY2T5N_3std3ffi6os_str5OsStrEEB15_, symObjAddr: 0x540, symBinAddr: 0x10006516C, symSize: 0x2C }
  - { offset: 0xCDA71, size: 0x8, addend: 0x0, symName: __RINvMs_NtNtCsfvfooZQ3Axs_4core3fmt2rtNtB5_8Argument11new_displayINtNtCse1nGBsou5OW_5alloc4sync3ArceEECsdARyWrlPtHl_2cc, symObjAddr: 0x56C, symBinAddr: 0x100065198, symSize: 0x2C }
  - { offset: 0xCDAFE, size: 0x8, addend: 0x0, symName: __RINvMs_NtNtCsfvfooZQ3Axs_4core3fmt2rtNtB5_8Argument11new_displayINtNtCse1nGBsou5OW_5alloc6borrow3CoweEECsdARyWrlPtHl_2cc, symObjAddr: 0x598, symBinAddr: 0x1000651C4, symSize: 0x2C }
  - { offset: 0xCDB8B, size: 0x8, addend: 0x0, symName: __RINvMs_NtNtCsfvfooZQ3Axs_4core3fmt2rtNtB5_8Argument11new_displayNtCsdARyWrlPtHl_2cc5ErrorEB12_, symObjAddr: 0x5C4, symBinAddr: 0x1000651F0, symSize: 0x2C }
  - { offset: 0xCDC18, size: 0x8, addend: 0x0, symName: __RINvMs_NtNtCsfvfooZQ3Axs_4core3fmt2rtNtB5_8Argument11new_displayNtNtCscOYdFFY2T5N_3std3env8VarErrorECsdARyWrlPtHl_2cc, symObjAddr: 0x5F0, symBinAddr: 0x10006521C, symSize: 0x2C }
  - { offset: 0xCDCA5, size: 0x8, addend: 0x0, symName: __RINvMs_NtNtCsfvfooZQ3Axs_4core3fmt2rtNtB5_8Argument11new_displayNtNtCscOYdFFY2T5N_3std7process10ExitStatusECsdARyWrlPtHl_2cc, symObjAddr: 0x61C, symBinAddr: 0x100065248, symSize: 0x2C }
  - { offset: 0xCDD32, size: 0x8, addend: 0x0, symName: __RINvMs_NtNtCsfvfooZQ3Axs_4core3fmt2rtNtB5_8Argument11new_displayNtNtNtCscOYdFFY2T5N_3std2io5error5ErrorECsdARyWrlPtHl_2cc, symObjAddr: 0x648, symBinAddr: 0x100065274, symSize: 0x2C }
  - { offset: 0xCDE07, size: 0x8, addend: 0x0, symName: __RINvMs_NtNtCsfvfooZQ3Axs_4core3fmt2rtNtB5_8Argument11new_displayRDNtB7_7DisplayEL_ECsdARyWrlPtHl_2cc, symObjAddr: 0x674, symBinAddr: 0x1000652A0, symSize: 0x2C }
  - { offset: 0xCDE94, size: 0x8, addend: 0x0, symName: __RINvMs_NtNtCsfvfooZQ3Axs_4core3fmt2rtNtB5_8Argument11new_displayRINtNtCse1nGBsou5OW_5alloc4sync3ArceEECsdARyWrlPtHl_2cc, symObjAddr: 0x6A0, symBinAddr: 0x1000652CC, symSize: 0x2C }
  - { offset: 0xCDF2E, size: 0x8, addend: 0x0, symName: __RINvMs_NtNtCsfvfooZQ3Axs_4core3fmt2rtNtB5_8Argument11new_displayRReECsdARyWrlPtHl_2cc, symObjAddr: 0x6CC, symBinAddr: 0x1000652F8, symSize: 0x2C }
  - { offset: 0xCDFBB, size: 0x8, addend: 0x0, symName: __RINvMs_NtNtCsfvfooZQ3Axs_4core3fmt2rtNtB5_8Argument11new_displaycECsdARyWrlPtHl_2cc, symObjAddr: 0x6F8, symBinAddr: 0x100065324, symSize: 0x2C }
  - { offset: 0xCE048, size: 0x8, addend: 0x0, symName: __RINvMs_NtNtCsfvfooZQ3Axs_4core3fmt2rtNtB5_8Argument11new_displaylECsdARyWrlPtHl_2cc, symObjAddr: 0x724, symBinAddr: 0x100065350, symSize: 0x2C }
  - { offset: 0xCE0D5, size: 0x8, addend: 0x0, symName: __RINvMs_NtNtCsfvfooZQ3Axs_4core3fmt2rtNtB5_8Argument11new_displaymECsdARyWrlPtHl_2cc, symObjAddr: 0x750, symBinAddr: 0x10006537C, symSize: 0x2C }
  - { offset: 0xCE162, size: 0x8, addend: 0x0, symName: __RINvMs_NtNtCsfvfooZQ3Axs_4core3fmt2rtNtB5_8Argument11new_displayyECsdARyWrlPtHl_2cc, symObjAddr: 0x77C, symBinAddr: 0x1000653A8, symSize: 0x2C }
  - { offset: 0xCE1C5, size: 0x8, addend: 0x0, symName: __RINvMs_NtNtCsfvfooZQ3Axs_4core3fmt2rtNtB5_8Argument13new_lower_hexyECsdARyWrlPtHl_2cc, symObjAddr: 0x7A8, symBinAddr: 0x1000653D4, symSize: 0x2C }
  - { offset: 0xCE252, size: 0x8, addend: 0x0, symName: __RINvMs_NtNtCsfvfooZQ3Axs_4core3fmt2rtNtB5_8Argument9new_debugNtCsdARyWrlPtHl_2cc9ErrorKindEBZ_, symObjAddr: 0x7D4, symBinAddr: 0x100065400, symSize: 0x2C }
  - { offset: 0xCE417, size: 0x8, addend: 0x0, symName: __RINvMs_NtNtCsfvfooZQ3Axs_4core3fmt2rtNtB5_8Argument9new_debugNtNtCscOYdFFY2T5N_3std7process7CommandECsdARyWrlPtHl_2cc, symObjAddr: 0x800, symBinAddr: 0x10006542C, symSize: 0x2C }
  - { offset: 0xCE4A4, size: 0x8, addend: 0x0, symName: __RINvMs_NtNtCsfvfooZQ3Axs_4core3fmt2rtNtB5_8Argument9new_debugNtNtCsdARyWrlPtHl_2cc4tool10ToolFamilyEB11_, symObjAddr: 0x82C, symBinAddr: 0x100065458, symSize: 0x2C }
  - { offset: 0xCE531, size: 0x8, addend: 0x0, symName: __RINvMs_NtNtCsfvfooZQ3Axs_4core3fmt2rtNtB5_8Argument9new_debugNtNtNtCscOYdFFY2T5N_3std3ffi6os_str8OsStringECsdARyWrlPtHl_2cc, symObjAddr: 0x858, symBinAddr: 0x100065484, symSize: 0x2C }
  - { offset: 0xCE5CB, size: 0x8, addend: 0x0, symName: __RINvMs_NtNtCsfvfooZQ3Axs_4core3fmt2rtNtB5_8Argument9new_debugQNtNtCscOYdFFY2T5N_3std7process7CommandECsdARyWrlPtHl_2cc, symObjAddr: 0x884, symBinAddr: 0x1000654B0, symSize: 0x2C }
  - { offset: 0xCE658, size: 0x8, addend: 0x0, symName: __RINvMs_NtNtCsfvfooZQ3Axs_4core3fmt2rtNtB5_8Argument9new_debugRNtNtCscOYdFFY2T5N_3std7process7CommandECsdARyWrlPtHl_2cc, symObjAddr: 0x8B0, symBinAddr: 0x1000654DC, symSize: 0x2C }
  - { offset: 0xCE6E5, size: 0x8, addend: 0x0, symName: __RINvMs_NtNtCsfvfooZQ3Axs_4core3fmt2rtNtB5_8Argument9new_debugRNtNtNtCscOYdFFY2T5N_3std3ffi6os_str5OsStrECsdARyWrlPtHl_2cc, symObjAddr: 0x8DC, symBinAddr: 0x100065508, symSize: 0x2C }
  - { offset: 0xCE772, size: 0x8, addend: 0x0, symName: __RINvMs_NtNtCsfvfooZQ3Axs_4core3fmt2rtNtB5_8Argument9new_debugRNtNtNtCscOYdFFY2T5N_3std3ffi6os_str8OsStringECsdARyWrlPtHl_2cc, symObjAddr: 0x908, symBinAddr: 0x100065534, symSize: 0x2C }
  - { offset: 0xCE7F2, size: 0x8, addend: 0x0, symName: __RINvMs_NtNtCsfvfooZQ3Axs_4core3fmt2rtNtB5_8Argument9new_debugReECsdARyWrlPtHl_2cc, symObjAddr: 0x934, symBinAddr: 0x100065560, symSize: 0x2C }
  - { offset: 0xCEBD8, size: 0x8, addend: 0x0, symName: __RNvMNtNtCscOYdFFY2T5N_3std4hash6randomNtB2_11RandomState3newCsdARyWrlPtHl_2cc, symObjAddr: 0x17EC, symBinAddr: 0x100066418, symSize: 0x1C }
  - { offset: 0xCEBEB, size: 0x8, addend: 0x0, symName: __RNvMNtNtCsfvfooZQ3Axs_4core3fmt2rtNtB2_11Placeholder3newCsdARyWrlPtHl_2cc, symObjAddr: 0x1808, symBinAddr: 0x100066434, symSize: 0x4C }
  - { offset: 0xCECDE, size: 0x8, addend: 0x0, symName: __RNvMNtNtNtCscOYdFFY2T5N_3std2io8buffered9bufwriterINtB2_9BufWriterNtNtB6_5stdio6StdoutE13with_capacityCsdARyWrlPtHl_2cc, symObjAddr: 0x1854, symBinAddr: 0x100066480, symSize: 0x98 }
  - { offset: 0xCEDC5, size: 0x8, addend: 0x0, symName: __RNvMs0_NtNtCscOYdFFY2T5N_3std4hash6randomNtB5_13DefaultHasher3newCsdARyWrlPtHl_2cc, symObjAddr: 0x18EC, symBinAddr: 0x100066518, symSize: 0xB4 }
  - { offset: 0xCEE3A, size: 0x8, addend: 0x0, symName: __RNvMs0_NtNtCsfvfooZQ3Axs_4core3fmt2rtNtB5_9UnsafeArg3newCsdARyWrlPtHl_2cc, symObjAddr: 0x19A0, symBinAddr: 0x1000665CC, symSize: 0x4 }
  - { offset: 0xCEF20, size: 0x8, addend: 0x0, symName: __RNvMs1_NtCsloNvcHxBCre_9hashbrown3mapINtB5_7HashMapINtNtCse1nGBsou5OW_5alloc5boxed3BoxSIBO_NtNtNtCscOYdFFY2T5N_3std3ffi6os_str5OsStrEENtNtCsdARyWrlPtHl_2cc4tool10ToolFamilyNtNtNtB1x_4hash6random11RandomStateE6insertB2c_, symObjAddr: 0x19A4, symBinAddr: 0x1000665D0, symSize: 0x1F0 }
  - { offset: 0xCF1BA, size: 0x8, addend: 0x0, symName: __RNvMs1_NtCsloNvcHxBCre_9hashbrown3mapINtB5_7HashMapINtNtCse1nGBsou5OW_5alloc5boxed3BoxeEINtNtBS_4sync3ArcNtNtNtCscOYdFFY2T5N_3std3ffi6os_str5OsStrENtNtNtB1L_4hash6random11RandomStateE6insertCsdARyWrlPtHl_2cc, symObjAddr: 0x1B94, symBinAddr: 0x1000667C0, symSize: 0x1EC }
  - { offset: 0xCF455, size: 0x8, addend: 0x0, symName: __RNvMs1_NtCsloNvcHxBCre_9hashbrown3mapINtB5_7HashMapINtNtCse1nGBsou5OW_5alloc5boxed3BoxeEINtNtBS_4sync3ArceENtNtNtCscOYdFFY2T5N_3std4hash6random11RandomStateE6insertCsdARyWrlPtHl_2cc, symObjAddr: 0x1D80, symBinAddr: 0x1000669AC, symSize: 0x1EC }
  - { offset: 0xCF6F0, size: 0x8, addend: 0x0, symName: __RNvMs1_NtCsloNvcHxBCre_9hashbrown3mapINtB5_7HashMapINtNtCse1nGBsou5OW_5alloc5boxed3BoxeEINtNtCsfvfooZQ3Axs_4core6option6OptionINtNtBS_4sync3ArcNtNtNtCscOYdFFY2T5N_3std3ffi6os_str5OsStrEENtNtNtB2n_4hash6random11RandomStateE6insertCsdARyWrlPtHl_2cc, symObjAddr: 0x1F6C, symBinAddr: 0x100066B98, symSize: 0x1F8 }
  - { offset: 0xCF98C, size: 0x8, addend: 0x0, symName: __RNvMs1_NtCsloNvcHxBCre_9hashbrown3mapINtB5_7HashMapNtCsdARyWrlPtHl_2cc12CompilerFlagbNtNtNtCscOYdFFY2T5N_3std4hash6random11RandomStateE6insertBP_, symObjAddr: 0x2164, symBinAddr: 0x100066D90, symSize: 0x1FC }
  - { offset: 0xCFBD3, size: 0x8, addend: 0x0, symName: __RNvMs9_NtNtNtCscOYdFFY2T5N_3std4sync6poison6rwlockINtB5_6RwLockINtNtNtNtBb_11collections4hash3map7HashMapINtNtCse1nGBsou5OW_5alloc5boxed3BoxSIB1G_NtNtNtBb_3ffi6os_str5OsStrEENtNtCsdARyWrlPtHl_2cc4tool10ToolFamilyEE4readB2Q_, symObjAddr: 0x2360, symBinAddr: 0x100066F8C, symSize: 0x7C }
  - { offset: 0xCFD14, size: 0x8, addend: 0x0, symName: __RNvMs9_NtNtNtCscOYdFFY2T5N_3std4sync6poison6rwlockINtB5_6RwLockINtNtNtNtBb_11collections4hash3map7HashMapINtNtCse1nGBsou5OW_5alloc5boxed3BoxSIB1G_NtNtNtBb_3ffi6os_str5OsStrEENtNtCsdARyWrlPtHl_2cc4tool10ToolFamilyEE5writeB2Q_, symObjAddr: 0x23DC, symBinAddr: 0x100067008, symSize: 0xB4 }
  - { offset: 0xCFE6A, size: 0x8, addend: 0x0, symName: __RNvMs9_NtNtNtCscOYdFFY2T5N_3std4sync6poison6rwlockINtB5_6RwLockINtNtNtNtBb_11collections4hash3map7HashMapINtNtCse1nGBsou5OW_5alloc5boxed3BoxeEINtNtB1K_4sync3ArcNtNtNtBb_3ffi6os_str5OsStrEEE4readCsdARyWrlPtHl_2cc, symObjAddr: 0x2490, symBinAddr: 0x1000670BC, symSize: 0x7C }
  - { offset: 0xCFF84, size: 0x8, addend: 0x0, symName: __RNvMs9_NtNtNtCscOYdFFY2T5N_3std4sync6poison6rwlockINtB5_6RwLockINtNtNtNtBb_11collections4hash3map7HashMapINtNtCse1nGBsou5OW_5alloc5boxed3BoxeEINtNtB1K_4sync3ArcNtNtNtBb_3ffi6os_str5OsStrEEE5writeCsdARyWrlPtHl_2cc, symObjAddr: 0x250C, symBinAddr: 0x100067138, symSize: 0xB4 }
  - { offset: 0xD00DA, size: 0x8, addend: 0x0, symName: __RNvMs9_NtNtNtCscOYdFFY2T5N_3std4sync6poison6rwlockINtB5_6RwLockINtNtNtNtBb_11collections4hash3map7HashMapINtNtCse1nGBsou5OW_5alloc5boxed3BoxeEINtNtB1K_4sync3ArceEEE4readCsdARyWrlPtHl_2cc, symObjAddr: 0x25C0, symBinAddr: 0x1000671EC, symSize: 0x7C }
  - { offset: 0xD01F4, size: 0x8, addend: 0x0, symName: __RNvMs9_NtNtNtCscOYdFFY2T5N_3std4sync6poison6rwlockINtB5_6RwLockINtNtNtNtBb_11collections4hash3map7HashMapINtNtCse1nGBsou5OW_5alloc5boxed3BoxeEINtNtB1K_4sync3ArceEEE5writeCsdARyWrlPtHl_2cc, symObjAddr: 0x263C, symBinAddr: 0x100067268, symSize: 0xB4 }
  - { offset: 0xD034A, size: 0x8, addend: 0x0, symName: __RNvMs9_NtNtNtCscOYdFFY2T5N_3std4sync6poison6rwlockINtB5_6RwLockINtNtNtNtBb_11collections4hash3map7HashMapINtNtCse1nGBsou5OW_5alloc5boxed3BoxeEINtNtCsfvfooZQ3Axs_4core6option6OptionINtNtB1K_4sync3ArcNtNtNtBb_3ffi6os_str5OsStrEEEE4readCsdARyWrlPtHl_2cc, symObjAddr: 0x26F0, symBinAddr: 0x10006731C, symSize: 0x7C }
  - { offset: 0xD0464, size: 0x8, addend: 0x0, symName: __RNvMs9_NtNtNtCscOYdFFY2T5N_3std4sync6poison6rwlockINtB5_6RwLockINtNtNtNtBb_11collections4hash3map7HashMapINtNtCse1nGBsou5OW_5alloc5boxed3BoxeEINtNtCsfvfooZQ3Axs_4core6option6OptionINtNtB1K_4sync3ArcNtNtNtBb_3ffi6os_str5OsStrEEEE5writeCsdARyWrlPtHl_2cc, symObjAddr: 0x276C, symBinAddr: 0x100067398, symSize: 0xB4 }
  - { offset: 0xD05BA, size: 0x8, addend: 0x0, symName: __RNvMs9_NtNtNtCscOYdFFY2T5N_3std4sync6poison6rwlockINtB5_6RwLockINtNtNtNtBb_11collections4hash3map7HashMapNtCsdARyWrlPtHl_2cc12CompilerFlagbEE4readB1H_, symObjAddr: 0x2820, symBinAddr: 0x10006744C, symSize: 0x7C }
  - { offset: 0xD06D4, size: 0x8, addend: 0x0, symName: __RNvMs9_NtNtNtCscOYdFFY2T5N_3std4sync6poison6rwlockINtB5_6RwLockINtNtNtNtBb_11collections4hash3map7HashMapNtCsdARyWrlPtHl_2cc12CompilerFlagbEE5writeB1H_, symObjAddr: 0x289C, symBinAddr: 0x1000674C8, symSize: 0xB4 }
  - { offset: 0xD08D7, size: 0x8, addend: 0x0, symName: __RNvMs_NtNtNtCscOYdFFY2T5N_3std2io8buffered9bufwriterINtB4_9BufWriterNtNtB8_5stdio6StdoutE10write_coldCsdARyWrlPtHl_2cc, symObjAddr: 0x2950, symBinAddr: 0x1001002B0, symSize: 0x14C }
  - { offset: 0xD0B56, size: 0x8, addend: 0x0, symName: __RNvMs_NtNtNtCscOYdFFY2T5N_3std2io8buffered9bufwriterINtB4_9BufWriterNtNtB8_5stdio6StdoutE14write_all_coldCsdARyWrlPtHl_2cc, symObjAddr: 0x2A9C, symBinAddr: 0x1001003FC, symSize: 0x130 }
  - { offset: 0xD0E00, size: 0x8, addend: 0x0, symName: __RNvMs_NtNtNtCscOYdFFY2T5N_3std2io8buffered9bufwriterINtB4_9BufWriterNtNtB8_5stdio6StdoutE25write_to_buffer_uncheckedCsdARyWrlPtHl_2cc, symObjAddr: 0x2BCC, symBinAddr: 0x10006757C, symSize: 0xD8 }
  - { offset: 0xD107A, size: 0x8, addend: 0x0, symName: __RNvMs_NtNtNtCscOYdFFY2T5N_3std2io8buffered9bufwriterINtB4_9BufWriterNtNtB8_5stdio6StdoutE9flush_bufCsdARyWrlPtHl_2cc, symObjAddr: 0x2CA4, symBinAddr: 0x100067654, symSize: 0x20C }
  - { offset: 0xD1248, size: 0x8, addend: 0x0, symName: __RNvMsd_NtNtNtCscOYdFFY2T5N_3std4sync6poison6rwlockINtB5_15RwLockReadGuardINtNtNtNtBb_11collections4hash3map7HashMapINtNtCse1nGBsou5OW_5alloc5boxed3BoxSIB1Q_NtNtNtBb_3ffi6os_str5OsStrEENtNtCsdARyWrlPtHl_2cc4tool10ToolFamilyEE3newB30_, symObjAddr: 0x2EB0, symBinAddr: 0x100067860, symSize: 0x8C }
  - { offset: 0xD133A, size: 0x8, addend: 0x0, symName: __RNvMsd_NtNtNtCscOYdFFY2T5N_3std4sync6poison6rwlockINtB5_15RwLockReadGuardINtNtNtNtBb_11collections4hash3map7HashMapINtNtCse1nGBsou5OW_5alloc5boxed3BoxeEINtNtB1U_4sync3ArcNtNtNtBb_3ffi6os_str5OsStrEEE3newCsdARyWrlPtHl_2cc, symObjAddr: 0x2F3C, symBinAddr: 0x1000678EC, symSize: 0x8C }
  - { offset: 0xD142C, size: 0x8, addend: 0x0, symName: __RNvMsd_NtNtNtCscOYdFFY2T5N_3std4sync6poison6rwlockINtB5_15RwLockReadGuardINtNtNtNtBb_11collections4hash3map7HashMapINtNtCse1nGBsou5OW_5alloc5boxed3BoxeEINtNtB1U_4sync3ArceEEE3newCsdARyWrlPtHl_2cc, symObjAddr: 0x2FC8, symBinAddr: 0x100067978, symSize: 0x8C }
  - { offset: 0xD151E, size: 0x8, addend: 0x0, symName: __RNvMsd_NtNtNtCscOYdFFY2T5N_3std4sync6poison6rwlockINtB5_15RwLockReadGuardINtNtNtNtBb_11collections4hash3map7HashMapINtNtCse1nGBsou5OW_5alloc5boxed3BoxeEINtNtCsfvfooZQ3Axs_4core6option6OptionINtNtB1U_4sync3ArcNtNtNtBb_3ffi6os_str5OsStrEEEE3newCsdARyWrlPtHl_2cc, symObjAddr: 0x3054, symBinAddr: 0x100067A04, symSize: 0x8C }
  - { offset: 0xD1610, size: 0x8, addend: 0x0, symName: __RNvMsd_NtNtNtCscOYdFFY2T5N_3std4sync6poison6rwlockINtB5_15RwLockReadGuardINtNtNtNtBb_11collections4hash3map7HashMapNtCsdARyWrlPtHl_2cc12CompilerFlagbEE3newB1R_, symObjAddr: 0x30E0, symBinAddr: 0x100067A90, symSize: 0x8C }
  - { offset: 0xD261C, size: 0x8, addend: 0x0, symName: __RINvMNtCscOYdFFY2T5N_3std2fsNtB3_4File6createRNtNtB5_4path7PathBufECsdARyWrlPtHl_2cc, symObjAddr: 0x0, symBinAddr: 0x1000699F8, symSize: 0xC0 }
  - { offset: 0xD26AD, size: 0x8, addend: 0x0, symName: __RNvYNtNtCscOYdFFY2T5N_3std2fs4FileNtNtB6_2io5Write9write_allCsdARyWrlPtHl_2cc, symObjAddr: 0xA490, symBinAddr: 0x1000732AC, symSize: 0x180 }
  - { offset: 0xD274E, size: 0x8, addend: 0x0, symName: __RNvYNtNtCscOYdFFY2T5N_3std2fs4FileNtNtB6_2io5Write9write_fmtCsdARyWrlPtHl_2cc, symObjAddr: 0xA610, symBinAddr: 0x10007342C, symSize: 0x128 }
  - { offset: 0xD2CB4, size: 0x8, addend: 0x0, symName: __RINvNtCscOYdFFY2T5N_3std2fs11remove_fileRNtNtB4_4path4PathECsdARyWrlPtHl_2cc, symObjAddr: 0x134, symBinAddr: 0x100069B2C, symSize: 0x68 }
  - { offset: 0xD2CEB, size: 0x8, addend: 0x0, symName: __RINvNtCscOYdFFY2T5N_3std2fs11remove_fileRNtNtB4_4path7PathBufECsdARyWrlPtHl_2cc, symObjAddr: 0x19C, symBinAddr: 0x100069B94, symSize: 0x64 }
  - { offset: 0xD2D22, size: 0x8, addend: 0x0, symName: __RINvNtCscOYdFFY2T5N_3std2fs14create_dir_allRINtNtCse1nGBsou5OW_5alloc6borrow3CowNtNtB4_4path4PathEECsdARyWrlPtHl_2cc, symObjAddr: 0x200, symBinAddr: 0x100069BF8, symSize: 0x88 }
  - { offset: 0xD2D8C, size: 0x8, addend: 0x0, symName: __RINvNtCscOYdFFY2T5N_3std2fs14create_dir_allRNtNtB4_4path4PathECsdARyWrlPtHl_2cc, symObjAddr: 0x288, symBinAddr: 0x100069C80, symSize: 0x8C }
  - { offset: 0xD2DF6, size: 0x8, addend: 0x0, symName: __RINvNtCscOYdFFY2T5N_3std2fs4copyRNtNtB4_4path4PathRNtBx_7PathBufECsdARyWrlPtHl_2cc, symObjAddr: 0x314, symBinAddr: 0x100069D0C, symSize: 0x98 }
  - { offset: 0xD2E5A, size: 0x8, addend: 0x0, symName: __RINvNtCscOYdFFY2T5N_3std2fs8metadataRNtNtB4_4path4PathECsdARyWrlPtHl_2cc, symObjAddr: 0x3AC, symBinAddr: 0x100069DA4, symSize: 0x100 }
  - { offset: 0xD2EDD, size: 0x8, addend: 0x0, symName: __RINvNtCscOYdFFY2T5N_3std2fs9hard_linkRNtNtB4_4path4PathRNtBC_7PathBufECsdARyWrlPtHl_2cc, symObjAddr: 0x4AC, symBinAddr: 0x100069EA4, symSize: 0x90 }
  - { offset: 0xD2F31, size: 0x8, addend: 0x0, symName: __RNcNtNtCscOYdFFY2T5N_3std2fs8Metadata0CsdARyWrlPtHl_2cc, symObjAddr: 0x7C1C, symBinAddr: 0x100070CE0, symSize: 0x30 }
  - { offset: 0xD2F60, size: 0x8, addend: 0x0, symName: __RNvXs7_NtCscOYdFFY2T5N_3std2fsNtB5_4FileNtNtB7_2io5Write5flushCsdARyWrlPtHl_2cc, symObjAddr: 0x94C4, symBinAddr: 0x100072358, symSize: 0x14 }
  - { offset: 0xD368E, size: 0x8, addend: 0x0, symName: __RNvXs0_NtNtNtCscOYdFFY2T5N_3std2os4unix2fsNtNtBb_2fs11OpenOptionsNtB5_14OpenOptionsExt4modeCsdARyWrlPtHl_2cc, symObjAddr: 0x8BBC, symBinAddr: 0x100071B1C, symSize: 0x1C }
  - { offset: 0xD4740, size: 0x8, addend: 0x0, symName: __RINvNtCscOYdFFY2T5N_3std3env11split_pathsINtNtCse1nGBsou5OW_5alloc4sync3ArcNtNtNtB4_3ffi6os_str5OsStrEECsdARyWrlPtHl_2cc, symObjAddr: 0x53C, symBinAddr: 0x100069F34, symSize: 0x94 }
  - { offset: 0xD47E9, size: 0x8, addend: 0x0, symName: __RINvNtCscOYdFFY2T5N_3std3env11split_pathsNtNtNtB4_3ffi6os_str5OsStrECsdARyWrlPtHl_2cc, symObjAddr: 0x5D0, symBinAddr: 0x100069FC8, symSize: 0x98 }
  - { offset: 0xD4892, size: 0x8, addend: 0x0, symName: __RINvNtCscOYdFFY2T5N_3std3env11split_pathsNtNtNtB4_3ffi6os_str8OsStringECsdARyWrlPtHl_2cc, symObjAddr: 0x668, symBinAddr: 0x10006A060, symSize: 0x94 }
  - { offset: 0xD493B, size: 0x8, addend: 0x0, symName: __RINvNtCscOYdFFY2T5N_3std3env3varReECsdARyWrlPtHl_2cc, symObjAddr: 0x6FC, symBinAddr: 0x10006A0F4, symSize: 0x68 }
  - { offset: 0xD6A1C, size: 0x8, addend: 0x0, symName: __RINvNtCsfvfooZQ3Axs_4core3ptr13drop_in_placeANtNtCse1nGBsou5OW_5alloc6string6Stringj4_ECsdARyWrlPtHl_2cc, symObjAddr: 0x764, symBinAddr: 0x10006A15C, symSize: 0xB4 }
  - { offset: 0xD6A4B, size: 0x8, addend: 0x0, symName: __RINvNtCsfvfooZQ3Axs_4core3ptr13drop_in_placeINtNtB4_4cell10UnsafeCellINtNtB4_6option6OptionINtNtB4_6result6ResultNtCs4Wq06SSluyi_9jobserver8AcquiredNtNtNtCscOYdFFY2T5N_3std2io5error5ErrorEEEECsdARyWrlPtHl_2cc, symObjAddr: 0x860, symBinAddr: 0x10006A210, symSize: 0x24 }
  - { offset: 0xD6A7A, size: 0x8, addend: 0x0, symName: __RINvNtCsfvfooZQ3Axs_4core3ptr13drop_in_placeINtNtB4_4cell10UnsafeCellINtNtB4_6option6OptionNtNtNtNtCscOYdFFY2T5N_3std4sync4mpmc7context7ContextEEECsdARyWrlPtHl_2cc, symObjAddr: 0x884, symBinAddr: 0x10006A234, symSize: 0x24 }
  - { offset: 0xD6AA9, size: 0x8, addend: 0x0, symName: __RINvNtCsfvfooZQ3Axs_4core3ptr13drop_in_placeINtNtB4_4cell10UnsafeCellINtNtCse1nGBsou5OW_5alloc3vec3VecTNtNtCscOYdFFY2T5N_3std7process7CommandNtNvMs4_CsdARyWrlPtHl_2ccNtB2n_5Build15compile_objects10KillOnDropNtNtNtB2n_8parallel9job_token8JobTokenEEEEB2n_, symObjAddr: 0x8A8, symBinAddr: 0x10006A258, symSize: 0x24 }
  - { offset: 0xD6AD8, size: 0x8, addend: 0x0, symName: __RINvNtCsfvfooZQ3Axs_4core3ptr13drop_in_placeINtNtB4_4cell10UnsafeCellINtNtNtNtCscOYdFFY2T5N_3std11collections4hash3map7HashMapINtNtCse1nGBsou5OW_5alloc5boxed3BoxSIB21_NtNtNtB1e_3ffi6os_str5OsStrEENtNtCsdARyWrlPtHl_2cc4tool10ToolFamilyEEEB3c_, symObjAddr: 0x8CC, symBinAddr: 0x10006A27C, symSize: 0x24 }
  - { offset: 0xD6B07, size: 0x8, addend: 0x0, symName: __RINvNtCsfvfooZQ3Axs_4core3ptr13drop_in_placeINtNtB4_4cell10UnsafeCellINtNtNtNtCscOYdFFY2T5N_3std11collections4hash3map7HashMapINtNtCse1nGBsou5OW_5alloc5boxed3BoxeEINtNtB25_4sync3ArcNtNtNtB1e_3ffi6os_str5OsStrEEEECsdARyWrlPtHl_2cc, symObjAddr: 0x8F0, symBinAddr: 0x10006A2A0, symSize: 0x24 }
  - { offset: 0xD6B36, size: 0x8, addend: 0x0, symName: __RINvNtCsfvfooZQ3Axs_4core3ptr13drop_in_placeINtNtB4_4cell10UnsafeCellINtNtNtNtCscOYdFFY2T5N_3std11collections4hash3map7HashMapINtNtCse1nGBsou5OW_5alloc5boxed3BoxeEINtNtB25_4sync3ArceEEEECsdARyWrlPtHl_2cc, symObjAddr: 0x914, symBinAddr: 0x10006A2C4, symSize: 0x24 }
  - { offset: 0xD6B65, size: 0x8, addend: 0x0, symName: __RINvNtCsfvfooZQ3Axs_4core3ptr13drop_in_placeINtNtB4_4cell10UnsafeCellINtNtNtNtCscOYdFFY2T5N_3std11collections4hash3map7HashMapINtNtCse1nGBsou5OW_5alloc5boxed3BoxeEINtNtB4_6option6OptionINtNtB25_4sync3ArcNtNtNtB1e_3ffi6os_str5OsStrEEEEECsdARyWrlPtHl_2cc, symObjAddr: 0x938, symBinAddr: 0x10006A2E8, symSize: 0x24 }
  - { offset: 0xD6B94, size: 0x8, addend: 0x0, symName: __RINvNtCsfvfooZQ3Axs_4core3ptr13drop_in_placeINtNtB4_4cell10UnsafeCellINtNtNtNtCscOYdFFY2T5N_3std11collections4hash3map7HashMapNtCsdARyWrlPtHl_2cc12CompilerFlagbEEEB22_, symObjAddr: 0x95C, symBinAddr: 0x10006A30C, symSize: 0x24 }
  - { offset: 0xD6BC3, size: 0x8, addend: 0x0, symName: __RINvNtCsfvfooZQ3Axs_4core3ptr13drop_in_placeINtNtB4_4cell10UnsafeCellNtNtNtNtCscOYdFFY2T5N_3std4sync4mpmc4zero5InnerEECsdARyWrlPtHl_2cc, symObjAddr: 0x980, symBinAddr: 0x10006A330, symSize: 0x24 }
  - { offset: 0xD6BF2, size: 0x8, addend: 0x0, symName: __RINvNtCsfvfooZQ3Axs_4core3ptr13drop_in_placeINtNtB4_4cell10UnsafeCellNtNtNtNtCscOYdFFY2T5N_3std4sync4mpmc5waker5WakerEECsdARyWrlPtHl_2cc, symObjAddr: 0x9A4, symBinAddr: 0x10006A354, symSize: 0x24 }
  - { offset: 0xD6C21, size: 0x8, addend: 0x0, symName: __RINvNtCsfvfooZQ3Axs_4core3ptr13drop_in_placeINtNtB4_4cell4CellINtNtB4_6option6OptionNtNtNtNtCscOYdFFY2T5N_3std4sync4mpmc7context7ContextEEECsdARyWrlPtHl_2cc, symObjAddr: 0x9C8, symBinAddr: 0x10006A378, symSize: 0x24 }
  - { offset: 0xD6C50, size: 0x8, addend: 0x0, symName: __RINvNtCsfvfooZQ3Axs_4core3ptr13drop_in_placeINtNtB4_4cell4CellINtNtCse1nGBsou5OW_5alloc3vec3VecTNtNtCscOYdFFY2T5N_3std7process7CommandNtNvMs4_CsdARyWrlPtHl_2ccNtB2g_5Build15compile_objects10KillOnDropNtNtNtB2g_8parallel9job_token8JobTokenEEEEB2g_, symObjAddr: 0x9EC, symBinAddr: 0x10006A39C, symSize: 0x24 }
  - { offset: 0xD6C7F, size: 0x8, addend: 0x0, symName: __RINvNtCsfvfooZQ3Axs_4core3ptr13drop_in_placeINtNtB4_4cell6RefMutINtNtNtNtCscOYdFFY2T5N_3std2io8buffered10linewriter10LineWriterNtNtB17_5stdio9StdoutRawEEECsdARyWrlPtHl_2cc, symObjAddr: 0xA10, symBinAddr: 0x10006A3C0, symSize: 0x24 }
  - { offset: 0xD6CAE, size: 0x8, addend: 0x0, symName: __RINvNtCsfvfooZQ3Axs_4core3ptr13drop_in_placeINtNtB4_6option6OptionIBH_INtNtCse1nGBsou5OW_5alloc4sync3ArcNtNtNtCscOYdFFY2T5N_3std3ffi6os_str5OsStrEEEECsdARyWrlPtHl_2cc, symObjAddr: 0xA34, symBinAddr: 0x10006A3E4, symSize: 0x40 }
  - { offset: 0xD6CDD, size: 0x8, addend: 0x0, symName: __RINvNtCsfvfooZQ3Axs_4core3ptr13drop_in_placeINtNtB4_6option6OptionIBH_INtNtCse1nGBsou5OW_5alloc4sync3ArceEEEECsdARyWrlPtHl_2cc, symObjAddr: 0xA74, symBinAddr: 0x10006A424, symSize: 0x40 }
  - { offset: 0xD6D0C, size: 0x8, addend: 0x0, symName: __RINvNtCsfvfooZQ3Axs_4core3ptr13drop_in_placeINtNtB4_6option6OptionINtNtB4_6result6ResultNtCs4Wq06SSluyi_9jobserver8AcquiredNtNtNtCscOYdFFY2T5N_3std2io5error5ErrorEEECsdARyWrlPtHl_2cc, symObjAddr: 0xAB4, symBinAddr: 0x10006A464, symSize: 0x44 }
  - { offset: 0xD6D3B, size: 0x8, addend: 0x0, symName: __RINvNtCsfvfooZQ3Axs_4core3ptr13drop_in_placeINtNtB4_6option6OptionINtNtCse1nGBsou5OW_5alloc3vec3VecNtNtB17_6string6StringEEECsdARyWrlPtHl_2cc, symObjAddr: 0xAF8, symBinAddr: 0x10006A4A8, symSize: 0x48 }
  - { offset: 0xD6D6A, size: 0x8, addend: 0x0, symName: __RINvNtCsfvfooZQ3Axs_4core3ptr13drop_in_placeINtNtB4_6option6OptionINtNtCse1nGBsou5OW_5alloc4sync3ArcNtNtCscOYdFFY2T5N_3std4path4PathEEECsdARyWrlPtHl_2cc, symObjAddr: 0xB40, symBinAddr: 0x10006A4F0, symSize: 0x44 }
  - { offset: 0xD6D99, size: 0x8, addend: 0x0, symName: __RINvNtCsfvfooZQ3Axs_4core3ptr13drop_in_placeINtNtB4_6option6OptionINtNtCse1nGBsou5OW_5alloc4sync3ArcNtNtNtCscOYdFFY2T5N_3std3ffi6os_str5OsStrEEECsdARyWrlPtHl_2cc, symObjAddr: 0xB84, symBinAddr: 0x10006A534, symSize: 0x44 }
  - { offset: 0xD6DC8, size: 0x8, addend: 0x0, symName: __RINvNtCsfvfooZQ3Axs_4core3ptr13drop_in_placeINtNtB4_6option6OptionINtNtCse1nGBsou5OW_5alloc4sync3ArceEEECsdARyWrlPtHl_2cc, symObjAddr: 0xBC8, symBinAddr: 0x10006A578, symSize: 0x44 }
  - { offset: 0xD6DF7, size: 0x8, addend: 0x0, symName: __RINvNtCsfvfooZQ3Axs_4core3ptr13drop_in_placeINtNtB4_6option6OptionINtNtCse1nGBsou5OW_5alloc5boxed3BoxINtNtNtNtCscOYdFFY2T5N_3std4sync4mpmc4list5BlockINtNtB4_6result6ResultNtCs4Wq06SSluyi_9jobserver8AcquiredNtNtNtB1K_2io5error5ErrorEEEEECsdARyWrlPtHl_2cc, symObjAddr: 0xC0C, symBinAddr: 0x10006A5BC, symSize: 0x44 }
  - { offset: 0xD6E26, size: 0x8, addend: 0x0, symName: __RINvNtCsfvfooZQ3Axs_4core3ptr13drop_in_placeINtNtB4_6option6OptionINtNtCse1nGBsou5OW_5alloc5boxed3BoxSmEEECsdARyWrlPtHl_2cc, symObjAddr: 0xC50, symBinAddr: 0x10006A600, symSize: 0x44 }
  - { offset: 0xD6E55, size: 0x8, addend: 0x0, symName: __RINvNtCsfvfooZQ3Axs_4core3ptr13drop_in_placeINtNtB4_6option6OptionINtNtCse1nGBsou5OW_5alloc6borrow3CowNtNtCscOYdFFY2T5N_3std4path4PathEEECsdARyWrlPtHl_2cc, symObjAddr: 0xC94, symBinAddr: 0x10006A644, symSize: 0x48 }
  - { offset: 0xD6E84, size: 0x8, addend: 0x0, symName: __RINvNtCsfvfooZQ3Axs_4core3ptr13drop_in_placeINtNtB4_6option6OptionINtNtCse1nGBsou5OW_5alloc6borrow3CoweEEECsdARyWrlPtHl_2cc, symObjAddr: 0xCDC, symBinAddr: 0x10006A68C, symSize: 0x48 }
  - { offset: 0xD6EB3, size: 0x8, addend: 0x0, symName: __RINvNtCsfvfooZQ3Axs_4core3ptr13drop_in_placeINtNtB4_6option6OptionNCNvMs1_NtNtNtCscOYdFFY2T5N_3std4sync4mpmc4zeroINtB1a_7ChannelINtNtB4_6result6ResultNtCs4Wq06SSluyi_9jobserver8AcquiredNtNtNtB1g_2io5error5ErrorEE4send0EECsdARyWrlPtHl_2cc, symObjAddr: 0xD24, symBinAddr: 0x10006A6D4, symSize: 0x44 }
  - { offset: 0xD6EE2, size: 0x8, addend: 0x0, symName: __RINvNtCsfvfooZQ3Axs_4core3ptr13drop_in_placeINtNtB4_6option6OptionNtCsdARyWrlPtHl_2cc5ErrorEEB14_, symObjAddr: 0xD68, symBinAddr: 0x10006A718, symSize: 0x48 }
  - { offset: 0xD6F11, size: 0x8, addend: 0x0, symName: __RINvNtCsfvfooZQ3Axs_4core3ptr13drop_in_placeINtNtB4_6option6OptionNtNtCs4Wq06SSluyi_9jobserver3imp6HelperEECsdARyWrlPtHl_2cc, symObjAddr: 0xDB0, symBinAddr: 0x10006A760, symSize: 0x44 }
  - { offset: 0xD6F40, size: 0x8, addend: 0x0, symName: __RINvNtCsfvfooZQ3Axs_4core3ptr13drop_in_placeINtNtB4_6option6OptionNtNtCscOYdFFY2T5N_3std2fs4FileEECsdARyWrlPtHl_2cc, symObjAddr: 0xDF4, symBinAddr: 0x10006A7A4, symSize: 0x44 }
  - { offset: 0xD6F6F, size: 0x8, addend: 0x0, symName: __RINvNtCsfvfooZQ3Axs_4core3ptr13drop_in_placeINtNtB4_6option6OptionNtNtCscOYdFFY2T5N_3std4path7PathBufEECsdARyWrlPtHl_2cc, symObjAddr: 0xE38, symBinAddr: 0x10006A7E8, symSize: 0x48 }
  - { offset: 0xD6F9E, size: 0x8, addend: 0x0, symName: __RINvNtCsfvfooZQ3Axs_4core3ptr13drop_in_placeINtNtB4_6option6OptionNtNtCscOYdFFY2T5N_3std7process10ChildStdinEECsdARyWrlPtHl_2cc, symObjAddr: 0xE80, symBinAddr: 0x10006A830, symSize: 0x44 }
  - { offset: 0xD6FCD, size: 0x8, addend: 0x0, symName: __RINvNtCsfvfooZQ3Axs_4core3ptr13drop_in_placeINtNtB4_6option6OptionNtNtCscOYdFFY2T5N_3std7process11ChildStderrEECsdARyWrlPtHl_2cc, symObjAddr: 0xEC4, symBinAddr: 0x10006A874, symSize: 0x44 }
  - { offset: 0xD6FFC, size: 0x8, addend: 0x0, symName: __RINvNtCsfvfooZQ3Axs_4core3ptr13drop_in_placeINtNtB4_6option6OptionNtNtCscOYdFFY2T5N_3std7process11ChildStdoutEECsdARyWrlPtHl_2cc, symObjAddr: 0xF08, symBinAddr: 0x10006A8B8, symSize: 0x44 }
  - { offset: 0xD702B, size: 0x8, addend: 0x0, symName: __RINvNtCsfvfooZQ3Axs_4core3ptr13drop_in_placeINtNtB4_6option6OptionNtNtCscOYdFFY2T5N_3std7process7CommandEECsdARyWrlPtHl_2cc, symObjAddr: 0xF4C, symBinAddr: 0x10006A8FC, symSize: 0x48 }
  - { offset: 0xD705A, size: 0x8, addend: 0x0, symName: __RINvNtCsfvfooZQ3Axs_4core3ptr13drop_in_placeINtNtB4_6option6OptionNtNtCsdARyWrlPtHl_2cc4tool4ToolEEB16_, symObjAddr: 0xF94, symBinAddr: 0x10006A944, symSize: 0x48 }
  - { offset: 0xD7089, size: 0x8, addend: 0x0, symName: __RINvNtCsfvfooZQ3Axs_4core3ptr13drop_in_placeINtNtB4_6option6OptionNtNtNtCscOYdFFY2T5N_3std3ffi6os_str8OsStringEECsdARyWrlPtHl_2cc, symObjAddr: 0xFDC, symBinAddr: 0x10006A98C, symSize: 0x48 }
  - { offset: 0xD70B8, size: 0x8, addend: 0x0, symName: __RINvNtCsfvfooZQ3Axs_4core3ptr13drop_in_placeINtNtB4_6option6OptionNtNtNtCsdARyWrlPtHl_2cc7windows10find_tools3EnvEEB18_, symObjAddr: 0x1024, symBinAddr: 0x10006A9D4, symSize: 0x48 }
  - { offset: 0xD70E7, size: 0x8, addend: 0x0, symName: __RINvNtCsfvfooZQ3Axs_4core3ptr13drop_in_placeINtNtB4_6option6OptionNtNtNtCse1nGBsou5OW_5alloc3ffi5c_str7CStringEECsdARyWrlPtHl_2cc, symObjAddr: 0x106C, symBinAddr: 0x10006AA1C, symSize: 0x44 }
  - { offset: 0xD7116, size: 0x8, addend: 0x0, symName: __RINvNtCsfvfooZQ3Axs_4core3ptr13drop_in_placeINtNtB4_6option6OptionNtNtNtNtCscOYdFFY2T5N_3std4sync4mpmc5waker5EntryEECsdARyWrlPtHl_2cc, symObjAddr: 0x10B0, symBinAddr: 0x10006AA60, symSize: 0x44 }
  - { offset: 0xD7145, size: 0x8, addend: 0x0, symName: __RINvNtCsfvfooZQ3Axs_4core3ptr13drop_in_placeINtNtB4_6option6OptionNtNtNtNtCscOYdFFY2T5N_3std4sync4mpmc7context7ContextEECsdARyWrlPtHl_2cc, symObjAddr: 0x10F4, symBinAddr: 0x10006AAA4, symSize: 0x44 }
  - { offset: 0xD7174, size: 0x8, addend: 0x0, symName: __RINvNtCsfvfooZQ3Axs_4core3ptr13drop_in_placeINtNtB4_6option6OptionNtNtNtNtCsdARyWrlPtHl_2cc8parallel9job_token19inherited_jobserver12HelperThreadEEB1a_, symObjAddr: 0x1138, symBinAddr: 0x10006AAE8, symSize: 0x44 }
  - { offset: 0xD71A3, size: 0x8, addend: 0x0, symName: __RINvNtCsfvfooZQ3Axs_4core3ptr13drop_in_placeINtNtB4_6option6OptionNtNtNtNtNtNtCscOYdFFY2T5N_3std3sys3pal4unix7process14process_common5StdioEECsdARyWrlPtHl_2cc, symObjAddr: 0x117C, symBinAddr: 0x10006AB2C, symSize: 0x44 }
  - { offset: 0xD71D2, size: 0x8, addend: 0x0, symName: __RINvNtCsfvfooZQ3Axs_4core3ptr13drop_in_placeINtNtB4_6option6OptionTNtNtCscOYdFFY2T5N_3std7process11ChildStderrINtNtCse1nGBsou5OW_5alloc3vec3VechEEEECsdARyWrlPtHl_2cc, symObjAddr: 0x11C0, symBinAddr: 0x10006AB70, symSize: 0x48 }
  - { offset: 0xD7201, size: 0x8, addend: 0x0, symName: __RINvNtCsfvfooZQ3Axs_4core3ptr13drop_in_placeINtNtB4_6result6ResultINtNtCse1nGBsou5OW_5alloc3vec3VechENtCsdARyWrlPtHl_2cc5ErrorEEB1D_, symObjAddr: 0x1208, symBinAddr: 0x10006ABB8, symSize: 0x58 }
  - { offset: 0xD7230, size: 0x8, addend: 0x0, symName: __RINvNtCsfvfooZQ3Axs_4core3ptr13drop_in_placeINtNtB4_6result6ResultINtNtCse1nGBsou5OW_5alloc4sync3ArcNtNtNtCscOYdFFY2T5N_3std3ffi6os_str5OsStrENtCsdARyWrlPtHl_2cc5ErrorEEB2i_, symObjAddr: 0x1260, symBinAddr: 0x10006AC10, symSize: 0x58 }
  - { offset: 0xD725F, size: 0x8, addend: 0x0, symName: __RINvNtCsfvfooZQ3Axs_4core3ptr13drop_in_placeINtNtB4_6result6ResultINtNtCse1nGBsou5OW_5alloc6borrow3CowNtNtCscOYdFFY2T5N_3std4path4PathENtCsdARyWrlPtHl_2cc5ErrorEEB2b_, symObjAddr: 0x12B8, symBinAddr: 0x10006AC68, symSize: 0x58 }
  - { offset: 0xD728E, size: 0x8, addend: 0x0, symName: __RINvNtCsfvfooZQ3Axs_4core3ptr13drop_in_placeINtNtB4_6result6ResultINtNtNtB4_3num7nonzero7NonZerojENtNtNtCscOYdFFY2T5N_3std2io5error5ErrorEECsdARyWrlPtHl_2cc, symObjAddr: 0x1310, symBinAddr: 0x10006ACC0, symSize: 0x40 }
  - { offset: 0xD72BD, size: 0x8, addend: 0x0, symName: __RINvNtCsfvfooZQ3Axs_4core3ptr13drop_in_placeINtNtB4_6result6ResultNtCs4Wq06SSluyi_9jobserver8AcquiredNtNtNtCscOYdFFY2T5N_3std2io5error5ErrorEECsdARyWrlPtHl_2cc, symObjAddr: 0x1350, symBinAddr: 0x10006AD00, symSize: 0x54 }
  - { offset: 0xD72EC, size: 0x8, addend: 0x0, symName: __RINvNtCsfvfooZQ3Axs_4core3ptr13drop_in_placeINtNtB4_6result6ResultNtNtCscOYdFFY2T5N_3std2fs8MetadataNtNtNtB16_2io5error5ErrorEECsdARyWrlPtHl_2cc, symObjAddr: 0x13A4, symBinAddr: 0x10006AD54, symSize: 0x40 }
  - { offset: 0xD731B, size: 0x8, addend: 0x0, symName: __RINvNtCsfvfooZQ3Axs_4core3ptr13drop_in_placeINtNtB4_6result6ResultNtNtCscOYdFFY2T5N_3std7process10ExitStatusNtNtNtB16_2io5error5ErrorEECsdARyWrlPtHl_2cc, symObjAddr: 0x13E4, symBinAddr: 0x10006AD94, symSize: 0x40 }
  - { offset: 0xD734A, size: 0x8, addend: 0x0, symName: __RINvNtCsfvfooZQ3Axs_4core3ptr13drop_in_placeINtNtB4_6result6ResultNtNtCscOYdFFY2T5N_3std7process6OutputNtNtNtB16_2io5error5ErrorEECsdARyWrlPtHl_2cc, symObjAddr: 0x1424, symBinAddr: 0x10006ADD4, symSize: 0x5C }
  - { offset: 0xD7379, size: 0x8, addend: 0x0, symName: __RINvNtCsfvfooZQ3Axs_4core3ptr13drop_in_placeINtNtB4_6result6ResultNtNtCsdARyWrlPtHl_2cc4tool4ToolNtB16_5ErrorEEB16_, symObjAddr: 0x1480, symBinAddr: 0x10006AE30, symSize: 0x5C }
  - { offset: 0xD73A8, size: 0x8, addend: 0x0, symName: __RINvNtCsfvfooZQ3Axs_4core3ptr13drop_in_placeINtNtB4_6result6ResultNtNtCsdARyWrlPtHl_2cc6target10TargetInfoNtB16_5ErrorEEB16_, symObjAddr: 0x14DC, symBinAddr: 0x10006AE8C, symSize: 0x4C }
  - { offset: 0xD73D7, size: 0x8, addend: 0x0, symName: __RINvNtCsfvfooZQ3Axs_4core3ptr13drop_in_placeINtNtB4_6result6ResultNtNtCse1nGBsou5OW_5alloc6string6StringNtB14_13FromUtf8ErrorEECsdARyWrlPtHl_2cc, symObjAddr: 0x1528, symBinAddr: 0x10006AED8, symSize: 0x58 }
  - { offset: 0xD7406, size: 0x8, addend: 0x0, symName: __RINvNtCsfvfooZQ3Axs_4core3ptr13drop_in_placeINtNtB4_6result6ResultNtNtCse1nGBsou5OW_5alloc6string6StringNtCsdARyWrlPtHl_2cc5ErrorEEB1G_, symObjAddr: 0x1580, symBinAddr: 0x10006AF30, symSize: 0x58 }
  - { offset: 0xD7435, size: 0x8, addend: 0x0, symName: __RINvNtCsfvfooZQ3Axs_4core3ptr13drop_in_placeINtNtB4_6result6ResultNtNtCse1nGBsou5OW_5alloc6string6StringNtNtCscOYdFFY2T5N_3std3env8VarErrorEECsdARyWrlPtHl_2cc, symObjAddr: 0x15D8, symBinAddr: 0x10006AF88, symSize: 0x50 }
  - { offset: 0xD7464, size: 0x8, addend: 0x0, symName: __RINvNtCsfvfooZQ3Axs_4core3ptr13drop_in_placeINtNtB4_6result6ResultNtNtNtCsdARyWrlPtHl_2cc6target6parser21TargetInfoParserInnerNtB18_5ErrorEEB18_, symObjAddr: 0x1628, symBinAddr: 0x10006AFD8, symSize: 0x58 }
  - { offset: 0xD7493, size: 0x8, addend: 0x0, symName: __RINvNtCsfvfooZQ3Axs_4core3ptr13drop_in_placeINtNtB4_6result6ResultbNtCsdARyWrlPtHl_2cc5ErrorEEB15_, symObjAddr: 0x1680, symBinAddr: 0x10006B030, symSize: 0x48 }
  - { offset: 0xD74C2, size: 0x8, addend: 0x0, symName: __RINvNtCsfvfooZQ3Axs_4core3ptr13drop_in_placeINtNtB4_6result6ResultjNtCsdARyWrlPtHl_2cc5ErrorEEB15_, symObjAddr: 0x16C8, symBinAddr: 0x10006B078, symSize: 0x48 }
  - { offset: 0xD74F1, size: 0x8, addend: 0x0, symName: __RINvNtCsfvfooZQ3Axs_4core3ptr13drop_in_placeINtNtB4_6result6ResultuIBH_NtCs4Wq06SSluyi_9jobserver8AcquiredNtNtNtCscOYdFFY2T5N_3std2io5error5ErrorEEECsdARyWrlPtHl_2cc, symObjAddr: 0x1710, symBinAddr: 0x10006B0C0, symSize: 0x44 }
  - { offset: 0xD7520, size: 0x8, addend: 0x0, symName: __RINvNtCsfvfooZQ3Axs_4core3ptr13drop_in_placeINtNtB4_6result6ResultuINtNtNtCscOYdFFY2T5N_3std4sync4mpsc9SendErrorIBH_NtCs4Wq06SSluyi_9jobserver8AcquiredNtNtNtB1a_2io5error5ErrorEEEECsdARyWrlPtHl_2cc, symObjAddr: 0x1754, symBinAddr: 0x10006B104, symSize: 0x44 }
  - { offset: 0xD754F, size: 0x8, addend: 0x0, symName: __RINvNtCsfvfooZQ3Axs_4core3ptr13drop_in_placeINtNtB4_6result6ResultuINtNtNtNtCscOYdFFY2T5N_3std4sync4mpmc5error16SendTimeoutErrorIBH_NtCs4Wq06SSluyi_9jobserver8AcquiredNtNtNtB1c_2io5error5ErrorEEEECsdARyWrlPtHl_2cc, symObjAddr: 0x1798, symBinAddr: 0x10006B148, symSize: 0x44 }
  - { offset: 0xD757E, size: 0x8, addend: 0x0, symName: __RINvNtCsfvfooZQ3Axs_4core3ptr13drop_in_placeINtNtB4_6result6ResultuNtCsdARyWrlPtHl_2cc5ErrorEEB15_, symObjAddr: 0x17DC, symBinAddr: 0x10006B18C, symSize: 0x48 }
  - { offset: 0xD75AD, size: 0x8, addend: 0x0, symName: __RINvNtCsfvfooZQ3Axs_4core3ptr13drop_in_placeINtNtCsdARyWrlPtHl_2cc9utilities8OnceLockINtNtB4_6result6ResultNtNtNtBL_6target6parser21TargetInfoParserInnerNtBL_5ErrorEEEBL_, symObjAddr: 0x1824, symBinAddr: 0x10006B1D4, symSize: 0x24 }
  - { offset: 0xD75DC, size: 0x8, addend: 0x0, symName: __RINvNtCsfvfooZQ3Axs_4core3ptr13drop_in_placeINtNtCse1nGBsou5OW_5alloc3vec3VecINtNtBL_4sync3ArcNtNtCscOYdFFY2T5N_3std4path4PathEEECsdARyWrlPtHl_2cc, symObjAddr: 0x186C, symBinAddr: 0x10006B1F8, symSize: 0x5C }
  - { offset: 0xD760B, size: 0x8, addend: 0x0, symName: __RINvNtCsfvfooZQ3Axs_4core3ptr13drop_in_placeINtNtCse1nGBsou5OW_5alloc3vec3VecINtNtBL_4sync3ArcNtNtNtCscOYdFFY2T5N_3std3ffi6os_str5OsStrEEECsdARyWrlPtHl_2cc, symObjAddr: 0x18C8, symBinAddr: 0x10006B254, symSize: 0x5C }
  - { offset: 0xD763A, size: 0x8, addend: 0x0, symName: __RINvNtCsfvfooZQ3Axs_4core3ptr13drop_in_placeINtNtCse1nGBsou5OW_5alloc3vec3VecINtNtBL_5boxed3BoxDINtNtNtB4_3ops8function5FnMutuEp6OutputINtNtB4_6result6ResultuNtNtNtCscOYdFFY2T5N_3std2io5error5ErrorENtNtB4_6marker4SendNtB3c_4SyncEL_EEECsdARyWrlPtHl_2cc, symObjAddr: 0x1924, symBinAddr: 0x10006B2B0, symSize: 0x5C }
  - { offset: 0xD7669, size: 0x8, addend: 0x0, symName: __RINvNtCsfvfooZQ3Axs_4core3ptr13drop_in_placeINtNtCse1nGBsou5OW_5alloc3vec3VecINtNtBL_5boxed3BoxNtNtNtCscOYdFFY2T5N_3std3ffi6os_str5OsStrEEECsdARyWrlPtHl_2cc, symObjAddr: 0x1980, symBinAddr: 0x10006B30C, symSize: 0x5C }
  - { offset: 0xD7698, size: 0x8, addend: 0x0, symName: __RINvNtCsfvfooZQ3Axs_4core3ptr13drop_in_placeINtNtCse1nGBsou5OW_5alloc3vec3VecNtCsdARyWrlPtHl_2cc6ObjectEEB1f_, symObjAddr: 0x19DC, symBinAddr: 0x10006B368, symSize: 0x5C }
  - { offset: 0xD76C7, size: 0x8, addend: 0x0, symName: __RINvNtCsfvfooZQ3Axs_4core3ptr13drop_in_placeINtNtCse1nGBsou5OW_5alloc3vec3VecNtNtNtBL_3ffi5c_str7CStringEECsdARyWrlPtHl_2cc, symObjAddr: 0x1A38, symBinAddr: 0x10006B3C4, symSize: 0x5C }
  - { offset: 0xD76F6, size: 0x8, addend: 0x0, symName: __RINvNtCsfvfooZQ3Axs_4core3ptr13drop_in_placeINtNtCse1nGBsou5OW_5alloc3vec3VecNtNtNtCscOYdFFY2T5N_3std3ffi6os_str8OsStringEECsdARyWrlPtHl_2cc, symObjAddr: 0x1A94, symBinAddr: 0x10006B420, symSize: 0x5C }
  - { offset: 0xD7725, size: 0x8, addend: 0x0, symName: __RINvNtCsfvfooZQ3Axs_4core3ptr13drop_in_placeINtNtCse1nGBsou5OW_5alloc3vec3VecNtNtNtNtCscOYdFFY2T5N_3std4sync4mpmc5waker5EntryEECsdARyWrlPtHl_2cc, symObjAddr: 0x1AF0, symBinAddr: 0x10006B47C, symSize: 0x5C }
  - { offset: 0xD7754, size: 0x8, addend: 0x0, symName: __RINvNtCsfvfooZQ3Axs_4core3ptr13drop_in_placeINtNtCse1nGBsou5OW_5alloc3vec3VecPaEECsdARyWrlPtHl_2cc, symObjAddr: 0x1B4C, symBinAddr: 0x10006B4D8, symSize: 0x5C }
  - { offset: 0xD7783, size: 0x8, addend: 0x0, symName: __RINvNtCsfvfooZQ3Axs_4core3ptr13drop_in_placeINtNtCse1nGBsou5OW_5alloc3vec3VecRNtNtCscOYdFFY2T5N_3std4path4PathEECsdARyWrlPtHl_2cc, symObjAddr: 0x1BA8, symBinAddr: 0x10006B534, symSize: 0x5C }
  - { offset: 0xD77B2, size: 0x8, addend: 0x0, symName: __RINvNtCsfvfooZQ3Axs_4core3ptr13drop_in_placeINtNtCse1nGBsou5OW_5alloc3vec3VecRNtNtNtCscOYdFFY2T5N_3std3ffi6os_str8OsStringEECsdARyWrlPtHl_2cc, symObjAddr: 0x1C04, symBinAddr: 0x10006B590, symSize: 0x5C }
  - { offset: 0xD77E1, size: 0x8, addend: 0x0, symName: __RINvNtCsfvfooZQ3Axs_4core3ptr13drop_in_placeINtNtCse1nGBsou5OW_5alloc3vec3VecReEECsdARyWrlPtHl_2cc, symObjAddr: 0x1C60, symBinAddr: 0x10006B5EC, symSize: 0x5C }
  - { offset: 0xD7810, size: 0x8, addend: 0x0, symName: __RINvNtCsfvfooZQ3Axs_4core3ptr13drop_in_placeINtNtCse1nGBsou5OW_5alloc3vec3VecTINtNtBL_4sync3ArcNtNtNtCscOYdFFY2T5N_3std3ffi6os_str5OsStrEB1e_EEECsdARyWrlPtHl_2cc, symObjAddr: 0x1CBC, symBinAddr: 0x10006B648, symSize: 0x5C }
  - { offset: 0xD783F, size: 0x8, addend: 0x0, symName: __RINvNtCsfvfooZQ3Axs_4core3ptr13drop_in_placeINtNtCse1nGBsou5OW_5alloc3vec3VecTINtNtBL_4sync3ArceEINtNtB4_6option6OptionB1e_EEEECsdARyWrlPtHl_2cc, symObjAddr: 0x1D18, symBinAddr: 0x10006B6A4, symSize: 0x5C }
  - { offset: 0xD786E, size: 0x8, addend: 0x0, symName: __RINvNtCsfvfooZQ3Axs_4core3ptr13drop_in_placeINtNtCse1nGBsou5OW_5alloc3vec3VecTNtNtCscOYdFFY2T5N_3std7process7CommandNtNvMs4_CsdARyWrlPtHl_2ccNtB1Y_5Build15compile_objects10KillOnDropNtNtNtB1Y_8parallel9job_token8JobTokenEEEB1Y_, symObjAddr: 0x1D74, symBinAddr: 0x10006B700, symSize: 0x5C }
  - { offset: 0xD789D, size: 0x8, addend: 0x0, symName: __RINvNtCsfvfooZQ3Axs_4core3ptr13drop_in_placeINtNtCse1nGBsou5OW_5alloc3vec3VecTNtNtNtCscOYdFFY2T5N_3std3ffi6os_str8OsStringB1e_EEECsdARyWrlPtHl_2cc, symObjAddr: 0x1DD0, symBinAddr: 0x10006B75C, symSize: 0x5C }
  - { offset: 0xD78CC, size: 0x8, addend: 0x0, symName: __RINvNtCsfvfooZQ3Axs_4core3ptr13drop_in_placeINtNtCse1nGBsou5OW_5alloc4sync3ArcNtCsdARyWrlPtHl_2cc10BuildCacheEEB1g_, symObjAddr: 0x1E2C, symBinAddr: 0x10006B7B8, symSize: 0x24 }
  - { offset: 0xD78FB, size: 0x8, addend: 0x0, symName: __RINvNtCsfvfooZQ3Axs_4core3ptr13drop_in_placeINtNtCse1nGBsou5OW_5alloc4sync3ArcNtNtCscOYdFFY2T5N_3std4path4PathEECsdARyWrlPtHl_2cc, symObjAddr: 0x1E50, symBinAddr: 0x10006B7DC, symSize: 0x24 }
  - { offset: 0xD792A, size: 0x8, addend: 0x0, symName: __RINvNtCsfvfooZQ3Axs_4core3ptr13drop_in_placeINtNtCse1nGBsou5OW_5alloc4sync3ArcNtNtNtB4_4sync6atomic10AtomicBoolEECsdARyWrlPtHl_2cc, symObjAddr: 0x1E74, symBinAddr: 0x10006B800, symSize: 0x24 }
  - { offset: 0xD7959, size: 0x8, addend: 0x0, symName: __RINvNtCsfvfooZQ3Axs_4core3ptr13drop_in_placeINtNtCse1nGBsou5OW_5alloc4sync3ArcNtNtNtCscOYdFFY2T5N_3std3ffi6os_str5OsStrEECsdARyWrlPtHl_2cc, symObjAddr: 0x1E98, symBinAddr: 0x10006B824, symSize: 0x24 }
  - { offset: 0xD7988, size: 0x8, addend: 0x0, symName: __RINvNtCsfvfooZQ3Axs_4core3ptr13drop_in_placeINtNtCse1nGBsou5OW_5alloc4sync3ArcNtNtNtNtCscOYdFFY2T5N_3std4sync4mpmc7context5InnerEECsdARyWrlPtHl_2cc, symObjAddr: 0x1EBC, symBinAddr: 0x10006B848, symSize: 0x24 }
  - { offset: 0xD79B7, size: 0x8, addend: 0x0, symName: __RINvNtCsfvfooZQ3Axs_4core3ptr13drop_in_placeINtNtCse1nGBsou5OW_5alloc4sync3ArceEECsdARyWrlPtHl_2cc, symObjAddr: 0x1EE0, symBinAddr: 0x10006B86C, symSize: 0x24 }
  - { offset: 0xD79E6, size: 0x8, addend: 0x0, symName: __RINvNtCsfvfooZQ3Axs_4core3ptr13drop_in_placeINtNtCse1nGBsou5OW_5alloc4sync4WeakNtCsdARyWrlPtHl_2cc10BuildCacheRNtNtBL_5alloc6GlobalEEB1h_, symObjAddr: 0x1F04, symBinAddr: 0x10006B890, symSize: 0x24 }
  - { offset: 0xD7A15, size: 0x8, addend: 0x0, symName: __RINvNtCsfvfooZQ3Axs_4core3ptr13drop_in_placeINtNtCse1nGBsou5OW_5alloc4sync4WeakNtNtCscOYdFFY2T5N_3std4path4PathRNtNtBL_5alloc6GlobalEECsdARyWrlPtHl_2cc, symObjAddr: 0x1F28, symBinAddr: 0x10006B8B4, symSize: 0x24 }
  - { offset: 0xD7A44, size: 0x8, addend: 0x0, symName: __RINvNtCsfvfooZQ3Axs_4core3ptr13drop_in_placeINtNtCse1nGBsou5OW_5alloc4sync4WeakNtNtNtB4_4sync6atomic10AtomicBoolRNtNtBL_5alloc6GlobalEECsdARyWrlPtHl_2cc, symObjAddr: 0x1F4C, symBinAddr: 0x10006B8D8, symSize: 0x24 }
  - { offset: 0xD7A73, size: 0x8, addend: 0x0, symName: __RINvNtCsfvfooZQ3Axs_4core3ptr13drop_in_placeINtNtCse1nGBsou5OW_5alloc4sync4WeakNtNtNtCscOYdFFY2T5N_3std3ffi6os_str5OsStrRNtNtBL_5alloc6GlobalEECsdARyWrlPtHl_2cc, symObjAddr: 0x1F70, symBinAddr: 0x10006B8FC, symSize: 0x24 }
  - { offset: 0xD7AA2, size: 0x8, addend: 0x0, symName: __RINvNtCsfvfooZQ3Axs_4core3ptr13drop_in_placeINtNtCse1nGBsou5OW_5alloc4sync4WeakeRNtNtBL_5alloc6GlobalEECsdARyWrlPtHl_2cc, symObjAddr: 0x1F94, symBinAddr: 0x10006B920, symSize: 0x24 }
  - { offset: 0xD7AD1, size: 0x8, addend: 0x0, symName: __RINvNtCsfvfooZQ3Axs_4core3ptr13drop_in_placeINtNtCse1nGBsou5OW_5alloc4sync8ArcInnerNtCs4Wq06SSluyi_9jobserver11HelperStateEECsdARyWrlPtHl_2cc, symObjAddr: 0x1FB8, symBinAddr: 0x10006B944, symSize: 0x24 }
  - { offset: 0xD7B00, size: 0x8, addend: 0x0, symName: __RINvNtCsfvfooZQ3Axs_4core3ptr13drop_in_placeINtNtCse1nGBsou5OW_5alloc5boxed3BoxDINtNtNtB4_3ops8function5FnMutuEp6OutputINtNtB4_6result6ResultuNtNtNtCscOYdFFY2T5N_3std2io5error5ErrorENtNtB4_6marker4SendNtB2W_4SyncEL_EECsdARyWrlPtHl_2cc, symObjAddr: 0x1FDC, symBinAddr: 0x10006B968, symSize: 0x80 }
  - { offset: 0xD7B2F, size: 0x8, addend: 0x0, symName: __RINvNtCsfvfooZQ3Axs_4core3ptr13drop_in_placeINtNtCse1nGBsou5OW_5alloc5boxed3BoxINtNtNtB4_3mem12maybe_uninit11MaybeUninitINtNtBL_4sync8ArcInnerNtCsdARyWrlPtHl_2cc10BuildCacheEEEEB2i_, symObjAddr: 0x205C, symBinAddr: 0x10006B9E8, symSize: 0x2C }
  - { offset: 0xD7B5E, size: 0x8, addend: 0x0, symName: __RINvNtCsfvfooZQ3Axs_4core3ptr13drop_in_placeINtNtCse1nGBsou5OW_5alloc5boxed3BoxINtNtNtNtCscOYdFFY2T5N_3std4sync4mpmc4list5BlockINtNtB4_6result6ResultNtCs4Wq06SSluyi_9jobserver8AcquiredNtNtNtB1o_2io5error5ErrorEEEECsdARyWrlPtHl_2cc, symObjAddr: 0x2088, symBinAddr: 0x10006BA14, symSize: 0x2C }
  - { offset: 0xD7B8D, size: 0x8, addend: 0x0, symName: __RINvNtCsfvfooZQ3Axs_4core3ptr13drop_in_placeINtNtCse1nGBsou5OW_5alloc5boxed3BoxINtNtNtNtCscOYdFFY2T5N_3std4sync4mpmc4zero6PacketINtNtB4_6result6ResultNtCs4Wq06SSluyi_9jobserver8AcquiredNtNtNtB1o_2io5error5ErrorEEEECsdARyWrlPtHl_2cc, symObjAddr: 0x20B4, symBinAddr: 0x10006BA40, symSize: 0x60 }
  - { offset: 0xD7BBC, size: 0x8, addend: 0x0, symName: __RINvNtCsfvfooZQ3Axs_4core3ptr13drop_in_placeINtNtCse1nGBsou5OW_5alloc5boxed3BoxINtNtNtNtCscOYdFFY2T5N_3std4sync4mpmc7counter7CounterINtNtB1k_4list7ChannelINtNtB4_6result6ResultNtCs4Wq06SSluyi_9jobserver8AcquiredNtNtNtB1o_2io5error5ErrorEEEEECsdARyWrlPtHl_2cc, symObjAddr: 0x2114, symBinAddr: 0x10006BAA0, symSize: 0x60 }
  - { offset: 0xD7BEB, size: 0x8, addend: 0x0, symName: __RINvNtCsfvfooZQ3Axs_4core3ptr13drop_in_placeINtNtCse1nGBsou5OW_5alloc5boxed3BoxINtNtNtNtCscOYdFFY2T5N_3std4sync4mpmc7counter7CounterINtNtB1k_4zero7ChannelINtNtB4_6result6ResultNtCs4Wq06SSluyi_9jobserver8AcquiredNtNtNtB1o_2io5error5ErrorEEEEECsdARyWrlPtHl_2cc, symObjAddr: 0x2174, symBinAddr: 0x10006BB00, symSize: 0x60 }
  - { offset: 0xD7C1A, size: 0x8, addend: 0x0, symName: __RINvNtCsfvfooZQ3Axs_4core3ptr13drop_in_placeINtNtCse1nGBsou5OW_5alloc5boxed3BoxINtNtNtNtCscOYdFFY2T5N_3std4sync4mpmc7counter7CounterINtNtB1k_5array7ChannelINtNtB4_6result6ResultNtCs4Wq06SSluyi_9jobserver8AcquiredNtNtNtB1o_2io5error5ErrorEEEEECsdARyWrlPtHl_2cc, symObjAddr: 0x21D4, symBinAddr: 0x10006BB60, symSize: 0x60 }
  - { offset: 0xD7C49, size: 0x8, addend: 0x0, symName: __RINvNtCsfvfooZQ3Axs_4core3ptr13drop_in_placeINtNtCse1nGBsou5OW_5alloc5boxed3BoxNtNtNtCscOYdFFY2T5N_3std3ffi6os_str5OsStrEECsdARyWrlPtHl_2cc, symObjAddr: 0x2234, symBinAddr: 0x10006BBC0, symSize: 0x2C }
  - { offset: 0xD7C78, size: 0x8, addend: 0x0, symName: __RINvNtCsfvfooZQ3Axs_4core3ptr13drop_in_placeINtNtCse1nGBsou5OW_5alloc5boxed3BoxSIBH_NtNtNtCscOYdFFY2T5N_3std3ffi6os_str5OsStrEEECsdARyWrlPtHl_2cc, symObjAddr: 0x2260, symBinAddr: 0x10006BBEC, symSize: 0x68 }
  - { offset: 0xD7CA7, size: 0x8, addend: 0x0, symName: __RINvNtCsfvfooZQ3Axs_4core3ptr13drop_in_placeINtNtCse1nGBsou5OW_5alloc5boxed3BoxSINtNtNtNtCscOYdFFY2T5N_3std4sync4mpmc5array4SlotINtNtB4_6result6ResultNtCs4Wq06SSluyi_9jobserver8AcquiredNtNtNtB1p_2io5error5ErrorEEEECsdARyWrlPtHl_2cc, symObjAddr: 0x22C8, symBinAddr: 0x10006BC54, symSize: 0x2C }
  - { offset: 0xD7CD6, size: 0x8, addend: 0x0, symName: __RINvNtCsfvfooZQ3Axs_4core3ptr13drop_in_placeINtNtCse1nGBsou5OW_5alloc5boxed3BoxShEECsdARyWrlPtHl_2cc, symObjAddr: 0x22F4, symBinAddr: 0x10006BC80, symSize: 0x2C }
  - { offset: 0xD7D05, size: 0x8, addend: 0x0, symName: __RINvNtCsfvfooZQ3Axs_4core3ptr13drop_in_placeINtNtCse1nGBsou5OW_5alloc5boxed3BoxSmEECsdARyWrlPtHl_2cc, symObjAddr: 0x2320, symBinAddr: 0x10006BCAC, symSize: 0x2C }
  - { offset: 0xD7D34, size: 0x8, addend: 0x0, symName: __RINvNtCsfvfooZQ3Axs_4core3ptr13drop_in_placeINtNtCse1nGBsou5OW_5alloc5boxed3BoxeEECsdARyWrlPtHl_2cc, symObjAddr: 0x234C, symBinAddr: 0x10006BCD8, symSize: 0x2C }
  - { offset: 0xD7D63, size: 0x8, addend: 0x0, symName: __RINvNtCsfvfooZQ3Axs_4core3ptr13drop_in_placeINtNtCse1nGBsou5OW_5alloc6borrow3CowNtNtCscOYdFFY2T5N_3std4path4PathEECsdARyWrlPtHl_2cc, symObjAddr: 0x2378, symBinAddr: 0x10006BD04, symSize: 0x48 }
