---
triple:          'arm64-apple-darwin'
binary-path:     '/Users/cedric/orange/ran-llm-claude-flow/src/rust-pipeline/target/debug/build/mime_guess-b721b67750f19999/build_script_build-b721b67750f19999'
relocations:
  - { offset: 0x1E, size: 0x8, addend: 0x0, symName: __RINvMNtNtNtCse1nGBsou5OW_5alloc11collections5btree4nodeINtB3_8LeafNodeINtCslWi6RoPHlIL_7unicase7UniCaseReEINtNtB5_3map8BTreeMapB16_INtNtB9_3vec3VecB1D_EEE3newNtNtB9_5alloc6GlobalECs1CdsUpMPkdx_18build_script_build, symObjAddr: 0x0, symBinAddr: 0x100000BF0, symSize: 0x68 }
  - { offset: 0xA247, size: 0x8, addend: 0x0, symName: __RINvNtNtNtCse1nGBsou5OW_5alloc11collections5btree4node12slice_insertINtCslWi6RoPHlIL_7unicase7UniCaseReEECs1CdsUpMPkdx_18build_script_build, symObjAddr: 0x4058, symBinAddr: 0x100004C48, symSize: 0x150 }
  - { offset: 0xA3CE, size: 0x8, addend: 0x0, symName: __RINvNtNtNtCse1nGBsou5OW_5alloc11collections5btree4node12slice_insertINtNtB4_3map8BTreeMapINtCslWi6RoPHlIL_7unicase7UniCaseReEINtNtB8_3vec3VecB1W_EEECs1CdsUpMPkdx_18build_script_build, symObjAddr: 0x41A8, symBinAddr: 0x100004D98, symSize: 0x150 }
  - { offset: 0xA555, size: 0x8, addend: 0x0, symName: __RINvNtNtNtCse1nGBsou5OW_5alloc11collections5btree4node12slice_insertINtNtB8_3vec3VecReEECs1CdsUpMPkdx_18build_script_build, symObjAddr: 0x42F8, symBinAddr: 0x100004EE8, symSize: 0x150 }
  - { offset: 0xA6DC, size: 0x8, addend: 0x0, symName: __RINvNtNtNtCse1nGBsou5OW_5alloc11collections5btree4node12slice_insertINtNtNtCsfvfooZQ3Axs_4core3ptr8non_null7NonNullINtB2_8LeafNodeINtCslWi6RoPHlIL_7unicase7UniCaseReEINtNtB4_3map8BTreeMapB24_INtNtB8_3vec3VecB2B_EEEEECs1CdsUpMPkdx_18build_script_build, symObjAddr: 0x4448, symBinAddr: 0x100005038, symSize: 0x114 }
  - { offset: 0xA860, size: 0x8, addend: 0x0, symName: __RINvNtNtNtCse1nGBsou5OW_5alloc11collections5btree4node12slice_insertINtNtNtCsfvfooZQ3Axs_4core3ptr8non_null7NonNullINtB2_8LeafNodeINtCslWi6RoPHlIL_7unicase7UniCaseReEINtNtB8_3vec3VecB2B_EEEECs1CdsUpMPkdx_18build_script_build, symObjAddr: 0x455C, symBinAddr: 0x10000514C, symSize: 0x114 }
  - { offset: 0xA9E4, size: 0x8, addend: 0x0, symName: __RINvNtNtNtCse1nGBsou5OW_5alloc11collections5btree4node13move_to_sliceINtCslWi6RoPHlIL_7unicase7UniCaseReEECs1CdsUpMPkdx_18build_script_build, symObjAddr: 0x4670, symBinAddr: 0x100005260, symSize: 0xB0 }
  - { offset: 0xAA90, size: 0x8, addend: 0x0, symName: __RINvNtNtNtCse1nGBsou5OW_5alloc11collections5btree4node13move_to_sliceINtNtB4_3map8BTreeMapINtCslWi6RoPHlIL_7unicase7UniCaseReEINtNtB8_3vec3VecB1X_EEECs1CdsUpMPkdx_18build_script_build, symObjAddr: 0x4720, symBinAddr: 0x100005310, symSize: 0xB0 }
  - { offset: 0xAB3C, size: 0x8, addend: 0x0, symName: __RINvNtNtNtCse1nGBsou5OW_5alloc11collections5btree4node13move_to_sliceINtNtB8_3vec3VecReEECs1CdsUpMPkdx_18build_script_build, symObjAddr: 0x47D0, symBinAddr: 0x1000053C0, symSize: 0xB0 }
  - { offset: 0xABE8, size: 0x8, addend: 0x0, symName: __RINvNtNtNtCse1nGBsou5OW_5alloc11collections5btree4node13move_to_sliceINtNtNtCsfvfooZQ3Axs_4core3ptr8non_null7NonNullINtB2_8LeafNodeINtCslWi6RoPHlIL_7unicase7UniCaseReEINtNtB4_3map8BTreeMapB25_INtNtB8_3vec3VecB2C_EEEEECs1CdsUpMPkdx_18build_script_build, symObjAddr: 0x4880, symBinAddr: 0x100005470, symSize: 0xA8 }
  - { offset: 0xAC94, size: 0x8, addend: 0x0, symName: __RINvNtNtNtCse1nGBsou5OW_5alloc11collections5btree4node13move_to_sliceINtNtNtCsfvfooZQ3Axs_4core3ptr8non_null7NonNullINtB2_8LeafNodeINtCslWi6RoPHlIL_7unicase7UniCaseReEINtNtB8_3vec3VecB2C_EEEECs1CdsUpMPkdx_18build_script_build, symObjAddr: 0x4928, symBinAddr: 0x100005518, symSize: 0xA8 }
  - { offset: 0xAD4A, size: 0x8, addend: 0x0, symName: __RNCINvMss_NtNtNtCse1nGBsou5OW_5alloc11collections5btree4nodeINtB8_7NodeRefNtNtB8_6marker5OwnedINtCslWi6RoPHlIL_7unicase7UniCaseReEINtNtBa_3map8BTreeMapB1u_INtNtBe_3vec3VecB21_EENtB1c_14LeafOrInternalE19push_internal_levelNtNtBe_5alloc6GlobalE0Cs1CdsUpMPkdx_18build_script_build, symObjAddr: 0x49D0, symBinAddr: 0x1000055C0, symSize: 0x34 }
  - { offset: 0xADA3, size: 0x8, addend: 0x0, symName: __RNCINvMss_NtNtNtCse1nGBsou5OW_5alloc11collections5btree4nodeINtB8_7NodeRefNtNtB8_6marker5OwnedINtCslWi6RoPHlIL_7unicase7UniCaseReEINtNtBe_3vec3VecB21_ENtB1c_14LeafOrInternalE19push_internal_levelNtNtBe_5alloc6GlobalE0Cs1CdsUpMPkdx_18build_script_build, symObjAddr: 0x4A04, symBinAddr: 0x1000055F4, symSize: 0x34 }
  - { offset: 0xB3E5, size: 0x8, addend: 0x0, symName: __RNvXNvMsT_NtNtNtCse1nGBsou5OW_5alloc11collections5btree4nodeINtB8_6HandleINtB8_7NodeRefNtNtB8_6marker5DyingpppENtB1p_2KVE12drop_key_valINtB2_7DropperINtNtBa_3map8BTreeMapINtCslWi6RoPHlIL_7unicase7UniCaseReEINtNtBe_3vec3VecB3f_EEENtNtNtCsfvfooZQ3Axs_4core3ops4drop4Drop4dropCs1CdsUpMPkdx_18build_script_build, symObjAddr: 0x82A8, symBinAddr: 0x100008E98, symSize: 0x2C }
  - { offset: 0xB436, size: 0x8, addend: 0x0, symName: __RNvXNvMsT_NtNtNtCse1nGBsou5OW_5alloc11collections5btree4nodeINtB8_6HandleINtB8_7NodeRefNtNtB8_6marker5DyingpppENtB1p_2KVE12drop_key_valINtB2_7DropperINtNtBe_3vec3VecReEENtNtNtCsfvfooZQ3Axs_4core3ops4drop4Drop4dropCs1CdsUpMPkdx_18build_script_build, symObjAddr: 0x82D4, symBinAddr: 0x100008EC4, symSize: 0x2C }
  - { offset: 0xC221, size: 0x8, addend: 0x0, symName: __RINvMNtNtNtCse1nGBsou5OW_5alloc11collections5btree4nodeINtB3_8LeafNodeINtCslWi6RoPHlIL_7unicase7UniCaseReEINtNtB5_3map8BTreeMapB16_INtNtB9_3vec3VecB1D_EEE3newNtNtB9_5alloc6GlobalECs1CdsUpMPkdx_18build_script_build, symObjAddr: 0x0, symBinAddr: 0x100000BF0, symSize: 0x68 }
  - { offset: 0xC4A6, size: 0x8, addend: 0x0, symName: __RINvMNtNtNtCse1nGBsou5OW_5alloc11collections5btree4nodeINtB3_8LeafNodeINtCslWi6RoPHlIL_7unicase7UniCaseReEINtNtB9_3vec3VecB1D_EE3newNtNtB9_5alloc6GlobalECs1CdsUpMPkdx_18build_script_build, symObjAddr: 0x68, symBinAddr: 0x100000C58, symSize: 0x68 }
  - { offset: 0xC801, size: 0x8, addend: 0x0, symName: __RINvMs0_NtNtNtCse1nGBsou5OW_5alloc11collections5btree6searchINtNtB8_4node7NodeRefNtNtBZ_6marker3MutINtCslWi6RoPHlIL_7unicase7UniCaseReEINtNtB8_3map8BTreeMapB1z_INtNtBc_3vec3VecB26_EENtB1j_14LeafOrInternalE14find_key_indexB1z_ECs1CdsUpMPkdx_18build_script_build, symObjAddr: 0xD0, symBinAddr: 0x100000CC0, symSize: 0x1E4 }
  - { offset: 0xCC5C, size: 0x8, addend: 0x0, symName: __RINvMs0_NtNtNtCse1nGBsou5OW_5alloc11collections5btree6searchINtNtB8_4node7NodeRefNtNtBZ_6marker3MutINtCslWi6RoPHlIL_7unicase7UniCaseReEINtNtBc_3vec3VecB26_ENtB1j_14LeafOrInternalE14find_key_indexB1z_ECs1CdsUpMPkdx_18build_script_build, symObjAddr: 0x2B4, symBinAddr: 0x100000EA4, symSize: 0x1E4 }
  - { offset: 0xD019, size: 0x8, addend: 0x0, symName: __RINvMs8_NtNtNtCse1nGBsou5OW_5alloc11collections5btree4nodeINtB6_7NodeRefNtNtB6_6marker5OwnedINtCslWi6RoPHlIL_7unicase7UniCaseReEINtNtB8_3map8BTreeMapB1s_INtNtBc_3vec3VecB1Z_EENtB1a_4LeafE8new_leafNtNtBc_5alloc6GlobalECs1CdsUpMPkdx_18build_script_build, symObjAddr: 0x498, symBinAddr: 0x100001088, symSize: 0x38 }
  - { offset: 0xD0E8, size: 0x8, addend: 0x0, symName: __RINvMs8_NtNtNtCse1nGBsou5OW_5alloc11collections5btree4nodeINtB6_7NodeRefNtNtB6_6marker5OwnedINtCslWi6RoPHlIL_7unicase7UniCaseReEINtNtBc_3vec3VecB1Z_ENtB1a_4LeafE8new_leafNtNtBc_5alloc6GlobalECs1CdsUpMPkdx_18build_script_build, symObjAddr: 0x4D0, symBinAddr: 0x1000010C0, symSize: 0x38 }
  - { offset: 0xD1F9, size: 0x8, addend: 0x0, symName: __RINvMs9_NtNtNtCse1nGBsou5OW_5alloc11collections5btree4nodeINtB6_7NodeRefNtNtB6_6marker5OwnedINtCslWi6RoPHlIL_7unicase7UniCaseReEINtNtB8_3map8BTreeMapB1s_INtNtBc_3vec3VecB1Z_EENtB1a_8InternalE12new_internalNtNtBc_5alloc6GlobalECs1CdsUpMPkdx_18build_script_build, symObjAddr: 0x508, symBinAddr: 0x1000010F8, symSize: 0x98 }
  - { offset: 0xD451, size: 0x8, addend: 0x0, symName: __RINvMs9_NtNtNtCse1nGBsou5OW_5alloc11collections5btree4nodeINtB6_7NodeRefNtNtB6_6marker5OwnedINtCslWi6RoPHlIL_7unicase7UniCaseReEINtNtB8_3map8BTreeMapB1s_INtNtBc_3vec3VecB1Z_EENtB1a_8InternalE17from_new_internalNtNtBc_5alloc6GlobalECs1CdsUpMPkdx_18build_script_build, symObjAddr: 0x5A0, symBinAddr: 0x100001190, symSize: 0xC0 }
  - { offset: 0xD66A, size: 0x8, addend: 0x0, symName: __RINvMs9_NtNtNtCse1nGBsou5OW_5alloc11collections5btree4nodeINtB6_7NodeRefNtNtB6_6marker5OwnedINtCslWi6RoPHlIL_7unicase7UniCaseReEINtNtBc_3vec3VecB1Z_ENtB1a_8InternalE12new_internalNtNtBc_5alloc6GlobalECs1CdsUpMPkdx_18build_script_build, symObjAddr: 0x660, symBinAddr: 0x100001250, symSize: 0x98 }
  - { offset: 0xD89D, size: 0x8, addend: 0x0, symName: __RINvMs9_NtNtNtCse1nGBsou5OW_5alloc11collections5btree4nodeINtB6_7NodeRefNtNtB6_6marker5OwnedINtCslWi6RoPHlIL_7unicase7UniCaseReEINtNtBc_3vec3VecB1Z_ENtB1a_8InternalE17from_new_internalNtNtBc_5alloc6GlobalECs1CdsUpMPkdx_18build_script_build, symObjAddr: 0x6F8, symBinAddr: 0x1000012E8, symSize: 0xC0 }
  - { offset: 0xDCCB, size: 0x8, addend: 0x0, symName: __RINvMsK_NtNtNtCse1nGBsou5OW_5alloc11collections5btree4nodeINtB6_6HandleINtB6_7NodeRefNtNtB6_6marker3MutINtCslWi6RoPHlIL_7unicase7UniCaseReEINtNtB8_3map8BTreeMapB1D_INtNtBc_3vec3VecB2a_EENtB1n_4LeafENtB1n_4EdgeE6insertNtNtBc_5alloc6GlobalECs1CdsUpMPkdx_18build_script_build, symObjAddr: 0x7B8, symBinAddr: 0x1000013A8, symSize: 0x540 }
  - { offset: 0xE188, size: 0x8, addend: 0x0, symName: __RINvMsK_NtNtNtCse1nGBsou5OW_5alloc11collections5btree4nodeINtB6_6HandleINtB6_7NodeRefNtNtB6_6marker3MutINtCslWi6RoPHlIL_7unicase7UniCaseReEINtNtBc_3vec3VecB2a_ENtB1n_4LeafENtB1n_4EdgeE6insertNtNtBc_5alloc6GlobalECs1CdsUpMPkdx_18build_script_build, symObjAddr: 0xCF8, symBinAddr: 0x1000018E8, symSize: 0x540 }
  - { offset: 0xE59A, size: 0x8, addend: 0x0, symName: __RINvMsM_NtNtNtCse1nGBsou5OW_5alloc11collections5btree4nodeINtB6_6HandleINtB6_7NodeRefNtNtB6_6marker3MutINtCslWi6RoPHlIL_7unicase7UniCaseReEINtNtB8_3map8BTreeMapB1D_INtNtBc_3vec3VecB2a_EENtB1n_8InternalENtB1n_4EdgeE6insertNtNtBc_5alloc6GlobalECs1CdsUpMPkdx_18build_script_build, symObjAddr: 0x1238, symBinAddr: 0x100001E28, symSize: 0x5C8 }
  - { offset: 0xE8F8, size: 0x8, addend: 0x0, symName: __RINvMsM_NtNtNtCse1nGBsou5OW_5alloc11collections5btree4nodeINtB6_6HandleINtB6_7NodeRefNtNtB6_6marker3MutINtCslWi6RoPHlIL_7unicase7UniCaseReEINtNtBc_3vec3VecB2a_ENtB1n_8InternalENtB1n_4EdgeE6insertNtNtBc_5alloc6GlobalECs1CdsUpMPkdx_18build_script_build, symObjAddr: 0x1800, symBinAddr: 0x1000023F0, symSize: 0x5C8 }
  - { offset: 0xEBCB, size: 0x8, addend: 0x0, symName: __RINvMsN_NtNtNtCse1nGBsou5OW_5alloc11collections5btree4nodeINtB6_6HandleINtB6_7NodeRefNtNtB6_6marker3MutINtCslWi6RoPHlIL_7unicase7UniCaseReEINtNtB8_3map8BTreeMapB1D_INtNtBc_3vec3VecB2a_EENtB1n_4LeafENtB1n_4EdgeE16insert_recursingNtNtBc_5alloc6GlobalNCNvMs6_NtB2g_5entryINtB46_11VacantEntryB1D_B2d_E12insert_entry0ECs1CdsUpMPkdx_18build_script_build, symObjAddr: 0x1DC8, symBinAddr: 0x1000029B8, symSize: 0x534 }
  - { offset: 0xEEF4, size: 0x8, addend: 0x0, symName: __RINvMsN_NtNtNtCse1nGBsou5OW_5alloc11collections5btree4nodeINtB6_6HandleINtB6_7NodeRefNtNtB6_6marker3MutINtCslWi6RoPHlIL_7unicase7UniCaseReEINtNtBc_3vec3VecB2a_ENtB1n_4LeafENtB1n_4EdgeE16insert_recursingNtNtBc_5alloc6GlobalNCNvMs6_NtNtB8_3map5entryINtB3G_11VacantEntryB1D_B2d_E12insert_entry0ECs1CdsUpMPkdx_18build_script_build, symObjAddr: 0x22FC, symBinAddr: 0x100002EEC, symSize: 0x534 }
  - { offset: 0xF1A0, size: 0x8, addend: 0x0, symName: __RINvMsV_NtNtNtCse1nGBsou5OW_5alloc11collections5btree4nodeINtB6_6HandleINtB6_7NodeRefNtNtB6_6marker3MutINtCslWi6RoPHlIL_7unicase7UniCaseReEINtNtB8_3map8BTreeMapB1D_INtNtBc_3vec3VecB2a_EENtB1n_4LeafENtB1n_2KVE5splitNtNtBc_5alloc6GlobalECs1CdsUpMPkdx_18build_script_build, symObjAddr: 0x2830, symBinAddr: 0x100003420, symSize: 0x100 }
  - { offset: 0xF2C9, size: 0x8, addend: 0x0, symName: __RINvMsV_NtNtNtCse1nGBsou5OW_5alloc11collections5btree4nodeINtB6_6HandleINtB6_7NodeRefNtNtB6_6marker3MutINtCslWi6RoPHlIL_7unicase7UniCaseReEINtNtBc_3vec3VecB2a_ENtB1n_4LeafENtB1n_2KVE5splitNtNtBc_5alloc6GlobalECs1CdsUpMPkdx_18build_script_build, symObjAddr: 0x2930, symBinAddr: 0x100003520, symSize: 0x100 }
  - { offset: 0xF528, size: 0x8, addend: 0x0, symName: __RINvMsW_NtNtNtCse1nGBsou5OW_5alloc11collections5btree4nodeINtB6_6HandleINtB6_7NodeRefNtNtB6_6marker3MutINtCslWi6RoPHlIL_7unicase7UniCaseReEINtNtB8_3map8BTreeMapB1D_INtNtBc_3vec3VecB2a_EENtB1n_8InternalENtB1n_2KVE5splitNtNtBc_5alloc6GlobalECs1CdsUpMPkdx_18build_script_build, symObjAddr: 0x2A30, symBinAddr: 0x100003620, symSize: 0x260 }
  - { offset: 0xF99D, size: 0x8, addend: 0x0, symName: __RINvMsW_NtNtNtCse1nGBsou5OW_5alloc11collections5btree4nodeINtB6_6HandleINtB6_7NodeRefNtNtB6_6marker3MutINtCslWi6RoPHlIL_7unicase7UniCaseReEINtNtBc_3vec3VecB2a_ENtB1n_8InternalENtB1n_2KVE5splitNtNtBc_5alloc6GlobalECs1CdsUpMPkdx_18build_script_build, symObjAddr: 0x2C90, symBinAddr: 0x100003880, symSize: 0x260 }
  - { offset: 0xFD40, size: 0x8, addend: 0x0, symName: __RINvMs_NtNtNtCse1nGBsou5OW_5alloc11collections5btree4nodeINtB5_12InternalNodeINtCslWi6RoPHlIL_7unicase7UniCaseReEINtNtB7_3map8BTreeMapB1d_INtNtBb_3vec3VecB1K_EEE3newNtNtBb_5alloc6GlobalECs1CdsUpMPkdx_18build_script_build, symObjAddr: 0x2EF0, symBinAddr: 0x100003AE0, symSize: 0x68 }
  - { offset: 0xFF58, size: 0x8, addend: 0x0, symName: __RINvMs_NtNtNtCse1nGBsou5OW_5alloc11collections5btree4nodeINtB5_12InternalNodeINtCslWi6RoPHlIL_7unicase7UniCaseReEINtNtBb_3vec3VecB1K_EE3newNtNtBb_5alloc6GlobalECs1CdsUpMPkdx_18build_script_build, symObjAddr: 0x2F58, symBinAddr: 0x100003B48, symSize: 0x68 }
  - { offset: 0x1024F, size: 0x8, addend: 0x0, symName: __RINvMs_NtNtNtCse1nGBsou5OW_5alloc11collections5btree6searchINtNtB7_4node7NodeRefNtNtBY_6marker3MutINtCslWi6RoPHlIL_7unicase7UniCaseReEINtNtB7_3map8BTreeMapB1y_INtNtBb_3vec3VecB25_EENtB1i_14LeafOrInternalE11search_treeB1y_ECs1CdsUpMPkdx_18build_script_build, symObjAddr: 0x2FC0, symBinAddr: 0x100003BB0, symSize: 0x240 }
  - { offset: 0x10594, size: 0x8, addend: 0x0, symName: __RINvMs_NtNtNtCse1nGBsou5OW_5alloc11collections5btree6searchINtNtB7_4node7NodeRefNtNtBY_6marker3MutINtCslWi6RoPHlIL_7unicase7UniCaseReEINtNtBb_3vec3VecB25_ENtB1i_14LeafOrInternalE11search_treeB1y_ECs1CdsUpMPkdx_18build_script_build, symObjAddr: 0x3200, symBinAddr: 0x100003DF0, symSize: 0x240 }
  - { offset: 0x10867, size: 0x8, addend: 0x0, symName: __RINvMsh_NtNtNtCse1nGBsou5OW_5alloc11collections5btree4nodeINtB6_7NodeRefNtNtB6_6marker5DyingINtCslWi6RoPHlIL_7unicase7UniCaseReEINtNtB8_3map8BTreeMapB1s_INtNtBc_3vec3VecB1Z_EENtB1a_14LeafOrInternalE21deallocate_and_ascendNtNtBc_5alloc6GlobalECs1CdsUpMPkdx_18build_script_build, symObjAddr: 0x3440, symBinAddr: 0x100004030, symSize: 0x178 }
  - { offset: 0x10ADA, size: 0x8, addend: 0x0, symName: __RINvMsh_NtNtNtCse1nGBsou5OW_5alloc11collections5btree4nodeINtB6_7NodeRefNtNtB6_6marker5DyingINtCslWi6RoPHlIL_7unicase7UniCaseReEINtNtBc_3vec3VecB1Z_ENtB1a_14LeafOrInternalE21deallocate_and_ascendNtNtBc_5alloc6GlobalECs1CdsUpMPkdx_18build_script_build, symObjAddr: 0x35B8, symBinAddr: 0x1000041A8, symSize: 0x178 }
  - { offset: 0x10D20, size: 0x8, addend: 0x0, symName: __RINvMsj_NtNtNtCse1nGBsou5OW_5alloc11collections5btree8navigateINtNtB8_4node6HandleINtB11_7NodeRefNtNtB11_6marker5DyingINtCslWi6RoPHlIL_7unicase7UniCaseReEINtNtB8_3map8BTreeMapB1S_INtNtBc_3vec3VecB2p_EENtB1z_4LeafENtB1z_4EdgeE16deallocating_endNtNtBc_5alloc6GlobalECs1CdsUpMPkdx_18build_script_build, symObjAddr: 0x3730, symBinAddr: 0x100004320, symSize: 0xD8 }
  - { offset: 0x10F94, size: 0x8, addend: 0x0, symName: __RINvMsj_NtNtNtCse1nGBsou5OW_5alloc11collections5btree8navigateINtNtB8_4node6HandleINtB11_7NodeRefNtNtB11_6marker5DyingINtCslWi6RoPHlIL_7unicase7UniCaseReEINtNtB8_3map8BTreeMapB1S_INtNtBc_3vec3VecB2p_EENtB1z_4LeafENtB1z_4EdgeE17deallocating_nextNtNtBc_5alloc6GlobalECs1CdsUpMPkdx_18build_script_build, symObjAddr: 0x3808, symBinAddr: 0x1000043F8, symSize: 0x254 }
  - { offset: 0x111C8, size: 0x8, addend: 0x0, symName: __RINvMsj_NtNtNtCse1nGBsou5OW_5alloc11collections5btree8navigateINtNtB8_4node6HandleINtB11_7NodeRefNtNtB11_6marker5DyingINtCslWi6RoPHlIL_7unicase7UniCaseReEINtNtBc_3vec3VecB2p_ENtB1z_4LeafENtB1z_4EdgeE16deallocating_endNtNtBc_5alloc6GlobalECs1CdsUpMPkdx_18build_script_build, symObjAddr: 0x3A5C, symBinAddr: 0x10000464C, symSize: 0xD8 }
  - { offset: 0x1143C, size: 0x8, addend: 0x0, symName: __RINvMsj_NtNtNtCse1nGBsou5OW_5alloc11collections5btree8navigateINtNtB8_4node6HandleINtB11_7NodeRefNtNtB11_6marker5DyingINtCslWi6RoPHlIL_7unicase7UniCaseReEINtNtBc_3vec3VecB2p_ENtB1z_4LeafENtB1z_4EdgeE17deallocating_nextNtNtBc_5alloc6GlobalECs1CdsUpMPkdx_18build_script_build, symObjAddr: 0x3B34, symBinAddr: 0x100004724, symSize: 0x254 }
  - { offset: 0x11687, size: 0x8, addend: 0x0, symName: __RINvMsp_NtNtNtCse1nGBsou5OW_5alloc11collections5btree4nodeINtB6_7NodeRefNtNtB6_6marker3MutINtCslWi6RoPHlIL_7unicase7UniCaseReEINtNtB8_3map8BTreeMapB1q_INtNtBc_3vec3VecB1X_EENtB1a_8InternalE30correct_childrens_parent_linksINtNtNtCsfvfooZQ3Axs_4core3ops5range14RangeInclusivejEECs1CdsUpMPkdx_18build_script_build, symObjAddr: 0x3D88, symBinAddr: 0x100004978, symSize: 0xB4 }
  - { offset: 0x117BE, size: 0x8, addend: 0x0, symName: __RINvMsp_NtNtNtCse1nGBsou5OW_5alloc11collections5btree4nodeINtB6_7NodeRefNtNtB6_6marker3MutINtCslWi6RoPHlIL_7unicase7UniCaseReEINtNtB8_3map8BTreeMapB1q_INtNtBc_3vec3VecB1X_EENtB1a_8InternalE30correct_childrens_parent_linksINtNtNtCsfvfooZQ3Axs_4core3ops5range5RangejEECs1CdsUpMPkdx_18build_script_build, symObjAddr: 0x3E3C, symBinAddr: 0x100004A2C, symSize: 0xB4 }
  - { offset: 0x118F4, size: 0x8, addend: 0x0, symName: __RINvMsp_NtNtNtCse1nGBsou5OW_5alloc11collections5btree4nodeINtB6_7NodeRefNtNtB6_6marker3MutINtCslWi6RoPHlIL_7unicase7UniCaseReEINtNtBc_3vec3VecB1X_ENtB1a_8InternalE30correct_childrens_parent_linksINtNtNtCsfvfooZQ3Axs_4core3ops5range14RangeInclusivejEECs1CdsUpMPkdx_18build_script_build, symObjAddr: 0x3EF0, symBinAddr: 0x100004AE0, symSize: 0xB4 }
  - { offset: 0x11A2B, size: 0x8, addend: 0x0, symName: __RINvMsp_NtNtNtCse1nGBsou5OW_5alloc11collections5btree4nodeINtB6_7NodeRefNtNtB6_6marker3MutINtCslWi6RoPHlIL_7unicase7UniCaseReEINtNtBc_3vec3VecB1X_ENtB1a_8InternalE30correct_childrens_parent_linksINtNtNtCsfvfooZQ3Axs_4core3ops5range5RangejEECs1CdsUpMPkdx_18build_script_build, symObjAddr: 0x3FA4, symBinAddr: 0x100004B94, symSize: 0xB4 }
  - { offset: 0x11F9C, size: 0x8, addend: 0x0, symName: __RNvMsJ_NtNtNtCse1nGBsou5OW_5alloc11collections5btree4nodeINtB5_6HandleINtB5_7NodeRefNtNtB5_6marker3MutINtCslWi6RoPHlIL_7unicase7UniCaseReEINtNtB7_3map8BTreeMapB1C_INtNtBb_3vec3VecB29_EENtB1m_4LeafENtB1m_4EdgeE10insert_fitCs1CdsUpMPkdx_18build_script_build, symObjAddr: 0x4A38, symBinAddr: 0x100005628, symSize: 0x200 }
  - { offset: 0x124FB, size: 0x8, addend: 0x0, symName: __RNvMsJ_NtNtNtCse1nGBsou5OW_5alloc11collections5btree4nodeINtB5_6HandleINtB5_7NodeRefNtNtB5_6marker3MutINtCslWi6RoPHlIL_7unicase7UniCaseReEINtNtBb_3vec3VecB29_ENtB1m_4LeafENtB1m_4EdgeE10insert_fitCs1CdsUpMPkdx_18build_script_build, symObjAddr: 0x4C38, symBinAddr: 0x100005828, symSize: 0x200 }
  - { offset: 0x1297F, size: 0x8, addend: 0x0, symName: __RNvMsL_NtNtNtCse1nGBsou5OW_5alloc11collections5btree4nodeINtB5_6HandleINtB5_7NodeRefNtNtB5_6marker3MutINtCslWi6RoPHlIL_7unicase7UniCaseReEINtNtB7_3map8BTreeMapB1C_INtNtBb_3vec3VecB29_EENtB1m_8InternalENtB1m_4EdgeE19correct_parent_linkCs1CdsUpMPkdx_18build_script_build, symObjAddr: 0x4E38, symBinAddr: 0x100005A28, symSize: 0xA4 }
  - { offset: 0x12BAD, size: 0x8, addend: 0x0, symName: __RNvMsL_NtNtNtCse1nGBsou5OW_5alloc11collections5btree4nodeINtB5_6HandleINtB5_7NodeRefNtNtB5_6marker3MutINtCslWi6RoPHlIL_7unicase7UniCaseReEINtNtBb_3vec3VecB29_ENtB1m_8InternalENtB1m_4EdgeE19correct_parent_linkCs1CdsUpMPkdx_18build_script_build, symObjAddr: 0x4EDC, symBinAddr: 0x100005ACC, symSize: 0xA4 }
  - { offset: 0x12EF9, size: 0x8, addend: 0x0, symName: __RNvMsM_NtNtNtCse1nGBsou5OW_5alloc11collections5btree4nodeINtB5_6HandleINtB5_7NodeRefNtNtB5_6marker3MutINtCslWi6RoPHlIL_7unicase7UniCaseReEINtNtB7_3map8BTreeMapB1C_INtNtBb_3vec3VecB29_EENtB1m_8InternalENtB1m_4EdgeE10insert_fitCs1CdsUpMPkdx_18build_script_build, symObjAddr: 0x4F80, symBinAddr: 0x100005B70, symSize: 0x298 }
  - { offset: 0x135A8, size: 0x8, addend: 0x0, symName: __RNvMsM_NtNtNtCse1nGBsou5OW_5alloc11collections5btree4nodeINtB5_6HandleINtB5_7NodeRefNtNtB5_6marker3MutINtCslWi6RoPHlIL_7unicase7UniCaseReEINtNtBb_3vec3VecB29_ENtB1m_8InternalENtB1m_4EdgeE10insert_fitCs1CdsUpMPkdx_18build_script_build, symObjAddr: 0x5218, symBinAddr: 0x100005E08, symSize: 0x298 }
  - { offset: 0x13B01, size: 0x8, addend: 0x0, symName: __RNvMsO_NtNtNtCse1nGBsou5OW_5alloc11collections5btree4nodeINtB5_6HandleINtB5_7NodeRefNtNtB5_6marker3MutINtCslWi6RoPHlIL_7unicase7UniCaseReEINtNtB7_3map8BTreeMapB1C_INtNtBb_3vec3VecB29_EENtB1m_8InternalENtB1m_4EdgeE7descendCs1CdsUpMPkdx_18build_script_build, symObjAddr: 0x54B0, symBinAddr: 0x1000060A0, symSize: 0x94 }
  - { offset: 0x13D12, size: 0x8, addend: 0x0, symName: __RNvMsO_NtNtNtCse1nGBsou5OW_5alloc11collections5btree4nodeINtB5_6HandleINtB5_7NodeRefNtNtB5_6marker3MutINtCslWi6RoPHlIL_7unicase7UniCaseReEINtNtBb_3vec3VecB29_ENtB1m_8InternalENtB1m_4EdgeE7descendCs1CdsUpMPkdx_18build_script_build, symObjAddr: 0x5544, symBinAddr: 0x100006134, symSize: 0x94 }
  - { offset: 0x13EF8, size: 0x8, addend: 0x0, symName: __RNvMsO_NtNtNtCse1nGBsou5OW_5alloc11collections5btree4nodeINtB5_6HandleINtB5_7NodeRefNtNtB5_6marker5DyingINtCslWi6RoPHlIL_7unicase7UniCaseReEINtNtB7_3map8BTreeMapB1E_INtNtBb_3vec3VecB2b_EENtB1m_8InternalENtB1m_4EdgeE7descendCs1CdsUpMPkdx_18build_script_build, symObjAddr: 0x55D8, symBinAddr: 0x1000061C8, symSize: 0x94 }
  - { offset: 0x140DE, size: 0x8, addend: 0x0, symName: __RNvMsO_NtNtNtCse1nGBsou5OW_5alloc11collections5btree4nodeINtB5_6HandleINtB5_7NodeRefNtNtB5_6marker5DyingINtCslWi6RoPHlIL_7unicase7UniCaseReEINtNtBb_3vec3VecB2b_ENtB1m_8InternalENtB1m_4EdgeE7descendCs1CdsUpMPkdx_18build_script_build, symObjAddr: 0x566C, symBinAddr: 0x10000625C, symSize: 0x94 }
  - { offset: 0x142C7, size: 0x8, addend: 0x0, symName: __RNvMsQ_NtNtNtCse1nGBsou5OW_5alloc11collections5btree4nodeINtB5_6HandleINtB5_7NodeRefNtNtB5_6marker3MutINtCslWi6RoPHlIL_7unicase7UniCaseReEINtNtB7_3map8BTreeMapB1C_INtNtBb_3vec3VecB29_EENtB1m_14LeafOrInternalENtB1m_2KVE12into_val_mutCs1CdsUpMPkdx_18build_script_build, symObjAddr: 0x5700, symBinAddr: 0x1000062F0, symSize: 0x8C }
  - { offset: 0x14444, size: 0x8, addend: 0x0, symName: __RNvMsQ_NtNtNtCse1nGBsou5OW_5alloc11collections5btree4nodeINtB5_6HandleINtB5_7NodeRefNtNtB5_6marker3MutINtCslWi6RoPHlIL_7unicase7UniCaseReEINtNtBb_3vec3VecB29_ENtB1m_14LeafOrInternalENtB1m_2KVE12into_val_mutCs1CdsUpMPkdx_18build_script_build, symObjAddr: 0x578C, symBinAddr: 0x10000637C, symSize: 0x8C }
  - { offset: 0x145E9, size: 0x8, addend: 0x0, symName: __RNvMsT_NtNtNtCse1nGBsou5OW_5alloc11collections5btree4nodeINtB5_6HandleINtB5_7NodeRefNtNtB5_6marker5DyingINtCslWi6RoPHlIL_7unicase7UniCaseReEINtNtB7_3map8BTreeMapB1E_INtNtBb_3vec3VecB2b_EENtB1m_14LeafOrInternalENtB1m_2KVE12drop_key_valCs1CdsUpMPkdx_18build_script_build, symObjAddr: 0x5818, symBinAddr: 0x100006408, symSize: 0xF8 }
  - { offset: 0x148E3, size: 0x8, addend: 0x0, symName: __RNvMsT_NtNtNtCse1nGBsou5OW_5alloc11collections5btree4nodeINtB5_6HandleINtB5_7NodeRefNtNtB5_6marker5DyingINtCslWi6RoPHlIL_7unicase7UniCaseReEINtNtB7_3map8BTreeMapB1E_INtNtBb_3vec3VecB2b_EENtB1m_14LeafOrInternalENtB1m_2KVE12into_key_valCs1CdsUpMPkdx_18build_script_build, symObjAddr: 0x5910, symBinAddr: 0x100006500, symSize: 0x150 }
  - { offset: 0x14C3C, size: 0x8, addend: 0x0, symName: __RNvMsT_NtNtNtCse1nGBsou5OW_5alloc11collections5btree4nodeINtB5_6HandleINtB5_7NodeRefNtNtB5_6marker5DyingINtCslWi6RoPHlIL_7unicase7UniCaseReEINtNtBb_3vec3VecB2b_ENtB1m_14LeafOrInternalENtB1m_2KVE12drop_key_valCs1CdsUpMPkdx_18build_script_build, symObjAddr: 0x5A60, symBinAddr: 0x100006650, symSize: 0xF8 }
  - { offset: 0x14F36, size: 0x8, addend: 0x0, symName: __RNvMsT_NtNtNtCse1nGBsou5OW_5alloc11collections5btree4nodeINtB5_6HandleINtB5_7NodeRefNtNtB5_6marker5DyingINtCslWi6RoPHlIL_7unicase7UniCaseReEINtNtBb_3vec3VecB2b_ENtB1m_14LeafOrInternalENtB1m_2KVE12into_key_valCs1CdsUpMPkdx_18build_script_build, symObjAddr: 0x5B58, symBinAddr: 0x100006748, symSize: 0x150 }
  - { offset: 0x1546A, size: 0x8, addend: 0x0, symName: __RNvMsU_NtNtNtCse1nGBsou5OW_5alloc11collections5btree4nodeINtB5_6HandleINtB5_7NodeRefNtNtB5_6marker3MutINtCslWi6RoPHlIL_7unicase7UniCaseReEINtNtB7_3map8BTreeMapB1C_INtNtBb_3vec3VecB29_EENtB1m_4LeafENtB1m_2KVE15split_leaf_dataCs1CdsUpMPkdx_18build_script_build, symObjAddr: 0x5CA8, symBinAddr: 0x100006898, symSize: 0x40C }
  - { offset: 0x15EB8, size: 0x8, addend: 0x0, symName: __RNvMsU_NtNtNtCse1nGBsou5OW_5alloc11collections5btree4nodeINtB5_6HandleINtB5_7NodeRefNtNtB5_6marker3MutINtCslWi6RoPHlIL_7unicase7UniCaseReEINtNtB7_3map8BTreeMapB1C_INtNtBb_3vec3VecB29_EENtB1m_8InternalENtB1m_2KVE15split_leaf_dataCs1CdsUpMPkdx_18build_script_build, symObjAddr: 0x60B4, symBinAddr: 0x100006CA4, symSize: 0x40C }
  - { offset: 0x16906, size: 0x8, addend: 0x0, symName: __RNvMsU_NtNtNtCse1nGBsou5OW_5alloc11collections5btree4nodeINtB5_6HandleINtB5_7NodeRefNtNtB5_6marker3MutINtCslWi6RoPHlIL_7unicase7UniCaseReEINtNtBb_3vec3VecB29_ENtB1m_4LeafENtB1m_2KVE15split_leaf_dataCs1CdsUpMPkdx_18build_script_build, symObjAddr: 0x64C0, symBinAddr: 0x1000070B0, symSize: 0x40C }
  - { offset: 0x17354, size: 0x8, addend: 0x0, symName: __RNvMsU_NtNtNtCse1nGBsou5OW_5alloc11collections5btree4nodeINtB5_6HandleINtB5_7NodeRefNtNtB5_6marker3MutINtCslWi6RoPHlIL_7unicase7UniCaseReEINtNtBb_3vec3VecB29_ENtB1m_8InternalENtB1m_2KVE15split_leaf_dataCs1CdsUpMPkdx_18build_script_build, symObjAddr: 0x68CC, symBinAddr: 0x1000074BC, symSize: 0x40C }
  - { offset: 0x17C49, size: 0x8, addend: 0x0, symName: __RNvMse_NtNtNtCse1nGBsou5OW_5alloc11collections5btree4nodeINtB5_7NodeRefNtNtB5_6marker3MutINtCslWi6RoPHlIL_7unicase7UniCaseReEINtNtB7_3map8BTreeMapB1p_INtNtBb_3vec3VecB1W_EENtB19_14LeafOrInternalE6ascendCs1CdsUpMPkdx_18build_script_build, symObjAddr: 0x6CD8, symBinAddr: 0x1000078C8, symSize: 0x168 }
  - { offset: 0x17EB4, size: 0x8, addend: 0x0, symName: __RNvMse_NtNtNtCse1nGBsou5OW_5alloc11collections5btree4nodeINtB5_7NodeRefNtNtB5_6marker3MutINtCslWi6RoPHlIL_7unicase7UniCaseReEINtNtBb_3vec3VecB1W_ENtB19_14LeafOrInternalE6ascendCs1CdsUpMPkdx_18build_script_build, symObjAddr: 0x6E40, symBinAddr: 0x100007A30, symSize: 0x168 }
  - { offset: 0x180F8, size: 0x8, addend: 0x0, symName: __RNvMse_NtNtNtCse1nGBsou5OW_5alloc11collections5btree4nodeINtB5_7NodeRefNtNtB5_6marker5DyingINtCslWi6RoPHlIL_7unicase7UniCaseReEINtNtB7_3map8BTreeMapB1r_INtNtBb_3vec3VecB1Y_EENtB19_14LeafOrInternalE6ascendCs1CdsUpMPkdx_18build_script_build, symObjAddr: 0x6FA8, symBinAddr: 0x100007B98, symSize: 0x168 }
  - { offset: 0x1833C, size: 0x8, addend: 0x0, symName: __RNvMse_NtNtNtCse1nGBsou5OW_5alloc11collections5btree4nodeINtB5_7NodeRefNtNtB5_6marker5DyingINtCslWi6RoPHlIL_7unicase7UniCaseReEINtNtBb_3vec3VecB1Y_ENtB19_14LeafOrInternalE6ascendCs1CdsUpMPkdx_18build_script_build, symObjAddr: 0x7110, symBinAddr: 0x100007D00, symSize: 0x168 }
  - { offset: 0x18554, size: 0x8, addend: 0x0, symName: __RNvMsg_NtNtNtCse1nGBsou5OW_5alloc11collections5btree4nodeINtB5_7NodeRefNtNtB5_6marker5ImmutINtCslWi6RoPHlIL_7unicase7UniCaseReEINtNtB7_3map8BTreeMapB1r_INtNtBb_3vec3VecB1Y_EENtB19_14LeafOrInternalE4keysCs1CdsUpMPkdx_18build_script_build, symObjAddr: 0x7278, symBinAddr: 0x100007E68, symSize: 0xA0 }
  - { offset: 0x1872D, size: 0x8, addend: 0x0, symName: __RNvMsg_NtNtNtCse1nGBsou5OW_5alloc11collections5btree4nodeINtB5_7NodeRefNtNtB5_6marker5ImmutINtCslWi6RoPHlIL_7unicase7UniCaseReEINtNtBb_3vec3VecB1Y_ENtB19_14LeafOrInternalE4keysCs1CdsUpMPkdx_18build_script_build, symObjAddr: 0x7318, symBinAddr: 0x100007F08, symSize: 0xA0 }
  - { offset: 0x18A96, size: 0x8, addend: 0x0, symName: __RNvMsp_NtNtNtCse1nGBsou5OW_5alloc11collections5btree8navigateINtNtB7_4node6HandleINtB10_7NodeRefNtNtB10_6marker5DyingINtCslWi6RoPHlIL_7unicase7UniCaseReEINtNtB7_3map8BTreeMapB1R_INtNtBb_3vec3VecB2o_EENtB1y_14LeafOrInternalENtB1y_2KVE14next_leaf_edgeCs1CdsUpMPkdx_18build_script_build, symObjAddr: 0x73B8, symBinAddr: 0x100007FA8, symSize: 0x210 }
  - { offset: 0x18F06, size: 0x8, addend: 0x0, symName: __RNvMsp_NtNtNtCse1nGBsou5OW_5alloc11collections5btree8navigateINtNtB7_4node6HandleINtB10_7NodeRefNtNtB10_6marker5DyingINtCslWi6RoPHlIL_7unicase7UniCaseReEINtNtBb_3vec3VecB2o_ENtB1y_14LeafOrInternalENtB1y_2KVE14next_leaf_edgeCs1CdsUpMPkdx_18build_script_build, symObjAddr: 0x75C8, symBinAddr: 0x1000081B8, symSize: 0x210 }
  - { offset: 0x19378, size: 0x8, addend: 0x0, symName: __RNvMsu_NtNtNtCse1nGBsou5OW_5alloc11collections5btree4nodeINtB5_7NodeRefNtNtB5_6marker3MutINtCslWi6RoPHlIL_7unicase7UniCaseReEINtNtB7_3map8BTreeMapB1p_INtNtBb_3vec3VecB1W_EENtB19_4LeafE16push_with_handleCs1CdsUpMPkdx_18build_script_build, symObjAddr: 0x77D8, symBinAddr: 0x1000083C8, symSize: 0x238 }
  - { offset: 0x19952, size: 0x8, addend: 0x0, symName: __RNvMsu_NtNtNtCse1nGBsou5OW_5alloc11collections5btree4nodeINtB5_7NodeRefNtNtB5_6marker3MutINtCslWi6RoPHlIL_7unicase7UniCaseReEINtNtBb_3vec3VecB1W_ENtB19_4LeafE16push_with_handleCs1CdsUpMPkdx_18build_script_build, symObjAddr: 0x7A10, symBinAddr: 0x100008600, symSize: 0x238 }
  - { offset: 0x1A034, size: 0x8, addend: 0x0, symName: __RNvMsv_NtNtNtCse1nGBsou5OW_5alloc11collections5btree4nodeINtB5_7NodeRefNtNtB5_6marker3MutINtCslWi6RoPHlIL_7unicase7UniCaseReEINtNtB7_3map8BTreeMapB1p_INtNtBb_3vec3VecB1W_EENtB19_8InternalE4pushCs1CdsUpMPkdx_18build_script_build, symObjAddr: 0x7C48, symBinAddr: 0x100008838, symSize: 0x330 }
  - { offset: 0x1A8A3, size: 0x8, addend: 0x0, symName: __RNvMsv_NtNtNtCse1nGBsou5OW_5alloc11collections5btree4nodeINtB5_7NodeRefNtNtB5_6marker3MutINtCslWi6RoPHlIL_7unicase7UniCaseReEINtNtBb_3vec3VecB1W_ENtB19_8InternalE4pushCs1CdsUpMPkdx_18build_script_build, symObjAddr: 0x7F78, symBinAddr: 0x100008B68, symSize: 0x330 }
  - { offset: 0x1AE64, size: 0x8, addend: 0x0, symName: __RINvMNtCscOYdFFY2T5N_3std2fsNtB3_4File6createRNtNtB5_4path7PathBufECs1CdsUpMPkdx_18build_script_build, symObjAddr: 0x0, symBinAddr: 0x100008EF0, symSize: 0xC0 }
  - { offset: 0x1AF50, size: 0x8, addend: 0x0, symName: __RNvNvMs9_NtCsfvfooZQ3Axs_4core3numj13unchecked_add18precondition_checkCs1CdsUpMPkdx_18build_script_build, symObjAddr: 0x1EE4, symBinAddr: 0x10000ADD4, symSize: 0x44 }
  - { offset: 0x1BE15, size: 0x8, addend: 0x0, symName: __RNvXs_NvNtNtCsfvfooZQ3Axs_4core3fmt5Write9write_fmtQINtNvNtNtCscOYdFFY2T5N_3std2io5Write9write_fmt7AdapterINtNtNtBV_8buffered9bufwriter9BufWriterNtNtBX_2fs4FileEENtB4_12SpecWriteFmt14spec_write_fmtCs1CdsUpMPkdx_18build_script_build, symObjAddr: 0x2E60, symBinAddr: 0x10000BD50, symSize: 0x164 }
  - { offset: 0x1BEC2, size: 0x8, addend: 0x0, symName: __RNvXs_NvNtNtCsfvfooZQ3Axs_4core3fmt5Write9write_fmtQINtNvNtNtCscOYdFFY2T5N_3std2io5Write9write_fmt7AdapterNtNtNtNtNtBX_3sys3pal4unix5stdio6StderrENtB4_12SpecWriteFmt14spec_write_fmtCs1CdsUpMPkdx_18build_script_build, symObjAddr: 0x2FC4, symBinAddr: 0x10000BEB4, symSize: 0x164 }
  - { offset: 0x1BF71, size: 0x8, addend: 0x0, symName: __RNvYINtNvNtNtCscOYdFFY2T5N_3std2io5Write9write_fmt7AdapterINtNtNtB9_8buffered9bufwriter9BufWriterNtNtBb_2fs4FileEENtNtCsfvfooZQ3Axs_4core3fmt5Write10write_charCs1CdsUpMPkdx_18build_script_build, symObjAddr: 0x3A44, symBinAddr: 0x10000C934, symSize: 0x70 }
  - { offset: 0x1BFD9, size: 0x8, addend: 0x0, symName: __RNvYINtNvNtNtCscOYdFFY2T5N_3std2io5Write9write_fmt7AdapterINtNtNtB9_8buffered9bufwriter9BufWriterNtNtBb_2fs4FileEENtNtCsfvfooZQ3Axs_4core3fmt5Write9write_fmtCs1CdsUpMPkdx_18build_script_build, symObjAddr: 0x3AB4, symBinAddr: 0x10000C9A4, symSize: 0x24 }
  - { offset: 0x1C01D, size: 0x8, addend: 0x0, symName: __RNvYINtNvNtNtCscOYdFFY2T5N_3std2io5Write9write_fmt7AdapterNtNtNtNtNtBb_3sys3pal4unix5stdio6StderrENtNtCsfvfooZQ3Axs_4core3fmt5Write10write_charCs1CdsUpMPkdx_18build_script_build, symObjAddr: 0x3AD8, symBinAddr: 0x10000C9C8, symSize: 0x70 }
  - { offset: 0x1C085, size: 0x8, addend: 0x0, symName: __RNvYINtNvNtNtCscOYdFFY2T5N_3std2io5Write9write_fmt7AdapterNtNtNtNtNtBb_3sys3pal4unix5stdio6StderrENtNtCsfvfooZQ3Axs_4core3fmt5Write9write_fmtCs1CdsUpMPkdx_18build_script_build, symObjAddr: 0x3B48, symBinAddr: 0x10000CA38, symSize: 0x24 }
  - { offset: 0x1CFC4, size: 0x8, addend: 0x0, symName: __RNvXs2_NtNtCsfvfooZQ3Axs_4core5slice5indexINtNtNtB9_3ops5range5RangejEINtB5_10SliceIndexSINtNtNtB9_3mem12maybe_uninit11MaybeUninitINtCslWi6RoPHlIL_7unicase7UniCaseReEEE9index_mutCs1CdsUpMPkdx_18build_script_build, symObjAddr: 0x24D4, symBinAddr: 0x10000B3C4, symSize: 0xC8 }
  - { offset: 0x1D089, size: 0x8, addend: 0x0, symName: __RNvXs2_NtNtCsfvfooZQ3Axs_4core5slice5indexINtNtNtB9_3ops5range5RangejEINtB5_10SliceIndexSINtNtNtB9_3mem12maybe_uninit11MaybeUninitINtNtCse1nGBsou5OW_5alloc3vec3VecReEEE9index_mutCs1CdsUpMPkdx_18build_script_build, symObjAddr: 0x259C, symBinAddr: 0x10000B48C, symSize: 0xC8 }
  - { offset: 0x1D14E, size: 0x8, addend: 0x0, symName: __RNvXs2_NtNtCsfvfooZQ3Axs_4core5slice5indexINtNtNtB9_3ops5range5RangejEINtB5_10SliceIndexSINtNtNtB9_3mem12maybe_uninit11MaybeUninitINtNtNtB9_3ptr8non_null7NonNullINtNtNtNtCse1nGBsou5OW_5alloc11collections5btree4node8LeafNodeINtCslWi6RoPHlIL_7unicase7UniCaseReEINtNtB2E_3map8BTreeMapB3z_INtNtB2I_3vec3VecB46_EEEEEE9index_mutCs1CdsUpMPkdx_18build_script_build, symObjAddr: 0x2664, symBinAddr: 0x10000B554, symSize: 0xC0 }
  - { offset: 0x1D213, size: 0x8, addend: 0x0, symName: __RNvXs2_NtNtCsfvfooZQ3Axs_4core5slice5indexINtNtNtB9_3ops5range5RangejEINtB5_10SliceIndexSINtNtNtB9_3mem12maybe_uninit11MaybeUninitINtNtNtB9_3ptr8non_null7NonNullINtNtNtNtCse1nGBsou5OW_5alloc11collections5btree4node8LeafNodeINtCslWi6RoPHlIL_7unicase7UniCaseReEINtNtB2I_3vec3VecB46_EEEEE9index_mutCs1CdsUpMPkdx_18build_script_build, symObjAddr: 0x2724, symBinAddr: 0x10000B614, symSize: 0xC0 }
  - { offset: 0x1D2D8, size: 0x8, addend: 0x0, symName: __RNvXs2_NtNtCsfvfooZQ3Axs_4core5slice5indexINtNtNtB9_3ops5range5RangejEINtB5_10SliceIndexSINtNtNtB9_3mem12maybe_uninit11MaybeUninitINtNtNtNtCse1nGBsou5OW_5alloc11collections5btree3map8BTreeMapINtCslWi6RoPHlIL_7unicase7UniCaseReEINtNtB2d_3vec3VecB3A_EEEE9index_mutCs1CdsUpMPkdx_18build_script_build, symObjAddr: 0x27E4, symBinAddr: 0x10000B6D4, symSize: 0xC8 }
  - { offset: 0x1D56E, size: 0x8, addend: 0x0, symName: __RNvXs5_NtNtCsfvfooZQ3Axs_4core5slice5indexINtNtNtB9_3ops5range9RangeFromjEINtB5_10SliceIndexShE5indexCs1CdsUpMPkdx_18build_script_build, symObjAddr: 0x2A1C, symBinAddr: 0x10000B90C, symSize: 0x88 }
  - { offset: 0x1DB1C, size: 0x8, addend: 0x0, symName: __RINvNtNtCsfvfooZQ3Axs_4core3str11validations15next_code_pointINtNtNtB6_5slice4iter4IterhEECs1CdsUpMPkdx_18build_script_build, symObjAddr: 0x640, symBinAddr: 0x100009530, symSize: 0x20C }
  - { offset: 0x1DD7B, size: 0x8, addend: 0x0, symName: __RNvNvXs5_NtNtCsfvfooZQ3Axs_4core3str6traitsINtNtNtBb_3ops5range5RangejEINtNtNtBb_5slice5index10SliceIndexeE13get_unchecked18precondition_checkCs1CdsUpMPkdx_18build_script_build, symObjAddr: 0x1F28, symBinAddr: 0x10000AE18, symSize: 0x60 }
  - { offset: 0x1DE4E, size: 0x8, addend: 0x0, symName: __RNvXs2_NtNtCsfvfooZQ3Axs_4core3str6traitseINtNtNtB9_3ops5index5IndexINtNtBJ_5range7RangeTojEE5indexCs1CdsUpMPkdx_18build_script_build, symObjAddr: 0x244C, symBinAddr: 0x10000B33C, symSize: 0x44 }
  - { offset: 0x1DE91, size: 0x8, addend: 0x0, symName: __RNvXs2_NtNtCsfvfooZQ3Axs_4core3str6traitseINtNtNtB9_3ops5index5IndexINtNtBJ_5range9RangeFromjEE5indexCs1CdsUpMPkdx_18build_script_build, symObjAddr: 0x2490, symBinAddr: 0x10000B380, symSize: 0x44 }
  - { offset: 0x1DF05, size: 0x8, addend: 0x0, symName: __RNvXs8_NtNtCsfvfooZQ3Axs_4core3str6traitsINtNtNtB9_3ops5range7RangeTojEINtNtNtB9_5slice5index10SliceIndexeE3getCs1CdsUpMPkdx_18build_script_build, symObjAddr: 0x2AA4, symBinAddr: 0x10000B994, symSize: 0x138 }
  - { offset: 0x1E01E, size: 0x8, addend: 0x0, symName: __RNvXs8_NtNtCsfvfooZQ3Axs_4core3str6traitsINtNtNtB9_3ops5range7RangeTojEINtNtNtB9_5slice5index10SliceIndexeE5indexCs1CdsUpMPkdx_18build_script_build, symObjAddr: 0x2BDC, symBinAddr: 0x10000BACC, symSize: 0x84 }
  - { offset: 0x1E0B9, size: 0x8, addend: 0x0, symName: __RNvXs9_NtNtCsfvfooZQ3Axs_4core3str6traitsINtNtNtB9_3ops5range9RangeFromjEINtNtNtB9_5slice5index10SliceIndexeE3getCs1CdsUpMPkdx_18build_script_build, symObjAddr: 0x2C60, symBinAddr: 0x10000BB50, symSize: 0x148 }
  - { offset: 0x1E228, size: 0x8, addend: 0x0, symName: __RNvXs9_NtNtCsfvfooZQ3Axs_4core3str6traitsINtNtNtB9_3ops5range9RangeFromjEINtNtNtB9_5slice5index10SliceIndexeE5indexCs1CdsUpMPkdx_18build_script_build, symObjAddr: 0x2DA8, symBinAddr: 0x10000BC98, symSize: 0x88 }
  - { offset: 0x1E594, size: 0x8, addend: 0x0, symName: __RNcNtINtNtNtCsfvfooZQ3Axs_4core3ops12control_flow11ControlFlowNtNtBa_3cmp8OrderingBY_E5Break0Cs1CdsUpMPkdx_18build_script_build, symObjAddr: 0xF30, symBinAddr: 0x100009E20, symSize: 0x28 }
  - { offset: 0x1E6D5, size: 0x8, addend: 0x0, symName: __RNvXNtNtCsfvfooZQ3Axs_4core3ops12control_flowINtB2_11ControlFlowIBI_NtNtB6_3cmp8OrderingB14_EENtNtB4_9try_trait3Try11from_outputCs1CdsUpMPkdx_18build_script_build, symObjAddr: 0x2024, symBinAddr: 0x10000AF14, symSize: 0x1C }
  - { offset: 0x1E713, size: 0x8, addend: 0x0, symName: __RNvXNtNtCsfvfooZQ3Axs_4core3ops12control_flowINtB2_11ControlFlowIBI_NtNtB6_3cmp8OrderingB14_EENtNtB4_9try_trait3Try6branchCs1CdsUpMPkdx_18build_script_build, symObjAddr: 0x2040, symBinAddr: 0x10000AF30, symSize: 0x78 }
  - { offset: 0x1E791, size: 0x8, addend: 0x0, symName: __RNvXs_NtNtCsfvfooZQ3Axs_4core3ops12control_flowINtB4_11ControlFlowIBK_NtNtB8_3cmp8OrderingB16_EEINtNtB6_9try_trait12FromResidualIBK_B12_NtNtB8_7convert10InfallibleEE13from_residualCs1CdsUpMPkdx_18build_script_build, symObjAddr: 0x2E30, symBinAddr: 0x10000BD20, symSize: 0x30 }
  - { offset: 0x1E8D2, size: 0x8, addend: 0x0, symName: __RNvXs1_NtNtNtCsfvfooZQ3Axs_4core3ops8function5implsQNCINvNvNtNtNtNtBb_4iter6traits8iterator8Iterator12try_for_each4callcINtNtB9_12control_flow11ControlFlowIB1V_NtNtBb_3cmp8OrderingB2y_EENCINvNvBX_12iter_compare7compareINtNtNtB11_8adapters7flatten7FlatMapNtNtNtBb_3str4iter5CharsNtNtNtCslWi6RoPHlIL_7unicase7unicode4fold4FoldNvNtB4w_3map6lookupEcB2y_NCINvNvBV_6cmp_by7compareccNCINvYB3u_BV_3cmpB3u_E0E0E0E0INtB7_5FnMutTucEE8call_mutCs1CdsUpMPkdx_18build_script_build, symObjAddr: 0x2390, symBinAddr: 0x10000B280, symSize: 0x30 }
  - { offset: 0x1E9FA, size: 0x8, addend: 0x0, symName: __RNvXNtCsfvfooZQ3Axs_4core7convertReINtB2_5AsRefNtNtCscOYdFFY2T5N_3std4path4PathE6as_refCs1CdsUpMPkdx_18build_script_build, symObjAddr: 0x1F9C, symBinAddr: 0x10000AE8C, symSize: 0x30 }
  - { offset: 0x1EA3A, size: 0x8, addend: 0x0, symName: __RNvXNtCsfvfooZQ3Axs_4core7convertReINtB2_5AsRefNtNtNtCscOYdFFY2T5N_3std3ffi6os_str5OsStrE6as_refCs1CdsUpMPkdx_18build_script_build, symObjAddr: 0x1FCC, symBinAddr: 0x10000AEBC, symSize: 0x30 }
  - { offset: 0x1EA7A, size: 0x8, addend: 0x0, symName: __RNvXNtCsfvfooZQ3Axs_4core7convertReINtB2_5AsRefeE6as_refCs1CdsUpMPkdx_18build_script_build, symObjAddr: 0x1FFC, symBinAddr: 0x10000AEEC, symSize: 0x28 }
  - { offset: 0x1EB01, size: 0x8, addend: 0x0, symName: __RINvNtNtNtCsfvfooZQ3Axs_4core4iter6traits8iterator12iter_compareINtNtNtB6_8adapters3map3MapNtNtNtB8_3str4iter5CharsNCNvXs2_NtCslWi6RoPHlIL_7unicase5asciiINtB1Z_5AsciiReENtNtB8_3cmp3Ord3cmp0EIB11_B1r_NCB1R_s_0ENCINvNvNtB2_8Iterator6cmp_by7compareccNCINvYB10_B3s_3cmpB32_E0E0NtB2J_8OrderingECs1CdsUpMPkdx_18build_script_build, symObjAddr: 0x84C, symBinAddr: 0x10000973C, symSize: 0x118 }
  - { offset: 0x1EB8F, size: 0x8, addend: 0x0, symName: __RINvNtNtNtCsfvfooZQ3Axs_4core4iter6traits8iterator12iter_compareINtNtNtB6_8adapters7flatten7FlatMapNtNtNtB8_3str4iter5CharsNtNtNtCslWi6RoPHlIL_7unicase7unicode4fold4FoldNvNtB21_3map6lookupEB10_NCINvNvNtB2_8Iterator6cmp_by7compareccNCINvYB10_B3c_3cmpB10_E0E0NtNtB8_3cmp8OrderingECs1CdsUpMPkdx_18build_script_build, symObjAddr: 0x964, symBinAddr: 0x100009854, symSize: 0xFC }
  - { offset: 0x1EC29, size: 0x8, addend: 0x0, symName: __RNCINvNvNtNtNtCsfvfooZQ3Axs_4core4iter6traits8iterator12iter_compare7compareINtNtNtBa_8adapters3map3MapNtNtNtBc_3str4iter5CharsNCNvXs2_NtCslWi6RoPHlIL_7unicase5asciiINtB2b_5AsciiReENtNtBc_3cmp3Ord3cmps_0EcNtB2V_8OrderingNCINvNvNtB6_8Iterator6cmp_by7compareccNCINvYIB1d_B1D_NCB23_0EB3D_3cmpB1c_E0E0E0Cs1CdsUpMPkdx_18build_script_build, symObjAddr: 0xB10, symBinAddr: 0x100009A00, symSize: 0x130 }
  - { offset: 0x1ECFF, size: 0x8, addend: 0x0, symName: __RNCINvNvNtNtNtCsfvfooZQ3Axs_4core4iter6traits8iterator12iter_compare7compareINtNtNtBa_8adapters7flatten7FlatMapNtNtNtBc_3str4iter5CharsNtNtNtCslWi6RoPHlIL_7unicase7unicode4fold4FoldNvNtB2d_3map6lookupEcNtNtBc_3cmp8OrderingNCINvNvNtB6_8Iterator6cmp_by7compareccNCINvYB1c_B3F_3cmpB1c_E0E0E0Cs1CdsUpMPkdx_18build_script_build, symObjAddr: 0xC40, symBinAddr: 0x100009B30, symSize: 0x130 }
  - { offset: 0x1EE22, size: 0x8, addend: 0x0, symName: __RNCINvNvNtNtNtNtCsfvfooZQ3Axs_4core4iter6traits8iterator8Iterator12try_for_each4callcINtNtNtBe_3ops12control_flow11ControlFlowIB1m_NtNtBe_3cmp8OrderingB25_EENCINvNvB8_12iter_compare7compareINtNtNtBc_8adapters3map3MapNtNtNtBe_3str4iter5CharsNCNvXs2_NtCslWi6RoPHlIL_7unicase5asciiINtB40_5AsciiReENtB27_3Ord3cmps_0EcB25_NCINvNvB6_6cmp_by7compareccNCINvYIB32_B3s_NCB3S_0EB6_3cmpB31_E0E0E0E0Cs1CdsUpMPkdx_18build_script_build, symObjAddr: 0xD70, symBinAddr: 0x100009C60, symSize: 0x28 }
  - { offset: 0x1EE87, size: 0x8, addend: 0x0, symName: __RNCINvNvNtNtNtNtCsfvfooZQ3Axs_4core4iter6traits8iterator8Iterator12try_for_each4callcINtNtNtBe_3ops12control_flow11ControlFlowIB1m_NtNtBe_3cmp8OrderingB25_EENCINvNvB8_12iter_compare7compareINtNtNtBc_8adapters7flatten7FlatMapNtNtNtBe_3str4iter5CharsNtNtNtCslWi6RoPHlIL_7unicase7unicode4fold4FoldNvNtB42_3map6lookupEcB25_NCINvNvB6_6cmp_by7compareccNCINvYB31_B6_3cmpB31_E0E0E0E0Cs1CdsUpMPkdx_18build_script_build, symObjAddr: 0xD98, symBinAddr: 0x100009C88, symSize: 0x28 }
  - { offset: 0x1EF0B, size: 0x8, addend: 0x0, symName: __RNCINvNvNtNtNtNtCsfvfooZQ3Axs_4core4iter6traits8iterator8Iterator6cmp_by7compareccNCINvYINtNtNtBc_8adapters3map3MapNtNtNtBe_3str4iter5CharsNCNvXs2_NtCslWi6RoPHlIL_7unicase5asciiINtB2n_5AsciiReENtNtBe_3cmp3Ord3cmp0EB6_3cmpIB1p_B1P_NCB2f_s_0EE0E0Cs1CdsUpMPkdx_18build_script_build, symObjAddr: 0xDC0, symBinAddr: 0x100009CB0, symSize: 0x58 }
  - { offset: 0x1EF92, size: 0x8, addend: 0x0, symName: __RNCINvNvNtNtNtNtCsfvfooZQ3Axs_4core4iter6traits8iterator8Iterator6cmp_by7compareccNCINvYINtNtNtBc_8adapters7flatten7FlatMapNtNtNtBe_3str4iter5CharsNtNtNtCslWi6RoPHlIL_7unicase7unicode4fold4FoldNvNtB2p_3map6lookupEB6_3cmpB1o_E0E0Cs1CdsUpMPkdx_18build_script_build, symObjAddr: 0xE18, symBinAddr: 0x100009D08, symSize: 0x58 }
  - { offset: 0x1F046, size: 0x8, addend: 0x0, symName: __RNCINvYINtNtNtNtCsfvfooZQ3Axs_4core4iter8adapters3map3MapNtNtNtBe_3str4iter5CharsNCNvXs2_NtCslWi6RoPHlIL_7unicase5asciiINtB1r_5AsciiReENtNtBe_3cmp3Ord3cmp0ENtNtNtBc_6traits8iterator8Iterator3cmpIB6_BT_NCB1j_s_0EE0Cs1CdsUpMPkdx_18build_script_build, symObjAddr: 0xE70, symBinAddr: 0x100009D60, symSize: 0x60 }
  - { offset: 0x1F0A0, size: 0x8, addend: 0x0, symName: __RNCINvYINtNtNtNtCsfvfooZQ3Axs_4core4iter8adapters7flatten7FlatMapNtNtNtBe_3str4iter5CharsNtNtNtCslWi6RoPHlIL_7unicase7unicode4fold4FoldNvNtB1t_3map6lookupENtNtNtBc_6traits8iterator8Iterator3cmpB5_E0Cs1CdsUpMPkdx_18build_script_build, symObjAddr: 0xED0, symBinAddr: 0x100009DC0, symSize: 0x60 }
  - { offset: 0x1F116, size: 0x8, addend: 0x0, symName: __RNvXs3_NtNtCsfvfooZQ3Axs_4core4iter5rangeINtNtNtB9_3ops5range5RangejENtB5_17RangeIteratorImpl9spec_nextCs1CdsUpMPkdx_18build_script_build, symObjAddr: 0x28E0, symBinAddr: 0x10000B7D0, symSize: 0x94 }
  - { offset: 0x1F197, size: 0x8, addend: 0x0, symName: __RNvXs4_NtNtCsfvfooZQ3Axs_4core4iter5rangeINtNtNtB9_3ops5range5RangejENtNtNtB7_6traits8iterator8Iterator4nextCs1CdsUpMPkdx_18build_script_build, symObjAddr: 0x29F8, symBinAddr: 0x10000B8E8, symSize: 0x24 }
  - { offset: 0x1F1D4, size: 0x8, addend: 0x0, symName: __RNvXsc_NtNtCsfvfooZQ3Axs_4core4iter5rangeINtNtNtB9_3ops5range14RangeInclusivejENtB5_26RangeInclusiveIteratorImpl9spec_nextCs1CdsUpMPkdx_18build_script_build, symObjAddr: 0x3308, symBinAddr: 0x10000C1F8, symSize: 0x100 }
  - { offset: 0x1F311, size: 0x8, addend: 0x0, symName: __RNvXsd_NtNtCsfvfooZQ3Axs_4core4iter5rangeINtNtNtB9_3ops5range14RangeInclusivejENtNtNtB7_6traits8iterator8Iterator4nextCs1CdsUpMPkdx_18build_script_build, symObjAddr: 0x3408, symBinAddr: 0x10000C2F8, symSize: 0x24 }
  - { offset: 0x1F493, size: 0x8, addend: 0x0, symName: __RNvXNtCsfvfooZQ3Axs_4core6borrowINtCslWi6RoPHlIL_7unicase7UniCaseReEINtB2_6BorrowBu_E6borrowCs1CdsUpMPkdx_18build_script_build, symObjAddr: 0x1F88, symBinAddr: 0x10000AE78, symSize: 0x14 }
  - { offset: 0x1F59E, size: 0x8, addend: 0x0, symName: __RNvXNvNtNtCscOYdFFY2T5N_3std2io5Write9write_fmtINtB2_7AdapterINtNtNtB6_8buffered9bufwriter9BufWriterNtNtB8_2fs4FileEENtNtCsfvfooZQ3Axs_4core3fmt5Write9write_strCs1CdsUpMPkdx_18build_script_build, symObjAddr: 0x2150, symBinAddr: 0x10000B040, symSize: 0xB8 }
  - { offset: 0x1F5FA, size: 0x8, addend: 0x0, symName: __RNvXNvNtNtCscOYdFFY2T5N_3std2io5Write9write_fmtINtB2_7AdapterNtNtNtNtNtB8_3sys3pal4unix5stdio6StderrENtNtCsfvfooZQ3Axs_4core3fmt5Write9write_strCs1CdsUpMPkdx_18build_script_build, symObjAddr: 0x2208, symBinAddr: 0x10000B0F8, symSize: 0xB8 }
  - { offset: 0x1F658, size: 0x8, addend: 0x0, symName: __RNvYNtNtCscOYdFFY2T5N_3std2fs4FileNtNtB6_2io5Write9write_allCs1CdsUpMPkdx_18build_script_build, symObjAddr: 0x3B6C, symBinAddr: 0x10000CA5C, symSize: 0x180 }
  - { offset: 0x1FC76, size: 0x8, addend: 0x0, symName: __RINvNtCscOYdFFY2T5N_3std3env3varReECs1CdsUpMPkdx_18build_script_build, symObjAddr: 0x5D8, symBinAddr: 0x1000094C8, symSize: 0x68 }
  - { offset: 0x1FCB0, size: 0x8, addend: 0x0, symName: __RNvXsk_NtCscOYdFFY2T5N_3std3envNtB5_8VarErrorNtNtCsfvfooZQ3Axs_4core3fmt5Debug3fmtCs1CdsUpMPkdx_18build_script_build, symObjAddr: 0x342C, symBinAddr: 0x10000C31C, symSize: 0xA0 }
  - { offset: 0x20229, size: 0x8, addend: 0x0, symName: __RNCINvMsm_NtNtNtCse1nGBsou5OW_5alloc11collections5btree8navigateINtNtBa_4node6HandleINtB13_7NodeRefNtNtB13_6marker5DyingINtCslWi6RoPHlIL_7unicase7UniCaseReEINtNtBa_3map8BTreeMapB1U_INtNtBe_3vec3VecB2r_EENtB1B_4LeafENtB1B_4EdgeE27deallocating_next_uncheckedNtNtBe_5alloc6GlobalE0Cs1CdsUpMPkdx_18build_script_build, symObjAddr: 0xA60, symBinAddr: 0x100009950, symSize: 0x58 }
  - { offset: 0x202A1, size: 0x8, addend: 0x0, symName: __RNCINvMsm_NtNtNtCse1nGBsou5OW_5alloc11collections5btree8navigateINtNtBa_4node6HandleINtB13_7NodeRefNtNtB13_6marker5DyingINtCslWi6RoPHlIL_7unicase7UniCaseReEINtNtBe_3vec3VecB2r_ENtB1B_4LeafENtB1B_4EdgeE27deallocating_next_uncheckedNtNtBe_5alloc6GlobalE0Cs1CdsUpMPkdx_18build_script_build, symObjAddr: 0xAB8, symBinAddr: 0x1000099A8, symSize: 0x58 }
  - { offset: 0x2154D, size: 0x8, addend: 0x0, symName: __RNvXNtNtNtCse1nGBsou5OW_5alloc11collections5btree3mapINtB2_8BTreeMapINtCslWi6RoPHlIL_7unicase7UniCaseReEIBQ_B14_INtNtB8_3vec3VecB1B_EEENtNtNtCsfvfooZQ3Axs_4core3ops4drop4Drop4dropCs1CdsUpMPkdx_18build_script_build, symObjAddr: 0x20B8, symBinAddr: 0x10000AFA8, symSize: 0x4C }
  - { offset: 0x215CA, size: 0x8, addend: 0x0, symName: __RNvXNtNtNtCse1nGBsou5OW_5alloc11collections5btree3mapINtB2_8BTreeMapINtCslWi6RoPHlIL_7unicase7UniCaseReEINtNtB8_3vec3VecB1B_EENtNtNtCsfvfooZQ3Axs_4core3ops4drop4Drop4dropCs1CdsUpMPkdx_18build_script_build, symObjAddr: 0x2104, symBinAddr: 0x10000AFF4, symSize: 0x4C }
  - { offset: 0x21657, size: 0x8, addend: 0x0, symName: __RNvXNvXsw_NtNtNtCse1nGBsou5OW_5alloc11collections5btree3mapINtB8_8IntoIterpppENtNtNtCsfvfooZQ3Axs_4core3ops4drop4Drop4dropINtB2_9DropGuardINtCslWi6RoPHlIL_7unicase7UniCaseReEINtB8_8BTreeMapB2c_INtNtBe_3vec3VecB2J_EENtNtBe_5alloc6GlobalEB1e_4dropCs1CdsUpMPkdx_18build_script_build, symObjAddr: 0x22C0, symBinAddr: 0x10000B1B0, symSize: 0x68 }
  - { offset: 0x216BA, size: 0x8, addend: 0x0, symName: __RNvXNvXsw_NtNtNtCse1nGBsou5OW_5alloc11collections5btree3mapINtB8_8IntoIterpppENtNtNtCsfvfooZQ3Axs_4core3ops4drop4Drop4dropINtB2_9DropGuardINtCslWi6RoPHlIL_7unicase7UniCaseReEINtNtBe_3vec3VecB2J_ENtNtBe_5alloc6GlobalEB1e_4dropCs1CdsUpMPkdx_18build_script_build, symObjAddr: 0x2328, symBinAddr: 0x10000B218, symSize: 0x68 }
  - { offset: 0x2177F, size: 0x8, addend: 0x0, symName: __RNvXsw_NtNtNtCse1nGBsou5OW_5alloc11collections5btree3mapINtB5_8IntoIterINtCslWi6RoPHlIL_7unicase7UniCaseReEINtB5_8BTreeMapB17_INtNtBb_3vec3VecB1E_EEENtNtNtCsfvfooZQ3Axs_4core3ops4drop4Drop4dropCs1CdsUpMPkdx_18build_script_build, symObjAddr: 0x37F4, symBinAddr: 0x10000C6E4, symSize: 0xA0 }
  - { offset: 0x217F0, size: 0x8, addend: 0x0, symName: __RNvXsw_NtNtNtCse1nGBsou5OW_5alloc11collections5btree3mapINtB5_8IntoIterINtCslWi6RoPHlIL_7unicase7UniCaseReEINtNtBb_3vec3VecB1E_EENtNtNtCsfvfooZQ3Axs_4core3ops4drop4Drop4dropCs1CdsUpMPkdx_18build_script_build, symObjAddr: 0x3894, symBinAddr: 0x10000C784, symSize: 0xA0 }
  - { offset: 0x21867, size: 0x8, addend: 0x0, symName: __RNvXsv_NtNtNtCse1nGBsou5OW_5alloc11collections5btree3mapINtB5_8BTreeMapINtCslWi6RoPHlIL_7unicase7UniCaseReEIBT_B17_INtNtBb_3vec3VecB1E_EEENtNtNtNtCsfvfooZQ3Axs_4core4iter6traits7collect12IntoIterator9into_iterCs1CdsUpMPkdx_18build_script_build, symObjAddr: 0x34CC, symBinAddr: 0x10000C3BC, symSize: 0x194 }
  - { offset: 0x21A1D, size: 0x8, addend: 0x0, symName: __RNvXsv_NtNtNtCse1nGBsou5OW_5alloc11collections5btree3mapINtB5_8BTreeMapINtCslWi6RoPHlIL_7unicase7UniCaseReEINtNtBb_3vec3VecB1E_EENtNtNtNtCsfvfooZQ3Axs_4core4iter6traits7collect12IntoIterator9into_iterCs1CdsUpMPkdx_18build_script_build, symObjAddr: 0x3660, symBinAddr: 0x10000C550, symSize: 0x194 }
  - { offset: 0x21C5F, size: 0x8, addend: 0x0, symName: __RNvXsy_NtNtNtCse1nGBsou5OW_5alloc11collections5btree3mapINtB5_8IntoIterINtCslWi6RoPHlIL_7unicase7UniCaseReEINtB5_8BTreeMapB17_INtNtBb_3vec3VecB1E_EEENtNtNtNtCsfvfooZQ3Axs_4core4iter6traits8iterator8Iterator4nextCs1CdsUpMPkdx_18build_script_build, symObjAddr: 0x3934, symBinAddr: 0x10000C824, symSize: 0x88 }
  - { offset: 0x21D02, size: 0x8, addend: 0x0, symName: __RNvXsy_NtNtNtCse1nGBsou5OW_5alloc11collections5btree3mapINtB5_8IntoIterINtCslWi6RoPHlIL_7unicase7UniCaseReEINtNtBb_3vec3VecB1E_EENtNtNtNtCsfvfooZQ3Axs_4core4iter6traits8iterator8Iterator4nextCs1CdsUpMPkdx_18build_script_build, symObjAddr: 0x39BC, symBinAddr: 0x10000C8AC, symSize: 0x88 }
  - { offset: 0x21FA5, size: 0x8, addend: 0x0, symName: __RINvMNtCscOYdFFY2T5N_3std2fsNtB3_4File6createRNtNtB5_4path7PathBufECs1CdsUpMPkdx_18build_script_build, symObjAddr: 0x0, symBinAddr: 0x100008EF0, symSize: 0xC0 }
  - { offset: 0x2210B, size: 0x8, addend: 0x0, symName: __RINvMs5_NtNtCsfvfooZQ3Axs_4core3fmt8buildersNtB6_9DebugList7entriesRReINtNtNtBa_5slice4iter4IterB14_EECs1CdsUpMPkdx_18build_script_build, symObjAddr: 0xC0, symBinAddr: 0x100008FB0, symSize: 0xD0 }
  - { offset: 0x22267, size: 0x8, addend: 0x0, symName: __RINvMs_NtNtCsfvfooZQ3Axs_4core3fmt2rtNtB5_8Argument11new_displayNtB7_9ArgumentsECs1CdsUpMPkdx_18build_script_build, symObjAddr: 0x190, symBinAddr: 0x100009080, symSize: 0x2C }
  - { offset: 0x2231B, size: 0x8, addend: 0x0, symName: __RINvMs_NtNtCsfvfooZQ3Axs_4core3fmt2rtNtB5_8Argument11new_displayNtNtCscOYdFFY2T5N_3std4path7DisplayECs1CdsUpMPkdx_18build_script_build, symObjAddr: 0x1BC, symBinAddr: 0x1000090AC, symSize: 0x2C }
  - { offset: 0x223A8, size: 0x8, addend: 0x0, symName: __RINvMs_NtNtCsfvfooZQ3Axs_4core3fmt2rtNtB5_8Argument11new_displayNtNtCse1nGBsou5OW_5alloc6string6StringECs1CdsUpMPkdx_18build_script_build, symObjAddr: 0x1E8, symBinAddr: 0x1000090D8, symSize: 0x2C }
  - { offset: 0x22428, size: 0x8, addend: 0x0, symName: __RINvMs_NtNtCsfvfooZQ3Axs_4core3fmt2rtNtB5_8Argument11new_displayReECs1CdsUpMPkdx_18build_script_build, symObjAddr: 0x214, symBinAddr: 0x100009104, symSize: 0x2C }
  - { offset: 0x224B5, size: 0x8, addend: 0x0, symName: __RINvMs_NtNtCsfvfooZQ3Axs_4core3fmt2rtNtB5_8Argument11new_displayjECs1CdsUpMPkdx_18build_script_build, symObjAddr: 0x240, symBinAddr: 0x100009130, symSize: 0x2C }
  - { offset: 0x226DD, size: 0x8, addend: 0x0, symName: __RNvXs2_NtCslWi6RoPHlIL_7unicase5asciiINtB7_5AsciiReENtNtCsfvfooZQ3Axs_4core3cmp3Ord3cmpCs1CdsUpMPkdx_18build_script_build, symObjAddr: 0x23C0, symBinAddr: 0x10000B2B0, symSize: 0x8C }
  - { offset: 0x22774, size: 0x8, addend: 0x0, symName: __RNvXs3_NtCslWi6RoPHlIL_7unicase5asciiINtB7_5AsciiReEINtNtCsfvfooZQ3Axs_4core7convert5AsRefeE6as_refCs1CdsUpMPkdx_18build_script_build, symObjAddr: 0x28AC, symBinAddr: 0x10000B79C, symSize: 0x34 }
  - { offset: 0x227B0, size: 0x8, addend: 0x0, symName: __RNvXs4_CslWi6RoPHlIL_7unicaseINtB5_7UniCaseReENtNtCsfvfooZQ3Axs_4core3fmt5Debug3fmtCs1CdsUpMPkdx_18build_script_build, symObjAddr: 0x2974, symBinAddr: 0x10000B864, symSize: 0x84 }
  - { offset: 0x22833, size: 0x8, addend: 0x0, symName: __RNvXsc_CslWi6RoPHlIL_7unicaseINtB5_7UniCaseReENtNtCsfvfooZQ3Axs_4core3cmp3Ord3cmpCs1CdsUpMPkdx_18build_script_build, symObjAddr: 0x3128, symBinAddr: 0x10000C018, symSize: 0x1E0 }
  - { offset: 0x2297A, size: 0x8, addend: 0x0, symName: __RINvMs_NtNtCsfvfooZQ3Axs_4core3fmt2rtNtB5_8Argument9new_debugINtCslWi6RoPHlIL_7unicase7UniCaseReEECs1CdsUpMPkdx_18build_script_build, symObjAddr: 0x26C, symBinAddr: 0x10000915C, symSize: 0x2C }
  - { offset: 0x22A07, size: 0x8, addend: 0x0, symName: __RINvMs_NtNtCsfvfooZQ3Axs_4core3fmt2rtNtB5_8Argument9new_debugINtNtCse1nGBsou5OW_5alloc3vec3VecReEECs1CdsUpMPkdx_18build_script_build, symObjAddr: 0x298, symBinAddr: 0x100009188, symSize: 0x2C }
  - { offset: 0x22B56, size: 0x8, addend: 0x0, symName: __RINvMsb_NtNtNtCse1nGBsou5OW_5alloc11collections5btree8navigateINtB6_13LazyLeafRangeNtNtNtB8_4node6marker5DyingINtCslWi6RoPHlIL_7unicase7UniCaseReEINtNtB8_3map8BTreeMapB1K_INtNtBc_3vec3VecB2h_EEE16deallocating_endNtNtBc_5alloc6GlobalECs1CdsUpMPkdx_18build_script_build, symObjAddr: 0x2C4, symBinAddr: 0x1000091B4, symSize: 0xA8 }
  - { offset: 0x22C35, size: 0x8, addend: 0x0, symName: __RINvMsb_NtNtNtCse1nGBsou5OW_5alloc11collections5btree8navigateINtB6_13LazyLeafRangeNtNtNtB8_4node6marker5DyingINtCslWi6RoPHlIL_7unicase7UniCaseReEINtNtB8_3map8BTreeMapB1K_INtNtBc_3vec3VecB2h_EEE27deallocating_next_uncheckedNtNtBc_5alloc6GlobalECs1CdsUpMPkdx_18build_script_build, symObjAddr: 0x36C, symBinAddr: 0x10000925C, symSize: 0xA8 }
  - { offset: 0x22CEC, size: 0x8, addend: 0x0, symName: __RINvMsb_NtNtNtCse1nGBsou5OW_5alloc11collections5btree8navigateINtB6_13LazyLeafRangeNtNtNtB8_4node6marker5DyingINtCslWi6RoPHlIL_7unicase7UniCaseReEINtNtBc_3vec3VecB2h_EE16deallocating_endNtNtBc_5alloc6GlobalECs1CdsUpMPkdx_18build_script_build, symObjAddr: 0x414, symBinAddr: 0x100009304, symSize: 0xA8 }
  - { offset: 0x22DBE, size: 0x8, addend: 0x0, symName: __RINvMsb_NtNtNtCse1nGBsou5OW_5alloc11collections5btree8navigateINtB6_13LazyLeafRangeNtNtNtB8_4node6marker5DyingINtCslWi6RoPHlIL_7unicase7UniCaseReEINtNtBc_3vec3VecB2h_EE27deallocating_next_uncheckedNtNtBc_5alloc6GlobalECs1CdsUpMPkdx_18build_script_build, symObjAddr: 0x4BC, symBinAddr: 0x1000093AC, symSize: 0xA8 }
  - { offset: 0x22E9C, size: 0x8, addend: 0x0, symName: __RINvMsc_NtCscOYdFFY2T5N_3std2fsNtB6_11OpenOptions4openRNtNtB8_4path4PathECs1CdsUpMPkdx_18build_script_build, symObjAddr: 0x564, symBinAddr: 0x100009454, symSize: 0x74 }
  - { offset: 0x23103, size: 0x8, addend: 0x0, symName: __RNvMNtCsfvfooZQ3Axs_4core6optionINtB2_6OptionNtNtNtCslWi6RoPHlIL_7unicase7unicode4fold4FoldE6insertCs1CdsUpMPkdx_18build_script_build, symObjAddr: 0xF58, symBinAddr: 0x100009E48, symSize: 0x8C }
  - { offset: 0x23196, size: 0x8, addend: 0x0, symName: __RNvMNtCsfvfooZQ3Axs_4core6resultINtB2_6ResulthNtNtNtB4_3num5error15TryFromIntErrorE6expectCs1CdsUpMPkdx_18build_script_build, symObjAddr: 0xFE4, symBinAddr: 0x100009ED4, symSize: 0x84 }
  - { offset: 0x231F8, size: 0x8, addend: 0x0, symName: __RNvMs0_CslWi6RoPHlIL_7unicaseINtB5_7UniCaseReE8is_asciiCs1CdsUpMPkdx_18build_script_build, symObjAddr: 0x1068, symBinAddr: 0x100009F58, symSize: 0x60 }
  - { offset: 0x23223, size: 0x8, addend: 0x0, symName: __RNvMs_CslWi6RoPHlIL_7unicaseINtB4_7UniCaseReE3newCs1CdsUpMPkdx_18build_script_build, symObjAddr: 0x10C8, symBinAddr: 0x100009FB8, symSize: 0xF4 }
  - { offset: 0x233E4, size: 0x8, addend: 0x0, symName: __RNvMsb_NtNtNtCse1nGBsou5OW_5alloc11collections5btree8navigateINtB5_13LazyLeafRangeNtNtNtB7_4node6marker5DyingINtCslWi6RoPHlIL_7unicase7UniCaseReEINtNtB7_3map8BTreeMapB1J_INtNtBb_3vec3VecB2g_EEE10take_frontCs1CdsUpMPkdx_18build_script_build, symObjAddr: 0x11BC, symBinAddr: 0x10000A0AC, symSize: 0x1C4 }
  - { offset: 0x23789, size: 0x8, addend: 0x0, symName: __RNvMsb_NtNtNtCse1nGBsou5OW_5alloc11collections5btree8navigateINtB5_13LazyLeafRangeNtNtNtB7_4node6marker5DyingINtCslWi6RoPHlIL_7unicase7UniCaseReEINtNtBb_3vec3VecB2g_EE10take_frontCs1CdsUpMPkdx_18build_script_build, symObjAddr: 0x1380, symBinAddr: 0x10000A270, symSize: 0x1C4 }
  - { offset: 0x23B12, size: 0x8, addend: 0x0, symName: __RNvMsc_NtNtNtCse1nGBsou5OW_5alloc11collections5btree8navigateINtB5_13LazyLeafRangeNtNtNtB7_4node6marker5DyingINtCslWi6RoPHlIL_7unicase7UniCaseReEINtNtB7_3map8BTreeMapB1J_INtNtBb_3vec3VecB2g_EEE10init_frontCs1CdsUpMPkdx_18build_script_build, symObjAddr: 0x1544, symBinAddr: 0x10000A434, symSize: 0x1C4 }
  - { offset: 0x23DF4, size: 0x8, addend: 0x0, symName: __RNvMsc_NtNtNtCse1nGBsou5OW_5alloc11collections5btree8navigateINtB5_13LazyLeafRangeNtNtNtB7_4node6marker5DyingINtCslWi6RoPHlIL_7unicase7UniCaseReEINtNtBb_3vec3VecB2g_EE10init_frontCs1CdsUpMPkdx_18build_script_build, symObjAddr: 0x1708, symBinAddr: 0x10000A5F8, symSize: 0x1C4 }
  - { offset: 0x23FA5, size: 0x8, addend: 0x0, symName: __RNvMsg_NtNtNtCse1nGBsou5OW_5alloc11collections5btree3mapINtB5_8BTreeMapINtCslWi6RoPHlIL_7unicase7UniCaseReEIBT_B17_INtNtBb_3vec3VecB1E_EEE3newCs1CdsUpMPkdx_18build_script_build, symObjAddr: 0x18CC, symBinAddr: 0x10000A7BC, symSize: 0x24 }
  - { offset: 0x23FCB, size: 0x8, addend: 0x0, symName: __RNvMsg_NtNtNtCse1nGBsou5OW_5alloc11collections5btree3mapINtB5_8BTreeMapINtCslWi6RoPHlIL_7unicase7UniCaseReEINtNtBb_3vec3VecB1E_EE3newCs1CdsUpMPkdx_18build_script_build, symObjAddr: 0x18F0, symBinAddr: 0x10000A7E0, symSize: 0x24 }
  - { offset: 0x240EF, size: 0x8, addend: 0x0, symName: __RNvMsi_NtNtNtCse1nGBsou5OW_5alloc11collections5btree3mapINtB5_8BTreeMapINtCslWi6RoPHlIL_7unicase7UniCaseReEIBT_B17_INtNtBb_3vec3VecB1E_EEE5entryCs1CdsUpMPkdx_18build_script_build, symObjAddr: 0x1914, symBinAddr: 0x10000A804, symSize: 0x258 }
  - { offset: 0x242DC, size: 0x8, addend: 0x0, symName: __RNvMsi_NtNtNtCse1nGBsou5OW_5alloc11collections5btree3mapINtB5_8BTreeMapINtCslWi6RoPHlIL_7unicase7UniCaseReEINtNtBb_3vec3VecB1E_EE5entryCs1CdsUpMPkdx_18build_script_build, symObjAddr: 0x1B6C, symBinAddr: 0x10000AA5C, symSize: 0x258 }
  - { offset: 0x2443B, size: 0x8, addend: 0x0, symName: __RNvMsx_NtNtNtCse1nGBsou5OW_5alloc11collections5btree3mapINtB5_8IntoIterINtCslWi6RoPHlIL_7unicase7UniCaseReEINtB5_8BTreeMapB17_INtNtBb_3vec3VecB1E_EEE10dying_nextCs1CdsUpMPkdx_18build_script_build, symObjAddr: 0x1DC4, symBinAddr: 0x10000ACB4, symSize: 0x90 }
  - { offset: 0x24486, size: 0x8, addend: 0x0, symName: __RNvMsx_NtNtNtCse1nGBsou5OW_5alloc11collections5btree3mapINtB5_8IntoIterINtCslWi6RoPHlIL_7unicase7UniCaseReEINtNtBb_3vec3VecB1E_EE10dying_nextCs1CdsUpMPkdx_18build_script_build, symObjAddr: 0x1E54, symBinAddr: 0x10000AD44, symSize: 0x90 }
  - { offset: 0x24B23, size: 0x8, addend: 0x0, symName: __RINvMs3_NtCsfvfooZQ3Axs_4core3fmtNtB6_9Arguments6new_v1Kj2_Kj1_ECs1CdsUpMPkdx_18build_script_build, symObjAddr: 0x0, symBinAddr: 0x10000CBDC, symSize: 0x54 }
  - { offset: 0x24E60, size: 0x8, addend: 0x0, symName: __RNvXs1a_NtCsfvfooZQ3Axs_4core3fmtRReNtB6_5Debug3fmtCs1CdsUpMPkdx_18build_script_build, symObjAddr: 0x2B4C, symBinAddr: 0x10000F728, symSize: 0x30 }
  - { offset: 0x24EA6, size: 0x8, addend: 0x0, symName: __RNvXs1a_NtCsfvfooZQ3Axs_4core3fmtReNtB6_5Debug3fmtCs1CdsUpMPkdx_18build_script_build, symObjAddr: 0x2B7C, symBinAddr: 0x10000F758, symSize: 0x3C }
  - { offset: 0x24EEC, size: 0x8, addend: 0x0, symName: __RNvXs1a_NtCsfvfooZQ3Axs_4core3fmtRuNtB6_5Debug3fmtCs1CdsUpMPkdx_18build_script_build, symObjAddr: 0x2BB8, symBinAddr: 0x10000F794, symSize: 0x30 }
  - { offset: 0x24F38, size: 0x8, addend: 0x0, symName: __RNvXs1c_NtCsfvfooZQ3Axs_4core3fmtReNtB6_7Display3fmtCs1CdsUpMPkdx_18build_script_build, symObjAddr: 0x2BE8, symBinAddr: 0x10000F7C4, symSize: 0x3C }
  - { offset: 0x24F84, size: 0x8, addend: 0x0, symName: __RNvXsI_NtCsfvfooZQ3Axs_4core3fmtNtB5_5ErrorNtB5_5Debug3fmtCs1CdsUpMPkdx_18build_script_build, symObjAddr: 0x2E0C, symBinAddr: 0x10000F9E8, symSize: 0x40 }
  - { offset: 0x24FC4, size: 0x8, addend: 0x0, symName: __RNvXsr_NtCsfvfooZQ3Axs_4core3fmtSReNtB5_5Debug3fmtCs1CdsUpMPkdx_18build_script_build, symObjAddr: 0x3220, symBinAddr: 0x10000FDFC, symSize: 0x88 }
  - { offset: 0x25128, size: 0x8, addend: 0x0, symName: __RNvXss_NtCsfvfooZQ3Axs_4core3fmtuNtB5_5Debug3fmtCs1CdsUpMPkdx_18build_script_build, symObjAddr: 0x32A8, symBinAddr: 0x10000FE84, symSize: 0x40 }
  - { offset: 0x25194, size: 0x8, addend: 0x0, symName: __RNvXsT_NtNtCsfvfooZQ3Axs_4core3cmp5implscNtB7_3Ord3cmpCs1CdsUpMPkdx_18build_script_build, symObjAddr: 0x2E4C, symBinAddr: 0x10000FA28, symSize: 0x38 }
  - { offset: 0x259F1, size: 0x8, addend: 0x0, symName: __RINvNtCsfvfooZQ3Axs_4core3ptr12align_offsethECs1CdsUpMPkdx_18build_script_build, symObjAddr: 0x4E8, symBinAddr: 0x10000D0C4, symSize: 0x1D8 }
  - { offset: 0x25BDE, size: 0x8, addend: 0x0, symName: __RINvNtCsfvfooZQ3Axs_4core3ptr14read_unalignedjECs1CdsUpMPkdx_18build_script_build, symObjAddr: 0x6C0, symBinAddr: 0x10000D29C, symSize: 0x80 }
  - { offset: 0x263A3, size: 0x8, addend: 0x0, symName: __RNvNvNtCsfvfooZQ3Axs_4core3ptr12align_offset7mod_invCs1CdsUpMPkdx_18build_script_build, symObjAddr: 0x2318, symBinAddr: 0x10000EEF4, symSize: 0x110 }
  - { offset: 0x26456, size: 0x8, addend: 0x0, symName: __RNvNvNtCsfvfooZQ3Axs_4core3ptr13read_volatile18precondition_checkCs1CdsUpMPkdx_18build_script_build, symObjAddr: 0x2428, symBinAddr: 0x10000F004, symSize: 0x100 }
  - { offset: 0x272F4, size: 0x8, addend: 0x0, symName: __RNCINvNvMst_NtNtNtCsfvfooZQ3Axs_4core4iter8adapters7flattenINtBa_13FlattenCompatppE13iter_try_fold7flattenNtNtNtCslWi6RoPHlIL_7unicase7unicode4fold4FolduINtNtNtBg_3ops12control_flow11ControlFlowIB2s_NtNtBg_3cmp8OrderingB3b_EENCINvNvXsv_Ba_BV_NtNtNtBe_6traits8iterator8Iterator8try_fold7flattenB1G_uB2r_NCINvNvB3S_12try_for_each4callcB2r_NCINvNvB3U_12iter_compare7compareINtBa_7FlatMapNtNtNtBg_3str4iter5CharsB1G_NvNtB1K_3map6lookupEcB3b_NCINvNvB3S_6cmp_by7compareccNCINvYB5W_B3S_3cmpB5W_E0E0E0E0E0E0Cs1CdsUpMPkdx_18build_script_build, symObjAddr: 0x12CC, symBinAddr: 0x10000DEA8, symSize: 0xAC }
  - { offset: 0x2739F, size: 0x8, addend: 0x0, symName: __RNCINvNvXsv_NtNtNtCsfvfooZQ3Axs_4core4iter8adapters7flattenINtBa_13FlattenCompatppENtNtNtBe_6traits8iterator8Iterator8try_fold7flattenNtNtNtCslWi6RoPHlIL_7unicase7unicode4fold4FolduINtNtNtBg_3ops12control_flow11ControlFlowIB2U_NtNtBg_3cmp8OrderingB3D_EENCINvNvB1j_12try_for_each4callcB2T_NCINvNvB1l_12iter_compare7compareINtBa_7FlatMapNtNtNtBg_3str4iter5CharsB28_NvNtB2c_3map6lookupEcB3D_NCINvNvB1j_6cmp_by7compareccNCINvYB59_B1j_3cmpB59_E0E0E0E0E0Cs1CdsUpMPkdx_18build_script_build, symObjAddr: 0x1378, symBinAddr: 0x10000DF54, symSize: 0x38 }
  - { offset: 0x27413, size: 0x8, addend: 0x0, symName: __RINvXsv_NtNtNtCsfvfooZQ3Axs_4core4iter8adapters7flattenINtB6_13FlattenCompatINtNtB8_3map3MapNtNtNtBc_3str4iter5CharsNvNtNtCslWi6RoPHlIL_7unicase7unicode3map6lookupENtNtB1U_4fold4FoldENtNtNtBa_6traits8iterator8Iterator8try_folduNCINvNvB2V_12try_for_each4callcINtNtNtBc_3ops12control_flow11ControlFlowIB49_NtNtBc_3cmp8OrderingB4S_EENCINvNvB2X_12iter_compare7compareINtB6_7FlatMapB1s_B2C_B1Q_EcB4S_NCINvNvB2V_6cmp_by7compareccNCINvYB5P_B2V_3cmpB5P_E0E0E0E0B48_ECs1CdsUpMPkdx_18build_script_build, symObjAddr: 0x1120, symBinAddr: 0x10000DCFC, symSize: 0x2C }
  - { offset: 0x2748C, size: 0x8, addend: 0x0, symName: __RNvXsv_NtNtNtCsfvfooZQ3Axs_4core4iter8adapters7flattenINtB5_13FlattenCompatINtNtB7_3map3MapNtNtNtBb_3str4iter5CharsNvNtNtCslWi6RoPHlIL_7unicase7unicode3map6lookupENtNtB1T_4fold4FoldENtNtNtB9_6traits8iterator8Iterator4nextCs1CdsUpMPkdx_18build_script_build, symObjAddr: 0x32E8, symBinAddr: 0x10000FEC4, symSize: 0xEC }
  - { offset: 0x275E3, size: 0x8, addend: 0x0, symName: __RINvNtNtNtCsfvfooZQ3Axs_4core4iter8adapters7flatten17and_then_or_clearNtNtNtCslWi6RoPHlIL_7unicase7unicode4fold4FoldcNvYB16_NtNtNtB6_6traits8iterator8Iterator4nextECs1CdsUpMPkdx_18build_script_build, symObjAddr: 0xE58, symBinAddr: 0x10000DA34, symSize: 0xD8 }
  - { offset: 0x27726, size: 0x8, addend: 0x0, symName: __RINvXs1_NtNtNtCsfvfooZQ3Axs_4core4iter8adapters7flattenINtB6_7FlatMapNtNtNtBc_3str4iter5CharsNtNtNtCslWi6RoPHlIL_7unicase7unicode4fold4FoldNvNtB1x_3map6lookupENtNtNtBa_6traits8iterator8Iterator8try_folduNCINvNvB2x_12try_for_each4callcINtNtNtBc_3ops12control_flow11ControlFlowIB3L_NtNtBc_3cmp8OrderingB4u_EENCINvNvB2z_12iter_compare7compareBR_cB4u_NCINvNvB2x_6cmp_by7compareccNCINvYBR_B2x_3cmpBR_E0E0E0E0B3K_ECs1CdsUpMPkdx_18build_script_build, symObjAddr: 0xF30, symBinAddr: 0x10000DB0C, symSize: 0x2C }
  - { offset: 0x277A4, size: 0x8, addend: 0x0, symName: __RNvXs1_NtNtNtCsfvfooZQ3Axs_4core4iter8adapters7flattenINtB5_7FlatMapNtNtNtBb_3str4iter5CharsNtNtNtCslWi6RoPHlIL_7unicase7unicode4fold4FoldNvNtB1w_3map6lookupENtNtNtB9_6traits8iterator8Iterator4nextCs1CdsUpMPkdx_18build_script_build, symObjAddr: 0x2B28, symBinAddr: 0x10000F704, symSize: 0x24 }
  - { offset: 0x278CF, size: 0x8, addend: 0x0, symName: __RINvXs9_NtNtNtCsfvfooZQ3Axs_4core4iter8adapters4fuseINtB6_4FuseINtNtB8_3map3MapNtNtNtBc_3str4iter5CharsNvNtNtCslWi6RoPHlIL_7unicase7unicode3map6lookupEEINtB6_8FuseImplBZ_E8try_folduNCINvNvMst_NtB8_7flattenINtB34_13FlattenCompatppE13iter_try_fold7flattenNtNtB1H_4fold4FolduINtNtNtBc_3ops12control_flow11ControlFlowIB4n_NtNtBc_3cmp8OrderingB56_EENCINvNvXsv_B34_B3h_NtNtNtBa_6traits8iterator8Iterator8try_fold7flattenB43_uB4m_NCINvNvB5P_12try_for_each4callcB4m_NCINvNvB5R_12iter_compare7compareINtB34_7FlatMapB1f_B43_B1D_EcB56_NCINvNvB5P_6cmp_by7compareccNCINvYB7T_B5P_3cmpB7T_E0E0E0E0E0E0B4m_ECs1CdsUpMPkdx_18build_script_build, symObjAddr: 0xF5C, symBinAddr: 0x10000DB38, symSize: 0x17C }
  - { offset: 0x2796C, size: 0x8, addend: 0x0, symName: __RNvXs9_NtNtNtCsfvfooZQ3Axs_4core4iter8adapters4fuseINtB5_4FuseINtNtB7_3map3MapNtNtNtBb_3str4iter5CharsNvNtNtCslWi6RoPHlIL_7unicase7unicode3map6lookupEEINtB5_8FuseImplBY_E4nextCs1CdsUpMPkdx_18build_script_build, symObjAddr: 0x2D80, symBinAddr: 0x10000F95C, symSize: 0x8C }
  - { offset: 0x27A43, size: 0x8, addend: 0x0, symName: __RNvXs_NtNtNtCsfvfooZQ3Axs_4core4iter8adapters9enumerateINtB4_9EnumerateINtNtNtBa_5slice4iter4IterINtCslWi6RoPHlIL_7unicase7UniCaseReEEENtNtNtB8_6traits8iterator8Iterator4nextCs1CdsUpMPkdx_18build_script_build, symObjAddr: 0x2F40, symBinAddr: 0x10000FB1C, symSize: 0xE0 }
  - { offset: 0x27BA4, size: 0x8, addend: 0x0, symName: __RINvYINtNtNtNtCsfvfooZQ3Axs_4core4iter8adapters7flatten7FlatMapNtNtNtBc_3str4iter5CharsNtNtNtCslWi6RoPHlIL_7unicase7unicode4fold4FoldNvNtB1r_3map6lookupENtNtNtBa_6traits8iterator8Iterator12try_for_eachNCINvNvB2t_12iter_compare7compareB3_cNtNtBc_3cmp8OrderingNCINvNvB2r_6cmp_by7compareccNCINvYB3_B2r_3cmpB3_E0E0E0INtNtNtBc_3ops12control_flow11ControlFlowIB51_B3O_B3O_EEECs1CdsUpMPkdx_18build_script_build, symObjAddr: 0x114C, symBinAddr: 0x10000DD28, symSize: 0x2C }
  - { offset: 0x27BFC, size: 0x8, addend: 0x0, symName: __RINvYINtNtNtNtCsfvfooZQ3Axs_4core4iter8adapters7flatten7FlatMapNtNtNtBc_3str4iter5CharsNtNtNtCslWi6RoPHlIL_7unicase7unicode4fold4FoldNvNtB1r_3map6lookupENtNtNtBa_6traits8iterator8Iterator3cmpB3_ECs1CdsUpMPkdx_18build_script_build, symObjAddr: 0x1178, symBinAddr: 0x10000DD54, symSize: 0x14 }
  - { offset: 0x27C4D, size: 0x8, addend: 0x0, symName: __RINvYINtNtNtNtCsfvfooZQ3Axs_4core4iter8adapters7flatten7FlatMapNtNtNtBc_3str4iter5CharsNtNtNtCslWi6RoPHlIL_7unicase7unicode4fold4FoldNvNtB1r_3map6lookupENtNtNtBa_6traits8iterator8Iterator6cmp_byB3_NCINvYB3_B2r_3cmpB3_E0ECs1CdsUpMPkdx_18build_script_build, symObjAddr: 0x118C, symBinAddr: 0x10000DD68, symSize: 0xF0 }
  - { offset: 0x27D28, size: 0x8, addend: 0x0, symName: __RNvXNtNtNtCsfvfooZQ3Axs_4core4iter6traits7collectINtNtNtB6_8adapters7flatten7FlatMapNtNtNtB8_3str4iter5CharsNtNtNtCslWi6RoPHlIL_7unicase7unicode4fold4FoldNvNtB1M_3map6lookupENtB2_12IntoIterator9into_iterCs1CdsUpMPkdx_18build_script_build, symObjAddr: 0x299C, symBinAddr: 0x10000F578, symSize: 0x30 }
  - { offset: 0x27D97, size: 0x8, addend: 0x0, symName: __RNvYINtNtNtCse1nGBsou5OW_5alloc3vec9into_iter8IntoIterReENtNtNtNtCsfvfooZQ3Axs_4core4iter6traits10exact_size17ExactSizeIterator3lenCs1CdsUpMPkdx_18build_script_build, symObjAddr: 0x33D4, symBinAddr: 0x10000FFB0, symSize: 0xF4 }
  - { offset: 0x28216, size: 0x8, addend: 0x0, symName: __RNvXs2_NtNtNtCsfvfooZQ3Axs_4core3ops8function5implsQNCNvXs2_NtCslWi6RoPHlIL_7unicase5asciiINtBY_5AsciiReENtNtBb_3cmp3Ord3cmps_0INtB7_6FnOnceTcEE9call_onceCs1CdsUpMPkdx_18build_script_build, symObjAddr: 0x2C94, symBinAddr: 0x10000F870, symSize: 0x2C }
  - { offset: 0x28462, size: 0x8, addend: 0x0, symName: __RNvNvNtNtCsfvfooZQ3Axs_4core5slice5ascii8is_ascii7runtimeCs1CdsUpMPkdx_18build_script_build, symObjAddr: 0x2698, symBinAddr: 0x10000F274, symSize: 0x304 }
  - { offset: 0x28EB7, size: 0x8, addend: 0x0, symName: __RNvXs5_NtNtCsfvfooZQ3Axs_4core3num5errorNtB5_15TryFromIntErrorNtNtB9_3fmt5Debug3fmtCs1CdsUpMPkdx_18build_script_build, symObjAddr: 0x2D2C, symBinAddr: 0x10000F908, symSize: 0x54 }
  - { offset: 0x29023, size: 0x8, addend: 0x0, symName: __RNvNvNtCsfvfooZQ3Axs_4core9ub_checks23maybe_is_nonoverlapping7runtimeCs1CdsUpMPkdx_18build_script_build, symObjAddr: 0x2528, symBinAddr: 0x10000F104, symSize: 0xD8 }
  - { offset: 0x2920C, size: 0x8, addend: 0x0, symName: __RNvNvNtNtCsfvfooZQ3Axs_4core4char7convert18from_u32_unchecked18precondition_checkCs1CdsUpMPkdx_18build_script_build, symObjAddr: 0x2600, symBinAddr: 0x10000F1DC, symSize: 0x98 }
  - { offset: 0x29458, size: 0x8, addend: 0x0, symName: __RNCNvXs1_NtNtNtCscOYdFFY2T5N_3std2io5error14repr_bitpackedNtB7_4ReprNtNtNtCsfvfooZQ3Axs_4core3ops4drop4Drop4drop0Cs1CdsUpMPkdx_18build_script_build, symObjAddr: 0x13C4, symBinAddr: 0x10000DFA0, symSize: 0x34 }
  - { offset: 0x2950D, size: 0x8, addend: 0x0, symName: __RNvXs1_NtNtNtCscOYdFFY2T5N_3std2io5error14repr_bitpackedNtB5_4ReprNtNtNtCsfvfooZQ3Axs_4core3ops4drop4Drop4dropCs1CdsUpMPkdx_18build_script_build, symObjAddr: 0x2AF0, symBinAddr: 0x10000F6CC, symSize: 0x38 }
  - { offset: 0x29536, size: 0x8, addend: 0x0, symName: __RINvNtNtNtCscOYdFFY2T5N_3std2io5error14repr_bitpacked11decode_reprINtNtCse1nGBsou5OW_5alloc5boxed3BoxNtB4_6CustomENCNvXs1_B2_NtB2_4ReprNtNtNtCsfvfooZQ3Axs_4core3ops4drop4Drop4drop0ECs1CdsUpMPkdx_18build_script_build, symObjAddr: 0x740, symBinAddr: 0x10000D31C, symSize: 0x230 }
  - { offset: 0x297EC, size: 0x8, addend: 0x0, symName: __RNCNvMs0_NtNtNtCscOYdFFY2T5N_3std2io5error14repr_bitpackedNtB7_4Repr4data0Cs1CdsUpMPkdx_18build_script_build, symObjAddr: 0x13B0, symBinAddr: 0x10000DF8C, symSize: 0x14 }
  - { offset: 0x29824, size: 0x8, addend: 0x0, symName: __RINvNtNtNtCscOYdFFY2T5N_3std2io5error14repr_bitpacked11decode_reprRNtB4_6CustomNCNvMs0_B2_NtB2_4Repr4data0ECs1CdsUpMPkdx_18build_script_build, symObjAddr: 0x970, symBinAddr: 0x10000D54C, symSize: 0x230 }
  - { offset: 0x29AFF, size: 0x8, addend: 0x0, symName: __RNvNtNtNtCscOYdFFY2T5N_3std2io5error14repr_bitpacked14kind_from_primCs1CdsUpMPkdx_18build_script_build, symObjAddr: 0x1C48, symBinAddr: 0x10000E824, symSize: 0x608 }
  - { offset: 0x2A536, size: 0x8, addend: 0x0, symName: __RNvNtNtNtNtCscOYdFFY2T5N_3std3sys3pal4unix2fs23debug_assert_fd_is_openCs1CdsUpMPkdx_18build_script_build, symObjAddr: 0x2250, symBinAddr: 0x10000EE2C, symSize: 0xC8 }
  - { offset: 0x2A711, size: 0x8, addend: 0x0, symName: __RINvMs3_NtCsfvfooZQ3Axs_4core3fmtNtB6_9Arguments6new_v1Kj2_Kj1_ECs1CdsUpMPkdx_18build_script_build, symObjAddr: 0x0, symBinAddr: 0x10000CBDC, symSize: 0x54 }
  - { offset: 0x2A777, size: 0x8, addend: 0x0, symName: __RINvMs3_NtCsfvfooZQ3Axs_4core3fmtNtB6_9Arguments6new_v1Kj3_Kj2_ECs1CdsUpMPkdx_18build_script_build, symObjAddr: 0x54, symBinAddr: 0x10000CC30, symSize: 0x54 }
  - { offset: 0x2A7DD, size: 0x8, addend: 0x0, symName: __RINvMs3_NtCsfvfooZQ3Axs_4core3fmtNtB6_9Arguments6new_v1Kj4_Kj3_ECs1CdsUpMPkdx_18build_script_build, symObjAddr: 0xA8, symBinAddr: 0x10000CC84, symSize: 0x54 }
  - { offset: 0x2A843, size: 0x8, addend: 0x0, symName: __RINvMs3_NtCsfvfooZQ3Axs_4core3fmtNtB6_9Arguments6new_v1Kj5_Kj4_ECs1CdsUpMPkdx_18build_script_build, symObjAddr: 0xFC, symBinAddr: 0x10000CCD8, symSize: 0x54 }
  - { offset: 0x2A88F, size: 0x8, addend: 0x0, symName: __RINvMs3_NtCsfvfooZQ3Axs_4core3fmtNtB6_9Arguments9new_constKj1_ECs1CdsUpMPkdx_18build_script_build, symObjAddr: 0x150, symBinAddr: 0x10000CD2C, symSize: 0x48 }
  - { offset: 0x2A9A6, size: 0x8, addend: 0x0, symName: __RNvXs2_NtCslWi6RoPHlIL_7unicase7unicodeINtB5_7UnicodeReENtNtCsfvfooZQ3Axs_4core3cmp3Ord3cmpCs1CdsUpMPkdx_18build_script_build, symObjAddr: 0x2C24, symBinAddr: 0x10000F800, symSize: 0x70 }
  - { offset: 0x2AADE, size: 0x8, addend: 0x0, symName: __RNCNvXs2_NtCslWi6RoPHlIL_7unicase5asciiINtB9_5AsciiReENtNtCsfvfooZQ3Axs_4core3cmp3Ord3cmp0Cs1CdsUpMPkdx_18build_script_build, symObjAddr: 0x13F8, symBinAddr: 0x10000DFD4, symSize: 0x3C }
  - { offset: 0x2AB1D, size: 0x8, addend: 0x0, symName: __RNCNvXs2_NtCslWi6RoPHlIL_7unicase5asciiINtB9_5AsciiReENtNtCsfvfooZQ3Axs_4core3cmp3Ord3cmps_0Cs1CdsUpMPkdx_18build_script_build, symObjAddr: 0x1434, symBinAddr: 0x10000E010, symSize: 0x3C }
  - { offset: 0x2ABE1, size: 0x8, addend: 0x0, symName: __RINvMst_NtNtNtCsfvfooZQ3Axs_4core4iter8adapters7flattenINtB6_13FlattenCompatINtNtB8_3map3MapNtNtNtBc_3str4iter5CharsNvNtNtCslWi6RoPHlIL_7unicase7unicode3map6lookupENtNtB1U_4fold4FoldE13iter_try_folduNCINvNvXsv_B6_IBS_ppENtNtNtBa_6traits8iterator8Iterator8try_fold7flattenB2C_uINtNtNtBc_3ops12control_flow11ControlFlowIB4r_NtNtBc_3cmp8OrderingB5a_EENCINvNvB3w_12try_for_each4callcB4q_NCINvNvB3y_12iter_compare7compareINtB6_7FlatMapB1s_B2C_B1Q_EcB5a_NCINvNvB3w_6cmp_by7compareccNCINvYB6G_B3w_3cmpB6G_E0E0E0E0E0B4q_ECs1CdsUpMPkdx_18build_script_build, symObjAddr: 0x198, symBinAddr: 0x10000CD74, symSize: 0x350 }
  - { offset: 0x2B487, size: 0x8, addend: 0x0, symName: __RINvNtNtNtCse1nGBsou5OW_5alloc11collections5btree3mem7replaceINtNtB4_4node6HandleINtB10_7NodeRefNtNtB10_6marker5DyingINtCslWi6RoPHlIL_7unicase7UniCaseReEINtNtB4_3map8BTreeMapB1R_INtNtB8_3vec3VecB2o_EENtB1y_4LeafENtB1y_4EdgeEIBY_IB1i_B1w_B1R_B2r_NtB1y_14LeafOrInternalENtB1y_2KVENCINvMsm_NtB4_8navigateBX_27deallocating_next_uncheckedNtNtB8_5alloc6GlobalE0ECs1CdsUpMPkdx_18build_script_build, symObjAddr: 0xBA0, symBinAddr: 0x10000D77C, symSize: 0xCC }
  - { offset: 0x2B577, size: 0x8, addend: 0x0, symName: __RINvNtNtNtCse1nGBsou5OW_5alloc11collections5btree3mem7replaceINtNtB4_4node6HandleINtB10_7NodeRefNtNtB10_6marker5DyingINtCslWi6RoPHlIL_7unicase7UniCaseReEINtNtB8_3vec3VecB2o_ENtB1y_4LeafENtB1y_4EdgeEIBY_IB1i_B1w_B1R_B2r_NtB1y_14LeafOrInternalENtB1y_2KVENCINvMsm_NtB4_8navigateBX_27deallocating_next_uncheckedNtNtB8_5alloc6GlobalE0ECs1CdsUpMPkdx_18build_script_build, symObjAddr: 0xC6C, symBinAddr: 0x10000D848, symSize: 0xCC }
  - { offset: 0x2B667, size: 0x8, addend: 0x0, symName: __RINvNtNtNtCse1nGBsou5OW_5alloc11collections5btree3mem7replaceINtNtB4_4node7NodeRefNtNtB10_6marker5OwnedINtCslWi6RoPHlIL_7unicase7UniCaseReEINtNtB4_3map8BTreeMapB1D_INtNtB8_3vec3VecB2a_EENtB1k_14LeafOrInternalEuNCINvB2_8take_mutBX_NCINvMss_B10_BX_19push_internal_levelNtNtB8_5alloc6GlobalE0E0ECs1CdsUpMPkdx_18build_script_build, symObjAddr: 0xD38, symBinAddr: 0x10000D914, symSize: 0x90 }
  - { offset: 0x2B750, size: 0x8, addend: 0x0, symName: __RINvNtNtNtCse1nGBsou5OW_5alloc11collections5btree3mem7replaceINtNtB4_4node7NodeRefNtNtB10_6marker5OwnedINtCslWi6RoPHlIL_7unicase7UniCaseReEINtNtB8_3vec3VecB2a_ENtB1k_14LeafOrInternalEuNCINvB2_8take_mutBX_NCINvMss_B10_BX_19push_internal_levelNtNtB8_5alloc6GlobalE0E0ECs1CdsUpMPkdx_18build_script_build, symObjAddr: 0xDC8, symBinAddr: 0x10000D9A4, symSize: 0x90 }
  - { offset: 0x2B83E, size: 0x8, addend: 0x0, symName: __RNCINvNtNtNtCse1nGBsou5OW_5alloc11collections5btree3mem8take_mutINtNtB6_4node7NodeRefNtNtB13_6marker5OwnedINtCslWi6RoPHlIL_7unicase7UniCaseReEINtNtB6_3map8BTreeMapB1G_INtNtBa_3vec3VecB2d_EENtB1n_14LeafOrInternalENCINvMss_B13_B10_19push_internal_levelNtNtBa_5alloc6GlobalE0E0Cs1CdsUpMPkdx_18build_script_build, symObjAddr: 0x127C, symBinAddr: 0x10000DE58, symSize: 0x28 }
  - { offset: 0x2B88B, size: 0x8, addend: 0x0, symName: __RNCINvNtNtNtCse1nGBsou5OW_5alloc11collections5btree3mem8take_mutINtNtB6_4node7NodeRefNtNtB13_6marker5OwnedINtCslWi6RoPHlIL_7unicase7UniCaseReEINtNtBa_3vec3VecB2d_ENtB1n_14LeafOrInternalENCINvMss_B13_B10_19push_internal_levelNtNtBa_5alloc6GlobalE0E0Cs1CdsUpMPkdx_18build_script_build, symObjAddr: 0x12A4, symBinAddr: 0x10000DE80, symSize: 0x28 }
  - { offset: 0x2BAC9, size: 0x8, addend: 0x0, symName: __RINvXsh_NtCse1nGBsou5OW_5alloc3vecINtB6_3VecReEINtNtNtNtCsfvfooZQ3Axs_4core4iter6traits7collect6ExtendBG_E6extendBw_ECs1CdsUpMPkdx_18build_script_build, symObjAddr: 0x10D8, symBinAddr: 0x10000DCB4, symSize: 0x48 }
  - { offset: 0x2BC90, size: 0x8, addend: 0x0, symName: __RNvXNvXsd_NtNtCse1nGBsou5OW_5alloc3vec9into_iterINtB8_8IntoIterppENtNtNtCsfvfooZQ3Axs_4core3ops4drop4Drop4dropINtB2_9DropGuardReNtNtBc_5alloc6GlobalEB12_4dropCs1CdsUpMPkdx_18build_script_build, symObjAddr: 0x29CC, symBinAddr: 0x10000F5A8, symSize: 0x7C }
  - { offset: 0x2BDC6, size: 0x8, addend: 0x0, symName: __RNvXsd_NtNtCse1nGBsou5OW_5alloc3vec9into_iterINtB5_8IntoIterReENtNtNtCsfvfooZQ3Axs_4core3ops4drop4Drop4dropCs1CdsUpMPkdx_18build_script_build, symObjAddr: 0x3020, symBinAddr: 0x10000FBFC, symSize: 0x8C }
  - { offset: 0x2BE66, size: 0x8, addend: 0x0, symName: __RNvXs3_NtNtCse1nGBsou5OW_5alloc3vec9into_iterINtB5_8IntoIterReENtNtNtNtCsfvfooZQ3Axs_4core4iter6traits8iterator8Iterator9size_hintCs1CdsUpMPkdx_18build_script_build, symObjAddr: 0x2CC0, symBinAddr: 0x10000F89C, symSize: 0x6C }
  - { offset: 0x2BECD, size: 0x8, addend: 0x0, symName: __RNvXs0_NtNtCse1nGBsou5OW_5alloc3vec11spec_extendINtB7_3VecReEINtB5_10SpecExtendBU_INtNtB7_9into_iter8IntoIterBU_EE11spec_extendCs1CdsUpMPkdx_18build_script_build, symObjAddr: 0x2A48, symBinAddr: 0x10000F624, symSize: 0x98 }
  - { offset: 0x2BF3A, size: 0x8, addend: 0x0, symName: __RNvXse_NtCse1nGBsou5OW_5alloc3vecINtB5_3VecReENtNtNtNtCsfvfooZQ3Axs_4core4iter6traits7collect12IntoIterator9into_iterCs1CdsUpMPkdx_18build_script_build, symObjAddr: 0x30AC, symBinAddr: 0x10000FC88, symSize: 0xDC }
  - { offset: 0x2C1D2, size: 0x8, addend: 0x0, symName: __RNvXsn_NtCse1nGBsou5OW_5alloc3vecINtB5_3VecReENtNtNtCsfvfooZQ3Axs_4core3ops4drop4Drop4dropCs1CdsUpMPkdx_18build_script_build, symObjAddr: 0x3188, symBinAddr: 0x10000FD64, symSize: 0x24 }
  - { offset: 0x2C2BE, size: 0x8, addend: 0x0, symName: __RNvXsp_NtCse1nGBsou5OW_5alloc3vecINtB5_3VecReENtNtCsfvfooZQ3Axs_4core3fmt5Debug3fmtCs1CdsUpMPkdx_18build_script_build, symObjAddr: 0x31AC, symBinAddr: 0x10000FD88, symSize: 0x74 }
  - { offset: 0x2C3FD, size: 0x8, addend: 0x0, symName: __RNvNtCse1nGBsou5OW_5alloc5alloc12alloc_zeroedCs1CdsUpMPkdx_18build_script_build, symObjAddr: 0x1B40, symBinAddr: 0x10000E71C, symSize: 0x84 }
  - { offset: 0x2C494, size: 0x8, addend: 0x0, symName: __RNvNtCse1nGBsou5OW_5alloc5alloc5allocCs1CdsUpMPkdx_18build_script_build, symObjAddr: 0x1BC4, symBinAddr: 0x10000E7A0, symSize: 0x84 }
  - { offset: 0x2C530, size: 0x8, addend: 0x0, symName: __RNvXs1_NtCse1nGBsou5OW_5alloc5allocNtB5_6GlobalNtNtCsfvfooZQ3Axs_4core5clone5Clone5cloneCs1CdsUpMPkdx_18build_script_build, symObjAddr: 0x2AE0, symBinAddr: 0x10000F6BC, symSize: 0x10 }
  - { offset: 0x2C581, size: 0x8, addend: 0x0, symName: __RNvXs_NtCse1nGBsou5OW_5alloc5allocNtB4_6GlobalNtNtCsfvfooZQ3Axs_4core5alloc9Allocator10deallocateCs1CdsUpMPkdx_18build_script_build, symObjAddr: 0x2E84, symBinAddr: 0x10000FA60, symSize: 0x88 }
  - { offset: 0x2C65C, size: 0x8, addend: 0x0, symName: __RNvXs_NtCse1nGBsou5OW_5alloc5allocNtB4_6GlobalNtNtCsfvfooZQ3Axs_4core5alloc9Allocator8allocateCs1CdsUpMPkdx_18build_script_build, symObjAddr: 0x2F0C, symBinAddr: 0x10000FAE8, symSize: 0x34 }
  - { offset: 0x2CC02, size: 0x8, addend: 0x0, symName: __RNvMNtCse1nGBsou5OW_5alloc3vecINtB2_3VecReE3newCs1CdsUpMPkdx_18build_script_build, symObjAddr: 0x1470, symBinAddr: 0x10000E04C, symSize: 0x14 }
  - { offset: 0x2CD8D, size: 0x8, addend: 0x0, symName: __RNvMNtCse1nGBsou5OW_5alloc5allocNtB2_6Global10alloc_implCs1CdsUpMPkdx_18build_script_build, symObjAddr: 0x1484, symBinAddr: 0x10000E060, symSize: 0x194 }
  - { offset: 0x2D0E7, size: 0x8, addend: 0x0, symName: __RNvMs5_NtNtCscOYdFFY2T5N_3std2io5errorNtB5_5Error14is_interruptedCs1CdsUpMPkdx_18build_script_build, symObjAddr: 0x1618, symBinAddr: 0x10000E1F4, symSize: 0x138 }
  - { offset: 0x2D342, size: 0x8, addend: 0x0, symName: __RNvMs_NtCse1nGBsou5OW_5alloc3vecINtB4_3VecReE15append_elementsCs1CdsUpMPkdx_18build_script_build, symObjAddr: 0x1750, symBinAddr: 0x10000E32C, symSize: 0xD8 }
  - { offset: 0x2D498, size: 0x8, addend: 0x0, symName: __RNvMs_NtCse1nGBsou5OW_5alloc3vecINtB4_3VecReE3lenCs1CdsUpMPkdx_18build_script_build, symObjAddr: 0x1828, symBinAddr: 0x10000E404, symSize: 0x18 }
  - { offset: 0x2D5AC, size: 0x8, addend: 0x0, symName: __RNvMs_NtCse1nGBsou5OW_5alloc3vecINtB4_3VecReE4pushCs1CdsUpMPkdx_18build_script_build, symObjAddr: 0x1840, symBinAddr: 0x10000E41C, symSize: 0xF4 }
  - { offset: 0x2D882, size: 0x8, addend: 0x0, symName: __RNvMs_NtCse1nGBsou5OW_5alloc3vecINtB4_3VecReE7reserveCs1CdsUpMPkdx_18build_script_build, symObjAddr: 0x1934, symBinAddr: 0x10000E510, symSize: 0xC8 }
  - { offset: 0x2DAE2, size: 0x8, addend: 0x0, symName: __RNvMs_NtCse1nGBsou5OW_5alloc3vecINtB4_3VechE4pushCs1CdsUpMPkdx_18build_script_build, symObjAddr: 0x19FC, symBinAddr: 0x10000E5D8, symSize: 0xDC }
  - { offset: 0x2DCA1, size: 0x8, addend: 0x0, symName: __RNvMs_NtNtCse1nGBsou5OW_5alloc3vec9into_iterINtB4_8IntoIterReE8as_sliceCs1CdsUpMPkdx_18build_script_build, symObjAddr: 0x1AD8, symBinAddr: 0x10000E6B4, symSize: 0x68 }
  - { offset: 0x2E482, size: 0x8, addend: 0x0, symName: __RINvMNtCsfvfooZQ3Axs_4core3stre4findcECs1CdsUpMPkdx_18build_script_build, symObjAddr: 0x0, symBinAddr: 0x1000100A4, symSize: 0xC8 }
  - { offset: 0x2E513, size: 0x8, addend: 0x0, symName: __RNvYINtNtNtNtCscOYdFFY2T5N_3std2io8buffered9bufwriter9BufWriterNtNtBb_2fs4FileENtB9_5Write9write_fmtCs1CdsUpMPkdx_18build_script_build, symObjAddr: 0x34CC, symBinAddr: 0x100013398, symSize: 0x128 }
  - { offset: 0x2E5C2, size: 0x8, addend: 0x0, symName: __RNvYNtNtNtNtNtCscOYdFFY2T5N_3std3sys3pal4unix5stdio6StderrNtNtBc_2io5Write9write_allCs1CdsUpMPkdx_18build_script_build, symObjAddr: 0x3668, symBinAddr: 0x100013534, symSize: 0x180 }
  - { offset: 0x2E663, size: 0x8, addend: 0x0, symName: __RNvYNtNtNtNtNtCscOYdFFY2T5N_3std3sys3pal4unix5stdio6StderrNtNtBc_2io5Write9write_fmtCs1CdsUpMPkdx_18build_script_build, symObjAddr: 0x37E8, symBinAddr: 0x1000136B4, symSize: 0x128 }
  - { offset: 0x2E8A6, size: 0x8, addend: 0x0, symName: __RNvXs4_NtNtNtCscOYdFFY2T5N_3std2io8buffered9bufwriterINtB5_9BufWriterNtNtBb_2fs4FileENtB9_5Write9write_allCs1CdsUpMPkdx_18build_script_build, symObjAddr: 0x2F1C, symBinAddr: 0x100012DE8, symSize: 0x80 }
  - { offset: 0x2E966, size: 0x8, addend: 0x0, symName: __RNvXs7_NtNtNtCscOYdFFY2T5N_3std2io8buffered9bufwriterINtB5_9BufWriterNtNtBb_2fs4FileENtNtNtCsfvfooZQ3Axs_4core3ops4drop4Drop4dropCs1CdsUpMPkdx_18build_script_build, symObjAddr: 0x2FDC, symBinAddr: 0x100012EA8, symSize: 0x4C }
  - { offset: 0x2EC9C, size: 0x8, addend: 0x0, symName: __RINvNtNtCscOYdFFY2T5N_3std3sys9backtrace28___rust_begin_short_backtraceFEuuECs1CdsUpMPkdx_18build_script_build, symObjAddr: 0xC68, symBinAddr: 0x100010C64, symSize: 0x24 }
  - { offset: 0x2ED86, size: 0x8, addend: 0x0, symName: __RNvXs5_NtNtNtCscOYdFFY2T5N_3std2os2fd5ownedNtB5_7OwnedFdNtNtNtCsfvfooZQ3Axs_4core3ops4drop4Drop4dropCs1CdsUpMPkdx_18build_script_build, symObjAddr: 0x2F9C, symBinAddr: 0x100012E68, symSize: 0x40 }
  - { offset: 0x2EDC1, size: 0x8, addend: 0x0, symName: __RNvXs3_NtNtCscOYdFFY2T5N_3std3ffi6os_strNtB5_8OsStringINtNtNtCsfvfooZQ3Axs_4core3ops5index5IndexNtNtBV_5range9RangeFullE5indexCs1CdsUpMPkdx_18build_script_build, symObjAddr: 0x2EA4, symBinAddr: 0x100012D70, symSize: 0x78 }
  - { offset: 0x2EEEE, size: 0x8, addend: 0x0, symName: __RNvXsW_NtNtCscOYdFFY2T5N_3std3ffi6os_streINtNtCsfvfooZQ3Axs_4core7convert5AsRefNtB5_5OsStrE6as_refCs1CdsUpMPkdx_18build_script_build, symObjAddr: 0x3070, symBinAddr: 0x100012F3C, symSize: 0x18 }
  - { offset: 0x2F34F, size: 0x8, addend: 0x0, symName: __RNvNvMs1_NtNtCsfvfooZQ3Axs_4core3ptr8non_nullINtB7_7NonNullpE13new_unchecked18precondition_checkCs1CdsUpMPkdx_18build_script_build, symObjAddr: 0x2570, symBinAddr: 0x10001243C, symSize: 0x38 }
  - { offset: 0x2F916, size: 0x8, addend: 0x0, symName: __RINvNtCsfvfooZQ3Axs_4core3ptr13drop_in_placeINtNtB4_6result6ResultuNtNtNtCscOYdFFY2T5N_3std2io5error5ErrorEECs1CdsUpMPkdx_18build_script_build, symObjAddr: 0x3C0, symBinAddr: 0x10001041C, symSize: 0x44 }
  - { offset: 0x2F945, size: 0x8, addend: 0x0, symName: __RINvNtCsfvfooZQ3Axs_4core3ptr13drop_in_placeINtNtCse1nGBsou5OW_5alloc3vec3VecReEECs1CdsUpMPkdx_18build_script_build, symObjAddr: 0x404, symBinAddr: 0x100010460, symSize: 0x5C }
  - { offset: 0x2F974, size: 0x8, addend: 0x0, symName: __RINvNtCsfvfooZQ3Axs_4core3ptr13drop_in_placeINtNtCse1nGBsou5OW_5alloc3vec3VechEECs1CdsUpMPkdx_18build_script_build, symObjAddr: 0x460, symBinAddr: 0x1000104BC, symSize: 0x5C }
  - { offset: 0x2F9A3, size: 0x8, addend: 0x0, symName: __RINvNtCsfvfooZQ3Axs_4core3ptr13drop_in_placeINtNtCse1nGBsou5OW_5alloc5boxed3BoxDNtNtB4_5error5ErrorNtNtB4_6marker4SendNtB1B_4SyncEL_EECs1CdsUpMPkdx_18build_script_build, symObjAddr: 0x4BC, symBinAddr: 0x100010518, symSize: 0x80 }
  - { offset: 0x2F9D2, size: 0x8, addend: 0x0, symName: __RINvNtCsfvfooZQ3Axs_4core3ptr13drop_in_placeINtNtCse1nGBsou5OW_5alloc5boxed3BoxINtNtNtNtBL_11collections5btree4node12InternalNodeINtCslWi6RoPHlIL_7unicase7UniCaseReEINtNtB1k_3map8BTreeMapB23_INtNtBL_3vec3VecB2A_EEEEECs1CdsUpMPkdx_18build_script_build, symObjAddr: 0x53C, symBinAddr: 0x100010598, symSize: 0x2C }
  - { offset: 0x2FA01, size: 0x8, addend: 0x0, symName: __RINvNtCsfvfooZQ3Axs_4core3ptr13drop_in_placeINtNtCse1nGBsou5OW_5alloc5boxed3BoxINtNtNtNtBL_11collections5btree4node12InternalNodeINtCslWi6RoPHlIL_7unicase7UniCaseReEINtNtBL_3vec3VecB2A_EEEECs1CdsUpMPkdx_18build_script_build, symObjAddr: 0x568, symBinAddr: 0x1000105C4, symSize: 0x2C }
  - { offset: 0x2FA30, size: 0x8, addend: 0x0, symName: __RINvNtCsfvfooZQ3Axs_4core3ptr13drop_in_placeINtNtCse1nGBsou5OW_5alloc5boxed3BoxINtNtNtNtBL_11collections5btree4node8LeafNodeINtCslWi6RoPHlIL_7unicase7UniCaseReEINtNtB1k_3map8BTreeMapB1Y_INtNtBL_3vec3VecB2v_EEEEECs1CdsUpMPkdx_18build_script_build, symObjAddr: 0x594, symBinAddr: 0x1000105F0, symSize: 0x2C }
  - { offset: 0x2FA5F, size: 0x8, addend: 0x0, symName: __RINvNtCsfvfooZQ3Axs_4core3ptr13drop_in_placeINtNtCse1nGBsou5OW_5alloc5boxed3BoxINtNtNtNtBL_11collections5btree4node8LeafNodeINtCslWi6RoPHlIL_7unicase7UniCaseReEINtNtBL_3vec3VecB2v_EEEECs1CdsUpMPkdx_18build_script_build, symObjAddr: 0x5C0, symBinAddr: 0x10001061C, symSize: 0x2C }
  - { offset: 0x2FA8E, size: 0x8, addend: 0x0, symName: __RINvNtCsfvfooZQ3Axs_4core3ptr13drop_in_placeINtNtCse1nGBsou5OW_5alloc5boxed3BoxNtNtNtCscOYdFFY2T5N_3std2io5error6CustomEECs1CdsUpMPkdx_18build_script_build, symObjAddr: 0x5EC, symBinAddr: 0x100010648, symSize: 0x60 }
  - { offset: 0x2FABD, size: 0x8, addend: 0x0, symName: __RINvNtCsfvfooZQ3Axs_4core3ptr13drop_in_placeINtNtCse1nGBsou5OW_5alloc7raw_vec6RawVecReEECs1CdsUpMPkdx_18build_script_build, symObjAddr: 0x64C, symBinAddr: 0x1000106A8, symSize: 0x24 }
  - { offset: 0x2FAEC, size: 0x8, addend: 0x0, symName: __RINvNtCsfvfooZQ3Axs_4core3ptr13drop_in_placeINtNtCse1nGBsou5OW_5alloc7raw_vec6RawVechEECs1CdsUpMPkdx_18build_script_build, symObjAddr: 0x670, symBinAddr: 0x1000106CC, symSize: 0x24 }
  - { offset: 0x2FB1B, size: 0x8, addend: 0x0, symName: __RINvNtCsfvfooZQ3Axs_4core3ptr13drop_in_placeINtNtNtCscOYdFFY2T5N_3std2io5error9ErrorDataINtNtCse1nGBsou5OW_5alloc5boxed3BoxNtBJ_6CustomEEECs1CdsUpMPkdx_18build_script_build, symObjAddr: 0x694, symBinAddr: 0x1000106F0, symSize: 0x48 }
  - { offset: 0x2FB4A, size: 0x8, addend: 0x0, symName: __RINvNtCsfvfooZQ3Axs_4core3ptr13drop_in_placeINtNtNtCse1nGBsou5OW_5alloc3vec9into_iter8IntoIterReEECs1CdsUpMPkdx_18build_script_build, symObjAddr: 0x6DC, symBinAddr: 0x100010738, symSize: 0x24 }
  - { offset: 0x2FB79, size: 0x8, addend: 0x0, symName: __RINvNtCsfvfooZQ3Axs_4core3ptr13drop_in_placeINtNtNtNtCscOYdFFY2T5N_3std2io8buffered9bufwriter9BufWriterNtNtBP_2fs4FileEECs1CdsUpMPkdx_18build_script_build, symObjAddr: 0x700, symBinAddr: 0x10001075C, symSize: 0x88 }
  - { offset: 0x2FBA8, size: 0x8, addend: 0x0, symName: __RINvNtCsfvfooZQ3Axs_4core3ptr13drop_in_placeINtNtNtNtCse1nGBsou5OW_5alloc11collections5btree3map8BTreeMapINtCslWi6RoPHlIL_7unicase7UniCaseReEIBH_B1F_INtNtBP_3vec3VecB2c_EEEECs1CdsUpMPkdx_18build_script_build, symObjAddr: 0x788, symBinAddr: 0x1000107E4, symSize: 0x24 }
  - { offset: 0x2FBD7, size: 0x8, addend: 0x0, symName: __RINvNtCsfvfooZQ3Axs_4core3ptr13drop_in_placeINtNtNtNtCse1nGBsou5OW_5alloc11collections5btree3map8BTreeMapINtCslWi6RoPHlIL_7unicase7UniCaseReEINtNtBP_3vec3VecB2c_EEECs1CdsUpMPkdx_18build_script_build, symObjAddr: 0x7AC, symBinAddr: 0x100010808, symSize: 0x24 }
  - { offset: 0x2FC06, size: 0x8, addend: 0x0, symName: __RINvNtCsfvfooZQ3Axs_4core3ptr13drop_in_placeINtNtNtNtCse1nGBsou5OW_5alloc11collections5btree3map8IntoIterINtCslWi6RoPHlIL_7unicase7UniCaseReEINtBJ_8BTreeMapB1F_INtNtBP_3vec3VecB2c_EEEECs1CdsUpMPkdx_18build_script_build, symObjAddr: 0x7D0, symBinAddr: 0x10001082C, symSize: 0x24 }
  - { offset: 0x2FC35, size: 0x8, addend: 0x0, symName: __RINvNtCsfvfooZQ3Axs_4core3ptr13drop_in_placeINtNtNtNtCse1nGBsou5OW_5alloc11collections5btree3map8IntoIterINtCslWi6RoPHlIL_7unicase7UniCaseReEINtNtBP_3vec3VecB2c_EEECs1CdsUpMPkdx_18build_script_build, symObjAddr: 0x7F4, symBinAddr: 0x100010850, symSize: 0x24 }
  - { offset: 0x2FC64, size: 0x8, addend: 0x0, symName: __RINvNtCsfvfooZQ3Axs_4core3ptr13drop_in_placeINtNtNtNtCse1nGBsou5OW_5alloc11collections5btree4node11SplitResultINtCslWi6RoPHlIL_7unicase7UniCaseReEINtNtBL_3map8BTreeMapB1K_INtNtBP_3vec3VecB2h_EENtNtBJ_6marker4LeafEECs1CdsUpMPkdx_18build_script_build, symObjAddr: 0x818, symBinAddr: 0x100010874, symSize: 0x24 }
  - { offset: 0x2FC93, size: 0x8, addend: 0x0, symName: __RINvNtCsfvfooZQ3Axs_4core3ptr13drop_in_placeINtNtNtNtCse1nGBsou5OW_5alloc11collections5btree4node11SplitResultINtCslWi6RoPHlIL_7unicase7UniCaseReEINtNtBL_3map8BTreeMapB1K_INtNtBP_3vec3VecB2h_EENtNtBJ_6marker8InternalEECs1CdsUpMPkdx_18build_script_build, symObjAddr: 0x83C, symBinAddr: 0x100010898, symSize: 0x24 }
  - { offset: 0x2FCC2, size: 0x8, addend: 0x0, symName: __RINvNtCsfvfooZQ3Axs_4core3ptr13drop_in_placeINtNtNtNtCse1nGBsou5OW_5alloc11collections5btree4node11SplitResultINtCslWi6RoPHlIL_7unicase7UniCaseReEINtNtBP_3vec3VecB2h_ENtNtBJ_6marker4LeafEECs1CdsUpMPkdx_18build_script_build, symObjAddr: 0x860, symBinAddr: 0x1000108BC, symSize: 0x24 }
  - { offset: 0x2FCF1, size: 0x8, addend: 0x0, symName: __RINvNtCsfvfooZQ3Axs_4core3ptr13drop_in_placeINtNtNtNtCse1nGBsou5OW_5alloc11collections5btree4node11SplitResultINtCslWi6RoPHlIL_7unicase7UniCaseReEINtNtBP_3vec3VecB2h_ENtNtBJ_6marker8InternalEECs1CdsUpMPkdx_18build_script_build, symObjAddr: 0x884, symBinAddr: 0x1000108E0, symSize: 0x24 }
  - { offset: 0x2FD20, size: 0x8, addend: 0x0, symName: __RINvNtCsfvfooZQ3Axs_4core3ptr13drop_in_placeINtNvMsT_NtNtNtCse1nGBsou5OW_5alloc11collections5btree4nodeINtBP_6HandleINtBP_7NodeRefNtNtBP_6marker5DyingpppENtB26_2KVE12drop_key_val7DropperINtNtBR_3map8BTreeMapINtCslWi6RoPHlIL_7unicase7UniCaseReEINtNtBV_3vec3VecB3Q_EEEECs1CdsUpMPkdx_18build_script_build, symObjAddr: 0x8A8, symBinAddr: 0x100010904, symSize: 0x24 }
  - { offset: 0x2FD4F, size: 0x8, addend: 0x0, symName: __RINvNtCsfvfooZQ3Axs_4core3ptr13drop_in_placeINtNvMsT_NtNtNtCse1nGBsou5OW_5alloc11collections5btree4nodeINtBP_6HandleINtBP_7NodeRefNtNtBP_6marker5DyingpppENtB26_2KVE12drop_key_val7DropperINtNtBV_3vec3VecReEEECs1CdsUpMPkdx_18build_script_build, symObjAddr: 0x8CC, symBinAddr: 0x100010928, symSize: 0x24 }
  - { offset: 0x2FD7E, size: 0x8, addend: 0x0, symName: __RINvNtCsfvfooZQ3Axs_4core3ptr13drop_in_placeINtNvNtNtCscOYdFFY2T5N_3std2io5Write9write_fmt7AdapterINtNtNtBN_8buffered9bufwriter9BufWriterNtNtBP_2fs4FileEEECs1CdsUpMPkdx_18build_script_build, symObjAddr: 0x8F0, symBinAddr: 0x10001094C, symSize: 0x24 }
  - { offset: 0x2FDAD, size: 0x8, addend: 0x0, symName: __RINvNtCsfvfooZQ3Axs_4core3ptr13drop_in_placeINtNvNtNtCscOYdFFY2T5N_3std2io5Write9write_fmt7AdapterNtNtNtNtNtBP_3sys3pal4unix5stdio6StderrEECs1CdsUpMPkdx_18build_script_build, symObjAddr: 0x914, symBinAddr: 0x100010970, symSize: 0x24 }
  - { offset: 0x2FDDC, size: 0x8, addend: 0x0, symName: __RINvNtCsfvfooZQ3Axs_4core3ptr13drop_in_placeINtNvXsd_NtNtCse1nGBsou5OW_5alloc3vec9into_iterINtBP_8IntoIterppENtNtNtB4_3ops4drop4Drop4drop9DropGuardReNtNtBT_5alloc6GlobalEECs1CdsUpMPkdx_18build_script_build, symObjAddr: 0x938, symBinAddr: 0x100010994, symSize: 0x24 }
  - { offset: 0x2FE0B, size: 0x8, addend: 0x0, symName: __RINvNtCsfvfooZQ3Axs_4core3ptr13drop_in_placeINtNvXsw_NtNtNtCse1nGBsou5OW_5alloc11collections5btree3mapINtBP_8IntoIterpppENtNtNtB4_3ops4drop4Drop4drop9DropGuardINtCslWi6RoPHlIL_7unicase7UniCaseReEINtBP_8BTreeMapB2x_INtNtBV_3vec3VecB34_EENtNtBV_5alloc6GlobalEECs1CdsUpMPkdx_18build_script_build, symObjAddr: 0x95C, symBinAddr: 0x1000109B8, symSize: 0x24 }
  - { offset: 0x2FE3A, size: 0x8, addend: 0x0, symName: __RINvNtCsfvfooZQ3Axs_4core3ptr13drop_in_placeINtNvXsw_NtNtNtCse1nGBsou5OW_5alloc11collections5btree3mapINtBP_8IntoIterpppENtNtNtB4_3ops4drop4Drop4drop9DropGuardINtCslWi6RoPHlIL_7unicase7UniCaseReEINtNtBV_3vec3VecB34_ENtNtBV_5alloc6GlobalEECs1CdsUpMPkdx_18build_script_build, symObjAddr: 0x980, symBinAddr: 0x1000109DC, symSize: 0x24 }
  - { offset: 0x2FE69, size: 0x8, addend: 0x0, symName: __RINvNtCsfvfooZQ3Axs_4core3ptr13drop_in_placeNtNtCscOYdFFY2T5N_3std2fs4FileECs1CdsUpMPkdx_18build_script_build, symObjAddr: 0x9C4, symBinAddr: 0x100010A00, symSize: 0x24 }
  - { offset: 0x2FE98, size: 0x8, addend: 0x0, symName: __RINvNtCsfvfooZQ3Axs_4core3ptr13drop_in_placeNtNtCscOYdFFY2T5N_3std3env8VarErrorECs1CdsUpMPkdx_18build_script_build, symObjAddr: 0x9E8, symBinAddr: 0x100010A24, symSize: 0x48 }
  - { offset: 0x2FEC7, size: 0x8, addend: 0x0, symName: __RINvNtCsfvfooZQ3Axs_4core3ptr13drop_in_placeNtNtCscOYdFFY2T5N_3std4path7PathBufECs1CdsUpMPkdx_18build_script_build, symObjAddr: 0xA30, symBinAddr: 0x100010A6C, symSize: 0x24 }
  - { offset: 0x2FEF6, size: 0x8, addend: 0x0, symName: __RINvNtCsfvfooZQ3Axs_4core3ptr13drop_in_placeNtNtCse1nGBsou5OW_5alloc6string6StringECs1CdsUpMPkdx_18build_script_build, symObjAddr: 0xA54, symBinAddr: 0x100010A90, symSize: 0x24 }
  - { offset: 0x2FF25, size: 0x8, addend: 0x0, symName: __RINvNtCsfvfooZQ3Axs_4core3ptr13drop_in_placeNtNtNtCscOYdFFY2T5N_3std2io5error5ErrorECs1CdsUpMPkdx_18build_script_build, symObjAddr: 0xA88, symBinAddr: 0x100010AB4, symSize: 0x24 }
  - { offset: 0x2FF54, size: 0x8, addend: 0x0, symName: __RINvNtCsfvfooZQ3Axs_4core3ptr13drop_in_placeNtNtNtCscOYdFFY2T5N_3std2io5error6CustomECs1CdsUpMPkdx_18build_script_build, symObjAddr: 0xAAC, symBinAddr: 0x100010AD8, symSize: 0x24 }
  - { offset: 0x2FF83, size: 0x8, addend: 0x0, symName: __RINvNtCsfvfooZQ3Axs_4core3ptr13drop_in_placeNtNtNtCscOYdFFY2T5N_3std3ffi6os_str8OsStringECs1CdsUpMPkdx_18build_script_build, symObjAddr: 0xAD0, symBinAddr: 0x100010AFC, symSize: 0x24 }
  - { offset: 0x2FFB2, size: 0x8, addend: 0x0, symName: __RINvNtCsfvfooZQ3Axs_4core3ptr13drop_in_placeNtNtNtNtCscOYdFFY2T5N_3std2io5error14repr_bitpacked4ReprECs1CdsUpMPkdx_18build_script_build, symObjAddr: 0xAF4, symBinAddr: 0x100010B20, symSize: 0x24 }
  - { offset: 0x2FFE1, size: 0x8, addend: 0x0, symName: __RINvNtCsfvfooZQ3Axs_4core3ptr13drop_in_placeNtNtNtNtCscOYdFFY2T5N_3std2os2fd5owned7OwnedFdECs1CdsUpMPkdx_18build_script_build, symObjAddr: 0xB18, symBinAddr: 0x100010B44, symSize: 0x24 }
  - { offset: 0x30010, size: 0x8, addend: 0x0, symName: __RINvNtCsfvfooZQ3Axs_4core3ptr13drop_in_placeNtNtNtNtCscOYdFFY2T5N_3std3sys6os_str5bytes3BufECs1CdsUpMPkdx_18build_script_build, symObjAddr: 0xB3C, symBinAddr: 0x100010B68, symSize: 0x24 }
  - { offset: 0x3003F, size: 0x8, addend: 0x0, symName: __RINvNtCsfvfooZQ3Axs_4core3ptr13drop_in_placeNtNtNtNtNtCscOYdFFY2T5N_3std3sys3pal4unix2fd8FileDescECs1CdsUpMPkdx_18build_script_build, symObjAddr: 0xB60, symBinAddr: 0x100010B8C, symSize: 0x24 }
  - { offset: 0x3006E, size: 0x8, addend: 0x0, symName: __RINvNtCsfvfooZQ3Axs_4core3ptr13drop_in_placeNtNtNtNtNtCscOYdFFY2T5N_3std3sys3pal4unix2fs4FileECs1CdsUpMPkdx_18build_script_build, symObjAddr: 0xB84, symBinAddr: 0x100010BB0, symSize: 0x24 }
  - { offset: 0x3009D, size: 0x8, addend: 0x0, symName: __RINvNtCsfvfooZQ3Axs_4core3ptr13drop_in_placeNtNvMs_NtNtNtCscOYdFFY2T5N_3std2io8buffered9bufwriterINtBN_9BufWriterpE9flush_buf8BufGuardECs1CdsUpMPkdx_18build_script_build, symObjAddr: 0xBA8, symBinAddr: 0x100010BD4, symSize: 0x24 }
  - { offset: 0x300CC, size: 0x8, addend: 0x0, symName: __RINvNtCsfvfooZQ3Axs_4core3ptr13drop_in_placeNtNvNtNtNtCse1nGBsou5OW_5alloc11collections5btree3mem7replace10PanicGuardECs1CdsUpMPkdx_18build_script_build, symObjAddr: 0xBCC, symBinAddr: 0x100010BF8, symSize: 0x24 }
  - { offset: 0x300FB, size: 0x8, addend: 0x0, symName: __RINvNtCsfvfooZQ3Axs_4core3ptr13drop_in_placeTINtCslWi6RoPHlIL_7unicase7UniCaseReEINtNtCse1nGBsou5OW_5alloc3vec3VecB1e_EEECs1CdsUpMPkdx_18build_script_build, symObjAddr: 0xC20, symBinAddr: 0x100010C1C, symSize: 0x24 }
  - { offset: 0x3012A, size: 0x8, addend: 0x0, symName: __RINvNtCsfvfooZQ3Axs_4core3ptr13drop_in_placeTINtCslWi6RoPHlIL_7unicase7UniCaseReEINtNtNtNtCse1nGBsou5OW_5alloc11collections5btree3map8BTreeMapBH_INtNtB1q_3vec3VecB1e_EEEECs1CdsUpMPkdx_18build_script_build, symObjAddr: 0xC44, symBinAddr: 0x100010C40, symSize: 0x24 }
  - { offset: 0x303BD, size: 0x8, addend: 0x0, symName: __RNvNvMNtNtCsfvfooZQ3Axs_4core3ptr9const_ptrPp7sub_ptr18precondition_checkCs1CdsUpMPkdx_18build_script_build, symObjAddr: 0x24E0, symBinAddr: 0x1000123AC, symSize: 0x40 }
  - { offset: 0x30B32, size: 0x8, addend: 0x0, symName: __RNvXs1a_NtCsfvfooZQ3Axs_4core3fmtRNtNtNtCscOYdFFY2T5N_3std3ffi6os_str8OsStringNtB6_5Debug3fmtCs1CdsUpMPkdx_18build_script_build, symObjAddr: 0x2A70, symBinAddr: 0x10001293C, symSize: 0x30 }
  - { offset: 0x317AA, size: 0x8, addend: 0x0, symName: __RINvMNtCsfvfooZQ3Axs_4core3stre4findcECs1CdsUpMPkdx_18build_script_build, symObjAddr: 0x0, symBinAddr: 0x1000100A4, symSize: 0xC8 }
  - { offset: 0x31832, size: 0x8, addend: 0x0, symName: __RNvMNtCsfvfooZQ3Axs_4core3stre5charsCs1CdsUpMPkdx_18build_script_build, symObjAddr: 0x183C, symBinAddr: 0x100011838, symSize: 0x20 }
  - { offset: 0x318BE, size: 0x8, addend: 0x0, symName: __RNvMNtCsfvfooZQ3Axs_4core3stre8is_asciiCs1CdsUpMPkdx_18build_script_build, symObjAddr: 0x185C, symBinAddr: 0x100011858, symSize: 0x34 }
  - { offset: 0x319C8, size: 0x8, addend: 0x0, symName: __RNvXNtNtCsfvfooZQ3Axs_4core3str4iterNtB2_5CharsNtNtNtNtB6_4iter6traits8iterator8Iterator4nextCs1CdsUpMPkdx_18build_script_build, symObjAddr: 0x2704, symBinAddr: 0x1000125D0, symSize: 0x70 }
  - { offset: 0x31A8D, size: 0x8, addend: 0x0, symName: __RNvXs2_NtNtCsfvfooZQ3Axs_4core3str7patterncNtB5_7Pattern13into_searcherCs1CdsUpMPkdx_18build_script_build, symObjAddr: 0x2D90, symBinAddr: 0x100012C5C, symSize: 0x114 }
  - { offset: 0x31C12, size: 0x8, addend: 0x0, symName: __RNvXs_NtNtCsfvfooZQ3Axs_4core3str7patternNtB4_12CharSearcherNtB4_8Searcher10next_matchCs1CdsUpMPkdx_18build_script_build, symObjAddr: 0x3088, symBinAddr: 0x100012F54, symSize: 0x384 }
  - { offset: 0x322E5, size: 0x8, addend: 0x0, symName: __RNvNvNtCsfvfooZQ3Axs_4core4hint21unreachable_unchecked18precondition_checkCs1CdsUpMPkdx_18build_script_build, symObjAddr: 0x25A8, symBinAddr: 0x100012474, symSize: 0x1C }
  - { offset: 0x32314, size: 0x8, addend: 0x0, symName: __RINvXs0_NtNtNtCsfvfooZQ3Axs_4core4iter8adapters3mapINtB6_3MapNtNtNtBc_3str4iter5CharsNCNvXs2_NtCslWi6RoPHlIL_7unicase5asciiINtB1v_5AsciiReENtNtBc_3cmp3Ord3cmp0ENtNtNtBa_6traits8iterator8Iterator8try_folduNCINvNvB2y_12try_for_each4callcINtNtNtBc_3ops12control_flow11ControlFlowIB3M_NtB2f_8OrderingB4v_EENCINvNvB2A_12iter_compare7compareIBO_BX_NCB1n_s_0EcB4v_NCINvNvB2y_6cmp_by7compareccNCINvYBN_B2y_3cmpB5n_E0E0E0E0B3L_ECs1CdsUpMPkdx_18build_script_build, symObjAddr: 0xC8C, symBinAddr: 0x100010C88, symSize: 0x38 }
  - { offset: 0x32392, size: 0x8, addend: 0x0, symName: __RINvXs0_NtNtNtCsfvfooZQ3Axs_4core4iter8adapters3mapINtB6_3MapNtNtNtBc_3str4iter5CharsNvNtNtCslWi6RoPHlIL_7unicase7unicode3map6lookupENtNtNtBa_6traits8iterator8Iterator8try_folduNCINvNvMst_NtB8_7flattenINtB30_13FlattenCompatppE13iter_try_fold7flattenNtNtB1p_4fold4FolduINtNtNtBc_3ops12control_flow11ControlFlowIB4j_NtNtBc_3cmp8OrderingB52_EENCINvNvXsv_B30_B3d_B27_8try_fold7flattenB3Z_uB4i_NCINvNvB27_12try_for_each4callcB4i_NCINvNvB29_12iter_compare7compareINtB30_7FlatMapBX_B3Z_B1l_EcB52_NCINvNvB27_6cmp_by7compareccNCINvYB7l_B27_3cmpB7l_E0E0E0E0E0E0B4i_ECs1CdsUpMPkdx_18build_script_build, symObjAddr: 0xCC4, symBinAddr: 0x100010CC0, symSize: 0x54 }
  - { offset: 0x32435, size: 0x8, addend: 0x0, symName: __RNvXs0_NtNtNtCsfvfooZQ3Axs_4core4iter8adapters3mapINtB5_3MapNtNtNtBb_3str4iter5CharsNCNvXs2_NtCslWi6RoPHlIL_7unicase5asciiINtB1u_5AsciiReENtNtBb_3cmp3Ord3cmps_0ENtNtNtB9_6traits8iterator8Iterator4nextCs1CdsUpMPkdx_18build_script_build, symObjAddr: 0x2930, symBinAddr: 0x1000127FC, symSize: 0x78 }
  - { offset: 0x324AF, size: 0x8, addend: 0x0, symName: __RNvXs0_NtNtNtCsfvfooZQ3Axs_4core4iter8adapters3mapINtB5_3MapNtNtNtBb_3str4iter5CharsNvNtNtCslWi6RoPHlIL_7unicase7unicode3map6lookupENtNtNtB9_6traits8iterator8Iterator4nextCs1CdsUpMPkdx_18build_script_build, symObjAddr: 0x29A8, symBinAddr: 0x100012874, symSize: 0x94 }
  - { offset: 0x325DD, size: 0x8, addend: 0x0, symName: __RNCINvNtNtNtCsfvfooZQ3Axs_4core4iter8adapters3map12map_try_foldcNtNtNtCslWi6RoPHlIL_7unicase7unicode4fold4FolduINtNtNtBa_3ops12control_flow11ControlFlowIB1M_NtNtBa_3cmp8OrderingB2v_EENvNtB14_3map6lookupNCINvNvMst_NtB6_7flattenINtB3p_13FlattenCompatppE13iter_try_fold7flattenB10_uB1L_NCINvNvXsv_B3p_B3C_NtNtNtB8_6traits8iterator8Iterator8try_fold7flattenB10_uB1L_NCINvNvB4Q_12try_for_each4callcB1L_NCINvNvB4S_12iter_compare7compareINtB3p_7FlatMapNtNtNtBa_3str4iter5CharsB10_B2V_EcB2v_NCINvNvB4Q_6cmp_by7compareccNCINvYB6U_B4Q_3cmpB6U_E0E0E0E0E0E0E0Cs1CdsUpMPkdx_18build_script_build, symObjAddr: 0x1414, symBinAddr: 0x100011410, symSize: 0x9C }
  - { offset: 0x3266F, size: 0x8, addend: 0x0, symName: __RNCINvNtNtNtCsfvfooZQ3Axs_4core4iter8adapters3map12map_try_foldccuINtNtNtBa_3ops12control_flow11ControlFlowIB13_NtNtBa_3cmp8OrderingB1M_EENCNvXs2_NtCslWi6RoPHlIL_7unicase5asciiINtB2m_5AsciiReENtB1O_3Ord3cmp0NCINvNvNtNtNtB8_6traits8iterator8Iterator12try_for_each4callcB12_NCINvNvB3s_12iter_compare7compareINtB4_3MapNtNtNtBa_3str4iter5CharsNCB2e_s_0EcB1M_NCINvNvB3q_6cmp_by7compareccNCINvYIB4U_B53_B2c_EB3q_3cmpB4T_E0E0E0E0E0Cs1CdsUpMPkdx_18build_script_build, symObjAddr: 0x14B0, symBinAddr: 0x1000114AC, symSize: 0x8C }
  - { offset: 0x32978, size: 0x8, addend: 0x0, symName: __RINvYINtNtNtNtCsfvfooZQ3Axs_4core4iter8adapters3map3MapNtNtNtBc_3str4iter5CharsNCNvXs2_NtCslWi6RoPHlIL_7unicase5asciiINtB1p_5AsciiReENtNtBc_3cmp3Ord3cmp0ENtNtNtBa_6traits8iterator8Iterator12try_for_eachNCINvNvB2u_12iter_compare7compareIB4_BR_NCB1h_s_0EcNtB29_8OrderingNCINvNvB2s_6cmp_by7compareccNCINvYB3_B2s_3cmpB3L_E0E0E0INtNtNtBc_3ops12control_flow11ControlFlowIB5c_B43_B43_EEECs1CdsUpMPkdx_18build_script_build, symObjAddr: 0xD18, symBinAddr: 0x100010D14, symSize: 0x2C }
  - { offset: 0x329D0, size: 0x8, addend: 0x0, symName: __RINvYINtNtNtNtCsfvfooZQ3Axs_4core4iter8adapters3map3MapNtNtNtBc_3str4iter5CharsNCNvXs2_NtCslWi6RoPHlIL_7unicase5asciiINtB1p_5AsciiReENtNtBc_3cmp3Ord3cmp0ENtNtNtBa_6traits8iterator8Iterator3cmpIB4_BR_NCB1h_s_0EECs1CdsUpMPkdx_18build_script_build, symObjAddr: 0xD44, symBinAddr: 0x100010D40, symSize: 0x3C }
  - { offset: 0x32A1F, size: 0x8, addend: 0x0, symName: __RINvYINtNtNtNtCsfvfooZQ3Axs_4core4iter8adapters3map3MapNtNtNtBc_3str4iter5CharsNCNvXs2_NtCslWi6RoPHlIL_7unicase5asciiINtB1p_5AsciiReENtNtBc_3cmp3Ord3cmp0ENtNtNtBa_6traits8iterator8Iterator6cmp_byIB4_BR_NCB1h_s_0ENCINvYB3_B2s_3cmpB37_E0ECs1CdsUpMPkdx_18build_script_build, symObjAddr: 0xD80, symBinAddr: 0x100010D7C, symSize: 0x108 }
  - { offset: 0x32AC2, size: 0x8, addend: 0x0, symName: __RINvYNtNtNtCsfvfooZQ3Axs_4core3str4iter5CharsNtNtNtNtB9_4iter6traits8iterator8Iterator3mapNtNtNtCslWi6RoPHlIL_7unicase7unicode4fold4FoldNvNtB1u_3map6lookupECs1CdsUpMPkdx_18build_script_build, symObjAddr: 0xE88, symBinAddr: 0x100010E84, symSize: 0x1C }
  - { offset: 0x32B1A, size: 0x8, addend: 0x0, symName: __RINvYNtNtNtCsfvfooZQ3Axs_4core3str4iter5CharsNtNtNtNtB9_4iter6traits8iterator8Iterator3mapcNCNvXs2_NtCslWi6RoPHlIL_7unicase5asciiINtB1B_5AsciiReENtNtB9_3cmp3Ord3cmp0ECs1CdsUpMPkdx_18build_script_build, symObjAddr: 0xEA4, symBinAddr: 0x100010EA0, symSize: 0x1C }
  - { offset: 0x32B72, size: 0x8, addend: 0x0, symName: __RINvYNtNtNtCsfvfooZQ3Axs_4core3str4iter5CharsNtNtNtNtB9_4iter6traits8iterator8Iterator3mapcNCNvXs2_NtCslWi6RoPHlIL_7unicase5asciiINtB1B_5AsciiReENtNtB9_3cmp3Ord3cmps_0ECs1CdsUpMPkdx_18build_script_build, symObjAddr: 0xEC0, symBinAddr: 0x100010EBC, symSize: 0x1C }
  - { offset: 0x32BF1, size: 0x8, addend: 0x0, symName: __RINvYNtNtNtCsfvfooZQ3Axs_4core3str4iter5CharsNtNtNtNtB9_4iter6traits8iterator8Iterator8flat_mapNtNtNtCslWi6RoPHlIL_7unicase7unicode4fold4FoldNvNtB1z_3map6lookupECs1CdsUpMPkdx_18build_script_build, symObjAddr: 0xEDC, symBinAddr: 0x100010ED8, symSize: 0x9C }
  - { offset: 0x32CBF, size: 0x8, addend: 0x0, symName: __RINvYNtNtNtCsfvfooZQ3Axs_4core3str4iter5CharsNtNtNtNtB9_4iter6traits8iterator8Iterator8try_folduNCINvNtNtBN_8adapters3map12map_try_foldcNtNtNtCslWi6RoPHlIL_7unicase7unicode4fold4FolduINtNtNtB9_3ops12control_flow11ControlFlowIB2W_NtNtB9_3cmp8OrderingB3F_EENvNtB2e_3map6lookupNCINvNvMst_NtB1D_7flattenINtB4z_13FlattenCompatppE13iter_try_fold7flattenB2a_uB2V_NCINvNvXsv_B4z_B4N_BH_8try_fold7flattenB2a_uB2V_NCINvNvBH_12try_for_each4callcB2V_NCINvNvBJ_12iter_compare7compareINtB4z_7FlatMapB3_B2a_B45_EcB3F_NCINvNvBH_6cmp_by7compareccNCINvYB7y_BH_3cmpB7y_E0E0E0E0E0E0E0B2V_ECs1CdsUpMPkdx_18build_script_build, symObjAddr: 0xF78, symBinAddr: 0x100010F74, symSize: 0x188 }
  - { offset: 0x32D7A, size: 0x8, addend: 0x0, symName: __RINvYNtNtNtCsfvfooZQ3Axs_4core3str4iter5CharsNtNtNtNtB9_4iter6traits8iterator8Iterator8try_folduNCINvNtNtBN_8adapters3map12map_try_foldccuINtNtNtB9_3ops12control_flow11ControlFlowIB2d_NtNtB9_3cmp8OrderingB2W_EENCNvXs2_NtCslWi6RoPHlIL_7unicase5asciiINtB3w_5AsciiReENtB2Y_3Ord3cmp0NCINvNvBH_12try_for_each4callcB2c_NCINvNvBJ_12iter_compare7compareINtB1B_3MapB3_NCB3o_s_0EcB2W_NCINvNvBH_6cmp_by7compareccNCINvYIB5y_B3_B3m_EBH_3cmpB5x_E0E0E0E0E0B2c_ECs1CdsUpMPkdx_18build_script_build, symObjAddr: 0x1100, symBinAddr: 0x1000110FC, symSize: 0x18C }
  - { offset: 0x32E34, size: 0x8, addend: 0x0, symName: __RINvYNtNtNtCslWi6RoPHlIL_7unicase7unicode4fold4FoldNtNtNtNtCsfvfooZQ3Axs_4core4iter6traits8iterator8Iterator8try_folduQNCINvNvBN_12try_for_each4callcINtNtNtBV_3ops12control_flow11ControlFlowIB2o_NtNtBV_3cmp8OrderingB37_EENCINvNvBP_12iter_compare7compareINtNtNtBT_8adapters7flatten7FlatMapNtNtNtBV_3str4iter5CharsB3_NvNtB7_3map6lookupEcB37_NCINvNvBN_6cmp_by7compareccNCINvYB43_BN_3cmpB43_E0E0E0E0B2n_ECs1CdsUpMPkdx_18build_script_build, symObjAddr: 0x128C, symBinAddr: 0x100011288, symSize: 0x188 }
  - { offset: 0x32F43, size: 0x8, addend: 0x0, symName: __RNvXNtNtNtCsfvfooZQ3Axs_4core4iter6traits7collectINtNtNtB6_8adapters3map3MapNtNtNtB8_3str4iter5CharsNCNvXs2_NtCslWi6RoPHlIL_7unicase5asciiINtB1K_5AsciiReENtNtB8_3cmp3Ord3cmps_0ENtB2_12IntoIterator9into_iterCs1CdsUpMPkdx_18build_script_build, symObjAddr: 0x28E0, symBinAddr: 0x1000127AC, symSize: 0x1C }
  - { offset: 0x32F7A, size: 0x8, addend: 0x0, symName: __RNvXNtNtNtCsfvfooZQ3Axs_4core4iter6traits7collectINtNtNtB8_5slice4iter4IterReENtB2_12IntoIterator9into_iterCs1CdsUpMPkdx_18build_script_build, symObjAddr: 0x28FC, symBinAddr: 0x1000127C8, symSize: 0x1C }
  - { offset: 0x32FB1, size: 0x8, addend: 0x0, symName: __RNvXNtNtNtCsfvfooZQ3Axs_4core4iter6traits7collectNtNtNtCslWi6RoPHlIL_7unicase7unicode4fold4FoldNtB2_12IntoIterator9into_iterCs1CdsUpMPkdx_18build_script_build, symObjAddr: 0x2918, symBinAddr: 0x1000127E4, symSize: 0x18 }
  - { offset: 0x32FF5, size: 0x8, addend: 0x0, symName: __RNvXsF_NtNtCsfvfooZQ3Axs_4core4iter5rangejNtB5_4Step17forward_uncheckedCs1CdsUpMPkdx_18build_script_build, symObjAddr: 0x3028, symBinAddr: 0x100012EF4, symSize: 0x48 }
  - { offset: 0x332DC, size: 0x8, addend: 0x0, symName: __RNSNvYNCINvNtCscOYdFFY2T5N_3std2rt10lang_startuE0INtNtNtCsfvfooZQ3Axs_4core3ops8function6FnOnceuE9call_once6vtableCs1CdsUpMPkdx_18build_script_build, symObjAddr: 0x1814, symBinAddr: 0x100011810, symSize: 0x28 }
  - { offset: 0x33320, size: 0x8, addend: 0x0, symName: __RNvYFEuINtNtNtCsfvfooZQ3Axs_4core3ops8function6FnOnceuE9call_onceCs1CdsUpMPkdx_18build_script_build, symObjAddr: 0x34AC, symBinAddr: 0x100013378, symSize: 0x20 }
  - { offset: 0x33360, size: 0x8, addend: 0x0, symName: __RNvYNCINvNtCscOYdFFY2T5N_3std2rt10lang_startuE0INtNtNtCsfvfooZQ3Axs_4core3ops8function6FnOnceuE9call_onceCs1CdsUpMPkdx_18build_script_build, symObjAddr: 0x35F4, symBinAddr: 0x1000134C0, symSize: 0x4C }
  - { offset: 0x333A4, size: 0x8, addend: 0x0, symName: __RNvYNcNtINtNtNtCsfvfooZQ3Axs_4core3ops12control_flow11ControlFlowNtNtBd_3cmp8OrderingB11_E5Break0INtNtBb_8function6FnOnceTB11_EE9call_onceCs1CdsUpMPkdx_18build_script_build, symObjAddr: 0x3640, symBinAddr: 0x10001350C, symSize: 0x28 }
  - { offset: 0x333E8, size: 0x8, addend: 0x0, symName: __RNvYNvMNtCse1nGBsou5OW_5alloc3vecINtB5_3VecReE3newINtNtNtCsfvfooZQ3Axs_4core3ops8function6FnOnceuE9call_onceCs1CdsUpMPkdx_18build_script_build, symObjAddr: 0x3910, symBinAddr: 0x1000137DC, symSize: 0x1C }
  - { offset: 0x3342C, size: 0x8, addend: 0x0, symName: __RNvYNvMsg_NtNtNtCse1nGBsou5OW_5alloc11collections5btree3mapINtB8_8BTreeMapINtCslWi6RoPHlIL_7unicase7UniCaseReEINtNtBe_3vec3VecB1H_EE3newINtNtNtCsfvfooZQ3Axs_4core3ops8function6FnOnceuE9call_onceCs1CdsUpMPkdx_18build_script_build, symObjAddr: 0x392C, symBinAddr: 0x1000137F8, symSize: 0x1C }
  - { offset: 0x33470, size: 0x8, addend: 0x0, symName: __RNvYNvYNtNtNtCslWi6RoPHlIL_7unicase7unicode4fold4FoldNtNtNtNtCsfvfooZQ3Axs_4core4iter6traits8iterator8Iterator4nextINtNtNtBX_3ops8function6FnOnceTQB5_EE9call_onceCs1CdsUpMPkdx_18build_script_build, symObjAddr: 0x3970, symBinAddr: 0x10001383C, symSize: 0x24 }
  - { offset: 0x334BA, size: 0x8, addend: 0x0, symName: __RNvYNvNtNtCslWi6RoPHlIL_7unicase7unicode3map6lookupINtNtNtCsfvfooZQ3Axs_4core3ops8function5FnMutTcEE8call_mutCs1CdsUpMPkdx_18build_script_build, symObjAddr: 0x3948, symBinAddr: 0x100013814, symSize: 0x28 }
  - { offset: 0x336D8, size: 0x8, addend: 0x0, symName: __RNvXs2U_NtNtCsfvfooZQ3Axs_4core5slice4iterINtB6_4IterINtCslWi6RoPHlIL_7unicase7UniCaseReEENtNtNtNtBa_4iter6traits8iterator8Iterator4nextCs1CdsUpMPkdx_18build_script_build, symObjAddr: 0x2AA0, symBinAddr: 0x10001296C, symSize: 0xBC }
  - { offset: 0x33826, size: 0x8, addend: 0x0, symName: __RNvXs2U_NtNtCsfvfooZQ3Axs_4core5slice4iterINtB6_4IterReENtNtNtNtBa_4iter6traits8iterator8Iterator4nextCs1CdsUpMPkdx_18build_script_build, symObjAddr: 0x2B5C, symBinAddr: 0x100012A28, symSize: 0xBC }
  - { offset: 0x33974, size: 0x8, addend: 0x0, symName: __RNvXs2U_NtNtCsfvfooZQ3Axs_4core5slice4iterINtB6_4IterTReRSBQ_EENtNtNtNtBa_4iter6traits8iterator8Iterator4nextCs1CdsUpMPkdx_18build_script_build, symObjAddr: 0x2C18, symBinAddr: 0x100012AE4, symSize: 0xBC }
  - { offset: 0x33AC2, size: 0x8, addend: 0x0, symName: __RNvXs2U_NtNtCsfvfooZQ3Axs_4core5slice4iterINtB6_4IterhENtNtNtNtBa_4iter6traits8iterator8Iterator4nextCs1CdsUpMPkdx_18build_script_build, symObjAddr: 0x2CD4, symBinAddr: 0x100012BA0, symSize: 0xBC }
  - { offset: 0x33D04, size: 0x8, addend: 0x0, symName: __RNvXs_NtNtCsfvfooZQ3Axs_4core5slice4iterRSReNtNtNtNtB8_4iter6traits7collect12IntoIterator9into_iterCs1CdsUpMPkdx_18build_script_build, symObjAddr: 0x340C, symBinAddr: 0x1000132D8, symSize: 0x50 }
  - { offset: 0x33E53, size: 0x8, addend: 0x0, symName: __RNvXs_NtNtCsfvfooZQ3Axs_4core5slice4iterRSTReRSBF_ENtNtNtNtB8_4iter6traits7collect12IntoIterator9into_iterCs1CdsUpMPkdx_18build_script_build, symObjAddr: 0x345C, symBinAddr: 0x100013328, symSize: 0x50 }
  - { offset: 0x34108, size: 0x8, addend: 0x0, symName: __RNvNvXs0_NtNtCsfvfooZQ3Axs_4core5slice5indexjINtB7_10SliceIndexSpE13get_unchecked18precondition_checkCs1CdsUpMPkdx_18build_script_build, symObjAddr: 0x25C4, symBinAddr: 0x100012490, symSize: 0x40 }
  - { offset: 0x34144, size: 0x8, addend: 0x0, symName: __RNvNvXs0_NtNtCsfvfooZQ3Axs_4core5slice5indexjINtB7_10SliceIndexSpE17get_unchecked_mut18precondition_checkCs1CdsUpMPkdx_18build_script_build, symObjAddr: 0x2604, symBinAddr: 0x1000124D0, symSize: 0x40 }
  - { offset: 0x341B6, size: 0x8, addend: 0x0, symName: __RNvNvXs2_NtNtCsfvfooZQ3Axs_4core5slice5indexINtNtNtBb_3ops5range5RangejEINtB7_10SliceIndexSpE13get_unchecked18precondition_checkCs1CdsUpMPkdx_18build_script_build, symObjAddr: 0x2644, symBinAddr: 0x100012510, symSize: 0x60 }
  - { offset: 0x34200, size: 0x8, addend: 0x0, symName: __RNvNvXs2_NtNtCsfvfooZQ3Axs_4core5slice5indexINtNtNtBb_3ops5range5RangejEINtB7_10SliceIndexSpE17get_unchecked_mut18precondition_checkCs1CdsUpMPkdx_18build_script_build, symObjAddr: 0x26A4, symBinAddr: 0x100012570, symSize: 0x60 }
  - { offset: 0x34497, size: 0x8, addend: 0x0, symName: __RNvNvMNtNtCsfvfooZQ3Axs_4core5alloc6layoutNtB4_6Layout25from_size_align_unchecked18precondition_checkCs1CdsUpMPkdx_18build_script_build, symObjAddr: 0x2520, symBinAddr: 0x1000123EC, symSize: 0x50 }
  - { offset: 0x34AD1, size: 0x8, addend: 0x0, symName: __RNvXs1_NtCse1nGBsou5OW_5alloc7raw_vecINtB5_6RawVecReENtNtNtCsfvfooZQ3Axs_4core3ops4drop4Drop4dropCs1CdsUpMPkdx_18build_script_build, symObjAddr: 0x2A3C, symBinAddr: 0x100012908, symSize: 0x34 }
  - { offset: 0x34F6D, size: 0x8, addend: 0x0, symName: __RNCNvMs6_NtNtNtNtCse1nGBsou5OW_5alloc11collections5btree3map5entryINtB7_11VacantEntryINtCslWi6RoPHlIL_7unicase7UniCaseReEINtB9_8BTreeMapB1l_INtNtBf_3vec3VecB1S_EEE12insert_entry0Cs1CdsUpMPkdx_18build_script_build, symObjAddr: 0x153C, symBinAddr: 0x100011538, symSize: 0x16C }
  - { offset: 0x350C7, size: 0x8, addend: 0x0, symName: __RNCNvMs6_NtNtNtNtCse1nGBsou5OW_5alloc11collections5btree3map5entryINtB7_11VacantEntryINtCslWi6RoPHlIL_7unicase7UniCaseReEINtNtBf_3vec3VecB1S_EE12insert_entry0Cs1CdsUpMPkdx_18build_script_build, symObjAddr: 0x16A8, symBinAddr: 0x1000116A4, symSize: 0x16C }
  - { offset: 0x36506, size: 0x8, addend: 0x0, symName: __RNvNtCs1CdsUpMPkdx_18build_script_build10mime_types10MIME_TYPES, symObjAddr: 0x19860, symBinAddr: 0x100087050, symSize: 0x0 }
  - { offset: 0x3678D, size: 0x8, addend: 0x0, symName: __RNvXNtNtCslWi6RoPHlIL_7unicase7unicode4foldNtB2_4FoldNtNtNtNtCsfvfooZQ3Axs_4core4iter6traits8iterator8Iterator4nextCs1CdsUpMPkdx_18build_script_build, symObjAddr: 0x2774, symBinAddr: 0x100012640, symSize: 0x16C }
  - { offset: 0x36A21, size: 0x8, addend: 0x0, symName: __RINvMs4_NtNtNtNtCse1nGBsou5OW_5alloc11collections5btree3map5entryINtB6_5EntryINtCslWi6RoPHlIL_7unicase7UniCaseReEINtB8_8BTreeMapB1d_INtNtBe_3vec3VecB1K_EEE14or_insert_withNvMsg_B8_B1N_3newECs1CdsUpMPkdx_18build_script_build, symObjAddr: 0xC8, symBinAddr: 0x10001016C, symSize: 0x158 }
  - { offset: 0x36B3C, size: 0x8, addend: 0x0, symName: __RINvMs4_NtNtNtNtCse1nGBsou5OW_5alloc11collections5btree3map5entryINtB6_5EntryINtCslWi6RoPHlIL_7unicase7UniCaseReEINtNtBe_3vec3VecB1K_EE14or_insert_withNvMB1Q_B1N_3newECs1CdsUpMPkdx_18build_script_build, symObjAddr: 0x220, symBinAddr: 0x1000102C4, symSize: 0x158 }
  - { offset: 0x36F7A, size: 0x8, addend: 0x0, symName: __RNvMNtNtNtCscOYdFFY2T5N_3std2io8buffered9bufwriterINtB2_9BufWriterNtNtB8_2fs4FileE13with_capacityCs1CdsUpMPkdx_18build_script_build, symObjAddr: 0x1890, symBinAddr: 0x10001188C, symSize: 0xA8 }
  - { offset: 0x3700C, size: 0x8, addend: 0x0, symName: __RNvMNtNtNtCscOYdFFY2T5N_3std2io8buffered9bufwriterINtB2_9BufWriterNtNtB8_2fs4FileE3newCs1CdsUpMPkdx_18build_script_build, symObjAddr: 0x1938, symBinAddr: 0x100011934, symSize: 0x2C }
  - { offset: 0x37089, size: 0x8, addend: 0x0, symName: __RNvMs0_NtCse1nGBsou5OW_5alloc7raw_vecINtB5_6RawVecReE8grow_oneCs1CdsUpMPkdx_18build_script_build, symObjAddr: 0x1964, symBinAddr: 0x100011960, symSize: 0x94 }
  - { offset: 0x37128, size: 0x8, addend: 0x0, symName: __RNvMs1_NtNtCsfvfooZQ3Axs_4core3ptr8non_nullINtB5_7NonNullReE7sub_ptrCs1CdsUpMPkdx_18build_script_build, symObjAddr: 0x19F8, symBinAddr: 0x1000119F4, symSize: 0x74 }
  - { offset: 0x3739B, size: 0x8, addend: 0x0, symName: __RNvMs6_NtNtNtNtCse1nGBsou5OW_5alloc11collections5btree3map5entryINtB5_11VacantEntryINtCslWi6RoPHlIL_7unicase7UniCaseReEINtB7_8BTreeMapB1j_INtNtBd_3vec3VecB1Q_EEE12insert_entryCs1CdsUpMPkdx_18build_script_build, symObjAddr: 0x1A6C, symBinAddr: 0x100011A68, symSize: 0x2D8 }
  - { offset: 0x3776B, size: 0x8, addend: 0x0, symName: __RNvMs6_NtNtNtNtCse1nGBsou5OW_5alloc11collections5btree3map5entryINtB5_11VacantEntryINtCslWi6RoPHlIL_7unicase7UniCaseReEINtNtBd_3vec3VecB1Q_EE12insert_entryCs1CdsUpMPkdx_18build_script_build, symObjAddr: 0x1D44, symBinAddr: 0x100011D40, symSize: 0x2D8 }
  - { offset: 0x379B6, size: 0x8, addend: 0x0, symName: __RNvMs7_NtNtNtNtCse1nGBsou5OW_5alloc11collections5btree3map5entryINtB5_13OccupiedEntryINtCslWi6RoPHlIL_7unicase7UniCaseReEINtB7_8BTreeMapB1l_INtNtBd_3vec3VecB1S_EEE8into_mutCs1CdsUpMPkdx_18build_script_build, symObjAddr: 0x201C, symBinAddr: 0x100012018, symSize: 0x58 }
  - { offset: 0x379F5, size: 0x8, addend: 0x0, symName: __RNvMs7_NtNtNtNtCse1nGBsou5OW_5alloc11collections5btree3map5entryINtB5_13OccupiedEntryINtCslWi6RoPHlIL_7unicase7UniCaseReEINtNtBd_3vec3VecB1S_EE8into_mutCs1CdsUpMPkdx_18build_script_build, symObjAddr: 0x2074, symBinAddr: 0x100012070, symSize: 0x58 }
  - { offset: 0x37B39, size: 0x8, addend: 0x0, symName: __RNvMs_NtNtNtCscOYdFFY2T5N_3std2io8buffered9bufwriterINtB4_9BufWriterNtNtBa_2fs4FileE14write_all_coldCs1CdsUpMPkdx_18build_script_build, symObjAddr: 0x20CC, symBinAddr: 0x100056474, symSize: 0x130 }
  - { offset: 0x37DD6, size: 0x8, addend: 0x0, symName: __RNvMs_NtNtNtCscOYdFFY2T5N_3std2io8buffered9bufwriterINtB4_9BufWriterNtNtBa_2fs4FileE25write_to_buffer_uncheckedCs1CdsUpMPkdx_18build_script_build, symObjAddr: 0x21FC, symBinAddr: 0x1000120C8, symSize: 0xD8 }
  - { offset: 0x3805D, size: 0x8, addend: 0x0, symName: __RNvMs_NtNtNtCscOYdFFY2T5N_3std2io8buffered9bufwriterINtB4_9BufWriterNtNtBa_2fs4FileE9flush_bufCs1CdsUpMPkdx_18build_script_build, symObjAddr: 0x22D4, symBinAddr: 0x1000121A0, symSize: 0x20C }
  - { offset: 0x38FF4, size: 0x8, addend: 0x0, symName: __RINvMs12_NtCscOYdFFY2T5N_3std4pathNtB7_4Path3newNtNtCse1nGBsou5OW_5alloc6string6StringECs1CdsUpMPkdx_18build_script_build, symObjAddr: 0x0, symBinAddr: 0x100013860, symSize: 0x24 }
  - { offset: 0x3902B, size: 0x8, addend: 0x0, symName: __RNCINvNtCscOYdFFY2T5N_3std2rt10lang_startuE0Cs1CdsUpMPkdx_18build_script_build, symObjAddr: 0x11C, symBinAddr: 0x100013964, symSize: 0x34 }
  - { offset: 0x39095, size: 0x8, addend: 0x0, symName: __RINvNtCscOYdFFY2T5N_3std2rt10lang_startuECs1CdsUpMPkdx_18build_script_build, symObjAddr: 0xA4, symBinAddr: 0x100013904, symSize: 0x60 }
  - { offset: 0x394BC, size: 0x8, addend: 0x0, symName: __RNvXsX_NtNtCscOYdFFY2T5N_3std3ffi6os_strNtNtCse1nGBsou5OW_5alloc6string6StringINtNtCsfvfooZQ3Axs_4core7convert5AsRefNtB5_5OsStrE6as_refCs1CdsUpMPkdx_18build_script_build, symObjAddr: 0x1AF0, symBinAddr: 0x100015334, symSize: 0x78 }
  - { offset: 0x397A3, size: 0x8, addend: 0x0, symName: __RNvXs1d_NtCscOYdFFY2T5N_3std4pathNtB6_4PathINtNtCsfvfooZQ3Axs_4core7convert5AsRefBv_E6as_refCs1CdsUpMPkdx_18build_script_build, symObjAddr: 0x1580, symBinAddr: 0x100014DC4, symSize: 0x18 }
  - { offset: 0x397D7, size: 0x8, addend: 0x0, symName: __RNvXs1h_NtCscOYdFFY2T5N_3std4patheINtNtCsfvfooZQ3Axs_4core7convert5AsRefNtB6_4PathE6as_refCs1CdsUpMPkdx_18build_script_build, symObjAddr: 0x1598, symBinAddr: 0x100014DDC, symSize: 0x18 }
  - { offset: 0x39829, size: 0x8, addend: 0x0, symName: __RNvXsH_NtCscOYdFFY2T5N_3std4pathNtB5_7PathBufNtNtNtCsfvfooZQ3Axs_4core3ops5deref5Deref5derefCs1CdsUpMPkdx_18build_script_build, symObjAddr: 0x1A44, symBinAddr: 0x100015288, symSize: 0x34 }
  - { offset: 0x398B7, size: 0x8, addend: 0x0, symName: __RNvXs1j_NtCscOYdFFY2T5N_3std4pathNtB6_7PathBufINtNtCsfvfooZQ3Axs_4core7convert5AsRefNtB6_4PathE6as_refCs1CdsUpMPkdx_18build_script_build, symObjAddr: 0x15B0, symBinAddr: 0x100014DF4, symSize: 0x34 }
  - { offset: 0x39994, size: 0x8, addend: 0x0, symName: __RNvXsT_NtCscOYdFFY2T5N_3std7processuNtB5_11Termination6reportCs1CdsUpMPkdx_18build_script_build, symObjAddr: 0x1A78, symBinAddr: 0x1000152BC, symSize: 0x10 }
  - { offset: 0x3ACE7, size: 0x8, addend: 0x0, symName: __RNvXs_NvNtNtCsfvfooZQ3Axs_4core3fmt5Write9write_fmtQNtNtCse1nGBsou5OW_5alloc6string6StringNtB4_12SpecWriteFmt14spec_write_fmtCs1CdsUpMPkdx_18build_script_build, symObjAddr: 0x1B68, symBinAddr: 0x1000153AC, symSize: 0x164 }
  - { offset: 0x3AD96, size: 0x8, addend: 0x0, symName: __RNvYNtNtCse1nGBsou5OW_5alloc6string6StringNtNtCsfvfooZQ3Axs_4core3fmt5Write9write_fmtCs1CdsUpMPkdx_18build_script_build, symObjAddr: 0x1D4C, symBinAddr: 0x100015590, symSize: 0x24 }
  - { offset: 0x3ADE6, size: 0x8, addend: 0x0, symName: __RNvNvNtCsfvfooZQ3Axs_4core10intrinsics19copy_nonoverlapping18precondition_checkCs1CdsUpMPkdx_18build_script_build, symObjAddr: 0xDA8, symBinAddr: 0x1000145EC, symSize: 0x2E4 }
  - { offset: 0x3B05E, size: 0x8, addend: 0x0, symName: __RNvNvNtCsfvfooZQ3Axs_4core10intrinsics4copy18precondition_checkCs1CdsUpMPkdx_18build_script_build, symObjAddr: 0x108C, symBinAddr: 0x1000148D0, symSize: 0x1CC }
  - { offset: 0x3B2A6, size: 0x8, addend: 0x0, symName: __RNvMNtNtCsfvfooZQ3Axs_4core4char7methodsc18to_ascii_lowercaseCs1CdsUpMPkdx_18build_script_build, symObjAddr: 0x2E0, symBinAddr: 0x100013B28, symSize: 0x80 }
  - { offset: 0x3B379, size: 0x8, addend: 0x0, symName: __RNvNtNtCsfvfooZQ3Axs_4core4char7methods15encode_utf8_rawCs1CdsUpMPkdx_18build_script_build, symObjAddr: 0xA6C, symBinAddr: 0x1000142B0, symSize: 0x228 }
  - { offset: 0x3B731, size: 0x8, addend: 0x0, symName: __RNvNvNtNtCsfvfooZQ3Axs_4core5slice3raw14from_raw_parts18precondition_checkCs1CdsUpMPkdx_18build_script_build, symObjAddr: 0x1258, symBinAddr: 0x100014A9C, symSize: 0x168 }
  - { offset: 0x3B877, size: 0x8, addend: 0x0, symName: __RNvNvNtNtCsfvfooZQ3Axs_4core5slice3raw18from_raw_parts_mut18precondition_checkCs1CdsUpMPkdx_18build_script_build, symObjAddr: 0x13C0, symBinAddr: 0x100014C04, symSize: 0x168 }
  - { offset: 0x3BA53, size: 0x8, addend: 0x0, symName: __RNvNtNtCsfvfooZQ3Axs_4core5slice6memchr6memchrCs1CdsUpMPkdx_18build_script_build, symObjAddr: 0xC94, symBinAddr: 0x1000144D8, symSize: 0x114 }
  - { offset: 0x3D02F, size: 0x8, addend: 0x0, symName: __RNvXs2_NtNtNtCsfvfooZQ3Axs_4core3ops8function5implsQNvNtNtCslWi6RoPHlIL_7unicase7unicode3map6lookupINtB7_6FnOnceTcEE9call_onceCs1CdsUpMPkdx_18build_script_build, symObjAddr: 0x15E4, symBinAddr: 0x100014E28, symSize: 0x2C }
  - { offset: 0x3D096, size: 0x8, addend: 0x0, symName: __RNvXNtCsfvfooZQ3Axs_4core7convertRNtNtCscOYdFFY2T5N_3std4path4PathINtB2_5AsRefBw_E6as_refCs1CdsUpMPkdx_18build_script_build, symObjAddr: 0x1528, symBinAddr: 0x100014D6C, symSize: 0x30 }
  - { offset: 0x3D0D6, size: 0x8, addend: 0x0, symName: __RNvXNtCsfvfooZQ3Axs_4core7convertRNtNtCscOYdFFY2T5N_3std4path7PathBufINtB2_5AsRefNtBy_4PathE6as_refCs1CdsUpMPkdx_18build_script_build, symObjAddr: 0x1558, symBinAddr: 0x100014D9C, symSize: 0x28 }
  - { offset: 0x3D6B9, size: 0x8, addend: 0x0, symName: __RNvXsW_NtCse1nGBsou5OW_5alloc6stringNtB5_6StringNtNtCsfvfooZQ3Axs_4core3fmt5Write10write_charCs1CdsUpMPkdx_18build_script_build, symObjAddr: 0x1A88, symBinAddr: 0x1000152CC, symSize: 0x30 }
  - { offset: 0x3D6F6, size: 0x8, addend: 0x0, symName: __RNvXsW_NtCse1nGBsou5OW_5alloc6stringNtB5_6StringNtNtCsfvfooZQ3Axs_4core3fmt5Write9write_strCs1CdsUpMPkdx_18build_script_build, symObjAddr: 0x1AB8, symBinAddr: 0x1000152FC, symSize: 0x38 }
  - { offset: 0x3D77B, size: 0x8, addend: 0x0, symName: __RNvXsl_NtCse1nGBsou5OW_5alloc6stringNtB5_6StringNtNtCsfvfooZQ3Axs_4core3fmt7Display3fmtCs1CdsUpMPkdx_18build_script_build, symObjAddr: 0x1CCC, symBinAddr: 0x100015510, symSize: 0x80 }
  - { offset: 0x3DF92, size: 0x8, addend: 0x0, symName: __RNvMs_NtCse1nGBsou5OW_5alloc5boxedINtB4_3BoxINtNtNtNtB6_11collections5btree4node12InternalNodeINtCslWi6RoPHlIL_7unicase7UniCaseReEINtNtB6_3vec3VecB21_EEE13new_uninit_inCs1CdsUpMPkdx_18build_script_build, symObjAddr: 0x378, symBinAddr: 0x100013BC0, symSize: 0x90 }
  - { offset: 0x3E07E, size: 0x8, addend: 0x0, symName: __RNvMs_NtCse1nGBsou5OW_5alloc5boxedINtB4_3BoxINtNtNtNtB6_11collections5btree4node12InternalNodeINtCslWi6RoPHlIL_7unicase7UniCaseReEINtNtB6_3vec3VecB21_EEE17try_new_uninit_inCs1CdsUpMPkdx_18build_script_build, symObjAddr: 0x408, symBinAddr: 0x100013C50, symSize: 0x12C }
  - { offset: 0x3E2B6, size: 0x8, addend: 0x0, symName: __RNvMs_NtCse1nGBsou5OW_5alloc5boxedINtB4_3BoxINtNtNtNtB6_11collections5btree4node12InternalNodeINtCslWi6RoPHlIL_7unicase7UniCaseReEINtNtBL_3map8BTreeMapB1u_INtNtB6_3vec3VecB21_EEEE13new_uninit_inCs1CdsUpMPkdx_18build_script_build, symObjAddr: 0x534, symBinAddr: 0x100013D7C, symSize: 0x90 }
  - { offset: 0x3E3A2, size: 0x8, addend: 0x0, symName: __RNvMs_NtCse1nGBsou5OW_5alloc5boxedINtB4_3BoxINtNtNtNtB6_11collections5btree4node12InternalNodeINtCslWi6RoPHlIL_7unicase7UniCaseReEINtNtBL_3map8BTreeMapB1u_INtNtB6_3vec3VecB21_EEEE17try_new_uninit_inCs1CdsUpMPkdx_18build_script_build, symObjAddr: 0x5C4, symBinAddr: 0x100013E0C, symSize: 0x12C }
  - { offset: 0x3E5DA, size: 0x8, addend: 0x0, symName: __RNvMs_NtCse1nGBsou5OW_5alloc5boxedINtB4_3BoxINtNtNtNtB6_11collections5btree4node8LeafNodeINtCslWi6RoPHlIL_7unicase7UniCaseReEINtNtB6_3vec3VecB1W_EEE13new_uninit_inCs1CdsUpMPkdx_18build_script_build, symObjAddr: 0x6F0, symBinAddr: 0x100013F38, symSize: 0x90 }
  - { offset: 0x3E6C6, size: 0x8, addend: 0x0, symName: __RNvMs_NtCse1nGBsou5OW_5alloc5boxedINtB4_3BoxINtNtNtNtB6_11collections5btree4node8LeafNodeINtCslWi6RoPHlIL_7unicase7UniCaseReEINtNtB6_3vec3VecB1W_EEE17try_new_uninit_inCs1CdsUpMPkdx_18build_script_build, symObjAddr: 0x780, symBinAddr: 0x100013FC8, symSize: 0x12C }
  - { offset: 0x3E8FE, size: 0x8, addend: 0x0, symName: __RNvMs_NtCse1nGBsou5OW_5alloc5boxedINtB4_3BoxINtNtNtNtB6_11collections5btree4node8LeafNodeINtCslWi6RoPHlIL_7unicase7UniCaseReEINtNtBL_3map8BTreeMapB1p_INtNtB6_3vec3VecB1W_EEEE13new_uninit_inCs1CdsUpMPkdx_18build_script_build, symObjAddr: 0x8AC, symBinAddr: 0x1000140F4, symSize: 0x90 }
  - { offset: 0x3E9EA, size: 0x8, addend: 0x0, symName: __RNvMs_NtCse1nGBsou5OW_5alloc5boxedINtB4_3BoxINtNtNtNtB6_11collections5btree4node8LeafNodeINtCslWi6RoPHlIL_7unicase7UniCaseReEINtNtBL_3map8BTreeMapB1p_INtNtB6_3vec3VecB1W_EEEE17try_new_uninit_inCs1CdsUpMPkdx_18build_script_build, symObjAddr: 0x93C, symBinAddr: 0x100014184, symSize: 0x12C }
  - { offset: 0x3ED1E, size: 0x8, addend: 0x0, symName: __RNvXs6_NtCse1nGBsou5OW_5alloc5boxedINtB5_3BoxDNtNtCsfvfooZQ3Axs_4core5error5ErrorNtNtBM_6marker4SendNtB1j_4SyncEL_ENtNtNtBM_3ops4drop4Drop4dropCs1CdsUpMPkdx_18build_script_build, symObjAddr: 0x1610, symBinAddr: 0x100014E54, symSize: 0xC4 }
  - { offset: 0x3EE55, size: 0x8, addend: 0x0, symName: __RNvXs6_NtCse1nGBsou5OW_5alloc5boxedINtB5_3BoxINtNtNtNtB7_11collections5btree4node12InternalNodeINtCslWi6RoPHlIL_7unicase7UniCaseReEINtNtB7_3vec3VecB22_EEENtNtNtCsfvfooZQ3Axs_4core3ops4drop4Drop4dropCs1CdsUpMPkdx_18build_script_build, symObjAddr: 0x16D4, symBinAddr: 0x100014F18, symSize: 0xB0 }
  - { offset: 0x3EF8C, size: 0x8, addend: 0x0, symName: __RNvXs6_NtCse1nGBsou5OW_5alloc5boxedINtB5_3BoxINtNtNtNtB7_11collections5btree4node12InternalNodeINtCslWi6RoPHlIL_7unicase7UniCaseReEINtNtBM_3map8BTreeMapB1v_INtNtB7_3vec3VecB22_EEEENtNtNtCsfvfooZQ3Axs_4core3ops4drop4Drop4dropCs1CdsUpMPkdx_18build_script_build, symObjAddr: 0x1784, symBinAddr: 0x100014FC8, symSize: 0xB0 }
  - { offset: 0x3F0C3, size: 0x8, addend: 0x0, symName: __RNvXs6_NtCse1nGBsou5OW_5alloc5boxedINtB5_3BoxINtNtNtNtB7_11collections5btree4node8LeafNodeINtCslWi6RoPHlIL_7unicase7UniCaseReEINtNtB7_3vec3VecB1X_EEENtNtNtCsfvfooZQ3Axs_4core3ops4drop4Drop4dropCs1CdsUpMPkdx_18build_script_build, symObjAddr: 0x1834, symBinAddr: 0x100015078, symSize: 0xB0 }
  - { offset: 0x3F1FA, size: 0x8, addend: 0x0, symName: __RNvXs6_NtCse1nGBsou5OW_5alloc5boxedINtB5_3BoxINtNtNtNtB7_11collections5btree4node8LeafNodeINtCslWi6RoPHlIL_7unicase7UniCaseReEINtNtBM_3map8BTreeMapB1q_INtNtB7_3vec3VecB1X_EEEENtNtNtCsfvfooZQ3Axs_4core3ops4drop4Drop4dropCs1CdsUpMPkdx_18build_script_build, symObjAddr: 0x18E4, symBinAddr: 0x100015128, symSize: 0xB0 }
  - { offset: 0x3F331, size: 0x8, addend: 0x0, symName: __RNvXs6_NtCse1nGBsou5OW_5alloc5boxedINtB5_3BoxNtNtNtCscOYdFFY2T5N_3std2io5error6CustomENtNtNtCsfvfooZQ3Axs_4core3ops4drop4Drop4dropCs1CdsUpMPkdx_18build_script_build, symObjAddr: 0x1994, symBinAddr: 0x1000151D8, symSize: 0xB0 }
  - { offset: 0x3F4AC, size: 0x8, addend: 0x0, symName: __RINvMs12_NtCscOYdFFY2T5N_3std4pathNtB7_4Path3newNtNtCse1nGBsou5OW_5alloc6string6StringECs1CdsUpMPkdx_18build_script_build, symObjAddr: 0x0, symBinAddr: 0x100013860, symSize: 0x24 }
  - { offset: 0x3F4D8, size: 0x8, addend: 0x0, symName: __RINvMs12_NtCscOYdFFY2T5N_3std4pathNtB7_4Path4joinReECs1CdsUpMPkdx_18build_script_build, symObjAddr: 0x24, symBinAddr: 0x100013884, symSize: 0x80 }
  - { offset: 0x3F549, size: 0x8, addend: 0x0, symName: __RNvMNtCse1nGBsou5OW_5alloc6stringNtB2_6String3newCs1CdsUpMPkdx_18build_script_build, symObjAddr: 0x150, symBinAddr: 0x100013998, symSize: 0x30 }
  - { offset: 0x3F72A, size: 0x8, addend: 0x0, symName: __RNvMNtCse1nGBsou5OW_5alloc6stringNtB2_6String4pushCs1CdsUpMPkdx_18build_script_build, symObjAddr: 0x180, symBinAddr: 0x1000139C8, symSize: 0x100 }
  - { offset: 0x3F9E7, size: 0x8, addend: 0x0, symName: __RNvMNtCse1nGBsou5OW_5alloc6stringNtB2_6String8push_strCs1CdsUpMPkdx_18build_script_build, symObjAddr: 0x280, symBinAddr: 0x100013AC8, symSize: 0x60 }
  - { offset: 0x3FB9A, size: 0x8, addend: 0x0, symName: __RNvMs12_NtCscOYdFFY2T5N_3std4pathNtB6_4Path7displayCs1CdsUpMPkdx_18build_script_build, symObjAddr: 0x360, symBinAddr: 0x100013BA8, symSize: 0x18 }
  - { offset: 0x40A86, size: 0x8, addend: 0x0, symName: __RNvCs1CdsUpMPkdx_18build_script_build4main, symObjAddr: 0x1D70, symBinAddr: 0x1000155B4, symSize: 0x2D4 }
  - { offset: 0x40B4B, size: 0x8, addend: 0x0, symName: __RINvCs1CdsUpMPkdx_18build_script_build13build_rev_mapINtNtNtNtCscOYdFFY2T5N_3std2io8buffered9bufwriter9BufWriterNtNtBY_2fs4FileEEB2_, symObjAddr: 0x2044, symBinAddr: 0x100015888, symSize: 0x93C }
  - { offset: 0x40DAE, size: 0x8, addend: 0x0, symName: __RNvCs1CdsUpMPkdx_18build_script_build16get_rev_mappings, symObjAddr: 0x2980, symBinAddr: 0x1000161C4, symSize: 0x2A0 }
  - { offset: 0x40E7D, size: 0x8, addend: 0x0, symName: __RNvCs1CdsUpMPkdx_18build_script_build10split_mime, symObjAddr: 0x2C20, symBinAddr: 0x100016464, symSize: 0xEC }
  - { offset: 0x415BB, size: 0x8, addend: 0x0, symName: __RNvNvMs1_NtNtCsfvfooZQ3Axs_4core3ptr8non_nullINtB7_7NonNullpE13new_unchecked18precondition_checkCslWi6RoPHlIL_7unicase, symObjAddr: 0xB58, symBinAddr: 0x100016F18, symSize: 0x38 }
  - { offset: 0x4171C, size: 0x8, addend: 0x0, symName: __RNvNvNtCsfvfooZQ3Axs_4core3ptr13read_volatile18precondition_checkCslWi6RoPHlIL_7unicase, symObjAddr: 0xE74, symBinAddr: 0x100016F50, symSize: 0x100 }
  - { offset: 0x41E53, size: 0x8, addend: 0x0, symName: __RNvNvMNtNtCsfvfooZQ3Axs_4core5alloc6layoutNtB4_6Layout25from_size_align_unchecked18precondition_checkCslWi6RoPHlIL_7unicase, symObjAddr: 0xB08, symBinAddr: 0x100016EC8, symSize: 0x50 }
  - { offset: 0x4276D, size: 0x8, addend: 0x0, symName: __RNvNvNtCsfvfooZQ3Axs_4core4hint16assert_unchecked18precondition_checkCslWi6RoPHlIL_7unicase, symObjAddr: 0xF74, symBinAddr: 0x100017050, symSize: 0x38 }
  - { offset: 0x4279C, size: 0x8, addend: 0x0, symName: __RNvNtCsfvfooZQ3Axs_4core4char8from_u32CslWi6RoPHlIL_7unicase, symObjAddr: 0xA80, symBinAddr: 0x100016E40, symSize: 0x20 }
  - { offset: 0x427FE, size: 0x8, addend: 0x0, symName: __RNvNtNtCsfvfooZQ3Axs_4core4char7convert8from_u32CslWi6RoPHlIL_7unicase, symObjAddr: 0xAA0, symBinAddr: 0x100016E60, symSize: 0x68 }
  - { offset: 0x42AE5, size: 0x8, addend: 0x0, symName: __RNvNtCse1nGBsou5OW_5alloc5alloc12alloc_zeroedCslWi6RoPHlIL_7unicase, symObjAddr: 0x974, symBinAddr: 0x100016D38, symSize: 0x84 }
  - { offset: 0x42B7C, size: 0x8, addend: 0x0, symName: __RNvNtCse1nGBsou5OW_5alloc5alloc5allocCslWi6RoPHlIL_7unicase, symObjAddr: 0x9F8, symBinAddr: 0x100016DBC, symSize: 0x84 }
  - { offset: 0x42C18, size: 0x8, addend: 0x0, symName: __RNvXs_NtCse1nGBsou5OW_5alloc5allocNtB4_6GlobalNtNtCsfvfooZQ3Axs_4core5alloc9Allocator15allocate_zeroedCslWi6RoPHlIL_7unicase, symObjAddr: 0x1358, symBinAddr: 0x100017088, symSize: 0x34 }
  - { offset: 0x42C55, size: 0x8, addend: 0x0, symName: __RNvXs_NtCse1nGBsou5OW_5alloc5allocNtB4_6GlobalNtNtCsfvfooZQ3Axs_4core5alloc9Allocator8allocateCslWi6RoPHlIL_7unicase, symObjAddr: 0x138C, symBinAddr: 0x1000170BC, symSize: 0x34 }
  - { offset: 0x42F1A, size: 0x8, addend: 0x0, symName: __RNvMNtCse1nGBsou5OW_5alloc5allocNtB2_6Global10alloc_implCslWi6RoPHlIL_7unicase, symObjAddr: 0xD8, symBinAddr: 0x100016590, symSize: 0x194 }
  - { offset: 0x4322E, size: 0x8, addend: 0x0, symName: __RNvMNtCsfvfooZQ3Axs_4core6optionINtB2_6OptioncE9unwrap_orCslWi6RoPHlIL_7unicase, symObjAddr: 0x2DC, symBinAddr: 0x100016724, symSize: 0x4C }
  - { offset: 0x432DA, size: 0x8, addend: 0x0, symName: __RNvMNtNtCsfvfooZQ3Axs_4core5alloc6layoutNtB2_6Layout13repeat_packedCslWi6RoPHlIL_7unicase, symObjAddr: 0x328, symBinAddr: 0x100016770, symSize: 0xF0 }
  - { offset: 0x4349A, size: 0x8, addend: 0x0, symName: __RNvMNtNtCsfvfooZQ3Axs_4core5alloc6layoutNtB2_6Layout6repeatCslWi6RoPHlIL_7unicase, symObjAddr: 0x418, symBinAddr: 0x100016860, symSize: 0x104 }
  - { offset: 0x43711, size: 0x8, addend: 0x0, symName: __RNvMs2_NtCse1nGBsou5OW_5alloc7raw_vecNtB5_11RawVecInner15try_allocate_inCslWi6RoPHlIL_7unicase, symObjAddr: 0x5A0, symBinAddr: 0x100016964, symSize: 0x2C8 }
  - { offset: 0x43A45, size: 0x8, addend: 0x0, symName: __RNvMs2_NtCse1nGBsou5OW_5alloc7raw_vecNtB5_11RawVecInner16with_capacity_inCslWi6RoPHlIL_7unicase, symObjAddr: 0x868, symBinAddr: 0x100016C2C, symSize: 0x10C }
  - { offset: 0x43D2F, size: 0x8, addend: 0x0, symName: __RNvNtNtCslWi6RoPHlIL_7unicase7unicode3map6lookup, symObjAddr: 0x13C0, symBinAddr: 0x1000170F0, symSize: 0x5D88 }
  - { offset: 0x45704, size: 0x8, addend: 0x0, symName: ___llvm_profile_get_magic, symObjAddr: 0x28, symBinAddr: 0x10001CE78, symSize: 0x14 }
  - { offset: 0x45725, size: 0x8, addend: 0x0, symName: ___llvm_profile_get_num_padding_bytes, symObjAddr: 0x44, symBinAddr: 0x10001CE8C, symSize: 0xC }
  - { offset: 0x4572D, size: 0x8, addend: 0x0, symName: ___llvm_profile_get_version, symObjAddr: 0x50, symBinAddr: 0x10001CE98, symSize: 0xC }
  - { offset: 0x45756, size: 0x8, addend: 0x0, symName: ___llvm_profile_get_version, symObjAddr: 0x50, symBinAddr: 0x10001CE98, symSize: 0xC }
  - { offset: 0x457CB, size: 0x8, addend: 0x0, symName: ___llvm_profile_is_continuous_mode_enabled, symObjAddr: 0x0, symBinAddr: 0x10001CEA4, symSize: 0x20 }
  - { offset: 0x457E8, size: 0x8, addend: 0x0, symName: __MergedGlobals, symObjAddr: 0x3E20, symBinAddr: 0x10008E648, symSize: 0x0 }
  - { offset: 0x4580A, size: 0x8, addend: 0x0, symName: __MergedGlobals, symObjAddr: 0x3E20, symBinAddr: 0x10008E648, symSize: 0x0 }
  - { offset: 0x4583A, size: 0x8, addend: 0x0, symName: ___llvm_profile_is_continuous_mode_enabled, symObjAddr: 0x0, symBinAddr: 0x10001CEA4, symSize: 0x20 }
  - { offset: 0x45842, size: 0x8, addend: 0x0, symName: ___llvm_profile_enable_continuous_mode, symObjAddr: 0x20, symBinAddr: 0x10001CEC4, symSize: 0x10 }
  - { offset: 0x45852, size: 0x8, addend: 0x0, symName: ___llvm_profile_enable_continuous_mode, symObjAddr: 0x20, symBinAddr: 0x10001CEC4, symSize: 0x10 }
  - { offset: 0x4585A, size: 0x8, addend: 0x0, symName: ___llvm_profile_disable_continuous_mode, symObjAddr: 0x30, symBinAddr: 0x10001CED4, symSize: 0xC }
  - { offset: 0x4586F, size: 0x8, addend: 0x0, symName: ___llvm_profile_disable_continuous_mode, symObjAddr: 0x30, symBinAddr: 0x10001CED4, symSize: 0xC }
  - { offset: 0x45877, size: 0x8, addend: 0x0, symName: ___llvm_profile_set_page_size, symObjAddr: 0x3C, symBinAddr: 0x10001CEE0, symSize: 0xC }
  - { offset: 0x4588C, size: 0x8, addend: 0x0, symName: ___llvm_profile_set_page_size, symObjAddr: 0x3C, symBinAddr: 0x10001CEE0, symSize: 0xC }
  - { offset: 0x45894, size: 0x8, addend: 0x0, symName: ___llvm_profile_get_size_for_buffer, symObjAddr: 0x48, symBinAddr: 0x10001CEEC, symSize: 0xC4 }
  - { offset: 0x458B7, size: 0x8, addend: 0x0, symName: ___llvm_profile_get_size_for_buffer, symObjAddr: 0x48, symBinAddr: 0x10001CEEC, symSize: 0xC4 }
  - { offset: 0x458BF, size: 0x8, addend: 0x0, symName: ___llvm_profile_get_size_for_buffer_internal, symObjAddr: 0x10C, symBinAddr: 0x10001CFB0, symSize: 0x1C0 }
  - { offset: 0x45D22, size: 0x8, addend: 0x0, symName: ___llvm_profile_get_size_for_buffer_internal, symObjAddr: 0x10C, symBinAddr: 0x10001CFB0, symSize: 0x1C0 }
  - { offset: 0x45D2A, size: 0x8, addend: 0x0, symName: ___llvm_profile_get_num_data, symObjAddr: 0x2CC, symBinAddr: 0x10001D170, symSize: 0x10 }
  - { offset: 0x46119, size: 0x8, addend: 0x0, symName: ___llvm_profile_get_num_data, symObjAddr: 0x2CC, symBinAddr: 0x10001D170, symSize: 0x10 }
  - { offset: 0x46121, size: 0x8, addend: 0x0, symName: ___llvm_profile_get_data_size, symObjAddr: 0x2DC, symBinAddr: 0x10001D180, symSize: 0x10 }
  - { offset: 0x46152, size: 0x8, addend: 0x0, symName: ___llvm_profile_get_data_size, symObjAddr: 0x2DC, symBinAddr: 0x10001D180, symSize: 0x10 }
  - { offset: 0x4615A, size: 0x8, addend: 0x0, symName: ___llvm_profile_get_num_vtable, symObjAddr: 0x2EC, symBinAddr: 0x10001D190, symSize: 0x18 }
  - { offset: 0x4617E, size: 0x8, addend: 0x0, symName: ___llvm_profile_get_data_size, symObjAddr: 0x2DC, symBinAddr: 0x10001D180, symSize: 0x10 }
  - { offset: 0x461B0, size: 0x8, addend: 0x0, symName: ___llvm_profile_get_num_vtable, symObjAddr: 0x2EC, symBinAddr: 0x10001D190, symSize: 0x18 }
  - { offset: 0x461B8, size: 0x8, addend: 0x0, symName: ___llvm_profile_get_vtable_section_size, symObjAddr: 0x304, symBinAddr: 0x10001D1A8, symSize: 0x8 }
  - { offset: 0x4620A, size: 0x8, addend: 0x0, symName: ___llvm_profile_get_vtable_section_size, symObjAddr: 0x304, symBinAddr: 0x10001D1A8, symSize: 0x8 }
  - { offset: 0x46212, size: 0x8, addend: 0x0, symName: ___llvm_profile_counter_entry_size, symObjAddr: 0x30C, symBinAddr: 0x10001D1B0, symSize: 0x1C }
  - { offset: 0x46233, size: 0x8, addend: 0x0, symName: ___llvm_profile_counter_entry_size, symObjAddr: 0x30C, symBinAddr: 0x10001D1B0, symSize: 0x1C }
  - { offset: 0x4623B, size: 0x8, addend: 0x0, symName: ___llvm_profile_get_num_counters, symObjAddr: 0x328, symBinAddr: 0x10001D1CC, symSize: 0x48 }
  - { offset: 0x4624B, size: 0x8, addend: 0x0, symName: ___llvm_profile_get_num_counters, symObjAddr: 0x328, symBinAddr: 0x10001D1CC, symSize: 0x48 }
  - { offset: 0x46253, size: 0x8, addend: 0x0, symName: ___llvm_profile_get_counters_size, symObjAddr: 0x370, symBinAddr: 0x10001D214, symSize: 0x5C }
  - { offset: 0x462B8, size: 0x8, addend: 0x0, symName: ___llvm_profile_get_counters_size, symObjAddr: 0x370, symBinAddr: 0x10001D214, symSize: 0x5C }
  - { offset: 0x462C0, size: 0x8, addend: 0x0, symName: ___llvm_profile_get_num_bitmap_bytes, symObjAddr: 0x3CC, symBinAddr: 0x10001D270, symSize: 0x8 }
  - { offset: 0x46364, size: 0x8, addend: 0x0, symName: ___llvm_profile_get_num_bitmap_bytes, symObjAddr: 0x3CC, symBinAddr: 0x10001D270, symSize: 0x8 }
  - { offset: 0x4636C, size: 0x8, addend: 0x0, symName: ___llvm_profile_get_name_size, symObjAddr: 0x3D4, symBinAddr: 0x10001D278, symSize: 0x8 }
  - { offset: 0x4638D, size: 0x8, addend: 0x0, symName: ___llvm_profile_get_name_size, symObjAddr: 0x3D4, symBinAddr: 0x10001D278, symSize: 0x8 }
  - { offset: 0x46395, size: 0x8, addend: 0x0, symName: ___llvm_profile_get_padding_sizes_for_counters, symObjAddr: 0x3DC, symBinAddr: 0x10001D280, symSize: 0x15C }
  - { offset: 0x463B6, size: 0x8, addend: 0x0, symName: ___llvm_profile_get_padding_sizes_for_counters, symObjAddr: 0x3DC, symBinAddr: 0x10001D280, symSize: 0x15C }
  - { offset: 0x463BE, size: 0x8, addend: 0x0, symName: _initBufferWriter, symObjAddr: 0x538, symBinAddr: 0x10001D3DC, symSize: 0x10 }
  - { offset: 0x46512, size: 0x8, addend: 0x0, symName: _initBufferWriter, symObjAddr: 0x538, symBinAddr: 0x10001D3DC, symSize: 0x10 }
  - { offset: 0x4667C, size: 0x8, addend: 0x0, symName: __MergedGlobals, symObjAddr: 0xA4F0, symBinAddr: 0x10008E658, symSize: 0x0 }
  - { offset: 0x4679A, size: 0x8, addend: 0x0, symName: __MergedGlobals, symObjAddr: 0xA4F0, symBinAddr: 0x10008E658, symSize: 0x0 }
  - { offset: 0x469CB, size: 0x8, addend: 0x0, symName: __MergedGlobals, symObjAddr: 0xA4F0, symBinAddr: 0x10008E658, symSize: 0x0 }
  - { offset: 0x46AF2, size: 0x8, addend: 0x0, symName: _getCurFilenameLength, symObjAddr: 0x1C8, symBinAddr: 0x10001D3EC, symSize: 0x108 }
  - { offset: 0x46AFA, size: 0x8, addend: 0x0, symName: _getCurFilename, symObjAddr: 0x2D0, symBinAddr: 0x10001D4F4, symSize: 0x2B8 }
  - { offset: 0x46B7D, size: 0x8, addend: 0x0, symName: _getCurFilename, symObjAddr: 0x2D0, symBinAddr: 0x10001D4F4, symSize: 0x2B8 }
  - { offset: 0x46DAE, size: 0x8, addend: 0x0, symName: _parseAndSetFilename, symObjAddr: 0x688, symBinAddr: 0x10001D7AC, symSize: 0x4B8 }
  - { offset: 0x46DB6, size: 0x8, addend: 0x0, symName: ___llvm_profile_initialize, symObjAddr: 0xB40, symBinAddr: 0x10001DC64, symSize: 0xB8 }
  - { offset: 0x46F9E, size: 0x8, addend: 0x0, symName: ___llvm_profile_initialize, symObjAddr: 0xB40, symBinAddr: 0x10001DC64, symSize: 0xB8 }
  - { offset: 0x4701A, size: 0x8, addend: 0x0, symName: ___llvm_profile_write_file, symObjAddr: 0xC74, symBinAddr: 0x10001DD1C, symSize: 0x1B4 }
  - { offset: 0x47022, size: 0x8, addend: 0x0, symName: _writeFile, symObjAddr: 0xE28, symBinAddr: 0x10001DED0, symSize: 0x294 }
  - { offset: 0x4717D, size: 0x8, addend: 0x0, symName: _writeFile, symObjAddr: 0xE28, symBinAddr: 0x10001DED0, symSize: 0x294 }
  - { offset: 0x472F1, size: 0x8, addend: 0x0, symName: _writeFileWithoutReturn, symObjAddr: 0x138C, symBinAddr: 0x10001E164, symSize: 0x4 }
  - { offset: 0x47328, size: 0x8, addend: 0x0, symName: _getProfileFileSizeForMerging, symObjAddr: 0x1574, symBinAddr: 0x10001E168, symSize: 0x110 }
  - { offset: 0x47330, size: 0x8, addend: 0x0, symName: _mmapProfileForMerging, symObjAddr: 0x1684, symBinAddr: 0x10001E278, symSize: 0xBC }
  - { offset: 0x4736D, size: 0x8, addend: 0x0, symName: _mmapProfileForMerging, symObjAddr: 0x1684, symBinAddr: 0x10001E278, symSize: 0xBC }
  - { offset: 0x47375, size: 0x8, addend: 0x0, symName: _mmapForContinuousMode, symObjAddr: 0x1740, symBinAddr: 0x10001E334, symSize: 0x264 }
  - { offset: 0x473C3, size: 0x8, addend: 0x0, symName: _mmapForContinuousMode, symObjAddr: 0x1740, symBinAddr: 0x10001E334, symSize: 0x264 }
  - { offset: 0x473CB, size: 0x8, addend: 0x0, symName: _fileWriter, symObjAddr: 0x19A4, symBinAddr: 0x10001E598, symSize: 0x140 }
  - { offset: 0x4758A, size: 0x8, addend: 0x0, symName: _fileWriter, symObjAddr: 0x19A4, symBinAddr: 0x10001E598, symSize: 0x140 }
  - { offset: 0x47592, size: 0x8, addend: 0x0, symName: _truncateCurrentFile, symObjAddr: 0x1AE4, symBinAddr: 0x10001E6D8, symSize: 0xD8 }
  - { offset: 0x4765A, size: 0x8, addend: 0x0, symName: _truncateCurrentFile, symObjAddr: 0x1AE4, symBinAddr: 0x10001E6D8, symSize: 0xD8 }
  - { offset: 0x47662, size: 0x8, addend: 0x0, symName: _initializeProfileForContinuousMode, symObjAddr: 0x1BBC, symBinAddr: 0x10001E7B0, symSize: 0x25C }
  - { offset: 0x47700, size: 0x8, addend: 0x0, symName: _initializeProfileForContinuousMode, symObjAddr: 0x1BBC, symBinAddr: 0x10001E7B0, symSize: 0x25C }
  - { offset: 0x47708, size: 0x8, addend: 0x0, symName: _createProfileDir, symObjAddr: 0x1E18, symBinAddr: 0x10001EA0C, symSize: 0xA4 }
  - { offset: 0x478D5, size: 0x8, addend: 0x0, symName: _createProfileDir, symObjAddr: 0x1E18, symBinAddr: 0x10001EA0C, symSize: 0xA4 }
  - { offset: 0x478DD, size: 0x8, addend: 0x0, symName: _parseAndSetFilename.cold.1, symObjAddr: 0x1EBC, symBinAddr: 0x1000565A4, symSize: 0x24 }
  - { offset: 0x4793A, size: 0x8, addend: 0x0, symName: _parseAndSetFilename.cold.1, symObjAddr: 0x1EBC, symBinAddr: 0x1000565A4, symSize: 0x24 }
  - { offset: 0x47942, size: 0x8, addend: 0x0, symName: _parseAndSetFilename.cold.2, symObjAddr: 0x1EE0, symBinAddr: 0x1000565C8, symSize: 0x24 }
  - { offset: 0x47964, size: 0x8, addend: 0x0, symName: _parseAndSetFilename.cold.2, symObjAddr: 0x1EE0, symBinAddr: 0x1000565C8, symSize: 0x24 }
  - { offset: 0x4797E, size: 0x8, addend: 0x0, symName: _parseAndSetFilename.cold.2, symObjAddr: 0x1EE0, symBinAddr: 0x1000565C8, symSize: 0x24 }
  - { offset: 0x4798E, size: 0x8, addend: 0x0, symName: _parseAndSetFilename.cold.2, symObjAddr: 0x1EE0, symBinAddr: 0x1000565C8, symSize: 0x24 }
  - { offset: 0x47AF3, size: 0x8, addend: 0x0, symName: _lprofProfileDumped, symObjAddr: 0x0, symBinAddr: 0x10001EAB0, symSize: 0xC }
  - { offset: 0x47B10, size: 0x8, addend: 0x0, symName: _ProfileDumped, symObjAddr: 0x4E0, symBinAddr: 0x10008E728, symSize: 0x0 }
  - { offset: 0x47B20, size: 0x8, addend: 0x0, symName: _lprofProfileDumped, symObjAddr: 0x0, symBinAddr: 0x10001EAB0, symSize: 0xC }
  - { offset: 0x47B68, size: 0x8, addend: 0x0, symName: _lprofGetLoadModuleSignature, symObjAddr: 0x0, symBinAddr: 0x10001EABC, symSize: 0xD0 }
  - { offset: 0x47B95, size: 0x8, addend: 0x0, symName: _VPMergeHook, symBinAddr: 0x10008E640, symSize: 0x0 }
  - { offset: 0x47DF9, size: 0x8, addend: 0x0, symName: _lprofGetLoadModuleSignature, symObjAddr: 0x0, symBinAddr: 0x10001EABC, symSize: 0xD0 }
  - { offset: 0x47E01, size: 0x8, addend: 0x0, symName: ___llvm_profile_check_compatibility, symObjAddr: 0xD0, symBinAddr: 0x10001EB8C, symSize: 0x1CC }
  - { offset: 0x47E70, size: 0x8, addend: 0x0, symName: ___llvm_profile_check_compatibility, symObjAddr: 0xD0, symBinAddr: 0x10001EB8C, symSize: 0x1CC }
  - { offset: 0x47E78, size: 0x8, addend: 0x0, symName: ___llvm_profile_merge_from_buffer, symObjAddr: 0x29C, symBinAddr: 0x10001ED58, symSize: 0x48C }
  - { offset: 0x47F50, size: 0x8, addend: 0x0, symName: ___llvm_profile_merge_from_buffer, symObjAddr: 0x29C, symBinAddr: 0x10001ED58, symSize: 0x48C }
  - { offset: 0x481B7, size: 0x8, addend: 0x0, symName: _lprofMergeValueProfData, symObjAddr: 0x0, symBinAddr: 0x10001F1E4, symSize: 0xF0 }
  - { offset: 0x481C8, size: 0x8, addend: 0x0, symName: _lprofMergeValueProfData, symObjAddr: 0x0, symBinAddr: 0x10001F1E4, symSize: 0xF0 }
  - { offset: 0x48493, size: 0x8, addend: 0x0, symName: ___llvm_profile_begin_data, symObjAddr: 0x0, symBinAddr: 0x10001F2D4, symSize: 0xC }
  - { offset: 0x484B2, size: 0x8, addend: 0x0, symName: _CurrentVNode, symObjAddr: 0xC0, symBinAddr: 0x10008DAF0, symSize: 0x0 }
  - { offset: 0x4852E, size: 0x8, addend: 0x0, symName: _EndVNode, symObjAddr: 0xC8, symBinAddr: 0x10008DAF8, symSize: 0x0 }
  - { offset: 0x48537, size: 0x8, addend: 0x0, symName: ___llvm_profile_begin_data, symObjAddr: 0x0, symBinAddr: 0x10001F2D4, symSize: 0xC }
  - { offset: 0x4853F, size: 0x8, addend: 0x0, symName: ___llvm_profile_end_data, symObjAddr: 0xC, symBinAddr: 0x10001F2E0, symSize: 0xC }
  - { offset: 0x48558, size: 0x8, addend: 0x0, symName: ___llvm_profile_end_data, symObjAddr: 0xC, symBinAddr: 0x10001F2E0, symSize: 0xC }
  - { offset: 0x48560, size: 0x8, addend: 0x0, symName: ___llvm_profile_begin_names, symObjAddr: 0x18, symBinAddr: 0x10001F2EC, symSize: 0xC }
  - { offset: 0x48579, size: 0x8, addend: 0x0, symName: ___llvm_profile_begin_names, symObjAddr: 0x18, symBinAddr: 0x10001F2EC, symSize: 0xC }
  - { offset: 0x48581, size: 0x8, addend: 0x0, symName: ___llvm_profile_end_names, symObjAddr: 0x24, symBinAddr: 0x10001F2F8, symSize: 0xC }
  - { offset: 0x4859A, size: 0x8, addend: 0x0, symName: ___llvm_profile_end_names, symObjAddr: 0x24, symBinAddr: 0x10001F2F8, symSize: 0xC }
  - { offset: 0x485A2, size: 0x8, addend: 0x0, symName: ___llvm_profile_begin_counters, symObjAddr: 0x30, symBinAddr: 0x10001F304, symSize: 0xC }
  - { offset: 0x485BB, size: 0x8, addend: 0x0, symName: ___llvm_profile_begin_counters, symObjAddr: 0x30, symBinAddr: 0x10001F304, symSize: 0xC }
  - { offset: 0x485C3, size: 0x8, addend: 0x0, symName: ___llvm_profile_end_counters, symObjAddr: 0x3C, symBinAddr: 0x10001F310, symSize: 0xC }
  - { offset: 0x485DC, size: 0x8, addend: 0x0, symName: ___llvm_profile_end_counters, symObjAddr: 0x3C, symBinAddr: 0x10001F310, symSize: 0xC }
  - { offset: 0x485E4, size: 0x8, addend: 0x0, symName: ___llvm_profile_begin_bitmap, symObjAddr: 0x48, symBinAddr: 0x10001F31C, symSize: 0xC }
  - { offset: 0x485FD, size: 0x8, addend: 0x0, symName: ___llvm_profile_begin_bitmap, symObjAddr: 0x48, symBinAddr: 0x10001F31C, symSize: 0xC }
  - { offset: 0x48605, size: 0x8, addend: 0x0, symName: ___llvm_profile_end_bitmap, symObjAddr: 0x54, symBinAddr: 0x10001F328, symSize: 0xC }
  - { offset: 0x4861E, size: 0x8, addend: 0x0, symName: ___llvm_profile_end_bitmap, symObjAddr: 0x54, symBinAddr: 0x10001F328, symSize: 0xC }
  - { offset: 0x48626, size: 0x8, addend: 0x0, symName: ___llvm_profile_begin_vtables, symObjAddr: 0x60, symBinAddr: 0x10001F334, symSize: 0xC }
  - { offset: 0x48640, size: 0x8, addend: 0x0, symName: ___llvm_profile_begin_vtables, symObjAddr: 0x60, symBinAddr: 0x10001F334, symSize: 0xC }
  - { offset: 0x48648, size: 0x8, addend: 0x0, symName: ___llvm_profile_end_vtables, symObjAddr: 0x6C, symBinAddr: 0x10001F340, symSize: 0xC }
  - { offset: 0x48661, size: 0x8, addend: 0x0, symName: ___llvm_profile_end_vtables, symObjAddr: 0x6C, symBinAddr: 0x10001F340, symSize: 0xC }
  - { offset: 0x48669, size: 0x8, addend: 0x0, symName: ___llvm_profile_begin_vtabnames, symObjAddr: 0x78, symBinAddr: 0x10001F34C, symSize: 0xC }
  - { offset: 0x48681, size: 0x8, addend: 0x0, symName: ___llvm_profile_begin_vtabnames, symObjAddr: 0x78, symBinAddr: 0x10001F34C, symSize: 0xC }
  - { offset: 0x48689, size: 0x8, addend: 0x0, symName: ___llvm_profile_end_vtabnames, symObjAddr: 0x84, symBinAddr: 0x10001F358, symSize: 0xC }
  - { offset: 0x486A2, size: 0x8, addend: 0x0, symName: ___llvm_profile_end_vtabnames, symObjAddr: 0x84, symBinAddr: 0x10001F358, symSize: 0xC }
  - { offset: 0x486C4, size: 0x8, addend: 0x0, symName: ___llvm_profile_begin_vnodes, symObjAddr: 0x9C, symBinAddr: 0x10001F364, symSize: 0xC }
  - { offset: 0x486CC, size: 0x8, addend: 0x0, symName: ___llvm_profile_end_vnodes, symObjAddr: 0xA8, symBinAddr: 0x10001F370, symSize: 0xC }
  - { offset: 0x486E5, size: 0x8, addend: 0x0, symName: ___llvm_profile_end_vnodes, symObjAddr: 0xA8, symBinAddr: 0x10001F370, symSize: 0xC }
  - { offset: 0x486ED, size: 0x8, addend: 0x0, symName: ___llvm_write_binary_ids, symObjAddr: 0xB4, symBinAddr: 0x10001F37C, symSize: 0x8 }
  - { offset: 0x48705, size: 0x8, addend: 0x0, symName: ___llvm_write_binary_ids, symObjAddr: 0xB4, symBinAddr: 0x10001F37C, symSize: 0x8 }
  - { offset: 0x4898B, size: 0x8, addend: 0x0, symName: __GLOBAL__sub_I_InstrProfilingRuntime.cpp, symObjAddr: 0x0, symBinAddr: 0x10001F384, symSize: 0x18 }
  - { offset: 0x489AE, size: 0x8, addend: 0x0, symName: ___llvm_profile_runtime, symObjAddr: 0x590, symBinAddr: 0x10008E5FC, symSize: 0x0 }
  - { offset: 0x489DE, size: 0x8, addend: 0x0, symName: __GLOBAL__sub_I_InstrProfilingRuntime.cpp, symObjAddr: 0x0, symBinAddr: 0x10001F384, symSize: 0x18 }
  - { offset: 0x48A5A, size: 0x8, addend: 0x0, symName: ___llvm_profile_recursive_mkdir, symObjAddr: 0x0, symBinAddr: 0x10001F39C, symSize: 0x58 }
  - { offset: 0x48A62, size: 0x8, addend: 0x0, symName: _lprofDirMode, symObjAddr: 0x5A8, symBinAddr: 0x10008DB00, symSize: 0x0 }
  - { offset: 0x48A79, size: 0x8, addend: 0x0, symName: _lprofDirMode, symObjAddr: 0x5A8, symBinAddr: 0x10008DB00, symSize: 0x0 }
  - { offset: 0x48AAE, size: 0x8, addend: 0x0, symName: ___llvm_profile_recursive_mkdir, symObjAddr: 0x0, symBinAddr: 0x10001F39C, symSize: 0x58 }
  - { offset: 0x48B2D, size: 0x8, addend: 0x0, symName: _lprofGetHostName, symObjAddr: 0x70, symBinAddr: 0x10001F3F4, symSize: 0x80 }
  - { offset: 0x48C62, size: 0x8, addend: 0x0, symName: _lprofLockFileHandle, symObjAddr: 0x208, symBinAddr: 0x10001F474, symSize: 0x90 }
  - { offset: 0x48C6A, size: 0x8, addend: 0x0, symName: _lprofUnlockFileHandle, symObjAddr: 0x298, symBinAddr: 0x10001F504, symSize: 0x90 }
  - { offset: 0x48CF0, size: 0x8, addend: 0x0, symName: _lprofUnlockFileHandle, symObjAddr: 0x298, symBinAddr: 0x10001F504, symSize: 0x90 }
  - { offset: 0x48CF8, size: 0x8, addend: 0x0, symName: _lprofOpenFileEx, symObjAddr: 0x328, symBinAddr: 0x10001F594, symSize: 0xD0 }
  - { offset: 0x48D58, size: 0x8, addend: 0x0, symName: _lprofOpenFileEx, symObjAddr: 0x328, symBinAddr: 0x10001F594, symSize: 0xD0 }
  - { offset: 0x48DD0, size: 0x8, addend: 0x0, symName: _lprofFindFirstDirSeparator, symObjAddr: 0x538, symBinAddr: 0x10001F664, symSize: 0x8 }
  - { offset: 0x48E10, size: 0x8, addend: 0x0, symName: _lprofSuspendSigKill, symObjAddr: 0x548, symBinAddr: 0x10001F66C, symSize: 0x8 }
  - { offset: 0x48E18, size: 0x8, addend: 0x0, symName: _lprofRestoreSigKill, symObjAddr: 0x550, symBinAddr: 0x10001F674, symSize: 0x4 }
  - { offset: 0x48E32, size: 0x8, addend: 0x0, symName: _lprofRestoreSigKill, symObjAddr: 0x550, symBinAddr: 0x10001F674, symSize: 0x4 }
  - { offset: 0x490DD, size: 0x8, addend: 0x0, symName: _getValueProfRecordHeaderSize, symObjAddr: 0x0, symBinAddr: 0x10001F678, symSize: 0xC }
  - { offset: 0x490FC, size: 0x8, addend: 0x0, symName: _VPMaxNumValsPerSite, symObjAddr: 0x1740, symBinAddr: 0x10008DB08, symSize: 0x0 }
  - { offset: 0x49191, size: 0x8, addend: 0x0, symName: __MergedGlobals, symObjAddr: 0xEF68, symBinAddr: 0x10008E758, symSize: 0x0 }
  - { offset: 0x491B8, size: 0x8, addend: 0x0, symName: __MergedGlobals, symObjAddr: 0xEF68, symBinAddr: 0x10008E758, symSize: 0x0 }
  - { offset: 0x491CF, size: 0x8, addend: 0x0, symName: __MergedGlobals, symObjAddr: 0xEF68, symBinAddr: 0x10008E758, symSize: 0x0 }
  - { offset: 0x491EF, size: 0x8, addend: 0x0, symName: _TheVPDataReader, symObjAddr: 0x1748, symBinAddr: 0x10008DB10, symSize: 0x0 }
  - { offset: 0x49490, size: 0x8, addend: 0x0, symName: _RTRecord, symObjAddr: 0xEF40, symBinAddr: 0x10008E730, symSize: 0x0 }
  - { offset: 0x49684, size: 0x8, addend: 0x0, symName: _getValueProfRecordHeaderSize, symObjAddr: 0x0, symBinAddr: 0x10001F678, symSize: 0xC }
  - { offset: 0x496DA, size: 0x8, addend: 0x0, symName: _getValueProfRecordValueData, symObjAddr: 0x1C, symBinAddr: 0x10001F684, symSize: 0x14 }
  - { offset: 0x49788, size: 0x8, addend: 0x0, symName: _getValueProfRecordNext, symObjAddr: 0x1B4, symBinAddr: 0x10001F698, symSize: 0x1A4 }
  - { offset: 0x49790, size: 0x8, addend: 0x0, symName: _getFirstValueProfRecord, symObjAddr: 0x358, symBinAddr: 0x10001F83C, symSize: 0x8 }
  - { offset: 0x497F7, size: 0x8, addend: 0x0, symName: _getFirstValueProfRecord, symObjAddr: 0x358, symBinAddr: 0x10001F83C, symSize: 0x8 }
  - { offset: 0x498DA, size: 0x8, addend: 0x0, symName: _lprofSetupValueProfiler, symObjAddr: 0xB38, symBinAddr: 0x10001F844, symSize: 0x64 }
  - { offset: 0x499EB, size: 0x8, addend: 0x0, symName: ___llvm_profile_instrument_target_value, symObjAddr: 0xE30, symBinAddr: 0x10001F8A8, symSize: 0x290 }
  - { offset: 0x49B09, size: 0x8, addend: 0x0, symName: _lprofGetVPDataReader, symObjAddr: 0x1108, symBinAddr: 0x10001FB38, symSize: 0xC }
  - { offset: 0x49B11, size: 0x8, addend: 0x0, symName: _initializeValueProfRuntimeRecord, symObjAddr: 0x1114, symBinAddr: 0x10001FB44, symSize: 0x210 }
  - { offset: 0x49B2B, size: 0x8, addend: 0x0, symName: _initializeValueProfRuntimeRecord, symObjAddr: 0x1114, symBinAddr: 0x10001FB44, symSize: 0x210 }
  - { offset: 0x49B33, size: 0x8, addend: 0x0, symName: _getNumValueDataForSiteWrapper, symObjAddr: 0x1324, symBinAddr: 0x10001FD54, symSize: 0x14 }
  - { offset: 0x49C4E, size: 0x8, addend: 0x0, symName: _getNumValueDataForSiteWrapper, symObjAddr: 0x1324, symBinAddr: 0x10001FD54, symSize: 0x14 }
  - { offset: 0x49C56, size: 0x8, addend: 0x0, symName: _getValueProfDataSizeWrapper, symObjAddr: 0x1338, symBinAddr: 0x10001FD68, symSize: 0xDC }
  - { offset: 0x49C94, size: 0x8, addend: 0x0, symName: _getNumValueDataForSiteWrapper, symObjAddr: 0x1324, symBinAddr: 0x10001FD54, symSize: 0x14 }
  - { offset: 0x49CBA, size: 0x8, addend: 0x0, symName: _getValueProfDataSizeWrapper, symObjAddr: 0x1338, symBinAddr: 0x10001FD68, symSize: 0xDC }
  - { offset: 0x49CC2, size: 0x8, addend: 0x0, symName: _getNextNValueData, symObjAddr: 0x1414, symBinAddr: 0x10001FE44, symSize: 0x44 }
  - { offset: 0x49D59, size: 0x8, addend: 0x0, symName: _getNextNValueData, symObjAddr: 0x1414, symBinAddr: 0x10001FE44, symSize: 0x44 }
  - { offset: 0x49D61, size: 0x8, addend: 0x0, symName: _getNumValueSitesRT, symObjAddr: 0x1458, symBinAddr: 0x10001FE88, symSize: 0x10 }
  - { offset: 0x49DEF, size: 0x8, addend: 0x0, symName: _getNumValueSitesRT, symObjAddr: 0x1458, symBinAddr: 0x10001FE88, symSize: 0x10 }
  - { offset: 0x49DF7, size: 0x8, addend: 0x0, symName: _getNumValueDataRT, symObjAddr: 0x1468, symBinAddr: 0x10001FE98, symSize: 0x190 }
  - { offset: 0x49E32, size: 0x8, addend: 0x0, symName: _getNumValueDataRT, symObjAddr: 0x1468, symBinAddr: 0x10001FE98, symSize: 0x190 }
  - { offset: 0x49EA8, size: 0x8, addend: 0x0, symName: ___llvm_profile_instrument_target_value.cold.1, symObjAddr: 0x161C, symBinAddr: 0x1000565EC, symSize: 0x24 }
  - { offset: 0x49F38, size: 0x8, addend: 0x0, symName: ___llvm_profile_raw_version, symObjAddr: 0x0, symBinAddr: 0x10008DB40, symSize: 0x0 }
  - { offset: 0x49F7A, size: 0x8, addend: 0x0, symName: _lprofBufferWriter, symObjAddr: 0x0, symBinAddr: 0x100020028, symSize: 0x6C }
  - { offset: 0x49F99, size: 0x8, addend: 0x0, symName: _FreeHook, symObjAddr: 0x4F30, symBinAddr: 0x10008E600, symSize: 0x0 }
  - { offset: 0x49FBF, size: 0x8, addend: 0x0, symName: _DynamicBufferIOBuffer, symObjAddr: 0x4F38, symBinAddr: 0x10008E608, symSize: 0x0 }
  - { offset: 0x49FED, size: 0x8, addend: 0x0, symName: _VPBufferSize, symObjAddr: 0x4F40, symBinAddr: 0x10008E610, symSize: 0x0 }
  - { offset: 0x4A014, size: 0x8, addend: 0x0, symName: __MergedGlobals, symObjAddr: 0x6F48, symBinAddr: 0x100090768, symSize: 0x0 }
  - { offset: 0x4A15E, size: 0x8, addend: 0x0, symName: _BufferIOBuffer, symObjAddr: 0x4F48, symBinAddr: 0x10008E768, symSize: 0x0 }
  - { offset: 0x4A188, size: 0x8, addend: 0x0, symName: __MergedGlobals, symObjAddr: 0x6F48, symBinAddr: 0x100090768, symSize: 0x0 }
  - { offset: 0x4A204, size: 0x8, addend: 0x0, symName: _lprofBufferWriter, symObjAddr: 0x0, symBinAddr: 0x100020028, symSize: 0x6C }
  - { offset: 0x4A31C, size: 0x8, addend: 0x0, symName: _lprofBufferIOWrite, symObjAddr: 0x100, symBinAddr: 0x100020094, symSize: 0x134 }
  - { offset: 0x4A41D, size: 0x8, addend: 0x0, symName: _lprofWriteData, symObjAddr: 0x2F4, symBinAddr: 0x1000201C8, symSize: 0xD4 }
  - { offset: 0x4A425, size: 0x8, addend: 0x0, symName: _lprofWriteDataImpl, symObjAddr: 0x3C8, symBinAddr: 0x10002029C, symSize: 0x46C }
  - { offset: 0x4A84B, size: 0x8, addend: 0x0, symName: _lprofWriteDataImpl, symObjAddr: 0x3C8, symBinAddr: 0x10002029C, symSize: 0x46C }
  - { offset: 0x4AB75, size: 0x8, addend: 0x0, symName: _writeOneValueProfData, symObjAddr: 0x8C0, symBinAddr: 0x100020708, symSize: 0x4A8 }
  - { offset: 0x4B2BF, size: 0x8, addend: 0x0, symName: '__ZN5alloc11collections5btree3map25IntoIter$LT$K$C$V$C$A$GT$10dying_next17h1d88f957430bad1dE', symObjAddr: 0xECA8, symBinAddr: 0x10002BDF8, symSize: 0x224 }
  - { offset: 0x4B6AE, size: 0x8, addend: 0x0, symName: '__ZN5alloc11collections5btree3map25IntoIter$LT$K$C$V$C$A$GT$10dying_next17hfaa5a005d7e39d8eE', symObjAddr: 0xF0F0, symBinAddr: 0x10002C01C, symSize: 0x224 }
  - { offset: 0x4C420, size: 0x8, addend: 0x0, symName: '__ZN5alloc7raw_vec19RawVec$LT$T$C$A$GT$8grow_one17h095dc4f4c91ff6b9E', symObjAddr: 0x114B8, symBinAddr: 0x10002C62C, symSize: 0xD0 }
  - { offset: 0x4C576, size: 0x8, addend: 0x0, symName: '__ZN5alloc7raw_vec19RawVec$LT$T$C$A$GT$8grow_one17h3a19a4ab2b92359dE', symObjAddr: 0x11658, symBinAddr: 0x10002C6FC, symSize: 0xC0 }
  - { offset: 0x4C6CC, size: 0x8, addend: 0x0, symName: '__ZN5alloc7raw_vec19RawVec$LT$T$C$A$GT$8grow_one17h40071feec6bbd372E', symObjAddr: 0x11718, symBinAddr: 0x10002C7BC, symSize: 0xD0 }
  - { offset: 0x4C822, size: 0x8, addend: 0x0, symName: '__ZN5alloc7raw_vec19RawVec$LT$T$C$A$GT$8grow_one17h4a39c02819ac1667E', symObjAddr: 0x117E8, symBinAddr: 0x10002C88C, symSize: 0xD0 }
  - { offset: 0x4C978, size: 0x8, addend: 0x0, symName: '__ZN5alloc7raw_vec19RawVec$LT$T$C$A$GT$8grow_one17h4a92fc1fe476e477E', symObjAddr: 0x118B8, symBinAddr: 0x10002C95C, symSize: 0xC0 }
  - { offset: 0x4CACE, size: 0x8, addend: 0x0, symName: '__ZN5alloc7raw_vec19RawVec$LT$T$C$A$GT$8grow_one17h4fe34a41a9b5eb13E', symObjAddr: 0x11978, symBinAddr: 0x10002CA1C, symSize: 0xC0 }
  - { offset: 0x4CC24, size: 0x8, addend: 0x0, symName: '__ZN5alloc7raw_vec19RawVec$LT$T$C$A$GT$8grow_one17h51ebdaf7922ccb0fE', symObjAddr: 0x11A38, symBinAddr: 0x10002CADC, symSize: 0xD0 }
  - { offset: 0x4CD7A, size: 0x8, addend: 0x0, symName: '__ZN5alloc7raw_vec19RawVec$LT$T$C$A$GT$8grow_one17h5fa1addd75b9c473E', symObjAddr: 0x11B08, symBinAddr: 0x10002CBAC, symSize: 0xC0 }
  - { offset: 0x4CED0, size: 0x8, addend: 0x0, symName: '__ZN5alloc7raw_vec19RawVec$LT$T$C$A$GT$8grow_one17h86dfd012ac0923eeE', symObjAddr: 0x11BC8, symBinAddr: 0x10002CC6C, symSize: 0xCC }
  - { offset: 0x4D026, size: 0x8, addend: 0x0, symName: '__ZN5alloc7raw_vec19RawVec$LT$T$C$A$GT$8grow_one17h94e52b7d38af74feE', symObjAddr: 0x11C94, symBinAddr: 0x10002CD38, symSize: 0xCC }
  - { offset: 0x4D17C, size: 0x8, addend: 0x0, symName: '__ZN5alloc7raw_vec19RawVec$LT$T$C$A$GT$8grow_one17hbaffb1ea2421dae5E', symObjAddr: 0x11D60, symBinAddr: 0x10002CE04, symSize: 0xCC }
  - { offset: 0x4D91C, size: 0x8, addend: 0x0, symName: __ZN5alloc7raw_vec11finish_grow17hd37f20dcfa74548bE, symObjAddr: 0x11430, symBinAddr: 0x100056788, symSize: 0x88 }
  - { offset: 0x4D9B7, size: 0x8, addend: 0x0, symName: '__ZN5alloc7raw_vec20RawVecInner$LT$A$GT$7reserve21do_reserve_and_handle17h59c9ec03f2a10329E', symObjAddr: 0x11E2C, symBinAddr: 0x100056810, symSize: 0xF0 }
  - { offset: 0x4ECEC, size: 0x8, addend: 0x0, symName: '__ZN5alloc4sync16Arc$LT$T$C$A$GT$9drop_slow17h382cff577ce4ab40E', symObjAddr: 0x10FD0, symBinAddr: 0x10002C240, symSize: 0x100 }
  - { offset: 0x4F01C, size: 0x8, addend: 0x0, symName: '__ZN5alloc4sync16Arc$LT$T$C$A$GT$9drop_slow17h5608352b196d8cb3E', symObjAddr: 0x110D0, symBinAddr: 0x10002C340, symSize: 0xA0 }
  - { offset: 0x4F340, size: 0x8, addend: 0x0, symName: '__ZN5alloc4sync16Arc$LT$T$C$A$GT$9drop_slow17h5ede859a095ca78aE', symObjAddr: 0x111E4, symBinAddr: 0x10002C3E0, symSize: 0x78 }
  - { offset: 0x4F50C, size: 0x8, addend: 0x0, symName: '__ZN5alloc4sync16Arc$LT$T$C$A$GT$9drop_slow17h7cf1d5f987884bcfE', symObjAddr: 0x1125C, symBinAddr: 0x10002C458, symSize: 0xC0 }
  - { offset: 0x4F831, size: 0x8, addend: 0x0, symName: '__ZN5alloc4sync16Arc$LT$T$C$A$GT$9drop_slow17h90e2e762cfbfaa1eE', symObjAddr: 0x1131C, symBinAddr: 0x10002C518, symSize: 0x44 }
  - { offset: 0x4F90E, size: 0x8, addend: 0x0, symName: '__ZN5alloc4sync16Arc$LT$T$C$A$GT$9drop_slow17h9659d3e2cd59fce8E', symObjAddr: 0x11360, symBinAddr: 0x10002C55C, symSize: 0xD0 }
  - { offset: 0x4FE84, size: 0x8, addend: 0x0, symName: '__ZN64_$LT$alloc..ffi..c_str..NulError$u20$as$u20$core..fmt..Debug$GT$3fmt17h18ce3d950e35fa91E', symObjAddr: 0x18D64, symBinAddr: 0x100033D18, symSize: 0x4C }
  - { offset: 0x50267, size: 0x8, addend: 0x0, symName: '__ZN58_$LT$alloc..string..String$u20$as$u20$core..fmt..Debug$GT$3fmt17hdbacb71d50eff926E', symObjAddr: 0xD6B8, symBinAddr: 0x10002BC04, symSize: 0x1C }
  - { offset: 0x50322, size: 0x8, addend: 0x0, symName: '__ZN58_$LT$alloc..string..String$u20$as$u20$core..fmt..Write$GT$10write_char17h67c485e816708459E', symObjAddr: 0xD6D4, symBinAddr: 0x10002BC20, symSize: 0x158 }
  - { offset: 0x50587, size: 0x8, addend: 0x0, symName: '__ZN58_$LT$alloc..string..String$u20$as$u20$core..fmt..Write$GT$9write_str17h4bc2793cacc1d696E', symObjAddr: 0xD82C, symBinAddr: 0x10002BD78, symSize: 0x80 }
  - { offset: 0x506E0, size: 0x8, addend: 0x0, symName: '__ZN60_$LT$alloc..string..String$u20$as$u20$core..fmt..Display$GT$3fmt17ha0099383a97e68c2E', symObjAddr: 0x18D48, symBinAddr: 0x100033CFC, symSize: 0x1C }
  - { offset: 0x51B7D, size: 0x8, addend: 0x0, symName: '__ZN4core3ptr107drop_in_place$LT$core..pin..Pin$LT$alloc..boxed..Box$LT$std..sys..pal..unix..sync..mutex..Mutex$GT$$GT$$GT$17hc07c140671e79445E', symObjAddr: 0x1CB0, symBinAddr: 0x100021620, symSize: 0x2C }
  - { offset: 0x51C76, size: 0x8, addend: 0x0, symName: '__ZN4core3ptr108drop_in_place$LT$alloc..collections..btree..map..BTreeMap$LT$u64$C$gimli..read..abbrev..Abbreviation$GT$$GT$17haa74a0211d9ed923E', symObjAddr: 0x1CDC, symBinAddr: 0x10002164C, symSize: 0xB0 }
  - { offset: 0x51E49, size: 0x8, addend: 0x0, symName: '__ZN4core3ptr109drop_in_place$LT$alloc..sync..Arc$LT$std..sync..poison..mutex..Mutex$LT$alloc..vec..Vec$LT$u8$GT$$GT$$GT$$GT$17h61b1cac8a1fede90E', symObjAddr: 0x1D8C, symBinAddr: 0x1000216FC, symSize: 0x30 }
  - { offset: 0x51EDE, size: 0x8, addend: 0x0, symName: '__ZN4core3ptr118drop_in_place$LT$std..io..Write..write_fmt..Adapter$LT$std..io..cursor..Cursor$LT$$RF$mut$u20$$u5b$u8$u5d$$GT$$GT$$GT$17h5c63d0c0bee45058E', symObjAddr: 0x1E54, symBinAddr: 0x10002172C, symSize: 0x20 }
  - { offset: 0x51F16, size: 0x8, addend: 0x0, symName: '__ZN4core3ptr123drop_in_place$LT$addr2line..Context$LT$gimli..read..endian_slice..EndianSlice$LT$gimli..endianity..LittleEndian$GT$$GT$$GT$17hc6d5be859abd218dE', symObjAddr: 0x1E74, symBinAddr: 0x10002174C, symSize: 0x70 }
  - { offset: 0x52077, size: 0x8, addend: 0x0, symName: '__ZN4core3ptr129drop_in_place$LT$addr2line..unit..ResUnit$LT$gimli..read..endian_slice..EndianSlice$LT$gimli..endianity..LittleEndian$GT$$GT$$GT$17h3200663a94d9b140E', symObjAddr: 0x202C, symBinAddr: 0x1000217BC, symSize: 0xE4 }
  - { offset: 0x52299, size: 0x8, addend: 0x0, symName: '__ZN4core3ptr129drop_in_place$LT$addr2line..unit..SupUnit$LT$gimli..read..endian_slice..EndianSlice$LT$gimli..endianity..LittleEndian$GT$$GT$$GT$17hea048140b03f01afE', symObjAddr: 0x2110, symBinAddr: 0x1000218A0, symSize: 0x54 }
  - { offset: 0x52374, size: 0x8, addend: 0x0, symName: '__ZN4core3ptr130drop_in_place$LT$addr2line..unit..ResUnits$LT$gimli..read..endian_slice..EndianSlice$LT$gimli..endianity..LittleEndian$GT$$GT$$GT$17he56c193886414dbaE', symObjAddr: 0x2164, symBinAddr: 0x1000218F4, symSize: 0xD0 }
  - { offset: 0x5251D, size: 0x8, addend: 0x0, symName: '__ZN4core3ptr130drop_in_place$LT$addr2line..unit..SupUnits$LT$gimli..read..endian_slice..EndianSlice$LT$gimli..endianity..LittleEndian$GT$$GT$$GT$17h74d4d2bc946c0774E', symObjAddr: 0x2234, symBinAddr: 0x1000219C4, symSize: 0xE4 }
  - { offset: 0x526DB, size: 0x8, addend: 0x0, symName: '__ZN4core3ptr130drop_in_place$LT$gimli..read..dwarf..Dwarf$LT$gimli..read..endian_slice..EndianSlice$LT$gimli..endianity..LittleEndian$GT$$GT$$GT$17h733659cc5e33a4cbE', symObjAddr: 0x2318, symBinAddr: 0x100021AA8, symSize: 0x58 }
  - { offset: 0x527A9, size: 0x8, addend: 0x0, symName: '__ZN4core3ptr131drop_in_place$LT$$u5b$core..option..Option$LT$core..option..Option$LT$std..backtrace_rs..symbolize..gimli..Mapping$GT$$GT$$u5d$$GT$17h1b55ae3732cae68aE', symObjAddr: 0x2370, symBinAddr: 0x100021B00, symSize: 0xCC }
  - { offset: 0x52853, size: 0x8, addend: 0x0, symName: '__ZN4core3ptr137drop_in_place$LT$gimli..read..dwarf..Unit$LT$gimli..read..endian_slice..EndianSlice$LT$gimli..endianity..LittleEndian$GT$$C$usize$GT$$GT$17h90351d6bab11b82cE', symObjAddr: 0x2500, symBinAddr: 0x100021BCC, symSize: 0x54 }
  - { offset: 0x52950, size: 0x8, addend: 0x0, symName: '__ZN4core3ptr138drop_in_place$LT$addr2line..function..LazyFunction$LT$gimli..read..endian_slice..EndianSlice$LT$gimli..endianity..LittleEndian$GT$$GT$$GT$17h0f9458c797bd90e9E', symObjAddr: 0x2554, symBinAddr: 0x100021C20, symSize: 0x64 }
  - { offset: 0x52967, size: 0x8, addend: 0x0, symName: '__ZN4core3ptr138drop_in_place$LT$addr2line..function..LazyFunction$LT$gimli..read..endian_slice..EndianSlice$LT$gimli..endianity..LittleEndian$GT$$GT$$GT$17h0f9458c797bd90e9E', symObjAddr: 0x2554, symBinAddr: 0x100021C20, symSize: 0x64 }
  - { offset: 0x5297C, size: 0x8, addend: 0x0, symName: '__ZN4core3ptr138drop_in_place$LT$addr2line..function..LazyFunction$LT$gimli..read..endian_slice..EndianSlice$LT$gimli..endianity..LittleEndian$GT$$GT$$GT$17h0f9458c797bd90e9E', symObjAddr: 0x2554, symBinAddr: 0x100021C20, symSize: 0x64 }
  - { offset: 0x52991, size: 0x8, addend: 0x0, symName: '__ZN4core3ptr138drop_in_place$LT$addr2line..function..LazyFunction$LT$gimli..read..endian_slice..EndianSlice$LT$gimli..endianity..LittleEndian$GT$$GT$$GT$17h0f9458c797bd90e9E', symObjAddr: 0x2554, symBinAddr: 0x100021C20, symSize: 0x64 }
  - { offset: 0x52AD3, size: 0x8, addend: 0x0, symName: '__ZN4core3ptr144drop_in_place$LT$alloc..vec..Vec$LT$core..option..Option$LT$core..option..Option$LT$std..backtrace_rs..symbolize..gimli..Mapping$GT$$GT$$GT$$GT$17hd5b41028903956eeE', symObjAddr: 0x25B8, symBinAddr: 0x100021C84, symSize: 0x78 }
  - { offset: 0x52C3B, size: 0x8, addend: 0x0, symName: '__ZN4core3ptr152drop_in_place$LT$alloc..vec..Vec$LT$addr2line..unit..ResUnit$LT$gimli..read..endian_slice..EndianSlice$LT$gimli..endianity..LittleEndian$GT$$GT$$GT$$GT$17hdd35552c1680b2ebE', symObjAddr: 0x26FC, symBinAddr: 0x100021CFC, symSize: 0xC4 }
  - { offset: 0x52DAA, size: 0x8, addend: 0x0, symName: '__ZN4core3ptr152drop_in_place$LT$alloc..vec..Vec$LT$addr2line..unit..SupUnit$LT$gimli..read..endian_slice..EndianSlice$LT$gimli..endianity..LittleEndian$GT$$GT$$GT$$GT$17h6431a2f92897bef0E', symObjAddr: 0x27C0, symBinAddr: 0x100021DC0, symSize: 0xF4 }
  - { offset: 0x52FC2, size: 0x8, addend: 0x0, symName: '__ZN4core3ptr156drop_in_place$LT$alloc..boxed..Box$LT$$u5b$core..option..Option$LT$core..option..Option$LT$std..backtrace_rs..symbolize..gimli..Mapping$GT$$GT$$u5d$$GT$$GT$17h61627ecd782bd92dE', symObjAddr: 0x28B4, symBinAddr: 0x100021EB4, symSize: 0xF8 }
  - { offset: 0x530EC, size: 0x8, addend: 0x0, symName: '__ZN4core3ptr159drop_in_place$LT$alloc..sync..ArcInner$LT$gimli..read..dwarf..Dwarf$LT$gimli..read..endian_slice..EndianSlice$LT$gimli..endianity..LittleEndian$GT$$GT$$GT$$GT$17h71c073e2ea863d36E', symObjAddr: 0x29AC, symBinAddr: 0x100021FAC, symSize: 0x58 }
  - { offset: 0x531C9, size: 0x8, addend: 0x0, symName: '__ZN4core3ptr161drop_in_place$LT$alloc..vec..Vec$LT$addr2line..function..LazyFunction$LT$gimli..read..endian_slice..EndianSlice$LT$gimli..endianity..LittleEndian$GT$$GT$$GT$$GT$17h938f97b5a308fc3cE', symObjAddr: 0x2A04, symBinAddr: 0x100022004, symSize: 0xAC }
  - { offset: 0x53406, size: 0x8, addend: 0x0, symName: '__ZN4core3ptr172drop_in_place$LT$core..result..Result$LT$addr2line..Context$LT$gimli..read..endian_slice..EndianSlice$LT$gimli..endianity..LittleEndian$GT$$GT$$C$gimli..read..Error$GT$$GT$17h8205db00afecd676E', symObjAddr: 0x2B5C, symBinAddr: 0x1000220B0, symSize: 0x80 }
  - { offset: 0x5349B, size: 0x8, addend: 0x0, symName: '__ZN4core3ptr173drop_in_place$LT$alloc..boxed..Box$LT$$u5b$addr2line..function..LazyFunction$LT$gimli..read..endian_slice..EndianSlice$LT$gimli..endianity..LittleEndian$GT$$GT$$u5d$$GT$$GT$17h141b901e37828fa3E', symObjAddr: 0x2BDC, symBinAddr: 0x100022130, symSize: 0x9C }
  - { offset: 0x534B2, size: 0x8, addend: 0x0, symName: '__ZN4core3ptr173drop_in_place$LT$alloc..boxed..Box$LT$$u5b$addr2line..function..LazyFunction$LT$gimli..read..endian_slice..EndianSlice$LT$gimli..endianity..LittleEndian$GT$$GT$$u5d$$GT$$GT$17h141b901e37828fa3E', symObjAddr: 0x2BDC, symBinAddr: 0x100022130, symSize: 0x9C }
  - { offset: 0x536F7, size: 0x8, addend: 0x0, symName: '__ZN4core3ptr181drop_in_place$LT$core..option..Option$LT$gimli..read..line..IncompleteLineProgram$LT$gimli..read..endian_slice..EndianSlice$LT$gimli..endianity..LittleEndian$GT$$C$usize$GT$$GT$$GT$17h0ce7bfce5e4abb6bE', symObjAddr: 0x2CE8, symBinAddr: 0x1000221CC, symSize: 0x98 }
  - { offset: 0x539B2, size: 0x8, addend: 0x0, symName: '__ZN4core3ptr181drop_in_place$LT$core..result..Result$LT$addr2line..frame..FrameIter$LT$gimli..read..endian_slice..EndianSlice$LT$gimli..endianity..LittleEndian$GT$$GT$$C$gimli..read..Error$GT$$GT$17hc32763af75cf70e4E', symObjAddr: 0x2D80, symBinAddr: 0x100022264, symSize: 0x44 }
  - { offset: 0x53AF0, size: 0x8, addend: 0x0, symName: '__ZN4core3ptr184drop_in_place$LT$core..result..Result$LT$addr2line..function..Functions$LT$gimli..read..endian_slice..EndianSlice$LT$gimli..endianity..LittleEndian$GT$$GT$$C$gimli..read..Error$GT$$GT$17hae974801a783d12aE', symObjAddr: 0x2DC4, symBinAddr: 0x1000222A8, symSize: 0xD8 }
  - { offset: 0x54533, size: 0x8, addend: 0x0, symName: '__ZN4core3ptr223drop_in_place$LT$std..sys..thread_local..native..lazy..State$LT$core..cell..Cell$LT$core..option..Option$LT$alloc..sync..Arc$LT$std..sync..poison..mutex..Mutex$LT$alloc..vec..Vec$LT$u8$GT$$GT$$GT$$GT$$GT$$C$$LP$$RP$$GT$$GT$17h8e1dbbdc8aa6e2b2E', symObjAddr: 0x2F10, symBinAddr: 0x100022380, symSize: 0x40 }
  - { offset: 0x5461F, size: 0x8, addend: 0x0, symName: '__ZN4core3ptr231drop_in_place$LT$core..result..Result$LT$core..option..Option$LT$alloc..boxed..Box$LT$addr2line..unit..DwoUnit$LT$gimli..read..endian_slice..EndianSlice$LT$gimli..endianity..LittleEndian$GT$$GT$$GT$$GT$$C$gimli..read..Error$GT$$GT$17h48abe14940fae1d7E', symObjAddr: 0x2F50, symBinAddr: 0x1000223C0, symSize: 0xD4 }
  - { offset: 0x54808, size: 0x8, addend: 0x0, symName: '__ZN4core3ptr275drop_in_place$LT$gimli..read..line..LineRows$LT$gimli..read..endian_slice..EndianSlice$LT$gimli..endianity..LittleEndian$GT$$C$gimli..read..line..IncompleteLineProgram$LT$gimli..read..endian_slice..EndianSlice$LT$gimli..endianity..LittleEndian$GT$$C$usize$GT$$C$usize$GT$$GT$17h1fb49ddc3575d792E', symObjAddr: 0x304C, symBinAddr: 0x100022494, symSize: 0x8C }
  - { offset: 0x54A7D, size: 0x8, addend: 0x0, symName: '__ZN4core3ptr280drop_in_place$LT$$LT$alloc..collections..btree..map..IntoIter$LT$K$C$V$C$A$GT$$u20$as$u20$core..ops..drop..Drop$GT$..drop..DropGuard$LT$u64$C$core..result..Result$LT$alloc..sync..Arc$LT$gimli..read..abbrev..Abbreviations$GT$$C$gimli..read..Error$GT$$C$alloc..alloc..Global$GT$$GT$17h412edb4cf40f508aE', symObjAddr: 0x30D8, symBinAddr: 0x100022520, symSize: 0x84 }
  - { offset: 0x54C12, size: 0x8, addend: 0x0, symName: '__ZN4core3ptr42drop_in_place$LT$alloc..string..String$GT$17h49e49416d7fc736bE', symObjAddr: 0x3330, symBinAddr: 0x1000225A4, symSize: 0x28 }
  - { offset: 0x54CED, size: 0x8, addend: 0x0, symName: '__ZN4core3ptr42drop_in_place$LT$std..io..error..Error$GT$17h2076e24185186a1eE', symObjAddr: 0x3358, symBinAddr: 0x1000225CC, symSize: 0xAC }
  - { offset: 0x54F07, size: 0x8, addend: 0x0, symName: '__ZN4core3ptr44drop_in_place$LT$object..read..ObjectMap$GT$17hefa7b8970618855fE', symObjAddr: 0x3404, symBinAddr: 0x100022678, symSize: 0x58 }
  - { offset: 0x55036, size: 0x8, addend: 0x0, symName: '__ZN4core3ptr46drop_in_place$LT$alloc..vec..Vec$LT$u8$GT$$GT$17he05f3434a0e55321E', symObjAddr: 0x350C, symBinAddr: 0x1000226D0, symSize: 0x28 }
  - { offset: 0x550C3, size: 0x8, addend: 0x0, symName: '__ZN4core3ptr46drop_in_place$LT$std..io..stdio..StdinLock$GT$17h7f23f0068af34be6E', symObjAddr: 0x3534, symBinAddr: 0x1000226F8, symSize: 0x54 }
  - { offset: 0x550DA, size: 0x8, addend: 0x0, symName: '__ZN4core3ptr46drop_in_place$LT$std..io..stdio..StdinLock$GT$17h7f23f0068af34be6E', symObjAddr: 0x3534, symBinAddr: 0x1000226F8, symSize: 0x54 }
  - { offset: 0x550EF, size: 0x8, addend: 0x0, symName: '__ZN4core3ptr46drop_in_place$LT$std..io..stdio..StdinLock$GT$17h7f23f0068af34be6E', symObjAddr: 0x3534, symBinAddr: 0x1000226F8, symSize: 0x54 }
  - { offset: 0x551D3, size: 0x8, addend: 0x0, symName: '__ZN4core3ptr48drop_in_place$LT$alloc..ffi..c_str..NulError$GT$17hf807e8c3d992613aE', symObjAddr: 0x35E0, symBinAddr: 0x10002274C, symSize: 0x28 }
  - { offset: 0x55292, size: 0x8, addend: 0x0, symName: '__ZN4core3ptr55drop_in_place$LT$gimli..read..abbrev..Abbreviations$GT$17h5028fd7f23a66a5dE', symObjAddr: 0x38D4, symBinAddr: 0x100022774, symSize: 0x84 }
  - { offset: 0x5544D, size: 0x8, addend: 0x0, symName: '__ZN4core3ptr60drop_in_place$LT$gimli..read..abbrev..AbbreviationsCache$GT$17h109635aebb38ad94E', symObjAddr: 0x39E8, symBinAddr: 0x1000227F8, symSize: 0xCC }
  - { offset: 0x5560F, size: 0x8, addend: 0x0, symName: '__ZN4core3ptr62drop_in_place$LT$std..sys..sync..rwlock..queue..PanicGuard$GT$17ha6ff6fed8f58b75aE', symObjAddr: 0x3AB4, symBinAddr: 0x1000228C4, symSize: 0x44 }
  - { offset: 0x55656, size: 0x8, addend: 0x0, symName: '__ZN4core3ptr64drop_in_place$LT$std..sys..pal..unix..sync..mutex..AttrGuard$GT$17hfae1c338ebc17455E', symObjAddr: 0x3AF8, symBinAddr: 0x100022908, symSize: 0x48 }
  - { offset: 0x55695, size: 0x8, addend: 0x0, symName: '__ZN4core3ptr65drop_in_place$LT$alloc..vec..Vec$LT$alloc..string..String$GT$$GT$17h0e8d3320a68b6c20E', symObjAddr: 0x3B40, symBinAddr: 0x100022950, symSize: 0x80 }
  - { offset: 0x55833, size: 0x8, addend: 0x0, symName: '__ZN4core3ptr65drop_in_place$LT$std..backtrace_rs..symbolize..gimli..Context$GT$17he1a9681aa2b789c5E', symObjAddr: 0x3BC0, symBinAddr: 0x1000229D0, symSize: 0xE8 }
  - { offset: 0x55AC5, size: 0x8, addend: 0x0, symName: '__ZN4core3ptr65drop_in_place$LT$std..backtrace_rs..symbolize..gimli..Mapping$GT$17h1ad26fdf3d4d883aE', symObjAddr: 0x3CA8, symBinAddr: 0x100022AB8, symSize: 0x50 }
  - { offset: 0x55B30, size: 0x8, addend: 0x0, symName: '__ZN4core3ptr66drop_in_place$LT$std..backtrace_rs..backtrace..libunwind..Bomb$GT$17hcf55bbc6e2408f91E', symObjAddr: 0x3D50, symBinAddr: 0x100022B08, symSize: 0x40 }
  - { offset: 0x55BDE, size: 0x8, addend: 0x0, symName: '__ZN4core3ptr70drop_in_place$LT$std..backtrace_rs..symbolize..gimli..stash..Stash$GT$17h823b9ed5294710a1E', symObjAddr: 0x3E8C, symBinAddr: 0x100022B48, symSize: 0xB8 }
  - { offset: 0x55E84, size: 0x8, addend: 0x0, symName: '__ZN4core3ptr71drop_in_place$LT$std..backtrace_rs..symbolize..gimli..macho..Object$GT$17h7d766a5d50e6fcdbE', symObjAddr: 0x3F44, symBinAddr: 0x100022C00, symSize: 0xD8 }
  - { offset: 0x56157, size: 0x8, addend: 0x0, symName: '__ZN4core3ptr72drop_in_place$LT$core..option..Option$LT$object..read..ObjectMap$GT$$GT$17hc34cda9cf8984625E', symObjAddr: 0x4088, symBinAddr: 0x100022CD8, symSize: 0x64 }
  - { offset: 0x562D4, size: 0x8, addend: 0x0, symName: '__ZN4core3ptr73drop_in_place$LT$alloc..vec..Vec$LT$addr2line..line..LineSequence$GT$$GT$17h0feaef6467c5bb06E', symObjAddr: 0x40EC, symBinAddr: 0x100022D3C, symSize: 0x84 }
  - { offset: 0x5642C, size: 0x8, addend: 0x0, symName: '__ZN4core3ptr77drop_in_place$LT$alloc..boxed..Box$LT$$u5b$alloc..string..String$u5d$$GT$$GT$17h8657c1556d878703E', symObjAddr: 0x41C8, symBinAddr: 0x100022DC0, symSize: 0x70 }
  - { offset: 0x56443, size: 0x8, addend: 0x0, symName: '__ZN4core3ptr77drop_in_place$LT$alloc..boxed..Box$LT$$u5b$alloc..string..String$u5d$$GT$$GT$17h8657c1556d878703E', symObjAddr: 0x41C8, symBinAddr: 0x100022DC0, symSize: 0x70 }
  - { offset: 0x5654F, size: 0x8, addend: 0x0, symName: '__ZN4core3ptr77drop_in_place$LT$std..panicking..begin_panic_handler..FormatStringPayload$GT$17h1141e34cc3e1cd8cE', symObjAddr: 0x4238, symBinAddr: 0x100022E30, symSize: 0x34 }
  - { offset: 0x5660B, size: 0x8, addend: 0x0, symName: '__ZN4core3ptr79drop_in_place$LT$std..sync..poison..rwlock..RwLockReadGuard$LT$$LP$$RP$$GT$$GT$17h3c7acdfaefb6864dE', symObjAddr: 0x435C, symBinAddr: 0x100022E64, symSize: 0x68 }
  - { offset: 0x566A7, size: 0x8, addend: 0x0, symName: '__ZN4core3ptr81drop_in_place$LT$$LP$usize$C$std..backtrace_rs..symbolize..gimli..Mapping$RP$$GT$17h0fc60d1e178e2af3E', symObjAddr: 0x4458, symBinAddr: 0x100022ECC, symSize: 0x54 }
  - { offset: 0x56728, size: 0x8, addend: 0x0, symName: '__ZN4core3ptr81drop_in_place$LT$core..result..Result$LT$$LP$$RP$$C$std..io..error..Error$GT$$GT$17h32d66e7d6b4290f9E', symObjAddr: 0x44AC, symBinAddr: 0x100022F20, symSize: 0x20 }
  - { offset: 0x5674A, size: 0x8, addend: 0x0, symName: '__ZN4core3ptr84drop_in_place$LT$alloc..sync..ArcInner$LT$gimli..read..abbrev..Abbreviations$GT$$GT$17hc1742a6ee5f4f5c4E', symObjAddr: 0x455C, symBinAddr: 0x100022F40, symSize: 0x84 }
  - { offset: 0x56914, size: 0x8, addend: 0x0, symName: '__ZN4core3ptr87drop_in_place$LT$alloc..sync..ArcInner$LT$std..sys..pal..unix..fs..InnerReadDir$GT$$GT$17h22f7f5fc9c3aa8bdE', symObjAddr: 0x45E0, symBinAddr: 0x100022FC4, symSize: 0x60 }
  - { offset: 0x56AFD, size: 0x8, addend: 0x0, symName: '__ZN4core3ptr88drop_in_place$LT$alloc..vec..Vec$LT$std..backtrace_rs..symbolize..gimli..Library$GT$$GT$17heda6be67225cff8cE', symObjAddr: 0x4674, symBinAddr: 0x100023024, symSize: 0x98 }
  - { offset: 0x56D13, size: 0x8, addend: 0x0, symName: '__ZN4core3ptr90drop_in_place$LT$std..io..buffered..bufwriter..BufWriter$LT$W$GT$..flush_buf..BufGuard$GT$17h18eab3e558793eacE', symObjAddr: 0x470C, symBinAddr: 0x1000230BC, symSize: 0x60 }
  - { offset: 0x56ED4, size: 0x8, addend: 0x0, symName: '__ZN4core3ptr92drop_in_place$LT$core..result..Result$LT$addr2line..line..Lines$C$gimli..read..Error$GT$$GT$17h75873180c89d56d0E', symObjAddr: 0x47E8, symBinAddr: 0x10002311C, symSize: 0xE4 }
  - { offset: 0x5711A, size: 0x8, addend: 0x0, symName: '__ZN4core3ptr93drop_in_place$LT$core..option..Option$LT$std..backtrace_rs..symbolize..gimli..Mapping$GT$$GT$17h8ea9f8655928f4fcE', symObjAddr: 0x48CC, symBinAddr: 0x100023200, symSize: 0x6C }
  - { offset: 0x571B7, size: 0x8, addend: 0x0, symName: '__ZN4core3ptr95drop_in_place$LT$core..option..IntoIter$LT$std..backtrace_rs..symbolize..gimli..Library$GT$$GT$17he46fad7f279ea952E', symObjAddr: 0x4938, symBinAddr: 0x10002326C, symSize: 0x5C }
  - { offset: 0x571D5, size: 0x8, addend: 0x0, symName: '__ZN4core3ptr95drop_in_place$LT$core..option..IntoIter$LT$std..backtrace_rs..symbolize..gimli..Library$GT$$GT$17he46fad7f279ea952E', symObjAddr: 0x4938, symBinAddr: 0x10002326C, symSize: 0x5C }
  - { offset: 0x571EA, size: 0x8, addend: 0x0, symName: '__ZN4core3ptr95drop_in_place$LT$core..option..IntoIter$LT$std..backtrace_rs..symbolize..gimli..Library$GT$$GT$17he46fad7f279ea952E', symObjAddr: 0x4938, symBinAddr: 0x10002326C, symSize: 0x5C }
  - { offset: 0x57353, size: 0x8, addend: 0x0, symName: '__ZN4core3ptr95drop_in_place$LT$std..io..buffered..linewriter..LineWriter$LT$std..io..stdio..StdoutRaw$GT$$GT$17h3bd57fa990556d59E', symObjAddr: 0x4994, symBinAddr: 0x1000232C8, symSize: 0xF0 }
  - { offset: 0x59678, size: 0x8, addend: 0x0, symName: __ZN4core5slice4sort6shared5pivot11median3_rec17h025645fbfb2d8cd1E, symObjAddr: 0x4D90, symBinAddr: 0x1000233CC, symSize: 0x134 }
  - { offset: 0x5989F, size: 0x8, addend: 0x0, symName: __ZN4core5slice4sort6shared5pivot11median3_rec17h246a4f2d911688a1E, symObjAddr: 0x4EC4, symBinAddr: 0x100023500, symSize: 0xD0 }
  - { offset: 0x5999A, size: 0x8, addend: 0x0, symName: __ZN4core5slice4sort6shared5pivot11median3_rec17h6ce4cdb71517d19eE, symObjAddr: 0x4F94, symBinAddr: 0x1000235D0, symSize: 0xCC }
  - { offset: 0x59A95, size: 0x8, addend: 0x0, symName: __ZN4core5slice4sort6shared5pivot11median3_rec17h6e4fd85017a3f5e4E, symObjAddr: 0x5060, symBinAddr: 0x10002369C, symSize: 0xD0 }
  - { offset: 0x59B90, size: 0x8, addend: 0x0, symName: __ZN4core5slice4sort6shared5pivot11median3_rec17ha3c898ebd570d9a9E, symObjAddr: 0x5130, symBinAddr: 0x10002376C, symSize: 0xCC }
  - { offset: 0x59CE1, size: 0x8, addend: 0x0, symName: __ZN4core5slice4sort6shared5pivot11median3_rec17hbe3f226301cd071dE, symObjAddr: 0x51FC, symBinAddr: 0x100023838, symSize: 0xCC }
  - { offset: 0x59DDC, size: 0x8, addend: 0x0, symName: __ZN4core5slice4sort6shared5pivot11median3_rec17hc3d7c76f255c304aE, symObjAddr: 0x52C8, symBinAddr: 0x100023904, symSize: 0xD0 }
  - { offset: 0x59ED7, size: 0x8, addend: 0x0, symName: __ZN4core5slice4sort6shared5pivot11median3_rec17heb13e39171436e07E, symObjAddr: 0x5398, symBinAddr: 0x1000239D4, symSize: 0x11C }
  - { offset: 0x5A0AD, size: 0x8, addend: 0x0, symName: __ZN4core5slice4sort6shared9smallsort12sort4_stable17h29d5ecfff8d25808E, symObjAddr: 0x54B4, symBinAddr: 0x100023AF0, symSize: 0x1B4 }
  - { offset: 0x5A258, size: 0x8, addend: 0x0, symName: __ZN4core5slice4sort6shared9smallsort12sort4_stable17he2b82e95c0946cc4E, symObjAddr: 0x5668, symBinAddr: 0x100023CA4, symSize: 0x180 }
  - { offset: 0x5A67A, size: 0x8, addend: 0x0, symName: __ZN4core5slice4sort6shared9smallsort12sort8_stable17h40f301b851efa79fE, symObjAddr: 0x57E8, symBinAddr: 0x100023E24, symSize: 0x2B8 }
  - { offset: 0x5AC13, size: 0x8, addend: 0x0, symName: __ZN4core5slice4sort6shared9smallsort18small_sort_general17h8f0f2bfe6ac37bfbE, symObjAddr: 0x5AA0, symBinAddr: 0x1000240DC, symSize: 0x490 }
  - { offset: 0x5B328, size: 0x8, addend: 0x0, symName: __ZN4core5slice4sort6shared9smallsort18small_sort_general17h9886ba35fa9ddf7bE, symObjAddr: 0x5F30, symBinAddr: 0x10002456C, symSize: 0x3E0 }
  - { offset: 0x5B842, size: 0x8, addend: 0x0, symName: __ZN4core5slice4sort6shared9smallsort25insertion_sort_shift_left17h001473db42a80264E, symObjAddr: 0x6310, symBinAddr: 0x10002494C, symSize: 0xB0 }
  - { offset: 0x5B8E5, size: 0x8, addend: 0x0, symName: __ZN4core5slice4sort6shared9smallsort25insertion_sort_shift_left17h1e1ea2c4d7503f74E, symObjAddr: 0x63C0, symBinAddr: 0x1000249FC, symSize: 0xCC }
  - { offset: 0x5B9E6, size: 0x8, addend: 0x0, symName: __ZN4core5slice4sort6shared9smallsort25insertion_sort_shift_left17h4c238536f310567cE, symObjAddr: 0x648C, symBinAddr: 0x100024AC8, symSize: 0xFC }
  - { offset: 0x5BB7D, size: 0x8, addend: 0x0, symName: __ZN4core5slice4sort6shared9smallsort25insertion_sort_shift_left17h5ae8ea909444dc00E, symObjAddr: 0x6588, symBinAddr: 0x100024BC4, symSize: 0xAC }
  - { offset: 0x5BC20, size: 0x8, addend: 0x0, symName: __ZN4core5slice4sort6shared9smallsort25insertion_sort_shift_left17h677848d84e66ea2aE, symObjAddr: 0x6634, symBinAddr: 0x100024C70, symSize: 0xA8 }
  - { offset: 0x5BCC3, size: 0x8, addend: 0x0, symName: __ZN4core5slice4sort6shared9smallsort25insertion_sort_shift_left17h753c2c33d7211ceaE, symObjAddr: 0x66DC, symBinAddr: 0x100024D18, symSize: 0xBC }
  - { offset: 0x5BD66, size: 0x8, addend: 0x0, symName: __ZN4core5slice4sort6shared9smallsort25insertion_sort_shift_left17hceef73df05978c22E, symObjAddr: 0x6798, symBinAddr: 0x100024DD4, symSize: 0x90 }
  - { offset: 0x5BE09, size: 0x8, addend: 0x0, symName: __ZN4core5slice4sort6shared9smallsort25insertion_sort_shift_left17hfb494d5f79707c02E, symObjAddr: 0x6828, symBinAddr: 0x100024E64, symSize: 0xAC }
  - { offset: 0x5C0F9, size: 0x8, addend: 0x0, symName: __ZN4core5slice4sort6stable14driftsort_main17h103ff636fd5ab89dE, symObjAddr: 0x68D4, symBinAddr: 0x100024F10, symSize: 0x148 }
  - { offset: 0x5C39C, size: 0x8, addend: 0x0, symName: __ZN4core5slice4sort6stable14driftsort_main17h1e88dc2727ad5c37E, symObjAddr: 0x6A1C, symBinAddr: 0x100025058, symSize: 0x16C }
  - { offset: 0x5C695, size: 0x8, addend: 0x0, symName: __ZN4core5slice4sort6stable14driftsort_main17h54d923433181cd8aE, symObjAddr: 0x6B88, symBinAddr: 0x1000251C4, symSize: 0x16C }
  - { offset: 0x5C98E, size: 0x8, addend: 0x0, symName: __ZN4core5slice4sort6stable14driftsort_main17h76405073938de01eE, symObjAddr: 0x6CF4, symBinAddr: 0x100025330, symSize: 0x148 }
  - { offset: 0x5CC31, size: 0x8, addend: 0x0, symName: __ZN4core5slice4sort6stable14driftsort_main17h9cb82a8482cd4f53E, symObjAddr: 0x6E3C, symBinAddr: 0x100025478, symSize: 0x148 }
  - { offset: 0x5CED4, size: 0x8, addend: 0x0, symName: __ZN4core5slice4sort6stable14driftsort_main17hf9ea8a01734384bdE, symObjAddr: 0x6F84, symBinAddr: 0x1000255C0, symSize: 0x148 }
  - { offset: 0x5D2E6, size: 0x8, addend: 0x0, symName: __ZN4core5slice4sort6stable5drift4sort17h00ab1c6180ac4055E, symObjAddr: 0x70CC, symBinAddr: 0x100025708, symSize: 0x4E0 }
  - { offset: 0x5D91B, size: 0x8, addend: 0x0, symName: __ZN4core5slice4sort6stable5drift4sort17h0aa4aacce1cc6d7cE, symObjAddr: 0x75AC, symBinAddr: 0x100025BE8, symSize: 0x5E8 }
  - { offset: 0x5DFA3, size: 0x8, addend: 0x0, symName: __ZN4core5slice4sort6stable5drift4sort17h343dbae25f37733bE, symObjAddr: 0x7B94, symBinAddr: 0x1000261D0, symSize: 0x538 }
  - { offset: 0x5E676, size: 0x8, addend: 0x0, symName: __ZN4core5slice4sort6stable5drift4sort17h4258b1bc2caa3ec0E, symObjAddr: 0x80CC, symBinAddr: 0x100026708, symSize: 0x6F0 }
  - { offset: 0x5ED4C, size: 0x8, addend: 0x0, symName: __ZN4core5slice4sort6stable5drift4sort17h9cf8228521243839E, symObjAddr: 0x87BC, symBinAddr: 0x100026DF8, symSize: 0x5E8 }
  - { offset: 0x5F3D4, size: 0x8, addend: 0x0, symName: __ZN4core5slice4sort6stable5drift4sort17he5c0348fca8b4ee7E, symObjAddr: 0x8DA4, symBinAddr: 0x1000273E0, symSize: 0x63C }
  - { offset: 0x5FC4C, size: 0x8, addend: 0x0, symName: __ZN4core5slice4sort6stable9quicksort9quicksort17h115e1a8136b6fa84E, symObjAddr: 0x93E0, symBinAddr: 0x100027A1C, symSize: 0x820 }
  - { offset: 0x60819, size: 0x8, addend: 0x0, symName: __ZN4core5slice4sort6stable9quicksort9quicksort17h270cbea95e7bc0c9E, symObjAddr: 0x9C00, symBinAddr: 0x10002823C, symSize: 0x73C }
  - { offset: 0x60F3A, size: 0x8, addend: 0x0, symName: __ZN4core5slice4sort6stable9quicksort9quicksort17h3e7b305b5c7976baE, symObjAddr: 0xA33C, symBinAddr: 0x100028978, symSize: 0x6C8 }
  - { offset: 0x619C7, size: 0x8, addend: 0x0, symName: __ZN4core5slice4sort6stable9quicksort9quicksort17hc1d95435bd0f54c5E, symObjAddr: 0xAA04, symBinAddr: 0x100029040, symSize: 0x828 }
  - { offset: 0x62A88, size: 0x8, addend: 0x0, symName: __ZN4core5slice4sort6stable9quicksort9quicksort17hcf4fb219382f768bE, symObjAddr: 0xB22C, symBinAddr: 0x100029868, symSize: 0x7FC }
  - { offset: 0x63655, size: 0x8, addend: 0x0, symName: __ZN4core5slice4sort6stable9quicksort9quicksort17hfd59b4f11a472dd5E, symObjAddr: 0xBA28, symBinAddr: 0x10002A064, symSize: 0x6D0 }
  - { offset: 0x6411D, size: 0x8, addend: 0x0, symName: __ZN4core5slice4sort8unstable7ipnsort17h519db9bb88c7d2c0E, symObjAddr: 0xC0F8, symBinAddr: 0x10002A734, symSize: 0x1E4 }
  - { offset: 0x64234, size: 0x8, addend: 0x0, symName: __ZN4core5slice4sort8unstable7ipnsort17hc49a474c49f61d9aE, symObjAddr: 0xC2DC, symBinAddr: 0x10002A918, symSize: 0x290 }
  - { offset: 0x644DD, size: 0x8, addend: 0x0, symName: __ZN4core5slice4sort8unstable8heapsort8heapsort17h6b7b52018c9f5da0E, symObjAddr: 0xC56C, symBinAddr: 0x10002ABA8, symSize: 0x10C }
  - { offset: 0x646E4, size: 0x8, addend: 0x0, symName: __ZN4core5slice4sort8unstable8heapsort8heapsort17h719a9553e129d672E, symObjAddr: 0xC678, symBinAddr: 0x10002ACB4, symSize: 0x160 }
  - { offset: 0x64A82, size: 0x8, addend: 0x0, symName: __ZN4core5slice4sort8unstable9quicksort9quicksort17h96e7db41672c501eE, symObjAddr: 0xC7D8, symBinAddr: 0x10002AE14, symSize: 0x448 }
  - { offset: 0x65338, size: 0x8, addend: 0x0, symName: __ZN4core5slice4sort8unstable9quicksort9quicksort17ha039472c97b018d8E, symObjAddr: 0xCC20, symBinAddr: 0x10002B25C, symSize: 0x5BC }
  - { offset: 0x6603D, size: 0x8, addend: 0x0, symName: '__ZN36_$LT$T$u20$as$u20$core..any..Any$GT$7type_id17h225d92188c8db6c3E', symObjAddr: 0x13C, symBinAddr: 0x100020BB0, symSize: 0x30 }
  - { offset: 0x66057, size: 0x8, addend: 0x0, symName: '__ZN36_$LT$T$u20$as$u20$core..any..Any$GT$7type_id17h22a55d7ebb819ea6E', symObjAddr: 0x16C, symBinAddr: 0x100020BE0, symSize: 0x30 }
  - { offset: 0x660C5, size: 0x8, addend: 0x0, symName: '__ZN42_$LT$$RF$T$u20$as$u20$core..fmt..Debug$GT$3fmt17h229631da8bdd67acE', symObjAddr: 0x464, symBinAddr: 0x100020C10, symSize: 0x1C }
  - { offset: 0x660D9, size: 0x8, addend: 0x0, symName: '__ZN42_$LT$$RF$T$u20$as$u20$core..fmt..Debug$GT$3fmt17h45300256e973f494E', symObjAddr: 0x4F8, symBinAddr: 0x100020C2C, symSize: 0x30 }
  - { offset: 0x6611F, size: 0x8, addend: 0x0, symName: '__ZN42_$LT$$RF$T$u20$as$u20$core..fmt..Debug$GT$3fmt17h6cf282856d53ef8fE', symObjAddr: 0x66C, symBinAddr: 0x100020C5C, symSize: 0x74 }
  - { offset: 0x66261, size: 0x8, addend: 0x0, symName: '__ZN42_$LT$$RF$T$u20$as$u20$core..fmt..Debug$GT$3fmt17h832369a0cde054d2E', symObjAddr: 0x77C, symBinAddr: 0x100020CD0, symSize: 0x30 }
  - { offset: 0x662A7, size: 0x8, addend: 0x0, symName: '__ZN42_$LT$$RF$T$u20$as$u20$core..fmt..Debug$GT$3fmt17h99ba184c1a5db1eaE', symObjAddr: 0x91C, symBinAddr: 0x100020D00, symSize: 0x1C }
  - { offset: 0x6634F, size: 0x8, addend: 0x0, symName: '__ZN4core3fmt3num50_$LT$impl$u20$core..fmt..Debug$u20$for$u20$i32$GT$3fmt17h15c50277390862aeE', symObjAddr: 0xCF0, symBinAddr: 0x100020DA0, symSize: 0x2C }
  - { offset: 0x6637E, size: 0x8, addend: 0x0, symName: '__ZN4core3fmt3num52_$LT$impl$u20$core..fmt..Debug$u20$for$u20$usize$GT$3fmt17h6def11b803266407E', symObjAddr: 0xDA0, symBinAddr: 0x100020DCC, symSize: 0x2C }
  - { offset: 0x663E9, size: 0x8, addend: 0x0, symName: '__ZN44_$LT$$RF$T$u20$as$u20$core..fmt..Display$GT$3fmt17h3bfca5eae23b0d69E', symObjAddr: 0xC20, symBinAddr: 0x100020D1C, symSize: 0x1C }
  - { offset: 0x66404, size: 0x8, addend: 0x0, symName: '__ZN44_$LT$$RF$T$u20$as$u20$core..fmt..Display$GT$3fmt17ha43e2829162aef39E', symObjAddr: 0xC3C, symBinAddr: 0x100020D38, symSize: 0x68 }
  - { offset: 0x66817, size: 0x8, addend: 0x0, symName: __ZN4core3fmt5Write10write_char17h2bd2da6422df0c04E, symObjAddr: 0xDCC, symBinAddr: 0x100020DF8, symSize: 0x128 }
  - { offset: 0x669AF, size: 0x8, addend: 0x0, symName: __ZN4core3fmt5Write10write_char17h375232e784da95c3E, symObjAddr: 0xEF4, symBinAddr: 0x100020F20, symSize: 0x174 }
  - { offset: 0x66BB1, size: 0x8, addend: 0x0, symName: __ZN4core3fmt5Write10write_char17h5fd94b4a6a085facE, symObjAddr: 0x11E8, symBinAddr: 0x100021094, symSize: 0x140 }
  - { offset: 0x66C17, size: 0x8, addend: 0x0, symName: __ZN4core3fmt5Write10write_char17h7453f2c039370a9dE, symObjAddr: 0x1328, symBinAddr: 0x1000211D4, symSize: 0x180 }
  - { offset: 0x66E03, size: 0x8, addend: 0x0, symName: __ZN4core3fmt5Write9write_fmt17h2a0fceba8367f855E, symObjAddr: 0x1620, symBinAddr: 0x100021354, symSize: 0x1C }
  - { offset: 0x66E32, size: 0x8, addend: 0x0, symName: __ZN4core3fmt5Write9write_fmt17h7b0eee5bb9fc5859E, symObjAddr: 0x163C, symBinAddr: 0x100021370, symSize: 0x1C }
  - { offset: 0x66E61, size: 0x8, addend: 0x0, symName: __ZN4core3fmt5Write9write_fmt17hb212afec46fd02ecE, symObjAddr: 0x1658, symBinAddr: 0x10002138C, symSize: 0x1C }
  - { offset: 0x66E90, size: 0x8, addend: 0x0, symName: __ZN4core3fmt5Write9write_fmt17hbad323a678cb2207E, symObjAddr: 0x1674, symBinAddr: 0x1000213A8, symSize: 0x1C }
  - { offset: 0x66EBF, size: 0x8, addend: 0x0, symName: __ZN4core3fmt5Write9write_fmt17he153d8ed26875afeE, symObjAddr: 0x1690, symBinAddr: 0x1000213C4, symSize: 0x1C }
  - { offset: 0x66F1C, size: 0x8, addend: 0x0, symName: '__ZN50_$LT$$BP$mut$u20$T$u20$as$u20$core..fmt..Debug$GT$3fmt17he39465caf33bcc4eE', symObjAddr: 0xD258, symBinAddr: 0x10002B818, symSize: 0x14 }
  - { offset: 0x66F69, size: 0x8, addend: 0x0, symName: '__ZN52_$LT$$RF$mut$u20$T$u20$as$u20$core..fmt..Display$GT$3fmt17hc6db9c4561bb0640E', symObjAddr: 0xD2E0, symBinAddr: 0x10002B82C, symSize: 0x1C }
  - { offset: 0x679C9, size: 0x8, addend: 0x0, symName: '__ZN55_$LT$$RF$str$u20$as$u20$core..str..pattern..Pattern$GT$15is_contained_in17h07538af93eae73f4E', symObjAddr: 0xD2FC, symBinAddr: 0x10002B848, symSize: 0x3BC }
  - { offset: 0x67DE8, size: 0x8, addend: 0x0, symName: __ZN4core5panic12PanicPayload6as_str17h5cdc46f655586ed2E, symObjAddr: 0x4D7C, symBinAddr: 0x1000233B8, symSize: 0x14 }
  - { offset: 0x68D63, size: 0x8, addend: 0x0, symName: '__ZN4core3ops8function6FnOnce40call_once$u7b$$u7b$vtable.shim$u7d$$u7d$17h372dd670162a11a3E', symObjAddr: 0x1714, symBinAddr: 0x1000213E0, symSize: 0x18 }
  - { offset: 0x68DB4, size: 0x8, addend: 0x0, symName: '__ZN4core3ops8function6FnOnce40call_once$u7b$$u7b$vtable.shim$u7d$$u7d$17h49be7b3161c92e51E', symObjAddr: 0x172C, symBinAddr: 0x1000213F8, symSize: 0x28 }
  - { offset: 0x68DF0, size: 0x8, addend: 0x0, symName: '__ZN4core3ops8function6FnOnce40call_once$u7b$$u7b$vtable.shim$u7d$$u7d$17h4dbfbb5401248555E', symObjAddr: 0x1754, symBinAddr: 0x100021420, symSize: 0xA4 }
  - { offset: 0x68F36, size: 0x8, addend: 0x0, symName: '__ZN4core3ops8function6FnOnce40call_once$u7b$$u7b$vtable.shim$u7d$$u7d$17h59664865ad50834bE', symObjAddr: 0x17F8, symBinAddr: 0x1000214C4, symSize: 0x10 }
  - { offset: 0x68F72, size: 0x8, addend: 0x0, symName: '__ZN4core3ops8function6FnOnce40call_once$u7b$$u7b$vtable.shim$u7d$$u7d$17h5dd18c650d3d28d5E', symObjAddr: 0x18B8, symBinAddr: 0x1000214D4, symSize: 0x80 }
  - { offset: 0x69107, size: 0x8, addend: 0x0, symName: '__ZN4core3ops8function6FnOnce40call_once$u7b$$u7b$vtable.shim$u7d$$u7d$17hb8f0a3a311886dd1E', symObjAddr: 0x194C, symBinAddr: 0x100021554, symSize: 0x18 }
  - { offset: 0x69158, size: 0x8, addend: 0x0, symName: '__ZN4core3ops8function6FnOnce40call_once$u7b$$u7b$vtable.shim$u7d$$u7d$17hc37bdb1ed22c5dd7E', symObjAddr: 0x19E0, symBinAddr: 0x10002156C, symSize: 0x10 }
  - { offset: 0x69194, size: 0x8, addend: 0x0, symName: '__ZN4core3ops8function6FnOnce40call_once$u7b$$u7b$vtable.shim$u7d$$u7d$17heb56308df1374649E', symObjAddr: 0x19F0, symBinAddr: 0x10002157C, symSize: 0x60 }
  - { offset: 0x69296, size: 0x8, addend: 0x0, symName: __ZN4core3ops8function6FnOnce9call_once17he5d2535e31b739dcE, symObjAddr: 0x1A78, symBinAddr: 0x1000215DC, symSize: 0x44 }
  - { offset: 0x6B7BE, size: 0x8, addend: 0x0, symName: '__ZN4core4cell4once17OnceCell$LT$T$GT$8try_init17he4193c4098c349bdE', symObjAddr: 0x4A84, symBinAddr: 0x100056610, symSize: 0x154 }
  - { offset: 0x6BCA0, size: 0x8, addend: 0x0, symName: __ZN4core9panicking13assert_failed17he664f25a4eeebf5cE, symObjAddr: 0xD234, symBinAddr: 0x100056764, symSize: 0x24 }
  - { offset: 0x6C075, size: 0x8, addend: 0x0, symName: __ZN3std9panicking11panic_count8increase17h1d24b79d4790a8a8E, symObjAddr: 0x3A9E8, symBinAddr: 0x10003F09C, symSize: 0x80 }
  - { offset: 0x6C16C, size: 0x8, addend: 0x0, symName: __ZN3std9panicking11panic_count17is_zero_slow_path17hbb753c2ecca816a8E, symObjAddr: 0x3AB00, symBinAddr: 0x100056FAC, symSize: 0x2C }
  - { offset: 0x6C2A2, size: 0x8, addend: 0x0, symName: ___rust_drop_panic, symObjAddr: 0x39FEC, symBinAddr: 0x10003E914, symSize: 0xB8 }
  - { offset: 0x6C494, size: 0x8, addend: 0x0, symName: ___rust_foreign_exception, symObjAddr: 0x3A0A4, symBinAddr: 0x10003E9CC, symSize: 0xB8 }
  - { offset: 0x6C686, size: 0x8, addend: 0x0, symName: __ZN3std9panicking12default_hook17ha0b223ccc4379930E, symObjAddr: 0x3A3D0, symBinAddr: 0x10003EA84, symSize: 0x1EC }
  - { offset: 0x6C927, size: 0x8, addend: 0x0, symName: '__ZN3std9panicking12default_hook28_$u7b$$u7b$closure$u7d$$u7d$17h5c3a234feebd11a5E', symObjAddr: 0x3A5BC, symBinAddr: 0x10003EC70, symSize: 0x1A8 }
  - { offset: 0x6CB0B, size: 0x8, addend: 0x0, symName: '__ZN3std9panicking12default_hook28_$u7b$$u7b$closure$u7d$$u7d$28_$u7b$$u7b$closure$u7d$$u7d$17h2cb359aea37a8eccE', symObjAddr: 0x3A764, symBinAddr: 0x10003EE18, symSize: 0x284 }
  - { offset: 0x6CF81, size: 0x8, addend: 0x0, symName: _rust_begin_unwind, symObjAddr: 0x3AB80, symBinAddr: 0x10003F11C, symSize: 0x20 }
  - { offset: 0x6CFEA, size: 0x8, addend: 0x0, symName: '__ZN102_$LT$std..panicking..begin_panic_handler..FormatStringPayload$u20$as$u20$core..panic..PanicPayload$GT$8take_box17hf9936339f9bb3e6eE', symObjAddr: 0x3ABA0, symBinAddr: 0x10003F13C, symSize: 0x110 }
  - { offset: 0x6D27E, size: 0x8, addend: 0x0, symName: '__ZN102_$LT$std..panicking..begin_panic_handler..FormatStringPayload$u20$as$u20$core..panic..PanicPayload$GT$3get17h671f5c789103ccc6E', symObjAddr: 0x3ACB0, symBinAddr: 0x10003F24C, symSize: 0xB0 }
  - { offset: 0x6D3B7, size: 0x8, addend: 0x0, symName: '__ZN95_$LT$std..panicking..begin_panic_handler..FormatStringPayload$u20$as$u20$core..fmt..Display$GT$3fmt17h1a7e141a9fd2e841E', symObjAddr: 0x3AD60, symBinAddr: 0x10003F2FC, symSize: 0x5C }
  - { offset: 0x6D4B4, size: 0x8, addend: 0x0, symName: '__ZN99_$LT$std..panicking..begin_panic_handler..StaticStrPayload$u20$as$u20$core..panic..PanicPayload$GT$8take_box17hfde794f38dfdff84E', symObjAddr: 0x3ADBC, symBinAddr: 0x10003F358, symSize: 0x50 }
  - { offset: 0x6D52B, size: 0x8, addend: 0x0, symName: '__ZN99_$LT$std..panicking..begin_panic_handler..StaticStrPayload$u20$as$u20$core..panic..PanicPayload$GT$3get17h40c5dcbca42c5d43E', symObjAddr: 0x3AE0C, symBinAddr: 0x10003F3A8, symSize: 0x18 }
  - { offset: 0x6D546, size: 0x8, addend: 0x0, symName: '__ZN99_$LT$std..panicking..begin_panic_handler..StaticStrPayload$u20$as$u20$core..panic..PanicPayload$GT$6as_str17h36252a21ddc56c9bE', symObjAddr: 0x3AE24, symBinAddr: 0x10003F3C0, symSize: 0x18 }
  - { offset: 0x6D567, size: 0x8, addend: 0x0, symName: '__ZN92_$LT$std..panicking..begin_panic_handler..StaticStrPayload$u20$as$u20$core..fmt..Display$GT$3fmt17hd84ef799566d4562E', symObjAddr: 0x3AE3C, symBinAddr: 0x10003F3D8, symSize: 0x1C }
  - { offset: 0x6D583, size: 0x8, addend: 0x0, symName: '__ZN3std9panicking19begin_panic_handler28_$u7b$$u7b$closure$u7d$$u7d$17hcc8f653f753c0254E', symObjAddr: 0x3AE58, symBinAddr: 0x10003F3F4, symSize: 0xC4 }
  - { offset: 0x6D6EB, size: 0x8, addend: 0x0, symName: __ZN3std9panicking14payload_as_str17h326c21158c3ccbd7E, symObjAddr: 0x3B008, symBinAddr: 0x10003F4B8, symSize: 0xB0 }
  - { offset: 0x6D7CF, size: 0x8, addend: 0x0, symName: __ZN3std9panicking20rust_panic_with_hook17h203f96c93e7ac62dE, symObjAddr: 0x3B0B8, symBinAddr: 0x10003F568, symSize: 0x3F8 }
  - { offset: 0x6DFE2, size: 0x8, addend: 0x0, symName: _rust_panic, symObjAddr: 0x3B5E4, symBinAddr: 0x10003F960, symSize: 0x60 }
  - { offset: 0x6E023, size: 0x8, addend: 0x0, symName: __ZN3std7process5abort17h5bdab09773b2c592E, symObjAddr: 0x35D9C, symBinAddr: 0x100056BDC, symSize: 0xC }
  - { offset: 0x6E0BF, size: 0x8, addend: 0x0, symName: __ZN3std4path4Path13_strip_prefix17h55294dff41b26308E, symObjAddr: 0x33B38, symBinAddr: 0x10003D5F8, symSize: 0x21C }
  - { offset: 0x6E1FF, size: 0x8, addend: 0x0, symName: __ZN3std4path4Path5_join17h516bc57fe1e4225dE, symObjAddr: 0x34358, symBinAddr: 0x10003D814, symSize: 0x1AC }
  - { offset: 0x6E7B5, size: 0x8, addend: 0x0, symName: __ZN3std4path10Components15len_before_body17ha7ee2271a8a6c6d9E, symObjAddr: 0x31DBC, symBinAddr: 0x10003C788, symSize: 0x188 }
  - { offset: 0x6E7CC, size: 0x8, addend: 0x0, symName: __ZN3std4path10Components15len_before_body17ha7ee2271a8a6c6d9E, symObjAddr: 0x31DBC, symBinAddr: 0x10003C788, symSize: 0x188 }
  - { offset: 0x6E7E1, size: 0x8, addend: 0x0, symName: __ZN3std4path10Components15len_before_body17ha7ee2271a8a6c6d9E, symObjAddr: 0x31DBC, symBinAddr: 0x10003C788, symSize: 0x188 }
  - { offset: 0x6E9C3, size: 0x8, addend: 0x0, symName: __ZN3std4path10Components7as_path17h6e25608fa8cb9557E, symObjAddr: 0x31F44, symBinAddr: 0x10003C910, symSize: 0x530 }
  - { offset: 0x6EE96, size: 0x8, addend: 0x0, symName: __ZN3std4path10Components25parse_next_component_back17h5239b6f3b65d70c8E, symObjAddr: 0x32474, symBinAddr: 0x10003CE40, symSize: 0x120 }
  - { offset: 0x6F0A1, size: 0x8, addend: 0x0, symName: '__ZN80_$LT$std..path..Components$u20$as$u20$core..iter..traits..iterator..Iterator$GT$4next17h6e8b0f281526c929E', symObjAddr: 0x3272C, symBinAddr: 0x10003CF60, symSize: 0x340 }
  - { offset: 0x6F3F0, size: 0x8, addend: 0x0, symName: '__ZN95_$LT$std..path..Components$u20$as$u20$core..iter..traits..double_ended..DoubleEndedIterator$GT$9next_back17h15500b5b5dde7decE', symObjAddr: 0x32A6C, symBinAddr: 0x10003D2A0, symSize: 0x330 }
  - { offset: 0x6F572, size: 0x8, addend: 0x0, symName: '__ZN55_$LT$std..path..PathBuf$u20$as$u20$core..fmt..Debug$GT$3fmt17h05c96f503b3c5842E', symObjAddr: 0x339FC, symBinAddr: 0x10003D5D0, symSize: 0x28 }
  - { offset: 0x6F6FE, size: 0x8, addend: 0x0, symName: '__ZN57_$LT$std..path..Display$u20$as$u20$core..fmt..Display$GT$3fmt17h170d9e8eccce82d1E', symObjAddr: 0x34DEC, symBinAddr: 0x10003D9C0, symSize: 0x1C }
  - { offset: 0x6F763, size: 0x8, addend: 0x0, symName: '__ZN61_$LT$std..path..Component$u20$as$u20$core..cmp..PartialEq$GT$2eq17h238f4f8a8cc29bb2E', symObjAddr: 0x3C0CC, symBinAddr: 0x1000400A8, symSize: 0x138 }
  - { offset: 0x6F93B, size: 0x8, addend: 0x0, symName: __ZN3std3sys3pal4unix2fs4File6open_c17h0a400570de534b0aE, symObjAddr: 0x3D220, symBinAddr: 0x1000403E4, symSize: 0x1B0 }
  - { offset: 0x6FAA4, size: 0x8, addend: 0x0, symName: '__ZN91_$LT$std..sys..pal..unix..fs..ReadDir$u20$as$u20$core..iter..traits..iterator..Iterator$GT$4next17he1b3299a727d70eaE', symObjAddr: 0x3CD90, symBinAddr: 0x1000401E0, symSize: 0x138 }
  - { offset: 0x6FD4B, size: 0x8, addend: 0x0, symName: '__ZN70_$LT$std..sys..pal..unix..fs..Dir$u20$as$u20$core..ops..drop..Drop$GT$4drop17h2f7cbb54b209bd1fE', symObjAddr: 0x3CEC8, symBinAddr: 0x100040318, symSize: 0xCC }
  - { offset: 0x6FE3E, size: 0x8, addend: 0x0, symName: __ZN3std3sys3pal4unix2fs7readdir17h52c204b360126013E, symObjAddr: 0x3DAF4, symBinAddr: 0x100040594, symSize: 0x1A4 }
  - { offset: 0x70154, size: 0x8, addend: 0x0, symName: __ZN3std3sys3pal4unix2os5errno17h1e687568046dfc01E, symObjAddr: 0x3FC68, symBinAddr: 0x100040738, symSize: 0x18 }
  - { offset: 0x70168, size: 0x8, addend: 0x0, symName: __ZN3std3sys3pal4unix2os13env_read_lock17h1370e80127ab09adE, symObjAddr: 0x400EC, symBinAddr: 0x100040750, symSize: 0x2EC }
  - { offset: 0x70818, size: 0x8, addend: 0x0, symName: '__ZN3std3sys3pal4unix2os6getenv28_$u7b$$u7b$closure$u7d$$u7d$17h09d09dd30efbeda3E', symObjAddr: 0x403D8, symBinAddr: 0x100040A3C, symSize: 0x150 }
  - { offset: 0x70A5B, size: 0x8, addend: 0x0, symName: '__ZN69_$LT$std..sys..pal..unix..stdio..Stderr$u20$as$u20$std..io..Write$GT$5write17hf7eb28e2e3a5bd7dE', symObjAddr: 0x43178, symBinAddr: 0x100040F1C, symSize: 0x4C }
  - { offset: 0x70B1C, size: 0x8, addend: 0x0, symName: '__ZN69_$LT$std..sys..pal..unix..stdio..Stderr$u20$as$u20$std..io..Write$GT$14write_vectored17h6899437ee14ad0e1E', symObjAddr: 0x431C4, symBinAddr: 0x100040F68, symSize: 0x4C }
  - { offset: 0x70BDD, size: 0x8, addend: 0x0, symName: '__ZN69_$LT$std..sys..pal..unix..stdio..Stderr$u20$as$u20$std..io..Write$GT$17is_write_vectored17h9b2366713f7e1db9E', symObjAddr: 0x43210, symBinAddr: 0x100040FB4, symSize: 0x14 }
  - { offset: 0x70BF7, size: 0x8, addend: 0x0, symName: '__ZN69_$LT$std..sys..pal..unix..stdio..Stderr$u20$as$u20$std..io..Write$GT$5flush17hd9b43cd37b405524E', symObjAddr: 0x43224, symBinAddr: 0x100040FC8, symSize: 0x14 }
  - { offset: 0x70C69, size: 0x8, addend: 0x0, symName: __ZN3std3sys3pal4unix4sync5mutex5Mutex4init17hdf1c4f248d85eb16E, symObjAddr: 0x43238, symBinAddr: 0x100040FDC, symSize: 0x16C }
  - { offset: 0x70D20, size: 0x8, addend: 0x0, symName: __ZN3std3sys3pal4unix4sync5mutex5Mutex4lock4fail17h6819c36a4f036f8cE, symObjAddr: 0x433C0, symBinAddr: 0x100056FD8, symSize: 0xDC }
  - { offset: 0x70FE0, size: 0x8, addend: 0x0, symName: __ZN3std3sys3pal4unix14stack_overflow3imp14signal_handler17h2fa8e10590380ab0E, symObjAddr: 0x42C40, symBinAddr: 0x100040B8C, symSize: 0xB0 }
  - { offset: 0x71091, size: 0x8, addend: 0x0, symName: '__ZN3std3sys3pal4unix14stack_overflow3imp14signal_handler28_$u7b$$u7b$closure$u7d$$u7d$17h58562be330c5529fE', symObjAddr: 0x42CF0, symBinAddr: 0x100040C3C, symSize: 0x100 }
  - { offset: 0x712B7, size: 0x8, addend: 0x0, symName: __ZN3std3sys3pal4unix14stack_overflow3imp12make_handler17ha0e2e74c0ff811adE, symObjAddr: 0x42DF0, symBinAddr: 0x100040D3C, symSize: 0x1E0 }
  - { offset: 0x71659, size: 0x8, addend: 0x0, symName: __ZN3std3sys3pal4unix17decode_error_kind17h7a8628d240588c97E, symObjAddr: 0x43C48, symBinAddr: 0x100041148, symSize: 0x30 }
  - { offset: 0x71673, size: 0x8, addend: 0x0, symName: __ZN3std3sys3pal4unix14abort_internal17h1f437a045e84c0acE, symObjAddr: 0x43C78, symBinAddr: 0x100041178, symSize: 0xC }
  - { offset: 0x716DA, size: 0x8, addend: 0x0, symName: __ZN3std3sys3pal6common14small_c_string24run_with_cstr_allocating17h0222687f57b5b8d8E, symObjAddr: 0x378C4, symBinAddr: 0x100056CB4, symSize: 0xAC }
  - { offset: 0x71836, size: 0x8, addend: 0x0, symName: __ZN3std3sys3pal6common14small_c_string24run_with_cstr_allocating17h89545bf18b96ebe8E, symObjAddr: 0x37BC8, symBinAddr: 0x100056D60, symSize: 0x9C }
  - { offset: 0x719A5, size: 0x8, addend: 0x0, symName: __ZN3std3sys3pal6common14small_c_string24run_with_cstr_allocating17hf540475ca51d3e7bE, symObjAddr: 0x37DE8, symBinAddr: 0x100056DFC, symSize: 0xC4 }
  - { offset: 0x71C30, size: 0x8, addend: 0x0, symName: '__ZN69_$LT$std..sys..os_str..bytes..Slice$u20$as$u20$core..fmt..Display$GT$3fmt17h9ac75767c8ed01b2E', symObjAddr: 0x466F4, symBinAddr: 0x10004151C, symSize: 0xA0 }
  - { offset: 0x71CA1, size: 0x8, addend: 0x0, symName: '__ZN3std3sys11personality3gcc14find_eh_action28_$u7b$$u7b$closure$u7d$$u7d$17heb526fe46b317879E', symObjAddr: 0x44DB8, symBinAddr: 0x100041184, symSize: 0x18 }
  - { offset: 0x71CB5, size: 0x8, addend: 0x0, symName: '__ZN3std3sys11personality3gcc14find_eh_action28_$u7b$$u7b$closure$u7d$$u7d$17hdfacf1f5ab590eb6E', symObjAddr: 0x44DD0, symBinAddr: 0x10004119C, symSize: 0x18 }
  - { offset: 0x71CE5, size: 0x8, addend: 0x0, symName: _rust_eh_personality, symObjAddr: 0x44DE8, symBinAddr: 0x1000411B4, symSize: 0x368 }
  - { offset: 0x7201A, size: 0x8, addend: 0x0, symName: __ZN3std3sys11personality5dwarf2eh19read_encoded_offset17he9cb5faabb9c188bE, symObjAddr: 0x3801C, symBinAddr: 0x10003DD18, symSize: 0x150 }
  - { offset: 0x7217D, size: 0x8, addend: 0x0, symName: '__ZN3std3sys9backtrace10_print_fmt28_$u7b$$u7b$closure$u7d$$u7d$17h1863ed5b66499a89E', symObjAddr: 0x38458, symBinAddr: 0x10003E154, symSize: 0x30 }
  - { offset: 0x721A6, size: 0x8, addend: 0x0, symName: '__ZN3std3sys9backtrace10_print_fmt28_$u7b$$u7b$closure$u7d$$u7d$17h49125cd88324db11E', symObjAddr: 0x38488, symBinAddr: 0x10003E184, symSize: 0x134 }
  - { offset: 0x722BA, size: 0x8, addend: 0x0, symName: '__ZN3std3sys9backtrace10_print_fmt28_$u7b$$u7b$closure$u7d$$u7d$28_$u7b$$u7b$closure$u7d$$u7d$17heb5be01c54158345E', symObjAddr: 0x385BC, symBinAddr: 0x10003E2B8, symSize: 0x25C }
  - { offset: 0x724F6, size: 0x8, addend: 0x0, symName: __ZN3std3sys9backtrace4lock17h6e02177f0f3558baE, symObjAddr: 0x3816C, symBinAddr: 0x10003DE68, symSize: 0x70 }
  - { offset: 0x7263F, size: 0x8, addend: 0x0, symName: __ZN3std3sys9backtrace13BacktraceLock5print17h115149c0b879e5c3E, symObjAddr: 0x381DC, symBinAddr: 0x10003DED8, symSize: 0x54 }
  - { offset: 0x7268C, size: 0x8, addend: 0x0, symName: '__ZN98_$LT$std..sys..backtrace..BacktraceLock..print..DisplayBacktrace$u20$as$u20$core..fmt..Display$GT$3fmt17h217270392019d164E', symObjAddr: 0x38230, symBinAddr: 0x10003DF2C, symSize: 0x228 }
  - { offset: 0x72C0E, size: 0x8, addend: 0x0, symName: __ZN3std3sys9backtrace26__rust_end_short_backtrace17h911de07218b69a6cE, symObjAddr: 0x38818, symBinAddr: 0x10003E514, symSize: 0xC }
  - { offset: 0x72C28, size: 0x8, addend: 0x0, symName: __ZN3std3sys9backtrace15output_filename17h988a0b5399b264d6E, symObjAddr: 0x38830, symBinAddr: 0x10003E520, symSize: 0xFC }
  - { offset: 0x72DEC, size: 0x8, addend: 0x0, symName: '__ZN3std3sys4sync8once_box16OnceBox$LT$T$GT$10initialize17h482967fb77aa636aE', symObjAddr: 0x3899C, symBinAddr: 0x100056EC0, symSize: 0xEC }
  - { offset: 0x730D5, size: 0x8, addend: 0x0, symName: __ZN3std3sys4sync6rwlock5queue6RwLock21read_unlock_contended17ha1da939695eb68a4E, symObjAddr: 0x479D0, symBinAddr: 0x100057214, symSize: 0x50 }
  - { offset: 0x73245, size: 0x8, addend: 0x0, symName: __ZN3std3sys4sync6rwlock5queue6RwLock16unlock_contended17hb1bda0f6c9583d94E, symObjAddr: 0x47A20, symBinAddr: 0x100057264, symSize: 0x50 }
  - { offset: 0x73321, size: 0x8, addend: 0x0, symName: __ZN3std3sys4sync6rwlock5queue6RwLock12unlock_queue17h1e38a16940d3a0e6E, symObjAddr: 0x47B84, symBinAddr: 0x100041868, symSize: 0x1D8 }
  - { offset: 0x73A6E, size: 0x8, addend: 0x0, symName: __ZN3std3sys4sync6rwlock5queue9read_lock17h02feed94edb2ee18E, symObjAddr: 0x47710, symBinAddr: 0x10004183C, symSize: 0x2C }
  - { offset: 0x73B49, size: 0x8, addend: 0x0, symName: __ZN3std3sys4sync4once5queue4Once4call17hc1cbcad9bb87275cE, symObjAddr: 0x47310, symBinAddr: 0x1000570B4, symSize: 0x160 }
  - { offset: 0x73C71, size: 0x8, addend: 0x0, symName: __ZN3std3sys4sync4once5queue4wait17h58ee39f231bfccb9E, symObjAddr: 0x47470, symBinAddr: 0x1000415BC, symSize: 0x198 }
  - { offset: 0x741ED, size: 0x8, addend: 0x0, symName: '__ZN82_$LT$std..sys..sync..once..queue..WaiterQueue$u20$as$u20$core..ops..drop..Drop$GT$4drop17h45f863b67fd27f71E', symObjAddr: 0x47608, symBinAddr: 0x100041754, symSize: 0xE8 }
  - { offset: 0x7444B, size: 0x8, addend: 0x0, symName: '__ZN3std3sys12thread_local6native4lazy20Storage$LT$T$C$D$GT$10initialize17h61fa4697cd48c6f6E', symObjAddr: 0x47E24, symBinAddr: 0x1000572B4, symSize: 0xC0 }
  - { offset: 0x74641, size: 0x8, addend: 0x0, symName: __ZN3std3sys12thread_local6native4lazy7destroy17h26d4ae6c1bac34fbE, symObjAddr: 0x47EE4, symBinAddr: 0x100041A40, symSize: 0x54 }
  - { offset: 0x747AF, size: 0x8, addend: 0x0, symName: __ZN3std3sys12thread_local5guard5apple6enable9run_dtors17h15022dedc81e5063E, symObjAddr: 0x4807C, symBinAddr: 0x100041BD8, symSize: 0x13C }
  - { offset: 0x74D09, size: 0x8, addend: 0x0, symName: __ZN3std3sys12thread_local11destructors4list8register17h51fb0c77f8b321e6E, symObjAddr: 0x47F38, symBinAddr: 0x100041A94, symSize: 0x144 }
  - { offset: 0x75388, size: 0x8, addend: 0x0, symName: '__ZN80_$LT$std..io..Write..write_fmt..Adapter$LT$T$GT$$u20$as$u20$core..fmt..Write$GT$9write_str17h0698cdf4cfa713e8E', symObjAddr: 0x2D538, symBinAddr: 0x10003C404, symSize: 0xD8 }
  - { offset: 0x754DB, size: 0x8, addend: 0x0, symName: '__ZN80_$LT$std..io..Write..write_fmt..Adapter$LT$T$GT$$u20$as$u20$core..fmt..Write$GT$9write_str17h1c13ca75cd138050E', symObjAddr: 0x2D610, symBinAddr: 0x10003C4DC, symSize: 0x50 }
  - { offset: 0x75505, size: 0x8, addend: 0x0, symName: '__ZN80_$LT$std..io..Write..write_fmt..Adapter$LT$T$GT$$u20$as$u20$core..fmt..Write$GT$9write_str17h58a4ca428f95c900E', symObjAddr: 0x2D738, symBinAddr: 0x10003C52C, symSize: 0xD0 }
  - { offset: 0x756BB, size: 0x8, addend: 0x0, symName: '__ZN80_$LT$std..io..Write..write_fmt..Adapter$LT$T$GT$$u20$as$u20$core..fmt..Write$GT$9write_str17h6eb5a36b1832c95eE', symObjAddr: 0x2D808, symBinAddr: 0x10003C5FC, symSize: 0x80 }
  - { offset: 0x75841, size: 0x8, addend: 0x0, symName: __ZN3std2io5Write9write_all17h87bc481c06d6b6c7E, symObjAddr: 0x2CC10, symBinAddr: 0x10003BADC, symSize: 0xB8 }
  - { offset: 0x75971, size: 0x8, addend: 0x0, symName: __ZN3std2io5Write18write_all_vectored17h0d3be626dc41da2eE, symObjAddr: 0x2CCC8, symBinAddr: 0x10003BB94, symSize: 0x264 }
  - { offset: 0x75E19, size: 0x8, addend: 0x0, symName: __ZN3std2io5Write18write_all_vectored17h0f11e99192ac0da3E, symObjAddr: 0x2CF2C, symBinAddr: 0x10003BDF8, symSize: 0x2A0 }
  - { offset: 0x762B7, size: 0x8, addend: 0x0, symName: __ZN3std2io5Write9write_fmt17h6564db7565ec4928E, symObjAddr: 0x2D1CC, symBinAddr: 0x10003C098, symSize: 0x124 }
  - { offset: 0x764CB, size: 0x8, addend: 0x0, symName: __ZN3std2io5Write9write_fmt17h6e471a53cbe47e27E, symObjAddr: 0x2D2F0, symBinAddr: 0x10003C1BC, symSize: 0x124 }
  - { offset: 0x766DF, size: 0x8, addend: 0x0, symName: __ZN3std2io5Write9write_fmt17hb32eaafcfd249a19E, symObjAddr: 0x2D414, symBinAddr: 0x10003C2E0, symSize: 0x124 }
  - { offset: 0x7690C, size: 0x8, addend: 0x0, symName: '__ZN3std2io5impls74_$LT$impl$u20$std..io..Write$u20$for$u20$alloc..vec..Vec$LT$u8$C$A$GT$$GT$5write17hf1a6df91b3a9c331E', symObjAddr: 0x2731C, symBinAddr: 0x10003AF74, symSize: 0x84 }
  - { offset: 0x76A51, size: 0x8, addend: 0x0, symName: '__ZN3std2io5impls74_$LT$impl$u20$std..io..Write$u20$for$u20$alloc..vec..Vec$LT$u8$C$A$GT$$GT$14write_vectored17h935681c1f031c204E', symObjAddr: 0x273A0, symBinAddr: 0x10003AFF8, symSize: 0x174 }
  - { offset: 0x76C9E, size: 0x8, addend: 0x0, symName: '__ZN3std2io5impls74_$LT$impl$u20$std..io..Write$u20$for$u20$alloc..vec..Vec$LT$u8$C$A$GT$$GT$17is_write_vectored17h4055b148f544ec6cE', symObjAddr: 0x27514, symBinAddr: 0x10003B16C, symSize: 0x14 }
  - { offset: 0x76CB9, size: 0x8, addend: 0x0, symName: '__ZN3std2io5impls74_$LT$impl$u20$std..io..Write$u20$for$u20$alloc..vec..Vec$LT$u8$C$A$GT$$GT$9write_all17h8667482891c5bc01E', symObjAddr: 0x27528, symBinAddr: 0x10003B180, symSize: 0x80 }
  - { offset: 0x76DF7, size: 0x8, addend: 0x0, symName: '__ZN3std2io5impls74_$LT$impl$u20$std..io..Write$u20$for$u20$alloc..vec..Vec$LT$u8$C$A$GT$$GT$5flush17h1aa70c4ce0391c44E', symObjAddr: 0x275A8, symBinAddr: 0x10003B200, symSize: 0x14 }
  - { offset: 0x76F7C, size: 0x8, addend: 0x0, symName: '__ZN58_$LT$std..io..error..Error$u20$as$u20$core..fmt..Debug$GT$3fmt17h4ed4286e752207faE', symObjAddr: 0x26AE0, symBinAddr: 0x10003AACC, symSize: 0x10 }
  - { offset: 0x76FAF, size: 0x8, addend: 0x0, symName: '__ZN3std2io5error83_$LT$impl$u20$core..fmt..Debug$u20$for$u20$std..io..error..repr_bitpacked..Repr$GT$3fmt17h65ae83bc7dc9681bE', symObjAddr: 0x26D88, symBinAddr: 0x10003AADC, symSize: 0x294 }
  - { offset: 0x771FA, size: 0x8, addend: 0x0, symName: '__ZN60_$LT$std..io..error..Error$u20$as$u20$core..fmt..Display$GT$3fmt17h9bd80ee0c1811a25E', symObjAddr: 0x2701C, symBinAddr: 0x10003AD70, symSize: 0x204 }
  - { offset: 0x77459, size: 0x8, addend: 0x0, symName: '__ZN62_$LT$std..io..error..ErrorKind$u20$as$u20$core..fmt..Debug$GT$3fmt17h219a5c9d2c7eda43E', symObjAddr: 0x3C098, symBinAddr: 0x100040074, symSize: 0x34 }
  - { offset: 0x77491, size: 0x8, addend: 0x0, symName: '__ZN3std2io8buffered9bufwriter18BufWriter$LT$W$GT$9flush_buf17h4bdccd2184fd8b56E', symObjAddr: 0x25FE4, symBinAddr: 0x10003A834, symSize: 0x204 }
  - { offset: 0x77A47, size: 0x8, addend: 0x0, symName: '__ZN3std2io8buffered9bufwriter18BufWriter$LT$W$GT$14write_all_cold17h03d13fe4cf302958E', symObjAddr: 0x26374, symBinAddr: 0x100056AB4, symSize: 0x128 }
  - { offset: 0x77D22, size: 0x8, addend: 0x0, symName: '__ZN111_$LT$std..io..buffered..bufwriter..BufWriter$LT$W$GT$..flush_buf..BufGuard$u20$as$u20$core..ops..drop..Drop$GT$4drop17hf4fab513e29b005cE', symObjAddr: 0x2621C, symBinAddr: 0x10003AA6C, symSize: 0x60 }
  - { offset: 0x77ED8, size: 0x8, addend: 0x0, symName: '__ZN3std2io8buffered9bufwriter18BufWriter$LT$W$GT$9flush_buf8BufGuard9remaining17h11b3a2941a56919aE', symObjAddr: 0x261E8, symBinAddr: 0x10003AA38, symSize: 0x34 }
  - { offset: 0x78104, size: 0x8, addend: 0x0, symName: '__ZN61_$LT$$RF$std..io..stdio..Stdout$u20$as$u20$std..io..Write$GT$9write_fmt17h14426c11ecd17a4cE', symObjAddr: 0x2A280, symBinAddr: 0x10003B214, symSize: 0x18C }
  - { offset: 0x784FE, size: 0x8, addend: 0x0, symName: '__ZN61_$LT$std..io..stdio..StdoutLock$u20$as$u20$std..io..Write$GT$9write_all17hdf550e962fae6ee2E', symObjAddr: 0x2A744, symBinAddr: 0x10003B3A0, symSize: 0x268 }
  - { offset: 0x78CD9, size: 0x8, addend: 0x0, symName: __ZN3std2io5stdio6Stderr4lock17ha6b178440672670eE, symObjAddr: 0x2ACBC, symBinAddr: 0x10003B608, symSize: 0xF0 }
  - { offset: 0x78FC9, size: 0x8, addend: 0x0, symName: __ZN3std2io5stdio22try_set_output_capture17h3c34954bc62c0e61E, symObjAddr: 0x2BA8C, symBinAddr: 0x10003B6F8, symSize: 0xF4 }
  - { offset: 0x7921C, size: 0x8, addend: 0x0, symName: __ZN3std2io5stdio31print_to_buffer_if_capture_used17h604f8acf6a08e2ebE, symObjAddr: 0x2BB80, symBinAddr: 0x10003B7EC, symSize: 0x20C }
  - { offset: 0x79927, size: 0x8, addend: 0x0, symName: __ZN3std2io5stdio6_print17h6200d46cef53dee1E, symObjAddr: 0x2BE5C, symBinAddr: 0x10003B9F8, symSize: 0xE4 }
  - { offset: 0x79AA7, size: 0x8, addend: 0x0, symName: '__ZN3std4sync6poison4once4Once15call_once_force28_$u7b$$u7b$closure$u7d$$u7d$17hb663b4fc9d65cdd9E', symObjAddr: 0x36574, symBinAddr: 0x10003DC38, symSize: 0x60 }
  - { offset: 0x79B89, size: 0x8, addend: 0x0, symName: '__ZN3std4sync6poison4once4Once15call_once_force28_$u7b$$u7b$closure$u7d$$u7d$17hdc9b4573ce8ff5c2E', symObjAddr: 0x365D4, symBinAddr: 0x10003DC98, symSize: 0x80 }
  - { offset: 0x79CF7, size: 0x8, addend: 0x0, symName: '__ZN3std4sync6poison4once4Once9call_once28_$u7b$$u7b$closure$u7d$$u7d$17h972e10e961241d2eE', symObjAddr: 0x36114, symBinAddr: 0x10003D9DC, symSize: 0x25C }
  - { offset: 0x7A74A, size: 0x8, addend: 0x0, symName: '__ZN3std4sync9once_lock17OnceLock$LT$T$GT$10initialize17h5a4e2f750c24f788E', symObjAddr: 0x37008, symBinAddr: 0x100056BE8, symSize: 0x64 }
  - { offset: 0x7A775, size: 0x8, addend: 0x0, symName: '__ZN3std4sync9once_lock17OnceLock$LT$T$GT$10initialize17h5a4e2f750c24f788E', symObjAddr: 0x37008, symBinAddr: 0x100056BE8, symSize: 0x64 }
  - { offset: 0x7A789, size: 0x8, addend: 0x0, symName: '__ZN3std4sync9once_lock17OnceLock$LT$T$GT$10initialize17h5a4e2f750c24f788E', symObjAddr: 0x37008, symBinAddr: 0x100056BE8, symSize: 0x64 }
  - { offset: 0x7A79D, size: 0x8, addend: 0x0, symName: '__ZN3std4sync9once_lock17OnceLock$LT$T$GT$10initialize17h5a4e2f750c24f788E', symObjAddr: 0x37008, symBinAddr: 0x100056BE8, symSize: 0x64 }
  - { offset: 0x7A7B3, size: 0x8, addend: 0x0, symName: '__ZN3std4sync9once_lock17OnceLock$LT$T$GT$10initialize17hde8bf60cb9cf1a08E', symObjAddr: 0x3706C, symBinAddr: 0x100056C4C, symSize: 0x68 }
  - { offset: 0x7A7DE, size: 0x8, addend: 0x0, symName: '__ZN3std4sync9once_lock17OnceLock$LT$T$GT$10initialize17hde8bf60cb9cf1a08E', symObjAddr: 0x3706C, symBinAddr: 0x100056C4C, symSize: 0x68 }
  - { offset: 0x7A7F2, size: 0x8, addend: 0x0, symName: '__ZN3std4sync9once_lock17OnceLock$LT$T$GT$10initialize17hde8bf60cb9cf1a08E', symObjAddr: 0x3706C, symBinAddr: 0x100056C4C, symSize: 0x68 }
  - { offset: 0x7A806, size: 0x8, addend: 0x0, symName: '__ZN3std4sync9once_lock17OnceLock$LT$T$GT$10initialize17hde8bf60cb9cf1a08E', symObjAddr: 0x3706C, symBinAddr: 0x100056C4C, symSize: 0x68 }
  - { offset: 0x7A951, size: 0x8, addend: 0x0, symName: __ZN3std2rt19lang_start_internal17h95cf27b851151b9cE, symObjAddr: 0x1EEA4, symBinAddr: 0x100039844, symSize: 0x684 }
  - { offset: 0x7B57D, size: 0x8, addend: 0x0, symName: __ZN3std12backtrace_rs9symbolize5gimli7Context3new17h596fdfe772dc2bb6E, symObjAddr: 0x482F4, symBinAddr: 0x100041DA0, symSize: 0x2410 }
  - { offset: 0x7F43E, size: 0x8, addend: 0x0, symName: __ZN3std12backtrace_rs9symbolize5gimli7Context11find_frames17h5933b96d93a6487fE, symObjAddr: 0x4A704, symBinAddr: 0x1000441B0, symSize: 0x37C }
  - { offset: 0x7F8D2, size: 0x8, addend: 0x0, symName: __ZN3std12backtrace_rs9symbolize5gimli5macho6Object5parse17h7c99ba302784e02bE, symObjAddr: 0x4D518, symBinAddr: 0x100046F94, symSize: 0xBD0 }
  - { offset: 0x81791, size: 0x8, addend: 0x0, symName: __ZN3std12backtrace_rs9symbolize5gimli5macho6Object7section17h7775decf80db3f1dE, symObjAddr: 0x4E0E8, symBinAddr: 0x100047B64, symSize: 0x3A0 }
  - { offset: 0x81C67, size: 0x8, addend: 0x0, symName: __ZN3std12backtrace_rs9symbolize5gimli5macho11find_header17hcafb8c4177e72185E, symObjAddr: 0x4D344, symBinAddr: 0x100046DC0, symSize: 0x1D4 }
  - { offset: 0x8236A, size: 0x8, addend: 0x0, symName: __ZN3std12backtrace_rs9symbolize5gimli4mmap17h52426abb42b033dbE, symObjAddr: 0x4AA80, symBinAddr: 0x10004452C, symSize: 0x160 }
  - { offset: 0x82980, size: 0x8, addend: 0x0, symName: __ZN3std12backtrace_rs9symbolize5gimli7resolve17h4e500df68d74bbd0E, symObjAddr: 0x4ABE0, symBinAddr: 0x10004468C, symSize: 0x2734 }
  - { offset: 0x8898B, size: 0x8, addend: 0x0, symName: __ZN3std12backtrace_rs9symbolize6Symbol4name17hfe1d12d8092fe441E, symObjAddr: 0x3B724, symBinAddr: 0x10003F9C0, symSize: 0xE4 }
  - { offset: 0x88AC6, size: 0x8, addend: 0x0, symName: '__ZN79_$LT$std..backtrace_rs..symbolize..SymbolName$u20$as$u20$core..fmt..Display$GT$3fmt17hebc8fecc1f34ea4cE', symObjAddr: 0x3B948, symBinAddr: 0x10003FAA4, symSize: 0x100 }
  - { offset: 0x88C04, size: 0x8, addend: 0x0, symName: __ZN3std12backtrace_rs9backtrace9libunwind5trace8trace_fn17h8dbf4a7a3c414c4fE, symObjAddr: 0x482AC, symBinAddr: 0x100041D58, symSize: 0x48 }
  - { offset: 0x88CE3, size: 0x8, addend: 0x0, symName: __ZN3std12backtrace_rs5print17BacktraceFrameFmt21print_raw_with_column17h4b2c8f5f934c00c0E, symObjAddr: 0x3BB48, symBinAddr: 0x10003FBA4, symSize: 0x4D0 }
  - { offset: 0x88FE7, size: 0x8, addend: 0x0, symName: __ZN3std6thread7current16try_with_current17h38cb00b0189d4132E, symObjAddr: 0x1F754, symBinAddr: 0x100039EC8, symSize: 0x98 }
  - { offset: 0x8911B, size: 0x8, addend: 0x0, symName: __ZN3std6thread7current12init_current17hb7b435bd17801980E, symObjAddr: 0x1F900, symBinAddr: 0x100056900, symSize: 0x17C }
  - { offset: 0x894E7, size: 0x8, addend: 0x0, symName: __ZN3std6thread6Thread3new17h37ed5d6af114daceE, symObjAddr: 0x20814, symBinAddr: 0x10003A05C, symSize: 0x164 }
  - { offset: 0x899B2, size: 0x8, addend: 0x0, symName: '__ZN118_$LT$std..thread..thread_name_string..ThreadNameString$u20$as$u20$core..convert..From$LT$alloc..string..String$GT$$GT$4from17h83ebc56d52812e83E', symObjAddr: 0x20718, symBinAddr: 0x100039F60, symSize: 0xFC }
  - { offset: 0x89B9D, size: 0x8, addend: 0x0, symName: __ZN3std6thread8ThreadId3new9exhausted17h1c0c206286c216f1E, symObjAddr: 0x206E0, symBinAddr: 0x100056A7C, symSize: 0x38 }
  - { offset: 0x89C86, size: 0x8, addend: 0x0, symName: __ZN3std5panic19get_backtrace_style17hb0947c7d43e173b3E, symObjAddr: 0x31B78, symBinAddr: 0x10003C67C, symSize: 0x10C }
  - { offset: 0x89CA4, size: 0x8, addend: 0x0, symName: __ZN3std5panic19get_backtrace_style17hb0947c7d43e173b3E, symObjAddr: 0x31B78, symBinAddr: 0x10003C67C, symSize: 0x10C }
  - { offset: 0x89CB9, size: 0x8, addend: 0x0, symName: __ZN3std5panic19get_backtrace_style17hb0947c7d43e173b3E, symObjAddr: 0x31B78, symBinAddr: 0x10003C67C, symSize: 0x10C }
  - { offset: 0x8A0BF, size: 0x8, addend: 0x0, symName: __ZN3std3env11current_dir17h378d2e00353b8c55E, symObjAddr: 0x21D9C, symBinAddr: 0x10003A1C0, symSize: 0x1D0 }
  - { offset: 0x8A438, size: 0x8, addend: 0x0, symName: __ZN3std3env4_var17hedb8b309980f1fb0E, symObjAddr: 0x225F0, symBinAddr: 0x10003A390, symSize: 0xA8 }
  - { offset: 0x8A534, size: 0x8, addend: 0x0, symName: __ZN3std3env7_var_os17h91cf52b19c1ae9d5E, symObjAddr: 0x22698, symBinAddr: 0x10003A438, symSize: 0x160 }
  - { offset: 0x8A7F7, size: 0x8, addend: 0x0, symName: __ZN3std2fs11OpenOptions5_open17h060c4979cd359a16E, symObjAddr: 0x24BC4, symBinAddr: 0x10003A5E4, symSize: 0x250 }
  - { offset: 0x8A9B4, size: 0x8, addend: 0x0, symName: '__ZN48_$LT$std..fs..File$u20$as$u20$std..io..Write$GT$5write17hae8351bd5e30937bE', symObjAddr: 0x2486C, symBinAddr: 0x10003A598, symSize: 0x4C }
  - { offset: 0x8AB01, size: 0x8, addend: 0x0, symName: __ZN3std5alloc24default_alloc_error_hook17h2ab9053c5916c535E, symObjAddr: 0x39CF4, symBinAddr: 0x10003E61C, symSize: 0x13C }
  - { offset: 0x8AD44, size: 0x8, addend: 0x0, symName: ___rdl_alloc, symObjAddr: 0x39E30, symBinAddr: 0x10003E758, symSize: 0x6C }
  - { offset: 0x8ADC0, size: 0x8, addend: 0x0, symName: ___rdl_dealloc, symObjAddr: 0x39E9C, symBinAddr: 0x10003E7C4, symSize: 0x10 }
  - { offset: 0x8ADF0, size: 0x8, addend: 0x0, symName: ___rdl_realloc, symObjAddr: 0x39EAC, symBinAddr: 0x10003E7D4, symSize: 0xB0 }
  - { offset: 0x8AEC2, size: 0x8, addend: 0x0, symName: ___rdl_alloc_zeroed, symObjAddr: 0x39F5C, symBinAddr: 0x10003E884, symSize: 0x90 }
  - { offset: 0x8AF60, size: 0x8, addend: 0x0, symName: __ZN3std5alloc8rust_oom17hb46c5aeb63fa3cb5E, symObjAddr: 0x481B8, symBinAddr: 0x100041D14, symSize: 0x2C }
  - { offset: 0x8AFAF, size: 0x8, addend: 0x0, symName: ___rg_oom, symObjAddr: 0x481E4, symBinAddr: 0x100041D40, symSize: 0x18 }
  - { offset: 0x8B0F6, size: 0x8, addend: 0x0, symName: '__ZN5gimli4read4unit32AttributeValue$LT$R$C$Offset$GT$11udata_value17h2b61cc9b6a98fb32E', symObjAddr: 0x14DE0, symBinAddr: 0x10002FD94, symSize: 0x90 }
  - { offset: 0x8B151, size: 0x8, addend: 0x0, symName: __ZN5gimli4read4unit15parse_attribute17h49f957a62d462029E, symObjAddr: 0x130AC, symBinAddr: 0x10002E060, symSize: 0xF74 }
  - { offset: 0x8DE44, size: 0x8, addend: 0x0, symName: __ZN5gimli4read4unit15skip_attributes17h31562773efeee2f1E, symObjAddr: 0x14020, symBinAddr: 0x10002EFD4, symSize: 0x52C }
  - { offset: 0x8E866, size: 0x8, addend: 0x0, symName: '__ZN5gimli4read4unit18Attribute$LT$R$GT$5value17hbc90a819c686a39aE', symObjAddr: 0x1454C, symBinAddr: 0x10002F500, symSize: 0x5DC }
  - { offset: 0x8EE0B, size: 0x8, addend: 0x0, symName: '__ZN5gimli4read4unit22EntriesCursor$LT$R$GT$10next_entry17hdf28d3cec3327cb6E', symObjAddr: 0x14B28, symBinAddr: 0x10002FADC, symSize: 0x2B8 }
  - { offset: 0x8F401, size: 0x8, addend: 0x0, symName: '__ZN5gimli4read4unit33DebugInfoUnitHeadersIter$LT$R$GT$4next17h34712ebaabdffee4E', symObjAddr: 0x14E70, symBinAddr: 0x10002FE24, symSize: 0x524 }
  - { offset: 0x9053A, size: 0x8, addend: 0x0, symName: '__ZN90_$LT$gimli..read..unit..AttributeValue$LT$R$C$Offset$GT$$u20$as$u20$core..clone..Clone$GT$5clone17h20eda0c245e8425dE', symObjAddr: 0x19914, symBinAddr: 0x1000343D0, symSize: 0x68 }
  - { offset: 0x9078B, size: 0x8, addend: 0x0, symName: __ZN5gimli4read6reader6Reader11read_offset17hb66bf69f998efb74E, symObjAddr: 0x179B8, symBinAddr: 0x10003296C, symSize: 0xBC }
  - { offset: 0x909C7, size: 0x8, addend: 0x0, symName: __ZN5gimli4read6reader6Reader12read_sleb12817hd93e25793436fd15E, symObjAddr: 0x17A74, symBinAddr: 0x100032A28, symSize: 0x21C }
  - { offset: 0x90AB7, size: 0x8, addend: 0x0, symName: __ZN5gimli4read6reader6Reader12read_uleb12817ha415c724c08e32b4E, symObjAddr: 0x17C90, symBinAddr: 0x100032C44, symSize: 0xB0 }
  - { offset: 0x90B6D, size: 0x8, addend: 0x0, symName: __ZN5gimli4read6reader6Reader17read_sized_offset17hbf387c98074d1971E, symObjAddr: 0x17D40, symBinAddr: 0x100032CF4, symSize: 0xEC }
  - { offset: 0x90F80, size: 0x8, addend: 0x0, symName: __ZN5gimli4read4line13parse_file_v517hcd59a31a0bc27fa9E, symObjAddr: 0x11F1C, symBinAddr: 0x10002CED0, symSize: 0x2B4 }
  - { offset: 0x910F8, size: 0x8, addend: 0x0, symName: __ZN5gimli4read4line15FileEntryFormat5parse17he68be02eb21a6f6cE, symObjAddr: 0x121D0, symBinAddr: 0x10002D184, symSize: 0x370 }
  - { offset: 0x9191F, size: 0x8, addend: 0x0, symName: __ZN5gimli4read4line15parse_attribute17h6dcb28bb0d8f0d55E, symObjAddr: 0x12540, symBinAddr: 0x10002D4F4, symSize: 0x86C }
  - { offset: 0x930BC, size: 0x8, addend: 0x0, symName: __ZN5gimli4read4line18parse_directory_v517h7ed9e48bb2fa518bE, symObjAddr: 0x12DAC, symBinAddr: 0x10002DD60, symSize: 0xE8 }
  - { offset: 0x9314D, size: 0x8, addend: 0x0, symName: '__ZN5gimli4read4line27FileEntry$LT$R$C$Offset$GT$5parse17h0cf5e73c1698de2fE', symObjAddr: 0x12E94, symBinAddr: 0x10002DE48, symSize: 0x218 }
  - { offset: 0x93873, size: 0x8, addend: 0x0, symName: '__ZN5gimli4read5dwarf14Dwarf$LT$R$GT$11attr_string17hc40cc697c7ad324fE', symObjAddr: 0x17104, symBinAddr: 0x1000320B8, symSize: 0x1E8 }
  - { offset: 0x940C1, size: 0x8, addend: 0x0, symName: '__ZN5gimli4read5dwarf13Unit$LT$R$GT$3new17h9c8abef5d8c50a6dE', symObjAddr: 0x15394, symBinAddr: 0x100030348, symSize: 0x1D70 }
  - { offset: 0x97CD3, size: 0x8, addend: 0x0, symName: '__ZN5gimli4read5index18UnitIndex$LT$R$GT$5parse17haa9f95b067464b66E', symObjAddr: 0x172EC, symBinAddr: 0x1000322A0, symSize: 0x6CC }
  - { offset: 0x9829A, size: 0x8, addend: 0x0, symName: '__ZN5gimli4read7aranges30ArangeHeader$LT$R$C$Offset$GT$5parse17h20619b15205da501E', symObjAddr: 0x17E2C, symBinAddr: 0x100032DE0, symSize: 0x2A8 }
  - { offset: 0x98B51, size: 0x8, addend: 0x0, symName: '__ZN5gimli4read8rnglists20RngListIter$LT$R$GT$4next17h7e27fd598c933045E', symObjAddr: 0x180D4, symBinAddr: 0x100033088, symSize: 0xC74 }
  - { offset: 0x9BA90, size: 0x8, addend: 0x0, symName: '__ZN9addr2line8function17Function$LT$R$GT$14parse_children17he1d2dd4eaf8a7357E', symObjAddr: 0x1DDF8, symBinAddr: 0x1000387FC, symSize: 0xE88 }
  - { offset: 0x9D2CF, size: 0x8, addend: 0x0, symName: __ZN9addr2line8function10name_entry17hd712c6a5749c0b0eE, symObjAddr: 0x1DA8C, symBinAddr: 0x100038490, symSize: 0x36C }
  - { offset: 0x9D798, size: 0x8, addend: 0x0, symName: __ZN9addr2line8function9name_attr17h41adbb1d91e81904E, symObjAddr: 0x1EC80, symBinAddr: 0x100039684, symSize: 0x1C0 }
  - { offset: 0x9D9BB, size: 0x8, addend: 0x0, symName: '__ZN9addr2line4unit16ResUnit$LT$R$GT$25find_function_or_location17h353b18e237b7b2c9E', symObjAddr: 0x1BBAC, symBinAddr: 0x1000365B0, symSize: 0x39C }
  - { offset: 0x9DF20, size: 0x8, addend: 0x0, symName: '__ZN9addr2line4unit16ResUnit$LT$R$GT$25find_function_or_location28_$u7b$$u7b$closure$u7d$$u7d$17h6a4d5a45c96dd11cE', symObjAddr: 0x1BF48, symBinAddr: 0x10003694C, symSize: 0x1490 }
  - { offset: 0xA085C, size: 0x8, addend: 0x0, symName: '__ZN9addr2line16Context$LT$R$GT$9find_unit17h672f8cef0a6cef5fE', symObjAddr: 0x19A34, symBinAddr: 0x100034438, symSize: 0x168 }
  - { offset: 0xA09F3, size: 0x8, addend: 0x0, symName: __ZN9addr2line4line11render_file17h56c7df47359e37daE, symObjAddr: 0x19B9C, symBinAddr: 0x1000345A0, symSize: 0x4C0 }
  - { offset: 0xA1309, size: 0x8, addend: 0x0, symName: __ZN9addr2line4line9LazyLines6borrow17ha6d975a019e23e93E, symObjAddr: 0x1A05C, symBinAddr: 0x100034A60, symSize: 0x1B50 }
  - { offset: 0xA4754, size: 0x8, addend: 0x0, symName: '__ZN9addr2line6lookup30LoopingLookup$LT$T$C$L$C$F$GT$10new_lookup17h590d4f5c6451cf3cE', symObjAddr: 0x1D654, symBinAddr: 0x100038058, symSize: 0x438 }
  - { offset: 0xA4CF3, size: 0x8, addend: 0x0, symName: '__ZN9addr2line5frame18FrameIter$LT$R$GT$4next17h4512ac685f8f4647E', symObjAddr: 0x1D3D8, symBinAddr: 0x100037DDC, symSize: 0x27C }
  - { offset: 0xA5193, size: 0x8, addend: 0x0, symName: __ZN6object4read7archive13ArchiveMember5parse17he23e9c7a2dcdb639E, symObjAddr: 0x19204, symBinAddr: 0x100033D64, symSize: 0x41C }
  - { offset: 0xA5D25, size: 0x8, addend: 0x0, symName: __ZN6object4read7archive23parse_bsd_extended_name17hc2b3d25eef9eeec9E, symObjAddr: 0x19620, symBinAddr: 0x100034180, symSize: 0x250 }
  - { offset: 0xA6B4A, size: 0x8, addend: 0x0, symName: _OUTLINED_FUNCTION_0, symObjAddr: 0x4E488, symBinAddr: 0x100047F04, symSize: 0x24 }
  - { offset: 0xA6B62, size: 0x8, addend: 0x0, symName: _OUTLINED_FUNCTION_1, symObjAddr: 0x4E4AC, symBinAddr: 0x100047F28, symSize: 0x8 }
  - { offset: 0xA6B7A, size: 0x8, addend: 0x0, symName: _OUTLINED_FUNCTION_2, symObjAddr: 0x4E4B4, symBinAddr: 0x100047F30, symSize: 0x10 }
  - { offset: 0xA6B92, size: 0x8, addend: 0x0, symName: _OUTLINED_FUNCTION_3, symObjAddr: 0x4E4C4, symBinAddr: 0x100047F40, symSize: 0x8 }
  - { offset: 0xA6BAA, size: 0x8, addend: 0x0, symName: _OUTLINED_FUNCTION_4, symObjAddr: 0x4E4CC, symBinAddr: 0x100047F48, symSize: 0x8 }
  - { offset: 0xA6BC2, size: 0x8, addend: 0x0, symName: _OUTLINED_FUNCTION_5, symObjAddr: 0x4E4D4, symBinAddr: 0x100047F50, symSize: 0xC }
  - { offset: 0xA6BF8, size: 0x8, addend: 0x0, symName: '__ZN4core3ptr49drop_in_place$LT$panic_unwind..imp..Exception$GT$17h82c2656372694058E', symObjAddr: 0x0, symBinAddr: 0x100047F5C, symSize: 0x78 }
  - { offset: 0xA6C1E, size: 0x8, addend: 0x0, symName: '__ZN4core3ptr49drop_in_place$LT$panic_unwind..imp..Exception$GT$17h82c2656372694058E', symObjAddr: 0x0, symBinAddr: 0x100047F5C, symSize: 0x78 }
  - { offset: 0xA6D25, size: 0x8, addend: 0x0, symName: '__ZN4core3ptr74drop_in_place$LT$alloc..boxed..Box$LT$panic_unwind..imp..Exception$GT$$GT$17h401304109b323233E', symObjAddr: 0x78, symBinAddr: 0x100047FD4, symSize: 0x8C }
  - { offset: 0xA6FFB, size: 0x8, addend: 0x0, symName: __ZN12panic_unwind3imp5panic17exception_cleanup17h71dcf2e4fc4aa769E, symObjAddr: 0x214, symBinAddr: 0x100048170, symSize: 0x18 }
  - { offset: 0xA7017, size: 0x8, addend: 0x0, symName: ___rust_panic_cleanup, symObjAddr: 0x104, symBinAddr: 0x100048060, symSize: 0x68 }
  - { offset: 0xA70B9, size: 0x8, addend: 0x0, symName: ___rust_start_panic, symObjAddr: 0x16C, symBinAddr: 0x1000480C8, symSize: 0xA8 }
  - { offset: 0xA7173, size: 0x8, addend: 0x0, symName: '__ZN42_$LT$$RF$T$u20$as$u20$core..fmt..Debug$GT$3fmt17hd0ab4e0c95fc0278E', symObjAddr: 0x0, symBinAddr: 0x100050940, symSize: 0x30 }
  - { offset: 0xA71BD, size: 0x8, addend: 0x0, symName: '__ZN42_$LT$$RF$T$u20$as$u20$core..fmt..Debug$GT$3fmt17hd0ab4e0c95fc0278E', symObjAddr: 0x0, symBinAddr: 0x100050940, symSize: 0x30 }
  - { offset: 0xA7203, size: 0x8, addend: 0x0, symName: '__ZN42_$LT$$RF$T$u20$as$u20$core..fmt..Debug$GT$3fmt17hf848de7b5d82925fE', symObjAddr: 0x4C, symBinAddr: 0x100050970, symSize: 0x64 }
  - { offset: 0xA730F, size: 0x8, addend: 0x0, symName: __ZN4core9panicking13assert_failed17h029558b6dec8cb1fE, symObjAddr: 0x170, symBinAddr: 0x100057428, symSize: 0x30 }
  - { offset: 0xA733A, size: 0x8, addend: 0x0, symName: '__ZN69_$LT$core..alloc..layout..LayoutError$u20$as$u20$core..fmt..Debug$GT$3fmt17h847390e718c251f1E', symObjAddr: 0x1C0, symBinAddr: 0x1000509D4, symSize: 0x20 }
  - { offset: 0xA767A, size: 0x8, addend: 0x0, symName: __ZN5alloc7raw_vec17capacity_overflow17hf0a187d8de84083bE, symObjAddr: 0x1E0, symBinAddr: 0x1000509F4, symSize: 0x34 }
  - { offset: 0xA76BC, size: 0x8, addend: 0x0, symName: '__ZN5alloc7raw_vec19RawVec$LT$T$C$A$GT$8grow_one17h207f2a977af11d07E', symObjAddr: 0x214, symBinAddr: 0x100050A28, symSize: 0xAC }
  - { offset: 0xA7833, size: 0x8, addend: 0x0, symName: '__ZN5alloc7raw_vec20RawVecInner$LT$A$GT$7reserve21do_reserve_and_handle17hf907109019113e80E', symObjAddr: 0x2C0, symBinAddr: 0x100057458, symSize: 0xB0 }
  - { offset: 0xA7935, size: 0x8, addend: 0x0, symName: __ZN5alloc7raw_vec11finish_grow17h91993be477efd13cE, symObjAddr: 0x370, symBinAddr: 0x100057508, symSize: 0x88 }
  - { offset: 0xA79AB, size: 0x8, addend: 0x0, symName: __ZN5alloc7raw_vec12handle_error17h7f0cbdf2396d2d52E, symObjAddr: 0x3F8, symBinAddr: 0x100057590, symSize: 0x18 }
  - { offset: 0xA7AA5, size: 0x8, addend: 0x0, symName: __ZN5alloc5alloc18handle_alloc_error17h14470fb7117d6c37E, symObjAddr: 0x410, symBinAddr: 0x1000575A8, symSize: 0x18 }
  - { offset: 0xA7B30, size: 0x8, addend: 0x0, symName: '__ZN93_$LT$alloc..collections..btree..mem..replace..PanicGuard$u20$as$u20$core..ops..drop..Drop$GT$4drop17h4dbb92e5b56c174aE', symObjAddr: 0xE10, symBinAddr: 0x100050AD4, symSize: 0xC }
  - { offset: 0xA7C80, size: 0x8, addend: 0x0, symName: __ZN5alloc6string6String15from_utf8_lossy17h7d31b366d97043dfE, symObjAddr: 0x2F28, symBinAddr: 0x100050D5C, symSize: 0x238 }
  - { offset: 0xA81CD, size: 0x8, addend: 0x0, symName: '__ZN98_$LT$alloc..string..String$u20$as$u20$core..convert..From$LT$alloc..borrow..Cow$LT$str$GT$$GT$$GT$4from17hde800050cd4f6a42E', symObjAddr: 0x4D48, symBinAddr: 0x100050F94, symSize: 0xBC }
  - { offset: 0xA83FB, size: 0x8, addend: 0x0, symName: '__ZN72_$LT$$RF$str$u20$as$u20$alloc..ffi..c_str..CString..new..SpecNewImpl$GT$13spec_new_impl17h37cb9b6572c7448bE', symObjAddr: 0xEA8, symBinAddr: 0x100050AE0, symSize: 0x11C }
  - { offset: 0xA863C, size: 0x8, addend: 0x0, symName: __ZN5alloc3ffi5c_str7CString19_from_vec_unchecked17h8dccb886daea0b28E, symObjAddr: 0x1110, symBinAddr: 0x100050BFC, symSize: 0x160 }
  - { offset: 0xA896A, size: 0x8, addend: 0x0, symName: __ZN5alloc4sync32arcinner_layout_for_value_layout17h83c76efa9058bc15E, symObjAddr: 0x516C, symBinAddr: 0x100051050, symSize: 0x74 }
  - { offset: 0xA9013, size: 0x8, addend: 0x0, symName: __ZN4core5slice5index26slice_start_index_len_fail8do_panic7runtime17h9ddc6a7ecebba1e9E, symObjAddr: 0x1B12C, symBinAddr: 0x1000561DC, symSize: 0x50 }
  - { offset: 0xA9046, size: 0x8, addend: 0x0, symName: __ZN4core5slice5index26slice_start_index_len_fail17hbef4cde757a23982E, symObjAddr: 0xEAAC, symBinAddr: 0x1000579D4, symSize: 0xC }
  - { offset: 0xA908C, size: 0x8, addend: 0x0, symName: __ZN4core5slice5index24slice_end_index_len_fail8do_panic7runtime17h385f2d9d99153a75E, symObjAddr: 0x1B17C, symBinAddr: 0x10005622C, symSize: 0x50 }
  - { offset: 0xA90BF, size: 0x8, addend: 0x0, symName: __ZN4core5slice5index24slice_end_index_len_fail17ha150b75f771021fbE, symObjAddr: 0xEAB8, symBinAddr: 0x1000579E0, symSize: 0xC }
  - { offset: 0xA9105, size: 0x8, addend: 0x0, symName: __ZN4core5slice5index22slice_index_order_fail8do_panic7runtime17he0b28f8ab2cd970eE, symObjAddr: 0x1B1CC, symBinAddr: 0x10005627C, symSize: 0x50 }
  - { offset: 0xA9138, size: 0x8, addend: 0x0, symName: __ZN4core5slice5index22slice_index_order_fail17h7613890af586566aE, symObjAddr: 0xEAC4, symBinAddr: 0x1000579EC, symSize: 0xC }
  - { offset: 0xA9529, size: 0x8, addend: 0x0, symName: __ZN4core5slice6memchr14memchr_aligned17h6296e9c99467795dE, symObjAddr: 0xE3FC, symBinAddr: 0x10005350C, symSize: 0xE8 }
  - { offset: 0xA9605, size: 0x8, addend: 0x0, symName: __ZN4core5slice6memchr7memrchr17h6227400e5108dcb2E, symObjAddr: 0xE4E4, symBinAddr: 0x1000535F4, symSize: 0x120 }
  - { offset: 0xA975E, size: 0x8, addend: 0x0, symName: __ZN4core5slice4sort6stable5drift11sqrt_approx17hea6fce954f57e78dE, symObjAddr: 0xE604, symBinAddr: 0x100053714, symSize: 0x38 }
  - { offset: 0xA97DB, size: 0x8, addend: 0x0, symName: __ZN4core5slice4sort6shared9smallsort22panic_on_ord_violation17h87158ad44664865dE, symObjAddr: 0xE63C, symBinAddr: 0x10005799C, symSize: 0x38 }
  - { offset: 0xA99A4, size: 0x8, addend: 0x0, symName: '__ZN42_$LT$str$u20$as$u20$core..fmt..Display$GT$3fmt17hf009c24fe723987dE', symObjAddr: 0xE0B4, symBinAddr: 0x10005328C, symSize: 0x20 }
  - { offset: 0xA9B84, size: 0x8, addend: 0x0, symName: __ZN4core3fmt9Formatter12pad_integral17hc0a697f6bef9bc99E, symObjAddr: 0xB878, symBinAddr: 0x10005211C, symSize: 0x3E8 }
  - { offset: 0xA9E7A, size: 0x8, addend: 0x0, symName: __ZN4core3fmt9Formatter3pad17hc45fb048fd353932E, symObjAddr: 0xBCDC, symBinAddr: 0x100052580, symSize: 0x370 }
  - { offset: 0xAA335, size: 0x8, addend: 0x0, symName: __ZN4core3fmt9Formatter9write_str17h325369b1c335017bE, symObjAddr: 0xC49C, symBinAddr: 0x1000528F0, symSize: 0x1C }
  - { offset: 0xAA349, size: 0x8, addend: 0x0, symName: __ZN4core3fmt9Formatter12debug_struct17h01892abf43f6400aE, symObjAddr: 0xC4B8, symBinAddr: 0x10005290C, symSize: 0x3C }
  - { offset: 0xAA388, size: 0x8, addend: 0x0, symName: __ZN4core3fmt9Formatter26debug_struct_field1_finish17h9a6aad483cd91d8bE, symObjAddr: 0xC4F4, symBinAddr: 0x100052948, symSize: 0xD0 }
  - { offset: 0xAA45F, size: 0x8, addend: 0x0, symName: __ZN4core3fmt9Formatter26debug_struct_field2_finish17h50e0aebce8a58786E, symObjAddr: 0xC5C4, symBinAddr: 0x100052A18, symSize: 0x104 }
  - { offset: 0xAA536, size: 0x8, addend: 0x0, symName: __ZN4core3fmt9Formatter11debug_tuple17hc10fd19a9736e89bE, symObjAddr: 0xCBD8, symBinAddr: 0x100052B1C, symSize: 0x50 }
  - { offset: 0xAA58B, size: 0x8, addend: 0x0, symName: __ZN4core3fmt9Formatter25debug_tuple_field1_finish17ha7de20751beabbe9E, symObjAddr: 0xCC28, symBinAddr: 0x100052B6C, symSize: 0x168 }
  - { offset: 0xAA78D, size: 0x8, addend: 0x0, symName: __ZN4core3fmt9Formatter25debug_tuple_field2_finish17h4e3f51f71b24019cE, symObjAddr: 0xCD90, symBinAddr: 0x100052CD4, symSize: 0x1E0 }
  - { offset: 0xAAA47, size: 0x8, addend: 0x0, symName: __ZN4core3fmt9Formatter10debug_list17h017ce85e0805b545E, symObjAddr: 0xDB70, symBinAddr: 0x100052EB4, symSize: 0x48 }
  - { offset: 0xAAAEF, size: 0x8, addend: 0x0, symName: __ZN4core3fmt8builders11DebugStruct5field17h2f0dca0d2df6974aE, symObjAddr: 0x84A0, symBinAddr: 0x100051914, symSize: 0x1B8 }
  - { offset: 0xAACEE, size: 0x8, addend: 0x0, symName: __ZN4core3fmt8builders11DebugStruct6finish17he06e5b5d674203a3E, symObjAddr: 0x871C, symBinAddr: 0x100051ACC, symSize: 0x80 }
  - { offset: 0xAADEF, size: 0x8, addend: 0x0, symName: '__ZN68_$LT$core..fmt..builders..PadAdapter$u20$as$u20$core..fmt..Write$GT$9write_str17hfaa313c4119f7ed4E', symObjAddr: 0x81D0, symBinAddr: 0x100051644, symSize: 0x250 }
  - { offset: 0xAB09A, size: 0x8, addend: 0x0, symName: '__ZN68_$LT$core..fmt..builders..PadAdapter$u20$as$u20$core..fmt..Write$GT$10write_char17hde86c020ea7d2eadE', symObjAddr: 0x8420, symBinAddr: 0x100051894, symSize: 0x80 }
  - { offset: 0xAB11F, size: 0x8, addend: 0x0, symName: __ZN4core3fmt8builders10DebugTuple5field17hd1be49f816fc5cc6E, symObjAddr: 0x879C, symBinAddr: 0x100051B4C, symSize: 0x14C }
  - { offset: 0xAB2AB, size: 0x8, addend: 0x0, symName: __ZN4core3fmt8builders10DebugTuple6finish17h27cf27fbab1a8a2aE, symObjAddr: 0x89A8, symBinAddr: 0x100051C98, symSize: 0xB0 }
  - { offset: 0xAB3FA, size: 0x8, addend: 0x0, symName: __ZN4core3fmt8builders8DebugSet5entry17h30a73ad81f14a0f2E, symObjAddr: 0x8A58, symBinAddr: 0x100051D48, symSize: 0x14C }
  - { offset: 0xAB59F, size: 0x8, addend: 0x0, symName: __ZN4core3fmt8builders9DebugList6finish17h106b57f1a22a675eE, symObjAddr: 0x8D7C, symBinAddr: 0x100051E94, symSize: 0x4C }
  - { offset: 0xAB65B, size: 0x8, addend: 0x0, symName: '__ZN4core3fmt3num3imp52_$LT$impl$u20$core..fmt..Display$u20$for$u20$u32$GT$3fmt17hbf1c5d9b6583f29fE', symObjAddr: 0x19B78, symBinAddr: 0x100055D20, symSize: 0x1C }
  - { offset: 0xAB682, size: 0x8, addend: 0x0, symName: '__ZN4core3fmt3num3imp52_$LT$impl$u20$core..fmt..Display$u20$for$u20$u64$GT$3fmt17h339ac4429cb37bf0E', symObjAddr: 0x19CE0, symBinAddr: 0x100055E88, symSize: 0x1C }
  - { offset: 0xAB6A9, size: 0x8, addend: 0x0, symName: '__ZN4core3fmt3num3imp52_$LT$impl$u20$core..fmt..Display$u20$for$u20$i32$GT$3fmt17hf55f78073eda7290E', symObjAddr: 0x19B94, symBinAddr: 0x100055D3C, symSize: 0x28 }
  - { offset: 0xAB70E, size: 0x8, addend: 0x0, symName: '__ZN4core3fmt3num3imp51_$LT$impl$u20$core..fmt..Display$u20$for$u20$u8$GT$3fmt17h4f4911bf2ed93697E', symObjAddr: 0x198A4, symBinAddr: 0x100055C70, symSize: 0xB0 }
  - { offset: 0xAB7D4, size: 0x8, addend: 0x0, symName: '__ZN4core3fmt3num3imp21_$LT$impl$u20$u32$GT$4_fmt17h2969b048172ebb80E', symObjAddr: 0x19BBC, symBinAddr: 0x100055D64, symSize: 0x124 }
  - { offset: 0xAB8B5, size: 0x8, addend: 0x0, symName: '__ZN4core3fmt3num3imp21_$LT$impl$u20$u64$GT$4_fmt17h99108e3731ddbd8bE', symObjAddr: 0x19D24, symBinAddr: 0x100055EA4, symSize: 0x130 }
  - { offset: 0xABAD0, size: 0x8, addend: 0x0, symName: '__ZN4core3fmt3num53_$LT$impl$u20$core..fmt..LowerHex$u20$for$u20$i32$GT$3fmt17ha0cbda09c03c5041E', symObjAddr: 0x18C80, symBinAddr: 0x100055A70, symSize: 0x80 }
  - { offset: 0xABB78, size: 0x8, addend: 0x0, symName: '__ZN4core3fmt3num53_$LT$impl$u20$core..fmt..UpperHex$u20$for$u20$i32$GT$3fmt17heb47dcda93036a36E', symObjAddr: 0x18D00, symBinAddr: 0x100055AF0, symSize: 0x80 }
  - { offset: 0xABC20, size: 0x8, addend: 0x0, symName: '__ZN4core3fmt3num53_$LT$impl$u20$core..fmt..LowerHex$u20$for$u20$i64$GT$3fmt17hf3c2c8f0bf48439fE', symObjAddr: 0x18E60, symBinAddr: 0x100055B70, symSize: 0x80 }
  - { offset: 0xABCC8, size: 0x8, addend: 0x0, symName: '__ZN4core3fmt3num53_$LT$impl$u20$core..fmt..UpperHex$u20$for$u20$i64$GT$3fmt17h4be4db71703d1dabE', symObjAddr: 0x18EE0, symBinAddr: 0x100055BF0, symSize: 0x80 }
  - { offset: 0xABD63, size: 0x8, addend: 0x0, symName: '__ZN4core3fmt3num52_$LT$impl$u20$core..fmt..LowerHex$u20$for$u20$i8$GT$3fmt17h7bff1931c71ac012E', symObjAddr: 0x188C0, symBinAddr: 0x100055970, symSize: 0x80 }
  - { offset: 0xABE12, size: 0x8, addend: 0x0, symName: '__ZN4core3fmt3num52_$LT$impl$u20$core..fmt..UpperHex$u20$for$u20$i8$GT$3fmt17h8dba84f19f74308cE', symObjAddr: 0x18940, symBinAddr: 0x1000559F0, symSize: 0x80 }
  - { offset: 0xABED0, size: 0x8, addend: 0x0, symName: '__ZN57_$LT$core..fmt..Formatter$u20$as$u20$core..fmt..Write$GT$10write_char17h712a7a5b14df20b9E', symObjAddr: 0xDCC0, symBinAddr: 0x100052EFC, symSize: 0x1C }
  - { offset: 0xABF03, size: 0x8, addend: 0x0, symName: __ZN4core3fmt5Write9write_fmt17h3451af32630eef07E, symObjAddr: 0xB4E4, symBinAddr: 0x100051EE0, symSize: 0x1C }
  - { offset: 0xABF6C, size: 0x8, addend: 0x0, symName: '__ZN59_$LT$core..fmt..Arguments$u20$as$u20$core..fmt..Display$GT$3fmt17h5a31f19e8734f16eE', symObjAddr: 0xB658, symBinAddr: 0x100051EFC, symSize: 0x18 }
  - { offset: 0xABF9D, size: 0x8, addend: 0x0, symName: __ZN4core3fmt5write17he22fcab56bd3ec61E, symObjAddr: 0xB670, symBinAddr: 0x100051F14, symSize: 0x208 }
  - { offset: 0xAC1B0, size: 0x8, addend: 0x0, symName: __ZN4core3fmt9Formatter12pad_integral12write_prefix17h37c97ab3a7046bd2E, symObjAddr: 0xBC60, symBinAddr: 0x100052504, symSize: 0x7C }
  - { offset: 0xAC1F6, size: 0x8, addend: 0x0, symName: '__ZN42_$LT$$RF$T$u20$as$u20$core..fmt..Debug$GT$3fmt17h3133fac5ab5169ddE', symObjAddr: 0x1AE44, symBinAddr: 0x100055FD4, symSize: 0xEC }
  - { offset: 0xAC328, size: 0x8, addend: 0x0, symName: '__ZN42_$LT$$RF$T$u20$as$u20$core..fmt..Debug$GT$3fmt17h54e81ade5e5de57dE', symObjAddr: 0x1AF30, symBinAddr: 0x1000560C0, symSize: 0x1C }
  - { offset: 0xAC33C, size: 0x8, addend: 0x0, symName: '__ZN42_$LT$$RF$T$u20$as$u20$core..fmt..Debug$GT$3fmt17h91eecf8d28a7cefeE', symObjAddr: 0x1AF4C, symBinAddr: 0x1000560DC, symSize: 0xE4 }
  - { offset: 0xAC496, size: 0x8, addend: 0x0, symName: '__ZN40_$LT$str$u20$as$u20$core..fmt..Debug$GT$3fmt17hd8879d369458d53aE', symObjAddr: 0xDD40, symBinAddr: 0x100052F18, symSize: 0x374 }
  - { offset: 0xAC8EF, size: 0x8, addend: 0x0, symName: '__ZN41_$LT$char$u20$as$u20$core..fmt..Debug$GT$3fmt17ha35a21095fe6b2aeE', symObjAddr: 0xE0D4, symBinAddr: 0x1000532AC, symSize: 0xAC }
  - { offset: 0xAC9F6, size: 0x8, addend: 0x0, symName: '__ZN43_$LT$char$u20$as$u20$core..fmt..Display$GT$3fmt17h3667dcfbeb89f1b7E', symObjAddr: 0xE180, symBinAddr: 0x100053358, symSize: 0xF0 }
  - { offset: 0xACA7E, size: 0x8, addend: 0x0, symName: __ZN4core3fmt17pointer_fmt_inner17ha05a056f67b250baE, symObjAddr: 0xE270, symBinAddr: 0x100053448, symSize: 0xC4 }
  - { offset: 0xACB3C, size: 0x8, addend: 0x0, symName: '__ZN44_$LT$$RF$T$u20$as$u20$core..fmt..Display$GT$3fmt17h09a056bd82e73243E', symObjAddr: 0x1B044, symBinAddr: 0x1000561C0, symSize: 0x1C }
  - { offset: 0xACCF8, size: 0x8, addend: 0x0, symName: __ZN4core6option13unwrap_failed17h84f662fc2717d129E, symObjAddr: 0x7B40, symBinAddr: 0x100057604, symSize: 0x1C }
  - { offset: 0xACD13, size: 0x8, addend: 0x0, symName: __ZN4core6option13expect_failed17h064f2cf84916882aE, symObjAddr: 0x7B5C, symBinAddr: 0x100057620, symSize: 0x48 }
  - { offset: 0xACD6B, size: 0x8, addend: 0x0, symName: '__ZN71_$LT$core..ops..range..Range$LT$Idx$GT$$u20$as$u20$core..fmt..Debug$GT$3fmt17h8610e207370f6ef7E', symObjAddr: 0x442C, symBinAddr: 0x1000510C4, symSize: 0x1FC }
  - { offset: 0xAD261, size: 0x8, addend: 0x0, symName: __ZN4core6result13unwrap_failed17h2bf1684417afbe6bE, symObjAddr: 0x80FC, symBinAddr: 0x100057940, symSize: 0x5C }
  - { offset: 0xAD542, size: 0x8, addend: 0x0, symName: __ZN4core3str7pattern11StrSearcher3new17habaad989c72fb7a8E, symObjAddr: 0x10248, symBinAddr: 0x100054364, symSize: 0x904 }
  - { offset: 0xAD7ED, size: 0x8, addend: 0x0, symName: __ZN4core3str5count14do_count_chars17hc555c670c9b10e3bE, symObjAddr: 0xF128, symBinAddr: 0x100053990, symSize: 0x724 }
  - { offset: 0xADB3E, size: 0x8, addend: 0x0, symName: __ZN4core3str5count23char_count_general_case17h0a6ef21a4825751aE, symObjAddr: 0xF84C, symBinAddr: 0x1000540B4, symSize: 0x2B0 }
  - { offset: 0xADCF4, size: 0x8, addend: 0x0, symName: __ZN4core3str6traits23str_index_overflow_fail17h6ba0069023d715bdE, symObjAddr: 0x10214, symBinAddr: 0x1000579F8, symSize: 0x34 }
  - { offset: 0xADD29, size: 0x8, addend: 0x0, symName: __ZN4core3str8converts9from_utf817h5b7081f8e3c98111E, symObjAddr: 0xECA0, symBinAddr: 0x10005374C, symSize: 0x244 }
  - { offset: 0xADD98, size: 0x8, addend: 0x0, symName: '__ZN60_$LT$core..str..lossy..Debug$u20$as$u20$core..fmt..Debug$GT$3fmt17h509fb95436d3e626E', symObjAddr: 0x10B4C, symBinAddr: 0x100054C68, symSize: 0x3E4 }
  - { offset: 0xAE134, size: 0x8, addend: 0x0, symName: '__ZN87_$LT$core..str..lossy..Utf8Chunks$u20$as$u20$core..iter..traits..iterator..Iterator$GT$4next17hc0bb2f8797014ed2E', symObjAddr: 0x10F30, symBinAddr: 0x10005504C, symSize: 0x1DC }
  - { offset: 0xAE337, size: 0x8, addend: 0x0, symName: __ZN4core3str16slice_error_fail17h8b847e853482f553E, symObjAddr: 0x111D8, symBinAddr: 0x100057A2C, symSize: 0xC }
  - { offset: 0xAE351, size: 0x8, addend: 0x0, symName: __ZN4core3str19slice_error_fail_rt17hd494714b9640772bE, symObjAddr: 0x11218, symBinAddr: 0x100055228, symSize: 0x390 }
  - { offset: 0xAE5FA, size: 0x8, addend: 0x0, symName: '__ZN4core4char7methods22_$LT$impl$u20$char$GT$16escape_debug_ext17hbfb443f01c84243eE', symObjAddr: 0x50B8, symBinAddr: 0x1000512E4, symSize: 0x260 }
  - { offset: 0xAE81C, size: 0x8, addend: 0x0, symName: __ZN4core4char7methods15encode_utf8_raw8do_panic7runtime17h78f2c250983698c5E, symObjAddr: 0x171EC, symBinAddr: 0x1000558A8, symSize: 0xC8 }
  - { offset: 0xAE8E3, size: 0x8, addend: 0x0, symName: '__ZN63_$LT$core..cell..BorrowMutError$u20$as$u20$core..fmt..Debug$GT$3fmt17h4f632190c10a8f91E', symObjAddr: 0x4F3C, symBinAddr: 0x1000512C0, symSize: 0x24 }
  - { offset: 0xAE940, size: 0x8, addend: 0x0, symName: __ZN4core4cell22panic_already_borrowed17ha893d1f06b8b63deE, symObjAddr: 0x4F80, symBinAddr: 0x1000575C0, symSize: 0x44 }
  - { offset: 0xAE990, size: 0x8, addend: 0x0, symName: __ZN4core7unicode12unicode_data15grapheme_extend11lookup_slow17hbcdf8b5a821a33ffE, symObjAddr: 0x1C978, symBinAddr: 0x1000562F0, symSize: 0x174 }
  - { offset: 0xAEB7B, size: 0x8, addend: 0x0, symName: __ZN4core7unicode12unicode_data2cc6lookup17he25d7ab2d2fa0f97E, symObjAddr: 0x1C954, symBinAddr: 0x1000562CC, symSize: 0x24 }
  - { offset: 0xAEBE7, size: 0x8, addend: 0x0, symName: __ZN4core7unicode9printable12is_printable17haae76351f6525626E, symObjAddr: 0x12144, symBinAddr: 0x1000555B8, symSize: 0x2C0 }
  - { offset: 0xAF025, size: 0x8, addend: 0x0, symName: __ZN4core3ffi5c_str4CStr19from_bytes_with_nul17h10506affebd054b1E, symObjAddr: 0x5700, symBinAddr: 0x100051544, symSize: 0x100 }
  - { offset: 0xAF112, size: 0x8, addend: 0x0, symName: __ZN4core9panicking9panic_fmt17h6a4014bec58fba4fE, symObjAddr: 0x7C94, symBinAddr: 0x100057668, symSize: 0x20 }
  - { offset: 0xAF155, size: 0x8, addend: 0x0, symName: __ZN4core9panicking18panic_nounwind_fmt17hc1d4bd06ab2bbbabE, symObjAddr: 0x7CB4, symBinAddr: 0x100057688, symSize: 0x3C }
  - { offset: 0xAF19A, size: 0x8, addend: 0x0, symName: __ZN4core9panicking5panic17h3ce9043ca357f318E, symObjAddr: 0x7CF0, symBinAddr: 0x1000576C4, symSize: 0x34 }
  - { offset: 0xAF1C9, size: 0x8, addend: 0x0, symName: __ZN4core9panicking14panic_nounwind17h96b8083b1a8e2dbdE, symObjAddr: 0x7D24, symBinAddr: 0x1000576F8, symSize: 0x3C }
  - { offset: 0xAF1F8, size: 0x8, addend: 0x0, symName: __ZN4core9panicking26panic_nounwind_nobacktrace17h984deb6b7d0bc614E, symObjAddr: 0x7D60, symBinAddr: 0x100057734, symSize: 0x3C }
  - { offset: 0xAF227, size: 0x8, addend: 0x0, symName: __ZN4core9panicking18panic_bounds_check17h1ecfa3d00f46f81cE, symObjAddr: 0x7DE4, symBinAddr: 0x100057770, symSize: 0x50 }
  - { offset: 0xAF259, size: 0x8, addend: 0x0, symName: __ZN4core9panicking19panic_cannot_unwind17ha5edf28dd2569dc8E, symObjAddr: 0x7EF8, symBinAddr: 0x1000577C0, symSize: 0x18 }
  - { offset: 0xAF274, size: 0x8, addend: 0x0, symName: __ZN4core9panicking16panic_in_cleanup17hb960b8c5dea287d4E, symObjAddr: 0x7F10, symBinAddr: 0x1000577D8, symSize: 0x18 }
  - { offset: 0xAF28F, size: 0x8, addend: 0x0, symName: __ZN4core9panicking13assert_failed17h2af7932842d934b6E, symObjAddr: 0x7F8C, symBinAddr: 0x1000577F0, symSize: 0x24 }
  - { offset: 0xAF2AA, size: 0x8, addend: 0x0, symName: __ZN4core9panicking13assert_failed17hc7c9e0269eebc316E, symObjAddr: 0x7FB0, symBinAddr: 0x100057814, symSize: 0x24 }
  - { offset: 0xAF2C5, size: 0x8, addend: 0x0, symName: __ZN4core9panicking19assert_failed_inner17hafd35c69af0230bfE, symObjAddr: 0x7FF4, symBinAddr: 0x100057838, symSize: 0x108 }
  - { offset: 0xAF312, size: 0x8, addend: 0x0, symName: __ZN4core9panicking11panic_const24panic_const_add_overflow17h0235fd41b8202631E, symObjAddr: 0x17818, symBinAddr: 0x100057A38, symSize: 0x34 }
  - { offset: 0xAF341, size: 0x8, addend: 0x0, symName: __ZN4core9panicking11panic_const23panic_const_div_by_zero17h0422238fbdaad2d7E, symObjAddr: 0x179B8, symBinAddr: 0x100057A6C, symSize: 0x34 }
  - { offset: 0xAF370, size: 0x8, addend: 0x0, symName: __ZN4core9panicking11panic_const23panic_const_rem_by_zero17h723f338bbd7af040E, symObjAddr: 0x179EC, symBinAddr: 0x100057AA0, symSize: 0x34 }
  - { offset: 0xAF3E9, size: 0x8, addend: 0x0, symName: __ZN4core5alloc6layout6Layout19is_size_align_valid17h054933e8a3b2a17cE, symObjAddr: 0x126A0, symBinAddr: 0x100055878, symSize: 0x30 }
  - { offset: 0xAF442, size: 0x8, addend: 0x0, symName: _OUTLINED_FUNCTION_0, symObjAddr: 0x1D194, symBinAddr: 0x100056464, symSize: 0x10 }
...
