---
triple:          'arm64-apple-darwin'
binary-path:     '/Users/cedric/orange/ran-llm-claude-flow/src/rust-pipeline/target/debug/deps/libtokio_macros-1d728a285774dd17.dylib'
relocations:
  - { offset: 0x1E, size: 0x8, addend: 0x0, symName: __RINvMNtCsfvfooZQ3Axs_4core6optionINtB3_6OptionINtNtCse1nGBsou5OW_5alloc5boxed3BoxNtNtCs6IAuOt8vWmF_3syn4attr4MetaEE3mapB1h_NCNvXs8_NtB1l_10punctuatedINtB25_10PunctuatedB1h_NtNtB1l_5token5CommaENtNtNtNtB5_4iter6traits7collect12IntoIterator9into_iters_0ECs28qvqeRNIp0_12tokio_macros, symObjAddr: 0x0, symBinAddr: 0xC50, symSize: 0x78 }
  - { offset: 0x49D, size: 0x8, addend: 0x0, symName: __RNvXs5_NtNtCs9i5KxIbZ5ph_10proc_macro6bridge6bufferNtB5_6BufferNtNtNtCsfvfooZQ3Axs_4core3ops4drop4Drop4dropCs28qvqeRNIp0_12tokio_macros, symObjAddr: 0x2DB0, symBinAddr: 0x3A00, symSize: 0x8C }
  - { offset: 0x5A7, size: 0x8, addend: 0x0, symName: __RNvXs1J_NtCs9i5KxIbZ5ph_10proc_macro6bridgeINtB6_11ExpnGlobalsNtNtB6_6client4SpanEINtNtB6_3rpc9DecodeMutuE6decodeCs28qvqeRNIp0_12tokio_macros, symObjAddr: 0x2144, symBinAddr: 0x2D94, symSize: 0xB0 }
  - { offset: 0x5FE, size: 0x8, addend: 0x0, symName: __RNvXs7_NtNtCs9i5KxIbZ5ph_10proc_macro6bridge3rpcINtNtNtCsfvfooZQ3Axs_4core3num7nonzero7NonZeromEINtB5_9DecodeMutuE6decodeCs28qvqeRNIp0_12tokio_macros, symObjAddr: 0x3290, symBinAddr: 0x3EE0, symSize: 0x5C }
  - { offset: 0x681, size: 0x8, addend: 0x0, symName: __RNvXs9_NtNtCs9i5KxIbZ5ph_10proc_macro6bridge3rpcTINtB7_11ExpnGlobalsNtNtB7_6client4SpanENtB16_11TokenStreamEINtB5_9DecodeMutuE6decodeCs28qvqeRNIp0_12tokio_macros, symObjAddr: 0x32EC, symBinAddr: 0x3F3C, symSize: 0x84 }
  - { offset: 0x6D6, size: 0x8, addend: 0x0, symName: __RNvXs9_NtNtCs9i5KxIbZ5ph_10proc_macro6bridge3rpcTINtB7_11ExpnGlobalsNtNtB7_6client4SpanETNtB16_11TokenStreamB1p_EEINtB5_9DecodeMutuE6decodeCs28qvqeRNIp0_12tokio_macros, symObjAddr: 0x3370, symBinAddr: 0x3FC0, symSize: 0x90 }
  - { offset: 0x792, size: 0x8, addend: 0x0, symName: __RNvXsR_NtCs9i5KxIbZ5ph_10proc_macro6bridgeINtNtCsfvfooZQ3Axs_4core6option6OptionNtNtB5_6client11TokenStreamEINtNtB5_3rpc6EncodeuE6encodeCs28qvqeRNIp0_12tokio_macros, symObjAddr: 0x3430, symBinAddr: 0x4080, symSize: 0xCC }
  - { offset: 0x838, size: 0x8, addend: 0x0, symName: __RNvXsR_NtCs9i5KxIbZ5ph_10proc_macro6bridgeINtNtCsfvfooZQ3Axs_4core6option6OptionReEINtNtB5_3rpc6EncodeuE6encodeCs28qvqeRNIp0_12tokio_macros, symObjAddr: 0x34FC, symBinAddr: 0x414C, symSize: 0xD8 }
  - { offset: 0xD29, size: 0x8, addend: 0x0, symName: __RINvXsa_NtCs3cP53eQoTwO_11proc_macro28fallbackNtB6_11TokenStreamINtNtNtNtCsfvfooZQ3Axs_4core4iter6traits7collect6ExtendNtB8_9TokenTreeE6extendAB1T_j1_ECs28qvqeRNIp0_12tokio_macros, symObjAddr: 0x1134, symBinAddr: 0x1D84, symSize: 0xC0 }
  - { offset: 0xD8A, size: 0x8, addend: 0x0, symName: __RINvXsa_NtCs3cP53eQoTwO_11proc_macro28fallbackNtB6_11TokenStreamINtNtNtNtCsfvfooZQ3Axs_4core4iter6traits7collect6ExtendNtB8_9TokenTreeE6extendNtB8_11TokenStreamECs28qvqeRNIp0_12tokio_macros, symObjAddr: 0x11F4, symBinAddr: 0x1E44, symSize: 0xC0 }
  - { offset: 0xDF0, size: 0x8, addend: 0x0, symName: __RNCINvXsa_NtCs3cP53eQoTwO_11proc_macro28fallbackNtB8_11TokenStreamINtNtNtNtCsfvfooZQ3Axs_4core4iter6traits7collect6ExtendNtBa_9TokenTreeE6extendAB1V_j1_E0Cs28qvqeRNIp0_12tokio_macros, symObjAddr: 0x16CC, symBinAddr: 0x231C, symSize: 0xAC }
  - { offset: 0xE36, size: 0x8, addend: 0x0, symName: __RNCINvXsa_NtCs3cP53eQoTwO_11proc_macro28fallbackNtB8_11TokenStreamINtNtNtNtCsfvfooZQ3Axs_4core4iter6traits7collect6ExtendNtBa_9TokenTreeE6extendNtBa_11TokenStreamE0Cs28qvqeRNIp0_12tokio_macros, symObjAddr: 0x1778, symBinAddr: 0x23C8, symSize: 0xAC }
  - { offset: 0xE96, size: 0x8, addend: 0x0, symName: __RNvXss_NtCs3cP53eQoTwO_11proc_macro28fallbackNtB5_11TokenStreamNtNtCsfvfooZQ3Axs_4core5clone5Clone5cloneCs28qvqeRNIp0_12tokio_macros, symObjAddr: 0x3A9C, symBinAddr: 0x46EC, symSize: 0x24 }
  - { offset: 0x569D, size: 0x8, addend: 0x0, symName: __RNvXs3_NtCsfvfooZQ3Axs_4core6optionINtB5_6OptionNtNtCs6IAuOt8vWmF_3syn4path4PathENtNtB7_5clone5Clone5cloneCs28qvqeRNIp0_12tokio_macros, symObjAddr: 0x2A18, symBinAddr: 0x3668, symSize: 0x80 }
  - { offset: 0x56F8, size: 0x8, addend: 0x0, symName: __RNvXs5_NtCsfvfooZQ3Axs_4core6optionINtB5_6OptionNtNtCs6IAuOt8vWmF_3syn4attr4MetaENtNtNtNtB7_4iter6traits7collect12IntoIterator9into_iterCs28qvqeRNIp0_12tokio_macros, symObjAddr: 0x2D38, symBinAddr: 0x3988, symSize: 0x50 }
  - { offset: 0x5730, size: 0x8, addend: 0x0, symName: __RNvXs5_NtCsfvfooZQ3Axs_4core6optionINtB5_6OptionQNtNtCs6IAuOt8vWmF_3syn3pat3PatENtNtNtNtB7_4iter6traits7collect12IntoIterator9into_iterCs28qvqeRNIp0_12tokio_macros, symObjAddr: 0x2D88, symBinAddr: 0x39D8, symSize: 0x14 }
  - { offset: 0x5767, size: 0x8, addend: 0x0, symName: __RNvXs5_NtCsfvfooZQ3Axs_4core6optionINtB5_6OptionQNtNtCs6IAuOt8vWmF_3syn3pat8FieldPatENtNtNtNtB7_4iter6traits7collect12IntoIterator9into_iterCs28qvqeRNIp0_12tokio_macros, symObjAddr: 0x2D9C, symBinAddr: 0x39EC, symSize: 0x14 }
  - { offset: 0x58D1, size: 0x8, addend: 0x0, symName: __RNvXsv_NtCsfvfooZQ3Axs_4core6optionINtB5_8IntoIterNtNtCs6IAuOt8vWmF_3syn4attr4MetaENtNtNtNtB7_4iter6traits8iterator8Iterator4nextCs28qvqeRNIp0_12tokio_macros, symObjAddr: 0x3AC0, symBinAddr: 0x4710, symSize: 0x68 }
  - { offset: 0x5974, size: 0x8, addend: 0x0, symName: __RNvXsv_NtCsfvfooZQ3Axs_4core6optionINtB5_8IntoIterNtNtCs6IAuOt8vWmF_3syn4attr4MetaENtNtNtNtB7_4iter6traits8iterator8Iterator9size_hintCs28qvqeRNIp0_12tokio_macros, symObjAddr: 0x3B28, symBinAddr: 0x4778, symSize: 0x44 }
  - { offset: 0x59EC, size: 0x8, addend: 0x0, symName: __RNvXsv_NtCsfvfooZQ3Axs_4core6optionINtB5_8IntoIterQNtNtCs6IAuOt8vWmF_3syn3pat3PatENtNtNtNtB7_4iter6traits8iterator8Iterator4nextCs28qvqeRNIp0_12tokio_macros, symObjAddr: 0x3B6C, symBinAddr: 0x47BC, symSize: 0x28 }
  - { offset: 0x5A8F, size: 0x8, addend: 0x0, symName: __RNvXsv_NtCsfvfooZQ3Axs_4core6optionINtB5_8IntoIterQNtNtCs6IAuOt8vWmF_3syn3pat3PatENtNtNtNtB7_4iter6traits8iterator8Iterator9size_hintCs28qvqeRNIp0_12tokio_macros, symObjAddr: 0x3B94, symBinAddr: 0x47E4, symSize: 0x44 }
  - { offset: 0x5B07, size: 0x8, addend: 0x0, symName: __RNvXsv_NtCsfvfooZQ3Axs_4core6optionINtB5_8IntoIterQNtNtCs6IAuOt8vWmF_3syn3pat8FieldPatENtNtNtNtB7_4iter6traits8iterator8Iterator4nextCs28qvqeRNIp0_12tokio_macros, symObjAddr: 0x3BD8, symBinAddr: 0x4828, symSize: 0x28 }
  - { offset: 0x5BAA, size: 0x8, addend: 0x0, symName: __RNvXsv_NtCsfvfooZQ3Axs_4core6optionINtB5_8IntoIterQNtNtCs6IAuOt8vWmF_3syn3pat8FieldPatENtNtNtNtB7_4iter6traits8iterator8Iterator9size_hintCs28qvqeRNIp0_12tokio_macros, symObjAddr: 0x3C00, symBinAddr: 0x4850, symSize: 0x44 }
  - { offset: 0x5F2D, size: 0x8, addend: 0x0, symName: __RNvNvMsc_NtNtCsfvfooZQ3Axs_4core3num7nonzeroINtB7_7NonZeropE13new_unchecked18precondition_checkCs28qvqeRNIp0_12tokio_macros, symObjAddr: 0x1F70, symBinAddr: 0x2BC0, symSize: 0x1C }
  - { offset: 0x6766, size: 0x8, addend: 0x0, symName: __RINvXs2U_NtNtCsfvfooZQ3Axs_4core5slice4iterINtB7_4IterNtNtCs6IAuOt8vWmF_3syn4attr9AttributeENtNtNtNtBb_4iter6traits8iterator8Iterator4findNCNvNtCs28qvqeRNIp0_12tokio_macros5entry4test0EB2i_, symObjAddr: 0xE84, symBinAddr: 0x1AD4, symSize: 0xB0 }
  - { offset: 0x67CB, size: 0x8, addend: 0x0, symName: __RINvXs2U_NtNtCsfvfooZQ3Axs_4core5slice4iterINtB7_4IterNtNtCs6IAuOt8vWmF_3syn4attr9AttributeENtNtNtNtBb_4iter6traits8iterator8Iterator4findQNCNvNtCs28qvqeRNIp0_12tokio_macros5entry4test0EB2j_, symObjAddr: 0xF34, symBinAddr: 0x1B84, symSize: 0xB4 }
  - { offset: 0x6830, size: 0x8, addend: 0x0, symName: __RNvXs2U_NtNtCsfvfooZQ3Axs_4core5slice4iterINtB6_4IterNtCs3cP53eQoTwO_11proc_macro211TokenStreamENtNtNtNtBa_4iter6traits8iterator8Iterator4nextCs28qvqeRNIp0_12tokio_macros, symObjAddr: 0x236C, symBinAddr: 0x2FBC, symSize: 0xBC }
  - { offset: 0x697E, size: 0x8, addend: 0x0, symName: __RNvXs2U_NtNtCsfvfooZQ3Axs_4core5slice4iterINtB6_4IterNtCs3cP53eQoTwO_11proc_macro25IdentENtNtNtNtBa_4iter6traits8iterator8Iterator4nextCs28qvqeRNIp0_12tokio_macros, symObjAddr: 0x2428, symBinAddr: 0x3078, symSize: 0xBC }
  - { offset: 0x6C71, size: 0x8, addend: 0x0, symName: __RNvXs32_NtNtCsfvfooZQ3Axs_4core5slice4iterINtB6_7IterMutTNtNtCs6IAuOt8vWmF_3syn3pat3PatNtNtBX_5token2OrEENtNtNtNtBa_4iter6traits8iterator8Iterator4nextCs28qvqeRNIp0_12tokio_macros, symObjAddr: 0x24E4, symBinAddr: 0x3134, symSize: 0xBC }
  - { offset: 0x6DAA, size: 0x8, addend: 0x0, symName: __RNvXs32_NtNtCsfvfooZQ3Axs_4core5slice4iterINtB6_7IterMutTNtNtCs6IAuOt8vWmF_3syn3pat3PatNtNtBX_5token5CommaEENtNtNtNtBa_4iter6traits8iterator8Iterator4nextCs28qvqeRNIp0_12tokio_macros, symObjAddr: 0x25A0, symBinAddr: 0x31F0, symSize: 0xBC }
  - { offset: 0x6EE3, size: 0x8, addend: 0x0, symName: __RNvXs32_NtNtCsfvfooZQ3Axs_4core5slice4iterINtB6_7IterMutTNtNtCs6IAuOt8vWmF_3syn3pat8FieldPatNtNtBX_5token5CommaEENtNtNtNtBa_4iter6traits8iterator8Iterator4nextCs28qvqeRNIp0_12tokio_macros, symObjAddr: 0x265C, symBinAddr: 0x32AC, symSize: 0xBC }
  - { offset: 0x7022, size: 0x8, addend: 0x0, symName: __RNvXs33_NtNtCsfvfooZQ3Axs_4core5slice4iterINtB6_7IterMutTNtNtCs6IAuOt8vWmF_3syn3pat3PatNtNtBX_5token2OrEENtNtNtNtBa_4iter6traits12double_ended19DoubleEndedIterator9next_backCs28qvqeRNIp0_12tokio_macros, symObjAddr: 0x2718, symBinAddr: 0x3368, symSize: 0x100 }
  - { offset: 0x717E, size: 0x8, addend: 0x0, symName: __RNvXs33_NtNtCsfvfooZQ3Axs_4core5slice4iterINtB6_7IterMutTNtNtCs6IAuOt8vWmF_3syn3pat3PatNtNtBX_5token5CommaEENtNtNtNtBa_4iter6traits12double_ended19DoubleEndedIterator9next_backCs28qvqeRNIp0_12tokio_macros, symObjAddr: 0x2818, symBinAddr: 0x3468, symSize: 0x100 }
  - { offset: 0x72DA, size: 0x8, addend: 0x0, symName: __RNvXs33_NtNtCsfvfooZQ3Axs_4core5slice4iterINtB6_7IterMutTNtNtCs6IAuOt8vWmF_3syn3pat8FieldPatNtNtBX_5token5CommaEENtNtNtNtBa_4iter6traits12double_ended19DoubleEndedIterator9next_backCs28qvqeRNIp0_12tokio_macros, symObjAddr: 0x2918, symBinAddr: 0x3568, symSize: 0x100 }
  - { offset: 0x74C2, size: 0x8, addend: 0x0, symName: __RNvNvXs0_NtNtCsfvfooZQ3Axs_4core5slice5indexjINtB7_10SliceIndexSpE13get_unchecked18precondition_checkCs28qvqeRNIp0_12tokio_macros, symObjAddr: 0x1F8C, symBinAddr: 0x2BDC, symSize: 0x40 }
  - { offset: 0x7504, size: 0x8, addend: 0x0, symName: __RNvNvXs1_NtNtCsfvfooZQ3Axs_4core5slice5indexNtNtNtBb_3ops11index_range10IndexRangeINtB7_10SliceIndexSpE17get_unchecked_mut18precondition_checkCs28qvqeRNIp0_12tokio_macros, symObjAddr: 0x1FCC, symBinAddr: 0x2C1C, symSize: 0x40 }
  - { offset: 0x77EF, size: 0x8, addend: 0x0, symName: __RNvXs1_NtNtNtCsfvfooZQ3Axs_4core4iter8adapters3zipINtB5_3ZipINtNtCs6IAuOt8vWmF_3syn10punctuated4IterNtNtB11_4path11PathSegmentEINtNtNtBb_5array4iter8IntoIterReKj4_EEINtB5_7ZipImplBW_B21_E3newCs28qvqeRNIp0_12tokio_macros, symObjAddr: 0x21F4, symBinAddr: 0x2E44, symSize: 0x5C }
  - { offset: 0x783C, size: 0x8, addend: 0x0, symName: __RNvXs1_NtNtNtCsfvfooZQ3Axs_4core4iter8adapters3zipINtB5_3ZipINtNtCs6IAuOt8vWmF_3syn10punctuated4IterNtNtB11_4path11PathSegmentEINtNtNtBb_5array4iter8IntoIterReKj4_EEINtB5_7ZipImplBW_B21_E4nextCs28qvqeRNIp0_12tokio_macros, symObjAddr: 0x2250, symBinAddr: 0x2EA0, symSize: 0x11C }
  - { offset: 0x798E, size: 0x8, addend: 0x0, symName: __RNvXs_NtNtNtCsfvfooZQ3Axs_4core4iter8adapters3zipINtB4_3ZipINtNtCs6IAuOt8vWmF_3syn10punctuated4IterNtNtB10_4path11PathSegmentEINtNtNtBa_5array4iter8IntoIterReKj4_EENtNtNtB8_6traits8iterator8Iterator4nextCs28qvqeRNIp0_12tokio_macros, symObjAddr: 0x35D4, symBinAddr: 0x4224, symSize: 0x24 }
  - { offset: 0x7A35, size: 0x8, addend: 0x0, symName: __RINvYINtNtCsfvfooZQ3Axs_4core6option8IntoIterNtNtCs6IAuOt8vWmF_3syn4attr4MetaENtNtNtNtB8_4iter6traits8iterator8Iterator4folduNCINvNvB1e_8for_each4callBH_NCINvMsi_NtCse1nGBsou5OW_5alloc3vecINtB2A_3VecBH_E14extend_trustedB3_E0E0ECs28qvqeRNIp0_12tokio_macros, symObjAddr: 0x12B4, symBinAddr: 0x1F04, symSize: 0x144 }
  - { offset: 0x7B3C, size: 0x8, addend: 0x0, symName: __RINvYINtNtCsfvfooZQ3Axs_4core6option8IntoIterNtNtCs6IAuOt8vWmF_3syn4attr4MetaENtNtNtNtB8_4iter6traits8iterator8Iterator8for_eachNCINvMsi_NtCse1nGBsou5OW_5alloc3vecINtB2b_3VecBH_E14extend_trustedB3_E0ECs28qvqeRNIp0_12tokio_macros, symObjAddr: 0x13F8, symBinAddr: 0x2048, symSize: 0x34 }
  - { offset: 0x7BA8, size: 0x8, addend: 0x0, symName: __RINvYINtNtNtCse1nGBsou5OW_5alloc3vec9into_iter8IntoIterTNtNtCs6IAuOt8vWmF_3syn4attr4MetaNtNtBW_5token5CommaEENtNtNtNtCsfvfooZQ3Axs_4core4iter6traits8iterator8Iterator3mapBS_NCNvXs8_NtBW_10punctuatedINtB2T_10PunctuatedBS_B1o_ENtNtB1N_7collect12IntoIterator9into_iter0ECs28qvqeRNIp0_12tokio_macros, symObjAddr: 0x142C, symBinAddr: 0x207C, symSize: 0x1C }
  - { offset: 0x7C15, size: 0x8, addend: 0x0, symName: __RINvYINtNtNtCsfvfooZQ3Axs_4core5slice4iter4IterNtNtCs6IAuOt8vWmF_3syn4attr9AttributeENtNtNtNtBa_4iter6traits8iterator8Iterator5chainB3_ECs28qvqeRNIp0_12tokio_macros, symObjAddr: 0x1448, symBinAddr: 0x2098, symSize: 0xD8 }
  - { offset: 0x7C8B, size: 0x8, addend: 0x0, symName: __RINvYINtNtNtNtCsfvfooZQ3Axs_4core4iter8adapters3zip3ZipINtNtCs6IAuOt8vWmF_3syn10punctuated4IterNtNtBW_4path11PathSegmentEINtNtNtBc_5array4iter8IntoIterReKj4_EENtNtNtBa_6traits8iterator8Iterator3allNCNCNvNtCs28qvqeRNIp0_12tokio_macros5entry17is_test_attribute00EB3h_, symObjAddr: 0x1520, symBinAddr: 0x2170, symSize: 0x3C }
  - { offset: 0x7CDA, size: 0x8, addend: 0x0, symName: __RINvYINtNtNtNtCsfvfooZQ3Axs_4core4iter8adapters3zip3ZipINtNtCs6IAuOt8vWmF_3syn10punctuated4IterNtNtBW_4path11PathSegmentEINtNtNtBc_5array4iter8IntoIterReKj4_EENtNtNtBa_6traits8iterator8Iterator8try_folduNCINvNvB2x_3all5checkTRB1v_B2p_ENCNCNvNtCs28qvqeRNIp0_12tokio_macros5entry17is_test_attribute00E0INtNtNtBc_3ops12control_flow11ControlFlowuEEB3T_, symObjAddr: 0x155C, symBinAddr: 0x21AC, symSize: 0x148 }
  - { offset: 0x7E10, size: 0x8, addend: 0x0, symName: __RNvYINtNtCsfvfooZQ3Axs_4core6option8IntoIterQNtNtCs6IAuOt8vWmF_3syn3pat3PatENtNtNtNtB7_4iter6traits10exact_size17ExactSizeIterator3lenCs28qvqeRNIp0_12tokio_macros, symObjAddr: 0x3C44, symBinAddr: 0x4894, symSize: 0xF4 }
  - { offset: 0x7F03, size: 0x8, addend: 0x0, symName: __RNvYINtNtCsfvfooZQ3Axs_4core6option8IntoIterQNtNtCs6IAuOt8vWmF_3syn3pat8FieldPatENtNtNtNtB7_4iter6traits10exact_size17ExactSizeIterator3lenCs28qvqeRNIp0_12tokio_macros, symObjAddr: 0x3D38, symBinAddr: 0x4988, symSize: 0xF4 }
  - { offset: 0x7FF6, size: 0x8, addend: 0x0, symName: __RNvYINtNtNtCse1nGBsou5OW_5alloc3vec9into_iter8IntoIterNtNtCs6IAuOt8vWmF_3syn4attr4MetaENtNtNtNtCsfvfooZQ3Axs_4core4iter6traits10exact_size17ExactSizeIterator3lenCs28qvqeRNIp0_12tokio_macros, symObjAddr: 0x3E2C, symBinAddr: 0x4A7C, symSize: 0xF4 }
  - { offset: 0x80E9, size: 0x8, addend: 0x0, symName: __RNvYINtNtNtCse1nGBsou5OW_5alloc3vec9into_iter8IntoIterTNtNtCs6IAuOt8vWmF_3syn4attr4MetaNtNtBV_5token5CommaEENtNtNtNtCsfvfooZQ3Axs_4core4iter6traits10exact_size17ExactSizeIterator3lenCs28qvqeRNIp0_12tokio_macros, symObjAddr: 0x3F20, symBinAddr: 0x4B70, symSize: 0xF4 }
  - { offset: 0x8841, size: 0x8, addend: 0x0, symName: __RNCINvMNtNtCsfvfooZQ3Axs_4core3ops9try_traitINtB5_17NeverShortCircuituE10wrap_mut_2ujNCINvXs0_NtNtB9_5array4iterINtB1u_8IntoIterNtCs3cP53eQoTwO_11proc_macro29TokenTreeKj1_ENtNtNtNtB9_4iter6traits8iterator8Iterator4folduNCINvNvB2K_8for_each4callB22_NCINvXsa_NtB24_8fallbackNtB47_11TokenStreamINtNtB2O_7collect6ExtendB22_E6extendAB22_B2G_E0E0E0E0Cs28qvqeRNIp0_12tokio_macros, symObjAddr: 0x16A4, symBinAddr: 0x22F4, symSize: 0x28 }
  - { offset: 0xDB90, size: 0x8, addend: 0x0, symName: __RNvXsh_NtCs6IAuOt8vWmF_3syn5parseNvMNtNtB7_3pat7parsingNtBA_3Pat12parse_singleNtB5_6Parser6parse2Cs28qvqeRNIp0_12tokio_macros, symObjAddr: 0x3728, symBinAddr: 0x4378, symSize: 0x374 }
  - { offset: 0xDCA6, size: 0x8, addend: 0x0, symName: __RNvYNvMNtNtCs6IAuOt8vWmF_3syn3pat7parsingNtB7_3Pat12parse_singleNtNtB9_5parse6Parser5parseCs28qvqeRNIp0_12tokio_macros, symObjAddr: 0x4040, symBinAddr: 0x4C90, symSize: 0x88 }
  - { offset: 0xE640, size: 0x8, addend: 0x0, symName: __RINvXs3_NtNtCse1nGBsou5OW_5alloc3vec9into_iterINtB6_8IntoIterTNtNtCs6IAuOt8vWmF_3syn4attr4MetaNtNtB12_5token5CommaEENtNtNtNtCsfvfooZQ3Axs_4core4iter6traits8iterator8Iterator4folduNCINvNtNtB1W_8adapters3map8map_foldBX_BY_uNCNvXs8_NtB12_10punctuatedINtB3F_10PunctuatedBY_B1u_ENtNtB1U_7collect12IntoIterator9into_iter0NCINvNvB1Q_8for_each4callBY_NCINvMsi_B8_INtB8_3VecBY_E14extend_trustedINtB2W_3MapBI_B3x_EE0E0E0ECs28qvqeRNIp0_12tokio_macros, symObjAddr: 0xFE8, symBinAddr: 0x1C38, symSize: 0x14C }
  - { offset: 0xE810, size: 0x8, addend: 0x0, symName: __RNvXs3_NtNtCse1nGBsou5OW_5alloc3vec9into_iterINtB5_8IntoIterNtNtCs6IAuOt8vWmF_3syn4attr4MetaENtNtNtNtCsfvfooZQ3Axs_4core4iter6traits8iterator8Iterator4nextCs28qvqeRNIp0_12tokio_macros, symObjAddr: 0x2A98, symBinAddr: 0x36E8, symSize: 0xE4 }
  - { offset: 0xE984, size: 0x8, addend: 0x0, symName: __RNvXs3_NtNtCse1nGBsou5OW_5alloc3vec9into_iterINtB5_8IntoIterNtNtCs6IAuOt8vWmF_3syn4attr4MetaENtNtNtNtCsfvfooZQ3Axs_4core4iter6traits8iterator8Iterator9size_hintCs28qvqeRNIp0_12tokio_macros, symObjAddr: 0x2B7C, symBinAddr: 0x37CC, symSize: 0x6C }
  - { offset: 0xE9DF, size: 0x8, addend: 0x0, symName: __RNvXs3_NtNtCse1nGBsou5OW_5alloc3vec9into_iterINtB5_8IntoIterNtNtCs6IAuOt8vWmF_3syn4attr9AttributeENtNtNtNtCsfvfooZQ3Axs_4core4iter6traits8iterator8Iterator4nextCs28qvqeRNIp0_12tokio_macros, symObjAddr: 0x2BE8, symBinAddr: 0x3838, symSize: 0xE4 }
  - { offset: 0xEB53, size: 0x8, addend: 0x0, symName: __RNvXs3_NtNtCse1nGBsou5OW_5alloc3vec9into_iterINtB5_8IntoIterTNtNtCs6IAuOt8vWmF_3syn4attr4MetaNtNtB11_5token5CommaEENtNtNtNtCsfvfooZQ3Axs_4core4iter6traits8iterator8Iterator9size_hintCs28qvqeRNIp0_12tokio_macros, symObjAddr: 0x2CCC, symBinAddr: 0x391C, symSize: 0x6C }
  - { offset: 0xEC48, size: 0x8, addend: 0x0, symName: __RNvXNvXsd_NtNtCse1nGBsou5OW_5alloc3vec9into_iterINtB8_8IntoIterppENtNtNtCsfvfooZQ3Axs_4core3ops4drop4Drop4dropINtB2_9DropGuardNtNtCs6IAuOt8vWmF_3syn4attr4MetaNtNtBc_5alloc6GlobalEB12_4dropCs28qvqeRNIp0_12tokio_macros, symObjAddr: 0x204C, symBinAddr: 0x2C9C, symSize: 0x7C }
  - { offset: 0xED55, size: 0x8, addend: 0x0, symName: __RNvXNvXsd_NtNtCse1nGBsou5OW_5alloc3vec9into_iterINtB8_8IntoIterppENtNtNtCsfvfooZQ3Axs_4core3ops4drop4Drop4dropINtB2_9DropGuardTNtNtCs6IAuOt8vWmF_3syn4attr4MetaNtNtB25_5token5CommaENtNtBc_5alloc6GlobalEB12_4dropCs28qvqeRNIp0_12tokio_macros, symObjAddr: 0x20C8, symBinAddr: 0x2D18, symSize: 0x7C }
  - { offset: 0xEEB2, size: 0x8, addend: 0x0, symName: __RNvXsd_NtNtCse1nGBsou5OW_5alloc3vec9into_iterINtB5_8IntoIterNtNtCs6IAuOt8vWmF_3syn4attr4MetaENtNtNtCsfvfooZQ3Axs_4core3ops4drop4Drop4dropCs28qvqeRNIp0_12tokio_macros, symObjAddr: 0x35F8, symBinAddr: 0x4248, symSize: 0x98 }
  - { offset: 0xEF4C, size: 0x8, addend: 0x0, symName: __RNvXsd_NtNtCse1nGBsou5OW_5alloc3vec9into_iterINtB5_8IntoIterTNtNtCs6IAuOt8vWmF_3syn4attr4MetaNtNtB11_5token5CommaEENtNtNtCsfvfooZQ3Axs_4core3ops4drop4Drop4dropCs28qvqeRNIp0_12tokio_macros, symObjAddr: 0x3690, symBinAddr: 0x42E0, symSize: 0x98 }
  - { offset: 0xF881, size: 0x8, addend: 0x0, symName: __RNvXs6_NtCse1nGBsou5OW_5alloc5boxedINtB5_3BoxDNtNtCsfvfooZQ3Axs_4core5error5ErrorNtNtBM_6marker4SendNtB1j_4SyncEL_ENtNtNtBM_3ops4drop4Drop4dropCs28qvqeRNIp0_12tokio_macros, symObjAddr: 0x2E3C, symBinAddr: 0x3A8C, symSize: 0xC4 }
  - { offset: 0xF9B8, size: 0x8, addend: 0x0, symName: __RNvXs6_NtCse1nGBsou5OW_5alloc5boxedINtB5_3BoxINtNtCs6IAuOt8vWmF_3syn5drops6NoDropDINtNtBM_10punctuated12IterMutTraitNtNtBM_3pat3PatEp4ItemQB1Q_EL_EENtNtNtCsfvfooZQ3Axs_4core3ops4drop4Drop4dropCs28qvqeRNIp0_12tokio_macros, symObjAddr: 0x2F00, symBinAddr: 0x3B50, symSize: 0x118 }
  - { offset: 0xFAEF, size: 0x8, addend: 0x0, symName: __RNvXs6_NtCse1nGBsou5OW_5alloc5boxedINtB5_3BoxINtNtCs6IAuOt8vWmF_3syn5drops6NoDropDINtNtBM_10punctuated12IterMutTraitNtNtBM_3pat8FieldPatEp4ItemQB1Q_EL_EENtNtNtCsfvfooZQ3Axs_4core3ops4drop4Drop4dropCs28qvqeRNIp0_12tokio_macros, symObjAddr: 0x3018, symBinAddr: 0x3C68, symSize: 0x118 }
  - { offset: 0xFC26, size: 0x8, addend: 0x0, symName: __RNvXs6_NtCse1nGBsou5OW_5alloc5boxedINtB5_3BoxNtNtCs6IAuOt8vWmF_3syn4attr4MetaENtNtNtCsfvfooZQ3Axs_4core3ops4drop4Drop4dropCs28qvqeRNIp0_12tokio_macros, symObjAddr: 0x3130, symBinAddr: 0x3D80, symSize: 0xB0 }
  - { offset: 0xFD5D, size: 0x8, addend: 0x0, symName: __RNvXs6_NtCse1nGBsou5OW_5alloc5boxedINtB5_3BoxNtNtNtCscOYdFFY2T5N_3std2io5error6CustomENtNtNtCsfvfooZQ3Axs_4core3ops4drop4Drop4dropCs28qvqeRNIp0_12tokio_macros, symObjAddr: 0x31E0, symBinAddr: 0x3E30, symSize: 0xB0 }
  - { offset: 0xFE9A, size: 0x8, addend: 0x0, symName: __RNvXsC_NtCse1nGBsou5OW_5alloc5boxedINtB5_3BoxNtNtCs6IAuOt8vWmF_3syn3pat3PatEINtNtCsfvfooZQ3Axs_4core7convert5AsMutBH_E6as_mutCs28qvqeRNIp0_12tokio_macros, symObjAddr: 0x3400, symBinAddr: 0x4050, symSize: 0x18 }
  - { offset: 0xFEDA, size: 0x8, addend: 0x0, symName: __RNvXsC_NtCse1nGBsou5OW_5alloc5boxedINtB5_3BoxNtNtCs6IAuOt8vWmF_3syn3pat8FieldPatEINtNtCsfvfooZQ3Axs_4core7convert5AsMutBH_E6as_mutCs28qvqeRNIp0_12tokio_macros, symObjAddr: 0x3418, symBinAddr: 0x4068, symSize: 0x18 }
  - { offset: 0x1043C, size: 0x8, addend: 0x0, symName: __RINvMNtCsfvfooZQ3Axs_4core6optionINtB3_6OptionINtNtCse1nGBsou5OW_5alloc5boxed3BoxNtNtCs6IAuOt8vWmF_3syn4attr4MetaEE3mapB1h_NCNvXs8_NtB1l_10punctuatedINtB25_10PunctuatedB1h_NtNtB1l_5token5CommaENtNtNtNtB5_4iter6traits7collect12IntoIterator9into_iters_0ECs28qvqeRNIp0_12tokio_macros, symObjAddr: 0x0, symBinAddr: 0xC50, symSize: 0x78 }
  - { offset: 0x104DF, size: 0x8, addend: 0x0, symName: __RINvMNtCsfvfooZQ3Axs_4core6optionINtB3_6OptionNtCs3cP53eQoTwO_11proc_macro211TokenStreamE14unwrap_or_elseNCNvNtCs28qvqeRNIp0_12tokio_macros5entry11parse_knobss0_0EB1L_, symObjAddr: 0x78, symBinAddr: 0xCC8, symSize: 0x7C }
  - { offset: 0x10554, size: 0x8, addend: 0x0, symName: __RINvMNtCsfvfooZQ3Axs_4core6optionINtB3_6OptionNtCs3cP53eQoTwO_11proc_macro29TokenTreeE11map_or_elseNtBK_4SpanNvMse_BK_B1z_9call_siteNCNvNtCs28qvqeRNIp0_12tokio_macros5entry11parse_knobs0EB2c_, symObjAddr: 0xF4, symBinAddr: 0xD44, symSize: 0xE4 }
  - { offset: 0x105D0, size: 0x8, addend: 0x0, symName: __RINvMNtCsfvfooZQ3Axs_4core6optionINtB3_6OptionNtCs3cP53eQoTwO_11proc_macro29TokenTreeE6map_orNtBK_4SpanNCNvNtCs28qvqeRNIp0_12tokio_macros5entry11parse_knobss_0EB1J_, symObjAddr: 0x1D8, symBinAddr: 0xE28, symSize: 0xC8 }
  - { offset: 0x1065B, size: 0x8, addend: 0x0, symName: __RINvMNtCsfvfooZQ3Axs_4core6optionINtB3_6OptionNtNtCs6IAuOt8vWmF_3syn4path4PathE3mapNtCs3cP53eQoTwO_11proc_macro211TokenStreamNvYBI_NtNtCs2cqEZUIJimJ_5quote9to_tokens8ToTokens17into_token_streamECs28qvqeRNIp0_12tokio_macros, symObjAddr: 0x2A0, symBinAddr: 0xEF0, symSize: 0x9C }
  - { offset: 0x106F9, size: 0x8, addend: 0x0, symName: __RINvMNtCsfvfooZQ3Axs_4core6optionINtB3_6OptionQINtNtCse1nGBsou5OW_5alloc5boxed3BoxNtNtCs6IAuOt8vWmF_3syn3pat3PatEE3mapQB1i_NvYBJ_INtNtB5_7convert5AsMutB1i_E6as_mutECs28qvqeRNIp0_12tokio_macros, symObjAddr: 0x33C, symBinAddr: 0xF8C, symSize: 0x50 }
  - { offset: 0x10796, size: 0x8, addend: 0x0, symName: __RINvMNtCsfvfooZQ3Axs_4core6optionINtB3_6OptionQINtNtCse1nGBsou5OW_5alloc5boxed3BoxNtNtCs6IAuOt8vWmF_3syn3pat8FieldPatEE3mapQB1i_NvYBJ_INtNtB5_7convert5AsMutB1i_E6as_mutECs28qvqeRNIp0_12tokio_macros, symObjAddr: 0x38C, symBinAddr: 0xFDC, symSize: 0x50 }
  - { offset: 0x1080E, size: 0x8, addend: 0x0, symName: __RINvMNtCsfvfooZQ3Axs_4core6optionINtB3_6OptionQNtNtCs6IAuOt8vWmF_3syn3pat3PatE7or_elseNCNvXsF_NtBN_10punctuatedINtB1u_14PrivateIterMutBJ_NtNtBN_5token2OrENtNtNtNtB5_4iter6traits8iterator8Iterator4nexts_0ECs28qvqeRNIp0_12tokio_macros, symObjAddr: 0x3DC, symBinAddr: 0x102C, symSize: 0xA8 }
  - { offset: 0x10870, size: 0x8, addend: 0x0, symName: __RINvMNtCsfvfooZQ3Axs_4core6optionINtB3_6OptionQNtNtCs6IAuOt8vWmF_3syn3pat3PatE7or_elseNCNvXsF_NtBN_10punctuatedINtB1u_14PrivateIterMutBJ_NtNtBN_5token5CommaENtNtNtNtB5_4iter6traits8iterator8Iterator4nexts_0ECs28qvqeRNIp0_12tokio_macros, symObjAddr: 0x484, symBinAddr: 0x10D4, symSize: 0xA8 }
  - { offset: 0x10906, size: 0x8, addend: 0x0, symName: __RINvMNtCsfvfooZQ3Axs_4core6optionINtB3_6OptionQNtNtCs6IAuOt8vWmF_3syn3pat3PatE7or_elseNCNvXsG_NtBN_10punctuatedINtB1u_14PrivateIterMutBJ_NtNtBN_5token2OrENtNtNtNtB5_4iter6traits12double_ended19DoubleEndedIterator9next_back0ECs28qvqeRNIp0_12tokio_macros, symObjAddr: 0x52C, symBinAddr: 0x117C, symSize: 0xA8 }
  - { offset: 0x1099C, size: 0x8, addend: 0x0, symName: __RINvMNtCsfvfooZQ3Axs_4core6optionINtB3_6OptionQNtNtCs6IAuOt8vWmF_3syn3pat3PatE7or_elseNCNvXsG_NtBN_10punctuatedINtB1u_14PrivateIterMutBJ_NtNtBN_5token5CommaENtNtNtNtB5_4iter6traits12double_ended19DoubleEndedIterator9next_back0ECs28qvqeRNIp0_12tokio_macros, symObjAddr: 0x5D4, symBinAddr: 0x1224, symSize: 0xA8 }
  - { offset: 0x10A0B, size: 0x8, addend: 0x0, symName: __RINvMNtCsfvfooZQ3Axs_4core6optionINtB3_6OptionQNtNtCs6IAuOt8vWmF_3syn3pat8FieldPatE7or_elseNCNvXsF_NtBN_10punctuatedINtB1z_14PrivateIterMutBJ_NtNtBN_5token5CommaENtNtNtNtB5_4iter6traits8iterator8Iterator4nexts_0ECs28qvqeRNIp0_12tokio_macros, symObjAddr: 0x67C, symBinAddr: 0x12CC, symSize: 0xA8 }
  - { offset: 0x10AA1, size: 0x8, addend: 0x0, symName: __RINvMNtCsfvfooZQ3Axs_4core6optionINtB3_6OptionQNtNtCs6IAuOt8vWmF_3syn3pat8FieldPatE7or_elseNCNvXsG_NtBN_10punctuatedINtB1z_14PrivateIterMutBJ_NtNtBN_5token5CommaENtNtNtNtB5_4iter6traits12double_ended19DoubleEndedIterator9next_back0ECs28qvqeRNIp0_12tokio_macros, symObjAddr: 0x724, symBinAddr: 0x1374, symSize: 0xA8 }
  - { offset: 0x10B03, size: 0x8, addend: 0x0, symName: __RINvMNtCsfvfooZQ3Axs_4core6optionINtB3_6OptionQTNtNtCs6IAuOt8vWmF_3syn3pat3PatNtNtBO_5token2OrEE3mapQBK_NCNCNvXsG_NtBO_10punctuatedINtB1O_14PrivateIterMutBK_B1e_ENtNtNtNtB5_4iter6traits12double_ended19DoubleEndedIterator9next_back00ECs28qvqeRNIp0_12tokio_macros, symObjAddr: 0x7CC, symBinAddr: 0x141C, symSize: 0x50 }
  - { offset: 0x10B6E, size: 0x8, addend: 0x0, symName: __RINvMNtCsfvfooZQ3Axs_4core6optionINtB3_6OptionQTNtNtCs6IAuOt8vWmF_3syn3pat3PatNtNtBO_5token2OrEE3mapQBK_NCNvXsF_NtBO_10punctuatedINtB1M_14PrivateIterMutBK_B1e_ENtNtNtNtB5_4iter6traits8iterator8Iterator4next0ECs28qvqeRNIp0_12tokio_macros, symObjAddr: 0x81C, symBinAddr: 0x146C, symSize: 0x50 }
  - { offset: 0x10BD9, size: 0x8, addend: 0x0, symName: __RINvMNtCsfvfooZQ3Axs_4core6optionINtB3_6OptionQTNtNtCs6IAuOt8vWmF_3syn3pat3PatNtNtBO_5token5CommaEE3mapQBK_NCNCNvXsG_NtBO_10punctuatedINtB1R_14PrivateIterMutBK_B1e_ENtNtNtNtB5_4iter6traits12double_ended19DoubleEndedIterator9next_back00ECs28qvqeRNIp0_12tokio_macros, symObjAddr: 0x86C, symBinAddr: 0x14BC, symSize: 0x50 }
  - { offset: 0x10C44, size: 0x8, addend: 0x0, symName: __RINvMNtCsfvfooZQ3Axs_4core6optionINtB3_6OptionQTNtNtCs6IAuOt8vWmF_3syn3pat3PatNtNtBO_5token5CommaEE3mapQBK_NCNvXsF_NtBO_10punctuatedINtB1P_14PrivateIterMutBK_B1e_ENtNtNtNtB5_4iter6traits8iterator8Iterator4next0ECs28qvqeRNIp0_12tokio_macros, symObjAddr: 0x8BC, symBinAddr: 0x150C, symSize: 0x50 }
  - { offset: 0x10CAF, size: 0x8, addend: 0x0, symName: __RINvMNtCsfvfooZQ3Axs_4core6optionINtB3_6OptionQTNtNtCs6IAuOt8vWmF_3syn3pat8FieldPatNtNtBO_5token5CommaEE3mapQBK_NCNCNvXsG_NtBO_10punctuatedINtB1W_14PrivateIterMutBK_B1j_ENtNtNtNtB5_4iter6traits12double_ended19DoubleEndedIterator9next_back00ECs28qvqeRNIp0_12tokio_macros, symObjAddr: 0x90C, symBinAddr: 0x155C, symSize: 0x50 }
  - { offset: 0x10D1A, size: 0x8, addend: 0x0, symName: __RINvMNtCsfvfooZQ3Axs_4core6optionINtB3_6OptionQTNtNtCs6IAuOt8vWmF_3syn3pat8FieldPatNtNtBO_5token5CommaEE3mapQBK_NCNvXsF_NtBO_10punctuatedINtB1U_14PrivateIterMutBK_B1j_ENtNtNtNtB5_4iter6traits8iterator8Iterator4next0ECs28qvqeRNIp0_12tokio_macros, symObjAddr: 0x95C, symBinAddr: 0x15AC, symSize: 0x50 }
  - { offset: 0x10D9F, size: 0x8, addend: 0x0, symName: __RINvMNtCsfvfooZQ3Axs_4core6optionINtB3_6OptionRNtCs3cP53eQoTwO_11proc_macro25IdentE10ok_or_elseNtNtCs6IAuOt8vWmF_3syn5error5ErrorNCNvNtCs28qvqeRNIp0_12tokio_macros5entry12build_config0EB29_, symObjAddr: 0x9AC, symBinAddr: 0x15FC, symSize: 0x7C }
  - { offset: 0x10E17, size: 0x8, addend: 0x0, symName: __RINvMNtCsfvfooZQ3Axs_4core6optionINtB3_6OptionRNtCs3cP53eQoTwO_11proc_macro25IdentE10ok_or_elseNtNtCs6IAuOt8vWmF_3syn5error5ErrorNCNvNtCs28qvqeRNIp0_12tokio_macros5entry12build_configs_0EB29_, symObjAddr: 0xA28, symBinAddr: 0x1678, symSize: 0x7C }
  - { offset: 0x10EA9, size: 0x8, addend: 0x0, symName: __RINvMNtCsfvfooZQ3Axs_4core6optionINtB3_6OptionRNtNtCs6IAuOt8vWmF_3syn4attr9AttributeE7or_elseNCINvXs_NtNtNtB5_4iter8adapters5chainINtB1B_5ChainINtNtNtB5_5slice4iter4IterBJ_EB2h_ENtNtNtB1F_6traits8iterator8Iterator4findNCNvNtCs28qvqeRNIp0_12tokio_macros5entry4test0Es_0EB3A_, symObjAddr: 0xAA4, symBinAddr: 0x16F4, symSize: 0xA8 }
  - { offset: 0x10F29, size: 0x8, addend: 0x0, symName: __RINvMNtCsfvfooZQ3Axs_4core6optionINtB3_6OptionTjNtCs3cP53eQoTwO_11proc_macro24SpanEE3mapjNCNvMs0_NtCs28qvqeRNIp0_12tokio_macros5entryNtB1x_13Configuration5build0EB1z_, symObjAddr: 0xB4C, symBinAddr: 0x179C, symSize: 0x60 }
  - { offset: 0x1102A, size: 0x8, addend: 0x0, symName: __RINvMs3_NtNtCs9i5KxIbZ5ph_10proc_macro6bridge6bufferNtB6_6Buffer17extend_from_arrayKj4_ECs28qvqeRNIp0_12tokio_macros, symObjAddr: 0xBAC, symBinAddr: 0x17FC, symSize: 0x16C }
  - { offset: 0x111F0, size: 0x8, addend: 0x0, symName: __RINvMs3_NtNtCs9i5KxIbZ5ph_10proc_macro6bridge6bufferNtB6_6Buffer17extend_from_arrayKj8_ECs28qvqeRNIp0_12tokio_macros, symObjAddr: 0xD18, symBinAddr: 0x1968, symSize: 0x16C }
  - { offset: 0x114A6, size: 0x8, addend: 0x0, symName: __RNvMNtCsfvfooZQ3Axs_4core6optionINtB2_6OptionINtNtCse1nGBsou5OW_5alloc5boxed3BoxNtNtCs6IAuOt8vWmF_3syn3pat3PatEE6as_mutCs28qvqeRNIp0_12tokio_macros, symObjAddr: 0x1824, symBinAddr: 0x2474, symSize: 0x4C }
  - { offset: 0x114FD, size: 0x8, addend: 0x0, symName: __RNvMNtCsfvfooZQ3Axs_4core6optionINtB2_6OptionINtNtCse1nGBsou5OW_5alloc5boxed3BoxNtNtCs6IAuOt8vWmF_3syn3pat8FieldPatEE6as_mutCs28qvqeRNIp0_12tokio_macros, symObjAddr: 0x1870, symBinAddr: 0x24C0, symSize: 0x4C }
  - { offset: 0x11554, size: 0x8, addend: 0x0, symName: __RNvMNtCsfvfooZQ3Axs_4core6optionINtB2_6OptionINtNtCse1nGBsou5OW_5alloc5boxed3BoxNtNtCs6IAuOt8vWmF_3syn4attr4MetaEE4takeCs28qvqeRNIp0_12tokio_macros, symObjAddr: 0x18BC, symBinAddr: 0x250C, symSize: 0x28 }
  - { offset: 0x11603, size: 0x8, addend: 0x0, symName: __RNvMNtCsfvfooZQ3Axs_4core6optionINtB2_6OptionINtNtCse1nGBsou5OW_5alloc5boxed3BoxNtNtCs6IAuOt8vWmF_3syn4attr4MetaEE7is_noneCs28qvqeRNIp0_12tokio_macros, symObjAddr: 0x18E4, symBinAddr: 0x2534, symSize: 0x28 }
  - { offset: 0x1164D, size: 0x8, addend: 0x0, symName: __RNvMNtCsfvfooZQ3Axs_4core6optionINtB2_6OptionINtNtCse1nGBsou5OW_5alloc5boxed3BoxNtNtCs6IAuOt8vWmF_3syn4attr4MetaEE7is_someCs28qvqeRNIp0_12tokio_macros, symObjAddr: 0x190C, symBinAddr: 0x255C, symSize: 0x28 }
  - { offset: 0x11679, size: 0x8, addend: 0x0, symName: __RNvMNtCsfvfooZQ3Axs_4core6optionINtB2_6OptionNtCs3cP53eQoTwO_11proc_macro211TokenStreamE17unwrap_or_defaultCs28qvqeRNIp0_12tokio_macros, symObjAddr: 0x1934, symBinAddr: 0x2584, symSize: 0x70 }
  - { offset: 0x116ED, size: 0x8, addend: 0x0, symName: __RNvMNtCsfvfooZQ3Axs_4core6optionINtB2_6OptionNtNtCs28qvqeRNIp0_12tokio_macros5entry13RuntimeFlavorE7is_noneBL_, symObjAddr: 0x19A4, symBinAddr: 0x25F4, symSize: 0x28 }
  - { offset: 0x11737, size: 0x8, addend: 0x0, symName: __RNvMNtCsfvfooZQ3Axs_4core6optionINtB2_6OptionNtNtCs28qvqeRNIp0_12tokio_macros5entry13RuntimeFlavorE7is_someBL_, symObjAddr: 0x19CC, symBinAddr: 0x261C, symSize: 0x28 }
  - { offset: 0x11763, size: 0x8, addend: 0x0, symName: __RNvMNtCsfvfooZQ3Axs_4core6optionINtB2_6OptionNtNtCs28qvqeRNIp0_12tokio_macros5entry13RuntimeFlavorE9unwrap_orBL_, symObjAddr: 0x19F4, symBinAddr: 0x2644, symSize: 0x5C }
  - { offset: 0x117C9, size: 0x8, addend: 0x0, symName: __RNvMNtCsfvfooZQ3Axs_4core6optionINtB2_6OptionNtNtCs6IAuOt8vWmF_3syn4path4PathE7is_someCs28qvqeRNIp0_12tokio_macros, symObjAddr: 0x1A50, symBinAddr: 0x26A0, symSize: 0x2C }
  - { offset: 0x1181E, size: 0x8, addend: 0x0, symName: __RNvMNtCsfvfooZQ3Axs_4core6optionINtB2_6OptionNtNtCs6IAuOt8vWmF_3syn5token5AsyncE7is_noneCs28qvqeRNIp0_12tokio_macros, symObjAddr: 0x1A7C, symBinAddr: 0x26CC, symSize: 0x20 }
  - { offset: 0x11893, size: 0x8, addend: 0x0, symName: __RNvMNtCsfvfooZQ3Axs_4core6optionINtB2_6OptionTNtNtCs28qvqeRNIp0_12tokio_macros5entry14UnhandledPanicNtCs3cP53eQoTwO_11proc_macro24SpanEE7is_someBM_, symObjAddr: 0x1A9C, symBinAddr: 0x26EC, symSize: 0x28 }
  - { offset: 0x118EA, size: 0x8, addend: 0x0, symName: __RNvMNtCsfvfooZQ3Axs_4core6optionINtB2_6OptionTbNtCs3cP53eQoTwO_11proc_macro24SpanEE7is_someCs28qvqeRNIp0_12tokio_macros, symObjAddr: 0x1AC4, symBinAddr: 0x2714, symSize: 0x28 }
  - { offset: 0x11923, size: 0x8, addend: 0x0, symName: __RNvMNtCsfvfooZQ3Axs_4core6optionINtB2_6OptionTjNtCs3cP53eQoTwO_11proc_macro24SpanEE7is_someCs28qvqeRNIp0_12tokio_macros, symObjAddr: 0x1AEC, symBinAddr: 0x273C, symSize: 0x20 }
  - { offset: 0x1195C, size: 0x8, addend: 0x0, symName: __RNvMs0_NtCsfvfooZQ3Axs_4core6optionINtB5_6OptionRNtCs3cP53eQoTwO_11proc_macro211TokenStreamE6clonedCs28qvqeRNIp0_12tokio_macros, symObjAddr: 0x1B0C, symBinAddr: 0x275C, symSize: 0x6C }
  - { offset: 0x119B8, size: 0x8, addend: 0x0, symName: __RNvMs3_NtNtCs9i5KxIbZ5ph_10proc_macro6bridge6bufferNtB5_6Buffer17extend_from_sliceCs28qvqeRNIp0_12tokio_macros, symObjAddr: 0x1B78, symBinAddr: 0x27C8, symSize: 0x164 }
  - { offset: 0x11B74, size: 0x8, addend: 0x0, symName: __RNvMs3_NtNtCs9i5KxIbZ5ph_10proc_macro6bridge6bufferNtB5_6Buffer4pushCs28qvqeRNIp0_12tokio_macros, symObjAddr: 0x1CDC, symBinAddr: 0x292C, symSize: 0x134 }
  - { offset: 0x11D33, size: 0x8, addend: 0x0, symName: __RNvMs4_NtNtCsfvfooZQ3Axs_4core5slice4iterINtB5_4IterNtCs3cP53eQoTwO_11proc_macro25IdentE3newCs28qvqeRNIp0_12tokio_macros, symObjAddr: 0x1E10, symBinAddr: 0x2A60, symSize: 0x58 }
  - { offset: 0x11EF4, size: 0x8, addend: 0x0, symName: __RNvMsa_NtNtCsfvfooZQ3Axs_4core5slice4iterINtB5_7IterMutTNtNtCs6IAuOt8vWmF_3syn3pat3PatNtNtBW_5token2OrEE3newCs28qvqeRNIp0_12tokio_macros, symObjAddr: 0x1E68, symBinAddr: 0x2AB8, symSize: 0x58 }
  - { offset: 0x120B5, size: 0x8, addend: 0x0, symName: __RNvMsa_NtNtCsfvfooZQ3Axs_4core5slice4iterINtB5_7IterMutTNtNtCs6IAuOt8vWmF_3syn3pat3PatNtNtBW_5token5CommaEE3newCs28qvqeRNIp0_12tokio_macros, symObjAddr: 0x1EC0, symBinAddr: 0x2B10, symSize: 0x58 }
  - { offset: 0x12276, size: 0x8, addend: 0x0, symName: __RNvMsa_NtNtCsfvfooZQ3Axs_4core5slice4iterINtB5_7IterMutTNtNtCs6IAuOt8vWmF_3syn3pat8FieldPatNtNtBW_5token5CommaEE3newCs28qvqeRNIp0_12tokio_macros, symObjAddr: 0x1F18, symBinAddr: 0x2B68, symSize: 0x58 }
  - { offset: 0x123A4, size: 0x8, addend: 0x0, symName: __RNvXNtCs2cqEZUIJimJ_5quote9to_tokensRINtNtCse1nGBsou5OW_5alloc5boxed3BoxNtNtCs6IAuOt8vWmF_3syn2ty4TypeENtB2_8ToTokens9to_tokensCs28qvqeRNIp0_12tokio_macros, symObjAddr: 0x200C, symBinAddr: 0x2C5C, symSize: 0x40 }
  - { offset: 0x123F4, size: 0x8, addend: 0x0, symName: __RNvYINtNtNtCsfvfooZQ3Axs_4core5slice4iter4IterNtCs3cP53eQoTwO_11proc_macro25IdentENtNtNtCs2cqEZUIJimJ_5quote9___private3ext14RepIteratorExt15quote_into_iterCs28qvqeRNIp0_12tokio_macros, symObjAddr: 0x4014, symBinAddr: 0x4C64, symSize: 0x2C }
  - { offset: 0x1369E, size: 0x8, addend: 0x0, symName: __RINvCs6IAuOt8vWmF_3syn6parse2NtNtCs28qvqeRNIp0_12tokio_macros5entry6ItemFnEBv_, symObjAddr: 0x0, symBinAddr: 0x4D18, symSize: 0x24 }
  - { offset: 0x136C0, size: 0x8, addend: 0x0, symName: ___rustc_proc_macro_decls_18e0e39fd68476c8__, symObjAddr: 0x73C0, symBinAddr: 0x214460, symSize: 0x0 }
  - { offset: 0x1393F, size: 0x8, addend: 0x0, symName: __RNvCs28qvqeRNIp0_12tokio_macros4main, symObjAddr: 0x5C10, symBinAddr: 0xA8AC, symSize: 0x114 }
  - { offset: 0x13979, size: 0x8, addend: 0x0, symName: __RNvCs28qvqeRNIp0_12tokio_macros7main_rt, symObjAddr: 0x5D24, symBinAddr: 0xA9C0, symSize: 0x114 }
  - { offset: 0x139B6, size: 0x8, addend: 0x0, symName: __RNvCs28qvqeRNIp0_12tokio_macros4test, symObjAddr: 0x5E38, symBinAddr: 0xAAD4, symSize: 0x114 }
  - { offset: 0x139F3, size: 0x8, addend: 0x0, symName: __RNvCs28qvqeRNIp0_12tokio_macros7test_rt, symObjAddr: 0x5F4C, symBinAddr: 0xABE8, symSize: 0x114 }
  - { offset: 0x13A30, size: 0x8, addend: 0x0, symName: __RNvCs28qvqeRNIp0_12tokio_macros9main_fail, symObjAddr: 0x6060, symBinAddr: 0xACFC, symSize: 0x108 }
  - { offset: 0x13A6D, size: 0x8, addend: 0x0, symName: __RNvCs28qvqeRNIp0_12tokio_macros9test_fail, symObjAddr: 0x6168, symBinAddr: 0xAE04, symSize: 0x108 }
  - { offset: 0x13AAA, size: 0x8, addend: 0x0, symName: __RNvCs28qvqeRNIp0_12tokio_macros31select_priv_declare_output_enum, symObjAddr: 0x6270, symBinAddr: 0xAF0C, symSize: 0x30 }
  - { offset: 0x13AD8, size: 0x8, addend: 0x0, symName: __RNvCs28qvqeRNIp0_12tokio_macros25select_priv_clean_pattern, symObjAddr: 0x62A0, symBinAddr: 0xAF3C, symSize: 0x30 }
  - { offset: 0x144D9, size: 0x8, addend: 0x0, symName: __RNvXsV_NtCs9i5KxIbZ5ph_10proc_macro6bridgeINtNtCsfvfooZQ3Axs_4core6result6ResultINtNtBJ_6option6OptionNtNtB5_6client11TokenStreamEuEINtNtB5_3rpc6EncodeuE6encodeCs28qvqeRNIp0_12tokio_macros, symObjAddr: 0x406C, symBinAddr: 0x8D08, symSize: 0x108 }
  - { offset: 0x1459D, size: 0x8, addend: 0x0, symName: __RNvXsV_NtCs9i5KxIbZ5ph_10proc_macro6bridgeINtNtCsfvfooZQ3Axs_4core6result6ResultuNtNtB5_3rpc12PanicMessageEINtB1j_6EncodeuE6encodeCs28qvqeRNIp0_12tokio_macros, symObjAddr: 0x4174, symBinAddr: 0x8E10, symSize: 0x12C }
  - { offset: 0x148EF, size: 0x8, addend: 0x0, symName: __RNvXsU_Cs9i5KxIbZ5ph_10proc_macroNtB5_11TokenStreamNtNtCsfvfooZQ3Axs_4core5clone5Clone5cloneCs28qvqeRNIp0_12tokio_macros, symObjAddr: 0x4008, symBinAddr: 0x8CA4, symSize: 0x64 }
  - { offset: 0x18035, size: 0x8, addend: 0x0, symName: __RINvNtCsfvfooZQ3Axs_4core3ptr13drop_in_placeANtCs3cP53eQoTwO_11proc_macro29TokenTreej1_ECs28qvqeRNIp0_12tokio_macros, symObjAddr: 0x738, symBinAddr: 0x5450, symSize: 0xA4 }
  - { offset: 0x18064, size: 0x8, addend: 0x0, symName: __RINvNtCsfvfooZQ3Axs_4core3ptr13drop_in_placeINtNtB4_4cell10UnsafeCellNtNtNtCs9i5KxIbZ5ph_10proc_macro6bridge6client6BridgeEECs28qvqeRNIp0_12tokio_macros, symObjAddr: 0x824, symBinAddr: 0x54F4, symSize: 0x24 }
  - { offset: 0x18093, size: 0x8, addend: 0x0, symName: __RINvNtCsfvfooZQ3Axs_4core3ptr13drop_in_placeINtNtB4_4cell7RefCellNtNtNtCs9i5KxIbZ5ph_10proc_macro6bridge6client6BridgeEECs28qvqeRNIp0_12tokio_macros, symObjAddr: 0x848, symBinAddr: 0x5518, symSize: 0x24 }
  - { offset: 0x180C2, size: 0x8, addend: 0x0, symName: __RINvNtCsfvfooZQ3Axs_4core3ptr13drop_in_placeINtNtB4_6option4ItemNtNtCs6IAuOt8vWmF_3syn4attr4MetaEECs28qvqeRNIp0_12tokio_macros, symObjAddr: 0x86C, symBinAddr: 0x553C, symSize: 0x24 }
  - { offset: 0x180F1, size: 0x8, addend: 0x0, symName: __RINvNtCsfvfooZQ3Axs_4core3ptr13drop_in_placeINtNtB4_6option6OptionINtNtCse1nGBsou5OW_5alloc5boxed3BoxNtNtCs6IAuOt8vWmF_3syn4attr4MetaEEECs28qvqeRNIp0_12tokio_macros, symObjAddr: 0x890, symBinAddr: 0x5560, symSize: 0x44 }
  - { offset: 0x18120, size: 0x8, addend: 0x0, symName: __RINvNtCsfvfooZQ3Axs_4core3ptr13drop_in_placeINtNtB4_6option6OptionNtNtCs6IAuOt8vWmF_3syn4attr4MetaEECs28qvqeRNIp0_12tokio_macros, symObjAddr: 0x8D4, symBinAddr: 0x55A4, symSize: 0x44 }
  - { offset: 0x1814F, size: 0x8, addend: 0x0, symName: __RINvNtCsfvfooZQ3Axs_4core3ptr13drop_in_placeINtNtB4_6option6OptionNtNtCs6IAuOt8vWmF_3syn4path4PathEECs28qvqeRNIp0_12tokio_macros, symObjAddr: 0x918, symBinAddr: 0x55E8, symSize: 0x48 }
  - { offset: 0x1817E, size: 0x8, addend: 0x0, symName: __RINvNtCsfvfooZQ3Axs_4core3ptr13drop_in_placeINtNtB4_6option8IntoIterNtNtCs6IAuOt8vWmF_3syn4attr4MetaEECs28qvqeRNIp0_12tokio_macros, symObjAddr: 0x960, symBinAddr: 0x5630, symSize: 0x24 }
  - { offset: 0x181AD, size: 0x8, addend: 0x0, symName: __RINvNtCsfvfooZQ3Axs_4core3ptr13drop_in_placeINtNtB4_6result6ResultNtNtCs6IAuOt8vWmF_3syn3pat3PatNtNtB16_5error5ErrorEECs28qvqeRNIp0_12tokio_macros, symObjAddr: 0x984, symBinAddr: 0x5654, symSize: 0x60 }
  - { offset: 0x181DC, size: 0x8, addend: 0x0, symName: __RINvNtCsfvfooZQ3Axs_4core3ptr13drop_in_placeINtNtCs6IAuOt8vWmF_3syn10punctuated10PunctuatedNtNtBL_4attr4MetaNtNtBL_5token5CommaEECs28qvqeRNIp0_12tokio_macros, symObjAddr: 0x9E4, symBinAddr: 0x56B4, symSize: 0x60 }
  - { offset: 0x1820B, size: 0x8, addend: 0x0, symName: __RINvNtCsfvfooZQ3Axs_4core3ptr13drop_in_placeINtNtCs6IAuOt8vWmF_3syn10punctuated7IterMutNtNtBL_3pat3PatEECs28qvqeRNIp0_12tokio_macros, symObjAddr: 0xA74, symBinAddr: 0x5714, symSize: 0x24 }
  - { offset: 0x1823A, size: 0x8, addend: 0x0, symName: __RINvNtCsfvfooZQ3Axs_4core3ptr13drop_in_placeINtNtCs6IAuOt8vWmF_3syn10punctuated7IterMutNtNtBL_3pat8FieldPatEECs28qvqeRNIp0_12tokio_macros, symObjAddr: 0xA98, symBinAddr: 0x5738, symSize: 0x24 }
  - { offset: 0x18269, size: 0x8, addend: 0x0, symName: __RINvNtCsfvfooZQ3Axs_4core3ptr13drop_in_placeINtNtCs6IAuOt8vWmF_3syn10punctuated8IntoIterNtNtBL_4attr4MetaEECs28qvqeRNIp0_12tokio_macros, symObjAddr: 0xABC, symBinAddr: 0x575C, symSize: 0x24 }
  - { offset: 0x18298, size: 0x8, addend: 0x0, symName: __RINvNtCsfvfooZQ3Axs_4core3ptr13drop_in_placeINtNtCse1nGBsou5OW_5alloc3vec3VecNtCs3cP53eQoTwO_11proc_macro211TokenStreamEECs28qvqeRNIp0_12tokio_macros, symObjAddr: 0xAE0, symBinAddr: 0x5780, symSize: 0x5C }
  - { offset: 0x182C7, size: 0x8, addend: 0x0, symName: __RINvNtCsfvfooZQ3Axs_4core3ptr13drop_in_placeINtNtCse1nGBsou5OW_5alloc3vec3VecNtCs3cP53eQoTwO_11proc_macro25IdentEECs28qvqeRNIp0_12tokio_macros, symObjAddr: 0xB3C, symBinAddr: 0x57DC, symSize: 0x5C }
  - { offset: 0x182F6, size: 0x8, addend: 0x0, symName: __RINvNtCsfvfooZQ3Axs_4core3ptr13drop_in_placeINtNtCse1nGBsou5OW_5alloc3vec3VecNtNtCs6IAuOt8vWmF_3syn4attr4MetaEECs28qvqeRNIp0_12tokio_macros, symObjAddr: 0xB98, symBinAddr: 0x5838, symSize: 0x5C }
  - { offset: 0x18325, size: 0x8, addend: 0x0, symName: __RINvNtCsfvfooZQ3Axs_4core3ptr13drop_in_placeINtNtCse1nGBsou5OW_5alloc3vec3VecTNtNtCs6IAuOt8vWmF_3syn4attr4MetaNtNtB1i_5token5CommaEEECs28qvqeRNIp0_12tokio_macros, symObjAddr: 0xBF4, symBinAddr: 0x5894, symSize: 0x5C }
  - { offset: 0x18354, size: 0x8, addend: 0x0, symName: __RINvNtCsfvfooZQ3Axs_4core3ptr13drop_in_placeINtNtCse1nGBsou5OW_5alloc5boxed3BoxDNtNtB4_5error5ErrorNtNtB4_6marker4SendNtB1B_4SyncEL_EECs28qvqeRNIp0_12tokio_macros, symObjAddr: 0xC50, symBinAddr: 0x58F0, symSize: 0x80 }
  - { offset: 0x18383, size: 0x8, addend: 0x0, symName: __RINvNtCsfvfooZQ3Axs_4core3ptr13drop_in_placeINtNtCse1nGBsou5OW_5alloc5boxed3BoxINtNtCs6IAuOt8vWmF_3syn5drops6NoDropDINtNtB1k_10punctuated12IterMutTraitNtNtB1k_3pat3PatEp4ItemQB2p_EL_EEECs28qvqeRNIp0_12tokio_macros, symObjAddr: 0xCD0, symBinAddr: 0x5970, symSize: 0x2C }
  - { offset: 0x183B2, size: 0x8, addend: 0x0, symName: __RINvNtCsfvfooZQ3Axs_4core3ptr13drop_in_placeINtNtCse1nGBsou5OW_5alloc5boxed3BoxINtNtCs6IAuOt8vWmF_3syn5drops6NoDropDINtNtB1k_10punctuated12IterMutTraitNtNtB1k_3pat8FieldPatEp4ItemQB2p_EL_EEECs28qvqeRNIp0_12tokio_macros, symObjAddr: 0xCFC, symBinAddr: 0x599C, symSize: 0x2C }
  - { offset: 0x183E1, size: 0x8, addend: 0x0, symName: __RINvNtCsfvfooZQ3Axs_4core3ptr13drop_in_placeINtNtCse1nGBsou5OW_5alloc5boxed3BoxNtNtCs6IAuOt8vWmF_3syn4attr4MetaEECs28qvqeRNIp0_12tokio_macros, symObjAddr: 0xD28, symBinAddr: 0x59C8, symSize: 0x60 }
  - { offset: 0x18410, size: 0x8, addend: 0x0, symName: __RINvNtCsfvfooZQ3Axs_4core3ptr13drop_in_placeINtNtCse1nGBsou5OW_5alloc5boxed3BoxNtNtNtCscOYdFFY2T5N_3std2io5error6CustomEECs28qvqeRNIp0_12tokio_macros, symObjAddr: 0xD88, symBinAddr: 0x5A28, symSize: 0x60 }
  - { offset: 0x1843F, size: 0x8, addend: 0x0, symName: __RINvNtCsfvfooZQ3Axs_4core3ptr13drop_in_placeINtNtCse1nGBsou5OW_5alloc7raw_vec6RawVecNtCs3cP53eQoTwO_11proc_macro211TokenStreamEECs28qvqeRNIp0_12tokio_macros, symObjAddr: 0xDE8, symBinAddr: 0x5A88, symSize: 0x24 }
  - { offset: 0x1846E, size: 0x8, addend: 0x0, symName: __RINvNtCsfvfooZQ3Axs_4core3ptr13drop_in_placeINtNtCse1nGBsou5OW_5alloc7raw_vec6RawVecNtCs3cP53eQoTwO_11proc_macro25IdentEECs28qvqeRNIp0_12tokio_macros, symObjAddr: 0xE0C, symBinAddr: 0x5AAC, symSize: 0x24 }
  - { offset: 0x1849D, size: 0x8, addend: 0x0, symName: __RINvNtCsfvfooZQ3Axs_4core3ptr13drop_in_placeINtNtCse1nGBsou5OW_5alloc7raw_vec6RawVecNtNtCs6IAuOt8vWmF_3syn4attr4MetaEECs28qvqeRNIp0_12tokio_macros, symObjAddr: 0xE30, symBinAddr: 0x5AD0, symSize: 0x24 }
  - { offset: 0x184CC, size: 0x8, addend: 0x0, symName: __RINvNtCsfvfooZQ3Axs_4core3ptr13drop_in_placeINtNtCse1nGBsou5OW_5alloc7raw_vec6RawVecTNtNtCs6IAuOt8vWmF_3syn4attr4MetaNtNtB1p_5token5CommaEEECs28qvqeRNIp0_12tokio_macros, symObjAddr: 0xE54, symBinAddr: 0x5AF4, symSize: 0x24 }
  - { offset: 0x184FB, size: 0x8, addend: 0x0, symName: __RINvNtCsfvfooZQ3Axs_4core3ptr13drop_in_placeINtNtNtB4_5array4iter8IntoIterARej4_Kj2_EECs28qvqeRNIp0_12tokio_macros, symObjAddr: 0xE78, symBinAddr: 0x5B18, symSize: 0x24 }
  - { offset: 0x1852A, size: 0x8, addend: 0x0, symName: __RINvNtCsfvfooZQ3Axs_4core3ptr13drop_in_placeINtNtNtB4_5array4iter8IntoIterReKj4_EECs28qvqeRNIp0_12tokio_macros, symObjAddr: 0xE9C, symBinAddr: 0x5B3C, symSize: 0x24 }
  - { offset: 0x18559, size: 0x8, addend: 0x0, symName: __RINvNtCsfvfooZQ3Axs_4core3ptr13drop_in_placeINtNtNtCscOYdFFY2T5N_3std2io5error9ErrorDataINtNtCse1nGBsou5OW_5alloc5boxed3BoxNtBJ_6CustomEEECs28qvqeRNIp0_12tokio_macros, symObjAddr: 0xEC0, symBinAddr: 0x5B60, symSize: 0x48 }
  - { offset: 0x18588, size: 0x8, addend: 0x0, symName: __RINvNtCsfvfooZQ3Axs_4core3ptr13drop_in_placeINtNtNtCse1nGBsou5OW_5alloc3vec9into_iter8IntoIterNtNtCs6IAuOt8vWmF_3syn4attr4MetaEECs28qvqeRNIp0_12tokio_macros, symObjAddr: 0xF08, symBinAddr: 0x5BA8, symSize: 0x24 }
  - { offset: 0x185B7, size: 0x8, addend: 0x0, symName: __RINvNtCsfvfooZQ3Axs_4core3ptr13drop_in_placeINtNtNtCse1nGBsou5OW_5alloc3vec9into_iter8IntoIterTNtNtCs6IAuOt8vWmF_3syn4attr4MetaNtNtB1z_5token5CommaEEECs28qvqeRNIp0_12tokio_macros, symObjAddr: 0xF2C, symBinAddr: 0x5BCC, symSize: 0x24 }
  - { offset: 0x185E6, size: 0x8, addend: 0x0, symName: __RINvNtCsfvfooZQ3Axs_4core3ptr13drop_in_placeINtNtNtNtB4_4iter8adapters3map3MapINtNtNtCse1nGBsou5OW_5alloc3vec9into_iter8IntoIterTNtNtCs6IAuOt8vWmF_3syn4attr4MetaNtNtB27_5token5CommaEENCNvXs8_NtB27_10punctuatedINtB33_10PunctuatedB23_B2z_ENtNtNtBN_6traits7collect12IntoIterator9into_iter0EECs28qvqeRNIp0_12tokio_macros, symObjAddr: 0xF50, symBinAddr: 0x5BF0, symSize: 0x24 }
  - { offset: 0x18615, size: 0x8, addend: 0x0, symName: __RINvNtCsfvfooZQ3Axs_4core3ptr13drop_in_placeINtNtNtNtB4_4iter8adapters3zip3ZipINtNtCs6IAuOt8vWmF_3syn10punctuated4IterNtNtB1j_4path11PathSegmentEINtNtNtB4_5array4iter8IntoIterReKj4_EEECs28qvqeRNIp0_12tokio_macros, symObjAddr: 0xF74, symBinAddr: 0x5C14, symSize: 0x60 }
  - { offset: 0x18644, size: 0x8, addend: 0x0, symName: __RINvNtCsfvfooZQ3Axs_4core3ptr13drop_in_placeINtNvXsd_NtNtCse1nGBsou5OW_5alloc3vec9into_iterINtBP_8IntoIterppENtNtNtB4_3ops4drop4Drop4drop9DropGuardNtNtCs6IAuOt8vWmF_3syn4attr4MetaNtNtBT_5alloc6GlobalEECs28qvqeRNIp0_12tokio_macros, symObjAddr: 0xFD4, symBinAddr: 0x5C74, symSize: 0x24 }
  - { offset: 0x18673, size: 0x8, addend: 0x0, symName: __RINvNtCsfvfooZQ3Axs_4core3ptr13drop_in_placeINtNvXsd_NtNtCse1nGBsou5OW_5alloc3vec9into_iterINtBP_8IntoIterppENtNtNtB4_3ops4drop4Drop4drop9DropGuardTNtNtCs6IAuOt8vWmF_3syn4attr4MetaNtNtB2q_5token5CommaENtNtBT_5alloc6GlobalEECs28qvqeRNIp0_12tokio_macros, symObjAddr: 0xFF8, symBinAddr: 0x5C98, symSize: 0x24 }
  - { offset: 0x186A2, size: 0x8, addend: 0x0, symName: __RINvNtCsfvfooZQ3Axs_4core3ptr13drop_in_placeNCINvMsi_NtCse1nGBsou5OW_5alloc3vecINtBP_3VecNtCs3cP53eQoTwO_11proc_macro25IdentE14extend_trustedINtNtNtNtB4_4iter8adapters3map3MapINtNtNtB4_3ops5range5RangejENCNvNtCs28qvqeRNIp0_12tokio_macros6select19declare_output_enum0EE0EB3l_, symObjAddr: 0x101C, symBinAddr: 0x5CBC, symSize: 0x24 }
  - { offset: 0x186D1, size: 0x8, addend: 0x0, symName: __RINvNtCsfvfooZQ3Axs_4core3ptr13drop_in_placeNCINvMsi_NtCse1nGBsou5OW_5alloc3vecINtBP_3VecNtNtCs6IAuOt8vWmF_3syn4attr4MetaE14extend_trustedINtNtB4_6option8IntoIterB1p_EE0ECs28qvqeRNIp0_12tokio_macros, symObjAddr: 0x1040, symBinAddr: 0x5CE0, symSize: 0x24 }
  - { offset: 0x18700, size: 0x8, addend: 0x0, symName: __RINvNtCsfvfooZQ3Axs_4core3ptr13drop_in_placeNCINvMsi_NtCse1nGBsou5OW_5alloc3vecINtBP_3VecNtNtCs6IAuOt8vWmF_3syn4attr4MetaE14extend_trustedINtNtNtNtB4_4iter8adapters3map3MapINtNtBP_9into_iter8IntoIterTB1p_NtNtB1t_5token5CommaEENCNvXs8_NtB1t_10punctuatedINtB3K_10PunctuatedB1p_B3g_ENtNtNtB2j_6traits7collect12IntoIterator9into_iter0EE0ECs28qvqeRNIp0_12tokio_macros, symObjAddr: 0x1064, symBinAddr: 0x5D04, symSize: 0x24 }
  - { offset: 0x1872F, size: 0x8, addend: 0x0, symName: __RINvNtCsfvfooZQ3Axs_4core3ptr13drop_in_placeNCINvNtNtNtB4_4iter8adapters3map8map_foldTNtNtCs6IAuOt8vWmF_3syn4attr4MetaNtNtB1q_5token5CommaEB1m_uNCNvXs8_NtB1q_10punctuatedINtB2q_10PunctuatedB1m_B1S_ENtNtNtBP_6traits7collect12IntoIterator9into_iter0NCINvNvNtNtB3e_8iterator8Iterator8for_each4callB1m_NCINvMsi_NtCse1nGBsou5OW_5alloc3vecINtB4V_3VecB1m_E14extend_trustedINtBL_3MapINtNtB4V_9into_iter8IntoIterB1l_EB2i_EE0E0E0ECs28qvqeRNIp0_12tokio_macros, symObjAddr: 0x1088, symBinAddr: 0x5D28, symSize: 0x24 }
  - { offset: 0x1875E, size: 0x8, addend: 0x0, symName: __RINvNtCsfvfooZQ3Axs_4core3ptr13drop_in_placeNCINvNtNtNtB4_4iter8adapters3map8map_foldjNtCs3cP53eQoTwO_11proc_macro25IdentuNCNvNtCs28qvqeRNIp0_12tokio_macros6select19declare_output_enum0NCINvNvNtNtNtBP_6traits8iterator8Iterator8for_each4callB1m_NCINvMsi_NtCse1nGBsou5OW_5alloc3vecINtB43_3VecB1m_E14extend_trustedINtBL_3MapINtNtNtB4_3ops5range5RangejEB1W_EE0E0E0EB22_, symObjAddr: 0x10AC, symBinAddr: 0x5D4C, symSize: 0x24 }
  - { offset: 0x1878D, size: 0x8, addend: 0x0, symName: __RINvNtCsfvfooZQ3Axs_4core3ptr13drop_in_placeNCINvNvNtNtNtNtB4_4iter6traits8iterator8Iterator8for_each4callNtCs3cP53eQoTwO_11proc_macro25IdentNCINvMsi_NtCse1nGBsou5OW_5alloc3vecINtB2o_3VecB1G_E14extend_trustedINtNtNtBT_8adapters3map3MapINtNtNtB4_3ops5range5RangejENCNvNtCs28qvqeRNIp0_12tokio_macros6select19declare_output_enum0EE0E0EB4j_, symObjAddr: 0x10D0, symBinAddr: 0x5D70, symSize: 0x24 }
  - { offset: 0x187BC, size: 0x8, addend: 0x0, symName: __RINvNtCsfvfooZQ3Axs_4core3ptr13drop_in_placeNCINvNvNtNtNtNtB4_4iter6traits8iterator8Iterator8for_each4callNtNtCs6IAuOt8vWmF_3syn4attr4MetaNCINvMsi_NtCse1nGBsou5OW_5alloc3vecINtB2l_3VecB1G_E14extend_trustedINtNtB4_6option8IntoIterB1G_EE0E0ECs28qvqeRNIp0_12tokio_macros, symObjAddr: 0x10F4, symBinAddr: 0x5D94, symSize: 0x24 }
  - { offset: 0x187EB, size: 0x8, addend: 0x0, symName: __RINvNtCsfvfooZQ3Axs_4core3ptr13drop_in_placeNCINvNvNtNtNtNtB4_4iter6traits8iterator8Iterator8for_each4callNtNtCs6IAuOt8vWmF_3syn4attr4MetaNCINvMsi_NtCse1nGBsou5OW_5alloc3vecINtB2l_3VecB1G_E14extend_trustedINtNtNtBT_8adapters3map3MapINtNtB2l_9into_iter8IntoIterTB1G_NtNtB1K_5token5CommaEENCNvXs8_NtB1K_10punctuatedINtB4J_10PunctuatedB1G_B4f_ENtNtBR_7collect12IntoIterator9into_iter0EE0E0ECs28qvqeRNIp0_12tokio_macros, symObjAddr: 0x1118, symBinAddr: 0x5DB8, symSize: 0x24 }
  - { offset: 0x1881A, size: 0x8, addend: 0x0, symName: __RINvNtCsfvfooZQ3Axs_4core3ptr13drop_in_placeNCNCINvNtNtCs9i5KxIbZ5ph_10proc_macro6bridge6client10run_clientNtBN_11TokenStreamINtNtB4_6option6OptionB1H_ENCNCINvMs7_BN_INtBN_6ClientNtBR_11TokenStreamB2R_E7expand1NvCs28qvqeRNIp0_12tokio_macros25select_priv_clean_patternE00E00EB3o_, symObjAddr: 0x113C, symBinAddr: 0x5DDC, symSize: 0x24 }
  - { offset: 0x18849, size: 0x8, addend: 0x0, symName: __RINvNtCsfvfooZQ3Axs_4core3ptr13drop_in_placeNCNCINvNtNtCs9i5KxIbZ5ph_10proc_macro6bridge6client10run_clientNtBN_11TokenStreamINtNtB4_6option6OptionB1H_ENCNCINvMs7_BN_INtBN_6ClientNtBR_11TokenStreamB2R_E7expand1NvCs28qvqeRNIp0_12tokio_macros31select_priv_declare_output_enumE00E00EB3o_, symObjAddr: 0x1160, symBinAddr: 0x5E00, symSize: 0x24 }
  - { offset: 0x18878, size: 0x8, addend: 0x0, symName: __RINvNtCsfvfooZQ3Axs_4core3ptr13drop_in_placeNCNCINvNtNtCs9i5KxIbZ5ph_10proc_macro6bridge6client10run_clientTNtBN_11TokenStreamB1I_EINtNtB4_6option6OptionB1I_ENCNCINvMs8_BN_INtBN_6ClientTNtBR_11TokenStreamB2Y_EB2Y_E7expand2NvCs28qvqeRNIp0_12tokio_macros4mainE00E00EB3A_, symObjAddr: 0x1184, symBinAddr: 0x5E24, symSize: 0x24 }
  - { offset: 0x188A7, size: 0x8, addend: 0x0, symName: __RINvNtCsfvfooZQ3Axs_4core3ptr13drop_in_placeNCNCINvNtNtCs9i5KxIbZ5ph_10proc_macro6bridge6client10run_clientTNtBN_11TokenStreamB1I_EINtNtB4_6option6OptionB1I_ENCNCINvMs8_BN_INtBN_6ClientTNtBR_11TokenStreamB2Y_EB2Y_E7expand2NvCs28qvqeRNIp0_12tokio_macros4testE00E00EB3A_, symObjAddr: 0x11A8, symBinAddr: 0x5E48, symSize: 0x24 }
  - { offset: 0x188D6, size: 0x8, addend: 0x0, symName: __RINvNtCsfvfooZQ3Axs_4core3ptr13drop_in_placeNCNCINvNtNtCs9i5KxIbZ5ph_10proc_macro6bridge6client10run_clientTNtBN_11TokenStreamB1I_EINtNtB4_6option6OptionB1I_ENCNCINvMs8_BN_INtBN_6ClientTNtBR_11TokenStreamB2Y_EB2Y_E7expand2NvCs28qvqeRNIp0_12tokio_macros7main_rtE00E00EB3A_, symObjAddr: 0x11CC, symBinAddr: 0x5E6C, symSize: 0x24 }
  - { offset: 0x18905, size: 0x8, addend: 0x0, symName: __RINvNtCsfvfooZQ3Axs_4core3ptr13drop_in_placeNCNCINvNtNtCs9i5KxIbZ5ph_10proc_macro6bridge6client10run_clientTNtBN_11TokenStreamB1I_EINtNtB4_6option6OptionB1I_ENCNCINvMs8_BN_INtBN_6ClientTNtBR_11TokenStreamB2Y_EB2Y_E7expand2NvCs28qvqeRNIp0_12tokio_macros7test_rtE00E00EB3A_, symObjAddr: 0x11F0, symBinAddr: 0x5E90, symSize: 0x24 }
  - { offset: 0x18934, size: 0x8, addend: 0x0, symName: __RINvNtCsfvfooZQ3Axs_4core3ptr13drop_in_placeNCNCINvNtNtCs9i5KxIbZ5ph_10proc_macro6bridge6client10run_clientTNtBN_11TokenStreamB1I_EINtNtB4_6option6OptionB1I_ENCNCINvMs8_BN_INtBN_6ClientTNtBR_11TokenStreamB2Y_EB2Y_E7expand2NvCs28qvqeRNIp0_12tokio_macros9main_failE00E00EB3A_, symObjAddr: 0x1214, symBinAddr: 0x5EB4, symSize: 0x24 }
  - { offset: 0x18963, size: 0x8, addend: 0x0, symName: __RINvNtCsfvfooZQ3Axs_4core3ptr13drop_in_placeNCNCINvNtNtCs9i5KxIbZ5ph_10proc_macro6bridge6client10run_clientTNtBN_11TokenStreamB1I_EINtNtB4_6option6OptionB1I_ENCNCINvMs8_BN_INtBN_6ClientTNtBR_11TokenStreamB2Y_EB2Y_E7expand2NvCs28qvqeRNIp0_12tokio_macros9test_failE00E00EB3A_, symObjAddr: 0x1238, symBinAddr: 0x5ED8, symSize: 0x24 }
  - { offset: 0x18992, size: 0x8, addend: 0x0, symName: __RINvNtCsfvfooZQ3Axs_4core3ptr13drop_in_placeNtNtCs28qvqeRNIp0_12tokio_macros5entry11FinalConfigEBK_, symObjAddr: 0x125C, symBinAddr: 0x5EFC, symSize: 0x24 }
  - { offset: 0x189C1, size: 0x8, addend: 0x0, symName: __RINvNtCsfvfooZQ3Axs_4core3ptr13drop_in_placeNtNtCs28qvqeRNIp0_12tokio_macros5entry13ConfigurationEBK_, symObjAddr: 0x1280, symBinAddr: 0x5F20, symSize: 0x24 }
  - { offset: 0x189F0, size: 0x8, addend: 0x0, symName: __RINvNtCsfvfooZQ3Axs_4core3ptr13drop_in_placeNtNtCs28qvqeRNIp0_12tokio_macros5entry6ItemFnEBK_, symObjAddr: 0x12A4, symBinAddr: 0x5F44, symSize: 0xEC }
  - { offset: 0x18A1F, size: 0x8, addend: 0x0, symName: __RINvNtCsfvfooZQ3Axs_4core3ptr13drop_in_placeNtNtNtCs9i5KxIbZ5ph_10proc_macro6bridge3rpc12PanicMessageECs28qvqeRNIp0_12tokio_macros, symObjAddr: 0x1390, symBinAddr: 0x6030, symSize: 0x50 }
  - { offset: 0x18A4E, size: 0x8, addend: 0x0, symName: __RINvNtCsfvfooZQ3Axs_4core3ptr13drop_in_placeNtNtNtCs9i5KxIbZ5ph_10proc_macro6bridge6buffer6BufferECs28qvqeRNIp0_12tokio_macros, symObjAddr: 0x13E0, symBinAddr: 0x6080, symSize: 0x24 }
  - { offset: 0x18A7D, size: 0x8, addend: 0x0, symName: __RINvNtCsfvfooZQ3Axs_4core3ptr13drop_in_placeNtNtNtCs9i5KxIbZ5ph_10proc_macro6bridge6client6BridgeECs28qvqeRNIp0_12tokio_macros, symObjAddr: 0x1404, symBinAddr: 0x60A4, symSize: 0x24 }
  - { offset: 0x18AAC, size: 0x8, addend: 0x0, symName: __RINvNtCsfvfooZQ3Axs_4core3ptr13drop_in_placeNtNtNtCscOYdFFY2T5N_3std2io5error5ErrorECs28qvqeRNIp0_12tokio_macros, symObjAddr: 0x1428, symBinAddr: 0x60C8, symSize: 0x24 }
  - { offset: 0x18ADB, size: 0x8, addend: 0x0, symName: __RINvNtCsfvfooZQ3Axs_4core3ptr13drop_in_placeNtNtNtCscOYdFFY2T5N_3std2io5error6CustomECs28qvqeRNIp0_12tokio_macros, symObjAddr: 0x144C, symBinAddr: 0x60EC, symSize: 0x24 }
  - { offset: 0x18B0A, size: 0x8, addend: 0x0, symName: __RINvNtCsfvfooZQ3Axs_4core3ptr13drop_in_placeNtNtNtNtCscOYdFFY2T5N_3std2io5error14repr_bitpacked4ReprECs28qvqeRNIp0_12tokio_macros, symObjAddr: 0x1470, symBinAddr: 0x6110, symSize: 0x24 }
  - { offset: 0x18B39, size: 0x8, addend: 0x0, symName: __RINvNtCsfvfooZQ3Axs_4core3ptr13drop_in_placeNtNvNtNtNtCs9i5KxIbZ5ph_10proc_macro6bridge6client5state3set13RestoreOnDropECs28qvqeRNIp0_12tokio_macros, symObjAddr: 0x1494, symBinAddr: 0x6134, symSize: 0x24 }
  - { offset: 0x18B68, size: 0x8, addend: 0x0, symName: __RINvNtCsfvfooZQ3Axs_4core3ptr13drop_in_placeSNtCs3cP53eQoTwO_11proc_macro211TokenStreamECs28qvqeRNIp0_12tokio_macros, symObjAddr: 0x14B8, symBinAddr: 0x6158, symSize: 0xB4 }
  - { offset: 0x18B97, size: 0x8, addend: 0x0, symName: __RINvNtCsfvfooZQ3Axs_4core3ptr13drop_in_placeSNtCs3cP53eQoTwO_11proc_macro25IdentECs28qvqeRNIp0_12tokio_macros, symObjAddr: 0x156C, symBinAddr: 0x620C, symSize: 0xC4 }
  - { offset: 0x18BC6, size: 0x8, addend: 0x0, symName: __RINvNtCsfvfooZQ3Axs_4core3ptr13drop_in_placeSNtNtCs6IAuOt8vWmF_3syn4attr4MetaECs28qvqeRNIp0_12tokio_macros, symObjAddr: 0x1630, symBinAddr: 0x62D0, symSize: 0xC4 }
  - { offset: 0x18BF5, size: 0x8, addend: 0x0, symName: __RINvNtCsfvfooZQ3Axs_4core3ptr13drop_in_placeSTNtNtCs6IAuOt8vWmF_3syn4attr4MetaNtNtBM_5token5CommaEECs28qvqeRNIp0_12tokio_macros, symObjAddr: 0x16F4, symBinAddr: 0x6394, symSize: 0xC4 }
  - { offset: 0x18C24, size: 0x8, addend: 0x0, symName: __RINvNtCsfvfooZQ3Axs_4core3ptr13drop_in_placeTNtNtCs6IAuOt8vWmF_3syn4attr4MetaNtNtBL_5token5CommaEECs28qvqeRNIp0_12tokio_macros, symObjAddr: 0x17B8, symBinAddr: 0x6458, symSize: 0x24 }
  - { offset: 0x18C53, size: 0x8, addend: 0x0, symName: __RINvNtCsfvfooZQ3Axs_4core3ptr13drop_in_placeTNtNtNtCs9i5KxIbZ5ph_10proc_macro6bridge6client11TokenStreamBH_EECs28qvqeRNIp0_12tokio_macros, symObjAddr: 0x17DC, symBinAddr: 0x647C, symSize: 0x60 }
  - { offset: 0x1907C, size: 0x8, addend: 0x0, symName: __RNvNvNtCsfvfooZQ3Axs_4core3ptr13read_volatile18precondition_checkCs28qvqeRNIp0_12tokio_macros, symObjAddr: 0x36D0, symBinAddr: 0x836C, symSize: 0x100 }
  - { offset: 0x1920C, size: 0x8, addend: 0x0, symName: __RINvMNtCsfvfooZQ3Axs_4core3stre5parsejECs28qvqeRNIp0_12tokio_macros, symObjAddr: 0x24, symBinAddr: 0x4D3C, symSize: 0x28 }
  - { offset: 0x19243, size: 0x8, addend: 0x0, symName: __RNvMNtCsfvfooZQ3Axs_4core3stre8is_emptyCs28qvqeRNIp0_12tokio_macros, symObjAddr: 0x2A28, symBinAddr: 0x76C8, symSize: 0x1C }
  - { offset: 0x19298, size: 0x8, addend: 0x0, symName: __RNvXs_NtNtCsfvfooZQ3Axs_4core3str6traitseNtNtB8_3cmp9PartialEq2eqCs28qvqeRNIp0_12tokio_macros, symObjAddr: 0x435C, symBinAddr: 0x8FF8, symSize: 0x64 }
  - { offset: 0x19A86, size: 0x8, addend: 0x0, symName: __RNvXso_NtCsfvfooZQ3Axs_4core6resultINtB5_6ResultINtNtCs6IAuOt8vWmF_3syn10punctuated10PunctuatedNtNtBP_4attr4MetaNtNtBP_5token5CommaENtNtBP_5error5ErrorENtNtNtB7_3ops9try_trait3Try6branchCs28qvqeRNIp0_12tokio_macros, symObjAddr: 0x4AE8, symBinAddr: 0x9784, symSize: 0xA0 }
  - { offset: 0x19B03, size: 0x8, addend: 0x0, symName: __RNvXso_NtCsfvfooZQ3Axs_4core6resultINtB5_6ResultNtCs3cP53eQoTwO_11proc_macro29TokenTreeNtNtCs6IAuOt8vWmF_3syn5error5ErrorENtNtNtB7_3ops9try_trait3Try6branchCs28qvqeRNIp0_12tokio_macros, symObjAddr: 0x4B88, symBinAddr: 0x9824, symSize: 0x9C }
  - { offset: 0x19B80, size: 0x8, addend: 0x0, symName: __RNvXso_NtCsfvfooZQ3Axs_4core6resultINtB5_6ResultNtNtCs28qvqeRNIp0_12tokio_macros5entry13RuntimeFlavorNtNtCs6IAuOt8vWmF_3syn5error5ErrorENtNtNtB7_3ops9try_trait3Try6branchBO_, symObjAddr: 0x4C24, symBinAddr: 0x98C0, symSize: 0x94 }
  - { offset: 0x19BFE, size: 0x8, addend: 0x0, symName: __RNvXso_NtCsfvfooZQ3Axs_4core6resultINtB5_6ResultNtNtCs28qvqeRNIp0_12tokio_macros5entry14UnhandledPanicNtNtCs6IAuOt8vWmF_3syn5error5ErrorENtNtNtB7_3ops9try_trait3Try6branchBO_, symObjAddr: 0x4CB8, symBinAddr: 0x9954, symSize: 0x94 }
  - { offset: 0x19C7C, size: 0x8, addend: 0x0, symName: __RNvXso_NtCsfvfooZQ3Axs_4core6resultINtB5_6ResultNtNtCs28qvqeRNIp0_12tokio_macros5entry6ItemFnNtNtCs6IAuOt8vWmF_3syn5error5ErrorENtNtNtB7_3ops9try_trait3Try6branchBO_, symObjAddr: 0x4D4C, symBinAddr: 0x99E8, symSize: 0xC0 }
  - { offset: 0x19CFA, size: 0x8, addend: 0x0, symName: __RNvXso_NtCsfvfooZQ3Axs_4core6resultINtB5_6ResultNtNtCse1nGBsou5OW_5alloc6string6StringNtNtCs6IAuOt8vWmF_3syn5error5ErrorENtNtNtB7_3ops9try_trait3Try6branchCs28qvqeRNIp0_12tokio_macros, symObjAddr: 0x4E0C, symBinAddr: 0x9AA8, symSize: 0x94 }
  - { offset: 0x19D77, size: 0x8, addend: 0x0, symName: __RNvXso_NtCsfvfooZQ3Axs_4core6resultINtB5_6ResultRNtCs3cP53eQoTwO_11proc_macro25IdentNtNtCs6IAuOt8vWmF_3syn5error5ErrorENtNtNtB7_3ops9try_trait3Try6branchCs28qvqeRNIp0_12tokio_macros, symObjAddr: 0x4EA0, symBinAddr: 0x9B3C, symSize: 0x88 }
  - { offset: 0x19DF5, size: 0x8, addend: 0x0, symName: __RNvXso_NtCsfvfooZQ3Axs_4core6resultINtB5_6ResultjNtNtCs6IAuOt8vWmF_3syn5error5ErrorENtNtNtB7_3ops9try_trait3Try6branchCs28qvqeRNIp0_12tokio_macros, symObjAddr: 0x4F28, symBinAddr: 0x9BC4, symSize: 0x88 }
  - { offset: 0x19E79, size: 0x8, addend: 0x0, symName: __RNvXsp_NtCsfvfooZQ3Axs_4core6resultINtB5_6ResultINtNtCs6IAuOt8vWmF_3syn10punctuated10PunctuatedNtNtBP_4attr4MetaNtNtBP_5token5CommaENtNtBP_5error5ErrorEINtNtNtB7_3ops9try_trait12FromResidualIBy_NtNtB7_7convert10InfallibleB26_EE13from_residualCs28qvqeRNIp0_12tokio_macros, symObjAddr: 0x4FB0, symBinAddr: 0x9C4C, symSize: 0x48 }
  - { offset: 0x19EFE, size: 0x8, addend: 0x0, symName: __RNvXsp_NtCsfvfooZQ3Axs_4core6resultINtB5_6ResultNtNtCs28qvqeRNIp0_12tokio_macros5entry11FinalConfigNtNtCs6IAuOt8vWmF_3syn5error5ErrorEINtNtNtB7_3ops9try_trait12FromResidualIBy_NtNtB7_7convert10InfallibleB1z_EE13from_residualBO_, symObjAddr: 0x4FF8, symBinAddr: 0x9C94, symSize: 0x48 }
  - { offset: 0x19F83, size: 0x8, addend: 0x0, symName: __RNvXsp_NtCsfvfooZQ3Axs_4core6resultINtB5_6ResultNtNtCs28qvqeRNIp0_12tokio_macros5entry6ItemFnNtNtCs6IAuOt8vWmF_3syn5error5ErrorEINtNtNtB7_3ops9try_trait12FromResidualIBy_NtNtB7_7convert10InfallibleB1t_EE13from_residualBO_, symObjAddr: 0x5040, symBinAddr: 0x9CDC, symSize: 0x48 }
  - { offset: 0x1A008, size: 0x8, addend: 0x0, symName: __RNvXsp_NtCsfvfooZQ3Axs_4core6resultINtB5_6ResultNtNtCs6IAuOt8vWmF_3syn4path4PathNtNtBO_5error5ErrorEINtNtNtB7_3ops9try_trait12FromResidualIBy_NtNtB7_7convert10InfallibleNtCs3cP53eQoTwO_11proc_macro28LexErrorEE13from_residualCs28qvqeRNIp0_12tokio_macros, symObjAddr: 0x5088, symBinAddr: 0x9D24, symSize: 0x4C }
  - { offset: 0x1A972, size: 0x8, addend: 0x0, symName: __RNvMNtCsfvfooZQ3Axs_4core5sliceSTNtNtCs6IAuOt8vWmF_3syn3pat3PatNtNtBz_5token2OrE8iter_mutCs28qvqeRNIp0_12tokio_macros, symObjAddr: 0x2A44, symBinAddr: 0x76E4, symSize: 0x28 }
  - { offset: 0x1A9A9, size: 0x8, addend: 0x0, symName: __RNvMNtCsfvfooZQ3Axs_4core5sliceSTNtNtCs6IAuOt8vWmF_3syn3pat3PatNtNtBz_5token5CommaE8iter_mutCs28qvqeRNIp0_12tokio_macros, symObjAddr: 0x2A6C, symBinAddr: 0x770C, symSize: 0x28 }
  - { offset: 0x1A9E0, size: 0x8, addend: 0x0, symName: __RNvMNtCsfvfooZQ3Axs_4core5sliceSTNtNtCs6IAuOt8vWmF_3syn3pat8FieldPatNtNtBz_5token5CommaE8iter_mutCs28qvqeRNIp0_12tokio_macros, symObjAddr: 0x2A94, symBinAddr: 0x7734, symSize: 0x28 }
  - { offset: 0x1B20D, size: 0x8, addend: 0x0, symName: __RNvXs_NtNtCsfvfooZQ3Axs_4core3ops11index_rangeNtB4_10IndexRangeNtNtNtNtB8_4iter6traits8iterator8Iterator4nextCs28qvqeRNIp0_12tokio_macros, symObjAddr: 0x42A0, symBinAddr: 0x8F3C, symSize: 0xBC }
  - { offset: 0x1B352, size: 0x8, addend: 0x0, symName: __RNvYNCNkNvNtNtNtCs9i5KxIbZ5ph_10proc_macro6bridge6client5state12BRIDGE_STATE0s_0INtNtNtCsfvfooZQ3Axs_4core3ops8function6FnOnceTINtNtB1n_6option6OptionQIB22_INtNtB1n_4cell4CellPuEEEEE9call_onceCs28qvqeRNIp0_12tokio_macros, symObjAddr: 0x50D4, symBinAddr: 0x9D70, symSize: 0x4C }
  - { offset: 0x1B396, size: 0x8, addend: 0x0, symName: __RNvYNvMNtCs6IAuOt8vWmF_3syn10punctuatedINtB5_10PunctuatedNtNtB7_4attr4MetaNtNtB7_5token5CommaE16parse_terminatedINtNtNtCsfvfooZQ3Axs_4core3ops8function6FnOnceTRNtNtB7_5parse11ParseBufferEE9call_onceCs28qvqeRNIp0_12tokio_macros, symObjAddr: 0x5730, symBinAddr: 0xA3CC, symSize: 0x24 }
  - { offset: 0x1B3DA, size: 0x8, addend: 0x0, symName: __RNvYNvMNtNtCs6IAuOt8vWmF_3syn3pat7parsingNtB7_3Pat12parse_singleINtNtNtCsfvfooZQ3Axs_4core3ops8function6FnOnceTRNtNtB9_5parse11ParseBufferEE9call_onceCs28qvqeRNIp0_12tokio_macros, symObjAddr: 0x5754, symBinAddr: 0xA3F0, symSize: 0x24 }
  - { offset: 0x1B41E, size: 0x8, addend: 0x0, symName: __RNvYNvMse_Cs3cP53eQoTwO_11proc_macro2NtB8_4Span9call_siteINtNtNtCsfvfooZQ3Axs_4core3ops8function6FnOnceuE9call_onceCs28qvqeRNIp0_12tokio_macros, symObjAddr: 0x5778, symBinAddr: 0xA414, symSize: 0x1C }
  - { offset: 0x1B462, size: 0x8, addend: 0x0, symName: __RNvYNvYINtNtCse1nGBsou5OW_5alloc5boxed3BoxNtNtCs6IAuOt8vWmF_3syn3pat3PatEINtNtCsfvfooZQ3Axs_4core7convert5AsMutBE_E6as_mutINtNtNtB1e_3ops8function6FnOnceTQB5_EE9call_onceCs28qvqeRNIp0_12tokio_macros, symObjAddr: 0x5794, symBinAddr: 0xA430, symSize: 0x24 }
  - { offset: 0x1B4A6, size: 0x8, addend: 0x0, symName: __RNvYNvYINtNtCse1nGBsou5OW_5alloc5boxed3BoxNtNtCs6IAuOt8vWmF_3syn3pat8FieldPatEINtNtCsfvfooZQ3Axs_4core7convert5AsMutBE_E6as_mutINtNtNtB1j_3ops8function6FnOnceTQB5_EE9call_onceCs28qvqeRNIp0_12tokio_macros, symObjAddr: 0x57B8, symBinAddr: 0xA454, symSize: 0x24 }
  - { offset: 0x1B4EA, size: 0x8, addend: 0x0, symName: __RNvYNvYNtNtCs28qvqeRNIp0_12tokio_macros5entry6ItemFnNtNtCs6IAuOt8vWmF_3syn5parse5Parse5parseINtNtNtCsfvfooZQ3Axs_4core3ops8function6FnOnceTRNtBQ_11ParseBufferEE9call_onceB9_, symObjAddr: 0x57DC, symBinAddr: 0xA478, symSize: 0x24 }
  - { offset: 0x1B52E, size: 0x8, addend: 0x0, symName: __RNvYNvYNtNtCs6IAuOt8vWmF_3syn4path4PathNtNtB9_5parse5Parse5parseINtNtNtCsfvfooZQ3Axs_4core3ops8function6FnOnceTRNtBD_11ParseBufferEE9call_onceCs28qvqeRNIp0_12tokio_macros, symObjAddr: 0x5800, symBinAddr: 0xA49C, symSize: 0x24 }
  - { offset: 0x1B572, size: 0x8, addend: 0x0, symName: __RNvYNvYNtNtCs6IAuOt8vWmF_3syn4path4PathNtNtCs2cqEZUIJimJ_5quote9to_tokens8ToTokens17into_token_streamINtNtNtCsfvfooZQ3Axs_4core3ops8function6FnOnceTB5_EE9call_onceCs28qvqeRNIp0_12tokio_macros, symObjAddr: 0x5824, symBinAddr: 0xA4C0, symSize: 0x40 }
  - { offset: 0x1B5B6, size: 0x8, addend: 0x0, symName: __RNvYNvYNtNtNtCs9i5KxIbZ5ph_10proc_macro6bridge3rpc12PanicMessageINtNtCsfvfooZQ3Axs_4core7convert4FromINtNtCse1nGBsou5OW_5alloc5boxed3BoxDNtNtB15_3any3AnyNtNtB15_6marker4SendEL_EE4fromINtNtNtB15_3ops8function6FnOnceTB1B_EE9call_onceCs28qvqeRNIp0_12tokio_macros, symObjAddr: 0x5864, symBinAddr: 0xA500, symSize: 0x2C }
  - { offset: 0x1B600, size: 0x8, addend: 0x0, symName: __RNvYNvCs28qvqeRNIp0_12tokio_macros25select_priv_clean_patternINtNtNtCsfvfooZQ3Axs_4core3ops8function2FnTNtCs9i5KxIbZ5ph_10proc_macro11TokenStreamEE4callB4_, symObjAddr: 0x55C0, symBinAddr: 0xA25C, symSize: 0x28 }
  - { offset: 0x1B644, size: 0x8, addend: 0x0, symName: __RNvYNvCs28qvqeRNIp0_12tokio_macros31select_priv_declare_output_enumINtNtNtCsfvfooZQ3Axs_4core3ops8function2FnTNtCs9i5KxIbZ5ph_10proc_macro11TokenStreamEE4callB4_, symObjAddr: 0x55E8, symBinAddr: 0xA284, symSize: 0x28 }
  - { offset: 0x1B688, size: 0x8, addend: 0x0, symName: __RNvYNvCs28qvqeRNIp0_12tokio_macros4mainINtNtNtCsfvfooZQ3Axs_4core3ops8function2FnTNtCs9i5KxIbZ5ph_10proc_macro11TokenStreamB1i_EE4callB4_, symObjAddr: 0x5610, symBinAddr: 0xA2AC, symSize: 0x30 }
  - { offset: 0x1B6CC, size: 0x8, addend: 0x0, symName: __RNvYNvCs28qvqeRNIp0_12tokio_macros4testINtNtNtCsfvfooZQ3Axs_4core3ops8function2FnTNtCs9i5KxIbZ5ph_10proc_macro11TokenStreamB1i_EE4callB4_, symObjAddr: 0x5640, symBinAddr: 0xA2DC, symSize: 0x30 }
  - { offset: 0x1B710, size: 0x8, addend: 0x0, symName: __RNvYNvCs28qvqeRNIp0_12tokio_macros7main_rtINtNtNtCsfvfooZQ3Axs_4core3ops8function2FnTNtCs9i5KxIbZ5ph_10proc_macro11TokenStreamB1l_EE4callB4_, symObjAddr: 0x5670, symBinAddr: 0xA30C, symSize: 0x30 }
  - { offset: 0x1B754, size: 0x8, addend: 0x0, symName: __RNvYNvCs28qvqeRNIp0_12tokio_macros7test_rtINtNtNtCsfvfooZQ3Axs_4core3ops8function2FnTNtCs9i5KxIbZ5ph_10proc_macro11TokenStreamB1l_EE4callB4_, symObjAddr: 0x56A0, symBinAddr: 0xA33C, symSize: 0x30 }
  - { offset: 0x1B798, size: 0x8, addend: 0x0, symName: __RNvYNvCs28qvqeRNIp0_12tokio_macros9main_failINtNtNtCsfvfooZQ3Axs_4core3ops8function2FnTNtCs9i5KxIbZ5ph_10proc_macro11TokenStreamB1n_EE4callB4_, symObjAddr: 0x56D0, symBinAddr: 0xA36C, symSize: 0x30 }
  - { offset: 0x1B7DC, size: 0x8, addend: 0x0, symName: __RNvYNvCs28qvqeRNIp0_12tokio_macros9test_failINtNtNtCsfvfooZQ3Axs_4core3ops8function2FnTNtCs9i5KxIbZ5ph_10proc_macro11TokenStreamB1n_EE4callB4_, symObjAddr: 0x5700, symBinAddr: 0xA39C, symSize: 0x30 }
  - { offset: 0x1B8E2, size: 0x8, addend: 0x0, symName: __RINvNtNtNtCsfvfooZQ3Axs_4core4iter8adapters5chain17and_then_or_clearINtNtNtB8_5slice4iter4IterNtNtCs6IAuOt8vWmF_3syn4attr9AttributeERB1u_NCINvXs_B2_INtB2_5ChainB14_B14_ENtNtNtB6_6traits8iterator8Iterator4findNCNvNtCs28qvqeRNIp0_12tokio_macros5entry4test0E0EB3q_, symObjAddr: 0x1A6C, symBinAddr: 0x670C, symSize: 0xD0 }
  - { offset: 0x1BA27, size: 0x8, addend: 0x0, symName: __RINvXs_NtNtNtCsfvfooZQ3Axs_4core4iter8adapters5chainINtB5_5ChainINtNtNtBb_5slice4iter4IterNtNtCs6IAuOt8vWmF_3syn4attr9AttributeEB10_ENtNtNtB9_6traits8iterator8Iterator4findNCNvNtCs28qvqeRNIp0_12tokio_macros5entry4test0EB2Q_, symObjAddr: 0x2250, symBinAddr: 0x6EF0, symSize: 0x80 }
  - { offset: 0x1BA81, size: 0x8, addend: 0x0, symName: __RNCINvXs_NtNtNtCsfvfooZQ3Axs_4core4iter8adapters5chainINtB7_5ChainINtNtNtBd_5slice4iter4IterNtNtCs6IAuOt8vWmF_3syn4attr9AttributeEB12_ENtNtNtBb_6traits8iterator8Iterator4findNCNvNtCs28qvqeRNIp0_12tokio_macros5entry4test0E0B2S_, symObjAddr: 0x293C, symBinAddr: 0x75DC, symSize: 0x38 }
  - { offset: 0x1BAD8, size: 0x8, addend: 0x0, symName: __RNCINvXs_NtNtNtCsfvfooZQ3Axs_4core4iter8adapters5chainINtB7_5ChainINtNtNtBd_5slice4iter4IterNtNtCs6IAuOt8vWmF_3syn4attr9AttributeEB12_ENtNtNtBb_6traits8iterator8Iterator4findNCNvNtCs28qvqeRNIp0_12tokio_macros5entry4test0Es_0B2S_, symObjAddr: 0x2974, symBinAddr: 0x7614, symSize: 0x80 }
  - { offset: 0x1BD18, size: 0x8, addend: 0x0, symName: __RNCINvNtNtNtCsfvfooZQ3Axs_4core4iter8adapters3map8map_foldTNtNtCs6IAuOt8vWmF_3syn4attr4MetaNtNtBZ_5token5CommaEBV_uNCNvXs8_NtBZ_10punctuatedINtB1X_10PunctuatedBV_B1r_ENtNtNtB8_6traits7collect12IntoIterator9into_iter0NCINvNvNtNtB2J_8iterator8Iterator8for_each4callBV_NCINvMsi_NtCse1nGBsou5OW_5alloc3vecINtB4p_3VecBV_E14extend_trustedINtB4_3MapINtNtB4p_9into_iter8IntoIterBU_EB1P_EE0E0E0Cs28qvqeRNIp0_12tokio_macros, symObjAddr: 0x2760, symBinAddr: 0x7400, symSize: 0xB0 }
  - { offset: 0x1BD9E, size: 0x8, addend: 0x0, symName: __RNCINvNtNtNtCsfvfooZQ3Axs_4core4iter8adapters3map8map_foldjNtCs3cP53eQoTwO_11proc_macro25IdentuNCNvNtCs28qvqeRNIp0_12tokio_macros6select19declare_output_enum0NCINvNvNtNtNtB8_6traits8iterator8Iterator8for_each4callBV_NCINvMsi_NtCse1nGBsou5OW_5alloc3vecINtB3B_3VecBV_E14extend_trustedINtB4_3MapINtNtNtBa_3ops5range5RangejEB1v_EE0E0E0B1B_, symObjAddr: 0x2810, symBinAddr: 0x74B0, symSize: 0x88 }
  - { offset: 0x1BE29, size: 0x8, addend: 0x0, symName: __RINvXs0_NtNtNtCsfvfooZQ3Axs_4core4iter8adapters3mapINtB6_3MapINtNtNtBc_3ops5range5RangejENCNvNtCs28qvqeRNIp0_12tokio_macros6select19declare_output_enum0ENtNtNtBa_6traits8iterator8Iterator4folduNCINvNvB2r_8for_each4callNtCs3cP53eQoTwO_11proc_macro25IdentNCINvMsi_NtCse1nGBsou5OW_5alloc3vecINtB4c_3VecB3u_E14extend_trustedBN_E0E0EB1v_, symObjAddr: 0x21C8, symBinAddr: 0x6E68, symSize: 0x3C }
  - { offset: 0x1BEC1, size: 0x8, addend: 0x0, symName: __RINvXs0_NtNtNtCsfvfooZQ3Axs_4core4iter8adapters3mapINtB6_3MapINtNtNtCse1nGBsou5OW_5alloc3vec9into_iter8IntoIterTNtNtCs6IAuOt8vWmF_3syn4attr4MetaNtNtB1Q_5token5CommaEENCNvXs8_NtB1Q_10punctuatedINtB2M_10PunctuatedB1M_B2i_ENtNtNtBa_6traits7collect12IntoIterator9into_iter0ENtNtB3A_8iterator8Iterator4folduNCINvNvB4k_8for_each4callB1M_NCINvMsi_B12_INtB12_3VecB1M_E14extend_trustedBN_E0E0ECs28qvqeRNIp0_12tokio_macros, symObjAddr: 0x2204, symBinAddr: 0x6EA4, symSize: 0x4C }
  - { offset: 0x1BF5A, size: 0x8, addend: 0x0, symName: __RNvXs0_NtNtNtCsfvfooZQ3Axs_4core4iter8adapters3mapINtB5_3MapINtNtNtBb_3ops5range5RangejENCNvNtCs28qvqeRNIp0_12tokio_macros6select19declare_output_enum0ENtNtNtB9_6traits8iterator8Iterator9size_hintB1u_, symObjAddr: 0x3E34, symBinAddr: 0x8AD0, symSize: 0x24 }
  - { offset: 0x1BFA1, size: 0x8, addend: 0x0, symName: __RNvXs0_NtNtNtCsfvfooZQ3Axs_4core4iter8adapters3mapINtB5_3MapINtNtNtCse1nGBsou5OW_5alloc3vec9into_iter8IntoIterTNtNtCs6IAuOt8vWmF_3syn4attr4MetaNtNtB1P_5token5CommaEENCNvXs8_NtB1P_10punctuatedINtB2L_10PunctuatedB1L_B2h_ENtNtNtB9_6traits7collect12IntoIterator9into_iter0ENtNtB3z_8iterator8Iterator9size_hintCs28qvqeRNIp0_12tokio_macros, symObjAddr: 0x3E58, symBinAddr: 0x8AF4, symSize: 0x24 }
  - { offset: 0x1C1DC, size: 0x8, addend: 0x0, symName: __RINvYINtNtNtCsfvfooZQ3Axs_4core5array4iter8IntoIterARej4_Kj2_ENtNtNtNtBa_4iter6traits8iterator8Iterator3anyNCNvNtCs28qvqeRNIp0_12tokio_macros5entry17is_test_attribute0EB1N_, symObjAddr: 0x22D0, symBinAddr: 0x6F70, symSize: 0x44 }
  - { offset: 0x1C22B, size: 0x8, addend: 0x0, symName: __RINvYINtNtNtCsfvfooZQ3Axs_4core5array4iter8IntoIterARej4_Kj2_ENtNtNtNtBa_4iter6traits8iterator8Iterator8try_folduNCINvNvBY_3any5checkBN_NCNvNtCs28qvqeRNIp0_12tokio_macros5entry17is_test_attribute0E0INtNtNtBa_3ops12control_flow11ControlFlowuEEB2g_, symObjAddr: 0x2314, symBinAddr: 0x6FB4, symSize: 0x164 }
  - { offset: 0x1C2E7, size: 0x8, addend: 0x0, symName: __RINvYINtNtNtCsfvfooZQ3Axs_4core5array4iter8IntoIterNtCs3cP53eQoTwO_11proc_macro29TokenTreeKj1_ENtNtNtNtBa_4iter6traits8iterator8Iterator8for_eachNCINvXsa_NtBP_8fallbackNtB2s_11TokenStreamINtNtB1z_7collect6ExtendBN_E6extendABN_B1r_E0ECs28qvqeRNIp0_12tokio_macros, symObjAddr: 0x2478, symBinAddr: 0x7118, symSize: 0x24 }
  - { offset: 0x1C333, size: 0x8, addend: 0x0, symName: __RINvYINtNtNtNtCsfvfooZQ3Axs_4core4iter8adapters3map3MapINtNtNtBc_3ops5range5RangejENCNvNtCs28qvqeRNIp0_12tokio_macros6select19declare_output_enum0ENtNtNtBa_6traits8iterator8Iterator7collectINtNtCse1nGBsou5OW_5alloc3vec3VecNtCs3cP53eQoTwO_11proc_macro25IdentEEB1p_, symObjAddr: 0x249C, symBinAddr: 0x713C, symSize: 0x2C }
  - { offset: 0x1C373, size: 0x8, addend: 0x0, symName: __RINvYINtNtNtNtCsfvfooZQ3Axs_4core4iter8adapters3map3MapINtNtNtBc_3ops5range5RangejENCNvNtCs28qvqeRNIp0_12tokio_macros6select19declare_output_enum0ENtNtNtBa_6traits8iterator8Iterator8for_eachNCINvMsi_NtCse1nGBsou5OW_5alloc3vecINtB3b_3VecNtCs3cP53eQoTwO_11proc_macro25IdentE14extend_trustedB3_E0EB1p_, symObjAddr: 0x24C8, symBinAddr: 0x7168, symSize: 0x3C }
  - { offset: 0x1C3DE, size: 0x8, addend: 0x0, symName: __RINvYINtNtNtNtCsfvfooZQ3Axs_4core4iter8adapters3map3MapINtNtNtCse1nGBsou5OW_5alloc3vec9into_iter8IntoIterTNtNtCs6IAuOt8vWmF_3syn4attr4MetaNtNtB1K_5token5CommaEENCNvXs8_NtB1K_10punctuatedINtB2G_10PunctuatedB1G_B2c_ENtNtNtBa_6traits7collect12IntoIterator9into_iter0ENtNtB3u_8iterator8Iterator8for_eachNCINvMsi_BW_INtBW_3VecB1G_E14extend_trustedB3_E0ECs28qvqeRNIp0_12tokio_macros, symObjAddr: 0x2504, symBinAddr: 0x71A4, symSize: 0x34 }
  - { offset: 0x1C44A, size: 0x8, addend: 0x0, symName: __RINvYNtNtCs3cP53eQoTwO_11proc_macro212token_stream8IntoIterNtNtNtNtCsfvfooZQ3Axs_4core4iter6traits8iterator8Iterator4folduNCINvNvBV_8for_each4callNtB7_9TokenTreeNCINvXsa_NtB7_8fallbackNtB2I_11TokenStreamINtNtBZ_7collect6ExtendB2k_E6extendNtB7_11TokenStreamE0E0ECs28qvqeRNIp0_12tokio_macros, symObjAddr: 0x2538, symBinAddr: 0x71D8, symSize: 0x10C }
  - { offset: 0x1C4DB, size: 0x8, addend: 0x0, symName: __RINvYNtNtCs3cP53eQoTwO_11proc_macro212token_stream8IntoIterNtNtNtNtCsfvfooZQ3Axs_4core4iter6traits8iterator8Iterator8for_eachNCINvXsa_NtB7_8fallbackNtB28_11TokenStreamINtNtBZ_7collect6ExtendNtB7_9TokenTreeE6extendNtB7_11TokenStreamE0ECs28qvqeRNIp0_12tokio_macros, symObjAddr: 0x2644, symBinAddr: 0x72E4, symSize: 0x24 }
  - { offset: 0x1C527, size: 0x8, addend: 0x0, symName: __RINvYNtNtNtCsfvfooZQ3Axs_4core3ops11index_range10IndexRangeNtNtNtNtB9_4iter6traits8iterator8Iterator8try_folduNCINvMNtB7_9try_traitINtB1Q_17NeverShortCircuituE10wrap_mut_2ujNCINvXs0_NtNtB9_5array4iterINtB2U_8IntoIterNtCs3cP53eQoTwO_11proc_macro29TokenTreeKj1_EBV_4folduNCINvNvBV_8for_each4callB3s_NCINvXsa_NtB3u_8fallbackNtB4U_11TokenStreamINtNtBZ_7collect6ExtendB3s_E6extendAB3s_B46_E0E0E0E0B25_ECs28qvqeRNIp0_12tokio_macros, symObjAddr: 0x2668, symBinAddr: 0x7308, symSize: 0xF8 }
  - { offset: 0x1C5EA, size: 0x8, addend: 0x0, symName: __RNvXNtNtNtCsfvfooZQ3Axs_4core4iter6traits7collectINtNtNtB6_8adapters3map3MapINtNtNtB8_3ops5range5RangejENCNvNtCs28qvqeRNIp0_12tokio_macros6select19declare_output_enum0ENtB2_12IntoIterator9into_iterB1K_, symObjAddr: 0x39D8, symBinAddr: 0x8674, symSize: 0x14 }
  - { offset: 0x1C621, size: 0x8, addend: 0x0, symName: __RNvXNtNtNtCsfvfooZQ3Axs_4core4iter6traits7collectINtNtNtB6_8adapters3map3MapINtNtNtCse1nGBsou5OW_5alloc3vec9into_iter8IntoIterTNtNtCs6IAuOt8vWmF_3syn4attr4MetaNtNtB25_5token5CommaEENCNvXs8_NtB25_10punctuatedINtB31_10PunctuatedB21_B2x_ENtB2_12IntoIterator9into_iter0EB3L_9into_iterCs28qvqeRNIp0_12tokio_macros, symObjAddr: 0x39EC, symBinAddr: 0x8688, symSize: 0x14 }
  - { offset: 0x1CB6C, size: 0x8, addend: 0x0, symName: __RNCINvXs0_NtNtCsfvfooZQ3Axs_4core5array4iterINtB8_8IntoIterNtCs3cP53eQoTwO_11proc_macro29TokenTreeKj1_ENtNtNtNtBc_4iter6traits8iterator8Iterator4folduNCINvNvB1D_8for_each4callBV_NCINvXsa_NtBX_8fallbackNtB2Z_11TokenStreamINtNtB1H_7collect6ExtendBV_E6extendABV_B1z_E0E0E0Cs28qvqeRNIp0_12tokio_macros, symObjAddr: 0x2898, symBinAddr: 0x7538, symSize: 0xA4 }
  - { offset: 0x1CCD1, size: 0x8, addend: 0x0, symName: __RINvXs0_NtNtCsfvfooZQ3Axs_4core5array4iterINtB6_8IntoIterNtCs3cP53eQoTwO_11proc_macro29TokenTreeKj1_ENtNtNtNtBa_4iter6traits8iterator8Iterator4folduNCINvNvB1B_8for_each4callBT_NCINvXsa_NtBV_8fallbackNtB2X_11TokenStreamINtNtB1F_7collect6ExtendBT_E6extendABT_B1x_E0E0ECs28qvqeRNIp0_12tokio_macros, symObjAddr: 0x213C, symBinAddr: 0x6DDC, symSize: 0x8C }
  - { offset: 0x1CE53, size: 0x8, addend: 0x0, symName: __RNvXs0_NtNtCsfvfooZQ3Axs_4core5array4iterINtB5_8IntoIterARej4_Kj2_ENtNtNtNtB9_4iter6traits8iterator8Iterator4nextCs28qvqeRNIp0_12tokio_macros, symObjAddr: 0x3A00, symBinAddr: 0x869C, symSize: 0x170 }
  - { offset: 0x1D080, size: 0x8, addend: 0x0, symName: __RNvXs0_NtNtCsfvfooZQ3Axs_4core5array4iterINtB5_8IntoIterNtCs3cP53eQoTwO_11proc_macro29TokenTreeKj1_ENtNtNtNtB9_4iter6traits8iterator8Iterator4nextCs28qvqeRNIp0_12tokio_macros, symObjAddr: 0x3B70, symBinAddr: 0x880C, symSize: 0x16C }
  - { offset: 0x1D2AA, size: 0x8, addend: 0x0, symName: __RNvXs0_NtNtCsfvfooZQ3Axs_4core5array4iterINtB5_8IntoIterReKj4_ENtNtNtNtB9_4iter6traits8iterator8Iterator4nextCs28qvqeRNIp0_12tokio_macros, symObjAddr: 0x3CDC, symBinAddr: 0x8978, symSize: 0x158 }
  - { offset: 0x1D56A, size: 0x8, addend: 0x0, symName: __RNvXNtNtCsfvfooZQ3Axs_4core5array4iterAARej4_j2_NtNtNtNtB6_4iter6traits7collect12IntoIterator9into_iterCs28qvqeRNIp0_12tokio_macros, symObjAddr: 0x3928, symBinAddr: 0x85C4, symSize: 0x58 }
  - { offset: 0x1D5A0, size: 0x8, addend: 0x0, symName: __RNvXNtNtCsfvfooZQ3Axs_4core5array4iterARej4_NtNtNtNtB6_4iter6traits7collect12IntoIterator9into_iterCs28qvqeRNIp0_12tokio_macros, symObjAddr: 0x3980, symBinAddr: 0x861C, symSize: 0x58 }
  - { offset: 0x1D5DC, size: 0x8, addend: 0x0, symName: __RNvXs2_NtNtCsfvfooZQ3Axs_4core5array4iterINtB5_8IntoIterARej4_Kj2_ENtNtNtB9_3ops4drop4Drop4dropCs28qvqeRNIp0_12tokio_macros, symObjAddr: 0x3F84, symBinAddr: 0x8C20, symSize: 0x24 }
  - { offset: 0x1D60F, size: 0x8, addend: 0x0, symName: __RNvXs2_NtNtCsfvfooZQ3Axs_4core5array4iterINtB5_8IntoIterReKj4_ENtNtNtB9_3ops4drop4Drop4dropCs28qvqeRNIp0_12tokio_macros, symObjAddr: 0x3FA8, symBinAddr: 0x8C44, symSize: 0x24 }
  - { offset: 0x1D6A4, size: 0x8, addend: 0x0, symName: __RNvNvMNtNtCsfvfooZQ3Axs_4core5alloc6layoutNtB4_6Layout25from_size_align_unchecked18precondition_checkCs28qvqeRNIp0_12tokio_macros, symObjAddr: 0x339C, symBinAddr: 0x8038, symSize: 0x50 }
  - { offset: 0x1D6E8, size: 0x8, addend: 0x0, symName: __RNvNvNtCsfvfooZQ3Axs_4core10intrinsics19copy_nonoverlapping18precondition_checkCs28qvqeRNIp0_12tokio_macros, symObjAddr: 0x33EC, symBinAddr: 0x8088, symSize: 0x2E4 }
  - { offset: 0x1DA97, size: 0x8, addend: 0x0, symName: __RNvNvNtCsfvfooZQ3Axs_4core9ub_checks23maybe_is_nonoverlapping7runtimeCs28qvqeRNIp0_12tokio_macros, symObjAddr: 0x37D0, symBinAddr: 0x846C, symSize: 0xD8 }
  - { offset: 0x1E5CD, size: 0x8, addend: 0x0, symName: __RNCNvXs1_NtNtNtCscOYdFFY2T5N_3std2io5error14repr_bitpackedNtB7_4ReprNtNtNtCsfvfooZQ3Axs_4core3ops4drop4Drop4drop0Cs28qvqeRNIp0_12tokio_macros, symObjAddr: 0x29F4, symBinAddr: 0x7694, symSize: 0x34 }
  - { offset: 0x1E682, size: 0x8, addend: 0x0, symName: __RNvXs1_NtNtNtCscOYdFFY2T5N_3std2io5error14repr_bitpackedNtB5_4ReprNtNtNtCsfvfooZQ3Axs_4core3ops4drop4Drop4dropCs28qvqeRNIp0_12tokio_macros, symObjAddr: 0x3F4C, symBinAddr: 0x8BE8, symSize: 0x38 }
  - { offset: 0x1E6AB, size: 0x8, addend: 0x0, symName: __RINvNtNtNtCscOYdFFY2T5N_3std2io5error14repr_bitpacked11decode_reprINtNtCse1nGBsou5OW_5alloc5boxed3BoxNtB4_6CustomENCNvXs1_B2_NtB2_4ReprNtNtNtCsfvfooZQ3Axs_4core3ops4drop4Drop4drop0ECs28qvqeRNIp0_12tokio_macros, symObjAddr: 0x183C, symBinAddr: 0x64DC, symSize: 0x230 }
  - { offset: 0x1E950, size: 0x8, addend: 0x0, symName: __RNvNtNtNtCscOYdFFY2T5N_3std2io5error14repr_bitpacked14kind_from_primCs28qvqeRNIp0_12tokio_macros, symObjAddr: 0x2D94, symBinAddr: 0x7A30, symSize: 0x608 }
  - { offset: 0x1F294, size: 0x8, addend: 0x0, symName: __RINvNvNtCscOYdFFY2T5N_3std9panicking3try7do_callINtNtNtCsfvfooZQ3Axs_4core5panic11unwind_safe16AssertUnwindSafeNCINvNtNtCs9i5KxIbZ5ph_10proc_macro6bridge6client10run_clientNtB1Q_11TokenStreamINtNtBR_6option6OptionB2K_ENCNCINvMs7_B1Q_INtB1Q_6ClientNtB1U_11TokenStreamB3X_E7expand1NvCs28qvqeRNIp0_12tokio_macros25select_priv_clean_patternE00E0EuEB4v_, symObjAddr: 0x1B3C, symBinAddr: 0x67DC, symSize: 0x50 }
  - { offset: 0x1F35C, size: 0x8, addend: 0x0, symName: __RINvNvNtCscOYdFFY2T5N_3std9panicking3try7do_callINtNtNtCsfvfooZQ3Axs_4core5panic11unwind_safe16AssertUnwindSafeNCINvNtNtCs9i5KxIbZ5ph_10proc_macro6bridge6client10run_clientNtB1Q_11TokenStreamINtNtBR_6option6OptionB2K_ENCNCINvMs7_B1Q_INtB1Q_6ClientNtB1U_11TokenStreamB3X_E7expand1NvCs28qvqeRNIp0_12tokio_macros31select_priv_declare_output_enumE00E0EuEB4v_, symObjAddr: 0x1B8C, symBinAddr: 0x682C, symSize: 0x50 }
  - { offset: 0x1F424, size: 0x8, addend: 0x0, symName: __RINvNvNtCscOYdFFY2T5N_3std9panicking3try7do_callINtNtNtCsfvfooZQ3Axs_4core5panic11unwind_safe16AssertUnwindSafeNCINvNtNtCs9i5KxIbZ5ph_10proc_macro6bridge6client10run_clientTNtB1Q_11TokenStreamB2L_EINtNtBR_6option6OptionB2L_ENCNCINvMs8_B1Q_INtB1Q_6ClientTNtB1U_11TokenStreamB44_EB44_E7expand2NvCs28qvqeRNIp0_12tokio_macros4mainE00E0EuEB4H_, symObjAddr: 0x1BDC, symBinAddr: 0x687C, symSize: 0x50 }
  - { offset: 0x1F4EC, size: 0x8, addend: 0x0, symName: __RINvNvNtCscOYdFFY2T5N_3std9panicking3try7do_callINtNtNtCsfvfooZQ3Axs_4core5panic11unwind_safe16AssertUnwindSafeNCINvNtNtCs9i5KxIbZ5ph_10proc_macro6bridge6client10run_clientTNtB1Q_11TokenStreamB2L_EINtNtBR_6option6OptionB2L_ENCNCINvMs8_B1Q_INtB1Q_6ClientTNtB1U_11TokenStreamB44_EB44_E7expand2NvCs28qvqeRNIp0_12tokio_macros4testE00E0EuEB4H_, symObjAddr: 0x1C2C, symBinAddr: 0x68CC, symSize: 0x50 }
  - { offset: 0x1F5B4, size: 0x8, addend: 0x0, symName: __RINvNvNtCscOYdFFY2T5N_3std9panicking3try7do_callINtNtNtCsfvfooZQ3Axs_4core5panic11unwind_safe16AssertUnwindSafeNCINvNtNtCs9i5KxIbZ5ph_10proc_macro6bridge6client10run_clientTNtB1Q_11TokenStreamB2L_EINtNtBR_6option6OptionB2L_ENCNCINvMs8_B1Q_INtB1Q_6ClientTNtB1U_11TokenStreamB44_EB44_E7expand2NvCs28qvqeRNIp0_12tokio_macros7main_rtE00E0EuEB4H_, symObjAddr: 0x1C7C, symBinAddr: 0x691C, symSize: 0x50 }
  - { offset: 0x1F67C, size: 0x8, addend: 0x0, symName: __RINvNvNtCscOYdFFY2T5N_3std9panicking3try7do_callINtNtNtCsfvfooZQ3Axs_4core5panic11unwind_safe16AssertUnwindSafeNCINvNtNtCs9i5KxIbZ5ph_10proc_macro6bridge6client10run_clientTNtB1Q_11TokenStreamB2L_EINtNtBR_6option6OptionB2L_ENCNCINvMs8_B1Q_INtB1Q_6ClientTNtB1U_11TokenStreamB44_EB44_E7expand2NvCs28qvqeRNIp0_12tokio_macros7test_rtE00E0EuEB4H_, symObjAddr: 0x1CCC, symBinAddr: 0x696C, symSize: 0x50 }
  - { offset: 0x1F744, size: 0x8, addend: 0x0, symName: __RINvNvNtCscOYdFFY2T5N_3std9panicking3try7do_callINtNtNtCsfvfooZQ3Axs_4core5panic11unwind_safe16AssertUnwindSafeNCINvNtNtCs9i5KxIbZ5ph_10proc_macro6bridge6client10run_clientTNtB1Q_11TokenStreamB2L_EINtNtBR_6option6OptionB2L_ENCNCINvMs8_B1Q_INtB1Q_6ClientTNtB1U_11TokenStreamB44_EB44_E7expand2NvCs28qvqeRNIp0_12tokio_macros9main_failE00E0EuEB4H_, symObjAddr: 0x1D1C, symBinAddr: 0x69BC, symSize: 0x50 }
  - { offset: 0x1F80C, size: 0x8, addend: 0x0, symName: __RINvNvNtCscOYdFFY2T5N_3std9panicking3try7do_callINtNtNtCsfvfooZQ3Axs_4core5panic11unwind_safe16AssertUnwindSafeNCINvNtNtCs9i5KxIbZ5ph_10proc_macro6bridge6client10run_clientTNtB1Q_11TokenStreamB2L_EINtNtBR_6option6OptionB2L_ENCNCINvMs8_B1Q_INtB1Q_6ClientTNtB1U_11TokenStreamB44_EB44_E7expand2NvCs28qvqeRNIp0_12tokio_macros9test_failE00E0EuEB4H_, symObjAddr: 0x1D6C, symBinAddr: 0x6A0C, symSize: 0x50 }
  - { offset: 0x1F8D4, size: 0x8, addend: 0x0, symName: __RINvNvNtCscOYdFFY2T5N_3std9panicking3try8do_catchINtNtNtCsfvfooZQ3Axs_4core5panic11unwind_safe16AssertUnwindSafeNCINvNtNtCs9i5KxIbZ5ph_10proc_macro6bridge6client10run_clientNtB1R_11TokenStreamINtNtBS_6option6OptionB2L_ENCNCINvMs7_B1R_INtB1R_6ClientNtB1V_11TokenStreamB3Y_E7expand1NvCs28qvqeRNIp0_12tokio_macros25select_priv_clean_patternE00E0EuEB4w_, symObjAddr: 0x1DBC, symBinAddr: 0x6A5C, symSize: 0x70 }
  - { offset: 0x1F969, size: 0x8, addend: 0x0, symName: __RINvNvNtCscOYdFFY2T5N_3std9panicking3try8do_catchINtNtNtCsfvfooZQ3Axs_4core5panic11unwind_safe16AssertUnwindSafeNCINvNtNtCs9i5KxIbZ5ph_10proc_macro6bridge6client10run_clientNtB1R_11TokenStreamINtNtBS_6option6OptionB2L_ENCNCINvMs7_B1R_INtB1R_6ClientNtB1V_11TokenStreamB3Y_E7expand1NvCs28qvqeRNIp0_12tokio_macros31select_priv_declare_output_enumE00E0EuEB4w_, symObjAddr: 0x1E2C, symBinAddr: 0x6ACC, symSize: 0x70 }
  - { offset: 0x1F9FE, size: 0x8, addend: 0x0, symName: __RINvNvNtCscOYdFFY2T5N_3std9panicking3try8do_catchINtNtNtCsfvfooZQ3Axs_4core5panic11unwind_safe16AssertUnwindSafeNCINvNtNtCs9i5KxIbZ5ph_10proc_macro6bridge6client10run_clientTNtB1R_11TokenStreamB2M_EINtNtBS_6option6OptionB2M_ENCNCINvMs8_B1R_INtB1R_6ClientTNtB1V_11TokenStreamB45_EB45_E7expand2NvCs28qvqeRNIp0_12tokio_macros4mainE00E0EuEB4I_, symObjAddr: 0x1E9C, symBinAddr: 0x6B3C, symSize: 0x70 }
  - { offset: 0x1FA93, size: 0x8, addend: 0x0, symName: __RINvNvNtCscOYdFFY2T5N_3std9panicking3try8do_catchINtNtNtCsfvfooZQ3Axs_4core5panic11unwind_safe16AssertUnwindSafeNCINvNtNtCs9i5KxIbZ5ph_10proc_macro6bridge6client10run_clientTNtB1R_11TokenStreamB2M_EINtNtBS_6option6OptionB2M_ENCNCINvMs8_B1R_INtB1R_6ClientTNtB1V_11TokenStreamB45_EB45_E7expand2NvCs28qvqeRNIp0_12tokio_macros4testE00E0EuEB4I_, symObjAddr: 0x1F0C, symBinAddr: 0x6BAC, symSize: 0x70 }
  - { offset: 0x1FB28, size: 0x8, addend: 0x0, symName: __RINvNvNtCscOYdFFY2T5N_3std9panicking3try8do_catchINtNtNtCsfvfooZQ3Axs_4core5panic11unwind_safe16AssertUnwindSafeNCINvNtNtCs9i5KxIbZ5ph_10proc_macro6bridge6client10run_clientTNtB1R_11TokenStreamB2M_EINtNtBS_6option6OptionB2M_ENCNCINvMs8_B1R_INtB1R_6ClientTNtB1V_11TokenStreamB45_EB45_E7expand2NvCs28qvqeRNIp0_12tokio_macros7main_rtE00E0EuEB4I_, symObjAddr: 0x1F7C, symBinAddr: 0x6C1C, symSize: 0x70 }
  - { offset: 0x1FBBD, size: 0x8, addend: 0x0, symName: __RINvNvNtCscOYdFFY2T5N_3std9panicking3try8do_catchINtNtNtCsfvfooZQ3Axs_4core5panic11unwind_safe16AssertUnwindSafeNCINvNtNtCs9i5KxIbZ5ph_10proc_macro6bridge6client10run_clientTNtB1R_11TokenStreamB2M_EINtNtBS_6option6OptionB2M_ENCNCINvMs8_B1R_INtB1R_6ClientTNtB1V_11TokenStreamB45_EB45_E7expand2NvCs28qvqeRNIp0_12tokio_macros7test_rtE00E0EuEB4I_, symObjAddr: 0x1FEC, symBinAddr: 0x6C8C, symSize: 0x70 }
  - { offset: 0x1FC52, size: 0x8, addend: 0x0, symName: __RINvNvNtCscOYdFFY2T5N_3std9panicking3try8do_catchINtNtNtCsfvfooZQ3Axs_4core5panic11unwind_safe16AssertUnwindSafeNCINvNtNtCs9i5KxIbZ5ph_10proc_macro6bridge6client10run_clientTNtB1R_11TokenStreamB2M_EINtNtBS_6option6OptionB2M_ENCNCINvMs8_B1R_INtB1R_6ClientTNtB1V_11TokenStreamB45_EB45_E7expand2NvCs28qvqeRNIp0_12tokio_macros9main_failE00E0EuEB4I_, symObjAddr: 0x205C, symBinAddr: 0x6CFC, symSize: 0x70 }
  - { offset: 0x1FCE7, size: 0x8, addend: 0x0, symName: __RINvNvNtCscOYdFFY2T5N_3std9panicking3try8do_catchINtNtNtCsfvfooZQ3Axs_4core5panic11unwind_safe16AssertUnwindSafeNCINvNtNtCs9i5KxIbZ5ph_10proc_macro6bridge6client10run_clientTNtB1R_11TokenStreamB2M_EINtNtBS_6option6OptionB2M_ENCNCINvMs8_B1R_INtB1R_6ClientTNtB1V_11TokenStreamB45_EB45_E7expand2NvCs28qvqeRNIp0_12tokio_macros9test_failE00E0EuEB4I_, symObjAddr: 0x20CC, symBinAddr: 0x6D6C, symSize: 0x70 }
  - { offset: 0x1FF63, size: 0x8, addend: 0x0, symName: __RINvCs6IAuOt8vWmF_3syn6parse2NtNtCs28qvqeRNIp0_12tokio_macros5entry6ItemFnEBv_, symObjAddr: 0x0, symBinAddr: 0x4D18, symSize: 0x24 }
  - { offset: 0x24E43, size: 0x8, addend: 0x0, symName: __RINvNtCs6IAuOt8vWmF_3syn5parse12parse_scopedNvYNtNtB4_4path4PathNtB2_5Parse5parseECs28qvqeRNIp0_12tokio_macros, symObjAddr: 0x708, symBinAddr: 0x5420, symSize: 0x30 }
  - { offset: 0x24E9E, size: 0x8, addend: 0x0, symName: __RNvXsh_NtCs6IAuOt8vWmF_3syn5parseNvYNtNtB7_4path4PathNtB5_5Parse5parseNtB5_6Parser14___parse_scopedCs28qvqeRNIp0_12tokio_macros, symObjAddr: 0x43C0, symBinAddr: 0x905C, symSize: 0x3C0 }
  - { offset: 0x24FEB, size: 0x8, addend: 0x0, symName: __RNvXsh_NtCs6IAuOt8vWmF_3syn5parseNvYNtNtCs28qvqeRNIp0_12tokio_macros5entry6ItemFnNtB5_5Parse5parseNtB5_6Parser6parse2BC_, symObjAddr: 0x4780, symBinAddr: 0x941C, symSize: 0x368 }
  - { offset: 0x263FD, size: 0x8, addend: 0x0, symName: __RNvXs1_NtCse1nGBsou5OW_5alloc7raw_vecINtB5_6RawVecNtCs3cP53eQoTwO_11proc_macro211TokenStreamENtNtNtCsfvfooZQ3Axs_4core3ops4drop4Drop4dropCs28qvqeRNIp0_12tokio_macros, symObjAddr: 0x3E7C, symBinAddr: 0x8B18, symSize: 0x34 }
  - { offset: 0x26439, size: 0x8, addend: 0x0, symName: __RNvXs1_NtCse1nGBsou5OW_5alloc7raw_vecINtB5_6RawVecNtCs3cP53eQoTwO_11proc_macro25IdentENtNtNtCsfvfooZQ3Axs_4core3ops4drop4Drop4dropCs28qvqeRNIp0_12tokio_macros, symObjAddr: 0x3EB0, symBinAddr: 0x8B4C, symSize: 0x34 }
  - { offset: 0x26475, size: 0x8, addend: 0x0, symName: __RNvXs1_NtCse1nGBsou5OW_5alloc7raw_vecINtB5_6RawVecNtNtCs6IAuOt8vWmF_3syn4attr4MetaENtNtNtCsfvfooZQ3Axs_4core3ops4drop4Drop4dropCs28qvqeRNIp0_12tokio_macros, symObjAddr: 0x3EE4, symBinAddr: 0x8B80, symSize: 0x34 }
  - { offset: 0x264B1, size: 0x8, addend: 0x0, symName: __RNvXs1_NtCse1nGBsou5OW_5alloc7raw_vecINtB5_6RawVecTNtNtCs6IAuOt8vWmF_3syn4attr4MetaNtNtBR_5token5CommaEENtNtNtCsfvfooZQ3Axs_4core3ops4drop4Drop4dropCs28qvqeRNIp0_12tokio_macros, symObjAddr: 0x3F18, symBinAddr: 0x8BB4, symSize: 0x34 }
  - { offset: 0x26BA9, size: 0x8, addend: 0x0, symName: __RINvMNtCsfvfooZQ3Axs_4core6resultINtB3_6ResultINtNtCs6IAuOt8vWmF_3syn10punctuated10PunctuatedNtNtBN_4attr4MetaNtNtBN_5token5CommaENtNtBN_5error5ErrorE8and_thenNtNtCs28qvqeRNIp0_12tokio_macros5entry11FinalConfigNCNvB2z_4main0EB2B_, symObjAddr: 0x4C, symBinAddr: 0x4D64, symSize: 0xBC }
  - { offset: 0x26C3C, size: 0x8, addend: 0x0, symName: __RINvMNtCsfvfooZQ3Axs_4core6resultINtB3_6ResultINtNtCs6IAuOt8vWmF_3syn10punctuated10PunctuatedNtNtBN_4attr4MetaNtNtBN_5token5CommaENtNtBN_5error5ErrorE8and_thenNtNtCs28qvqeRNIp0_12tokio_macros5entry11FinalConfigNCNvB2z_4tests_0EB2B_, symObjAddr: 0x108, symBinAddr: 0x4E20, symSize: 0xBC }
  - { offset: 0x26CDC, size: 0x8, addend: 0x0, symName: __RINvMNtCsfvfooZQ3Axs_4core6resultINtB3_6ResultNtNtCs28qvqeRNIp0_12tokio_macros5entry13RuntimeFlavorNtNtCse1nGBsou5OW_5alloc6string6StringE7map_errNtNtCs6IAuOt8vWmF_3syn5error5ErrorNCNvMs0_BK_NtBK_13Configuration10set_flavor0EBM_, symObjAddr: 0x1C4, symBinAddr: 0x4EDC, symSize: 0xB8 }
  - { offset: 0x26D6F, size: 0x8, addend: 0x0, symName: __RINvMNtCsfvfooZQ3Axs_4core6resultINtB3_6ResultNtNtCs28qvqeRNIp0_12tokio_macros5entry14UnhandledPanicNtNtCse1nGBsou5OW_5alloc6string6StringE7map_errNtNtCs6IAuOt8vWmF_3syn5error5ErrorNCNvMs0_BK_NtBK_13Configuration19set_unhandled_panic0EBM_, symObjAddr: 0x27C, symBinAddr: 0x4F94, symSize: 0xB8 }
  - { offset: 0x26E0F, size: 0x8, addend: 0x0, symName: __RINvMNtCsfvfooZQ3Axs_4core6resultINtB3_6ResultNtNtCs6IAuOt8vWmF_3syn4path4PathNtNtBM_5error5ErrorE7map_errB1e_NCNvNtCs28qvqeRNIp0_12tokio_macros5entry10parse_path0EB1Q_, symObjAddr: 0x334, symBinAddr: 0x504C, symSize: 0xC8 }
  - { offset: 0x26EB0, size: 0x8, addend: 0x0, symName: __RINvMNtCsfvfooZQ3Axs_4core6resultINtB3_6ResultjNtNtNtB5_3num5error13ParseIntErrorE7map_errNtNtCs6IAuOt8vWmF_3syn5error5ErrorNCINvMs3_NtB1u_3litNtB27_6LitInt12base10_parsejE0ECs28qvqeRNIp0_12tokio_macros, symObjAddr: 0x3FC, symBinAddr: 0x5114, symSize: 0x84 }
  - { offset: 0x26F7E, size: 0x8, addend: 0x0, symName: __RINvMs9_NtCs6IAuOt8vWmF_3syn5parseNtB6_11ParseBuffer5parseNtCs3cP53eQoTwO_11proc_macro29TokenTreeECs28qvqeRNIp0_12tokio_macros, symObjAddr: 0x480, symBinAddr: 0x5198, symSize: 0x34 }
  - { offset: 0x26FD1, size: 0x8, addend: 0x0, symName: __RINvMsiX_NtCs6IAuOt8vWmF_3syn5tokenNtB7_5Brace8surroundNCNvMs1_NtCs28qvqeRNIp0_12tokio_macros5entryNtBZ_6ItemFn11into_tokens0EB11_, symObjAddr: 0x4B4, symBinAddr: 0x51CC, symSize: 0x120 }
  - { offset: 0x27065, size: 0x8, addend: 0x0, symName: __RINvMsiX_NtCs6IAuOt8vWmF_3syn5tokenNtB7_5Brace8surroundNCNvXs3_NtCs28qvqeRNIp0_12tokio_macros5entryNtBZ_4BodyNtNtCs2cqEZUIJimJ_5quote9to_tokens8ToTokens9to_tokens0EB11_, symObjAddr: 0x5D4, symBinAddr: 0x52EC, symSize: 0x114 }
  - { offset: 0x270CF, size: 0x8, addend: 0x0, symName: __RINvNtCs2cqEZUIJimJ_5quote9___private8get_spanNtCs3cP53eQoTwO_11proc_macro24SpanECs28qvqeRNIp0_12tokio_macros, symObjAddr: 0x6E8, symBinAddr: 0x5400, symSize: 0x20 }
  - { offset: 0x271BA, size: 0x8, addend: 0x0, symName: __RNvXs4_NtCs2cqEZUIJimJ_5quote9___privateINtB5_9RepInterpRNtCs3cP53eQoTwO_11proc_macro25IdentENtNtB7_9to_tokens8ToTokens9to_tokensCs28qvqeRNIp0_12tokio_macros, symObjAddr: 0x3FCC, symBinAddr: 0x8C68, symSize: 0x3C }
  - { offset: 0x27205, size: 0x8, addend: 0x0, symName: __RNvXNtCs2cqEZUIJimJ_5quote9to_tokensRNtNtCs6IAuOt8vWmF_3syn4attr13MetaNameValueNtB2_8ToTokens9to_tokensCs28qvqeRNIp0_12tokio_macros, symObjAddr: 0x38A8, symBinAddr: 0x8544, symSize: 0x40 }
  - { offset: 0x27244, size: 0x8, addend: 0x0, symName: __RNvXNtCs2cqEZUIJimJ_5quote9to_tokensRNtNtCs6IAuOt8vWmF_3syn4path4PathNtB2_8ToTokens9to_tokensCs28qvqeRNIp0_12tokio_macros, symObjAddr: 0x38E8, symBinAddr: 0x8584, symSize: 0x40 }
  - { offset: 0x27289, size: 0x8, addend: 0x0, symName: __RNvYNtNtCs6IAuOt8vWmF_3syn3pat3PatNtNtCs2cqEZUIJimJ_5quote9to_tokens8ToTokens15to_token_streamCs28qvqeRNIp0_12tokio_macros, symObjAddr: 0x5120, symBinAddr: 0x9DBC, symSize: 0x8C }
  - { offset: 0x272D3, size: 0x8, addend: 0x0, symName: __RNvYNtNtCs6IAuOt8vWmF_3syn3pat3PatNtNtCs2cqEZUIJimJ_5quote9to_tokens8ToTokens17into_token_streamCs28qvqeRNIp0_12tokio_macros, symObjAddr: 0x51AC, symBinAddr: 0x9E48, symSize: 0x64 }
  - { offset: 0x27309, size: 0x8, addend: 0x0, symName: __RNvYNtNtCs6IAuOt8vWmF_3syn4attr13MetaNameValueNtNtCs2cqEZUIJimJ_5quote9to_tokens8ToTokens15to_token_streamCs28qvqeRNIp0_12tokio_macros, symObjAddr: 0x5210, symBinAddr: 0x9EAC, symSize: 0x8C }
  - { offset: 0x27353, size: 0x8, addend: 0x0, symName: __RNvYNtNtCs6IAuOt8vWmF_3syn4attr13MetaNameValueNtNtCs2cqEZUIJimJ_5quote9to_tokens8ToTokens17into_token_streamCs28qvqeRNIp0_12tokio_macros, symObjAddr: 0x529C, symBinAddr: 0x9F38, symSize: 0x64 }
  - { offset: 0x27389, size: 0x8, addend: 0x0, symName: __RNvYNtNtCs6IAuOt8vWmF_3syn4attr4MetaNtNtCs2cqEZUIJimJ_5quote9to_tokens8ToTokens15to_token_streamCs28qvqeRNIp0_12tokio_macros, symObjAddr: 0x5300, symBinAddr: 0x9F9C, symSize: 0x8C }
  - { offset: 0x273D3, size: 0x8, addend: 0x0, symName: __RNvYNtNtCs6IAuOt8vWmF_3syn4attr4MetaNtNtCs2cqEZUIJimJ_5quote9to_tokens8ToTokens17into_token_streamCs28qvqeRNIp0_12tokio_macros, symObjAddr: 0x538C, symBinAddr: 0xA028, symSize: 0x64 }
  - { offset: 0x27409, size: 0x8, addend: 0x0, symName: __RNvYNtNtCs6IAuOt8vWmF_3syn4path4PathNtNtCs2cqEZUIJimJ_5quote9to_tokens8ToTokens15to_token_streamCs28qvqeRNIp0_12tokio_macros, symObjAddr: 0x53F0, symBinAddr: 0xA08C, symSize: 0x8C }
  - { offset: 0x27453, size: 0x8, addend: 0x0, symName: __RNvYNtNtCs6IAuOt8vWmF_3syn4path4PathNtNtCs2cqEZUIJimJ_5quote9to_tokens8ToTokens17into_token_streamCs28qvqeRNIp0_12tokio_macros, symObjAddr: 0x547C, symBinAddr: 0xA118, symSize: 0x64 }
  - { offset: 0x27489, size: 0x8, addend: 0x0, symName: __RNvYNtNtCs6IAuOt8vWmF_3syn5token2FnNtNtCs2cqEZUIJimJ_5quote9to_tokens8ToTokens15to_token_streamCs28qvqeRNIp0_12tokio_macros, symObjAddr: 0x54E0, symBinAddr: 0xA17C, symSize: 0x8C }
  - { offset: 0x274D3, size: 0x8, addend: 0x0, symName: __RNvYNtNtCs6IAuOt8vWmF_3syn5token2FnNtNtCs2cqEZUIJimJ_5quote9to_tokens8ToTokens17into_token_streamCs28qvqeRNIp0_12tokio_macros, symObjAddr: 0x556C, symBinAddr: 0xA208, symSize: 0x54 }
  - { offset: 0x27508, size: 0x8, addend: 0x0, symName: __RNvYRNtNtCs6IAuOt8vWmF_3syn4attr13MetaNameValueNtNtCs2cqEZUIJimJ_5quote9to_tokens8ToTokens15to_token_streamCs28qvqeRNIp0_12tokio_macros, symObjAddr: 0x5890, symBinAddr: 0xA52C, symSize: 0x8C }
  - { offset: 0x27552, size: 0x8, addend: 0x0, symName: __RNvYRNtNtCs6IAuOt8vWmF_3syn4attr13MetaNameValueNtNtCs2cqEZUIJimJ_5quote9to_tokens8ToTokens17into_token_streamCs28qvqeRNIp0_12tokio_macros, symObjAddr: 0x591C, symBinAddr: 0xA5B8, symSize: 0x54 }
  - { offset: 0x27587, size: 0x8, addend: 0x0, symName: __RNvYRNtNtCs6IAuOt8vWmF_3syn4attr9AttributeNtNtCs2cqEZUIJimJ_5quote9to_tokens8ToTokens15to_token_streamCs28qvqeRNIp0_12tokio_macros, symObjAddr: 0x5970, symBinAddr: 0xA60C, symSize: 0x8C }
  - { offset: 0x275D1, size: 0x8, addend: 0x0, symName: __RNvYRNtNtCs6IAuOt8vWmF_3syn4attr9AttributeNtNtCs2cqEZUIJimJ_5quote9to_tokens8ToTokens17into_token_streamCs28qvqeRNIp0_12tokio_macros, symObjAddr: 0x59FC, symBinAddr: 0xA698, symSize: 0x54 }
  - { offset: 0x27606, size: 0x8, addend: 0x0, symName: __RNvYRNtNtCs6IAuOt8vWmF_3syn4expr4ExprNtNtCs2cqEZUIJimJ_5quote9to_tokens8ToTokens15to_token_streamCs28qvqeRNIp0_12tokio_macros, symObjAddr: 0x5A50, symBinAddr: 0xA6EC, symSize: 0x8C }
  - { offset: 0x27650, size: 0x8, addend: 0x0, symName: __RNvYRNtNtCs6IAuOt8vWmF_3syn4expr4ExprNtNtCs2cqEZUIJimJ_5quote9to_tokens8ToTokens17into_token_streamCs28qvqeRNIp0_12tokio_macros, symObjAddr: 0x5ADC, symBinAddr: 0xA778, symSize: 0x54 }
  - { offset: 0x27685, size: 0x8, addend: 0x0, symName: __RNvYRNtNtCs6IAuOt8vWmF_3syn4path4PathNtNtCs2cqEZUIJimJ_5quote9to_tokens8ToTokens15to_token_streamCs28qvqeRNIp0_12tokio_macros, symObjAddr: 0x5B30, symBinAddr: 0xA7CC, symSize: 0x8C }
  - { offset: 0x276CF, size: 0x8, addend: 0x0, symName: __RNvYRNtNtCs6IAuOt8vWmF_3syn4path4PathNtNtCs2cqEZUIJimJ_5quote9to_tokens8ToTokens17into_token_streamCs28qvqeRNIp0_12tokio_macros, symObjAddr: 0x5BBC, symBinAddr: 0xA858, symSize: 0x54 }
  - { offset: 0x27C0C, size: 0x8, addend: 0x0, symName: __RNvMNtNtCs2cqEZUIJimJ_5quote9___private8get_spanINtB2_7GetSpanNtCs3cP53eQoTwO_11proc_macro24SpanE11___into_spanCs28qvqeRNIp0_12tokio_macros, symObjAddr: 0x2ABC, symBinAddr: 0x775C, symSize: 0x20 }
  - { offset: 0x27C80, size: 0x8, addend: 0x0, symName: __RNvMs0_NtCse1nGBsou5OW_5alloc7raw_vecINtB5_6RawVecNtCs3cP53eQoTwO_11proc_macro211TokenStreamE8grow_oneCs28qvqeRNIp0_12tokio_macros, symObjAddr: 0x2ADC, symBinAddr: 0x777C, symSize: 0x94 }
  - { offset: 0x27D2E, size: 0x8, addend: 0x0, symName: __RNvMs0_NtCse1nGBsou5OW_5alloc7raw_vecINtB5_6RawVecTNtNtCs6IAuOt8vWmF_3syn4attr4MetaNtNtBR_5token5CommaEE8grow_oneCs28qvqeRNIp0_12tokio_macros, symObjAddr: 0x2B70, symBinAddr: 0x7810, symSize: 0x94 }
  - { offset: 0x27DA4, size: 0x8, addend: 0x0, symName: __RNvMs2_NtCs2cqEZUIJimJ_5quote9___privateINtB5_9RepInterpRNtCs3cP53eQoTwO_11proc_macro25IdentE4nextCs28qvqeRNIp0_12tokio_macros, symObjAddr: 0x2C04, symBinAddr: 0x78A4, symSize: 0x2C }
  - { offset: 0x27E8E, size: 0x8, addend: 0x0, symName: __RNvMs_NtNtCsfvfooZQ3Axs_4core5array4iterINtB4_8IntoIterARej4_Kj2_E12as_mut_sliceCs28qvqeRNIp0_12tokio_macros, symObjAddr: 0x2C30, symBinAddr: 0x78D0, symSize: 0xB0 }
  - { offset: 0x2801F, size: 0x8, addend: 0x0, symName: __RNvMs_NtNtCsfvfooZQ3Axs_4core5array4iterINtB4_8IntoIterReKj4_E12as_mut_sliceCs28qvqeRNIp0_12tokio_macros, symObjAddr: 0x2CE0, symBinAddr: 0x7980, symSize: 0xB0 }
  - { offset: 0x28FA3, size: 0x8, addend: 0x0, symName: __RINvMNtCs6IAuOt8vWmF_3syn3litNtB3_6LitStr10parse_withNvYNtNtB5_4path4PathNtNtB5_5parse5Parse5parseECs28qvqeRNIp0_12tokio_macros, symObjAddr: 0x0, symBinAddr: 0xAF6C, symSize: 0x420 }
  - { offset: 0x29312, size: 0x8, addend: 0x0, symName: __RNCNvMs3_NtNtCscOYdFFY2T5N_3std6thread5localINtB7_8LocalKeyINtNtCsfvfooZQ3Axs_4core4cell4CellPuEE7replace0Cs28qvqeRNIp0_12tokio_macros, symObjAddr: 0x1F34, symBinAddr: 0xCEA0, symSize: 0x28 }
  - { offset: 0x29732, size: 0x8, addend: 0x0, symName: __RNvNvMs1_NtNtCsfvfooZQ3Axs_4core3ptr8non_nullINtB7_7NonNullpE13new_unchecked18precondition_checkCs28qvqeRNIp0_12tokio_macros, symObjAddr: 0x2F18, symBinAddr: 0xDE84, symSize: 0x38 }
  - { offset: 0x29E67, size: 0x8, addend: 0x0, symName: __RNvNvMNtNtCsfvfooZQ3Axs_4core3ptr9const_ptrPp7sub_ptr18precondition_checkCs28qvqeRNIp0_12tokio_macros, symObjAddr: 0x2ED8, symBinAddr: 0xDE44, symSize: 0x40 }
  - { offset: 0x2AA99, size: 0x8, addend: 0x0, symName: __RNvNvMs9_NtCsfvfooZQ3Axs_4core3numj13unchecked_add18precondition_checkCs28qvqeRNIp0_12tokio_macros, symObjAddr: 0x2F9C, symBinAddr: 0xDF08, symSize: 0x44 }
  - { offset: 0x2ABF3, size: 0x8, addend: 0x0, symName: __RNvMsu_NtCsfvfooZQ3Axs_4core3numj16from_ascii_radixCs28qvqeRNIp0_12tokio_macros, symObjAddr: 0x26CC, symBinAddr: 0xD638, symSize: 0x58C }
  - { offset: 0x2AE93, size: 0x8, addend: 0x0, symName: __RNvNvMs3_NtCsfvfooZQ3Axs_4core3numi13unchecked_neg18precondition_checkCs28qvqeRNIp0_12tokio_macros, symObjAddr: 0x2F50, symBinAddr: 0xDEBC, symSize: 0x4C }
  - { offset: 0x2AEFE, size: 0x8, addend: 0x0, symName: __RNvXst_NtCsfvfooZQ3Axs_4core3numjNtNtNtB7_3str6traits7FromStr8from_strCs28qvqeRNIp0_12tokio_macros, symObjAddr: 0x3DDC, symBinAddr: 0xED48, symSize: 0x30 }
  - { offset: 0x2AF85, size: 0x8, addend: 0x0, symName: __RNvNvNtCsfvfooZQ3Axs_4core4hint21unreachable_unchecked18precondition_checkCs28qvqeRNIp0_12tokio_macros, symObjAddr: 0x2FE0, symBinAddr: 0xDF4C, symSize: 0x1C }
  - { offset: 0x2D9E4, size: 0x8, addend: 0x0, symName: __RNvXs1_NtCsfvfooZQ3Axs_4core7convertNtCs3cP53eQoTwO_11proc_macro211TokenStreamINtB5_4IntoNtCs9i5KxIbZ5ph_10proc_macro11TokenStreamE4intoCs28qvqeRNIp0_12tokio_macros, symObjAddr: 0x34A0, symBinAddr: 0xE40C, symSize: 0x14 }
  - { offset: 0x2DC58, size: 0x8, addend: 0x0, symName: __RINvYINtNtNtCsfvfooZQ3Axs_4core3ops5range5RangejENtNtNtNtBa_4iter6traits8iterator8Iterator3mapNtCs3cP53eQoTwO_11proc_macro25IdentNCNvNtCs28qvqeRNIp0_12tokio_macros6select19declare_output_enum0EB29_, symObjAddr: 0x1B70, symBinAddr: 0xCADC, symSize: 0x14 }
  - { offset: 0x2DCB0, size: 0x8, addend: 0x0, symName: __RINvYINtNtNtCsfvfooZQ3Axs_4core3ops5range5RangejENtNtNtNtBa_4iter6traits8iterator8Iterator4folduNCINvNtNtBR_8adapters3map8map_foldjNtCs3cP53eQoTwO_11proc_macro25IdentuNCNvNtCs28qvqeRNIp0_12tokio_macros6select19declare_output_enum0NCINvNvBL_8for_each4callB25_NCINvMsi_NtCse1nGBsou5OW_5alloc3vecINtB4h_3VecB25_E14extend_trustedINtB1B_3MapB3_B2F_EE0E0E0EB2L_, symObjAddr: 0x1B84, symBinAddr: 0xCAF0, symSize: 0xE0 }
  - { offset: 0x2DD4A, size: 0x8, addend: 0x0, symName: __RNCINvNvNtNtNtNtCsfvfooZQ3Axs_4core4iter6traits8iterator8Iterator3all5checkTRNtNtCs6IAuOt8vWmF_3syn4path11PathSegmentReENCNCNvNtCs28qvqeRNIp0_12tokio_macros5entry17is_test_attribute00E0B22_, symObjAddr: 0x1CF8, symBinAddr: 0xCC64, symSize: 0x60 }
  - { offset: 0x2DDB3, size: 0x8, addend: 0x0, symName: __RNCINvNvNtNtNtNtCsfvfooZQ3Axs_4core4iter6traits8iterator8Iterator3any5checkARej4_NCNvNtCs28qvqeRNIp0_12tokio_macros5entry17is_test_attribute0E0B1n_, symObjAddr: 0x1D58, symBinAddr: 0xCCC4, symSize: 0x64 }
  - { offset: 0x2DE1C, size: 0x8, addend: 0x0, symName: __RNCINvNvNtNtNtNtCsfvfooZQ3Axs_4core4iter6traits8iterator8Iterator8for_each4callNtCs3cP53eQoTwO_11proc_macro25IdentNCINvMsi_NtCse1nGBsou5OW_5alloc3vecINtB1X_3VecB1f_E14extend_trustedINtNtNtBc_8adapters3map3MapINtNtNtBe_3ops5range5RangejENCNvNtCs28qvqeRNIp0_12tokio_macros6select19declare_output_enum0EE0E0B3S_, symObjAddr: 0x1DBC, symBinAddr: 0xCD28, symSize: 0x3C }
  - { offset: 0x2DE75, size: 0x8, addend: 0x0, symName: __RNCINvNvNtNtNtNtCsfvfooZQ3Axs_4core4iter6traits8iterator8Iterator8for_each4callNtCs3cP53eQoTwO_11proc_macro29TokenTreeNCINvXsa_NtB1h_8fallbackNtB21_11TokenStreamINtNtBa_7collect6ExtendB1f_E6extendAB1f_j1_E0E0Cs28qvqeRNIp0_12tokio_macros, symObjAddr: 0x1DF8, symBinAddr: 0xCD64, symSize: 0x3C }
  - { offset: 0x2DECE, size: 0x8, addend: 0x0, symName: __RNCINvNvNtNtNtNtCsfvfooZQ3Axs_4core4iter6traits8iterator8Iterator8for_each4callNtCs3cP53eQoTwO_11proc_macro29TokenTreeNCINvXsa_NtB1h_8fallbackNtB21_11TokenStreamINtNtBa_7collect6ExtendB1f_E6extendNtB1h_11TokenStreamE0E0Cs28qvqeRNIp0_12tokio_macros, symObjAddr: 0x1E34, symBinAddr: 0xCDA0, symSize: 0x3C }
  - { offset: 0x2DF27, size: 0x8, addend: 0x0, symName: __RNCINvNvNtNtNtNtCsfvfooZQ3Axs_4core4iter6traits8iterator8Iterator8for_each4callNtNtCs6IAuOt8vWmF_3syn4attr4MetaNCINvMsi_NtCse1nGBsou5OW_5alloc3vecINtB1U_3VecB1f_E14extend_trustedINtNtBe_6option8IntoIterB1f_EE0E0Cs28qvqeRNIp0_12tokio_macros, symObjAddr: 0x1E70, symBinAddr: 0xCDDC, symSize: 0x48 }
  - { offset: 0x2DF80, size: 0x8, addend: 0x0, symName: __RNCINvNvNtNtNtNtCsfvfooZQ3Axs_4core4iter6traits8iterator8Iterator8for_each4callNtNtCs6IAuOt8vWmF_3syn4attr4MetaNCINvMsi_NtCse1nGBsou5OW_5alloc3vecINtB1U_3VecB1f_E14extend_trustedINtNtNtBc_8adapters3map3MapINtNtB1U_9into_iter8IntoIterTB1f_NtNtB1j_5token5CommaEENCNvXs8_NtB1j_10punctuatedINtB4i_10PunctuatedB1f_B3O_ENtNtBa_7collect12IntoIterator9into_iter0EE0E0Cs28qvqeRNIp0_12tokio_macros, symObjAddr: 0x1EB8, symBinAddr: 0xCE24, symSize: 0x48 }
  - { offset: 0x2DFFB, size: 0x8, addend: 0x0, symName: __RNvXs3_NtNtCsfvfooZQ3Axs_4core4iter5rangeINtNtNtB9_3ops5range5RangejENtB5_17RangeIteratorImpl9spec_nextCs28qvqeRNIp0_12tokio_macros, symObjAddr: 0x34B4, symBinAddr: 0xE420, symSize: 0x94 }
  - { offset: 0x2E07C, size: 0x8, addend: 0x0, symName: __RNvXs4_NtNtCsfvfooZQ3Axs_4core4iter5rangeINtNtNtB9_3ops5range5RangejENtNtNtB7_6traits8iterator8Iterator4nextCs28qvqeRNIp0_12tokio_macros, symObjAddr: 0x3548, symBinAddr: 0xE4B4, symSize: 0x24 }
  - { offset: 0x2E0B3, size: 0x8, addend: 0x0, symName: __RNvXs4_NtNtCsfvfooZQ3Axs_4core4iter5rangeINtNtNtB9_3ops5range5RangejENtNtNtB7_6traits8iterator8Iterator9size_hintCs28qvqeRNIp0_12tokio_macros, symObjAddr: 0x356C, symBinAddr: 0xE4D8, symSize: 0x88 }
  - { offset: 0x2E116, size: 0x8, addend: 0x0, symName: __RNvXsF_NtNtCsfvfooZQ3Axs_4core4iter5rangejNtB5_4Step13steps_betweenCs28qvqeRNIp0_12tokio_macros, symObjAddr: 0x3684, symBinAddr: 0xE5F0, symSize: 0xA4 }
  - { offset: 0x2E171, size: 0x8, addend: 0x0, symName: __RNvXsF_NtNtCsfvfooZQ3Axs_4core4iter5rangejNtB5_4Step17forward_uncheckedCs28qvqeRNIp0_12tokio_macros, symObjAddr: 0x3728, symBinAddr: 0xE694, symSize: 0x48 }
  - { offset: 0x2E542, size: 0x8, addend: 0x0, symName: __RNvXs_NtNtCsfvfooZQ3Axs_4core5slice4iterRSNtCs3cP53eQoTwO_11proc_macro211TokenStreamNtNtNtNtB8_4iter6traits7collect12IntoIterator9into_iterCs28qvqeRNIp0_12tokio_macros, symObjAddr: 0x3870, symBinAddr: 0xE7DC, symSize: 0x50 }
  - { offset: 0x2E703, size: 0x8, addend: 0x0, symName: __RNvNvNtNtCsfvfooZQ3Axs_4core5slice3raw14from_raw_parts18precondition_checkCs28qvqeRNIp0_12tokio_macros, symObjAddr: 0x2FFC, symBinAddr: 0xDF68, symSize: 0x168 }
  - { offset: 0x2E849, size: 0x8, addend: 0x0, symName: __RNvNvNtNtCsfvfooZQ3Axs_4core5slice3raw18from_raw_parts_mut18precondition_checkCs28qvqeRNIp0_12tokio_macros, symObjAddr: 0x3164, symBinAddr: 0xE0D0, symSize: 0x168 }
  - { offset: 0x2E9C0, size: 0x8, addend: 0x0, symName: __RNvMNtCsfvfooZQ3Axs_4core5sliceSNtCs3cP53eQoTwO_11proc_macro211TokenStream4lastCs28qvqeRNIp0_12tokio_macros, symObjAddr: 0x2220, symBinAddr: 0xD18C, symSize: 0x50 }
  - { offset: 0x2EA0D, size: 0x8, addend: 0x0, symName: __RNvMNtCsfvfooZQ3Axs_4core5sliceSNtCs3cP53eQoTwO_11proc_macro25Ident4iterCs28qvqeRNIp0_12tokio_macros, symObjAddr: 0x2270, symBinAddr: 0xD1DC, symSize: 0x28 }
  - { offset: 0x2EA92, size: 0x8, addend: 0x0, symName: __RNvMNtCsfvfooZQ3Axs_4core5sliceSh15copy_from_sliceCs28qvqeRNIp0_12tokio_macros, symObjAddr: 0x2298, symBinAddr: 0xD204, symSize: 0xA4 }
  - { offset: 0x2ED7B, size: 0x8, addend: 0x0, symName: __RNvMNtNtCsfvfooZQ3Axs_4core4char7methodsc8to_digitCs28qvqeRNIp0_12tokio_macros, symObjAddr: 0x233C, symBinAddr: 0xD2A8, symSize: 0x14C }
  - { offset: 0x2EFF3, size: 0x8, addend: 0x0, symName: __RNvXsn_NtNtCsfvfooZQ3Axs_4core5panic11unwind_safeINtB5_16AssertUnwindSafeNCINvNtNtCs9i5KxIbZ5ph_10proc_macro6bridge6client10run_clientNtB1e_11TokenStreamINtNtB9_6option6OptionB28_ENCNCINvMs7_B1e_INtB1e_6ClientNtB1i_11TokenStreamB3l_E7expand1NvCs28qvqeRNIp0_12tokio_macros25select_priv_clean_patternE00E0EINtNtNtB9_3ops8function6FnOnceuE9call_onceB3T_, symObjAddr: 0x3AF0, symBinAddr: 0xEA5C, symSize: 0x38 }
  - { offset: 0x2F04B, size: 0x8, addend: 0x0, symName: __RNvXsn_NtNtCsfvfooZQ3Axs_4core5panic11unwind_safeINtB5_16AssertUnwindSafeNCINvNtNtCs9i5KxIbZ5ph_10proc_macro6bridge6client10run_clientNtB1e_11TokenStreamINtNtB9_6option6OptionB28_ENCNCINvMs7_B1e_INtB1e_6ClientNtB1i_11TokenStreamB3l_E7expand1NvCs28qvqeRNIp0_12tokio_macros31select_priv_declare_output_enumE00E0EINtNtNtB9_3ops8function6FnOnceuE9call_onceB3T_, symObjAddr: 0x3B28, symBinAddr: 0xEA94, symSize: 0x38 }
  - { offset: 0x2F0A3, size: 0x8, addend: 0x0, symName: __RNvXsn_NtNtCsfvfooZQ3Axs_4core5panic11unwind_safeINtB5_16AssertUnwindSafeNCINvNtNtCs9i5KxIbZ5ph_10proc_macro6bridge6client10run_clientTNtB1e_11TokenStreamB29_EINtNtB9_6option6OptionB29_ENCNCINvMs8_B1e_INtB1e_6ClientTNtB1i_11TokenStreamB3s_EB3s_E7expand2NvCs28qvqeRNIp0_12tokio_macros4mainE00E0EINtNtNtB9_3ops8function6FnOnceuE9call_onceB45_, symObjAddr: 0x3B60, symBinAddr: 0xEACC, symSize: 0x38 }
  - { offset: 0x2F0FB, size: 0x8, addend: 0x0, symName: __RNvXsn_NtNtCsfvfooZQ3Axs_4core5panic11unwind_safeINtB5_16AssertUnwindSafeNCINvNtNtCs9i5KxIbZ5ph_10proc_macro6bridge6client10run_clientTNtB1e_11TokenStreamB29_EINtNtB9_6option6OptionB29_ENCNCINvMs8_B1e_INtB1e_6ClientTNtB1i_11TokenStreamB3s_EB3s_E7expand2NvCs28qvqeRNIp0_12tokio_macros4testE00E0EINtNtNtB9_3ops8function6FnOnceuE9call_onceB45_, symObjAddr: 0x3B98, symBinAddr: 0xEB04, symSize: 0x38 }
  - { offset: 0x2F153, size: 0x8, addend: 0x0, symName: __RNvXsn_NtNtCsfvfooZQ3Axs_4core5panic11unwind_safeINtB5_16AssertUnwindSafeNCINvNtNtCs9i5KxIbZ5ph_10proc_macro6bridge6client10run_clientTNtB1e_11TokenStreamB29_EINtNtB9_6option6OptionB29_ENCNCINvMs8_B1e_INtB1e_6ClientTNtB1i_11TokenStreamB3s_EB3s_E7expand2NvCs28qvqeRNIp0_12tokio_macros7main_rtE00E0EINtNtNtB9_3ops8function6FnOnceuE9call_onceB45_, symObjAddr: 0x3BD0, symBinAddr: 0xEB3C, symSize: 0x38 }
  - { offset: 0x2F1AB, size: 0x8, addend: 0x0, symName: __RNvXsn_NtNtCsfvfooZQ3Axs_4core5panic11unwind_safeINtB5_16AssertUnwindSafeNCINvNtNtCs9i5KxIbZ5ph_10proc_macro6bridge6client10run_clientTNtB1e_11TokenStreamB29_EINtNtB9_6option6OptionB29_ENCNCINvMs8_B1e_INtB1e_6ClientTNtB1i_11TokenStreamB3s_EB3s_E7expand2NvCs28qvqeRNIp0_12tokio_macros7test_rtE00E0EINtNtNtB9_3ops8function6FnOnceuE9call_onceB45_, symObjAddr: 0x3C08, symBinAddr: 0xEB74, symSize: 0x38 }
  - { offset: 0x2F203, size: 0x8, addend: 0x0, symName: __RNvXsn_NtNtCsfvfooZQ3Axs_4core5panic11unwind_safeINtB5_16AssertUnwindSafeNCINvNtNtCs9i5KxIbZ5ph_10proc_macro6bridge6client10run_clientTNtB1e_11TokenStreamB29_EINtNtB9_6option6OptionB29_ENCNCINvMs8_B1e_INtB1e_6ClientTNtB1i_11TokenStreamB3s_EB3s_E7expand2NvCs28qvqeRNIp0_12tokio_macros9main_failE00E0EINtNtNtB9_3ops8function6FnOnceuE9call_onceB45_, symObjAddr: 0x3C40, symBinAddr: 0xEBAC, symSize: 0x38 }
  - { offset: 0x2F25B, size: 0x8, addend: 0x0, symName: __RNvXsn_NtNtCsfvfooZQ3Axs_4core5panic11unwind_safeINtB5_16AssertUnwindSafeNCINvNtNtCs9i5KxIbZ5ph_10proc_macro6bridge6client10run_clientTNtB1e_11TokenStreamB29_EINtNtB9_6option6OptionB29_ENCNCINvMs8_B1e_INtB1e_6ClientTNtB1i_11TokenStreamB3s_EB3s_E7expand2NvCs28qvqeRNIp0_12tokio_macros9test_failE00E0EINtNtNtB9_3ops8function6FnOnceuE9call_onceB45_, symObjAddr: 0x3C78, symBinAddr: 0xEBE4, symSize: 0x38 }
  - { offset: 0x2F582, size: 0x8, addend: 0x0, symName: __RINvNtNtNtCs9i5KxIbZ5ph_10proc_macro6bridge6client5state3setINtNtCsfvfooZQ3Axs_4core6option6OptionNtB4_11TokenStreamENCNCINvB4_10run_clientB1y_BW_NCNCINvMs7_B4_INtB4_6ClientNtB8_11TokenStreamB2L_E7expand1NvCs28qvqeRNIp0_12tokio_macros25select_priv_clean_patternE00E00EB3i_, symObjAddr: 0xE08, symBinAddr: 0xBD74, symSize: 0xE8 }
  - { offset: 0x2F657, size: 0x8, addend: 0x0, symName: __RINvNtNtNtCs9i5KxIbZ5ph_10proc_macro6bridge6client5state3setINtNtCsfvfooZQ3Axs_4core6option6OptionNtB4_11TokenStreamENCNCINvB4_10run_clientB1y_BW_NCNCINvMs7_B4_INtB4_6ClientNtB8_11TokenStreamB2L_E7expand1NvCs28qvqeRNIp0_12tokio_macros31select_priv_declare_output_enumE00E00EB3i_, symObjAddr: 0xEF0, symBinAddr: 0xBE5C, symSize: 0xE8 }
  - { offset: 0x2F72C, size: 0x8, addend: 0x0, symName: __RINvNtNtNtCs9i5KxIbZ5ph_10proc_macro6bridge6client5state3setINtNtCsfvfooZQ3Axs_4core6option6OptionNtB4_11TokenStreamENCNCINvB4_10run_clientTB1y_B1y_EBW_NCNCINvMs8_B4_INtB4_6ClientTNtB8_11TokenStreamB2S_EB2S_E7expand2NvCs28qvqeRNIp0_12tokio_macros4mainE00E00EB3u_, symObjAddr: 0xFD8, symBinAddr: 0xBF44, symSize: 0xEC }
  - { offset: 0x2F802, size: 0x8, addend: 0x0, symName: __RINvNtNtNtCs9i5KxIbZ5ph_10proc_macro6bridge6client5state3setINtNtCsfvfooZQ3Axs_4core6option6OptionNtB4_11TokenStreamENCNCINvB4_10run_clientTB1y_B1y_EBW_NCNCINvMs8_B4_INtB4_6ClientTNtB8_11TokenStreamB2S_EB2S_E7expand2NvCs28qvqeRNIp0_12tokio_macros4testE00E00EB3u_, symObjAddr: 0x10C4, symBinAddr: 0xC030, symSize: 0xEC }
  - { offset: 0x2F8D8, size: 0x8, addend: 0x0, symName: __RINvNtNtNtCs9i5KxIbZ5ph_10proc_macro6bridge6client5state3setINtNtCsfvfooZQ3Axs_4core6option6OptionNtB4_11TokenStreamENCNCINvB4_10run_clientTB1y_B1y_EBW_NCNCINvMs8_B4_INtB4_6ClientTNtB8_11TokenStreamB2S_EB2S_E7expand2NvCs28qvqeRNIp0_12tokio_macros7main_rtE00E00EB3u_, symObjAddr: 0x11B0, symBinAddr: 0xC11C, symSize: 0xEC }
  - { offset: 0x2F9AE, size: 0x8, addend: 0x0, symName: __RINvNtNtNtCs9i5KxIbZ5ph_10proc_macro6bridge6client5state3setINtNtCsfvfooZQ3Axs_4core6option6OptionNtB4_11TokenStreamENCNCINvB4_10run_clientTB1y_B1y_EBW_NCNCINvMs8_B4_INtB4_6ClientTNtB8_11TokenStreamB2S_EB2S_E7expand2NvCs28qvqeRNIp0_12tokio_macros7test_rtE00E00EB3u_, symObjAddr: 0x129C, symBinAddr: 0xC208, symSize: 0xEC }
  - { offset: 0x2FA84, size: 0x8, addend: 0x0, symName: __RINvNtNtNtCs9i5KxIbZ5ph_10proc_macro6bridge6client5state3setINtNtCsfvfooZQ3Axs_4core6option6OptionNtB4_11TokenStreamENCNCINvB4_10run_clientTB1y_B1y_EBW_NCNCINvMs8_B4_INtB4_6ClientTNtB8_11TokenStreamB2S_EB2S_E7expand2NvCs28qvqeRNIp0_12tokio_macros9main_failE00E00EB3u_, symObjAddr: 0x1388, symBinAddr: 0xC2F4, symSize: 0xEC }
  - { offset: 0x2FB5A, size: 0x8, addend: 0x0, symName: __RINvNtNtNtCs9i5KxIbZ5ph_10proc_macro6bridge6client5state3setINtNtCsfvfooZQ3Axs_4core6option6OptionNtB4_11TokenStreamENCNCINvB4_10run_clientTB1y_B1y_EBW_NCNCINvMs8_B4_INtB4_6ClientTNtB8_11TokenStreamB2S_EB2S_E7expand2NvCs28qvqeRNIp0_12tokio_macros9test_failE00E00EB3u_, symObjAddr: 0x1474, symBinAddr: 0xC3E0, symSize: 0xEC }
  - { offset: 0x2FC3A, size: 0x8, addend: 0x0, symName: __RNCNkNvNtNtNtCs9i5KxIbZ5ph_10proc_macro6bridge6client5state12BRIDGE_STATE0s_0Cs28qvqeRNIp0_12tokio_macros, symObjAddr: 0x1F00, symBinAddr: 0xCE6C, symSize: 0x34 }
  - { offset: 0x303BB, size: 0x8, addend: 0x0, symName: __RINvNvNtNtCs9i5KxIbZ5ph_10proc_macro6bridge14selfless_reify31reify_to_extern_c_fn_hrt_bridge7wrapperNtNtB6_6buffer6BufferNCINvMs7_NtB6_6clientINtB24_6ClientNtB8_11TokenStreamB2u_E7expand1NvCs28qvqeRNIp0_12tokio_macros25select_priv_clean_patternE0EB31_, symObjAddr: 0x1560, symBinAddr: 0xC4CC, symSize: 0x5C }
  - { offset: 0x30417, size: 0x8, addend: 0x0, symName: __RINvNvNtNtCs9i5KxIbZ5ph_10proc_macro6bridge14selfless_reify31reify_to_extern_c_fn_hrt_bridge7wrapperNtNtB6_6buffer6BufferNCINvMs7_NtB6_6clientINtB24_6ClientNtB8_11TokenStreamB2u_E7expand1NvCs28qvqeRNIp0_12tokio_macros31select_priv_declare_output_enumE0EB31_, symObjAddr: 0x15BC, symBinAddr: 0xC528, symSize: 0x5C }
  - { offset: 0x30473, size: 0x8, addend: 0x0, symName: __RINvNvNtNtCs9i5KxIbZ5ph_10proc_macro6bridge14selfless_reify31reify_to_extern_c_fn_hrt_bridge7wrapperNtNtB6_6buffer6BufferNCINvMs8_NtB6_6clientINtB24_6ClientTNtB8_11TokenStreamB2v_EB2v_E7expand2NvCs28qvqeRNIp0_12tokio_macros4mainE0EB37_, symObjAddr: 0x1618, symBinAddr: 0xC584, symSize: 0x5C }
  - { offset: 0x304CF, size: 0x8, addend: 0x0, symName: __RINvNvNtNtCs9i5KxIbZ5ph_10proc_macro6bridge14selfless_reify31reify_to_extern_c_fn_hrt_bridge7wrapperNtNtB6_6buffer6BufferNCINvMs8_NtB6_6clientINtB24_6ClientTNtB8_11TokenStreamB2v_EB2v_E7expand2NvCs28qvqeRNIp0_12tokio_macros4testE0EB37_, symObjAddr: 0x1674, symBinAddr: 0xC5E0, symSize: 0x5C }
  - { offset: 0x3052B, size: 0x8, addend: 0x0, symName: __RINvNvNtNtCs9i5KxIbZ5ph_10proc_macro6bridge14selfless_reify31reify_to_extern_c_fn_hrt_bridge7wrapperNtNtB6_6buffer6BufferNCINvMs8_NtB6_6clientINtB24_6ClientTNtB8_11TokenStreamB2v_EB2v_E7expand2NvCs28qvqeRNIp0_12tokio_macros7main_rtE0EB37_, symObjAddr: 0x16D0, symBinAddr: 0xC63C, symSize: 0x5C }
  - { offset: 0x30587, size: 0x8, addend: 0x0, symName: __RINvNvNtNtCs9i5KxIbZ5ph_10proc_macro6bridge14selfless_reify31reify_to_extern_c_fn_hrt_bridge7wrapperNtNtB6_6buffer6BufferNCINvMs8_NtB6_6clientINtB24_6ClientTNtB8_11TokenStreamB2v_EB2v_E7expand2NvCs28qvqeRNIp0_12tokio_macros7test_rtE0EB37_, symObjAddr: 0x172C, symBinAddr: 0xC698, symSize: 0x5C }
  - { offset: 0x305E3, size: 0x8, addend: 0x0, symName: __RINvNvNtNtCs9i5KxIbZ5ph_10proc_macro6bridge14selfless_reify31reify_to_extern_c_fn_hrt_bridge7wrapperNtNtB6_6buffer6BufferNCINvMs8_NtB6_6clientINtB24_6ClientTNtB8_11TokenStreamB2v_EB2v_E7expand2NvCs28qvqeRNIp0_12tokio_macros9main_failE0EB37_, symObjAddr: 0x1788, symBinAddr: 0xC6F4, symSize: 0x5C }
  - { offset: 0x3063F, size: 0x8, addend: 0x0, symName: __RINvNvNtNtCs9i5KxIbZ5ph_10proc_macro6bridge14selfless_reify31reify_to_extern_c_fn_hrt_bridge7wrapperNtNtB6_6buffer6BufferNCINvMs8_NtB6_6clientINtB24_6ClientTNtB8_11TokenStreamB2v_EB2v_E7expand2NvCs28qvqeRNIp0_12tokio_macros9test_failE0EB37_, symObjAddr: 0x17E4, symBinAddr: 0xC750, symSize: 0x5C }
  - { offset: 0x306A7, size: 0x8, addend: 0x0, symName: __RNvXNtNtCs9i5KxIbZ5ph_10proc_macro6bridge3rpcuINtB2_6EncodeuE6encodeCs28qvqeRNIp0_12tokio_macros, symObjAddr: 0x33C0, symBinAddr: 0xE32C, symSize: 0x14 }
  - { offset: 0x30720, size: 0x8, addend: 0x0, symName: __RNvXsa_NtNtCs9i5KxIbZ5ph_10proc_macro6bridge3rpcRShINtB5_6EncodeuE6encodeCs28qvqeRNIp0_12tokio_macros, symObjAddr: 0x38C0, symBinAddr: 0xE82C, symSize: 0xD0 }
  - { offset: 0x30822, size: 0x8, addend: 0x0, symName: __RNvXsc_NtNtCs9i5KxIbZ5ph_10proc_macro6bridge3rpcReINtB5_6EncodeuE6encodeCs28qvqeRNIp0_12tokio_macros, symObjAddr: 0x3990, symBinAddr: 0xE8FC, symSize: 0x38 }
  - { offset: 0x3090A, size: 0x8, addend: 0x0, symName: __RNvXsl_NtNtCs9i5KxIbZ5ph_10proc_macro6bridge3rpcNtB5_12PanicMessageINtB5_6EncodeuE6encodeCs28qvqeRNIp0_12tokio_macros, symObjAddr: 0x39C8, symBinAddr: 0xE934, symSize: 0x128 }
  - { offset: 0x30AD0, size: 0x8, addend: 0x0, symName: __RNvXso_NtNtCs9i5KxIbZ5ph_10proc_macro6bridge3rpcmINtB5_9DecodeMutuE6decodeCs28qvqeRNIp0_12tokio_macros, symObjAddr: 0x3CB0, symBinAddr: 0xEC1C, symSize: 0x108 }
  - { offset: 0x310F1, size: 0x8, addend: 0x0, symName: __RINvXs7_NtCs3cP53eQoTwO_11proc_macro23impNtB6_11TokenStreamINtNtNtNtCsfvfooZQ3Axs_4core4iter6traits7collect6ExtendNtB8_9TokenTreeE6extendAB1O_j1_ECs28qvqeRNIp0_12tokio_macros, symObjAddr: 0x18A8, symBinAddr: 0xC814, symSize: 0x164 }
  - { offset: 0x31187, size: 0x8, addend: 0x0, symName: __RINvXs7_NtCs3cP53eQoTwO_11proc_macro23impNtB6_11TokenStreamINtNtNtNtCsfvfooZQ3Axs_4core4iter6traits7collect6ExtendNtB8_9TokenTreeE6extendNtB8_11TokenStreamECs28qvqeRNIp0_12tokio_macros, symObjAddr: 0x1A0C, symBinAddr: 0xC978, symSize: 0x164 }
  - { offset: 0x31223, size: 0x8, addend: 0x0, symName: __RNvXsA_NtCs3cP53eQoTwO_11proc_macro23impNtB5_19DeferredTokenStreamNtNtCsfvfooZQ3Axs_4core5clone5Clone5cloneCs28qvqeRNIp0_12tokio_macros, symObjAddr: 0x35F4, symBinAddr: 0xE560, symSize: 0x90 }
  - { offset: 0x31255, size: 0x8, addend: 0x0, symName: __RNvXsz_NtCs3cP53eQoTwO_11proc_macro23impNtB5_11TokenStreamNtNtCsfvfooZQ3Axs_4core5clone5Clone5cloneCs28qvqeRNIp0_12tokio_macros, symObjAddr: 0x3E0C, symBinAddr: 0xED78, symSize: 0x98 }
  - { offset: 0x3148F, size: 0x8, addend: 0x0, symName: __RNvXs1_NtCs3cP53eQoTwO_11proc_macro26markerNtB5_19ProcMacroAutoTraitsNtNtCsfvfooZQ3Axs_4core5clone5Clone5cloneCs28qvqeRNIp0_12tokio_macros, symObjAddr: 0x3490, symBinAddr: 0xE3FC, symSize: 0x10 }
  - { offset: 0x316FF, size: 0x8, addend: 0x0, symName: __RINvXs4_Cs3cP53eQoTwO_11proc_macro2NtB6_11TokenStreamINtNtNtNtCsfvfooZQ3Axs_4core4iter6traits7collect6ExtendNtB6_9TokenTreeE6extendAB1I_j1_ECs28qvqeRNIp0_12tokio_macros, symObjAddr: 0x1840, symBinAddr: 0xC7AC, symSize: 0x34 }
  - { offset: 0x31742, size: 0x8, addend: 0x0, symName: __RINvXs4_Cs3cP53eQoTwO_11proc_macro2NtB6_11TokenStreamINtNtNtNtCsfvfooZQ3Axs_4core4iter6traits7collect6ExtendNtB6_9TokenTreeE6extendBx_ECs28qvqeRNIp0_12tokio_macros, symObjAddr: 0x1874, symBinAddr: 0xC7E0, symSize: 0x34 }
  - { offset: 0x3178B, size: 0x8, addend: 0x0, symName: __RNvXsG_Cs3cP53eQoTwO_11proc_macro2NtB5_11TokenStreamNtNtCsfvfooZQ3Axs_4core5clone5Clone5cloneCs28qvqeRNIp0_12tokio_macros, symObjAddr: 0x3770, symBinAddr: 0xE6DC, symSize: 0x78 }
  - { offset: 0x31860, size: 0x8, addend: 0x0, symName: __RNvXss_NtCse1nGBsou5OW_5alloc6stringNtB5_6StringNtNtNtCsfvfooZQ3Axs_4core3ops5deref5Deref5derefCs28qvqeRNIp0_12tokio_macros, symObjAddr: 0x3DB8, symBinAddr: 0xED24, symSize: 0x24 }
  - { offset: 0x32066, size: 0x8, addend: 0x0, symName: __RNvNtCse1nGBsou5OW_5alloc5alloc12alloc_zeroedCs28qvqeRNIp0_12tokio_macros, symObjAddr: 0x2D2C, symBinAddr: 0xDC98, symSize: 0x84 }
  - { offset: 0x3212A, size: 0x8, addend: 0x0, symName: __RNvXs_NtCse1nGBsou5OW_5alloc5allocNtB4_6GlobalNtNtCsfvfooZQ3Axs_4core5alloc9Allocator10deallocateCs28qvqeRNIp0_12tokio_macros, symObjAddr: 0x37E8, symBinAddr: 0xE754, symSize: 0x88 }
  - { offset: 0x32206, size: 0x8, addend: 0x0, symName: __RNvNtCse1nGBsou5OW_5alloc5alloc15exchange_mallocCs28qvqeRNIp0_12tokio_macros, symObjAddr: 0x2DB0, symBinAddr: 0xDD1C, symSize: 0xA4 }
  - { offset: 0x3229D, size: 0x8, addend: 0x0, symName: __RNvNtCse1nGBsou5OW_5alloc5alloc5allocCs28qvqeRNIp0_12tokio_macros, symObjAddr: 0x2E54, symBinAddr: 0xDDC0, symSize: 0x84 }
  - { offset: 0x32B70, size: 0x8, addend: 0x0, symName: __RNvNtCse1nGBsou5OW_5alloc3fmt6formatCs28qvqeRNIp0_12tokio_macros, symObjAddr: 0x2C58, symBinAddr: 0xDBC4, symSize: 0xD4 }
  - { offset: 0x32F05, size: 0x8, addend: 0x0, symName: __RNCINvMs3_NtCs6IAuOt8vWmF_3syn3litNtB8_6LitInt12base10_parsejE0Cs28qvqeRNIp0_12tokio_macros, symObjAddr: 0x1C64, symBinAddr: 0xCBD0, symSize: 0x94 }
  - { offset: 0x37E50, size: 0x8, addend: 0x0, symName: __RNvXs0_NtCs6IAuOt8vWmF_3syn5dropsINtB5_6NoDropDINtNtB7_10punctuated12IterMutTraitNtNtB7_3pat3PatEp4ItemQB1h_EL_ENtNtNtCsfvfooZQ3Axs_4core3ops5deref8DerefMut9deref_mutCs28qvqeRNIp0_12tokio_macros, symObjAddr: 0x3418, symBinAddr: 0xE384, symSize: 0x3C }
  - { offset: 0x37E85, size: 0x8, addend: 0x0, symName: __RNvXs0_NtCs6IAuOt8vWmF_3syn5dropsINtB5_6NoDropDINtNtB7_10punctuated12IterMutTraitNtNtB7_3pat8FieldPatEp4ItemQB1h_EL_ENtNtNtCsfvfooZQ3Axs_4core3ops5deref8DerefMut9deref_mutCs28qvqeRNIp0_12tokio_macros, symObjAddr: 0x3454, symBinAddr: 0xE3C0, symSize: 0x3C }
  - { offset: 0x37F02, size: 0x8, addend: 0x0, symName: __RNvXNtCs6IAuOt8vWmF_3syn7spannedNtNtB4_3lit3LitNtB2_7Spanned4spanCs28qvqeRNIp0_12tokio_macros, symObjAddr: 0x338C, symBinAddr: 0xE2F8, symSize: 0x34 }
  - { offset: 0x384B6, size: 0x8, addend: 0x0, symName: __RINvMNtCs6IAuOt8vWmF_3syn3litNtB3_6LitStr10parse_withNvYNtNtB5_4path4PathNtNtB5_5parse5Parse5parseECs28qvqeRNIp0_12tokio_macros, symObjAddr: 0x0, symBinAddr: 0xAF6C, symSize: 0x420 }
  - { offset: 0x385D3, size: 0x8, addend: 0x0, symName: __RINvMNtCs6IAuOt8vWmF_3syn3litNtB3_6LitStr5parseNtNtB5_4path4PathECs28qvqeRNIp0_12tokio_macros, symObjAddr: 0x420, symBinAddr: 0xB38C, symSize: 0x34 }
  - { offset: 0x385FE, size: 0x8, addend: 0x0, symName: __RINvMNtCs6IAuOt8vWmF_3syn5errorNtB3_5Error11new_spannedNtNtB5_4attr13MetaNameValueNtNtCse1nGBsou5OW_5alloc6string6StringECs28qvqeRNIp0_12tokio_macros, symObjAddr: 0x454, symBinAddr: 0xB3C0, symSize: 0xCC }
  - { offset: 0x38642, size: 0x8, addend: 0x0, symName: __RINvMNtCs6IAuOt8vWmF_3syn5errorNtB3_5Error11new_spannedNtNtB5_4attr13MetaNameValueReECs28qvqeRNIp0_12tokio_macros, symObjAddr: 0x520, symBinAddr: 0xB48C, symSize: 0xBC }
  - { offset: 0x38685, size: 0x8, addend: 0x0, symName: __RINvMNtCs6IAuOt8vWmF_3syn5errorNtB3_5Error11new_spannedNtNtB5_4attr4MetaReECs28qvqeRNIp0_12tokio_macros, symObjAddr: 0x5DC, symBinAddr: 0xB548, symSize: 0xBC }
  - { offset: 0x386C8, size: 0x8, addend: 0x0, symName: __RINvMNtCs6IAuOt8vWmF_3syn5errorNtB3_5Error11new_spannedNtNtB5_4path4PathNtNtCse1nGBsou5OW_5alloc6string6StringECs28qvqeRNIp0_12tokio_macros, symObjAddr: 0x698, symBinAddr: 0xB604, symSize: 0xCC }
  - { offset: 0x3870C, size: 0x8, addend: 0x0, symName: __RINvMNtCs6IAuOt8vWmF_3syn5errorNtB3_5Error11new_spannedNtNtB5_5token2FnReECs28qvqeRNIp0_12tokio_macros, symObjAddr: 0x764, symBinAddr: 0xB6D0, symSize: 0xC0 }
  - { offset: 0x3875B, size: 0x8, addend: 0x0, symName: __RINvMNtCs6IAuOt8vWmF_3syn5errorNtB3_5Error11new_spannedRNtCs3cP53eQoTwO_11proc_macro25IdentReECs28qvqeRNIp0_12tokio_macros, symObjAddr: 0x824, symBinAddr: 0xB790, symSize: 0xC4 }
  - { offset: 0x387AA, size: 0x8, addend: 0x0, symName: __RINvMNtCs6IAuOt8vWmF_3syn5errorNtB3_5Error11new_spannedRNtNtB5_4attr13MetaNameValueReECs28qvqeRNIp0_12tokio_macros, symObjAddr: 0x8E8, symBinAddr: 0xB854, symSize: 0xC4 }
  - { offset: 0x387F9, size: 0x8, addend: 0x0, symName: __RINvMNtCs6IAuOt8vWmF_3syn5errorNtB3_5Error11new_spannedRNtNtB5_4attr9AttributeReECs28qvqeRNIp0_12tokio_macros, symObjAddr: 0x9AC, symBinAddr: 0xB918, symSize: 0xC4 }
  - { offset: 0x38848, size: 0x8, addend: 0x0, symName: __RINvMNtCs6IAuOt8vWmF_3syn5errorNtB3_5Error11new_spannedRNtNtB5_4expr4ExprReECs28qvqeRNIp0_12tokio_macros, symObjAddr: 0xA70, symBinAddr: 0xB9DC, symSize: 0xC4 }
  - { offset: 0x38897, size: 0x8, addend: 0x0, symName: __RINvMNtCs6IAuOt8vWmF_3syn5errorNtB3_5Error11new_spannedRNtNtB5_4path4PathReECs28qvqeRNIp0_12tokio_macros, symObjAddr: 0xB34, symBinAddr: 0xBAA0, symSize: 0xC4 }
  - { offset: 0x38918, size: 0x8, addend: 0x0, symName: __RINvMs2_NtNtCscOYdFFY2T5N_3std6thread5localINtB6_8LocalKeyINtNtCsfvfooZQ3Axs_4core4cell4CellPuEE4withNCNvMs3_B6_BF_7replace0B1s_ECs28qvqeRNIp0_12tokio_macros, symObjAddr: 0xBF8, symBinAddr: 0xBB64, symSize: 0x54 }
  - { offset: 0x389D1, size: 0x8, addend: 0x0, symName: __RINvMs2_NtNtCscOYdFFY2T5N_3std6thread5localINtB6_8LocalKeyINtNtCsfvfooZQ3Axs_4core4cell4CellPuEE8try_withNCNvMs3_B6_BF_7replace0B1s_ECs28qvqeRNIp0_12tokio_macros, symObjAddr: 0xC4C, symBinAddr: 0xBBB8, symSize: 0xE4 }
  - { offset: 0x38B13, size: 0x8, addend: 0x0, symName: __RINvMs3_NtCs6IAuOt8vWmF_3syn3litNtB6_6LitInt12base10_parsejECs28qvqeRNIp0_12tokio_macros, symObjAddr: 0xD30, symBinAddr: 0xBC9C, symSize: 0x58 }
  - { offset: 0x38C67, size: 0x8, addend: 0x0, symName: __RINvMs3_NtCsfvfooZQ3Axs_4core3fmtNtB6_9Arguments6new_v1Kj3_Kj2_ECs28qvqeRNIp0_12tokio_macros, symObjAddr: 0xD88, symBinAddr: 0xBCF4, symSize: 0x54 }
  - { offset: 0x38CDE, size: 0x8, addend: 0x0, symName: __RINvMs_NtNtCsfvfooZQ3Axs_4core3fmt2rtNtB5_8Argument11new_displayNtNtCs6IAuOt8vWmF_3syn5error5ErrorECs28qvqeRNIp0_12tokio_macros, symObjAddr: 0xDDC, symBinAddr: 0xBD48, symSize: 0x2C }
  - { offset: 0x38F68, size: 0x8, addend: 0x0, symName: __RNvMNtCs6IAuOt8vWmF_3syn5dropsINtB2_6NoDropINtNtB4_10punctuated14PrivateIterMutNtNtB4_3pat3PatNtNtB4_5token2OrEE3newCs28qvqeRNIp0_12tokio_macros, symObjAddr: 0x1F5C, symBinAddr: 0xCEC8, symSize: 0x40 }
  - { offset: 0x38FF2, size: 0x8, addend: 0x0, symName: __RNvMNtCs6IAuOt8vWmF_3syn5dropsINtB2_6NoDropINtNtB4_10punctuated14PrivateIterMutNtNtB4_3pat3PatNtNtB4_5token5CommaEE3newCs28qvqeRNIp0_12tokio_macros, symObjAddr: 0x1F9C, symBinAddr: 0xCF08, symSize: 0x40 }
  - { offset: 0x39089, size: 0x8, addend: 0x0, symName: __RNvMNtCs6IAuOt8vWmF_3syn5dropsINtB2_6NoDropINtNtB4_10punctuated14PrivateIterMutNtNtB4_3pat8FieldPatNtNtB4_5token5CommaEE3newCs28qvqeRNIp0_12tokio_macros, symObjAddr: 0x1FDC, symBinAddr: 0xCF48, symSize: 0x40 }
  - { offset: 0x3923F, size: 0x8, addend: 0x0, symName: __RNvMNtCse1nGBsou5OW_5alloc5allocNtB2_6Global10alloc_implCs28qvqeRNIp0_12tokio_macros, symObjAddr: 0x201C, symBinAddr: 0xCF88, symSize: 0x194 }
  - { offset: 0x39633, size: 0x8, addend: 0x0, symName: __RNvMNtCse1nGBsou5OW_5alloc6stringNtB2_6String6as_strCs28qvqeRNIp0_12tokio_macros, symObjAddr: 0x21B0, symBinAddr: 0xD11C, symSize: 0x70 }
  - { offset: 0x397BE, size: 0x8, addend: 0x0, symName: __RNvMs1_NtNtCsfvfooZQ3Axs_4core3ptr8non_nullINtB5_7NonNullNtNtCs6IAuOt8vWmF_3syn4attr4MetaE7sub_ptrCs28qvqeRNIp0_12tokio_macros, symObjAddr: 0x2488, symBinAddr: 0xD3F4, symSize: 0x74 }
  - { offset: 0x398AA, size: 0x8, addend: 0x0, symName: __RNvMs1_NtNtCsfvfooZQ3Axs_4core3ptr8non_nullINtB5_7NonNullTNtNtCs6IAuOt8vWmF_3syn3pat3PatNtNtBY_5token2OrEE7sub_ptrCs28qvqeRNIp0_12tokio_macros, symObjAddr: 0x24FC, symBinAddr: 0xD468, symSize: 0x74 }
  - { offset: 0x39996, size: 0x8, addend: 0x0, symName: __RNvMs1_NtNtCsfvfooZQ3Axs_4core3ptr8non_nullINtB5_7NonNullTNtNtCs6IAuOt8vWmF_3syn3pat3PatNtNtBY_5token5CommaEE7sub_ptrCs28qvqeRNIp0_12tokio_macros, symObjAddr: 0x2570, symBinAddr: 0xD4DC, symSize: 0x74 }
  - { offset: 0x39A82, size: 0x8, addend: 0x0, symName: __RNvMs1_NtNtCsfvfooZQ3Axs_4core3ptr8non_nullINtB5_7NonNullTNtNtCs6IAuOt8vWmF_3syn3pat8FieldPatNtNtBY_5token5CommaEE7sub_ptrCs28qvqeRNIp0_12tokio_macros, symObjAddr: 0x25E4, symBinAddr: 0xD550, symSize: 0x74 }
  - { offset: 0x39BA6, size: 0x8, addend: 0x0, symName: __RNvMs1_NtNtCsfvfooZQ3Axs_4core3ptr8non_nullINtB5_7NonNullTNtNtCs6IAuOt8vWmF_3syn4attr4MetaNtNtBY_5token5CommaEE7sub_ptrCs28qvqeRNIp0_12tokio_macros, symObjAddr: 0x2658, symBinAddr: 0xD5C4, symSize: 0x74 }
  - { offset: 0x39D96, size: 0x8, addend: 0x0, symName: __RNvXNtCs2cqEZUIJimJ_5quote9to_tokensRNtCs3cP53eQoTwO_11proc_macro211TokenStreamNtB2_8ToTokens9to_tokensCs28qvqeRNIp0_12tokio_macros, symObjAddr: 0x32CC, symBinAddr: 0xE238, symSize: 0x40 }
  - { offset: 0x39DD5, size: 0x8, addend: 0x0, symName: __RNvXNtCs2cqEZUIJimJ_5quote9to_tokensRNtCs3cP53eQoTwO_11proc_macro25IdentNtB2_8ToTokens9to_tokensCs28qvqeRNIp0_12tokio_macros, symObjAddr: 0x330C, symBinAddr: 0xE278, symSize: 0x40 }
  - { offset: 0x39E14, size: 0x8, addend: 0x0, symName: __RNvXNtCs2cqEZUIJimJ_5quote9to_tokensRNtNtCs6IAuOt8vWmF_3syn3lit3LitNtB2_8ToTokens9to_tokensCs28qvqeRNIp0_12tokio_macros, symObjAddr: 0x334C, symBinAddr: 0xE2B8, symSize: 0x40 }
  - { offset: 0x39E59, size: 0x8, addend: 0x0, symName: __RNvYNtCs3cP53eQoTwO_11proc_macro25IdentNtNtCs2cqEZUIJimJ_5quote9to_tokens8ToTokens15to_token_streamCs28qvqeRNIp0_12tokio_macros, symObjAddr: 0x3EA4, symBinAddr: 0xEE10, symSize: 0x8C }
  - { offset: 0x39EA3, size: 0x8, addend: 0x0, symName: __RNvYNtCs3cP53eQoTwO_11proc_macro25IdentNtNtCs2cqEZUIJimJ_5quote9to_tokens8ToTokens17into_token_streamCs28qvqeRNIp0_12tokio_macros, symObjAddr: 0x3F30, symBinAddr: 0xEE9C, symSize: 0x64 }
  - { offset: 0x39ED9, size: 0x8, addend: 0x0, symName: __RNvYRNtCs3cP53eQoTwO_11proc_macro25IdentNtNtCs2cqEZUIJimJ_5quote9to_tokens8ToTokens15to_token_streamCs28qvqeRNIp0_12tokio_macros, symObjAddr: 0x3F94, symBinAddr: 0xEF00, symSize: 0x8C }
  - { offset: 0x39F23, size: 0x8, addend: 0x0, symName: __RNvYRNtCs3cP53eQoTwO_11proc_macro25IdentNtNtCs2cqEZUIJimJ_5quote9to_tokens8ToTokens17into_token_streamCs28qvqeRNIp0_12tokio_macros, symObjAddr: 0x4020, symBinAddr: 0xEF8C, symSize: 0x54 }
  - { offset: 0x39F58, size: 0x8, addend: 0x0, symName: __RNvYRNtNtCs6IAuOt8vWmF_3syn3lit3LitNtNtCs2cqEZUIJimJ_5quote9to_tokens8ToTokens15to_token_streamCs28qvqeRNIp0_12tokio_macros, symObjAddr: 0x4074, symBinAddr: 0xEFE0, symSize: 0x8C }
  - { offset: 0x39FA2, size: 0x8, addend: 0x0, symName: __RNvYRNtNtCs6IAuOt8vWmF_3syn3lit3LitNtNtCs2cqEZUIJimJ_5quote9to_tokens8ToTokens17into_token_streamCs28qvqeRNIp0_12tokio_macros, symObjAddr: 0x4100, symBinAddr: 0xF06C, symSize: 0x54 }
  - { offset: 0x39FE3, size: 0x8, addend: 0x0, symName: __RNvXs0_NtCs2cqEZUIJimJ_5quote7spannedNtNtCs6IAuOt8vWmF_3syn3lit3LitNtB5_7Spanned6___spanCs28qvqeRNIp0_12tokio_macros, symObjAddr: 0x33D4, symBinAddr: 0xE340, symSize: 0x44 }
  - { offset: 0x3A317, size: 0x8, addend: 0x0, symName: __RNvNtCs28qvqeRNIp0_12tokio_macros6select19declare_output_enum, symObjAddr: 0x4154, symBinAddr: 0xF0C0, symSize: 0x950 }
  - { offset: 0x3A59C, size: 0x8, addend: 0x0, symName: __RNCNvNtCs28qvqeRNIp0_12tokio_macros6select19declare_output_enum0B5_, symObjAddr: 0x4AA4, symBinAddr: 0xFA10, symSize: 0xF0 }
  - { offset: 0x3A5F8, size: 0x8, addend: 0x0, symName: __RNvNtCs28qvqeRNIp0_12tokio_macros6select19clean_pattern_macro, symObjAddr: 0x4B94, symBinAddr: 0xFB00, symSize: 0x204 }
  - { offset: 0x3A657, size: 0x8, addend: 0x0, symName: __RNvNtCs28qvqeRNIp0_12tokio_macros6select13clean_pattern, symObjAddr: 0x4D98, symBinAddr: 0xFD04, symSize: 0x6A4 }
  - { offset: 0x3AC7A, size: 0x8, addend: 0x0, symName: __RNvXs1_NtNtNtCsfvfooZQ3Axs_4core3ops8function5implsQNCNvNtCs28qvqeRNIp0_12tokio_macros5entry4test0INtB7_5FnMutTRRNtNtCs6IAuOt8vWmF_3syn4attr9AttributeEE8call_mutBU_, symObjAddr: 0x0, symBinAddr: 0x103A8, symSize: 0x30 }
  - { offset: 0x3B95B, size: 0x8, addend: 0x0, symName: __RNCNvMs0_NtCs28qvqeRNIp0_12tokio_macros5entryNtB7_13Configuration10set_flavor0B9_, symObjAddr: 0x9E0, symBinAddr: 0x10D88, symSize: 0x38 }
  - { offset: 0x3B99E, size: 0x8, addend: 0x0, symName: __RNCNvMs0_NtCs28qvqeRNIp0_12tokio_macros5entryNtB7_13Configuration19set_unhandled_panic0B9_, symObjAddr: 0x1400, symBinAddr: 0x117A8, symSize: 0x38 }
  - { offset: 0x3B9E1, size: 0x8, addend: 0x0, symName: __RNCNvMs0_NtCs28qvqeRNIp0_12tokio_macros5entryNtB7_13Configuration5build0B9_, symObjAddr: 0x1A6C, symBinAddr: 0x11E14, symSize: 0x2C }
  - { offset: 0x3BA61, size: 0x8, addend: 0x0, symName: __RNvNtCs28qvqeRNIp0_12tokio_macros5entry9parse_int, symObjAddr: 0x1A98, symBinAddr: 0x11E40, symSize: 0x33C }
  - { offset: 0x3BB2E, size: 0x8, addend: 0x0, symName: __RNvNtCs28qvqeRNIp0_12tokio_macros5entry12parse_string, symObjAddr: 0x1DD4, symBinAddr: 0x1217C, symSize: 0x328 }
  - { offset: 0x3BBC3, size: 0x8, addend: 0x0, symName: __RNvNtCs28qvqeRNIp0_12tokio_macros5entry10parse_path, symObjAddr: 0x20FC, symBinAddr: 0x124A4, symSize: 0x344 }
  - { offset: 0x3BC9E, size: 0x8, addend: 0x0, symName: __RNCNvNtCs28qvqeRNIp0_12tokio_macros5entry10parse_path0B5_, symObjAddr: 0x2440, symBinAddr: 0x127E8, symSize: 0x6C }
  - { offset: 0x3BCDB, size: 0x8, addend: 0x0, symName: __RNvNtCs28qvqeRNIp0_12tokio_macros5entry10parse_bool, symObjAddr: 0x24AC, symBinAddr: 0x12854, symSize: 0x174 }
  - { offset: 0x3BD65, size: 0x8, addend: 0x0, symName: __RNvNtCs28qvqeRNIp0_12tokio_macros5entry12build_config, symObjAddr: 0x2620, symBinAddr: 0x129C8, symSize: 0x14FC }
  - { offset: 0x3C0BA, size: 0x8, addend: 0x0, symName: __RNCNvNtCs28qvqeRNIp0_12tokio_macros5entry12build_config0B5_, symObjAddr: 0x3B1C, symBinAddr: 0x13EC4, symSize: 0x44 }
  - { offset: 0x3C0EA, size: 0x8, addend: 0x0, symName: __RNCNvNtCs28qvqeRNIp0_12tokio_macros5entry12build_configs_0B5_, symObjAddr: 0x3B60, symBinAddr: 0x13F08, symSize: 0x44 }
  - { offset: 0x3C11B, size: 0x8, addend: 0x0, symName: __RNvNtCs28qvqeRNIp0_12tokio_macros5entry11parse_knobs, symObjAddr: 0x3BA4, symBinAddr: 0x13F4C, symSize: 0x1A1C }
  - { offset: 0x3C62C, size: 0x8, addend: 0x0, symName: __RNCNvNtCs28qvqeRNIp0_12tokio_macros5entry11parse_knobs0B5_, symObjAddr: 0x55C0, symBinAddr: 0x15968, symSize: 0x6C }
  - { offset: 0x3C666, size: 0x8, addend: 0x0, symName: __RNCNvNtCs28qvqeRNIp0_12tokio_macros5entry11parse_knobss_0B5_, symObjAddr: 0x562C, symBinAddr: 0x159D4, symSize: 0x6C }
  - { offset: 0x3C6A0, size: 0x8, addend: 0x0, symName: __RNCNvNtCs28qvqeRNIp0_12tokio_macros5entry11parse_knobss0_0B5_, symObjAddr: 0x5698, symBinAddr: 0x15A40, symSize: 0x68 }
  - { offset: 0x3C6DF, size: 0x8, addend: 0x0, symName: __RNvNtCs28qvqeRNIp0_12tokio_macros5entry23token_stream_with_error, symObjAddr: 0x5700, symBinAddr: 0x15AA8, symSize: 0x90 }
  - { offset: 0x3C71E, size: 0x8, addend: 0x0, symName: __RNvNtCs28qvqeRNIp0_12tokio_macros5entry4main, symObjAddr: 0x5790, symBinAddr: 0x15B38, symSize: 0x48C }
  - { offset: 0x3C81B, size: 0x8, addend: 0x0, symName: __RNCNvNtCs28qvqeRNIp0_12tokio_macros5entry4main0B5_, symObjAddr: 0x5C1C, symBinAddr: 0x15FC4, symSize: 0x54 }
  - { offset: 0x3C86D, size: 0x8, addend: 0x0, symName: __RNvNtCs28qvqeRNIp0_12tokio_macros5entry17is_test_attribute, symObjAddr: 0x5C70, symBinAddr: 0x16018, symSize: 0x2F4 }
  - { offset: 0x3C8CF, size: 0x8, addend: 0x0, symName: __RNCNvNtCs28qvqeRNIp0_12tokio_macros5entry17is_test_attribute0B5_, symObjAddr: 0x5F64, symBinAddr: 0x1630C, symSize: 0xC4 }
  - { offset: 0x3C916, size: 0x8, addend: 0x0, symName: __RNCNCNvNtCs28qvqeRNIp0_12tokio_macros5entry17is_test_attribute00B7_, symObjAddr: 0x6028, symBinAddr: 0x163D0, symSize: 0xCC }
  - { offset: 0x3C97B, size: 0x8, addend: 0x0, symName: __RNvNtCs28qvqeRNIp0_12tokio_macros5entry4test, symObjAddr: 0x60F4, symBinAddr: 0x1649C, symSize: 0x508 }
  - { offset: 0x3CA8F, size: 0x8, addend: 0x0, symName: __RNCNvNtCs28qvqeRNIp0_12tokio_macros5entry4test0B5_, symObjAddr: 0x65FC, symBinAddr: 0x169A4, symSize: 0x3C }
  - { offset: 0x3CAC8, size: 0x8, addend: 0x0, symName: __RNCNvNtCs28qvqeRNIp0_12tokio_macros5entry4tests_0B5_, symObjAddr: 0x6638, symBinAddr: 0x169E0, symSize: 0x54 }
  - { offset: 0x3CBF4, size: 0x8, addend: 0x0, symName: __RNCNvMs1_NtCs28qvqeRNIp0_12tokio_macros5entryNtB7_6ItemFn11into_tokens0B9_, symObjAddr: 0x6B94, symBinAddr: 0x16F3C, symSize: 0x58 }
  - { offset: 0x3CC49, size: 0x8, addend: 0x0, symName: __RNvXs2_NtCs28qvqeRNIp0_12tokio_macros5entryNtB5_6ItemFnNtNtCs6IAuOt8vWmF_3syn5parse5Parse5parseB7_, symObjAddr: 0x6BEC, symBinAddr: 0x16F94, symSize: 0x950 }
  - { offset: 0x3CE91, size: 0x8, addend: 0x0, symName: __RNvXs3_NtCs28qvqeRNIp0_12tokio_macros5entryNtB5_4BodyNtNtCs2cqEZUIJimJ_5quote9to_tokens8ToTokens9to_tokens, symObjAddr: 0x753C, symBinAddr: 0x178E4, symSize: 0x44 }
  - { offset: 0x3CECF, size: 0x8, addend: 0x0, symName: __RNCNvXs3_NtCs28qvqeRNIp0_12tokio_macros5entryNtB7_4BodyNtNtCs2cqEZUIJimJ_5quote9to_tokens8ToTokens9to_tokens0B9_, symObjAddr: 0x7580, symBinAddr: 0x17928, symSize: 0x98 }
  - { offset: 0x3CF5B, size: 0x8, addend: 0x0, symName: __RNvXs1_NtNtNtCsfvfooZQ3Axs_4core3ops8function5implsQNCNvNtCs28qvqeRNIp0_12tokio_macros5entry4test0INtB7_5FnMutTRRNtNtCs6IAuOt8vWmF_3syn4attr9AttributeEE8call_mutBU_, symObjAddr: 0x0, symBinAddr: 0x103A8, symSize: 0x30 }
  - { offset: 0x40AC7, size: 0x8, addend: 0x0, symName: __RNvMNtCs28qvqeRNIp0_12tokio_macros5entryNtB2_13RuntimeFlavor8from_str, symObjAddr: 0x30, symBinAddr: 0x103D8, symSize: 0x288 }
  - { offset: 0x40B07, size: 0x8, addend: 0x0, symName: __RNvMs_NtCs28qvqeRNIp0_12tokio_macros5entryNtB4_14UnhandledPanic8from_str, symObjAddr: 0x2B8, symBinAddr: 0x10660, symSize: 0x148 }
  - { offset: 0x40BB5, size: 0x8, addend: 0x0, symName: __RNvMs_NtCs28qvqeRNIp0_12tokio_macros5entryNtB4_14UnhandledPanic11into_tokens, symObjAddr: 0x400, symBinAddr: 0x107A8, symSize: 0x1F0 }
  - { offset: 0x46022, size: 0x8, addend: 0x0, symName: __RNvMs0_NtCs28qvqeRNIp0_12tokio_macros5entryNtB5_13Configuration3new, symObjAddr: 0x5F0, symBinAddr: 0x10998, symSize: 0xF8 }
  - { offset: 0x46080, size: 0x8, addend: 0x0, symName: __RNvMs0_NtCs28qvqeRNIp0_12tokio_macros5entryNtB5_13Configuration10set_flavor, symObjAddr: 0x6E8, symBinAddr: 0x10A90, symSize: 0x2F8 }
  - { offset: 0x46144, size: 0x8, addend: 0x0, symName: __RNvMs0_NtCs28qvqeRNIp0_12tokio_macros5entryNtB5_13Configuration18set_worker_threads, symObjAddr: 0xA18, symBinAddr: 0x10DC0, symSize: 0x24C }
  - { offset: 0x461AE, size: 0x8, addend: 0x0, symName: __RNvMs0_NtCs28qvqeRNIp0_12tokio_macros5entryNtB5_13Configuration16set_start_paused, symObjAddr: 0xC64, symBinAddr: 0x1100C, symSize: 0x1EC }
  - { offset: 0x46220, size: 0x8, addend: 0x0, symName: __RNvMs0_NtCs28qvqeRNIp0_12tokio_macros5entryNtB5_13Configuration14set_crate_name, symObjAddr: 0xE50, symBinAddr: 0x111F8, symSize: 0x2A8 }
  - { offset: 0x462B1, size: 0x8, addend: 0x0, symName: __RNvMs0_NtCs28qvqeRNIp0_12tokio_macros5entryNtB5_13Configuration19set_unhandled_panic, symObjAddr: 0x10F8, symBinAddr: 0x114A0, symSize: 0x308 }
  - { offset: 0x46382, size: 0x8, addend: 0x0, symName: __RNvMs0_NtCs28qvqeRNIp0_12tokio_macros5entryNtB5_13Configuration10macro_name, symObjAddr: 0x1438, symBinAddr: 0x117E0, symSize: 0x7C }
  - { offset: 0x463A4, size: 0x8, addend: 0x0, symName: __RNvMs0_NtCs28qvqeRNIp0_12tokio_macros5entryNtB5_13Configuration5build, symObjAddr: 0x14B4, symBinAddr: 0x1185C, symSize: 0x5B8 }
  - { offset: 0x465D8, size: 0x8, addend: 0x0, symName: __RNvMs1_NtCs28qvqeRNIp0_12tokio_macros5entryNtB5_6ItemFn5attrs, symObjAddr: 0x668C, symBinAddr: 0x16A34, symSize: 0x74 }
  - { offset: 0x46622, size: 0x8, addend: 0x0, symName: __RNvMs1_NtCs28qvqeRNIp0_12tokio_macros5entryNtB5_6ItemFn4body, symObjAddr: 0x6700, symBinAddr: 0x16AA8, symSize: 0x68 }
  - { offset: 0x46645, size: 0x8, addend: 0x0, symName: __RNvMs1_NtCs28qvqeRNIp0_12tokio_macros5entryNtB5_6ItemFn11into_tokens, symObjAddr: 0x6768, symBinAddr: 0x16B10, symSize: 0x42C }
  - { offset: 0x468BB, size: 0x8, addend: 0x0, symName: __RINvNtNtCs9i5KxIbZ5ph_10proc_macro6bridge6client10run_clientNtB2_11TokenStreamINtNtCsfvfooZQ3Axs_4core6option6OptionBW_ENCNCINvMs7_B2_INtB2_6ClientNtB6_11TokenStreamB2l_E7expand1NvCs28qvqeRNIp0_12tokio_macros25select_priv_clean_patternE00EB2S_, symObjAddr: 0x0, symBinAddr: 0x179C0, symSize: 0x21C }
  - { offset: 0x47DC4, size: 0x8, addend: 0x0, symName: __RNCINvNtNtCs9i5KxIbZ5ph_10proc_macro6bridge6client10run_clientNtB4_11TokenStreamINtNtCsfvfooZQ3Axs_4core6option6OptionBY_ENCNCINvMs7_B4_INtB4_6ClientNtB8_11TokenStreamB2n_E7expand1NvCs28qvqeRNIp0_12tokio_macros25select_priv_clean_patternE00E0B2U_, symObjAddr: 0x1260, symBinAddr: 0x18C20, symSize: 0x324 }
  - { offset: 0x48027, size: 0x8, addend: 0x0, symName: __RNCINvNtNtCs9i5KxIbZ5ph_10proc_macro6bridge6client10run_clientNtB4_11TokenStreamINtNtCsfvfooZQ3Axs_4core6option6OptionBY_ENCNCINvMs7_B4_INtB4_6ClientNtB8_11TokenStreamB2n_E7expand1NvCs28qvqeRNIp0_12tokio_macros31select_priv_declare_output_enumE00E0B2U_, symObjAddr: 0x1584, symBinAddr: 0x18F44, symSize: 0x324 }
  - { offset: 0x4828A, size: 0x8, addend: 0x0, symName: __RNCINvNtNtCs9i5KxIbZ5ph_10proc_macro6bridge6client10run_clientTNtB4_11TokenStreamBZ_EINtNtCsfvfooZQ3Axs_4core6option6OptionBZ_ENCNCINvMs8_B4_INtB4_6ClientTNtB8_11TokenStreamB2t_EB2t_E7expand2NvCs28qvqeRNIp0_12tokio_macros4mainE00E0B35_, symObjAddr: 0x18A8, symBinAddr: 0x19268, symSize: 0x344 }
  - { offset: 0x484ED, size: 0x8, addend: 0x0, symName: __RNCINvNtNtCs9i5KxIbZ5ph_10proc_macro6bridge6client10run_clientTNtB4_11TokenStreamBZ_EINtNtCsfvfooZQ3Axs_4core6option6OptionBZ_ENCNCINvMs8_B4_INtB4_6ClientTNtB8_11TokenStreamB2t_EB2t_E7expand2NvCs28qvqeRNIp0_12tokio_macros4testE00E0B35_, symObjAddr: 0x1BEC, symBinAddr: 0x195AC, symSize: 0x344 }
  - { offset: 0x48750, size: 0x8, addend: 0x0, symName: __RNCINvNtNtCs9i5KxIbZ5ph_10proc_macro6bridge6client10run_clientTNtB4_11TokenStreamBZ_EINtNtCsfvfooZQ3Axs_4core6option6OptionBZ_ENCNCINvMs8_B4_INtB4_6ClientTNtB8_11TokenStreamB2t_EB2t_E7expand2NvCs28qvqeRNIp0_12tokio_macros7main_rtE00E0B35_, symObjAddr: 0x1F30, symBinAddr: 0x198F0, symSize: 0x344 }
  - { offset: 0x489B3, size: 0x8, addend: 0x0, symName: __RNCINvNtNtCs9i5KxIbZ5ph_10proc_macro6bridge6client10run_clientTNtB4_11TokenStreamBZ_EINtNtCsfvfooZQ3Axs_4core6option6OptionBZ_ENCNCINvMs8_B4_INtB4_6ClientTNtB8_11TokenStreamB2t_EB2t_E7expand2NvCs28qvqeRNIp0_12tokio_macros7test_rtE00E0B35_, symObjAddr: 0x2274, symBinAddr: 0x19C34, symSize: 0x344 }
  - { offset: 0x48C16, size: 0x8, addend: 0x0, symName: __RNCINvNtNtCs9i5KxIbZ5ph_10proc_macro6bridge6client10run_clientTNtB4_11TokenStreamBZ_EINtNtCsfvfooZQ3Axs_4core6option6OptionBZ_ENCNCINvMs8_B4_INtB4_6ClientTNtB8_11TokenStreamB2t_EB2t_E7expand2NvCs28qvqeRNIp0_12tokio_macros9main_failE00E0B35_, symObjAddr: 0x25B8, symBinAddr: 0x19F78, symSize: 0x344 }
  - { offset: 0x48E79, size: 0x8, addend: 0x0, symName: __RNCINvNtNtCs9i5KxIbZ5ph_10proc_macro6bridge6client10run_clientTNtB4_11TokenStreamBZ_EINtNtCsfvfooZQ3Axs_4core6option6OptionBZ_ENCNCINvMs8_B4_INtB4_6ClientTNtB8_11TokenStreamB2t_EB2t_E7expand2NvCs28qvqeRNIp0_12tokio_macros9test_failE00E0B35_, symObjAddr: 0x28FC, symBinAddr: 0x1A2BC, symSize: 0x344 }
  - { offset: 0x490E1, size: 0x8, addend: 0x0, symName: __RNCNCINvNtNtCs9i5KxIbZ5ph_10proc_macro6bridge6client10run_clientNtB6_11TokenStreamINtNtCsfvfooZQ3Axs_4core6option6OptionB10_ENCNCINvMs7_B6_INtB6_6ClientNtBa_11TokenStreamB2q_E7expand1NvCs28qvqeRNIp0_12tokio_macros25select_priv_clean_patternE00E00B2X_, symObjAddr: 0x2E38, symBinAddr: 0x1A7F8, symSize: 0x28 }
  - { offset: 0x4913B, size: 0x8, addend: 0x0, symName: __RNCNCINvNtNtCs9i5KxIbZ5ph_10proc_macro6bridge6client10run_clientNtB6_11TokenStreamINtNtCsfvfooZQ3Axs_4core6option6OptionB10_ENCNCINvMs7_B6_INtB6_6ClientNtBa_11TokenStreamB2q_E7expand1NvCs28qvqeRNIp0_12tokio_macros31select_priv_declare_output_enumE00E00B2X_, symObjAddr: 0x2E60, symBinAddr: 0x1A820, symSize: 0x28 }
  - { offset: 0x49195, size: 0x8, addend: 0x0, symName: __RNCNCINvNtNtCs9i5KxIbZ5ph_10proc_macro6bridge6client10run_clientTNtB6_11TokenStreamB11_EINtNtCsfvfooZQ3Axs_4core6option6OptionB11_ENCNCINvMs8_B6_INtB6_6ClientTNtBa_11TokenStreamB2x_EB2x_E7expand2NvCs28qvqeRNIp0_12tokio_macros4mainE00E00B39_, symObjAddr: 0x2E88, symBinAddr: 0x1A848, symSize: 0x24 }
  - { offset: 0x491F1, size: 0x8, addend: 0x0, symName: __RNCNCINvNtNtCs9i5KxIbZ5ph_10proc_macro6bridge6client10run_clientTNtB6_11TokenStreamB11_EINtNtCsfvfooZQ3Axs_4core6option6OptionB11_ENCNCINvMs8_B6_INtB6_6ClientTNtBa_11TokenStreamB2x_EB2x_E7expand2NvCs28qvqeRNIp0_12tokio_macros4testE00E00B39_, symObjAddr: 0x2EAC, symBinAddr: 0x1A86C, symSize: 0x24 }
  - { offset: 0x4924D, size: 0x8, addend: 0x0, symName: __RNCNCINvNtNtCs9i5KxIbZ5ph_10proc_macro6bridge6client10run_clientTNtB6_11TokenStreamB11_EINtNtCsfvfooZQ3Axs_4core6option6OptionB11_ENCNCINvMs8_B6_INtB6_6ClientTNtBa_11TokenStreamB2x_EB2x_E7expand2NvCs28qvqeRNIp0_12tokio_macros7main_rtE00E00B39_, symObjAddr: 0x2ED0, symBinAddr: 0x1A890, symSize: 0x24 }
  - { offset: 0x492A9, size: 0x8, addend: 0x0, symName: __RNCNCINvNtNtCs9i5KxIbZ5ph_10proc_macro6bridge6client10run_clientTNtB6_11TokenStreamB11_EINtNtCsfvfooZQ3Axs_4core6option6OptionB11_ENCNCINvMs8_B6_INtB6_6ClientTNtBa_11TokenStreamB2x_EB2x_E7expand2NvCs28qvqeRNIp0_12tokio_macros7test_rtE00E00B39_, symObjAddr: 0x2EF4, symBinAddr: 0x1A8B4, symSize: 0x24 }
  - { offset: 0x49305, size: 0x8, addend: 0x0, symName: __RNCNCINvNtNtCs9i5KxIbZ5ph_10proc_macro6bridge6client10run_clientTNtB6_11TokenStreamB11_EINtNtCsfvfooZQ3Axs_4core6option6OptionB11_ENCNCINvMs8_B6_INtB6_6ClientTNtBa_11TokenStreamB2x_EB2x_E7expand2NvCs28qvqeRNIp0_12tokio_macros9main_failE00E00B39_, symObjAddr: 0x2F18, symBinAddr: 0x1A8D8, symSize: 0x24 }
  - { offset: 0x49361, size: 0x8, addend: 0x0, symName: __RNCNCINvNtNtCs9i5KxIbZ5ph_10proc_macro6bridge6client10run_clientTNtB6_11TokenStreamB11_EINtNtCsfvfooZQ3Axs_4core6option6OptionB11_ENCNCINvMs8_B6_INtB6_6ClientTNtBa_11TokenStreamB2x_EB2x_E7expand2NvCs28qvqeRNIp0_12tokio_macros9test_failE00E00B39_, symObjAddr: 0x2F3C, symBinAddr: 0x1A8FC, symSize: 0x24 }
  - { offset: 0x493F4, size: 0x8, addend: 0x0, symName: __RNCNCINvMs7_NtNtCs9i5KxIbZ5ph_10proc_macro6bridge6clientINtBa_6ClientNtBe_11TokenStreamB15_E7expand1NvCs28qvqeRNIp0_12tokio_macros25select_priv_clean_patternE00B1C_, symObjAddr: 0x2C40, symBinAddr: 0x1A600, symSize: 0x30 }
  - { offset: 0x4943C, size: 0x8, addend: 0x0, symName: __RNCNCINvMs7_NtNtCs9i5KxIbZ5ph_10proc_macro6bridge6clientINtBa_6ClientNtBe_11TokenStreamB15_E7expand1NvCs28qvqeRNIp0_12tokio_macros31select_priv_declare_output_enumE00B1C_, symObjAddr: 0x2C70, symBinAddr: 0x1A630, symSize: 0x30 }
  - { offset: 0x49485, size: 0x8, addend: 0x0, symName: __RNCINvMs7_NtNtCs9i5KxIbZ5ph_10proc_macro6bridge6clientINtB8_6ClientNtBc_11TokenStreamB13_E7expand1NvCs28qvqeRNIp0_12tokio_macros25select_priv_clean_patternE0B1A_, symObjAddr: 0x10E0, symBinAddr: 0x18AA0, symSize: 0x30 }
  - { offset: 0x494CE, size: 0x8, addend: 0x0, symName: __RNCINvMs7_NtNtCs9i5KxIbZ5ph_10proc_macro6bridge6clientINtB8_6ClientNtBc_11TokenStreamB13_E7expand1NvCs28qvqeRNIp0_12tokio_macros31select_priv_declare_output_enumE0B1A_, symObjAddr: 0x1110, symBinAddr: 0x18AD0, symSize: 0x30 }
  - { offset: 0x4953A, size: 0x8, addend: 0x0, symName: __RINvNtNtCs9i5KxIbZ5ph_10proc_macro6bridge6client10run_clientNtB2_11TokenStreamINtNtCsfvfooZQ3Axs_4core6option6OptionBW_ENCNCINvMs7_B2_INtB2_6ClientNtB6_11TokenStreamB2l_E7expand1NvCs28qvqeRNIp0_12tokio_macros25select_priv_clean_patternE00EB2S_, symObjAddr: 0x0, symBinAddr: 0x179C0, symSize: 0x21C }
  - { offset: 0x496FA, size: 0x8, addend: 0x0, symName: __RINvNtNtCs9i5KxIbZ5ph_10proc_macro6bridge6client10run_clientNtB2_11TokenStreamINtNtCsfvfooZQ3Axs_4core6option6OptionBW_ENCNCINvMs7_B2_INtB2_6ClientNtB6_11TokenStreamB2l_E7expand1NvCs28qvqeRNIp0_12tokio_macros31select_priv_declare_output_enumE00EB2S_, symObjAddr: 0x21C, symBinAddr: 0x17BDC, symSize: 0x21C }
  - { offset: 0x4993B, size: 0x8, addend: 0x0, symName: __RNCNCINvMs8_NtNtCs9i5KxIbZ5ph_10proc_macro6bridge6clientINtBa_6ClientTNtBe_11TokenStreamB16_EB16_E7expand2NvCs28qvqeRNIp0_12tokio_macros4mainE00B1I_, symObjAddr: 0x2CA0, symBinAddr: 0x1A660, symSize: 0x44 }
  - { offset: 0x499AD, size: 0x8, addend: 0x0, symName: __RNCNCINvMs8_NtNtCs9i5KxIbZ5ph_10proc_macro6bridge6clientINtBa_6ClientTNtBe_11TokenStreamB16_EB16_E7expand2NvCs28qvqeRNIp0_12tokio_macros4testE00B1I_, symObjAddr: 0x2CE4, symBinAddr: 0x1A6A4, symSize: 0x44 }
  - { offset: 0x49A1F, size: 0x8, addend: 0x0, symName: __RNCNCINvMs8_NtNtCs9i5KxIbZ5ph_10proc_macro6bridge6clientINtBa_6ClientTNtBe_11TokenStreamB16_EB16_E7expand2NvCs28qvqeRNIp0_12tokio_macros7main_rtE00B1I_, symObjAddr: 0x2D28, symBinAddr: 0x1A6E8, symSize: 0x44 }
  - { offset: 0x49A91, size: 0x8, addend: 0x0, symName: __RNCNCINvMs8_NtNtCs9i5KxIbZ5ph_10proc_macro6bridge6clientINtBa_6ClientTNtBe_11TokenStreamB16_EB16_E7expand2NvCs28qvqeRNIp0_12tokio_macros7test_rtE00B1I_, symObjAddr: 0x2D6C, symBinAddr: 0x1A72C, symSize: 0x44 }
  - { offset: 0x49B03, size: 0x8, addend: 0x0, symName: __RNCNCINvMs8_NtNtCs9i5KxIbZ5ph_10proc_macro6bridge6clientINtBa_6ClientTNtBe_11TokenStreamB16_EB16_E7expand2NvCs28qvqeRNIp0_12tokio_macros9main_failE00B1I_, symObjAddr: 0x2DB0, symBinAddr: 0x1A770, symSize: 0x44 }
  - { offset: 0x49B75, size: 0x8, addend: 0x0, symName: __RNCNCINvMs8_NtNtCs9i5KxIbZ5ph_10proc_macro6bridge6clientINtBa_6ClientTNtBe_11TokenStreamB16_EB16_E7expand2NvCs28qvqeRNIp0_12tokio_macros9test_failE00B1I_, symObjAddr: 0x2DF4, symBinAddr: 0x1A7B4, symSize: 0x44 }
  - { offset: 0x49BE8, size: 0x8, addend: 0x0, symName: __RNCINvMs8_NtNtCs9i5KxIbZ5ph_10proc_macro6bridge6clientINtB8_6ClientTNtBc_11TokenStreamB14_EB14_E7expand2NvCs28qvqeRNIp0_12tokio_macros4mainE0B1G_, symObjAddr: 0x1140, symBinAddr: 0x18B00, symSize: 0x30 }
  - { offset: 0x49C31, size: 0x8, addend: 0x0, symName: __RNCINvMs8_NtNtCs9i5KxIbZ5ph_10proc_macro6bridge6clientINtB8_6ClientTNtBc_11TokenStreamB14_EB14_E7expand2NvCs28qvqeRNIp0_12tokio_macros4testE0B1G_, symObjAddr: 0x1170, symBinAddr: 0x18B30, symSize: 0x30 }
  - { offset: 0x49C7A, size: 0x8, addend: 0x0, symName: __RNCINvMs8_NtNtCs9i5KxIbZ5ph_10proc_macro6bridge6clientINtB8_6ClientTNtBc_11TokenStreamB14_EB14_E7expand2NvCs28qvqeRNIp0_12tokio_macros7main_rtE0B1G_, symObjAddr: 0x11A0, symBinAddr: 0x18B60, symSize: 0x30 }
  - { offset: 0x49CC3, size: 0x8, addend: 0x0, symName: __RNCINvMs8_NtNtCs9i5KxIbZ5ph_10proc_macro6bridge6clientINtB8_6ClientTNtBc_11TokenStreamB14_EB14_E7expand2NvCs28qvqeRNIp0_12tokio_macros7test_rtE0B1G_, symObjAddr: 0x11D0, symBinAddr: 0x18B90, symSize: 0x30 }
  - { offset: 0x49D0C, size: 0x8, addend: 0x0, symName: __RNCINvMs8_NtNtCs9i5KxIbZ5ph_10proc_macro6bridge6clientINtB8_6ClientTNtBc_11TokenStreamB14_EB14_E7expand2NvCs28qvqeRNIp0_12tokio_macros9main_failE0B1G_, symObjAddr: 0x1200, symBinAddr: 0x18BC0, symSize: 0x30 }
  - { offset: 0x49D55, size: 0x8, addend: 0x0, symName: __RNCINvMs8_NtNtCs9i5KxIbZ5ph_10proc_macro6bridge6clientINtB8_6ClientTNtBc_11TokenStreamB14_EB14_E7expand2NvCs28qvqeRNIp0_12tokio_macros9test_failE0B1G_, symObjAddr: 0x1230, symBinAddr: 0x18BF0, symSize: 0x30 }
  - { offset: 0x49DA0, size: 0x8, addend: 0x0, symName: __RINvNtNtCs9i5KxIbZ5ph_10proc_macro6bridge6client10run_clientTNtB2_11TokenStreamBX_EINtNtCsfvfooZQ3Axs_4core6option6OptionBX_ENCNCINvMs8_B2_INtB2_6ClientTNtB6_11TokenStreamB2r_EB2r_E7expand2NvCs28qvqeRNIp0_12tokio_macros4mainE00EB33_, symObjAddr: 0x438, symBinAddr: 0x17DF8, symSize: 0x21C }
  - { offset: 0x49F60, size: 0x8, addend: 0x0, symName: __RINvNtNtCs9i5KxIbZ5ph_10proc_macro6bridge6client10run_clientTNtB2_11TokenStreamBX_EINtNtCsfvfooZQ3Axs_4core6option6OptionBX_ENCNCINvMs8_B2_INtB2_6ClientTNtB6_11TokenStreamB2r_EB2r_E7expand2NvCs28qvqeRNIp0_12tokio_macros4testE00EB33_, symObjAddr: 0x654, symBinAddr: 0x18014, symSize: 0x21C }
  - { offset: 0x4A120, size: 0x8, addend: 0x0, symName: __RINvNtNtCs9i5KxIbZ5ph_10proc_macro6bridge6client10run_clientTNtB2_11TokenStreamBX_EINtNtCsfvfooZQ3Axs_4core6option6OptionBX_ENCNCINvMs8_B2_INtB2_6ClientTNtB6_11TokenStreamB2r_EB2r_E7expand2NvCs28qvqeRNIp0_12tokio_macros7main_rtE00EB33_, symObjAddr: 0x870, symBinAddr: 0x18230, symSize: 0x21C }
  - { offset: 0x4A2E0, size: 0x8, addend: 0x0, symName: __RINvNtNtCs9i5KxIbZ5ph_10proc_macro6bridge6client10run_clientTNtB2_11TokenStreamBX_EINtNtCsfvfooZQ3Axs_4core6option6OptionBX_ENCNCINvMs8_B2_INtB2_6ClientTNtB6_11TokenStreamB2r_EB2r_E7expand2NvCs28qvqeRNIp0_12tokio_macros7test_rtE00EB33_, symObjAddr: 0xA8C, symBinAddr: 0x1844C, symSize: 0x21C }
  - { offset: 0x4A4A0, size: 0x8, addend: 0x0, symName: __RINvNtNtCs9i5KxIbZ5ph_10proc_macro6bridge6client10run_clientTNtB2_11TokenStreamBX_EINtNtCsfvfooZQ3Axs_4core6option6OptionBX_ENCNCINvMs8_B2_INtB2_6ClientTNtB6_11TokenStreamB2r_EB2r_E7expand2NvCs28qvqeRNIp0_12tokio_macros9main_failE00EB33_, symObjAddr: 0xCA8, symBinAddr: 0x18668, symSize: 0x21C }
  - { offset: 0x4A660, size: 0x8, addend: 0x0, symName: __RINvNtNtCs9i5KxIbZ5ph_10proc_macro6bridge6client10run_clientTNtB2_11TokenStreamBX_EINtNtCsfvfooZQ3Axs_4core6option6OptionBX_ENCNCINvMs8_B2_INtB2_6ClientTNtB6_11TokenStreamB2r_EB2r_E7expand2NvCs28qvqeRNIp0_12tokio_macros9test_failE00EB33_, symObjAddr: 0xEC4, symBinAddr: 0x18884, symSize: 0x21C }
  - { offset: 0x4A873, size: 0x8, addend: 0x0, symName: __RNvXsg_NtNtCs9i5KxIbZ5ph_10proc_macro6bridge6clientNtB5_11TokenStreamINtNtB7_3rpc6EncodeuE6encodeCs28qvqeRNIp0_12tokio_macros, symObjAddr: 0x2FE0, symBinAddr: 0x1A9A0, symSize: 0x50 }
  - { offset: 0x4A984, size: 0x8, addend: 0x0, symName: __RNvXsj_NtNtCs9i5KxIbZ5ph_10proc_macro6bridge6clientNtB5_11TokenStreamINtNtB7_3rpc9DecodeMutuE6decodeCs28qvqeRNIp0_12tokio_macros, symObjAddr: 0x3030, symBinAddr: 0x1A9F0, symSize: 0x2C }
  - { offset: 0x4A9CD, size: 0x8, addend: 0x0, symName: __RNvXsq_NtNtCs9i5KxIbZ5ph_10proc_macro6bridge6clientNtB5_4SpanINtNtB7_3rpc9DecodeMutuE6decodeCs28qvqeRNIp0_12tokio_macros, symObjAddr: 0x305C, symBinAddr: 0x1AA1C, symSize: 0x2C }
  - { offset: 0x4AD4B, size: 0x8, addend: 0x0, symName: __RNvXs9_NtNtCs9i5KxIbZ5ph_10proc_macro6bridge3rpcTNtNtB7_6client11TokenStreamBL_EINtB5_9DecodeMutuE6decodeCs28qvqeRNIp0_12tokio_macros, symObjAddr: 0x2F60, symBinAddr: 0x1A920, symSize: 0x80 }
  - { offset: 0x4C1A8, size: 0x8, addend: 0x0, symName: __RINvMsi_NtCse1nGBsou5OW_5alloc3vecINtB6_3VecNtCs3cP53eQoTwO_11proc_macro25IdentE14extend_trustedINtNtNtNtCsfvfooZQ3Axs_4core4iter8adapters3map3MapINtNtNtB1F_3ops5range5RangejENCNvNtCs28qvqeRNIp0_12tokio_macros6select19declare_output_enum0EEB2T_, symObjAddr: 0x0, symBinAddr: 0x1AA9C, symSize: 0x170 }
  - { offset: 0x4C68F, size: 0x8, addend: 0x0, symName: __RNCNvXs8_NtCs6IAuOt8vWmF_3syn10punctuatedINtB7_10PunctuatedNtNtB9_4attr4MetaNtNtB9_5token5CommaENtNtNtNtCsfvfooZQ3Axs_4core4iter6traits7collect12IntoIterator9into_iter0Cs28qvqeRNIp0_12tokio_macros, symObjAddr: 0x760, symBinAddr: 0x1B1FC, symSize: 0x44 }
  - { offset: 0x4C6DB, size: 0x8, addend: 0x0, symName: __RNCNvXs8_NtCs6IAuOt8vWmF_3syn10punctuatedINtB7_10PunctuatedNtNtB9_4attr4MetaNtNtB9_5token5CommaENtNtNtNtCsfvfooZQ3Axs_4core4iter6traits7collect12IntoIterator9into_iters_0Cs28qvqeRNIp0_12tokio_macros, symObjAddr: 0x7A4, symBinAddr: 0x1B240, symSize: 0x98 }
  - { offset: 0x4C72E, size: 0x8, addend: 0x0, symName: __RNvXs8_NtCs6IAuOt8vWmF_3syn10punctuatedINtB5_10PunctuatedNtNtB7_4attr4MetaNtNtB7_5token5CommaENtNtNtNtCsfvfooZQ3Axs_4core4iter6traits7collect12IntoIterator9into_iterCs28qvqeRNIp0_12tokio_macros, symObjAddr: 0x1C08, symBinAddr: 0x1C6A4, symSize: 0x1C0 }
  - { offset: 0x4C7B3, size: 0x8, addend: 0x0, symName: __RNCNCNvXsG_NtCs6IAuOt8vWmF_3syn10punctuatedINtB9_14PrivateIterMutNtNtBb_3pat3PatNtNtBb_5token2OrENtNtNtNtCsfvfooZQ3Axs_4core4iter6traits12double_ended19DoubleEndedIterator9next_back00Cs28qvqeRNIp0_12tokio_macros, symObjAddr: 0x6F4, symBinAddr: 0x1B190, symSize: 0x24 }
  - { offset: 0x4C7FE, size: 0x8, addend: 0x0, symName: __RNCNCNvXsG_NtCs6IAuOt8vWmF_3syn10punctuatedINtB9_14PrivateIterMutNtNtBb_3pat3PatNtNtBb_5token5CommaENtNtNtNtCsfvfooZQ3Axs_4core4iter6traits12double_ended19DoubleEndedIterator9next_back00Cs28qvqeRNIp0_12tokio_macros, symObjAddr: 0x718, symBinAddr: 0x1B1B4, symSize: 0x24 }
  - { offset: 0x4C849, size: 0x8, addend: 0x0, symName: __RNCNCNvXsG_NtCs6IAuOt8vWmF_3syn10punctuatedINtB9_14PrivateIterMutNtNtBb_3pat8FieldPatNtNtBb_5token5CommaENtNtNtNtCsfvfooZQ3Axs_4core4iter6traits12double_ended19DoubleEndedIterator9next_back00Cs28qvqeRNIp0_12tokio_macros, symObjAddr: 0x73C, symBinAddr: 0x1B1D8, symSize: 0x24 }
  - { offset: 0x4C8AA, size: 0x8, addend: 0x0, symName: __RNCNvXsG_NtCs6IAuOt8vWmF_3syn10punctuatedINtB7_14PrivateIterMutNtNtB9_3pat3PatNtNtB9_5token2OrENtNtNtNtCsfvfooZQ3Axs_4core4iter6traits12double_ended19DoubleEndedIterator9next_back0Cs28qvqeRNIp0_12tokio_macros, symObjAddr: 0x944, symBinAddr: 0x1B3E0, symSize: 0x38 }
  - { offset: 0x4C8EC, size: 0x8, addend: 0x0, symName: __RNCNvXsG_NtCs6IAuOt8vWmF_3syn10punctuatedINtB7_14PrivateIterMutNtNtB9_3pat3PatNtNtB9_5token5CommaENtNtNtNtCsfvfooZQ3Axs_4core4iter6traits12double_ended19DoubleEndedIterator9next_back0Cs28qvqeRNIp0_12tokio_macros, symObjAddr: 0x97C, symBinAddr: 0x1B418, symSize: 0x38 }
  - { offset: 0x4C92E, size: 0x8, addend: 0x0, symName: __RNCNvXsG_NtCs6IAuOt8vWmF_3syn10punctuatedINtB7_14PrivateIterMutNtNtB9_3pat8FieldPatNtNtB9_5token5CommaENtNtNtNtCsfvfooZQ3Axs_4core4iter6traits12double_ended19DoubleEndedIterator9next_back0Cs28qvqeRNIp0_12tokio_macros, symObjAddr: 0x9B4, symBinAddr: 0x1B450, symSize: 0x38 }
  - { offset: 0x4C971, size: 0x8, addend: 0x0, symName: __RNvXsG_NtCs6IAuOt8vWmF_3syn10punctuatedINtB5_14PrivateIterMutNtNtB7_3pat3PatNtNtB7_5token2OrENtNtNtNtCsfvfooZQ3Axs_4core4iter6traits12double_ended19DoubleEndedIterator9next_backCs28qvqeRNIp0_12tokio_macros, symObjAddr: 0x1F24, symBinAddr: 0x1C9C0, symSize: 0x40 }
  - { offset: 0x4C9B1, size: 0x8, addend: 0x0, symName: __RNvXsG_NtCs6IAuOt8vWmF_3syn10punctuatedINtB5_14PrivateIterMutNtNtB7_3pat3PatNtNtB7_5token5CommaENtNtNtNtCsfvfooZQ3Axs_4core4iter6traits12double_ended19DoubleEndedIterator9next_backCs28qvqeRNIp0_12tokio_macros, symObjAddr: 0x1F64, symBinAddr: 0x1CA00, symSize: 0x40 }
  - { offset: 0x4C9F1, size: 0x8, addend: 0x0, symName: __RNvXsG_NtCs6IAuOt8vWmF_3syn10punctuatedINtB5_14PrivateIterMutNtNtB7_3pat8FieldPatNtNtB7_5token5CommaENtNtNtNtCsfvfooZQ3Axs_4core4iter6traits12double_ended19DoubleEndedIterator9next_backCs28qvqeRNIp0_12tokio_macros, symObjAddr: 0x1FA4, symBinAddr: 0x1CA40, symSize: 0x40 }
  - { offset: 0x4CA3C, size: 0x8, addend: 0x0, symName: __RNCNvXsF_NtCs6IAuOt8vWmF_3syn10punctuatedINtB7_14PrivateIterMutNtNtB9_3pat3PatNtNtB9_5token2OrENtNtNtNtCsfvfooZQ3Axs_4core4iter6traits8iterator8Iterator4next0Cs28qvqeRNIp0_12tokio_macros, symObjAddr: 0x83C, symBinAddr: 0x1B2D8, symSize: 0x24 }
  - { offset: 0x4CA87, size: 0x8, addend: 0x0, symName: __RNCNvXsF_NtCs6IAuOt8vWmF_3syn10punctuatedINtB7_14PrivateIterMutNtNtB9_3pat3PatNtNtB9_5token2OrENtNtNtNtCsfvfooZQ3Axs_4core4iter6traits8iterator8Iterator4nexts_0Cs28qvqeRNIp0_12tokio_macros, symObjAddr: 0x860, symBinAddr: 0x1B2FC, symSize: 0x34 }
  - { offset: 0x4CAC9, size: 0x8, addend: 0x0, symName: __RNCNvXsF_NtCs6IAuOt8vWmF_3syn10punctuatedINtB7_14PrivateIterMutNtNtB9_3pat3PatNtNtB9_5token5CommaENtNtNtNtCsfvfooZQ3Axs_4core4iter6traits8iterator8Iterator4next0Cs28qvqeRNIp0_12tokio_macros, symObjAddr: 0x894, symBinAddr: 0x1B330, symSize: 0x24 }
  - { offset: 0x4CB14, size: 0x8, addend: 0x0, symName: __RNCNvXsF_NtCs6IAuOt8vWmF_3syn10punctuatedINtB7_14PrivateIterMutNtNtB9_3pat3PatNtNtB9_5token5CommaENtNtNtNtCsfvfooZQ3Axs_4core4iter6traits8iterator8Iterator4nexts_0Cs28qvqeRNIp0_12tokio_macros, symObjAddr: 0x8B8, symBinAddr: 0x1B354, symSize: 0x34 }
  - { offset: 0x4CB56, size: 0x8, addend: 0x0, symName: __RNCNvXsF_NtCs6IAuOt8vWmF_3syn10punctuatedINtB7_14PrivateIterMutNtNtB9_3pat8FieldPatNtNtB9_5token5CommaENtNtNtNtCsfvfooZQ3Axs_4core4iter6traits8iterator8Iterator4next0Cs28qvqeRNIp0_12tokio_macros, symObjAddr: 0x8EC, symBinAddr: 0x1B388, symSize: 0x24 }
  - { offset: 0x4CBA1, size: 0x8, addend: 0x0, symName: __RNCNvXsF_NtCs6IAuOt8vWmF_3syn10punctuatedINtB7_14PrivateIterMutNtNtB9_3pat8FieldPatNtNtB9_5token5CommaENtNtNtNtCsfvfooZQ3Axs_4core4iter6traits8iterator8Iterator4nexts_0Cs28qvqeRNIp0_12tokio_macros, symObjAddr: 0x910, symBinAddr: 0x1B3AC, symSize: 0x34 }
  - { offset: 0x4CBF9, size: 0x8, addend: 0x0, symName: __RNvXsF_NtCs6IAuOt8vWmF_3syn10punctuatedINtB5_14PrivateIterMutNtNtB7_3pat3PatNtNtB7_5token2OrENtNtNtNtCsfvfooZQ3Axs_4core4iter6traits8iterator8Iterator4nextCs28qvqeRNIp0_12tokio_macros, symObjAddr: 0x1E58, symBinAddr: 0x1C8F4, symSize: 0x44 }
  - { offset: 0x4CC39, size: 0x8, addend: 0x0, symName: __RNvXsF_NtCs6IAuOt8vWmF_3syn10punctuatedINtB5_14PrivateIterMutNtNtB7_3pat3PatNtNtB7_5token5CommaENtNtNtNtCsfvfooZQ3Axs_4core4iter6traits8iterator8Iterator4nextCs28qvqeRNIp0_12tokio_macros, symObjAddr: 0x1E9C, symBinAddr: 0x1C938, symSize: 0x44 }
  - { offset: 0x4CC79, size: 0x8, addend: 0x0, symName: __RNvXsF_NtCs6IAuOt8vWmF_3syn10punctuatedINtB5_14PrivateIterMutNtNtB7_3pat8FieldPatNtNtB7_5token5CommaENtNtNtNtCsfvfooZQ3Axs_4core4iter6traits8iterator8Iterator4nextCs28qvqeRNIp0_12tokio_macros, symObjAddr: 0x1EE0, symBinAddr: 0x1C97C, symSize: 0x44 }
  - { offset: 0x4CE43, size: 0x8, addend: 0x0, symName: __RNvXsC_NtCs6IAuOt8vWmF_3syn10punctuatedINtB5_7IterMutNtNtB7_3pat3PatENtNtNtNtCsfvfooZQ3Axs_4core4iter6traits8iterator8Iterator4nextCs28qvqeRNIp0_12tokio_macros, symObjAddr: 0x1DC8, symBinAddr: 0x1C864, symSize: 0x48 }
  - { offset: 0x4CE7A, size: 0x8, addend: 0x0, symName: __RNvXsC_NtCs6IAuOt8vWmF_3syn10punctuatedINtB5_7IterMutNtNtB7_3pat8FieldPatENtNtNtNtCsfvfooZQ3Axs_4core4iter6traits8iterator8Iterator4nextCs28qvqeRNIp0_12tokio_macros, symObjAddr: 0x1E10, symBinAddr: 0x1C8AC, symSize: 0x48 }
  - { offset: 0x4CEB7, size: 0x8, addend: 0x0, symName: __RNvXsH_NtCs6IAuOt8vWmF_3syn10punctuatedINtB5_14PrivateIterMutNtNtB7_3pat3PatNtNtB7_5token2OrENtNtNtNtCsfvfooZQ3Axs_4core4iter6traits10exact_size17ExactSizeIterator3lenCs28qvqeRNIp0_12tokio_macros, symObjAddr: 0x1FE4, symBinAddr: 0x1CA80, symSize: 0x94 }
  - { offset: 0x4CF2B, size: 0x8, addend: 0x0, symName: __RNvXsH_NtCs6IAuOt8vWmF_3syn10punctuatedINtB5_14PrivateIterMutNtNtB7_3pat3PatNtNtB7_5token5CommaENtNtNtNtCsfvfooZQ3Axs_4core4iter6traits10exact_size17ExactSizeIterator3lenCs28qvqeRNIp0_12tokio_macros, symObjAddr: 0x2078, symBinAddr: 0x1CB14, symSize: 0x94 }
  - { offset: 0x4CF9F, size: 0x8, addend: 0x0, symName: __RNvXsH_NtCs6IAuOt8vWmF_3syn10punctuatedINtB5_14PrivateIterMutNtNtB7_3pat8FieldPatNtNtB7_5token5CommaENtNtNtNtCsfvfooZQ3Axs_4core4iter6traits10exact_size17ExactSizeIterator3lenCs28qvqeRNIp0_12tokio_macros, symObjAddr: 0x210C, symBinAddr: 0x1CBA8, symSize: 0x94 }
  - { offset: 0x4D019, size: 0x8, addend: 0x0, symName: __RNvXsa_NtCs6IAuOt8vWmF_3syn10punctuatedQINtB5_10PunctuatedNtNtB7_3pat3PatNtNtB7_5token2OrENtNtNtNtCsfvfooZQ3Axs_4core4iter6traits7collect12IntoIterator9into_iterCs28qvqeRNIp0_12tokio_macros, symObjAddr: 0x237C, symBinAddr: 0x1CE18, symSize: 0x34 }
  - { offset: 0x4D059, size: 0x8, addend: 0x0, symName: __RNvXsa_NtCs6IAuOt8vWmF_3syn10punctuatedQINtB5_10PunctuatedNtNtB7_3pat3PatNtNtB7_5token5CommaENtNtNtNtCsfvfooZQ3Axs_4core4iter6traits7collect12IntoIterator9into_iterCs28qvqeRNIp0_12tokio_macros, symObjAddr: 0x23B0, symBinAddr: 0x1CE4C, symSize: 0x34 }
  - { offset: 0x4D099, size: 0x8, addend: 0x0, symName: __RNvXsa_NtCs6IAuOt8vWmF_3syn10punctuatedQINtB5_10PunctuatedNtNtB7_3pat8FieldPatNtNtB7_5token5CommaENtNtNtNtCsfvfooZQ3Axs_4core4iter6traits7collect12IntoIterator9into_iterCs28qvqeRNIp0_12tokio_macros, symObjAddr: 0x23E4, symBinAddr: 0x1CE80, symSize: 0x34 }
  - { offset: 0x4D0DF, size: 0x8, addend: 0x0, symName: __RNvXsn_NtCs6IAuOt8vWmF_3syn10punctuatedINtB5_8IntoIterNtNtB7_4attr4MetaENtNtNtNtCsfvfooZQ3Axs_4core4iter6traits8iterator8Iterator4nextCs28qvqeRNIp0_12tokio_macros, symObjAddr: 0x2920, symBinAddr: 0x1D3BC, symSize: 0x34 }
  - { offset: 0x51BBB, size: 0x8, addend: 0x0, symName: __RNvXsh_NtCs6IAuOt8vWmF_3syn5parseNvMNtB7_10punctuatedINtBy_10PunctuatedNtNtB7_4attr4MetaNtNtB7_5token5CommaE16parse_terminatedNtB5_6Parser6parse2Cs28qvqeRNIp0_12tokio_macros, symObjAddr: 0x25E0, symBinAddr: 0x1D07C, symSize: 0x340 }
  - { offset: 0x52899, size: 0x8, addend: 0x0, symName: __RINvXsd_NtCse1nGBsou5OW_5alloc3vecINtB6_3VecNtCs3cP53eQoTwO_11proc_macro25IdentEINtNtNtNtCsfvfooZQ3Axs_4core4iter6traits7collect12FromIteratorBG_E9from_iterINtNtNtB1n_8adapters3map3MapINtNtNtB1p_3ops5range5RangejENCNvNtCs28qvqeRNIp0_12tokio_macros6select19declare_output_enum0EEB3v_, symObjAddr: 0x498, symBinAddr: 0x1AF34, symSize: 0x38 }
  - { offset: 0x528DF, size: 0x8, addend: 0x0, symName: __RINvXsh_NtCse1nGBsou5OW_5alloc3vecINtB6_3VecNtNtCs6IAuOt8vWmF_3syn4attr4MetaEINtNtNtNtCsfvfooZQ3Axs_4core4iter6traits7collect6ExtendBG_E6extendINtNtB1m_6option6OptionBG_EECs28qvqeRNIp0_12tokio_macros, symObjAddr: 0x4D0, symBinAddr: 0x1AF6C, symSize: 0x50 }
  - { offset: 0x52934, size: 0x8, addend: 0x0, symName: __RINvXsh_NtCse1nGBsou5OW_5alloc3vecINtB6_3VecNtNtCs6IAuOt8vWmF_3syn4attr4MetaEINtNtNtNtCsfvfooZQ3Axs_4core4iter6traits7collect6ExtendBG_E6extendINtNtNtB1k_8adapters3map3MapINtNtB6_9into_iter8IntoIterTBG_NtNtBK_5token5CommaEENCNvXs8_NtBK_10punctuatedINtB3H_10PunctuatedBG_B3e_ENtB1g_12IntoIterator9into_iter0EECs28qvqeRNIp0_12tokio_macros, symObjAddr: 0x520, symBinAddr: 0x1AFBC, symSize: 0x48 }
  - { offset: 0x52994, size: 0x8, addend: 0x0, symName: __RNCINvMsi_NtCse1nGBsou5OW_5alloc3vecINtB8_3VecNtCs3cP53eQoTwO_11proc_macro25IdentE14extend_trustedINtNtNtNtCsfvfooZQ3Axs_4core4iter8adapters3map3MapINtNtNtB1H_3ops5range5RangejENCNvNtCs28qvqeRNIp0_12tokio_macros6select19declare_output_enum0EE0B2V_, symObjAddr: 0x608, symBinAddr: 0x1B0A4, symSize: 0x44 }
  - { offset: 0x52A41, size: 0x8, addend: 0x0, symName: __RNCINvMsi_NtCse1nGBsou5OW_5alloc3vecINtB8_3VecNtNtCs6IAuOt8vWmF_3syn4attr4MetaE14extend_trustedINtNtCsfvfooZQ3Axs_4core6option8IntoIterBI_EE0Cs28qvqeRNIp0_12tokio_macros, symObjAddr: 0x64C, symBinAddr: 0x1B0E8, symSize: 0x54 }
  - { offset: 0x52AFF, size: 0x8, addend: 0x0, symName: __RNCINvMsi_NtCse1nGBsou5OW_5alloc3vecINtB8_3VecNtNtCs6IAuOt8vWmF_3syn4attr4MetaE14extend_trustedINtNtNtNtCsfvfooZQ3Axs_4core4iter8adapters3map3MapINtNtB8_9into_iter8IntoIterTBI_NtNtBM_5token5CommaEENCNvXs8_NtBM_10punctuatedINtB3h_10PunctuatedBI_B2O_ENtNtNtB1C_6traits7collect12IntoIterator9into_iter0EE0Cs28qvqeRNIp0_12tokio_macros, symObjAddr: 0x6A0, symBinAddr: 0x1B13C, symSize: 0x54 }
  - { offset: 0x52DBA, size: 0x8, addend: 0x0, symName: __RNvXNtNtCse1nGBsou5OW_5alloc3vec14spec_from_iterINtB4_3VecNtCs3cP53eQoTwO_11proc_macro25IdentEINtB2_12SpecFromIterBU_INtNtNtNtCsfvfooZQ3Axs_4core4iter8adapters3map3MapINtNtNtB20_3ops5range5RangejENCNvNtCs28qvqeRNIp0_12tokio_macros6select19declare_output_enum0EE9from_iterB3e_, symObjAddr: 0x1AF8, symBinAddr: 0x1C594, symSize: 0x24 }
  - { offset: 0x52DFF, size: 0x8, addend: 0x0, symName: __RNvXs6_NtCse1nGBsou5OW_5alloc3vecINtB5_3VecNtCs3cP53eQoTwO_11proc_macro211TokenStreamENtNtNtCsfvfooZQ3Axs_4core3ops5deref5Deref5derefCs28qvqeRNIp0_12tokio_macros, symObjAddr: 0x1B54, symBinAddr: 0x1C5F0, symSize: 0x24 }
  - { offset: 0x52E3F, size: 0x8, addend: 0x0, symName: __RNvXs6_NtCse1nGBsou5OW_5alloc3vecINtB5_3VecNtCs3cP53eQoTwO_11proc_macro25IdentENtNtNtCsfvfooZQ3Axs_4core3ops5deref5Deref5derefCs28qvqeRNIp0_12tokio_macros, symObjAddr: 0x1B78, symBinAddr: 0x1C614, symSize: 0x24 }
  - { offset: 0x52E85, size: 0x8, addend: 0x0, symName: __RNvXs7_NtCse1nGBsou5OW_5alloc3vecINtB5_3VecTNtNtCs6IAuOt8vWmF_3syn3pat3PatNtNtBK_5token2OrEENtNtNtCsfvfooZQ3Axs_4core3ops5deref8DerefMut9deref_mutCs28qvqeRNIp0_12tokio_macros, symObjAddr: 0x1B9C, symBinAddr: 0x1C638, symSize: 0x24 }
  - { offset: 0x52EC5, size: 0x8, addend: 0x0, symName: __RNvXs7_NtCse1nGBsou5OW_5alloc3vecINtB5_3VecTNtNtCs6IAuOt8vWmF_3syn3pat3PatNtNtBK_5token5CommaEENtNtNtCsfvfooZQ3Axs_4core3ops5deref8DerefMut9deref_mutCs28qvqeRNIp0_12tokio_macros, symObjAddr: 0x1BC0, symBinAddr: 0x1C65C, symSize: 0x24 }
  - { offset: 0x52F05, size: 0x8, addend: 0x0, symName: __RNvXs7_NtCse1nGBsou5OW_5alloc3vecINtB5_3VecTNtNtCs6IAuOt8vWmF_3syn3pat8FieldPatNtNtBK_5token5CommaEENtNtNtCsfvfooZQ3Axs_4core3ops5deref8DerefMut9deref_mutCs28qvqeRNIp0_12tokio_macros, symObjAddr: 0x1BE4, symBinAddr: 0x1C680, symSize: 0x24 }
  - { offset: 0x52F50, size: 0x8, addend: 0x0, symName: __RNvXs_NtNtCse1nGBsou5OW_5alloc3vec11spec_extendINtB6_3VecNtCs3cP53eQoTwO_11proc_macro25IdentEINtB4_10SpecExtendBT_INtNtNtNtCsfvfooZQ3Axs_4core4iter8adapters3map3MapINtNtNtB1X_3ops5range5RangejENCNvNtCs28qvqeRNIp0_12tokio_macros6select19declare_output_enum0EE11spec_extendB3b_, symObjAddr: 0x21A0, symBinAddr: 0x1CC3C, symSize: 0x2C }
  - { offset: 0x52FA1, size: 0x8, addend: 0x0, symName: __RNvXs_NtNtCse1nGBsou5OW_5alloc3vec11spec_extendINtB6_3VecNtNtCs6IAuOt8vWmF_3syn4attr4MetaEINtB4_10SpecExtendBT_INtNtCsfvfooZQ3Axs_4core6option8IntoIterBT_EE11spec_extendCs28qvqeRNIp0_12tokio_macros, symObjAddr: 0x21CC, symBinAddr: 0x1CC68, symSize: 0x24 }
  - { offset: 0x52FF3, size: 0x8, addend: 0x0, symName: __RNvXs_NtNtCse1nGBsou5OW_5alloc3vec11spec_extendINtB6_3VecNtNtCs6IAuOt8vWmF_3syn4attr4MetaEINtB4_10SpecExtendBT_INtNtNtNtCsfvfooZQ3Axs_4core4iter8adapters3map3MapINtNtB6_9into_iter8IntoIterTBT_NtNtBX_5token5CommaEENCNvXs8_NtBX_10punctuatedINtB3x_10PunctuatedBT_B34_ENtNtNtB1S_6traits7collect12IntoIterator9into_iter0EE11spec_extendCs28qvqeRNIp0_12tokio_macros, symObjAddr: 0x21F0, symBinAddr: 0x1CC8C, symSize: 0x24 }
  - { offset: 0x53051, size: 0x8, addend: 0x0, symName: __RNvXs_NtNtCse1nGBsou5OW_5alloc3vec21spec_from_iter_nestedINtB6_3VecNtCs3cP53eQoTwO_11proc_macro25IdentEINtB4_18SpecFromIterNestedB13_INtNtNtNtCsfvfooZQ3Axs_4core4iter8adapters3map3MapINtNtNtB2g_3ops5range5RangejENCNvNtCs28qvqeRNIp0_12tokio_macros6select19declare_output_enum0EE9from_iterB3u_, symObjAddr: 0x2214, symBinAddr: 0x1CCB0, symSize: 0x168 }
  - { offset: 0x5312E, size: 0x8, addend: 0x0, symName: __RNvXse_NtCse1nGBsou5OW_5alloc3vecINtB5_3VecNtNtCs6IAuOt8vWmF_3syn4attr4MetaENtNtNtNtCsfvfooZQ3Axs_4core4iter6traits7collect12IntoIterator9into_iterCs28qvqeRNIp0_12tokio_macros, symObjAddr: 0x2418, symBinAddr: 0x1CEB4, symSize: 0xE4 }
  - { offset: 0x533C0, size: 0x8, addend: 0x0, symName: __RNvXse_NtCse1nGBsou5OW_5alloc3vecINtB5_3VecTNtNtCs6IAuOt8vWmF_3syn4attr4MetaNtNtBK_5token5CommaEENtNtNtNtCsfvfooZQ3Axs_4core4iter6traits7collect12IntoIterator9into_iterCs28qvqeRNIp0_12tokio_macros, symObjAddr: 0x24FC, symBinAddr: 0x1CF98, symSize: 0xE4 }
  - { offset: 0x53658, size: 0x8, addend: 0x0, symName: __RNvXsn_NtCse1nGBsou5OW_5alloc3vecINtB5_3VecNtCs3cP53eQoTwO_11proc_macro211TokenStreamENtNtNtCsfvfooZQ3Axs_4core3ops4drop4Drop4dropCs28qvqeRNIp0_12tokio_macros, symObjAddr: 0x2954, symBinAddr: 0x1D3F0, symSize: 0x38 }
  - { offset: 0x53708, size: 0x8, addend: 0x0, symName: __RNvXsn_NtCse1nGBsou5OW_5alloc3vecINtB5_3VecNtCs3cP53eQoTwO_11proc_macro25IdentENtNtNtCsfvfooZQ3Axs_4core3ops4drop4Drop4dropCs28qvqeRNIp0_12tokio_macros, symObjAddr: 0x298C, symBinAddr: 0x1D428, symSize: 0x38 }
  - { offset: 0x537B8, size: 0x8, addend: 0x0, symName: __RNvXsn_NtCse1nGBsou5OW_5alloc3vecINtB5_3VecNtNtCs6IAuOt8vWmF_3syn4attr4MetaENtNtNtCsfvfooZQ3Axs_4core3ops4drop4Drop4dropCs28qvqeRNIp0_12tokio_macros, symObjAddr: 0x29C4, symBinAddr: 0x1D460, symSize: 0x38 }
  - { offset: 0x53868, size: 0x8, addend: 0x0, symName: __RNvXsn_NtCse1nGBsou5OW_5alloc3vecINtB5_3VecTNtNtCs6IAuOt8vWmF_3syn4attr4MetaNtNtBK_5token5CommaEENtNtNtCsfvfooZQ3Axs_4core3ops4drop4Drop4dropCs28qvqeRNIp0_12tokio_macros, symObjAddr: 0x29FC, symBinAddr: 0x1D498, symSize: 0x38 }
  - { offset: 0x588BB, size: 0x8, addend: 0x0, symName: __RINvYINtNtCs6IAuOt8vWmF_3syn10punctuated4IterNtNtB8_4path11PathSegmentENtNtNtNtCsfvfooZQ3Axs_4core4iter6traits8iterator8Iterator3zipARej4_ECs28qvqeRNIp0_12tokio_macros, symObjAddr: 0x568, symBinAddr: 0x1B004, symSize: 0xA0 }
  - { offset: 0x58931, size: 0x8, addend: 0x0, symName: __RNvYINtNtCs6IAuOt8vWmF_3syn10punctuated14PrivateIterMutNtNtB7_3pat3PatNtNtB7_5token2OrENtNtNtNtCsfvfooZQ3Axs_4core4iter6traits8iterator8Iterator10advance_byCs28qvqeRNIp0_12tokio_macros, symObjAddr: 0x2BFC, symBinAddr: 0x1D698, symSize: 0x134 }
  - { offset: 0x58A87, size: 0x8, addend: 0x0, symName: __RNvYINtNtCs6IAuOt8vWmF_3syn10punctuated14PrivateIterMutNtNtB7_3pat3PatNtNtB7_5token2OrENtNtNtNtCsfvfooZQ3Axs_4core4iter6traits8iterator8Iterator3nthCs28qvqeRNIp0_12tokio_macros, symObjAddr: 0x2D30, symBinAddr: 0x1D7CC, symSize: 0x80 }
  - { offset: 0x58B53, size: 0x8, addend: 0x0, symName: __RNvYINtNtCs6IAuOt8vWmF_3syn10punctuated14PrivateIterMutNtNtB7_3pat3PatNtNtB7_5token2OrENtNtNtNtCsfvfooZQ3Axs_4core4iter6traits8iterator8Iterator9size_hintCs28qvqeRNIp0_12tokio_macros, symObjAddr: 0x2DB0, symBinAddr: 0x1D84C, symSize: 0x34 }
  - { offset: 0x58B88, size: 0x8, addend: 0x0, symName: __RNvYINtNtCs6IAuOt8vWmF_3syn10punctuated14PrivateIterMutNtNtB7_3pat3PatNtNtB7_5token5CommaENtNtNtNtCsfvfooZQ3Axs_4core4iter6traits8iterator8Iterator10advance_byCs28qvqeRNIp0_12tokio_macros, symObjAddr: 0x2FAC, symBinAddr: 0x1DA48, symSize: 0x134 }
  - { offset: 0x58CDE, size: 0x8, addend: 0x0, symName: __RNvYINtNtCs6IAuOt8vWmF_3syn10punctuated14PrivateIterMutNtNtB7_3pat3PatNtNtB7_5token5CommaENtNtNtNtCsfvfooZQ3Axs_4core4iter6traits8iterator8Iterator3nthCs28qvqeRNIp0_12tokio_macros, symObjAddr: 0x30E0, symBinAddr: 0x1DB7C, symSize: 0x80 }
  - { offset: 0x58DAA, size: 0x8, addend: 0x0, symName: __RNvYINtNtCs6IAuOt8vWmF_3syn10punctuated14PrivateIterMutNtNtB7_3pat3PatNtNtB7_5token5CommaENtNtNtNtCsfvfooZQ3Axs_4core4iter6traits8iterator8Iterator9size_hintCs28qvqeRNIp0_12tokio_macros, symObjAddr: 0x3160, symBinAddr: 0x1DBFC, symSize: 0x34 }
  - { offset: 0x58DDF, size: 0x8, addend: 0x0, symName: __RNvYINtNtCs6IAuOt8vWmF_3syn10punctuated14PrivateIterMutNtNtB7_3pat8FieldPatNtNtB7_5token5CommaENtNtNtNtCsfvfooZQ3Axs_4core4iter6traits8iterator8Iterator10advance_byCs28qvqeRNIp0_12tokio_macros, symObjAddr: 0x335C, symBinAddr: 0x1DDF8, symSize: 0x134 }
  - { offset: 0x58F35, size: 0x8, addend: 0x0, symName: __RNvYINtNtCs6IAuOt8vWmF_3syn10punctuated14PrivateIterMutNtNtB7_3pat8FieldPatNtNtB7_5token5CommaENtNtNtNtCsfvfooZQ3Axs_4core4iter6traits8iterator8Iterator3nthCs28qvqeRNIp0_12tokio_macros, symObjAddr: 0x3490, symBinAddr: 0x1DF2C, symSize: 0x80 }
  - { offset: 0x59001, size: 0x8, addend: 0x0, symName: __RNvYINtNtCs6IAuOt8vWmF_3syn10punctuated14PrivateIterMutNtNtB7_3pat8FieldPatNtNtB7_5token5CommaENtNtNtNtCsfvfooZQ3Axs_4core4iter6traits8iterator8Iterator9size_hintCs28qvqeRNIp0_12tokio_macros, symObjAddr: 0x3510, symBinAddr: 0x1DFAC, symSize: 0x34 }
  - { offset: 0x59042, size: 0x8, addend: 0x0, symName: __RNvYINtNtCs6IAuOt8vWmF_3syn10punctuated14PrivateIterMutNtNtB7_3pat3PatNtNtB7_5token2OrENtNtNtNtCsfvfooZQ3Axs_4core4iter6traits10exact_size17ExactSizeIterator8is_emptyCs28qvqeRNIp0_12tokio_macros, symObjAddr: 0x2A34, symBinAddr: 0x1D4D0, symSize: 0x2C }
  - { offset: 0x59077, size: 0x8, addend: 0x0, symName: __RNvYINtNtCs6IAuOt8vWmF_3syn10punctuated14PrivateIterMutNtNtB7_3pat3PatNtNtB7_5token5CommaENtNtNtNtCsfvfooZQ3Axs_4core4iter6traits10exact_size17ExactSizeIterator8is_emptyCs28qvqeRNIp0_12tokio_macros, symObjAddr: 0x2DE4, symBinAddr: 0x1D880, symSize: 0x2C }
  - { offset: 0x590AC, size: 0x8, addend: 0x0, symName: __RNvYINtNtCs6IAuOt8vWmF_3syn10punctuated14PrivateIterMutNtNtB7_3pat8FieldPatNtNtB7_5token5CommaENtNtNtNtCsfvfooZQ3Axs_4core4iter6traits10exact_size17ExactSizeIterator8is_emptyCs28qvqeRNIp0_12tokio_macros, symObjAddr: 0x3194, symBinAddr: 0x1DC30, symSize: 0x2C }
  - { offset: 0x590ED, size: 0x8, addend: 0x0, symName: __RNvYINtNtCs6IAuOt8vWmF_3syn10punctuated14PrivateIterMutNtNtB7_3pat3PatNtNtB7_5token2OrENtNtNtNtCsfvfooZQ3Axs_4core4iter6traits12double_ended19DoubleEndedIterator15advance_back_byCs28qvqeRNIp0_12tokio_macros, symObjAddr: 0x2A60, symBinAddr: 0x1D4FC, symSize: 0x134 }
  - { offset: 0x5923B, size: 0x8, addend: 0x0, symName: __RNvYINtNtCs6IAuOt8vWmF_3syn10punctuated14PrivateIterMutNtNtB7_3pat3PatNtNtB7_5token2OrENtNtNtNtCsfvfooZQ3Axs_4core4iter6traits12double_ended19DoubleEndedIterator8nth_backCs28qvqeRNIp0_12tokio_macros, symObjAddr: 0x2B94, symBinAddr: 0x1D630, symSize: 0x68 }
  - { offset: 0x592B9, size: 0x8, addend: 0x0, symName: __RNvYINtNtCs6IAuOt8vWmF_3syn10punctuated14PrivateIterMutNtNtB7_3pat3PatNtNtB7_5token5CommaENtNtNtNtCsfvfooZQ3Axs_4core4iter6traits12double_ended19DoubleEndedIterator15advance_back_byCs28qvqeRNIp0_12tokio_macros, symObjAddr: 0x2E10, symBinAddr: 0x1D8AC, symSize: 0x134 }
  - { offset: 0x59407, size: 0x8, addend: 0x0, symName: __RNvYINtNtCs6IAuOt8vWmF_3syn10punctuated14PrivateIterMutNtNtB7_3pat3PatNtNtB7_5token5CommaENtNtNtNtCsfvfooZQ3Axs_4core4iter6traits12double_ended19DoubleEndedIterator8nth_backCs28qvqeRNIp0_12tokio_macros, symObjAddr: 0x2F44, symBinAddr: 0x1D9E0, symSize: 0x68 }
  - { offset: 0x59485, size: 0x8, addend: 0x0, symName: __RNvYINtNtCs6IAuOt8vWmF_3syn10punctuated14PrivateIterMutNtNtB7_3pat8FieldPatNtNtB7_5token5CommaENtNtNtNtCsfvfooZQ3Axs_4core4iter6traits12double_ended19DoubleEndedIterator15advance_back_byCs28qvqeRNIp0_12tokio_macros, symObjAddr: 0x31C0, symBinAddr: 0x1DC5C, symSize: 0x134 }
  - { offset: 0x595D3, size: 0x8, addend: 0x0, symName: __RNvYINtNtCs6IAuOt8vWmF_3syn10punctuated14PrivateIterMutNtNtB7_3pat8FieldPatNtNtB7_5token5CommaENtNtNtNtCsfvfooZQ3Axs_4core4iter6traits12double_ended19DoubleEndedIterator8nth_backCs28qvqeRNIp0_12tokio_macros, symObjAddr: 0x32F4, symBinAddr: 0x1DD90, symSize: 0x68 }
  - { offset: 0x5A5E4, size: 0x8, addend: 0x0, symName: __RINvMsi_NtCse1nGBsou5OW_5alloc3vecINtB6_3VecNtCs3cP53eQoTwO_11proc_macro25IdentE14extend_trustedINtNtNtNtCsfvfooZQ3Axs_4core4iter8adapters3map3MapINtNtNtB1F_3ops5range5RangejENCNvNtCs28qvqeRNIp0_12tokio_macros6select19declare_output_enum0EEB2T_, symObjAddr: 0x0, symBinAddr: 0x1AA9C, symSize: 0x170 }
  - { offset: 0x5A8B5, size: 0x8, addend: 0x0, symName: __RINvMsi_NtCse1nGBsou5OW_5alloc3vecINtB6_3VecNtNtCs6IAuOt8vWmF_3syn4attr4MetaE14extend_trustedINtNtCsfvfooZQ3Axs_4core6option8IntoIterBG_EECs28qvqeRNIp0_12tokio_macros, symObjAddr: 0x170, symBinAddr: 0x1AC0C, symSize: 0x1A0 }
  - { offset: 0x5AB7F, size: 0x8, addend: 0x0, symName: __RINvMsi_NtCse1nGBsou5OW_5alloc3vecINtB6_3VecNtNtCs6IAuOt8vWmF_3syn4attr4MetaE14extend_trustedINtNtNtNtCsfvfooZQ3Axs_4core4iter8adapters3map3MapINtNtB6_9into_iter8IntoIterTBG_NtNtBK_5token5CommaEENCNvXs8_NtBK_10punctuatedINtB3f_10PunctuatedBG_B2M_ENtNtNtB1A_6traits7collect12IntoIterator9into_iter0EECs28qvqeRNIp0_12tokio_macros, symObjAddr: 0x310, symBinAddr: 0x1ADAC, symSize: 0x188 }
  - { offset: 0x5AE7B, size: 0x8, addend: 0x0, symName: __RNvMNtCs6IAuOt8vWmF_3syn10punctuatedINtB2_10PunctuatedNtNtB4_3pat3PatNtNtB4_5token2OrE8iter_mutCs28qvqeRNIp0_12tokio_macros, symObjAddr: 0x9EC, symBinAddr: 0x1B488, symSize: 0xC8 }
  - { offset: 0x5AEE6, size: 0x8, addend: 0x0, symName: __RNvMNtCs6IAuOt8vWmF_3syn10punctuatedINtB2_10PunctuatedNtNtB4_3pat3PatNtNtB4_5token5CommaE8iter_mutCs28qvqeRNIp0_12tokio_macros, symObjAddr: 0xAB4, symBinAddr: 0x1B550, symSize: 0xC8 }
  - { offset: 0x5AF7F, size: 0x8, addend: 0x0, symName: __RNvMNtCs6IAuOt8vWmF_3syn10punctuatedINtB2_10PunctuatedNtNtB4_3pat8FieldPatNtNtB4_5token5CommaE8iter_mutCs28qvqeRNIp0_12tokio_macros, symObjAddr: 0xB7C, symBinAddr: 0x1B618, symSize: 0xC8 }
  - { offset: 0x5B015, size: 0x8, addend: 0x0, symName: __RNvMNtCs6IAuOt8vWmF_3syn10punctuatedINtB2_10PunctuatedNtNtB4_4attr4MetaNtNtB4_5token5CommaE10push_punctCs28qvqeRNIp0_12tokio_macros, symObjAddr: 0xC44, symBinAddr: 0x1B6E0, symSize: 0x200 }
  - { offset: 0x5B093, size: 0x8, addend: 0x0, symName: __RNvMNtCs6IAuOt8vWmF_3syn10punctuatedINtB2_10PunctuatedNtNtB4_4attr4MetaNtNtB4_5token5CommaE10push_valueCs28qvqeRNIp0_12tokio_macros, symObjAddr: 0xE44, symBinAddr: 0x1B8E0, symSize: 0x1B4 }
  - { offset: 0x5B150, size: 0x8, addend: 0x0, symName: __RNvMNtCs6IAuOt8vWmF_3syn10punctuatedINtB2_10PunctuatedNtNtB4_4attr4MetaNtNtB4_5token5CommaE16parse_terminatedCs28qvqeRNIp0_12tokio_macros, symObjAddr: 0xFF8, symBinAddr: 0x1BA94, symSize: 0x3C }
  - { offset: 0x5B192, size: 0x8, addend: 0x0, symName: __RNvMNtCs6IAuOt8vWmF_3syn10punctuatedINtB2_10PunctuatedNtNtB4_4attr4MetaNtNtB4_5token5CommaE17empty_or_trailingCs28qvqeRNIp0_12tokio_macros, symObjAddr: 0x1034, symBinAddr: 0x1BAD0, symSize: 0x34 }
  - { offset: 0x5B1DE, size: 0x8, addend: 0x0, symName: __RNvMNtCs6IAuOt8vWmF_3syn10punctuatedINtB2_10PunctuatedNtNtB4_4attr4MetaNtNtB4_5token5CommaE21parse_terminated_withCs28qvqeRNIp0_12tokio_macros, symObjAddr: 0x1068, symBinAddr: 0x1BB04, symSize: 0x370 }
  - { offset: 0x5B2E3, size: 0x8, addend: 0x0, symName: __RNvMNtCs6IAuOt8vWmF_3syn10punctuatedINtB2_10PunctuatedNtNtB4_4attr4MetaNtNtB4_5token5CommaE3lenCs28qvqeRNIp0_12tokio_macros, symObjAddr: 0x13D8, symBinAddr: 0x1BE74, symSize: 0xA0 }
  - { offset: 0x5B317, size: 0x8, addend: 0x0, symName: __RNvMNtCs6IAuOt8vWmF_3syn10punctuatedINtB2_10PunctuatedNtNtB4_4attr4MetaNtNtB4_5token5CommaE3newCs28qvqeRNIp0_12tokio_macros, symObjAddr: 0x1478, symBinAddr: 0x1BF14, symSize: 0x54 }
  - { offset: 0x5B33D, size: 0x8, addend: 0x0, symName: __RNvMNtCse1nGBsou5OW_5alloc3vecINtB2_3VecNtCs3cP53eQoTwO_11proc_macro211TokenStreamE3newCs28qvqeRNIp0_12tokio_macros, symObjAddr: 0x14CC, symBinAddr: 0x1BF68, symSize: 0x14 }
  - { offset: 0x5B3BC, size: 0x8, addend: 0x0, symName: __RNvMNtCse1nGBsou5OW_5alloc3vecINtB2_3VecNtNtCs6IAuOt8vWmF_3syn4attr4MetaE13with_capacityCs28qvqeRNIp0_12tokio_macros, symObjAddr: 0x14E0, symBinAddr: 0x1BF7C, symSize: 0x48 }
  - { offset: 0x5B434, size: 0x8, addend: 0x0, symName: __RNvMNtCse1nGBsou5OW_5alloc3vecINtB2_3VecTNtNtCs6IAuOt8vWmF_3syn4attr4MetaNtNtBH_5token5CommaEE3newCs28qvqeRNIp0_12tokio_macros, symObjAddr: 0x1528, symBinAddr: 0x1BFC4, symSize: 0x14 }
  - { offset: 0x5B564, size: 0x8, addend: 0x0, symName: __RNvMs_NtCse1nGBsou5OW_5alloc3vecINtB4_3VecNtCs3cP53eQoTwO_11proc_macro211TokenStreamE4pushCs28qvqeRNIp0_12tokio_macros, symObjAddr: 0x153C, symBinAddr: 0x1BFD8, symSize: 0x100 }
  - { offset: 0x5B7BC, size: 0x8, addend: 0x0, symName: __RNvMs_NtCse1nGBsou5OW_5alloc3vecINtB4_3VecNtCs3cP53eQoTwO_11proc_macro211TokenStreamE8as_sliceCs28qvqeRNIp0_12tokio_macros, symObjAddr: 0x163C, symBinAddr: 0x1C0D8, symSize: 0x64 }
  - { offset: 0x5B9A6, size: 0x8, addend: 0x0, symName: __RNvMs_NtCse1nGBsou5OW_5alloc3vecINtB4_3VecNtCs3cP53eQoTwO_11proc_macro25IdentE7reserveCs28qvqeRNIp0_12tokio_macros, symObjAddr: 0x16A0, symBinAddr: 0x1C13C, symSize: 0xC8 }
  - { offset: 0x5BBB1, size: 0x8, addend: 0x0, symName: __RNvMs_NtCse1nGBsou5OW_5alloc3vecINtB4_3VecNtCs3cP53eQoTwO_11proc_macro25IdentE8as_sliceCs28qvqeRNIp0_12tokio_macros, symObjAddr: 0x1768, symBinAddr: 0x1C204, symSize: 0x64 }
  - { offset: 0x5BD81, size: 0x8, addend: 0x0, symName: __RNvMs_NtCse1nGBsou5OW_5alloc3vecINtB4_3VecNtNtCs6IAuOt8vWmF_3syn4attr4MetaE7reserveCs28qvqeRNIp0_12tokio_macros, symObjAddr: 0x17CC, symBinAddr: 0x1C268, symSize: 0xC8 }
  - { offset: 0x5BFA9, size: 0x8, addend: 0x0, symName: __RNvMs_NtCse1nGBsou5OW_5alloc3vecINtB4_3VecTNtNtCs6IAuOt8vWmF_3syn3pat3PatNtNtBJ_5token2OrEE12as_mut_sliceCs28qvqeRNIp0_12tokio_macros, symObjAddr: 0x1894, symBinAddr: 0x1C330, symSize: 0x64 }
  - { offset: 0x5C139, size: 0x8, addend: 0x0, symName: __RNvMs_NtCse1nGBsou5OW_5alloc3vecINtB4_3VecTNtNtCs6IAuOt8vWmF_3syn3pat3PatNtNtBJ_5token5CommaEE12as_mut_sliceCs28qvqeRNIp0_12tokio_macros, symObjAddr: 0x18F8, symBinAddr: 0x1C394, symSize: 0x64 }
  - { offset: 0x5C2C9, size: 0x8, addend: 0x0, symName: __RNvMs_NtCse1nGBsou5OW_5alloc3vecINtB4_3VecTNtNtCs6IAuOt8vWmF_3syn3pat8FieldPatNtNtBJ_5token5CommaEE12as_mut_sliceCs28qvqeRNIp0_12tokio_macros, symObjAddr: 0x195C, symBinAddr: 0x1C3F8, symSize: 0x64 }
  - { offset: 0x5C3A5, size: 0x8, addend: 0x0, symName: __RNvMs_NtCse1nGBsou5OW_5alloc3vecINtB4_3VecTNtNtCs6IAuOt8vWmF_3syn4attr4MetaNtNtBJ_5token5CommaEE3lenCs28qvqeRNIp0_12tokio_macros, symObjAddr: 0x19C0, symBinAddr: 0x1C45C, symSize: 0x18 }
  - { offset: 0x5C4E0, size: 0x8, addend: 0x0, symName: __RNvMs_NtCse1nGBsou5OW_5alloc3vecINtB4_3VecTNtNtCs6IAuOt8vWmF_3syn4attr4MetaNtNtBJ_5token5CommaEE4pushCs28qvqeRNIp0_12tokio_macros, symObjAddr: 0x19D8, symBinAddr: 0x1C474, symSize: 0x120 }
  - { offset: 0x5C6AB, size: 0x8, addend: 0x0, symName: __RNvXs4_NtNtCs2cqEZUIJimJ_5quote9___private3extINtNtCse1nGBsou5OW_5alloc3vec3VecNtCs3cP53eQoTwO_11proc_macro25IdentENtB5_16RepAsIteratorExt15quote_into_iterCs28qvqeRNIp0_12tokio_macros, symObjAddr: 0x1B1C, symBinAddr: 0x1C5B8, symSize: 0x38 }
  - { offset: 0x5D20C, size: 0x8, addend: 0x0, symName: __RINvXNtNtCse1nGBsou5OW_5alloc5slice4hackNtNtCs6IAuOt8vWmF_3syn4item11ForeignItemNtB3_10ConvertVec6to_vecNtNtB7_5alloc6GlobalEBG_, symObjAddr: 0x0, symBinAddr: 0x1DFF4, symSize: 0x36C }
  - { offset: 0x5E783, size: 0x8, addend: 0x0, symName: __RNvXNtNtCs6IAuOt8vWmF_3syn4item7parsingNtB4_4ItemNtNtB6_5parse5Parse5parse, symObjAddr: 0x34B4, symBinAddr: 0x1F9FC, symSize: 0x1B4 }
  - { offset: 0x5E829, size: 0x8, addend: 0x0, symName: __RNvXs0_NtNtCs6IAuOt8vWmF_3syn4item7parsingNtB7_9ItemMacroNtNtB9_5parse5Parse5parse, symObjAddr: 0x3668, symBinAddr: 0x1FBB0, symSize: 0x620 }
  - { offset: 0x5E9F7, size: 0x8, addend: 0x0, symName: __RNvXs1_NtNtCs6IAuOt8vWmF_3syn4item7parsingNtB7_15ItemExternCrateNtNtB9_5parse5Parse5parse, symObjAddr: 0x3C88, symBinAddr: 0x201D0, symSize: 0x93C }
  - { offset: 0x5EC01, size: 0x8, addend: 0x0, symName: __RNvXs3_NtNtCs6IAuOt8vWmF_3syn4item7parsingNtB7_7UseTreeNtNtB9_5parse5Parse5parse, symObjAddr: 0x461C, symBinAddr: 0x20B0C, symSize: 0x58 }
  - { offset: 0x5EC53, size: 0x8, addend: 0x0, symName: __RNvXs6_NtNtCs6IAuOt8vWmF_3syn4item7parsingNtB7_9SignatureNtNtB9_5parse5Parse5parse, symObjAddr: 0x5B9C, symBinAddr: 0x20B64, symSize: 0x60 }
  - { offset: 0x5ECA5, size: 0x8, addend: 0x0, symName: __RNvXs9_NtNtCs6IAuOt8vWmF_3syn4item7parsingNtB7_8ReceiverNtNtB9_5parse5Parse5parse, symObjAddr: 0x622C, symBinAddr: 0x20BC4, symSize: 0x95C }
  - { offset: 0x5EEFE, size: 0x8, addend: 0x0, symName: __RNvXsa_NtNtCs6IAuOt8vWmF_3syn4item7parsingNtB7_7ItemModNtNtB9_5parse5Parse5parse, symObjAddr: 0x6B88, symBinAddr: 0x21520, symSize: 0xC34 }
  - { offset: 0x5F161, size: 0x8, addend: 0x0, symName: __RNvXsb_NtNtCs6IAuOt8vWmF_3syn4item7parsingNtB7_14ItemForeignModNtNtB9_5parse5Parse5parse, symObjAddr: 0x77BC, symBinAddr: 0x22154, symSize: 0x610 }
  - { offset: 0x5F312, size: 0x8, addend: 0x0, symName: __RNvXsc_NtNtCs6IAuOt8vWmF_3syn4item7parsingNtB7_11ForeignItemNtNtB9_5parse5Parse5parse, symObjAddr: 0x7DCC, symBinAddr: 0x22764, symSize: 0x1D80 }
  - { offset: 0x5F982, size: 0x8, addend: 0x0, symName: __RNvXsg_NtNtCs6IAuOt8vWmF_3syn4item7parsingNtB7_16ForeignItemMacroNtNtB9_5parse5Parse5parse, symObjAddr: 0xAE74, symBinAddr: 0x244E4, symSize: 0x32C }
  - { offset: 0x5FA96, size: 0x8, addend: 0x0, symName: __RNvXsi_NtNtCs6IAuOt8vWmF_3syn4item7parsingNtB7_10ItemStructNtNtB9_5parse5Parse5parse, symObjAddr: 0xBB78, symBinAddr: 0x24810, symSize: 0x638 }
  - { offset: 0x5FC93, size: 0x8, addend: 0x0, symName: __RNvXsj_NtNtCs6IAuOt8vWmF_3syn4item7parsingNtB7_8ItemEnumNtNtB9_5parse5Parse5parse, symObjAddr: 0xC1B0, symBinAddr: 0x24E48, symSize: 0x63C }
  - { offset: 0x5FE90, size: 0x8, addend: 0x0, symName: __RNvXsk_NtNtCs6IAuOt8vWmF_3syn4item7parsingNtB7_9ItemUnionNtNtB9_5parse5Parse5parse, symObjAddr: 0xC7EC, symBinAddr: 0x25484, symSize: 0x62C }
  - { offset: 0x6007C, size: 0x8, addend: 0x0, symName: __RNvXsl_NtNtCs6IAuOt8vWmF_3syn4item7parsingNtB7_9ItemTraitNtNtB9_5parse5Parse5parse, symObjAddr: 0xCE18, symBinAddr: 0x25AB0, symSize: 0x634 }
  - { offset: 0x60283, size: 0x8, addend: 0x0, symName: __RNvXsn_NtNtCs6IAuOt8vWmF_3syn4item7parsingNtB7_9TraitItemNtNtB9_5parse5Parse5parse, symObjAddr: 0xD6BC, symBinAddr: 0x260E4, symSize: 0x1654 }
  - { offset: 0x606F8, size: 0x8, addend: 0x0, symName: __RNvXsp_NtNtCs6IAuOt8vWmF_3syn4item7parsingNtB7_11TraitItemFnNtNtB9_5parse5Parse5parse, symObjAddr: 0xF584, symBinAddr: 0x27738, symSize: 0x7DC }
  - { offset: 0x608FC, size: 0x8, addend: 0x0, symName: __RNvXsr_NtNtCs6IAuOt8vWmF_3syn4item7parsingNtB7_14TraitItemMacroNtNtB9_5parse5Parse5parse, symObjAddr: 0x10484, symBinAddr: 0x27F14, symSize: 0x32C }
  - { offset: 0x60A10, size: 0x8, addend: 0x0, symName: __RNvXst_NtNtCs6IAuOt8vWmF_3syn4item7parsingNtB7_8ImplItemNtNtB9_5parse5Parse5parse, symObjAddr: 0x10810, symBinAddr: 0x28240, symSize: 0x1A78 }
  - { offset: 0x60F32, size: 0x8, addend: 0x0, symName: __RNvXsx_NtNtCs6IAuOt8vWmF_3syn4item7parsingNtB7_13ImplItemMacroNtNtB9_5parse5Parse5parse, symObjAddr: 0x134F8, symBinAddr: 0x29CB8, symSize: 0x32C }
  - { offset: 0x61046, size: 0x8, addend: 0x0, symName: __RNvXsz_NtNtCs6IAuOt8vWmF_3syn4item7parsingNtB7_16StaticMutabilityNtNtB9_5parse5Parse5parse, symObjAddr: 0x13824, symBinAddr: 0x29FE4, symSize: 0xDC }
  - { offset: 0x610BC, size: 0x8, addend: 0x0, symName: __RNvXNtNtCs6IAuOt8vWmF_3syn4item8printingNtB4_15ItemExternCrateNtNtCs2cqEZUIJimJ_5quote9to_tokens8ToTokens9to_tokens, symObjAddr: 0x13900, symBinAddr: 0x2A0C0, symSize: 0x110 }
  - { offset: 0x61129, size: 0x8, addend: 0x0, symName: __RNvXs_NtNtCs6IAuOt8vWmF_3syn4item8printingNtB6_7ItemUseNtNtCs2cqEZUIJimJ_5quote9to_tokens8ToTokens9to_tokens, symObjAddr: 0x13A10, symBinAddr: 0x2A1D0, symSize: 0xA4 }
  - { offset: 0x61168, size: 0x8, addend: 0x0, symName: __RNvXs0_NtNtCs6IAuOt8vWmF_3syn4item8printingNtB7_10ItemStaticNtNtCs2cqEZUIJimJ_5quote9to_tokens8ToTokens9to_tokens, symObjAddr: 0x13AB4, symBinAddr: 0x2A274, symSize: 0xE4 }
  - { offset: 0x611A7, size: 0x8, addend: 0x0, symName: __RNvXs1_NtNtCs6IAuOt8vWmF_3syn4item8printingNtB7_9ItemConstNtNtCs2cqEZUIJimJ_5quote9to_tokens8ToTokens9to_tokens, symObjAddr: 0x13B98, symBinAddr: 0x2A358, symSize: 0xD4 }
  - { offset: 0x611E6, size: 0x8, addend: 0x0, symName: __RNvXs2_NtNtCs6IAuOt8vWmF_3syn4item8printingNtB7_6ItemFnNtNtCs2cqEZUIJimJ_5quote9to_tokens8ToTokens9to_tokens, symObjAddr: 0x13C6C, symBinAddr: 0x2A42C, symSize: 0xB4 }
  - { offset: 0x61225, size: 0x8, addend: 0x0, symName: __RNvXs3_NtNtCs6IAuOt8vWmF_3syn4item8printingNtB7_7ItemModNtNtCs2cqEZUIJimJ_5quote9to_tokens8ToTokens9to_tokens, symObjAddr: 0x13D20, symBinAddr: 0x2A4E0, symSize: 0x110 }
  - { offset: 0x61292, size: 0x8, addend: 0x0, symName: __RNvXs4_NtNtCs6IAuOt8vWmF_3syn4item8printingNtB7_14ItemForeignModNtNtCs2cqEZUIJimJ_5quote9to_tokens8ToTokens9to_tokens, symObjAddr: 0x13E30, symBinAddr: 0x2A5F0, symSize: 0x88 }
  - { offset: 0x612D1, size: 0x8, addend: 0x0, symName: __RNvXs5_NtNtCs6IAuOt8vWmF_3syn4item8printingNtB7_8ItemTypeNtNtCs2cqEZUIJimJ_5quote9to_tokens8ToTokens9to_tokens, symObjAddr: 0x13EB8, symBinAddr: 0x2A678, symSize: 0xD4 }
  - { offset: 0x61310, size: 0x8, addend: 0x0, symName: __RNvXs6_NtNtCs6IAuOt8vWmF_3syn4item8printingNtB7_8ItemEnumNtNtCs2cqEZUIJimJ_5quote9to_tokens8ToTokens9to_tokens, symObjAddr: 0x13F8C, symBinAddr: 0x2A74C, symSize: 0xB8 }
  - { offset: 0x6134F, size: 0x8, addend: 0x0, symName: __RNvXs7_NtNtCs6IAuOt8vWmF_3syn4item8printingNtB7_10ItemStructNtNtCs2cqEZUIJimJ_5quote9to_tokens8ToTokens9to_tokens, symObjAddr: 0x14044, symBinAddr: 0x2A804, symSize: 0x188 }
  - { offset: 0x613CA, size: 0x8, addend: 0x0, symName: __RNvXs8_NtNtCs6IAuOt8vWmF_3syn4item8printingNtB7_9ItemUnionNtNtCs2cqEZUIJimJ_5quote9to_tokens8ToTokens9to_tokens, symObjAddr: 0x141CC, symBinAddr: 0x2A98C, symSize: 0xB4 }
  - { offset: 0x61409, size: 0x8, addend: 0x0, symName: __RNvXs9_NtNtCs6IAuOt8vWmF_3syn4item8printingNtB7_9ItemTraitNtNtCs2cqEZUIJimJ_5quote9to_tokens8ToTokens9to_tokens, symObjAddr: 0x14280, symBinAddr: 0x2AA40, symSize: 0x130 }
  - { offset: 0x61448, size: 0x8, addend: 0x0, symName: __RNvXsa_NtNtCs6IAuOt8vWmF_3syn4item8printingNtB7_14ItemTraitAliasNtNtCs2cqEZUIJimJ_5quote9to_tokens8ToTokens9to_tokens, symObjAddr: 0x143B0, symBinAddr: 0x2AB70, symSize: 0xD4 }
  - { offset: 0x61487, size: 0x8, addend: 0x0, symName: __RNvXsb_NtNtCs6IAuOt8vWmF_3syn4item8printingNtB7_8ItemImplNtNtCs2cqEZUIJimJ_5quote9to_tokens8ToTokens9to_tokens, symObjAddr: 0x14484, symBinAddr: 0x2AC44, symSize: 0x14C }
  - { offset: 0x61504, size: 0x8, addend: 0x0, symName: __RNvXsc_NtNtCs6IAuOt8vWmF_3syn4item8printingNtB7_9ItemMacroNtNtCs2cqEZUIJimJ_5quote9to_tokens8ToTokens9to_tokens, symObjAddr: 0x145D0, symBinAddr: 0x2AD90, symSize: 0x148 }
  - { offset: 0x61595, size: 0x8, addend: 0x0, symName: __RNvXsd_NtNtCs6IAuOt8vWmF_3syn4item8printingNtB7_7UsePathNtNtCs2cqEZUIJimJ_5quote9to_tokens8ToTokens9to_tokens, symObjAddr: 0x14718, symBinAddr: 0x2AED8, symSize: 0x60 }
  - { offset: 0x615D4, size: 0x8, addend: 0x0, symName: __RNvXse_NtNtCs6IAuOt8vWmF_3syn4item8printingNtB7_7UseNameNtNtCs2cqEZUIJimJ_5quote9to_tokens8ToTokens9to_tokens, symObjAddr: 0x14778, symBinAddr: 0x2AF38, symSize: 0x3C }
  - { offset: 0x61613, size: 0x8, addend: 0x0, symName: __RNvXsf_NtNtCs6IAuOt8vWmF_3syn4item8printingNtB7_9UseRenameNtNtCs2cqEZUIJimJ_5quote9to_tokens8ToTokens9to_tokens, symObjAddr: 0x147B4, symBinAddr: 0x2AF74, symSize: 0x60 }
  - { offset: 0x61652, size: 0x8, addend: 0x0, symName: __RNvXsg_NtNtCs6IAuOt8vWmF_3syn4item8printingNtB7_7UseGlobNtNtCs2cqEZUIJimJ_5quote9to_tokens8ToTokens9to_tokens, symObjAddr: 0x14814, symBinAddr: 0x2AFD4, symSize: 0x3C }
  - { offset: 0x61691, size: 0x8, addend: 0x0, symName: __RNvXsh_NtNtCs6IAuOt8vWmF_3syn4item8printingNtB7_8UseGroupNtNtCs2cqEZUIJimJ_5quote9to_tokens8ToTokens9to_tokens, symObjAddr: 0x14850, symBinAddr: 0x2B010, symSize: 0x44 }
  - { offset: 0x616D0, size: 0x8, addend: 0x0, symName: __RNvXsi_NtNtCs6IAuOt8vWmF_3syn4item8printingNtB7_14TraitItemConstNtNtCs2cqEZUIJimJ_5quote9to_tokens8ToTokens9to_tokens, symObjAddr: 0x14894, symBinAddr: 0x2B054, symSize: 0x110 }
  - { offset: 0x6173D, size: 0x8, addend: 0x0, symName: __RNvXsj_NtNtCs6IAuOt8vWmF_3syn4item8printingNtB7_11TraitItemFnNtNtCs2cqEZUIJimJ_5quote9to_tokens8ToTokens9to_tokens, symObjAddr: 0x149A4, symBinAddr: 0x2B164, symSize: 0xD4 }
  - { offset: 0x6179A, size: 0x8, addend: 0x0, symName: __RNvXsk_NtNtCs6IAuOt8vWmF_3syn4item8printingNtB7_13TraitItemTypeNtNtCs2cqEZUIJimJ_5quote9to_tokens8ToTokens9to_tokens, symObjAddr: 0x14A78, symBinAddr: 0x2B238, symSize: 0x168 }
  - { offset: 0x61807, size: 0x8, addend: 0x0, symName: __RNvXsl_NtNtCs6IAuOt8vWmF_3syn4item8printingNtB7_14TraitItemMacroNtNtCs2cqEZUIJimJ_5quote9to_tokens8ToTokens9to_tokens, symObjAddr: 0x14BE0, symBinAddr: 0x2B3A0, symSize: 0x74 }
  - { offset: 0x61846, size: 0x8, addend: 0x0, symName: __RNvXsm_NtNtCs6IAuOt8vWmF_3syn4item8printingNtB7_13ImplItemConstNtNtCs2cqEZUIJimJ_5quote9to_tokens8ToTokens9to_tokens, symObjAddr: 0x14C54, symBinAddr: 0x2B414, symSize: 0xE4 }
  - { offset: 0x61885, size: 0x8, addend: 0x0, symName: __RNvXsn_NtNtCs6IAuOt8vWmF_3syn4item8printingNtB7_10ImplItemFnNtNtCs2cqEZUIJimJ_5quote9to_tokens8ToTokens9to_tokens, symObjAddr: 0x14D38, symBinAddr: 0x2B4F8, symSize: 0x98 }
  - { offset: 0x618C4, size: 0x8, addend: 0x0, symName: __RNvXso_NtNtCs6IAuOt8vWmF_3syn4item8printingNtB7_12ImplItemTypeNtNtCs2cqEZUIJimJ_5quote9to_tokens8ToTokens9to_tokens, symObjAddr: 0x14DD0, symBinAddr: 0x2B590, symSize: 0xE4 }
  - { offset: 0x61903, size: 0x8, addend: 0x0, symName: __RNvXsp_NtNtCs6IAuOt8vWmF_3syn4item8printingNtB7_13ImplItemMacroNtNtCs2cqEZUIJimJ_5quote9to_tokens8ToTokens9to_tokens, symObjAddr: 0x14EB4, symBinAddr: 0x2B674, symSize: 0x74 }
  - { offset: 0x61942, size: 0x8, addend: 0x0, symName: __RNvXsq_NtNtCs6IAuOt8vWmF_3syn4item8printingNtB7_13ForeignItemFnNtNtCs2cqEZUIJimJ_5quote9to_tokens8ToTokens9to_tokens, symObjAddr: 0x14F28, symBinAddr: 0x2B6E8, symSize: 0x84 }
  - { offset: 0x61981, size: 0x8, addend: 0x0, symName: __RNvXsr_NtNtCs6IAuOt8vWmF_3syn4item8printingNtB7_17ForeignItemStaticNtNtCs2cqEZUIJimJ_5quote9to_tokens8ToTokens9to_tokens, symObjAddr: 0x14FAC, symBinAddr: 0x2B76C, symSize: 0xC4 }
  - { offset: 0x619C0, size: 0x8, addend: 0x0, symName: __RNvXss_NtNtCs6IAuOt8vWmF_3syn4item8printingNtB7_15ForeignItemTypeNtNtCs2cqEZUIJimJ_5quote9to_tokens8ToTokens9to_tokens, symObjAddr: 0x15070, symBinAddr: 0x2B830, symSize: 0xB4 }
  - { offset: 0x619FF, size: 0x8, addend: 0x0, symName: __RNvXst_NtNtCs6IAuOt8vWmF_3syn4item8printingNtB7_16ForeignItemMacroNtNtCs2cqEZUIJimJ_5quote9to_tokens8ToTokens9to_tokens, symObjAddr: 0x15124, symBinAddr: 0x2B8E4, symSize: 0x74 }
  - { offset: 0x61A3E, size: 0x8, addend: 0x0, symName: __RNvXsu_NtNtCs6IAuOt8vWmF_3syn4item8printingNtB7_9SignatureNtNtCs2cqEZUIJimJ_5quote9to_tokens8ToTokens9to_tokens, symObjAddr: 0x15198, symBinAddr: 0x2B958, symSize: 0xD4 }
  - { offset: 0x61A7D, size: 0x8, addend: 0x0, symName: __RNvXsv_NtNtCs6IAuOt8vWmF_3syn4item8printingNtB7_8ReceiverNtNtCs2cqEZUIJimJ_5quote9to_tokens8ToTokens9to_tokens, symObjAddr: 0x1526C, symBinAddr: 0x2BA2C, symSize: 0x3FC }
  - { offset: 0x61B75, size: 0x8, addend: 0x0, symName: __RNvXsw_NtNtCs6IAuOt8vWmF_3syn4item8printingNtB7_8VariadicNtNtCs2cqEZUIJimJ_5quote9to_tokens8ToTokens9to_tokens, symObjAddr: 0x15668, symBinAddr: 0x2BE28, symSize: 0xE0 }
  - { offset: 0x61BE2, size: 0x8, addend: 0x0, symName: __RNvXsx_NtNtCs6IAuOt8vWmF_3syn4item8printingNtB7_16StaticMutabilityNtNtCs2cqEZUIJimJ_5quote9to_tokens8ToTokens9to_tokens, symObjAddr: 0x15748, symBinAddr: 0x2BF08, symSize: 0x7C }
  - { offset: 0x61C45, size: 0x8, addend: 0x0, symName: __RNcNtNtNtCs6IAuOt8vWmF_3syn4item4Item4Enum0B7_, symObjAddr: 0x157C4, symBinAddr: 0x2BF84, symSize: 0x3C }
  - { offset: 0x61C74, size: 0x8, addend: 0x0, symName: __RNcNtNtNtCs6IAuOt8vWmF_3syn4item4Item11ExternCrate0B7_, symObjAddr: 0x15800, symBinAddr: 0x2BFC0, symSize: 0x3C }
  - { offset: 0x61CA3, size: 0x8, addend: 0x0, symName: __RNcNtNtNtCs6IAuOt8vWmF_3syn4item4Item2Fn0B7_, symObjAddr: 0x1583C, symBinAddr: 0x2BFFC, symSize: 0x30 }
  - { offset: 0x61CD2, size: 0x8, addend: 0x0, symName: __RNcNtNtNtCs6IAuOt8vWmF_3syn4item4Item10ForeignMod0B7_, symObjAddr: 0x1586C, symBinAddr: 0x2C02C, symSize: 0x3C }
  - { offset: 0x61D01, size: 0x8, addend: 0x0, symName: __RNcNtNtNtCs6IAuOt8vWmF_3syn4item4Item5Macro0B7_, symObjAddr: 0x158A8, symBinAddr: 0x2C068, symSize: 0x3C }
  - { offset: 0x61D30, size: 0x8, addend: 0x0, symName: __RNcNtNtNtCs6IAuOt8vWmF_3syn4item4Item3Mod0B7_, symObjAddr: 0x158E4, symBinAddr: 0x2C0A4, symSize: 0x3C }
  - { offset: 0x61D5F, size: 0x8, addend: 0x0, symName: __RNcNtNtNtCs6IAuOt8vWmF_3syn4item4Item6Struct0B7_, symObjAddr: 0x15920, symBinAddr: 0x2C0E0, symSize: 0x3C }
  - { offset: 0x61D8E, size: 0x8, addend: 0x0, symName: __RNcNtNtNtCs6IAuOt8vWmF_3syn4item4Item5Trait0B7_, symObjAddr: 0x1595C, symBinAddr: 0x2C11C, symSize: 0x3C }
  - { offset: 0x61DBD, size: 0x8, addend: 0x0, symName: __RNcNtNtNtCs6IAuOt8vWmF_3syn4item4Item10TraitAlias0B7_, symObjAddr: 0x15998, symBinAddr: 0x2C158, symSize: 0x3C }
  - { offset: 0x61DEC, size: 0x8, addend: 0x0, symName: __RNcNtNtNtCs6IAuOt8vWmF_3syn4item4Item5Union0B7_, symObjAddr: 0x159D4, symBinAddr: 0x2C194, symSize: 0x3C }
  - { offset: 0x61E1C, size: 0x8, addend: 0x0, symName: __RNvXsk_NtCs6IAuOt8vWmF_3syn4itemNtB5_4ItemNtNtCs2cqEZUIJimJ_5quote9to_tokens8ToTokens9to_tokens, symObjAddr: 0x15E78, symBinAddr: 0x2C1D0, symSize: 0x230 }
  - { offset: 0x6202E, size: 0x8, addend: 0x0, symName: __RNvXsq_NtCs6IAuOt8vWmF_3syn4itemNtB5_7UseTreeNtNtCs2cqEZUIJimJ_5quote9to_tokens8ToTokens9to_tokens, symObjAddr: 0x161F4, symBinAddr: 0x2C400, symSize: 0x10C }
  - { offset: 0x62100, size: 0x8, addend: 0x0, symName: __RNcNtNtNtCs6IAuOt8vWmF_3syn4item11ForeignItem5Macro0B7_, symObjAddr: 0x16300, symBinAddr: 0x2C50C, symSize: 0x3C }
  - { offset: 0x62132, size: 0x8, addend: 0x0, symName: __RNvXsv_NtCs6IAuOt8vWmF_3syn4itemNtB5_11ForeignItemNtNtCs2cqEZUIJimJ_5quote9to_tokens8ToTokens9to_tokens, symObjAddr: 0x16460, symBinAddr: 0x2C548, symSize: 0x118 }
  - { offset: 0x62204, size: 0x8, addend: 0x0, symName: __RNcNtNtNtCs6IAuOt8vWmF_3syn4item9TraitItem2Fn0B7_, symObjAddr: 0x16578, symBinAddr: 0x2C660, symSize: 0x3C }
  - { offset: 0x62235, size: 0x8, addend: 0x0, symName: __RNcNtNtNtCs6IAuOt8vWmF_3syn4item9TraitItem5Macro0B7_, symObjAddr: 0x165B4, symBinAddr: 0x2C69C, symSize: 0x3C }
  - { offset: 0x62267, size: 0x8, addend: 0x0, symName: __RNvXsA_NtCs6IAuOt8vWmF_3syn4itemNtB5_9TraitItemNtNtCs2cqEZUIJimJ_5quote9to_tokens8ToTokens9to_tokens, symObjAddr: 0x16714, symBinAddr: 0x2C6D8, symSize: 0x118 }
  - { offset: 0x62339, size: 0x8, addend: 0x0, symName: __RNcNtNtNtCs6IAuOt8vWmF_3syn4item8ImplItem5Macro0B7_, symObjAddr: 0x1682C, symBinAddr: 0x2C7F0, symSize: 0x3C }
  - { offset: 0x6236B, size: 0x8, addend: 0x0, symName: __RNvXsF_NtCs6IAuOt8vWmF_3syn4itemNtB5_8ImplItemNtNtCs2cqEZUIJimJ_5quote9to_tokens8ToTokens9to_tokens, symObjAddr: 0x1698C, symBinAddr: 0x2C82C, symSize: 0x118 }
  - { offset: 0x62438, size: 0x8, addend: 0x0, symName: __RNvXsI_NtCs6IAuOt8vWmF_3syn4itemNtB5_5FnArgNtNtCs2cqEZUIJimJ_5quote9to_tokens8ToTokens9to_tokens, symObjAddr: 0x16B30, symBinAddr: 0x2C944, symSize: 0x8C }
  - { offset: 0x624B3, size: 0x8, addend: 0x0, symName: __RNcNtNtNtCs6IAuOt8vWmF_3syn4item16StaticMutability3Mut0B7_, symObjAddr: 0x16BBC, symBinAddr: 0x2C9D0, symSize: 0x20 }
  - { offset: 0x65F61, size: 0x8, addend: 0x0, symName: __RNvXs16_NtNtCs6IAuOt8vWmF_3syn3gen5cloneNtNtBa_4item5FnArgNtNtCsfvfooZQ3Axs_4core5clone5Clone5clone, symObjAddr: 0x16BDC, symBinAddr: 0x2C9F0, symSize: 0xDC }
  - { offset: 0x65FC9, size: 0x8, addend: 0x0, symName: __RNvXs17_NtNtCs6IAuOt8vWmF_3syn3gen5cloneNtNtBa_4item11ForeignItemNtNtCsfvfooZQ3Axs_4core5clone5Clone5clone, symObjAddr: 0x16CB8, symBinAddr: 0x2CACC, symSize: 0x224 }
  - { offset: 0x6608B, size: 0x8, addend: 0x0, symName: __RNvXs18_NtNtCs6IAuOt8vWmF_3syn3gen5cloneNtNtBa_4item13ForeignItemFnNtNtCsfvfooZQ3Axs_4core5clone5Clone5clone, symObjAddr: 0x16EDC, symBinAddr: 0x2CCF0, symSize: 0x13C }
  - { offset: 0x660BF, size: 0x8, addend: 0x0, symName: __RNvXs19_NtNtCs6IAuOt8vWmF_3syn3gen5cloneNtNtBa_4item16ForeignItemMacroNtNtCsfvfooZQ3Axs_4core5clone5Clone5clone, symObjAddr: 0x17018, symBinAddr: 0x2CE2C, symSize: 0xF4 }
  - { offset: 0x660F3, size: 0x8, addend: 0x0, symName: __RNvXs1a_NtNtCs6IAuOt8vWmF_3syn3gen5cloneNtNtBa_4item17ForeignItemStaticNtNtCsfvfooZQ3Axs_4core5clone5Clone5clone, symObjAddr: 0x1710C, symBinAddr: 0x2CF20, symSize: 0x1DC }
  - { offset: 0x66127, size: 0x8, addend: 0x0, symName: __RNvXs1b_NtNtCs6IAuOt8vWmF_3syn3gen5cloneNtNtBa_4item15ForeignItemTypeNtNtCsfvfooZQ3Axs_4core5clone5Clone5clone, symObjAddr: 0x172E8, symBinAddr: 0x2D0FC, symSize: 0x198 }
  - { offset: 0x6615B, size: 0x8, addend: 0x0, symName: __RNvXs1f_NtNtCs6IAuOt8vWmF_3syn3gen5cloneNtNtBa_4item8ImplItemNtNtCsfvfooZQ3Axs_4core5clone5Clone5clone, symObjAddr: 0x17480, symBinAddr: 0x2D294, symSize: 0x21C }
  - { offset: 0x6621D, size: 0x8, addend: 0x0, symName: __RNvXs1g_NtNtCs6IAuOt8vWmF_3syn3gen5cloneNtNtBa_4item13ImplItemConstNtNtCsfvfooZQ3Axs_4core5clone5Clone5clone, symObjAddr: 0x1769C, symBinAddr: 0x2D4B0, symSize: 0x2AC }
  - { offset: 0x66251, size: 0x8, addend: 0x0, symName: __RNvXs1h_NtNtCs6IAuOt8vWmF_3syn3gen5cloneNtNtBa_4item10ImplItemFnNtNtCsfvfooZQ3Axs_4core5clone5Clone5clone, symObjAddr: 0x17948, symBinAddr: 0x2D75C, symSize: 0x160 }
  - { offset: 0x66285, size: 0x8, addend: 0x0, symName: __RNvXs1i_NtNtCs6IAuOt8vWmF_3syn3gen5cloneNtNtBa_4item13ImplItemMacroNtNtCsfvfooZQ3Axs_4core5clone5Clone5clone, symObjAddr: 0x17AA8, symBinAddr: 0x2D8BC, symSize: 0xF4 }
  - { offset: 0x662B9, size: 0x8, addend: 0x0, symName: __RNvXs1j_NtNtCs6IAuOt8vWmF_3syn3gen5cloneNtNtBa_4item12ImplItemTypeNtNtCsfvfooZQ3Axs_4core5clone5Clone5clone, symObjAddr: 0x17B9C, symBinAddr: 0x2D9B0, symSize: 0x238 }
  - { offset: 0x662ED, size: 0x8, addend: 0x0, symName: __RNvXs1m_NtNtCs6IAuOt8vWmF_3syn3gen5cloneNtNtBa_4item4ItemNtNtCsfvfooZQ3Axs_4core5clone5Clone5clone, symObjAddr: 0x17DE0, symBinAddr: 0x2DBE8, symSize: 0x5D0 }
  - { offset: 0x66504, size: 0x8, addend: 0x0, symName: __RNvXs1n_NtNtCs6IAuOt8vWmF_3syn3gen5cloneNtNtBa_4item9ItemConstNtNtCsfvfooZQ3Axs_4core5clone5Clone5clone, symObjAddr: 0x183B0, symBinAddr: 0x2E1B8, symSize: 0x270 }
  - { offset: 0x66538, size: 0x8, addend: 0x0, symName: __RNvXs1o_NtNtCs6IAuOt8vWmF_3syn3gen5cloneNtNtBa_4item8ItemEnumNtNtCsfvfooZQ3Axs_4core5clone5Clone5clone, symObjAddr: 0x18620, symBinAddr: 0x2E428, symSize: 0x1C0 }
  - { offset: 0x6656C, size: 0x8, addend: 0x0, symName: __RNvXs1p_NtNtCs6IAuOt8vWmF_3syn3gen5cloneNtNtBa_4item15ItemExternCrateNtNtCsfvfooZQ3Axs_4core5clone5Clone5clone, symObjAddr: 0x187E0, symBinAddr: 0x2E5E8, symSize: 0x1A4 }
  - { offset: 0x665A0, size: 0x8, addend: 0x0, symName: __RNvXs1q_NtNtCs6IAuOt8vWmF_3syn3gen5cloneNtNtBa_4item6ItemFnNtNtCsfvfooZQ3Axs_4core5clone5Clone5clone, symObjAddr: 0x18984, symBinAddr: 0x2E78C, symSize: 0x12C }
  - { offset: 0x665D4, size: 0x8, addend: 0x0, symName: __RNvXs1r_NtNtCs6IAuOt8vWmF_3syn3gen5cloneNtNtBa_4item14ItemForeignModNtNtCsfvfooZQ3Axs_4core5clone5Clone5clone, symObjAddr: 0x18AB0, symBinAddr: 0x2E8B8, symSize: 0x14C }
  - { offset: 0x66608, size: 0x8, addend: 0x0, symName: __RNvXs1s_NtNtCs6IAuOt8vWmF_3syn3gen5cloneNtNtBa_4item8ItemImplNtNtCsfvfooZQ3Axs_4core5clone5Clone5clone, symObjAddr: 0x18BFC, symBinAddr: 0x2EA04, symSize: 0x220 }
  - { offset: 0x6663C, size: 0x8, addend: 0x0, symName: __RNvXs1t_NtNtCs6IAuOt8vWmF_3syn3gen5cloneNtNtBa_4item9ItemMacroNtNtCsfvfooZQ3Axs_4core5clone5Clone5clone, symObjAddr: 0x18E1C, symBinAddr: 0x2EC24, symSize: 0x134 }
  - { offset: 0x66670, size: 0x8, addend: 0x0, symName: __RNvXs1u_NtNtCs6IAuOt8vWmF_3syn3gen5cloneNtNtBa_4item7ItemModNtNtCsfvfooZQ3Axs_4core5clone5Clone5clone, symObjAddr: 0x18F50, symBinAddr: 0x2ED58, symSize: 0x1B8 }
  - { offset: 0x666A4, size: 0x8, addend: 0x0, symName: __RNvXs1v_NtNtCs6IAuOt8vWmF_3syn3gen5cloneNtNtBa_4item10ItemStaticNtNtCsfvfooZQ3Axs_4core5clone5Clone5clone, symObjAddr: 0x19108, symBinAddr: 0x2EF10, symSize: 0x248 }
  - { offset: 0x666D8, size: 0x8, addend: 0x0, symName: __RNvXs1w_NtNtCs6IAuOt8vWmF_3syn3gen5cloneNtNtBa_4item10ItemStructNtNtCsfvfooZQ3Axs_4core5clone5Clone5clone, symObjAddr: 0x19350, symBinAddr: 0x2F158, symSize: 0x1DC }
  - { offset: 0x6670C, size: 0x8, addend: 0x0, symName: __RNvXs1x_NtNtCs6IAuOt8vWmF_3syn3gen5cloneNtNtBa_4item9ItemTraitNtNtCsfvfooZQ3Axs_4core5clone5Clone5clone, symObjAddr: 0x1952C, symBinAddr: 0x2F334, symSize: 0x288 }
  - { offset: 0x66740, size: 0x8, addend: 0x0, symName: __RNvXs1y_NtNtCs6IAuOt8vWmF_3syn3gen5cloneNtNtBa_4item14ItemTraitAliasNtNtCsfvfooZQ3Axs_4core5clone5Clone5clone, symObjAddr: 0x197B4, symBinAddr: 0x2F5BC, symSize: 0x204 }
  - { offset: 0x66774, size: 0x8, addend: 0x0, symName: __RNvXs1z_NtNtCs6IAuOt8vWmF_3syn3gen5cloneNtNtBa_4item8ItemTypeNtNtCsfvfooZQ3Axs_4core5clone5Clone5clone, symObjAddr: 0x199B8, symBinAddr: 0x2F7C0, symSize: 0x204 }
  - { offset: 0x667A8, size: 0x8, addend: 0x0, symName: __RNvXs1A_NtNtCs6IAuOt8vWmF_3syn3gen5cloneNtNtBa_4item9ItemUnionNtNtCsfvfooZQ3Axs_4core5clone5Clone5clone, symObjAddr: 0x19BBC, symBinAddr: 0x2F9C4, symSize: 0x194 }
  - { offset: 0x667DC, size: 0x8, addend: 0x0, symName: __RNvXs1B_NtNtCs6IAuOt8vWmF_3syn3gen5cloneNtNtBa_4item7ItemUseNtNtCsfvfooZQ3Axs_4core5clone5Clone5clone, symObjAddr: 0x19D50, symBinAddr: 0x2FB58, symSize: 0x174 }
  - { offset: 0x66810, size: 0x8, addend: 0x0, symName: __RNvXs2b_NtNtCs6IAuOt8vWmF_3syn3gen5cloneNtNtBa_4item8ReceiverNtNtCsfvfooZQ3Axs_4core5clone5Clone5clone, symObjAddr: 0x19EC4, symBinAddr: 0x2FCCC, symSize: 0x154 }
  - { offset: 0x66844, size: 0x8, addend: 0x0, symName: __RNvXs2d_NtNtCs6IAuOt8vWmF_3syn3gen5cloneNtNtBa_4item9SignatureNtNtCsfvfooZQ3Axs_4core5clone5Clone5clone, symObjAddr: 0x1A018, symBinAddr: 0x2FE20, symSize: 0x278 }
  - { offset: 0x66878, size: 0x8, addend: 0x0, symName: __RNvXs2e_NtNtCs6IAuOt8vWmF_3syn3gen5cloneNtNtBa_4item16StaticMutabilityNtNtCsfvfooZQ3Axs_4core5clone5Clone5clone, symObjAddr: 0x1A290, symBinAddr: 0x30098, symSize: 0x88 }
  - { offset: 0x668CA, size: 0x8, addend: 0x0, symName: __RNvXs2k_NtNtCs6IAuOt8vWmF_3syn3gen5cloneNtNtBa_4item9TraitItemNtNtCsfvfooZQ3Axs_4core5clone5Clone5clone, symObjAddr: 0x1A318, symBinAddr: 0x30120, symSize: 0x21C }
  - { offset: 0x6698C, size: 0x8, addend: 0x0, symName: __RNvXs2l_NtNtCs6IAuOt8vWmF_3syn3gen5cloneNtNtBa_4item14TraitItemConstNtNtCsfvfooZQ3Axs_4core5clone5Clone5clone, symObjAddr: 0x1A534, symBinAddr: 0x3033C, symSize: 0x218 }
  - { offset: 0x669C0, size: 0x8, addend: 0x0, symName: __RNvXs2m_NtNtCs6IAuOt8vWmF_3syn3gen5cloneNtNtBa_4item11TraitItemFnNtNtCsfvfooZQ3Axs_4core5clone5Clone5clone, symObjAddr: 0x1A74C, symBinAddr: 0x30554, symSize: 0x140 }
  - { offset: 0x669F4, size: 0x8, addend: 0x0, symName: __RNvXs2n_NtNtCs6IAuOt8vWmF_3syn3gen5cloneNtNtBa_4item14TraitItemMacroNtNtCsfvfooZQ3Axs_4core5clone5Clone5clone, symObjAddr: 0x1A88C, symBinAddr: 0x30694, symSize: 0xF4 }
  - { offset: 0x66A28, size: 0x8, addend: 0x0, symName: __RNvXs2o_NtNtCs6IAuOt8vWmF_3syn3gen5cloneNtNtBa_4item13TraitItemTypeNtNtCsfvfooZQ3Axs_4core5clone5Clone5clone, symObjAddr: 0x1A980, symBinAddr: 0x30788, symSize: 0x20C }
  - { offset: 0x66A5C, size: 0x8, addend: 0x0, symName: __RNvXs2I_NtNtCs6IAuOt8vWmF_3syn3gen5cloneNtNtBa_4item7UseGlobNtNtCsfvfooZQ3Axs_4core5clone5Clone5clone, symObjAddr: 0x1AB8C, symBinAddr: 0x30994, symSize: 0x4C }
  - { offset: 0x66A90, size: 0x8, addend: 0x0, symName: __RNvXs2J_NtNtCs6IAuOt8vWmF_3syn3gen5cloneNtNtBa_4item8UseGroupNtNtCsfvfooZQ3Axs_4core5clone5Clone5clone, symObjAddr: 0x1ABD8, symBinAddr: 0x309E0, symSize: 0x70 }
  - { offset: 0x66AC4, size: 0x8, addend: 0x0, symName: __RNvXs2K_NtNtCs6IAuOt8vWmF_3syn3gen5cloneNtNtBa_4item7UseNameNtNtCsfvfooZQ3Axs_4core5clone5Clone5clone, symObjAddr: 0x1AC48, symBinAddr: 0x30A50, symSize: 0x50 }
  - { offset: 0x66AF8, size: 0x8, addend: 0x0, symName: __RNvXs2L_NtNtCs6IAuOt8vWmF_3syn3gen5cloneNtNtBa_4item7UsePathNtNtCsfvfooZQ3Axs_4core5clone5Clone5clone, symObjAddr: 0x1AC98, symBinAddr: 0x30AA0, symSize: 0xC0 }
  - { offset: 0x66B2C, size: 0x8, addend: 0x0, symName: __RNvXs2M_NtNtCs6IAuOt8vWmF_3syn3gen5cloneNtNtBa_4item9UseRenameNtNtCsfvfooZQ3Axs_4core5clone5Clone5clone, symObjAddr: 0x1AD58, symBinAddr: 0x30B60, symSize: 0xB8 }
  - { offset: 0x66B60, size: 0x8, addend: 0x0, symName: __RNvXs2N_NtNtCs6IAuOt8vWmF_3syn3gen5cloneNtNtBa_4item7UseTreeNtNtCsfvfooZQ3Axs_4core5clone5Clone5clone, symObjAddr: 0x1AE10, symBinAddr: 0x30C18, symSize: 0x20C }
  - { offset: 0x66C23, size: 0x8, addend: 0x0, symName: __RNvXs2O_NtNtCs6IAuOt8vWmF_3syn3gen5cloneNtNtBa_4item8VariadicNtNtCsfvfooZQ3Axs_4core5clone5Clone5clone, symObjAddr: 0x1B01C, symBinAddr: 0x30E24, symSize: 0x108 }
  - { offset: 0x685EC, size: 0x8, addend: 0x0, symName: __RINvXNtNtCse1nGBsou5OW_5alloc5slice4hackNtNtCs6IAuOt8vWmF_3syn4item11ForeignItemNtB3_10ConvertVec6to_vecNtNtB7_5alloc6GlobalEBG_, symObjAddr: 0x0, symBinAddr: 0x1DFF4, symSize: 0x36C }
  - { offset: 0x68AAF, size: 0x8, addend: 0x0, symName: __RINvXNtNtCse1nGBsou5OW_5alloc5slice4hackNtNtCs6IAuOt8vWmF_3syn4item4ItemNtB3_10ConvertVec6to_vecNtNtB7_5alloc6GlobalEBG_, symObjAddr: 0x36C, symBinAddr: 0x1E360, symSize: 0x36C }
  - { offset: 0x68F72, size: 0x8, addend: 0x0, symName: __RINvXNtNtCse1nGBsou5OW_5alloc5slice4hackNtNtCs6IAuOt8vWmF_3syn4item8ImplItemNtB3_10ConvertVec6to_vecNtNtB7_5alloc6GlobalEBG_, symObjAddr: 0x6D8, symBinAddr: 0x1E6CC, symSize: 0x36C }
  - { offset: 0x69435, size: 0x8, addend: 0x0, symName: __RINvXNtNtCse1nGBsou5OW_5alloc5slice4hackNtNtCs6IAuOt8vWmF_3syn4item9TraitItemNtB3_10ConvertVec6to_vecNtNtB7_5alloc6GlobalEBG_, symObjAddr: 0xA44, symBinAddr: 0x1EA38, symSize: 0x36C }
  - { offset: 0x698F8, size: 0x8, addend: 0x0, symName: __RINvXNtNtCse1nGBsou5OW_5alloc5slice4hackTNtNtCs6IAuOt8vWmF_3syn4item5FnArgNtNtBH_5token5CommaENtB3_10ConvertVec6to_vecNtNtB7_5alloc6GlobalEBH_, symObjAddr: 0xDB0, symBinAddr: 0x1EDA4, symSize: 0x368 }
  - { offset: 0x69DBB, size: 0x8, addend: 0x0, symName: __RINvXNtNtCse1nGBsou5OW_5alloc5slice4hackTNtNtCs6IAuOt8vWmF_3syn4item7UseTreeNtNtBH_5token5CommaENtB3_10ConvertVec6to_vecNtNtB7_5alloc6GlobalEBH_, symObjAddr: 0x1118, symBinAddr: 0x1F10C, symSize: 0x368 }
  - { offset: 0x6E570, size: 0x8, addend: 0x0, symName: __RNvMNtCsfvfooZQ3Axs_4core5sliceSTNtNtCs6IAuOt8vWmF_3syn4item5FnArgNtNtBz_5token5CommaE4iterBz_, symObjAddr: 0x1480, symBinAddr: 0x1F474, symSize: 0x28 }
  - { offset: 0x6E5A7, size: 0x8, addend: 0x0, symName: __RNvMNtCsfvfooZQ3Axs_4core5sliceSTNtNtCs6IAuOt8vWmF_3syn4item7UseTreeNtNtBz_5token5CommaE4iterBz_, symObjAddr: 0x14A8, symBinAddr: 0x1F49C, symSize: 0x28 }
  - { offset: 0x6EC97, size: 0x8, addend: 0x0, symName: __RNvXNtNtCsfvfooZQ3Axs_4core5clone6uninitNtNtCs6IAuOt8vWmF_3syn4item5FnArgNtB2_8CopySpec9clone_oneBG_, symObjAddr: 0x1650, symBinAddr: 0x1F644, symSize: 0x48 }
  - { offset: 0x6ECFB, size: 0x8, addend: 0x0, symName: __RNvXNtNtCsfvfooZQ3Axs_4core5clone6uninitNtNtCs6IAuOt8vWmF_3syn4item7UseTreeNtB2_8CopySpec9clone_oneBG_, symObjAddr: 0x1698, symBinAddr: 0x1F68C, symSize: 0x48 }
  - { offset: 0x7148B, size: 0x8, addend: 0x0, symName: __RNvXNtCs2cqEZUIJimJ_5quote9to_tokensRNtNtCs6IAuOt8vWmF_3syn4item11ForeignItemNtB2_8ToTokens9to_tokensBD_, symObjAddr: 0x14D0, symBinAddr: 0x1F4C4, symSize: 0x40 }
  - { offset: 0x714CA, size: 0x8, addend: 0x0, symName: __RNvXNtCs2cqEZUIJimJ_5quote9to_tokensRNtNtCs6IAuOt8vWmF_3syn4item4ItemNtB2_8ToTokens9to_tokensBD_, symObjAddr: 0x1510, symBinAddr: 0x1F504, symSize: 0x40 }
  - { offset: 0x71509, size: 0x8, addend: 0x0, symName: __RNvXNtCs2cqEZUIJimJ_5quote9to_tokensRNtNtCs6IAuOt8vWmF_3syn4item5FnArgNtB2_8ToTokens9to_tokensBD_, symObjAddr: 0x1550, symBinAddr: 0x1F544, symSize: 0x40 }
  - { offset: 0x71548, size: 0x8, addend: 0x0, symName: __RNvXNtCs2cqEZUIJimJ_5quote9to_tokensRNtNtCs6IAuOt8vWmF_3syn4item7UseTreeNtB2_8ToTokens9to_tokensBD_, symObjAddr: 0x1590, symBinAddr: 0x1F584, symSize: 0x40 }
  - { offset: 0x71587, size: 0x8, addend: 0x0, symName: __RNvXNtCs2cqEZUIJimJ_5quote9to_tokensRNtNtCs6IAuOt8vWmF_3syn4item8ImplItemNtB2_8ToTokens9to_tokensBD_, symObjAddr: 0x15D0, symBinAddr: 0x1F5C4, symSize: 0x40 }
  - { offset: 0x715C6, size: 0x8, addend: 0x0, symName: __RNvXNtCs2cqEZUIJimJ_5quote9to_tokensRNtNtCs6IAuOt8vWmF_3syn4item9TraitItemNtB2_8ToTokens9to_tokensBD_, symObjAddr: 0x1610, symBinAddr: 0x1F604, symSize: 0x40 }
  - { offset: 0x71622, size: 0x8, addend: 0x0, symName: __RNvMNtCs6IAuOt8vWmF_3syn4itemNtB2_4Item13replace_attrs, symObjAddr: 0x2BF8, symBinAddr: 0x1F6D4, symSize: 0x328 }
  - { offset: 0x71BD4, size: 0x8, addend: 0x0, symName: __RINvMs_NtCse1nGBsou5OW_5alloc3vecINtB5_3VecReE10retain_mutNCNvMNtCs6IAuOt8vWmF_3syn9lookaheadNtBZ_10Lookahead15error0EB11_, symObjAddr: 0x0, symBinAddr: 0x30F2C, symSize: 0xE4 }
  - { offset: 0x72979, size: 0x8, addend: 0x0, symName: __RNvXs1a_NtCsfvfooZQ3Axs_4core3fmtRINtNtCse1nGBsou5OW_5alloc3vec3VechENtB6_5Debug3fmtCs6IAuOt8vWmF_3syn, symObjAddr: 0x6C30, symBinAddr: 0x356D0, symSize: 0x30 }
  - { offset: 0x7A0E6, size: 0x8, addend: 0x0, symName: __RNvXs1_NtCsfvfooZQ3Axs_4core7convertINtNtCse1nGBsou5OW_5alloc3vec3VechEINtB5_4IntoBy_E4intoCs6IAuOt8vWmF_3syn, symObjAddr: 0x6BE8, symBinAddr: 0x356B8, symSize: 0x18 }
  - { offset: 0x7A323, size: 0x8, addend: 0x0, symName: __RINvNvMs_NtCse1nGBsou5OW_5alloc3vecINtB7_3VecppE10retain_mut12process_loopNCNvMNtCs6IAuOt8vWmF_3syn9lookaheadNtB1f_10Lookahead15error0ReNtNtB9_5alloc6GlobalKb0_EB1h_, symObjAddr: 0xC64, symBinAddr: 0x3150C, symSize: 0xCC }
  - { offset: 0x7A477, size: 0x8, addend: 0x0, symName: __RINvNvMs_NtCse1nGBsou5OW_5alloc3vecINtB7_3VecppE10retain_mut12process_loopNCNvMNtCs6IAuOt8vWmF_3syn9lookaheadNtB1f_10Lookahead15error0ReNtNtB9_5alloc6GlobalKb1_EB1h_, symObjAddr: 0xD30, symBinAddr: 0x315D8, symSize: 0x168 }
  - { offset: 0x7A66D, size: 0x8, addend: 0x0, symName: __RNvXNvMs_NtCse1nGBsou5OW_5alloc3vecINtB7_3VecppE10retain_mutINtB2_15BackshiftOnDropReNtNtB9_5alloc6GlobalENtNtNtCsfvfooZQ3Axs_4core3ops4drop4Drop4dropCs6IAuOt8vWmF_3syn, symObjAddr: 0x681C, symBinAddr: 0x35384, symSize: 0x124 }
  - { offset: 0x7D0D8, size: 0x8, addend: 0x0, symName: __RINvXsh_NtCse1nGBsou5OW_5alloc3vecINtB6_3VecNtCs3cP53eQoTwO_11proc_macro29TokenTreeEINtNtNtNtCsfvfooZQ3Axs_4core4iter6traits7collect6ExtendBG_E6extendINtNtNtB1r_8adapters7flatten7FlattenINtNtB2t_3map3MapIB2Z_IB2Z_INtNtNtB1t_5slice4iter4IterNtNtCs6IAuOt8vWmF_3syn5error12ErrorMessageENvMs_B3S_B3Q_16to_compile_errorENCINvXs7_BI_NtBI_11TokenStreamINtB1n_12FromIteratorB5f_E9from_iterB3k_E0ENCINvXs6_NtBI_3impNtB6n_11TokenStreamIB5y_B6w_E9from_iterB3f_Es_0EEEB3U_, symObjAddr: 0xED4, symBinAddr: 0x31740, symSize: 0x48 }
  - { offset: 0x7D12D, size: 0x8, addend: 0x0, symName: __RINvXsh_NtCse1nGBsou5OW_5alloc3vecINtB6_3VecNtNtCs6IAuOt8vWmF_3syn4attr9AttributeEINtNtNtNtCsfvfooZQ3Axs_4core4iter6traits7collect6ExtendBG_E6extendBw_EBK_, symObjAddr: 0xF1C, symBinAddr: 0x31788, symSize: 0x48 }
  - { offset: 0x7D182, size: 0x8, addend: 0x0, symName: __RINvXsh_NtCse1nGBsou5OW_5alloc3vecINtB6_3VecNtNtCs6IAuOt8vWmF_3syn8generics14TypeParamBoundEINtNtNtNtCsfvfooZQ3Axs_4core4iter6traits7collect6ExtendBG_E6extendINtNtB1B_6option6OptionBG_EEBK_, symObjAddr: 0x108C, symBinAddr: 0x317D0, symSize: 0x48 }
  - { offset: 0x7D1D7, size: 0x8, addend: 0x0, symName: __RINvXsh_NtCse1nGBsou5OW_5alloc3vecINtB6_3VecNtNtCs6IAuOt8vWmF_3syn8generics14TypeParamBoundEINtNtNtNtCsfvfooZQ3Axs_4core4iter6traits7collect6ExtendBG_E6extendINtNtNtB1z_8adapters3map3MapINtNtB6_9into_iter8IntoIterTBG_NtNtBK_5token4PlusEENCNvXs8_NtBK_10punctuatedINtB3V_10PunctuatedBG_B3t_ENtB1v_12IntoIterator9into_iter0EEBK_, symObjAddr: 0x10D4, symBinAddr: 0x31818, symSize: 0x48 }
  - { offset: 0x7D237, size: 0x8, addend: 0x0, symName: __RNCINvMsi_NtCse1nGBsou5OW_5alloc3vecINtB8_3VecNtNtCs6IAuOt8vWmF_3syn8generics14TypeParamBoundE14extend_trustedINtNtCsfvfooZQ3Axs_4core6option8IntoIterBI_EE0BM_, symObjAddr: 0x1218, symBinAddr: 0x31860, symSize: 0x54 }
  - { offset: 0x7D2F5, size: 0x8, addend: 0x0, symName: __RNCINvMsi_NtCse1nGBsou5OW_5alloc3vecINtB8_3VecNtNtCs6IAuOt8vWmF_3syn8generics14TypeParamBoundE14extend_trustedINtNtNtNtCsfvfooZQ3Axs_4core4iter8adapters3map3MapINtNtB8_9into_iter8IntoIterTBI_NtNtBM_5token4PlusEENCNvXs8_NtBM_10punctuatedINtB3v_10PunctuatedBI_B33_ENtNtNtB1R_6traits7collect12IntoIterator9into_iter0EE0BM_, symObjAddr: 0x126C, symBinAddr: 0x318B4, symSize: 0x54 }
  - { offset: 0x7D7F5, size: 0x8, addend: 0x0, symName: __RNvXs6_NtCse1nGBsou5OW_5alloc3vecINtB5_3VecNtNtCs6IAuOt8vWmF_3syn4attr9AttributeENtNtNtCsfvfooZQ3Axs_4core3ops5deref5Deref5derefBJ_, symObjAddr: 0x6C60, symBinAddr: 0x35700, symSize: 0x24 }
  - { offset: 0x7D835, size: 0x8, addend: 0x0, symName: __RNvXs6_NtCse1nGBsou5OW_5alloc3vecINtB5_3VecNtNtCs6IAuOt8vWmF_3syn4expr3ArmENtNtNtCsfvfooZQ3Axs_4core3ops5deref5Deref5derefBJ_, symObjAddr: 0x6C84, symBinAddr: 0x35724, symSize: 0x24 }
  - { offset: 0x7D875, size: 0x8, addend: 0x0, symName: __RNvXs6_NtCse1nGBsou5OW_5alloc3vecINtB5_3VecNtNtCs6IAuOt8vWmF_3syn5error12ErrorMessageENtNtNtCsfvfooZQ3Axs_4core3ops5deref5Deref5derefBJ_, symObjAddr: 0x6CA8, symBinAddr: 0x35748, symSize: 0x24 }
  - { offset: 0x7D8B5, size: 0x8, addend: 0x0, symName: __RNvXs6_NtCse1nGBsou5OW_5alloc3vecINtB5_3VecReENtNtNtCsfvfooZQ3Axs_4core3ops5deref5Deref5derefCs6IAuOt8vWmF_3syn, symObjAddr: 0x6CCC, symBinAddr: 0x3576C, symSize: 0x24 }
  - { offset: 0x7D8F5, size: 0x8, addend: 0x0, symName: __RNvXs6_NtCse1nGBsou5OW_5alloc3vecINtB5_3VecTNtNtCs6IAuOt8vWmF_3syn2ty4TypeNtNtBK_5token5CommaEENtNtNtCsfvfooZQ3Axs_4core3ops5deref5Deref5derefBK_, symObjAddr: 0x6CF0, symBinAddr: 0x35790, symSize: 0x24 }
  - { offset: 0x7D935, size: 0x8, addend: 0x0, symName: __RNvXs6_NtCse1nGBsou5OW_5alloc3vecINtB5_3VecTNtNtCs6IAuOt8vWmF_3syn2ty9BareFnArgNtNtBK_5token5CommaEENtNtNtCsfvfooZQ3Axs_4core3ops5deref5Deref5derefBK_, symObjAddr: 0x6D14, symBinAddr: 0x357B4, symSize: 0x24 }
  - { offset: 0x7D975, size: 0x8, addend: 0x0, symName: __RNvXs6_NtCse1nGBsou5OW_5alloc3vecINtB5_3VecTNtNtCs6IAuOt8vWmF_3syn3pat3PatNtNtBK_5token2OrEENtNtNtCsfvfooZQ3Axs_4core3ops5deref5Deref5derefBK_, symObjAddr: 0x6D38, symBinAddr: 0x357D8, symSize: 0x24 }
  - { offset: 0x7D9B5, size: 0x8, addend: 0x0, symName: __RNvXs6_NtCse1nGBsou5OW_5alloc3vecINtB5_3VecTNtNtCs6IAuOt8vWmF_3syn3pat3PatNtNtBK_5token5CommaEENtNtNtCsfvfooZQ3Axs_4core3ops5deref5Deref5derefBK_, symObjAddr: 0x6D5C, symBinAddr: 0x357FC, symSize: 0x24 }
  - { offset: 0x7D9F5, size: 0x8, addend: 0x0, symName: __RNvXs6_NtCse1nGBsou5OW_5alloc3vecINtB5_3VecTNtNtCs6IAuOt8vWmF_3syn3pat8FieldPatNtNtBK_5token5CommaEENtNtNtCsfvfooZQ3Axs_4core3ops5deref5Deref5derefBK_, symObjAddr: 0x6D80, symBinAddr: 0x35820, symSize: 0x24 }
  - { offset: 0x7DA35, size: 0x8, addend: 0x0, symName: __RNvXs6_NtCse1nGBsou5OW_5alloc3vecINtB5_3VecTNtNtCs6IAuOt8vWmF_3syn4data5FieldNtNtBK_5token5CommaEENtNtNtCsfvfooZQ3Axs_4core3ops5deref5Deref5derefBK_, symObjAddr: 0x6DA4, symBinAddr: 0x35844, symSize: 0x24 }
  - { offset: 0x7DA75, size: 0x8, addend: 0x0, symName: __RNvXs6_NtCse1nGBsou5OW_5alloc3vecINtB5_3VecTNtNtCs6IAuOt8vWmF_3syn4data7VariantNtNtBK_5token5CommaEENtNtNtCsfvfooZQ3Axs_4core3ops5deref5Deref5derefBK_, symObjAddr: 0x6DC8, symBinAddr: 0x35868, symSize: 0x24 }
  - { offset: 0x7DAB5, size: 0x8, addend: 0x0, symName: __RNvXs6_NtCse1nGBsou5OW_5alloc3vecINtB5_3VecTNtNtCs6IAuOt8vWmF_3syn4expr10FieldValueNtNtBK_5token5CommaEENtNtNtCsfvfooZQ3Axs_4core3ops5deref5Deref5derefBK_, symObjAddr: 0x6DEC, symBinAddr: 0x3588C, symSize: 0x24 }
  - { offset: 0x7DAF5, size: 0x8, addend: 0x0, symName: __RNvXs6_NtCse1nGBsou5OW_5alloc3vecINtB5_3VecTNtNtCs6IAuOt8vWmF_3syn4expr4ExprNtNtBK_5token5CommaEENtNtNtCsfvfooZQ3Axs_4core3ops5deref5Deref5derefBK_, symObjAddr: 0x6E10, symBinAddr: 0x358B0, symSize: 0x24 }
  - { offset: 0x7DB35, size: 0x8, addend: 0x0, symName: __RNvXs6_NtCse1nGBsou5OW_5alloc3vecINtB5_3VecTNtNtCs6IAuOt8vWmF_3syn4item5FnArgNtNtBK_5token5CommaEENtNtNtCsfvfooZQ3Axs_4core3ops5deref5Deref5derefBK_, symObjAddr: 0x6E34, symBinAddr: 0x358D4, symSize: 0x24 }
  - { offset: 0x7DB75, size: 0x8, addend: 0x0, symName: __RNvXs6_NtCse1nGBsou5OW_5alloc3vecINtB5_3VecTNtNtCs6IAuOt8vWmF_3syn4item7UseTreeNtNtBK_5token5CommaEENtNtNtCsfvfooZQ3Axs_4core3ops5deref5Deref5derefBK_, symObjAddr: 0x6E58, symBinAddr: 0x358F8, symSize: 0x24 }
  - { offset: 0x7DBB5, size: 0x8, addend: 0x0, symName: __RNvXs6_NtCse1nGBsou5OW_5alloc3vecINtB5_3VecTNtNtCs6IAuOt8vWmF_3syn4path11PathSegmentNtNtBK_5token7PathSepEENtNtNtCsfvfooZQ3Axs_4core3ops5deref5Deref5derefBK_, symObjAddr: 0x6E7C, symBinAddr: 0x3591C, symSize: 0x24 }
  - { offset: 0x7DBF5, size: 0x8, addend: 0x0, symName: __RNvXs6_NtCse1nGBsou5OW_5alloc3vecINtB5_3VecTNtNtCs6IAuOt8vWmF_3syn4path15GenericArgumentNtNtBK_5token5CommaEENtNtNtCsfvfooZQ3Axs_4core3ops5deref5Deref5derefBK_, symObjAddr: 0x6EA0, symBinAddr: 0x35940, symSize: 0x24 }
  - { offset: 0x7DC35, size: 0x8, addend: 0x0, symName: __RNvXs6_NtCse1nGBsou5OW_5alloc3vecINtB5_3VecTNtNtCs6IAuOt8vWmF_3syn8generics12GenericParamNtNtBK_5token5CommaEENtNtNtCsfvfooZQ3Axs_4core3ops5deref5Deref5derefBK_, symObjAddr: 0x6EC4, symBinAddr: 0x35964, symSize: 0x24 }
  - { offset: 0x7DC75, size: 0x8, addend: 0x0, symName: __RNvXs6_NtCse1nGBsou5OW_5alloc3vecINtB5_3VecTNtNtCs6IAuOt8vWmF_3syn8generics13CapturedParamNtNtBK_5token5CommaEENtNtNtCsfvfooZQ3Axs_4core3ops5deref5Deref5derefBK_, symObjAddr: 0x6EE8, symBinAddr: 0x35988, symSize: 0x24 }
  - { offset: 0x7DCB5, size: 0x8, addend: 0x0, symName: __RNvXs6_NtCse1nGBsou5OW_5alloc3vecINtB5_3VecTNtNtCs6IAuOt8vWmF_3syn8generics14TypeParamBoundNtNtBK_5token4PlusEENtNtNtCsfvfooZQ3Axs_4core3ops5deref5Deref5derefBK_, symObjAddr: 0x6F0C, symBinAddr: 0x359AC, symSize: 0x24 }
  - { offset: 0x7DCF5, size: 0x8, addend: 0x0, symName: __RNvXs6_NtCse1nGBsou5OW_5alloc3vecINtB5_3VecTNtNtCs6IAuOt8vWmF_3syn8generics14WherePredicateNtNtBK_5token5CommaEENtNtNtCsfvfooZQ3Axs_4core3ops5deref5Deref5derefBK_, symObjAddr: 0x6F30, symBinAddr: 0x359D0, symSize: 0x24 }
  - { offset: 0x7DD35, size: 0x8, addend: 0x0, symName: __RNvXs6_NtCse1nGBsou5OW_5alloc3vecINtB5_3VecTNtNtCs6IAuOt8vWmF_3syn8lifetime8LifetimeNtNtBK_5token4PlusEENtNtNtCsfvfooZQ3Axs_4core3ops5deref5Deref5derefBK_, symObjAddr: 0x6F54, symBinAddr: 0x359F4, symSize: 0x24 }
  - { offset: 0x7DD75, size: 0x8, addend: 0x0, symName: __RNvXs6_NtCse1nGBsou5OW_5alloc3vecINtB5_3VechENtNtNtCsfvfooZQ3Axs_4core3ops5deref5Deref5derefCs6IAuOt8vWmF_3syn, symObjAddr: 0x6F78, symBinAddr: 0x35A18, symSize: 0x24 }
  - { offset: 0x7E53B, size: 0x8, addend: 0x0, symName: __RNvXsb_NtCse1nGBsou5OW_5alloc3vecINtB5_3VecNtNtCs6IAuOt8vWmF_3syn5error12ErrorMessageEINtNtNtCsfvfooZQ3Axs_4core3ops5index5IndexjE5indexBJ_, symObjAddr: 0x7EA4, symBinAddr: 0x36890, symSize: 0x84 }
  - { offset: 0x7E6BD, size: 0x8, addend: 0x0, symName: __RNvXsb_NtCse1nGBsou5OW_5alloc3vecINtB5_3VecReEINtNtNtCsfvfooZQ3Axs_4core3ops5index5IndexjE5indexCs6IAuOt8vWmF_3syn, symObjAddr: 0x7F28, symBinAddr: 0x36914, symSize: 0x84 }
  - { offset: 0x7E83F, size: 0x8, addend: 0x0, symName: __RNvXsb_NtCse1nGBsou5OW_5alloc3vecINtB5_3VecTNtNtCs6IAuOt8vWmF_3syn3pat3PatNtNtBK_5token5CommaEEINtNtNtCsfvfooZQ3Axs_4core3ops5index5IndexjE5indexBK_, symObjAddr: 0x7FAC, symBinAddr: 0x36998, symSize: 0x84 }
  - { offset: 0x7E9C1, size: 0x8, addend: 0x0, symName: __RNvXsb_NtCse1nGBsou5OW_5alloc3vecINtB5_3VecTNtNtCs6IAuOt8vWmF_3syn4path11PathSegmentNtNtBK_5token7PathSepEEINtNtNtCsfvfooZQ3Axs_4core3ops5index5IndexjE5indexBK_, symObjAddr: 0x8030, symBinAddr: 0x36A1C, symSize: 0x84 }
  - { offset: 0x7EB43, size: 0x8, addend: 0x0, symName: __RNvXsb_NtCse1nGBsou5OW_5alloc3vecINtB5_3VechEINtNtNtCsfvfooZQ3Axs_4core3ops5index5IndexINtNtBM_5range9RangeFromjEE5indexCs6IAuOt8vWmF_3syn, symObjAddr: 0x80B4, symBinAddr: 0x36AA0, symSize: 0x80 }
  - { offset: 0x7ECC5, size: 0x8, addend: 0x0, symName: __RNvXsb_NtCse1nGBsou5OW_5alloc3vecINtB5_3VechEINtNtNtCsfvfooZQ3Axs_4core3ops5index5IndexjE5indexCs6IAuOt8vWmF_3syn, symObjAddr: 0x8134, symBinAddr: 0x36B20, symSize: 0x80 }
  - { offset: 0x7EE52, size: 0x8, addend: 0x0, symName: __RNvXNtNtCse1nGBsou5OW_5alloc3vec11spec_extendINtB4_3VecNtCs3cP53eQoTwO_11proc_macro29TokenTreeEINtB2_10SpecExtendBR_INtNtNtNtCsfvfooZQ3Axs_4core4iter8adapters7flatten7FlattenINtNtB1V_3map3MapIB2N_IB2N_INtNtNtB1Z_5slice4iter4IterNtNtCs6IAuOt8vWmF_3syn5error12ErrorMessageENvMs_B3G_B3E_16to_compile_errorENCINvXs7_BT_NtBT_11TokenStreamINtNtNtB1X_6traits7collect12FromIteratorB53_E9from_iterB38_E0ENCINvXs6_NtBT_3impNtB6u_11TokenStreamIB5m_B6D_E9from_iterB33_Es_0EEE11spec_extendB3I_, symObjAddr: 0x6590, symBinAddr: 0x35360, symSize: 0x24 }
  - { offset: 0x7EEAA, size: 0x8, addend: 0x0, symName: __RNvXs0_NtNtCse1nGBsou5OW_5alloc3vec11spec_extendINtB7_3VecNtNtCs6IAuOt8vWmF_3syn4attr9AttributeEINtB5_10SpecExtendBU_INtNtB7_9into_iter8IntoIterBU_EE11spec_extendBY_, symObjAddr: 0x6AB8, symBinAddr: 0x35620, symSize: 0x98 }
  - { offset: 0x7EF16, size: 0x8, addend: 0x0, symName: __RNvXs_NtNtCse1nGBsou5OW_5alloc3vec11spec_extendINtB6_3VecNtNtCs6IAuOt8vWmF_3syn8generics14TypeParamBoundEINtB4_10SpecExtendBT_INtNtCsfvfooZQ3Axs_4core6option8IntoIterBT_EE11spec_extendBX_, symObjAddr: 0x7E5C, symBinAddr: 0x36848, symSize: 0x24 }
  - { offset: 0x7EF68, size: 0x8, addend: 0x0, symName: __RNvXs_NtNtCse1nGBsou5OW_5alloc3vec11spec_extendINtB6_3VecNtNtCs6IAuOt8vWmF_3syn8generics14TypeParamBoundEINtB4_10SpecExtendBT_INtNtNtNtCsfvfooZQ3Axs_4core4iter8adapters3map3MapINtNtB6_9into_iter8IntoIterTBT_NtNtBX_5token4PlusEENCNvXs8_NtBX_10punctuatedINtB3L_10PunctuatedBT_B3j_ENtNtNtB27_6traits7collect12IntoIterator9into_iter0EE11spec_extendBX_, symObjAddr: 0x7E80, symBinAddr: 0x3686C, symSize: 0x24 }
  - { offset: 0x7EFC1, size: 0x8, addend: 0x0, symName: __RNvXs7_NtCse1nGBsou5OW_5alloc3vecINtB5_3VecTNtNtCs6IAuOt8vWmF_3syn4path11PathSegmentNtNtBK_5token7PathSepEENtNtNtCsfvfooZQ3Axs_4core3ops5deref8DerefMut9deref_mutBK_, symObjAddr: 0x6FC0, symBinAddr: 0x35A3C, symSize: 0x24 }
  - { offset: 0x7F097, size: 0x8, addend: 0x0, symName: __RNvXs9_NtCse1nGBsou5OW_5alloc3vecINtB5_3VecNtNtCs6IAuOt8vWmF_3syn4attr9AttributeENtNtCsfvfooZQ3Axs_4core5clone5Clone5cloneBJ_, symObjAddr: 0x7008, symBinAddr: 0x35A60, symSize: 0x88 }
  - { offset: 0x7F28E, size: 0x8, addend: 0x0, symName: __RNvXs9_NtCse1nGBsou5OW_5alloc3vecINtB5_3VecNtNtCs6IAuOt8vWmF_3syn4expr3ArmENtNtCsfvfooZQ3Axs_4core5clone5Clone5cloneBJ_, symObjAddr: 0x7090, symBinAddr: 0x35AE8, symSize: 0x88 }
  - { offset: 0x7F485, size: 0x8, addend: 0x0, symName: __RNvXs9_NtCse1nGBsou5OW_5alloc3vecINtB5_3VecNtNtCs6IAuOt8vWmF_3syn4item11ForeignItemENtNtCsfvfooZQ3Axs_4core5clone5Clone5cloneBJ_, symObjAddr: 0x7118, symBinAddr: 0x35B70, symSize: 0x88 }
  - { offset: 0x7F67C, size: 0x8, addend: 0x0, symName: __RNvXs9_NtCse1nGBsou5OW_5alloc3vecINtB5_3VecNtNtCs6IAuOt8vWmF_3syn4item4ItemENtNtCsfvfooZQ3Axs_4core5clone5Clone5cloneBJ_, symObjAddr: 0x71A0, symBinAddr: 0x35BF8, symSize: 0x88 }
  - { offset: 0x7F873, size: 0x8, addend: 0x0, symName: __RNvXs9_NtCse1nGBsou5OW_5alloc3vecINtB5_3VecNtNtCs6IAuOt8vWmF_3syn4item8ImplItemENtNtCsfvfooZQ3Axs_4core5clone5Clone5cloneBJ_, symObjAddr: 0x7228, symBinAddr: 0x35C80, symSize: 0x88 }
  - { offset: 0x7FA6A, size: 0x8, addend: 0x0, symName: __RNvXs9_NtCse1nGBsou5OW_5alloc3vecINtB5_3VecNtNtCs6IAuOt8vWmF_3syn4item9TraitItemENtNtCsfvfooZQ3Axs_4core5clone5Clone5cloneBJ_, symObjAddr: 0x72B0, symBinAddr: 0x35D08, symSize: 0x88 }
  - { offset: 0x7FC61, size: 0x8, addend: 0x0, symName: __RNvXs9_NtCse1nGBsou5OW_5alloc3vecINtB5_3VecNtNtCs6IAuOt8vWmF_3syn4stmt4StmtENtNtCsfvfooZQ3Axs_4core5clone5Clone5cloneBJ_, symObjAddr: 0x7338, symBinAddr: 0x35D90, symSize: 0x88 }
  - { offset: 0x7FE58, size: 0x8, addend: 0x0, symName: __RNvXs9_NtCse1nGBsou5OW_5alloc3vecINtB5_3VecNtNtCs6IAuOt8vWmF_3syn5error12ErrorMessageENtNtCsfvfooZQ3Axs_4core5clone5Clone5cloneBJ_, symObjAddr: 0x73C0, symBinAddr: 0x35E18, symSize: 0x88 }
  - { offset: 0x8004F, size: 0x8, addend: 0x0, symName: __RNvXs9_NtCse1nGBsou5OW_5alloc3vecINtB5_3VecTNtNtCs6IAuOt8vWmF_3syn2ty4TypeNtNtBK_5token5CommaEENtNtCsfvfooZQ3Axs_4core5clone5Clone5cloneBK_, symObjAddr: 0x7448, symBinAddr: 0x35EA0, symSize: 0x88 }
  - { offset: 0x80246, size: 0x8, addend: 0x0, symName: __RNvXs9_NtCse1nGBsou5OW_5alloc3vecINtB5_3VecTNtNtCs6IAuOt8vWmF_3syn2ty9BareFnArgNtNtBK_5token5CommaEENtNtCsfvfooZQ3Axs_4core5clone5Clone5cloneBK_, symObjAddr: 0x74D0, symBinAddr: 0x35F28, symSize: 0x88 }
  - { offset: 0x8043D, size: 0x8, addend: 0x0, symName: __RNvXs9_NtCse1nGBsou5OW_5alloc3vecINtB5_3VecTNtNtCs6IAuOt8vWmF_3syn3pat3PatNtNtBK_5token2OrEENtNtCsfvfooZQ3Axs_4core5clone5Clone5cloneBK_, symObjAddr: 0x7558, symBinAddr: 0x35FB0, symSize: 0x88 }
  - { offset: 0x80634, size: 0x8, addend: 0x0, symName: __RNvXs9_NtCse1nGBsou5OW_5alloc3vecINtB5_3VecTNtNtCs6IAuOt8vWmF_3syn3pat3PatNtNtBK_5token5CommaEENtNtCsfvfooZQ3Axs_4core5clone5Clone5cloneBK_, symObjAddr: 0x75E0, symBinAddr: 0x36038, symSize: 0x88 }
  - { offset: 0x8082B, size: 0x8, addend: 0x0, symName: __RNvXs9_NtCse1nGBsou5OW_5alloc3vecINtB5_3VecTNtNtCs6IAuOt8vWmF_3syn3pat8FieldPatNtNtBK_5token5CommaEENtNtCsfvfooZQ3Axs_4core5clone5Clone5cloneBK_, symObjAddr: 0x7668, symBinAddr: 0x360C0, symSize: 0x88 }
  - { offset: 0x80A22, size: 0x8, addend: 0x0, symName: __RNvXs9_NtCse1nGBsou5OW_5alloc3vecINtB5_3VecTNtNtCs6IAuOt8vWmF_3syn4data5FieldNtNtBK_5token5CommaEENtNtCsfvfooZQ3Axs_4core5clone5Clone5cloneBK_, symObjAddr: 0x76F0, symBinAddr: 0x36148, symSize: 0x88 }
  - { offset: 0x80C19, size: 0x8, addend: 0x0, symName: __RNvXs9_NtCse1nGBsou5OW_5alloc3vecINtB5_3VecTNtNtCs6IAuOt8vWmF_3syn4data7VariantNtNtBK_5token5CommaEENtNtCsfvfooZQ3Axs_4core5clone5Clone5cloneBK_, symObjAddr: 0x7778, symBinAddr: 0x361D0, symSize: 0x88 }
  - { offset: 0x80E10, size: 0x8, addend: 0x0, symName: __RNvXs9_NtCse1nGBsou5OW_5alloc3vecINtB5_3VecTNtNtCs6IAuOt8vWmF_3syn4expr10FieldValueNtNtBK_5token5CommaEENtNtCsfvfooZQ3Axs_4core5clone5Clone5cloneBK_, symObjAddr: 0x7800, symBinAddr: 0x36258, symSize: 0x88 }
  - { offset: 0x81007, size: 0x8, addend: 0x0, symName: __RNvXs9_NtCse1nGBsou5OW_5alloc3vecINtB5_3VecTNtNtCs6IAuOt8vWmF_3syn4expr4ExprNtNtBK_5token5CommaEENtNtCsfvfooZQ3Axs_4core5clone5Clone5cloneBK_, symObjAddr: 0x7888, symBinAddr: 0x362E0, symSize: 0x88 }
  - { offset: 0x811FE, size: 0x8, addend: 0x0, symName: __RNvXs9_NtCse1nGBsou5OW_5alloc3vecINtB5_3VecTNtNtCs6IAuOt8vWmF_3syn4item5FnArgNtNtBK_5token5CommaEENtNtCsfvfooZQ3Axs_4core5clone5Clone5cloneBK_, symObjAddr: 0x7910, symBinAddr: 0x36368, symSize: 0x88 }
  - { offset: 0x813F5, size: 0x8, addend: 0x0, symName: __RNvXs9_NtCse1nGBsou5OW_5alloc3vecINtB5_3VecTNtNtCs6IAuOt8vWmF_3syn4item7UseTreeNtNtBK_5token5CommaEENtNtCsfvfooZQ3Axs_4core5clone5Clone5cloneBK_, symObjAddr: 0x7998, symBinAddr: 0x363F0, symSize: 0x88 }
  - { offset: 0x815EC, size: 0x8, addend: 0x0, symName: __RNvXs9_NtCse1nGBsou5OW_5alloc3vecINtB5_3VecTNtNtCs6IAuOt8vWmF_3syn4path11PathSegmentNtNtBK_5token7PathSepEENtNtCsfvfooZQ3Axs_4core5clone5Clone5cloneBK_, symObjAddr: 0x7A20, symBinAddr: 0x36478, symSize: 0x88 }
  - { offset: 0x817E3, size: 0x8, addend: 0x0, symName: __RNvXs9_NtCse1nGBsou5OW_5alloc3vecINtB5_3VecTNtNtCs6IAuOt8vWmF_3syn4path15GenericArgumentNtNtBK_5token5CommaEENtNtCsfvfooZQ3Axs_4core5clone5Clone5cloneBK_, symObjAddr: 0x7AA8, symBinAddr: 0x36500, symSize: 0x88 }
  - { offset: 0x819DA, size: 0x8, addend: 0x0, symName: __RNvXs9_NtCse1nGBsou5OW_5alloc3vecINtB5_3VecTNtNtCs6IAuOt8vWmF_3syn8generics12GenericParamNtNtBK_5token5CommaEENtNtCsfvfooZQ3Axs_4core5clone5Clone5cloneBK_, symObjAddr: 0x7B30, symBinAddr: 0x36588, symSize: 0x88 }
  - { offset: 0x81BD1, size: 0x8, addend: 0x0, symName: __RNvXs9_NtCse1nGBsou5OW_5alloc3vecINtB5_3VecTNtNtCs6IAuOt8vWmF_3syn8generics13CapturedParamNtNtBK_5token5CommaEENtNtCsfvfooZQ3Axs_4core5clone5Clone5cloneBK_, symObjAddr: 0x7BB8, symBinAddr: 0x36610, symSize: 0x88 }
  - { offset: 0x81DC8, size: 0x8, addend: 0x0, symName: __RNvXs9_NtCse1nGBsou5OW_5alloc3vecINtB5_3VecTNtNtCs6IAuOt8vWmF_3syn8generics14TypeParamBoundNtNtBK_5token4PlusEENtNtCsfvfooZQ3Axs_4core5clone5Clone5cloneBK_, symObjAddr: 0x7C40, symBinAddr: 0x36698, symSize: 0x88 }
  - { offset: 0x81FBF, size: 0x8, addend: 0x0, symName: __RNvXs9_NtCse1nGBsou5OW_5alloc3vecINtB5_3VecTNtNtCs6IAuOt8vWmF_3syn8generics14WherePredicateNtNtBK_5token5CommaEENtNtCsfvfooZQ3Axs_4core5clone5Clone5cloneBK_, symObjAddr: 0x7CC8, symBinAddr: 0x36720, symSize: 0x88 }
  - { offset: 0x821B6, size: 0x8, addend: 0x0, symName: __RNvXs9_NtCse1nGBsou5OW_5alloc3vecINtB5_3VecTNtNtCs6IAuOt8vWmF_3syn8lifetime8LifetimeNtNtBK_5token4PlusEENtNtCsfvfooZQ3Axs_4core5clone5Clone5cloneBK_, symObjAddr: 0x7D50, symBinAddr: 0x367A8, symSize: 0x88 }
  - { offset: 0x823B3, size: 0x8, addend: 0x0, symName: __RNvXsc_NtCse1nGBsou5OW_5alloc3vecINtB5_3VecNtNtCs6IAuOt8vWmF_3syn6buffer5EntryEINtNtNtCsfvfooZQ3Axs_4core3ops5index8IndexMutjE9index_mutBJ_, symObjAddr: 0x81B4, symBinAddr: 0x36BA0, symSize: 0x84 }
  - { offset: 0x82507, size: 0x8, addend: 0x0, symName: __RNvXsc_NtCse1nGBsou5OW_5alloc3vecINtB5_3VechEINtNtNtCsfvfooZQ3Axs_4core3ops5index8IndexMutjE9index_mutCs6IAuOt8vWmF_3syn, symObjAddr: 0x8238, symBinAddr: 0x36C24, symSize: 0x80 }
  - { offset: 0x82661, size: 0x8, addend: 0x0, symName: __RNvXse_NtCse1nGBsou5OW_5alloc3vecINtB5_3VecNtNtCs6IAuOt8vWmF_3syn4attr9AttributeENtNtNtNtCsfvfooZQ3Axs_4core4iter6traits7collect12IntoIterator9into_iterBJ_, symObjAddr: 0x82B8, symBinAddr: 0x36CA4, symSize: 0xDC }
  - { offset: 0x828F3, size: 0x8, addend: 0x0, symName: __RNvXse_NtCse1nGBsou5OW_5alloc3vecINtB5_3VecNtNtCs6IAuOt8vWmF_3syn8generics14TypeParamBoundENtNtNtNtCsfvfooZQ3Axs_4core4iter6traits7collect12IntoIterator9into_iterBJ_, symObjAddr: 0x855C, symBinAddr: 0x36D80, symSize: 0xE4 }
  - { offset: 0x82B85, size: 0x8, addend: 0x0, symName: __RNvXse_NtCse1nGBsou5OW_5alloc3vecINtB5_3VecTNtNtCs6IAuOt8vWmF_3syn4path11PathSegmentNtNtBK_5token7PathSepEENtNtNtNtCsfvfooZQ3Axs_4core4iter6traits7collect12IntoIterator9into_iterBK_, symObjAddr: 0x8808, symBinAddr: 0x36E64, symSize: 0xE4 }
  - { offset: 0x82E17, size: 0x8, addend: 0x0, symName: __RNvXse_NtCse1nGBsou5OW_5alloc3vecINtB5_3VecTNtNtCs6IAuOt8vWmF_3syn8generics14TypeParamBoundNtNtBK_5token4PlusEENtNtNtNtCsfvfooZQ3Axs_4core4iter6traits7collect12IntoIterator9into_iterBK_, symObjAddr: 0x88EC, symBinAddr: 0x36F48, symSize: 0xDC }
  - { offset: 0x830AF, size: 0x8, addend: 0x0, symName: __RNvXsf_NtCse1nGBsou5OW_5alloc3vecRINtB5_3VecNtNtCs6IAuOt8vWmF_3syn4attr9AttributeENtNtNtNtCsfvfooZQ3Axs_4core4iter6traits7collect12IntoIterator9into_iterBK_, symObjAddr: 0x89C8, symBinAddr: 0x37024, symSize: 0x9C }
  - { offset: 0x8330B, size: 0x8, addend: 0x0, symName: __RNvXsf_NtCse1nGBsou5OW_5alloc3vecRINtB5_3VecNtNtCs6IAuOt8vWmF_3syn4item11ForeignItemENtNtNtNtCsfvfooZQ3Axs_4core4iter6traits7collect12IntoIterator9into_iterBK_, symObjAddr: 0x8A64, symBinAddr: 0x370C0, symSize: 0xA4 }
  - { offset: 0x83567, size: 0x8, addend: 0x0, symName: __RNvXsf_NtCse1nGBsou5OW_5alloc3vecRINtB5_3VecNtNtCs6IAuOt8vWmF_3syn4item4ItemENtNtNtNtCsfvfooZQ3Axs_4core4iter6traits7collect12IntoIterator9into_iterBK_, symObjAddr: 0x8B08, symBinAddr: 0x37164, symSize: 0xA4 }
  - { offset: 0x837C3, size: 0x8, addend: 0x0, symName: __RNvXsf_NtCse1nGBsou5OW_5alloc3vecRINtB5_3VecNtNtCs6IAuOt8vWmF_3syn4item8ImplItemENtNtNtNtCsfvfooZQ3Axs_4core4iter6traits7collect12IntoIterator9into_iterBK_, symObjAddr: 0x8BAC, symBinAddr: 0x37208, symSize: 0xA4 }
  - { offset: 0x83A1F, size: 0x8, addend: 0x0, symName: __RNvXsf_NtCse1nGBsou5OW_5alloc3vecRINtB5_3VecNtNtCs6IAuOt8vWmF_3syn4item9TraitItemENtNtNtNtCsfvfooZQ3Axs_4core4iter6traits7collect12IntoIterator9into_iterBK_, symObjAddr: 0x8C50, symBinAddr: 0x372AC, symSize: 0xA4 }
  - { offset: 0x83C7B, size: 0x8, addend: 0x0, symName: __RNvXsf_NtCse1nGBsou5OW_5alloc3vecRINtB5_3VecNtNtCs6IAuOt8vWmF_3syn4stmt4StmtENtNtNtNtCsfvfooZQ3Axs_4core4iter6traits7collect12IntoIterator9into_iterBK_, symObjAddr: 0x8CF4, symBinAddr: 0x37350, symSize: 0xA4 }
  - { offset: 0x83EDD, size: 0x8, addend: 0x0, symName: __RNvXsg_NtCse1nGBsou5OW_5alloc3vecQINtB5_3VechENtNtNtNtCsfvfooZQ3Axs_4core4iter6traits7collect12IntoIterator9into_iterCs6IAuOt8vWmF_3syn, symObjAddr: 0x9918, symBinAddr: 0x373F4, symSize: 0x98 }
  - { offset: 0x84111, size: 0x8, addend: 0x0, symName: __RNvXsn_NtCse1nGBsou5OW_5alloc3vecINtB5_3VecNtNtCs6IAuOt8vWmF_3syn4attr9AttributeENtNtNtCsfvfooZQ3Axs_4core3ops4drop4Drop4dropBJ_, symObjAddr: 0x99B0, symBinAddr: 0x3748C, symSize: 0x38 }
  - { offset: 0x841C1, size: 0x8, addend: 0x0, symName: __RNvXsn_NtCse1nGBsou5OW_5alloc3vecINtB5_3VecNtNtCs6IAuOt8vWmF_3syn4expr3ArmENtNtNtCsfvfooZQ3Axs_4core3ops4drop4Drop4dropBJ_, symObjAddr: 0x9A20, symBinAddr: 0x374C4, symSize: 0x38 }
  - { offset: 0x84271, size: 0x8, addend: 0x0, symName: __RNvXsn_NtCse1nGBsou5OW_5alloc3vecINtB5_3VecNtNtCs6IAuOt8vWmF_3syn4expr6ExprIfENtNtNtCsfvfooZQ3Axs_4core3ops4drop4Drop4dropBJ_, symObjAddr: 0x9A58, symBinAddr: 0x374FC, symSize: 0x38 }
  - { offset: 0x84321, size: 0x8, addend: 0x0, symName: __RNvXsn_NtCse1nGBsou5OW_5alloc3vecINtB5_3VecNtNtCs6IAuOt8vWmF_3syn4item11ForeignItemENtNtNtCsfvfooZQ3Axs_4core3ops4drop4Drop4dropBJ_, symObjAddr: 0x9A90, symBinAddr: 0x37534, symSize: 0x38 }
  - { offset: 0x843D1, size: 0x8, addend: 0x0, symName: __RNvXsn_NtCse1nGBsou5OW_5alloc3vecINtB5_3VecNtNtCs6IAuOt8vWmF_3syn4item4ItemENtNtNtCsfvfooZQ3Axs_4core3ops4drop4Drop4dropBJ_, symObjAddr: 0x9AC8, symBinAddr: 0x3756C, symSize: 0x38 }
  - { offset: 0x84481, size: 0x8, addend: 0x0, symName: __RNvXsn_NtCse1nGBsou5OW_5alloc3vecINtB5_3VecNtNtCs6IAuOt8vWmF_3syn4item8ImplItemENtNtNtCsfvfooZQ3Axs_4core3ops4drop4Drop4dropBJ_, symObjAddr: 0x9B00, symBinAddr: 0x375A4, symSize: 0x38 }
  - { offset: 0x84531, size: 0x8, addend: 0x0, symName: __RNvXsn_NtCse1nGBsou5OW_5alloc3vecINtB5_3VecNtNtCs6IAuOt8vWmF_3syn4item9TraitItemENtNtNtCsfvfooZQ3Axs_4core3ops4drop4Drop4dropBJ_, symObjAddr: 0x9B38, symBinAddr: 0x375DC, symSize: 0x38 }
  - { offset: 0x845E1, size: 0x8, addend: 0x0, symName: __RNvXsn_NtCse1nGBsou5OW_5alloc3vecINtB5_3VecNtNtCs6IAuOt8vWmF_3syn4stmt4StmtENtNtNtCsfvfooZQ3Axs_4core3ops4drop4Drop4dropBJ_, symObjAddr: 0x9B70, symBinAddr: 0x37614, symSize: 0x38 }
  - { offset: 0x84691, size: 0x8, addend: 0x0, symName: __RNvXsn_NtCse1nGBsou5OW_5alloc3vecINtB5_3VecNtNtCs6IAuOt8vWmF_3syn5error12ErrorMessageENtNtNtCsfvfooZQ3Axs_4core3ops4drop4Drop4dropBJ_, symObjAddr: 0x9BA8, symBinAddr: 0x3764C, symSize: 0x38 }
  - { offset: 0x84741, size: 0x8, addend: 0x0, symName: __RNvXsn_NtCse1nGBsou5OW_5alloc3vecINtB5_3VecNtNtCs6IAuOt8vWmF_3syn6buffer5EntryENtNtNtCsfvfooZQ3Axs_4core3ops4drop4Drop4dropBJ_, symObjAddr: 0x9BE0, symBinAddr: 0x37684, symSize: 0x38 }
  - { offset: 0x847F1, size: 0x8, addend: 0x0, symName: __RNvXsn_NtCse1nGBsou5OW_5alloc3vecINtB5_3VecNtNtCs6IAuOt8vWmF_3syn8generics14TypeParamBoundENtNtNtCsfvfooZQ3Axs_4core3ops4drop4Drop4dropBJ_, symObjAddr: 0x9C18, symBinAddr: 0x376BC, symSize: 0x38 }
  - { offset: 0x848A1, size: 0x8, addend: 0x0, symName: __RNvXsn_NtCse1nGBsou5OW_5alloc3vecINtB5_3VecReENtNtNtCsfvfooZQ3Axs_4core3ops4drop4Drop4dropCs6IAuOt8vWmF_3syn, symObjAddr: 0x9C50, symBinAddr: 0x376F4, symSize: 0x24 }
  - { offset: 0x84951, size: 0x8, addend: 0x0, symName: __RNvXsn_NtCse1nGBsou5OW_5alloc3vecINtB5_3VecTNtNtCs6IAuOt8vWmF_3syn2ty4TypeNtNtBK_5token5CommaEENtNtNtCsfvfooZQ3Axs_4core3ops4drop4Drop4dropBK_, symObjAddr: 0x9C74, symBinAddr: 0x37718, symSize: 0x38 }
  - { offset: 0x84A01, size: 0x8, addend: 0x0, symName: __RNvXsn_NtCse1nGBsou5OW_5alloc3vecINtB5_3VecTNtNtCs6IAuOt8vWmF_3syn2ty9BareFnArgNtNtBK_5token5CommaEENtNtNtCsfvfooZQ3Axs_4core3ops4drop4Drop4dropBK_, symObjAddr: 0x9CAC, symBinAddr: 0x37750, symSize: 0x38 }
  - { offset: 0x84AB1, size: 0x8, addend: 0x0, symName: __RNvXsn_NtCse1nGBsou5OW_5alloc3vecINtB5_3VecTNtNtCs6IAuOt8vWmF_3syn3pat3PatNtNtBK_5token2OrEENtNtNtCsfvfooZQ3Axs_4core3ops4drop4Drop4dropBK_, symObjAddr: 0x9CE4, symBinAddr: 0x37788, symSize: 0x38 }
  - { offset: 0x84B61, size: 0x8, addend: 0x0, symName: __RNvXsn_NtCse1nGBsou5OW_5alloc3vecINtB5_3VecTNtNtCs6IAuOt8vWmF_3syn3pat3PatNtNtBK_5token5CommaEENtNtNtCsfvfooZQ3Axs_4core3ops4drop4Drop4dropBK_, symObjAddr: 0x9D1C, symBinAddr: 0x377C0, symSize: 0x38 }
  - { offset: 0x84C11, size: 0x8, addend: 0x0, symName: __RNvXsn_NtCse1nGBsou5OW_5alloc3vecINtB5_3VecTNtNtCs6IAuOt8vWmF_3syn3pat8FieldPatNtNtBK_5token5CommaEENtNtNtCsfvfooZQ3Axs_4core3ops4drop4Drop4dropBK_, symObjAddr: 0x9D54, symBinAddr: 0x377F8, symSize: 0x38 }
  - { offset: 0x84CC1, size: 0x8, addend: 0x0, symName: __RNvXsn_NtCse1nGBsou5OW_5alloc3vecINtB5_3VecTNtNtCs6IAuOt8vWmF_3syn4data5FieldNtNtBK_5token5CommaEENtNtNtCsfvfooZQ3Axs_4core3ops4drop4Drop4dropBK_, symObjAddr: 0x9D8C, symBinAddr: 0x37830, symSize: 0x38 }
  - { offset: 0x84D71, size: 0x8, addend: 0x0, symName: __RNvXsn_NtCse1nGBsou5OW_5alloc3vecINtB5_3VecTNtNtCs6IAuOt8vWmF_3syn4data7VariantNtNtBK_5token5CommaEENtNtNtCsfvfooZQ3Axs_4core3ops4drop4Drop4dropBK_, symObjAddr: 0x9DFC, symBinAddr: 0x37868, symSize: 0x38 }
  - { offset: 0x84E21, size: 0x8, addend: 0x0, symName: __RNvXsn_NtCse1nGBsou5OW_5alloc3vecINtB5_3VecTNtNtCs6IAuOt8vWmF_3syn4expr10FieldValueNtNtBK_5token5CommaEENtNtNtCsfvfooZQ3Axs_4core3ops4drop4Drop4dropBK_, symObjAddr: 0x9E34, symBinAddr: 0x378A0, symSize: 0x38 }
  - { offset: 0x84ED1, size: 0x8, addend: 0x0, symName: __RNvXsn_NtCse1nGBsou5OW_5alloc3vecINtB5_3VecTNtNtCs6IAuOt8vWmF_3syn4expr4ExprNtNtBK_5token5CommaEENtNtNtCsfvfooZQ3Axs_4core3ops4drop4Drop4dropBK_, symObjAddr: 0x9E6C, symBinAddr: 0x378D8, symSize: 0x38 }
  - { offset: 0x84F81, size: 0x8, addend: 0x0, symName: __RNvXsn_NtCse1nGBsou5OW_5alloc3vecINtB5_3VecTNtNtCs6IAuOt8vWmF_3syn4item5FnArgNtNtBK_5token5CommaEENtNtNtCsfvfooZQ3Axs_4core3ops4drop4Drop4dropBK_, symObjAddr: 0x9EA4, symBinAddr: 0x37910, symSize: 0x38 }
  - { offset: 0x85031, size: 0x8, addend: 0x0, symName: __RNvXsn_NtCse1nGBsou5OW_5alloc3vecINtB5_3VecTNtNtCs6IAuOt8vWmF_3syn4item7UseTreeNtNtBK_5token5CommaEENtNtNtCsfvfooZQ3Axs_4core3ops4drop4Drop4dropBK_, symObjAddr: 0x9EDC, symBinAddr: 0x37948, symSize: 0x38 }
  - { offset: 0x850E1, size: 0x8, addend: 0x0, symName: __RNvXsn_NtCse1nGBsou5OW_5alloc3vecINtB5_3VecTNtNtCs6IAuOt8vWmF_3syn4path11PathSegmentNtNtBK_5token7PathSepEENtNtNtCsfvfooZQ3Axs_4core3ops4drop4Drop4dropBK_, symObjAddr: 0x9F14, symBinAddr: 0x37980, symSize: 0x38 }
  - { offset: 0x85191, size: 0x8, addend: 0x0, symName: __RNvXsn_NtCse1nGBsou5OW_5alloc3vecINtB5_3VecTNtNtCs6IAuOt8vWmF_3syn4path15GenericArgumentNtNtBK_5token5CommaEENtNtNtCsfvfooZQ3Axs_4core3ops4drop4Drop4dropBK_, symObjAddr: 0x9F4C, symBinAddr: 0x379B8, symSize: 0x38 }
  - { offset: 0x85241, size: 0x8, addend: 0x0, symName: __RNvXsn_NtCse1nGBsou5OW_5alloc3vecINtB5_3VecTNtNtCs6IAuOt8vWmF_3syn8generics12GenericParamNtNtBK_5token5CommaEENtNtNtCsfvfooZQ3Axs_4core3ops4drop4Drop4dropBK_, symObjAddr: 0x9F84, symBinAddr: 0x379F0, symSize: 0x38 }
  - { offset: 0x852F1, size: 0x8, addend: 0x0, symName: __RNvXsn_NtCse1nGBsou5OW_5alloc3vecINtB5_3VecTNtNtCs6IAuOt8vWmF_3syn8generics13CapturedParamNtNtBK_5token5CommaEENtNtNtCsfvfooZQ3Axs_4core3ops4drop4Drop4dropBK_, symObjAddr: 0x9FBC, symBinAddr: 0x37A28, symSize: 0x38 }
  - { offset: 0x853A1, size: 0x8, addend: 0x0, symName: __RNvXsn_NtCse1nGBsou5OW_5alloc3vecINtB5_3VecTNtNtCs6IAuOt8vWmF_3syn8generics14TypeParamBoundNtNtBK_5token4PlusEENtNtNtCsfvfooZQ3Axs_4core3ops4drop4Drop4dropBK_, symObjAddr: 0x9FF4, symBinAddr: 0x37A60, symSize: 0x38 }
  - { offset: 0x85451, size: 0x8, addend: 0x0, symName: __RNvXsn_NtCse1nGBsou5OW_5alloc3vecINtB5_3VecTNtNtCs6IAuOt8vWmF_3syn8generics14WherePredicateNtNtBK_5token5CommaEENtNtNtCsfvfooZQ3Axs_4core3ops4drop4Drop4dropBK_, symObjAddr: 0xA02C, symBinAddr: 0x37A98, symSize: 0x38 }
  - { offset: 0x85501, size: 0x8, addend: 0x0, symName: __RNvXsn_NtCse1nGBsou5OW_5alloc3vecINtB5_3VecTNtNtCs6IAuOt8vWmF_3syn8lifetime8LifetimeNtNtBK_5token4PlusEENtNtNtCsfvfooZQ3Axs_4core3ops4drop4Drop4dropBK_, symObjAddr: 0xA064, symBinAddr: 0x37AD0, symSize: 0x38 }
  - { offset: 0x855B7, size: 0x8, addend: 0x0, symName: __RNvXsp_NtCse1nGBsou5OW_5alloc3vecINtB5_3VecNtNtCs6IAuOt8vWmF_3syn5error12ErrorMessageENtNtCsfvfooZQ3Axs_4core3fmt5Debug3fmtBJ_, symObjAddr: 0xA3C8, symBinAddr: 0x37B08, symSize: 0x74 }
  - { offset: 0x856C7, size: 0x8, addend: 0x0, symName: __RNvXsp_NtCse1nGBsou5OW_5alloc3vecINtB5_3VechENtNtCsfvfooZQ3Axs_4core3fmt5Debug3fmtCs6IAuOt8vWmF_3syn, symObjAddr: 0xA43C, symBinAddr: 0x37B7C, symSize: 0x70 }
  - { offset: 0x87BF5, size: 0x8, addend: 0x0, symName: __RNvXsV_NtCse1nGBsou5OW_5alloc6stringINtNtB7_3vec3VechEINtNtCsfvfooZQ3Axs_4core7convert4FromNtB5_6StringE4fromCs6IAuOt8vWmF_3syn, symObjAddr: 0x7DD8, symBinAddr: 0x36830, symSize: 0x18 }
  - { offset: 0x87E4A, size: 0x8, addend: 0x0, symName: __RNvXNvMs_NtNtCse1nGBsou5OW_5alloc3ffi5c_strNtB7_7CString3newINtNtBb_3vec3VechENtB2_11SpecNewImpl13spec_new_implCs6IAuOt8vWmF_3syn, symObjAddr: 0x6940, symBinAddr: 0x354A8, symSize: 0x178 }
  - { offset: 0x8DAC1, size: 0x8, addend: 0x0, symName: __RINvMs_NtCse1nGBsou5OW_5alloc3vecINtB5_3VecReE10retain_mutNCNvMNtCs6IAuOt8vWmF_3syn9lookaheadNtBZ_10Lookahead15error0EB11_, symObjAddr: 0x0, symBinAddr: 0x30F2C, symSize: 0xE4 }
  - { offset: 0x8DD9D, size: 0x8, addend: 0x0, symName: __RINvMsi_NtCse1nGBsou5OW_5alloc3vecINtB6_3VecNtCs3cP53eQoTwO_11proc_macro29TokenTreeE16extend_desugaredINtNtNtNtCsfvfooZQ3Axs_4core4iter8adapters7flatten7FlattenINtNtB1H_3map3MapIB2z_IB2z_INtNtNtB1L_5slice4iter4IterNtNtCs6IAuOt8vWmF_3syn5error12ErrorMessageENvMs_B3s_B3q_16to_compile_errorENCINvXs7_BI_NtBI_11TokenStreamINtNtNtB1J_6traits7collect12FromIteratorB4P_E9from_iterB2U_E0ENCINvXs6_NtBI_3impNtB6g_11TokenStreamIB58_B6p_E9from_iterB2P_Es_0EEEB3u_, symObjAddr: 0xE4, symBinAddr: 0x31010, symSize: 0x1D4 }
  - { offset: 0x8E73F, size: 0x8, addend: 0x0, symName: __RINvMsi_NtCse1nGBsou5OW_5alloc3vecINtB6_3VecNtNtCs6IAuOt8vWmF_3syn8generics14TypeParamBoundE14extend_trustedINtNtCsfvfooZQ3Axs_4core6option8IntoIterBG_EEBK_, symObjAddr: 0x93C, symBinAddr: 0x311E4, symSize: 0x1A0 }
  - { offset: 0x8E9EB, size: 0x8, addend: 0x0, symName: __RINvMsi_NtCse1nGBsou5OW_5alloc3vecINtB6_3VecNtNtCs6IAuOt8vWmF_3syn8generics14TypeParamBoundE14extend_trustedINtNtNtNtCsfvfooZQ3Axs_4core4iter8adapters3map3MapINtNtB6_9into_iter8IntoIterTBG_NtNtBK_5token4PlusEENCNvXs8_NtBK_10punctuatedINtB3t_10PunctuatedBG_B31_ENtNtNtB1P_6traits7collect12IntoIterator9into_iter0EEBK_, symObjAddr: 0xADC, symBinAddr: 0x31384, symSize: 0x188 }
  - { offset: 0x8ED29, size: 0x8, addend: 0x0, symName: __RNvMNtCse1nGBsou5OW_5alloc3vecINtB2_3VecNtNtCs6IAuOt8vWmF_3syn4attr9AttributeE3newBG_, symObjAddr: 0x12C0, symBinAddr: 0x31908, symSize: 0x14 }
  - { offset: 0x8ED46, size: 0x8, addend: 0x0, symName: __RNvMNtCse1nGBsou5OW_5alloc3vecINtB2_3VecNtNtCs6IAuOt8vWmF_3syn4expr3ArmE3newBG_, symObjAddr: 0x131C, symBinAddr: 0x3191C, symSize: 0x14 }
  - { offset: 0x8ED63, size: 0x8, addend: 0x0, symName: __RNvMNtCse1nGBsou5OW_5alloc3vecINtB2_3VecNtNtCs6IAuOt8vWmF_3syn4expr6ExprIfE3newBG_, symObjAddr: 0x1330, symBinAddr: 0x31930, symSize: 0x14 }
  - { offset: 0x8ED80, size: 0x8, addend: 0x0, symName: __RNvMNtCse1nGBsou5OW_5alloc3vecINtB2_3VecNtNtCs6IAuOt8vWmF_3syn4item11ForeignItemE3newBG_, symObjAddr: 0x1344, symBinAddr: 0x31944, symSize: 0x14 }
  - { offset: 0x8ED9D, size: 0x8, addend: 0x0, symName: __RNvMNtCse1nGBsou5OW_5alloc3vecINtB2_3VecNtNtCs6IAuOt8vWmF_3syn4item4ItemE3newBG_, symObjAddr: 0x1358, symBinAddr: 0x31958, symSize: 0x14 }
  - { offset: 0x8EDBA, size: 0x8, addend: 0x0, symName: __RNvMNtCse1nGBsou5OW_5alloc3vecINtB2_3VecNtNtCs6IAuOt8vWmF_3syn4item8ImplItemE3newBG_, symObjAddr: 0x136C, symBinAddr: 0x3196C, symSize: 0x14 }
  - { offset: 0x8EDD7, size: 0x8, addend: 0x0, symName: __RNvMNtCse1nGBsou5OW_5alloc3vecINtB2_3VecNtNtCs6IAuOt8vWmF_3syn4item9TraitItemE3newBG_, symObjAddr: 0x1380, symBinAddr: 0x31980, symSize: 0x14 }
  - { offset: 0x8EDF4, size: 0x8, addend: 0x0, symName: __RNvMNtCse1nGBsou5OW_5alloc3vecINtB2_3VecNtNtCs6IAuOt8vWmF_3syn4stmt4StmtE3newBG_, symObjAddr: 0x1394, symBinAddr: 0x31994, symSize: 0x14 }
  - { offset: 0x8EE11, size: 0x8, addend: 0x0, symName: __RNvMNtCse1nGBsou5OW_5alloc3vecINtB2_3VecNtNtCs6IAuOt8vWmF_3syn6buffer5EntryE3newBG_, symObjAddr: 0x13A8, symBinAddr: 0x319A8, symSize: 0x14 }
  - { offset: 0x8EE90, size: 0x8, addend: 0x0, symName: __RNvMNtCse1nGBsou5OW_5alloc3vecINtB2_3VecNtNtCs6IAuOt8vWmF_3syn8generics14TypeParamBoundE13with_capacityBG_, symObjAddr: 0x13BC, symBinAddr: 0x319BC, symSize: 0x48 }
  - { offset: 0x8EF08, size: 0x8, addend: 0x0, symName: __RNvMNtCse1nGBsou5OW_5alloc3vecINtB2_3VecReE3newCs6IAuOt8vWmF_3syn, symObjAddr: 0x1404, symBinAddr: 0x31A04, symSize: 0x14 }
  - { offset: 0x8EF25, size: 0x8, addend: 0x0, symName: __RNvMNtCse1nGBsou5OW_5alloc3vecINtB2_3VecTNtNtCs6IAuOt8vWmF_3syn2ty4TypeNtNtBH_5token5CommaEE3newBH_, symObjAddr: 0x1418, symBinAddr: 0x31A18, symSize: 0x14 }
  - { offset: 0x8EF42, size: 0x8, addend: 0x0, symName: __RNvMNtCse1nGBsou5OW_5alloc3vecINtB2_3VecTNtNtCs6IAuOt8vWmF_3syn2ty9BareFnArgNtNtBH_5token5CommaEE3newBH_, symObjAddr: 0x142C, symBinAddr: 0x31A2C, symSize: 0x14 }
  - { offset: 0x8EF5F, size: 0x8, addend: 0x0, symName: __RNvMNtCse1nGBsou5OW_5alloc3vecINtB2_3VecTNtNtCs6IAuOt8vWmF_3syn3pat3PatNtNtBH_5token2OrEE3newBH_, symObjAddr: 0x1440, symBinAddr: 0x31A40, symSize: 0x14 }
  - { offset: 0x8EF7C, size: 0x8, addend: 0x0, symName: __RNvMNtCse1nGBsou5OW_5alloc3vecINtB2_3VecTNtNtCs6IAuOt8vWmF_3syn3pat3PatNtNtBH_5token5CommaEE3newBH_, symObjAddr: 0x1454, symBinAddr: 0x31A54, symSize: 0x14 }
  - { offset: 0x8EF99, size: 0x8, addend: 0x0, symName: __RNvMNtCse1nGBsou5OW_5alloc3vecINtB2_3VecTNtNtCs6IAuOt8vWmF_3syn3pat8FieldPatNtNtBH_5token5CommaEE3newBH_, symObjAddr: 0x1468, symBinAddr: 0x31A68, symSize: 0x14 }
  - { offset: 0x8EFB6, size: 0x8, addend: 0x0, symName: __RNvMNtCse1nGBsou5OW_5alloc3vecINtB2_3VecTNtNtCs6IAuOt8vWmF_3syn4data5FieldNtNtBH_5token5CommaEE3newBH_, symObjAddr: 0x147C, symBinAddr: 0x31A7C, symSize: 0x14 }
  - { offset: 0x8EFD3, size: 0x8, addend: 0x0, symName: __RNvMNtCse1nGBsou5OW_5alloc3vecINtB2_3VecTNtNtCs6IAuOt8vWmF_3syn4data7VariantNtNtBH_5token5CommaEE3newBH_, symObjAddr: 0x14A4, symBinAddr: 0x31A90, symSize: 0x14 }
  - { offset: 0x8EFF0, size: 0x8, addend: 0x0, symName: __RNvMNtCse1nGBsou5OW_5alloc3vecINtB2_3VecTNtNtCs6IAuOt8vWmF_3syn4expr10FieldValueNtNtBH_5token5CommaEE3newBH_, symObjAddr: 0x14B8, symBinAddr: 0x31AA4, symSize: 0x14 }
  - { offset: 0x8F00D, size: 0x8, addend: 0x0, symName: __RNvMNtCse1nGBsou5OW_5alloc3vecINtB2_3VecTNtNtCs6IAuOt8vWmF_3syn4expr4ExprNtNtBH_5token5CommaEE3newBH_, symObjAddr: 0x14CC, symBinAddr: 0x31AB8, symSize: 0x14 }
  - { offset: 0x8F02A, size: 0x8, addend: 0x0, symName: __RNvMNtCse1nGBsou5OW_5alloc3vecINtB2_3VecTNtNtCs6IAuOt8vWmF_3syn4item5FnArgNtNtBH_5token5CommaEE3newBH_, symObjAddr: 0x14E0, symBinAddr: 0x31ACC, symSize: 0x14 }
  - { offset: 0x8F047, size: 0x8, addend: 0x0, symName: __RNvMNtCse1nGBsou5OW_5alloc3vecINtB2_3VecTNtNtCs6IAuOt8vWmF_3syn4item7UseTreeNtNtBH_5token5CommaEE3newBH_, symObjAddr: 0x14F4, symBinAddr: 0x31AE0, symSize: 0x14 }
  - { offset: 0x8F064, size: 0x8, addend: 0x0, symName: __RNvMNtCse1nGBsou5OW_5alloc3vecINtB2_3VecTNtNtCs6IAuOt8vWmF_3syn4path11PathSegmentNtNtBH_5token7PathSepEE3newBH_, symObjAddr: 0x1508, symBinAddr: 0x31AF4, symSize: 0x14 }
  - { offset: 0x8F081, size: 0x8, addend: 0x0, symName: __RNvMNtCse1nGBsou5OW_5alloc3vecINtB2_3VecTNtNtCs6IAuOt8vWmF_3syn4path15GenericArgumentNtNtBH_5token5CommaEE3newBH_, symObjAddr: 0x151C, symBinAddr: 0x31B08, symSize: 0x14 }
  - { offset: 0x8F09E, size: 0x8, addend: 0x0, symName: __RNvMNtCse1nGBsou5OW_5alloc3vecINtB2_3VecTNtNtCs6IAuOt8vWmF_3syn8generics12GenericParamNtNtBH_5token5CommaEE3newBH_, symObjAddr: 0x1530, symBinAddr: 0x31B1C, symSize: 0x14 }
  - { offset: 0x8F0BB, size: 0x8, addend: 0x0, symName: __RNvMNtCse1nGBsou5OW_5alloc3vecINtB2_3VecTNtNtCs6IAuOt8vWmF_3syn8generics13CapturedParamNtNtBH_5token5CommaEE3newBH_, symObjAddr: 0x1544, symBinAddr: 0x31B30, symSize: 0x14 }
  - { offset: 0x8F0D8, size: 0x8, addend: 0x0, symName: __RNvMNtCse1nGBsou5OW_5alloc3vecINtB2_3VecTNtNtCs6IAuOt8vWmF_3syn8generics14TypeParamBoundNtNtBH_5token4PlusEE3newBH_, symObjAddr: 0x1558, symBinAddr: 0x31B44, symSize: 0x14 }
  - { offset: 0x8F0F5, size: 0x8, addend: 0x0, symName: __RNvMNtCse1nGBsou5OW_5alloc3vecINtB2_3VecTNtNtCs6IAuOt8vWmF_3syn8generics14WherePredicateNtNtBH_5token5CommaEE3newBH_, symObjAddr: 0x156C, symBinAddr: 0x31B58, symSize: 0x14 }
  - { offset: 0x8F112, size: 0x8, addend: 0x0, symName: __RNvMNtCse1nGBsou5OW_5alloc3vecINtB2_3VecTNtNtCs6IAuOt8vWmF_3syn8lifetime8LifetimeNtNtBH_5token4PlusEE3newBH_, symObjAddr: 0x1580, symBinAddr: 0x31B6C, symSize: 0x14 }
  - { offset: 0x8F12F, size: 0x8, addend: 0x0, symName: __RNvMNtCse1nGBsou5OW_5alloc3vecINtB2_3VechE3newCs6IAuOt8vWmF_3syn, symObjAddr: 0x1594, symBinAddr: 0x31B80, symSize: 0x14 }
  - { offset: 0x8F251, size: 0x8, addend: 0x0, symName: __RNvMs0_NtCse1nGBsou5OW_5alloc3vecINtB5_3VechE17extend_from_sliceCs6IAuOt8vWmF_3syn, symObjAddr: 0x15A8, symBinAddr: 0x31B94, symSize: 0x74 }
  - { offset: 0x8F4D9, size: 0x8, addend: 0x0, symName: __RNvMs0_NtCse1nGBsou5OW_5alloc3vecINtB5_3VechE6resizeCs6IAuOt8vWmF_3syn, symObjAddr: 0x161C, symBinAddr: 0x31C08, symSize: 0x100 }
  - { offset: 0x8F77A, size: 0x8, addend: 0x0, symName: __RNvMs2_NtCse1nGBsou5OW_5alloc3vecINtB5_3VechE11extend_withCs6IAuOt8vWmF_3syn, symObjAddr: 0x171C, symBinAddr: 0x31D08, symSize: 0x230 }
  - { offset: 0x8FB2B, size: 0x8, addend: 0x0, symName: __RNvMs_NtCse1nGBsou5OW_5alloc3vecINtB4_3VecNtNtCs6IAuOt8vWmF_3syn4attr9AttributeE15append_elementsBI_, symObjAddr: 0x194C, symBinAddr: 0x31F38, symSize: 0xD8 }
  - { offset: 0x8FD60, size: 0x8, addend: 0x0, symName: __RNvMs_NtCse1nGBsou5OW_5alloc3vecINtB4_3VecNtNtCs6IAuOt8vWmF_3syn4attr9AttributeE4pushBI_, symObjAddr: 0x1A24, symBinAddr: 0x32010, symSize: 0x118 }
  - { offset: 0x8FFFC, size: 0x8, addend: 0x0, symName: __RNvMs_NtCse1nGBsou5OW_5alloc3vecINtB4_3VecNtNtCs6IAuOt8vWmF_3syn4attr9AttributeE6appendBI_, symObjAddr: 0x1B3C, symBinAddr: 0x32128, symSize: 0x8C }
  - { offset: 0x90231, size: 0x8, addend: 0x0, symName: __RNvMs_NtCse1nGBsou5OW_5alloc3vecINtB4_3VecNtNtCs6IAuOt8vWmF_3syn4attr9AttributeE7reserveBI_, symObjAddr: 0x1BC8, symBinAddr: 0x321B4, symSize: 0xC8 }
  - { offset: 0x90408, size: 0x8, addend: 0x0, symName: __RNvMs_NtCse1nGBsou5OW_5alloc3vecINtB4_3VecNtNtCs6IAuOt8vWmF_3syn4attr9AttributeE8as_sliceBI_, symObjAddr: 0x1C90, symBinAddr: 0x3227C, symSize: 0x64 }
  - { offset: 0x904E7, size: 0x8, addend: 0x0, symName: __RNvMs_NtCse1nGBsou5OW_5alloc3vecINtB4_3VecNtNtCs6IAuOt8vWmF_3syn4attr9AttributeE8is_emptyBI_, symObjAddr: 0x1CF4, symBinAddr: 0x322E0, symSize: 0x20 }
  - { offset: 0x90547, size: 0x8, addend: 0x0, symName: __RNvMs_NtCse1nGBsou5OW_5alloc3vecINtB4_3VecNtNtCs6IAuOt8vWmF_3syn4expr3ArmE3lenBI_, symObjAddr: 0x1DDC, symBinAddr: 0x32300, symSize: 0x18 }
  - { offset: 0x9068F, size: 0x8, addend: 0x0, symName: __RNvMs_NtCse1nGBsou5OW_5alloc3vecINtB4_3VecNtNtCs6IAuOt8vWmF_3syn4expr3ArmE4pushBI_, symObjAddr: 0x1DF4, symBinAddr: 0x32318, symSize: 0x120 }
  - { offset: 0x908DD, size: 0x8, addend: 0x0, symName: __RNvMs_NtCse1nGBsou5OW_5alloc3vecINtB4_3VecNtNtCs6IAuOt8vWmF_3syn4expr3ArmE8as_sliceBI_, symObjAddr: 0x1F14, symBinAddr: 0x32438, symSize: 0x64 }
  - { offset: 0x90AF1, size: 0x8, addend: 0x0, symName: __RNvMs_NtCse1nGBsou5OW_5alloc3vecINtB4_3VecNtNtCs6IAuOt8vWmF_3syn4expr6ExprIfE3popBI_, symObjAddr: 0x1F78, symBinAddr: 0x3249C, symSize: 0x100 }
  - { offset: 0x90D65, size: 0x8, addend: 0x0, symName: __RNvMs_NtCse1nGBsou5OW_5alloc3vecINtB4_3VecNtNtCs6IAuOt8vWmF_3syn4expr6ExprIfE4pushBI_, symObjAddr: 0x2078, symBinAddr: 0x3259C, symSize: 0x120 }
  - { offset: 0x9102F, size: 0x8, addend: 0x0, symName: __RNvMs_NtCse1nGBsou5OW_5alloc3vecINtB4_3VecNtNtCs6IAuOt8vWmF_3syn4item11ForeignItemE4pushBI_, symObjAddr: 0x2198, symBinAddr: 0x326BC, symSize: 0x120 }
  - { offset: 0x912F9, size: 0x8, addend: 0x0, symName: __RNvMs_NtCse1nGBsou5OW_5alloc3vecINtB4_3VecNtNtCs6IAuOt8vWmF_3syn4item4ItemE4pushBI_, symObjAddr: 0x22B8, symBinAddr: 0x327DC, symSize: 0x120 }
  - { offset: 0x915C3, size: 0x8, addend: 0x0, symName: __RNvMs_NtCse1nGBsou5OW_5alloc3vecINtB4_3VecNtNtCs6IAuOt8vWmF_3syn4item8ImplItemE4pushBI_, symObjAddr: 0x23D8, symBinAddr: 0x328FC, symSize: 0x120 }
  - { offset: 0x9188D, size: 0x8, addend: 0x0, symName: __RNvMs_NtCse1nGBsou5OW_5alloc3vecINtB4_3VecNtNtCs6IAuOt8vWmF_3syn4item9TraitItemE4pushBI_, symObjAddr: 0x24F8, symBinAddr: 0x32A1C, symSize: 0x120 }
  - { offset: 0x91B57, size: 0x8, addend: 0x0, symName: __RNvMs_NtCse1nGBsou5OW_5alloc3vecINtB4_3VecNtNtCs6IAuOt8vWmF_3syn4stmt4StmtE4pushBI_, symObjAddr: 0x2618, symBinAddr: 0x32B3C, symSize: 0x120 }
  - { offset: 0x91D69, size: 0x8, addend: 0x0, symName: __RNvMs_NtCse1nGBsou5OW_5alloc3vecINtB4_3VecNtNtCs6IAuOt8vWmF_3syn5error12ErrorMessageE3lenBI_, symObjAddr: 0x2818, symBinAddr: 0x32C5C, symSize: 0x18 }
  - { offset: 0x91E39, size: 0x8, addend: 0x0, symName: __RNvMs_NtCse1nGBsou5OW_5alloc3vecINtB4_3VecNtNtCs6IAuOt8vWmF_3syn5error12ErrorMessageE8as_sliceBI_, symObjAddr: 0x28F8, symBinAddr: 0x32C74, symSize: 0x64 }
  - { offset: 0x92020, size: 0x8, addend: 0x0, symName: __RNvMs_NtCse1nGBsou5OW_5alloc3vecINtB4_3VecNtNtCs6IAuOt8vWmF_3syn6buffer5EntryE13shrink_to_fitBI_, symObjAddr: 0x295C, symBinAddr: 0x32CD8, symSize: 0xEC }
  - { offset: 0x92293, size: 0x8, addend: 0x0, symName: __RNvMs_NtCse1nGBsou5OW_5alloc3vecINtB4_3VecNtNtCs6IAuOt8vWmF_3syn6buffer5EntryE16into_boxed_sliceBI_, symObjAddr: 0x2A48, symBinAddr: 0x32DC4, symSize: 0x110 }
  - { offset: 0x9245C, size: 0x8, addend: 0x0, symName: __RNvMs_NtCse1nGBsou5OW_5alloc3vecINtB4_3VecNtNtCs6IAuOt8vWmF_3syn6buffer5EntryE3lenBI_, symObjAddr: 0x2B58, symBinAddr: 0x32ED4, symSize: 0x18 }
  - { offset: 0x9257D, size: 0x8, addend: 0x0, symName: __RNvMs_NtCse1nGBsou5OW_5alloc3vecINtB4_3VecNtNtCs6IAuOt8vWmF_3syn6buffer5EntryE4pushBI_, symObjAddr: 0x2B70, symBinAddr: 0x32EEC, symSize: 0x100 }
  - { offset: 0x92847, size: 0x8, addend: 0x0, symName: __RNvMs_NtCse1nGBsou5OW_5alloc3vecINtB4_3VecNtNtCs6IAuOt8vWmF_3syn8generics14TypeParamBoundE7reserveBI_, symObjAddr: 0x2C70, symBinAddr: 0x32FEC, symSize: 0xC8 }
  - { offset: 0x929AE, size: 0x8, addend: 0x0, symName: __RNvMs_NtCse1nGBsou5OW_5alloc3vecINtB4_3VecReE3lenCs6IAuOt8vWmF_3syn, symObjAddr: 0x2D38, symBinAddr: 0x330B4, symSize: 0x18 }
  - { offset: 0x92AC2, size: 0x8, addend: 0x0, symName: __RNvMs_NtCse1nGBsou5OW_5alloc3vecINtB4_3VecReE4pushCs6IAuOt8vWmF_3syn, symObjAddr: 0x2D50, symBinAddr: 0x330CC, symSize: 0xF4 }
  - { offset: 0x92CE5, size: 0x8, addend: 0x0, symName: __RNvMs_NtCse1nGBsou5OW_5alloc3vecINtB4_3VecReE8as_sliceCs6IAuOt8vWmF_3syn, symObjAddr: 0x2E44, symBinAddr: 0x331C0, symSize: 0x64 }
  - { offset: 0x92DAC, size: 0x8, addend: 0x0, symName: __RNvMs_NtCse1nGBsou5OW_5alloc3vecINtB4_3VecTNtNtCs6IAuOt8vWmF_3syn2ty4TypeNtNtBJ_5token5CommaEE3lenBJ_, symObjAddr: 0x2EA8, symBinAddr: 0x33224, symSize: 0x18 }
  - { offset: 0x92EF4, size: 0x8, addend: 0x0, symName: __RNvMs_NtCse1nGBsou5OW_5alloc3vecINtB4_3VecTNtNtCs6IAuOt8vWmF_3syn2ty4TypeNtNtBJ_5token5CommaEE4pushBJ_, symObjAddr: 0x2EC0, symBinAddr: 0x3323C, symSize: 0x120 }
  - { offset: 0x93142, size: 0x8, addend: 0x0, symName: __RNvMs_NtCse1nGBsou5OW_5alloc3vecINtB4_3VecTNtNtCs6IAuOt8vWmF_3syn2ty4TypeNtNtBJ_5token5CommaEE8as_sliceBJ_, symObjAddr: 0x2FE0, symBinAddr: 0x3335C, symSize: 0x64 }
  - { offset: 0x93209, size: 0x8, addend: 0x0, symName: __RNvMs_NtCse1nGBsou5OW_5alloc3vecINtB4_3VecTNtNtCs6IAuOt8vWmF_3syn2ty9BareFnArgNtNtBJ_5token5CommaEE3lenBJ_, symObjAddr: 0x3044, symBinAddr: 0x333C0, symSize: 0x18 }
  - { offset: 0x93351, size: 0x8, addend: 0x0, symName: __RNvMs_NtCse1nGBsou5OW_5alloc3vecINtB4_3VecTNtNtCs6IAuOt8vWmF_3syn2ty9BareFnArgNtNtBJ_5token5CommaEE4pushBJ_, symObjAddr: 0x305C, symBinAddr: 0x333D8, symSize: 0x120 }
  - { offset: 0x9359F, size: 0x8, addend: 0x0, symName: __RNvMs_NtCse1nGBsou5OW_5alloc3vecINtB4_3VecTNtNtCs6IAuOt8vWmF_3syn2ty9BareFnArgNtNtBJ_5token5CommaEE8as_sliceBJ_, symObjAddr: 0x317C, symBinAddr: 0x334F8, symSize: 0x64 }
  - { offset: 0x9376C, size: 0x8, addend: 0x0, symName: __RNvMs_NtCse1nGBsou5OW_5alloc3vecINtB4_3VecTNtNtCs6IAuOt8vWmF_3syn3pat3PatNtNtBJ_5token2OrEE4pushBJ_, symObjAddr: 0x31E0, symBinAddr: 0x3355C, symSize: 0x120 }
  - { offset: 0x939C7, size: 0x8, addend: 0x0, symName: __RNvMs_NtCse1nGBsou5OW_5alloc3vecINtB4_3VecTNtNtCs6IAuOt8vWmF_3syn3pat3PatNtNtBJ_5token2OrEE8as_sliceBJ_, symObjAddr: 0x3300, symBinAddr: 0x3367C, symSize: 0x64 }
  - { offset: 0x93A8E, size: 0x8, addend: 0x0, symName: __RNvMs_NtCse1nGBsou5OW_5alloc3vecINtB4_3VecTNtNtCs6IAuOt8vWmF_3syn3pat3PatNtNtBJ_5token5CommaEE3lenBJ_, symObjAddr: 0x3364, symBinAddr: 0x336E0, symSize: 0x18 }
  - { offset: 0x93BD6, size: 0x8, addend: 0x0, symName: __RNvMs_NtCse1nGBsou5OW_5alloc3vecINtB4_3VecTNtNtCs6IAuOt8vWmF_3syn3pat3PatNtNtBJ_5token5CommaEE4pushBJ_, symObjAddr: 0x337C, symBinAddr: 0x336F8, symSize: 0x120 }
  - { offset: 0x93E24, size: 0x8, addend: 0x0, symName: __RNvMs_NtCse1nGBsou5OW_5alloc3vecINtB4_3VecTNtNtCs6IAuOt8vWmF_3syn3pat3PatNtNtBJ_5token5CommaEE8as_sliceBJ_, symObjAddr: 0x349C, symBinAddr: 0x33818, symSize: 0x64 }
  - { offset: 0x93FF1, size: 0x8, addend: 0x0, symName: __RNvMs_NtCse1nGBsou5OW_5alloc3vecINtB4_3VecTNtNtCs6IAuOt8vWmF_3syn3pat8FieldPatNtNtBJ_5token5CommaEE4pushBJ_, symObjAddr: 0x3500, symBinAddr: 0x3387C, symSize: 0x118 }
  - { offset: 0x9424A, size: 0x8, addend: 0x0, symName: __RNvMs_NtCse1nGBsou5OW_5alloc3vecINtB4_3VecTNtNtCs6IAuOt8vWmF_3syn3pat8FieldPatNtNtBJ_5token5CommaEE8as_sliceBJ_, symObjAddr: 0x3618, symBinAddr: 0x33994, symSize: 0x64 }
  - { offset: 0x9443E, size: 0x8, addend: 0x0, symName: __RNvMs_NtCse1nGBsou5OW_5alloc3vecINtB4_3VecTNtNtCs6IAuOt8vWmF_3syn4data5FieldNtNtBJ_5token5CommaEE4pushBJ_, symObjAddr: 0x36F8, symBinAddr: 0x339F8, symSize: 0x120 }
  - { offset: 0x94683, size: 0x8, addend: 0x0, symName: __RNvMs_NtCse1nGBsou5OW_5alloc3vecINtB4_3VecTNtNtCs6IAuOt8vWmF_3syn4data5FieldNtNtBJ_5token5CommaEE8as_sliceBJ_, symObjAddr: 0x3818, symBinAddr: 0x33B18, symSize: 0x64 }
  - { offset: 0x94850, size: 0x8, addend: 0x0, symName: __RNvMs_NtCse1nGBsou5OW_5alloc3vecINtB4_3VecTNtNtCs6IAuOt8vWmF_3syn4data7VariantNtNtBJ_5token5CommaEE4pushBJ_, symObjAddr: 0x3894, symBinAddr: 0x33B7C, symSize: 0x120 }
  - { offset: 0x94AAB, size: 0x8, addend: 0x0, symName: __RNvMs_NtCse1nGBsou5OW_5alloc3vecINtB4_3VecTNtNtCs6IAuOt8vWmF_3syn4data7VariantNtNtBJ_5token5CommaEE8as_sliceBJ_, symObjAddr: 0x39B4, symBinAddr: 0x33C9C, symSize: 0x64 }
  - { offset: 0x94C78, size: 0x8, addend: 0x0, symName: __RNvMs_NtCse1nGBsou5OW_5alloc3vecINtB4_3VecTNtNtCs6IAuOt8vWmF_3syn4expr10FieldValueNtNtBJ_5token5CommaEE4pushBJ_, symObjAddr: 0x3A18, symBinAddr: 0x33D00, symSize: 0x120 }
  - { offset: 0x94ED3, size: 0x8, addend: 0x0, symName: __RNvMs_NtCse1nGBsou5OW_5alloc3vecINtB4_3VecTNtNtCs6IAuOt8vWmF_3syn4expr10FieldValueNtNtBJ_5token5CommaEE8as_sliceBJ_, symObjAddr: 0x3B38, symBinAddr: 0x33E20, symSize: 0x64 }
  - { offset: 0x94F9A, size: 0x8, addend: 0x0, symName: __RNvMs_NtCse1nGBsou5OW_5alloc3vecINtB4_3VecTNtNtCs6IAuOt8vWmF_3syn4expr4ExprNtNtBJ_5token5CommaEE3lenBJ_, symObjAddr: 0x3B9C, symBinAddr: 0x33E84, symSize: 0x18 }
  - { offset: 0x950E2, size: 0x8, addend: 0x0, symName: __RNvMs_NtCse1nGBsou5OW_5alloc3vecINtB4_3VecTNtNtCs6IAuOt8vWmF_3syn4expr4ExprNtNtBJ_5token5CommaEE4pushBJ_, symObjAddr: 0x3BB4, symBinAddr: 0x33E9C, symSize: 0x120 }
  - { offset: 0x95330, size: 0x8, addend: 0x0, symName: __RNvMs_NtCse1nGBsou5OW_5alloc3vecINtB4_3VecTNtNtCs6IAuOt8vWmF_3syn4expr4ExprNtNtBJ_5token5CommaEE8as_sliceBJ_, symObjAddr: 0x3CD4, symBinAddr: 0x33FBC, symSize: 0x64 }
  - { offset: 0x953F7, size: 0x8, addend: 0x0, symName: __RNvMs_NtCse1nGBsou5OW_5alloc3vecINtB4_3VecTNtNtCs6IAuOt8vWmF_3syn4item5FnArgNtNtBJ_5token5CommaEE3lenBJ_, symObjAddr: 0x3D38, symBinAddr: 0x34020, symSize: 0x18 }
  - { offset: 0x9553F, size: 0x8, addend: 0x0, symName: __RNvMs_NtCse1nGBsou5OW_5alloc3vecINtB4_3VecTNtNtCs6IAuOt8vWmF_3syn4item5FnArgNtNtBJ_5token5CommaEE4pushBJ_, symObjAddr: 0x3D50, symBinAddr: 0x34038, symSize: 0x120 }
  - { offset: 0x9578D, size: 0x8, addend: 0x0, symName: __RNvMs_NtCse1nGBsou5OW_5alloc3vecINtB4_3VecTNtNtCs6IAuOt8vWmF_3syn4item5FnArgNtNtBJ_5token5CommaEE8as_sliceBJ_, symObjAddr: 0x3E70, symBinAddr: 0x34158, symSize: 0x64 }
  - { offset: 0x9595A, size: 0x8, addend: 0x0, symName: __RNvMs_NtCse1nGBsou5OW_5alloc3vecINtB4_3VecTNtNtCs6IAuOt8vWmF_3syn4item7UseTreeNtNtBJ_5token5CommaEE4pushBJ_, symObjAddr: 0x3ED4, symBinAddr: 0x341BC, symSize: 0x118 }
  - { offset: 0x95BB3, size: 0x8, addend: 0x0, symName: __RNvMs_NtCse1nGBsou5OW_5alloc3vecINtB4_3VecTNtNtCs6IAuOt8vWmF_3syn4item7UseTreeNtNtBJ_5token5CommaEE8as_sliceBJ_, symObjAddr: 0x3FEC, symBinAddr: 0x342D4, symSize: 0x64 }
  - { offset: 0x95D48, size: 0x8, addend: 0x0, symName: __RNvMs_NtCse1nGBsou5OW_5alloc3vecINtB4_3VecTNtNtCs6IAuOt8vWmF_3syn4path11PathSegmentNtNtBJ_5token7PathSepEE12as_mut_sliceBJ_, symObjAddr: 0x4050, symBinAddr: 0x34338, symSize: 0x64 }
  - { offset: 0x95E24, size: 0x8, addend: 0x0, symName: __RNvMs_NtCse1nGBsou5OW_5alloc3vecINtB4_3VecTNtNtCs6IAuOt8vWmF_3syn4path11PathSegmentNtNtBJ_5token7PathSepEE3lenBJ_, symObjAddr: 0x40B4, symBinAddr: 0x3439C, symSize: 0x18 }
  - { offset: 0x95F72, size: 0x8, addend: 0x0, symName: __RNvMs_NtCse1nGBsou5OW_5alloc3vecINtB4_3VecTNtNtCs6IAuOt8vWmF_3syn4path11PathSegmentNtNtBJ_5token7PathSepEE3popBJ_, symObjAddr: 0x40CC, symBinAddr: 0x343B4, symSize: 0x104 }
  - { offset: 0x961E6, size: 0x8, addend: 0x0, symName: __RNvMs_NtCse1nGBsou5OW_5alloc3vecINtB4_3VecTNtNtCs6IAuOt8vWmF_3syn4path11PathSegmentNtNtBJ_5token7PathSepEE4pushBJ_, symObjAddr: 0x41D0, symBinAddr: 0x344B8, symSize: 0x120 }
  - { offset: 0x9642B, size: 0x8, addend: 0x0, symName: __RNvMs_NtCse1nGBsou5OW_5alloc3vecINtB4_3VecTNtNtCs6IAuOt8vWmF_3syn4path11PathSegmentNtNtBJ_5token7PathSepEE8as_sliceBJ_, symObjAddr: 0x42F0, symBinAddr: 0x345D8, symSize: 0x64 }
  - { offset: 0x964F2, size: 0x8, addend: 0x0, symName: __RNvMs_NtCse1nGBsou5OW_5alloc3vecINtB4_3VecTNtNtCs6IAuOt8vWmF_3syn4path15GenericArgumentNtNtBJ_5token5CommaEE3lenBJ_, symObjAddr: 0x4354, symBinAddr: 0x3463C, symSize: 0x18 }
  - { offset: 0x9663A, size: 0x8, addend: 0x0, symName: __RNvMs_NtCse1nGBsou5OW_5alloc3vecINtB4_3VecTNtNtCs6IAuOt8vWmF_3syn4path15GenericArgumentNtNtBJ_5token5CommaEE4pushBJ_, symObjAddr: 0x436C, symBinAddr: 0x34654, symSize: 0x120 }
  - { offset: 0x96888, size: 0x8, addend: 0x0, symName: __RNvMs_NtCse1nGBsou5OW_5alloc3vecINtB4_3VecTNtNtCs6IAuOt8vWmF_3syn4path15GenericArgumentNtNtBJ_5token5CommaEE8as_sliceBJ_, symObjAddr: 0x448C, symBinAddr: 0x34774, symSize: 0x64 }
  - { offset: 0x969AA, size: 0x8, addend: 0x0, symName: __RNvMs_NtCse1nGBsou5OW_5alloc3vecINtB4_3VecTNtNtCs6IAuOt8vWmF_3syn8generics12GenericParamNtNtBJ_5token5CommaEE3lenBJ_, symObjAddr: 0x4554, symBinAddr: 0x347D8, symSize: 0x18 }
  - { offset: 0x96ABE, size: 0x8, addend: 0x0, symName: __RNvMs_NtCse1nGBsou5OW_5alloc3vecINtB4_3VecTNtNtCs6IAuOt8vWmF_3syn8generics12GenericParamNtNtBJ_5token5CommaEE4pushBJ_, symObjAddr: 0x456C, symBinAddr: 0x347F0, symSize: 0x120 }
  - { offset: 0x96D03, size: 0x8, addend: 0x0, symName: __RNvMs_NtCse1nGBsou5OW_5alloc3vecINtB4_3VecTNtNtCs6IAuOt8vWmF_3syn8generics12GenericParamNtNtBJ_5token5CommaEE8as_sliceBJ_, symObjAddr: 0x468C, symBinAddr: 0x34910, symSize: 0x64 }
  - { offset: 0x96ED0, size: 0x8, addend: 0x0, symName: __RNvMs_NtCse1nGBsou5OW_5alloc3vecINtB4_3VecTNtNtCs6IAuOt8vWmF_3syn8generics13CapturedParamNtNtBJ_5token5CommaEE4pushBJ_, symObjAddr: 0x46F0, symBinAddr: 0x34974, symSize: 0x118 }
  - { offset: 0x97129, size: 0x8, addend: 0x0, symName: __RNvMs_NtCse1nGBsou5OW_5alloc3vecINtB4_3VecTNtNtCs6IAuOt8vWmF_3syn8generics13CapturedParamNtNtBJ_5token5CommaEE8as_sliceBJ_, symObjAddr: 0x4808, symBinAddr: 0x34A8C, symSize: 0x64 }
  - { offset: 0x971F0, size: 0x8, addend: 0x0, symName: __RNvMs_NtCse1nGBsou5OW_5alloc3vecINtB4_3VecTNtNtCs6IAuOt8vWmF_3syn8generics14TypeParamBoundNtNtBJ_5token4PlusEE3lenBJ_, symObjAddr: 0x486C, symBinAddr: 0x34AF0, symSize: 0x18 }
  - { offset: 0x9732B, size: 0x8, addend: 0x0, symName: __RNvMs_NtCse1nGBsou5OW_5alloc3vecINtB4_3VecTNtNtCs6IAuOt8vWmF_3syn8generics14TypeParamBoundNtNtBJ_5token4PlusEE4pushBJ_, symObjAddr: 0x4884, symBinAddr: 0x34B08, symSize: 0x118 }
  - { offset: 0x97579, size: 0x8, addend: 0x0, symName: __RNvMs_NtCse1nGBsou5OW_5alloc3vecINtB4_3VecTNtNtCs6IAuOt8vWmF_3syn8generics14TypeParamBoundNtNtBJ_5token4PlusEE8as_sliceBJ_, symObjAddr: 0x499C, symBinAddr: 0x34C20, symSize: 0x64 }
  - { offset: 0x97640, size: 0x8, addend: 0x0, symName: __RNvMs_NtCse1nGBsou5OW_5alloc3vecINtB4_3VecTNtNtCs6IAuOt8vWmF_3syn8generics14WherePredicateNtNtBJ_5token5CommaEE3lenBJ_, symObjAddr: 0x4A00, symBinAddr: 0x34C84, symSize: 0x18 }
  - { offset: 0x97788, size: 0x8, addend: 0x0, symName: __RNvMs_NtCse1nGBsou5OW_5alloc3vecINtB4_3VecTNtNtCs6IAuOt8vWmF_3syn8generics14WherePredicateNtNtBJ_5token5CommaEE4pushBJ_, symObjAddr: 0x4A18, symBinAddr: 0x34C9C, symSize: 0x120 }
  - { offset: 0x979D6, size: 0x8, addend: 0x0, symName: __RNvMs_NtCse1nGBsou5OW_5alloc3vecINtB4_3VecTNtNtCs6IAuOt8vWmF_3syn8generics14WherePredicateNtNtBJ_5token5CommaEE8as_sliceBJ_, symObjAddr: 0x4B38, symBinAddr: 0x34DBC, symSize: 0x64 }
  - { offset: 0x97A9D, size: 0x8, addend: 0x0, symName: __RNvMs_NtCse1nGBsou5OW_5alloc3vecINtB4_3VecTNtNtCs6IAuOt8vWmF_3syn8lifetime8LifetimeNtNtBJ_5token4PlusEE3lenBJ_, symObjAddr: 0x4B9C, symBinAddr: 0x34E20, symSize: 0x18 }
  - { offset: 0x97BE5, size: 0x8, addend: 0x0, symName: __RNvMs_NtCse1nGBsou5OW_5alloc3vecINtB4_3VecTNtNtCs6IAuOt8vWmF_3syn8lifetime8LifetimeNtNtBJ_5token4PlusEE4pushBJ_, symObjAddr: 0x4BB4, symBinAddr: 0x34E38, symSize: 0x118 }
  - { offset: 0x97E31, size: 0x8, addend: 0x0, symName: __RNvMs_NtCse1nGBsou5OW_5alloc3vecINtB4_3VecTNtNtCs6IAuOt8vWmF_3syn8lifetime8LifetimeNtNtBJ_5token4PlusEE8as_sliceBJ_, symObjAddr: 0x4CCC, symBinAddr: 0x34F50, symSize: 0x64 }
  - { offset: 0x97FF1, size: 0x8, addend: 0x0, symName: __RNvMs_NtCse1nGBsou5OW_5alloc3vecINtB4_3VechE13shrink_to_fitCs6IAuOt8vWmF_3syn, symObjAddr: 0x4D30, symBinAddr: 0x34FB4, symSize: 0xE4 }
  - { offset: 0x9821F, size: 0x8, addend: 0x0, symName: __RNvMs_NtCse1nGBsou5OW_5alloc3vecINtB4_3VechE16into_boxed_sliceCs6IAuOt8vWmF_3syn, symObjAddr: 0x4E14, symBinAddr: 0x35098, symSize: 0x110 }
  - { offset: 0x983E8, size: 0x8, addend: 0x0, symName: __RNvMs_NtCse1nGBsou5OW_5alloc3vecINtB4_3VechE3lenCs6IAuOt8vWmF_3syn, symObjAddr: 0x4F24, symBinAddr: 0x351A8, symSize: 0x18 }
  - { offset: 0x9848D, size: 0x8, addend: 0x0, symName: __RNvMs_NtCse1nGBsou5OW_5alloc3vecINtB4_3VechE8as_sliceCs6IAuOt8vWmF_3syn, symObjAddr: 0x4F3C, symBinAddr: 0x351C0, symSize: 0x60 }
  - { offset: 0x986FD, size: 0x8, addend: 0x0, symName: __RNvMs_NtCse1nGBsou5OW_5alloc3vecINtB4_3VechE9split_offCs6IAuOt8vWmF_3syn, symObjAddr: 0x4F9C, symBinAddr: 0x35220, symSize: 0x140 }
  - { offset: 0x9C9F5, size: 0x8, addend: 0x0, symName: __RINvXNtNtCse1nGBsou5OW_5alloc5slice4hackNtNtCs6IAuOt8vWmF_3syn4expr3ArmNtB3_10ConvertVec6to_vecNtNtB7_5alloc6GlobalEBG_, symObjAddr: 0x0, symBinAddr: 0x37BEC, symSize: 0x36C }
  - { offset: 0x9DCE6, size: 0x8, addend: 0x0, symName: __RINvXNtNtCse1nGBsou5OW_5alloc5slice4hackNtNtCs6IAuOt8vWmF_3syn4expr3ArmNtB3_10ConvertVec6to_vecNtNtB7_5alloc6GlobalEBG_, symObjAddr: 0x0, symBinAddr: 0x37BEC, symSize: 0x36C }
  - { offset: 0x9E1A9, size: 0x8, addend: 0x0, symName: __RINvXNtNtCse1nGBsou5OW_5alloc5slice4hackTNtNtCs6IAuOt8vWmF_3syn4expr10FieldValueNtNtBH_5token5CommaENtB3_10ConvertVec6to_vecNtNtB7_5alloc6GlobalEBH_, symObjAddr: 0x36C, symBinAddr: 0x37F58, symSize: 0x36C }
  - { offset: 0x9E66C, size: 0x8, addend: 0x0, symName: __RINvXNtNtCse1nGBsou5OW_5alloc5slice4hackTNtNtCs6IAuOt8vWmF_3syn4expr4ExprNtNtBH_5token5CommaENtB3_10ConvertVec6to_vecNtNtB7_5alloc6GlobalEBH_, symObjAddr: 0x6D8, symBinAddr: 0x382C4, symSize: 0x36C }
  - { offset: 0xA16AF, size: 0x8, addend: 0x0, symName: __RNvXNtNtCs6IAuOt8vWmF_3syn4expr7parsingNtB4_4ExprNtNtB6_5parse5Parse5parse, symObjAddr: 0x2BA8, symBinAddr: 0x3931C, symSize: 0x3C }
  - { offset: 0xA16E3, size: 0x8, addend: 0x0, symName: __RNvXs4_NtNtCs6IAuOt8vWmF_3syn4expr7parsingNtB7_7ExprLitNtNtB9_5parse5Parse5parse, symObjAddr: 0x3648, symBinAddr: 0x39358, symSize: 0x14C }
  - { offset: 0xA1736, size: 0x8, addend: 0x0, symName: __RNvXs7_NtNtCs6IAuOt8vWmF_3syn4expr7parsingNtB7_6ExprIfNtNtB9_5parse5Parse5parse, symObjAddr: 0x3A7C, symBinAddr: 0x394A4, symSize: 0x103C }
  - { offset: 0xA19AC, size: 0x8, addend: 0x0, symName: __RNvXs8_NtNtCs6IAuOt8vWmF_3syn4expr7parsingNtB7_9ExprInferNtNtB9_5parse5Parse5parse, symObjAddr: 0x4AB8, symBinAddr: 0x3A4E0, symSize: 0x1D0 }
  - { offset: 0xA1A3D, size: 0x8, addend: 0x0, symName: __RNvXs9_NtNtCs6IAuOt8vWmF_3syn4expr7parsingNtB7_11ExprForLoopNtNtB9_5parse5Parse5parse, symObjAddr: 0x4C88, symBinAddr: 0x3A6B0, symSize: 0x9A4 }
  - { offset: 0xA1D0C, size: 0x8, addend: 0x0, symName: __RNvXsa_NtNtCs6IAuOt8vWmF_3syn4expr7parsingNtB7_8ExprLoopNtNtB9_5parse5Parse5parse, symObjAddr: 0x562C, symBinAddr: 0x3B054, symSize: 0x590 }
  - { offset: 0xA1EBF, size: 0x8, addend: 0x0, symName: __RNvXsb_NtNtCs6IAuOt8vWmF_3syn4expr7parsingNtB7_9ExprMatchNtNtB9_5parse5Parse5parse, symObjAddr: 0x5BBC, symBinAddr: 0x3B5E4, symSize: 0x60C }
  - { offset: 0xA20A8, size: 0x8, addend: 0x0, symName: __RNvXsh_NtNtCs6IAuOt8vWmF_3syn4expr7parsingNtB7_10ExprReturnNtNtB9_5parse5Parse5parse, symObjAddr: 0x6A04, symBinAddr: 0x3BBF0, symSize: 0x210 }
  - { offset: 0xA210A, size: 0x8, addend: 0x0, symName: __RNvXsi_NtNtCs6IAuOt8vWmF_3syn4expr7parsingNtB7_12ExprTryBlockNtNtB9_5parse5Parse5parse, symObjAddr: 0x6C14, symBinAddr: 0x3BE00, symSize: 0x220 }
  - { offset: 0xA217C, size: 0x8, addend: 0x0, symName: __RNvXsj_NtNtCs6IAuOt8vWmF_3syn4expr7parsingNtB7_9ExprYieldNtNtB9_5parse5Parse5parse, symObjAddr: 0x6E34, symBinAddr: 0x3C020, symSize: 0x210 }
  - { offset: 0xA21DE, size: 0x8, addend: 0x0, symName: __RNvXsk_NtNtCs6IAuOt8vWmF_3syn4expr7parsingNtB7_9ExprAsyncNtNtB9_5parse5Parse5parse, symObjAddr: 0x7044, symBinAddr: 0x3C230, symSize: 0x2E8 }
  - { offset: 0xA226F, size: 0x8, addend: 0x0, symName: __RNvXsl_NtNtCs6IAuOt8vWmF_3syn4expr7parsingNtB7_9ExprWhileNtNtB9_5parse5Parse5parse, symObjAddr: 0x732C, symBinAddr: 0x3C518, symSize: 0x760 }
  - { offset: 0xA24A5, size: 0x8, addend: 0x0, symName: __RNvXsm_NtNtCs6IAuOt8vWmF_3syn4expr7parsingNtB7_9ExprConstNtNtB9_5parse5Parse5parse, symObjAddr: 0x7A8C, symBinAddr: 0x3CC78, symSize: 0x3BC }
  - { offset: 0xA25FB, size: 0x8, addend: 0x0, symName: __RNvXsn_NtNtCs6IAuOt8vWmF_3syn4expr7parsingNtB7_5LabelNtNtB9_5parse5Parse5parse, symObjAddr: 0x7E48, symBinAddr: 0x3D034, symSize: 0x1D4 }
  - { offset: 0xA268C, size: 0x8, addend: 0x0, symName: __RNvXsp_NtNtCs6IAuOt8vWmF_3syn4expr7parsingNtB7_12ExprContinueNtNtB9_5parse5Parse5parse, symObjAddr: 0x801C, symBinAddr: 0x3D208, symSize: 0x200 }
  - { offset: 0xA26FE, size: 0x8, addend: 0x0, symName: __RNvXsq_NtNtCs6IAuOt8vWmF_3syn4expr7parsingNtB7_10FieldValueNtNtB9_5parse5Parse5parse, symObjAddr: 0x821C, symBinAddr: 0x3D408, symSize: 0x560 }
  - { offset: 0xA289D, size: 0x8, addend: 0x0, symName: __RNvXss_NtNtCs6IAuOt8vWmF_3syn4expr7parsingNtB7_10ExprUnsafeNtNtB9_5parse5Parse5parse, symObjAddr: 0x893C, symBinAddr: 0x3D968, symSize: 0x3BC }
  - { offset: 0xA29F3, size: 0x8, addend: 0x0, symName: __RNvXst_NtNtCs6IAuOt8vWmF_3syn4expr7parsingNtB7_9ExprBlockNtNtB9_5parse5Parse5parse, symObjAddr: 0x8CF8, symBinAddr: 0x3DD24, symSize: 0x4FC }
  - { offset: 0xA2B79, size: 0x8, addend: 0x0, symName: __RNvXsu_NtNtCs6IAuOt8vWmF_3syn4expr7parsingNtB7_11RangeLimitsNtNtB9_5parse5Parse5parse, symObjAddr: 0x91F4, symBinAddr: 0x3E220, symSize: 0x234 }
  - { offset: 0xA2C07, size: 0x8, addend: 0x0, symName: __RNvXsw_NtNtCs6IAuOt8vWmF_3syn4expr7parsingNtB7_8ExprPathNtNtB9_5parse5Parse5parse, symObjAddr: 0x975C, symBinAddr: 0x3E788, symSize: 0x238 }
  - { offset: 0xA2CF5, size: 0x8, addend: 0x0, symName: __RNvXsx_NtNtCs6IAuOt8vWmF_3syn4expr7parsingNtB7_6MemberNtNtB9_5parse5Parse5parse, symObjAddr: 0x9994, symBinAddr: 0x3E9C0, symSize: 0xFC }
  - { offset: 0xA2D29, size: 0x8, addend: 0x0, symName: __RNvXsz_NtNtCs6IAuOt8vWmF_3syn4expr7parsingNtB7_3ArmNtNtB9_5parse5Parse5parse, symObjAddr: 0x9C54, symBinAddr: 0x3EC80, symSize: 0x8EC }
  - { offset: 0xA2F61, size: 0x8, addend: 0x0, symName: __RNvXsA_NtNtCs6IAuOt8vWmF_3syn4expr7parsingNtB7_5IndexNtNtB9_5parse5Parse5parse, symObjAddr: 0xA540, symBinAddr: 0x3F56C, symSize: 0x28C }
  - { offset: 0xA300F, size: 0x8, addend: 0x0, symName: __RNvXNtNtCs6IAuOt8vWmF_3syn4expr8printingNtB4_9ExprArrayNtNtCs2cqEZUIJimJ_5quote9to_tokens8ToTokens9to_tokens, symObjAddr: 0xAA84, symBinAddr: 0x3F7F8, symSize: 0x58 }
  - { offset: 0xA304E, size: 0x8, addend: 0x0, symName: __RNvXs_NtNtCs6IAuOt8vWmF_3syn4expr8printingNtB6_10ExprAssignNtNtCs2cqEZUIJimJ_5quote9to_tokens8ToTokens9to_tokens, symObjAddr: 0xAADC, symBinAddr: 0x3F850, symSize: 0x58 }
  - { offset: 0xA308D, size: 0x8, addend: 0x0, symName: __RNvXs0_NtNtCs6IAuOt8vWmF_3syn4expr8printingNtB7_9ExprAsyncNtNtCs2cqEZUIJimJ_5quote9to_tokens8ToTokens9to_tokens, symObjAddr: 0xAB34, symBinAddr: 0x3F8A8, symSize: 0x74 }
  - { offset: 0xA30CC, size: 0x8, addend: 0x0, symName: __RNvXs1_NtNtCs6IAuOt8vWmF_3syn4expr8printingNtB7_9ExprAwaitNtNtCs2cqEZUIJimJ_5quote9to_tokens8ToTokens9to_tokens, symObjAddr: 0xABA8, symBinAddr: 0x3F91C, symSize: 0x58 }
  - { offset: 0xA310B, size: 0x8, addend: 0x0, symName: __RNvXs2_NtNtCs6IAuOt8vWmF_3syn4expr8printingNtB7_10ExprBinaryNtNtCs2cqEZUIJimJ_5quote9to_tokens8ToTokens9to_tokens, symObjAddr: 0xAC00, symBinAddr: 0x3F974, symSize: 0x58 }
  - { offset: 0xA314A, size: 0x8, addend: 0x0, symName: __RNvXs3_NtNtCs6IAuOt8vWmF_3syn4expr8printingNtB7_9ExprBlockNtNtCs2cqEZUIJimJ_5quote9to_tokens8ToTokens9to_tokens, symObjAddr: 0xAC58, symBinAddr: 0x3F9CC, symSize: 0x68 }
  - { offset: 0xA3189, size: 0x8, addend: 0x0, symName: __RNvXs4_NtNtCs6IAuOt8vWmF_3syn4expr8printingNtB7_9ExprBreakNtNtCs2cqEZUIJimJ_5quote9to_tokens8ToTokens9to_tokens, symObjAddr: 0xACC0, symBinAddr: 0x3FA34, symSize: 0x58 }
  - { offset: 0xA31C8, size: 0x8, addend: 0x0, symName: __RNvXs5_NtNtCs6IAuOt8vWmF_3syn4expr8printingNtB7_8ExprCallNtNtCs2cqEZUIJimJ_5quote9to_tokens8ToTokens9to_tokens, symObjAddr: 0xAD18, symBinAddr: 0x3FA8C, symSize: 0x58 }
  - { offset: 0xA3207, size: 0x8, addend: 0x0, symName: __RNvXs6_NtNtCs6IAuOt8vWmF_3syn4expr8printingNtB7_8ExprCastNtNtCs2cqEZUIJimJ_5quote9to_tokens8ToTokens9to_tokens, symObjAddr: 0xAD70, symBinAddr: 0x3FAE4, symSize: 0x58 }
  - { offset: 0xA3246, size: 0x8, addend: 0x0, symName: __RNvXs7_NtNtCs6IAuOt8vWmF_3syn4expr8printingNtB7_11ExprClosureNtNtCs2cqEZUIJimJ_5quote9to_tokens8ToTokens9to_tokens, symObjAddr: 0xADC8, symBinAddr: 0x3FB3C, symSize: 0x58 }
  - { offset: 0xA3285, size: 0x8, addend: 0x0, symName: __RNvXs8_NtNtCs6IAuOt8vWmF_3syn4expr8printingNtB7_9ExprConstNtNtCs2cqEZUIJimJ_5quote9to_tokens8ToTokens9to_tokens, symObjAddr: 0xAE20, symBinAddr: 0x3FB94, symSize: 0x68 }
  - { offset: 0xA32C4, size: 0x8, addend: 0x0, symName: __RNvXs9_NtNtCs6IAuOt8vWmF_3syn4expr8printingNtB7_12ExprContinueNtNtCs2cqEZUIJimJ_5quote9to_tokens8ToTokens9to_tokens, symObjAddr: 0xAE88, symBinAddr: 0x3FBFC, symSize: 0x64 }
  - { offset: 0xA3303, size: 0x8, addend: 0x0, symName: __RNvXsa_NtNtCs6IAuOt8vWmF_3syn4expr8printingNtB7_9ExprFieldNtNtCs2cqEZUIJimJ_5quote9to_tokens8ToTokens9to_tokens, symObjAddr: 0xAEEC, symBinAddr: 0x3FC60, symSize: 0x58 }
  - { offset: 0xA3342, size: 0x8, addend: 0x0, symName: __RNvXsb_NtNtCs6IAuOt8vWmF_3syn4expr8printingNtB7_11ExprForLoopNtNtCs2cqEZUIJimJ_5quote9to_tokens8ToTokens9to_tokens, symObjAddr: 0xAF44, symBinAddr: 0x3FCB8, symSize: 0xDC }
  - { offset: 0xA3381, size: 0x8, addend: 0x0, symName: __RNvXsc_NtNtCs6IAuOt8vWmF_3syn4expr8printingNtB7_9ExprGroupNtNtCs2cqEZUIJimJ_5quote9to_tokens8ToTokens9to_tokens, symObjAddr: 0xB020, symBinAddr: 0x3FD94, symSize: 0x58 }
  - { offset: 0xA33C0, size: 0x8, addend: 0x0, symName: __RNvXsd_NtNtCs6IAuOt8vWmF_3syn4expr8printingNtB7_6ExprIfNtNtCs2cqEZUIJimJ_5quote9to_tokens8ToTokens9to_tokens, symObjAddr: 0xB078, symBinAddr: 0x3FDEC, symSize: 0x208 }
  - { offset: 0xA3496, size: 0x8, addend: 0x0, symName: __RNvXse_NtNtCs6IAuOt8vWmF_3syn4expr8printingNtB7_9ExprIndexNtNtCs2cqEZUIJimJ_5quote9to_tokens8ToTokens9to_tokens, symObjAddr: 0xB280, symBinAddr: 0x3FFF4, symSize: 0x58 }
  - { offset: 0xA34D5, size: 0x8, addend: 0x0, symName: __RNvXsf_NtNtCs6IAuOt8vWmF_3syn4expr8printingNtB7_9ExprInferNtNtCs2cqEZUIJimJ_5quote9to_tokens8ToTokens9to_tokens, symObjAddr: 0xB2D8, symBinAddr: 0x4004C, symSize: 0x54 }
  - { offset: 0xA3514, size: 0x8, addend: 0x0, symName: __RNvXsg_NtNtCs6IAuOt8vWmF_3syn4expr8printingNtB7_7ExprLetNtNtCs2cqEZUIJimJ_5quote9to_tokens8ToTokens9to_tokens, symObjAddr: 0xB32C, symBinAddr: 0x400A0, symSize: 0x58 }
  - { offset: 0xA3553, size: 0x8, addend: 0x0, symName: __RNvXsh_NtNtCs6IAuOt8vWmF_3syn4expr8printingNtB7_7ExprLitNtNtCs2cqEZUIJimJ_5quote9to_tokens8ToTokens9to_tokens, symObjAddr: 0xB384, symBinAddr: 0x400F8, symSize: 0x54 }
  - { offset: 0xA3592, size: 0x8, addend: 0x0, symName: __RNvXsi_NtNtCs6IAuOt8vWmF_3syn4expr8printingNtB7_8ExprLoopNtNtCs2cqEZUIJimJ_5quote9to_tokens8ToTokens9to_tokens, symObjAddr: 0xB3D8, symBinAddr: 0x4014C, symSize: 0x78 }
  - { offset: 0xA35D1, size: 0x8, addend: 0x0, symName: __RNvXsj_NtNtCs6IAuOt8vWmF_3syn4expr8printingNtB7_9ExprMacroNtNtCs2cqEZUIJimJ_5quote9to_tokens8ToTokens9to_tokens, symObjAddr: 0xB450, symBinAddr: 0x401C4, symSize: 0x54 }
  - { offset: 0xA3610, size: 0x8, addend: 0x0, symName: __RNvXsk_NtNtCs6IAuOt8vWmF_3syn4expr8printingNtB7_9ExprMatchNtNtCs2cqEZUIJimJ_5quote9to_tokens8ToTokens9to_tokens, symObjAddr: 0xB4A4, symBinAddr: 0x40218, symSize: 0xAC }
  - { offset: 0xA364F, size: 0x8, addend: 0x0, symName: __RNvXsl_NtNtCs6IAuOt8vWmF_3syn4expr8printingNtB7_14ExprMethodCallNtNtCs2cqEZUIJimJ_5quote9to_tokens8ToTokens9to_tokens, symObjAddr: 0xB550, symBinAddr: 0x402C4, symSize: 0x58 }
  - { offset: 0xA368E, size: 0x8, addend: 0x0, symName: __RNvXsm_NtNtCs6IAuOt8vWmF_3syn4expr8printingNtB7_9ExprParenNtNtCs2cqEZUIJimJ_5quote9to_tokens8ToTokens9to_tokens, symObjAddr: 0xB5A8, symBinAddr: 0x4031C, symSize: 0x58 }
  - { offset: 0xA36CD, size: 0x8, addend: 0x0, symName: __RNvXsn_NtNtCs6IAuOt8vWmF_3syn4expr8printingNtB7_8ExprPathNtNtCs2cqEZUIJimJ_5quote9to_tokens8ToTokens9to_tokens, symObjAddr: 0xB600, symBinAddr: 0x40374, symSize: 0x64 }
  - { offset: 0xA370C, size: 0x8, addend: 0x0, symName: __RNvXso_NtNtCs6IAuOt8vWmF_3syn4expr8printingNtB7_9ExprRangeNtNtCs2cqEZUIJimJ_5quote9to_tokens8ToTokens9to_tokens, symObjAddr: 0xB664, symBinAddr: 0x403D8, symSize: 0x58 }
  - { offset: 0xA374B, size: 0x8, addend: 0x0, symName: __RNvXsp_NtNtCs6IAuOt8vWmF_3syn4expr8printingNtB7_11ExprRawAddrNtNtCs2cqEZUIJimJ_5quote9to_tokens8ToTokens9to_tokens, symObjAddr: 0xB6BC, symBinAddr: 0x40430, symSize: 0x58 }
  - { offset: 0xA378A, size: 0x8, addend: 0x0, symName: __RNvXsq_NtNtCs6IAuOt8vWmF_3syn4expr8printingNtB7_13ExprReferenceNtNtCs2cqEZUIJimJ_5quote9to_tokens8ToTokens9to_tokens, symObjAddr: 0xB714, symBinAddr: 0x40488, symSize: 0x58 }
  - { offset: 0xA37C9, size: 0x8, addend: 0x0, symName: __RNvXsr_NtNtCs6IAuOt8vWmF_3syn4expr8printingNtB7_10ExprRepeatNtNtCs2cqEZUIJimJ_5quote9to_tokens8ToTokens9to_tokens, symObjAddr: 0xB76C, symBinAddr: 0x404E0, symSize: 0x58 }
  - { offset: 0xA3808, size: 0x8, addend: 0x0, symName: __RNvXss_NtNtCs6IAuOt8vWmF_3syn4expr8printingNtB7_10ExprReturnNtNtCs2cqEZUIJimJ_5quote9to_tokens8ToTokens9to_tokens, symObjAddr: 0xB7C4, symBinAddr: 0x40538, symSize: 0x58 }
  - { offset: 0xA3847, size: 0x8, addend: 0x0, symName: __RNvXst_NtNtCs6IAuOt8vWmF_3syn4expr8printingNtB7_10ExprStructNtNtCs2cqEZUIJimJ_5quote9to_tokens8ToTokens9to_tokens, symObjAddr: 0xB81C, symBinAddr: 0x40590, symSize: 0x78 }
  - { offset: 0xA3886, size: 0x8, addend: 0x0, symName: __RNvXsu_NtNtCs6IAuOt8vWmF_3syn4expr8printingNtB7_7ExprTryNtNtCs2cqEZUIJimJ_5quote9to_tokens8ToTokens9to_tokens, symObjAddr: 0xB894, symBinAddr: 0x40608, symSize: 0x58 }
  - { offset: 0xA38C5, size: 0x8, addend: 0x0, symName: __RNvXsv_NtNtCs6IAuOt8vWmF_3syn4expr8printingNtB7_12ExprTryBlockNtNtCs2cqEZUIJimJ_5quote9to_tokens8ToTokens9to_tokens, symObjAddr: 0xB8EC, symBinAddr: 0x40660, symSize: 0x64 }
  - { offset: 0xA3904, size: 0x8, addend: 0x0, symName: __RNvXsw_NtNtCs6IAuOt8vWmF_3syn4expr8printingNtB7_9ExprTupleNtNtCs2cqEZUIJimJ_5quote9to_tokens8ToTokens9to_tokens, symObjAddr: 0xB950, symBinAddr: 0x406C4, symSize: 0x58 }
  - { offset: 0xA3943, size: 0x8, addend: 0x0, symName: __RNvXsx_NtNtCs6IAuOt8vWmF_3syn4expr8printingNtB7_9ExprUnaryNtNtCs2cqEZUIJimJ_5quote9to_tokens8ToTokens9to_tokens, symObjAddr: 0xB9A8, symBinAddr: 0x4071C, symSize: 0x58 }
  - { offset: 0xA3982, size: 0x8, addend: 0x0, symName: __RNvXsy_NtNtCs6IAuOt8vWmF_3syn4expr8printingNtB7_10ExprUnsafeNtNtCs2cqEZUIJimJ_5quote9to_tokens8ToTokens9to_tokens, symObjAddr: 0xBA00, symBinAddr: 0x40774, symSize: 0x68 }
  - { offset: 0xA39C1, size: 0x8, addend: 0x0, symName: __RNvXsz_NtNtCs6IAuOt8vWmF_3syn4expr8printingNtB7_9ExprWhileNtNtCs2cqEZUIJimJ_5quote9to_tokens8ToTokens9to_tokens, symObjAddr: 0xBA68, symBinAddr: 0x407DC, symSize: 0xBC }
  - { offset: 0xA3A00, size: 0x8, addend: 0x0, symName: __RNvXsA_NtNtCs6IAuOt8vWmF_3syn4expr8printingNtB7_9ExprYieldNtNtCs2cqEZUIJimJ_5quote9to_tokens8ToTokens9to_tokens, symObjAddr: 0xBB24, symBinAddr: 0x40898, symSize: 0x58 }
  - { offset: 0xA3A3F, size: 0x8, addend: 0x0, symName: __RNvXsB_NtNtCs6IAuOt8vWmF_3syn4expr8printingNtB7_3ArmNtNtCs2cqEZUIJimJ_5quote9to_tokens8ToTokens9to_tokens, symObjAddr: 0xBB7C, symBinAddr: 0x408F0, symSize: 0x128 }
  - { offset: 0xA3AAC, size: 0x8, addend: 0x0, symName: __RNvXsC_NtNtCs6IAuOt8vWmF_3syn4expr8printingNtB7_10FieldValueNtNtCs2cqEZUIJimJ_5quote9to_tokens8ToTokens9to_tokens, symObjAddr: 0xBCA4, symBinAddr: 0x40A18, symSize: 0xB0 }
  - { offset: 0xA3B09, size: 0x8, addend: 0x0, symName: __RNvXsD_NtNtCs6IAuOt8vWmF_3syn4expr8printingNtB7_5IndexNtNtCs2cqEZUIJimJ_5quote9to_tokens8ToTokens9to_tokens, symObjAddr: 0xBD54, symBinAddr: 0x40AC8, symSize: 0xD4 }
  - { offset: 0xA3B5E, size: 0x8, addend: 0x0, symName: __RNvXsE_NtNtCs6IAuOt8vWmF_3syn4expr8printingNtB7_5LabelNtNtCs2cqEZUIJimJ_5quote9to_tokens8ToTokens9to_tokens, symObjAddr: 0xBE28, symBinAddr: 0x40B9C, symSize: 0x50 }
  - { offset: 0xA3B9D, size: 0x8, addend: 0x0, symName: __RNvXsF_NtNtCs6IAuOt8vWmF_3syn4expr8printingNtB7_6MemberNtNtCs2cqEZUIJimJ_5quote9to_tokens8ToTokens9to_tokens, symObjAddr: 0xBE78, symBinAddr: 0x40BEC, symSize: 0x98 }
  - { offset: 0xA3C10, size: 0x8, addend: 0x0, symName: __RNvXsG_NtNtCs6IAuOt8vWmF_3syn4expr8printingNtB7_11RangeLimitsNtNtCs2cqEZUIJimJ_5quote9to_tokens8ToTokens9to_tokens, symObjAddr: 0xBF10, symBinAddr: 0x40C84, symSize: 0x94 }
  - { offset: 0xA3C83, size: 0x8, addend: 0x0, symName: __RNvXsH_NtNtCs6IAuOt8vWmF_3syn4expr8printingNtB7_17PointerMutabilityNtNtCs2cqEZUIJimJ_5quote9to_tokens8ToTokens9to_tokens, symObjAddr: 0xBFA4, symBinAddr: 0x40D18, symSize: 0x94 }
  - { offset: 0xA3CFC, size: 0x8, addend: 0x0, symName: __RNcNtNtNtCs6IAuOt8vWmF_3syn4expr4Expr5Async0B7_, symObjAddr: 0xC038, symBinAddr: 0x40DAC, symSize: 0x3C }
  - { offset: 0xA3D2B, size: 0x8, addend: 0x0, symName: __RNcNtNtNtCs6IAuOt8vWmF_3syn4expr4Expr5Block0B7_, symObjAddr: 0xC074, symBinAddr: 0x40DE8, symSize: 0x3C }
  - { offset: 0xA3D5A, size: 0x8, addend: 0x0, symName: __RNcNtNtNtCs6IAuOt8vWmF_3syn4expr4Expr5Break0B7_, symObjAddr: 0xC0B0, symBinAddr: 0x40E24, symSize: 0x3C }
  - { offset: 0xA3D89, size: 0x8, addend: 0x0, symName: __RNcNtNtNtCs6IAuOt8vWmF_3syn4expr4Expr7Closure0B7_, symObjAddr: 0xC0EC, symBinAddr: 0x40E60, symSize: 0x3C }
  - { offset: 0xA3DB8, size: 0x8, addend: 0x0, symName: __RNcNtNtNtCs6IAuOt8vWmF_3syn4expr4Expr5Const0B7_, symObjAddr: 0xC128, symBinAddr: 0x40E9C, symSize: 0x3C }
  - { offset: 0xA3DE7, size: 0x8, addend: 0x0, symName: __RNcNtNtNtCs6IAuOt8vWmF_3syn4expr4Expr8Continue0B7_, symObjAddr: 0xC164, symBinAddr: 0x40ED8, symSize: 0x3C }
  - { offset: 0xA3E16, size: 0x8, addend: 0x0, symName: __RNcNtNtNtCs6IAuOt8vWmF_3syn4expr4Expr7ForLoop0B7_, symObjAddr: 0xC1A0, symBinAddr: 0x40F14, symSize: 0x3C }
  - { offset: 0xA3E45, size: 0x8, addend: 0x0, symName: __RNcNtNtNtCs6IAuOt8vWmF_3syn4expr4Expr2If0B7_, symObjAddr: 0xC1DC, symBinAddr: 0x40F50, symSize: 0x3C }
  - { offset: 0xA3E74, size: 0x8, addend: 0x0, symName: __RNcNtNtNtCs6IAuOt8vWmF_3syn4expr4Expr5Infer0B7_, symObjAddr: 0xC218, symBinAddr: 0x40F8C, symSize: 0x20 }
  - { offset: 0xA3EA2, size: 0x8, addend: 0x0, symName: __RNcNtNtNtCs6IAuOt8vWmF_3syn4expr4Expr3Let0B7_, symObjAddr: 0xC238, symBinAddr: 0x40FAC, symSize: 0x3C }
  - { offset: 0xA3ED1, size: 0x8, addend: 0x0, symName: __RNcNtNtNtCs6IAuOt8vWmF_3syn4expr4Expr3Lit0B7_, symObjAddr: 0xC274, symBinAddr: 0x40FE8, symSize: 0x3C }
  - { offset: 0xA3F00, size: 0x8, addend: 0x0, symName: __RNcNtNtNtCs6IAuOt8vWmF_3syn4expr4Expr4Loop0B7_, symObjAddr: 0xC2B0, symBinAddr: 0x41024, symSize: 0x3C }
  - { offset: 0xA3F2F, size: 0x8, addend: 0x0, symName: __RNcNtNtNtCs6IAuOt8vWmF_3syn4expr4Expr5Match0B7_, symObjAddr: 0xC2EC, symBinAddr: 0x41060, symSize: 0x3C }
  - { offset: 0xA3F5E, size: 0x8, addend: 0x0, symName: __RNcNtNtNtCs6IAuOt8vWmF_3syn4expr4Expr5Range0B7_, symObjAddr: 0xC328, symBinAddr: 0x4109C, symSize: 0x3C }
  - { offset: 0xA3F8D, size: 0x8, addend: 0x0, symName: __RNcNtNtNtCs6IAuOt8vWmF_3syn4expr4Expr6Return0B7_, symObjAddr: 0xC364, symBinAddr: 0x410D8, symSize: 0x3C }
  - { offset: 0xA3FBC, size: 0x8, addend: 0x0, symName: __RNcNtNtNtCs6IAuOt8vWmF_3syn4expr4Expr6Struct0B7_, symObjAddr: 0xC3A0, symBinAddr: 0x41114, symSize: 0x3C }
  - { offset: 0xA3FEB, size: 0x8, addend: 0x0, symName: __RNcNtNtNtCs6IAuOt8vWmF_3syn4expr4Expr8TryBlock0B7_, symObjAddr: 0xC3DC, symBinAddr: 0x41150, symSize: 0x3C }
  - { offset: 0xA401A, size: 0x8, addend: 0x0, symName: __RNcNtNtNtCs6IAuOt8vWmF_3syn4expr4Expr5Unary0B7_, symObjAddr: 0xC418, symBinAddr: 0x4118C, symSize: 0x3C }
  - { offset: 0xA4049, size: 0x8, addend: 0x0, symName: __RNcNtNtNtCs6IAuOt8vWmF_3syn4expr4Expr6Unsafe0B7_, symObjAddr: 0xC454, symBinAddr: 0x411C8, symSize: 0x3C }
  - { offset: 0xA4078, size: 0x8, addend: 0x0, symName: __RNcNtNtNtCs6IAuOt8vWmF_3syn4expr4Expr5While0B7_, symObjAddr: 0xC490, symBinAddr: 0x41204, symSize: 0x3C }
  - { offset: 0xA40A7, size: 0x8, addend: 0x0, symName: __RNcNtNtNtCs6IAuOt8vWmF_3syn4expr4Expr5Yield0B7_, symObjAddr: 0xC4CC, symBinAddr: 0x41240, symSize: 0x3C }
  - { offset: 0xA40D7, size: 0x8, addend: 0x0, symName: __RNvXsP_NtCs6IAuOt8vWmF_3syn4exprNtB5_4ExprNtNtCs2cqEZUIJimJ_5quote9to_tokens8ToTokens9to_tokens, symObjAddr: 0xD080, symBinAddr: 0x4127C, symSize: 0x4CC }
  - { offset: 0xA45C0, size: 0x8, addend: 0x0, symName: __RNcNtNtNtCs6IAuOt8vWmF_3syn4expr6Member5Named0B7_, symObjAddr: 0xD54C, symBinAddr: 0x41748, symSize: 0x18 }
  - { offset: 0xA45F0, size: 0x8, addend: 0x0, symName: __RNcNtNtNtCs6IAuOt8vWmF_3syn4expr6Member7Unnamed0B7_, symObjAddr: 0xD564, symBinAddr: 0x41760, symSize: 0x28 }
  - { offset: 0xA4626, size: 0x8, addend: 0x0, symName: __RNcNtNtNtCs6IAuOt8vWmF_3syn4expr11RangeLimits8HalfOpen0B7_, symObjAddr: 0xD58C, symBinAddr: 0x41788, symSize: 0x24 }
  - { offset: 0xA4656, size: 0x8, addend: 0x0, symName: __RNcNtNtNtCs6IAuOt8vWmF_3syn4expr11RangeLimits6Closed0B7_, symObjAddr: 0xD5B0, symBinAddr: 0x417AC, symSize: 0x20 }
  - { offset: 0xA700E, size: 0x8, addend: 0x0, symName: __RNvXs0_NtNtCs6IAuOt8vWmF_3syn3gen5cloneNtNtB9_4expr3ArmNtNtCsfvfooZQ3Axs_4core5clone5Clone5clone, symObjAddr: 0x105A0, symBinAddr: 0x417CC, symSize: 0x1BC }
  - { offset: 0xA7040, size: 0x8, addend: 0x0, symName: __RNvXsk_NtNtCs6IAuOt8vWmF_3syn3gen5cloneNtNtB9_4expr4ExprNtNtCsfvfooZQ3Axs_4core5clone5Clone5clone, symObjAddr: 0x1075C, symBinAddr: 0x41988, symSize: 0xE1C }
  - { offset: 0xA7535, size: 0x8, addend: 0x0, symName: __RNvXsl_NtNtCs6IAuOt8vWmF_3syn3gen5cloneNtNtB9_4expr9ExprArrayNtNtCsfvfooZQ3Axs_4core5clone5Clone5clone, symObjAddr: 0x11578, symBinAddr: 0x427A4, symSize: 0xC8 }
  - { offset: 0xA7569, size: 0x8, addend: 0x0, symName: __RNvXsm_NtNtCs6IAuOt8vWmF_3syn3gen5cloneNtNtB9_4expr10ExprAssignNtNtCsfvfooZQ3Axs_4core5clone5Clone5clone, symObjAddr: 0x11640, symBinAddr: 0x4286C, symSize: 0x108 }
  - { offset: 0xA759D, size: 0x8, addend: 0x0, symName: __RNvXsn_NtNtCs6IAuOt8vWmF_3syn3gen5cloneNtNtB9_4expr9ExprAsyncNtNtCsfvfooZQ3Axs_4core5clone5Clone5clone, symObjAddr: 0x11748, symBinAddr: 0x42974, symSize: 0xEC }
  - { offset: 0xA75D1, size: 0x8, addend: 0x0, symName: __RNvXso_NtNtCs6IAuOt8vWmF_3syn3gen5cloneNtNtB9_4expr9ExprAwaitNtNtCsfvfooZQ3Axs_4core5clone5Clone5clone, symObjAddr: 0x11834, symBinAddr: 0x42A60, symSize: 0x108 }
  - { offset: 0xA7605, size: 0x8, addend: 0x0, symName: __RNvXsp_NtNtCs6IAuOt8vWmF_3syn3gen5cloneNtNtB9_4expr10ExprBinaryNtNtCsfvfooZQ3Axs_4core5clone5Clone5clone, symObjAddr: 0x1193C, symBinAddr: 0x42B68, symSize: 0xF8 }
  - { offset: 0xA7639, size: 0x8, addend: 0x0, symName: __RNvXsq_NtNtCs6IAuOt8vWmF_3syn3gen5cloneNtNtB9_4expr9ExprBlockNtNtCsfvfooZQ3Axs_4core5clone5Clone5clone, symObjAddr: 0x11A34, symBinAddr: 0x42C60, symSize: 0xF0 }
  - { offset: 0xA766D, size: 0x8, addend: 0x0, symName: __RNvXsr_NtNtCs6IAuOt8vWmF_3syn3gen5cloneNtNtB9_4expr9ExprBreakNtNtCsfvfooZQ3Axs_4core5clone5Clone5clone, symObjAddr: 0x11B24, symBinAddr: 0x42D50, symSize: 0xF8 }
  - { offset: 0xA76A1, size: 0x8, addend: 0x0, symName: __RNvXss_NtNtCs6IAuOt8vWmF_3syn3gen5cloneNtNtB9_4expr8ExprCallNtNtCsfvfooZQ3Axs_4core5clone5Clone5clone, symObjAddr: 0x11C1C, symBinAddr: 0x42E48, symSize: 0x108 }
  - { offset: 0xA76D5, size: 0x8, addend: 0x0, symName: __RNvXst_NtNtCs6IAuOt8vWmF_3syn3gen5cloneNtNtB9_4expr8ExprCastNtNtCsfvfooZQ3Axs_4core5clone5Clone5clone, symObjAddr: 0x11D24, symBinAddr: 0x42F50, symSize: 0xF8 }
  - { offset: 0xA7709, size: 0x8, addend: 0x0, symName: __RNvXsu_NtNtCs6IAuOt8vWmF_3syn3gen5cloneNtNtB9_4expr11ExprClosureNtNtCsfvfooZQ3Axs_4core5clone5Clone5clone, symObjAddr: 0x11E1C, symBinAddr: 0x43048, symSize: 0x25C }
  - { offset: 0xA773D, size: 0x8, addend: 0x0, symName: __RNvXsv_NtNtCs6IAuOt8vWmF_3syn3gen5cloneNtNtB9_4expr9ExprConstNtNtCsfvfooZQ3Axs_4core5clone5Clone5clone, symObjAddr: 0x12078, symBinAddr: 0x432A4, symSize: 0xC4 }
  - { offset: 0xA7771, size: 0x8, addend: 0x0, symName: __RNvXsw_NtNtCs6IAuOt8vWmF_3syn3gen5cloneNtNtB9_4expr12ExprContinueNtNtCsfvfooZQ3Axs_4core5clone5Clone5clone, symObjAddr: 0x1213C, symBinAddr: 0x43368, symSize: 0xC0 }
  - { offset: 0xA77A5, size: 0x8, addend: 0x0, symName: __RNvXsx_NtNtCs6IAuOt8vWmF_3syn3gen5cloneNtNtB9_4expr9ExprFieldNtNtCsfvfooZQ3Axs_4core5clone5Clone5clone, symObjAddr: 0x121FC, symBinAddr: 0x43428, symSize: 0x110 }
  - { offset: 0xA77D9, size: 0x8, addend: 0x0, symName: __RNvXsy_NtNtCs6IAuOt8vWmF_3syn3gen5cloneNtNtB9_4expr11ExprForLoopNtNtCsfvfooZQ3Axs_4core5clone5Clone5clone, symObjAddr: 0x1230C, symBinAddr: 0x43538, symSize: 0x1A8 }
  - { offset: 0xA780D, size: 0x8, addend: 0x0, symName: __RNvXsz_NtNtCs6IAuOt8vWmF_3syn3gen5cloneNtNtB9_4expr9ExprGroupNtNtCsfvfooZQ3Axs_4core5clone5Clone5clone, symObjAddr: 0x124B4, symBinAddr: 0x436E0, symSize: 0xB8 }
  - { offset: 0xA7841, size: 0x8, addend: 0x0, symName: __RNvXsA_NtNtCs6IAuOt8vWmF_3syn3gen5cloneNtNtB9_4expr6ExprIfNtNtCsfvfooZQ3Axs_4core5clone5Clone5clone, symObjAddr: 0x1256C, symBinAddr: 0x43798, symSize: 0x14C }
  - { offset: 0xA7875, size: 0x8, addend: 0x0, symName: __RNvXsB_NtNtCs6IAuOt8vWmF_3syn3gen5cloneNtNtB9_4expr9ExprIndexNtNtCsfvfooZQ3Axs_4core5clone5Clone5clone, symObjAddr: 0x126B8, symBinAddr: 0x438E4, symSize: 0x100 }
  - { offset: 0xA78A9, size: 0x8, addend: 0x0, symName: __RNvXsC_NtNtCs6IAuOt8vWmF_3syn3gen5cloneNtNtB9_4expr9ExprInferNtNtCsfvfooZQ3Axs_4core5clone5Clone5clone, symObjAddr: 0x127B8, symBinAddr: 0x439E4, symSize: 0xAC }
  - { offset: 0xA78DD, size: 0x8, addend: 0x0, symName: __RNvXsD_NtNtCs6IAuOt8vWmF_3syn3gen5cloneNtNtB9_4expr7ExprLetNtNtCsfvfooZQ3Axs_4core5clone5Clone5clone, symObjAddr: 0x12864, symBinAddr: 0x43A90, symSize: 0x124 }
  - { offset: 0xA7911, size: 0x8, addend: 0x0, symName: __RNvXsE_NtNtCs6IAuOt8vWmF_3syn3gen5cloneNtNtB9_4expr7ExprLitNtNtCsfvfooZQ3Axs_4core5clone5Clone5clone, symObjAddr: 0x12988, symBinAddr: 0x43BB4, symSize: 0xA4 }
  - { offset: 0xA7945, size: 0x8, addend: 0x0, symName: __RNvXsF_NtNtCs6IAuOt8vWmF_3syn3gen5cloneNtNtB9_4expr8ExprLoopNtNtCsfvfooZQ3Axs_4core5clone5Clone5clone, symObjAddr: 0x12A2C, symBinAddr: 0x43C58, symSize: 0x10C }
  - { offset: 0xA7979, size: 0x8, addend: 0x0, symName: __RNvXsG_NtNtCs6IAuOt8vWmF_3syn3gen5cloneNtNtB9_4expr9ExprMacroNtNtCsfvfooZQ3Axs_4core5clone5Clone5clone, symObjAddr: 0x12B38, symBinAddr: 0x43D64, symSize: 0xA8 }
  - { offset: 0xA79AD, size: 0x8, addend: 0x0, symName: __RNvXsH_NtNtCs6IAuOt8vWmF_3syn3gen5cloneNtNtB9_4expr9ExprMatchNtNtCsfvfooZQ3Axs_4core5clone5Clone5clone, symObjAddr: 0x12BE0, symBinAddr: 0x43E0C, symSize: 0x12C }
  - { offset: 0xA79E1, size: 0x8, addend: 0x0, symName: __RNvXsI_NtNtCs6IAuOt8vWmF_3syn3gen5cloneNtNtB9_4expr14ExprMethodCallNtNtCsfvfooZQ3Axs_4core5clone5Clone5clone, symObjAddr: 0x12D0C, symBinAddr: 0x43F38, symSize: 0x1D0 }
  - { offset: 0xA7A15, size: 0x8, addend: 0x0, symName: __RNvXsJ_NtNtCs6IAuOt8vWmF_3syn3gen5cloneNtNtB9_4expr9ExprParenNtNtCsfvfooZQ3Axs_4core5clone5Clone5clone, symObjAddr: 0x12EDC, symBinAddr: 0x44108, symSize: 0xC0 }
  - { offset: 0xA7A49, size: 0x8, addend: 0x0, symName: __RNvXsK_NtNtCs6IAuOt8vWmF_3syn3gen5cloneNtNtB9_4expr8ExprPathNtNtCsfvfooZQ3Axs_4core5clone5Clone5clone, symObjAddr: 0x12F9C, symBinAddr: 0x441C8, symSize: 0xE8 }
  - { offset: 0xA7A7D, size: 0x8, addend: 0x0, symName: __RNvXsL_NtNtCs6IAuOt8vWmF_3syn3gen5cloneNtNtB9_4expr9ExprRangeNtNtCsfvfooZQ3Axs_4core5clone5Clone5clone, symObjAddr: 0x13084, symBinAddr: 0x442B0, symSize: 0xF8 }
  - { offset: 0xA7AB1, size: 0x8, addend: 0x0, symName: __RNvXsM_NtNtCs6IAuOt8vWmF_3syn3gen5cloneNtNtB9_4expr11ExprRawAddrNtNtCsfvfooZQ3Axs_4core5clone5Clone5clone, symObjAddr: 0x1317C, symBinAddr: 0x443A8, symSize: 0x10C }
  - { offset: 0xA7AE5, size: 0x8, addend: 0x0, symName: __RNvXsN_NtNtCs6IAuOt8vWmF_3syn3gen5cloneNtNtB9_4expr13ExprReferenceNtNtCsfvfooZQ3Axs_4core5clone5Clone5clone, symObjAddr: 0x13288, symBinAddr: 0x444B4, symSize: 0xF0 }
  - { offset: 0xA7B19, size: 0x8, addend: 0x0, symName: __RNvXsO_NtNtCs6IAuOt8vWmF_3syn3gen5cloneNtNtB9_4expr10ExprRepeatNtNtCsfvfooZQ3Axs_4core5clone5Clone5clone, symObjAddr: 0x13378, symBinAddr: 0x445A4, symSize: 0x12C }
  - { offset: 0xA7B4D, size: 0x8, addend: 0x0, symName: __RNvXsP_NtNtCs6IAuOt8vWmF_3syn3gen5cloneNtNtB9_4expr10ExprReturnNtNtCsfvfooZQ3Axs_4core5clone5Clone5clone, symObjAddr: 0x134A4, symBinAddr: 0x446D0, symSize: 0xB8 }
  - { offset: 0xA7B81, size: 0x8, addend: 0x0, symName: __RNvXsQ_NtNtCs6IAuOt8vWmF_3syn3gen5cloneNtNtB9_4expr10ExprStructNtNtCsfvfooZQ3Axs_4core5clone5Clone5clone, symObjAddr: 0x1355C, symBinAddr: 0x44788, symSize: 0x1B8 }
  - { offset: 0xA7BB5, size: 0x8, addend: 0x0, symName: __RNvXsR_NtNtCs6IAuOt8vWmF_3syn3gen5cloneNtNtB9_4expr7ExprTryNtNtCsfvfooZQ3Axs_4core5clone5Clone5clone, symObjAddr: 0x13714, symBinAddr: 0x44940, symSize: 0xEC }
  - { offset: 0xA7BE9, size: 0x8, addend: 0x0, symName: __RNvXsS_NtNtCs6IAuOt8vWmF_3syn3gen5cloneNtNtB9_4expr12ExprTryBlockNtNtCsfvfooZQ3Axs_4core5clone5Clone5clone, symObjAddr: 0x13800, symBinAddr: 0x44A2C, symSize: 0xC4 }
  - { offset: 0xA7C1D, size: 0x8, addend: 0x0, symName: __RNvXsT_NtNtCs6IAuOt8vWmF_3syn3gen5cloneNtNtB9_4expr9ExprTupleNtNtCsfvfooZQ3Axs_4core5clone5Clone5clone, symObjAddr: 0x138C4, symBinAddr: 0x44AF0, symSize: 0xC8 }
  - { offset: 0xA7C51, size: 0x8, addend: 0x0, symName: __RNvXsU_NtNtCs6IAuOt8vWmF_3syn3gen5cloneNtNtB9_4expr9ExprUnaryNtNtCsfvfooZQ3Axs_4core5clone5Clone5clone, symObjAddr: 0x1398C, symBinAddr: 0x44BB8, symSize: 0xC8 }
  - { offset: 0xA7C85, size: 0x8, addend: 0x0, symName: __RNvXsV_NtNtCs6IAuOt8vWmF_3syn3gen5cloneNtNtB9_4expr10ExprUnsafeNtNtCsfvfooZQ3Axs_4core5clone5Clone5clone, symObjAddr: 0x13A54, symBinAddr: 0x44C80, symSize: 0xC4 }
  - { offset: 0xA7CB9, size: 0x8, addend: 0x0, symName: __RNvXsW_NtNtCs6IAuOt8vWmF_3syn3gen5cloneNtNtB9_4expr9ExprWhileNtNtCsfvfooZQ3Axs_4core5clone5Clone5clone, symObjAddr: 0x13B18, symBinAddr: 0x44D44, symSize: 0x14C }
  - { offset: 0xA7CED, size: 0x8, addend: 0x0, symName: __RNvXsX_NtNtCs6IAuOt8vWmF_3syn3gen5cloneNtNtB9_4expr9ExprYieldNtNtCsfvfooZQ3Axs_4core5clone5Clone5clone, symObjAddr: 0x13C64, symBinAddr: 0x44E90, symSize: 0xB8 }
  - { offset: 0xA7D21, size: 0x8, addend: 0x0, symName: __RNvXs11_NtNtCs6IAuOt8vWmF_3syn3gen5cloneNtNtBa_4expr10FieldValueNtNtCsfvfooZQ3Axs_4core5clone5Clone5clone, symObjAddr: 0x13D1C, symBinAddr: 0x44F48, symSize: 0x118 }
  - { offset: 0xA7D55, size: 0x8, addend: 0x0, symName: __RNvXs1l_NtNtCs6IAuOt8vWmF_3syn3gen5cloneNtNtBa_4expr5IndexNtNtCsfvfooZQ3Axs_4core5clone5Clone5clone, symObjAddr: 0x13E34, symBinAddr: 0x45060, symSize: 0x48 }
  - { offset: 0xA7D89, size: 0x8, addend: 0x0, symName: __RNvXs1C_NtNtCs6IAuOt8vWmF_3syn3gen5cloneNtNtBa_4expr5LabelNtNtCsfvfooZQ3Axs_4core5clone5Clone5clone, symObjAddr: 0x13E7C, symBinAddr: 0x450A8, symSize: 0xA4 }
  - { offset: 0xA7DBD, size: 0x8, addend: 0x0, symName: __RNvXs1K_NtNtCs6IAuOt8vWmF_3syn3gen5cloneNtNtBa_4expr6MemberNtNtCsfvfooZQ3Axs_4core5clone5Clone5clone, symObjAddr: 0x13F20, symBinAddr: 0x4514C, symSize: 0xB8 }
  - { offset: 0xA7E25, size: 0x8, addend: 0x0, symName: __RNvXs24_NtNtCs6IAuOt8vWmF_3syn3gen5cloneNtNtBa_4expr17PointerMutabilityNtNtCsfvfooZQ3Axs_4core5clone5Clone5clone, symObjAddr: 0x13FD8, symBinAddr: 0x45204, symSize: 0xA0 }
  - { offset: 0xA7E8D, size: 0x8, addend: 0x0, symName: __RNvXs2a_NtNtCs6IAuOt8vWmF_3syn3gen5cloneNtNtBa_4expr11RangeLimitsNtNtCsfvfooZQ3Axs_4core5clone5Clone5clone, symObjAddr: 0x14078, symBinAddr: 0x452A4, symSize: 0x2C }
  - { offset: 0xAB564, size: 0x8, addend: 0x0, symName: __RNvMNtCsfvfooZQ3Axs_4core5sliceSNtNtCs6IAuOt8vWmF_3syn4expr3Arm4iterBy_, symObjAddr: 0xA44, symBinAddr: 0x38630, symSize: 0x28 }
  - { offset: 0xAB59B, size: 0x8, addend: 0x0, symName: __RNvMNtCsfvfooZQ3Axs_4core5sliceSTNtNtCs6IAuOt8vWmF_3syn4expr10FieldValueNtNtBz_5token5CommaE4iterBz_, symObjAddr: 0xA6C, symBinAddr: 0x38658, symSize: 0x28 }
  - { offset: 0xAB5D2, size: 0x8, addend: 0x0, symName: __RNvMNtCsfvfooZQ3Axs_4core5sliceSTNtNtCs6IAuOt8vWmF_3syn4expr4ExprNtNtBz_5token5CommaE4iterBz_, symObjAddr: 0xA94, symBinAddr: 0x38680, symSize: 0x28 }
  - { offset: 0xAB986, size: 0x8, addend: 0x0, symName: __RNvXNtNtCsfvfooZQ3Axs_4core5clone6uninitNtNtCs6IAuOt8vWmF_3syn4expr10FieldValueNtB2_8CopySpec9clone_oneBG_, symObjAddr: 0xB3C, symBinAddr: 0x38728, symSize: 0x50 }
  - { offset: 0xAB9EA, size: 0x8, addend: 0x0, symName: __RNvXNtNtCsfvfooZQ3Axs_4core5clone6uninitNtNtCs6IAuOt8vWmF_3syn4expr4ExprNtB2_8CopySpec9clone_oneBG_, symObjAddr: 0xB8C, symBinAddr: 0x38778, symSize: 0x48 }
  - { offset: 0xAD86D, size: 0x8, addend: 0x0, symName: __RNvXNtCs2cqEZUIJimJ_5quote9to_tokensRNtNtCs6IAuOt8vWmF_3syn4expr10FieldValueNtB2_8ToTokens9to_tokensBD_, symObjAddr: 0xABC, symBinAddr: 0x386A8, symSize: 0x40 }
  - { offset: 0xAD8AC, size: 0x8, addend: 0x0, symName: __RNvXNtCs2cqEZUIJimJ_5quote9to_tokensRNtNtCs6IAuOt8vWmF_3syn4expr4ExprNtB2_8ToTokens9to_tokensBD_, symObjAddr: 0xAFC, symBinAddr: 0x386E8, symSize: 0x40 }
  - { offset: 0xAD964, size: 0x8, addend: 0x0, symName: __RNvMNtCs6IAuOt8vWmF_3syn4exprNtB2_4Expr25parse_without_eager_brace, symObjAddr: 0x1C04, symBinAddr: 0x387C0, symSize: 0x3C }
  - { offset: 0xAD987, size: 0x8, addend: 0x0, symName: __RNvMNtCs6IAuOt8vWmF_3syn4exprNtB2_4Expr32parse_with_earlier_boundary_rule, symObjAddr: 0x1C40, symBinAddr: 0x387FC, symSize: 0x34 }
  - { offset: 0xAD9AA, size: 0x8, addend: 0x0, symName: __RNvMNtCs6IAuOt8vWmF_3syn4exprNtB2_4Expr4peek, symObjAddr: 0x1C74, symBinAddr: 0x38830, symSize: 0x408 }
  - { offset: 0xAD9DA, size: 0x8, addend: 0x0, symName: __RNvMNtCs6IAuOt8vWmF_3syn4exprNtB2_4Expr13replace_attrs, symObjAddr: 0x207C, symBinAddr: 0x38C38, symSize: 0x678 }
  - { offset: 0xADA30, size: 0x8, addend: 0x0, symName: __RNvMs6_NtCs6IAuOt8vWmF_3syn4exprNtB5_6Member8is_named, symObjAddr: 0x2A04, symBinAddr: 0x392B0, symSize: 0x6C }
  - { offset: 0xADA8B, size: 0x8, addend: 0x0, symName: __RNvMsv_NtNtCs6IAuOt8vWmF_3syn4expr7parsingNtB7_11RangeLimits14parse_obsolete, symObjAddr: 0x9428, symBinAddr: 0x3E454, symSize: 0x334 }
  - { offset: 0xADB3E, size: 0x8, addend: 0x0, symName: __RNvMsy_NtNtCs6IAuOt8vWmF_3syn4expr7parsingNtB7_3Arm14parse_multiple, symObjAddr: 0x9A90, symBinAddr: 0x3EABC, symSize: 0x1C4 }
  - { offset: 0xADF08, size: 0x8, addend: 0x0, symName: __RINvXNtNtCse1nGBsou5OW_5alloc5slice4hackTNtNtCs6IAuOt8vWmF_3syn8lifetime8LifetimeNtNtBH_5token4PlusENtB3_10ConvertVec6to_vecNtNtB7_5alloc6GlobalEBH_, symObjAddr: 0x0, symBinAddr: 0x452D0, symSize: 0x368 }
  - { offset: 0xAFC45, size: 0x8, addend: 0x0, symName: __RNCNvMNtCs6IAuOt8vWmF_3syn10punctuatedINtB4_10PunctuatedNtNtB6_4path11PathSegmentNtNtB6_5token7PathSepE10into_pairs0B6_, symObjAddr: 0x5AA4, symBinAddr: 0x48740, symSize: 0x98 }
  - { offset: 0xAFC9A, size: 0x8, addend: 0x0, symName: __RNCNvMNtCs6IAuOt8vWmF_3syn10punctuatedINtB4_10PunctuatedNtNtB6_4path11PathSegmentNtNtB6_5token7PathSepE3pop0B6_, symObjAddr: 0x9E58, symBinAddr: 0x4CAF4, symSize: 0xC4 }
  - { offset: 0xAFCE2, size: 0x8, addend: 0x0, symName: __RNCNvMNtCs6IAuOt8vWmF_3syn10punctuatedINtB4_10PunctuatedNtNtB6_4path11PathSegmentNtNtB6_5token7PathSepE3pops_0B6_, symObjAddr: 0x9F1C, symBinAddr: 0x4CBB8, symSize: 0x74 }
  - { offset: 0xAFE1A, size: 0x8, addend: 0x0, symName: __RNvXs_NtCs6IAuOt8vWmF_3syn10punctuatedINtB4_10PunctuatedNtNtB6_2ty4TypeNtNtB6_5token5CommaENtNtCsfvfooZQ3Axs_4core5clone5Clone5cloneB6_, symObjAddr: 0xB460, symBinAddr: 0x4E0FC, symSize: 0x9C }
  - { offset: 0xAFE5A, size: 0x8, addend: 0x0, symName: __RNvXs_NtCs6IAuOt8vWmF_3syn10punctuatedINtB4_10PunctuatedNtNtB6_2ty9BareFnArgNtNtB6_5token5CommaENtNtCsfvfooZQ3Axs_4core5clone5Clone5cloneB6_, symObjAddr: 0xB4FC, symBinAddr: 0x4E198, symSize: 0x9C }
  - { offset: 0xAFE9A, size: 0x8, addend: 0x0, symName: __RNvXs_NtCs6IAuOt8vWmF_3syn10punctuatedINtB4_10PunctuatedNtNtB6_3pat3PatNtNtB6_5token2OrENtNtCsfvfooZQ3Axs_4core5clone5Clone5cloneB6_, symObjAddr: 0xB598, symBinAddr: 0x4E234, symSize: 0x9C }
  - { offset: 0xAFEDA, size: 0x8, addend: 0x0, symName: __RNvXs_NtCs6IAuOt8vWmF_3syn10punctuatedINtB4_10PunctuatedNtNtB6_3pat3PatNtNtB6_5token5CommaENtNtCsfvfooZQ3Axs_4core5clone5Clone5cloneB6_, symObjAddr: 0xB634, symBinAddr: 0x4E2D0, symSize: 0x9C }
  - { offset: 0xAFF1A, size: 0x8, addend: 0x0, symName: __RNvXs_NtCs6IAuOt8vWmF_3syn10punctuatedINtB4_10PunctuatedNtNtB6_3pat8FieldPatNtNtB6_5token5CommaENtNtCsfvfooZQ3Axs_4core5clone5Clone5cloneB6_, symObjAddr: 0xB6D0, symBinAddr: 0x4E36C, symSize: 0x9C }
  - { offset: 0xAFF5A, size: 0x8, addend: 0x0, symName: __RNvXs_NtCs6IAuOt8vWmF_3syn10punctuatedINtB4_10PunctuatedNtNtB6_4data5FieldNtNtB6_5token5CommaENtNtCsfvfooZQ3Axs_4core5clone5Clone5cloneB6_, symObjAddr: 0xB76C, symBinAddr: 0x4E408, symSize: 0x9C }
  - { offset: 0xAFF9A, size: 0x8, addend: 0x0, symName: __RNvXs_NtCs6IAuOt8vWmF_3syn10punctuatedINtB4_10PunctuatedNtNtB6_4data7VariantNtNtB6_5token5CommaENtNtCsfvfooZQ3Axs_4core5clone5Clone5cloneB6_, symObjAddr: 0xB808, symBinAddr: 0x4E4A4, symSize: 0x9C }
  - { offset: 0xAFFDA, size: 0x8, addend: 0x0, symName: __RNvXs_NtCs6IAuOt8vWmF_3syn10punctuatedINtB4_10PunctuatedNtNtB6_4expr10FieldValueNtNtB6_5token5CommaENtNtCsfvfooZQ3Axs_4core5clone5Clone5cloneB6_, symObjAddr: 0xB8A4, symBinAddr: 0x4E540, symSize: 0x9C }
  - { offset: 0xB001A, size: 0x8, addend: 0x0, symName: __RNvXs_NtCs6IAuOt8vWmF_3syn10punctuatedINtB4_10PunctuatedNtNtB6_4expr4ExprNtNtB6_5token5CommaENtNtCsfvfooZQ3Axs_4core5clone5Clone5cloneB6_, symObjAddr: 0xB940, symBinAddr: 0x4E5DC, symSize: 0x9C }
  - { offset: 0xB005A, size: 0x8, addend: 0x0, symName: __RNvXs_NtCs6IAuOt8vWmF_3syn10punctuatedINtB4_10PunctuatedNtNtB6_4item5FnArgNtNtB6_5token5CommaENtNtCsfvfooZQ3Axs_4core5clone5Clone5cloneB6_, symObjAddr: 0xB9DC, symBinAddr: 0x4E678, symSize: 0x9C }
  - { offset: 0xB009A, size: 0x8, addend: 0x0, symName: __RNvXs_NtCs6IAuOt8vWmF_3syn10punctuatedINtB4_10PunctuatedNtNtB6_4item7UseTreeNtNtB6_5token5CommaENtNtCsfvfooZQ3Axs_4core5clone5Clone5cloneB6_, symObjAddr: 0xBA78, symBinAddr: 0x4E714, symSize: 0x9C }
  - { offset: 0xB00DA, size: 0x8, addend: 0x0, symName: __RNvXs_NtCs6IAuOt8vWmF_3syn10punctuatedINtB4_10PunctuatedNtNtB6_4path11PathSegmentNtNtB6_5token7PathSepENtNtCsfvfooZQ3Axs_4core5clone5Clone5cloneB6_, symObjAddr: 0xBB14, symBinAddr: 0x4E7B0, symSize: 0x9C }
  - { offset: 0xB011A, size: 0x8, addend: 0x0, symName: __RNvXs_NtCs6IAuOt8vWmF_3syn10punctuatedINtB4_10PunctuatedNtNtB6_4path15GenericArgumentNtNtB6_5token5CommaENtNtCsfvfooZQ3Axs_4core5clone5Clone5cloneB6_, symObjAddr: 0xBBB0, symBinAddr: 0x4E84C, symSize: 0x9C }
  - { offset: 0xB015A, size: 0x8, addend: 0x0, symName: __RNvXs_NtCs6IAuOt8vWmF_3syn10punctuatedINtB4_10PunctuatedNtNtB6_8generics12GenericParamNtNtB6_5token5CommaENtNtCsfvfooZQ3Axs_4core5clone5Clone5cloneB6_, symObjAddr: 0xBC4C, symBinAddr: 0x4E8E8, symSize: 0x9C }
  - { offset: 0xB019A, size: 0x8, addend: 0x0, symName: __RNvXs_NtCs6IAuOt8vWmF_3syn10punctuatedINtB4_10PunctuatedNtNtB6_8generics13CapturedParamNtNtB6_5token5CommaENtNtCsfvfooZQ3Axs_4core5clone5Clone5cloneB6_, symObjAddr: 0xBCE8, symBinAddr: 0x4E984, symSize: 0x9C }
  - { offset: 0xB01DA, size: 0x8, addend: 0x0, symName: __RNvXs_NtCs6IAuOt8vWmF_3syn10punctuatedINtB4_10PunctuatedNtNtB6_8generics14TypeParamBoundNtNtB6_5token4PlusENtNtCsfvfooZQ3Axs_4core5clone5Clone5cloneB6_, symObjAddr: 0xBD84, symBinAddr: 0x4EA20, symSize: 0x9C }
  - { offset: 0xB021A, size: 0x8, addend: 0x0, symName: __RNvXs_NtCs6IAuOt8vWmF_3syn10punctuatedINtB4_10PunctuatedNtNtB6_8generics14WherePredicateNtNtB6_5token5CommaENtNtCsfvfooZQ3Axs_4core5clone5Clone5cloneB6_, symObjAddr: 0xBE20, symBinAddr: 0x4EABC, symSize: 0x9C }
  - { offset: 0xB025A, size: 0x8, addend: 0x0, symName: __RNvXs_NtCs6IAuOt8vWmF_3syn10punctuatedINtB4_10PunctuatedNtNtB6_8lifetime8LifetimeNtNtB6_5token4PlusENtNtCsfvfooZQ3Axs_4core5clone5Clone5cloneB6_, symObjAddr: 0xBEBC, symBinAddr: 0x4EB58, symSize: 0x9C }
  - { offset: 0xB02A0, size: 0x8, addend: 0x0, symName: __RINvXs7_NtCs6IAuOt8vWmF_3syn10punctuatedINtB6_10PunctuatedNtNtB8_4path11PathSegmentNtNtB8_5token7PathSepEINtNtNtNtCsfvfooZQ3Axs_4core4iter6traits7collect6ExtendINtB6_4PairBU_B1j_EE6extendINtB6_9IntoPairsBU_B1j_EEB8_, symObjAddr: 0xDFB0, symBinAddr: 0x4EBF4, symSize: 0x124 }
  - { offset: 0xB02F6, size: 0x8, addend: 0x0, symName: __RINvNtCs6IAuOt8vWmF_3syn10punctuated9do_extendNtNtB4_4path11PathSegmentNtNtB4_5token7PathSepINtB2_9IntoPairsBI_B17_EEB4_, symObjAddr: 0xE0D4, symBinAddr: 0x4ED18, symSize: 0x3B4 }
  - { offset: 0xB03F3, size: 0x8, addend: 0x0, symName: __RNvXs8_NtCs6IAuOt8vWmF_3syn10punctuatedINtB5_10PunctuatedNtNtB7_8generics14TypeParamBoundNtNtB7_5token4PlusENtNtNtNtCsfvfooZQ3Axs_4core4iter6traits7collect12IntoIterator9into_iterB7_, symObjAddr: 0xE808, symBinAddr: 0x4F0CC, symSize: 0x1C0 }
  - { offset: 0xB044F, size: 0x8, addend: 0x0, symName: __RNCNvXs8_NtCs6IAuOt8vWmF_3syn10punctuatedINtB7_10PunctuatedNtNtB9_8generics14TypeParamBoundNtNtB9_5token4PlusENtNtNtNtCsfvfooZQ3Axs_4core4iter6traits7collect12IntoIterator9into_iter0B9_, symObjAddr: 0xEA50, symBinAddr: 0x4F28C, symSize: 0x44 }
  - { offset: 0xB049B, size: 0x8, addend: 0x0, symName: __RNCNvXs8_NtCs6IAuOt8vWmF_3syn10punctuatedINtB7_10PunctuatedNtNtB9_8generics14TypeParamBoundNtNtB9_5token4PlusENtNtNtNtCsfvfooZQ3Axs_4core4iter6traits7collect12IntoIterator9into_iters_0B9_, symObjAddr: 0xEBC4, symBinAddr: 0x4F2D0, symSize: 0x98 }
  - { offset: 0xB04FB, size: 0x8, addend: 0x0, symName: __RNvXs9_NtCs6IAuOt8vWmF_3syn10punctuatedRINtB5_10PunctuatedNtNtB7_8generics14TypeParamBoundNtNtB7_5token4PlusENtNtNtNtCsfvfooZQ3Axs_4core4iter6traits7collect12IntoIterator9into_iterB7_, symObjAddr: 0xEC5C, symBinAddr: 0x4F368, symSize: 0x34 }
  - { offset: 0xB0541, size: 0x8, addend: 0x0, symName: __RNvXsc_NtCs6IAuOt8vWmF_3syn10punctuatedINtB5_5PairsNtNtB7_2ty4TypeNtNtB7_5token5CommaENtNtNtNtCsfvfooZQ3Axs_4core4iter6traits8iterator8Iterator4nextB7_, symObjAddr: 0xEC90, symBinAddr: 0x4F39C, symSize: 0x58 }
  - { offset: 0xB0581, size: 0x8, addend: 0x0, symName: __RNvXsc_NtCs6IAuOt8vWmF_3syn10punctuatedINtB5_5PairsNtNtB7_2ty9BareFnArgNtNtB7_5token5CommaENtNtNtNtCsfvfooZQ3Axs_4core4iter6traits8iterator8Iterator4nextB7_, symObjAddr: 0xECE8, symBinAddr: 0x4F3F4, symSize: 0x58 }
  - { offset: 0xB05C1, size: 0x8, addend: 0x0, symName: __RNvXsc_NtCs6IAuOt8vWmF_3syn10punctuatedINtB5_5PairsNtNtB7_3pat3PatNtNtB7_5token2OrENtNtNtNtCsfvfooZQ3Axs_4core4iter6traits8iterator8Iterator4nextB7_, symObjAddr: 0xED40, symBinAddr: 0x4F44C, symSize: 0x58 }
  - { offset: 0xB0601, size: 0x8, addend: 0x0, symName: __RNvXsc_NtCs6IAuOt8vWmF_3syn10punctuatedINtB5_5PairsNtNtB7_3pat3PatNtNtB7_5token5CommaENtNtNtNtCsfvfooZQ3Axs_4core4iter6traits8iterator8Iterator4nextB7_, symObjAddr: 0xED98, symBinAddr: 0x4F4A4, symSize: 0x58 }
  - { offset: 0xB0641, size: 0x8, addend: 0x0, symName: __RNvXsc_NtCs6IAuOt8vWmF_3syn10punctuatedINtB5_5PairsNtNtB7_3pat8FieldPatNtNtB7_5token5CommaENtNtNtNtCsfvfooZQ3Axs_4core4iter6traits8iterator8Iterator4nextB7_, symObjAddr: 0xEDF0, symBinAddr: 0x4F4FC, symSize: 0x58 }
  - { offset: 0xB0681, size: 0x8, addend: 0x0, symName: __RNvXsc_NtCs6IAuOt8vWmF_3syn10punctuatedINtB5_5PairsNtNtB7_4data5FieldNtNtB7_5token5CommaENtNtNtNtCsfvfooZQ3Axs_4core4iter6traits8iterator8Iterator4nextB7_, symObjAddr: 0xEE48, symBinAddr: 0x4F554, symSize: 0x58 }
  - { offset: 0xB06C1, size: 0x8, addend: 0x0, symName: __RNvXsc_NtCs6IAuOt8vWmF_3syn10punctuatedINtB5_5PairsNtNtB7_4data7VariantNtNtB7_5token5CommaENtNtNtNtCsfvfooZQ3Axs_4core4iter6traits8iterator8Iterator4nextB7_, symObjAddr: 0xEEA0, symBinAddr: 0x4F5AC, symSize: 0x58 }
  - { offset: 0xB0701, size: 0x8, addend: 0x0, symName: __RNvXsc_NtCs6IAuOt8vWmF_3syn10punctuatedINtB5_5PairsNtNtB7_4expr10FieldValueNtNtB7_5token5CommaENtNtNtNtCsfvfooZQ3Axs_4core4iter6traits8iterator8Iterator4nextB7_, symObjAddr: 0xEEF8, symBinAddr: 0x4F604, symSize: 0x58 }
  - { offset: 0xB0741, size: 0x8, addend: 0x0, symName: __RNvXsc_NtCs6IAuOt8vWmF_3syn10punctuatedINtB5_5PairsNtNtB7_4expr4ExprNtNtB7_5token5CommaENtNtNtNtCsfvfooZQ3Axs_4core4iter6traits8iterator8Iterator4nextB7_, symObjAddr: 0xEF50, symBinAddr: 0x4F65C, symSize: 0x58 }
  - { offset: 0xB0781, size: 0x8, addend: 0x0, symName: __RNvXsc_NtCs6IAuOt8vWmF_3syn10punctuatedINtB5_5PairsNtNtB7_4item5FnArgNtNtB7_5token5CommaENtNtNtNtCsfvfooZQ3Axs_4core4iter6traits8iterator8Iterator4nextB7_, symObjAddr: 0xEFA8, symBinAddr: 0x4F6B4, symSize: 0x58 }
  - { offset: 0xB07C1, size: 0x8, addend: 0x0, symName: __RNvXsc_NtCs6IAuOt8vWmF_3syn10punctuatedINtB5_5PairsNtNtB7_4item7UseTreeNtNtB7_5token5CommaENtNtNtNtCsfvfooZQ3Axs_4core4iter6traits8iterator8Iterator4nextB7_, symObjAddr: 0xF000, symBinAddr: 0x4F70C, symSize: 0x58 }
  - { offset: 0xB0801, size: 0x8, addend: 0x0, symName: __RNvXsc_NtCs6IAuOt8vWmF_3syn10punctuatedINtB5_5PairsNtNtB7_4path11PathSegmentNtNtB7_5token7PathSepENtNtNtNtCsfvfooZQ3Axs_4core4iter6traits8iterator8Iterator4nextB7_, symObjAddr: 0xF058, symBinAddr: 0x4F764, symSize: 0x58 }
  - { offset: 0xB0841, size: 0x8, addend: 0x0, symName: __RNvXsc_NtCs6IAuOt8vWmF_3syn10punctuatedINtB5_5PairsNtNtB7_4path15GenericArgumentNtNtB7_5token5CommaENtNtNtNtCsfvfooZQ3Axs_4core4iter6traits8iterator8Iterator4nextB7_, symObjAddr: 0xF0B0, symBinAddr: 0x4F7BC, symSize: 0x58 }
  - { offset: 0xB0881, size: 0x8, addend: 0x0, symName: __RNvXsc_NtCs6IAuOt8vWmF_3syn10punctuatedINtB5_5PairsNtNtB7_8generics12GenericParamNtNtB7_5token5CommaENtNtNtNtCsfvfooZQ3Axs_4core4iter6traits8iterator8Iterator4nextB7_, symObjAddr: 0xF108, symBinAddr: 0x4F814, symSize: 0x58 }
  - { offset: 0xB08C1, size: 0x8, addend: 0x0, symName: __RNvXsc_NtCs6IAuOt8vWmF_3syn10punctuatedINtB5_5PairsNtNtB7_8generics13CapturedParamNtNtB7_5token5CommaENtNtNtNtCsfvfooZQ3Axs_4core4iter6traits8iterator8Iterator4nextB7_, symObjAddr: 0xF160, symBinAddr: 0x4F86C, symSize: 0x58 }
  - { offset: 0xB0901, size: 0x8, addend: 0x0, symName: __RNvXsc_NtCs6IAuOt8vWmF_3syn10punctuatedINtB5_5PairsNtNtB7_8generics14TypeParamBoundNtNtB7_5token4PlusENtNtNtNtCsfvfooZQ3Axs_4core4iter6traits8iterator8Iterator4nextB7_, symObjAddr: 0xF1B8, symBinAddr: 0x4F8C4, symSize: 0x58 }
  - { offset: 0xB0941, size: 0x8, addend: 0x0, symName: __RNvXsc_NtCs6IAuOt8vWmF_3syn10punctuatedINtB5_5PairsNtNtB7_8generics14WherePredicateNtNtB7_5token5CommaENtNtNtNtCsfvfooZQ3Axs_4core4iter6traits8iterator8Iterator4nextB7_, symObjAddr: 0xF210, symBinAddr: 0x4F91C, symSize: 0x58 }
  - { offset: 0xB0981, size: 0x8, addend: 0x0, symName: __RNvXsc_NtCs6IAuOt8vWmF_3syn10punctuatedINtB5_5PairsNtNtB7_8lifetime8LifetimeNtNtB7_5token4PlusENtNtNtNtCsfvfooZQ3Axs_4core4iter6traits8iterator8Iterator4nextB7_, symObjAddr: 0xF268, symBinAddr: 0x4F974, symSize: 0x58 }
  - { offset: 0xB09C6, size: 0x8, addend: 0x0, symName: __RNCNvXsc_NtCs6IAuOt8vWmF_3syn10punctuatedINtB7_5PairsNtNtB9_2ty4TypeNtNtB9_5token5CommaENtNtNtNtCsfvfooZQ3Axs_4core4iter6traits8iterator8Iterator4next0B9_, symObjAddr: 0xF2C0, symBinAddr: 0x4F9CC, symSize: 0x40 }
  - { offset: 0xB0A3B, size: 0x8, addend: 0x0, symName: __RNCNvXsc_NtCs6IAuOt8vWmF_3syn10punctuatedINtB7_5PairsNtNtB9_2ty9BareFnArgNtNtB9_5token5CommaENtNtNtNtCsfvfooZQ3Axs_4core4iter6traits8iterator8Iterator4next0B9_, symObjAddr: 0xF300, symBinAddr: 0x4FA0C, symSize: 0x40 }
  - { offset: 0xB0AB0, size: 0x8, addend: 0x0, symName: __RNCNvXsc_NtCs6IAuOt8vWmF_3syn10punctuatedINtB7_5PairsNtNtB9_3pat3PatNtNtB9_5token2OrENtNtNtNtCsfvfooZQ3Axs_4core4iter6traits8iterator8Iterator4next0B9_, symObjAddr: 0xF340, symBinAddr: 0x4FA4C, symSize: 0x40 }
  - { offset: 0xB0B25, size: 0x8, addend: 0x0, symName: __RNCNvXsc_NtCs6IAuOt8vWmF_3syn10punctuatedINtB7_5PairsNtNtB9_3pat3PatNtNtB9_5token5CommaENtNtNtNtCsfvfooZQ3Axs_4core4iter6traits8iterator8Iterator4next0B9_, symObjAddr: 0xF380, symBinAddr: 0x4FA8C, symSize: 0x40 }
  - { offset: 0xB0B9A, size: 0x8, addend: 0x0, symName: __RNCNvXsc_NtCs6IAuOt8vWmF_3syn10punctuatedINtB7_5PairsNtNtB9_3pat8FieldPatNtNtB9_5token5CommaENtNtNtNtCsfvfooZQ3Axs_4core4iter6traits8iterator8Iterator4next0B9_, symObjAddr: 0xF3C0, symBinAddr: 0x4FACC, symSize: 0x40 }
  - { offset: 0xB0C0F, size: 0x8, addend: 0x0, symName: __RNCNvXsc_NtCs6IAuOt8vWmF_3syn10punctuatedINtB7_5PairsNtNtB9_4data5FieldNtNtB9_5token5CommaENtNtNtNtCsfvfooZQ3Axs_4core4iter6traits8iterator8Iterator4next0B9_, symObjAddr: 0xF400, symBinAddr: 0x4FB0C, symSize: 0x40 }
  - { offset: 0xB0C84, size: 0x8, addend: 0x0, symName: __RNCNvXsc_NtCs6IAuOt8vWmF_3syn10punctuatedINtB7_5PairsNtNtB9_4data7VariantNtNtB9_5token5CommaENtNtNtNtCsfvfooZQ3Axs_4core4iter6traits8iterator8Iterator4next0B9_, symObjAddr: 0xF440, symBinAddr: 0x4FB4C, symSize: 0x40 }
  - { offset: 0xB0CF9, size: 0x8, addend: 0x0, symName: __RNCNvXsc_NtCs6IAuOt8vWmF_3syn10punctuatedINtB7_5PairsNtNtB9_4expr10FieldValueNtNtB9_5token5CommaENtNtNtNtCsfvfooZQ3Axs_4core4iter6traits8iterator8Iterator4next0B9_, symObjAddr: 0xF480, symBinAddr: 0x4FB8C, symSize: 0x40 }
  - { offset: 0xB0D6E, size: 0x8, addend: 0x0, symName: __RNCNvXsc_NtCs6IAuOt8vWmF_3syn10punctuatedINtB7_5PairsNtNtB9_4expr4ExprNtNtB9_5token5CommaENtNtNtNtCsfvfooZQ3Axs_4core4iter6traits8iterator8Iterator4next0B9_, symObjAddr: 0xF4C0, symBinAddr: 0x4FBCC, symSize: 0x40 }
  - { offset: 0xB0DE3, size: 0x8, addend: 0x0, symName: __RNCNvXsc_NtCs6IAuOt8vWmF_3syn10punctuatedINtB7_5PairsNtNtB9_4item5FnArgNtNtB9_5token5CommaENtNtNtNtCsfvfooZQ3Axs_4core4iter6traits8iterator8Iterator4next0B9_, symObjAddr: 0xF500, symBinAddr: 0x4FC0C, symSize: 0x40 }
  - { offset: 0xB0E58, size: 0x8, addend: 0x0, symName: __RNCNvXsc_NtCs6IAuOt8vWmF_3syn10punctuatedINtB7_5PairsNtNtB9_4item7UseTreeNtNtB9_5token5CommaENtNtNtNtCsfvfooZQ3Axs_4core4iter6traits8iterator8Iterator4next0B9_, symObjAddr: 0xF540, symBinAddr: 0x4FC4C, symSize: 0x40 }
  - { offset: 0xB0ECD, size: 0x8, addend: 0x0, symName: __RNCNvXsc_NtCs6IAuOt8vWmF_3syn10punctuatedINtB7_5PairsNtNtB9_4path11PathSegmentNtNtB9_5token7PathSepENtNtNtNtCsfvfooZQ3Axs_4core4iter6traits8iterator8Iterator4next0B9_, symObjAddr: 0xF580, symBinAddr: 0x4FC8C, symSize: 0x40 }
  - { offset: 0xB0F42, size: 0x8, addend: 0x0, symName: __RNCNvXsc_NtCs6IAuOt8vWmF_3syn10punctuatedINtB7_5PairsNtNtB9_4path15GenericArgumentNtNtB9_5token5CommaENtNtNtNtCsfvfooZQ3Axs_4core4iter6traits8iterator8Iterator4next0B9_, symObjAddr: 0xF5C0, symBinAddr: 0x4FCCC, symSize: 0x40 }
  - { offset: 0xB0FB7, size: 0x8, addend: 0x0, symName: __RNCNvXsc_NtCs6IAuOt8vWmF_3syn10punctuatedINtB7_5PairsNtNtB9_8generics12GenericParamNtNtB9_5token5CommaENtNtNtNtCsfvfooZQ3Axs_4core4iter6traits8iterator8Iterator4next0B9_, symObjAddr: 0xF600, symBinAddr: 0x4FD0C, symSize: 0x40 }
  - { offset: 0xB102C, size: 0x8, addend: 0x0, symName: __RNCNvXsc_NtCs6IAuOt8vWmF_3syn10punctuatedINtB7_5PairsNtNtB9_8generics13CapturedParamNtNtB9_5token5CommaENtNtNtNtCsfvfooZQ3Axs_4core4iter6traits8iterator8Iterator4next0B9_, symObjAddr: 0xF640, symBinAddr: 0x4FD4C, symSize: 0x40 }
  - { offset: 0xB10A1, size: 0x8, addend: 0x0, symName: __RNCNvXsc_NtCs6IAuOt8vWmF_3syn10punctuatedINtB7_5PairsNtNtB9_8generics14TypeParamBoundNtNtB9_5token4PlusENtNtNtNtCsfvfooZQ3Axs_4core4iter6traits8iterator8Iterator4next0B9_, symObjAddr: 0xF680, symBinAddr: 0x4FD8C, symSize: 0x40 }
  - { offset: 0xB1116, size: 0x8, addend: 0x0, symName: __RNCNvXsc_NtCs6IAuOt8vWmF_3syn10punctuatedINtB7_5PairsNtNtB9_8generics14WherePredicateNtNtB9_5token5CommaENtNtNtNtCsfvfooZQ3Axs_4core4iter6traits8iterator8Iterator4next0B9_, symObjAddr: 0xF6C0, symBinAddr: 0x4FDCC, symSize: 0x40 }
  - { offset: 0xB118B, size: 0x8, addend: 0x0, symName: __RNCNvXsc_NtCs6IAuOt8vWmF_3syn10punctuatedINtB7_5PairsNtNtB9_8lifetime8LifetimeNtNtB9_5token4PlusENtNtNtNtCsfvfooZQ3Axs_4core4iter6traits8iterator8Iterator4next0B9_, symObjAddr: 0xF700, symBinAddr: 0x4FE0C, symSize: 0x40 }
  - { offset: 0xB1200, size: 0x8, addend: 0x0, symName: __RNCNvXsc_NtCs6IAuOt8vWmF_3syn10punctuatedINtB7_5PairsNtNtB9_2ty4TypeNtNtB9_5token5CommaENtNtNtNtCsfvfooZQ3Axs_4core4iter6traits8iterator8Iterator4nexts_0B9_, symObjAddr: 0xF740, symBinAddr: 0x4FE4C, symSize: 0x40 }
  - { offset: 0xB1242, size: 0x8, addend: 0x0, symName: __RNCNvXsc_NtCs6IAuOt8vWmF_3syn10punctuatedINtB7_5PairsNtNtB9_2ty9BareFnArgNtNtB9_5token5CommaENtNtNtNtCsfvfooZQ3Axs_4core4iter6traits8iterator8Iterator4nexts_0B9_, symObjAddr: 0xF780, symBinAddr: 0x4FE8C, symSize: 0x40 }
  - { offset: 0xB1284, size: 0x8, addend: 0x0, symName: __RNCNvXsc_NtCs6IAuOt8vWmF_3syn10punctuatedINtB7_5PairsNtNtB9_3pat3PatNtNtB9_5token2OrENtNtNtNtCsfvfooZQ3Axs_4core4iter6traits8iterator8Iterator4nexts_0B9_, symObjAddr: 0xF7C0, symBinAddr: 0x4FECC, symSize: 0x40 }
  - { offset: 0xB12C6, size: 0x8, addend: 0x0, symName: __RNCNvXsc_NtCs6IAuOt8vWmF_3syn10punctuatedINtB7_5PairsNtNtB9_3pat3PatNtNtB9_5token5CommaENtNtNtNtCsfvfooZQ3Axs_4core4iter6traits8iterator8Iterator4nexts_0B9_, symObjAddr: 0xF800, symBinAddr: 0x4FF0C, symSize: 0x40 }
  - { offset: 0xB1308, size: 0x8, addend: 0x0, symName: __RNCNvXsc_NtCs6IAuOt8vWmF_3syn10punctuatedINtB7_5PairsNtNtB9_3pat8FieldPatNtNtB9_5token5CommaENtNtNtNtCsfvfooZQ3Axs_4core4iter6traits8iterator8Iterator4nexts_0B9_, symObjAddr: 0xF840, symBinAddr: 0x4FF4C, symSize: 0x40 }
  - { offset: 0xB134A, size: 0x8, addend: 0x0, symName: __RNCNvXsc_NtCs6IAuOt8vWmF_3syn10punctuatedINtB7_5PairsNtNtB9_4data5FieldNtNtB9_5token5CommaENtNtNtNtCsfvfooZQ3Axs_4core4iter6traits8iterator8Iterator4nexts_0B9_, symObjAddr: 0xF880, symBinAddr: 0x4FF8C, symSize: 0x40 }
  - { offset: 0xB138C, size: 0x8, addend: 0x0, symName: __RNCNvXsc_NtCs6IAuOt8vWmF_3syn10punctuatedINtB7_5PairsNtNtB9_4data7VariantNtNtB9_5token5CommaENtNtNtNtCsfvfooZQ3Axs_4core4iter6traits8iterator8Iterator4nexts_0B9_, symObjAddr: 0xF8C0, symBinAddr: 0x4FFCC, symSize: 0x40 }
  - { offset: 0xB13CE, size: 0x8, addend: 0x0, symName: __RNCNvXsc_NtCs6IAuOt8vWmF_3syn10punctuatedINtB7_5PairsNtNtB9_4expr10FieldValueNtNtB9_5token5CommaENtNtNtNtCsfvfooZQ3Axs_4core4iter6traits8iterator8Iterator4nexts_0B9_, symObjAddr: 0xF900, symBinAddr: 0x5000C, symSize: 0x40 }
  - { offset: 0xB1410, size: 0x8, addend: 0x0, symName: __RNCNvXsc_NtCs6IAuOt8vWmF_3syn10punctuatedINtB7_5PairsNtNtB9_4expr4ExprNtNtB9_5token5CommaENtNtNtNtCsfvfooZQ3Axs_4core4iter6traits8iterator8Iterator4nexts_0B9_, symObjAddr: 0xF940, symBinAddr: 0x5004C, symSize: 0x40 }
  - { offset: 0xB1452, size: 0x8, addend: 0x0, symName: __RNCNvXsc_NtCs6IAuOt8vWmF_3syn10punctuatedINtB7_5PairsNtNtB9_4item5FnArgNtNtB9_5token5CommaENtNtNtNtCsfvfooZQ3Axs_4core4iter6traits8iterator8Iterator4nexts_0B9_, symObjAddr: 0xF980, symBinAddr: 0x5008C, symSize: 0x40 }
  - { offset: 0xB1494, size: 0x8, addend: 0x0, symName: __RNCNvXsc_NtCs6IAuOt8vWmF_3syn10punctuatedINtB7_5PairsNtNtB9_4item7UseTreeNtNtB9_5token5CommaENtNtNtNtCsfvfooZQ3Axs_4core4iter6traits8iterator8Iterator4nexts_0B9_, symObjAddr: 0xF9C0, symBinAddr: 0x500CC, symSize: 0x40 }
  - { offset: 0xB14D6, size: 0x8, addend: 0x0, symName: __RNCNvXsc_NtCs6IAuOt8vWmF_3syn10punctuatedINtB7_5PairsNtNtB9_4path11PathSegmentNtNtB9_5token7PathSepENtNtNtNtCsfvfooZQ3Axs_4core4iter6traits8iterator8Iterator4nexts_0B9_, symObjAddr: 0xFA00, symBinAddr: 0x5010C, symSize: 0x40 }
  - { offset: 0xB1518, size: 0x8, addend: 0x0, symName: __RNCNvXsc_NtCs6IAuOt8vWmF_3syn10punctuatedINtB7_5PairsNtNtB9_4path15GenericArgumentNtNtB9_5token5CommaENtNtNtNtCsfvfooZQ3Axs_4core4iter6traits8iterator8Iterator4nexts_0B9_, symObjAddr: 0xFA40, symBinAddr: 0x5014C, symSize: 0x40 }
  - { offset: 0xB155A, size: 0x8, addend: 0x0, symName: __RNCNvXsc_NtCs6IAuOt8vWmF_3syn10punctuatedINtB7_5PairsNtNtB9_8generics12GenericParamNtNtB9_5token5CommaENtNtNtNtCsfvfooZQ3Axs_4core4iter6traits8iterator8Iterator4nexts_0B9_, symObjAddr: 0xFA80, symBinAddr: 0x5018C, symSize: 0x40 }
  - { offset: 0xB159C, size: 0x8, addend: 0x0, symName: __RNCNvXsc_NtCs6IAuOt8vWmF_3syn10punctuatedINtB7_5PairsNtNtB9_8generics13CapturedParamNtNtB9_5token5CommaENtNtNtNtCsfvfooZQ3Axs_4core4iter6traits8iterator8Iterator4nexts_0B9_, symObjAddr: 0xFAC0, symBinAddr: 0x501CC, symSize: 0x40 }
  - { offset: 0xB15DE, size: 0x8, addend: 0x0, symName: __RNCNvXsc_NtCs6IAuOt8vWmF_3syn10punctuatedINtB7_5PairsNtNtB9_8generics14TypeParamBoundNtNtB9_5token4PlusENtNtNtNtCsfvfooZQ3Axs_4core4iter6traits8iterator8Iterator4nexts_0B9_, symObjAddr: 0xFB00, symBinAddr: 0x5020C, symSize: 0x40 }
  - { offset: 0xB1620, size: 0x8, addend: 0x0, symName: __RNCNvXsc_NtCs6IAuOt8vWmF_3syn10punctuatedINtB7_5PairsNtNtB9_8generics14WherePredicateNtNtB9_5token5CommaENtNtNtNtCsfvfooZQ3Axs_4core4iter6traits8iterator8Iterator4nexts_0B9_, symObjAddr: 0xFB40, symBinAddr: 0x5024C, symSize: 0x40 }
  - { offset: 0xB1662, size: 0x8, addend: 0x0, symName: __RNCNvXsc_NtCs6IAuOt8vWmF_3syn10punctuatedINtB7_5PairsNtNtB9_8lifetime8LifetimeNtNtB9_5token4PlusENtNtNtNtCsfvfooZQ3Axs_4core4iter6traits8iterator8Iterator4nexts_0B9_, symObjAddr: 0xFB80, symBinAddr: 0x5028C, symSize: 0x40 }
  - { offset: 0xB1729, size: 0x8, addend: 0x0, symName: __RNvXsj_NtCs6IAuOt8vWmF_3syn10punctuatedINtB5_9IntoPairsNtNtB7_4path11PathSegmentNtNtB7_5token7PathSepENtNtNtNtCsfvfooZQ3Axs_4core4iter6traits8iterator8Iterator4nextB7_, symObjAddr: 0xFBC0, symBinAddr: 0x502CC, symSize: 0x6C }
  - { offset: 0xB176E, size: 0x8, addend: 0x0, symName: __RNCNvXsj_NtCs6IAuOt8vWmF_3syn10punctuatedINtB7_9IntoPairsNtNtB9_4path11PathSegmentNtNtB9_5token7PathSepENtNtNtNtCsfvfooZQ3Axs_4core4iter6traits8iterator8Iterator4next0B9_, symObjAddr: 0xFC2C, symBinAddr: 0x50338, symSize: 0x74 }
  - { offset: 0xB17DC, size: 0x8, addend: 0x0, symName: __RNCNvXsj_NtCs6IAuOt8vWmF_3syn10punctuatedINtB7_9IntoPairsNtNtB9_4path11PathSegmentNtNtB9_5token7PathSepENtNtNtNtCsfvfooZQ3Axs_4core4iter6traits8iterator8Iterator4nexts_0B9_, symObjAddr: 0xFCA0, symBinAddr: 0x503AC, symSize: 0x4C }
  - { offset: 0xB182C, size: 0x8, addend: 0x0, symName: __RNvXsn_NtCs6IAuOt8vWmF_3syn10punctuatedINtB5_8IntoIterNtNtB7_8generics14TypeParamBoundENtNtNtNtCsfvfooZQ3Axs_4core4iter6traits8iterator8Iterator4nextB7_, symObjAddr: 0xFCEC, symBinAddr: 0x503F8, symSize: 0x34 }
  - { offset: 0xB1869, size: 0x8, addend: 0x0, symName: __RNvXst_NtCs6IAuOt8vWmF_3syn10punctuatedINtB5_4IterNtNtB7_4path11PathSegmentENtNtNtNtCsfvfooZQ3Axs_4core4iter6traits8iterator8Iterator4nextB7_, symObjAddr: 0xFE60, symBinAddr: 0x5042C, symSize: 0x48 }
  - { offset: 0xB18A0, size: 0x8, addend: 0x0, symName: __RNvXst_NtCs6IAuOt8vWmF_3syn10punctuatedINtB5_4IterNtNtB7_8generics14TypeParamBoundENtNtNtNtCsfvfooZQ3Axs_4core4iter6traits8iterator8Iterator4nextB7_, symObjAddr: 0xFEF0, symBinAddr: 0x50474, symSize: 0x48 }
  - { offset: 0xB18DD, size: 0x8, addend: 0x0, symName: __RNvXsu_NtCs6IAuOt8vWmF_3syn10punctuatedINtB5_4IterNtNtB7_4path11PathSegmentENtNtNtNtCsfvfooZQ3Axs_4core4iter6traits12double_ended19DoubleEndedIterator9next_backB7_, symObjAddr: 0xFF38, symBinAddr: 0x504BC, symSize: 0x48 }
  - { offset: 0xB1914, size: 0x8, addend: 0x0, symName: __RNvXsu_NtCs6IAuOt8vWmF_3syn10punctuatedINtB5_4IterNtNtB7_8generics14TypeParamBoundENtNtNtNtCsfvfooZQ3Axs_4core4iter6traits12double_ended19DoubleEndedIterator9next_backB7_, symObjAddr: 0xFF80, symBinAddr: 0x50504, symSize: 0x48 }
  - { offset: 0xB1951, size: 0x8, addend: 0x0, symName: __RNvXsw_NtCs6IAuOt8vWmF_3syn10punctuatedINtB5_11PrivateIterNtNtB7_4path11PathSegmentNtNtB7_5token7PathSepENtNtNtNtCsfvfooZQ3Axs_4core4iter6traits8iterator8Iterator4nextB7_, symObjAddr: 0x10050, symBinAddr: 0x5054C, symSize: 0x44 }
  - { offset: 0xB1991, size: 0x8, addend: 0x0, symName: __RNvXsw_NtCs6IAuOt8vWmF_3syn10punctuatedINtB5_11PrivateIterNtNtB7_8generics14TypeParamBoundNtNtB7_5token4PlusENtNtNtNtCsfvfooZQ3Axs_4core4iter6traits8iterator8Iterator4nextB7_, symObjAddr: 0x100D8, symBinAddr: 0x50590, symSize: 0x44 }
  - { offset: 0xB19D6, size: 0x8, addend: 0x0, symName: __RNCNvXsw_NtCs6IAuOt8vWmF_3syn10punctuatedINtB7_11PrivateIterNtNtB9_4path11PathSegmentNtNtB9_5token7PathSepENtNtNtNtCsfvfooZQ3Axs_4core4iter6traits8iterator8Iterator4next0B9_, symObjAddr: 0x10164, symBinAddr: 0x505D4, symSize: 0x24 }
  - { offset: 0xB1A21, size: 0x8, addend: 0x0, symName: __RNCNvXsw_NtCs6IAuOt8vWmF_3syn10punctuatedINtB7_11PrivateIterNtNtB9_8generics14TypeParamBoundNtNtB9_5token4PlusENtNtNtNtCsfvfooZQ3Axs_4core4iter6traits8iterator8Iterator4next0B9_, symObjAddr: 0x101AC, symBinAddr: 0x505F8, symSize: 0x24 }
  - { offset: 0xB1A6C, size: 0x8, addend: 0x0, symName: __RNCNvXsw_NtCs6IAuOt8vWmF_3syn10punctuatedINtB7_11PrivateIterNtNtB9_4path11PathSegmentNtNtB9_5token7PathSepENtNtNtNtCsfvfooZQ3Axs_4core4iter6traits8iterator8Iterator4nexts_0B9_, symObjAddr: 0x10238, symBinAddr: 0x5061C, symSize: 0x34 }
  - { offset: 0xB1AAE, size: 0x8, addend: 0x0, symName: __RNCNvXsw_NtCs6IAuOt8vWmF_3syn10punctuatedINtB7_11PrivateIterNtNtB9_8generics14TypeParamBoundNtNtB9_5token4PlusENtNtNtNtCsfvfooZQ3Axs_4core4iter6traits8iterator8Iterator4nexts_0B9_, symObjAddr: 0x102A0, symBinAddr: 0x50650, symSize: 0x34 }
  - { offset: 0xB1B05, size: 0x8, addend: 0x0, symName: __RNvXsx_NtCs6IAuOt8vWmF_3syn10punctuatedINtB5_11PrivateIterNtNtB7_4path11PathSegmentNtNtB7_5token7PathSepENtNtNtNtCsfvfooZQ3Axs_4core4iter6traits12double_ended19DoubleEndedIterator9next_backB7_, symObjAddr: 0x10354, symBinAddr: 0x50684, symSize: 0x40 }
  - { offset: 0xB1B45, size: 0x8, addend: 0x0, symName: __RNvXsx_NtCs6IAuOt8vWmF_3syn10punctuatedINtB5_11PrivateIterNtNtB7_8generics14TypeParamBoundNtNtB7_5token4PlusENtNtNtNtCsfvfooZQ3Axs_4core4iter6traits12double_ended19DoubleEndedIterator9next_backB7_, symObjAddr: 0x103D4, symBinAddr: 0x506C4, symSize: 0x40 }
  - { offset: 0xB1B8A, size: 0x8, addend: 0x0, symName: __RNCNvXsx_NtCs6IAuOt8vWmF_3syn10punctuatedINtB7_11PrivateIterNtNtB9_4path11PathSegmentNtNtB9_5token7PathSepENtNtNtNtCsfvfooZQ3Axs_4core4iter6traits12double_ended19DoubleEndedIterator9next_back0B9_, symObjAddr: 0x10484, symBinAddr: 0x50704, symSize: 0x38 }
  - { offset: 0xB1BCC, size: 0x8, addend: 0x0, symName: __RNCNvXsx_NtCs6IAuOt8vWmF_3syn10punctuatedINtB7_11PrivateIterNtNtB9_8generics14TypeParamBoundNtNtB9_5token4PlusENtNtNtNtCsfvfooZQ3Axs_4core4iter6traits12double_ended19DoubleEndedIterator9next_back0B9_, symObjAddr: 0x104F4, symBinAddr: 0x5073C, symSize: 0x38 }
  - { offset: 0xB1C13, size: 0x8, addend: 0x0, symName: __RNCNCNvXsx_NtCs6IAuOt8vWmF_3syn10punctuatedINtB9_11PrivateIterNtNtBb_4path11PathSegmentNtNtBb_5token7PathSepENtNtNtNtCsfvfooZQ3Axs_4core4iter6traits12double_ended19DoubleEndedIterator9next_back00Bb_, symObjAddr: 0x10574, symBinAddr: 0x50774, symSize: 0x24 }
  - { offset: 0xB1C5E, size: 0x8, addend: 0x0, symName: __RNCNCNvXsx_NtCs6IAuOt8vWmF_3syn10punctuatedINtB9_11PrivateIterNtNtBb_8generics14TypeParamBoundNtNtBb_5token4PlusENtNtNtNtCsfvfooZQ3Axs_4core4iter6traits12double_ended19DoubleEndedIterator9next_back00Bb_, symObjAddr: 0x105BC, symBinAddr: 0x50798, symSize: 0x24 }
  - { offset: 0xB1CBF, size: 0x8, addend: 0x0, symName: __RNvXsy_NtCs6IAuOt8vWmF_3syn10punctuatedINtB5_11PrivateIterNtNtB7_4path11PathSegmentNtNtB7_5token7PathSepENtNtNtNtCsfvfooZQ3Axs_4core4iter6traits10exact_size17ExactSizeIterator3lenB7_, symObjAddr: 0x10708, symBinAddr: 0x507BC, symSize: 0x94 }
  - { offset: 0xB1D33, size: 0x8, addend: 0x0, symName: __RNvXsy_NtCs6IAuOt8vWmF_3syn10punctuatedINtB5_11PrivateIterNtNtB7_8generics14TypeParamBoundNtNtB7_5token4PlusENtNtNtNtCsfvfooZQ3Axs_4core4iter6traits10exact_size17ExactSizeIterator3lenB7_, symObjAddr: 0x10830, symBinAddr: 0x50850, symSize: 0x94 }
  - { offset: 0xB1DAD, size: 0x8, addend: 0x0, symName: __RNvXsz_NtCs6IAuOt8vWmF_3syn10punctuatedINtB5_11PrivateIterNtNtB7_4path11PathSegmentNtNtB7_5token7PathSepENtNtCsfvfooZQ3Axs_4core5clone5Clone5cloneB7_, symObjAddr: 0x10994, symBinAddr: 0x508E4, symSize: 0x68 }
  - { offset: 0xB1DED, size: 0x8, addend: 0x0, symName: __RNvXsz_NtCs6IAuOt8vWmF_3syn10punctuatedINtB5_11PrivateIterNtNtB7_8generics14TypeParamBoundNtNtB7_5token4PlusENtNtCsfvfooZQ3Axs_4core5clone5Clone5cloneB7_, symObjAddr: 0x10A64, symBinAddr: 0x5094C, symSize: 0x68 }
  - { offset: 0xB1E33, size: 0x8, addend: 0x0, symName: __RNvXsA_NtCs6IAuOt8vWmF_3syn10punctuatedINtB5_11PrivateIterNtNtB7_4path11PathSegmentNtNtB7_5token7PathSepEINtB5_9IterTraitBU_E9clone_boxB7_, symObjAddr: 0x10BF4, symBinAddr: 0x509B4, symSize: 0x94 }
  - { offset: 0xB1E91, size: 0x8, addend: 0x0, symName: __RNvXsA_NtCs6IAuOt8vWmF_3syn10punctuatedINtB5_11PrivateIterNtNtB7_8generics14TypeParamBoundNtNtB7_5token4PlusEINtB5_9IterTraitBU_E9clone_boxB7_, symObjAddr: 0x10D1C, symBinAddr: 0x50A48, symSize: 0x94 }
  - { offset: 0xB1EF5, size: 0x8, addend: 0x0, symName: __RNvXsD_NtCs6IAuOt8vWmF_3syn10punctuatedINtB5_7IterMutNtNtB7_4path11PathSegmentENtNtNtNtCsfvfooZQ3Axs_4core4iter6traits12double_ended19DoubleEndedIterator9next_backB7_, symObjAddr: 0x10E60, symBinAddr: 0x50ADC, symSize: 0x48 }
  - { offset: 0xB1F32, size: 0x8, addend: 0x0, symName: __RNvXsF_NtCs6IAuOt8vWmF_3syn10punctuatedINtB5_14PrivateIterMutNtNtB7_4path11PathSegmentNtNtB7_5token7PathSepENtNtNtNtCsfvfooZQ3Axs_4core4iter6traits8iterator8Iterator4nextB7_, symObjAddr: 0x10EEC, symBinAddr: 0x50B24, symSize: 0x44 }
  - { offset: 0xB1F77, size: 0x8, addend: 0x0, symName: __RNCNvXsF_NtCs6IAuOt8vWmF_3syn10punctuatedINtB7_14PrivateIterMutNtNtB9_4path11PathSegmentNtNtB9_5token7PathSepENtNtNtNtCsfvfooZQ3Axs_4core4iter6traits8iterator8Iterator4next0B9_, symObjAddr: 0x10F98, symBinAddr: 0x50B68, symSize: 0x24 }
  - { offset: 0xB1FC2, size: 0x8, addend: 0x0, symName: __RNCNvXsF_NtCs6IAuOt8vWmF_3syn10punctuatedINtB7_14PrivateIterMutNtNtB9_4path11PathSegmentNtNtB9_5token7PathSepENtNtNtNtCsfvfooZQ3Axs_4core4iter6traits8iterator8Iterator4nexts_0B9_, symObjAddr: 0x11014, symBinAddr: 0x50B8C, symSize: 0x34 }
  - { offset: 0xB2012, size: 0x8, addend: 0x0, symName: __RNvXsG_NtCs6IAuOt8vWmF_3syn10punctuatedINtB5_14PrivateIterMutNtNtB7_4path11PathSegmentNtNtB7_5token7PathSepENtNtNtNtCsfvfooZQ3Axs_4core4iter6traits12double_ended19DoubleEndedIterator9next_backB7_, symObjAddr: 0x110BC, symBinAddr: 0x50BC0, symSize: 0x40 }
  - { offset: 0xB2057, size: 0x8, addend: 0x0, symName: __RNCNvXsG_NtCs6IAuOt8vWmF_3syn10punctuatedINtB7_14PrivateIterMutNtNtB9_4path11PathSegmentNtNtB9_5token7PathSepENtNtNtNtCsfvfooZQ3Axs_4core4iter6traits12double_ended19DoubleEndedIterator9next_back0B9_, symObjAddr: 0x11174, symBinAddr: 0x50C00, symSize: 0x38 }
  - { offset: 0xB209E, size: 0x8, addend: 0x0, symName: __RNCNCNvXsG_NtCs6IAuOt8vWmF_3syn10punctuatedINtB9_14PrivateIterMutNtNtBb_4path11PathSegmentNtNtBb_5token7PathSepENtNtNtNtCsfvfooZQ3Axs_4core4iter6traits12double_ended19DoubleEndedIterator9next_back00Bb_, symObjAddr: 0x11208, symBinAddr: 0x50C38, symSize: 0x24 }
  - { offset: 0xB20F8, size: 0x8, addend: 0x0, symName: __RNvXsH_NtCs6IAuOt8vWmF_3syn10punctuatedINtB5_14PrivateIterMutNtNtB7_4path11PathSegmentNtNtB7_5token7PathSepENtNtNtNtCsfvfooZQ3Axs_4core4iter6traits10exact_size17ExactSizeIterator3lenB7_, symObjAddr: 0x112E4, symBinAddr: 0x50C5C, symSize: 0x94 }
  - { offset: 0xB2177, size: 0x8, addend: 0x0, symName: __RNcNtINtNtCs6IAuOt8vWmF_3syn10punctuated4PairNtNtB8_4path11PathSegmentNtNtB8_5token7PathSepE3End0B8_, symObjAddr: 0x1140C, symBinAddr: 0x50CF0, symSize: 0x40 }
  - { offset: 0xB21B4, size: 0x8, addend: 0x0, symName: __RNcNtINtNtCs6IAuOt8vWmF_3syn10punctuated4PairRNtNtB8_2ty4TypeRNtNtB8_5token5CommaE3End0B8_, symObjAddr: 0x1144C, symBinAddr: 0x50D30, symSize: 0x1C }
  - { offset: 0xB21F0, size: 0x8, addend: 0x0, symName: __RNcNtINtNtCs6IAuOt8vWmF_3syn10punctuated4PairRNtNtB8_2ty9BareFnArgRNtNtB8_5token5CommaE3End0B8_, symObjAddr: 0x11468, symBinAddr: 0x50D4C, symSize: 0x1C }
  - { offset: 0xB222C, size: 0x8, addend: 0x0, symName: __RNcNtINtNtCs6IAuOt8vWmF_3syn10punctuated4PairRNtNtB8_3pat3PatRNtNtB8_5token2OrE3End0B8_, symObjAddr: 0x11484, symBinAddr: 0x50D68, symSize: 0x1C }
  - { offset: 0xB2268, size: 0x8, addend: 0x0, symName: __RNcNtINtNtCs6IAuOt8vWmF_3syn10punctuated4PairRNtNtB8_3pat3PatRNtNtB8_5token5CommaE3End0B8_, symObjAddr: 0x114A0, symBinAddr: 0x50D84, symSize: 0x1C }
  - { offset: 0xB22A4, size: 0x8, addend: 0x0, symName: __RNcNtINtNtCs6IAuOt8vWmF_3syn10punctuated4PairRNtNtB8_3pat8FieldPatRNtNtB8_5token5CommaE3End0B8_, symObjAddr: 0x114BC, symBinAddr: 0x50DA0, symSize: 0x1C }
  - { offset: 0xB22E0, size: 0x8, addend: 0x0, symName: __RNcNtINtNtCs6IAuOt8vWmF_3syn10punctuated4PairRNtNtB8_4data5FieldRNtNtB8_5token5CommaE3End0B8_, symObjAddr: 0x114D8, symBinAddr: 0x50DBC, symSize: 0x1C }
  - { offset: 0xB231C, size: 0x8, addend: 0x0, symName: __RNcNtINtNtCs6IAuOt8vWmF_3syn10punctuated4PairRNtNtB8_4data7VariantRNtNtB8_5token5CommaE3End0B8_, symObjAddr: 0x114F4, symBinAddr: 0x50DD8, symSize: 0x1C }
  - { offset: 0xB2358, size: 0x8, addend: 0x0, symName: __RNcNtINtNtCs6IAuOt8vWmF_3syn10punctuated4PairRNtNtB8_4expr10FieldValueRNtNtB8_5token5CommaE3End0B8_, symObjAddr: 0x11510, symBinAddr: 0x50DF4, symSize: 0x1C }
  - { offset: 0xB2394, size: 0x8, addend: 0x0, symName: __RNcNtINtNtCs6IAuOt8vWmF_3syn10punctuated4PairRNtNtB8_4expr4ExprRNtNtB8_5token5CommaE3End0B8_, symObjAddr: 0x1152C, symBinAddr: 0x50E10, symSize: 0x1C }
  - { offset: 0xB23D0, size: 0x8, addend: 0x0, symName: __RNcNtINtNtCs6IAuOt8vWmF_3syn10punctuated4PairRNtNtB8_4item5FnArgRNtNtB8_5token5CommaE3End0B8_, symObjAddr: 0x11548, symBinAddr: 0x50E2C, symSize: 0x1C }
  - { offset: 0xB240C, size: 0x8, addend: 0x0, symName: __RNcNtINtNtCs6IAuOt8vWmF_3syn10punctuated4PairRNtNtB8_4item7UseTreeRNtNtB8_5token5CommaE3End0B8_, symObjAddr: 0x11564, symBinAddr: 0x50E48, symSize: 0x1C }
  - { offset: 0xB2448, size: 0x8, addend: 0x0, symName: __RNcNtINtNtCs6IAuOt8vWmF_3syn10punctuated4PairRNtNtB8_4path11PathSegmentRNtNtB8_5token7PathSepE3End0B8_, symObjAddr: 0x11580, symBinAddr: 0x50E64, symSize: 0x1C }
  - { offset: 0xB2484, size: 0x8, addend: 0x0, symName: __RNcNtINtNtCs6IAuOt8vWmF_3syn10punctuated4PairRNtNtB8_4path15GenericArgumentRNtNtB8_5token5CommaE3End0B8_, symObjAddr: 0x1159C, symBinAddr: 0x50E80, symSize: 0x1C }
  - { offset: 0xB24C0, size: 0x8, addend: 0x0, symName: __RNcNtINtNtCs6IAuOt8vWmF_3syn10punctuated4PairRNtNtB8_8generics12GenericParamRNtNtB8_5token5CommaE3End0B8_, symObjAddr: 0x115B8, symBinAddr: 0x50E9C, symSize: 0x1C }
  - { offset: 0xB24FC, size: 0x8, addend: 0x0, symName: __RNcNtINtNtCs6IAuOt8vWmF_3syn10punctuated4PairRNtNtB8_8generics13CapturedParamRNtNtB8_5token5CommaE3End0B8_, symObjAddr: 0x115D4, symBinAddr: 0x50EB8, symSize: 0x1C }
  - { offset: 0xB2538, size: 0x8, addend: 0x0, symName: __RNcNtINtNtCs6IAuOt8vWmF_3syn10punctuated4PairRNtNtB8_8generics14TypeParamBoundRNtNtB8_5token4PlusE3End0B8_, symObjAddr: 0x115F0, symBinAddr: 0x50ED4, symSize: 0x1C }
  - { offset: 0xB2574, size: 0x8, addend: 0x0, symName: __RNcNtINtNtCs6IAuOt8vWmF_3syn10punctuated4PairRNtNtB8_8generics14WherePredicateRNtNtB8_5token5CommaE3End0B8_, symObjAddr: 0x1160C, symBinAddr: 0x50EF0, symSize: 0x1C }
  - { offset: 0xB25B0, size: 0x8, addend: 0x0, symName: __RNcNtINtNtCs6IAuOt8vWmF_3syn10punctuated4PairRNtNtB8_8lifetime8LifetimeRNtNtB8_5token4PlusE3End0B8_, symObjAddr: 0x11628, symBinAddr: 0x50F0C, symSize: 0x1C }
  - { offset: 0xB295F, size: 0x8, addend: 0x0, symName: __RNvXsN_NtCs6IAuOt8vWmF_3syn10punctuatedINtB5_10PunctuatedNtNtB7_3pat3PatNtNtB7_5token5CommaEINtNtNtCsfvfooZQ3Axs_4core3ops5index5IndexjE5indexB7_, symObjAddr: 0x11AC8, symBinAddr: 0x513AC, symSize: 0x134 }
  - { offset: 0xB29C4, size: 0x8, addend: 0x0, symName: __RNvXsN_NtCs6IAuOt8vWmF_3syn10punctuatedINtB5_10PunctuatedNtNtB7_4path11PathSegmentNtNtB7_5token7PathSepEINtNtNtCsfvfooZQ3Axs_4core3ops5index5IndexjE5indexB7_, symObjAddr: 0x11BFC, symBinAddr: 0x514E0, symSize: 0x134 }
  - { offset: 0xB2A34, size: 0x8, addend: 0x0, symName: __RNvXNtNtCs6IAuOt8vWmF_3syn10punctuated8printingINtB4_10PunctuatedNtNtB6_2ty4TypeNtNtB6_5token5CommaENtNtCs2cqEZUIJimJ_5quote9to_tokens8ToTokens9to_tokensB6_, symObjAddr: 0x11D30, symBinAddr: 0x51614, symSize: 0x50 }
  - { offset: 0xB2A7F, size: 0x8, addend: 0x0, symName: __RNvXNtNtCs6IAuOt8vWmF_3syn10punctuated8printingINtB4_10PunctuatedNtNtB6_2ty9BareFnArgNtNtB6_5token5CommaENtNtCs2cqEZUIJimJ_5quote9to_tokens8ToTokens9to_tokensB6_, symObjAddr: 0x11D80, symBinAddr: 0x51664, symSize: 0x50 }
  - { offset: 0xB2ACA, size: 0x8, addend: 0x0, symName: __RNvXNtNtCs6IAuOt8vWmF_3syn10punctuated8printingINtB4_10PunctuatedNtNtB6_3pat3PatNtNtB6_5token2OrENtNtCs2cqEZUIJimJ_5quote9to_tokens8ToTokens9to_tokensB6_, symObjAddr: 0x11DD0, symBinAddr: 0x516B4, symSize: 0x50 }
  - { offset: 0xB2B15, size: 0x8, addend: 0x0, symName: __RNvXNtNtCs6IAuOt8vWmF_3syn10punctuated8printingINtB4_10PunctuatedNtNtB6_3pat3PatNtNtB6_5token5CommaENtNtCs2cqEZUIJimJ_5quote9to_tokens8ToTokens9to_tokensB6_, symObjAddr: 0x11E20, symBinAddr: 0x51704, symSize: 0x50 }
  - { offset: 0xB2B60, size: 0x8, addend: 0x0, symName: __RNvXNtNtCs6IAuOt8vWmF_3syn10punctuated8printingINtB4_10PunctuatedNtNtB6_3pat8FieldPatNtNtB6_5token5CommaENtNtCs2cqEZUIJimJ_5quote9to_tokens8ToTokens9to_tokensB6_, symObjAddr: 0x11E70, symBinAddr: 0x51754, symSize: 0x50 }
  - { offset: 0xB2BAB, size: 0x8, addend: 0x0, symName: __RNvXNtNtCs6IAuOt8vWmF_3syn10punctuated8printingINtB4_10PunctuatedNtNtB6_4data5FieldNtNtB6_5token5CommaENtNtCs2cqEZUIJimJ_5quote9to_tokens8ToTokens9to_tokensB6_, symObjAddr: 0x11EC0, symBinAddr: 0x517A4, symSize: 0x50 }
  - { offset: 0xB2BF6, size: 0x8, addend: 0x0, symName: __RNvXNtNtCs6IAuOt8vWmF_3syn10punctuated8printingINtB4_10PunctuatedNtNtB6_4data7VariantNtNtB6_5token5CommaENtNtCs2cqEZUIJimJ_5quote9to_tokens8ToTokens9to_tokensB6_, symObjAddr: 0x11F10, symBinAddr: 0x517F4, symSize: 0x50 }
  - { offset: 0xB2C41, size: 0x8, addend: 0x0, symName: __RNvXNtNtCs6IAuOt8vWmF_3syn10punctuated8printingINtB4_10PunctuatedNtNtB6_4expr10FieldValueNtNtB6_5token5CommaENtNtCs2cqEZUIJimJ_5quote9to_tokens8ToTokens9to_tokensB6_, symObjAddr: 0x11F60, symBinAddr: 0x51844, symSize: 0x50 }
  - { offset: 0xB2C8C, size: 0x8, addend: 0x0, symName: __RNvXNtNtCs6IAuOt8vWmF_3syn10punctuated8printingINtB4_10PunctuatedNtNtB6_4expr4ExprNtNtB6_5token5CommaENtNtCs2cqEZUIJimJ_5quote9to_tokens8ToTokens9to_tokensB6_, symObjAddr: 0x11FB0, symBinAddr: 0x51894, symSize: 0x50 }
  - { offset: 0xB2CD7, size: 0x8, addend: 0x0, symName: __RNvXNtNtCs6IAuOt8vWmF_3syn10punctuated8printingINtB4_10PunctuatedNtNtB6_4item5FnArgNtNtB6_5token5CommaENtNtCs2cqEZUIJimJ_5quote9to_tokens8ToTokens9to_tokensB6_, symObjAddr: 0x12000, symBinAddr: 0x518E4, symSize: 0x50 }
  - { offset: 0xB2D22, size: 0x8, addend: 0x0, symName: __RNvXNtNtCs6IAuOt8vWmF_3syn10punctuated8printingINtB4_10PunctuatedNtNtB6_4item7UseTreeNtNtB6_5token5CommaENtNtCs2cqEZUIJimJ_5quote9to_tokens8ToTokens9to_tokensB6_, symObjAddr: 0x12050, symBinAddr: 0x51934, symSize: 0x50 }
  - { offset: 0xB2D6D, size: 0x8, addend: 0x0, symName: __RNvXNtNtCs6IAuOt8vWmF_3syn10punctuated8printingINtB4_10PunctuatedNtNtB6_8generics12GenericParamNtNtB6_5token5CommaENtNtCs2cqEZUIJimJ_5quote9to_tokens8ToTokens9to_tokensB6_, symObjAddr: 0x120A0, symBinAddr: 0x51984, symSize: 0x50 }
  - { offset: 0xB2DB8, size: 0x8, addend: 0x0, symName: __RNvXNtNtCs6IAuOt8vWmF_3syn10punctuated8printingINtB4_10PunctuatedNtNtB6_8generics14TypeParamBoundNtNtB6_5token4PlusENtNtCs2cqEZUIJimJ_5quote9to_tokens8ToTokens9to_tokensB6_, symObjAddr: 0x120F0, symBinAddr: 0x519D4, symSize: 0x50 }
  - { offset: 0xB2E03, size: 0x8, addend: 0x0, symName: __RNvXNtNtCs6IAuOt8vWmF_3syn10punctuated8printingINtB4_10PunctuatedNtNtB6_8generics14WherePredicateNtNtB6_5token5CommaENtNtCs2cqEZUIJimJ_5quote9to_tokens8ToTokens9to_tokensB6_, symObjAddr: 0x12140, symBinAddr: 0x51A24, symSize: 0x50 }
  - { offset: 0xB2E4E, size: 0x8, addend: 0x0, symName: __RNvXNtNtCs6IAuOt8vWmF_3syn10punctuated8printingINtB4_10PunctuatedNtNtB6_8lifetime8LifetimeNtNtB6_5token4PlusENtNtCs2cqEZUIJimJ_5quote9to_tokens8ToTokens9to_tokensB6_, symObjAddr: 0x12190, symBinAddr: 0x51A74, symSize: 0x50 }
  - { offset: 0xB2E9F, size: 0x8, addend: 0x0, symName: __RNvXs_NtNtCs6IAuOt8vWmF_3syn10punctuated8printingINtB6_4PairRNtNtB8_2ty4TypeRNtNtB8_5token5CommaENtNtCs2cqEZUIJimJ_5quote9to_tokens8ToTokens9to_tokensB8_, symObjAddr: 0x121E0, symBinAddr: 0x51AC4, symSize: 0xB4 }
  - { offset: 0xB2F2E, size: 0x8, addend: 0x0, symName: __RNvXs_NtNtCs6IAuOt8vWmF_3syn10punctuated8printingINtB6_4PairRNtNtB8_2ty9BareFnArgRNtNtB8_5token5CommaENtNtCs2cqEZUIJimJ_5quote9to_tokens8ToTokens9to_tokensB8_, symObjAddr: 0x12294, symBinAddr: 0x51B78, symSize: 0xB4 }
  - { offset: 0xB2FBD, size: 0x8, addend: 0x0, symName: __RNvXs_NtNtCs6IAuOt8vWmF_3syn10punctuated8printingINtB6_4PairRNtNtB8_3pat3PatRNtNtB8_5token2OrENtNtCs2cqEZUIJimJ_5quote9to_tokens8ToTokens9to_tokensB8_, symObjAddr: 0x12348, symBinAddr: 0x51C2C, symSize: 0xB4 }
  - { offset: 0xB304C, size: 0x8, addend: 0x0, symName: __RNvXs_NtNtCs6IAuOt8vWmF_3syn10punctuated8printingINtB6_4PairRNtNtB8_3pat3PatRNtNtB8_5token5CommaENtNtCs2cqEZUIJimJ_5quote9to_tokens8ToTokens9to_tokensB8_, symObjAddr: 0x123FC, symBinAddr: 0x51CE0, symSize: 0xB4 }
  - { offset: 0xB30DB, size: 0x8, addend: 0x0, symName: __RNvXs_NtNtCs6IAuOt8vWmF_3syn10punctuated8printingINtB6_4PairRNtNtB8_3pat8FieldPatRNtNtB8_5token5CommaENtNtCs2cqEZUIJimJ_5quote9to_tokens8ToTokens9to_tokensB8_, symObjAddr: 0x124B0, symBinAddr: 0x51D94, symSize: 0xB4 }
  - { offset: 0xB316A, size: 0x8, addend: 0x0, symName: __RNvXs_NtNtCs6IAuOt8vWmF_3syn10punctuated8printingINtB6_4PairRNtNtB8_4data5FieldRNtNtB8_5token5CommaENtNtCs2cqEZUIJimJ_5quote9to_tokens8ToTokens9to_tokensB8_, symObjAddr: 0x12564, symBinAddr: 0x51E48, symSize: 0xB4 }
  - { offset: 0xB31F9, size: 0x8, addend: 0x0, symName: __RNvXs_NtNtCs6IAuOt8vWmF_3syn10punctuated8printingINtB6_4PairRNtNtB8_4data7VariantRNtNtB8_5token5CommaENtNtCs2cqEZUIJimJ_5quote9to_tokens8ToTokens9to_tokensB8_, symObjAddr: 0x12618, symBinAddr: 0x51EFC, symSize: 0xB4 }
  - { offset: 0xB3288, size: 0x8, addend: 0x0, symName: __RNvXs_NtNtCs6IAuOt8vWmF_3syn10punctuated8printingINtB6_4PairRNtNtB8_4expr10FieldValueRNtNtB8_5token5CommaENtNtCs2cqEZUIJimJ_5quote9to_tokens8ToTokens9to_tokensB8_, symObjAddr: 0x126CC, symBinAddr: 0x51FB0, symSize: 0xB4 }
  - { offset: 0xB3317, size: 0x8, addend: 0x0, symName: __RNvXs_NtNtCs6IAuOt8vWmF_3syn10punctuated8printingINtB6_4PairRNtNtB8_4expr4ExprRNtNtB8_5token5CommaENtNtCs2cqEZUIJimJ_5quote9to_tokens8ToTokens9to_tokensB8_, symObjAddr: 0x12780, symBinAddr: 0x52064, symSize: 0xB4 }
  - { offset: 0xB33A6, size: 0x8, addend: 0x0, symName: __RNvXs_NtNtCs6IAuOt8vWmF_3syn10punctuated8printingINtB6_4PairRNtNtB8_4item5FnArgRNtNtB8_5token5CommaENtNtCs2cqEZUIJimJ_5quote9to_tokens8ToTokens9to_tokensB8_, symObjAddr: 0x12834, symBinAddr: 0x52118, symSize: 0xB4 }
  - { offset: 0xB3435, size: 0x8, addend: 0x0, symName: __RNvXs_NtNtCs6IAuOt8vWmF_3syn10punctuated8printingINtB6_4PairRNtNtB8_4item7UseTreeRNtNtB8_5token5CommaENtNtCs2cqEZUIJimJ_5quote9to_tokens8ToTokens9to_tokensB8_, symObjAddr: 0x128E8, symBinAddr: 0x521CC, symSize: 0xB4 }
  - { offset: 0xB34C4, size: 0x8, addend: 0x0, symName: __RNvXs_NtNtCs6IAuOt8vWmF_3syn10punctuated8printingINtB6_4PairRNtNtB8_4path15GenericArgumentRNtNtB8_5token5CommaENtNtCs2cqEZUIJimJ_5quote9to_tokens8ToTokens9to_tokensB8_, symObjAddr: 0x1299C, symBinAddr: 0x52280, symSize: 0xB4 }
  - { offset: 0xB3553, size: 0x8, addend: 0x0, symName: __RNvXs_NtNtCs6IAuOt8vWmF_3syn10punctuated8printingINtB6_4PairRNtNtB8_8generics12GenericParamRNtNtB8_5token5CommaENtNtCs2cqEZUIJimJ_5quote9to_tokens8ToTokens9to_tokensB8_, symObjAddr: 0x12A50, symBinAddr: 0x52334, symSize: 0xB4 }
  - { offset: 0xB35E2, size: 0x8, addend: 0x0, symName: __RNvXs_NtNtCs6IAuOt8vWmF_3syn10punctuated8printingINtB6_4PairRNtNtB8_8generics13CapturedParamRNtNtB8_5token5CommaENtNtCs2cqEZUIJimJ_5quote9to_tokens8ToTokens9to_tokensB8_, symObjAddr: 0x12B04, symBinAddr: 0x523E8, symSize: 0xB4 }
  - { offset: 0xB3671, size: 0x8, addend: 0x0, symName: __RNvXs_NtNtCs6IAuOt8vWmF_3syn10punctuated8printingINtB6_4PairRNtNtB8_8generics14TypeParamBoundRNtNtB8_5token4PlusENtNtCs2cqEZUIJimJ_5quote9to_tokens8ToTokens9to_tokensB8_, symObjAddr: 0x12BB8, symBinAddr: 0x5249C, symSize: 0xB4 }
  - { offset: 0xB3700, size: 0x8, addend: 0x0, symName: __RNvXs_NtNtCs6IAuOt8vWmF_3syn10punctuated8printingINtB6_4PairRNtNtB8_8generics14WherePredicateRNtNtB8_5token5CommaENtNtCs2cqEZUIJimJ_5quote9to_tokens8ToTokens9to_tokensB8_, symObjAddr: 0x12C6C, symBinAddr: 0x52550, symSize: 0xB4 }
  - { offset: 0xB378F, size: 0x8, addend: 0x0, symName: __RNvXs_NtNtCs6IAuOt8vWmF_3syn10punctuated8printingINtB6_4PairRNtNtB8_8lifetime8LifetimeRNtNtB8_5token4PlusENtNtCs2cqEZUIJimJ_5quote9to_tokens8ToTokens9to_tokensB8_, symObjAddr: 0x12D20, symBinAddr: 0x52604, symSize: 0xB4 }
  - { offset: 0xB49CC, size: 0x8, addend: 0x0, symName: __RNvXsq_NtCs6IAuOt8vWmF_3syn5tokenNtNtB7_8lifetime8LifetimeNtB5_5Token4peek, symObjAddr: 0x13338, symBinAddr: 0x526F0, symSize: 0x88 }
  - { offset: 0xB49F8, size: 0x8, addend: 0x0, symName: __RNvXsq_NtCs6IAuOt8vWmF_3syn5tokenNtNtB7_8lifetime8LifetimeNtB5_5Token7display, symObjAddr: 0x133C0, symBinAddr: 0x52778, symSize: 0x24 }
  - { offset: 0xB4DD0, size: 0x8, addend: 0x0, symName: __RNvXs0_NtCs6IAuOt8vWmF_3syn8lifetimeNtB5_8LifetimeNtNtCsfvfooZQ3Axs_4core5clone5Clone5clone, symObjAddr: 0x3030, symBinAddr: 0x46B04, symSize: 0x60 }
  - { offset: 0xB4E07, size: 0x8, addend: 0x0, symName: __RNvXNtNtCs6IAuOt8vWmF_3syn8lifetime7parsingNtB4_8LifetimeNtNtB6_5parse5Parse5parse, symObjAddr: 0x314C, symBinAddr: 0x46B64, symSize: 0x34 }
  - { offset: 0xB4E3F, size: 0x8, addend: 0x0, symName: __RNvXNtNtCs6IAuOt8vWmF_3syn8lifetime8printingNtB4_8LifetimeNtNtCs2cqEZUIJimJ_5quote9to_tokens8ToTokens9to_tokens, symObjAddr: 0x3180, symBinAddr: 0x46B98, symSize: 0x90 }
  - { offset: 0xB8D95, size: 0x8, addend: 0x0, symName: __RINvCs6IAuOt8vWmF_3syn9parse_strNtNtB2_4expr5IndexEB2_, symObjAddr: 0x12DD4, symBinAddr: 0x526B8, symSize: 0x38 }
  - { offset: 0xB987E, size: 0x8, addend: 0x0, symName: __RNvYINtNtCse1nGBsou5OW_5alloc2rc7RcInnerINtNtCsfvfooZQ3Axs_4core4cell4CellNtNtCs6IAuOt8vWmF_3syn5parse10UnexpectedEENtB5_10RcInnerPtr10inc_strongB1e_, symObjAddr: 0x2C3C, symBinAddr: 0x46A30, symSize: 0x94 }
  - { offset: 0xB99B6, size: 0x8, addend: 0x0, symName: __RNvYINtNtCse1nGBsou5OW_5alloc2rc7RcInnerINtNtCsfvfooZQ3Axs_4core4cell4CellNtNtCs6IAuOt8vWmF_3syn5parse10UnexpectedEENtB5_10RcInnerPtr6strongB1e_, symObjAddr: 0x2CD0, symBinAddr: 0x46AC4, symSize: 0x28 }
  - { offset: 0xB9A11, size: 0x8, addend: 0x0, symName: __RNvXs17_NtCse1nGBsou5OW_5alloc2rcINtB6_4WeakINtNtCsfvfooZQ3Axs_4core4cell4CellNtNtCs6IAuOt8vWmF_3syn5parse10UnexpectedERNtNtB8_5alloc6GlobalENtNtNtBL_3ops4drop4Drop4dropB1i_, symObjAddr: 0x924, symBinAddr: 0x45BF4, symSize: 0x148 }
  - { offset: 0xB9C86, size: 0x8, addend: 0x0, symName: __RNvXsu_NtCse1nGBsou5OW_5alloc2rcINtB5_2RcINtNtCsfvfooZQ3Axs_4core4cell4CellNtNtCs6IAuOt8vWmF_3syn5parse10UnexpectedEENtNtNtBI_3ops4drop4Drop4dropB1f_, symObjAddr: 0xDB0, symBinAddr: 0x45E3C, symSize: 0x88 }
  - { offset: 0xB9E69, size: 0x8, addend: 0x0, symName: __RNvXsv_NtCse1nGBsou5OW_5alloc2rcINtB5_2RcINtNtCsfvfooZQ3Axs_4core4cell4CellNtNtCs6IAuOt8vWmF_3syn5parse10UnexpectedEENtNtBI_5clone5Clone5cloneB1f_, symObjAddr: 0xE38, symBinAddr: 0x45EC4, symSize: 0x48 }
  - { offset: 0xBA641, size: 0x8, addend: 0x0, symName: __RINvXNtNtCse1nGBsou5OW_5alloc5slice4hackTNtNtCs6IAuOt8vWmF_3syn8lifetime8LifetimeNtNtBH_5token4PlusENtB3_10ConvertVec6to_vecNtNtB7_5alloc6GlobalEBH_, symObjAddr: 0x0, symBinAddr: 0x452D0, symSize: 0x368 }
  - { offset: 0xC0584, size: 0x8, addend: 0x0, symName: __RNvMNtCsfvfooZQ3Axs_4core5sliceSTNtNtCs6IAuOt8vWmF_3syn8lifetime8LifetimeNtNtBz_5token4PlusE4iterBz_, symObjAddr: 0x4D8, symBinAddr: 0x457A8, symSize: 0x28 }
  - { offset: 0xC0766, size: 0x8, addend: 0x0, symName: __RNvXs9_NtNtNtCsfvfooZQ3Axs_4core4iter8adapters4fuseINtB5_4FuseINtNtB7_3map3MapIBZ_IBZ_INtNtNtBb_5slice4iter4IterNtNtCs6IAuOt8vWmF_3syn5error12ErrorMessageENvMs_B1O_B1M_16to_compile_errorENCINvXs7_Cs3cP53eQoTwO_11proc_macro2NtB38_11TokenStreamINtNtNtB9_6traits7collect12FromIteratorB3z_E9from_iterB1i_E0ENCINvXs6_NtB38_3impNtB50_11TokenStreamIB3T_B5a_E9from_iterB1e_Es_0EEINtB5_8FuseImplBY_E4nextB1Q_, symObjAddr: 0xCF4, symBinAddr: 0x45D80, symSize: 0x80 }
  - { offset: 0xC08BB, size: 0x8, addend: 0x0, symName: __RINvYINtNtCs6IAuOt8vWmF_3syn10punctuated4IterNtNtB8_4path11PathSegmentENtNtNtNtCsfvfooZQ3Axs_4core4iter6traits8iterator8Iterator3allNCNvMs5_NtBJ_7parsingNtBJ_4Path12is_mod_style0EB8_, symObjAddr: 0x368, symBinAddr: 0x45638, symSize: 0x3C }
  - { offset: 0xC090A, size: 0x8, addend: 0x0, symName: __RINvYINtNtCs6IAuOt8vWmF_3syn10punctuated4IterNtNtB8_4path11PathSegmentENtNtNtNtCsfvfooZQ3Axs_4core4iter6traits8iterator8Iterator8try_folduNCINvNvB17_3all5checkRBH_NCNvMs5_NtBJ_7parsingNtBJ_4Path12is_mod_style0E0INtNtNtB1f_3ops12control_flow11ControlFlowuEEB8_, symObjAddr: 0x3A4, symBinAddr: 0x45674, symSize: 0x134 }
  - { offset: 0xC09C4, size: 0x8, addend: 0x0, symName: __RNvYINtNtCs6IAuOt8vWmF_3syn10punctuated11PrivateIterNtNtB7_4path11PathSegmentNtNtB7_5token7PathSepENtNtNtNtCsfvfooZQ3Axs_4core4iter6traits8iterator8Iterator10advance_byB7_, symObjAddr: 0x17A8, symBinAddr: 0x460D4, symSize: 0x134 }
  - { offset: 0xC0B1A, size: 0x8, addend: 0x0, symName: __RNvYINtNtCs6IAuOt8vWmF_3syn10punctuated11PrivateIterNtNtB7_4path11PathSegmentNtNtB7_5token7PathSepENtNtNtNtCsfvfooZQ3Axs_4core4iter6traits8iterator8Iterator3nthB7_, symObjAddr: 0x18DC, symBinAddr: 0x46208, symSize: 0x80 }
  - { offset: 0xC0BE6, size: 0x8, addend: 0x0, symName: __RNvYINtNtCs6IAuOt8vWmF_3syn10punctuated11PrivateIterNtNtB7_4path11PathSegmentNtNtB7_5token7PathSepENtNtNtNtCsfvfooZQ3Axs_4core4iter6traits8iterator8Iterator9size_hintB7_, symObjAddr: 0x195C, symBinAddr: 0x46288, symSize: 0x34 }
  - { offset: 0xC0C1B, size: 0x8, addend: 0x0, symName: __RNvYINtNtCs6IAuOt8vWmF_3syn10punctuated11PrivateIterNtNtB7_8generics14TypeParamBoundNtNtB7_5token4PlusENtNtNtNtCsfvfooZQ3Axs_4core4iter6traits8iterator8Iterator10advance_byB7_, symObjAddr: 0x1F08, symBinAddr: 0x46484, symSize: 0x134 }
  - { offset: 0xC0D71, size: 0x8, addend: 0x0, symName: __RNvYINtNtCs6IAuOt8vWmF_3syn10punctuated11PrivateIterNtNtB7_8generics14TypeParamBoundNtNtB7_5token4PlusENtNtNtNtCsfvfooZQ3Axs_4core4iter6traits8iterator8Iterator3nthB7_, symObjAddr: 0x203C, symBinAddr: 0x465B8, symSize: 0x80 }
  - { offset: 0xC0E3D, size: 0x8, addend: 0x0, symName: __RNvYINtNtCs6IAuOt8vWmF_3syn10punctuated11PrivateIterNtNtB7_8generics14TypeParamBoundNtNtB7_5token4PlusENtNtNtNtCsfvfooZQ3Axs_4core4iter6traits8iterator8Iterator9size_hintB7_, symObjAddr: 0x20BC, symBinAddr: 0x46638, symSize: 0x34 }
  - { offset: 0xC0E72, size: 0x8, addend: 0x0, symName: __RNvYINtNtCs6IAuOt8vWmF_3syn10punctuated14PrivateIterMutNtNtB7_4path11PathSegmentNtNtB7_5token7PathSepENtNtNtNtCsfvfooZQ3Axs_4core4iter6traits8iterator8Iterator10advance_byB7_, symObjAddr: 0x2668, symBinAddr: 0x46834, symSize: 0x134 }
  - { offset: 0xC0FC8, size: 0x8, addend: 0x0, symName: __RNvYINtNtCs6IAuOt8vWmF_3syn10punctuated14PrivateIterMutNtNtB7_4path11PathSegmentNtNtB7_5token7PathSepENtNtNtNtCsfvfooZQ3Axs_4core4iter6traits8iterator8Iterator3nthB7_, symObjAddr: 0x279C, symBinAddr: 0x46968, symSize: 0x80 }
  - { offset: 0xC1094, size: 0x8, addend: 0x0, symName: __RNvYINtNtCs6IAuOt8vWmF_3syn10punctuated14PrivateIterMutNtNtB7_4path11PathSegmentNtNtB7_5token7PathSepENtNtNtNtCsfvfooZQ3Axs_4core4iter6traits8iterator8Iterator9size_hintB7_, symObjAddr: 0x281C, symBinAddr: 0x469E8, symSize: 0x34 }
  - { offset: 0xC10C9, size: 0x8, addend: 0x0, symName: __RNvYINtNtCs6IAuOt8vWmF_3syn10punctuated5PairsNtNtB7_4path11PathSegmentNtNtB7_5token7PathSepENtNtNtNtCsfvfooZQ3Axs_4core4iter6traits8iterator8Iterator6by_refB7_, symObjAddr: 0x2C28, symBinAddr: 0x46A1C, symSize: 0x14 }
  - { offset: 0xC1100, size: 0x8, addend: 0x0, symName: __RNvYQINtNtCs6IAuOt8vWmF_3syn10punctuated5PairsNtNtB8_4path11PathSegmentNtNtB8_5token7PathSepENtNtNtNtCsfvfooZQ3Axs_4core4iter6traits8iterator8Iterator4takeB8_, symObjAddr: 0x2D28, symBinAddr: 0x46AEC, symSize: 0x18 }
  - { offset: 0xC116B, size: 0x8, addend: 0x0, symName: __RNvXNtNtNtCsfvfooZQ3Axs_4core4iter6traits8iteratorQINtNtCs6IAuOt8vWmF_3syn10punctuated5PairsNtNtBS_4path11PathSegmentNtNtBS_5token7PathSepENtB2_8Iterator4nextBS_, symObjAddr: 0x8FC, symBinAddr: 0x45BCC, symSize: 0x28 }
  - { offset: 0xC11AE, size: 0x8, addend: 0x0, symName: __RNvXNtNtNtCsfvfooZQ3Axs_4core4iter6traits7collectINtNtCs6IAuOt8vWmF_3syn10punctuated5PairsNtNtBQ_2ty4TypeNtNtBQ_5token5CommaENtB2_12IntoIterator9into_iterBQ_, symObjAddr: 0x71C, symBinAddr: 0x459EC, symSize: 0x18 }
  - { offset: 0xC11E5, size: 0x8, addend: 0x0, symName: __RNvXNtNtNtCsfvfooZQ3Axs_4core4iter6traits7collectINtNtCs6IAuOt8vWmF_3syn10punctuated5PairsNtNtBQ_2ty9BareFnArgNtNtBQ_5token5CommaENtB2_12IntoIterator9into_iterBQ_, symObjAddr: 0x734, symBinAddr: 0x45A04, symSize: 0x18 }
  - { offset: 0xC121C, size: 0x8, addend: 0x0, symName: __RNvXNtNtNtCsfvfooZQ3Axs_4core4iter6traits7collectINtNtCs6IAuOt8vWmF_3syn10punctuated5PairsNtNtBQ_3pat3PatNtNtBQ_5token2OrENtB2_12IntoIterator9into_iterBQ_, symObjAddr: 0x74C, symBinAddr: 0x45A1C, symSize: 0x18 }
  - { offset: 0xC1253, size: 0x8, addend: 0x0, symName: __RNvXNtNtNtCsfvfooZQ3Axs_4core4iter6traits7collectINtNtCs6IAuOt8vWmF_3syn10punctuated5PairsNtNtBQ_3pat3PatNtNtBQ_5token5CommaENtB2_12IntoIterator9into_iterBQ_, symObjAddr: 0x764, symBinAddr: 0x45A34, symSize: 0x18 }
  - { offset: 0xC128A, size: 0x8, addend: 0x0, symName: __RNvXNtNtNtCsfvfooZQ3Axs_4core4iter6traits7collectINtNtCs6IAuOt8vWmF_3syn10punctuated5PairsNtNtBQ_3pat8FieldPatNtNtBQ_5token5CommaENtB2_12IntoIterator9into_iterBQ_, symObjAddr: 0x77C, symBinAddr: 0x45A4C, symSize: 0x18 }
  - { offset: 0xC12C1, size: 0x8, addend: 0x0, symName: __RNvXNtNtNtCsfvfooZQ3Axs_4core4iter6traits7collectINtNtCs6IAuOt8vWmF_3syn10punctuated5PairsNtNtBQ_4data5FieldNtNtBQ_5token5CommaENtB2_12IntoIterator9into_iterBQ_, symObjAddr: 0x794, symBinAddr: 0x45A64, symSize: 0x18 }
  - { offset: 0xC12F8, size: 0x8, addend: 0x0, symName: __RNvXNtNtNtCsfvfooZQ3Axs_4core4iter6traits7collectINtNtCs6IAuOt8vWmF_3syn10punctuated5PairsNtNtBQ_4data7VariantNtNtBQ_5token5CommaENtB2_12IntoIterator9into_iterBQ_, symObjAddr: 0x7AC, symBinAddr: 0x45A7C, symSize: 0x18 }
  - { offset: 0xC132F, size: 0x8, addend: 0x0, symName: __RNvXNtNtNtCsfvfooZQ3Axs_4core4iter6traits7collectINtNtCs6IAuOt8vWmF_3syn10punctuated5PairsNtNtBQ_4expr10FieldValueNtNtBQ_5token5CommaENtB2_12IntoIterator9into_iterBQ_, symObjAddr: 0x7C4, symBinAddr: 0x45A94, symSize: 0x18 }
  - { offset: 0xC1366, size: 0x8, addend: 0x0, symName: __RNvXNtNtNtCsfvfooZQ3Axs_4core4iter6traits7collectINtNtCs6IAuOt8vWmF_3syn10punctuated5PairsNtNtBQ_4expr4ExprNtNtBQ_5token5CommaENtB2_12IntoIterator9into_iterBQ_, symObjAddr: 0x7DC, symBinAddr: 0x45AAC, symSize: 0x18 }
  - { offset: 0xC139D, size: 0x8, addend: 0x0, symName: __RNvXNtNtNtCsfvfooZQ3Axs_4core4iter6traits7collectINtNtCs6IAuOt8vWmF_3syn10punctuated5PairsNtNtBQ_4item5FnArgNtNtBQ_5token5CommaENtB2_12IntoIterator9into_iterBQ_, symObjAddr: 0x7F4, symBinAddr: 0x45AC4, symSize: 0x18 }
  - { offset: 0xC13D4, size: 0x8, addend: 0x0, symName: __RNvXNtNtNtCsfvfooZQ3Axs_4core4iter6traits7collectINtNtCs6IAuOt8vWmF_3syn10punctuated5PairsNtNtBQ_4item7UseTreeNtNtBQ_5token5CommaENtB2_12IntoIterator9into_iterBQ_, symObjAddr: 0x80C, symBinAddr: 0x45ADC, symSize: 0x18 }
  - { offset: 0xC140B, size: 0x8, addend: 0x0, symName: __RNvXNtNtNtCsfvfooZQ3Axs_4core4iter6traits7collectINtNtCs6IAuOt8vWmF_3syn10punctuated5PairsNtNtBQ_4path11PathSegmentNtNtBQ_5token7PathSepENtB2_12IntoIterator9into_iterBQ_, symObjAddr: 0x824, symBinAddr: 0x45AF4, symSize: 0x18 }
  - { offset: 0xC1442, size: 0x8, addend: 0x0, symName: __RNvXNtNtNtCsfvfooZQ3Axs_4core4iter6traits7collectINtNtCs6IAuOt8vWmF_3syn10punctuated5PairsNtNtBQ_4path15GenericArgumentNtNtBQ_5token5CommaENtB2_12IntoIterator9into_iterBQ_, symObjAddr: 0x83C, symBinAddr: 0x45B0C, symSize: 0x18 }
  - { offset: 0xC1479, size: 0x8, addend: 0x0, symName: __RNvXNtNtNtCsfvfooZQ3Axs_4core4iter6traits7collectINtNtCs6IAuOt8vWmF_3syn10punctuated5PairsNtNtBQ_8generics12GenericParamNtNtBQ_5token5CommaENtB2_12IntoIterator9into_iterBQ_, symObjAddr: 0x854, symBinAddr: 0x45B24, symSize: 0x18 }
  - { offset: 0xC14B0, size: 0x8, addend: 0x0, symName: __RNvXNtNtNtCsfvfooZQ3Axs_4core4iter6traits7collectINtNtCs6IAuOt8vWmF_3syn10punctuated5PairsNtNtBQ_8generics13CapturedParamNtNtBQ_5token5CommaENtB2_12IntoIterator9into_iterBQ_, symObjAddr: 0x86C, symBinAddr: 0x45B3C, symSize: 0x18 }
  - { offset: 0xC14E7, size: 0x8, addend: 0x0, symName: __RNvXNtNtNtCsfvfooZQ3Axs_4core4iter6traits7collectINtNtCs6IAuOt8vWmF_3syn10punctuated5PairsNtNtBQ_8generics14TypeParamBoundNtNtBQ_5token4PlusENtB2_12IntoIterator9into_iterBQ_, symObjAddr: 0x884, symBinAddr: 0x45B54, symSize: 0x18 }
  - { offset: 0xC151E, size: 0x8, addend: 0x0, symName: __RNvXNtNtNtCsfvfooZQ3Axs_4core4iter6traits7collectINtNtCs6IAuOt8vWmF_3syn10punctuated5PairsNtNtBQ_8generics14WherePredicateNtNtBQ_5token5CommaENtB2_12IntoIterator9into_iterBQ_, symObjAddr: 0x89C, symBinAddr: 0x45B6C, symSize: 0x18 }
  - { offset: 0xC1555, size: 0x8, addend: 0x0, symName: __RNvXNtNtNtCsfvfooZQ3Axs_4core4iter6traits7collectINtNtCs6IAuOt8vWmF_3syn10punctuated5PairsNtNtBQ_8lifetime8LifetimeNtNtBQ_5token4PlusENtB2_12IntoIterator9into_iterBQ_, symObjAddr: 0x8B4, symBinAddr: 0x45B84, symSize: 0x18 }
  - { offset: 0xC158C, size: 0x8, addend: 0x0, symName: __RNvXNtNtNtCsfvfooZQ3Axs_4core4iter6traits7collectINtNtCs6IAuOt8vWmF_3syn10punctuated9IntoPairsNtNtBQ_4path11PathSegmentNtNtBQ_5token7PathSepENtB2_12IntoIterator9into_iterBQ_, symObjAddr: 0x8CC, symBinAddr: 0x45B9C, symSize: 0x30 }
  - { offset: 0xC15D0, size: 0x8, addend: 0x0, symName: __RNvYINtNtCs6IAuOt8vWmF_3syn10punctuated11PrivateIterNtNtB7_4path11PathSegmentNtNtB7_5token7PathSepENtNtNtNtCsfvfooZQ3Axs_4core4iter6traits10exact_size17ExactSizeIterator8is_emptyB7_, symObjAddr: 0x15E0, symBinAddr: 0x45F0C, symSize: 0x2C }
  - { offset: 0xC1605, size: 0x8, addend: 0x0, symName: __RNvYINtNtCs6IAuOt8vWmF_3syn10punctuated11PrivateIterNtNtB7_8generics14TypeParamBoundNtNtB7_5token4PlusENtNtNtNtCsfvfooZQ3Axs_4core4iter6traits10exact_size17ExactSizeIterator8is_emptyB7_, symObjAddr: 0x1D40, symBinAddr: 0x462BC, symSize: 0x2C }
  - { offset: 0xC163A, size: 0x8, addend: 0x0, symName: __RNvYINtNtCs6IAuOt8vWmF_3syn10punctuated14PrivateIterMutNtNtB7_4path11PathSegmentNtNtB7_5token7PathSepENtNtNtNtCsfvfooZQ3Axs_4core4iter6traits10exact_size17ExactSizeIterator8is_emptyB7_, symObjAddr: 0x24A0, symBinAddr: 0x4666C, symSize: 0x2C }
  - { offset: 0xC167B, size: 0x8, addend: 0x0, symName: __RNvYINtNtCs6IAuOt8vWmF_3syn10punctuated11PrivateIterNtNtB7_4path11PathSegmentNtNtB7_5token7PathSepENtNtNtNtCsfvfooZQ3Axs_4core4iter6traits12double_ended19DoubleEndedIterator15advance_back_byB7_, symObjAddr: 0x160C, symBinAddr: 0x45F38, symSize: 0x134 }
  - { offset: 0xC17C9, size: 0x8, addend: 0x0, symName: __RNvYINtNtCs6IAuOt8vWmF_3syn10punctuated11PrivateIterNtNtB7_4path11PathSegmentNtNtB7_5token7PathSepENtNtNtNtCsfvfooZQ3Axs_4core4iter6traits12double_ended19DoubleEndedIterator8nth_backB7_, symObjAddr: 0x1740, symBinAddr: 0x4606C, symSize: 0x68 }
  - { offset: 0xC1847, size: 0x8, addend: 0x0, symName: __RNvYINtNtCs6IAuOt8vWmF_3syn10punctuated11PrivateIterNtNtB7_8generics14TypeParamBoundNtNtB7_5token4PlusENtNtNtNtCsfvfooZQ3Axs_4core4iter6traits12double_ended19DoubleEndedIterator15advance_back_byB7_, symObjAddr: 0x1D6C, symBinAddr: 0x462E8, symSize: 0x134 }
  - { offset: 0xC1995, size: 0x8, addend: 0x0, symName: __RNvYINtNtCs6IAuOt8vWmF_3syn10punctuated11PrivateIterNtNtB7_8generics14TypeParamBoundNtNtB7_5token4PlusENtNtNtNtCsfvfooZQ3Axs_4core4iter6traits12double_ended19DoubleEndedIterator8nth_backB7_, symObjAddr: 0x1EA0, symBinAddr: 0x4641C, symSize: 0x68 }
  - { offset: 0xC1A13, size: 0x8, addend: 0x0, symName: __RNvYINtNtCs6IAuOt8vWmF_3syn10punctuated14PrivateIterMutNtNtB7_4path11PathSegmentNtNtB7_5token7PathSepENtNtNtNtCsfvfooZQ3Axs_4core4iter6traits12double_ended19DoubleEndedIterator15advance_back_byB7_, symObjAddr: 0x24CC, symBinAddr: 0x46698, symSize: 0x134 }
  - { offset: 0xC1B61, size: 0x8, addend: 0x0, symName: __RNvYINtNtCs6IAuOt8vWmF_3syn10punctuated14PrivateIterMutNtNtB7_4path11PathSegmentNtNtB7_5token7PathSepENtNtNtNtCsfvfooZQ3Axs_4core4iter6traits12double_ended19DoubleEndedIterator8nth_backB7_, symObjAddr: 0x2600, symBinAddr: 0x467CC, symSize: 0x68 }
  - { offset: 0xC1FE4, size: 0x8, addend: 0x0, symName: __RNvXs7_NtNtCsfvfooZQ3Axs_4core3cmp5implsReNtB7_9PartialEq2eqCs6IAuOt8vWmF_3syn, symObjAddr: 0xC4C, symBinAddr: 0x45D3C, symSize: 0x44 }
  - { offset: 0xC2039, size: 0x8, addend: 0x0, symName: __RNvXsX_NtNtCsfvfooZQ3Axs_4core3cmp5implshNtB7_3Ord3cmpCs6IAuOt8vWmF_3syn, symObjAddr: 0xD74, symBinAddr: 0x45E00, symSize: 0x3C }
  - { offset: 0xC23E6, size: 0x8, addend: 0x0, symName: __RNvNvMNtNtCsfvfooZQ3Axs_4core5alloc6layoutNtB4_6Layout25from_size_align_unchecked18precondition_checkCs6IAuOt8vWmF_3syn, symObjAddr: 0x648, symBinAddr: 0x45918, symSize: 0x50 }
  - { offset: 0xC2488, size: 0x8, addend: 0x0, symName: __RNvXNtNtCsfvfooZQ3Axs_4core5clone6uninitNtNtCs6IAuOt8vWmF_3syn8lifetime8LifetimeNtB2_8CopySpec9clone_oneBG_, symObjAddr: 0x6D8, symBinAddr: 0x459A8, symSize: 0x44 }
  - { offset: 0xC389E, size: 0x8, addend: 0x0, symName: __RNvMs5_NtCse1nGBsou5OW_5alloc2rcINtB5_2RcINtNtCsfvfooZQ3Axs_4core4cell4CellNtNtCs6IAuOt8vWmF_3syn5parse10UnexpectedEE9drop_slowB1f_, symObjAddr: 0x500, symBinAddr: 0x457D0, symSize: 0x74 }
  - { offset: 0xC396F, size: 0x8, addend: 0x0, symName: __RNvMs6_NtCse1nGBsou5OW_5alloc2rcINtB5_2RcINtNtCsfvfooZQ3Axs_4core4cell4CellNtNtCs6IAuOt8vWmF_3syn5parse10UnexpectedEE3newB1f_, symObjAddr: 0x574, symBinAddr: 0x45844, symSize: 0xA8 }
  - { offset: 0xC3AB7, size: 0x8, addend: 0x0, symName: __RNvMsd_NtCse1nGBsou5OW_5alloc2rcINtB5_2RcINtNtCsfvfooZQ3Axs_4core4cell4CellNtNtCs6IAuOt8vWmF_3syn5parse10UnexpectedEE6ptr_eqB1f_, symObjAddr: 0x61C, symBinAddr: 0x458EC, symSize: 0x2C }
  - { offset: 0xC3B1F, size: 0x8, addend: 0x0, symName: __RNvXNtCs2cqEZUIJimJ_5quote9to_tokensRNtNtCs6IAuOt8vWmF_3syn8lifetime8LifetimeNtB2_8ToTokens9to_tokensBD_, symObjAddr: 0x698, symBinAddr: 0x45968, symSize: 0x40 }
  - { offset: 0xC442A, size: 0x8, addend: 0x0, symName: __RNvMNtCs6IAuOt8vWmF_3syn10punctuatedINtB2_10PunctuatedNtNtB4_2ty4TypeNtNtB4_5token5CommaE3newB4_, symObjAddr: 0x3894, symBinAddr: 0x46C28, symSize: 0x54 }
  - { offset: 0xC4450, size: 0x8, addend: 0x0, symName: __RNvMNtCs6IAuOt8vWmF_3syn10punctuatedINtB2_10PunctuatedNtNtB4_2ty9BareFnArgNtNtB4_5token5CommaE3newB4_, symObjAddr: 0x38E8, symBinAddr: 0x46C7C, symSize: 0x54 }
  - { offset: 0xC4476, size: 0x8, addend: 0x0, symName: __RNvMNtCs6IAuOt8vWmF_3syn10punctuatedINtB2_10PunctuatedNtNtB4_3pat3PatNtNtB4_5token2OrE3newB4_, symObjAddr: 0x393C, symBinAddr: 0x46CD0, symSize: 0x54 }
  - { offset: 0xC449C, size: 0x8, addend: 0x0, symName: __RNvMNtCs6IAuOt8vWmF_3syn10punctuatedINtB2_10PunctuatedNtNtB4_3pat3PatNtNtB4_5token5CommaE3newB4_, symObjAddr: 0x3990, symBinAddr: 0x46D24, symSize: 0x54 }
  - { offset: 0xC44C2, size: 0x8, addend: 0x0, symName: __RNvMNtCs6IAuOt8vWmF_3syn10punctuatedINtB2_10PunctuatedNtNtB4_3pat8FieldPatNtNtB4_5token5CommaE3newB4_, symObjAddr: 0x39E4, symBinAddr: 0x46D78, symSize: 0x54 }
  - { offset: 0xC44E8, size: 0x8, addend: 0x0, symName: __RNvMNtCs6IAuOt8vWmF_3syn10punctuatedINtB2_10PunctuatedNtNtB4_4data5FieldNtNtB4_5token5CommaE3newB4_, symObjAddr: 0x3A38, symBinAddr: 0x46DCC, symSize: 0x54 }
  - { offset: 0xC450E, size: 0x8, addend: 0x0, symName: __RNvMNtCs6IAuOt8vWmF_3syn10punctuatedINtB2_10PunctuatedNtNtB4_4data7VariantNtNtB4_5token5CommaE3newB4_, symObjAddr: 0x3AE0, symBinAddr: 0x46E20, symSize: 0x54 }
  - { offset: 0xC4534, size: 0x8, addend: 0x0, symName: __RNvMNtCs6IAuOt8vWmF_3syn10punctuatedINtB2_10PunctuatedNtNtB4_4expr10FieldValueNtNtB4_5token5CommaE3newB4_, symObjAddr: 0x3B34, symBinAddr: 0x46E74, symSize: 0x54 }
  - { offset: 0xC455A, size: 0x8, addend: 0x0, symName: __RNvMNtCs6IAuOt8vWmF_3syn10punctuatedINtB2_10PunctuatedNtNtB4_4expr4ExprNtNtB4_5token5CommaE3newB4_, symObjAddr: 0x3B88, symBinAddr: 0x46EC8, symSize: 0x54 }
  - { offset: 0xC4580, size: 0x8, addend: 0x0, symName: __RNvMNtCs6IAuOt8vWmF_3syn10punctuatedINtB2_10PunctuatedNtNtB4_4item5FnArgNtNtB4_5token5CommaE3newB4_, symObjAddr: 0x3BDC, symBinAddr: 0x46F1C, symSize: 0x54 }
  - { offset: 0xC45A6, size: 0x8, addend: 0x0, symName: __RNvMNtCs6IAuOt8vWmF_3syn10punctuatedINtB2_10PunctuatedNtNtB4_4item7UseTreeNtNtB4_5token5CommaE3newB4_, symObjAddr: 0x3C30, symBinAddr: 0x46F70, symSize: 0x54 }
  - { offset: 0xC45CC, size: 0x8, addend: 0x0, symName: __RNvMNtCs6IAuOt8vWmF_3syn10punctuatedINtB2_10PunctuatedNtNtB4_4path11PathSegmentNtNtB4_5token7PathSepE3newB4_, symObjAddr: 0x3C84, symBinAddr: 0x46FC4, symSize: 0x54 }
  - { offset: 0xC45F2, size: 0x8, addend: 0x0, symName: __RNvMNtCs6IAuOt8vWmF_3syn10punctuatedINtB2_10PunctuatedNtNtB4_4path15GenericArgumentNtNtB4_5token5CommaE3newB4_, symObjAddr: 0x3CD8, symBinAddr: 0x47018, symSize: 0x54 }
  - { offset: 0xC4618, size: 0x8, addend: 0x0, symName: __RNvMNtCs6IAuOt8vWmF_3syn10punctuatedINtB2_10PunctuatedNtNtB4_8generics12GenericParamNtNtB4_5token5CommaE3newB4_, symObjAddr: 0x3D2C, symBinAddr: 0x4706C, symSize: 0x54 }
  - { offset: 0xC463E, size: 0x8, addend: 0x0, symName: __RNvMNtCs6IAuOt8vWmF_3syn10punctuatedINtB2_10PunctuatedNtNtB4_8generics13CapturedParamNtNtB4_5token5CommaE3newB4_, symObjAddr: 0x3D80, symBinAddr: 0x470C0, symSize: 0x54 }
  - { offset: 0xC4664, size: 0x8, addend: 0x0, symName: __RNvMNtCs6IAuOt8vWmF_3syn10punctuatedINtB2_10PunctuatedNtNtB4_8generics14TypeParamBoundNtNtB4_5token4PlusE3newB4_, symObjAddr: 0x3DD4, symBinAddr: 0x47114, symSize: 0x54 }
  - { offset: 0xC468A, size: 0x8, addend: 0x0, symName: __RNvMNtCs6IAuOt8vWmF_3syn10punctuatedINtB2_10PunctuatedNtNtB4_8generics14WherePredicateNtNtB4_5token5CommaE3newB4_, symObjAddr: 0x3E28, symBinAddr: 0x47168, symSize: 0x54 }
  - { offset: 0xC46B0, size: 0x8, addend: 0x0, symName: __RNvMNtCs6IAuOt8vWmF_3syn10punctuatedINtB2_10PunctuatedNtNtB4_8lifetime8LifetimeNtNtB4_5token4PlusE3newB4_, symObjAddr: 0x3E7C, symBinAddr: 0x471BC, symSize: 0x54 }
  - { offset: 0xC46E3, size: 0x8, addend: 0x0, symName: __RNvMNtCs6IAuOt8vWmF_3syn10punctuatedINtB2_10PunctuatedNtNtB4_2ty4TypeNtNtB4_5token5CommaE8is_emptyB4_, symObjAddr: 0x3ED0, symBinAddr: 0x47210, symSize: 0x74 }
  - { offset: 0xC4724, size: 0x8, addend: 0x0, symName: __RNvMNtCs6IAuOt8vWmF_3syn10punctuatedINtB2_10PunctuatedNtNtB4_2ty9BareFnArgNtNtB4_5token5CommaE8is_emptyB4_, symObjAddr: 0x3F44, symBinAddr: 0x47284, symSize: 0x74 }
  - { offset: 0xC4765, size: 0x8, addend: 0x0, symName: __RNvMNtCs6IAuOt8vWmF_3syn10punctuatedINtB2_10PunctuatedNtNtB4_3pat3PatNtNtB4_5token5CommaE8is_emptyB4_, symObjAddr: 0x3FB8, symBinAddr: 0x472F8, symSize: 0x74 }
  - { offset: 0xC47B3, size: 0x8, addend: 0x0, symName: __RNvMNtCs6IAuOt8vWmF_3syn10punctuatedINtB2_10PunctuatedNtNtB4_4expr4ExprNtNtB4_5token5CommaE8is_emptyB4_, symObjAddr: 0x40A0, symBinAddr: 0x4736C, symSize: 0x74 }
  - { offset: 0xC47F4, size: 0x8, addend: 0x0, symName: __RNvMNtCs6IAuOt8vWmF_3syn10punctuatedINtB2_10PunctuatedNtNtB4_4item5FnArgNtNtB4_5token5CommaE8is_emptyB4_, symObjAddr: 0x4114, symBinAddr: 0x473E0, symSize: 0x74 }
  - { offset: 0xC4835, size: 0x8, addend: 0x0, symName: __RNvMNtCs6IAuOt8vWmF_3syn10punctuatedINtB2_10PunctuatedNtNtB4_4path11PathSegmentNtNtB4_5token7PathSepE8is_emptyB4_, symObjAddr: 0x4188, symBinAddr: 0x47454, symSize: 0x74 }
  - { offset: 0xC4876, size: 0x8, addend: 0x0, symName: __RNvMNtCs6IAuOt8vWmF_3syn10punctuatedINtB2_10PunctuatedNtNtB4_4path15GenericArgumentNtNtB4_5token5CommaE8is_emptyB4_, symObjAddr: 0x41FC, symBinAddr: 0x474C8, symSize: 0x74 }
  - { offset: 0xC48B7, size: 0x8, addend: 0x0, symName: __RNvMNtCs6IAuOt8vWmF_3syn10punctuatedINtB2_10PunctuatedNtNtB4_8generics12GenericParamNtNtB4_5token5CommaE8is_emptyB4_, symObjAddr: 0x4270, symBinAddr: 0x4753C, symSize: 0x74 }
  - { offset: 0xC48F8, size: 0x8, addend: 0x0, symName: __RNvMNtCs6IAuOt8vWmF_3syn10punctuatedINtB2_10PunctuatedNtNtB4_8generics14TypeParamBoundNtNtB4_5token4PlusE8is_emptyB4_, symObjAddr: 0x42E4, symBinAddr: 0x475B0, symSize: 0x74 }
  - { offset: 0xC4939, size: 0x8, addend: 0x0, symName: __RNvMNtCs6IAuOt8vWmF_3syn10punctuatedINtB2_10PunctuatedNtNtB4_8generics14WherePredicateNtNtB4_5token5CommaE8is_emptyB4_, symObjAddr: 0x4358, symBinAddr: 0x47624, symSize: 0x74 }
  - { offset: 0xC497A, size: 0x8, addend: 0x0, symName: __RNvMNtCs6IAuOt8vWmF_3syn10punctuatedINtB2_10PunctuatedNtNtB4_8lifetime8LifetimeNtNtB4_5token4PlusE8is_emptyB4_, symObjAddr: 0x43CC, symBinAddr: 0x47698, symSize: 0x74 }
  - { offset: 0xC49AE, size: 0x8, addend: 0x0, symName: __RNvMNtCs6IAuOt8vWmF_3syn10punctuatedINtB2_10PunctuatedNtNtB4_2ty4TypeNtNtB4_5token5CommaE3lenB4_, symObjAddr: 0x4440, symBinAddr: 0x4770C, symSize: 0xA0 }
  - { offset: 0xC49E2, size: 0x8, addend: 0x0, symName: __RNvMNtCs6IAuOt8vWmF_3syn10punctuatedINtB2_10PunctuatedNtNtB4_3pat3PatNtNtB4_5token5CommaE3lenB4_, symObjAddr: 0x44E0, symBinAddr: 0x477AC, symSize: 0xA0 }
  - { offset: 0xC4A16, size: 0x8, addend: 0x0, symName: __RNvMNtCs6IAuOt8vWmF_3syn10punctuatedINtB2_10PunctuatedNtNtB4_4expr4ExprNtNtB4_5token5CommaE3lenB4_, symObjAddr: 0x46C0, symBinAddr: 0x4784C, symSize: 0xA0 }
  - { offset: 0xC4A4A, size: 0x8, addend: 0x0, symName: __RNvMNtCs6IAuOt8vWmF_3syn10punctuatedINtB2_10PunctuatedNtNtB4_4path11PathSegmentNtNtB4_5token7PathSepE3lenB4_, symObjAddr: 0x4760, symBinAddr: 0x478EC, symSize: 0xA0 }
  - { offset: 0xC4A7E, size: 0x8, addend: 0x0, symName: __RNvMNtCs6IAuOt8vWmF_3syn10punctuatedINtB2_10PunctuatedNtNtB4_8generics14TypeParamBoundNtNtB4_5token4PlusE3lenB4_, symObjAddr: 0x4800, symBinAddr: 0x4798C, symSize: 0xA0 }
  - { offset: 0xC4AB2, size: 0x8, addend: 0x0, symName: __RNvMNtCs6IAuOt8vWmF_3syn10punctuatedINtB2_10PunctuatedNtNtB4_4path11PathSegmentNtNtB4_5token7PathSepE4lastB4_, symObjAddr: 0x49A8, symBinAddr: 0x47A2C, symSize: 0x84 }
  - { offset: 0xC4AE6, size: 0x8, addend: 0x0, symName: __RNvMNtCs6IAuOt8vWmF_3syn10punctuatedINtB2_10PunctuatedNtNtB4_8generics14TypeParamBoundNtNtB4_5token4PlusE4lastB4_, symObjAddr: 0x4A2C, symBinAddr: 0x47AB0, symSize: 0x84 }
  - { offset: 0xC4B27, size: 0x8, addend: 0x0, symName: __RNvMNtCs6IAuOt8vWmF_3syn10punctuatedINtB2_10PunctuatedNtNtB4_4path11PathSegmentNtNtB4_5token7PathSepE8last_mutB4_, symObjAddr: 0x4AB0, symBinAddr: 0x47B34, symSize: 0x84 }
  - { offset: 0xC4BC4, size: 0x8, addend: 0x0, symName: __RNvMNtCs6IAuOt8vWmF_3syn10punctuatedINtB2_10PunctuatedNtNtB4_4path11PathSegmentNtNtB4_5token7PathSepE4iterB4_, symObjAddr: 0x4CC4, symBinAddr: 0x47BB8, symSize: 0xC8 }
  - { offset: 0xC4C7E, size: 0x8, addend: 0x0, symName: __RNvMNtCs6IAuOt8vWmF_3syn10punctuatedINtB2_10PunctuatedNtNtB4_8generics14TypeParamBoundNtNtB4_5token4PlusE4iterB4_, symObjAddr: 0x4E54, symBinAddr: 0x47C80, symSize: 0xC8 }
  - { offset: 0xC4D5F, size: 0x8, addend: 0x0, symName: __RNvMNtCs6IAuOt8vWmF_3syn10punctuatedINtB2_10PunctuatedNtNtB4_4path11PathSegmentNtNtB4_5token7PathSepE8iter_mutB4_, symObjAddr: 0x4FE4, symBinAddr: 0x47D48, symSize: 0xC8 }
  - { offset: 0xC4E12, size: 0x8, addend: 0x0, symName: __RNvMNtCs6IAuOt8vWmF_3syn10punctuatedINtB2_10PunctuatedNtNtB4_2ty4TypeNtNtB4_5token5CommaE5pairsB4_, symObjAddr: 0x5174, symBinAddr: 0x47E10, symSize: 0x74 }
  - { offset: 0xC4E6D, size: 0x8, addend: 0x0, symName: __RNvMNtCs6IAuOt8vWmF_3syn10punctuatedINtB2_10PunctuatedNtNtB4_2ty9BareFnArgNtNtB4_5token5CommaE5pairsB4_, symObjAddr: 0x51E8, symBinAddr: 0x47E84, symSize: 0x74 }
  - { offset: 0xC4ED5, size: 0x8, addend: 0x0, symName: __RNvMNtCs6IAuOt8vWmF_3syn10punctuatedINtB2_10PunctuatedNtNtB4_3pat3PatNtNtB4_5token2OrE5pairsB4_, symObjAddr: 0x525C, symBinAddr: 0x47EF8, symSize: 0x74 }
  - { offset: 0xC4F23, size: 0x8, addend: 0x0, symName: __RNvMNtCs6IAuOt8vWmF_3syn10punctuatedINtB2_10PunctuatedNtNtB4_3pat3PatNtNtB4_5token5CommaE5pairsB4_, symObjAddr: 0x52D0, symBinAddr: 0x47F6C, symSize: 0x74 }
  - { offset: 0xC4F8B, size: 0x8, addend: 0x0, symName: __RNvMNtCs6IAuOt8vWmF_3syn10punctuatedINtB2_10PunctuatedNtNtB4_3pat8FieldPatNtNtB4_5token5CommaE5pairsB4_, symObjAddr: 0x5344, symBinAddr: 0x47FE0, symSize: 0x74 }
  - { offset: 0xC4FBF, size: 0x8, addend: 0x0, symName: __RNvMNtCs6IAuOt8vWmF_3syn10punctuatedINtB2_10PunctuatedNtNtB4_4data5FieldNtNtB4_5token5CommaE5pairsB4_, symObjAddr: 0x53B8, symBinAddr: 0x48054, symSize: 0x74 }
  - { offset: 0xC5027, size: 0x8, addend: 0x0, symName: __RNvMNtCs6IAuOt8vWmF_3syn10punctuatedINtB2_10PunctuatedNtNtB4_4data7VariantNtNtB4_5token5CommaE5pairsB4_, symObjAddr: 0x542C, symBinAddr: 0x480C8, symSize: 0x74 }
  - { offset: 0xC508F, size: 0x8, addend: 0x0, symName: __RNvMNtCs6IAuOt8vWmF_3syn10punctuatedINtB2_10PunctuatedNtNtB4_4expr10FieldValueNtNtB4_5token5CommaE5pairsB4_, symObjAddr: 0x54A0, symBinAddr: 0x4813C, symSize: 0x74 }
  - { offset: 0xC50EA, size: 0x8, addend: 0x0, symName: __RNvMNtCs6IAuOt8vWmF_3syn10punctuatedINtB2_10PunctuatedNtNtB4_4expr4ExprNtNtB4_5token5CommaE5pairsB4_, symObjAddr: 0x5514, symBinAddr: 0x481B0, symSize: 0x74 }
  - { offset: 0xC511E, size: 0x8, addend: 0x0, symName: __RNvMNtCs6IAuOt8vWmF_3syn10punctuatedINtB2_10PunctuatedNtNtB4_4item5FnArgNtNtB4_5token5CommaE5pairsB4_, symObjAddr: 0x5588, symBinAddr: 0x48224, symSize: 0x74 }
  - { offset: 0xC5186, size: 0x8, addend: 0x0, symName: __RNvMNtCs6IAuOt8vWmF_3syn10punctuatedINtB2_10PunctuatedNtNtB4_4item7UseTreeNtNtB4_5token5CommaE5pairsB4_, symObjAddr: 0x55FC, symBinAddr: 0x48298, symSize: 0x74 }
  - { offset: 0xC51BA, size: 0x8, addend: 0x0, symName: __RNvMNtCs6IAuOt8vWmF_3syn10punctuatedINtB2_10PunctuatedNtNtB4_4path11PathSegmentNtNtB4_5token7PathSepE5pairsB4_, symObjAddr: 0x5670, symBinAddr: 0x4830C, symSize: 0x74 }
  - { offset: 0xC5215, size: 0x8, addend: 0x0, symName: __RNvMNtCs6IAuOt8vWmF_3syn10punctuatedINtB2_10PunctuatedNtNtB4_4path15GenericArgumentNtNtB4_5token5CommaE5pairsB4_, symObjAddr: 0x56E4, symBinAddr: 0x48380, symSize: 0x74 }
  - { offset: 0xC5249, size: 0x8, addend: 0x0, symName: __RNvMNtCs6IAuOt8vWmF_3syn10punctuatedINtB2_10PunctuatedNtNtB4_8generics12GenericParamNtNtB4_5token5CommaE5pairsB4_, symObjAddr: 0x5758, symBinAddr: 0x483F4, symSize: 0x74 }
  - { offset: 0xC52B1, size: 0x8, addend: 0x0, symName: __RNvMNtCs6IAuOt8vWmF_3syn10punctuatedINtB2_10PunctuatedNtNtB4_8generics13CapturedParamNtNtB4_5token5CommaE5pairsB4_, symObjAddr: 0x57CC, symBinAddr: 0x48468, symSize: 0x74 }
  - { offset: 0xC52E5, size: 0x8, addend: 0x0, symName: __RNvMNtCs6IAuOt8vWmF_3syn10punctuatedINtB2_10PunctuatedNtNtB4_8generics14TypeParamBoundNtNtB4_5token4PlusE5pairsB4_, symObjAddr: 0x5840, symBinAddr: 0x484DC, symSize: 0x74 }
  - { offset: 0xC5340, size: 0x8, addend: 0x0, symName: __RNvMNtCs6IAuOt8vWmF_3syn10punctuatedINtB2_10PunctuatedNtNtB4_8generics14WherePredicateNtNtB4_5token5CommaE5pairsB4_, symObjAddr: 0x58B4, symBinAddr: 0x48550, symSize: 0x74 }
  - { offset: 0xC5374, size: 0x8, addend: 0x0, symName: __RNvMNtCs6IAuOt8vWmF_3syn10punctuatedINtB2_10PunctuatedNtNtB4_8lifetime8LifetimeNtNtB4_5token4PlusE5pairsB4_, symObjAddr: 0x5928, symBinAddr: 0x485C4, symSize: 0x74 }
  - { offset: 0xC53A8, size: 0x8, addend: 0x0, symName: __RNvMNtCs6IAuOt8vWmF_3syn10punctuatedINtB2_10PunctuatedNtNtB4_4path11PathSegmentNtNtB4_5token7PathSepE10into_pairsB4_, symObjAddr: 0x599C, symBinAddr: 0x48638, symSize: 0x108 }
  - { offset: 0xC53EA, size: 0x8, addend: 0x0, symName: __RNvMNtCs6IAuOt8vWmF_3syn10punctuatedINtB2_10PunctuatedNtNtB4_2ty4TypeNtNtB4_5token5CommaE10push_valueB4_, symObjAddr: 0x5B3C, symBinAddr: 0x487D8, symSize: 0x1B4 }
  - { offset: 0xC5458, size: 0x8, addend: 0x0, symName: __RNvMNtCs6IAuOt8vWmF_3syn10punctuatedINtB2_10PunctuatedNtNtB4_2ty9BareFnArgNtNtB4_5token5CommaE10push_valueB4_, symObjAddr: 0x5CF0, symBinAddr: 0x4898C, symSize: 0x1B4 }
  - { offset: 0xC54C6, size: 0x8, addend: 0x0, symName: __RNvMNtCs6IAuOt8vWmF_3syn10punctuatedINtB2_10PunctuatedNtNtB4_3pat3PatNtNtB4_5token2OrE10push_valueB4_, symObjAddr: 0x5EA4, symBinAddr: 0x48B40, symSize: 0x1B4 }
  - { offset: 0xC5534, size: 0x8, addend: 0x0, symName: __RNvMNtCs6IAuOt8vWmF_3syn10punctuatedINtB2_10PunctuatedNtNtB4_3pat3PatNtNtB4_5token5CommaE10push_valueB4_, symObjAddr: 0x6058, symBinAddr: 0x48CF4, symSize: 0x1B4 }
  - { offset: 0xC55A2, size: 0x8, addend: 0x0, symName: __RNvMNtCs6IAuOt8vWmF_3syn10punctuatedINtB2_10PunctuatedNtNtB4_3pat8FieldPatNtNtB4_5token5CommaE10push_valueB4_, symObjAddr: 0x620C, symBinAddr: 0x48EA8, symSize: 0x1B4 }
  - { offset: 0xC5603, size: 0x8, addend: 0x0, symName: __RNvMNtCs6IAuOt8vWmF_3syn10punctuatedINtB2_10PunctuatedNtNtB4_4data5FieldNtNtB4_5token5CommaE10push_valueB4_, symObjAddr: 0x63C0, symBinAddr: 0x4905C, symSize: 0x1B4 }
  - { offset: 0xC5671, size: 0x8, addend: 0x0, symName: __RNvMNtCs6IAuOt8vWmF_3syn10punctuatedINtB2_10PunctuatedNtNtB4_4data7VariantNtNtB4_5token5CommaE10push_valueB4_, symObjAddr: 0x6574, symBinAddr: 0x49210, symSize: 0x1B4 }
  - { offset: 0xC56DF, size: 0x8, addend: 0x0, symName: __RNvMNtCs6IAuOt8vWmF_3syn10punctuatedINtB2_10PunctuatedNtNtB4_4expr10FieldValueNtNtB4_5token5CommaE10push_valueB4_, symObjAddr: 0x6728, symBinAddr: 0x493C4, symSize: 0x1B4 }
  - { offset: 0xC574D, size: 0x8, addend: 0x0, symName: __RNvMNtCs6IAuOt8vWmF_3syn10punctuatedINtB2_10PunctuatedNtNtB4_4expr4ExprNtNtB4_5token5CommaE10push_valueB4_, symObjAddr: 0x68DC, symBinAddr: 0x49578, symSize: 0x1B4 }
  - { offset: 0xC57BB, size: 0x8, addend: 0x0, symName: __RNvMNtCs6IAuOt8vWmF_3syn10punctuatedINtB2_10PunctuatedNtNtB4_4item5FnArgNtNtB4_5token5CommaE10push_valueB4_, symObjAddr: 0x6A90, symBinAddr: 0x4972C, symSize: 0x1B4 }
  - { offset: 0xC5829, size: 0x8, addend: 0x0, symName: __RNvMNtCs6IAuOt8vWmF_3syn10punctuatedINtB2_10PunctuatedNtNtB4_4item7UseTreeNtNtB4_5token5CommaE10push_valueB4_, symObjAddr: 0x6C44, symBinAddr: 0x498E0, symSize: 0x1B4 }
  - { offset: 0xC588A, size: 0x8, addend: 0x0, symName: __RNvMNtCs6IAuOt8vWmF_3syn10punctuatedINtB2_10PunctuatedNtNtB4_4path11PathSegmentNtNtB4_5token7PathSepE10push_valueB4_, symObjAddr: 0x6DF8, symBinAddr: 0x49A94, symSize: 0x1B4 }
  - { offset: 0xC58F8, size: 0x8, addend: 0x0, symName: __RNvMNtCs6IAuOt8vWmF_3syn10punctuatedINtB2_10PunctuatedNtNtB4_4path15GenericArgumentNtNtB4_5token5CommaE10push_valueB4_, symObjAddr: 0x6FAC, symBinAddr: 0x49C48, symSize: 0x1B4 }
  - { offset: 0xC5959, size: 0x8, addend: 0x0, symName: __RNvMNtCs6IAuOt8vWmF_3syn10punctuatedINtB2_10PunctuatedNtNtB4_8generics12GenericParamNtNtB4_5token5CommaE10push_valueB4_, symObjAddr: 0x7160, symBinAddr: 0x49DFC, symSize: 0x1B4 }
  - { offset: 0xC59C7, size: 0x8, addend: 0x0, symName: __RNvMNtCs6IAuOt8vWmF_3syn10punctuatedINtB2_10PunctuatedNtNtB4_8generics13CapturedParamNtNtB4_5token5CommaE10push_valueB4_, symObjAddr: 0x7314, symBinAddr: 0x49FB0, symSize: 0x1AC }
  - { offset: 0xC5A35, size: 0x8, addend: 0x0, symName: __RNvMNtCs6IAuOt8vWmF_3syn10punctuatedINtB2_10PunctuatedNtNtB4_8generics14TypeParamBoundNtNtB4_5token4PlusE10push_valueB4_, symObjAddr: 0x74C0, symBinAddr: 0x4A15C, symSize: 0x1B4 }
  - { offset: 0xC5AA3, size: 0x8, addend: 0x0, symName: __RNvMNtCs6IAuOt8vWmF_3syn10punctuatedINtB2_10PunctuatedNtNtB4_8generics14WherePredicateNtNtB4_5token5CommaE10push_valueB4_, symObjAddr: 0x7674, symBinAddr: 0x4A310, symSize: 0x1B4 }
  - { offset: 0xC5B11, size: 0x8, addend: 0x0, symName: __RNvMNtCs6IAuOt8vWmF_3syn10punctuatedINtB2_10PunctuatedNtNtB4_8lifetime8LifetimeNtNtB4_5token4PlusE10push_valueB4_, symObjAddr: 0x7828, symBinAddr: 0x4A4C4, symSize: 0x1A4 }
  - { offset: 0xC5B9D, size: 0x8, addend: 0x0, symName: __RNvMNtCs6IAuOt8vWmF_3syn10punctuatedINtB2_10PunctuatedNtNtB4_2ty4TypeNtNtB4_5token5CommaE10push_punctB4_, symObjAddr: 0x79CC, symBinAddr: 0x4A668, symSize: 0x200 }
  - { offset: 0xC5C46, size: 0x8, addend: 0x0, symName: __RNvMNtCs6IAuOt8vWmF_3syn10punctuatedINtB2_10PunctuatedNtNtB4_2ty9BareFnArgNtNtB4_5token5CommaE10push_punctB4_, symObjAddr: 0x7BCC, symBinAddr: 0x4A868, symSize: 0x200 }
  - { offset: 0xC5CEF, size: 0x8, addend: 0x0, symName: __RNvMNtCs6IAuOt8vWmF_3syn10punctuatedINtB2_10PunctuatedNtNtB4_3pat3PatNtNtB4_5token2OrE10push_punctB4_, symObjAddr: 0x7DCC, symBinAddr: 0x4AA68, symSize: 0x200 }
  - { offset: 0xC5D6D, size: 0x8, addend: 0x0, symName: __RNvMNtCs6IAuOt8vWmF_3syn10punctuatedINtB2_10PunctuatedNtNtB4_3pat3PatNtNtB4_5token5CommaE10push_punctB4_, symObjAddr: 0x7FCC, symBinAddr: 0x4AC68, symSize: 0x200 }
  - { offset: 0xC5E16, size: 0x8, addend: 0x0, symName: __RNvMNtCs6IAuOt8vWmF_3syn10punctuatedINtB2_10PunctuatedNtNtB4_3pat8FieldPatNtNtB4_5token5CommaE10push_punctB4_, symObjAddr: 0x81CC, symBinAddr: 0x4AE68, symSize: 0x200 }
  - { offset: 0xC5EBF, size: 0x8, addend: 0x0, symName: __RNvMNtCs6IAuOt8vWmF_3syn10punctuatedINtB2_10PunctuatedNtNtB4_4data5FieldNtNtB4_5token5CommaE10push_punctB4_, symObjAddr: 0x83CC, symBinAddr: 0x4B068, symSize: 0x200 }
  - { offset: 0xC5F68, size: 0x8, addend: 0x0, symName: __RNvMNtCs6IAuOt8vWmF_3syn10punctuatedINtB2_10PunctuatedNtNtB4_4data7VariantNtNtB4_5token5CommaE10push_punctB4_, symObjAddr: 0x85CC, symBinAddr: 0x4B268, symSize: 0x200 }
  - { offset: 0xC6011, size: 0x8, addend: 0x0, symName: __RNvMNtCs6IAuOt8vWmF_3syn10punctuatedINtB2_10PunctuatedNtNtB4_4expr10FieldValueNtNtB4_5token5CommaE10push_punctB4_, symObjAddr: 0x87CC, symBinAddr: 0x4B468, symSize: 0x200 }
  - { offset: 0xC60BA, size: 0x8, addend: 0x0, symName: __RNvMNtCs6IAuOt8vWmF_3syn10punctuatedINtB2_10PunctuatedNtNtB4_4expr4ExprNtNtB4_5token5CommaE10push_punctB4_, symObjAddr: 0x89CC, symBinAddr: 0x4B668, symSize: 0x200 }
  - { offset: 0xC6163, size: 0x8, addend: 0x0, symName: __RNvMNtCs6IAuOt8vWmF_3syn10punctuatedINtB2_10PunctuatedNtNtB4_4item5FnArgNtNtB4_5token5CommaE10push_punctB4_, symObjAddr: 0x8BCC, symBinAddr: 0x4B868, symSize: 0x200 }
  - { offset: 0xC620C, size: 0x8, addend: 0x0, symName: __RNvMNtCs6IAuOt8vWmF_3syn10punctuatedINtB2_10PunctuatedNtNtB4_4item7UseTreeNtNtB4_5token5CommaE10push_punctB4_, symObjAddr: 0x8DCC, symBinAddr: 0x4BA68, symSize: 0x200 }
  - { offset: 0xC62B5, size: 0x8, addend: 0x0, symName: __RNvMNtCs6IAuOt8vWmF_3syn10punctuatedINtB2_10PunctuatedNtNtB4_4path11PathSegmentNtNtB4_5token7PathSepE10push_punctB4_, symObjAddr: 0x8FCC, symBinAddr: 0x4BC68, symSize: 0x200 }
  - { offset: 0xC635E, size: 0x8, addend: 0x0, symName: __RNvMNtCs6IAuOt8vWmF_3syn10punctuatedINtB2_10PunctuatedNtNtB4_4path15GenericArgumentNtNtB4_5token5CommaE10push_punctB4_, symObjAddr: 0x91CC, symBinAddr: 0x4BE68, symSize: 0x200 }
  - { offset: 0xC6407, size: 0x8, addend: 0x0, symName: __RNvMNtCs6IAuOt8vWmF_3syn10punctuatedINtB2_10PunctuatedNtNtB4_8generics12GenericParamNtNtB4_5token5CommaE10push_punctB4_, symObjAddr: 0x93CC, symBinAddr: 0x4C068, symSize: 0x204 }
  - { offset: 0xC64B0, size: 0x8, addend: 0x0, symName: __RNvMNtCs6IAuOt8vWmF_3syn10punctuatedINtB2_10PunctuatedNtNtB4_8generics13CapturedParamNtNtB4_5token5CommaE10push_punctB4_, symObjAddr: 0x95D0, symBinAddr: 0x4C26C, symSize: 0x200 }
  - { offset: 0xC6559, size: 0x8, addend: 0x0, symName: __RNvMNtCs6IAuOt8vWmF_3syn10punctuatedINtB2_10PunctuatedNtNtB4_8generics14TypeParamBoundNtNtB4_5token4PlusE10push_punctB4_, symObjAddr: 0x97D0, symBinAddr: 0x4C46C, symSize: 0x200 }
  - { offset: 0xC6602, size: 0x8, addend: 0x0, symName: __RNvMNtCs6IAuOt8vWmF_3syn10punctuatedINtB2_10PunctuatedNtNtB4_8generics14WherePredicateNtNtB4_5token5CommaE10push_punctB4_, symObjAddr: 0x99D0, symBinAddr: 0x4C66C, symSize: 0x200 }
  - { offset: 0xC66AB, size: 0x8, addend: 0x0, symName: __RNvMNtCs6IAuOt8vWmF_3syn10punctuatedINtB2_10PunctuatedNtNtB4_8lifetime8LifetimeNtNtB4_5token4PlusE10push_punctB4_, symObjAddr: 0x9BD0, symBinAddr: 0x4C86C, symSize: 0x1F8 }
  - { offset: 0xC6728, size: 0x8, addend: 0x0, symName: __RNvMNtCs6IAuOt8vWmF_3syn10punctuatedINtB2_10PunctuatedNtNtB4_4path11PathSegmentNtNtB4_5token7PathSepE3popB4_, symObjAddr: 0x9DC8, symBinAddr: 0x4CA64, symSize: 0x90 }
  - { offset: 0xC675C, size: 0x8, addend: 0x0, symName: __RNvMNtCs6IAuOt8vWmF_3syn10punctuatedINtB2_10PunctuatedNtNtB4_2ty4TypeNtNtB4_5token5CommaE14trailing_punctB4_, symObjAddr: 0x9F90, symBinAddr: 0x4CC2C, symSize: 0x80 }
  - { offset: 0xC6790, size: 0x8, addend: 0x0, symName: __RNvMNtCs6IAuOt8vWmF_3syn10punctuatedINtB2_10PunctuatedNtNtB4_3pat3PatNtNtB4_5token5CommaE14trailing_punctB4_, symObjAddr: 0xA010, symBinAddr: 0x4CCAC, symSize: 0x80 }
  - { offset: 0xC67C4, size: 0x8, addend: 0x0, symName: __RNvMNtCs6IAuOt8vWmF_3syn10punctuatedINtB2_10PunctuatedNtNtB4_4expr4ExprNtNtB4_5token5CommaE14trailing_punctB4_, symObjAddr: 0xA090, symBinAddr: 0x4CD2C, symSize: 0x80 }
  - { offset: 0xC67F8, size: 0x8, addend: 0x0, symName: __RNvMNtCs6IAuOt8vWmF_3syn10punctuatedINtB2_10PunctuatedNtNtB4_4path11PathSegmentNtNtB4_5token7PathSepE14trailing_punctB4_, symObjAddr: 0xA110, symBinAddr: 0x4CDAC, symSize: 0x80 }
  - { offset: 0xC682C, size: 0x8, addend: 0x0, symName: __RNvMNtCs6IAuOt8vWmF_3syn10punctuatedINtB2_10PunctuatedNtNtB4_8generics14TypeParamBoundNtNtB4_5token4PlusE14trailing_punctB4_, symObjAddr: 0xA190, symBinAddr: 0x4CE2C, symSize: 0x80 }
  - { offset: 0xC6860, size: 0x8, addend: 0x0, symName: __RNvMNtCs6IAuOt8vWmF_3syn10punctuatedINtB2_10PunctuatedNtNtB4_2ty4TypeNtNtB4_5token5CommaE17empty_or_trailingB4_, symObjAddr: 0xA210, symBinAddr: 0x4CEAC, symSize: 0x34 }
  - { offset: 0xC6894, size: 0x8, addend: 0x0, symName: __RNvMNtCs6IAuOt8vWmF_3syn10punctuatedINtB2_10PunctuatedNtNtB4_2ty9BareFnArgNtNtB4_5token5CommaE17empty_or_trailingB4_, symObjAddr: 0xA244, symBinAddr: 0x4CEE0, symSize: 0x34 }
  - { offset: 0xC68C8, size: 0x8, addend: 0x0, symName: __RNvMNtCs6IAuOt8vWmF_3syn10punctuatedINtB2_10PunctuatedNtNtB4_3pat3PatNtNtB4_5token2OrE17empty_or_trailingB4_, symObjAddr: 0xA278, symBinAddr: 0x4CF14, symSize: 0x34 }
  - { offset: 0xC68FC, size: 0x8, addend: 0x0, symName: __RNvMNtCs6IAuOt8vWmF_3syn10punctuatedINtB2_10PunctuatedNtNtB4_3pat3PatNtNtB4_5token5CommaE17empty_or_trailingB4_, symObjAddr: 0xA2AC, symBinAddr: 0x4CF48, symSize: 0x34 }
  - { offset: 0xC6930, size: 0x8, addend: 0x0, symName: __RNvMNtCs6IAuOt8vWmF_3syn10punctuatedINtB2_10PunctuatedNtNtB4_3pat8FieldPatNtNtB4_5token5CommaE17empty_or_trailingB4_, symObjAddr: 0xA2E0, symBinAddr: 0x4CF7C, symSize: 0x34 }
  - { offset: 0xC6964, size: 0x8, addend: 0x0, symName: __RNvMNtCs6IAuOt8vWmF_3syn10punctuatedINtB2_10PunctuatedNtNtB4_4data5FieldNtNtB4_5token5CommaE17empty_or_trailingB4_, symObjAddr: 0xA314, symBinAddr: 0x4CFB0, symSize: 0x34 }
  - { offset: 0xC6998, size: 0x8, addend: 0x0, symName: __RNvMNtCs6IAuOt8vWmF_3syn10punctuatedINtB2_10PunctuatedNtNtB4_4data7VariantNtNtB4_5token5CommaE17empty_or_trailingB4_, symObjAddr: 0xA348, symBinAddr: 0x4CFE4, symSize: 0x34 }
  - { offset: 0xC69CC, size: 0x8, addend: 0x0, symName: __RNvMNtCs6IAuOt8vWmF_3syn10punctuatedINtB2_10PunctuatedNtNtB4_4expr10FieldValueNtNtB4_5token5CommaE17empty_or_trailingB4_, symObjAddr: 0xA37C, symBinAddr: 0x4D018, symSize: 0x34 }
  - { offset: 0xC6A00, size: 0x8, addend: 0x0, symName: __RNvMNtCs6IAuOt8vWmF_3syn10punctuatedINtB2_10PunctuatedNtNtB4_4expr4ExprNtNtB4_5token5CommaE17empty_or_trailingB4_, symObjAddr: 0xA3B0, symBinAddr: 0x4D04C, symSize: 0x34 }
  - { offset: 0xC6A34, size: 0x8, addend: 0x0, symName: __RNvMNtCs6IAuOt8vWmF_3syn10punctuatedINtB2_10PunctuatedNtNtB4_4item5FnArgNtNtB4_5token5CommaE17empty_or_trailingB4_, symObjAddr: 0xA3E4, symBinAddr: 0x4D080, symSize: 0x34 }
  - { offset: 0xC6A68, size: 0x8, addend: 0x0, symName: __RNvMNtCs6IAuOt8vWmF_3syn10punctuatedINtB2_10PunctuatedNtNtB4_4item7UseTreeNtNtB4_5token5CommaE17empty_or_trailingB4_, symObjAddr: 0xA418, symBinAddr: 0x4D0B4, symSize: 0x34 }
  - { offset: 0xC6A9C, size: 0x8, addend: 0x0, symName: __RNvMNtCs6IAuOt8vWmF_3syn10punctuatedINtB2_10PunctuatedNtNtB4_4path11PathSegmentNtNtB4_5token7PathSepE17empty_or_trailingB4_, symObjAddr: 0xA44C, symBinAddr: 0x4D0E8, symSize: 0x34 }
  - { offset: 0xC6AD0, size: 0x8, addend: 0x0, symName: __RNvMNtCs6IAuOt8vWmF_3syn10punctuatedINtB2_10PunctuatedNtNtB4_4path15GenericArgumentNtNtB4_5token5CommaE17empty_or_trailingB4_, symObjAddr: 0xA480, symBinAddr: 0x4D11C, symSize: 0x34 }
  - { offset: 0xC6B04, size: 0x8, addend: 0x0, symName: __RNvMNtCs6IAuOt8vWmF_3syn10punctuatedINtB2_10PunctuatedNtNtB4_8generics12GenericParamNtNtB4_5token5CommaE17empty_or_trailingB4_, symObjAddr: 0xA4B4, symBinAddr: 0x4D150, symSize: 0x34 }
  - { offset: 0xC6B38, size: 0x8, addend: 0x0, symName: __RNvMNtCs6IAuOt8vWmF_3syn10punctuatedINtB2_10PunctuatedNtNtB4_8generics13CapturedParamNtNtB4_5token5CommaE17empty_or_trailingB4_, symObjAddr: 0xA4E8, symBinAddr: 0x4D184, symSize: 0x34 }
  - { offset: 0xC6B6C, size: 0x8, addend: 0x0, symName: __RNvMNtCs6IAuOt8vWmF_3syn10punctuatedINtB2_10PunctuatedNtNtB4_8generics14TypeParamBoundNtNtB4_5token4PlusE17empty_or_trailingB4_, symObjAddr: 0xA51C, symBinAddr: 0x4D1B8, symSize: 0x34 }
  - { offset: 0xC6BA0, size: 0x8, addend: 0x0, symName: __RNvMNtCs6IAuOt8vWmF_3syn10punctuatedINtB2_10PunctuatedNtNtB4_8generics14WherePredicateNtNtB4_5token5CommaE17empty_or_trailingB4_, symObjAddr: 0xA550, symBinAddr: 0x4D1EC, symSize: 0x34 }
  - { offset: 0xC6BD4, size: 0x8, addend: 0x0, symName: __RNvMNtCs6IAuOt8vWmF_3syn10punctuatedINtB2_10PunctuatedNtNtB4_8lifetime8LifetimeNtNtB4_5token4PlusE17empty_or_trailingB4_, symObjAddr: 0xA584, symBinAddr: 0x4D220, symSize: 0x34 }
  - { offset: 0xC6C08, size: 0x8, addend: 0x0, symName: __RNvMNtCs6IAuOt8vWmF_3syn10punctuatedINtB2_10PunctuatedNtNtB4_4expr10FieldValueNtNtB4_5token5CommaE4pushB4_, symObjAddr: 0xA5B8, symBinAddr: 0x4D254, symSize: 0x124 }
  - { offset: 0xC6C63, size: 0x8, addend: 0x0, symName: __RNvMNtCs6IAuOt8vWmF_3syn10punctuatedINtB2_10PunctuatedNtNtB4_2ty4TypeNtNtB4_5token5CommaE21parse_terminated_withB4_, symObjAddr: 0xA6DC, symBinAddr: 0x4D378, symSize: 0x35C }
  - { offset: 0xC6D80, size: 0x8, addend: 0x0, symName: __RNvMNtCs6IAuOt8vWmF_3syn10punctuatedINtB2_10PunctuatedNtNtB4_4data5FieldNtNtB4_5token5CommaE21parse_terminated_withB4_, symObjAddr: 0xAA38, symBinAddr: 0x4D6D4, symSize: 0x370 }
  - { offset: 0xC6E9D, size: 0x8, addend: 0x0, symName: __RNvMNtCs6IAuOt8vWmF_3syn10punctuatedINtB2_10PunctuatedNtNtB4_4data7VariantNtNtB4_5token5CommaE21parse_terminated_withB4_, symObjAddr: 0xADA8, symBinAddr: 0x4DA44, symSize: 0x35C }
  - { offset: 0xC6FBA, size: 0x8, addend: 0x0, symName: __RNvMNtCs6IAuOt8vWmF_3syn10punctuatedINtB2_10PunctuatedNtNtB4_4expr4ExprNtNtB4_5token5CommaE21parse_terminated_withB4_, symObjAddr: 0xB104, symBinAddr: 0x4DDA0, symSize: 0x35C }
  - { offset: 0xC70E6, size: 0x8, addend: 0x0, symName: __RNvMsJ_NtCs6IAuOt8vWmF_3syn10punctuatedINtB5_4PairNtNtB7_4path11PathSegmentNtNtB7_5token7PathSepE10into_valueB7_, symObjAddr: 0x11644, symBinAddr: 0x50F28, symSize: 0xD4 }
  - { offset: 0xC7161, size: 0x8, addend: 0x0, symName: __RNvMsJ_NtCs6IAuOt8vWmF_3syn10punctuatedINtB5_4PairRNtNtB7_4path11PathSegmentRNtNtB7_5token7PathSepE5valueB7_, symObjAddr: 0x11718, symBinAddr: 0x50FFC, symSize: 0x74 }
  - { offset: 0xC71DB, size: 0x8, addend: 0x0, symName: __RNvMsJ_NtCs6IAuOt8vWmF_3syn10punctuatedINtB5_4PairRNtNtB7_4path15GenericArgumentRNtNtB7_5token5CommaE5valueB7_, symObjAddr: 0x1178C, symBinAddr: 0x51070, symSize: 0x74 }
  - { offset: 0xC7248, size: 0x8, addend: 0x0, symName: __RNvMsJ_NtCs6IAuOt8vWmF_3syn10punctuatedINtB5_4PairRNtNtB7_8generics12GenericParamRNtNtB7_5token5CommaE5valueB7_, symObjAddr: 0x11800, symBinAddr: 0x510E4, symSize: 0x74 }
  - { offset: 0xC72B5, size: 0x8, addend: 0x0, symName: __RNvMsJ_NtCs6IAuOt8vWmF_3syn10punctuatedINtB5_4PairRNtNtB7_8generics13CapturedParamRNtNtB7_5token5CommaE5valueB7_, symObjAddr: 0x11874, symBinAddr: 0x51158, symSize: 0x74 }
  - { offset: 0xC7315, size: 0x8, addend: 0x0, symName: __RNvMsJ_NtCs6IAuOt8vWmF_3syn10punctuatedINtB5_4PairRNtNtB7_4path11PathSegmentRNtNtB7_5token7PathSepE5punctB7_, symObjAddr: 0x118E8, symBinAddr: 0x511CC, symSize: 0x78 }
  - { offset: 0xC7375, size: 0x8, addend: 0x0, symName: __RNvMsJ_NtCs6IAuOt8vWmF_3syn10punctuatedINtB5_4PairRNtNtB7_4path15GenericArgumentRNtNtB7_5token5CommaE5punctB7_, symObjAddr: 0x11960, symBinAddr: 0x51244, symSize: 0x78 }
  - { offset: 0xC73C8, size: 0x8, addend: 0x0, symName: __RNvMsJ_NtCs6IAuOt8vWmF_3syn10punctuatedINtB5_4PairRNtNtB7_8generics12GenericParamRNtNtB7_5token5CommaE5punctB7_, symObjAddr: 0x119D8, symBinAddr: 0x512BC, symSize: 0x78 }
  - { offset: 0xC741B, size: 0x8, addend: 0x0, symName: __RNvMsJ_NtCs6IAuOt8vWmF_3syn10punctuatedINtB5_4PairRNtNtB7_8generics13CapturedParamRNtNtB7_5token5CommaE5punctB7_, symObjAddr: 0x11A50, symBinAddr: 0x51334, symSize: 0x78 }
  - { offset: 0xC7880, size: 0x8, addend: 0x0, symName: __RINvMNtCsfvfooZQ3Axs_4core6optionINtB3_6OptionINtNtCs6IAuOt8vWmF_3syn10punctuated4PairNtNtBN_4path11PathSegmentNtNtBN_5token7PathSepEE7or_elseNCNvXsj_BL_INtBL_9IntoPairsB1m_B1L_ENtNtNtNtB5_4iter6traits8iterator8Iterator4nexts_0EBN_, symObjAddr: 0x0, symBinAddr: 0x5279C, symSize: 0xD8 }
  - { offset: 0xCE857, size: 0x8, addend: 0x0, symName: __RNcNtINtNtCsfvfooZQ3Axs_4core6option6OptionNtCs3cP53eQoTwO_11proc_macro25IdentE4Some0Cs6IAuOt8vWmF_3syn, symObjAddr: 0x44F4, symBinAddr: 0x55E24, symSize: 0x18 }
  - { offset: 0xCE88A, size: 0x8, addend: 0x0, symName: __RNcNtINtNtCsfvfooZQ3Axs_4core6option6OptionNtNtCs6IAuOt8vWmF_3syn2ty3AbiE4Some0BJ_, symObjAddr: 0x450C, symBinAddr: 0x55E3C, symSize: 0x2C }
  - { offset: 0xCE8BD, size: 0x8, addend: 0x0, symName: __RNcNtINtNtCsfvfooZQ3Axs_4core6option6OptionNtNtCs6IAuOt8vWmF_3syn4expr5LabelE4Some0BJ_, symObjAddr: 0x4538, symBinAddr: 0x55E68, symSize: 0x30 }
  - { offset: 0xCE8F1, size: 0x8, addend: 0x0, symName: __RNcNtINtNtCsfvfooZQ3Axs_4core6option6OptionNtNtCs6IAuOt8vWmF_3syn8generics11WhereClauseE4Some0BJ_, symObjAddr: 0x4568, symBinAddr: 0x55E98, symSize: 0x30 }
  - { offset: 0xCE925, size: 0x8, addend: 0x0, symName: __RNcNtINtNtCsfvfooZQ3Axs_4core6option6OptionNtNtCs6IAuOt8vWmF_3syn8generics14BoundLifetimesE4Some0BJ_, symObjAddr: 0x4598, symBinAddr: 0x55EC8, symSize: 0x30 }
  - { offset: 0xCF0B9, size: 0x8, addend: 0x0, symName: __RNvXs3_NtCsfvfooZQ3Axs_4core6optionINtB5_6OptionINtNtCse1nGBsou5OW_5alloc2rc2RcINtNtB7_4cell4CellNtNtCs6IAuOt8vWmF_3syn5parse10UnexpectedEEENtNtB7_5clone5Clone5cloneB1B_, symObjAddr: 0x6F90, symBinAddr: 0x58374, symSize: 0x5C }
  - { offset: 0xCF10E, size: 0x8, addend: 0x0, symName: __RNvXs3_NtCsfvfooZQ3Axs_4core6optionINtB5_6OptionINtNtCse1nGBsou5OW_5alloc5boxed3BoxNtNtCs6IAuOt8vWmF_3syn2ty4TypeEENtNtB7_5clone5Clone5cloneB1n_, symObjAddr: 0x6FEC, symBinAddr: 0x583D0, symSize: 0x5C }
  - { offset: 0xCF163, size: 0x8, addend: 0x0, symName: __RNvXs3_NtCsfvfooZQ3Axs_4core6optionINtB5_6OptionINtNtCse1nGBsou5OW_5alloc5boxed3BoxNtNtCs6IAuOt8vWmF_3syn2ty9BareFnArgEENtNtB7_5clone5Clone5cloneB1n_, symObjAddr: 0x7048, symBinAddr: 0x5842C, symSize: 0x5C }
  - { offset: 0xCF1B8, size: 0x8, addend: 0x0, symName: __RNvXs3_NtCsfvfooZQ3Axs_4core6optionINtB5_6OptionINtNtCse1nGBsou5OW_5alloc5boxed3BoxNtNtCs6IAuOt8vWmF_3syn3pat3PatEENtNtB7_5clone5Clone5cloneB1n_, symObjAddr: 0x70A4, symBinAddr: 0x58488, symSize: 0x5C }
  - { offset: 0xCF20D, size: 0x8, addend: 0x0, symName: __RNvXs3_NtCsfvfooZQ3Axs_4core6optionINtB5_6OptionINtNtCse1nGBsou5OW_5alloc5boxed3BoxNtNtCs6IAuOt8vWmF_3syn3pat8FieldPatEENtNtB7_5clone5Clone5cloneB1n_, symObjAddr: 0x7100, symBinAddr: 0x584E4, symSize: 0x5C }
  - { offset: 0xCF262, size: 0x8, addend: 0x0, symName: __RNvXs3_NtCsfvfooZQ3Axs_4core6optionINtB5_6OptionINtNtCse1nGBsou5OW_5alloc5boxed3BoxNtNtCs6IAuOt8vWmF_3syn4data5FieldEENtNtB7_5clone5Clone5cloneB1n_, symObjAddr: 0x715C, symBinAddr: 0x58540, symSize: 0x5C }
  - { offset: 0xCF2B7, size: 0x8, addend: 0x0, symName: __RNvXs3_NtCsfvfooZQ3Axs_4core6optionINtB5_6OptionINtNtCse1nGBsou5OW_5alloc5boxed3BoxNtNtCs6IAuOt8vWmF_3syn4data7VariantEENtNtB7_5clone5Clone5cloneB1n_, symObjAddr: 0x71B8, symBinAddr: 0x5859C, symSize: 0x5C }
  - { offset: 0xCF30C, size: 0x8, addend: 0x0, symName: __RNvXs3_NtCsfvfooZQ3Axs_4core6optionINtB5_6OptionINtNtCse1nGBsou5OW_5alloc5boxed3BoxNtNtCs6IAuOt8vWmF_3syn4expr10FieldValueEENtNtB7_5clone5Clone5cloneB1n_, symObjAddr: 0x7214, symBinAddr: 0x585F8, symSize: 0x5C }
  - { offset: 0xCF361, size: 0x8, addend: 0x0, symName: __RNvXs3_NtCsfvfooZQ3Axs_4core6optionINtB5_6OptionINtNtCse1nGBsou5OW_5alloc5boxed3BoxNtNtCs6IAuOt8vWmF_3syn4expr4ExprEENtNtB7_5clone5Clone5cloneB1n_, symObjAddr: 0x7270, symBinAddr: 0x58654, symSize: 0x5C }
  - { offset: 0xCF3B6, size: 0x8, addend: 0x0, symName: __RNvXs3_NtCsfvfooZQ3Axs_4core6optionINtB5_6OptionINtNtCse1nGBsou5OW_5alloc5boxed3BoxNtNtCs6IAuOt8vWmF_3syn4item5FnArgEENtNtB7_5clone5Clone5cloneB1n_, symObjAddr: 0x72CC, symBinAddr: 0x586B0, symSize: 0x5C }
  - { offset: 0xCF40B, size: 0x8, addend: 0x0, symName: __RNvXs3_NtCsfvfooZQ3Axs_4core6optionINtB5_6OptionINtNtCse1nGBsou5OW_5alloc5boxed3BoxNtNtCs6IAuOt8vWmF_3syn4item7UseTreeEENtNtB7_5clone5Clone5cloneB1n_, symObjAddr: 0x7328, symBinAddr: 0x5870C, symSize: 0x5C }
  - { offset: 0xCF460, size: 0x8, addend: 0x0, symName: __RNvXs3_NtCsfvfooZQ3Axs_4core6optionINtB5_6OptionINtNtCse1nGBsou5OW_5alloc5boxed3BoxNtNtCs6IAuOt8vWmF_3syn4path11PathSegmentEENtNtB7_5clone5Clone5cloneB1n_, symObjAddr: 0x7384, symBinAddr: 0x58768, symSize: 0x5C }
  - { offset: 0xCF4B5, size: 0x8, addend: 0x0, symName: __RNvXs3_NtCsfvfooZQ3Axs_4core6optionINtB5_6OptionINtNtCse1nGBsou5OW_5alloc5boxed3BoxNtNtCs6IAuOt8vWmF_3syn4path15GenericArgumentEENtNtB7_5clone5Clone5cloneB1n_, symObjAddr: 0x73E0, symBinAddr: 0x587C4, symSize: 0x5C }
  - { offset: 0xCF50A, size: 0x8, addend: 0x0, symName: __RNvXs3_NtCsfvfooZQ3Axs_4core6optionINtB5_6OptionINtNtCse1nGBsou5OW_5alloc5boxed3BoxNtNtCs6IAuOt8vWmF_3syn8generics12GenericParamEENtNtB7_5clone5Clone5cloneB1n_, symObjAddr: 0x743C, symBinAddr: 0x58820, symSize: 0x5C }
  - { offset: 0xCF55F, size: 0x8, addend: 0x0, symName: __RNvXs3_NtCsfvfooZQ3Axs_4core6optionINtB5_6OptionINtNtCse1nGBsou5OW_5alloc5boxed3BoxNtNtCs6IAuOt8vWmF_3syn8generics13CapturedParamEENtNtB7_5clone5Clone5cloneB1n_, symObjAddr: 0x7498, symBinAddr: 0x5887C, symSize: 0x5C }
  - { offset: 0xCF5B4, size: 0x8, addend: 0x0, symName: __RNvXs3_NtCsfvfooZQ3Axs_4core6optionINtB5_6OptionINtNtCse1nGBsou5OW_5alloc5boxed3BoxNtNtCs6IAuOt8vWmF_3syn8generics14TypeParamBoundEENtNtB7_5clone5Clone5cloneB1n_, symObjAddr: 0x74F4, symBinAddr: 0x588D8, symSize: 0x5C }
  - { offset: 0xCF609, size: 0x8, addend: 0x0, symName: __RNvXs3_NtCsfvfooZQ3Axs_4core6optionINtB5_6OptionINtNtCse1nGBsou5OW_5alloc5boxed3BoxNtNtCs6IAuOt8vWmF_3syn8generics14WherePredicateEENtNtB7_5clone5Clone5cloneB1n_, symObjAddr: 0x7550, symBinAddr: 0x58934, symSize: 0x5C }
  - { offset: 0xCF65E, size: 0x8, addend: 0x0, symName: __RNvXs3_NtCsfvfooZQ3Axs_4core6optionINtB5_6OptionINtNtCse1nGBsou5OW_5alloc5boxed3BoxNtNtCs6IAuOt8vWmF_3syn8lifetime8LifetimeEENtNtB7_5clone5Clone5cloneB1n_, symObjAddr: 0x75AC, symBinAddr: 0x58990, symSize: 0x5C }
  - { offset: 0xCF6B3, size: 0x8, addend: 0x0, symName: __RNvXs3_NtCsfvfooZQ3Axs_4core6optionINtB5_6OptionNtCs3cP53eQoTwO_11proc_macro25IdentENtNtB7_5clone5Clone5cloneCs6IAuOt8vWmF_3syn, symObjAddr: 0x7608, symBinAddr: 0x589EC, symSize: 0x78 }
  - { offset: 0xCF708, size: 0x8, addend: 0x0, symName: __RNvXs3_NtCsfvfooZQ3Axs_4core6optionINtB5_6OptionNtNtCs6IAuOt8vWmF_3syn2ty12BareVariadicENtNtB7_5clone5Clone5cloneBO_, symObjAddr: 0x7680, symBinAddr: 0x58A64, symSize: 0x80 }
  - { offset: 0xCF75D, size: 0x8, addend: 0x0, symName: __RNvXs3_NtCsfvfooZQ3Axs_4core6optionINtB5_6OptionNtNtCs6IAuOt8vWmF_3syn2ty3AbiENtNtB7_5clone5Clone5cloneBO_, symObjAddr: 0x7700, symBinAddr: 0x58AE4, symSize: 0x6C }
  - { offset: 0xCF7B2, size: 0x8, addend: 0x0, symName: __RNvXs3_NtCsfvfooZQ3Axs_4core6optionINtB5_6OptionNtNtCs6IAuOt8vWmF_3syn2ty4TypeENtNtB7_5clone5Clone5cloneBO_, symObjAddr: 0x776C, symBinAddr: 0x58B50, symSize: 0x84 }
  - { offset: 0xCF807, size: 0x8, addend: 0x0, symName: __RNvXs3_NtCsfvfooZQ3Axs_4core6optionINtB5_6OptionNtNtCs6IAuOt8vWmF_3syn3lit6LitStrENtNtB7_5clone5Clone5cloneBO_, symObjAddr: 0x77F0, symBinAddr: 0x58BD4, symSize: 0x5C }
  - { offset: 0xCF85C, size: 0x8, addend: 0x0, symName: __RNvXs3_NtCsfvfooZQ3Axs_4core6optionINtB5_6OptionNtNtCs6IAuOt8vWmF_3syn3pat7PatRestENtNtB7_5clone5Clone5cloneBO_, symObjAddr: 0x784C, symBinAddr: 0x58C30, symSize: 0x7C }
  - { offset: 0xCF8B1, size: 0x8, addend: 0x0, symName: __RNvXs3_NtCsfvfooZQ3Axs_4core6optionINtB5_6OptionNtNtCs6IAuOt8vWmF_3syn4expr4ExprENtNtB7_5clone5Clone5cloneBO_, symObjAddr: 0x78C8, symBinAddr: 0x58CAC, symSize: 0x7C }
  - { offset: 0xCF906, size: 0x8, addend: 0x0, symName: __RNvXs3_NtCsfvfooZQ3Axs_4core6optionINtB5_6OptionNtNtCs6IAuOt8vWmF_3syn4expr5LabelENtNtB7_5clone5Clone5cloneBO_, symObjAddr: 0x7944, symBinAddr: 0x58D28, symSize: 0x7C }
  - { offset: 0xCF95B, size: 0x8, addend: 0x0, symName: __RNvXs3_NtCsfvfooZQ3Axs_4core6optionINtB5_6OptionNtNtCs6IAuOt8vWmF_3syn4item15ImplRestrictionENtNtB7_5clone5Clone5cloneBO_, symObjAddr: 0x79C0, symBinAddr: 0x58DA4, symSize: 0x18 }
  - { offset: 0xCF98E, size: 0x8, addend: 0x0, symName: __RNvXs3_NtCsfvfooZQ3Axs_4core6optionINtB5_6OptionNtNtCs6IAuOt8vWmF_3syn4item8VariadicENtNtB7_5clone5Clone5cloneBO_, symObjAddr: 0x79D8, symBinAddr: 0x58DBC, symSize: 0x80 }
  - { offset: 0xCF9E3, size: 0x8, addend: 0x0, symName: __RNvXs3_NtCsfvfooZQ3Axs_4core6optionINtB5_6OptionNtNtCs6IAuOt8vWmF_3syn4path30AngleBracketedGenericArgumentsENtNtB7_5clone5Clone5cloneBO_, symObjAddr: 0x7A58, symBinAddr: 0x58E3C, symSize: 0x80 }
  - { offset: 0xCFA38, size: 0x8, addend: 0x0, symName: __RNvXs3_NtCsfvfooZQ3Axs_4core6optionINtB5_6OptionNtNtCs6IAuOt8vWmF_3syn4path5QSelfENtNtB7_5clone5Clone5cloneBO_, symObjAddr: 0x7AD8, symBinAddr: 0x58EBC, symSize: 0x78 }
  - { offset: 0xCFA8D, size: 0x8, addend: 0x0, symName: __RNvXs3_NtCsfvfooZQ3Axs_4core6optionINtB5_6OptionNtNtCs6IAuOt8vWmF_3syn4stmt5BlockENtNtB7_5clone5Clone5cloneBO_, symObjAddr: 0x7B50, symBinAddr: 0x58F34, symSize: 0x80 }
  - { offset: 0xCFAE2, size: 0x8, addend: 0x0, symName: __RNvXs3_NtCsfvfooZQ3Axs_4core6optionINtB5_6OptionNtNtCs6IAuOt8vWmF_3syn4stmt9LocalInitENtNtB7_5clone5Clone5cloneBO_, symObjAddr: 0x7BD0, symBinAddr: 0x58FB4, symSize: 0x74 }
  - { offset: 0xCFB37, size: 0x8, addend: 0x0, symName: __RNvXs3_NtCsfvfooZQ3Axs_4core6optionINtB5_6OptionNtNtCs6IAuOt8vWmF_3syn5token2AsENtNtB7_5clone5Clone5cloneBO_, symObjAddr: 0x7C44, symBinAddr: 0x59028, symSize: 0x64 }
  - { offset: 0xCFB8C, size: 0x8, addend: 0x0, symName: __RNvXs3_NtCsfvfooZQ3Axs_4core6optionINtB5_6OptionNtNtCs6IAuOt8vWmF_3syn5token2EqENtNtB7_5clone5Clone5cloneBO_, symObjAddr: 0x7CA8, symBinAddr: 0x5908C, symSize: 0x70 }
  - { offset: 0xCFBE1, size: 0x8, addend: 0x0, symName: __RNvXs3_NtCsfvfooZQ3Axs_4core6optionINtB5_6OptionNtNtCs6IAuOt8vWmF_3syn5token2GtENtNtB7_5clone5Clone5cloneBO_, symObjAddr: 0x7D18, symBinAddr: 0x590FC, symSize: 0x70 }
  - { offset: 0xCFC36, size: 0x8, addend: 0x0, symName: __RNvXs3_NtCsfvfooZQ3Axs_4core6optionINtB5_6OptionNtNtCs6IAuOt8vWmF_3syn5token2InENtNtB7_5clone5Clone5cloneBO_, symObjAddr: 0x7D88, symBinAddr: 0x5916C, symSize: 0x64 }
  - { offset: 0xCFC8B, size: 0x8, addend: 0x0, symName: __RNvXs3_NtCsfvfooZQ3Axs_4core6optionINtB5_6OptionNtNtCs6IAuOt8vWmF_3syn5token2LtENtNtB7_5clone5Clone5cloneBO_, symObjAddr: 0x7DEC, symBinAddr: 0x591D0, symSize: 0x70 }
  - { offset: 0xCFCE0, size: 0x8, addend: 0x0, symName: __RNvXs3_NtCsfvfooZQ3Axs_4core6optionINtB5_6OptionNtNtCs6IAuOt8vWmF_3syn5token2OrENtNtB7_5clone5Clone5cloneBO_, symObjAddr: 0x7E5C, symBinAddr: 0x59240, symSize: 0x70 }
  - { offset: 0xCFD35, size: 0x8, addend: 0x0, symName: __RNvXs3_NtCsfvfooZQ3Axs_4core6optionINtB5_6OptionNtNtCs6IAuOt8vWmF_3syn5token3DynENtNtB7_5clone5Clone5cloneBO_, symObjAddr: 0x7ECC, symBinAddr: 0x592B0, symSize: 0x64 }
  - { offset: 0xCFD8A, size: 0x8, addend: 0x0, symName: __RNvXs3_NtCsfvfooZQ3Axs_4core6optionINtB5_6OptionNtNtCs6IAuOt8vWmF_3syn5token3MutENtNtB7_5clone5Clone5cloneBO_, symObjAddr: 0x7F30, symBinAddr: 0x59314, symSize: 0x64 }
  - { offset: 0xCFDDF, size: 0x8, addend: 0x0, symName: __RNvXs3_NtCsfvfooZQ3Axs_4core6optionINtB5_6OptionNtNtCs6IAuOt8vWmF_3syn5token3NotENtNtB7_5clone5Clone5cloneBO_, symObjAddr: 0x7F94, symBinAddr: 0x59378, symSize: 0x70 }
  - { offset: 0xCFE34, size: 0x8, addend: 0x0, symName: __RNvXs3_NtCsfvfooZQ3Axs_4core6optionINtB5_6OptionNtNtCs6IAuOt8vWmF_3syn5token3RefENtNtB7_5clone5Clone5cloneBO_, symObjAddr: 0x8004, symBinAddr: 0x593E8, symSize: 0x64 }
  - { offset: 0xCFE89, size: 0x8, addend: 0x0, symName: __RNvXs3_NtCsfvfooZQ3Axs_4core6optionINtB5_6OptionNtNtCs6IAuOt8vWmF_3syn5token4AutoENtNtB7_5clone5Clone5cloneBO_, symObjAddr: 0x8068, symBinAddr: 0x5944C, symSize: 0x64 }
  - { offset: 0xCFEDE, size: 0x8, addend: 0x0, symName: __RNvXs3_NtCsfvfooZQ3Axs_4core6optionINtB5_6OptionNtNtCs6IAuOt8vWmF_3syn5token4MoveENtNtB7_5clone5Clone5cloneBO_, symObjAddr: 0x80CC, symBinAddr: 0x594B0, symSize: 0x64 }
  - { offset: 0xCFF33, size: 0x8, addend: 0x0, symName: __RNvXs3_NtCsfvfooZQ3Axs_4core6optionINtB5_6OptionNtNtCs6IAuOt8vWmF_3syn5token4SemiENtNtB7_5clone5Clone5cloneBO_, symObjAddr: 0x8130, symBinAddr: 0x59514, symSize: 0x70 }
  - { offset: 0xCFF88, size: 0x8, addend: 0x0, symName: __RNvXs3_NtCsfvfooZQ3Axs_4core6optionINtB5_6OptionNtNtCs6IAuOt8vWmF_3syn5token5AsyncENtNtB7_5clone5Clone5cloneBO_, symObjAddr: 0x81A0, symBinAddr: 0x59584, symSize: 0x64 }
  - { offset: 0xCFFDD, size: 0x8, addend: 0x0, symName: __RNvXs3_NtCsfvfooZQ3Axs_4core6optionINtB5_6OptionNtNtCs6IAuOt8vWmF_3syn5token5ColonENtNtB7_5clone5Clone5cloneBO_, symObjAddr: 0x8204, symBinAddr: 0x595E8, symSize: 0x70 }
  - { offset: 0xD0032, size: 0x8, addend: 0x0, symName: __RNvXs3_NtCsfvfooZQ3Axs_4core6optionINtB5_6OptionNtNtCs6IAuOt8vWmF_3syn5token5CommaENtNtB7_5clone5Clone5cloneBO_, symObjAddr: 0x8274, symBinAddr: 0x59658, symSize: 0x70 }
  - { offset: 0xD0087, size: 0x8, addend: 0x0, symName: __RNvXs3_NtCsfvfooZQ3Axs_4core6optionINtB5_6OptionNtNtCs6IAuOt8vWmF_3syn5token5ConstENtNtB7_5clone5Clone5cloneBO_, symObjAddr: 0x82E4, symBinAddr: 0x596C8, symSize: 0x64 }
  - { offset: 0xD00DC, size: 0x8, addend: 0x0, symName: __RNvXs3_NtCsfvfooZQ3Axs_4core6optionINtB5_6OptionNtNtCs6IAuOt8vWmF_3syn5token5ParenENtNtB7_5clone5Clone5cloneBO_, symObjAddr: 0x8348, symBinAddr: 0x5972C, symSize: 0x78 }
  - { offset: 0xD0131, size: 0x8, addend: 0x0, symName: __RNvXs3_NtCsfvfooZQ3Axs_4core6optionINtB5_6OptionNtNtCs6IAuOt8vWmF_3syn5token6DotDotENtNtB7_5clone5Clone5cloneBO_, symObjAddr: 0x83C0, symBinAddr: 0x597A4, symSize: 0x78 }
  - { offset: 0xD0186, size: 0x8, addend: 0x0, symName: __RNvXs3_NtCsfvfooZQ3Axs_4core6optionINtB5_6OptionNtNtCs6IAuOt8vWmF_3syn5token6StaticENtNtB7_5clone5Clone5cloneBO_, symObjAddr: 0x8438, symBinAddr: 0x5981C, symSize: 0x64 }
  - { offset: 0xD01DB, size: 0x8, addend: 0x0, symName: __RNvXs3_NtCsfvfooZQ3Axs_4core6optionINtB5_6OptionNtNtCs6IAuOt8vWmF_3syn5token6UnsafeENtNtB7_5clone5Clone5cloneBO_, symObjAddr: 0x849C, symBinAddr: 0x59880, symSize: 0x64 }
  - { offset: 0xD0230, size: 0x8, addend: 0x0, symName: __RNvXs3_NtCsfvfooZQ3Axs_4core6optionINtB5_6OptionNtNtCs6IAuOt8vWmF_3syn5token7DefaultENtNtB7_5clone5Clone5cloneBO_, symObjAddr: 0x8500, symBinAddr: 0x598E4, symSize: 0x64 }
  - { offset: 0xD0285, size: 0x8, addend: 0x0, symName: __RNvXs3_NtCsfvfooZQ3Axs_4core6optionINtB5_6OptionNtNtCs6IAuOt8vWmF_3syn5token7PathSepENtNtB7_5clone5Clone5cloneBO_, symObjAddr: 0x8564, symBinAddr: 0x59948, symSize: 0x78 }
  - { offset: 0xD02DA, size: 0x8, addend: 0x0, symName: __RNvXs3_NtCsfvfooZQ3Axs_4core6optionINtB5_6OptionNtNtCs6IAuOt8vWmF_3syn8generics11WhereClauseENtNtB7_5clone5Clone5cloneBO_, symObjAddr: 0x85DC, symBinAddr: 0x599C0, symSize: 0x80 }
  - { offset: 0xD032F, size: 0x8, addend: 0x0, symName: __RNvXs3_NtCsfvfooZQ3Axs_4core6optionINtB5_6OptionNtNtCs6IAuOt8vWmF_3syn8generics14BoundLifetimesENtNtB7_5clone5Clone5cloneBO_, symObjAddr: 0x865C, symBinAddr: 0x59A40, symSize: 0x80 }
  - { offset: 0xD0384, size: 0x8, addend: 0x0, symName: __RNvXs3_NtCsfvfooZQ3Axs_4core6optionINtB5_6OptionNtNtCs6IAuOt8vWmF_3syn8lifetime8LifetimeENtNtB7_5clone5Clone5cloneBO_, symObjAddr: 0x86DC, symBinAddr: 0x59AC0, symSize: 0x78 }
  - { offset: 0xD03D9, size: 0x8, addend: 0x0, symName: __RNvXs3_NtCsfvfooZQ3Axs_4core6optionINtB5_6OptionTIBy_NtNtCs6IAuOt8vWmF_3syn5token3NotENtNtBT_4path4PathNtBR_3ForEENtNtB7_5clone5Clone5cloneBT_, symObjAddr: 0x87D0, symBinAddr: 0x59B38, symSize: 0x80 }
  - { offset: 0xD042E, size: 0x8, addend: 0x0, symName: __RNvXs3_NtCsfvfooZQ3Axs_4core6optionINtB5_6OptionTINtNtCse1nGBsou5OW_5alloc5boxed3BoxNtNtCs6IAuOt8vWmF_3syn3pat3PatENtNtB1o_5token5ColonEENtNtB7_5clone5Clone5cloneB1o_, symObjAddr: 0x8850, symBinAddr: 0x59BB8, symSize: 0x6C }
  - { offset: 0xD0483, size: 0x8, addend: 0x0, symName: __RNvXs3_NtCsfvfooZQ3Axs_4core6optionINtB5_6OptionTNtCs3cP53eQoTwO_11proc_macro25IdentNtNtCs6IAuOt8vWmF_3syn5token5ColonEENtNtB7_5clone5Clone5cloneB1o_, symObjAddr: 0x88BC, symBinAddr: 0x59C24, symSize: 0x78 }
  - { offset: 0xD04D8, size: 0x8, addend: 0x0, symName: __RNvXs3_NtCsfvfooZQ3Axs_4core6optionINtB5_6OptionTNtNtCs6IAuOt8vWmF_3syn5token2AsNtCs3cP53eQoTwO_11proc_macro25IdentEENtNtB7_5clone5Clone5cloneBP_, symObjAddr: 0x8934, symBinAddr: 0x59C9C, symSize: 0x78 }
  - { offset: 0xD052D, size: 0x8, addend: 0x0, symName: __RNvXs3_NtCsfvfooZQ3Axs_4core6optionINtB5_6OptionTNtNtCs6IAuOt8vWmF_3syn5token2AtINtNtCse1nGBsou5OW_5alloc5boxed3BoxNtNtBP_3pat3PatEEENtNtB7_5clone5Clone5cloneBP_, symObjAddr: 0x89AC, symBinAddr: 0x59D14, symSize: 0x6C }
  - { offset: 0xD0582, size: 0x8, addend: 0x0, symName: __RNvXs3_NtCsfvfooZQ3Axs_4core6optionINtB5_6OptionTNtNtCs6IAuOt8vWmF_3syn5token2EqNtNtBP_2ty4TypeEENtNtB7_5clone5Clone5cloneBP_, symObjAddr: 0x8A18, symBinAddr: 0x59D80, symSize: 0x84 }
  - { offset: 0xD05D7, size: 0x8, addend: 0x0, symName: __RNvXs3_NtCsfvfooZQ3Axs_4core6optionINtB5_6OptionTNtNtCs6IAuOt8vWmF_3syn5token2EqNtNtBP_4expr4ExprEENtNtB7_5clone5Clone5cloneBP_, symObjAddr: 0x8A9C, symBinAddr: 0x59E04, symSize: 0x7C }
  - { offset: 0xD062C, size: 0x8, addend: 0x0, symName: __RNvXs3_NtCsfvfooZQ3Axs_4core6optionINtB5_6OptionTNtNtCs6IAuOt8vWmF_3syn5token2IfINtNtCse1nGBsou5OW_5alloc5boxed3BoxNtNtBP_4expr4ExprEEENtNtB7_5clone5Clone5cloneBP_, symObjAddr: 0x8B18, symBinAddr: 0x59E80, symSize: 0x64 }
  - { offset: 0xD0681, size: 0x8, addend: 0x0, symName: __RNvXs3_NtCsfvfooZQ3Axs_4core6optionINtB5_6OptionTNtNtCs6IAuOt8vWmF_3syn5token3AndIBy_NtNtBP_8lifetime8LifetimeEEENtNtB7_5clone5Clone5cloneBP_, symObjAddr: 0x8B7C, symBinAddr: 0x59EE4, symSize: 0x7C }
  - { offset: 0xD06D6, size: 0x8, addend: 0x0, symName: __RNvXs3_NtCsfvfooZQ3Axs_4core6optionINtB5_6OptionTNtNtCs6IAuOt8vWmF_3syn5token4ElseINtNtCse1nGBsou5OW_5alloc5boxed3BoxNtNtBP_4expr4ExprEEENtNtB7_5clone5Clone5cloneBP_, symObjAddr: 0x8BF8, symBinAddr: 0x59F60, symSize: 0x64 }
  - { offset: 0xD072B, size: 0x8, addend: 0x0, symName: __RNvXs3_NtCsfvfooZQ3Axs_4core6optionINtB5_6OptionTNtNtCs6IAuOt8vWmF_3syn5token5BraceINtNtCse1nGBsou5OW_5alloc3vec3VecNtNtBP_4item4ItemEEENtNtB7_5clone5Clone5cloneBP_, symObjAddr: 0x8C5C, symBinAddr: 0x59FC4, symSize: 0x80 }
  - { offset: 0xD07F2, size: 0x8, addend: 0x0, symName: __RNvXs4_NtCsfvfooZQ3Axs_4core6optionINtB5_6OptionINtNtCse1nGBsou5OW_5alloc2rc2RcINtNtB7_4cell4CellNtNtCs6IAuOt8vWmF_3syn5parse10UnexpectedEEENtNtB7_7default7Default7defaultB1B_, symObjAddr: 0x8CDC, symBinAddr: 0x5A044, symSize: 0x14 }
  - { offset: 0xD0820, size: 0x8, addend: 0x0, symName: __RNvXs5_NtCsfvfooZQ3Axs_4core6optionINtB5_6OptionNtNtCs6IAuOt8vWmF_3syn4path11PathSegmentENtNtNtNtB7_4iter6traits7collect12IntoIterator9into_iterBO_, symObjAddr: 0x8D40, symBinAddr: 0x5A058, symSize: 0x48 }
  - { offset: 0xD0858, size: 0x8, addend: 0x0, symName: __RNvXs5_NtCsfvfooZQ3Axs_4core6optionINtB5_6OptionNtNtCs6IAuOt8vWmF_3syn8generics14TypeParamBoundENtNtNtNtB7_4iter6traits7collect12IntoIterator9into_iterBO_, symObjAddr: 0x8D88, symBinAddr: 0x5A0A0, symSize: 0x48 }
  - { offset: 0xD0890, size: 0x8, addend: 0x0, symName: __RNvXs5_NtCsfvfooZQ3Axs_4core6optionINtB5_6OptionQNtNtCs6IAuOt8vWmF_3syn4path11PathSegmentENtNtNtNtB7_4iter6traits7collect12IntoIterator9into_iterBP_, symObjAddr: 0x8DE4, symBinAddr: 0x5A0E8, symSize: 0x14 }
  - { offset: 0xD08C7, size: 0x8, addend: 0x0, symName: __RNvXs5_NtCsfvfooZQ3Axs_4core6optionINtB5_6OptionRNtNtCs6IAuOt8vWmF_3syn2ty4TypeENtNtNtNtB7_4iter6traits7collect12IntoIterator9into_iterBP_, symObjAddr: 0x8E0C, symBinAddr: 0x5A0FC, symSize: 0x14 }
  - { offset: 0xD08FE, size: 0x8, addend: 0x0, symName: __RNvXs5_NtCsfvfooZQ3Axs_4core6optionINtB5_6OptionRNtNtCs6IAuOt8vWmF_3syn2ty9BareFnArgENtNtNtNtB7_4iter6traits7collect12IntoIterator9into_iterBP_, symObjAddr: 0x8E20, symBinAddr: 0x5A110, symSize: 0x14 }
  - { offset: 0xD0935, size: 0x8, addend: 0x0, symName: __RNvXs5_NtCsfvfooZQ3Axs_4core6optionINtB5_6OptionRNtNtCs6IAuOt8vWmF_3syn3pat3PatENtNtNtNtB7_4iter6traits7collect12IntoIterator9into_iterBP_, symObjAddr: 0x8E34, symBinAddr: 0x5A124, symSize: 0x14 }
  - { offset: 0xD096C, size: 0x8, addend: 0x0, symName: __RNvXs5_NtCsfvfooZQ3Axs_4core6optionINtB5_6OptionRNtNtCs6IAuOt8vWmF_3syn3pat8FieldPatENtNtNtNtB7_4iter6traits7collect12IntoIterator9into_iterBP_, symObjAddr: 0x8E48, symBinAddr: 0x5A138, symSize: 0x14 }
  - { offset: 0xD09A3, size: 0x8, addend: 0x0, symName: __RNvXs5_NtCsfvfooZQ3Axs_4core6optionINtB5_6OptionRNtNtCs6IAuOt8vWmF_3syn4data5FieldENtNtNtNtB7_4iter6traits7collect12IntoIterator9into_iterBP_, symObjAddr: 0x8E5C, symBinAddr: 0x5A14C, symSize: 0x14 }
  - { offset: 0xD09DA, size: 0x8, addend: 0x0, symName: __RNvXs5_NtCsfvfooZQ3Axs_4core6optionINtB5_6OptionRNtNtCs6IAuOt8vWmF_3syn4data7VariantENtNtNtNtB7_4iter6traits7collect12IntoIterator9into_iterBP_, symObjAddr: 0x8E70, symBinAddr: 0x5A160, symSize: 0x14 }
  - { offset: 0xD0A11, size: 0x8, addend: 0x0, symName: __RNvXs5_NtCsfvfooZQ3Axs_4core6optionINtB5_6OptionRNtNtCs6IAuOt8vWmF_3syn4expr10FieldValueENtNtNtNtB7_4iter6traits7collect12IntoIterator9into_iterBP_, symObjAddr: 0x8E84, symBinAddr: 0x5A174, symSize: 0x14 }
  - { offset: 0xD0A48, size: 0x8, addend: 0x0, symName: __RNvXs5_NtCsfvfooZQ3Axs_4core6optionINtB5_6OptionRNtNtCs6IAuOt8vWmF_3syn4expr4ExprENtNtNtNtB7_4iter6traits7collect12IntoIterator9into_iterBP_, symObjAddr: 0x8E98, symBinAddr: 0x5A188, symSize: 0x14 }
  - { offset: 0xD0A7F, size: 0x8, addend: 0x0, symName: __RNvXs5_NtCsfvfooZQ3Axs_4core6optionINtB5_6OptionRNtNtCs6IAuOt8vWmF_3syn4item5FnArgENtNtNtNtB7_4iter6traits7collect12IntoIterator9into_iterBP_, symObjAddr: 0x8EAC, symBinAddr: 0x5A19C, symSize: 0x14 }
  - { offset: 0xD0AB6, size: 0x8, addend: 0x0, symName: __RNvXs5_NtCsfvfooZQ3Axs_4core6optionINtB5_6OptionRNtNtCs6IAuOt8vWmF_3syn4item7UseTreeENtNtNtNtB7_4iter6traits7collect12IntoIterator9into_iterBP_, symObjAddr: 0x8EC0, symBinAddr: 0x5A1B0, symSize: 0x14 }
  - { offset: 0xD0AED, size: 0x8, addend: 0x0, symName: __RNvXs5_NtCsfvfooZQ3Axs_4core6optionINtB5_6OptionRNtNtCs6IAuOt8vWmF_3syn4path11PathSegmentENtNtNtNtB7_4iter6traits7collect12IntoIterator9into_iterBP_, symObjAddr: 0x8ED4, symBinAddr: 0x5A1C4, symSize: 0x14 }
  - { offset: 0xD0B24, size: 0x8, addend: 0x0, symName: __RNvXs5_NtCsfvfooZQ3Axs_4core6optionINtB5_6OptionRNtNtCs6IAuOt8vWmF_3syn4path15GenericArgumentENtNtNtNtB7_4iter6traits7collect12IntoIterator9into_iterBP_, symObjAddr: 0x8EE8, symBinAddr: 0x5A1D8, symSize: 0x14 }
  - { offset: 0xD0B5B, size: 0x8, addend: 0x0, symName: __RNvXs5_NtCsfvfooZQ3Axs_4core6optionINtB5_6OptionRNtNtCs6IAuOt8vWmF_3syn8generics12GenericParamENtNtNtNtB7_4iter6traits7collect12IntoIterator9into_iterBP_, symObjAddr: 0x8EFC, symBinAddr: 0x5A1EC, symSize: 0x14 }
  - { offset: 0xD0B92, size: 0x8, addend: 0x0, symName: __RNvXs5_NtCsfvfooZQ3Axs_4core6optionINtB5_6OptionRNtNtCs6IAuOt8vWmF_3syn8generics13CapturedParamENtNtNtNtB7_4iter6traits7collect12IntoIterator9into_iterBP_, symObjAddr: 0x8F10, symBinAddr: 0x5A200, symSize: 0x14 }
  - { offset: 0xD0BC9, size: 0x8, addend: 0x0, symName: __RNvXs5_NtCsfvfooZQ3Axs_4core6optionINtB5_6OptionRNtNtCs6IAuOt8vWmF_3syn8generics14TypeParamBoundENtNtNtNtB7_4iter6traits7collect12IntoIterator9into_iterBP_, symObjAddr: 0x8F24, symBinAddr: 0x5A214, symSize: 0x14 }
  - { offset: 0xD0C00, size: 0x8, addend: 0x0, symName: __RNvXs5_NtCsfvfooZQ3Axs_4core6optionINtB5_6OptionRNtNtCs6IAuOt8vWmF_3syn8generics14WherePredicateENtNtNtNtB7_4iter6traits7collect12IntoIterator9into_iterBP_, symObjAddr: 0x8F38, symBinAddr: 0x5A228, symSize: 0x14 }
  - { offset: 0xD0C37, size: 0x8, addend: 0x0, symName: __RNvXs5_NtCsfvfooZQ3Axs_4core6optionINtB5_6OptionRNtNtCs6IAuOt8vWmF_3syn8lifetime8LifetimeENtNtNtNtB7_4iter6traits7collect12IntoIterator9into_iterBP_, symObjAddr: 0x8F4C, symBinAddr: 0x5A23C, symSize: 0x14 }
  - { offset: 0xD0C74, size: 0x8, addend: 0x0, symName: __RNvXsB_NtCsfvfooZQ3Axs_4core6optionINtB5_6OptionRhENtNtNtB7_3ops9try_trait3Try6branchCs6IAuOt8vWmF_3syn, symObjAddr: 0x918C, symBinAddr: 0x5A250, symSize: 0x40 }
  - { offset: 0xD0CC9, size: 0x8, addend: 0x0, symName: __RNvXsB_NtCsfvfooZQ3Axs_4core6optionINtB5_6OptionTINtNtCse1nGBsou5OW_5alloc5boxed3BoxeEBL_EENtNtNtB7_3ops9try_trait3Try6branchCs6IAuOt8vWmF_3syn, symObjAddr: 0x91CC, symBinAddr: 0x5A290, symSize: 0x60 }
  - { offset: 0xD0D1F, size: 0x8, addend: 0x0, symName: __RNvXsB_NtCsfvfooZQ3Axs_4core6optionINtB5_6OptionTNtCs3cP53eQoTwO_11proc_macro25IdentNtNtCs6IAuOt8vWmF_3syn6buffer6CursorEENtNtNtB7_3ops9try_trait3Try6branchB1o_, symObjAddr: 0x922C, symBinAddr: 0x5A2F0, symSize: 0x74 }
  - { offset: 0xD0D75, size: 0x8, addend: 0x0, symName: __RNvXsB_NtCsfvfooZQ3Axs_4core6optionINtB5_6OptionTNtCs3cP53eQoTwO_11proc_macro27LiteralNtNtCs6IAuOt8vWmF_3syn6buffer6CursorEENtNtNtB7_3ops9try_trait3Try6branchB1q_, symObjAddr: 0x92A0, symBinAddr: 0x5A364, symSize: 0x78 }
  - { offset: 0xD0DCB, size: 0x8, addend: 0x0, symName: __RNvXsB_NtCsfvfooZQ3Axs_4core6optionINtB5_6OptionjENtNtNtB7_3ops9try_trait3Try11from_outputCs6IAuOt8vWmF_3syn, symObjAddr: 0x9318, symBinAddr: 0x5A3DC, symSize: 0x24 }
  - { offset: 0xD0E02, size: 0x8, addend: 0x0, symName: __RNvXsB_NtCsfvfooZQ3Axs_4core6optionINtB5_6OptionjENtNtNtB7_3ops9try_trait3Try6branchCs6IAuOt8vWmF_3syn, symObjAddr: 0x933C, symBinAddr: 0x5A400, symSize: 0x48 }
  - { offset: 0xD0E5D, size: 0x8, addend: 0x0, symName: __RNvXsC_NtCsfvfooZQ3Axs_4core6optionINtB5_6OptionTINtNtCse1nGBsou5OW_5alloc5boxed3BoxeEBL_EEINtNtNtB7_3ops9try_trait12FromResidualIBy_NtNtB7_7convert10InfallibleEE13from_residualCs6IAuOt8vWmF_3syn, symObjAddr: 0x9454, symBinAddr: 0x5A448, symSize: 0x10 }
  - { offset: 0xD0E90, size: 0x8, addend: 0x0, symName: __RNvXsC_NtCsfvfooZQ3Axs_4core6optionINtB5_6OptionTNtNtCs6IAuOt8vWmF_3syn3lit3LitNtNtBP_6buffer6CursorEEINtNtNtB7_3ops9try_trait12FromResidualIBy_NtNtB7_7convert10InfallibleEE13from_residualBP_, symObjAddr: 0x9464, symBinAddr: 0x5A458, symSize: 0x1C }
  - { offset: 0xD0EC3, size: 0x8, addend: 0x0, symName: __RNvXsC_NtCsfvfooZQ3Axs_4core6optionINtB5_6OptionTNtNtCs6IAuOt8vWmF_3syn8lifetime8LifetimeNtNtBP_6buffer6CursorEEINtNtNtB7_3ops9try_trait12FromResidualIBy_NtNtB7_7convert10InfallibleEE13from_residualBP_, symObjAddr: 0x9480, symBinAddr: 0x5A474, symSize: 0x18 }
  - { offset: 0xD0EF6, size: 0x8, addend: 0x0, symName: __RNvXsC_NtCsfvfooZQ3Axs_4core6optionINtB5_6OptionjEINtNtNtB7_3ops9try_trait12FromResidualIBy_NtNtB7_7convert10InfallibleEE13from_residualCs6IAuOt8vWmF_3syn, symObjAddr: 0x9498, symBinAddr: 0x5A48C, symSize: 0x18 }
  - { offset: 0xD0F83, size: 0x8, addend: 0x0, symName: __RNvXsO_NtCsfvfooZQ3Axs_4core6optionINtB5_8IntoIterRNtNtCs6IAuOt8vWmF_3syn4path11PathSegmentENtNtB7_5clone5Clone5cloneBR_, symObjAddr: 0xB590, symBinAddr: 0x5A4EC, symSize: 0x68 }
  - { offset: 0xD102A, size: 0x8, addend: 0x0, symName: __RNvXsO_NtCsfvfooZQ3Axs_4core6optionINtB5_8IntoIterRNtNtCs6IAuOt8vWmF_3syn8generics14TypeParamBoundENtNtB7_5clone5Clone5cloneBR_, symObjAddr: 0xB660, symBinAddr: 0x5A554, symSize: 0x68 }
  - { offset: 0xD1458, size: 0x8, addend: 0x0, symName: __RNvXsv_NtCsfvfooZQ3Axs_4core6optionINtB5_8IntoIterNtNtCs6IAuOt8vWmF_3syn4path11PathSegmentENtNtNtNtB7_4iter6traits8iterator8Iterator4nextBQ_, symObjAddr: 0xE660, symBinAddr: 0x5A724, symSize: 0x64 }
  - { offset: 0xD14FB, size: 0x8, addend: 0x0, symName: __RNvXsv_NtCsfvfooZQ3Axs_4core6optionINtB5_8IntoIterNtNtCs6IAuOt8vWmF_3syn8generics14TypeParamBoundENtNtNtNtB7_4iter6traits8iterator8Iterator4nextBQ_, symObjAddr: 0xE6C4, symBinAddr: 0x5A788, symSize: 0x60 }
  - { offset: 0xD159E, size: 0x8, addend: 0x0, symName: __RNvXsv_NtCsfvfooZQ3Axs_4core6optionINtB5_8IntoIterNtNtCs6IAuOt8vWmF_3syn8generics14TypeParamBoundENtNtNtNtB7_4iter6traits8iterator8Iterator9size_hintBQ_, symObjAddr: 0xE724, symBinAddr: 0x5A7E8, symSize: 0x48 }
  - { offset: 0xD1616, size: 0x8, addend: 0x0, symName: __RNvXsv_NtCsfvfooZQ3Axs_4core6optionINtB5_8IntoIterQNtNtCs6IAuOt8vWmF_3syn4path11PathSegmentENtNtNtNtB7_4iter6traits8iterator8Iterator4nextBR_, symObjAddr: 0xE7D8, symBinAddr: 0x5A830, symSize: 0x28 }
  - { offset: 0xD16B9, size: 0x8, addend: 0x0, symName: __RNvXsv_NtCsfvfooZQ3Axs_4core6optionINtB5_8IntoIterQNtNtCs6IAuOt8vWmF_3syn4path11PathSegmentENtNtNtNtB7_4iter6traits8iterator8Iterator9size_hintBR_, symObjAddr: 0xE800, symBinAddr: 0x5A858, symSize: 0x44 }
  - { offset: 0xD1731, size: 0x8, addend: 0x0, symName: __RNvXsv_NtCsfvfooZQ3Axs_4core6optionINtB5_8IntoIterRNtNtCs6IAuOt8vWmF_3syn2ty4TypeENtNtNtNtB7_4iter6traits8iterator8Iterator4nextBR_, symObjAddr: 0xE8B0, symBinAddr: 0x5A89C, symSize: 0x28 }
  - { offset: 0xD17D4, size: 0x8, addend: 0x0, symName: __RNvXsv_NtCsfvfooZQ3Axs_4core6optionINtB5_8IntoIterRNtNtCs6IAuOt8vWmF_3syn2ty9BareFnArgENtNtNtNtB7_4iter6traits8iterator8Iterator4nextBR_, symObjAddr: 0xE8D8, symBinAddr: 0x5A8C4, symSize: 0x28 }
  - { offset: 0xD1877, size: 0x8, addend: 0x0, symName: __RNvXsv_NtCsfvfooZQ3Axs_4core6optionINtB5_8IntoIterRNtNtCs6IAuOt8vWmF_3syn3pat3PatENtNtNtNtB7_4iter6traits8iterator8Iterator4nextBR_, symObjAddr: 0xE900, symBinAddr: 0x5A8EC, symSize: 0x28 }
  - { offset: 0xD191A, size: 0x8, addend: 0x0, symName: __RNvXsv_NtCsfvfooZQ3Axs_4core6optionINtB5_8IntoIterRNtNtCs6IAuOt8vWmF_3syn3pat8FieldPatENtNtNtNtB7_4iter6traits8iterator8Iterator4nextBR_, symObjAddr: 0xE928, symBinAddr: 0x5A914, symSize: 0x28 }
  - { offset: 0xD19BD, size: 0x8, addend: 0x0, symName: __RNvXsv_NtCsfvfooZQ3Axs_4core6optionINtB5_8IntoIterRNtNtCs6IAuOt8vWmF_3syn4data5FieldENtNtNtNtB7_4iter6traits8iterator8Iterator4nextBR_, symObjAddr: 0xE950, symBinAddr: 0x5A93C, symSize: 0x28 }
  - { offset: 0xD1A60, size: 0x8, addend: 0x0, symName: __RNvXsv_NtCsfvfooZQ3Axs_4core6optionINtB5_8IntoIterRNtNtCs6IAuOt8vWmF_3syn4data7VariantENtNtNtNtB7_4iter6traits8iterator8Iterator4nextBR_, symObjAddr: 0xE9BC, symBinAddr: 0x5A964, symSize: 0x28 }
  - { offset: 0xD1B03, size: 0x8, addend: 0x0, symName: __RNvXsv_NtCsfvfooZQ3Axs_4core6optionINtB5_8IntoIterRNtNtCs6IAuOt8vWmF_3syn4expr10FieldValueENtNtNtNtB7_4iter6traits8iterator8Iterator4nextBR_, symObjAddr: 0xE9E4, symBinAddr: 0x5A98C, symSize: 0x28 }
  - { offset: 0xD1BA6, size: 0x8, addend: 0x0, symName: __RNvXsv_NtCsfvfooZQ3Axs_4core6optionINtB5_8IntoIterRNtNtCs6IAuOt8vWmF_3syn4expr4ExprENtNtNtNtB7_4iter6traits8iterator8Iterator4nextBR_, symObjAddr: 0xEA0C, symBinAddr: 0x5A9B4, symSize: 0x28 }
  - { offset: 0xD1C49, size: 0x8, addend: 0x0, symName: __RNvXsv_NtCsfvfooZQ3Axs_4core6optionINtB5_8IntoIterRNtNtCs6IAuOt8vWmF_3syn4item5FnArgENtNtNtNtB7_4iter6traits8iterator8Iterator4nextBR_, symObjAddr: 0xEA34, symBinAddr: 0x5A9DC, symSize: 0x28 }
  - { offset: 0xD1CEC, size: 0x8, addend: 0x0, symName: __RNvXsv_NtCsfvfooZQ3Axs_4core6optionINtB5_8IntoIterRNtNtCs6IAuOt8vWmF_3syn4item7UseTreeENtNtNtNtB7_4iter6traits8iterator8Iterator4nextBR_, symObjAddr: 0xEAA0, symBinAddr: 0x5AA04, symSize: 0x28 }
  - { offset: 0xD1D8F, size: 0x8, addend: 0x0, symName: __RNvXsv_NtCsfvfooZQ3Axs_4core6optionINtB5_8IntoIterRNtNtCs6IAuOt8vWmF_3syn4path11PathSegmentENtNtNtNtB7_4iter6traits8iterator8Iterator4nextBR_, symObjAddr: 0xEAC8, symBinAddr: 0x5AA2C, symSize: 0x28 }
  - { offset: 0xD1E32, size: 0x8, addend: 0x0, symName: __RNvXsv_NtCsfvfooZQ3Axs_4core6optionINtB5_8IntoIterRNtNtCs6IAuOt8vWmF_3syn4path11PathSegmentENtNtNtNtB7_4iter6traits8iterator8Iterator9size_hintBR_, symObjAddr: 0xEAF0, symBinAddr: 0x5AA54, symSize: 0x44 }
  - { offset: 0xD1EAA, size: 0x8, addend: 0x0, symName: __RNvXsv_NtCsfvfooZQ3Axs_4core6optionINtB5_8IntoIterRNtNtCs6IAuOt8vWmF_3syn4path15GenericArgumentENtNtNtNtB7_4iter6traits8iterator8Iterator4nextBR_, symObjAddr: 0xEB34, symBinAddr: 0x5AA98, symSize: 0x28 }
  - { offset: 0xD1F4D, size: 0x8, addend: 0x0, symName: __RNvXsv_NtCsfvfooZQ3Axs_4core6optionINtB5_8IntoIterRNtNtCs6IAuOt8vWmF_3syn8generics12GenericParamENtNtNtNtB7_4iter6traits8iterator8Iterator4nextBR_, symObjAddr: 0xEB5C, symBinAddr: 0x5AAC0, symSize: 0x28 }
  - { offset: 0xD1FF0, size: 0x8, addend: 0x0, symName: __RNvXsv_NtCsfvfooZQ3Axs_4core6optionINtB5_8IntoIterRNtNtCs6IAuOt8vWmF_3syn8generics13CapturedParamENtNtNtNtB7_4iter6traits8iterator8Iterator4nextBR_, symObjAddr: 0xEBC8, symBinAddr: 0x5AAE8, symSize: 0x28 }
  - { offset: 0xD2093, size: 0x8, addend: 0x0, symName: __RNvXsv_NtCsfvfooZQ3Axs_4core6optionINtB5_8IntoIterRNtNtCs6IAuOt8vWmF_3syn8generics14TypeParamBoundENtNtNtNtB7_4iter6traits8iterator8Iterator4nextBR_, symObjAddr: 0xEBF0, symBinAddr: 0x5AB10, symSize: 0x28 }
  - { offset: 0xD2136, size: 0x8, addend: 0x0, symName: __RNvXsv_NtCsfvfooZQ3Axs_4core6optionINtB5_8IntoIterRNtNtCs6IAuOt8vWmF_3syn8generics14TypeParamBoundENtNtNtNtB7_4iter6traits8iterator8Iterator9size_hintBR_, symObjAddr: 0xEC18, symBinAddr: 0x5AB38, symSize: 0x44 }
  - { offset: 0xD21AE, size: 0x8, addend: 0x0, symName: __RNvXsv_NtCsfvfooZQ3Axs_4core6optionINtB5_8IntoIterRNtNtCs6IAuOt8vWmF_3syn8generics14WherePredicateENtNtNtNtB7_4iter6traits8iterator8Iterator4nextBR_, symObjAddr: 0xEC5C, symBinAddr: 0x5AB7C, symSize: 0x28 }
  - { offset: 0xD2251, size: 0x8, addend: 0x0, symName: __RNvXsv_NtCsfvfooZQ3Axs_4core6optionINtB5_8IntoIterRNtNtCs6IAuOt8vWmF_3syn8lifetime8LifetimeENtNtNtNtB7_4iter6traits8iterator8Iterator4nextBR_, symObjAddr: 0xEC84, symBinAddr: 0x5ABA4, symSize: 0x28 }
  - { offset: 0xD34AC, size: 0x8, addend: 0x0, symName: __RNvNvMNtNtCsfvfooZQ3Axs_4core3ptr9const_ptrPp6offset18precondition_checkCs6IAuOt8vWmF_3syn, symObjAddr: 0x5F10, symBinAddr: 0x574C0, symSize: 0xA0 }
  - { offset: 0xD366E, size: 0x8, addend: 0x0, symName: __RNvNvMNtNtCsfvfooZQ3Axs_4core3ptr9const_ptrPp7sub_ptr18precondition_checkCs6IAuOt8vWmF_3syn, symObjAddr: 0x5FB0, symBinAddr: 0x57560, symSize: 0x40 }
  - { offset: 0xD3E5F, size: 0x8, addend: 0x0, symName: __RNvXsr_NtCsfvfooZQ3Axs_4core3fmtShNtB5_5Debug3fmtCs6IAuOt8vWmF_3syn, symObjAddr: 0xE52C, symBinAddr: 0x5A69C, symSize: 0x88 }
  - { offset: 0xD5522, size: 0x8, addend: 0x0, symName: __RINvYINtNtCsfvfooZQ3Axs_4core6option8IntoIterNtNtCs6IAuOt8vWmF_3syn8generics14TypeParamBoundENtNtNtNtB8_4iter6traits8iterator8Iterator4folduNCINvNvB1t_8for_each4callBH_NCINvMsi_NtCse1nGBsou5OW_5alloc3vecINtB2P_3VecBH_E14extend_trustedB3_E0E0EBL_, symObjAddr: 0x3F98, symBinAddr: 0x558C8, symSize: 0x148 }
  - { offset: 0xD55B4, size: 0x8, addend: 0x0, symName: __RINvYINtNtCsfvfooZQ3Axs_4core6option8IntoIterNtNtCs6IAuOt8vWmF_3syn8generics14TypeParamBoundENtNtNtNtB8_4iter6traits8iterator8Iterator8for_eachNCINvMsi_NtCse1nGBsou5OW_5alloc3vecINtB2q_3VecBH_E14extend_trustedB3_E0EBL_, symObjAddr: 0x40E0, symBinAddr: 0x55A10, symSize: 0x34 }
  - { offset: 0xD5620, size: 0x8, addend: 0x0, symName: __RINvYNtNtNtCsfvfooZQ3Axs_4core3ops11index_range10IndexRangeNtNtNtNtB9_4iter6traits8iterator8Iterator8try_folduNCINvMNtB7_9try_traitINtB1Q_17NeverShortCircuituE10wrap_mut_2ujNCINvXs0_NtNtB9_5array4iterINtB2U_8IntoIterNtCs3cP53eQoTwO_11proc_macro29TokenTreeKj1_EBV_4folduNCINvNtNtB11_8adapters3map8map_foldB3s_NtCs9i5KxIbZ5ph_10proc_macro9TokenTreeuNvNtB3u_3imp19into_compiler_tokenNCINvNvBV_8for_each4callB4W_NCINvXsg_B4Y_NtB4Y_11TokenStreamINtNtBZ_7collect12FromIteratorB4W_E9from_iterINtB4o_3MapB3c_B5z_EE0E0E0E0E0B25_ECs6IAuOt8vWmF_3syn, symObjAddr: 0x4114, symBinAddr: 0x55A44, symSize: 0xF8 }
  - { offset: 0xD56B8, size: 0x8, addend: 0x0, symName: __RINvYNtNtNtCsfvfooZQ3Axs_4core3ops11index_range10IndexRangeNtNtNtNtB9_4iter6traits8iterator8Iterator8try_folduNCINvMNtB7_9try_traitINtB1Q_17NeverShortCircuituE10wrap_mut_2ujNCINvXs0_NtNtB9_5array4iterINtB2U_8IntoIterNtCs3cP53eQoTwO_11proc_macro29TokenTreeKj1_EBV_4folduNCINvNvBV_8for_each4callB3s_NCINvXsa_NtB3u_8fallbackNtB4U_11TokenStreamINtNtBZ_7collect6ExtendB3s_E6extendB3c_E0E0E0E0B25_ECs6IAuOt8vWmF_3syn, symObjAddr: 0x420C, symBinAddr: 0x55B3C, symSize: 0xF8 }
  - { offset: 0xD5750, size: 0x8, addend: 0x0, symName: __RINvYNtNtNtCsfvfooZQ3Axs_4core3ops11index_range10IndexRangeNtNtNtNtB9_4iter6traits8iterator8Iterator8try_folduNCINvMNtB7_9try_traitINtB1Q_17NeverShortCircuituE10wrap_mut_2ujNCINvXs0_NtNtB9_5array4iterINtB2U_8IntoIterNtCs3cP53eQoTwO_11proc_macro29TokenTreeKj8_EBV_4folduNCINvNtNtB11_8adapters3map8map_foldB3s_NtCs9i5KxIbZ5ph_10proc_macro9TokenTreeuNvNtB3u_3imp19into_compiler_tokenNCINvNvBV_8for_each4callB4W_NCINvXsg_B4Y_NtB4Y_11TokenStreamINtNtBZ_7collect12FromIteratorB4W_E9from_iterINtB4o_3MapB3c_B5z_EE0E0E0E0E0B25_ECs6IAuOt8vWmF_3syn, symObjAddr: 0x4304, symBinAddr: 0x55C34, symSize: 0xF8 }
  - { offset: 0xD57E8, size: 0x8, addend: 0x0, symName: __RINvYNtNtNtCsfvfooZQ3Axs_4core3ops11index_range10IndexRangeNtNtNtNtB9_4iter6traits8iterator8Iterator8try_folduNCINvMNtB7_9try_traitINtB1Q_17NeverShortCircuituE10wrap_mut_2ujNCINvXs0_NtNtB9_5array4iterINtB2U_8IntoIterNtCs3cP53eQoTwO_11proc_macro29TokenTreeKj8_EBV_4folduNCINvNvBV_8for_each4callB3s_NCINvXsa_NtB3u_8fallbackNtB4U_11TokenStreamINtNtBZ_7collect6ExtendB3s_E6extendB3c_E0E0E0E0B25_ECs6IAuOt8vWmF_3syn, symObjAddr: 0x43FC, symBinAddr: 0x55D2C, symSize: 0xF8 }
  - { offset: 0xD588C, size: 0x8, addend: 0x0, symName: __RNvXNtNtNtCsfvfooZQ3Axs_4core4iter6traits7collectINtNtNtB6_8adapters3rev3RevINtNtNtB8_5slice4iter4IterhEENtB2_12IntoIterator9into_iterCs6IAuOt8vWmF_3syn, symObjAddr: 0x5FF0, symBinAddr: 0x575A0, symSize: 0x1C }
  - { offset: 0xD58FA, size: 0x8, addend: 0x0, symName: __RNvYINtNtCsfvfooZQ3Axs_4core6option8IntoIterQNtNtCs6IAuOt8vWmF_3syn4path11PathSegmentENtNtNtNtB7_4iter6traits10exact_size17ExactSizeIterator3lenBL_, symObjAddr: 0xEDC4, symBinAddr: 0x5ABF0, symSize: 0xF4 }
  - { offset: 0xD59ED, size: 0x8, addend: 0x0, symName: __RNvYINtNtCsfvfooZQ3Axs_4core6option8IntoIterRNtNtCs6IAuOt8vWmF_3syn4path11PathSegmentENtNtNtNtB7_4iter6traits10exact_size17ExactSizeIterator3lenBL_, symObjAddr: 0xF194, symBinAddr: 0x5ACE4, symSize: 0xF4 }
  - { offset: 0xD5AE0, size: 0x8, addend: 0x0, symName: __RNvYINtNtCsfvfooZQ3Axs_4core6option8IntoIterRNtNtCs6IAuOt8vWmF_3syn8generics14TypeParamBoundENtNtNtNtB7_4iter6traits10exact_size17ExactSizeIterator3lenBL_, symObjAddr: 0xF37C, symBinAddr: 0x5ADD8, symSize: 0xF4 }
  - { offset: 0xD5BE5, size: 0x8, addend: 0x0, symName: __RNvXs_NtNtNtCsfvfooZQ3Axs_4core4iter8adapters3revINtB4_3RevINtNtNtBa_5slice4iter4IterhEENtNtNtB8_6traits8iterator8Iterator4nextCs6IAuOt8vWmF_3syn, symObjAddr: 0xB784, symBinAddr: 0x5A678, symSize: 0x24 }
  - { offset: 0xD631E, size: 0x8, addend: 0x0, symName: __RNvXs_NtNtCsfvfooZQ3Axs_4core3ops11index_rangeNtB4_10IndexRangeNtNtNtNtB8_4iter6traits8iterator8Iterator4nextCs6IAuOt8vWmF_3syn, symObjAddr: 0xB6C8, symBinAddr: 0x5A5BC, symSize: 0xBC }
  - { offset: 0xD89B9, size: 0x8, addend: 0x0, symName: __RNvXsl_NtNtCs6IAuOt8vWmF_3syn2ty7parsingINtNtCsfvfooZQ3Axs_4core6option6OptionNtB7_3AbiENtNtB9_5parse5Parse5parse, symObjAddr: 0x115DC, symBinAddr: 0x5D038, symSize: 0x98 }
  - { offset: 0xD9A2D, size: 0x8, addend: 0x0, symName: __RNvXso_NtNtCs6IAuOt8vWmF_3syn4expr7parsingINtNtCsfvfooZQ3Axs_4core6option6OptionNtB7_5LabelENtNtB9_5parse5Parse5parse, symObjAddr: 0xF4AC, symBinAddr: 0x5AF08, symSize: 0xA4 }
  - { offset: 0xD9BD3, size: 0x8, addend: 0x0, symName: __RNCNvXNtNtCs6IAuOt8vWmF_3syn4attr8printingNtB6_9AttributeNtNtCs2cqEZUIJimJ_5quote9to_tokens8ToTokens9to_tokens0B8_, symObjAddr: 0xF470, symBinAddr: 0x5AECC, symSize: 0x3C }
  - { offset: 0xDB9AE, size: 0x8, addend: 0x0, symName: __RNCNvXs_NtNtCs6IAuOt8vWmF_3syn11restriction8printingNtB8_13VisRestrictedNtNtCs2cqEZUIJimJ_5quote9to_tokens8ToTokens9to_tokens0Ba_, symObjAddr: 0x1155C, symBinAddr: 0x5CFB8, symSize: 0x80 }
  - { offset: 0xDBEAC, size: 0x8, addend: 0x0, symName: __RNvXs2_NtNtCs6IAuOt8vWmF_3syn8generics7parsingINtNtCsfvfooZQ3Axs_4core6option6OptionNtB7_14BoundLifetimesENtNtB9_5parse5Parse5parse, symObjAddr: 0xF550, symBinAddr: 0x5AFAC, symSize: 0x98 }
  - { offset: 0xDBEE0, size: 0x8, addend: 0x0, symName: __RNvXsb_NtNtCs6IAuOt8vWmF_3syn8generics7parsingINtNtCsfvfooZQ3Axs_4core6option6OptionNtB7_11WhereClauseENtNtB9_5parse5Parse5parse, symObjAddr: 0xF5E8, symBinAddr: 0x5B044, symSize: 0x98 }
  - { offset: 0xDC6BD, size: 0x8, addend: 0x0, symName: __RNvXsb_NtCs6IAuOt8vWmF_3syn5parseINtNtCsfvfooZQ3Axs_4core6option6OptionNtCs3cP53eQoTwO_11proc_macro25IdentENtB5_5Parse5parseB7_, symObjAddr: 0xF680, symBinAddr: 0x5B0DC, symSize: 0x12C }
  - { offset: 0xDC713, size: 0x8, addend: 0x0, symName: __RNvXsb_NtCs6IAuOt8vWmF_3syn5parseINtNtCsfvfooZQ3Axs_4core6option6OptionNtNtB7_3lit3LitENtB5_5Parse5parseB7_, symObjAddr: 0xF7AC, symBinAddr: 0x5B208, symSize: 0x130 }
  - { offset: 0xDC769, size: 0x8, addend: 0x0, symName: __RNvXsb_NtCs6IAuOt8vWmF_3syn5parseINtNtCsfvfooZQ3Axs_4core6option6OptionNtNtB7_3lit6LitStrENtB5_5Parse5parseB7_, symObjAddr: 0xF8DC, symBinAddr: 0x5B338, symSize: 0x110 }
  - { offset: 0xDC7BE, size: 0x8, addend: 0x0, symName: __RNvXsb_NtCs6IAuOt8vWmF_3syn5parseINtNtCsfvfooZQ3Axs_4core6option6OptionNtNtB7_3lit8LitFloatENtB5_5Parse5parseB7_, symObjAddr: 0xF9EC, symBinAddr: 0x5B448, symSize: 0x110 }
  - { offset: 0xDC813, size: 0x8, addend: 0x0, symName: __RNvXsb_NtCs6IAuOt8vWmF_3syn5parseINtNtCsfvfooZQ3Axs_4core6option6OptionNtNtB7_5token2EqENtB5_5Parse5parseB7_, symObjAddr: 0xFAFC, symBinAddr: 0x5B558, symSize: 0x11C }
  - { offset: 0xDC868, size: 0x8, addend: 0x0, symName: __RNvXsb_NtCs6IAuOt8vWmF_3syn5parseINtNtCsfvfooZQ3Axs_4core6option6OptionNtNtB7_5token2OrENtB5_5Parse5parseB7_, symObjAddr: 0xFC18, symBinAddr: 0x5B674, symSize: 0x11C }
  - { offset: 0xDC8BD, size: 0x8, addend: 0x0, symName: __RNvXsb_NtCs6IAuOt8vWmF_3syn5parseINtNtCsfvfooZQ3Axs_4core6option6OptionNtNtB7_5token3BoxENtB5_5Parse5parseB7_, symObjAddr: 0xFD34, symBinAddr: 0x5B790, symSize: 0x128 }
  - { offset: 0xDC912, size: 0x8, addend: 0x0, symName: __RNvXsb_NtCs6IAuOt8vWmF_3syn5parseINtNtCsfvfooZQ3Axs_4core6option6OptionNtNtB7_5token3DynENtB5_5Parse5parseB7_, symObjAddr: 0xFE5C, symBinAddr: 0x5B8B8, symSize: 0x128 }
  - { offset: 0xDC967, size: 0x8, addend: 0x0, symName: __RNvXsb_NtCs6IAuOt8vWmF_3syn5parseINtNtCsfvfooZQ3Axs_4core6option6OptionNtNtB7_5token3MutENtB5_5Parse5parseB7_, symObjAddr: 0xFF84, symBinAddr: 0x5B9E0, symSize: 0x128 }
  - { offset: 0xDC9BC, size: 0x8, addend: 0x0, symName: __RNvXsb_NtCs6IAuOt8vWmF_3syn5parseINtNtCsfvfooZQ3Axs_4core6option6OptionNtNtB7_5token3RefENtB5_5Parse5parseB7_, symObjAddr: 0x100AC, symBinAddr: 0x5BB08, symSize: 0x128 }
  - { offset: 0xDCA11, size: 0x8, addend: 0x0, symName: __RNvXsb_NtCs6IAuOt8vWmF_3syn5parseINtNtCsfvfooZQ3Axs_4core6option6OptionNtNtB7_5token4AutoENtB5_5Parse5parseB7_, symObjAddr: 0x101D4, symBinAddr: 0x5BC30, symSize: 0x128 }
  - { offset: 0xDCA66, size: 0x8, addend: 0x0, symName: __RNvXsb_NtCs6IAuOt8vWmF_3syn5parseINtNtCsfvfooZQ3Axs_4core6option6OptionNtNtB7_5token4MoveENtB5_5Parse5parseB7_, symObjAddr: 0x102FC, symBinAddr: 0x5BD58, symSize: 0x128 }
  - { offset: 0xDCABB, size: 0x8, addend: 0x0, symName: __RNvXsb_NtCs6IAuOt8vWmF_3syn5parseINtNtCsfvfooZQ3Axs_4core6option6OptionNtNtB7_5token4PlusENtB5_5Parse5parseB7_, symObjAddr: 0x10424, symBinAddr: 0x5BE80, symSize: 0x11C }
  - { offset: 0xDCB10, size: 0x8, addend: 0x0, symName: __RNvXsb_NtCs6IAuOt8vWmF_3syn5parseINtNtCsfvfooZQ3Axs_4core6option6OptionNtNtB7_5token4SemiENtB5_5Parse5parseB7_, symObjAddr: 0x10540, symBinAddr: 0x5BF9C, symSize: 0x11C }
  - { offset: 0xDCB65, size: 0x8, addend: 0x0, symName: __RNvXsb_NtCs6IAuOt8vWmF_3syn5parseINtNtCsfvfooZQ3Axs_4core6option6OptionNtNtB7_5token4StarENtB5_5Parse5parseB7_, symObjAddr: 0x1065C, symBinAddr: 0x5C0B8, symSize: 0x11C }
  - { offset: 0xDCBBA, size: 0x8, addend: 0x0, symName: __RNvXsb_NtCs6IAuOt8vWmF_3syn5parseINtNtCsfvfooZQ3Axs_4core6option6OptionNtNtB7_5token5AsyncENtB5_5Parse5parseB7_, symObjAddr: 0x10778, symBinAddr: 0x5C1D4, symSize: 0x128 }
  - { offset: 0xDCC0F, size: 0x8, addend: 0x0, symName: __RNvXsb_NtCs6IAuOt8vWmF_3syn5parseINtNtCsfvfooZQ3Axs_4core6option6OptionNtNtB7_5token5AwaitENtB5_5Parse5parseB7_, symObjAddr: 0x108A0, symBinAddr: 0x5C2FC, symSize: 0x128 }
  - { offset: 0xDCC64, size: 0x8, addend: 0x0, symName: __RNvXsb_NtCs6IAuOt8vWmF_3syn5parseINtNtCsfvfooZQ3Axs_4core6option6OptionNtNtB7_5token5ColonENtB5_5Parse5parseB7_, symObjAddr: 0x109C8, symBinAddr: 0x5C424, symSize: 0x11C }
  - { offset: 0xDCCB9, size: 0x8, addend: 0x0, symName: __RNvXsb_NtCs6IAuOt8vWmF_3syn5parseINtNtCsfvfooZQ3Axs_4core6option6OptionNtNtB7_5token5CommaENtB5_5Parse5parseB7_, symObjAddr: 0x10AE4, symBinAddr: 0x5C540, symSize: 0x11C }
  - { offset: 0xDCD0E, size: 0x8, addend: 0x0, symName: __RNvXsb_NtCs6IAuOt8vWmF_3syn5parseINtNtCsfvfooZQ3Axs_4core6option6OptionNtNtB7_5token5ConstENtB5_5Parse5parseB7_, symObjAddr: 0x10C00, symBinAddr: 0x5C65C, symSize: 0x128 }
  - { offset: 0xDCD63, size: 0x8, addend: 0x0, symName: __RNvXsb_NtCs6IAuOt8vWmF_3syn5parseINtNtCsfvfooZQ3Axs_4core6option6OptionNtNtB7_5token6StaticENtB5_5Parse5parseB7_, symObjAddr: 0x10D28, symBinAddr: 0x5C784, symSize: 0x128 }
  - { offset: 0xDCDB8, size: 0x8, addend: 0x0, symName: __RNvXsb_NtCs6IAuOt8vWmF_3syn5parseINtNtCsfvfooZQ3Axs_4core6option6OptionNtNtB7_5token6UnsafeENtB5_5Parse5parseB7_, symObjAddr: 0x10E50, symBinAddr: 0x5C8AC, symSize: 0x128 }
  - { offset: 0xDCE0D, size: 0x8, addend: 0x0, symName: __RNvXsb_NtCs6IAuOt8vWmF_3syn5parseINtNtCsfvfooZQ3Axs_4core6option6OptionNtNtB7_5token7DefaultENtB5_5Parse5parseB7_, symObjAddr: 0x10F78, symBinAddr: 0x5C9D4, symSize: 0x128 }
  - { offset: 0xDCE62, size: 0x8, addend: 0x0, symName: __RNvXsb_NtCs6IAuOt8vWmF_3syn5parseINtNtCsfvfooZQ3Axs_4core6option6OptionNtNtB7_5token7PathSepENtB5_5Parse5parseB7_, symObjAddr: 0x110A0, symBinAddr: 0x5CAFC, symSize: 0x130 }
  - { offset: 0xDCEB7, size: 0x8, addend: 0x0, symName: __RNvXsb_NtCs6IAuOt8vWmF_3syn5parseINtNtCsfvfooZQ3Axs_4core6option6OptionNtNtB7_5token8QuestionENtB5_5Parse5parseB7_, symObjAddr: 0x111D0, symBinAddr: 0x5CC2C, symSize: 0x11C }
  - { offset: 0xDCF0C, size: 0x8, addend: 0x0, symName: __RNvXsb_NtCs6IAuOt8vWmF_3syn5parseINtNtCsfvfooZQ3Axs_4core6option6OptionNtNtB7_5token9DotDotDotENtB5_5Parse5parseB7_, symObjAddr: 0x112EC, symBinAddr: 0x5CD48, symSize: 0x130 }
  - { offset: 0xDCF61, size: 0x8, addend: 0x0, symName: __RNvXsb_NtCs6IAuOt8vWmF_3syn5parseINtNtCsfvfooZQ3Axs_4core6option6OptionNtNtB7_8lifetime8LifetimeENtB5_5Parse5parseB7_, symObjAddr: 0x1141C, symBinAddr: 0x5CE78, symSize: 0x140 }
  - { offset: 0xDE981, size: 0x8, addend: 0x0, symName: __RNvXsF_NtCse1nGBsou5OW_5alloc6stringNtNtCsfvfooZQ3Axs_4core3fmt9ArgumentsNtB5_12SpecToString14spec_to_stringCs6IAuOt8vWmF_3syn, symObjAddr: 0x94B0, symBinAddr: 0x5A4A4, symSize: 0x48 }
  - { offset: 0xDE9B5, size: 0x8, addend: 0x0, symName: __RNvXsw_NtCse1nGBsou5OW_5alloc6stringNtNtCsfvfooZQ3Axs_4core3fmt9ArgumentsNtB5_8ToString9to_stringCs6IAuOt8vWmF_3syn, symObjAddr: 0xECAC, symBinAddr: 0x5ABCC, symSize: 0x24 }
  - { offset: 0xDE9F3, size: 0x8, addend: 0x0, symName: __RNvNtCse1nGBsou5OW_5alloc3fmt6formatCs6IAuOt8vWmF_3syn, symObjAddr: 0x5E3C, symBinAddr: 0x573EC, symSize: 0xD4 }
  - { offset: 0xDF227, size: 0x8, addend: 0x0, symName: __RINvMNtCsfvfooZQ3Axs_4core6optionINtB3_6OptionINtNtCs6IAuOt8vWmF_3syn10punctuated4PairNtNtBN_4path11PathSegmentNtNtBN_5token7PathSepEE7or_elseNCNvXsj_BL_INtBL_9IntoPairsB1m_B1L_ENtNtNtNtB5_4iter6traits8iterator8Iterator4nexts_0EBN_, symObjAddr: 0x0, symBinAddr: 0x5279C, symSize: 0xD8 }
  - { offset: 0xDF297, size: 0x8, addend: 0x0, symName: __RINvMNtCsfvfooZQ3Axs_4core6optionINtB3_6OptionINtNtCs6IAuOt8vWmF_3syn10punctuated4PairRNtNtBN_2ty4TypeRNtNtBN_5token5CommaEE7or_elseNCNvXsc_BL_INtBL_5PairsB1n_B1D_ENtNtNtNtB5_4iter6traits8iterator8Iterator4nexts_0EBN_, symObjAddr: 0xD8, symBinAddr: 0x52874, symSize: 0xB4 }
  - { offset: 0xDF314, size: 0x8, addend: 0x0, symName: __RINvMNtCsfvfooZQ3Axs_4core6optionINtB3_6OptionINtNtCs6IAuOt8vWmF_3syn10punctuated4PairRNtNtBN_2ty9BareFnArgRNtNtBN_5token5CommaEE7or_elseNCNvXsc_BL_INtBL_5PairsB1n_B1I_ENtNtNtNtB5_4iter6traits8iterator8Iterator4nexts_0EBN_, symObjAddr: 0x18C, symBinAddr: 0x52928, symSize: 0xB4 }
  - { offset: 0xDF391, size: 0x8, addend: 0x0, symName: __RINvMNtCsfvfooZQ3Axs_4core6optionINtB3_6OptionINtNtCs6IAuOt8vWmF_3syn10punctuated4PairRNtNtBN_3pat3PatRNtNtBN_5token2OrEE7or_elseNCNvXsc_BL_INtBL_5PairsB1n_B1D_ENtNtNtNtB5_4iter6traits8iterator8Iterator4nexts_0EBN_, symObjAddr: 0x240, symBinAddr: 0x529DC, symSize: 0xB4 }
  - { offset: 0xDF3F4, size: 0x8, addend: 0x0, symName: __RINvMNtCsfvfooZQ3Axs_4core6optionINtB3_6OptionINtNtCs6IAuOt8vWmF_3syn10punctuated4PairRNtNtBN_3pat3PatRNtNtBN_5token5CommaEE7or_elseNCNvXsc_BL_INtBL_5PairsB1n_B1D_ENtNtNtNtB5_4iter6traits8iterator8Iterator4nexts_0EBN_, symObjAddr: 0x2F4, symBinAddr: 0x52A90, symSize: 0xB4 }
  - { offset: 0xDF471, size: 0x8, addend: 0x0, symName: __RINvMNtCsfvfooZQ3Axs_4core6optionINtB3_6OptionINtNtCs6IAuOt8vWmF_3syn10punctuated4PairRNtNtBN_3pat8FieldPatRNtNtBN_5token5CommaEE7or_elseNCNvXsc_BL_INtBL_5PairsB1n_B1I_ENtNtNtNtB5_4iter6traits8iterator8Iterator4nexts_0EBN_, symObjAddr: 0x3A8, symBinAddr: 0x52B44, symSize: 0xB4 }
  - { offset: 0xDF4EE, size: 0x8, addend: 0x0, symName: __RINvMNtCsfvfooZQ3Axs_4core6optionINtB3_6OptionINtNtCs6IAuOt8vWmF_3syn10punctuated4PairRNtNtBN_4data5FieldRNtNtBN_5token5CommaEE7or_elseNCNvXsc_BL_INtBL_5PairsB1n_B1G_ENtNtNtNtB5_4iter6traits8iterator8Iterator4nexts_0EBN_, symObjAddr: 0x45C, symBinAddr: 0x52BF8, symSize: 0xB4 }
  - { offset: 0xDF56B, size: 0x8, addend: 0x0, symName: __RINvMNtCsfvfooZQ3Axs_4core6optionINtB3_6OptionINtNtCs6IAuOt8vWmF_3syn10punctuated4PairRNtNtBN_4data7VariantRNtNtBN_5token5CommaEE7or_elseNCNvXsc_BL_INtBL_5PairsB1n_B1I_ENtNtNtNtB5_4iter6traits8iterator8Iterator4nexts_0EBN_, symObjAddr: 0x510, symBinAddr: 0x52CAC, symSize: 0xB4 }
  - { offset: 0xDF5E8, size: 0x8, addend: 0x0, symName: __RINvMNtCsfvfooZQ3Axs_4core6optionINtB3_6OptionINtNtCs6IAuOt8vWmF_3syn10punctuated4PairRNtNtBN_4expr10FieldValueRNtNtBN_5token5CommaEE7or_elseNCNvXsc_BL_INtBL_5PairsB1n_B1M_ENtNtNtNtB5_4iter6traits8iterator8Iterator4nexts_0EBN_, symObjAddr: 0x5C4, symBinAddr: 0x52D60, symSize: 0xB4 }
  - { offset: 0xDF658, size: 0x8, addend: 0x0, symName: __RINvMNtCsfvfooZQ3Axs_4core6optionINtB3_6OptionINtNtCs6IAuOt8vWmF_3syn10punctuated4PairRNtNtBN_4expr4ExprRNtNtBN_5token5CommaEE7or_elseNCNvXsc_BL_INtBL_5PairsB1n_B1F_ENtNtNtNtB5_4iter6traits8iterator8Iterator4nexts_0EBN_, symObjAddr: 0x678, symBinAddr: 0x52E14, symSize: 0xB4 }
  - { offset: 0xDF6D5, size: 0x8, addend: 0x0, symName: __RINvMNtCsfvfooZQ3Axs_4core6optionINtB3_6OptionINtNtCs6IAuOt8vWmF_3syn10punctuated4PairRNtNtBN_4item5FnArgRNtNtBN_5token5CommaEE7or_elseNCNvXsc_BL_INtBL_5PairsB1n_B1G_ENtNtNtNtB5_4iter6traits8iterator8Iterator4nexts_0EBN_, symObjAddr: 0x72C, symBinAddr: 0x52EC8, symSize: 0xB4 }
  - { offset: 0xDF752, size: 0x8, addend: 0x0, symName: __RINvMNtCsfvfooZQ3Axs_4core6optionINtB3_6OptionINtNtCs6IAuOt8vWmF_3syn10punctuated4PairRNtNtBN_4item7UseTreeRNtNtBN_5token5CommaEE7or_elseNCNvXsc_BL_INtBL_5PairsB1n_B1I_ENtNtNtNtB5_4iter6traits8iterator8Iterator4nexts_0EBN_, symObjAddr: 0x7E0, symBinAddr: 0x52F7C, symSize: 0xB4 }
  - { offset: 0xDF7CF, size: 0x8, addend: 0x0, symName: __RINvMNtCsfvfooZQ3Axs_4core6optionINtB3_6OptionINtNtCs6IAuOt8vWmF_3syn10punctuated4PairRNtNtBN_4path11PathSegmentRNtNtBN_5token7PathSepEE7or_elseNCNvXsc_BL_INtBL_5PairsB1n_B1N_ENtNtNtNtB5_4iter6traits8iterator8Iterator4nexts_0EBN_, symObjAddr: 0x894, symBinAddr: 0x53030, symSize: 0xB4 }
  - { offset: 0xDF84C, size: 0x8, addend: 0x0, symName: __RINvMNtCsfvfooZQ3Axs_4core6optionINtB3_6OptionINtNtCs6IAuOt8vWmF_3syn10punctuated4PairRNtNtBN_4path15GenericArgumentRNtNtBN_5token5CommaEE7or_elseNCNvXsc_BL_INtBL_5PairsB1n_B1R_ENtNtNtNtB5_4iter6traits8iterator8Iterator4nexts_0EBN_, symObjAddr: 0x948, symBinAddr: 0x530E4, symSize: 0xB4 }
  - { offset: 0xDF8C9, size: 0x8, addend: 0x0, symName: __RINvMNtCsfvfooZQ3Axs_4core6optionINtB3_6OptionINtNtCs6IAuOt8vWmF_3syn10punctuated4PairRNtNtBN_8generics12GenericParamRNtNtBN_5token5CommaEE7or_elseNCNvXsc_BL_INtBL_5PairsB1n_B1S_ENtNtNtNtB5_4iter6traits8iterator8Iterator4nexts_0EBN_, symObjAddr: 0x9FC, symBinAddr: 0x53198, symSize: 0xB4 }
  - { offset: 0xDF946, size: 0x8, addend: 0x0, symName: __RINvMNtCsfvfooZQ3Axs_4core6optionINtB3_6OptionINtNtCs6IAuOt8vWmF_3syn10punctuated4PairRNtNtBN_8generics13CapturedParamRNtNtBN_5token5CommaEE7or_elseNCNvXsc_BL_INtBL_5PairsB1n_B1T_ENtNtNtNtB5_4iter6traits8iterator8Iterator4nexts_0EBN_, symObjAddr: 0xAB0, symBinAddr: 0x5324C, symSize: 0xB4 }
  - { offset: 0xDF9D0, size: 0x8, addend: 0x0, symName: __RINvMNtCsfvfooZQ3Axs_4core6optionINtB3_6OptionINtNtCs6IAuOt8vWmF_3syn10punctuated4PairRNtNtBN_8generics14TypeParamBoundRNtNtBN_5token4PlusEE7or_elseNCNvXsc_BL_INtBL_5PairsB1n_B1U_ENtNtNtNtB5_4iter6traits8iterator8Iterator4nexts_0EBN_, symObjAddr: 0xB64, symBinAddr: 0x53300, symSize: 0xB4 }
  - { offset: 0xDFA4D, size: 0x8, addend: 0x0, symName: __RINvMNtCsfvfooZQ3Axs_4core6optionINtB3_6OptionINtNtCs6IAuOt8vWmF_3syn10punctuated4PairRNtNtBN_8generics14WherePredicateRNtNtBN_5token5CommaEE7or_elseNCNvXsc_BL_INtBL_5PairsB1n_B1U_ENtNtNtNtB5_4iter6traits8iterator8Iterator4nexts_0EBN_, symObjAddr: 0xC18, symBinAddr: 0x533B4, symSize: 0xB4 }
  - { offset: 0xDFABD, size: 0x8, addend: 0x0, symName: __RINvMNtCsfvfooZQ3Axs_4core6optionINtB3_6OptionINtNtCs6IAuOt8vWmF_3syn10punctuated4PairRNtNtBN_8lifetime8LifetimeRNtNtBN_5token4PlusEE7or_elseNCNvXsc_BL_INtBL_5PairsB1n_B1N_ENtNtNtNtB5_4iter6traits8iterator8Iterator4nexts_0EBN_, symObjAddr: 0xCCC, symBinAddr: 0x53468, symSize: 0xB4 }
  - { offset: 0xDFB20, size: 0x8, addend: 0x0, symName: __RINvMNtCsfvfooZQ3Axs_4core6optionINtB3_6OptionINtNtCse1nGBsou5OW_5alloc5boxed3BoxNtNtCs6IAuOt8vWmF_3syn4path11PathSegmentEE3mapB1h_NCNvMNtB1l_10punctuatedINtB2a_10PunctuatedB1h_NtNtB1l_5token7PathSepE10into_pairs0EB1l_, symObjAddr: 0xE70, symBinAddr: 0x5351C, symSize: 0x74 }
  - { offset: 0xDFB8B, size: 0x8, addend: 0x0, symName: __RINvMNtCsfvfooZQ3Axs_4core6optionINtB3_6OptionINtNtCse1nGBsou5OW_5alloc5boxed3BoxNtNtCs6IAuOt8vWmF_3syn4path11PathSegmentEE3mapINtNtB1l_10punctuated4PairB1h_NtNtB1l_5token7PathSepENCNvMB24_INtB24_10PunctuatedB1h_B2v_E3pop0EB1l_, symObjAddr: 0xEE4, symBinAddr: 0x53590, symSize: 0x70 }
  - { offset: 0xDFBF6, size: 0x8, addend: 0x0, symName: __RINvMNtCsfvfooZQ3Axs_4core6optionINtB3_6OptionINtNtCse1nGBsou5OW_5alloc5boxed3BoxNtNtCs6IAuOt8vWmF_3syn8generics14TypeParamBoundEE3mapB1h_NCNvXs8_NtB1l_10punctuatedINtB2k_10PunctuatedB1h_NtNtB1l_5token4PlusENtNtNtNtB5_4iter6traits7collect12IntoIterator9into_iters_0EB1l_, symObjAddr: 0xF54, symBinAddr: 0x53600, symSize: 0x70 }
  - { offset: 0xDFC73, size: 0x8, addend: 0x0, symName: __RINvMNtCsfvfooZQ3Axs_4core6optionINtB3_6OptionNtCs3cP53eQoTwO_11proc_macro29TokenTreeE11map_or_elseNtBK_4SpanNvMse_BK_B1z_9call_siteNCNvNvMNtCs6IAuOt8vWmF_3syn5errorNtB2d_5Error11new_spanned11new_spanned0EB2f_, symObjAddr: 0xFC4, symBinAddr: 0x53670, symSize: 0xE4 }
  - { offset: 0xDFCEF, size: 0x8, addend: 0x0, symName: __RINvMNtCsfvfooZQ3Axs_4core6optionINtB3_6OptionNtCs3cP53eQoTwO_11proc_macro29TokenTreeE6map_orNtBK_4SpanNCNvNvMNtCs6IAuOt8vWmF_3syn5errorNtB1K_5Error11new_spanned11new_spanneds_0EB1M_, symObjAddr: 0x10A8, symBinAddr: 0x53754, symSize: 0xC8 }
  - { offset: 0xDFD7A, size: 0x8, addend: 0x0, symName: __RINvMNtCsfvfooZQ3Axs_4core6optionINtB3_6OptionNtNtCs3cP53eQoTwO_11proc_macro28fallback4SpanE3mapNtNtBM_3imp4SpanNcNtB1w_8Fallback0ECs6IAuOt8vWmF_3syn, symObjAddr: 0x1170, symBinAddr: 0x5381C, symSize: 0x4C }
  - { offset: 0xDFDFD, size: 0x8, addend: 0x0, symName: __RINvMNtCsfvfooZQ3Axs_4core6optionINtB3_6OptionNtNtCs6IAuOt8vWmF_3syn4path11PathSegmentE3mapINtNtBM_10punctuated4PairBI_NtNtBM_5token7PathSepENcNtB1r_3End0EBM_, symObjAddr: 0x11BC, symBinAddr: 0x53868, symSize: 0xAC }
  - { offset: 0xDFE81, size: 0x8, addend: 0x0, symName: __RINvMNtCsfvfooZQ3Axs_4core6optionINtB3_6OptionNtNtCs6IAuOt8vWmF_3syn5token3MutE6map_orNtNtBM_4item16StaticMutabilityNcNtB1m_3Mut0EBM_, symObjAddr: 0x1268, symBinAddr: 0x53914, symSize: 0xC4 }
  - { offset: 0xDFEF3, size: 0x8, addend: 0x0, symName: __RINvMNtCsfvfooZQ3Axs_4core6optionINtB3_6OptionNtNtCs6IAuOt8vWmF_3syn5token5BraceE3mapNtNtBM_4stmt5BlockNCNvXsp_NtNtBM_4item7parsingNtB1N_11TraitItemFnNtNtBM_5parse5Parse5parse0EBM_, symObjAddr: 0x132C, symBinAddr: 0x539D8, symSize: 0xAC }
  - { offset: 0xDFF99, size: 0x8, addend: 0x0, symName: __RINvMNtCsfvfooZQ3Axs_4core6optionINtB3_6OptionNtNtCs6IAuOt8vWmF_3syn6buffer6CursorE6map_orbFG_IBI_L0_EEbEBM_, symObjAddr: 0x13D8, symBinAddr: 0x53A84, symSize: 0xBC }
  - { offset: 0xE0024, size: 0x8, addend: 0x0, symName: __RINvMNtCsfvfooZQ3Axs_4core6optionINtB3_6OptionNtNtCs6IAuOt8vWmF_3syn6buffer6CursorE8and_thenBI_NvMs_BK_BI_4skipEBM_, symObjAddr: 0x1494, symBinAddr: 0x53B40, symSize: 0x58 }
  - { offset: 0xE00ED, size: 0x8, addend: 0x0, symName: __RINvMNtCsfvfooZQ3Axs_4core6optionINtB3_6OptionNtNtNtCs6IAuOt8vWmF_3syn3pat7parsing13PatRangeBoundE3mapINtNtCse1nGBsou5OW_5alloc5boxed3BoxNtNtBO_4expr4ExprENvMs0_BK_BI_9into_exprEBO_, symObjAddr: 0x1624, symBinAddr: 0x53B98, symSize: 0x8C }
  - { offset: 0xE01BD, size: 0x8, addend: 0x0, symName: __RINvMNtCsfvfooZQ3Axs_4core6optionINtB3_6OptionQINtNtCse1nGBsou5OW_5alloc5boxed3BoxNtNtCs6IAuOt8vWmF_3syn4path11PathSegmentEE3mapQB1i_NvYBJ_INtNtB5_7convert5AsMutB1i_E6as_mutEB1m_, symObjAddr: 0x1700, symBinAddr: 0x53C24, symSize: 0x50 }
  - { offset: 0xE02A8, size: 0x8, addend: 0x0, symName: __RINvMNtCsfvfooZQ3Axs_4core6optionINtB3_6OptionQNtNtCs6IAuOt8vWmF_3syn4path11PathSegmentE7or_elseNCNvXsF_NtBN_10punctuatedINtB1E_14PrivateIterMutBJ_NtNtBN_5token7PathSepENtNtNtNtB5_4iter6traits8iterator8Iterator4nexts_0EBN_, symObjAddr: 0x18F0, symBinAddr: 0x53C74, symSize: 0xA8 }
  - { offset: 0xE033E, size: 0x8, addend: 0x0, symName: __RINvMNtCsfvfooZQ3Axs_4core6optionINtB3_6OptionQNtNtCs6IAuOt8vWmF_3syn4path11PathSegmentE7or_elseNCNvXsG_NtBN_10punctuatedINtB1E_14PrivateIterMutBJ_NtNtBN_5token7PathSepENtNtNtNtB5_4iter6traits12double_ended19DoubleEndedIterator9next_back0EBN_, symObjAddr: 0x1998, symBinAddr: 0x53D1C, symSize: 0xA8 }
  - { offset: 0xE03E1, size: 0x8, addend: 0x0, symName: __RINvMNtCsfvfooZQ3Axs_4core6optionINtB3_6OptionQTNtNtCs6IAuOt8vWmF_3syn4path11PathSegmentNtNtBO_5token7PathSepEE3mapQBK_NCNCNvXsG_NtBO_10punctuatedINtB23_14PrivateIterMutBK_B1o_ENtNtNtNtB5_4iter6traits12double_ended19DoubleEndedIterator9next_back00EBO_, symObjAddr: 0x1C30, symBinAddr: 0x53DC4, symSize: 0x50 }
  - { offset: 0xE044C, size: 0x8, addend: 0x0, symName: __RINvMNtCsfvfooZQ3Axs_4core6optionINtB3_6OptionQTNtNtCs6IAuOt8vWmF_3syn4path11PathSegmentNtNtBO_5token7PathSepEE3mapQBK_NCNvXsF_NtBO_10punctuatedINtB21_14PrivateIterMutBK_B1o_ENtNtNtNtB5_4iter6traits8iterator8Iterator4next0EBO_, symObjAddr: 0x1C80, symBinAddr: 0x53E14, symSize: 0x50 }
  - { offset: 0xE04DC, size: 0x8, addend: 0x0, symName: __RINvMNtCsfvfooZQ3Axs_4core6optionINtB3_6OptionRINtNtCse1nGBsou5OW_5alloc5boxed3BoxNtNtCs6IAuOt8vWmF_3syn2ty4TypeEE3mapRB1i_NvYBJ_INtNtB5_7convert5AsRefB1i_E6as_refEB1m_, symObjAddr: 0x1D70, symBinAddr: 0x53E64, symSize: 0x50 }
  - { offset: 0xE056C, size: 0x8, addend: 0x0, symName: __RINvMNtCsfvfooZQ3Axs_4core6optionINtB3_6OptionRINtNtCse1nGBsou5OW_5alloc5boxed3BoxNtNtCs6IAuOt8vWmF_3syn2ty9BareFnArgEE3mapRB1i_NvYBJ_INtNtB5_7convert5AsRefB1i_E6as_refEB1m_, symObjAddr: 0x1DC0, symBinAddr: 0x53EB4, symSize: 0x50 }
  - { offset: 0xE05FC, size: 0x8, addend: 0x0, symName: __RINvMNtCsfvfooZQ3Axs_4core6optionINtB3_6OptionRINtNtCse1nGBsou5OW_5alloc5boxed3BoxNtNtCs6IAuOt8vWmF_3syn3pat3PatEE3mapRB1i_NvYBJ_INtNtB5_7convert5AsRefB1i_E6as_refEB1m_, symObjAddr: 0x1E10, symBinAddr: 0x53F04, symSize: 0x50 }
  - { offset: 0xE068C, size: 0x8, addend: 0x0, symName: __RINvMNtCsfvfooZQ3Axs_4core6optionINtB3_6OptionRINtNtCse1nGBsou5OW_5alloc5boxed3BoxNtNtCs6IAuOt8vWmF_3syn3pat8FieldPatEE3mapRB1i_NvYBJ_INtNtB5_7convert5AsRefB1i_E6as_refEB1m_, symObjAddr: 0x1E60, symBinAddr: 0x53F54, symSize: 0x50 }
  - { offset: 0xE071C, size: 0x8, addend: 0x0, symName: __RINvMNtCsfvfooZQ3Axs_4core6optionINtB3_6OptionRINtNtCse1nGBsou5OW_5alloc5boxed3BoxNtNtCs6IAuOt8vWmF_3syn4data5FieldEE3mapRB1i_NvYBJ_INtNtB5_7convert5AsRefB1i_E6as_refEB1m_, symObjAddr: 0x1EB0, symBinAddr: 0x53FA4, symSize: 0x50 }
  - { offset: 0xE07AC, size: 0x8, addend: 0x0, symName: __RINvMNtCsfvfooZQ3Axs_4core6optionINtB3_6OptionRINtNtCse1nGBsou5OW_5alloc5boxed3BoxNtNtCs6IAuOt8vWmF_3syn4data7VariantEE3mapRB1i_NvYBJ_INtNtB5_7convert5AsRefB1i_E6as_refEB1m_, symObjAddr: 0x1F00, symBinAddr: 0x53FF4, symSize: 0x50 }
  - { offset: 0xE083C, size: 0x8, addend: 0x0, symName: __RINvMNtCsfvfooZQ3Axs_4core6optionINtB3_6OptionRINtNtCse1nGBsou5OW_5alloc5boxed3BoxNtNtCs6IAuOt8vWmF_3syn4expr10FieldValueEE3mapRB1i_NvYBJ_INtNtB5_7convert5AsRefB1i_E6as_refEB1m_, symObjAddr: 0x1F50, symBinAddr: 0x54044, symSize: 0x50 }
  - { offset: 0xE08BF, size: 0x8, addend: 0x0, symName: __RINvMNtCsfvfooZQ3Axs_4core6optionINtB3_6OptionRINtNtCse1nGBsou5OW_5alloc5boxed3BoxNtNtCs6IAuOt8vWmF_3syn4expr4ExprEE3mapRB1i_NvYBJ_INtNtB5_7convert5AsRefB1i_E6as_refEB1m_, symObjAddr: 0x1FA0, symBinAddr: 0x54094, symSize: 0x50 }
  - { offset: 0xE094F, size: 0x8, addend: 0x0, symName: __RINvMNtCsfvfooZQ3Axs_4core6optionINtB3_6OptionRINtNtCse1nGBsou5OW_5alloc5boxed3BoxNtNtCs6IAuOt8vWmF_3syn4item5FnArgEE3mapRB1i_NvYBJ_INtNtB5_7convert5AsRefB1i_E6as_refEB1m_, symObjAddr: 0x1FF0, symBinAddr: 0x540E4, symSize: 0x50 }
  - { offset: 0xE09DF, size: 0x8, addend: 0x0, symName: __RINvMNtCsfvfooZQ3Axs_4core6optionINtB3_6OptionRINtNtCse1nGBsou5OW_5alloc5boxed3BoxNtNtCs6IAuOt8vWmF_3syn4item7UseTreeEE3mapRB1i_NvYBJ_INtNtB5_7convert5AsRefB1i_E6as_refEB1m_, symObjAddr: 0x2040, symBinAddr: 0x54134, symSize: 0x50 }
  - { offset: 0xE0A6F, size: 0x8, addend: 0x0, symName: __RINvMNtCsfvfooZQ3Axs_4core6optionINtB3_6OptionRINtNtCse1nGBsou5OW_5alloc5boxed3BoxNtNtCs6IAuOt8vWmF_3syn4path11PathSegmentEE3mapRB1i_NvYBJ_INtNtB5_7convert5AsRefB1i_E6as_refEB1m_, symObjAddr: 0x2090, symBinAddr: 0x54184, symSize: 0x50 }
  - { offset: 0xE0AFF, size: 0x8, addend: 0x0, symName: __RINvMNtCsfvfooZQ3Axs_4core6optionINtB3_6OptionRINtNtCse1nGBsou5OW_5alloc5boxed3BoxNtNtCs6IAuOt8vWmF_3syn4path15GenericArgumentEE3mapRB1i_NvYBJ_INtNtB5_7convert5AsRefB1i_E6as_refEB1m_, symObjAddr: 0x20E0, symBinAddr: 0x541D4, symSize: 0x50 }
  - { offset: 0xE0B8F, size: 0x8, addend: 0x0, symName: __RINvMNtCsfvfooZQ3Axs_4core6optionINtB3_6OptionRINtNtCse1nGBsou5OW_5alloc5boxed3BoxNtNtCs6IAuOt8vWmF_3syn8generics12GenericParamEE3mapRB1i_NvYBJ_INtNtB5_7convert5AsRefB1i_E6as_refEB1m_, symObjAddr: 0x2130, symBinAddr: 0x54224, symSize: 0x50 }
  - { offset: 0xE0C1F, size: 0x8, addend: 0x0, symName: __RINvMNtCsfvfooZQ3Axs_4core6optionINtB3_6OptionRINtNtCse1nGBsou5OW_5alloc5boxed3BoxNtNtCs6IAuOt8vWmF_3syn8generics13CapturedParamEE3mapRB1i_NvYBJ_INtNtB5_7convert5AsRefB1i_E6as_refEB1m_, symObjAddr: 0x2180, symBinAddr: 0x54274, symSize: 0x50 }
  - { offset: 0xE0CAF, size: 0x8, addend: 0x0, symName: __RINvMNtCsfvfooZQ3Axs_4core6optionINtB3_6OptionRINtNtCse1nGBsou5OW_5alloc5boxed3BoxNtNtCs6IAuOt8vWmF_3syn8generics14TypeParamBoundEE3mapRB1i_NvYBJ_INtNtB5_7convert5AsRefB1i_E6as_refEB1m_, symObjAddr: 0x21D0, symBinAddr: 0x542C4, symSize: 0x50 }
  - { offset: 0xE0D3F, size: 0x8, addend: 0x0, symName: __RINvMNtCsfvfooZQ3Axs_4core6optionINtB3_6OptionRINtNtCse1nGBsou5OW_5alloc5boxed3BoxNtNtCs6IAuOt8vWmF_3syn8generics14WherePredicateEE3mapRB1i_NvYBJ_INtNtB5_7convert5AsRefB1i_E6as_refEB1m_, symObjAddr: 0x2220, symBinAddr: 0x54314, symSize: 0x50 }
  - { offset: 0xE0DCF, size: 0x8, addend: 0x0, symName: __RINvMNtCsfvfooZQ3Axs_4core6optionINtB3_6OptionRINtNtCse1nGBsou5OW_5alloc5boxed3BoxNtNtCs6IAuOt8vWmF_3syn8lifetime8LifetimeEE3mapRB1i_NvYBJ_INtNtB5_7convert5AsRefB1i_E6as_refEB1m_, symObjAddr: 0x2270, symBinAddr: 0x54364, symSize: 0x50 }
  - { offset: 0xE0E73, size: 0x8, addend: 0x0, symName: __RINvMNtCsfvfooZQ3Axs_4core6optionINtB3_6OptionRNtNtCs6IAuOt8vWmF_3syn2ty4TypeE3mapINtNtBN_10punctuated4PairBI_RNtNtBN_5token5CommaENcNtB1i_3End0EBN_, symObjAddr: 0x233C, symBinAddr: 0x543B4, symSize: 0x68 }
  - { offset: 0xE0EF6, size: 0x8, addend: 0x0, symName: __RINvMNtCsfvfooZQ3Axs_4core6optionINtB3_6OptionRNtNtCs6IAuOt8vWmF_3syn2ty9BareFnArgE3mapINtNtBN_10punctuated4PairBI_RNtNtBN_5token5CommaENcNtB1n_3End0EBN_, symObjAddr: 0x23A4, symBinAddr: 0x5441C, symSize: 0x68 }
  - { offset: 0xE0F79, size: 0x8, addend: 0x0, symName: __RINvMNtCsfvfooZQ3Axs_4core6optionINtB3_6OptionRNtNtCs6IAuOt8vWmF_3syn3pat3PatE3mapINtNtBN_10punctuated4PairBI_RNtNtBN_5token2OrENcNtB1i_3End0EBN_, symObjAddr: 0x240C, symBinAddr: 0x54484, symSize: 0x68 }
  - { offset: 0xE0FFC, size: 0x8, addend: 0x0, symName: __RINvMNtCsfvfooZQ3Axs_4core6optionINtB3_6OptionRNtNtCs6IAuOt8vWmF_3syn3pat3PatE3mapINtNtBN_10punctuated4PairBI_RNtNtBN_5token5CommaENcNtB1i_3End0EBN_, symObjAddr: 0x2474, symBinAddr: 0x544EC, symSize: 0x68 }
  - { offset: 0xE107F, size: 0x8, addend: 0x0, symName: __RINvMNtCsfvfooZQ3Axs_4core6optionINtB3_6OptionRNtNtCs6IAuOt8vWmF_3syn3pat8FieldPatE3mapINtNtBN_10punctuated4PairBI_RNtNtBN_5token5CommaENcNtB1n_3End0EBN_, symObjAddr: 0x24DC, symBinAddr: 0x54554, symSize: 0x68 }
  - { offset: 0xE1102, size: 0x8, addend: 0x0, symName: __RINvMNtCsfvfooZQ3Axs_4core6optionINtB3_6OptionRNtNtCs6IAuOt8vWmF_3syn4data5FieldE3mapINtNtBN_10punctuated4PairBI_RNtNtBN_5token5CommaENcNtB1l_3End0EBN_, symObjAddr: 0x2544, symBinAddr: 0x545BC, symSize: 0x68 }
  - { offset: 0xE119F, size: 0x8, addend: 0x0, symName: __RINvMNtCsfvfooZQ3Axs_4core6optionINtB3_6OptionRNtNtCs6IAuOt8vWmF_3syn4data7VariantE3mapINtNtBN_10punctuated4PairBI_RNtNtBN_5token5CommaENcNtB1n_3End0EBN_, symObjAddr: 0x26FC, symBinAddr: 0x54624, symSize: 0x68 }
  - { offset: 0xE1222, size: 0x8, addend: 0x0, symName: __RINvMNtCsfvfooZQ3Axs_4core6optionINtB3_6OptionRNtNtCs6IAuOt8vWmF_3syn4expr10FieldValueE3mapINtNtBN_10punctuated4PairBI_RNtNtBN_5token5CommaENcNtB1r_3End0EBN_, symObjAddr: 0x2764, symBinAddr: 0x5468C, symSize: 0x68 }
  - { offset: 0xE12A5, size: 0x8, addend: 0x0, symName: __RINvMNtCsfvfooZQ3Axs_4core6optionINtB3_6OptionRNtNtCs6IAuOt8vWmF_3syn4expr4ExprE3mapINtNtBN_10punctuated4PairBI_RNtNtBN_5token5CommaENcNtB1k_3End0EBN_, symObjAddr: 0x27CC, symBinAddr: 0x546F4, symSize: 0x68 }
  - { offset: 0xE1328, size: 0x8, addend: 0x0, symName: __RINvMNtCsfvfooZQ3Axs_4core6optionINtB3_6OptionRNtNtCs6IAuOt8vWmF_3syn4item5FnArgE3mapINtNtBN_10punctuated4PairBI_RNtNtBN_5token5CommaENcNtB1l_3End0EBN_, symObjAddr: 0x2834, symBinAddr: 0x5475C, symSize: 0x68 }
  - { offset: 0xE13D2, size: 0x8, addend: 0x0, symName: __RINvMNtCsfvfooZQ3Axs_4core6optionINtB3_6OptionRNtNtCs6IAuOt8vWmF_3syn4item7UseTreeE3mapINtNtBN_10punctuated4PairBI_RNtNtBN_5token5CommaENcNtB1n_3End0EBN_, symObjAddr: 0x29EC, symBinAddr: 0x547C4, symSize: 0x68 }
  - { offset: 0xE1455, size: 0x8, addend: 0x0, symName: __RINvMNtCsfvfooZQ3Axs_4core6optionINtB3_6OptionRNtNtCs6IAuOt8vWmF_3syn4path11PathSegmentE3mapINtNtBN_10punctuated4PairBI_RNtNtBN_5token7PathSepENcNtB1s_3End0EBN_, symObjAddr: 0x2A54, symBinAddr: 0x5482C, symSize: 0x68 }
  - { offset: 0xE14C0, size: 0x8, addend: 0x0, symName: __RINvMNtCsfvfooZQ3Axs_4core6optionINtB3_6OptionRNtNtCs6IAuOt8vWmF_3syn4path11PathSegmentE7or_elseNCNvXsw_NtBN_10punctuatedINtB1E_11PrivateIterBJ_NtNtBN_5token7PathSepENtNtNtNtB5_4iter6traits8iterator8Iterator4nexts_0EBN_, symObjAddr: 0x2ABC, symBinAddr: 0x54894, symSize: 0xA8 }
  - { offset: 0xE153C, size: 0x8, addend: 0x0, symName: __RINvMNtCsfvfooZQ3Axs_4core6optionINtB3_6OptionRNtNtCs6IAuOt8vWmF_3syn4path11PathSegmentE7or_elseNCNvXsx_NtBN_10punctuatedINtB1E_11PrivateIterBJ_NtNtBN_5token7PathSepENtNtNtNtB5_4iter6traits12double_ended19DoubleEndedIterator9next_back0EBN_, symObjAddr: 0x2B64, symBinAddr: 0x5493C, symSize: 0xA8 }
  - { offset: 0xE15B6, size: 0x8, addend: 0x0, symName: __RINvMNtCsfvfooZQ3Axs_4core6optionINtB3_6OptionRNtNtCs6IAuOt8vWmF_3syn4path15GenericArgumentE3mapINtNtBN_10punctuated4PairBI_RNtNtBN_5token5CommaENcNtB1w_3End0EBN_, symObjAddr: 0x2C0C, symBinAddr: 0x549E4, symSize: 0x68 }
  - { offset: 0xE1621, size: 0x8, addend: 0x0, symName: __RINvMNtCsfvfooZQ3Axs_4core6optionINtB3_6OptionRNtNtCs6IAuOt8vWmF_3syn5token3MutE3mapBJ_NCNvXs9_NtNtBN_4item7parsingNtB1x_8ReceiverNtNtBN_5parse5Parse5parse0EBN_, symObjAddr: 0x2C74, symBinAddr: 0x54A4C, symSize: 0x5C }
  - { offset: 0xE16A4, size: 0x8, addend: 0x0, symName: __RINvMNtCsfvfooZQ3Axs_4core6optionINtB3_6OptionRNtNtCs6IAuOt8vWmF_3syn8generics12GenericParamE3mapINtNtBN_10punctuated4PairBI_RNtNtBN_5token5CommaENcNtB1x_3End0EBN_, symObjAddr: 0x2CD0, symBinAddr: 0x54AA8, symSize: 0x68 }
  - { offset: 0xE1741, size: 0x8, addend: 0x0, symName: __RINvMNtCsfvfooZQ3Axs_4core6optionINtB3_6OptionRNtNtCs6IAuOt8vWmF_3syn8generics13CapturedParamE3mapINtNtBN_10punctuated4PairBI_RNtNtBN_5token5CommaENcNtB1y_3End0EBN_, symObjAddr: 0x2E88, symBinAddr: 0x54B10, symSize: 0x68 }
  - { offset: 0xE17C4, size: 0x8, addend: 0x0, symName: __RINvMNtCsfvfooZQ3Axs_4core6optionINtB3_6OptionRNtNtCs6IAuOt8vWmF_3syn8generics14TypeParamBoundE3mapINtNtBN_10punctuated4PairBI_RNtNtBN_5token4PlusENcNtB1z_3End0EBN_, symObjAddr: 0x2EF0, symBinAddr: 0x54B78, symSize: 0x68 }
  - { offset: 0xE182F, size: 0x8, addend: 0x0, symName: __RINvMNtCsfvfooZQ3Axs_4core6optionINtB3_6OptionRNtNtCs6IAuOt8vWmF_3syn8generics14TypeParamBoundE7or_elseNCNvXsw_NtBN_10punctuatedINtB1L_11PrivateIterBJ_NtNtBN_5token4PlusENtNtNtNtB5_4iter6traits8iterator8Iterator4nexts_0EBN_, symObjAddr: 0x2F58, symBinAddr: 0x54BE0, symSize: 0xA8 }
  - { offset: 0xE18B8, size: 0x8, addend: 0x0, symName: __RINvMNtCsfvfooZQ3Axs_4core6optionINtB3_6OptionRNtNtCs6IAuOt8vWmF_3syn8generics14TypeParamBoundE7or_elseNCNvXsx_NtBN_10punctuatedINtB1L_11PrivateIterBJ_NtNtBN_5token4PlusENtNtNtNtB5_4iter6traits12double_ended19DoubleEndedIterator9next_back0EBN_, symObjAddr: 0x3000, symBinAddr: 0x54C88, symSize: 0xA8 }
  - { offset: 0xE1932, size: 0x8, addend: 0x0, symName: __RINvMNtCsfvfooZQ3Axs_4core6optionINtB3_6OptionRNtNtCs6IAuOt8vWmF_3syn8generics14WherePredicateE3mapINtNtBN_10punctuated4PairBI_RNtNtBN_5token5CommaENcNtB1z_3End0EBN_, symObjAddr: 0x30A8, symBinAddr: 0x54D30, symSize: 0x68 }
  - { offset: 0xE19B5, size: 0x8, addend: 0x0, symName: __RINvMNtCsfvfooZQ3Axs_4core6optionINtB3_6OptionRNtNtCs6IAuOt8vWmF_3syn8lifetime8LifetimeE3mapINtNtBN_10punctuated4PairBI_RNtNtBN_5token4PlusENcNtB1s_3End0EBN_, symObjAddr: 0x3110, symBinAddr: 0x54D98, symSize: 0x68 }
  - { offset: 0xE1A2D, size: 0x8, addend: 0x0, symName: __RINvMNtCsfvfooZQ3Axs_4core6optionINtB3_6OptionRTNtNtCs6IAuOt8vWmF_3syn2ty4TypeNtNtBO_5token5CommaEE3mapINtNtBO_10punctuated4PairRBK_RB1e_ENCNvXsc_B1G_INtB1G_5PairsBK_B1e_ENtNtNtNtB5_4iter6traits8iterator8Iterator4next0EBO_, symObjAddr: 0x3178, symBinAddr: 0x54E00, symSize: 0x68 }
  - { offset: 0xE1AA5, size: 0x8, addend: 0x0, symName: __RINvMNtCsfvfooZQ3Axs_4core6optionINtB3_6OptionRTNtNtCs6IAuOt8vWmF_3syn2ty9BareFnArgNtNtBO_5token5CommaEE3mapINtNtBO_10punctuated4PairRBK_RB1j_ENCNvXsc_B1L_INtB1L_5PairsBK_B1j_ENtNtNtNtB5_4iter6traits8iterator8Iterator4next0EBO_, symObjAddr: 0x31E0, symBinAddr: 0x54E68, symSize: 0x68 }
  - { offset: 0xE1B1D, size: 0x8, addend: 0x0, symName: __RINvMNtCsfvfooZQ3Axs_4core6optionINtB3_6OptionRTNtNtCs6IAuOt8vWmF_3syn3pat3PatNtNtBO_5token2OrEE3mapINtNtBO_10punctuated4PairRBK_RB1e_ENCNvXsc_B1D_INtB1D_5PairsBK_B1e_ENtNtNtNtB5_4iter6traits8iterator8Iterator4next0EBO_, symObjAddr: 0x3248, symBinAddr: 0x54ED0, symSize: 0x68 }
  - { offset: 0xE1B95, size: 0x8, addend: 0x0, symName: __RINvMNtCsfvfooZQ3Axs_4core6optionINtB3_6OptionRTNtNtCs6IAuOt8vWmF_3syn3pat3PatNtNtBO_5token5CommaEE3mapINtNtBO_10punctuated4PairRBK_RB1e_ENCNvXsc_B1G_INtB1G_5PairsBK_B1e_ENtNtNtNtB5_4iter6traits8iterator8Iterator4next0EBO_, symObjAddr: 0x32B0, symBinAddr: 0x54F38, symSize: 0x68 }
  - { offset: 0xE1C0D, size: 0x8, addend: 0x0, symName: __RINvMNtCsfvfooZQ3Axs_4core6optionINtB3_6OptionRTNtNtCs6IAuOt8vWmF_3syn3pat8FieldPatNtNtBO_5token5CommaEE3mapINtNtBO_10punctuated4PairRBK_RB1j_ENCNvXsc_B1L_INtB1L_5PairsBK_B1j_ENtNtNtNtB5_4iter6traits8iterator8Iterator4next0EBO_, symObjAddr: 0x3318, symBinAddr: 0x54FA0, symSize: 0x68 }
  - { offset: 0xE1C78, size: 0x8, addend: 0x0, symName: __RINvMNtCsfvfooZQ3Axs_4core6optionINtB3_6OptionRTNtNtCs6IAuOt8vWmF_3syn4data5FieldNtNtBO_5token5CommaEE3mapINtNtBO_10punctuated4PairRBK_RB1h_ENCNvXsc_B1J_INtB1J_5PairsBK_B1h_ENtNtNtNtB5_4iter6traits8iterator8Iterator4next0EBO_, symObjAddr: 0x3380, symBinAddr: 0x55008, symSize: 0x68 }
  - { offset: 0xE1CF0, size: 0x8, addend: 0x0, symName: __RINvMNtCsfvfooZQ3Axs_4core6optionINtB3_6OptionRTNtNtCs6IAuOt8vWmF_3syn4data7VariantNtNtBO_5token5CommaEE3mapINtNtBO_10punctuated4PairRBK_RB1j_ENCNvXsc_B1L_INtB1L_5PairsBK_B1j_ENtNtNtNtB5_4iter6traits8iterator8Iterator4next0EBO_, symObjAddr: 0x3488, symBinAddr: 0x55070, symSize: 0x68 }
  - { offset: 0xE1D68, size: 0x8, addend: 0x0, symName: __RINvMNtCsfvfooZQ3Axs_4core6optionINtB3_6OptionRTNtNtCs6IAuOt8vWmF_3syn4expr10FieldValueNtNtBO_5token5CommaEE3mapINtNtBO_10punctuated4PairRBK_RB1n_ENCNvXsc_B1P_INtB1P_5PairsBK_B1n_ENtNtNtNtB5_4iter6traits8iterator8Iterator4next0EBO_, symObjAddr: 0x34F0, symBinAddr: 0x550D8, symSize: 0x68 }
  - { offset: 0xE1DE0, size: 0x8, addend: 0x0, symName: __RINvMNtCsfvfooZQ3Axs_4core6optionINtB3_6OptionRTNtNtCs6IAuOt8vWmF_3syn4expr4ExprNtNtBO_5token5CommaEE3mapINtNtBO_10punctuated4PairRBK_RB1g_ENCNvXsc_B1I_INtB1I_5PairsBK_B1g_ENtNtNtNtB5_4iter6traits8iterator8Iterator4next0EBO_, symObjAddr: 0x3558, symBinAddr: 0x55140, symSize: 0x68 }
  - { offset: 0xE1E4B, size: 0x8, addend: 0x0, symName: __RINvMNtCsfvfooZQ3Axs_4core6optionINtB3_6OptionRTNtNtCs6IAuOt8vWmF_3syn4item5FnArgNtNtBO_5token5CommaEE3mapINtNtBO_10punctuated4PairRBK_RB1h_ENCNvXsc_B1J_INtB1J_5PairsBK_B1h_ENtNtNtNtB5_4iter6traits8iterator8Iterator4next0EBO_, symObjAddr: 0x35C0, symBinAddr: 0x551A8, symSize: 0x68 }
  - { offset: 0xE1EC3, size: 0x8, addend: 0x0, symName: __RINvMNtCsfvfooZQ3Axs_4core6optionINtB3_6OptionRTNtNtCs6IAuOt8vWmF_3syn4item7UseTreeNtNtBO_5token5CommaEE3mapINtNtBO_10punctuated4PairRBK_RB1j_ENCNvXsc_B1L_INtB1L_5PairsBK_B1j_ENtNtNtNtB5_4iter6traits8iterator8Iterator4next0EBO_, symObjAddr: 0x36C8, symBinAddr: 0x55210, symSize: 0x68 }
  - { offset: 0xE1F2E, size: 0x8, addend: 0x0, symName: __RINvMNtCsfvfooZQ3Axs_4core6optionINtB3_6OptionRTNtNtCs6IAuOt8vWmF_3syn4path11PathSegmentNtNtBO_5token7PathSepEE3mapINtNtBO_10punctuated4PairRBK_RB1o_ENCNvXsc_B1S_INtB1S_5PairsBK_B1o_ENtNtNtNtB5_4iter6traits8iterator8Iterator4next0EBO_, symObjAddr: 0x3730, symBinAddr: 0x55278, symSize: 0x68 }
  - { offset: 0xE1F99, size: 0x8, addend: 0x0, symName: __RINvMNtCsfvfooZQ3Axs_4core6optionINtB3_6OptionRTNtNtCs6IAuOt8vWmF_3syn4path11PathSegmentNtNtBO_5token7PathSepEE3mapRBK_NCNCNvXsx_NtBO_10punctuatedINtB23_11PrivateIterBK_B1o_ENtNtNtNtB5_4iter6traits12double_ended19DoubleEndedIterator9next_back00EBO_, symObjAddr: 0x3798, symBinAddr: 0x552E0, symSize: 0x50 }
  - { offset: 0xE2004, size: 0x8, addend: 0x0, symName: __RINvMNtCsfvfooZQ3Axs_4core6optionINtB3_6OptionRTNtNtCs6IAuOt8vWmF_3syn4path11PathSegmentNtNtBO_5token7PathSepEE3mapRBK_NCNvXsw_NtBO_10punctuatedINtB21_11PrivateIterBK_B1o_ENtNtNtNtB5_4iter6traits8iterator8Iterator4next0EBO_, symObjAddr: 0x37E8, symBinAddr: 0x55330, symSize: 0x50 }
  - { offset: 0xE207C, size: 0x8, addend: 0x0, symName: __RINvMNtCsfvfooZQ3Axs_4core6optionINtB3_6OptionRTNtNtCs6IAuOt8vWmF_3syn4path15GenericArgumentNtNtBO_5token5CommaEE3mapINtNtBO_10punctuated4PairRBK_RB1s_ENCNvXsc_B1U_INtB1U_5PairsBK_B1s_ENtNtNtNtB5_4iter6traits8iterator8Iterator4next0EBO_, symObjAddr: 0x3838, symBinAddr: 0x55380, symSize: 0x68 }
  - { offset: 0xE20E7, size: 0x8, addend: 0x0, symName: __RINvMNtCsfvfooZQ3Axs_4core6optionINtB3_6OptionRTNtNtCs6IAuOt8vWmF_3syn8generics12GenericParamNtNtBO_5token5CommaEE3mapINtNtBO_10punctuated4PairRBK_RB1t_ENCNvXsc_B1V_INtB1V_5PairsBK_B1t_ENtNtNtNtB5_4iter6traits8iterator8Iterator4next0EBO_, symObjAddr: 0x38A0, symBinAddr: 0x553E8, symSize: 0x68 }
  - { offset: 0xE215F, size: 0x8, addend: 0x0, symName: __RINvMNtCsfvfooZQ3Axs_4core6optionINtB3_6OptionRTNtNtCs6IAuOt8vWmF_3syn8generics13CapturedParamNtNtBO_5token5CommaEE3mapINtNtBO_10punctuated4PairRBK_RB1u_ENCNvXsc_B1W_INtB1W_5PairsBK_B1u_ENtNtNtNtB5_4iter6traits8iterator8Iterator4next0EBO_, symObjAddr: 0x39A8, symBinAddr: 0x55450, symSize: 0x68 }
  - { offset: 0xE21CA, size: 0x8, addend: 0x0, symName: __RINvMNtCsfvfooZQ3Axs_4core6optionINtB3_6OptionRTNtNtCs6IAuOt8vWmF_3syn8generics14TypeParamBoundNtNtBO_5token4PlusEE3mapINtNtBO_10punctuated4PairRBK_RB1v_ENCNvXsc_B1W_INtB1W_5PairsBK_B1v_ENtNtNtNtB5_4iter6traits8iterator8Iterator4next0EBO_, symObjAddr: 0x3A10, symBinAddr: 0x554B8, symSize: 0x68 }
  - { offset: 0xE2235, size: 0x8, addend: 0x0, symName: __RINvMNtCsfvfooZQ3Axs_4core6optionINtB3_6OptionRTNtNtCs6IAuOt8vWmF_3syn8generics14TypeParamBoundNtNtBO_5token4PlusEE3mapRBK_NCNCNvXsx_NtBO_10punctuatedINtB27_11PrivateIterBK_B1v_ENtNtNtNtB5_4iter6traits12double_ended19DoubleEndedIterator9next_back00EBO_, symObjAddr: 0x3A78, symBinAddr: 0x55520, symSize: 0x50 }
  - { offset: 0xE22A0, size: 0x8, addend: 0x0, symName: __RINvMNtCsfvfooZQ3Axs_4core6optionINtB3_6OptionRTNtNtCs6IAuOt8vWmF_3syn8generics14TypeParamBoundNtNtBO_5token4PlusEE3mapRBK_NCNvXsw_NtBO_10punctuatedINtB25_11PrivateIterBK_B1v_ENtNtNtNtB5_4iter6traits8iterator8Iterator4next0EBO_, symObjAddr: 0x3AC8, symBinAddr: 0x55570, symSize: 0x50 }
  - { offset: 0xE2318, size: 0x8, addend: 0x0, symName: __RINvMNtCsfvfooZQ3Axs_4core6optionINtB3_6OptionRTNtNtCs6IAuOt8vWmF_3syn8generics14WherePredicateNtNtBO_5token5CommaEE3mapINtNtBO_10punctuated4PairRBK_RB1v_ENCNvXsc_B1X_INtB1X_5PairsBK_B1v_ENtNtNtNtB5_4iter6traits8iterator8Iterator4next0EBO_, symObjAddr: 0x3B18, symBinAddr: 0x555C0, symSize: 0x68 }
  - { offset: 0xE2390, size: 0x8, addend: 0x0, symName: __RINvMNtCsfvfooZQ3Axs_4core6optionINtB3_6OptionRTNtNtCs6IAuOt8vWmF_3syn8lifetime8LifetimeNtNtBO_5token4PlusEE3mapINtNtBO_10punctuated4PairRBK_RB1o_ENCNvXsc_B1P_INtB1P_5PairsBK_B1o_ENtNtNtNtB5_4iter6traits8iterator8Iterator4next0EBO_, symObjAddr: 0x3B80, symBinAddr: 0x55628, symSize: 0x68 }
  - { offset: 0xE23FB, size: 0x8, addend: 0x0, symName: __RINvMNtCsfvfooZQ3Axs_4core6optionINtB3_6OptionTNtNtCs6IAuOt8vWmF_3syn4path11PathSegmentNtNtBN_5token7PathSepEE3mapINtNtBN_10punctuated4PairBJ_B1n_ENCNvMB1R_INtB1R_10PunctuatedBJ_B1n_E3pops_0EBN_, symObjAddr: 0x3BE8, symBinAddr: 0x55690, symSize: 0xA8 }
  - { offset: 0xE2467, size: 0x8, addend: 0x0, symName: __RINvMNtCsfvfooZQ3Axs_4core6optionINtB3_6OptionTNtNtCs6IAuOt8vWmF_3syn4path11PathSegmentNtNtBN_5token7PathSepEE3mapINtNtBN_10punctuated4PairBJ_B1n_ENCNvXsj_B1R_INtB1R_9IntoPairsBJ_B1n_ENtNtNtNtB5_4iter6traits8iterator8Iterator4next0EBN_, symObjAddr: 0x3C90, symBinAddr: 0x55738, symSize: 0xA8 }
  - { offset: 0xE2516, size: 0x8, addend: 0x0, symName: __RINvMNtCsfvfooZQ3Axs_4core6optionINtB3_6OptionTNtNtCs6IAuOt8vWmF_3syn8lifetime8LifetimeNtNtBN_6buffer6CursorEE10ok_or_elseNtNtBN_5error5ErrorNCNCNvXNtBL_7parsingBJ_NtNtBN_5parse5Parse5parse00EBN_, symObjAddr: 0x3D38, symBinAddr: 0x557E0, symSize: 0x98 }
  - { offset: 0xE26AA, size: 0x8, addend: 0x0, symName: __RINvMs3_NtCsfvfooZQ3Axs_4core3fmtNtB6_9Arguments6new_v1Kj2_KBS_ECs6IAuOt8vWmF_3syn, symObjAddr: 0x3DD0, symBinAddr: 0x55878, symSize: 0x50 }
  - { offset: 0xE2703, size: 0x8, addend: 0x0, symName: __RNvMNtCsfvfooZQ3Axs_4core6optionINtB2_6OptionINtNtCse1nGBsou5OW_5alloc5boxed3BoxNtNtCs6IAuOt8vWmF_3syn2ty4TypeEE4takeB1k_, symObjAddr: 0x45C8, symBinAddr: 0x55EF8, symSize: 0x28 }
  - { offset: 0xE2796, size: 0x8, addend: 0x0, symName: __RNvMNtCsfvfooZQ3Axs_4core6optionINtB2_6OptionINtNtCse1nGBsou5OW_5alloc5boxed3BoxNtNtCs6IAuOt8vWmF_3syn2ty4TypeEE6as_refB1k_, symObjAddr: 0x45F0, symBinAddr: 0x55F20, symSize: 0x4C }
  - { offset: 0xE27FC, size: 0x8, addend: 0x0, symName: __RNvMNtCsfvfooZQ3Axs_4core6optionINtB2_6OptionINtNtCse1nGBsou5OW_5alloc5boxed3BoxNtNtCs6IAuOt8vWmF_3syn2ty4TypeEE7is_noneB1k_, symObjAddr: 0x463C, symBinAddr: 0x55F6C, symSize: 0x28 }
  - { offset: 0xE2846, size: 0x8, addend: 0x0, symName: __RNvMNtCsfvfooZQ3Axs_4core6optionINtB2_6OptionINtNtCse1nGBsou5OW_5alloc5boxed3BoxNtNtCs6IAuOt8vWmF_3syn2ty4TypeEE7is_someB1k_, symObjAddr: 0x4664, symBinAddr: 0x55F94, symSize: 0x28 }
  - { offset: 0xE287F, size: 0x8, addend: 0x0, symName: __RNvMNtCsfvfooZQ3Axs_4core6optionINtB2_6OptionINtNtCse1nGBsou5OW_5alloc5boxed3BoxNtNtCs6IAuOt8vWmF_3syn2ty9BareFnArgEE4takeB1k_, symObjAddr: 0x468C, symBinAddr: 0x55FBC, symSize: 0x28 }
  - { offset: 0xE2912, size: 0x8, addend: 0x0, symName: __RNvMNtCsfvfooZQ3Axs_4core6optionINtB2_6OptionINtNtCse1nGBsou5OW_5alloc5boxed3BoxNtNtCs6IAuOt8vWmF_3syn2ty9BareFnArgEE6as_refB1k_, symObjAddr: 0x46B4, symBinAddr: 0x55FE4, symSize: 0x4C }
  - { offset: 0xE2978, size: 0x8, addend: 0x0, symName: __RNvMNtCsfvfooZQ3Axs_4core6optionINtB2_6OptionINtNtCse1nGBsou5OW_5alloc5boxed3BoxNtNtCs6IAuOt8vWmF_3syn2ty9BareFnArgEE7is_noneB1k_, symObjAddr: 0x4700, symBinAddr: 0x56030, symSize: 0x28 }
  - { offset: 0xE29C2, size: 0x8, addend: 0x0, symName: __RNvMNtCsfvfooZQ3Axs_4core6optionINtB2_6OptionINtNtCse1nGBsou5OW_5alloc5boxed3BoxNtNtCs6IAuOt8vWmF_3syn2ty9BareFnArgEE7is_someB1k_, symObjAddr: 0x4728, symBinAddr: 0x56058, symSize: 0x28 }
  - { offset: 0xE29FB, size: 0x8, addend: 0x0, symName: __RNvMNtCsfvfooZQ3Axs_4core6optionINtB2_6OptionINtNtCse1nGBsou5OW_5alloc5boxed3BoxNtNtCs6IAuOt8vWmF_3syn3pat3PatEE4takeB1k_, symObjAddr: 0x4750, symBinAddr: 0x56080, symSize: 0x28 }
  - { offset: 0xE2A8E, size: 0x8, addend: 0x0, symName: __RNvMNtCsfvfooZQ3Axs_4core6optionINtB2_6OptionINtNtCse1nGBsou5OW_5alloc5boxed3BoxNtNtCs6IAuOt8vWmF_3syn3pat3PatEE6as_refB1k_, symObjAddr: 0x4778, symBinAddr: 0x560A8, symSize: 0x4C }
  - { offset: 0xE2AF4, size: 0x8, addend: 0x0, symName: __RNvMNtCsfvfooZQ3Axs_4core6optionINtB2_6OptionINtNtCse1nGBsou5OW_5alloc5boxed3BoxNtNtCs6IAuOt8vWmF_3syn3pat3PatEE7is_noneB1k_, symObjAddr: 0x47C4, symBinAddr: 0x560F4, symSize: 0x28 }
  - { offset: 0xE2B3E, size: 0x8, addend: 0x0, symName: __RNvMNtCsfvfooZQ3Axs_4core6optionINtB2_6OptionINtNtCse1nGBsou5OW_5alloc5boxed3BoxNtNtCs6IAuOt8vWmF_3syn3pat3PatEE7is_someB1k_, symObjAddr: 0x47EC, symBinAddr: 0x5611C, symSize: 0x28 }
  - { offset: 0xE2B77, size: 0x8, addend: 0x0, symName: __RNvMNtCsfvfooZQ3Axs_4core6optionINtB2_6OptionINtNtCse1nGBsou5OW_5alloc5boxed3BoxNtNtCs6IAuOt8vWmF_3syn3pat8FieldPatEE4takeB1k_, symObjAddr: 0x4814, symBinAddr: 0x56144, symSize: 0x28 }
  - { offset: 0xE2C0A, size: 0x8, addend: 0x0, symName: __RNvMNtCsfvfooZQ3Axs_4core6optionINtB2_6OptionINtNtCse1nGBsou5OW_5alloc5boxed3BoxNtNtCs6IAuOt8vWmF_3syn3pat8FieldPatEE6as_refB1k_, symObjAddr: 0x483C, symBinAddr: 0x5616C, symSize: 0x4C }
  - { offset: 0xE2C70, size: 0x8, addend: 0x0, symName: __RNvMNtCsfvfooZQ3Axs_4core6optionINtB2_6OptionINtNtCse1nGBsou5OW_5alloc5boxed3BoxNtNtCs6IAuOt8vWmF_3syn3pat8FieldPatEE7is_noneB1k_, symObjAddr: 0x4888, symBinAddr: 0x561B8, symSize: 0x28 }
  - { offset: 0xE2CBA, size: 0x8, addend: 0x0, symName: __RNvMNtCsfvfooZQ3Axs_4core6optionINtB2_6OptionINtNtCse1nGBsou5OW_5alloc5boxed3BoxNtNtCs6IAuOt8vWmF_3syn3pat8FieldPatEE7is_someB1k_, symObjAddr: 0x48B0, symBinAddr: 0x561E0, symSize: 0x28 }
  - { offset: 0xE2CF3, size: 0x8, addend: 0x0, symName: __RNvMNtCsfvfooZQ3Axs_4core6optionINtB2_6OptionINtNtCse1nGBsou5OW_5alloc5boxed3BoxNtNtCs6IAuOt8vWmF_3syn4data5FieldEE4takeB1k_, symObjAddr: 0x48D8, symBinAddr: 0x56208, symSize: 0x28 }
  - { offset: 0xE2D86, size: 0x8, addend: 0x0, symName: __RNvMNtCsfvfooZQ3Axs_4core6optionINtB2_6OptionINtNtCse1nGBsou5OW_5alloc5boxed3BoxNtNtCs6IAuOt8vWmF_3syn4data5FieldEE6as_refB1k_, symObjAddr: 0x494C, symBinAddr: 0x56230, symSize: 0x4C }
  - { offset: 0xE2DEC, size: 0x8, addend: 0x0, symName: __RNvMNtCsfvfooZQ3Axs_4core6optionINtB2_6OptionINtNtCse1nGBsou5OW_5alloc5boxed3BoxNtNtCs6IAuOt8vWmF_3syn4data5FieldEE7is_noneB1k_, symObjAddr: 0x4998, symBinAddr: 0x5627C, symSize: 0x28 }
  - { offset: 0xE2E36, size: 0x8, addend: 0x0, symName: __RNvMNtCsfvfooZQ3Axs_4core6optionINtB2_6OptionINtNtCse1nGBsou5OW_5alloc5boxed3BoxNtNtCs6IAuOt8vWmF_3syn4data5FieldEE7is_someB1k_, symObjAddr: 0x49C0, symBinAddr: 0x562A4, symSize: 0x28 }
  - { offset: 0xE2E6F, size: 0x8, addend: 0x0, symName: __RNvMNtCsfvfooZQ3Axs_4core6optionINtB2_6OptionINtNtCse1nGBsou5OW_5alloc5boxed3BoxNtNtCs6IAuOt8vWmF_3syn4data7VariantEE4takeB1k_, symObjAddr: 0x49E8, symBinAddr: 0x562CC, symSize: 0x28 }
  - { offset: 0xE2F02, size: 0x8, addend: 0x0, symName: __RNvMNtCsfvfooZQ3Axs_4core6optionINtB2_6OptionINtNtCse1nGBsou5OW_5alloc5boxed3BoxNtNtCs6IAuOt8vWmF_3syn4data7VariantEE6as_refB1k_, symObjAddr: 0x4A10, symBinAddr: 0x562F4, symSize: 0x4C }
  - { offset: 0xE2F68, size: 0x8, addend: 0x0, symName: __RNvMNtCsfvfooZQ3Axs_4core6optionINtB2_6OptionINtNtCse1nGBsou5OW_5alloc5boxed3BoxNtNtCs6IAuOt8vWmF_3syn4data7VariantEE7is_noneB1k_, symObjAddr: 0x4A5C, symBinAddr: 0x56340, symSize: 0x28 }
  - { offset: 0xE2FB2, size: 0x8, addend: 0x0, symName: __RNvMNtCsfvfooZQ3Axs_4core6optionINtB2_6OptionINtNtCse1nGBsou5OW_5alloc5boxed3BoxNtNtCs6IAuOt8vWmF_3syn4data7VariantEE7is_someB1k_, symObjAddr: 0x4A84, symBinAddr: 0x56368, symSize: 0x28 }
  - { offset: 0xE2FEB, size: 0x8, addend: 0x0, symName: __RNvMNtCsfvfooZQ3Axs_4core6optionINtB2_6OptionINtNtCse1nGBsou5OW_5alloc5boxed3BoxNtNtCs6IAuOt8vWmF_3syn4expr10FieldValueEE4takeB1k_, symObjAddr: 0x4AAC, symBinAddr: 0x56390, symSize: 0x28 }
  - { offset: 0xE307E, size: 0x8, addend: 0x0, symName: __RNvMNtCsfvfooZQ3Axs_4core6optionINtB2_6OptionINtNtCse1nGBsou5OW_5alloc5boxed3BoxNtNtCs6IAuOt8vWmF_3syn4expr10FieldValueEE6as_refB1k_, symObjAddr: 0x4AD4, symBinAddr: 0x563B8, symSize: 0x4C }
  - { offset: 0xE30E4, size: 0x8, addend: 0x0, symName: __RNvMNtCsfvfooZQ3Axs_4core6optionINtB2_6OptionINtNtCse1nGBsou5OW_5alloc5boxed3BoxNtNtCs6IAuOt8vWmF_3syn4expr10FieldValueEE7is_noneB1k_, symObjAddr: 0x4B20, symBinAddr: 0x56404, symSize: 0x28 }
  - { offset: 0xE312E, size: 0x8, addend: 0x0, symName: __RNvMNtCsfvfooZQ3Axs_4core6optionINtB2_6OptionINtNtCse1nGBsou5OW_5alloc5boxed3BoxNtNtCs6IAuOt8vWmF_3syn4expr10FieldValueEE7is_someB1k_, symObjAddr: 0x4B48, symBinAddr: 0x5642C, symSize: 0x28 }
  - { offset: 0xE3167, size: 0x8, addend: 0x0, symName: __RNvMNtCsfvfooZQ3Axs_4core6optionINtB2_6OptionINtNtCse1nGBsou5OW_5alloc5boxed3BoxNtNtCs6IAuOt8vWmF_3syn4expr4ExprEE4takeB1k_, symObjAddr: 0x4B70, symBinAddr: 0x56454, symSize: 0x28 }
  - { offset: 0xE31FA, size: 0x8, addend: 0x0, symName: __RNvMNtCsfvfooZQ3Axs_4core6optionINtB2_6OptionINtNtCse1nGBsou5OW_5alloc5boxed3BoxNtNtCs6IAuOt8vWmF_3syn4expr4ExprEE6as_refB1k_, symObjAddr: 0x4B98, symBinAddr: 0x5647C, symSize: 0x4C }
  - { offset: 0xE3260, size: 0x8, addend: 0x0, symName: __RNvMNtCsfvfooZQ3Axs_4core6optionINtB2_6OptionINtNtCse1nGBsou5OW_5alloc5boxed3BoxNtNtCs6IAuOt8vWmF_3syn4expr4ExprEE7is_noneB1k_, symObjAddr: 0x4BE4, symBinAddr: 0x564C8, symSize: 0x28 }
  - { offset: 0xE32AA, size: 0x8, addend: 0x0, symName: __RNvMNtCsfvfooZQ3Axs_4core6optionINtB2_6OptionINtNtCse1nGBsou5OW_5alloc5boxed3BoxNtNtCs6IAuOt8vWmF_3syn4expr4ExprEE7is_someB1k_, symObjAddr: 0x4C0C, symBinAddr: 0x564F0, symSize: 0x28 }
  - { offset: 0xE32E3, size: 0x8, addend: 0x0, symName: __RNvMNtCsfvfooZQ3Axs_4core6optionINtB2_6OptionINtNtCse1nGBsou5OW_5alloc5boxed3BoxNtNtCs6IAuOt8vWmF_3syn4item5FnArgEE4takeB1k_, symObjAddr: 0x4C34, symBinAddr: 0x56518, symSize: 0x28 }
  - { offset: 0xE3376, size: 0x8, addend: 0x0, symName: __RNvMNtCsfvfooZQ3Axs_4core6optionINtB2_6OptionINtNtCse1nGBsou5OW_5alloc5boxed3BoxNtNtCs6IAuOt8vWmF_3syn4item5FnArgEE6as_refB1k_, symObjAddr: 0x4C5C, symBinAddr: 0x56540, symSize: 0x4C }
  - { offset: 0xE33DC, size: 0x8, addend: 0x0, symName: __RNvMNtCsfvfooZQ3Axs_4core6optionINtB2_6OptionINtNtCse1nGBsou5OW_5alloc5boxed3BoxNtNtCs6IAuOt8vWmF_3syn4item5FnArgEE7is_noneB1k_, symObjAddr: 0x4CA8, symBinAddr: 0x5658C, symSize: 0x28 }
  - { offset: 0xE3426, size: 0x8, addend: 0x0, symName: __RNvMNtCsfvfooZQ3Axs_4core6optionINtB2_6OptionINtNtCse1nGBsou5OW_5alloc5boxed3BoxNtNtCs6IAuOt8vWmF_3syn4item5FnArgEE7is_someB1k_, symObjAddr: 0x4CD0, symBinAddr: 0x565B4, symSize: 0x28 }
  - { offset: 0xE345F, size: 0x8, addend: 0x0, symName: __RNvMNtCsfvfooZQ3Axs_4core6optionINtB2_6OptionINtNtCse1nGBsou5OW_5alloc5boxed3BoxNtNtCs6IAuOt8vWmF_3syn4item7UseTreeEE4takeB1k_, symObjAddr: 0x4CF8, symBinAddr: 0x565DC, symSize: 0x28 }
  - { offset: 0xE34F2, size: 0x8, addend: 0x0, symName: __RNvMNtCsfvfooZQ3Axs_4core6optionINtB2_6OptionINtNtCse1nGBsou5OW_5alloc5boxed3BoxNtNtCs6IAuOt8vWmF_3syn4item7UseTreeEE6as_refB1k_, symObjAddr: 0x4D20, symBinAddr: 0x56604, symSize: 0x4C }
  - { offset: 0xE3558, size: 0x8, addend: 0x0, symName: __RNvMNtCsfvfooZQ3Axs_4core6optionINtB2_6OptionINtNtCse1nGBsou5OW_5alloc5boxed3BoxNtNtCs6IAuOt8vWmF_3syn4item7UseTreeEE7is_noneB1k_, symObjAddr: 0x4D6C, symBinAddr: 0x56650, symSize: 0x28 }
  - { offset: 0xE35A2, size: 0x8, addend: 0x0, symName: __RNvMNtCsfvfooZQ3Axs_4core6optionINtB2_6OptionINtNtCse1nGBsou5OW_5alloc5boxed3BoxNtNtCs6IAuOt8vWmF_3syn4item7UseTreeEE7is_someB1k_, symObjAddr: 0x4D94, symBinAddr: 0x56678, symSize: 0x28 }
  - { offset: 0xE35DB, size: 0x8, addend: 0x0, symName: __RNvMNtCsfvfooZQ3Axs_4core6optionINtB2_6OptionINtNtCse1nGBsou5OW_5alloc5boxed3BoxNtNtCs6IAuOt8vWmF_3syn4path11PathSegmentEE4takeB1k_, symObjAddr: 0x4DBC, symBinAddr: 0x566A0, symSize: 0x28 }
  - { offset: 0xE3661, size: 0x8, addend: 0x0, symName: __RNvMNtCsfvfooZQ3Axs_4core6optionINtB2_6OptionINtNtCse1nGBsou5OW_5alloc5boxed3BoxNtNtCs6IAuOt8vWmF_3syn4path11PathSegmentEE6as_mutB1k_, symObjAddr: 0x4DE4, symBinAddr: 0x566C8, symSize: 0x4C }
  - { offset: 0xE36B8, size: 0x8, addend: 0x0, symName: __RNvMNtCsfvfooZQ3Axs_4core6optionINtB2_6OptionINtNtCse1nGBsou5OW_5alloc5boxed3BoxNtNtCs6IAuOt8vWmF_3syn4path11PathSegmentEE6as_refB1k_, symObjAddr: 0x4E30, symBinAddr: 0x56714, symSize: 0x4C }
  - { offset: 0xE371E, size: 0x8, addend: 0x0, symName: __RNvMNtCsfvfooZQ3Axs_4core6optionINtB2_6OptionINtNtCse1nGBsou5OW_5alloc5boxed3BoxNtNtCs6IAuOt8vWmF_3syn4path11PathSegmentEE7is_noneB1k_, symObjAddr: 0x4E7C, symBinAddr: 0x56760, symSize: 0x28 }
  - { offset: 0xE3768, size: 0x8, addend: 0x0, symName: __RNvMNtCsfvfooZQ3Axs_4core6optionINtB2_6OptionINtNtCse1nGBsou5OW_5alloc5boxed3BoxNtNtCs6IAuOt8vWmF_3syn4path11PathSegmentEE7is_someB1k_, symObjAddr: 0x4EA4, symBinAddr: 0x56788, symSize: 0x28 }
  - { offset: 0xE37A1, size: 0x8, addend: 0x0, symName: __RNvMNtCsfvfooZQ3Axs_4core6optionINtB2_6OptionINtNtCse1nGBsou5OW_5alloc5boxed3BoxNtNtCs6IAuOt8vWmF_3syn4path15GenericArgumentEE4takeB1k_, symObjAddr: 0x4ECC, symBinAddr: 0x567B0, symSize: 0x28 }
  - { offset: 0xE3834, size: 0x8, addend: 0x0, symName: __RNvMNtCsfvfooZQ3Axs_4core6optionINtB2_6OptionINtNtCse1nGBsou5OW_5alloc5boxed3BoxNtNtCs6IAuOt8vWmF_3syn4path15GenericArgumentEE6as_refB1k_, symObjAddr: 0x4EF4, symBinAddr: 0x567D8, symSize: 0x4C }
  - { offset: 0xE389A, size: 0x8, addend: 0x0, symName: __RNvMNtCsfvfooZQ3Axs_4core6optionINtB2_6OptionINtNtCse1nGBsou5OW_5alloc5boxed3BoxNtNtCs6IAuOt8vWmF_3syn4path15GenericArgumentEE7is_noneB1k_, symObjAddr: 0x4F40, symBinAddr: 0x56824, symSize: 0x28 }
  - { offset: 0xE38E4, size: 0x8, addend: 0x0, symName: __RNvMNtCsfvfooZQ3Axs_4core6optionINtB2_6OptionINtNtCse1nGBsou5OW_5alloc5boxed3BoxNtNtCs6IAuOt8vWmF_3syn4path15GenericArgumentEE7is_someB1k_, symObjAddr: 0x4F68, symBinAddr: 0x5684C, symSize: 0x28 }
  - { offset: 0xE391D, size: 0x8, addend: 0x0, symName: __RNvMNtCsfvfooZQ3Axs_4core6optionINtB2_6OptionINtNtCse1nGBsou5OW_5alloc5boxed3BoxNtNtCs6IAuOt8vWmF_3syn8generics12GenericParamEE4takeB1k_, symObjAddr: 0x4F90, symBinAddr: 0x56874, symSize: 0x28 }
  - { offset: 0xE39B0, size: 0x8, addend: 0x0, symName: __RNvMNtCsfvfooZQ3Axs_4core6optionINtB2_6OptionINtNtCse1nGBsou5OW_5alloc5boxed3BoxNtNtCs6IAuOt8vWmF_3syn8generics12GenericParamEE6as_refB1k_, symObjAddr: 0x5004, symBinAddr: 0x5689C, symSize: 0x4C }
  - { offset: 0xE3A16, size: 0x8, addend: 0x0, symName: __RNvMNtCsfvfooZQ3Axs_4core6optionINtB2_6OptionINtNtCse1nGBsou5OW_5alloc5boxed3BoxNtNtCs6IAuOt8vWmF_3syn8generics12GenericParamEE7is_noneB1k_, symObjAddr: 0x5050, symBinAddr: 0x568E8, symSize: 0x28 }
  - { offset: 0xE3A60, size: 0x8, addend: 0x0, symName: __RNvMNtCsfvfooZQ3Axs_4core6optionINtB2_6OptionINtNtCse1nGBsou5OW_5alloc5boxed3BoxNtNtCs6IAuOt8vWmF_3syn8generics12GenericParamEE7is_someB1k_, symObjAddr: 0x5078, symBinAddr: 0x56910, symSize: 0x28 }
  - { offset: 0xE3A99, size: 0x8, addend: 0x0, symName: __RNvMNtCsfvfooZQ3Axs_4core6optionINtB2_6OptionINtNtCse1nGBsou5OW_5alloc5boxed3BoxNtNtCs6IAuOt8vWmF_3syn8generics13CapturedParamEE4takeB1k_, symObjAddr: 0x50A0, symBinAddr: 0x56938, symSize: 0x28 }
  - { offset: 0xE3B2C, size: 0x8, addend: 0x0, symName: __RNvMNtCsfvfooZQ3Axs_4core6optionINtB2_6OptionINtNtCse1nGBsou5OW_5alloc5boxed3BoxNtNtCs6IAuOt8vWmF_3syn8generics13CapturedParamEE6as_refB1k_, symObjAddr: 0x50C8, symBinAddr: 0x56960, symSize: 0x4C }
  - { offset: 0xE3B92, size: 0x8, addend: 0x0, symName: __RNvMNtCsfvfooZQ3Axs_4core6optionINtB2_6OptionINtNtCse1nGBsou5OW_5alloc5boxed3BoxNtNtCs6IAuOt8vWmF_3syn8generics13CapturedParamEE7is_noneB1k_, symObjAddr: 0x5114, symBinAddr: 0x569AC, symSize: 0x28 }
  - { offset: 0xE3BDC, size: 0x8, addend: 0x0, symName: __RNvMNtCsfvfooZQ3Axs_4core6optionINtB2_6OptionINtNtCse1nGBsou5OW_5alloc5boxed3BoxNtNtCs6IAuOt8vWmF_3syn8generics13CapturedParamEE7is_someB1k_, symObjAddr: 0x513C, symBinAddr: 0x569D4, symSize: 0x28 }
  - { offset: 0xE3C15, size: 0x8, addend: 0x0, symName: __RNvMNtCsfvfooZQ3Axs_4core6optionINtB2_6OptionINtNtCse1nGBsou5OW_5alloc5boxed3BoxNtNtCs6IAuOt8vWmF_3syn8generics14TypeParamBoundEE4takeB1k_, symObjAddr: 0x5164, symBinAddr: 0x569FC, symSize: 0x28 }
  - { offset: 0xE3CA8, size: 0x8, addend: 0x0, symName: __RNvMNtCsfvfooZQ3Axs_4core6optionINtB2_6OptionINtNtCse1nGBsou5OW_5alloc5boxed3BoxNtNtCs6IAuOt8vWmF_3syn8generics14TypeParamBoundEE6as_refB1k_, symObjAddr: 0x518C, symBinAddr: 0x56A24, symSize: 0x4C }
  - { offset: 0xE3D0E, size: 0x8, addend: 0x0, symName: __RNvMNtCsfvfooZQ3Axs_4core6optionINtB2_6OptionINtNtCse1nGBsou5OW_5alloc5boxed3BoxNtNtCs6IAuOt8vWmF_3syn8generics14TypeParamBoundEE7is_noneB1k_, symObjAddr: 0x51D8, symBinAddr: 0x56A70, symSize: 0x28 }
  - { offset: 0xE3D58, size: 0x8, addend: 0x0, symName: __RNvMNtCsfvfooZQ3Axs_4core6optionINtB2_6OptionINtNtCse1nGBsou5OW_5alloc5boxed3BoxNtNtCs6IAuOt8vWmF_3syn8generics14TypeParamBoundEE7is_someB1k_, symObjAddr: 0x5200, symBinAddr: 0x56A98, symSize: 0x28 }
  - { offset: 0xE3D91, size: 0x8, addend: 0x0, symName: __RNvMNtCsfvfooZQ3Axs_4core6optionINtB2_6OptionINtNtCse1nGBsou5OW_5alloc5boxed3BoxNtNtCs6IAuOt8vWmF_3syn8generics14WherePredicateEE4takeB1k_, symObjAddr: 0x5228, symBinAddr: 0x56AC0, symSize: 0x28 }
  - { offset: 0xE3E24, size: 0x8, addend: 0x0, symName: __RNvMNtCsfvfooZQ3Axs_4core6optionINtB2_6OptionINtNtCse1nGBsou5OW_5alloc5boxed3BoxNtNtCs6IAuOt8vWmF_3syn8generics14WherePredicateEE6as_refB1k_, symObjAddr: 0x5250, symBinAddr: 0x56AE8, symSize: 0x4C }
  - { offset: 0xE3E8A, size: 0x8, addend: 0x0, symName: __RNvMNtCsfvfooZQ3Axs_4core6optionINtB2_6OptionINtNtCse1nGBsou5OW_5alloc5boxed3BoxNtNtCs6IAuOt8vWmF_3syn8generics14WherePredicateEE7is_noneB1k_, symObjAddr: 0x529C, symBinAddr: 0x56B34, symSize: 0x28 }
  - { offset: 0xE3ED4, size: 0x8, addend: 0x0, symName: __RNvMNtCsfvfooZQ3Axs_4core6optionINtB2_6OptionINtNtCse1nGBsou5OW_5alloc5boxed3BoxNtNtCs6IAuOt8vWmF_3syn8generics14WherePredicateEE7is_someB1k_, symObjAddr: 0x52C4, symBinAddr: 0x56B5C, symSize: 0x28 }
  - { offset: 0xE3F0D, size: 0x8, addend: 0x0, symName: __RNvMNtCsfvfooZQ3Axs_4core6optionINtB2_6OptionINtNtCse1nGBsou5OW_5alloc5boxed3BoxNtNtCs6IAuOt8vWmF_3syn8lifetime8LifetimeEE4takeB1k_, symObjAddr: 0x52EC, symBinAddr: 0x56B84, symSize: 0x28 }
  - { offset: 0xE3FA0, size: 0x8, addend: 0x0, symName: __RNvMNtCsfvfooZQ3Axs_4core6optionINtB2_6OptionINtNtCse1nGBsou5OW_5alloc5boxed3BoxNtNtCs6IAuOt8vWmF_3syn8lifetime8LifetimeEE6as_refB1k_, symObjAddr: 0x5314, symBinAddr: 0x56BAC, symSize: 0x4C }
  - { offset: 0xE4006, size: 0x8, addend: 0x0, symName: __RNvMNtCsfvfooZQ3Axs_4core6optionINtB2_6OptionINtNtCse1nGBsou5OW_5alloc5boxed3BoxNtNtCs6IAuOt8vWmF_3syn8lifetime8LifetimeEE7is_noneB1k_, symObjAddr: 0x5360, symBinAddr: 0x56BF8, symSize: 0x28 }
  - { offset: 0xE4050, size: 0x8, addend: 0x0, symName: __RNvMNtCsfvfooZQ3Axs_4core6optionINtB2_6OptionINtNtCse1nGBsou5OW_5alloc5boxed3BoxNtNtCs6IAuOt8vWmF_3syn8lifetime8LifetimeEE7is_someB1k_, symObjAddr: 0x5388, symBinAddr: 0x56C20, symSize: 0x28 }
  - { offset: 0xE4096, size: 0x8, addend: 0x0, symName: __RNvMNtCsfvfooZQ3Axs_4core6optionINtB2_6OptionNtNtCs6IAuOt8vWmF_3syn3pat7PatRestE7is_someBL_, symObjAddr: 0x53D8, symBinAddr: 0x56C48, symSize: 0x2C }
  - { offset: 0xE40EB, size: 0x8, addend: 0x0, symName: __RNvMNtCsfvfooZQ3Axs_4core6optionINtB2_6OptionNtNtCs6IAuOt8vWmF_3syn4expr5LabelE7is_noneBL_, symObjAddr: 0x5404, symBinAddr: 0x56C74, symSize: 0x28 }
  - { offset: 0xE4135, size: 0x8, addend: 0x0, symName: __RNvMNtCsfvfooZQ3Axs_4core6optionINtB2_6OptionNtNtCs6IAuOt8vWmF_3syn4expr5LabelE7is_someBL_, symObjAddr: 0x542C, symBinAddr: 0x56C9C, symSize: 0x28 }
  - { offset: 0xE418A, size: 0x8, addend: 0x0, symName: __RNvMNtCsfvfooZQ3Axs_4core6optionINtB2_6OptionNtNtCs6IAuOt8vWmF_3syn4item9SignatureE7is_noneBL_, symObjAddr: 0x5454, symBinAddr: 0x56CC4, symSize: 0x28 }
  - { offset: 0xE41E1, size: 0x8, addend: 0x0, symName: __RNvMNtCsfvfooZQ3Axs_4core6optionINtB2_6OptionNtNtCs6IAuOt8vWmF_3syn4path30AngleBracketedGenericArgumentsE7is_someBL_, symObjAddr: 0x547C, symBinAddr: 0x56CEC, symSize: 0x2C }
  - { offset: 0xE4236, size: 0x8, addend: 0x0, symName: __RNvMNtCsfvfooZQ3Axs_4core6optionINtB2_6OptionNtNtCs6IAuOt8vWmF_3syn4path5QSelfE7is_noneBL_, symObjAddr: 0x54A8, symBinAddr: 0x56D18, symSize: 0x28 }
  - { offset: 0xE4280, size: 0x8, addend: 0x0, symName: __RNvMNtCsfvfooZQ3Axs_4core6optionINtB2_6OptionNtNtCs6IAuOt8vWmF_3syn4path5QSelfE7is_someBL_, symObjAddr: 0x54D0, symBinAddr: 0x56D40, symSize: 0x28 }
  - { offset: 0xE42B9, size: 0x8, addend: 0x0, symName: __RNvMNtCsfvfooZQ3Axs_4core6optionINtB2_6OptionNtNtCs6IAuOt8vWmF_3syn5token2EqE7is_someBL_, symObjAddr: 0x54F8, symBinAddr: 0x56D68, symSize: 0x20 }
  - { offset: 0xE430E, size: 0x8, addend: 0x0, symName: __RNvMNtCsfvfooZQ3Axs_4core6optionINtB2_6OptionNtNtCs6IAuOt8vWmF_3syn5token2LtE7is_noneBL_, symObjAddr: 0x5518, symBinAddr: 0x56D88, symSize: 0x20 }
  - { offset: 0xE4365, size: 0x8, addend: 0x0, symName: __RNvMNtCsfvfooZQ3Axs_4core6optionINtB2_6OptionNtNtCs6IAuOt8vWmF_3syn5token2OrE7is_someBL_, symObjAddr: 0x5538, symBinAddr: 0x56DA8, symSize: 0x20 }
  - { offset: 0xE43BA, size: 0x8, addend: 0x0, symName: __RNvMNtCsfvfooZQ3Axs_4core6optionINtB2_6OptionNtNtCs6IAuOt8vWmF_3syn5token3BoxE7is_noneBL_, symObjAddr: 0x5558, symBinAddr: 0x56DC8, symSize: 0x20 }
  - { offset: 0xE4404, size: 0x8, addend: 0x0, symName: __RNvMNtCsfvfooZQ3Axs_4core6optionINtB2_6OptionNtNtCs6IAuOt8vWmF_3syn5token3BoxE7is_someBL_, symObjAddr: 0x5578, symBinAddr: 0x56DE8, symSize: 0x20 }
  - { offset: 0xE443D, size: 0x8, addend: 0x0, symName: __RNvMNtCsfvfooZQ3Axs_4core6optionINtB2_6OptionNtNtCs6IAuOt8vWmF_3syn5token3MutE6as_refBL_, symObjAddr: 0x5598, symBinAddr: 0x56E08, symSize: 0x48 }
