---
triple:          'arm64-apple-darwin'
binary-path:     '/Users/cedric/orange/ran-llm-claude-flow/src/rust-pipeline/target/debug/build/zerocopy-e44bc166655258ae/build_script_build-e44bc166655258ae'
relocations:
  - { offset: 0x1E, size: 0x8, addend: 0x0, symName: __RINvMs_NtNtCsfvfooZQ3Axs_4core3fmt2rtNtB5_8Argument11new_displayINtNtCse1nGBsou5OW_5alloc6borrow3CoweEECsiXPXk7oLjIW_18build_script_build, symObjAddr: 0x0, symBinAddr: 0x100000BF0, symSize: 0x2C }
  - { offset: 0x2713, size: 0x8, addend: 0x0, symName: __RNvXs8_NtNtCsfvfooZQ3Axs_4core3str5errorNtB5_9Utf8ErrorNtNtB9_3fmt5Debug3fmtCsiXPXk7oLjIW_18build_script_build, symObjAddr: 0x2470, symBinAddr: 0x100003060, symSize: 0x88 }
  - { offset: 0x2C07, size: 0x8, addend: 0x0, symName: __RNvNvNtCsfvfooZQ3Axs_4core9ub_checks23maybe_is_nonoverlapping7runtimeCsiXPXk7oLjIW_18build_script_build, symObjAddr: 0x1B5C, symBinAddr: 0x10000274C, symSize: 0xD8 }
  - { offset: 0x2DF0, size: 0x8, addend: 0x0, symName: __RNvNvNtNtCsfvfooZQ3Axs_4core4char7convert18from_u32_unchecked18precondition_checkCsiXPXk7oLjIW_18build_script_build, symObjAddr: 0x1C34, symBinAddr: 0x100002824, symSize: 0x98 }
  - { offset: 0x3076, size: 0x8, addend: 0x0, symName: __RNCNvXs1_NtNtNtCscOYdFFY2T5N_3std2io5error14repr_bitpackedNtB7_4ReprNtNtNtCsfvfooZQ3Axs_4core3ops4drop4Drop4drop0CsiXPXk7oLjIW_18build_script_build, symObjAddr: 0xDC4, symBinAddr: 0x1000019B4, symSize: 0x34 }
  - { offset: 0x312B, size: 0x8, addend: 0x0, symName: __RNvXs1_NtNtNtCscOYdFFY2T5N_3std2io5error14repr_bitpackedNtB5_4ReprNtNtNtCsfvfooZQ3Axs_4core3ops4drop4Drop4dropCsiXPXk7oLjIW_18build_script_build, symObjAddr: 0x2088, symBinAddr: 0x100002C78, symSize: 0x38 }
  - { offset: 0x3154, size: 0x8, addend: 0x0, symName: __RINvNtNtNtCscOYdFFY2T5N_3std2io5error14repr_bitpacked11decode_reprINtNtCse1nGBsou5OW_5alloc5boxed3BoxNtB4_6CustomENCNvXs1_B2_NtB2_4ReprNtNtNtCsfvfooZQ3Axs_4core3ops4drop4Drop4drop0ECsiXPXk7oLjIW_18build_script_build, symObjAddr: 0x8E4, symBinAddr: 0x1000014D4, symSize: 0x230 }
  - { offset: 0x340A, size: 0x8, addend: 0x0, symName: __RNCNvMs0_NtNtNtCscOYdFFY2T5N_3std2io5error14repr_bitpackedNtB7_4Repr4data0CsiXPXk7oLjIW_18build_script_build, symObjAddr: 0xDB0, symBinAddr: 0x1000019A0, symSize: 0x14 }
  - { offset: 0x3442, size: 0x8, addend: 0x0, symName: __RINvNtNtNtCscOYdFFY2T5N_3std2io5error14repr_bitpacked11decode_reprRNtB4_6CustomNCNvMs0_B2_NtB2_4Repr4data0ECsiXPXk7oLjIW_18build_script_build, symObjAddr: 0xB14, symBinAddr: 0x100001704, symSize: 0x230 }
  - { offset: 0x36E7, size: 0x8, addend: 0x0, symName: __RNvNtNtNtCscOYdFFY2T5N_3std2io5error14repr_bitpacked14kind_from_primCsiXPXk7oLjIW_18build_script_build, symObjAddr: 0x1554, symBinAddr: 0x100002144, symSize: 0x608 }
  - { offset: 0x42AE, size: 0x8, addend: 0x0, symName: __RNvXss_NtCse1nGBsou5OW_5alloc6stringNtB5_6StringNtNtNtCsfvfooZQ3Axs_4core3ops5deref5Deref5derefCsiXPXk7oLjIW_18build_script_build, symObjAddr: 0x2978, symBinAddr: 0x100003568, symSize: 0x24 }
  - { offset: 0x42E2, size: 0x8, addend: 0x0, symName: __RNvXsl_NtCse1nGBsou5OW_5alloc6stringNtB5_6StringNtNtCsfvfooZQ3Axs_4core3fmt7Display3fmtCsiXPXk7oLjIW_18build_script_build, symObjAddr: 0x282C, symBinAddr: 0x10000341C, symSize: 0x80 }
  - { offset: 0x47E4, size: 0x8, addend: 0x0, symName: __RNvXs_NtNtCse1nGBsou5OW_5alloc3vec15set_len_on_dropNtB4_12SetLenOnDropNtNtNtCsfvfooZQ3Axs_4core3ops4drop4Drop4dropCsiXPXk7oLjIW_18build_script_build, symObjAddr: 0x251C, symBinAddr: 0x10000310C, symSize: 0x20 }
  - { offset: 0x4813, size: 0x8, addend: 0x0, symName: __RINvXsd_NtCse1nGBsou5OW_5alloc3vecINtB6_3VecNtCsiXPXk7oLjIW_18build_script_build10VersionCfgEINtNtNtNtCsfvfooZQ3Axs_4core4iter6traits7collect12FromIteratorBG_E9from_iterINtNtNtB1A_8adapters10filter_map9FilterMapNtNtNtB1C_3str4iter5LinesNCNvBI_34parse_version_cfgs_from_cargo_toml0EEBI_, symObjAddr: 0xD44, symBinAddr: 0x100001934, symSize: 0x3C }
  - { offset: 0x485F, size: 0x8, addend: 0x0, symName: __RNCINvMsi_NtCse1nGBsou5OW_5alloc3vecINtB8_3VechE14extend_trustedINtNtNtNtCsfvfooZQ3Axs_4core4iter8adapters3map3MapINtNtNtB19_5slice4iter4IterhENCNvNtBa_3str13replace_ascii0EE0CsiXPXk7oLjIW_18build_script_build, symObjAddr: 0xD80, symBinAddr: 0x100001970, symSize: 0x30 }
  - { offset: 0x4913, size: 0x8, addend: 0x0, symName: __RNvXNtNtCse1nGBsou5OW_5alloc3vec11spec_extendINtB4_3VecNtCsiXPXk7oLjIW_18build_script_build10VersionCfgEINtB2_10SpecExtendBR_INtNtNtNtCsfvfooZQ3Axs_4core4iter8adapters10filter_map9FilterMapNtNtNtB28_3str4iter5LinesNCNvBT_34parse_version_cfgs_from_cargo_toml0EE11spec_extendBT_, symObjAddr: 0x1CCC, symBinAddr: 0x1000028BC, symSize: 0x24 }
  - { offset: 0x496B, size: 0x8, addend: 0x0, symName: __RNvXs_NtNtCse1nGBsou5OW_5alloc3vec11spec_extendINtB6_3VechEINtB4_10SpecExtendhINtNtNtNtCsfvfooZQ3Axs_4core4iter8adapters3map3MapINtNtNtB1n_5slice4iter4IterhENCNvNtB8_3str13replace_ascii0EE11spec_extendCsiXPXk7oLjIW_18build_script_build, symObjAddr: 0x24F8, symBinAddr: 0x1000030E8, symSize: 0x24 }
  - { offset: 0x49C9, size: 0x8, addend: 0x0, symName: __RNvXNtNtCse1nGBsou5OW_5alloc3vec14spec_from_iterINtB4_3VecNtCsiXPXk7oLjIW_18build_script_build10VersionCfgEINtB2_12SpecFromIterBU_INtNtNtNtCsfvfooZQ3Axs_4core4iter8adapters10filter_map9FilterMapNtNtNtB2d_3str4iter5LinesNCNvBW_34parse_version_cfgs_from_cargo_toml0EE9from_iterBW_, symObjAddr: 0x1CF0, symBinAddr: 0x1000028E0, symSize: 0x14 }
  - { offset: 0x4A14, size: 0x8, addend: 0x0, symName: __RNvXNtNtCse1nGBsou5OW_5alloc3vec21spec_from_iter_nestedINtB4_3VecNtCsiXPXk7oLjIW_18build_script_build10VersionCfgEINtB2_18SpecFromIterNestedB11_INtNtNtNtCsfvfooZQ3Axs_4core4iter8adapters10filter_map9FilterMapNtNtNtB2r_3str4iter5LinesNCNvB13_34parse_version_cfgs_from_cargo_toml0EE9from_iterB13_, symObjAddr: 0x1D04, symBinAddr: 0x1000028F4, symSize: 0x238 }
  - { offset: 0x4C39, size: 0x8, addend: 0x0, symName: __RNvXs_NtNtCse1nGBsou5OW_5alloc3vec21spec_from_iter_nestedINtB6_3VechEINtB4_18SpecFromIterNestedhINtNtNtNtCsfvfooZQ3Axs_4core4iter8adapters3map3MapINtNtNtB1F_5slice4iter4IterhENCNvNtB8_3str13replace_ascii0EE9from_iterCsiXPXk7oLjIW_18build_script_build, symObjAddr: 0x253C, symBinAddr: 0x10000312C, symSize: 0x168 }
  - { offset: 0x4D17, size: 0x8, addend: 0x0, symName: __RNvXse_NtCse1nGBsou5OW_5alloc3vecINtB5_3VecNtCsiXPXk7oLjIW_18build_script_build10VersionCfgENtNtNtNtCsfvfooZQ3Axs_4core4iter6traits7collect12IntoIterator9into_iterBH_, symObjAddr: 0x26A4, symBinAddr: 0x100003294, symSize: 0xE4 }
  - { offset: 0x4FE5, size: 0x8, addend: 0x0, symName: __RNvXsf_NtCse1nGBsou5OW_5alloc3vecRINtB5_3VecNtCsiXPXk7oLjIW_18build_script_build10VersionCfgENtNtNtNtCsfvfooZQ3Axs_4core4iter6traits7collect12IntoIterator9into_iterBI_, symObjAddr: 0x2788, symBinAddr: 0x100003378, symSize: 0xA4 }
  - { offset: 0x52A2, size: 0x8, addend: 0x0, symName: __RNvXsn_NtCse1nGBsou5OW_5alloc3vecINtB5_3VecINtNtB7_5boxed3BoxDINtNtNtCsfvfooZQ3Axs_4core3ops8function5FnMutuEp6OutputINtNtB15_6result6ResultuNtNtNtCscOYdFFY2T5N_3std2io5error5ErrorENtNtB15_6marker4SendNtB2V_4SyncEL_EENtNtB13_4drop4Drop4dropCsiXPXk7oLjIW_18build_script_build, symObjAddr: 0x28AC, symBinAddr: 0x10000349C, symSize: 0x38 }
  - { offset: 0x5352, size: 0x8, addend: 0x0, symName: __RNvXsn_NtCse1nGBsou5OW_5alloc3vecINtB5_3VecNtCsiXPXk7oLjIW_18build_script_build10VersionCfgENtNtNtCsfvfooZQ3Axs_4core3ops4drop4Drop4dropBH_, symObjAddr: 0x28E4, symBinAddr: 0x1000034D4, symSize: 0x38 }
  - { offset: 0x5402, size: 0x8, addend: 0x0, symName: __RNvXsn_NtCse1nGBsou5OW_5alloc3vecINtB5_3VecNtNtNtB7_3ffi5c_str7CStringENtNtNtCsfvfooZQ3Axs_4core3ops4drop4Drop4dropCsiXPXk7oLjIW_18build_script_build, symObjAddr: 0x291C, symBinAddr: 0x10000350C, symSize: 0x38 }
  - { offset: 0x54B2, size: 0x8, addend: 0x0, symName: __RNvXsn_NtCse1nGBsou5OW_5alloc3vecINtB5_3VecPaENtNtNtCsfvfooZQ3Axs_4core3ops4drop4Drop4dropCsiXPXk7oLjIW_18build_script_build, symObjAddr: 0x2954, symBinAddr: 0x100003544, symSize: 0x24 }
  - { offset: 0x667A, size: 0x8, addend: 0x0, symName: __RNvXNvMsT_NtNtNtCse1nGBsou5OW_5alloc11collections5btree4nodeINtB8_6HandleINtB8_7NodeRefNtNtB8_6marker5DyingpppENtB1p_2KVE12drop_key_valINtB2_7DropperINtNtCsfvfooZQ3Axs_4core6option6OptionNtNtNtCscOYdFFY2T5N_3std3ffi6os_str8OsStringEENtNtNtB2s_3ops4drop4Drop4dropCsiXPXk7oLjIW_18build_script_build, symObjAddr: 0x1F88, symBinAddr: 0x100002B78, symSize: 0x2C }
  - { offset: 0x67C4, size: 0x8, addend: 0x0, symName: __RNvXNtNtNtCse1nGBsou5OW_5alloc11collections5btree3mapINtB2_8BTreeMapNtNtNtCscOYdFFY2T5N_3std3ffi6os_str8OsStringINtNtCsfvfooZQ3Axs_4core6option6OptionB14_EENtNtNtB1R_3ops4drop4Drop4dropCsiXPXk7oLjIW_18build_script_build, symObjAddr: 0x1F3C, symBinAddr: 0x100002B2C, symSize: 0x4C }
  - { offset: 0x6851, size: 0x8, addend: 0x0, symName: __RNvXNvXsw_NtNtNtCse1nGBsou5OW_5alloc11collections5btree3mapINtB8_8IntoIterpppENtNtNtCsfvfooZQ3Axs_4core3ops4drop4Drop4dropINtB2_9DropGuardNtNtNtCscOYdFFY2T5N_3std3ffi6os_str8OsStringINtNtB1k_6option6OptionB2c_ENtNtBe_5alloc6GlobalEB1e_4dropCsiXPXk7oLjIW_18build_script_build, symObjAddr: 0x1FB4, symBinAddr: 0x100002BA4, symSize: 0x68 }
  - { offset: 0x68E6, size: 0x8, addend: 0x0, symName: __RNvXsw_NtNtNtCse1nGBsou5OW_5alloc11collections5btree3mapINtB5_8IntoIterNtNtNtCscOYdFFY2T5N_3std3ffi6os_str8OsStringINtNtCsfvfooZQ3Axs_4core6option6OptionB17_EENtNtNtB1U_3ops4drop4Drop4dropCsiXPXk7oLjIW_18build_script_build, symObjAddr: 0x2B30, symBinAddr: 0x100003720, symSize: 0xA0 }
  - { offset: 0x695D, size: 0x8, addend: 0x0, symName: __RNvXsv_NtNtNtCse1nGBsou5OW_5alloc11collections5btree3mapINtB5_8BTreeMapNtNtNtCscOYdFFY2T5N_3std3ffi6os_str8OsStringINtNtCsfvfooZQ3Axs_4core6option6OptionB17_EENtNtNtNtB1U_4iter6traits7collect12IntoIterator9into_iterCsiXPXk7oLjIW_18build_script_build, symObjAddr: 0x299C, symBinAddr: 0x10000358C, symSize: 0x194 }
  - { offset: 0x6CE6, size: 0x8, addend: 0x0, symName: __RNvXs6_NtCse1nGBsou5OW_5alloc5boxedINtB5_3BoxDINtNtNtCsfvfooZQ3Axs_4core3ops8function5FnMutuEp6OutputINtNtBP_6result6ResultuNtNtNtCscOYdFFY2T5N_3std2io5error5ErrorENtNtBP_6marker4SendNtB2E_4SyncEL_ENtNtBN_4drop4Drop4dropCsiXPXk7oLjIW_18build_script_build, symObjAddr: 0x20C0, symBinAddr: 0x100002CB0, symSize: 0xC4 }
  - { offset: 0x6E1D, size: 0x8, addend: 0x0, symName: __RNvXs6_NtCse1nGBsou5OW_5alloc5boxedINtB5_3BoxDNtNtCsfvfooZQ3Axs_4core5error5ErrorNtNtBM_6marker4SendNtB1j_4SyncEL_ENtNtNtBM_3ops4drop4Drop4dropCsiXPXk7oLjIW_18build_script_build, symObjAddr: 0x2184, symBinAddr: 0x100002D74, symSize: 0xC4 }
  - { offset: 0x6F54, size: 0x8, addend: 0x0, symName: __RNvXs6_NtCse1nGBsou5OW_5alloc5boxedINtB5_3BoxNtNtNtCscOYdFFY2T5N_3std2io5error6CustomENtNtNtCsfvfooZQ3Axs_4core3ops4drop4Drop4dropCsiXPXk7oLjIW_18build_script_build, symObjAddr: 0x2248, symBinAddr: 0x100002E38, symSize: 0xB0 }
  - { offset: 0x708B, size: 0x8, addend: 0x0, symName: __RNvXs6_NtCse1nGBsou5OW_5alloc5boxedINtB5_3BoxShENtNtNtCsfvfooZQ3Axs_4core3ops4drop4Drop4dropCsiXPXk7oLjIW_18build_script_build, symObjAddr: 0x22F8, symBinAddr: 0x100002EE8, symSize: 0xBC }
  - { offset: 0x71C2, size: 0x8, addend: 0x0, symName: __RNvXs6_NtCse1nGBsou5OW_5alloc5boxedINtB5_3BoxSmENtNtNtCsfvfooZQ3Axs_4core3ops4drop4Drop4dropCsiXPXk7oLjIW_18build_script_build, symObjAddr: 0x23B4, symBinAddr: 0x100002FA4, symSize: 0xBC }
  - { offset: 0x730A, size: 0x8, addend: 0x0, symName: __RNvXs0_NtNtCse1nGBsou5OW_5alloc3ffi5c_strNtB5_7CStringNtNtNtCsfvfooZQ3Axs_4core3ops4drop4Drop4dropCsiXPXk7oLjIW_18build_script_build, symObjAddr: 0x201C, symBinAddr: 0x100002C0C, symSize: 0x6C }
  - { offset: 0x7428, size: 0x8, addend: 0x0, symName: __RINvMs_NtNtCsfvfooZQ3Axs_4core3fmt2rtNtB5_8Argument11new_displayINtNtCse1nGBsou5OW_5alloc6borrow3CoweEECsiXPXk7oLjIW_18build_script_build, symObjAddr: 0x0, symBinAddr: 0x100000BF0, symSize: 0x2C }
  - { offset: 0x74BC, size: 0x8, addend: 0x0, symName: __RINvMs_NtNtCsfvfooZQ3Axs_4core3fmt2rtNtB5_8Argument11new_displayNtNtCscOYdFFY2T5N_3std7process10ExitStatusECsiXPXk7oLjIW_18build_script_build, symObjAddr: 0x2C, symBinAddr: 0x100000C1C, symSize: 0x2C }
  - { offset: 0x7549, size: 0x8, addend: 0x0, symName: __RINvMs_NtNtCsfvfooZQ3Axs_4core3fmt2rtNtB5_8Argument11new_displayNtNtCse1nGBsou5OW_5alloc6string6StringECsiXPXk7oLjIW_18build_script_build, symObjAddr: 0x58, symBinAddr: 0x100000C48, symSize: 0x2C }
  - { offset: 0x75D6, size: 0x8, addend: 0x0, symName: __RINvMs_NtNtCsfvfooZQ3Axs_4core3fmt2rtNtB5_8Argument11new_displayReECsiXPXk7oLjIW_18build_script_build, symObjAddr: 0x84, symBinAddr: 0x100000C74, symSize: 0x2C }
  - { offset: 0x7663, size: 0x8, addend: 0x0, symName: __RINvMs_NtNtCsfvfooZQ3Axs_4core3fmt2rtNtB5_8Argument11new_displayjECsiXPXk7oLjIW_18build_script_build, symObjAddr: 0xB0, symBinAddr: 0x100000CA0, symSize: 0x2C }
  - { offset: 0x77F2, size: 0x8, addend: 0x0, symName: __RINvMsh_NtNtNtCse1nGBsou5OW_5alloc11collections5btree4nodeINtB6_7NodeRefNtNtB6_6marker5DyingNtNtNtCscOYdFFY2T5N_3std3ffi6os_str8OsStringINtNtCsfvfooZQ3Axs_4core6option6OptionB1s_ENtB1a_14LeafOrInternalE21deallocate_and_ascendNtNtBc_5alloc6GlobalECsiXPXk7oLjIW_18build_script_build, symObjAddr: 0xDC, symBinAddr: 0x100000CCC, symSize: 0x178 }
  - { offset: 0x7BEA, size: 0x8, addend: 0x0, symName: __RINvMsi_NtCse1nGBsou5OW_5alloc3vecINtB6_3VecNtCsiXPXk7oLjIW_18build_script_build10VersionCfgE16extend_desugaredINtNtNtNtCsfvfooZQ3Axs_4core4iter8adapters10filter_map9FilterMapNtNtNtB1U_3str4iter5LinesNCNvBI_34parse_version_cfgs_from_cargo_toml0EEBI_, symObjAddr: 0x254, symBinAddr: 0x100000E44, symSize: 0x1E8 }
  - { offset: 0x7FD6, size: 0x8, addend: 0x0, symName: __RINvMsi_NtCse1nGBsou5OW_5alloc3vecINtB6_3VechE14extend_trustedINtNtNtNtCsfvfooZQ3Axs_4core4iter8adapters3map3MapINtNtNtB17_5slice4iter4IterhENCNvNtB8_3str13replace_ascii0EECsiXPXk7oLjIW_18build_script_build, symObjAddr: 0x43C, symBinAddr: 0x10000102C, symSize: 0x17C }
  - { offset: 0x8226, size: 0x8, addend: 0x0, symName: __RINvMsj_NtNtNtCse1nGBsou5OW_5alloc11collections5btree8navigateINtNtB8_4node6HandleINtB11_7NodeRefNtNtB11_6marker5DyingNtNtNtCscOYdFFY2T5N_3std3ffi6os_str8OsStringINtNtCsfvfooZQ3Axs_4core6option6OptionB1S_ENtB1z_4LeafENtB1z_4EdgeE16deallocating_endNtNtBc_5alloc6GlobalECsiXPXk7oLjIW_18build_script_build, symObjAddr: 0x5B8, symBinAddr: 0x1000011A8, symSize: 0xD8 }
  - { offset: 0x84A7, size: 0x8, addend: 0x0, symName: __RINvMsj_NtNtNtCse1nGBsou5OW_5alloc11collections5btree8navigateINtNtB8_4node6HandleINtB11_7NodeRefNtNtB11_6marker5DyingNtNtNtCscOYdFFY2T5N_3std3ffi6os_str8OsStringINtNtCsfvfooZQ3Axs_4core6option6OptionB1S_ENtB1z_4LeafENtB1z_4EdgeE17deallocating_nextNtNtBc_5alloc6GlobalECsiXPXk7oLjIW_18build_script_build, symObjAddr: 0x690, symBinAddr: 0x100001280, symSize: 0x254 }
  - { offset: 0x89FA, size: 0x8, addend: 0x0, symName: __RNvMNtCse1nGBsou5OW_5alloc6stringNtB2_6String6as_strCsiXPXk7oLjIW_18build_script_build, symObjAddr: 0xDF8, symBinAddr: 0x1000019E8, symSize: 0x70 }
  - { offset: 0x8BD1, size: 0x8, addend: 0x0, symName: __RNvMsO_NtNtNtCse1nGBsou5OW_5alloc11collections5btree4nodeINtB5_6HandleINtB5_7NodeRefNtNtB5_6marker5DyingNtNtNtCscOYdFFY2T5N_3std3ffi6os_str8OsStringINtNtCsfvfooZQ3Axs_4core6option6OptionB1E_ENtB1m_8InternalENtB1m_4EdgeE7descendCsiXPXk7oLjIW_18build_script_build, symObjAddr: 0xE68, symBinAddr: 0x100001A58, symSize: 0x94 }
  - { offset: 0x8ED6, size: 0x8, addend: 0x0, symName: __RNvMsT_NtNtNtCse1nGBsou5OW_5alloc11collections5btree4nodeINtB5_6HandleINtB5_7NodeRefNtNtB5_6marker5DyingNtNtNtCscOYdFFY2T5N_3std3ffi6os_str8OsStringINtNtCsfvfooZQ3Axs_4core6option6OptionB1E_ENtB1m_14LeafOrInternalENtB1m_2KVE12drop_key_valCsiXPXk7oLjIW_18build_script_build, symObjAddr: 0xEFC, symBinAddr: 0x100001AEC, symSize: 0x128 }
  - { offset: 0x921F, size: 0x8, addend: 0x0, symName: __RNvMs_NtCse1nGBsou5OW_5alloc3vecINtB4_3VecNtCsiXPXk7oLjIW_18build_script_build10VersionCfgE7reserveBG_, symObjAddr: 0x1024, symBinAddr: 0x100001C14, symSize: 0xC8 }
  - { offset: 0x93F6, size: 0x8, addend: 0x0, symName: __RNvMs_NtCse1nGBsou5OW_5alloc3vecINtB4_3VechE8as_sliceCsiXPXk7oLjIW_18build_script_build, symObjAddr: 0x10EC, symBinAddr: 0x100001CDC, symSize: 0x60 }
  - { offset: 0x95C3, size: 0x8, addend: 0x0, symName: __RNvMse_NtNtNtCse1nGBsou5OW_5alloc11collections5btree4nodeINtB5_7NodeRefNtNtB5_6marker5DyingNtNtNtCscOYdFFY2T5N_3std3ffi6os_str8OsStringINtNtCsfvfooZQ3Axs_4core6option6OptionB1r_ENtB19_14LeafOrInternalE6ascendCsiXPXk7oLjIW_18build_script_build, symObjAddr: 0x114C, symBinAddr: 0x100001D3C, symSize: 0x168 }
  - { offset: 0x992F, size: 0x8, addend: 0x0, symName: __RNvMsp_NtNtNtCse1nGBsou5OW_5alloc11collections5btree8navigateINtNtB7_4node6HandleINtB10_7NodeRefNtNtB10_6marker5DyingNtNtNtCscOYdFFY2T5N_3std3ffi6os_str8OsStringINtNtCsfvfooZQ3Axs_4core6option6OptionB1R_ENtB1y_14LeafOrInternalENtB1y_2KVE14next_leaf_edgeCsiXPXk7oLjIW_18build_script_build, symObjAddr: 0x12B4, symBinAddr: 0x100001EA4, symSize: 0x210 }
  - { offset: 0x9B98, size: 0x8, addend: 0x0, symName: __RNvMsx_NtNtNtCse1nGBsou5OW_5alloc11collections5btree3mapINtB5_8IntoIterNtNtNtCscOYdFFY2T5N_3std3ffi6os_str8OsStringINtNtCsfvfooZQ3Axs_4core6option6OptionB17_EE10dying_nextCsiXPXk7oLjIW_18build_script_build, symObjAddr: 0x14C4, symBinAddr: 0x1000020B4, symSize: 0x90 }
  - { offset: 0xA9D9, size: 0x8, addend: 0x0, symName: __RINvMs3_NtCse1nGBsou5OW_5alloc3stre7replacecECsiXPXk7oLjIW_18build_script_build, symObjAddr: 0x0, symBinAddr: 0x1000037C0, symSize: 0x714 }
  - { offset: 0xAA51, size: 0x8, addend: 0x0, symName: __RNvXNvNtNtCscOYdFFY2T5N_3std2io5Write9write_fmtINtB2_7AdapterNtNtNtNtNtB8_3sys3pal4unix5stdio6StderrENtNtCsfvfooZQ3Axs_4core3fmt5Write9write_strCsiXPXk7oLjIW_18build_script_build, symObjAddr: 0x1BEC, symBinAddr: 0x1000053AC, symSize: 0xB8 }
  - { offset: 0xAFAF, size: 0x8, addend: 0x0, symName: __RNvXs3_NtNtCscOYdFFY2T5N_3std3ffi6os_strNtB5_8OsStringINtNtNtCsfvfooZQ3Axs_4core3ops5index5IndexNtNtBV_5range9RangeFullE5indexCsiXPXk7oLjIW_18build_script_build, symObjAddr: 0x1E28, symBinAddr: 0x1000055E8, symSize: 0x78 }
  - { offset: 0xB115, size: 0x8, addend: 0x0, symName: __RNvXsV_NtNtCscOYdFFY2T5N_3std3ffi6os_strNtB5_8OsStringINtNtCsfvfooZQ3Axs_4core7convert5AsRefNtB5_5OsStrE6as_refCsiXPXk7oLjIW_18build_script_build, symObjAddr: 0x2040, symBinAddr: 0x100005800, symSize: 0x2C }
  - { offset: 0xB167, size: 0x8, addend: 0x0, symName: __RNvXsW_NtNtCscOYdFFY2T5N_3std3ffi6os_streINtNtCsfvfooZQ3Axs_4core7convert5AsRefNtB5_5OsStrE6as_refCsiXPXk7oLjIW_18build_script_build, symObjAddr: 0x206C, symBinAddr: 0x10000582C, symSize: 0x18 }
  - { offset: 0xB225, size: 0x8, addend: 0x0, symName: __RNvXsT_NtCscOYdFFY2T5N_3std7processuNtB5_11Termination6reportCsiXPXk7oLjIW_18build_script_build, symObjAddr: 0x1FF0, symBinAddr: 0x1000057B0, symSize: 0x10 }
  - { offset: 0xB72F, size: 0x8, addend: 0x0, symName: __RNvNvMs1_NtNtCsfvfooZQ3Axs_4core3ptr8non_nullINtB7_7NonNullpE13new_unchecked18precondition_checkCsiXPXk7oLjIW_18build_script_build, symObjAddr: 0x17D0, symBinAddr: 0x100004F90, symSize: 0x38 }
  - { offset: 0xBBCE, size: 0x8, addend: 0x0, symName: __RNvNvMNtNtCsfvfooZQ3Axs_4core3ptr9const_ptrPp7sub_ptr18precondition_checkCsiXPXk7oLjIW_18build_script_build, symObjAddr: 0x1790, symBinAddr: 0x100004F50, symSize: 0x40 }
  - { offset: 0xBEBB, size: 0x8, addend: 0x0, symName: __RNvXs5_NtNtCsfvfooZQ3Axs_4core3num5errorNtB5_15TryFromIntErrorNtNtB9_3fmt5Debug3fmtCsiXPXk7oLjIW_18build_script_build, symObjAddr: 0x1EC8, symBinAddr: 0x100005688, symSize: 0x54 }
  - { offset: 0xBEFB, size: 0x8, addend: 0x0, symName: __RNvXsb_NtNtCsfvfooZQ3Axs_4core3num5errorNtB5_13ParseIntErrorNtNtB9_3fmt5Debug3fmtCsiXPXk7oLjIW_18build_script_build, symObjAddr: 0x224C, symBinAddr: 0x100005A0C, symSize: 0x64 }
  - { offset: 0xBF3B, size: 0x8, addend: 0x0, symName: __RNvXsg_NtNtCsfvfooZQ3Axs_4core3num5errorNtB5_12IntErrorKindNtNtB9_3fmt5Debug3fmtCsiXPXk7oLjIW_18build_script_build, symObjAddr: 0x22B0, symBinAddr: 0x100005A70, symSize: 0xF4 }
  - { offset: 0xC6FC, size: 0x8, addend: 0x0, symName: __RNvXs1a_NtCsfvfooZQ3Axs_4core3fmtRNtNtNtB8_3num5error12IntErrorKindNtB6_5Debug3fmtCsiXPXk7oLjIW_18build_script_build, symObjAddr: 0x1DA8, symBinAddr: 0x100005568, symSize: 0x30 }
  - { offset: 0xC752, size: 0x8, addend: 0x0, symName: __RNvXs_NvNtNtCsfvfooZQ3Axs_4core3fmt5Write9write_fmtQINtNvNtNtCscOYdFFY2T5N_3std2io5Write9write_fmt7AdapterNtNtNtNtNtBX_3sys3pal4unix5stdio6StderrENtB4_12SpecWriteFmt14spec_write_fmtCsiXPXk7oLjIW_18build_script_build, symObjAddr: 0x20E8, symBinAddr: 0x1000058A8, symSize: 0x164 }
  - { offset: 0xC801, size: 0x8, addend: 0x0, symName: __RNvYINtNvNtNtCscOYdFFY2T5N_3std2io5Write9write_fmt7AdapterNtNtNtNtNtBb_3sys3pal4unix5stdio6StderrENtNtCsfvfooZQ3Axs_4core3fmt5Write10write_charCsiXPXk7oLjIW_18build_script_build, symObjAddr: 0x23EC, symBinAddr: 0x100005BAC, symSize: 0x70 }
  - { offset: 0xC869, size: 0x8, addend: 0x0, symName: __RNvYINtNvNtNtCscOYdFFY2T5N_3std2io5Write9write_fmt7AdapterNtNtNtNtNtBb_3sys3pal4unix5stdio6StderrENtNtCsfvfooZQ3Axs_4core3fmt5Write9write_fmtCsiXPXk7oLjIW_18build_script_build, symObjAddr: 0x245C, symBinAddr: 0x100005C1C, symSize: 0x24 }
  - { offset: 0xC8DC, size: 0x8, addend: 0x0, symName: __RNvXs7_NtNtCsfvfooZQ3Axs_4core3cmp5implsReNtB7_9PartialEq2eqCsiXPXk7oLjIW_18build_script_build, symObjAddr: 0x1F1C, symBinAddr: 0x1000056DC, symSize: 0x44 }
  - { offset: 0xC96D, size: 0x8, addend: 0x0, symName: __RNvXsU_NtNtCsfvfooZQ3Axs_4core3cmp5implsjNtB7_10PartialOrd11partial_cmpCsiXPXk7oLjIW_18build_script_build, symObjAddr: 0x2000, symBinAddr: 0x1000057C0, symSize: 0x40 }
  - { offset: 0xC9DB, size: 0x8, addend: 0x0, symName: __RNvYNtCsiXPXk7oLjIW_18build_script_build7VersionNtNtCsfvfooZQ3Axs_4core3cmp10PartialOrd2geB4_, symObjAddr: 0x2480, symBinAddr: 0x100005C40, symSize: 0x78 }
  - { offset: 0xCA30, size: 0x8, addend: 0x0, symName: __RNvYjNtNtCsfvfooZQ3Axs_4core3cmp3Ord3maxCsiXPXk7oLjIW_18build_script_build, symObjAddr: 0x24F8, symBinAddr: 0x100005CB8, symSize: 0x80 }
  - { offset: 0xCB2D, size: 0x8, addend: 0x0, symName: __RNvMNtNtCsfvfooZQ3Axs_4core4char7methodsc13is_whitespaceCsiXPXk7oLjIW_18build_script_build, symObjAddr: 0xAEC, symBinAddr: 0x1000042AC, symSize: 0x90 }
  - { offset: 0xCB71, size: 0x8, addend: 0x0, symName: __RNvMNtNtCsfvfooZQ3Axs_4core4char7methodsc14is_ascii_digitCsiXPXk7oLjIW_18build_script_build, symObjAddr: 0xB7C, symBinAddr: 0x10000433C, symSize: 0x54 }
  - { offset: 0xCB9F, size: 0x8, addend: 0x0, symName: __RNvMNtNtCsfvfooZQ3Axs_4core4char7methodsc8to_digitCsiXPXk7oLjIW_18build_script_build, symObjAddr: 0xBD0, symBinAddr: 0x100004390, symSize: 0x14C }
  - { offset: 0xCCE7, size: 0x8, addend: 0x0, symName: __RNvNtNtCsfvfooZQ3Axs_4core4char7methods15encode_utf8_rawCsiXPXk7oLjIW_18build_script_build, symObjAddr: 0x1308, symBinAddr: 0x100004AC8, symSize: 0x228 }
  - { offset: 0xDC9B, size: 0x8, addend: 0x0, symName: __RNvXs3_NtNtCsfvfooZQ3Axs_4core3str7patternNCNvCsiXPXk7oLjIW_18build_script_build13rustc_version0NtB5_11MultiCharEq7matchesBI_, symObjAddr: 0x1EA0, symBinAddr: 0x100005660, symSize: 0x28 }
  - { offset: 0xDCE7, size: 0x8, addend: 0x0, symName: __RNvXsr_NtNtCsfvfooZQ3Axs_4core3str7patternNCNvCsiXPXk7oLjIW_18build_script_build13rustc_version0NtB5_7Pattern13into_searcherBI_, symObjAddr: 0x23A4, symBinAddr: 0x100005B64, symSize: 0x48 }
  - { offset: 0xDF7D, size: 0x8, addend: 0x0, symName: __RNvNvXs5_NtNtCsfvfooZQ3Axs_4core3str6traitsINtNtNtBb_3ops5range5RangejEINtNtNtBb_5slice5index10SliceIndexeE13get_unchecked18precondition_checkCsiXPXk7oLjIW_18build_script_build, symObjAddr: 0x1B2C, symBinAddr: 0x1000052EC, symSize: 0x60 }
  - { offset: 0xDFC8, size: 0x8, addend: 0x0, symName: __RNvXs_NtNtCsfvfooZQ3Axs_4core3str6traitseNtNtB8_3cmp9PartialEq2eqCsiXPXk7oLjIW_18build_script_build, symObjAddr: 0x2084, symBinAddr: 0x100005844, symSize: 0x64 }
  - { offset: 0xE1BD, size: 0x8, addend: 0x0, symName: __RNvNvNtNtCsfvfooZQ3Axs_4core5slice3raw14from_raw_parts18precondition_checkCsiXPXk7oLjIW_18build_script_build, symObjAddr: 0x185C, symBinAddr: 0x10000501C, symSize: 0x168 }
  - { offset: 0xE303, size: 0x8, addend: 0x0, symName: __RNvNvNtNtCsfvfooZQ3Axs_4core5slice3raw18from_raw_parts_mut18precondition_checkCsiXPXk7oLjIW_18build_script_build, symObjAddr: 0x19C4, symBinAddr: 0x100005184, symSize: 0x168 }
  - { offset: 0xE4AF, size: 0x8, addend: 0x0, symName: __RNvNtNtCsfvfooZQ3Axs_4core5slice6memchr6memchrCsiXPXk7oLjIW_18build_script_build, symObjAddr: 0x1530, symBinAddr: 0x100004CF0, symSize: 0x114 }
  - { offset: 0xE695, size: 0x8, addend: 0x0, symName: __RNvXsF_NtNtCsfvfooZQ3Axs_4core4iter5rangejNtB5_4Step17forward_uncheckedCsiXPXk7oLjIW_18build_script_build, symObjAddr: 0x1F60, symBinAddr: 0x100005720, symSize: 0x48 }
  - { offset: 0xE6F4, size: 0x8, addend: 0x0, symName: __RNvXsF_NtNtCsfvfooZQ3Axs_4core4iter5rangejNtB5_4Step18backward_uncheckedCsiXPXk7oLjIW_18build_script_build, symObjAddr: 0x1FA8, symBinAddr: 0x100005768, symSize: 0x48 }
  - { offset: 0xE861, size: 0x8, addend: 0x0, symName: __RNvXs1_NtNtNtCsfvfooZQ3Axs_4core3ops8function5implsQNCNvCsiXPXk7oLjIW_18build_script_build34parse_version_cfgs_from_cargo_toml0INtB7_5FnMutTReEE8call_mutBS_, symObjAddr: 0x1D70, symBinAddr: 0x100005530, symSize: 0x38 }
  - { offset: 0xEAC5, size: 0x8, addend: 0x0, symName: __RNvNvNtCsfvfooZQ3Axs_4core4hint16assert_unchecked18precondition_checkCsiXPXk7oLjIW_18build_script_build, symObjAddr: 0x1808, symBinAddr: 0x100004FC8, symSize: 0x38 }
  - { offset: 0xEAF3, size: 0x8, addend: 0x0, symName: __RNvNvNtCsfvfooZQ3Axs_4core4hint21unreachable_unchecked18precondition_checkCsiXPXk7oLjIW_18build_script_build, symObjAddr: 0x1840, symBinAddr: 0x100005000, symSize: 0x1C }
  - { offset: 0xEB73, size: 0x8, addend: 0x0, symName: __RNvXNtCsfvfooZQ3Axs_4core7convertReINtB2_5AsRefNtNtCscOYdFFY2T5N_3std4path4PathE6as_refCsiXPXk7oLjIW_18build_script_build, symObjAddr: 0x1B8C, symBinAddr: 0x10000534C, symSize: 0x30 }
  - { offset: 0xEBB3, size: 0x8, addend: 0x0, symName: __RNvXNtCsfvfooZQ3Axs_4core7convertReINtB2_5AsRefNtNtNtCscOYdFFY2T5N_3std3ffi6os_str5OsStrE6as_refCsiXPXk7oLjIW_18build_script_build, symObjAddr: 0x1BBC, symBinAddr: 0x10000537C, symSize: 0x30 }
  - { offset: 0xEC04, size: 0x8, addend: 0x0, symName: __RNvNtNtNtCsfvfooZQ3Axs_4core7unicode12unicode_data11white_space6lookupCsiXPXk7oLjIW_18build_script_build, symObjAddr: 0x1644, symBinAddr: 0x100004E04, symSize: 0x14C }
  - { offset: 0xEE97, size: 0x8, addend: 0x0, symName: __RINvMs3_NtCse1nGBsou5OW_5alloc3stre7replacecECsiXPXk7oLjIW_18build_script_build, symObjAddr: 0x0, symBinAddr: 0x1000037C0, symSize: 0x714 }
  - { offset: 0xFB1B, size: 0x8, addend: 0x0, symName: __RNCNvNtCse1nGBsou5OW_5alloc3str13replace_ascii0CsiXPXk7oLjIW_18build_script_build, symObjAddr: 0xA88, symBinAddr: 0x100004248, symSize: 0x64 }
  - { offset: 0xFB75, size: 0x8, addend: 0x0, symName: __RNvXs2_NtCse1nGBsou5OW_5alloc3streNtNtB7_6borrow7ToOwned8to_ownedCsiXPXk7oLjIW_18build_script_build, symObjAddr: 0x1DD8, symBinAddr: 0x100005598, symSize: 0x50 }
  - { offset: 0x101ED, size: 0x8, addend: 0x0, symName: __RNvXs1_NtCse1nGBsou5OW_5alloc7raw_vecINtB5_6RawVecINtNtB7_5boxed3BoxDINtNtNtCsfvfooZQ3Axs_4core3ops8function5FnMutuEp6OutputINtNtB1c_6result6ResultuNtNtNtCscOYdFFY2T5N_3std2io5error5ErrorENtNtB1c_6marker4SendNtB32_4SyncEL_EENtNtB1a_4drop4Drop4dropCsiXPXk7oLjIW_18build_script_build, symObjAddr: 0x1CA4, symBinAddr: 0x100005464, symSize: 0x34 }
  - { offset: 0x10229, size: 0x8, addend: 0x0, symName: __RNvXs1_NtCse1nGBsou5OW_5alloc7raw_vecINtB5_6RawVecNtCsiXPXk7oLjIW_18build_script_build10VersionCfgENtNtNtCsfvfooZQ3Axs_4core3ops4drop4Drop4dropBO_, symObjAddr: 0x1CD8, symBinAddr: 0x100005498, symSize: 0x34 }
  - { offset: 0x10265, size: 0x8, addend: 0x0, symName: __RNvXs1_NtCse1nGBsou5OW_5alloc7raw_vecINtB5_6RawVecNtNtNtB7_3ffi5c_str7CStringENtNtNtCsfvfooZQ3Axs_4core3ops4drop4Drop4dropCsiXPXk7oLjIW_18build_script_build, symObjAddr: 0x1D0C, symBinAddr: 0x1000054CC, symSize: 0x34 }
  - { offset: 0x102A1, size: 0x8, addend: 0x0, symName: __RNvXs1_NtCse1nGBsou5OW_5alloc7raw_vecINtB5_6RawVecPaENtNtNtCsfvfooZQ3Axs_4core3ops4drop4Drop4dropCsiXPXk7oLjIW_18build_script_build, symObjAddr: 0x1D40, symBinAddr: 0x100005500, symSize: 0x30 }
  - { offset: 0x104B5, size: 0x8, addend: 0x0, symName: __RNCINvMsm_NtNtNtCse1nGBsou5OW_5alloc11collections5btree8navigateINtNtBa_4node6HandleINtB13_7NodeRefNtNtB13_6marker5DyingNtNtNtCscOYdFFY2T5N_3std3ffi6os_str8OsStringINtNtCsfvfooZQ3Axs_4core6option6OptionB1U_ENtB1B_4LeafENtB1B_4EdgeE27deallocating_next_uncheckedNtNtBe_5alloc6GlobalE0CsiXPXk7oLjIW_18build_script_build, symObjAddr: 0xA30, symBinAddr: 0x1000041F0, symSize: 0x58 }
  - { offset: 0x10A8F, size: 0x8, addend: 0x0, symName: __RINvNtNtNtCse1nGBsou5OW_5alloc11collections5btree3mem7replaceINtNtB4_4node6HandleINtB10_7NodeRefNtNtB10_6marker5DyingNtNtNtCscOYdFFY2T5N_3std3ffi6os_str8OsStringINtNtCsfvfooZQ3Axs_4core6option6OptionB1R_ENtB1y_4LeafENtB1y_4EdgeEIBY_IB1i_B1w_B1R_B2z_NtB1y_14LeafOrInternalENtB1y_2KVENCINvMsm_NtB4_8navigateBX_27deallocating_next_uncheckedNtNtB8_5alloc6GlobalE0ECsiXPXk7oLjIW_18build_script_build, symObjAddr: 0x964, symBinAddr: 0x100004124, symSize: 0xCC }
  - { offset: 0x11190, size: 0x8, addend: 0x0, symName: __RINvMsb_NtNtNtCse1nGBsou5OW_5alloc11collections5btree8navigateINtB6_13LazyLeafRangeNtNtNtB8_4node6marker5DyingNtNtNtCscOYdFFY2T5N_3std3ffi6os_str8OsStringINtNtCsfvfooZQ3Axs_4core6option6OptionB1K_EE16deallocating_endNtNtBc_5alloc6GlobalECsiXPXk7oLjIW_18build_script_build, symObjAddr: 0x714, symBinAddr: 0x100003ED4, symSize: 0xA8 }
  - { offset: 0x11262, size: 0x8, addend: 0x0, symName: __RINvMsb_NtNtNtCse1nGBsou5OW_5alloc11collections5btree8navigateINtB6_13LazyLeafRangeNtNtNtB8_4node6marker5DyingNtNtNtCscOYdFFY2T5N_3std3ffi6os_str8OsStringINtNtCsfvfooZQ3Axs_4core6option6OptionB1K_EE27deallocating_next_uncheckedNtNtBc_5alloc6GlobalECsiXPXk7oLjIW_18build_script_build, symObjAddr: 0x7BC, symBinAddr: 0x100003F7C, symSize: 0xA8 }
  - { offset: 0x11409, size: 0x8, addend: 0x0, symName: __RINvMsk_NtCscOYdFFY2T5N_3std7processNtB6_7Command3argReECsiXPXk7oLjIW_18build_script_build, symObjAddr: 0x864, symBinAddr: 0x100004024, symSize: 0x70 }
  - { offset: 0x11444, size: 0x8, addend: 0x0, symName: __RINvMsk_NtCscOYdFFY2T5N_3std7processNtB6_7Command3newNtNtNtB8_3ffi6os_str8OsStringECsiXPXk7oLjIW_18build_script_build, symObjAddr: 0x8D4, symBinAddr: 0x100004094, symSize: 0x90 }
  - { offset: 0x11622, size: 0x8, addend: 0x0, symName: __RNvCsiXPXk7oLjIW_18build_script_build4main, symObjAddr: 0x2578, symBinAddr: 0x100005D38, symSize: 0x458 }
  - { offset: 0x116FD, size: 0x8, addend: 0x0, symName: __RNvCsiXPXk7oLjIW_18build_script_build34parse_version_cfgs_from_cargo_toml, symObjAddr: 0x29D0, symBinAddr: 0x100006190, symSize: 0x310 }
  - { offset: 0x117E7, size: 0x8, addend: 0x0, symName: __RNCNvCsiXPXk7oLjIW_18build_script_build34parse_version_cfgs_from_cargo_toml0B3_, symObjAddr: 0x2CE0, symBinAddr: 0x1000064A0, symSize: 0x5FC }
  - { offset: 0x11A24, size: 0x8, addend: 0x0, symName: __RINvNvCsiXPXk7oLjIW_18build_script_build34parse_version_cfgs_from_cargo_toml18panic_cold_displayNtNtCse1nGBsou5OW_5alloc6string6StringEB4_, symObjAddr: 0x3930, symBinAddr: 0x10004E974, symSize: 0x28 }
  - { offset: 0x11A5D, size: 0x8, addend: 0x0, symName: __RNvCsiXPXk7oLjIW_18build_script_build13rustc_version, symObjAddr: 0x32DC, symBinAddr: 0x100006A9C, symSize: 0x50C }
  - { offset: 0x11BD4, size: 0x8, addend: 0x0, symName: __RNCNvCsiXPXk7oLjIW_18build_script_build13rustc_version0B3_, symObjAddr: 0x37E8, symBinAddr: 0x100006FA8, symSize: 0x80 }
  - { offset: 0x11C17, size: 0x8, addend: 0x0, symName: __RNvXs2_CsiXPXk7oLjIW_18build_script_buildNtB5_7VersionNtNtCsfvfooZQ3Axs_4core3cmp10PartialOrd11partial_cmpB5_, symObjAddr: 0x3868, symBinAddr: 0x100007028, symSize: 0xC8 }
  - { offset: 0x11CC3, size: 0x8, addend: 0x0, symName: __RNvMs1_NtNtCsfvfooZQ3Axs_4core3ptr8non_nullINtB5_7NonNullNtCsiXPXk7oLjIW_18build_script_build10VersionCfgE7sub_ptrBV_, symObjAddr: 0xD1C, symBinAddr: 0x1000044DC, symSize: 0x74 }
  - { offset: 0x11DAF, size: 0x8, addend: 0x0, symName: __RNvMs1_NtNtCsfvfooZQ3Axs_4core3ptr8non_nullINtB5_7NonNullhE7sub_ptrCsiXPXk7oLjIW_18build_script_build, symObjAddr: 0xD90, symBinAddr: 0x100004550, symSize: 0x74 }
  - { offset: 0x11F26, size: 0x8, addend: 0x0, symName: __RNvMs2_NtCse1nGBsou5OW_5alloc7raw_vecNtB5_11RawVecInner16with_capacity_inCsiXPXk7oLjIW_18build_script_build, symObjAddr: 0xE04, symBinAddr: 0x1000045C4, symSize: 0x10C }
  - { offset: 0x1213B, size: 0x8, addend: 0x0, symName: __RNvMsC_NtCscOYdFFY2T5N_3std7processNtB5_10ExitStatus7successCsiXPXk7oLjIW_18build_script_build, symObjAddr: 0xF10, symBinAddr: 0x1000046D0, symSize: 0x70 }
  - { offset: 0x12398, size: 0x8, addend: 0x0, symName: __RNvMsb_NtNtNtCse1nGBsou5OW_5alloc11collections5btree8navigateINtB5_13LazyLeafRangeNtNtNtB7_4node6marker5DyingNtNtNtCscOYdFFY2T5N_3std3ffi6os_str8OsStringINtNtCsfvfooZQ3Axs_4core6option6OptionB1J_EE10take_frontCsiXPXk7oLjIW_18build_script_build, symObjAddr: 0xF80, symBinAddr: 0x100004740, symSize: 0x1C4 }
  - { offset: 0x12721, size: 0x8, addend: 0x0, symName: __RNvMsc_NtNtNtCse1nGBsou5OW_5alloc11collections5btree8navigateINtB5_13LazyLeafRangeNtNtNtB7_4node6marker5DyingNtNtNtCscOYdFFY2T5N_3std3ffi6os_str8OsStringINtNtCsfvfooZQ3Axs_4core6option6OptionB1J_EE10init_frontCsiXPXk7oLjIW_18build_script_build, symObjAddr: 0x1144, symBinAddr: 0x100004904, symSize: 0x1C4 }
  - { offset: 0x12C0E, size: 0x8, addend: 0x0, symName: __RINvMs3_NtCsfvfooZQ3Axs_4core3fmtNtB6_9Arguments6new_v1Kj1_KBS_ECsiXPXk7oLjIW_18build_script_build, symObjAddr: 0x0, symBinAddr: 0x10000711C, symSize: 0x50 }
  - { offset: 0x12C58, size: 0x8, addend: 0x0, symName: __RNCINvNtCscOYdFFY2T5N_3std2rt10lang_startuE0CsiXPXk7oLjIW_18build_script_build, symObjAddr: 0x171C, symBinAddr: 0x100008668, symSize: 0x34 }
  - { offset: 0x12CC2, size: 0x8, addend: 0x0, symName: __RINvNtCscOYdFFY2T5N_3std2rt10lang_startuECsiXPXk7oLjIW_18build_script_build, symObjAddr: 0x1F8, symBinAddr: 0x100007314, symSize: 0x60 }
  - { offset: 0x130CC, size: 0x8, addend: 0x0, symName: __RNvYNtNtNtNtNtCscOYdFFY2T5N_3std3sys3pal4unix5stdio6StderrNtNtBc_2io5Write9write_allCsiXPXk7oLjIW_18build_script_build, symObjAddr: 0x35C4, symBinAddr: 0x10000A50C, symSize: 0x180 }
  - { offset: 0x1316D, size: 0x8, addend: 0x0, symName: __RNvYNtNtNtNtNtCscOYdFFY2T5N_3std3sys3pal4unix5stdio6StderrNtNtBc_2io5Write9write_fmtCsiXPXk7oLjIW_18build_script_build, symObjAddr: 0x3744, symBinAddr: 0x10000A68C, symSize: 0x128 }
  - { offset: 0x13466, size: 0x8, addend: 0x0, symName: __RINvNtNtCscOYdFFY2T5N_3std3sys9backtrace28___rust_begin_short_backtraceFEuuECsiXPXk7oLjIW_18build_script_build, symObjAddr: 0x13C8, symBinAddr: 0x100008314, symSize: 0x24 }
  - { offset: 0x13517, size: 0x8, addend: 0x0, symName: __RINvNtCscOYdFFY2T5N_3std2fs14read_to_stringReECsiXPXk7oLjIW_18build_script_build, symObjAddr: 0x190, symBinAddr: 0x1000072AC, symSize: 0x68 }
  - { offset: 0x135E1, size: 0x8, addend: 0x0, symName: __RNvXs1h_NtCscOYdFFY2T5N_3std4patheINtNtCsfvfooZQ3Axs_4core7convert5AsRefNtB6_4PathE6as_refCsiXPXk7oLjIW_18build_script_build, symObjAddr: 0x2BBC, symBinAddr: 0x100009B04, symSize: 0x18 }
  - { offset: 0x1442E, size: 0x8, addend: 0x0, symName: __RINvNtCsfvfooZQ3Axs_4core3ptr13drop_in_placeINtNtB4_6option6OptionINtNtCse1nGBsou5OW_5alloc5boxed3BoxSmEEECsiXPXk7oLjIW_18build_script_build, symObjAddr: 0x300, symBinAddr: 0x100007374, symSize: 0x44 }
  - { offset: 0x1445D, size: 0x8, addend: 0x0, symName: __RINvNtCsfvfooZQ3Axs_4core3ptr13drop_in_placeINtNtB4_6option6OptionNtCsiXPXk7oLjIW_18build_script_build10VersionCfgEEB14_, symObjAddr: 0x344, symBinAddr: 0x1000073B8, symSize: 0x48 }
  - { offset: 0x1448C, size: 0x8, addend: 0x0, symName: __RINvNtCsfvfooZQ3Axs_4core3ptr13drop_in_placeINtNtB4_6option6OptionNtNtNtCscOYdFFY2T5N_3std3ffi6os_str8OsStringEECsiXPXk7oLjIW_18build_script_build, symObjAddr: 0x38C, symBinAddr: 0x100007400, symSize: 0x48 }
  - { offset: 0x144BB, size: 0x8, addend: 0x0, symName: __RINvNtCsfvfooZQ3Axs_4core3ptr13drop_in_placeINtNtB4_6option6OptionNtNtNtCse1nGBsou5OW_5alloc3ffi5c_str7CStringEECsiXPXk7oLjIW_18build_script_build, symObjAddr: 0x3D4, symBinAddr: 0x100007448, symSize: 0x44 }
  - { offset: 0x144EA, size: 0x8, addend: 0x0, symName: __RINvNtCsfvfooZQ3Axs_4core3ptr13drop_in_placeINtNtB4_6option6OptionNtNtNtNtNtNtCscOYdFFY2T5N_3std3sys3pal4unix7process14process_common5StdioEECsiXPXk7oLjIW_18build_script_build, symObjAddr: 0x418, symBinAddr: 0x10000748C, symSize: 0x44 }
  - { offset: 0x14519, size: 0x8, addend: 0x0, symName: __RINvNtCsfvfooZQ3Axs_4core3ptr13drop_in_placeINtNtB4_6result6ResultuNtNtNtCscOYdFFY2T5N_3std2io5error5ErrorEECsiXPXk7oLjIW_18build_script_build, symObjAddr: 0x45C, symBinAddr: 0x1000074D0, symSize: 0x44 }
  - { offset: 0x14548, size: 0x8, addend: 0x0, symName: __RINvNtCsfvfooZQ3Axs_4core3ptr13drop_in_placeINtNtCse1nGBsou5OW_5alloc3vec3VecINtNtBL_5boxed3BoxDINtNtNtB4_3ops8function5FnMutuEp6OutputINtNtB4_6result6ResultuNtNtNtCscOYdFFY2T5N_3std2io5error5ErrorENtNtB4_6marker4SendNtB3c_4SyncEL_EEECsiXPXk7oLjIW_18build_script_build, symObjAddr: 0x4A0, symBinAddr: 0x100007514, symSize: 0x5C }
  - { offset: 0x14577, size: 0x8, addend: 0x0, symName: __RINvNtCsfvfooZQ3Axs_4core3ptr13drop_in_placeINtNtCse1nGBsou5OW_5alloc3vec3VecNtCsiXPXk7oLjIW_18build_script_build10VersionCfgEEB1f_, symObjAddr: 0x4FC, symBinAddr: 0x100007570, symSize: 0x5C }
  - { offset: 0x145A6, size: 0x8, addend: 0x0, symName: __RINvNtCsfvfooZQ3Axs_4core3ptr13drop_in_placeINtNtCse1nGBsou5OW_5alloc3vec3VecNtNtNtBL_3ffi5c_str7CStringEECsiXPXk7oLjIW_18build_script_build, symObjAddr: 0x558, symBinAddr: 0x1000075CC, symSize: 0x5C }
  - { offset: 0x145D5, size: 0x8, addend: 0x0, symName: __RINvNtCsfvfooZQ3Axs_4core3ptr13drop_in_placeINtNtCse1nGBsou5OW_5alloc3vec3VecPaEECsiXPXk7oLjIW_18build_script_build, symObjAddr: 0x5B4, symBinAddr: 0x100007628, symSize: 0x5C }
  - { offset: 0x14604, size: 0x8, addend: 0x0, symName: __RINvNtCsfvfooZQ3Axs_4core3ptr13drop_in_placeINtNtCse1nGBsou5OW_5alloc3vec3VechEECsiXPXk7oLjIW_18build_script_build, symObjAddr: 0x610, symBinAddr: 0x100007684, symSize: 0x5C }
  - { offset: 0x14633, size: 0x8, addend: 0x0, symName: __RINvNtCsfvfooZQ3Axs_4core3ptr13drop_in_placeINtNtCse1nGBsou5OW_5alloc5boxed3BoxDINtNtNtB4_3ops8function5FnMutuEp6OutputINtNtB4_6result6ResultuNtNtNtCscOYdFFY2T5N_3std2io5error5ErrorENtNtB4_6marker4SendNtB2W_4SyncEL_EECsiXPXk7oLjIW_18build_script_build, symObjAddr: 0x66C, symBinAddr: 0x1000076E0, symSize: 0x80 }
  - { offset: 0x14662, size: 0x8, addend: 0x0, symName: __RINvNtCsfvfooZQ3Axs_4core3ptr13drop_in_placeINtNtCse1nGBsou5OW_5alloc5boxed3BoxDNtNtB4_5error5ErrorNtNtB4_6marker4SendNtB1B_4SyncEL_EECsiXPXk7oLjIW_18build_script_build, symObjAddr: 0x6EC, symBinAddr: 0x100007760, symSize: 0x80 }
  - { offset: 0x14691, size: 0x8, addend: 0x0, symName: __RINvNtCsfvfooZQ3Axs_4core3ptr13drop_in_placeINtNtCse1nGBsou5OW_5alloc5boxed3BoxNtNtNtCscOYdFFY2T5N_3std2io5error6CustomEECsiXPXk7oLjIW_18build_script_build, symObjAddr: 0x76C, symBinAddr: 0x1000077E0, symSize: 0x60 }
  - { offset: 0x146C0, size: 0x8, addend: 0x0, symName: __RINvNtCsfvfooZQ3Axs_4core3ptr13drop_in_placeINtNtCse1nGBsou5OW_5alloc5boxed3BoxShEECsiXPXk7oLjIW_18build_script_build, symObjAddr: 0x7CC, symBinAddr: 0x100007840, symSize: 0x2C }
  - { offset: 0x146EF, size: 0x8, addend: 0x0, symName: __RINvNtCsfvfooZQ3Axs_4core3ptr13drop_in_placeINtNtCse1nGBsou5OW_5alloc5boxed3BoxSmEECsiXPXk7oLjIW_18build_script_build, symObjAddr: 0x7F8, symBinAddr: 0x10000786C, symSize: 0x2C }
  - { offset: 0x1471E, size: 0x8, addend: 0x0, symName: __RINvNtCsfvfooZQ3Axs_4core3ptr13drop_in_placeINtNtCse1nGBsou5OW_5alloc6borrow3CoweEECsiXPXk7oLjIW_18build_script_build, symObjAddr: 0x824, symBinAddr: 0x100007898, symSize: 0x48 }
  - { offset: 0x1474D, size: 0x8, addend: 0x0, symName: __RINvNtCsfvfooZQ3Axs_4core3ptr13drop_in_placeINtNtCse1nGBsou5OW_5alloc7raw_vec6RawVecINtNtBL_5boxed3BoxDINtNtNtB4_3ops8function5FnMutuEp6OutputINtNtB4_6result6ResultuNtNtNtCscOYdFFY2T5N_3std2io5error5ErrorENtNtB4_6marker4SendNtB3j_4SyncEL_EEECsiXPXk7oLjIW_18build_script_build, symObjAddr: 0x86C, symBinAddr: 0x1000078E0, symSize: 0x24 }
  - { offset: 0x1477C, size: 0x8, addend: 0x0, symName: __RINvNtCsfvfooZQ3Axs_4core3ptr13drop_in_placeINtNtCse1nGBsou5OW_5alloc7raw_vec6RawVecNtCsiXPXk7oLjIW_18build_script_build10VersionCfgEEB1m_, symObjAddr: 0x890, symBinAddr: 0x100007904, symSize: 0x24 }
  - { offset: 0x147AB, size: 0x8, addend: 0x0, symName: __RINvNtCsfvfooZQ3Axs_4core3ptr13drop_in_placeINtNtCse1nGBsou5OW_5alloc7raw_vec6RawVecNtNtNtBL_3ffi5c_str7CStringEECsiXPXk7oLjIW_18build_script_build, symObjAddr: 0x8B4, symBinAddr: 0x100007928, symSize: 0x24 }
  - { offset: 0x147DA, size: 0x8, addend: 0x0, symName: __RINvNtCsfvfooZQ3Axs_4core3ptr13drop_in_placeINtNtCse1nGBsou5OW_5alloc7raw_vec6RawVecPaEECsiXPXk7oLjIW_18build_script_build, symObjAddr: 0x8D8, symBinAddr: 0x10000794C, symSize: 0x24 }
  - { offset: 0x14809, size: 0x8, addend: 0x0, symName: __RINvNtCsfvfooZQ3Axs_4core3ptr13drop_in_placeINtNtCse1nGBsou5OW_5alloc7raw_vec6RawVechEECsiXPXk7oLjIW_18build_script_build, symObjAddr: 0x8FC, symBinAddr: 0x100007970, symSize: 0x24 }
  - { offset: 0x14838, size: 0x8, addend: 0x0, symName: __RINvNtCsfvfooZQ3Axs_4core3ptr13drop_in_placeINtNtNtB4_3ops12control_flow11ControlFlowNtCsiXPXk7oLjIW_18build_script_build10VersionCfgEEB1n_, symObjAddr: 0x920, symBinAddr: 0x100007994, symSize: 0x48 }
  - { offset: 0x14867, size: 0x8, addend: 0x0, symName: __RINvNtCsfvfooZQ3Axs_4core3ptr13drop_in_placeINtNtNtCscOYdFFY2T5N_3std2io5error9ErrorDataINtNtCse1nGBsou5OW_5alloc5boxed3BoxNtBJ_6CustomEEECsiXPXk7oLjIW_18build_script_build, symObjAddr: 0x968, symBinAddr: 0x1000079DC, symSize: 0x48 }
  - { offset: 0x14896, size: 0x8, addend: 0x0, symName: __RINvNtCsfvfooZQ3Axs_4core3ptr13drop_in_placeINtNtNtCse1nGBsou5OW_5alloc3vec9into_iter8IntoIterNtCsiXPXk7oLjIW_18build_script_build10VersionCfgEEB1w_, symObjAddr: 0x9B0, symBinAddr: 0x100007A24, symSize: 0x24 }
  - { offset: 0x148C5, size: 0x8, addend: 0x0, symName: __RINvNtCsfvfooZQ3Axs_4core3ptr13drop_in_placeINtNtNtNtCse1nGBsou5OW_5alloc11collections5btree3map8BTreeMapNtNtNtCscOYdFFY2T5N_3std3ffi6os_str8OsStringINtNtB4_6option6OptionB1F_EEECsiXPXk7oLjIW_18build_script_build, symObjAddr: 0x9D4, symBinAddr: 0x100007A48, symSize: 0x24 }
  - { offset: 0x148F4, size: 0x8, addend: 0x0, symName: __RINvNtCsfvfooZQ3Axs_4core3ptr13drop_in_placeINtNtNtNtCse1nGBsou5OW_5alloc11collections5btree3map8IntoIterNtNtNtCscOYdFFY2T5N_3std3ffi6os_str8OsStringINtNtB4_6option6OptionB1F_EEECsiXPXk7oLjIW_18build_script_build, symObjAddr: 0x9F8, symBinAddr: 0x100007A6C, symSize: 0x24 }
  - { offset: 0x14923, size: 0x8, addend: 0x0, symName: __RINvNtCsfvfooZQ3Axs_4core3ptr13drop_in_placeINtNvMsT_NtNtNtCse1nGBsou5OW_5alloc11collections5btree4nodeINtBP_6HandleINtBP_7NodeRefNtNtBP_6marker5DyingpppENtB26_2KVE12drop_key_val7DropperINtNtB4_6option6OptionNtNtNtCscOYdFFY2T5N_3std3ffi6os_str8OsStringEEECsiXPXk7oLjIW_18build_script_build, symObjAddr: 0xA1C, symBinAddr: 0x100007A90, symSize: 0x24 }
  - { offset: 0x14952, size: 0x8, addend: 0x0, symName: __RINvNtCsfvfooZQ3Axs_4core3ptr13drop_in_placeINtNvNtNtCscOYdFFY2T5N_3std2io5Write9write_fmt7AdapterNtNtNtNtNtBP_3sys3pal4unix5stdio6StderrEECsiXPXk7oLjIW_18build_script_build, symObjAddr: 0xA40, symBinAddr: 0x100007AB4, symSize: 0x24 }
  - { offset: 0x14981, size: 0x8, addend: 0x0, symName: __RINvNtCsfvfooZQ3Axs_4core3ptr13drop_in_placeINtNvXsd_NtNtCse1nGBsou5OW_5alloc3vec9into_iterINtBP_8IntoIterppENtNtNtB4_3ops4drop4Drop4drop9DropGuardNtCsiXPXk7oLjIW_18build_script_build10VersionCfgNtNtBT_5alloc6GlobalEEB2n_, symObjAddr: 0xA64, symBinAddr: 0x100007AD8, symSize: 0x24 }
  - { offset: 0x149B0, size: 0x8, addend: 0x0, symName: __RINvNtCsfvfooZQ3Axs_4core3ptr13drop_in_placeINtNvXsw_NtNtNtCse1nGBsou5OW_5alloc11collections5btree3mapINtBP_8IntoIterpppENtNtNtB4_3ops4drop4Drop4drop9DropGuardNtNtNtCscOYdFFY2T5N_3std3ffi6os_str8OsStringINtNtB4_6option6OptionB2x_ENtNtBV_5alloc6GlobalEECsiXPXk7oLjIW_18build_script_build, symObjAddr: 0xA88, symBinAddr: 0x100007AFC, symSize: 0x24 }
  - { offset: 0x149DF, size: 0x8, addend: 0x0, symName: __RINvNtCsfvfooZQ3Axs_4core3ptr13drop_in_placeNCINvMsi_NtCse1nGBsou5OW_5alloc3vecINtBP_3VechE14extend_trustedINtNtNtNtB4_4iter8adapters3map3MapINtNtNtB4_5slice4iter4IterhENCNvNtBR_3str13replace_ascii0EE0ECsiXPXk7oLjIW_18build_script_build, symObjAddr: 0xAAC, symBinAddr: 0x100007B20, symSize: 0x24 }
  - { offset: 0x14A0E, size: 0x8, addend: 0x0, symName: __RINvNtCsfvfooZQ3Axs_4core3ptr13drop_in_placeNCINvNtNtNtB4_4iter8adapters3map8map_foldRhhuNCNvNtCse1nGBsou5OW_5alloc3str13replace_ascii0NCINvNvNtNtNtBP_6traits8iterator8Iterator8for_each4callhNCINvMsi_NtB1v_3vecINtB3c_3VechE14extend_trustedINtBL_3MapINtNtNtB4_5slice4iter4IterhEB1p_EE0E0E0ECsiXPXk7oLjIW_18build_script_build, symObjAddr: 0xAE0, symBinAddr: 0x100007B44, symSize: 0x24 }
  - { offset: 0x14A3D, size: 0x8, addend: 0x0, symName: __RINvNtCsfvfooZQ3Axs_4core3ptr13drop_in_placeNCINvNvNtNtNtNtB4_4iter6traits8iterator8Iterator8for_each4callhNCINvMsi_NtCse1nGBsou5OW_5alloc3vecINtB1Q_3VechE14extend_trustedINtNtNtBT_8adapters3map3MapINtNtNtB4_5slice4iter4IterhENCNvNtB1S_3str13replace_ascii0EE0E0ECsiXPXk7oLjIW_18build_script_build, symObjAddr: 0xB04, symBinAddr: 0x100007B68, symSize: 0x24 }
  - { offset: 0x14A6C, size: 0x8, addend: 0x0, symName: __RINvNtCsfvfooZQ3Axs_4core3ptr13drop_in_placeNtCsiXPXk7oLjIW_18build_script_build10VersionCfgEBI_, symObjAddr: 0xB28, symBinAddr: 0x100007B8C, symSize: 0x24 }
  - { offset: 0x14A9B, size: 0x8, addend: 0x0, symName: __RINvNtCsfvfooZQ3Axs_4core3ptr13drop_in_placeNtNtCscOYdFFY2T5N_3std7process6OutputECsiXPXk7oLjIW_18build_script_build, symObjAddr: 0xB4C, symBinAddr: 0x100007BB0, symSize: 0x60 }
  - { offset: 0x14ACA, size: 0x8, addend: 0x0, symName: __RINvNtCsfvfooZQ3Axs_4core3ptr13drop_in_placeNtNtCscOYdFFY2T5N_3std7process7CommandECsiXPXk7oLjIW_18build_script_build, symObjAddr: 0xBAC, symBinAddr: 0x100007C10, symSize: 0x24 }
  - { offset: 0x14AF9, size: 0x8, addend: 0x0, symName: __RINvNtCsfvfooZQ3Axs_4core3ptr13drop_in_placeNtNtCse1nGBsou5OW_5alloc6string6StringECsiXPXk7oLjIW_18build_script_build, symObjAddr: 0xBD0, symBinAddr: 0x100007C34, symSize: 0x24 }
  - { offset: 0x14B28, size: 0x8, addend: 0x0, symName: __RINvNtCsfvfooZQ3Axs_4core3ptr13drop_in_placeNtNtNtCscOYdFFY2T5N_3std10sys_common7process10CommandEnvECsiXPXk7oLjIW_18build_script_build, symObjAddr: 0xC24, symBinAddr: 0x100007C58, symSize: 0x24 }
  - { offset: 0x14B57, size: 0x8, addend: 0x0, symName: __RINvNtCsfvfooZQ3Axs_4core3ptr13drop_in_placeNtNtNtCscOYdFFY2T5N_3std2io5error5ErrorECsiXPXk7oLjIW_18build_script_build, symObjAddr: 0xC48, symBinAddr: 0x100007C7C, symSize: 0x24 }
  - { offset: 0x14B86, size: 0x8, addend: 0x0, symName: __RINvNtCsfvfooZQ3Axs_4core3ptr13drop_in_placeNtNtNtCscOYdFFY2T5N_3std2io5error6CustomECsiXPXk7oLjIW_18build_script_build, symObjAddr: 0xC6C, symBinAddr: 0x100007CA0, symSize: 0x24 }
  - { offset: 0x14BB5, size: 0x8, addend: 0x0, symName: __RINvNtCsfvfooZQ3Axs_4core3ptr13drop_in_placeNtNtNtCscOYdFFY2T5N_3std3ffi6os_str8OsStringECsiXPXk7oLjIW_18build_script_build, symObjAddr: 0xC90, symBinAddr: 0x100007CC4, symSize: 0x24 }
  - { offset: 0x14BE4, size: 0x8, addend: 0x0, symName: __RINvNtCsfvfooZQ3Axs_4core3ptr13drop_in_placeNtNtNtCse1nGBsou5OW_5alloc3ffi5c_str7CStringECsiXPXk7oLjIW_18build_script_build, symObjAddr: 0xCB4, symBinAddr: 0x100007CE8, symSize: 0x5C }
  - { offset: 0x14C13, size: 0x8, addend: 0x0, symName: __RINvNtCsfvfooZQ3Axs_4core3ptr13drop_in_placeNtNtNtCse1nGBsou5OW_5alloc3vec15set_len_on_drop12SetLenOnDropECsiXPXk7oLjIW_18build_script_build, symObjAddr: 0xD10, symBinAddr: 0x100007D44, symSize: 0x24 }
  - { offset: 0x14C42, size: 0x8, addend: 0x0, symName: __RINvNtCsfvfooZQ3Axs_4core3ptr13drop_in_placeNtNtNtNtCscOYdFFY2T5N_3std2io5error14repr_bitpacked4ReprECsiXPXk7oLjIW_18build_script_build, symObjAddr: 0xD34, symBinAddr: 0x100007D68, symSize: 0x24 }
  - { offset: 0x14C71, size: 0x8, addend: 0x0, symName: __RINvNtCsfvfooZQ3Axs_4core3ptr13drop_in_placeNtNtNtNtCscOYdFFY2T5N_3std2os2fd5owned7OwnedFdECsiXPXk7oLjIW_18build_script_build, symObjAddr: 0xD58, symBinAddr: 0x100007D8C, symSize: 0x24 }
  - { offset: 0x14CA0, size: 0x8, addend: 0x0, symName: __RINvNtCsfvfooZQ3Axs_4core3ptr13drop_in_placeNtNtNtNtCscOYdFFY2T5N_3std3sys6os_str5bytes3BufECsiXPXk7oLjIW_18build_script_build, symObjAddr: 0xD7C, symBinAddr: 0x100007DB0, symSize: 0x24 }
  - { offset: 0x14CCF, size: 0x8, addend: 0x0, symName: __RINvNtCsfvfooZQ3Axs_4core3ptr13drop_in_placeNtNtNtNtNtCscOYdFFY2T5N_3std3sys3pal4unix2fd8FileDescECsiXPXk7oLjIW_18build_script_build, symObjAddr: 0xDA0, symBinAddr: 0x100007DD4, symSize: 0x24 }
  - { offset: 0x14CFE, size: 0x8, addend: 0x0, symName: __RINvNtCsfvfooZQ3Axs_4core3ptr13drop_in_placeNtNtNtNtNtNtCscOYdFFY2T5N_3std3sys3pal4unix7process14process_common4ArgvECsiXPXk7oLjIW_18build_script_build, symObjAddr: 0xDC4, symBinAddr: 0x100007DF8, symSize: 0x24 }
  - { offset: 0x14D2D, size: 0x8, addend: 0x0, symName: __RINvNtCsfvfooZQ3Axs_4core3ptr13drop_in_placeNtNtNtNtNtNtCscOYdFFY2T5N_3std3sys3pal4unix7process14process_common5StdioECsiXPXk7oLjIW_18build_script_build, symObjAddr: 0xDE8, symBinAddr: 0x100007E1C, symSize: 0x44 }
  - { offset: 0x14D5C, size: 0x8, addend: 0x0, symName: __RINvNtCsfvfooZQ3Axs_4core3ptr13drop_in_placeNtNtNtNtNtNtCscOYdFFY2T5N_3std3sys3pal4unix7process14process_common7CommandECsiXPXk7oLjIW_18build_script_build, symObjAddr: 0xE2C, symBinAddr: 0x100007E60, symSize: 0x1DC }
  - { offset: 0x14D8B, size: 0x8, addend: 0x0, symName: __RINvNtCsfvfooZQ3Axs_4core3ptr13drop_in_placeNtNvNtNtNtCse1nGBsou5OW_5alloc11collections5btree3mem7replace10PanicGuardECsiXPXk7oLjIW_18build_script_build, symObjAddr: 0x1008, symBinAddr: 0x10000803C, symSize: 0x24 }
  - { offset: 0x14DBA, size: 0x8, addend: 0x0, symName: __RINvNtCsfvfooZQ3Axs_4core3ptr13drop_in_placeSINtNtCse1nGBsou5OW_5alloc5boxed3BoxDINtNtNtB4_3ops8function5FnMutuEp6OutputINtNtB4_6result6ResultuNtNtNtCscOYdFFY2T5N_3std2io5error5ErrorENtNtB4_6marker4SendNtB2X_4SyncEL_EECsiXPXk7oLjIW_18build_script_build, symObjAddr: 0x108C, symBinAddr: 0x100008060, symSize: 0xB4 }
  - { offset: 0x14DE9, size: 0x8, addend: 0x0, symName: __RINvNtCsfvfooZQ3Axs_4core3ptr13drop_in_placeSNtCsiXPXk7oLjIW_18build_script_build10VersionCfgEBJ_, symObjAddr: 0x1140, symBinAddr: 0x100008114, symSize: 0xC4 }
  - { offset: 0x14E18, size: 0x8, addend: 0x0, symName: __RINvNtCsfvfooZQ3Axs_4core3ptr13drop_in_placeSNtNtNtCse1nGBsou5OW_5alloc3ffi5c_str7CStringECsiXPXk7oLjIW_18build_script_build, symObjAddr: 0x1204, symBinAddr: 0x1000081D8, symSize: 0xB4 }
  - { offset: 0x15342, size: 0x8, addend: 0x0, symName: __RNvXs9_NtNtCsfvfooZQ3Axs_4core3str6traitsINtNtNtB9_3ops5range9RangeFromjEINtNtNtB9_5slice5index10SliceIndexeE3getCsiXPXk7oLjIW_18build_script_build, symObjAddr: 0x3118, symBinAddr: 0x10000A060, symSize: 0x148 }
  - { offset: 0x1579D, size: 0x8, addend: 0x0, symName: __RNvNvMs9_NtCsfvfooZQ3Axs_4core3numj13unchecked_add18precondition_checkCsiXPXk7oLjIW_18build_script_build, symObjAddr: 0x236C, symBinAddr: 0x1000092B4, symSize: 0x44 }
  - { offset: 0x157FF, size: 0x8, addend: 0x0, symName: __RNvNvMs9_NtCsfvfooZQ3Axs_4core3numj13unchecked_sub18precondition_checkCsiXPXk7oLjIW_18build_script_build, symObjAddr: 0x23B0, symBinAddr: 0x1000092F8, symSize: 0x40 }
  - { offset: 0x158B6, size: 0x8, addend: 0x0, symName: __RNvMsu_NtCsfvfooZQ3Axs_4core3numj16from_ascii_radixCsiXPXk7oLjIW_18build_script_build, symObjAddr: 0x1D90, symBinAddr: 0x100008CDC, symSize: 0x58C }
  - { offset: 0x15B56, size: 0x8, addend: 0x0, symName: __RNvNvMs3_NtCsfvfooZQ3Axs_4core3numi13unchecked_neg18precondition_checkCsiXPXk7oLjIW_18build_script_build, symObjAddr: 0x2320, symBinAddr: 0x100009268, symSize: 0x4C }
  - { offset: 0x15C23, size: 0x8, addend: 0x0, symName: __RNvXst_NtCsfvfooZQ3Axs_4core3numjNtNtNtB7_3str6traits7FromStr8from_strCsiXPXk7oLjIW_18build_script_build, symObjAddr: 0x3434, symBinAddr: 0x10000A37C, symSize: 0x30 }
  - { offset: 0x1644F, size: 0x8, addend: 0x0, symName: __RNvXs1a_NtCsfvfooZQ3Axs_4core3fmtRReNtB6_5Debug3fmtCsiXPXk7oLjIW_18build_script_build, symObjAddr: 0x2AB4, symBinAddr: 0x1000099FC, symSize: 0x30 }
  - { offset: 0x16495, size: 0x8, addend: 0x0, symName: __RNvXs1a_NtCsfvfooZQ3Axs_4core3fmtReNtB6_5Debug3fmtCsiXPXk7oLjIW_18build_script_build, symObjAddr: 0x2AE4, symBinAddr: 0x100009A2C, symSize: 0x3C }
  - { offset: 0x164DB, size: 0x8, addend: 0x0, symName: __RNvXs1a_NtCsfvfooZQ3Axs_4core3fmtRhNtB6_5Debug3fmtCsiXPXk7oLjIW_18build_script_build, symObjAddr: 0x2B20, symBinAddr: 0x100009A68, symSize: 0x30 }
  - { offset: 0x16521, size: 0x8, addend: 0x0, symName: __RNvXs1a_NtCsfvfooZQ3Axs_4core3fmtRuNtB6_5Debug3fmtCsiXPXk7oLjIW_18build_script_build, symObjAddr: 0x2B50, symBinAddr: 0x100009A98, symSize: 0x30 }
  - { offset: 0x1656D, size: 0x8, addend: 0x0, symName: __RNvXs1c_NtCsfvfooZQ3Axs_4core3fmtReNtB6_7Display3fmtCsiXPXk7oLjIW_18build_script_build, symObjAddr: 0x2B80, symBinAddr: 0x100009AC8, symSize: 0x3C }
  - { offset: 0x165EC, size: 0x8, addend: 0x0, symName: __RNvXss_NtCsfvfooZQ3Axs_4core3fmtuNtB5_5Debug3fmtCsiXPXk7oLjIW_18build_script_build, symObjAddr: 0x33F4, symBinAddr: 0x10000A33C, symSize: 0x40 }
  - { offset: 0x1664E, size: 0x8, addend: 0x0, symName: __RINvNtCsfvfooZQ3Axs_4core9panicking13assert_failedINtNtB4_6option6OptionReEBM_ECsiXPXk7oLjIW_18build_script_build, symObjAddr: 0x12C8, symBinAddr: 0x10004E99C, symSize: 0x3C }
  - { offset: 0x166B7, size: 0x8, addend: 0x0, symName: __RINvNtCsfvfooZQ3Axs_4core9panicking13assert_failedReBM_ECsiXPXk7oLjIW_18build_script_build, symObjAddr: 0x1304, symBinAddr: 0x10004E9D8, symSize: 0x3C }
  - { offset: 0x16720, size: 0x8, addend: 0x0, symName: __RINvNtCsfvfooZQ3Axs_4core9panicking13panic_displayNtNtCse1nGBsou5OW_5alloc6string6StringECsiXPXk7oLjIW_18build_script_build, symObjAddr: 0x1340, symBinAddr: 0x10000828C, symSize: 0x88 }
  - { offset: 0x1682F, size: 0x8, addend: 0x0, symName: __RNvNvNtCsfvfooZQ3Axs_4core10intrinsics19copy_nonoverlapping18precondition_checkCsiXPXk7oLjIW_18build_script_build, symObjAddr: 0x23F0, symBinAddr: 0x100009338, symSize: 0x2E4 }
  - { offset: 0x16B53, size: 0x8, addend: 0x0, symName: __RNCINvNtNtNtCsfvfooZQ3Axs_4core4iter8adapters3map8map_foldRhhuNCNvNtCse1nGBsou5OW_5alloc3str13replace_ascii0NCINvNvNtNtNtB8_6traits8iterator8Iterator8for_each4callhNCINvMsi_NtB14_3vecINtB2L_3VechE14extend_trustedINtB4_3MapINtNtNtBa_5slice4iter4IterhEBY_EE0E0E0CsiXPXk7oLjIW_18build_script_build, symObjAddr: 0x1750, symBinAddr: 0x10000869C, symSize: 0x7C }
  - { offset: 0x16BDE, size: 0x8, addend: 0x0, symName: __RINvXs0_NtNtNtCsfvfooZQ3Axs_4core4iter8adapters3mapINtB6_3MapINtNtNtBc_5slice4iter4IterhENCNvNtCse1nGBsou5OW_5alloc3str13replace_ascii0ENtNtNtBa_6traits8iterator8Iterator4folduNCINvNvB2a_8for_each4callhNCINvMsi_NtB1v_3vecINtB3n_3VechE14extend_trustedBN_E0E0ECsiXPXk7oLjIW_18build_script_build, symObjAddr: 0x13EC, symBinAddr: 0x100008338, symSize: 0x58 }
  - { offset: 0x16C77, size: 0x8, addend: 0x0, symName: __RNvXs0_NtNtNtCsfvfooZQ3Axs_4core4iter8adapters3mapINtB5_3MapINtNtNtBb_3str4iter14SplitInclusivecENtB11_8LinesMapENtNtNtB9_6traits8iterator8Iterator4nextCsiXPXk7oLjIW_18build_script_build, symObjAddr: 0x29F8, symBinAddr: 0x100009940, symSize: 0x88 }
  - { offset: 0x16CF1, size: 0x8, addend: 0x0, symName: __RNvXs0_NtNtNtCsfvfooZQ3Axs_4core4iter8adapters3mapINtB5_3MapINtNtNtBb_5slice4iter4IterhENCNvNtCse1nGBsou5OW_5alloc3str13replace_ascii0ENtNtNtB9_6traits8iterator8Iterator9size_hintCsiXPXk7oLjIW_18build_script_build, symObjAddr: 0x2A80, symBinAddr: 0x1000099C8, symSize: 0x24 }
  - { offset: 0x16DAA, size: 0x8, addend: 0x0, symName: __RNvXs0_NtNtNtCsfvfooZQ3Axs_4core4iter8adapters10filter_mapINtB5_9FilterMapNtNtNtBb_3str4iter5LinesNCNvCsiXPXk7oLjIW_18build_script_build34parse_version_cfgs_from_cargo_toml0ENtNtNtB9_6traits8iterator8Iterator4nextB1C_, symObjAddr: 0x2980, symBinAddr: 0x1000098C8, symSize: 0x2C }
  - { offset: 0x16DF1, size: 0x8, addend: 0x0, symName: __RNvXs0_NtNtNtCsfvfooZQ3Axs_4core4iter8adapters10filter_mapINtB5_9FilterMapNtNtNtBb_3str4iter5LinesNCNvCsiXPXk7oLjIW_18build_script_build34parse_version_cfgs_from_cargo_toml0ENtNtNtB9_6traits8iterator8Iterator9size_hintB1C_, symObjAddr: 0x29AC, symBinAddr: 0x1000098F4, symSize: 0x4C }
  - { offset: 0x16EB7, size: 0x8, addend: 0x0, symName: __RNCINvNvNtNtNtNtCsfvfooZQ3Axs_4core4iter6traits8iterator8Iterator8for_each4callhNCINvMsi_NtCse1nGBsou5OW_5alloc3vecINtB1p_3VechE14extend_trustedINtNtNtBc_8adapters3map3MapINtNtNtBe_5slice4iter4IterhENCNvNtB1r_3str13replace_ascii0EE0E0CsiXPXk7oLjIW_18build_script_build, symObjAddr: 0x18E0, symBinAddr: 0x10000882C, symSize: 0x28 }
  - { offset: 0x16F41, size: 0x8, addend: 0x0, symName: __RINvYINtNtNtNtCsfvfooZQ3Axs_4core4iter8adapters10filter_map9FilterMapNtNtNtBc_3str4iter5LinesNCNvCsiXPXk7oLjIW_18build_script_build34parse_version_cfgs_from_cargo_toml0ENtNtNtBa_6traits8iterator8Iterator7collectINtNtCse1nGBsou5OW_5alloc3vec3VecNtB1x_10VersionCfgEEB1x_, symObjAddr: 0x16CC, symBinAddr: 0x100008618, symSize: 0x1C }
  - { offset: 0x16F82, size: 0x8, addend: 0x0, symName: __RINvYINtNtNtNtCsfvfooZQ3Axs_4core4iter8adapters3map3MapINtNtNtBc_5slice4iter4IterhENCNvNtCse1nGBsou5OW_5alloc3str13replace_ascii0ENtNtNtBa_6traits8iterator8Iterator8for_eachNCINvMsi_NtB1p_3vecINtB2U_3VechE14extend_trustedB3_E0ECsiXPXk7oLjIW_18build_script_build, symObjAddr: 0x16E8, symBinAddr: 0x100008634, symSize: 0x34 }
  - { offset: 0x16FF8, size: 0x8, addend: 0x0, symName: __RNCINvNvNtNtNtNtCsfvfooZQ3Axs_4core4iter6traits8iterator8Iterator4find5checkReQNtNtBe_3str10IsNotEmptyE0CsiXPXk7oLjIW_18build_script_build, symObjAddr: 0x17CC, symBinAddr: 0x100008718, symSize: 0x84 }
  - { offset: 0x17060, size: 0x8, addend: 0x0, symName: __RNCINvNvNtNtNtNtCsfvfooZQ3Axs_4core4iter6traits8iterator8Iterator8find_map5checkReNtCsiXPXk7oLjIW_18build_script_build10VersionCfgQNCNvB1k_34parse_version_cfgs_from_cargo_toml0E0B1k_, symObjAddr: 0x1850, symBinAddr: 0x10000879C, symSize: 0x90 }
  - { offset: 0x170F2, size: 0x8, addend: 0x0, symName: __RNvXNtNtNtCsfvfooZQ3Axs_4core4iter6traits7collectINtNtNtB6_8adapters10filter_map9FilterMapNtNtNtB8_3str4iter5LinesNCNvCsiXPXk7oLjIW_18build_script_build34parse_version_cfgs_from_cargo_toml0ENtB2_12IntoIterator9into_iterB1S_, symObjAddr: 0x28D4, symBinAddr: 0x10000981C, symSize: 0x30 }
  - { offset: 0x17161, size: 0x8, addend: 0x0, symName: __RNvYINtNtNtCse1nGBsou5OW_5alloc3vec9into_iter8IntoIterNtCsiXPXk7oLjIW_18build_script_build10VersionCfgENtNtNtNtCsfvfooZQ3Axs_4core4iter6traits10exact_size17ExactSizeIterator3lenBS_, symObjAddr: 0x3484, symBinAddr: 0x10000A3CC, symSize: 0xF4 }
  - { offset: 0x17267, size: 0x8, addend: 0x0, symName: __RINvXs2U_NtNtCsfvfooZQ3Axs_4core5slice4iterINtB7_4IterhENtNtNtNtBb_4iter6traits8iterator8Iterator4folduNCINvNtNtBY_8adapters3map8map_foldRhhuNCNvNtCse1nGBsou5OW_5alloc3str13replace_ascii0NCINvNvBS_8for_each4callhNCINvMsi_NtB2l_3vecINtB3x_3VechE14extend_trustedINtB1I_3MapBF_B2f_EE0E0E0ECsiXPXk7oLjIW_18build_script_build, symObjAddr: 0x1444, symBinAddr: 0x100008390, symSize: 0x1B0 }
  - { offset: 0x173BB, size: 0x8, addend: 0x0, symName: __RNvXs2U_NtNtCsfvfooZQ3Axs_4core5slice4iterINtB6_4IterNtCsiXPXk7oLjIW_18build_script_build10VersionCfgENtNtNtNtBa_4iter6traits8iterator8Iterator4nextBR_, symObjAddr: 0x2BD4, symBinAddr: 0x100009B1C, symSize: 0xBC }
  - { offset: 0x17509, size: 0x8, addend: 0x0, symName: __RNvXs2U_NtNtCsfvfooZQ3Axs_4core5slice4iterINtB6_4IterhENtNtNtNtBa_4iter6traits8iterator8Iterator4nextCsiXPXk7oLjIW_18build_script_build, symObjAddr: 0x2C90, symBinAddr: 0x100009BD8, symSize: 0xBC }
  - { offset: 0x17657, size: 0x8, addend: 0x0, symName: __RNvXs2U_NtNtCsfvfooZQ3Axs_4core5slice4iterINtB6_4IterhENtNtNtNtBa_4iter6traits8iterator8Iterator9size_hintCsiXPXk7oLjIW_18build_script_build, symObjAddr: 0x2D4C, symBinAddr: 0x100009C94, symSize: 0x70 }
  - { offset: 0x17813, size: 0x8, addend: 0x0, symName: __RNvXs2V_NtNtCsfvfooZQ3Axs_4core5slice4iterINtB6_4IterhENtNtNtNtBa_4iter6traits12double_ended19DoubleEndedIterator9next_backCsiXPXk7oLjIW_18build_script_build, symObjAddr: 0x2DBC, symBinAddr: 0x100009D04, symSize: 0x100 }
  - { offset: 0x179AD, size: 0x8, addend: 0x0, symName: __RNvNvXs0_NtNtCsfvfooZQ3Axs_4core5slice5indexjINtB7_10SliceIndexSpE13get_unchecked18precondition_checkCsiXPXk7oLjIW_18build_script_build, symObjAddr: 0x26D4, symBinAddr: 0x10000961C, symSize: 0x40 }
  - { offset: 0x179E9, size: 0x8, addend: 0x0, symName: __RNvNvXs0_NtNtCsfvfooZQ3Axs_4core5slice5indexjINtB7_10SliceIndexSpE17get_unchecked_mut18precondition_checkCsiXPXk7oLjIW_18build_script_build, symObjAddr: 0x2714, symBinAddr: 0x10000965C, symSize: 0x40 }
  - { offset: 0x17A2B, size: 0x8, addend: 0x0, symName: __RNvNvXs2_NtNtCsfvfooZQ3Axs_4core5slice5indexINtNtNtBb_3ops5range5RangejEINtB7_10SliceIndexSpE13get_unchecked18precondition_checkCsiXPXk7oLjIW_18build_script_build, symObjAddr: 0x2754, symBinAddr: 0x10000969C, symSize: 0x60 }
  - { offset: 0x17AED, size: 0x8, addend: 0x0, symName: __RNvXs5_NtNtCsfvfooZQ3Axs_4core5slice5indexINtNtNtB9_3ops5range9RangeFromjEINtB5_10SliceIndexShE5indexCsiXPXk7oLjIW_18build_script_build, symObjAddr: 0x3004, symBinAddr: 0x100009F4C, symSize: 0x88 }
  - { offset: 0x17CC0, size: 0x8, addend: 0x0, symName: __RNSNvYNCINvNtCscOYdFFY2T5N_3std2rt10lang_startuE0INtNtNtCsfvfooZQ3Axs_4core3ops8function6FnOnceuE9call_once6vtableCsiXPXk7oLjIW_18build_script_build, symObjAddr: 0x1908, symBinAddr: 0x100008854, symSize: 0x28 }
  - { offset: 0x17D04, size: 0x8, addend: 0x0, symName: __RNvYFEuINtNtNtCsfvfooZQ3Axs_4core3ops8function6FnOnceuE9call_onceCsiXPXk7oLjIW_18build_script_build, symObjAddr: 0x3464, symBinAddr: 0x10000A3AC, symSize: 0x20 }
  - { offset: 0x17D44, size: 0x8, addend: 0x0, symName: __RNvYNCINvNtCscOYdFFY2T5N_3std2rt10lang_startuE0INtNtNtCsfvfooZQ3Axs_4core3ops8function6FnOnceuE9call_onceCsiXPXk7oLjIW_18build_script_build, symObjAddr: 0x3578, symBinAddr: 0x10000A4C0, symSize: 0x4C }
  - { offset: 0x17D88, size: 0x8, addend: 0x0, symName: __RNvYNvYeNtNtCse1nGBsou5OW_5alloc6borrow7ToOwned8to_ownedINtNtNtCsfvfooZQ3Axs_4core3ops8function6FnOnceTReEE9call_onceCsiXPXk7oLjIW_18build_script_build, symObjAddr: 0x386C, symBinAddr: 0x10000A7B4, symSize: 0x2C }
  - { offset: 0x17DD8, size: 0x8, addend: 0x0, symName: __RNvXNtNtCsfvfooZQ3Axs_4core3ops12control_flowINtB2_11ControlFlowNtCsiXPXk7oLjIW_18build_script_build10VersionCfgENtNtB4_9try_trait3Try11from_outputB12_, symObjAddr: 0x27B4, symBinAddr: 0x1000096FC, symSize: 0x18 }
  - { offset: 0x17E16, size: 0x8, addend: 0x0, symName: __RNvXNtNtCsfvfooZQ3Axs_4core3ops12control_flowINtB2_11ControlFlowNtCsiXPXk7oLjIW_18build_script_build10VersionCfgENtNtB4_9try_trait3Try6branchB12_, symObjAddr: 0x27CC, symBinAddr: 0x100009714, symSize: 0x8C }
  - { offset: 0x17E8F, size: 0x8, addend: 0x0, symName: __RNvXNtNtCsfvfooZQ3Axs_4core3ops12control_flowINtB2_11ControlFlowReENtNtB4_9try_trait3Try11from_outputCsiXPXk7oLjIW_18build_script_build, symObjAddr: 0x2858, symBinAddr: 0x1000097A0, symSize: 0x18 }
  - { offset: 0x17ECD, size: 0x8, addend: 0x0, symName: __RNvXNtNtCsfvfooZQ3Axs_4core3ops12control_flowINtB2_11ControlFlowReENtNtB4_9try_trait3Try6branchCsiXPXk7oLjIW_18build_script_build, symObjAddr: 0x2870, symBinAddr: 0x1000097B8, symSize: 0x64 }
  - { offset: 0x17F4C, size: 0x8, addend: 0x0, symName: __RNvXs_NtNtCsfvfooZQ3Axs_4core3ops12control_flowINtB4_11ControlFlowNtCsiXPXk7oLjIW_18build_script_build10VersionCfgEINtNtB6_9try_trait12FromResidualIBK_B12_NtNtB8_7convert10InfallibleEE13from_residualB14_, symObjAddr: 0x32E8, symBinAddr: 0x10000A230, symSize: 0x48 }
  - { offset: 0x17F8B, size: 0x8, addend: 0x0, symName: __RNvXs_NtNtCsfvfooZQ3Axs_4core3ops12control_flowINtB4_11ControlFlowReEINtNtB6_9try_trait12FromResidualIBK_B12_NtNtB8_7convert10InfallibleEE13from_residualCsiXPXk7oLjIW_18build_script_build, symObjAddr: 0x3330, symBinAddr: 0x10000A278, symSize: 0x2C }
  - { offset: 0x18798, size: 0x8, addend: 0x0, symName: __RINvMs3_NtCsfvfooZQ3Axs_4core3fmtNtB6_9Arguments6new_v1Kj1_KBS_ECsiXPXk7oLjIW_18build_script_build, symObjAddr: 0x0, symBinAddr: 0x10000711C, symSize: 0x50 }
  - { offset: 0x187FE, size: 0x8, addend: 0x0, symName: __RINvMs3_NtCsfvfooZQ3Axs_4core3fmtNtB6_9Arguments6new_v1Kj2_KBS_ECsiXPXk7oLjIW_18build_script_build, symObjAddr: 0x50, symBinAddr: 0x10000716C, symSize: 0x50 }
  - { offset: 0x18830, size: 0x8, addend: 0x0, symName: __RINvMs3_NtCsfvfooZQ3Axs_4core3fmtNtB6_9Arguments6new_v1Kj2_Kj1_ECsiXPXk7oLjIW_18build_script_build, symObjAddr: 0xA0, symBinAddr: 0x1000071BC, symSize: 0x54 }
  - { offset: 0x18896, size: 0x8, addend: 0x0, symName: __RINvMs3_NtCsfvfooZQ3Axs_4core3fmtNtB6_9Arguments6new_v1Kj4_Kj3_ECsiXPXk7oLjIW_18build_script_build, symObjAddr: 0xF4, symBinAddr: 0x100007210, symSize: 0x54 }
  - { offset: 0x188C8, size: 0x8, addend: 0x0, symName: __RINvMs3_NtCsfvfooZQ3Axs_4core3fmtNtB6_9Arguments9new_constKj1_ECsiXPXk7oLjIW_18build_script_build, symObjAddr: 0x148, symBinAddr: 0x100007264, symSize: 0x48 }
  - { offset: 0x18A4B, size: 0x8, addend: 0x0, symName: __RNvXNvXsd_NtNtCse1nGBsou5OW_5alloc3vec9into_iterINtB8_8IntoIterppENtNtNtCsfvfooZQ3Axs_4core3ops4drop4Drop4dropINtB2_9DropGuardNtCsiXPXk7oLjIW_18build_script_build10VersionCfgNtNtBc_5alloc6GlobalEB12_4dropB22_, symObjAddr: 0x2904, symBinAddr: 0x10000984C, symSize: 0x7C }
  - { offset: 0x18B81, size: 0x8, addend: 0x0, symName: __RNvXsd_NtNtCse1nGBsou5OW_5alloc3vec9into_iterINtB5_8IntoIterNtCsiXPXk7oLjIW_18build_script_build10VersionCfgENtNtNtCsfvfooZQ3Axs_4core3ops4drop4Drop4dropBY_, symObjAddr: 0x335C, symBinAddr: 0x10000A2A4, symSize: 0x98 }
  - { offset: 0x18C21, size: 0x8, addend: 0x0, symName: __RNvXs3_NtNtCse1nGBsou5OW_5alloc3vec9into_iterINtB5_8IntoIterNtCsiXPXk7oLjIW_18build_script_build10VersionCfgENtNtNtNtCsfvfooZQ3Axs_4core4iter6traits8iterator8Iterator4nextBY_, symObjAddr: 0x2EBC, symBinAddr: 0x100009E04, symSize: 0xDC }
  - { offset: 0x18D93, size: 0x8, addend: 0x0, symName: __RNvXs3_NtNtCse1nGBsou5OW_5alloc3vec9into_iterINtB5_8IntoIterNtCsiXPXk7oLjIW_18build_script_build10VersionCfgENtNtNtNtCsfvfooZQ3Axs_4core4iter6traits8iterator8Iterator9size_hintBY_, symObjAddr: 0x2F98, symBinAddr: 0x100009EE0, symSize: 0x6C }
  - { offset: 0x18F59, size: 0x8, addend: 0x0, symName: __RNvXs1_NtCse1nGBsou5OW_5alloc5allocNtB5_6GlobalNtNtCsfvfooZQ3Axs_4core5clone5Clone5cloneCsiXPXk7oLjIW_18build_script_build, symObjAddr: 0x2AA4, symBinAddr: 0x1000099EC, symSize: 0x10 }
  - { offset: 0x18FAA, size: 0x8, addend: 0x0, symName: __RNvXs_NtCse1nGBsou5OW_5alloc5allocNtB4_6GlobalNtNtCsfvfooZQ3Axs_4core5alloc9Allocator10deallocateCsiXPXk7oLjIW_18build_script_build, symObjAddr: 0x3260, symBinAddr: 0x10000A1A8, symSize: 0x88 }
  - { offset: 0x192FB, size: 0x8, addend: 0x0, symName: __RINvXs_NtNtCse1nGBsou5OW_5alloc5slice4hackhNtB5_10ConvertVec6to_vecNtNtB9_5alloc6GlobalECsiXPXk7oLjIW_18build_script_build, symObjAddr: 0x15F4, symBinAddr: 0x100008540, symSize: 0xD8 }
  - { offset: 0x194CE, size: 0x8, addend: 0x0, symName: __RNvXs9_NtCse1nGBsou5OW_5alloc6borrowINtB5_3CoweENtNtCsfvfooZQ3Axs_4core3fmt7Display3fmtCsiXPXk7oLjIW_18build_script_build, symObjAddr: 0x308C, symBinAddr: 0x100009FD4, symSize: 0x8C }
  - { offset: 0x19C7E, size: 0x8, addend: 0x0, symName: __RNvMNtCsfvfooZQ3Axs_4core6resultINtB2_6ResultNtNtCscOYdFFY2T5N_3std7process6OutputNtNtNtBL_2io5error5ErrorE6expectCsiXPXk7oLjIW_18build_script_build, symObjAddr: 0x1930, symBinAddr: 0x10000887C, symSize: 0xBC }
  - { offset: 0x19CE1, size: 0x8, addend: 0x0, symName: __RNvMNtCsfvfooZQ3Axs_4core6resultINtB2_6ResultNtNtCse1nGBsou5OW_5alloc6string6StringNtNtNtCscOYdFFY2T5N_3std2io5error5ErrorE6expectCsiXPXk7oLjIW_18build_script_build, symObjAddr: 0x19EC, symBinAddr: 0x100008938, symSize: 0xC0 }
  - { offset: 0x19D44, size: 0x8, addend: 0x0, symName: __RNvMNtCsfvfooZQ3Axs_4core6resultINtB2_6ResultReNtNtNtB4_3str5error9Utf8ErrorE6expectCsiXPXk7oLjIW_18build_script_build, symObjAddr: 0x1AAC, symBinAddr: 0x1000089F8, symSize: 0x98 }
  - { offset: 0x19DA7, size: 0x8, addend: 0x0, symName: __RNvMNtCsfvfooZQ3Axs_4core6resultINtB2_6ResulthNtNtNtB4_3num5error15TryFromIntErrorE6expectCsiXPXk7oLjIW_18build_script_build, symObjAddr: 0x1B44, symBinAddr: 0x100008A90, symSize: 0x84 }
  - { offset: 0x19E09, size: 0x8, addend: 0x0, symName: __RNvMNtCsfvfooZQ3Axs_4core6resultINtB2_6ResultjNtNtNtB4_3num5error13ParseIntErrorE6expectCsiXPXk7oLjIW_18build_script_build, symObjAddr: 0x1BC8, symBinAddr: 0x100008B14, symSize: 0x90 }
  - { offset: 0x19EB2, size: 0x8, addend: 0x0, symName: __RNvMs5_NtNtCscOYdFFY2T5N_3std2io5errorNtB5_5Error14is_interruptedCsiXPXk7oLjIW_18build_script_build, symObjAddr: 0x1C58, symBinAddr: 0x100008BA4, symSize: 0x138 }
  - { offset: 0x1AC3B, size: 0x8, addend: 0x0, symName: __RINvMsx_NtNtCsfvfooZQ3Axs_4core3str7patternNtB6_14TwoWaySearcher4nextNtB6_14RejectAndMatchECsiXPXk7oLjIW_18build_script_build, symObjAddr: 0x0, symBinAddr: 0x10000A7E0, symSize: 0x4F8 }
  - { offset: 0x1BADE, size: 0x8, addend: 0x0, symName: __RNvXs0_NtNtCsfvfooZQ3Axs_4core3str7patternNtB5_12CharSearcherNtB5_15ReverseSearcher9next_backCsiXPXk7oLjIW_18build_script_build, symObjAddr: 0x9F0, symBinAddr: 0x10000B1D0, symSize: 0x1CC }
  - { offset: 0x1BDA0, size: 0x8, addend: 0x0, symName: __RNvXs2_NtNtCsfvfooZQ3Axs_4core3str7patterncNtB5_7Pattern13into_searcherCsiXPXk7oLjIW_18build_script_build, symObjAddr: 0xBBC, symBinAddr: 0x10000B39C, symSize: 0x114 }
  - { offset: 0x1BEB8, size: 0x8, addend: 0x0, symName: __RNvXs2_NtNtCsfvfooZQ3Axs_4core3str7patterncNtB5_7Pattern15as_utf8_patternCsiXPXk7oLjIW_18build_script_build, symObjAddr: 0xCD0, symBinAddr: 0x10000B4B0, symSize: 0x34 }
  - { offset: 0x1BEEC, size: 0x8, addend: 0x0, symName: __RNvXs7_NtNtCsfvfooZQ3Axs_4core3str7patternINtB5_18MultiCharEqPatternNCNvCsiXPXk7oLjIW_18build_script_build13rustc_version0ENtB5_7Pattern13into_searcherB18_, symObjAddr: 0xD04, symBinAddr: 0x10000B4E4, symSize: 0x90 }
  - { offset: 0x1BF48, size: 0x8, addend: 0x0, symName: __RNvXs7_NtNtCsfvfooZQ3Axs_4core3str7patternINtB5_18MultiCharEqPatternNCNvMB7_e10trim_start0ENtB5_7Pattern13into_searcherCsiXPXk7oLjIW_18build_script_build, symObjAddr: 0xD94, symBinAddr: 0x10000B574, symSize: 0x90 }
  - { offset: 0x1BFA4, size: 0x8, addend: 0x0, symName: __RNvXs7_NtNtCsfvfooZQ3Axs_4core3str7patternINtB5_18MultiCharEqPatternNtB7_12IsWhitespaceENtB5_7Pattern13into_searcherCsiXPXk7oLjIW_18build_script_build, symObjAddr: 0xE24, symBinAddr: 0x10000B604, symSize: 0x90 }
  - { offset: 0x1C006, size: 0x8, addend: 0x0, symName: __RNvXs8_NtNtCsfvfooZQ3Axs_4core3str7patternINtB5_19MultiCharEqSearcherNCNvCsiXPXk7oLjIW_18build_script_build13rustc_version0ENtB5_8Searcher4nextB19_, symObjAddr: 0xEB4, symBinAddr: 0x10000B694, symSize: 0x13C }
  - { offset: 0x1C126, size: 0x8, addend: 0x0, symName: __RNvXs8_NtNtCsfvfooZQ3Axs_4core3str7patternINtB5_19MultiCharEqSearcherNCNvMB7_e10trim_start0ENtB5_8Searcher4nextCsiXPXk7oLjIW_18build_script_build, symObjAddr: 0xFF0, symBinAddr: 0x10000B7D0, symSize: 0x13C }
  - { offset: 0x1C246, size: 0x8, addend: 0x0, symName: __RNvXs8_NtNtCsfvfooZQ3Axs_4core3str7patternINtB5_19MultiCharEqSearcherNtB7_12IsWhitespaceENtB5_8Searcher4nextCsiXPXk7oLjIW_18build_script_build, symObjAddr: 0x112C, symBinAddr: 0x10000B90C, symSize: 0x13C }
  - { offset: 0x1C409, size: 0x8, addend: 0x0, symName: __RNvXs_NtNtCsfvfooZQ3Axs_4core3str7patternNtB4_12CharSearcherNtB4_8Searcher10next_matchCsiXPXk7oLjIW_18build_script_build, symObjAddr: 0x1268, symBinAddr: 0x10000BA48, symSize: 0x384 }
  - { offset: 0x1C8AA, size: 0x8, addend: 0x0, symName: __RNvXs_NtNtCsfvfooZQ3Axs_4core3str7patternNtB4_12CharSearcherNtB4_8Searcher4nextCsiXPXk7oLjIW_18build_script_build, symObjAddr: 0x15EC, symBinAddr: 0x10000BDCC, symSize: 0x1CC }
  - { offset: 0x1CB66, size: 0x8, addend: 0x0, symName: __RNvXs_NtNtCsfvfooZQ3Axs_4core3str7patternNtB4_12CharSearcherNtB4_8Searcher8haystackCsiXPXk7oLjIW_18build_script_build, symObjAddr: 0x17B8, symBinAddr: 0x10000BF98, symSize: 0x20 }
  - { offset: 0x1CB9A, size: 0x8, addend: 0x0, symName: __RNvXso_NtNtCsfvfooZQ3Axs_4core3str7patternINtB5_21CharPredicateSearcherNCNvCsiXPXk7oLjIW_18build_script_build13rustc_version0ENtB5_8Searcher10next_matchB1b_, symObjAddr: 0x17D8, symBinAddr: 0x10000BFB8, symSize: 0x24 }
  - { offset: 0x1CBD1, size: 0x8, addend: 0x0, symName: __RNvXso_NtNtCsfvfooZQ3Axs_4core3str7patternINtB5_21CharPredicateSearcherNCNvCsiXPXk7oLjIW_18build_script_build13rustc_version0ENtB5_8Searcher8haystackB1b_, symObjAddr: 0x17FC, symBinAddr: 0x10000BFDC, symSize: 0x20 }
  - { offset: 0x1CC1D, size: 0x8, addend: 0x0, symName: __RNvXso_NtNtCsfvfooZQ3Axs_4core3str7patternINtB5_21CharPredicateSearcherNCNvMB7_e10trim_start0ENtB5_8Searcher11next_rejectCsiXPXk7oLjIW_18build_script_build, symObjAddr: 0x181C, symBinAddr: 0x10000BFFC, symSize: 0x24 }
  - { offset: 0x1CC54, size: 0x8, addend: 0x0, symName: __RNvXso_NtNtCsfvfooZQ3Axs_4core3str7patternINtB5_21CharPredicateSearcherNtB7_12IsWhitespaceENtB5_8Searcher10next_matchCsiXPXk7oLjIW_18build_script_build, symObjAddr: 0x1840, symBinAddr: 0x10000C020, symSize: 0x24 }
  - { offset: 0x1CC8B, size: 0x8, addend: 0x0, symName: __RNvXso_NtNtCsfvfooZQ3Axs_4core3str7patternINtB5_21CharPredicateSearcherNtB7_12IsWhitespaceENtB5_8Searcher8haystackCsiXPXk7oLjIW_18build_script_build, symObjAddr: 0x1864, symBinAddr: 0x10000C044, symSize: 0x20 }
  - { offset: 0x1CCDD, size: 0x8, addend: 0x0, symName: __RNvXst_NtNtCsfvfooZQ3Axs_4core3str7patternReNtB5_7Pattern13into_searcherCsiXPXk7oLjIW_18build_script_build, symObjAddr: 0x1884, symBinAddr: 0x10000C064, symSize: 0x4C }
  - { offset: 0x1CD44, size: 0x8, addend: 0x0, symName: __RNvXst_NtNtCsfvfooZQ3Axs_4core3str7patternReNtB5_7Pattern15is_contained_inCsiXPXk7oLjIW_18build_script_build, symObjAddr: 0x18D0, symBinAddr: 0x10000C0B0, symSize: 0x1D0 }
  - { offset: 0x1CFF3, size: 0x8, addend: 0x0, symName: __RNvXst_NtNtCsfvfooZQ3Axs_4core3str7patternReNtB5_7Pattern15strip_suffix_ofCsiXPXk7oLjIW_18build_script_build, symObjAddr: 0x1AA0, symBinAddr: 0x10000C280, symSize: 0xE0 }
  - { offset: 0x1D200, size: 0x8, addend: 0x0, symName: __RNvXsv_NtNtCsfvfooZQ3Axs_4core3str7patternNtB5_11StrSearcherNtB5_8Searcher10next_matchCsiXPXk7oLjIW_18build_script_build, symObjAddr: 0x1B80, symBinAddr: 0x10000C360, symSize: 0x148 }
  - { offset: 0x1D28C, size: 0x8, addend: 0x0, symName: __RNvXsv_NtNtCsfvfooZQ3Axs_4core3str7patternNtB5_11StrSearcherNtB5_8Searcher4nextCsiXPXk7oLjIW_18build_script_build, symObjAddr: 0x1CC8, symBinAddr: 0x10000C4A8, symSize: 0x444 }
  - { offset: 0x1D591, size: 0x8, addend: 0x0, symName: __RNvXsv_NtNtCsfvfooZQ3Axs_4core3str7patternNtB5_11StrSearcherNtB5_8Searcher8haystackCsiXPXk7oLjIW_18build_script_build, symObjAddr: 0x210C, symBinAddr: 0x10000C8EC, symSize: 0x20 }
  - { offset: 0x1D5C5, size: 0x8, addend: 0x0, symName: __RNvXsy_NtNtCsfvfooZQ3Axs_4core3str7patternNtB5_9MatchOnlyNtB5_14TwoWayStrategy16use_early_rejectCsiXPXk7oLjIW_18build_script_build, symObjAddr: 0x212C, symBinAddr: 0x10000C90C, symSize: 0xC }
  - { offset: 0x1D5E3, size: 0x8, addend: 0x0, symName: __RNvXsy_NtNtCsfvfooZQ3Axs_4core3str7patternNtB5_9MatchOnlyNtB5_14TwoWayStrategy8matchingCsiXPXk7oLjIW_18build_script_build, symObjAddr: 0x2138, symBinAddr: 0x10000C918, symSize: 0x28 }
  - { offset: 0x1D620, size: 0x8, addend: 0x0, symName: __RNvXsy_NtNtCsfvfooZQ3Axs_4core3str7patternNtB5_9MatchOnlyNtB5_14TwoWayStrategy9rejectingCsiXPXk7oLjIW_18build_script_build, symObjAddr: 0x2160, symBinAddr: 0x10000C940, symSize: 0x18 }
  - { offset: 0x1D663, size: 0x8, addend: 0x0, symName: __RNvXsz_NtNtCsfvfooZQ3Axs_4core3str7patternNtB5_14RejectAndMatchNtB5_14TwoWayStrategy16use_early_rejectCsiXPXk7oLjIW_18build_script_build, symObjAddr: 0x2178, symBinAddr: 0x10000C958, symSize: 0xC }
  - { offset: 0x1D681, size: 0x8, addend: 0x0, symName: __RNvXsz_NtNtCsfvfooZQ3Axs_4core3str7patternNtB5_14RejectAndMatchNtB5_14TwoWayStrategy8matchingCsiXPXk7oLjIW_18build_script_build, symObjAddr: 0x2184, symBinAddr: 0x10000C964, symSize: 0x20 }
  - { offset: 0x1D6BE, size: 0x8, addend: 0x0, symName: __RNvXsz_NtNtCsfvfooZQ3Axs_4core3str7patternNtB5_14RejectAndMatchNtB5_14TwoWayStrategy9rejectingCsiXPXk7oLjIW_18build_script_build, symObjAddr: 0x21A4, symBinAddr: 0x10000C984, symSize: 0x28 }
  - { offset: 0x1D701, size: 0x8, addend: 0x0, symName: __RNvYINtNtNtCsfvfooZQ3Axs_4core3str7pattern19MultiCharEqSearcherNCNvCsiXPXk7oLjIW_18build_script_build13rustc_version0ENtB5_8Searcher10next_matchB13_, symObjAddr: 0x21CC, symBinAddr: 0x10000C9AC, symSize: 0x90 }
  - { offset: 0x1D762, size: 0x8, addend: 0x0, symName: __RNvYINtNtNtCsfvfooZQ3Axs_4core3str7pattern19MultiCharEqSearcherNCNvMB7_e10trim_start0ENtB5_8Searcher11next_rejectCsiXPXk7oLjIW_18build_script_build, symObjAddr: 0x225C, symBinAddr: 0x10000CA3C, symSize: 0x90 }
  - { offset: 0x1D7C7, size: 0x8, addend: 0x0, symName: __RNvYINtNtNtCsfvfooZQ3Axs_4core3str7pattern19MultiCharEqSearcherNtB7_12IsWhitespaceENtB5_8Searcher10next_matchCsiXPXk7oLjIW_18build_script_build, symObjAddr: 0x22EC, symBinAddr: 0x10000CACC, symSize: 0x90 }
  - { offset: 0x1D828, size: 0x8, addend: 0x0, symName: __RNvYNtNtNtCsfvfooZQ3Axs_4core3str7pattern11StrSearcherNtB4_8Searcher11next_rejectCsiXPXk7oLjIW_18build_script_build, symObjAddr: 0x237C, symBinAddr: 0x10000CB5C, symSize: 0x90 }
  - { offset: 0x1D88D, size: 0x8, addend: 0x0, symName: __RNvYNtNtNtCsfvfooZQ3Axs_4core3str7pattern12CharSearcherNtB4_8Searcher11next_rejectCsiXPXk7oLjIW_18build_script_build, symObjAddr: 0x249C, symBinAddr: 0x10000CC7C, symSize: 0x90 }
  - { offset: 0x1D8F8, size: 0x8, addend: 0x0, symName: __RNvYNtNtNtCsfvfooZQ3Axs_4core3str7pattern12CharSearcherNtB4_15ReverseSearcher16next_reject_backCsiXPXk7oLjIW_18build_script_build, symObjAddr: 0x240C, symBinAddr: 0x10000CBEC, symSize: 0x90 }
  - { offset: 0x1E928, size: 0x8, addend: 0x0, symName: __RINvMsx_NtNtCsfvfooZQ3Axs_4core3str7patternNtB6_14TwoWaySearcher4nextNtB6_14RejectAndMatchECsiXPXk7oLjIW_18build_script_build, symObjAddr: 0x0, symBinAddr: 0x10000A7E0, symSize: 0x4F8 }
  - { offset: 0x1EC78, size: 0x8, addend: 0x0, symName: __RINvMsx_NtNtCsfvfooZQ3Axs_4core3str7patternNtB6_14TwoWaySearcher4nextNtB6_9MatchOnlyECsiXPXk7oLjIW_18build_script_build, symObjAddr: 0x4F8, symBinAddr: 0x10000ACD8, symSize: 0x4F8 }
  - { offset: 0x1F30D, size: 0x8, addend: 0x0, symName: __RINvMNtCsfvfooZQ3Axs_4core3stre16trim_end_matchescECsiXPXk7oLjIW_18build_script_build, symObjAddr: 0x0, symBinAddr: 0x10000CD0C, symSize: 0xE8 }
  - { offset: 0x1F692, size: 0x8, addend: 0x0, symName: __RNvXs1a_NtCsfvfooZQ3Axs_4core3fmtRINtNtB8_6option6OptionReENtB6_5Debug3fmtCsiXPXk7oLjIW_18build_script_build, symObjAddr: 0x20A0, symBinAddr: 0x10000EDAC, symSize: 0x30 }
  - { offset: 0x1F6D8, size: 0x8, addend: 0x0, symName: __RNvXs1a_NtCsfvfooZQ3Axs_4core3fmtRINtNtB8_6option6OptionhENtB6_5Debug3fmtCsiXPXk7oLjIW_18build_script_build, symObjAddr: 0x20D0, symBinAddr: 0x10000EDDC, symSize: 0x30 }
  - { offset: 0x1F729, size: 0x8, addend: 0x0, symName: __RNvXs1k_NtNtCsfvfooZQ3Axs_4core3fmt3numhNtB8_5Debug3fmtCsiXPXk7oLjIW_18build_script_build, symObjAddr: 0x2100, symBinAddr: 0x10000EE0C, symSize: 0x90 }
  - { offset: 0x1F7A3, size: 0x8, addend: 0x0, symName: __RNvXs1p_NtNtCsfvfooZQ3Axs_4core3fmt3numjNtB8_5Debug3fmtCsiXPXk7oLjIW_18build_script_build, symObjAddr: 0x2190, symBinAddr: 0x10000EE9C, symSize: 0x90 }
  - { offset: 0x1F858, size: 0x8, addend: 0x0, symName: __RINvMNtCsfvfooZQ3Axs_4core3stre16trim_end_matchescECsiXPXk7oLjIW_18build_script_build, symObjAddr: 0x0, symBinAddr: 0x10000CD0C, symSize: 0xE8 }
  - { offset: 0x1F9DC, size: 0x8, addend: 0x0, symName: __RINvMNtCsfvfooZQ3Axs_4core3stre18trim_start_matchesNCNvB2_10trim_start0ECsiXPXk7oLjIW_18build_script_build, symObjAddr: 0xE8, symBinAddr: 0x10000CDF4, symSize: 0xD8 }
  - { offset: 0x1FBBC, size: 0x8, addend: 0x0, symName: __RINvMNtCsfvfooZQ3Axs_4core3stre18trim_start_matchesReECsiXPXk7oLjIW_18build_script_build, symObjAddr: 0x1C0, symBinAddr: 0x10000CECC, symSize: 0xFC }
  - { offset: 0x1FDA0, size: 0x8, addend: 0x0, symName: __RINvMNtCsfvfooZQ3Axs_4core3stre18trim_start_matchescECsiXPXk7oLjIW_18build_script_build, symObjAddr: 0x2BC, symBinAddr: 0x10000CFC8, symSize: 0xEC }
  - { offset: 0x1FF30, size: 0x8, addend: 0x0, symName: __RINvMNtCsfvfooZQ3Axs_4core3stre5parsejECsiXPXk7oLjIW_18build_script_build, symObjAddr: 0x3A8, symBinAddr: 0x10000D0B4, symSize: 0x28 }
  - { offset: 0x1FF67, size: 0x8, addend: 0x0, symName: __RINvMNtCsfvfooZQ3Axs_4core3stre5splitNCNvCsiXPXk7oLjIW_18build_script_build13rustc_version0EBD_, symObjAddr: 0x3D0, symBinAddr: 0x10000D0DC, symSize: 0x80 }
  - { offset: 0x1FFAD, size: 0x8, addend: 0x0, symName: __RINvMNtCsfvfooZQ3Axs_4core3stre5splitReECsiXPXk7oLjIW_18build_script_build, symObjAddr: 0x450, symBinAddr: 0x10000D15C, symSize: 0xA4 }
  - { offset: 0x1FFF3, size: 0x8, addend: 0x0, symName: __RINvMNtCsfvfooZQ3Axs_4core3stre5splitcECsiXPXk7oLjIW_18build_script_build, symObjAddr: 0x4F4, symBinAddr: 0x10000D200, symSize: 0x98 }
  - { offset: 0x20039, size: 0x8, addend: 0x0, symName: __RINvMNtCsfvfooZQ3Axs_4core3stre8containsReECsiXPXk7oLjIW_18build_script_build, symObjAddr: 0x58C, symBinAddr: 0x10000D298, symSize: 0x4C }
  - { offset: 0x20084, size: 0x8, addend: 0x0, symName: __RNCNvMNtCsfvfooZQ3Axs_4core3stre10trim_start0CsiXPXk7oLjIW_18build_script_build, symObjAddr: 0xFB8, symBinAddr: 0x10000DCC4, symSize: 0x94 }
  - { offset: 0x20125, size: 0x8, addend: 0x0, symName: __RNvMNtCsfvfooZQ3Axs_4core3stre10trim_startCsiXPXk7oLjIW_18build_script_build, symObjAddr: 0x1134, symBinAddr: 0x10000DE40, symSize: 0x28 }
  - { offset: 0x20187, size: 0x8, addend: 0x0, symName: __RNvMNtCsfvfooZQ3Axs_4core3stre16split_whitespaceCsiXPXk7oLjIW_18build_script_build, symObjAddr: 0x115C, symBinAddr: 0x10000DE68, symSize: 0xCC }
  - { offset: 0x2023D, size: 0x8, addend: 0x0, symName: __RNvMNtCsfvfooZQ3Axs_4core3stre5charsCsiXPXk7oLjIW_18build_script_build, symObjAddr: 0x1228, symBinAddr: 0x10000DF34, symSize: 0x20 }
  - { offset: 0x202DF, size: 0x8, addend: 0x0, symName: __RNvMNtCsfvfooZQ3Axs_4core3stre5linesCsiXPXk7oLjIW_18build_script_build, symObjAddr: 0x1248, symBinAddr: 0x10000DF54, symSize: 0xC4 }
  - { offset: 0x2036F, size: 0x8, addend: 0x0, symName: __RNvMNtCsfvfooZQ3Axs_4core3stre8is_emptyCsiXPXk7oLjIW_18build_script_build, symObjAddr: 0x130C, symBinAddr: 0x10000E018, symSize: 0x1C }
  - { offset: 0x209CC, size: 0x8, addend: 0x0, symName: __RINvNtNtCsfvfooZQ3Axs_4core3str11validations15next_code_pointINtNtNtB6_5slice4iter4IterhEECsiXPXk7oLjIW_18build_script_build, symObjAddr: 0x70C, symBinAddr: 0x10000D418, symSize: 0x20C }
  - { offset: 0x20C86, size: 0x8, addend: 0x0, symName: __RINvNtNtCsfvfooZQ3Axs_4core3str11validations23next_code_point_reverseINtNtNtB6_5slice4iter4IterhEECsiXPXk7oLjIW_18build_script_build, symObjAddr: 0x918, symBinAddr: 0x10000D624, symSize: 0x234 }
  - { offset: 0x21028, size: 0x8, addend: 0x0, symName: __RNCNvMsp_NtNtCsfvfooZQ3Axs_4core3str4iterINtB7_20MatchIndicesInternalcE4next0CsiXPXk7oLjIW_18build_script_build, symObjAddr: 0x104C, symBinAddr: 0x10000DD58, symSize: 0xA0 }
  - { offset: 0x213AE, size: 0x8, addend: 0x0, symName: __RNvXs3_NtNtCsfvfooZQ3Axs_4core3str4iterNtB5_11CharIndicesNtNtNtNtB9_4iter6traits8iterator8Iterator4nextCsiXPXk7oLjIW_18build_script_build, symObjAddr: 0x23D0, symBinAddr: 0x10000F0DC, symSize: 0x120 }
  - { offset: 0x21536, size: 0x8, addend: 0x0, symName: __RNvXsH_NtNtCsfvfooZQ3Axs_4core3str4iterINtB5_14SplitInclusivecENtNtNtNtB9_4iter6traits8iterator8Iterator4nextCsiXPXk7oLjIW_18build_script_build, symObjAddr: 0x25BC, symBinAddr: 0x10000F2C8, symSize: 0x24 }
  - { offset: 0x21573, size: 0x8, addend: 0x0, symName: __RNvXsX_NtNtCsfvfooZQ3Axs_4core3str4iterINtB5_5SplitNCNvCsiXPXk7oLjIW_18build_script_build13rustc_version0ENtNtNtNtB9_4iter6traits8iterator8Iterator4nextBR_, symObjAddr: 0x2714, symBinAddr: 0x10000F420, symSize: 0x24 }
  - { offset: 0x215AA, size: 0x8, addend: 0x0, symName: __RNvXsX_NtNtCsfvfooZQ3Axs_4core3str4iterINtB5_5SplitNtB7_12IsWhitespaceENtNtNtNtB9_4iter6traits8iterator8Iterator4nextCsiXPXk7oLjIW_18build_script_build, symObjAddr: 0x2738, symBinAddr: 0x10000F444, symSize: 0x24 }
  - { offset: 0x215E1, size: 0x8, addend: 0x0, symName: __RNvXsX_NtNtCsfvfooZQ3Axs_4core3str4iterINtB5_5SplitReENtNtNtNtB9_4iter6traits8iterator8Iterator4nextCsiXPXk7oLjIW_18build_script_build, symObjAddr: 0x275C, symBinAddr: 0x10000F468, symSize: 0x24 }
  - { offset: 0x21618, size: 0x8, addend: 0x0, symName: __RNvXsX_NtNtCsfvfooZQ3Axs_4core3str4iterINtB5_5SplitcENtNtNtNtB9_4iter6traits8iterator8Iterator4nextCsiXPXk7oLjIW_18build_script_build, symObjAddr: 0x2780, symBinAddr: 0x10000F48C, symSize: 0x24 }
  - { offset: 0x21655, size: 0x8, addend: 0x0, symName: __RNvXss_NtNtCsfvfooZQ3Axs_4core3str4iterNtB5_5LinesNtNtNtNtB9_4iter6traits8iterator8Iterator4nextCsiXPXk7oLjIW_18build_script_build, symObjAddr: 0x2948, symBinAddr: 0x10000F654, symSize: 0x24 }
  - { offset: 0x21683, size: 0x8, addend: 0x0, symName: __RNvXss_NtNtCsfvfooZQ3Axs_4core3str4iterNtB5_5LinesNtNtNtNtB9_4iter6traits8iterator8Iterator9size_hintCsiXPXk7oLjIW_18build_script_build, symObjAddr: 0x296C, symBinAddr: 0x10000F678, symSize: 0x34 }
  - { offset: 0x216E1, size: 0x8, addend: 0x0, symName: __RNvXsz_NtNtCsfvfooZQ3Axs_4core3str4iterNtB5_15SplitWhitespaceNtNtNtNtB9_4iter6traits8iterator8Iterator4nextCsiXPXk7oLjIW_18build_script_build, symObjAddr: 0x29A0, symBinAddr: 0x10000F6AC, symSize: 0x30 }
  - { offset: 0x2182D, size: 0x8, addend: 0x0, symName: __RNvXsr_NtNtCsfvfooZQ3Axs_4core3str7patternNCNvMB7_e10trim_start0NtB5_7Pattern13into_searcherCsiXPXk7oLjIW_18build_script_build, symObjAddr: 0x2900, symBinAddr: 0x10000F60C, symSize: 0x48 }
  - { offset: 0x21A89, size: 0x8, addend: 0x0, symName: __RNvXs3_NtNtCsfvfooZQ3Axs_4core3str7patternNCNvMB7_e10trim_start0NtB5_11MultiCharEq7matchesCsiXPXk7oLjIW_18build_script_build, symObjAddr: 0x24F0, symBinAddr: 0x10000F1FC, symSize: 0x28 }
  - { offset: 0x21ACF, size: 0x8, addend: 0x0, symName: __RNvXs3_NtNtCsfvfooZQ3Axs_4core3str7patternNtB7_12IsWhitespaceNtB5_11MultiCharEq7matchesCsiXPXk7oLjIW_18build_script_build, symObjAddr: 0x2518, symBinAddr: 0x10000F224, symSize: 0x28 }
  - { offset: 0x21B88, size: 0x8, addend: 0x0, symName: __RNvXs3_NtCsfvfooZQ3Axs_4core3strNtB5_8LinesMapINtNtNtB7_3ops8function2FnTReEE4callCsiXPXk7oLjIW_18build_script_build, symObjAddr: 0x2254, symBinAddr: 0x10000EF60, symSize: 0x17C }
  - { offset: 0x21CB3, size: 0x8, addend: 0x0, symName: __RNvXs4_NtCsfvfooZQ3Axs_4core3strNtB5_8LinesMapINtNtNtB7_3ops8function5FnMutTReEE8call_mutCsiXPXk7oLjIW_18build_script_build, symObjAddr: 0x2540, symBinAddr: 0x10000F24C, symSize: 0x3C }
  - { offset: 0x21D0C, size: 0x8, addend: 0x0, symName: __RNvXsf_NtCsfvfooZQ3Axs_4core3strNtB5_12IsWhitespaceINtNtNtB7_3ops8function2FnTcEE4callCsiXPXk7oLjIW_18build_script_build, symObjAddr: 0x2850, symBinAddr: 0x10000F55C, symSize: 0x2C }
  - { offset: 0x21D65, size: 0x8, addend: 0x0, symName: __RNvXsg_NtCsfvfooZQ3Axs_4core3strNtB5_12IsWhitespaceINtNtNtB7_3ops8function5FnMutTcEE8call_mutCsiXPXk7oLjIW_18build_script_build, symObjAddr: 0x287C, symBinAddr: 0x10000F588, symSize: 0x30 }
  - { offset: 0x21DBE, size: 0x8, addend: 0x0, symName: __RNvXsl_NtCsfvfooZQ3Axs_4core3strNtB5_10IsNotEmptyINtNtNtB7_3ops8function2FnTRReEE4callCsiXPXk7oLjIW_18build_script_build, symObjAddr: 0x28AC, symBinAddr: 0x10000F5B8, symSize: 0x24 }
  - { offset: 0x21E0F, size: 0x8, addend: 0x0, symName: __RNvXsm_NtCsfvfooZQ3Axs_4core3strNtB5_10IsNotEmptyINtNtNtB7_3ops8function5FnMutTRReEE8call_mutCsiXPXk7oLjIW_18build_script_build, symObjAddr: 0x28D0, symBinAddr: 0x10000F5DC, symSize: 0x30 }
  - { offset: 0x22166, size: 0x8, addend: 0x0, symName: __RNvXs1_NtNtNtCsfvfooZQ3Axs_4core3ops8function5implsQNtNtBb_3str10IsNotEmptyINtB7_5FnMutTRReEE8call_mutCsiXPXk7oLjIW_18build_script_build, symObjAddr: 0x2070, symBinAddr: 0x10000ED7C, symSize: 0x30 }
  - { offset: 0x221BB, size: 0x8, addend: 0x0, symName: __RNvXs2_NtNtNtCsfvfooZQ3Axs_4core3ops8function5implsQNtNtBb_3str8LinesMapINtB7_6FnOnceTReEE9call_onceCsiXPXk7oLjIW_18build_script_build, symObjAddr: 0x2220, symBinAddr: 0x10000EF2C, symSize: 0x34 }
  - { offset: 0x22D25, size: 0x8, addend: 0x0, symName: __RNvXsI_NtCsfvfooZQ3Axs_4core6optionINtB5_6OptionReENtNtB7_3fmt5Debug3fmtCsiXPXk7oLjIW_18build_script_build, symObjAddr: 0x25E0, symBinAddr: 0x10000F2EC, symSize: 0x9C }
  - { offset: 0x22D89, size: 0x8, addend: 0x0, symName: __RNvXsI_NtCsfvfooZQ3Axs_4core6optionINtB5_6OptionhENtNtB7_3fmt5Debug3fmtCsiXPXk7oLjIW_18build_script_build, symObjAddr: 0x267C, symBinAddr: 0x10000F388, symSize: 0x98 }
  - { offset: 0x22DF3, size: 0x8, addend: 0x0, symName: __RNvXsc_NtCsfvfooZQ3Axs_4core6optionINtB5_6OptionReENtNtB7_3cmp9PartialEq2eqCsiXPXk7oLjIW_18build_script_build, symObjAddr: 0x27A4, symBinAddr: 0x10000F4B0, symSize: 0xAC }
  - { offset: 0x230EC, size: 0x8, addend: 0x0, symName: __RINvYINtNtNtCsfvfooZQ3Axs_4core3str4iter5SplitNtB8_12IsWhitespaceENtNtNtNtBa_4iter6traits8iterator8Iterator4findQNtB8_10IsNotEmptyECsiXPXk7oLjIW_18build_script_build, symObjAddr: 0xB4C, symBinAddr: 0x10000D858, symSize: 0x90 }
  - { offset: 0x23167, size: 0x8, addend: 0x0, symName: __RINvYINtNtNtCsfvfooZQ3Axs_4core3str4iter5SplitNtB8_12IsWhitespaceENtNtNtNtBa_4iter6traits8iterator8Iterator8try_folduNCINvNvB12_4find5checkReQNtB8_10IsNotEmptyE0INtNtNtBa_3ops12control_flow11ControlFlowB2d_EECsiXPXk7oLjIW_18build_script_build, symObjAddr: 0xBDC, symBinAddr: 0x10000D8E8, symSize: 0x198 }
  - { offset: 0x23225, size: 0x8, addend: 0x0, symName: __RINvYNtNtNtCsfvfooZQ3Axs_4core3str4iter5LinesNtNtNtNtB9_4iter6traits8iterator8Iterator10filter_mapNtCsiXPXk7oLjIW_18build_script_build10VersionCfgNCNvB1A_34parse_version_cfgs_from_cargo_toml0EB1A_, symObjAddr: 0xD74, symBinAddr: 0x10000DA80, symSize: 0x30 }
  - { offset: 0x23293, size: 0x8, addend: 0x0, symName: __RINvYNtNtNtCsfvfooZQ3Axs_4core3str4iter5LinesNtNtNtNtB9_4iter6traits8iterator8Iterator8find_mapNtCsiXPXk7oLjIW_18build_script_build10VersionCfgQNCNvB1x_34parse_version_cfgs_from_cargo_toml0EB1x_, symObjAddr: 0xDA4, symBinAddr: 0x10000DAB0, symSize: 0xB4 }
  - { offset: 0x23317, size: 0x8, addend: 0x0, symName: __RINvYNtNtNtCsfvfooZQ3Axs_4core3str4iter5LinesNtNtNtNtB9_4iter6traits8iterator8Iterator8try_folduNCINvNvBH_8find_map5checkReNtCsiXPXk7oLjIW_18build_script_build10VersionCfgQNCNvB1Z_34parse_version_cfgs_from_cargo_toml0E0INtNtNtB9_3ops12control_flow11ControlFlowB1X_EEB1Z_, symObjAddr: 0xE58, symBinAddr: 0x10000DB64, symSize: 0x160 }
  - { offset: 0x237ED, size: 0x8, addend: 0x0, symName: __RNvNvMNtNtCsfvfooZQ3Axs_4core5alloc6layoutNtB4_6Layout25from_size_align_unchecked18precondition_checkCsiXPXk7oLjIW_18build_script_build, symObjAddr: 0x2020, symBinAddr: 0x10000ED2C, symSize: 0x50 }
  - { offset: 0x2396B, size: 0x8, addend: 0x0, symName: __RNCNvNtCse1nGBsou5OW_5alloc3fmt6format0CsiXPXk7oLjIW_18build_script_build, symObjAddr: 0x10EC, symBinAddr: 0x10000DDF8, symSize: 0x48 }
  - { offset: 0x2399C, size: 0x8, addend: 0x0, symName: __RNvNtCse1nGBsou5OW_5alloc3fmt6formatCsiXPXk7oLjIW_18build_script_build, symObjAddr: 0x1E84, symBinAddr: 0x10000EB90, symSize: 0xD4 }
  - { offset: 0x23B27, size: 0x8, addend: 0x0, symName: __RINvMNtCsfvfooZQ3Axs_4core6optionINtB3_6OptionReE11map_or_elseNtNtCse1nGBsou5OW_5alloc6string6StringNCNvNtB12_3fmt6format0NvYeNtNtB12_6borrow7ToOwned8to_ownedECsiXPXk7oLjIW_18build_script_build, symObjAddr: 0x5D8, symBinAddr: 0x10000D2E4, symSize: 0xCC }
  - { offset: 0x23BB4, size: 0x8, addend: 0x0, symName: __RINvNtCscOYdFFY2T5N_3std3env6var_osReECsiXPXk7oLjIW_18build_script_build, symObjAddr: 0x6A4, symBinAddr: 0x10000D3B0, symSize: 0x68 }
  - { offset: 0x23C40, size: 0x8, addend: 0x0, symName: __RNvNtNtNtNtCscOYdFFY2T5N_3std3sys3pal4unix2fs23debug_assert_fd_is_openCsiXPXk7oLjIW_18build_script_build, symObjAddr: 0x1F58, symBinAddr: 0x10000EC64, symSize: 0xC8 }
  - { offset: 0x23CD0, size: 0x8, addend: 0x0, symName: __RNvXs5_NtNtNtCscOYdFFY2T5N_3std2os2fd5ownedNtB5_7OwnedFdNtNtNtCsfvfooZQ3Axs_4core3ops4drop4Drop4dropCsiXPXk7oLjIW_18build_script_build, symObjAddr: 0x257C, symBinAddr: 0x10000F288, symSize: 0x40 }
  - { offset: 0x23F1D, size: 0x8, addend: 0x0, symName: __RNvMNtCsfvfooZQ3Axs_4core6optionINtB2_6OptionNtNtNtCscOYdFFY2T5N_3std3ffi6os_str8OsStringE6expectCsiXPXk7oLjIW_18build_script_build, symObjAddr: 0x1328, symBinAddr: 0x10000E034, symSize: 0x74 }
  - { offset: 0x23F59, size: 0x8, addend: 0x0, symName: __RNvMNtCsfvfooZQ3Axs_4core6optionINtB2_6OptionReE6expectCsiXPXk7oLjIW_18build_script_build, symObjAddr: 0x139C, symBinAddr: 0x10000E0A8, symSize: 0x68 }
  - { offset: 0x23FA1, size: 0x8, addend: 0x0, symName: __RNvMsf_NtNtCsfvfooZQ3Axs_4core3str4iterINtB5_13SplitInternalNCNvCsiXPXk7oLjIW_18build_script_build13rustc_version0E4nextB10_, symObjAddr: 0x1404, symBinAddr: 0x10000E110, symSize: 0x138 }
  - { offset: 0x240DD, size: 0x8, addend: 0x0, symName: __RNvMsf_NtNtCsfvfooZQ3Axs_4core3str4iterINtB5_13SplitInternalNCNvCsiXPXk7oLjIW_18build_script_build13rustc_version0E7get_endB10_, symObjAddr: 0x153C, symBinAddr: 0x10000E248, symSize: 0x120 }
  - { offset: 0x241E8, size: 0x8, addend: 0x0, symName: __RNvMsf_NtNtCsfvfooZQ3Axs_4core3str4iterINtB5_13SplitInternalNtB7_12IsWhitespaceE4nextCsiXPXk7oLjIW_18build_script_build, symObjAddr: 0x165C, symBinAddr: 0x10000E368, symSize: 0x138 }
  - { offset: 0x24324, size: 0x8, addend: 0x0, symName: __RNvMsf_NtNtCsfvfooZQ3Axs_4core3str4iterINtB5_13SplitInternalNtB7_12IsWhitespaceE7get_endCsiXPXk7oLjIW_18build_script_build, symObjAddr: 0x1794, symBinAddr: 0x10000E4A0, symSize: 0x120 }
  - { offset: 0x2442F, size: 0x8, addend: 0x0, symName: __RNvMsf_NtNtCsfvfooZQ3Axs_4core3str4iterINtB5_13SplitInternalReE4nextCsiXPXk7oLjIW_18build_script_build, symObjAddr: 0x18B4, symBinAddr: 0x10000E5C0, symSize: 0x134 }
  - { offset: 0x2456B, size: 0x8, addend: 0x0, symName: __RNvMsf_NtNtCsfvfooZQ3Axs_4core3str4iterINtB5_13SplitInternalReE7get_endCsiXPXk7oLjIW_18build_script_build, symObjAddr: 0x19E8, symBinAddr: 0x10000E6F4, symSize: 0x11C }
  - { offset: 0x24676, size: 0x8, addend: 0x0, symName: __RNvMsf_NtNtCsfvfooZQ3Axs_4core3str4iterINtB5_13SplitInternalcE14next_inclusiveCsiXPXk7oLjIW_18build_script_build, symObjAddr: 0x1B04, symBinAddr: 0x10000E810, symSize: 0x128 }
  - { offset: 0x247A1, size: 0x8, addend: 0x0, symName: __RNvMsf_NtNtCsfvfooZQ3Axs_4core3str4iterINtB5_13SplitInternalcE4nextCsiXPXk7oLjIW_18build_script_build, symObjAddr: 0x1C2C, symBinAddr: 0x10000E938, symSize: 0x138 }
  - { offset: 0x248DD, size: 0x8, addend: 0x0, symName: __RNvMsf_NtNtCsfvfooZQ3Axs_4core3str4iterINtB5_13SplitInternalcE7get_endCsiXPXk7oLjIW_18build_script_build, symObjAddr: 0x1D64, symBinAddr: 0x10000EA70, symSize: 0x120 }
  - { offset: 0x24DB2, size: 0x8, addend: 0x0, symName: ___llvm_profile_get_magic, symObjAddr: 0x28, symBinAddr: 0x10000F6F0, symSize: 0x14 }
  - { offset: 0x24DD3, size: 0x8, addend: 0x0, symName: ___llvm_profile_get_num_padding_bytes, symObjAddr: 0x44, symBinAddr: 0x10000F704, symSize: 0xC }
  - { offset: 0x24DDB, size: 0x8, addend: 0x0, symName: ___llvm_profile_get_version, symObjAddr: 0x50, symBinAddr: 0x10000F710, symSize: 0xC }
  - { offset: 0x24E04, size: 0x8, addend: 0x0, symName: ___llvm_profile_get_version, symObjAddr: 0x50, symBinAddr: 0x10000F710, symSize: 0xC }
  - { offset: 0x24E79, size: 0x8, addend: 0x0, symName: ___llvm_profile_is_continuous_mode_enabled, symObjAddr: 0x0, symBinAddr: 0x10000F71C, symSize: 0x20 }
  - { offset: 0x24E96, size: 0x8, addend: 0x0, symName: __MergedGlobals, symObjAddr: 0x3E20, symBinAddr: 0x1000711B8, symSize: 0x0 }
  - { offset: 0x24EB8, size: 0x8, addend: 0x0, symName: __MergedGlobals, symObjAddr: 0x3E20, symBinAddr: 0x1000711B8, symSize: 0x0 }
  - { offset: 0x24EE8, size: 0x8, addend: 0x0, symName: ___llvm_profile_is_continuous_mode_enabled, symObjAddr: 0x0, symBinAddr: 0x10000F71C, symSize: 0x20 }
  - { offset: 0x24EF0, size: 0x8, addend: 0x0, symName: ___llvm_profile_enable_continuous_mode, symObjAddr: 0x20, symBinAddr: 0x10000F73C, symSize: 0x10 }
  - { offset: 0x24F00, size: 0x8, addend: 0x0, symName: ___llvm_profile_enable_continuous_mode, symObjAddr: 0x20, symBinAddr: 0x10000F73C, symSize: 0x10 }
  - { offset: 0x24F08, size: 0x8, addend: 0x0, symName: ___llvm_profile_disable_continuous_mode, symObjAddr: 0x30, symBinAddr: 0x10000F74C, symSize: 0xC }
  - { offset: 0x24F1D, size: 0x8, addend: 0x0, symName: ___llvm_profile_disable_continuous_mode, symObjAddr: 0x30, symBinAddr: 0x10000F74C, symSize: 0xC }
  - { offset: 0x24F25, size: 0x8, addend: 0x0, symName: ___llvm_profile_set_page_size, symObjAddr: 0x3C, symBinAddr: 0x10000F758, symSize: 0xC }
  - { offset: 0x24F3A, size: 0x8, addend: 0x0, symName: ___llvm_profile_set_page_size, symObjAddr: 0x3C, symBinAddr: 0x10000F758, symSize: 0xC }
  - { offset: 0x24F42, size: 0x8, addend: 0x0, symName: ___llvm_profile_get_size_for_buffer, symObjAddr: 0x48, symBinAddr: 0x10000F764, symSize: 0xC4 }
  - { offset: 0x24F65, size: 0x8, addend: 0x0, symName: ___llvm_profile_get_size_for_buffer, symObjAddr: 0x48, symBinAddr: 0x10000F764, symSize: 0xC4 }
  - { offset: 0x24F6D, size: 0x8, addend: 0x0, symName: ___llvm_profile_get_size_for_buffer_internal, symObjAddr: 0x10C, symBinAddr: 0x10000F828, symSize: 0x1C0 }
  - { offset: 0x253D0, size: 0x8, addend: 0x0, symName: ___llvm_profile_get_size_for_buffer_internal, symObjAddr: 0x10C, symBinAddr: 0x10000F828, symSize: 0x1C0 }
  - { offset: 0x253D8, size: 0x8, addend: 0x0, symName: ___llvm_profile_get_num_data, symObjAddr: 0x2CC, symBinAddr: 0x10000F9E8, symSize: 0x10 }
  - { offset: 0x257C7, size: 0x8, addend: 0x0, symName: ___llvm_profile_get_num_data, symObjAddr: 0x2CC, symBinAddr: 0x10000F9E8, symSize: 0x10 }
  - { offset: 0x257CF, size: 0x8, addend: 0x0, symName: ___llvm_profile_get_data_size, symObjAddr: 0x2DC, symBinAddr: 0x10000F9F8, symSize: 0x10 }
  - { offset: 0x25800, size: 0x8, addend: 0x0, symName: ___llvm_profile_get_data_size, symObjAddr: 0x2DC, symBinAddr: 0x10000F9F8, symSize: 0x10 }
  - { offset: 0x25808, size: 0x8, addend: 0x0, symName: ___llvm_profile_get_num_vtable, symObjAddr: 0x2EC, symBinAddr: 0x10000FA08, symSize: 0x18 }
  - { offset: 0x2582C, size: 0x8, addend: 0x0, symName: ___llvm_profile_get_data_size, symObjAddr: 0x2DC, symBinAddr: 0x10000F9F8, symSize: 0x10 }
  - { offset: 0x2585E, size: 0x8, addend: 0x0, symName: ___llvm_profile_get_num_vtable, symObjAddr: 0x2EC, symBinAddr: 0x10000FA08, symSize: 0x18 }
  - { offset: 0x25866, size: 0x8, addend: 0x0, symName: ___llvm_profile_get_vtable_section_size, symObjAddr: 0x304, symBinAddr: 0x10000FA20, symSize: 0x8 }
  - { offset: 0x258B8, size: 0x8, addend: 0x0, symName: ___llvm_profile_get_vtable_section_size, symObjAddr: 0x304, symBinAddr: 0x10000FA20, symSize: 0x8 }
  - { offset: 0x258C0, size: 0x8, addend: 0x0, symName: ___llvm_profile_counter_entry_size, symObjAddr: 0x30C, symBinAddr: 0x10000FA28, symSize: 0x1C }
  - { offset: 0x258E1, size: 0x8, addend: 0x0, symName: ___llvm_profile_counter_entry_size, symObjAddr: 0x30C, symBinAddr: 0x10000FA28, symSize: 0x1C }
  - { offset: 0x258E9, size: 0x8, addend: 0x0, symName: ___llvm_profile_get_num_counters, symObjAddr: 0x328, symBinAddr: 0x10000FA44, symSize: 0x48 }
  - { offset: 0x258F9, size: 0x8, addend: 0x0, symName: ___llvm_profile_get_num_counters, symObjAddr: 0x328, symBinAddr: 0x10000FA44, symSize: 0x48 }
  - { offset: 0x25901, size: 0x8, addend: 0x0, symName: ___llvm_profile_get_counters_size, symObjAddr: 0x370, symBinAddr: 0x10000FA8C, symSize: 0x5C }
  - { offset: 0x25966, size: 0x8, addend: 0x0, symName: ___llvm_profile_get_counters_size, symObjAddr: 0x370, symBinAddr: 0x10000FA8C, symSize: 0x5C }
  - { offset: 0x2596E, size: 0x8, addend: 0x0, symName: ___llvm_profile_get_num_bitmap_bytes, symObjAddr: 0x3CC, symBinAddr: 0x10000FAE8, symSize: 0x8 }
  - { offset: 0x25A12, size: 0x8, addend: 0x0, symName: ___llvm_profile_get_num_bitmap_bytes, symObjAddr: 0x3CC, symBinAddr: 0x10000FAE8, symSize: 0x8 }
  - { offset: 0x25A1A, size: 0x8, addend: 0x0, symName: ___llvm_profile_get_name_size, symObjAddr: 0x3D4, symBinAddr: 0x10000FAF0, symSize: 0x8 }
  - { offset: 0x25A3B, size: 0x8, addend: 0x0, symName: ___llvm_profile_get_name_size, symObjAddr: 0x3D4, symBinAddr: 0x10000FAF0, symSize: 0x8 }
  - { offset: 0x25A43, size: 0x8, addend: 0x0, symName: ___llvm_profile_get_padding_sizes_for_counters, symObjAddr: 0x3DC, symBinAddr: 0x10000FAF8, symSize: 0x15C }
  - { offset: 0x25A64, size: 0x8, addend: 0x0, symName: ___llvm_profile_get_padding_sizes_for_counters, symObjAddr: 0x3DC, symBinAddr: 0x10000FAF8, symSize: 0x15C }
  - { offset: 0x25A6C, size: 0x8, addend: 0x0, symName: _initBufferWriter, symObjAddr: 0x538, symBinAddr: 0x10000FC54, symSize: 0x10 }
  - { offset: 0x25BC0, size: 0x8, addend: 0x0, symName: _initBufferWriter, symObjAddr: 0x538, symBinAddr: 0x10000FC54, symSize: 0x10 }
  - { offset: 0x25D2A, size: 0x8, addend: 0x0, symName: __MergedGlobals, symObjAddr: 0xA4F0, symBinAddr: 0x1000711C8, symSize: 0x0 }
  - { offset: 0x25E47, size: 0x8, addend: 0x0, symName: __MergedGlobals, symObjAddr: 0xA4F0, symBinAddr: 0x1000711C8, symSize: 0x0 }
  - { offset: 0x26078, size: 0x8, addend: 0x0, symName: __MergedGlobals, symObjAddr: 0xA4F0, symBinAddr: 0x1000711C8, symSize: 0x0 }
  - { offset: 0x2619F, size: 0x8, addend: 0x0, symName: _getCurFilenameLength, symObjAddr: 0x1C8, symBinAddr: 0x10000FC64, symSize: 0x108 }
  - { offset: 0x261A7, size: 0x8, addend: 0x0, symName: _getCurFilename, symObjAddr: 0x2D0, symBinAddr: 0x10000FD6C, symSize: 0x2B8 }
  - { offset: 0x2622A, size: 0x8, addend: 0x0, symName: _getCurFilename, symObjAddr: 0x2D0, symBinAddr: 0x10000FD6C, symSize: 0x2B8 }
  - { offset: 0x2645B, size: 0x8, addend: 0x0, symName: _parseAndSetFilename, symObjAddr: 0x688, symBinAddr: 0x100010024, symSize: 0x4B8 }
  - { offset: 0x26463, size: 0x8, addend: 0x0, symName: ___llvm_profile_initialize, symObjAddr: 0xB40, symBinAddr: 0x1000104DC, symSize: 0xB8 }
  - { offset: 0x2664B, size: 0x8, addend: 0x0, symName: ___llvm_profile_initialize, symObjAddr: 0xB40, symBinAddr: 0x1000104DC, symSize: 0xB8 }
  - { offset: 0x266C7, size: 0x8, addend: 0x0, symName: ___llvm_profile_write_file, symObjAddr: 0xC74, symBinAddr: 0x100010594, symSize: 0x1B4 }
  - { offset: 0x266CF, size: 0x8, addend: 0x0, symName: _writeFile, symObjAddr: 0xE28, symBinAddr: 0x100010748, symSize: 0x294 }
  - { offset: 0x2682A, size: 0x8, addend: 0x0, symName: _writeFile, symObjAddr: 0xE28, symBinAddr: 0x100010748, symSize: 0x294 }
  - { offset: 0x2699E, size: 0x8, addend: 0x0, symName: _writeFileWithoutReturn, symObjAddr: 0x138C, symBinAddr: 0x1000109DC, symSize: 0x4 }
  - { offset: 0x269D5, size: 0x8, addend: 0x0, symName: _getProfileFileSizeForMerging, symObjAddr: 0x1574, symBinAddr: 0x1000109E0, symSize: 0x110 }
  - { offset: 0x269DD, size: 0x8, addend: 0x0, symName: _mmapProfileForMerging, symObjAddr: 0x1684, symBinAddr: 0x100010AF0, symSize: 0xBC }
  - { offset: 0x26A1A, size: 0x8, addend: 0x0, symName: _mmapProfileForMerging, symObjAddr: 0x1684, symBinAddr: 0x100010AF0, symSize: 0xBC }
  - { offset: 0x26A22, size: 0x8, addend: 0x0, symName: _mmapForContinuousMode, symObjAddr: 0x1740, symBinAddr: 0x100010BAC, symSize: 0x264 }
  - { offset: 0x26A70, size: 0x8, addend: 0x0, symName: _mmapForContinuousMode, symObjAddr: 0x1740, symBinAddr: 0x100010BAC, symSize: 0x264 }
  - { offset: 0x26A78, size: 0x8, addend: 0x0, symName: _fileWriter, symObjAddr: 0x19A4, symBinAddr: 0x100010E10, symSize: 0x140 }
  - { offset: 0x26C37, size: 0x8, addend: 0x0, symName: _fileWriter, symObjAddr: 0x19A4, symBinAddr: 0x100010E10, symSize: 0x140 }
  - { offset: 0x26C3F, size: 0x8, addend: 0x0, symName: _truncateCurrentFile, symObjAddr: 0x1AE4, symBinAddr: 0x100010F50, symSize: 0xD8 }
  - { offset: 0x26D07, size: 0x8, addend: 0x0, symName: _truncateCurrentFile, symObjAddr: 0x1AE4, symBinAddr: 0x100010F50, symSize: 0xD8 }
  - { offset: 0x26D0F, size: 0x8, addend: 0x0, symName: _initializeProfileForContinuousMode, symObjAddr: 0x1BBC, symBinAddr: 0x100011028, symSize: 0x25C }
  - { offset: 0x26DAD, size: 0x8, addend: 0x0, symName: _initializeProfileForContinuousMode, symObjAddr: 0x1BBC, symBinAddr: 0x100011028, symSize: 0x25C }
  - { offset: 0x26DB5, size: 0x8, addend: 0x0, symName: _createProfileDir, symObjAddr: 0x1E18, symBinAddr: 0x100011284, symSize: 0xA4 }
  - { offset: 0x26F82, size: 0x8, addend: 0x0, symName: _createProfileDir, symObjAddr: 0x1E18, symBinAddr: 0x100011284, symSize: 0xA4 }
  - { offset: 0x26F8A, size: 0x8, addend: 0x0, symName: _parseAndSetFilename.cold.1, symObjAddr: 0x1EBC, symBinAddr: 0x10004EA14, symSize: 0x24 }
  - { offset: 0x26FE7, size: 0x8, addend: 0x0, symName: _parseAndSetFilename.cold.1, symObjAddr: 0x1EBC, symBinAddr: 0x10004EA14, symSize: 0x24 }
  - { offset: 0x26FEF, size: 0x8, addend: 0x0, symName: _parseAndSetFilename.cold.2, symObjAddr: 0x1EE0, symBinAddr: 0x10004EA38, symSize: 0x24 }
  - { offset: 0x27011, size: 0x8, addend: 0x0, symName: _parseAndSetFilename.cold.2, symObjAddr: 0x1EE0, symBinAddr: 0x10004EA38, symSize: 0x24 }
  - { offset: 0x2702B, size: 0x8, addend: 0x0, symName: _parseAndSetFilename.cold.2, symObjAddr: 0x1EE0, symBinAddr: 0x10004EA38, symSize: 0x24 }
  - { offset: 0x2703B, size: 0x8, addend: 0x0, symName: _parseAndSetFilename.cold.2, symObjAddr: 0x1EE0, symBinAddr: 0x10004EA38, symSize: 0x24 }
  - { offset: 0x271A0, size: 0x8, addend: 0x0, symName: _lprofProfileDumped, symObjAddr: 0x0, symBinAddr: 0x100011328, symSize: 0xC }
  - { offset: 0x271BD, size: 0x8, addend: 0x0, symName: _ProfileDumped, symObjAddr: 0x4E0, symBinAddr: 0x100071298, symSize: 0x0 }
  - { offset: 0x271CD, size: 0x8, addend: 0x0, symName: _lprofProfileDumped, symObjAddr: 0x0, symBinAddr: 0x100011328, symSize: 0xC }
  - { offset: 0x27215, size: 0x8, addend: 0x0, symName: _lprofGetLoadModuleSignature, symObjAddr: 0x0, symBinAddr: 0x100011334, symSize: 0xD0 }
  - { offset: 0x27242, size: 0x8, addend: 0x0, symName: _VPMergeHook, symBinAddr: 0x1000711B0, symSize: 0x0 }
  - { offset: 0x274A6, size: 0x8, addend: 0x0, symName: _lprofGetLoadModuleSignature, symObjAddr: 0x0, symBinAddr: 0x100011334, symSize: 0xD0 }
  - { offset: 0x274AE, size: 0x8, addend: 0x0, symName: ___llvm_profile_check_compatibility, symObjAddr: 0xD0, symBinAddr: 0x100011404, symSize: 0x1CC }
  - { offset: 0x2751D, size: 0x8, addend: 0x0, symName: ___llvm_profile_check_compatibility, symObjAddr: 0xD0, symBinAddr: 0x100011404, symSize: 0x1CC }
  - { offset: 0x27525, size: 0x8, addend: 0x0, symName: ___llvm_profile_merge_from_buffer, symObjAddr: 0x29C, symBinAddr: 0x1000115D0, symSize: 0x48C }
  - { offset: 0x275FD, size: 0x8, addend: 0x0, symName: ___llvm_profile_merge_from_buffer, symObjAddr: 0x29C, symBinAddr: 0x1000115D0, symSize: 0x48C }
  - { offset: 0x27864, size: 0x8, addend: 0x0, symName: _lprofMergeValueProfData, symObjAddr: 0x0, symBinAddr: 0x100011A5C, symSize: 0xF0 }
  - { offset: 0x27875, size: 0x8, addend: 0x0, symName: _lprofMergeValueProfData, symObjAddr: 0x0, symBinAddr: 0x100011A5C, symSize: 0xF0 }
  - { offset: 0x27B40, size: 0x8, addend: 0x0, symName: ___llvm_profile_begin_data, symObjAddr: 0x0, symBinAddr: 0x100011B4C, symSize: 0xC }
  - { offset: 0x27B5F, size: 0x8, addend: 0x0, symName: _CurrentVNode, symObjAddr: 0xC0, symBinAddr: 0x100070658, symSize: 0x0 }
  - { offset: 0x27BDB, size: 0x8, addend: 0x0, symName: _EndVNode, symObjAddr: 0xC8, symBinAddr: 0x100070660, symSize: 0x0 }
  - { offset: 0x27BE4, size: 0x8, addend: 0x0, symName: ___llvm_profile_begin_data, symObjAddr: 0x0, symBinAddr: 0x100011B4C, symSize: 0xC }
  - { offset: 0x27BEC, size: 0x8, addend: 0x0, symName: ___llvm_profile_end_data, symObjAddr: 0xC, symBinAddr: 0x100011B58, symSize: 0xC }
  - { offset: 0x27C05, size: 0x8, addend: 0x0, symName: ___llvm_profile_end_data, symObjAddr: 0xC, symBinAddr: 0x100011B58, symSize: 0xC }
  - { offset: 0x27C0D, size: 0x8, addend: 0x0, symName: ___llvm_profile_begin_names, symObjAddr: 0x18, symBinAddr: 0x100011B64, symSize: 0xC }
  - { offset: 0x27C26, size: 0x8, addend: 0x0, symName: ___llvm_profile_begin_names, symObjAddr: 0x18, symBinAddr: 0x100011B64, symSize: 0xC }
  - { offset: 0x27C2E, size: 0x8, addend: 0x0, symName: ___llvm_profile_end_names, symObjAddr: 0x24, symBinAddr: 0x100011B70, symSize: 0xC }
  - { offset: 0x27C47, size: 0x8, addend: 0x0, symName: ___llvm_profile_end_names, symObjAddr: 0x24, symBinAddr: 0x100011B70, symSize: 0xC }
  - { offset: 0x27C4F, size: 0x8, addend: 0x0, symName: ___llvm_profile_begin_counters, symObjAddr: 0x30, symBinAddr: 0x100011B7C, symSize: 0xC }
  - { offset: 0x27C68, size: 0x8, addend: 0x0, symName: ___llvm_profile_begin_counters, symObjAddr: 0x30, symBinAddr: 0x100011B7C, symSize: 0xC }
  - { offset: 0x27C70, size: 0x8, addend: 0x0, symName: ___llvm_profile_end_counters, symObjAddr: 0x3C, symBinAddr: 0x100011B88, symSize: 0xC }
  - { offset: 0x27C89, size: 0x8, addend: 0x0, symName: ___llvm_profile_end_counters, symObjAddr: 0x3C, symBinAddr: 0x100011B88, symSize: 0xC }
  - { offset: 0x27C91, size: 0x8, addend: 0x0, symName: ___llvm_profile_begin_bitmap, symObjAddr: 0x48, symBinAddr: 0x100011B94, symSize: 0xC }
  - { offset: 0x27CAA, size: 0x8, addend: 0x0, symName: ___llvm_profile_begin_bitmap, symObjAddr: 0x48, symBinAddr: 0x100011B94, symSize: 0xC }
  - { offset: 0x27CB2, size: 0x8, addend: 0x0, symName: ___llvm_profile_end_bitmap, symObjAddr: 0x54, symBinAddr: 0x100011BA0, symSize: 0xC }
  - { offset: 0x27CCB, size: 0x8, addend: 0x0, symName: ___llvm_profile_end_bitmap, symObjAddr: 0x54, symBinAddr: 0x100011BA0, symSize: 0xC }
  - { offset: 0x27CD3, size: 0x8, addend: 0x0, symName: ___llvm_profile_begin_vtables, symObjAddr: 0x60, symBinAddr: 0x100011BAC, symSize: 0xC }
  - { offset: 0x27CED, size: 0x8, addend: 0x0, symName: ___llvm_profile_begin_vtables, symObjAddr: 0x60, symBinAddr: 0x100011BAC, symSize: 0xC }
  - { offset: 0x27CF5, size: 0x8, addend: 0x0, symName: ___llvm_profile_end_vtables, symObjAddr: 0x6C, symBinAddr: 0x100011BB8, symSize: 0xC }
  - { offset: 0x27D0E, size: 0x8, addend: 0x0, symName: ___llvm_profile_end_vtables, symObjAddr: 0x6C, symBinAddr: 0x100011BB8, symSize: 0xC }
  - { offset: 0x27D16, size: 0x8, addend: 0x0, symName: ___llvm_profile_begin_vtabnames, symObjAddr: 0x78, symBinAddr: 0x100011BC4, symSize: 0xC }
  - { offset: 0x27D2E, size: 0x8, addend: 0x0, symName: ___llvm_profile_begin_vtabnames, symObjAddr: 0x78, symBinAddr: 0x100011BC4, symSize: 0xC }
  - { offset: 0x27D36, size: 0x8, addend: 0x0, symName: ___llvm_profile_end_vtabnames, symObjAddr: 0x84, symBinAddr: 0x100011BD0, symSize: 0xC }
  - { offset: 0x27D4F, size: 0x8, addend: 0x0, symName: ___llvm_profile_end_vtabnames, symObjAddr: 0x84, symBinAddr: 0x100011BD0, symSize: 0xC }
  - { offset: 0x27D71, size: 0x8, addend: 0x0, symName: ___llvm_profile_begin_vnodes, symObjAddr: 0x9C, symBinAddr: 0x100011BDC, symSize: 0xC }
  - { offset: 0x27D79, size: 0x8, addend: 0x0, symName: ___llvm_profile_end_vnodes, symObjAddr: 0xA8, symBinAddr: 0x100011BE8, symSize: 0xC }
  - { offset: 0x27D92, size: 0x8, addend: 0x0, symName: ___llvm_profile_end_vnodes, symObjAddr: 0xA8, symBinAddr: 0x100011BE8, symSize: 0xC }
  - { offset: 0x27D9A, size: 0x8, addend: 0x0, symName: ___llvm_write_binary_ids, symObjAddr: 0xB4, symBinAddr: 0x100011BF4, symSize: 0x8 }
  - { offset: 0x27DB2, size: 0x8, addend: 0x0, symName: ___llvm_write_binary_ids, symObjAddr: 0xB4, symBinAddr: 0x100011BF4, symSize: 0x8 }
  - { offset: 0x28038, size: 0x8, addend: 0x0, symName: __GLOBAL__sub_I_InstrProfilingRuntime.cpp, symObjAddr: 0x0, symBinAddr: 0x100011BFC, symSize: 0x18 }
  - { offset: 0x2805B, size: 0x8, addend: 0x0, symName: ___llvm_profile_runtime, symObjAddr: 0x590, symBinAddr: 0x10007116C, symSize: 0x0 }
  - { offset: 0x2808B, size: 0x8, addend: 0x0, symName: __GLOBAL__sub_I_InstrProfilingRuntime.cpp, symObjAddr: 0x0, symBinAddr: 0x100011BFC, symSize: 0x18 }
  - { offset: 0x28107, size: 0x8, addend: 0x0, symName: ___llvm_profile_recursive_mkdir, symObjAddr: 0x0, symBinAddr: 0x100011C14, symSize: 0x58 }
  - { offset: 0x2810F, size: 0x8, addend: 0x0, symName: _lprofDirMode, symObjAddr: 0x5A8, symBinAddr: 0x100070668, symSize: 0x0 }
  - { offset: 0x28126, size: 0x8, addend: 0x0, symName: _lprofDirMode, symObjAddr: 0x5A8, symBinAddr: 0x100070668, symSize: 0x0 }
  - { offset: 0x2815B, size: 0x8, addend: 0x0, symName: ___llvm_profile_recursive_mkdir, symObjAddr: 0x0, symBinAddr: 0x100011C14, symSize: 0x58 }
  - { offset: 0x281DA, size: 0x8, addend: 0x0, symName: _lprofGetHostName, symObjAddr: 0x70, symBinAddr: 0x100011C6C, symSize: 0x80 }
  - { offset: 0x2830F, size: 0x8, addend: 0x0, symName: _lprofLockFileHandle, symObjAddr: 0x208, symBinAddr: 0x100011CEC, symSize: 0x90 }
  - { offset: 0x28317, size: 0x8, addend: 0x0, symName: _lprofUnlockFileHandle, symObjAddr: 0x298, symBinAddr: 0x100011D7C, symSize: 0x90 }
  - { offset: 0x2839D, size: 0x8, addend: 0x0, symName: _lprofUnlockFileHandle, symObjAddr: 0x298, symBinAddr: 0x100011D7C, symSize: 0x90 }
  - { offset: 0x283A5, size: 0x8, addend: 0x0, symName: _lprofOpenFileEx, symObjAddr: 0x328, symBinAddr: 0x100011E0C, symSize: 0xD0 }
  - { offset: 0x28405, size: 0x8, addend: 0x0, symName: _lprofOpenFileEx, symObjAddr: 0x328, symBinAddr: 0x100011E0C, symSize: 0xD0 }
  - { offset: 0x2847D, size: 0x8, addend: 0x0, symName: _lprofFindFirstDirSeparator, symObjAddr: 0x538, symBinAddr: 0x100011EDC, symSize: 0x8 }
  - { offset: 0x284BD, size: 0x8, addend: 0x0, symName: _lprofSuspendSigKill, symObjAddr: 0x548, symBinAddr: 0x100011EE4, symSize: 0x8 }
  - { offset: 0x284C5, size: 0x8, addend: 0x0, symName: _lprofRestoreSigKill, symObjAddr: 0x550, symBinAddr: 0x100011EEC, symSize: 0x4 }
  - { offset: 0x284DF, size: 0x8, addend: 0x0, symName: _lprofRestoreSigKill, symObjAddr: 0x550, symBinAddr: 0x100011EEC, symSize: 0x4 }
  - { offset: 0x2878A, size: 0x8, addend: 0x0, symName: _getValueProfRecordHeaderSize, symObjAddr: 0x0, symBinAddr: 0x100011EF0, symSize: 0xC }
  - { offset: 0x287A9, size: 0x8, addend: 0x0, symName: _VPMaxNumValsPerSite, symObjAddr: 0x1740, symBinAddr: 0x100070670, symSize: 0x0 }
  - { offset: 0x2883E, size: 0x8, addend: 0x0, symName: __MergedGlobals, symObjAddr: 0xEF68, symBinAddr: 0x1000712C8, symSize: 0x0 }
  - { offset: 0x28865, size: 0x8, addend: 0x0, symName: __MergedGlobals, symObjAddr: 0xEF68, symBinAddr: 0x1000712C8, symSize: 0x0 }
  - { offset: 0x2887C, size: 0x8, addend: 0x0, symName: __MergedGlobals, symObjAddr: 0xEF68, symBinAddr: 0x1000712C8, symSize: 0x0 }
  - { offset: 0x2889C, size: 0x8, addend: 0x0, symName: _TheVPDataReader, symObjAddr: 0x1748, symBinAddr: 0x100070678, symSize: 0x0 }
  - { offset: 0x28B3D, size: 0x8, addend: 0x0, symName: _RTRecord, symObjAddr: 0xEF40, symBinAddr: 0x1000712A0, symSize: 0x0 }
  - { offset: 0x28D31, size: 0x8, addend: 0x0, symName: _getValueProfRecordHeaderSize, symObjAddr: 0x0, symBinAddr: 0x100011EF0, symSize: 0xC }
  - { offset: 0x28D87, size: 0x8, addend: 0x0, symName: _getValueProfRecordValueData, symObjAddr: 0x1C, symBinAddr: 0x100011EFC, symSize: 0x14 }
  - { offset: 0x28E35, size: 0x8, addend: 0x0, symName: _getValueProfRecordNext, symObjAddr: 0x1B4, symBinAddr: 0x100011F10, symSize: 0x1A4 }
  - { offset: 0x28E3D, size: 0x8, addend: 0x0, symName: _getFirstValueProfRecord, symObjAddr: 0x358, symBinAddr: 0x1000120B4, symSize: 0x8 }
  - { offset: 0x28EA4, size: 0x8, addend: 0x0, symName: _getFirstValueProfRecord, symObjAddr: 0x358, symBinAddr: 0x1000120B4, symSize: 0x8 }
  - { offset: 0x28F87, size: 0x8, addend: 0x0, symName: _lprofSetupValueProfiler, symObjAddr: 0xB38, symBinAddr: 0x1000120BC, symSize: 0x64 }
  - { offset: 0x29098, size: 0x8, addend: 0x0, symName: ___llvm_profile_instrument_target_value, symObjAddr: 0xE30, symBinAddr: 0x100012120, symSize: 0x290 }
  - { offset: 0x291B6, size: 0x8, addend: 0x0, symName: _lprofGetVPDataReader, symObjAddr: 0x1108, symBinAddr: 0x1000123B0, symSize: 0xC }
  - { offset: 0x291BE, size: 0x8, addend: 0x0, symName: _initializeValueProfRuntimeRecord, symObjAddr: 0x1114, symBinAddr: 0x1000123BC, symSize: 0x210 }
  - { offset: 0x291D8, size: 0x8, addend: 0x0, symName: _initializeValueProfRuntimeRecord, symObjAddr: 0x1114, symBinAddr: 0x1000123BC, symSize: 0x210 }
  - { offset: 0x291E0, size: 0x8, addend: 0x0, symName: _getNumValueDataForSiteWrapper, symObjAddr: 0x1324, symBinAddr: 0x1000125CC, symSize: 0x14 }
  - { offset: 0x292FB, size: 0x8, addend: 0x0, symName: _getNumValueDataForSiteWrapper, symObjAddr: 0x1324, symBinAddr: 0x1000125CC, symSize: 0x14 }
  - { offset: 0x29303, size: 0x8, addend: 0x0, symName: _getValueProfDataSizeWrapper, symObjAddr: 0x1338, symBinAddr: 0x1000125E0, symSize: 0xDC }
  - { offset: 0x29341, size: 0x8, addend: 0x0, symName: _getNumValueDataForSiteWrapper, symObjAddr: 0x1324, symBinAddr: 0x1000125CC, symSize: 0x14 }
  - { offset: 0x29367, size: 0x8, addend: 0x0, symName: _getValueProfDataSizeWrapper, symObjAddr: 0x1338, symBinAddr: 0x1000125E0, symSize: 0xDC }
  - { offset: 0x2936F, size: 0x8, addend: 0x0, symName: _getNextNValueData, symObjAddr: 0x1414, symBinAddr: 0x1000126BC, symSize: 0x44 }
  - { offset: 0x29406, size: 0x8, addend: 0x0, symName: _getNextNValueData, symObjAddr: 0x1414, symBinAddr: 0x1000126BC, symSize: 0x44 }
  - { offset: 0x2940E, size: 0x8, addend: 0x0, symName: _getNumValueSitesRT, symObjAddr: 0x1458, symBinAddr: 0x100012700, symSize: 0x10 }
  - { offset: 0x2949C, size: 0x8, addend: 0x0, symName: _getNumValueSitesRT, symObjAddr: 0x1458, symBinAddr: 0x100012700, symSize: 0x10 }
  - { offset: 0x294A4, size: 0x8, addend: 0x0, symName: _getNumValueDataRT, symObjAddr: 0x1468, symBinAddr: 0x100012710, symSize: 0x190 }
  - { offset: 0x294DF, size: 0x8, addend: 0x0, symName: _getNumValueDataRT, symObjAddr: 0x1468, symBinAddr: 0x100012710, symSize: 0x190 }
  - { offset: 0x29555, size: 0x8, addend: 0x0, symName: ___llvm_profile_instrument_target_value.cold.1, symObjAddr: 0x161C, symBinAddr: 0x10004EA5C, symSize: 0x24 }
  - { offset: 0x295E5, size: 0x8, addend: 0x0, symName: ___llvm_profile_raw_version, symObjAddr: 0x0, symBinAddr: 0x1000706A8, symSize: 0x0 }
  - { offset: 0x29627, size: 0x8, addend: 0x0, symName: _lprofBufferWriter, symObjAddr: 0x0, symBinAddr: 0x1000128A0, symSize: 0x6C }
  - { offset: 0x29646, size: 0x8, addend: 0x0, symName: _FreeHook, symObjAddr: 0x4F30, symBinAddr: 0x100071170, symSize: 0x0 }
  - { offset: 0x2966C, size: 0x8, addend: 0x0, symName: _DynamicBufferIOBuffer, symObjAddr: 0x4F38, symBinAddr: 0x100071178, symSize: 0x0 }
  - { offset: 0x2969A, size: 0x8, addend: 0x0, symName: _VPBufferSize, symObjAddr: 0x4F40, symBinAddr: 0x100071180, symSize: 0x0 }
  - { offset: 0x296C1, size: 0x8, addend: 0x0, symName: __MergedGlobals, symObjAddr: 0x6F48, symBinAddr: 0x1000732D8, symSize: 0x0 }
  - { offset: 0x2980B, size: 0x8, addend: 0x0, symName: _BufferIOBuffer, symObjAddr: 0x4F48, symBinAddr: 0x1000712D8, symSize: 0x0 }
  - { offset: 0x29835, size: 0x8, addend: 0x0, symName: __MergedGlobals, symObjAddr: 0x6F48, symBinAddr: 0x1000732D8, symSize: 0x0 }
  - { offset: 0x298B1, size: 0x8, addend: 0x0, symName: _lprofBufferWriter, symObjAddr: 0x0, symBinAddr: 0x1000128A0, symSize: 0x6C }
  - { offset: 0x299C9, size: 0x8, addend: 0x0, symName: _lprofBufferIOWrite, symObjAddr: 0x100, symBinAddr: 0x10001290C, symSize: 0x134 }
  - { offset: 0x29ACA, size: 0x8, addend: 0x0, symName: _lprofWriteData, symObjAddr: 0x2F4, symBinAddr: 0x100012A40, symSize: 0xD4 }
  - { offset: 0x29AD2, size: 0x8, addend: 0x0, symName: _lprofWriteDataImpl, symObjAddr: 0x3C8, symBinAddr: 0x100012B14, symSize: 0x46C }
  - { offset: 0x29EF8, size: 0x8, addend: 0x0, symName: _lprofWriteDataImpl, symObjAddr: 0x3C8, symBinAddr: 0x100012B14, symSize: 0x46C }
  - { offset: 0x2A222, size: 0x8, addend: 0x0, symName: _writeOneValueProfData, symObjAddr: 0x8C0, symBinAddr: 0x100012F80, symSize: 0x4A8 }
  - { offset: 0x2A4E7, size: 0x8, addend: 0x0, symName: '__ZN108_$LT$alloc..collections..btree..map..Iter$LT$K$C$V$GT$$u20$as$u20$core..iter..traits..iterator..Iterator$GT$4next17h45e1d25cf43a5166E', symObjAddr: 0x0, symBinAddr: 0x100013428, symSize: 0x13C }
  - { offset: 0x2A8FD, size: 0x8, addend: 0x0, symName: '__ZN5alloc11collections5btree4node208Handle$LT$alloc..collections..btree..node..NodeRef$LT$alloc..collections..btree..node..marker..Mut$C$K$C$V$C$alloc..collections..btree..node..marker..Leaf$GT$$C$alloc..collections..btree..node..marker..KV$GT$5split17ha102f583f1ae45bdE', symObjAddr: 0xF314, symBinAddr: 0x10001FFA4, symSize: 0x1C8 }
  - { offset: 0x2ADBB, size: 0x8, addend: 0x0, symName: '__ZN5alloc11collections5btree4node212Handle$LT$alloc..collections..btree..node..NodeRef$LT$alloc..collections..btree..node..marker..Mut$C$K$C$V$C$alloc..collections..btree..node..marker..Internal$GT$$C$alloc..collections..btree..node..marker..KV$GT$5split17he1631b8e3d135de0E', symObjAddr: 0xF950, symBinAddr: 0x10002016C, symSize: 0x294 }
  - { offset: 0x2B4D4, size: 0x8, addend: 0x0, symName: '__ZN5alloc11collections5btree6remove259_$LT$impl$u20$alloc..collections..btree..node..Handle$LT$alloc..collections..btree..node..NodeRef$LT$alloc..collections..btree..node..marker..Mut$C$K$C$V$C$alloc..collections..btree..node..marker..Leaf$GT$$C$alloc..collections..btree..node..marker..KV$GT$$GT$14remove_leaf_kv17h6b3fb6c543c3f14fE', symObjAddr: 0x10904, symBinAddr: 0x100020B84, symSize: 0x59C }
  - { offset: 0x2CB82, size: 0x8, addend: 0x0, symName: '__ZN5alloc11collections5btree4node29BalancingContext$LT$K$C$V$GT$15bulk_steal_left17h116648e9c1058487E', symObjAddr: 0xFBE4, symBinAddr: 0x100020400, symSize: 0x284 }
  - { offset: 0x2D1D7, size: 0x8, addend: 0x0, symName: '__ZN5alloc11collections5btree4node29BalancingContext$LT$K$C$V$GT$16bulk_steal_right17h7dc2c295fb017210E', symObjAddr: 0xFE68, symBinAddr: 0x100020684, symSize: 0x2A8 }
  - { offset: 0x2D90D, size: 0x8, addend: 0x0, symName: '__ZN5alloc11collections5btree4node29BalancingContext$LT$K$C$V$GT$8do_merge17h5a11588cadfa6da9E', symObjAddr: 0x10110, symBinAddr: 0x10002092C, symSize: 0x258 }
  - { offset: 0x2E07C, size: 0x8, addend: 0x0, symName: '__ZN108_$LT$alloc..collections..btree..map..Iter$LT$K$C$V$GT$$u20$as$u20$core..iter..traits..iterator..Iterator$GT$4next17h45e1d25cf43a5166E', symObjAddr: 0x0, symBinAddr: 0x100013428, symSize: 0x13C }
  - { offset: 0x2E40F, size: 0x8, addend: 0x0, symName: '__ZN5alloc11collections5btree3map25BTreeMap$LT$K$C$V$C$A$GT$6insert17h4e30f42673c48afbE', symObjAddr: 0xD8AC, symBinAddr: 0x10001EF58, symSize: 0x9E0 }
  - { offset: 0x2FCF9, size: 0x8, addend: 0x0, symName: '__ZN5alloc11collections5btree3map25IntoIter$LT$K$C$V$C$A$GT$10dying_next17h1d88f957430bad1dE', symObjAddr: 0xECA8, symBinAddr: 0x10001F938, symSize: 0x224 }
  - { offset: 0x300E8, size: 0x8, addend: 0x0, symName: '__ZN5alloc11collections5btree3map25IntoIter$LT$K$C$V$C$A$GT$10dying_next17h50da07c4ee930b47E', symObjAddr: 0xEECC, symBinAddr: 0x10001FB5C, symSize: 0x224 }
  - { offset: 0x304D7, size: 0x8, addend: 0x0, symName: '__ZN5alloc11collections5btree3map25IntoIter$LT$K$C$V$C$A$GT$10dying_next17hfaa5a005d7e39d8eE', symObjAddr: 0xF0F0, symBinAddr: 0x10001FD80, symSize: 0x224 }
  - { offset: 0x31443, size: 0x8, addend: 0x0, symName: '__ZN5alloc7raw_vec19RawVec$LT$T$C$A$GT$8grow_one17h095dc4f4c91ff6b9E', symObjAddr: 0x114B8, symBinAddr: 0x10002150C, symSize: 0xD0 }
  - { offset: 0x31599, size: 0x8, addend: 0x0, symName: '__ZN5alloc7raw_vec19RawVec$LT$T$C$A$GT$8grow_one17h3a19a4ab2b92359dE', symObjAddr: 0x11658, symBinAddr: 0x1000215DC, symSize: 0xC0 }
  - { offset: 0x316EF, size: 0x8, addend: 0x0, symName: '__ZN5alloc7raw_vec19RawVec$LT$T$C$A$GT$8grow_one17h40071feec6bbd372E', symObjAddr: 0x11718, symBinAddr: 0x10002169C, symSize: 0xD0 }
  - { offset: 0x31845, size: 0x8, addend: 0x0, symName: '__ZN5alloc7raw_vec19RawVec$LT$T$C$A$GT$8grow_one17h4a39c02819ac1667E', symObjAddr: 0x117E8, symBinAddr: 0x10002176C, symSize: 0xD0 }
  - { offset: 0x3199B, size: 0x8, addend: 0x0, symName: '__ZN5alloc7raw_vec19RawVec$LT$T$C$A$GT$8grow_one17h4a92fc1fe476e477E', symObjAddr: 0x118B8, symBinAddr: 0x10002183C, symSize: 0xC0 }
  - { offset: 0x31AF1, size: 0x8, addend: 0x0, symName: '__ZN5alloc7raw_vec19RawVec$LT$T$C$A$GT$8grow_one17h4fe34a41a9b5eb13E', symObjAddr: 0x11978, symBinAddr: 0x1000218FC, symSize: 0xC0 }
  - { offset: 0x31C47, size: 0x8, addend: 0x0, symName: '__ZN5alloc7raw_vec19RawVec$LT$T$C$A$GT$8grow_one17h51ebdaf7922ccb0fE', symObjAddr: 0x11A38, symBinAddr: 0x1000219BC, symSize: 0xD0 }
  - { offset: 0x31D9D, size: 0x8, addend: 0x0, symName: '__ZN5alloc7raw_vec19RawVec$LT$T$C$A$GT$8grow_one17h5fa1addd75b9c473E', symObjAddr: 0x11B08, symBinAddr: 0x100021A8C, symSize: 0xC0 }
  - { offset: 0x31EF3, size: 0x8, addend: 0x0, symName: '__ZN5alloc7raw_vec19RawVec$LT$T$C$A$GT$8grow_one17h86dfd012ac0923eeE', symObjAddr: 0x11BC8, symBinAddr: 0x100021B4C, symSize: 0xCC }
  - { offset: 0x32049, size: 0x8, addend: 0x0, symName: '__ZN5alloc7raw_vec19RawVec$LT$T$C$A$GT$8grow_one17h94e52b7d38af74feE', symObjAddr: 0x11C94, symBinAddr: 0x100021C18, symSize: 0xCC }
  - { offset: 0x3219F, size: 0x8, addend: 0x0, symName: '__ZN5alloc7raw_vec19RawVec$LT$T$C$A$GT$8grow_one17hbaffb1ea2421dae5E', symObjAddr: 0x11D60, symBinAddr: 0x100021CE4, symSize: 0xCC }
  - { offset: 0x32A71, size: 0x8, addend: 0x0, symName: __ZN5alloc7raw_vec11finish_grow17hd37f20dcfa74548bE, symObjAddr: 0x11430, symBinAddr: 0x10004EC2C, symSize: 0x88 }
  - { offset: 0x32B0C, size: 0x8, addend: 0x0, symName: '__ZN5alloc7raw_vec20RawVecInner$LT$A$GT$7reserve21do_reserve_and_handle17h59c9ec03f2a10329E', symObjAddr: 0x11E2C, symBinAddr: 0x10004ECB4, symSize: 0xF0 }
  - { offset: 0x341D4, size: 0x8, addend: 0x0, symName: '__ZN5alloc4sync16Arc$LT$T$C$A$GT$9drop_slow17h382cff577ce4ab40E', symObjAddr: 0x10FD0, symBinAddr: 0x100021120, symSize: 0x100 }
  - { offset: 0x34504, size: 0x8, addend: 0x0, symName: '__ZN5alloc4sync16Arc$LT$T$C$A$GT$9drop_slow17h5608352b196d8cb3E', symObjAddr: 0x110D0, symBinAddr: 0x100021220, symSize: 0xA0 }
  - { offset: 0x34828, size: 0x8, addend: 0x0, symName: '__ZN5alloc4sync16Arc$LT$T$C$A$GT$9drop_slow17h5ede859a095ca78aE', symObjAddr: 0x111E4, symBinAddr: 0x1000212C0, symSize: 0x78 }
  - { offset: 0x349F4, size: 0x8, addend: 0x0, symName: '__ZN5alloc4sync16Arc$LT$T$C$A$GT$9drop_slow17h7cf1d5f987884bcfE', symObjAddr: 0x1125C, symBinAddr: 0x100021338, symSize: 0xC0 }
  - { offset: 0x34D19, size: 0x8, addend: 0x0, symName: '__ZN5alloc4sync16Arc$LT$T$C$A$GT$9drop_slow17h90e2e762cfbfaa1eE', symObjAddr: 0x1131C, symBinAddr: 0x1000213F8, symSize: 0x44 }
  - { offset: 0x34DF6, size: 0x8, addend: 0x0, symName: '__ZN5alloc4sync16Arc$LT$T$C$A$GT$9drop_slow17h9659d3e2cd59fce8E', symObjAddr: 0x11360, symBinAddr: 0x10002143C, symSize: 0xD0 }
  - { offset: 0x3536C, size: 0x8, addend: 0x0, symName: '__ZN64_$LT$alloc..ffi..c_str..NulError$u20$as$u20$core..fmt..Debug$GT$3fmt17h18ce3d950e35fa91E', symObjAddr: 0x18D64, symBinAddr: 0x100028BF8, symSize: 0x4C }
  - { offset: 0x35845, size: 0x8, addend: 0x0, symName: '__ZN58_$LT$alloc..string..String$u20$as$u20$core..fmt..Debug$GT$3fmt17hdbacb71d50eff926E', symObjAddr: 0xD6B8, symBinAddr: 0x10001ED64, symSize: 0x1C }
  - { offset: 0x35900, size: 0x8, addend: 0x0, symName: '__ZN58_$LT$alloc..string..String$u20$as$u20$core..fmt..Write$GT$10write_char17h67c485e816708459E', symObjAddr: 0xD6D4, symBinAddr: 0x10001ED80, symSize: 0x158 }
  - { offset: 0x35B65, size: 0x8, addend: 0x0, symName: '__ZN58_$LT$alloc..string..String$u20$as$u20$core..fmt..Write$GT$9write_str17h4bc2793cacc1d696E', symObjAddr: 0xD82C, symBinAddr: 0x10001EED8, symSize: 0x80 }
  - { offset: 0x35CBE, size: 0x8, addend: 0x0, symName: '__ZN60_$LT$alloc..string..String$u20$as$u20$core..fmt..Display$GT$3fmt17ha0099383a97e68c2E', symObjAddr: 0x18D48, symBinAddr: 0x100028BDC, symSize: 0x1C }
  - { offset: 0x37505, size: 0x8, addend: 0x0, symName: '__ZN4core3ptr107drop_in_place$LT$alloc..vec..Vec$LT$$LP$std..ffi..os_str..OsString$C$std..ffi..os_str..OsString$RP$$GT$$GT$17h6612d33457a8ea03E', symObjAddr: 0x1AE4, symBinAddr: 0x100014104, symSize: 0x94 }
  - { offset: 0x3778C, size: 0x8, addend: 0x0, symName: '__ZN4core3ptr107drop_in_place$LT$core..option..Option$LT$std..sys..pal..unix..process..process_common..CStringArray$GT$$GT$17hf3f42dd5b05d3cc1E', symObjAddr: 0x1C04, symBinAddr: 0x100014198, symSize: 0xAC }
  - { offset: 0x3799D, size: 0x8, addend: 0x0, symName: '__ZN4core3ptr107drop_in_place$LT$core..pin..Pin$LT$alloc..boxed..Box$LT$std..sys..pal..unix..sync..mutex..Mutex$GT$$GT$$GT$17hc07c140671e79445E', symObjAddr: 0x1CB0, symBinAddr: 0x100014244, symSize: 0x2C }
  - { offset: 0x37A96, size: 0x8, addend: 0x0, symName: '__ZN4core3ptr108drop_in_place$LT$alloc..collections..btree..map..BTreeMap$LT$u64$C$gimli..read..abbrev..Abbreviation$GT$$GT$17haa74a0211d9ed923E', symObjAddr: 0x1CDC, symBinAddr: 0x100014270, symSize: 0xB0 }
  - { offset: 0x37C69, size: 0x8, addend: 0x0, symName: '__ZN4core3ptr109drop_in_place$LT$alloc..sync..Arc$LT$std..sync..poison..mutex..Mutex$LT$alloc..vec..Vec$LT$u8$GT$$GT$$GT$$GT$17h61b1cac8a1fede90E', symObjAddr: 0x1D8C, symBinAddr: 0x100014320, symSize: 0x30 }
  - { offset: 0x37D0C, size: 0x8, addend: 0x0, symName: '__ZN4core3ptr118drop_in_place$LT$std..io..Write..write_fmt..Adapter$LT$std..io..cursor..Cursor$LT$$RF$mut$u20$$u5b$u8$u5d$$GT$$GT$$GT$17h5c63d0c0bee45058E', symObjAddr: 0x1E54, symBinAddr: 0x100014350, symSize: 0x20 }
  - { offset: 0x37D44, size: 0x8, addend: 0x0, symName: '__ZN4core3ptr123drop_in_place$LT$addr2line..Context$LT$gimli..read..endian_slice..EndianSlice$LT$gimli..endianity..LittleEndian$GT$$GT$$GT$17hc6d5be859abd218dE', symObjAddr: 0x1E74, symBinAddr: 0x100014370, symSize: 0x70 }
  - { offset: 0x37E19, size: 0x8, addend: 0x0, symName: '__ZN4core3ptr124drop_in_place$LT$alloc..collections..btree..map..BTreeMap$LT$std..ffi..os_str..OsString$C$std..ffi..os_str..OsString$GT$$GT$17hc9840ba1a16bc149E', symObjAddr: 0x1EE4, symBinAddr: 0x1000143E0, symSize: 0xB8 }
  - { offset: 0x3804C, size: 0x8, addend: 0x0, symName: '__ZN4core3ptr124drop_in_place$LT$alloc..collections..btree..map..IntoIter$LT$std..ffi..os_str..OsString$C$std..ffi..os_str..OsString$GT$$GT$17h1e45a95309140dfeE', symObjAddr: 0x1F9C, symBinAddr: 0x100014498, symSize: 0x90 }
  - { offset: 0x382D3, size: 0x8, addend: 0x0, symName: '__ZN4core3ptr129drop_in_place$LT$addr2line..unit..ResUnit$LT$gimli..read..endian_slice..EndianSlice$LT$gimli..endianity..LittleEndian$GT$$GT$$GT$17h3200663a94d9b140E', symObjAddr: 0x202C, symBinAddr: 0x100014528, symSize: 0xE4 }
  - { offset: 0x384F5, size: 0x8, addend: 0x0, symName: '__ZN4core3ptr129drop_in_place$LT$addr2line..unit..SupUnit$LT$gimli..read..endian_slice..EndianSlice$LT$gimli..endianity..LittleEndian$GT$$GT$$GT$17hea048140b03f01afE', symObjAddr: 0x2110, symBinAddr: 0x10001460C, symSize: 0x54 }
  - { offset: 0x385D0, size: 0x8, addend: 0x0, symName: '__ZN4core3ptr130drop_in_place$LT$addr2line..unit..ResUnits$LT$gimli..read..endian_slice..EndianSlice$LT$gimli..endianity..LittleEndian$GT$$GT$$GT$17he56c193886414dbaE', symObjAddr: 0x2164, symBinAddr: 0x100014660, symSize: 0xD0 }
  - { offset: 0x38779, size: 0x8, addend: 0x0, symName: '__ZN4core3ptr130drop_in_place$LT$addr2line..unit..SupUnits$LT$gimli..read..endian_slice..EndianSlice$LT$gimli..endianity..LittleEndian$GT$$GT$$GT$17h74d4d2bc946c0774E', symObjAddr: 0x2234, symBinAddr: 0x100014730, symSize: 0xE4 }
  - { offset: 0x38937, size: 0x8, addend: 0x0, symName: '__ZN4core3ptr130drop_in_place$LT$gimli..read..dwarf..Dwarf$LT$gimli..read..endian_slice..EndianSlice$LT$gimli..endianity..LittleEndian$GT$$GT$$GT$17h733659cc5e33a4cbE', symObjAddr: 0x2318, symBinAddr: 0x100014814, symSize: 0x58 }
  - { offset: 0x38A05, size: 0x8, addend: 0x0, symName: '__ZN4core3ptr131drop_in_place$LT$$u5b$core..option..Option$LT$core..option..Option$LT$std..backtrace_rs..symbolize..gimli..Mapping$GT$$GT$$u5d$$GT$17h1b55ae3732cae68aE', symObjAddr: 0x2370, symBinAddr: 0x10001486C, symSize: 0xCC }
  - { offset: 0x38AAF, size: 0x8, addend: 0x0, symName: '__ZN4core3ptr137drop_in_place$LT$gimli..read..dwarf..Unit$LT$gimli..read..endian_slice..EndianSlice$LT$gimli..endianity..LittleEndian$GT$$C$usize$GT$$GT$17h90351d6bab11b82cE', symObjAddr: 0x2500, symBinAddr: 0x100014938, symSize: 0x54 }
  - { offset: 0x38BAC, size: 0x8, addend: 0x0, symName: '__ZN4core3ptr138drop_in_place$LT$addr2line..function..LazyFunction$LT$gimli..read..endian_slice..EndianSlice$LT$gimli..endianity..LittleEndian$GT$$GT$$GT$17h0f9458c797bd90e9E', symObjAddr: 0x2554, symBinAddr: 0x10001498C, symSize: 0x64 }
  - { offset: 0x38BC3, size: 0x8, addend: 0x0, symName: '__ZN4core3ptr138drop_in_place$LT$addr2line..function..LazyFunction$LT$gimli..read..endian_slice..EndianSlice$LT$gimli..endianity..LittleEndian$GT$$GT$$GT$17h0f9458c797bd90e9E', symObjAddr: 0x2554, symBinAddr: 0x10001498C, symSize: 0x64 }
  - { offset: 0x38BD8, size: 0x8, addend: 0x0, symName: '__ZN4core3ptr138drop_in_place$LT$addr2line..function..LazyFunction$LT$gimli..read..endian_slice..EndianSlice$LT$gimli..endianity..LittleEndian$GT$$GT$$GT$17h0f9458c797bd90e9E', symObjAddr: 0x2554, symBinAddr: 0x10001498C, symSize: 0x64 }
  - { offset: 0x38BED, size: 0x8, addend: 0x0, symName: '__ZN4core3ptr138drop_in_place$LT$addr2line..function..LazyFunction$LT$gimli..read..endian_slice..EndianSlice$LT$gimli..endianity..LittleEndian$GT$$GT$$GT$17h0f9458c797bd90e9E', symObjAddr: 0x2554, symBinAddr: 0x10001498C, symSize: 0x64 }
  - { offset: 0x38D2F, size: 0x8, addend: 0x0, symName: '__ZN4core3ptr144drop_in_place$LT$alloc..vec..Vec$LT$core..option..Option$LT$core..option..Option$LT$std..backtrace_rs..symbolize..gimli..Mapping$GT$$GT$$GT$$GT$17hd5b41028903956eeE', symObjAddr: 0x25B8, symBinAddr: 0x1000149F0, symSize: 0x78 }
  - { offset: 0x38E97, size: 0x8, addend: 0x0, symName: '__ZN4core3ptr152drop_in_place$LT$alloc..vec..Vec$LT$addr2line..unit..ResUnit$LT$gimli..read..endian_slice..EndianSlice$LT$gimli..endianity..LittleEndian$GT$$GT$$GT$$GT$17hdd35552c1680b2ebE', symObjAddr: 0x26FC, symBinAddr: 0x100014A68, symSize: 0xC4 }
  - { offset: 0x39006, size: 0x8, addend: 0x0, symName: '__ZN4core3ptr152drop_in_place$LT$alloc..vec..Vec$LT$addr2line..unit..SupUnit$LT$gimli..read..endian_slice..EndianSlice$LT$gimli..endianity..LittleEndian$GT$$GT$$GT$$GT$17h6431a2f92897bef0E', symObjAddr: 0x27C0, symBinAddr: 0x100014B2C, symSize: 0xF4 }
  - { offset: 0x3921E, size: 0x8, addend: 0x0, symName: '__ZN4core3ptr156drop_in_place$LT$alloc..boxed..Box$LT$$u5b$core..option..Option$LT$core..option..Option$LT$std..backtrace_rs..symbolize..gimli..Mapping$GT$$GT$$u5d$$GT$$GT$17h61627ecd782bd92dE', symObjAddr: 0x28B4, symBinAddr: 0x100014C20, symSize: 0xF8 }
  - { offset: 0x39348, size: 0x8, addend: 0x0, symName: '__ZN4core3ptr159drop_in_place$LT$alloc..sync..ArcInner$LT$gimli..read..dwarf..Dwarf$LT$gimli..read..endian_slice..EndianSlice$LT$gimli..endianity..LittleEndian$GT$$GT$$GT$$GT$17h71c073e2ea863d36E', symObjAddr: 0x29AC, symBinAddr: 0x100014D18, symSize: 0x58 }
  - { offset: 0x39425, size: 0x8, addend: 0x0, symName: '__ZN4core3ptr161drop_in_place$LT$alloc..vec..Vec$LT$addr2line..function..LazyFunction$LT$gimli..read..endian_slice..EndianSlice$LT$gimli..endianity..LittleEndian$GT$$GT$$GT$$GT$17h938f97b5a308fc3cE', symObjAddr: 0x2A04, symBinAddr: 0x100014D70, symSize: 0xAC }
  - { offset: 0x39662, size: 0x8, addend: 0x0, symName: '__ZN4core3ptr172drop_in_place$LT$core..result..Result$LT$addr2line..Context$LT$gimli..read..endian_slice..EndianSlice$LT$gimli..endianity..LittleEndian$GT$$GT$$C$gimli..read..Error$GT$$GT$17h8205db00afecd676E', symObjAddr: 0x2B5C, symBinAddr: 0x100014E1C, symSize: 0x80 }
  - { offset: 0x396F7, size: 0x8, addend: 0x0, symName: '__ZN4core3ptr173drop_in_place$LT$alloc..boxed..Box$LT$$u5b$addr2line..function..LazyFunction$LT$gimli..read..endian_slice..EndianSlice$LT$gimli..endianity..LittleEndian$GT$$GT$$u5d$$GT$$GT$17h141b901e37828fa3E', symObjAddr: 0x2BDC, symBinAddr: 0x100014E9C, symSize: 0x9C }
  - { offset: 0x3970E, size: 0x8, addend: 0x0, symName: '__ZN4core3ptr173drop_in_place$LT$alloc..boxed..Box$LT$$u5b$addr2line..function..LazyFunction$LT$gimli..read..endian_slice..EndianSlice$LT$gimli..endianity..LittleEndian$GT$$GT$$u5d$$GT$$GT$17h141b901e37828fa3E', symObjAddr: 0x2BDC, symBinAddr: 0x100014E9C, symSize: 0x9C }
  - { offset: 0x39953, size: 0x8, addend: 0x0, symName: '__ZN4core3ptr181drop_in_place$LT$core..option..Option$LT$gimli..read..line..IncompleteLineProgram$LT$gimli..read..endian_slice..EndianSlice$LT$gimli..endianity..LittleEndian$GT$$C$usize$GT$$GT$$GT$17h0ce7bfce5e4abb6bE', symObjAddr: 0x2CE8, symBinAddr: 0x100014F38, symSize: 0x98 }
  - { offset: 0x39C0E, size: 0x8, addend: 0x0, symName: '__ZN4core3ptr181drop_in_place$LT$core..result..Result$LT$addr2line..frame..FrameIter$LT$gimli..read..endian_slice..EndianSlice$LT$gimli..endianity..LittleEndian$GT$$GT$$C$gimli..read..Error$GT$$GT$17hc32763af75cf70e4E', symObjAddr: 0x2D80, symBinAddr: 0x100014FD0, symSize: 0x44 }
  - { offset: 0x39D4C, size: 0x8, addend: 0x0, symName: '__ZN4core3ptr184drop_in_place$LT$core..result..Result$LT$addr2line..function..Functions$LT$gimli..read..endian_slice..EndianSlice$LT$gimli..endianity..LittleEndian$GT$$GT$$C$gimli..read..Error$GT$$GT$17hae974801a783d12aE', symObjAddr: 0x2DC4, symBinAddr: 0x100015014, symSize: 0xD8 }
  - { offset: 0x3A845, size: 0x8, addend: 0x0, symName: '__ZN4core3ptr223drop_in_place$LT$std..sys..thread_local..native..lazy..State$LT$core..cell..Cell$LT$core..option..Option$LT$alloc..sync..Arc$LT$std..sync..poison..mutex..Mutex$LT$alloc..vec..Vec$LT$u8$GT$$GT$$GT$$GT$$GT$$C$$LP$$RP$$GT$$GT$17h8e1dbbdc8aa6e2b2E', symObjAddr: 0x2F10, symBinAddr: 0x1000150EC, symSize: 0x40 }
  - { offset: 0x3A931, size: 0x8, addend: 0x0, symName: '__ZN4core3ptr231drop_in_place$LT$core..result..Result$LT$core..option..Option$LT$alloc..boxed..Box$LT$addr2line..unit..DwoUnit$LT$gimli..read..endian_slice..EndianSlice$LT$gimli..endianity..LittleEndian$GT$$GT$$GT$$GT$$C$gimli..read..Error$GT$$GT$17h48abe14940fae1d7E', symObjAddr: 0x2F50, symBinAddr: 0x10001512C, symSize: 0xD4 }
  - { offset: 0x3AB1A, size: 0x8, addend: 0x0, symName: '__ZN4core3ptr275drop_in_place$LT$gimli..read..line..LineRows$LT$gimli..read..endian_slice..EndianSlice$LT$gimli..endianity..LittleEndian$GT$$C$gimli..read..line..IncompleteLineProgram$LT$gimli..read..endian_slice..EndianSlice$LT$gimli..endianity..LittleEndian$GT$$C$usize$GT$$C$usize$GT$$GT$17h1fb49ddc3575d792E', symObjAddr: 0x304C, symBinAddr: 0x100015200, symSize: 0x8C }
  - { offset: 0x3AD8F, size: 0x8, addend: 0x0, symName: '__ZN4core3ptr280drop_in_place$LT$$LT$alloc..collections..btree..map..IntoIter$LT$K$C$V$C$A$GT$$u20$as$u20$core..ops..drop..Drop$GT$..drop..DropGuard$LT$u64$C$core..result..Result$LT$alloc..sync..Arc$LT$gimli..read..abbrev..Abbreviations$GT$$C$gimli..read..Error$GT$$C$alloc..alloc..Global$GT$$GT$17h412edb4cf40f508aE', symObjAddr: 0x30D8, symBinAddr: 0x10001528C, symSize: 0x84 }
  - { offset: 0x3AF32, size: 0x8, addend: 0x0, symName: '__ZN4core3ptr37drop_in_place$LT$std..env..VarsOs$GT$17h8833fb9321bef3f6E', symObjAddr: 0x315C, symBinAddr: 0x100015310, symSize: 0xAC }
  - { offset: 0x3B231, size: 0x8, addend: 0x0, symName: '__ZN4core3ptr42drop_in_place$LT$alloc..string..String$GT$17h49e49416d7fc736bE', symObjAddr: 0x3330, symBinAddr: 0x1000153BC, symSize: 0x28 }
  - { offset: 0x3B30C, size: 0x8, addend: 0x0, symName: '__ZN4core3ptr42drop_in_place$LT$std..io..error..Error$GT$17h2076e24185186a1eE', symObjAddr: 0x3358, symBinAddr: 0x1000153E4, symSize: 0xAC }
  - { offset: 0x3B526, size: 0x8, addend: 0x0, symName: '__ZN4core3ptr44drop_in_place$LT$object..read..ObjectMap$GT$17hefa7b8970618855fE', symObjAddr: 0x3404, symBinAddr: 0x100015490, symSize: 0x58 }
  - { offset: 0x3B655, size: 0x8, addend: 0x0, symName: '__ZN4core3ptr46drop_in_place$LT$alloc..vec..Vec$LT$u8$GT$$GT$17he05f3434a0e55321E', symObjAddr: 0x350C, symBinAddr: 0x1000154E8, symSize: 0x28 }
  - { offset: 0x3B6E2, size: 0x8, addend: 0x0, symName: '__ZN4core3ptr46drop_in_place$LT$std..io..stdio..StdinLock$GT$17h7f23f0068af34be6E', symObjAddr: 0x3534, symBinAddr: 0x100015510, symSize: 0x54 }
  - { offset: 0x3B6F9, size: 0x8, addend: 0x0, symName: '__ZN4core3ptr46drop_in_place$LT$std..io..stdio..StdinLock$GT$17h7f23f0068af34be6E', symObjAddr: 0x3534, symBinAddr: 0x100015510, symSize: 0x54 }
  - { offset: 0x3B70E, size: 0x8, addend: 0x0, symName: '__ZN4core3ptr46drop_in_place$LT$std..io..stdio..StdinLock$GT$17h7f23f0068af34be6E', symObjAddr: 0x3534, symBinAddr: 0x100015510, symSize: 0x54 }
  - { offset: 0x3B7F2, size: 0x8, addend: 0x0, symName: '__ZN4core3ptr48drop_in_place$LT$alloc..ffi..c_str..NulError$GT$17hf807e8c3d992613aE', symObjAddr: 0x35E0, symBinAddr: 0x100015564, symSize: 0x28 }
  - { offset: 0x3B8B1, size: 0x8, addend: 0x0, symName: '__ZN4core3ptr55drop_in_place$LT$gimli..read..abbrev..Abbreviations$GT$17h5028fd7f23a66a5dE', symObjAddr: 0x38D4, symBinAddr: 0x10001558C, symSize: 0x84 }
  - { offset: 0x3BA6C, size: 0x8, addend: 0x0, symName: '__ZN4core3ptr60drop_in_place$LT$gimli..read..abbrev..AbbreviationsCache$GT$17h109635aebb38ad94E', symObjAddr: 0x39E8, symBinAddr: 0x100015610, symSize: 0xCC }
  - { offset: 0x3BC2E, size: 0x8, addend: 0x0, symName: '__ZN4core3ptr62drop_in_place$LT$std..sys..sync..rwlock..queue..PanicGuard$GT$17ha6ff6fed8f58b75aE', symObjAddr: 0x3AB4, symBinAddr: 0x1000156DC, symSize: 0x44 }
  - { offset: 0x3BC75, size: 0x8, addend: 0x0, symName: '__ZN4core3ptr64drop_in_place$LT$std..sys..pal..unix..sync..mutex..AttrGuard$GT$17hfae1c338ebc17455E', symObjAddr: 0x3AF8, symBinAddr: 0x100015720, symSize: 0x48 }
  - { offset: 0x3BCB4, size: 0x8, addend: 0x0, symName: '__ZN4core3ptr65drop_in_place$LT$alloc..vec..Vec$LT$alloc..string..String$GT$$GT$17h0e8d3320a68b6c20E', symObjAddr: 0x3B40, symBinAddr: 0x100015768, symSize: 0x80 }
  - { offset: 0x3BE52, size: 0x8, addend: 0x0, symName: '__ZN4core3ptr65drop_in_place$LT$std..backtrace_rs..symbolize..gimli..Context$GT$17he1a9681aa2b789c5E', symObjAddr: 0x3BC0, symBinAddr: 0x1000157E8, symSize: 0xE8 }
  - { offset: 0x3C0E4, size: 0x8, addend: 0x0, symName: '__ZN4core3ptr65drop_in_place$LT$std..backtrace_rs..symbolize..gimli..Mapping$GT$17h1ad26fdf3d4d883aE', symObjAddr: 0x3CA8, symBinAddr: 0x1000158D0, symSize: 0x50 }
  - { offset: 0x3C14F, size: 0x8, addend: 0x0, symName: '__ZN4core3ptr66drop_in_place$LT$std..backtrace_rs..backtrace..libunwind..Bomb$GT$17hcf55bbc6e2408f91E', symObjAddr: 0x3D50, symBinAddr: 0x100015920, symSize: 0x40 }
  - { offset: 0x3C18D, size: 0x8, addend: 0x0, symName: '__ZN4core3ptr70drop_in_place$LT$alloc..vec..Vec$LT$alloc..ffi..c_str..CString$GT$$GT$17hfd0a4040cac87084E', symObjAddr: 0x3D90, symBinAddr: 0x100015960, symSize: 0x7C }
  - { offset: 0x3C340, size: 0x8, addend: 0x0, symName: '__ZN4core3ptr70drop_in_place$LT$std..backtrace_rs..symbolize..gimli..stash..Stash$GT$17h823b9ed5294710a1E', symObjAddr: 0x3E8C, symBinAddr: 0x1000159DC, symSize: 0xB8 }
  - { offset: 0x3C5E6, size: 0x8, addend: 0x0, symName: '__ZN4core3ptr71drop_in_place$LT$std..backtrace_rs..symbolize..gimli..macho..Object$GT$17h7d766a5d50e6fcdbE', symObjAddr: 0x3F44, symBinAddr: 0x100015A94, symSize: 0xD8 }
  - { offset: 0x3C8B9, size: 0x8, addend: 0x0, symName: '__ZN4core3ptr72drop_in_place$LT$core..option..Option$LT$object..read..ObjectMap$GT$$GT$17hc34cda9cf8984625E', symObjAddr: 0x4088, symBinAddr: 0x100015B6C, symSize: 0x64 }
  - { offset: 0x3CA36, size: 0x8, addend: 0x0, symName: '__ZN4core3ptr73drop_in_place$LT$alloc..vec..Vec$LT$addr2line..line..LineSequence$GT$$GT$17h0feaef6467c5bb06E', symObjAddr: 0x40EC, symBinAddr: 0x100015BD0, symSize: 0x84 }
  - { offset: 0x3CB8E, size: 0x8, addend: 0x0, symName: '__ZN4core3ptr77drop_in_place$LT$alloc..boxed..Box$LT$$u5b$alloc..string..String$u5d$$GT$$GT$17h8657c1556d878703E', symObjAddr: 0x41C8, symBinAddr: 0x100015C54, symSize: 0x70 }
  - { offset: 0x3CBA5, size: 0x8, addend: 0x0, symName: '__ZN4core3ptr77drop_in_place$LT$alloc..boxed..Box$LT$$u5b$alloc..string..String$u5d$$GT$$GT$17h8657c1556d878703E', symObjAddr: 0x41C8, symBinAddr: 0x100015C54, symSize: 0x70 }
  - { offset: 0x3CCB1, size: 0x8, addend: 0x0, symName: '__ZN4core3ptr77drop_in_place$LT$std..panicking..begin_panic_handler..FormatStringPayload$GT$17h1141e34cc3e1cd8cE', symObjAddr: 0x4238, symBinAddr: 0x100015CC4, symSize: 0x34 }
  - { offset: 0x3CD7B, size: 0x8, addend: 0x0, symName: '__ZN4core3ptr77drop_in_place$LT$std..sys..pal..unix..process..process_common..ChildPipes$GT$17h620614c70ca5ad33E', symObjAddr: 0x426C, symBinAddr: 0x100015CF8, symSize: 0x78 }
  - { offset: 0x3CE8B, size: 0x8, addend: 0x0, symName: '__ZN4core3ptr77drop_in_place$LT$std..sys..pal..unix..process..process_common..StdioPipes$GT$17ha094cdbd3e642bc1E', symObjAddr: 0x42E4, symBinAddr: 0x100015D70, symSize: 0x54 }
  - { offset: 0x3CFE7, size: 0x8, addend: 0x0, symName: '__ZN4core3ptr78drop_in_place$LT$core..result..Result$LT$usize$C$std..io..error..Error$GT$$GT$17h31f04dfac34de6cfE', symObjAddr: 0x4338, symBinAddr: 0x100015DC4, symSize: 0x24 }
  - { offset: 0x3CFFB, size: 0x8, addend: 0x0, symName: '__ZN4core3ptr79drop_in_place$LT$std..sync..poison..rwlock..RwLockReadGuard$LT$$LP$$RP$$GT$$GT$17h3c7acdfaefb6864dE', symObjAddr: 0x435C, symBinAddr: 0x100015DE8, symSize: 0x68 }
  - { offset: 0x3D097, size: 0x8, addend: 0x0, symName: '__ZN4core3ptr79drop_in_place$LT$std..sys..pal..unix..process..process_common..CStringArray$GT$17h6aeb88f15641d3f5E', symObjAddr: 0x43C4, symBinAddr: 0x100015E50, symSize: 0x94 }
  - { offset: 0x3D276, size: 0x8, addend: 0x0, symName: '__ZN4core3ptr81drop_in_place$LT$$LP$usize$C$std..backtrace_rs..symbolize..gimli..Mapping$RP$$GT$17h0fc60d1e178e2af3E', symObjAddr: 0x4458, symBinAddr: 0x100015EE4, symSize: 0x54 }
  - { offset: 0x3D2F7, size: 0x8, addend: 0x0, symName: '__ZN4core3ptr81drop_in_place$LT$core..result..Result$LT$$LP$$RP$$C$std..io..error..Error$GT$$GT$17h32d66e7d6b4290f9E', symObjAddr: 0x44AC, symBinAddr: 0x100015F38, symSize: 0x20 }
  - { offset: 0x3D30B, size: 0x8, addend: 0x0, symName: '__ZN4core3ptr84drop_in_place$LT$$LP$std..ffi..os_str..OsString$C$std..ffi..os_str..OsString$RP$$GT$17hce73656bd67f13b5E', symObjAddr: 0x4510, symBinAddr: 0x100015F58, symSize: 0x4C }
  - { offset: 0x3D466, size: 0x8, addend: 0x0, symName: '__ZN4core3ptr84drop_in_place$LT$alloc..sync..ArcInner$LT$gimli..read..abbrev..Abbreviations$GT$$GT$17hc1742a6ee5f4f5c4E', symObjAddr: 0x455C, symBinAddr: 0x100015FA4, symSize: 0x84 }
  - { offset: 0x3D630, size: 0x8, addend: 0x0, symName: '__ZN4core3ptr87drop_in_place$LT$alloc..sync..ArcInner$LT$std..sys..pal..unix..fs..InnerReadDir$GT$$GT$17h22f7f5fc9c3aa8bdE', symObjAddr: 0x45E0, symBinAddr: 0x100016028, symSize: 0x60 }
  - { offset: 0x3D819, size: 0x8, addend: 0x0, symName: '__ZN4core3ptr88drop_in_place$LT$alloc..vec..Vec$LT$std..backtrace_rs..symbolize..gimli..Library$GT$$GT$17heda6be67225cff8cE', symObjAddr: 0x4674, symBinAddr: 0x100016088, symSize: 0x98 }
  - { offset: 0x3DA2F, size: 0x8, addend: 0x0, symName: '__ZN4core3ptr90drop_in_place$LT$std..io..buffered..bufwriter..BufWriter$LT$W$GT$..flush_buf..BufGuard$GT$17h18eab3e558793eacE', symObjAddr: 0x470C, symBinAddr: 0x100016120, symSize: 0x60 }
  - { offset: 0x3DBF0, size: 0x8, addend: 0x0, symName: '__ZN4core3ptr92drop_in_place$LT$core..result..Result$LT$addr2line..line..Lines$C$gimli..read..Error$GT$$GT$17h75873180c89d56d0E', symObjAddr: 0x47E8, symBinAddr: 0x100016180, symSize: 0xE4 }
  - { offset: 0x3DE36, size: 0x8, addend: 0x0, symName: '__ZN4core3ptr93drop_in_place$LT$core..option..Option$LT$std..backtrace_rs..symbolize..gimli..Mapping$GT$$GT$17h8ea9f8655928f4fcE', symObjAddr: 0x48CC, symBinAddr: 0x100016264, symSize: 0x6C }
  - { offset: 0x3DED3, size: 0x8, addend: 0x0, symName: '__ZN4core3ptr95drop_in_place$LT$core..option..IntoIter$LT$std..backtrace_rs..symbolize..gimli..Library$GT$$GT$17he46fad7f279ea952E', symObjAddr: 0x4938, symBinAddr: 0x1000162D0, symSize: 0x5C }
  - { offset: 0x3DEF1, size: 0x8, addend: 0x0, symName: '__ZN4core3ptr95drop_in_place$LT$core..option..IntoIter$LT$std..backtrace_rs..symbolize..gimli..Library$GT$$GT$17he46fad7f279ea952E', symObjAddr: 0x4938, symBinAddr: 0x1000162D0, symSize: 0x5C }
  - { offset: 0x3DF06, size: 0x8, addend: 0x0, symName: '__ZN4core3ptr95drop_in_place$LT$core..option..IntoIter$LT$std..backtrace_rs..symbolize..gimli..Library$GT$$GT$17he46fad7f279ea952E', symObjAddr: 0x4938, symBinAddr: 0x1000162D0, symSize: 0x5C }
  - { offset: 0x3E06F, size: 0x8, addend: 0x0, symName: '__ZN4core3ptr95drop_in_place$LT$std..io..buffered..linewriter..LineWriter$LT$std..io..stdio..StdoutRaw$GT$$GT$17h3bd57fa990556d59E', symObjAddr: 0x4994, symBinAddr: 0x10001632C, symSize: 0xF0 }
  - { offset: 0x40C24, size: 0x8, addend: 0x0, symName: __ZN4core5slice4sort6shared5pivot11median3_rec17h025645fbfb2d8cd1E, symObjAddr: 0x4D90, symBinAddr: 0x10001652C, symSize: 0x134 }
  - { offset: 0x40E4B, size: 0x8, addend: 0x0, symName: __ZN4core5slice4sort6shared5pivot11median3_rec17h246a4f2d911688a1E, symObjAddr: 0x4EC4, symBinAddr: 0x100016660, symSize: 0xD0 }
  - { offset: 0x40F46, size: 0x8, addend: 0x0, symName: __ZN4core5slice4sort6shared5pivot11median3_rec17h6ce4cdb71517d19eE, symObjAddr: 0x4F94, symBinAddr: 0x100016730, symSize: 0xCC }
  - { offset: 0x41041, size: 0x8, addend: 0x0, symName: __ZN4core5slice4sort6shared5pivot11median3_rec17h6e4fd85017a3f5e4E, symObjAddr: 0x5060, symBinAddr: 0x1000167FC, symSize: 0xD0 }
  - { offset: 0x4113C, size: 0x8, addend: 0x0, symName: __ZN4core5slice4sort6shared5pivot11median3_rec17ha3c898ebd570d9a9E, symObjAddr: 0x5130, symBinAddr: 0x1000168CC, symSize: 0xCC }
  - { offset: 0x4128D, size: 0x8, addend: 0x0, symName: __ZN4core5slice4sort6shared5pivot11median3_rec17hbe3f226301cd071dE, symObjAddr: 0x51FC, symBinAddr: 0x100016998, symSize: 0xCC }
  - { offset: 0x41388, size: 0x8, addend: 0x0, symName: __ZN4core5slice4sort6shared5pivot11median3_rec17hc3d7c76f255c304aE, symObjAddr: 0x52C8, symBinAddr: 0x100016A64, symSize: 0xD0 }
  - { offset: 0x41483, size: 0x8, addend: 0x0, symName: __ZN4core5slice4sort6shared5pivot11median3_rec17heb13e39171436e07E, symObjAddr: 0x5398, symBinAddr: 0x100016B34, symSize: 0x11C }
  - { offset: 0x41659, size: 0x8, addend: 0x0, symName: __ZN4core5slice4sort6shared9smallsort12sort4_stable17h29d5ecfff8d25808E, symObjAddr: 0x54B4, symBinAddr: 0x100016C50, symSize: 0x1B4 }
  - { offset: 0x41804, size: 0x8, addend: 0x0, symName: __ZN4core5slice4sort6shared9smallsort12sort4_stable17he2b82e95c0946cc4E, symObjAddr: 0x5668, symBinAddr: 0x100016E04, symSize: 0x180 }
  - { offset: 0x41C26, size: 0x8, addend: 0x0, symName: __ZN4core5slice4sort6shared9smallsort12sort8_stable17h40f301b851efa79fE, symObjAddr: 0x57E8, symBinAddr: 0x100016F84, symSize: 0x2B8 }
  - { offset: 0x421BF, size: 0x8, addend: 0x0, symName: __ZN4core5slice4sort6shared9smallsort18small_sort_general17h8f0f2bfe6ac37bfbE, symObjAddr: 0x5AA0, symBinAddr: 0x10001723C, symSize: 0x490 }
  - { offset: 0x428D4, size: 0x8, addend: 0x0, symName: __ZN4core5slice4sort6shared9smallsort18small_sort_general17h9886ba35fa9ddf7bE, symObjAddr: 0x5F30, symBinAddr: 0x1000176CC, symSize: 0x3E0 }
  - { offset: 0x42DEE, size: 0x8, addend: 0x0, symName: __ZN4core5slice4sort6shared9smallsort25insertion_sort_shift_left17h001473db42a80264E, symObjAddr: 0x6310, symBinAddr: 0x100017AAC, symSize: 0xB0 }
  - { offset: 0x42E91, size: 0x8, addend: 0x0, symName: __ZN4core5slice4sort6shared9smallsort25insertion_sort_shift_left17h1e1ea2c4d7503f74E, symObjAddr: 0x63C0, symBinAddr: 0x100017B5C, symSize: 0xCC }
  - { offset: 0x42F92, size: 0x8, addend: 0x0, symName: __ZN4core5slice4sort6shared9smallsort25insertion_sort_shift_left17h4c238536f310567cE, symObjAddr: 0x648C, symBinAddr: 0x100017C28, symSize: 0xFC }
  - { offset: 0x43129, size: 0x8, addend: 0x0, symName: __ZN4core5slice4sort6shared9smallsort25insertion_sort_shift_left17h5ae8ea909444dc00E, symObjAddr: 0x6588, symBinAddr: 0x100017D24, symSize: 0xAC }
  - { offset: 0x431CC, size: 0x8, addend: 0x0, symName: __ZN4core5slice4sort6shared9smallsort25insertion_sort_shift_left17h677848d84e66ea2aE, symObjAddr: 0x6634, symBinAddr: 0x100017DD0, symSize: 0xA8 }
  - { offset: 0x4326F, size: 0x8, addend: 0x0, symName: __ZN4core5slice4sort6shared9smallsort25insertion_sort_shift_left17h753c2c33d7211ceaE, symObjAddr: 0x66DC, symBinAddr: 0x100017E78, symSize: 0xBC }
  - { offset: 0x43312, size: 0x8, addend: 0x0, symName: __ZN4core5slice4sort6shared9smallsort25insertion_sort_shift_left17hceef73df05978c22E, symObjAddr: 0x6798, symBinAddr: 0x100017F34, symSize: 0x90 }
  - { offset: 0x433B5, size: 0x8, addend: 0x0, symName: __ZN4core5slice4sort6shared9smallsort25insertion_sort_shift_left17hfb494d5f79707c02E, symObjAddr: 0x6828, symBinAddr: 0x100017FC4, symSize: 0xAC }
  - { offset: 0x436A5, size: 0x8, addend: 0x0, symName: __ZN4core5slice4sort6stable14driftsort_main17h103ff636fd5ab89dE, symObjAddr: 0x68D4, symBinAddr: 0x100018070, symSize: 0x148 }
  - { offset: 0x43948, size: 0x8, addend: 0x0, symName: __ZN4core5slice4sort6stable14driftsort_main17h1e88dc2727ad5c37E, symObjAddr: 0x6A1C, symBinAddr: 0x1000181B8, symSize: 0x16C }
  - { offset: 0x43C41, size: 0x8, addend: 0x0, symName: __ZN4core5slice4sort6stable14driftsort_main17h54d923433181cd8aE, symObjAddr: 0x6B88, symBinAddr: 0x100018324, symSize: 0x16C }
  - { offset: 0x43F3A, size: 0x8, addend: 0x0, symName: __ZN4core5slice4sort6stable14driftsort_main17h76405073938de01eE, symObjAddr: 0x6CF4, symBinAddr: 0x100018490, symSize: 0x148 }
  - { offset: 0x441DD, size: 0x8, addend: 0x0, symName: __ZN4core5slice4sort6stable14driftsort_main17h9cb82a8482cd4f53E, symObjAddr: 0x6E3C, symBinAddr: 0x1000185D8, symSize: 0x148 }
  - { offset: 0x44480, size: 0x8, addend: 0x0, symName: __ZN4core5slice4sort6stable14driftsort_main17hf9ea8a01734384bdE, symObjAddr: 0x6F84, symBinAddr: 0x100018720, symSize: 0x148 }
  - { offset: 0x44892, size: 0x8, addend: 0x0, symName: __ZN4core5slice4sort6stable5drift4sort17h00ab1c6180ac4055E, symObjAddr: 0x70CC, symBinAddr: 0x100018868, symSize: 0x4E0 }
  - { offset: 0x44EC7, size: 0x8, addend: 0x0, symName: __ZN4core5slice4sort6stable5drift4sort17h0aa4aacce1cc6d7cE, symObjAddr: 0x75AC, symBinAddr: 0x100018D48, symSize: 0x5E8 }
  - { offset: 0x4554F, size: 0x8, addend: 0x0, symName: __ZN4core5slice4sort6stable5drift4sort17h343dbae25f37733bE, symObjAddr: 0x7B94, symBinAddr: 0x100019330, symSize: 0x538 }
  - { offset: 0x45C22, size: 0x8, addend: 0x0, symName: __ZN4core5slice4sort6stable5drift4sort17h4258b1bc2caa3ec0E, symObjAddr: 0x80CC, symBinAddr: 0x100019868, symSize: 0x6F0 }
  - { offset: 0x462F8, size: 0x8, addend: 0x0, symName: __ZN4core5slice4sort6stable5drift4sort17h9cf8228521243839E, symObjAddr: 0x87BC, symBinAddr: 0x100019F58, symSize: 0x5E8 }
  - { offset: 0x46980, size: 0x8, addend: 0x0, symName: __ZN4core5slice4sort6stable5drift4sort17he5c0348fca8b4ee7E, symObjAddr: 0x8DA4, symBinAddr: 0x10001A540, symSize: 0x63C }
  - { offset: 0x471F8, size: 0x8, addend: 0x0, symName: __ZN4core5slice4sort6stable9quicksort9quicksort17h115e1a8136b6fa84E, symObjAddr: 0x93E0, symBinAddr: 0x10001AB7C, symSize: 0x820 }
  - { offset: 0x47DC5, size: 0x8, addend: 0x0, symName: __ZN4core5slice4sort6stable9quicksort9quicksort17h270cbea95e7bc0c9E, symObjAddr: 0x9C00, symBinAddr: 0x10001B39C, symSize: 0x73C }
  - { offset: 0x484E6, size: 0x8, addend: 0x0, symName: __ZN4core5slice4sort6stable9quicksort9quicksort17h3e7b305b5c7976baE, symObjAddr: 0xA33C, symBinAddr: 0x10001BAD8, symSize: 0x6C8 }
  - { offset: 0x48F73, size: 0x8, addend: 0x0, symName: __ZN4core5slice4sort6stable9quicksort9quicksort17hc1d95435bd0f54c5E, symObjAddr: 0xAA04, symBinAddr: 0x10001C1A0, symSize: 0x828 }
  - { offset: 0x4A034, size: 0x8, addend: 0x0, symName: __ZN4core5slice4sort6stable9quicksort9quicksort17hcf4fb219382f768bE, symObjAddr: 0xB22C, symBinAddr: 0x10001C9C8, symSize: 0x7FC }
  - { offset: 0x4AC01, size: 0x8, addend: 0x0, symName: __ZN4core5slice4sort6stable9quicksort9quicksort17hfd59b4f11a472dd5E, symObjAddr: 0xBA28, symBinAddr: 0x10001D1C4, symSize: 0x6D0 }
  - { offset: 0x4B6C9, size: 0x8, addend: 0x0, symName: __ZN4core5slice4sort8unstable7ipnsort17h519db9bb88c7d2c0E, symObjAddr: 0xC0F8, symBinAddr: 0x10001D894, symSize: 0x1E4 }
  - { offset: 0x4B7E0, size: 0x8, addend: 0x0, symName: __ZN4core5slice4sort8unstable7ipnsort17hc49a474c49f61d9aE, symObjAddr: 0xC2DC, symBinAddr: 0x10001DA78, symSize: 0x290 }
  - { offset: 0x4BA89, size: 0x8, addend: 0x0, symName: __ZN4core5slice4sort8unstable8heapsort8heapsort17h6b7b52018c9f5da0E, symObjAddr: 0xC56C, symBinAddr: 0x10001DD08, symSize: 0x10C }
  - { offset: 0x4BC90, size: 0x8, addend: 0x0, symName: __ZN4core5slice4sort8unstable8heapsort8heapsort17h719a9553e129d672E, symObjAddr: 0xC678, symBinAddr: 0x10001DE14, symSize: 0x160 }
  - { offset: 0x4C02E, size: 0x8, addend: 0x0, symName: __ZN4core5slice4sort8unstable9quicksort9quicksort17h96e7db41672c501eE, symObjAddr: 0xC7D8, symBinAddr: 0x10001DF74, symSize: 0x448 }
  - { offset: 0x4C8E4, size: 0x8, addend: 0x0, symName: __ZN4core5slice4sort8unstable9quicksort9quicksort17ha039472c97b018d8E, symObjAddr: 0xCC20, symBinAddr: 0x10001E3BC, symSize: 0x5BC }
  - { offset: 0x4D616, size: 0x8, addend: 0x0, symName: '__ZN36_$LT$T$u20$as$u20$core..any..Any$GT$7type_id17h225d92188c8db6c3E', symObjAddr: 0x13C, symBinAddr: 0x100013564, symSize: 0x30 }
  - { offset: 0x4D630, size: 0x8, addend: 0x0, symName: '__ZN36_$LT$T$u20$as$u20$core..any..Any$GT$7type_id17h22a55d7ebb819ea6E', symObjAddr: 0x16C, symBinAddr: 0x100013594, symSize: 0x30 }
  - { offset: 0x4D69E, size: 0x8, addend: 0x0, symName: '__ZN42_$LT$$RF$T$u20$as$u20$core..fmt..Debug$GT$3fmt17h229631da8bdd67acE', symObjAddr: 0x464, symBinAddr: 0x1000135C4, symSize: 0x1C }
  - { offset: 0x4D6B2, size: 0x8, addend: 0x0, symName: '__ZN42_$LT$$RF$T$u20$as$u20$core..fmt..Debug$GT$3fmt17h45300256e973f494E', symObjAddr: 0x4F8, symBinAddr: 0x1000135E0, symSize: 0x30 }
  - { offset: 0x4D6F8, size: 0x8, addend: 0x0, symName: '__ZN42_$LT$$RF$T$u20$as$u20$core..fmt..Debug$GT$3fmt17h6cf282856d53ef8fE', symObjAddr: 0x66C, symBinAddr: 0x100013610, symSize: 0x74 }
  - { offset: 0x4D83A, size: 0x8, addend: 0x0, symName: '__ZN42_$LT$$RF$T$u20$as$u20$core..fmt..Debug$GT$3fmt17h832369a0cde054d2E', symObjAddr: 0x77C, symBinAddr: 0x100013684, symSize: 0x30 }
  - { offset: 0x4D88E, size: 0x8, addend: 0x0, symName: '__ZN42_$LT$$RF$T$u20$as$u20$core..fmt..Debug$GT$3fmt17h8bbb2abac655b284E', symObjAddr: 0x7AC, symBinAddr: 0x1000136B4, symSize: 0x9C }
  - { offset: 0x4D938, size: 0x8, addend: 0x0, symName: '__ZN42_$LT$$RF$T$u20$as$u20$core..fmt..Debug$GT$3fmt17h99ba184c1a5db1eaE', symObjAddr: 0x91C, symBinAddr: 0x100013750, symSize: 0x1C }
  - { offset: 0x4D977, size: 0x8, addend: 0x0, symName: '__ZN42_$LT$$RF$T$u20$as$u20$core..fmt..Debug$GT$3fmt17h9e2071203f91d82eE', symObjAddr: 0x938, symBinAddr: 0x10001376C, symSize: 0x74 }
  - { offset: 0x4DA36, size: 0x8, addend: 0x0, symName: '__ZN42_$LT$$RF$T$u20$as$u20$core..fmt..Debug$GT$3fmt17hc3e2ad6268e8985cE', symObjAddr: 0xB50, symBinAddr: 0x1000137E0, symSize: 0x20 }
  - { offset: 0x4DAEC, size: 0x8, addend: 0x0, symName: '__ZN4core3fmt3num50_$LT$impl$u20$core..fmt..Debug$u20$for$u20$i32$GT$3fmt17h15c50277390862aeE', symObjAddr: 0xCF0, symBinAddr: 0x100013884, symSize: 0x2C }
  - { offset: 0x4DB1B, size: 0x8, addend: 0x0, symName: '__ZN4core3fmt3num52_$LT$impl$u20$core..fmt..Debug$u20$for$u20$usize$GT$3fmt17h6def11b803266407E', symObjAddr: 0xDA0, symBinAddr: 0x1000138B0, symSize: 0x2C }
  - { offset: 0x4DB9A, size: 0x8, addend: 0x0, symName: '__ZN44_$LT$$RF$T$u20$as$u20$core..fmt..Display$GT$3fmt17h3bfca5eae23b0d69E', symObjAddr: 0xC20, symBinAddr: 0x100013800, symSize: 0x1C }
  - { offset: 0x4DBB5, size: 0x8, addend: 0x0, symName: '__ZN44_$LT$$RF$T$u20$as$u20$core..fmt..Display$GT$3fmt17ha43e2829162aef39E', symObjAddr: 0xC3C, symBinAddr: 0x10001381C, symSize: 0x68 }
  - { offset: 0x4E038, size: 0x8, addend: 0x0, symName: __ZN4core3fmt5Write10write_char17h2bd2da6422df0c04E, symObjAddr: 0xDCC, symBinAddr: 0x1000138DC, symSize: 0x128 }
  - { offset: 0x4E1D0, size: 0x8, addend: 0x0, symName: __ZN4core3fmt5Write10write_char17h375232e784da95c3E, symObjAddr: 0xEF4, symBinAddr: 0x100013A04, symSize: 0x174 }
  - { offset: 0x4E3D2, size: 0x8, addend: 0x0, symName: __ZN4core3fmt5Write10write_char17h5fd94b4a6a085facE, symObjAddr: 0x11E8, symBinAddr: 0x100013B78, symSize: 0x140 }
  - { offset: 0x4E438, size: 0x8, addend: 0x0, symName: __ZN4core3fmt5Write10write_char17h7453f2c039370a9dE, symObjAddr: 0x1328, symBinAddr: 0x100013CB8, symSize: 0x180 }
  - { offset: 0x4E624, size: 0x8, addend: 0x0, symName: __ZN4core3fmt5Write9write_fmt17h2a0fceba8367f855E, symObjAddr: 0x1620, symBinAddr: 0x100013E38, symSize: 0x1C }
  - { offset: 0x4E653, size: 0x8, addend: 0x0, symName: __ZN4core3fmt5Write9write_fmt17h7b0eee5bb9fc5859E, symObjAddr: 0x163C, symBinAddr: 0x100013E54, symSize: 0x1C }
  - { offset: 0x4E682, size: 0x8, addend: 0x0, symName: __ZN4core3fmt5Write9write_fmt17hb212afec46fd02ecE, symObjAddr: 0x1658, symBinAddr: 0x100013E70, symSize: 0x1C }
  - { offset: 0x4E6B1, size: 0x8, addend: 0x0, symName: __ZN4core3fmt5Write9write_fmt17hbad323a678cb2207E, symObjAddr: 0x1674, symBinAddr: 0x100013E8C, symSize: 0x1C }
  - { offset: 0x4E6E0, size: 0x8, addend: 0x0, symName: __ZN4core3fmt5Write9write_fmt17he153d8ed26875afeE, symObjAddr: 0x1690, symBinAddr: 0x100013EA8, symSize: 0x1C }
  - { offset: 0x4E73D, size: 0x8, addend: 0x0, symName: '__ZN50_$LT$$BP$mut$u20$T$u20$as$u20$core..fmt..Debug$GT$3fmt17he39465caf33bcc4eE', symObjAddr: 0xD258, symBinAddr: 0x10001E978, symSize: 0x14 }
  - { offset: 0x4E78A, size: 0x8, addend: 0x0, symName: '__ZN52_$LT$$RF$mut$u20$T$u20$as$u20$core..fmt..Display$GT$3fmt17hc6db9c4561bb0640E', symObjAddr: 0xD2E0, symBinAddr: 0x10001E98C, symSize: 0x1C }
  - { offset: 0x4ED37, size: 0x8, addend: 0x0, symName: '__ZN70_$LT$core..num..error..TryFromIntError$u20$as$u20$core..fmt..Debug$GT$3fmt17heb63bc146d788e8fE', symObjAddr: 0x19870, symBinAddr: 0x1000292B0, symSize: 0x40 }
  - { offset: 0x4EEDD, size: 0x8, addend: 0x0, symName: '__ZN4core5array69_$LT$impl$u20$core..fmt..Debug$u20$for$u20$$u5b$T$u3b$$u20$N$u5d$$GT$3fmt17h705a2aa453ffacd4E', symObjAddr: 0x4BD8, symBinAddr: 0x10001641C, symSize: 0xFC }
  - { offset: 0x4F40E, size: 0x8, addend: 0x0, symName: '__ZN55_$LT$$RF$str$u20$as$u20$core..str..pattern..Pattern$GT$15is_contained_in17h07538af93eae73f4E', symObjAddr: 0xD2FC, symBinAddr: 0x10001E9A8, symSize: 0x3BC }
  - { offset: 0x4F82D, size: 0x8, addend: 0x0, symName: __ZN4core5panic12PanicPayload6as_str17h5cdc46f655586ed2E, symObjAddr: 0x4D7C, symBinAddr: 0x100016518, symSize: 0x14 }
  - { offset: 0x508E2, size: 0x8, addend: 0x0, symName: '__ZN4core3ops8function6FnOnce40call_once$u7b$$u7b$vtable.shim$u7d$$u7d$17h372dd670162a11a3E', symObjAddr: 0x1714, symBinAddr: 0x100013EC4, symSize: 0x18 }
  - { offset: 0x50933, size: 0x8, addend: 0x0, symName: '__ZN4core3ops8function6FnOnce40call_once$u7b$$u7b$vtable.shim$u7d$$u7d$17h49be7b3161c92e51E', symObjAddr: 0x172C, symBinAddr: 0x100013EDC, symSize: 0x28 }
  - { offset: 0x5096F, size: 0x8, addend: 0x0, symName: '__ZN4core3ops8function6FnOnce40call_once$u7b$$u7b$vtable.shim$u7d$$u7d$17h4dbfbb5401248555E', symObjAddr: 0x1754, symBinAddr: 0x100013F04, symSize: 0xA4 }
  - { offset: 0x50AB5, size: 0x8, addend: 0x0, symName: '__ZN4core3ops8function6FnOnce40call_once$u7b$$u7b$vtable.shim$u7d$$u7d$17h59664865ad50834bE', symObjAddr: 0x17F8, symBinAddr: 0x100013FA8, symSize: 0x10 }
  - { offset: 0x50AF1, size: 0x8, addend: 0x0, symName: '__ZN4core3ops8function6FnOnce40call_once$u7b$$u7b$vtable.shim$u7d$$u7d$17h5dd18c650d3d28d5E', symObjAddr: 0x18B8, symBinAddr: 0x100013FB8, symSize: 0x80 }
  - { offset: 0x50C86, size: 0x8, addend: 0x0, symName: '__ZN4core3ops8function6FnOnce40call_once$u7b$$u7b$vtable.shim$u7d$$u7d$17hb8f0a3a311886dd1E', symObjAddr: 0x194C, symBinAddr: 0x100014038, symSize: 0x18 }
  - { offset: 0x50CD7, size: 0x8, addend: 0x0, symName: '__ZN4core3ops8function6FnOnce40call_once$u7b$$u7b$vtable.shim$u7d$$u7d$17hc37bdb1ed22c5dd7E', symObjAddr: 0x19E0, symBinAddr: 0x100014050, symSize: 0x10 }
  - { offset: 0x50D13, size: 0x8, addend: 0x0, symName: '__ZN4core3ops8function6FnOnce40call_once$u7b$$u7b$vtable.shim$u7d$$u7d$17heb56308df1374649E', symObjAddr: 0x19F0, symBinAddr: 0x100014060, symSize: 0x60 }
  - { offset: 0x50E15, size: 0x8, addend: 0x0, symName: __ZN4core3ops8function6FnOnce9call_once17he5d2535e31b739dcE, symObjAddr: 0x1A78, symBinAddr: 0x1000140C0, symSize: 0x44 }
  - { offset: 0x53770, size: 0x8, addend: 0x0, symName: '__ZN4core4cell4once17OnceCell$LT$T$GT$8try_init17he4193c4098c349bdE', symObjAddr: 0x4A84, symBinAddr: 0x10004EA80, symSize: 0x154 }
  - { offset: 0x53C52, size: 0x8, addend: 0x0, symName: __ZN4core9panicking13assert_failed17h5ef480159103c8ebE, symObjAddr: 0xD1DC, symBinAddr: 0x10004EBD4, symSize: 0x34 }
  - { offset: 0x53C6D, size: 0x8, addend: 0x0, symName: __ZN4core9panicking13assert_failed17he664f25a4eeebf5cE, symObjAddr: 0xD234, symBinAddr: 0x10004EC08, symSize: 0x24 }
  - { offset: 0x5410A, size: 0x8, addend: 0x0, symName: __ZN3std9panicking11panic_count8increase17h1d24b79d4790a8a8E, symObjAddr: 0x3A9E8, symBinAddr: 0x100034AD8, symSize: 0x80 }
  - { offset: 0x54201, size: 0x8, addend: 0x0, symName: __ZN3std9panicking11panic_count17is_zero_slow_path17hbb753c2ecca816a8E, symObjAddr: 0x3AB00, symBinAddr: 0x10004F450, symSize: 0x2C }
  - { offset: 0x54337, size: 0x8, addend: 0x0, symName: ___rust_drop_panic, symObjAddr: 0x39FEC, symBinAddr: 0x100034350, symSize: 0xB8 }
  - { offset: 0x54529, size: 0x8, addend: 0x0, symName: ___rust_foreign_exception, symObjAddr: 0x3A0A4, symBinAddr: 0x100034408, symSize: 0xB8 }
  - { offset: 0x5471B, size: 0x8, addend: 0x0, symName: __ZN3std9panicking12default_hook17ha0b223ccc4379930E, symObjAddr: 0x3A3D0, symBinAddr: 0x1000344C0, symSize: 0x1EC }
  - { offset: 0x549BC, size: 0x8, addend: 0x0, symName: '__ZN3std9panicking12default_hook28_$u7b$$u7b$closure$u7d$$u7d$17h5c3a234feebd11a5E', symObjAddr: 0x3A5BC, symBinAddr: 0x1000346AC, symSize: 0x1A8 }
  - { offset: 0x54BA0, size: 0x8, addend: 0x0, symName: '__ZN3std9panicking12default_hook28_$u7b$$u7b$closure$u7d$$u7d$28_$u7b$$u7b$closure$u7d$$u7d$17h2cb359aea37a8eccE', symObjAddr: 0x3A764, symBinAddr: 0x100034854, symSize: 0x284 }
  - { offset: 0x55016, size: 0x8, addend: 0x0, symName: _rust_begin_unwind, symObjAddr: 0x3AB80, symBinAddr: 0x100034B58, symSize: 0x20 }
  - { offset: 0x5507F, size: 0x8, addend: 0x0, symName: '__ZN102_$LT$std..panicking..begin_panic_handler..FormatStringPayload$u20$as$u20$core..panic..PanicPayload$GT$8take_box17hf9936339f9bb3e6eE', symObjAddr: 0x3ABA0, symBinAddr: 0x100034B78, symSize: 0x110 }
  - { offset: 0x55313, size: 0x8, addend: 0x0, symName: '__ZN102_$LT$std..panicking..begin_panic_handler..FormatStringPayload$u20$as$u20$core..panic..PanicPayload$GT$3get17h671f5c789103ccc6E', symObjAddr: 0x3ACB0, symBinAddr: 0x100034C88, symSize: 0xB0 }
  - { offset: 0x5544C, size: 0x8, addend: 0x0, symName: '__ZN95_$LT$std..panicking..begin_panic_handler..FormatStringPayload$u20$as$u20$core..fmt..Display$GT$3fmt17h1a7e141a9fd2e841E', symObjAddr: 0x3AD60, symBinAddr: 0x100034D38, symSize: 0x5C }
  - { offset: 0x55549, size: 0x8, addend: 0x0, symName: '__ZN99_$LT$std..panicking..begin_panic_handler..StaticStrPayload$u20$as$u20$core..panic..PanicPayload$GT$8take_box17hfde794f38dfdff84E', symObjAddr: 0x3ADBC, symBinAddr: 0x100034D94, symSize: 0x50 }
  - { offset: 0x555C0, size: 0x8, addend: 0x0, symName: '__ZN99_$LT$std..panicking..begin_panic_handler..StaticStrPayload$u20$as$u20$core..panic..PanicPayload$GT$3get17h40c5dcbca42c5d43E', symObjAddr: 0x3AE0C, symBinAddr: 0x100034DE4, symSize: 0x18 }
  - { offset: 0x555DB, size: 0x8, addend: 0x0, symName: '__ZN99_$LT$std..panicking..begin_panic_handler..StaticStrPayload$u20$as$u20$core..panic..PanicPayload$GT$6as_str17h36252a21ddc56c9bE', symObjAddr: 0x3AE24, symBinAddr: 0x100034DFC, symSize: 0x18 }
  - { offset: 0x555FC, size: 0x8, addend: 0x0, symName: '__ZN92_$LT$std..panicking..begin_panic_handler..StaticStrPayload$u20$as$u20$core..fmt..Display$GT$3fmt17hd84ef799566d4562E', symObjAddr: 0x3AE3C, symBinAddr: 0x100034E14, symSize: 0x1C }
  - { offset: 0x55618, size: 0x8, addend: 0x0, symName: '__ZN3std9panicking19begin_panic_handler28_$u7b$$u7b$closure$u7d$$u7d$17hcc8f653f753c0254E', symObjAddr: 0x3AE58, symBinAddr: 0x100034E30, symSize: 0xC4 }
  - { offset: 0x55780, size: 0x8, addend: 0x0, symName: __ZN3std9panicking14payload_as_str17h326c21158c3ccbd7E, symObjAddr: 0x3B008, symBinAddr: 0x100034EF4, symSize: 0xB0 }
  - { offset: 0x55864, size: 0x8, addend: 0x0, symName: __ZN3std9panicking20rust_panic_with_hook17h203f96c93e7ac62dE, symObjAddr: 0x3B0B8, symBinAddr: 0x100034FA4, symSize: 0x3F8 }
  - { offset: 0x56077, size: 0x8, addend: 0x0, symName: _rust_panic, symObjAddr: 0x3B5E4, symBinAddr: 0x10003539C, symSize: 0x60 }
  - { offset: 0x560BD, size: 0x8, addend: 0x0, symName: __ZN3std7process7Command6output17h173f2f9f8e9cb0e1E, symObjAddr: 0x35188, symBinAddr: 0x10003310C, symSize: 0x2FC }
  - { offset: 0x56694, size: 0x8, addend: 0x0, symName: '__ZN63_$LT$std..process..ExitStatus$u20$as$u20$core..fmt..Display$GT$3fmt17h0fb4b5c7aac7e3c3E', symObjAddr: 0x357C0, symBinAddr: 0x100033408, symSize: 0x10 }
  - { offset: 0x566B0, size: 0x8, addend: 0x0, symName: __ZN3std7process5abort17h5bdab09773b2c592E, symObjAddr: 0x35D9C, symBinAddr: 0x10004F080, symSize: 0xC }
  - { offset: 0x5673E, size: 0x8, addend: 0x0, symName: __ZN3std4path4Path13_strip_prefix17h55294dff41b26308E, symObjAddr: 0x33B38, symBinAddr: 0x100032D44, symSize: 0x21C }
  - { offset: 0x5687E, size: 0x8, addend: 0x0, symName: __ZN3std4path4Path5_join17h516bc57fe1e4225dE, symObjAddr: 0x34358, symBinAddr: 0x100032F60, symSize: 0x1AC }
  - { offset: 0x56E26, size: 0x8, addend: 0x0, symName: __ZN3std4path10Components15len_before_body17ha7ee2271a8a6c6d9E, symObjAddr: 0x31DBC, symBinAddr: 0x100031EFC, symSize: 0x188 }
  - { offset: 0x56E3D, size: 0x8, addend: 0x0, symName: __ZN3std4path10Components15len_before_body17ha7ee2271a8a6c6d9E, symObjAddr: 0x31DBC, symBinAddr: 0x100031EFC, symSize: 0x188 }
  - { offset: 0x56E52, size: 0x8, addend: 0x0, symName: __ZN3std4path10Components15len_before_body17ha7ee2271a8a6c6d9E, symObjAddr: 0x31DBC, symBinAddr: 0x100031EFC, symSize: 0x188 }
  - { offset: 0x57034, size: 0x8, addend: 0x0, symName: __ZN3std4path10Components7as_path17h6e25608fa8cb9557E, symObjAddr: 0x31F44, symBinAddr: 0x100032084, symSize: 0x530 }
  - { offset: 0x57507, size: 0x8, addend: 0x0, symName: __ZN3std4path10Components25parse_next_component_back17h5239b6f3b65d70c8E, symObjAddr: 0x32474, symBinAddr: 0x1000325B4, symSize: 0x120 }
  - { offset: 0x57712, size: 0x8, addend: 0x0, symName: '__ZN80_$LT$std..path..Components$u20$as$u20$core..iter..traits..iterator..Iterator$GT$4next17h6e8b0f281526c929E', symObjAddr: 0x3272C, symBinAddr: 0x1000326D4, symSize: 0x340 }
  - { offset: 0x57A61, size: 0x8, addend: 0x0, symName: '__ZN95_$LT$std..path..Components$u20$as$u20$core..iter..traits..double_ended..DoubleEndedIterator$GT$9next_back17h15500b5b5dde7decE', symObjAddr: 0x32A6C, symBinAddr: 0x100032A14, symSize: 0x330 }
  - { offset: 0x57C18, size: 0x8, addend: 0x0, symName: '__ZN61_$LT$std..path..Component$u20$as$u20$core..cmp..PartialEq$GT$2eq17h238f4f8a8cc29bb2E', symObjAddr: 0x3C0CC, symBinAddr: 0x100035AE4, symSize: 0x138 }
  - { offset: 0x57DFE, size: 0x8, addend: 0x0, symName: __ZN3std3sys3pal4unix2fs4File6open_c17h0a400570de534b0aE, symObjAddr: 0x3D220, symBinAddr: 0x100036048, symSize: 0x1B0 }
  - { offset: 0x57F67, size: 0x8, addend: 0x0, symName: '__ZN91_$LT$std..sys..pal..unix..fs..ReadDir$u20$as$u20$core..iter..traits..iterator..Iterator$GT$4next17he1b3299a727d70eaE', symObjAddr: 0x3CD90, symBinAddr: 0x100035E44, symSize: 0x138 }
  - { offset: 0x5820E, size: 0x8, addend: 0x0, symName: '__ZN70_$LT$std..sys..pal..unix..fs..Dir$u20$as$u20$core..ops..drop..Drop$GT$4drop17h2f7cbb54b209bd1fE', symObjAddr: 0x3CEC8, symBinAddr: 0x100035F7C, symSize: 0xCC }
  - { offset: 0x58301, size: 0x8, addend: 0x0, symName: __ZN3std3sys3pal4unix2fs7readdir17h52c204b360126013E, symObjAddr: 0x3DAF4, symBinAddr: 0x1000361F8, symSize: 0x1A4 }
  - { offset: 0x585F5, size: 0x8, addend: 0x0, symName: __ZN3std3sys3pal4unix2fd8FileDesc11read_to_end17hb48365a6d7f4162dE, symObjAddr: 0x3C5C8, symBinAddr: 0x100035C1C, symSize: 0x228 }
  - { offset: 0x58A8A, size: 0x8, addend: 0x0, symName: __ZN3std3sys3pal4unix7process13process_inner7Process4wait17h3c2b205dcceaa54aE, symObjAddr: 0x44A18, symBinAddr: 0x1000391C0, symSize: 0xA0 }
  - { offset: 0x58C5A, size: 0x8, addend: 0x0, symName: '__ZN94_$LT$std..sys..pal..unix..process..process_inner..ExitStatus$u20$as$u20$core..fmt..Display$GT$3fmt17hc1c902cd8f0e63caE', symObjAddr: 0x44B10, symBinAddr: 0x100039260, symSize: 0x250 }
  - { offset: 0x58E11, size: 0x8, addend: 0x0, symName: __ZN3std3sys3pal4unix7process14process_common7Command3new17h1d046efb69807da0E, symObjAddr: 0x40DB4, symBinAddr: 0x100036BB8, symSize: 0x2C4 }
  - { offset: 0x5937B, size: 0x8, addend: 0x0, symName: __ZN3std3sys3pal4unix7process14process_common7Command3arg17h236ab9fd4e9e458bE, symObjAddr: 0x411AC, symBinAddr: 0x100036E7C, symSize: 0x15C }
  - { offset: 0x596F4, size: 0x8, addend: 0x0, symName: __ZN3std3sys3pal4unix7process14process_common7Command11capture_env17h73b5aff2a246da54E, symObjAddr: 0x41528, symBinAddr: 0x100036FD8, symSize: 0xA9C }
  - { offset: 0x5B41F, size: 0x8, addend: 0x0, symName: __ZN3std3sys3pal4unix7process14process_common7Command8setup_io17hcfeddda79479f9dfE, symObjAddr: 0x41FC4, symBinAddr: 0x100037A74, symSize: 0x2F0 }
  - { offset: 0x5B8D8, size: 0x8, addend: 0x0, symName: '__ZN3std3sys3pal4unix7process13process_inner71_$LT$impl$u20$std..sys..pal..unix..process..process_common..Command$GT$5spawn17hbb692d0a4a0abbffE', symObjAddr: 0x43CC4, symBinAddr: 0x1000384B8, symSize: 0x9A8 }
  - { offset: 0x5CB2C, size: 0x8, addend: 0x0, symName: '__ZN3std3sys3pal4unix7process13process_inner71_$LT$impl$u20$std..sys..pal..unix..process..process_common..Command$GT$7do_exec17he847cfd6d5f995b9E', symObjAddr: 0x4466C, symBinAddr: 0x100038E60, symSize: 0x360 }
  - { offset: 0x5D48D, size: 0x8, addend: 0x0, symName: __ZN3std3sys3pal4unix7process14process_common5Stdio14to_child_stdio17ha05e85644a02177cE, symObjAddr: 0x422B4, symBinAddr: 0x100037D64, symSize: 0x15C }
  - { offset: 0x5D68C, size: 0x8, addend: 0x0, symName: __ZN3std3sys3pal4unix2os5errno17h1e687568046dfc01E, symObjAddr: 0x3FC68, symBinAddr: 0x10003639C, symSize: 0x18 }
  - { offset: 0x5D6A0, size: 0x8, addend: 0x0, symName: __ZN3std3sys3pal4unix2os13env_read_lock17h1370e80127ab09adE, symObjAddr: 0x400EC, symBinAddr: 0x1000363B4, symSize: 0x2EC }
  - { offset: 0x5DD50, size: 0x8, addend: 0x0, symName: '__ZN3std3sys3pal4unix2os6getenv28_$u7b$$u7b$closure$u7d$$u7d$17h09d09dd30efbeda3E', symObjAddr: 0x403D8, symBinAddr: 0x1000366A0, symSize: 0x150 }
  - { offset: 0x5DF93, size: 0x8, addend: 0x0, symName: '__ZN69_$LT$std..sys..pal..unix..stdio..Stderr$u20$as$u20$std..io..Write$GT$5write17hf7eb28e2e3a5bd7dE', symObjAddr: 0x43178, symBinAddr: 0x100038250, symSize: 0x4C }
  - { offset: 0x5E054, size: 0x8, addend: 0x0, symName: '__ZN69_$LT$std..sys..pal..unix..stdio..Stderr$u20$as$u20$std..io..Write$GT$14write_vectored17h6899437ee14ad0e1E', symObjAddr: 0x431C4, symBinAddr: 0x10003829C, symSize: 0x4C }
  - { offset: 0x5E115, size: 0x8, addend: 0x0, symName: '__ZN69_$LT$std..sys..pal..unix..stdio..Stderr$u20$as$u20$std..io..Write$GT$17is_write_vectored17h9b2366713f7e1db9E', symObjAddr: 0x43210, symBinAddr: 0x1000382E8, symSize: 0x14 }
  - { offset: 0x5E12F, size: 0x8, addend: 0x0, symName: '__ZN69_$LT$std..sys..pal..unix..stdio..Stderr$u20$as$u20$std..io..Write$GT$5flush17hd9b43cd37b405524E', symObjAddr: 0x43224, symBinAddr: 0x1000382FC, symSize: 0x14 }
  - { offset: 0x5E1A1, size: 0x8, addend: 0x0, symName: __ZN3std3sys3pal4unix4sync5mutex5Mutex4init17hdf1c4f248d85eb16E, symObjAddr: 0x43238, symBinAddr: 0x100038310, symSize: 0x16C }
  - { offset: 0x5E258, size: 0x8, addend: 0x0, symName: __ZN3std3sys3pal4unix4sync5mutex5Mutex4lock4fail17h6819c36a4f036f8cE, symObjAddr: 0x433C0, symBinAddr: 0x10004F4D4, symSize: 0xDC }
  - { offset: 0x5E518, size: 0x8, addend: 0x0, symName: __ZN3std3sys3pal4unix14stack_overflow3imp14signal_handler17h2fa8e10590380ab0E, symObjAddr: 0x42C40, symBinAddr: 0x100037EC0, symSize: 0xB0 }
  - { offset: 0x5E5C9, size: 0x8, addend: 0x0, symName: '__ZN3std3sys3pal4unix14stack_overflow3imp14signal_handler28_$u7b$$u7b$closure$u7d$$u7d$17h58562be330c5529fE', symObjAddr: 0x42CF0, symBinAddr: 0x100037F70, symSize: 0x100 }
  - { offset: 0x5E7EF, size: 0x8, addend: 0x0, symName: __ZN3std3sys3pal4unix14stack_overflow3imp12make_handler17ha0e2e74c0ff811adE, symObjAddr: 0x42DF0, symBinAddr: 0x100038070, symSize: 0x1E0 }
  - { offset: 0x5EB9A, size: 0x8, addend: 0x0, symName: __ZN3std3sys3pal4unix4pipe8AnonPipe5write17h9d42360bb4720a56E, symObjAddr: 0x40B14, symBinAddr: 0x100036918, symSize: 0x48 }
  - { offset: 0x5EC62, size: 0x8, addend: 0x0, symName: __ZN3std3sys3pal4unix4pipe9anon_pipe17h3f2ef7b4629c71e8E, symObjAddr: 0x409EC, symBinAddr: 0x1000367F0, symSize: 0x128 }
  - { offset: 0x5EF57, size: 0x8, addend: 0x0, symName: __ZN3std3sys3pal4unix4pipe5read217he4ec31afe54221baE, symObjAddr: 0x40B5C, symBinAddr: 0x100036960, symSize: 0x258 }
  - { offset: 0x5F485, size: 0x8, addend: 0x0, symName: '__ZN3std3sys3pal4unix4weak18DlsymWeak$LT$F$GT$10initialize17h5e388e39dc1ce791E', symObjAddr: 0x3C314, symBinAddr: 0x10004F47C, symSize: 0x58 }
  - { offset: 0x5F507, size: 0x8, addend: 0x0, symName: __ZN3std3sys3pal4unix17decode_error_kind17h7a8628d240588c97E, symObjAddr: 0x43C48, symBinAddr: 0x10003847C, symSize: 0x30 }
  - { offset: 0x5F521, size: 0x8, addend: 0x0, symName: __ZN3std3sys3pal4unix14abort_internal17h1f437a045e84c0acE, symObjAddr: 0x43C78, symBinAddr: 0x1000384AC, symSize: 0xC }
  - { offset: 0x5F5BF, size: 0x8, addend: 0x0, symName: __ZN3std3sys3pal6common14small_c_string24run_with_cstr_allocating17h0222687f57b5b8d8E, symObjAddr: 0x378C4, symBinAddr: 0x10004F158, symSize: 0xAC }
  - { offset: 0x5F71B, size: 0x8, addend: 0x0, symName: __ZN3std3sys3pal6common14small_c_string24run_with_cstr_allocating17h89545bf18b96ebe8E, symObjAddr: 0x37BC8, symBinAddr: 0x10004F204, symSize: 0x9C }
  - { offset: 0x5F88A, size: 0x8, addend: 0x0, symName: __ZN3std3sys3pal6common14small_c_string24run_with_cstr_allocating17hf540475ca51d3e7bE, symObjAddr: 0x37DE8, symBinAddr: 0x10004F2A0, symSize: 0xC4 }
  - { offset: 0x5FB15, size: 0x8, addend: 0x0, symName: '__ZN69_$LT$std..sys..os_str..bytes..Slice$u20$as$u20$core..fmt..Display$GT$3fmt17h9ac75767c8ed01b2E', symObjAddr: 0x466F4, symBinAddr: 0x100039848, symSize: 0xA0 }
  - { offset: 0x5FB86, size: 0x8, addend: 0x0, symName: '__ZN3std3sys11personality3gcc14find_eh_action28_$u7b$$u7b$closure$u7d$$u7d$17heb526fe46b317879E', symObjAddr: 0x44DB8, symBinAddr: 0x1000394B0, symSize: 0x18 }
  - { offset: 0x5FB9A, size: 0x8, addend: 0x0, symName: '__ZN3std3sys11personality3gcc14find_eh_action28_$u7b$$u7b$closure$u7d$$u7d$17hdfacf1f5ab590eb6E', symObjAddr: 0x44DD0, symBinAddr: 0x1000394C8, symSize: 0x18 }
  - { offset: 0x5FBCA, size: 0x8, addend: 0x0, symName: _rust_eh_personality, symObjAddr: 0x44DE8, symBinAddr: 0x1000394E0, symSize: 0x368 }
  - { offset: 0x5FEFF, size: 0x8, addend: 0x0, symName: __ZN3std3sys11personality5dwarf2eh19read_encoded_offset17he9cb5faabb9c188bE, symObjAddr: 0x3801C, symBinAddr: 0x100033754, symSize: 0x150 }
  - { offset: 0x60062, size: 0x8, addend: 0x0, symName: '__ZN3std3sys9backtrace10_print_fmt28_$u7b$$u7b$closure$u7d$$u7d$17h1863ed5b66499a89E', symObjAddr: 0x38458, symBinAddr: 0x100033B90, symSize: 0x30 }
  - { offset: 0x6008B, size: 0x8, addend: 0x0, symName: '__ZN3std3sys9backtrace10_print_fmt28_$u7b$$u7b$closure$u7d$$u7d$17h49125cd88324db11E', symObjAddr: 0x38488, symBinAddr: 0x100033BC0, symSize: 0x134 }
  - { offset: 0x6019F, size: 0x8, addend: 0x0, symName: '__ZN3std3sys9backtrace10_print_fmt28_$u7b$$u7b$closure$u7d$$u7d$28_$u7b$$u7b$closure$u7d$$u7d$17heb5be01c54158345E', symObjAddr: 0x385BC, symBinAddr: 0x100033CF4, symSize: 0x25C }
  - { offset: 0x603DB, size: 0x8, addend: 0x0, symName: __ZN3std3sys9backtrace4lock17h6e02177f0f3558baE, symObjAddr: 0x3816C, symBinAddr: 0x1000338A4, symSize: 0x70 }
  - { offset: 0x60524, size: 0x8, addend: 0x0, symName: __ZN3std3sys9backtrace13BacktraceLock5print17h115149c0b879e5c3E, symObjAddr: 0x381DC, symBinAddr: 0x100033914, symSize: 0x54 }
  - { offset: 0x60571, size: 0x8, addend: 0x0, symName: '__ZN98_$LT$std..sys..backtrace..BacktraceLock..print..DisplayBacktrace$u20$as$u20$core..fmt..Display$GT$3fmt17h217270392019d164E', symObjAddr: 0x38230, symBinAddr: 0x100033968, symSize: 0x228 }
  - { offset: 0x60AF3, size: 0x8, addend: 0x0, symName: __ZN3std3sys9backtrace26__rust_end_short_backtrace17h911de07218b69a6cE, symObjAddr: 0x38818, symBinAddr: 0x100033F50, symSize: 0xC }
  - { offset: 0x60B0D, size: 0x8, addend: 0x0, symName: __ZN3std3sys9backtrace15output_filename17h988a0b5399b264d6E, symObjAddr: 0x38830, symBinAddr: 0x100033F5C, symSize: 0xFC }
  - { offset: 0x60CD1, size: 0x8, addend: 0x0, symName: '__ZN3std3sys4sync8once_box16OnceBox$LT$T$GT$10initialize17h482967fb77aa636aE', symObjAddr: 0x3899C, symBinAddr: 0x10004F364, symSize: 0xEC }
  - { offset: 0x60FBA, size: 0x8, addend: 0x0, symName: __ZN3std3sys4sync6rwlock5queue6RwLock21read_unlock_contended17ha1da939695eb68a4E, symObjAddr: 0x479D0, symBinAddr: 0x10004F710, symSize: 0x50 }
  - { offset: 0x6112A, size: 0x8, addend: 0x0, symName: __ZN3std3sys4sync6rwlock5queue6RwLock16unlock_contended17hb1bda0f6c9583d94E, symObjAddr: 0x47A20, symBinAddr: 0x10004F760, symSize: 0x50 }
  - { offset: 0x61206, size: 0x8, addend: 0x0, symName: __ZN3std3sys4sync6rwlock5queue6RwLock12unlock_queue17h1e38a16940d3a0e6E, symObjAddr: 0x47B84, symBinAddr: 0x100039B94, symSize: 0x1D8 }
  - { offset: 0x61953, size: 0x8, addend: 0x0, symName: __ZN3std3sys4sync6rwlock5queue9read_lock17h02feed94edb2ee18E, symObjAddr: 0x47710, symBinAddr: 0x100039B68, symSize: 0x2C }
  - { offset: 0x61A2E, size: 0x8, addend: 0x0, symName: __ZN3std3sys4sync4once5queue4Once4call17hc1cbcad9bb87275cE, symObjAddr: 0x47310, symBinAddr: 0x10004F5B0, symSize: 0x160 }
  - { offset: 0x61B56, size: 0x8, addend: 0x0, symName: __ZN3std3sys4sync4once5queue4wait17h58ee39f231bfccb9E, symObjAddr: 0x47470, symBinAddr: 0x1000398E8, symSize: 0x198 }
  - { offset: 0x620D2, size: 0x8, addend: 0x0, symName: '__ZN82_$LT$std..sys..sync..once..queue..WaiterQueue$u20$as$u20$core..ops..drop..Drop$GT$4drop17h45f863b67fd27f71E', symObjAddr: 0x47608, symBinAddr: 0x100039A80, symSize: 0xE8 }
  - { offset: 0x62330, size: 0x8, addend: 0x0, symName: '__ZN3std3sys12thread_local6native4lazy20Storage$LT$T$C$D$GT$10initialize17h61fa4697cd48c6f6E', symObjAddr: 0x47E24, symBinAddr: 0x10004F7B0, symSize: 0xC0 }
  - { offset: 0x62526, size: 0x8, addend: 0x0, symName: __ZN3std3sys12thread_local6native4lazy7destroy17h26d4ae6c1bac34fbE, symObjAddr: 0x47EE4, symBinAddr: 0x100039D6C, symSize: 0x54 }
  - { offset: 0x62694, size: 0x8, addend: 0x0, symName: __ZN3std3sys12thread_local5guard5apple6enable9run_dtors17h15022dedc81e5063E, symObjAddr: 0x4807C, symBinAddr: 0x100039F04, symSize: 0x13C }
  - { offset: 0x62BEE, size: 0x8, addend: 0x0, symName: __ZN3std3sys12thread_local11destructors4list8register17h51fb0c77f8b321e6E, symObjAddr: 0x47F38, symBinAddr: 0x100039DC0, symSize: 0x144 }
  - { offset: 0x632A0, size: 0x8, addend: 0x0, symName: '__ZN80_$LT$std..io..Write..write_fmt..Adapter$LT$T$GT$$u20$as$u20$core..fmt..Write$GT$9write_str17h0698cdf4cfa713e8E', symObjAddr: 0x2D538, symBinAddr: 0x100031B78, symSize: 0xD8 }
  - { offset: 0x633F3, size: 0x8, addend: 0x0, symName: '__ZN80_$LT$std..io..Write..write_fmt..Adapter$LT$T$GT$$u20$as$u20$core..fmt..Write$GT$9write_str17h1c13ca75cd138050E', symObjAddr: 0x2D610, symBinAddr: 0x100031C50, symSize: 0x50 }
  - { offset: 0x6341D, size: 0x8, addend: 0x0, symName: '__ZN80_$LT$std..io..Write..write_fmt..Adapter$LT$T$GT$$u20$as$u20$core..fmt..Write$GT$9write_str17h58a4ca428f95c900E', symObjAddr: 0x2D738, symBinAddr: 0x100031CA0, symSize: 0xD0 }
  - { offset: 0x635D3, size: 0x8, addend: 0x0, symName: '__ZN80_$LT$std..io..Write..write_fmt..Adapter$LT$T$GT$$u20$as$u20$core..fmt..Write$GT$9write_str17h6eb5a36b1832c95eE', symObjAddr: 0x2D808, symBinAddr: 0x100031D70, symSize: 0x80 }
  - { offset: 0x63759, size: 0x8, addend: 0x0, symName: __ZN3std2io5Write9write_all17h87bc481c06d6b6c7E, symObjAddr: 0x2CC10, symBinAddr: 0x100031250, symSize: 0xB8 }
  - { offset: 0x63889, size: 0x8, addend: 0x0, symName: __ZN3std2io5Write18write_all_vectored17h0d3be626dc41da2eE, symObjAddr: 0x2CCC8, symBinAddr: 0x100031308, symSize: 0x264 }
  - { offset: 0x63D31, size: 0x8, addend: 0x0, symName: __ZN3std2io5Write18write_all_vectored17h0f11e99192ac0da3E, symObjAddr: 0x2CF2C, symBinAddr: 0x10003156C, symSize: 0x2A0 }
  - { offset: 0x641CF, size: 0x8, addend: 0x0, symName: __ZN3std2io5Write9write_fmt17h6564db7565ec4928E, symObjAddr: 0x2D1CC, symBinAddr: 0x10003180C, symSize: 0x124 }
  - { offset: 0x643E3, size: 0x8, addend: 0x0, symName: __ZN3std2io5Write9write_fmt17h6e471a53cbe47e27E, symObjAddr: 0x2D2F0, symBinAddr: 0x100031930, symSize: 0x124 }
  - { offset: 0x645F7, size: 0x8, addend: 0x0, symName: __ZN3std2io5Write9write_fmt17hb32eaafcfd249a19E, symObjAddr: 0x2D414, symBinAddr: 0x100031A54, symSize: 0x124 }
  - { offset: 0x64824, size: 0x8, addend: 0x0, symName: '__ZN3std2io5impls74_$LT$impl$u20$std..io..Write$u20$for$u20$alloc..vec..Vec$LT$u8$C$A$GT$$GT$5write17hf1a6df91b3a9c331E', symObjAddr: 0x2731C, symBinAddr: 0x100030268, symSize: 0x84 }
  - { offset: 0x64969, size: 0x8, addend: 0x0, symName: '__ZN3std2io5impls74_$LT$impl$u20$std..io..Write$u20$for$u20$alloc..vec..Vec$LT$u8$C$A$GT$$GT$14write_vectored17h935681c1f031c204E', symObjAddr: 0x273A0, symBinAddr: 0x1000302EC, symSize: 0x174 }
  - { offset: 0x64BB6, size: 0x8, addend: 0x0, symName: '__ZN3std2io5impls74_$LT$impl$u20$std..io..Write$u20$for$u20$alloc..vec..Vec$LT$u8$C$A$GT$$GT$17is_write_vectored17h4055b148f544ec6cE', symObjAddr: 0x27514, symBinAddr: 0x100030460, symSize: 0x14 }
  - { offset: 0x64BD1, size: 0x8, addend: 0x0, symName: '__ZN3std2io5impls74_$LT$impl$u20$std..io..Write$u20$for$u20$alloc..vec..Vec$LT$u8$C$A$GT$$GT$9write_all17h8667482891c5bc01E', symObjAddr: 0x27528, symBinAddr: 0x100030474, symSize: 0x80 }
  - { offset: 0x64D0F, size: 0x8, addend: 0x0, symName: '__ZN3std2io5impls74_$LT$impl$u20$std..io..Write$u20$for$u20$alloc..vec..Vec$LT$u8$C$A$GT$$GT$5flush17h1aa70c4ce0391c44E', symObjAddr: 0x275A8, symBinAddr: 0x1000304F4, symSize: 0x14 }
  - { offset: 0x64EE7, size: 0x8, addend: 0x0, symName: __ZN3std2io5error14repr_bitpacked11decode_repr17h37cbf447dd36b64bE, symObjAddr: 0x26A7C, symBinAddr: 0x10002FD5C, symSize: 0x64 }
  - { offset: 0x64F56, size: 0x8, addend: 0x0, symName: '__ZN58_$LT$std..io..error..Error$u20$as$u20$core..fmt..Debug$GT$3fmt17h4ed4286e752207faE', symObjAddr: 0x26AE0, symBinAddr: 0x10002FDC0, symSize: 0x10 }
  - { offset: 0x64F89, size: 0x8, addend: 0x0, symName: '__ZN3std2io5error83_$LT$impl$u20$core..fmt..Debug$u20$for$u20$std..io..error..repr_bitpacked..Repr$GT$3fmt17h65ae83bc7dc9681bE', symObjAddr: 0x26D88, symBinAddr: 0x10002FDD0, symSize: 0x294 }
  - { offset: 0x651D4, size: 0x8, addend: 0x0, symName: '__ZN60_$LT$std..io..error..Error$u20$as$u20$core..fmt..Display$GT$3fmt17h9bd80ee0c1811a25E', symObjAddr: 0x2701C, symBinAddr: 0x100030064, symSize: 0x204 }
  - { offset: 0x65433, size: 0x8, addend: 0x0, symName: '__ZN62_$LT$std..io..error..ErrorKind$u20$as$u20$core..fmt..Debug$GT$3fmt17h219a5c9d2c7eda43E', symObjAddr: 0x3C098, symBinAddr: 0x100035AB0, symSize: 0x34 }
  - { offset: 0x6546B, size: 0x8, addend: 0x0, symName: '__ZN3std2io8buffered9bufwriter18BufWriter$LT$W$GT$9flush_buf17h4bdccd2184fd8b56E', symObjAddr: 0x25FE4, symBinAddr: 0x10002FB58, symSize: 0x204 }
  - { offset: 0x65A21, size: 0x8, addend: 0x0, symName: '__ZN3std2io8buffered9bufwriter18BufWriter$LT$W$GT$14write_all_cold17h03d13fe4cf302958E', symObjAddr: 0x26374, symBinAddr: 0x10004EF58, symSize: 0x128 }
  - { offset: 0x65E4F, size: 0x8, addend: 0x0, symName: '__ZN61_$LT$$RF$std..io..stdio..Stdout$u20$as$u20$std..io..Write$GT$9write_fmt17h14426c11ecd17a4cE', symObjAddr: 0x2A280, symBinAddr: 0x100030508, symSize: 0x18C }
  - { offset: 0x66249, size: 0x8, addend: 0x0, symName: '__ZN61_$LT$std..io..stdio..StdoutLock$u20$as$u20$std..io..Write$GT$9write_all17hdf550e962fae6ee2E', symObjAddr: 0x2A744, symBinAddr: 0x100030694, symSize: 0x268 }
  - { offset: 0x66A24, size: 0x8, addend: 0x0, symName: __ZN3std2io5stdio6Stderr4lock17ha6b178440672670eE, symObjAddr: 0x2ACBC, symBinAddr: 0x1000308FC, symSize: 0xF0 }
  - { offset: 0x66D14, size: 0x8, addend: 0x0, symName: __ZN3std2io5stdio22try_set_output_capture17h3c34954bc62c0e61E, symObjAddr: 0x2BA8C, symBinAddr: 0x1000309EC, symSize: 0xF4 }
  - { offset: 0x66F67, size: 0x8, addend: 0x0, symName: __ZN3std2io5stdio31print_to_buffer_if_capture_used17h604f8acf6a08e2ebE, symObjAddr: 0x2BB80, symBinAddr: 0x100030AE0, symSize: 0x20C }
  - { offset: 0x67672, size: 0x8, addend: 0x0, symName: __ZN3std2io5stdio6_print17h6200d46cef53dee1E, symObjAddr: 0x2BE5C, symBinAddr: 0x100030CEC, symSize: 0xE4 }
  - { offset: 0x67829, size: 0x8, addend: 0x0, symName: __ZN3std2io19default_read_to_end16small_probe_read17ha9dc90b1ffc28764E, symObjAddr: 0x2C98C, symBinAddr: 0x10003104C, symSize: 0x100 }
  - { offset: 0x67A40, size: 0x8, addend: 0x0, symName: __ZN3std2io19default_read_to_end16small_probe_read17heb774478ee1d979dE, symObjAddr: 0x2CA8C, symBinAddr: 0x10003114C, symSize: 0x104 }
  - { offset: 0x67C3C, size: 0x8, addend: 0x0, symName: __ZN3std2io19default_read_to_end17hbd5956a78598a421E, symObjAddr: 0x2C50C, symBinAddr: 0x100030DD0, symSize: 0x27C }
  - { offset: 0x68102, size: 0x8, addend: 0x0, symName: '__ZN3std4sync6poison4once4Once15call_once_force28_$u7b$$u7b$closure$u7d$$u7d$17hb663b4fc9d65cdd9E', symObjAddr: 0x36574, symBinAddr: 0x100033674, symSize: 0x60 }
  - { offset: 0x681E4, size: 0x8, addend: 0x0, symName: '__ZN3std4sync6poison4once4Once15call_once_force28_$u7b$$u7b$closure$u7d$$u7d$17hdc9b4573ce8ff5c2E', symObjAddr: 0x365D4, symBinAddr: 0x1000336D4, symSize: 0x80 }
  - { offset: 0x68352, size: 0x8, addend: 0x0, symName: '__ZN3std4sync6poison4once4Once9call_once28_$u7b$$u7b$closure$u7d$$u7d$17h972e10e961241d2eE', symObjAddr: 0x36114, symBinAddr: 0x100033418, symSize: 0x25C }
  - { offset: 0x68DA5, size: 0x8, addend: 0x0, symName: '__ZN3std4sync9once_lock17OnceLock$LT$T$GT$10initialize17h5a4e2f750c24f788E', symObjAddr: 0x37008, symBinAddr: 0x10004F08C, symSize: 0x64 }
  - { offset: 0x68DD0, size: 0x8, addend: 0x0, symName: '__ZN3std4sync9once_lock17OnceLock$LT$T$GT$10initialize17h5a4e2f750c24f788E', symObjAddr: 0x37008, symBinAddr: 0x10004F08C, symSize: 0x64 }
  - { offset: 0x68DE4, size: 0x8, addend: 0x0, symName: '__ZN3std4sync9once_lock17OnceLock$LT$T$GT$10initialize17h5a4e2f750c24f788E', symObjAddr: 0x37008, symBinAddr: 0x10004F08C, symSize: 0x64 }
  - { offset: 0x68DF8, size: 0x8, addend: 0x0, symName: '__ZN3std4sync9once_lock17OnceLock$LT$T$GT$10initialize17h5a4e2f750c24f788E', symObjAddr: 0x37008, symBinAddr: 0x10004F08C, symSize: 0x64 }
  - { offset: 0x68E0E, size: 0x8, addend: 0x0, symName: '__ZN3std4sync9once_lock17OnceLock$LT$T$GT$10initialize17hde8bf60cb9cf1a08E', symObjAddr: 0x3706C, symBinAddr: 0x10004F0F0, symSize: 0x68 }
  - { offset: 0x68E39, size: 0x8, addend: 0x0, symName: '__ZN3std4sync9once_lock17OnceLock$LT$T$GT$10initialize17hde8bf60cb9cf1a08E', symObjAddr: 0x3706C, symBinAddr: 0x10004F0F0, symSize: 0x68 }
  - { offset: 0x68E4D, size: 0x8, addend: 0x0, symName: '__ZN3std4sync9once_lock17OnceLock$LT$T$GT$10initialize17hde8bf60cb9cf1a08E', symObjAddr: 0x3706C, symBinAddr: 0x10004F0F0, symSize: 0x68 }
  - { offset: 0x68E61, size: 0x8, addend: 0x0, symName: '__ZN3std4sync9once_lock17OnceLock$LT$T$GT$10initialize17hde8bf60cb9cf1a08E', symObjAddr: 0x3706C, symBinAddr: 0x10004F0F0, symSize: 0x68 }
  - { offset: 0x68FAC, size: 0x8, addend: 0x0, symName: __ZN3std2rt19lang_start_internal17h95cf27b851151b9cE, symObjAddr: 0x1EEA4, symBinAddr: 0x10002E764, symSize: 0x684 }
  - { offset: 0x69BD8, size: 0x8, addend: 0x0, symName: __ZN3std12backtrace_rs9symbolize5gimli7Context3new17h596fdfe772dc2bb6E, symObjAddr: 0x482F4, symBinAddr: 0x10003A0CC, symSize: 0x2410 }
  - { offset: 0x6DA99, size: 0x8, addend: 0x0, symName: __ZN3std12backtrace_rs9symbolize5gimli7Context11find_frames17h5933b96d93a6487fE, symObjAddr: 0x4A704, symBinAddr: 0x10003C4DC, symSize: 0x37C }
  - { offset: 0x6DF2D, size: 0x8, addend: 0x0, symName: __ZN3std12backtrace_rs9symbolize5gimli5macho6Object5parse17h7c99ba302784e02bE, symObjAddr: 0x4D518, symBinAddr: 0x10003F2C0, symSize: 0xBD0 }
  - { offset: 0x6FDEC, size: 0x8, addend: 0x0, symName: __ZN3std12backtrace_rs9symbolize5gimli5macho6Object7section17h7775decf80db3f1dE, symObjAddr: 0x4E0E8, symBinAddr: 0x10003FE90, symSize: 0x3A0 }
  - { offset: 0x702C2, size: 0x8, addend: 0x0, symName: __ZN3std12backtrace_rs9symbolize5gimli5macho11find_header17hcafb8c4177e72185E, symObjAddr: 0x4D344, symBinAddr: 0x10003F0EC, symSize: 0x1D4 }
  - { offset: 0x709C5, size: 0x8, addend: 0x0, symName: __ZN3std12backtrace_rs9symbolize5gimli4mmap17h52426abb42b033dbE, symObjAddr: 0x4AA80, symBinAddr: 0x10003C858, symSize: 0x160 }
  - { offset: 0x70FDB, size: 0x8, addend: 0x0, symName: __ZN3std12backtrace_rs9symbolize5gimli7resolve17h4e500df68d74bbd0E, symObjAddr: 0x4ABE0, symBinAddr: 0x10003C9B8, symSize: 0x2734 }
  - { offset: 0x76FE6, size: 0x8, addend: 0x0, symName: __ZN3std12backtrace_rs9symbolize6Symbol4name17hfe1d12d8092fe441E, symObjAddr: 0x3B724, symBinAddr: 0x1000353FC, symSize: 0xE4 }
  - { offset: 0x77121, size: 0x8, addend: 0x0, symName: '__ZN79_$LT$std..backtrace_rs..symbolize..SymbolName$u20$as$u20$core..fmt..Display$GT$3fmt17hebc8fecc1f34ea4cE', symObjAddr: 0x3B948, symBinAddr: 0x1000354E0, symSize: 0x100 }
  - { offset: 0x7725F, size: 0x8, addend: 0x0, symName: __ZN3std12backtrace_rs9backtrace9libunwind5trace8trace_fn17h8dbf4a7a3c414c4fE, symObjAddr: 0x482AC, symBinAddr: 0x10003A084, symSize: 0x48 }
  - { offset: 0x7733E, size: 0x8, addend: 0x0, symName: __ZN3std12backtrace_rs5print17BacktraceFrameFmt21print_raw_with_column17h4b2c8f5f934c00c0E, symObjAddr: 0x3BB48, symBinAddr: 0x1000355E0, symSize: 0x4D0 }
  - { offset: 0x77642, size: 0x8, addend: 0x0, symName: __ZN3std6thread7current16try_with_current17h38cb00b0189d4132E, symObjAddr: 0x1F754, symBinAddr: 0x10002EDE8, symSize: 0x98 }
  - { offset: 0x77776, size: 0x8, addend: 0x0, symName: __ZN3std6thread7current12init_current17hb7b435bd17801980E, symObjAddr: 0x1F900, symBinAddr: 0x10004EDA4, symSize: 0x17C }
  - { offset: 0x77B42, size: 0x8, addend: 0x0, symName: __ZN3std6thread6Thread3new17h37ed5d6af114daceE, symObjAddr: 0x20814, symBinAddr: 0x10002EF7C, symSize: 0x164 }
  - { offset: 0x7800D, size: 0x8, addend: 0x0, symName: '__ZN118_$LT$std..thread..thread_name_string..ThreadNameString$u20$as$u20$core..convert..From$LT$alloc..string..String$GT$$GT$4from17h83ebc56d52812e83E', symObjAddr: 0x20718, symBinAddr: 0x10002EE80, symSize: 0xFC }
  - { offset: 0x781F8, size: 0x8, addend: 0x0, symName: __ZN3std6thread8ThreadId3new9exhausted17h1c0c206286c216f1E, symObjAddr: 0x206E0, symBinAddr: 0x10004EF20, symSize: 0x38 }
  - { offset: 0x782E1, size: 0x8, addend: 0x0, symName: __ZN3std5panic19get_backtrace_style17hb0947c7d43e173b3E, symObjAddr: 0x31B78, symBinAddr: 0x100031DF0, symSize: 0x10C }
  - { offset: 0x782FF, size: 0x8, addend: 0x0, symName: __ZN3std5panic19get_backtrace_style17hb0947c7d43e173b3E, symObjAddr: 0x31B78, symBinAddr: 0x100031DF0, symSize: 0x10C }
  - { offset: 0x78314, size: 0x8, addend: 0x0, symName: __ZN3std5panic19get_backtrace_style17hb0947c7d43e173b3E, symObjAddr: 0x31B78, symBinAddr: 0x100031DF0, symSize: 0x10C }
  - { offset: 0x7870E, size: 0x8, addend: 0x0, symName: __ZN3std3env11current_dir17h378d2e00353b8c55E, symObjAddr: 0x21D9C, symBinAddr: 0x10002F0E0, symSize: 0x1D0 }
  - { offset: 0x78A87, size: 0x8, addend: 0x0, symName: __ZN3std3env7vars_os17h852cf544c003c314E, symObjAddr: 0x21F7C, symBinAddr: 0x10002F2B0, symSize: 0x314 }
  - { offset: 0x7910A, size: 0x8, addend: 0x0, symName: __ZN3std3env7_var_os17h91cf52b19c1ae9d5E, symObjAddr: 0x22698, symBinAddr: 0x10002F5C4, symSize: 0x160 }
  - { offset: 0x793CD, size: 0x8, addend: 0x0, symName: __ZN3std2fs11OpenOptions5_open17h060c4979cd359a16E, symObjAddr: 0x24BC4, symBinAddr: 0x10002F908, symSize: 0x250 }
  - { offset: 0x79568, size: 0x8, addend: 0x0, symName: __ZN3std2fs14read_to_string5inner17h9513de05add469b2E, symObjAddr: 0x23B2C, symBinAddr: 0x10002F724, symSize: 0x1E4 }
  - { offset: 0x79BE1, size: 0x8, addend: 0x0, symName: __ZN3std5alloc24default_alloc_error_hook17h2ab9053c5916c535E, symObjAddr: 0x39CF4, symBinAddr: 0x100034058, symSize: 0x13C }
  - { offset: 0x79E24, size: 0x8, addend: 0x0, symName: ___rdl_alloc, symObjAddr: 0x39E30, symBinAddr: 0x100034194, symSize: 0x6C }
  - { offset: 0x79EA0, size: 0x8, addend: 0x0, symName: ___rdl_dealloc, symObjAddr: 0x39E9C, symBinAddr: 0x100034200, symSize: 0x10 }
  - { offset: 0x79ED0, size: 0x8, addend: 0x0, symName: ___rdl_realloc, symObjAddr: 0x39EAC, symBinAddr: 0x100034210, symSize: 0xB0 }
  - { offset: 0x79FA2, size: 0x8, addend: 0x0, symName: ___rdl_alloc_zeroed, symObjAddr: 0x39F5C, symBinAddr: 0x1000342C0, symSize: 0x90 }
  - { offset: 0x7A040, size: 0x8, addend: 0x0, symName: __ZN3std5alloc8rust_oom17hb46c5aeb63fa3cb5E, symObjAddr: 0x481B8, symBinAddr: 0x10003A040, symSize: 0x2C }
  - { offset: 0x7A08F, size: 0x8, addend: 0x0, symName: ___rg_oom, symObjAddr: 0x481E4, symBinAddr: 0x10003A06C, symSize: 0x18 }
  - { offset: 0x7A1D6, size: 0x8, addend: 0x0, symName: '__ZN5gimli4read4unit32AttributeValue$LT$R$C$Offset$GT$11udata_value17h2b61cc9b6a98fb32E', symObjAddr: 0x14DE0, symBinAddr: 0x100024C74, symSize: 0x90 }
  - { offset: 0x7A231, size: 0x8, addend: 0x0, symName: __ZN5gimli4read4unit15parse_attribute17h49f957a62d462029E, symObjAddr: 0x130AC, symBinAddr: 0x100022F40, symSize: 0xF74 }
  - { offset: 0x7CF24, size: 0x8, addend: 0x0, symName: __ZN5gimli4read4unit15skip_attributes17h31562773efeee2f1E, symObjAddr: 0x14020, symBinAddr: 0x100023EB4, symSize: 0x52C }
  - { offset: 0x7D946, size: 0x8, addend: 0x0, symName: '__ZN5gimli4read4unit18Attribute$LT$R$GT$5value17hbc90a819c686a39aE', symObjAddr: 0x1454C, symBinAddr: 0x1000243E0, symSize: 0x5DC }
  - { offset: 0x7DEEB, size: 0x8, addend: 0x0, symName: '__ZN5gimli4read4unit22EntriesCursor$LT$R$GT$10next_entry17hdf28d3cec3327cb6E', symObjAddr: 0x14B28, symBinAddr: 0x1000249BC, symSize: 0x2B8 }
  - { offset: 0x7E4E1, size: 0x8, addend: 0x0, symName: '__ZN5gimli4read4unit33DebugInfoUnitHeadersIter$LT$R$GT$4next17h34712ebaabdffee4E', symObjAddr: 0x14E70, symBinAddr: 0x100024D04, symSize: 0x524 }
  - { offset: 0x7F61A, size: 0x8, addend: 0x0, symName: '__ZN90_$LT$gimli..read..unit..AttributeValue$LT$R$C$Offset$GT$$u20$as$u20$core..clone..Clone$GT$5clone17h20eda0c245e8425dE', symObjAddr: 0x19914, symBinAddr: 0x1000292F0, symSize: 0x68 }
  - { offset: 0x7F86B, size: 0x8, addend: 0x0, symName: __ZN5gimli4read6reader6Reader11read_offset17hb66bf69f998efb74E, symObjAddr: 0x179B8, symBinAddr: 0x10002784C, symSize: 0xBC }
  - { offset: 0x7FAA7, size: 0x8, addend: 0x0, symName: __ZN5gimli4read6reader6Reader12read_sleb12817hd93e25793436fd15E, symObjAddr: 0x17A74, symBinAddr: 0x100027908, symSize: 0x21C }
  - { offset: 0x7FB97, size: 0x8, addend: 0x0, symName: __ZN5gimli4read6reader6Reader12read_uleb12817ha415c724c08e32b4E, symObjAddr: 0x17C90, symBinAddr: 0x100027B24, symSize: 0xB0 }
  - { offset: 0x7FC4D, size: 0x8, addend: 0x0, symName: __ZN5gimli4read6reader6Reader17read_sized_offset17hbf387c98074d1971E, symObjAddr: 0x17D40, symBinAddr: 0x100027BD4, symSize: 0xEC }
  - { offset: 0x80060, size: 0x8, addend: 0x0, symName: __ZN5gimli4read4line13parse_file_v517hcd59a31a0bc27fa9E, symObjAddr: 0x11F1C, symBinAddr: 0x100021DB0, symSize: 0x2B4 }
  - { offset: 0x801D8, size: 0x8, addend: 0x0, symName: __ZN5gimli4read4line15FileEntryFormat5parse17he68be02eb21a6f6cE, symObjAddr: 0x121D0, symBinAddr: 0x100022064, symSize: 0x370 }
  - { offset: 0x809FF, size: 0x8, addend: 0x0, symName: __ZN5gimli4read4line15parse_attribute17h6dcb28bb0d8f0d55E, symObjAddr: 0x12540, symBinAddr: 0x1000223D4, symSize: 0x86C }
  - { offset: 0x8219C, size: 0x8, addend: 0x0, symName: __ZN5gimli4read4line18parse_directory_v517h7ed9e48bb2fa518bE, symObjAddr: 0x12DAC, symBinAddr: 0x100022C40, symSize: 0xE8 }
  - { offset: 0x8222D, size: 0x8, addend: 0x0, symName: '__ZN5gimli4read4line27FileEntry$LT$R$C$Offset$GT$5parse17h0cf5e73c1698de2fE', symObjAddr: 0x12E94, symBinAddr: 0x100022D28, symSize: 0x218 }
  - { offset: 0x82953, size: 0x8, addend: 0x0, symName: '__ZN5gimli4read5dwarf14Dwarf$LT$R$GT$11attr_string17hc40cc697c7ad324fE', symObjAddr: 0x17104, symBinAddr: 0x100026F98, symSize: 0x1E8 }
  - { offset: 0x831A1, size: 0x8, addend: 0x0, symName: '__ZN5gimli4read5dwarf13Unit$LT$R$GT$3new17h9c8abef5d8c50a6dE', symObjAddr: 0x15394, symBinAddr: 0x100025228, symSize: 0x1D70 }
  - { offset: 0x86DB3, size: 0x8, addend: 0x0, symName: '__ZN5gimli4read5index18UnitIndex$LT$R$GT$5parse17haa9f95b067464b66E', symObjAddr: 0x172EC, symBinAddr: 0x100027180, symSize: 0x6CC }
  - { offset: 0x8737A, size: 0x8, addend: 0x0, symName: '__ZN5gimli4read7aranges30ArangeHeader$LT$R$C$Offset$GT$5parse17h20619b15205da501E', symObjAddr: 0x17E2C, symBinAddr: 0x100027CC0, symSize: 0x2A8 }
  - { offset: 0x87C31, size: 0x8, addend: 0x0, symName: '__ZN5gimli4read8rnglists20RngListIter$LT$R$GT$4next17h7e27fd598c933045E', symObjAddr: 0x180D4, symBinAddr: 0x100027F68, symSize: 0xC74 }
  - { offset: 0x8AB70, size: 0x8, addend: 0x0, symName: '__ZN9addr2line8function17Function$LT$R$GT$14parse_children17he1d2dd4eaf8a7357E', symObjAddr: 0x1DDF8, symBinAddr: 0x10002D71C, symSize: 0xE88 }
  - { offset: 0x8C3AF, size: 0x8, addend: 0x0, symName: __ZN9addr2line8function10name_entry17hd712c6a5749c0b0eE, symObjAddr: 0x1DA8C, symBinAddr: 0x10002D3B0, symSize: 0x36C }
  - { offset: 0x8C878, size: 0x8, addend: 0x0, symName: __ZN9addr2line8function9name_attr17h41adbb1d91e81904E, symObjAddr: 0x1EC80, symBinAddr: 0x10002E5A4, symSize: 0x1C0 }
  - { offset: 0x8CA9B, size: 0x8, addend: 0x0, symName: '__ZN9addr2line4unit16ResUnit$LT$R$GT$25find_function_or_location17h353b18e237b7b2c9E', symObjAddr: 0x1BBAC, symBinAddr: 0x10002B4D0, symSize: 0x39C }
  - { offset: 0x8D000, size: 0x8, addend: 0x0, symName: '__ZN9addr2line4unit16ResUnit$LT$R$GT$25find_function_or_location28_$u7b$$u7b$closure$u7d$$u7d$17h6a4d5a45c96dd11cE', symObjAddr: 0x1BF48, symBinAddr: 0x10002B86C, symSize: 0x1490 }
  - { offset: 0x8F93C, size: 0x8, addend: 0x0, symName: '__ZN9addr2line16Context$LT$R$GT$9find_unit17h672f8cef0a6cef5fE', symObjAddr: 0x19A34, symBinAddr: 0x100029358, symSize: 0x168 }
  - { offset: 0x8FAD3, size: 0x8, addend: 0x0, symName: __ZN9addr2line4line11render_file17h56c7df47359e37daE, symObjAddr: 0x19B9C, symBinAddr: 0x1000294C0, symSize: 0x4C0 }
  - { offset: 0x903E9, size: 0x8, addend: 0x0, symName: __ZN9addr2line4line9LazyLines6borrow17ha6d975a019e23e93E, symObjAddr: 0x1A05C, symBinAddr: 0x100029980, symSize: 0x1B50 }
  - { offset: 0x93834, size: 0x8, addend: 0x0, symName: '__ZN9addr2line6lookup30LoopingLookup$LT$T$C$L$C$F$GT$10new_lookup17h590d4f5c6451cf3cE', symObjAddr: 0x1D654, symBinAddr: 0x10002CF78, symSize: 0x438 }
  - { offset: 0x93DD3, size: 0x8, addend: 0x0, symName: '__ZN9addr2line5frame18FrameIter$LT$R$GT$4next17h4512ac685f8f4647E', symObjAddr: 0x1D3D8, symBinAddr: 0x10002CCFC, symSize: 0x27C }
  - { offset: 0x94273, size: 0x8, addend: 0x0, symName: __ZN6object4read7archive13ArchiveMember5parse17he23e9c7a2dcdb639E, symObjAddr: 0x19204, symBinAddr: 0x100028C44, symSize: 0x41C }
  - { offset: 0x94E05, size: 0x8, addend: 0x0, symName: __ZN6object4read7archive23parse_bsd_extended_name17hc2b3d25eef9eeec9E, symObjAddr: 0x19620, symBinAddr: 0x100029060, symSize: 0x250 }
  - { offset: 0x95C54, size: 0x8, addend: 0x0, symName: _OUTLINED_FUNCTION_0, symObjAddr: 0x4E488, symBinAddr: 0x100040230, symSize: 0x24 }
  - { offset: 0x95C6C, size: 0x8, addend: 0x0, symName: _OUTLINED_FUNCTION_1, symObjAddr: 0x4E4AC, symBinAddr: 0x100040254, symSize: 0x8 }
  - { offset: 0x95C84, size: 0x8, addend: 0x0, symName: _OUTLINED_FUNCTION_2, symObjAddr: 0x4E4B4, symBinAddr: 0x10004025C, symSize: 0x10 }
  - { offset: 0x95C9C, size: 0x8, addend: 0x0, symName: _OUTLINED_FUNCTION_3, symObjAddr: 0x4E4C4, symBinAddr: 0x10004026C, symSize: 0x8 }
  - { offset: 0x95CB4, size: 0x8, addend: 0x0, symName: _OUTLINED_FUNCTION_4, symObjAddr: 0x4E4CC, symBinAddr: 0x100040274, symSize: 0x8 }
  - { offset: 0x95CCC, size: 0x8, addend: 0x0, symName: _OUTLINED_FUNCTION_5, symObjAddr: 0x4E4D4, symBinAddr: 0x10004027C, symSize: 0xC }
  - { offset: 0x95D02, size: 0x8, addend: 0x0, symName: '__ZN4core3ptr49drop_in_place$LT$panic_unwind..imp..Exception$GT$17h82c2656372694058E', symObjAddr: 0x0, symBinAddr: 0x100040288, symSize: 0x78 }
  - { offset: 0x95D28, size: 0x8, addend: 0x0, symName: '__ZN4core3ptr49drop_in_place$LT$panic_unwind..imp..Exception$GT$17h82c2656372694058E', symObjAddr: 0x0, symBinAddr: 0x100040288, symSize: 0x78 }
  - { offset: 0x95E2F, size: 0x8, addend: 0x0, symName: '__ZN4core3ptr74drop_in_place$LT$alloc..boxed..Box$LT$panic_unwind..imp..Exception$GT$$GT$17h401304109b323233E', symObjAddr: 0x78, symBinAddr: 0x100040300, symSize: 0x8C }
  - { offset: 0x96105, size: 0x8, addend: 0x0, symName: __ZN12panic_unwind3imp5panic17exception_cleanup17h71dcf2e4fc4aa769E, symObjAddr: 0x214, symBinAddr: 0x10004049C, symSize: 0x18 }
  - { offset: 0x96121, size: 0x8, addend: 0x0, symName: ___rust_panic_cleanup, symObjAddr: 0x104, symBinAddr: 0x10004038C, symSize: 0x68 }
  - { offset: 0x961C3, size: 0x8, addend: 0x0, symName: ___rust_start_panic, symObjAddr: 0x16C, symBinAddr: 0x1000403F4, symSize: 0xA8 }
  - { offset: 0x9627D, size: 0x8, addend: 0x0, symName: '__ZN42_$LT$$RF$T$u20$as$u20$core..fmt..Debug$GT$3fmt17hd0ab4e0c95fc0278E', symObjAddr: 0x0, symBinAddr: 0x100048CD8, symSize: 0x30 }
  - { offset: 0x962C7, size: 0x8, addend: 0x0, symName: '__ZN42_$LT$$RF$T$u20$as$u20$core..fmt..Debug$GT$3fmt17hd0ab4e0c95fc0278E', symObjAddr: 0x0, symBinAddr: 0x100048CD8, symSize: 0x30 }
  - { offset: 0x9630D, size: 0x8, addend: 0x0, symName: '__ZN42_$LT$$RF$T$u20$as$u20$core..fmt..Debug$GT$3fmt17hf848de7b5d82925fE', symObjAddr: 0x4C, symBinAddr: 0x100048D08, symSize: 0x64 }
  - { offset: 0x96356, size: 0x8, addend: 0x0, symName: __ZN4core3fmt5Write9write_fmt17h34da48fe3ce12459E, symObjAddr: 0xB0, symBinAddr: 0x100048D6C, symSize: 0x1C }
  - { offset: 0x96398, size: 0x8, addend: 0x0, symName: '__ZN53_$LT$core..fmt..Error$u20$as$u20$core..fmt..Debug$GT$3fmt17h157e499588de2939E', symObjAddr: 0x1A0, symBinAddr: 0x100048DB0, symSize: 0x20 }
  - { offset: 0x96433, size: 0x8, addend: 0x0, symName: '__ZN4core3ptr42drop_in_place$LT$alloc..string..String$GT$17h80ba3db6f9cea51cE', symObjAddr: 0xF4, symBinAddr: 0x100048D88, symSize: 0x28 }
  - { offset: 0x9652F, size: 0x8, addend: 0x0, symName: __ZN4core9panicking13assert_failed17h029558b6dec8cb1fE, symObjAddr: 0x170, symBinAddr: 0x10004F924, symSize: 0x30 }
  - { offset: 0x9655A, size: 0x8, addend: 0x0, symName: '__ZN69_$LT$core..alloc..layout..LayoutError$u20$as$u20$core..fmt..Debug$GT$3fmt17h847390e718c251f1E', symObjAddr: 0x1C0, symBinAddr: 0x100048DD0, symSize: 0x20 }
  - { offset: 0x969E2, size: 0x8, addend: 0x0, symName: __ZN5alloc7raw_vec17capacity_overflow17hf0a187d8de84083bE, symObjAddr: 0x1E0, symBinAddr: 0x100048DF0, symSize: 0x34 }
  - { offset: 0x96A24, size: 0x8, addend: 0x0, symName: '__ZN5alloc7raw_vec19RawVec$LT$T$C$A$GT$8grow_one17h207f2a977af11d07E', symObjAddr: 0x214, symBinAddr: 0x100048E24, symSize: 0xAC }
  - { offset: 0x96BD1, size: 0x8, addend: 0x0, symName: '__ZN5alloc7raw_vec20RawVecInner$LT$A$GT$7reserve21do_reserve_and_handle17hf907109019113e80E', symObjAddr: 0x2C0, symBinAddr: 0x10004F954, symSize: 0xB0 }
  - { offset: 0x96CD3, size: 0x8, addend: 0x0, symName: __ZN5alloc7raw_vec11finish_grow17h91993be477efd13cE, symObjAddr: 0x370, symBinAddr: 0x10004FA04, symSize: 0x88 }
  - { offset: 0x96D49, size: 0x8, addend: 0x0, symName: __ZN5alloc7raw_vec12handle_error17h7f0cbdf2396d2d52E, symObjAddr: 0x3F8, symBinAddr: 0x10004FA8C, symSize: 0x18 }
  - { offset: 0x96E43, size: 0x8, addend: 0x0, symName: __ZN5alloc5alloc18handle_alloc_error17h14470fb7117d6c37E, symObjAddr: 0x410, symBinAddr: 0x10004FAA4, symSize: 0x18 }
  - { offset: 0x96ECE, size: 0x8, addend: 0x0, symName: '__ZN93_$LT$alloc..collections..btree..mem..replace..PanicGuard$u20$as$u20$core..ops..drop..Drop$GT$4drop17h4dbb92e5b56c174aE', symObjAddr: 0xE10, symBinAddr: 0x100048ED0, symSize: 0xC }
  - { offset: 0x97080, size: 0x8, addend: 0x0, symName: __ZN5alloc6string6String15from_utf8_lossy17h7d31b366d97043dfE, symObjAddr: 0x2F28, symBinAddr: 0x100049390, symSize: 0x238 }
  - { offset: 0x975AB, size: 0x8, addend: 0x0, symName: __ZN5alloc6string6String17try_reserve_exact17h51faf4d5d5433e31E, symObjAddr: 0x44F8, symBinAddr: 0x1000495C8, symSize: 0xAC }
  - { offset: 0x976F6, size: 0x8, addend: 0x0, symName: '__ZN98_$LT$alloc..string..String$u20$as$u20$core..convert..From$LT$alloc..borrow..Cow$LT$str$GT$$GT$$GT$4from17hde800050cd4f6a42E', symObjAddr: 0x4D48, symBinAddr: 0x100049674, symSize: 0xBC }
  - { offset: 0x9786C, size: 0x8, addend: 0x0, symName: '__ZN58_$LT$alloc..string..String$u20$as$u20$core..fmt..Write$GT$9write_str17h4bc2793cacc1d696E', symObjAddr: 0x4E04, symBinAddr: 0x100049730, symSize: 0x78 }
  - { offset: 0x979BF, size: 0x8, addend: 0x0, symName: '__ZN58_$LT$alloc..string..String$u20$as$u20$core..fmt..Write$GT$10write_char17h67c485e816708459E', symObjAddr: 0x4E7C, symBinAddr: 0x1000497A8, symSize: 0x148 }
  - { offset: 0x97D14, size: 0x8, addend: 0x0, symName: '__ZN72_$LT$$RF$str$u20$as$u20$alloc..ffi..c_str..CString..new..SpecNewImpl$GT$13spec_new_impl17h37cb9b6572c7448bE', symObjAddr: 0xEA8, symBinAddr: 0x100048EDC, symSize: 0x11C }
  - { offset: 0x97F55, size: 0x8, addend: 0x0, symName: __ZN5alloc3ffi5c_str7CString19_from_vec_unchecked17h8dccb886daea0b28E, symObjAddr: 0x1110, symBinAddr: 0x100048FF8, symSize: 0x160 }
  - { offset: 0x98281, size: 0x8, addend: 0x0, symName: '__ZN5alloc3ffi5c_str131_$LT$impl$u20$core..convert..From$LT$$RF$core..ffi..c_str..CStr$GT$$u20$for$u20$alloc..boxed..Box$LT$core..ffi..c_str..CStr$GT$$GT$4from17hdf0b8dc43b6e7f83E', symObjAddr: 0x15EC, symBinAddr: 0x100049158, symSize: 0x88 }
  - { offset: 0x98387, size: 0x8, addend: 0x0, symName: __ZN5alloc3fmt6format12format_inner17ha4482be48280c9dcE, symObjAddr: 0x195C, symBinAddr: 0x1000491E0, symSize: 0x1B0 }
  - { offset: 0x985D0, size: 0x8, addend: 0x0, symName: __ZN5alloc4sync32arcinner_layout_for_value_layout17h83c76efa9058bc15E, symObjAddr: 0x516C, symBinAddr: 0x1000498F0, symSize: 0x74 }
  - { offset: 0x988D4, size: 0x8, addend: 0x0, symName: __ZN4core3num22from_ascii_radix_panic8do_panic7runtime17hbd3939a7be6472a6E, symObjAddr: 0x17130, symBinAddr: 0x10004DD64, symSize: 0x44 }
  - { offset: 0x98907, size: 0x8, addend: 0x0, symName: __ZN4core3num22from_ascii_radix_panic17h997eb0f270b6b988E, symObjAddr: 0x4294, symBinAddr: 0x10004FABC, symSize: 0xC }
  - { offset: 0x98CB6, size: 0x8, addend: 0x0, symName: __ZN4core5slice5index26slice_start_index_len_fail8do_panic7runtime17h9ddc6a7ecebba1e9E, symObjAddr: 0x1B12C, symBinAddr: 0x10004E6DC, symSize: 0x50 }
  - { offset: 0x98CE9, size: 0x8, addend: 0x0, symName: __ZN4core5slice5index26slice_start_index_len_fail17hbef4cde757a23982E, symObjAddr: 0xEAAC, symBinAddr: 0x10004FEDC, symSize: 0xC }
  - { offset: 0x98D2F, size: 0x8, addend: 0x0, symName: __ZN4core5slice5index24slice_end_index_len_fail8do_panic7runtime17h385f2d9d99153a75E, symObjAddr: 0x1B17C, symBinAddr: 0x10004E72C, symSize: 0x50 }
  - { offset: 0x98D62, size: 0x8, addend: 0x0, symName: __ZN4core5slice5index24slice_end_index_len_fail17ha150b75f771021fbE, symObjAddr: 0xEAB8, symBinAddr: 0x10004FEE8, symSize: 0xC }
  - { offset: 0x98DA8, size: 0x8, addend: 0x0, symName: __ZN4core5slice5index22slice_index_order_fail8do_panic7runtime17he0b28f8ab2cd970eE, symObjAddr: 0x1B1CC, symBinAddr: 0x10004E77C, symSize: 0x50 }
  - { offset: 0x98DDB, size: 0x8, addend: 0x0, symName: __ZN4core5slice5index22slice_index_order_fail17h7613890af586566aE, symObjAddr: 0xEAC4, symBinAddr: 0x10004FEF4, symSize: 0xC }
  - { offset: 0x991CC, size: 0x8, addend: 0x0, symName: __ZN4core5slice6memchr14memchr_aligned17h6296e9c99467795dE, symObjAddr: 0xE3FC, symBinAddr: 0x10004BDAC, symSize: 0xE8 }
  - { offset: 0x992A8, size: 0x8, addend: 0x0, symName: __ZN4core5slice6memchr7memrchr17h6227400e5108dcb2E, symObjAddr: 0xE4E4, symBinAddr: 0x10004BE94, symSize: 0x120 }
  - { offset: 0x99401, size: 0x8, addend: 0x0, symName: __ZN4core5slice4sort6stable5drift11sqrt_approx17hea6fce954f57e78dE, symObjAddr: 0xE604, symBinAddr: 0x10004BFB4, symSize: 0x38 }
  - { offset: 0x9947E, size: 0x8, addend: 0x0, symName: __ZN4core5slice4sort6shared9smallsort22panic_on_ord_violation17h87158ad44664865dE, symObjAddr: 0xE63C, symBinAddr: 0x10004FEA4, symSize: 0x38 }
  - { offset: 0x9962B, size: 0x8, addend: 0x0, symName: '__ZN42_$LT$str$u20$as$u20$core..fmt..Display$GT$3fmt17hf009c24fe723987dE', symObjAddr: 0xE0B4, symBinAddr: 0x10004BB2C, symSize: 0x20 }
  - { offset: 0x997FD, size: 0x8, addend: 0x0, symName: __ZN4core3fmt9Formatter12pad_integral17hc0a697f6bef9bc99E, symObjAddr: 0xB878, symBinAddr: 0x10004A9BC, symSize: 0x3E8 }
  - { offset: 0x99AF3, size: 0x8, addend: 0x0, symName: __ZN4core3fmt9Formatter3pad17hc45fb048fd353932E, symObjAddr: 0xBCDC, symBinAddr: 0x10004AE20, symSize: 0x370 }
  - { offset: 0x99FAE, size: 0x8, addend: 0x0, symName: __ZN4core3fmt9Formatter9write_str17h325369b1c335017bE, symObjAddr: 0xC49C, symBinAddr: 0x10004B190, symSize: 0x1C }
  - { offset: 0x99FC2, size: 0x8, addend: 0x0, symName: __ZN4core3fmt9Formatter12debug_struct17h01892abf43f6400aE, symObjAddr: 0xC4B8, symBinAddr: 0x10004B1AC, symSize: 0x3C }
  - { offset: 0x9A001, size: 0x8, addend: 0x0, symName: __ZN4core3fmt9Formatter26debug_struct_field1_finish17h9a6aad483cd91d8bE, symObjAddr: 0xC4F4, symBinAddr: 0x10004B1E8, symSize: 0xD0 }
  - { offset: 0x9A0D8, size: 0x8, addend: 0x0, symName: __ZN4core3fmt9Formatter26debug_struct_field2_finish17h50e0aebce8a58786E, symObjAddr: 0xC5C4, symBinAddr: 0x10004B2B8, symSize: 0x104 }
  - { offset: 0x9A1AF, size: 0x8, addend: 0x0, symName: __ZN4core3fmt9Formatter11debug_tuple17hc10fd19a9736e89bE, symObjAddr: 0xCBD8, symBinAddr: 0x10004B3BC, symSize: 0x50 }
  - { offset: 0x9A204, size: 0x8, addend: 0x0, symName: __ZN4core3fmt9Formatter25debug_tuple_field1_finish17ha7de20751beabbe9E, symObjAddr: 0xCC28, symBinAddr: 0x10004B40C, symSize: 0x168 }
  - { offset: 0x9A406, size: 0x8, addend: 0x0, symName: __ZN4core3fmt9Formatter25debug_tuple_field2_finish17h4e3f51f71b24019cE, symObjAddr: 0xCD90, symBinAddr: 0x10004B574, symSize: 0x1E0 }
  - { offset: 0x9A6C0, size: 0x8, addend: 0x0, symName: __ZN4core3fmt9Formatter10debug_list17h017ce85e0805b545E, symObjAddr: 0xDB70, symBinAddr: 0x10004B754, symSize: 0x48 }
  - { offset: 0x9A768, size: 0x8, addend: 0x0, symName: __ZN4core3fmt8builders11DebugStruct5field17h2f0dca0d2df6974aE, symObjAddr: 0x84A0, symBinAddr: 0x10004A1B4, symSize: 0x1B8 }
  - { offset: 0x9A967, size: 0x8, addend: 0x0, symName: __ZN4core3fmt8builders11DebugStruct6finish17he06e5b5d674203a3E, symObjAddr: 0x871C, symBinAddr: 0x10004A36C, symSize: 0x80 }
  - { offset: 0x9AA68, size: 0x8, addend: 0x0, symName: '__ZN68_$LT$core..fmt..builders..PadAdapter$u20$as$u20$core..fmt..Write$GT$9write_str17hfaa313c4119f7ed4E', symObjAddr: 0x81D0, symBinAddr: 0x100049EE4, symSize: 0x250 }
  - { offset: 0x9AD13, size: 0x8, addend: 0x0, symName: '__ZN68_$LT$core..fmt..builders..PadAdapter$u20$as$u20$core..fmt..Write$GT$10write_char17hde86c020ea7d2eadE', symObjAddr: 0x8420, symBinAddr: 0x10004A134, symSize: 0x80 }
  - { offset: 0x9AD98, size: 0x8, addend: 0x0, symName: __ZN4core3fmt8builders10DebugTuple5field17hd1be49f816fc5cc6E, symObjAddr: 0x879C, symBinAddr: 0x10004A3EC, symSize: 0x14C }
  - { offset: 0x9AF24, size: 0x8, addend: 0x0, symName: __ZN4core3fmt8builders10DebugTuple6finish17h27cf27fbab1a8a2aE, symObjAddr: 0x89A8, symBinAddr: 0x10004A538, symSize: 0xB0 }
  - { offset: 0x9B073, size: 0x8, addend: 0x0, symName: __ZN4core3fmt8builders8DebugSet5entry17h30a73ad81f14a0f2E, symObjAddr: 0x8A58, symBinAddr: 0x10004A5E8, symSize: 0x14C }
  - { offset: 0x9B218, size: 0x8, addend: 0x0, symName: __ZN4core3fmt8builders9DebugList6finish17h106b57f1a22a675eE, symObjAddr: 0x8D7C, symBinAddr: 0x10004A734, symSize: 0x4C }
  - { offset: 0x9B2D4, size: 0x8, addend: 0x0, symName: '__ZN4core3fmt3num3imp52_$LT$impl$u20$core..fmt..Display$u20$for$u20$u32$GT$3fmt17hbf1c5d9b6583f29fE', symObjAddr: 0x19B78, symBinAddr: 0x10004E220, symSize: 0x1C }
  - { offset: 0x9B2FB, size: 0x8, addend: 0x0, symName: '__ZN4core3fmt3num3imp52_$LT$impl$u20$core..fmt..Display$u20$for$u20$u64$GT$3fmt17h339ac4429cb37bf0E', symObjAddr: 0x19CE0, symBinAddr: 0x10004E388, symSize: 0x1C }
  - { offset: 0x9B322, size: 0x8, addend: 0x0, symName: '__ZN4core3fmt3num3imp52_$LT$impl$u20$core..fmt..Display$u20$for$u20$i32$GT$3fmt17hf55f78073eda7290E', symObjAddr: 0x19B94, symBinAddr: 0x10004E23C, symSize: 0x28 }
  - { offset: 0x9B387, size: 0x8, addend: 0x0, symName: '__ZN4core3fmt3num3imp51_$LT$impl$u20$core..fmt..Display$u20$for$u20$u8$GT$3fmt17h4f4911bf2ed93697E', symObjAddr: 0x198A4, symBinAddr: 0x10004E170, symSize: 0xB0 }
  - { offset: 0x9B44D, size: 0x8, addend: 0x0, symName: '__ZN4core3fmt3num3imp21_$LT$impl$u20$u32$GT$4_fmt17h2969b048172ebb80E', symObjAddr: 0x19BBC, symBinAddr: 0x10004E264, symSize: 0x124 }
  - { offset: 0x9B52E, size: 0x8, addend: 0x0, symName: '__ZN4core3fmt3num3imp21_$LT$impl$u20$u64$GT$4_fmt17h99108e3731ddbd8bE', symObjAddr: 0x19D24, symBinAddr: 0x10004E3A4, symSize: 0x130 }
  - { offset: 0x9B749, size: 0x8, addend: 0x0, symName: '__ZN4core3fmt3num53_$LT$impl$u20$core..fmt..LowerHex$u20$for$u20$i32$GT$3fmt17ha0cbda09c03c5041E', symObjAddr: 0x18C80, symBinAddr: 0x10004DF70, symSize: 0x80 }
  - { offset: 0x9B7F1, size: 0x8, addend: 0x0, symName: '__ZN4core3fmt3num53_$LT$impl$u20$core..fmt..UpperHex$u20$for$u20$i32$GT$3fmt17heb47dcda93036a36E', symObjAddr: 0x18D00, symBinAddr: 0x10004DFF0, symSize: 0x80 }
  - { offset: 0x9B899, size: 0x8, addend: 0x0, symName: '__ZN4core3fmt3num53_$LT$impl$u20$core..fmt..LowerHex$u20$for$u20$i64$GT$3fmt17hf3c2c8f0bf48439fE', symObjAddr: 0x18E60, symBinAddr: 0x10004E070, symSize: 0x80 }
  - { offset: 0x9B941, size: 0x8, addend: 0x0, symName: '__ZN4core3fmt3num53_$LT$impl$u20$core..fmt..UpperHex$u20$for$u20$i64$GT$3fmt17h4be4db71703d1dabE', symObjAddr: 0x18EE0, symBinAddr: 0x10004E0F0, symSize: 0x80 }
  - { offset: 0x9B9DC, size: 0x8, addend: 0x0, symName: '__ZN4core3fmt3num52_$LT$impl$u20$core..fmt..LowerHex$u20$for$u20$i8$GT$3fmt17h7bff1931c71ac012E', symObjAddr: 0x188C0, symBinAddr: 0x10004DE70, symSize: 0x80 }
  - { offset: 0x9BA8B, size: 0x8, addend: 0x0, symName: '__ZN4core3fmt3num52_$LT$impl$u20$core..fmt..UpperHex$u20$for$u20$i8$GT$3fmt17h8dba84f19f74308cE', symObjAddr: 0x18940, symBinAddr: 0x10004DEF0, symSize: 0x80 }
  - { offset: 0x9BB49, size: 0x8, addend: 0x0, symName: '__ZN57_$LT$core..fmt..Formatter$u20$as$u20$core..fmt..Write$GT$10write_char17h712a7a5b14df20b9E', symObjAddr: 0xDCC0, symBinAddr: 0x10004B79C, symSize: 0x1C }
  - { offset: 0x9BB7C, size: 0x8, addend: 0x0, symName: __ZN4core3fmt5Write9write_fmt17h3451af32630eef07E, symObjAddr: 0xB4E4, symBinAddr: 0x10004A780, symSize: 0x1C }
  - { offset: 0x9BBE5, size: 0x8, addend: 0x0, symName: '__ZN59_$LT$core..fmt..Arguments$u20$as$u20$core..fmt..Display$GT$3fmt17h5a31f19e8734f16eE', symObjAddr: 0xB658, symBinAddr: 0x10004A79C, symSize: 0x18 }
  - { offset: 0x9BC16, size: 0x8, addend: 0x0, symName: __ZN4core3fmt5write17he22fcab56bd3ec61E, symObjAddr: 0xB670, symBinAddr: 0x10004A7B4, symSize: 0x208 }
  - { offset: 0x9BE29, size: 0x8, addend: 0x0, symName: __ZN4core3fmt9Formatter12pad_integral12write_prefix17h37c97ab3a7046bd2E, symObjAddr: 0xBC60, symBinAddr: 0x10004ADA4, symSize: 0x7C }
  - { offset: 0x9BE6F, size: 0x8, addend: 0x0, symName: '__ZN42_$LT$$RF$T$u20$as$u20$core..fmt..Debug$GT$3fmt17h3133fac5ab5169ddE', symObjAddr: 0x1AE44, symBinAddr: 0x10004E4D4, symSize: 0xEC }
  - { offset: 0x9BFA1, size: 0x8, addend: 0x0, symName: '__ZN42_$LT$$RF$T$u20$as$u20$core..fmt..Debug$GT$3fmt17h54e81ade5e5de57dE', symObjAddr: 0x1AF30, symBinAddr: 0x10004E5C0, symSize: 0x1C }
  - { offset: 0x9BFB5, size: 0x8, addend: 0x0, symName: '__ZN42_$LT$$RF$T$u20$as$u20$core..fmt..Debug$GT$3fmt17h91eecf8d28a7cefeE', symObjAddr: 0x1AF4C, symBinAddr: 0x10004E5DC, symSize: 0xE4 }
  - { offset: 0x9C10F, size: 0x8, addend: 0x0, symName: '__ZN40_$LT$str$u20$as$u20$core..fmt..Debug$GT$3fmt17hd8879d369458d53aE', symObjAddr: 0xDD40, symBinAddr: 0x10004B7B8, symSize: 0x374 }
  - { offset: 0x9C568, size: 0x8, addend: 0x0, symName: '__ZN41_$LT$char$u20$as$u20$core..fmt..Debug$GT$3fmt17ha35a21095fe6b2aeE', symObjAddr: 0xE0D4, symBinAddr: 0x10004BB4C, symSize: 0xAC }
  - { offset: 0x9C66F, size: 0x8, addend: 0x0, symName: '__ZN43_$LT$char$u20$as$u20$core..fmt..Display$GT$3fmt17h3667dcfbeb89f1b7E', symObjAddr: 0xE180, symBinAddr: 0x10004BBF8, symSize: 0xF0 }
  - { offset: 0x9C6F7, size: 0x8, addend: 0x0, symName: __ZN4core3fmt17pointer_fmt_inner17ha05a056f67b250baE, symObjAddr: 0xE270, symBinAddr: 0x10004BCE8, symSize: 0xC4 }
  - { offset: 0x9C7B5, size: 0x8, addend: 0x0, symName: '__ZN44_$LT$$RF$T$u20$as$u20$core..fmt..Display$GT$3fmt17h09a056bd82e73243E', symObjAddr: 0x1B044, symBinAddr: 0x10004E6C0, symSize: 0x1C }
  - { offset: 0x9C95D, size: 0x8, addend: 0x0, symName: __ZN4core6option13unwrap_failed17h84f662fc2717d129E, symObjAddr: 0x7B40, symBinAddr: 0x10004FB0C, symSize: 0x1C }
  - { offset: 0x9C978, size: 0x8, addend: 0x0, symName: __ZN4core6option13expect_failed17h064f2cf84916882aE, symObjAddr: 0x7B5C, symBinAddr: 0x10004FB28, symSize: 0x48 }
  - { offset: 0x9C9D0, size: 0x8, addend: 0x0, symName: '__ZN71_$LT$core..ops..range..Range$LT$Idx$GT$$u20$as$u20$core..fmt..Debug$GT$3fmt17h8610e207370f6ef7E', symObjAddr: 0x442C, symBinAddr: 0x100049964, symSize: 0x1FC }
  - { offset: 0x9CEC6, size: 0x8, addend: 0x0, symName: __ZN4core6result13unwrap_failed17h2bf1684417afbe6bE, symObjAddr: 0x80FC, symBinAddr: 0x10004FE48, symSize: 0x5C }
  - { offset: 0x9D18D, size: 0x8, addend: 0x0, symName: __ZN4core3str7pattern11StrSearcher3new17habaad989c72fb7a8E, symObjAddr: 0x10248, symBinAddr: 0x10004CC04, symSize: 0x904 }
  - { offset: 0x9D438, size: 0x8, addend: 0x0, symName: __ZN4core3str5count14do_count_chars17hc555c670c9b10e3bE, symObjAddr: 0xF128, symBinAddr: 0x10004C230, symSize: 0x724 }
  - { offset: 0x9D789, size: 0x8, addend: 0x0, symName: __ZN4core3str5count23char_count_general_case17h0a6ef21a4825751aE, symObjAddr: 0xF84C, symBinAddr: 0x10004C954, symSize: 0x2B0 }
  - { offset: 0x9D8EF, size: 0x8, addend: 0x0, symName: __ZN4core3str6traits23str_index_overflow_fail17h6ba0069023d715bdE, symObjAddr: 0x10214, symBinAddr: 0x10004FF00, symSize: 0x34 }
  - { offset: 0x9D924, size: 0x8, addend: 0x0, symName: __ZN4core3str8converts9from_utf817h5b7081f8e3c98111E, symObjAddr: 0xECA0, symBinAddr: 0x10004BFEC, symSize: 0x244 }
  - { offset: 0x9D9A6, size: 0x8, addend: 0x0, symName: '__ZN87_$LT$core..str..lossy..Utf8Chunks$u20$as$u20$core..iter..traits..iterator..Iterator$GT$4next17hc0bb2f8797014ed2E', symObjAddr: 0x10F30, symBinAddr: 0x10004D508, symSize: 0x1DC }
  - { offset: 0x9DBA9, size: 0x8, addend: 0x0, symName: __ZN4core3str16slice_error_fail17h8b847e853482f553E, symObjAddr: 0x111D8, symBinAddr: 0x10004FF34, symSize: 0xC }
  - { offset: 0x9DBC3, size: 0x8, addend: 0x0, symName: __ZN4core3str19slice_error_fail_rt17hd494714b9640772bE, symObjAddr: 0x11218, symBinAddr: 0x10004D6E4, symSize: 0x390 }
  - { offset: 0x9DE6C, size: 0x8, addend: 0x0, symName: '__ZN4core4char7methods22_$LT$impl$u20$char$GT$16escape_debug_ext17hbfb443f01c84243eE', symObjAddr: 0x50B8, symBinAddr: 0x100049B84, symSize: 0x260 }
  - { offset: 0x9E064, size: 0x8, addend: 0x0, symName: __ZN4core4char7methods15encode_utf8_raw8do_panic7runtime17h78f2c250983698c5E, symObjAddr: 0x171EC, symBinAddr: 0x10004DDA8, symSize: 0xC8 }
  - { offset: 0x9E0FB, size: 0x8, addend: 0x0, symName: '__ZN63_$LT$core..cell..BorrowMutError$u20$as$u20$core..fmt..Debug$GT$3fmt17h4f632190c10a8f91E', symObjAddr: 0x4F3C, symBinAddr: 0x100049B60, symSize: 0x24 }
  - { offset: 0x9E158, size: 0x8, addend: 0x0, symName: __ZN4core4cell22panic_already_borrowed17ha893d1f06b8b63deE, symObjAddr: 0x4F80, symBinAddr: 0x10004FAC8, symSize: 0x44 }
  - { offset: 0x9E1A8, size: 0x8, addend: 0x0, symName: __ZN4core7unicode12unicode_data15grapheme_extend11lookup_slow17hbcdf8b5a821a33ffE, symObjAddr: 0x1C978, symBinAddr: 0x10004E7F0, symSize: 0x174 }
  - { offset: 0x9E393, size: 0x8, addend: 0x0, symName: __ZN4core7unicode12unicode_data2cc6lookup17he25d7ab2d2fa0f97E, symObjAddr: 0x1C954, symBinAddr: 0x10004E7CC, symSize: 0x24 }
  - { offset: 0x9E3FF, size: 0x8, addend: 0x0, symName: __ZN4core7unicode9printable12is_printable17haae76351f6525626E, symObjAddr: 0x12144, symBinAddr: 0x10004DA74, symSize: 0x2C0 }
  - { offset: 0x9E83D, size: 0x8, addend: 0x0, symName: __ZN4core3ffi5c_str4CStr19from_bytes_with_nul17h10506affebd054b1E, symObjAddr: 0x5700, symBinAddr: 0x100049DE4, symSize: 0x100 }
  - { offset: 0x9E92A, size: 0x8, addend: 0x0, symName: __ZN4core9panicking9panic_fmt17h6a4014bec58fba4fE, symObjAddr: 0x7C94, symBinAddr: 0x10004FB70, symSize: 0x20 }
  - { offset: 0x9E96D, size: 0x8, addend: 0x0, symName: __ZN4core9panicking18panic_nounwind_fmt17hc1d4bd06ab2bbbabE, symObjAddr: 0x7CB4, symBinAddr: 0x10004FB90, symSize: 0x3C }
  - { offset: 0x9E9B2, size: 0x8, addend: 0x0, symName: __ZN4core9panicking5panic17h3ce9043ca357f318E, symObjAddr: 0x7CF0, symBinAddr: 0x10004FBCC, symSize: 0x34 }
  - { offset: 0x9E9E1, size: 0x8, addend: 0x0, symName: __ZN4core9panicking14panic_nounwind17h96b8083b1a8e2dbdE, symObjAddr: 0x7D24, symBinAddr: 0x10004FC00, symSize: 0x3C }
  - { offset: 0x9EA10, size: 0x8, addend: 0x0, symName: __ZN4core9panicking26panic_nounwind_nobacktrace17h984deb6b7d0bc614E, symObjAddr: 0x7D60, symBinAddr: 0x10004FC3C, symSize: 0x3C }
  - { offset: 0x9EA3F, size: 0x8, addend: 0x0, symName: __ZN4core9panicking18panic_bounds_check17h1ecfa3d00f46f81cE, symObjAddr: 0x7DE4, symBinAddr: 0x10004FC78, symSize: 0x50 }
  - { offset: 0x9EA71, size: 0x8, addend: 0x0, symName: __ZN4core9panicking19panic_cannot_unwind17ha5edf28dd2569dc8E, symObjAddr: 0x7EF8, symBinAddr: 0x10004FCC8, symSize: 0x18 }
  - { offset: 0x9EA8C, size: 0x8, addend: 0x0, symName: __ZN4core9panicking16panic_in_cleanup17hb960b8c5dea287d4E, symObjAddr: 0x7F10, symBinAddr: 0x10004FCE0, symSize: 0x18 }
  - { offset: 0x9EAA7, size: 0x8, addend: 0x0, symName: __ZN4core9panicking13assert_failed17h2af7932842d934b6E, symObjAddr: 0x7F8C, symBinAddr: 0x10004FCF8, symSize: 0x24 }
  - { offset: 0x9EAC2, size: 0x8, addend: 0x0, symName: __ZN4core9panicking13assert_failed17hc7c9e0269eebc316E, symObjAddr: 0x7FB0, symBinAddr: 0x10004FD1C, symSize: 0x24 }
  - { offset: 0x9EADD, size: 0x8, addend: 0x0, symName: __ZN4core9panicking19assert_failed_inner17hafd35c69af0230bfE, symObjAddr: 0x7FF4, symBinAddr: 0x10004FD40, symSize: 0x108 }
  - { offset: 0x9EB2A, size: 0x8, addend: 0x0, symName: __ZN4core9panicking11panic_const23panic_const_div_by_zero17h0422238fbdaad2d7E, symObjAddr: 0x179B8, symBinAddr: 0x10004FF40, symSize: 0x34 }
  - { offset: 0x9EB59, size: 0x8, addend: 0x0, symName: __ZN4core9panicking11panic_const23panic_const_rem_by_zero17h723f338bbd7af040E, symObjAddr: 0x179EC, symBinAddr: 0x10004FF74, symSize: 0x34 }
  - { offset: 0x9EBD2, size: 0x8, addend: 0x0, symName: __ZN4core5alloc6layout6Layout19is_size_align_valid17h054933e8a3b2a17cE, symObjAddr: 0x126A0, symBinAddr: 0x10004DD34, symSize: 0x30 }
  - { offset: 0x9EC2B, size: 0x8, addend: 0x0, symName: _OUTLINED_FUNCTION_0, symObjAddr: 0x1D194, symBinAddr: 0x10004E964, symSize: 0x10 }
...
