---
triple:          'arm64-apple-darwin'
binary-path:     '/Users/cedric/orange/ran-llm-claude-flow/src/rust-pipeline/target/debug/deps/libzerovec_derive-358aa190e8b483db.dylib'
relocations:
  - { offset: 0x1E, size: 0x8, addend: 0x0, symName: __RNvMNtCsfvfooZQ3Axs_4core5sliceSNtNtCscP4KCwp5Z66_14zerovec_derive11make_varule12UnsizedField4iterBy_, symObjAddr: 0x0, symBinAddr: 0xC50, symSize: 0x28 }
  - { offset: 0x4D, size: 0x8, addend: 0x0, symName: __RNvNvMs0_NtCscP4KCwp5Z66_14zerovec_derive11make_varuleNtB7_16UnsizedFieldKind3new24PATH_TYPE_IDENTITY_ERROR, symObjAddr: 0x12690, symBinAddr: 0x258550, symSize: 0x0 }
  - { offset: 0x68, size: 0x8, addend: 0x0, symName: __RNvNvMs0_NtCscP4KCwp5Z66_14zerovec_derive11make_varuleNtB7_16UnsizedFieldKind3new24PATH_TYPE_GENERICS_ERROR, symObjAddr: 0x126A0, symBinAddr: 0x258560, symSize: 0x0 }
  - { offset: 0x31E, size: 0x8, addend: 0x0, symName: __RNvNtCscP4KCwp5Z66_14zerovec_derive11make_varule16make_varule_impl, symObjAddr: 0xD0, symBinAddr: 0xD20, symSize: 0x7684 }
  - { offset: 0xFB9, size: 0x8, addend: 0x0, symName: __RNCNvNtCscP4KCwp5Z66_14zerovec_derive11make_varule16make_varule_impl0B5_, symObjAddr: 0x7754, symBinAddr: 0x83A4, symSize: 0x24 }
  - { offset: 0xFEF, size: 0x8, addend: 0x0, symName: __RNCNvNtCscP4KCwp5Z66_14zerovec_derive11make_varule16make_varule_impls_0B5_, symObjAddr: 0x7778, symBinAddr: 0x83C8, symSize: 0xA0 }
  - { offset: 0x1049, size: 0x8, addend: 0x0, symName: __RNvNtCscP4KCwp5Z66_14zerovec_derive11make_varule21make_zf_and_from_impl, symObjAddr: 0x7818, symBinAddr: 0x8468, symSize: 0xA64 }
  - { offset: 0x1258, size: 0x8, addend: 0x0, symName: __RNCNvNtCscP4KCwp5Z66_14zerovec_derive11make_varule21make_zf_and_from_impl0B5_, symObjAddr: 0x827C, symBinAddr: 0x8ECC, symSize: 0x234 }
  - { offset: 0x1307, size: 0x8, addend: 0x0, symName: __RNvNtCscP4KCwp5Z66_14zerovec_derive11make_varule16make_encode_impl, symObjAddr: 0x84B0, symBinAddr: 0x9100, symSize: 0x1C04 }
  - { offset: 0x17C1, size: 0x8, addend: 0x0, symName: __RNCNvNtCscP4KCwp5Z66_14zerovec_derive11make_varule16make_encode_impl0B5_, symObjAddr: 0xA0B4, symBinAddr: 0xAD04, symSize: 0x850 }
  - { offset: 0x1A30, size: 0x8, addend: 0x0, symName: __RNCNvMNtCscP4KCwp5Z66_14zerovec_derive11make_varuleNtB4_13UnsizedFields3new0B6_, symObjAddr: 0xAA44, symBinAddr: 0xB694, symSize: 0xE0 }
  - { offset: 0x1A7D, size: 0x8, addend: 0x0, symName: __RNCNvMNtCscP4KCwp5Z66_14zerovec_derive11make_varuleNtB4_13UnsizedFields6has_zf0B6_, symObjAddr: 0xB01C, symBinAddr: 0xBC6C, symSize: 0x38 }
  - { offset: 0x1AC3, size: 0x8, addend: 0x0, symName: __RNCNvMNtCscP4KCwp5Z66_14zerovec_derive11make_varuleNtB4_13UnsizedFields19maybe_multi_getters0B6_, symObjAddr: 0xCAEC, symBinAddr: 0xD73C, symSize: 0x584 }
  - { offset: 0x1C43, size: 0x8, addend: 0x0, symName: __RNvXs4_NtCscP4KCwp5Z66_14zerovec_derive11make_varuleNtB5_8OwnULETyNtNtCsfvfooZQ3Axs_4core3fmt5Debug3fmtB7_, symObjAddr: 0xF754, symBinAddr: 0x103A4, symSize: 0xA0 }
  - { offset: 0x1CA9, size: 0x8, addend: 0x0, symName: __RNcNtNtNtCscP4KCwp5Z66_14zerovec_derive11make_varule16UnsizedFieldKind3Cow0B7_, symObjAddr: 0xF7F4, symBinAddr: 0x10444, symSize: 0x24 }
  - { offset: 0x1CD9, size: 0x8, addend: 0x0, symName: __RNcNtNtNtCscP4KCwp5Z66_14zerovec_derive11make_varule16UnsizedFieldKind10VarZeroCow0B7_, symObjAddr: 0xF818, symBinAddr: 0x10468, symSize: 0x24 }
  - { offset: 0x1D09, size: 0x8, addend: 0x0, symName: __RNcNtNtNtCscP4KCwp5Z66_14zerovec_derive11make_varule16UnsizedFieldKind5Boxed0B7_, symObjAddr: 0xF83C, symBinAddr: 0x1048C, symSize: 0x24 }
  - { offset: 0x1D39, size: 0x8, addend: 0x0, symName: __RNcNtNtNtCscP4KCwp5Z66_14zerovec_derive11make_varule16UnsizedFieldKind3Ref0B7_, symObjAddr: 0xF860, symBinAddr: 0x104B0, symSize: 0x24 }
  - { offset: 0x1D6A, size: 0x8, addend: 0x0, symName: __RNvXs6_NtCscP4KCwp5Z66_14zerovec_derive11make_varuleNtB5_16UnsizedFieldKindNtNtCsfvfooZQ3Axs_4core3fmt5Debug3fmtB7_, symObjAddr: 0xF884, symBinAddr: 0x104D4, symSize: 0x278 }
  - { offset: 0x1EAE, size: 0x8, addend: 0x0, symName: __RNvXs8_NtCscP4KCwp5Z66_14zerovec_derive11make_varuleNtB5_12UnsizedFieldNtNtCsfvfooZQ3Axs_4core3fmt5Debug3fmtB7_, symObjAddr: 0xFAFC, symBinAddr: 0x1074C, symSize: 0x88 }
  - { offset: 0x9B4E, size: 0x8, addend: 0x0, symName: __RNvXs1a_NtCsfvfooZQ3Axs_4core3fmtRNtNtCscP4KCwp5Z66_14zerovec_derive11make_varule8OwnULETyNtB6_5Debug3fmtBA_, symObjAddr: 0x6C, symBinAddr: 0xCBC, symSize: 0x30 }
  - { offset: 0x9C0E, size: 0x8, addend: 0x0, symName: __RNvMNtCsfvfooZQ3Axs_4core5sliceSNtNtCscP4KCwp5Z66_14zerovec_derive11make_varule12UnsizedField4iterBy_, symObjAddr: 0x0, symBinAddr: 0xC50, symSize: 0x28 }
  - { offset: 0x9C45, size: 0x8, addend: 0x0, symName: __RNvMNtCsfvfooZQ3Axs_4core5sliceSNtNtCscP4KCwp5Z66_14zerovec_derive11make_varule12UnsizedField5firstBy_, symObjAddr: 0x28, symBinAddr: 0xC78, symSize: 0x44 }
  - { offset: 0x9D4D, size: 0x8, addend: 0x0, symName: __RNvXs2_NtNtNtCsfvfooZQ3Axs_4core3ops8function5implsQNCNvMNtCscP4KCwp5Z66_14zerovec_derive11make_varuleNtBT_13UnsizedFields19maybe_multi_getters0INtB7_6FnOnceTTjRNtBT_12UnsizedFieldEEE9call_onceBV_, symObjAddr: 0x9C, symBinAddr: 0xCEC, symSize: 0x34 }
  - { offset: 0xB601, size: 0x8, addend: 0x0, symName: __RNvMNtCscP4KCwp5Z66_14zerovec_derive11make_varuleNtB2_13UnsizedFields3new, symObjAddr: 0xA904, symBinAddr: 0xB554, symSize: 0x140 }
  - { offset: 0xB661, size: 0x8, addend: 0x0, symName: __RNvMNtCscP4KCwp5Z66_14zerovec_derive11make_varuleNtB2_13UnsizedFields9varule_ty, symObjAddr: 0xAB24, symBinAddr: 0xB774, symSize: 0x19C }
  - { offset: 0xB6C6, size: 0x8, addend: 0x0, symName: __RNvMNtCscP4KCwp5Z66_14zerovec_derive11make_varuleNtB2_13UnsizedFields15varule_accessor, symObjAddr: 0xACC0, symBinAddr: 0xB910, symSize: 0x144 }
  - { offset: 0xB6FF, size: 0x8, addend: 0x0, symName: __RNvMNtCscP4KCwp5Z66_14zerovec_derive11make_varuleNtB2_13UnsizedFields13varule_setter, symObjAddr: 0xAE04, symBinAddr: 0xBA54, symSize: 0x13C }
  - { offset: 0xB738, size: 0x8, addend: 0x0, symName: __RNvMNtCscP4KCwp5Z66_14zerovec_derive11make_varuleNtB2_13UnsizedFields10varule_vis, symObjAddr: 0xAF40, symBinAddr: 0xBB90, symSize: 0x90 }
  - { offset: 0xB75B, size: 0x8, addend: 0x0, symName: __RNvMNtCscP4KCwp5Z66_14zerovec_derive11make_varuleNtB2_13UnsizedFields6has_zf, symObjAddr: 0xAFD0, symBinAddr: 0xBC20, symSize: 0x4C }
  - { offset: 0xB77E, size: 0x8, addend: 0x0, symName: __RNvMNtCscP4KCwp5Z66_14zerovec_derive11make_varuleNtB2_13UnsizedFields12encode_write, symObjAddr: 0xB054, symBinAddr: 0xBCA4, symSize: 0xAE8 }
  - { offset: 0xBA81, size: 0x8, addend: 0x0, symName: __RNvMNtCscP4KCwp5Z66_14zerovec_derive11make_varuleNtB2_13UnsizedFields10encode_len, symObjAddr: 0xBB3C, symBinAddr: 0xC78C, symSize: 0x5F0 }
  - { offset: 0xBC42, size: 0x8, addend: 0x0, symName: __RNvMNtCscP4KCwp5Z66_14zerovec_derive11make_varuleNtB2_13UnsizedFields15push_zf_setters, symObjAddr: 0xC12C, symBinAddr: 0xCD7C, symSize: 0x788 }
  - { offset: 0xBE03, size: 0x8, addend: 0x0, symName: __RNvMNtCscP4KCwp5Z66_14zerovec_derive11make_varuleNtB2_13UnsizedFields19maybe_multi_getters, symObjAddr: 0xC8B4, symBinAddr: 0xD504, symSize: 0x238 }
  - { offset: 0xBEFC, size: 0x8, addend: 0x0, symName: __RNvMNtCscP4KCwp5Z66_14zerovec_derive11make_varuleNtB2_13UnsizedFields16varule_validator, symObjAddr: 0xD070, symBinAddr: 0xDCC0, symSize: 0x654 }
  - { offset: 0xC0B4, size: 0x8, addend: 0x0, symName: __RNvMs_NtCscP4KCwp5Z66_14zerovec_derive11make_varuleNtB4_12UnsizedField3new, symObjAddr: 0xD6C4, symBinAddr: 0xE314, symSize: 0x158 }
  - { offset: 0xC134, size: 0x8, addend: 0x0, symName: __RNvMs_NtCscP4KCwp5Z66_14zerovec_derive11make_varuleNtB4_12UnsizedField11encode_func, symObjAddr: 0xD81C, symBinAddr: 0xE46C, symSize: 0x37C }
  - { offset: 0xC22F, size: 0x8, addend: 0x0, symName: __RNvMs_NtCscP4KCwp5Z66_14zerovec_derive11make_varuleNtB4_12UnsizedField17encodeable_tokens, symObjAddr: 0xDB98, symBinAddr: 0xE7E8, symSize: 0x160 }
  - { offset: 0xC30B, size: 0x8, addend: 0x0, symName: __RNvMs0_NtCscP4KCwp5Z66_14zerovec_derive11make_varuleNtB5_16UnsizedFieldKind3new, symObjAddr: 0xDCF8, symBinAddr: 0xE948, symSize: 0xB48 }
  - { offset: 0xC4E2, size: 0x8, addend: 0x0, symName: __RNvMs0_NtCscP4KCwp5Z66_14zerovec_derive11make_varuleNtB5_16UnsizedFieldKind9varule_ty, symObjAddr: 0xE840, symBinAddr: 0xF490, symSize: 0x3F0 }
  - { offset: 0xC5D3, size: 0x8, addend: 0x0, symName: __RNvMs0_NtCscP4KCwp5Z66_14zerovec_derive11make_varuleNtB5_16UnsizedFieldKind16encodeable_value, symObjAddr: 0xEC30, symBinAddr: 0xF880, symSize: 0x2CC }
  - { offset: 0xC648, size: 0x8, addend: 0x0, symName: __RNvMs0_NtCscP4KCwp5Z66_14zerovec_derive11make_varuleNtB5_16UnsizedFieldKind13encodeable_ty, symObjAddr: 0xEEFC, symBinAddr: 0xFB4C, symSize: 0x374 }
  - { offset: 0xC711, size: 0x8, addend: 0x0, symName: __RNvMs0_NtCscP4KCwp5Z66_14zerovec_derive11make_varuleNtB5_16UnsizedFieldKind6has_zf, symObjAddr: 0xF270, symBinAddr: 0xFEC0, symSize: 0x14C }
  - { offset: 0xC734, size: 0x8, addend: 0x0, symName: __RNvMs1_NtCscP4KCwp5Z66_14zerovec_derive11make_varuleNtB5_8OwnULETy3new, symObjAddr: 0xF3BC, symBinAddr: 0x1000C, symSize: 0x220 }
  - { offset: 0xC7D1, size: 0x8, addend: 0x0, symName: __RNvMs1_NtCscP4KCwp5Z66_14zerovec_derive11make_varuleNtB5_8OwnULETy9varule_ty, symObjAddr: 0xF5DC, symBinAddr: 0x1022C, symSize: 0x178 }
  - { offset: 0xCB94, size: 0x8, addend: 0x0, symName: __RINvMs6_NtCsloNvcHxBCre_9hashbrown3rawINtB6_8RawTableThuEE12remove_entryNCINvNtB8_3map14equivalent_keyhhuE0ECscP4KCwp5Z66_14zerovec_derive, symObjAddr: 0x0, symBinAddr: 0x107D4, symSize: 0x80 }
  - { offset: 0xCBD0, size: 0x8, addend: 0x0, symName: __RNCINvMs6_NtCsloNvcHxBCre_9hashbrown3rawINtB8_8RawTableThuEE14reserve_rehashNCINvNtBa_3map11make_hasherhuNtNtNtCscOYdFFY2T5N_3std4hash6random11RandomStateE0E0CscP4KCwp5Z66_14zerovec_derive, symObjAddr: 0x14E8, symBinAddr: 0x11494, symSize: 0xB8 }
  - { offset: 0xCD93, size: 0x8, addend: 0x0, symName: __RNCINvMs6_NtCsloNvcHxBCre_9hashbrown3rawINtB8_8RawTableThuEE24find_or_find_insert_slotNCINvNtBa_3map14equivalent_keyhhuE0NCINvB1r_11make_hasherhuNtNtNtCscOYdFFY2T5N_3std4hash6random11RandomStateE0E0CscP4KCwp5Z66_14zerovec_derive, symObjAddr: 0x15A0, symBinAddr: 0x1154C, symSize: 0xBC }
  - { offset: 0xCF66, size: 0x8, addend: 0x0, symName: __RNCINvMs6_NtCsloNvcHxBCre_9hashbrown3rawINtB8_8RawTableThuEE4findNCINvNtBa_3map14equivalent_keyhhuE0E0CscP4KCwp5Z66_14zerovec_derive, symObjAddr: 0x165C, symBinAddr: 0x11608, symSize: 0xBC }
  - { offset: 0xD955, size: 0x8, addend: 0x0, symName: __RNCINvMsa_NtCsloNvcHxBCre_9hashbrown3rawNtB8_13RawTableInner14prepare_resizeNtNtCse1nGBsou5OW_5alloc5alloc6GlobalE0CscP4KCwp5Z66_14zerovec_derive, symObjAddr: 0x1718, symBinAddr: 0x116C4, symSize: 0xBC }
  - { offset: 0xDB38, size: 0x8, addend: 0x0, symName: __RNCNvMsa_NtCsloNvcHxBCre_9hashbrown3rawNtB7_13RawTableInner15rehash_in_place0CscP4KCwp5Z66_14zerovec_derive, symObjAddr: 0x17D4, symBinAddr: 0x11780, symSize: 0x23C }
  - { offset: 0xE17A, size: 0x8, addend: 0x0, symName: __RNvNtCsloNvcHxBCre_9hashbrown3raw19capacity_to_bucketsCscP4KCwp5Z66_14zerovec_derive, symObjAddr: 0x2EFC, symBinAddr: 0x12EA8, symSize: 0x198 }
  - { offset: 0xE335, size: 0x8, addend: 0x0, symName: __RNvXsg_NtCsloNvcHxBCre_9hashbrown3rawINtB5_8RawTableThuEENtNtNtCsfvfooZQ3Axs_4core3ops4drop4Drop4dropCscP4KCwp5Z66_14zerovec_derive, symObjAddr: 0x3094, symBinAddr: 0x13040, symSize: 0x3C }
  - { offset: 0x11596, size: 0x8, addend: 0x0, symName: __RINvMs6_NtCsloNvcHxBCre_9hashbrown3rawINtB6_8RawTableThuEE12remove_entryNCINvNtB8_3map14equivalent_keyhhuE0ECscP4KCwp5Z66_14zerovec_derive, symObjAddr: 0x0, symBinAddr: 0x107D4, symSize: 0x80 }
  - { offset: 0x11C27, size: 0x8, addend: 0x0, symName: __RINvMs6_NtCsloNvcHxBCre_9hashbrown3rawINtB6_8RawTableThuEE14reserve_rehashNCINvNtB8_3map11make_hasherhuNtNtNtCscOYdFFY2T5N_3std4hash6random11RandomStateE0ECscP4KCwp5Z66_14zerovec_derive, symObjAddr: 0x80, symBinAddr: 0x1B402C, symSize: 0x828 }
  - { offset: 0x12617, size: 0x8, addend: 0x0, symName: __RINvMs6_NtCsloNvcHxBCre_9hashbrown3rawINtB6_8RawTableThuEE24find_or_find_insert_slotNCINvNtB8_3map14equivalent_keyhhuE0NCINvB1p_11make_hasherhuNtNtNtCscOYdFFY2T5N_3std4hash6random11RandomStateE0ECscP4KCwp5Z66_14zerovec_derive, symObjAddr: 0x8A8, symBinAddr: 0x10854, symSize: 0x134 }
  - { offset: 0x12A91, size: 0x8, addend: 0x0, symName: __RINvMs6_NtCsloNvcHxBCre_9hashbrown3rawINtB6_8RawTableThuEE4findNCINvNtB8_3map14equivalent_keyhhuE0ECscP4KCwp5Z66_14zerovec_derive, symObjAddr: 0x9DC, symBinAddr: 0x10988, symSize: 0x328 }
  - { offset: 0x12F4C, size: 0x8, addend: 0x0, symName: __RINvMs6_NtCsloNvcHxBCre_9hashbrown3rawINtB6_8RawTableThuEE7reserveNCINvNtB8_3map11make_hasherhuNtNtNtCscOYdFFY2T5N_3std4hash6random11RandomStateE0ECscP4KCwp5Z66_14zerovec_derive, symObjAddr: 0xD04, symBinAddr: 0x10CB0, symSize: 0xCC }
  - { offset: 0x130BF, size: 0x8, addend: 0x0, symName: __RINvMsa_NtCsloNvcHxBCre_9hashbrown3rawNtB6_13RawTableInner13drop_elementsThuEECscP4KCwp5Z66_14zerovec_derive, symObjAddr: 0xDD0, symBinAddr: 0x10D7C, symSize: 0x28 }
  - { offset: 0x1332A, size: 0x8, addend: 0x0, symName: __RINvMsa_NtCsloNvcHxBCre_9hashbrown3rawNtB6_13RawTableInner16drop_inner_tableThuENtNtCse1nGBsou5OW_5alloc5alloc6GlobalECscP4KCwp5Z66_14zerovec_derive, symObjAddr: 0xDF8, symBinAddr: 0x10DA4, symSize: 0xBC }
  - { offset: 0x1353D, size: 0x8, addend: 0x0, symName: __RINvMsa_NtCsloNvcHxBCre_9hashbrown3rawNtB6_13RawTableInner17new_uninitializedNtNtCse1nGBsou5OW_5alloc5alloc6GlobalECscP4KCwp5Z66_14zerovec_derive, symObjAddr: 0xEB4, symBinAddr: 0x10E60, symSize: 0x1B0 }
  - { offset: 0x13776, size: 0x8, addend: 0x0, symName: __RINvMsa_NtCsloNvcHxBCre_9hashbrown3rawNtB6_13RawTableInner22fallible_with_capacityNtNtCse1nGBsou5OW_5alloc5alloc6GlobalECscP4KCwp5Z66_14zerovec_derive, symObjAddr: 0x1064, symBinAddr: 0x11010, symSize: 0x2A8 }
  - { offset: 0x13BED, size: 0x8, addend: 0x0, symName: __RINvMsi_NtCsloNvcHxBCre_9hashbrown3rawINtB6_12RawIterRangeThuEE9next_implKb0_ECscP4KCwp5Z66_14zerovec_derive, symObjAddr: 0x130C, symBinAddr: 0x112B8, symSize: 0x1DC }
  - { offset: 0x144C5, size: 0x8, addend: 0x0, symName: __RNvMs1_NtCsloNvcHxBCre_9hashbrown3rawNtB5_11TableLayout20calculate_layout_forCscP4KCwp5Z66_14zerovec_derive, symObjAddr: 0x1A10, symBinAddr: 0x119BC, symSize: 0x210 }
  - { offset: 0x1481B, size: 0x8, addend: 0x0, symName: __RNvMs6_NtCsloNvcHxBCre_9hashbrown3rawINtB5_8RawTableThuEE13erase_no_dropCscP4KCwp5Z66_14zerovec_derive, symObjAddr: 0x1C20, symBinAddr: 0x11BCC, symSize: 0x94 }
  - { offset: 0x14B47, size: 0x8, addend: 0x0, symName: __RNvMs6_NtCsloNvcHxBCre_9hashbrown3rawINtB5_8RawTableThuEE14insert_in_slotCscP4KCwp5Z66_14zerovec_derive, symObjAddr: 0x1CB4, symBinAddr: 0x11C60, symSize: 0x128 }
  - { offset: 0x14FD5, size: 0x8, addend: 0x0, symName: __RNvMs6_NtCsloNvcHxBCre_9hashbrown3rawINtB5_8RawTableThuEE6removeCscP4KCwp5Z66_14zerovec_derive, symObjAddr: 0x1DDC, symBinAddr: 0x11D88, symSize: 0xE8 }
  - { offset: 0x152EE, size: 0x8, addend: 0x0, symName: __RNvMsa_NtCsloNvcHxBCre_9hashbrown3rawNtB5_13RawTableInner15fix_insert_slotCscP4KCwp5Z66_14zerovec_derive, symObjAddr: 0x1EC4, symBinAddr: 0x11E70, symSize: 0x128 }
  - { offset: 0x1566C, size: 0x8, addend: 0x0, symName: __RNvMsa_NtCsloNvcHxBCre_9hashbrown3rawNtB5_13RawTableInner15rehash_in_placeCscP4KCwp5Z66_14zerovec_derive, symObjAddr: 0x1FEC, symBinAddr: 0x11F98, symSize: 0x4E8 }
  - { offset: 0x15E76, size: 0x8, addend: 0x0, symName: __RNvMsa_NtCsloNvcHxBCre_9hashbrown3rawNtB5_13RawTableInner16find_insert_slotCscP4KCwp5Z66_14zerovec_derive, symObjAddr: 0x24D4, symBinAddr: 0x12480, symSize: 0x10C }
  - { offset: 0x16067, size: 0x8, addend: 0x0, symName: __RNvMsa_NtCsloNvcHxBCre_9hashbrown3rawNtB5_13RawTableInner19prepare_insert_slotCscP4KCwp5Z66_14zerovec_derive, symObjAddr: 0x25E0, symBinAddr: 0x1258C, symSize: 0x74 }
  - { offset: 0x16359, size: 0x8, addend: 0x0, symName: __RNvMsa_NtCsloNvcHxBCre_9hashbrown3rawNtB5_13RawTableInner23prepare_rehash_in_placeCscP4KCwp5Z66_14zerovec_derive, symObjAddr: 0x2654, symBinAddr: 0x12600, symSize: 0x254 }
  - { offset: 0x16A55, size: 0x8, addend: 0x0, symName: __RNvMsa_NtCsloNvcHxBCre_9hashbrown3rawNtB5_13RawTableInner25find_insert_slot_in_groupCscP4KCwp5Z66_14zerovec_derive, symObjAddr: 0x28A8, symBinAddr: 0x12854, symSize: 0x160 }
  - { offset: 0x16D1E, size: 0x8, addend: 0x0, symName: __RNvMsa_NtCsloNvcHxBCre_9hashbrown3rawNtB5_13RawTableInner30find_or_find_insert_slot_innerCscP4KCwp5Z66_14zerovec_derive, symObjAddr: 0x2A08, symBinAddr: 0x129B4, symSize: 0x2BC }
  - { offset: 0x1715F, size: 0x8, addend: 0x0, symName: __RNvMsa_NtCsloNvcHxBCre_9hashbrown3rawNtB5_13RawTableInner5eraseCscP4KCwp5Z66_14zerovec_derive, symObjAddr: 0x2CC4, symBinAddr: 0x12C70, symSize: 0x178 }
  - { offset: 0x1749F, size: 0x8, addend: 0x0, symName: __RNvMsi_NtCsloNvcHxBCre_9hashbrown3rawINtB5_12RawIterRangeThuEE3newCscP4KCwp5Z66_14zerovec_derive, symObjAddr: 0x2E3C, symBinAddr: 0x12DE8, symSize: 0xC0 }
  - { offset: 0x17719, size: 0x8, addend: 0x0, symName: __RINvMs0_NtNtNtNtCscOYdFFY2T5N_3std3sys12thread_local6native4lazyINtB6_7StorageINtNtCsfvfooZQ3Axs_4core4cell4CellTyyEEzE10initializeNvNvNvMNtNtBe_4hash6randomNtB2c_11RandomState3new4KEYS6___initECscP4KCwp5Z66_14zerovec_derive, symObjAddr: 0x0, symBinAddr: 0x1B4854, symSize: 0x264 }
  - { offset: 0x17CFE, size: 0x8, addend: 0x0, symName: __RINvNtNtNtCs9i5KxIbZ5ph_10proc_macro6bridge6client5state3setINtNtCsfvfooZQ3Axs_4core6option6OptionNtB4_11TokenStreamENCNCINvB4_10run_clientB1y_BW_NCNCINvMs7_B4_INtB4_6ClientNtB8_11TokenStreamB2L_E7expand1NvCscP4KCwp5Z66_14zerovec_derive10ule_deriveE00E00EB3i_, symObjAddr: 0x3C4, symBinAddr: 0x131DC, symSize: 0xE8 }
  - { offset: 0x17DD3, size: 0x8, addend: 0x0, symName: __RINvNtNtNtCs9i5KxIbZ5ph_10proc_macro6bridge6client5state3setINtNtCsfvfooZQ3Axs_4core6option6OptionNtB4_11TokenStreamENCNCINvB4_10run_clientB1y_BW_NCNCINvMs7_B4_INtB4_6ClientNtB8_11TokenStreamB2L_E7expand1NvCscP4KCwp5Z66_14zerovec_derive13varule_deriveE00E00EB3i_, symObjAddr: 0x4AC, symBinAddr: 0x132C4, symSize: 0xE8 }
  - { offset: 0x17EA8, size: 0x8, addend: 0x0, symName: __RINvNtNtNtCs9i5KxIbZ5ph_10proc_macro6bridge6client5state3setINtNtCsfvfooZQ3Axs_4core6option6OptionNtB4_11TokenStreamENCNCINvB4_10run_clientTB1y_B1y_EBW_NCNCINvMs8_B4_INtB4_6ClientTNtB8_11TokenStreamB2S_EB2S_E7expand2NvCscP4KCwp5Z66_14zerovec_derive11make_varuleE00E00EB3u_, symObjAddr: 0x594, symBinAddr: 0x133AC, symSize: 0xEC }
  - { offset: 0x17F7E, size: 0x8, addend: 0x0, symName: __RINvNtNtNtCs9i5KxIbZ5ph_10proc_macro6bridge6client5state3setINtNtCsfvfooZQ3Axs_4core6option6OptionNtB4_11TokenStreamENCNCINvB4_10run_clientTB1y_B1y_EBW_NCNCINvMs8_B4_INtB4_6ClientTNtB8_11TokenStreamB2S_EB2S_E7expand2NvCscP4KCwp5Z66_14zerovec_derive8make_uleE00E00EB3u_, symObjAddr: 0x680, symBinAddr: 0x13498, symSize: 0xEC }
  - { offset: 0x1805E, size: 0x8, addend: 0x0, symName: __RNCNkNvNtNtNtCs9i5KxIbZ5ph_10proc_macro6bridge6client5state12BRIDGE_STATE0s_0CscP4KCwp5Z66_14zerovec_derive, symObjAddr: 0x7E4, symBinAddr: 0x135FC, symSize: 0x34 }
  - { offset: 0x184FC, size: 0x8, addend: 0x0, symName: __RNvXs1J_NtCs9i5KxIbZ5ph_10proc_macro6bridgeINtB6_11ExpnGlobalsNtNtB6_6client4SpanEINtNtB6_3rpc9DecodeMutuE6decodeCscP4KCwp5Z66_14zerovec_derive, symObjAddr: 0xAAC, symBinAddr: 0x138C4, symSize: 0xB0 }
  - { offset: 0x18553, size: 0x8, addend: 0x0, symName: __RNvXs9_NtNtCs9i5KxIbZ5ph_10proc_macro6bridge3rpcTINtB7_11ExpnGlobalsNtNtB7_6client4SpanENtB16_11TokenStreamEINtB5_9DecodeMutuE6decodeCscP4KCwp5Z66_14zerovec_derive, symObjAddr: 0x16A4, symBinAddr: 0x144BC, symSize: 0x84 }
  - { offset: 0x185A8, size: 0x8, addend: 0x0, symName: __RNvXs9_NtNtCs9i5KxIbZ5ph_10proc_macro6bridge3rpcTINtB7_11ExpnGlobalsNtNtB7_6client4SpanETNtB16_11TokenStreamB1p_EEINtB5_9DecodeMutuE6decodeCscP4KCwp5Z66_14zerovec_derive, symObjAddr: 0x1728, symBinAddr: 0x14540, symSize: 0x90 }
  - { offset: 0x1BD3A, size: 0x8, addend: 0x0, symName: __RNvXs1a_NtCsfvfooZQ3Axs_4core3fmtRNtNtCscP4KCwp5Z66_14zerovec_derive5utils9FieldInfoNtB6_5Debug3fmtBA_, symObjAddr: 0xB8C, symBinAddr: 0x139A4, symSize: 0x30 }
  - { offset: 0x1BE1D, size: 0x8, addend: 0x0, symName: __RNvXs1p_NtNtCsfvfooZQ3Axs_4core3fmt3numjNtB8_5Debug3fmtCscP4KCwp5Z66_14zerovec_derive, symObjAddr: 0xBBC, symBinAddr: 0x139D4, symSize: 0x90 }
  - { offset: 0x1C9FD, size: 0x8, addend: 0x0, symName: __RINvXs3_NtNtCsfvfooZQ3Axs_4core4hash5implsRhNtB8_4Hash4hashNtNtNtCscOYdFFY2T5N_3std4hash6random13DefaultHasherECscP4KCwp5Z66_14zerovec_derive, symObjAddr: 0x77C, symBinAddr: 0x13594, symSize: 0x30 }
  - { offset: 0x1CA4E, size: 0x8, addend: 0x0, symName: __RINvXs7_NtNtCsfvfooZQ3Axs_4core4hash5implshNtB8_4Hash4hashNtNtNtCscOYdFFY2T5N_3std4hash6random13DefaultHasherECscP4KCwp5Z66_14zerovec_derive, symObjAddr: 0x7AC, symBinAddr: 0x135C4, symSize: 0x38 }
  - { offset: 0x1CC5A, size: 0x8, addend: 0x0, symName: __RNvXs_NtNtCsfvfooZQ3Axs_4core5slice4iterRSNtNtCscP4KCwp5Z66_14zerovec_derive5utils9FieldInfoNtNtNtNtB8_4iter6traits7collect12IntoIterator9into_iterBI_, symObjAddr: 0x180C, symBinAddr: 0x14624, symSize: 0x58 }
  - { offset: 0x1CE1C, size: 0x8, addend: 0x0, symName: __RNvMNtCsfvfooZQ3Axs_4core5sliceSNtNtCscP4KCwp5Z66_14zerovec_derive5utils9FieldInfo4iterBy_, symObjAddr: 0x8D8, symBinAddr: 0x136F0, symSize: 0x28 }
  - { offset: 0x1CE90, size: 0x8, addend: 0x0, symName: __RNvNtNtNtNtCsfvfooZQ3Axs_4core9core_arch10arm_shared4neon9generated18vreinterpret_s8_u8CscP4KCwp5Z66_14zerovec_derive, symObjAddr: 0x900, symBinAddr: 0x13718, symSize: 0xC }
  - { offset: 0x1CEBE, size: 0x8, addend: 0x0, symName: __RNvNtNtNtNtCsfvfooZQ3Axs_4core9core_arch10arm_shared4neon9generated19vreinterpret_u64_u8CscP4KCwp5Z66_14zerovec_derive, symObjAddr: 0x90C, symBinAddr: 0x13724, symSize: 0xC }
  - { offset: 0x1CEEC, size: 0x8, addend: 0x0, symName: __RNvNtNtNtNtCsfvfooZQ3Axs_4core9core_arch10arm_shared4neon9generated7vceq_u8CscP4KCwp5Z66_14zerovec_derive, symObjAddr: 0x918, symBinAddr: 0x13730, symSize: 0x14 }
  - { offset: 0x1CF29, size: 0x8, addend: 0x0, symName: __RNvNtNtNtNtCsfvfooZQ3Axs_4core9core_arch10arm_shared4neon9generated7vorr_u8CscP4KCwp5Z66_14zerovec_derive, symObjAddr: 0x92C, symBinAddr: 0x13744, symSize: 0x14 }
  - { offset: 0x1CFBD, size: 0x8, addend: 0x0, symName: __RNvXs1_NtNtNtCsfvfooZQ3Axs_4core3ops8function5implsQNCNvMNtCscP4KCwp5Z66_14zerovec_derive5utilsNtBT_8ReprInfo7compute0INtB7_5FnMutTRRNtNtCs6IAuOt8vWmF_3syn4attr9AttributeEE8call_mutBV_, symObjAddr: 0xB5C, symBinAddr: 0x13974, symSize: 0x30 }
  - { offset: 0x1D012, size: 0x8, addend: 0x0, symName: __RNvXs2_NtNtNtCsfvfooZQ3Axs_4core3ops8function5implsQNCINvMs0_NtCscP4KCwp5Z66_14zerovec_derive5utilsNtBX_9FieldInfo9make_listINtNtCs6IAuOt8vWmF_3syn10punctuated4IterNtNtB23_4data5FieldEE0INtB7_6FnOnceTTjRB2C_EEE9call_onceBZ_, symObjAddr: 0xC4C, symBinAddr: 0x13A64, symSize: 0x34 }
  - { offset: 0x1D061, size: 0x8, addend: 0x0, symName: __RNvXs2_NtNtNtCsfvfooZQ3Axs_4core3ops8function5implsQNCINvMs0_NtCscP4KCwp5Z66_14zerovec_derive5utilsNtBX_9FieldInfo9make_listINtNtNtNtBb_4iter8adapters4take4TakeINtNtCs6IAuOt8vWmF_3syn10punctuated4IterNtNtB2D_4data5FieldEEE0INtB7_6FnOnceTTjRB3c_EEE9call_onceBZ_, symObjAddr: 0xC80, symBinAddr: 0x13A98, symSize: 0x34 }
  - { offset: 0x1D248, size: 0x8, addend: 0x0, symName: __RNvYINtNtNtCse1nGBsou5OW_5alloc3vec9into_iter8IntoIterNtCs3cP53eQoTwO_11proc_macro25IdentENtNtNtNtCsfvfooZQ3Axs_4core4iter6traits10exact_size17ExactSizeIterator3lenCscP4KCwp5Z66_14zerovec_derive, symObjAddr: 0x2A1C, symBinAddr: 0x15834, symSize: 0xF4 }
  - { offset: 0x1DA57, size: 0x8, addend: 0x0, symName: __RNvXNvXsd_NtNtCse1nGBsou5OW_5alloc3vec9into_iterINtB8_8IntoIterppENtNtNtCsfvfooZQ3Axs_4core3ops4drop4Drop4dropINtB2_9DropGuardNtCs3cP53eQoTwO_11proc_macro25IdentNtNtBc_5alloc6GlobalEB12_4dropCscP4KCwp5Z66_14zerovec_derive, symObjAddr: 0x940, symBinAddr: 0x13758, symSize: 0x7C }
  - { offset: 0x1DB8D, size: 0x8, addend: 0x0, symName: __RNvXsd_NtNtCse1nGBsou5OW_5alloc3vec9into_iterINtB5_8IntoIterNtCs3cP53eQoTwO_11proc_macro25IdentENtNtNtCsfvfooZQ3Axs_4core3ops4drop4Drop4dropCscP4KCwp5Z66_14zerovec_derive, symObjAddr: 0x1864, symBinAddr: 0x1467C, symSize: 0x98 }
  - { offset: 0x1DC2D, size: 0x8, addend: 0x0, symName: __RNvXs3_NtNtCse1nGBsou5OW_5alloc3vec9into_iterINtB5_8IntoIterNtCs3cP53eQoTwO_11proc_macro25IdentENtNtNtNtCsfvfooZQ3Axs_4core4iter6traits8iterator8Iterator4nextCscP4KCwp5Z66_14zerovec_derive, symObjAddr: 0xCB4, symBinAddr: 0x13ACC, symSize: 0xD0 }
  - { offset: 0x1DDA8, size: 0x8, addend: 0x0, symName: __RNvXs3_NtNtCse1nGBsou5OW_5alloc3vec9into_iterINtB5_8IntoIterNtCs3cP53eQoTwO_11proc_macro25IdentENtNtNtNtCsfvfooZQ3Axs_4core4iter6traits8iterator8Iterator9size_hintCscP4KCwp5Z66_14zerovec_derive, symObjAddr: 0xD84, symBinAddr: 0x13B9C, symSize: 0x6C }
  - { offset: 0x1E781, size: 0x8, addend: 0x0, symName: __RNvXs6_NtCse1nGBsou5OW_5alloc5boxedINtB5_3BoxDNtNtCsfvfooZQ3Axs_4core5error5ErrorNtNtBM_6marker4SendNtB1j_4SyncEL_ENtNtNtBM_3ops4drop4Drop4dropCscP4KCwp5Z66_14zerovec_derive, symObjAddr: 0xDF0, symBinAddr: 0x13C08, symSize: 0xC4 }
  - { offset: 0x1E8B8, size: 0x8, addend: 0x0, symName: __RNvXs6_NtCse1nGBsou5OW_5alloc5boxedINtB5_3BoxINtNtCs6IAuOt8vWmF_3syn5drops6NoDropDINtNtBM_10punctuated12IterMutTraitNtNtBM_4data5FieldEp4ItemQB1Q_EL_EENtNtNtCsfvfooZQ3Axs_4core3ops4drop4Drop4dropCscP4KCwp5Z66_14zerovec_derive, symObjAddr: 0xEB4, symBinAddr: 0x13CCC, symSize: 0x118 }
  - { offset: 0x1E9EF, size: 0x8, addend: 0x0, symName: __RNvXs6_NtCse1nGBsou5OW_5alloc5boxedINtB5_3BoxINtNtCs6IAuOt8vWmF_3syn5drops6NoDropDINtNtBM_10punctuated9IterTraitNtCs3cP53eQoTwO_11proc_macro25IdentEp4ItemRB1M_EL_EENtNtNtCsfvfooZQ3Axs_4core3ops4drop4Drop4dropCscP4KCwp5Z66_14zerovec_derive, symObjAddr: 0xFCC, symBinAddr: 0x13DE4, symSize: 0x118 }
  - { offset: 0x1EB26, size: 0x8, addend: 0x0, symName: __RNvXs6_NtCse1nGBsou5OW_5alloc5boxedINtB5_3BoxINtNtCs6IAuOt8vWmF_3syn5drops6NoDropDINtNtBM_10punctuated9IterTraitNtNtBM_4data5FieldEp4ItemRB1M_EL_EENtNtNtCsfvfooZQ3Axs_4core3ops4drop4Drop4dropCscP4KCwp5Z66_14zerovec_derive, symObjAddr: 0x10E4, symBinAddr: 0x13EFC, symSize: 0x118 }
  - { offset: 0x1EC5D, size: 0x8, addend: 0x0, symName: __RNvXs6_NtCse1nGBsou5OW_5alloc5boxedINtB5_3BoxINtNtCs6IAuOt8vWmF_3syn5drops6NoDropDINtNtBM_10punctuated9IterTraitNtNtBM_4data7VariantEp4ItemRB1M_EL_EENtNtNtCsfvfooZQ3Axs_4core3ops4drop4Drop4dropCscP4KCwp5Z66_14zerovec_derive, symObjAddr: 0x11FC, symBinAddr: 0x14014, symSize: 0x118 }
  - { offset: 0x1ED94, size: 0x8, addend: 0x0, symName: __RNvXs6_NtCse1nGBsou5OW_5alloc5boxedINtB5_3BoxINtNtCs6IAuOt8vWmF_3syn5drops6NoDropDINtNtBM_10punctuated9IterTraitNtNtBM_4path15GenericArgumentEp4ItemRB1M_EL_EENtNtNtCsfvfooZQ3Axs_4core3ops4drop4Drop4dropCscP4KCwp5Z66_14zerovec_derive, symObjAddr: 0x1314, symBinAddr: 0x1412C, symSize: 0x118 }
  - { offset: 0x1EECB, size: 0x8, addend: 0x0, symName: __RNvXs6_NtCse1nGBsou5OW_5alloc5boxedINtB5_3BoxINtNtCs6IAuOt8vWmF_3syn5drops6NoDropDINtNtBM_10punctuated9IterTraitNtNtBM_8generics12GenericParamEp4ItemRB1M_EL_EENtNtNtCsfvfooZQ3Axs_4core3ops4drop4Drop4dropCscP4KCwp5Z66_14zerovec_derive, symObjAddr: 0x142C, symBinAddr: 0x14244, symSize: 0x118 }
  - { offset: 0x1F002, size: 0x8, addend: 0x0, symName: __RNvXs6_NtCse1nGBsou5OW_5alloc5boxedINtB5_3BoxNtCs3cP53eQoTwO_11proc_macro25IdentENtNtNtCsfvfooZQ3Axs_4core3ops4drop4Drop4dropCscP4KCwp5Z66_14zerovec_derive, symObjAddr: 0x1544, symBinAddr: 0x1435C, symSize: 0xB0 }
  - { offset: 0x1F139, size: 0x8, addend: 0x0, symName: __RNvXs6_NtCse1nGBsou5OW_5alloc5boxedINtB5_3BoxNtNtNtCscOYdFFY2T5N_3std2io5error6CustomENtNtNtCsfvfooZQ3Axs_4core3ops4drop4Drop4dropCscP4KCwp5Z66_14zerovec_derive, symObjAddr: 0x15F4, symBinAddr: 0x1440C, symSize: 0xB0 }
  - { offset: 0x1F276, size: 0x8, addend: 0x0, symName: __RNvXsB_NtCse1nGBsou5OW_5alloc5boxedINtB5_3BoxNtCs3cP53eQoTwO_11proc_macro25IdentEINtNtCsfvfooZQ3Axs_4core7convert5AsRefBH_E6as_refCscP4KCwp5Z66_14zerovec_derive, symObjAddr: 0x17B8, symBinAddr: 0x145D0, symSize: 0x18 }
  - { offset: 0x2413D, size: 0x8, addend: 0x0, symName: __RINvNtCs6IAuOt8vWmF_3syn5parse12parse_scopedNvYNtCs3cP53eQoTwO_11proc_macro211TokenStreamNtB2_5Parse5parseECscP4KCwp5Z66_14zerovec_derive, symObjAddr: 0x364, symBinAddr: 0x1317C, symSize: 0x30 }
  - { offset: 0x24193, size: 0x8, addend: 0x0, symName: __RINvNtCs6IAuOt8vWmF_3syn5parse12parse_scopedNvYNtNtCscP4KCwp5Z66_14zerovec_derive5utils18IdentListAttributeNtB2_5Parse5parseEBN_, symObjAddr: 0x394, symBinAddr: 0x131AC, symSize: 0x30 }
  - { offset: 0x241EE, size: 0x8, addend: 0x0, symName: __RNvXsh_NtCs6IAuOt8vWmF_3syn5parseNvYNtCs3cP53eQoTwO_11proc_macro211TokenStreamNtB5_5Parse5parseNtB5_6Parser14___parse_scopedCscP4KCwp5Z66_14zerovec_derive, symObjAddr: 0x18FC, symBinAddr: 0x14714, symSize: 0x3AC }
  - { offset: 0x2433B, size: 0x8, addend: 0x0, symName: __RNvXsh_NtCs6IAuOt8vWmF_3syn5parseNvYNtCs3cP53eQoTwO_11proc_macro25IdentNtB5_5Parse5parseNtB5_6Parser6parse2CscP4KCwp5Z66_14zerovec_derive, symObjAddr: 0x1CA8, symBinAddr: 0x14AC0, symSize: 0x338 }
  - { offset: 0x2444A, size: 0x8, addend: 0x0, symName: __RNvXsh_NtCs6IAuOt8vWmF_3syn5parseNvYNtNtB7_3lit3LitNtB5_5Parse5parseNtB5_6Parser6parse2CscP4KCwp5Z66_14zerovec_derive, symObjAddr: 0x1FE0, symBinAddr: 0x14DF8, symSize: 0x338 }
  - { offset: 0x24559, size: 0x8, addend: 0x0, symName: __RNvXsh_NtCs6IAuOt8vWmF_3syn5parseNvYNtNtB7_6derive11DeriveInputNtB5_5Parse5parseNtB5_6Parser6parse2CscP4KCwp5Z66_14zerovec_derive, symObjAddr: 0x2318, symBinAddr: 0x15130, symSize: 0x358 }
  - { offset: 0x24669, size: 0x8, addend: 0x0, symName: __RNvXsh_NtCs6IAuOt8vWmF_3syn5parseNvYNtNtCscP4KCwp5Z66_14zerovec_derive5utils18IdentListAttributeNtB5_5Parse5parseNtB5_6Parser14___parse_scopedBC_, symObjAddr: 0x2670, symBinAddr: 0x15488, symSize: 0x3AC }
  - { offset: 0x247BC, size: 0x8, addend: 0x0, symName: __RNvYNvYNtCs3cP53eQoTwO_11proc_macro25IdentNtNtCs6IAuOt8vWmF_3syn5parse5Parse5parseNtBG_6Parser5parseCscP4KCwp5Z66_14zerovec_derive, symObjAddr: 0x2B10, symBinAddr: 0x15928, symSize: 0x88 }
  - { offset: 0x24802, size: 0x8, addend: 0x0, symName: __RNvYNvYNtNtCs6IAuOt8vWmF_3syn6derive11DeriveInputNtNtB9_5parse5Parse5parseNtBN_6Parser5parseCscP4KCwp5Z66_14zerovec_derive, symObjAddr: 0x2B98, symBinAddr: 0x159B0, symSize: 0x88 }
  - { offset: 0x24AC9, size: 0x8, addend: 0x0, symName: __RNvXs0_NtCs6IAuOt8vWmF_3syn5dropsINtB5_6NoDropDINtNtB7_10punctuated12IterMutTraitNtNtB7_4data5FieldEp4ItemQB1h_EL_ENtNtNtCsfvfooZQ3Axs_4core3ops5deref8DerefMut9deref_mutCscP4KCwp5Z66_14zerovec_derive, symObjAddr: 0x9BC, symBinAddr: 0x137D4, symSize: 0x3C }
  - { offset: 0x24AFE, size: 0x8, addend: 0x0, symName: __RNvXs0_NtCs6IAuOt8vWmF_3syn5dropsINtB5_6NoDropDINtNtB7_10punctuated9IterTraitNtCs3cP53eQoTwO_11proc_macro25IdentEp4ItemRB1d_EL_ENtNtNtCsfvfooZQ3Axs_4core3ops5deref8DerefMut9deref_mutCscP4KCwp5Z66_14zerovec_derive, symObjAddr: 0x9F8, symBinAddr: 0x13810, symSize: 0x3C }
  - { offset: 0x24B33, size: 0x8, addend: 0x0, symName: __RNvXs0_NtCs6IAuOt8vWmF_3syn5dropsINtB5_6NoDropDINtNtB7_10punctuated9IterTraitNtNtB7_4data7VariantEp4ItemRB1d_EL_ENtNtNtCsfvfooZQ3Axs_4core3ops5deref8DerefMut9deref_mutCscP4KCwp5Z66_14zerovec_derive, symObjAddr: 0xA34, symBinAddr: 0x1384C, symSize: 0x3C }
  - { offset: 0x24B68, size: 0x8, addend: 0x0, symName: __RNvXs0_NtCs6IAuOt8vWmF_3syn5dropsINtB5_6NoDropDINtNtB7_10punctuated9IterTraitNtNtB7_4path15GenericArgumentEp4ItemRB1d_EL_ENtNtNtCsfvfooZQ3Axs_4core3ops5deref8DerefMut9deref_mutCscP4KCwp5Z66_14zerovec_derive, symObjAddr: 0xA70, symBinAddr: 0x13888, symSize: 0x3C }
  - { offset: 0x24C57, size: 0x8, addend: 0x0, symName: __RNvXs_NtCs6IAuOt8vWmF_3syn5dropsINtB4_6NoDropDINtNtB6_10punctuated9IterTraitNtCs3cP53eQoTwO_11proc_macro25IdentEp4ItemRB1c_EL_ENtNtNtCsfvfooZQ3Axs_4core3ops5deref5Deref5derefCscP4KCwp5Z66_14zerovec_derive, symObjAddr: 0x17D0, symBinAddr: 0x145E8, symSize: 0x3C }
  - { offset: 0x25540, size: 0x8, addend: 0x0, symName: __RINvXNtNtNtNtCscOYdFFY2T5N_3std3sys12thread_local6native4lazyzNtB3_14DestroyedState13register_dtorINtNtCsfvfooZQ3Axs_4core4cell4CellTyyEEECscP4KCwp5Z66_14zerovec_derive, symObjAddr: 0x76C, symBinAddr: 0x13584, symSize: 0x10 }
  - { offset: 0x25758, size: 0x8, addend: 0x0, symName: __RINvMs0_NtNtNtNtCscOYdFFY2T5N_3std3sys12thread_local6native4lazyINtB6_7StorageINtNtCsfvfooZQ3Axs_4core4cell4CellTyyEEzE10initializeNvNvNvMNtNtBe_4hash6randomNtB2c_11RandomState3new4KEYS6___initECscP4KCwp5Z66_14zerovec_derive, symObjAddr: 0x0, symBinAddr: 0x1B4854, symSize: 0x264 }
  - { offset: 0x259AC, size: 0x8, addend: 0x0, symName: __RINvMs0_NtNtNtNtCscOYdFFY2T5N_3std3sys12thread_local6native4lazyINtB6_7StorageINtNtCsfvfooZQ3Axs_4core4cell4CellTyyEEzE11get_or_initNvNvNvMNtNtBe_4hash6randomNtB2d_11RandomState3new4KEYS6___initECscP4KCwp5Z66_14zerovec_derive, symObjAddr: 0x264, symBinAddr: 0x1307C, symSize: 0xC4 }
  - { offset: 0x25B14, size: 0x8, addend: 0x0, symName: __RINvMs9_NtCs6IAuOt8vWmF_3syn5parseNtB6_11ParseBuffer16parse_terminatedNtCs3cP53eQoTwO_11proc_macro25IdentINvNtB8_5token5CommaNtNtB8_9lookahead11TokenMarkerEECscP4KCwp5Z66_14zerovec_derive, symObjAddr: 0x328, symBinAddr: 0x13140, symSize: 0x3C }
  - { offset: 0x25D1B, size: 0x8, addend: 0x0, symName: __RNvMNtCs6IAuOt8vWmF_3syn5dropsINtB2_6NoDropINtNtB4_10punctuated11PrivateIterNtCs3cP53eQoTwO_11proc_macro25IdentNtNtB4_5token5CommaEE3newCscP4KCwp5Z66_14zerovec_derive, symObjAddr: 0x818, symBinAddr: 0x13630, symSize: 0x40 }
  - { offset: 0x25DA5, size: 0x8, addend: 0x0, symName: __RNvMNtCs6IAuOt8vWmF_3syn5dropsINtB2_6NoDropINtNtB4_10punctuated11PrivateIterNtNtB4_4data7VariantNtNtB4_5token5CommaEE3newCscP4KCwp5Z66_14zerovec_derive, symObjAddr: 0x858, symBinAddr: 0x13670, symSize: 0x40 }
  - { offset: 0x25E2F, size: 0x8, addend: 0x0, symName: __RNvMNtCs6IAuOt8vWmF_3syn5dropsINtB2_6NoDropINtNtB4_10punctuated11PrivateIterNtNtB4_4path15GenericArgumentNtNtB4_5token5CommaEE3newCscP4KCwp5Z66_14zerovec_derive, symObjAddr: 0x898, symBinAddr: 0x136B0, symSize: 0x40 }
  - { offset: 0x2681D, size: 0x8, addend: 0x0, symName: __RNCNvMNtCscP4KCwp5Z66_14zerovec_derive5utilsNtB4_8ReprInfo7compute0B6_, symObjAddr: 0x3000, symBinAddr: 0x15E18, symSize: 0x50 }
  - { offset: 0x26861, size: 0x8, addend: 0x0, symName: __RNvXs_NtCscP4KCwp5Z66_14zerovec_derive5utilsNtB4_18IdentListAttributeNtNtCs6IAuOt8vWmF_3syn5parse5Parse5parse, symObjAddr: 0x30DC, symBinAddr: 0x15EF4, symSize: 0xE8 }
  - { offset: 0x268AC, size: 0x8, addend: 0x0, symName: __RNvNtCscP4KCwp5Z66_14zerovec_derive5utils16wrap_field_inits, symObjAddr: 0x31C4, symBinAddr: 0x15FDC, symSize: 0x3FC }
  - { offset: 0x26A6F, size: 0x8, addend: 0x0, symName: __RNvNtCscP4KCwp5Z66_14zerovec_derive5utils8semi_for, symObjAddr: 0x35C0, symBinAddr: 0x163D8, symSize: 0xBC }
  - { offset: 0x26AB0, size: 0x8, addend: 0x0, symName: __RNvNtCscP4KCwp5Z66_14zerovec_derive5utils8repr_for, symObjAddr: 0x367C, symBinAddr: 0x16494, symSize: 0x144 }
  - { offset: 0x26B06, size: 0x8, addend: 0x0, symName: __RNvNtCscP4KCwp5Z66_14zerovec_derive5utils14suffixed_ident, symObjAddr: 0x37C0, symBinAddr: 0x165D8, symSize: 0x114 }
  - { offset: 0x26B6D, size: 0x8, addend: 0x0, symName: __RINvNtCscP4KCwp5Z66_14zerovec_derive5utils26generate_per_field_offsetsNCNvNtB4_11make_varule16make_encode_impl0EB4_, symObjAddr: 0x38D4, symBinAddr: 0x166EC, symSize: 0x904 }
  - { offset: 0x26D01, size: 0x8, addend: 0x0, symName: __RINvNtCscP4KCwp5Z66_14zerovec_derive5utils26generate_per_field_offsetsNCNvNtB4_3ule23generate_ule_validators0EB4_, symObjAddr: 0x41D8, symBinAddr: 0x16FF0, symSize: 0x904 }
  - { offset: 0x26E9F, size: 0x8, addend: 0x0, symName: __RNCINvMs0_NtCscP4KCwp5Z66_14zerovec_derive5utilsNtB8_9FieldInfo9make_listINtNtCs6IAuOt8vWmF_3syn10punctuated4IterNtNtB1e_4data5FieldEE0Ba_, symObjAddr: 0x4B94, symBinAddr: 0x179AC, symSize: 0x50 }
  - { offset: 0x26EFE, size: 0x8, addend: 0x0, symName: __RNCINvMs0_NtCscP4KCwp5Z66_14zerovec_derive5utilsNtB8_9FieldInfo9make_listINtNtNtNtCsfvfooZQ3Axs_4core4iter8adapters4take4TakeINtNtCs6IAuOt8vWmF_3syn10punctuated4IterNtNtB24_4data5FieldEEE0Ba_, symObjAddr: 0x4BE4, symBinAddr: 0x179FC, symSize: 0x50 }
  - { offset: 0x26F6D, size: 0x8, addend: 0x0, symName: __RNvNtCscP4KCwp5Z66_14zerovec_derive5utils35extract_parenthetical_zerovec_attrs, symObjAddr: 0x50FC, symBinAddr: 0x17F14, symSize: 0x188 }
  - { offset: 0x26FF5, size: 0x8, addend: 0x0, symName: __RNCNvNtCscP4KCwp5Z66_14zerovec_derive5utils35extract_parenthetical_zerovec_attrs0B5_, symObjAddr: 0x5284, symBinAddr: 0x1809C, symSize: 0x3B0 }
  - { offset: 0x270D6, size: 0x8, addend: 0x0, symName: __RNvNtCscP4KCwp5Z66_14zerovec_derive5utils22extract_single_tt_attr, symObjAddr: 0x5634, symBinAddr: 0x1844C, symSize: 0x178 }
  - { offset: 0x2715F, size: 0x8, addend: 0x0, symName: __RNCNvNtCscP4KCwp5Z66_14zerovec_derive5utils22extract_single_tt_attr0B5_, symObjAddr: 0x57AC, symBinAddr: 0x185C4, symSize: 0x448 }
  - { offset: 0x2722A, size: 0x8, addend: 0x0, symName: __RNvNtCscP4KCwp5Z66_14zerovec_derive5utils26extract_zerovec_attributes, symObjAddr: 0x5BF4, symBinAddr: 0x18A0C, symSize: 0x8C }
  - { offset: 0x27273, size: 0x8, addend: 0x0, symName: __RNCNvNtCscP4KCwp5Z66_14zerovec_derive5utils26extract_zerovec_attributes0B5_, symObjAddr: 0x5C80, symBinAddr: 0x18A98, symSize: 0x110 }
  - { offset: 0x272B4, size: 0x8, addend: 0x0, symName: __RNvNtCscP4KCwp5Z66_14zerovec_derive5utils24extract_field_attributes, symObjAddr: 0x5D90, symBinAddr: 0x18BA8, symSize: 0x304 }
  - { offset: 0x27346, size: 0x8, addend: 0x0, symName: __RNvNtCscP4KCwp5Z66_14zerovec_derive5utils25extract_attributes_common, symObjAddr: 0x6094, symBinAddr: 0x18EAC, symSize: 0xE08 }
  - { offset: 0x275C8, size: 0x8, addend: 0x0, symName: __RNvXs1_NtCscP4KCwp5Z66_14zerovec_derive5utilsNtB5_8ReprInfoNtNtCsfvfooZQ3Axs_4core7default7Default7defaultB7_, symObjAddr: 0x6E9C, symBinAddr: 0x19CB4, symSize: 0x20 }
  - { offset: 0x275EB, size: 0x8, addend: 0x0, symName: __RNvXs3_NtCscP4KCwp5Z66_14zerovec_derive5utilsNtB5_9FieldInfoNtNtCsfvfooZQ3Axs_4core3fmt5Debug3fmtB7_, symObjAddr: 0x6EBC, symBinAddr: 0x19CD4, symSize: 0xB4 }
  - { offset: 0x2762B, size: 0x8, addend: 0x0, symName: __RNvXs4_NtCscP4KCwp5Z66_14zerovec_derive5utilsNtB5_12ZeroVecAttrsNtNtCsfvfooZQ3Axs_4core7default7Default7defaultB7_, symObjAddr: 0x6F70, symBinAddr: 0x19D88, symSize: 0x58 }
  - { offset: 0x278BF, size: 0x8, addend: 0x0, symName: __RNvMNtCscP4KCwp5Z66_14zerovec_derive5utilsNtB2_8ReprInfo7compute, symObjAddr: 0x2C20, symBinAddr: 0x15A38, symSize: 0x3E0 }
  - { offset: 0x27964, size: 0x8, addend: 0x0, symName: __RNvMNtCscP4KCwp5Z66_14zerovec_derive5utilsNtB2_8ReprInfo22cpacked_or_transparent, symObjAddr: 0x3050, symBinAddr: 0x15E68, symSize: 0x8C }
  - { offset: 0x279A4, size: 0x8, addend: 0x0, symName: __RINvMs0_NtCscP4KCwp5Z66_14zerovec_derive5utilsNtB6_9FieldInfo9make_listINtNtCs6IAuOt8vWmF_3syn10punctuated4IterNtNtB1c_4data5FieldEEB8_, symObjAddr: 0x4ADC, symBinAddr: 0x178F4, symSize: 0x64 }
  - { offset: 0x279CF, size: 0x8, addend: 0x0, symName: __RINvMs0_NtCscP4KCwp5Z66_14zerovec_derive5utilsNtB6_9FieldInfo9make_listINtNtNtNtCsfvfooZQ3Axs_4core4iter8adapters4take4TakeINtNtCs6IAuOt8vWmF_3syn10punctuated4IterNtNtB22_4data5FieldEEEB8_, symObjAddr: 0x4B40, symBinAddr: 0x17958, symSize: 0x54 }
  - { offset: 0x279FB, size: 0x8, addend: 0x0, symName: __RNvMs0_NtCscP4KCwp5Z66_14zerovec_derive5utilsNtB5_9FieldInfo13new_for_field, symObjAddr: 0x4C34, symBinAddr: 0x17A4C, symSize: 0x18C }
  - { offset: 0x27A82, size: 0x8, addend: 0x0, symName: __RNvMs0_NtCscP4KCwp5Z66_14zerovec_derive5utilsNtB5_9FieldInfo6setter, symObjAddr: 0x4DC0, symBinAddr: 0x17BD8, symSize: 0xF4 }
  - { offset: 0x27ACE, size: 0x8, addend: 0x0, symName: __RNvMs0_NtCscP4KCwp5Z66_14zerovec_derive5utilsNtB5_9FieldInfo6getter, symObjAddr: 0x4EB4, symBinAddr: 0x17CCC, symSize: 0x124 }
  - { offset: 0x27B1B, size: 0x8, addend: 0x0, symName: __RNvMs0_NtCscP4KCwp5Z66_14zerovec_derive5utilsNtB5_9FieldInfo15getter_doc_name, symObjAddr: 0x4FD8, symBinAddr: 0x17DF0, symSize: 0x124 }
  - { offset: 0x281BD, size: 0x8, addend: 0x0, symName: __RINvMs1_NtCsloNvcHxBCre_9hashbrown3mapINtB6_7HashMaphuNtNtNtCscOYdFFY2T5N_3std4hash6random11RandomStateE12remove_entryhECscP4KCwp5Z66_14zerovec_derive, symObjAddr: 0x0, symBinAddr: 0x19DE0, symSize: 0x54 }
  - { offset: 0x281DF, size: 0x8, addend: 0x0, symName: ___rustc_proc_macro_decls_955deee3e60a7a58__, symObjAddr: 0x52C0, symBinAddr: 0x258CD8, symSize: 0x0 }
  - { offset: 0x28406, size: 0x8, addend: 0x0, symName: __RNvNtCscP4KCwp5Z66_14zerovec_derive3ule11derive_impl, symObjAddr: 0x2230, symBinAddr: 0x1C010, symSize: 0x13F4 }
  - { offset: 0x28624, size: 0x8, addend: 0x0, symName: __RNvNtCscP4KCwp5Z66_14zerovec_derive3ule23generate_ule_validators, symObjAddr: 0x3624, symBinAddr: 0x1D404, symSize: 0x40 }
  - { offset: 0x28655, size: 0x8, addend: 0x0, symName: __RNCNvNtCscP4KCwp5Z66_14zerovec_derive3ule23generate_ule_validators0B5_, symObjAddr: 0x3664, symBinAddr: 0x1D444, symSize: 0x608 }
  - { offset: 0x2875D, size: 0x8, addend: 0x0, symName: __RNvNtCscP4KCwp5Z66_14zerovec_derive3ule15make_ule_fields, symObjAddr: 0x3C6C, symBinAddr: 0x1DA4C, symSize: 0x48 }
  - { offset: 0x2878E, size: 0x8, addend: 0x0, symName: __RNCNvNtCscP4KCwp5Z66_14zerovec_derive3ule15make_ule_fields0B5_, symObjAddr: 0x3CB4, symBinAddr: 0x1DA94, symSize: 0x238 }
  - { offset: 0x2884E, size: 0x8, addend: 0x0, symName: __RNvCscP4KCwp5Z66_14zerovec_derive10ule_derive, symObjAddr: 0x3EEC, symBinAddr: 0x1DCCC, symSize: 0x178 }
  - { offset: 0x288C3, size: 0x8, addend: 0x0, symName: __RNvCscP4KCwp5Z66_14zerovec_derive13varule_derive, symObjAddr: 0x4064, symBinAddr: 0x1DE44, symSize: 0x188 }
  - { offset: 0x28938, size: 0x8, addend: 0x0, symName: __RNvCscP4KCwp5Z66_14zerovec_derive8make_ule, symObjAddr: 0x41EC, symBinAddr: 0x1DFCC, symSize: 0x324 }
  - { offset: 0x28A06, size: 0x8, addend: 0x0, symName: __RNvCscP4KCwp5Z66_14zerovec_derive11make_varule, symObjAddr: 0x4510, symBinAddr: 0x1E2F0, symSize: 0x324 }
  - { offset: 0x2BBBE, size: 0x8, addend: 0x0, symName: __RNvXs1a_NtCsfvfooZQ3Axs_4core3fmtRNtNtCs6IAuOt8vWmF_3syn2ty8TypePathNtB6_5Debug3fmtCscP4KCwp5Z66_14zerovec_derive, symObjAddr: 0x12B4, symBinAddr: 0x1B094, symSize: 0x30 }
  - { offset: 0x2BC04, size: 0x8, addend: 0x0, symName: __RNvXs1a_NtCsfvfooZQ3Axs_4core3fmtRNtNtCs6IAuOt8vWmF_3syn4data5FieldNtB6_5Debug3fmtCscP4KCwp5Z66_14zerovec_derive, symObjAddr: 0x12E4, symBinAddr: 0x1B0C4, symSize: 0x30 }
  - { offset: 0x2BC4A, size: 0x8, addend: 0x0, symName: __RNvXs1a_NtCsfvfooZQ3Axs_4core3fmtRRNtNtCs6IAuOt8vWmF_3syn2ty4TypeNtB6_5Debug3fmtCscP4KCwp5Z66_14zerovec_derive, symObjAddr: 0x1314, symBinAddr: 0x1B0F4, symSize: 0x30 }
  - { offset: 0x2C9A5, size: 0x8, addend: 0x0, symName: __RNvNvMNtNtCsfvfooZQ3Axs_4core3ptr9const_ptrPp7sub_ptr18precondition_checkCscP4KCwp5Z66_14zerovec_derive, symObjAddr: 0xD68, symBinAddr: 0x1AB48, symSize: 0x40 }
  - { offset: 0x2C9EE, size: 0x8, addend: 0x0, symName: __RINvXs2U_NtNtCsfvfooZQ3Axs_4core5slice4iterINtB7_4IterNtNtCs6IAuOt8vWmF_3syn4attr9AttributeENtNtNtNtBb_4iter6traits8iterator8Iterator4findQNCNvMNtCscP4KCwp5Z66_14zerovec_derive5utilsNtB2i_8ReprInfo7compute0EB2k_, symObjAddr: 0xCC, symBinAddr: 0x19EAC, symSize: 0xB4 }
  - { offset: 0x2CA53, size: 0x8, addend: 0x0, symName: __RINvXs2U_NtNtCsfvfooZQ3Axs_4core5slice4iterINtB7_4IterNtNtCscP4KCwp5Z66_14zerovec_derive11make_varule12UnsizedFieldENtNtNtNtBb_4iter6traits8iterator8Iterator3allNCNvMBS_NtBS_13UnsizedFields6has_zf0EBU_, symObjAddr: 0x180, symBinAddr: 0x19F60, symSize: 0xB0 }
  - { offset: 0x2CAB8, size: 0x8, addend: 0x0, symName: __RINvXs2U_NtNtCsfvfooZQ3Axs_4core5slice4iterINtB7_4IterNtNtCscP4KCwp5Z66_14zerovec_derive5utils9FieldInfoENtNtNtNtBb_4iter6traits8iterator8Iterator4folduNCINvNtNtB1L_8adapters3map8map_foldRBQ_NtCs3cP53eQoTwO_11proc_macro211TokenStreamuNCNvNtBU_11make_varule21make_zf_and_from_impl0NCINvNvB1F_8for_each4callB33_NCINvMsi_NtCse1nGBsou5OW_5alloc3vecINtB56_3VecB33_E14extend_trustedINtB2v_3MapBF_B3K_EE0E0E0EBU_, symObjAddr: 0x230, symBinAddr: 0x1A010, symSize: 0x1B8 }
  - { offset: 0x2CC0C, size: 0x8, addend: 0x0, symName: __RINvXs2U_NtNtCsfvfooZQ3Axs_4core5slice4iterINtB7_4IterNtNtCscP4KCwp5Z66_14zerovec_derive5utils9FieldInfoENtNtNtNtBb_4iter6traits8iterator8Iterator4folduNCINvNtNtB1L_8adapters3map8map_foldRBQ_NtCs3cP53eQoTwO_11proc_macro211TokenStreamuNCNvNtBU_3ule15make_ule_fields0NCINvNvB1F_8for_each4callB33_NCINvMsi_NtCse1nGBsou5OW_5alloc3vecINtB4R_3VecB33_E14extend_trustedINtB2v_3MapBF_B3K_EE0E0E0EBU_, symObjAddr: 0x3E8, symBinAddr: 0x1A1C8, symSize: 0x1B8 }
  - { offset: 0x2CD60, size: 0x8, addend: 0x0, symName: __RNvXs2U_NtNtCsfvfooZQ3Axs_4core5slice4iterINtB6_4IterNtCs3cP53eQoTwO_11proc_macro211TokenStreamENtNtNtNtBa_4iter6traits8iterator8Iterator4nextCscP4KCwp5Z66_14zerovec_derive, symObjAddr: 0x1344, symBinAddr: 0x1B124, symSize: 0xBC }
  - { offset: 0x2CEAE, size: 0x8, addend: 0x0, symName: __RNvXs2U_NtNtCsfvfooZQ3Axs_4core5slice4iterINtB6_4IterNtNtCscP4KCwp5Z66_14zerovec_derive11make_varule12UnsizedFieldENtNtNtNtBa_4iter6traits8iterator8Iterator4nextBT_, symObjAddr: 0x1400, symBinAddr: 0x1B1E0, symSize: 0xBC }
  - { offset: 0x2CFFC, size: 0x8, addend: 0x0, symName: __RNvXs2U_NtNtCsfvfooZQ3Axs_4core5slice4iterINtB6_4IterNtNtCscP4KCwp5Z66_14zerovec_derive5utils9FieldInfoENtNtNtNtBa_4iter6traits8iterator8Iterator4nextBT_, symObjAddr: 0x14BC, symBinAddr: 0x1B29C, symSize: 0xBC }
  - { offset: 0x2D14A, size: 0x8, addend: 0x0, symName: __RNvXs2U_NtNtCsfvfooZQ3Axs_4core5slice4iterINtB6_4IterNtNtCscP4KCwp5Z66_14zerovec_derive5utils9FieldInfoENtNtNtNtBa_4iter6traits8iterator8Iterator9size_hintBT_, symObjAddr: 0x1578, symBinAddr: 0x1B358, symSize: 0x70 }
  - { offset: 0x2D1B9, size: 0x8, addend: 0x0, symName: __RNvXs2U_NtNtCsfvfooZQ3Axs_4core5slice4iterINtB6_4IterRhENtNtNtNtBa_4iter6traits8iterator8Iterator4nextCscP4KCwp5Z66_14zerovec_derive, symObjAddr: 0x15E8, symBinAddr: 0x1B3C8, symSize: 0xBC }
  - { offset: 0x2D307, size: 0x8, addend: 0x0, symName: __RNvXs2U_NtNtCsfvfooZQ3Axs_4core5slice4iterINtB6_4IterTNtCs3cP53eQoTwO_11proc_macro25IdentNtNtCs6IAuOt8vWmF_3syn5token5CommaEENtNtNtNtBa_4iter6traits8iterator8Iterator4nextCscP4KCwp5Z66_14zerovec_derive, symObjAddr: 0x16A4, symBinAddr: 0x1B484, symSize: 0xBC }
  - { offset: 0x2D79A, size: 0x8, addend: 0x0, symName: __RNvXs2V_NtNtCsfvfooZQ3Axs_4core5slice4iterINtB6_4IterTNtCs3cP53eQoTwO_11proc_macro25IdentNtNtCs6IAuOt8vWmF_3syn5token5CommaEENtNtNtNtBa_4iter6traits12double_ended19DoubleEndedIterator9next_backCscP4KCwp5Z66_14zerovec_derive, symObjAddr: 0x1760, symBinAddr: 0x1B540, symSize: 0x100 }
  - { offset: 0x2D8F6, size: 0x8, addend: 0x0, symName: __RNvXs2V_NtNtCsfvfooZQ3Axs_4core5slice4iterINtB6_4IterTNtNtCs6IAuOt8vWmF_3syn4data7VariantNtNtBU_5token5CommaEENtNtNtNtBa_4iter6traits12double_ended19DoubleEndedIterator9next_backCscP4KCwp5Z66_14zerovec_derive, symObjAddr: 0x1860, symBinAddr: 0x1B640, symSize: 0x100 }
  - { offset: 0x2DA52, size: 0x8, addend: 0x0, symName: __RNvXs2V_NtNtCsfvfooZQ3Axs_4core5slice4iterINtB6_4IterTNtNtCs6IAuOt8vWmF_3syn4path15GenericArgumentNtNtBU_5token5CommaEENtNtNtNtBa_4iter6traits12double_ended19DoubleEndedIterator9next_backCscP4KCwp5Z66_14zerovec_derive, symObjAddr: 0x1960, symBinAddr: 0x1B740, symSize: 0x100 }
  - { offset: 0x2DCA2, size: 0x8, addend: 0x0, symName: __RNvXs5_NtNtCsfvfooZQ3Axs_4core5slice4iterINtB5_4IterTNtCs3cP53eQoTwO_11proc_macro25IdentNtNtCs6IAuOt8vWmF_3syn5token5CommaEENtNtB9_5clone5Clone5cloneCscP4KCwp5Z66_14zerovec_derive, symObjAddr: 0x1AEC, symBinAddr: 0x1B8CC, symSize: 0x20 }
  - { offset: 0x2DCD7, size: 0x8, addend: 0x0, symName: __RNvXs5_NtNtCsfvfooZQ3Axs_4core5slice4iterINtB5_4IterTNtNtCs6IAuOt8vWmF_3syn4data7VariantNtNtBT_5token5CommaEENtNtB9_5clone5Clone5cloneCscP4KCwp5Z66_14zerovec_derive, symObjAddr: 0x1B0C, symBinAddr: 0x1B8EC, symSize: 0x20 }
  - { offset: 0x2DD0C, size: 0x8, addend: 0x0, symName: __RNvXs5_NtNtCsfvfooZQ3Axs_4core5slice4iterINtB5_4IterTNtNtCs6IAuOt8vWmF_3syn4path15GenericArgumentNtNtBT_5token5CommaEENtNtB9_5clone5Clone5cloneCscP4KCwp5Z66_14zerovec_derive, symObjAddr: 0x1B2C, symBinAddr: 0x1B90C, symSize: 0x20 }
  - { offset: 0x2DDCC, size: 0x8, addend: 0x0, symName: __RNvMNtCsfvfooZQ3Axs_4core5sliceSh15copy_from_sliceCscP4KCwp5Z66_14zerovec_derive, symObjAddr: 0x76C, symBinAddr: 0x1A54C, symSize: 0xA4 }
  - { offset: 0x2DE86, size: 0x8, addend: 0x0, symName: __RINvYINtNtNtCsfvfooZQ3Axs_4core5slice4iter4IterNtNtCs6IAuOt8vWmF_3syn4attr9AttributeENtNtNtNtBa_4iter6traits8iterator8Iterator6filterNCNvMNtCscP4KCwp5Z66_14zerovec_derive5utilsNtB2c_8ReprInfo7compute0EB2e_, symObjAddr: 0x5A0, symBinAddr: 0x1A380, symSize: 0x1C }
  - { offset: 0x2DED5, size: 0x8, addend: 0x0, symName: __RINvYINtNtNtCsfvfooZQ3Axs_4core5slice4iter4IterNtNtCscP4KCwp5Z66_14zerovec_derive5utils9FieldInfoENtNtNtNtBa_4iter6traits8iterator8Iterator3mapNtCs3cP53eQoTwO_11proc_macro211TokenStreamNCNvNtBN_11make_varule21make_zf_and_from_impl0EBN_, symObjAddr: 0x5BC, symBinAddr: 0x1A39C, symSize: 0x1C }
  - { offset: 0x2DF2D, size: 0x8, addend: 0x0, symName: __RINvYINtNtNtCsfvfooZQ3Axs_4core5slice4iter4IterNtNtCscP4KCwp5Z66_14zerovec_derive5utils9FieldInfoENtNtNtNtBa_4iter6traits8iterator8Iterator3mapNtCs3cP53eQoTwO_11proc_macro211TokenStreamNCNvNtBN_3ule15make_ule_fields0EBN_, symObjAddr: 0x5D8, symBinAddr: 0x1A3B8, symSize: 0x1C }
  - { offset: 0x2DF85, size: 0x8, addend: 0x0, symName: __RINvYINtNtNtCsfvfooZQ3Axs_4core5slice4iter4IterNtNtCscP4KCwp5Z66_14zerovec_derive5utils9FieldInfoENtNtNtNtBa_4iter6traits8iterator8Iterator3mapNtCs3cP53eQoTwO_11proc_macro211TokenStreamNCNvNtBN_6varule11derive_impl0EBN_, symObjAddr: 0x5F4, symBinAddr: 0x1A3D4, symSize: 0x1C }
  - { offset: 0x2DFDD, size: 0x8, addend: 0x0, symName: __RINvYNtNtCs6IAuOt8vWmF_3syn8generics9LifetimesNtNtNtNtCsfvfooZQ3Axs_4core4iter6traits8iterator8Iterator4foldjNCNvYB3_BI_5count0ECscP4KCwp5Z66_14zerovec_derive, symObjAddr: 0x610, symBinAddr: 0x1A3F0, symSize: 0xF0 }
  - { offset: 0x2E070, size: 0x8, addend: 0x0, symName: __RNvYINtNtNtCsfvfooZQ3Axs_4core5slice4iter4IterNtNtCscP4KCwp5Z66_14zerovec_derive11make_varule12UnsizedFieldENtNtNtNtB9_4iter6traits8iterator8Iterator9enumerateBM_, symObjAddr: 0x1C70, symBinAddr: 0x1BA50, symSize: 0x28 }
  - { offset: 0x2E0BC, size: 0x8, addend: 0x0, symName: __RNvYINtNtNtCsfvfooZQ3Axs_4core5slice4iter4IterNtNtCscP4KCwp5Z66_14zerovec_derive5utils9FieldInfoENtNtNtNtB9_4iter6traits8iterator8Iterator9enumerateBM_, symObjAddr: 0x1C98, symBinAddr: 0x1BA78, symSize: 0x28 }
  - { offset: 0x2E108, size: 0x8, addend: 0x0, symName: __RNvYNtNtCs6IAuOt8vWmF_3syn8generics9LifetimesNtNtNtNtCsfvfooZQ3Axs_4core4iter6traits8iterator8Iterator5countCscP4KCwp5Z66_14zerovec_derive, symObjAddr: 0x1CC0, symBinAddr: 0x1BAA0, symSize: 0x30 }
  - { offset: 0x2E188, size: 0x8, addend: 0x0, symName: __RNvXNtNtNtCsfvfooZQ3Axs_4core4iter6traits7collectINtNtNtB8_5slice4iter4IterNtNtCscP4KCwp5Z66_14zerovec_derive11make_varule12UnsizedFieldENtB2_12IntoIterator9into_iterB1f_, symObjAddr: 0x10E4, symBinAddr: 0x1AEC4, symSize: 0x1C }
  - { offset: 0x2E1BF, size: 0x8, addend: 0x0, symName: __RNvXNtNtNtCsfvfooZQ3Axs_4core4iter6traits7collectINtNtNtB8_5slice4iter4IterRhENtB2_12IntoIterator9into_iterCscP4KCwp5Z66_14zerovec_derive, symObjAddr: 0x1100, symBinAddr: 0x1AEE0, symSize: 0x1C }
  - { offset: 0x2E585, size: 0x8, addend: 0x0, symName: __RNvMNtNtCsfvfooZQ3Axs_4core4char7methodsc8to_digitCscP4KCwp5Z66_14zerovec_derive, symObjAddr: 0x810, symBinAddr: 0x1A5F0, symSize: 0x14C }
  - { offset: 0x2E644, size: 0x8, addend: 0x0, symName: __RNvNtNtNtCsfvfooZQ3Axs_4core9core_arch7aarch644neon7vld1_u8CscP4KCwp5Z66_14zerovec_derive, symObjAddr: 0xD04, symBinAddr: 0x1AAE4, symSize: 0x2C }
  - { offset: 0x2E672, size: 0x8, addend: 0x0, symName: __RNvNtNtNtCsfvfooZQ3Axs_4core9core_arch7aarch644neon7vst1_u8CscP4KCwp5Z66_14zerovec_derive, symObjAddr: 0xD30, symBinAddr: 0x1AB10, symSize: 0x38 }
  - { offset: 0x2E721, size: 0x8, addend: 0x0, symName: __RNvXsk_NtNtCsfvfooZQ3Axs_4core3cmp5implshNtB7_9PartialEq2eqCscP4KCwp5Z66_14zerovec_derive, symObjAddr: 0x1C44, symBinAddr: 0x1BA24, symSize: 0x2C }
  - { offset: 0x2F01A, size: 0x8, addend: 0x0, symName: __RNCINvNtCsloNvcHxBCre_9hashbrown3map11make_hasherhuNtNtNtCscOYdFFY2T5N_3std4hash6random11RandomStateE0CscP4KCwp5Z66_14zerovec_derive, symObjAddr: 0x700, symBinAddr: 0x1A4E0, symSize: 0x3C }
  - { offset: 0x2F09C, size: 0x8, addend: 0x0, symName: __RNCINvNtCsloNvcHxBCre_9hashbrown3map14equivalent_keyhhuE0CscP4KCwp5Z66_14zerovec_derive, symObjAddr: 0x73C, symBinAddr: 0x1A51C, symSize: 0x30 }
  - { offset: 0x2F165, size: 0x8, addend: 0x0, symName: __RNvXs5_NtCsloNvcHxBCre_9hashbrown3mapINtB5_7HashMaphuNtNtNtCscOYdFFY2T5N_3std4hash6random11RandomStateENtNtCsfvfooZQ3Axs_4core7default7Default7defaultCscP4KCwp5Z66_14zerovec_derive, symObjAddr: 0x1A60, symBinAddr: 0x1B840, symSize: 0x8C }
  - { offset: 0x2F1E9, size: 0x8, addend: 0x0, symName: __RNvXsG_NtCsloNvcHxBCre_9hashbrown3mapINtB5_4IterhuENtNtNtNtCsfvfooZQ3Axs_4core4iter6traits8iterator8Iterator4nextCscP4KCwp5Z66_14zerovec_derive, symObjAddr: 0x1B4C, symBinAddr: 0x1B92C, symSize: 0xF8 }
  - { offset: 0x2F5D9, size: 0x8, addend: 0x0, symName: __RNvXCsloNvcHxBCre_9hashbrownhINtB2_10EquivalenthE10equivalentCscP4KCwp5Z66_14zerovec_derive, symObjAddr: 0xDA8, symBinAddr: 0x1AB88, symSize: 0x50 }
  - { offset: 0x30592, size: 0x8, addend: 0x0, symName: __RINvMs1_NtCsloNvcHxBCre_9hashbrown3mapINtB6_7HashMaphuNtNtNtCscOYdFFY2T5N_3std4hash6random11RandomStateE12remove_entryhECscP4KCwp5Z66_14zerovec_derive, symObjAddr: 0x0, symBinAddr: 0x19DE0, symSize: 0x54 }
  - { offset: 0x30635, size: 0x8, addend: 0x0, symName: __RINvMs1_NtCsloNvcHxBCre_9hashbrown3mapINtB6_7HashMaphuNtNtNtCscOYdFFY2T5N_3std4hash6random11RandomStateE6removehECscP4KCwp5Z66_14zerovec_derive, symObjAddr: 0x54, symBinAddr: 0x19E34, symSize: 0x78 }
  - { offset: 0x35359, size: 0x8, addend: 0x0, symName: __RNvXNtCs6IAuOt8vWmF_3syn11parse_quoteNtNtB4_6derive11DeriveInputNtB2_10ParseQuote5parseCscP4KCwp5Z66_14zerovec_derive, symObjAddr: 0xF78, symBinAddr: 0x1AD58, symSize: 0x34 }
  - { offset: 0x3539A, size: 0x8, addend: 0x0, symName: __RNvXNtCs6IAuOt8vWmF_3syn7spannedNtNtB4_4data5FieldNtB2_7Spanned4spanCscP4KCwp5Z66_14zerovec_derive, symObjAddr: 0xFAC, symBinAddr: 0x1AD8C, symSize: 0x34 }
  - { offset: 0x353CF, size: 0x8, addend: 0x0, symName: __RNvXNtCs6IAuOt8vWmF_3syn7spannedNtNtB4_4data7VariantNtB2_7Spanned4spanCscP4KCwp5Z66_14zerovec_derive, symObjAddr: 0xFE0, symBinAddr: 0x1ADC0, symSize: 0x34 }
  - { offset: 0x35404, size: 0x8, addend: 0x0, symName: __RNvXNtCs6IAuOt8vWmF_3syn7spannedNtNtB4_4expr4ExprNtB2_7Spanned4spanCscP4KCwp5Z66_14zerovec_derive, symObjAddr: 0x1014, symBinAddr: 0x1ADF4, symSize: 0x34 }
  - { offset: 0x35439, size: 0x8, addend: 0x0, symName: __RNvXNtCs6IAuOt8vWmF_3syn7spannedNtNtB4_6derive11DeriveInputNtB2_7Spanned4spanCscP4KCwp5Z66_14zerovec_derive, symObjAddr: 0x1048, symBinAddr: 0x1AE28, symSize: 0x34 }
  - { offset: 0x3546E, size: 0x8, addend: 0x0, symName: __RNvXNtCs6IAuOt8vWmF_3syn7spannedNtNtB4_8generics8GenericsNtB2_7Spanned4spanCscP4KCwp5Z66_14zerovec_derive, symObjAddr: 0x107C, symBinAddr: 0x1AE5C, symSize: 0x34 }
  - { offset: 0x354A3, size: 0x8, addend: 0x0, symName: __RNvXNtCs6IAuOt8vWmF_3syn7spannedRNtNtB4_4data5FieldNtB2_7Spanned4spanCscP4KCwp5Z66_14zerovec_derive, symObjAddr: 0x10B0, symBinAddr: 0x1AE90, symSize: 0x34 }
  - { offset: 0x360A3, size: 0x8, addend: 0x0, symName: __RNvMs0_NtCsloNvcHxBCre_9hashbrown3mapINtB5_7HashMaphuNtNtNtCscOYdFFY2T5N_3std4hash6random11RandomStateE4iterCscP4KCwp5Z66_14zerovec_derive, symObjAddr: 0x95C, symBinAddr: 0x1A73C, symSize: 0xC8 }
  - { offset: 0x362D5, size: 0x8, addend: 0x0, symName: __RNvMs1_NtCsloNvcHxBCre_9hashbrown3mapINtB5_7HashMaphuNtNtNtCscOYdFFY2T5N_3std4hash6random11RandomStateE6insertCscP4KCwp5Z66_14zerovec_derive, symObjAddr: 0xA24, symBinAddr: 0x1A804, symSize: 0x190 }
  - { offset: 0x36500, size: 0x8, addend: 0x0, symName: __RNvMs4_NtNtCsfvfooZQ3Axs_4core5slice4iterINtB5_4IterNtCs3cP53eQoTwO_11proc_macro211TokenStreamE3newCscP4KCwp5Z66_14zerovec_derive, symObjAddr: 0xBB4, symBinAddr: 0x1A994, symSize: 0x50 }
  - { offset: 0x36702, size: 0x8, addend: 0x0, symName: __RNvMs4_NtNtCsfvfooZQ3Axs_4core5slice4iterINtB5_4IterNtNtCscP4KCwp5Z66_14zerovec_derive11make_varule12UnsizedFieldE3newBS_, symObjAddr: 0xC04, symBinAddr: 0x1A9E4, symSize: 0x58 }
  - { offset: 0x368D0, size: 0x8, addend: 0x0, symName: __RNvMs4_NtNtCsfvfooZQ3Axs_4core5slice4iterINtB5_4IterNtNtCscP4KCwp5Z66_14zerovec_derive5utils9FieldInfoE3newBS_, symObjAddr: 0xC5C, symBinAddr: 0x1AA3C, symSize: 0x58 }
  - { offset: 0x36AD6, size: 0x8, addend: 0x0, symName: __RNvMs4_NtNtCsfvfooZQ3Axs_4core5slice4iterINtB5_4IterTNtCs3cP53eQoTwO_11proc_macro25IdentNtNtCs6IAuOt8vWmF_3syn5token5CommaEE3newCscP4KCwp5Z66_14zerovec_derive, symObjAddr: 0xCB4, symBinAddr: 0x1AA94, symSize: 0x50 }
  - { offset: 0x36C11, size: 0x8, addend: 0x0, symName: __RNvXNtCs2cqEZUIJimJ_5quote9to_tokensRNtNtCs6IAuOt8vWmF_3syn2ty8TypePathNtB2_8ToTokens9to_tokensCscP4KCwp5Z66_14zerovec_derive, symObjAddr: 0xDF8, symBinAddr: 0x1ABD8, symSize: 0x40 }
  - { offset: 0x36C50, size: 0x8, addend: 0x0, symName: __RNvXNtCs2cqEZUIJimJ_5quote9to_tokensRNtNtCs6IAuOt8vWmF_3syn6derive11DeriveInputNtB2_8ToTokens9to_tokensCscP4KCwp5Z66_14zerovec_derive, symObjAddr: 0xE38, symBinAddr: 0x1AC18, symSize: 0x40 }
  - { offset: 0x36C8F, size: 0x8, addend: 0x0, symName: __RNvXNtCs2cqEZUIJimJ_5quote9to_tokensRNtNtCs6IAuOt8vWmF_3syn8generics8GenericsNtB2_8ToTokens9to_tokensCscP4KCwp5Z66_14zerovec_derive, symObjAddr: 0xE78, symBinAddr: 0x1AC58, symSize: 0x40 }
  - { offset: 0x36CCE, size: 0x8, addend: 0x0, symName: __RNvXNtCs2cqEZUIJimJ_5quote9to_tokensRRNtNtCs6IAuOt8vWmF_3syn2ty4TypeNtB2_8ToTokens9to_tokensCscP4KCwp5Z66_14zerovec_derive, symObjAddr: 0xEB8, symBinAddr: 0x1AC98, symSize: 0x40 }
  - { offset: 0x36D0D, size: 0x8, addend: 0x0, symName: __RNvXNtCs2cqEZUIJimJ_5quote9to_tokensRRNtNtCs6IAuOt8vWmF_3syn2ty8TypePathNtB2_8ToTokens9to_tokensCscP4KCwp5Z66_14zerovec_derive, symObjAddr: 0xEF8, symBinAddr: 0x1ACD8, symSize: 0x40 }
  - { offset: 0x36D4C, size: 0x8, addend: 0x0, symName: __RNvXNtCs2cqEZUIJimJ_5quote9to_tokensRRNtNtCs6IAuOt8vWmF_3syn4data5FieldNtB2_8ToTokens9to_tokensCscP4KCwp5Z66_14zerovec_derive, symObjAddr: 0xF38, symBinAddr: 0x1AD18, symSize: 0x40 }
  - { offset: 0x36D91, size: 0x8, addend: 0x0, symName: __RNvYRNtNtCs6IAuOt8vWmF_3syn4data5FieldNtNtCs2cqEZUIJimJ_5quote9to_tokens8ToTokens15to_token_streamCscP4KCwp5Z66_14zerovec_derive, symObjAddr: 0x1CF0, symBinAddr: 0x1BAD0, symSize: 0x8C }
  - { offset: 0x36DDB, size: 0x8, addend: 0x0, symName: __RNvYRNtNtCs6IAuOt8vWmF_3syn4data5FieldNtNtCs2cqEZUIJimJ_5quote9to_tokens8ToTokens17into_token_streamCscP4KCwp5Z66_14zerovec_derive, symObjAddr: 0x1D7C, symBinAddr: 0x1BB5C, symSize: 0x54 }
  - { offset: 0x36E10, size: 0x8, addend: 0x0, symName: __RNvYRNtNtCs6IAuOt8vWmF_3syn4data7VariantNtNtCs2cqEZUIJimJ_5quote9to_tokens8ToTokens15to_token_streamCscP4KCwp5Z66_14zerovec_derive, symObjAddr: 0x1DD0, symBinAddr: 0x1BBB0, symSize: 0x8C }
  - { offset: 0x36E5A, size: 0x8, addend: 0x0, symName: __RNvYRNtNtCs6IAuOt8vWmF_3syn4data7VariantNtNtCs2cqEZUIJimJ_5quote9to_tokens8ToTokens17into_token_streamCscP4KCwp5Z66_14zerovec_derive, symObjAddr: 0x1E5C, symBinAddr: 0x1BC3C, symSize: 0x54 }
  - { offset: 0x36E8F, size: 0x8, addend: 0x0, symName: __RNvYRNtNtCs6IAuOt8vWmF_3syn4expr4ExprNtNtCs2cqEZUIJimJ_5quote9to_tokens8ToTokens15to_token_streamCscP4KCwp5Z66_14zerovec_derive, symObjAddr: 0x1EB0, symBinAddr: 0x1BC90, symSize: 0x8C }
  - { offset: 0x36ED9, size: 0x8, addend: 0x0, symName: __RNvYRNtNtCs6IAuOt8vWmF_3syn4expr4ExprNtNtCs2cqEZUIJimJ_5quote9to_tokens8ToTokens17into_token_streamCscP4KCwp5Z66_14zerovec_derive, symObjAddr: 0x1F3C, symBinAddr: 0x1BD1C, symSize: 0x54 }
  - { offset: 0x36F0E, size: 0x8, addend: 0x0, symName: __RNvYRNtNtCs6IAuOt8vWmF_3syn6derive11DeriveInputNtNtCs2cqEZUIJimJ_5quote9to_tokens8ToTokens15to_token_streamCscP4KCwp5Z66_14zerovec_derive, symObjAddr: 0x1F90, symBinAddr: 0x1BD70, symSize: 0x8C }
  - { offset: 0x36F58, size: 0x8, addend: 0x0, symName: __RNvYRNtNtCs6IAuOt8vWmF_3syn6derive11DeriveInputNtNtCs2cqEZUIJimJ_5quote9to_tokens8ToTokens17into_token_streamCscP4KCwp5Z66_14zerovec_derive, symObjAddr: 0x201C, symBinAddr: 0x1BDFC, symSize: 0x54 }
  - { offset: 0x36F8D, size: 0x8, addend: 0x0, symName: __RNvYRNtNtCs6IAuOt8vWmF_3syn8generics8GenericsNtNtCs2cqEZUIJimJ_5quote9to_tokens8ToTokens15to_token_streamCscP4KCwp5Z66_14zerovec_derive, symObjAddr: 0x2070, symBinAddr: 0x1BE50, symSize: 0x8C }
  - { offset: 0x36FD7, size: 0x8, addend: 0x0, symName: __RNvYRNtNtCs6IAuOt8vWmF_3syn8generics8GenericsNtNtCs2cqEZUIJimJ_5quote9to_tokens8ToTokens17into_token_streamCscP4KCwp5Z66_14zerovec_derive, symObjAddr: 0x20FC, symBinAddr: 0x1BEDC, symSize: 0x54 }
  - { offset: 0x3700C, size: 0x8, addend: 0x0, symName: __RNvYRRNtNtCs6IAuOt8vWmF_3syn4data5FieldNtNtCs2cqEZUIJimJ_5quote9to_tokens8ToTokens15to_token_streamCscP4KCwp5Z66_14zerovec_derive, symObjAddr: 0x2150, symBinAddr: 0x1BF30, symSize: 0x8C }
  - { offset: 0x37056, size: 0x8, addend: 0x0, symName: __RNvYRRNtNtCs6IAuOt8vWmF_3syn4data5FieldNtNtCs2cqEZUIJimJ_5quote9to_tokens8ToTokens17into_token_streamCscP4KCwp5Z66_14zerovec_derive, symObjAddr: 0x21DC, symBinAddr: 0x1BFBC, symSize: 0x54 }
  - { offset: 0x37097, size: 0x8, addend: 0x0, symName: __RNvXs0_NtCs2cqEZUIJimJ_5quote7spannedNtNtCs6IAuOt8vWmF_3syn4data5FieldNtB5_7Spanned6___spanCscP4KCwp5Z66_14zerovec_derive, symObjAddr: 0x111C, symBinAddr: 0x1AEFC, symSize: 0x44 }
  - { offset: 0x370CC, size: 0x8, addend: 0x0, symName: __RNvXs0_NtCs2cqEZUIJimJ_5quote7spannedNtNtCs6IAuOt8vWmF_3syn4data7VariantNtB5_7Spanned6___spanCscP4KCwp5Z66_14zerovec_derive, symObjAddr: 0x1160, symBinAddr: 0x1AF40, symSize: 0x44 }
  - { offset: 0x37101, size: 0x8, addend: 0x0, symName: __RNvXs0_NtCs2cqEZUIJimJ_5quote7spannedNtNtCs6IAuOt8vWmF_3syn4expr4ExprNtB5_7Spanned6___spanCscP4KCwp5Z66_14zerovec_derive, symObjAddr: 0x11A4, symBinAddr: 0x1AF84, symSize: 0x44 }
  - { offset: 0x37136, size: 0x8, addend: 0x0, symName: __RNvXs0_NtCs2cqEZUIJimJ_5quote7spannedNtNtCs6IAuOt8vWmF_3syn6derive11DeriveInputNtB5_7Spanned6___spanCscP4KCwp5Z66_14zerovec_derive, symObjAddr: 0x11E8, symBinAddr: 0x1AFC8, symSize: 0x44 }
  - { offset: 0x3716B, size: 0x8, addend: 0x0, symName: __RNvXs0_NtCs2cqEZUIJimJ_5quote7spannedNtNtCs6IAuOt8vWmF_3syn8generics8GenericsNtB5_7Spanned6___spanCscP4KCwp5Z66_14zerovec_derive, symObjAddr: 0x122C, symBinAddr: 0x1B00C, symSize: 0x44 }
  - { offset: 0x371A0, size: 0x8, addend: 0x0, symName: __RNvXs0_NtCs2cqEZUIJimJ_5quote7spannedRNtNtCs6IAuOt8vWmF_3syn4data5FieldNtB5_7Spanned6___spanCscP4KCwp5Z66_14zerovec_derive, symObjAddr: 0x1270, symBinAddr: 0x1B050, symSize: 0x44 }
  - { offset: 0x37CE5, size: 0x8, addend: 0x0, symName: __RINvMs2_NtNtCscOYdFFY2T5N_3std6thread5localINtB6_8LocalKeyINtNtCsfvfooZQ3Axs_4core4cell4CellPuEE4withNCNvMs3_B6_BF_7replace0B1s_ECscP4KCwp5Z66_14zerovec_derive, symObjAddr: 0x0, symBinAddr: 0x1E614, symSize: 0x54 }
  - { offset: 0x3821B, size: 0x8, addend: 0x0, symName: __RNvXs5_NtNtCs9i5KxIbZ5ph_10proc_macro6bridge6bufferNtB5_6BufferNtNtNtCsfvfooZQ3Axs_4core3ops4drop4Drop4dropCscP4KCwp5Z66_14zerovec_derive, symObjAddr: 0x3468, symBinAddr: 0x21914, symSize: 0x8C }
  - { offset: 0x3832A, size: 0x8, addend: 0x0, symName: __RINvNvNtNtCs9i5KxIbZ5ph_10proc_macro6bridge14selfless_reify31reify_to_extern_c_fn_hrt_bridge7wrapperNtNtB6_6buffer6BufferNCINvMs7_NtB6_6clientINtB24_6ClientNtB8_11TokenStreamB2u_E7expand1NvCscP4KCwp5Z66_14zerovec_derive10ule_deriveE0EB31_, symObjAddr: 0x1DAC, symBinAddr: 0x2025C, symSize: 0x5C }
  - { offset: 0x38386, size: 0x8, addend: 0x0, symName: __RINvNvNtNtCs9i5KxIbZ5ph_10proc_macro6bridge14selfless_reify31reify_to_extern_c_fn_hrt_bridge7wrapperNtNtB6_6buffer6BufferNCINvMs7_NtB6_6clientINtB24_6ClientNtB8_11TokenStreamB2u_E7expand1NvCscP4KCwp5Z66_14zerovec_derive13varule_deriveE0EB31_, symObjAddr: 0x1E08, symBinAddr: 0x202B8, symSize: 0x5C }
  - { offset: 0x383E2, size: 0x8, addend: 0x0, symName: __RINvNvNtNtCs9i5KxIbZ5ph_10proc_macro6bridge14selfless_reify31reify_to_extern_c_fn_hrt_bridge7wrapperNtNtB6_6buffer6BufferNCINvMs8_NtB6_6clientINtB24_6ClientTNtB8_11TokenStreamB2v_EB2v_E7expand2NvCscP4KCwp5Z66_14zerovec_derive11make_varuleE0EB37_, symObjAddr: 0x1E64, symBinAddr: 0x20314, symSize: 0x5C }
  - { offset: 0x3843E, size: 0x8, addend: 0x0, symName: __RINvNvNtNtCs9i5KxIbZ5ph_10proc_macro6bridge14selfless_reify31reify_to_extern_c_fn_hrt_bridge7wrapperNtNtB6_6buffer6BufferNCINvMs8_NtB6_6clientINtB24_6ClientTNtB8_11TokenStreamB2v_EB2v_E7expand2NvCscP4KCwp5Z66_14zerovec_derive8make_uleE0EB37_, symObjAddr: 0x1EC0, symBinAddr: 0x20370, symSize: 0x5C }
  - { offset: 0x384A6, size: 0x8, addend: 0x0, symName: __RNvXs7_NtNtCs9i5KxIbZ5ph_10proc_macro6bridge3rpcINtNtNtCsfvfooZQ3Axs_4core3num7nonzero7NonZeromEINtB5_9DecodeMutuE6decodeCscP4KCwp5Z66_14zerovec_derive, symObjAddr: 0x34F4, symBinAddr: 0x219A0, symSize: 0x5C }
  - { offset: 0x38765, size: 0x8, addend: 0x0, symName: __RNvXs1f_Cs9i5KxIbZ5ph_10proc_macroNtB6_5IdentNtNtCsfvfooZQ3Axs_4core5clone5Clone5cloneCscP4KCwp5Z66_14zerovec_derive, symObjAddr: 0x3304, symBinAddr: 0x217B0, symSize: 0x40 }
  - { offset: 0x38799, size: 0x8, addend: 0x0, symName: __RNvXsU_Cs9i5KxIbZ5ph_10proc_macroNtB5_11TokenStreamNtNtCsfvfooZQ3Axs_4core5clone5Clone5cloneCscP4KCwp5Z66_14zerovec_derive, symObjAddr: 0x35D0, symBinAddr: 0x21A7C, symSize: 0x64 }
  - { offset: 0x39122, size: 0x8, addend: 0x0, symName: __RNCNvMs3_NtNtCscOYdFFY2T5N_3std6thread5localINtB7_8LocalKeyINtNtCsfvfooZQ3Axs_4core4cell4CellPuEE7replace0CscP4KCwp5Z66_14zerovec_derive, symObjAddr: 0x2114, symBinAddr: 0x205C4, symSize: 0x28 }
  - { offset: 0x39297, size: 0x8, addend: 0x0, symName: __RNCNkNvNvMNtNtCscOYdFFY2T5N_3std4hash6randomNtB8_11RandomState3new4KEYS0s_0CscP4KCwp5Z66_14zerovec_derive, symObjAddr: 0x20AC, symBinAddr: 0x2055C, symSize: 0x3C }
  - { offset: 0x392D5, size: 0x8, addend: 0x0, symName: __RNvNvNvMNtNtCscOYdFFY2T5N_3std4hash6randomNtB6_11RandomState3new4KEYS6___initCscP4KCwp5Z66_14zerovec_derive, symObjAddr: 0x32E0, symBinAddr: 0x2178C, symSize: 0x24 }
  - { offset: 0x392F3, size: 0x8, addend: 0x0, symName: __RNCNvMNtNtCscOYdFFY2T5N_3std4hash6randomNtB4_11RandomState3new0CscP4KCwp5Z66_14zerovec_derive, symObjAddr: 0x20E8, symBinAddr: 0x20598, symSize: 0x2C }
  - { offset: 0x393F7, size: 0x8, addend: 0x0, symName: __RNvXs2_NtNtCscOYdFFY2T5N_3std4hash6randomNtB5_13DefaultHasherNtNtCsfvfooZQ3Axs_4core4hash6Hasher5writeCscP4KCwp5Z66_14zerovec_derive, symObjAddr: 0x3344, symBinAddr: 0x217F0, symSize: 0x38 }
  - { offset: 0x39452, size: 0x8, addend: 0x0, symName: __RNvXs2_NtNtCscOYdFFY2T5N_3std4hash6randomNtB5_13DefaultHasherNtNtCsfvfooZQ3Axs_4core4hash6Hasher6finishCscP4KCwp5Z66_14zerovec_derive, symObjAddr: 0x337C, symBinAddr: 0x21828, symSize: 0x2C }
  - { offset: 0x394A1, size: 0x8, addend: 0x0, symName: __RNvXs3_NtNtCscOYdFFY2T5N_3std4hash6randomNtB5_11RandomStateNtNtCsfvfooZQ3Axs_4core7default7Default7defaultCscP4KCwp5Z66_14zerovec_derive, symObjAddr: 0x33D4, symBinAddr: 0x21880, symSize: 0x1C }
  - { offset: 0x394D9, size: 0x8, addend: 0x0, symName: __RNvXs_NtNtCscOYdFFY2T5N_3std4hash6randomNtB4_11RandomStateNtNtCsfvfooZQ3Axs_4core4hash11BuildHasher12build_hasherCscP4KCwp5Z66_14zerovec_derive, symObjAddr: 0x3634, symBinAddr: 0x21AE0, symSize: 0xCC }
  - { offset: 0x39671, size: 0x8, addend: 0x0, symName: __RNvNvMsc_NtNtCsfvfooZQ3Axs_4core3num7nonzeroINtB7_7NonZeropE13new_unchecked18precondition_checkCscP4KCwp5Z66_14zerovec_derive, symObjAddr: 0x2E14, symBinAddr: 0x212C0, symSize: 0x1C }
  - { offset: 0x397E4, size: 0x8, addend: 0x0, symName: __RNvMsC_NtCsfvfooZQ3Axs_4core3numy16from_ascii_radixCscP4KCwp5Z66_14zerovec_derive, symObjAddr: 0x2728, symBinAddr: 0x20BD8, symSize: 0x58C }
  - { offset: 0x39A84, size: 0x8, addend: 0x0, symName: __RNvNvMs3_NtCsfvfooZQ3Axs_4core3numi13unchecked_neg18precondition_checkCscP4KCwp5Z66_14zerovec_derive, symObjAddr: 0x2D3C, symBinAddr: 0x211E8, symSize: 0x4C }
  - { offset: 0x39B1E, size: 0x8, addend: 0x0, symName: __RNvNvMs4_NtCsfvfooZQ3Axs_4core3numh13unchecked_add18precondition_checkCscP4KCwp5Z66_14zerovec_derive, symObjAddr: 0x2D88, symBinAddr: 0x21234, symSize: 0x48 }
  - { offset: 0x39BB0, size: 0x8, addend: 0x0, symName: __RNvNvMs9_NtCsfvfooZQ3Axs_4core3numj13unchecked_add18precondition_checkCscP4KCwp5Z66_14zerovec_derive, symObjAddr: 0x2DD0, symBinAddr: 0x2127C, symSize: 0x44 }
  - { offset: 0x39C87, size: 0x8, addend: 0x0, symName: __RNvXsB_NtCsfvfooZQ3Axs_4core3numyNtNtNtB7_3str6traits7FromStr8from_strCscP4KCwp5Z66_14zerovec_derive, symObjAddr: 0x3550, symBinAddr: 0x219FC, symSize: 0x30 }
  - { offset: 0x3C836, size: 0x8, addend: 0x0, symName: __RINvNtCsfvfooZQ3Axs_4core3ptr13drop_in_placeINtNtB4_4cell10UnsafeCellNtNtNtCs9i5KxIbZ5ph_10proc_macro6bridge6client6BridgeEECscP4KCwp5Z66_14zerovec_derive, symObjAddr: 0x624, symBinAddr: 0x1EBB4, symSize: 0x24 }
  - { offset: 0x3C865, size: 0x8, addend: 0x0, symName: __RINvNtCsfvfooZQ3Axs_4core3ptr13drop_in_placeINtNtB4_4cell7RefCellNtNtNtCs9i5KxIbZ5ph_10proc_macro6bridge6client6BridgeEECscP4KCwp5Z66_14zerovec_derive, symObjAddr: 0x648, symBinAddr: 0x1EBD8, symSize: 0x24 }
  - { offset: 0x3C894, size: 0x8, addend: 0x0, symName: __RINvNtCsfvfooZQ3Axs_4core3ptr13drop_in_placeINtNtB4_6option6OptionINtNtCse1nGBsou5OW_5alloc5boxed3BoxNtCs3cP53eQoTwO_11proc_macro25IdentEEECscP4KCwp5Z66_14zerovec_derive, symObjAddr: 0x66C, symBinAddr: 0x1EBFC, symSize: 0x44 }
  - { offset: 0x3C8C3, size: 0x8, addend: 0x0, symName: __RINvNtCsfvfooZQ3Axs_4core3ptr13drop_in_placeINtNtB4_6option6OptionNtNtCs6IAuOt8vWmF_3syn5error5ErrorEECscP4KCwp5Z66_14zerovec_derive, symObjAddr: 0x6B0, symBinAddr: 0x1EC40, symSize: 0x48 }
  - { offset: 0x3C8F2, size: 0x8, addend: 0x0, symName: __RINvNtCsfvfooZQ3Axs_4core3ptr13drop_in_placeINtNtB4_6option6OptionNtNtCscP4KCwp5Z66_14zerovec_derive5utils9FieldInfoEEB16_, symObjAddr: 0x6F8, symBinAddr: 0x1EC88, symSize: 0x48 }
  - { offset: 0x3C921, size: 0x8, addend: 0x0, symName: __RINvNtCsfvfooZQ3Axs_4core3ptr13drop_in_placeINtNtB4_6result6ResultNtCs3cP53eQoTwO_11proc_macro211TokenStreamNtNtCs6IAuOt8vWmF_3syn5error5ErrorEECscP4KCwp5Z66_14zerovec_derive, symObjAddr: 0x740, symBinAddr: 0x1ECD0, symSize: 0x5C }
  - { offset: 0x3C950, size: 0x8, addend: 0x0, symName: __RINvNtCsfvfooZQ3Axs_4core3ptr13drop_in_placeINtNtB4_6result6ResultNtNtCscP4KCwp5Z66_14zerovec_derive11make_varule12UnsizedFieldNtNtCse1nGBsou5OW_5alloc6string6StringEEB16_, symObjAddr: 0x79C, symBinAddr: 0x1ED2C, symSize: 0x5C }
  - { offset: 0x3C97F, size: 0x8, addend: 0x0, symName: __RINvNtCsfvfooZQ3Axs_4core3ptr13drop_in_placeINtNtB4_6result6ResultNtNtCscP4KCwp5Z66_14zerovec_derive5utils18IdentListAttributeNtNtCs6IAuOt8vWmF_3syn5error5ErrorEEB16_, symObjAddr: 0x7F8, symBinAddr: 0x1ED88, symSize: 0x5C }
  - { offset: 0x3C9AE, size: 0x8, addend: 0x0, symName: __RINvNtCsfvfooZQ3Axs_4core3ptr13drop_in_placeINtNtB4_6result6ResultyNtNtCs6IAuOt8vWmF_3syn5error5ErrorEECscP4KCwp5Z66_14zerovec_derive, symObjAddr: 0x854, symBinAddr: 0x1EDE4, symSize: 0x48 }
  - { offset: 0x3C9DD, size: 0x8, addend: 0x0, symName: __RINvNtCsfvfooZQ3Axs_4core3ptr13drop_in_placeINtNtCs2cqEZUIJimJ_5quote9___private9RepInterpNtCs3cP53eQoTwO_11proc_macro211TokenStreamEECscP4KCwp5Z66_14zerovec_derive, symObjAddr: 0x89C, symBinAddr: 0x1EE2C, symSize: 0x24 }
  - { offset: 0x3CA0C, size: 0x8, addend: 0x0, symName: __RINvNtCsfvfooZQ3Axs_4core3ptr13drop_in_placeINtNtCs6IAuOt8vWmF_3syn10punctuated10PunctuatedNtCs3cP53eQoTwO_11proc_macro25IdentNtNtBL_5token5CommaEECscP4KCwp5Z66_14zerovec_derive, symObjAddr: 0x8C0, symBinAddr: 0x1EE50, symSize: 0x60 }
  - { offset: 0x3CA3B, size: 0x8, addend: 0x0, symName: __RINvNtCsfvfooZQ3Axs_4core3ptr13drop_in_placeINtNtCs6IAuOt8vWmF_3syn10punctuated4IterNtCs3cP53eQoTwO_11proc_macro25IdentEECscP4KCwp5Z66_14zerovec_derive, symObjAddr: 0x950, symBinAddr: 0x1EEB0, symSize: 0x24 }
  - { offset: 0x3CA6A, size: 0x8, addend: 0x0, symName: __RINvNtCsfvfooZQ3Axs_4core3ptr13drop_in_placeINtNtCs6IAuOt8vWmF_3syn10punctuated4IterNtNtBL_4data5FieldEECscP4KCwp5Z66_14zerovec_derive, symObjAddr: 0x974, symBinAddr: 0x1EED4, symSize: 0x24 }
  - { offset: 0x3CA99, size: 0x8, addend: 0x0, symName: __RINvNtCsfvfooZQ3Axs_4core3ptr13drop_in_placeINtNtCs6IAuOt8vWmF_3syn10punctuated4IterNtNtBL_4data7VariantEECscP4KCwp5Z66_14zerovec_derive, symObjAddr: 0x998, symBinAddr: 0x1EEF8, symSize: 0x24 }
  - { offset: 0x3CAC8, size: 0x8, addend: 0x0, symName: __RINvNtCsfvfooZQ3Axs_4core3ptr13drop_in_placeINtNtCs6IAuOt8vWmF_3syn10punctuated4IterNtNtBL_4path15GenericArgumentEECscP4KCwp5Z66_14zerovec_derive, symObjAddr: 0x9BC, symBinAddr: 0x1EF1C, symSize: 0x24 }
  - { offset: 0x3CAF7, size: 0x8, addend: 0x0, symName: __RINvNtCsfvfooZQ3Axs_4core3ptr13drop_in_placeINtNtCs6IAuOt8vWmF_3syn10punctuated4IterNtNtBL_8generics12GenericParamEECscP4KCwp5Z66_14zerovec_derive, symObjAddr: 0x9E0, symBinAddr: 0x1EF40, symSize: 0x24 }
  - { offset: 0x3CB26, size: 0x8, addend: 0x0, symName: __RINvNtCsfvfooZQ3Axs_4core3ptr13drop_in_placeINtNtCs6IAuOt8vWmF_3syn10punctuated7IterMutNtNtBL_4data5FieldEECscP4KCwp5Z66_14zerovec_derive, symObjAddr: 0xA04, symBinAddr: 0x1EF64, symSize: 0x24 }
  - { offset: 0x3CB55, size: 0x8, addend: 0x0, symName: __RINvNtCsfvfooZQ3Axs_4core3ptr13drop_in_placeINtNtCse1nGBsou5OW_5alloc3vec3VecINtNtB4_6option6OptionNtCs3cP53eQoTwO_11proc_macro25IdentEEECscP4KCwp5Z66_14zerovec_derive, symObjAddr: 0xA28, symBinAddr: 0x1EF88, symSize: 0x5C }
  - { offset: 0x3CB84, size: 0x8, addend: 0x0, symName: __RINvNtCsfvfooZQ3Axs_4core3ptr13drop_in_placeINtNtCse1nGBsou5OW_5alloc3vec3VecNtCs3cP53eQoTwO_11proc_macro211TokenStreamEECscP4KCwp5Z66_14zerovec_derive, symObjAddr: 0xA84, symBinAddr: 0x1EFE4, symSize: 0x5C }
  - { offset: 0x3CBB3, size: 0x8, addend: 0x0, symName: __RINvNtCsfvfooZQ3Axs_4core3ptr13drop_in_placeINtNtCse1nGBsou5OW_5alloc3vec3VecNtCs3cP53eQoTwO_11proc_macro25IdentEECscP4KCwp5Z66_14zerovec_derive, symObjAddr: 0xAE0, symBinAddr: 0x1F040, symSize: 0x5C }
  - { offset: 0x3CBE2, size: 0x8, addend: 0x0, symName: __RINvNtCsfvfooZQ3Axs_4core3ptr13drop_in_placeINtNtCse1nGBsou5OW_5alloc3vec3VecNtNtCscP4KCwp5Z66_14zerovec_derive11make_varule12UnsizedFieldEEB1h_, symObjAddr: 0xB3C, symBinAddr: 0x1F09C, symSize: 0x5C }
  - { offset: 0x3CC11, size: 0x8, addend: 0x0, symName: __RINvNtCsfvfooZQ3Axs_4core3ptr13drop_in_placeINtNtCse1nGBsou5OW_5alloc3vec3VecNtNtCscP4KCwp5Z66_14zerovec_derive5utils9FieldInfoEEB1h_, symObjAddr: 0xB98, symBinAddr: 0x1F0F8, symSize: 0x5C }
  - { offset: 0x3CC40, size: 0x8, addend: 0x0, symName: __RINvNtCsfvfooZQ3Axs_4core3ptr13drop_in_placeINtNtCse1nGBsou5OW_5alloc3vec3VecRhEECscP4KCwp5Z66_14zerovec_derive, symObjAddr: 0xBF4, symBinAddr: 0x1F154, symSize: 0x5C }
  - { offset: 0x3CC6F, size: 0x8, addend: 0x0, symName: __RINvNtCsfvfooZQ3Axs_4core3ptr13drop_in_placeINtNtCse1nGBsou5OW_5alloc3vec3VecTNtCs3cP53eQoTwO_11proc_macro25IdentNtNtCs6IAuOt8vWmF_3syn5token5CommaEEECscP4KCwp5Z66_14zerovec_derive, symObjAddr: 0xC50, symBinAddr: 0x1F1B0, symSize: 0x5C }
  - { offset: 0x3CC9E, size: 0x8, addend: 0x0, symName: __RINvNtCsfvfooZQ3Axs_4core3ptr13drop_in_placeINtNtCse1nGBsou5OW_5alloc5boxed3BoxDNtNtB4_5error5ErrorNtNtB4_6marker4SendNtB1B_4SyncEL_EECscP4KCwp5Z66_14zerovec_derive, symObjAddr: 0xCAC, symBinAddr: 0x1F20C, symSize: 0x80 }
  - { offset: 0x3CCCD, size: 0x8, addend: 0x0, symName: __RINvNtCsfvfooZQ3Axs_4core3ptr13drop_in_placeINtNtCse1nGBsou5OW_5alloc5boxed3BoxINtNtCs6IAuOt8vWmF_3syn5drops6NoDropDINtNtB1k_10punctuated12IterMutTraitNtNtB1k_4data5FieldEp4ItemQB2p_EL_EEECscP4KCwp5Z66_14zerovec_derive, symObjAddr: 0xD2C, symBinAddr: 0x1F28C, symSize: 0x2C }
  - { offset: 0x3CCFC, size: 0x8, addend: 0x0, symName: __RINvNtCsfvfooZQ3Axs_4core3ptr13drop_in_placeINtNtCse1nGBsou5OW_5alloc5boxed3BoxINtNtCs6IAuOt8vWmF_3syn5drops6NoDropDINtNtB1k_10punctuated9IterTraitNtCs3cP53eQoTwO_11proc_macro25IdentEp4ItemRB2l_EL_EEECscP4KCwp5Z66_14zerovec_derive, symObjAddr: 0xD58, symBinAddr: 0x1F2B8, symSize: 0x2C }
  - { offset: 0x3CD2B, size: 0x8, addend: 0x0, symName: __RINvNtCsfvfooZQ3Axs_4core3ptr13drop_in_placeINtNtCse1nGBsou5OW_5alloc5boxed3BoxINtNtCs6IAuOt8vWmF_3syn5drops6NoDropDINtNtB1k_10punctuated9IterTraitNtNtB1k_4data5FieldEp4ItemRB2l_EL_EEECscP4KCwp5Z66_14zerovec_derive, symObjAddr: 0xD84, symBinAddr: 0x1F2E4, symSize: 0x2C }
  - { offset: 0x3CD5A, size: 0x8, addend: 0x0, symName: __RINvNtCsfvfooZQ3Axs_4core3ptr13drop_in_placeINtNtCse1nGBsou5OW_5alloc5boxed3BoxINtNtCs6IAuOt8vWmF_3syn5drops6NoDropDINtNtB1k_10punctuated9IterTraitNtNtB1k_4data7VariantEp4ItemRB2l_EL_EEECscP4KCwp5Z66_14zerovec_derive, symObjAddr: 0xDB0, symBinAddr: 0x1F310, symSize: 0x2C }
  - { offset: 0x3CD89, size: 0x8, addend: 0x0, symName: __RINvNtCsfvfooZQ3Axs_4core3ptr13drop_in_placeINtNtCse1nGBsou5OW_5alloc5boxed3BoxINtNtCs6IAuOt8vWmF_3syn5drops6NoDropDINtNtB1k_10punctuated9IterTraitNtNtB1k_4path15GenericArgumentEp4ItemRB2l_EL_EEECscP4KCwp5Z66_14zerovec_derive, symObjAddr: 0xDDC, symBinAddr: 0x1F33C, symSize: 0x2C }
  - { offset: 0x3CDB8, size: 0x8, addend: 0x0, symName: __RINvNtCsfvfooZQ3Axs_4core3ptr13drop_in_placeINtNtCse1nGBsou5OW_5alloc5boxed3BoxINtNtCs6IAuOt8vWmF_3syn5drops6NoDropDINtNtB1k_10punctuated9IterTraitNtNtB1k_8generics12GenericParamEp4ItemRB2l_EL_EEECscP4KCwp5Z66_14zerovec_derive, symObjAddr: 0xE08, symBinAddr: 0x1F368, symSize: 0x2C }
  - { offset: 0x3CDE7, size: 0x8, addend: 0x0, symName: __RINvNtCsfvfooZQ3Axs_4core3ptr13drop_in_placeINtNtCse1nGBsou5OW_5alloc5boxed3BoxNtCs3cP53eQoTwO_11proc_macro25IdentEECscP4KCwp5Z66_14zerovec_derive, symObjAddr: 0xE34, symBinAddr: 0x1F394, symSize: 0x60 }
  - { offset: 0x3CE16, size: 0x8, addend: 0x0, symName: __RINvNtCsfvfooZQ3Axs_4core3ptr13drop_in_placeINtNtCse1nGBsou5OW_5alloc5boxed3BoxNtNtNtCscOYdFFY2T5N_3std2io5error6CustomEECscP4KCwp5Z66_14zerovec_derive, symObjAddr: 0xE94, symBinAddr: 0x1F3F4, symSize: 0x60 }
  - { offset: 0x3CE45, size: 0x8, addend: 0x0, symName: __RINvNtCsfvfooZQ3Axs_4core3ptr13drop_in_placeINtNtCse1nGBsou5OW_5alloc7raw_vec6RawVecINtNtB4_6option6OptionNtCs3cP53eQoTwO_11proc_macro25IdentEEECscP4KCwp5Z66_14zerovec_derive, symObjAddr: 0xEF4, symBinAddr: 0x1F454, symSize: 0x24 }
  - { offset: 0x3CE74, size: 0x8, addend: 0x0, symName: __RINvNtCsfvfooZQ3Axs_4core3ptr13drop_in_placeINtNtCse1nGBsou5OW_5alloc7raw_vec6RawVecNtCs3cP53eQoTwO_11proc_macro211TokenStreamEECscP4KCwp5Z66_14zerovec_derive, symObjAddr: 0xF18, symBinAddr: 0x1F478, symSize: 0x24 }
  - { offset: 0x3CEA3, size: 0x8, addend: 0x0, symName: __RINvNtCsfvfooZQ3Axs_4core3ptr13drop_in_placeINtNtCse1nGBsou5OW_5alloc7raw_vec6RawVecNtCs3cP53eQoTwO_11proc_macro25IdentEECscP4KCwp5Z66_14zerovec_derive, symObjAddr: 0xF3C, symBinAddr: 0x1F49C, symSize: 0x24 }
  - { offset: 0x3CED2, size: 0x8, addend: 0x0, symName: __RINvNtCsfvfooZQ3Axs_4core3ptr13drop_in_placeINtNtCse1nGBsou5OW_5alloc7raw_vec6RawVecNtNtCscP4KCwp5Z66_14zerovec_derive11make_varule12UnsizedFieldEEB1o_, symObjAddr: 0xF60, symBinAddr: 0x1F4C0, symSize: 0x24 }
  - { offset: 0x3CF01, size: 0x8, addend: 0x0, symName: __RINvNtCsfvfooZQ3Axs_4core3ptr13drop_in_placeINtNtCse1nGBsou5OW_5alloc7raw_vec6RawVecNtNtCscP4KCwp5Z66_14zerovec_derive5utils9FieldInfoEEB1o_, symObjAddr: 0xF84, symBinAddr: 0x1F4E4, symSize: 0x24 }
  - { offset: 0x3CF30, size: 0x8, addend: 0x0, symName: __RINvNtCsfvfooZQ3Axs_4core3ptr13drop_in_placeINtNtCse1nGBsou5OW_5alloc7raw_vec6RawVecRhEECscP4KCwp5Z66_14zerovec_derive, symObjAddr: 0xFA8, symBinAddr: 0x1F508, symSize: 0x24 }
  - { offset: 0x3CF5F, size: 0x8, addend: 0x0, symName: __RINvNtCsfvfooZQ3Axs_4core3ptr13drop_in_placeINtNtCse1nGBsou5OW_5alloc7raw_vec6RawVecTNtCs3cP53eQoTwO_11proc_macro25IdentNtNtCs6IAuOt8vWmF_3syn5token5CommaEEECscP4KCwp5Z66_14zerovec_derive, symObjAddr: 0xFCC, symBinAddr: 0x1F52C, symSize: 0x24 }
  - { offset: 0x3CF8E, size: 0x8, addend: 0x0, symName: __RINvNtCsfvfooZQ3Axs_4core3ptr13drop_in_placeINtNtCsloNvcHxBCre_9hashbrown10scopeguard10ScopeGuardNtNtBL_3raw13RawTableInnerNCINvMsa_B1z_B1x_14prepare_resizeNtNtCse1nGBsou5OW_5alloc5alloc6GlobalE0EECscP4KCwp5Z66_14zerovec_derive, symObjAddr: 0xFF0, symBinAddr: 0x1F550, symSize: 0x24 }
  - { offset: 0x3CFBD, size: 0x8, addend: 0x0, symName: __RINvNtCsfvfooZQ3Axs_4core3ptr13drop_in_placeINtNtCsloNvcHxBCre_9hashbrown10scopeguard10ScopeGuardQNtNtBL_3raw13RawTableInnerNCNvMsa_B1A_B1y_15rehash_in_place0EECscP4KCwp5Z66_14zerovec_derive, symObjAddr: 0x1014, symBinAddr: 0x1F574, symSize: 0x24 }
  - { offset: 0x3CFEC, size: 0x8, addend: 0x0, symName: __RINvNtCsfvfooZQ3Axs_4core3ptr13drop_in_placeINtNtCsloNvcHxBCre_9hashbrown3map7HashMaphuNtNtNtCscOYdFFY2T5N_3std4hash6random11RandomStateEECscP4KCwp5Z66_14zerovec_derive, symObjAddr: 0x1038, symBinAddr: 0x1F598, symSize: 0x24 }
  - { offset: 0x3D01B, size: 0x8, addend: 0x0, symName: __RINvNtCsfvfooZQ3Axs_4core3ptr13drop_in_placeINtNtCsloNvcHxBCre_9hashbrown3raw8RawTableThuEEECscP4KCwp5Z66_14zerovec_derive, symObjAddr: 0x105C, symBinAddr: 0x1F5BC, symSize: 0x24 }
  - { offset: 0x3D04A, size: 0x8, addend: 0x0, symName: __RINvNtCsfvfooZQ3Axs_4core3ptr13drop_in_placeINtNtCsloNvcHxBCre_9hashbrown3set7HashSethNtNtNtCscOYdFFY2T5N_3std4hash6random11RandomStateEECscP4KCwp5Z66_14zerovec_derive, symObjAddr: 0x1080, symBinAddr: 0x1F5E0, symSize: 0x24 }
  - { offset: 0x3D079, size: 0x8, addend: 0x0, symName: __RINvNtCsfvfooZQ3Axs_4core3ptr13drop_in_placeINtNtNtCscOYdFFY2T5N_3std2io5error9ErrorDataINtNtCse1nGBsou5OW_5alloc5boxed3BoxNtBJ_6CustomEEECscP4KCwp5Z66_14zerovec_derive, symObjAddr: 0x10A4, symBinAddr: 0x1F604, symSize: 0x48 }
  - { offset: 0x3D0A8, size: 0x8, addend: 0x0, symName: __RINvNtCsfvfooZQ3Axs_4core3ptr13drop_in_placeINtNtNtCse1nGBsou5OW_5alloc3vec9into_iter8IntoIterNtCs3cP53eQoTwO_11proc_macro25IdentEECscP4KCwp5Z66_14zerovec_derive, symObjAddr: 0x10EC, symBinAddr: 0x1F64C, symSize: 0x24 }
  - { offset: 0x3D0D7, size: 0x8, addend: 0x0, symName: __RINvNtCsfvfooZQ3Axs_4core3ptr13drop_in_placeINtNtNtNtB4_4iter8adapters3map3MapINtNtBL_9enumerate9EnumerateINtNtBL_4take4TakeINtNtCs6IAuOt8vWmF_3syn10punctuated4IterNtNtB23_4data5FieldEEENCINvMs0_NtCscP4KCwp5Z66_14zerovec_derive5utilsNtB37_9FieldInfo9make_listB1G_E0EEB39_, symObjAddr: 0x1110, symBinAddr: 0x1F670, symSize: 0x24 }
  - { offset: 0x3D106, size: 0x8, addend: 0x0, symName: __RINvNtCsfvfooZQ3Axs_4core3ptr13drop_in_placeINtNtNtNtB4_4iter8adapters3map3MapINtNtBL_9enumerate9EnumerateINtNtCs6IAuOt8vWmF_3syn10punctuated4IterNtNtB1L_4data5FieldEENCINvMs0_NtCscP4KCwp5Z66_14zerovec_derive5utilsNtB2O_9FieldInfo9make_listB1G_E0EEB2Q_, symObjAddr: 0x1134, symBinAddr: 0x1F694, symSize: 0x24 }
  - { offset: 0x3D135, size: 0x8, addend: 0x0, symName: __RINvNtCsfvfooZQ3Axs_4core3ptr13drop_in_placeINtNtNtNtB4_4iter8adapters4take4TakeINtNtCs6IAuOt8vWmF_3syn10punctuated4IterNtNtB1l_4data5FieldEEECscP4KCwp5Z66_14zerovec_derive, symObjAddr: 0x1158, symBinAddr: 0x1F6B8, symSize: 0x24 }
  - { offset: 0x3D164, size: 0x8, addend: 0x0, symName: __RINvNtCsfvfooZQ3Axs_4core3ptr13drop_in_placeINtNtNtNtB4_4iter8adapters6cloned6ClonedINtNtCs6IAuOt8vWmF_3syn10punctuated4IterNtCs3cP53eQoTwO_11proc_macro25IdentEEECscP4KCwp5Z66_14zerovec_derive, symObjAddr: 0x117C, symBinAddr: 0x1F6DC, symSize: 0x24 }
  - { offset: 0x3D193, size: 0x8, addend: 0x0, symName: __RINvNtCsfvfooZQ3Axs_4core3ptr13drop_in_placeINtNtNtNtB4_4iter8adapters9enumerate9EnumerateINtNtBL_4take4TakeINtNtCs6IAuOt8vWmF_3syn10punctuated4IterNtNtB1N_4data5FieldEEEECscP4KCwp5Z66_14zerovec_derive, symObjAddr: 0x11A0, symBinAddr: 0x1F700, symSize: 0x24 }
  - { offset: 0x3D1C2, size: 0x8, addend: 0x0, symName: __RINvNtCsfvfooZQ3Axs_4core3ptr13drop_in_placeINtNtNtNtB4_4iter8adapters9enumerate9EnumerateINtNtCs6IAuOt8vWmF_3syn10punctuated4IterNtNtB1v_4data5FieldEEECscP4KCwp5Z66_14zerovec_derive, symObjAddr: 0x11C4, symBinAddr: 0x1F724, symSize: 0x24 }
  - { offset: 0x3D1F1, size: 0x8, addend: 0x0, symName: __RINvNtCsfvfooZQ3Axs_4core3ptr13drop_in_placeINtNtNtNtB4_4iter8adapters9enumerate9EnumerateINtNtCs6IAuOt8vWmF_3syn10punctuated4IterNtNtB1v_4data7VariantEEECscP4KCwp5Z66_14zerovec_derive, symObjAddr: 0x11E8, symBinAddr: 0x1F748, symSize: 0x24 }
  - { offset: 0x3D220, size: 0x8, addend: 0x0, symName: __RINvNtCsfvfooZQ3Axs_4core3ptr13drop_in_placeINtNtNtNtCscOYdFFY2T5N_3std11collections4hash3set7HashSethEECscP4KCwp5Z66_14zerovec_derive, symObjAddr: 0x120C, symBinAddr: 0x1F76C, symSize: 0x24 }
  - { offset: 0x3D24F, size: 0x8, addend: 0x0, symName: __RINvNtCsfvfooZQ3Axs_4core3ptr13drop_in_placeINtNvMs_NtCse1nGBsou5OW_5alloc3vecINtBO_3VecppE10retain_mut15BackshiftOnDropNtNtCs6IAuOt8vWmF_3syn4attr9AttributeNtNtBQ_5alloc6GlobalEECscP4KCwp5Z66_14zerovec_derive, symObjAddr: 0x1230, symBinAddr: 0x1F790, symSize: 0x24 }
  - { offset: 0x3D27E, size: 0x8, addend: 0x0, symName: __RINvNtCsfvfooZQ3Axs_4core3ptr13drop_in_placeINtNvXsd_NtNtCse1nGBsou5OW_5alloc3vec9into_iterINtBP_8IntoIterppENtNtNtB4_3ops4drop4Drop4drop9DropGuardNtCs3cP53eQoTwO_11proc_macro25IdentNtNtBT_5alloc6GlobalEECscP4KCwp5Z66_14zerovec_derive, symObjAddr: 0x1254, symBinAddr: 0x1F7B4, symSize: 0x24 }
  - { offset: 0x3D2AD, size: 0x8, addend: 0x0, symName: __RINvNtCsfvfooZQ3Axs_4core3ptr13drop_in_placeNCINvMsi_NtCse1nGBsou5OW_5alloc3vecINtBP_3VecNtCs3cP53eQoTwO_11proc_macro211TokenStreamE14extend_trustedINtNtNtNtB4_4iter8adapters3map3MapINtNtNtB4_5slice4iter4IterNtNtCscP4KCwp5Z66_14zerovec_derive5utils9FieldInfoENCNvNtB3o_11make_varule21make_zf_and_from_impl0EE0EB3o_, symObjAddr: 0x12A8, symBinAddr: 0x1F7D8, symSize: 0x24 }
  - { offset: 0x3D2DC, size: 0x8, addend: 0x0, symName: __RINvNtCsfvfooZQ3Axs_4core3ptr13drop_in_placeNCINvMsi_NtCse1nGBsou5OW_5alloc3vecINtBP_3VecNtCs3cP53eQoTwO_11proc_macro211TokenStreamE14extend_trustedINtNtNtNtB4_4iter8adapters3map3MapINtNtNtB4_5slice4iter4IterNtNtCscP4KCwp5Z66_14zerovec_derive5utils9FieldInfoENCNvNtB3o_3ule15make_ule_fields0EE0EB3o_, symObjAddr: 0x12CC, symBinAddr: 0x1F7FC, symSize: 0x24 }
  - { offset: 0x3D30B, size: 0x8, addend: 0x0, symName: __RINvNtCsfvfooZQ3Axs_4core3ptr13drop_in_placeNCINvNtNtNtB4_4iter8adapters3map8map_foldRNtNtCscP4KCwp5Z66_14zerovec_derive5utils9FieldInfoNtCs3cP53eQoTwO_11proc_macro211TokenStreamuNCNvNtB1q_11make_varule21make_zf_and_from_impl0NCINvNvNtNtNtBP_6traits8iterator8Iterator8for_each4callB2a_NCINvMsi_NtCse1nGBsou5OW_5alloc3vecINtB4I_3VecB2a_E14extend_trustedINtBL_3MapINtNtNtB4_5slice4iter4IterB1m_EB2R_EE0E0E0EB1q_, symObjAddr: 0x12F0, symBinAddr: 0x1F820, symSize: 0x24 }
  - { offset: 0x3D33A, size: 0x8, addend: 0x0, symName: __RINvNtCsfvfooZQ3Axs_4core3ptr13drop_in_placeNCINvNtNtNtB4_4iter8adapters3map8map_foldRNtNtCscP4KCwp5Z66_14zerovec_derive5utils9FieldInfoNtCs3cP53eQoTwO_11proc_macro211TokenStreamuNCNvNtB1q_3ule15make_ule_fields0NCINvNvNtNtNtBP_6traits8iterator8Iterator8for_each4callB2a_NCINvMsi_NtCse1nGBsou5OW_5alloc3vecINtB4t_3VecB2a_E14extend_trustedINtBL_3MapINtNtNtB4_5slice4iter4IterB1m_EB2R_EE0E0E0EB1q_, symObjAddr: 0x1314, symBinAddr: 0x1F844, symSize: 0x24 }
  - { offset: 0x3D369, size: 0x8, addend: 0x0, symName: __RINvNtCsfvfooZQ3Axs_4core3ptr13drop_in_placeNCINvNvNtNtNtNtB4_4iter6traits8iterator8Iterator8for_each4callNtCs3cP53eQoTwO_11proc_macro211TokenStreamNCINvMsi_NtCse1nGBsou5OW_5alloc3vecINtB2v_3VecB1G_E14extend_trustedINtNtNtBT_8adapters3map3MapINtNtNtB4_5slice4iter4IterNtNtCscP4KCwp5Z66_14zerovec_derive5utils9FieldInfoENCNvNtB4m_11make_varule21make_zf_and_from_impl0EE0E0EB4m_, symObjAddr: 0x1338, symBinAddr: 0x1F868, symSize: 0x24 }
  - { offset: 0x3D398, size: 0x8, addend: 0x0, symName: __RINvNtCsfvfooZQ3Axs_4core3ptr13drop_in_placeNCINvNvNtNtNtNtB4_4iter6traits8iterator8Iterator8for_each4callNtCs3cP53eQoTwO_11proc_macro211TokenStreamNCINvMsi_NtCse1nGBsou5OW_5alloc3vecINtB2v_3VecB1G_E14extend_trustedINtNtNtBT_8adapters3map3MapINtNtNtB4_5slice4iter4IterNtNtCscP4KCwp5Z66_14zerovec_derive5utils9FieldInfoENCNvNtB4m_3ule15make_ule_fields0EE0E0EB4m_, symObjAddr: 0x135C, symBinAddr: 0x1F88C, symSize: 0x24 }
  - { offset: 0x3D3C7, size: 0x8, addend: 0x0, symName: __RINvNtCsfvfooZQ3Axs_4core3ptr13drop_in_placeNCNCINvNtNtCs9i5KxIbZ5ph_10proc_macro6bridge6client10run_clientNtBN_11TokenStreamINtNtB4_6option6OptionB1H_ENCNCINvMs7_BN_INtBN_6ClientNtBR_11TokenStreamB2R_E7expand1NvCscP4KCwp5Z66_14zerovec_derive10ule_deriveE00E00EB3o_, symObjAddr: 0x1380, symBinAddr: 0x1F8B0, symSize: 0x24 }
  - { offset: 0x3D3F6, size: 0x8, addend: 0x0, symName: __RINvNtCsfvfooZQ3Axs_4core3ptr13drop_in_placeNCNCINvNtNtCs9i5KxIbZ5ph_10proc_macro6bridge6client10run_clientNtBN_11TokenStreamINtNtB4_6option6OptionB1H_ENCNCINvMs7_BN_INtBN_6ClientNtBR_11TokenStreamB2R_E7expand1NvCscP4KCwp5Z66_14zerovec_derive13varule_deriveE00E00EB3o_, symObjAddr: 0x13A4, symBinAddr: 0x1F8D4, symSize: 0x24 }
  - { offset: 0x3D425, size: 0x8, addend: 0x0, symName: __RINvNtCsfvfooZQ3Axs_4core3ptr13drop_in_placeNCNCINvNtNtCs9i5KxIbZ5ph_10proc_macro6bridge6client10run_clientTNtBN_11TokenStreamB1I_EINtNtB4_6option6OptionB1I_ENCNCINvMs8_BN_INtBN_6ClientTNtBR_11TokenStreamB2Y_EB2Y_E7expand2NvCscP4KCwp5Z66_14zerovec_derive11make_varuleE00E00EB3A_, symObjAddr: 0x13C8, symBinAddr: 0x1F8F8, symSize: 0x24 }
  - { offset: 0x3D454, size: 0x8, addend: 0x0, symName: __RINvNtCsfvfooZQ3Axs_4core3ptr13drop_in_placeNCNCINvNtNtCs9i5KxIbZ5ph_10proc_macro6bridge6client10run_clientTNtBN_11TokenStreamB1I_EINtNtB4_6option6OptionB1I_ENCNCINvMs8_BN_INtBN_6ClientTNtBR_11TokenStreamB2Y_EB2Y_E7expand2NvCscP4KCwp5Z66_14zerovec_derive8make_uleE00E00EB3A_, symObjAddr: 0x13EC, symBinAddr: 0x1F91C, symSize: 0x24 }
  - { offset: 0x3D483, size: 0x8, addend: 0x0, symName: __RINvNtCsfvfooZQ3Axs_4core3ptr13drop_in_placeNtNtCs6IAuOt8vWmF_3syn6derive11DeriveInputECscP4KCwp5Z66_14zerovec_derive, symObjAddr: 0x1410, symBinAddr: 0x1F940, symSize: 0xEC }
  - { offset: 0x3D4B2, size: 0x8, addend: 0x0, symName: __RINvNtCsfvfooZQ3Axs_4core3ptr13drop_in_placeNtNtCs6IAuOt8vWmF_3syn8generics10TypeParamsECscP4KCwp5Z66_14zerovec_derive, symObjAddr: 0x14FC, symBinAddr: 0x1FA2C, symSize: 0x24 }
  - { offset: 0x3D4E1, size: 0x8, addend: 0x0, symName: __RINvNtCsfvfooZQ3Axs_4core3ptr13drop_in_placeNtNtCs6IAuOt8vWmF_3syn8generics11ConstParamsECscP4KCwp5Z66_14zerovec_derive, symObjAddr: 0x1520, symBinAddr: 0x1FA50, symSize: 0x24 }
  - { offset: 0x3D510, size: 0x8, addend: 0x0, symName: __RINvNtCsfvfooZQ3Axs_4core3ptr13drop_in_placeNtNtCs6IAuOt8vWmF_3syn8generics9LifetimesECscP4KCwp5Z66_14zerovec_derive, symObjAddr: 0x1544, symBinAddr: 0x1FA74, symSize: 0x24 }
  - { offset: 0x3D53F, size: 0x8, addend: 0x0, symName: __RINvNtCsfvfooZQ3Axs_4core3ptr13drop_in_placeNtNtCscP4KCwp5Z66_14zerovec_derive11make_varule12UnsizedFieldEBK_, symObjAddr: 0x1568, symBinAddr: 0x1FA98, symSize: 0x5C }
  - { offset: 0x3D56E, size: 0x8, addend: 0x0, symName: __RINvNtCsfvfooZQ3Axs_4core3ptr13drop_in_placeNtNtCscP4KCwp5Z66_14zerovec_derive11make_varule13UnsizedFieldsEBK_, symObjAddr: 0x15C4, symBinAddr: 0x1FAF4, symSize: 0x60 }
  - { offset: 0x3D59D, size: 0x8, addend: 0x0, symName: __RINvNtCsfvfooZQ3Axs_4core3ptr13drop_in_placeNtNtCscP4KCwp5Z66_14zerovec_derive11make_varule16UnsizedFieldKindEBK_, symObjAddr: 0x1624, symBinAddr: 0x1FB54, symSize: 0x60 }
  - { offset: 0x3D5CC, size: 0x8, addend: 0x0, symName: __RINvNtCsfvfooZQ3Axs_4core3ptr13drop_in_placeNtNtCscP4KCwp5Z66_14zerovec_derive5utils12ZeroVecAttrsEBK_, symObjAddr: 0x1684, symBinAddr: 0x1FBB4, symSize: 0x24 }
  - { offset: 0x3D5FB, size: 0x8, addend: 0x0, symName: __RINvNtCsfvfooZQ3Axs_4core3ptr13drop_in_placeNtNtCscP4KCwp5Z66_14zerovec_derive5utils18IdentListAttributeEBK_, symObjAddr: 0x16A8, symBinAddr: 0x1FBD8, symSize: 0x24 }
  - { offset: 0x3D62A, size: 0x8, addend: 0x0, symName: __RINvNtCsfvfooZQ3Axs_4core3ptr13drop_in_placeNtNtCscP4KCwp5Z66_14zerovec_derive5utils9FieldInfoEBK_, symObjAddr: 0x16CC, symBinAddr: 0x1FBFC, symSize: 0x24 }
  - { offset: 0x3D659, size: 0x8, addend: 0x0, symName: __RINvNtCsfvfooZQ3Axs_4core3ptr13drop_in_placeNtNtNtCs9i5KxIbZ5ph_10proc_macro6bridge3rpc12PanicMessageECscP4KCwp5Z66_14zerovec_derive, symObjAddr: 0x16F0, symBinAddr: 0x1FC20, symSize: 0x50 }
  - { offset: 0x3D688, size: 0x8, addend: 0x0, symName: __RINvNtCsfvfooZQ3Axs_4core3ptr13drop_in_placeNtNtNtCs9i5KxIbZ5ph_10proc_macro6bridge6buffer6BufferECscP4KCwp5Z66_14zerovec_derive, symObjAddr: 0x1740, symBinAddr: 0x1FC70, symSize: 0x24 }
  - { offset: 0x3D6B7, size: 0x8, addend: 0x0, symName: __RINvNtCsfvfooZQ3Axs_4core3ptr13drop_in_placeNtNtNtCs9i5KxIbZ5ph_10proc_macro6bridge6client6BridgeECscP4KCwp5Z66_14zerovec_derive, symObjAddr: 0x1764, symBinAddr: 0x1FC94, symSize: 0x24 }
  - { offset: 0x3D6E6, size: 0x8, addend: 0x0, symName: __RINvNtCsfvfooZQ3Axs_4core3ptr13drop_in_placeNtNtNtCscOYdFFY2T5N_3std2io5error5ErrorECscP4KCwp5Z66_14zerovec_derive, symObjAddr: 0x1788, symBinAddr: 0x1FCB8, symSize: 0x24 }
  - { offset: 0x3D715, size: 0x8, addend: 0x0, symName: __RINvNtCsfvfooZQ3Axs_4core3ptr13drop_in_placeNtNtNtCscOYdFFY2T5N_3std2io5error6CustomECscP4KCwp5Z66_14zerovec_derive, symObjAddr: 0x17AC, symBinAddr: 0x1FCDC, symSize: 0x24 }
  - { offset: 0x3D744, size: 0x8, addend: 0x0, symName: __RINvNtCsfvfooZQ3Axs_4core3ptr13drop_in_placeNtNtNtNtCscOYdFFY2T5N_3std2io5error14repr_bitpacked4ReprECscP4KCwp5Z66_14zerovec_derive, symObjAddr: 0x17D0, symBinAddr: 0x1FD00, symSize: 0x24 }
  - { offset: 0x3D773, size: 0x8, addend: 0x0, symName: __RINvNtCsfvfooZQ3Axs_4core3ptr13drop_in_placeNtNvNtNtNtCs9i5KxIbZ5ph_10proc_macro6bridge6client5state3set13RestoreOnDropECscP4KCwp5Z66_14zerovec_derive, symObjAddr: 0x17F4, symBinAddr: 0x1FD24, symSize: 0x24 }
  - { offset: 0x3D7A2, size: 0x8, addend: 0x0, symName: __RINvNtCsfvfooZQ3Axs_4core3ptr13drop_in_placeSINtNtB4_6option6OptionNtCs3cP53eQoTwO_11proc_macro25IdentEECscP4KCwp5Z66_14zerovec_derive, symObjAddr: 0x1898, symBinAddr: 0x1FD48, symSize: 0xC4 }
  - { offset: 0x3D7D1, size: 0x8, addend: 0x0, symName: __RINvNtCsfvfooZQ3Axs_4core3ptr13drop_in_placeSNtCs3cP53eQoTwO_11proc_macro211TokenStreamECscP4KCwp5Z66_14zerovec_derive, symObjAddr: 0x195C, symBinAddr: 0x1FE0C, symSize: 0xB4 }
  - { offset: 0x3D800, size: 0x8, addend: 0x0, symName: __RINvNtCsfvfooZQ3Axs_4core3ptr13drop_in_placeSNtCs3cP53eQoTwO_11proc_macro25IdentECscP4KCwp5Z66_14zerovec_derive, symObjAddr: 0x1A10, symBinAddr: 0x1FEC0, symSize: 0xC4 }
  - { offset: 0x3D82F, size: 0x8, addend: 0x0, symName: __RINvNtCsfvfooZQ3Axs_4core3ptr13drop_in_placeSNtNtCscP4KCwp5Z66_14zerovec_derive11make_varule12UnsizedFieldEBL_, symObjAddr: 0x1AD4, symBinAddr: 0x1FF84, symSize: 0xC4 }
  - { offset: 0x3D85E, size: 0x8, addend: 0x0, symName: __RINvNtCsfvfooZQ3Axs_4core3ptr13drop_in_placeSNtNtCscP4KCwp5Z66_14zerovec_derive5utils9FieldInfoEBL_, symObjAddr: 0x1B98, symBinAddr: 0x20048, symSize: 0xC4 }
  - { offset: 0x3D88D, size: 0x8, addend: 0x0, symName: __RINvNtCsfvfooZQ3Axs_4core3ptr13drop_in_placeSTNtCs3cP53eQoTwO_11proc_macro25IdentNtNtCs6IAuOt8vWmF_3syn5token5CommaEECscP4KCwp5Z66_14zerovec_derive, symObjAddr: 0x1C5C, symBinAddr: 0x2010C, symSize: 0xB4 }
  - { offset: 0x3D8BC, size: 0x8, addend: 0x0, symName: __RINvNtCsfvfooZQ3Axs_4core3ptr13drop_in_placeTNtCs3cP53eQoTwO_11proc_macro25IdentNtNtCs6IAuOt8vWmF_3syn5token5CommaEECscP4KCwp5Z66_14zerovec_derive, symObjAddr: 0x1D10, symBinAddr: 0x201C0, symSize: 0x24 }
  - { offset: 0x3D8EB, size: 0x8, addend: 0x0, symName: __RINvNtCsfvfooZQ3Axs_4core3ptr13drop_in_placeTNtNtNtCs9i5KxIbZ5ph_10proc_macro6bridge6client11TokenStreamBH_EECscP4KCwp5Z66_14zerovec_derive, symObjAddr: 0x1D34, symBinAddr: 0x201E4, symSize: 0x60 }
  - { offset: 0x3E414, size: 0x8, addend: 0x0, symName: __RNSNvYNCINvMs6_NtCsloNvcHxBCre_9hashbrown3rawINtBd_8RawTableThuEE14reserve_rehashNCINvNtBf_3map11make_hasherhuNtNtNtCscOYdFFY2T5N_3std4hash6random11RandomStateE0E0INtNtNtCsfvfooZQ3Axs_4core3ops8function6FnOnceTQNtBd_13RawTableInnerjEE9call_once6vtableCscP4KCwp5Z66_14zerovec_derive, symObjAddr: 0x21A4, symBinAddr: 0x20654, symSize: 0x38 }
  - { offset: 0x3E458, size: 0x8, addend: 0x0, symName: __RNSNvYNCINvMs6_NtCsloNvcHxBCre_9hashbrown3rawINtBd_8RawTableThuEE24find_or_find_insert_slotNCINvNtBf_3map14equivalent_keyhhuE0NCINvB1w_11make_hasherhuNtNtNtCscOYdFFY2T5N_3std4hash6random11RandomStateE0E0INtNtNtCsfvfooZQ3Axs_4core3ops8function6FnOnceTjEE9call_once6vtableCscP4KCwp5Z66_14zerovec_derive, symObjAddr: 0x21DC, symBinAddr: 0x2068C, symSize: 0x38 }
  - { offset: 0x3E49C, size: 0x8, addend: 0x0, symName: __RNSNvYNCINvMs6_NtCsloNvcHxBCre_9hashbrown3rawINtBd_8RawTableThuEE4findNCINvNtBf_3map14equivalent_keyhhuE0E0INtNtNtCsfvfooZQ3Axs_4core3ops8function6FnOnceTjEE9call_once6vtableCscP4KCwp5Z66_14zerovec_derive, symObjAddr: 0x2214, symBinAddr: 0x206C4, symSize: 0x38 }
  - { offset: 0x3E4E0, size: 0x8, addend: 0x0, symName: __RNvYNCINvMs6_NtCsloNvcHxBCre_9hashbrown3rawINtBb_8RawTableThuEE14reserve_rehashNCINvNtBd_3map11make_hasherhuNtNtNtCscOYdFFY2T5N_3std4hash6random11RandomStateE0E0INtNtNtCsfvfooZQ3Axs_4core3ops8function6FnOnceTQNtBb_13RawTableInnerjEE9call_onceCscP4KCwp5Z66_14zerovec_derive, symObjAddr: 0x38B8, symBinAddr: 0x21D64, symSize: 0x5C }
  - { offset: 0x3E524, size: 0x8, addend: 0x0, symName: __RNvYNCINvMs6_NtCsloNvcHxBCre_9hashbrown3rawINtBb_8RawTableThuEE24find_or_find_insert_slotNCINvNtBd_3map14equivalent_keyhhuE0NCINvB1u_11make_hasherhuNtNtNtCscOYdFFY2T5N_3std4hash6random11RandomStateE0E0INtNtNtCsfvfooZQ3Axs_4core3ops8function6FnOnceTjEE9call_onceCscP4KCwp5Z66_14zerovec_derive, symObjAddr: 0x3914, symBinAddr: 0x21DC0, symSize: 0x58 }
  - { offset: 0x3E568, size: 0x8, addend: 0x0, symName: __RNvYNCINvMs6_NtCsloNvcHxBCre_9hashbrown3rawINtBb_8RawTableThuEE4findNCINvNtBd_3map14equivalent_keyhhuE0E0INtNtNtCsfvfooZQ3Axs_4core3ops8function6FnOnceTjEE9call_onceCscP4KCwp5Z66_14zerovec_derive, symObjAddr: 0x396C, symBinAddr: 0x21E18, symSize: 0x58 }
  - { offset: 0x3E5AC, size: 0x8, addend: 0x0, symName: __RNvYNCNkNvNtNtNtCs9i5KxIbZ5ph_10proc_macro6bridge6client5state12BRIDGE_STATE0s_0INtNtNtCsfvfooZQ3Axs_4core3ops8function6FnOnceTINtNtB1n_6option6OptionQIB22_INtNtB1n_4cell4CellPuEEEEE9call_onceCscP4KCwp5Z66_14zerovec_derive, symObjAddr: 0x39C4, symBinAddr: 0x21E70, symSize: 0x4C }
  - { offset: 0x3E5F0, size: 0x8, addend: 0x0, symName: __RNvYNCNkNvNvMNtNtCscOYdFFY2T5N_3std4hash6randomNtBb_11RandomState3new4KEYS0s_0INtNtNtCsfvfooZQ3Axs_4core3ops8function6FnOnceTINtNtB1l_6option6OptionQIB20_INtNtB1l_4cell4CellTyyEEEEEE9call_onceCscP4KCwp5Z66_14zerovec_derive, symObjAddr: 0x3A10, symBinAddr: 0x21EBC, symSize: 0x4C }
  - { offset: 0x3E634, size: 0x8, addend: 0x0, symName: __RNvYNcNtNtNtCscP4KCwp5Z66_14zerovec_derive11make_varule16UnsizedFieldKind10VarZeroCow0INtNtNtCsfvfooZQ3Axs_4core3ops8function6FnOnceTNtB8_8OwnULETyEE9call_onceBa_, symObjAddr: 0x3A5C, symBinAddr: 0x21F08, symSize: 0x24 }
  - { offset: 0x3E678, size: 0x8, addend: 0x0, symName: __RNvYNcNtNtNtCscP4KCwp5Z66_14zerovec_derive11make_varule16UnsizedFieldKind3Cow0INtNtNtCsfvfooZQ3Axs_4core3ops8function6FnOnceTNtB8_8OwnULETyEE9call_onceBa_, symObjAddr: 0x3A80, symBinAddr: 0x21F2C, symSize: 0x24 }
  - { offset: 0x3E6BC, size: 0x8, addend: 0x0, symName: __RNvYNcNtNtNtCscP4KCwp5Z66_14zerovec_derive11make_varule16UnsizedFieldKind3Ref0INtNtNtCsfvfooZQ3Axs_4core3ops8function6FnOnceTNtB8_8OwnULETyEE9call_onceBa_, symObjAddr: 0x3AA4, symBinAddr: 0x21F50, symSize: 0x24 }
  - { offset: 0x3E700, size: 0x8, addend: 0x0, symName: __RNvYNcNtNtNtCscP4KCwp5Z66_14zerovec_derive11make_varule16UnsizedFieldKind5Boxed0INtNtNtCsfvfooZQ3Axs_4core3ops8function6FnOnceTNtB8_8OwnULETyEE9call_onceBa_, symObjAddr: 0x3AC8, symBinAddr: 0x21F74, symSize: 0x24 }
  - { offset: 0x3E744, size: 0x8, addend: 0x0, symName: __RNvYNvMNtCsfvfooZQ3Axs_4core6optionINtB5_6OptionINtNtB7_4cell4CellTyyEEE4takeINtNtNtB7_3ops8function6FnOnceTQBx_EE9call_onceCscP4KCwp5Z66_14zerovec_derive, symObjAddr: 0x3BD8, symBinAddr: 0x22084, symSize: 0x24 }
  - { offset: 0x3E788, size: 0x8, addend: 0x0, symName: __RNvYNvNvNvMNtNtCscOYdFFY2T5N_3std4hash6randomNtB9_11RandomState3new4KEYS6___initINtNtNtCsfvfooZQ3Axs_4core3ops8function6FnOnceuE9call_onceCscP4KCwp5Z66_14zerovec_derive, symObjAddr: 0x3BFC, symBinAddr: 0x220A8, symSize: 0x1C }
  - { offset: 0x3E7CC, size: 0x8, addend: 0x0, symName: __RNvYNvYINtNtCse1nGBsou5OW_5alloc5boxed3BoxNtCs3cP53eQoTwO_11proc_macro25IdentEINtNtCsfvfooZQ3Axs_4core7convert5AsRefBE_E6as_refINtNtNtB1j_3ops8function6FnOnceTRB5_EE9call_onceCscP4KCwp5Z66_14zerovec_derive, symObjAddr: 0x3C18, symBinAddr: 0x220C4, symSize: 0x24 }
  - { offset: 0x3E810, size: 0x8, addend: 0x0, symName: __RNvYNvYNtCs3cP53eQoTwO_11proc_macro211TokenStreamNtNtCs6IAuOt8vWmF_3syn5parse5Parse5parseINtNtNtCsfvfooZQ3Axs_4core3ops8function6FnOnceTRNtBN_11ParseBufferEE9call_onceCscP4KCwp5Z66_14zerovec_derive, symObjAddr: 0x3C3C, symBinAddr: 0x220E8, symSize: 0x24 }
  - { offset: 0x3E854, size: 0x8, addend: 0x0, symName: __RNvYNvYNtCs3cP53eQoTwO_11proc_macro25IdentNtNtCs6IAuOt8vWmF_3syn5parse5Parse5parseINtNtNtCsfvfooZQ3Axs_4core3ops8function6FnOnceTRNtBG_11ParseBufferEE9call_onceCscP4KCwp5Z66_14zerovec_derive, symObjAddr: 0x3C60, symBinAddr: 0x2210C, symSize: 0x24 }
  - { offset: 0x3E898, size: 0x8, addend: 0x0, symName: __RNvYNvYNtNtCs6IAuOt8vWmF_3syn3lit3LitNtNtB9_5parse5Parse5parseINtNtNtCsfvfooZQ3Axs_4core3ops8function6FnOnceTRNtBB_11ParseBufferEE9call_onceCscP4KCwp5Z66_14zerovec_derive, symObjAddr: 0x3C84, symBinAddr: 0x22130, symSize: 0x24 }
  - { offset: 0x3E8DC, size: 0x8, addend: 0x0, symName: __RNvYNvYNtNtCs6IAuOt8vWmF_3syn6derive11DeriveInputNtNtB9_11parse_quote10ParseQuote5parseINtNtNtCsfvfooZQ3Axs_4core3ops8function6FnOnceTRNtNtB9_5parse11ParseBufferEE9call_onceCscP4KCwp5Z66_14zerovec_derive, symObjAddr: 0x3CA8, symBinAddr: 0x22154, symSize: 0x24 }
  - { offset: 0x3E920, size: 0x8, addend: 0x0, symName: __RNvYNvYNtNtCs6IAuOt8vWmF_3syn6derive11DeriveInputNtNtB9_5parse5Parse5parseINtNtNtCsfvfooZQ3Axs_4core3ops8function6FnOnceTRNtBN_11ParseBufferEE9call_onceCscP4KCwp5Z66_14zerovec_derive, symObjAddr: 0x3CCC, symBinAddr: 0x22178, symSize: 0x24 }
  - { offset: 0x3E964, size: 0x8, addend: 0x0, symName: __RNvYNvYNtNtCscP4KCwp5Z66_14zerovec_derive5utils18IdentListAttributeNtNtCs6IAuOt8vWmF_3syn5parse5Parse5parseINtNtNtCsfvfooZQ3Axs_4core3ops8function6FnOnceTRNtB15_11ParseBufferEE9call_onceB9_, symObjAddr: 0x3CF0, symBinAddr: 0x2219C, symSize: 0x24 }
  - { offset: 0x3E9A8, size: 0x8, addend: 0x0, symName: __RNvYNvYNtNtNtCs9i5KxIbZ5ph_10proc_macro6bridge3rpc12PanicMessageINtNtCsfvfooZQ3Axs_4core7convert4FromINtNtCse1nGBsou5OW_5alloc5boxed3BoxDNtNtB15_3any3AnyNtNtB15_6marker4SendEL_EE4fromINtNtNtB15_3ops8function6FnOnceTB1B_EE9call_onceCscP4KCwp5Z66_14zerovec_derive, symObjAddr: 0x3D14, symBinAddr: 0x221C0, symSize: 0x2C }
  - { offset: 0x3E9F7, size: 0x8, addend: 0x0, symName: __RNvXs2_NtNtNtCsfvfooZQ3Axs_4core3ops8function5implsQNCNvNtCscP4KCwp5Z66_14zerovec_derive6varule11derive_impl0INtB7_6FnOnceTRNtNtBU_5utils9FieldInfoEE9call_onceBU_, symObjAddr: 0x33A8, symBinAddr: 0x21854, symSize: 0x2C }
  - { offset: 0x3EA4D, size: 0x8, addend: 0x0, symName: __RNvYNvCscP4KCwp5Z66_14zerovec_derive10ule_deriveINtNtNtCsfvfooZQ3Axs_4core3ops8function2FnTNtCs9i5KxIbZ5ph_10proc_macro11TokenStreamEE4callB4_, symObjAddr: 0x3B28, symBinAddr: 0x21FD4, symSize: 0x28 }
  - { offset: 0x3EA91, size: 0x8, addend: 0x0, symName: __RNvYNvCscP4KCwp5Z66_14zerovec_derive11make_varuleINtNtNtCsfvfooZQ3Axs_4core3ops8function2FnTNtCs9i5KxIbZ5ph_10proc_macro11TokenStreamB1s_EE4callB4_, symObjAddr: 0x3B50, symBinAddr: 0x21FFC, symSize: 0x30 }
  - { offset: 0x3EAD5, size: 0x8, addend: 0x0, symName: __RNvYNvCscP4KCwp5Z66_14zerovec_derive13varule_deriveINtNtNtCsfvfooZQ3Axs_4core3ops8function2FnTNtCs9i5KxIbZ5ph_10proc_macro11TokenStreamEE4callB4_, symObjAddr: 0x3B80, symBinAddr: 0x2202C, symSize: 0x28 }
  - { offset: 0x3EB19, size: 0x8, addend: 0x0, symName: __RNvYNvCscP4KCwp5Z66_14zerovec_derive8make_uleINtNtNtCsfvfooZQ3Axs_4core3ops8function2FnTNtCs9i5KxIbZ5ph_10proc_macro11TokenStreamB1o_EE4callB4_, symObjAddr: 0x3BA8, symBinAddr: 0x22054, symSize: 0x30 }
  - { offset: 0x3EFD1, size: 0x8, addend: 0x0, symName: __RNvNvNtCsfvfooZQ3Axs_4core10intrinsics19copy_nonoverlapping18precondition_checkCscP4KCwp5Z66_14zerovec_derive, symObjAddr: 0x2E30, symBinAddr: 0x212DC, symSize: 0x2E4 }
  - { offset: 0x3F249, size: 0x8, addend: 0x0, symName: __RNvNvNtCsfvfooZQ3Axs_4core10intrinsics4copy18precondition_checkCscP4KCwp5Z66_14zerovec_derive, symObjAddr: 0x3114, symBinAddr: 0x215C0, symSize: 0x1CC }
  - { offset: 0x3F7B8, size: 0x8, addend: 0x0, symName: __RINvNtNtNtCsfvfooZQ3Axs_4core9core_arch10arm_shared4neon13vget_lane_u64Kl0_ECscP4KCwp5Z66_14zerovec_derive, symObjAddr: 0x1D94, symBinAddr: 0x20244, symSize: 0x18 }
  - { offset: 0x3F832, size: 0x8, addend: 0x0, symName: __RNvNtNtNtCsfvfooZQ3Axs_4core9core_arch10arm_shared4neon9vdup_n_u8CscP4KCwp5Z66_14zerovec_derive, symObjAddr: 0x2CB8, symBinAddr: 0x21164, symSize: 0x34 }
  - { offset: 0x3F8B6, size: 0x8, addend: 0x0, symName: __RINvYNtNtNtCscOYdFFY2T5N_3std4hash6random11RandomStateNtNtCsfvfooZQ3Axs_4core4hash11BuildHasher8hash_oneRhECscP4KCwp5Z66_14zerovec_derive, symObjAddr: 0x1F1C, symBinAddr: 0x203CC, symSize: 0x84 }
  - { offset: 0x3FA65, size: 0x8, addend: 0x0, symName: __RNvYNtNtNtCscOYdFFY2T5N_3std4hash6random13DefaultHasherNtNtCsfvfooZQ3Axs_4core4hash6Hasher8write_u8CscP4KCwp5Z66_14zerovec_derive, symObjAddr: 0x3AEC, symBinAddr: 0x21F98, symSize: 0x3C }
  - { offset: 0x3FAC7, size: 0x8, addend: 0x0, symName: __RNCINvNvNtNtNtNtCsfvfooZQ3Axs_4core4iter6traits8iterator8Iterator8for_each4callNtCs3cP53eQoTwO_11proc_macro211TokenStreamNCINvMsi_NtCse1nGBsou5OW_5alloc3vecINtB24_3VecB1f_E14extend_trustedINtNtNtBc_8adapters3map3MapINtNtNtBe_5slice4iter4IterNtNtCscP4KCwp5Z66_14zerovec_derive5utils9FieldInfoENCNvNtB3V_11make_varule21make_zf_and_from_impl0EE0E0B3V_, symObjAddr: 0x2034, symBinAddr: 0x204E4, symSize: 0x3C }
  - { offset: 0x3FB20, size: 0x8, addend: 0x0, symName: __RNCINvNvNtNtNtNtCsfvfooZQ3Axs_4core4iter6traits8iterator8Iterator8for_each4callNtCs3cP53eQoTwO_11proc_macro211TokenStreamNCINvMsi_NtCse1nGBsou5OW_5alloc3vecINtB24_3VecB1f_E14extend_trustedINtNtNtBc_8adapters3map3MapINtNtNtBe_5slice4iter4IterNtNtCscP4KCwp5Z66_14zerovec_derive5utils9FieldInfoENCNvNtB3V_3ule15make_ule_fields0EE0E0B3V_, symObjAddr: 0x2070, symBinAddr: 0x20520, symSize: 0x3C }
  - { offset: 0x3FBA6, size: 0x8, addend: 0x0, symName: __RNCNvYNtNtCs6IAuOt8vWmF_3syn8generics9LifetimesNtNtNtNtCsfvfooZQ3Axs_4core4iter6traits8iterator8Iterator5count0CscP4KCwp5Z66_14zerovec_derive, symObjAddr: 0x213C, symBinAddr: 0x205EC, symSize: 0x68 }
  - { offset: 0x3FBF7, size: 0x8, addend: 0x0, symName: __RNvYINtNtNtNtCsfvfooZQ3Axs_4core4iter8adapters4take4TakeINtNtCs6IAuOt8vWmF_3syn10punctuated4IterNtNtBX_4data5FieldEENtNtNtB9_6traits8iterator8Iterator9enumerateCscP4KCwp5Z66_14zerovec_derive, symObjAddr: 0x38A0, symBinAddr: 0x21D4C, symSize: 0x18 }
  - { offset: 0x3FC28, size: 0x8, addend: 0x0, symName: __RNvYINtNtNtNtCsfvfooZQ3Axs_4core4iter8adapters4take4TakeINtNtCs6IAuOt8vWmF_3syn10punctuated4IterNtNtBX_4data5FieldEENtNtNtB9_6traits8iterator8Iterator9enumerateCscP4KCwp5Z66_14zerovec_derive, symObjAddr: 0x38A0, symBinAddr: 0x21D4C, symSize: 0x18 }
  - { offset: 0x3FC55, size: 0x8, addend: 0x0, symName: __RNvXs_NtNtNtCsfvfooZQ3Axs_4core4iter8adapters4takeINtB4_4TakeINtNtCs6IAuOt8vWmF_3syn10punctuated4IterNtNtB12_4data5FieldEENtNtNtB8_6traits8iterator8Iterator4nextCscP4KCwp5Z66_14zerovec_derive, symObjAddr: 0x3700, symBinAddr: 0x21BAC, symSize: 0x58 }
  - { offset: 0x3FC8A, size: 0x8, addend: 0x0, symName: __RNvXs_NtNtNtCsfvfooZQ3Axs_4core4iter8adapters4takeINtB4_4TakeINtNtCs6IAuOt8vWmF_3syn10punctuated4IterNtNtB12_4data5FieldEENtNtNtB8_6traits8iterator8Iterator9size_hintCscP4KCwp5Z66_14zerovec_derive, symObjAddr: 0x3758, symBinAddr: 0x21C04, symSize: 0x124 }
  - { offset: 0x3FF4F, size: 0x8, addend: 0x0, symName: __RNvNvMNtNtCsfvfooZQ3Axs_4core5alloc6layoutNtB4_6Layout25from_size_align_unchecked18precondition_checkCscP4KCwp5Z66_14zerovec_derive, symObjAddr: 0x2CEC, symBinAddr: 0x21198, symSize: 0x50 }
  - { offset: 0x401C6, size: 0x8, addend: 0x0, symName: __RINvMs2_NtNtCscOYdFFY2T5N_3std6thread5localINtB6_8LocalKeyINtNtCsfvfooZQ3Axs_4core4cell4CellPuEE4withNCNvMs3_B6_BF_7replace0B1s_ECscP4KCwp5Z66_14zerovec_derive, symObjAddr: 0x0, symBinAddr: 0x1E614, symSize: 0x54 }
  - { offset: 0x4027F, size: 0x8, addend: 0x0, symName: __RINvMs2_NtNtCscOYdFFY2T5N_3std6thread5localINtB6_8LocalKeyINtNtCsfvfooZQ3Axs_4core4cell4CellPuEE8try_withNCNvMs3_B6_BF_7replace0B1s_ECscP4KCwp5Z66_14zerovec_derive, symObjAddr: 0x54, symBinAddr: 0x1E668, symSize: 0xE4 }
  - { offset: 0x40411, size: 0x8, addend: 0x0, symName: __RINvMs2_NtNtCscOYdFFY2T5N_3std6thread5localINtB6_8LocalKeyINtNtCsfvfooZQ3Axs_4core4cell4CellTyyEEE4withNCNvMNtNtBa_4hash6randomNtB1I_11RandomState3new0B21_ECscP4KCwp5Z66_14zerovec_derive, symObjAddr: 0x138, symBinAddr: 0x1E74C, symSize: 0x50 }
  - { offset: 0x404CA, size: 0x8, addend: 0x0, symName: __RINvMs2_NtNtCscOYdFFY2T5N_3std6thread5localINtB6_8LocalKeyINtNtCsfvfooZQ3Axs_4core4cell4CellTyyEEE8try_withNCNvMNtNtBa_4hash6randomNtB1M_11RandomState3new0B25_ECscP4KCwp5Z66_14zerovec_derive, symObjAddr: 0x188, symBinAddr: 0x1E79C, symSize: 0xE8 }
  - { offset: 0x40674, size: 0x8, addend: 0x0, symName: __RNCINvMs3_NtCs6IAuOt8vWmF_3syn3litNtB8_6LitInt12base10_parseyE0CscP4KCwp5Z66_14zerovec_derive, symObjAddr: 0x1FA0, symBinAddr: 0x20450, symSize: 0x94 }
  - { offset: 0x4587F, size: 0x8, addend: 0x0, symName: __RNvXsJ_NtCse1nGBsou5OW_5alloc6stringNtB5_6StringINtNtCsfvfooZQ3Axs_4core7convert4FromReE4fromCscP4KCwp5Z66_14zerovec_derive, symObjAddr: 0x3580, symBinAddr: 0x21A2C, symSize: 0x50 }
  - { offset: 0x45992, size: 0x8, addend: 0x0, symName: __RNvXss_NtCse1nGBsou5OW_5alloc6stringNtB5_6StringNtNtNtCsfvfooZQ3Axs_4core3ops5deref5Deref5derefCscP4KCwp5Z66_14zerovec_derive, symObjAddr: 0x387C, symBinAddr: 0x21D28, symSize: 0x24 }
  - { offset: 0x46D54, size: 0x8, addend: 0x0, symName: __RINvMs3_NtCs6IAuOt8vWmF_3syn3litNtB6_6LitInt12base10_parseyECscP4KCwp5Z66_14zerovec_derive, symObjAddr: 0x270, symBinAddr: 0x1E884, symSize: 0x58 }
  - { offset: 0x46E1C, size: 0x8, addend: 0x0, symName: __RINvMs3_NtNtCs9i5KxIbZ5ph_10proc_macro6bridge6bufferNtB6_6Buffer17extend_from_arrayKj4_ECscP4KCwp5Z66_14zerovec_derive, symObjAddr: 0x2C8, symBinAddr: 0x1E8DC, symSize: 0x16C }
  - { offset: 0x46FE2, size: 0x8, addend: 0x0, symName: __RINvMs3_NtNtCs9i5KxIbZ5ph_10proc_macro6bridge6bufferNtB6_6Buffer17extend_from_arrayKj8_ECscP4KCwp5Z66_14zerovec_derive, symObjAddr: 0x434, symBinAddr: 0x1EA48, symSize: 0x16C }
  - { offset: 0x472F1, size: 0x8, addend: 0x0, symName: __RNvMNtCse1nGBsou5OW_5alloc6stringNtB2_6String6as_strCscP4KCwp5Z66_14zerovec_derive, symObjAddr: 0x224C, symBinAddr: 0x206FC, symSize: 0x70 }
  - { offset: 0x47729, size: 0x8, addend: 0x0, symName: __RNvMNtNtNtCsloNvcHxBCre_9hashbrown7control5group4neonNtB2_5Group10match_fullCscP4KCwp5Z66_14zerovec_derive, symObjAddr: 0x22BC, symBinAddr: 0x2076C, symSize: 0x68 }
  - { offset: 0x47761, size: 0x8, addend: 0x0, symName: __RNvMNtNtNtCsloNvcHxBCre_9hashbrown7control5group4neonNtB2_5Group22match_empty_or_deletedCscP4KCwp5Z66_14zerovec_derive, symObjAddr: 0x2324, symBinAddr: 0x207D4, symSize: 0x68 }
  - { offset: 0x47799, size: 0x8, addend: 0x0, symName: __RNvMNtNtNtCsloNvcHxBCre_9hashbrown7control5group4neonNtB2_5Group44convert_special_to_empty_and_full_to_deletedCscP4KCwp5Z66_14zerovec_derive, symObjAddr: 0x238C, symBinAddr: 0x2083C, symSize: 0x88 }
  - { offset: 0x477D1, size: 0x8, addend: 0x0, symName: __RNvMNtNtNtCsloNvcHxBCre_9hashbrown7control5group4neonNtB2_5Group9match_tagCscP4KCwp5Z66_14zerovec_derive, symObjAddr: 0x2414, symBinAddr: 0x208C4, symSize: 0x7C }
  - { offset: 0x47831, size: 0x8, addend: 0x0, symName: __RNvMs3_NtNtCs9i5KxIbZ5ph_10proc_macro6bridge6bufferNtB5_6Buffer17extend_from_sliceCscP4KCwp5Z66_14zerovec_derive, symObjAddr: 0x2490, symBinAddr: 0x20940, symSize: 0x164 }
  - { offset: 0x479ED, size: 0x8, addend: 0x0, symName: __RNvMs3_NtNtCs9i5KxIbZ5ph_10proc_macro6bridge6bufferNtB5_6Buffer4pushCscP4KCwp5Z66_14zerovec_derive, symObjAddr: 0x25F4, symBinAddr: 0x20AA4, symSize: 0x134 }
  - { offset: 0x47D0F, size: 0x8, addend: 0x0, symName: __RNvXs4_NtCs2cqEZUIJimJ_5quote9___privateINtB5_9RepInterpNtCs3cP53eQoTwO_11proc_macro211TokenStreamENtNtB7_9to_tokens8ToTokens9to_tokensCscP4KCwp5Z66_14zerovec_derive, symObjAddr: 0x33F0, symBinAddr: 0x2189C, symSize: 0x3C }
  - { offset: 0x47D4E, size: 0x8, addend: 0x0, symName: __RNvXs4_NtCs2cqEZUIJimJ_5quote9___privateINtB5_9RepInterpRNtCs3cP53eQoTwO_11proc_macro211TokenStreamENtNtB7_9to_tokens8ToTokens9to_tokensCscP4KCwp5Z66_14zerovec_derive, symObjAddr: 0x342C, symBinAddr: 0x218D8, symSize: 0x3C }
  - { offset: 0x483E4, size: 0x8, addend: 0x0, symName: __RNvNtCscP4KCwp5Z66_14zerovec_derive6varule11derive_impl, symObjAddr: 0x3D40, symBinAddr: 0x221EC, symSize: 0x2340 }
  - { offset: 0x48821, size: 0x8, addend: 0x0, symName: __RNCNvNtCscP4KCwp5Z66_14zerovec_derive6varule11derive_impl0B5_, symObjAddr: 0x6080, symBinAddr: 0x2452C, symSize: 0x158 }
  - { offset: 0x497C1, size: 0x8, addend: 0x0, symName: __RINvNtCs6IAuOt8vWmF_3syn11parse_quote5parseNtNtB4_6derive11DeriveInputECscP4KCwp5Z66_14zerovec_derive, symObjAddr: 0x0, symBinAddr: 0x24684, symSize: 0xD0 }
  - { offset: 0x49CA6, size: 0x8, addend: 0x0, symName: __RNCNCNvXsx_NtCs6IAuOt8vWmF_3syn10punctuatedINtB9_11PrivateIterNtCs3cP53eQoTwO_11proc_macro25IdentNtNtBb_5token5CommaENtNtNtNtCsfvfooZQ3Axs_4core4iter6traits12double_ended19DoubleEndedIterator9next_back00CscP4KCwp5Z66_14zerovec_derive, symObjAddr: 0x548, symBinAddr: 0x24A20, symSize: 0x24 }
  - { offset: 0x49CF1, size: 0x8, addend: 0x0, symName: __RNCNCNvXsx_NtCs6IAuOt8vWmF_3syn10punctuatedINtB9_11PrivateIterNtNtBb_4data7VariantNtNtBb_5token5CommaENtNtNtNtCsfvfooZQ3Axs_4core4iter6traits12double_ended19DoubleEndedIterator9next_back00CscP4KCwp5Z66_14zerovec_derive, symObjAddr: 0x56C, symBinAddr: 0x24A44, symSize: 0x24 }
  - { offset: 0x49D3C, size: 0x8, addend: 0x0, symName: __RNCNCNvXsx_NtCs6IAuOt8vWmF_3syn10punctuatedINtB9_11PrivateIterNtNtBb_4path15GenericArgumentNtNtBb_5token5CommaENtNtNtNtCsfvfooZQ3Axs_4core4iter6traits12double_ended19DoubleEndedIterator9next_back00CscP4KCwp5Z66_14zerovec_derive, symObjAddr: 0x590, symBinAddr: 0x24A68, symSize: 0x24 }
  - { offset: 0x49D9D, size: 0x8, addend: 0x0, symName: __RNCNvXsx_NtCs6IAuOt8vWmF_3syn10punctuatedINtB7_11PrivateIterNtCs3cP53eQoTwO_11proc_macro25IdentNtNtB9_5token5CommaENtNtNtNtCsfvfooZQ3Axs_4core4iter6traits12double_ended19DoubleEndedIterator9next_back0CscP4KCwp5Z66_14zerovec_derive, symObjAddr: 0x6BC, symBinAddr: 0x24B94, symSize: 0x38 }
  - { offset: 0x49DDF, size: 0x8, addend: 0x0, symName: __RNCNvXsx_NtCs6IAuOt8vWmF_3syn10punctuatedINtB7_11PrivateIterNtNtB9_4data7VariantNtNtB9_5token5CommaENtNtNtNtCsfvfooZQ3Axs_4core4iter6traits12double_ended19DoubleEndedIterator9next_back0CscP4KCwp5Z66_14zerovec_derive, symObjAddr: 0x6F4, symBinAddr: 0x24BCC, symSize: 0x38 }
  - { offset: 0x49E21, size: 0x8, addend: 0x0, symName: __RNCNvXsx_NtCs6IAuOt8vWmF_3syn10punctuatedINtB7_11PrivateIterNtNtB9_4path15GenericArgumentNtNtB9_5token5CommaENtNtNtNtCsfvfooZQ3Axs_4core4iter6traits12double_ended19DoubleEndedIterator9next_back0CscP4KCwp5Z66_14zerovec_derive, symObjAddr: 0x72C, symBinAddr: 0x24C04, symSize: 0x38 }
  - { offset: 0x49E64, size: 0x8, addend: 0x0, symName: __RNvXsx_NtCs6IAuOt8vWmF_3syn10punctuatedINtB5_11PrivateIterNtCs3cP53eQoTwO_11proc_macro25IdentNtNtB7_5token5CommaENtNtNtNtCsfvfooZQ3Axs_4core4iter6traits12double_ended19DoubleEndedIterator9next_backCscP4KCwp5Z66_14zerovec_derive, symObjAddr: 0x2940, symBinAddr: 0x26B18, symSize: 0x40 }
  - { offset: 0x49EA4, size: 0x8, addend: 0x0, symName: __RNvXsx_NtCs6IAuOt8vWmF_3syn10punctuatedINtB5_11PrivateIterNtNtB7_4data7VariantNtNtB7_5token5CommaENtNtNtNtCsfvfooZQ3Axs_4core4iter6traits12double_ended19DoubleEndedIterator9next_backCscP4KCwp5Z66_14zerovec_derive, symObjAddr: 0x2980, symBinAddr: 0x26B58, symSize: 0x40 }
  - { offset: 0x49EE4, size: 0x8, addend: 0x0, symName: __RNvXsx_NtCs6IAuOt8vWmF_3syn10punctuatedINtB5_11PrivateIterNtNtB7_4path15GenericArgumentNtNtB7_5token5CommaENtNtNtNtCsfvfooZQ3Axs_4core4iter6traits12double_ended19DoubleEndedIterator9next_backCscP4KCwp5Z66_14zerovec_derive, symObjAddr: 0x29C0, symBinAddr: 0x26B98, symSize: 0x40 }
  - { offset: 0x49F2F, size: 0x8, addend: 0x0, symName: __RNCNvXsw_NtCs6IAuOt8vWmF_3syn10punctuatedINtB7_11PrivateIterNtCs3cP53eQoTwO_11proc_macro25IdentNtNtB9_5token5CommaENtNtNtNtCsfvfooZQ3Axs_4core4iter6traits8iterator8Iterator4next0CscP4KCwp5Z66_14zerovec_derive, symObjAddr: 0x5B4, symBinAddr: 0x24A8C, symSize: 0x24 }
  - { offset: 0x49F7A, size: 0x8, addend: 0x0, symName: __RNCNvXsw_NtCs6IAuOt8vWmF_3syn10punctuatedINtB7_11PrivateIterNtCs3cP53eQoTwO_11proc_macro25IdentNtNtB9_5token5CommaENtNtNtNtCsfvfooZQ3Axs_4core4iter6traits8iterator8Iterator4nexts_0CscP4KCwp5Z66_14zerovec_derive, symObjAddr: 0x5D8, symBinAddr: 0x24AB0, symSize: 0x34 }
  - { offset: 0x49FBC, size: 0x8, addend: 0x0, symName: __RNCNvXsw_NtCs6IAuOt8vWmF_3syn10punctuatedINtB7_11PrivateIterNtNtB9_4data7VariantNtNtB9_5token5CommaENtNtNtNtCsfvfooZQ3Axs_4core4iter6traits8iterator8Iterator4next0CscP4KCwp5Z66_14zerovec_derive, symObjAddr: 0x60C, symBinAddr: 0x24AE4, symSize: 0x24 }
  - { offset: 0x4A007, size: 0x8, addend: 0x0, symName: __RNCNvXsw_NtCs6IAuOt8vWmF_3syn10punctuatedINtB7_11PrivateIterNtNtB9_4data7VariantNtNtB9_5token5CommaENtNtNtNtCsfvfooZQ3Axs_4core4iter6traits8iterator8Iterator4nexts_0CscP4KCwp5Z66_14zerovec_derive, symObjAddr: 0x630, symBinAddr: 0x24B08, symSize: 0x34 }
  - { offset: 0x4A049, size: 0x8, addend: 0x0, symName: __RNCNvXsw_NtCs6IAuOt8vWmF_3syn10punctuatedINtB7_11PrivateIterNtNtB9_4path15GenericArgumentNtNtB9_5token5CommaENtNtNtNtCsfvfooZQ3Axs_4core4iter6traits8iterator8Iterator4next0CscP4KCwp5Z66_14zerovec_derive, symObjAddr: 0x664, symBinAddr: 0x24B3C, symSize: 0x24 }
  - { offset: 0x4A094, size: 0x8, addend: 0x0, symName: __RNCNvXsw_NtCs6IAuOt8vWmF_3syn10punctuatedINtB7_11PrivateIterNtNtB9_4path15GenericArgumentNtNtB9_5token5CommaENtNtNtNtCsfvfooZQ3Axs_4core4iter6traits8iterator8Iterator4nexts_0CscP4KCwp5Z66_14zerovec_derive, symObjAddr: 0x688, symBinAddr: 0x24B60, symSize: 0x34 }
  - { offset: 0x4A0EC, size: 0x8, addend: 0x0, symName: __RNvXsw_NtCs6IAuOt8vWmF_3syn10punctuatedINtB5_11PrivateIterNtCs3cP53eQoTwO_11proc_macro25IdentNtNtB7_5token5CommaENtNtNtNtCsfvfooZQ3Axs_4core4iter6traits8iterator8Iterator4nextCscP4KCwp5Z66_14zerovec_derive, symObjAddr: 0x2874, symBinAddr: 0x26A4C, symSize: 0x44 }
  - { offset: 0x4A12C, size: 0x8, addend: 0x0, symName: __RNvXsw_NtCs6IAuOt8vWmF_3syn10punctuatedINtB5_11PrivateIterNtNtB7_4data7VariantNtNtB7_5token5CommaENtNtNtNtCsfvfooZQ3Axs_4core4iter6traits8iterator8Iterator4nextCscP4KCwp5Z66_14zerovec_derive, symObjAddr: 0x28B8, symBinAddr: 0x26A90, symSize: 0x44 }
  - { offset: 0x4A16C, size: 0x8, addend: 0x0, symName: __RNvXsw_NtCs6IAuOt8vWmF_3syn10punctuatedINtB5_11PrivateIterNtNtB7_4path15GenericArgumentNtNtB7_5token5CommaENtNtNtNtCsfvfooZQ3Axs_4core4iter6traits8iterator8Iterator4nextCscP4KCwp5Z66_14zerovec_derive, symObjAddr: 0x28FC, symBinAddr: 0x26AD4, symSize: 0x44 }
  - { offset: 0x4A32C, size: 0x8, addend: 0x0, symName: __RNvXs9_NtCs6IAuOt8vWmF_3syn10punctuatedRINtB5_10PunctuatedNtNtB7_4path15GenericArgumentNtNtB7_5token5CommaENtNtNtNtCsfvfooZQ3Axs_4core4iter6traits7collect12IntoIterator9into_iterCscP4KCwp5Z66_14zerovec_derive, symObjAddr: 0x1EE4, symBinAddr: 0x260BC, symSize: 0x34 }
  - { offset: 0x4A372, size: 0x8, addend: 0x0, symName: __RNvXsA_NtCs6IAuOt8vWmF_3syn10punctuatedINtB5_11PrivateIterNtCs3cP53eQoTwO_11proc_macro25IdentNtNtB7_5token5CommaEINtB5_9IterTraitBU_E9clone_boxCscP4KCwp5Z66_14zerovec_derive, symObjAddr: 0x1F18, symBinAddr: 0x260F0, symSize: 0x94 }
  - { offset: 0x4A3D0, size: 0x8, addend: 0x0, symName: __RNvXsA_NtCs6IAuOt8vWmF_3syn10punctuatedINtB5_11PrivateIterNtNtB7_4data7VariantNtNtB7_5token5CommaEINtB5_9IterTraitBU_E9clone_boxCscP4KCwp5Z66_14zerovec_derive, symObjAddr: 0x1FAC, symBinAddr: 0x26184, symSize: 0x94 }
  - { offset: 0x4A42E, size: 0x8, addend: 0x0, symName: __RNvXsA_NtCs6IAuOt8vWmF_3syn10punctuatedINtB5_11PrivateIterNtNtB7_4path15GenericArgumentNtNtB7_5token5CommaEINtB5_9IterTraitBU_E9clone_boxCscP4KCwp5Z66_14zerovec_derive, symObjAddr: 0x2040, symBinAddr: 0x26218, symSize: 0x94 }
  - { offset: 0x4A492, size: 0x8, addend: 0x0, symName: __RNvXsC_NtCs6IAuOt8vWmF_3syn10punctuatedINtB5_7IterMutNtNtB7_4data5FieldENtNtNtNtCsfvfooZQ3Axs_4core4iter6traits8iterator8Iterator4nextCscP4KCwp5Z66_14zerovec_derive, symObjAddr: 0x20D4, symBinAddr: 0x262AC, symSize: 0x48 }
  - { offset: 0x4A4CF, size: 0x8, addend: 0x0, symName: __RNvXst_NtCs6IAuOt8vWmF_3syn10punctuatedINtB5_4IterNtCs3cP53eQoTwO_11proc_macro25IdentENtNtNtNtCsfvfooZQ3Axs_4core4iter6traits8iterator8Iterator4nextCscP4KCwp5Z66_14zerovec_derive, symObjAddr: 0x25CC, symBinAddr: 0x267A4, symSize: 0x48 }
  - { offset: 0x4A506, size: 0x8, addend: 0x0, symName: __RNvXst_NtCs6IAuOt8vWmF_3syn10punctuatedINtB5_4IterNtCs3cP53eQoTwO_11proc_macro25IdentENtNtNtNtCsfvfooZQ3Axs_4core4iter6traits8iterator8Iterator9size_hintCscP4KCwp5Z66_14zerovec_derive, symObjAddr: 0x2614, symBinAddr: 0x267EC, symSize: 0x7C }
  - { offset: 0x4A53D, size: 0x8, addend: 0x0, symName: __RNvXst_NtCs6IAuOt8vWmF_3syn10punctuatedINtB5_4IterNtNtB7_4data5FieldENtNtNtNtCsfvfooZQ3Axs_4core4iter6traits8iterator8Iterator9size_hintCscP4KCwp5Z66_14zerovec_derive, symObjAddr: 0x2690, symBinAddr: 0x26868, symSize: 0x7C }
  - { offset: 0x4A574, size: 0x8, addend: 0x0, symName: __RNvXst_NtCs6IAuOt8vWmF_3syn10punctuatedINtB5_4IterNtNtB7_4data7VariantENtNtNtNtCsfvfooZQ3Axs_4core4iter6traits8iterator8Iterator4nextCscP4KCwp5Z66_14zerovec_derive, symObjAddr: 0x270C, symBinAddr: 0x268E4, symSize: 0x48 }
  - { offset: 0x4A5AB, size: 0x8, addend: 0x0, symName: __RNvXst_NtCs6IAuOt8vWmF_3syn10punctuatedINtB5_4IterNtNtB7_4path15GenericArgumentENtNtNtNtCsfvfooZQ3Axs_4core4iter6traits8iterator8Iterator4nextCscP4KCwp5Z66_14zerovec_derive, symObjAddr: 0x2754, symBinAddr: 0x2692C, symSize: 0x48 }
  - { offset: 0x4A5E8, size: 0x8, addend: 0x0, symName: __RNvXsu_NtCs6IAuOt8vWmF_3syn10punctuatedINtB5_4IterNtNtB7_4data5FieldENtNtNtNtCsfvfooZQ3Axs_4core4iter6traits12double_ended19DoubleEndedIterator9next_backCscP4KCwp5Z66_14zerovec_derive, symObjAddr: 0x279C, symBinAddr: 0x26974, symSize: 0x48 }
  - { offset: 0x4A625, size: 0x8, addend: 0x0, symName: __RNvXsv_NtCs6IAuOt8vWmF_3syn10punctuatedINtB5_4IterNtCs3cP53eQoTwO_11proc_macro25IdentENtNtNtNtCsfvfooZQ3Axs_4core4iter6traits10exact_size17ExactSizeIterator3lenCscP4KCwp5Z66_14zerovec_derive, symObjAddr: 0x27E4, symBinAddr: 0x269BC, symSize: 0x48 }
  - { offset: 0x4A65C, size: 0x8, addend: 0x0, symName: __RNvXsv_NtCs6IAuOt8vWmF_3syn10punctuatedINtB5_4IterNtNtB7_4data5FieldENtNtNtNtCsfvfooZQ3Axs_4core4iter6traits10exact_size17ExactSizeIterator3lenCscP4KCwp5Z66_14zerovec_derive, symObjAddr: 0x282C, symBinAddr: 0x26A04, symSize: 0x48 }
  - { offset: 0x4A699, size: 0x8, addend: 0x0, symName: __RNvXsy_NtCs6IAuOt8vWmF_3syn10punctuatedINtB5_11PrivateIterNtCs3cP53eQoTwO_11proc_macro25IdentNtNtB7_5token5CommaENtNtNtNtCsfvfooZQ3Axs_4core4iter6traits10exact_size17ExactSizeIterator3lenCscP4KCwp5Z66_14zerovec_derive, symObjAddr: 0x2A00, symBinAddr: 0x26BD8, symSize: 0x94 }
  - { offset: 0x4A70D, size: 0x8, addend: 0x0, symName: __RNvXsy_NtCs6IAuOt8vWmF_3syn10punctuatedINtB5_11PrivateIterNtNtB7_4data7VariantNtNtB7_5token5CommaENtNtNtNtCsfvfooZQ3Axs_4core4iter6traits10exact_size17ExactSizeIterator3lenCscP4KCwp5Z66_14zerovec_derive, symObjAddr: 0x2A94, symBinAddr: 0x26C6C, symSize: 0x94 }
  - { offset: 0x4A781, size: 0x8, addend: 0x0, symName: __RNvXsy_NtCs6IAuOt8vWmF_3syn10punctuatedINtB5_11PrivateIterNtNtB7_4path15GenericArgumentNtNtB7_5token5CommaENtNtNtNtCsfvfooZQ3Axs_4core4iter6traits10exact_size17ExactSizeIterator3lenCscP4KCwp5Z66_14zerovec_derive, symObjAddr: 0x2B28, symBinAddr: 0x26D00, symSize: 0x94 }
  - { offset: 0x4A7FB, size: 0x8, addend: 0x0, symName: __RNvXsz_NtCs6IAuOt8vWmF_3syn10punctuatedINtB5_11PrivateIterNtCs3cP53eQoTwO_11proc_macro25IdentNtNtB7_5token5CommaENtNtCsfvfooZQ3Axs_4core5clone5Clone5cloneCscP4KCwp5Z66_14zerovec_derive, symObjAddr: 0x2BBC, symBinAddr: 0x26D94, symSize: 0x68 }
  - { offset: 0x4A83B, size: 0x8, addend: 0x0, symName: __RNvXsz_NtCs6IAuOt8vWmF_3syn10punctuatedINtB5_11PrivateIterNtNtB7_4data7VariantNtNtB7_5token5CommaENtNtCsfvfooZQ3Axs_4core5clone5Clone5cloneCscP4KCwp5Z66_14zerovec_derive, symObjAddr: 0x2C24, symBinAddr: 0x26DFC, symSize: 0x68 }
  - { offset: 0x4A87B, size: 0x8, addend: 0x0, symName: __RNvXsz_NtCs6IAuOt8vWmF_3syn10punctuatedINtB5_11PrivateIterNtNtB7_4path15GenericArgumentNtNtB7_5token5CommaENtNtCsfvfooZQ3Axs_4core5clone5Clone5cloneCscP4KCwp5Z66_14zerovec_derive, symObjAddr: 0x2C8C, symBinAddr: 0x26E64, symSize: 0x68 }
  - { offset: 0x4F199, size: 0x8, addend: 0x0, symName: __RINvNtCs6IAuOt8vWmF_3syn11parse_quote5parseNtNtB4_6derive11DeriveInputECscP4KCwp5Z66_14zerovec_derive, symObjAddr: 0x0, symBinAddr: 0x24684, symSize: 0xD0 }
  - { offset: 0x4F1FE, size: 0x8, addend: 0x0, symName: __RINvNvNtCs6IAuOt8vWmF_3syn11parse_quote5parse18panic_cold_displayNtNtB6_5error5ErrorECscP4KCwp5Z66_14zerovec_derive, symObjAddr: 0x234, symBinAddr: 0x1B4AB8, symSize: 0x28 }
  - { offset: 0x4F37F, size: 0x8, addend: 0x0, symName: __RNvXsh_NtCs6IAuOt8vWmF_3syn5parseNvYNtNtB7_6derive11DeriveInputNtNtB7_11parse_quote10ParseQuote5parseNtB5_6Parser6parse2CscP4KCwp5Z66_14zerovec_derive, symObjAddr: 0x2274, symBinAddr: 0x2644C, symSize: 0x358 }
  - { offset: 0x5097F, size: 0x8, addend: 0x0, symName: __RNvNvMs1_NtNtCsfvfooZQ3Axs_4core3ptr8non_nullINtB7_7NonNullpE13new_unchecked18precondition_checkCscP4KCwp5Z66_14zerovec_derive, symObjAddr: 0x170C, symBinAddr: 0x25BE4, symSize: 0x38 }
  - { offset: 0x50CD7, size: 0x8, addend: 0x0, symName: __RINvNtCsfvfooZQ3Axs_4core3ptr14read_unalignedNtNtNtNtB4_9core_arch10arm_shared4neon9uint8x8_tECscP4KCwp5Z66_14zerovec_derive, symObjAddr: 0xD0, symBinAddr: 0x24754, symSize: 0x8C }
  - { offset: 0x50DAB, size: 0x8, addend: 0x0, symName: __RINvNtCsfvfooZQ3Axs_4core3ptr15write_unalignedNtNtNtNtB4_9core_arch10arm_shared4neon9uint8x8_tECscP4KCwp5Z66_14zerovec_derive, symObjAddr: 0x15C, symBinAddr: 0x247E0, symSize: 0x70 }
  - { offset: 0x50FD0, size: 0x8, addend: 0x0, symName: __RINvNvNtCsfvfooZQ3Axs_4core3ptr19swap_nonoverlapping7runtimehECscP4KCwp5Z66_14zerovec_derive, symObjAddr: 0x378, symBinAddr: 0x24850, symSize: 0x1B4 }
  - { offset: 0x518CF, size: 0x8, addend: 0x0, symName: __RNvNvNtCsfvfooZQ3Axs_4core3ptr13read_volatile18precondition_checkCscP4KCwp5Z66_14zerovec_derive, symObjAddr: 0x1744, symBinAddr: 0x25C1C, symSize: 0x100 }
  - { offset: 0x519E4, size: 0x8, addend: 0x0, symName: __RNvNvNtCsfvfooZQ3Axs_4core3ptr7replace18precondition_checkCscP4KCwp5Z66_14zerovec_derive, symObjAddr: 0x1B44, symBinAddr: 0x25D1C, symSize: 0x100 }
  - { offset: 0x51DA1, size: 0x8, addend: 0x0, symName: __RNvNvNtNtCsfvfooZQ3Axs_4core5slice3raw14from_raw_parts18precondition_checkCscP4KCwp5Z66_14zerovec_derive, symObjAddr: 0x1C44, symBinAddr: 0x25E1C, symSize: 0x168 }
  - { offset: 0x5498C, size: 0x8, addend: 0x0, symName: __RINvYINtNtCs6IAuOt8vWmF_3syn10punctuated4IterNtCs3cP53eQoTwO_11proc_macro25IdentENtNtNtNtCsfvfooZQ3Axs_4core4iter6traits8iterator8Iterator6clonedBH_ECscP4KCwp5Z66_14zerovec_derive, symObjAddr: 0x52C, symBinAddr: 0x24A04, symSize: 0x1C }
  - { offset: 0x549CC, size: 0x8, addend: 0x0, symName: __RNvYINtNtCs6IAuOt8vWmF_3syn10punctuated11PrivateIterNtCs3cP53eQoTwO_11proc_macro25IdentNtNtB7_5token5CommaENtNtNtNtCsfvfooZQ3Axs_4core4iter6traits8iterator8Iterator10advance_byCscP4KCwp5Z66_14zerovec_derive, symObjAddr: 0x2EBC, symBinAddr: 0x27094, symSize: 0x134 }
  - { offset: 0x54B22, size: 0x8, addend: 0x0, symName: __RNvYINtNtCs6IAuOt8vWmF_3syn10punctuated11PrivateIterNtCs3cP53eQoTwO_11proc_macro25IdentNtNtB7_5token5CommaENtNtNtNtCsfvfooZQ3Axs_4core4iter6traits8iterator8Iterator3nthCscP4KCwp5Z66_14zerovec_derive, symObjAddr: 0x2FF0, symBinAddr: 0x271C8, symSize: 0x80 }
  - { offset: 0x54BEE, size: 0x8, addend: 0x0, symName: __RNvYINtNtCs6IAuOt8vWmF_3syn10punctuated11PrivateIterNtCs3cP53eQoTwO_11proc_macro25IdentNtNtB7_5token5CommaENtNtNtNtCsfvfooZQ3Axs_4core4iter6traits8iterator8Iterator9size_hintCscP4KCwp5Z66_14zerovec_derive, symObjAddr: 0x3070, symBinAddr: 0x27248, symSize: 0x34 }
  - { offset: 0x54C23, size: 0x8, addend: 0x0, symName: __RNvYINtNtCs6IAuOt8vWmF_3syn10punctuated11PrivateIterNtNtB7_4data7VariantNtNtB7_5token5CommaENtNtNtNtCsfvfooZQ3Axs_4core4iter6traits8iterator8Iterator10advance_byCscP4KCwp5Z66_14zerovec_derive, symObjAddr: 0x326C, symBinAddr: 0x27444, symSize: 0x134 }
  - { offset: 0x54D79, size: 0x8, addend: 0x0, symName: __RNvYINtNtCs6IAuOt8vWmF_3syn10punctuated11PrivateIterNtNtB7_4data7VariantNtNtB7_5token5CommaENtNtNtNtCsfvfooZQ3Axs_4core4iter6traits8iterator8Iterator3nthCscP4KCwp5Z66_14zerovec_derive, symObjAddr: 0x33A0, symBinAddr: 0x27578, symSize: 0x80 }
  - { offset: 0x54E45, size: 0x8, addend: 0x0, symName: __RNvYINtNtCs6IAuOt8vWmF_3syn10punctuated11PrivateIterNtNtB7_4data7VariantNtNtB7_5token5CommaENtNtNtNtCsfvfooZQ3Axs_4core4iter6traits8iterator8Iterator9size_hintCscP4KCwp5Z66_14zerovec_derive, symObjAddr: 0x3420, symBinAddr: 0x275F8, symSize: 0x34 }
  - { offset: 0x54E7A, size: 0x8, addend: 0x0, symName: __RNvYINtNtCs6IAuOt8vWmF_3syn10punctuated11PrivateIterNtNtB7_4path15GenericArgumentNtNtB7_5token5CommaENtNtNtNtCsfvfooZQ3Axs_4core4iter6traits8iterator8Iterator10advance_byCscP4KCwp5Z66_14zerovec_derive, symObjAddr: 0x361C, symBinAddr: 0x277F4, symSize: 0x134 }
  - { offset: 0x54FD0, size: 0x8, addend: 0x0, symName: __RNvYINtNtCs6IAuOt8vWmF_3syn10punctuated11PrivateIterNtNtB7_4path15GenericArgumentNtNtB7_5token5CommaENtNtNtNtCsfvfooZQ3Axs_4core4iter6traits8iterator8Iterator3nthCscP4KCwp5Z66_14zerovec_derive, symObjAddr: 0x3750, symBinAddr: 0x27928, symSize: 0x80 }
  - { offset: 0x5509C, size: 0x8, addend: 0x0, symName: __RNvYINtNtCs6IAuOt8vWmF_3syn10punctuated11PrivateIterNtNtB7_4path15GenericArgumentNtNtB7_5token5CommaENtNtNtNtCsfvfooZQ3Axs_4core4iter6traits8iterator8Iterator9size_hintCscP4KCwp5Z66_14zerovec_derive, symObjAddr: 0x37D0, symBinAddr: 0x279A8, symSize: 0x34 }
  - { offset: 0x550D1, size: 0x8, addend: 0x0, symName: __RNvYINtNtCs6IAuOt8vWmF_3syn10punctuated4IterNtNtB7_4data5FieldENtNtNtNtCsfvfooZQ3Axs_4core4iter6traits8iterator8Iterator4takeCscP4KCwp5Z66_14zerovec_derive, symObjAddr: 0x3804, symBinAddr: 0x279DC, symSize: 0x2C }
  - { offset: 0x5512C, size: 0x8, addend: 0x0, symName: __RNvYINtNtCs6IAuOt8vWmF_3syn10punctuated4IterNtNtB7_4data5FieldENtNtNtNtCsfvfooZQ3Axs_4core4iter6traits8iterator8Iterator9enumerateCscP4KCwp5Z66_14zerovec_derive, symObjAddr: 0x3830, symBinAddr: 0x27A08, symSize: 0x28 }
  - { offset: 0x55178, size: 0x8, addend: 0x0, symName: __RNvYINtNtCs6IAuOt8vWmF_3syn10punctuated4IterNtNtB7_4data7VariantENtNtNtNtCsfvfooZQ3Axs_4core4iter6traits8iterator8Iterator9enumerateCscP4KCwp5Z66_14zerovec_derive, symObjAddr: 0x3858, symBinAddr: 0x27A30, symSize: 0x28 }
  - { offset: 0x551C4, size: 0x8, addend: 0x0, symName: __RNvYINtNtCs6IAuOt8vWmF_3syn10punctuated4IterNtNtB7_4path11PathSegmentENtNtNtNtCsfvfooZQ3Axs_4core4iter6traits8iterator8Iterator10advance_byCscP4KCwp5Z66_14zerovec_derive, symObjAddr: 0x3880, symBinAddr: 0x27A58, symSize: 0x134 }
  - { offset: 0x5531A, size: 0x8, addend: 0x0, symName: __RNvYINtNtCs6IAuOt8vWmF_3syn10punctuated4IterNtNtB7_4path11PathSegmentENtNtNtNtCsfvfooZQ3Axs_4core4iter6traits8iterator8Iterator3nthCscP4KCwp5Z66_14zerovec_derive, symObjAddr: 0x39B4, symBinAddr: 0x27B8C, symSize: 0x80 }
  - { offset: 0x553F2, size: 0x8, addend: 0x0, symName: __RNvXNtNtNtCsfvfooZQ3Axs_4core4iter6traits7collectINtNtCs6IAuOt8vWmF_3syn10punctuated4IterNtCs3cP53eQoTwO_11proc_macro25IdentENtB2_12IntoIterator9into_iterCscP4KCwp5Z66_14zerovec_derive, symObjAddr: 0x1DEC, symBinAddr: 0x25FC4, symSize: 0x1C }
  - { offset: 0x55429, size: 0x8, addend: 0x0, symName: __RNvXNtNtNtCsfvfooZQ3Axs_4core4iter6traits7collectINtNtCs6IAuOt8vWmF_3syn10punctuated7IterMutNtNtBQ_4data5FieldENtB2_12IntoIterator9into_iterCscP4KCwp5Z66_14zerovec_derive, symObjAddr: 0x1E08, symBinAddr: 0x25FE0, symSize: 0x1C }
  - { offset: 0x55460, size: 0x8, addend: 0x0, symName: __RNvXNtNtNtCsfvfooZQ3Axs_4core4iter6traits7collectINtNtNtB6_8adapters6cloned6ClonedINtNtCs6IAuOt8vWmF_3syn10punctuated4IterNtCs3cP53eQoTwO_11proc_macro25IdentEENtB2_12IntoIterator9into_iterCscP4KCwp5Z66_14zerovec_derive, symObjAddr: 0x1E24, symBinAddr: 0x25FFC, symSize: 0x1C }
  - { offset: 0x55497, size: 0x8, addend: 0x0, symName: __RNvXNtNtNtCsfvfooZQ3Axs_4core4iter6traits7collectINtNtNtB6_8adapters6filter6FilterINtNtNtB8_5slice4iter4IterNtNtCs6IAuOt8vWmF_3syn4attr9AttributeENCNvMNtCscP4KCwp5Z66_14zerovec_derive5utilsNtB2p_8ReprInfo7compute0ENtB2_12IntoIterator9into_iterB2r_, symObjAddr: 0x1E40, symBinAddr: 0x26018, symSize: 0x1C }
  - { offset: 0x554DA, size: 0x8, addend: 0x0, symName: __RNvYINtNtCs6IAuOt8vWmF_3syn10punctuated11PrivateIterNtCs3cP53eQoTwO_11proc_macro25IdentNtNtB7_5token5CommaENtNtNtNtCsfvfooZQ3Axs_4core4iter6traits10exact_size17ExactSizeIterator8is_emptyCscP4KCwp5Z66_14zerovec_derive, symObjAddr: 0x2CF4, symBinAddr: 0x26ECC, symSize: 0x2C }
  - { offset: 0x5550F, size: 0x8, addend: 0x0, symName: __RNvYINtNtCs6IAuOt8vWmF_3syn10punctuated11PrivateIterNtNtB7_4data7VariantNtNtB7_5token5CommaENtNtNtNtCsfvfooZQ3Axs_4core4iter6traits10exact_size17ExactSizeIterator8is_emptyCscP4KCwp5Z66_14zerovec_derive, symObjAddr: 0x30A4, symBinAddr: 0x2727C, symSize: 0x2C }
  - { offset: 0x55544, size: 0x8, addend: 0x0, symName: __RNvYINtNtCs6IAuOt8vWmF_3syn10punctuated11PrivateIterNtNtB7_4path15GenericArgumentNtNtB7_5token5CommaENtNtNtNtCsfvfooZQ3Axs_4core4iter6traits10exact_size17ExactSizeIterator8is_emptyCscP4KCwp5Z66_14zerovec_derive, symObjAddr: 0x3454, symBinAddr: 0x2762C, symSize: 0x2C }
  - { offset: 0x55585, size: 0x8, addend: 0x0, symName: __RNvYINtNtCs6IAuOt8vWmF_3syn10punctuated11PrivateIterNtCs3cP53eQoTwO_11proc_macro25IdentNtNtB7_5token5CommaENtNtNtNtCsfvfooZQ3Axs_4core4iter6traits12double_ended19DoubleEndedIterator15advance_back_byCscP4KCwp5Z66_14zerovec_derive, symObjAddr: 0x2D20, symBinAddr: 0x26EF8, symSize: 0x134 }
  - { offset: 0x556D3, size: 0x8, addend: 0x0, symName: __RNvYINtNtCs6IAuOt8vWmF_3syn10punctuated11PrivateIterNtCs3cP53eQoTwO_11proc_macro25IdentNtNtB7_5token5CommaENtNtNtNtCsfvfooZQ3Axs_4core4iter6traits12double_ended19DoubleEndedIterator8nth_backCscP4KCwp5Z66_14zerovec_derive, symObjAddr: 0x2E54, symBinAddr: 0x2702C, symSize: 0x68 }
  - { offset: 0x55751, size: 0x8, addend: 0x0, symName: __RNvYINtNtCs6IAuOt8vWmF_3syn10punctuated11PrivateIterNtNtB7_4data7VariantNtNtB7_5token5CommaENtNtNtNtCsfvfooZQ3Axs_4core4iter6traits12double_ended19DoubleEndedIterator15advance_back_byCscP4KCwp5Z66_14zerovec_derive, symObjAddr: 0x30D0, symBinAddr: 0x272A8, symSize: 0x134 }
  - { offset: 0x5589F, size: 0x8, addend: 0x0, symName: __RNvYINtNtCs6IAuOt8vWmF_3syn10punctuated11PrivateIterNtNtB7_4data7VariantNtNtB7_5token5CommaENtNtNtNtCsfvfooZQ3Axs_4core4iter6traits12double_ended19DoubleEndedIterator8nth_backCscP4KCwp5Z66_14zerovec_derive, symObjAddr: 0x3204, symBinAddr: 0x273DC, symSize: 0x68 }
  - { offset: 0x5591D, size: 0x8, addend: 0x0, symName: __RNvYINtNtCs6IAuOt8vWmF_3syn10punctuated11PrivateIterNtNtB7_4path15GenericArgumentNtNtB7_5token5CommaENtNtNtNtCsfvfooZQ3Axs_4core4iter6traits12double_ended19DoubleEndedIterator15advance_back_byCscP4KCwp5Z66_14zerovec_derive, symObjAddr: 0x3480, symBinAddr: 0x27658, symSize: 0x134 }
  - { offset: 0x55A6B, size: 0x8, addend: 0x0, symName: __RNvYINtNtCs6IAuOt8vWmF_3syn10punctuated11PrivateIterNtNtB7_4path15GenericArgumentNtNtB7_5token5CommaENtNtNtNtCsfvfooZQ3Axs_4core4iter6traits12double_ended19DoubleEndedIterator8nth_backCscP4KCwp5Z66_14zerovec_derive, symObjAddr: 0x35B4, symBinAddr: 0x2778C, symSize: 0x68 }
  - { offset: 0x55AFB, size: 0x8, addend: 0x0, symName: __RNvXs1_NtNtNtCsfvfooZQ3Axs_4core4iter8adapters6filterINtB5_6FilterINtNtNtBb_5slice4iter4IterNtNtCs6IAuOt8vWmF_3syn4attr9AttributeENCNvMNtCscP4KCwp5Z66_14zerovec_derive5utilsNtB29_8ReprInfo7compute0ENtNtNtB9_6traits8iterator8Iterator4nextB2b_, symObjAddr: 0x1EB4, symBinAddr: 0x2608C, symSize: 0x2C }
  - { offset: 0x55B78, size: 0x8, addend: 0x0, symName: __RNvXs_NtNtNtCsfvfooZQ3Axs_4core4iter8adapters6clonedINtB4_6ClonedINtNtCs6IAuOt8vWmF_3syn10punctuated4IterNtCs3cP53eQoTwO_11proc_macro25IdentEENtNtNtB8_6traits8iterator8Iterator4nextCscP4KCwp5Z66_14zerovec_derive, symObjAddr: 0x21D8, symBinAddr: 0x263B0, symSize: 0x78 }
  - { offset: 0x55BE9, size: 0x8, addend: 0x0, symName: __RNvXs_NtNtNtCsfvfooZQ3Axs_4core4iter8adapters6clonedINtB4_6ClonedINtNtCs6IAuOt8vWmF_3syn10punctuated4IterNtCs3cP53eQoTwO_11proc_macro25IdentEENtNtNtB8_6traits8iterator8Iterator9size_hintCscP4KCwp5Z66_14zerovec_derive, symObjAddr: 0x2250, symBinAddr: 0x26428, symSize: 0x24 }
  - { offset: 0x56BBE, size: 0x8, addend: 0x0, symName: __RNvNtCse1nGBsou5OW_5alloc5alloc12alloc_zeroedCscP4KCwp5Z66_14zerovec_derive, symObjAddr: 0x1560, symBinAddr: 0x25A38, symSize: 0x84 }
  - { offset: 0x56C82, size: 0x8, addend: 0x0, symName: __RNvXs_NtCse1nGBsou5OW_5alloc5allocNtB4_6GlobalNtNtCsfvfooZQ3Axs_4core5alloc9Allocator10deallocateCscP4KCwp5Z66_14zerovec_derive, symObjAddr: 0x211C, symBinAddr: 0x262F4, symSize: 0x88 }
  - { offset: 0x56D5D, size: 0x8, addend: 0x0, symName: __RNvXs_NtCse1nGBsou5OW_5alloc5allocNtB4_6GlobalNtNtCsfvfooZQ3Axs_4core5alloc9Allocator8allocateCscP4KCwp5Z66_14zerovec_derive, symObjAddr: 0x21A4, symBinAddr: 0x2637C, symSize: 0x34 }
  - { offset: 0x56D98, size: 0x8, addend: 0x0, symName: __RNvNtCse1nGBsou5OW_5alloc5alloc15exchange_mallocCscP4KCwp5Z66_14zerovec_derive, symObjAddr: 0x15E4, symBinAddr: 0x25ABC, symSize: 0xA4 }
  - { offset: 0x56E2F, size: 0x8, addend: 0x0, symName: __RNvNtCse1nGBsou5OW_5alloc5alloc5allocCscP4KCwp5Z66_14zerovec_derive, symObjAddr: 0x1688, symBinAddr: 0x25B60, symSize: 0x84 }
  - { offset: 0x56ECB, size: 0x8, addend: 0x0, symName: __RNvXs2_NtCse1nGBsou5OW_5alloc5allocNtB5_6GlobalNtNtCsfvfooZQ3Axs_4core7default7Default7defaultCscP4KCwp5Z66_14zerovec_derive, symObjAddr: 0x1EE0, symBinAddr: 0x260B8, symSize: 0x4 }
  - { offset: 0x582CD, size: 0x8, addend: 0x0, symName: __RNvXs1_NtCsloNvcHxBCre_9hashbrown10scopeguardINtB5_10ScopeGuardNtNtB7_3raw13RawTableInnerNCINvMsa_B11_BZ_14prepare_resizeNtNtCse1nGBsou5OW_5alloc5alloc6GlobalE0ENtNtNtCsfvfooZQ3Axs_4core3ops4drop4Drop4dropCscP4KCwp5Z66_14zerovec_derive, symObjAddr: 0x1E5C, symBinAddr: 0x26034, symSize: 0x2C }
  - { offset: 0x58307, size: 0x8, addend: 0x0, symName: __RNvXs1_NtCsloNvcHxBCre_9hashbrown10scopeguardINtB5_10ScopeGuardQNtNtB7_3raw13RawTableInnerNCNvMsa_B12_B10_15rehash_in_place0ENtNtNtCsfvfooZQ3Axs_4core3ops4drop4Drop4dropCscP4KCwp5Z66_14zerovec_derive, symObjAddr: 0x1E88, symBinAddr: 0x26060, symSize: 0x2C }
  - { offset: 0x58409, size: 0x8, addend: 0x0, symName: __RNvMNtCs6IAuOt8vWmF_3syn10punctuatedINtB2_10PunctuatedNtCs3cP53eQoTwO_11proc_macro25IdentNtNtB4_5token5CommaE10push_punctCscP4KCwp5Z66_14zerovec_derive, symObjAddr: 0x764, symBinAddr: 0x24C3C, symSize: 0x1F0 }
  - { offset: 0x58486, size: 0x8, addend: 0x0, symName: __RNvMNtCs6IAuOt8vWmF_3syn10punctuatedINtB2_10PunctuatedNtCs3cP53eQoTwO_11proc_macro25IdentNtNtB4_5token5CommaE10push_valueCscP4KCwp5Z66_14zerovec_derive, symObjAddr: 0x954, symBinAddr: 0x24E2C, symSize: 0x1A4 }
  - { offset: 0x584F4, size: 0x8, addend: 0x0, symName: __RNvMNtCs6IAuOt8vWmF_3syn10punctuatedINtB2_10PunctuatedNtCs3cP53eQoTwO_11proc_macro25IdentNtNtB4_5token5CommaE17empty_or_trailingCscP4KCwp5Z66_14zerovec_derive, symObjAddr: 0xAF8, symBinAddr: 0x24FD0, symSize: 0x34 }
  - { offset: 0x5859C, size: 0x8, addend: 0x0, symName: __RNvMNtCs6IAuOt8vWmF_3syn10punctuatedINtB2_10PunctuatedNtCs3cP53eQoTwO_11proc_macro25IdentNtNtB4_5token5CommaE21parse_terminated_withCscP4KCwp5Z66_14zerovec_derive, symObjAddr: 0xB2C, symBinAddr: 0x25004, symSize: 0x33C }
  - { offset: 0x586A1, size: 0x8, addend: 0x0, symName: __RNvMNtCs6IAuOt8vWmF_3syn10punctuatedINtB2_10PunctuatedNtCs3cP53eQoTwO_11proc_macro25IdentNtNtB4_5token5CommaE3newCscP4KCwp5Z66_14zerovec_derive, symObjAddr: 0xE68, symBinAddr: 0x25340, symSize: 0x54 }
  - { offset: 0x5871C, size: 0x8, addend: 0x0, symName: __RNvMNtCs6IAuOt8vWmF_3syn10punctuatedINtB2_10PunctuatedNtCs3cP53eQoTwO_11proc_macro25IdentNtNtB4_5token5CommaE4iterCscP4KCwp5Z66_14zerovec_derive, symObjAddr: 0xEBC, symBinAddr: 0x25394, symSize: 0xC8 }
  - { offset: 0x587B5, size: 0x8, addend: 0x0, symName: __RNvMNtCs6IAuOt8vWmF_3syn10punctuatedINtB2_10PunctuatedNtNtB4_4data7VariantNtNtB4_5token5CommaE4iterCscP4KCwp5Z66_14zerovec_derive, symObjAddr: 0xF84, symBinAddr: 0x2545C, symSize: 0xC8 }
  - { offset: 0x58806, size: 0x8, addend: 0x0, symName: __RNvMNtCs6IAuOt8vWmF_3syn10punctuatedINtB2_10PunctuatedNtNtB4_4data7VariantNtNtB4_5token5CommaE8is_emptyCscP4KCwp5Z66_14zerovec_derive, symObjAddr: 0x104C, symBinAddr: 0x25524, symSize: 0x74 }
  - { offset: 0x58882, size: 0x8, addend: 0x0, symName: __RNvMNtCs6IAuOt8vWmF_3syn10punctuatedINtB2_10PunctuatedNtNtB4_4path15GenericArgumentNtNtB4_5token5CommaE4iterCscP4KCwp5Z66_14zerovec_derive, symObjAddr: 0x10C0, symBinAddr: 0x25598, symSize: 0xC8 }
  - { offset: 0x58A41, size: 0x8, addend: 0x0, symName: __RNvMNtCse1nGBsou5OW_5alloc5allocNtB2_6Global10alloc_implCscP4KCwp5Z66_14zerovec_derive, symObjAddr: 0x1188, symBinAddr: 0x25660, symSize: 0x194 }
  - { offset: 0x58D84, size: 0x8, addend: 0x0, symName: __RNvMs1_NtNtCsfvfooZQ3Axs_4core3ptr8non_nullINtB5_7NonNullNtCs3cP53eQoTwO_11proc_macro25IdentE7sub_ptrCscP4KCwp5Z66_14zerovec_derive, symObjAddr: 0x131C, symBinAddr: 0x257F4, symSize: 0x74 }
  - { offset: 0x58EE3, size: 0x8, addend: 0x0, symName: __RNvMs1_NtNtCsfvfooZQ3Axs_4core3ptr8non_nullINtB5_7NonNullNtNtCscP4KCwp5Z66_14zerovec_derive5utils9FieldInfoE7sub_ptrBX_, symObjAddr: 0x1390, symBinAddr: 0x25868, symSize: 0x74 }
  - { offset: 0x58FDC, size: 0x8, addend: 0x0, symName: __RNvMs1_NtNtCsfvfooZQ3Axs_4core3ptr8non_nullINtB5_7NonNullTNtCs3cP53eQoTwO_11proc_macro25IdentNtNtCs6IAuOt8vWmF_3syn5token5CommaEE7sub_ptrCscP4KCwp5Z66_14zerovec_derive, symObjAddr: 0x1404, symBinAddr: 0x258DC, symSize: 0x74 }
  - { offset: 0x590D5, size: 0x8, addend: 0x0, symName: __RNvMs1_NtNtCsfvfooZQ3Axs_4core3ptr8non_nullINtB5_7NonNullTNtNtCs6IAuOt8vWmF_3syn4data7VariantNtNtBY_5token5CommaEE7sub_ptrCscP4KCwp5Z66_14zerovec_derive, symObjAddr: 0x1478, symBinAddr: 0x25950, symSize: 0x74 }
  - { offset: 0x591CE, size: 0x8, addend: 0x0, symName: __RNvMs1_NtNtCsfvfooZQ3Axs_4core3ptr8non_nullINtB5_7NonNullTNtNtCs6IAuOt8vWmF_3syn4path15GenericArgumentNtNtBY_5token5CommaEE7sub_ptrCscP4KCwp5Z66_14zerovec_derive, symObjAddr: 0x14EC, symBinAddr: 0x259C4, symSize: 0x74 }
  - { offset: 0x59468, size: 0x8, addend: 0x0, symName: __RNvXNtCs2cqEZUIJimJ_5quote9to_tokensRRNtNtCs6IAuOt8vWmF_3syn8lifetime8LifetimeNtB2_8ToTokens9to_tokensCscP4KCwp5Z66_14zerovec_derive, symObjAddr: 0x1DAC, symBinAddr: 0x25F84, symSize: 0x40 }
  - { offset: 0x59DBA, size: 0x8, addend: 0x0, symName: __RINvCs6IAuOt8vWmF_3syn5parseNtCs3cP53eQoTwO_11proc_macro25IdentECscP4KCwp5Z66_14zerovec_derive, symObjAddr: 0x0, symBinAddr: 0x27C0C, symSize: 0x30 }
  - { offset: 0x5EE38, size: 0x8, addend: 0x0, symName: __RINvCs6IAuOt8vWmF_3syn5parseNtCs3cP53eQoTwO_11proc_macro25IdentECscP4KCwp5Z66_14zerovec_derive, symObjAddr: 0x0, symBinAddr: 0x27C0C, symSize: 0x30 }
  - { offset: 0x5EE6F, size: 0x8, addend: 0x0, symName: __RINvCs6IAuOt8vWmF_3syn5parseNtNtB2_6derive11DeriveInputECscP4KCwp5Z66_14zerovec_derive, symObjAddr: 0x30, symBinAddr: 0x27C3C, symSize: 0x30 }
  - { offset: 0x5EEA6, size: 0x8, addend: 0x0, symName: __RINvCs6IAuOt8vWmF_3syn6parse2NtNtB2_3lit3LitECscP4KCwp5Z66_14zerovec_derive, symObjAddr: 0x60, symBinAddr: 0x27C6C, symSize: 0x24 }
  - { offset: 0x5F183, size: 0x8, addend: 0x0, symName: __RNvXNtCs6IAuOt8vWmF_3syn7spannedNtCs3cP53eQoTwO_11proc_macro211TokenStreamNtB2_7Spanned4spanCscP4KCwp5Z66_14zerovec_derive, symObjAddr: 0x2268, symBinAddr: 0x29E74, symSize: 0x34 }
  - { offset: 0x5F1B8, size: 0x8, addend: 0x0, symName: __RNvXNtCs6IAuOt8vWmF_3syn7spannedNtNtB4_4attr9AttributeNtB2_7Spanned4spanCscP4KCwp5Z66_14zerovec_derive, symObjAddr: 0x229C, symBinAddr: 0x29EA8, symSize: 0x34 }
  - { offset: 0x5F856, size: 0x8, addend: 0x0, symName: __RNvXsG_Cs3cP53eQoTwO_11proc_macro2NtB5_11TokenStreamNtNtCsfvfooZQ3Axs_4core5clone5Clone5cloneCscP4KCwp5Z66_14zerovec_derive, symObjAddr: 0x30CC, symBinAddr: 0x2ACD8, symSize: 0x78 }
  - { offset: 0x5F888, size: 0x8, addend: 0x0, symName: __RNvXsY_Cs3cP53eQoTwO_11proc_macro2NtB5_5IdentNtNtCsfvfooZQ3Axs_4core5clone5Clone5cloneCscP4KCwp5Z66_14zerovec_derive, symObjAddr: 0x3378, symBinAddr: 0x2AF84, symSize: 0x78 }
  - { offset: 0x5FE20, size: 0x8, addend: 0x0, symName: __RNvXsV_NtCs9i5KxIbZ5ph_10proc_macro6bridgeINtNtCsfvfooZQ3Axs_4core6result6ResultINtNtBJ_6option6OptionNtNtB5_6client11TokenStreamEuEINtNtB5_3rpc6EncodeuE6encodeCscP4KCwp5Z66_14zerovec_derive, symObjAddr: 0x3144, symBinAddr: 0x2AD50, symSize: 0x108 }
  - { offset: 0x5FEE4, size: 0x8, addend: 0x0, symName: __RNvXsV_NtCs9i5KxIbZ5ph_10proc_macro6bridgeINtNtCsfvfooZQ3Axs_4core6result6ResultuNtNtB5_3rpc12PanicMessageEINtB1j_6EncodeuE6encodeCscP4KCwp5Z66_14zerovec_derive, symObjAddr: 0x324C, symBinAddr: 0x2AE58, symSize: 0x12C }
  - { offset: 0x638EB, size: 0x8, addend: 0x0, symName: __RNvXs1c_NtCsfvfooZQ3Axs_4core3fmtRNtCs3cP53eQoTwO_11proc_macro211TokenStreamNtB6_7Display3fmtCscP4KCwp5Z66_14zerovec_derive, symObjAddr: 0x2760, symBinAddr: 0x2A36C, symSize: 0x30 }
  - { offset: 0x63EEA, size: 0x8, addend: 0x0, symName: __RNvXso_NtCsfvfooZQ3Axs_4core6resultINtB5_6ResultINtNtB7_6option6OptionNtCs3cP53eQoTwO_11proc_macro211TokenStreamENtNtCs6IAuOt8vWmF_3syn5error5ErrorENtNtNtB7_3ops9try_trait3Try6branchCscP4KCwp5Z66_14zerovec_derive, symObjAddr: 0x3BB4, symBinAddr: 0x2B7C0, symSize: 0xA8 }
  - { offset: 0x63F67, size: 0x8, addend: 0x0, symName: __RNvXso_NtCsfvfooZQ3Axs_4core6resultINtB5_6ResultINtNtCs6IAuOt8vWmF_3syn10punctuated10PunctuatedNtCs3cP53eQoTwO_11proc_macro25IdentNtNtBP_5token5CommaENtNtBP_5error5ErrorENtNtNtB7_3ops9try_trait3Try6branchCscP4KCwp5Z66_14zerovec_derive, symObjAddr: 0x3C5C, symBinAddr: 0x2B868, symSize: 0xA0 }
  - { offset: 0x63FE4, size: 0x8, addend: 0x0, symName: __RNvXso_NtCsfvfooZQ3Axs_4core6resultINtB5_6ResultINtNtCse1nGBsou5OW_5alloc3vec3VecNtCs3cP53eQoTwO_11proc_macro25IdentENtNtCs6IAuOt8vWmF_3syn5error5ErrorENtNtNtB7_3ops9try_trait3Try6branchCscP4KCwp5Z66_14zerovec_derive, symObjAddr: 0x3CFC, symBinAddr: 0x2B908, symSize: 0x94 }
  - { offset: 0x64061, size: 0x8, addend: 0x0, symName: __RNvXso_NtCsfvfooZQ3Axs_4core6resultINtB5_6ResultNtNtCs6IAuOt8vWmF_3syn6derive11DeriveInputNtNtBO_5error5ErrorENtNtNtB7_3ops9try_trait3Try6branchCscP4KCwp5Z66_14zerovec_derive, symObjAddr: 0x3D90, symBinAddr: 0x2B99C, symSize: 0xB4 }
  - { offset: 0x640DF, size: 0x8, addend: 0x0, symName: __RNvXso_NtCsfvfooZQ3Axs_4core6resultINtB5_6ResultNtNtCscP4KCwp5Z66_14zerovec_derive11make_varule16UnsizedFieldKindNtNtCse1nGBsou5OW_5alloc6string6StringENtNtNtB7_3ops9try_trait3Try6branchBO_, symObjAddr: 0x3E44, symBinAddr: 0x2BA50, symSize: 0x9C }
  - { offset: 0x6415C, size: 0x8, addend: 0x0, symName: __RNvXso_NtCsfvfooZQ3Axs_4core6resultINtB5_6ResultNtNtCscP4KCwp5Z66_14zerovec_derive5utils18IdentListAttributeNtNtCs6IAuOt8vWmF_3syn5error5ErrorENtNtNtB7_3ops9try_trait3Try6branchBO_, symObjAddr: 0x3EE0, symBinAddr: 0x2BAEC, symSize: 0xA0 }
  - { offset: 0x641DF, size: 0x8, addend: 0x0, symName: __RNvXsp_NtCsfvfooZQ3Axs_4core6resultINtB5_6ResultINtNtCs6IAuOt8vWmF_3syn10punctuated10PunctuatedNtCs3cP53eQoTwO_11proc_macro25IdentNtNtBP_5token5CommaENtNtBP_5error5ErrorEINtNtNtB7_3ops9try_trait12FromResidualIBy_NtNtB7_7convert10InfallibleB2o_EE13from_residualCscP4KCwp5Z66_14zerovec_derive, symObjAddr: 0x3F80, symBinAddr: 0x2BB8C, symSize: 0x48 }
  - { offset: 0x64264, size: 0x8, addend: 0x0, symName: __RNvXsp_NtCsfvfooZQ3Axs_4core6resultINtB5_6ResultNtNtCscP4KCwp5Z66_14zerovec_derive11make_varule12UnsizedFieldNtNtCse1nGBsou5OW_5alloc6string6StringEINtNtNtB7_3ops9try_trait12FromResidualIBy_NtNtB7_7convert10InfallibleB1J_EE13from_residualBO_, symObjAddr: 0x3FC8, symBinAddr: 0x2BBD4, symSize: 0x48 }
  - { offset: 0x642E9, size: 0x8, addend: 0x0, symName: __RNvXsp_NtCsfvfooZQ3Axs_4core6resultINtB5_6ResultNtNtCscP4KCwp5Z66_14zerovec_derive5utils12ZeroVecAttrsNtNtCs6IAuOt8vWmF_3syn5error5ErrorEINtNtNtB7_3ops9try_trait12FromResidualIBy_NtNtB7_7convert10InfallibleB1C_EE13from_residualBO_, symObjAddr: 0x4010, symBinAddr: 0x2BC1C, symSize: 0x4C }
  - { offset: 0x6436E, size: 0x8, addend: 0x0, symName: __RNvXsp_NtCsfvfooZQ3Axs_4core6resultINtB5_6ResultNtNtCscP4KCwp5Z66_14zerovec_derive5utils18IdentListAttributeNtNtCs6IAuOt8vWmF_3syn5error5ErrorEINtNtNtB7_3ops9try_trait12FromResidualIBy_NtNtB7_7convert10InfallibleB1I_EE13from_residualBO_, symObjAddr: 0x405C, symBinAddr: 0x2BC68, symSize: 0x48 }
  - { offset: 0x649B4, size: 0x8, addend: 0x0, symName: __RNvXsn_NtNtCsfvfooZQ3Axs_4core5panic11unwind_safeINtB5_16AssertUnwindSafeNCINvNtNtCs9i5KxIbZ5ph_10proc_macro6bridge6client10run_clientNtB1e_11TokenStreamINtNtB9_6option6OptionB28_ENCNCINvMs7_B1e_INtB1e_6ClientNtB1i_11TokenStreamB3l_E7expand1NvCscP4KCwp5Z66_14zerovec_derive10ule_deriveE00E0EINtNtNtB9_3ops8function6FnOnceuE9call_onceB3T_, symObjAddr: 0x3AD4, symBinAddr: 0x2B6E0, symSize: 0x38 }
  - { offset: 0x64A0C, size: 0x8, addend: 0x0, symName: __RNvXsn_NtNtCsfvfooZQ3Axs_4core5panic11unwind_safeINtB5_16AssertUnwindSafeNCINvNtNtCs9i5KxIbZ5ph_10proc_macro6bridge6client10run_clientNtB1e_11TokenStreamINtNtB9_6option6OptionB28_ENCNCINvMs7_B1e_INtB1e_6ClientNtB1i_11TokenStreamB3l_E7expand1NvCscP4KCwp5Z66_14zerovec_derive13varule_deriveE00E0EINtNtNtB9_3ops8function6FnOnceuE9call_onceB3T_, symObjAddr: 0x3B0C, symBinAddr: 0x2B718, symSize: 0x38 }
  - { offset: 0x64A64, size: 0x8, addend: 0x0, symName: __RNvXsn_NtNtCsfvfooZQ3Axs_4core5panic11unwind_safeINtB5_16AssertUnwindSafeNCINvNtNtCs9i5KxIbZ5ph_10proc_macro6bridge6client10run_clientTNtB1e_11TokenStreamB29_EINtNtB9_6option6OptionB29_ENCNCINvMs8_B1e_INtB1e_6ClientTNtB1i_11TokenStreamB3s_EB3s_E7expand2NvCscP4KCwp5Z66_14zerovec_derive11make_varuleE00E0EINtNtNtB9_3ops8function6FnOnceuE9call_onceB45_, symObjAddr: 0x3B44, symBinAddr: 0x2B750, symSize: 0x38 }
  - { offset: 0x64ABC, size: 0x8, addend: 0x0, symName: __RNvXsn_NtNtCsfvfooZQ3Axs_4core5panic11unwind_safeINtB5_16AssertUnwindSafeNCINvNtNtCs9i5KxIbZ5ph_10proc_macro6bridge6client10run_clientTNtB1e_11TokenStreamB29_EINtNtB9_6option6OptionB29_ENCNCINvMs8_B1e_INtB1e_6ClientTNtB1i_11TokenStreamB3s_EB3s_E7expand2NvCscP4KCwp5Z66_14zerovec_derive8make_uleE00E0EINtNtNtB9_3ops8function6FnOnceuE9call_onceB45_, symObjAddr: 0x3B7C, symBinAddr: 0x2B788, symSize: 0x38 }
  - { offset: 0x64BD2, size: 0x8, addend: 0x0, symName: __RINvMNtCsfvfooZQ3Axs_4core3stre5parseyECscP4KCwp5Z66_14zerovec_derive, symObjAddr: 0x79C, symBinAddr: 0x283A8, symSize: 0x28 }
  - { offset: 0x64C32, size: 0x8, addend: 0x0, symName: __RNvXs_NtNtCsfvfooZQ3Axs_4core3str6traitseNtNtB8_3cmp9PartialEq2eqCscP4KCwp5Z66_14zerovec_derive, symObjAddr: 0x33F0, symBinAddr: 0x2AFFC, symSize: 0x64 }
  - { offset: 0x64CF9, size: 0x8, addend: 0x0, symName: __RINvNtCsfvfooZQ3Axs_4core9panicking13panic_displayNtNtCs6IAuOt8vWmF_3syn5error5ErrorECscP4KCwp5Z66_14zerovec_derive, symObjAddr: 0xD5C, symBinAddr: 0x28968, symSize: 0x88 }
  - { offset: 0x64D9B, size: 0x8, addend: 0x0, symName: __RINvYINtNtNtNtCscOYdFFY2T5N_3std11collections4hash3set4IterhENtNtNtNtCsfvfooZQ3Axs_4core4iter6traits8iterator8Iterator7collectINtNtCse1nGBsou5OW_5alloc3vec3VecRhEECscP4KCwp5Z66_14zerovec_derive, symObjAddr: 0x1014, symBinAddr: 0x28C20, symSize: 0x1C }
  - { offset: 0x64DDC, size: 0x8, addend: 0x0, symName: __RINvYINtNtNtNtCsfvfooZQ3Axs_4core4iter8adapters9enumerate9EnumerateINtNtB8_4take4TakeINtNtCs6IAuOt8vWmF_3syn10punctuated4IterNtNtB1q_4data5FieldEEENtNtNtBa_6traits8iterator8Iterator3mapNtNtCscP4KCwp5Z66_14zerovec_derive5utils9FieldInfoNCINvMs0_B2Z_B2X_9make_listB13_E0EB31_, symObjAddr: 0x1030, symBinAddr: 0x28C3C, symSize: 0x1C }
  - { offset: 0x64E49, size: 0x8, addend: 0x0, symName: __RINvYINtNtNtNtCsfvfooZQ3Axs_4core4iter8adapters9enumerate9EnumerateINtNtCs6IAuOt8vWmF_3syn10punctuated4IterNtNtB18_4data5FieldEENtNtNtBa_6traits8iterator8Iterator3mapNtNtCscP4KCwp5Z66_14zerovec_derive5utils9FieldInfoNCINvMs0_B2G_B2E_9make_listB13_E0EB2I_, symObjAddr: 0x104C, symBinAddr: 0x28C58, symSize: 0x20 }
  - { offset: 0x64EB6, size: 0x8, addend: 0x0, symName: __RINvYINtNtNtNtCsfvfooZQ3Axs_4core4iter8adapters9enumerate9EnumerateINtNtNtBc_5slice4iter4IterNtNtCscP4KCwp5Z66_14zerovec_derive11make_varule12UnsizedFieldEENtNtNtBa_6traits8iterator8Iterator3mapNtCs3cP53eQoTwO_11proc_macro211TokenStreamNCNvMB1v_NtB1v_13UnsizedFields19maybe_multi_getters0EB1x_, symObjAddr: 0x106C, symBinAddr: 0x28C78, symSize: 0x28 }
  - { offset: 0x64F2F, size: 0x8, addend: 0x0, symName: __RNvXNtNtNtCsfvfooZQ3Axs_4core4iter6traits7collectINtNtNtB6_8adapters9enumerate9EnumerateINtNtCs6IAuOt8vWmF_3syn10punctuated4IterNtNtB1t_4data5FieldEENtB2_12IntoIterator9into_iterCscP4KCwp5Z66_14zerovec_derive, symObjAddr: 0x22E4, symBinAddr: 0x29EF0, symSize: 0x18 }
  - { offset: 0x64F66, size: 0x8, addend: 0x0, symName: __RNvXNtNtNtCsfvfooZQ3Axs_4core4iter6traits7collectINtNtNtB6_8adapters9enumerate9EnumerateINtNtCs6IAuOt8vWmF_3syn10punctuated4IterNtNtB1t_4data7VariantEENtB2_12IntoIterator9into_iterCscP4KCwp5Z66_14zerovec_derive, symObjAddr: 0x22FC, symBinAddr: 0x29F08, symSize: 0x18 }
  - { offset: 0x64F9D, size: 0x8, addend: 0x0, symName: __RNvXNtNtNtCsfvfooZQ3Axs_4core4iter6traits7collectINtNtNtB6_8adapters9enumerate9EnumerateINtNtNtB8_5slice4iter4IterNtNtCscP4KCwp5Z66_14zerovec_derive11make_varule12UnsizedFieldEENtB2_12IntoIterator9into_iterB1S_, symObjAddr: 0x2314, symBinAddr: 0x29F20, symSize: 0x18 }
  - { offset: 0x64FD4, size: 0x8, addend: 0x0, symName: __RNvXNtNtNtCsfvfooZQ3Axs_4core4iter6traits7collectINtNtNtB6_8adapters9enumerate9EnumerateINtNtNtB8_5slice4iter4IterNtNtCscP4KCwp5Z66_14zerovec_derive5utils9FieldInfoEENtB2_12IntoIterator9into_iterB1S_, symObjAddr: 0x232C, symBinAddr: 0x29F38, symSize: 0x18 }
  - { offset: 0x6500B, size: 0x8, addend: 0x0, symName: __RNvXNtNtNtCsfvfooZQ3Axs_4core4iter6traits7collectINtNtNtB8_3ops5range5RangehENtB2_12IntoIterator9into_iterCscP4KCwp5Z66_14zerovec_derive, symObjAddr: 0x2344, symBinAddr: 0x29F50, symSize: 0x14 }
  - { offset: 0x65042, size: 0x8, addend: 0x0, symName: __RNvXNtNtNtCsfvfooZQ3Axs_4core4iter6traits7collectINtNtNtNtCscOYdFFY2T5N_3std11collections4hash3set4IterhENtB2_12IntoIterator9into_iterCscP4KCwp5Z66_14zerovec_derive, symObjAddr: 0x2358, symBinAddr: 0x29F64, symSize: 0x30 }
  - { offset: 0x6522D, size: 0x8, addend: 0x0, symName: __RNvXs_NtNtNtCsfvfooZQ3Axs_4core4iter8adapters9enumerateINtB4_9EnumerateINtNtB6_4take4TakeINtNtCs6IAuOt8vWmF_3syn10punctuated4IterNtNtB1u_4data5FieldEEENtNtNtB8_6traits8iterator8Iterator4nextCscP4KCwp5Z66_14zerovec_derive, symObjAddr: 0x3454, symBinAddr: 0x2B060, symSize: 0xE0 }
  - { offset: 0x65307, size: 0x8, addend: 0x0, symName: __RNvXs_NtNtNtCsfvfooZQ3Axs_4core4iter8adapters9enumerateINtB4_9EnumerateINtNtB6_4take4TakeINtNtCs6IAuOt8vWmF_3syn10punctuated4IterNtNtB1u_4data5FieldEEENtNtNtB8_6traits8iterator8Iterator9size_hintCscP4KCwp5Z66_14zerovec_derive, symObjAddr: 0x3534, symBinAddr: 0x2B140, symSize: 0x24 }
  - { offset: 0x6533C, size: 0x8, addend: 0x0, symName: __RNvXs_NtNtNtCsfvfooZQ3Axs_4core4iter8adapters9enumerateINtB4_9EnumerateINtNtCs6IAuOt8vWmF_3syn10punctuated4IterNtNtB1c_4data5FieldEENtNtNtB8_6traits8iterator8Iterator4nextCscP4KCwp5Z66_14zerovec_derive, symObjAddr: 0x3558, symBinAddr: 0x2B164, symSize: 0xE0 }
  - { offset: 0x65416, size: 0x8, addend: 0x0, symName: __RNvXs_NtNtNtCsfvfooZQ3Axs_4core4iter8adapters9enumerateINtB4_9EnumerateINtNtCs6IAuOt8vWmF_3syn10punctuated4IterNtNtB1c_4data5FieldEENtNtNtB8_6traits8iterator8Iterator9size_hintCscP4KCwp5Z66_14zerovec_derive, symObjAddr: 0x3638, symBinAddr: 0x2B244, symSize: 0x24 }
  - { offset: 0x6544B, size: 0x8, addend: 0x0, symName: __RNvXs_NtNtNtCsfvfooZQ3Axs_4core4iter8adapters9enumerateINtB4_9EnumerateINtNtCs6IAuOt8vWmF_3syn10punctuated4IterNtNtB1c_4data7VariantEENtNtNtB8_6traits8iterator8Iterator4nextCscP4KCwp5Z66_14zerovec_derive, symObjAddr: 0x365C, symBinAddr: 0x2B268, symSize: 0xE0 }
  - { offset: 0x65525, size: 0x8, addend: 0x0, symName: __RNvXs_NtNtNtCsfvfooZQ3Axs_4core4iter8adapters9enumerateINtB4_9EnumerateINtNtNtBa_5slice4iter4IterNtNtCscP4KCwp5Z66_14zerovec_derive11make_varule12UnsizedFieldEENtNtNtB8_6traits8iterator8Iterator4nextB1B_, symObjAddr: 0x373C, symBinAddr: 0x2B348, symSize: 0xE0 }
  - { offset: 0x655FF, size: 0x8, addend: 0x0, symName: __RNvXs_NtNtNtCsfvfooZQ3Axs_4core4iter8adapters9enumerateINtB4_9EnumerateINtNtNtBa_5slice4iter4IterNtNtCscP4KCwp5Z66_14zerovec_derive5utils9FieldInfoEENtNtNtB8_6traits8iterator8Iterator4nextB1B_, symObjAddr: 0x381C, symBinAddr: 0x2B428, symSize: 0xE0 }
  - { offset: 0x65769, size: 0x8, addend: 0x0, symName: __RNvXsh_NtNtNtCsfvfooZQ3Axs_4core4iter8adapters7step_byINtNtNtBb_3ops5range5RangejEINtB5_14SpecRangeSetupBQ_E5setupCscP4KCwp5Z66_14zerovec_derive, symObjAddr: 0x38FC, symBinAddr: 0x2B508, symSize: 0x12C }
  - { offset: 0x65876, size: 0x8, addend: 0x0, symName: __RNvXs3_NtNtCsfvfooZQ3Axs_4core4iter5rangeINtNtNtB9_3ops5range5RangehENtB5_17RangeIteratorImpl9spec_nextCscP4KCwp5Z66_14zerovec_derive, symObjAddr: 0x2A98, symBinAddr: 0x2A6A4, symSize: 0x94 }
  - { offset: 0x658F7, size: 0x8, addend: 0x0, symName: __RNvXs4_NtNtCsfvfooZQ3Axs_4core4iter5rangeINtNtNtB9_3ops5range5RangehENtNtNtB7_6traits8iterator8Iterator4nextCscP4KCwp5Z66_14zerovec_derive, symObjAddr: 0x2B2C, symBinAddr: 0x2A738, symSize: 0x28 }
  - { offset: 0x65A88, size: 0x8, addend: 0x0, symName: __RNvMNtCsfvfooZQ3Axs_4core5sliceSNtCs3cP53eQoTwO_11proc_macro211TokenStream4iterCscP4KCwp5Z66_14zerovec_derive, symObjAddr: 0x10C8, symBinAddr: 0x28CD4, symSize: 0x28 }
  - { offset: 0x65ABF, size: 0x8, addend: 0x0, symName: __RNvMNtCsfvfooZQ3Axs_4core5sliceSNtCs3cP53eQoTwO_11proc_macro25Ident5firstCscP4KCwp5Z66_14zerovec_derive, symObjAddr: 0x10F0, symBinAddr: 0x28CFC, symSize: 0x44 }
  - { offset: 0x65B09, size: 0x8, addend: 0x0, symName: __RNvMNtCsfvfooZQ3Axs_4core5sliceSNtNtCs6IAuOt8vWmF_3syn4attr9Attribute5firstCscP4KCwp5Z66_14zerovec_derive, symObjAddr: 0x1134, symBinAddr: 0x28D40, symSize: 0x44 }
  - { offset: 0x65B53, size: 0x8, addend: 0x0, symName: __RNvMNtCsfvfooZQ3Axs_4core5sliceSTNtCs3cP53eQoTwO_11proc_macro25IdentNtNtCs6IAuOt8vWmF_3syn5token5CommaE4iterCscP4KCwp5Z66_14zerovec_derive, symObjAddr: 0x1178, symBinAddr: 0x28D84, symSize: 0x28 }
  - { offset: 0x65C54, size: 0x8, addend: 0x0, symName: __RNvNvXs0_NtNtCsfvfooZQ3Axs_4core5slice5indexjINtB7_10SliceIndexSpE13get_unchecked18precondition_checkCscP4KCwp5Z66_14zerovec_derive, symObjAddr: 0x21A8, symBinAddr: 0x29DB4, symSize: 0x40 }
  - { offset: 0x65C8B, size: 0x8, addend: 0x0, symName: __RNvXs0_NtNtCsfvfooZQ3Axs_4core5slice5indexjINtB5_10SliceIndexSINtNtB9_6option6OptionNtCs3cP53eQoTwO_11proc_macro25IdentEE5indexCscP4KCwp5Z66_14zerovec_derive, symObjAddr: 0x2410, symBinAddr: 0x2A01C, symSize: 0x64 }
  - { offset: 0x65CD1, size: 0x8, addend: 0x0, symName: __RNvXs0_NtNtCsfvfooZQ3Axs_4core5slice5indexjINtB5_10SliceIndexSNtCs3cP53eQoTwO_11proc_macro25IdentE5indexCscP4KCwp5Z66_14zerovec_derive, symObjAddr: 0x2474, symBinAddr: 0x2A080, symSize: 0x64 }
  - { offset: 0x65D17, size: 0x8, addend: 0x0, symName: __RNvXs0_NtNtCsfvfooZQ3Axs_4core5slice5indexjINtB5_10SliceIndexSNtNtCs6IAuOt8vWmF_3syn4attr9AttributeE5indexCscP4KCwp5Z66_14zerovec_derive, symObjAddr: 0x24D8, symBinAddr: 0x2A0E4, symSize: 0x5C }
  - { offset: 0x65D5D, size: 0x8, addend: 0x0, symName: __RNvXs0_NtNtCsfvfooZQ3Axs_4core5slice5indexjINtB5_10SliceIndexSNtNtCscP4KCwp5Z66_14zerovec_derive11make_varule12UnsizedFieldE5indexB12_, symObjAddr: 0x2534, symBinAddr: 0x2A140, symSize: 0x64 }
  - { offset: 0x65EE3, size: 0x8, addend: 0x0, symName: __RNvNtNtCsfvfooZQ3Axs_4core4hash3sip9u8to64_leCscP4KCwp5Z66_14zerovec_derive, symObjAddr: 0x17D0, symBinAddr: 0x293DC, symSize: 0x228 }
  - { offset: 0x660A0, size: 0x8, addend: 0x0, symName: __RNvXs3_NtNtCsfvfooZQ3Axs_4core4hash3sipINtB5_6HasherNtB5_11Sip13RoundsENtB7_6Hasher5writeCscP4KCwp5Z66_14zerovec_derive, symObjAddr: 0x27C8, symBinAddr: 0x2A3D4, symSize: 0x230 }
  - { offset: 0x66216, size: 0x8, addend: 0x0, symName: __RNvXs3_NtNtCsfvfooZQ3Axs_4core4hash3sipINtB5_6HasherNtB5_11Sip13RoundsENtB7_6Hasher6finishCscP4KCwp5Z66_14zerovec_derive, symObjAddr: 0x29F8, symBinAddr: 0x2A604, symSize: 0xA0 }
  - { offset: 0x6628F, size: 0x8, addend: 0x0, symName: __RNvXs6_NtNtCsfvfooZQ3Axs_4core4hash3sipNtB5_11Sip13RoundsNtB5_3Sip8c_roundsCscP4KCwp5Z66_14zerovec_derive, symObjAddr: 0x2B54, symBinAddr: 0x2A760, symSize: 0x170 }
  - { offset: 0x66405, size: 0x8, addend: 0x0, symName: __RNvXs6_NtNtCsfvfooZQ3Axs_4core4hash3sipNtB5_11Sip13RoundsNtB5_3Sip8d_roundsCscP4KCwp5Z66_14zerovec_derive, symObjAddr: 0x2CC4, symBinAddr: 0x2A8D0, symSize: 0x408 }
  - { offset: 0x6693D, size: 0x8, addend: 0x0, symName: __RNvNtNtNtNtCsfvfooZQ3Axs_4core9core_arch7aarch644neon9generated8vcgez_s8CscP4KCwp5Z66_14zerovec_derive, symObjAddr: 0x2000, symBinAddr: 0x29C0C, symSize: 0x68 }
  - { offset: 0x669DF, size: 0x8, addend: 0x0, symName: __RNvNtNtNtNtCsfvfooZQ3Axs_4core9core_arch7aarch644neon9generated8vcltz_s8CscP4KCwp5Z66_14zerovec_derive, symObjAddr: 0x2068, symBinAddr: 0x29C74, symSize: 0x68 }
  - { offset: 0x66AC5, size: 0x8, addend: 0x0, symName: __RNvNvNtCsfvfooZQ3Axs_4core9ub_checks23maybe_is_nonoverlapping7runtimeCscP4KCwp5Z66_14zerovec_derive, symObjAddr: 0x20D0, symBinAddr: 0x29CDC, symSize: 0xD8 }
  - { offset: 0x66C78, size: 0x8, addend: 0x0, symName: __RNvXNtCsfvfooZQ3Axs_4core6borrowhINtB2_6BorrowhE6borrowCscP4KCwp5Z66_14zerovec_derive, symObjAddr: 0x22D0, symBinAddr: 0x29EDC, symSize: 0x14 }
  - { offset: 0x66CB9, size: 0x8, addend: 0x0, symName: __RNvXs1_NtCsfvfooZQ3Axs_4core7convertReINtB5_4IntoNtNtCse1nGBsou5OW_5alloc6string6StringE4intoCscP4KCwp5Z66_14zerovec_derive, symObjAddr: 0x2700, symBinAddr: 0x2A30C, symSize: 0x28 }
  - { offset: 0x683C3, size: 0x8, addend: 0x0, symName: __RNvXs1_NtCse1nGBsou5OW_5alloc7raw_vecINtB5_6RawVecINtNtCsfvfooZQ3Axs_4core6option6OptionNtCs3cP53eQoTwO_11proc_macro25IdentEENtNtNtBR_3ops4drop4Drop4dropCscP4KCwp5Z66_14zerovec_derive, symObjAddr: 0x2598, symBinAddr: 0x2A1A4, symSize: 0x34 }
  - { offset: 0x683FF, size: 0x8, addend: 0x0, symName: __RNvXs1_NtCse1nGBsou5OW_5alloc7raw_vecINtB5_6RawVecNtCs3cP53eQoTwO_11proc_macro211TokenStreamENtNtNtCsfvfooZQ3Axs_4core3ops4drop4Drop4dropCscP4KCwp5Z66_14zerovec_derive, symObjAddr: 0x25CC, symBinAddr: 0x2A1D8, symSize: 0x34 }
  - { offset: 0x6843B, size: 0x8, addend: 0x0, symName: __RNvXs1_NtCse1nGBsou5OW_5alloc7raw_vecINtB5_6RawVecNtCs3cP53eQoTwO_11proc_macro25IdentENtNtNtCsfvfooZQ3Axs_4core3ops4drop4Drop4dropCscP4KCwp5Z66_14zerovec_derive, symObjAddr: 0x2600, symBinAddr: 0x2A20C, symSize: 0x34 }
  - { offset: 0x68477, size: 0x8, addend: 0x0, symName: __RNvXs1_NtCse1nGBsou5OW_5alloc7raw_vecINtB5_6RawVecNtNtCscP4KCwp5Z66_14zerovec_derive11make_varule12UnsizedFieldENtNtNtCsfvfooZQ3Axs_4core3ops4drop4Drop4dropBQ_, symObjAddr: 0x2634, symBinAddr: 0x2A240, symSize: 0x34 }
  - { offset: 0x684B3, size: 0x8, addend: 0x0, symName: __RNvXs1_NtCse1nGBsou5OW_5alloc7raw_vecINtB5_6RawVecNtNtCscP4KCwp5Z66_14zerovec_derive5utils9FieldInfoENtNtNtCsfvfooZQ3Axs_4core3ops4drop4Drop4dropBQ_, symObjAddr: 0x2668, symBinAddr: 0x2A274, symSize: 0x34 }
  - { offset: 0x684EF, size: 0x8, addend: 0x0, symName: __RNvXs1_NtCse1nGBsou5OW_5alloc7raw_vecINtB5_6RawVecRhENtNtNtCsfvfooZQ3Axs_4core3ops4drop4Drop4dropCscP4KCwp5Z66_14zerovec_derive, symObjAddr: 0x269C, symBinAddr: 0x2A2A8, symSize: 0x30 }
  - { offset: 0x6852B, size: 0x8, addend: 0x0, symName: __RNvXs1_NtCse1nGBsou5OW_5alloc7raw_vecINtB5_6RawVecTNtCs3cP53eQoTwO_11proc_macro25IdentNtNtCs6IAuOt8vWmF_3syn5token5CommaEENtNtNtCsfvfooZQ3Axs_4core3ops4drop4Drop4dropCscP4KCwp5Z66_14zerovec_derive, symObjAddr: 0x26CC, symBinAddr: 0x2A2D8, symSize: 0x34 }
  - { offset: 0x68D59, size: 0x8, addend: 0x0, symName: __RNCNvXs1_NtNtNtCscOYdFFY2T5N_3std2io5error14repr_bitpackedNtB7_4ReprNtNtNtCsfvfooZQ3Axs_4core3ops4drop4Drop4drop0CscP4KCwp5Z66_14zerovec_derive, symObjAddr: 0x1094, symBinAddr: 0x28CA0, symSize: 0x34 }
  - { offset: 0x68E0E, size: 0x8, addend: 0x0, symName: __RNvXs1_NtNtNtCscOYdFFY2T5N_3std2io5error14repr_bitpackedNtB5_4ReprNtNtNtCsfvfooZQ3Axs_4core3ops4drop4Drop4dropCscP4KCwp5Z66_14zerovec_derive, symObjAddr: 0x2728, symBinAddr: 0x2A334, symSize: 0x38 }
  - { offset: 0x68E37, size: 0x8, addend: 0x0, symName: __RINvNtNtNtCscOYdFFY2T5N_3std2io5error14repr_bitpacked11decode_reprINtNtCse1nGBsou5OW_5alloc5boxed3BoxNtB4_6CustomENCNvXs1_B2_NtB2_4ReprNtNtNtCsfvfooZQ3Axs_4core3ops4drop4Drop4drop0ECscP4KCwp5Z66_14zerovec_derive, symObjAddr: 0xDE4, symBinAddr: 0x289F0, symSize: 0x230 }
  - { offset: 0x690DC, size: 0x8, addend: 0x0, symName: __RNvNtNtNtCscOYdFFY2T5N_3std2io5error14repr_bitpacked14kind_from_primCscP4KCwp5Z66_14zerovec_derive, symObjAddr: 0x19F8, symBinAddr: 0x29604, symSize: 0x608 }
  - { offset: 0x69B54, size: 0x8, addend: 0x0, symName: __RNvXsj_NtNtNtCscOYdFFY2T5N_3std11collections4hash3setINtB5_4IterhENtNtNtNtCsfvfooZQ3Axs_4core4iter6traits8iterator8Iterator4nextCscP4KCwp5Z66_14zerovec_derive, symObjAddr: 0x3A28, symBinAddr: 0x2B634, symSize: 0x6C }
  - { offset: 0x69BDD, size: 0x8, addend: 0x0, symName: __RNvXsj_NtNtNtCscOYdFFY2T5N_3std11collections4hash3setINtB5_4IterhENtNtNtNtCsfvfooZQ3Axs_4core4iter6traits8iterator8Iterator9size_hintCscP4KCwp5Z66_14zerovec_derive, symObjAddr: 0x3A94, symBinAddr: 0x2B6A0, symSize: 0x40 }
  - { offset: 0x69C7D, size: 0x8, addend: 0x0, symName: __RINvMNtCs6IAuOt8vWmF_3syn4attrNtB3_9Attribute10parse_argsNtCs3cP53eQoTwO_11proc_macro211TokenStreamECscP4KCwp5Z66_14zerovec_derive, symObjAddr: 0x84, symBinAddr: 0x27C90, symSize: 0x34 }
  - { offset: 0x69CD3, size: 0x8, addend: 0x0, symName: __RINvMNtCs6IAuOt8vWmF_3syn4attrNtB3_9Attribute10parse_argsNtNtCscP4KCwp5Z66_14zerovec_derive5utils18IdentListAttributeEBX_, symObjAddr: 0xB8, symBinAddr: 0x27CC4, symSize: 0x34 }
  - { offset: 0x69DB4, size: 0x8, addend: 0x0, symName: __RINvMNtCs6IAuOt8vWmF_3syn4attrNtB3_9Attribute15parse_args_withNvYNtCs3cP53eQoTwO_11proc_macro211TokenStreamNtNtB5_5parse5Parse5parseECscP4KCwp5Z66_14zerovec_derive, symObjAddr: 0xEC, symBinAddr: 0x27CF8, symSize: 0x358 }
  - { offset: 0x69EA1, size: 0x8, addend: 0x0, symName: __RINvMNtCs6IAuOt8vWmF_3syn4attrNtB3_9Attribute15parse_args_withNvYNtNtCscP4KCwp5Z66_14zerovec_derive5utils18IdentListAttributeNtNtB5_5parse5Parse5parseEB15_, symObjAddr: 0x444, symBinAddr: 0x28050, symSize: 0x358 }
  - { offset: 0x69F8E, size: 0x8, addend: 0x0, symName: __RINvMNtCsfvfooZQ3Axs_4core6resultINtB3_6ResultNtNtCscP4KCwp5Z66_14zerovec_derive11make_varule8OwnULETyNtNtCse1nGBsou5OW_5alloc6string6StringE3mapNtBK_16UnsizedFieldKindNcNtB2j_10VarZeroCow0EBM_, symObjAddr: 0x7C4, symBinAddr: 0x283D0, symSize: 0x98 }
  - { offset: 0x6A021, size: 0x8, addend: 0x0, symName: __RINvMNtCsfvfooZQ3Axs_4core6resultINtB3_6ResultNtNtCscP4KCwp5Z66_14zerovec_derive11make_varule8OwnULETyNtNtCse1nGBsou5OW_5alloc6string6StringE3mapNtBK_16UnsizedFieldKindNcNtB2j_3Cow0EBM_, symObjAddr: 0x85C, symBinAddr: 0x28468, symSize: 0x98 }
  - { offset: 0x6A0B4, size: 0x8, addend: 0x0, symName: __RINvMNtCsfvfooZQ3Axs_4core6resultINtB3_6ResultNtNtCscP4KCwp5Z66_14zerovec_derive11make_varule8OwnULETyNtNtCse1nGBsou5OW_5alloc6string6StringE3mapNtBK_16UnsizedFieldKindNcNtB2j_3Ref0EBM_, symObjAddr: 0x8F4, symBinAddr: 0x28500, symSize: 0x98 }
  - { offset: 0x6A147, size: 0x8, addend: 0x0, symName: __RINvMNtCsfvfooZQ3Axs_4core6resultINtB3_6ResultNtNtCscP4KCwp5Z66_14zerovec_derive11make_varule8OwnULETyNtNtCse1nGBsou5OW_5alloc6string6StringE3mapNtBK_16UnsizedFieldKindNcNtB2j_5Boxed0EBM_, symObjAddr: 0x98C, symBinAddr: 0x28598, symSize: 0x98 }
  - { offset: 0x6A1E7, size: 0x8, addend: 0x0, symName: __RINvMNtCsfvfooZQ3Axs_4core6resultINtB3_6ResultyNtNtNtB5_3num5error13ParseIntErrorE7map_errNtNtCs6IAuOt8vWmF_3syn5error5ErrorNCINvMs3_NtB1u_3litNtB27_6LitInt12base10_parseyE0ECscP4KCwp5Z66_14zerovec_derive, symObjAddr: 0xA24, symBinAddr: 0x28630, symSize: 0x84 }
  - { offset: 0x6A287, size: 0x8, addend: 0x0, symName: __RINvMs0_NtCs6IAuOt8vWmF_3syn4attrNtB6_8MetaList15parse_args_withNvYNtCs3cP53eQoTwO_11proc_macro211TokenStreamNtNtB8_5parse5Parse5parseECscP4KCwp5Z66_14zerovec_derive, symObjAddr: 0xAA8, symBinAddr: 0x286B4, symSize: 0xF0 }
  - { offset: 0x6A2D8, size: 0x8, addend: 0x0, symName: __RINvMs0_NtCs6IAuOt8vWmF_3syn4attrNtB6_8MetaList15parse_args_withNvYNtNtCscP4KCwp5Z66_14zerovec_derive5utils18IdentListAttributeNtNtB8_5parse5Parse5parseEB17_, symObjAddr: 0xB98, symBinAddr: 0x287A4, symSize: 0xF0 }
  - { offset: 0x6A826, size: 0x8, addend: 0x0, symName: __RINvMs0_NtNtNtCscOYdFFY2T5N_3std11collections4hash3setINtB6_7HashSethE6removehECscP4KCwp5Z66_14zerovec_derive, symObjAddr: 0xC88, symBinAddr: 0x28894, symSize: 0x50 }
  - { offset: 0x6A988, size: 0x8, addend: 0x0, symName: __RINvMs_NtNtCsfvfooZQ3Axs_4core3fmt2rtNtB5_8Argument11new_displayNtNtNtCs6IAuOt8vWmF_3syn4attr7parsing16DisplayAttrStyleECscP4KCwp5Z66_14zerovec_derive, symObjAddr: 0xCD8, symBinAddr: 0x288E4, symSize: 0x2C }
  - { offset: 0x6AA22, size: 0x8, addend: 0x0, symName: __RINvMs_NtNtCsfvfooZQ3Axs_4core3fmt2rtNtB5_8Argument11new_displayRNtCs3cP53eQoTwO_11proc_macro211TokenStreamECscP4KCwp5Z66_14zerovec_derive, symObjAddr: 0xD04, symBinAddr: 0x28910, symSize: 0x2C }
  - { offset: 0x6AAAF, size: 0x8, addend: 0x0, symName: __RINvMs_NtNtCsfvfooZQ3Axs_4core3fmt2rtNtB5_8Argument9new_debugINtNtCse1nGBsou5OW_5alloc3vec3VecRhEECscP4KCwp5Z66_14zerovec_derive, symObjAddr: 0xD30, symBinAddr: 0x2893C, symSize: 0x2C }
  - { offset: 0x6AE6A, size: 0x8, addend: 0x0, symName: __RNvMNtCsfvfooZQ3Axs_4core6resultINtB2_6ResultNtNtCscP4KCwp5Z66_14zerovec_derive11make_varule12UnsizedFieldNtNtCse1nGBsou5OW_5alloc6string6StringE10unwrap_errBL_, symObjAddr: 0x11A0, symBinAddr: 0x28DAC, symSize: 0xC4 }
  - { offset: 0x6AEBE, size: 0x8, addend: 0x0, symName: __RNvMNtCsfvfooZQ3Axs_4core6resultINtB2_6ResultyNtNtCs6IAuOt8vWmF_3syn5error5ErrorE2okCscP4KCwp5Z66_14zerovec_derive, symObjAddr: 0x1264, symBinAddr: 0x28E70, symSize: 0x88 }
  - { offset: 0x6AF12, size: 0x8, addend: 0x0, symName: __RNvMNtNtCsfvfooZQ3Axs_4core3fmt2rtNtB2_11Placeholder3newCscP4KCwp5Z66_14zerovec_derive, symObjAddr: 0x12EC, symBinAddr: 0x28EF8, symSize: 0x4C }
  - { offset: 0x6AF7A, size: 0x8, addend: 0x0, symName: __RNvMNtNtNtCscOYdFFY2T5N_3std11collections4hash3setINtB2_7HashSethE3newCscP4KCwp5Z66_14zerovec_derive, symObjAddr: 0x1338, symBinAddr: 0x28F44, symSize: 0x54 }
  - { offset: 0x6B013, size: 0x8, addend: 0x0, symName: __RNvMs0_NtCse1nGBsou5OW_5alloc7raw_vecINtB5_6RawVecINtNtCsfvfooZQ3Axs_4core6option6OptionNtCs3cP53eQoTwO_11proc_macro25IdentEE8grow_oneCscP4KCwp5Z66_14zerovec_derive, symObjAddr: 0x138C, symBinAddr: 0x28F98, symSize: 0x94 }
  - { offset: 0x6B0C1, size: 0x8, addend: 0x0, symName: __RNvMs0_NtCse1nGBsou5OW_5alloc7raw_vecINtB5_6RawVecNtCs3cP53eQoTwO_11proc_macro211TokenStreamE8grow_oneCscP4KCwp5Z66_14zerovec_derive, symObjAddr: 0x1420, symBinAddr: 0x2902C, symSize: 0x94 }
  - { offset: 0x6B16F, size: 0x8, addend: 0x0, symName: __RNvMs0_NtCse1nGBsou5OW_5alloc7raw_vecINtB5_6RawVecNtNtCscP4KCwp5Z66_14zerovec_derive11make_varule12UnsizedFieldE8grow_oneBQ_, symObjAddr: 0x14B4, symBinAddr: 0x290C0, symSize: 0x94 }
  - { offset: 0x6B21D, size: 0x8, addend: 0x0, symName: __RNvMs0_NtCse1nGBsou5OW_5alloc7raw_vecINtB5_6RawVecNtNtCscP4KCwp5Z66_14zerovec_derive5utils9FieldInfoE8grow_oneBQ_, symObjAddr: 0x1548, symBinAddr: 0x29154, symSize: 0x94 }
  - { offset: 0x6B2CB, size: 0x8, addend: 0x0, symName: __RNvMs0_NtCse1nGBsou5OW_5alloc7raw_vecINtB5_6RawVecTNtCs3cP53eQoTwO_11proc_macro25IdentNtNtCs6IAuOt8vWmF_3syn5token5CommaEE8grow_oneCscP4KCwp5Z66_14zerovec_derive, symObjAddr: 0x15DC, symBinAddr: 0x291E8, symSize: 0x94 }
  - { offset: 0x6B334, size: 0x8, addend: 0x0, symName: __RNvMs0_NtNtCsfvfooZQ3Axs_4core3fmt2rtNtB5_9UnsafeArg3newCscP4KCwp5Z66_14zerovec_derive, symObjAddr: 0x1670, symBinAddr: 0x2927C, symSize: 0x4 }
  - { offset: 0x6B354, size: 0x8, addend: 0x0, symName: __RNvMs0_NtNtCsfvfooZQ3Axs_4core4hash3sipINtB5_6HasherNtB5_11Sip13RoundsE5resetCscP4KCwp5Z66_14zerovec_derive, symObjAddr: 0x1674, symBinAddr: 0x29280, symSize: 0x8C }
  - { offset: 0x6B3F1, size: 0x8, addend: 0x0, symName: __RNvMs0_NtNtNtCscOYdFFY2T5N_3std11collections4hash3setINtB5_7HashSethE6insertCscP4KCwp5Z66_14zerovec_derive, symObjAddr: 0x1700, symBinAddr: 0x2930C, symSize: 0x4C }
  - { offset: 0x6B497, size: 0x8, addend: 0x0, symName: __RNvMs_NtNtCsfvfooZQ3Axs_4core3fmt2rtNtB4_8Argument4noneCscP4KCwp5Z66_14zerovec_derive, symObjAddr: 0x174C, symBinAddr: 0x29358, symSize: 0x4 }
  - { offset: 0x6B561, size: 0x8, addend: 0x0, symName: __RNvMs_NtNtNtCscOYdFFY2T5N_3std11collections4hash3setINtB4_7HashSethE4iterCscP4KCwp5Z66_14zerovec_derive, symObjAddr: 0x1750, symBinAddr: 0x2935C, symSize: 0x80 }
  - { offset: 0x6B68E, size: 0x8, addend: 0x0, symName: __RNvXNtCs2cqEZUIJimJ_5quote9to_tokensRNtCs3cP53eQoTwO_11proc_macro211TokenStreamNtB2_8ToTokens9to_tokensCscP4KCwp5Z66_14zerovec_derive, symObjAddr: 0x21E8, symBinAddr: 0x29DF4, symSize: 0x40 }
  - { offset: 0x6B6CD, size: 0x8, addend: 0x0, symName: __RNvXNtCs2cqEZUIJimJ_5quote9to_tokensRNtCs3cP53eQoTwO_11proc_macro25IdentNtB2_8ToTokens9to_tokensCscP4KCwp5Z66_14zerovec_derive, symObjAddr: 0x2228, symBinAddr: 0x29E34, symSize: 0x40 }
  - { offset: 0x6B712, size: 0x8, addend: 0x0, symName: __RNvYNtCs3cP53eQoTwO_11proc_macro25IdentNtNtCs2cqEZUIJimJ_5quote9to_tokens8ToTokens15to_token_streamCscP4KCwp5Z66_14zerovec_derive, symObjAddr: 0x40A4, symBinAddr: 0x2BCB0, symSize: 0x8C }
  - { offset: 0x6B75C, size: 0x8, addend: 0x0, symName: __RNvYNtCs3cP53eQoTwO_11proc_macro25IdentNtNtCs2cqEZUIJimJ_5quote9to_tokens8ToTokens17into_token_streamCscP4KCwp5Z66_14zerovec_derive, symObjAddr: 0x4130, symBinAddr: 0x2BD3C, symSize: 0x64 }
  - { offset: 0x6B792, size: 0x8, addend: 0x0, symName: __RNvYRNtCs3cP53eQoTwO_11proc_macro211TokenStreamNtNtCs2cqEZUIJimJ_5quote9to_tokens8ToTokens15to_token_streamCscP4KCwp5Z66_14zerovec_derive, symObjAddr: 0x4194, symBinAddr: 0x2BDA0, symSize: 0x8C }
  - { offset: 0x6B7DC, size: 0x8, addend: 0x0, symName: __RNvYRNtCs3cP53eQoTwO_11proc_macro211TokenStreamNtNtCs2cqEZUIJimJ_5quote9to_tokens8ToTokens17into_token_streamCscP4KCwp5Z66_14zerovec_derive, symObjAddr: 0x4220, symBinAddr: 0x2BE2C, symSize: 0x54 }
  - { offset: 0x6B811, size: 0x8, addend: 0x0, symName: __RNvYRNtNtCs6IAuOt8vWmF_3syn4attr9AttributeNtNtCs2cqEZUIJimJ_5quote9to_tokens8ToTokens15to_token_streamCscP4KCwp5Z66_14zerovec_derive, symObjAddr: 0x4274, symBinAddr: 0x2BE80, symSize: 0x8C }
  - { offset: 0x6B85B, size: 0x8, addend: 0x0, symName: __RNvYRNtNtCs6IAuOt8vWmF_3syn4attr9AttributeNtNtCs2cqEZUIJimJ_5quote9to_tokens8ToTokens17into_token_streamCscP4KCwp5Z66_14zerovec_derive, symObjAddr: 0x4300, symBinAddr: 0x2BF0C, symSize: 0x54 }
  - { offset: 0x6B89C, size: 0x8, addend: 0x0, symName: __RNvXs0_NtCs2cqEZUIJimJ_5quote7spannedNtCs3cP53eQoTwO_11proc_macro211TokenStreamNtB5_7Spanned6___spanCscP4KCwp5Z66_14zerovec_derive, symObjAddr: 0x2388, symBinAddr: 0x29F94, symSize: 0x44 }
  - { offset: 0x6B8D1, size: 0x8, addend: 0x0, symName: __RNvXs0_NtCs2cqEZUIJimJ_5quote7spannedNtNtCs6IAuOt8vWmF_3syn4attr9AttributeNtB5_7Spanned6___spanCscP4KCwp5Z66_14zerovec_derive, symObjAddr: 0x23CC, symBinAddr: 0x29FD8, symSize: 0x44 }
  - { offset: 0x6B917, size: 0x8, addend: 0x0, symName: __RNvXs2_NtNtCs2cqEZUIJimJ_5quote9___private3extSNtCs3cP53eQoTwO_11proc_macro211TokenStreamNtB5_16RepAsIteratorExt15quote_into_iterCscP4KCwp5Z66_14zerovec_derive, symObjAddr: 0x2790, symBinAddr: 0x2A39C, symSize: 0x38 }
  - { offset: 0x6BDF5, size: 0x8, addend: 0x0, symName: __RINvMNtCsfvfooZQ3Axs_4core6optionINtB3_6OptionNtCs3cP53eQoTwO_11proc_macro211TokenStreamE14unwrap_or_elseNCNvMNtCscP4KCwp5Z66_14zerovec_derive11make_varuleNtB1K_13UnsizedFields3new0EB1M_, symObjAddr: 0x0, symBinAddr: 0x2BF60, symSize: 0x70 }
  - { offset: 0x6C1DF, size: 0x8, addend: 0x0, symName: __RINvNvNtCscOYdFFY2T5N_3std9panicking3try7do_callINtNtNtCsfvfooZQ3Axs_4core5panic11unwind_safe16AssertUnwindSafeNCINvNtNtCs9i5KxIbZ5ph_10proc_macro6bridge6client10run_clientNtB1Q_11TokenStreamINtNtBR_6option6OptionB2K_ENCNCINvMs7_B1Q_INtB1Q_6ClientNtB1U_11TokenStreamB3X_E7expand1NvCscP4KCwp5Z66_14zerovec_derive10ule_deriveE00E0EuEB4v_, symObjAddr: 0x112C, symBinAddr: 0x2D08C, symSize: 0x50 }
  - { offset: 0x6C2A7, size: 0x8, addend: 0x0, symName: __RINvNvNtCscOYdFFY2T5N_3std9panicking3try7do_callINtNtNtCsfvfooZQ3Axs_4core5panic11unwind_safe16AssertUnwindSafeNCINvNtNtCs9i5KxIbZ5ph_10proc_macro6bridge6client10run_clientNtB1Q_11TokenStreamINtNtBR_6option6OptionB2K_ENCNCINvMs7_B1Q_INtB1Q_6ClientNtB1U_11TokenStreamB3X_E7expand1NvCscP4KCwp5Z66_14zerovec_derive13varule_deriveE00E0EuEB4v_, symObjAddr: 0x117C, symBinAddr: 0x2D0DC, symSize: 0x50 }
  - { offset: 0x6C36F, size: 0x8, addend: 0x0, symName: __RINvNvNtCscOYdFFY2T5N_3std9panicking3try7do_callINtNtNtCsfvfooZQ3Axs_4core5panic11unwind_safe16AssertUnwindSafeNCINvNtNtCs9i5KxIbZ5ph_10proc_macro6bridge6client10run_clientTNtB1Q_11TokenStreamB2L_EINtNtBR_6option6OptionB2L_ENCNCINvMs8_B1Q_INtB1Q_6ClientTNtB1U_11TokenStreamB44_EB44_E7expand2NvCscP4KCwp5Z66_14zerovec_derive11make_varuleE00E0EuEB4H_, symObjAddr: 0x11CC, symBinAddr: 0x2D12C, symSize: 0x50 }
  - { offset: 0x6C437, size: 0x8, addend: 0x0, symName: __RINvNvNtCscOYdFFY2T5N_3std9panicking3try7do_callINtNtNtCsfvfooZQ3Axs_4core5panic11unwind_safe16AssertUnwindSafeNCINvNtNtCs9i5KxIbZ5ph_10proc_macro6bridge6client10run_clientTNtB1Q_11TokenStreamB2L_EINtNtBR_6option6OptionB2L_ENCNCINvMs8_B1Q_INtB1Q_6ClientTNtB1U_11TokenStreamB44_EB44_E7expand2NvCscP4KCwp5Z66_14zerovec_derive8make_uleE00E0EuEB4H_, symObjAddr: 0x121C, symBinAddr: 0x2D17C, symSize: 0x50 }
  - { offset: 0x6C4FF, size: 0x8, addend: 0x0, symName: __RINvNvNtCscOYdFFY2T5N_3std9panicking3try8do_catchINtNtNtCsfvfooZQ3Axs_4core5panic11unwind_safe16AssertUnwindSafeNCINvNtNtCs9i5KxIbZ5ph_10proc_macro6bridge6client10run_clientNtB1R_11TokenStreamINtNtBS_6option6OptionB2L_ENCNCINvMs7_B1R_INtB1R_6ClientNtB1V_11TokenStreamB3Y_E7expand1NvCscP4KCwp5Z66_14zerovec_derive10ule_deriveE00E0EuEB4w_, symObjAddr: 0x126C, symBinAddr: 0x2D1CC, symSize: 0x70 }
  - { offset: 0x6C594, size: 0x8, addend: 0x0, symName: __RINvNvNtCscOYdFFY2T5N_3std9panicking3try8do_catchINtNtNtCsfvfooZQ3Axs_4core5panic11unwind_safe16AssertUnwindSafeNCINvNtNtCs9i5KxIbZ5ph_10proc_macro6bridge6client10run_clientNtB1R_11TokenStreamINtNtBS_6option6OptionB2L_ENCNCINvMs7_B1R_INtB1R_6ClientNtB1V_11TokenStreamB3Y_E7expand1NvCscP4KCwp5Z66_14zerovec_derive13varule_deriveE00E0EuEB4w_, symObjAddr: 0x12DC, symBinAddr: 0x2D23C, symSize: 0x70 }
  - { offset: 0x6C629, size: 0x8, addend: 0x0, symName: __RINvNvNtCscOYdFFY2T5N_3std9panicking3try8do_catchINtNtNtCsfvfooZQ3Axs_4core5panic11unwind_safe16AssertUnwindSafeNCINvNtNtCs9i5KxIbZ5ph_10proc_macro6bridge6client10run_clientTNtB1R_11TokenStreamB2M_EINtNtBS_6option6OptionB2M_ENCNCINvMs8_B1R_INtB1R_6ClientTNtB1V_11TokenStreamB45_EB45_E7expand2NvCscP4KCwp5Z66_14zerovec_derive11make_varuleE00E0EuEB4I_, symObjAddr: 0x134C, symBinAddr: 0x2D2AC, symSize: 0x70 }
  - { offset: 0x6C6BE, size: 0x8, addend: 0x0, symName: __RINvNvNtCscOYdFFY2T5N_3std9panicking3try8do_catchINtNtNtCsfvfooZQ3Axs_4core5panic11unwind_safe16AssertUnwindSafeNCINvNtNtCs9i5KxIbZ5ph_10proc_macro6bridge6client10run_clientTNtB1R_11TokenStreamB2M_EINtNtBS_6option6OptionB2M_ENCNCINvMs8_B1R_INtB1R_6ClientTNtB1V_11TokenStreamB45_EB45_E7expand2NvCscP4KCwp5Z66_14zerovec_derive8make_uleE00E0EuEB4I_, symObjAddr: 0x13BC, symBinAddr: 0x2D31C, symSize: 0x70 }
  - { offset: 0x6D55B, size: 0x8, addend: 0x0, symName: __RNvXs1a_NtCsfvfooZQ3Axs_4core3fmtRRhNtB6_5Debug3fmtCscP4KCwp5Z66_14zerovec_derive, symObjAddr: 0x3080, symBinAddr: 0x2EFE0, symSize: 0x30 }
  - { offset: 0x6D5A1, size: 0x8, addend: 0x0, symName: __RNvXs1a_NtCsfvfooZQ3Axs_4core3fmtRjNtB6_5Debug3fmtCscP4KCwp5Z66_14zerovec_derive, symObjAddr: 0x30B0, symBinAddr: 0x2F010, symSize: 0x30 }
  - { offset: 0x6D5ED, size: 0x8, addend: 0x0, symName: __RNvXsr_NtCsfvfooZQ3Axs_4core3fmtSRhNtB5_5Debug3fmtCscP4KCwp5Z66_14zerovec_derive, symObjAddr: 0x3B74, symBinAddr: 0x2FAD4, symSize: 0x88 }
  - { offset: 0x703FF, size: 0x8, addend: 0x0, symName: __RNvXs4_NtCsfvfooZQ3Axs_4core6optionINtB5_6OptionNtCs3cP53eQoTwO_11proc_macro211TokenStreamENtNtB7_7default7Default7defaultCscP4KCwp5Z66_14zerovec_derive, symObjAddr: 0x3168, symBinAddr: 0x2F0C8, symSize: 0x10 }
  - { offset: 0x7042D, size: 0x8, addend: 0x0, symName: __RNvXs5_NtCsfvfooZQ3Axs_4core6optionINtB5_6OptionRNtCs3cP53eQoTwO_11proc_macro25IdentENtNtNtNtB7_4iter6traits7collect12IntoIterator9into_iterCscP4KCwp5Z66_14zerovec_derive, symObjAddr: 0x3178, symBinAddr: 0x2F0D8, symSize: 0x14 }
  - { offset: 0x7058D, size: 0x8, addend: 0x0, symName: __RNvXsO_NtCsfvfooZQ3Axs_4core6optionINtB5_8IntoIterRNtCs3cP53eQoTwO_11proc_macro25IdentENtNtB7_5clone5Clone5cloneCscP4KCwp5Z66_14zerovec_derive, symObjAddr: 0x34B8, symBinAddr: 0x2F418, symSize: 0x68 }
  - { offset: 0x70634, size: 0x8, addend: 0x0, symName: __RNvXsO_NtCsfvfooZQ3Axs_4core6optionINtB5_8IntoIterRNtNtCs6IAuOt8vWmF_3syn4data7VariantENtNtB7_5clone5Clone5cloneCscP4KCwp5Z66_14zerovec_derive, symObjAddr: 0x3520, symBinAddr: 0x2F480, symSize: 0x68 }
  - { offset: 0x706DB, size: 0x8, addend: 0x0, symName: __RNvXsO_NtCsfvfooZQ3Axs_4core6optionINtB5_8IntoIterRNtNtCs6IAuOt8vWmF_3syn4path15GenericArgumentENtNtB7_5clone5Clone5cloneCscP4KCwp5Z66_14zerovec_derive, symObjAddr: 0x3588, symBinAddr: 0x2F4E8, symSize: 0x68 }
  - { offset: 0x707FA, size: 0x8, addend: 0x0, symName: __RNvXsv_NtCsfvfooZQ3Axs_4core6optionINtB5_8IntoIterRNtCs3cP53eQoTwO_11proc_macro25IdentENtNtNtNtB7_4iter6traits8iterator8Iterator4nextCscP4KCwp5Z66_14zerovec_derive, symObjAddr: 0x3C30, symBinAddr: 0x2FB90, symSize: 0x28 }
  - { offset: 0x7089D, size: 0x8, addend: 0x0, symName: __RNvXsv_NtCsfvfooZQ3Axs_4core6optionINtB5_8IntoIterRNtCs3cP53eQoTwO_11proc_macro25IdentENtNtNtNtB7_4iter6traits8iterator8Iterator9size_hintCscP4KCwp5Z66_14zerovec_derive, symObjAddr: 0x3C58, symBinAddr: 0x2FBB8, symSize: 0x44 }
  - { offset: 0x70915, size: 0x8, addend: 0x0, symName: __RNvXsv_NtCsfvfooZQ3Axs_4core6optionINtB5_8IntoIterRNtNtCs6IAuOt8vWmF_3syn4data7VariantENtNtNtNtB7_4iter6traits8iterator8Iterator9size_hintCscP4KCwp5Z66_14zerovec_derive, symObjAddr: 0x3C9C, symBinAddr: 0x2FBFC, symSize: 0x44 }
  - { offset: 0x7098D, size: 0x8, addend: 0x0, symName: __RNvXsv_NtCsfvfooZQ3Axs_4core6optionINtB5_8IntoIterRNtNtCs6IAuOt8vWmF_3syn4path15GenericArgumentENtNtNtNtB7_4iter6traits8iterator8Iterator9size_hintCscP4KCwp5Z66_14zerovec_derive, symObjAddr: 0x3CE0, symBinAddr: 0x2FC40, symSize: 0x44 }
  - { offset: 0x71A51, size: 0x8, addend: 0x0, symName: __RNCINvNtNtNtCsfvfooZQ3Axs_4core4iter8adapters3map8map_foldRNtNtCscP4KCwp5Z66_14zerovec_derive5utils9FieldInfoNtCs3cP53eQoTwO_11proc_macro211TokenStreamuNCNvNtBZ_11make_varule21make_zf_and_from_impl0NCINvNvNtNtNtB8_6traits8iterator8Iterator8for_each4callB1J_NCINvMsi_NtCse1nGBsou5OW_5alloc3vecINtB4g_3VecB1J_E14extend_trustedINtB4_3MapINtNtNtBa_5slice4iter4IterBV_EB2q_EE0E0E0BZ_, symObjAddr: 0x236C, symBinAddr: 0x2E2CC, symSize: 0x8C }
  - { offset: 0x71AD6, size: 0x8, addend: 0x0, symName: __RNCINvNtNtNtCsfvfooZQ3Axs_4core4iter8adapters3map8map_foldRNtNtCscP4KCwp5Z66_14zerovec_derive5utils9FieldInfoNtCs3cP53eQoTwO_11proc_macro211TokenStreamuNCNvNtBZ_3ule15make_ule_fields0NCINvNvNtNtNtB8_6traits8iterator8Iterator8for_each4callB1J_NCINvMsi_NtCse1nGBsou5OW_5alloc3vecINtB41_3VecB1J_E14extend_trustedINtB4_3MapINtNtNtBa_5slice4iter4IterBV_EB2q_EE0E0E0BZ_, symObjAddr: 0x23F8, symBinAddr: 0x2E358, symSize: 0x8C }
  - { offset: 0x71B61, size: 0x8, addend: 0x0, symName: __RINvXs0_NtNtNtCsfvfooZQ3Axs_4core4iter8adapters3mapINtB6_3MapINtNtNtBc_5slice4iter4IterNtNtCscP4KCwp5Z66_14zerovec_derive5utils9FieldInfoENCNvNtB1r_11make_varule21make_zf_and_from_impl0ENtNtNtBa_6traits8iterator8Iterator4folduNCINvNvB2Y_8for_each4callNtCs3cP53eQoTwO_11proc_macro211TokenStreamNCINvMsi_NtCse1nGBsou5OW_5alloc3vecINtB4Q_3VecB41_E14extend_trustedBN_E0E0EB1r_, symObjAddr: 0x142C, symBinAddr: 0x2D38C, symSize: 0x44 }
  - { offset: 0x71BF9, size: 0x8, addend: 0x0, symName: __RINvXs0_NtNtNtCsfvfooZQ3Axs_4core4iter8adapters3mapINtB6_3MapINtNtNtBc_5slice4iter4IterNtNtCscP4KCwp5Z66_14zerovec_derive5utils9FieldInfoENCNvNtB1r_3ule15make_ule_fields0ENtNtNtBa_6traits8iterator8Iterator4folduNCINvNvB2J_8for_each4callNtCs3cP53eQoTwO_11proc_macro211TokenStreamNCINvMsi_NtCse1nGBsou5OW_5alloc3vecINtB4B_3VecB3M_E14extend_trustedBN_E0E0EB1r_, symObjAddr: 0x1470, symBinAddr: 0x2D3D0, symSize: 0x44 }
  - { offset: 0x71C91, size: 0x8, addend: 0x0, symName: __RNvXs0_NtNtNtCsfvfooZQ3Axs_4core4iter8adapters3mapINtB5_3MapINtNtB7_9enumerate9EnumerateINtNtB7_4take4TakeINtNtCs6IAuOt8vWmF_3syn10punctuated4IterNtNtB1L_4data5FieldEEENCINvMs0_NtCscP4KCwp5Z66_14zerovec_derive5utilsNtB2P_9FieldInfo9make_listB1o_E0ENtNtNtB9_6traits8iterator8Iterator4nextB2R_, symObjAddr: 0x2D14, symBinAddr: 0x2EC74, symSize: 0xA0 }
  - { offset: 0x71D0B, size: 0x8, addend: 0x0, symName: __RNvXs0_NtNtNtCsfvfooZQ3Axs_4core4iter8adapters3mapINtB5_3MapINtNtB7_9enumerate9EnumerateINtNtB7_4take4TakeINtNtCs6IAuOt8vWmF_3syn10punctuated4IterNtNtB1L_4data5FieldEEENCINvMs0_NtCscP4KCwp5Z66_14zerovec_derive5utilsNtB2P_9FieldInfo9make_listB1o_E0ENtNtNtB9_6traits8iterator8Iterator9size_hintB2R_, symObjAddr: 0x2DB4, symBinAddr: 0x2ED14, symSize: 0x24 }
  - { offset: 0x71D52, size: 0x8, addend: 0x0, symName: __RNvXs0_NtNtNtCsfvfooZQ3Axs_4core4iter8adapters3mapINtB5_3MapINtNtB7_9enumerate9EnumerateINtNtCs6IAuOt8vWmF_3syn10punctuated4IterNtNtB1t_4data5FieldEENCINvMs0_NtCscP4KCwp5Z66_14zerovec_derive5utilsNtB2w_9FieldInfo9make_listB1o_E0ENtNtNtB9_6traits8iterator8Iterator4nextB2y_, symObjAddr: 0x2DD8, symBinAddr: 0x2ED38, symSize: 0xA0 }
  - { offset: 0x71DCC, size: 0x8, addend: 0x0, symName: __RNvXs0_NtNtNtCsfvfooZQ3Axs_4core4iter8adapters3mapINtB5_3MapINtNtB7_9enumerate9EnumerateINtNtCs6IAuOt8vWmF_3syn10punctuated4IterNtNtB1t_4data5FieldEENCINvMs0_NtCscP4KCwp5Z66_14zerovec_derive5utilsNtB2w_9FieldInfo9make_listB1o_E0ENtNtNtB9_6traits8iterator8Iterator9size_hintB2y_, symObjAddr: 0x2E78, symBinAddr: 0x2EDD8, symSize: 0x24 }
  - { offset: 0x71E13, size: 0x8, addend: 0x0, symName: __RNvXs0_NtNtNtCsfvfooZQ3Axs_4core4iter8adapters3mapINtB5_3MapINtNtB7_9enumerate9EnumerateINtNtNtBb_5slice4iter4IterNtNtCscP4KCwp5Z66_14zerovec_derive11make_varule12UnsizedFieldEENCNvMB1Q_NtB1Q_13UnsizedFields19maybe_multi_getters0ENtNtNtB9_6traits8iterator8Iterator4nextB1S_, symObjAddr: 0x2E9C, symBinAddr: 0x2EDFC, symSize: 0x9C }
  - { offset: 0x71E8D, size: 0x8, addend: 0x0, symName: __RNvXs0_NtNtNtCsfvfooZQ3Axs_4core4iter8adapters3mapINtB5_3MapINtNtNtBb_5slice4iter4IterNtNtCscP4KCwp5Z66_14zerovec_derive5utils9FieldInfoENCNvNtB1q_11make_varule21make_zf_and_from_impl0ENtNtNtB9_6traits8iterator8Iterator9size_hintB1q_, symObjAddr: 0x2F38, symBinAddr: 0x2EE98, symSize: 0x24 }
  - { offset: 0x71ED4, size: 0x8, addend: 0x0, symName: __RNvXs0_NtNtNtCsfvfooZQ3Axs_4core4iter8adapters3mapINtB5_3MapINtNtNtBb_5slice4iter4IterNtNtCscP4KCwp5Z66_14zerovec_derive5utils9FieldInfoENCNvNtB1q_3ule15make_ule_fields0ENtNtNtB9_6traits8iterator8Iterator9size_hintB1q_, symObjAddr: 0x2F5C, symBinAddr: 0x2EEBC, symSize: 0x24 }
  - { offset: 0x71F1B, size: 0x8, addend: 0x0, symName: __RNvXs0_NtNtNtCsfvfooZQ3Axs_4core4iter8adapters3mapINtB5_3MapINtNtNtBb_5slice4iter4IterNtNtCscP4KCwp5Z66_14zerovec_derive5utils9FieldInfoENCNvNtB1q_6varule11derive_impl0ENtNtNtB9_6traits8iterator8Iterator4nextB1q_, symObjAddr: 0x2F80, symBinAddr: 0x2EEE0, symSize: 0x90 }
  - { offset: 0x722D2, size: 0x8, addend: 0x0, symName: __RINvYINtNtNtNtCsfvfooZQ3Axs_4core4iter8adapters3map3MapINtNtB8_9enumerate9EnumerateINtNtB8_4take4TakeINtNtCs6IAuOt8vWmF_3syn10punctuated4IterNtNtB1G_4data5FieldEEENCINvMs0_NtCscP4KCwp5Z66_14zerovec_derive5utilsNtB2K_9FieldInfo9make_listB1j_E0ENtNtNtBa_6traits8iterator8Iterator7collectINtNtCse1nGBsou5OW_5alloc3vec3VecB3m_EEB2M_, symObjAddr: 0x14B4, symBinAddr: 0x2D414, symSize: 0x1C }
  - { offset: 0x72313, size: 0x8, addend: 0x0, symName: __RINvYINtNtNtNtCsfvfooZQ3Axs_4core4iter8adapters3map3MapINtNtB8_9enumerate9EnumerateINtNtCs6IAuOt8vWmF_3syn10punctuated4IterNtNtB1o_4data5FieldEENCINvMs0_NtCscP4KCwp5Z66_14zerovec_derive5utilsNtB2r_9FieldInfo9make_listB1j_E0ENtNtNtBa_6traits8iterator8Iterator7collectINtNtCse1nGBsou5OW_5alloc3vec3VecB33_EEB2t_, symObjAddr: 0x14D0, symBinAddr: 0x2D430, symSize: 0x1C }
  - { offset: 0x72354, size: 0x8, addend: 0x0, symName: __RINvYINtNtNtNtCsfvfooZQ3Axs_4core4iter8adapters3map3MapINtNtNtBc_5slice4iter4IterNtNtCscP4KCwp5Z66_14zerovec_derive5utils9FieldInfoENCNvNtB1l_11make_varule21make_zf_and_from_impl0ENtNtNtBa_6traits8iterator8Iterator7collectINtNtCse1nGBsou5OW_5alloc3vec3VecNtCs3cP53eQoTwO_11proc_macro211TokenStreamEEB1l_, symObjAddr: 0x14EC, symBinAddr: 0x2D44C, symSize: 0x34 }
  - { offset: 0x72394, size: 0x8, addend: 0x0, symName: __RINvYINtNtNtNtCsfvfooZQ3Axs_4core4iter8adapters3map3MapINtNtNtBc_5slice4iter4IterNtNtCscP4KCwp5Z66_14zerovec_derive5utils9FieldInfoENCNvNtB1l_11make_varule21make_zf_and_from_impl0ENtNtNtBa_6traits8iterator8Iterator8for_eachNCINvMsi_NtCse1nGBsou5OW_5alloc3vecINtB3I_3VecNtCs3cP53eQoTwO_11proc_macro211TokenStreamE14extend_trustedB3_E0EB1l_, symObjAddr: 0x1520, symBinAddr: 0x2D480, symSize: 0x44 }
  - { offset: 0x723FF, size: 0x8, addend: 0x0, symName: __RINvYINtNtNtNtCsfvfooZQ3Axs_4core4iter8adapters3map3MapINtNtNtBc_5slice4iter4IterNtNtCscP4KCwp5Z66_14zerovec_derive5utils9FieldInfoENCNvNtB1l_3ule15make_ule_fields0ENtNtNtBa_6traits8iterator8Iterator7collectINtNtCse1nGBsou5OW_5alloc3vec3VecNtCs3cP53eQoTwO_11proc_macro211TokenStreamEEB1l_, symObjAddr: 0x1564, symBinAddr: 0x2D4C4, symSize: 0x34 }
  - { offset: 0x7243F, size: 0x8, addend: 0x0, symName: __RINvYINtNtNtNtCsfvfooZQ3Axs_4core4iter8adapters3map3MapINtNtNtBc_5slice4iter4IterNtNtCscP4KCwp5Z66_14zerovec_derive5utils9FieldInfoENCNvNtB1l_3ule15make_ule_fields0ENtNtNtBa_6traits8iterator8Iterator8for_eachNCINvMsi_NtCse1nGBsou5OW_5alloc3vecINtB3t_3VecNtCs3cP53eQoTwO_11proc_macro211TokenStreamE14extend_trustedB3_E0EB1l_, symObjAddr: 0x1598, symBinAddr: 0x2D4F8, symSize: 0x44 }
  - { offset: 0x724B6, size: 0x8, addend: 0x0, symName: __RNvXNtNtNtCsfvfooZQ3Axs_4core4iter6traits7collectINtNtNtB6_8adapters3map3MapINtNtBQ_9enumerate9EnumerateINtNtBQ_4take4TakeINtNtCs6IAuOt8vWmF_3syn10punctuated4IterNtNtB21_4data5FieldEEENCINvMs0_NtCscP4KCwp5Z66_14zerovec_derive5utilsNtB35_9FieldInfo9make_listB1E_E0ENtB2_12IntoIterator9into_iterB37_, symObjAddr: 0x2CB0, symBinAddr: 0x2EC10, symSize: 0x14 }
  - { offset: 0x724ED, size: 0x8, addend: 0x0, symName: __RNvXNtNtNtCsfvfooZQ3Axs_4core4iter6traits7collectINtNtNtB6_8adapters3map3MapINtNtBQ_9enumerate9EnumerateINtNtCs6IAuOt8vWmF_3syn10punctuated4IterNtNtB1J_4data5FieldEENCINvMs0_NtCscP4KCwp5Z66_14zerovec_derive5utilsNtB2M_9FieldInfo9make_listB1E_E0ENtB2_12IntoIterator9into_iterB2O_, symObjAddr: 0x2CC4, symBinAddr: 0x2EC24, symSize: 0x18 }
  - { offset: 0x72524, size: 0x8, addend: 0x0, symName: __RNvXNtNtNtCsfvfooZQ3Axs_4core4iter6traits7collectINtNtNtB6_8adapters3map3MapINtNtNtB8_5slice4iter4IterNtNtCscP4KCwp5Z66_14zerovec_derive5utils9FieldInfoENCNvNtB1G_11make_varule21make_zf_and_from_impl0ENtB2_12IntoIterator9into_iterB1G_, symObjAddr: 0x2CDC, symBinAddr: 0x2EC3C, symSize: 0x1C }
  - { offset: 0x7255B, size: 0x8, addend: 0x0, symName: __RNvXNtNtNtCsfvfooZQ3Axs_4core4iter6traits7collectINtNtNtB6_8adapters3map3MapINtNtNtB8_5slice4iter4IterNtNtCscP4KCwp5Z66_14zerovec_derive5utils9FieldInfoENCNvNtB1G_3ule15make_ule_fields0ENtB2_12IntoIterator9into_iterB1G_, symObjAddr: 0x2CF8, symBinAddr: 0x2EC58, symSize: 0x1C }
  - { offset: 0x7259E, size: 0x8, addend: 0x0, symName: __RNvYINtNtCsfvfooZQ3Axs_4core6option8IntoIterRNtCs3cP53eQoTwO_11proc_macro25IdentENtNtNtNtB7_4iter6traits10exact_size17ExactSizeIterator3lenCscP4KCwp5Z66_14zerovec_derive, symObjAddr: 0x3E10, symBinAddr: 0x2FD70, symSize: 0xF4 }
  - { offset: 0x72691, size: 0x8, addend: 0x0, symName: __RNvYINtNtCsfvfooZQ3Axs_4core6option8IntoIterRNtNtCs6IAuOt8vWmF_3syn4data7VariantENtNtNtNtB7_4iter6traits10exact_size17ExactSizeIterator3lenCscP4KCwp5Z66_14zerovec_derive, symObjAddr: 0x3F04, symBinAddr: 0x2FE64, symSize: 0xF4 }
  - { offset: 0x72784, size: 0x8, addend: 0x0, symName: __RNvYINtNtCsfvfooZQ3Axs_4core6option8IntoIterRNtNtCs6IAuOt8vWmF_3syn4path15GenericArgumentENtNtNtNtB7_4iter6traits10exact_size17ExactSizeIterator3lenCscP4KCwp5Z66_14zerovec_derive, symObjAddr: 0x3FF8, symBinAddr: 0x2FF58, symSize: 0xF4 }
  - { offset: 0x72884, size: 0x8, addend: 0x0, symName: __RNvXsF_NtNtCsfvfooZQ3Axs_4core4iter5rangejNtB5_4Step13steps_betweenCscP4KCwp5Z66_14zerovec_derive, symObjAddr: 0x33CC, symBinAddr: 0x2F32C, symSize: 0xA4 }
  - { offset: 0x728DF, size: 0x8, addend: 0x0, symName: __RNvXsF_NtNtCsfvfooZQ3Axs_4core4iter5rangejNtB5_4Step17forward_uncheckedCscP4KCwp5Z66_14zerovec_derive, symObjAddr: 0x3470, symBinAddr: 0x2F3D0, symSize: 0x48 }
  - { offset: 0x72944, size: 0x8, addend: 0x0, symName: __RNvXsx_NtNtCsfvfooZQ3Axs_4core4iter5rangehNtB5_4Step17forward_uncheckedCscP4KCwp5Z66_14zerovec_derive, symObjAddr: 0x3D24, symBinAddr: 0x2FC84, symSize: 0x54 }
  - { offset: 0x72A22, size: 0x8, addend: 0x0, symName: __RNvNvNtCsfvfooZQ3Axs_4core4hint21unreachable_unchecked18precondition_checkCscP4KCwp5Z66_14zerovec_derive, symObjAddr: 0x2C00, symBinAddr: 0x2EB60, symSize: 0x1C }
  - { offset: 0x72A4C, size: 0x8, addend: 0x0, symName: __RNvXs1T_NtNtCsfvfooZQ3Axs_4core7convert3numhINtB8_7TryFromyE8try_fromCscP4KCwp5Z66_14zerovec_derive, symObjAddr: 0x3010, symBinAddr: 0x2EF70, symSize: 0x60 }
  - { offset: 0x72EDD, size: 0x8, addend: 0x0, symName: __RNCINvNtNtCs9i5KxIbZ5ph_10proc_macro6bridge6client10run_clientNtB4_11TokenStreamINtNtCsfvfooZQ3Axs_4core6option6OptionBY_ENCNCINvMs7_B4_INtB4_6ClientNtB8_11TokenStreamB2n_E7expand1NvCscP4KCwp5Z66_14zerovec_derive10ule_deriveE00E0B2U_, symObjAddr: 0x169C, symBinAddr: 0x2D5FC, symSize: 0x324 }
  - { offset: 0x73140, size: 0x8, addend: 0x0, symName: __RNCINvNtNtCs9i5KxIbZ5ph_10proc_macro6bridge6client10run_clientNtB4_11TokenStreamINtNtCsfvfooZQ3Axs_4core6option6OptionBY_ENCNCINvMs7_B4_INtB4_6ClientNtB8_11TokenStreamB2n_E7expand1NvCscP4KCwp5Z66_14zerovec_derive13varule_deriveE00E0B2U_, symObjAddr: 0x19C0, symBinAddr: 0x2D920, symSize: 0x324 }
  - { offset: 0x733A3, size: 0x8, addend: 0x0, symName: __RNCINvNtNtCs9i5KxIbZ5ph_10proc_macro6bridge6client10run_clientTNtB4_11TokenStreamBZ_EINtNtCsfvfooZQ3Axs_4core6option6OptionBZ_ENCNCINvMs8_B4_INtB4_6ClientTNtB8_11TokenStreamB2t_EB2t_E7expand2NvCscP4KCwp5Z66_14zerovec_derive11make_varuleE00E0B35_, symObjAddr: 0x1CE4, symBinAddr: 0x2DC44, symSize: 0x344 }
  - { offset: 0x73606, size: 0x8, addend: 0x0, symName: __RNCINvNtNtCs9i5KxIbZ5ph_10proc_macro6bridge6client10run_clientTNtB4_11TokenStreamBZ_EINtNtCsfvfooZQ3Axs_4core6option6OptionBZ_ENCNCINvMs8_B4_INtB4_6ClientTNtB8_11TokenStreamB2t_EB2t_E7expand2NvCscP4KCwp5Z66_14zerovec_derive8make_uleE00E0B35_, symObjAddr: 0x2028, symBinAddr: 0x2DF88, symSize: 0x344 }
  - { offset: 0x7386E, size: 0x8, addend: 0x0, symName: __RNCNCINvNtNtCs9i5KxIbZ5ph_10proc_macro6bridge6client10run_clientNtB6_11TokenStreamINtNtCsfvfooZQ3Axs_4core6option6OptionB10_ENCNCINvMs7_B6_INtB6_6ClientNtBa_11TokenStreamB2q_E7expand1NvCscP4KCwp5Z66_14zerovec_derive10ule_deriveE00E00B2X_, symObjAddr: 0x256C, symBinAddr: 0x2E4CC, symSize: 0x28 }
  - { offset: 0x738C8, size: 0x8, addend: 0x0, symName: __RNCNCINvNtNtCs9i5KxIbZ5ph_10proc_macro6bridge6client10run_clientNtB6_11TokenStreamINtNtCsfvfooZQ3Axs_4core6option6OptionB10_ENCNCINvMs7_B6_INtB6_6ClientNtBa_11TokenStreamB2q_E7expand1NvCscP4KCwp5Z66_14zerovec_derive13varule_deriveE00E00B2X_, symObjAddr: 0x2594, symBinAddr: 0x2E4F4, symSize: 0x28 }
  - { offset: 0x73922, size: 0x8, addend: 0x0, symName: __RNCNCINvNtNtCs9i5KxIbZ5ph_10proc_macro6bridge6client10run_clientTNtB6_11TokenStreamB11_EINtNtCsfvfooZQ3Axs_4core6option6OptionB11_ENCNCINvMs8_B6_INtB6_6ClientTNtBa_11TokenStreamB2x_EB2x_E7expand2NvCscP4KCwp5Z66_14zerovec_derive11make_varuleE00E00B39_, symObjAddr: 0x25BC, symBinAddr: 0x2E51C, symSize: 0x24 }
  - { offset: 0x7397E, size: 0x8, addend: 0x0, symName: __RNCNCINvNtNtCs9i5KxIbZ5ph_10proc_macro6bridge6client10run_clientTNtB6_11TokenStreamB11_EINtNtCsfvfooZQ3Axs_4core6option6OptionB11_ENCNCINvMs8_B6_INtB6_6ClientTNtBa_11TokenStreamB2x_EB2x_E7expand2NvCscP4KCwp5Z66_14zerovec_derive8make_uleE00E00B39_, symObjAddr: 0x25E0, symBinAddr: 0x2E540, symSize: 0x24 }
  - { offset: 0x73A11, size: 0x8, addend: 0x0, symName: __RNCNCINvMs7_NtNtCs9i5KxIbZ5ph_10proc_macro6bridge6clientINtBa_6ClientNtBe_11TokenStreamB15_E7expand1NvCscP4KCwp5Z66_14zerovec_derive10ule_deriveE00B1C_, symObjAddr: 0x2484, symBinAddr: 0x2E3E4, symSize: 0x30 }
  - { offset: 0x73A59, size: 0x8, addend: 0x0, symName: __RNCNCINvMs7_NtNtCs9i5KxIbZ5ph_10proc_macro6bridge6clientINtBa_6ClientNtBe_11TokenStreamB15_E7expand1NvCscP4KCwp5Z66_14zerovec_derive13varule_deriveE00B1C_, symObjAddr: 0x24B4, symBinAddr: 0x2E414, symSize: 0x30 }
  - { offset: 0x73AA2, size: 0x8, addend: 0x0, symName: __RNCINvMs7_NtNtCs9i5KxIbZ5ph_10proc_macro6bridge6clientINtB8_6ClientNtBc_11TokenStreamB13_E7expand1NvCscP4KCwp5Z66_14zerovec_derive10ule_deriveE0B1A_, symObjAddr: 0x15DC, symBinAddr: 0x2D53C, symSize: 0x30 }
  - { offset: 0x73AEB, size: 0x8, addend: 0x0, symName: __RNCINvMs7_NtNtCs9i5KxIbZ5ph_10proc_macro6bridge6clientINtB8_6ClientNtBc_11TokenStreamB13_E7expand1NvCscP4KCwp5Z66_14zerovec_derive13varule_deriveE0B1A_, symObjAddr: 0x160C, symBinAddr: 0x2D56C, symSize: 0x30 }
  - { offset: 0x73B36, size: 0x8, addend: 0x0, symName: __RINvNtNtCs9i5KxIbZ5ph_10proc_macro6bridge6client10run_clientNtB2_11TokenStreamINtNtCsfvfooZQ3Axs_4core6option6OptionBW_ENCNCINvMs7_B2_INtB2_6ClientNtB6_11TokenStreamB2l_E7expand1NvCscP4KCwp5Z66_14zerovec_derive10ule_deriveE00EB2S_, symObjAddr: 0x8BC, symBinAddr: 0x2C81C, symSize: 0x21C }
  - { offset: 0x73CF6, size: 0x8, addend: 0x0, symName: __RINvNtNtCs9i5KxIbZ5ph_10proc_macro6bridge6client10run_clientNtB2_11TokenStreamINtNtCsfvfooZQ3Axs_4core6option6OptionBW_ENCNCINvMs7_B2_INtB2_6ClientNtB6_11TokenStreamB2l_E7expand1NvCscP4KCwp5Z66_14zerovec_derive13varule_deriveE00EB2S_, symObjAddr: 0xAD8, symBinAddr: 0x2CA38, symSize: 0x21C }
  - { offset: 0x73EEB, size: 0x8, addend: 0x0, symName: __RNCNCINvMs8_NtNtCs9i5KxIbZ5ph_10proc_macro6bridge6clientINtBa_6ClientTNtBe_11TokenStreamB16_EB16_E7expand2NvCscP4KCwp5Z66_14zerovec_derive11make_varuleE00B1I_, symObjAddr: 0x24E4, symBinAddr: 0x2E444, symSize: 0x44 }
  - { offset: 0x73F5D, size: 0x8, addend: 0x0, symName: __RNCNCINvMs8_NtNtCs9i5KxIbZ5ph_10proc_macro6bridge6clientINtBa_6ClientTNtBe_11TokenStreamB16_EB16_E7expand2NvCscP4KCwp5Z66_14zerovec_derive8make_uleE00B1I_, symObjAddr: 0x2528, symBinAddr: 0x2E488, symSize: 0x44 }
  - { offset: 0x73FD0, size: 0x8, addend: 0x0, symName: __RNCINvMs8_NtNtCs9i5KxIbZ5ph_10proc_macro6bridge6clientINtB8_6ClientTNtBc_11TokenStreamB14_EB14_E7expand2NvCscP4KCwp5Z66_14zerovec_derive11make_varuleE0B1G_, symObjAddr: 0x163C, symBinAddr: 0x2D59C, symSize: 0x30 }
  - { offset: 0x74019, size: 0x8, addend: 0x0, symName: __RNCINvMs8_NtNtCs9i5KxIbZ5ph_10proc_macro6bridge6clientINtB8_6ClientTNtBc_11TokenStreamB14_EB14_E7expand2NvCscP4KCwp5Z66_14zerovec_derive8make_uleE0B1G_, symObjAddr: 0x166C, symBinAddr: 0x2D5CC, symSize: 0x30 }
  - { offset: 0x74064, size: 0x8, addend: 0x0, symName: __RINvNtNtCs9i5KxIbZ5ph_10proc_macro6bridge6client10run_clientTNtB2_11TokenStreamBX_EINtNtCsfvfooZQ3Axs_4core6option6OptionBX_ENCNCINvMs8_B2_INtB2_6ClientTNtB6_11TokenStreamB2r_EB2r_E7expand2NvCscP4KCwp5Z66_14zerovec_derive11make_varuleE00EB33_, symObjAddr: 0xCF4, symBinAddr: 0x2CC54, symSize: 0x21C }
  - { offset: 0x74224, size: 0x8, addend: 0x0, symName: __RINvNtNtCs9i5KxIbZ5ph_10proc_macro6bridge6client10run_clientTNtB2_11TokenStreamBX_EINtNtCsfvfooZQ3Axs_4core6option6OptionBX_ENCNCINvMs8_B2_INtB2_6ClientTNtB6_11TokenStreamB2r_EB2r_E7expand2NvCscP4KCwp5Z66_14zerovec_derive8make_uleE00EB33_, symObjAddr: 0xF10, symBinAddr: 0x2CE70, symSize: 0x21C }
  - { offset: 0x74416, size: 0x8, addend: 0x0, symName: __RNvXsg_NtNtCs9i5KxIbZ5ph_10proc_macro6bridge6clientNtB5_11TokenStreamINtNtB7_3rpc6EncodeuE6encodeCscP4KCwp5Z66_14zerovec_derive, symObjAddr: 0x389C, symBinAddr: 0x2F7FC, symSize: 0x50 }
  - { offset: 0x74527, size: 0x8, addend: 0x0, symName: __RNvXsj_NtNtCs9i5KxIbZ5ph_10proc_macro6bridge6clientNtB5_11TokenStreamINtNtB7_3rpc9DecodeMutuE6decodeCscP4KCwp5Z66_14zerovec_derive, symObjAddr: 0x38EC, symBinAddr: 0x2F84C, symSize: 0x2C }
  - { offset: 0x74570, size: 0x8, addend: 0x0, symName: __RNvXsq_NtNtCs9i5KxIbZ5ph_10proc_macro6bridge6clientNtB5_4SpanINtNtB7_3rpc9DecodeMutuE6decodeCscP4KCwp5Z66_14zerovec_derive, symObjAddr: 0x3B48, symBinAddr: 0x2FAA8, symSize: 0x2C }
  - { offset: 0x74AC0, size: 0x8, addend: 0x0, symName: __RNvXNtNtCs9i5KxIbZ5ph_10proc_macro6bridge3rpcuINtB2_6EncodeuE6encodeCscP4KCwp5Z66_14zerovec_derive, symObjAddr: 0x2C9C, symBinAddr: 0x2EBFC, symSize: 0x14 }
  - { offset: 0x74B07, size: 0x8, addend: 0x0, symName: __RNvXs9_NtNtCs9i5KxIbZ5ph_10proc_macro6bridge3rpcTNtNtB7_6client11TokenStreamBL_EINtB5_9DecodeMutuE6decodeCscP4KCwp5Z66_14zerovec_derive, symObjAddr: 0x318C, symBinAddr: 0x2F0EC, symSize: 0x80 }
  - { offset: 0x74BF4, size: 0x8, addend: 0x0, symName: __RNvXsa_NtNtCs9i5KxIbZ5ph_10proc_macro6bridge3rpcRShINtB5_6EncodeuE6encodeCscP4KCwp5Z66_14zerovec_derive, symObjAddr: 0x3794, symBinAddr: 0x2F6F4, symSize: 0xD0 }
  - { offset: 0x74CF6, size: 0x8, addend: 0x0, symName: __RNvXsc_NtNtCs9i5KxIbZ5ph_10proc_macro6bridge3rpcReINtB5_6EncodeuE6encodeCscP4KCwp5Z66_14zerovec_derive, symObjAddr: 0x3864, symBinAddr: 0x2F7C4, symSize: 0x38 }
  - { offset: 0x74DB8, size: 0x8, addend: 0x0, symName: __RNvXsl_NtNtCs9i5KxIbZ5ph_10proc_macro6bridge3rpcNtB5_12PanicMessageINtB5_6EncodeuE6encodeCscP4KCwp5Z66_14zerovec_derive, symObjAddr: 0x3918, symBinAddr: 0x2F878, symSize: 0x128 }
  - { offset: 0x74F7E, size: 0x8, addend: 0x0, symName: __RNvXso_NtNtCs9i5KxIbZ5ph_10proc_macro6bridge3rpcmINtB5_9DecodeMutuE6decodeCscP4KCwp5Z66_14zerovec_derive, symObjAddr: 0x3A40, symBinAddr: 0x2F9A0, symSize: 0x108 }
  - { offset: 0x75102, size: 0x8, addend: 0x0, symName: __RNvXsR_NtCs9i5KxIbZ5ph_10proc_macro6bridgeINtNtCsfvfooZQ3Axs_4core6option6OptionNtNtB5_6client11TokenStreamEINtNtB5_3rpc6EncodeuE6encodeCscP4KCwp5Z66_14zerovec_derive, symObjAddr: 0x35F0, symBinAddr: 0x2F550, symSize: 0xCC }
  - { offset: 0x751A8, size: 0x8, addend: 0x0, symName: __RNvXsR_NtCs9i5KxIbZ5ph_10proc_macro6bridgeINtNtCsfvfooZQ3Axs_4core6option6OptionReEINtNtB5_3rpc6EncodeuE6encodeCscP4KCwp5Z66_14zerovec_derive, symObjAddr: 0x36BC, symBinAddr: 0x2F61C, symSize: 0xD8 }
  - { offset: 0x755F7, size: 0x8, addend: 0x0, symName: __RNvXsA_NtCs3cP53eQoTwO_11proc_macro23impNtB5_19DeferredTokenStreamNtNtCsfvfooZQ3Axs_4core5clone5Clone5cloneCscP4KCwp5Z66_14zerovec_derive, symObjAddr: 0x320C, symBinAddr: 0x2F16C, symSize: 0x90 }
  - { offset: 0x75629, size: 0x8, addend: 0x0, symName: __RNvXsF_NtCs3cP53eQoTwO_11proc_macro23impNtB5_5IdentNtNtCsfvfooZQ3Axs_4core5clone5Clone5cloneCscP4KCwp5Z66_14zerovec_derive, symObjAddr: 0x3330, symBinAddr: 0x2F290, symSize: 0x9C }
  - { offset: 0x75699, size: 0x8, addend: 0x0, symName: __RNvXsz_NtCs3cP53eQoTwO_11proc_macro23impNtB5_11TokenStreamNtNtCsfvfooZQ3Axs_4core5clone5Clone5cloneCscP4KCwp5Z66_14zerovec_derive, symObjAddr: 0x3D78, symBinAddr: 0x2FCD8, symSize: 0x98 }
  - { offset: 0x757A3, size: 0x8, addend: 0x0, symName: __RNvXsA_NtCs3cP53eQoTwO_11proc_macro28fallbackNtB5_5IdentNtNtCsfvfooZQ3Axs_4core5clone5Clone5cloneCscP4KCwp5Z66_14zerovec_derive, symObjAddr: 0x329C, symBinAddr: 0x2F1FC, symSize: 0x94 }
  - { offset: 0x757D7, size: 0x8, addend: 0x0, symName: __RNvXss_NtCs3cP53eQoTwO_11proc_macro28fallbackNtB5_11TokenStreamNtNtCsfvfooZQ3Axs_4core5clone5Clone5cloneCscP4KCwp5Z66_14zerovec_derive, symObjAddr: 0x3BFC, symBinAddr: 0x2FB5C, symSize: 0x24 }
  - { offset: 0x75809, size: 0x8, addend: 0x0, symName: __RNvXsu_NtCs3cP53eQoTwO_11proc_macro28fallbackNtB5_4SpanNtNtCsfvfooZQ3Axs_4core5clone5Clone5cloneCscP4KCwp5Z66_14zerovec_derive, symObjAddr: 0x3C20, symBinAddr: 0x2FB80, symSize: 0x10 }
  - { offset: 0x75950, size: 0x8, addend: 0x0, symName: __RNvXs1_NtCs3cP53eQoTwO_11proc_macro26markerNtB5_19ProcMacroAutoTraitsNtNtCsfvfooZQ3Axs_4core5clone5Clone5cloneCscP4KCwp5Z66_14zerovec_derive, symObjAddr: 0x3070, symBinAddr: 0x2EFD0, symSize: 0x10 }
  - { offset: 0x76969, size: 0x8, addend: 0x0, symName: __RNvNtCse1nGBsou5OW_5alloc3fmt6formatCscP4KCwp5Z66_14zerovec_derive, symObjAddr: 0x2B2C, symBinAddr: 0x2EA8C, symSize: 0xD4 }
  - { offset: 0x76C9A, size: 0x8, addend: 0x0, symName: __RINvMNtCsfvfooZQ3Axs_4core6optionINtB3_6OptionNtCs3cP53eQoTwO_11proc_macro211TokenStreamE14unwrap_or_elseNCNvMNtCscP4KCwp5Z66_14zerovec_derive11make_varuleNtB1K_13UnsizedFields3new0EB1M_, symObjAddr: 0x0, symBinAddr: 0x2BF60, symSize: 0x70 }
  - { offset: 0x76D3C, size: 0x8, addend: 0x0, symName: __RINvMNtCsfvfooZQ3Axs_4core6optionINtB3_6OptionRINtNtCse1nGBsou5OW_5alloc5boxed3BoxNtCs3cP53eQoTwO_11proc_macro25IdentEE3mapRB1i_NvYBJ_INtNtB5_7convert5AsRefB1i_E6as_refECscP4KCwp5Z66_14zerovec_derive, symObjAddr: 0x70, symBinAddr: 0x2BFD0, symSize: 0x50 }
  - { offset: 0x7BACF, size: 0x8, addend: 0x0, symName: __RINvMNtCsfvfooZQ3Axs_4core6optionINtB3_6OptionRNtCs3cP53eQoTwO_11proc_macro25IdentE7or_elseNCNvXsw_NtCs6IAuOt8vWmF_3syn10punctuatedINtB1z_11PrivateIterBJ_NtNtB1B_5token5CommaENtNtNtNtB5_4iter6traits8iterator8Iterator4nexts_0ECscP4KCwp5Z66_14zerovec_derive, symObjAddr: 0xC0, symBinAddr: 0x2C020, symSize: 0xA8 }
  - { offset: 0x7BB83, size: 0x8, addend: 0x0, symName: __RINvMNtCsfvfooZQ3Axs_4core6optionINtB3_6OptionRNtCs3cP53eQoTwO_11proc_macro25IdentE7or_elseNCNvXsx_NtCs6IAuOt8vWmF_3syn10punctuatedINtB1z_11PrivateIterBJ_NtNtB1B_5token5CommaENtNtNtNtB5_4iter6traits12double_ended19DoubleEndedIterator9next_back0ECscP4KCwp5Z66_14zerovec_derive, symObjAddr: 0x168, symBinAddr: 0x2C0C8, symSize: 0xA8 }
  - { offset: 0x7C0B4, size: 0x8, addend: 0x0, symName: __RINvMNtCsfvfooZQ3Axs_4core6optionINtB3_6OptionRNtNtCs6IAuOt8vWmF_3syn4data7VariantE7or_elseNCNvXsw_NtBN_10punctuatedINtB1z_11PrivateIterBJ_NtNtBN_5token5CommaENtNtNtNtB5_4iter6traits8iterator8Iterator4nexts_0ECscP4KCwp5Z66_14zerovec_derive, symObjAddr: 0x210, symBinAddr: 0x2C170, symSize: 0xA8 }
  - { offset: 0x7C13D, size: 0x8, addend: 0x0, symName: __RINvMNtCsfvfooZQ3Axs_4core6optionINtB3_6OptionRNtNtCs6IAuOt8vWmF_3syn4data7VariantE7or_elseNCNvXsx_NtBN_10punctuatedINtB1z_11PrivateIterBJ_NtNtBN_5token5CommaENtNtNtNtB5_4iter6traits12double_ended19DoubleEndedIterator9next_back0ECscP4KCwp5Z66_14zerovec_derive, symObjAddr: 0x2B8, symBinAddr: 0x2C218, symSize: 0xA8 }
  - { offset: 0x7C1B9, size: 0x8, addend: 0x0, symName: __RINvMNtCsfvfooZQ3Axs_4core6optionINtB3_6OptionRNtNtCs6IAuOt8vWmF_3syn4path15GenericArgumentE7or_elseNCNvXsw_NtBN_10punctuatedINtB1I_11PrivateIterBJ_NtNtBN_5token5CommaENtNtNtNtB5_4iter6traits8iterator8Iterator4nexts_0ECscP4KCwp5Z66_14zerovec_derive, symObjAddr: 0x360, symBinAddr: 0x2C2C0, symSize: 0xA8 }
  - { offset: 0x7C242, size: 0x8, addend: 0x0, symName: __RINvMNtCsfvfooZQ3Axs_4core6optionINtB3_6OptionRNtNtCs6IAuOt8vWmF_3syn4path15GenericArgumentE7or_elseNCNvXsx_NtBN_10punctuatedINtB1I_11PrivateIterBJ_NtNtBN_5token5CommaENtNtNtNtB5_4iter6traits12double_ended19DoubleEndedIterator9next_back0ECscP4KCwp5Z66_14zerovec_derive, symObjAddr: 0x408, symBinAddr: 0x2C368, symSize: 0xA8 }
  - { offset: 0x7C2BE, size: 0x8, addend: 0x0, symName: __RINvMNtCsfvfooZQ3Axs_4core6optionINtB3_6OptionRNtNtCs6IAuOt8vWmF_3syn8generics13LifetimeParamE3mapRNtNtBN_8lifetime8LifetimeNCNvNtCscP4KCwp5Z66_14zerovec_derive11make_varule16make_varule_impl0EB24_, symObjAddr: 0x4B0, symBinAddr: 0x2C410, symSize: 0x50 }
  - { offset: 0x7C336, size: 0x8, addend: 0x0, symName: __RINvMNtCsfvfooZQ3Axs_4core6optionINtB3_6OptionRRNtNtCs6IAuOt8vWmF_3syn8lifetime8LifetimeE3mapNtCs3cP53eQoTwO_11proc_macro211TokenStreamNCNvNtCscP4KCwp5Z66_14zerovec_derive11make_varule16make_varule_impls_0EB2f_, symObjAddr: 0x500, symBinAddr: 0x2C460, symSize: 0x6C }
  - { offset: 0x7C3A1, size: 0x8, addend: 0x0, symName: __RINvMNtCsfvfooZQ3Axs_4core6optionINtB3_6OptionRTNtCs3cP53eQoTwO_11proc_macro25IdentNtNtCs6IAuOt8vWmF_3syn5token5CommaEE3mapRBK_NCNCNvXsx_NtB1n_10punctuatedINtB2b_11PrivateIterBK_B1j_ENtNtNtNtB5_4iter6traits12double_ended19DoubleEndedIterator9next_back00ECscP4KCwp5Z66_14zerovec_derive, symObjAddr: 0x56C, symBinAddr: 0x2C4CC, symSize: 0x50 }
  - { offset: 0x7C40C, size: 0x8, addend: 0x0, symName: __RINvMNtCsfvfooZQ3Axs_4core6optionINtB3_6OptionRTNtCs3cP53eQoTwO_11proc_macro25IdentNtNtCs6IAuOt8vWmF_3syn5token5CommaEE3mapRBK_NCNvXsw_NtB1n_10punctuatedINtB29_11PrivateIterBK_B1j_ENtNtNtNtB5_4iter6traits8iterator8Iterator4next0ECscP4KCwp5Z66_14zerovec_derive, symObjAddr: 0x5BC, symBinAddr: 0x2C51C, symSize: 0x50 }
  - { offset: 0x7C477, size: 0x8, addend: 0x0, symName: __RINvMNtCsfvfooZQ3Axs_4core6optionINtB3_6OptionRTNtNtCs6IAuOt8vWmF_3syn4data7VariantNtNtBO_5token5CommaEE3mapRBK_NCNCNvXsx_NtBO_10punctuatedINtB1W_11PrivateIterBK_B1j_ENtNtNtNtB5_4iter6traits12double_ended19DoubleEndedIterator9next_back00ECscP4KCwp5Z66_14zerovec_derive, symObjAddr: 0x60C, symBinAddr: 0x2C56C, symSize: 0x50 }
  - { offset: 0x7C4E2, size: 0x8, addend: 0x0, symName: __RINvMNtCsfvfooZQ3Axs_4core6optionINtB3_6OptionRTNtNtCs6IAuOt8vWmF_3syn4data7VariantNtNtBO_5token5CommaEE3mapRBK_NCNvXsw_NtBO_10punctuatedINtB1U_11PrivateIterBK_B1j_ENtNtNtNtB5_4iter6traits8iterator8Iterator4next0ECscP4KCwp5Z66_14zerovec_derive, symObjAddr: 0x65C, symBinAddr: 0x2C5BC, symSize: 0x50 }
  - { offset: 0x7C54D, size: 0x8, addend: 0x0, symName: __RINvMNtCsfvfooZQ3Axs_4core6optionINtB3_6OptionRTNtNtCs6IAuOt8vWmF_3syn4path15GenericArgumentNtNtBO_5token5CommaEE3mapRBK_NCNCNvXsx_NtBO_10punctuatedINtB25_11PrivateIterBK_B1s_ENtNtNtNtB5_4iter6traits12double_ended19DoubleEndedIterator9next_back00ECscP4KCwp5Z66_14zerovec_derive, symObjAddr: 0x6AC, symBinAddr: 0x2C60C, symSize: 0x50 }
  - { offset: 0x7C5B8, size: 0x8, addend: 0x0, symName: __RINvMNtCsfvfooZQ3Axs_4core6optionINtB3_6OptionRTNtNtCs6IAuOt8vWmF_3syn4path15GenericArgumentNtNtBO_5token5CommaEE3mapRBK_NCNvXsw_NtBO_10punctuatedINtB23_11PrivateIterBK_B1s_ENtNtNtNtB5_4iter6traits8iterator8Iterator4next0ECscP4KCwp5Z66_14zerovec_derive, symObjAddr: 0x6FC, symBinAddr: 0x2C65C, symSize: 0x50 }
  - { offset: 0x7C74B, size: 0x8, addend: 0x0, symName: __RINvMs3_NtCsfvfooZQ3Axs_4core3fmtNtB6_9Arguments6new_v1Kj1_Kj0_ECscP4KCwp5Z66_14zerovec_derive, symObjAddr: 0x74C, symBinAddr: 0x2C6AC, symSize: 0x4C }
  - { offset: 0x7C7B1, size: 0x8, addend: 0x0, symName: __RINvMs3_NtCsfvfooZQ3Axs_4core3fmtNtB6_9Arguments6new_v1Kj3_Kj2_ECscP4KCwp5Z66_14zerovec_derive, symObjAddr: 0x798, symBinAddr: 0x2C6F8, symSize: 0x54 }
  - { offset: 0x7C7FD, size: 0x8, addend: 0x0, symName: __RINvMs5_NtNtCsfvfooZQ3Axs_4core3fmt8buildersNtB6_9DebugList7entriesRRhINtNtNtBa_5slice4iter4IterB14_EECscP4KCwp5Z66_14zerovec_derive, symObjAddr: 0x7EC, symBinAddr: 0x2C74C, symSize: 0xD0 }
  - { offset: 0x7D000, size: 0x8, addend: 0x0, symName: __RNvMNtCsfvfooZQ3Axs_4core6optionINtB2_6OptionINtNtB4_4cell4CellTyyEEE4takeCscP4KCwp5Z66_14zerovec_derive, symObjAddr: 0x2604, symBinAddr: 0x2E564, symSize: 0x3C }
  - { offset: 0x7D093, size: 0x8, addend: 0x0, symName: __RNvMNtCsfvfooZQ3Axs_4core6optionINtB2_6OptionINtNtCse1nGBsou5OW_5alloc5boxed3BoxNtCs3cP53eQoTwO_11proc_macro25IdentEE4takeCscP4KCwp5Z66_14zerovec_derive, symObjAddr: 0x2640, symBinAddr: 0x2E5A0, symSize: 0x28 }
  - { offset: 0x7D126, size: 0x8, addend: 0x0, symName: __RNvMNtCsfvfooZQ3Axs_4core6optionINtB2_6OptionINtNtCse1nGBsou5OW_5alloc5boxed3BoxNtCs3cP53eQoTwO_11proc_macro25IdentEE6as_refCscP4KCwp5Z66_14zerovec_derive, symObjAddr: 0x2668, symBinAddr: 0x2E5C8, symSize: 0x4C }
  - { offset: 0x7D18C, size: 0x8, addend: 0x0, symName: __RNvMNtCsfvfooZQ3Axs_4core6optionINtB2_6OptionINtNtCse1nGBsou5OW_5alloc5boxed3BoxNtCs3cP53eQoTwO_11proc_macro25IdentEE7is_noneCscP4KCwp5Z66_14zerovec_derive, symObjAddr: 0x26B4, symBinAddr: 0x2E614, symSize: 0x28 }
  - { offset: 0x7D1D6, size: 0x8, addend: 0x0, symName: __RNvMNtCsfvfooZQ3Axs_4core6optionINtB2_6OptionINtNtCse1nGBsou5OW_5alloc5boxed3BoxNtCs3cP53eQoTwO_11proc_macro25IdentEE7is_someCscP4KCwp5Z66_14zerovec_derive, symObjAddr: 0x26DC, symBinAddr: 0x2E63C, symSize: 0x28 }
  - { offset: 0x7D20F, size: 0x8, addend: 0x0, symName: __RNvMNtCsfvfooZQ3Axs_4core6optionINtB2_6OptionNtCs3cP53eQoTwO_11proc_macro211TokenStreamE7is_someCscP4KCwp5Z66_14zerovec_derive, symObjAddr: 0x2704, symBinAddr: 0x2E664, symSize: 0x2C }
  - { offset: 0x7D264, size: 0x8, addend: 0x0, symName: __RNvMNtCsfvfooZQ3Axs_4core6optionINtB2_6OptionNtCs3cP53eQoTwO_11proc_macro25IdentE7is_noneCscP4KCwp5Z66_14zerovec_derive, symObjAddr: 0x2730, symBinAddr: 0x2E690, symSize: 0x28 }
  - { offset: 0x7D2AE, size: 0x8, addend: 0x0, symName: __RNvMNtCsfvfooZQ3Axs_4core6optionINtB2_6OptionNtCs3cP53eQoTwO_11proc_macro25IdentE7is_someCscP4KCwp5Z66_14zerovec_derive, symObjAddr: 0x2758, symBinAddr: 0x2E6B8, symSize: 0x28 }
  - { offset: 0x7D310, size: 0x8, addend: 0x0, symName: __RNvMNtCsfvfooZQ3Axs_4core6optionINtB2_6OptionRNtNtCs6IAuOt8vWmF_3syn2ty4TypeE7is_noneCscP4KCwp5Z66_14zerovec_derive, symObjAddr: 0x2780, symBinAddr: 0x2E6E0, symSize: 0x28 }
  - { offset: 0x7D35A, size: 0x8, addend: 0x0, symName: __RNvMNtCsfvfooZQ3Axs_4core6optionINtB2_6OptionRNtNtCs6IAuOt8vWmF_3syn4data5FieldE6expectCscP4KCwp5Z66_14zerovec_derive, symObjAddr: 0x27A8, symBinAddr: 0x2E708, symSize: 0x5C }
  - { offset: 0x7D3BE, size: 0x8, addend: 0x0, symName: __RNvMNtCsfvfooZQ3Axs_4core6optionINtB2_6OptionRNtNtCs6IAuOt8vWmF_3syn4data5FieldE7is_noneCscP4KCwp5Z66_14zerovec_derive, symObjAddr: 0x2804, symBinAddr: 0x2E764, symSize: 0x28 }
  - { offset: 0x7D422, size: 0x8, addend: 0x0, symName: __RNvMNtCsfvfooZQ3Axs_4core6optionINtB2_6OptionRNtNtCs6IAuOt8vWmF_3syn8generics10ConstParamE7is_someCscP4KCwp5Z66_14zerovec_derive, symObjAddr: 0x282C, symBinAddr: 0x2E78C, symSize: 0x28 }
  - { offset: 0x7D45B, size: 0x8, addend: 0x0, symName: __RNvMNtCsfvfooZQ3Axs_4core6optionINtB2_6OptionRNtNtCs6IAuOt8vWmF_3syn8generics13LifetimeParamE7is_someCscP4KCwp5Z66_14zerovec_derive, symObjAddr: 0x2854, symBinAddr: 0x2E7B4, symSize: 0x28 }
  - { offset: 0x7D4A1, size: 0x8, addend: 0x0, symName: __RNvMNtCsfvfooZQ3Axs_4core6optionINtB2_6OptionRNtNtCs6IAuOt8vWmF_3syn8generics9TypeParamE7is_someCscP4KCwp5Z66_14zerovec_derive, symObjAddr: 0x287C, symBinAddr: 0x2E7DC, symSize: 0x28 }
  - { offset: 0x7D4DA, size: 0x8, addend: 0x0, symName: __RNvMNtCsfvfooZQ3Axs_4core6optionINtB2_6OptionRNtNtCs6IAuOt8vWmF_3syn8lifetime8LifetimeE6as_refCscP4KCwp5Z66_14zerovec_derive, symObjAddr: 0x28A4, symBinAddr: 0x2E804, symSize: 0x4C }
  - { offset: 0x7D540, size: 0x8, addend: 0x0, symName: __RNvMNtCsfvfooZQ3Axs_4core6optionINtB2_6OptionRNtNtCs6IAuOt8vWmF_3syn8lifetime8LifetimeE7is_noneCscP4KCwp5Z66_14zerovec_derive, symObjAddr: 0x28F0, symBinAddr: 0x2E850, symSize: 0x28 }
  - { offset: 0x7D58A, size: 0x8, addend: 0x0, symName: __RNvMNtCsfvfooZQ3Axs_4core6optionINtB2_6OptionRNtNtCs6IAuOt8vWmF_3syn8lifetime8LifetimeE7is_someCscP4KCwp5Z66_14zerovec_derive, symObjAddr: 0x2918, symBinAddr: 0x2E878, symSize: 0x28 }
  - { offset: 0x7D5B6, size: 0x8, addend: 0x0, symName: __RNvMNtCsfvfooZQ3Axs_4core6optionINtB2_6OptionhE9unwrap_orCscP4KCwp5Z66_14zerovec_derive, symObjAddr: 0x2940, symBinAddr: 0x2E8A0, symSize: 0x48 }
  - { offset: 0x7D60F, size: 0x8, addend: 0x0, symName: __RNvMNtNtNtCsfvfooZQ3Axs_4core4iter8adapters7step_byINtB2_6StepByINtNtNtB8_3ops5range5RangejEE3newCscP4KCwp5Z66_14zerovec_derive, symObjAddr: 0x2988, symBinAddr: 0x2E8E8, symSize: 0xE0 }
  - { offset: 0x7D665, size: 0x8, addend: 0x0, symName: __RNvMs0_NtCsfvfooZQ3Axs_4core6optionINtB5_6OptionRNtCs3cP53eQoTwO_11proc_macro25IdentE6clonedCscP4KCwp5Z66_14zerovec_derive, symObjAddr: 0x2A68, symBinAddr: 0x2E9C8, symSize: 0x6C }
  - { offset: 0x7D6AF, size: 0x8, addend: 0x0, symName: __RNvMs3_NtCsfvfooZQ3Axs_4core3fmtNtB5_9Arguments16new_v1_formattedCscP4KCwp5Z66_14zerovec_derive, symObjAddr: 0x2AD4, symBinAddr: 0x2EA34, symSize: 0x58 }
  - { offset: 0x7D747, size: 0x8, addend: 0x0, symName: __RNvXNtCs2cqEZUIJimJ_5quote9to_tokensRINtNtCsfvfooZQ3Axs_4core6option6OptionNtCs3cP53eQoTwO_11proc_macro211TokenStreamENtB2_8ToTokens9to_tokensCscP4KCwp5Z66_14zerovec_derive, symObjAddr: 0x2C1C, symBinAddr: 0x2EB7C, symSize: 0x40 }
  - { offset: 0x7D786, size: 0x8, addend: 0x0, symName: __RNvXNtCs2cqEZUIJimJ_5quote9to_tokensRNtNtCs6IAuOt8vWmF_3syn11restriction10VisibilityNtB2_8ToTokens9to_tokensCscP4KCwp5Z66_14zerovec_derive, symObjAddr: 0x2C5C, symBinAddr: 0x2EBBC, symSize: 0x40 }
  - { offset: 0x7D7CB, size: 0x8, addend: 0x0, symName: __RNvXs3_NtCs2cqEZUIJimJ_5quote9to_tokensINtNtCsfvfooZQ3Axs_4core6option6OptionNtCs3cP53eQoTwO_11proc_macro211TokenStreamENtB5_8ToTokens9to_tokensCscP4KCwp5Z66_14zerovec_derive, symObjAddr: 0x30E0, symBinAddr: 0x2F040, symSize: 0x88 }
  - { offset: 0x7D82D, size: 0x8, addend: 0x0, symName: __RNvYNtNtCs6IAuOt8vWmF_3syn11restriction10VisibilityNtNtCs2cqEZUIJimJ_5quote9to_tokens8ToTokens15to_token_streamCscP4KCwp5Z66_14zerovec_derive, symObjAddr: 0x413C, symBinAddr: 0x3009C, symSize: 0x8C }
  - { offset: 0x7D888, size: 0x8, addend: 0x0, symName: __RNvYINtNtNtNtCsfvfooZQ3Axs_4core4iter8adapters3map3MapINtNtB7_9enumerate9EnumerateINtNtNtBb_5slice4iter4IterNtNtCscP4KCwp5Z66_14zerovec_derive11make_varule12UnsizedFieldEENCNvMB1K_NtB1K_13UnsizedFields19maybe_multi_getters0ENtNtNtCs2cqEZUIJimJ_5quote9___private3ext14RepIteratorExt15quote_into_iterB1M_, symObjAddr: 0x40EC, symBinAddr: 0x3004C, symSize: 0x24 }
  - { offset: 0x7D8BD, size: 0x8, addend: 0x0, symName: __RNvYINtNtNtNtCsfvfooZQ3Axs_4core4iter8adapters3map3MapINtNtNtBb_5slice4iter4IterNtNtCscP4KCwp5Z66_14zerovec_derive5utils9FieldInfoENCNvNtB1k_6varule11derive_impl0ENtNtNtCs2cqEZUIJimJ_5quote9___private3ext14RepIteratorExt15quote_into_iterB1k_, symObjAddr: 0x4110, symBinAddr: 0x30070, symSize: 0x2C }
  - { offset: 0x7E097, size: 0x8, addend: 0x0, symName: __RINvMs_NtCse1nGBsou5OW_5alloc3vecINtB5_3VecNtNtCs6IAuOt8vWmF_3syn4attr9AttributeE10retain_mutNCINvB2_6retainNCNvNtCscP4KCwp5Z66_14zerovec_derive5utils22extract_single_tt_attr0E0EB1O_, symObjAddr: 0x0, symBinAddr: 0x3017C, symSize: 0xE4 }
  - { offset: 0x82F48, size: 0x8, addend: 0x0, symName: __RINvNvMs_NtCse1nGBsou5OW_5alloc3vecINtB7_3VecppE10retain_mut12process_loopNCINvMs_B7_IBy_NtNtCs6IAuOt8vWmF_3syn4attr9AttributeE6retainNCNvNtCscP4KCwp5Z66_14zerovec_derive5utils22extract_single_tt_attr0E0B1p_NtNtB9_5alloc6GlobalKb0_EB2e_, symObjAddr: 0xDA4, symBinAddr: 0x30F20, symSize: 0xE0 }
  - { offset: 0x8309C, size: 0x8, addend: 0x0, symName: __RINvNvMs_NtCse1nGBsou5OW_5alloc3vecINtB7_3VecppE10retain_mut12process_loopNCINvMs_B7_IBy_NtNtCs6IAuOt8vWmF_3syn4attr9AttributeE6retainNCNvNtCscP4KCwp5Z66_14zerovec_derive5utils22extract_single_tt_attr0E0B1p_NtNtB9_5alloc6GlobalKb1_EB2e_, symObjAddr: 0xE84, symBinAddr: 0x31000, symSize: 0x154 }
  - { offset: 0x8328B, size: 0x8, addend: 0x0, symName: __RINvNvMs_NtCse1nGBsou5OW_5alloc3vecINtB7_3VecppE10retain_mut12process_loopNCINvMs_B7_IBy_NtNtCs6IAuOt8vWmF_3syn4attr9AttributeE6retainNCNvNtCscP4KCwp5Z66_14zerovec_derive5utils26extract_zerovec_attributes0E0B1p_NtNtB9_5alloc6GlobalKb0_EB2e_, symObjAddr: 0xFD8, symBinAddr: 0x31154, symSize: 0xE0 }
  - { offset: 0x833DF, size: 0x8, addend: 0x0, symName: __RINvNvMs_NtCse1nGBsou5OW_5alloc3vecINtB7_3VecppE10retain_mut12process_loopNCINvMs_B7_IBy_NtNtCs6IAuOt8vWmF_3syn4attr9AttributeE6retainNCNvNtCscP4KCwp5Z66_14zerovec_derive5utils26extract_zerovec_attributes0E0B1p_NtNtB9_5alloc6GlobalKb1_EB2e_, symObjAddr: 0x10B8, symBinAddr: 0x31234, symSize: 0x154 }
  - { offset: 0x835CE, size: 0x8, addend: 0x0, symName: __RINvNvMs_NtCse1nGBsou5OW_5alloc3vecINtB7_3VecppE10retain_mut12process_loopNCINvMs_B7_IBy_NtNtCs6IAuOt8vWmF_3syn4attr9AttributeE6retainNCNvNtCscP4KCwp5Z66_14zerovec_derive5utils35extract_parenthetical_zerovec_attrs0E0B1p_NtNtB9_5alloc6GlobalKb0_EB2e_, symObjAddr: 0x120C, symBinAddr: 0x31388, symSize: 0xE0 }
  - { offset: 0x83722, size: 0x8, addend: 0x0, symName: __RINvNvMs_NtCse1nGBsou5OW_5alloc3vecINtB7_3VecppE10retain_mut12process_loopNCINvMs_B7_IBy_NtNtCs6IAuOt8vWmF_3syn4attr9AttributeE6retainNCNvNtCscP4KCwp5Z66_14zerovec_derive5utils35extract_parenthetical_zerovec_attrs0E0B1p_NtNtB9_5alloc6GlobalKb1_EB2e_, symObjAddr: 0x12EC, symBinAddr: 0x31468, symSize: 0x154 }
  - { offset: 0x83916, size: 0x8, addend: 0x0, symName: __RNvXNvMs_NtCse1nGBsou5OW_5alloc3vecINtB7_3VecppE10retain_mutINtB2_15BackshiftOnDropNtNtCs6IAuOt8vWmF_3syn4attr9AttributeNtNtB9_5alloc6GlobalENtNtNtCsfvfooZQ3Axs_4core3ops4drop4Drop4dropCscP4KCwp5Z66_14zerovec_derive, symObjAddr: 0x29C4, symBinAddr: 0x32B40, symSize: 0x124 }
  - { offset: 0x83B02, size: 0x8, addend: 0x0, symName: __RNCINvMs_NtCse1nGBsou5OW_5alloc3vecINtB7_3VecNtNtCs6IAuOt8vWmF_3syn4attr9AttributeE6retainNCNvNtCscP4KCwp5Z66_14zerovec_derive5utils22extract_single_tt_attr0E0B1w_, symObjAddr: 0x15D4, symBinAddr: 0x31750, symSize: 0x30 }
  - { offset: 0x83B5D, size: 0x8, addend: 0x0, symName: __RNCINvMs_NtCse1nGBsou5OW_5alloc3vecINtB7_3VecNtNtCs6IAuOt8vWmF_3syn4attr9AttributeE6retainNCNvNtCscP4KCwp5Z66_14zerovec_derive5utils26extract_zerovec_attributes0E0B1w_, symObjAddr: 0x1604, symBinAddr: 0x31780, symSize: 0x30 }
  - { offset: 0x83BB8, size: 0x8, addend: 0x0, symName: __RNCINvMs_NtCse1nGBsou5OW_5alloc3vecINtB7_3VecNtNtCs6IAuOt8vWmF_3syn4attr9AttributeE6retainNCNvNtCscP4KCwp5Z66_14zerovec_derive5utils35extract_parenthetical_zerovec_attrs0E0B1w_, symObjAddr: 0x1634, symBinAddr: 0x317B0, symSize: 0x30 }
  - { offset: 0x84493, size: 0x8, addend: 0x0, symName: __RINvXsd_NtCse1nGBsou5OW_5alloc3vecINtB6_3VecNtCs3cP53eQoTwO_11proc_macro211TokenStreamEINtNtNtNtCsfvfooZQ3Axs_4core4iter6traits7collect12FromIteratorBG_E9from_iterINtNtNtB1u_8adapters3map3MapINtNtNtB1w_5slice4iter4IterNtNtCscP4KCwp5Z66_14zerovec_derive5utils9FieldInfoENCNvNtB3y_11make_varule21make_zf_and_from_impl0EEB3y_, symObjAddr: 0x1440, symBinAddr: 0x315BC, symSize: 0x40 }
  - { offset: 0x844D3, size: 0x8, addend: 0x0, symName: __RINvXsd_NtCse1nGBsou5OW_5alloc3vecINtB6_3VecNtCs3cP53eQoTwO_11proc_macro211TokenStreamEINtNtNtNtCsfvfooZQ3Axs_4core4iter6traits7collect12FromIteratorBG_E9from_iterINtNtNtB1u_8adapters3map3MapINtNtNtB1w_5slice4iter4IterNtNtCscP4KCwp5Z66_14zerovec_derive5utils9FieldInfoENCNvNtB3y_3ule15make_ule_fields0EEB3y_, symObjAddr: 0x1480, symBinAddr: 0x315FC, symSize: 0x40 }
  - { offset: 0x84513, size: 0x8, addend: 0x0, symName: __RINvXsd_NtCse1nGBsou5OW_5alloc3vecINtB6_3VecNtNtCscP4KCwp5Z66_14zerovec_derive5utils9FieldInfoEINtNtNtNtCsfvfooZQ3Axs_4core4iter6traits7collect12FromIteratorBG_E9from_iterINtNtNtB1C_8adapters3map3MapINtNtB2O_9enumerate9EnumerateINtNtB2O_4take4TakeINtNtCs6IAuOt8vWmF_3syn10punctuated4IterNtNtB42_4data5FieldEEENCINvMs0_BI_BG_9make_listB3E_E0EEBK_, symObjAddr: 0x14C0, symBinAddr: 0x3163C, symSize: 0x3C }
  - { offset: 0x84554, size: 0x8, addend: 0x0, symName: __RINvXsd_NtCse1nGBsou5OW_5alloc3vecINtB6_3VecNtNtCscP4KCwp5Z66_14zerovec_derive5utils9FieldInfoEINtNtNtNtCsfvfooZQ3Axs_4core4iter6traits7collect12FromIteratorBG_E9from_iterINtNtNtB1C_8adapters3map3MapINtNtB2O_9enumerate9EnumerateINtNtCs6IAuOt8vWmF_3syn10punctuated4IterNtNtB3J_4data5FieldEENCINvMs0_BI_BG_9make_listB3E_E0EEBK_, symObjAddr: 0x14FC, symBinAddr: 0x31678, symSize: 0x3C }
  - { offset: 0x84595, size: 0x8, addend: 0x0, symName: __RINvXsd_NtCse1nGBsou5OW_5alloc3vecINtB6_3VecRhEINtNtNtNtCsfvfooZQ3Axs_4core4iter6traits7collect12FromIteratorBG_E9from_iterINtNtNtNtCscOYdFFY2T5N_3std11collections4hash3set4IterhEECscP4KCwp5Z66_14zerovec_derive, symObjAddr: 0x1538, symBinAddr: 0x316B4, symSize: 0x3C }
  - { offset: 0x845DC, size: 0x8, addend: 0x0, symName: __RINvXsh_NtCse1nGBsou5OW_5alloc3vecINtB6_3VecNtCs3cP53eQoTwO_11proc_macro25IdentEINtNtNtNtCsfvfooZQ3Axs_4core4iter6traits7collect6ExtendBG_E6extendINtNtNtB1n_8adapters6cloned6ClonedINtNtCs6IAuOt8vWmF_3syn10punctuated4IterBG_EEECscP4KCwp5Z66_14zerovec_derive, symObjAddr: 0x1574, symBinAddr: 0x316F0, symSize: 0x60 }
  - { offset: 0x8463B, size: 0x8, addend: 0x0, symName: __RNCINvMsi_NtCse1nGBsou5OW_5alloc3vecINtB8_3VecNtCs3cP53eQoTwO_11proc_macro211TokenStreamE14extend_trustedINtNtNtNtCsfvfooZQ3Axs_4core4iter8adapters3map3MapINtNtNtB1O_5slice4iter4IterNtNtCscP4KCwp5Z66_14zerovec_derive5utils9FieldInfoENCNvNtB2Y_11make_varule21make_zf_and_from_impl0EE0B2Y_, symObjAddr: 0x1664, symBinAddr: 0x317E0, symSize: 0x3C }
  - { offset: 0x846F0, size: 0x8, addend: 0x0, symName: __RNCINvMsi_NtCse1nGBsou5OW_5alloc3vecINtB8_3VecNtCs3cP53eQoTwO_11proc_macro211TokenStreamE14extend_trustedINtNtNtNtCsfvfooZQ3Axs_4core4iter8adapters3map3MapINtNtNtB1O_5slice4iter4IterNtNtCscP4KCwp5Z66_14zerovec_derive5utils9FieldInfoENCNvNtB2Y_3ule15make_ule_fields0EE0B2Y_, symObjAddr: 0x16A0, symBinAddr: 0x3181C, symSize: 0x3C }
  - { offset: 0x84ADA, size: 0x8, addend: 0x0, symName: __RNvXNtNtCse1nGBsou5OW_5alloc3vec11spec_extendINtB4_3VecNtCs3cP53eQoTwO_11proc_macro25IdentEINtB2_10SpecExtendBR_INtNtNtNtCsfvfooZQ3Axs_4core4iter8adapters6cloned6ClonedINtNtCs6IAuOt8vWmF_3syn10punctuated4IterBR_EEE11spec_extendCscP4KCwp5Z66_14zerovec_derive, symObjAddr: 0x2214, symBinAddr: 0x32390, symSize: 0x34 }
  - { offset: 0x84B2B, size: 0x8, addend: 0x0, symName: __RNvXNtNtCse1nGBsou5OW_5alloc3vec11spec_extendINtB4_3VecNtNtCscP4KCwp5Z66_14zerovec_derive5utils9FieldInfoEINtB2_10SpecExtendBR_INtNtNtNtCsfvfooZQ3Axs_4core4iter8adapters3map3MapINtNtB26_9enumerate9EnumerateINtNtB26_4take4TakeINtNtCs6IAuOt8vWmF_3syn10punctuated4IterNtNtB3G_4data5FieldEEENCINvMs0_BT_BR_9make_listB3i_E0EE11spec_extendBV_, symObjAddr: 0x2248, symBinAddr: 0x323C4, symSize: 0x24 }
  - { offset: 0x84B7D, size: 0x8, addend: 0x0, symName: __RNvXNtNtCse1nGBsou5OW_5alloc3vec11spec_extendINtB4_3VecNtNtCscP4KCwp5Z66_14zerovec_derive5utils9FieldInfoEINtB2_10SpecExtendBR_INtNtNtNtCsfvfooZQ3Axs_4core4iter8adapters3map3MapINtNtB26_9enumerate9EnumerateINtNtCs6IAuOt8vWmF_3syn10punctuated4IterNtNtB3n_4data5FieldEENCINvMs0_BT_BR_9make_listB3i_E0EE11spec_extendBV_, symObjAddr: 0x226C, symBinAddr: 0x323E8, symSize: 0x24 }
  - { offset: 0x84BCF, size: 0x8, addend: 0x0, symName: __RNvXNtNtCse1nGBsou5OW_5alloc3vec11spec_extendINtB4_3VecRhEINtB2_10SpecExtendBR_INtNtNtNtCscOYdFFY2T5N_3std11collections4hash3set4IterhEE11spec_extendCscP4KCwp5Z66_14zerovec_derive, symObjAddr: 0x2290, symBinAddr: 0x3240C, symSize: 0x24 }
  - { offset: 0x84C27, size: 0x8, addend: 0x0, symName: __RNvXs_NtNtCse1nGBsou5OW_5alloc3vec11spec_extendINtB6_3VecNtCs3cP53eQoTwO_11proc_macro211TokenStreamEINtB4_10SpecExtendBT_INtNtNtNtCsfvfooZQ3Axs_4core4iter8adapters3map3MapINtNtNtB24_5slice4iter4IterNtNtCscP4KCwp5Z66_14zerovec_derive5utils9FieldInfoENCNvNtB3e_11make_varule21make_zf_and_from_impl0EE11spec_extendB3e_, symObjAddr: 0x2BD4, symBinAddr: 0x32D50, symSize: 0x34 }
  - { offset: 0x84C78, size: 0x8, addend: 0x0, symName: __RNvXs_NtNtCse1nGBsou5OW_5alloc3vec11spec_extendINtB6_3VecNtCs3cP53eQoTwO_11proc_macro211TokenStreamEINtB4_10SpecExtendBT_INtNtNtNtCsfvfooZQ3Axs_4core4iter8adapters3map3MapINtNtNtB24_5slice4iter4IterNtNtCscP4KCwp5Z66_14zerovec_derive5utils9FieldInfoENCNvNtB3e_3ule15make_ule_fields0EE11spec_extendB3e_, symObjAddr: 0x2C08, symBinAddr: 0x32D84, symSize: 0x34 }
  - { offset: 0x84CD5, size: 0x8, addend: 0x0, symName: __RNvXNtNtCse1nGBsou5OW_5alloc3vec14spec_from_iterINtB4_3VecNtCs3cP53eQoTwO_11proc_macro211TokenStreamEINtB2_12SpecFromIterBU_INtNtNtNtCsfvfooZQ3Axs_4core4iter8adapters3map3MapINtNtNtB27_5slice4iter4IterNtNtCscP4KCwp5Z66_14zerovec_derive5utils9FieldInfoENCNvNtB3h_11make_varule21make_zf_and_from_impl0EE9from_iterB3h_, symObjAddr: 0x22B4, symBinAddr: 0x32430, symSize: 0x2C }
  - { offset: 0x84D13, size: 0x8, addend: 0x0, symName: __RNvXNtNtCse1nGBsou5OW_5alloc3vec14spec_from_iterINtB4_3VecNtCs3cP53eQoTwO_11proc_macro211TokenStreamEINtB2_12SpecFromIterBU_INtNtNtNtCsfvfooZQ3Axs_4core4iter8adapters3map3MapINtNtNtB27_5slice4iter4IterNtNtCscP4KCwp5Z66_14zerovec_derive5utils9FieldInfoENCNvNtB3h_3ule15make_ule_fields0EE9from_iterB3h_, symObjAddr: 0x22E0, symBinAddr: 0x3245C, symSize: 0x2C }
  - { offset: 0x84D51, size: 0x8, addend: 0x0, symName: __RNvXNtNtCse1nGBsou5OW_5alloc3vec14spec_from_iterINtB4_3VecNtNtCscP4KCwp5Z66_14zerovec_derive5utils9FieldInfoEINtB2_12SpecFromIterBU_INtNtNtNtCsfvfooZQ3Axs_4core4iter8adapters3map3MapINtNtB2b_9enumerate9EnumerateINtNtB2b_4take4TakeINtNtCs6IAuOt8vWmF_3syn10punctuated4IterNtNtB3L_4data5FieldEEENCINvMs0_BW_BU_9make_listB3n_E0EE9from_iterBY_, symObjAddr: 0x230C, symBinAddr: 0x32488, symSize: 0x14 }
  - { offset: 0x84D90, size: 0x8, addend: 0x0, symName: __RNvXNtNtCse1nGBsou5OW_5alloc3vec14spec_from_iterINtB4_3VecNtNtCscP4KCwp5Z66_14zerovec_derive5utils9FieldInfoEINtB2_12SpecFromIterBU_INtNtNtNtCsfvfooZQ3Axs_4core4iter8adapters3map3MapINtNtB2b_9enumerate9EnumerateINtNtCs6IAuOt8vWmF_3syn10punctuated4IterNtNtB3s_4data5FieldEENCINvMs0_BW_BU_9make_listB3n_E0EE9from_iterBY_, symObjAddr: 0x2320, symBinAddr: 0x3249C, symSize: 0x14 }
  - { offset: 0x84DCF, size: 0x8, addend: 0x0, symName: __RNvXNtNtCse1nGBsou5OW_5alloc3vec14spec_from_iterINtB4_3VecRhEINtB2_12SpecFromIterBU_INtNtNtNtCscOYdFFY2T5N_3std11collections4hash3set4IterhEE9from_iterCscP4KCwp5Z66_14zerovec_derive, symObjAddr: 0x2334, symBinAddr: 0x324B0, symSize: 0x14 }
  - { offset: 0x84E1A, size: 0x8, addend: 0x0, symName: __RNvXNtNtCse1nGBsou5OW_5alloc3vec21spec_from_iter_nestedINtB4_3VecNtNtCscP4KCwp5Z66_14zerovec_derive5utils9FieldInfoEINtB2_18SpecFromIterNestedB11_INtNtNtNtCsfvfooZQ3Axs_4core4iter8adapters3map3MapINtNtB2p_9enumerate9EnumerateINtNtB2p_4take4TakeINtNtCs6IAuOt8vWmF_3syn10punctuated4IterNtNtB3Z_4data5FieldEEENCINvMs0_B13_B11_9make_listB3B_E0EE9from_iterB15_, symObjAddr: 0x2348, symBinAddr: 0x324C4, symSize: 0x23C }
  - { offset: 0x85039, size: 0x8, addend: 0x0, symName: __RNvXNtNtCse1nGBsou5OW_5alloc3vec21spec_from_iter_nestedINtB4_3VecNtNtCscP4KCwp5Z66_14zerovec_derive5utils9FieldInfoEINtB2_18SpecFromIterNestedB11_INtNtNtNtCsfvfooZQ3Axs_4core4iter8adapters3map3MapINtNtB2p_9enumerate9EnumerateINtNtCs6IAuOt8vWmF_3syn10punctuated4IterNtNtB3G_4data5FieldEENCINvMs0_B13_B11_9make_listB3B_E0EE9from_iterB15_, symObjAddr: 0x2584, symBinAddr: 0x32700, symSize: 0x23C }
  - { offset: 0x85258, size: 0x8, addend: 0x0, symName: __RNvXNtNtCse1nGBsou5OW_5alloc3vec21spec_from_iter_nestedINtB4_3VecRhEINtB2_18SpecFromIterNestedB11_INtNtNtNtCscOYdFFY2T5N_3std11collections4hash3set4IterhEE9from_iterCscP4KCwp5Z66_14zerovec_derive, symObjAddr: 0x27C0, symBinAddr: 0x3293C, symSize: 0x204 }
  - { offset: 0x8547C, size: 0x8, addend: 0x0, symName: __RNvXs_NtNtCse1nGBsou5OW_5alloc3vec21spec_from_iter_nestedINtB6_3VecNtCs3cP53eQoTwO_11proc_macro211TokenStreamEINtB4_18SpecFromIterNestedB13_INtNtNtNtCsfvfooZQ3Axs_4core4iter8adapters3map3MapINtNtNtB2n_5slice4iter4IterNtNtCscP4KCwp5Z66_14zerovec_derive5utils9FieldInfoENCNvNtB3x_11make_varule21make_zf_and_from_impl0EE9from_iterB3x_, symObjAddr: 0x2C3C, symBinAddr: 0x32DB8, symSize: 0x168 }
  - { offset: 0x85552, size: 0x8, addend: 0x0, symName: __RNvXs_NtNtCse1nGBsou5OW_5alloc3vec21spec_from_iter_nestedINtB6_3VecNtCs3cP53eQoTwO_11proc_macro211TokenStreamEINtB4_18SpecFromIterNestedB13_INtNtNtNtCsfvfooZQ3Axs_4core4iter8adapters3map3MapINtNtNtB2n_5slice4iter4IterNtNtCscP4KCwp5Z66_14zerovec_derive5utils9FieldInfoENCNvNtB3x_3ule15make_ule_fields0EE9from_iterB3x_, symObjAddr: 0x2DA4, symBinAddr: 0x32F20, symSize: 0x168 }
  - { offset: 0x8562F, size: 0x8, addend: 0x0, symName: __RNvXs6_NtCse1nGBsou5OW_5alloc3vecINtB5_3VecNtCs3cP53eQoTwO_11proc_macro211TokenStreamENtNtNtCsfvfooZQ3Axs_4core3ops5deref5Deref5derefCscP4KCwp5Z66_14zerovec_derive, symObjAddr: 0x2B20, symBinAddr: 0x32C9C, symSize: 0x24 }
  - { offset: 0x8566F, size: 0x8, addend: 0x0, symName: __RNvXs6_NtCse1nGBsou5OW_5alloc3vecINtB5_3VecNtCs3cP53eQoTwO_11proc_macro25IdentENtNtNtCsfvfooZQ3Axs_4core3ops5deref5Deref5derefCscP4KCwp5Z66_14zerovec_derive, symObjAddr: 0x2B44, symBinAddr: 0x32CC0, symSize: 0x24 }
  - { offset: 0x856AF, size: 0x8, addend: 0x0, symName: __RNvXs6_NtCse1nGBsou5OW_5alloc3vecINtB5_3VecNtNtCscP4KCwp5Z66_14zerovec_derive11make_varule12UnsizedFieldENtNtNtCsfvfooZQ3Axs_4core3ops5deref5Deref5derefBJ_, symObjAddr: 0x2B68, symBinAddr: 0x32CE4, symSize: 0x24 }
  - { offset: 0x856EF, size: 0x8, addend: 0x0, symName: __RNvXs6_NtCse1nGBsou5OW_5alloc3vecINtB5_3VecNtNtCscP4KCwp5Z66_14zerovec_derive5utils9FieldInfoENtNtNtCsfvfooZQ3Axs_4core3ops5deref5Deref5derefBJ_, symObjAddr: 0x2B8C, symBinAddr: 0x32D08, symSize: 0x24 }
  - { offset: 0x8572F, size: 0x8, addend: 0x0, symName: __RNvXs6_NtCse1nGBsou5OW_5alloc3vecINtB5_3VecTNtCs3cP53eQoTwO_11proc_macro25IdentNtNtCs6IAuOt8vWmF_3syn5token5CommaEENtNtNtCsfvfooZQ3Axs_4core3ops5deref5Deref5derefCscP4KCwp5Z66_14zerovec_derive, symObjAddr: 0x2BB0, symBinAddr: 0x32D2C, symSize: 0x24 }
  - { offset: 0x85865, size: 0x8, addend: 0x0, symName: __RNvXsb_NtCse1nGBsou5OW_5alloc3vecINtB5_3VecINtNtCsfvfooZQ3Axs_4core6option6OptionNtCs3cP53eQoTwO_11proc_macro25IdentEEINtNtNtBK_3ops5index5IndexjE5indexCscP4KCwp5Z66_14zerovec_derive, symObjAddr: 0x2F0C, symBinAddr: 0x33088, symSize: 0x84 }
  - { offset: 0x859E7, size: 0x8, addend: 0x0, symName: __RNvXsb_NtCse1nGBsou5OW_5alloc3vecINtB5_3VecNtCs3cP53eQoTwO_11proc_macro25IdentEINtNtNtCsfvfooZQ3Axs_4core3ops5index5IndexjE5indexCscP4KCwp5Z66_14zerovec_derive, symObjAddr: 0x2F90, symBinAddr: 0x3310C, symSize: 0x84 }
  - { offset: 0x85B69, size: 0x8, addend: 0x0, symName: __RNvXsb_NtCse1nGBsou5OW_5alloc3vecINtB5_3VecNtNtCs6IAuOt8vWmF_3syn4attr9AttributeEINtNtNtCsfvfooZQ3Axs_4core3ops5index5IndexjE5indexCscP4KCwp5Z66_14zerovec_derive, symObjAddr: 0x3014, symBinAddr: 0x33190, symSize: 0x84 }
  - { offset: 0x85CEB, size: 0x8, addend: 0x0, symName: __RNvXsb_NtCse1nGBsou5OW_5alloc3vecINtB5_3VecNtNtCscP4KCwp5Z66_14zerovec_derive11make_varule12UnsizedFieldEINtNtNtCsfvfooZQ3Axs_4core3ops5index5IndexjE5indexBJ_, symObjAddr: 0x3098, symBinAddr: 0x33214, symSize: 0x84 }
  - { offset: 0x85E73, size: 0x8, addend: 0x0, symName: __RNvXse_NtCse1nGBsou5OW_5alloc3vecINtB5_3VecNtCs3cP53eQoTwO_11proc_macro25IdentENtNtNtNtCsfvfooZQ3Axs_4core4iter6traits7collect12IntoIterator9into_iterCscP4KCwp5Z66_14zerovec_derive, symObjAddr: 0x311C, symBinAddr: 0x33298, symSize: 0xE4 }
  - { offset: 0x8610B, size: 0x8, addend: 0x0, symName: __RNvXsn_NtCse1nGBsou5OW_5alloc3vecINtB5_3VecINtNtCsfvfooZQ3Axs_4core6option6OptionNtCs3cP53eQoTwO_11proc_macro25IdentEENtNtNtBK_3ops4drop4Drop4dropCscP4KCwp5Z66_14zerovec_derive, symObjAddr: 0x3200, symBinAddr: 0x3337C, symSize: 0x38 }
  - { offset: 0x861BB, size: 0x8, addend: 0x0, symName: __RNvXsn_NtCse1nGBsou5OW_5alloc3vecINtB5_3VecNtCs3cP53eQoTwO_11proc_macro211TokenStreamENtNtNtCsfvfooZQ3Axs_4core3ops4drop4Drop4dropCscP4KCwp5Z66_14zerovec_derive, symObjAddr: 0x3238, symBinAddr: 0x333B4, symSize: 0x38 }
  - { offset: 0x8626B, size: 0x8, addend: 0x0, symName: __RNvXsn_NtCse1nGBsou5OW_5alloc3vecINtB5_3VecNtCs3cP53eQoTwO_11proc_macro25IdentENtNtNtCsfvfooZQ3Axs_4core3ops4drop4Drop4dropCscP4KCwp5Z66_14zerovec_derive, symObjAddr: 0x3270, symBinAddr: 0x333EC, symSize: 0x38 }
  - { offset: 0x8631B, size: 0x8, addend: 0x0, symName: __RNvXsn_NtCse1nGBsou5OW_5alloc3vecINtB5_3VecNtNtCscP4KCwp5Z66_14zerovec_derive11make_varule12UnsizedFieldENtNtNtCsfvfooZQ3Axs_4core3ops4drop4Drop4dropBJ_, symObjAddr: 0x32A8, symBinAddr: 0x33424, symSize: 0x38 }
  - { offset: 0x863CB, size: 0x8, addend: 0x0, symName: __RNvXsn_NtCse1nGBsou5OW_5alloc3vecINtB5_3VecNtNtCscP4KCwp5Z66_14zerovec_derive5utils9FieldInfoENtNtNtCsfvfooZQ3Axs_4core3ops4drop4Drop4dropBJ_, symObjAddr: 0x32E0, symBinAddr: 0x3345C, symSize: 0x38 }
  - { offset: 0x8647B, size: 0x8, addend: 0x0, symName: __RNvXsn_NtCse1nGBsou5OW_5alloc3vecINtB5_3VecRhENtNtNtCsfvfooZQ3Axs_4core3ops4drop4Drop4dropCscP4KCwp5Z66_14zerovec_derive, symObjAddr: 0x3318, symBinAddr: 0x33494, symSize: 0x24 }
  - { offset: 0x8652B, size: 0x8, addend: 0x0, symName: __RNvXsn_NtCse1nGBsou5OW_5alloc3vecINtB5_3VecTNtCs3cP53eQoTwO_11proc_macro25IdentNtNtCs6IAuOt8vWmF_3syn5token5CommaEENtNtNtCsfvfooZQ3Axs_4core3ops4drop4Drop4dropCscP4KCwp5Z66_14zerovec_derive, symObjAddr: 0x333C, symBinAddr: 0x334B8, symSize: 0x38 }
  - { offset: 0x865E1, size: 0x8, addend: 0x0, symName: __RNvXsp_NtCse1nGBsou5OW_5alloc3vecINtB5_3VecRhENtNtCsfvfooZQ3Axs_4core3fmt5Debug3fmtCscP4KCwp5Z66_14zerovec_derive, symObjAddr: 0x3374, symBinAddr: 0x334F0, symSize: 0x70 }
  - { offset: 0x8CCDB, size: 0x8, addend: 0x0, symName: __RINvMs_NtCse1nGBsou5OW_5alloc3vecINtB5_3VecNtNtCs6IAuOt8vWmF_3syn4attr9AttributeE10retain_mutNCINvB2_6retainNCNvNtCscP4KCwp5Z66_14zerovec_derive5utils22extract_single_tt_attr0E0EB1O_, symObjAddr: 0x0, symBinAddr: 0x3017C, symSize: 0xE4 }
  - { offset: 0x8CE13, size: 0x8, addend: 0x0, symName: __RINvMs_NtCse1nGBsou5OW_5alloc3vecINtB5_3VecNtNtCs6IAuOt8vWmF_3syn4attr9AttributeE10retain_mutNCINvB2_6retainNCNvNtCscP4KCwp5Z66_14zerovec_derive5utils26extract_zerovec_attributes0E0EB1O_, symObjAddr: 0xE4, symBinAddr: 0x30260, symSize: 0xE4 }
  - { offset: 0x8CF58, size: 0x8, addend: 0x0, symName: __RINvMs_NtCse1nGBsou5OW_5alloc3vecINtB5_3VecNtNtCs6IAuOt8vWmF_3syn4attr9AttributeE10retain_mutNCINvB2_6retainNCNvNtCscP4KCwp5Z66_14zerovec_derive5utils35extract_parenthetical_zerovec_attrs0E0EB1O_, symObjAddr: 0x1C8, symBinAddr: 0x30344, symSize: 0xE4 }
  - { offset: 0x8D02C, size: 0x8, addend: 0x0, symName: __RINvMs_NtCse1nGBsou5OW_5alloc3vecINtB5_3VecNtNtCs6IAuOt8vWmF_3syn4attr9AttributeE6retainNCNvNtCscP4KCwp5Z66_14zerovec_derive5utils22extract_single_tt_attr0EB1u_, symObjAddr: 0x2AC, symBinAddr: 0x30428, symSize: 0x40 }
  - { offset: 0x8D07A, size: 0x8, addend: 0x0, symName: __RINvMs_NtCse1nGBsou5OW_5alloc3vecINtB5_3VecNtNtCs6IAuOt8vWmF_3syn4attr9AttributeE6retainNCNvNtCscP4KCwp5Z66_14zerovec_derive5utils26extract_zerovec_attributes0EB1u_, symObjAddr: 0x2EC, symBinAddr: 0x30468, symSize: 0x4C }
  - { offset: 0x8D0C7, size: 0x8, addend: 0x0, symName: __RINvMs_NtCse1nGBsou5OW_5alloc3vecINtB5_3VecNtNtCs6IAuOt8vWmF_3syn4attr9AttributeE6retainNCNvNtCscP4KCwp5Z66_14zerovec_derive5utils35extract_parenthetical_zerovec_attrs0EB1u_, symObjAddr: 0x338, symBinAddr: 0x304B4, symSize: 0x40 }
  - { offset: 0x8D392, size: 0x8, addend: 0x0, symName: __RINvMsi_NtCse1nGBsou5OW_5alloc3vecINtB6_3VecNtCs3cP53eQoTwO_11proc_macro211TokenStreamE14extend_trustedINtNtNtNtCsfvfooZQ3Axs_4core4iter8adapters3map3MapINtNtNtB1M_5slice4iter4IterNtNtCscP4KCwp5Z66_14zerovec_derive5utils9FieldInfoENCNvNtB2W_11make_varule21make_zf_and_from_impl0EEB2W_, symObjAddr: 0x378, symBinAddr: 0x304F4, symSize: 0x170 }
  - { offset: 0x8D62F, size: 0x8, addend: 0x0, symName: __RINvMsi_NtCse1nGBsou5OW_5alloc3vecINtB6_3VecNtCs3cP53eQoTwO_11proc_macro211TokenStreamE14extend_trustedINtNtNtNtCsfvfooZQ3Axs_4core4iter8adapters3map3MapINtNtNtB1M_5slice4iter4IterNtNtCscP4KCwp5Z66_14zerovec_derive5utils9FieldInfoENCNvNtB2W_3ule15make_ule_fields0EEB2W_, symObjAddr: 0x4E8, symBinAddr: 0x30664, symSize: 0x170 }
  - { offset: 0x8D9DC, size: 0x8, addend: 0x0, symName: __RINvMsi_NtCse1nGBsou5OW_5alloc3vecINtB6_3VecNtCs3cP53eQoTwO_11proc_macro25IdentE16extend_desugaredINtNtNtNtCsfvfooZQ3Axs_4core4iter8adapters6cloned6ClonedINtNtCs6IAuOt8vWmF_3syn10punctuated4IterBG_EEECscP4KCwp5Z66_14zerovec_derive, symObjAddr: 0x658, symBinAddr: 0x307D4, symSize: 0x1E0 }
  - { offset: 0x8DDD3, size: 0x8, addend: 0x0, symName: __RINvMsi_NtCse1nGBsou5OW_5alloc3vecINtB6_3VecNtNtCscP4KCwp5Z66_14zerovec_derive5utils9FieldInfoE16extend_desugaredINtNtNtNtCsfvfooZQ3Axs_4core4iter8adapters3map3MapINtNtB1S_9enumerate9EnumerateINtNtB1S_4take4TakeINtNtCs6IAuOt8vWmF_3syn10punctuated4IterNtNtB3s_4data5FieldEEENCINvMs0_BI_BG_9make_listB34_E0EEBK_, symObjAddr: 0x838, symBinAddr: 0x309B4, symSize: 0x1FC }
  - { offset: 0x8E169, size: 0x8, addend: 0x0, symName: __RINvMsi_NtCse1nGBsou5OW_5alloc3vecINtB6_3VecNtNtCscP4KCwp5Z66_14zerovec_derive5utils9FieldInfoE16extend_desugaredINtNtNtNtCsfvfooZQ3Axs_4core4iter8adapters3map3MapINtNtB1S_9enumerate9EnumerateINtNtCs6IAuOt8vWmF_3syn10punctuated4IterNtNtB39_4data5FieldEENCINvMs0_BI_BG_9make_listB34_E0EEBK_, symObjAddr: 0xA34, symBinAddr: 0x30BB0, symSize: 0x1FC }
  - { offset: 0x8E6E6, size: 0x8, addend: 0x0, symName: __RINvMsi_NtCse1nGBsou5OW_5alloc3vecINtB6_3VecRhE16extend_desugaredINtNtNtNtCscOYdFFY2T5N_3std11collections4hash3set4IterhEECscP4KCwp5Z66_14zerovec_derive, symObjAddr: 0xC30, symBinAddr: 0x30DAC, symSize: 0x174 }
  - { offset: 0x8EC86, size: 0x8, addend: 0x0, symName: __RNvMNtCse1nGBsou5OW_5alloc3vecINtB2_3VecINtNtCsfvfooZQ3Axs_4core6option6OptionNtCs3cP53eQoTwO_11proc_macro25IdentEE3newCscP4KCwp5Z66_14zerovec_derive, symObjAddr: 0x16DC, symBinAddr: 0x31858, symSize: 0x14 }
  - { offset: 0x8ECA3, size: 0x8, addend: 0x0, symName: __RNvMNtCse1nGBsou5OW_5alloc3vecINtB2_3VecNtCs3cP53eQoTwO_11proc_macro211TokenStreamE3newCscP4KCwp5Z66_14zerovec_derive, symObjAddr: 0x16F0, symBinAddr: 0x3186C, symSize: 0x14 }
  - { offset: 0x8ECC0, size: 0x8, addend: 0x0, symName: __RNvMNtCse1nGBsou5OW_5alloc3vecINtB2_3VecNtCs3cP53eQoTwO_11proc_macro25IdentE3newCscP4KCwp5Z66_14zerovec_derive, symObjAddr: 0x1704, symBinAddr: 0x31880, symSize: 0x14 }
  - { offset: 0x8ECF7, size: 0x8, addend: 0x0, symName: __RNvMNtCse1nGBsou5OW_5alloc3vecINtB2_3VecNtNtCscP4KCwp5Z66_14zerovec_derive11make_varule12UnsizedFieldE3newBG_, symObjAddr: 0x1718, symBinAddr: 0x31894, symSize: 0x14 }
  - { offset: 0x8ED14, size: 0x8, addend: 0x0, symName: __RNvMNtCse1nGBsou5OW_5alloc3vecINtB2_3VecNtNtCscP4KCwp5Z66_14zerovec_derive5utils9FieldInfoE3newBG_, symObjAddr: 0x172C, symBinAddr: 0x318A8, symSize: 0x14 }
  - { offset: 0x8ED4F, size: 0x8, addend: 0x0, symName: __RNvMNtCse1nGBsou5OW_5alloc3vecINtB2_3VecTNtCs3cP53eQoTwO_11proc_macro25IdentNtNtCs6IAuOt8vWmF_3syn5token5CommaEE3newCscP4KCwp5Z66_14zerovec_derive, symObjAddr: 0x1740, symBinAddr: 0x318BC, symSize: 0x14 }
  - { offset: 0x8EE7F, size: 0x8, addend: 0x0, symName: __RNvMs_NtCse1nGBsou5OW_5alloc3vecINtB4_3VecINtNtCsfvfooZQ3Axs_4core6option6OptionNtCs3cP53eQoTwO_11proc_macro25IdentEE4pushCscP4KCwp5Z66_14zerovec_derive, symObjAddr: 0x1754, symBinAddr: 0x318D0, symSize: 0x108 }
  - { offset: 0x8F112, size: 0x8, addend: 0x0, symName: __RNvMs_NtCse1nGBsou5OW_5alloc3vecINtB4_3VecNtCs3cP53eQoTwO_11proc_macro211TokenStreamE4pushCscP4KCwp5Z66_14zerovec_derive, symObjAddr: 0x185C, symBinAddr: 0x319D8, symSize: 0x100 }
  - { offset: 0x8F3F6, size: 0x8, addend: 0x0, symName: __RNvMs_NtCse1nGBsou5OW_5alloc3vecINtB4_3VecNtCs3cP53eQoTwO_11proc_macro211TokenStreamE7reserveCscP4KCwp5Z66_14zerovec_derive, symObjAddr: 0x195C, symBinAddr: 0x31AD8, symSize: 0xC8 }
  - { offset: 0x8F601, size: 0x8, addend: 0x0, symName: __RNvMs_NtCse1nGBsou5OW_5alloc3vecINtB4_3VecNtCs3cP53eQoTwO_11proc_macro211TokenStreamE8as_sliceCscP4KCwp5Z66_14zerovec_derive, symObjAddr: 0x1A24, symBinAddr: 0x31BA0, symSize: 0x64 }
  - { offset: 0x8F6BB, size: 0x8, addend: 0x0, symName: __RNvMs_NtCse1nGBsou5OW_5alloc3vecINtB4_3VecNtCs3cP53eQoTwO_11proc_macro25IdentE3lenCscP4KCwp5Z66_14zerovec_derive, symObjAddr: 0x1A88, symBinAddr: 0x31C04, symSize: 0x18 }
  - { offset: 0x8F806, size: 0x8, addend: 0x0, symName: __RNvMs_NtCse1nGBsou5OW_5alloc3vecINtB4_3VecNtCs3cP53eQoTwO_11proc_macro25IdentE7reserveCscP4KCwp5Z66_14zerovec_derive, symObjAddr: 0x1AA0, symBinAddr: 0x31C1C, symSize: 0xC8 }
  - { offset: 0x8FA04, size: 0x8, addend: 0x0, symName: __RNvMs_NtCse1nGBsou5OW_5alloc3vecINtB4_3VecNtCs3cP53eQoTwO_11proc_macro25IdentE8as_sliceCscP4KCwp5Z66_14zerovec_derive, symObjAddr: 0x1B68, symBinAddr: 0x31CE4, symSize: 0x64 }
  - { offset: 0x8FACB, size: 0x8, addend: 0x0, symName: __RNvMs_NtCse1nGBsou5OW_5alloc3vecINtB4_3VecNtNtCscP4KCwp5Z66_14zerovec_derive11make_varule12UnsizedFieldE3lenBI_, symObjAddr: 0x1BCC, symBinAddr: 0x31D48, symSize: 0x18 }
  - { offset: 0x8FC13, size: 0x8, addend: 0x0, symName: __RNvMs_NtCse1nGBsou5OW_5alloc3vecINtB4_3VecNtNtCscP4KCwp5Z66_14zerovec_derive11make_varule12UnsizedFieldE4pushBI_, symObjAddr: 0x1BE4, symBinAddr: 0x31D60, symSize: 0x118 }
  - { offset: 0x8FE5F, size: 0x8, addend: 0x0, symName: __RNvMs_NtCse1nGBsou5OW_5alloc3vecINtB4_3VecNtNtCscP4KCwp5Z66_14zerovec_derive11make_varule12UnsizedFieldE8as_sliceBI_, symObjAddr: 0x1CFC, symBinAddr: 0x31E78, symSize: 0x64 }
  - { offset: 0x8FF3E, size: 0x8, addend: 0x0, symName: __RNvMs_NtCse1nGBsou5OW_5alloc3vecINtB4_3VecNtNtCscP4KCwp5Z66_14zerovec_derive11make_varule12UnsizedFieldE8is_emptyBI_, symObjAddr: 0x1D60, symBinAddr: 0x31EDC, symSize: 0x20 }
  - { offset: 0x90070, size: 0x8, addend: 0x0, symName: __RNvMs_NtCse1nGBsou5OW_5alloc3vecINtB4_3VecNtNtCscP4KCwp5Z66_14zerovec_derive5utils9FieldInfoE4pushBI_, symObjAddr: 0x1D80, symBinAddr: 0x31EFC, symSize: 0x118 }
  - { offset: 0x9033B, size: 0x8, addend: 0x0, symName: __RNvMs_NtCse1nGBsou5OW_5alloc3vecINtB4_3VecNtNtCscP4KCwp5Z66_14zerovec_derive5utils9FieldInfoE7reserveBI_, symObjAddr: 0x1E98, symBinAddr: 0x32014, symSize: 0xC8 }
  - { offset: 0x90539, size: 0x8, addend: 0x0, symName: __RNvMs_NtCse1nGBsou5OW_5alloc3vecINtB4_3VecNtNtCscP4KCwp5Z66_14zerovec_derive5utils9FieldInfoE8as_sliceBI_, symObjAddr: 0x1F60, symBinAddr: 0x320DC, symSize: 0x64 }
  - { offset: 0x905F3, size: 0x8, addend: 0x0, symName: __RNvMs_NtCse1nGBsou5OW_5alloc3vecINtB4_3VecRhE3lenCscP4KCwp5Z66_14zerovec_derive, symObjAddr: 0x1FC4, symBinAddr: 0x32140, symSize: 0x18 }
  - { offset: 0x9073E, size: 0x8, addend: 0x0, symName: __RNvMs_NtCse1nGBsou5OW_5alloc3vecINtB4_3VecRhE7reserveCscP4KCwp5Z66_14zerovec_derive, symObjAddr: 0x1FDC, symBinAddr: 0x32158, symSize: 0xBC }
  - { offset: 0x909B8, size: 0x8, addend: 0x0, symName: __RNvMs_NtCse1nGBsou5OW_5alloc3vecINtB4_3VecTNtCs3cP53eQoTwO_11proc_macro25IdentNtNtCs6IAuOt8vWmF_3syn5token5CommaEE4pushCscP4KCwp5Z66_14zerovec_derive, symObjAddr: 0x2098, symBinAddr: 0x32214, symSize: 0x100 }
  - { offset: 0x90C10, size: 0x8, addend: 0x0, symName: __RNvMs_NtCse1nGBsou5OW_5alloc3vecINtB4_3VecTNtCs3cP53eQoTwO_11proc_macro25IdentNtNtCs6IAuOt8vWmF_3syn5token5CommaEE8as_sliceCscP4KCwp5Z66_14zerovec_derive, symObjAddr: 0x2198, symBinAddr: 0x32314, symSize: 0x64 }
  - { offset: 0x90CD7, size: 0x8, addend: 0x0, symName: __RNvMs_NtCse1nGBsou5OW_5alloc3vecINtB4_3VecTNtNtCs6IAuOt8vWmF_3syn4data7VariantNtNtBJ_5token5CommaEE3lenCscP4KCwp5Z66_14zerovec_derive, symObjAddr: 0x21FC, symBinAddr: 0x32378, symSize: 0x18 }
  - { offset: 0x911B6, size: 0x8, addend: 0x0, symName: __RNvXs4_NtNtCs2cqEZUIJimJ_5quote9___private3extINtNtCse1nGBsou5OW_5alloc3vec3VecNtCs3cP53eQoTwO_11proc_macro211TokenStreamENtB5_16RepAsIteratorExt15quote_into_iterCscP4KCwp5Z66_14zerovec_derive, symObjAddr: 0x2AE8, symBinAddr: 0x32C64, symSize: 0x38 }
  - { offset: 0x91C74, size: 0x8, addend: 0x0, symName: __RNvNtCscP4KCwp5Z66_14zerovec_derive8make_ule13make_ule_impl, symObjAddr: 0x0, symBinAddr: 0x33560, symSize: 0x119C }
  - { offset: 0x925C6, size: 0x8, addend: 0x0, symName: __RNvNtCscP4KCwp5Z66_14zerovec_derive8make_ule13make_ule_impl, symObjAddr: 0x0, symBinAddr: 0x33560, symSize: 0x119C }
  - { offset: 0x927A9, size: 0x8, addend: 0x0, symName: __RNvNtCscP4KCwp5Z66_14zerovec_derive8make_ule18make_ule_enum_impl, symObjAddr: 0x119C, symBinAddr: 0x346FC, symSize: 0x266C }
  - { offset: 0x92D83, size: 0x8, addend: 0x0, symName: __RNvNtCscP4KCwp5Z66_14zerovec_derive8make_ule12get_expr_int, symObjAddr: 0x3808, symBinAddr: 0x36D68, symSize: 0x158 }
  - { offset: 0x92DDA, size: 0x8, addend: 0x0, symName: __RNvNtCscP4KCwp5Z66_14zerovec_derive8make_ule20make_ule_struct_impl, symObjAddr: 0x3960, symBinAddr: 0x36EC0, symSize: 0x2C88 }
  - { offset: 0x9BB7F, size: 0x8, addend: 0x0, symName: __RINvXNtNtCse1nGBsou5OW_5alloc5slice4hackNtNtCs6IAuOt8vWmF_3syn4item11ForeignItemNtB3_10ConvertVec6to_vecNtNtB7_5alloc6GlobalEBG_, symObjAddr: 0x0, symBinAddr: 0x39B5C, symSize: 0x36C }
  - { offset: 0x9D0F6, size: 0x8, addend: 0x0, symName: __RNvXNtNtCs6IAuOt8vWmF_3syn4item7parsingNtB4_4ItemNtNtB6_5parse5Parse5parse, symObjAddr: 0x34B4, symBinAddr: 0x3B894, symSize: 0x1B4 }
  - { offset: 0x9D19C, size: 0x8, addend: 0x0, symName: __RNvXs0_NtNtCs6IAuOt8vWmF_3syn4item7parsingNtB7_9ItemMacroNtNtB9_5parse5Parse5parse, symObjAddr: 0x3668, symBinAddr: 0x3BA48, symSize: 0x620 }
  - { offset: 0x9D36A, size: 0x8, addend: 0x0, symName: __RNvXs1_NtNtCs6IAuOt8vWmF_3syn4item7parsingNtB7_15ItemExternCrateNtNtB9_5parse5Parse5parse, symObjAddr: 0x3C88, symBinAddr: 0x3C068, symSize: 0x93C }
  - { offset: 0x9D574, size: 0x8, addend: 0x0, symName: __RNvXs3_NtNtCs6IAuOt8vWmF_3syn4item7parsingNtB7_7UseTreeNtNtB9_5parse5Parse5parse, symObjAddr: 0x461C, symBinAddr: 0x3C9A4, symSize: 0x58 }
  - { offset: 0x9D5C6, size: 0x8, addend: 0x0, symName: __RNvXs6_NtNtCs6IAuOt8vWmF_3syn4item7parsingNtB7_9SignatureNtNtB9_5parse5Parse5parse, symObjAddr: 0x5B9C, symBinAddr: 0x3C9FC, symSize: 0x60 }
  - { offset: 0x9D618, size: 0x8, addend: 0x0, symName: __RNvXs9_NtNtCs6IAuOt8vWmF_3syn4item7parsingNtB7_8ReceiverNtNtB9_5parse5Parse5parse, symObjAddr: 0x622C, symBinAddr: 0x3CA5C, symSize: 0x95C }
  - { offset: 0x9D871, size: 0x8, addend: 0x0, symName: __RNvXsa_NtNtCs6IAuOt8vWmF_3syn4item7parsingNtB7_7ItemModNtNtB9_5parse5Parse5parse, symObjAddr: 0x6B88, symBinAddr: 0x3D3B8, symSize: 0xC34 }
  - { offset: 0x9DAD4, size: 0x8, addend: 0x0, symName: __RNvXsb_NtNtCs6IAuOt8vWmF_3syn4item7parsingNtB7_14ItemForeignModNtNtB9_5parse5Parse5parse, symObjAddr: 0x77BC, symBinAddr: 0x3DFEC, symSize: 0x610 }
  - { offset: 0x9DC85, size: 0x8, addend: 0x0, symName: __RNvXsc_NtNtCs6IAuOt8vWmF_3syn4item7parsingNtB7_11ForeignItemNtNtB9_5parse5Parse5parse, symObjAddr: 0x7DCC, symBinAddr: 0x3E5FC, symSize: 0x1D80 }
  - { offset: 0x9E2F5, size: 0x8, addend: 0x0, symName: __RNvXsg_NtNtCs6IAuOt8vWmF_3syn4item7parsingNtB7_16ForeignItemMacroNtNtB9_5parse5Parse5parse, symObjAddr: 0xAE74, symBinAddr: 0x4037C, symSize: 0x32C }
  - { offset: 0x9E409, size: 0x8, addend: 0x0, symName: __RNvXsi_NtNtCs6IAuOt8vWmF_3syn4item7parsingNtB7_10ItemStructNtNtB9_5parse5Parse5parse, symObjAddr: 0xBB78, symBinAddr: 0x406A8, symSize: 0x638 }
  - { offset: 0x9E606, size: 0x8, addend: 0x0, symName: __RNvXsj_NtNtCs6IAuOt8vWmF_3syn4item7parsingNtB7_8ItemEnumNtNtB9_5parse5Parse5parse, symObjAddr: 0xC1B0, symBinAddr: 0x40CE0, symSize: 0x63C }
  - { offset: 0x9E803, size: 0x8, addend: 0x0, symName: __RNvXsk_NtNtCs6IAuOt8vWmF_3syn4item7parsingNtB7_9ItemUnionNtNtB9_5parse5Parse5parse, symObjAddr: 0xC7EC, symBinAddr: 0x4131C, symSize: 0x62C }
  - { offset: 0x9E9EF, size: 0x8, addend: 0x0, symName: __RNvXsl_NtNtCs6IAuOt8vWmF_3syn4item7parsingNtB7_9ItemTraitNtNtB9_5parse5Parse5parse, symObjAddr: 0xCE18, symBinAddr: 0x41948, symSize: 0x634 }
  - { offset: 0x9EBF6, size: 0x8, addend: 0x0, symName: __RNvXsn_NtNtCs6IAuOt8vWmF_3syn4item7parsingNtB7_9TraitItemNtNtB9_5parse5Parse5parse, symObjAddr: 0xD6BC, symBinAddr: 0x41F7C, symSize: 0x1654 }
  - { offset: 0x9F06B, size: 0x8, addend: 0x0, symName: __RNvXsp_NtNtCs6IAuOt8vWmF_3syn4item7parsingNtB7_11TraitItemFnNtNtB9_5parse5Parse5parse, symObjAddr: 0xF584, symBinAddr: 0x435D0, symSize: 0x7DC }
  - { offset: 0x9F26F, size: 0x8, addend: 0x0, symName: __RNvXsr_NtNtCs6IAuOt8vWmF_3syn4item7parsingNtB7_14TraitItemMacroNtNtB9_5parse5Parse5parse, symObjAddr: 0x10484, symBinAddr: 0x43DAC, symSize: 0x32C }
  - { offset: 0x9F383, size: 0x8, addend: 0x0, symName: __RNvXst_NtNtCs6IAuOt8vWmF_3syn4item7parsingNtB7_8ImplItemNtNtB9_5parse5Parse5parse, symObjAddr: 0x10810, symBinAddr: 0x440D8, symSize: 0x1A78 }
  - { offset: 0x9F8A5, size: 0x8, addend: 0x0, symName: __RNvXsx_NtNtCs6IAuOt8vWmF_3syn4item7parsingNtB7_13ImplItemMacroNtNtB9_5parse5Parse5parse, symObjAddr: 0x134F8, symBinAddr: 0x45B50, symSize: 0x32C }
  - { offset: 0x9F9B9, size: 0x8, addend: 0x0, symName: __RNvXsz_NtNtCs6IAuOt8vWmF_3syn4item7parsingNtB7_16StaticMutabilityNtNtB9_5parse5Parse5parse, symObjAddr: 0x13824, symBinAddr: 0x45E7C, symSize: 0xDC }
  - { offset: 0x9FA2F, size: 0x8, addend: 0x0, symName: __RNvXNtNtCs6IAuOt8vWmF_3syn4item8printingNtB4_15ItemExternCrateNtNtCs2cqEZUIJimJ_5quote9to_tokens8ToTokens9to_tokens, symObjAddr: 0x13900, symBinAddr: 0x45F58, symSize: 0x110 }
  - { offset: 0x9FA9C, size: 0x8, addend: 0x0, symName: __RNvXs_NtNtCs6IAuOt8vWmF_3syn4item8printingNtB6_7ItemUseNtNtCs2cqEZUIJimJ_5quote9to_tokens8ToTokens9to_tokens, symObjAddr: 0x13A10, symBinAddr: 0x46068, symSize: 0xA4 }
  - { offset: 0x9FADB, size: 0x8, addend: 0x0, symName: __RNvXs0_NtNtCs6IAuOt8vWmF_3syn4item8printingNtB7_10ItemStaticNtNtCs2cqEZUIJimJ_5quote9to_tokens8ToTokens9to_tokens, symObjAddr: 0x13AB4, symBinAddr: 0x4610C, symSize: 0xE4 }
  - { offset: 0x9FB1A, size: 0x8, addend: 0x0, symName: __RNvXs1_NtNtCs6IAuOt8vWmF_3syn4item8printingNtB7_9ItemConstNtNtCs2cqEZUIJimJ_5quote9to_tokens8ToTokens9to_tokens, symObjAddr: 0x13B98, symBinAddr: 0x461F0, symSize: 0xD4 }
  - { offset: 0x9FB59, size: 0x8, addend: 0x0, symName: __RNvXs2_NtNtCs6IAuOt8vWmF_3syn4item8printingNtB7_6ItemFnNtNtCs2cqEZUIJimJ_5quote9to_tokens8ToTokens9to_tokens, symObjAddr: 0x13C6C, symBinAddr: 0x462C4, symSize: 0xB4 }
  - { offset: 0x9FB98, size: 0x8, addend: 0x0, symName: __RNvXs3_NtNtCs6IAuOt8vWmF_3syn4item8printingNtB7_7ItemModNtNtCs2cqEZUIJimJ_5quote9to_tokens8ToTokens9to_tokens, symObjAddr: 0x13D20, symBinAddr: 0x46378, symSize: 0x110 }
  - { offset: 0x9FC05, size: 0x8, addend: 0x0, symName: __RNvXs4_NtNtCs6IAuOt8vWmF_3syn4item8printingNtB7_14ItemForeignModNtNtCs2cqEZUIJimJ_5quote9to_tokens8ToTokens9to_tokens, symObjAddr: 0x13E30, symBinAddr: 0x46488, symSize: 0x88 }
  - { offset: 0x9FC44, size: 0x8, addend: 0x0, symName: __RNvXs5_NtNtCs6IAuOt8vWmF_3syn4item8printingNtB7_8ItemTypeNtNtCs2cqEZUIJimJ_5quote9to_tokens8ToTokens9to_tokens, symObjAddr: 0x13EB8, symBinAddr: 0x46510, symSize: 0xD4 }
  - { offset: 0x9FC83, size: 0x8, addend: 0x0, symName: __RNvXs6_NtNtCs6IAuOt8vWmF_3syn4item8printingNtB7_8ItemEnumNtNtCs2cqEZUIJimJ_5quote9to_tokens8ToTokens9to_tokens, symObjAddr: 0x13F8C, symBinAddr: 0x465E4, symSize: 0xB8 }
  - { offset: 0x9FCC2, size: 0x8, addend: 0x0, symName: __RNvXs7_NtNtCs6IAuOt8vWmF_3syn4item8printingNtB7_10ItemStructNtNtCs2cqEZUIJimJ_5quote9to_tokens8ToTokens9to_tokens, symObjAddr: 0x14044, symBinAddr: 0x4669C, symSize: 0x188 }
  - { offset: 0x9FD3D, size: 0x8, addend: 0x0, symName: __RNvXs8_NtNtCs6IAuOt8vWmF_3syn4item8printingNtB7_9ItemUnionNtNtCs2cqEZUIJimJ_5quote9to_tokens8ToTokens9to_tokens, symObjAddr: 0x141CC, symBinAddr: 0x46824, symSize: 0xB4 }
  - { offset: 0x9FD7C, size: 0x8, addend: 0x0, symName: __RNvXs9_NtNtCs6IAuOt8vWmF_3syn4item8printingNtB7_9ItemTraitNtNtCs2cqEZUIJimJ_5quote9to_tokens8ToTokens9to_tokens, symObjAddr: 0x14280, symBinAddr: 0x468D8, symSize: 0x130 }
  - { offset: 0x9FDBB, size: 0x8, addend: 0x0, symName: __RNvXsa_NtNtCs6IAuOt8vWmF_3syn4item8printingNtB7_14ItemTraitAliasNtNtCs2cqEZUIJimJ_5quote9to_tokens8ToTokens9to_tokens, symObjAddr: 0x143B0, symBinAddr: 0x46A08, symSize: 0xD4 }
  - { offset: 0x9FDFA, size: 0x8, addend: 0x0, symName: __RNvXsb_NtNtCs6IAuOt8vWmF_3syn4item8printingNtB7_8ItemImplNtNtCs2cqEZUIJimJ_5quote9to_tokens8ToTokens9to_tokens, symObjAddr: 0x14484, symBinAddr: 0x46ADC, symSize: 0x14C }
  - { offset: 0x9FE77, size: 0x8, addend: 0x0, symName: __RNvXsc_NtNtCs6IAuOt8vWmF_3syn4item8printingNtB7_9ItemMacroNtNtCs2cqEZUIJimJ_5quote9to_tokens8ToTokens9to_tokens, symObjAddr: 0x145D0, symBinAddr: 0x46C28, symSize: 0x148 }
  - { offset: 0x9FF08, size: 0x8, addend: 0x0, symName: __RNvXsd_NtNtCs6IAuOt8vWmF_3syn4item8printingNtB7_7UsePathNtNtCs2cqEZUIJimJ_5quote9to_tokens8ToTokens9to_tokens, symObjAddr: 0x14718, symBinAddr: 0x46D70, symSize: 0x60 }
  - { offset: 0x9FF47, size: 0x8, addend: 0x0, symName: __RNvXse_NtNtCs6IAuOt8vWmF_3syn4item8printingNtB7_7UseNameNtNtCs2cqEZUIJimJ_5quote9to_tokens8ToTokens9to_tokens, symObjAddr: 0x14778, symBinAddr: 0x46DD0, symSize: 0x3C }
  - { offset: 0x9FF86, size: 0x8, addend: 0x0, symName: __RNvXsf_NtNtCs6IAuOt8vWmF_3syn4item8printingNtB7_9UseRenameNtNtCs2cqEZUIJimJ_5quote9to_tokens8ToTokens9to_tokens, symObjAddr: 0x147B4, symBinAddr: 0x46E0C, symSize: 0x60 }
  - { offset: 0x9FFC5, size: 0x8, addend: 0x0, symName: __RNvXsg_NtNtCs6IAuOt8vWmF_3syn4item8printingNtB7_7UseGlobNtNtCs2cqEZUIJimJ_5quote9to_tokens8ToTokens9to_tokens, symObjAddr: 0x14814, symBinAddr: 0x46E6C, symSize: 0x3C }
  - { offset: 0xA0004, size: 0x8, addend: 0x0, symName: __RNvXsh_NtNtCs6IAuOt8vWmF_3syn4item8printingNtB7_8UseGroupNtNtCs2cqEZUIJimJ_5quote9to_tokens8ToTokens9to_tokens, symObjAddr: 0x14850, symBinAddr: 0x46EA8, symSize: 0x44 }
  - { offset: 0xA0043, size: 0x8, addend: 0x0, symName: __RNvXsi_NtNtCs6IAuOt8vWmF_3syn4item8printingNtB7_14TraitItemConstNtNtCs2cqEZUIJimJ_5quote9to_tokens8ToTokens9to_tokens, symObjAddr: 0x14894, symBinAddr: 0x46EEC, symSize: 0x110 }
  - { offset: 0xA00B0, size: 0x8, addend: 0x0, symName: __RNvXsj_NtNtCs6IAuOt8vWmF_3syn4item8printingNtB7_11TraitItemFnNtNtCs2cqEZUIJimJ_5quote9to_tokens8ToTokens9to_tokens, symObjAddr: 0x149A4, symBinAddr: 0x46FFC, symSize: 0xD4 }
  - { offset: 0xA010D, size: 0x8, addend: 0x0, symName: __RNvXsk_NtNtCs6IAuOt8vWmF_3syn4item8printingNtB7_13TraitItemTypeNtNtCs2cqEZUIJimJ_5quote9to_tokens8ToTokens9to_tokens, symObjAddr: 0x14A78, symBinAddr: 0x470D0, symSize: 0x168 }
  - { offset: 0xA017A, size: 0x8, addend: 0x0, symName: __RNvXsl_NtNtCs6IAuOt8vWmF_3syn4item8printingNtB7_14TraitItemMacroNtNtCs2cqEZUIJimJ_5quote9to_tokens8ToTokens9to_tokens, symObjAddr: 0x14BE0, symBinAddr: 0x47238, symSize: 0x74 }
  - { offset: 0xA01B9, size: 0x8, addend: 0x0, symName: __RNvXsm_NtNtCs6IAuOt8vWmF_3syn4item8printingNtB7_13ImplItemConstNtNtCs2cqEZUIJimJ_5quote9to_tokens8ToTokens9to_tokens, symObjAddr: 0x14C54, symBinAddr: 0x472AC, symSize: 0xE4 }
  - { offset: 0xA01F8, size: 0x8, addend: 0x0, symName: __RNvXsn_NtNtCs6IAuOt8vWmF_3syn4item8printingNtB7_10ImplItemFnNtNtCs2cqEZUIJimJ_5quote9to_tokens8ToTokens9to_tokens, symObjAddr: 0x14D38, symBinAddr: 0x47390, symSize: 0x98 }
  - { offset: 0xA0237, size: 0x8, addend: 0x0, symName: __RNvXso_NtNtCs6IAuOt8vWmF_3syn4item8printingNtB7_12ImplItemTypeNtNtCs2cqEZUIJimJ_5quote9to_tokens8ToTokens9to_tokens, symObjAddr: 0x14DD0, symBinAddr: 0x47428, symSize: 0xE4 }
  - { offset: 0xA0276, size: 0x8, addend: 0x0, symName: __RNvXsp_NtNtCs6IAuOt8vWmF_3syn4item8printingNtB7_13ImplItemMacroNtNtCs2cqEZUIJimJ_5quote9to_tokens8ToTokens9to_tokens, symObjAddr: 0x14EB4, symBinAddr: 0x4750C, symSize: 0x74 }
  - { offset: 0xA02B5, size: 0x8, addend: 0x0, symName: __RNvXsq_NtNtCs6IAuOt8vWmF_3syn4item8printingNtB7_13ForeignItemFnNtNtCs2cqEZUIJimJ_5quote9to_tokens8ToTokens9to_tokens, symObjAddr: 0x14F28, symBinAddr: 0x47580, symSize: 0x84 }
  - { offset: 0xA02F4, size: 0x8, addend: 0x0, symName: __RNvXsr_NtNtCs6IAuOt8vWmF_3syn4item8printingNtB7_17ForeignItemStaticNtNtCs2cqEZUIJimJ_5quote9to_tokens8ToTokens9to_tokens, symObjAddr: 0x14FAC, symBinAddr: 0x47604, symSize: 0xC4 }
  - { offset: 0xA0333, size: 0x8, addend: 0x0, symName: __RNvXss_NtNtCs6IAuOt8vWmF_3syn4item8printingNtB7_15ForeignItemTypeNtNtCs2cqEZUIJimJ_5quote9to_tokens8ToTokens9to_tokens, symObjAddr: 0x15070, symBinAddr: 0x476C8, symSize: 0xB4 }
  - { offset: 0xA0372, size: 0x8, addend: 0x0, symName: __RNvXst_NtNtCs6IAuOt8vWmF_3syn4item8printingNtB7_16ForeignItemMacroNtNtCs2cqEZUIJimJ_5quote9to_tokens8ToTokens9to_tokens, symObjAddr: 0x15124, symBinAddr: 0x4777C, symSize: 0x74 }
  - { offset: 0xA03B1, size: 0x8, addend: 0x0, symName: __RNvXsu_NtNtCs6IAuOt8vWmF_3syn4item8printingNtB7_9SignatureNtNtCs2cqEZUIJimJ_5quote9to_tokens8ToTokens9to_tokens, symObjAddr: 0x15198, symBinAddr: 0x477F0, symSize: 0xD4 }
  - { offset: 0xA03F0, size: 0x8, addend: 0x0, symName: __RNvXsv_NtNtCs6IAuOt8vWmF_3syn4item8printingNtB7_8ReceiverNtNtCs2cqEZUIJimJ_5quote9to_tokens8ToTokens9to_tokens, symObjAddr: 0x1526C, symBinAddr: 0x478C4, symSize: 0x3FC }
  - { offset: 0xA04E8, size: 0x8, addend: 0x0, symName: __RNvXsw_NtNtCs6IAuOt8vWmF_3syn4item8printingNtB7_8VariadicNtNtCs2cqEZUIJimJ_5quote9to_tokens8ToTokens9to_tokens, symObjAddr: 0x15668, symBinAddr: 0x47CC0, symSize: 0xE0 }
  - { offset: 0xA0555, size: 0x8, addend: 0x0, symName: __RNvXsx_NtNtCs6IAuOt8vWmF_3syn4item8printingNtB7_16StaticMutabilityNtNtCs2cqEZUIJimJ_5quote9to_tokens8ToTokens9to_tokens, symObjAddr: 0x15748, symBinAddr: 0x47DA0, symSize: 0x7C }
  - { offset: 0xA05B8, size: 0x8, addend: 0x0, symName: __RNcNtNtNtCs6IAuOt8vWmF_3syn4item4Item4Enum0B7_, symObjAddr: 0x157C4, symBinAddr: 0x47E1C, symSize: 0x3C }
  - { offset: 0xA05E7, size: 0x8, addend: 0x0, symName: __RNcNtNtNtCs6IAuOt8vWmF_3syn4item4Item11ExternCrate0B7_, symObjAddr: 0x15800, symBinAddr: 0x47E58, symSize: 0x3C }
  - { offset: 0xA0616, size: 0x8, addend: 0x0, symName: __RNcNtNtNtCs6IAuOt8vWmF_3syn4item4Item2Fn0B7_, symObjAddr: 0x1583C, symBinAddr: 0x47E94, symSize: 0x30 }
  - { offset: 0xA0645, size: 0x8, addend: 0x0, symName: __RNcNtNtNtCs6IAuOt8vWmF_3syn4item4Item10ForeignMod0B7_, symObjAddr: 0x1586C, symBinAddr: 0x47EC4, symSize: 0x3C }
  - { offset: 0xA0674, size: 0x8, addend: 0x0, symName: __RNcNtNtNtCs6IAuOt8vWmF_3syn4item4Item5Macro0B7_, symObjAddr: 0x158A8, symBinAddr: 0x47F00, symSize: 0x3C }
  - { offset: 0xA06A3, size: 0x8, addend: 0x0, symName: __RNcNtNtNtCs6IAuOt8vWmF_3syn4item4Item3Mod0B7_, symObjAddr: 0x158E4, symBinAddr: 0x47F3C, symSize: 0x3C }
  - { offset: 0xA06D2, size: 0x8, addend: 0x0, symName: __RNcNtNtNtCs6IAuOt8vWmF_3syn4item4Item6Struct0B7_, symObjAddr: 0x15920, symBinAddr: 0x47F78, symSize: 0x3C }
  - { offset: 0xA0701, size: 0x8, addend: 0x0, symName: __RNcNtNtNtCs6IAuOt8vWmF_3syn4item4Item5Trait0B7_, symObjAddr: 0x1595C, symBinAddr: 0x47FB4, symSize: 0x3C }
  - { offset: 0xA0730, size: 0x8, addend: 0x0, symName: __RNcNtNtNtCs6IAuOt8vWmF_3syn4item4Item10TraitAlias0B7_, symObjAddr: 0x15998, symBinAddr: 0x47FF0, symSize: 0x3C }
  - { offset: 0xA075F, size: 0x8, addend: 0x0, symName: __RNcNtNtNtCs6IAuOt8vWmF_3syn4item4Item5Union0B7_, symObjAddr: 0x159D4, symBinAddr: 0x4802C, symSize: 0x3C }
  - { offset: 0xA078F, size: 0x8, addend: 0x0, symName: __RNvXsk_NtCs6IAuOt8vWmF_3syn4itemNtB5_4ItemNtNtCs2cqEZUIJimJ_5quote9to_tokens8ToTokens9to_tokens, symObjAddr: 0x15E78, symBinAddr: 0x48068, symSize: 0x230 }
  - { offset: 0xA09A1, size: 0x8, addend: 0x0, symName: __RNvXsq_NtCs6IAuOt8vWmF_3syn4itemNtB5_7UseTreeNtNtCs2cqEZUIJimJ_5quote9to_tokens8ToTokens9to_tokens, symObjAddr: 0x161F4, symBinAddr: 0x48298, symSize: 0x10C }
  - { offset: 0xA0A73, size: 0x8, addend: 0x0, symName: __RNcNtNtNtCs6IAuOt8vWmF_3syn4item11ForeignItem5Macro0B7_, symObjAddr: 0x16300, symBinAddr: 0x483A4, symSize: 0x3C }
  - { offset: 0xA0AA5, size: 0x8, addend: 0x0, symName: __RNvXsv_NtCs6IAuOt8vWmF_3syn4itemNtB5_11ForeignItemNtNtCs2cqEZUIJimJ_5quote9to_tokens8ToTokens9to_tokens, symObjAddr: 0x16460, symBinAddr: 0x483E0, symSize: 0x118 }
  - { offset: 0xA0B77, size: 0x8, addend: 0x0, symName: __RNcNtNtNtCs6IAuOt8vWmF_3syn4item9TraitItem2Fn0B7_, symObjAddr: 0x16578, symBinAddr: 0x484F8, symSize: 0x3C }
  - { offset: 0xA0BA8, size: 0x8, addend: 0x0, symName: __RNcNtNtNtCs6IAuOt8vWmF_3syn4item9TraitItem5Macro0B7_, symObjAddr: 0x165B4, symBinAddr: 0x48534, symSize: 0x3C }
  - { offset: 0xA0BDA, size: 0x8, addend: 0x0, symName: __RNvXsA_NtCs6IAuOt8vWmF_3syn4itemNtB5_9TraitItemNtNtCs2cqEZUIJimJ_5quote9to_tokens8ToTokens9to_tokens, symObjAddr: 0x16714, symBinAddr: 0x48570, symSize: 0x118 }
  - { offset: 0xA0CAC, size: 0x8, addend: 0x0, symName: __RNcNtNtNtCs6IAuOt8vWmF_3syn4item8ImplItem5Macro0B7_, symObjAddr: 0x1682C, symBinAddr: 0x48688, symSize: 0x3C }
  - { offset: 0xA0CDE, size: 0x8, addend: 0x0, symName: __RNvXsF_NtCs6IAuOt8vWmF_3syn4itemNtB5_8ImplItemNtNtCs2cqEZUIJimJ_5quote9to_tokens8ToTokens9to_tokens, symObjAddr: 0x1698C, symBinAddr: 0x486C4, symSize: 0x118 }
  - { offset: 0xA0DAB, size: 0x8, addend: 0x0, symName: __RNvXsI_NtCs6IAuOt8vWmF_3syn4itemNtB5_5FnArgNtNtCs2cqEZUIJimJ_5quote9to_tokens8ToTokens9to_tokens, symObjAddr: 0x16B30, symBinAddr: 0x487DC, symSize: 0x8C }
  - { offset: 0xA0E26, size: 0x8, addend: 0x0, symName: __RNcNtNtNtCs6IAuOt8vWmF_3syn4item16StaticMutability3Mut0B7_, symObjAddr: 0x16BBC, symBinAddr: 0x48868, symSize: 0x20 }
  - { offset: 0xA48D4, size: 0x8, addend: 0x0, symName: __RNvXs16_NtNtCs6IAuOt8vWmF_3syn3gen5cloneNtNtBa_4item5FnArgNtNtCsfvfooZQ3Axs_4core5clone5Clone5clone, symObjAddr: 0x16BDC, symBinAddr: 0x48888, symSize: 0xDC }
  - { offset: 0xA493C, size: 0x8, addend: 0x0, symName: __RNvXs17_NtNtCs6IAuOt8vWmF_3syn3gen5cloneNtNtBa_4item11ForeignItemNtNtCsfvfooZQ3Axs_4core5clone5Clone5clone, symObjAddr: 0x16CB8, symBinAddr: 0x48964, symSize: 0x224 }
  - { offset: 0xA49FE, size: 0x8, addend: 0x0, symName: __RNvXs18_NtNtCs6IAuOt8vWmF_3syn3gen5cloneNtNtBa_4item13ForeignItemFnNtNtCsfvfooZQ3Axs_4core5clone5Clone5clone, symObjAddr: 0x16EDC, symBinAddr: 0x48B88, symSize: 0x13C }
  - { offset: 0xA4A32, size: 0x8, addend: 0x0, symName: __RNvXs19_NtNtCs6IAuOt8vWmF_3syn3gen5cloneNtNtBa_4item16ForeignItemMacroNtNtCsfvfooZQ3Axs_4core5clone5Clone5clone, symObjAddr: 0x17018, symBinAddr: 0x48CC4, symSize: 0xF4 }
  - { offset: 0xA4A66, size: 0x8, addend: 0x0, symName: __RNvXs1a_NtNtCs6IAuOt8vWmF_3syn3gen5cloneNtNtBa_4item17ForeignItemStaticNtNtCsfvfooZQ3Axs_4core5clone5Clone5clone, symObjAddr: 0x1710C, symBinAddr: 0x48DB8, symSize: 0x1DC }
  - { offset: 0xA4A9A, size: 0x8, addend: 0x0, symName: __RNvXs1b_NtNtCs6IAuOt8vWmF_3syn3gen5cloneNtNtBa_4item15ForeignItemTypeNtNtCsfvfooZQ3Axs_4core5clone5Clone5clone, symObjAddr: 0x172E8, symBinAddr: 0x48F94, symSize: 0x198 }
  - { offset: 0xA4ACE, size: 0x8, addend: 0x0, symName: __RNvXs1f_NtNtCs6IAuOt8vWmF_3syn3gen5cloneNtNtBa_4item8ImplItemNtNtCsfvfooZQ3Axs_4core5clone5Clone5clone, symObjAddr: 0x17480, symBinAddr: 0x4912C, symSize: 0x21C }
  - { offset: 0xA4B90, size: 0x8, addend: 0x0, symName: __RNvXs1g_NtNtCs6IAuOt8vWmF_3syn3gen5cloneNtNtBa_4item13ImplItemConstNtNtCsfvfooZQ3Axs_4core5clone5Clone5clone, symObjAddr: 0x1769C, symBinAddr: 0x49348, symSize: 0x2AC }
  - { offset: 0xA4BC4, size: 0x8, addend: 0x0, symName: __RNvXs1h_NtNtCs6IAuOt8vWmF_3syn3gen5cloneNtNtBa_4item10ImplItemFnNtNtCsfvfooZQ3Axs_4core5clone5Clone5clone, symObjAddr: 0x17948, symBinAddr: 0x495F4, symSize: 0x160 }
  - { offset: 0xA4BF8, size: 0x8, addend: 0x0, symName: __RNvXs1i_NtNtCs6IAuOt8vWmF_3syn3gen5cloneNtNtBa_4item13ImplItemMacroNtNtCsfvfooZQ3Axs_4core5clone5Clone5clone, symObjAddr: 0x17AA8, symBinAddr: 0x49754, symSize: 0xF4 }
  - { offset: 0xA4C2C, size: 0x8, addend: 0x0, symName: __RNvXs1j_NtNtCs6IAuOt8vWmF_3syn3gen5cloneNtNtBa_4item12ImplItemTypeNtNtCsfvfooZQ3Axs_4core5clone5Clone5clone, symObjAddr: 0x17B9C, symBinAddr: 0x49848, symSize: 0x238 }
  - { offset: 0xA4C60, size: 0x8, addend: 0x0, symName: __RNvXs1m_NtNtCs6IAuOt8vWmF_3syn3gen5cloneNtNtBa_4item4ItemNtNtCsfvfooZQ3Axs_4core5clone5Clone5clone, symObjAddr: 0x17DE0, symBinAddr: 0x49A80, symSize: 0x5D0 }
  - { offset: 0xA4E77, size: 0x8, addend: 0x0, symName: __RNvXs1n_NtNtCs6IAuOt8vWmF_3syn3gen5cloneNtNtBa_4item9ItemConstNtNtCsfvfooZQ3Axs_4core5clone5Clone5clone, symObjAddr: 0x183B0, symBinAddr: 0x4A050, symSize: 0x270 }
  - { offset: 0xA4EAB, size: 0x8, addend: 0x0, symName: __RNvXs1o_NtNtCs6IAuOt8vWmF_3syn3gen5cloneNtNtBa_4item8ItemEnumNtNtCsfvfooZQ3Axs_4core5clone5Clone5clone, symObjAddr: 0x18620, symBinAddr: 0x4A2C0, symSize: 0x1C0 }
  - { offset: 0xA4EDF, size: 0x8, addend: 0x0, symName: __RNvXs1p_NtNtCs6IAuOt8vWmF_3syn3gen5cloneNtNtBa_4item15ItemExternCrateNtNtCsfvfooZQ3Axs_4core5clone5Clone5clone, symObjAddr: 0x187E0, symBinAddr: 0x4A480, symSize: 0x1A4 }
  - { offset: 0xA4F13, size: 0x8, addend: 0x0, symName: __RNvXs1q_NtNtCs6IAuOt8vWmF_3syn3gen5cloneNtNtBa_4item6ItemFnNtNtCsfvfooZQ3Axs_4core5clone5Clone5clone, symObjAddr: 0x18984, symBinAddr: 0x4A624, symSize: 0x12C }
  - { offset: 0xA4F47, size: 0x8, addend: 0x0, symName: __RNvXs1r_NtNtCs6IAuOt8vWmF_3syn3gen5cloneNtNtBa_4item14ItemForeignModNtNtCsfvfooZQ3Axs_4core5clone5Clone5clone, symObjAddr: 0x18AB0, symBinAddr: 0x4A750, symSize: 0x14C }
  - { offset: 0xA4F7B, size: 0x8, addend: 0x0, symName: __RNvXs1s_NtNtCs6IAuOt8vWmF_3syn3gen5cloneNtNtBa_4item8ItemImplNtNtCsfvfooZQ3Axs_4core5clone5Clone5clone, symObjAddr: 0x18BFC, symBinAddr: 0x4A89C, symSize: 0x220 }
  - { offset: 0xA4FAF, size: 0x8, addend: 0x0, symName: __RNvXs1t_NtNtCs6IAuOt8vWmF_3syn3gen5cloneNtNtBa_4item9ItemMacroNtNtCsfvfooZQ3Axs_4core5clone5Clone5clone, symObjAddr: 0x18E1C, symBinAddr: 0x4AABC, symSize: 0x134 }
  - { offset: 0xA4FE3, size: 0x8, addend: 0x0, symName: __RNvXs1u_NtNtCs6IAuOt8vWmF_3syn3gen5cloneNtNtBa_4item7ItemModNtNtCsfvfooZQ3Axs_4core5clone5Clone5clone, symObjAddr: 0x18F50, symBinAddr: 0x4ABF0, symSize: 0x1B8 }
  - { offset: 0xA5017, size: 0x8, addend: 0x0, symName: __RNvXs1v_NtNtCs6IAuOt8vWmF_3syn3gen5cloneNtNtBa_4item10ItemStaticNtNtCsfvfooZQ3Axs_4core5clone5Clone5clone, symObjAddr: 0x19108, symBinAddr: 0x4ADA8, symSize: 0x248 }
  - { offset: 0xA504B, size: 0x8, addend: 0x0, symName: __RNvXs1w_NtNtCs6IAuOt8vWmF_3syn3gen5cloneNtNtBa_4item10ItemStructNtNtCsfvfooZQ3Axs_4core5clone5Clone5clone, symObjAddr: 0x19350, symBinAddr: 0x4AFF0, symSize: 0x1DC }
  - { offset: 0xA507F, size: 0x8, addend: 0x0, symName: __RNvXs1x_NtNtCs6IAuOt8vWmF_3syn3gen5cloneNtNtBa_4item9ItemTraitNtNtCsfvfooZQ3Axs_4core5clone5Clone5clone, symObjAddr: 0x1952C, symBinAddr: 0x4B1CC, symSize: 0x288 }
  - { offset: 0xA50B3, size: 0x8, addend: 0x0, symName: __RNvXs1y_NtNtCs6IAuOt8vWmF_3syn3gen5cloneNtNtBa_4item14ItemTraitAliasNtNtCsfvfooZQ3Axs_4core5clone5Clone5clone, symObjAddr: 0x197B4, symBinAddr: 0x4B454, symSize: 0x204 }
  - { offset: 0xA50E7, size: 0x8, addend: 0x0, symName: __RNvXs1z_NtNtCs6IAuOt8vWmF_3syn3gen5cloneNtNtBa_4item8ItemTypeNtNtCsfvfooZQ3Axs_4core5clone5Clone5clone, symObjAddr: 0x199B8, symBinAddr: 0x4B658, symSize: 0x204 }
  - { offset: 0xA511B, size: 0x8, addend: 0x0, symName: __RNvXs1A_NtNtCs6IAuOt8vWmF_3syn3gen5cloneNtNtBa_4item9ItemUnionNtNtCsfvfooZQ3Axs_4core5clone5Clone5clone, symObjAddr: 0x19BBC, symBinAddr: 0x4B85C, symSize: 0x194 }
  - { offset: 0xA514F, size: 0x8, addend: 0x0, symName: __RNvXs1B_NtNtCs6IAuOt8vWmF_3syn3gen5cloneNtNtBa_4item7ItemUseNtNtCsfvfooZQ3Axs_4core5clone5Clone5clone, symObjAddr: 0x19D50, symBinAddr: 0x4B9F0, symSize: 0x174 }
  - { offset: 0xA5183, size: 0x8, addend: 0x0, symName: __RNvXs2b_NtNtCs6IAuOt8vWmF_3syn3gen5cloneNtNtBa_4item8ReceiverNtNtCsfvfooZQ3Axs_4core5clone5Clone5clone, symObjAddr: 0x19EC4, symBinAddr: 0x4BB64, symSize: 0x154 }
  - { offset: 0xA51B7, size: 0x8, addend: 0x0, symName: __RNvXs2d_NtNtCs6IAuOt8vWmF_3syn3gen5cloneNtNtBa_4item9SignatureNtNtCsfvfooZQ3Axs_4core5clone5Clone5clone, symObjAddr: 0x1A018, symBinAddr: 0x4BCB8, symSize: 0x278 }
  - { offset: 0xA51EB, size: 0x8, addend: 0x0, symName: __RNvXs2e_NtNtCs6IAuOt8vWmF_3syn3gen5cloneNtNtBa_4item16StaticMutabilityNtNtCsfvfooZQ3Axs_4core5clone5Clone5clone, symObjAddr: 0x1A290, symBinAddr: 0x4BF30, symSize: 0x88 }
  - { offset: 0xA523D, size: 0x8, addend: 0x0, symName: __RNvXs2k_NtNtCs6IAuOt8vWmF_3syn3gen5cloneNtNtBa_4item9TraitItemNtNtCsfvfooZQ3Axs_4core5clone5Clone5clone, symObjAddr: 0x1A318, symBinAddr: 0x4BFB8, symSize: 0x21C }
  - { offset: 0xA52FF, size: 0x8, addend: 0x0, symName: __RNvXs2l_NtNtCs6IAuOt8vWmF_3syn3gen5cloneNtNtBa_4item14TraitItemConstNtNtCsfvfooZQ3Axs_4core5clone5Clone5clone, symObjAddr: 0x1A534, symBinAddr: 0x4C1D4, symSize: 0x218 }
  - { offset: 0xA5333, size: 0x8, addend: 0x0, symName: __RNvXs2m_NtNtCs6IAuOt8vWmF_3syn3gen5cloneNtNtBa_4item11TraitItemFnNtNtCsfvfooZQ3Axs_4core5clone5Clone5clone, symObjAddr: 0x1A74C, symBinAddr: 0x4C3EC, symSize: 0x140 }
  - { offset: 0xA5367, size: 0x8, addend: 0x0, symName: __RNvXs2n_NtNtCs6IAuOt8vWmF_3syn3gen5cloneNtNtBa_4item14TraitItemMacroNtNtCsfvfooZQ3Axs_4core5clone5Clone5clone, symObjAddr: 0x1A88C, symBinAddr: 0x4C52C, symSize: 0xF4 }
  - { offset: 0xA539B, size: 0x8, addend: 0x0, symName: __RNvXs2o_NtNtCs6IAuOt8vWmF_3syn3gen5cloneNtNtBa_4item13TraitItemTypeNtNtCsfvfooZQ3Axs_4core5clone5Clone5clone, symObjAddr: 0x1A980, symBinAddr: 0x4C620, symSize: 0x20C }
  - { offset: 0xA53CF, size: 0x8, addend: 0x0, symName: __RNvXs2I_NtNtCs6IAuOt8vWmF_3syn3gen5cloneNtNtBa_4item7UseGlobNtNtCsfvfooZQ3Axs_4core5clone5Clone5clone, symObjAddr: 0x1AB8C, symBinAddr: 0x4C82C, symSize: 0x4C }
  - { offset: 0xA5403, size: 0x8, addend: 0x0, symName: __RNvXs2J_NtNtCs6IAuOt8vWmF_3syn3gen5cloneNtNtBa_4item8UseGroupNtNtCsfvfooZQ3Axs_4core5clone5Clone5clone, symObjAddr: 0x1ABD8, symBinAddr: 0x4C878, symSize: 0x70 }
  - { offset: 0xA5437, size: 0x8, addend: 0x0, symName: __RNvXs2K_NtNtCs6IAuOt8vWmF_3syn3gen5cloneNtNtBa_4item7UseNameNtNtCsfvfooZQ3Axs_4core5clone5Clone5clone, symObjAddr: 0x1AC48, symBinAddr: 0x4C8E8, symSize: 0x50 }
  - { offset: 0xA546B, size: 0x8, addend: 0x0, symName: __RNvXs2L_NtNtCs6IAuOt8vWmF_3syn3gen5cloneNtNtBa_4item7UsePathNtNtCsfvfooZQ3Axs_4core5clone5Clone5clone, symObjAddr: 0x1AC98, symBinAddr: 0x4C938, symSize: 0xC0 }
  - { offset: 0xA549F, size: 0x8, addend: 0x0, symName: __RNvXs2M_NtNtCs6IAuOt8vWmF_3syn3gen5cloneNtNtBa_4item9UseRenameNtNtCsfvfooZQ3Axs_4core5clone5Clone5clone, symObjAddr: 0x1AD58, symBinAddr: 0x4C9F8, symSize: 0xB8 }
  - { offset: 0xA54D3, size: 0x8, addend: 0x0, symName: __RNvXs2N_NtNtCs6IAuOt8vWmF_3syn3gen5cloneNtNtBa_4item7UseTreeNtNtCsfvfooZQ3Axs_4core5clone5Clone5clone, symObjAddr: 0x1AE10, symBinAddr: 0x4CAB0, symSize: 0x20C }
  - { offset: 0xA5596, size: 0x8, addend: 0x0, symName: __RNvXs2O_NtNtCs6IAuOt8vWmF_3syn3gen5cloneNtNtBa_4item8VariadicNtNtCsfvfooZQ3Axs_4core5clone5Clone5clone, symObjAddr: 0x1B01C, symBinAddr: 0x4CCBC, symSize: 0x108 }
  - { offset: 0xA55D0, size: 0x8, addend: 0x0, symName: __RNvXs1N_NtNtCs6IAuOt8vWmF_3syn3gen5debugNtNtBa_4item5FnArgNtNtCsfvfooZQ3Axs_4core3fmt5Debug3fmt, symObjAddr: 0x1B124, symBinAddr: 0x4CDC4, symSize: 0x170 }
  - { offset: 0xA56A1, size: 0x8, addend: 0x0, symName: __RNvXs1O_NtNtCs6IAuOt8vWmF_3syn3gen5debugNtNtBa_4item11ForeignItemNtNtCsfvfooZQ3Axs_4core3fmt5Debug3fmt, symObjAddr: 0x1B294, symBinAddr: 0x4CF34, symSize: 0x254 }
  - { offset: 0xA57AE, size: 0x8, addend: 0x0, symName: __RNvXs20_NtNtCs6IAuOt8vWmF_3syn3gen5debugNtNtBa_4item8ImplItemNtNtCsfvfooZQ3Axs_4core3fmt5Debug3fmt, symObjAddr: 0x1BAF0, symBinAddr: 0x4D660, symSize: 0x254 }
  - { offset: 0xA58BB, size: 0x8, addend: 0x0, symName: __RNvXs2b_NtNtCs6IAuOt8vWmF_3syn3gen5debugNtNtBa_4item4ItemNtNtCsfvfooZQ3Axs_4core3fmt5Debug3fmt, symObjAddr: 0x1C470, symBinAddr: 0x4DEA0, symSize: 0x54C }
  - { offset: 0xA5B20, size: 0x8, addend: 0x0, symName: __RNvXs3v_NtNtCs6IAuOt8vWmF_3syn3gen5debugNtNtBa_4item8ReceiverNtNtCsfvfooZQ3Axs_4core3fmt5Debug3fmt, symObjAddr: 0x1E52C, symBinAddr: 0x4FAE8, symSize: 0x150 }
  - { offset: 0xA5B81, size: 0x8, addend: 0x0, symName: __RNvXs3x_NtNtCs6IAuOt8vWmF_3syn3gen5debugNtNtBa_4item9SignatureNtNtCsfvfooZQ3Axs_4core3fmt5Debug3fmt, symObjAddr: 0x1E67C, symBinAddr: 0x4FC38, symSize: 0x20C }
  - { offset: 0xA5BE2, size: 0x8, addend: 0x0, symName: __RNvXs3y_NtNtCs6IAuOt8vWmF_3syn3gen5debugNtNtBa_4item16StaticMutabilityNtNtCsfvfooZQ3Axs_4core3fmt5Debug3fmt, symObjAddr: 0x1E888, symBinAddr: 0x4FE44, symSize: 0x134 }
  - { offset: 0xA5C7F, size: 0x8, addend: 0x0, symName: __RNvXs3E_NtNtCs6IAuOt8vWmF_3syn3gen5debugNtNtBa_4item9TraitItemNtNtCsfvfooZQ3Axs_4core3fmt5Debug3fmt, symObjAddr: 0x1E9BC, symBinAddr: 0x4FF78, symSize: 0x254 }
  - { offset: 0xA5D8C, size: 0x8, addend: 0x0, symName: __RNvXs4j_NtNtCs6IAuOt8vWmF_3syn3gen5debugNtNtBa_4item7UseGlobNtNtCsfvfooZQ3Axs_4core3fmt5Debug3fmt, symObjAddr: 0x1F268, symBinAddr: 0x506F4, symSize: 0x88 }
  - { offset: 0xA5DED, size: 0x8, addend: 0x0, symName: __RNvXs4k_NtNtCs6IAuOt8vWmF_3syn3gen5debugNtNtBa_4item8UseGroupNtNtCsfvfooZQ3Axs_4core3fmt5Debug3fmt, symObjAddr: 0x1F2F0, symBinAddr: 0x5077C, symSize: 0xB0 }
  - { offset: 0xA5E4E, size: 0x8, addend: 0x0, symName: __RNvXs4l_NtNtCs6IAuOt8vWmF_3syn3gen5debugNtNtBa_4item7UseNameNtNtCsfvfooZQ3Axs_4core3fmt5Debug3fmt, symObjAddr: 0x1F3A0, symBinAddr: 0x5082C, symSize: 0x88 }
  - { offset: 0xA5EAF, size: 0x8, addend: 0x0, symName: __RNvXs4m_NtNtCs6IAuOt8vWmF_3syn3gen5debugNtNtBa_4item7UsePathNtNtCsfvfooZQ3Axs_4core3fmt5Debug3fmt, symObjAddr: 0x1F428, symBinAddr: 0x508B4, symSize: 0xD8 }
  - { offset: 0xA5F10, size: 0x8, addend: 0x0, symName: __RNvXs4n_NtNtCs6IAuOt8vWmF_3syn3gen5debugNtNtBa_4item9UseRenameNtNtCsfvfooZQ3Axs_4core3fmt5Debug3fmt, symObjAddr: 0x1F500, symBinAddr: 0x5098C, symSize: 0xD8 }
  - { offset: 0xA5F71, size: 0x8, addend: 0x0, symName: __RNvXs4o_NtNtCs6IAuOt8vWmF_3syn3gen5debugNtNtBa_4item7UseTreeNtNtCsfvfooZQ3Axs_4core3fmt5Debug3fmt, symObjAddr: 0x1F5D8, symBinAddr: 0x50A64, symSize: 0x2FC }
  - { offset: 0xA60FD, size: 0x8, addend: 0x0, symName: __RNvXs4p_NtNtCs6IAuOt8vWmF_3syn3gen5debugNtNtBa_4item8VariadicNtNtCsfvfooZQ3Axs_4core3fmt5Debug3fmt, symObjAddr: 0x1F8D4, symBinAddr: 0x50D60, symSize: 0x100 }
  - { offset: 0xA7AF3, size: 0x8, addend: 0x0, symName: __RINvXNtNtCse1nGBsou5OW_5alloc5slice4hackNtNtCs6IAuOt8vWmF_3syn4item11ForeignItemNtB3_10ConvertVec6to_vecNtNtB7_5alloc6GlobalEBG_, symObjAddr: 0x0, symBinAddr: 0x39B5C, symSize: 0x36C }
  - { offset: 0xA7FB6, size: 0x8, addend: 0x0, symName: __RINvXNtNtCse1nGBsou5OW_5alloc5slice4hackNtNtCs6IAuOt8vWmF_3syn4item4ItemNtB3_10ConvertVec6to_vecNtNtB7_5alloc6GlobalEBG_, symObjAddr: 0x36C, symBinAddr: 0x39EC8, symSize: 0x36C }
  - { offset: 0xA8479, size: 0x8, addend: 0x0, symName: __RINvXNtNtCse1nGBsou5OW_5alloc5slice4hackNtNtCs6IAuOt8vWmF_3syn4item8ImplItemNtB3_10ConvertVec6to_vecNtNtB7_5alloc6GlobalEBG_, symObjAddr: 0x6D8, symBinAddr: 0x3A234, symSize: 0x36C }
  - { offset: 0xA893C, size: 0x8, addend: 0x0, symName: __RINvXNtNtCse1nGBsou5OW_5alloc5slice4hackNtNtCs6IAuOt8vWmF_3syn4item9TraitItemNtB3_10ConvertVec6to_vecNtNtB7_5alloc6GlobalEBG_, symObjAddr: 0xA44, symBinAddr: 0x3A5A0, symSize: 0x36C }
  - { offset: 0xA8DFF, size: 0x8, addend: 0x0, symName: __RINvXNtNtCse1nGBsou5OW_5alloc5slice4hackTNtNtCs6IAuOt8vWmF_3syn4item5FnArgNtNtBH_5token5CommaENtB3_10ConvertVec6to_vecNtNtB7_5alloc6GlobalEBH_, symObjAddr: 0xDB0, symBinAddr: 0x3A90C, symSize: 0x368 }
  - { offset: 0xA92C2, size: 0x8, addend: 0x0, symName: __RINvXNtNtCse1nGBsou5OW_5alloc5slice4hackTNtNtCs6IAuOt8vWmF_3syn4item7UseTreeNtNtBH_5token5CommaENtB3_10ConvertVec6to_vecNtNtB7_5alloc6GlobalEBH_, symObjAddr: 0x1118, symBinAddr: 0x3AC74, symSize: 0x368 }
  - { offset: 0xAD284, size: 0x8, addend: 0x0, symName: __RNvXs1a_NtCsfvfooZQ3Axs_4core3fmtRNtNtCs6IAuOt8vWmF_3syn4item11ForeignItemNtB6_5Debug3fmtBA_, symObjAddr: 0x16E0, symBinAddr: 0x3B23C, symSize: 0x30 }
  - { offset: 0xAD2CA, size: 0x8, addend: 0x0, symName: __RNvXs1a_NtCsfvfooZQ3Axs_4core3fmtRNtNtCs6IAuOt8vWmF_3syn4item4ItemNtB6_5Debug3fmtBA_, symObjAddr: 0x1740, symBinAddr: 0x3B26C, symSize: 0x30 }
  - { offset: 0xAD310, size: 0x8, addend: 0x0, symName: __RNvXs1a_NtCsfvfooZQ3Axs_4core3fmtRNtNtCs6IAuOt8vWmF_3syn4item8ImplItemNtB6_5Debug3fmtBA_, symObjAddr: 0x1770, symBinAddr: 0x3B29C, symSize: 0x30 }
  - { offset: 0xAD356, size: 0x8, addend: 0x0, symName: __RNvXs1a_NtCsfvfooZQ3Axs_4core3fmtRNtNtCs6IAuOt8vWmF_3syn4item8VariadicNtB6_5Debug3fmtBA_, symObjAddr: 0x17A0, symBinAddr: 0x3B2CC, symSize: 0x30 }
  - { offset: 0xAD39C, size: 0x8, addend: 0x0, symName: __RNvXs1a_NtCsfvfooZQ3Axs_4core3fmtRNtNtCs6IAuOt8vWmF_3syn4item9TraitItemNtB6_5Debug3fmtBA_, symObjAddr: 0x17D0, symBinAddr: 0x3B2FC, symSize: 0x30 }
  - { offset: 0xAD3E8, size: 0x8, addend: 0x0, symName: __RNvXsr_NtCsfvfooZQ3Axs_4core3fmtSNtNtCs6IAuOt8vWmF_3syn4item11ForeignItemNtB5_5Debug3fmtBz_, symObjAddr: 0x2898, symBinAddr: 0x3B32C, symSize: 0x90 }
  - { offset: 0xAD546, size: 0x8, addend: 0x0, symName: __RNvXsr_NtCsfvfooZQ3Axs_4core3fmtSNtNtCs6IAuOt8vWmF_3syn4item4ItemNtB5_5Debug3fmtBz_, symObjAddr: 0x2928, symBinAddr: 0x3B3BC, symSize: 0x90 }
  - { offset: 0xAD6A4, size: 0x8, addend: 0x0, symName: __RNvXsr_NtCsfvfooZQ3Axs_4core3fmtSNtNtCs6IAuOt8vWmF_3syn4item8ImplItemNtB5_5Debug3fmtBz_, symObjAddr: 0x29B8, symBinAddr: 0x3B44C, symSize: 0x90 }
  - { offset: 0xAD802, size: 0x8, addend: 0x0, symName: __RNvXsr_NtCsfvfooZQ3Axs_4core3fmtSNtNtCs6IAuOt8vWmF_3syn4item9TraitItemNtB5_5Debug3fmtBz_, symObjAddr: 0x2A48, symBinAddr: 0x3B4DC, symSize: 0x90 }
  - { offset: 0xAE32D, size: 0x8, addend: 0x0, symName: __RNvMNtCsfvfooZQ3Axs_4core5sliceSTNtNtCs6IAuOt8vWmF_3syn4item5FnArgNtNtBz_5token5CommaE4iterBz_, symObjAddr: 0x1480, symBinAddr: 0x3AFDC, symSize: 0x28 }
  - { offset: 0xAE364, size: 0x8, addend: 0x0, symName: __RNvMNtCsfvfooZQ3Axs_4core5sliceSTNtNtCs6IAuOt8vWmF_3syn4item7UseTreeNtNtBz_5token5CommaE4iterBz_, symObjAddr: 0x14A8, symBinAddr: 0x3B004, symSize: 0x28 }
  - { offset: 0xAEAF0, size: 0x8, addend: 0x0, symName: __RNvXNtNtCsfvfooZQ3Axs_4core5clone6uninitNtNtCs6IAuOt8vWmF_3syn4item5FnArgNtB2_8CopySpec9clone_oneBG_, symObjAddr: 0x1650, symBinAddr: 0x3B1AC, symSize: 0x48 }
  - { offset: 0xAEB54, size: 0x8, addend: 0x0, symName: __RNvXNtNtCsfvfooZQ3Axs_4core5clone6uninitNtNtCs6IAuOt8vWmF_3syn4item7UseTreeNtB2_8CopySpec9clone_oneBG_, symObjAddr: 0x1698, symBinAddr: 0x3B1F4, symSize: 0x48 }
  - { offset: 0xB1357, size: 0x8, addend: 0x0, symName: __RNvXNtCs2cqEZUIJimJ_5quote9to_tokensRNtNtCs6IAuOt8vWmF_3syn4item11ForeignItemNtB2_8ToTokens9to_tokensBD_, symObjAddr: 0x14D0, symBinAddr: 0x3B02C, symSize: 0x40 }
  - { offset: 0xB1396, size: 0x8, addend: 0x0, symName: __RNvXNtCs2cqEZUIJimJ_5quote9to_tokensRNtNtCs6IAuOt8vWmF_3syn4item4ItemNtB2_8ToTokens9to_tokensBD_, symObjAddr: 0x1510, symBinAddr: 0x3B06C, symSize: 0x40 }
  - { offset: 0xB13D5, size: 0x8, addend: 0x0, symName: __RNvXNtCs2cqEZUIJimJ_5quote9to_tokensRNtNtCs6IAuOt8vWmF_3syn4item5FnArgNtB2_8ToTokens9to_tokensBD_, symObjAddr: 0x1550, symBinAddr: 0x3B0AC, symSize: 0x40 }
  - { offset: 0xB1414, size: 0x8, addend: 0x0, symName: __RNvXNtCs2cqEZUIJimJ_5quote9to_tokensRNtNtCs6IAuOt8vWmF_3syn4item7UseTreeNtB2_8ToTokens9to_tokensBD_, symObjAddr: 0x1590, symBinAddr: 0x3B0EC, symSize: 0x40 }
  - { offset: 0xB1453, size: 0x8, addend: 0x0, symName: __RNvXNtCs2cqEZUIJimJ_5quote9to_tokensRNtNtCs6IAuOt8vWmF_3syn4item8ImplItemNtB2_8ToTokens9to_tokensBD_, symObjAddr: 0x15D0, symBinAddr: 0x3B12C, symSize: 0x40 }
  - { offset: 0xB1492, size: 0x8, addend: 0x0, symName: __RNvXNtCs2cqEZUIJimJ_5quote9to_tokensRNtNtCs6IAuOt8vWmF_3syn4item9TraitItemNtB2_8ToTokens9to_tokensBD_, symObjAddr: 0x1610, symBinAddr: 0x3B16C, symSize: 0x40 }
  - { offset: 0xB1776, size: 0x8, addend: 0x0, symName: __RNvMNtCs6IAuOt8vWmF_3syn4itemNtB2_4Item13replace_attrs, symObjAddr: 0x2BF8, symBinAddr: 0x3B56C, symSize: 0x328 }
  - { offset: 0xB189E, size: 0x8, addend: 0x0, symName: __RNvMs1Q_NtNtCs6IAuOt8vWmF_3syn3gen5debugNtNtBa_4item13ForeignItemFn5debug, symObjAddr: 0x1B534, symBinAddr: 0x4D188, symSize: 0x104 }
  - { offset: 0xB190A, size: 0x8, addend: 0x0, symName: __RNvMs1S_NtNtCs6IAuOt8vWmF_3syn3gen5debugNtNtBa_4item16ForeignItemMacro5debug, symObjAddr: 0x1B684, symBinAddr: 0x4D28C, symSize: 0xDC }
  - { offset: 0xB1976, size: 0x8, addend: 0x0, symName: __RNvMs1U_NtNtCs6IAuOt8vWmF_3syn3gen5debugNtNtBa_4item17ForeignItemStatic5debug, symObjAddr: 0x1B7AC, symBinAddr: 0x4D368, symSize: 0x1A4 }
  - { offset: 0xB19E2, size: 0x8, addend: 0x0, symName: __RNvMs1W_NtNtCs6IAuOt8vWmF_3syn3gen5debugNtNtBa_4item15ForeignItemType5debug, symObjAddr: 0x1B99C, symBinAddr: 0x4D50C, symSize: 0x154 }
  - { offset: 0xB1A4E, size: 0x8, addend: 0x0, symName: __RNvMs22_NtNtCs6IAuOt8vWmF_3syn3gen5debugNtNtBa_4item13ImplItemConst5debug, symObjAddr: 0x1BD90, symBinAddr: 0x4D8B4, symSize: 0x218 }
  - { offset: 0xB1ABA, size: 0x8, addend: 0x0, symName: __RNvMs24_NtNtCs6IAuOt8vWmF_3syn3gen5debugNtNtBa_4item10ImplItemFn5debug, symObjAddr: 0x1BFF4, symBinAddr: 0x4DACC, symSize: 0x12C }
  - { offset: 0xB1B26, size: 0x8, addend: 0x0, symName: __RNvMs26_NtNtCs6IAuOt8vWmF_3syn3gen5debugNtNtBa_4item13ImplItemMacro5debug, symObjAddr: 0x1C16C, symBinAddr: 0x4DBF8, symSize: 0xDC }
  - { offset: 0xB1B92, size: 0x8, addend: 0x0, symName: __RNvMs28_NtNtCs6IAuOt8vWmF_3syn3gen5debugNtNtBa_4item12ImplItemType5debug, symObjAddr: 0x1C294, symBinAddr: 0x4DCD4, symSize: 0x1CC }
  - { offset: 0xB1BFE, size: 0x8, addend: 0x0, symName: __RNvMs2d_NtNtCs6IAuOt8vWmF_3syn3gen5debugNtNtBa_4item9ItemConst5debug, symObjAddr: 0x1CA08, symBinAddr: 0x4E3EC, symSize: 0x1F4 }
  - { offset: 0xB1C6A, size: 0x8, addend: 0x0, symName: __RNvMs2f_NtNtCs6IAuOt8vWmF_3syn3gen5debugNtNtBa_4item8ItemEnum5debug, symObjAddr: 0x1CC48, symBinAddr: 0x4E5E0, symSize: 0x17C }
  - { offset: 0xB1CD6, size: 0x8, addend: 0x0, symName: __RNvMs2h_NtNtCs6IAuOt8vWmF_3syn3gen5debugNtNtBa_4item15ItemExternCrate5debug, symObjAddr: 0x1CE10, symBinAddr: 0x4E75C, symSize: 0x17C }
  - { offset: 0xB1D42, size: 0x8, addend: 0x0, symName: __RNvMs2j_NtNtCs6IAuOt8vWmF_3syn3gen5debugNtNtBa_4item6ItemFn5debug, symObjAddr: 0x1CFD8, symBinAddr: 0x4E8D8, symSize: 0x104 }
  - { offset: 0xB1DAE, size: 0x8, addend: 0x0, symName: __RNvMs2l_NtNtCs6IAuOt8vWmF_3syn3gen5debugNtNtBa_4item14ItemForeignMod5debug, symObjAddr: 0x1D128, symBinAddr: 0x4E9DC, symSize: 0x12C }
  - { offset: 0xB1E1A, size: 0x8, addend: 0x0, symName: __RNvMs2n_NtNtCs6IAuOt8vWmF_3syn3gen5debugNtNtBa_4item8ItemImpl5debug, symObjAddr: 0x1D2A0, symBinAddr: 0x4EB08, symSize: 0x1CC }
  - { offset: 0xB1E86, size: 0x8, addend: 0x0, symName: __RNvMs2p_NtNtCs6IAuOt8vWmF_3syn3gen5debugNtNtBa_4item9ItemMacro5debug, symObjAddr: 0x1D4B8, symBinAddr: 0x4ECD4, symSize: 0x104 }
  - { offset: 0xB1EF2, size: 0x8, addend: 0x0, symName: __RNvMs2r_NtNtCs6IAuOt8vWmF_3syn3gen5debugNtNtBa_4item7ItemMod5debug, symObjAddr: 0x1D608, symBinAddr: 0x4EDD8, symSize: 0x17C }
  - { offset: 0xB1F5E, size: 0x8, addend: 0x0, symName: __RNvMs2t_NtNtCs6IAuOt8vWmF_3syn3gen5debugNtNtBa_4item10ItemStatic5debug, symObjAddr: 0x1D7D0, symBinAddr: 0x4EF54, symSize: 0x1F4 }
  - { offset: 0xB1FCA, size: 0x8, addend: 0x0, symName: __RNvMs2v_NtNtCs6IAuOt8vWmF_3syn3gen5debugNtNtBa_4item10ItemStruct5debug, symObjAddr: 0x1DA10, symBinAddr: 0x4F148, symSize: 0x17C }
  - { offset: 0xB2036, size: 0x8, addend: 0x0, symName: __RNvMs2x_NtNtCs6IAuOt8vWmF_3syn3gen5debugNtNtBa_4item9ItemTrait5debug, symObjAddr: 0x1DBD8, symBinAddr: 0x4F2C4, symSize: 0x234 }
  - { offset: 0xB20A2, size: 0x8, addend: 0x0, symName: __RNvMs2z_NtNtCs6IAuOt8vWmF_3syn3gen5debugNtNtBa_4item14ItemTraitAlias5debug, symObjAddr: 0x1DE58, symBinAddr: 0x4F4F8, symSize: 0x1A4 }
  - { offset: 0xB210E, size: 0x8, addend: 0x0, symName: __RNvMs2B_NtNtCs6IAuOt8vWmF_3syn3gen5debugNtNtBa_4item8ItemType5debug, symObjAddr: 0x1E048, symBinAddr: 0x4F69C, symSize: 0x1A4 }
  - { offset: 0xB217A, size: 0x8, addend: 0x0, symName: __RNvMs2D_NtNtCs6IAuOt8vWmF_3syn3gen5debugNtNtBa_4item9ItemUnion5debug, symObjAddr: 0x1E238, symBinAddr: 0x4F840, symSize: 0x154 }
  - { offset: 0xB21E6, size: 0x8, addend: 0x0, symName: __RNvMs2F_NtNtCs6IAuOt8vWmF_3syn3gen5debugNtNtBa_4item7ItemUse5debug, symObjAddr: 0x1E3D8, symBinAddr: 0x4F994, symSize: 0x154 }
  - { offset: 0xB2252, size: 0x8, addend: 0x0, symName: __RNvMs3G_NtNtCs6IAuOt8vWmF_3syn3gen5debugNtNtBa_4item14TraitItemConst5debug, symObjAddr: 0x1EC5C, symBinAddr: 0x501CC, symSize: 0x1A4 }
  - { offset: 0xB22BE, size: 0x8, addend: 0x0, symName: __RNvMs3I_NtNtCs6IAuOt8vWmF_3syn3gen5debugNtNtBa_4item11TraitItemFn5debug, symObjAddr: 0x1EE4C, symBinAddr: 0x50370, symSize: 0x104 }
  - { offset: 0xB232A, size: 0x8, addend: 0x0, symName: __RNvMs3K_NtNtCs6IAuOt8vWmF_3syn3gen5debugNtNtBa_4item14TraitItemMacro5debug, symObjAddr: 0x1EF9C, symBinAddr: 0x50474, symSize: 0xDC }
  - { offset: 0xB2396, size: 0x8, addend: 0x0, symName: __RNvMs3M_NtNtCs6IAuOt8vWmF_3syn3gen5debugNtNtBa_4item13TraitItemType5debug, symObjAddr: 0x1F0C4, symBinAddr: 0x50550, symSize: 0x1A4 }
  - { offset: 0xB273A, size: 0x8, addend: 0x0, symName: __RINvMs_NtCse1nGBsou5OW_5alloc3vecINtB5_3VecReE10retain_mutNCNvMNtCs6IAuOt8vWmF_3syn9lookaheadNtBZ_10Lookahead15error0EB11_, symObjAddr: 0x0, symBinAddr: 0x50E60, symSize: 0xE4 }
  - { offset: 0xB34DF, size: 0x8, addend: 0x0, symName: __RNvXs1a_NtCsfvfooZQ3Axs_4core3fmtRINtNtCse1nGBsou5OW_5alloc3vec3VecNtNtCs6IAuOt8vWmF_3syn4item4ItemENtB6_5Debug3fmtB17_, symObjAddr: 0x6C00, symBinAddr: 0x55680, symSize: 0x30 }
  - { offset: 0xB3525, size: 0x8, addend: 0x0, symName: __RNvXs1a_NtCsfvfooZQ3Axs_4core3fmtRINtNtCse1nGBsou5OW_5alloc3vec3VechENtB6_5Debug3fmtCs6IAuOt8vWmF_3syn, symObjAddr: 0x6C30, symBinAddr: 0x556B0, symSize: 0x30 }
  - { offset: 0xBCF0B, size: 0x8, addend: 0x0, symName: __RNvXs1_NtCsfvfooZQ3Axs_4core7convertINtNtCse1nGBsou5OW_5alloc3vec3VechEINtB5_4IntoBy_E4intoCs6IAuOt8vWmF_3syn, symObjAddr: 0x6BE8, symBinAddr: 0x55668, symSize: 0x18 }
  - { offset: 0xBD148, size: 0x8, addend: 0x0, symName: __RINvNvMs_NtCse1nGBsou5OW_5alloc3vecINtB7_3VecppE10retain_mut12process_loopNCNvMNtCs6IAuOt8vWmF_3syn9lookaheadNtB1f_10Lookahead15error0ReNtNtB9_5alloc6GlobalKb0_EB1h_, symObjAddr: 0xC64, symBinAddr: 0x51440, symSize: 0xCC }
  - { offset: 0xBD29C, size: 0x8, addend: 0x0, symName: __RINvNvMs_NtCse1nGBsou5OW_5alloc3vecINtB7_3VecppE10retain_mut12process_loopNCNvMNtCs6IAuOt8vWmF_3syn9lookaheadNtB1f_10Lookahead15error0ReNtNtB9_5alloc6GlobalKb1_EB1h_, symObjAddr: 0xD30, symBinAddr: 0x5150C, symSize: 0x168 }
  - { offset: 0xBD492, size: 0x8, addend: 0x0, symName: __RNvXNvMs_NtCse1nGBsou5OW_5alloc3vecINtB7_3VecppE10retain_mutINtB2_15BackshiftOnDropReNtNtB9_5alloc6GlobalENtNtNtCsfvfooZQ3Axs_4core3ops4drop4Drop4dropCs6IAuOt8vWmF_3syn, symObjAddr: 0x681C, symBinAddr: 0x55334, symSize: 0x124 }
  - { offset: 0xBFEFD, size: 0x8, addend: 0x0, symName: __RINvXsh_NtCse1nGBsou5OW_5alloc3vecINtB6_3VecNtCs3cP53eQoTwO_11proc_macro29TokenTreeEINtNtNtNtCsfvfooZQ3Axs_4core4iter6traits7collect6ExtendBG_E6extendINtNtNtB1r_8adapters7flatten7FlattenINtNtB2t_3map3MapIB2Z_IB2Z_INtNtNtB1t_5slice4iter4IterNtNtCs6IAuOt8vWmF_3syn5error12ErrorMessageENvMs_B3S_B3Q_16to_compile_errorENCINvXs7_BI_NtBI_11TokenStreamINtB1n_12FromIteratorB5f_E9from_iterB3k_E0ENCINvXs6_NtBI_3impNtB6n_11TokenStreamIB5y_B6w_E9from_iterB3f_Es_0EEEB3U_, symObjAddr: 0xED4, symBinAddr: 0x51674, symSize: 0x48 }
  - { offset: 0xBFF52, size: 0x8, addend: 0x0, symName: __RINvXsh_NtCse1nGBsou5OW_5alloc3vecINtB6_3VecNtNtCs6IAuOt8vWmF_3syn4attr9AttributeEINtNtNtNtCsfvfooZQ3Axs_4core4iter6traits7collect6ExtendBG_E6extendBw_EBK_, symObjAddr: 0xF1C, symBinAddr: 0x516BC, symSize: 0x48 }
  - { offset: 0xBFFA7, size: 0x8, addend: 0x0, symName: __RINvXsh_NtCse1nGBsou5OW_5alloc3vecINtB6_3VecNtNtCs6IAuOt8vWmF_3syn8generics14TypeParamBoundEINtNtNtNtCsfvfooZQ3Axs_4core4iter6traits7collect6ExtendBG_E6extendINtNtB1B_6option6OptionBG_EEBK_, symObjAddr: 0x108C, symBinAddr: 0x51704, symSize: 0x48 }
  - { offset: 0xBFFFC, size: 0x8, addend: 0x0, symName: __RINvXsh_NtCse1nGBsou5OW_5alloc3vecINtB6_3VecNtNtCs6IAuOt8vWmF_3syn8generics14TypeParamBoundEINtNtNtNtCsfvfooZQ3Axs_4core4iter6traits7collect6ExtendBG_E6extendINtNtNtB1z_8adapters3map3MapINtNtB6_9into_iter8IntoIterTBG_NtNtBK_5token4PlusEENCNvXs8_NtBK_10punctuatedINtB3V_10PunctuatedBG_B3t_ENtB1v_12IntoIterator9into_iter0EEBK_, symObjAddr: 0x10D4, symBinAddr: 0x5174C, symSize: 0x48 }
  - { offset: 0xC005C, size: 0x8, addend: 0x0, symName: __RNCINvMsi_NtCse1nGBsou5OW_5alloc3vecINtB8_3VecNtNtCs6IAuOt8vWmF_3syn8generics14TypeParamBoundE14extend_trustedINtNtCsfvfooZQ3Axs_4core6option8IntoIterBI_EE0BM_, symObjAddr: 0x1218, symBinAddr: 0x51794, symSize: 0x54 }
  - { offset: 0xC011A, size: 0x8, addend: 0x0, symName: __RNCINvMsi_NtCse1nGBsou5OW_5alloc3vecINtB8_3VecNtNtCs6IAuOt8vWmF_3syn8generics14TypeParamBoundE14extend_trustedINtNtNtNtCsfvfooZQ3Axs_4core4iter8adapters3map3MapINtNtB8_9into_iter8IntoIterTBI_NtNtBM_5token4PlusEENCNvXs8_NtBM_10punctuatedINtB3v_10PunctuatedBI_B33_ENtNtNtB1R_6traits7collect12IntoIterator9into_iter0EE0BM_, symObjAddr: 0x126C, symBinAddr: 0x517E8, symSize: 0x54 }
  - { offset: 0xC061A, size: 0x8, addend: 0x0, symName: __RNvXs6_NtCse1nGBsou5OW_5alloc3vecINtB5_3VecNtNtCs6IAuOt8vWmF_3syn4attr9AttributeENtNtNtCsfvfooZQ3Axs_4core3ops5deref5Deref5derefBJ_, symObjAddr: 0x6C60, symBinAddr: 0x556E0, symSize: 0x24 }
  - { offset: 0xC065A, size: 0x8, addend: 0x0, symName: __RNvXs6_NtCse1nGBsou5OW_5alloc3vecINtB5_3VecNtNtCs6IAuOt8vWmF_3syn4expr3ArmENtNtNtCsfvfooZQ3Axs_4core3ops5deref5Deref5derefBJ_, symObjAddr: 0x6C84, symBinAddr: 0x55704, symSize: 0x24 }
  - { offset: 0xC069A, size: 0x8, addend: 0x0, symName: __RNvXs6_NtCse1nGBsou5OW_5alloc3vecINtB5_3VecNtNtCs6IAuOt8vWmF_3syn5error12ErrorMessageENtNtNtCsfvfooZQ3Axs_4core3ops5deref5Deref5derefBJ_, symObjAddr: 0x6CA8, symBinAddr: 0x55728, symSize: 0x24 }
  - { offset: 0xC06DA, size: 0x8, addend: 0x0, symName: __RNvXs6_NtCse1nGBsou5OW_5alloc3vecINtB5_3VecReENtNtNtCsfvfooZQ3Axs_4core3ops5deref5Deref5derefCs6IAuOt8vWmF_3syn, symObjAddr: 0x6CCC, symBinAddr: 0x5574C, symSize: 0x24 }
  - { offset: 0xC071A, size: 0x8, addend: 0x0, symName: __RNvXs6_NtCse1nGBsou5OW_5alloc3vecINtB5_3VecTNtNtCs6IAuOt8vWmF_3syn2ty4TypeNtNtBK_5token5CommaEENtNtNtCsfvfooZQ3Axs_4core3ops5deref5Deref5derefBK_, symObjAddr: 0x6CF0, symBinAddr: 0x55770, symSize: 0x24 }
  - { offset: 0xC075A, size: 0x8, addend: 0x0, symName: __RNvXs6_NtCse1nGBsou5OW_5alloc3vecINtB5_3VecTNtNtCs6IAuOt8vWmF_3syn2ty9BareFnArgNtNtBK_5token5CommaEENtNtNtCsfvfooZQ3Axs_4core3ops5deref5Deref5derefBK_, symObjAddr: 0x6D14, symBinAddr: 0x55794, symSize: 0x24 }
  - { offset: 0xC079A, size: 0x8, addend: 0x0, symName: __RNvXs6_NtCse1nGBsou5OW_5alloc3vecINtB5_3VecTNtNtCs6IAuOt8vWmF_3syn3pat3PatNtNtBK_5token2OrEENtNtNtCsfvfooZQ3Axs_4core3ops5deref5Deref5derefBK_, symObjAddr: 0x6D38, symBinAddr: 0x557B8, symSize: 0x24 }
  - { offset: 0xC07DA, size: 0x8, addend: 0x0, symName: __RNvXs6_NtCse1nGBsou5OW_5alloc3vecINtB5_3VecTNtNtCs6IAuOt8vWmF_3syn3pat3PatNtNtBK_5token5CommaEENtNtNtCsfvfooZQ3Axs_4core3ops5deref5Deref5derefBK_, symObjAddr: 0x6D5C, symBinAddr: 0x557DC, symSize: 0x24 }
  - { offset: 0xC081A, size: 0x8, addend: 0x0, symName: __RNvXs6_NtCse1nGBsou5OW_5alloc3vecINtB5_3VecTNtNtCs6IAuOt8vWmF_3syn3pat8FieldPatNtNtBK_5token5CommaEENtNtNtCsfvfooZQ3Axs_4core3ops5deref5Deref5derefBK_, symObjAddr: 0x6D80, symBinAddr: 0x55800, symSize: 0x24 }
  - { offset: 0xC085A, size: 0x8, addend: 0x0, symName: __RNvXs6_NtCse1nGBsou5OW_5alloc3vecINtB5_3VecTNtNtCs6IAuOt8vWmF_3syn4data5FieldNtNtBK_5token5CommaEENtNtNtCsfvfooZQ3Axs_4core3ops5deref5Deref5derefBK_, symObjAddr: 0x6DA4, symBinAddr: 0x55824, symSize: 0x24 }
  - { offset: 0xC089A, size: 0x8, addend: 0x0, symName: __RNvXs6_NtCse1nGBsou5OW_5alloc3vecINtB5_3VecTNtNtCs6IAuOt8vWmF_3syn4data7VariantNtNtBK_5token5CommaEENtNtNtCsfvfooZQ3Axs_4core3ops5deref5Deref5derefBK_, symObjAddr: 0x6DC8, symBinAddr: 0x55848, symSize: 0x24 }
  - { offset: 0xC08DA, size: 0x8, addend: 0x0, symName: __RNvXs6_NtCse1nGBsou5OW_5alloc3vecINtB5_3VecTNtNtCs6IAuOt8vWmF_3syn4expr10FieldValueNtNtBK_5token5CommaEENtNtNtCsfvfooZQ3Axs_4core3ops5deref5Deref5derefBK_, symObjAddr: 0x6DEC, symBinAddr: 0x5586C, symSize: 0x24 }
  - { offset: 0xC091A, size: 0x8, addend: 0x0, symName: __RNvXs6_NtCse1nGBsou5OW_5alloc3vecINtB5_3VecTNtNtCs6IAuOt8vWmF_3syn4expr4ExprNtNtBK_5token5CommaEENtNtNtCsfvfooZQ3Axs_4core3ops5deref5Deref5derefBK_, symObjAddr: 0x6E10, symBinAddr: 0x55890, symSize: 0x24 }
  - { offset: 0xC095A, size: 0x8, addend: 0x0, symName: __RNvXs6_NtCse1nGBsou5OW_5alloc3vecINtB5_3VecTNtNtCs6IAuOt8vWmF_3syn4item5FnArgNtNtBK_5token5CommaEENtNtNtCsfvfooZQ3Axs_4core3ops5deref5Deref5derefBK_, symObjAddr: 0x6E34, symBinAddr: 0x558B4, symSize: 0x24 }
  - { offset: 0xC099A, size: 0x8, addend: 0x0, symName: __RNvXs6_NtCse1nGBsou5OW_5alloc3vecINtB5_3VecTNtNtCs6IAuOt8vWmF_3syn4item7UseTreeNtNtBK_5token5CommaEENtNtNtCsfvfooZQ3Axs_4core3ops5deref5Deref5derefBK_, symObjAddr: 0x6E58, symBinAddr: 0x558D8, symSize: 0x24 }
  - { offset: 0xC09DA, size: 0x8, addend: 0x0, symName: __RNvXs6_NtCse1nGBsou5OW_5alloc3vecINtB5_3VecTNtNtCs6IAuOt8vWmF_3syn4path11PathSegmentNtNtBK_5token7PathSepEENtNtNtCsfvfooZQ3Axs_4core3ops5deref5Deref5derefBK_, symObjAddr: 0x6E7C, symBinAddr: 0x558FC, symSize: 0x24 }
  - { offset: 0xC0A1A, size: 0x8, addend: 0x0, symName: __RNvXs6_NtCse1nGBsou5OW_5alloc3vecINtB5_3VecTNtNtCs6IAuOt8vWmF_3syn4path15GenericArgumentNtNtBK_5token5CommaEENtNtNtCsfvfooZQ3Axs_4core3ops5deref5Deref5derefBK_, symObjAddr: 0x6EA0, symBinAddr: 0x55920, symSize: 0x24 }
  - { offset: 0xC0A5A, size: 0x8, addend: 0x0, symName: __RNvXs6_NtCse1nGBsou5OW_5alloc3vecINtB5_3VecTNtNtCs6IAuOt8vWmF_3syn8generics12GenericParamNtNtBK_5token5CommaEENtNtNtCsfvfooZQ3Axs_4core3ops5deref5Deref5derefBK_, symObjAddr: 0x6EC4, symBinAddr: 0x55944, symSize: 0x24 }
  - { offset: 0xC0A9A, size: 0x8, addend: 0x0, symName: __RNvXs6_NtCse1nGBsou5OW_5alloc3vecINtB5_3VecTNtNtCs6IAuOt8vWmF_3syn8generics13CapturedParamNtNtBK_5token5CommaEENtNtNtCsfvfooZQ3Axs_4core3ops5deref5Deref5derefBK_, symObjAddr: 0x6EE8, symBinAddr: 0x55968, symSize: 0x24 }
  - { offset: 0xC0ADA, size: 0x8, addend: 0x0, symName: __RNvXs6_NtCse1nGBsou5OW_5alloc3vecINtB5_3VecTNtNtCs6IAuOt8vWmF_3syn8generics14TypeParamBoundNtNtBK_5token4PlusEENtNtNtCsfvfooZQ3Axs_4core3ops5deref5Deref5derefBK_, symObjAddr: 0x6F0C, symBinAddr: 0x5598C, symSize: 0x24 }
  - { offset: 0xC0B1A, size: 0x8, addend: 0x0, symName: __RNvXs6_NtCse1nGBsou5OW_5alloc3vecINtB5_3VecTNtNtCs6IAuOt8vWmF_3syn8generics14WherePredicateNtNtBK_5token5CommaEENtNtNtCsfvfooZQ3Axs_4core3ops5deref5Deref5derefBK_, symObjAddr: 0x6F30, symBinAddr: 0x559B0, symSize: 0x24 }
  - { offset: 0xC0B5A, size: 0x8, addend: 0x0, symName: __RNvXs6_NtCse1nGBsou5OW_5alloc3vecINtB5_3VecTNtNtCs6IAuOt8vWmF_3syn8lifetime8LifetimeNtNtBK_5token4PlusEENtNtNtCsfvfooZQ3Axs_4core3ops5deref5Deref5derefBK_, symObjAddr: 0x6F54, symBinAddr: 0x559D4, symSize: 0x24 }
  - { offset: 0xC0B9A, size: 0x8, addend: 0x0, symName: __RNvXs6_NtCse1nGBsou5OW_5alloc3vecINtB5_3VechENtNtNtCsfvfooZQ3Axs_4core3ops5deref5Deref5derefCs6IAuOt8vWmF_3syn, symObjAddr: 0x6F78, symBinAddr: 0x559F8, symSize: 0x24 }
  - { offset: 0xC17E0, size: 0x8, addend: 0x0, symName: __RNvXsb_NtCse1nGBsou5OW_5alloc3vecINtB5_3VecNtNtCs6IAuOt8vWmF_3syn5error12ErrorMessageEINtNtNtCsfvfooZQ3Axs_4core3ops5index5IndexjE5indexBJ_, symObjAddr: 0x7EA4, symBinAddr: 0x5680C, symSize: 0x84 }
  - { offset: 0xC1962, size: 0x8, addend: 0x0, symName: __RNvXsb_NtCse1nGBsou5OW_5alloc3vecINtB5_3VecReEINtNtNtCsfvfooZQ3Axs_4core3ops5index5IndexjE5indexCs6IAuOt8vWmF_3syn, symObjAddr: 0x7F28, symBinAddr: 0x56890, symSize: 0x84 }
  - { offset: 0xC1AE4, size: 0x8, addend: 0x0, symName: __RNvXsb_NtCse1nGBsou5OW_5alloc3vecINtB5_3VecTNtNtCs6IAuOt8vWmF_3syn3pat3PatNtNtBK_5token5CommaEEINtNtNtCsfvfooZQ3Axs_4core3ops5index5IndexjE5indexBK_, symObjAddr: 0x7FAC, symBinAddr: 0x56914, symSize: 0x84 }
  - { offset: 0xC1C66, size: 0x8, addend: 0x0, symName: __RNvXsb_NtCse1nGBsou5OW_5alloc3vecINtB5_3VecTNtNtCs6IAuOt8vWmF_3syn4path11PathSegmentNtNtBK_5token7PathSepEEINtNtNtCsfvfooZQ3Axs_4core3ops5index5IndexjE5indexBK_, symObjAddr: 0x8030, symBinAddr: 0x56998, symSize: 0x84 }
  - { offset: 0xC1DE8, size: 0x8, addend: 0x0, symName: __RNvXsb_NtCse1nGBsou5OW_5alloc3vecINtB5_3VechEINtNtNtCsfvfooZQ3Axs_4core3ops5index5IndexINtNtBM_5range9RangeFromjEE5indexCs6IAuOt8vWmF_3syn, symObjAddr: 0x80B4, symBinAddr: 0x56A1C, symSize: 0x80 }
  - { offset: 0xC1F6A, size: 0x8, addend: 0x0, symName: __RNvXsb_NtCse1nGBsou5OW_5alloc3vecINtB5_3VechEINtNtNtCsfvfooZQ3Axs_4core3ops5index5IndexjE5indexCs6IAuOt8vWmF_3syn, symObjAddr: 0x8134, symBinAddr: 0x56A9C, symSize: 0x80 }
  - { offset: 0xC20F7, size: 0x8, addend: 0x0, symName: __RNvXNtNtCse1nGBsou5OW_5alloc3vec11spec_extendINtB4_3VecNtCs3cP53eQoTwO_11proc_macro29TokenTreeEINtB2_10SpecExtendBR_INtNtNtNtCsfvfooZQ3Axs_4core4iter8adapters7flatten7FlattenINtNtB1V_3map3MapIB2N_IB2N_INtNtNtB1Z_5slice4iter4IterNtNtCs6IAuOt8vWmF_3syn5error12ErrorMessageENvMs_B3G_B3E_16to_compile_errorENCINvXs7_BT_NtBT_11TokenStreamINtNtNtB1X_6traits7collect12FromIteratorB53_E9from_iterB38_E0ENCINvXs6_NtBT_3impNtB6u_11TokenStreamIB5m_B6D_E9from_iterB33_Es_0EEE11spec_extendB3I_, symObjAddr: 0x6590, symBinAddr: 0x55310, symSize: 0x24 }
  - { offset: 0xC214F, size: 0x8, addend: 0x0, symName: __RNvXs0_NtNtCse1nGBsou5OW_5alloc3vec11spec_extendINtB7_3VecNtNtCs6IAuOt8vWmF_3syn4attr9AttributeEINtB5_10SpecExtendBU_INtNtB7_9into_iter8IntoIterBU_EE11spec_extendBY_, symObjAddr: 0x6AB8, symBinAddr: 0x555D0, symSize: 0x98 }
  - { offset: 0xC21BB, size: 0x8, addend: 0x0, symName: __RNvXs_NtNtCse1nGBsou5OW_5alloc3vec11spec_extendINtB6_3VecNtNtCs6IAuOt8vWmF_3syn8generics14TypeParamBoundEINtB4_10SpecExtendBT_INtNtCsfvfooZQ3Axs_4core6option8IntoIterBT_EE11spec_extendBX_, symObjAddr: 0x7E5C, symBinAddr: 0x567C4, symSize: 0x24 }
  - { offset: 0xC220D, size: 0x8, addend: 0x0, symName: __RNvXs_NtNtCse1nGBsou5OW_5alloc3vec11spec_extendINtB6_3VecNtNtCs6IAuOt8vWmF_3syn8generics14TypeParamBoundEINtB4_10SpecExtendBT_INtNtNtNtCsfvfooZQ3Axs_4core4iter8adapters3map3MapINtNtB6_9into_iter8IntoIterTBT_NtNtBX_5token4PlusEENCNvXs8_NtBX_10punctuatedINtB3L_10PunctuatedBT_B3j_ENtNtNtB27_6traits7collect12IntoIterator9into_iter0EE11spec_extendBX_, symObjAddr: 0x7E80, symBinAddr: 0x567E8, symSize: 0x24 }
  - { offset: 0xC2266, size: 0x8, addend: 0x0, symName: __RNvXs7_NtCse1nGBsou5OW_5alloc3vecINtB5_3VecTNtNtCs6IAuOt8vWmF_3syn4data5FieldNtNtBK_5token5CommaEENtNtNtCsfvfooZQ3Axs_4core3ops5deref8DerefMut9deref_mutBK_, symObjAddr: 0x6F9C, symBinAddr: 0x55A1C, symSize: 0x24 }
  - { offset: 0xC22A6, size: 0x8, addend: 0x0, symName: __RNvXs7_NtCse1nGBsou5OW_5alloc3vecINtB5_3VecTNtNtCs6IAuOt8vWmF_3syn4path11PathSegmentNtNtBK_5token7PathSepEENtNtNtCsfvfooZQ3Axs_4core3ops5deref8DerefMut9deref_mutBK_, symObjAddr: 0x6FC0, symBinAddr: 0x55A40, symSize: 0x24 }
  - { offset: 0xC237C, size: 0x8, addend: 0x0, symName: __RNvXs9_NtCse1nGBsou5OW_5alloc3vecINtB5_3VecNtNtCs6IAuOt8vWmF_3syn4attr9AttributeENtNtCsfvfooZQ3Axs_4core5clone5Clone5cloneBJ_, symObjAddr: 0x7008, symBinAddr: 0x55A64, symSize: 0x88 }
  - { offset: 0xC2573, size: 0x8, addend: 0x0, symName: __RNvXs9_NtCse1nGBsou5OW_5alloc3vecINtB5_3VecNtNtCs6IAuOt8vWmF_3syn4expr3ArmENtNtCsfvfooZQ3Axs_4core5clone5Clone5cloneBJ_, symObjAddr: 0x7090, symBinAddr: 0x55AEC, symSize: 0x88 }
  - { offset: 0xC276A, size: 0x8, addend: 0x0, symName: __RNvXs9_NtCse1nGBsou5OW_5alloc3vecINtB5_3VecNtNtCs6IAuOt8vWmF_3syn4item11ForeignItemENtNtCsfvfooZQ3Axs_4core5clone5Clone5cloneBJ_, symObjAddr: 0x7118, symBinAddr: 0x55B74, symSize: 0x88 }
  - { offset: 0xC2961, size: 0x8, addend: 0x0, symName: __RNvXs9_NtCse1nGBsou5OW_5alloc3vecINtB5_3VecNtNtCs6IAuOt8vWmF_3syn4item4ItemENtNtCsfvfooZQ3Axs_4core5clone5Clone5cloneBJ_, symObjAddr: 0x71A0, symBinAddr: 0x55BFC, symSize: 0x88 }
  - { offset: 0xC2B58, size: 0x8, addend: 0x0, symName: __RNvXs9_NtCse1nGBsou5OW_5alloc3vecINtB5_3VecNtNtCs6IAuOt8vWmF_3syn4item8ImplItemENtNtCsfvfooZQ3Axs_4core5clone5Clone5cloneBJ_, symObjAddr: 0x7228, symBinAddr: 0x55C84, symSize: 0x88 }
  - { offset: 0xC2D4F, size: 0x8, addend: 0x0, symName: __RNvXs9_NtCse1nGBsou5OW_5alloc3vecINtB5_3VecNtNtCs6IAuOt8vWmF_3syn4item9TraitItemENtNtCsfvfooZQ3Axs_4core5clone5Clone5cloneBJ_, symObjAddr: 0x72B0, symBinAddr: 0x55D0C, symSize: 0x88 }
  - { offset: 0xC2F46, size: 0x8, addend: 0x0, symName: __RNvXs9_NtCse1nGBsou5OW_5alloc3vecINtB5_3VecNtNtCs6IAuOt8vWmF_3syn4stmt4StmtENtNtCsfvfooZQ3Axs_4core5clone5Clone5cloneBJ_, symObjAddr: 0x7338, symBinAddr: 0x55D94, symSize: 0x88 }
  - { offset: 0xC313D, size: 0x8, addend: 0x0, symName: __RNvXs9_NtCse1nGBsou5OW_5alloc3vecINtB5_3VecTNtNtCs6IAuOt8vWmF_3syn2ty4TypeNtNtBK_5token5CommaEENtNtCsfvfooZQ3Axs_4core5clone5Clone5cloneBK_, symObjAddr: 0x7448, symBinAddr: 0x55E1C, symSize: 0x88 }
  - { offset: 0xC3334, size: 0x8, addend: 0x0, symName: __RNvXs9_NtCse1nGBsou5OW_5alloc3vecINtB5_3VecTNtNtCs6IAuOt8vWmF_3syn2ty9BareFnArgNtNtBK_5token5CommaEENtNtCsfvfooZQ3Axs_4core5clone5Clone5cloneBK_, symObjAddr: 0x74D0, symBinAddr: 0x55EA4, symSize: 0x88 }
  - { offset: 0xC352B, size: 0x8, addend: 0x0, symName: __RNvXs9_NtCse1nGBsou5OW_5alloc3vecINtB5_3VecTNtNtCs6IAuOt8vWmF_3syn3pat3PatNtNtBK_5token2OrEENtNtCsfvfooZQ3Axs_4core5clone5Clone5cloneBK_, symObjAddr: 0x7558, symBinAddr: 0x55F2C, symSize: 0x88 }
  - { offset: 0xC3722, size: 0x8, addend: 0x0, symName: __RNvXs9_NtCse1nGBsou5OW_5alloc3vecINtB5_3VecTNtNtCs6IAuOt8vWmF_3syn3pat3PatNtNtBK_5token5CommaEENtNtCsfvfooZQ3Axs_4core5clone5Clone5cloneBK_, symObjAddr: 0x75E0, symBinAddr: 0x55FB4, symSize: 0x88 }
  - { offset: 0xC3919, size: 0x8, addend: 0x0, symName: __RNvXs9_NtCse1nGBsou5OW_5alloc3vecINtB5_3VecTNtNtCs6IAuOt8vWmF_3syn3pat8FieldPatNtNtBK_5token5CommaEENtNtCsfvfooZQ3Axs_4core5clone5Clone5cloneBK_, symObjAddr: 0x7668, symBinAddr: 0x5603C, symSize: 0x88 }
  - { offset: 0xC3B10, size: 0x8, addend: 0x0, symName: __RNvXs9_NtCse1nGBsou5OW_5alloc3vecINtB5_3VecTNtNtCs6IAuOt8vWmF_3syn4data5FieldNtNtBK_5token5CommaEENtNtCsfvfooZQ3Axs_4core5clone5Clone5cloneBK_, symObjAddr: 0x76F0, symBinAddr: 0x560C4, symSize: 0x88 }
  - { offset: 0xC3D07, size: 0x8, addend: 0x0, symName: __RNvXs9_NtCse1nGBsou5OW_5alloc3vecINtB5_3VecTNtNtCs6IAuOt8vWmF_3syn4data7VariantNtNtBK_5token5CommaEENtNtCsfvfooZQ3Axs_4core5clone5Clone5cloneBK_, symObjAddr: 0x7778, symBinAddr: 0x5614C, symSize: 0x88 }
  - { offset: 0xC3EFE, size: 0x8, addend: 0x0, symName: __RNvXs9_NtCse1nGBsou5OW_5alloc3vecINtB5_3VecTNtNtCs6IAuOt8vWmF_3syn4expr10FieldValueNtNtBK_5token5CommaEENtNtCsfvfooZQ3Axs_4core5clone5Clone5cloneBK_, symObjAddr: 0x7800, symBinAddr: 0x561D4, symSize: 0x88 }
  - { offset: 0xC40F5, size: 0x8, addend: 0x0, symName: __RNvXs9_NtCse1nGBsou5OW_5alloc3vecINtB5_3VecTNtNtCs6IAuOt8vWmF_3syn4expr4ExprNtNtBK_5token5CommaEENtNtCsfvfooZQ3Axs_4core5clone5Clone5cloneBK_, symObjAddr: 0x7888, symBinAddr: 0x5625C, symSize: 0x88 }
  - { offset: 0xC42EC, size: 0x8, addend: 0x0, symName: __RNvXs9_NtCse1nGBsou5OW_5alloc3vecINtB5_3VecTNtNtCs6IAuOt8vWmF_3syn4item5FnArgNtNtBK_5token5CommaEENtNtCsfvfooZQ3Axs_4core5clone5Clone5cloneBK_, symObjAddr: 0x7910, symBinAddr: 0x562E4, symSize: 0x88 }
  - { offset: 0xC44E3, size: 0x8, addend: 0x0, symName: __RNvXs9_NtCse1nGBsou5OW_5alloc3vecINtB5_3VecTNtNtCs6IAuOt8vWmF_3syn4item7UseTreeNtNtBK_5token5CommaEENtNtCsfvfooZQ3Axs_4core5clone5Clone5cloneBK_, symObjAddr: 0x7998, symBinAddr: 0x5636C, symSize: 0x88 }
  - { offset: 0xC46DA, size: 0x8, addend: 0x0, symName: __RNvXs9_NtCse1nGBsou5OW_5alloc3vecINtB5_3VecTNtNtCs6IAuOt8vWmF_3syn4path11PathSegmentNtNtBK_5token7PathSepEENtNtCsfvfooZQ3Axs_4core5clone5Clone5cloneBK_, symObjAddr: 0x7A20, symBinAddr: 0x563F4, symSize: 0x88 }
  - { offset: 0xC48D1, size: 0x8, addend: 0x0, symName: __RNvXs9_NtCse1nGBsou5OW_5alloc3vecINtB5_3VecTNtNtCs6IAuOt8vWmF_3syn4path15GenericArgumentNtNtBK_5token5CommaEENtNtCsfvfooZQ3Axs_4core5clone5Clone5cloneBK_, symObjAddr: 0x7AA8, symBinAddr: 0x5647C, symSize: 0x88 }
  - { offset: 0xC4AC8, size: 0x8, addend: 0x0, symName: __RNvXs9_NtCse1nGBsou5OW_5alloc3vecINtB5_3VecTNtNtCs6IAuOt8vWmF_3syn8generics12GenericParamNtNtBK_5token5CommaEENtNtCsfvfooZQ3Axs_4core5clone5Clone5cloneBK_, symObjAddr: 0x7B30, symBinAddr: 0x56504, symSize: 0x88 }
  - { offset: 0xC4CBF, size: 0x8, addend: 0x0, symName: __RNvXs9_NtCse1nGBsou5OW_5alloc3vecINtB5_3VecTNtNtCs6IAuOt8vWmF_3syn8generics13CapturedParamNtNtBK_5token5CommaEENtNtCsfvfooZQ3Axs_4core5clone5Clone5cloneBK_, symObjAddr: 0x7BB8, symBinAddr: 0x5658C, symSize: 0x88 }
  - { offset: 0xC4EB6, size: 0x8, addend: 0x0, symName: __RNvXs9_NtCse1nGBsou5OW_5alloc3vecINtB5_3VecTNtNtCs6IAuOt8vWmF_3syn8generics14TypeParamBoundNtNtBK_5token4PlusEENtNtCsfvfooZQ3Axs_4core5clone5Clone5cloneBK_, symObjAddr: 0x7C40, symBinAddr: 0x56614, symSize: 0x88 }
  - { offset: 0xC50AD, size: 0x8, addend: 0x0, symName: __RNvXs9_NtCse1nGBsou5OW_5alloc3vecINtB5_3VecTNtNtCs6IAuOt8vWmF_3syn8generics14WherePredicateNtNtBK_5token5CommaEENtNtCsfvfooZQ3Axs_4core5clone5Clone5cloneBK_, symObjAddr: 0x7CC8, symBinAddr: 0x5669C, symSize: 0x88 }
  - { offset: 0xC52A4, size: 0x8, addend: 0x0, symName: __RNvXs9_NtCse1nGBsou5OW_5alloc3vecINtB5_3VecTNtNtCs6IAuOt8vWmF_3syn8lifetime8LifetimeNtNtBK_5token4PlusEENtNtCsfvfooZQ3Axs_4core5clone5Clone5cloneBK_, symObjAddr: 0x7D50, symBinAddr: 0x56724, symSize: 0x88 }
  - { offset: 0xC54A1, size: 0x8, addend: 0x0, symName: __RNvXsc_NtCse1nGBsou5OW_5alloc3vecINtB5_3VecNtNtCs6IAuOt8vWmF_3syn6buffer5EntryEINtNtNtCsfvfooZQ3Axs_4core3ops5index8IndexMutjE9index_mutBJ_, symObjAddr: 0x81B4, symBinAddr: 0x56B1C, symSize: 0x84 }
  - { offset: 0xC55F5, size: 0x8, addend: 0x0, symName: __RNvXsc_NtCse1nGBsou5OW_5alloc3vecINtB5_3VechEINtNtNtCsfvfooZQ3Axs_4core3ops5index8IndexMutjE9index_mutCs6IAuOt8vWmF_3syn, symObjAddr: 0x8238, symBinAddr: 0x56BA0, symSize: 0x80 }
  - { offset: 0xC574F, size: 0x8, addend: 0x0, symName: __RNvXse_NtCse1nGBsou5OW_5alloc3vecINtB5_3VecNtNtCs6IAuOt8vWmF_3syn4attr9AttributeENtNtNtNtCsfvfooZQ3Axs_4core4iter6traits7collect12IntoIterator9into_iterBJ_, symObjAddr: 0x82B8, symBinAddr: 0x56C20, symSize: 0xDC }
  - { offset: 0xC59E1, size: 0x8, addend: 0x0, symName: __RNvXse_NtCse1nGBsou5OW_5alloc3vecINtB5_3VecNtNtCs6IAuOt8vWmF_3syn8generics14TypeParamBoundENtNtNtNtCsfvfooZQ3Axs_4core4iter6traits7collect12IntoIterator9into_iterBJ_, symObjAddr: 0x855C, symBinAddr: 0x56CFC, symSize: 0xE4 }
  - { offset: 0xC5C73, size: 0x8, addend: 0x0, symName: __RNvXse_NtCse1nGBsou5OW_5alloc3vecINtB5_3VecTNtNtCs6IAuOt8vWmF_3syn4path11PathSegmentNtNtBK_5token7PathSepEENtNtNtNtCsfvfooZQ3Axs_4core4iter6traits7collect12IntoIterator9into_iterBK_, symObjAddr: 0x8808, symBinAddr: 0x56DE0, symSize: 0xE4 }
  - { offset: 0xC5F05, size: 0x8, addend: 0x0, symName: __RNvXse_NtCse1nGBsou5OW_5alloc3vecINtB5_3VecTNtNtCs6IAuOt8vWmF_3syn8generics14TypeParamBoundNtNtBK_5token4PlusEENtNtNtNtCsfvfooZQ3Axs_4core4iter6traits7collect12IntoIterator9into_iterBK_, symObjAddr: 0x88EC, symBinAddr: 0x56EC4, symSize: 0xDC }
  - { offset: 0xC619D, size: 0x8, addend: 0x0, symName: __RNvXsf_NtCse1nGBsou5OW_5alloc3vecRINtB5_3VecNtNtCs6IAuOt8vWmF_3syn4attr9AttributeENtNtNtNtCsfvfooZQ3Axs_4core4iter6traits7collect12IntoIterator9into_iterBK_, symObjAddr: 0x89C8, symBinAddr: 0x56FA0, symSize: 0x9C }
  - { offset: 0xC63F9, size: 0x8, addend: 0x0, symName: __RNvXsf_NtCse1nGBsou5OW_5alloc3vecRINtB5_3VecNtNtCs6IAuOt8vWmF_3syn4item11ForeignItemENtNtNtNtCsfvfooZQ3Axs_4core4iter6traits7collect12IntoIterator9into_iterBK_, symObjAddr: 0x8A64, symBinAddr: 0x5703C, symSize: 0xA4 }
  - { offset: 0xC6655, size: 0x8, addend: 0x0, symName: __RNvXsf_NtCse1nGBsou5OW_5alloc3vecRINtB5_3VecNtNtCs6IAuOt8vWmF_3syn4item4ItemENtNtNtNtCsfvfooZQ3Axs_4core4iter6traits7collect12IntoIterator9into_iterBK_, symObjAddr: 0x8B08, symBinAddr: 0x570E0, symSize: 0xA4 }
  - { offset: 0xC68B1, size: 0x8, addend: 0x0, symName: __RNvXsf_NtCse1nGBsou5OW_5alloc3vecRINtB5_3VecNtNtCs6IAuOt8vWmF_3syn4item8ImplItemENtNtNtNtCsfvfooZQ3Axs_4core4iter6traits7collect12IntoIterator9into_iterBK_, symObjAddr: 0x8BAC, symBinAddr: 0x57184, symSize: 0xA4 }
  - { offset: 0xC6B0D, size: 0x8, addend: 0x0, symName: __RNvXsf_NtCse1nGBsou5OW_5alloc3vecRINtB5_3VecNtNtCs6IAuOt8vWmF_3syn4item9TraitItemENtNtNtNtCsfvfooZQ3Axs_4core4iter6traits7collect12IntoIterator9into_iterBK_, symObjAddr: 0x8C50, symBinAddr: 0x57228, symSize: 0xA4 }
  - { offset: 0xC6D69, size: 0x8, addend: 0x0, symName: __RNvXsf_NtCse1nGBsou5OW_5alloc3vecRINtB5_3VecNtNtCs6IAuOt8vWmF_3syn4stmt4StmtENtNtNtNtCsfvfooZQ3Axs_4core4iter6traits7collect12IntoIterator9into_iterBK_, symObjAddr: 0x8CF4, symBinAddr: 0x572CC, symSize: 0xA4 }
  - { offset: 0xC6FC5, size: 0x8, addend: 0x0, symName: __RNvXsf_NtCse1nGBsou5OW_5alloc3vecRINtB5_3VecTNtNtCs6IAuOt8vWmF_3syn2ty4TypeNtNtBL_5token5CommaEENtNtNtNtCsfvfooZQ3Axs_4core4iter6traits7collect12IntoIterator9into_iterBL_, symObjAddr: 0x8D98, symBinAddr: 0x57370, symSize: 0xA4 }
  - { offset: 0xC7221, size: 0x8, addend: 0x0, symName: __RNvXsf_NtCse1nGBsou5OW_5alloc3vecRINtB5_3VecTNtNtCs6IAuOt8vWmF_3syn2ty9BareFnArgNtNtBL_5token5CommaEENtNtNtNtCsfvfooZQ3Axs_4core4iter6traits7collect12IntoIterator9into_iterBL_, symObjAddr: 0x8E3C, symBinAddr: 0x57414, symSize: 0xA4 }
  - { offset: 0xC747D, size: 0x8, addend: 0x0, symName: __RNvXsf_NtCse1nGBsou5OW_5alloc3vecRINtB5_3VecTNtNtCs6IAuOt8vWmF_3syn3pat3PatNtNtBL_5token2OrEENtNtNtNtCsfvfooZQ3Axs_4core4iter6traits7collect12IntoIterator9into_iterBL_, symObjAddr: 0x8EE0, symBinAddr: 0x574B8, symSize: 0xA4 }
  - { offset: 0xC76D9, size: 0x8, addend: 0x0, symName: __RNvXsf_NtCse1nGBsou5OW_5alloc3vecRINtB5_3VecTNtNtCs6IAuOt8vWmF_3syn3pat3PatNtNtBL_5token5CommaEENtNtNtNtCsfvfooZQ3Axs_4core4iter6traits7collect12IntoIterator9into_iterBL_, symObjAddr: 0x8F84, symBinAddr: 0x5755C, symSize: 0xA4 }
  - { offset: 0xC7935, size: 0x8, addend: 0x0, symName: __RNvXsf_NtCse1nGBsou5OW_5alloc3vecRINtB5_3VecTNtNtCs6IAuOt8vWmF_3syn3pat8FieldPatNtNtBL_5token5CommaEENtNtNtNtCsfvfooZQ3Axs_4core4iter6traits7collect12IntoIterator9into_iterBL_, symObjAddr: 0x9028, symBinAddr: 0x57600, symSize: 0xA4 }
  - { offset: 0xC7B91, size: 0x8, addend: 0x0, symName: __RNvXsf_NtCse1nGBsou5OW_5alloc3vecRINtB5_3VecTNtNtCs6IAuOt8vWmF_3syn4data5FieldNtNtBL_5token5CommaEENtNtNtNtCsfvfooZQ3Axs_4core4iter6traits7collect12IntoIterator9into_iterBL_, symObjAddr: 0x90CC, symBinAddr: 0x576A4, symSize: 0xA4 }
  - { offset: 0xC7DED, size: 0x8, addend: 0x0, symName: __RNvXsf_NtCse1nGBsou5OW_5alloc3vecRINtB5_3VecTNtNtCs6IAuOt8vWmF_3syn4data7VariantNtNtBL_5token5CommaEENtNtNtNtCsfvfooZQ3Axs_4core4iter6traits7collect12IntoIterator9into_iterBL_, symObjAddr: 0x9170, symBinAddr: 0x57748, symSize: 0xA4 }
  - { offset: 0xC8049, size: 0x8, addend: 0x0, symName: __RNvXsf_NtCse1nGBsou5OW_5alloc3vecRINtB5_3VecTNtNtCs6IAuOt8vWmF_3syn4expr10FieldValueNtNtBL_5token5CommaEENtNtNtNtCsfvfooZQ3Axs_4core4iter6traits7collect12IntoIterator9into_iterBL_, symObjAddr: 0x9214, symBinAddr: 0x577EC, symSize: 0xA4 }
  - { offset: 0xC82A5, size: 0x8, addend: 0x0, symName: __RNvXsf_NtCse1nGBsou5OW_5alloc3vecRINtB5_3VecTNtNtCs6IAuOt8vWmF_3syn4expr4ExprNtNtBL_5token5CommaEENtNtNtNtCsfvfooZQ3Axs_4core4iter6traits7collect12IntoIterator9into_iterBL_, symObjAddr: 0x92B8, symBinAddr: 0x57890, symSize: 0xA4 }
  - { offset: 0xC8501, size: 0x8, addend: 0x0, symName: __RNvXsf_NtCse1nGBsou5OW_5alloc3vecRINtB5_3VecTNtNtCs6IAuOt8vWmF_3syn4item5FnArgNtNtBL_5token5CommaEENtNtNtNtCsfvfooZQ3Axs_4core4iter6traits7collect12IntoIterator9into_iterBL_, symObjAddr: 0x935C, symBinAddr: 0x57934, symSize: 0xA4 }
  - { offset: 0xC875D, size: 0x8, addend: 0x0, symName: __RNvXsf_NtCse1nGBsou5OW_5alloc3vecRINtB5_3VecTNtNtCs6IAuOt8vWmF_3syn4item7UseTreeNtNtBL_5token5CommaEENtNtNtNtCsfvfooZQ3Axs_4core4iter6traits7collect12IntoIterator9into_iterBL_, symObjAddr: 0x9400, symBinAddr: 0x579D8, symSize: 0xA4 }
  - { offset: 0xC89B9, size: 0x8, addend: 0x0, symName: __RNvXsf_NtCse1nGBsou5OW_5alloc3vecRINtB5_3VecTNtNtCs6IAuOt8vWmF_3syn4path11PathSegmentNtNtBL_5token7PathSepEENtNtNtNtCsfvfooZQ3Axs_4core4iter6traits7collect12IntoIterator9into_iterBL_, symObjAddr: 0x94A4, symBinAddr: 0x57A7C, symSize: 0xA4 }
  - { offset: 0xC8C15, size: 0x8, addend: 0x0, symName: __RNvXsf_NtCse1nGBsou5OW_5alloc3vecRINtB5_3VecTNtNtCs6IAuOt8vWmF_3syn4path15GenericArgumentNtNtBL_5token5CommaEENtNtNtNtCsfvfooZQ3Axs_4core4iter6traits7collect12IntoIterator9into_iterBL_, symObjAddr: 0x9548, symBinAddr: 0x57B20, symSize: 0xA4 }
  - { offset: 0xC8E71, size: 0x8, addend: 0x0, symName: __RNvXsf_NtCse1nGBsou5OW_5alloc3vecRINtB5_3VecTNtNtCs6IAuOt8vWmF_3syn8generics12GenericParamNtNtBL_5token5CommaEENtNtNtNtCsfvfooZQ3Axs_4core4iter6traits7collect12IntoIterator9into_iterBL_, symObjAddr: 0x95EC, symBinAddr: 0x57BC4, symSize: 0xA4 }
  - { offset: 0xC90CD, size: 0x8, addend: 0x0, symName: __RNvXsf_NtCse1nGBsou5OW_5alloc3vecRINtB5_3VecTNtNtCs6IAuOt8vWmF_3syn8generics13CapturedParamNtNtBL_5token5CommaEENtNtNtNtCsfvfooZQ3Axs_4core4iter6traits7collect12IntoIterator9into_iterBL_, symObjAddr: 0x9690, symBinAddr: 0x57C68, symSize: 0xA4 }
  - { offset: 0xC9329, size: 0x8, addend: 0x0, symName: __RNvXsf_NtCse1nGBsou5OW_5alloc3vecRINtB5_3VecTNtNtCs6IAuOt8vWmF_3syn8generics14TypeParamBoundNtNtBL_5token4PlusEENtNtNtNtCsfvfooZQ3Axs_4core4iter6traits7collect12IntoIterator9into_iterBL_, symObjAddr: 0x9734, symBinAddr: 0x57D0C, symSize: 0x9C }
  - { offset: 0xC9585, size: 0x8, addend: 0x0, symName: __RNvXsf_NtCse1nGBsou5OW_5alloc3vecRINtB5_3VecTNtNtCs6IAuOt8vWmF_3syn8generics14WherePredicateNtNtBL_5token5CommaEENtNtNtNtCsfvfooZQ3Axs_4core4iter6traits7collect12IntoIterator9into_iterBL_, symObjAddr: 0x97D0, symBinAddr: 0x57DA8, symSize: 0xA4 }
  - { offset: 0xC97E1, size: 0x8, addend: 0x0, symName: __RNvXsf_NtCse1nGBsou5OW_5alloc3vecRINtB5_3VecTNtNtCs6IAuOt8vWmF_3syn8lifetime8LifetimeNtNtBL_5token4PlusEENtNtNtNtCsfvfooZQ3Axs_4core4iter6traits7collect12IntoIterator9into_iterBL_, symObjAddr: 0x9874, symBinAddr: 0x57E4C, symSize: 0xA4 }
  - { offset: 0xC9A43, size: 0x8, addend: 0x0, symName: __RNvXsg_NtCse1nGBsou5OW_5alloc3vecQINtB5_3VechENtNtNtNtCsfvfooZQ3Axs_4core4iter6traits7collect12IntoIterator9into_iterCs6IAuOt8vWmF_3syn, symObjAddr: 0x9918, symBinAddr: 0x57EF0, symSize: 0x98 }
  - { offset: 0xC9C77, size: 0x8, addend: 0x0, symName: __RNvXsn_NtCse1nGBsou5OW_5alloc3vecINtB5_3VecNtNtCs6IAuOt8vWmF_3syn4attr9AttributeENtNtNtCsfvfooZQ3Axs_4core3ops4drop4Drop4dropBJ_, symObjAddr: 0x99B0, symBinAddr: 0x57F88, symSize: 0x38 }
  - { offset: 0xC9D27, size: 0x8, addend: 0x0, symName: __RNvXsn_NtCse1nGBsou5OW_5alloc3vecINtB5_3VecNtNtCs6IAuOt8vWmF_3syn4expr3ArmENtNtNtCsfvfooZQ3Axs_4core3ops4drop4Drop4dropBJ_, symObjAddr: 0x9A20, symBinAddr: 0x57FC0, symSize: 0x38 }
  - { offset: 0xC9DD7, size: 0x8, addend: 0x0, symName: __RNvXsn_NtCse1nGBsou5OW_5alloc3vecINtB5_3VecNtNtCs6IAuOt8vWmF_3syn4expr6ExprIfENtNtNtCsfvfooZQ3Axs_4core3ops4drop4Drop4dropBJ_, symObjAddr: 0x9A58, symBinAddr: 0x57FF8, symSize: 0x38 }
  - { offset: 0xC9E87, size: 0x8, addend: 0x0, symName: __RNvXsn_NtCse1nGBsou5OW_5alloc3vecINtB5_3VecNtNtCs6IAuOt8vWmF_3syn4item11ForeignItemENtNtNtCsfvfooZQ3Axs_4core3ops4drop4Drop4dropBJ_, symObjAddr: 0x9A90, symBinAddr: 0x58030, symSize: 0x38 }
  - { offset: 0xC9F37, size: 0x8, addend: 0x0, symName: __RNvXsn_NtCse1nGBsou5OW_5alloc3vecINtB5_3VecNtNtCs6IAuOt8vWmF_3syn4item4ItemENtNtNtCsfvfooZQ3Axs_4core3ops4drop4Drop4dropBJ_, symObjAddr: 0x9AC8, symBinAddr: 0x58068, symSize: 0x38 }
  - { offset: 0xC9FE7, size: 0x8, addend: 0x0, symName: __RNvXsn_NtCse1nGBsou5OW_5alloc3vecINtB5_3VecNtNtCs6IAuOt8vWmF_3syn4item8ImplItemENtNtNtCsfvfooZQ3Axs_4core3ops4drop4Drop4dropBJ_, symObjAddr: 0x9B00, symBinAddr: 0x580A0, symSize: 0x38 }
  - { offset: 0xCA097, size: 0x8, addend: 0x0, symName: __RNvXsn_NtCse1nGBsou5OW_5alloc3vecINtB5_3VecNtNtCs6IAuOt8vWmF_3syn4item9TraitItemENtNtNtCsfvfooZQ3Axs_4core3ops4drop4Drop4dropBJ_, symObjAddr: 0x9B38, symBinAddr: 0x580D8, symSize: 0x38 }
  - { offset: 0xCA147, size: 0x8, addend: 0x0, symName: __RNvXsn_NtCse1nGBsou5OW_5alloc3vecINtB5_3VecNtNtCs6IAuOt8vWmF_3syn4stmt4StmtENtNtNtCsfvfooZQ3Axs_4core3ops4drop4Drop4dropBJ_, symObjAddr: 0x9B70, symBinAddr: 0x58110, symSize: 0x38 }
  - { offset: 0xCA1F7, size: 0x8, addend: 0x0, symName: __RNvXsn_NtCse1nGBsou5OW_5alloc3vecINtB5_3VecNtNtCs6IAuOt8vWmF_3syn5error12ErrorMessageENtNtNtCsfvfooZQ3Axs_4core3ops4drop4Drop4dropBJ_, symObjAddr: 0x9BA8, symBinAddr: 0x58148, symSize: 0x38 }
  - { offset: 0xCA2A7, size: 0x8, addend: 0x0, symName: __RNvXsn_NtCse1nGBsou5OW_5alloc3vecINtB5_3VecNtNtCs6IAuOt8vWmF_3syn6buffer5EntryENtNtNtCsfvfooZQ3Axs_4core3ops4drop4Drop4dropBJ_, symObjAddr: 0x9BE0, symBinAddr: 0x58180, symSize: 0x38 }
  - { offset: 0xCA357, size: 0x8, addend: 0x0, symName: __RNvXsn_NtCse1nGBsou5OW_5alloc3vecINtB5_3VecNtNtCs6IAuOt8vWmF_3syn8generics14TypeParamBoundENtNtNtCsfvfooZQ3Axs_4core3ops4drop4Drop4dropBJ_, symObjAddr: 0x9C18, symBinAddr: 0x581B8, symSize: 0x38 }
  - { offset: 0xCA407, size: 0x8, addend: 0x0, symName: __RNvXsn_NtCse1nGBsou5OW_5alloc3vecINtB5_3VecReENtNtNtCsfvfooZQ3Axs_4core3ops4drop4Drop4dropCs6IAuOt8vWmF_3syn, symObjAddr: 0x9C50, symBinAddr: 0x581F0, symSize: 0x24 }
  - { offset: 0xCA4B7, size: 0x8, addend: 0x0, symName: __RNvXsn_NtCse1nGBsou5OW_5alloc3vecINtB5_3VecTNtNtCs6IAuOt8vWmF_3syn2ty4TypeNtNtBK_5token5CommaEENtNtNtCsfvfooZQ3Axs_4core3ops4drop4Drop4dropBK_, symObjAddr: 0x9C74, symBinAddr: 0x58214, symSize: 0x38 }
  - { offset: 0xCA567, size: 0x8, addend: 0x0, symName: __RNvXsn_NtCse1nGBsou5OW_5alloc3vecINtB5_3VecTNtNtCs6IAuOt8vWmF_3syn2ty9BareFnArgNtNtBK_5token5CommaEENtNtNtCsfvfooZQ3Axs_4core3ops4drop4Drop4dropBK_, symObjAddr: 0x9CAC, symBinAddr: 0x5824C, symSize: 0x38 }
  - { offset: 0xCA617, size: 0x8, addend: 0x0, symName: __RNvXsn_NtCse1nGBsou5OW_5alloc3vecINtB5_3VecTNtNtCs6IAuOt8vWmF_3syn3pat3PatNtNtBK_5token2OrEENtNtNtCsfvfooZQ3Axs_4core3ops4drop4Drop4dropBK_, symObjAddr: 0x9CE4, symBinAddr: 0x58284, symSize: 0x38 }
  - { offset: 0xCA6C7, size: 0x8, addend: 0x0, symName: __RNvXsn_NtCse1nGBsou5OW_5alloc3vecINtB5_3VecTNtNtCs6IAuOt8vWmF_3syn3pat3PatNtNtBK_5token5CommaEENtNtNtCsfvfooZQ3Axs_4core3ops4drop4Drop4dropBK_, symObjAddr: 0x9D1C, symBinAddr: 0x582BC, symSize: 0x38 }
  - { offset: 0xCA777, size: 0x8, addend: 0x0, symName: __RNvXsn_NtCse1nGBsou5OW_5alloc3vecINtB5_3VecTNtNtCs6IAuOt8vWmF_3syn3pat8FieldPatNtNtBK_5token5CommaEENtNtNtCsfvfooZQ3Axs_4core3ops4drop4Drop4dropBK_, symObjAddr: 0x9D54, symBinAddr: 0x582F4, symSize: 0x38 }
  - { offset: 0xCA827, size: 0x8, addend: 0x0, symName: __RNvXsn_NtCse1nGBsou5OW_5alloc3vecINtB5_3VecTNtNtCs6IAuOt8vWmF_3syn4data5FieldNtNtBK_5token5CommaEENtNtNtCsfvfooZQ3Axs_4core3ops4drop4Drop4dropBK_, symObjAddr: 0x9D8C, symBinAddr: 0x5832C, symSize: 0x38 }
  - { offset: 0xCA8D7, size: 0x8, addend: 0x0, symName: __RNvXsn_NtCse1nGBsou5OW_5alloc3vecINtB5_3VecTNtNtCs6IAuOt8vWmF_3syn4data7VariantNtNtBK_5token5CommaEENtNtNtCsfvfooZQ3Axs_4core3ops4drop4Drop4dropBK_, symObjAddr: 0x9DFC, symBinAddr: 0x58364, symSize: 0x38 }
  - { offset: 0xCA987, size: 0x8, addend: 0x0, symName: __RNvXsn_NtCse1nGBsou5OW_5alloc3vecINtB5_3VecTNtNtCs6IAuOt8vWmF_3syn4expr10FieldValueNtNtBK_5token5CommaEENtNtNtCsfvfooZQ3Axs_4core3ops4drop4Drop4dropBK_, symObjAddr: 0x9E34, symBinAddr: 0x5839C, symSize: 0x38 }
  - { offset: 0xCAA37, size: 0x8, addend: 0x0, symName: __RNvXsn_NtCse1nGBsou5OW_5alloc3vecINtB5_3VecTNtNtCs6IAuOt8vWmF_3syn4expr4ExprNtNtBK_5token5CommaEENtNtNtCsfvfooZQ3Axs_4core3ops4drop4Drop4dropBK_, symObjAddr: 0x9E6C, symBinAddr: 0x583D4, symSize: 0x38 }
  - { offset: 0xCAAE7, size: 0x8, addend: 0x0, symName: __RNvXsn_NtCse1nGBsou5OW_5alloc3vecINtB5_3VecTNtNtCs6IAuOt8vWmF_3syn4item5FnArgNtNtBK_5token5CommaEENtNtNtCsfvfooZQ3Axs_4core3ops4drop4Drop4dropBK_, symObjAddr: 0x9EA4, symBinAddr: 0x5840C, symSize: 0x38 }
  - { offset: 0xCAB97, size: 0x8, addend: 0x0, symName: __RNvXsn_NtCse1nGBsou5OW_5alloc3vecINtB5_3VecTNtNtCs6IAuOt8vWmF_3syn4item7UseTreeNtNtBK_5token5CommaEENtNtNtCsfvfooZQ3Axs_4core3ops4drop4Drop4dropBK_, symObjAddr: 0x9EDC, symBinAddr: 0x58444, symSize: 0x38 }
  - { offset: 0xCAC47, size: 0x8, addend: 0x0, symName: __RNvXsn_NtCse1nGBsou5OW_5alloc3vecINtB5_3VecTNtNtCs6IAuOt8vWmF_3syn4path11PathSegmentNtNtBK_5token7PathSepEENtNtNtCsfvfooZQ3Axs_4core3ops4drop4Drop4dropBK_, symObjAddr: 0x9F14, symBinAddr: 0x5847C, symSize: 0x38 }
  - { offset: 0xCACF7, size: 0x8, addend: 0x0, symName: __RNvXsn_NtCse1nGBsou5OW_5alloc3vecINtB5_3VecTNtNtCs6IAuOt8vWmF_3syn4path15GenericArgumentNtNtBK_5token5CommaEENtNtNtCsfvfooZQ3Axs_4core3ops4drop4Drop4dropBK_, symObjAddr: 0x9F4C, symBinAddr: 0x584B4, symSize: 0x38 }
  - { offset: 0xCADA7, size: 0x8, addend: 0x0, symName: __RNvXsn_NtCse1nGBsou5OW_5alloc3vecINtB5_3VecTNtNtCs6IAuOt8vWmF_3syn8generics12GenericParamNtNtBK_5token5CommaEENtNtNtCsfvfooZQ3Axs_4core3ops4drop4Drop4dropBK_, symObjAddr: 0x9F84, symBinAddr: 0x584EC, symSize: 0x38 }
  - { offset: 0xCAE57, size: 0x8, addend: 0x0, symName: __RNvXsn_NtCse1nGBsou5OW_5alloc3vecINtB5_3VecTNtNtCs6IAuOt8vWmF_3syn8generics13CapturedParamNtNtBK_5token5CommaEENtNtNtCsfvfooZQ3Axs_4core3ops4drop4Drop4dropBK_, symObjAddr: 0x9FBC, symBinAddr: 0x58524, symSize: 0x38 }
  - { offset: 0xCAF07, size: 0x8, addend: 0x0, symName: __RNvXsn_NtCse1nGBsou5OW_5alloc3vecINtB5_3VecTNtNtCs6IAuOt8vWmF_3syn8generics14TypeParamBoundNtNtBK_5token4PlusEENtNtNtCsfvfooZQ3Axs_4core3ops4drop4Drop4dropBK_, symObjAddr: 0x9FF4, symBinAddr: 0x5855C, symSize: 0x38 }
  - { offset: 0xCAFB7, size: 0x8, addend: 0x0, symName: __RNvXsn_NtCse1nGBsou5OW_5alloc3vecINtB5_3VecTNtNtCs6IAuOt8vWmF_3syn8generics14WherePredicateNtNtBK_5token5CommaEENtNtNtCsfvfooZQ3Axs_4core3ops4drop4Drop4dropBK_, symObjAddr: 0xA02C, symBinAddr: 0x58594, symSize: 0x38 }
  - { offset: 0xCB067, size: 0x8, addend: 0x0, symName: __RNvXsn_NtCse1nGBsou5OW_5alloc3vecINtB5_3VecTNtNtCs6IAuOt8vWmF_3syn8lifetime8LifetimeNtNtBK_5token4PlusEENtNtNtCsfvfooZQ3Axs_4core3ops4drop4Drop4dropBK_, symObjAddr: 0xA064, symBinAddr: 0x585CC, symSize: 0x38 }
  - { offset: 0xCB11D, size: 0x8, addend: 0x0, symName: __RNvXsp_NtCse1nGBsou5OW_5alloc3vecINtB5_3VecNtNtCs6IAuOt8vWmF_3syn4attr9AttributeENtNtCsfvfooZQ3Axs_4core3fmt5Debug3fmtBJ_, symObjAddr: 0xA09C, symBinAddr: 0x58604, symSize: 0x74 }
  - { offset: 0xCB22D, size: 0x8, addend: 0x0, symName: __RNvXsp_NtCse1nGBsou5OW_5alloc3vecINtB5_3VecNtNtCs6IAuOt8vWmF_3syn4expr3ArmENtNtCsfvfooZQ3Axs_4core3fmt5Debug3fmtBJ_, symObjAddr: 0xA110, symBinAddr: 0x58678, symSize: 0x74 }
  - { offset: 0xCB33D, size: 0x8, addend: 0x0, symName: __RNvXsp_NtCse1nGBsou5OW_5alloc3vecINtB5_3VecNtNtCs6IAuOt8vWmF_3syn4item11ForeignItemENtNtCsfvfooZQ3Axs_4core3fmt5Debug3fmtBJ_, symObjAddr: 0xA184, symBinAddr: 0x586EC, symSize: 0x74 }
  - { offset: 0xCB44D, size: 0x8, addend: 0x0, symName: __RNvXsp_NtCse1nGBsou5OW_5alloc3vecINtB5_3VecNtNtCs6IAuOt8vWmF_3syn4item4ItemENtNtCsfvfooZQ3Axs_4core3fmt5Debug3fmtBJ_, symObjAddr: 0xA1F8, symBinAddr: 0x58760, symSize: 0x74 }
  - { offset: 0xCB55D, size: 0x8, addend: 0x0, symName: __RNvXsp_NtCse1nGBsou5OW_5alloc3vecINtB5_3VecNtNtCs6IAuOt8vWmF_3syn4item8ImplItemENtNtCsfvfooZQ3Axs_4core3fmt5Debug3fmtBJ_, symObjAddr: 0xA26C, symBinAddr: 0x587D4, symSize: 0x74 }
  - { offset: 0xCB66D, size: 0x8, addend: 0x0, symName: __RNvXsp_NtCse1nGBsou5OW_5alloc3vecINtB5_3VecNtNtCs6IAuOt8vWmF_3syn4item9TraitItemENtNtCsfvfooZQ3Axs_4core3fmt5Debug3fmtBJ_, symObjAddr: 0xA2E0, symBinAddr: 0x58848, symSize: 0x74 }
  - { offset: 0xCB77D, size: 0x8, addend: 0x0, symName: __RNvXsp_NtCse1nGBsou5OW_5alloc3vecINtB5_3VecNtNtCs6IAuOt8vWmF_3syn4stmt4StmtENtNtCsfvfooZQ3Axs_4core3fmt5Debug3fmtBJ_, symObjAddr: 0xA354, symBinAddr: 0x588BC, symSize: 0x74 }
  - { offset: 0xCB88D, size: 0x8, addend: 0x0, symName: __RNvXsp_NtCse1nGBsou5OW_5alloc3vecINtB5_3VecNtNtCs6IAuOt8vWmF_3syn5error12ErrorMessageENtNtCsfvfooZQ3Axs_4core3fmt5Debug3fmtBJ_, symObjAddr: 0xA3C8, symBinAddr: 0x58930, symSize: 0x74 }
  - { offset: 0xCB99D, size: 0x8, addend: 0x0, symName: __RNvXsp_NtCse1nGBsou5OW_5alloc3vecINtB5_3VechENtNtCsfvfooZQ3Axs_4core3fmt5Debug3fmtCs6IAuOt8vWmF_3syn, symObjAddr: 0xA43C, symBinAddr: 0x589A4, symSize: 0x70 }
  - { offset: 0xCDECB, size: 0x8, addend: 0x0, symName: __RNvXsV_NtCse1nGBsou5OW_5alloc6stringINtNtB7_3vec3VechEINtNtCsfvfooZQ3Axs_4core7convert4FromNtB5_6StringE4fromCs6IAuOt8vWmF_3syn, symObjAddr: 0x7DD8, symBinAddr: 0x567AC, symSize: 0x18 }
  - { offset: 0xCE120, size: 0x8, addend: 0x0, symName: __RNvXNvMs_NtNtCse1nGBsou5OW_5alloc3ffi5c_strNtB7_7CString3newINtNtBb_3vec3VechENtB2_11SpecNewImpl13spec_new_implCs6IAuOt8vWmF_3syn, symObjAddr: 0x6940, symBinAddr: 0x55458, symSize: 0x178 }
  - { offset: 0xD3D22, size: 0x8, addend: 0x0, symName: __RINvMs_NtCse1nGBsou5OW_5alloc3vecINtB5_3VecReE10retain_mutNCNvMNtCs6IAuOt8vWmF_3syn9lookaheadNtBZ_10Lookahead15error0EB11_, symObjAddr: 0x0, symBinAddr: 0x50E60, symSize: 0xE4 }
  - { offset: 0xD3FFE, size: 0x8, addend: 0x0, symName: __RINvMsi_NtCse1nGBsou5OW_5alloc3vecINtB6_3VecNtCs3cP53eQoTwO_11proc_macro29TokenTreeE16extend_desugaredINtNtNtNtCsfvfooZQ3Axs_4core4iter8adapters7flatten7FlattenINtNtB1H_3map3MapIB2z_IB2z_INtNtNtB1L_5slice4iter4IterNtNtCs6IAuOt8vWmF_3syn5error12ErrorMessageENvMs_B3s_B3q_16to_compile_errorENCINvXs7_BI_NtBI_11TokenStreamINtNtNtB1J_6traits7collect12FromIteratorB4P_E9from_iterB2U_E0ENCINvXs6_NtBI_3impNtB6g_11TokenStreamIB58_B6p_E9from_iterB2P_Es_0EEEB3u_, symObjAddr: 0xE4, symBinAddr: 0x50F44, symSize: 0x1D4 }
  - { offset: 0xD49A0, size: 0x8, addend: 0x0, symName: __RINvMsi_NtCse1nGBsou5OW_5alloc3vecINtB6_3VecNtNtCs6IAuOt8vWmF_3syn8generics14TypeParamBoundE14extend_trustedINtNtCsfvfooZQ3Axs_4core6option8IntoIterBG_EEBK_, symObjAddr: 0x93C, symBinAddr: 0x51118, symSize: 0x1A0 }
  - { offset: 0xD4C4C, size: 0x8, addend: 0x0, symName: __RINvMsi_NtCse1nGBsou5OW_5alloc3vecINtB6_3VecNtNtCs6IAuOt8vWmF_3syn8generics14TypeParamBoundE14extend_trustedINtNtNtNtCsfvfooZQ3Axs_4core4iter8adapters3map3MapINtNtB6_9into_iter8IntoIterTBG_NtNtBK_5token4PlusEENCNvXs8_NtBK_10punctuatedINtB3t_10PunctuatedBG_B31_ENtNtNtB1P_6traits7collect12IntoIterator9into_iter0EEBK_, symObjAddr: 0xADC, symBinAddr: 0x512B8, symSize: 0x188 }
  - { offset: 0xD4F8A, size: 0x8, addend: 0x0, symName: __RNvMNtCse1nGBsou5OW_5alloc3vecINtB2_3VecNtNtCs6IAuOt8vWmF_3syn4attr9AttributeE3newBG_, symObjAddr: 0x12C0, symBinAddr: 0x5183C, symSize: 0x14 }
  - { offset: 0xD4FA7, size: 0x8, addend: 0x0, symName: __RNvMNtCse1nGBsou5OW_5alloc3vecINtB2_3VecNtNtCs6IAuOt8vWmF_3syn4expr3ArmE3newBG_, symObjAddr: 0x131C, symBinAddr: 0x51850, symSize: 0x14 }
  - { offset: 0xD4FC4, size: 0x8, addend: 0x0, symName: __RNvMNtCse1nGBsou5OW_5alloc3vecINtB2_3VecNtNtCs6IAuOt8vWmF_3syn4expr6ExprIfE3newBG_, symObjAddr: 0x1330, symBinAddr: 0x51864, symSize: 0x14 }
  - { offset: 0xD4FE1, size: 0x8, addend: 0x0, symName: __RNvMNtCse1nGBsou5OW_5alloc3vecINtB2_3VecNtNtCs6IAuOt8vWmF_3syn4item11ForeignItemE3newBG_, symObjAddr: 0x1344, symBinAddr: 0x51878, symSize: 0x14 }
  - { offset: 0xD4FFE, size: 0x8, addend: 0x0, symName: __RNvMNtCse1nGBsou5OW_5alloc3vecINtB2_3VecNtNtCs6IAuOt8vWmF_3syn4item4ItemE3newBG_, symObjAddr: 0x1358, symBinAddr: 0x5188C, symSize: 0x14 }
  - { offset: 0xD501B, size: 0x8, addend: 0x0, symName: __RNvMNtCse1nGBsou5OW_5alloc3vecINtB2_3VecNtNtCs6IAuOt8vWmF_3syn4item8ImplItemE3newBG_, symObjAddr: 0x136C, symBinAddr: 0x518A0, symSize: 0x14 }
  - { offset: 0xD5038, size: 0x8, addend: 0x0, symName: __RNvMNtCse1nGBsou5OW_5alloc3vecINtB2_3VecNtNtCs6IAuOt8vWmF_3syn4item9TraitItemE3newBG_, symObjAddr: 0x1380, symBinAddr: 0x518B4, symSize: 0x14 }
  - { offset: 0xD5055, size: 0x8, addend: 0x0, symName: __RNvMNtCse1nGBsou5OW_5alloc3vecINtB2_3VecNtNtCs6IAuOt8vWmF_3syn4stmt4StmtE3newBG_, symObjAddr: 0x1394, symBinAddr: 0x518C8, symSize: 0x14 }
  - { offset: 0xD5072, size: 0x8, addend: 0x0, symName: __RNvMNtCse1nGBsou5OW_5alloc3vecINtB2_3VecNtNtCs6IAuOt8vWmF_3syn6buffer5EntryE3newBG_, symObjAddr: 0x13A8, symBinAddr: 0x518DC, symSize: 0x14 }
  - { offset: 0xD50F1, size: 0x8, addend: 0x0, symName: __RNvMNtCse1nGBsou5OW_5alloc3vecINtB2_3VecNtNtCs6IAuOt8vWmF_3syn8generics14TypeParamBoundE13with_capacityBG_, symObjAddr: 0x13BC, symBinAddr: 0x518F0, symSize: 0x48 }
  - { offset: 0xD5169, size: 0x8, addend: 0x0, symName: __RNvMNtCse1nGBsou5OW_5alloc3vecINtB2_3VecReE3newCs6IAuOt8vWmF_3syn, symObjAddr: 0x1404, symBinAddr: 0x51938, symSize: 0x14 }
  - { offset: 0xD5186, size: 0x8, addend: 0x0, symName: __RNvMNtCse1nGBsou5OW_5alloc3vecINtB2_3VecTNtNtCs6IAuOt8vWmF_3syn2ty4TypeNtNtBH_5token5CommaEE3newBH_, symObjAddr: 0x1418, symBinAddr: 0x5194C, symSize: 0x14 }
  - { offset: 0xD51A3, size: 0x8, addend: 0x0, symName: __RNvMNtCse1nGBsou5OW_5alloc3vecINtB2_3VecTNtNtCs6IAuOt8vWmF_3syn2ty9BareFnArgNtNtBH_5token5CommaEE3newBH_, symObjAddr: 0x142C, symBinAddr: 0x51960, symSize: 0x14 }
  - { offset: 0xD51C0, size: 0x8, addend: 0x0, symName: __RNvMNtCse1nGBsou5OW_5alloc3vecINtB2_3VecTNtNtCs6IAuOt8vWmF_3syn3pat3PatNtNtBH_5token2OrEE3newBH_, symObjAddr: 0x1440, symBinAddr: 0x51974, symSize: 0x14 }
  - { offset: 0xD51DD, size: 0x8, addend: 0x0, symName: __RNvMNtCse1nGBsou5OW_5alloc3vecINtB2_3VecTNtNtCs6IAuOt8vWmF_3syn3pat3PatNtNtBH_5token5CommaEE3newBH_, symObjAddr: 0x1454, symBinAddr: 0x51988, symSize: 0x14 }
  - { offset: 0xD51FA, size: 0x8, addend: 0x0, symName: __RNvMNtCse1nGBsou5OW_5alloc3vecINtB2_3VecTNtNtCs6IAuOt8vWmF_3syn3pat8FieldPatNtNtBH_5token5CommaEE3newBH_, symObjAddr: 0x1468, symBinAddr: 0x5199C, symSize: 0x14 }
  - { offset: 0xD5217, size: 0x8, addend: 0x0, symName: __RNvMNtCse1nGBsou5OW_5alloc3vecINtB2_3VecTNtNtCs6IAuOt8vWmF_3syn4data5FieldNtNtBH_5token5CommaEE3newBH_, symObjAddr: 0x147C, symBinAddr: 0x519B0, symSize: 0x14 }
  - { offset: 0xD5234, size: 0x8, addend: 0x0, symName: __RNvMNtCse1nGBsou5OW_5alloc3vecINtB2_3VecTNtNtCs6IAuOt8vWmF_3syn4data7VariantNtNtBH_5token5CommaEE3newBH_, symObjAddr: 0x14A4, symBinAddr: 0x519C4, symSize: 0x14 }
  - { offset: 0xD5251, size: 0x8, addend: 0x0, symName: __RNvMNtCse1nGBsou5OW_5alloc3vecINtB2_3VecTNtNtCs6IAuOt8vWmF_3syn4expr10FieldValueNtNtBH_5token5CommaEE3newBH_, symObjAddr: 0x14B8, symBinAddr: 0x519D8, symSize: 0x14 }
  - { offset: 0xD526E, size: 0x8, addend: 0x0, symName: __RNvMNtCse1nGBsou5OW_5alloc3vecINtB2_3VecTNtNtCs6IAuOt8vWmF_3syn4expr4ExprNtNtBH_5token5CommaEE3newBH_, symObjAddr: 0x14CC, symBinAddr: 0x519EC, symSize: 0x14 }
  - { offset: 0xD528B, size: 0x8, addend: 0x0, symName: __RNvMNtCse1nGBsou5OW_5alloc3vecINtB2_3VecTNtNtCs6IAuOt8vWmF_3syn4item5FnArgNtNtBH_5token5CommaEE3newBH_, symObjAddr: 0x14E0, symBinAddr: 0x51A00, symSize: 0x14 }
  - { offset: 0xD52A8, size: 0x8, addend: 0x0, symName: __RNvMNtCse1nGBsou5OW_5alloc3vecINtB2_3VecTNtNtCs6IAuOt8vWmF_3syn4item7UseTreeNtNtBH_5token5CommaEE3newBH_, symObjAddr: 0x14F4, symBinAddr: 0x51A14, symSize: 0x14 }
  - { offset: 0xD52C5, size: 0x8, addend: 0x0, symName: __RNvMNtCse1nGBsou5OW_5alloc3vecINtB2_3VecTNtNtCs6IAuOt8vWmF_3syn4path11PathSegmentNtNtBH_5token7PathSepEE3newBH_, symObjAddr: 0x1508, symBinAddr: 0x51A28, symSize: 0x14 }
  - { offset: 0xD52E2, size: 0x8, addend: 0x0, symName: __RNvMNtCse1nGBsou5OW_5alloc3vecINtB2_3VecTNtNtCs6IAuOt8vWmF_3syn4path15GenericArgumentNtNtBH_5token5CommaEE3newBH_, symObjAddr: 0x151C, symBinAddr: 0x51A3C, symSize: 0x14 }
  - { offset: 0xD52FF, size: 0x8, addend: 0x0, symName: __RNvMNtCse1nGBsou5OW_5alloc3vecINtB2_3VecTNtNtCs6IAuOt8vWmF_3syn8generics12GenericParamNtNtBH_5token5CommaEE3newBH_, symObjAddr: 0x1530, symBinAddr: 0x51A50, symSize: 0x14 }
  - { offset: 0xD531C, size: 0x8, addend: 0x0, symName: __RNvMNtCse1nGBsou5OW_5alloc3vecINtB2_3VecTNtNtCs6IAuOt8vWmF_3syn8generics13CapturedParamNtNtBH_5token5CommaEE3newBH_, symObjAddr: 0x1544, symBinAddr: 0x51A64, symSize: 0x14 }
  - { offset: 0xD5339, size: 0x8, addend: 0x0, symName: __RNvMNtCse1nGBsou5OW_5alloc3vecINtB2_3VecTNtNtCs6IAuOt8vWmF_3syn8generics14TypeParamBoundNtNtBH_5token4PlusEE3newBH_, symObjAddr: 0x1558, symBinAddr: 0x51A78, symSize: 0x14 }
  - { offset: 0xD5356, size: 0x8, addend: 0x0, symName: __RNvMNtCse1nGBsou5OW_5alloc3vecINtB2_3VecTNtNtCs6IAuOt8vWmF_3syn8generics14WherePredicateNtNtBH_5token5CommaEE3newBH_, symObjAddr: 0x156C, symBinAddr: 0x51A8C, symSize: 0x14 }
  - { offset: 0xD5373, size: 0x8, addend: 0x0, symName: __RNvMNtCse1nGBsou5OW_5alloc3vecINtB2_3VecTNtNtCs6IAuOt8vWmF_3syn8lifetime8LifetimeNtNtBH_5token4PlusEE3newBH_, symObjAddr: 0x1580, symBinAddr: 0x51AA0, symSize: 0x14 }
  - { offset: 0xD5390, size: 0x8, addend: 0x0, symName: __RNvMNtCse1nGBsou5OW_5alloc3vecINtB2_3VechE3newCs6IAuOt8vWmF_3syn, symObjAddr: 0x1594, symBinAddr: 0x51AB4, symSize: 0x14 }
  - { offset: 0xD54B2, size: 0x8, addend: 0x0, symName: __RNvMs0_NtCse1nGBsou5OW_5alloc3vecINtB5_3VechE17extend_from_sliceCs6IAuOt8vWmF_3syn, symObjAddr: 0x15A8, symBinAddr: 0x51AC8, symSize: 0x74 }
  - { offset: 0xD573A, size: 0x8, addend: 0x0, symName: __RNvMs0_NtCse1nGBsou5OW_5alloc3vecINtB5_3VechE6resizeCs6IAuOt8vWmF_3syn, symObjAddr: 0x161C, symBinAddr: 0x51B3C, symSize: 0x100 }
  - { offset: 0xD59DB, size: 0x8, addend: 0x0, symName: __RNvMs2_NtCse1nGBsou5OW_5alloc3vecINtB5_3VechE11extend_withCs6IAuOt8vWmF_3syn, symObjAddr: 0x171C, symBinAddr: 0x51C3C, symSize: 0x230 }
  - { offset: 0xD5D8C, size: 0x8, addend: 0x0, symName: __RNvMs_NtCse1nGBsou5OW_5alloc3vecINtB4_3VecNtNtCs6IAuOt8vWmF_3syn4attr9AttributeE15append_elementsBI_, symObjAddr: 0x194C, symBinAddr: 0x51E6C, symSize: 0xD8 }
  - { offset: 0xD5FC1, size: 0x8, addend: 0x0, symName: __RNvMs_NtCse1nGBsou5OW_5alloc3vecINtB4_3VecNtNtCs6IAuOt8vWmF_3syn4attr9AttributeE4pushBI_, symObjAddr: 0x1A24, symBinAddr: 0x51F44, symSize: 0x118 }
  - { offset: 0xD625D, size: 0x8, addend: 0x0, symName: __RNvMs_NtCse1nGBsou5OW_5alloc3vecINtB4_3VecNtNtCs6IAuOt8vWmF_3syn4attr9AttributeE6appendBI_, symObjAddr: 0x1B3C, symBinAddr: 0x5205C, symSize: 0x8C }
  - { offset: 0xD6492, size: 0x8, addend: 0x0, symName: __RNvMs_NtCse1nGBsou5OW_5alloc3vecINtB4_3VecNtNtCs6IAuOt8vWmF_3syn4attr9AttributeE7reserveBI_, symObjAddr: 0x1BC8, symBinAddr: 0x520E8, symSize: 0xC8 }
  - { offset: 0xD6669, size: 0x8, addend: 0x0, symName: __RNvMs_NtCse1nGBsou5OW_5alloc3vecINtB4_3VecNtNtCs6IAuOt8vWmF_3syn4attr9AttributeE8as_sliceBI_, symObjAddr: 0x1C90, symBinAddr: 0x521B0, symSize: 0x64 }
  - { offset: 0xD6748, size: 0x8, addend: 0x0, symName: __RNvMs_NtCse1nGBsou5OW_5alloc3vecINtB4_3VecNtNtCs6IAuOt8vWmF_3syn4attr9AttributeE8is_emptyBI_, symObjAddr: 0x1CF4, symBinAddr: 0x52214, symSize: 0x20 }
  - { offset: 0xD67A8, size: 0x8, addend: 0x0, symName: __RNvMs_NtCse1nGBsou5OW_5alloc3vecINtB4_3VecNtNtCs6IAuOt8vWmF_3syn4expr3ArmE3lenBI_, symObjAddr: 0x1DDC, symBinAddr: 0x52234, symSize: 0x18 }
  - { offset: 0xD68F0, size: 0x8, addend: 0x0, symName: __RNvMs_NtCse1nGBsou5OW_5alloc3vecINtB4_3VecNtNtCs6IAuOt8vWmF_3syn4expr3ArmE4pushBI_, symObjAddr: 0x1DF4, symBinAddr: 0x5224C, symSize: 0x120 }
  - { offset: 0xD6B3E, size: 0x8, addend: 0x0, symName: __RNvMs_NtCse1nGBsou5OW_5alloc3vecINtB4_3VecNtNtCs6IAuOt8vWmF_3syn4expr3ArmE8as_sliceBI_, symObjAddr: 0x1F14, symBinAddr: 0x5236C, symSize: 0x64 }
  - { offset: 0xD6D52, size: 0x8, addend: 0x0, symName: __RNvMs_NtCse1nGBsou5OW_5alloc3vecINtB4_3VecNtNtCs6IAuOt8vWmF_3syn4expr6ExprIfE3popBI_, symObjAddr: 0x1F78, symBinAddr: 0x523D0, symSize: 0x100 }
  - { offset: 0xD6FC6, size: 0x8, addend: 0x0, symName: __RNvMs_NtCse1nGBsou5OW_5alloc3vecINtB4_3VecNtNtCs6IAuOt8vWmF_3syn4expr6ExprIfE4pushBI_, symObjAddr: 0x2078, symBinAddr: 0x524D0, symSize: 0x120 }
  - { offset: 0xD7290, size: 0x8, addend: 0x0, symName: __RNvMs_NtCse1nGBsou5OW_5alloc3vecINtB4_3VecNtNtCs6IAuOt8vWmF_3syn4item11ForeignItemE4pushBI_, symObjAddr: 0x2198, symBinAddr: 0x525F0, symSize: 0x120 }
  - { offset: 0xD755A, size: 0x8, addend: 0x0, symName: __RNvMs_NtCse1nGBsou5OW_5alloc3vecINtB4_3VecNtNtCs6IAuOt8vWmF_3syn4item4ItemE4pushBI_, symObjAddr: 0x22B8, symBinAddr: 0x52710, symSize: 0x120 }
  - { offset: 0xD7824, size: 0x8, addend: 0x0, symName: __RNvMs_NtCse1nGBsou5OW_5alloc3vecINtB4_3VecNtNtCs6IAuOt8vWmF_3syn4item8ImplItemE4pushBI_, symObjAddr: 0x23D8, symBinAddr: 0x52830, symSize: 0x120 }
  - { offset: 0xD7AEE, size: 0x8, addend: 0x0, symName: __RNvMs_NtCse1nGBsou5OW_5alloc3vecINtB4_3VecNtNtCs6IAuOt8vWmF_3syn4item9TraitItemE4pushBI_, symObjAddr: 0x24F8, symBinAddr: 0x52950, symSize: 0x120 }
  - { offset: 0xD7DB8, size: 0x8, addend: 0x0, symName: __RNvMs_NtCse1nGBsou5OW_5alloc3vecINtB4_3VecNtNtCs6IAuOt8vWmF_3syn4stmt4StmtE4pushBI_, symObjAddr: 0x2618, symBinAddr: 0x52A70, symSize: 0x120 }
  - { offset: 0xD7FCA, size: 0x8, addend: 0x0, symName: __RNvMs_NtCse1nGBsou5OW_5alloc3vecINtB4_3VecNtNtCs6IAuOt8vWmF_3syn5error12ErrorMessageE3lenBI_, symObjAddr: 0x2818, symBinAddr: 0x52B90, symSize: 0x18 }
  - { offset: 0xD809A, size: 0x8, addend: 0x0, symName: __RNvMs_NtCse1nGBsou5OW_5alloc3vecINtB4_3VecNtNtCs6IAuOt8vWmF_3syn5error12ErrorMessageE8as_sliceBI_, symObjAddr: 0x28F8, symBinAddr: 0x52BA8, symSize: 0x64 }
  - { offset: 0xD8281, size: 0x8, addend: 0x0, symName: __RNvMs_NtCse1nGBsou5OW_5alloc3vecINtB4_3VecNtNtCs6IAuOt8vWmF_3syn6buffer5EntryE13shrink_to_fitBI_, symObjAddr: 0x295C, symBinAddr: 0x52C0C, symSize: 0xEC }
  - { offset: 0xD84F4, size: 0x8, addend: 0x0, symName: __RNvMs_NtCse1nGBsou5OW_5alloc3vecINtB4_3VecNtNtCs6IAuOt8vWmF_3syn6buffer5EntryE16into_boxed_sliceBI_, symObjAddr: 0x2A48, symBinAddr: 0x52CF8, symSize: 0x110 }
  - { offset: 0xD86BD, size: 0x8, addend: 0x0, symName: __RNvMs_NtCse1nGBsou5OW_5alloc3vecINtB4_3VecNtNtCs6IAuOt8vWmF_3syn6buffer5EntryE3lenBI_, symObjAddr: 0x2B58, symBinAddr: 0x52E08, symSize: 0x18 }
  - { offset: 0xD87DE, size: 0x8, addend: 0x0, symName: __RNvMs_NtCse1nGBsou5OW_5alloc3vecINtB4_3VecNtNtCs6IAuOt8vWmF_3syn6buffer5EntryE4pushBI_, symObjAddr: 0x2B70, symBinAddr: 0x52E20, symSize: 0x100 }
  - { offset: 0xD8AA8, size: 0x8, addend: 0x0, symName: __RNvMs_NtCse1nGBsou5OW_5alloc3vecINtB4_3VecNtNtCs6IAuOt8vWmF_3syn8generics14TypeParamBoundE7reserveBI_, symObjAddr: 0x2C70, symBinAddr: 0x52F20, symSize: 0xC8 }
  - { offset: 0xD8C0F, size: 0x8, addend: 0x0, symName: __RNvMs_NtCse1nGBsou5OW_5alloc3vecINtB4_3VecReE3lenCs6IAuOt8vWmF_3syn, symObjAddr: 0x2D38, symBinAddr: 0x52FE8, symSize: 0x18 }
  - { offset: 0xD8D23, size: 0x8, addend: 0x0, symName: __RNvMs_NtCse1nGBsou5OW_5alloc3vecINtB4_3VecReE4pushCs6IAuOt8vWmF_3syn, symObjAddr: 0x2D50, symBinAddr: 0x53000, symSize: 0xF4 }
  - { offset: 0xD8F46, size: 0x8, addend: 0x0, symName: __RNvMs_NtCse1nGBsou5OW_5alloc3vecINtB4_3VecReE8as_sliceCs6IAuOt8vWmF_3syn, symObjAddr: 0x2E44, symBinAddr: 0x530F4, symSize: 0x64 }
  - { offset: 0xD900D, size: 0x8, addend: 0x0, symName: __RNvMs_NtCse1nGBsou5OW_5alloc3vecINtB4_3VecTNtNtCs6IAuOt8vWmF_3syn2ty4TypeNtNtBJ_5token5CommaEE3lenBJ_, symObjAddr: 0x2EA8, symBinAddr: 0x53158, symSize: 0x18 }
  - { offset: 0xD9155, size: 0x8, addend: 0x0, symName: __RNvMs_NtCse1nGBsou5OW_5alloc3vecINtB4_3VecTNtNtCs6IAuOt8vWmF_3syn2ty4TypeNtNtBJ_5token5CommaEE4pushBJ_, symObjAddr: 0x2EC0, symBinAddr: 0x53170, symSize: 0x120 }
  - { offset: 0xD93A3, size: 0x8, addend: 0x0, symName: __RNvMs_NtCse1nGBsou5OW_5alloc3vecINtB4_3VecTNtNtCs6IAuOt8vWmF_3syn2ty4TypeNtNtBJ_5token5CommaEE8as_sliceBJ_, symObjAddr: 0x2FE0, symBinAddr: 0x53290, symSize: 0x64 }
  - { offset: 0xD946A, size: 0x8, addend: 0x0, symName: __RNvMs_NtCse1nGBsou5OW_5alloc3vecINtB4_3VecTNtNtCs6IAuOt8vWmF_3syn2ty9BareFnArgNtNtBJ_5token5CommaEE3lenBJ_, symObjAddr: 0x3044, symBinAddr: 0x532F4, symSize: 0x18 }
  - { offset: 0xD95B2, size: 0x8, addend: 0x0, symName: __RNvMs_NtCse1nGBsou5OW_5alloc3vecINtB4_3VecTNtNtCs6IAuOt8vWmF_3syn2ty9BareFnArgNtNtBJ_5token5CommaEE4pushBJ_, symObjAddr: 0x305C, symBinAddr: 0x5330C, symSize: 0x120 }
  - { offset: 0xD9800, size: 0x8, addend: 0x0, symName: __RNvMs_NtCse1nGBsou5OW_5alloc3vecINtB4_3VecTNtNtCs6IAuOt8vWmF_3syn2ty9BareFnArgNtNtBJ_5token5CommaEE8as_sliceBJ_, symObjAddr: 0x317C, symBinAddr: 0x5342C, symSize: 0x64 }
  - { offset: 0xD99CD, size: 0x8, addend: 0x0, symName: __RNvMs_NtCse1nGBsou5OW_5alloc3vecINtB4_3VecTNtNtCs6IAuOt8vWmF_3syn3pat3PatNtNtBJ_5token2OrEE4pushBJ_, symObjAddr: 0x31E0, symBinAddr: 0x53490, symSize: 0x120 }
  - { offset: 0xD9C28, size: 0x8, addend: 0x0, symName: __RNvMs_NtCse1nGBsou5OW_5alloc3vecINtB4_3VecTNtNtCs6IAuOt8vWmF_3syn3pat3PatNtNtBJ_5token2OrEE8as_sliceBJ_, symObjAddr: 0x3300, symBinAddr: 0x535B0, symSize: 0x64 }
  - { offset: 0xD9CEF, size: 0x8, addend: 0x0, symName: __RNvMs_NtCse1nGBsou5OW_5alloc3vecINtB4_3VecTNtNtCs6IAuOt8vWmF_3syn3pat3PatNtNtBJ_5token5CommaEE3lenBJ_, symObjAddr: 0x3364, symBinAddr: 0x53614, symSize: 0x18 }
  - { offset: 0xD9E37, size: 0x8, addend: 0x0, symName: __RNvMs_NtCse1nGBsou5OW_5alloc3vecINtB4_3VecTNtNtCs6IAuOt8vWmF_3syn3pat3PatNtNtBJ_5token5CommaEE4pushBJ_, symObjAddr: 0x337C, symBinAddr: 0x5362C, symSize: 0x120 }
  - { offset: 0xDA085, size: 0x8, addend: 0x0, symName: __RNvMs_NtCse1nGBsou5OW_5alloc3vecINtB4_3VecTNtNtCs6IAuOt8vWmF_3syn3pat3PatNtNtBJ_5token5CommaEE8as_sliceBJ_, symObjAddr: 0x349C, symBinAddr: 0x5374C, symSize: 0x64 }
  - { offset: 0xDA252, size: 0x8, addend: 0x0, symName: __RNvMs_NtCse1nGBsou5OW_5alloc3vecINtB4_3VecTNtNtCs6IAuOt8vWmF_3syn3pat8FieldPatNtNtBJ_5token5CommaEE4pushBJ_, symObjAddr: 0x3500, symBinAddr: 0x537B0, symSize: 0x118 }
  - { offset: 0xDA4AB, size: 0x8, addend: 0x0, symName: __RNvMs_NtCse1nGBsou5OW_5alloc3vecINtB4_3VecTNtNtCs6IAuOt8vWmF_3syn3pat8FieldPatNtNtBJ_5token5CommaEE8as_sliceBJ_, symObjAddr: 0x3618, symBinAddr: 0x538C8, symSize: 0x64 }
  - { offset: 0xDA633, size: 0x8, addend: 0x0, symName: __RNvMs_NtCse1nGBsou5OW_5alloc3vecINtB4_3VecTNtNtCs6IAuOt8vWmF_3syn4data5FieldNtNtBJ_5token5CommaEE12as_mut_sliceBJ_, symObjAddr: 0x367C, symBinAddr: 0x5392C, symSize: 0x64 }
  - { offset: 0xDA70F, size: 0x8, addend: 0x0, symName: __RNvMs_NtCse1nGBsou5OW_5alloc3vecINtB4_3VecTNtNtCs6IAuOt8vWmF_3syn4data5FieldNtNtBJ_5token5CommaEE3lenBJ_, symObjAddr: 0x36E0, symBinAddr: 0x53990, symSize: 0x18 }
  - { offset: 0xDA823, size: 0x8, addend: 0x0, symName: __RNvMs_NtCse1nGBsou5OW_5alloc3vecINtB4_3VecTNtNtCs6IAuOt8vWmF_3syn4data5FieldNtNtBJ_5token5CommaEE4pushBJ_, symObjAddr: 0x36F8, symBinAddr: 0x539A8, symSize: 0x120 }
  - { offset: 0xDAA68, size: 0x8, addend: 0x0, symName: __RNvMs_NtCse1nGBsou5OW_5alloc3vecINtB4_3VecTNtNtCs6IAuOt8vWmF_3syn4data5FieldNtNtBJ_5token5CommaEE8as_sliceBJ_, symObjAddr: 0x3818, symBinAddr: 0x53AC8, symSize: 0x64 }
  - { offset: 0xDAC35, size: 0x8, addend: 0x0, symName: __RNvMs_NtCse1nGBsou5OW_5alloc3vecINtB4_3VecTNtNtCs6IAuOt8vWmF_3syn4data7VariantNtNtBJ_5token5CommaEE4pushBJ_, symObjAddr: 0x3894, symBinAddr: 0x53B2C, symSize: 0x120 }
  - { offset: 0xDAE90, size: 0x8, addend: 0x0, symName: __RNvMs_NtCse1nGBsou5OW_5alloc3vecINtB4_3VecTNtNtCs6IAuOt8vWmF_3syn4data7VariantNtNtBJ_5token5CommaEE8as_sliceBJ_, symObjAddr: 0x39B4, symBinAddr: 0x53C4C, symSize: 0x64 }
  - { offset: 0xDB05D, size: 0x8, addend: 0x0, symName: __RNvMs_NtCse1nGBsou5OW_5alloc3vecINtB4_3VecTNtNtCs6IAuOt8vWmF_3syn4expr10FieldValueNtNtBJ_5token5CommaEE4pushBJ_, symObjAddr: 0x3A18, symBinAddr: 0x53CB0, symSize: 0x120 }
  - { offset: 0xDB2B8, size: 0x8, addend: 0x0, symName: __RNvMs_NtCse1nGBsou5OW_5alloc3vecINtB4_3VecTNtNtCs6IAuOt8vWmF_3syn4expr10FieldValueNtNtBJ_5token5CommaEE8as_sliceBJ_, symObjAddr: 0x3B38, symBinAddr: 0x53DD0, symSize: 0x64 }
  - { offset: 0xDB37F, size: 0x8, addend: 0x0, symName: __RNvMs_NtCse1nGBsou5OW_5alloc3vecINtB4_3VecTNtNtCs6IAuOt8vWmF_3syn4expr4ExprNtNtBJ_5token5CommaEE3lenBJ_, symObjAddr: 0x3B9C, symBinAddr: 0x53E34, symSize: 0x18 }
  - { offset: 0xDB4C7, size: 0x8, addend: 0x0, symName: __RNvMs_NtCse1nGBsou5OW_5alloc3vecINtB4_3VecTNtNtCs6IAuOt8vWmF_3syn4expr4ExprNtNtBJ_5token5CommaEE4pushBJ_, symObjAddr: 0x3BB4, symBinAddr: 0x53E4C, symSize: 0x120 }
  - { offset: 0xDB715, size: 0x8, addend: 0x0, symName: __RNvMs_NtCse1nGBsou5OW_5alloc3vecINtB4_3VecTNtNtCs6IAuOt8vWmF_3syn4expr4ExprNtNtBJ_5token5CommaEE8as_sliceBJ_, symObjAddr: 0x3CD4, symBinAddr: 0x53F6C, symSize: 0x64 }
  - { offset: 0xDB7DC, size: 0x8, addend: 0x0, symName: __RNvMs_NtCse1nGBsou5OW_5alloc3vecINtB4_3VecTNtNtCs6IAuOt8vWmF_3syn4item5FnArgNtNtBJ_5token5CommaEE3lenBJ_, symObjAddr: 0x3D38, symBinAddr: 0x53FD0, symSize: 0x18 }
  - { offset: 0xDB924, size: 0x8, addend: 0x0, symName: __RNvMs_NtCse1nGBsou5OW_5alloc3vecINtB4_3VecTNtNtCs6IAuOt8vWmF_3syn4item5FnArgNtNtBJ_5token5CommaEE4pushBJ_, symObjAddr: 0x3D50, symBinAddr: 0x53FE8, symSize: 0x120 }
  - { offset: 0xDBB72, size: 0x8, addend: 0x0, symName: __RNvMs_NtCse1nGBsou5OW_5alloc3vecINtB4_3VecTNtNtCs6IAuOt8vWmF_3syn4item5FnArgNtNtBJ_5token5CommaEE8as_sliceBJ_, symObjAddr: 0x3E70, symBinAddr: 0x54108, symSize: 0x64 }
  - { offset: 0xDBD3F, size: 0x8, addend: 0x0, symName: __RNvMs_NtCse1nGBsou5OW_5alloc3vecINtB4_3VecTNtNtCs6IAuOt8vWmF_3syn4item7UseTreeNtNtBJ_5token5CommaEE4pushBJ_, symObjAddr: 0x3ED4, symBinAddr: 0x5416C, symSize: 0x118 }
  - { offset: 0xDBF98, size: 0x8, addend: 0x0, symName: __RNvMs_NtCse1nGBsou5OW_5alloc3vecINtB4_3VecTNtNtCs6IAuOt8vWmF_3syn4item7UseTreeNtNtBJ_5token5CommaEE8as_sliceBJ_, symObjAddr: 0x3FEC, symBinAddr: 0x54284, symSize: 0x64 }
  - { offset: 0xDC12D, size: 0x8, addend: 0x0, symName: __RNvMs_NtCse1nGBsou5OW_5alloc3vecINtB4_3VecTNtNtCs6IAuOt8vWmF_3syn4path11PathSegmentNtNtBJ_5token7PathSepEE12as_mut_sliceBJ_, symObjAddr: 0x4050, symBinAddr: 0x542E8, symSize: 0x64 }
  - { offset: 0xDC209, size: 0x8, addend: 0x0, symName: __RNvMs_NtCse1nGBsou5OW_5alloc3vecINtB4_3VecTNtNtCs6IAuOt8vWmF_3syn4path11PathSegmentNtNtBJ_5token7PathSepEE3lenBJ_, symObjAddr: 0x40B4, symBinAddr: 0x5434C, symSize: 0x18 }
  - { offset: 0xDC357, size: 0x8, addend: 0x0, symName: __RNvMs_NtCse1nGBsou5OW_5alloc3vecINtB4_3VecTNtNtCs6IAuOt8vWmF_3syn4path11PathSegmentNtNtBJ_5token7PathSepEE3popBJ_, symObjAddr: 0x40CC, symBinAddr: 0x54364, symSize: 0x104 }
  - { offset: 0xDC5CB, size: 0x8, addend: 0x0, symName: __RNvMs_NtCse1nGBsou5OW_5alloc3vecINtB4_3VecTNtNtCs6IAuOt8vWmF_3syn4path11PathSegmentNtNtBJ_5token7PathSepEE4pushBJ_, symObjAddr: 0x41D0, symBinAddr: 0x54468, symSize: 0x120 }
  - { offset: 0xDC810, size: 0x8, addend: 0x0, symName: __RNvMs_NtCse1nGBsou5OW_5alloc3vecINtB4_3VecTNtNtCs6IAuOt8vWmF_3syn4path11PathSegmentNtNtBJ_5token7PathSepEE8as_sliceBJ_, symObjAddr: 0x42F0, symBinAddr: 0x54588, symSize: 0x64 }
  - { offset: 0xDC8D7, size: 0x8, addend: 0x0, symName: __RNvMs_NtCse1nGBsou5OW_5alloc3vecINtB4_3VecTNtNtCs6IAuOt8vWmF_3syn4path15GenericArgumentNtNtBJ_5token5CommaEE3lenBJ_, symObjAddr: 0x4354, symBinAddr: 0x545EC, symSize: 0x18 }
  - { offset: 0xDCA1F, size: 0x8, addend: 0x0, symName: __RNvMs_NtCse1nGBsou5OW_5alloc3vecINtB4_3VecTNtNtCs6IAuOt8vWmF_3syn4path15GenericArgumentNtNtBJ_5token5CommaEE4pushBJ_, symObjAddr: 0x436C, symBinAddr: 0x54604, symSize: 0x120 }
  - { offset: 0xDCC6D, size: 0x8, addend: 0x0, symName: __RNvMs_NtCse1nGBsou5OW_5alloc3vecINtB4_3VecTNtNtCs6IAuOt8vWmF_3syn4path15GenericArgumentNtNtBJ_5token5CommaEE8as_sliceBJ_, symObjAddr: 0x448C, symBinAddr: 0x54724, symSize: 0x64 }
  - { offset: 0xDCD8F, size: 0x8, addend: 0x0, symName: __RNvMs_NtCse1nGBsou5OW_5alloc3vecINtB4_3VecTNtNtCs6IAuOt8vWmF_3syn8generics12GenericParamNtNtBJ_5token5CommaEE3lenBJ_, symObjAddr: 0x4554, symBinAddr: 0x54788, symSize: 0x18 }
  - { offset: 0xDCEA3, size: 0x8, addend: 0x0, symName: __RNvMs_NtCse1nGBsou5OW_5alloc3vecINtB4_3VecTNtNtCs6IAuOt8vWmF_3syn8generics12GenericParamNtNtBJ_5token5CommaEE4pushBJ_, symObjAddr: 0x456C, symBinAddr: 0x547A0, symSize: 0x120 }
  - { offset: 0xDD0E8, size: 0x8, addend: 0x0, symName: __RNvMs_NtCse1nGBsou5OW_5alloc3vecINtB4_3VecTNtNtCs6IAuOt8vWmF_3syn8generics12GenericParamNtNtBJ_5token5CommaEE8as_sliceBJ_, symObjAddr: 0x468C, symBinAddr: 0x548C0, symSize: 0x64 }
  - { offset: 0xDD2B5, size: 0x8, addend: 0x0, symName: __RNvMs_NtCse1nGBsou5OW_5alloc3vecINtB4_3VecTNtNtCs6IAuOt8vWmF_3syn8generics13CapturedParamNtNtBJ_5token5CommaEE4pushBJ_, symObjAddr: 0x46F0, symBinAddr: 0x54924, symSize: 0x118 }
  - { offset: 0xDD50E, size: 0x8, addend: 0x0, symName: __RNvMs_NtCse1nGBsou5OW_5alloc3vecINtB4_3VecTNtNtCs6IAuOt8vWmF_3syn8generics13CapturedParamNtNtBJ_5token5CommaEE8as_sliceBJ_, symObjAddr: 0x4808, symBinAddr: 0x54A3C, symSize: 0x64 }
  - { offset: 0xDD5D5, size: 0x8, addend: 0x0, symName: __RNvMs_NtCse1nGBsou5OW_5alloc3vecINtB4_3VecTNtNtCs6IAuOt8vWmF_3syn8generics14TypeParamBoundNtNtBJ_5token4PlusEE3lenBJ_, symObjAddr: 0x486C, symBinAddr: 0x54AA0, symSize: 0x18 }
  - { offset: 0xDD710, size: 0x8, addend: 0x0, symName: __RNvMs_NtCse1nGBsou5OW_5alloc3vecINtB4_3VecTNtNtCs6IAuOt8vWmF_3syn8generics14TypeParamBoundNtNtBJ_5token4PlusEE4pushBJ_, symObjAddr: 0x4884, symBinAddr: 0x54AB8, symSize: 0x118 }
  - { offset: 0xDD95E, size: 0x8, addend: 0x0, symName: __RNvMs_NtCse1nGBsou5OW_5alloc3vecINtB4_3VecTNtNtCs6IAuOt8vWmF_3syn8generics14TypeParamBoundNtNtBJ_5token4PlusEE8as_sliceBJ_, symObjAddr: 0x499C, symBinAddr: 0x54BD0, symSize: 0x64 }
  - { offset: 0xDDA25, size: 0x8, addend: 0x0, symName: __RNvMs_NtCse1nGBsou5OW_5alloc3vecINtB4_3VecTNtNtCs6IAuOt8vWmF_3syn8generics14WherePredicateNtNtBJ_5token5CommaEE3lenBJ_, symObjAddr: 0x4A00, symBinAddr: 0x54C34, symSize: 0x18 }
  - { offset: 0xDDB6D, size: 0x8, addend: 0x0, symName: __RNvMs_NtCse1nGBsou5OW_5alloc3vecINtB4_3VecTNtNtCs6IAuOt8vWmF_3syn8generics14WherePredicateNtNtBJ_5token5CommaEE4pushBJ_, symObjAddr: 0x4A18, symBinAddr: 0x54C4C, symSize: 0x120 }
  - { offset: 0xDDDBB, size: 0x8, addend: 0x0, symName: __RNvMs_NtCse1nGBsou5OW_5alloc3vecINtB4_3VecTNtNtCs6IAuOt8vWmF_3syn8generics14WherePredicateNtNtBJ_5token5CommaEE8as_sliceBJ_, symObjAddr: 0x4B38, symBinAddr: 0x54D6C, symSize: 0x64 }
  - { offset: 0xDDE82, size: 0x8, addend: 0x0, symName: __RNvMs_NtCse1nGBsou5OW_5alloc3vecINtB4_3VecTNtNtCs6IAuOt8vWmF_3syn8lifetime8LifetimeNtNtBJ_5token4PlusEE3lenBJ_, symObjAddr: 0x4B9C, symBinAddr: 0x54DD0, symSize: 0x18 }
  - { offset: 0xDDFCA, size: 0x8, addend: 0x0, symName: __RNvMs_NtCse1nGBsou5OW_5alloc3vecINtB4_3VecTNtNtCs6IAuOt8vWmF_3syn8lifetime8LifetimeNtNtBJ_5token4PlusEE4pushBJ_, symObjAddr: 0x4BB4, symBinAddr: 0x54DE8, symSize: 0x118 }
  - { offset: 0xDE216, size: 0x8, addend: 0x0, symName: __RNvMs_NtCse1nGBsou5OW_5alloc3vecINtB4_3VecTNtNtCs6IAuOt8vWmF_3syn8lifetime8LifetimeNtNtBJ_5token4PlusEE8as_sliceBJ_, symObjAddr: 0x4CCC, symBinAddr: 0x54F00, symSize: 0x64 }
  - { offset: 0xDE3D6, size: 0x8, addend: 0x0, symName: __RNvMs_NtCse1nGBsou5OW_5alloc3vecINtB4_3VechE13shrink_to_fitCs6IAuOt8vWmF_3syn, symObjAddr: 0x4D30, symBinAddr: 0x54F64, symSize: 0xE4 }
  - { offset: 0xDE604, size: 0x8, addend: 0x0, symName: __RNvMs_NtCse1nGBsou5OW_5alloc3vecINtB4_3VechE16into_boxed_sliceCs6IAuOt8vWmF_3syn, symObjAddr: 0x4E14, symBinAddr: 0x55048, symSize: 0x110 }
  - { offset: 0xDE7CD, size: 0x8, addend: 0x0, symName: __RNvMs_NtCse1nGBsou5OW_5alloc3vecINtB4_3VechE3lenCs6IAuOt8vWmF_3syn, symObjAddr: 0x4F24, symBinAddr: 0x55158, symSize: 0x18 }
  - { offset: 0xDE872, size: 0x8, addend: 0x0, symName: __RNvMs_NtCse1nGBsou5OW_5alloc3vecINtB4_3VechE8as_sliceCs6IAuOt8vWmF_3syn, symObjAddr: 0x4F3C, symBinAddr: 0x55170, symSize: 0x60 }
  - { offset: 0xDEAE2, size: 0x8, addend: 0x0, symName: __RNvMs_NtCse1nGBsou5OW_5alloc3vecINtB4_3VechE9split_offCs6IAuOt8vWmF_3syn, symObjAddr: 0x4F9C, symBinAddr: 0x551D0, symSize: 0x140 }
  - { offset: 0xE47C5, size: 0x8, addend: 0x0, symName: __RINvXNtNtCse1nGBsou5OW_5alloc5slice4hackNtNtCs6IAuOt8vWmF_3syn4expr3ArmNtB3_10ConvertVec6to_vecNtNtB7_5alloc6GlobalEBG_, symObjAddr: 0x0, symBinAddr: 0x58A14, symSize: 0x36C }
  - { offset: 0xE5AB6, size: 0x8, addend: 0x0, symName: __RINvXNtNtCse1nGBsou5OW_5alloc5slice4hackNtNtCs6IAuOt8vWmF_3syn4expr3ArmNtB3_10ConvertVec6to_vecNtNtB7_5alloc6GlobalEBG_, symObjAddr: 0x0, symBinAddr: 0x58A14, symSize: 0x36C }
  - { offset: 0xE5F79, size: 0x8, addend: 0x0, symName: __RINvXNtNtCse1nGBsou5OW_5alloc5slice4hackTNtNtCs6IAuOt8vWmF_3syn4expr10FieldValueNtNtBH_5token5CommaENtB3_10ConvertVec6to_vecNtNtB7_5alloc6GlobalEBH_, symObjAddr: 0x36C, symBinAddr: 0x58D80, symSize: 0x36C }
  - { offset: 0xE643C, size: 0x8, addend: 0x0, symName: __RINvXNtNtCse1nGBsou5OW_5alloc5slice4hackTNtNtCs6IAuOt8vWmF_3syn4expr4ExprNtNtBH_5token5CommaENtB3_10ConvertVec6to_vecNtNtB7_5alloc6GlobalEBH_, symObjAddr: 0x6D8, symBinAddr: 0x590EC, symSize: 0x36C }
  - { offset: 0xE947A, size: 0x8, addend: 0x0, symName: __RNvXs7_NtCs6IAuOt8vWmF_3syn4exprNtB5_5IndexINtNtCsfvfooZQ3Axs_4core7convert4FromjE4from, symObjAddr: 0x2A70, symBinAddr: 0x5A264, symSize: 0x84 }
  - { offset: 0xE94B3, size: 0x8, addend: 0x0, symName: __RNvXNtNtCs6IAuOt8vWmF_3syn4expr7parsingNtB4_4ExprNtNtB6_5parse5Parse5parse, symObjAddr: 0x2BA8, symBinAddr: 0x5A2E8, symSize: 0x3C }
  - { offset: 0xE94E7, size: 0x8, addend: 0x0, symName: __RNvXs4_NtNtCs6IAuOt8vWmF_3syn4expr7parsingNtB7_7ExprLitNtNtB9_5parse5Parse5parse, symObjAddr: 0x3648, symBinAddr: 0x5A324, symSize: 0x14C }
  - { offset: 0xE953A, size: 0x8, addend: 0x0, symName: __RNvXs7_NtNtCs6IAuOt8vWmF_3syn4expr7parsingNtB7_6ExprIfNtNtB9_5parse5Parse5parse, symObjAddr: 0x3A7C, symBinAddr: 0x5A470, symSize: 0x103C }
  - { offset: 0xE97B0, size: 0x8, addend: 0x0, symName: __RNvXs8_NtNtCs6IAuOt8vWmF_3syn4expr7parsingNtB7_9ExprInferNtNtB9_5parse5Parse5parse, symObjAddr: 0x4AB8, symBinAddr: 0x5B4AC, symSize: 0x1D0 }
  - { offset: 0xE9841, size: 0x8, addend: 0x0, symName: __RNvXs9_NtNtCs6IAuOt8vWmF_3syn4expr7parsingNtB7_11ExprForLoopNtNtB9_5parse5Parse5parse, symObjAddr: 0x4C88, symBinAddr: 0x5B67C, symSize: 0x9A4 }
  - { offset: 0xE9B10, size: 0x8, addend: 0x0, symName: __RNvXsa_NtNtCs6IAuOt8vWmF_3syn4expr7parsingNtB7_8ExprLoopNtNtB9_5parse5Parse5parse, symObjAddr: 0x562C, symBinAddr: 0x5C020, symSize: 0x590 }
  - { offset: 0xE9CC3, size: 0x8, addend: 0x0, symName: __RNvXsb_NtNtCs6IAuOt8vWmF_3syn4expr7parsingNtB7_9ExprMatchNtNtB9_5parse5Parse5parse, symObjAddr: 0x5BBC, symBinAddr: 0x5C5B0, symSize: 0x60C }
  - { offset: 0xE9EAC, size: 0x8, addend: 0x0, symName: __RNvXsh_NtNtCs6IAuOt8vWmF_3syn4expr7parsingNtB7_10ExprReturnNtNtB9_5parse5Parse5parse, symObjAddr: 0x6A04, symBinAddr: 0x5CBBC, symSize: 0x210 }
  - { offset: 0xE9F0E, size: 0x8, addend: 0x0, symName: __RNvXsi_NtNtCs6IAuOt8vWmF_3syn4expr7parsingNtB7_12ExprTryBlockNtNtB9_5parse5Parse5parse, symObjAddr: 0x6C14, symBinAddr: 0x5CDCC, symSize: 0x220 }
  - { offset: 0xE9F80, size: 0x8, addend: 0x0, symName: __RNvXsj_NtNtCs6IAuOt8vWmF_3syn4expr7parsingNtB7_9ExprYieldNtNtB9_5parse5Parse5parse, symObjAddr: 0x6E34, symBinAddr: 0x5CFEC, symSize: 0x210 }
  - { offset: 0xE9FE2, size: 0x8, addend: 0x0, symName: __RNvXsk_NtNtCs6IAuOt8vWmF_3syn4expr7parsingNtB7_9ExprAsyncNtNtB9_5parse5Parse5parse, symObjAddr: 0x7044, symBinAddr: 0x5D1FC, symSize: 0x2E8 }
  - { offset: 0xEA073, size: 0x8, addend: 0x0, symName: __RNvXsl_NtNtCs6IAuOt8vWmF_3syn4expr7parsingNtB7_9ExprWhileNtNtB9_5parse5Parse5parse, symObjAddr: 0x732C, symBinAddr: 0x5D4E4, symSize: 0x760 }
  - { offset: 0xEA2A9, size: 0x8, addend: 0x0, symName: __RNvXsm_NtNtCs6IAuOt8vWmF_3syn4expr7parsingNtB7_9ExprConstNtNtB9_5parse5Parse5parse, symObjAddr: 0x7A8C, symBinAddr: 0x5DC44, symSize: 0x3BC }
  - { offset: 0xEA3FF, size: 0x8, addend: 0x0, symName: __RNvXsn_NtNtCs6IAuOt8vWmF_3syn4expr7parsingNtB7_5LabelNtNtB9_5parse5Parse5parse, symObjAddr: 0x7E48, symBinAddr: 0x5E000, symSize: 0x1D4 }
  - { offset: 0xEA490, size: 0x8, addend: 0x0, symName: __RNvXsp_NtNtCs6IAuOt8vWmF_3syn4expr7parsingNtB7_12ExprContinueNtNtB9_5parse5Parse5parse, symObjAddr: 0x801C, symBinAddr: 0x5E1D4, symSize: 0x200 }
  - { offset: 0xEA502, size: 0x8, addend: 0x0, symName: __RNvXsq_NtNtCs6IAuOt8vWmF_3syn4expr7parsingNtB7_10FieldValueNtNtB9_5parse5Parse5parse, symObjAddr: 0x821C, symBinAddr: 0x5E3D4, symSize: 0x560 }
  - { offset: 0xEA6A1, size: 0x8, addend: 0x0, symName: __RNvXss_NtNtCs6IAuOt8vWmF_3syn4expr7parsingNtB7_10ExprUnsafeNtNtB9_5parse5Parse5parse, symObjAddr: 0x893C, symBinAddr: 0x5E934, symSize: 0x3BC }
  - { offset: 0xEA7F7, size: 0x8, addend: 0x0, symName: __RNvXst_NtNtCs6IAuOt8vWmF_3syn4expr7parsingNtB7_9ExprBlockNtNtB9_5parse5Parse5parse, symObjAddr: 0x8CF8, symBinAddr: 0x5ECF0, symSize: 0x4FC }
  - { offset: 0xEA97D, size: 0x8, addend: 0x0, symName: __RNvXsu_NtNtCs6IAuOt8vWmF_3syn4expr7parsingNtB7_11RangeLimitsNtNtB9_5parse5Parse5parse, symObjAddr: 0x91F4, symBinAddr: 0x5F1EC, symSize: 0x234 }
  - { offset: 0xEAA0B, size: 0x8, addend: 0x0, symName: __RNvXsw_NtNtCs6IAuOt8vWmF_3syn4expr7parsingNtB7_8ExprPathNtNtB9_5parse5Parse5parse, symObjAddr: 0x975C, symBinAddr: 0x5F754, symSize: 0x238 }
  - { offset: 0xEAAF9, size: 0x8, addend: 0x0, symName: __RNvXsx_NtNtCs6IAuOt8vWmF_3syn4expr7parsingNtB7_6MemberNtNtB9_5parse5Parse5parse, symObjAddr: 0x9994, symBinAddr: 0x5F98C, symSize: 0xFC }
  - { offset: 0xEAB2D, size: 0x8, addend: 0x0, symName: __RNvXsz_NtNtCs6IAuOt8vWmF_3syn4expr7parsingNtB7_3ArmNtNtB9_5parse5Parse5parse, symObjAddr: 0x9C54, symBinAddr: 0x5FC4C, symSize: 0x8EC }
  - { offset: 0xEAD65, size: 0x8, addend: 0x0, symName: __RNvXsA_NtNtCs6IAuOt8vWmF_3syn4expr7parsingNtB7_5IndexNtNtB9_5parse5Parse5parse, symObjAddr: 0xA540, symBinAddr: 0x60538, symSize: 0x28C }
  - { offset: 0xEAE13, size: 0x8, addend: 0x0, symName: __RNvXNtNtCs6IAuOt8vWmF_3syn4expr8printingNtB4_9ExprArrayNtNtCs2cqEZUIJimJ_5quote9to_tokens8ToTokens9to_tokens, symObjAddr: 0xAA84, symBinAddr: 0x607C4, symSize: 0x58 }
  - { offset: 0xEAE52, size: 0x8, addend: 0x0, symName: __RNvXs_NtNtCs6IAuOt8vWmF_3syn4expr8printingNtB6_10ExprAssignNtNtCs2cqEZUIJimJ_5quote9to_tokens8ToTokens9to_tokens, symObjAddr: 0xAADC, symBinAddr: 0x6081C, symSize: 0x58 }
  - { offset: 0xEAE91, size: 0x8, addend: 0x0, symName: __RNvXs0_NtNtCs6IAuOt8vWmF_3syn4expr8printingNtB7_9ExprAsyncNtNtCs2cqEZUIJimJ_5quote9to_tokens8ToTokens9to_tokens, symObjAddr: 0xAB34, symBinAddr: 0x60874, symSize: 0x74 }
  - { offset: 0xEAED0, size: 0x8, addend: 0x0, symName: __RNvXs1_NtNtCs6IAuOt8vWmF_3syn4expr8printingNtB7_9ExprAwaitNtNtCs2cqEZUIJimJ_5quote9to_tokens8ToTokens9to_tokens, symObjAddr: 0xABA8, symBinAddr: 0x608E8, symSize: 0x58 }
  - { offset: 0xEAF0F, size: 0x8, addend: 0x0, symName: __RNvXs2_NtNtCs6IAuOt8vWmF_3syn4expr8printingNtB7_10ExprBinaryNtNtCs2cqEZUIJimJ_5quote9to_tokens8ToTokens9to_tokens, symObjAddr: 0xAC00, symBinAddr: 0x60940, symSize: 0x58 }
  - { offset: 0xEAF4E, size: 0x8, addend: 0x0, symName: __RNvXs3_NtNtCs6IAuOt8vWmF_3syn4expr8printingNtB7_9ExprBlockNtNtCs2cqEZUIJimJ_5quote9to_tokens8ToTokens9to_tokens, symObjAddr: 0xAC58, symBinAddr: 0x60998, symSize: 0x68 }
  - { offset: 0xEAF8D, size: 0x8, addend: 0x0, symName: __RNvXs4_NtNtCs6IAuOt8vWmF_3syn4expr8printingNtB7_9ExprBreakNtNtCs2cqEZUIJimJ_5quote9to_tokens8ToTokens9to_tokens, symObjAddr: 0xACC0, symBinAddr: 0x60A00, symSize: 0x58 }
  - { offset: 0xEAFCC, size: 0x8, addend: 0x0, symName: __RNvXs5_NtNtCs6IAuOt8vWmF_3syn4expr8printingNtB7_8ExprCallNtNtCs2cqEZUIJimJ_5quote9to_tokens8ToTokens9to_tokens, symObjAddr: 0xAD18, symBinAddr: 0x60A58, symSize: 0x58 }
  - { offset: 0xEB00B, size: 0x8, addend: 0x0, symName: __RNvXs6_NtNtCs6IAuOt8vWmF_3syn4expr8printingNtB7_8ExprCastNtNtCs2cqEZUIJimJ_5quote9to_tokens8ToTokens9to_tokens, symObjAddr: 0xAD70, symBinAddr: 0x60AB0, symSize: 0x58 }
  - { offset: 0xEB04A, size: 0x8, addend: 0x0, symName: __RNvXs7_NtNtCs6IAuOt8vWmF_3syn4expr8printingNtB7_11ExprClosureNtNtCs2cqEZUIJimJ_5quote9to_tokens8ToTokens9to_tokens, symObjAddr: 0xADC8, symBinAddr: 0x60B08, symSize: 0x58 }
  - { offset: 0xEB089, size: 0x8, addend: 0x0, symName: __RNvXs8_NtNtCs6IAuOt8vWmF_3syn4expr8printingNtB7_9ExprConstNtNtCs2cqEZUIJimJ_5quote9to_tokens8ToTokens9to_tokens, symObjAddr: 0xAE20, symBinAddr: 0x60B60, symSize: 0x68 }
  - { offset: 0xEB0C8, size: 0x8, addend: 0x0, symName: __RNvXs9_NtNtCs6IAuOt8vWmF_3syn4expr8printingNtB7_12ExprContinueNtNtCs2cqEZUIJimJ_5quote9to_tokens8ToTokens9to_tokens, symObjAddr: 0xAE88, symBinAddr: 0x60BC8, symSize: 0x64 }
  - { offset: 0xEB107, size: 0x8, addend: 0x0, symName: __RNvXsa_NtNtCs6IAuOt8vWmF_3syn4expr8printingNtB7_9ExprFieldNtNtCs2cqEZUIJimJ_5quote9to_tokens8ToTokens9to_tokens, symObjAddr: 0xAEEC, symBinAddr: 0x60C2C, symSize: 0x58 }
  - { offset: 0xEB146, size: 0x8, addend: 0x0, symName: __RNvXsb_NtNtCs6IAuOt8vWmF_3syn4expr8printingNtB7_11ExprForLoopNtNtCs2cqEZUIJimJ_5quote9to_tokens8ToTokens9to_tokens, symObjAddr: 0xAF44, symBinAddr: 0x60C84, symSize: 0xDC }
  - { offset: 0xEB185, size: 0x8, addend: 0x0, symName: __RNvXsc_NtNtCs6IAuOt8vWmF_3syn4expr8printingNtB7_9ExprGroupNtNtCs2cqEZUIJimJ_5quote9to_tokens8ToTokens9to_tokens, symObjAddr: 0xB020, symBinAddr: 0x60D60, symSize: 0x58 }
  - { offset: 0xEB1C4, size: 0x8, addend: 0x0, symName: __RNvXsd_NtNtCs6IAuOt8vWmF_3syn4expr8printingNtB7_6ExprIfNtNtCs2cqEZUIJimJ_5quote9to_tokens8ToTokens9to_tokens, symObjAddr: 0xB078, symBinAddr: 0x60DB8, symSize: 0x208 }
  - { offset: 0xEB29A, size: 0x8, addend: 0x0, symName: __RNvXse_NtNtCs6IAuOt8vWmF_3syn4expr8printingNtB7_9ExprIndexNtNtCs2cqEZUIJimJ_5quote9to_tokens8ToTokens9to_tokens, symObjAddr: 0xB280, symBinAddr: 0x60FC0, symSize: 0x58 }
  - { offset: 0xEB2D9, size: 0x8, addend: 0x0, symName: __RNvXsf_NtNtCs6IAuOt8vWmF_3syn4expr8printingNtB7_9ExprInferNtNtCs2cqEZUIJimJ_5quote9to_tokens8ToTokens9to_tokens, symObjAddr: 0xB2D8, symBinAddr: 0x61018, symSize: 0x54 }
  - { offset: 0xEB318, size: 0x8, addend: 0x0, symName: __RNvXsg_NtNtCs6IAuOt8vWmF_3syn4expr8printingNtB7_7ExprLetNtNtCs2cqEZUIJimJ_5quote9to_tokens8ToTokens9to_tokens, symObjAddr: 0xB32C, symBinAddr: 0x6106C, symSize: 0x58 }
  - { offset: 0xEB357, size: 0x8, addend: 0x0, symName: __RNvXsh_NtNtCs6IAuOt8vWmF_3syn4expr8printingNtB7_7ExprLitNtNtCs2cqEZUIJimJ_5quote9to_tokens8ToTokens9to_tokens, symObjAddr: 0xB384, symBinAddr: 0x610C4, symSize: 0x54 }
  - { offset: 0xEB396, size: 0x8, addend: 0x0, symName: __RNvXsi_NtNtCs6IAuOt8vWmF_3syn4expr8printingNtB7_8ExprLoopNtNtCs2cqEZUIJimJ_5quote9to_tokens8ToTokens9to_tokens, symObjAddr: 0xB3D8, symBinAddr: 0x61118, symSize: 0x78 }
  - { offset: 0xEB3D5, size: 0x8, addend: 0x0, symName: __RNvXsj_NtNtCs6IAuOt8vWmF_3syn4expr8printingNtB7_9ExprMacroNtNtCs2cqEZUIJimJ_5quote9to_tokens8ToTokens9to_tokens, symObjAddr: 0xB450, symBinAddr: 0x61190, symSize: 0x54 }
  - { offset: 0xEB414, size: 0x8, addend: 0x0, symName: __RNvXsk_NtNtCs6IAuOt8vWmF_3syn4expr8printingNtB7_9ExprMatchNtNtCs2cqEZUIJimJ_5quote9to_tokens8ToTokens9to_tokens, symObjAddr: 0xB4A4, symBinAddr: 0x611E4, symSize: 0xAC }
  - { offset: 0xEB453, size: 0x8, addend: 0x0, symName: __RNvXsl_NtNtCs6IAuOt8vWmF_3syn4expr8printingNtB7_14ExprMethodCallNtNtCs2cqEZUIJimJ_5quote9to_tokens8ToTokens9to_tokens, symObjAddr: 0xB550, symBinAddr: 0x61290, symSize: 0x58 }
  - { offset: 0xEB492, size: 0x8, addend: 0x0, symName: __RNvXsm_NtNtCs6IAuOt8vWmF_3syn4expr8printingNtB7_9ExprParenNtNtCs2cqEZUIJimJ_5quote9to_tokens8ToTokens9to_tokens, symObjAddr: 0xB5A8, symBinAddr: 0x612E8, symSize: 0x58 }
  - { offset: 0xEB4D1, size: 0x8, addend: 0x0, symName: __RNvXsn_NtNtCs6IAuOt8vWmF_3syn4expr8printingNtB7_8ExprPathNtNtCs2cqEZUIJimJ_5quote9to_tokens8ToTokens9to_tokens, symObjAddr: 0xB600, symBinAddr: 0x61340, symSize: 0x64 }
  - { offset: 0xEB510, size: 0x8, addend: 0x0, symName: __RNvXso_NtNtCs6IAuOt8vWmF_3syn4expr8printingNtB7_9ExprRangeNtNtCs2cqEZUIJimJ_5quote9to_tokens8ToTokens9to_tokens, symObjAddr: 0xB664, symBinAddr: 0x613A4, symSize: 0x58 }
  - { offset: 0xEB54F, size: 0x8, addend: 0x0, symName: __RNvXsp_NtNtCs6IAuOt8vWmF_3syn4expr8printingNtB7_11ExprRawAddrNtNtCs2cqEZUIJimJ_5quote9to_tokens8ToTokens9to_tokens, symObjAddr: 0xB6BC, symBinAddr: 0x613FC, symSize: 0x58 }
  - { offset: 0xEB58E, size: 0x8, addend: 0x0, symName: __RNvXsq_NtNtCs6IAuOt8vWmF_3syn4expr8printingNtB7_13ExprReferenceNtNtCs2cqEZUIJimJ_5quote9to_tokens8ToTokens9to_tokens, symObjAddr: 0xB714, symBinAddr: 0x61454, symSize: 0x58 }
  - { offset: 0xEB5CD, size: 0x8, addend: 0x0, symName: __RNvXsr_NtNtCs6IAuOt8vWmF_3syn4expr8printingNtB7_10ExprRepeatNtNtCs2cqEZUIJimJ_5quote9to_tokens8ToTokens9to_tokens, symObjAddr: 0xB76C, symBinAddr: 0x614AC, symSize: 0x58 }
  - { offset: 0xEB60C, size: 0x8, addend: 0x0, symName: __RNvXss_NtNtCs6IAuOt8vWmF_3syn4expr8printingNtB7_10ExprReturnNtNtCs2cqEZUIJimJ_5quote9to_tokens8ToTokens9to_tokens, symObjAddr: 0xB7C4, symBinAddr: 0x61504, symSize: 0x58 }
  - { offset: 0xEB64B, size: 0x8, addend: 0x0, symName: __RNvXst_NtNtCs6IAuOt8vWmF_3syn4expr8printingNtB7_10ExprStructNtNtCs2cqEZUIJimJ_5quote9to_tokens8ToTokens9to_tokens, symObjAddr: 0xB81C, symBinAddr: 0x6155C, symSize: 0x78 }
  - { offset: 0xEB68A, size: 0x8, addend: 0x0, symName: __RNvXsu_NtNtCs6IAuOt8vWmF_3syn4expr8printingNtB7_7ExprTryNtNtCs2cqEZUIJimJ_5quote9to_tokens8ToTokens9to_tokens, symObjAddr: 0xB894, symBinAddr: 0x615D4, symSize: 0x58 }
  - { offset: 0xEB6C9, size: 0x8, addend: 0x0, symName: __RNvXsv_NtNtCs6IAuOt8vWmF_3syn4expr8printingNtB7_12ExprTryBlockNtNtCs2cqEZUIJimJ_5quote9to_tokens8ToTokens9to_tokens, symObjAddr: 0xB8EC, symBinAddr: 0x6162C, symSize: 0x64 }
  - { offset: 0xEB708, size: 0x8, addend: 0x0, symName: __RNvXsw_NtNtCs6IAuOt8vWmF_3syn4expr8printingNtB7_9ExprTupleNtNtCs2cqEZUIJimJ_5quote9to_tokens8ToTokens9to_tokens, symObjAddr: 0xB950, symBinAddr: 0x61690, symSize: 0x58 }
  - { offset: 0xEB747, size: 0x8, addend: 0x0, symName: __RNvXsx_NtNtCs6IAuOt8vWmF_3syn4expr8printingNtB7_9ExprUnaryNtNtCs2cqEZUIJimJ_5quote9to_tokens8ToTokens9to_tokens, symObjAddr: 0xB9A8, symBinAddr: 0x616E8, symSize: 0x58 }
  - { offset: 0xEB786, size: 0x8, addend: 0x0, symName: __RNvXsy_NtNtCs6IAuOt8vWmF_3syn4expr8printingNtB7_10ExprUnsafeNtNtCs2cqEZUIJimJ_5quote9to_tokens8ToTokens9to_tokens, symObjAddr: 0xBA00, symBinAddr: 0x61740, symSize: 0x68 }
  - { offset: 0xEB7C5, size: 0x8, addend: 0x0, symName: __RNvXsz_NtNtCs6IAuOt8vWmF_3syn4expr8printingNtB7_9ExprWhileNtNtCs2cqEZUIJimJ_5quote9to_tokens8ToTokens9to_tokens, symObjAddr: 0xBA68, symBinAddr: 0x617A8, symSize: 0xBC }
  - { offset: 0xEB804, size: 0x8, addend: 0x0, symName: __RNvXsA_NtNtCs6IAuOt8vWmF_3syn4expr8printingNtB7_9ExprYieldNtNtCs2cqEZUIJimJ_5quote9to_tokens8ToTokens9to_tokens, symObjAddr: 0xBB24, symBinAddr: 0x61864, symSize: 0x58 }
  - { offset: 0xEB843, size: 0x8, addend: 0x0, symName: __RNvXsB_NtNtCs6IAuOt8vWmF_3syn4expr8printingNtB7_3ArmNtNtCs2cqEZUIJimJ_5quote9to_tokens8ToTokens9to_tokens, symObjAddr: 0xBB7C, symBinAddr: 0x618BC, symSize: 0x128 }
  - { offset: 0xEB8B0, size: 0x8, addend: 0x0, symName: __RNvXsC_NtNtCs6IAuOt8vWmF_3syn4expr8printingNtB7_10FieldValueNtNtCs2cqEZUIJimJ_5quote9to_tokens8ToTokens9to_tokens, symObjAddr: 0xBCA4, symBinAddr: 0x619E4, symSize: 0xB0 }
  - { offset: 0xEB90D, size: 0x8, addend: 0x0, symName: __RNvXsD_NtNtCs6IAuOt8vWmF_3syn4expr8printingNtB7_5IndexNtNtCs2cqEZUIJimJ_5quote9to_tokens8ToTokens9to_tokens, symObjAddr: 0xBD54, symBinAddr: 0x61A94, symSize: 0xD4 }
  - { offset: 0xEB962, size: 0x8, addend: 0x0, symName: __RNvXsE_NtNtCs6IAuOt8vWmF_3syn4expr8printingNtB7_5LabelNtNtCs2cqEZUIJimJ_5quote9to_tokens8ToTokens9to_tokens, symObjAddr: 0xBE28, symBinAddr: 0x61B68, symSize: 0x50 }
  - { offset: 0xEB9A1, size: 0x8, addend: 0x0, symName: __RNvXsF_NtNtCs6IAuOt8vWmF_3syn4expr8printingNtB7_6MemberNtNtCs2cqEZUIJimJ_5quote9to_tokens8ToTokens9to_tokens, symObjAddr: 0xBE78, symBinAddr: 0x61BB8, symSize: 0x98 }
  - { offset: 0xEBA14, size: 0x8, addend: 0x0, symName: __RNvXsG_NtNtCs6IAuOt8vWmF_3syn4expr8printingNtB7_11RangeLimitsNtNtCs2cqEZUIJimJ_5quote9to_tokens8ToTokens9to_tokens, symObjAddr: 0xBF10, symBinAddr: 0x61C50, symSize: 0x94 }
  - { offset: 0xEBA87, size: 0x8, addend: 0x0, symName: __RNvXsH_NtNtCs6IAuOt8vWmF_3syn4expr8printingNtB7_17PointerMutabilityNtNtCs2cqEZUIJimJ_5quote9to_tokens8ToTokens9to_tokens, symObjAddr: 0xBFA4, symBinAddr: 0x61CE4, symSize: 0x94 }
  - { offset: 0xEBB00, size: 0x8, addend: 0x0, symName: __RNcNtNtNtCs6IAuOt8vWmF_3syn4expr4Expr5Async0B7_, symObjAddr: 0xC038, symBinAddr: 0x61D78, symSize: 0x3C }
  - { offset: 0xEBB2F, size: 0x8, addend: 0x0, symName: __RNcNtNtNtCs6IAuOt8vWmF_3syn4expr4Expr5Block0B7_, symObjAddr: 0xC074, symBinAddr: 0x61DB4, symSize: 0x3C }
  - { offset: 0xEBB5E, size: 0x8, addend: 0x0, symName: __RNcNtNtNtCs6IAuOt8vWmF_3syn4expr4Expr5Break0B7_, symObjAddr: 0xC0B0, symBinAddr: 0x61DF0, symSize: 0x3C }
  - { offset: 0xEBB8D, size: 0x8, addend: 0x0, symName: __RNcNtNtNtCs6IAuOt8vWmF_3syn4expr4Expr7Closure0B7_, symObjAddr: 0xC0EC, symBinAddr: 0x61E2C, symSize: 0x3C }
  - { offset: 0xEBBBC, size: 0x8, addend: 0x0, symName: __RNcNtNtNtCs6IAuOt8vWmF_3syn4expr4Expr5Const0B7_, symObjAddr: 0xC128, symBinAddr: 0x61E68, symSize: 0x3C }
  - { offset: 0xEBBEB, size: 0x8, addend: 0x0, symName: __RNcNtNtNtCs6IAuOt8vWmF_3syn4expr4Expr8Continue0B7_, symObjAddr: 0xC164, symBinAddr: 0x61EA4, symSize: 0x3C }
  - { offset: 0xEBC1A, size: 0x8, addend: 0x0, symName: __RNcNtNtNtCs6IAuOt8vWmF_3syn4expr4Expr7ForLoop0B7_, symObjAddr: 0xC1A0, symBinAddr: 0x61EE0, symSize: 0x3C }
  - { offset: 0xEBC49, size: 0x8, addend: 0x0, symName: __RNcNtNtNtCs6IAuOt8vWmF_3syn4expr4Expr2If0B7_, symObjAddr: 0xC1DC, symBinAddr: 0x61F1C, symSize: 0x3C }
  - { offset: 0xEBC78, size: 0x8, addend: 0x0, symName: __RNcNtNtNtCs6IAuOt8vWmF_3syn4expr4Expr5Infer0B7_, symObjAddr: 0xC218, symBinAddr: 0x61F58, symSize: 0x20 }
  - { offset: 0xEBCA6, size: 0x8, addend: 0x0, symName: __RNcNtNtNtCs6IAuOt8vWmF_3syn4expr4Expr3Let0B7_, symObjAddr: 0xC238, symBinAddr: 0x61F78, symSize: 0x3C }
  - { offset: 0xEBCD5, size: 0x8, addend: 0x0, symName: __RNcNtNtNtCs6IAuOt8vWmF_3syn4expr4Expr3Lit0B7_, symObjAddr: 0xC274, symBinAddr: 0x61FB4, symSize: 0x3C }
  - { offset: 0xEBD04, size: 0x8, addend: 0x0, symName: __RNcNtNtNtCs6IAuOt8vWmF_3syn4expr4Expr4Loop0B7_, symObjAddr: 0xC2B0, symBinAddr: 0x61FF0, symSize: 0x3C }
  - { offset: 0xEBD33, size: 0x8, addend: 0x0, symName: __RNcNtNtNtCs6IAuOt8vWmF_3syn4expr4Expr5Match0B7_, symObjAddr: 0xC2EC, symBinAddr: 0x6202C, symSize: 0x3C }
  - { offset: 0xEBD62, size: 0x8, addend: 0x0, symName: __RNcNtNtNtCs6IAuOt8vWmF_3syn4expr4Expr5Range0B7_, symObjAddr: 0xC328, symBinAddr: 0x62068, symSize: 0x3C }
  - { offset: 0xEBD91, size: 0x8, addend: 0x0, symName: __RNcNtNtNtCs6IAuOt8vWmF_3syn4expr4Expr6Return0B7_, symObjAddr: 0xC364, symBinAddr: 0x620A4, symSize: 0x3C }
  - { offset: 0xEBDC0, size: 0x8, addend: 0x0, symName: __RNcNtNtNtCs6IAuOt8vWmF_3syn4expr4Expr6Struct0B7_, symObjAddr: 0xC3A0, symBinAddr: 0x620E0, symSize: 0x3C }
  - { offset: 0xEBDEF, size: 0x8, addend: 0x0, symName: __RNcNtNtNtCs6IAuOt8vWmF_3syn4expr4Expr8TryBlock0B7_, symObjAddr: 0xC3DC, symBinAddr: 0x6211C, symSize: 0x3C }
  - { offset: 0xEBE1E, size: 0x8, addend: 0x0, symName: __RNcNtNtNtCs6IAuOt8vWmF_3syn4expr4Expr5Unary0B7_, symObjAddr: 0xC418, symBinAddr: 0x62158, symSize: 0x3C }
  - { offset: 0xEBE4D, size: 0x8, addend: 0x0, symName: __RNcNtNtNtCs6IAuOt8vWmF_3syn4expr4Expr6Unsafe0B7_, symObjAddr: 0xC454, symBinAddr: 0x62194, symSize: 0x3C }
  - { offset: 0xEBE7C, size: 0x8, addend: 0x0, symName: __RNcNtNtNtCs6IAuOt8vWmF_3syn4expr4Expr5While0B7_, symObjAddr: 0xC490, symBinAddr: 0x621D0, symSize: 0x3C }
  - { offset: 0xEBEAB, size: 0x8, addend: 0x0, symName: __RNcNtNtNtCs6IAuOt8vWmF_3syn4expr4Expr5Yield0B7_, symObjAddr: 0xC4CC, symBinAddr: 0x6220C, symSize: 0x3C }
  - { offset: 0xEBEDB, size: 0x8, addend: 0x0, symName: __RNvXsP_NtCs6IAuOt8vWmF_3syn4exprNtB5_4ExprNtNtCs2cqEZUIJimJ_5quote9to_tokens8ToTokens9to_tokens, symObjAddr: 0xD080, symBinAddr: 0x62248, symSize: 0x4CC }
  - { offset: 0xEC3C4, size: 0x8, addend: 0x0, symName: __RNcNtNtNtCs6IAuOt8vWmF_3syn4expr6Member5Named0B7_, symObjAddr: 0xD54C, symBinAddr: 0x62714, symSize: 0x18 }
  - { offset: 0xEC3F4, size: 0x8, addend: 0x0, symName: __RNcNtNtNtCs6IAuOt8vWmF_3syn4expr6Member7Unnamed0B7_, symObjAddr: 0xD564, symBinAddr: 0x6272C, symSize: 0x28 }
  - { offset: 0xEC42A, size: 0x8, addend: 0x0, symName: __RNcNtNtNtCs6IAuOt8vWmF_3syn4expr11RangeLimits8HalfOpen0B7_, symObjAddr: 0xD58C, symBinAddr: 0x62754, symSize: 0x24 }
  - { offset: 0xEC45A, size: 0x8, addend: 0x0, symName: __RNcNtNtNtCs6IAuOt8vWmF_3syn4expr11RangeLimits6Closed0B7_, symObjAddr: 0xD5B0, symBinAddr: 0x62778, symSize: 0x20 }
  - { offset: 0xEEE12, size: 0x8, addend: 0x0, symName: __RNvXs0_NtNtCs6IAuOt8vWmF_3syn3gen5cloneNtNtB9_4expr3ArmNtNtCsfvfooZQ3Axs_4core5clone5Clone5clone, symObjAddr: 0x105A0, symBinAddr: 0x62798, symSize: 0x1BC }
  - { offset: 0xEEE44, size: 0x8, addend: 0x0, symName: __RNvXsk_NtNtCs6IAuOt8vWmF_3syn3gen5cloneNtNtB9_4expr4ExprNtNtCsfvfooZQ3Axs_4core5clone5Clone5clone, symObjAddr: 0x1075C, symBinAddr: 0x62954, symSize: 0xE1C }
  - { offset: 0xEF339, size: 0x8, addend: 0x0, symName: __RNvXsl_NtNtCs6IAuOt8vWmF_3syn3gen5cloneNtNtB9_4expr9ExprArrayNtNtCsfvfooZQ3Axs_4core5clone5Clone5clone, symObjAddr: 0x11578, symBinAddr: 0x63770, symSize: 0xC8 }
  - { offset: 0xEF36D, size: 0x8, addend: 0x0, symName: __RNvXsm_NtNtCs6IAuOt8vWmF_3syn3gen5cloneNtNtB9_4expr10ExprAssignNtNtCsfvfooZQ3Axs_4core5clone5Clone5clone, symObjAddr: 0x11640, symBinAddr: 0x63838, symSize: 0x108 }
  - { offset: 0xEF3A1, size: 0x8, addend: 0x0, symName: __RNvXsn_NtNtCs6IAuOt8vWmF_3syn3gen5cloneNtNtB9_4expr9ExprAsyncNtNtCsfvfooZQ3Axs_4core5clone5Clone5clone, symObjAddr: 0x11748, symBinAddr: 0x63940, symSize: 0xEC }
  - { offset: 0xEF3D5, size: 0x8, addend: 0x0, symName: __RNvXso_NtNtCs6IAuOt8vWmF_3syn3gen5cloneNtNtB9_4expr9ExprAwaitNtNtCsfvfooZQ3Axs_4core5clone5Clone5clone, symObjAddr: 0x11834, symBinAddr: 0x63A2C, symSize: 0x108 }
  - { offset: 0xEF409, size: 0x8, addend: 0x0, symName: __RNvXsp_NtNtCs6IAuOt8vWmF_3syn3gen5cloneNtNtB9_4expr10ExprBinaryNtNtCsfvfooZQ3Axs_4core5clone5Clone5clone, symObjAddr: 0x1193C, symBinAddr: 0x63B34, symSize: 0xF8 }
  - { offset: 0xEF43D, size: 0x8, addend: 0x0, symName: __RNvXsq_NtNtCs6IAuOt8vWmF_3syn3gen5cloneNtNtB9_4expr9ExprBlockNtNtCsfvfooZQ3Axs_4core5clone5Clone5clone, symObjAddr: 0x11A34, symBinAddr: 0x63C2C, symSize: 0xF0 }
  - { offset: 0xEF471, size: 0x8, addend: 0x0, symName: __RNvXsr_NtNtCs6IAuOt8vWmF_3syn3gen5cloneNtNtB9_4expr9ExprBreakNtNtCsfvfooZQ3Axs_4core5clone5Clone5clone, symObjAddr: 0x11B24, symBinAddr: 0x63D1C, symSize: 0xF8 }
  - { offset: 0xEF4A5, size: 0x8, addend: 0x0, symName: __RNvXss_NtNtCs6IAuOt8vWmF_3syn3gen5cloneNtNtB9_4expr8ExprCallNtNtCsfvfooZQ3Axs_4core5clone5Clone5clone, symObjAddr: 0x11C1C, symBinAddr: 0x63E14, symSize: 0x108 }
  - { offset: 0xEF4D9, size: 0x8, addend: 0x0, symName: __RNvXst_NtNtCs6IAuOt8vWmF_3syn3gen5cloneNtNtB9_4expr8ExprCastNtNtCsfvfooZQ3Axs_4core5clone5Clone5clone, symObjAddr: 0x11D24, symBinAddr: 0x63F1C, symSize: 0xF8 }
  - { offset: 0xEF50D, size: 0x8, addend: 0x0, symName: __RNvXsu_NtNtCs6IAuOt8vWmF_3syn3gen5cloneNtNtB9_4expr11ExprClosureNtNtCsfvfooZQ3Axs_4core5clone5Clone5clone, symObjAddr: 0x11E1C, symBinAddr: 0x64014, symSize: 0x25C }
  - { offset: 0xEF541, size: 0x8, addend: 0x0, symName: __RNvXsv_NtNtCs6IAuOt8vWmF_3syn3gen5cloneNtNtB9_4expr9ExprConstNtNtCsfvfooZQ3Axs_4core5clone5Clone5clone, symObjAddr: 0x12078, symBinAddr: 0x64270, symSize: 0xC4 }
  - { offset: 0xEF575, size: 0x8, addend: 0x0, symName: __RNvXsw_NtNtCs6IAuOt8vWmF_3syn3gen5cloneNtNtB9_4expr12ExprContinueNtNtCsfvfooZQ3Axs_4core5clone5Clone5clone, symObjAddr: 0x1213C, symBinAddr: 0x64334, symSize: 0xC0 }
  - { offset: 0xEF5A9, size: 0x8, addend: 0x0, symName: __RNvXsx_NtNtCs6IAuOt8vWmF_3syn3gen5cloneNtNtB9_4expr9ExprFieldNtNtCsfvfooZQ3Axs_4core5clone5Clone5clone, symObjAddr: 0x121FC, symBinAddr: 0x643F4, symSize: 0x110 }
  - { offset: 0xEF5DD, size: 0x8, addend: 0x0, symName: __RNvXsy_NtNtCs6IAuOt8vWmF_3syn3gen5cloneNtNtB9_4expr11ExprForLoopNtNtCsfvfooZQ3Axs_4core5clone5Clone5clone, symObjAddr: 0x1230C, symBinAddr: 0x64504, symSize: 0x1A8 }
  - { offset: 0xEF611, size: 0x8, addend: 0x0, symName: __RNvXsz_NtNtCs6IAuOt8vWmF_3syn3gen5cloneNtNtB9_4expr9ExprGroupNtNtCsfvfooZQ3Axs_4core5clone5Clone5clone, symObjAddr: 0x124B4, symBinAddr: 0x646AC, symSize: 0xB8 }
  - { offset: 0xEF645, size: 0x8, addend: 0x0, symName: __RNvXsA_NtNtCs6IAuOt8vWmF_3syn3gen5cloneNtNtB9_4expr6ExprIfNtNtCsfvfooZQ3Axs_4core5clone5Clone5clone, symObjAddr: 0x1256C, symBinAddr: 0x64764, symSize: 0x14C }
  - { offset: 0xEF679, size: 0x8, addend: 0x0, symName: __RNvXsB_NtNtCs6IAuOt8vWmF_3syn3gen5cloneNtNtB9_4expr9ExprIndexNtNtCsfvfooZQ3Axs_4core5clone5Clone5clone, symObjAddr: 0x126B8, symBinAddr: 0x648B0, symSize: 0x100 }
  - { offset: 0xEF6AD, size: 0x8, addend: 0x0, symName: __RNvXsC_NtNtCs6IAuOt8vWmF_3syn3gen5cloneNtNtB9_4expr9ExprInferNtNtCsfvfooZQ3Axs_4core5clone5Clone5clone, symObjAddr: 0x127B8, symBinAddr: 0x649B0, symSize: 0xAC }
  - { offset: 0xEF6E1, size: 0x8, addend: 0x0, symName: __RNvXsD_NtNtCs6IAuOt8vWmF_3syn3gen5cloneNtNtB9_4expr7ExprLetNtNtCsfvfooZQ3Axs_4core5clone5Clone5clone, symObjAddr: 0x12864, symBinAddr: 0x64A5C, symSize: 0x124 }
  - { offset: 0xEF715, size: 0x8, addend: 0x0, symName: __RNvXsE_NtNtCs6IAuOt8vWmF_3syn3gen5cloneNtNtB9_4expr7ExprLitNtNtCsfvfooZQ3Axs_4core5clone5Clone5clone, symObjAddr: 0x12988, symBinAddr: 0x64B80, symSize: 0xA4 }
  - { offset: 0xEF749, size: 0x8, addend: 0x0, symName: __RNvXsF_NtNtCs6IAuOt8vWmF_3syn3gen5cloneNtNtB9_4expr8ExprLoopNtNtCsfvfooZQ3Axs_4core5clone5Clone5clone, symObjAddr: 0x12A2C, symBinAddr: 0x64C24, symSize: 0x10C }
  - { offset: 0xEF77D, size: 0x8, addend: 0x0, symName: __RNvXsG_NtNtCs6IAuOt8vWmF_3syn3gen5cloneNtNtB9_4expr9ExprMacroNtNtCsfvfooZQ3Axs_4core5clone5Clone5clone, symObjAddr: 0x12B38, symBinAddr: 0x64D30, symSize: 0xA8 }
  - { offset: 0xEF7B1, size: 0x8, addend: 0x0, symName: __RNvXsH_NtNtCs6IAuOt8vWmF_3syn3gen5cloneNtNtB9_4expr9ExprMatchNtNtCsfvfooZQ3Axs_4core5clone5Clone5clone, symObjAddr: 0x12BE0, symBinAddr: 0x64DD8, symSize: 0x12C }
  - { offset: 0xEF7E5, size: 0x8, addend: 0x0, symName: __RNvXsI_NtNtCs6IAuOt8vWmF_3syn3gen5cloneNtNtB9_4expr14ExprMethodCallNtNtCsfvfooZQ3Axs_4core5clone5Clone5clone, symObjAddr: 0x12D0C, symBinAddr: 0x64F04, symSize: 0x1D0 }
  - { offset: 0xEF819, size: 0x8, addend: 0x0, symName: __RNvXsJ_NtNtCs6IAuOt8vWmF_3syn3gen5cloneNtNtB9_4expr9ExprParenNtNtCsfvfooZQ3Axs_4core5clone5Clone5clone, symObjAddr: 0x12EDC, symBinAddr: 0x650D4, symSize: 0xC0 }
  - { offset: 0xEF84D, size: 0x8, addend: 0x0, symName: __RNvXsK_NtNtCs6IAuOt8vWmF_3syn3gen5cloneNtNtB9_4expr8ExprPathNtNtCsfvfooZQ3Axs_4core5clone5Clone5clone, symObjAddr: 0x12F9C, symBinAddr: 0x65194, symSize: 0xE8 }
  - { offset: 0xEF881, size: 0x8, addend: 0x0, symName: __RNvXsL_NtNtCs6IAuOt8vWmF_3syn3gen5cloneNtNtB9_4expr9ExprRangeNtNtCsfvfooZQ3Axs_4core5clone5Clone5clone, symObjAddr: 0x13084, symBinAddr: 0x6527C, symSize: 0xF8 }
  - { offset: 0xEF8B5, size: 0x8, addend: 0x0, symName: __RNvXsM_NtNtCs6IAuOt8vWmF_3syn3gen5cloneNtNtB9_4expr11ExprRawAddrNtNtCsfvfooZQ3Axs_4core5clone5Clone5clone, symObjAddr: 0x1317C, symBinAddr: 0x65374, symSize: 0x10C }
  - { offset: 0xEF8E9, size: 0x8, addend: 0x0, symName: __RNvXsN_NtNtCs6IAuOt8vWmF_3syn3gen5cloneNtNtB9_4expr13ExprReferenceNtNtCsfvfooZQ3Axs_4core5clone5Clone5clone, symObjAddr: 0x13288, symBinAddr: 0x65480, symSize: 0xF0 }
  - { offset: 0xEF91D, size: 0x8, addend: 0x0, symName: __RNvXsO_NtNtCs6IAuOt8vWmF_3syn3gen5cloneNtNtB9_4expr10ExprRepeatNtNtCsfvfooZQ3Axs_4core5clone5Clone5clone, symObjAddr: 0x13378, symBinAddr: 0x65570, symSize: 0x12C }
  - { offset: 0xEF951, size: 0x8, addend: 0x0, symName: __RNvXsP_NtNtCs6IAuOt8vWmF_3syn3gen5cloneNtNtB9_4expr10ExprReturnNtNtCsfvfooZQ3Axs_4core5clone5Clone5clone, symObjAddr: 0x134A4, symBinAddr: 0x6569C, symSize: 0xB8 }
  - { offset: 0xEF985, size: 0x8, addend: 0x0, symName: __RNvXsQ_NtNtCs6IAuOt8vWmF_3syn3gen5cloneNtNtB9_4expr10ExprStructNtNtCsfvfooZQ3Axs_4core5clone5Clone5clone, symObjAddr: 0x1355C, symBinAddr: 0x65754, symSize: 0x1B8 }
  - { offset: 0xEF9B9, size: 0x8, addend: 0x0, symName: __RNvXsR_NtNtCs6IAuOt8vWmF_3syn3gen5cloneNtNtB9_4expr7ExprTryNtNtCsfvfooZQ3Axs_4core5clone5Clone5clone, symObjAddr: 0x13714, symBinAddr: 0x6590C, symSize: 0xEC }
  - { offset: 0xEF9ED, size: 0x8, addend: 0x0, symName: __RNvXsS_NtNtCs6IAuOt8vWmF_3syn3gen5cloneNtNtB9_4expr12ExprTryBlockNtNtCsfvfooZQ3Axs_4core5clone5Clone5clone, symObjAddr: 0x13800, symBinAddr: 0x659F8, symSize: 0xC4 }
  - { offset: 0xEFA21, size: 0x8, addend: 0x0, symName: __RNvXsT_NtNtCs6IAuOt8vWmF_3syn3gen5cloneNtNtB9_4expr9ExprTupleNtNtCsfvfooZQ3Axs_4core5clone5Clone5clone, symObjAddr: 0x138C4, symBinAddr: 0x65ABC, symSize: 0xC8 }
  - { offset: 0xEFA55, size: 0x8, addend: 0x0, symName: __RNvXsU_NtNtCs6IAuOt8vWmF_3syn3gen5cloneNtNtB9_4expr9ExprUnaryNtNtCsfvfooZQ3Axs_4core5clone5Clone5clone, symObjAddr: 0x1398C, symBinAddr: 0x65B84, symSize: 0xC8 }
  - { offset: 0xEFA89, size: 0x8, addend: 0x0, symName: __RNvXsV_NtNtCs6IAuOt8vWmF_3syn3gen5cloneNtNtB9_4expr10ExprUnsafeNtNtCsfvfooZQ3Axs_4core5clone5Clone5clone, symObjAddr: 0x13A54, symBinAddr: 0x65C4C, symSize: 0xC4 }
  - { offset: 0xEFABD, size: 0x8, addend: 0x0, symName: __RNvXsW_NtNtCs6IAuOt8vWmF_3syn3gen5cloneNtNtB9_4expr9ExprWhileNtNtCsfvfooZQ3Axs_4core5clone5Clone5clone, symObjAddr: 0x13B18, symBinAddr: 0x65D10, symSize: 0x14C }
  - { offset: 0xEFAF1, size: 0x8, addend: 0x0, symName: __RNvXsX_NtNtCs6IAuOt8vWmF_3syn3gen5cloneNtNtB9_4expr9ExprYieldNtNtCsfvfooZQ3Axs_4core5clone5Clone5clone, symObjAddr: 0x13C64, symBinAddr: 0x65E5C, symSize: 0xB8 }
  - { offset: 0xEFB25, size: 0x8, addend: 0x0, symName: __RNvXs11_NtNtCs6IAuOt8vWmF_3syn3gen5cloneNtNtBa_4expr10FieldValueNtNtCsfvfooZQ3Axs_4core5clone5Clone5clone, symObjAddr: 0x13D1C, symBinAddr: 0x65F14, symSize: 0x118 }
  - { offset: 0xEFB59, size: 0x8, addend: 0x0, symName: __RNvXs1l_NtNtCs6IAuOt8vWmF_3syn3gen5cloneNtNtBa_4expr5IndexNtNtCsfvfooZQ3Axs_4core5clone5Clone5clone, symObjAddr: 0x13E34, symBinAddr: 0x6602C, symSize: 0x48 }
  - { offset: 0xEFB8D, size: 0x8, addend: 0x0, symName: __RNvXs1C_NtNtCs6IAuOt8vWmF_3syn3gen5cloneNtNtBa_4expr5LabelNtNtCsfvfooZQ3Axs_4core5clone5Clone5clone, symObjAddr: 0x13E7C, symBinAddr: 0x66074, symSize: 0xA4 }
  - { offset: 0xEFBC1, size: 0x8, addend: 0x0, symName: __RNvXs1K_NtNtCs6IAuOt8vWmF_3syn3gen5cloneNtNtBa_4expr6MemberNtNtCsfvfooZQ3Axs_4core5clone5Clone5clone, symObjAddr: 0x13F20, symBinAddr: 0x66118, symSize: 0xB8 }
  - { offset: 0xEFC29, size: 0x8, addend: 0x0, symName: __RNvXs24_NtNtCs6IAuOt8vWmF_3syn3gen5cloneNtNtBa_4expr17PointerMutabilityNtNtCsfvfooZQ3Axs_4core5clone5Clone5clone, symObjAddr: 0x13FD8, symBinAddr: 0x661D0, symSize: 0xA0 }
  - { offset: 0xEFC91, size: 0x8, addend: 0x0, symName: __RNvXs2a_NtNtCs6IAuOt8vWmF_3syn3gen5cloneNtNtBa_4expr11RangeLimitsNtNtCsfvfooZQ3Axs_4core5clone5Clone5clone, symObjAddr: 0x14078, symBinAddr: 0x66270, symSize: 0x2C }
  - { offset: 0xEFCCB, size: 0x8, addend: 0x0, symName: __RNvXs1_NtNtCs6IAuOt8vWmF_3syn3gen5debugNtNtB9_4expr3ArmNtNtCsfvfooZQ3Axs_4core3fmt5Debug3fmt, symObjAddr: 0x140A4, symBinAddr: 0x6629C, symSize: 0x14C }
  - { offset: 0xEFD28, size: 0x8, addend: 0x0, symName: __RNvXsm_NtNtCs6IAuOt8vWmF_3syn3gen5debugNtNtB9_4expr4ExprNtNtCsfvfooZQ3Axs_4core3fmt5Debug3fmt, symObjAddr: 0x141F0, symBinAddr: 0x663E8, symSize: 0xC00 }
  - { offset: 0xF0275, size: 0x8, addend: 0x0, symName: __RNvXs1G_NtNtCs6IAuOt8vWmF_3syn3gen5debugNtNtBa_4expr10FieldValueNtNtCsfvfooZQ3Axs_4core3fmt5Debug3fmt, symObjAddr: 0x18160, symBinAddr: 0x697C4, symSize: 0x100 }
  - { offset: 0xF02D6, size: 0x8, addend: 0x0, symName: __RNvXs2a_NtNtCs6IAuOt8vWmF_3syn3gen5debugNtNtBa_4expr5IndexNtNtCsfvfooZQ3Axs_4core3fmt5Debug3fmt, symObjAddr: 0x18260, symBinAddr: 0x698C4, symSize: 0xB0 }
  - { offset: 0xF0337, size: 0x8, addend: 0x0, symName: __RNvXs2G_NtNtCs6IAuOt8vWmF_3syn3gen5debugNtNtBa_4expr5LabelNtNtCsfvfooZQ3Axs_4core3fmt5Debug3fmt, symObjAddr: 0x18310, symBinAddr: 0x69974, symSize: 0xB0 }
  - { offset: 0xF0398, size: 0x8, addend: 0x0, symName: __RNvXs2Q_NtNtCs6IAuOt8vWmF_3syn3gen5debugNtNtBa_4expr6MemberNtNtCsfvfooZQ3Axs_4core3fmt5Debug3fmt, symObjAddr: 0x183C0, symBinAddr: 0x69A24, symSize: 0x164 }
  - { offset: 0xF046A, size: 0x8, addend: 0x0, symName: __RNvXs3p_NtNtCs6IAuOt8vWmF_3syn3gen5debugNtNtBa_4expr17PointerMutabilityNtNtCsfvfooZQ3Axs_4core3fmt5Debug3fmt, symObjAddr: 0x18524, symBinAddr: 0x69B88, symSize: 0x168 }
  - { offset: 0xF053B, size: 0x8, addend: 0x0, symName: __RNvXs3u_NtNtCs6IAuOt8vWmF_3syn3gen5debugNtNtBa_4expr11RangeLimitsNtNtCsfvfooZQ3Axs_4core3fmt5Debug3fmt, symObjAddr: 0x1868C, symBinAddr: 0x69CF0, symSize: 0x168 }
  - { offset: 0xF37FA, size: 0x8, addend: 0x0, symName: __RNvXs1a_NtCsfvfooZQ3Axs_4core3fmtRNtNtCs6IAuOt8vWmF_3syn4expr3ArmNtB6_5Debug3fmtBA_, symObjAddr: 0xBD4, symBinAddr: 0x595E8, symSize: 0x30 }
  - { offset: 0xF3840, size: 0x8, addend: 0x0, symName: __RNvXs1a_NtCsfvfooZQ3Axs_4core3fmtRNtNtCs6IAuOt8vWmF_3syn4expr4ExprNtB6_5Debug3fmtBA_, symObjAddr: 0xC04, symBinAddr: 0x59618, symSize: 0x30 }
  - { offset: 0xF3886, size: 0x8, addend: 0x0, symName: __RNvXs1a_NtCsfvfooZQ3Axs_4core3fmtRNtNtCs6IAuOt8vWmF_3syn4expr5LabelNtB6_5Debug3fmtBA_, symObjAddr: 0xC34, symBinAddr: 0x59648, symSize: 0x30 }
  - { offset: 0xF38D2, size: 0x8, addend: 0x0, symName: __RNvXsr_NtCsfvfooZQ3Axs_4core3fmtSNtNtCs6IAuOt8vWmF_3syn4expr3ArmNtB5_5Debug3fmtBz_, symObjAddr: 0x19F4, symBinAddr: 0x59678, symSize: 0x90 }
  - { offset: 0xF3FB1, size: 0x8, addend: 0x0, symName: __RNvMNtCsfvfooZQ3Axs_4core5sliceSNtNtCs6IAuOt8vWmF_3syn4expr3Arm4iterBy_, symObjAddr: 0xA44, symBinAddr: 0x59458, symSize: 0x28 }
  - { offset: 0xF3FE8, size: 0x8, addend: 0x0, symName: __RNvMNtCsfvfooZQ3Axs_4core5sliceSTNtNtCs6IAuOt8vWmF_3syn4expr10FieldValueNtNtBz_5token5CommaE4iterBz_, symObjAddr: 0xA6C, symBinAddr: 0x59480, symSize: 0x28 }
  - { offset: 0xF401F, size: 0x8, addend: 0x0, symName: __RNvMNtCsfvfooZQ3Axs_4core5sliceSTNtNtCs6IAuOt8vWmF_3syn4expr4ExprNtNtBz_5token5CommaE4iterBz_, symObjAddr: 0xA94, symBinAddr: 0x594A8, symSize: 0x28 }
  - { offset: 0xF43FA, size: 0x8, addend: 0x0, symName: __RNvXNtNtCsfvfooZQ3Axs_4core5clone6uninitNtNtCs6IAuOt8vWmF_3syn4expr10FieldValueNtB2_8CopySpec9clone_oneBG_, symObjAddr: 0xB3C, symBinAddr: 0x59550, symSize: 0x50 }
  - { offset: 0xF445E, size: 0x8, addend: 0x0, symName: __RNvXNtNtCsfvfooZQ3Axs_4core5clone6uninitNtNtCs6IAuOt8vWmF_3syn4expr4ExprNtB2_8CopySpec9clone_oneBG_, symObjAddr: 0xB8C, symBinAddr: 0x595A0, symSize: 0x48 }
  - { offset: 0xF6354, size: 0x8, addend: 0x0, symName: __RNvXNtCs2cqEZUIJimJ_5quote9to_tokensRNtNtCs6IAuOt8vWmF_3syn4expr10FieldValueNtB2_8ToTokens9to_tokensBD_, symObjAddr: 0xABC, symBinAddr: 0x594D0, symSize: 0x40 }
  - { offset: 0xF6393, size: 0x8, addend: 0x0, symName: __RNvXNtCs2cqEZUIJimJ_5quote9to_tokensRNtNtCs6IAuOt8vWmF_3syn4expr4ExprNtB2_8ToTokens9to_tokensBD_, symObjAddr: 0xAFC, symBinAddr: 0x59510, symSize: 0x40 }
  - { offset: 0xF64ED, size: 0x8, addend: 0x0, symName: __RNvMNtCs6IAuOt8vWmF_3syn4exprNtB2_4Expr25parse_without_eager_brace, symObjAddr: 0x1C04, symBinAddr: 0x59708, symSize: 0x3C }
  - { offset: 0xF6510, size: 0x8, addend: 0x0, symName: __RNvMNtCs6IAuOt8vWmF_3syn4exprNtB2_4Expr32parse_with_earlier_boundary_rule, symObjAddr: 0x1C40, symBinAddr: 0x59744, symSize: 0x34 }
  - { offset: 0xF6533, size: 0x8, addend: 0x0, symName: __RNvMNtCs6IAuOt8vWmF_3syn4exprNtB2_4Expr4peek, symObjAddr: 0x1C74, symBinAddr: 0x59778, symSize: 0x408 }
  - { offset: 0xF6563, size: 0x8, addend: 0x0, symName: __RNvMNtCs6IAuOt8vWmF_3syn4exprNtB2_4Expr13replace_attrs, symObjAddr: 0x207C, symBinAddr: 0x59B80, symSize: 0x678 }
  - { offset: 0xF65B9, size: 0x8, addend: 0x0, symName: __RNvMs6_NtCs6IAuOt8vWmF_3syn4exprNtB5_6Member8is_named, symObjAddr: 0x2A04, symBinAddr: 0x5A1F8, symSize: 0x6C }
  - { offset: 0xF6614, size: 0x8, addend: 0x0, symName: __RNvMsv_NtNtCs6IAuOt8vWmF_3syn4expr7parsingNtB7_11RangeLimits14parse_obsolete, symObjAddr: 0x9428, symBinAddr: 0x5F420, symSize: 0x334 }
  - { offset: 0xF66C7, size: 0x8, addend: 0x0, symName: __RNvMsy_NtNtCs6IAuOt8vWmF_3syn4expr7parsingNtB7_3Arm14parse_multiple, symObjAddr: 0x9A90, symBinAddr: 0x5FA88, symSize: 0x1C4 }
  - { offset: 0xF6781, size: 0x8, addend: 0x0, symName: __RNvMso_NtNtCs6IAuOt8vWmF_3syn3gen5debugNtNtB9_4expr9ExprArray5debug, symObjAddr: 0x14E3C, symBinAddr: 0x66FE8, symSize: 0xDC }
  - { offset: 0xF67ED, size: 0x8, addend: 0x0, symName: __RNvMsq_NtNtCs6IAuOt8vWmF_3syn3gen5debugNtNtB9_4expr10ExprAssign5debug, symObjAddr: 0x14F64, symBinAddr: 0x670C4, symSize: 0x104 }
  - { offset: 0xF6859, size: 0x8, addend: 0x0, symName: __RNvMss_NtNtCs6IAuOt8vWmF_3syn3gen5debugNtNtB9_4expr9ExprAsync5debug, symObjAddr: 0x150B4, symBinAddr: 0x671C8, symSize: 0x104 }
  - { offset: 0xF68C5, size: 0x8, addend: 0x0, symName: __RNvMsu_NtNtCs6IAuOt8vWmF_3syn3gen5debugNtNtB9_4expr9ExprAwait5debug, symObjAddr: 0x15204, symBinAddr: 0x672CC, symSize: 0x104 }
  - { offset: 0xF6931, size: 0x8, addend: 0x0, symName: __RNvMsw_NtNtCs6IAuOt8vWmF_3syn3gen5debugNtNtB9_4expr10ExprBinary5debug, symObjAddr: 0x15354, symBinAddr: 0x673D0, symSize: 0x104 }
  - { offset: 0xF699D, size: 0x8, addend: 0x0, symName: __RNvMsy_NtNtCs6IAuOt8vWmF_3syn3gen5debugNtNtB9_4expr9ExprBlock5debug, symObjAddr: 0x154A4, symBinAddr: 0x674D4, symSize: 0xD8 }
  - { offset: 0xF6A09, size: 0x8, addend: 0x0, symName: __RNvMsA_NtNtCs6IAuOt8vWmF_3syn3gen5debugNtNtB9_4expr9ExprBreak5debug, symObjAddr: 0x155C8, symBinAddr: 0x675AC, symSize: 0x104 }
  - { offset: 0xF6A75, size: 0x8, addend: 0x0, symName: __RNvMsC_NtNtCs6IAuOt8vWmF_3syn3gen5debugNtNtB9_4expr8ExprCall5debug, symObjAddr: 0x15718, symBinAddr: 0x676B0, symSize: 0x104 }
  - { offset: 0xF6AE1, size: 0x8, addend: 0x0, symName: __RNvMsE_NtNtCs6IAuOt8vWmF_3syn3gen5debugNtNtB9_4expr8ExprCast5debug, symObjAddr: 0x15868, symBinAddr: 0x677B4, symSize: 0x104 }
  - { offset: 0xF6B4D, size: 0x8, addend: 0x0, symName: __RNvMsG_NtNtCs6IAuOt8vWmF_3syn3gen5debugNtNtB9_4expr11ExprClosure5debug, symObjAddr: 0x159B8, symBinAddr: 0x678B8, symSize: 0x210 }
  - { offset: 0xF6BB9, size: 0x8, addend: 0x0, symName: __RNvMsI_NtNtCs6IAuOt8vWmF_3syn3gen5debugNtNtB9_4expr9ExprConst5debug, symObjAddr: 0x15C14, symBinAddr: 0x67AC8, symSize: 0xDC }
  - { offset: 0xF6C25, size: 0x8, addend: 0x0, symName: __RNvMsK_NtNtCs6IAuOt8vWmF_3syn3gen5debugNtNtB9_4expr12ExprContinue5debug, symObjAddr: 0x15D3C, symBinAddr: 0x67BA4, symSize: 0xDC }
  - { offset: 0xF6C91, size: 0x8, addend: 0x0, symName: __RNvMsM_NtNtCs6IAuOt8vWmF_3syn3gen5debugNtNtB9_4expr9ExprField5debug, symObjAddr: 0x15E64, symBinAddr: 0x67C80, symSize: 0x104 }
  - { offset: 0xF6CFD, size: 0x8, addend: 0x0, symName: __RNvMsO_NtNtCs6IAuOt8vWmF_3syn3gen5debugNtNtB9_4expr11ExprForLoop5debug, symObjAddr: 0x15FB4, symBinAddr: 0x67D84, symSize: 0x17C }
  - { offset: 0xF6D69, size: 0x8, addend: 0x0, symName: __RNvMsQ_NtNtCs6IAuOt8vWmF_3syn3gen5debugNtNtB9_4expr9ExprGroup5debug, symObjAddr: 0x1617C, symBinAddr: 0x67F00, symSize: 0xDC }
  - { offset: 0xF6DD5, size: 0x8, addend: 0x0, symName: __RNvMsS_NtNtCs6IAuOt8vWmF_3syn3gen5debugNtNtB9_4expr6ExprIf5debug, symObjAddr: 0x162A4, symBinAddr: 0x67FDC, symSize: 0x12C }
  - { offset: 0xF6E41, size: 0x8, addend: 0x0, symName: __RNvMsU_NtNtCs6IAuOt8vWmF_3syn3gen5debugNtNtB9_4expr9ExprIndex5debug, symObjAddr: 0x1641C, symBinAddr: 0x68108, symSize: 0x104 }
  - { offset: 0xF6EAD, size: 0x8, addend: 0x0, symName: __RNvMsW_NtNtCs6IAuOt8vWmF_3syn3gen5debugNtNtB9_4expr9ExprInfer5debug, symObjAddr: 0x1656C, symBinAddr: 0x6820C, symSize: 0xB4 }
  - { offset: 0xF6F19, size: 0x8, addend: 0x0, symName: __RNvMsY_NtNtCs6IAuOt8vWmF_3syn3gen5debugNtNtB9_4expr7ExprLet5debug, symObjAddr: 0x1666C, symBinAddr: 0x682C0, symSize: 0x12C }
  - { offset: 0xF6F85, size: 0x8, addend: 0x0, symName: __RNvMs10_NtNtCs6IAuOt8vWmF_3syn3gen5debugNtNtBa_4expr7ExprLit5debug, symObjAddr: 0x167E4, symBinAddr: 0x683EC, symSize: 0xB4 }
  - { offset: 0xF6FF1, size: 0x8, addend: 0x0, symName: __RNvMs12_NtNtCs6IAuOt8vWmF_3syn3gen5debugNtNtBa_4expr8ExprLoop5debug, symObjAddr: 0x168E4, symBinAddr: 0x684A0, symSize: 0x104 }
  - { offset: 0xF705D, size: 0x8, addend: 0x0, symName: __RNvMs14_NtNtCs6IAuOt8vWmF_3syn3gen5debugNtNtBa_4expr9ExprMacro5debug, symObjAddr: 0x16A34, symBinAddr: 0x685A4, symSize: 0xB4 }
  - { offset: 0xF70C9, size: 0x8, addend: 0x0, symName: __RNvMs16_NtNtCs6IAuOt8vWmF_3syn3gen5debugNtNtBa_4expr9ExprMatch5debug, symObjAddr: 0x16B34, symBinAddr: 0x68658, symSize: 0x12C }
  - { offset: 0xF7135, size: 0x8, addend: 0x0, symName: __RNvMs18_NtNtCs6IAuOt8vWmF_3syn3gen5debugNtNtBa_4expr14ExprMethodCall5debug, symObjAddr: 0x16CAC, symBinAddr: 0x68784, symSize: 0x17C }
  - { offset: 0xF71A1, size: 0x8, addend: 0x0, symName: __RNvMs1a_NtNtCs6IAuOt8vWmF_3syn3gen5debugNtNtBa_4expr9ExprParen5debug, symObjAddr: 0x16E74, symBinAddr: 0x68900, symSize: 0xDC }
  - { offset: 0xF720D, size: 0x8, addend: 0x0, symName: __RNvMs1c_NtNtCs6IAuOt8vWmF_3syn3gen5debugNtNtBa_4expr8ExprPath5debug, symObjAddr: 0x16F9C, symBinAddr: 0x689DC, symSize: 0xDC }
  - { offset: 0xF7279, size: 0x8, addend: 0x0, symName: __RNvMs1e_NtNtCs6IAuOt8vWmF_3syn3gen5debugNtNtBa_4expr9ExprRange5debug, symObjAddr: 0x170C4, symBinAddr: 0x68AB8, symSize: 0x104 }
  - { offset: 0xF72E5, size: 0x8, addend: 0x0, symName: __RNvMs1g_NtNtCs6IAuOt8vWmF_3syn3gen5debugNtNtBa_4expr11ExprRawAddr5debug, symObjAddr: 0x17214, symBinAddr: 0x68BBC, symSize: 0x12C }
  - { offset: 0xF7351, size: 0x8, addend: 0x0, symName: __RNvMs1i_NtNtCs6IAuOt8vWmF_3syn3gen5debugNtNtBa_4expr13ExprReference5debug, symObjAddr: 0x1738C, symBinAddr: 0x68CE8, symSize: 0x104 }
  - { offset: 0xF73BD, size: 0x8, addend: 0x0, symName: __RNvMs1k_NtNtCs6IAuOt8vWmF_3syn3gen5debugNtNtBa_4expr10ExprRepeat5debug, symObjAddr: 0x174DC, symBinAddr: 0x68DEC, symSize: 0x12C }
  - { offset: 0xF7429, size: 0x8, addend: 0x0, symName: __RNvMs1m_NtNtCs6IAuOt8vWmF_3syn3gen5debugNtNtBa_4expr10ExprReturn5debug, symObjAddr: 0x17654, symBinAddr: 0x68F18, symSize: 0xDC }
  - { offset: 0xF7495, size: 0x8, addend: 0x0, symName: __RNvMs1o_NtNtCs6IAuOt8vWmF_3syn3gen5debugNtNtBa_4expr10ExprStruct5debug, symObjAddr: 0x1777C, symBinAddr: 0x68FF4, symSize: 0x17C }
  - { offset: 0xF7501, size: 0x8, addend: 0x0, symName: __RNvMs1q_NtNtCs6IAuOt8vWmF_3syn3gen5debugNtNtBa_4expr7ExprTry5debug, symObjAddr: 0x17944, symBinAddr: 0x69170, symSize: 0xDC }
  - { offset: 0xF756D, size: 0x8, addend: 0x0, symName: __RNvMs1s_NtNtCs6IAuOt8vWmF_3syn3gen5debugNtNtBa_4expr12ExprTryBlock5debug, symObjAddr: 0x17A6C, symBinAddr: 0x6924C, symSize: 0xDC }
  - { offset: 0xF75D9, size: 0x8, addend: 0x0, symName: __RNvMs1u_NtNtCs6IAuOt8vWmF_3syn3gen5debugNtNtBa_4expr9ExprTuple5debug, symObjAddr: 0x17B94, symBinAddr: 0x69328, symSize: 0xDC }
  - { offset: 0xF7645, size: 0x8, addend: 0x0, symName: __RNvMs1w_NtNtCs6IAuOt8vWmF_3syn3gen5debugNtNtBa_4expr9ExprUnary5debug, symObjAddr: 0x17CBC, symBinAddr: 0x69404, symSize: 0xDC }
  - { offset: 0xF76B1, size: 0x8, addend: 0x0, symName: __RNvMs1y_NtNtCs6IAuOt8vWmF_3syn3gen5debugNtNtBa_4expr10ExprUnsafe5debug, symObjAddr: 0x17DE4, symBinAddr: 0x694E0, symSize: 0xDC }
  - { offset: 0xF771D, size: 0x8, addend: 0x0, symName: __RNvMs1A_NtNtCs6IAuOt8vWmF_3syn3gen5debugNtNtBa_4expr9ExprWhile5debug, symObjAddr: 0x17F0C, symBinAddr: 0x695BC, symSize: 0x12C }
  - { offset: 0xF7789, size: 0x8, addend: 0x0, symName: __RNvMs1C_NtNtCs6IAuOt8vWmF_3syn3gen5debugNtNtBa_4expr9ExprYield5debug, symObjAddr: 0x18084, symBinAddr: 0x696E8, symSize: 0xDC }
  - { offset: 0xF7924, size: 0x8, addend: 0x0, symName: __RINvXNtNtCse1nGBsou5OW_5alloc5slice4hackTNtNtCs6IAuOt8vWmF_3syn8lifetime8LifetimeNtNtBH_5token4PlusENtB3_10ConvertVec6to_vecNtNtB7_5alloc6GlobalEBH_, symObjAddr: 0x0, symBinAddr: 0x69E58, symSize: 0x368 }
  - { offset: 0xF96FA, size: 0x8, addend: 0x0, symName: __RNCNvMNtCs6IAuOt8vWmF_3syn10punctuatedINtB4_10PunctuatedNtNtB6_4path11PathSegmentNtNtB6_5token7PathSepE10into_pairs0B6_, symObjAddr: 0x5AA4, symBinAddr: 0x6E220, symSize: 0x98 }
  - { offset: 0xF974F, size: 0x8, addend: 0x0, symName: __RNCNvMNtCs6IAuOt8vWmF_3syn10punctuatedINtB4_10PunctuatedNtNtB6_4path11PathSegmentNtNtB6_5token7PathSepE3pop0B6_, symObjAddr: 0x9E58, symBinAddr: 0x725D4, symSize: 0xC4 }
  - { offset: 0xF9797, size: 0x8, addend: 0x0, symName: __RNCNvMNtCs6IAuOt8vWmF_3syn10punctuatedINtB4_10PunctuatedNtNtB6_4path11PathSegmentNtNtB6_5token7PathSepE3pops_0B6_, symObjAddr: 0x9F1C, symBinAddr: 0x72698, symSize: 0x74 }
  - { offset: 0xF98CF, size: 0x8, addend: 0x0, symName: __RNvXs_NtCs6IAuOt8vWmF_3syn10punctuatedINtB4_10PunctuatedNtNtB6_2ty4TypeNtNtB6_5token5CommaENtNtCsfvfooZQ3Axs_4core5clone5Clone5cloneB6_, symObjAddr: 0xB460, symBinAddr: 0x73BDC, symSize: 0x9C }
  - { offset: 0xF990F, size: 0x8, addend: 0x0, symName: __RNvXs_NtCs6IAuOt8vWmF_3syn10punctuatedINtB4_10PunctuatedNtNtB6_2ty9BareFnArgNtNtB6_5token5CommaENtNtCsfvfooZQ3Axs_4core5clone5Clone5cloneB6_, symObjAddr: 0xB4FC, symBinAddr: 0x73C78, symSize: 0x9C }
  - { offset: 0xF994F, size: 0x8, addend: 0x0, symName: __RNvXs_NtCs6IAuOt8vWmF_3syn10punctuatedINtB4_10PunctuatedNtNtB6_3pat3PatNtNtB6_5token2OrENtNtCsfvfooZQ3Axs_4core5clone5Clone5cloneB6_, symObjAddr: 0xB598, symBinAddr: 0x73D14, symSize: 0x9C }
  - { offset: 0xF998F, size: 0x8, addend: 0x0, symName: __RNvXs_NtCs6IAuOt8vWmF_3syn10punctuatedINtB4_10PunctuatedNtNtB6_3pat3PatNtNtB6_5token5CommaENtNtCsfvfooZQ3Axs_4core5clone5Clone5cloneB6_, symObjAddr: 0xB634, symBinAddr: 0x73DB0, symSize: 0x9C }
  - { offset: 0xF99CF, size: 0x8, addend: 0x0, symName: __RNvXs_NtCs6IAuOt8vWmF_3syn10punctuatedINtB4_10PunctuatedNtNtB6_3pat8FieldPatNtNtB6_5token5CommaENtNtCsfvfooZQ3Axs_4core5clone5Clone5cloneB6_, symObjAddr: 0xB6D0, symBinAddr: 0x73E4C, symSize: 0x9C }
  - { offset: 0xF9A0F, size: 0x8, addend: 0x0, symName: __RNvXs_NtCs6IAuOt8vWmF_3syn10punctuatedINtB4_10PunctuatedNtNtB6_4data5FieldNtNtB6_5token5CommaENtNtCsfvfooZQ3Axs_4core5clone5Clone5cloneB6_, symObjAddr: 0xB76C, symBinAddr: 0x73EE8, symSize: 0x9C }
  - { offset: 0xF9A4F, size: 0x8, addend: 0x0, symName: __RNvXs_NtCs6IAuOt8vWmF_3syn10punctuatedINtB4_10PunctuatedNtNtB6_4data7VariantNtNtB6_5token5CommaENtNtCsfvfooZQ3Axs_4core5clone5Clone5cloneB6_, symObjAddr: 0xB808, symBinAddr: 0x73F84, symSize: 0x9C }
  - { offset: 0xF9A8F, size: 0x8, addend: 0x0, symName: __RNvXs_NtCs6IAuOt8vWmF_3syn10punctuatedINtB4_10PunctuatedNtNtB6_4expr10FieldValueNtNtB6_5token5CommaENtNtCsfvfooZQ3Axs_4core5clone5Clone5cloneB6_, symObjAddr: 0xB8A4, symBinAddr: 0x74020, symSize: 0x9C }
  - { offset: 0xF9ACF, size: 0x8, addend: 0x0, symName: __RNvXs_NtCs6IAuOt8vWmF_3syn10punctuatedINtB4_10PunctuatedNtNtB6_4expr4ExprNtNtB6_5token5CommaENtNtCsfvfooZQ3Axs_4core5clone5Clone5cloneB6_, symObjAddr: 0xB940, symBinAddr: 0x740BC, symSize: 0x9C }
  - { offset: 0xF9B0F, size: 0x8, addend: 0x0, symName: __RNvXs_NtCs6IAuOt8vWmF_3syn10punctuatedINtB4_10PunctuatedNtNtB6_4item5FnArgNtNtB6_5token5CommaENtNtCsfvfooZQ3Axs_4core5clone5Clone5cloneB6_, symObjAddr: 0xB9DC, symBinAddr: 0x74158, symSize: 0x9C }
  - { offset: 0xF9B4F, size: 0x8, addend: 0x0, symName: __RNvXs_NtCs6IAuOt8vWmF_3syn10punctuatedINtB4_10PunctuatedNtNtB6_4item7UseTreeNtNtB6_5token5CommaENtNtCsfvfooZQ3Axs_4core5clone5Clone5cloneB6_, symObjAddr: 0xBA78, symBinAddr: 0x741F4, symSize: 0x9C }
  - { offset: 0xF9B8F, size: 0x8, addend: 0x0, symName: __RNvXs_NtCs6IAuOt8vWmF_3syn10punctuatedINtB4_10PunctuatedNtNtB6_4path11PathSegmentNtNtB6_5token7PathSepENtNtCsfvfooZQ3Axs_4core5clone5Clone5cloneB6_, symObjAddr: 0xBB14, symBinAddr: 0x74290, symSize: 0x9C }
  - { offset: 0xF9BCF, size: 0x8, addend: 0x0, symName: __RNvXs_NtCs6IAuOt8vWmF_3syn10punctuatedINtB4_10PunctuatedNtNtB6_4path15GenericArgumentNtNtB6_5token5CommaENtNtCsfvfooZQ3Axs_4core5clone5Clone5cloneB6_, symObjAddr: 0xBBB0, symBinAddr: 0x7432C, symSize: 0x9C }
  - { offset: 0xF9C0F, size: 0x8, addend: 0x0, symName: __RNvXs_NtCs6IAuOt8vWmF_3syn10punctuatedINtB4_10PunctuatedNtNtB6_8generics12GenericParamNtNtB6_5token5CommaENtNtCsfvfooZQ3Axs_4core5clone5Clone5cloneB6_, symObjAddr: 0xBC4C, symBinAddr: 0x743C8, symSize: 0x9C }
  - { offset: 0xF9C4F, size: 0x8, addend: 0x0, symName: __RNvXs_NtCs6IAuOt8vWmF_3syn10punctuatedINtB4_10PunctuatedNtNtB6_8generics13CapturedParamNtNtB6_5token5CommaENtNtCsfvfooZQ3Axs_4core5clone5Clone5cloneB6_, symObjAddr: 0xBCE8, symBinAddr: 0x74464, symSize: 0x9C }
  - { offset: 0xF9C8F, size: 0x8, addend: 0x0, symName: __RNvXs_NtCs6IAuOt8vWmF_3syn10punctuatedINtB4_10PunctuatedNtNtB6_8generics14TypeParamBoundNtNtB6_5token4PlusENtNtCsfvfooZQ3Axs_4core5clone5Clone5cloneB6_, symObjAddr: 0xBD84, symBinAddr: 0x74500, symSize: 0x9C }
  - { offset: 0xF9CCF, size: 0x8, addend: 0x0, symName: __RNvXs_NtCs6IAuOt8vWmF_3syn10punctuatedINtB4_10PunctuatedNtNtB6_8generics14WherePredicateNtNtB6_5token5CommaENtNtCsfvfooZQ3Axs_4core5clone5Clone5cloneB6_, symObjAddr: 0xBE20, symBinAddr: 0x7459C, symSize: 0x9C }
  - { offset: 0xF9D0F, size: 0x8, addend: 0x0, symName: __RNvXs_NtCs6IAuOt8vWmF_3syn10punctuatedINtB4_10PunctuatedNtNtB6_8lifetime8LifetimeNtNtB6_5token4PlusENtNtCsfvfooZQ3Axs_4core5clone5Clone5cloneB6_, symObjAddr: 0xBEBC, symBinAddr: 0x74638, symSize: 0x9C }
  - { offset: 0xF9D55, size: 0x8, addend: 0x0, symName: __RNvXs3_NtCs6IAuOt8vWmF_3syn10punctuatedINtB5_10PunctuatedNtNtB7_2ty4TypeNtNtB7_5token5CommaENtNtCsfvfooZQ3Axs_4core3fmt5Debug3fmtB7_, symObjAddr: 0xC9C0, symBinAddr: 0x746D4, symSize: 0x138 }
  - { offset: 0xF9E1C, size: 0x8, addend: 0x0, symName: __RNvXs3_NtCs6IAuOt8vWmF_3syn10punctuatedINtB5_10PunctuatedNtNtB7_2ty9BareFnArgNtNtB7_5token5CommaENtNtCsfvfooZQ3Axs_4core3fmt5Debug3fmtB7_, symObjAddr: 0xCAF8, symBinAddr: 0x7480C, symSize: 0x138 }
  - { offset: 0xF9EE3, size: 0x8, addend: 0x0, symName: __RNvXs3_NtCs6IAuOt8vWmF_3syn10punctuatedINtB5_10PunctuatedNtNtB7_3pat3PatNtNtB7_5token2OrENtNtCsfvfooZQ3Axs_4core3fmt5Debug3fmtB7_, symObjAddr: 0xCC30, symBinAddr: 0x74944, symSize: 0x138 }
  - { offset: 0xF9FAA, size: 0x8, addend: 0x0, symName: __RNvXs3_NtCs6IAuOt8vWmF_3syn10punctuatedINtB5_10PunctuatedNtNtB7_3pat3PatNtNtB7_5token5CommaENtNtCsfvfooZQ3Axs_4core3fmt5Debug3fmtB7_, symObjAddr: 0xCD68, symBinAddr: 0x74A7C, symSize: 0x138 }
  - { offset: 0xFA071, size: 0x8, addend: 0x0, symName: __RNvXs3_NtCs6IAuOt8vWmF_3syn10punctuatedINtB5_10PunctuatedNtNtB7_3pat8FieldPatNtNtB7_5token5CommaENtNtCsfvfooZQ3Axs_4core3fmt5Debug3fmtB7_, symObjAddr: 0xCEA0, symBinAddr: 0x74BB4, symSize: 0x138 }
  - { offset: 0xFA138, size: 0x8, addend: 0x0, symName: __RNvXs3_NtCs6IAuOt8vWmF_3syn10punctuatedINtB5_10PunctuatedNtNtB7_4data5FieldNtNtB7_5token5CommaENtNtCsfvfooZQ3Axs_4core3fmt5Debug3fmtB7_, symObjAddr: 0xCFD8, symBinAddr: 0x74CEC, symSize: 0x138 }
  - { offset: 0xFA1FF, size: 0x8, addend: 0x0, symName: __RNvXs3_NtCs6IAuOt8vWmF_3syn10punctuatedINtB5_10PunctuatedNtNtB7_4data7VariantNtNtB7_5token5CommaENtNtCsfvfooZQ3Axs_4core3fmt5Debug3fmtB7_, symObjAddr: 0xD110, symBinAddr: 0x74E24, symSize: 0x138 }
  - { offset: 0xFA2C6, size: 0x8, addend: 0x0, symName: __RNvXs3_NtCs6IAuOt8vWmF_3syn10punctuatedINtB5_10PunctuatedNtNtB7_4expr10FieldValueNtNtB7_5token5CommaENtNtCsfvfooZQ3Axs_4core3fmt5Debug3fmtB7_, symObjAddr: 0xD248, symBinAddr: 0x74F5C, symSize: 0x138 }
  - { offset: 0xFA38D, size: 0x8, addend: 0x0, symName: __RNvXs3_NtCs6IAuOt8vWmF_3syn10punctuatedINtB5_10PunctuatedNtNtB7_4expr4ExprNtNtB7_5token5CommaENtNtCsfvfooZQ3Axs_4core3fmt5Debug3fmtB7_, symObjAddr: 0xD380, symBinAddr: 0x75094, symSize: 0x138 }
  - { offset: 0xFA454, size: 0x8, addend: 0x0, symName: __RNvXs3_NtCs6IAuOt8vWmF_3syn10punctuatedINtB5_10PunctuatedNtNtB7_4item5FnArgNtNtB7_5token5CommaENtNtCsfvfooZQ3Axs_4core3fmt5Debug3fmtB7_, symObjAddr: 0xD4B8, symBinAddr: 0x751CC, symSize: 0x138 }
  - { offset: 0xFA51B, size: 0x8, addend: 0x0, symName: __RNvXs3_NtCs6IAuOt8vWmF_3syn10punctuatedINtB5_10PunctuatedNtNtB7_4item7UseTreeNtNtB7_5token5CommaENtNtCsfvfooZQ3Axs_4core3fmt5Debug3fmtB7_, symObjAddr: 0xD5F0, symBinAddr: 0x75304, symSize: 0x138 }
  - { offset: 0xFA5E2, size: 0x8, addend: 0x0, symName: __RNvXs3_NtCs6IAuOt8vWmF_3syn10punctuatedINtB5_10PunctuatedNtNtB7_4path11PathSegmentNtNtB7_5token7PathSepENtNtCsfvfooZQ3Axs_4core3fmt5Debug3fmtB7_, symObjAddr: 0xD728, symBinAddr: 0x7543C, symSize: 0x138 }
  - { offset: 0xFA6A9, size: 0x8, addend: 0x0, symName: __RNvXs3_NtCs6IAuOt8vWmF_3syn10punctuatedINtB5_10PunctuatedNtNtB7_4path15GenericArgumentNtNtB7_5token5CommaENtNtCsfvfooZQ3Axs_4core3fmt5Debug3fmtB7_, symObjAddr: 0xD860, symBinAddr: 0x75574, symSize: 0x138 }
  - { offset: 0xFA770, size: 0x8, addend: 0x0, symName: __RNvXs3_NtCs6IAuOt8vWmF_3syn10punctuatedINtB5_10PunctuatedNtNtB7_8generics12GenericParamNtNtB7_5token5CommaENtNtCsfvfooZQ3Axs_4core3fmt5Debug3fmtB7_, symObjAddr: 0xD998, symBinAddr: 0x756AC, symSize: 0x138 }
  - { offset: 0xFA837, size: 0x8, addend: 0x0, symName: __RNvXs3_NtCs6IAuOt8vWmF_3syn10punctuatedINtB5_10PunctuatedNtNtB7_8generics13CapturedParamNtNtB7_5token5CommaENtNtCsfvfooZQ3Axs_4core3fmt5Debug3fmtB7_, symObjAddr: 0xDAD0, symBinAddr: 0x757E4, symSize: 0x138 }
  - { offset: 0xFA8FE, size: 0x8, addend: 0x0, symName: __RNvXs3_NtCs6IAuOt8vWmF_3syn10punctuatedINtB5_10PunctuatedNtNtB7_8generics14TypeParamBoundNtNtB7_5token4PlusENtNtCsfvfooZQ3Axs_4core3fmt5Debug3fmtB7_, symObjAddr: 0xDC08, symBinAddr: 0x7591C, symSize: 0x138 }
  - { offset: 0xFA9C5, size: 0x8, addend: 0x0, symName: __RNvXs3_NtCs6IAuOt8vWmF_3syn10punctuatedINtB5_10PunctuatedNtNtB7_8generics14WherePredicateNtNtB7_5token5CommaENtNtCsfvfooZQ3Axs_4core3fmt5Debug3fmtB7_, symObjAddr: 0xDD40, symBinAddr: 0x75A54, symSize: 0x138 }
  - { offset: 0xFAA8C, size: 0x8, addend: 0x0, symName: __RNvXs3_NtCs6IAuOt8vWmF_3syn10punctuatedINtB5_10PunctuatedNtNtB7_8lifetime8LifetimeNtNtB7_5token4PlusENtNtCsfvfooZQ3Axs_4core3fmt5Debug3fmtB7_, symObjAddr: 0xDE78, symBinAddr: 0x75B8C, symSize: 0x138 }
  - { offset: 0xFAB59, size: 0x8, addend: 0x0, symName: __RINvXs7_NtCs6IAuOt8vWmF_3syn10punctuatedINtB6_10PunctuatedNtNtB8_4path11PathSegmentNtNtB8_5token7PathSepEINtNtNtNtCsfvfooZQ3Axs_4core4iter6traits7collect6ExtendINtB6_4PairBU_B1j_EE6extendINtB6_9IntoPairsBU_B1j_EEB8_, symObjAddr: 0xDFB0, symBinAddr: 0x75CC4, symSize: 0x124 }
  - { offset: 0xFABAF, size: 0x8, addend: 0x0, symName: __RINvNtCs6IAuOt8vWmF_3syn10punctuated9do_extendNtNtB4_4path11PathSegmentNtNtB4_5token7PathSepINtB2_9IntoPairsBI_B17_EEB4_, symObjAddr: 0xE0D4, symBinAddr: 0x75DE8, symSize: 0x3B4 }
  - { offset: 0xFACAC, size: 0x8, addend: 0x0, symName: __RNvXs8_NtCs6IAuOt8vWmF_3syn10punctuatedINtB5_10PunctuatedNtNtB7_8generics14TypeParamBoundNtNtB7_5token4PlusENtNtNtNtCsfvfooZQ3Axs_4core4iter6traits7collect12IntoIterator9into_iterB7_, symObjAddr: 0xE808, symBinAddr: 0x7619C, symSize: 0x1C0 }
  - { offset: 0xFAD08, size: 0x8, addend: 0x0, symName: __RNCNvXs8_NtCs6IAuOt8vWmF_3syn10punctuatedINtB7_10PunctuatedNtNtB9_8generics14TypeParamBoundNtNtB9_5token4PlusENtNtNtNtCsfvfooZQ3Axs_4core4iter6traits7collect12IntoIterator9into_iter0B9_, symObjAddr: 0xEA50, symBinAddr: 0x7635C, symSize: 0x44 }
  - { offset: 0xFAD54, size: 0x8, addend: 0x0, symName: __RNCNvXs8_NtCs6IAuOt8vWmF_3syn10punctuatedINtB7_10PunctuatedNtNtB9_8generics14TypeParamBoundNtNtB9_5token4PlusENtNtNtNtCsfvfooZQ3Axs_4core4iter6traits7collect12IntoIterator9into_iters_0B9_, symObjAddr: 0xEBC4, symBinAddr: 0x763A0, symSize: 0x98 }
  - { offset: 0xFADB4, size: 0x8, addend: 0x0, symName: __RNvXs9_NtCs6IAuOt8vWmF_3syn10punctuatedRINtB5_10PunctuatedNtNtB7_8generics14TypeParamBoundNtNtB7_5token4PlusENtNtNtNtCsfvfooZQ3Axs_4core4iter6traits7collect12IntoIterator9into_iterB7_, symObjAddr: 0xEC5C, symBinAddr: 0x76438, symSize: 0x34 }
  - { offset: 0xFADFA, size: 0x8, addend: 0x0, symName: __RNvXsc_NtCs6IAuOt8vWmF_3syn10punctuatedINtB5_5PairsNtNtB7_2ty4TypeNtNtB7_5token5CommaENtNtNtNtCsfvfooZQ3Axs_4core4iter6traits8iterator8Iterator4nextB7_, symObjAddr: 0xEC90, symBinAddr: 0x7646C, symSize: 0x58 }
  - { offset: 0xFAE3A, size: 0x8, addend: 0x0, symName: __RNvXsc_NtCs6IAuOt8vWmF_3syn10punctuatedINtB5_5PairsNtNtB7_2ty9BareFnArgNtNtB7_5token5CommaENtNtNtNtCsfvfooZQ3Axs_4core4iter6traits8iterator8Iterator4nextB7_, symObjAddr: 0xECE8, symBinAddr: 0x764C4, symSize: 0x58 }
  - { offset: 0xFAE7A, size: 0x8, addend: 0x0, symName: __RNvXsc_NtCs6IAuOt8vWmF_3syn10punctuatedINtB5_5PairsNtNtB7_3pat3PatNtNtB7_5token2OrENtNtNtNtCsfvfooZQ3Axs_4core4iter6traits8iterator8Iterator4nextB7_, symObjAddr: 0xED40, symBinAddr: 0x7651C, symSize: 0x58 }
  - { offset: 0xFAEBA, size: 0x8, addend: 0x0, symName: __RNvXsc_NtCs6IAuOt8vWmF_3syn10punctuatedINtB5_5PairsNtNtB7_3pat3PatNtNtB7_5token5CommaENtNtNtNtCsfvfooZQ3Axs_4core4iter6traits8iterator8Iterator4nextB7_, symObjAddr: 0xED98, symBinAddr: 0x76574, symSize: 0x58 }
  - { offset: 0xFAEFA, size: 0x8, addend: 0x0, symName: __RNvXsc_NtCs6IAuOt8vWmF_3syn10punctuatedINtB5_5PairsNtNtB7_3pat8FieldPatNtNtB7_5token5CommaENtNtNtNtCsfvfooZQ3Axs_4core4iter6traits8iterator8Iterator4nextB7_, symObjAddr: 0xEDF0, symBinAddr: 0x765CC, symSize: 0x58 }
  - { offset: 0xFAF3A, size: 0x8, addend: 0x0, symName: __RNvXsc_NtCs6IAuOt8vWmF_3syn10punctuatedINtB5_5PairsNtNtB7_4data5FieldNtNtB7_5token5CommaENtNtNtNtCsfvfooZQ3Axs_4core4iter6traits8iterator8Iterator4nextB7_, symObjAddr: 0xEE48, symBinAddr: 0x76624, symSize: 0x58 }
  - { offset: 0xFAF7A, size: 0x8, addend: 0x0, symName: __RNvXsc_NtCs6IAuOt8vWmF_3syn10punctuatedINtB5_5PairsNtNtB7_4data7VariantNtNtB7_5token5CommaENtNtNtNtCsfvfooZQ3Axs_4core4iter6traits8iterator8Iterator4nextB7_, symObjAddr: 0xEEA0, symBinAddr: 0x7667C, symSize: 0x58 }
  - { offset: 0xFAFBA, size: 0x8, addend: 0x0, symName: __RNvXsc_NtCs6IAuOt8vWmF_3syn10punctuatedINtB5_5PairsNtNtB7_4expr10FieldValueNtNtB7_5token5CommaENtNtNtNtCsfvfooZQ3Axs_4core4iter6traits8iterator8Iterator4nextB7_, symObjAddr: 0xEEF8, symBinAddr: 0x766D4, symSize: 0x58 }
  - { offset: 0xFAFFA, size: 0x8, addend: 0x0, symName: __RNvXsc_NtCs6IAuOt8vWmF_3syn10punctuatedINtB5_5PairsNtNtB7_4expr4ExprNtNtB7_5token5CommaENtNtNtNtCsfvfooZQ3Axs_4core4iter6traits8iterator8Iterator4nextB7_, symObjAddr: 0xEF50, symBinAddr: 0x7672C, symSize: 0x58 }
  - { offset: 0xFB03A, size: 0x8, addend: 0x0, symName: __RNvXsc_NtCs6IAuOt8vWmF_3syn10punctuatedINtB5_5PairsNtNtB7_4item5FnArgNtNtB7_5token5CommaENtNtNtNtCsfvfooZQ3Axs_4core4iter6traits8iterator8Iterator4nextB7_, symObjAddr: 0xEFA8, symBinAddr: 0x76784, symSize: 0x58 }
  - { offset: 0xFB07A, size: 0x8, addend: 0x0, symName: __RNvXsc_NtCs6IAuOt8vWmF_3syn10punctuatedINtB5_5PairsNtNtB7_4item7UseTreeNtNtB7_5token5CommaENtNtNtNtCsfvfooZQ3Axs_4core4iter6traits8iterator8Iterator4nextB7_, symObjAddr: 0xF000, symBinAddr: 0x767DC, symSize: 0x58 }
  - { offset: 0xFB0BA, size: 0x8, addend: 0x0, symName: __RNvXsc_NtCs6IAuOt8vWmF_3syn10punctuatedINtB5_5PairsNtNtB7_4path11PathSegmentNtNtB7_5token7PathSepENtNtNtNtCsfvfooZQ3Axs_4core4iter6traits8iterator8Iterator4nextB7_, symObjAddr: 0xF058, symBinAddr: 0x76834, symSize: 0x58 }
  - { offset: 0xFB0FA, size: 0x8, addend: 0x0, symName: __RNvXsc_NtCs6IAuOt8vWmF_3syn10punctuatedINtB5_5PairsNtNtB7_4path15GenericArgumentNtNtB7_5token5CommaENtNtNtNtCsfvfooZQ3Axs_4core4iter6traits8iterator8Iterator4nextB7_, symObjAddr: 0xF0B0, symBinAddr: 0x7688C, symSize: 0x58 }
  - { offset: 0xFB13A, size: 0x8, addend: 0x0, symName: __RNvXsc_NtCs6IAuOt8vWmF_3syn10punctuatedINtB5_5PairsNtNtB7_8generics12GenericParamNtNtB7_5token5CommaENtNtNtNtCsfvfooZQ3Axs_4core4iter6traits8iterator8Iterator4nextB7_, symObjAddr: 0xF108, symBinAddr: 0x768E4, symSize: 0x58 }
  - { offset: 0xFB17A, size: 0x8, addend: 0x0, symName: __RNvXsc_NtCs6IAuOt8vWmF_3syn10punctuatedINtB5_5PairsNtNtB7_8generics13CapturedParamNtNtB7_5token5CommaENtNtNtNtCsfvfooZQ3Axs_4core4iter6traits8iterator8Iterator4nextB7_, symObjAddr: 0xF160, symBinAddr: 0x7693C, symSize: 0x58 }
  - { offset: 0xFB1BA, size: 0x8, addend: 0x0, symName: __RNvXsc_NtCs6IAuOt8vWmF_3syn10punctuatedINtB5_5PairsNtNtB7_8generics14TypeParamBoundNtNtB7_5token4PlusENtNtNtNtCsfvfooZQ3Axs_4core4iter6traits8iterator8Iterator4nextB7_, symObjAddr: 0xF1B8, symBinAddr: 0x76994, symSize: 0x58 }
  - { offset: 0xFB1FA, size: 0x8, addend: 0x0, symName: __RNvXsc_NtCs6IAuOt8vWmF_3syn10punctuatedINtB5_5PairsNtNtB7_8generics14WherePredicateNtNtB7_5token5CommaENtNtNtNtCsfvfooZQ3Axs_4core4iter6traits8iterator8Iterator4nextB7_, symObjAddr: 0xF210, symBinAddr: 0x769EC, symSize: 0x58 }
  - { offset: 0xFB23A, size: 0x8, addend: 0x0, symName: __RNvXsc_NtCs6IAuOt8vWmF_3syn10punctuatedINtB5_5PairsNtNtB7_8lifetime8LifetimeNtNtB7_5token4PlusENtNtNtNtCsfvfooZQ3Axs_4core4iter6traits8iterator8Iterator4nextB7_, symObjAddr: 0xF268, symBinAddr: 0x76A44, symSize: 0x58 }
  - { offset: 0xFB27F, size: 0x8, addend: 0x0, symName: __RNCNvXsc_NtCs6IAuOt8vWmF_3syn10punctuatedINtB7_5PairsNtNtB9_2ty4TypeNtNtB9_5token5CommaENtNtNtNtCsfvfooZQ3Axs_4core4iter6traits8iterator8Iterator4next0B9_, symObjAddr: 0xF2C0, symBinAddr: 0x76A9C, symSize: 0x40 }
  - { offset: 0xFB2F4, size: 0x8, addend: 0x0, symName: __RNCNvXsc_NtCs6IAuOt8vWmF_3syn10punctuatedINtB7_5PairsNtNtB9_2ty9BareFnArgNtNtB9_5token5CommaENtNtNtNtCsfvfooZQ3Axs_4core4iter6traits8iterator8Iterator4next0B9_, symObjAddr: 0xF300, symBinAddr: 0x76ADC, symSize: 0x40 }
  - { offset: 0xFB369, size: 0x8, addend: 0x0, symName: __RNCNvXsc_NtCs6IAuOt8vWmF_3syn10punctuatedINtB7_5PairsNtNtB9_3pat3PatNtNtB9_5token2OrENtNtNtNtCsfvfooZQ3Axs_4core4iter6traits8iterator8Iterator4next0B9_, symObjAddr: 0xF340, symBinAddr: 0x76B1C, symSize: 0x40 }
  - { offset: 0xFB3DE, size: 0x8, addend: 0x0, symName: __RNCNvXsc_NtCs6IAuOt8vWmF_3syn10punctuatedINtB7_5PairsNtNtB9_3pat3PatNtNtB9_5token5CommaENtNtNtNtCsfvfooZQ3Axs_4core4iter6traits8iterator8Iterator4next0B9_, symObjAddr: 0xF380, symBinAddr: 0x76B5C, symSize: 0x40 }
  - { offset: 0xFB453, size: 0x8, addend: 0x0, symName: __RNCNvXsc_NtCs6IAuOt8vWmF_3syn10punctuatedINtB7_5PairsNtNtB9_3pat8FieldPatNtNtB9_5token5CommaENtNtNtNtCsfvfooZQ3Axs_4core4iter6traits8iterator8Iterator4next0B9_, symObjAddr: 0xF3C0, symBinAddr: 0x76B9C, symSize: 0x40 }
  - { offset: 0xFB4C8, size: 0x8, addend: 0x0, symName: __RNCNvXsc_NtCs6IAuOt8vWmF_3syn10punctuatedINtB7_5PairsNtNtB9_4data5FieldNtNtB9_5token5CommaENtNtNtNtCsfvfooZQ3Axs_4core4iter6traits8iterator8Iterator4next0B9_, symObjAddr: 0xF400, symBinAddr: 0x76BDC, symSize: 0x40 }
  - { offset: 0xFB53D, size: 0x8, addend: 0x0, symName: __RNCNvXsc_NtCs6IAuOt8vWmF_3syn10punctuatedINtB7_5PairsNtNtB9_4data7VariantNtNtB9_5token5CommaENtNtNtNtCsfvfooZQ3Axs_4core4iter6traits8iterator8Iterator4next0B9_, symObjAddr: 0xF440, symBinAddr: 0x76C1C, symSize: 0x40 }
  - { offset: 0xFB5B2, size: 0x8, addend: 0x0, symName: __RNCNvXsc_NtCs6IAuOt8vWmF_3syn10punctuatedINtB7_5PairsNtNtB9_4expr10FieldValueNtNtB9_5token5CommaENtNtNtNtCsfvfooZQ3Axs_4core4iter6traits8iterator8Iterator4next0B9_, symObjAddr: 0xF480, symBinAddr: 0x76C5C, symSize: 0x40 }
  - { offset: 0xFB627, size: 0x8, addend: 0x0, symName: __RNCNvXsc_NtCs6IAuOt8vWmF_3syn10punctuatedINtB7_5PairsNtNtB9_4expr4ExprNtNtB9_5token5CommaENtNtNtNtCsfvfooZQ3Axs_4core4iter6traits8iterator8Iterator4next0B9_, symObjAddr: 0xF4C0, symBinAddr: 0x76C9C, symSize: 0x40 }
  - { offset: 0xFB69C, size: 0x8, addend: 0x0, symName: __RNCNvXsc_NtCs6IAuOt8vWmF_3syn10punctuatedINtB7_5PairsNtNtB9_4item5FnArgNtNtB9_5token5CommaENtNtNtNtCsfvfooZQ3Axs_4core4iter6traits8iterator8Iterator4next0B9_, symObjAddr: 0xF500, symBinAddr: 0x76CDC, symSize: 0x40 }
  - { offset: 0xFB711, size: 0x8, addend: 0x0, symName: __RNCNvXsc_NtCs6IAuOt8vWmF_3syn10punctuatedINtB7_5PairsNtNtB9_4item7UseTreeNtNtB9_5token5CommaENtNtNtNtCsfvfooZQ3Axs_4core4iter6traits8iterator8Iterator4next0B9_, symObjAddr: 0xF540, symBinAddr: 0x76D1C, symSize: 0x40 }
  - { offset: 0xFB786, size: 0x8, addend: 0x0, symName: __RNCNvXsc_NtCs6IAuOt8vWmF_3syn10punctuatedINtB7_5PairsNtNtB9_4path11PathSegmentNtNtB9_5token7PathSepENtNtNtNtCsfvfooZQ3Axs_4core4iter6traits8iterator8Iterator4next0B9_, symObjAddr: 0xF580, symBinAddr: 0x76D5C, symSize: 0x40 }
  - { offset: 0xFB7FB, size: 0x8, addend: 0x0, symName: __RNCNvXsc_NtCs6IAuOt8vWmF_3syn10punctuatedINtB7_5PairsNtNtB9_4path15GenericArgumentNtNtB9_5token5CommaENtNtNtNtCsfvfooZQ3Axs_4core4iter6traits8iterator8Iterator4next0B9_, symObjAddr: 0xF5C0, symBinAddr: 0x76D9C, symSize: 0x40 }
  - { offset: 0xFB870, size: 0x8, addend: 0x0, symName: __RNCNvXsc_NtCs6IAuOt8vWmF_3syn10punctuatedINtB7_5PairsNtNtB9_8generics12GenericParamNtNtB9_5token5CommaENtNtNtNtCsfvfooZQ3Axs_4core4iter6traits8iterator8Iterator4next0B9_, symObjAddr: 0xF600, symBinAddr: 0x76DDC, symSize: 0x40 }
  - { offset: 0xFB8E5, size: 0x8, addend: 0x0, symName: __RNCNvXsc_NtCs6IAuOt8vWmF_3syn10punctuatedINtB7_5PairsNtNtB9_8generics13CapturedParamNtNtB9_5token5CommaENtNtNtNtCsfvfooZQ3Axs_4core4iter6traits8iterator8Iterator4next0B9_, symObjAddr: 0xF640, symBinAddr: 0x76E1C, symSize: 0x40 }
  - { offset: 0xFB95A, size: 0x8, addend: 0x0, symName: __RNCNvXsc_NtCs6IAuOt8vWmF_3syn10punctuatedINtB7_5PairsNtNtB9_8generics14TypeParamBoundNtNtB9_5token4PlusENtNtNtNtCsfvfooZQ3Axs_4core4iter6traits8iterator8Iterator4next0B9_, symObjAddr: 0xF680, symBinAddr: 0x76E5C, symSize: 0x40 }
  - { offset: 0xFB9CF, size: 0x8, addend: 0x0, symName: __RNCNvXsc_NtCs6IAuOt8vWmF_3syn10punctuatedINtB7_5PairsNtNtB9_8generics14WherePredicateNtNtB9_5token5CommaENtNtNtNtCsfvfooZQ3Axs_4core4iter6traits8iterator8Iterator4next0B9_, symObjAddr: 0xF6C0, symBinAddr: 0x76E9C, symSize: 0x40 }
  - { offset: 0xFBA44, size: 0x8, addend: 0x0, symName: __RNCNvXsc_NtCs6IAuOt8vWmF_3syn10punctuatedINtB7_5PairsNtNtB9_8lifetime8LifetimeNtNtB9_5token4PlusENtNtNtNtCsfvfooZQ3Axs_4core4iter6traits8iterator8Iterator4next0B9_, symObjAddr: 0xF700, symBinAddr: 0x76EDC, symSize: 0x40 }
  - { offset: 0xFBAB9, size: 0x8, addend: 0x0, symName: __RNCNvXsc_NtCs6IAuOt8vWmF_3syn10punctuatedINtB7_5PairsNtNtB9_2ty4TypeNtNtB9_5token5CommaENtNtNtNtCsfvfooZQ3Axs_4core4iter6traits8iterator8Iterator4nexts_0B9_, symObjAddr: 0xF740, symBinAddr: 0x76F1C, symSize: 0x40 }
  - { offset: 0xFBAFB, size: 0x8, addend: 0x0, symName: __RNCNvXsc_NtCs6IAuOt8vWmF_3syn10punctuatedINtB7_5PairsNtNtB9_2ty9BareFnArgNtNtB9_5token5CommaENtNtNtNtCsfvfooZQ3Axs_4core4iter6traits8iterator8Iterator4nexts_0B9_, symObjAddr: 0xF780, symBinAddr: 0x76F5C, symSize: 0x40 }
  - { offset: 0xFBB3D, size: 0x8, addend: 0x0, symName: __RNCNvXsc_NtCs6IAuOt8vWmF_3syn10punctuatedINtB7_5PairsNtNtB9_3pat3PatNtNtB9_5token2OrENtNtNtNtCsfvfooZQ3Axs_4core4iter6traits8iterator8Iterator4nexts_0B9_, symObjAddr: 0xF7C0, symBinAddr: 0x76F9C, symSize: 0x40 }
  - { offset: 0xFBB7F, size: 0x8, addend: 0x0, symName: __RNCNvXsc_NtCs6IAuOt8vWmF_3syn10punctuatedINtB7_5PairsNtNtB9_3pat3PatNtNtB9_5token5CommaENtNtNtNtCsfvfooZQ3Axs_4core4iter6traits8iterator8Iterator4nexts_0B9_, symObjAddr: 0xF800, symBinAddr: 0x76FDC, symSize: 0x40 }
  - { offset: 0xFBBC1, size: 0x8, addend: 0x0, symName: __RNCNvXsc_NtCs6IAuOt8vWmF_3syn10punctuatedINtB7_5PairsNtNtB9_3pat8FieldPatNtNtB9_5token5CommaENtNtNtNtCsfvfooZQ3Axs_4core4iter6traits8iterator8Iterator4nexts_0B9_, symObjAddr: 0xF840, symBinAddr: 0x7701C, symSize: 0x40 }
  - { offset: 0xFBC03, size: 0x8, addend: 0x0, symName: __RNCNvXsc_NtCs6IAuOt8vWmF_3syn10punctuatedINtB7_5PairsNtNtB9_4data5FieldNtNtB9_5token5CommaENtNtNtNtCsfvfooZQ3Axs_4core4iter6traits8iterator8Iterator4nexts_0B9_, symObjAddr: 0xF880, symBinAddr: 0x7705C, symSize: 0x40 }
  - { offset: 0xFBC45, size: 0x8, addend: 0x0, symName: __RNCNvXsc_NtCs6IAuOt8vWmF_3syn10punctuatedINtB7_5PairsNtNtB9_4data7VariantNtNtB9_5token5CommaENtNtNtNtCsfvfooZQ3Axs_4core4iter6traits8iterator8Iterator4nexts_0B9_, symObjAddr: 0xF8C0, symBinAddr: 0x7709C, symSize: 0x40 }
  - { offset: 0xFBC87, size: 0x8, addend: 0x0, symName: __RNCNvXsc_NtCs6IAuOt8vWmF_3syn10punctuatedINtB7_5PairsNtNtB9_4expr10FieldValueNtNtB9_5token5CommaENtNtNtNtCsfvfooZQ3Axs_4core4iter6traits8iterator8Iterator4nexts_0B9_, symObjAddr: 0xF900, symBinAddr: 0x770DC, symSize: 0x40 }
  - { offset: 0xFBCC9, size: 0x8, addend: 0x0, symName: __RNCNvXsc_NtCs6IAuOt8vWmF_3syn10punctuatedINtB7_5PairsNtNtB9_4expr4ExprNtNtB9_5token5CommaENtNtNtNtCsfvfooZQ3Axs_4core4iter6traits8iterator8Iterator4nexts_0B9_, symObjAddr: 0xF940, symBinAddr: 0x7711C, symSize: 0x40 }
  - { offset: 0xFBD0B, size: 0x8, addend: 0x0, symName: __RNCNvXsc_NtCs6IAuOt8vWmF_3syn10punctuatedINtB7_5PairsNtNtB9_4item5FnArgNtNtB9_5token5CommaENtNtNtNtCsfvfooZQ3Axs_4core4iter6traits8iterator8Iterator4nexts_0B9_, symObjAddr: 0xF980, symBinAddr: 0x7715C, symSize: 0x40 }
  - { offset: 0xFBD4D, size: 0x8, addend: 0x0, symName: __RNCNvXsc_NtCs6IAuOt8vWmF_3syn10punctuatedINtB7_5PairsNtNtB9_4item7UseTreeNtNtB9_5token5CommaENtNtNtNtCsfvfooZQ3Axs_4core4iter6traits8iterator8Iterator4nexts_0B9_, symObjAddr: 0xF9C0, symBinAddr: 0x7719C, symSize: 0x40 }
  - { offset: 0xFBD8F, size: 0x8, addend: 0x0, symName: __RNCNvXsc_NtCs6IAuOt8vWmF_3syn10punctuatedINtB7_5PairsNtNtB9_4path11PathSegmentNtNtB9_5token7PathSepENtNtNtNtCsfvfooZQ3Axs_4core4iter6traits8iterator8Iterator4nexts_0B9_, symObjAddr: 0xFA00, symBinAddr: 0x771DC, symSize: 0x40 }
  - { offset: 0xFBDD1, size: 0x8, addend: 0x0, symName: __RNCNvXsc_NtCs6IAuOt8vWmF_3syn10punctuatedINtB7_5PairsNtNtB9_4path15GenericArgumentNtNtB9_5token5CommaENtNtNtNtCsfvfooZQ3Axs_4core4iter6traits8iterator8Iterator4nexts_0B9_, symObjAddr: 0xFA40, symBinAddr: 0x7721C, symSize: 0x40 }
  - { offset: 0xFBE13, size: 0x8, addend: 0x0, symName: __RNCNvXsc_NtCs6IAuOt8vWmF_3syn10punctuatedINtB7_5PairsNtNtB9_8generics12GenericParamNtNtB9_5token5CommaENtNtNtNtCsfvfooZQ3Axs_4core4iter6traits8iterator8Iterator4nexts_0B9_, symObjAddr: 0xFA80, symBinAddr: 0x7725C, symSize: 0x40 }
  - { offset: 0xFBE55, size: 0x8, addend: 0x0, symName: __RNCNvXsc_NtCs6IAuOt8vWmF_3syn10punctuatedINtB7_5PairsNtNtB9_8generics13CapturedParamNtNtB9_5token5CommaENtNtNtNtCsfvfooZQ3Axs_4core4iter6traits8iterator8Iterator4nexts_0B9_, symObjAddr: 0xFAC0, symBinAddr: 0x7729C, symSize: 0x40 }
  - { offset: 0xFBE97, size: 0x8, addend: 0x0, symName: __RNCNvXsc_NtCs6IAuOt8vWmF_3syn10punctuatedINtB7_5PairsNtNtB9_8generics14TypeParamBoundNtNtB9_5token4PlusENtNtNtNtCsfvfooZQ3Axs_4core4iter6traits8iterator8Iterator4nexts_0B9_, symObjAddr: 0xFB00, symBinAddr: 0x772DC, symSize: 0x40 }
  - { offset: 0xFBED9, size: 0x8, addend: 0x0, symName: __RNCNvXsc_NtCs6IAuOt8vWmF_3syn10punctuatedINtB7_5PairsNtNtB9_8generics14WherePredicateNtNtB9_5token5CommaENtNtNtNtCsfvfooZQ3Axs_4core4iter6traits8iterator8Iterator4nexts_0B9_, symObjAddr: 0xFB40, symBinAddr: 0x7731C, symSize: 0x40 }
  - { offset: 0xFBF1B, size: 0x8, addend: 0x0, symName: __RNCNvXsc_NtCs6IAuOt8vWmF_3syn10punctuatedINtB7_5PairsNtNtB9_8lifetime8LifetimeNtNtB9_5token4PlusENtNtNtNtCsfvfooZQ3Axs_4core4iter6traits8iterator8Iterator4nexts_0B9_, symObjAddr: 0xFB80, symBinAddr: 0x7735C, symSize: 0x40 }
  - { offset: 0xFBFE2, size: 0x8, addend: 0x0, symName: __RNvXsj_NtCs6IAuOt8vWmF_3syn10punctuatedINtB5_9IntoPairsNtNtB7_4path11PathSegmentNtNtB7_5token7PathSepENtNtNtNtCsfvfooZQ3Axs_4core4iter6traits8iterator8Iterator4nextB7_, symObjAddr: 0xFBC0, symBinAddr: 0x7739C, symSize: 0x6C }
  - { offset: 0xFC027, size: 0x8, addend: 0x0, symName: __RNCNvXsj_NtCs6IAuOt8vWmF_3syn10punctuatedINtB7_9IntoPairsNtNtB9_4path11PathSegmentNtNtB9_5token7PathSepENtNtNtNtCsfvfooZQ3Axs_4core4iter6traits8iterator8Iterator4next0B9_, symObjAddr: 0xFC2C, symBinAddr: 0x77408, symSize: 0x74 }
  - { offset: 0xFC095, size: 0x8, addend: 0x0, symName: __RNCNvXsj_NtCs6IAuOt8vWmF_3syn10punctuatedINtB7_9IntoPairsNtNtB9_4path11PathSegmentNtNtB9_5token7PathSepENtNtNtNtCsfvfooZQ3Axs_4core4iter6traits8iterator8Iterator4nexts_0B9_, symObjAddr: 0xFCA0, symBinAddr: 0x7747C, symSize: 0x4C }
  - { offset: 0xFC0E5, size: 0x8, addend: 0x0, symName: __RNvXsn_NtCs6IAuOt8vWmF_3syn10punctuatedINtB5_8IntoIterNtNtB7_8generics14TypeParamBoundENtNtNtNtCsfvfooZQ3Axs_4core4iter6traits8iterator8Iterator4nextB7_, symObjAddr: 0xFCEC, symBinAddr: 0x774C8, symSize: 0x34 }
  - { offset: 0xFC11D, size: 0x8, addend: 0x0, symName: __RINvNtCs6IAuOt8vWmF_3syn10punctuated21empty_punctuated_iterNtNtB4_4data5FieldEB4_, symObjAddr: 0xFD20, symBinAddr: 0x774FC, symSize: 0x68 }
  - { offset: 0xFC15F, size: 0x8, addend: 0x0, symName: __RNvXst_NtCs6IAuOt8vWmF_3syn10punctuatedINtB5_4IterNtNtB7_4data5FieldENtNtNtNtCsfvfooZQ3Axs_4core4iter6traits8iterator8Iterator4nextB7_, symObjAddr: 0xFDD0, symBinAddr: 0x77564, symSize: 0x48 }
  - { offset: 0xFC196, size: 0x8, addend: 0x0, symName: __RNvXst_NtCs6IAuOt8vWmF_3syn10punctuatedINtB5_4IterNtNtB7_4path11PathSegmentENtNtNtNtCsfvfooZQ3Axs_4core4iter6traits8iterator8Iterator4nextB7_, symObjAddr: 0xFE60, symBinAddr: 0x775AC, symSize: 0x48 }
  - { offset: 0xFC1CD, size: 0x8, addend: 0x0, symName: __RNvXst_NtCs6IAuOt8vWmF_3syn10punctuatedINtB5_4IterNtNtB7_8generics12GenericParamENtNtNtNtCsfvfooZQ3Axs_4core4iter6traits8iterator8Iterator4nextB7_, symObjAddr: 0xFEA8, symBinAddr: 0x775F4, symSize: 0x48 }
  - { offset: 0xFC204, size: 0x8, addend: 0x0, symName: __RNvXst_NtCs6IAuOt8vWmF_3syn10punctuatedINtB5_4IterNtNtB7_8generics14TypeParamBoundENtNtNtNtCsfvfooZQ3Axs_4core4iter6traits8iterator8Iterator4nextB7_, symObjAddr: 0xFEF0, symBinAddr: 0x7763C, symSize: 0x48 }
  - { offset: 0xFC241, size: 0x8, addend: 0x0, symName: __RNvXsu_NtCs6IAuOt8vWmF_3syn10punctuatedINtB5_4IterNtNtB7_4path11PathSegmentENtNtNtNtCsfvfooZQ3Axs_4core4iter6traits12double_ended19DoubleEndedIterator9next_backB7_, symObjAddr: 0xFF38, symBinAddr: 0x77684, symSize: 0x48 }
  - { offset: 0xFC278, size: 0x8, addend: 0x0, symName: __RNvXsu_NtCs6IAuOt8vWmF_3syn10punctuatedINtB5_4IterNtNtB7_8generics14TypeParamBoundENtNtNtNtCsfvfooZQ3Axs_4core4iter6traits12double_ended19DoubleEndedIterator9next_backB7_, symObjAddr: 0xFF80, symBinAddr: 0x776CC, symSize: 0x48 }
  - { offset: 0xFC2B5, size: 0x8, addend: 0x0, symName: __RNvXsw_NtCs6IAuOt8vWmF_3syn10punctuatedINtB5_11PrivateIterNtNtB7_4data5FieldNtNtB7_5token5CommaENtNtNtNtCsfvfooZQ3Axs_4core4iter6traits8iterator8Iterator4nextB7_, symObjAddr: 0xFFC8, symBinAddr: 0x77714, symSize: 0x44 }
  - { offset: 0xFC2F5, size: 0x8, addend: 0x0, symName: __RNvXsw_NtCs6IAuOt8vWmF_3syn10punctuatedINtB5_11PrivateIterNtNtB7_4path11PathSegmentNtNtB7_5token7PathSepENtNtNtNtCsfvfooZQ3Axs_4core4iter6traits8iterator8Iterator4nextB7_, symObjAddr: 0x10050, symBinAddr: 0x77758, symSize: 0x44 }
  - { offset: 0xFC335, size: 0x8, addend: 0x0, symName: __RNvXsw_NtCs6IAuOt8vWmF_3syn10punctuatedINtB5_11PrivateIterNtNtB7_8generics12GenericParamNtNtB7_5token5CommaENtNtNtNtCsfvfooZQ3Axs_4core4iter6traits8iterator8Iterator4nextB7_, symObjAddr: 0x10094, symBinAddr: 0x7779C, symSize: 0x44 }
  - { offset: 0xFC375, size: 0x8, addend: 0x0, symName: __RNvXsw_NtCs6IAuOt8vWmF_3syn10punctuatedINtB5_11PrivateIterNtNtB7_8generics14TypeParamBoundNtNtB7_5token4PlusENtNtNtNtCsfvfooZQ3Axs_4core4iter6traits8iterator8Iterator4nextB7_, symObjAddr: 0x100D8, symBinAddr: 0x777E0, symSize: 0x44 }
  - { offset: 0xFC3BA, size: 0x8, addend: 0x0, symName: __RNCNvXsw_NtCs6IAuOt8vWmF_3syn10punctuatedINtB7_11PrivateIterNtNtB9_4data5FieldNtNtB9_5token5CommaENtNtNtNtCsfvfooZQ3Axs_4core4iter6traits8iterator8Iterator4next0B9_, symObjAddr: 0x1011C, symBinAddr: 0x77824, symSize: 0x24 }
  - { offset: 0xFC405, size: 0x8, addend: 0x0, symName: __RNCNvXsw_NtCs6IAuOt8vWmF_3syn10punctuatedINtB7_11PrivateIterNtNtB9_4path11PathSegmentNtNtB9_5token7PathSepENtNtNtNtCsfvfooZQ3Axs_4core4iter6traits8iterator8Iterator4next0B9_, symObjAddr: 0x10164, symBinAddr: 0x77848, symSize: 0x24 }
  - { offset: 0xFC450, size: 0x8, addend: 0x0, symName: __RNCNvXsw_NtCs6IAuOt8vWmF_3syn10punctuatedINtB7_11PrivateIterNtNtB9_8generics12GenericParamNtNtB9_5token5CommaENtNtNtNtCsfvfooZQ3Axs_4core4iter6traits8iterator8Iterator4next0B9_, symObjAddr: 0x10188, symBinAddr: 0x7786C, symSize: 0x24 }
  - { offset: 0xFC49B, size: 0x8, addend: 0x0, symName: __RNCNvXsw_NtCs6IAuOt8vWmF_3syn10punctuatedINtB7_11PrivateIterNtNtB9_8generics14TypeParamBoundNtNtB9_5token4PlusENtNtNtNtCsfvfooZQ3Axs_4core4iter6traits8iterator8Iterator4next0B9_, symObjAddr: 0x101AC, symBinAddr: 0x77890, symSize: 0x24 }
  - { offset: 0xFC4E6, size: 0x8, addend: 0x0, symName: __RNCNvXsw_NtCs6IAuOt8vWmF_3syn10punctuatedINtB7_11PrivateIterNtNtB9_4data5FieldNtNtB9_5token5CommaENtNtNtNtCsfvfooZQ3Axs_4core4iter6traits8iterator8Iterator4nexts_0B9_, symObjAddr: 0x101D0, symBinAddr: 0x778B4, symSize: 0x34 }
  - { offset: 0xFC528, size: 0x8, addend: 0x0, symName: __RNCNvXsw_NtCs6IAuOt8vWmF_3syn10punctuatedINtB7_11PrivateIterNtNtB9_4path11PathSegmentNtNtB9_5token7PathSepENtNtNtNtCsfvfooZQ3Axs_4core4iter6traits8iterator8Iterator4nexts_0B9_, symObjAddr: 0x10238, symBinAddr: 0x778E8, symSize: 0x34 }
  - { offset: 0xFC56A, size: 0x8, addend: 0x0, symName: __RNCNvXsw_NtCs6IAuOt8vWmF_3syn10punctuatedINtB7_11PrivateIterNtNtB9_8generics12GenericParamNtNtB9_5token5CommaENtNtNtNtCsfvfooZQ3Axs_4core4iter6traits8iterator8Iterator4nexts_0B9_, symObjAddr: 0x1026C, symBinAddr: 0x7791C, symSize: 0x34 }
  - { offset: 0xFC5AC, size: 0x8, addend: 0x0, symName: __RNCNvXsw_NtCs6IAuOt8vWmF_3syn10punctuatedINtB7_11PrivateIterNtNtB9_8generics14TypeParamBoundNtNtB9_5token4PlusENtNtNtNtCsfvfooZQ3Axs_4core4iter6traits8iterator8Iterator4nexts_0B9_, symObjAddr: 0x102A0, symBinAddr: 0x77950, symSize: 0x34 }
  - { offset: 0xFC611, size: 0x8, addend: 0x0, symName: __RNvXsx_NtCs6IAuOt8vWmF_3syn10punctuatedINtB5_11PrivateIterNtNtB7_4data5FieldNtNtB7_5token5CommaENtNtNtNtCsfvfooZQ3Axs_4core4iter6traits12double_ended19DoubleEndedIterator9next_backB7_, symObjAddr: 0x102D4, symBinAddr: 0x77984, symSize: 0x40 }
  - { offset: 0xFC651, size: 0x8, addend: 0x0, symName: __RNvXsx_NtCs6IAuOt8vWmF_3syn10punctuatedINtB5_11PrivateIterNtNtB7_4path11PathSegmentNtNtB7_5token7PathSepENtNtNtNtCsfvfooZQ3Axs_4core4iter6traits12double_ended19DoubleEndedIterator9next_backB7_, symObjAddr: 0x10354, symBinAddr: 0x779C4, symSize: 0x40 }
  - { offset: 0xFC691, size: 0x8, addend: 0x0, symName: __RNvXsx_NtCs6IAuOt8vWmF_3syn10punctuatedINtB5_11PrivateIterNtNtB7_8generics12GenericParamNtNtB7_5token5CommaENtNtNtNtCsfvfooZQ3Axs_4core4iter6traits12double_ended19DoubleEndedIterator9next_backB7_, symObjAddr: 0x10394, symBinAddr: 0x77A04, symSize: 0x40 }
  - { offset: 0xFC6D1, size: 0x8, addend: 0x0, symName: __RNvXsx_NtCs6IAuOt8vWmF_3syn10punctuatedINtB5_11PrivateIterNtNtB7_8generics14TypeParamBoundNtNtB7_5token4PlusENtNtNtNtCsfvfooZQ3Axs_4core4iter6traits12double_ended19DoubleEndedIterator9next_backB7_, symObjAddr: 0x103D4, symBinAddr: 0x77A44, symSize: 0x40 }
  - { offset: 0xFC716, size: 0x8, addend: 0x0, symName: __RNCNvXsx_NtCs6IAuOt8vWmF_3syn10punctuatedINtB7_11PrivateIterNtNtB9_4data5FieldNtNtB9_5token5CommaENtNtNtNtCsfvfooZQ3Axs_4core4iter6traits12double_ended19DoubleEndedIterator9next_back0B9_, symObjAddr: 0x10414, symBinAddr: 0x77A84, symSize: 0x38 }
  - { offset: 0xFC758, size: 0x8, addend: 0x0, symName: __RNCNvXsx_NtCs6IAuOt8vWmF_3syn10punctuatedINtB7_11PrivateIterNtNtB9_4path11PathSegmentNtNtB9_5token7PathSepENtNtNtNtCsfvfooZQ3Axs_4core4iter6traits12double_ended19DoubleEndedIterator9next_back0B9_, symObjAddr: 0x10484, symBinAddr: 0x77ABC, symSize: 0x38 }
  - { offset: 0xFC79A, size: 0x8, addend: 0x0, symName: __RNCNvXsx_NtCs6IAuOt8vWmF_3syn10punctuatedINtB7_11PrivateIterNtNtB9_8generics12GenericParamNtNtB9_5token5CommaENtNtNtNtCsfvfooZQ3Axs_4core4iter6traits12double_ended19DoubleEndedIterator9next_back0B9_, symObjAddr: 0x104BC, symBinAddr: 0x77AF4, symSize: 0x38 }
  - { offset: 0xFC7DC, size: 0x8, addend: 0x0, symName: __RNCNvXsx_NtCs6IAuOt8vWmF_3syn10punctuatedINtB7_11PrivateIterNtNtB9_8generics14TypeParamBoundNtNtB9_5token4PlusENtNtNtNtCsfvfooZQ3Axs_4core4iter6traits12double_ended19DoubleEndedIterator9next_back0B9_, symObjAddr: 0x104F4, symBinAddr: 0x77B2C, symSize: 0x38 }
  - { offset: 0xFC823, size: 0x8, addend: 0x0, symName: __RNCNCNvXsx_NtCs6IAuOt8vWmF_3syn10punctuatedINtB9_11PrivateIterNtNtBb_4data5FieldNtNtBb_5token5CommaENtNtNtNtCsfvfooZQ3Axs_4core4iter6traits12double_ended19DoubleEndedIterator9next_back00Bb_, symObjAddr: 0x1052C, symBinAddr: 0x77B64, symSize: 0x24 }
  - { offset: 0xFC86E, size: 0x8, addend: 0x0, symName: __RNCNCNvXsx_NtCs6IAuOt8vWmF_3syn10punctuatedINtB9_11PrivateIterNtNtBb_4path11PathSegmentNtNtBb_5token7PathSepENtNtNtNtCsfvfooZQ3Axs_4core4iter6traits12double_ended19DoubleEndedIterator9next_back00Bb_, symObjAddr: 0x10574, symBinAddr: 0x77B88, symSize: 0x24 }
  - { offset: 0xFC8B9, size: 0x8, addend: 0x0, symName: __RNCNCNvXsx_NtCs6IAuOt8vWmF_3syn10punctuatedINtB9_11PrivateIterNtNtBb_8generics12GenericParamNtNtBb_5token5CommaENtNtNtNtCsfvfooZQ3Axs_4core4iter6traits12double_ended19DoubleEndedIterator9next_back00Bb_, symObjAddr: 0x10598, symBinAddr: 0x77BAC, symSize: 0x24 }
  - { offset: 0xFC904, size: 0x8, addend: 0x0, symName: __RNCNCNvXsx_NtCs6IAuOt8vWmF_3syn10punctuatedINtB9_11PrivateIterNtNtBb_8generics14TypeParamBoundNtNtBb_5token4PlusENtNtNtNtCsfvfooZQ3Axs_4core4iter6traits12double_ended19DoubleEndedIterator9next_back00Bb_, symObjAddr: 0x105BC, symBinAddr: 0x77BD0, symSize: 0x24 }
  - { offset: 0xFC973, size: 0x8, addend: 0x0, symName: __RNvXsy_NtCs6IAuOt8vWmF_3syn10punctuatedINtB5_11PrivateIterNtNtB7_4data5FieldNtNtB7_5token5CommaENtNtNtNtCsfvfooZQ3Axs_4core4iter6traits10exact_size17ExactSizeIterator3lenB7_, symObjAddr: 0x105E0, symBinAddr: 0x77BF4, symSize: 0x94 }
  - { offset: 0xFC9E7, size: 0x8, addend: 0x0, symName: __RNvXsy_NtCs6IAuOt8vWmF_3syn10punctuatedINtB5_11PrivateIterNtNtB7_4path11PathSegmentNtNtB7_5token7PathSepENtNtNtNtCsfvfooZQ3Axs_4core4iter6traits10exact_size17ExactSizeIterator3lenB7_, symObjAddr: 0x10708, symBinAddr: 0x77C88, symSize: 0x94 }
  - { offset: 0xFCA5B, size: 0x8, addend: 0x0, symName: __RNvXsy_NtCs6IAuOt8vWmF_3syn10punctuatedINtB5_11PrivateIterNtNtB7_8generics12GenericParamNtNtB7_5token5CommaENtNtNtNtCsfvfooZQ3Axs_4core4iter6traits10exact_size17ExactSizeIterator3lenB7_, symObjAddr: 0x1079C, symBinAddr: 0x77D1C, symSize: 0x94 }
  - { offset: 0xFCACF, size: 0x8, addend: 0x0, symName: __RNvXsy_NtCs6IAuOt8vWmF_3syn10punctuatedINtB5_11PrivateIterNtNtB7_8generics14TypeParamBoundNtNtB7_5token4PlusENtNtNtNtCsfvfooZQ3Axs_4core4iter6traits10exact_size17ExactSizeIterator3lenB7_, symObjAddr: 0x10830, symBinAddr: 0x77DB0, symSize: 0x94 }
  - { offset: 0xFCB49, size: 0x8, addend: 0x0, symName: __RNvXsz_NtCs6IAuOt8vWmF_3syn10punctuatedINtB5_11PrivateIterNtNtB7_4data5FieldNtNtB7_5token5CommaENtNtCsfvfooZQ3Axs_4core5clone5Clone5cloneB7_, symObjAddr: 0x108C4, symBinAddr: 0x77E44, symSize: 0x68 }
  - { offset: 0xFCB89, size: 0x8, addend: 0x0, symName: __RNvXsz_NtCs6IAuOt8vWmF_3syn10punctuatedINtB5_11PrivateIterNtNtB7_4path11PathSegmentNtNtB7_5token7PathSepENtNtCsfvfooZQ3Axs_4core5clone5Clone5cloneB7_, symObjAddr: 0x10994, symBinAddr: 0x77EAC, symSize: 0x68 }
  - { offset: 0xFCBC9, size: 0x8, addend: 0x0, symName: __RNvXsz_NtCs6IAuOt8vWmF_3syn10punctuatedINtB5_11PrivateIterNtNtB7_8generics12GenericParamNtNtB7_5token5CommaENtNtCsfvfooZQ3Axs_4core5clone5Clone5cloneB7_, symObjAddr: 0x109FC, symBinAddr: 0x77F14, symSize: 0x68 }
  - { offset: 0xFCC09, size: 0x8, addend: 0x0, symName: __RNvXsz_NtCs6IAuOt8vWmF_3syn10punctuatedINtB5_11PrivateIterNtNtB7_8generics14TypeParamBoundNtNtB7_5token4PlusENtNtCsfvfooZQ3Axs_4core5clone5Clone5cloneB7_, symObjAddr: 0x10A64, symBinAddr: 0x77F7C, symSize: 0x68 }
  - { offset: 0xFCC4F, size: 0x8, addend: 0x0, symName: __RNvXsA_NtCs6IAuOt8vWmF_3syn10punctuatedINtB5_11PrivateIterNtNtB7_4data5FieldNtNtB7_5token5CommaEINtB5_9IterTraitBU_E9clone_boxB7_, symObjAddr: 0x10ACC, symBinAddr: 0x77FE4, symSize: 0x94 }
  - { offset: 0xFCCAD, size: 0x8, addend: 0x0, symName: __RNvXsA_NtCs6IAuOt8vWmF_3syn10punctuatedINtB5_11PrivateIterNtNtB7_4path11PathSegmentNtNtB7_5token7PathSepEINtB5_9IterTraitBU_E9clone_boxB7_, symObjAddr: 0x10BF4, symBinAddr: 0x78078, symSize: 0x94 }
  - { offset: 0xFCD0B, size: 0x8, addend: 0x0, symName: __RNvXsA_NtCs6IAuOt8vWmF_3syn10punctuatedINtB5_11PrivateIterNtNtB7_8generics12GenericParamNtNtB7_5token5CommaEINtB5_9IterTraitBU_E9clone_boxB7_, symObjAddr: 0x10C88, symBinAddr: 0x7810C, symSize: 0x94 }
  - { offset: 0xFCD69, size: 0x8, addend: 0x0, symName: __RNvXsA_NtCs6IAuOt8vWmF_3syn10punctuatedINtB5_11PrivateIterNtNtB7_8generics14TypeParamBoundNtNtB7_5token4PlusEINtB5_9IterTraitBU_E9clone_boxB7_, symObjAddr: 0x10D1C, symBinAddr: 0x781A0, symSize: 0x94 }
  - { offset: 0xFCDC8, size: 0x8, addend: 0x0, symName: __RINvNtCs6IAuOt8vWmF_3syn10punctuated25empty_punctuated_iter_mutNtNtB4_4data5FieldEB4_, symObjAddr: 0x10DB0, symBinAddr: 0x78234, symSize: 0x68 }
  - { offset: 0xFCE0A, size: 0x8, addend: 0x0, symName: __RNvXsD_NtCs6IAuOt8vWmF_3syn10punctuatedINtB5_7IterMutNtNtB7_4path11PathSegmentENtNtNtNtCsfvfooZQ3Axs_4core4iter6traits12double_ended19DoubleEndedIterator9next_backB7_, symObjAddr: 0x10E60, symBinAddr: 0x7829C, symSize: 0x48 }
  - { offset: 0xFCE47, size: 0x8, addend: 0x0, symName: __RNvXsF_NtCs6IAuOt8vWmF_3syn10punctuatedINtB5_14PrivateIterMutNtNtB7_4data5FieldNtNtB7_5token5CommaENtNtNtNtCsfvfooZQ3Axs_4core4iter6traits8iterator8Iterator4nextB7_, symObjAddr: 0x10EA8, symBinAddr: 0x782E4, symSize: 0x44 }
  - { offset: 0xFCE87, size: 0x8, addend: 0x0, symName: __RNvXsF_NtCs6IAuOt8vWmF_3syn10punctuatedINtB5_14PrivateIterMutNtNtB7_4path11PathSegmentNtNtB7_5token7PathSepENtNtNtNtCsfvfooZQ3Axs_4core4iter6traits8iterator8Iterator4nextB7_, symObjAddr: 0x10EEC, symBinAddr: 0x78328, symSize: 0x44 }
  - { offset: 0xFCECC, size: 0x8, addend: 0x0, symName: __RNCNvXsF_NtCs6IAuOt8vWmF_3syn10punctuatedINtB7_14PrivateIterMutNtNtB9_4data5FieldNtNtB9_5token5CommaENtNtNtNtCsfvfooZQ3Axs_4core4iter6traits8iterator8Iterator4next0B9_, symObjAddr: 0x10F74, symBinAddr: 0x7836C, symSize: 0x24 }
  - { offset: 0xFCF17, size: 0x8, addend: 0x0, symName: __RNCNvXsF_NtCs6IAuOt8vWmF_3syn10punctuatedINtB7_14PrivateIterMutNtNtB9_4path11PathSegmentNtNtB9_5token7PathSepENtNtNtNtCsfvfooZQ3Axs_4core4iter6traits8iterator8Iterator4next0B9_, symObjAddr: 0x10F98, symBinAddr: 0x78390, symSize: 0x24 }
  - { offset: 0xFCF62, size: 0x8, addend: 0x0, symName: __RNCNvXsF_NtCs6IAuOt8vWmF_3syn10punctuatedINtB7_14PrivateIterMutNtNtB9_4data5FieldNtNtB9_5token5CommaENtNtNtNtCsfvfooZQ3Axs_4core4iter6traits8iterator8Iterator4nexts_0B9_, symObjAddr: 0x10FE0, symBinAddr: 0x783B4, symSize: 0x34 }
  - { offset: 0xFCFA4, size: 0x8, addend: 0x0, symName: __RNCNvXsF_NtCs6IAuOt8vWmF_3syn10punctuatedINtB7_14PrivateIterMutNtNtB9_4path11PathSegmentNtNtB9_5token7PathSepENtNtNtNtCsfvfooZQ3Axs_4core4iter6traits8iterator8Iterator4nexts_0B9_, symObjAddr: 0x11014, symBinAddr: 0x783E8, symSize: 0x34 }
  - { offset: 0xFCFFB, size: 0x8, addend: 0x0, symName: __RNvXsG_NtCs6IAuOt8vWmF_3syn10punctuatedINtB5_14PrivateIterMutNtNtB7_4data5FieldNtNtB7_5token5CommaENtNtNtNtCsfvfooZQ3Axs_4core4iter6traits12double_ended19DoubleEndedIterator9next_backB7_, symObjAddr: 0x1107C, symBinAddr: 0x7841C, symSize: 0x40 }
  - { offset: 0xFD03B, size: 0x8, addend: 0x0, symName: __RNvXsG_NtCs6IAuOt8vWmF_3syn10punctuatedINtB5_14PrivateIterMutNtNtB7_4path11PathSegmentNtNtB7_5token7PathSepENtNtNtNtCsfvfooZQ3Axs_4core4iter6traits12double_ended19DoubleEndedIterator9next_backB7_, symObjAddr: 0x110BC, symBinAddr: 0x7845C, symSize: 0x40 }
  - { offset: 0xFD080, size: 0x8, addend: 0x0, symName: __RNCNvXsG_NtCs6IAuOt8vWmF_3syn10punctuatedINtB7_14PrivateIterMutNtNtB9_4data5FieldNtNtB9_5token5CommaENtNtNtNtCsfvfooZQ3Axs_4core4iter6traits12double_ended19DoubleEndedIterator9next_back0B9_, symObjAddr: 0x1113C, symBinAddr: 0x7849C, symSize: 0x38 }
  - { offset: 0xFD0C2, size: 0x8, addend: 0x0, symName: __RNCNvXsG_NtCs6IAuOt8vWmF_3syn10punctuatedINtB7_14PrivateIterMutNtNtB9_4path11PathSegmentNtNtB9_5token7PathSepENtNtNtNtCsfvfooZQ3Axs_4core4iter6traits12double_ended19DoubleEndedIterator9next_back0B9_, symObjAddr: 0x11174, symBinAddr: 0x784D4, symSize: 0x38 }
  - { offset: 0xFD109, size: 0x8, addend: 0x0, symName: __RNCNCNvXsG_NtCs6IAuOt8vWmF_3syn10punctuatedINtB9_14PrivateIterMutNtNtBb_4data5FieldNtNtBb_5token5CommaENtNtNtNtCsfvfooZQ3Axs_4core4iter6traits12double_ended19DoubleEndedIterator9next_back00Bb_, symObjAddr: 0x111E4, symBinAddr: 0x7850C, symSize: 0x24 }
  - { offset: 0xFD154, size: 0x8, addend: 0x0, symName: __RNCNCNvXsG_NtCs6IAuOt8vWmF_3syn10punctuatedINtB9_14PrivateIterMutNtNtBb_4path11PathSegmentNtNtBb_5token7PathSepENtNtNtNtCsfvfooZQ3Axs_4core4iter6traits12double_ended19DoubleEndedIterator9next_back00Bb_, symObjAddr: 0x11208, symBinAddr: 0x78530, symSize: 0x24 }
  - { offset: 0xFD1B5, size: 0x8, addend: 0x0, symName: __RNvXsH_NtCs6IAuOt8vWmF_3syn10punctuatedINtB5_14PrivateIterMutNtNtB7_4data5FieldNtNtB7_5token5CommaENtNtNtNtCsfvfooZQ3Axs_4core4iter6traits10exact_size17ExactSizeIterator3lenB7_, symObjAddr: 0x11250, symBinAddr: 0x78554, symSize: 0x94 }
  - { offset: 0xFD229, size: 0x8, addend: 0x0, symName: __RNvXsH_NtCs6IAuOt8vWmF_3syn10punctuatedINtB5_14PrivateIterMutNtNtB7_4path11PathSegmentNtNtB7_5token7PathSepENtNtNtNtCsfvfooZQ3Axs_4core4iter6traits10exact_size17ExactSizeIterator3lenB7_, symObjAddr: 0x112E4, symBinAddr: 0x785E8, symSize: 0x94 }
  - { offset: 0xFD2A8, size: 0x8, addend: 0x0, symName: __RNcNtINtNtCs6IAuOt8vWmF_3syn10punctuated4PairNtNtB8_4path11PathSegmentNtNtB8_5token7PathSepE3End0B8_, symObjAddr: 0x1140C, symBinAddr: 0x7867C, symSize: 0x40 }
  - { offset: 0xFD2E5, size: 0x8, addend: 0x0, symName: __RNcNtINtNtCs6IAuOt8vWmF_3syn10punctuated4PairRNtNtB8_2ty4TypeRNtNtB8_5token5CommaE3End0B8_, symObjAddr: 0x1144C, symBinAddr: 0x786BC, symSize: 0x1C }
  - { offset: 0xFD321, size: 0x8, addend: 0x0, symName: __RNcNtINtNtCs6IAuOt8vWmF_3syn10punctuated4PairRNtNtB8_2ty9BareFnArgRNtNtB8_5token5CommaE3End0B8_, symObjAddr: 0x11468, symBinAddr: 0x786D8, symSize: 0x1C }
  - { offset: 0xFD35D, size: 0x8, addend: 0x0, symName: __RNcNtINtNtCs6IAuOt8vWmF_3syn10punctuated4PairRNtNtB8_3pat3PatRNtNtB8_5token2OrE3End0B8_, symObjAddr: 0x11484, symBinAddr: 0x786F4, symSize: 0x1C }
  - { offset: 0xFD399, size: 0x8, addend: 0x0, symName: __RNcNtINtNtCs6IAuOt8vWmF_3syn10punctuated4PairRNtNtB8_3pat3PatRNtNtB8_5token5CommaE3End0B8_, symObjAddr: 0x114A0, symBinAddr: 0x78710, symSize: 0x1C }
  - { offset: 0xFD3D5, size: 0x8, addend: 0x0, symName: __RNcNtINtNtCs6IAuOt8vWmF_3syn10punctuated4PairRNtNtB8_3pat8FieldPatRNtNtB8_5token5CommaE3End0B8_, symObjAddr: 0x114BC, symBinAddr: 0x7872C, symSize: 0x1C }
  - { offset: 0xFD411, size: 0x8, addend: 0x0, symName: __RNcNtINtNtCs6IAuOt8vWmF_3syn10punctuated4PairRNtNtB8_4data5FieldRNtNtB8_5token5CommaE3End0B8_, symObjAddr: 0x114D8, symBinAddr: 0x78748, symSize: 0x1C }
  - { offset: 0xFD44D, size: 0x8, addend: 0x0, symName: __RNcNtINtNtCs6IAuOt8vWmF_3syn10punctuated4PairRNtNtB8_4data7VariantRNtNtB8_5token5CommaE3End0B8_, symObjAddr: 0x114F4, symBinAddr: 0x78764, symSize: 0x1C }
  - { offset: 0xFD489, size: 0x8, addend: 0x0, symName: __RNcNtINtNtCs6IAuOt8vWmF_3syn10punctuated4PairRNtNtB8_4expr10FieldValueRNtNtB8_5token5CommaE3End0B8_, symObjAddr: 0x11510, symBinAddr: 0x78780, symSize: 0x1C }
  - { offset: 0xFD4C5, size: 0x8, addend: 0x0, symName: __RNcNtINtNtCs6IAuOt8vWmF_3syn10punctuated4PairRNtNtB8_4expr4ExprRNtNtB8_5token5CommaE3End0B8_, symObjAddr: 0x1152C, symBinAddr: 0x7879C, symSize: 0x1C }
  - { offset: 0xFD501, size: 0x8, addend: 0x0, symName: __RNcNtINtNtCs6IAuOt8vWmF_3syn10punctuated4PairRNtNtB8_4item5FnArgRNtNtB8_5token5CommaE3End0B8_, symObjAddr: 0x11548, symBinAddr: 0x787B8, symSize: 0x1C }
  - { offset: 0xFD53D, size: 0x8, addend: 0x0, symName: __RNcNtINtNtCs6IAuOt8vWmF_3syn10punctuated4PairRNtNtB8_4item7UseTreeRNtNtB8_5token5CommaE3End0B8_, symObjAddr: 0x11564, symBinAddr: 0x787D4, symSize: 0x1C }
  - { offset: 0xFD579, size: 0x8, addend: 0x0, symName: __RNcNtINtNtCs6IAuOt8vWmF_3syn10punctuated4PairRNtNtB8_4path11PathSegmentRNtNtB8_5token7PathSepE3End0B8_, symObjAddr: 0x11580, symBinAddr: 0x787F0, symSize: 0x1C }
  - { offset: 0xFD5B5, size: 0x8, addend: 0x0, symName: __RNcNtINtNtCs6IAuOt8vWmF_3syn10punctuated4PairRNtNtB8_4path15GenericArgumentRNtNtB8_5token5CommaE3End0B8_, symObjAddr: 0x1159C, symBinAddr: 0x7880C, symSize: 0x1C }
  - { offset: 0xFD5F1, size: 0x8, addend: 0x0, symName: __RNcNtINtNtCs6IAuOt8vWmF_3syn10punctuated4PairRNtNtB8_8generics12GenericParamRNtNtB8_5token5CommaE3End0B8_, symObjAddr: 0x115B8, symBinAddr: 0x78828, symSize: 0x1C }
  - { offset: 0xFD62D, size: 0x8, addend: 0x0, symName: __RNcNtINtNtCs6IAuOt8vWmF_3syn10punctuated4PairRNtNtB8_8generics13CapturedParamRNtNtB8_5token5CommaE3End0B8_, symObjAddr: 0x115D4, symBinAddr: 0x78844, symSize: 0x1C }
  - { offset: 0xFD669, size: 0x8, addend: 0x0, symName: __RNcNtINtNtCs6IAuOt8vWmF_3syn10punctuated4PairRNtNtB8_8generics14TypeParamBoundRNtNtB8_5token4PlusE3End0B8_, symObjAddr: 0x115F0, symBinAddr: 0x78860, symSize: 0x1C }
  - { offset: 0xFD6A5, size: 0x8, addend: 0x0, symName: __RNcNtINtNtCs6IAuOt8vWmF_3syn10punctuated4PairRNtNtB8_8generics14WherePredicateRNtNtB8_5token5CommaE3End0B8_, symObjAddr: 0x1160C, symBinAddr: 0x7887C, symSize: 0x1C }
  - { offset: 0xFD6E1, size: 0x8, addend: 0x0, symName: __RNcNtINtNtCs6IAuOt8vWmF_3syn10punctuated4PairRNtNtB8_8lifetime8LifetimeRNtNtB8_5token4PlusE3End0B8_, symObjAddr: 0x11628, symBinAddr: 0x78898, symSize: 0x1C }
  - { offset: 0xFDA90, size: 0x8, addend: 0x0, symName: __RNvXsN_NtCs6IAuOt8vWmF_3syn10punctuatedINtB5_10PunctuatedNtNtB7_3pat3PatNtNtB7_5token5CommaEINtNtNtCsfvfooZQ3Axs_4core3ops5index5IndexjE5indexB7_, symObjAddr: 0x11AC8, symBinAddr: 0x78D38, symSize: 0x134 }
  - { offset: 0xFDAF5, size: 0x8, addend: 0x0, symName: __RNvXsN_NtCs6IAuOt8vWmF_3syn10punctuatedINtB5_10PunctuatedNtNtB7_4path11PathSegmentNtNtB7_5token7PathSepEINtNtNtCsfvfooZQ3Axs_4core3ops5index5IndexjE5indexB7_, symObjAddr: 0x11BFC, symBinAddr: 0x78E6C, symSize: 0x134 }
  - { offset: 0xFDB65, size: 0x8, addend: 0x0, symName: __RNvXNtNtCs6IAuOt8vWmF_3syn10punctuated8printingINtB4_10PunctuatedNtNtB6_2ty4TypeNtNtB6_5token5CommaENtNtCs2cqEZUIJimJ_5quote9to_tokens8ToTokens9to_tokensB6_, symObjAddr: 0x11D30, symBinAddr: 0x78FA0, symSize: 0x50 }
  - { offset: 0xFDBB0, size: 0x8, addend: 0x0, symName: __RNvXNtNtCs6IAuOt8vWmF_3syn10punctuated8printingINtB4_10PunctuatedNtNtB6_2ty9BareFnArgNtNtB6_5token5CommaENtNtCs2cqEZUIJimJ_5quote9to_tokens8ToTokens9to_tokensB6_, symObjAddr: 0x11D80, symBinAddr: 0x78FF0, symSize: 0x50 }
  - { offset: 0xFDBFB, size: 0x8, addend: 0x0, symName: __RNvXNtNtCs6IAuOt8vWmF_3syn10punctuated8printingINtB4_10PunctuatedNtNtB6_3pat3PatNtNtB6_5token2OrENtNtCs2cqEZUIJimJ_5quote9to_tokens8ToTokens9to_tokensB6_, symObjAddr: 0x11DD0, symBinAddr: 0x79040, symSize: 0x50 }
  - { offset: 0xFDC46, size: 0x8, addend: 0x0, symName: __RNvXNtNtCs6IAuOt8vWmF_3syn10punctuated8printingINtB4_10PunctuatedNtNtB6_3pat3PatNtNtB6_5token5CommaENtNtCs2cqEZUIJimJ_5quote9to_tokens8ToTokens9to_tokensB6_, symObjAddr: 0x11E20, symBinAddr: 0x79090, symSize: 0x50 }
  - { offset: 0xFDC91, size: 0x8, addend: 0x0, symName: __RNvXNtNtCs6IAuOt8vWmF_3syn10punctuated8printingINtB4_10PunctuatedNtNtB6_3pat8FieldPatNtNtB6_5token5CommaENtNtCs2cqEZUIJimJ_5quote9to_tokens8ToTokens9to_tokensB6_, symObjAddr: 0x11E70, symBinAddr: 0x790E0, symSize: 0x50 }
  - { offset: 0xFDCDC, size: 0x8, addend: 0x0, symName: __RNvXNtNtCs6IAuOt8vWmF_3syn10punctuated8printingINtB4_10PunctuatedNtNtB6_4data5FieldNtNtB6_5token5CommaENtNtCs2cqEZUIJimJ_5quote9to_tokens8ToTokens9to_tokensB6_, symObjAddr: 0x11EC0, symBinAddr: 0x79130, symSize: 0x50 }
  - { offset: 0xFDD27, size: 0x8, addend: 0x0, symName: __RNvXNtNtCs6IAuOt8vWmF_3syn10punctuated8printingINtB4_10PunctuatedNtNtB6_4data7VariantNtNtB6_5token5CommaENtNtCs2cqEZUIJimJ_5quote9to_tokens8ToTokens9to_tokensB6_, symObjAddr: 0x11F10, symBinAddr: 0x79180, symSize: 0x50 }
  - { offset: 0xFDD72, size: 0x8, addend: 0x0, symName: __RNvXNtNtCs6IAuOt8vWmF_3syn10punctuated8printingINtB4_10PunctuatedNtNtB6_4expr10FieldValueNtNtB6_5token5CommaENtNtCs2cqEZUIJimJ_5quote9to_tokens8ToTokens9to_tokensB6_, symObjAddr: 0x11F60, symBinAddr: 0x791D0, symSize: 0x50 }
  - { offset: 0xFDDBD, size: 0x8, addend: 0x0, symName: __RNvXNtNtCs6IAuOt8vWmF_3syn10punctuated8printingINtB4_10PunctuatedNtNtB6_4expr4ExprNtNtB6_5token5CommaENtNtCs2cqEZUIJimJ_5quote9to_tokens8ToTokens9to_tokensB6_, symObjAddr: 0x11FB0, symBinAddr: 0x79220, symSize: 0x50 }
  - { offset: 0xFDE08, size: 0x8, addend: 0x0, symName: __RNvXNtNtCs6IAuOt8vWmF_3syn10punctuated8printingINtB4_10PunctuatedNtNtB6_4item5FnArgNtNtB6_5token5CommaENtNtCs2cqEZUIJimJ_5quote9to_tokens8ToTokens9to_tokensB6_, symObjAddr: 0x12000, symBinAddr: 0x79270, symSize: 0x50 }
  - { offset: 0xFDE53, size: 0x8, addend: 0x0, symName: __RNvXNtNtCs6IAuOt8vWmF_3syn10punctuated8printingINtB4_10PunctuatedNtNtB6_4item7UseTreeNtNtB6_5token5CommaENtNtCs2cqEZUIJimJ_5quote9to_tokens8ToTokens9to_tokensB6_, symObjAddr: 0x12050, symBinAddr: 0x792C0, symSize: 0x50 }
  - { offset: 0xFDE9E, size: 0x8, addend: 0x0, symName: __RNvXNtNtCs6IAuOt8vWmF_3syn10punctuated8printingINtB4_10PunctuatedNtNtB6_8generics12GenericParamNtNtB6_5token5CommaENtNtCs2cqEZUIJimJ_5quote9to_tokens8ToTokens9to_tokensB6_, symObjAddr: 0x120A0, symBinAddr: 0x79310, symSize: 0x50 }
  - { offset: 0xFDEE9, size: 0x8, addend: 0x0, symName: __RNvXNtNtCs6IAuOt8vWmF_3syn10punctuated8printingINtB4_10PunctuatedNtNtB6_8generics14TypeParamBoundNtNtB6_5token4PlusENtNtCs2cqEZUIJimJ_5quote9to_tokens8ToTokens9to_tokensB6_, symObjAddr: 0x120F0, symBinAddr: 0x79360, symSize: 0x50 }
  - { offset: 0xFDF34, size: 0x8, addend: 0x0, symName: __RNvXNtNtCs6IAuOt8vWmF_3syn10punctuated8printingINtB4_10PunctuatedNtNtB6_8generics14WherePredicateNtNtB6_5token5CommaENtNtCs2cqEZUIJimJ_5quote9to_tokens8ToTokens9to_tokensB6_, symObjAddr: 0x12140, symBinAddr: 0x793B0, symSize: 0x50 }
  - { offset: 0xFDF7F, size: 0x8, addend: 0x0, symName: __RNvXNtNtCs6IAuOt8vWmF_3syn10punctuated8printingINtB4_10PunctuatedNtNtB6_8lifetime8LifetimeNtNtB6_5token4PlusENtNtCs2cqEZUIJimJ_5quote9to_tokens8ToTokens9to_tokensB6_, symObjAddr: 0x12190, symBinAddr: 0x79400, symSize: 0x50 }
  - { offset: 0xFDFD0, size: 0x8, addend: 0x0, symName: __RNvXs_NtNtCs6IAuOt8vWmF_3syn10punctuated8printingINtB6_4PairRNtNtB8_2ty4TypeRNtNtB8_5token5CommaENtNtCs2cqEZUIJimJ_5quote9to_tokens8ToTokens9to_tokensB8_, symObjAddr: 0x121E0, symBinAddr: 0x79450, symSize: 0xB4 }
  - { offset: 0xFE05F, size: 0x8, addend: 0x0, symName: __RNvXs_NtNtCs6IAuOt8vWmF_3syn10punctuated8printingINtB6_4PairRNtNtB8_2ty9BareFnArgRNtNtB8_5token5CommaENtNtCs2cqEZUIJimJ_5quote9to_tokens8ToTokens9to_tokensB8_, symObjAddr: 0x12294, symBinAddr: 0x79504, symSize: 0xB4 }
  - { offset: 0xFE0EE, size: 0x8, addend: 0x0, symName: __RNvXs_NtNtCs6IAuOt8vWmF_3syn10punctuated8printingINtB6_4PairRNtNtB8_3pat3PatRNtNtB8_5token2OrENtNtCs2cqEZUIJimJ_5quote9to_tokens8ToTokens9to_tokensB8_, symObjAddr: 0x12348, symBinAddr: 0x795B8, symSize: 0xB4 }
  - { offset: 0xFE17D, size: 0x8, addend: 0x0, symName: __RNvXs_NtNtCs6IAuOt8vWmF_3syn10punctuated8printingINtB6_4PairRNtNtB8_3pat3PatRNtNtB8_5token5CommaENtNtCs2cqEZUIJimJ_5quote9to_tokens8ToTokens9to_tokensB8_, symObjAddr: 0x123FC, symBinAddr: 0x7966C, symSize: 0xB4 }
  - { offset: 0xFE20C, size: 0x8, addend: 0x0, symName: __RNvXs_NtNtCs6IAuOt8vWmF_3syn10punctuated8printingINtB6_4PairRNtNtB8_3pat8FieldPatRNtNtB8_5token5CommaENtNtCs2cqEZUIJimJ_5quote9to_tokens8ToTokens9to_tokensB8_, symObjAddr: 0x124B0, symBinAddr: 0x79720, symSize: 0xB4 }
  - { offset: 0xFE29B, size: 0x8, addend: 0x0, symName: __RNvXs_NtNtCs6IAuOt8vWmF_3syn10punctuated8printingINtB6_4PairRNtNtB8_4data5FieldRNtNtB8_5token5CommaENtNtCs2cqEZUIJimJ_5quote9to_tokens8ToTokens9to_tokensB8_, symObjAddr: 0x12564, symBinAddr: 0x797D4, symSize: 0xB4 }
  - { offset: 0xFE32A, size: 0x8, addend: 0x0, symName: __RNvXs_NtNtCs6IAuOt8vWmF_3syn10punctuated8printingINtB6_4PairRNtNtB8_4data7VariantRNtNtB8_5token5CommaENtNtCs2cqEZUIJimJ_5quote9to_tokens8ToTokens9to_tokensB8_, symObjAddr: 0x12618, symBinAddr: 0x79888, symSize: 0xB4 }
  - { offset: 0xFE3B9, size: 0x8, addend: 0x0, symName: __RNvXs_NtNtCs6IAuOt8vWmF_3syn10punctuated8printingINtB6_4PairRNtNtB8_4expr10FieldValueRNtNtB8_5token5CommaENtNtCs2cqEZUIJimJ_5quote9to_tokens8ToTokens9to_tokensB8_, symObjAddr: 0x126CC, symBinAddr: 0x7993C, symSize: 0xB4 }
  - { offset: 0xFE448, size: 0x8, addend: 0x0, symName: __RNvXs_NtNtCs6IAuOt8vWmF_3syn10punctuated8printingINtB6_4PairRNtNtB8_4expr4ExprRNtNtB8_5token5CommaENtNtCs2cqEZUIJimJ_5quote9to_tokens8ToTokens9to_tokensB8_, symObjAddr: 0x12780, symBinAddr: 0x799F0, symSize: 0xB4 }
  - { offset: 0xFE4D7, size: 0x8, addend: 0x0, symName: __RNvXs_NtNtCs6IAuOt8vWmF_3syn10punctuated8printingINtB6_4PairRNtNtB8_4item5FnArgRNtNtB8_5token5CommaENtNtCs2cqEZUIJimJ_5quote9to_tokens8ToTokens9to_tokensB8_, symObjAddr: 0x12834, symBinAddr: 0x79AA4, symSize: 0xB4 }
  - { offset: 0xFE566, size: 0x8, addend: 0x0, symName: __RNvXs_NtNtCs6IAuOt8vWmF_3syn10punctuated8printingINtB6_4PairRNtNtB8_4item7UseTreeRNtNtB8_5token5CommaENtNtCs2cqEZUIJimJ_5quote9to_tokens8ToTokens9to_tokensB8_, symObjAddr: 0x128E8, symBinAddr: 0x79B58, symSize: 0xB4 }
  - { offset: 0xFE5F5, size: 0x8, addend: 0x0, symName: __RNvXs_NtNtCs6IAuOt8vWmF_3syn10punctuated8printingINtB6_4PairRNtNtB8_4path15GenericArgumentRNtNtB8_5token5CommaENtNtCs2cqEZUIJimJ_5quote9to_tokens8ToTokens9to_tokensB8_, symObjAddr: 0x1299C, symBinAddr: 0x79C0C, symSize: 0xB4 }
  - { offset: 0xFE684, size: 0x8, addend: 0x0, symName: __RNvXs_NtNtCs6IAuOt8vWmF_3syn10punctuated8printingINtB6_4PairRNtNtB8_8generics12GenericParamRNtNtB8_5token5CommaENtNtCs2cqEZUIJimJ_5quote9to_tokens8ToTokens9to_tokensB8_, symObjAddr: 0x12A50, symBinAddr: 0x79CC0, symSize: 0xB4 }
  - { offset: 0xFE713, size: 0x8, addend: 0x0, symName: __RNvXs_NtNtCs6IAuOt8vWmF_3syn10punctuated8printingINtB6_4PairRNtNtB8_8generics13CapturedParamRNtNtB8_5token5CommaENtNtCs2cqEZUIJimJ_5quote9to_tokens8ToTokens9to_tokensB8_, symObjAddr: 0x12B04, symBinAddr: 0x79D74, symSize: 0xB4 }
  - { offset: 0xFE7A2, size: 0x8, addend: 0x0, symName: __RNvXs_NtNtCs6IAuOt8vWmF_3syn10punctuated8printingINtB6_4PairRNtNtB8_8generics14TypeParamBoundRNtNtB8_5token4PlusENtNtCs2cqEZUIJimJ_5quote9to_tokens8ToTokens9to_tokensB8_, symObjAddr: 0x12BB8, symBinAddr: 0x79E28, symSize: 0xB4 }
  - { offset: 0xFE831, size: 0x8, addend: 0x0, symName: __RNvXs_NtNtCs6IAuOt8vWmF_3syn10punctuated8printingINtB6_4PairRNtNtB8_8generics14WherePredicateRNtNtB8_5token5CommaENtNtCs2cqEZUIJimJ_5quote9to_tokens8ToTokens9to_tokensB8_, symObjAddr: 0x12C6C, symBinAddr: 0x79EDC, symSize: 0xB4 }
  - { offset: 0xFE8C0, size: 0x8, addend: 0x0, symName: __RNvXs_NtNtCs6IAuOt8vWmF_3syn10punctuated8printingINtB6_4PairRNtNtB8_8lifetime8LifetimeRNtNtB8_5token4PlusENtNtCs2cqEZUIJimJ_5quote9to_tokens8ToTokens9to_tokensB8_, symObjAddr: 0x12D20, symBinAddr: 0x79F90, symSize: 0xB4 }
  - { offset: 0xFFAFD, size: 0x8, addend: 0x0, symName: __RNvXsq_NtCs6IAuOt8vWmF_3syn5tokenNtNtB7_8lifetime8LifetimeNtB5_5Token4peek, symObjAddr: 0x13338, symBinAddr: 0x7A07C, symSize: 0x88 }
  - { offset: 0xFFB29, size: 0x8, addend: 0x0, symName: __RNvXsq_NtCs6IAuOt8vWmF_3syn5tokenNtNtB7_8lifetime8LifetimeNtB5_5Token7display, symObjAddr: 0x133C0, symBinAddr: 0x7A104, symSize: 0x24 }
  - { offset: 0xFFF01, size: 0x8, addend: 0x0, symName: __RNvXs0_NtCs6IAuOt8vWmF_3syn8lifetimeNtB5_8LifetimeNtNtCsfvfooZQ3Axs_4core5clone5Clone5clone, symObjAddr: 0x3030, symBinAddr: 0x6C1F4, symSize: 0x60 }
  - { offset: 0xFFF38, size: 0x8, addend: 0x0, symName: __RNvXNtNtCs6IAuOt8vWmF_3syn8lifetime7parsingNtB4_8LifetimeNtNtB6_5parse5Parse5parse, symObjAddr: 0x314C, symBinAddr: 0x6C254, symSize: 0x34 }
  - { offset: 0xFFF70, size: 0x8, addend: 0x0, symName: __RNvXNtNtCs6IAuOt8vWmF_3syn8lifetime8printingNtB4_8LifetimeNtNtCs2cqEZUIJimJ_5quote9to_tokens8ToTokens9to_tokens, symObjAddr: 0x3180, symBinAddr: 0x6C288, symSize: 0x90 }
  - { offset: 0x103F5C, size: 0x8, addend: 0x0, symName: __RINvCs6IAuOt8vWmF_3syn9parse_strNtNtB2_4expr5IndexEB2_, symObjAddr: 0x12DD4, symBinAddr: 0x7A044, symSize: 0x38 }
  - { offset: 0x103FA2, size: 0x8, addend: 0x0, symName: __RNvXs2H_NtNtCs6IAuOt8vWmF_3syn3gen5debugNtNtBa_8lifetime8LifetimeNtNtCsfvfooZQ3Axs_4core3fmt5Debug3fmt, symObjAddr: 0x133EC, symBinAddr: 0x7A128, symSize: 0x4C }
  - { offset: 0x104A94, size: 0x8, addend: 0x0, symName: __RNvYINtNtCse1nGBsou5OW_5alloc2rc7RcInnerINtNtCsfvfooZQ3Axs_4core4cell4CellNtNtCs6IAuOt8vWmF_3syn5parse10UnexpectedEENtB5_10RcInnerPtr10inc_strongB1e_, symObjAddr: 0x2C3C, symBinAddr: 0x6C120, symSize: 0x94 }
  - { offset: 0x104BCC, size: 0x8, addend: 0x0, symName: __RNvYINtNtCse1nGBsou5OW_5alloc2rc7RcInnerINtNtCsfvfooZQ3Axs_4core4cell4CellNtNtCs6IAuOt8vWmF_3syn5parse10UnexpectedEENtB5_10RcInnerPtr6strongB1e_, symObjAddr: 0x2CD0, symBinAddr: 0x6C1B4, symSize: 0x28 }
  - { offset: 0x104C27, size: 0x8, addend: 0x0, symName: __RNvXs17_NtCse1nGBsou5OW_5alloc2rcINtB6_4WeakINtNtCsfvfooZQ3Axs_4core4cell4CellNtNtCs6IAuOt8vWmF_3syn5parse10UnexpectedERNtNtB8_5alloc6GlobalENtNtNtBL_3ops4drop4Drop4dropB1i_, symObjAddr: 0x924, symBinAddr: 0x6A77C, symSize: 0x148 }
  - { offset: 0x104E9C, size: 0x8, addend: 0x0, symName: __RNvXsu_NtCse1nGBsou5OW_5alloc2rcINtB5_2RcINtNtCsfvfooZQ3Axs_4core4cell4CellNtNtCs6IAuOt8vWmF_3syn5parse10UnexpectedEENtNtNtBI_3ops4drop4Drop4dropB1f_, symObjAddr: 0xDB0, symBinAddr: 0x6A9F4, symSize: 0x88 }
  - { offset: 0x10507F, size: 0x8, addend: 0x0, symName: __RNvXsv_NtCse1nGBsou5OW_5alloc2rcINtB5_2RcINtNtCsfvfooZQ3Axs_4core4cell4CellNtNtCs6IAuOt8vWmF_3syn5parse10UnexpectedEENtNtBI_5clone5Clone5cloneB1f_, symObjAddr: 0xE38, symBinAddr: 0x6AA7C, symSize: 0x48 }
  - { offset: 0x105857, size: 0x8, addend: 0x0, symName: __RINvXNtNtCse1nGBsou5OW_5alloc5slice4hackTNtNtCs6IAuOt8vWmF_3syn8lifetime8LifetimeNtNtBH_5token4PlusENtB3_10ConvertVec6to_vecNtNtB7_5alloc6GlobalEBH_, symObjAddr: 0x0, symBinAddr: 0x69E58, symSize: 0x368 }
  - { offset: 0x10BB5A, size: 0x8, addend: 0x0, symName: __RNvMNtCsfvfooZQ3Axs_4core5sliceSTNtNtCs6IAuOt8vWmF_3syn8lifetime8LifetimeNtNtBz_5token4PlusE4iterBz_, symObjAddr: 0x4D8, symBinAddr: 0x6A330, symSize: 0x28 }
  - { offset: 0x10BDCC, size: 0x8, addend: 0x0, symName: __RNvXs9_NtNtNtCsfvfooZQ3Axs_4core4iter8adapters4fuseINtB5_4FuseINtNtB7_3map3MapIBZ_IBZ_INtNtNtBb_5slice4iter4IterNtNtCs6IAuOt8vWmF_3syn5error12ErrorMessageENvMs_B1O_B1M_16to_compile_errorENCINvXs7_Cs3cP53eQoTwO_11proc_macro2NtB38_11TokenStreamINtNtNtB9_6traits7collect12FromIteratorB3z_E9from_iterB1i_E0ENCINvXs6_NtB38_3impNtB50_11TokenStreamIB3T_B5a_E9from_iterB1e_Es_0EEINtB5_8FuseImplBY_E4nextB1Q_, symObjAddr: 0xCF4, symBinAddr: 0x6A938, symSize: 0x80 }
  - { offset: 0x10BF21, size: 0x8, addend: 0x0, symName: __RINvYINtNtCs6IAuOt8vWmF_3syn10punctuated4IterNtNtB8_4path11PathSegmentENtNtNtNtCsfvfooZQ3Axs_4core4iter6traits8iterator8Iterator3allNCNvMs5_NtBJ_7parsingNtBJ_4Path12is_mod_style0EB8_, symObjAddr: 0x368, symBinAddr: 0x6A1C0, symSize: 0x3C }
  - { offset: 0x10BF70, size: 0x8, addend: 0x0, symName: __RINvYINtNtCs6IAuOt8vWmF_3syn10punctuated4IterNtNtB8_4path11PathSegmentENtNtNtNtCsfvfooZQ3Axs_4core4iter6traits8iterator8Iterator8try_folduNCINvNvB17_3all5checkRBH_NCNvMs5_NtBJ_7parsingNtBJ_4Path12is_mod_style0E0INtNtNtB1f_3ops12control_flow11ControlFlowuEEB8_, symObjAddr: 0x3A4, symBinAddr: 0x6A1FC, symSize: 0x134 }
  - { offset: 0x10C02A, size: 0x8, addend: 0x0, symName: __RNvYINtNtCs6IAuOt8vWmF_3syn10punctuated11PrivateIterNtNtB7_4data5FieldNtNtB7_5token5CommaENtNtNtNtCsfvfooZQ3Axs_4core4iter6traits8iterator8Iterator10advance_byB7_, symObjAddr: 0x1048, symBinAddr: 0x6AC8C, symSize: 0x134 }
  - { offset: 0x10C180, size: 0x8, addend: 0x0, symName: __RNvYINtNtCs6IAuOt8vWmF_3syn10punctuated11PrivateIterNtNtB7_4data5FieldNtNtB7_5token5CommaENtNtNtNtCsfvfooZQ3Axs_4core4iter6traits8iterator8Iterator3nthB7_, symObjAddr: 0x117C, symBinAddr: 0x6ADC0, symSize: 0x80 }
  - { offset: 0x10C24C, size: 0x8, addend: 0x0, symName: __RNvYINtNtCs6IAuOt8vWmF_3syn10punctuated11PrivateIterNtNtB7_4data5FieldNtNtB7_5token5CommaENtNtNtNtCsfvfooZQ3Axs_4core4iter6traits8iterator8Iterator9size_hintB7_, symObjAddr: 0x11FC, symBinAddr: 0x6AE40, symSize: 0x34 }
  - { offset: 0x10C281, size: 0x8, addend: 0x0, symName: __RNvYINtNtCs6IAuOt8vWmF_3syn10punctuated11PrivateIterNtNtB7_4path11PathSegmentNtNtB7_5token7PathSepENtNtNtNtCsfvfooZQ3Axs_4core4iter6traits8iterator8Iterator10advance_byB7_, symObjAddr: 0x17A8, symBinAddr: 0x6B03C, symSize: 0x134 }
  - { offset: 0x10C3D7, size: 0x8, addend: 0x0, symName: __RNvYINtNtCs6IAuOt8vWmF_3syn10punctuated11PrivateIterNtNtB7_4path11PathSegmentNtNtB7_5token7PathSepENtNtNtNtCsfvfooZQ3Axs_4core4iter6traits8iterator8Iterator3nthB7_, symObjAddr: 0x18DC, symBinAddr: 0x6B170, symSize: 0x80 }
  - { offset: 0x10C4A3, size: 0x8, addend: 0x0, symName: __RNvYINtNtCs6IAuOt8vWmF_3syn10punctuated11PrivateIterNtNtB7_4path11PathSegmentNtNtB7_5token7PathSepENtNtNtNtCsfvfooZQ3Axs_4core4iter6traits8iterator8Iterator9size_hintB7_, symObjAddr: 0x195C, symBinAddr: 0x6B1F0, symSize: 0x34 }
  - { offset: 0x10C4D8, size: 0x8, addend: 0x0, symName: __RNvYINtNtCs6IAuOt8vWmF_3syn10punctuated11PrivateIterNtNtB7_8generics12GenericParamNtNtB7_5token5CommaENtNtNtNtCsfvfooZQ3Axs_4core4iter6traits8iterator8Iterator10advance_byB7_, symObjAddr: 0x1B58, symBinAddr: 0x6B3EC, symSize: 0x134 }
  - { offset: 0x10C62E, size: 0x8, addend: 0x0, symName: __RNvYINtNtCs6IAuOt8vWmF_3syn10punctuated11PrivateIterNtNtB7_8generics12GenericParamNtNtB7_5token5CommaENtNtNtNtCsfvfooZQ3Axs_4core4iter6traits8iterator8Iterator3nthB7_, symObjAddr: 0x1C8C, symBinAddr: 0x6B520, symSize: 0x80 }
  - { offset: 0x10C6FA, size: 0x8, addend: 0x0, symName: __RNvYINtNtCs6IAuOt8vWmF_3syn10punctuated11PrivateIterNtNtB7_8generics12GenericParamNtNtB7_5token5CommaENtNtNtNtCsfvfooZQ3Axs_4core4iter6traits8iterator8Iterator9size_hintB7_, symObjAddr: 0x1D0C, symBinAddr: 0x6B5A0, symSize: 0x34 }
  - { offset: 0x10C72F, size: 0x8, addend: 0x0, symName: __RNvYINtNtCs6IAuOt8vWmF_3syn10punctuated11PrivateIterNtNtB7_8generics14TypeParamBoundNtNtB7_5token4PlusENtNtNtNtCsfvfooZQ3Axs_4core4iter6traits8iterator8Iterator10advance_byB7_, symObjAddr: 0x1F08, symBinAddr: 0x6B79C, symSize: 0x134 }
  - { offset: 0x10C885, size: 0x8, addend: 0x0, symName: __RNvYINtNtCs6IAuOt8vWmF_3syn10punctuated11PrivateIterNtNtB7_8generics14TypeParamBoundNtNtB7_5token4PlusENtNtNtNtCsfvfooZQ3Axs_4core4iter6traits8iterator8Iterator3nthB7_, symObjAddr: 0x203C, symBinAddr: 0x6B8D0, symSize: 0x80 }
  - { offset: 0x10C951, size: 0x8, addend: 0x0, symName: __RNvYINtNtCs6IAuOt8vWmF_3syn10punctuated11PrivateIterNtNtB7_8generics14TypeParamBoundNtNtB7_5token4PlusENtNtNtNtCsfvfooZQ3Axs_4core4iter6traits8iterator8Iterator9size_hintB7_, symObjAddr: 0x20BC, symBinAddr: 0x6B950, symSize: 0x34 }
  - { offset: 0x10C986, size: 0x8, addend: 0x0, symName: __RNvYINtNtCs6IAuOt8vWmF_3syn10punctuated14PrivateIterMutNtNtB7_4data5FieldNtNtB7_5token5CommaENtNtNtNtCsfvfooZQ3Axs_4core4iter6traits8iterator8Iterator10advance_byB7_, symObjAddr: 0x22B8, symBinAddr: 0x6BB4C, symSize: 0x134 }
  - { offset: 0x10CADC, size: 0x8, addend: 0x0, symName: __RNvYINtNtCs6IAuOt8vWmF_3syn10punctuated14PrivateIterMutNtNtB7_4data5FieldNtNtB7_5token5CommaENtNtNtNtCsfvfooZQ3Axs_4core4iter6traits8iterator8Iterator3nthB7_, symObjAddr: 0x23EC, symBinAddr: 0x6BC80, symSize: 0x80 }
  - { offset: 0x10CBA8, size: 0x8, addend: 0x0, symName: __RNvYINtNtCs6IAuOt8vWmF_3syn10punctuated14PrivateIterMutNtNtB7_4data5FieldNtNtB7_5token5CommaENtNtNtNtCsfvfooZQ3Axs_4core4iter6traits8iterator8Iterator9size_hintB7_, symObjAddr: 0x246C, symBinAddr: 0x6BD00, symSize: 0x34 }
  - { offset: 0x10CBDD, size: 0x8, addend: 0x0, symName: __RNvYINtNtCs6IAuOt8vWmF_3syn10punctuated14PrivateIterMutNtNtB7_4path11PathSegmentNtNtB7_5token7PathSepENtNtNtNtCsfvfooZQ3Axs_4core4iter6traits8iterator8Iterator10advance_byB7_, symObjAddr: 0x2668, symBinAddr: 0x6BEFC, symSize: 0x134 }
  - { offset: 0x10CD33, size: 0x8, addend: 0x0, symName: __RNvYINtNtCs6IAuOt8vWmF_3syn10punctuated14PrivateIterMutNtNtB7_4path11PathSegmentNtNtB7_5token7PathSepENtNtNtNtCsfvfooZQ3Axs_4core4iter6traits8iterator8Iterator3nthB7_, symObjAddr: 0x279C, symBinAddr: 0x6C030, symSize: 0x80 }
  - { offset: 0x10CDFF, size: 0x8, addend: 0x0, symName: __RNvYINtNtCs6IAuOt8vWmF_3syn10punctuated14PrivateIterMutNtNtB7_4path11PathSegmentNtNtB7_5token7PathSepENtNtNtNtCsfvfooZQ3Axs_4core4iter6traits8iterator8Iterator9size_hintB7_, symObjAddr: 0x281C, symBinAddr: 0x6C0B0, symSize: 0x34 }
  - { offset: 0x10CE34, size: 0x8, addend: 0x0, symName: __RNvYINtNtCs6IAuOt8vWmF_3syn10punctuated4IterNtNtB7_4path11PathSegmentENtNtNtNtCsfvfooZQ3Axs_4core4iter6traits8iterator8Iterator9enumerateB7_, symObjAddr: 0x2C00, symBinAddr: 0x6C0E4, symSize: 0x28 }
  - { offset: 0x10CE80, size: 0x8, addend: 0x0, symName: __RNvYINtNtCs6IAuOt8vWmF_3syn10punctuated5PairsNtNtB7_4path11PathSegmentNtNtB7_5token7PathSepENtNtNtNtCsfvfooZQ3Axs_4core4iter6traits8iterator8Iterator6by_refB7_, symObjAddr: 0x2C28, symBinAddr: 0x6C10C, symSize: 0x14 }
  - { offset: 0x10CEB7, size: 0x8, addend: 0x0, symName: __RNvYQINtNtCs6IAuOt8vWmF_3syn10punctuated5PairsNtNtB8_4path11PathSegmentNtNtB8_5token7PathSepENtNtNtNtCsfvfooZQ3Axs_4core4iter6traits8iterator8Iterator4takeB8_, symObjAddr: 0x2D28, symBinAddr: 0x6C1DC, symSize: 0x18 }
  - { offset: 0x10CF22, size: 0x8, addend: 0x0, symName: __RNvXNtNtNtCsfvfooZQ3Axs_4core4iter6traits8iteratorQINtNtCs6IAuOt8vWmF_3syn10punctuated5PairsNtNtBS_4path11PathSegmentNtNtBS_5token7PathSepENtB2_8Iterator4nextBS_, symObjAddr: 0x8FC, symBinAddr: 0x6A754, symSize: 0x28 }
  - { offset: 0x10CF65, size: 0x8, addend: 0x0, symName: __RNvXNtNtNtCsfvfooZQ3Axs_4core4iter6traits7collectINtNtCs6IAuOt8vWmF_3syn10punctuated5PairsNtNtBQ_2ty4TypeNtNtBQ_5token5CommaENtB2_12IntoIterator9into_iterBQ_, symObjAddr: 0x71C, symBinAddr: 0x6A574, symSize: 0x18 }
  - { offset: 0x10CF9C, size: 0x8, addend: 0x0, symName: __RNvXNtNtNtCsfvfooZQ3Axs_4core4iter6traits7collectINtNtCs6IAuOt8vWmF_3syn10punctuated5PairsNtNtBQ_2ty9BareFnArgNtNtBQ_5token5CommaENtB2_12IntoIterator9into_iterBQ_, symObjAddr: 0x734, symBinAddr: 0x6A58C, symSize: 0x18 }
  - { offset: 0x10CFD3, size: 0x8, addend: 0x0, symName: __RNvXNtNtNtCsfvfooZQ3Axs_4core4iter6traits7collectINtNtCs6IAuOt8vWmF_3syn10punctuated5PairsNtNtBQ_3pat3PatNtNtBQ_5token2OrENtB2_12IntoIterator9into_iterBQ_, symObjAddr: 0x74C, symBinAddr: 0x6A5A4, symSize: 0x18 }
  - { offset: 0x10D00A, size: 0x8, addend: 0x0, symName: __RNvXNtNtNtCsfvfooZQ3Axs_4core4iter6traits7collectINtNtCs6IAuOt8vWmF_3syn10punctuated5PairsNtNtBQ_3pat3PatNtNtBQ_5token5CommaENtB2_12IntoIterator9into_iterBQ_, symObjAddr: 0x764, symBinAddr: 0x6A5BC, symSize: 0x18 }
  - { offset: 0x10D041, size: 0x8, addend: 0x0, symName: __RNvXNtNtNtCsfvfooZQ3Axs_4core4iter6traits7collectINtNtCs6IAuOt8vWmF_3syn10punctuated5PairsNtNtBQ_3pat8FieldPatNtNtBQ_5token5CommaENtB2_12IntoIterator9into_iterBQ_, symObjAddr: 0x77C, symBinAddr: 0x6A5D4, symSize: 0x18 }
  - { offset: 0x10D078, size: 0x8, addend: 0x0, symName: __RNvXNtNtNtCsfvfooZQ3Axs_4core4iter6traits7collectINtNtCs6IAuOt8vWmF_3syn10punctuated5PairsNtNtBQ_4data5FieldNtNtBQ_5token5CommaENtB2_12IntoIterator9into_iterBQ_, symObjAddr: 0x794, symBinAddr: 0x6A5EC, symSize: 0x18 }
  - { offset: 0x10D0AF, size: 0x8, addend: 0x0, symName: __RNvXNtNtNtCsfvfooZQ3Axs_4core4iter6traits7collectINtNtCs6IAuOt8vWmF_3syn10punctuated5PairsNtNtBQ_4data7VariantNtNtBQ_5token5CommaENtB2_12IntoIterator9into_iterBQ_, symObjAddr: 0x7AC, symBinAddr: 0x6A604, symSize: 0x18 }
  - { offset: 0x10D0E6, size: 0x8, addend: 0x0, symName: __RNvXNtNtNtCsfvfooZQ3Axs_4core4iter6traits7collectINtNtCs6IAuOt8vWmF_3syn10punctuated5PairsNtNtBQ_4expr10FieldValueNtNtBQ_5token5CommaENtB2_12IntoIterator9into_iterBQ_, symObjAddr: 0x7C4, symBinAddr: 0x6A61C, symSize: 0x18 }
  - { offset: 0x10D11D, size: 0x8, addend: 0x0, symName: __RNvXNtNtNtCsfvfooZQ3Axs_4core4iter6traits7collectINtNtCs6IAuOt8vWmF_3syn10punctuated5PairsNtNtBQ_4expr4ExprNtNtBQ_5token5CommaENtB2_12IntoIterator9into_iterBQ_, symObjAddr: 0x7DC, symBinAddr: 0x6A634, symSize: 0x18 }
  - { offset: 0x10D154, size: 0x8, addend: 0x0, symName: __RNvXNtNtNtCsfvfooZQ3Axs_4core4iter6traits7collectINtNtCs6IAuOt8vWmF_3syn10punctuated5PairsNtNtBQ_4item5FnArgNtNtBQ_5token5CommaENtB2_12IntoIterator9into_iterBQ_, symObjAddr: 0x7F4, symBinAddr: 0x6A64C, symSize: 0x18 }
  - { offset: 0x10D18B, size: 0x8, addend: 0x0, symName: __RNvXNtNtNtCsfvfooZQ3Axs_4core4iter6traits7collectINtNtCs6IAuOt8vWmF_3syn10punctuated5PairsNtNtBQ_4item7UseTreeNtNtBQ_5token5CommaENtB2_12IntoIterator9into_iterBQ_, symObjAddr: 0x80C, symBinAddr: 0x6A664, symSize: 0x18 }
  - { offset: 0x10D1C2, size: 0x8, addend: 0x0, symName: __RNvXNtNtNtCsfvfooZQ3Axs_4core4iter6traits7collectINtNtCs6IAuOt8vWmF_3syn10punctuated5PairsNtNtBQ_4path11PathSegmentNtNtBQ_5token7PathSepENtB2_12IntoIterator9into_iterBQ_, symObjAddr: 0x824, symBinAddr: 0x6A67C, symSize: 0x18 }
  - { offset: 0x10D1F9, size: 0x8, addend: 0x0, symName: __RNvXNtNtNtCsfvfooZQ3Axs_4core4iter6traits7collectINtNtCs6IAuOt8vWmF_3syn10punctuated5PairsNtNtBQ_4path15GenericArgumentNtNtBQ_5token5CommaENtB2_12IntoIterator9into_iterBQ_, symObjAddr: 0x83C, symBinAddr: 0x6A694, symSize: 0x18 }
  - { offset: 0x10D230, size: 0x8, addend: 0x0, symName: __RNvXNtNtNtCsfvfooZQ3Axs_4core4iter6traits7collectINtNtCs6IAuOt8vWmF_3syn10punctuated5PairsNtNtBQ_8generics12GenericParamNtNtBQ_5token5CommaENtB2_12IntoIterator9into_iterBQ_, symObjAddr: 0x854, symBinAddr: 0x6A6AC, symSize: 0x18 }
  - { offset: 0x10D267, size: 0x8, addend: 0x0, symName: __RNvXNtNtNtCsfvfooZQ3Axs_4core4iter6traits7collectINtNtCs6IAuOt8vWmF_3syn10punctuated5PairsNtNtBQ_8generics13CapturedParamNtNtBQ_5token5CommaENtB2_12IntoIterator9into_iterBQ_, symObjAddr: 0x86C, symBinAddr: 0x6A6C4, symSize: 0x18 }
  - { offset: 0x10D29E, size: 0x8, addend: 0x0, symName: __RNvXNtNtNtCsfvfooZQ3Axs_4core4iter6traits7collectINtNtCs6IAuOt8vWmF_3syn10punctuated5PairsNtNtBQ_8generics14TypeParamBoundNtNtBQ_5token4PlusENtB2_12IntoIterator9into_iterBQ_, symObjAddr: 0x884, symBinAddr: 0x6A6DC, symSize: 0x18 }
  - { offset: 0x10D2D5, size: 0x8, addend: 0x0, symName: __RNvXNtNtNtCsfvfooZQ3Axs_4core4iter6traits7collectINtNtCs6IAuOt8vWmF_3syn10punctuated5PairsNtNtBQ_8generics14WherePredicateNtNtBQ_5token5CommaENtB2_12IntoIterator9into_iterBQ_, symObjAddr: 0x89C, symBinAddr: 0x6A6F4, symSize: 0x18 }
  - { offset: 0x10D30C, size: 0x8, addend: 0x0, symName: __RNvXNtNtNtCsfvfooZQ3Axs_4core4iter6traits7collectINtNtCs6IAuOt8vWmF_3syn10punctuated5PairsNtNtBQ_8lifetime8LifetimeNtNtBQ_5token4PlusENtB2_12IntoIterator9into_iterBQ_, symObjAddr: 0x8B4, symBinAddr: 0x6A70C, symSize: 0x18 }
  - { offset: 0x10D343, size: 0x8, addend: 0x0, symName: __RNvXNtNtNtCsfvfooZQ3Axs_4core4iter6traits7collectINtNtCs6IAuOt8vWmF_3syn10punctuated9IntoPairsNtNtBQ_4path11PathSegmentNtNtBQ_5token7PathSepENtB2_12IntoIterator9into_iterBQ_, symObjAddr: 0x8CC, symBinAddr: 0x6A724, symSize: 0x30 }
  - { offset: 0x10D387, size: 0x8, addend: 0x0, symName: __RNvYINtNtCs6IAuOt8vWmF_3syn10punctuated11PrivateIterNtNtB7_4data5FieldNtNtB7_5token5CommaENtNtNtNtCsfvfooZQ3Axs_4core4iter6traits10exact_size17ExactSizeIterator8is_emptyB7_, symObjAddr: 0xE80, symBinAddr: 0x6AAC4, symSize: 0x2C }
  - { offset: 0x10D3BC, size: 0x8, addend: 0x0, symName: __RNvYINtNtCs6IAuOt8vWmF_3syn10punctuated11PrivateIterNtNtB7_4path11PathSegmentNtNtB7_5token7PathSepENtNtNtNtCsfvfooZQ3Axs_4core4iter6traits10exact_size17ExactSizeIterator8is_emptyB7_, symObjAddr: 0x15E0, symBinAddr: 0x6AE74, symSize: 0x2C }
  - { offset: 0x10D3F1, size: 0x8, addend: 0x0, symName: __RNvYINtNtCs6IAuOt8vWmF_3syn10punctuated11PrivateIterNtNtB7_8generics12GenericParamNtNtB7_5token5CommaENtNtNtNtCsfvfooZQ3Axs_4core4iter6traits10exact_size17ExactSizeIterator8is_emptyB7_, symObjAddr: 0x1990, symBinAddr: 0x6B224, symSize: 0x2C }
  - { offset: 0x10D426, size: 0x8, addend: 0x0, symName: __RNvYINtNtCs6IAuOt8vWmF_3syn10punctuated11PrivateIterNtNtB7_8generics14TypeParamBoundNtNtB7_5token4PlusENtNtNtNtCsfvfooZQ3Axs_4core4iter6traits10exact_size17ExactSizeIterator8is_emptyB7_, symObjAddr: 0x1D40, symBinAddr: 0x6B5D4, symSize: 0x2C }
  - { offset: 0x10D45B, size: 0x8, addend: 0x0, symName: __RNvYINtNtCs6IAuOt8vWmF_3syn10punctuated14PrivateIterMutNtNtB7_4data5FieldNtNtB7_5token5CommaENtNtNtNtCsfvfooZQ3Axs_4core4iter6traits10exact_size17ExactSizeIterator8is_emptyB7_, symObjAddr: 0x20F0, symBinAddr: 0x6B984, symSize: 0x2C }
  - { offset: 0x10D490, size: 0x8, addend: 0x0, symName: __RNvYINtNtCs6IAuOt8vWmF_3syn10punctuated14PrivateIterMutNtNtB7_4path11PathSegmentNtNtB7_5token7PathSepENtNtNtNtCsfvfooZQ3Axs_4core4iter6traits10exact_size17ExactSizeIterator8is_emptyB7_, symObjAddr: 0x24A0, symBinAddr: 0x6BD34, symSize: 0x2C }
  - { offset: 0x10D4D1, size: 0x8, addend: 0x0, symName: __RNvYINtNtCs6IAuOt8vWmF_3syn10punctuated11PrivateIterNtNtB7_4data5FieldNtNtB7_5token5CommaENtNtNtNtCsfvfooZQ3Axs_4core4iter6traits12double_ended19DoubleEndedIterator15advance_back_byB7_, symObjAddr: 0xEAC, symBinAddr: 0x6AAF0, symSize: 0x134 }
  - { offset: 0x10D61F, size: 0x8, addend: 0x0, symName: __RNvYINtNtCs6IAuOt8vWmF_3syn10punctuated11PrivateIterNtNtB7_4data5FieldNtNtB7_5token5CommaENtNtNtNtCsfvfooZQ3Axs_4core4iter6traits12double_ended19DoubleEndedIterator8nth_backB7_, symObjAddr: 0xFE0, symBinAddr: 0x6AC24, symSize: 0x68 }
  - { offset: 0x10D69D, size: 0x8, addend: 0x0, symName: __RNvYINtNtCs6IAuOt8vWmF_3syn10punctuated11PrivateIterNtNtB7_4path11PathSegmentNtNtB7_5token7PathSepENtNtNtNtCsfvfooZQ3Axs_4core4iter6traits12double_ended19DoubleEndedIterator15advance_back_byB7_, symObjAddr: 0x160C, symBinAddr: 0x6AEA0, symSize: 0x134 }
  - { offset: 0x10D7EB, size: 0x8, addend: 0x0, symName: __RNvYINtNtCs6IAuOt8vWmF_3syn10punctuated11PrivateIterNtNtB7_4path11PathSegmentNtNtB7_5token7PathSepENtNtNtNtCsfvfooZQ3Axs_4core4iter6traits12double_ended19DoubleEndedIterator8nth_backB7_, symObjAddr: 0x1740, symBinAddr: 0x6AFD4, symSize: 0x68 }
  - { offset: 0x10D869, size: 0x8, addend: 0x0, symName: __RNvYINtNtCs6IAuOt8vWmF_3syn10punctuated11PrivateIterNtNtB7_8generics12GenericParamNtNtB7_5token5CommaENtNtNtNtCsfvfooZQ3Axs_4core4iter6traits12double_ended19DoubleEndedIterator15advance_back_byB7_, symObjAddr: 0x19BC, symBinAddr: 0x6B250, symSize: 0x134 }
  - { offset: 0x10D9B7, size: 0x8, addend: 0x0, symName: __RNvYINtNtCs6IAuOt8vWmF_3syn10punctuated11PrivateIterNtNtB7_8generics12GenericParamNtNtB7_5token5CommaENtNtNtNtCsfvfooZQ3Axs_4core4iter6traits12double_ended19DoubleEndedIterator8nth_backB7_, symObjAddr: 0x1AF0, symBinAddr: 0x6B384, symSize: 0x68 }
  - { offset: 0x10DA35, size: 0x8, addend: 0x0, symName: __RNvYINtNtCs6IAuOt8vWmF_3syn10punctuated11PrivateIterNtNtB7_8generics14TypeParamBoundNtNtB7_5token4PlusENtNtNtNtCsfvfooZQ3Axs_4core4iter6traits12double_ended19DoubleEndedIterator15advance_back_byB7_, symObjAddr: 0x1D6C, symBinAddr: 0x6B600, symSize: 0x134 }
  - { offset: 0x10DB83, size: 0x8, addend: 0x0, symName: __RNvYINtNtCs6IAuOt8vWmF_3syn10punctuated11PrivateIterNtNtB7_8generics14TypeParamBoundNtNtB7_5token4PlusENtNtNtNtCsfvfooZQ3Axs_4core4iter6traits12double_ended19DoubleEndedIterator8nth_backB7_, symObjAddr: 0x1EA0, symBinAddr: 0x6B734, symSize: 0x68 }
  - { offset: 0x10DC01, size: 0x8, addend: 0x0, symName: __RNvYINtNtCs6IAuOt8vWmF_3syn10punctuated14PrivateIterMutNtNtB7_4data5FieldNtNtB7_5token5CommaENtNtNtNtCsfvfooZQ3Axs_4core4iter6traits12double_ended19DoubleEndedIterator15advance_back_byB7_, symObjAddr: 0x211C, symBinAddr: 0x6B9B0, symSize: 0x134 }
  - { offset: 0x10DD4F, size: 0x8, addend: 0x0, symName: __RNvYINtNtCs6IAuOt8vWmF_3syn10punctuated14PrivateIterMutNtNtB7_4data5FieldNtNtB7_5token5CommaENtNtNtNtCsfvfooZQ3Axs_4core4iter6traits12double_ended19DoubleEndedIterator8nth_backB7_, symObjAddr: 0x2250, symBinAddr: 0x6BAE4, symSize: 0x68 }
  - { offset: 0x10DDCD, size: 0x8, addend: 0x0, symName: __RNvYINtNtCs6IAuOt8vWmF_3syn10punctuated14PrivateIterMutNtNtB7_4path11PathSegmentNtNtB7_5token7PathSepENtNtNtNtCsfvfooZQ3Axs_4core4iter6traits12double_ended19DoubleEndedIterator15advance_back_byB7_, symObjAddr: 0x24CC, symBinAddr: 0x6BD60, symSize: 0x134 }
  - { offset: 0x10DF1B, size: 0x8, addend: 0x0, symName: __RNvYINtNtCs6IAuOt8vWmF_3syn10punctuated14PrivateIterMutNtNtB7_4path11PathSegmentNtNtB7_5token7PathSepENtNtNtNtCsfvfooZQ3Axs_4core4iter6traits12double_ended19DoubleEndedIterator8nth_backB7_, symObjAddr: 0x2600, symBinAddr: 0x6BE94, symSize: 0x68 }
  - { offset: 0x10E433, size: 0x8, addend: 0x0, symName: __RNvXs1a_NtCsfvfooZQ3Axs_4core3fmtRNtNtCs6IAuOt8vWmF_3syn8lifetime8LifetimeNtB6_5Debug3fmtBA_, symObjAddr: 0xA6C, symBinAddr: 0x6A8C4, symSize: 0x30 }
  - { offset: 0x10E789, size: 0x8, addend: 0x0, symName: __RNvXs7_NtNtCsfvfooZQ3Axs_4core3cmp5implsReNtB7_9PartialEq2eqCs6IAuOt8vWmF_3syn, symObjAddr: 0xC4C, symBinAddr: 0x6A8F4, symSize: 0x44 }
  - { offset: 0x10E7DE, size: 0x8, addend: 0x0, symName: __RNvXsX_NtNtCsfvfooZQ3Axs_4core3cmp5implshNtB7_3Ord3cmpCs6IAuOt8vWmF_3syn, symObjAddr: 0xD74, symBinAddr: 0x6A9B8, symSize: 0x3C }
  - { offset: 0x10EC21, size: 0x8, addend: 0x0, symName: __RNvNvMNtNtCsfvfooZQ3Axs_4core5alloc6layoutNtB4_6Layout25from_size_align_unchecked18precondition_checkCs6IAuOt8vWmF_3syn, symObjAddr: 0x648, symBinAddr: 0x6A4A0, symSize: 0x50 }
  - { offset: 0x10ECC3, size: 0x8, addend: 0x0, symName: __RNvXNtNtCsfvfooZQ3Axs_4core5clone6uninitNtNtCs6IAuOt8vWmF_3syn8lifetime8LifetimeNtB2_8CopySpec9clone_oneBG_, symObjAddr: 0x6D8, symBinAddr: 0x6A530, symSize: 0x44 }
  - { offset: 0x110124, size: 0x8, addend: 0x0, symName: __RNvMs5_NtCse1nGBsou5OW_5alloc2rcINtB5_2RcINtNtCsfvfooZQ3Axs_4core4cell4CellNtNtCs6IAuOt8vWmF_3syn5parse10UnexpectedEE9drop_slowB1f_, symObjAddr: 0x500, symBinAddr: 0x6A358, symSize: 0x74 }
  - { offset: 0x1101F5, size: 0x8, addend: 0x0, symName: __RNvMs6_NtCse1nGBsou5OW_5alloc2rcINtB5_2RcINtNtCsfvfooZQ3Axs_4core4cell4CellNtNtCs6IAuOt8vWmF_3syn5parse10UnexpectedEE3newB1f_, symObjAddr: 0x574, symBinAddr: 0x6A3CC, symSize: 0xA8 }
  - { offset: 0x11033D, size: 0x8, addend: 0x0, symName: __RNvMsd_NtCse1nGBsou5OW_5alloc2rcINtB5_2RcINtNtCsfvfooZQ3Axs_4core4cell4CellNtNtCs6IAuOt8vWmF_3syn5parse10UnexpectedEE6ptr_eqB1f_, symObjAddr: 0x61C, symBinAddr: 0x6A474, symSize: 0x2C }
  - { offset: 0x1103A5, size: 0x8, addend: 0x0, symName: __RNvXNtCs2cqEZUIJimJ_5quote9to_tokensRNtNtCs6IAuOt8vWmF_3syn8lifetime8LifetimeNtB2_8ToTokens9to_tokensBD_, symObjAddr: 0x698, symBinAddr: 0x6A4F0, symSize: 0x40 }
  - { offset: 0x111141, size: 0x8, addend: 0x0, symName: __RNvMNtCs6IAuOt8vWmF_3syn10punctuatedINtB2_10PunctuatedNtNtB4_2ty4TypeNtNtB4_5token5CommaE3newB4_, symObjAddr: 0x3894, symBinAddr: 0x6C318, symSize: 0x54 }
  - { offset: 0x111167, size: 0x8, addend: 0x0, symName: __RNvMNtCs6IAuOt8vWmF_3syn10punctuatedINtB2_10PunctuatedNtNtB4_2ty9BareFnArgNtNtB4_5token5CommaE3newB4_, symObjAddr: 0x38E8, symBinAddr: 0x6C36C, symSize: 0x54 }
  - { offset: 0x11118D, size: 0x8, addend: 0x0, symName: __RNvMNtCs6IAuOt8vWmF_3syn10punctuatedINtB2_10PunctuatedNtNtB4_3pat3PatNtNtB4_5token2OrE3newB4_, symObjAddr: 0x393C, symBinAddr: 0x6C3C0, symSize: 0x54 }
  - { offset: 0x1111B3, size: 0x8, addend: 0x0, symName: __RNvMNtCs6IAuOt8vWmF_3syn10punctuatedINtB2_10PunctuatedNtNtB4_3pat3PatNtNtB4_5token5CommaE3newB4_, symObjAddr: 0x3990, symBinAddr: 0x6C414, symSize: 0x54 }
  - { offset: 0x1111D9, size: 0x8, addend: 0x0, symName: __RNvMNtCs6IAuOt8vWmF_3syn10punctuatedINtB2_10PunctuatedNtNtB4_3pat8FieldPatNtNtB4_5token5CommaE3newB4_, symObjAddr: 0x39E4, symBinAddr: 0x6C468, symSize: 0x54 }
  - { offset: 0x1111FF, size: 0x8, addend: 0x0, symName: __RNvMNtCs6IAuOt8vWmF_3syn10punctuatedINtB2_10PunctuatedNtNtB4_4data5FieldNtNtB4_5token5CommaE3newB4_, symObjAddr: 0x3A38, symBinAddr: 0x6C4BC, symSize: 0x54 }
  - { offset: 0x111225, size: 0x8, addend: 0x0, symName: __RNvMNtCs6IAuOt8vWmF_3syn10punctuatedINtB2_10PunctuatedNtNtB4_4data7VariantNtNtB4_5token5CommaE3newB4_, symObjAddr: 0x3AE0, symBinAddr: 0x6C510, symSize: 0x54 }
  - { offset: 0x11124B, size: 0x8, addend: 0x0, symName: __RNvMNtCs6IAuOt8vWmF_3syn10punctuatedINtB2_10PunctuatedNtNtB4_4expr10FieldValueNtNtB4_5token5CommaE3newB4_, symObjAddr: 0x3B34, symBinAddr: 0x6C564, symSize: 0x54 }
  - { offset: 0x111271, size: 0x8, addend: 0x0, symName: __RNvMNtCs6IAuOt8vWmF_3syn10punctuatedINtB2_10PunctuatedNtNtB4_4expr4ExprNtNtB4_5token5CommaE3newB4_, symObjAddr: 0x3B88, symBinAddr: 0x6C5B8, symSize: 0x54 }
  - { offset: 0x111297, size: 0x8, addend: 0x0, symName: __RNvMNtCs6IAuOt8vWmF_3syn10punctuatedINtB2_10PunctuatedNtNtB4_4item5FnArgNtNtB4_5token5CommaE3newB4_, symObjAddr: 0x3BDC, symBinAddr: 0x6C60C, symSize: 0x54 }
  - { offset: 0x1112BD, size: 0x8, addend: 0x0, symName: __RNvMNtCs6IAuOt8vWmF_3syn10punctuatedINtB2_10PunctuatedNtNtB4_4item7UseTreeNtNtB4_5token5CommaE3newB4_, symObjAddr: 0x3C30, symBinAddr: 0x6C660, symSize: 0x54 }
  - { offset: 0x1112E3, size: 0x8, addend: 0x0, symName: __RNvMNtCs6IAuOt8vWmF_3syn10punctuatedINtB2_10PunctuatedNtNtB4_4path11PathSegmentNtNtB4_5token7PathSepE3newB4_, symObjAddr: 0x3C84, symBinAddr: 0x6C6B4, symSize: 0x54 }
  - { offset: 0x111309, size: 0x8, addend: 0x0, symName: __RNvMNtCs6IAuOt8vWmF_3syn10punctuatedINtB2_10PunctuatedNtNtB4_4path15GenericArgumentNtNtB4_5token5CommaE3newB4_, symObjAddr: 0x3CD8, symBinAddr: 0x6C708, symSize: 0x54 }
  - { offset: 0x11132F, size: 0x8, addend: 0x0, symName: __RNvMNtCs6IAuOt8vWmF_3syn10punctuatedINtB2_10PunctuatedNtNtB4_8generics12GenericParamNtNtB4_5token5CommaE3newB4_, symObjAddr: 0x3D2C, symBinAddr: 0x6C75C, symSize: 0x54 }
  - { offset: 0x111355, size: 0x8, addend: 0x0, symName: __RNvMNtCs6IAuOt8vWmF_3syn10punctuatedINtB2_10PunctuatedNtNtB4_8generics13CapturedParamNtNtB4_5token5CommaE3newB4_, symObjAddr: 0x3D80, symBinAddr: 0x6C7B0, symSize: 0x54 }
  - { offset: 0x11137B, size: 0x8, addend: 0x0, symName: __RNvMNtCs6IAuOt8vWmF_3syn10punctuatedINtB2_10PunctuatedNtNtB4_8generics14TypeParamBoundNtNtB4_5token4PlusE3newB4_, symObjAddr: 0x3DD4, symBinAddr: 0x6C804, symSize: 0x54 }
  - { offset: 0x1113A1, size: 0x8, addend: 0x0, symName: __RNvMNtCs6IAuOt8vWmF_3syn10punctuatedINtB2_10PunctuatedNtNtB4_8generics14WherePredicateNtNtB4_5token5CommaE3newB4_, symObjAddr: 0x3E28, symBinAddr: 0x6C858, symSize: 0x54 }
  - { offset: 0x1113C7, size: 0x8, addend: 0x0, symName: __RNvMNtCs6IAuOt8vWmF_3syn10punctuatedINtB2_10PunctuatedNtNtB4_8lifetime8LifetimeNtNtB4_5token4PlusE3newB4_, symObjAddr: 0x3E7C, symBinAddr: 0x6C8AC, symSize: 0x54 }
  - { offset: 0x1113FA, size: 0x8, addend: 0x0, symName: __RNvMNtCs6IAuOt8vWmF_3syn10punctuatedINtB2_10PunctuatedNtNtB4_2ty4TypeNtNtB4_5token5CommaE8is_emptyB4_, symObjAddr: 0x3ED0, symBinAddr: 0x6C900, symSize: 0x74 }
  - { offset: 0x11143B, size: 0x8, addend: 0x0, symName: __RNvMNtCs6IAuOt8vWmF_3syn10punctuatedINtB2_10PunctuatedNtNtB4_2ty9BareFnArgNtNtB4_5token5CommaE8is_emptyB4_, symObjAddr: 0x3F44, symBinAddr: 0x6C974, symSize: 0x74 }
  - { offset: 0x11147C, size: 0x8, addend: 0x0, symName: __RNvMNtCs6IAuOt8vWmF_3syn10punctuatedINtB2_10PunctuatedNtNtB4_3pat3PatNtNtB4_5token5CommaE8is_emptyB4_, symObjAddr: 0x3FB8, symBinAddr: 0x6C9E8, symSize: 0x74 }
  - { offset: 0x1114BD, size: 0x8, addend: 0x0, symName: __RNvMNtCs6IAuOt8vWmF_3syn10punctuatedINtB2_10PunctuatedNtNtB4_4data5FieldNtNtB4_5token5CommaE8is_emptyB4_, symObjAddr: 0x402C, symBinAddr: 0x6CA5C, symSize: 0x74 }
  - { offset: 0x1114FE, size: 0x8, addend: 0x0, symName: __RNvMNtCs6IAuOt8vWmF_3syn10punctuatedINtB2_10PunctuatedNtNtB4_4expr4ExprNtNtB4_5token5CommaE8is_emptyB4_, symObjAddr: 0x40A0, symBinAddr: 0x6CAD0, symSize: 0x74 }
  - { offset: 0x11153F, size: 0x8, addend: 0x0, symName: __RNvMNtCs6IAuOt8vWmF_3syn10punctuatedINtB2_10PunctuatedNtNtB4_4item5FnArgNtNtB4_5token5CommaE8is_emptyB4_, symObjAddr: 0x4114, symBinAddr: 0x6CB44, symSize: 0x74 }
  - { offset: 0x111580, size: 0x8, addend: 0x0, symName: __RNvMNtCs6IAuOt8vWmF_3syn10punctuatedINtB2_10PunctuatedNtNtB4_4path11PathSegmentNtNtB4_5token7PathSepE8is_emptyB4_, symObjAddr: 0x4188, symBinAddr: 0x6CBB8, symSize: 0x74 }
  - { offset: 0x1115C1, size: 0x8, addend: 0x0, symName: __RNvMNtCs6IAuOt8vWmF_3syn10punctuatedINtB2_10PunctuatedNtNtB4_4path15GenericArgumentNtNtB4_5token5CommaE8is_emptyB4_, symObjAddr: 0x41FC, symBinAddr: 0x6CC2C, symSize: 0x74 }
  - { offset: 0x111602, size: 0x8, addend: 0x0, symName: __RNvMNtCs6IAuOt8vWmF_3syn10punctuatedINtB2_10PunctuatedNtNtB4_8generics12GenericParamNtNtB4_5token5CommaE8is_emptyB4_, symObjAddr: 0x4270, symBinAddr: 0x6CCA0, symSize: 0x74 }
  - { offset: 0x111643, size: 0x8, addend: 0x0, symName: __RNvMNtCs6IAuOt8vWmF_3syn10punctuatedINtB2_10PunctuatedNtNtB4_8generics14TypeParamBoundNtNtB4_5token4PlusE8is_emptyB4_, symObjAddr: 0x42E4, symBinAddr: 0x6CD14, symSize: 0x74 }
  - { offset: 0x111684, size: 0x8, addend: 0x0, symName: __RNvMNtCs6IAuOt8vWmF_3syn10punctuatedINtB2_10PunctuatedNtNtB4_8generics14WherePredicateNtNtB4_5token5CommaE8is_emptyB4_, symObjAddr: 0x4358, symBinAddr: 0x6CD88, symSize: 0x74 }
  - { offset: 0x1116C5, size: 0x8, addend: 0x0, symName: __RNvMNtCs6IAuOt8vWmF_3syn10punctuatedINtB2_10PunctuatedNtNtB4_8lifetime8LifetimeNtNtB4_5token4PlusE8is_emptyB4_, symObjAddr: 0x43CC, symBinAddr: 0x6CDFC, symSize: 0x74 }
  - { offset: 0x1116F9, size: 0x8, addend: 0x0, symName: __RNvMNtCs6IAuOt8vWmF_3syn10punctuatedINtB2_10PunctuatedNtNtB4_2ty4TypeNtNtB4_5token5CommaE3lenB4_, symObjAddr: 0x4440, symBinAddr: 0x6CE70, symSize: 0xA0 }
  - { offset: 0x11172D, size: 0x8, addend: 0x0, symName: __RNvMNtCs6IAuOt8vWmF_3syn10punctuatedINtB2_10PunctuatedNtNtB4_3pat3PatNtNtB4_5token5CommaE3lenB4_, symObjAddr: 0x44E0, symBinAddr: 0x6CF10, symSize: 0xA0 }
  - { offset: 0x111761, size: 0x8, addend: 0x0, symName: __RNvMNtCs6IAuOt8vWmF_3syn10punctuatedINtB2_10PunctuatedNtNtB4_4data5FieldNtNtB4_5token5CommaE3lenB4_, symObjAddr: 0x4580, symBinAddr: 0x6CFB0, symSize: 0xA0 }
  - { offset: 0x111795, size: 0x8, addend: 0x0, symName: __RNvMNtCs6IAuOt8vWmF_3syn10punctuatedINtB2_10PunctuatedNtNtB4_4expr4ExprNtNtB4_5token5CommaE3lenB4_, symObjAddr: 0x46C0, symBinAddr: 0x6D050, symSize: 0xA0 }
  - { offset: 0x1117C9, size: 0x8, addend: 0x0, symName: __RNvMNtCs6IAuOt8vWmF_3syn10punctuatedINtB2_10PunctuatedNtNtB4_4path11PathSegmentNtNtB4_5token7PathSepE3lenB4_, symObjAddr: 0x4760, symBinAddr: 0x6D0F0, symSize: 0xA0 }
  - { offset: 0x1117FD, size: 0x8, addend: 0x0, symName: __RNvMNtCs6IAuOt8vWmF_3syn10punctuatedINtB2_10PunctuatedNtNtB4_8generics14TypeParamBoundNtNtB4_5token4PlusE3lenB4_, symObjAddr: 0x4800, symBinAddr: 0x6D190, symSize: 0xA0 }
  - { offset: 0x111831, size: 0x8, addend: 0x0, symName: __RNvMNtCs6IAuOt8vWmF_3syn10punctuatedINtB2_10PunctuatedNtNtB4_4path11PathSegmentNtNtB4_5token7PathSepE5firstB4_, symObjAddr: 0x4924, symBinAddr: 0x6D230, symSize: 0x84 }
  - { offset: 0x111865, size: 0x8, addend: 0x0, symName: __RNvMNtCs6IAuOt8vWmF_3syn10punctuatedINtB2_10PunctuatedNtNtB4_4path11PathSegmentNtNtB4_5token7PathSepE4lastB4_, symObjAddr: 0x49A8, symBinAddr: 0x6D2B4, symSize: 0x84 }
  - { offset: 0x111899, size: 0x8, addend: 0x0, symName: __RNvMNtCs6IAuOt8vWmF_3syn10punctuatedINtB2_10PunctuatedNtNtB4_8generics14TypeParamBoundNtNtB4_5token4PlusE4lastB4_, symObjAddr: 0x4A2C, symBinAddr: 0x6D338, symSize: 0x84 }
  - { offset: 0x1118DA, size: 0x8, addend: 0x0, symName: __RNvMNtCs6IAuOt8vWmF_3syn10punctuatedINtB2_10PunctuatedNtNtB4_4path11PathSegmentNtNtB4_5token7PathSepE8last_mutB4_, symObjAddr: 0x4AB0, symBinAddr: 0x6D3BC, symSize: 0x84 }
  - { offset: 0x111949, size: 0x8, addend: 0x0, symName: __RNvMNtCs6IAuOt8vWmF_3syn10punctuatedINtB2_10PunctuatedNtNtB4_4data5FieldNtNtB4_5token5CommaE4iterB4_, symObjAddr: 0x4B34, symBinAddr: 0x6D440, symSize: 0xC8 }
  - { offset: 0x1119D5, size: 0x8, addend: 0x0, symName: __RNvMNtCs6IAuOt8vWmF_3syn10punctuatedINtB2_10PunctuatedNtNtB4_4path11PathSegmentNtNtB4_5token7PathSepE4iterB4_, symObjAddr: 0x4CC4, symBinAddr: 0x6D508, symSize: 0xC8 }
  - { offset: 0x111A61, size: 0x8, addend: 0x0, symName: __RNvMNtCs6IAuOt8vWmF_3syn10punctuatedINtB2_10PunctuatedNtNtB4_8generics12GenericParamNtNtB4_5token5CommaE4iterB4_, symObjAddr: 0x4D8C, symBinAddr: 0x6D5D0, symSize: 0xC8 }
  - { offset: 0x111AED, size: 0x8, addend: 0x0, symName: __RNvMNtCs6IAuOt8vWmF_3syn10punctuatedINtB2_10PunctuatedNtNtB4_8generics14TypeParamBoundNtNtB4_5token4PlusE4iterB4_, symObjAddr: 0x4E54, symBinAddr: 0x6D698, symSize: 0xC8 }
  - { offset: 0x111BA0, size: 0x8, addend: 0x0, symName: __RNvMNtCs6IAuOt8vWmF_3syn10punctuatedINtB2_10PunctuatedNtNtB4_4data5FieldNtNtB4_5token5CommaE8iter_mutB4_, symObjAddr: 0x4F1C, symBinAddr: 0x6D760, symSize: 0xC8 }
  - { offset: 0x111C2C, size: 0x8, addend: 0x0, symName: __RNvMNtCs6IAuOt8vWmF_3syn10punctuatedINtB2_10PunctuatedNtNtB4_4path11PathSegmentNtNtB4_5token7PathSepE8iter_mutB4_, symObjAddr: 0x4FE4, symBinAddr: 0x6D828, symSize: 0xC8 }
  - { offset: 0x111CDF, size: 0x8, addend: 0x0, symName: __RNvMNtCs6IAuOt8vWmF_3syn10punctuatedINtB2_10PunctuatedNtNtB4_2ty4TypeNtNtB4_5token5CommaE5pairsB4_, symObjAddr: 0x5174, symBinAddr: 0x6D8F0, symSize: 0x74 }
  - { offset: 0x111D3A, size: 0x8, addend: 0x0, symName: __RNvMNtCs6IAuOt8vWmF_3syn10punctuatedINtB2_10PunctuatedNtNtB4_2ty9BareFnArgNtNtB4_5token5CommaE5pairsB4_, symObjAddr: 0x51E8, symBinAddr: 0x6D964, symSize: 0x74 }
  - { offset: 0x111DA2, size: 0x8, addend: 0x0, symName: __RNvMNtCs6IAuOt8vWmF_3syn10punctuatedINtB2_10PunctuatedNtNtB4_3pat3PatNtNtB4_5token2OrE5pairsB4_, symObjAddr: 0x525C, symBinAddr: 0x6D9D8, symSize: 0x74 }
  - { offset: 0x111DF0, size: 0x8, addend: 0x0, symName: __RNvMNtCs6IAuOt8vWmF_3syn10punctuatedINtB2_10PunctuatedNtNtB4_3pat3PatNtNtB4_5token5CommaE5pairsB4_, symObjAddr: 0x52D0, symBinAddr: 0x6DA4C, symSize: 0x74 }
  - { offset: 0x111E58, size: 0x8, addend: 0x0, symName: __RNvMNtCs6IAuOt8vWmF_3syn10punctuatedINtB2_10PunctuatedNtNtB4_3pat8FieldPatNtNtB4_5token5CommaE5pairsB4_, symObjAddr: 0x5344, symBinAddr: 0x6DAC0, symSize: 0x74 }
  - { offset: 0x111E8C, size: 0x8, addend: 0x0, symName: __RNvMNtCs6IAuOt8vWmF_3syn10punctuatedINtB2_10PunctuatedNtNtB4_4data5FieldNtNtB4_5token5CommaE5pairsB4_, symObjAddr: 0x53B8, symBinAddr: 0x6DB34, symSize: 0x74 }
  - { offset: 0x111EF4, size: 0x8, addend: 0x0, symName: __RNvMNtCs6IAuOt8vWmF_3syn10punctuatedINtB2_10PunctuatedNtNtB4_4data7VariantNtNtB4_5token5CommaE5pairsB4_, symObjAddr: 0x542C, symBinAddr: 0x6DBA8, symSize: 0x74 }
  - { offset: 0x111F5C, size: 0x8, addend: 0x0, symName: __RNvMNtCs6IAuOt8vWmF_3syn10punctuatedINtB2_10PunctuatedNtNtB4_4expr10FieldValueNtNtB4_5token5CommaE5pairsB4_, symObjAddr: 0x54A0, symBinAddr: 0x6DC1C, symSize: 0x74 }
  - { offset: 0x111FB7, size: 0x8, addend: 0x0, symName: __RNvMNtCs6IAuOt8vWmF_3syn10punctuatedINtB2_10PunctuatedNtNtB4_4expr4ExprNtNtB4_5token5CommaE5pairsB4_, symObjAddr: 0x5514, symBinAddr: 0x6DC90, symSize: 0x74 }
  - { offset: 0x111FEB, size: 0x8, addend: 0x0, symName: __RNvMNtCs6IAuOt8vWmF_3syn10punctuatedINtB2_10PunctuatedNtNtB4_4item5FnArgNtNtB4_5token5CommaE5pairsB4_, symObjAddr: 0x5588, symBinAddr: 0x6DD04, symSize: 0x74 }
  - { offset: 0x112053, size: 0x8, addend: 0x0, symName: __RNvMNtCs6IAuOt8vWmF_3syn10punctuatedINtB2_10PunctuatedNtNtB4_4item7UseTreeNtNtB4_5token5CommaE5pairsB4_, symObjAddr: 0x55FC, symBinAddr: 0x6DD78, symSize: 0x74 }
  - { offset: 0x112087, size: 0x8, addend: 0x0, symName: __RNvMNtCs6IAuOt8vWmF_3syn10punctuatedINtB2_10PunctuatedNtNtB4_4path11PathSegmentNtNtB4_5token7PathSepE5pairsB4_, symObjAddr: 0x5670, symBinAddr: 0x6DDEC, symSize: 0x74 }
  - { offset: 0x1120E2, size: 0x8, addend: 0x0, symName: __RNvMNtCs6IAuOt8vWmF_3syn10punctuatedINtB2_10PunctuatedNtNtB4_4path15GenericArgumentNtNtB4_5token5CommaE5pairsB4_, symObjAddr: 0x56E4, symBinAddr: 0x6DE60, symSize: 0x74 }
  - { offset: 0x112116, size: 0x8, addend: 0x0, symName: __RNvMNtCs6IAuOt8vWmF_3syn10punctuatedINtB2_10PunctuatedNtNtB4_8generics12GenericParamNtNtB4_5token5CommaE5pairsB4_, symObjAddr: 0x5758, symBinAddr: 0x6DED4, symSize: 0x74 }
  - { offset: 0x11217E, size: 0x8, addend: 0x0, symName: __RNvMNtCs6IAuOt8vWmF_3syn10punctuatedINtB2_10PunctuatedNtNtB4_8generics13CapturedParamNtNtB4_5token5CommaE5pairsB4_, symObjAddr: 0x57CC, symBinAddr: 0x6DF48, symSize: 0x74 }
  - { offset: 0x1121B2, size: 0x8, addend: 0x0, symName: __RNvMNtCs6IAuOt8vWmF_3syn10punctuatedINtB2_10PunctuatedNtNtB4_8generics14TypeParamBoundNtNtB4_5token4PlusE5pairsB4_, symObjAddr: 0x5840, symBinAddr: 0x6DFBC, symSize: 0x74 }
  - { offset: 0x11220D, size: 0x8, addend: 0x0, symName: __RNvMNtCs6IAuOt8vWmF_3syn10punctuatedINtB2_10PunctuatedNtNtB4_8generics14WherePredicateNtNtB4_5token5CommaE5pairsB4_, symObjAddr: 0x58B4, symBinAddr: 0x6E030, symSize: 0x74 }
  - { offset: 0x112241, size: 0x8, addend: 0x0, symName: __RNvMNtCs6IAuOt8vWmF_3syn10punctuatedINtB2_10PunctuatedNtNtB4_8lifetime8LifetimeNtNtB4_5token4PlusE5pairsB4_, symObjAddr: 0x5928, symBinAddr: 0x6E0A4, symSize: 0x74 }
  - { offset: 0x112275, size: 0x8, addend: 0x0, symName: __RNvMNtCs6IAuOt8vWmF_3syn10punctuatedINtB2_10PunctuatedNtNtB4_4path11PathSegmentNtNtB4_5token7PathSepE10into_pairsB4_, symObjAddr: 0x599C, symBinAddr: 0x6E118, symSize: 0x108 }
  - { offset: 0x1122B7, size: 0x8, addend: 0x0, symName: __RNvMNtCs6IAuOt8vWmF_3syn10punctuatedINtB2_10PunctuatedNtNtB4_2ty4TypeNtNtB4_5token5CommaE10push_valueB4_, symObjAddr: 0x5B3C, symBinAddr: 0x6E2B8, symSize: 0x1B4 }
  - { offset: 0x112325, size: 0x8, addend: 0x0, symName: __RNvMNtCs6IAuOt8vWmF_3syn10punctuatedINtB2_10PunctuatedNtNtB4_2ty9BareFnArgNtNtB4_5token5CommaE10push_valueB4_, symObjAddr: 0x5CF0, symBinAddr: 0x6E46C, symSize: 0x1B4 }
  - { offset: 0x112393, size: 0x8, addend: 0x0, symName: __RNvMNtCs6IAuOt8vWmF_3syn10punctuatedINtB2_10PunctuatedNtNtB4_3pat3PatNtNtB4_5token2OrE10push_valueB4_, symObjAddr: 0x5EA4, symBinAddr: 0x6E620, symSize: 0x1B4 }
  - { offset: 0x112401, size: 0x8, addend: 0x0, symName: __RNvMNtCs6IAuOt8vWmF_3syn10punctuatedINtB2_10PunctuatedNtNtB4_3pat3PatNtNtB4_5token5CommaE10push_valueB4_, symObjAddr: 0x6058, symBinAddr: 0x6E7D4, symSize: 0x1B4 }
  - { offset: 0x11246F, size: 0x8, addend: 0x0, symName: __RNvMNtCs6IAuOt8vWmF_3syn10punctuatedINtB2_10PunctuatedNtNtB4_3pat8FieldPatNtNtB4_5token5CommaE10push_valueB4_, symObjAddr: 0x620C, symBinAddr: 0x6E988, symSize: 0x1B4 }
  - { offset: 0x1124D0, size: 0x8, addend: 0x0, symName: __RNvMNtCs6IAuOt8vWmF_3syn10punctuatedINtB2_10PunctuatedNtNtB4_4data5FieldNtNtB4_5token5CommaE10push_valueB4_, symObjAddr: 0x63C0, symBinAddr: 0x6EB3C, symSize: 0x1B4 }
  - { offset: 0x11253E, size: 0x8, addend: 0x0, symName: __RNvMNtCs6IAuOt8vWmF_3syn10punctuatedINtB2_10PunctuatedNtNtB4_4data7VariantNtNtB4_5token5CommaE10push_valueB4_, symObjAddr: 0x6574, symBinAddr: 0x6ECF0, symSize: 0x1B4 }
  - { offset: 0x1125AC, size: 0x8, addend: 0x0, symName: __RNvMNtCs6IAuOt8vWmF_3syn10punctuatedINtB2_10PunctuatedNtNtB4_4expr10FieldValueNtNtB4_5token5CommaE10push_valueB4_, symObjAddr: 0x6728, symBinAddr: 0x6EEA4, symSize: 0x1B4 }
  - { offset: 0x11261A, size: 0x8, addend: 0x0, symName: __RNvMNtCs6IAuOt8vWmF_3syn10punctuatedINtB2_10PunctuatedNtNtB4_4expr4ExprNtNtB4_5token5CommaE10push_valueB4_, symObjAddr: 0x68DC, symBinAddr: 0x6F058, symSize: 0x1B4 }
  - { offset: 0x112688, size: 0x8, addend: 0x0, symName: __RNvMNtCs6IAuOt8vWmF_3syn10punctuatedINtB2_10PunctuatedNtNtB4_4item5FnArgNtNtB4_5token5CommaE10push_valueB4_, symObjAddr: 0x6A90, symBinAddr: 0x6F20C, symSize: 0x1B4 }
  - { offset: 0x1126F6, size: 0x8, addend: 0x0, symName: __RNvMNtCs6IAuOt8vWmF_3syn10punctuatedINtB2_10PunctuatedNtNtB4_4item7UseTreeNtNtB4_5token5CommaE10push_valueB4_, symObjAddr: 0x6C44, symBinAddr: 0x6F3C0, symSize: 0x1B4 }
  - { offset: 0x112757, size: 0x8, addend: 0x0, symName: __RNvMNtCs6IAuOt8vWmF_3syn10punctuatedINtB2_10PunctuatedNtNtB4_4path11PathSegmentNtNtB4_5token7PathSepE10push_valueB4_, symObjAddr: 0x6DF8, symBinAddr: 0x6F574, symSize: 0x1B4 }
  - { offset: 0x1127C5, size: 0x8, addend: 0x0, symName: __RNvMNtCs6IAuOt8vWmF_3syn10punctuatedINtB2_10PunctuatedNtNtB4_4path15GenericArgumentNtNtB4_5token5CommaE10push_valueB4_, symObjAddr: 0x6FAC, symBinAddr: 0x6F728, symSize: 0x1B4 }
  - { offset: 0x112826, size: 0x8, addend: 0x0, symName: __RNvMNtCs6IAuOt8vWmF_3syn10punctuatedINtB2_10PunctuatedNtNtB4_8generics12GenericParamNtNtB4_5token5CommaE10push_valueB4_, symObjAddr: 0x7160, symBinAddr: 0x6F8DC, symSize: 0x1B4 }
  - { offset: 0x112894, size: 0x8, addend: 0x0, symName: __RNvMNtCs6IAuOt8vWmF_3syn10punctuatedINtB2_10PunctuatedNtNtB4_8generics13CapturedParamNtNtB4_5token5CommaE10push_valueB4_, symObjAddr: 0x7314, symBinAddr: 0x6FA90, symSize: 0x1AC }
  - { offset: 0x112902, size: 0x8, addend: 0x0, symName: __RNvMNtCs6IAuOt8vWmF_3syn10punctuatedINtB2_10PunctuatedNtNtB4_8generics14TypeParamBoundNtNtB4_5token4PlusE10push_valueB4_, symObjAddr: 0x74C0, symBinAddr: 0x6FC3C, symSize: 0x1B4 }
  - { offset: 0x112970, size: 0x8, addend: 0x0, symName: __RNvMNtCs6IAuOt8vWmF_3syn10punctuatedINtB2_10PunctuatedNtNtB4_8generics14WherePredicateNtNtB4_5token5CommaE10push_valueB4_, symObjAddr: 0x7674, symBinAddr: 0x6FDF0, symSize: 0x1B4 }
  - { offset: 0x1129DE, size: 0x8, addend: 0x0, symName: __RNvMNtCs6IAuOt8vWmF_3syn10punctuatedINtB2_10PunctuatedNtNtB4_8lifetime8LifetimeNtNtB4_5token4PlusE10push_valueB4_, symObjAddr: 0x7828, symBinAddr: 0x6FFA4, symSize: 0x1A4 }
  - { offset: 0x112A6A, size: 0x8, addend: 0x0, symName: __RNvMNtCs6IAuOt8vWmF_3syn10punctuatedINtB2_10PunctuatedNtNtB4_2ty4TypeNtNtB4_5token5CommaE10push_punctB4_, symObjAddr: 0x79CC, symBinAddr: 0x70148, symSize: 0x200 }
  - { offset: 0x112B13, size: 0x8, addend: 0x0, symName: __RNvMNtCs6IAuOt8vWmF_3syn10punctuatedINtB2_10PunctuatedNtNtB4_2ty9BareFnArgNtNtB4_5token5CommaE10push_punctB4_, symObjAddr: 0x7BCC, symBinAddr: 0x70348, symSize: 0x200 }
  - { offset: 0x112BBC, size: 0x8, addend: 0x0, symName: __RNvMNtCs6IAuOt8vWmF_3syn10punctuatedINtB2_10PunctuatedNtNtB4_3pat3PatNtNtB4_5token2OrE10push_punctB4_, symObjAddr: 0x7DCC, symBinAddr: 0x70548, symSize: 0x200 }
  - { offset: 0x112C3A, size: 0x8, addend: 0x0, symName: __RNvMNtCs6IAuOt8vWmF_3syn10punctuatedINtB2_10PunctuatedNtNtB4_3pat3PatNtNtB4_5token5CommaE10push_punctB4_, symObjAddr: 0x7FCC, symBinAddr: 0x70748, symSize: 0x200 }
  - { offset: 0x112CE3, size: 0x8, addend: 0x0, symName: __RNvMNtCs6IAuOt8vWmF_3syn10punctuatedINtB2_10PunctuatedNtNtB4_3pat8FieldPatNtNtB4_5token5CommaE10push_punctB4_, symObjAddr: 0x81CC, symBinAddr: 0x70948, symSize: 0x200 }
  - { offset: 0x112D8C, size: 0x8, addend: 0x0, symName: __RNvMNtCs6IAuOt8vWmF_3syn10punctuatedINtB2_10PunctuatedNtNtB4_4data5FieldNtNtB4_5token5CommaE10push_punctB4_, symObjAddr: 0x83CC, symBinAddr: 0x70B48, symSize: 0x200 }
  - { offset: 0x112E35, size: 0x8, addend: 0x0, symName: __RNvMNtCs6IAuOt8vWmF_3syn10punctuatedINtB2_10PunctuatedNtNtB4_4data7VariantNtNtB4_5token5CommaE10push_punctB4_, symObjAddr: 0x85CC, symBinAddr: 0x70D48, symSize: 0x200 }
  - { offset: 0x112EDE, size: 0x8, addend: 0x0, symName: __RNvMNtCs6IAuOt8vWmF_3syn10punctuatedINtB2_10PunctuatedNtNtB4_4expr10FieldValueNtNtB4_5token5CommaE10push_punctB4_, symObjAddr: 0x87CC, symBinAddr: 0x70F48, symSize: 0x200 }
  - { offset: 0x112F87, size: 0x8, addend: 0x0, symName: __RNvMNtCs6IAuOt8vWmF_3syn10punctuatedINtB2_10PunctuatedNtNtB4_4expr4ExprNtNtB4_5token5CommaE10push_punctB4_, symObjAddr: 0x89CC, symBinAddr: 0x71148, symSize: 0x200 }
  - { offset: 0x113030, size: 0x8, addend: 0x0, symName: __RNvMNtCs6IAuOt8vWmF_3syn10punctuatedINtB2_10PunctuatedNtNtB4_4item5FnArgNtNtB4_5token5CommaE10push_punctB4_, symObjAddr: 0x8BCC, symBinAddr: 0x71348, symSize: 0x200 }
