---
triple:          'arm64-apple-darwin'
binary-path:     '/Users/cedric/orange/ran-llm-claude-flow/src/rust-pipeline/target/debug/deps/libyoke_derive-d4547cb230630cf4.dylib'
relocations:
  - { offset: 0x1E, size: 0x8, addend: 0x0, symName: __RINvXs3_NtNtCse1nGBsou5OW_5alloc3vec9into_iterINtB6_8IntoIterNtNtCs6IAuOt8vWmF_3syn4attr9AttributeENtNtNtNtCsfvfooZQ3Axs_4core4iter6traits8iterator8Iterator8try_foldINtNtB8_13in_place_drop11InPlaceDropBX_ENCINvNtNtB1F_8adapters3map12map_try_foldBX_BX_B2D_INtNtB1H_6result6ResultB2D_zENCINvNtNtB11_3gen4fold8fold_vecBX_NtNvCs2GZpXKFCdsl_11yoke_derive16replace_lifetime15ReplaceLifetimeNvYB56_NtB4D_4Fold14fold_attributeE0NCINvNtB8_16in_place_collect24write_in_place_with_dropBX_E0E0B45_EB5a_, symObjAddr: 0x0, symBinAddr: 0xC50, symSize: 0x1F0 }
  - { offset: 0x76C4, size: 0x8, addend: 0x0, symName: __RINvYINtNtNtCse1nGBsou5OW_5alloc3vec9into_iter8IntoIterNtNtCs6IAuOt8vWmF_3syn4attr9AttributeENtNtNtNtCsfvfooZQ3Axs_4core4iter6traits8iterator8Iterator3mapBR_NCINvNtNtBV_3gen4fold8fold_vecBR_NtNvCs2GZpXKFCdsl_11yoke_derive16replace_lifetime15ReplaceLifetimeNvYB32_NtB2A_4Fold14fold_attributeE0EB36_, symObjAddr: 0x307C, symBinAddr: 0x3CCC, symSize: 0x34 }
  - { offset: 0x7731, size: 0x8, addend: 0x0, symName: __RINvYINtNtNtCse1nGBsou5OW_5alloc3vec9into_iter8IntoIterNtNtCs6IAuOt8vWmF_3syn4expr3ArmENtNtNtNtCsfvfooZQ3Axs_4core4iter6traits8iterator8Iterator3mapBR_NCINvNtNtBV_3gen4fold8fold_vecBR_NtNvCs2GZpXKFCdsl_11yoke_derive16replace_lifetime15ReplaceLifetimeNvYB2W_NtB2u_4Fold8fold_armE0EB30_, symObjAddr: 0x30B0, symBinAddr: 0x3D00, symSize: 0x34 }
  - { offset: 0x779E, size: 0x8, addend: 0x0, symName: __RINvYINtNtNtCse1nGBsou5OW_5alloc3vec9into_iter8IntoIterNtNtCs6IAuOt8vWmF_3syn4item11ForeignItemENtNtNtNtCsfvfooZQ3Axs_4core4iter6traits8iterator8Iterator3mapBR_NCINvNtNtBV_3gen4fold8fold_vecBR_NtNvCs2GZpXKFCdsl_11yoke_derive16replace_lifetime15ReplaceLifetimeNvYB35_NtB2D_4Fold17fold_foreign_itemE0EB39_, symObjAddr: 0x30E4, symBinAddr: 0x3D34, symSize: 0x34 }
  - { offset: 0x780B, size: 0x8, addend: 0x0, symName: __RINvYINtNtNtCse1nGBsou5OW_5alloc3vec9into_iter8IntoIterNtNtCs6IAuOt8vWmF_3syn4item4ItemENtNtNtNtCsfvfooZQ3Axs_4core4iter6traits8iterator8Iterator3mapBR_NCINvNtNtBV_3gen4fold8fold_vecBR_NtNvCs2GZpXKFCdsl_11yoke_derive16replace_lifetime15ReplaceLifetimeNvYB2X_NtB2v_4Fold9fold_itemE0EB31_, symObjAddr: 0x3118, symBinAddr: 0x3D68, symSize: 0x34 }
  - { offset: 0x7878, size: 0x8, addend: 0x0, symName: __RINvYINtNtNtCse1nGBsou5OW_5alloc3vec9into_iter8IntoIterNtNtCs6IAuOt8vWmF_3syn4item8ImplItemENtNtNtNtCsfvfooZQ3Axs_4core4iter6traits8iterator8Iterator3mapBR_NCINvNtNtBV_3gen4fold8fold_vecBR_NtNvCs2GZpXKFCdsl_11yoke_derive16replace_lifetime15ReplaceLifetimeNvYB31_NtB2z_4Fold14fold_impl_itemE0EB35_, symObjAddr: 0x314C, symBinAddr: 0x3D9C, symSize: 0x34 }
  - { offset: 0x78E5, size: 0x8, addend: 0x0, symName: __RINvYINtNtNtCse1nGBsou5OW_5alloc3vec9into_iter8IntoIterNtNtCs6IAuOt8vWmF_3syn4item9TraitItemENtNtNtNtCsfvfooZQ3Axs_4core4iter6traits8iterator8Iterator3mapBR_NCINvNtNtBV_3gen4fold8fold_vecBR_NtNvCs2GZpXKFCdsl_11yoke_derive16replace_lifetime15ReplaceLifetimeNvYB32_NtB2A_4Fold15fold_trait_itemE0EB36_, symObjAddr: 0x3180, symBinAddr: 0x3DD0, symSize: 0x34 }
  - { offset: 0x7952, size: 0x8, addend: 0x0, symName: __RINvYINtNtNtCse1nGBsou5OW_5alloc3vec9into_iter8IntoIterNtNtCs6IAuOt8vWmF_3syn4stmt4StmtENtNtNtNtCsfvfooZQ3Axs_4core4iter6traits8iterator8Iterator3mapBR_NCINvNtNtBV_3gen4fold8fold_vecBR_NtNvCs2GZpXKFCdsl_11yoke_derive16replace_lifetime15ReplaceLifetimeNvYB2X_NtB2v_4Fold9fold_stmtE0EB31_, symObjAddr: 0x31B4, symBinAddr: 0x3E04, symSize: 0x34 }
  - { offset: 0x79BF, size: 0x8, addend: 0x0, symName: __RINvYINtNtNtCse1nGBsou5OW_5alloc3vec9into_iter8IntoIterTNtNtCs6IAuOt8vWmF_3syn2ty4TypeNtNtBW_5token5CommaEENtNtNtNtCsfvfooZQ3Axs_4core4iter6traits8iterator8Iterator3mapBR_NCINvNtBW_10punctuated4foldBS_B1m_NtNvCs2GZpXKFCdsl_11yoke_derive16replace_lifetime15ReplaceLifetimeNvYB3h_NtNtNtBW_3gen4fold4Fold9fold_typeE0EB3l_, symObjAddr: 0x31E8, symBinAddr: 0x3E38, symSize: 0x34 }
  - { offset: 0x7A2C, size: 0x8, addend: 0x0, symName: __RINvYINtNtNtCse1nGBsou5OW_5alloc3vec9into_iter8IntoIterTNtNtCs6IAuOt8vWmF_3syn2ty9BareFnArgNtNtBW_5token5CommaEENtNtNtNtCsfvfooZQ3Axs_4core4iter6traits8iterator8Iterator3mapBR_NCINvNtBW_10punctuated4foldBS_B1r_NtNvCs2GZpXKFCdsl_11yoke_derive16replace_lifetime15ReplaceLifetimeNvYB3m_NtNtNtBW_3gen4fold4Fold16fold_bare_fn_argE0EB3q_, symObjAddr: 0x321C, symBinAddr: 0x3E6C, symSize: 0x34 }
  - { offset: 0x7A99, size: 0x8, addend: 0x0, symName: __RINvYINtNtNtCse1nGBsou5OW_5alloc3vec9into_iter8IntoIterTNtNtCs6IAuOt8vWmF_3syn3pat3PatNtNtBW_5token2OrEENtNtNtNtCsfvfooZQ3Axs_4core4iter6traits8iterator8Iterator3mapBR_NCINvNtBW_10punctuated4foldBS_B1m_NtNvCs2GZpXKFCdsl_11yoke_derive16replace_lifetime15ReplaceLifetimeNvYB3e_NtNtNtBW_3gen4fold4Fold8fold_patE0EB3i_, symObjAddr: 0x3250, symBinAddr: 0x3EA0, symSize: 0x34 }
  - { offset: 0x7B06, size: 0x8, addend: 0x0, symName: __RINvYINtNtNtCse1nGBsou5OW_5alloc3vec9into_iter8IntoIterTNtNtCs6IAuOt8vWmF_3syn3pat3PatNtNtBW_5token5CommaEENtNtNtNtCsfvfooZQ3Axs_4core4iter6traits8iterator8Iterator3mapBR_NCINvNtBW_10punctuated4foldBS_B1m_NtNvCs2GZpXKFCdsl_11yoke_derive16replace_lifetime15ReplaceLifetimeNvYB3h_NtNtNtBW_3gen4fold4Fold8fold_patE0EB3l_, symObjAddr: 0x3284, symBinAddr: 0x3ED4, symSize: 0x34 }
  - { offset: 0x7B73, size: 0x8, addend: 0x0, symName: __RINvYINtNtNtCse1nGBsou5OW_5alloc3vec9into_iter8IntoIterTNtNtCs6IAuOt8vWmF_3syn3pat8FieldPatNtNtBW_5token5CommaEENtNtNtNtCsfvfooZQ3Axs_4core4iter6traits8iterator8Iterator3mapBR_NCINvNtBW_10punctuated4foldBS_B1r_NtNvCs2GZpXKFCdsl_11yoke_derive16replace_lifetime15ReplaceLifetimeNvYB3m_NtNtNtBW_3gen4fold4Fold14fold_field_patE0EB3q_, symObjAddr: 0x32B8, symBinAddr: 0x3F08, symSize: 0x34 }
  - { offset: 0x7BE0, size: 0x8, addend: 0x0, symName: __RINvYINtNtNtCse1nGBsou5OW_5alloc3vec9into_iter8IntoIterTNtNtCs6IAuOt8vWmF_3syn4data5FieldNtNtBW_5token5CommaEENtNtNtNtCsfvfooZQ3Axs_4core4iter6traits8iterator8Iterator3mapBR_NCINvNtBW_10punctuated4foldBS_B1p_NtNvCs2GZpXKFCdsl_11yoke_derive16replace_lifetime15ReplaceLifetimeNvYB3k_NtNtNtBW_3gen4fold4Fold10fold_fieldE0EB3o_, symObjAddr: 0x32EC, symBinAddr: 0x3F3C, symSize: 0x34 }
  - { offset: 0x7C4D, size: 0x8, addend: 0x0, symName: __RINvYINtNtNtCse1nGBsou5OW_5alloc3vec9into_iter8IntoIterTNtNtCs6IAuOt8vWmF_3syn4data7VariantNtNtBW_5token5CommaEENtNtNtNtCsfvfooZQ3Axs_4core4iter6traits8iterator8Iterator3mapBR_NCINvNtBW_10punctuated4foldBS_B1r_NtNvCs2GZpXKFCdsl_11yoke_derive16replace_lifetime15ReplaceLifetimeNvYB3m_NtNtNtBW_3gen4fold4Fold12fold_variantE0EB3q_, symObjAddr: 0x3320, symBinAddr: 0x3F70, symSize: 0x34 }
  - { offset: 0x7CBA, size: 0x8, addend: 0x0, symName: __RINvYINtNtNtCse1nGBsou5OW_5alloc3vec9into_iter8IntoIterTNtNtCs6IAuOt8vWmF_3syn4expr10FieldValueNtNtBW_5token5CommaEENtNtNtNtCsfvfooZQ3Axs_4core4iter6traits8iterator8Iterator3mapBR_NCINvNtBW_10punctuated4foldBS_B1v_NtNvCs2GZpXKFCdsl_11yoke_derive16replace_lifetime15ReplaceLifetimeNvYB3q_NtNtNtBW_3gen4fold4Fold16fold_field_valueE0EB3u_, symObjAddr: 0x3354, symBinAddr: 0x3FA4, symSize: 0x34 }
  - { offset: 0x7D27, size: 0x8, addend: 0x0, symName: __RINvYINtNtNtCse1nGBsou5OW_5alloc3vec9into_iter8IntoIterTNtNtCs6IAuOt8vWmF_3syn4expr4ExprNtNtBW_5token5CommaEENtNtNtNtCsfvfooZQ3Axs_4core4iter6traits8iterator8Iterator3mapBR_NCINvNtBW_10punctuated4foldBS_B1o_NtNvCs2GZpXKFCdsl_11yoke_derive16replace_lifetime15ReplaceLifetimeNvYB3j_NtNtNtBW_3gen4fold4Fold9fold_exprE0EB3n_, symObjAddr: 0x3388, symBinAddr: 0x3FD8, symSize: 0x34 }
  - { offset: 0x7D94, size: 0x8, addend: 0x0, symName: __RINvYINtNtNtCse1nGBsou5OW_5alloc3vec9into_iter8IntoIterTNtNtCs6IAuOt8vWmF_3syn4item5FnArgNtNtBW_5token5CommaEENtNtNtNtCsfvfooZQ3Axs_4core4iter6traits8iterator8Iterator3mapBR_NCINvNtBW_10punctuated4foldBS_B1p_NtNvCs2GZpXKFCdsl_11yoke_derive16replace_lifetime15ReplaceLifetimeNvYB3k_NtNtNtBW_3gen4fold4Fold11fold_fn_argE0EB3o_, symObjAddr: 0x33BC, symBinAddr: 0x400C, symSize: 0x34 }
  - { offset: 0x7E01, size: 0x8, addend: 0x0, symName: __RINvYINtNtNtCse1nGBsou5OW_5alloc3vec9into_iter8IntoIterTNtNtCs6IAuOt8vWmF_3syn4item7UseTreeNtNtBW_5token5CommaEENtNtNtNtCsfvfooZQ3Axs_4core4iter6traits8iterator8Iterator3mapBR_NCINvNtBW_10punctuated4foldBS_B1r_NtNvCs2GZpXKFCdsl_11yoke_derive16replace_lifetime15ReplaceLifetimeNvYB3m_NtNtNtBW_3gen4fold4Fold13fold_use_treeE0EB3q_, symObjAddr: 0x33F0, symBinAddr: 0x4040, symSize: 0x34 }
  - { offset: 0x7E6E, size: 0x8, addend: 0x0, symName: __RINvYINtNtNtCse1nGBsou5OW_5alloc3vec9into_iter8IntoIterTNtNtCs6IAuOt8vWmF_3syn4path11PathSegmentNtNtBW_5token7PathSepEENtNtNtNtCsfvfooZQ3Axs_4core4iter6traits8iterator8Iterator3mapBR_NCINvNtBW_10punctuated4foldBS_B1w_NtNvCs2GZpXKFCdsl_11yoke_derive16replace_lifetime15ReplaceLifetimeNvYB3t_NtNtNtBW_3gen4fold4Fold17fold_path_segmentE0EB3x_, symObjAddr: 0x3424, symBinAddr: 0x4074, symSize: 0x34 }
  - { offset: 0x7EDB, size: 0x8, addend: 0x0, symName: __RINvYINtNtNtCse1nGBsou5OW_5alloc3vec9into_iter8IntoIterTNtNtCs6IAuOt8vWmF_3syn4path15GenericArgumentNtNtBW_5token5CommaEENtNtNtNtCsfvfooZQ3Axs_4core4iter6traits8iterator8Iterator3mapBR_NCINvNtBW_10punctuated4foldBS_B1A_NtNvCs2GZpXKFCdsl_11yoke_derive16replace_lifetime15ReplaceLifetimeNvYB3v_NtNtNtBW_3gen4fold4Fold21fold_generic_argumentE0EB3z_, symObjAddr: 0x3458, symBinAddr: 0x40A8, symSize: 0x34 }
  - { offset: 0x7F48, size: 0x8, addend: 0x0, symName: __RINvYINtNtNtCse1nGBsou5OW_5alloc3vec9into_iter8IntoIterTNtNtCs6IAuOt8vWmF_3syn8generics12GenericParamNtNtBW_5token5CommaEENtNtNtNtCsfvfooZQ3Axs_4core4iter6traits8iterator8Iterator3mapBR_NCINvNtBW_10punctuated4foldBS_B1B_NtNvCs2GZpXKFCdsl_11yoke_derive16replace_lifetime15ReplaceLifetimeNvYB3w_NtNtNtBW_3gen4fold4Fold18fold_generic_paramE0EB3A_, symObjAddr: 0x348C, symBinAddr: 0x40DC, symSize: 0x34 }
  - { offset: 0x7FB5, size: 0x8, addend: 0x0, symName: __RINvYINtNtNtCse1nGBsou5OW_5alloc3vec9into_iter8IntoIterTNtNtCs6IAuOt8vWmF_3syn8generics13CapturedParamNtNtBW_5token5CommaEENtNtNtNtCsfvfooZQ3Axs_4core4iter6traits8iterator8Iterator3mapBR_NCINvNtBW_10punctuated4foldBS_B1C_NtNvCs2GZpXKFCdsl_11yoke_derive16replace_lifetime15ReplaceLifetimeNvYB3x_NtNtNtBW_3gen4fold4Fold19fold_captured_paramE0EB3B_, symObjAddr: 0x34C0, symBinAddr: 0x4110, symSize: 0x34 }
  - { offset: 0x8022, size: 0x8, addend: 0x0, symName: __RINvYINtNtNtCse1nGBsou5OW_5alloc3vec9into_iter8IntoIterTNtNtCs6IAuOt8vWmF_3syn8generics14TypeParamBoundNtNtBW_5token4PlusEENtNtNtNtCsfvfooZQ3Axs_4core4iter6traits8iterator8Iterator3mapBR_NCINvNtBW_10punctuated4foldBS_B1D_NtNvCs2GZpXKFCdsl_11yoke_derive16replace_lifetime15ReplaceLifetimeNvYB3x_NtNtNtBW_3gen4fold4Fold21fold_type_param_boundE0EB3B_, symObjAddr: 0x34F4, symBinAddr: 0x4144, symSize: 0x34 }
  - { offset: 0x808F, size: 0x8, addend: 0x0, symName: __RINvYINtNtNtCse1nGBsou5OW_5alloc3vec9into_iter8IntoIterTNtNtCs6IAuOt8vWmF_3syn8generics14WherePredicateNtNtBW_5token5CommaEENtNtNtNtCsfvfooZQ3Axs_4core4iter6traits8iterator8Iterator3mapBR_NCINvNtBW_10punctuated4foldBS_B1D_NtNvCs2GZpXKFCdsl_11yoke_derive16replace_lifetime15ReplaceLifetimeNvYB3y_NtNtNtBW_3gen4fold4Fold20fold_where_predicateE0EB3C_, symObjAddr: 0x3528, symBinAddr: 0x4178, symSize: 0x34 }
  - { offset: 0x80FC, size: 0x8, addend: 0x0, symName: __RINvYINtNtNtCse1nGBsou5OW_5alloc3vec9into_iter8IntoIterTNtNtCs6IAuOt8vWmF_3syn8lifetime8LifetimeNtNtBW_5token4PlusEENtNtNtNtCsfvfooZQ3Axs_4core4iter6traits8iterator8Iterator3mapBR_NCINvNtBW_10punctuated4foldBS_B1w_NtNvCs2GZpXKFCdsl_11yoke_derive16replace_lifetime15ReplaceLifetimeNvYB3q_NtNtNtBW_3gen4fold4Fold13fold_lifetimeE0EB3u_, symObjAddr: 0x355C, symBinAddr: 0x41AC, symSize: 0x34 }
  - { offset: 0x8821, size: 0x8, addend: 0x0, symName: __RNvYINtNtNtCse1nGBsou5OW_5alloc3vec9into_iter8IntoIterNtNtCs6IAuOt8vWmF_3syn4expr3ArmENtNtNtNtCsfvfooZQ3Axs_4core4iter6traits10exact_size17ExactSizeIterator3lenCs2GZpXKFCdsl_11yoke_derive, symObjAddr: 0x69C4, symBinAddr: 0x7614, symSize: 0xF4 }
  - { offset: 0x8914, size: 0x8, addend: 0x0, symName: __RNvYINtNtNtCse1nGBsou5OW_5alloc3vec9into_iter8IntoIterNtNtCs6IAuOt8vWmF_3syn4item11ForeignItemENtNtNtNtCsfvfooZQ3Axs_4core4iter6traits10exact_size17ExactSizeIterator3lenCs2GZpXKFCdsl_11yoke_derive, symObjAddr: 0x6AB8, symBinAddr: 0x7708, symSize: 0xF4 }
  - { offset: 0x8A07, size: 0x8, addend: 0x0, symName: __RNvYINtNtNtCse1nGBsou5OW_5alloc3vec9into_iter8IntoIterNtNtCs6IAuOt8vWmF_3syn4item4ItemENtNtNtNtCsfvfooZQ3Axs_4core4iter6traits10exact_size17ExactSizeIterator3lenCs2GZpXKFCdsl_11yoke_derive, symObjAddr: 0x6BAC, symBinAddr: 0x77FC, symSize: 0xF4 }
  - { offset: 0x8AFA, size: 0x8, addend: 0x0, symName: __RNvYINtNtNtCse1nGBsou5OW_5alloc3vec9into_iter8IntoIterNtNtCs6IAuOt8vWmF_3syn4item8ImplItemENtNtNtNtCsfvfooZQ3Axs_4core4iter6traits10exact_size17ExactSizeIterator3lenCs2GZpXKFCdsl_11yoke_derive, symObjAddr: 0x6CA0, symBinAddr: 0x78F0, symSize: 0xF4 }
  - { offset: 0x8BED, size: 0x8, addend: 0x0, symName: __RNvYINtNtNtCse1nGBsou5OW_5alloc3vec9into_iter8IntoIterNtNtCs6IAuOt8vWmF_3syn4item9TraitItemENtNtNtNtCsfvfooZQ3Axs_4core4iter6traits10exact_size17ExactSizeIterator3lenCs2GZpXKFCdsl_11yoke_derive, symObjAddr: 0x6D94, symBinAddr: 0x79E4, symSize: 0xF4 }
  - { offset: 0x8CE0, size: 0x8, addend: 0x0, symName: __RNvYINtNtNtCse1nGBsou5OW_5alloc3vec9into_iter8IntoIterNtNtCs6IAuOt8vWmF_3syn4stmt4StmtENtNtNtNtCsfvfooZQ3Axs_4core4iter6traits10exact_size17ExactSizeIterator3lenCs2GZpXKFCdsl_11yoke_derive, symObjAddr: 0x6E88, symBinAddr: 0x7AD8, symSize: 0xF4 }
  - { offset: 0x8DD3, size: 0x8, addend: 0x0, symName: __RNvYINtNtNtCse1nGBsou5OW_5alloc3vec9into_iter8IntoIterTNtNtCs6IAuOt8vWmF_3syn2ty4TypeNtNtBV_5token5CommaEENtNtNtNtCsfvfooZQ3Axs_4core4iter6traits10exact_size17ExactSizeIterator3lenCs2GZpXKFCdsl_11yoke_derive, symObjAddr: 0x6F7C, symBinAddr: 0x7BCC, symSize: 0xF4 }
  - { offset: 0x8EC6, size: 0x8, addend: 0x0, symName: __RNvYINtNtNtCse1nGBsou5OW_5alloc3vec9into_iter8IntoIterTNtNtCs6IAuOt8vWmF_3syn2ty9BareFnArgNtNtBV_5token5CommaEENtNtNtNtCsfvfooZQ3Axs_4core4iter6traits10exact_size17ExactSizeIterator3lenCs2GZpXKFCdsl_11yoke_derive, symObjAddr: 0x7070, symBinAddr: 0x7CC0, symSize: 0xF4 }
  - { offset: 0x8FB9, size: 0x8, addend: 0x0, symName: __RNvYINtNtNtCse1nGBsou5OW_5alloc3vec9into_iter8IntoIterTNtNtCs6IAuOt8vWmF_3syn3pat3PatNtNtBV_5token2OrEENtNtNtNtCsfvfooZQ3Axs_4core4iter6traits10exact_size17ExactSizeIterator3lenCs2GZpXKFCdsl_11yoke_derive, symObjAddr: 0x7164, symBinAddr: 0x7DB4, symSize: 0xF4 }
  - { offset: 0x90AC, size: 0x8, addend: 0x0, symName: __RNvYINtNtNtCse1nGBsou5OW_5alloc3vec9into_iter8IntoIterTNtNtCs6IAuOt8vWmF_3syn3pat3PatNtNtBV_5token5CommaEENtNtNtNtCsfvfooZQ3Axs_4core4iter6traits10exact_size17ExactSizeIterator3lenCs2GZpXKFCdsl_11yoke_derive, symObjAddr: 0x7258, symBinAddr: 0x7EA8, symSize: 0xF4 }
  - { offset: 0x919F, size: 0x8, addend: 0x0, symName: __RNvYINtNtNtCse1nGBsou5OW_5alloc3vec9into_iter8IntoIterTNtNtCs6IAuOt8vWmF_3syn3pat8FieldPatNtNtBV_5token5CommaEENtNtNtNtCsfvfooZQ3Axs_4core4iter6traits10exact_size17ExactSizeIterator3lenCs2GZpXKFCdsl_11yoke_derive, symObjAddr: 0x734C, symBinAddr: 0x7F9C, symSize: 0xF4 }
  - { offset: 0x9292, size: 0x8, addend: 0x0, symName: __RNvYINtNtNtCse1nGBsou5OW_5alloc3vec9into_iter8IntoIterTNtNtCs6IAuOt8vWmF_3syn4data7VariantNtNtBV_5token5CommaEENtNtNtNtCsfvfooZQ3Axs_4core4iter6traits10exact_size17ExactSizeIterator3lenCs2GZpXKFCdsl_11yoke_derive, symObjAddr: 0x7440, symBinAddr: 0x8090, symSize: 0xF4 }
  - { offset: 0x9385, size: 0x8, addend: 0x0, symName: __RNvYINtNtNtCse1nGBsou5OW_5alloc3vec9into_iter8IntoIterTNtNtCs6IAuOt8vWmF_3syn4expr10FieldValueNtNtBV_5token5CommaEENtNtNtNtCsfvfooZQ3Axs_4core4iter6traits10exact_size17ExactSizeIterator3lenCs2GZpXKFCdsl_11yoke_derive, symObjAddr: 0x7534, symBinAddr: 0x8184, symSize: 0xF4 }
  - { offset: 0x9478, size: 0x8, addend: 0x0, symName: __RNvYINtNtNtCse1nGBsou5OW_5alloc3vec9into_iter8IntoIterTNtNtCs6IAuOt8vWmF_3syn4expr4ExprNtNtBV_5token5CommaEENtNtNtNtCsfvfooZQ3Axs_4core4iter6traits10exact_size17ExactSizeIterator3lenCs2GZpXKFCdsl_11yoke_derive, symObjAddr: 0x7628, symBinAddr: 0x8278, symSize: 0xF4 }
  - { offset: 0x956B, size: 0x8, addend: 0x0, symName: __RNvYINtNtNtCse1nGBsou5OW_5alloc3vec9into_iter8IntoIterTNtNtCs6IAuOt8vWmF_3syn4item5FnArgNtNtBV_5token5CommaEENtNtNtNtCsfvfooZQ3Axs_4core4iter6traits10exact_size17ExactSizeIterator3lenCs2GZpXKFCdsl_11yoke_derive, symObjAddr: 0x771C, symBinAddr: 0x836C, symSize: 0xF4 }
  - { offset: 0x965E, size: 0x8, addend: 0x0, symName: __RNvYINtNtNtCse1nGBsou5OW_5alloc3vec9into_iter8IntoIterTNtNtCs6IAuOt8vWmF_3syn4item7UseTreeNtNtBV_5token5CommaEENtNtNtNtCsfvfooZQ3Axs_4core4iter6traits10exact_size17ExactSizeIterator3lenCs2GZpXKFCdsl_11yoke_derive, symObjAddr: 0x7810, symBinAddr: 0x8460, symSize: 0xF4 }
  - { offset: 0x9751, size: 0x8, addend: 0x0, symName: __RNvYINtNtNtCse1nGBsou5OW_5alloc3vec9into_iter8IntoIterTNtNtCs6IAuOt8vWmF_3syn4path15GenericArgumentNtNtBV_5token5CommaEENtNtNtNtCsfvfooZQ3Axs_4core4iter6traits10exact_size17ExactSizeIterator3lenCs2GZpXKFCdsl_11yoke_derive, symObjAddr: 0x7904, symBinAddr: 0x8554, symSize: 0xF4 }
  - { offset: 0x9844, size: 0x8, addend: 0x0, symName: __RNvYINtNtNtCse1nGBsou5OW_5alloc3vec9into_iter8IntoIterTNtNtCs6IAuOt8vWmF_3syn8generics12GenericParamNtNtBV_5token5CommaEENtNtNtNtCsfvfooZQ3Axs_4core4iter6traits10exact_size17ExactSizeIterator3lenCs2GZpXKFCdsl_11yoke_derive, symObjAddr: 0x79F8, symBinAddr: 0x8648, symSize: 0xF4 }
  - { offset: 0x9937, size: 0x8, addend: 0x0, symName: __RNvYINtNtNtCse1nGBsou5OW_5alloc3vec9into_iter8IntoIterTNtNtCs6IAuOt8vWmF_3syn8generics13CapturedParamNtNtBV_5token5CommaEENtNtNtNtCsfvfooZQ3Axs_4core4iter6traits10exact_size17ExactSizeIterator3lenCs2GZpXKFCdsl_11yoke_derive, symObjAddr: 0x7AEC, symBinAddr: 0x873C, symSize: 0xF4 }
  - { offset: 0x9A2A, size: 0x8, addend: 0x0, symName: __RNvYINtNtNtCse1nGBsou5OW_5alloc3vec9into_iter8IntoIterTNtNtCs6IAuOt8vWmF_3syn8generics14WherePredicateNtNtBV_5token5CommaEENtNtNtNtCsfvfooZQ3Axs_4core4iter6traits10exact_size17ExactSizeIterator3lenCs2GZpXKFCdsl_11yoke_derive, symObjAddr: 0x7BE0, symBinAddr: 0x8830, symSize: 0xF4 }
  - { offset: 0x9B1D, size: 0x8, addend: 0x0, symName: __RNvYINtNtNtCse1nGBsou5OW_5alloc3vec9into_iter8IntoIterTNtNtCs6IAuOt8vWmF_3syn8lifetime8LifetimeNtNtBV_5token4PlusEENtNtNtNtCsfvfooZQ3Axs_4core4iter6traits10exact_size17ExactSizeIterator3lenCs2GZpXKFCdsl_11yoke_derive, symObjAddr: 0x7CD4, symBinAddr: 0x8924, symSize: 0xF4 }
  - { offset: 0xFD73, size: 0x8, addend: 0x0, symName: __RINvXs3_NtNtCse1nGBsou5OW_5alloc3vec9into_iterINtB6_8IntoIterNtNtCs6IAuOt8vWmF_3syn4attr9AttributeENtNtNtNtCsfvfooZQ3Axs_4core4iter6traits8iterator8Iterator8try_foldINtNtB8_13in_place_drop11InPlaceDropBX_ENCINvNtNtB1F_8adapters3map12map_try_foldBX_BX_B2D_INtNtB1H_6result6ResultB2D_zENCINvNtNtB11_3gen4fold8fold_vecBX_NtNvCs2GZpXKFCdsl_11yoke_derive16replace_lifetime15ReplaceLifetimeNvYB56_NtB4D_4Fold14fold_attributeE0NCINvNtB8_16in_place_collect24write_in_place_with_dropBX_E0E0B45_EB5a_, symObjAddr: 0x0, symBinAddr: 0xC50, symSize: 0x1F0 }
  - { offset: 0xFF55, size: 0x8, addend: 0x0, symName: __RINvXs3_NtNtCse1nGBsou5OW_5alloc3vec9into_iterINtB6_8IntoIterNtNtCs6IAuOt8vWmF_3syn4expr3ArmENtNtNtNtCsfvfooZQ3Axs_4core4iter6traits8iterator8Iterator8try_foldINtNtB8_13in_place_drop11InPlaceDropBX_ENCINvNtNtB1z_8adapters3map12map_try_foldBX_BX_B2x_INtNtB1B_6result6ResultB2x_zENCINvNtNtB11_3gen4fold8fold_vecBX_NtNvCs2GZpXKFCdsl_11yoke_derive16replace_lifetime15ReplaceLifetimeNvYB50_NtB4x_4Fold8fold_armE0NCINvNtB8_16in_place_collect24write_in_place_with_dropBX_E0E0B3Z_EB54_, symObjAddr: 0x1F0, symBinAddr: 0xE40, symSize: 0x1F0 }
  - { offset: 0x10137, size: 0x8, addend: 0x0, symName: __RINvXs3_NtNtCse1nGBsou5OW_5alloc3vec9into_iterINtB6_8IntoIterNtNtCs6IAuOt8vWmF_3syn4item11ForeignItemENtNtNtNtCsfvfooZQ3Axs_4core4iter6traits8iterator8Iterator8try_foldINtNtB8_13in_place_drop11InPlaceDropBX_ENCINvNtNtB1I_8adapters3map12map_try_foldBX_BX_B2G_INtNtB1K_6result6ResultB2G_zENCINvNtNtB11_3gen4fold8fold_vecBX_NtNvCs2GZpXKFCdsl_11yoke_derive16replace_lifetime15ReplaceLifetimeNvYB59_NtB4G_4Fold17fold_foreign_itemE0NCINvNtB8_16in_place_collect24write_in_place_with_dropBX_E0E0B48_EB5d_, symObjAddr: 0x3E0, symBinAddr: 0x1030, symSize: 0x1F0 }
  - { offset: 0x10319, size: 0x8, addend: 0x0, symName: __RINvXs3_NtNtCse1nGBsou5OW_5alloc3vec9into_iterINtB6_8IntoIterNtNtCs6IAuOt8vWmF_3syn4item4ItemENtNtNtNtCsfvfooZQ3Axs_4core4iter6traits8iterator8Iterator8try_foldINtNtB8_13in_place_drop11InPlaceDropBX_ENCINvNtNtB1A_8adapters3map12map_try_foldBX_BX_B2y_INtNtB1C_6result6ResultB2y_zENCINvNtNtB11_3gen4fold8fold_vecBX_NtNvCs2GZpXKFCdsl_11yoke_derive16replace_lifetime15ReplaceLifetimeNvYB51_NtB4y_4Fold9fold_itemE0NCINvNtB8_16in_place_collect24write_in_place_with_dropBX_E0E0B40_EB55_, symObjAddr: 0x5D0, symBinAddr: 0x1220, symSize: 0x1F0 }
  - { offset: 0x104FB, size: 0x8, addend: 0x0, symName: __RINvXs3_NtNtCse1nGBsou5OW_5alloc3vec9into_iterINtB6_8IntoIterNtNtCs6IAuOt8vWmF_3syn4item8ImplItemENtNtNtNtCsfvfooZQ3Axs_4core4iter6traits8iterator8Iterator8try_foldINtNtB8_13in_place_drop11InPlaceDropBX_ENCINvNtNtB1E_8adapters3map12map_try_foldBX_BX_B2C_INtNtB1G_6result6ResultB2C_zENCINvNtNtB11_3gen4fold8fold_vecBX_NtNvCs2GZpXKFCdsl_11yoke_derive16replace_lifetime15ReplaceLifetimeNvYB55_NtB4C_4Fold14fold_impl_itemE0NCINvNtB8_16in_place_collect24write_in_place_with_dropBX_E0E0B44_EB59_, symObjAddr: 0x7C0, symBinAddr: 0x1410, symSize: 0x1F4 }
  - { offset: 0x106DD, size: 0x8, addend: 0x0, symName: __RINvXs3_NtNtCse1nGBsou5OW_5alloc3vec9into_iterINtB6_8IntoIterNtNtCs6IAuOt8vWmF_3syn4item9TraitItemENtNtNtNtCsfvfooZQ3Axs_4core4iter6traits8iterator8Iterator8try_foldINtNtB8_13in_place_drop11InPlaceDropBX_ENCINvNtNtB1F_8adapters3map12map_try_foldBX_BX_B2D_INtNtB1H_6result6ResultB2D_zENCINvNtNtB11_3gen4fold8fold_vecBX_NtNvCs2GZpXKFCdsl_11yoke_derive16replace_lifetime15ReplaceLifetimeNvYB56_NtB4D_4Fold15fold_trait_itemE0NCINvNtB8_16in_place_collect24write_in_place_with_dropBX_E0E0B45_EB5a_, symObjAddr: 0x9B4, symBinAddr: 0x1604, symSize: 0x1F4 }
  - { offset: 0x108BF, size: 0x8, addend: 0x0, symName: __RINvXs3_NtNtCse1nGBsou5OW_5alloc3vec9into_iterINtB6_8IntoIterNtNtCs6IAuOt8vWmF_3syn4stmt4StmtENtNtNtNtCsfvfooZQ3Axs_4core4iter6traits8iterator8Iterator8try_foldINtNtB8_13in_place_drop11InPlaceDropBX_ENCINvNtNtB1A_8adapters3map12map_try_foldBX_BX_B2y_INtNtB1C_6result6ResultB2y_zENCINvNtNtB11_3gen4fold8fold_vecBX_NtNvCs2GZpXKFCdsl_11yoke_derive16replace_lifetime15ReplaceLifetimeNvYB51_NtB4y_4Fold9fold_stmtE0NCINvNtB8_16in_place_collect24write_in_place_with_dropBX_E0E0B40_EB55_, symObjAddr: 0xBA8, symBinAddr: 0x17F8, symSize: 0x1F0 }
  - { offset: 0x10AA1, size: 0x8, addend: 0x0, symName: __RINvXs3_NtNtCse1nGBsou5OW_5alloc3vec9into_iterINtB6_8IntoIterTNtNtCs6IAuOt8vWmF_3syn2ty4TypeNtNtB12_5token5CommaEENtNtNtNtCsfvfooZQ3Axs_4core4iter6traits8iterator8Iterator8try_foldINtNtB8_13in_place_drop11InPlaceDropBX_ENCINvNtNtB1U_8adapters3map12map_try_foldBX_BX_B2S_INtNtB1W_6result6ResultB2S_zENCINvNtB12_10punctuated4foldBY_B1s_NtNvCs2GZpXKFCdsl_11yoke_derive16replace_lifetime15ReplaceLifetimeNvYB5m_NtNtNtB12_3gen4fold4Fold9fold_typeE0NCINvNtB8_16in_place_collect24write_in_place_with_dropBX_E0E0B4k_EB5q_, symObjAddr: 0xD98, symBinAddr: 0x19E8, symSize: 0x1F0 }
  - { offset: 0x10C83, size: 0x8, addend: 0x0, symName: __RINvXs3_NtNtCse1nGBsou5OW_5alloc3vec9into_iterINtB6_8IntoIterTNtNtCs6IAuOt8vWmF_3syn2ty9BareFnArgNtNtB12_5token5CommaEENtNtNtNtCsfvfooZQ3Axs_4core4iter6traits8iterator8Iterator8try_foldINtNtB8_13in_place_drop11InPlaceDropBX_ENCINvNtNtB1Z_8adapters3map12map_try_foldBX_BX_B2X_INtNtB21_6result6ResultB2X_zENCINvNtB12_10punctuated4foldBY_B1x_NtNvCs2GZpXKFCdsl_11yoke_derive16replace_lifetime15ReplaceLifetimeNvYB5r_NtNtNtB12_3gen4fold4Fold16fold_bare_fn_argE0NCINvNtB8_16in_place_collect24write_in_place_with_dropBX_E0E0B4p_EB5v_, symObjAddr: 0xF88, symBinAddr: 0x1BD8, symSize: 0x1F0 }
  - { offset: 0x10E65, size: 0x8, addend: 0x0, symName: __RINvXs3_NtNtCse1nGBsou5OW_5alloc3vec9into_iterINtB6_8IntoIterTNtNtCs6IAuOt8vWmF_3syn3pat3PatNtNtB12_5token2OrEENtNtNtNtCsfvfooZQ3Axs_4core4iter6traits8iterator8Iterator8try_foldINtNtB8_13in_place_drop11InPlaceDropBX_ENCINvNtNtB1R_8adapters3map12map_try_foldBX_BX_B2P_INtNtB1T_6result6ResultB2P_zENCINvNtB12_10punctuated4foldBY_B1s_NtNvCs2GZpXKFCdsl_11yoke_derive16replace_lifetime15ReplaceLifetimeNvYB5j_NtNtNtB12_3gen4fold4Fold8fold_patE0NCINvNtB8_16in_place_collect24write_in_place_with_dropBX_E0E0B4h_EB5n_, symObjAddr: 0x1178, symBinAddr: 0x1DC8, symSize: 0x1F0 }
  - { offset: 0x11047, size: 0x8, addend: 0x0, symName: __RINvXs3_NtNtCse1nGBsou5OW_5alloc3vec9into_iterINtB6_8IntoIterTNtNtCs6IAuOt8vWmF_3syn3pat3PatNtNtB12_5token5CommaEENtNtNtNtCsfvfooZQ3Axs_4core4iter6traits8iterator8Iterator8try_foldINtNtB8_13in_place_drop11InPlaceDropBX_ENCINvNtNtB1U_8adapters3map12map_try_foldBX_BX_B2S_INtNtB1W_6result6ResultB2S_zENCINvNtB12_10punctuated4foldBY_B1s_NtNvCs2GZpXKFCdsl_11yoke_derive16replace_lifetime15ReplaceLifetimeNvYB5m_NtNtNtB12_3gen4fold4Fold8fold_patE0NCINvNtB8_16in_place_collect24write_in_place_with_dropBX_E0E0B4k_EB5q_, symObjAddr: 0x1368, symBinAddr: 0x1FB8, symSize: 0x1F0 }
  - { offset: 0x11229, size: 0x8, addend: 0x0, symName: __RINvXs3_NtNtCse1nGBsou5OW_5alloc3vec9into_iterINtB6_8IntoIterTNtNtCs6IAuOt8vWmF_3syn3pat8FieldPatNtNtB12_5token5CommaEENtNtNtNtCsfvfooZQ3Axs_4core4iter6traits8iterator8Iterator8try_foldINtNtB8_13in_place_drop11InPlaceDropBX_ENCINvNtNtB1Z_8adapters3map12map_try_foldBX_BX_B2X_INtNtB21_6result6ResultB2X_zENCINvNtB12_10punctuated4foldBY_B1x_NtNvCs2GZpXKFCdsl_11yoke_derive16replace_lifetime15ReplaceLifetimeNvYB5r_NtNtNtB12_3gen4fold4Fold14fold_field_patE0NCINvNtB8_16in_place_collect24write_in_place_with_dropBX_E0E0B4p_EB5v_, symObjAddr: 0x1558, symBinAddr: 0x21A8, symSize: 0x1F0 }
  - { offset: 0x1140B, size: 0x8, addend: 0x0, symName: __RINvXs3_NtNtCse1nGBsou5OW_5alloc3vec9into_iterINtB6_8IntoIterTNtNtCs6IAuOt8vWmF_3syn4data5FieldNtNtB12_5token5CommaEENtNtNtNtCsfvfooZQ3Axs_4core4iter6traits8iterator8Iterator8try_foldINtNtB8_13in_place_drop11InPlaceDropBX_ENCINvNtNtB1X_8adapters3map12map_try_foldBX_BX_B2V_INtNtB1Z_6result6ResultB2V_zENCINvNtB12_10punctuated4foldBY_B1v_NtNvCs2GZpXKFCdsl_11yoke_derive16replace_lifetime15ReplaceLifetimeNvYB5p_NtNtNtB12_3gen4fold4Fold10fold_fieldE0NCINvNtB8_16in_place_collect24write_in_place_with_dropBX_E0E0B4n_EB5t_, symObjAddr: 0x1748, symBinAddr: 0x2398, symSize: 0x1F0 }
  - { offset: 0x115ED, size: 0x8, addend: 0x0, symName: __RINvXs3_NtNtCse1nGBsou5OW_5alloc3vec9into_iterINtB6_8IntoIterTNtNtCs6IAuOt8vWmF_3syn4data7VariantNtNtB12_5token5CommaEENtNtNtNtCsfvfooZQ3Axs_4core4iter6traits8iterator8Iterator8try_foldINtNtB8_13in_place_drop11InPlaceDropBX_ENCINvNtNtB1Z_8adapters3map12map_try_foldBX_BX_B2X_INtNtB21_6result6ResultB2X_zENCINvNtB12_10punctuated4foldBY_B1x_NtNvCs2GZpXKFCdsl_11yoke_derive16replace_lifetime15ReplaceLifetimeNvYB5r_NtNtNtB12_3gen4fold4Fold12fold_variantE0NCINvNtB8_16in_place_collect24write_in_place_with_dropBX_E0E0B4p_EB5v_, symObjAddr: 0x1938, symBinAddr: 0x2588, symSize: 0x1F0 }
  - { offset: 0x117CF, size: 0x8, addend: 0x0, symName: __RINvXs3_NtNtCse1nGBsou5OW_5alloc3vec9into_iterINtB6_8IntoIterTNtNtCs6IAuOt8vWmF_3syn4expr10FieldValueNtNtB12_5token5CommaEENtNtNtNtCsfvfooZQ3Axs_4core4iter6traits8iterator8Iterator8try_foldINtNtB8_13in_place_drop11InPlaceDropBX_ENCINvNtNtB23_8adapters3map12map_try_foldBX_BX_B31_INtNtB25_6result6ResultB31_zENCINvNtB12_10punctuated4foldBY_B1B_NtNvCs2GZpXKFCdsl_11yoke_derive16replace_lifetime15ReplaceLifetimeNvYB5v_NtNtNtB12_3gen4fold4Fold16fold_field_valueE0NCINvNtB8_16in_place_collect24write_in_place_with_dropBX_E0E0B4t_EB5z_, symObjAddr: 0x1B28, symBinAddr: 0x2778, symSize: 0x1F0 }
  - { offset: 0x119B1, size: 0x8, addend: 0x0, symName: __RINvXs3_NtNtCse1nGBsou5OW_5alloc3vec9into_iterINtB6_8IntoIterTNtNtCs6IAuOt8vWmF_3syn4expr4ExprNtNtB12_5token5CommaEENtNtNtNtCsfvfooZQ3Axs_4core4iter6traits8iterator8Iterator8try_foldINtNtB8_13in_place_drop11InPlaceDropBX_ENCINvNtNtB1W_8adapters3map12map_try_foldBX_BX_B2U_INtNtB1Y_6result6ResultB2U_zENCINvNtB12_10punctuated4foldBY_B1u_NtNvCs2GZpXKFCdsl_11yoke_derive16replace_lifetime15ReplaceLifetimeNvYB5o_NtNtNtB12_3gen4fold4Fold9fold_exprE0NCINvNtB8_16in_place_collect24write_in_place_with_dropBX_E0E0B4m_EB5s_, symObjAddr: 0x1D18, symBinAddr: 0x2968, symSize: 0x1F0 }
  - { offset: 0x11B93, size: 0x8, addend: 0x0, symName: __RINvXs3_NtNtCse1nGBsou5OW_5alloc3vec9into_iterINtB6_8IntoIterTNtNtCs6IAuOt8vWmF_3syn4item5FnArgNtNtB12_5token5CommaEENtNtNtNtCsfvfooZQ3Axs_4core4iter6traits8iterator8Iterator8try_foldINtNtB8_13in_place_drop11InPlaceDropBX_ENCINvNtNtB1X_8adapters3map12map_try_foldBX_BX_B2V_INtNtB1Z_6result6ResultB2V_zENCINvNtB12_10punctuated4foldBY_B1v_NtNvCs2GZpXKFCdsl_11yoke_derive16replace_lifetime15ReplaceLifetimeNvYB5p_NtNtNtB12_3gen4fold4Fold11fold_fn_argE0NCINvNtB8_16in_place_collect24write_in_place_with_dropBX_E0E0B4n_EB5t_, symObjAddr: 0x1F08, symBinAddr: 0x2B58, symSize: 0x1F0 }
  - { offset: 0x11D75, size: 0x8, addend: 0x0, symName: __RINvXs3_NtNtCse1nGBsou5OW_5alloc3vec9into_iterINtB6_8IntoIterTNtNtCs6IAuOt8vWmF_3syn4item7UseTreeNtNtB12_5token5CommaEENtNtNtNtCsfvfooZQ3Axs_4core4iter6traits8iterator8Iterator8try_foldINtNtB8_13in_place_drop11InPlaceDropBX_ENCINvNtNtB1Z_8adapters3map12map_try_foldBX_BX_B2X_INtNtB21_6result6ResultB2X_zENCINvNtB12_10punctuated4foldBY_B1x_NtNvCs2GZpXKFCdsl_11yoke_derive16replace_lifetime15ReplaceLifetimeNvYB5r_NtNtNtB12_3gen4fold4Fold13fold_use_treeE0NCINvNtB8_16in_place_collect24write_in_place_with_dropBX_E0E0B4p_EB5v_, symObjAddr: 0x20F8, symBinAddr: 0x2D48, symSize: 0x1F0 }
  - { offset: 0x11F57, size: 0x8, addend: 0x0, symName: __RINvXs3_NtNtCse1nGBsou5OW_5alloc3vec9into_iterINtB6_8IntoIterTNtNtCs6IAuOt8vWmF_3syn4path11PathSegmentNtNtB12_5token7PathSepEENtNtNtNtCsfvfooZQ3Axs_4core4iter6traits8iterator8Iterator8try_foldINtNtB8_13in_place_drop11InPlaceDropBX_ENCINvNtNtB26_8adapters3map12map_try_foldBX_BX_B34_INtNtB28_6result6ResultB34_zENCINvNtB12_10punctuated4foldBY_B1C_NtNvCs2GZpXKFCdsl_11yoke_derive16replace_lifetime15ReplaceLifetimeNvYB5y_NtNtNtB12_3gen4fold4Fold17fold_path_segmentE0NCINvNtB8_16in_place_collect24write_in_place_with_dropBX_E0E0B4w_EB5C_, symObjAddr: 0x22E8, symBinAddr: 0x2F38, symSize: 0x1F0 }
  - { offset: 0x12139, size: 0x8, addend: 0x0, symName: __RINvXs3_NtNtCse1nGBsou5OW_5alloc3vec9into_iterINtB6_8IntoIterTNtNtCs6IAuOt8vWmF_3syn4path15GenericArgumentNtNtB12_5token5CommaEENtNtNtNtCsfvfooZQ3Axs_4core4iter6traits8iterator8Iterator8try_foldINtNtB8_13in_place_drop11InPlaceDropBX_ENCINvNtNtB28_8adapters3map12map_try_foldBX_BX_B36_INtNtB2a_6result6ResultB36_zENCINvNtB12_10punctuated4foldBY_B1G_NtNvCs2GZpXKFCdsl_11yoke_derive16replace_lifetime15ReplaceLifetimeNvYB5A_NtNtNtB12_3gen4fold4Fold21fold_generic_argumentE0NCINvNtB8_16in_place_collect24write_in_place_with_dropBX_E0E0B4y_EB5E_, symObjAddr: 0x24D8, symBinAddr: 0x3128, symSize: 0x1F0 }
  - { offset: 0x1231B, size: 0x8, addend: 0x0, symName: __RINvXs3_NtNtCse1nGBsou5OW_5alloc3vec9into_iterINtB6_8IntoIterTNtNtCs6IAuOt8vWmF_3syn8generics12GenericParamNtNtB12_5token5CommaEENtNtNtNtCsfvfooZQ3Axs_4core4iter6traits8iterator8Iterator8try_foldINtNtB8_13in_place_drop11InPlaceDropBX_ENCINvNtNtB29_8adapters3map12map_try_foldBX_BX_B37_INtNtB2b_6result6ResultB37_zENCINvNtB12_10punctuated4foldBY_B1H_NtNvCs2GZpXKFCdsl_11yoke_derive16replace_lifetime15ReplaceLifetimeNvYB5B_NtNtNtB12_3gen4fold4Fold18fold_generic_paramE0NCINvNtB8_16in_place_collect24write_in_place_with_dropBX_E0E0B4z_EB5F_, symObjAddr: 0x26C8, symBinAddr: 0x3318, symSize: 0x1F4 }
  - { offset: 0x124FD, size: 0x8, addend: 0x0, symName: __RINvXs3_NtNtCse1nGBsou5OW_5alloc3vec9into_iterINtB6_8IntoIterTNtNtCs6IAuOt8vWmF_3syn8generics13CapturedParamNtNtB12_5token5CommaEENtNtNtNtCsfvfooZQ3Axs_4core4iter6traits8iterator8Iterator8try_foldINtNtB8_13in_place_drop11InPlaceDropBX_ENCINvNtNtB2a_8adapters3map12map_try_foldBX_BX_B38_INtNtB2c_6result6ResultB38_zENCINvNtB12_10punctuated4foldBY_B1I_NtNvCs2GZpXKFCdsl_11yoke_derive16replace_lifetime15ReplaceLifetimeNvYB5C_NtNtNtB12_3gen4fold4Fold19fold_captured_paramE0NCINvNtB8_16in_place_collect24write_in_place_with_dropBX_E0E0B4A_EB5G_, symObjAddr: 0x28BC, symBinAddr: 0x350C, symSize: 0x1F0 }
  - { offset: 0x126DF, size: 0x8, addend: 0x0, symName: __RINvXs3_NtNtCse1nGBsou5OW_5alloc3vec9into_iterINtB6_8IntoIterTNtNtCs6IAuOt8vWmF_3syn8generics14TypeParamBoundNtNtB12_5token4PlusEENtNtNtNtCsfvfooZQ3Axs_4core4iter6traits8iterator8Iterator8try_foldINtNtB8_13in_place_drop11InPlaceDropBX_ENCINvNtNtB2a_8adapters3map12map_try_foldBX_BX_B38_INtNtB2c_6result6ResultB38_zENCINvNtB12_10punctuated4foldBY_B1J_NtNvCs2GZpXKFCdsl_11yoke_derive16replace_lifetime15ReplaceLifetimeNvYB5C_NtNtNtB12_3gen4fold4Fold21fold_type_param_boundE0NCINvNtB8_16in_place_collect24write_in_place_with_dropBX_E0E0B4A_EB5G_, symObjAddr: 0x2AAC, symBinAddr: 0x36FC, symSize: 0x1F0 }
  - { offset: 0x128C1, size: 0x8, addend: 0x0, symName: __RINvXs3_NtNtCse1nGBsou5OW_5alloc3vec9into_iterINtB6_8IntoIterTNtNtCs6IAuOt8vWmF_3syn8generics14WherePredicateNtNtB12_5token5CommaEENtNtNtNtCsfvfooZQ3Axs_4core4iter6traits8iterator8Iterator8try_foldINtNtB8_13in_place_drop11InPlaceDropBX_ENCINvNtNtB2b_8adapters3map12map_try_foldBX_BX_B39_INtNtB2d_6result6ResultB39_zENCINvNtB12_10punctuated4foldBY_B1J_NtNvCs2GZpXKFCdsl_11yoke_derive16replace_lifetime15ReplaceLifetimeNvYB5D_NtNtNtB12_3gen4fold4Fold20fold_where_predicateE0NCINvNtB8_16in_place_collect24write_in_place_with_dropBX_E0E0B4B_EB5H_, symObjAddr: 0x2C9C, symBinAddr: 0x38EC, symSize: 0x1F0 }
  - { offset: 0x12AA3, size: 0x8, addend: 0x0, symName: __RINvXs3_NtNtCse1nGBsou5OW_5alloc3vec9into_iterINtB6_8IntoIterTNtNtCs6IAuOt8vWmF_3syn8lifetime8LifetimeNtNtB12_5token4PlusEENtNtNtNtCsfvfooZQ3Axs_4core4iter6traits8iterator8Iterator8try_foldINtNtB8_13in_place_drop11InPlaceDropBX_ENCINvNtNtB23_8adapters3map12map_try_foldBX_BX_B31_INtNtB25_6result6ResultB31_zENCINvNtB12_10punctuated4foldBY_B1C_NtNvCs2GZpXKFCdsl_11yoke_derive16replace_lifetime15ReplaceLifetimeNvYB5v_NtNtNtB12_3gen4fold4Fold13fold_lifetimeE0NCINvNtB8_16in_place_collect24write_in_place_with_dropBX_E0E0B4t_EB5z_, symObjAddr: 0x2E8C, symBinAddr: 0x3ADC, symSize: 0x1F0 }
  - { offset: 0x12C85, size: 0x8, addend: 0x0, symName: __RNvXs3_NtNtCse1nGBsou5OW_5alloc3vec9into_iterINtB5_8IntoIterNtNtCs6IAuOt8vWmF_3syn4expr3ArmENtNtNtNtCsfvfooZQ3Axs_4core4iter6traits8iterator8Iterator9size_hintCs2GZpXKFCdsl_11yoke_derive, symObjAddr: 0x5088, symBinAddr: 0x5CD8, symSize: 0x6C }
  - { offset: 0x12CE0, size: 0x8, addend: 0x0, symName: __RNvXs3_NtNtCse1nGBsou5OW_5alloc3vec9into_iterINtB5_8IntoIterNtNtCs6IAuOt8vWmF_3syn4item11ForeignItemENtNtNtNtCsfvfooZQ3Axs_4core4iter6traits8iterator8Iterator9size_hintCs2GZpXKFCdsl_11yoke_derive, symObjAddr: 0x50F4, symBinAddr: 0x5D44, symSize: 0x6C }
  - { offset: 0x12D3B, size: 0x8, addend: 0x0, symName: __RNvXs3_NtNtCse1nGBsou5OW_5alloc3vec9into_iterINtB5_8IntoIterNtNtCs6IAuOt8vWmF_3syn4item4ItemENtNtNtNtCsfvfooZQ3Axs_4core4iter6traits8iterator8Iterator9size_hintCs2GZpXKFCdsl_11yoke_derive, symObjAddr: 0x5160, symBinAddr: 0x5DB0, symSize: 0x6C }
  - { offset: 0x12D96, size: 0x8, addend: 0x0, symName: __RNvXs3_NtNtCse1nGBsou5OW_5alloc3vec9into_iterINtB5_8IntoIterNtNtCs6IAuOt8vWmF_3syn4item8ImplItemENtNtNtNtCsfvfooZQ3Axs_4core4iter6traits8iterator8Iterator9size_hintCs2GZpXKFCdsl_11yoke_derive, symObjAddr: 0x51CC, symBinAddr: 0x5E1C, symSize: 0x6C }
  - { offset: 0x12DF1, size: 0x8, addend: 0x0, symName: __RNvXs3_NtNtCse1nGBsou5OW_5alloc3vec9into_iterINtB5_8IntoIterNtNtCs6IAuOt8vWmF_3syn4item9TraitItemENtNtNtNtCsfvfooZQ3Axs_4core4iter6traits8iterator8Iterator9size_hintCs2GZpXKFCdsl_11yoke_derive, symObjAddr: 0x5238, symBinAddr: 0x5E88, symSize: 0x6C }
  - { offset: 0x12E4C, size: 0x8, addend: 0x0, symName: __RNvXs3_NtNtCse1nGBsou5OW_5alloc3vec9into_iterINtB5_8IntoIterNtNtCs6IAuOt8vWmF_3syn4stmt4StmtENtNtNtNtCsfvfooZQ3Axs_4core4iter6traits8iterator8Iterator9size_hintCs2GZpXKFCdsl_11yoke_derive, symObjAddr: 0x52A4, symBinAddr: 0x5EF4, symSize: 0x6C }
  - { offset: 0x12EA7, size: 0x8, addend: 0x0, symName: __RNvXs3_NtNtCse1nGBsou5OW_5alloc3vec9into_iterINtB5_8IntoIterTNtNtCs6IAuOt8vWmF_3syn2ty4TypeNtNtB11_5token5CommaEENtNtNtNtCsfvfooZQ3Axs_4core4iter6traits8iterator8Iterator9size_hintCs2GZpXKFCdsl_11yoke_derive, symObjAddr: 0x5310, symBinAddr: 0x5F60, symSize: 0x6C }
  - { offset: 0x12F02, size: 0x8, addend: 0x0, symName: __RNvXs3_NtNtCse1nGBsou5OW_5alloc3vec9into_iterINtB5_8IntoIterTNtNtCs6IAuOt8vWmF_3syn2ty9BareFnArgNtNtB11_5token5CommaEENtNtNtNtCsfvfooZQ3Axs_4core4iter6traits8iterator8Iterator9size_hintCs2GZpXKFCdsl_11yoke_derive, symObjAddr: 0x537C, symBinAddr: 0x5FCC, symSize: 0x6C }
  - { offset: 0x12F5D, size: 0x8, addend: 0x0, symName: __RNvXs3_NtNtCse1nGBsou5OW_5alloc3vec9into_iterINtB5_8IntoIterTNtNtCs6IAuOt8vWmF_3syn3pat3PatNtNtB11_5token2OrEENtNtNtNtCsfvfooZQ3Axs_4core4iter6traits8iterator8Iterator9size_hintCs2GZpXKFCdsl_11yoke_derive, symObjAddr: 0x53E8, symBinAddr: 0x6038, symSize: 0x6C }
  - { offset: 0x12FB8, size: 0x8, addend: 0x0, symName: __RNvXs3_NtNtCse1nGBsou5OW_5alloc3vec9into_iterINtB5_8IntoIterTNtNtCs6IAuOt8vWmF_3syn3pat3PatNtNtB11_5token5CommaEENtNtNtNtCsfvfooZQ3Axs_4core4iter6traits8iterator8Iterator9size_hintCs2GZpXKFCdsl_11yoke_derive, symObjAddr: 0x5454, symBinAddr: 0x60A4, symSize: 0x6C }
  - { offset: 0x13013, size: 0x8, addend: 0x0, symName: __RNvXs3_NtNtCse1nGBsou5OW_5alloc3vec9into_iterINtB5_8IntoIterTNtNtCs6IAuOt8vWmF_3syn3pat8FieldPatNtNtB11_5token5CommaEENtNtNtNtCsfvfooZQ3Axs_4core4iter6traits8iterator8Iterator9size_hintCs2GZpXKFCdsl_11yoke_derive, symObjAddr: 0x54C0, symBinAddr: 0x6110, symSize: 0x6C }
  - { offset: 0x1306E, size: 0x8, addend: 0x0, symName: __RNvXs3_NtNtCse1nGBsou5OW_5alloc3vec9into_iterINtB5_8IntoIterTNtNtCs6IAuOt8vWmF_3syn4data7VariantNtNtB11_5token5CommaEENtNtNtNtCsfvfooZQ3Axs_4core4iter6traits8iterator8Iterator9size_hintCs2GZpXKFCdsl_11yoke_derive, symObjAddr: 0x552C, symBinAddr: 0x617C, symSize: 0x6C }
  - { offset: 0x130C9, size: 0x8, addend: 0x0, symName: __RNvXs3_NtNtCse1nGBsou5OW_5alloc3vec9into_iterINtB5_8IntoIterTNtNtCs6IAuOt8vWmF_3syn4expr10FieldValueNtNtB11_5token5CommaEENtNtNtNtCsfvfooZQ3Axs_4core4iter6traits8iterator8Iterator9size_hintCs2GZpXKFCdsl_11yoke_derive, symObjAddr: 0x5598, symBinAddr: 0x61E8, symSize: 0x6C }
  - { offset: 0x13124, size: 0x8, addend: 0x0, symName: __RNvXs3_NtNtCse1nGBsou5OW_5alloc3vec9into_iterINtB5_8IntoIterTNtNtCs6IAuOt8vWmF_3syn4expr4ExprNtNtB11_5token5CommaEENtNtNtNtCsfvfooZQ3Axs_4core4iter6traits8iterator8Iterator9size_hintCs2GZpXKFCdsl_11yoke_derive, symObjAddr: 0x5604, symBinAddr: 0x6254, symSize: 0x6C }
  - { offset: 0x1317F, size: 0x8, addend: 0x0, symName: __RNvXs3_NtNtCse1nGBsou5OW_5alloc3vec9into_iterINtB5_8IntoIterTNtNtCs6IAuOt8vWmF_3syn4item5FnArgNtNtB11_5token5CommaEENtNtNtNtCsfvfooZQ3Axs_4core4iter6traits8iterator8Iterator9size_hintCs2GZpXKFCdsl_11yoke_derive, symObjAddr: 0x5670, symBinAddr: 0x62C0, symSize: 0x6C }
  - { offset: 0x131DA, size: 0x8, addend: 0x0, symName: __RNvXs3_NtNtCse1nGBsou5OW_5alloc3vec9into_iterINtB5_8IntoIterTNtNtCs6IAuOt8vWmF_3syn4item7UseTreeNtNtB11_5token5CommaEENtNtNtNtCsfvfooZQ3Axs_4core4iter6traits8iterator8Iterator9size_hintCs2GZpXKFCdsl_11yoke_derive, symObjAddr: 0x56DC, symBinAddr: 0x632C, symSize: 0x6C }
  - { offset: 0x13235, size: 0x8, addend: 0x0, symName: __RNvXs3_NtNtCse1nGBsou5OW_5alloc3vec9into_iterINtB5_8IntoIterTNtNtCs6IAuOt8vWmF_3syn4path15GenericArgumentNtNtB11_5token5CommaEENtNtNtNtCsfvfooZQ3Axs_4core4iter6traits8iterator8Iterator9size_hintCs2GZpXKFCdsl_11yoke_derive, symObjAddr: 0x5748, symBinAddr: 0x6398, symSize: 0x6C }
  - { offset: 0x13290, size: 0x8, addend: 0x0, symName: __RNvXs3_NtNtCse1nGBsou5OW_5alloc3vec9into_iterINtB5_8IntoIterTNtNtCs6IAuOt8vWmF_3syn8generics12GenericParamNtNtB11_5token5CommaEENtNtNtNtCsfvfooZQ3Axs_4core4iter6traits8iterator8Iterator9size_hintCs2GZpXKFCdsl_11yoke_derive, symObjAddr: 0x57B4, symBinAddr: 0x6404, symSize: 0x6C }
  - { offset: 0x132EB, size: 0x8, addend: 0x0, symName: __RNvXs3_NtNtCse1nGBsou5OW_5alloc3vec9into_iterINtB5_8IntoIterTNtNtCs6IAuOt8vWmF_3syn8generics13CapturedParamNtNtB11_5token5CommaEENtNtNtNtCsfvfooZQ3Axs_4core4iter6traits8iterator8Iterator9size_hintCs2GZpXKFCdsl_11yoke_derive, symObjAddr: 0x5820, symBinAddr: 0x6470, symSize: 0x6C }
  - { offset: 0x13346, size: 0x8, addend: 0x0, symName: __RNvXs3_NtNtCse1nGBsou5OW_5alloc3vec9into_iterINtB5_8IntoIterTNtNtCs6IAuOt8vWmF_3syn8generics14WherePredicateNtNtB11_5token5CommaEENtNtNtNtCsfvfooZQ3Axs_4core4iter6traits8iterator8Iterator9size_hintCs2GZpXKFCdsl_11yoke_derive, symObjAddr: 0x588C, symBinAddr: 0x64DC, symSize: 0x6C }
  - { offset: 0x133A1, size: 0x8, addend: 0x0, symName: __RNvXs3_NtNtCse1nGBsou5OW_5alloc3vec9into_iterINtB5_8IntoIterTNtNtCs6IAuOt8vWmF_3syn8lifetime8LifetimeNtNtB11_5token4PlusEENtNtNtNtCsfvfooZQ3Axs_4core4iter6traits8iterator8Iterator9size_hintCs2GZpXKFCdsl_11yoke_derive, symObjAddr: 0x58F8, symBinAddr: 0x6548, symSize: 0x6C }
  - { offset: 0x144F1, size: 0x8, addend: 0x0, symName: __RNvXNvXsd_NtNtCse1nGBsou5OW_5alloc3vec9into_iterINtB8_8IntoIterppENtNtNtCsfvfooZQ3Axs_4core3ops4drop4Drop4dropINtB2_9DropGuardNtNtCs6IAuOt8vWmF_3syn4expr3ArmNtNtBc_5alloc6GlobalEB12_4dropCs2GZpXKFCdsl_11yoke_derive, symObjAddr: 0x465C, symBinAddr: 0x52AC, symSize: 0x7C }
  - { offset: 0x145FE, size: 0x8, addend: 0x0, symName: __RNvXNvXsd_NtNtCse1nGBsou5OW_5alloc3vec9into_iterINtB8_8IntoIterppENtNtNtCsfvfooZQ3Axs_4core3ops4drop4Drop4dropINtB2_9DropGuardNtNtCs6IAuOt8vWmF_3syn4item11ForeignItemNtNtBc_5alloc6GlobalEB12_4dropCs2GZpXKFCdsl_11yoke_derive, symObjAddr: 0x46D8, symBinAddr: 0x5328, symSize: 0x7C }
  - { offset: 0x1470B, size: 0x8, addend: 0x0, symName: __RNvXNvXsd_NtNtCse1nGBsou5OW_5alloc3vec9into_iterINtB8_8IntoIterppENtNtNtCsfvfooZQ3Axs_4core3ops4drop4Drop4dropINtB2_9DropGuardNtNtCs6IAuOt8vWmF_3syn4item4ItemNtNtBc_5alloc6GlobalEB12_4dropCs2GZpXKFCdsl_11yoke_derive, symObjAddr: 0x4754, symBinAddr: 0x53A4, symSize: 0x7C }
  - { offset: 0x14818, size: 0x8, addend: 0x0, symName: __RNvXNvXsd_NtNtCse1nGBsou5OW_5alloc3vec9into_iterINtB8_8IntoIterppENtNtNtCsfvfooZQ3Axs_4core3ops4drop4Drop4dropINtB2_9DropGuardNtNtCs6IAuOt8vWmF_3syn4item8ImplItemNtNtBc_5alloc6GlobalEB12_4dropCs2GZpXKFCdsl_11yoke_derive, symObjAddr: 0x47D0, symBinAddr: 0x5420, symSize: 0x7C }
  - { offset: 0x14925, size: 0x8, addend: 0x0, symName: __RNvXNvXsd_NtNtCse1nGBsou5OW_5alloc3vec9into_iterINtB8_8IntoIterppENtNtNtCsfvfooZQ3Axs_4core3ops4drop4Drop4dropINtB2_9DropGuardNtNtCs6IAuOt8vWmF_3syn4item9TraitItemNtNtBc_5alloc6GlobalEB12_4dropCs2GZpXKFCdsl_11yoke_derive, symObjAddr: 0x484C, symBinAddr: 0x549C, symSize: 0x7C }
  - { offset: 0x14A32, size: 0x8, addend: 0x0, symName: __RNvXNvXsd_NtNtCse1nGBsou5OW_5alloc3vec9into_iterINtB8_8IntoIterppENtNtNtCsfvfooZQ3Axs_4core3ops4drop4Drop4dropINtB2_9DropGuardNtNtCs6IAuOt8vWmF_3syn4stmt4StmtNtNtBc_5alloc6GlobalEB12_4dropCs2GZpXKFCdsl_11yoke_derive, symObjAddr: 0x48C8, symBinAddr: 0x5518, symSize: 0x7C }
  - { offset: 0x14B3F, size: 0x8, addend: 0x0, symName: __RNvXNvXsd_NtNtCse1nGBsou5OW_5alloc3vec9into_iterINtB8_8IntoIterppENtNtNtCsfvfooZQ3Axs_4core3ops4drop4Drop4dropINtB2_9DropGuardTNtNtCs6IAuOt8vWmF_3syn2ty4TypeNtNtB25_5token5CommaENtNtBc_5alloc6GlobalEB12_4dropCs2GZpXKFCdsl_11yoke_derive, symObjAddr: 0x4944, symBinAddr: 0x5594, symSize: 0x7C }
  - { offset: 0x14C4C, size: 0x8, addend: 0x0, symName: __RNvXNvXsd_NtNtCse1nGBsou5OW_5alloc3vec9into_iterINtB8_8IntoIterppENtNtNtCsfvfooZQ3Axs_4core3ops4drop4Drop4dropINtB2_9DropGuardTNtNtCs6IAuOt8vWmF_3syn2ty9BareFnArgNtNtB25_5token5CommaENtNtBc_5alloc6GlobalEB12_4dropCs2GZpXKFCdsl_11yoke_derive, symObjAddr: 0x49C0, symBinAddr: 0x5610, symSize: 0x7C }
  - { offset: 0x14D59, size: 0x8, addend: 0x0, symName: __RNvXNvXsd_NtNtCse1nGBsou5OW_5alloc3vec9into_iterINtB8_8IntoIterppENtNtNtCsfvfooZQ3Axs_4core3ops4drop4Drop4dropINtB2_9DropGuardTNtNtCs6IAuOt8vWmF_3syn3pat3PatNtNtB25_5token2OrENtNtBc_5alloc6GlobalEB12_4dropCs2GZpXKFCdsl_11yoke_derive, symObjAddr: 0x4A3C, symBinAddr: 0x568C, symSize: 0x7C }
  - { offset: 0x14E66, size: 0x8, addend: 0x0, symName: __RNvXNvXsd_NtNtCse1nGBsou5OW_5alloc3vec9into_iterINtB8_8IntoIterppENtNtNtCsfvfooZQ3Axs_4core3ops4drop4Drop4dropINtB2_9DropGuardTNtNtCs6IAuOt8vWmF_3syn3pat3PatNtNtB25_5token5CommaENtNtBc_5alloc6GlobalEB12_4dropCs2GZpXKFCdsl_11yoke_derive, symObjAddr: 0x4AB8, symBinAddr: 0x5708, symSize: 0x7C }
  - { offset: 0x14F73, size: 0x8, addend: 0x0, symName: __RNvXNvXsd_NtNtCse1nGBsou5OW_5alloc3vec9into_iterINtB8_8IntoIterppENtNtNtCsfvfooZQ3Axs_4core3ops4drop4Drop4dropINtB2_9DropGuardTNtNtCs6IAuOt8vWmF_3syn3pat8FieldPatNtNtB25_5token5CommaENtNtBc_5alloc6GlobalEB12_4dropCs2GZpXKFCdsl_11yoke_derive, symObjAddr: 0x4B34, symBinAddr: 0x5784, symSize: 0x7C }
  - { offset: 0x15080, size: 0x8, addend: 0x0, symName: __RNvXNvXsd_NtNtCse1nGBsou5OW_5alloc3vec9into_iterINtB8_8IntoIterppENtNtNtCsfvfooZQ3Axs_4core3ops4drop4Drop4dropINtB2_9DropGuardTNtNtCs6IAuOt8vWmF_3syn4data7VariantNtNtB25_5token5CommaENtNtBc_5alloc6GlobalEB12_4dropCs2GZpXKFCdsl_11yoke_derive, symObjAddr: 0x4BB0, symBinAddr: 0x5800, symSize: 0x7C }
  - { offset: 0x1518D, size: 0x8, addend: 0x0, symName: __RNvXNvXsd_NtNtCse1nGBsou5OW_5alloc3vec9into_iterINtB8_8IntoIterppENtNtNtCsfvfooZQ3Axs_4core3ops4drop4Drop4dropINtB2_9DropGuardTNtNtCs6IAuOt8vWmF_3syn4expr10FieldValueNtNtB25_5token5CommaENtNtBc_5alloc6GlobalEB12_4dropCs2GZpXKFCdsl_11yoke_derive, symObjAddr: 0x4C2C, symBinAddr: 0x587C, symSize: 0x7C }
  - { offset: 0x1529A, size: 0x8, addend: 0x0, symName: __RNvXNvXsd_NtNtCse1nGBsou5OW_5alloc3vec9into_iterINtB8_8IntoIterppENtNtNtCsfvfooZQ3Axs_4core3ops4drop4Drop4dropINtB2_9DropGuardTNtNtCs6IAuOt8vWmF_3syn4expr4ExprNtNtB25_5token5CommaENtNtBc_5alloc6GlobalEB12_4dropCs2GZpXKFCdsl_11yoke_derive, symObjAddr: 0x4CA8, symBinAddr: 0x58F8, symSize: 0x7C }
  - { offset: 0x153A7, size: 0x8, addend: 0x0, symName: __RNvXNvXsd_NtNtCse1nGBsou5OW_5alloc3vec9into_iterINtB8_8IntoIterppENtNtNtCsfvfooZQ3Axs_4core3ops4drop4Drop4dropINtB2_9DropGuardTNtNtCs6IAuOt8vWmF_3syn4item5FnArgNtNtB25_5token5CommaENtNtBc_5alloc6GlobalEB12_4dropCs2GZpXKFCdsl_11yoke_derive, symObjAddr: 0x4D24, symBinAddr: 0x5974, symSize: 0x7C }
  - { offset: 0x154B4, size: 0x8, addend: 0x0, symName: __RNvXNvXsd_NtNtCse1nGBsou5OW_5alloc3vec9into_iterINtB8_8IntoIterppENtNtNtCsfvfooZQ3Axs_4core3ops4drop4Drop4dropINtB2_9DropGuardTNtNtCs6IAuOt8vWmF_3syn4item7UseTreeNtNtB25_5token5CommaENtNtBc_5alloc6GlobalEB12_4dropCs2GZpXKFCdsl_11yoke_derive, symObjAddr: 0x4DA0, symBinAddr: 0x59F0, symSize: 0x7C }
  - { offset: 0x155C1, size: 0x8, addend: 0x0, symName: __RNvXNvXsd_NtNtCse1nGBsou5OW_5alloc3vec9into_iterINtB8_8IntoIterppENtNtNtCsfvfooZQ3Axs_4core3ops4drop4Drop4dropINtB2_9DropGuardTNtNtCs6IAuOt8vWmF_3syn4path15GenericArgumentNtNtB25_5token5CommaENtNtBc_5alloc6GlobalEB12_4dropCs2GZpXKFCdsl_11yoke_derive, symObjAddr: 0x4E1C, symBinAddr: 0x5A6C, symSize: 0x7C }
  - { offset: 0x156CE, size: 0x8, addend: 0x0, symName: __RNvXNvXsd_NtNtCse1nGBsou5OW_5alloc3vec9into_iterINtB8_8IntoIterppENtNtNtCsfvfooZQ3Axs_4core3ops4drop4Drop4dropINtB2_9DropGuardTNtNtCs6IAuOt8vWmF_3syn8generics12GenericParamNtNtB25_5token5CommaENtNtBc_5alloc6GlobalEB12_4dropCs2GZpXKFCdsl_11yoke_derive, symObjAddr: 0x4E98, symBinAddr: 0x5AE8, symSize: 0x7C }
  - { offset: 0x157DB, size: 0x8, addend: 0x0, symName: __RNvXNvXsd_NtNtCse1nGBsou5OW_5alloc3vec9into_iterINtB8_8IntoIterppENtNtNtCsfvfooZQ3Axs_4core3ops4drop4Drop4dropINtB2_9DropGuardTNtNtCs6IAuOt8vWmF_3syn8generics13CapturedParamNtNtB25_5token5CommaENtNtBc_5alloc6GlobalEB12_4dropCs2GZpXKFCdsl_11yoke_derive, symObjAddr: 0x4F14, symBinAddr: 0x5B64, symSize: 0x7C }
  - { offset: 0x158E8, size: 0x8, addend: 0x0, symName: __RNvXNvXsd_NtNtCse1nGBsou5OW_5alloc3vec9into_iterINtB8_8IntoIterppENtNtNtCsfvfooZQ3Axs_4core3ops4drop4Drop4dropINtB2_9DropGuardTNtNtCs6IAuOt8vWmF_3syn8generics14WherePredicateNtNtB25_5token5CommaENtNtBc_5alloc6GlobalEB12_4dropCs2GZpXKFCdsl_11yoke_derive, symObjAddr: 0x4F90, symBinAddr: 0x5BE0, symSize: 0x7C }
  - { offset: 0x159F5, size: 0x8, addend: 0x0, symName: __RNvXNvXsd_NtNtCse1nGBsou5OW_5alloc3vec9into_iterINtB8_8IntoIterppENtNtNtCsfvfooZQ3Axs_4core3ops4drop4Drop4dropINtB2_9DropGuardTNtNtCs6IAuOt8vWmF_3syn8lifetime8LifetimeNtNtB25_5token4PlusENtNtBc_5alloc6GlobalEB12_4dropCs2GZpXKFCdsl_11yoke_derive, symObjAddr: 0x500C, symBinAddr: 0x5C5C, symSize: 0x7C }
  - { offset: 0x15E37, size: 0x8, addend: 0x0, symName: __RNvXsd_NtNtCse1nGBsou5OW_5alloc3vec9into_iterINtB5_8IntoIterNtNtCs6IAuOt8vWmF_3syn4expr3ArmENtNtNtCsfvfooZQ3Axs_4core3ops4drop4Drop4dropCs2GZpXKFCdsl_11yoke_derive, symObjAddr: 0x5964, symBinAddr: 0x65B4, symSize: 0x98 }
  - { offset: 0x15ED1, size: 0x8, addend: 0x0, symName: __RNvXsd_NtNtCse1nGBsou5OW_5alloc3vec9into_iterINtB5_8IntoIterNtNtCs6IAuOt8vWmF_3syn4item11ForeignItemENtNtNtCsfvfooZQ3Axs_4core3ops4drop4Drop4dropCs2GZpXKFCdsl_11yoke_derive, symObjAddr: 0x59FC, symBinAddr: 0x664C, symSize: 0x98 }
  - { offset: 0x15F6B, size: 0x8, addend: 0x0, symName: __RNvXsd_NtNtCse1nGBsou5OW_5alloc3vec9into_iterINtB5_8IntoIterNtNtCs6IAuOt8vWmF_3syn4item4ItemENtNtNtCsfvfooZQ3Axs_4core3ops4drop4Drop4dropCs2GZpXKFCdsl_11yoke_derive, symObjAddr: 0x5A94, symBinAddr: 0x66E4, symSize: 0x98 }
  - { offset: 0x16005, size: 0x8, addend: 0x0, symName: __RNvXsd_NtNtCse1nGBsou5OW_5alloc3vec9into_iterINtB5_8IntoIterNtNtCs6IAuOt8vWmF_3syn4item8ImplItemENtNtNtCsfvfooZQ3Axs_4core3ops4drop4Drop4dropCs2GZpXKFCdsl_11yoke_derive, symObjAddr: 0x5B2C, symBinAddr: 0x677C, symSize: 0x98 }
  - { offset: 0x1609F, size: 0x8, addend: 0x0, symName: __RNvXsd_NtNtCse1nGBsou5OW_5alloc3vec9into_iterINtB5_8IntoIterNtNtCs6IAuOt8vWmF_3syn4item9TraitItemENtNtNtCsfvfooZQ3Axs_4core3ops4drop4Drop4dropCs2GZpXKFCdsl_11yoke_derive, symObjAddr: 0x5BC4, symBinAddr: 0x6814, symSize: 0x98 }
  - { offset: 0x16139, size: 0x8, addend: 0x0, symName: __RNvXsd_NtNtCse1nGBsou5OW_5alloc3vec9into_iterINtB5_8IntoIterNtNtCs6IAuOt8vWmF_3syn4stmt4StmtENtNtNtCsfvfooZQ3Axs_4core3ops4drop4Drop4dropCs2GZpXKFCdsl_11yoke_derive, symObjAddr: 0x5C5C, symBinAddr: 0x68AC, symSize: 0x98 }
  - { offset: 0x161D3, size: 0x8, addend: 0x0, symName: __RNvXsd_NtNtCse1nGBsou5OW_5alloc3vec9into_iterINtB5_8IntoIterTNtNtCs6IAuOt8vWmF_3syn2ty4TypeNtNtB11_5token5CommaEENtNtNtCsfvfooZQ3Axs_4core3ops4drop4Drop4dropCs2GZpXKFCdsl_11yoke_derive, symObjAddr: 0x5CF4, symBinAddr: 0x6944, symSize: 0x98 }
  - { offset: 0x1626D, size: 0x8, addend: 0x0, symName: __RNvXsd_NtNtCse1nGBsou5OW_5alloc3vec9into_iterINtB5_8IntoIterTNtNtCs6IAuOt8vWmF_3syn2ty9BareFnArgNtNtB11_5token5CommaEENtNtNtCsfvfooZQ3Axs_4core3ops4drop4Drop4dropCs2GZpXKFCdsl_11yoke_derive, symObjAddr: 0x5D8C, symBinAddr: 0x69DC, symSize: 0x98 }
  - { offset: 0x16307, size: 0x8, addend: 0x0, symName: __RNvXsd_NtNtCse1nGBsou5OW_5alloc3vec9into_iterINtB5_8IntoIterTNtNtCs6IAuOt8vWmF_3syn3pat3PatNtNtB11_5token2OrEENtNtNtCsfvfooZQ3Axs_4core3ops4drop4Drop4dropCs2GZpXKFCdsl_11yoke_derive, symObjAddr: 0x5E24, symBinAddr: 0x6A74, symSize: 0x98 }
  - { offset: 0x163A1, size: 0x8, addend: 0x0, symName: __RNvXsd_NtNtCse1nGBsou5OW_5alloc3vec9into_iterINtB5_8IntoIterTNtNtCs6IAuOt8vWmF_3syn3pat3PatNtNtB11_5token5CommaEENtNtNtCsfvfooZQ3Axs_4core3ops4drop4Drop4dropCs2GZpXKFCdsl_11yoke_derive, symObjAddr: 0x5EBC, symBinAddr: 0x6B0C, symSize: 0x98 }
  - { offset: 0x1643B, size: 0x8, addend: 0x0, symName: __RNvXsd_NtNtCse1nGBsou5OW_5alloc3vec9into_iterINtB5_8IntoIterTNtNtCs6IAuOt8vWmF_3syn3pat8FieldPatNtNtB11_5token5CommaEENtNtNtCsfvfooZQ3Axs_4core3ops4drop4Drop4dropCs2GZpXKFCdsl_11yoke_derive, symObjAddr: 0x5F54, symBinAddr: 0x6BA4, symSize: 0x98 }
  - { offset: 0x164D5, size: 0x8, addend: 0x0, symName: __RNvXsd_NtNtCse1nGBsou5OW_5alloc3vec9into_iterINtB5_8IntoIterTNtNtCs6IAuOt8vWmF_3syn4data7VariantNtNtB11_5token5CommaEENtNtNtCsfvfooZQ3Axs_4core3ops4drop4Drop4dropCs2GZpXKFCdsl_11yoke_derive, symObjAddr: 0x5FEC, symBinAddr: 0x6C3C, symSize: 0x98 }
  - { offset: 0x1656F, size: 0x8, addend: 0x0, symName: __RNvXsd_NtNtCse1nGBsou5OW_5alloc3vec9into_iterINtB5_8IntoIterTNtNtCs6IAuOt8vWmF_3syn4expr10FieldValueNtNtB11_5token5CommaEENtNtNtCsfvfooZQ3Axs_4core3ops4drop4Drop4dropCs2GZpXKFCdsl_11yoke_derive, symObjAddr: 0x6084, symBinAddr: 0x6CD4, symSize: 0x98 }
  - { offset: 0x16609, size: 0x8, addend: 0x0, symName: __RNvXsd_NtNtCse1nGBsou5OW_5alloc3vec9into_iterINtB5_8IntoIterTNtNtCs6IAuOt8vWmF_3syn4expr4ExprNtNtB11_5token5CommaEENtNtNtCsfvfooZQ3Axs_4core3ops4drop4Drop4dropCs2GZpXKFCdsl_11yoke_derive, symObjAddr: 0x611C, symBinAddr: 0x6D6C, symSize: 0x98 }
  - { offset: 0x166A3, size: 0x8, addend: 0x0, symName: __RNvXsd_NtNtCse1nGBsou5OW_5alloc3vec9into_iterINtB5_8IntoIterTNtNtCs6IAuOt8vWmF_3syn4item5FnArgNtNtB11_5token5CommaEENtNtNtCsfvfooZQ3Axs_4core3ops4drop4Drop4dropCs2GZpXKFCdsl_11yoke_derive, symObjAddr: 0x61B4, symBinAddr: 0x6E04, symSize: 0x98 }
  - { offset: 0x1673D, size: 0x8, addend: 0x0, symName: __RNvXsd_NtNtCse1nGBsou5OW_5alloc3vec9into_iterINtB5_8IntoIterTNtNtCs6IAuOt8vWmF_3syn4item7UseTreeNtNtB11_5token5CommaEENtNtNtCsfvfooZQ3Axs_4core3ops4drop4Drop4dropCs2GZpXKFCdsl_11yoke_derive, symObjAddr: 0x624C, symBinAddr: 0x6E9C, symSize: 0x98 }
  - { offset: 0x167D7, size: 0x8, addend: 0x0, symName: __RNvXsd_NtNtCse1nGBsou5OW_5alloc3vec9into_iterINtB5_8IntoIterTNtNtCs6IAuOt8vWmF_3syn4path15GenericArgumentNtNtB11_5token5CommaEENtNtNtCsfvfooZQ3Axs_4core3ops4drop4Drop4dropCs2GZpXKFCdsl_11yoke_derive, symObjAddr: 0x62E4, symBinAddr: 0x6F34, symSize: 0x98 }
  - { offset: 0x16871, size: 0x8, addend: 0x0, symName: __RNvXsd_NtNtCse1nGBsou5OW_5alloc3vec9into_iterINtB5_8IntoIterTNtNtCs6IAuOt8vWmF_3syn8generics12GenericParamNtNtB11_5token5CommaEENtNtNtCsfvfooZQ3Axs_4core3ops4drop4Drop4dropCs2GZpXKFCdsl_11yoke_derive, symObjAddr: 0x637C, symBinAddr: 0x6FCC, symSize: 0x98 }
  - { offset: 0x1690B, size: 0x8, addend: 0x0, symName: __RNvXsd_NtNtCse1nGBsou5OW_5alloc3vec9into_iterINtB5_8IntoIterTNtNtCs6IAuOt8vWmF_3syn8generics13CapturedParamNtNtB11_5token5CommaEENtNtNtCsfvfooZQ3Axs_4core3ops4drop4Drop4dropCs2GZpXKFCdsl_11yoke_derive, symObjAddr: 0x6414, symBinAddr: 0x7064, symSize: 0x98 }
  - { offset: 0x169A5, size: 0x8, addend: 0x0, symName: __RNvXsd_NtNtCse1nGBsou5OW_5alloc3vec9into_iterINtB5_8IntoIterTNtNtCs6IAuOt8vWmF_3syn8generics14WherePredicateNtNtB11_5token5CommaEENtNtNtCsfvfooZQ3Axs_4core3ops4drop4Drop4dropCs2GZpXKFCdsl_11yoke_derive, symObjAddr: 0x64AC, symBinAddr: 0x70FC, symSize: 0x98 }
  - { offset: 0x16A3F, size: 0x8, addend: 0x0, symName: __RNvXsd_NtNtCse1nGBsou5OW_5alloc3vec9into_iterINtB5_8IntoIterTNtNtCs6IAuOt8vWmF_3syn8lifetime8LifetimeNtNtB11_5token4PlusEENtNtNtCsfvfooZQ3Axs_4core3ops4drop4Drop4dropCs2GZpXKFCdsl_11yoke_derive, symObjAddr: 0x6544, symBinAddr: 0x7194, symSize: 0x98 }
  - { offset: 0x16ADF, size: 0x8, addend: 0x0, symName: __RNvXsf_NtNtCse1nGBsou5OW_5alloc3vec9into_iterINtB5_8IntoIterNtNtCs6IAuOt8vWmF_3syn4attr9AttributeENtNtNtCsfvfooZQ3Axs_4core4iter8adapters10SourceIter8as_innerCs2GZpXKFCdsl_11yoke_derive, symObjAddr: 0x65DC, symBinAddr: 0x722C, symSize: 0x14 }
  - { offset: 0x16B1F, size: 0x8, addend: 0x0, symName: __RNvXsf_NtNtCse1nGBsou5OW_5alloc3vec9into_iterINtB5_8IntoIterNtNtCs6IAuOt8vWmF_3syn4expr3ArmENtNtNtCsfvfooZQ3Axs_4core4iter8adapters10SourceIter8as_innerCs2GZpXKFCdsl_11yoke_derive, symObjAddr: 0x65F0, symBinAddr: 0x7240, symSize: 0x14 }
  - { offset: 0x16B5F, size: 0x8, addend: 0x0, symName: __RNvXsf_NtNtCse1nGBsou5OW_5alloc3vec9into_iterINtB5_8IntoIterNtNtCs6IAuOt8vWmF_3syn4item11ForeignItemENtNtNtCsfvfooZQ3Axs_4core4iter8adapters10SourceIter8as_innerCs2GZpXKFCdsl_11yoke_derive, symObjAddr: 0x6604, symBinAddr: 0x7254, symSize: 0x14 }
  - { offset: 0x16B9F, size: 0x8, addend: 0x0, symName: __RNvXsf_NtNtCse1nGBsou5OW_5alloc3vec9into_iterINtB5_8IntoIterNtNtCs6IAuOt8vWmF_3syn4item4ItemENtNtNtCsfvfooZQ3Axs_4core4iter8adapters10SourceIter8as_innerCs2GZpXKFCdsl_11yoke_derive, symObjAddr: 0x6618, symBinAddr: 0x7268, symSize: 0x14 }
  - { offset: 0x16BDF, size: 0x8, addend: 0x0, symName: __RNvXsf_NtNtCse1nGBsou5OW_5alloc3vec9into_iterINtB5_8IntoIterNtNtCs6IAuOt8vWmF_3syn4item8ImplItemENtNtNtCsfvfooZQ3Axs_4core4iter8adapters10SourceIter8as_innerCs2GZpXKFCdsl_11yoke_derive, symObjAddr: 0x662C, symBinAddr: 0x727C, symSize: 0x14 }
  - { offset: 0x16C1F, size: 0x8, addend: 0x0, symName: __RNvXsf_NtNtCse1nGBsou5OW_5alloc3vec9into_iterINtB5_8IntoIterNtNtCs6IAuOt8vWmF_3syn4item9TraitItemENtNtNtCsfvfooZQ3Axs_4core4iter8adapters10SourceIter8as_innerCs2GZpXKFCdsl_11yoke_derive, symObjAddr: 0x6640, symBinAddr: 0x7290, symSize: 0x14 }
  - { offset: 0x16C5F, size: 0x8, addend: 0x0, symName: __RNvXsf_NtNtCse1nGBsou5OW_5alloc3vec9into_iterINtB5_8IntoIterNtNtCs6IAuOt8vWmF_3syn4stmt4StmtENtNtNtCsfvfooZQ3Axs_4core4iter8adapters10SourceIter8as_innerCs2GZpXKFCdsl_11yoke_derive, symObjAddr: 0x6654, symBinAddr: 0x72A4, symSize: 0x14 }
  - { offset: 0x16C9F, size: 0x8, addend: 0x0, symName: __RNvXsf_NtNtCse1nGBsou5OW_5alloc3vec9into_iterINtB5_8IntoIterTNtNtCs6IAuOt8vWmF_3syn2ty4TypeNtNtB11_5token5CommaEENtNtNtCsfvfooZQ3Axs_4core4iter8adapters10SourceIter8as_innerCs2GZpXKFCdsl_11yoke_derive, symObjAddr: 0x6668, symBinAddr: 0x72B8, symSize: 0x14 }
  - { offset: 0x16CDF, size: 0x8, addend: 0x0, symName: __RNvXsf_NtNtCse1nGBsou5OW_5alloc3vec9into_iterINtB5_8IntoIterTNtNtCs6IAuOt8vWmF_3syn2ty9BareFnArgNtNtB11_5token5CommaEENtNtNtCsfvfooZQ3Axs_4core4iter8adapters10SourceIter8as_innerCs2GZpXKFCdsl_11yoke_derive, symObjAddr: 0x667C, symBinAddr: 0x72CC, symSize: 0x14 }
  - { offset: 0x16D1F, size: 0x8, addend: 0x0, symName: __RNvXsf_NtNtCse1nGBsou5OW_5alloc3vec9into_iterINtB5_8IntoIterTNtNtCs6IAuOt8vWmF_3syn3pat3PatNtNtB11_5token2OrEENtNtNtCsfvfooZQ3Axs_4core4iter8adapters10SourceIter8as_innerCs2GZpXKFCdsl_11yoke_derive, symObjAddr: 0x6690, symBinAddr: 0x72E0, symSize: 0x14 }
  - { offset: 0x16D5F, size: 0x8, addend: 0x0, symName: __RNvXsf_NtNtCse1nGBsou5OW_5alloc3vec9into_iterINtB5_8IntoIterTNtNtCs6IAuOt8vWmF_3syn3pat3PatNtNtB11_5token5CommaEENtNtNtCsfvfooZQ3Axs_4core4iter8adapters10SourceIter8as_innerCs2GZpXKFCdsl_11yoke_derive, symObjAddr: 0x66A4, symBinAddr: 0x72F4, symSize: 0x14 }
  - { offset: 0x16D9F, size: 0x8, addend: 0x0, symName: __RNvXsf_NtNtCse1nGBsou5OW_5alloc3vec9into_iterINtB5_8IntoIterTNtNtCs6IAuOt8vWmF_3syn3pat8FieldPatNtNtB11_5token5CommaEENtNtNtCsfvfooZQ3Axs_4core4iter8adapters10SourceIter8as_innerCs2GZpXKFCdsl_11yoke_derive, symObjAddr: 0x66B8, symBinAddr: 0x7308, symSize: 0x14 }
  - { offset: 0x16DDF, size: 0x8, addend: 0x0, symName: __RNvXsf_NtNtCse1nGBsou5OW_5alloc3vec9into_iterINtB5_8IntoIterTNtNtCs6IAuOt8vWmF_3syn4data5FieldNtNtB11_5token5CommaEENtNtNtCsfvfooZQ3Axs_4core4iter8adapters10SourceIter8as_innerCs2GZpXKFCdsl_11yoke_derive, symObjAddr: 0x66CC, symBinAddr: 0x731C, symSize: 0x14 }
  - { offset: 0x16E1F, size: 0x8, addend: 0x0, symName: __RNvXsf_NtNtCse1nGBsou5OW_5alloc3vec9into_iterINtB5_8IntoIterTNtNtCs6IAuOt8vWmF_3syn4data7VariantNtNtB11_5token5CommaEENtNtNtCsfvfooZQ3Axs_4core4iter8adapters10SourceIter8as_innerCs2GZpXKFCdsl_11yoke_derive, symObjAddr: 0x66E0, symBinAddr: 0x7330, symSize: 0x14 }
  - { offset: 0x16E5F, size: 0x8, addend: 0x0, symName: __RNvXsf_NtNtCse1nGBsou5OW_5alloc3vec9into_iterINtB5_8IntoIterTNtNtCs6IAuOt8vWmF_3syn4expr10FieldValueNtNtB11_5token5CommaEENtNtNtCsfvfooZQ3Axs_4core4iter8adapters10SourceIter8as_innerCs2GZpXKFCdsl_11yoke_derive, symObjAddr: 0x66F4, symBinAddr: 0x7344, symSize: 0x14 }
  - { offset: 0x16E9F, size: 0x8, addend: 0x0, symName: __RNvXsf_NtNtCse1nGBsou5OW_5alloc3vec9into_iterINtB5_8IntoIterTNtNtCs6IAuOt8vWmF_3syn4expr4ExprNtNtB11_5token5CommaEENtNtNtCsfvfooZQ3Axs_4core4iter8adapters10SourceIter8as_innerCs2GZpXKFCdsl_11yoke_derive, symObjAddr: 0x6708, symBinAddr: 0x7358, symSize: 0x14 }
  - { offset: 0x16EDF, size: 0x8, addend: 0x0, symName: __RNvXsf_NtNtCse1nGBsou5OW_5alloc3vec9into_iterINtB5_8IntoIterTNtNtCs6IAuOt8vWmF_3syn4item5FnArgNtNtB11_5token5CommaEENtNtNtCsfvfooZQ3Axs_4core4iter8adapters10SourceIter8as_innerCs2GZpXKFCdsl_11yoke_derive, symObjAddr: 0x671C, symBinAddr: 0x736C, symSize: 0x14 }
  - { offset: 0x16F1F, size: 0x8, addend: 0x0, symName: __RNvXsf_NtNtCse1nGBsou5OW_5alloc3vec9into_iterINtB5_8IntoIterTNtNtCs6IAuOt8vWmF_3syn4item7UseTreeNtNtB11_5token5CommaEENtNtNtCsfvfooZQ3Axs_4core4iter8adapters10SourceIter8as_innerCs2GZpXKFCdsl_11yoke_derive, symObjAddr: 0x6730, symBinAddr: 0x7380, symSize: 0x14 }
  - { offset: 0x16F5F, size: 0x8, addend: 0x0, symName: __RNvXsf_NtNtCse1nGBsou5OW_5alloc3vec9into_iterINtB5_8IntoIterTNtNtCs6IAuOt8vWmF_3syn4path11PathSegmentNtNtB11_5token7PathSepEENtNtNtCsfvfooZQ3Axs_4core4iter8adapters10SourceIter8as_innerCs2GZpXKFCdsl_11yoke_derive, symObjAddr: 0x6744, symBinAddr: 0x7394, symSize: 0x14 }
  - { offset: 0x16F9F, size: 0x8, addend: 0x0, symName: __RNvXsf_NtNtCse1nGBsou5OW_5alloc3vec9into_iterINtB5_8IntoIterTNtNtCs6IAuOt8vWmF_3syn4path15GenericArgumentNtNtB11_5token5CommaEENtNtNtCsfvfooZQ3Axs_4core4iter8adapters10SourceIter8as_innerCs2GZpXKFCdsl_11yoke_derive, symObjAddr: 0x6758, symBinAddr: 0x73A8, symSize: 0x14 }
  - { offset: 0x16FDF, size: 0x8, addend: 0x0, symName: __RNvXsf_NtNtCse1nGBsou5OW_5alloc3vec9into_iterINtB5_8IntoIterTNtNtCs6IAuOt8vWmF_3syn8generics12GenericParamNtNtB11_5token5CommaEENtNtNtCsfvfooZQ3Axs_4core4iter8adapters10SourceIter8as_innerCs2GZpXKFCdsl_11yoke_derive, symObjAddr: 0x676C, symBinAddr: 0x73BC, symSize: 0x14 }
  - { offset: 0x1701F, size: 0x8, addend: 0x0, symName: __RNvXsf_NtNtCse1nGBsou5OW_5alloc3vec9into_iterINtB5_8IntoIterTNtNtCs6IAuOt8vWmF_3syn8generics13CapturedParamNtNtB11_5token5CommaEENtNtNtCsfvfooZQ3Axs_4core4iter8adapters10SourceIter8as_innerCs2GZpXKFCdsl_11yoke_derive, symObjAddr: 0x6780, symBinAddr: 0x73D0, symSize: 0x14 }
  - { offset: 0x1705F, size: 0x8, addend: 0x0, symName: __RNvXsf_NtNtCse1nGBsou5OW_5alloc3vec9into_iterINtB5_8IntoIterTNtNtCs6IAuOt8vWmF_3syn8generics14TypeParamBoundNtNtB11_5token4PlusEENtNtNtCsfvfooZQ3Axs_4core4iter8adapters10SourceIter8as_innerCs2GZpXKFCdsl_11yoke_derive, symObjAddr: 0x6794, symBinAddr: 0x73E4, symSize: 0x14 }
  - { offset: 0x1709F, size: 0x8, addend: 0x0, symName: __RNvXsf_NtNtCse1nGBsou5OW_5alloc3vec9into_iterINtB5_8IntoIterTNtNtCs6IAuOt8vWmF_3syn8generics14WherePredicateNtNtB11_5token5CommaEENtNtNtCsfvfooZQ3Axs_4core4iter8adapters10SourceIter8as_innerCs2GZpXKFCdsl_11yoke_derive, symObjAddr: 0x67A8, symBinAddr: 0x73F8, symSize: 0x14 }
  - { offset: 0x170DF, size: 0x8, addend: 0x0, symName: __RNvXsf_NtNtCse1nGBsou5OW_5alloc3vec9into_iterINtB5_8IntoIterTNtNtCs6IAuOt8vWmF_3syn8lifetime8LifetimeNtNtB11_5token4PlusEENtNtNtCsfvfooZQ3Axs_4core4iter8adapters10SourceIter8as_innerCs2GZpXKFCdsl_11yoke_derive, symObjAddr: 0x67BC, symBinAddr: 0x740C, symSize: 0x14 }
  - { offset: 0x17125, size: 0x8, addend: 0x0, symName: __RNvXsg_NtNtCse1nGBsou5OW_5alloc3vec9into_iterINtB5_8IntoIterNtNtCs6IAuOt8vWmF_3syn4attr9AttributeENtNtB7_16in_place_collect13AsVecIntoIter12as_into_iterCs2GZpXKFCdsl_11yoke_derive, symObjAddr: 0x67D0, symBinAddr: 0x7420, symSize: 0x14 }
  - { offset: 0x1715C, size: 0x8, addend: 0x0, symName: __RNvXsg_NtNtCse1nGBsou5OW_5alloc3vec9into_iterINtB5_8IntoIterNtNtCs6IAuOt8vWmF_3syn4expr3ArmENtNtB7_16in_place_collect13AsVecIntoIter12as_into_iterCs2GZpXKFCdsl_11yoke_derive, symObjAddr: 0x67E4, symBinAddr: 0x7434, symSize: 0x14 }
  - { offset: 0x17193, size: 0x8, addend: 0x0, symName: __RNvXsg_NtNtCse1nGBsou5OW_5alloc3vec9into_iterINtB5_8IntoIterNtNtCs6IAuOt8vWmF_3syn4item11ForeignItemENtNtB7_16in_place_collect13AsVecIntoIter12as_into_iterCs2GZpXKFCdsl_11yoke_derive, symObjAddr: 0x67F8, symBinAddr: 0x7448, symSize: 0x14 }
  - { offset: 0x171CA, size: 0x8, addend: 0x0, symName: __RNvXsg_NtNtCse1nGBsou5OW_5alloc3vec9into_iterINtB5_8IntoIterNtNtCs6IAuOt8vWmF_3syn4item4ItemENtNtB7_16in_place_collect13AsVecIntoIter12as_into_iterCs2GZpXKFCdsl_11yoke_derive, symObjAddr: 0x680C, symBinAddr: 0x745C, symSize: 0x14 }
  - { offset: 0x17201, size: 0x8, addend: 0x0, symName: __RNvXsg_NtNtCse1nGBsou5OW_5alloc3vec9into_iterINtB5_8IntoIterNtNtCs6IAuOt8vWmF_3syn4item8ImplItemENtNtB7_16in_place_collect13AsVecIntoIter12as_into_iterCs2GZpXKFCdsl_11yoke_derive, symObjAddr: 0x6820, symBinAddr: 0x7470, symSize: 0x14 }
  - { offset: 0x17238, size: 0x8, addend: 0x0, symName: __RNvXsg_NtNtCse1nGBsou5OW_5alloc3vec9into_iterINtB5_8IntoIterNtNtCs6IAuOt8vWmF_3syn4item9TraitItemENtNtB7_16in_place_collect13AsVecIntoIter12as_into_iterCs2GZpXKFCdsl_11yoke_derive, symObjAddr: 0x6834, symBinAddr: 0x7484, symSize: 0x14 }
  - { offset: 0x1726F, size: 0x8, addend: 0x0, symName: __RNvXsg_NtNtCse1nGBsou5OW_5alloc3vec9into_iterINtB5_8IntoIterNtNtCs6IAuOt8vWmF_3syn4stmt4StmtENtNtB7_16in_place_collect13AsVecIntoIter12as_into_iterCs2GZpXKFCdsl_11yoke_derive, symObjAddr: 0x6848, symBinAddr: 0x7498, symSize: 0x14 }
  - { offset: 0x172A6, size: 0x8, addend: 0x0, symName: __RNvXsg_NtNtCse1nGBsou5OW_5alloc3vec9into_iterINtB5_8IntoIterTNtNtCs6IAuOt8vWmF_3syn2ty4TypeNtNtB11_5token5CommaEENtNtB7_16in_place_collect13AsVecIntoIter12as_into_iterCs2GZpXKFCdsl_11yoke_derive, symObjAddr: 0x685C, symBinAddr: 0x74AC, symSize: 0x14 }
  - { offset: 0x172DD, size: 0x8, addend: 0x0, symName: __RNvXsg_NtNtCse1nGBsou5OW_5alloc3vec9into_iterINtB5_8IntoIterTNtNtCs6IAuOt8vWmF_3syn2ty9BareFnArgNtNtB11_5token5CommaEENtNtB7_16in_place_collect13AsVecIntoIter12as_into_iterCs2GZpXKFCdsl_11yoke_derive, symObjAddr: 0x6870, symBinAddr: 0x74C0, symSize: 0x14 }
  - { offset: 0x17314, size: 0x8, addend: 0x0, symName: __RNvXsg_NtNtCse1nGBsou5OW_5alloc3vec9into_iterINtB5_8IntoIterTNtNtCs6IAuOt8vWmF_3syn3pat3PatNtNtB11_5token2OrEENtNtB7_16in_place_collect13AsVecIntoIter12as_into_iterCs2GZpXKFCdsl_11yoke_derive, symObjAddr: 0x6884, symBinAddr: 0x74D4, symSize: 0x14 }
  - { offset: 0x1734B, size: 0x8, addend: 0x0, symName: __RNvXsg_NtNtCse1nGBsou5OW_5alloc3vec9into_iterINtB5_8IntoIterTNtNtCs6IAuOt8vWmF_3syn3pat3PatNtNtB11_5token5CommaEENtNtB7_16in_place_collect13AsVecIntoIter12as_into_iterCs2GZpXKFCdsl_11yoke_derive, symObjAddr: 0x6898, symBinAddr: 0x74E8, symSize: 0x14 }
  - { offset: 0x17382, size: 0x8, addend: 0x0, symName: __RNvXsg_NtNtCse1nGBsou5OW_5alloc3vec9into_iterINtB5_8IntoIterTNtNtCs6IAuOt8vWmF_3syn3pat8FieldPatNtNtB11_5token5CommaEENtNtB7_16in_place_collect13AsVecIntoIter12as_into_iterCs2GZpXKFCdsl_11yoke_derive, symObjAddr: 0x68AC, symBinAddr: 0x74FC, symSize: 0x14 }
  - { offset: 0x173B9, size: 0x8, addend: 0x0, symName: __RNvXsg_NtNtCse1nGBsou5OW_5alloc3vec9into_iterINtB5_8IntoIterTNtNtCs6IAuOt8vWmF_3syn4data5FieldNtNtB11_5token5CommaEENtNtB7_16in_place_collect13AsVecIntoIter12as_into_iterCs2GZpXKFCdsl_11yoke_derive, symObjAddr: 0x68C0, symBinAddr: 0x7510, symSize: 0x14 }
  - { offset: 0x173F0, size: 0x8, addend: 0x0, symName: __RNvXsg_NtNtCse1nGBsou5OW_5alloc3vec9into_iterINtB5_8IntoIterTNtNtCs6IAuOt8vWmF_3syn4data7VariantNtNtB11_5token5CommaEENtNtB7_16in_place_collect13AsVecIntoIter12as_into_iterCs2GZpXKFCdsl_11yoke_derive, symObjAddr: 0x68D4, symBinAddr: 0x7524, symSize: 0x14 }
  - { offset: 0x17427, size: 0x8, addend: 0x0, symName: __RNvXsg_NtNtCse1nGBsou5OW_5alloc3vec9into_iterINtB5_8IntoIterTNtNtCs6IAuOt8vWmF_3syn4expr10FieldValueNtNtB11_5token5CommaEENtNtB7_16in_place_collect13AsVecIntoIter12as_into_iterCs2GZpXKFCdsl_11yoke_derive, symObjAddr: 0x68E8, symBinAddr: 0x7538, symSize: 0x14 }
  - { offset: 0x1745E, size: 0x8, addend: 0x0, symName: __RNvXsg_NtNtCse1nGBsou5OW_5alloc3vec9into_iterINtB5_8IntoIterTNtNtCs6IAuOt8vWmF_3syn4expr4ExprNtNtB11_5token5CommaEENtNtB7_16in_place_collect13AsVecIntoIter12as_into_iterCs2GZpXKFCdsl_11yoke_derive, symObjAddr: 0x68FC, symBinAddr: 0x754C, symSize: 0x14 }
  - { offset: 0x17495, size: 0x8, addend: 0x0, symName: __RNvXsg_NtNtCse1nGBsou5OW_5alloc3vec9into_iterINtB5_8IntoIterTNtNtCs6IAuOt8vWmF_3syn4item5FnArgNtNtB11_5token5CommaEENtNtB7_16in_place_collect13AsVecIntoIter12as_into_iterCs2GZpXKFCdsl_11yoke_derive, symObjAddr: 0x6910, symBinAddr: 0x7560, symSize: 0x14 }
  - { offset: 0x174CC, size: 0x8, addend: 0x0, symName: __RNvXsg_NtNtCse1nGBsou5OW_5alloc3vec9into_iterINtB5_8IntoIterTNtNtCs6IAuOt8vWmF_3syn4item7UseTreeNtNtB11_5token5CommaEENtNtB7_16in_place_collect13AsVecIntoIter12as_into_iterCs2GZpXKFCdsl_11yoke_derive, symObjAddr: 0x6924, symBinAddr: 0x7574, symSize: 0x14 }
  - { offset: 0x17503, size: 0x8, addend: 0x0, symName: __RNvXsg_NtNtCse1nGBsou5OW_5alloc3vec9into_iterINtB5_8IntoIterTNtNtCs6IAuOt8vWmF_3syn4path11PathSegmentNtNtB11_5token7PathSepEENtNtB7_16in_place_collect13AsVecIntoIter12as_into_iterCs2GZpXKFCdsl_11yoke_derive, symObjAddr: 0x6938, symBinAddr: 0x7588, symSize: 0x14 }
  - { offset: 0x1753A, size: 0x8, addend: 0x0, symName: __RNvXsg_NtNtCse1nGBsou5OW_5alloc3vec9into_iterINtB5_8IntoIterTNtNtCs6IAuOt8vWmF_3syn4path15GenericArgumentNtNtB11_5token5CommaEENtNtB7_16in_place_collect13AsVecIntoIter12as_into_iterCs2GZpXKFCdsl_11yoke_derive, symObjAddr: 0x694C, symBinAddr: 0x759C, symSize: 0x14 }
  - { offset: 0x17571, size: 0x8, addend: 0x0, symName: __RNvXsg_NtNtCse1nGBsou5OW_5alloc3vec9into_iterINtB5_8IntoIterTNtNtCs6IAuOt8vWmF_3syn8generics12GenericParamNtNtB11_5token5CommaEENtNtB7_16in_place_collect13AsVecIntoIter12as_into_iterCs2GZpXKFCdsl_11yoke_derive, symObjAddr: 0x6960, symBinAddr: 0x75B0, symSize: 0x14 }
  - { offset: 0x175A8, size: 0x8, addend: 0x0, symName: __RNvXsg_NtNtCse1nGBsou5OW_5alloc3vec9into_iterINtB5_8IntoIterTNtNtCs6IAuOt8vWmF_3syn8generics13CapturedParamNtNtB11_5token5CommaEENtNtB7_16in_place_collect13AsVecIntoIter12as_into_iterCs2GZpXKFCdsl_11yoke_derive, symObjAddr: 0x6974, symBinAddr: 0x75C4, symSize: 0x14 }
  - { offset: 0x175DF, size: 0x8, addend: 0x0, symName: __RNvXsg_NtNtCse1nGBsou5OW_5alloc3vec9into_iterINtB5_8IntoIterTNtNtCs6IAuOt8vWmF_3syn8generics14TypeParamBoundNtNtB11_5token4PlusEENtNtB7_16in_place_collect13AsVecIntoIter12as_into_iterCs2GZpXKFCdsl_11yoke_derive, symObjAddr: 0x6988, symBinAddr: 0x75D8, symSize: 0x14 }
  - { offset: 0x17616, size: 0x8, addend: 0x0, symName: __RNvXsg_NtNtCse1nGBsou5OW_5alloc3vec9into_iterINtB5_8IntoIterTNtNtCs6IAuOt8vWmF_3syn8generics14WherePredicateNtNtB11_5token5CommaEENtNtB7_16in_place_collect13AsVecIntoIter12as_into_iterCs2GZpXKFCdsl_11yoke_derive, symObjAddr: 0x699C, symBinAddr: 0x75EC, symSize: 0x14 }
  - { offset: 0x1764D, size: 0x8, addend: 0x0, symName: __RNvXsg_NtNtCse1nGBsou5OW_5alloc3vec9into_iterINtB5_8IntoIterTNtNtCs6IAuOt8vWmF_3syn8lifetime8LifetimeNtNtB11_5token4PlusEENtNtB7_16in_place_collect13AsVecIntoIter12as_into_iterCs2GZpXKFCdsl_11yoke_derive, symObjAddr: 0x69B0, symBinAddr: 0x7600, symSize: 0x14 }
  - { offset: 0x1B1B3, size: 0x8, addend: 0x0, symName: __RNvMs_NtNtCse1nGBsou5OW_5alloc3vec9into_iterINtB4_8IntoIterNtNtCs6IAuOt8vWmF_3syn4attr9AttributeE32forget_allocation_drop_remainingCs2GZpXKFCdsl_11yoke_derive, symObjAddr: 0x3590, symBinAddr: 0x41E0, symSize: 0xAC }
  - { offset: 0x1B3E6, size: 0x8, addend: 0x0, symName: __RNvMs_NtNtCse1nGBsou5OW_5alloc3vec9into_iterINtB4_8IntoIterNtNtCs6IAuOt8vWmF_3syn4expr3ArmE32forget_allocation_drop_remainingCs2GZpXKFCdsl_11yoke_derive, symObjAddr: 0x363C, symBinAddr: 0x428C, symSize: 0xAC }
  - { offset: 0x1B619, size: 0x8, addend: 0x0, symName: __RNvMs_NtNtCse1nGBsou5OW_5alloc3vec9into_iterINtB4_8IntoIterNtNtCs6IAuOt8vWmF_3syn4item11ForeignItemE32forget_allocation_drop_remainingCs2GZpXKFCdsl_11yoke_derive, symObjAddr: 0x36E8, symBinAddr: 0x4338, symSize: 0xAC }
  - { offset: 0x1B84C, size: 0x8, addend: 0x0, symName: __RNvMs_NtNtCse1nGBsou5OW_5alloc3vec9into_iterINtB4_8IntoIterNtNtCs6IAuOt8vWmF_3syn4item4ItemE32forget_allocation_drop_remainingCs2GZpXKFCdsl_11yoke_derive, symObjAddr: 0x3794, symBinAddr: 0x43E4, symSize: 0xAC }
  - { offset: 0x1BA7F, size: 0x8, addend: 0x0, symName: __RNvMs_NtNtCse1nGBsou5OW_5alloc3vec9into_iterINtB4_8IntoIterNtNtCs6IAuOt8vWmF_3syn4item8ImplItemE32forget_allocation_drop_remainingCs2GZpXKFCdsl_11yoke_derive, symObjAddr: 0x3840, symBinAddr: 0x4490, symSize: 0xAC }
  - { offset: 0x1BCB2, size: 0x8, addend: 0x0, symName: __RNvMs_NtNtCse1nGBsou5OW_5alloc3vec9into_iterINtB4_8IntoIterNtNtCs6IAuOt8vWmF_3syn4item9TraitItemE32forget_allocation_drop_remainingCs2GZpXKFCdsl_11yoke_derive, symObjAddr: 0x38EC, symBinAddr: 0x453C, symSize: 0xAC }
  - { offset: 0x1BEE5, size: 0x8, addend: 0x0, symName: __RNvMs_NtNtCse1nGBsou5OW_5alloc3vec9into_iterINtB4_8IntoIterNtNtCs6IAuOt8vWmF_3syn4stmt4StmtE32forget_allocation_drop_remainingCs2GZpXKFCdsl_11yoke_derive, symObjAddr: 0x3998, symBinAddr: 0x45E8, symSize: 0xAC }
  - { offset: 0x1C118, size: 0x8, addend: 0x0, symName: __RNvMs_NtNtCse1nGBsou5OW_5alloc3vec9into_iterINtB4_8IntoIterTNtNtCs6IAuOt8vWmF_3syn2ty4TypeNtNtB10_5token5CommaEE32forget_allocation_drop_remainingCs2GZpXKFCdsl_11yoke_derive, symObjAddr: 0x3A44, symBinAddr: 0x4694, symSize: 0xAC }
  - { offset: 0x1C34B, size: 0x8, addend: 0x0, symName: __RNvMs_NtNtCse1nGBsou5OW_5alloc3vec9into_iterINtB4_8IntoIterTNtNtCs6IAuOt8vWmF_3syn2ty9BareFnArgNtNtB10_5token5CommaEE32forget_allocation_drop_remainingCs2GZpXKFCdsl_11yoke_derive, symObjAddr: 0x3AF0, symBinAddr: 0x4740, symSize: 0xAC }
  - { offset: 0x1C57E, size: 0x8, addend: 0x0, symName: __RNvMs_NtNtCse1nGBsou5OW_5alloc3vec9into_iterINtB4_8IntoIterTNtNtCs6IAuOt8vWmF_3syn3pat3PatNtNtB10_5token2OrEE32forget_allocation_drop_remainingCs2GZpXKFCdsl_11yoke_derive, symObjAddr: 0x3B9C, symBinAddr: 0x47EC, symSize: 0xAC }
  - { offset: 0x1C7B1, size: 0x8, addend: 0x0, symName: __RNvMs_NtNtCse1nGBsou5OW_5alloc3vec9into_iterINtB4_8IntoIterTNtNtCs6IAuOt8vWmF_3syn3pat3PatNtNtB10_5token5CommaEE32forget_allocation_drop_remainingCs2GZpXKFCdsl_11yoke_derive, symObjAddr: 0x3C48, symBinAddr: 0x4898, symSize: 0xAC }
  - { offset: 0x1C9E4, size: 0x8, addend: 0x0, symName: __RNvMs_NtNtCse1nGBsou5OW_5alloc3vec9into_iterINtB4_8IntoIterTNtNtCs6IAuOt8vWmF_3syn3pat8FieldPatNtNtB10_5token5CommaEE32forget_allocation_drop_remainingCs2GZpXKFCdsl_11yoke_derive, symObjAddr: 0x3CF4, symBinAddr: 0x4944, symSize: 0xAC }
  - { offset: 0x1CC17, size: 0x8, addend: 0x0, symName: __RNvMs_NtNtCse1nGBsou5OW_5alloc3vec9into_iterINtB4_8IntoIterTNtNtCs6IAuOt8vWmF_3syn4data5FieldNtNtB10_5token5CommaEE32forget_allocation_drop_remainingCs2GZpXKFCdsl_11yoke_derive, symObjAddr: 0x3DA0, symBinAddr: 0x49F0, symSize: 0xAC }
  - { offset: 0x1CE4A, size: 0x8, addend: 0x0, symName: __RNvMs_NtNtCse1nGBsou5OW_5alloc3vec9into_iterINtB4_8IntoIterTNtNtCs6IAuOt8vWmF_3syn4data7VariantNtNtB10_5token5CommaEE32forget_allocation_drop_remainingCs2GZpXKFCdsl_11yoke_derive, symObjAddr: 0x3E4C, symBinAddr: 0x4A9C, symSize: 0xAC }
  - { offset: 0x1D07D, size: 0x8, addend: 0x0, symName: __RNvMs_NtNtCse1nGBsou5OW_5alloc3vec9into_iterINtB4_8IntoIterTNtNtCs6IAuOt8vWmF_3syn4expr10FieldValueNtNtB10_5token5CommaEE32forget_allocation_drop_remainingCs2GZpXKFCdsl_11yoke_derive, symObjAddr: 0x3EF8, symBinAddr: 0x4B48, symSize: 0xAC }
  - { offset: 0x1D2B0, size: 0x8, addend: 0x0, symName: __RNvMs_NtNtCse1nGBsou5OW_5alloc3vec9into_iterINtB4_8IntoIterTNtNtCs6IAuOt8vWmF_3syn4expr4ExprNtNtB10_5token5CommaEE32forget_allocation_drop_remainingCs2GZpXKFCdsl_11yoke_derive, symObjAddr: 0x3FA4, symBinAddr: 0x4BF4, symSize: 0xAC }
  - { offset: 0x1D4E3, size: 0x8, addend: 0x0, symName: __RNvMs_NtNtCse1nGBsou5OW_5alloc3vec9into_iterINtB4_8IntoIterTNtNtCs6IAuOt8vWmF_3syn4item5FnArgNtNtB10_5token5CommaEE32forget_allocation_drop_remainingCs2GZpXKFCdsl_11yoke_derive, symObjAddr: 0x4050, symBinAddr: 0x4CA0, symSize: 0xAC }
  - { offset: 0x1D716, size: 0x8, addend: 0x0, symName: __RNvMs_NtNtCse1nGBsou5OW_5alloc3vec9into_iterINtB4_8IntoIterTNtNtCs6IAuOt8vWmF_3syn4item7UseTreeNtNtB10_5token5CommaEE32forget_allocation_drop_remainingCs2GZpXKFCdsl_11yoke_derive, symObjAddr: 0x40FC, symBinAddr: 0x4D4C, symSize: 0xAC }
  - { offset: 0x1D949, size: 0x8, addend: 0x0, symName: __RNvMs_NtNtCse1nGBsou5OW_5alloc3vec9into_iterINtB4_8IntoIterTNtNtCs6IAuOt8vWmF_3syn4path11PathSegmentNtNtB10_5token7PathSepEE32forget_allocation_drop_remainingCs2GZpXKFCdsl_11yoke_derive, symObjAddr: 0x41A8, symBinAddr: 0x4DF8, symSize: 0xAC }
  - { offset: 0x1DB7C, size: 0x8, addend: 0x0, symName: __RNvMs_NtNtCse1nGBsou5OW_5alloc3vec9into_iterINtB4_8IntoIterTNtNtCs6IAuOt8vWmF_3syn4path15GenericArgumentNtNtB10_5token5CommaEE32forget_allocation_drop_remainingCs2GZpXKFCdsl_11yoke_derive, symObjAddr: 0x4254, symBinAddr: 0x4EA4, symSize: 0xAC }
  - { offset: 0x1DDAF, size: 0x8, addend: 0x0, symName: __RNvMs_NtNtCse1nGBsou5OW_5alloc3vec9into_iterINtB4_8IntoIterTNtNtCs6IAuOt8vWmF_3syn8generics12GenericParamNtNtB10_5token5CommaEE32forget_allocation_drop_remainingCs2GZpXKFCdsl_11yoke_derive, symObjAddr: 0x4300, symBinAddr: 0x4F50, symSize: 0xAC }
  - { offset: 0x1DFE2, size: 0x8, addend: 0x0, symName: __RNvMs_NtNtCse1nGBsou5OW_5alloc3vec9into_iterINtB4_8IntoIterTNtNtCs6IAuOt8vWmF_3syn8generics13CapturedParamNtNtB10_5token5CommaEE32forget_allocation_drop_remainingCs2GZpXKFCdsl_11yoke_derive, symObjAddr: 0x43AC, symBinAddr: 0x4FFC, symSize: 0xAC }
  - { offset: 0x1E215, size: 0x8, addend: 0x0, symName: __RNvMs_NtNtCse1nGBsou5OW_5alloc3vec9into_iterINtB4_8IntoIterTNtNtCs6IAuOt8vWmF_3syn8generics14TypeParamBoundNtNtB10_5token4PlusEE32forget_allocation_drop_remainingCs2GZpXKFCdsl_11yoke_derive, symObjAddr: 0x4458, symBinAddr: 0x50A8, symSize: 0xAC }
  - { offset: 0x1E448, size: 0x8, addend: 0x0, symName: __RNvMs_NtNtCse1nGBsou5OW_5alloc3vec9into_iterINtB4_8IntoIterTNtNtCs6IAuOt8vWmF_3syn8generics14WherePredicateNtNtB10_5token5CommaEE32forget_allocation_drop_remainingCs2GZpXKFCdsl_11yoke_derive, symObjAddr: 0x4504, symBinAddr: 0x5154, symSize: 0xAC }
  - { offset: 0x1E67B, size: 0x8, addend: 0x0, symName: __RNvMs_NtNtCse1nGBsou5OW_5alloc3vec9into_iterINtB4_8IntoIterTNtNtCs6IAuOt8vWmF_3syn8lifetime8LifetimeNtNtB10_5token4PlusEE32forget_allocation_drop_remainingCs2GZpXKFCdsl_11yoke_derive, symObjAddr: 0x45B0, symBinAddr: 0x5200, symSize: 0xAC }
  - { offset: 0x1FCB7, size: 0x8, addend: 0x0, symName: __RINvNtNtCse1nGBsou5OW_5alloc3vec16in_place_collect18from_iter_in_placeINtNtNtNtCsfvfooZQ3Axs_4core4iter8adapters3map3MapINtNtB4_9into_iter8IntoIterNtNtCs6IAuOt8vWmF_3syn4attr9AttributeENCINvNtNtB2p_3gen4fold8fold_vecB2l_NtNvCs2GZpXKFCdsl_11yoke_derive16replace_lifetime15ReplaceLifetimeNvYB3w_NtB32_4Fold14fold_attributeE0EB2l_EB3A_, symObjAddr: 0x0, symBinAddr: 0x8A18, symSize: 0x25C }
  - { offset: 0x25862, size: 0x8, addend: 0x0, symName: __RINvNtNtCse1nGBsou5OW_5alloc3vec16in_place_collect18from_iter_in_placeINtNtNtNtCsfvfooZQ3Axs_4core4iter8adapters3map3MapINtNtB4_9into_iter8IntoIterNtNtCs6IAuOt8vWmF_3syn4attr9AttributeENCINvNtNtB2p_3gen4fold8fold_vecB2l_NtNvCs2GZpXKFCdsl_11yoke_derive16replace_lifetime15ReplaceLifetimeNvYB3w_NtB32_4Fold14fold_attributeE0EB2l_EB3A_, symObjAddr: 0x0, symBinAddr: 0x8A18, symSize: 0x25C }
  - { offset: 0x25CF0, size: 0x8, addend: 0x0, symName: __RINvNtNtCse1nGBsou5OW_5alloc3vec16in_place_collect18from_iter_in_placeINtNtNtNtCsfvfooZQ3Axs_4core4iter8adapters3map3MapINtNtB4_9into_iter8IntoIterNtNtCs6IAuOt8vWmF_3syn4expr3ArmENCINvNtNtB2p_3gen4fold8fold_vecB2l_NtNvCs2GZpXKFCdsl_11yoke_derive16replace_lifetime15ReplaceLifetimeNvYB3q_NtB2W_4Fold8fold_armE0EB2l_EB3u_, symObjAddr: 0x25C, symBinAddr: 0x8C74, symSize: 0x260 }
  - { offset: 0x2617E, size: 0x8, addend: 0x0, symName: __RINvNtNtCse1nGBsou5OW_5alloc3vec16in_place_collect18from_iter_in_placeINtNtNtNtCsfvfooZQ3Axs_4core4iter8adapters3map3MapINtNtB4_9into_iter8IntoIterNtNtCs6IAuOt8vWmF_3syn4item11ForeignItemENCINvNtNtB2p_3gen4fold8fold_vecB2l_NtNvCs2GZpXKFCdsl_11yoke_derive16replace_lifetime15ReplaceLifetimeNvYB3z_NtB35_4Fold17fold_foreign_itemE0EB2l_EB3D_, symObjAddr: 0x4BC, symBinAddr: 0x8ED4, symSize: 0x260 }
  - { offset: 0x2660C, size: 0x8, addend: 0x0, symName: __RINvNtNtCse1nGBsou5OW_5alloc3vec16in_place_collect18from_iter_in_placeINtNtNtNtCsfvfooZQ3Axs_4core4iter8adapters3map3MapINtNtB4_9into_iter8IntoIterNtNtCs6IAuOt8vWmF_3syn4item4ItemENCINvNtNtB2p_3gen4fold8fold_vecB2l_NtNvCs2GZpXKFCdsl_11yoke_derive16replace_lifetime15ReplaceLifetimeNvYB3r_NtB2X_4Fold9fold_itemE0EB2l_EB3v_, symObjAddr: 0x71C, symBinAddr: 0x9134, symSize: 0x260 }
  - { offset: 0x26A9A, size: 0x8, addend: 0x0, symName: __RINvNtNtCse1nGBsou5OW_5alloc3vec16in_place_collect18from_iter_in_placeINtNtNtNtCsfvfooZQ3Axs_4core4iter8adapters3map3MapINtNtB4_9into_iter8IntoIterNtNtCs6IAuOt8vWmF_3syn4item8ImplItemENCINvNtNtB2p_3gen4fold8fold_vecB2l_NtNvCs2GZpXKFCdsl_11yoke_derive16replace_lifetime15ReplaceLifetimeNvYB3v_NtB31_4Fold14fold_impl_itemE0EB2l_EB3z_, symObjAddr: 0x97C, symBinAddr: 0x9394, symSize: 0x260 }
  - { offset: 0x26F28, size: 0x8, addend: 0x0, symName: __RINvNtNtCse1nGBsou5OW_5alloc3vec16in_place_collect18from_iter_in_placeINtNtNtNtCsfvfooZQ3Axs_4core4iter8adapters3map3MapINtNtB4_9into_iter8IntoIterNtNtCs6IAuOt8vWmF_3syn4item9TraitItemENCINvNtNtB2p_3gen4fold8fold_vecB2l_NtNvCs2GZpXKFCdsl_11yoke_derive16replace_lifetime15ReplaceLifetimeNvYB3w_NtB32_4Fold15fold_trait_itemE0EB2l_EB3A_, symObjAddr: 0xBDC, symBinAddr: 0x95F4, symSize: 0x260 }
  - { offset: 0x273B6, size: 0x8, addend: 0x0, symName: __RINvNtNtCse1nGBsou5OW_5alloc3vec16in_place_collect18from_iter_in_placeINtNtNtNtCsfvfooZQ3Axs_4core4iter8adapters3map3MapINtNtB4_9into_iter8IntoIterNtNtCs6IAuOt8vWmF_3syn4stmt4StmtENCINvNtNtB2p_3gen4fold8fold_vecB2l_NtNvCs2GZpXKFCdsl_11yoke_derive16replace_lifetime15ReplaceLifetimeNvYB3r_NtB2X_4Fold9fold_stmtE0EB2l_EB3v_, symObjAddr: 0xE3C, symBinAddr: 0x9854, symSize: 0x260 }
  - { offset: 0x27844, size: 0x8, addend: 0x0, symName: __RINvNtNtCse1nGBsou5OW_5alloc3vec16in_place_collect18from_iter_in_placeINtNtNtNtCsfvfooZQ3Axs_4core4iter8adapters3map3MapINtNtB4_9into_iter8IntoIterTNtNtCs6IAuOt8vWmF_3syn2ty4TypeNtNtB2q_5token5CommaEENCINvNtB2q_10punctuated4foldB2m_B2Q_NtNvCs2GZpXKFCdsl_11yoke_derive16replace_lifetime15ReplaceLifetimeNvYB3M_NtNtNtB2q_3gen4fold4Fold9fold_typeE0EB2l_EB3Q_, symObjAddr: 0x109C, symBinAddr: 0x9AB4, symSize: 0x260 }
  - { offset: 0x27CD2, size: 0x8, addend: 0x0, symName: __RINvNtNtCse1nGBsou5OW_5alloc3vec16in_place_collect18from_iter_in_placeINtNtNtNtCsfvfooZQ3Axs_4core4iter8adapters3map3MapINtNtB4_9into_iter8IntoIterTNtNtCs6IAuOt8vWmF_3syn2ty9BareFnArgNtNtB2q_5token5CommaEENCINvNtB2q_10punctuated4foldB2m_B2V_NtNvCs2GZpXKFCdsl_11yoke_derive16replace_lifetime15ReplaceLifetimeNvYB3R_NtNtNtB2q_3gen4fold4Fold16fold_bare_fn_argE0EB2l_EB3V_, symObjAddr: 0x12FC, symBinAddr: 0x9D14, symSize: 0x260 }
  - { offset: 0x28160, size: 0x8, addend: 0x0, symName: __RINvNtNtCse1nGBsou5OW_5alloc3vec16in_place_collect18from_iter_in_placeINtNtNtNtCsfvfooZQ3Axs_4core4iter8adapters3map3MapINtNtB4_9into_iter8IntoIterTNtNtCs6IAuOt8vWmF_3syn3pat3PatNtNtB2q_5token2OrEENCINvNtB2q_10punctuated4foldB2m_B2Q_NtNvCs2GZpXKFCdsl_11yoke_derive16replace_lifetime15ReplaceLifetimeNvYB3J_NtNtNtB2q_3gen4fold4Fold8fold_patE0EB2l_EB3N_, symObjAddr: 0x155C, symBinAddr: 0x9F74, symSize: 0x260 }
  - { offset: 0x285EE, size: 0x8, addend: 0x0, symName: __RINvNtNtCse1nGBsou5OW_5alloc3vec16in_place_collect18from_iter_in_placeINtNtNtNtCsfvfooZQ3Axs_4core4iter8adapters3map3MapINtNtB4_9into_iter8IntoIterTNtNtCs6IAuOt8vWmF_3syn3pat3PatNtNtB2q_5token5CommaEENCINvNtB2q_10punctuated4foldB2m_B2Q_NtNvCs2GZpXKFCdsl_11yoke_derive16replace_lifetime15ReplaceLifetimeNvYB3M_NtNtNtB2q_3gen4fold4Fold8fold_patE0EB2l_EB3Q_, symObjAddr: 0x17BC, symBinAddr: 0xA1D4, symSize: 0x260 }
  - { offset: 0x28A7C, size: 0x8, addend: 0x0, symName: __RINvNtNtCse1nGBsou5OW_5alloc3vec16in_place_collect18from_iter_in_placeINtNtNtNtCsfvfooZQ3Axs_4core4iter8adapters3map3MapINtNtB4_9into_iter8IntoIterTNtNtCs6IAuOt8vWmF_3syn3pat8FieldPatNtNtB2q_5token5CommaEENCINvNtB2q_10punctuated4foldB2m_B2V_NtNvCs2GZpXKFCdsl_11yoke_derive16replace_lifetime15ReplaceLifetimeNvYB3R_NtNtNtB2q_3gen4fold4Fold14fold_field_patE0EB2l_EB3V_, symObjAddr: 0x1A1C, symBinAddr: 0xA434, symSize: 0x260 }
  - { offset: 0x28F0A, size: 0x8, addend: 0x0, symName: __RINvNtNtCse1nGBsou5OW_5alloc3vec16in_place_collect18from_iter_in_placeINtNtNtNtCsfvfooZQ3Axs_4core4iter8adapters3map3MapINtNtB4_9into_iter8IntoIterTNtNtCs6IAuOt8vWmF_3syn4data5FieldNtNtB2q_5token5CommaEENCINvNtB2q_10punctuated4foldB2m_B2T_NtNvCs2GZpXKFCdsl_11yoke_derive16replace_lifetime15ReplaceLifetimeNvYB3P_NtNtNtB2q_3gen4fold4Fold10fold_fieldE0EB2l_EB3T_, symObjAddr: 0x1C7C, symBinAddr: 0xA694, symSize: 0x260 }
  - { offset: 0x29398, size: 0x8, addend: 0x0, symName: __RINvNtNtCse1nGBsou5OW_5alloc3vec16in_place_collect18from_iter_in_placeINtNtNtNtCsfvfooZQ3Axs_4core4iter8adapters3map3MapINtNtB4_9into_iter8IntoIterTNtNtCs6IAuOt8vWmF_3syn4data7VariantNtNtB2q_5token5CommaEENCINvNtB2q_10punctuated4foldB2m_B2V_NtNvCs2GZpXKFCdsl_11yoke_derive16replace_lifetime15ReplaceLifetimeNvYB3R_NtNtNtB2q_3gen4fold4Fold12fold_variantE0EB2l_EB3V_, symObjAddr: 0x1EDC, symBinAddr: 0xA8F4, symSize: 0x260 }
  - { offset: 0x29826, size: 0x8, addend: 0x0, symName: __RINvNtNtCse1nGBsou5OW_5alloc3vec16in_place_collect18from_iter_in_placeINtNtNtNtCsfvfooZQ3Axs_4core4iter8adapters3map3MapINtNtB4_9into_iter8IntoIterTNtNtCs6IAuOt8vWmF_3syn4expr10FieldValueNtNtB2q_5token5CommaEENCINvNtB2q_10punctuated4foldB2m_B2Z_NtNvCs2GZpXKFCdsl_11yoke_derive16replace_lifetime15ReplaceLifetimeNvYB3V_NtNtNtB2q_3gen4fold4Fold16fold_field_valueE0EB2l_EB3Z_, symObjAddr: 0x213C, symBinAddr: 0xAB54, symSize: 0x260 }
  - { offset: 0x29CB4, size: 0x8, addend: 0x0, symName: __RINvNtNtCse1nGBsou5OW_5alloc3vec16in_place_collect18from_iter_in_placeINtNtNtNtCsfvfooZQ3Axs_4core4iter8adapters3map3MapINtNtB4_9into_iter8IntoIterTNtNtCs6IAuOt8vWmF_3syn4expr4ExprNtNtB2q_5token5CommaEENCINvNtB2q_10punctuated4foldB2m_B2S_NtNvCs2GZpXKFCdsl_11yoke_derive16replace_lifetime15ReplaceLifetimeNvYB3O_NtNtNtB2q_3gen4fold4Fold9fold_exprE0EB2l_EB3S_, symObjAddr: 0x239C, symBinAddr: 0xADB4, symSize: 0x260 }
  - { offset: 0x2A142, size: 0x8, addend: 0x0, symName: __RINvNtNtCse1nGBsou5OW_5alloc3vec16in_place_collect18from_iter_in_placeINtNtNtNtCsfvfooZQ3Axs_4core4iter8adapters3map3MapINtNtB4_9into_iter8IntoIterTNtNtCs6IAuOt8vWmF_3syn4item5FnArgNtNtB2q_5token5CommaEENCINvNtB2q_10punctuated4foldB2m_B2T_NtNvCs2GZpXKFCdsl_11yoke_derive16replace_lifetime15ReplaceLifetimeNvYB3P_NtNtNtB2q_3gen4fold4Fold11fold_fn_argE0EB2l_EB3T_, symObjAddr: 0x25FC, symBinAddr: 0xB014, symSize: 0x260 }
  - { offset: 0x2A5D0, size: 0x8, addend: 0x0, symName: __RINvNtNtCse1nGBsou5OW_5alloc3vec16in_place_collect18from_iter_in_placeINtNtNtNtCsfvfooZQ3Axs_4core4iter8adapters3map3MapINtNtB4_9into_iter8IntoIterTNtNtCs6IAuOt8vWmF_3syn4item7UseTreeNtNtB2q_5token5CommaEENCINvNtB2q_10punctuated4foldB2m_B2V_NtNvCs2GZpXKFCdsl_11yoke_derive16replace_lifetime15ReplaceLifetimeNvYB3R_NtNtNtB2q_3gen4fold4Fold13fold_use_treeE0EB2l_EB3V_, symObjAddr: 0x285C, symBinAddr: 0xB274, symSize: 0x260 }
  - { offset: 0x2AA5E, size: 0x8, addend: 0x0, symName: __RINvNtNtCse1nGBsou5OW_5alloc3vec16in_place_collect18from_iter_in_placeINtNtNtNtCsfvfooZQ3Axs_4core4iter8adapters3map3MapINtNtB4_9into_iter8IntoIterTNtNtCs6IAuOt8vWmF_3syn4path11PathSegmentNtNtB2q_5token7PathSepEENCINvNtB2q_10punctuated4foldB2m_B30_NtNvCs2GZpXKFCdsl_11yoke_derive16replace_lifetime15ReplaceLifetimeNvYB3Y_NtNtNtB2q_3gen4fold4Fold17fold_path_segmentE0EB2l_EB42_, symObjAddr: 0x2ABC, symBinAddr: 0xB4D4, symSize: 0x260 }
  - { offset: 0x2AEEC, size: 0x8, addend: 0x0, symName: __RINvNtNtCse1nGBsou5OW_5alloc3vec16in_place_collect18from_iter_in_placeINtNtNtNtCsfvfooZQ3Axs_4core4iter8adapters3map3MapINtNtB4_9into_iter8IntoIterTNtNtCs6IAuOt8vWmF_3syn4path15GenericArgumentNtNtB2q_5token5CommaEENCINvNtB2q_10punctuated4foldB2m_B34_NtNvCs2GZpXKFCdsl_11yoke_derive16replace_lifetime15ReplaceLifetimeNvYB40_NtNtNtB2q_3gen4fold4Fold21fold_generic_argumentE0EB2l_EB44_, symObjAddr: 0x2D1C, symBinAddr: 0xB734, symSize: 0x260 }
  - { offset: 0x2B37A, size: 0x8, addend: 0x0, symName: __RINvNtNtCse1nGBsou5OW_5alloc3vec16in_place_collect18from_iter_in_placeINtNtNtNtCsfvfooZQ3Axs_4core4iter8adapters3map3MapINtNtB4_9into_iter8IntoIterTNtNtCs6IAuOt8vWmF_3syn8generics12GenericParamNtNtB2q_5token5CommaEENCINvNtB2q_10punctuated4foldB2m_B35_NtNvCs2GZpXKFCdsl_11yoke_derive16replace_lifetime15ReplaceLifetimeNvYB41_NtNtNtB2q_3gen4fold4Fold18fold_generic_paramE0EB2l_EB45_, symObjAddr: 0x2F7C, symBinAddr: 0xB994, symSize: 0x260 }
  - { offset: 0x2B808, size: 0x8, addend: 0x0, symName: __RINvNtNtCse1nGBsou5OW_5alloc3vec16in_place_collect18from_iter_in_placeINtNtNtNtCsfvfooZQ3Axs_4core4iter8adapters3map3MapINtNtB4_9into_iter8IntoIterTNtNtCs6IAuOt8vWmF_3syn8generics13CapturedParamNtNtB2q_5token5CommaEENCINvNtB2q_10punctuated4foldB2m_B36_NtNvCs2GZpXKFCdsl_11yoke_derive16replace_lifetime15ReplaceLifetimeNvYB42_NtNtNtB2q_3gen4fold4Fold19fold_captured_paramE0EB2l_EB46_, symObjAddr: 0x31DC, symBinAddr: 0xBBF4, symSize: 0x260 }
  - { offset: 0x2BC96, size: 0x8, addend: 0x0, symName: __RINvNtNtCse1nGBsou5OW_5alloc3vec16in_place_collect18from_iter_in_placeINtNtNtNtCsfvfooZQ3Axs_4core4iter8adapters3map3MapINtNtB4_9into_iter8IntoIterTNtNtCs6IAuOt8vWmF_3syn8generics14TypeParamBoundNtNtB2q_5token4PlusEENCINvNtB2q_10punctuated4foldB2m_B37_NtNvCs2GZpXKFCdsl_11yoke_derive16replace_lifetime15ReplaceLifetimeNvYB42_NtNtNtB2q_3gen4fold4Fold21fold_type_param_boundE0EB2l_EB46_, symObjAddr: 0x343C, symBinAddr: 0xBE54, symSize: 0x25C }
  - { offset: 0x2C124, size: 0x8, addend: 0x0, symName: __RINvNtNtCse1nGBsou5OW_5alloc3vec16in_place_collect18from_iter_in_placeINtNtNtNtCsfvfooZQ3Axs_4core4iter8adapters3map3MapINtNtB4_9into_iter8IntoIterTNtNtCs6IAuOt8vWmF_3syn8generics14WherePredicateNtNtB2q_5token5CommaEENCINvNtB2q_10punctuated4foldB2m_B37_NtNvCs2GZpXKFCdsl_11yoke_derive16replace_lifetime15ReplaceLifetimeNvYB43_NtNtNtB2q_3gen4fold4Fold20fold_where_predicateE0EB2l_EB47_, symObjAddr: 0x3698, symBinAddr: 0xC0B0, symSize: 0x260 }
  - { offset: 0x2C5B2, size: 0x8, addend: 0x0, symName: __RINvNtNtCse1nGBsou5OW_5alloc3vec16in_place_collect18from_iter_in_placeINtNtNtNtCsfvfooZQ3Axs_4core4iter8adapters3map3MapINtNtB4_9into_iter8IntoIterTNtNtCs6IAuOt8vWmF_3syn8lifetime8LifetimeNtNtB2q_5token4PlusEENCINvNtB2q_10punctuated4foldB2m_B30_NtNvCs2GZpXKFCdsl_11yoke_derive16replace_lifetime15ReplaceLifetimeNvYB3V_NtNtNtB2q_3gen4fold4Fold13fold_lifetimeE0EB2l_EB3Z_, symObjAddr: 0x38F8, symBinAddr: 0xC310, symSize: 0x260 }
  - { offset: 0x2CA0C, size: 0x8, addend: 0x0, symName: __RNCINvNtNtCse1nGBsou5OW_5alloc3vec16in_place_collect24write_in_place_with_dropNtNtCs6IAuOt8vWmF_3syn4attr9AttributeE0Cs2GZpXKFCdsl_11yoke_derive, symObjAddr: 0x3B58, symBinAddr: 0xC570, symSize: 0x60 }
  - { offset: 0x2CA8E, size: 0x8, addend: 0x0, symName: __RNCINvNtNtCse1nGBsou5OW_5alloc3vec16in_place_collect24write_in_place_with_dropNtNtCs6IAuOt8vWmF_3syn4expr3ArmE0Cs2GZpXKFCdsl_11yoke_derive, symObjAddr: 0x3BB8, symBinAddr: 0xC5D0, symSize: 0x60 }
  - { offset: 0x2CB10, size: 0x8, addend: 0x0, symName: __RNCINvNtNtCse1nGBsou5OW_5alloc3vec16in_place_collect24write_in_place_with_dropNtNtCs6IAuOt8vWmF_3syn4item11ForeignItemE0Cs2GZpXKFCdsl_11yoke_derive, symObjAddr: 0x3C18, symBinAddr: 0xC630, symSize: 0x60 }
  - { offset: 0x2CB92, size: 0x8, addend: 0x0, symName: __RNCINvNtNtCse1nGBsou5OW_5alloc3vec16in_place_collect24write_in_place_with_dropNtNtCs6IAuOt8vWmF_3syn4item4ItemE0Cs2GZpXKFCdsl_11yoke_derive, symObjAddr: 0x3C78, symBinAddr: 0xC690, symSize: 0x60 }
  - { offset: 0x2CC14, size: 0x8, addend: 0x0, symName: __RNCINvNtNtCse1nGBsou5OW_5alloc3vec16in_place_collect24write_in_place_with_dropNtNtCs6IAuOt8vWmF_3syn4item8ImplItemE0Cs2GZpXKFCdsl_11yoke_derive, symObjAddr: 0x3CD8, symBinAddr: 0xC6F0, symSize: 0x60 }
  - { offset: 0x2CC96, size: 0x8, addend: 0x0, symName: __RNCINvNtNtCse1nGBsou5OW_5alloc3vec16in_place_collect24write_in_place_with_dropNtNtCs6IAuOt8vWmF_3syn4item9TraitItemE0Cs2GZpXKFCdsl_11yoke_derive, symObjAddr: 0x3D38, symBinAddr: 0xC750, symSize: 0x60 }
  - { offset: 0x2CD18, size: 0x8, addend: 0x0, symName: __RNCINvNtNtCse1nGBsou5OW_5alloc3vec16in_place_collect24write_in_place_with_dropNtNtCs6IAuOt8vWmF_3syn4stmt4StmtE0Cs2GZpXKFCdsl_11yoke_derive, symObjAddr: 0x3D98, symBinAddr: 0xC7B0, symSize: 0x60 }
  - { offset: 0x2CD9A, size: 0x8, addend: 0x0, symName: __RNCINvNtNtCse1nGBsou5OW_5alloc3vec16in_place_collect24write_in_place_with_dropTNtNtCs6IAuOt8vWmF_3syn2ty4TypeNtNtB1j_5token5CommaEE0Cs2GZpXKFCdsl_11yoke_derive, symObjAddr: 0x3DF8, symBinAddr: 0xC810, symSize: 0x60 }
  - { offset: 0x2CE1C, size: 0x8, addend: 0x0, symName: __RNCINvNtNtCse1nGBsou5OW_5alloc3vec16in_place_collect24write_in_place_with_dropTNtNtCs6IAuOt8vWmF_3syn2ty9BareFnArgNtNtB1j_5token5CommaEE0Cs2GZpXKFCdsl_11yoke_derive, symObjAddr: 0x3E58, symBinAddr: 0xC870, symSize: 0x60 }
  - { offset: 0x2CE9E, size: 0x8, addend: 0x0, symName: __RNCINvNtNtCse1nGBsou5OW_5alloc3vec16in_place_collect24write_in_place_with_dropTNtNtCs6IAuOt8vWmF_3syn3pat3PatNtNtB1j_5token2OrEE0Cs2GZpXKFCdsl_11yoke_derive, symObjAddr: 0x3EB8, symBinAddr: 0xC8D0, symSize: 0x60 }
  - { offset: 0x2CF20, size: 0x8, addend: 0x0, symName: __RNCINvNtNtCse1nGBsou5OW_5alloc3vec16in_place_collect24write_in_place_with_dropTNtNtCs6IAuOt8vWmF_3syn3pat3PatNtNtB1j_5token5CommaEE0Cs2GZpXKFCdsl_11yoke_derive, symObjAddr: 0x3F18, symBinAddr: 0xC930, symSize: 0x60 }
  - { offset: 0x2CFA2, size: 0x8, addend: 0x0, symName: __RNCINvNtNtCse1nGBsou5OW_5alloc3vec16in_place_collect24write_in_place_with_dropTNtNtCs6IAuOt8vWmF_3syn3pat8FieldPatNtNtB1j_5token5CommaEE0Cs2GZpXKFCdsl_11yoke_derive, symObjAddr: 0x3F78, symBinAddr: 0xC990, symSize: 0x60 }
  - { offset: 0x2D024, size: 0x8, addend: 0x0, symName: __RNCINvNtNtCse1nGBsou5OW_5alloc3vec16in_place_collect24write_in_place_with_dropTNtNtCs6IAuOt8vWmF_3syn4data5FieldNtNtB1j_5token5CommaEE0Cs2GZpXKFCdsl_11yoke_derive, symObjAddr: 0x3FD8, symBinAddr: 0xC9F0, symSize: 0x60 }
  - { offset: 0x2D0A6, size: 0x8, addend: 0x0, symName: __RNCINvNtNtCse1nGBsou5OW_5alloc3vec16in_place_collect24write_in_place_with_dropTNtNtCs6IAuOt8vWmF_3syn4data7VariantNtNtB1j_5token5CommaEE0Cs2GZpXKFCdsl_11yoke_derive, symObjAddr: 0x4038, symBinAddr: 0xCA50, symSize: 0x60 }
  - { offset: 0x2D128, size: 0x8, addend: 0x0, symName: __RNCINvNtNtCse1nGBsou5OW_5alloc3vec16in_place_collect24write_in_place_with_dropTNtNtCs6IAuOt8vWmF_3syn4expr10FieldValueNtNtB1j_5token5CommaEE0Cs2GZpXKFCdsl_11yoke_derive, symObjAddr: 0x4098, symBinAddr: 0xCAB0, symSize: 0x60 }
  - { offset: 0x2D1AA, size: 0x8, addend: 0x0, symName: __RNCINvNtNtCse1nGBsou5OW_5alloc3vec16in_place_collect24write_in_place_with_dropTNtNtCs6IAuOt8vWmF_3syn4expr4ExprNtNtB1j_5token5CommaEE0Cs2GZpXKFCdsl_11yoke_derive, symObjAddr: 0x40F8, symBinAddr: 0xCB10, symSize: 0x60 }
  - { offset: 0x2D22C, size: 0x8, addend: 0x0, symName: __RNCINvNtNtCse1nGBsou5OW_5alloc3vec16in_place_collect24write_in_place_with_dropTNtNtCs6IAuOt8vWmF_3syn4item5FnArgNtNtB1j_5token5CommaEE0Cs2GZpXKFCdsl_11yoke_derive, symObjAddr: 0x4158, symBinAddr: 0xCB70, symSize: 0x60 }
  - { offset: 0x2D2AE, size: 0x8, addend: 0x0, symName: __RNCINvNtNtCse1nGBsou5OW_5alloc3vec16in_place_collect24write_in_place_with_dropTNtNtCs6IAuOt8vWmF_3syn4item7UseTreeNtNtB1j_5token5CommaEE0Cs2GZpXKFCdsl_11yoke_derive, symObjAddr: 0x41B8, symBinAddr: 0xCBD0, symSize: 0x60 }
  - { offset: 0x2D330, size: 0x8, addend: 0x0, symName: __RNCINvNtNtCse1nGBsou5OW_5alloc3vec16in_place_collect24write_in_place_with_dropTNtNtCs6IAuOt8vWmF_3syn4path11PathSegmentNtNtB1j_5token7PathSepEE0Cs2GZpXKFCdsl_11yoke_derive, symObjAddr: 0x4218, symBinAddr: 0xCC30, symSize: 0x60 }
  - { offset: 0x2D3B2, size: 0x8, addend: 0x0, symName: __RNCINvNtNtCse1nGBsou5OW_5alloc3vec16in_place_collect24write_in_place_with_dropTNtNtCs6IAuOt8vWmF_3syn4path15GenericArgumentNtNtB1j_5token5CommaEE0Cs2GZpXKFCdsl_11yoke_derive, symObjAddr: 0x4278, symBinAddr: 0xCC90, symSize: 0x60 }
  - { offset: 0x2D434, size: 0x8, addend: 0x0, symName: __RNCINvNtNtCse1nGBsou5OW_5alloc3vec16in_place_collect24write_in_place_with_dropTNtNtCs6IAuOt8vWmF_3syn8generics12GenericParamNtNtB1j_5token5CommaEE0Cs2GZpXKFCdsl_11yoke_derive, symObjAddr: 0x42D8, symBinAddr: 0xCCF0, symSize: 0x60 }
  - { offset: 0x2D4B6, size: 0x8, addend: 0x0, symName: __RNCINvNtNtCse1nGBsou5OW_5alloc3vec16in_place_collect24write_in_place_with_dropTNtNtCs6IAuOt8vWmF_3syn8generics13CapturedParamNtNtB1j_5token5CommaEE0Cs2GZpXKFCdsl_11yoke_derive, symObjAddr: 0x4338, symBinAddr: 0xCD50, symSize: 0x60 }
  - { offset: 0x2D538, size: 0x8, addend: 0x0, symName: __RNCINvNtNtCse1nGBsou5OW_5alloc3vec16in_place_collect24write_in_place_with_dropTNtNtCs6IAuOt8vWmF_3syn8generics14TypeParamBoundNtNtB1j_5token4PlusEE0Cs2GZpXKFCdsl_11yoke_derive, symObjAddr: 0x4398, symBinAddr: 0xCDB0, symSize: 0x60 }
  - { offset: 0x2D5BA, size: 0x8, addend: 0x0, symName: __RNCINvNtNtCse1nGBsou5OW_5alloc3vec16in_place_collect24write_in_place_with_dropTNtNtCs6IAuOt8vWmF_3syn8generics14WherePredicateNtNtB1j_5token5CommaEE0Cs2GZpXKFCdsl_11yoke_derive, symObjAddr: 0x43F8, symBinAddr: 0xCE10, symSize: 0x60 }
  - { offset: 0x2D63C, size: 0x8, addend: 0x0, symName: __RNCINvNtNtCse1nGBsou5OW_5alloc3vec16in_place_collect24write_in_place_with_dropTNtNtCs6IAuOt8vWmF_3syn8lifetime8LifetimeNtNtB1j_5token4PlusEE0Cs2GZpXKFCdsl_11yoke_derive, symObjAddr: 0x4458, symBinAddr: 0xCE70, symSize: 0x60 }
  - { offset: 0x3846F, size: 0x8, addend: 0x0, symName: __RINvNtNtCs6IAuOt8vWmF_3syn3gen4fold10fold_blockNtNvCs2GZpXKFCdsl_11yoke_derive16replace_lifetime15ReplaceLifetimeEBN_, symObjAddr: 0x0, symBinAddr: 0xCED0, symSize: 0x90 }
  - { offset: 0x38DC6, size: 0x8, addend: 0x0, symName: __RINvNtNtCs6IAuOt8vWmF_3syn3gen4fold10fold_blockNtNvCs2GZpXKFCdsl_11yoke_derive16replace_lifetime15ReplaceLifetimeEBN_, symObjAddr: 0x0, symBinAddr: 0xCED0, symSize: 0x90 }
  - { offset: 0x38E0D, size: 0x8, addend: 0x0, symName: __RINvNtNtCs6IAuOt8vWmF_3syn3gen4fold10fold_fieldNtNvCs2GZpXKFCdsl_11yoke_derive16replace_lifetime15ReplaceLifetimeEBN_, symObjAddr: 0x90, symBinAddr: 0xCF60, symSize: 0x22C }
  - { offset: 0x38E54, size: 0x8, addend: 0x0, symName: __RINvNtNtCs6IAuOt8vWmF_3syn3gen4fold10fold_identNtNvCs2GZpXKFCdsl_11yoke_derive16replace_lifetime15ReplaceLifetimeEBN_, symObjAddr: 0x2BC, symBinAddr: 0xD18C, symSize: 0xB8 }
  - { offset: 0x38ECF, size: 0x8, addend: 0x0, symName: __RINvNtNtCs6IAuOt8vWmF_3syn3gen4fold10fold_indexNtNvCs2GZpXKFCdsl_11yoke_derive16replace_lifetime15ReplaceLifetimeEBN_, symObjAddr: 0x374, symBinAddr: 0xD244, symSize: 0x50 }
  - { offset: 0x38F15, size: 0x8, addend: 0x0, symName: __RINvNtNtCs6IAuOt8vWmF_3syn3gen4fold10fold_labelNtNvCs2GZpXKFCdsl_11yoke_derive16replace_lifetime15ReplaceLifetimeEBN_, symObjAddr: 0x3C4, symBinAddr: 0xD294, symSize: 0x80 }
  - { offset: 0x38F5C, size: 0x8, addend: 0x0, symName: __RINvNtNtCs6IAuOt8vWmF_3syn3gen4fold10fold_localNtNvCs2GZpXKFCdsl_11yoke_derive16replace_lifetime15ReplaceLifetimeEBN_, symObjAddr: 0x444, symBinAddr: 0xD314, symSize: 0x1D8 }
  - { offset: 0x38FA3, size: 0x8, addend: 0x0, symName: __RINvNtNtCs6IAuOt8vWmF_3syn3gen4fold10fold_macroNtNvCs2GZpXKFCdsl_11yoke_derive16replace_lifetime15ReplaceLifetimeEBN_, symObjAddr: 0x61C, symBinAddr: 0xD4EC, symSize: 0x164 }
  - { offset: 0x38FEA, size: 0x8, addend: 0x0, symName: __RINvNtNtCs6IAuOt8vWmF_3syn3gen4fold10fold_qselfNtNvCs2GZpXKFCdsl_11yoke_derive16replace_lifetime15ReplaceLifetimeEBN_, symObjAddr: 0x780, symBinAddr: 0xD650, symSize: 0x1CC }
  - { offset: 0x39050, size: 0x8, addend: 0x0, symName: __RINvNtNtCs6IAuOt8vWmF_3syn3gen4fold10fold_un_opNtNvCs2GZpXKFCdsl_11yoke_derive16replace_lifetime15ReplaceLifetimeEBN_, symObjAddr: 0x94C, symBinAddr: 0xD81C, symSize: 0xCC }
  - { offset: 0x390F0, size: 0x8, addend: 0x0, symName: __RINvNtNtCs6IAuOt8vWmF_3syn3gen4fold11fold_bin_opNtNvCs2GZpXKFCdsl_11yoke_derive16replace_lifetime15ReplaceLifetimeEBO_, symObjAddr: 0xA18, symBinAddr: 0xD8E8, symSize: 0x6B0 }
  - { offset: 0x39496, size: 0x8, addend: 0x0, symName: __RINvNtNtCs6IAuOt8vWmF_3syn3gen4fold11fold_fieldsNtNvCs2GZpXKFCdsl_11yoke_derive16replace_lifetime15ReplaceLifetimeEBO_, symObjAddr: 0x10C8, symBinAddr: 0xDF98, symSize: 0x14C }
  - { offset: 0x3951B, size: 0x8, addend: 0x0, symName: __RINvNtNtCs6IAuOt8vWmF_3syn3gen4fold11fold_fn_argNtNvCs2GZpXKFCdsl_11yoke_derive16replace_lifetime15ReplaceLifetimeEBO_, symObjAddr: 0x1214, symBinAddr: 0xE0E4, symSize: 0x10C }
  - { offset: 0x39598, size: 0x8, addend: 0x0, symName: __RINvNtNtCs6IAuOt8vWmF_3syn3gen4fold11fold_memberNtNvCs2GZpXKFCdsl_11yoke_derive16replace_lifetime15ReplaceLifetimeEBO_, symObjAddr: 0x1320, symBinAddr: 0xE1F0, symSize: 0xD4 }
  - { offset: 0x39613, size: 0x8, addend: 0x0, symName: __RINvNtNtCs6IAuOt8vWmF_3syn3gen4fold11fold_pat_orNtNvCs2GZpXKFCdsl_11yoke_derive16replace_lifetime15ReplaceLifetimeEBO_, symObjAddr: 0x13F4, symBinAddr: 0xE2C4, symSize: 0x120 }
  - { offset: 0x3965A, size: 0x8, addend: 0x0, symName: __RINvNtNtCs6IAuOt8vWmF_3syn3gen4fold12fold_expr_ifNtNvCs2GZpXKFCdsl_11yoke_derive16replace_lifetime15ReplaceLifetimeEBP_, symObjAddr: 0x1514, symBinAddr: 0xE3E4, symSize: 0x310 }
  - { offset: 0x396C0, size: 0x8, addend: 0x0, symName: __RINvNtNtCs6IAuOt8vWmF_3syn3gen4fold12fold_item_fnNtNvCs2GZpXKFCdsl_11yoke_derive16replace_lifetime15ReplaceLifetimeEBP_, symObjAddr: 0x1824, symBinAddr: 0xE6F4, symSize: 0x2FC }
  - { offset: 0x39726, size: 0x8, addend: 0x0, symName: __RINvNtNtCs6IAuOt8vWmF_3syn3gen4fold12fold_lit_intNtNvCs2GZpXKFCdsl_11yoke_derive16replace_lifetime15ReplaceLifetimeEBP_, symObjAddr: 0x1B20, symBinAddr: 0xE9F0, symSize: 0xDC }
  - { offset: 0x397A0, size: 0x8, addend: 0x0, symName: __RINvNtNtCs6IAuOt8vWmF_3syn3gen4fold12fold_lit_strNtNvCs2GZpXKFCdsl_11yoke_derive16replace_lifetime15ReplaceLifetimeEBP_, symObjAddr: 0x1BFC, symBinAddr: 0xEACC, symSize: 0xDC }
  - { offset: 0x3981A, size: 0x8, addend: 0x0, symName: __RINvNtNtCs6IAuOt8vWmF_3syn3gen4fold12fold_variantNtNvCs2GZpXKFCdsl_11yoke_derive16replace_lifetime15ReplaceLifetimeEBP_, symObjAddr: 0x1CD8, symBinAddr: 0xEBA8, symSize: 0x228 }
  - { offset: 0x39861, size: 0x8, addend: 0x0, symName: __RINvNtNtCs6IAuOt8vWmF_3syn3gen4fold13fold_expr_letNtNvCs2GZpXKFCdsl_11yoke_derive16replace_lifetime15ReplaceLifetimeEBQ_, symObjAddr: 0x1F00, symBinAddr: 0xEDD0, symSize: 0x3A8 }
  - { offset: 0x398E7, size: 0x8, addend: 0x0, symName: __RINvNtNtCs6IAuOt8vWmF_3syn3gen4fold13fold_expr_litNtNvCs2GZpXKFCdsl_11yoke_derive16replace_lifetime15ReplaceLifetimeEBQ_, symObjAddr: 0x22A8, symBinAddr: 0xF178, symSize: 0x110 }
  - { offset: 0x3992E, size: 0x8, addend: 0x0, symName: __RINvNtNtCs6IAuOt8vWmF_3syn3gen4fold13fold_expr_tryNtNvCs2GZpXKFCdsl_11yoke_derive16replace_lifetime15ReplaceLifetimeEBQ_, symObjAddr: 0x23B8, symBinAddr: 0xF288, symSize: 0x208 }
  - { offset: 0x39994, size: 0x8, addend: 0x0, symName: __RINvNtNtCs6IAuOt8vWmF_3syn3gen4fold13fold_genericsNtNvCs2GZpXKFCdsl_11yoke_derive16replace_lifetime15ReplaceLifetimeEBQ_, symObjAddr: 0x25C0, symBinAddr: 0xF490, symSize: 0x148 }
  - { offset: 0x399DB, size: 0x8, addend: 0x0, symName: __RINvNtNtCs6IAuOt8vWmF_3syn3gen4fold13fold_item_modNtNvCs2GZpXKFCdsl_11yoke_derive16replace_lifetime15ReplaceLifetimeEBQ_, symObjAddr: 0x2708, symBinAddr: 0xF5D8, symSize: 0x264 }
  - { offset: 0x39A22, size: 0x8, addend: 0x0, symName: __RINvNtNtCs6IAuOt8vWmF_3syn3gen4fold13fold_item_useNtNvCs2GZpXKFCdsl_11yoke_derive16replace_lifetime15ReplaceLifetimeEBQ_, symObjAddr: 0x296C, symBinAddr: 0xF83C, symSize: 0x1E8 }
  - { offset: 0x39A69, size: 0x8, addend: 0x0, symName: __RINvNtNtCs6IAuOt8vWmF_3syn3gen4fold13fold_lit_boolNtNvCs2GZpXKFCdsl_11yoke_derive16replace_lifetime15ReplaceLifetimeEBQ_, symObjAddr: 0x2B54, symBinAddr: 0xFA24, symSize: 0x44 }
  - { offset: 0x39AAF, size: 0x8, addend: 0x0, symName: __RINvNtNtCs6IAuOt8vWmF_3syn3gen4fold13fold_lit_byteNtNvCs2GZpXKFCdsl_11yoke_derive16replace_lifetime15ReplaceLifetimeEBQ_, symObjAddr: 0x2B98, symBinAddr: 0xFA68, symSize: 0xDC }
  - { offset: 0x39B29, size: 0x8, addend: 0x0, symName: __RINvNtNtCs6IAuOt8vWmF_3syn3gen4fold13fold_lit_charNtNvCs2GZpXKFCdsl_11yoke_derive16replace_lifetime15ReplaceLifetimeEBQ_, symObjAddr: 0x2C74, symBinAddr: 0xFB44, symSize: 0xDC }
  - { offset: 0x39BA3, size: 0x8, addend: 0x0, symName: __RINvNtNtCs6IAuOt8vWmF_3syn3gen4fold13fold_lit_cstrNtNvCs2GZpXKFCdsl_11yoke_derive16replace_lifetime15ReplaceLifetimeEBQ_, symObjAddr: 0x2D50, symBinAddr: 0xFC20, symSize: 0xDC }
  - { offset: 0x39C1D, size: 0x8, addend: 0x0, symName: __RINvNtNtCs6IAuOt8vWmF_3syn3gen4fold13fold_pat_restNtNvCs2GZpXKFCdsl_11yoke_derive16replace_lifetime15ReplaceLifetimeEBQ_, symObjAddr: 0x2E2C, symBinAddr: 0xFCFC, symSize: 0x80 }
  - { offset: 0x39C64, size: 0x8, addend: 0x0, symName: __RINvNtNtCs6IAuOt8vWmF_3syn3gen4fold13fold_pat_typeNtNvCs2GZpXKFCdsl_11yoke_derive16replace_lifetime15ReplaceLifetimeEBQ_, symObjAddr: 0x2EAC, symBinAddr: 0xFD7C, symSize: 0x39C }
  - { offset: 0x39CEA, size: 0x8, addend: 0x0, symName: __RINvNtNtCs6IAuOt8vWmF_3syn3gen4fold13fold_pat_wildNtNvCs2GZpXKFCdsl_11yoke_derive16replace_lifetime15ReplaceLifetimeEBQ_, symObjAddr: 0x3248, symBinAddr: 0x10118, symSize: 0x80 }
  - { offset: 0x39D31, size: 0x8, addend: 0x0, symName: __RINvNtNtCs6IAuOt8vWmF_3syn3gen4fold13fold_receiverNtNvCs2GZpXKFCdsl_11yoke_derive16replace_lifetime15ReplaceLifetimeEBQ_, symObjAddr: 0x32C8, symBinAddr: 0x10198, symSize: 0x2C4 }
  - { offset: 0x39D97, size: 0x8, addend: 0x0, symName: __RINvNtNtCs6IAuOt8vWmF_3syn3gen4fold13fold_type_ptrNtNvCs2GZpXKFCdsl_11yoke_derive16replace_lifetime15ReplaceLifetimeEBQ_, symObjAddr: 0x358C, symBinAddr: 0x1045C, symSize: 0x1E4 }
  - { offset: 0x39DFD, size: 0x8, addend: 0x0, symName: __RINvNtNtCs6IAuOt8vWmF_3syn3gen4fold13fold_use_globNtNvCs2GZpXKFCdsl_11yoke_derive16replace_lifetime15ReplaceLifetimeEBQ_, symObjAddr: 0x3770, symBinAddr: 0x10640, symSize: 0x40 }
  - { offset: 0x39E43, size: 0x8, addend: 0x0, symName: __RINvNtNtCs6IAuOt8vWmF_3syn3gen4fold13fold_use_nameNtNvCs2GZpXKFCdsl_11yoke_derive16replace_lifetime15ReplaceLifetimeEBQ_, symObjAddr: 0x37B0, symBinAddr: 0x10680, symSize: 0x68 }
  - { offset: 0x39E8A, size: 0x8, addend: 0x0, symName: __RINvNtNtCs6IAuOt8vWmF_3syn3gen4fold13fold_use_pathNtNvCs2GZpXKFCdsl_11yoke_derive16replace_lifetime15ReplaceLifetimeEBQ_, symObjAddr: 0x3818, symBinAddr: 0x106E8, symSize: 0x208 }
  - { offset: 0x39EF0, size: 0x8, addend: 0x0, symName: __RINvNtNtCs6IAuOt8vWmF_3syn3gen4fold13fold_use_treeNtNvCs2GZpXKFCdsl_11yoke_derive16replace_lifetime15ReplaceLifetimeEBQ_, symObjAddr: 0x3A20, symBinAddr: 0x108F0, symSize: 0x260 }
  - { offset: 0x39FCA, size: 0x8, addend: 0x0, symName: __RINvNtNtCs6IAuOt8vWmF_3syn3gen4fold13fold_variadicNtNvCs2GZpXKFCdsl_11yoke_derive16replace_lifetime15ReplaceLifetimeEBQ_, symObjAddr: 0x3C80, symBinAddr: 0x10B50, symSize: 0x134 }
  - { offset: 0x3A011, size: 0x8, addend: 0x0, symName: __RINvNtNtCs6IAuOt8vWmF_3syn3gen4fold14fold_attributeNtNvCs2GZpXKFCdsl_11yoke_derive16replace_lifetime15ReplaceLifetimeEBR_, symObjAddr: 0x3DB4, symBinAddr: 0x10C84, symSize: 0x14C }
  - { offset: 0x3A058, size: 0x8, addend: 0x0, symName: __RINvNtNtCs6IAuOt8vWmF_3syn3gen4fold14fold_expr_callNtNvCs2GZpXKFCdsl_11yoke_derive16replace_lifetime15ReplaceLifetimeEBR_, symObjAddr: 0x3F00, symBinAddr: 0x10DD0, symSize: 0x2AC }
  - { offset: 0x3A0BE, size: 0x8, addend: 0x0, symName: __RINvNtNtCs6IAuOt8vWmF_3syn3gen4fold14fold_expr_castNtNvCs2GZpXKFCdsl_11yoke_derive16replace_lifetime15ReplaceLifetimeEBR_, symObjAddr: 0x41AC, symBinAddr: 0x1107C, symSize: 0x39C }
  - { offset: 0x3A144, size: 0x8, addend: 0x0, symName: __RINvNtNtCs6IAuOt8vWmF_3syn3gen4fold14fold_expr_loopNtNvCs2GZpXKFCdsl_11yoke_derive16replace_lifetime15ReplaceLifetimeEBR_, symObjAddr: 0x4548, symBinAddr: 0x11418, symSize: 0x1C0 }
  - { offset: 0x3A18B, size: 0x8, addend: 0x0, symName: __RINvNtNtCs6IAuOt8vWmF_3syn3gen4fold14fold_expr_pathNtNvCs2GZpXKFCdsl_11yoke_derive16replace_lifetime15ReplaceLifetimeEBR_, symObjAddr: 0x4708, symBinAddr: 0x115D8, symSize: 0x1A0 }
  - { offset: 0x3A1D2, size: 0x8, addend: 0x0, symName: __RINvNtNtCs6IAuOt8vWmF_3syn3gen4fold14fold_field_patNtNvCs2GZpXKFCdsl_11yoke_derive16replace_lifetime15ReplaceLifetimeEBR_, symObjAddr: 0x48A8, symBinAddr: 0x11778, symSize: 0x284 }
  - { offset: 0x3A238, size: 0x8, addend: 0x0, symName: __RINvNtNtCs6IAuOt8vWmF_3syn3gen4fold14fold_impl_itemNtNvCs2GZpXKFCdsl_11yoke_derive16replace_lifetime15ReplaceLifetimeEBR_, symObjAddr: 0x4B2C, symBinAddr: 0x119FC, symSize: 0x284 }
  - { offset: 0x3A312, size: 0x8, addend: 0x0, symName: __RINvNtNtCs6IAuOt8vWmF_3syn3gen4fold14fold_item_enumNtNvCs2GZpXKFCdsl_11yoke_derive16replace_lifetime15ReplaceLifetimeEBR_, symObjAddr: 0x4DB0, symBinAddr: 0x11C80, symSize: 0x2E0 }
  - { offset: 0x3A359, size: 0x8, addend: 0x0, symName: __RINvNtNtCs6IAuOt8vWmF_3syn3gen4fold14fold_item_implNtNvCs2GZpXKFCdsl_11yoke_derive16replace_lifetime15ReplaceLifetimeEBR_, symObjAddr: 0x5090, symBinAddr: 0x11F60, symSize: 0x408 }
  - { offset: 0x3A3BF, size: 0x8, addend: 0x0, symName: __RINvNtNtCs6IAuOt8vWmF_3syn3gen4fold14fold_item_typeNtNvCs2GZpXKFCdsl_11yoke_derive16replace_lifetime15ReplaceLifetimeEBR_, symObjAddr: 0x5498, symBinAddr: 0x12368, symSize: 0x3B0 }
  - { offset: 0x3A425, size: 0x8, addend: 0x0, symName: __RINvNtNtCs6IAuOt8vWmF_3syn3gen4fold14fold_lit_floatNtNvCs2GZpXKFCdsl_11yoke_derive16replace_lifetime15ReplaceLifetimeEBR_, symObjAddr: 0x5848, symBinAddr: 0x12718, symSize: 0xDC }
  - { offset: 0x3A49F, size: 0x8, addend: 0x0, symName: __RINvNtNtCs6IAuOt8vWmF_3syn3gen4fold14fold_meta_listNtNvCs2GZpXKFCdsl_11yoke_derive16replace_lifetime15ReplaceLifetimeEBR_, symObjAddr: 0x5924, symBinAddr: 0x127F4, symSize: 0x144 }
  - { offset: 0x3A4E6, size: 0x8, addend: 0x0, symName: __RINvNtNtCs6IAuOt8vWmF_3syn3gen4fold14fold_pat_identNtNvCs2GZpXKFCdsl_11yoke_derive16replace_lifetime15ReplaceLifetimeEBR_, symObjAddr: 0x5A68, symBinAddr: 0x12938, symSize: 0x1BC }
  - { offset: 0x3A52D, size: 0x8, addend: 0x0, symName: __RINvNtNtCs6IAuOt8vWmF_3syn3gen4fold14fold_pat_parenNtNvCs2GZpXKFCdsl_11yoke_derive16replace_lifetime15ReplaceLifetimeEBR_, symObjAddr: 0x5C24, symBinAddr: 0x12AF4, symSize: 0x218 }
  - { offset: 0x3A593, size: 0x8, addend: 0x0, symName: __RINvNtNtCs6IAuOt8vWmF_3syn3gen4fold14fold_pat_sliceNtNvCs2GZpXKFCdsl_11yoke_derive16replace_lifetime15ReplaceLifetimeEBR_, symObjAddr: 0x5E3C, symBinAddr: 0x12D0C, symSize: 0x130 }
  - { offset: 0x3A5DA, size: 0x8, addend: 0x0, symName: __RINvNtNtCs6IAuOt8vWmF_3syn3gen4fold14fold_pat_tupleNtNvCs2GZpXKFCdsl_11yoke_derive16replace_lifetime15ReplaceLifetimeEBR_, symObjAddr: 0x5F6C, symBinAddr: 0x12E3C, symSize: 0x130 }
  - { offset: 0x3A621, size: 0x8, addend: 0x0, symName: __RINvNtNtCs6IAuOt8vWmF_3syn3gen4fold14fold_signatureNtNvCs2GZpXKFCdsl_11yoke_derive16replace_lifetime15ReplaceLifetimeEBR_, symObjAddr: 0x609C, symBinAddr: 0x12F6C, symSize: 0x3CC }
  - { offset: 0x3A668, size: 0x8, addend: 0x0, symName: __RINvNtNtCs6IAuOt8vWmF_3syn3gen4fold14fold_type_pathNtNvCs2GZpXKFCdsl_11yoke_derive16replace_lifetime15ReplaceLifetimeEBR_, symObjAddr: 0x6468, symBinAddr: 0x13338, symSize: 0x114 }
  - { offset: 0x3A6AF, size: 0x8, addend: 0x0, symName: __RINvNtNtCs6IAuOt8vWmF_3syn3gen4fold14fold_use_groupNtNvCs2GZpXKFCdsl_11yoke_derive16replace_lifetime15ReplaceLifetimeEBR_, symObjAddr: 0x657C, symBinAddr: 0x1344C, symSize: 0x90 }
  - { offset: 0x3A6F6, size: 0x8, addend: 0x0, symName: __RINvNtNtCs6IAuOt8vWmF_3syn3gen4fold15fold_assoc_typeNtNvCs2GZpXKFCdsl_11yoke_derive16replace_lifetime15ReplaceLifetimeEBS_, symObjAddr: 0x660C, symBinAddr: 0x134DC, symSize: 0x1BC }
  - { offset: 0x3A73D, size: 0x8, addend: 0x0, symName: __RINvNtNtCs6IAuOt8vWmF_3syn3gen4fold15fold_attr_styleNtNvCs2GZpXKFCdsl_11yoke_derive16replace_lifetime15ReplaceLifetimeEBS_, symObjAddr: 0x67C8, symBinAddr: 0x13698, symSize: 0x74 }
  - { offset: 0x3A7A1, size: 0x8, addend: 0x0, symName: __RINvNtNtCs6IAuOt8vWmF_3syn3gen4fold15fold_constraintNtNvCs2GZpXKFCdsl_11yoke_derive16replace_lifetime15ReplaceLifetimeEBS_, symObjAddr: 0x683C, symBinAddr: 0x1370C, symSize: 0x1C0 }
  - { offset: 0x3A7E8, size: 0x8, addend: 0x0, symName: __RINvNtNtCs6IAuOt8vWmF_3syn3gen4fold15fold_expr_arrayNtNvCs2GZpXKFCdsl_11yoke_derive16replace_lifetime15ReplaceLifetimeEBS_, symObjAddr: 0x69FC, symBinAddr: 0x138CC, symSize: 0x130 }
  - { offset: 0x3A82F, size: 0x8, addend: 0x0, symName: __RINvNtNtCs6IAuOt8vWmF_3syn3gen4fold15fold_expr_asyncNtNvCs2GZpXKFCdsl_11yoke_derive16replace_lifetime15ReplaceLifetimeEBS_, symObjAddr: 0x6B2C, symBinAddr: 0x139FC, symSize: 0x14C }
  - { offset: 0x3A876, size: 0x8, addend: 0x0, symName: __RINvNtNtCs6IAuOt8vWmF_3syn3gen4fold15fold_expr_awaitNtNvCs2GZpXKFCdsl_11yoke_derive16replace_lifetime15ReplaceLifetimeEBS_, symObjAddr: 0x6C78, symBinAddr: 0x13B48, symSize: 0x210 }
  - { offset: 0x3A8DC, size: 0x8, addend: 0x0, symName: __RINvNtNtCs6IAuOt8vWmF_3syn3gen4fold15fold_expr_blockNtNvCs2GZpXKFCdsl_11yoke_derive16replace_lifetime15ReplaceLifetimeEBS_, symObjAddr: 0x6E88, symBinAddr: 0x13D58, symSize: 0x1B0 }
  - { offset: 0x3A923, size: 0x8, addend: 0x0, symName: __RINvNtNtCs6IAuOt8vWmF_3syn3gen4fold15fold_expr_breakNtNvCs2GZpXKFCdsl_11yoke_derive16replace_lifetime15ReplaceLifetimeEBS_, symObjAddr: 0x7038, symBinAddr: 0x13F08, symSize: 0x184 }
  - { offset: 0x3A96A, size: 0x8, addend: 0x0, symName: __RINvNtNtCs6IAuOt8vWmF_3syn3gen4fold15fold_expr_constNtNvCs2GZpXKFCdsl_11yoke_derive16replace_lifetime15ReplaceLifetimeEBS_, symObjAddr: 0x71BC, symBinAddr: 0x1408C, symSize: 0x12C }
  - { offset: 0x3A9B1, size: 0x8, addend: 0x0, symName: __RINvNtNtCs6IAuOt8vWmF_3syn3gen4fold15fold_expr_fieldNtNvCs2GZpXKFCdsl_11yoke_derive16replace_lifetime15ReplaceLifetimeEBS_, symObjAddr: 0x72E8, symBinAddr: 0x141B8, symSize: 0x28C }
  - { offset: 0x3AA17, size: 0x8, addend: 0x0, symName: __RINvNtNtCs6IAuOt8vWmF_3syn3gen4fold15fold_expr_groupNtNvCs2GZpXKFCdsl_11yoke_derive16replace_lifetime15ReplaceLifetimeEBS_, symObjAddr: 0x7574, symBinAddr: 0x14444, symSize: 0x208 }
  - { offset: 0x3AA7D, size: 0x8, addend: 0x0, symName: __RINvNtNtCs6IAuOt8vWmF_3syn3gen4fold15fold_expr_indexNtNvCs2GZpXKFCdsl_11yoke_derive16replace_lifetime15ReplaceLifetimeEBS_, symObjAddr: 0x777C, symBinAddr: 0x1464C, symSize: 0x3A8 }
  - { offset: 0x3AB03, size: 0x8, addend: 0x0, symName: __RINvNtNtCs6IAuOt8vWmF_3syn3gen4fold15fold_expr_inferNtNvCs2GZpXKFCdsl_11yoke_derive16replace_lifetime15ReplaceLifetimeEBS_, symObjAddr: 0x7B24, symBinAddr: 0x149F4, symSize: 0x80 }
  - { offset: 0x3AB4A, size: 0x8, addend: 0x0, symName: __RINvNtNtCs6IAuOt8vWmF_3syn3gen4fold15fold_expr_macroNtNvCs2GZpXKFCdsl_11yoke_derive16replace_lifetime15ReplaceLifetimeEBS_, symObjAddr: 0x7BA4, symBinAddr: 0x14A74, symSize: 0x124 }
  - { offset: 0x3AB91, size: 0x8, addend: 0x0, symName: __RINvNtNtCs6IAuOt8vWmF_3syn3gen4fold15fold_expr_matchNtNvCs2GZpXKFCdsl_11yoke_derive16replace_lifetime15ReplaceLifetimeEBS_, symObjAddr: 0x7CC8, symBinAddr: 0x14B98, symSize: 0x2AC }
  - { offset: 0x3ABF7, size: 0x8, addend: 0x0, symName: __RINvNtNtCs6IAuOt8vWmF_3syn3gen4fold15fold_expr_parenNtNvCs2GZpXKFCdsl_11yoke_derive16replace_lifetime15ReplaceLifetimeEBS_, symObjAddr: 0x7F74, symBinAddr: 0x14E44, symSize: 0x218 }
  - { offset: 0x3AC5D, size: 0x8, addend: 0x0, symName: __RINvNtNtCs6IAuOt8vWmF_3syn3gen4fold15fold_expr_rangeNtNvCs2GZpXKFCdsl_11yoke_derive16replace_lifetime15ReplaceLifetimeEBS_, symObjAddr: 0x818C, symBinAddr: 0x1505C, symSize: 0x18C }
  - { offset: 0x3ACA4, size: 0x8, addend: 0x0, symName: __RINvNtNtCs6IAuOt8vWmF_3syn3gen4fold15fold_expr_tupleNtNvCs2GZpXKFCdsl_11yoke_derive16replace_lifetime15ReplaceLifetimeEBS_, symObjAddr: 0x8318, symBinAddr: 0x151E8, symSize: 0x130 }
  - { offset: 0x3ACEB, size: 0x8, addend: 0x0, symName: __RINvNtNtCs6IAuOt8vWmF_3syn3gen4fold15fold_expr_unaryNtNvCs2GZpXKFCdsl_11yoke_derive16replace_lifetime15ReplaceLifetimeEBS_, symObjAddr: 0x8448, symBinAddr: 0x15318, symSize: 0x238 }
  - { offset: 0x3AD52, size: 0x8, addend: 0x0, symName: __RINvNtNtCs6IAuOt8vWmF_3syn3gen4fold15fold_expr_whileNtNvCs2GZpXKFCdsl_11yoke_derive16replace_lifetime15ReplaceLifetimeEBS_, symObjAddr: 0x8680, symBinAddr: 0x15550, symSize: 0x324 }
  - { offset: 0x3ADB8, size: 0x8, addend: 0x0, symName: __RINvNtNtCs6IAuOt8vWmF_3syn3gen4fold15fold_expr_yieldNtNvCs2GZpXKFCdsl_11yoke_derive16replace_lifetime15ReplaceLifetimeEBS_, symObjAddr: 0x89A4, symBinAddr: 0x15874, symSize: 0x108 }
  - { offset: 0x3ADFF, size: 0x8, addend: 0x0, symName: __RINvNtNtCs6IAuOt8vWmF_3syn3gen4fold15fold_item_constNtNvCs2GZpXKFCdsl_11yoke_derive16replace_lifetime15ReplaceLifetimeEBS_, symObjAddr: 0x8AAC, symBinAddr: 0x1597C, symSize: 0x554 }
  - { offset: 0x3AE85, size: 0x8, addend: 0x0, symName: __RINvNtNtCs6IAuOt8vWmF_3syn3gen4fold15fold_item_macroNtNvCs2GZpXKFCdsl_11yoke_derive16replace_lifetime15ReplaceLifetimeEBS_, symObjAddr: 0x9000, symBinAddr: 0x15ED0, symSize: 0x1B8 }
  - { offset: 0x3AECC, size: 0x8, addend: 0x0, symName: __RINvNtNtCs6IAuOt8vWmF_3syn3gen4fold15fold_item_traitNtNvCs2GZpXKFCdsl_11yoke_derive16replace_lifetime15ReplaceLifetimeEBS_, symObjAddr: 0x91B8, symBinAddr: 0x16088, symSize: 0x3C0 }
  - { offset: 0x3AF13, size: 0x8, addend: 0x0, symName: __RINvNtNtCs6IAuOt8vWmF_3syn3gen4fold15fold_item_unionNtNvCs2GZpXKFCdsl_11yoke_derive16replace_lifetime15ReplaceLifetimeEBS_, symObjAddr: 0x9578, symBinAddr: 0x16448, symSize: 0x2B8 }
  - { offset: 0x3AF5A, size: 0x8, addend: 0x0, symName: __RINvNtNtCs6IAuOt8vWmF_3syn3gen4fold15fold_local_initNtNvCs2GZpXKFCdsl_11yoke_derive16replace_lifetime15ReplaceLifetimeEBS_, symObjAddr: 0x9830, symBinAddr: 0x16700, symSize: 0x220 }
  - { offset: 0x3AFC0, size: 0x8, addend: 0x0, symName: __RINvNtNtCs6IAuOt8vWmF_3syn3gen4fold15fold_pat_structNtNvCs2GZpXKFCdsl_11yoke_derive16replace_lifetime15ReplaceLifetimeEBS_, symObjAddr: 0x9A50, symBinAddr: 0x16920, symSize: 0x2D0 }
  - { offset: 0x3B007, size: 0x8, addend: 0x0, symName: __RINvNtNtCs6IAuOt8vWmF_3syn3gen4fold15fold_stmt_macroNtNvCs2GZpXKFCdsl_11yoke_derive16replace_lifetime15ReplaceLifetimeEBS_, symObjAddr: 0x9D20, symBinAddr: 0x16BF0, symSize: 0x13C }
  - { offset: 0x3B04E, size: 0x8, addend: 0x0, symName: __RINvNtNtCs6IAuOt8vWmF_3syn3gen4fold15fold_trait_itemNtNvCs2GZpXKFCdsl_11yoke_derive16replace_lifetime15ReplaceLifetimeEBS_, symObjAddr: 0x9E5C, symBinAddr: 0x16D2C, symSize: 0x284 }
  - { offset: 0x3B128, size: 0x8, addend: 0x0, symName: __RINvNtNtCs6IAuOt8vWmF_3syn3gen4fold15fold_type_arrayNtNvCs2GZpXKFCdsl_11yoke_derive16replace_lifetime15ReplaceLifetimeEBS_, symObjAddr: 0xA0E0, symBinAddr: 0x16FB0, symSize: 0x22C }
  - { offset: 0x3B18E, size: 0x8, addend: 0x0, symName: __RINvNtNtCs6IAuOt8vWmF_3syn3gen4fold15fold_type_groupNtNvCs2GZpXKFCdsl_11yoke_derive16replace_lifetime15ReplaceLifetimeEBS_, symObjAddr: 0xA30C, symBinAddr: 0x171DC, symSize: 0x170 }
  - { offset: 0x3B1F3, size: 0x8, addend: 0x0, symName: __RINvNtNtCs6IAuOt8vWmF_3syn3gen4fold15fold_type_inferNtNvCs2GZpXKFCdsl_11yoke_derive16replace_lifetime15ReplaceLifetimeEBS_, symObjAddr: 0xA47C, symBinAddr: 0x1734C, symSize: 0x40 }
  - { offset: 0x3B239, size: 0x8, addend: 0x0, symName: __RINvNtNtCs6IAuOt8vWmF_3syn3gen4fold15fold_type_macroNtNvCs2GZpXKFCdsl_11yoke_derive16replace_lifetime15ReplaceLifetimeEBS_, symObjAddr: 0xA4BC, symBinAddr: 0x1738C, symSize: 0x78 }
  - { offset: 0x3B280, size: 0x8, addend: 0x0, symName: __RINvNtNtCs6IAuOt8vWmF_3syn3gen4fold15fold_type_neverNtNvCs2GZpXKFCdsl_11yoke_derive16replace_lifetime15ReplaceLifetimeEBS_, symObjAddr: 0xA534, symBinAddr: 0x17404, symSize: 0x40 }
  - { offset: 0x3B2C6, size: 0x8, addend: 0x0, symName: __RINvNtNtCs6IAuOt8vWmF_3syn3gen4fold15fold_type_paramNtNvCs2GZpXKFCdsl_11yoke_derive16replace_lifetime15ReplaceLifetimeEBS_, symObjAddr: 0xA574, symBinAddr: 0x17444, symSize: 0x24C }
  - { offset: 0x3B30D, size: 0x8, addend: 0x0, symName: __RINvNtNtCs6IAuOt8vWmF_3syn3gen4fold15fold_type_parenNtNvCs2GZpXKFCdsl_11yoke_derive16replace_lifetime15ReplaceLifetimeEBS_, symObjAddr: 0xA7C0, symBinAddr: 0x17690, symSize: 0x18C }
  - { offset: 0x3B373, size: 0x8, addend: 0x0, symName: __RINvNtNtCs6IAuOt8vWmF_3syn3gen4fold15fold_type_sliceNtNvCs2GZpXKFCdsl_11yoke_derive16replace_lifetime15ReplaceLifetimeEBS_, symObjAddr: 0xA94C, symBinAddr: 0x1781C, symSize: 0x18C }
  - { offset: 0x3B3D9, size: 0x8, addend: 0x0, symName: __RINvNtNtCs6IAuOt8vWmF_3syn3gen4fold15fold_type_tupleNtNvCs2GZpXKFCdsl_11yoke_derive16replace_lifetime15ReplaceLifetimeEBS_, symObjAddr: 0xAAD8, symBinAddr: 0x179A8, symSize: 0x90 }
  - { offset: 0x3B420, size: 0x8, addend: 0x0, symName: __RINvNtNtCs6IAuOt8vWmF_3syn3gen4fold15fold_use_renameNtNvCs2GZpXKFCdsl_11yoke_derive16replace_lifetime15ReplaceLifetimeEBS_, symObjAddr: 0xAB68, symBinAddr: 0x17A38, symSize: 0x120 }
  - { offset: 0x3B467, size: 0x8, addend: 0x0, symName: __RINvNtNtCs6IAuOt8vWmF_3syn3gen4fold15fold_visibilityNtNvCs2GZpXKFCdsl_11yoke_derive16replace_lifetime15ReplaceLifetimeEBS_, symObjAddr: 0xAC88, symBinAddr: 0x17B58, symSize: 0x100 }
  - { offset: 0x3B4EA, size: 0x8, addend: 0x0, symName: __RINvNtNtCs6IAuOt8vWmF_3syn3gen4fold16fold_assoc_constNtNvCs2GZpXKFCdsl_11yoke_derive16replace_lifetime15ReplaceLifetimeEBT_, symObjAddr: 0xAD88, symBinAddr: 0x17C58, symSize: 0x1B4 }
  - { offset: 0x3B531, size: 0x8, addend: 0x0, symName: __RINvNtNtCs6IAuOt8vWmF_3syn3gen4fold16fold_bare_fn_argNtNvCs2GZpXKFCdsl_11yoke_derive16replace_lifetime15ReplaceLifetimeEBT_, symObjAddr: 0xAF3C, symBinAddr: 0x17E0C, symSize: 0x19C }
  - { offset: 0x3B578, size: 0x8, addend: 0x0, symName: __RINvNtNtCs6IAuOt8vWmF_3syn3gen4fold16fold_const_paramNtNvCs2GZpXKFCdsl_11yoke_derive16replace_lifetime15ReplaceLifetimeEBT_, symObjAddr: 0xB0D8, symBinAddr: 0x17FA8, symSize: 0x250 }
  - { offset: 0x3B5BF, size: 0x8, addend: 0x0, symName: __RINvNtNtCs6IAuOt8vWmF_3syn3gen4fold16fold_expr_assignNtNvCs2GZpXKFCdsl_11yoke_derive16replace_lifetime15ReplaceLifetimeEBT_, symObjAddr: 0xB328, symBinAddr: 0x181F8, symSize: 0x398 }
  - { offset: 0x3B645, size: 0x8, addend: 0x0, symName: __RINvNtNtCs6IAuOt8vWmF_3syn3gen4fold16fold_expr_binaryNtNvCs2GZpXKFCdsl_11yoke_derive16replace_lifetime15ReplaceLifetimeEBT_, symObjAddr: 0xB6C0, symBinAddr: 0x18590, symSize: 0x3C0 }
  - { offset: 0x3B6CB, size: 0x8, addend: 0x0, symName: __RINvNtNtCs6IAuOt8vWmF_3syn3gen4fold16fold_expr_repeatNtNvCs2GZpXKFCdsl_11yoke_derive16replace_lifetime15ReplaceLifetimeEBT_, symObjAddr: 0xBA80, symBinAddr: 0x18950, symSize: 0x3B8 }
  - { offset: 0x3B751, size: 0x8, addend: 0x0, symName: __RINvNtNtCs6IAuOt8vWmF_3syn3gen4fold16fold_expr_returnNtNvCs2GZpXKFCdsl_11yoke_derive16replace_lifetime15ReplaceLifetimeEBT_, symObjAddr: 0xBE38, symBinAddr: 0x18D08, symSize: 0x108 }
  - { offset: 0x3B798, size: 0x8, addend: 0x0, symName: __RINvNtNtCs6IAuOt8vWmF_3syn3gen4fold16fold_expr_structNtNvCs2GZpXKFCdsl_11yoke_derive16replace_lifetime15ReplaceLifetimeEBT_, symObjAddr: 0xBF40, symBinAddr: 0x18E10, symSize: 0x2D4 }
  - { offset: 0x3B7DF, size: 0x8, addend: 0x0, symName: __RINvNtNtCs6IAuOt8vWmF_3syn3gen4fold16fold_expr_unsafeNtNvCs2GZpXKFCdsl_11yoke_derive16replace_lifetime15ReplaceLifetimeEBT_, symObjAddr: 0xC214, symBinAddr: 0x190E4, symSize: 0x12C }
  - { offset: 0x3B826, size: 0x8, addend: 0x0, symName: __RINvNtNtCs6IAuOt8vWmF_3syn3gen4fold16fold_field_valueNtNvCs2GZpXKFCdsl_11yoke_derive16replace_lifetime15ReplaceLifetimeEBT_, symObjAddr: 0xC340, symBinAddr: 0x19210, symSize: 0x1A4 }
  - { offset: 0x3B86D, size: 0x8, addend: 0x0, symName: __RINvNtNtCs6IAuOt8vWmF_3syn3gen4fold16fold_item_staticNtNvCs2GZpXKFCdsl_11yoke_derive16replace_lifetime15ReplaceLifetimeEBT_, symObjAddr: 0xC4E4, symBinAddr: 0x193B4, symSize: 0x4F4 }
  - { offset: 0x3B8F3, size: 0x8, addend: 0x0, symName: __RINvNtNtCs6IAuOt8vWmF_3syn3gen4fold16fold_item_structNtNvCs2GZpXKFCdsl_11yoke_derive16replace_lifetime15ReplaceLifetimeEBT_, symObjAddr: 0xC9D8, symBinAddr: 0x198A8, symSize: 0x2C4 }
  - { offset: 0x3B93A, size: 0x8, addend: 0x0, symName: __RINvNtNtCs6IAuOt8vWmF_3syn3gen4fold16fold_return_typeNtNvCs2GZpXKFCdsl_11yoke_derive16replace_lifetime15ReplaceLifetimeEBT_, symObjAddr: 0xCC9C, symBinAddr: 0x19B6C, symSize: 0x1C0 }
  - { offset: 0x3B9C8, size: 0x8, addend: 0x0, symName: __RINvNtNtCs6IAuOt8vWmF_3syn3gen4fold16fold_trait_boundNtNvCs2GZpXKFCdsl_11yoke_derive16replace_lifetime15ReplaceLifetimeEBT_, symObjAddr: 0xCE5C, symBinAddr: 0x19D2C, symSize: 0x19C }
  - { offset: 0x3BA0F, size: 0x8, addend: 0x0, symName: __RINvNtNtCs6IAuOt8vWmF_3syn3gen4fold17fold_expr_closureNtNvCs2GZpXKFCdsl_11yoke_derive16replace_lifetime15ReplaceLifetimeEBU_, symObjAddr: 0xCFF8, symBinAddr: 0x19EC8, symSize: 0x420 }
  - { offset: 0x3BA75, size: 0x8, addend: 0x0, symName: __RINvNtNtCs6IAuOt8vWmF_3syn3gen4fold17fold_fields_namedNtNvCs2GZpXKFCdsl_11yoke_derive16replace_lifetime15ReplaceLifetimeEBU_, symObjAddr: 0xD418, symBinAddr: 0x1A2E8, symSize: 0x90 }
  - { offset: 0x3BABC, size: 0x8, addend: 0x0, symName: __RINvNtNtCs6IAuOt8vWmF_3syn3gen4fold17fold_foreign_itemNtNvCs2GZpXKFCdsl_11yoke_derive16replace_lifetime15ReplaceLifetimeEBU_, symObjAddr: 0xD4A8, symBinAddr: 0x1A378, symSize: 0x284 }
  - { offset: 0x3BB96, size: 0x8, addend: 0x0, symName: __RINvNtNtCs6IAuOt8vWmF_3syn3gen4fold17fold_impl_item_fnNtNvCs2GZpXKFCdsl_11yoke_derive16replace_lifetime15ReplaceLifetimeEBU_, symObjAddr: 0xD72C, symBinAddr: 0x1A5FC, symSize: 0x248 }
  - { offset: 0x3BBDD, size: 0x8, addend: 0x0, symName: __RINvNtNtCs6IAuOt8vWmF_3syn3gen4fold17fold_lit_byte_strNtNvCs2GZpXKFCdsl_11yoke_derive16replace_lifetime15ReplaceLifetimeEBU_, symObjAddr: 0xD974, symBinAddr: 0x1A844, symSize: 0xDC }
  - { offset: 0x3BC57, size: 0x8, addend: 0x0, symName: __RINvNtNtCs6IAuOt8vWmF_3syn3gen4fold17fold_path_segmentNtNvCs2GZpXKFCdsl_11yoke_derive16replace_lifetime15ReplaceLifetimeEBU_, symObjAddr: 0xDA50, symBinAddr: 0x1A920, symSize: 0x118 }
  - { offset: 0x3BC9E, size: 0x8, addend: 0x0, symName: __RINvNtNtCs6IAuOt8vWmF_3syn3gen4fold17fold_range_limitsNtNvCs2GZpXKFCdsl_11yoke_derive16replace_lifetime15ReplaceLifetimeEBU_, symObjAddr: 0xDB68, symBinAddr: 0x1AA38, symSize: 0x9C }
  - { offset: 0x3BD21, size: 0x8, addend: 0x0, symName: __RINvNtNtCs6IAuOt8vWmF_3syn3gen4fold17fold_type_bare_fnNtNvCs2GZpXKFCdsl_11yoke_derive16replace_lifetime15ReplaceLifetimeEBU_, symObjAddr: 0xDC04, symBinAddr: 0x1AAD4, symSize: 0x2FC }
  - { offset: 0x3BD68, size: 0x8, addend: 0x0, symName: __RINvNtNtCs6IAuOt8vWmF_3syn3gen4fold17fold_where_clauseNtNvCs2GZpXKFCdsl_11yoke_derive16replace_lifetime15ReplaceLifetimeEBU_, symObjAddr: 0xDF00, symBinAddr: 0x1ADD0, symSize: 0x80 }
  - { offset: 0x3BDAF, size: 0x8, addend: 0x0, symName: __RINvNtNtCs6IAuOt8vWmF_3syn3gen4fold18fold_bare_variadicNtNvCs2GZpXKFCdsl_11yoke_derive16replace_lifetime15ReplaceLifetimeEBV_, symObjAddr: 0xDF80, symBinAddr: 0x1AE50, symSize: 0x144 }
  - { offset: 0x3BDF6, size: 0x8, addend: 0x0, symName: __RINvNtNtCs6IAuOt8vWmF_3syn3gen4fold18fold_expr_continueNtNvCs2GZpXKFCdsl_11yoke_derive16replace_lifetime15ReplaceLifetimeEBV_, symObjAddr: 0xE0C4, symBinAddr: 0x1AF94, symSize: 0x120 }
  - { offset: 0x3BE3D, size: 0x8, addend: 0x0, symName: __RINvNtNtCs6IAuOt8vWmF_3syn3gen4fold18fold_expr_for_loopNtNvCs2GZpXKFCdsl_11yoke_derive16replace_lifetime15ReplaceLifetimeEBV_, symObjAddr: 0xE1E4, symBinAddr: 0x1B0B4, symSize: 0x4C4 }
  - { offset: 0x3BEC3, size: 0x8, addend: 0x0, symName: __RINvNtNtCs6IAuOt8vWmF_3syn3gen4fold18fold_expr_raw_addrNtNvCs2GZpXKFCdsl_11yoke_derive16replace_lifetime15ReplaceLifetimeEBV_, symObjAddr: 0xE6A8, symBinAddr: 0x1B578, symSize: 0x248 }
  - { offset: 0x3BF29, size: 0x8, addend: 0x0, symName: __RINvNtNtCs6IAuOt8vWmF_3syn3gen4fold18fold_generic_paramNtNvCs2GZpXKFCdsl_11yoke_derive16replace_lifetime15ReplaceLifetimeEBV_, symObjAddr: 0xE8F0, symBinAddr: 0x1B7C0, symSize: 0x194 }
  - { offset: 0x3BFC5, size: 0x8, addend: 0x0, symName: __RINvNtNtCs6IAuOt8vWmF_3syn3gen4fold18fold_pat_referenceNtNvCs2GZpXKFCdsl_11yoke_derive16replace_lifetime15ReplaceLifetimeEBV_, symObjAddr: 0xEA84, symBinAddr: 0x1B954, symSize: 0x228 }
  - { offset: 0x3C02B, size: 0x8, addend: 0x0, symName: __RINvNtNtCs6IAuOt8vWmF_3syn3gen4fold18fold_trait_item_fnNtNvCs2GZpXKFCdsl_11yoke_derive16replace_lifetime15ReplaceLifetimeEBV_, symObjAddr: 0xECAC, symBinAddr: 0x1BB7C, symSize: 0x1BC }
  - { offset: 0x3C072, size: 0x8, addend: 0x0, symName: __RINvNtNtCs6IAuOt8vWmF_3syn3gen4fold19fold_captured_paramNtNvCs2GZpXKFCdsl_11yoke_derive16replace_lifetime15ReplaceLifetimeEBW_, symObjAddr: 0xEE68, symBinAddr: 0x1BD38, symSize: 0xE0 }
  - { offset: 0x3C0ED, size: 0x8, addend: 0x0, symName: __RINvNtNtCs6IAuOt8vWmF_3syn3gen4fold19fold_expr_referenceNtNvCs2GZpXKFCdsl_11yoke_derive16replace_lifetime15ReplaceLifetimeEBW_, symObjAddr: 0xEF48, symBinAddr: 0x1BE18, symSize: 0x228 }
  - { offset: 0x3C153, size: 0x8, addend: 0x0, symName: __RINvNtNtCs6IAuOt8vWmF_3syn3gen4fold19fold_expr_try_blockNtNvCs2GZpXKFCdsl_11yoke_derive16replace_lifetime15ReplaceLifetimeEBW_, symObjAddr: 0xF170, symBinAddr: 0x1C040, symSize: 0x12C }
  - { offset: 0x3C19A, size: 0x8, addend: 0x0, symName: __RINvNtNtCs6IAuOt8vWmF_3syn3gen4fold19fold_fields_unnamedNtNvCs2GZpXKFCdsl_11yoke_derive16replace_lifetime15ReplaceLifetimeEBW_, symObjAddr: 0xF29C, symBinAddr: 0x1C16C, symSize: 0x90 }
  - { offset: 0x3C1E1, size: 0x8, addend: 0x0, symName: __RINvNtNtCs6IAuOt8vWmF_3syn3gen4fold19fold_impl_item_typeNtNvCs2GZpXKFCdsl_11yoke_derive16replace_lifetime15ReplaceLifetimeEBW_, symObjAddr: 0xF32C, symBinAddr: 0x1C1FC, symSize: 0x304 }
  - { offset: 0x3C228, size: 0x8, addend: 0x0, symName: __RINvNtNtCs6IAuOt8vWmF_3syn3gen4fold19fold_lifetime_paramNtNvCs2GZpXKFCdsl_11yoke_derive16replace_lifetime15ReplaceLifetimeEBW_, symObjAddr: 0xF630, symBinAddr: 0x1C500, symSize: 0x1B4 }
  - { offset: 0x3C26F, size: 0x8, addend: 0x0, symName: __RINvNtNtCs6IAuOt8vWmF_3syn3gen4fold19fold_path_argumentsNtNvCs2GZpXKFCdsl_11yoke_derive16replace_lifetime15ReplaceLifetimeEBW_, symObjAddr: 0xF7E4, symBinAddr: 0x1C6B4, symSize: 0x14C }
  - { offset: 0x3C2EC, size: 0x8, addend: 0x0, symName: __RINvNtNtCs6IAuOt8vWmF_3syn3gen4fold19fold_predicate_typeNtNvCs2GZpXKFCdsl_11yoke_derive16replace_lifetime15ReplaceLifetimeEBW_, symObjAddr: 0xF930, symBinAddr: 0x1C800, symSize: 0x1C4 }
  - { offset: 0x3C333, size: 0x8, addend: 0x0, symName: __RINvNtNtCs6IAuOt8vWmF_3syn3gen4fold19fold_type_referenceNtNvCs2GZpXKFCdsl_11yoke_derive16replace_lifetime15ReplaceLifetimeEBW_, symObjAddr: 0xFAF4, symBinAddr: 0x1C9C4, symSize: 0x248 }
  - { offset: 0x3C399, size: 0x8, addend: 0x0, symName: __RINvNtNtCs6IAuOt8vWmF_3syn3gen4fold19fold_vis_restrictedNtNvCs2GZpXKFCdsl_11yoke_derive16replace_lifetime15ReplaceLifetimeEBW_, symObjAddr: 0xFD3C, symBinAddr: 0x1CC0C, symSize: 0x1C4 }
  - { offset: 0x3C3FF, size: 0x8, addend: 0x0, symName: __RINvNtNtCs6IAuOt8vWmF_3syn3gen4fold20fold_bound_lifetimesNtNvCs2GZpXKFCdsl_11yoke_derive16replace_lifetime15ReplaceLifetimeEBX_, symObjAddr: 0xFF00, symBinAddr: 0x1CDD0, symSize: 0xA8 }
  - { offset: 0x3C446, size: 0x8, addend: 0x0, symName: __RINvNtNtCs6IAuOt8vWmF_3syn3gen4fold20fold_foreign_item_fnNtNvCs2GZpXKFCdsl_11yoke_derive16replace_lifetime15ReplaceLifetimeEBX_, symObjAddr: 0xFFA8, symBinAddr: 0x1CE78, symSize: 0x1B4 }
  - { offset: 0x3C48D, size: 0x8, addend: 0x0, symName: __RINvNtNtCs6IAuOt8vWmF_3syn3gen4fold20fold_impl_item_constNtNvCs2GZpXKFCdsl_11yoke_derive16replace_lifetime15ReplaceLifetimeEBX_, symObjAddr: 0x1015C, symBinAddr: 0x1D02C, symSize: 0x3A4 }
  - { offset: 0x3C4D4, size: 0x8, addend: 0x0, symName: __RINvNtNtCs6IAuOt8vWmF_3syn3gen4fold20fold_impl_item_macroNtNvCs2GZpXKFCdsl_11yoke_derive16replace_lifetime15ReplaceLifetimeEBX_, symObjAddr: 0x10500, symBinAddr: 0x1D3D0, symSize: 0x13C }
  - { offset: 0x3C51B, size: 0x8, addend: 0x0, symName: __RINvNtNtCs6IAuOt8vWmF_3syn3gen4fold20fold_macro_delimiterNtNvCs2GZpXKFCdsl_11yoke_derive16replace_lifetime15ReplaceLifetimeEBX_, symObjAddr: 0x1063C, symBinAddr: 0x1D50C, symSize: 0x10C }
  - { offset: 0x3C5BD, size: 0x8, addend: 0x0, symName: __RINvNtNtCs6IAuOt8vWmF_3syn3gen4fold20fold_meta_name_valueNtNvCs2GZpXKFCdsl_11yoke_derive16replace_lifetime15ReplaceLifetimeEBX_, symObjAddr: 0x10748, symBinAddr: 0x1D618, symSize: 0x134 }
  - { offset: 0x3C604, size: 0x8, addend: 0x0, symName: __RINvNtNtCs6IAuOt8vWmF_3syn3gen4fold20fold_precise_captureNtNvCs2GZpXKFCdsl_11yoke_derive16replace_lifetime15ReplaceLifetimeEBX_, symObjAddr: 0x1087C, symBinAddr: 0x1D74C, symSize: 0xA8 }
  - { offset: 0x3C64B, size: 0x8, addend: 0x0, symName: __RINvNtNtCs6IAuOt8vWmF_3syn3gen4fold20fold_trait_item_typeNtNvCs2GZpXKFCdsl_11yoke_derive16replace_lifetime15ReplaceLifetimeEBX_, symObjAddr: 0x10924, symBinAddr: 0x1D7F4, symSize: 0x2EC }
  - { offset: 0x3C692, size: 0x8, addend: 0x0, symName: __RINvNtNtCs6IAuOt8vWmF_3syn3gen4fold20fold_type_impl_traitNtNvCs2GZpXKFCdsl_11yoke_derive16replace_lifetime15ReplaceLifetimeEBX_, symObjAddr: 0x10C10, symBinAddr: 0x1DAE0, symSize: 0x80 }
  - { offset: 0x3C6D9, size: 0x8, addend: 0x0, symName: __RINvNtNtCs6IAuOt8vWmF_3syn3gen4fold20fold_where_predicateNtNvCs2GZpXKFCdsl_11yoke_derive16replace_lifetime15ReplaceLifetimeEBX_, symObjAddr: 0x10C90, symBinAddr: 0x1DB60, symSize: 0x104 }
  - { offset: 0x3C756, size: 0x8, addend: 0x0, symName: __RINvNtNtCs6IAuOt8vWmF_3syn3gen4fold21fold_expr_method_callNtNvCs2GZpXKFCdsl_11yoke_derive16replace_lifetime15ReplaceLifetimeEBY_, symObjAddr: 0x10D94, symBinAddr: 0x1DC64, symSize: 0x3CC }
  - { offset: 0x3C7BC, size: 0x8, addend: 0x0, symName: __RINvNtNtCs6IAuOt8vWmF_3syn3gen4fold21fold_field_mutabilityNtNvCs2GZpXKFCdsl_11yoke_derive16replace_lifetime15ReplaceLifetimeEBY_, symObjAddr: 0x11160, symBinAddr: 0x1E030, symSize: 0x20 }
  - { offset: 0x3C80A, size: 0x8, addend: 0x0, symName: __RINvNtNtCs6IAuOt8vWmF_3syn3gen4fold21fold_generic_argumentNtNvCs2GZpXKFCdsl_11yoke_derive16replace_lifetime15ReplaceLifetimeEBY_, symObjAddr: 0x11180, symBinAddr: 0x1E050, symSize: 0x2F4 }
  - { offset: 0x3C903, size: 0x8, addend: 0x0, symName: __RINvNtNtCs6IAuOt8vWmF_3syn3gen4fold21fold_item_foreign_modNtNvCs2GZpXKFCdsl_11yoke_derive16replace_lifetime15ReplaceLifetimeEBY_, symObjAddr: 0x11480, symBinAddr: 0x1E344, symSize: 0x1D4 }
  - { offset: 0x3C94A, size: 0x8, addend: 0x0, symName: __RINvNtNtCs6IAuOt8vWmF_3syn3gen4fold21fold_item_trait_aliasNtNvCs2GZpXKFCdsl_11yoke_derive16replace_lifetime15ReplaceLifetimeEBY_, symObjAddr: 0x11654, symBinAddr: 0x1E518, symSize: 0x2E4 }
  - { offset: 0x3C991, size: 0x8, addend: 0x0, symName: __RINvNtNtCs6IAuOt8vWmF_3syn3gen4fold21fold_pat_tuple_structNtNvCs2GZpXKFCdsl_11yoke_derive16replace_lifetime15ReplaceLifetimeEBY_, symObjAddr: 0x11938, symBinAddr: 0x1E7FC, symSize: 0x250 }
  - { offset: 0x3C9D8, size: 0x8, addend: 0x0, symName: __RINvNtNtCs6IAuOt8vWmF_3syn3gen4fold21fold_trait_item_constNtNvCs2GZpXKFCdsl_11yoke_derive16replace_lifetime15ReplaceLifetimeEBY_, symObjAddr: 0x11B88, symBinAddr: 0x1EA4C, symSize: 0x2F8 }
  - { offset: 0x3CA1F, size: 0x8, addend: 0x0, symName: __RINvNtNtCs6IAuOt8vWmF_3syn3gen4fold21fold_trait_item_macroNtNvCs2GZpXKFCdsl_11yoke_derive16replace_lifetime15ReplaceLifetimeEBY_, symObjAddr: 0x11E80, symBinAddr: 0x1ED44, symSize: 0x13C }
  - { offset: 0x3CA66, size: 0x8, addend: 0x0, symName: __RINvNtNtCs6IAuOt8vWmF_3syn3gen4fold21fold_type_param_boundNtNvCs2GZpXKFCdsl_11yoke_derive16replace_lifetime15ReplaceLifetimeEBY_, symObjAddr: 0x11FBC, symBinAddr: 0x1EE80, symSize: 0x1F8 }
  - { offset: 0x3CB21, size: 0x8, addend: 0x0, symName: __RINvNtNtCs6IAuOt8vWmF_3syn3gen4fold22fold_foreign_item_typeNtNvCs2GZpXKFCdsl_11yoke_derive16replace_lifetime15ReplaceLifetimeEBZ_, symObjAddr: 0x121B4, symBinAddr: 0x1F078, symSize: 0x244 }
  - { offset: 0x3CB68, size: 0x8, addend: 0x0, symName: __RINvNtNtCs6IAuOt8vWmF_3syn3gen4fold22fold_item_extern_crateNtNvCs2GZpXKFCdsl_11yoke_derive16replace_lifetime15ReplaceLifetimeEBZ_, symObjAddr: 0x123F8, symBinAddr: 0x1F2BC, symSize: 0x258 }
  - { offset: 0x3CBAF, size: 0x8, addend: 0x0, symName: __RINvNtNtCs6IAuOt8vWmF_3syn3gen4fold22fold_static_mutabilityNtNvCs2GZpXKFCdsl_11yoke_derive16replace_lifetime15ReplaceLifetimeEBZ_, symObjAddr: 0x12650, symBinAddr: 0x1F514, symSize: 0x70 }
  - { offset: 0x3CC13, size: 0x8, addend: 0x0, symName: __RINvNtNtCs6IAuOt8vWmF_3syn3gen4fold22fold_type_trait_objectNtNvCs2GZpXKFCdsl_11yoke_derive16replace_lifetime15ReplaceLifetimeEBZ_, symObjAddr: 0x126C0, symBinAddr: 0x1F584, symSize: 0x90 }
  - { offset: 0x3CC5A, size: 0x8, addend: 0x0, symName: __RINvNtNtCs6IAuOt8vWmF_3syn3gen4fold23fold_foreign_item_macroNtNvCs2GZpXKFCdsl_11yoke_derive16replace_lifetime15ReplaceLifetimeEB10_, symObjAddr: 0x12750, symBinAddr: 0x1F614, symSize: 0x13C }
  - { offset: 0x3CCA1, size: 0x8, addend: 0x0, symName: __RINvNtNtCs6IAuOt8vWmF_3syn3gen4fold23fold_pointer_mutabilityNtNvCs2GZpXKFCdsl_11yoke_derive16replace_lifetime15ReplaceLifetimeEB10_, symObjAddr: 0x1288C, symBinAddr: 0x1F750, symSize: 0x7C }
  - { offset: 0x3CD23, size: 0x8, addend: 0x0, symName: __RINvNtNtCs6IAuOt8vWmF_3syn3gen4fold23fold_predicate_lifetimeNtNvCs2GZpXKFCdsl_11yoke_derive16replace_lifetime15ReplaceLifetimeEB10_, symObjAddr: 0x12908, symBinAddr: 0x1F7CC, symSize: 0x11C }
  - { offset: 0x3CD6A, size: 0x8, addend: 0x0, symName: __RINvNtNtCs6IAuOt8vWmF_3syn3gen4fold24fold_foreign_item_staticNtNvCs2GZpXKFCdsl_11yoke_derive16replace_lifetime15ReplaceLifetimeEB11_, symObjAddr: 0x12A24, symBinAddr: 0x1F8E8, symSize: 0x350 }
  - { offset: 0x3CDD0, size: 0x8, addend: 0x0, symName: __RINvNtNtCs6IAuOt8vWmF_3syn3gen4fold25fold_trait_bound_modifierNtNvCs2GZpXKFCdsl_11yoke_derive16replace_lifetime15ReplaceLifetimeEB12_, symObjAddr: 0x12D74, symBinAddr: 0x1FC38, symSize: 0x74 }
  - { offset: 0x3CE34, size: 0x8, addend: 0x0, symName: __RINvNtNtCs6IAuOt8vWmF_3syn3gen4fold36fold_parenthesized_generic_argumentsNtNvCs2GZpXKFCdsl_11yoke_derive16replace_lifetime15ReplaceLifetimeEB1d_, symObjAddr: 0x12DE8, symBinAddr: 0x1FCAC, symSize: 0x124 }
  - { offset: 0x3CE7B, size: 0x8, addend: 0x0, symName: __RINvNtNtCs6IAuOt8vWmF_3syn3gen4fold38fold_angle_bracketed_generic_argumentsNtNvCs2GZpXKFCdsl_11yoke_derive16replace_lifetime15ReplaceLifetimeEB1f_, symObjAddr: 0x12F0C, symBinAddr: 0x1FDD0, symSize: 0xB8 }
  - { offset: 0x3CEC2, size: 0x8, addend: 0x0, symName: __RINvNtNtCs6IAuOt8vWmF_3syn3gen4fold8fold_abiNtNvCs2GZpXKFCdsl_11yoke_derive16replace_lifetime15ReplaceLifetimeEBK_, symObjAddr: 0x12FC4, symBinAddr: 0x1FE88, symSize: 0x54 }
  - { offset: 0x3CF08, size: 0x8, addend: 0x0, symName: __RINvNtNtCs6IAuOt8vWmF_3syn3gen4fold8fold_armNtNvCs2GZpXKFCdsl_11yoke_derive16replace_lifetime15ReplaceLifetimeEBK_, symObjAddr: 0x13018, symBinAddr: 0x1FEDC, symSize: 0x32C }
  - { offset: 0x3CF6E, size: 0x8, addend: 0x0, symName: __RINvNtNtCs6IAuOt8vWmF_3syn3gen4fold8fold_litNtNvCs2GZpXKFCdsl_11yoke_derive16replace_lifetime15ReplaceLifetimeEBK_, symObjAddr: 0x13344, symBinAddr: 0x20208, symSize: 0x318 }
  - { offset: 0x3D0BC, size: 0x8, addend: 0x0, symName: __RINvNtNtCs6IAuOt8vWmF_3syn3gen4fold8fold_patNtNvCs2GZpXKFCdsl_11yoke_derive16replace_lifetime15ReplaceLifetimeEBK_, symObjAddr: 0x1365C, symBinAddr: 0x20520, symSize: 0x780 }
  - { offset: 0x3D30A, size: 0x8, addend: 0x0, symName: __RINvNtNtCs6IAuOt8vWmF_3syn3gen4fold8fold_vecNtNtB6_4attr9AttributeNtNvCs2GZpXKFCdsl_11yoke_derive16replace_lifetime15ReplaceLifetimeNvYB12_NtB2_4Fold14fold_attributeEB16_, symObjAddr: 0x13DDC, symBinAddr: 0x20CA0, symSize: 0x80 }
  - { offset: 0x3D372, size: 0x8, addend: 0x0, symName: __RINvNtNtCs6IAuOt8vWmF_3syn3gen4fold8fold_vecNtNtB6_4expr3ArmNtNvCs2GZpXKFCdsl_11yoke_derive16replace_lifetime15ReplaceLifetimeNvYBW_NtB2_4Fold8fold_armEB10_, symObjAddr: 0x13E5C, symBinAddr: 0x20D20, symSize: 0x80 }
  - { offset: 0x3D3DA, size: 0x8, addend: 0x0, symName: __RINvNtNtCs6IAuOt8vWmF_3syn3gen4fold8fold_vecNtNtB6_4item11ForeignItemNtNvCs2GZpXKFCdsl_11yoke_derive16replace_lifetime15ReplaceLifetimeNvYB15_NtB2_4Fold17fold_foreign_itemEB19_, symObjAddr: 0x13EDC, symBinAddr: 0x20DA0, symSize: 0x80 }
  - { offset: 0x3D442, size: 0x8, addend: 0x0, symName: __RINvNtNtCs6IAuOt8vWmF_3syn3gen4fold8fold_vecNtNtB6_4item4ItemNtNvCs2GZpXKFCdsl_11yoke_derive16replace_lifetime15ReplaceLifetimeNvYBX_NtB2_4Fold9fold_itemEB11_, symObjAddr: 0x13F5C, symBinAddr: 0x20E20, symSize: 0x80 }
  - { offset: 0x3D4AA, size: 0x8, addend: 0x0, symName: __RINvNtNtCs6IAuOt8vWmF_3syn3gen4fold8fold_vecNtNtB6_4item8ImplItemNtNvCs2GZpXKFCdsl_11yoke_derive16replace_lifetime15ReplaceLifetimeNvYB11_NtB2_4Fold14fold_impl_itemEB15_, symObjAddr: 0x13FDC, symBinAddr: 0x20EA0, symSize: 0x80 }
  - { offset: 0x3D512, size: 0x8, addend: 0x0, symName: __RINvNtNtCs6IAuOt8vWmF_3syn3gen4fold8fold_vecNtNtB6_4item9TraitItemNtNvCs2GZpXKFCdsl_11yoke_derive16replace_lifetime15ReplaceLifetimeNvYB12_NtB2_4Fold15fold_trait_itemEB16_, symObjAddr: 0x1405C, symBinAddr: 0x20F20, symSize: 0x80 }
  - { offset: 0x3D57A, size: 0x8, addend: 0x0, symName: __RINvNtNtCs6IAuOt8vWmF_3syn3gen4fold8fold_vecNtNtB6_4stmt4StmtNtNvCs2GZpXKFCdsl_11yoke_derive16replace_lifetime15ReplaceLifetimeNvYBX_NtB2_4Fold9fold_stmtEB11_, symObjAddr: 0x140DC, symBinAddr: 0x20FA0, symSize: 0x80 }
  - { offset: 0x3D5E2, size: 0x8, addend: 0x0, symName: __RINvNtNtCs6IAuOt8vWmF_3syn3gen4fold9fold_exprNtNvCs2GZpXKFCdsl_11yoke_derive16replace_lifetime15ReplaceLifetimeEBL_, symObjAddr: 0x1415C, symBinAddr: 0x21020, symSize: 0x11B4 }
  - { offset: 0x3DAF9, size: 0x8, addend: 0x0, symName: __RINvNtNtCs6IAuOt8vWmF_3syn3gen4fold9fold_itemNtNvCs2GZpXKFCdsl_11yoke_derive16replace_lifetime15ReplaceLifetimeEBL_, symObjAddr: 0x15310, symBinAddr: 0x221D4, symSize: 0x744 }
  - { offset: 0x3DD28, size: 0x8, addend: 0x0, symName: __RINvNtNtCs6IAuOt8vWmF_3syn3gen4fold9fold_metaNtNvCs2GZpXKFCdsl_11yoke_derive16replace_lifetime15ReplaceLifetimeEBL_, symObjAddr: 0x15A54, symBinAddr: 0x22918, symSize: 0x190 }
  - { offset: 0x3DDC4, size: 0x8, addend: 0x0, symName: __RINvNtNtCs6IAuOt8vWmF_3syn3gen4fold9fold_pathNtNvCs2GZpXKFCdsl_11yoke_derive16replace_lifetime15ReplaceLifetimeEBL_, symObjAddr: 0x15BE4, symBinAddr: 0x22AA8, symSize: 0x90 }
  - { offset: 0x3DE0B, size: 0x8, addend: 0x0, symName: __RINvNtNtCs6IAuOt8vWmF_3syn3gen4fold9fold_stmtNtNvCs2GZpXKFCdsl_11yoke_derive16replace_lifetime15ReplaceLifetimeEBL_, symObjAddr: 0x15C74, symBinAddr: 0x22B38, symSize: 0x220 }
  - { offset: 0x3DED7, size: 0x8, addend: 0x0, symName: __RINvNtNtCs6IAuOt8vWmF_3syn3gen4fold9fold_typeNtNvCs2GZpXKFCdsl_11yoke_derive16replace_lifetime15ReplaceLifetimeEBL_, symObjAddr: 0x15E94, symBinAddr: 0x22D58, symSize: 0x61C }
  - { offset: 0x3E0EB, size: 0x8, addend: 0x0, symName: __RNCINvNtNtCs6IAuOt8vWmF_3syn3gen4fold10fold_fieldNtNvCs2GZpXKFCdsl_11yoke_derive16replace_lifetime15ReplaceLifetimeE0BP_, symObjAddr: 0x164B0, symBinAddr: 0x23374, symSize: 0x34 }
  - { offset: 0x3E13A, size: 0x8, addend: 0x0, symName: __RNCINvNtNtCs6IAuOt8vWmF_3syn3gen4fold10fold_localNtNvCs2GZpXKFCdsl_11yoke_derive16replace_lifetime15ReplaceLifetimeE0BP_, symObjAddr: 0x164E4, symBinAddr: 0x233A8, symSize: 0x34 }
  - { offset: 0x3E189, size: 0x8, addend: 0x0, symName: __RNCINvNtNtCs6IAuOt8vWmF_3syn3gen4fold12fold_expr_ifNtNvCs2GZpXKFCdsl_11yoke_derive16replace_lifetime15ReplaceLifetimeE0BR_, symObjAddr: 0x16518, symBinAddr: 0x233DC, symSize: 0x17C }
  - { offset: 0x3E1F7, size: 0x8, addend: 0x0, symName: __RNCINvNtNtCs6IAuOt8vWmF_3syn3gen4fold12fold_variantNtNvCs2GZpXKFCdsl_11yoke_derive16replace_lifetime15ReplaceLifetimeE0BR_, symObjAddr: 0x16694, symBinAddr: 0x23558, symSize: 0x94 }
  - { offset: 0x3E246, size: 0x8, addend: 0x0, symName: __RNCINvNtNtCs6IAuOt8vWmF_3syn3gen4fold13fold_genericsNtNvCs2GZpXKFCdsl_11yoke_derive16replace_lifetime15ReplaceLifetimeE0BS_, symObjAddr: 0x16728, symBinAddr: 0x235EC, symSize: 0x34 }
  - { offset: 0x3E295, size: 0x8, addend: 0x0, symName: __RNCINvNtNtCs6IAuOt8vWmF_3syn3gen4fold13fold_item_modNtNvCs2GZpXKFCdsl_11yoke_derive16replace_lifetime15ReplaceLifetimeE0BS_, symObjAddr: 0x1675C, symBinAddr: 0x23620, symSize: 0x84 }
  - { offset: 0x3E2E4, size: 0x8, addend: 0x0, symName: __RNCINvNtNtCs6IAuOt8vWmF_3syn3gen4fold13fold_receiverNtNvCs2GZpXKFCdsl_11yoke_derive16replace_lifetime15ReplaceLifetimeE0BS_, symObjAddr: 0x167E0, symBinAddr: 0x236A4, symSize: 0x74 }
  - { offset: 0x3E332, size: 0x8, addend: 0x0, symName: __RNCNCINvNtNtCs6IAuOt8vWmF_3syn3gen4fold13fold_receiverNtNvCs2GZpXKFCdsl_11yoke_derive16replace_lifetime15ReplaceLifetimeE00BU_, symObjAddr: 0x183B0, symBinAddr: 0x2524C, symSize: 0x34 }
  - { offset: 0x3E382, size: 0x8, addend: 0x0, symName: __RNCINvNtNtCs6IAuOt8vWmF_3syn3gen4fold13fold_variadicNtNvCs2GZpXKFCdsl_11yoke_derive16replace_lifetime15ReplaceLifetimeE0BS_, symObjAddr: 0x16854, symBinAddr: 0x23718, symSize: 0x180 }
  - { offset: 0x3E3F1, size: 0x8, addend: 0x0, symName: __RNCINvNtNtCs6IAuOt8vWmF_3syn3gen4fold14fold_expr_loopNtNvCs2GZpXKFCdsl_11yoke_derive16replace_lifetime15ReplaceLifetimeE0BT_, symObjAddr: 0x169D4, symBinAddr: 0x23898, symSize: 0x34 }
  - { offset: 0x3E440, size: 0x8, addend: 0x0, symName: __RNCINvNtNtCs6IAuOt8vWmF_3syn3gen4fold14fold_expr_pathNtNvCs2GZpXKFCdsl_11yoke_derive16replace_lifetime15ReplaceLifetimeE0BT_, symObjAddr: 0x16A08, symBinAddr: 0x238CC, symSize: 0x34 }
  - { offset: 0x3E48F, size: 0x8, addend: 0x0, symName: __RNCINvNtNtCs6IAuOt8vWmF_3syn3gen4fold14fold_item_implNtNvCs2GZpXKFCdsl_11yoke_derive16replace_lifetime15ReplaceLifetimeE0BT_, symObjAddr: 0x16A3C, symBinAddr: 0x23900, symSize: 0xA0 }
  - { offset: 0x3E4DF, size: 0x8, addend: 0x0, symName: __RNCINvNtNtCs6IAuOt8vWmF_3syn3gen4fold14fold_pat_identNtNvCs2GZpXKFCdsl_11yoke_derive16replace_lifetime15ReplaceLifetimeE0BT_, symObjAddr: 0x16ADC, symBinAddr: 0x239A0, symSize: 0x188 }
  - { offset: 0x3E54E, size: 0x8, addend: 0x0, symName: __RNCINvNtNtCs6IAuOt8vWmF_3syn3gen4fold14fold_signatureNtNvCs2GZpXKFCdsl_11yoke_derive16replace_lifetime15ReplaceLifetimeE0BT_, symObjAddr: 0x16C64, symBinAddr: 0x23B28, symSize: 0x40 }
  - { offset: 0x3E596, size: 0x8, addend: 0x0, symName: __RNCINvNtNtCs6IAuOt8vWmF_3syn3gen4fold14fold_signatureNtNvCs2GZpXKFCdsl_11yoke_derive16replace_lifetime15ReplaceLifetimeEs_0BT_, symObjAddr: 0x16CA4, symBinAddr: 0x23B68, symSize: 0x34 }
  - { offset: 0x3E5E5, size: 0x8, addend: 0x0, symName: __RNCINvNtNtCs6IAuOt8vWmF_3syn3gen4fold14fold_type_pathNtNvCs2GZpXKFCdsl_11yoke_derive16replace_lifetime15ReplaceLifetimeE0BT_, symObjAddr: 0x16CD8, symBinAddr: 0x23B9C, symSize: 0x34 }
  - { offset: 0x3E634, size: 0x8, addend: 0x0, symName: __RNCINvNtNtCs6IAuOt8vWmF_3syn3gen4fold15fold_assoc_typeNtNvCs2GZpXKFCdsl_11yoke_derive16replace_lifetime15ReplaceLifetimeE0BU_, symObjAddr: 0x16D0C, symBinAddr: 0x23BD0, symSize: 0x34 }
  - { offset: 0x3E683, size: 0x8, addend: 0x0, symName: __RNCINvNtNtCs6IAuOt8vWmF_3syn3gen4fold15fold_constraintNtNvCs2GZpXKFCdsl_11yoke_derive16replace_lifetime15ReplaceLifetimeE0BU_, symObjAddr: 0x16D40, symBinAddr: 0x23C04, symSize: 0x34 }
  - { offset: 0x3E6D2, size: 0x8, addend: 0x0, symName: __RNCINvNtNtCs6IAuOt8vWmF_3syn3gen4fold15fold_expr_blockNtNvCs2GZpXKFCdsl_11yoke_derive16replace_lifetime15ReplaceLifetimeE0BU_, symObjAddr: 0x16D74, symBinAddr: 0x23C38, symSize: 0x34 }
  - { offset: 0x3E721, size: 0x8, addend: 0x0, symName: __RNCINvNtNtCs6IAuOt8vWmF_3syn3gen4fold15fold_expr_breakNtNvCs2GZpXKFCdsl_11yoke_derive16replace_lifetime15ReplaceLifetimeE0BU_, symObjAddr: 0x16DA8, symBinAddr: 0x23C6C, symSize: 0x34 }
  - { offset: 0x3E76A, size: 0x8, addend: 0x0, symName: __RNCINvNtNtCs6IAuOt8vWmF_3syn3gen4fold15fold_expr_breakNtNvCs2GZpXKFCdsl_11yoke_derive16replace_lifetime15ReplaceLifetimeEs_0BU_, symObjAddr: 0x16DDC, symBinAddr: 0x23CA0, symSize: 0x164 }
  - { offset: 0x3E7D7, size: 0x8, addend: 0x0, symName: __RNCINvNtNtCs6IAuOt8vWmF_3syn3gen4fold15fold_expr_rangeNtNvCs2GZpXKFCdsl_11yoke_derive16replace_lifetime15ReplaceLifetimeE0BU_, symObjAddr: 0x16F40, symBinAddr: 0x23E04, symSize: 0x164 }
  - { offset: 0x3E83E, size: 0x8, addend: 0x0, symName: __RNCINvNtNtCs6IAuOt8vWmF_3syn3gen4fold15fold_expr_rangeNtNvCs2GZpXKFCdsl_11yoke_derive16replace_lifetime15ReplaceLifetimeEs_0BU_, symObjAddr: 0x170A4, symBinAddr: 0x23F68, symSize: 0x164 }
  - { offset: 0x3E8AB, size: 0x8, addend: 0x0, symName: __RNCINvNtNtCs6IAuOt8vWmF_3syn3gen4fold15fold_expr_whileNtNvCs2GZpXKFCdsl_11yoke_derive16replace_lifetime15ReplaceLifetimeE0BU_, symObjAddr: 0x17208, symBinAddr: 0x240CC, symSize: 0x34 }
  - { offset: 0x3E8FA, size: 0x8, addend: 0x0, symName: __RNCINvNtNtCs6IAuOt8vWmF_3syn3gen4fold15fold_expr_yieldNtNvCs2GZpXKFCdsl_11yoke_derive16replace_lifetime15ReplaceLifetimeE0BU_, symObjAddr: 0x1723C, symBinAddr: 0x24100, symSize: 0x164 }
  - { offset: 0x3E967, size: 0x8, addend: 0x0, symName: __RNCINvNtNtCs6IAuOt8vWmF_3syn3gen4fold15fold_item_macroNtNvCs2GZpXKFCdsl_11yoke_derive16replace_lifetime15ReplaceLifetimeE0BU_, symObjAddr: 0x173A0, symBinAddr: 0x24264, symSize: 0x34 }
  - { offset: 0x3E9B6, size: 0x8, addend: 0x0, symName: __RNCINvNtNtCs6IAuOt8vWmF_3syn3gen4fold15fold_local_initNtNvCs2GZpXKFCdsl_11yoke_derive16replace_lifetime15ReplaceLifetimeE0BU_, symObjAddr: 0x173FC, symBinAddr: 0x24298, symSize: 0x17C }
  - { offset: 0x3EA24, size: 0x8, addend: 0x0, symName: __RNCINvNtNtCs6IAuOt8vWmF_3syn3gen4fold15fold_pat_structNtNvCs2GZpXKFCdsl_11yoke_derive16replace_lifetime15ReplaceLifetimeE0BU_, symObjAddr: 0x17578, symBinAddr: 0x24414, symSize: 0x34 }
  - { offset: 0x3EA6D, size: 0x8, addend: 0x0, symName: __RNCINvNtNtCs6IAuOt8vWmF_3syn3gen4fold15fold_pat_structNtNvCs2GZpXKFCdsl_11yoke_derive16replace_lifetime15ReplaceLifetimeEs_0BU_, symObjAddr: 0x175AC, symBinAddr: 0x24448, symSize: 0x34 }
  - { offset: 0x3EABC, size: 0x8, addend: 0x0, symName: __RNCINvNtNtCs6IAuOt8vWmF_3syn3gen4fold15fold_type_paramNtNvCs2GZpXKFCdsl_11yoke_derive16replace_lifetime15ReplaceLifetimeE0BU_, symObjAddr: 0x175E0, symBinAddr: 0x2447C, symSize: 0x34 }
  - { offset: 0x3EB0B, size: 0x8, addend: 0x0, symName: __RNCINvNtNtCs6IAuOt8vWmF_3syn3gen4fold16fold_assoc_constNtNvCs2GZpXKFCdsl_11yoke_derive16replace_lifetime15ReplaceLifetimeE0BV_, symObjAddr: 0x17614, symBinAddr: 0x244B0, symSize: 0x34 }
  - { offset: 0x3EB5A, size: 0x8, addend: 0x0, symName: __RNCINvNtNtCs6IAuOt8vWmF_3syn3gen4fold16fold_bare_fn_argNtNvCs2GZpXKFCdsl_11yoke_derive16replace_lifetime15ReplaceLifetimeE0BV_, symObjAddr: 0x17648, symBinAddr: 0x244E4, symSize: 0x80 }
  - { offset: 0x3EBA9, size: 0x8, addend: 0x0, symName: __RNCINvNtNtCs6IAuOt8vWmF_3syn3gen4fold16fold_const_paramNtNvCs2GZpXKFCdsl_11yoke_derive16replace_lifetime15ReplaceLifetimeE0BV_, symObjAddr: 0x176C8, symBinAddr: 0x24564, symSize: 0x34 }
  - { offset: 0x3EBF8, size: 0x8, addend: 0x0, symName: __RNCINvNtNtCs6IAuOt8vWmF_3syn3gen4fold16fold_expr_returnNtNvCs2GZpXKFCdsl_11yoke_derive16replace_lifetime15ReplaceLifetimeE0BV_, symObjAddr: 0x176FC, symBinAddr: 0x24598, symSize: 0x164 }
  - { offset: 0x3EC65, size: 0x8, addend: 0x0, symName: __RNCINvNtNtCs6IAuOt8vWmF_3syn3gen4fold16fold_expr_structNtNvCs2GZpXKFCdsl_11yoke_derive16replace_lifetime15ReplaceLifetimeE0BV_, symObjAddr: 0x17860, symBinAddr: 0x246FC, symSize: 0x34 }
  - { offset: 0x3ECAE, size: 0x8, addend: 0x0, symName: __RNCINvNtNtCs6IAuOt8vWmF_3syn3gen4fold16fold_expr_structNtNvCs2GZpXKFCdsl_11yoke_derive16replace_lifetime15ReplaceLifetimeEs_0BV_, symObjAddr: 0x17894, symBinAddr: 0x24730, symSize: 0x164 }
  - { offset: 0x3ED1B, size: 0x8, addend: 0x0, symName: __RNCINvNtNtCs6IAuOt8vWmF_3syn3gen4fold16fold_trait_boundNtNvCs2GZpXKFCdsl_11yoke_derive16replace_lifetime15ReplaceLifetimeE0BV_, symObjAddr: 0x179F8, symBinAddr: 0x24894, symSize: 0x34 }
  - { offset: 0x3ED6A, size: 0x8, addend: 0x0, symName: __RNCINvNtNtCs6IAuOt8vWmF_3syn3gen4fold17fold_expr_closureNtNvCs2GZpXKFCdsl_11yoke_derive16replace_lifetime15ReplaceLifetimeE0BW_, symObjAddr: 0x17A2C, symBinAddr: 0x248C8, symSize: 0x34 }
  - { offset: 0x3EDB9, size: 0x8, addend: 0x0, symName: __RNCINvNtNtCs6IAuOt8vWmF_3syn3gen4fold17fold_type_bare_fnNtNvCs2GZpXKFCdsl_11yoke_derive16replace_lifetime15ReplaceLifetimeE0BW_, symObjAddr: 0x17A60, symBinAddr: 0x248FC, symSize: 0x34 }
  - { offset: 0x3EE02, size: 0x8, addend: 0x0, symName: __RNCINvNtNtCs6IAuOt8vWmF_3syn3gen4fold17fold_type_bare_fnNtNvCs2GZpXKFCdsl_11yoke_derive16replace_lifetime15ReplaceLifetimeEs0_0BW_, symObjAddr: 0x17A94, symBinAddr: 0x24930, symSize: 0x34 }
  - { offset: 0x3EE4B, size: 0x8, addend: 0x0, symName: __RNCINvNtNtCs6IAuOt8vWmF_3syn3gen4fold17fold_type_bare_fnNtNvCs2GZpXKFCdsl_11yoke_derive16replace_lifetime15ReplaceLifetimeEs_0BW_, symObjAddr: 0x17AC8, symBinAddr: 0x24964, symSize: 0x40 }
  - { offset: 0x3EE99, size: 0x8, addend: 0x0, symName: __RNCINvNtNtCs6IAuOt8vWmF_3syn3gen4fold18fold_bare_variadicNtNvCs2GZpXKFCdsl_11yoke_derive16replace_lifetime15ReplaceLifetimeE0BX_, symObjAddr: 0x17B08, symBinAddr: 0x249A4, symSize: 0x80 }
  - { offset: 0x3EEE8, size: 0x8, addend: 0x0, symName: __RNCINvNtNtCs6IAuOt8vWmF_3syn3gen4fold18fold_expr_continueNtNvCs2GZpXKFCdsl_11yoke_derive16replace_lifetime15ReplaceLifetimeE0BX_, symObjAddr: 0x17B88, symBinAddr: 0x24A24, symSize: 0x34 }
  - { offset: 0x3EF37, size: 0x8, addend: 0x0, symName: __RNCINvNtNtCs6IAuOt8vWmF_3syn3gen4fold18fold_expr_for_loopNtNvCs2GZpXKFCdsl_11yoke_derive16replace_lifetime15ReplaceLifetimeE0BX_, symObjAddr: 0x17BBC, symBinAddr: 0x24A58, symSize: 0x34 }
  - { offset: 0x3EF86, size: 0x8, addend: 0x0, symName: __RNCINvNtNtCs6IAuOt8vWmF_3syn3gen4fold18fold_trait_item_fnNtNvCs2GZpXKFCdsl_11yoke_derive16replace_lifetime15ReplaceLifetimeE0BX_, symObjAddr: 0x17BF0, symBinAddr: 0x24A8C, symSize: 0x34 }
  - { offset: 0x3EFD5, size: 0x8, addend: 0x0, symName: __RNCINvNtNtCs6IAuOt8vWmF_3syn3gen4fold19fold_predicate_typeNtNvCs2GZpXKFCdsl_11yoke_derive16replace_lifetime15ReplaceLifetimeE0BY_, symObjAddr: 0x17C24, symBinAddr: 0x24AC0, symSize: 0x34 }
  - { offset: 0x3F024, size: 0x8, addend: 0x0, symName: __RNCINvNtNtCs6IAuOt8vWmF_3syn3gen4fold19fold_type_referenceNtNvCs2GZpXKFCdsl_11yoke_derive16replace_lifetime15ReplaceLifetimeE0BY_, symObjAddr: 0x17C58, symBinAddr: 0x24AF4, symSize: 0x34 }
  - { offset: 0x3F073, size: 0x8, addend: 0x0, symName: __RNCINvNtNtCs6IAuOt8vWmF_3syn3gen4fold20fold_trait_item_typeNtNvCs2GZpXKFCdsl_11yoke_derive16replace_lifetime15ReplaceLifetimeE0BZ_, symObjAddr: 0x17C8C, symBinAddr: 0x24B28, symSize: 0x94 }
  - { offset: 0x3F0C2, size: 0x8, addend: 0x0, symName: __RNCINvNtNtCs6IAuOt8vWmF_3syn3gen4fold21fold_expr_method_callNtNvCs2GZpXKFCdsl_11yoke_derive16replace_lifetime15ReplaceLifetimeE0B10_, symObjAddr: 0x17D20, symBinAddr: 0x24BBC, symSize: 0x34 }
  - { offset: 0x3F111, size: 0x8, addend: 0x0, symName: __RNCINvNtNtCs6IAuOt8vWmF_3syn3gen4fold21fold_pat_tuple_structNtNvCs2GZpXKFCdsl_11yoke_derive16replace_lifetime15ReplaceLifetimeE0B10_, symObjAddr: 0x17D54, symBinAddr: 0x24BF0, symSize: 0x34 }
  - { offset: 0x3F160, size: 0x8, addend: 0x0, symName: __RNCINvNtNtCs6IAuOt8vWmF_3syn3gen4fold21fold_trait_item_constNtNvCs2GZpXKFCdsl_11yoke_derive16replace_lifetime15ReplaceLifetimeE0B10_, symObjAddr: 0x17D88, symBinAddr: 0x24C24, symSize: 0x94 }
  - { offset: 0x3F1AF, size: 0x8, addend: 0x0, symName: __RNCINvNtNtCs6IAuOt8vWmF_3syn3gen4fold22fold_item_extern_crateNtNvCs2GZpXKFCdsl_11yoke_derive16replace_lifetime15ReplaceLifetimeE0B11_, symObjAddr: 0x17E1C, symBinAddr: 0x24CB8, symSize: 0x78 }
  - { offset: 0x3F1FE, size: 0x8, addend: 0x0, symName: __RNCINvNtNtCs6IAuOt8vWmF_3syn3gen4fold8fold_abiNtNvCs2GZpXKFCdsl_11yoke_derive16replace_lifetime15ReplaceLifetimeE0BM_, symObjAddr: 0x17E94, symBinAddr: 0x24D30, symSize: 0x3C }
  - { offset: 0x3F24C, size: 0x8, addend: 0x0, symName: __RNCINvNtNtCs6IAuOt8vWmF_3syn3gen4fold8fold_armNtNvCs2GZpXKFCdsl_11yoke_derive16replace_lifetime15ReplaceLifetimeE0BM_, symObjAddr: 0x17ED0, symBinAddr: 0x24D6C, symSize: 0x17C }
  - { offset: 0x3F2BA, size: 0x8, addend: 0x0, symName: __RNCINvNtNtCs6IAuOt8vWmF_3syn3gen4fold8fold_vecNtNtB8_4attr9AttributeNtNvCs2GZpXKFCdsl_11yoke_derive16replace_lifetime15ReplaceLifetimeNvYB14_NtB4_4Fold14fold_attributeE0B18_, symObjAddr: 0x1804C, symBinAddr: 0x24EE8, symSize: 0x7C }
  - { offset: 0x3F32A, size: 0x8, addend: 0x0, symName: __RNCINvNtNtCs6IAuOt8vWmF_3syn3gen4fold8fold_vecNtNtB8_4expr3ArmNtNvCs2GZpXKFCdsl_11yoke_derive16replace_lifetime15ReplaceLifetimeNvYBY_NtB4_4Fold8fold_armE0B12_, symObjAddr: 0x180C8, symBinAddr: 0x24F64, symSize: 0x7C }
  - { offset: 0x3F39A, size: 0x8, addend: 0x0, symName: __RNCINvNtNtCs6IAuOt8vWmF_3syn3gen4fold8fold_vecNtNtB8_4item11ForeignItemNtNvCs2GZpXKFCdsl_11yoke_derive16replace_lifetime15ReplaceLifetimeNvYB17_NtB4_4Fold17fold_foreign_itemE0B1b_, symObjAddr: 0x18144, symBinAddr: 0x24FE0, symSize: 0x7C }
  - { offset: 0x3F40A, size: 0x8, addend: 0x0, symName: __RNCINvNtNtCs6IAuOt8vWmF_3syn3gen4fold8fold_vecNtNtB8_4item4ItemNtNvCs2GZpXKFCdsl_11yoke_derive16replace_lifetime15ReplaceLifetimeNvYBZ_NtB4_4Fold9fold_itemE0B13_, symObjAddr: 0x181C0, symBinAddr: 0x2505C, symSize: 0x7C }
  - { offset: 0x3F47A, size: 0x8, addend: 0x0, symName: __RNCINvNtNtCs6IAuOt8vWmF_3syn3gen4fold8fold_vecNtNtB8_4item8ImplItemNtNvCs2GZpXKFCdsl_11yoke_derive16replace_lifetime15ReplaceLifetimeNvYB13_NtB4_4Fold14fold_impl_itemE0B17_, symObjAddr: 0x1823C, symBinAddr: 0x250D8, symSize: 0x7C }
  - { offset: 0x3F4EA, size: 0x8, addend: 0x0, symName: __RNCINvNtNtCs6IAuOt8vWmF_3syn3gen4fold8fold_vecNtNtB8_4item9TraitItemNtNvCs2GZpXKFCdsl_11yoke_derive16replace_lifetime15ReplaceLifetimeNvYB14_NtB4_4Fold15fold_trait_itemE0B18_, symObjAddr: 0x182B8, symBinAddr: 0x25154, symSize: 0x7C }
  - { offset: 0x3F55A, size: 0x8, addend: 0x0, symName: __RNCINvNtNtCs6IAuOt8vWmF_3syn3gen4fold8fold_vecNtNtB8_4stmt4StmtNtNvCs2GZpXKFCdsl_11yoke_derive16replace_lifetime15ReplaceLifetimeNvYBZ_NtB4_4Fold9fold_stmtE0B13_, symObjAddr: 0x18334, symBinAddr: 0x251D0, symSize: 0x7C }
  - { offset: 0x47420, size: 0x8, addend: 0x0, symName: __RINvNtNtCs6IAuOt8vWmF_3syn3gen5visit10visit_exprNtNtCs2GZpXKFCdsl_11yoke_derive7visitor11TypeVisitorEBO_, symObjAddr: 0x0, symBinAddr: 0x25280, symSize: 0x7D8 }
  - { offset: 0x47D77, size: 0x8, addend: 0x0, symName: __RINvNtNtCs6IAuOt8vWmF_3syn3gen5visit10visit_exprNtNtCs2GZpXKFCdsl_11yoke_derive7visitor11TypeVisitorEBO_, symObjAddr: 0x0, symBinAddr: 0x25280, symSize: 0x7D8 }
  - { offset: 0x48281, size: 0x8, addend: 0x0, symName: __RINvNtNtCs6IAuOt8vWmF_3syn3gen5visit10visit_itemNtNtCs2GZpXKFCdsl_11yoke_derive7visitor11TypeVisitorEBO_, symObjAddr: 0x7D8, symBinAddr: 0x25A58, symSize: 0x35C }
  - { offset: 0x484A1, size: 0x8, addend: 0x0, symName: __RINvNtNtCs6IAuOt8vWmF_3syn3gen5visit10visit_metaNtNtCs2GZpXKFCdsl_11yoke_derive7visitor11TypeVisitorEBO_, symObjAddr: 0xB34, symBinAddr: 0x25DB4, symSize: 0xE8 }
  - { offset: 0x48535, size: 0x8, addend: 0x0, symName: __RINvNtNtCs6IAuOt8vWmF_3syn3gen5visit10visit_pathNtNtCs2GZpXKFCdsl_11yoke_derive7visitor11TypeVisitorEBO_, symObjAddr: 0xC1C, symBinAddr: 0x25E9C, symSize: 0xC8 }
  - { offset: 0x485CA, size: 0x8, addend: 0x0, symName: __RINvNtNtCs6IAuOt8vWmF_3syn3gen5visit10visit_stmtNtNtCs2GZpXKFCdsl_11yoke_derive7visitor11TypeVisitorEBO_, symObjAddr: 0xCE4, symBinAddr: 0x25F64, symSize: 0x12C }
  - { offset: 0x4868C, size: 0x8, addend: 0x0, symName: __RINvNtNtCs6IAuOt8vWmF_3syn3gen5visit10visit_typeNtNtCs2GZpXKFCdsl_11yoke_derive7visitor11TypeVisitorEBO_, symObjAddr: 0xE10, symBinAddr: 0x26090, symSize: 0x328 }
  - { offset: 0x4888C, size: 0x8, addend: 0x0, symName: __RINvNtNtCs6IAuOt8vWmF_3syn3gen5visit11visit_blockNtNtCs2GZpXKFCdsl_11yoke_derive7visitor11TypeVisitorEBP_, symObjAddr: 0x1138, symBinAddr: 0x263B8, symSize: 0x98 }
  - { offset: 0x48902, size: 0x8, addend: 0x0, symName: __RINvNtNtCs6IAuOt8vWmF_3syn3gen5visit11visit_fieldNtNtCs2GZpXKFCdsl_11yoke_derive7visitor11TypeVisitorEBP_, symObjAddr: 0x11D0, symBinAddr: 0x26450, symSize: 0x118 }
  - { offset: 0x4898E, size: 0x8, addend: 0x0, symName: __RINvNtNtCs6IAuOt8vWmF_3syn3gen5visit11visit_identNtNtCs2GZpXKFCdsl_11yoke_derive7visitor11TypeVisitorEBP_, symObjAddr: 0x12E8, symBinAddr: 0x26568, symSize: 0x58 }
  - { offset: 0x489D0, size: 0x8, addend: 0x0, symName: __RINvNtNtCs6IAuOt8vWmF_3syn3gen5visit11visit_indexNtNtCs2GZpXKFCdsl_11yoke_derive7visitor11TypeVisitorEBP_, symObjAddr: 0x1340, symBinAddr: 0x265C0, symSize: 0x3C }
  - { offset: 0x48A12, size: 0x8, addend: 0x0, symName: __RINvNtNtCs6IAuOt8vWmF_3syn3gen5visit11visit_labelNtNtCs2GZpXKFCdsl_11yoke_derive7visitor11TypeVisitorEBP_, symObjAddr: 0x137C, symBinAddr: 0x265FC, symSize: 0x3C }
  - { offset: 0x48A54, size: 0x8, addend: 0x0, symName: __RINvNtNtCs6IAuOt8vWmF_3syn3gen5visit11visit_localNtNtCs2GZpXKFCdsl_11yoke_derive7visitor11TypeVisitorEBP_, symObjAddr: 0x13B8, symBinAddr: 0x26638, symSize: 0x100 }
  - { offset: 0x48AE0, size: 0x8, addend: 0x0, symName: __RINvNtNtCs6IAuOt8vWmF_3syn3gen5visit11visit_macroNtNtCs2GZpXKFCdsl_11yoke_derive7visitor11TypeVisitorEBP_, symObjAddr: 0x14B8, symBinAddr: 0x26738, symSize: 0x60 }
  - { offset: 0x48B22, size: 0x8, addend: 0x0, symName: __RINvNtNtCs6IAuOt8vWmF_3syn3gen5visit11visit_qselfNtNtCs2GZpXKFCdsl_11yoke_derive7visitor11TypeVisitorEBP_, symObjAddr: 0x1518, symBinAddr: 0x26798, symSize: 0x68 }
  - { offset: 0x48B64, size: 0x8, addend: 0x0, symName: __RINvNtNtCs6IAuOt8vWmF_3syn3gen5visit11visit_un_opNtNtCs2GZpXKFCdsl_11yoke_derive7visitor11TypeVisitorEBP_, symObjAddr: 0x1580, symBinAddr: 0x26800, symSize: 0xA8 }
  - { offset: 0x48BA6, size: 0x8, addend: 0x0, symName: __RINvNtNtCs6IAuOt8vWmF_3syn3gen5visit12visit_bin_opNtNtCs2GZpXKFCdsl_11yoke_derive7visitor11TypeVisitorEBQ_, symObjAddr: 0x1628, symBinAddr: 0x268A8, symSize: 0x438 }
  - { offset: 0x48BE8, size: 0x8, addend: 0x0, symName: __RINvNtNtCs6IAuOt8vWmF_3syn3gen5visit12visit_fieldsNtNtCs2GZpXKFCdsl_11yoke_derive7visitor11TypeVisitorEBQ_, symObjAddr: 0x1A60, symBinAddr: 0x26CE0, symSize: 0xC4 }
  - { offset: 0x48C66, size: 0x8, addend: 0x0, symName: __RINvNtNtCs6IAuOt8vWmF_3syn3gen5visit12visit_fn_argNtNtCs2GZpXKFCdsl_11yoke_derive7visitor11TypeVisitorEBQ_, symObjAddr: 0x1B24, symBinAddr: 0x26DA4, symSize: 0xA0 }
  - { offset: 0x48CDC, size: 0x8, addend: 0x0, symName: __RINvNtNtCs6IAuOt8vWmF_3syn3gen5visit12visit_memberNtNtCs2GZpXKFCdsl_11yoke_derive7visitor11TypeVisitorEBQ_, symObjAddr: 0x1BC4, symBinAddr: 0x26E44, symSize: 0x98 }
  - { offset: 0x48D52, size: 0x8, addend: 0x0, symName: __RINvNtNtCs6IAuOt8vWmF_3syn3gen5visit12visit_pat_orNtNtCs2GZpXKFCdsl_11yoke_derive7visitor11TypeVisitorEBQ_, symObjAddr: 0x1C5C, symBinAddr: 0x26EDC, symSize: 0x128 }
  - { offset: 0x48E1B, size: 0x8, addend: 0x0, symName: __RINvNtNtCs6IAuOt8vWmF_3syn3gen5visit13visit_expr_ifNtNtCs2GZpXKFCdsl_11yoke_derive7visitor11TypeVisitorEBR_, symObjAddr: 0x1D84, symBinAddr: 0x27004, symSize: 0x15C }
  - { offset: 0x48EA7, size: 0x8, addend: 0x0, symName: __RINvNtNtCs6IAuOt8vWmF_3syn3gen5visit13visit_item_fnNtNtCs2GZpXKFCdsl_11yoke_derive7visitor11TypeVisitorEBR_, symObjAddr: 0x1EE0, symBinAddr: 0x27160, symSize: 0xE8 }
  - { offset: 0x48F1D, size: 0x8, addend: 0x0, symName: __RINvNtNtCs6IAuOt8vWmF_3syn3gen5visit13visit_lit_intNtNtCs2GZpXKFCdsl_11yoke_derive7visitor11TypeVisitorEBR_, symObjAddr: 0x1FC8, symBinAddr: 0x27248, symSize: 0x24 }
  - { offset: 0x48F5F, size: 0x8, addend: 0x0, symName: __RINvNtNtCs6IAuOt8vWmF_3syn3gen5visit13visit_lit_strNtNtCs2GZpXKFCdsl_11yoke_derive7visitor11TypeVisitorEBR_, symObjAddr: 0x1FEC, symBinAddr: 0x2726C, symSize: 0x24 }
  - { offset: 0x48FA1, size: 0x8, addend: 0x0, symName: __RINvNtNtCs6IAuOt8vWmF_3syn3gen5visit13visit_variantNtNtCs2GZpXKFCdsl_11yoke_derive7visitor11TypeVisitorEBR_, symObjAddr: 0x2010, symBinAddr: 0x27290, symSize: 0x10C }
  - { offset: 0x4902D, size: 0x8, addend: 0x0, symName: __RINvNtNtCs6IAuOt8vWmF_3syn3gen5visit14visit_expr_letNtNtCs2GZpXKFCdsl_11yoke_derive7visitor11TypeVisitorEBS_, symObjAddr: 0x211C, symBinAddr: 0x2739C, symSize: 0x104 }
  - { offset: 0x490A3, size: 0x8, addend: 0x0, symName: __RINvNtNtCs6IAuOt8vWmF_3syn3gen5visit14visit_expr_litNtNtCs2GZpXKFCdsl_11yoke_derive7visitor11TypeVisitorEBS_, symObjAddr: 0x2220, symBinAddr: 0x274A0, symSize: 0xA8 }
  - { offset: 0x49119, size: 0x8, addend: 0x0, symName: __RINvNtNtCs6IAuOt8vWmF_3syn3gen5visit14visit_expr_tryNtNtCs2GZpXKFCdsl_11yoke_derive7visitor11TypeVisitorEBS_, symObjAddr: 0x22C8, symBinAddr: 0x27548, symSize: 0xD0 }
  - { offset: 0x4918F, size: 0x8, addend: 0x0, symName: __RINvNtNtCs6IAuOt8vWmF_3syn3gen5visit14visit_genericsNtNtCs2GZpXKFCdsl_11yoke_derive7visitor11TypeVisitorEBS_, symObjAddr: 0x2398, symBinAddr: 0x27618, symSize: 0x124 }
  - { offset: 0x4923A, size: 0x8, addend: 0x0, symName: __RINvNtNtCs6IAuOt8vWmF_3syn3gen5visit14visit_item_modNtNtCs2GZpXKFCdsl_11yoke_derive7visitor11TypeVisitorEBS_, symObjAddr: 0x24BC, symBinAddr: 0x2773C, symSize: 0x168 }
  - { offset: 0x492FA, size: 0x8, addend: 0x0, symName: __RINvNtNtCs6IAuOt8vWmF_3syn3gen5visit14visit_item_useNtNtCs2GZpXKFCdsl_11yoke_derive7visitor11TypeVisitorEBS_, symObjAddr: 0x2624, symBinAddr: 0x278A4, symSize: 0xB8 }
  - { offset: 0x49370, size: 0x8, addend: 0x0, symName: __RINvNtNtCs6IAuOt8vWmF_3syn3gen5visit14visit_lifetimeNtNtCs2GZpXKFCdsl_11yoke_derive7visitor11TypeVisitorEBS_, symObjAddr: 0x26DC, symBinAddr: 0x2795C, symSize: 0x50 }
  - { offset: 0x493B2, size: 0x8, addend: 0x0, symName: __RINvNtNtCs6IAuOt8vWmF_3syn3gen5visit14visit_lit_boolNtNtCs2GZpXKFCdsl_11yoke_derive7visitor11TypeVisitorEBS_, symObjAddr: 0x272C, symBinAddr: 0x279AC, symSize: 0x3C }
  - { offset: 0x493F4, size: 0x8, addend: 0x0, symName: __RINvNtNtCs6IAuOt8vWmF_3syn3gen5visit14visit_lit_byteNtNtCs2GZpXKFCdsl_11yoke_derive7visitor11TypeVisitorEBS_, symObjAddr: 0x2768, symBinAddr: 0x279E8, symSize: 0x24 }
  - { offset: 0x49436, size: 0x8, addend: 0x0, symName: __RINvNtNtCs6IAuOt8vWmF_3syn3gen5visit14visit_lit_charNtNtCs2GZpXKFCdsl_11yoke_derive7visitor11TypeVisitorEBS_, symObjAddr: 0x278C, symBinAddr: 0x27A0C, symSize: 0x24 }
  - { offset: 0x49478, size: 0x8, addend: 0x0, symName: __RINvNtNtCs6IAuOt8vWmF_3syn3gen5visit14visit_lit_cstrNtNtCs2GZpXKFCdsl_11yoke_derive7visitor11TypeVisitorEBS_, symObjAddr: 0x27B0, symBinAddr: 0x27A30, symSize: 0x24 }
  - { offset: 0x494BA, size: 0x8, addend: 0x0, symName: __RINvNtNtCs6IAuOt8vWmF_3syn3gen5visit14visit_pat_restNtNtCs2GZpXKFCdsl_11yoke_derive7visitor11TypeVisitorEBS_, symObjAddr: 0x27D4, symBinAddr: 0x27A54, symSize: 0x98 }
  - { offset: 0x49530, size: 0x8, addend: 0x0, symName: __RINvNtNtCs6IAuOt8vWmF_3syn3gen5visit14visit_pat_typeNtNtCs2GZpXKFCdsl_11yoke_derive7visitor11TypeVisitorEBS_, symObjAddr: 0x286C, symBinAddr: 0x27AEC, symSize: 0x104 }
  - { offset: 0x495A6, size: 0x8, addend: 0x0, symName: __RINvNtNtCs6IAuOt8vWmF_3syn3gen5visit14visit_pat_wildNtNtCs2GZpXKFCdsl_11yoke_derive7visitor11TypeVisitorEBS_, symObjAddr: 0x2970, symBinAddr: 0x27BF0, symSize: 0x98 }
  - { offset: 0x4961C, size: 0x8, addend: 0x0, symName: __RINvNtNtCs6IAuOt8vWmF_3syn3gen5visit14visit_receiverNtNtCs2GZpXKFCdsl_11yoke_derive7visitor11TypeVisitorEBS_, symObjAddr: 0x2A08, symBinAddr: 0x27C88, symSize: 0x16C }
  - { offset: 0x496BE, size: 0x8, addend: 0x0, symName: __RINvNtNtCs6IAuOt8vWmF_3syn3gen5visit14visit_type_ptrNtNtCs2GZpXKFCdsl_11yoke_derive7visitor11TypeVisitorEBS_, symObjAddr: 0x2B74, symBinAddr: 0x27DF4, symSize: 0x68 }
  - { offset: 0x49700, size: 0x8, addend: 0x0, symName: __RINvNtNtCs6IAuOt8vWmF_3syn3gen5visit14visit_use_globNtNtCs2GZpXKFCdsl_11yoke_derive7visitor11TypeVisitorEBS_, symObjAddr: 0x2BDC, symBinAddr: 0x27E5C, symSize: 0x24 }
  - { offset: 0x49742, size: 0x8, addend: 0x0, symName: __RINvNtNtCs6IAuOt8vWmF_3syn3gen5visit14visit_use_nameNtNtCs2GZpXKFCdsl_11yoke_derive7visitor11TypeVisitorEBS_, symObjAddr: 0x2C00, symBinAddr: 0x27E80, symSize: 0x3C }
  - { offset: 0x49784, size: 0x8, addend: 0x0, symName: __RINvNtNtCs6IAuOt8vWmF_3syn3gen5visit14visit_use_pathNtNtCs2GZpXKFCdsl_11yoke_derive7visitor11TypeVisitorEBS_, symObjAddr: 0x2C3C, symBinAddr: 0x27EBC, symSize: 0x7C }
  - { offset: 0x497C6, size: 0x8, addend: 0x0, symName: __RINvNtNtCs6IAuOt8vWmF_3syn3gen5visit14visit_use_treeNtNtCs2GZpXKFCdsl_11yoke_derive7visitor11TypeVisitorEBS_, symObjAddr: 0x2CB8, symBinAddr: 0x27F38, symSize: 0x15C }
  - { offset: 0x49896, size: 0x8, addend: 0x0, symName: __RINvNtNtCs6IAuOt8vWmF_3syn3gen5visit14visit_variadicNtNtCs2GZpXKFCdsl_11yoke_derive7visitor11TypeVisitorEBS_, symObjAddr: 0x2E14, symBinAddr: 0x28094, symSize: 0x118 }
  - { offset: 0x49922, size: 0x8, addend: 0x0, symName: __RINvNtNtCs6IAuOt8vWmF_3syn3gen5visit15visit_attributeNtNtCs2GZpXKFCdsl_11yoke_derive7visitor11TypeVisitorEBT_, symObjAddr: 0x2F2C, symBinAddr: 0x281AC, symSize: 0x50 }
  - { offset: 0x49964, size: 0x8, addend: 0x0, symName: __RINvNtNtCs6IAuOt8vWmF_3syn3gen5visit15visit_expr_callNtNtCs2GZpXKFCdsl_11yoke_derive7visitor11TypeVisitorEBT_, symObjAddr: 0x2F7C, symBinAddr: 0x281FC, symSize: 0x160 }
  - { offset: 0x49A2D, size: 0x8, addend: 0x0, symName: __RINvNtNtCs6IAuOt8vWmF_3syn3gen5visit15visit_expr_castNtNtCs2GZpXKFCdsl_11yoke_derive7visitor11TypeVisitorEBT_, symObjAddr: 0x30DC, symBinAddr: 0x2835C, symSize: 0x104 }
  - { offset: 0x49AA3, size: 0x8, addend: 0x0, symName: __RINvNtNtCs6IAuOt8vWmF_3syn3gen5visit15visit_expr_loopNtNtCs2GZpXKFCdsl_11yoke_derive7visitor11TypeVisitorEBT_, symObjAddr: 0x31E0, symBinAddr: 0x28460, symSize: 0x100 }
  - { offset: 0x49B2F, size: 0x8, addend: 0x0, symName: __RINvNtNtCs6IAuOt8vWmF_3syn3gen5visit15visit_expr_pathNtNtCs2GZpXKFCdsl_11yoke_derive7visitor11TypeVisitorEBT_, symObjAddr: 0x32E0, symBinAddr: 0x28560, symSize: 0x100 }
  - { offset: 0x49BBB, size: 0x8, addend: 0x0, symName: __RINvNtNtCs6IAuOt8vWmF_3syn3gen5visit15visit_field_patNtNtCs2GZpXKFCdsl_11yoke_derive7visitor11TypeVisitorEBT_, symObjAddr: 0x33E0, symBinAddr: 0x28660, symSize: 0xE0 }
  - { offset: 0x49C31, size: 0x8, addend: 0x0, symName: __RINvNtNtCs6IAuOt8vWmF_3syn3gen5visit15visit_impl_itemNtNtCs2GZpXKFCdsl_11yoke_derive7visitor11TypeVisitorEBT_, symObjAddr: 0x34C0, symBinAddr: 0x28740, symSize: 0x168 }
  - { offset: 0x49D01, size: 0x8, addend: 0x0, symName: __RINvNtNtCs6IAuOt8vWmF_3syn3gen5visit15visit_item_enumNtNtCs2GZpXKFCdsl_11yoke_derive7visitor11TypeVisitorEBT_, symObjAddr: 0x3628, symBinAddr: 0x288A8, symSize: 0x158 }
  - { offset: 0x49DCA, size: 0x8, addend: 0x0, symName: __RINvNtNtCs6IAuOt8vWmF_3syn3gen5visit15visit_item_implNtNtCs2GZpXKFCdsl_11yoke_derive7visitor11TypeVisitorEBT_, symObjAddr: 0x3780, symBinAddr: 0x28A00, symSize: 0x198 }
  - { offset: 0x49E8B, size: 0x8, addend: 0x0, symName: __RINvNtNtCs6IAuOt8vWmF_3syn3gen5visit15visit_item_typeNtNtCs2GZpXKFCdsl_11yoke_derive7visitor11TypeVisitorEBT_, symObjAddr: 0x3918, symBinAddr: 0x28B98, symSize: 0x100 }
  - { offset: 0x49F01, size: 0x8, addend: 0x0, symName: __RINvNtNtCs6IAuOt8vWmF_3syn3gen5visit15visit_lit_floatNtNtCs2GZpXKFCdsl_11yoke_derive7visitor11TypeVisitorEBT_, symObjAddr: 0x3A18, symBinAddr: 0x28C98, symSize: 0x24 }
  - { offset: 0x49F43, size: 0x8, addend: 0x0, symName: __RINvNtNtCs6IAuOt8vWmF_3syn3gen5visit15visit_meta_listNtNtCs2GZpXKFCdsl_11yoke_derive7visitor11TypeVisitorEBT_, symObjAddr: 0x3A3C, symBinAddr: 0x28CBC, symSize: 0x60 }
  - { offset: 0x49F85, size: 0x8, addend: 0x0, symName: __RINvNtNtCs6IAuOt8vWmF_3syn3gen5visit15visit_pat_identNtNtCs2GZpXKFCdsl_11yoke_derive7visitor11TypeVisitorEBT_, symObjAddr: 0x3A9C, symBinAddr: 0x28D1C, symSize: 0x128 }
  - { offset: 0x4A011, size: 0x8, addend: 0x0, symName: __RINvNtNtCs6IAuOt8vWmF_3syn3gen5visit15visit_pat_parenNtNtCs2GZpXKFCdsl_11yoke_derive7visitor11TypeVisitorEBT_, symObjAddr: 0x3BC4, symBinAddr: 0x28E44, symSize: 0xD0 }
  - { offset: 0x4A087, size: 0x8, addend: 0x0, symName: __RINvNtNtCs6IAuOt8vWmF_3syn3gen5visit15visit_pat_sliceNtNtCs2GZpXKFCdsl_11yoke_derive7visitor11TypeVisitorEBT_, symObjAddr: 0x3C94, symBinAddr: 0x28F14, symSize: 0x128 }
  - { offset: 0x4A150, size: 0x8, addend: 0x0, symName: __RINvNtNtCs6IAuOt8vWmF_3syn3gen5visit15visit_pat_tupleNtNtCs2GZpXKFCdsl_11yoke_derive7visitor11TypeVisitorEBT_, symObjAddr: 0x3DBC, symBinAddr: 0x2903C, symSize: 0x128 }
  - { offset: 0x4A219, size: 0x8, addend: 0x0, symName: __RINvNtNtCs6IAuOt8vWmF_3syn3gen5visit15visit_signatureNtNtCs2GZpXKFCdsl_11yoke_derive7visitor11TypeVisitorEBT_, symObjAddr: 0x3EE4, symBinAddr: 0x29164, symSize: 0x198 }
  - { offset: 0x4A2E2, size: 0x8, addend: 0x0, symName: __RINvNtNtCs6IAuOt8vWmF_3syn3gen5visit15visit_type_pathNtNtCs2GZpXKFCdsl_11yoke_derive7visitor11TypeVisitorEBT_, symObjAddr: 0x407C, symBinAddr: 0x292FC, symSize: 0x94 }
  - { offset: 0x4A342, size: 0x8, addend: 0x0, symName: __RINvNtNtCs6IAuOt8vWmF_3syn3gen5visit15visit_use_groupNtNtCs2GZpXKFCdsl_11yoke_derive7visitor11TypeVisitorEBT_, symObjAddr: 0x4110, symBinAddr: 0x29390, symSize: 0xC8 }
  - { offset: 0x4A3D7, size: 0x8, addend: 0x0, symName: __RINvNtNtCs6IAuOt8vWmF_3syn3gen5visit16visit_assoc_typeNtNtCs2GZpXKFCdsl_11yoke_derive7visitor11TypeVisitorEBU_, symObjAddr: 0x41D8, symBinAddr: 0x29458, symSize: 0xA8 }
  - { offset: 0x4A437, size: 0x8, addend: 0x0, symName: __RINvNtNtCs6IAuOt8vWmF_3syn3gen5visit16visit_attr_styleNtNtCs2GZpXKFCdsl_11yoke_derive7visitor11TypeVisitorEBU_, symObjAddr: 0x4280, symBinAddr: 0x29500, symSize: 0x60 }
  - { offset: 0x4A479, size: 0x8, addend: 0x0, symName: __RINvNtNtCs6IAuOt8vWmF_3syn3gen5visit16visit_constraintNtNtCs2GZpXKFCdsl_11yoke_derive7visitor11TypeVisitorEBU_, symObjAddr: 0x42E0, symBinAddr: 0x29560, symSize: 0x128 }
  - { offset: 0x4A52C, size: 0x8, addend: 0x0, symName: __RINvNtNtCs6IAuOt8vWmF_3syn3gen5visit16visit_expr_arrayNtNtCs2GZpXKFCdsl_11yoke_derive7visitor11TypeVisitorEBU_, symObjAddr: 0x4408, symBinAddr: 0x29688, symSize: 0x128 }
  - { offset: 0x4A5F5, size: 0x8, addend: 0x0, symName: __RINvNtNtCs6IAuOt8vWmF_3syn3gen5visit16visit_expr_asyncNtNtCs2GZpXKFCdsl_11yoke_derive7visitor11TypeVisitorEBU_, symObjAddr: 0x4530, symBinAddr: 0x297B0, symSize: 0xA8 }
  - { offset: 0x4A66B, size: 0x8, addend: 0x0, symName: __RINvNtNtCs6IAuOt8vWmF_3syn3gen5visit16visit_expr_awaitNtNtCs2GZpXKFCdsl_11yoke_derive7visitor11TypeVisitorEBU_, symObjAddr: 0x45D8, symBinAddr: 0x29858, symSize: 0xD0 }
  - { offset: 0x4A6E1, size: 0x8, addend: 0x0, symName: __RINvNtNtCs6IAuOt8vWmF_3syn3gen5visit16visit_expr_blockNtNtCs2GZpXKFCdsl_11yoke_derive7visitor11TypeVisitorEBU_, symObjAddr: 0x46A8, symBinAddr: 0x29928, symSize: 0x100 }
  - { offset: 0x4A76D, size: 0x8, addend: 0x0, symName: __RINvNtNtCs6IAuOt8vWmF_3syn3gen5visit16visit_expr_breakNtNtCs2GZpXKFCdsl_11yoke_derive7visitor11TypeVisitorEBU_, symObjAddr: 0x47A8, symBinAddr: 0x29A28, symSize: 0x16C }
  - { offset: 0x4A80F, size: 0x8, addend: 0x0, symName: __RINvNtNtCs6IAuOt8vWmF_3syn3gen5visit16visit_expr_constNtNtCs2GZpXKFCdsl_11yoke_derive7visitor11TypeVisitorEBU_, symObjAddr: 0x4914, symBinAddr: 0x29B94, symSize: 0xA8 }
  - { offset: 0x4A885, size: 0x8, addend: 0x0, symName: __RINvNtNtCs6IAuOt8vWmF_3syn3gen5visit16visit_expr_fieldNtNtCs2GZpXKFCdsl_11yoke_derive7visitor11TypeVisitorEBU_, symObjAddr: 0x49BC, symBinAddr: 0x29C3C, symSize: 0xE0 }
  - { offset: 0x4A8FB, size: 0x8, addend: 0x0, symName: __RINvNtNtCs6IAuOt8vWmF_3syn3gen5visit16visit_expr_groupNtNtCs2GZpXKFCdsl_11yoke_derive7visitor11TypeVisitorEBU_, symObjAddr: 0x4A9C, symBinAddr: 0x29D1C, symSize: 0xD0 }
  - { offset: 0x4A971, size: 0x8, addend: 0x0, symName: __RINvNtNtCs6IAuOt8vWmF_3syn3gen5visit16visit_expr_indexNtNtCs2GZpXKFCdsl_11yoke_derive7visitor11TypeVisitorEBU_, symObjAddr: 0x4B6C, symBinAddr: 0x29DEC, symSize: 0x104 }
  - { offset: 0x4A9E7, size: 0x8, addend: 0x0, symName: __RINvNtNtCs6IAuOt8vWmF_3syn3gen5visit16visit_expr_inferNtNtCs2GZpXKFCdsl_11yoke_derive7visitor11TypeVisitorEBU_, symObjAddr: 0x4C70, symBinAddr: 0x29EF0, symSize: 0x98 }
  - { offset: 0x4AA5D, size: 0x8, addend: 0x0, symName: __RINvNtNtCs6IAuOt8vWmF_3syn3gen5visit16visit_expr_macroNtNtCs2GZpXKFCdsl_11yoke_derive7visitor11TypeVisitorEBU_, symObjAddr: 0x4D08, symBinAddr: 0x29F88, symSize: 0xA8 }
  - { offset: 0x4AAD3, size: 0x8, addend: 0x0, symName: __RINvNtNtCs6IAuOt8vWmF_3syn3gen5visit16visit_expr_matchNtNtCs2GZpXKFCdsl_11yoke_derive7visitor11TypeVisitorEBU_, symObjAddr: 0x4DB0, symBinAddr: 0x2A030, symSize: 0x130 }
  - { offset: 0x4AB7D, size: 0x8, addend: 0x0, symName: __RINvNtNtCs6IAuOt8vWmF_3syn3gen5visit16visit_expr_parenNtNtCs2GZpXKFCdsl_11yoke_derive7visitor11TypeVisitorEBU_, symObjAddr: 0x4EE0, symBinAddr: 0x2A160, symSize: 0xD0 }
  - { offset: 0x4ABF3, size: 0x8, addend: 0x0, symName: __RINvNtNtCs6IAuOt8vWmF_3syn3gen5visit16visit_expr_rangeNtNtCs2GZpXKFCdsl_11yoke_derive7visitor11TypeVisitorEBU_, symObjAddr: 0x4FB0, symBinAddr: 0x2A230, symSize: 0x1A4 }
  - { offset: 0x4AC95, size: 0x8, addend: 0x0, symName: __RINvNtNtCs6IAuOt8vWmF_3syn3gen5visit16visit_expr_tupleNtNtCs2GZpXKFCdsl_11yoke_derive7visitor11TypeVisitorEBU_, symObjAddr: 0x5154, symBinAddr: 0x2A3D4, symSize: 0x128 }
  - { offset: 0x4AD5E, size: 0x8, addend: 0x0, symName: __RINvNtNtCs6IAuOt8vWmF_3syn3gen5visit16visit_expr_unaryNtNtCs2GZpXKFCdsl_11yoke_derive7visitor11TypeVisitorEBU_, symObjAddr: 0x527C, symBinAddr: 0x2A4FC, symSize: 0xE0 }
  - { offset: 0x4ADD4, size: 0x8, addend: 0x0, symName: __RINvNtNtCs6IAuOt8vWmF_3syn3gen5visit16visit_expr_whileNtNtCs2GZpXKFCdsl_11yoke_derive7visitor11TypeVisitorEBU_, symObjAddr: 0x535C, symBinAddr: 0x2A5DC, symSize: 0x134 }
  - { offset: 0x4AE60, size: 0x8, addend: 0x0, symName: __RINvNtNtCs6IAuOt8vWmF_3syn3gen5visit16visit_expr_yieldNtNtCs2GZpXKFCdsl_11yoke_derive7visitor11TypeVisitorEBU_, symObjAddr: 0x5490, symBinAddr: 0x2A710, symSize: 0x118 }
  - { offset: 0x4AEEC, size: 0x8, addend: 0x0, symName: __RINvNtNtCs6IAuOt8vWmF_3syn3gen5visit16visit_item_constNtNtCs2GZpXKFCdsl_11yoke_derive7visitor11TypeVisitorEBU_, symObjAddr: 0x55A8, symBinAddr: 0x2A828, symSize: 0x134 }
  - { offset: 0x4AF62, size: 0x8, addend: 0x0, symName: __RINvNtNtCs6IAuOt8vWmF_3syn3gen5visit16visit_item_macroNtNtCs2GZpXKFCdsl_11yoke_derive7visitor11TypeVisitorEBU_, symObjAddr: 0x56DC, symBinAddr: 0x2A95C, symSize: 0x100 }
  - { offset: 0x4AFEE, size: 0x8, addend: 0x0, symName: __RINvNtNtCs6IAuOt8vWmF_3syn3gen5visit16visit_item_traitNtNtCs2GZpXKFCdsl_11yoke_derive7visitor11TypeVisitorEBU_, symObjAddr: 0x57DC, symBinAddr: 0x2AA5C, symSize: 0x1BC }
  - { offset: 0x4B107, size: 0x8, addend: 0x0, symName: __RINvNtNtCs6IAuOt8vWmF_3syn3gen5visit16visit_item_unionNtNtCs2GZpXKFCdsl_11yoke_derive7visitor11TypeVisitorEBU_, symObjAddr: 0x5998, symBinAddr: 0x2AC18, symSize: 0xD8 }
  - { offset: 0x4B17D, size: 0x8, addend: 0x0, symName: __RINvNtNtCs6IAuOt8vWmF_3syn3gen5visit16visit_local_initNtNtCs2GZpXKFCdsl_11yoke_derive7visitor11TypeVisitorEBU_, symObjAddr: 0x5A70, symBinAddr: 0x2ACF0, symSize: 0xE8 }
  - { offset: 0x4B1D5, size: 0x8, addend: 0x0, symName: __RINvNtNtCs6IAuOt8vWmF_3syn3gen5visit16visit_pat_structNtNtCs2GZpXKFCdsl_11yoke_derive7visitor11TypeVisitorEBU_, symObjAddr: 0x5B58, symBinAddr: 0x2ADD8, symSize: 0x1E8 }
  - { offset: 0x4B2CA, size: 0x8, addend: 0x0, symName: __RINvNtNtCs6IAuOt8vWmF_3syn3gen5visit16visit_stmt_macroNtNtCs2GZpXKFCdsl_11yoke_derive7visitor11TypeVisitorEBU_, symObjAddr: 0x5D40, symBinAddr: 0x2AFC0, symSize: 0xA8 }
  - { offset: 0x4B340, size: 0x8, addend: 0x0, symName: __RINvNtNtCs6IAuOt8vWmF_3syn3gen5visit16visit_trait_itemNtNtCs2GZpXKFCdsl_11yoke_derive7visitor11TypeVisitorEBU_, symObjAddr: 0x5DE8, symBinAddr: 0x2B068, symSize: 0x168 }
  - { offset: 0x4B410, size: 0x8, addend: 0x0, symName: __RINvNtNtCs6IAuOt8vWmF_3syn3gen5visit16visit_type_arrayNtNtCs2GZpXKFCdsl_11yoke_derive7visitor11TypeVisitorEBU_, symObjAddr: 0x5F50, symBinAddr: 0x2B1D0, symSize: 0x78 }
  - { offset: 0x4B452, size: 0x8, addend: 0x0, symName: __RINvNtNtCs6IAuOt8vWmF_3syn3gen5visit16visit_type_groupNtNtCs2GZpXKFCdsl_11yoke_derive7visitor11TypeVisitorEBU_, symObjAddr: 0x5FC8, symBinAddr: 0x2B248, symSize: 0x68 }
  - { offset: 0x4B494, size: 0x8, addend: 0x0, symName: __RINvNtNtCs6IAuOt8vWmF_3syn3gen5visit16visit_type_inferNtNtCs2GZpXKFCdsl_11yoke_derive7visitor11TypeVisitorEBU_, symObjAddr: 0x6030, symBinAddr: 0x2B2B0, symSize: 0x24 }
  - { offset: 0x4B4D6, size: 0x8, addend: 0x0, symName: __RINvNtNtCs6IAuOt8vWmF_3syn3gen5visit16visit_type_macroNtNtCs2GZpXKFCdsl_11yoke_derive7visitor11TypeVisitorEBU_, symObjAddr: 0x6054, symBinAddr: 0x2B2D4, symSize: 0x3C }
  - { offset: 0x4B518, size: 0x8, addend: 0x0, symName: __RINvNtNtCs6IAuOt8vWmF_3syn3gen5visit16visit_type_neverNtNtCs2GZpXKFCdsl_11yoke_derive7visitor11TypeVisitorEBU_, symObjAddr: 0x6090, symBinAddr: 0x2B310, symSize: 0x24 }
  - { offset: 0x4B55A, size: 0x8, addend: 0x0, symName: __RINvNtNtCs6IAuOt8vWmF_3syn3gen5visit16visit_type_paramNtNtCs2GZpXKFCdsl_11yoke_derive7visitor11TypeVisitorEBU_, symObjAddr: 0x60B4, symBinAddr: 0x2B334, symSize: 0x184 }
  - { offset: 0x4B639, size: 0x8, addend: 0x0, symName: __RINvNtNtCs6IAuOt8vWmF_3syn3gen5visit16visit_type_parenNtNtCs2GZpXKFCdsl_11yoke_derive7visitor11TypeVisitorEBU_, symObjAddr: 0x6238, symBinAddr: 0x2B4B8, symSize: 0x68 }
  - { offset: 0x4B67B, size: 0x8, addend: 0x0, symName: __RINvNtNtCs6IAuOt8vWmF_3syn3gen5visit16visit_type_sliceNtNtCs2GZpXKFCdsl_11yoke_derive7visitor11TypeVisitorEBU_, symObjAddr: 0x62A0, symBinAddr: 0x2B520, symSize: 0x68 }
  - { offset: 0x4B6BD, size: 0x8, addend: 0x0, symName: __RINvNtNtCs6IAuOt8vWmF_3syn3gen5visit16visit_type_tupleNtNtCs2GZpXKFCdsl_11yoke_derive7visitor11TypeVisitorEBU_, symObjAddr: 0x6308, symBinAddr: 0x2B588, symSize: 0xC8 }
  - { offset: 0x4B752, size: 0x8, addend: 0x0, symName: __RINvNtNtCs6IAuOt8vWmF_3syn3gen5visit16visit_use_renameNtNtCs2GZpXKFCdsl_11yoke_derive7visitor11TypeVisitorEBU_, symObjAddr: 0x63D0, symBinAddr: 0x2B650, symSize: 0x50 }
  - { offset: 0x4B794, size: 0x8, addend: 0x0, symName: __RINvNtNtCs6IAuOt8vWmF_3syn3gen5visit16visit_visibilityNtNtCs2GZpXKFCdsl_11yoke_derive7visitor11TypeVisitorEBU_, symObjAddr: 0x6420, symBinAddr: 0x2B6A0, symSize: 0xC4 }
  - { offset: 0x4B7F4, size: 0x8, addend: 0x0, symName: __RINvNtNtCs6IAuOt8vWmF_3syn3gen5visit17visit_assoc_constNtNtCs2GZpXKFCdsl_11yoke_derive7visitor11TypeVisitorEBV_, symObjAddr: 0x64E4, symBinAddr: 0x2B764, symSize: 0xA8 }
  - { offset: 0x4B854, size: 0x8, addend: 0x0, symName: __RINvNtNtCs6IAuOt8vWmF_3syn3gen5visit17visit_bare_fn_argNtNtCs2GZpXKFCdsl_11yoke_derive7visitor11TypeVisitorEBV_, symObjAddr: 0x658C, symBinAddr: 0x2B80C, symSize: 0xF8 }
  - { offset: 0x4B8E0, size: 0x8, addend: 0x0, symName: __RINvNtNtCs6IAuOt8vWmF_3syn3gen5visit17visit_const_paramNtNtCs2GZpXKFCdsl_11yoke_derive7visitor11TypeVisitorEBV_, symObjAddr: 0x6684, symBinAddr: 0x2B904, symSize: 0x108 }
  - { offset: 0x4B96C, size: 0x8, addend: 0x0, symName: __RINvNtNtCs6IAuOt8vWmF_3syn3gen5visit17visit_expr_assignNtNtCs2GZpXKFCdsl_11yoke_derive7visitor11TypeVisitorEBV_, symObjAddr: 0x678C, symBinAddr: 0x2BA0C, symSize: 0x104 }
  - { offset: 0x4B9E2, size: 0x8, addend: 0x0, symName: __RINvNtNtCs6IAuOt8vWmF_3syn3gen5visit17visit_expr_binaryNtNtCs2GZpXKFCdsl_11yoke_derive7visitor11TypeVisitorEBV_, symObjAddr: 0x6890, symBinAddr: 0x2BB10, symSize: 0x114 }
  - { offset: 0x4BA58, size: 0x8, addend: 0x0, symName: __RINvNtNtCs6IAuOt8vWmF_3syn3gen5visit17visit_expr_repeatNtNtCs2GZpXKFCdsl_11yoke_derive7visitor11TypeVisitorEBV_, symObjAddr: 0x69A4, symBinAddr: 0x2BC24, symSize: 0x104 }
  - { offset: 0x4BACE, size: 0x8, addend: 0x0, symName: __RINvNtNtCs6IAuOt8vWmF_3syn3gen5visit17visit_expr_returnNtNtCs2GZpXKFCdsl_11yoke_derive7visitor11TypeVisitorEBV_, symObjAddr: 0x6AA8, symBinAddr: 0x2BD28, symSize: 0x118 }
  - { offset: 0x4BB5A, size: 0x8, addend: 0x0, symName: __RINvNtNtCs6IAuOt8vWmF_3syn3gen5visit17visit_expr_structNtNtCs2GZpXKFCdsl_11yoke_derive7visitor11TypeVisitorEBV_, symObjAddr: 0x6BC0, symBinAddr: 0x2BE40, symSize: 0x214 }
  - { offset: 0x4BC50, size: 0x8, addend: 0x0, symName: __RINvNtNtCs6IAuOt8vWmF_3syn3gen5visit17visit_expr_unsafeNtNtCs2GZpXKFCdsl_11yoke_derive7visitor11TypeVisitorEBV_, symObjAddr: 0x6DD4, symBinAddr: 0x2C054, symSize: 0xA8 }
  - { offset: 0x4BCC6, size: 0x8, addend: 0x0, symName: __RINvNtNtCs6IAuOt8vWmF_3syn3gen5visit17visit_field_valueNtNtCs2GZpXKFCdsl_11yoke_derive7visitor11TypeVisitorEBV_, symObjAddr: 0x6E7C, symBinAddr: 0x2C0FC, symSize: 0xB0 }
  - { offset: 0x4BD3C, size: 0x8, addend: 0x0, symName: __RINvNtNtCs6IAuOt8vWmF_3syn3gen5visit17visit_item_staticNtNtCs2GZpXKFCdsl_11yoke_derive7visitor11TypeVisitorEBV_, symObjAddr: 0x6F2C, symBinAddr: 0x2C1AC, symSize: 0x134 }
  - { offset: 0x4BDB2, size: 0x8, addend: 0x0, symName: __RINvNtNtCs6IAuOt8vWmF_3syn3gen5visit17visit_item_structNtNtCs2GZpXKFCdsl_11yoke_derive7visitor11TypeVisitorEBV_, symObjAddr: 0x7060, symBinAddr: 0x2C2E0, symSize: 0xD0 }
  - { offset: 0x4BE28, size: 0x8, addend: 0x0, symName: __RINvNtNtCs6IAuOt8vWmF_3syn3gen5visit17visit_return_typeNtNtCs2GZpXKFCdsl_11yoke_derive7visitor11TypeVisitorEBV_, symObjAddr: 0x7130, symBinAddr: 0x2C3B0, symSize: 0xB0 }
  - { offset: 0x4BE90, size: 0x8, addend: 0x0, symName: __RINvNtNtCs6IAuOt8vWmF_3syn3gen5visit17visit_trait_boundNtNtCs2GZpXKFCdsl_11yoke_derive7visitor11TypeVisitorEBV_, symObjAddr: 0x71E0, symBinAddr: 0x2C460, symSize: 0xA8 }
  - { offset: 0x4BEF0, size: 0x8, addend: 0x0, symName: __RINvNtNtCs6IAuOt8vWmF_3syn3gen5visit18visit_expr_closureNtNtCs2GZpXKFCdsl_11yoke_derive7visitor11TypeVisitorEBW_, symObjAddr: 0x7288, symBinAddr: 0x2C508, symSize: 0x1C8 }
  - { offset: 0x4BFCF, size: 0x8, addend: 0x0, symName: __RINvNtNtCs6IAuOt8vWmF_3syn3gen5visit18visit_fields_namedNtNtCs2GZpXKFCdsl_11yoke_derive7visitor11TypeVisitorEBW_, symObjAddr: 0x7450, symBinAddr: 0x2C6D0, symSize: 0xC8 }
  - { offset: 0x4C064, size: 0x8, addend: 0x0, symName: __RINvNtNtCs6IAuOt8vWmF_3syn3gen5visit18visit_foreign_itemNtNtCs2GZpXKFCdsl_11yoke_derive7visitor11TypeVisitorEBW_, symObjAddr: 0x7518, symBinAddr: 0x2C798, symSize: 0x168 }
  - { offset: 0x4C134, size: 0x8, addend: 0x0, symName: __RINvNtNtCs6IAuOt8vWmF_3syn3gen5visit18visit_impl_item_fnNtNtCs2GZpXKFCdsl_11yoke_derive7visitor11TypeVisitorEBW_, symObjAddr: 0x7680, symBinAddr: 0x2C900, symSize: 0xC0 }
  - { offset: 0x4C1AA, size: 0x8, addend: 0x0, symName: __RINvNtNtCs6IAuOt8vWmF_3syn3gen5visit18visit_lit_byte_strNtNtCs2GZpXKFCdsl_11yoke_derive7visitor11TypeVisitorEBW_, symObjAddr: 0x7740, symBinAddr: 0x2C9C0, symSize: 0x24 }
  - { offset: 0x4C1EC, size: 0x8, addend: 0x0, symName: __RINvNtNtCs6IAuOt8vWmF_3syn3gen5visit18visit_path_segmentNtNtCs2GZpXKFCdsl_11yoke_derive7visitor11TypeVisitorEBW_, symObjAddr: 0x7764, symBinAddr: 0x2C9E4, symSize: 0x50 }
  - { offset: 0x4C22E, size: 0x8, addend: 0x0, symName: __RINvNtNtCs6IAuOt8vWmF_3syn3gen5visit18visit_range_limitsNtNtCs2GZpXKFCdsl_11yoke_derive7visitor11TypeVisitorEBW_, symObjAddr: 0x77B4, symBinAddr: 0x2CA34, symSize: 0x6C }
  - { offset: 0x4C270, size: 0x8, addend: 0x0, symName: __RINvNtNtCs6IAuOt8vWmF_3syn3gen5visit18visit_type_bare_fnNtNtCs2GZpXKFCdsl_11yoke_derive7visitor11TypeVisitorEBW_, symObjAddr: 0x7820, symBinAddr: 0x2CAA0, symSize: 0x1CC }
  - { offset: 0x4C357, size: 0x8, addend: 0x0, symName: __RINvNtNtCs6IAuOt8vWmF_3syn3gen5visit18visit_where_clauseNtNtCs2GZpXKFCdsl_11yoke_derive7visitor11TypeVisitorEBW_, symObjAddr: 0x79EC, symBinAddr: 0x2CC6C, symSize: 0xC8 }
  - { offset: 0x4C3EC, size: 0x8, addend: 0x0, symName: __RINvNtNtCs6IAuOt8vWmF_3syn3gen5visit19visit_bare_variadicNtNtCs2GZpXKFCdsl_11yoke_derive7visitor11TypeVisitorEBX_, symObjAddr: 0x7AB4, symBinAddr: 0x2CD34, symSize: 0xF0 }
  - { offset: 0x4C478, size: 0x8, addend: 0x0, symName: __RINvNtNtCs6IAuOt8vWmF_3syn3gen5visit19visit_expr_continueNtNtCs2GZpXKFCdsl_11yoke_derive7visitor11TypeVisitorEBX_, symObjAddr: 0x7BA4, symBinAddr: 0x2CE24, symSize: 0xF0 }
  - { offset: 0x4C504, size: 0x8, addend: 0x0, symName: __RINvNtNtCs6IAuOt8vWmF_3syn3gen5visit19visit_expr_for_loopNtNtCs2GZpXKFCdsl_11yoke_derive7visitor11TypeVisitorEBX_, symObjAddr: 0x7C94, symBinAddr: 0x2CF14, symSize: 0x168 }
  - { offset: 0x4C590, size: 0x8, addend: 0x0, symName: __RINvNtNtCs6IAuOt8vWmF_3syn3gen5visit19visit_expr_raw_addrNtNtCs2GZpXKFCdsl_11yoke_derive7visitor11TypeVisitorEBX_, symObjAddr: 0x7DFC, symBinAddr: 0x2D07C, symSize: 0xE0 }
  - { offset: 0x4C606, size: 0x8, addend: 0x0, symName: __RINvNtNtCs6IAuOt8vWmF_3syn3gen5visit19visit_generic_paramNtNtCs2GZpXKFCdsl_11yoke_derive7visitor11TypeVisitorEBX_, symObjAddr: 0x7EDC, symBinAddr: 0x2D15C, symSize: 0xE8 }
  - { offset: 0x4C69A, size: 0x8, addend: 0x0, symName: __RINvNtNtCs6IAuOt8vWmF_3syn3gen5visit19visit_pat_referenceNtNtCs2GZpXKFCdsl_11yoke_derive7visitor11TypeVisitorEBX_, symObjAddr: 0x7FC4, symBinAddr: 0x2D244, symSize: 0xD0 }
  - { offset: 0x4C710, size: 0x8, addend: 0x0, symName: __RINvNtNtCs6IAuOt8vWmF_3syn3gen5visit19visit_trait_item_fnNtNtCs2GZpXKFCdsl_11yoke_derive7visitor11TypeVisitorEBX_, symObjAddr: 0x8094, symBinAddr: 0x2D314, symSize: 0xFC }
  - { offset: 0x4C79C, size: 0x8, addend: 0x0, symName: __RINvNtNtCs6IAuOt8vWmF_3syn3gen5visit20visit_captured_paramNtNtCs2GZpXKFCdsl_11yoke_derive7visitor11TypeVisitorEBY_, symObjAddr: 0x8190, symBinAddr: 0x2D410, symSize: 0x94 }
  - { offset: 0x4C812, size: 0x8, addend: 0x0, symName: __RINvNtNtCs6IAuOt8vWmF_3syn3gen5visit20visit_expr_referenceNtNtCs2GZpXKFCdsl_11yoke_derive7visitor11TypeVisitorEBY_, symObjAddr: 0x8224, symBinAddr: 0x2D4A4, symSize: 0xD0 }
  - { offset: 0x4C888, size: 0x8, addend: 0x0, symName: __RINvNtNtCs6IAuOt8vWmF_3syn3gen5visit20visit_expr_try_blockNtNtCs2GZpXKFCdsl_11yoke_derive7visitor11TypeVisitorEBY_, symObjAddr: 0x82F4, symBinAddr: 0x2D574, symSize: 0xA8 }
  - { offset: 0x4C8FE, size: 0x8, addend: 0x0, symName: __RINvNtNtCs6IAuOt8vWmF_3syn3gen5visit20visit_fields_unnamedNtNtCs2GZpXKFCdsl_11yoke_derive7visitor11TypeVisitorEBY_, symObjAddr: 0x839C, symBinAddr: 0x2D61C, symSize: 0xC8 }
  - { offset: 0x4C993, size: 0x8, addend: 0x0, symName: __RINvNtNtCs6IAuOt8vWmF_3syn3gen5visit20visit_impl_item_typeNtNtCs2GZpXKFCdsl_11yoke_derive7visitor11TypeVisitorEBY_, symObjAddr: 0x8464, symBinAddr: 0x2D6E4, symSize: 0xD0 }
  - { offset: 0x4CA09, size: 0x8, addend: 0x0, symName: __RINvNtNtCs6IAuOt8vWmF_3syn3gen5visit20visit_lifetime_paramNtNtCs2GZpXKFCdsl_11yoke_derive7visitor11TypeVisitorEBY_, symObjAddr: 0x8534, symBinAddr: 0x2D7B4, symSize: 0x138 }
  - { offset: 0x4CAD2, size: 0x8, addend: 0x0, symName: __RINvNtNtCs6IAuOt8vWmF_3syn3gen5visit20visit_path_argumentsNtNtCs2GZpXKFCdsl_11yoke_derive7visitor11TypeVisitorEBY_, symObjAddr: 0x866C, symBinAddr: 0x2D8EC, symSize: 0xD4 }
  - { offset: 0x4CB48, size: 0x8, addend: 0x0, symName: __RINvNtNtCs6IAuOt8vWmF_3syn3gen5visit20visit_predicate_typeNtNtCs2GZpXKFCdsl_11yoke_derive7visitor11TypeVisitorEBY_, symObjAddr: 0x8740, symBinAddr: 0x2D9C0, symSize: 0x128 }
  - { offset: 0x4CBFB, size: 0x8, addend: 0x0, symName: __RINvNtNtCs6IAuOt8vWmF_3syn3gen5visit20visit_type_referenceNtNtCs2GZpXKFCdsl_11yoke_derive7visitor11TypeVisitorEBY_, symObjAddr: 0x8868, symBinAddr: 0x2DAE8, symSize: 0xBC }
  - { offset: 0x4CC5B, size: 0x8, addend: 0x0, symName: __RINvNtNtCs6IAuOt8vWmF_3syn3gen5visit20visit_vis_restrictedNtNtCs2GZpXKFCdsl_11yoke_derive7visitor11TypeVisitorEBY_, symObjAddr: 0x8924, symBinAddr: 0x2DBA4, symSize: 0x68 }
  - { offset: 0x4CC9D, size: 0x8, addend: 0x0, symName: __RINvNtNtCs6IAuOt8vWmF_3syn3gen5visit21visit_bound_lifetimesNtNtCs2GZpXKFCdsl_11yoke_derive7visitor11TypeVisitorEBZ_, symObjAddr: 0x898C, symBinAddr: 0x2DC0C, symSize: 0xC8 }
  - { offset: 0x4CD32, size: 0x8, addend: 0x0, symName: __RINvNtNtCs6IAuOt8vWmF_3syn3gen5visit21visit_foreign_item_fnNtNtCs2GZpXKFCdsl_11yoke_derive7visitor11TypeVisitorEBZ_, symObjAddr: 0x8A54, symBinAddr: 0x2DCD4, symSize: 0xB0 }
  - { offset: 0x4CDA8, size: 0x8, addend: 0x0, symName: __RINvNtNtCs6IAuOt8vWmF_3syn3gen5visit21visit_impl_item_constNtNtCs2GZpXKFCdsl_11yoke_derive7visitor11TypeVisitorEBZ_, symObjAddr: 0x8B04, symBinAddr: 0x2DD84, symSize: 0xE0 }
  - { offset: 0x4CE1E, size: 0x8, addend: 0x0, symName: __RINvNtNtCs6IAuOt8vWmF_3syn3gen5visit21visit_impl_item_macroNtNtCs2GZpXKFCdsl_11yoke_derive7visitor11TypeVisitorEBZ_, symObjAddr: 0x8BE4, symBinAddr: 0x2DE64, symSize: 0xA8 }
  - { offset: 0x4CE94, size: 0x8, addend: 0x0, symName: __RINvNtNtCs6IAuOt8vWmF_3syn3gen5visit21visit_macro_delimiterNtNtCs2GZpXKFCdsl_11yoke_derive7visitor11TypeVisitorEBZ_, symObjAddr: 0x8C8C, symBinAddr: 0x2DF0C, symSize: 0xA8 }
  - { offset: 0x4CED6, size: 0x8, addend: 0x0, symName: __RINvNtNtCs6IAuOt8vWmF_3syn3gen5visit21visit_meta_name_valueNtNtCs2GZpXKFCdsl_11yoke_derive7visitor11TypeVisitorEBZ_, symObjAddr: 0x8D34, symBinAddr: 0x2DFB4, symSize: 0x50 }
  - { offset: 0x4CF18, size: 0x8, addend: 0x0, symName: __RINvNtNtCs6IAuOt8vWmF_3syn3gen5visit21visit_precise_captureNtNtCs2GZpXKFCdsl_11yoke_derive7visitor11TypeVisitorEBZ_, symObjAddr: 0x8D84, symBinAddr: 0x2E004, symSize: 0xC8 }
  - { offset: 0x4CFAD, size: 0x8, addend: 0x0, symName: __RINvNtNtCs6IAuOt8vWmF_3syn3gen5visit21visit_trait_item_typeNtNtCs2GZpXKFCdsl_11yoke_derive7visitor11TypeVisitorEBZ_, symObjAddr: 0x8E4C, symBinAddr: 0x2E0CC, symSize: 0x198 }
  - { offset: 0x4D08C, size: 0x8, addend: 0x0, symName: __RINvNtNtCs6IAuOt8vWmF_3syn3gen5visit21visit_type_impl_traitNtNtCs2GZpXKFCdsl_11yoke_derive7visitor11TypeVisitorEBZ_, symObjAddr: 0x8FE4, symBinAddr: 0x2E264, symSize: 0xC8 }
  - { offset: 0x4D121, size: 0x8, addend: 0x0, symName: __RINvNtNtCs6IAuOt8vWmF_3syn3gen5visit21visit_where_predicateNtNtCs2GZpXKFCdsl_11yoke_derive7visitor11TypeVisitorEBZ_, symObjAddr: 0x90AC, symBinAddr: 0x2E32C, symSize: 0x98 }
  - { offset: 0x4D197, size: 0x8, addend: 0x0, symName: __RINvNtNtCs6IAuOt8vWmF_3syn3gen5visit22visit_expr_method_callNtNtCs2GZpXKFCdsl_11yoke_derive7visitor11TypeVisitorEB10_, symObjAddr: 0x9144, symBinAddr: 0x2E3C4, symSize: 0x1C8 }
  - { offset: 0x4D276, size: 0x8, addend: 0x0, symName: __RINvNtNtCs6IAuOt8vWmF_3syn3gen5visit22visit_field_mutabilityNtNtCs2GZpXKFCdsl_11yoke_derive7visitor11TypeVisitorEB10_, symObjAddr: 0x930C, symBinAddr: 0x2E58C, symSize: 0x24 }
  - { offset: 0x4D2B8, size: 0x8, addend: 0x0, symName: __RINvNtNtCs6IAuOt8vWmF_3syn3gen5visit22visit_generic_argumentNtNtCs2GZpXKFCdsl_11yoke_derive7visitor11TypeVisitorEB10_, symObjAddr: 0x9330, symBinAddr: 0x2E5B0, symSize: 0x1A8 }
  - { offset: 0x4D3A6, size: 0x8, addend: 0x0, symName: __RINvNtNtCs6IAuOt8vWmF_3syn3gen5visit22visit_item_foreign_modNtNtCs2GZpXKFCdsl_11yoke_derive7visitor11TypeVisitorEB10_, symObjAddr: 0x94D8, symBinAddr: 0x2E758, symSize: 0x108 }
  - { offset: 0x4D450, size: 0x8, addend: 0x0, symName: __RINvNtNtCs6IAuOt8vWmF_3syn3gen5visit22visit_item_trait_aliasNtNtCs2GZpXKFCdsl_11yoke_derive7visitor11TypeVisitorEB10_, symObjAddr: 0x95E0, symBinAddr: 0x2E860, symSize: 0x158 }
  - { offset: 0x4D519, size: 0x8, addend: 0x0, symName: __RINvNtNtCs6IAuOt8vWmF_3syn3gen5visit22visit_pat_tuple_structNtNtCs2GZpXKFCdsl_11yoke_derive7visitor11TypeVisitorEB10_, symObjAddr: 0x9738, symBinAddr: 0x2E9B8, symSize: 0x190 }
  - { offset: 0x4D5F8, size: 0x8, addend: 0x0, symName: __RINvNtNtCs6IAuOt8vWmF_3syn3gen5visit22visit_trait_item_constNtNtCs2GZpXKFCdsl_11yoke_derive7visitor11TypeVisitorEB10_, symObjAddr: 0x98C8, symBinAddr: 0x2EB48, symSize: 0x11C }
  - { offset: 0x4D684, size: 0x8, addend: 0x0, symName: __RINvNtNtCs6IAuOt8vWmF_3syn3gen5visit22visit_trait_item_macroNtNtCs2GZpXKFCdsl_11yoke_derive7visitor11TypeVisitorEB10_, symObjAddr: 0x99E4, symBinAddr: 0x2EC64, symSize: 0xA8 }
  - { offset: 0x4D6FA, size: 0x8, addend: 0x0, symName: __RINvNtNtCs6IAuOt8vWmF_3syn3gen5visit22visit_type_param_boundNtNtCs2GZpXKFCdsl_11yoke_derive7visitor11TypeVisitorEB10_, symObjAddr: 0x9A8C, symBinAddr: 0x2ED0C, symSize: 0x12C }
  - { offset: 0x4D7AC, size: 0x8, addend: 0x0, symName: __RINvNtNtCs6IAuOt8vWmF_3syn3gen5visit23visit_foreign_item_typeNtNtCs2GZpXKFCdsl_11yoke_derive7visitor11TypeVisitorEB11_, symObjAddr: 0x9BB8, symBinAddr: 0x2EE38, symSize: 0xC8 }
  - { offset: 0x4D822, size: 0x8, addend: 0x0, symName: __RINvNtNtCs6IAuOt8vWmF_3syn3gen5visit23visit_item_extern_crateNtNtCs2GZpXKFCdsl_11yoke_derive7visitor11TypeVisitorEB11_, symObjAddr: 0x9C80, symBinAddr: 0x2EF00, symSize: 0x114 }
  - { offset: 0x4D8AE, size: 0x8, addend: 0x0, symName: __RINvNtNtCs6IAuOt8vWmF_3syn3gen5visit23visit_static_mutabilityNtNtCs2GZpXKFCdsl_11yoke_derive7visitor11TypeVisitorEB11_, symObjAddr: 0x9D94, symBinAddr: 0x2F014, symSize: 0x60 }
  - { offset: 0x4D8F0, size: 0x8, addend: 0x0, symName: __RINvNtNtCs6IAuOt8vWmF_3syn3gen5visit23visit_type_trait_objectNtNtCs2GZpXKFCdsl_11yoke_derive7visitor11TypeVisitorEB11_, symObjAddr: 0x9DF4, symBinAddr: 0x2F074, symSize: 0xC8 }
  - { offset: 0x4D985, size: 0x8, addend: 0x0, symName: __RINvNtNtCs6IAuOt8vWmF_3syn3gen5visit24visit_foreign_item_macroNtNtCs2GZpXKFCdsl_11yoke_derive7visitor11TypeVisitorEB12_, symObjAddr: 0x9EBC, symBinAddr: 0x2F13C, symSize: 0xA8 }
  - { offset: 0x4D9FB, size: 0x8, addend: 0x0, symName: __RINvNtNtCs6IAuOt8vWmF_3syn3gen5visit24visit_pointer_mutabilityNtNtCs2GZpXKFCdsl_11yoke_derive7visitor11TypeVisitorEB12_, symObjAddr: 0x9F64, symBinAddr: 0x2F1E4, symSize: 0x6C }
  - { offset: 0x4DA3D, size: 0x8, addend: 0x0, symName: __RINvNtNtCs6IAuOt8vWmF_3syn3gen5visit24visit_predicate_lifetimeNtNtCs2GZpXKFCdsl_11yoke_derive7visitor11TypeVisitorEB12_, symObjAddr: 0x9FD0, symBinAddr: 0x2F250, symSize: 0xD0 }
  - { offset: 0x4DAD2, size: 0x8, addend: 0x0, symName: __RINvNtNtCs6IAuOt8vWmF_3syn3gen5visit25visit_foreign_item_staticNtNtCs2GZpXKFCdsl_11yoke_derive7visitor11TypeVisitorEB13_, symObjAddr: 0xA0A0, symBinAddr: 0x2F320, symSize: 0x100 }
  - { offset: 0x4DB48, size: 0x8, addend: 0x0, symName: __RINvNtNtCs6IAuOt8vWmF_3syn3gen5visit26visit_trait_bound_modifierNtNtCs2GZpXKFCdsl_11yoke_derive7visitor11TypeVisitorEB14_, symObjAddr: 0xA1A0, symBinAddr: 0x2F420, symSize: 0x60 }
  - { offset: 0x4DB8A, size: 0x8, addend: 0x0, symName: __RINvNtNtCs6IAuOt8vWmF_3syn3gen5visit37visit_parenthesized_generic_argumentsNtNtCs2GZpXKFCdsl_11yoke_derive7visitor11TypeVisitorEB1f_, symObjAddr: 0xA200, symBinAddr: 0x2F480, symSize: 0xD8 }
  - { offset: 0x4DC1F, size: 0x8, addend: 0x0, symName: __RINvNtNtCs6IAuOt8vWmF_3syn3gen5visit39visit_angle_bracketed_generic_argumentsNtNtCs2GZpXKFCdsl_11yoke_derive7visitor11TypeVisitorEB1h_, symObjAddr: 0xA2D8, symBinAddr: 0x2F558, symSize: 0xC8 }
  - { offset: 0x4DCB4, size: 0x8, addend: 0x0, symName: __RINvNtNtCs6IAuOt8vWmF_3syn3gen5visit9visit_abiNtNtCs2GZpXKFCdsl_11yoke_derive7visitor11TypeVisitorEBM_, symObjAddr: 0xA3A0, symBinAddr: 0x2F620, symSize: 0x84 }
  - { offset: 0x4DD14, size: 0x8, addend: 0x0, symName: __RINvNtNtCs6IAuOt8vWmF_3syn3gen5visit9visit_armNtNtCs2GZpXKFCdsl_11yoke_derive7visitor11TypeVisitorEBM_, symObjAddr: 0xA424, symBinAddr: 0x2F6A4, symSize: 0x15C }
  - { offset: 0x4DDA0, size: 0x8, addend: 0x0, symName: __RINvNtNtCs6IAuOt8vWmF_3syn3gen5visit9visit_litNtNtCs2GZpXKFCdsl_11yoke_derive7visitor11TypeVisitorEBM_, symObjAddr: 0xA580, symBinAddr: 0x2F800, symSize: 0x264 }
  - { offset: 0x4DED2, size: 0x8, addend: 0x0, symName: __RINvNtNtCs6IAuOt8vWmF_3syn3gen5visit9visit_patNtNtCs2GZpXKFCdsl_11yoke_derive7visitor11TypeVisitorEBM_, symObjAddr: 0xA7E4, symBinAddr: 0x2FA64, symSize: 0x390 }
  - { offset: 0x58E69, size: 0x8, addend: 0x0, symName: __RINvNtCs6IAuOt8vWmF_3syn10punctuated4foldNtNtB4_2ty4TypeNtNtB4_5token5CommaNtNvCs2GZpXKFCdsl_11yoke_derive16replace_lifetime15ReplaceLifetimeNvYB1b_NtNtNtB4_3gen4fold4Fold9fold_typeEB1f_, symObjAddr: 0x0, symBinAddr: 0x2FDF4, symSize: 0x2FC }
  - { offset: 0x5A5A7, size: 0x8, addend: 0x0, symName: __RNvXs0_NtNtCse1nGBsou5OW_5alloc3vec16in_place_collectINtNtNtNtCsfvfooZQ3Axs_4core4iter8adapters3map3MapINtNtB7_9into_iter8IntoIterNtNtCs6IAuOt8vWmF_3syn4attr9AttributeENCINvNtNtB28_3gen4fold8fold_vecB24_NtNvCs2GZpXKFCdsl_11yoke_derive16replace_lifetime15ReplaceLifetimeNvYB3f_NtB2L_4Fold14fold_attributeE0EINtB5_18SpecInPlaceCollectB24_BP_E16collect_in_placeB3j_, symObjAddr: 0x76D4, symBinAddr: 0x374C8, symSize: 0xC8 }
  - { offset: 0x5A6F6, size: 0x8, addend: 0x0, symName: __RNvXs0_NtNtCse1nGBsou5OW_5alloc3vec16in_place_collectINtNtNtNtCsfvfooZQ3Axs_4core4iter8adapters3map3MapINtNtB7_9into_iter8IntoIterNtNtCs6IAuOt8vWmF_3syn4expr3ArmENCINvNtNtB28_3gen4fold8fold_vecB24_NtNvCs2GZpXKFCdsl_11yoke_derive16replace_lifetime15ReplaceLifetimeNvYB39_NtB2F_4Fold8fold_armE0EINtB5_18SpecInPlaceCollectB24_BP_E16collect_in_placeB3d_, symObjAddr: 0x779C, symBinAddr: 0x37590, symSize: 0xC8 }
  - { offset: 0x5A845, size: 0x8, addend: 0x0, symName: __RNvXs0_NtNtCse1nGBsou5OW_5alloc3vec16in_place_collectINtNtNtNtCsfvfooZQ3Axs_4core4iter8adapters3map3MapINtNtB7_9into_iter8IntoIterNtNtCs6IAuOt8vWmF_3syn4item11ForeignItemENCINvNtNtB28_3gen4fold8fold_vecB24_NtNvCs2GZpXKFCdsl_11yoke_derive16replace_lifetime15ReplaceLifetimeNvYB3i_NtB2O_4Fold17fold_foreign_itemE0EINtB5_18SpecInPlaceCollectB24_BP_E16collect_in_placeB3m_, symObjAddr: 0x7864, symBinAddr: 0x37658, symSize: 0xC8 }
  - { offset: 0x5A994, size: 0x8, addend: 0x0, symName: __RNvXs0_NtNtCse1nGBsou5OW_5alloc3vec16in_place_collectINtNtNtNtCsfvfooZQ3Axs_4core4iter8adapters3map3MapINtNtB7_9into_iter8IntoIterNtNtCs6IAuOt8vWmF_3syn4item4ItemENCINvNtNtB28_3gen4fold8fold_vecB24_NtNvCs2GZpXKFCdsl_11yoke_derive16replace_lifetime15ReplaceLifetimeNvYB3a_NtB2G_4Fold9fold_itemE0EINtB5_18SpecInPlaceCollectB24_BP_E16collect_in_placeB3e_, symObjAddr: 0x792C, symBinAddr: 0x37720, symSize: 0xC8 }
  - { offset: 0x5AAE3, size: 0x8, addend: 0x0, symName: __RNvXs0_NtNtCse1nGBsou5OW_5alloc3vec16in_place_collectINtNtNtNtCsfvfooZQ3Axs_4core4iter8adapters3map3MapINtNtB7_9into_iter8IntoIterNtNtCs6IAuOt8vWmF_3syn4item8ImplItemENCINvNtNtB28_3gen4fold8fold_vecB24_NtNvCs2GZpXKFCdsl_11yoke_derive16replace_lifetime15ReplaceLifetimeNvYB3e_NtB2K_4Fold14fold_impl_itemE0EINtB5_18SpecInPlaceCollectB24_BP_E16collect_in_placeB3i_, symObjAddr: 0x79F4, symBinAddr: 0x377E8, symSize: 0xC8 }
  - { offset: 0x5AC32, size: 0x8, addend: 0x0, symName: __RNvXs0_NtNtCse1nGBsou5OW_5alloc3vec16in_place_collectINtNtNtNtCsfvfooZQ3Axs_4core4iter8adapters3map3MapINtNtB7_9into_iter8IntoIterNtNtCs6IAuOt8vWmF_3syn4item9TraitItemENCINvNtNtB28_3gen4fold8fold_vecB24_NtNvCs2GZpXKFCdsl_11yoke_derive16replace_lifetime15ReplaceLifetimeNvYB3f_NtB2L_4Fold15fold_trait_itemE0EINtB5_18SpecInPlaceCollectB24_BP_E16collect_in_placeB3j_, symObjAddr: 0x7ABC, symBinAddr: 0x378B0, symSize: 0xC8 }
  - { offset: 0x5AD81, size: 0x8, addend: 0x0, symName: __RNvXs0_NtNtCse1nGBsou5OW_5alloc3vec16in_place_collectINtNtNtNtCsfvfooZQ3Axs_4core4iter8adapters3map3MapINtNtB7_9into_iter8IntoIterNtNtCs6IAuOt8vWmF_3syn4stmt4StmtENCINvNtNtB28_3gen4fold8fold_vecB24_NtNvCs2GZpXKFCdsl_11yoke_derive16replace_lifetime15ReplaceLifetimeNvYB3a_NtB2G_4Fold9fold_stmtE0EINtB5_18SpecInPlaceCollectB24_BP_E16collect_in_placeB3e_, symObjAddr: 0x7B84, symBinAddr: 0x37978, symSize: 0xC8 }
  - { offset: 0x5AED0, size: 0x8, addend: 0x0, symName: __RNvXs0_NtNtCse1nGBsou5OW_5alloc3vec16in_place_collectINtNtNtNtCsfvfooZQ3Axs_4core4iter8adapters3map3MapINtNtB7_9into_iter8IntoIterTNtNtCs6IAuOt8vWmF_3syn2ty4TypeNtNtB29_5token5CommaEENCINvNtB29_10punctuated4foldB25_B2z_NtNvCs2GZpXKFCdsl_11yoke_derive16replace_lifetime15ReplaceLifetimeNvYB3v_NtNtNtB29_3gen4fold4Fold9fold_typeE0EINtB5_18SpecInPlaceCollectB24_BP_E16collect_in_placeB3z_, symObjAddr: 0x7C4C, symBinAddr: 0x37A40, symSize: 0xC8 }
  - { offset: 0x5B01F, size: 0x8, addend: 0x0, symName: __RNvXs0_NtNtCse1nGBsou5OW_5alloc3vec16in_place_collectINtNtNtNtCsfvfooZQ3Axs_4core4iter8adapters3map3MapINtNtB7_9into_iter8IntoIterTNtNtCs6IAuOt8vWmF_3syn2ty9BareFnArgNtNtB29_5token5CommaEENCINvNtB29_10punctuated4foldB25_B2E_NtNvCs2GZpXKFCdsl_11yoke_derive16replace_lifetime15ReplaceLifetimeNvYB3A_NtNtNtB29_3gen4fold4Fold16fold_bare_fn_argE0EINtB5_18SpecInPlaceCollectB24_BP_E16collect_in_placeB3E_, symObjAddr: 0x7D14, symBinAddr: 0x37B08, symSize: 0xC8 }
  - { offset: 0x5B16E, size: 0x8, addend: 0x0, symName: __RNvXs0_NtNtCse1nGBsou5OW_5alloc3vec16in_place_collectINtNtNtNtCsfvfooZQ3Axs_4core4iter8adapters3map3MapINtNtB7_9into_iter8IntoIterTNtNtCs6IAuOt8vWmF_3syn3pat3PatNtNtB29_5token2OrEENCINvNtB29_10punctuated4foldB25_B2z_NtNvCs2GZpXKFCdsl_11yoke_derive16replace_lifetime15ReplaceLifetimeNvYB3s_NtNtNtB29_3gen4fold4Fold8fold_patE0EINtB5_18SpecInPlaceCollectB24_BP_E16collect_in_placeB3w_, symObjAddr: 0x7DDC, symBinAddr: 0x37BD0, symSize: 0xC8 }
  - { offset: 0x5B2BD, size: 0x8, addend: 0x0, symName: __RNvXs0_NtNtCse1nGBsou5OW_5alloc3vec16in_place_collectINtNtNtNtCsfvfooZQ3Axs_4core4iter8adapters3map3MapINtNtB7_9into_iter8IntoIterTNtNtCs6IAuOt8vWmF_3syn3pat3PatNtNtB29_5token5CommaEENCINvNtB29_10punctuated4foldB25_B2z_NtNvCs2GZpXKFCdsl_11yoke_derive16replace_lifetime15ReplaceLifetimeNvYB3v_NtNtNtB29_3gen4fold4Fold8fold_patE0EINtB5_18SpecInPlaceCollectB24_BP_E16collect_in_placeB3z_, symObjAddr: 0x7EA4, symBinAddr: 0x37C98, symSize: 0xC8 }
  - { offset: 0x5B40C, size: 0x8, addend: 0x0, symName: __RNvXs0_NtNtCse1nGBsou5OW_5alloc3vec16in_place_collectINtNtNtNtCsfvfooZQ3Axs_4core4iter8adapters3map3MapINtNtB7_9into_iter8IntoIterTNtNtCs6IAuOt8vWmF_3syn3pat8FieldPatNtNtB29_5token5CommaEENCINvNtB29_10punctuated4foldB25_B2E_NtNvCs2GZpXKFCdsl_11yoke_derive16replace_lifetime15ReplaceLifetimeNvYB3A_NtNtNtB29_3gen4fold4Fold14fold_field_patE0EINtB5_18SpecInPlaceCollectB24_BP_E16collect_in_placeB3E_, symObjAddr: 0x7F6C, symBinAddr: 0x37D60, symSize: 0xC8 }
  - { offset: 0x5B55B, size: 0x8, addend: 0x0, symName: __RNvXs0_NtNtCse1nGBsou5OW_5alloc3vec16in_place_collectINtNtNtNtCsfvfooZQ3Axs_4core4iter8adapters3map3MapINtNtB7_9into_iter8IntoIterTNtNtCs6IAuOt8vWmF_3syn4data5FieldNtNtB29_5token5CommaEENCINvNtB29_10punctuated4foldB25_B2C_NtNvCs2GZpXKFCdsl_11yoke_derive16replace_lifetime15ReplaceLifetimeNvYB3y_NtNtNtB29_3gen4fold4Fold10fold_fieldE0EINtB5_18SpecInPlaceCollectB24_BP_E16collect_in_placeB3C_, symObjAddr: 0x8034, symBinAddr: 0x37E28, symSize: 0xC8 }
  - { offset: 0x5B6AA, size: 0x8, addend: 0x0, symName: __RNvXs0_NtNtCse1nGBsou5OW_5alloc3vec16in_place_collectINtNtNtNtCsfvfooZQ3Axs_4core4iter8adapters3map3MapINtNtB7_9into_iter8IntoIterTNtNtCs6IAuOt8vWmF_3syn4data7VariantNtNtB29_5token5CommaEENCINvNtB29_10punctuated4foldB25_B2E_NtNvCs2GZpXKFCdsl_11yoke_derive16replace_lifetime15ReplaceLifetimeNvYB3A_NtNtNtB29_3gen4fold4Fold12fold_variantE0EINtB5_18SpecInPlaceCollectB24_BP_E16collect_in_placeB3E_, symObjAddr: 0x80FC, symBinAddr: 0x37EF0, symSize: 0xC8 }
  - { offset: 0x5B7F9, size: 0x8, addend: 0x0, symName: __RNvXs0_NtNtCse1nGBsou5OW_5alloc3vec16in_place_collectINtNtNtNtCsfvfooZQ3Axs_4core4iter8adapters3map3MapINtNtB7_9into_iter8IntoIterTNtNtCs6IAuOt8vWmF_3syn4expr10FieldValueNtNtB29_5token5CommaEENCINvNtB29_10punctuated4foldB25_B2I_NtNvCs2GZpXKFCdsl_11yoke_derive16replace_lifetime15ReplaceLifetimeNvYB3E_NtNtNtB29_3gen4fold4Fold16fold_field_valueE0EINtB5_18SpecInPlaceCollectB24_BP_E16collect_in_placeB3I_, symObjAddr: 0x81C4, symBinAddr: 0x37FB8, symSize: 0xC8 }
  - { offset: 0x5B948, size: 0x8, addend: 0x0, symName: __RNvXs0_NtNtCse1nGBsou5OW_5alloc3vec16in_place_collectINtNtNtNtCsfvfooZQ3Axs_4core4iter8adapters3map3MapINtNtB7_9into_iter8IntoIterTNtNtCs6IAuOt8vWmF_3syn4expr4ExprNtNtB29_5token5CommaEENCINvNtB29_10punctuated4foldB25_B2B_NtNvCs2GZpXKFCdsl_11yoke_derive16replace_lifetime15ReplaceLifetimeNvYB3x_NtNtNtB29_3gen4fold4Fold9fold_exprE0EINtB5_18SpecInPlaceCollectB24_BP_E16collect_in_placeB3B_, symObjAddr: 0x828C, symBinAddr: 0x38080, symSize: 0xC8 }
  - { offset: 0x5BA97, size: 0x8, addend: 0x0, symName: __RNvXs0_NtNtCse1nGBsou5OW_5alloc3vec16in_place_collectINtNtNtNtCsfvfooZQ3Axs_4core4iter8adapters3map3MapINtNtB7_9into_iter8IntoIterTNtNtCs6IAuOt8vWmF_3syn4item5FnArgNtNtB29_5token5CommaEENCINvNtB29_10punctuated4foldB25_B2C_NtNvCs2GZpXKFCdsl_11yoke_derive16replace_lifetime15ReplaceLifetimeNvYB3y_NtNtNtB29_3gen4fold4Fold11fold_fn_argE0EINtB5_18SpecInPlaceCollectB24_BP_E16collect_in_placeB3C_, symObjAddr: 0x8354, symBinAddr: 0x38148, symSize: 0xC8 }
  - { offset: 0x5BBE6, size: 0x8, addend: 0x0, symName: __RNvXs0_NtNtCse1nGBsou5OW_5alloc3vec16in_place_collectINtNtNtNtCsfvfooZQ3Axs_4core4iter8adapters3map3MapINtNtB7_9into_iter8IntoIterTNtNtCs6IAuOt8vWmF_3syn4item7UseTreeNtNtB29_5token5CommaEENCINvNtB29_10punctuated4foldB25_B2E_NtNvCs2GZpXKFCdsl_11yoke_derive16replace_lifetime15ReplaceLifetimeNvYB3A_NtNtNtB29_3gen4fold4Fold13fold_use_treeE0EINtB5_18SpecInPlaceCollectB24_BP_E16collect_in_placeB3E_, symObjAddr: 0x841C, symBinAddr: 0x38210, symSize: 0xC8 }
  - { offset: 0x5BD35, size: 0x8, addend: 0x0, symName: __RNvXs0_NtNtCse1nGBsou5OW_5alloc3vec16in_place_collectINtNtNtNtCsfvfooZQ3Axs_4core4iter8adapters3map3MapINtNtB7_9into_iter8IntoIterTNtNtCs6IAuOt8vWmF_3syn4path11PathSegmentNtNtB29_5token7PathSepEENCINvNtB29_10punctuated4foldB25_B2J_NtNvCs2GZpXKFCdsl_11yoke_derive16replace_lifetime15ReplaceLifetimeNvYB3H_NtNtNtB29_3gen4fold4Fold17fold_path_segmentE0EINtB5_18SpecInPlaceCollectB24_BP_E16collect_in_placeB3L_, symObjAddr: 0x84E4, symBinAddr: 0x382D8, symSize: 0xC8 }
  - { offset: 0x5BE84, size: 0x8, addend: 0x0, symName: __RNvXs0_NtNtCse1nGBsou5OW_5alloc3vec16in_place_collectINtNtNtNtCsfvfooZQ3Axs_4core4iter8adapters3map3MapINtNtB7_9into_iter8IntoIterTNtNtCs6IAuOt8vWmF_3syn4path15GenericArgumentNtNtB29_5token5CommaEENCINvNtB29_10punctuated4foldB25_B2N_NtNvCs2GZpXKFCdsl_11yoke_derive16replace_lifetime15ReplaceLifetimeNvYB3J_NtNtNtB29_3gen4fold4Fold21fold_generic_argumentE0EINtB5_18SpecInPlaceCollectB24_BP_E16collect_in_placeB3N_, symObjAddr: 0x85AC, symBinAddr: 0x383A0, symSize: 0xC8 }
  - { offset: 0x5BFD3, size: 0x8, addend: 0x0, symName: __RNvXs0_NtNtCse1nGBsou5OW_5alloc3vec16in_place_collectINtNtNtNtCsfvfooZQ3Axs_4core4iter8adapters3map3MapINtNtB7_9into_iter8IntoIterTNtNtCs6IAuOt8vWmF_3syn8generics12GenericParamNtNtB29_5token5CommaEENCINvNtB29_10punctuated4foldB25_B2O_NtNvCs2GZpXKFCdsl_11yoke_derive16replace_lifetime15ReplaceLifetimeNvYB3K_NtNtNtB29_3gen4fold4Fold18fold_generic_paramE0EINtB5_18SpecInPlaceCollectB24_BP_E16collect_in_placeB3O_, symObjAddr: 0x8674, symBinAddr: 0x38468, symSize: 0xC8 }
  - { offset: 0x5C122, size: 0x8, addend: 0x0, symName: __RNvXs0_NtNtCse1nGBsou5OW_5alloc3vec16in_place_collectINtNtNtNtCsfvfooZQ3Axs_4core4iter8adapters3map3MapINtNtB7_9into_iter8IntoIterTNtNtCs6IAuOt8vWmF_3syn8generics13CapturedParamNtNtB29_5token5CommaEENCINvNtB29_10punctuated4foldB25_B2P_NtNvCs2GZpXKFCdsl_11yoke_derive16replace_lifetime15ReplaceLifetimeNvYB3L_NtNtNtB29_3gen4fold4Fold19fold_captured_paramE0EINtB5_18SpecInPlaceCollectB24_BP_E16collect_in_placeB3P_, symObjAddr: 0x873C, symBinAddr: 0x38530, symSize: 0xC8 }
  - { offset: 0x5C271, size: 0x8, addend: 0x0, symName: __RNvXs0_NtNtCse1nGBsou5OW_5alloc3vec16in_place_collectINtNtNtNtCsfvfooZQ3Axs_4core4iter8adapters3map3MapINtNtB7_9into_iter8IntoIterTNtNtCs6IAuOt8vWmF_3syn8generics14TypeParamBoundNtNtB29_5token4PlusEENCINvNtB29_10punctuated4foldB25_B2Q_NtNvCs2GZpXKFCdsl_11yoke_derive16replace_lifetime15ReplaceLifetimeNvYB3L_NtNtNtB29_3gen4fold4Fold21fold_type_param_boundE0EINtB5_18SpecInPlaceCollectB24_BP_E16collect_in_placeB3P_, symObjAddr: 0x8804, symBinAddr: 0x385F8, symSize: 0xC8 }
  - { offset: 0x5C3C0, size: 0x8, addend: 0x0, symName: __RNvXs0_NtNtCse1nGBsou5OW_5alloc3vec16in_place_collectINtNtNtNtCsfvfooZQ3Axs_4core4iter8adapters3map3MapINtNtB7_9into_iter8IntoIterTNtNtCs6IAuOt8vWmF_3syn8generics14WherePredicateNtNtB29_5token5CommaEENCINvNtB29_10punctuated4foldB25_B2Q_NtNvCs2GZpXKFCdsl_11yoke_derive16replace_lifetime15ReplaceLifetimeNvYB3M_NtNtNtB29_3gen4fold4Fold20fold_where_predicateE0EINtB5_18SpecInPlaceCollectB24_BP_E16collect_in_placeB3Q_, symObjAddr: 0x88CC, symBinAddr: 0x386C0, symSize: 0xC8 }
  - { offset: 0x5C50F, size: 0x8, addend: 0x0, symName: __RNvXs0_NtNtCse1nGBsou5OW_5alloc3vec16in_place_collectINtNtNtNtCsfvfooZQ3Axs_4core4iter8adapters3map3MapINtNtB7_9into_iter8IntoIterTNtNtCs6IAuOt8vWmF_3syn8lifetime8LifetimeNtNtB29_5token4PlusEENCINvNtB29_10punctuated4foldB25_B2J_NtNvCs2GZpXKFCdsl_11yoke_derive16replace_lifetime15ReplaceLifetimeNvYB3E_NtNtNtB29_3gen4fold4Fold13fold_lifetimeE0EINtB5_18SpecInPlaceCollectB24_BP_E16collect_in_placeB3I_, symObjAddr: 0x8994, symBinAddr: 0x38788, symSize: 0xC8 }
  - { offset: 0x5FDE4, size: 0x8, addend: 0x0, symName: __RINvNtCs6IAuOt8vWmF_3syn10punctuated4foldNtNtB4_2ty4TypeNtNtB4_5token5CommaNtNvCs2GZpXKFCdsl_11yoke_derive16replace_lifetime15ReplaceLifetimeNvYB1b_NtNtNtB4_3gen4fold4Fold9fold_typeEB1f_, symObjAddr: 0x0, symBinAddr: 0x2FDF4, symSize: 0x2FC }
  - { offset: 0x5FE8C, size: 0x8, addend: 0x0, symName: __RINvNtCs6IAuOt8vWmF_3syn10punctuated4foldNtNtB4_2ty9BareFnArgNtNtB4_5token5CommaNtNvCs2GZpXKFCdsl_11yoke_derive16replace_lifetime15ReplaceLifetimeNvYB1g_NtNtNtB4_3gen4fold4Fold16fold_bare_fn_argEB1k_, symObjAddr: 0x2FC, symBinAddr: 0x300F0, symSize: 0x300 }
  - { offset: 0x5FF34, size: 0x8, addend: 0x0, symName: __RINvNtCs6IAuOt8vWmF_3syn10punctuated4foldNtNtB4_3pat3PatNtNtB4_5token2OrNtNvCs2GZpXKFCdsl_11yoke_derive16replace_lifetime15ReplaceLifetimeNvYB18_NtNtNtB4_3gen4fold4Fold8fold_patEB1c_, symObjAddr: 0x5FC, symBinAddr: 0x303F0, symSize: 0x2FC }
  - { offset: 0x5FFDC, size: 0x8, addend: 0x0, symName: __RINvNtCs6IAuOt8vWmF_3syn10punctuated4foldNtNtB4_3pat3PatNtNtB4_5token5CommaNtNvCs2GZpXKFCdsl_11yoke_derive16replace_lifetime15ReplaceLifetimeNvYB1b_NtNtNtB4_3gen4fold4Fold8fold_patEB1f_, symObjAddr: 0x8F8, symBinAddr: 0x306EC, symSize: 0x2FC }
  - { offset: 0x60084, size: 0x8, addend: 0x0, symName: __RINvNtCs6IAuOt8vWmF_3syn10punctuated4foldNtNtB4_3pat8FieldPatNtNtB4_5token5CommaNtNvCs2GZpXKFCdsl_11yoke_derive16replace_lifetime15ReplaceLifetimeNvYB1g_NtNtNtB4_3gen4fold4Fold14fold_field_patEB1k_, symObjAddr: 0xBF4, symBinAddr: 0x309E8, symSize: 0x2FC }
  - { offset: 0x6012C, size: 0x8, addend: 0x0, symName: __RINvNtCs6IAuOt8vWmF_3syn10punctuated4foldNtNtB4_4data5FieldNtNtB4_5token5CommaNtNvCs2GZpXKFCdsl_11yoke_derive16replace_lifetime15ReplaceLifetimeNvYB1e_NtNtNtB4_3gen4fold4Fold10fold_fieldEB1i_, symObjAddr: 0xEF0, symBinAddr: 0x30CE4, symSize: 0x300 }
  - { offset: 0x601D4, size: 0x8, addend: 0x0, symName: __RINvNtCs6IAuOt8vWmF_3syn10punctuated4foldNtNtB4_4data7VariantNtNtB4_5token5CommaNtNvCs2GZpXKFCdsl_11yoke_derive16replace_lifetime15ReplaceLifetimeNvYB1g_NtNtNtB4_3gen4fold4Fold12fold_variantEB1k_, symObjAddr: 0x11F0, symBinAddr: 0x30FE4, symSize: 0x300 }
  - { offset: 0x6027C, size: 0x8, addend: 0x0, symName: __RINvNtCs6IAuOt8vWmF_3syn10punctuated4foldNtNtB4_4expr10FieldValueNtNtB4_5token5CommaNtNvCs2GZpXKFCdsl_11yoke_derive16replace_lifetime15ReplaceLifetimeNvYB1k_NtNtNtB4_3gen4fold4Fold16fold_field_valueEB1o_, symObjAddr: 0x14F0, symBinAddr: 0x312E4, symSize: 0x2FC }
  - { offset: 0x60324, size: 0x8, addend: 0x0, symName: __RINvNtCs6IAuOt8vWmF_3syn10punctuated4foldNtNtB4_4expr4ExprNtNtB4_5token5CommaNtNvCs2GZpXKFCdsl_11yoke_derive16replace_lifetime15ReplaceLifetimeNvYB1d_NtNtNtB4_3gen4fold4Fold9fold_exprEB1h_, symObjAddr: 0x17EC, symBinAddr: 0x315E0, symSize: 0x2FC }
  - { offset: 0x603CC, size: 0x8, addend: 0x0, symName: __RINvNtCs6IAuOt8vWmF_3syn10punctuated4foldNtNtB4_4item5FnArgNtNtB4_5token5CommaNtNvCs2GZpXKFCdsl_11yoke_derive16replace_lifetime15ReplaceLifetimeNvYB1e_NtNtNtB4_3gen4fold4Fold11fold_fn_argEB1i_, symObjAddr: 0x1AE8, symBinAddr: 0x318DC, symSize: 0x2FC }
  - { offset: 0x60474, size: 0x8, addend: 0x0, symName: __RINvNtCs6IAuOt8vWmF_3syn10punctuated4foldNtNtB4_4item7UseTreeNtNtB4_5token5CommaNtNvCs2GZpXKFCdsl_11yoke_derive16replace_lifetime15ReplaceLifetimeNvYB1g_NtNtNtB4_3gen4fold4Fold13fold_use_treeEB1k_, symObjAddr: 0x1DE4, symBinAddr: 0x31BD8, symSize: 0x2FC }
  - { offset: 0x6051C, size: 0x8, addend: 0x0, symName: __RINvNtCs6IAuOt8vWmF_3syn10punctuated4foldNtNtB4_4path11PathSegmentNtNtB4_5token7PathSepNtNvCs2GZpXKFCdsl_11yoke_derive16replace_lifetime15ReplaceLifetimeNvYB1n_NtNtNtB4_3gen4fold4Fold17fold_path_segmentEB1r_, symObjAddr: 0x20E0, symBinAddr: 0x31ED4, symSize: 0x2FC }
  - { offset: 0x605C4, size: 0x8, addend: 0x0, symName: __RINvNtCs6IAuOt8vWmF_3syn10punctuated4foldNtNtB4_4path15GenericArgumentNtNtB4_5token5CommaNtNvCs2GZpXKFCdsl_11yoke_derive16replace_lifetime15ReplaceLifetimeNvYB1p_NtNtNtB4_3gen4fold4Fold21fold_generic_argumentEB1t_, symObjAddr: 0x23DC, symBinAddr: 0x321D0, symSize: 0x300 }
  - { offset: 0x6066C, size: 0x8, addend: 0x0, symName: __RINvNtCs6IAuOt8vWmF_3syn10punctuated4foldNtNtB4_8generics12GenericParamNtNtB4_5token5CommaNtNvCs2GZpXKFCdsl_11yoke_derive16replace_lifetime15ReplaceLifetimeNvYB1q_NtNtNtB4_3gen4fold4Fold18fold_generic_paramEB1u_, symObjAddr: 0x26DC, symBinAddr: 0x324D0, symSize: 0x300 }
  - { offset: 0x60714, size: 0x8, addend: 0x0, symName: __RINvNtCs6IAuOt8vWmF_3syn10punctuated4foldNtNtB4_8generics13CapturedParamNtNtB4_5token5CommaNtNvCs2GZpXKFCdsl_11yoke_derive16replace_lifetime15ReplaceLifetimeNvYB1r_NtNtNtB4_3gen4fold4Fold19fold_captured_paramEB1v_, symObjAddr: 0x29DC, symBinAddr: 0x327D0, symSize: 0x2FC }
  - { offset: 0x607BC, size: 0x8, addend: 0x0, symName: __RINvNtCs6IAuOt8vWmF_3syn10punctuated4foldNtNtB4_8generics14TypeParamBoundNtNtB4_5token4PlusNtNvCs2GZpXKFCdsl_11yoke_derive16replace_lifetime15ReplaceLifetimeNvYB1r_NtNtNtB4_3gen4fold4Fold21fold_type_param_boundEB1v_, symObjAddr: 0x2CD8, symBinAddr: 0x32ACC, symSize: 0x2FC }
  - { offset: 0x60864, size: 0x8, addend: 0x0, symName: __RINvNtCs6IAuOt8vWmF_3syn10punctuated4foldNtNtB4_8generics14WherePredicateNtNtB4_5token5CommaNtNvCs2GZpXKFCdsl_11yoke_derive16replace_lifetime15ReplaceLifetimeNvYB1s_NtNtNtB4_3gen4fold4Fold20fold_where_predicateEB1w_, symObjAddr: 0x2FD4, symBinAddr: 0x32DC8, symSize: 0x300 }
  - { offset: 0x6090C, size: 0x8, addend: 0x0, symName: __RINvNtCs6IAuOt8vWmF_3syn10punctuated4foldNtNtB4_8lifetime8LifetimeNtNtB4_5token4PlusNtNvCs2GZpXKFCdsl_11yoke_derive16replace_lifetime15ReplaceLifetimeNvYB1k_NtNtNtB4_3gen4fold4Fold13fold_lifetimeEB1o_, symObjAddr: 0x32D4, symBinAddr: 0x330C8, symSize: 0x2F0 }
  - { offset: 0x609B9, size: 0x8, addend: 0x0, symName: __RNCINvNtCs6IAuOt8vWmF_3syn10punctuated4foldNtNtB6_2ty4TypeNtNtB6_5token5CommaNtNvCs2GZpXKFCdsl_11yoke_derive16replace_lifetime15ReplaceLifetimeNvYB1d_NtNtNtB6_3gen4fold4Fold9fold_typeE0B1h_, symObjAddr: 0x42BC, symBinAddr: 0x340B0, symSize: 0xEC }
  - { offset: 0x60A56, size: 0x8, addend: 0x0, symName: __RNCINvNtCs6IAuOt8vWmF_3syn10punctuated4foldNtNtB6_2ty9BareFnArgNtNtB6_5token5CommaNtNvCs2GZpXKFCdsl_11yoke_derive16replace_lifetime15ReplaceLifetimeNvYB1i_NtNtNtB6_3gen4fold4Fold16fold_bare_fn_argE0B1m_, symObjAddr: 0x43A8, symBinAddr: 0x3419C, symSize: 0xEC }
  - { offset: 0x60AF2, size: 0x8, addend: 0x0, symName: __RNCINvNtCs6IAuOt8vWmF_3syn10punctuated4foldNtNtB6_3pat3PatNtNtB6_5token2OrNtNvCs2GZpXKFCdsl_11yoke_derive16replace_lifetime15ReplaceLifetimeNvYB1a_NtNtNtB6_3gen4fold4Fold8fold_patE0B1e_, symObjAddr: 0x4494, symBinAddr: 0x34288, symSize: 0xEC }
  - { offset: 0x60B8E, size: 0x8, addend: 0x0, symName: __RNCINvNtCs6IAuOt8vWmF_3syn10punctuated4foldNtNtB6_3pat3PatNtNtB6_5token5CommaNtNvCs2GZpXKFCdsl_11yoke_derive16replace_lifetime15ReplaceLifetimeNvYB1d_NtNtNtB6_3gen4fold4Fold8fold_patE0B1h_, symObjAddr: 0x4580, symBinAddr: 0x34374, symSize: 0xEC }
  - { offset: 0x60C2A, size: 0x8, addend: 0x0, symName: __RNCINvNtCs6IAuOt8vWmF_3syn10punctuated4foldNtNtB6_3pat8FieldPatNtNtB6_5token5CommaNtNvCs2GZpXKFCdsl_11yoke_derive16replace_lifetime15ReplaceLifetimeNvYB1i_NtNtNtB6_3gen4fold4Fold14fold_field_patE0B1m_, symObjAddr: 0x466C, symBinAddr: 0x34460, symSize: 0xEC }
  - { offset: 0x60CC7, size: 0x8, addend: 0x0, symName: __RNCINvNtCs6IAuOt8vWmF_3syn10punctuated4foldNtNtB6_4data5FieldNtNtB6_5token5CommaNtNvCs2GZpXKFCdsl_11yoke_derive16replace_lifetime15ReplaceLifetimeNvYB1g_NtNtNtB6_3gen4fold4Fold10fold_fieldE0B1k_, symObjAddr: 0x4758, symBinAddr: 0x3454C, symSize: 0xF0 }
  - { offset: 0x60D63, size: 0x8, addend: 0x0, symName: __RNCINvNtCs6IAuOt8vWmF_3syn10punctuated4foldNtNtB6_4data7VariantNtNtB6_5token5CommaNtNvCs2GZpXKFCdsl_11yoke_derive16replace_lifetime15ReplaceLifetimeNvYB1i_NtNtNtB6_3gen4fold4Fold12fold_variantE0B1m_, symObjAddr: 0x4848, symBinAddr: 0x3463C, symSize: 0xEC }
  - { offset: 0x60E00, size: 0x8, addend: 0x0, symName: __RNCINvNtCs6IAuOt8vWmF_3syn10punctuated4foldNtNtB6_4expr10FieldValueNtNtB6_5token5CommaNtNvCs2GZpXKFCdsl_11yoke_derive16replace_lifetime15ReplaceLifetimeNvYB1m_NtNtNtB6_3gen4fold4Fold16fold_field_valueE0B1q_, symObjAddr: 0x4934, symBinAddr: 0x34728, symSize: 0xEC }
  - { offset: 0x60E9C, size: 0x8, addend: 0x0, symName: __RNCINvNtCs6IAuOt8vWmF_3syn10punctuated4foldNtNtB6_4expr4ExprNtNtB6_5token5CommaNtNvCs2GZpXKFCdsl_11yoke_derive16replace_lifetime15ReplaceLifetimeNvYB1f_NtNtNtB6_3gen4fold4Fold9fold_exprE0B1j_, symObjAddr: 0x4A20, symBinAddr: 0x34814, symSize: 0xEC }
  - { offset: 0x60F39, size: 0x8, addend: 0x0, symName: __RNCINvNtCs6IAuOt8vWmF_3syn10punctuated4foldNtNtB6_4item5FnArgNtNtB6_5token5CommaNtNvCs2GZpXKFCdsl_11yoke_derive16replace_lifetime15ReplaceLifetimeNvYB1g_NtNtNtB6_3gen4fold4Fold11fold_fn_argE0B1k_, symObjAddr: 0x4B0C, symBinAddr: 0x34900, symSize: 0xEC }
  - { offset: 0x60FD6, size: 0x8, addend: 0x0, symName: __RNCINvNtCs6IAuOt8vWmF_3syn10punctuated4foldNtNtB6_4item7UseTreeNtNtB6_5token5CommaNtNvCs2GZpXKFCdsl_11yoke_derive16replace_lifetime15ReplaceLifetimeNvYB1i_NtNtNtB6_3gen4fold4Fold13fold_use_treeE0B1m_, symObjAddr: 0x4BF8, symBinAddr: 0x349EC, symSize: 0xEC }
  - { offset: 0x61073, size: 0x8, addend: 0x0, symName: __RNCINvNtCs6IAuOt8vWmF_3syn10punctuated4foldNtNtB6_4path11PathSegmentNtNtB6_5token7PathSepNtNvCs2GZpXKFCdsl_11yoke_derive16replace_lifetime15ReplaceLifetimeNvYB1p_NtNtNtB6_3gen4fold4Fold17fold_path_segmentE0B1t_, symObjAddr: 0x4CE4, symBinAddr: 0x34AD8, symSize: 0xEC }
  - { offset: 0x6110F, size: 0x8, addend: 0x0, symName: __RNCINvNtCs6IAuOt8vWmF_3syn10punctuated4foldNtNtB6_4path15GenericArgumentNtNtB6_5token5CommaNtNvCs2GZpXKFCdsl_11yoke_derive16replace_lifetime15ReplaceLifetimeNvYB1r_NtNtNtB6_3gen4fold4Fold21fold_generic_argumentE0B1v_, symObjAddr: 0x4DD0, symBinAddr: 0x34BC4, symSize: 0xF0 }
  - { offset: 0x611AB, size: 0x8, addend: 0x0, symName: __RNCINvNtCs6IAuOt8vWmF_3syn10punctuated4foldNtNtB6_8generics12GenericParamNtNtB6_5token5CommaNtNvCs2GZpXKFCdsl_11yoke_derive16replace_lifetime15ReplaceLifetimeNvYB1s_NtNtNtB6_3gen4fold4Fold18fold_generic_paramE0B1w_, symObjAddr: 0x4EC0, symBinAddr: 0x34CB4, symSize: 0xF0 }
  - { offset: 0x61248, size: 0x8, addend: 0x0, symName: __RNCINvNtCs6IAuOt8vWmF_3syn10punctuated4foldNtNtB6_8generics13CapturedParamNtNtB6_5token5CommaNtNvCs2GZpXKFCdsl_11yoke_derive16replace_lifetime15ReplaceLifetimeNvYB1t_NtNtNtB6_3gen4fold4Fold19fold_captured_paramE0B1x_, symObjAddr: 0x4FB0, symBinAddr: 0x34DA4, symSize: 0xE4 }
  - { offset: 0x612E4, size: 0x8, addend: 0x0, symName: __RNCINvNtCs6IAuOt8vWmF_3syn10punctuated4foldNtNtB6_8generics14TypeParamBoundNtNtB6_5token4PlusNtNvCs2GZpXKFCdsl_11yoke_derive16replace_lifetime15ReplaceLifetimeNvYB1t_NtNtNtB6_3gen4fold4Fold21fold_type_param_boundE0B1x_, symObjAddr: 0x5094, symBinAddr: 0x34E88, symSize: 0xEC }
  - { offset: 0x61380, size: 0x8, addend: 0x0, symName: __RNCINvNtCs6IAuOt8vWmF_3syn10punctuated4foldNtNtB6_8generics14WherePredicateNtNtB6_5token5CommaNtNvCs2GZpXKFCdsl_11yoke_derive16replace_lifetime15ReplaceLifetimeNvYB1u_NtNtNtB6_3gen4fold4Fold20fold_where_predicateE0B1y_, symObjAddr: 0x5180, symBinAddr: 0x34F74, symSize: 0xF0 }
  - { offset: 0x6141C, size: 0x8, addend: 0x0, symName: __RNCINvNtCs6IAuOt8vWmF_3syn10punctuated4foldNtNtB6_8lifetime8LifetimeNtNtB6_5token4PlusNtNvCs2GZpXKFCdsl_11yoke_derive16replace_lifetime15ReplaceLifetimeNvYB1m_NtNtNtB6_3gen4fold4Fold13fold_lifetimeE0B1q_, symObjAddr: 0x5270, symBinAddr: 0x35064, symSize: 0xC0 }
  - { offset: 0x66E49, size: 0x8, addend: 0x0, symName: __RINvXs0_NtNtNtCsfvfooZQ3Axs_4core4iter8adapters3mapINtB6_3MapINtNtB8_6cloned6ClonedINtNtNtBc_5slice4iter4IterNtCs3cP53eQoTwO_11proc_macro25IdentEENCINvXs8_NtCsloNvcHxBCre_9hashbrown3setINtB2t_7HashSetB1J_NtNtNtCscOYdFFY2T5N_3std4hash6random11RandomStateEINtNtNtBa_6traits7collect6ExtendB1J_E6extendBX_E0ENtNtB49_8iterator8Iterator4folduNCINvNvB4S_8for_each4callTB1J_uENCINvXs1i_NtB2v_3mapINtB64_7HashMapB1J_uB3g_EIB45_B5N_E6extendBN_E0E0ECs2GZpXKFCdsl_11yoke_derive, symObjAddr: 0x35C4, symBinAddr: 0x333B8, symSize: 0x34 }
  - { offset: 0x66EBA, size: 0x8, addend: 0x0, symName: __RINvXs0_NtNtNtCsfvfooZQ3Axs_4core4iter8adapters3mapINtB6_3MapINtNtNtBc_5slice4iter4IterNtCs3cP53eQoTwO_11proc_macro25IdentENCNvCs2GZpXKFCdsl_11yoke_derive20yokeable_derive_impls0_0ENtNtNtBa_6traits8iterator8Iterator4folduNCINvNvB2T_8for_each4callNtNtCs6IAuOt8vWmF_3syn8generics14WherePredicateNCINvMsi_NtCse1nGBsou5OW_5alloc3vecINtB4Q_3VecB3W_E14extend_trustedBN_E0E0EB21_, symObjAddr: 0x35F8, symBinAddr: 0x333EC, symSize: 0x44 }
  - { offset: 0x66F52, size: 0x8, addend: 0x0, symName: __RINvXs0_NtNtNtCsfvfooZQ3Axs_4core4iter8adapters3mapINtB6_3MapINtNtNtBc_5slice4iter4IterNtCs3cP53eQoTwO_11proc_macro25IdentENCNvCs2GZpXKFCdsl_11yoke_derive20yokeable_derive_impls2_0ENtNtNtBa_6traits8iterator8Iterator4folduNCINvNvB2T_8for_each4callNtNtCs6IAuOt8vWmF_3syn8generics14WherePredicateNCINvMsi_NtCse1nGBsou5OW_5alloc3vecINtB4Q_3VecB3W_E14extend_trustedBN_E0E0EB21_, symObjAddr: 0x363C, symBinAddr: 0x33430, symSize: 0x44 }
  - { offset: 0x66FEA, size: 0x8, addend: 0x0, symName: __RINvXs0_NtNtNtCsfvfooZQ3Axs_4core4iter8adapters3mapINtB6_3MapINtNtNtBc_5slice4iter4IterNtNtCs6IAuOt8vWmF_3syn8generics9TypeParamENCNvCs2GZpXKFCdsl_11yoke_derive20yokeable_derive_impls_0ENtNtNtBa_6traits8iterator8Iterator4folduNCINvNvB2Y_8for_each4callNtCs3cP53eQoTwO_11proc_macro25IdentNCINvMsi_NtCse1nGBsou5OW_5alloc3vecINtB4J_3VecB41_E14extend_trustedBN_E0E0EB27_, symObjAddr: 0x3680, symBinAddr: 0x33474, symSize: 0x44 }
  - { offset: 0x67082, size: 0x8, addend: 0x0, symName: __RINvXs0_NtNtNtCsfvfooZQ3Axs_4core4iter8adapters3mapINtB6_3MapINtNtNtCse1nGBsou5OW_5alloc3vec9into_iter8IntoIterNtNtCs6IAuOt8vWmF_3syn4attr9AttributeENCINvNtNtB1P_3gen4fold8fold_vecB1L_NtNvCs2GZpXKFCdsl_11yoke_derive16replace_lifetime15ReplaceLifetimeNvYB2W_NtB2s_4Fold14fold_attributeE0ENtNtNtBa_6traits8iterator8Iterator8try_foldINtNtB12_13in_place_drop11InPlaceDropB1L_ENCINvNtB12_16in_place_collect24write_in_place_with_dropB1L_E0INtNtBc_6result6ResultB5i_zEEB30_, symObjAddr: 0x36C4, symBinAddr: 0x334B8, symSize: 0x4C }
  - { offset: 0x67100, size: 0x8, addend: 0x0, symName: __RINvXs0_NtNtNtCsfvfooZQ3Axs_4core4iter8adapters3mapINtB6_3MapINtNtNtCse1nGBsou5OW_5alloc3vec9into_iter8IntoIterNtNtCs6IAuOt8vWmF_3syn4expr3ArmENCINvNtNtB1P_3gen4fold8fold_vecB1L_NtNvCs2GZpXKFCdsl_11yoke_derive16replace_lifetime15ReplaceLifetimeNvYB2Q_NtB2m_4Fold8fold_armE0ENtNtNtBa_6traits8iterator8Iterator8try_foldINtNtB12_13in_place_drop11InPlaceDropB1L_ENCINvNtB12_16in_place_collect24write_in_place_with_dropB1L_E0INtNtBc_6result6ResultB55_zEEB2U_, symObjAddr: 0x3710, symBinAddr: 0x33504, symSize: 0x4C }
  - { offset: 0x6717E, size: 0x8, addend: 0x0, symName: __RINvXs0_NtNtNtCsfvfooZQ3Axs_4core4iter8adapters3mapINtB6_3MapINtNtNtCse1nGBsou5OW_5alloc3vec9into_iter8IntoIterNtNtCs6IAuOt8vWmF_3syn4item11ForeignItemENCINvNtNtB1P_3gen4fold8fold_vecB1L_NtNvCs2GZpXKFCdsl_11yoke_derive16replace_lifetime15ReplaceLifetimeNvYB2Z_NtB2v_4Fold17fold_foreign_itemE0ENtNtNtBa_6traits8iterator8Iterator8try_foldINtNtB12_13in_place_drop11InPlaceDropB1L_ENCINvNtB12_16in_place_collect24write_in_place_with_dropB1L_E0INtNtBc_6result6ResultB5o_zEEB33_, symObjAddr: 0x375C, symBinAddr: 0x33550, symSize: 0x4C }
  - { offset: 0x671FC, size: 0x8, addend: 0x0, symName: __RINvXs0_NtNtNtCsfvfooZQ3Axs_4core4iter8adapters3mapINtB6_3MapINtNtNtCse1nGBsou5OW_5alloc3vec9into_iter8IntoIterNtNtCs6IAuOt8vWmF_3syn4item4ItemENCINvNtNtB1P_3gen4fold8fold_vecB1L_NtNvCs2GZpXKFCdsl_11yoke_derive16replace_lifetime15ReplaceLifetimeNvYB2R_NtB2n_4Fold9fold_itemE0ENtNtNtBa_6traits8iterator8Iterator8try_foldINtNtB12_13in_place_drop11InPlaceDropB1L_ENCINvNtB12_16in_place_collect24write_in_place_with_dropB1L_E0INtNtBc_6result6ResultB57_zEEB2V_, symObjAddr: 0x37A8, symBinAddr: 0x3359C, symSize: 0x4C }
  - { offset: 0x6727A, size: 0x8, addend: 0x0, symName: __RINvXs0_NtNtNtCsfvfooZQ3Axs_4core4iter8adapters3mapINtB6_3MapINtNtNtCse1nGBsou5OW_5alloc3vec9into_iter8IntoIterNtNtCs6IAuOt8vWmF_3syn4item8ImplItemENCINvNtNtB1P_3gen4fold8fold_vecB1L_NtNvCs2GZpXKFCdsl_11yoke_derive16replace_lifetime15ReplaceLifetimeNvYB2V_NtB2r_4Fold14fold_impl_itemE0ENtNtNtBa_6traits8iterator8Iterator8try_foldINtNtB12_13in_place_drop11InPlaceDropB1L_ENCINvNtB12_16in_place_collect24write_in_place_with_dropB1L_E0INtNtBc_6result6ResultB5h_zEEB2Z_, symObjAddr: 0x37F4, symBinAddr: 0x335E8, symSize: 0x4C }
  - { offset: 0x672F8, size: 0x8, addend: 0x0, symName: __RINvXs0_NtNtNtCsfvfooZQ3Axs_4core4iter8adapters3mapINtB6_3MapINtNtNtCse1nGBsou5OW_5alloc3vec9into_iter8IntoIterNtNtCs6IAuOt8vWmF_3syn4item9TraitItemENCINvNtNtB1P_3gen4fold8fold_vecB1L_NtNvCs2GZpXKFCdsl_11yoke_derive16replace_lifetime15ReplaceLifetimeNvYB2W_NtB2s_4Fold15fold_trait_itemE0ENtNtNtBa_6traits8iterator8Iterator8try_foldINtNtB12_13in_place_drop11InPlaceDropB1L_ENCINvNtB12_16in_place_collect24write_in_place_with_dropB1L_E0INtNtBc_6result6ResultB5j_zEEB30_, symObjAddr: 0x3840, symBinAddr: 0x33634, symSize: 0x4C }
  - { offset: 0x67376, size: 0x8, addend: 0x0, symName: __RINvXs0_NtNtNtCsfvfooZQ3Axs_4core4iter8adapters3mapINtB6_3MapINtNtNtCse1nGBsou5OW_5alloc3vec9into_iter8IntoIterNtNtCs6IAuOt8vWmF_3syn4stmt4StmtENCINvNtNtB1P_3gen4fold8fold_vecB1L_NtNvCs2GZpXKFCdsl_11yoke_derive16replace_lifetime15ReplaceLifetimeNvYB2R_NtB2n_4Fold9fold_stmtE0ENtNtNtBa_6traits8iterator8Iterator8try_foldINtNtB12_13in_place_drop11InPlaceDropB1L_ENCINvNtB12_16in_place_collect24write_in_place_with_dropB1L_E0INtNtBc_6result6ResultB57_zEEB2V_, symObjAddr: 0x388C, symBinAddr: 0x33680, symSize: 0x4C }
  - { offset: 0x673F4, size: 0x8, addend: 0x0, symName: __RINvXs0_NtNtNtCsfvfooZQ3Axs_4core4iter8adapters3mapINtB6_3MapINtNtNtCse1nGBsou5OW_5alloc3vec9into_iter8IntoIterTNtNtCs6IAuOt8vWmF_3syn2ty4TypeNtNtB1Q_5token5CommaEENCINvNtB1Q_10punctuated4foldB1M_B2g_NtNvCs2GZpXKFCdsl_11yoke_derive16replace_lifetime15ReplaceLifetimeNvYB3c_NtNtNtB1Q_3gen4fold4Fold9fold_typeE0ENtNtNtBa_6traits8iterator8Iterator8try_foldINtNtB12_13in_place_drop11InPlaceDropB1L_ENCINvNtB12_16in_place_collect24write_in_place_with_dropB1L_E0INtNtBc_6result6ResultB5F_zEEB3g_, symObjAddr: 0x38D8, symBinAddr: 0x336CC, symSize: 0x4C }
  - { offset: 0x67472, size: 0x8, addend: 0x0, symName: __RINvXs0_NtNtNtCsfvfooZQ3Axs_4core4iter8adapters3mapINtB6_3MapINtNtNtCse1nGBsou5OW_5alloc3vec9into_iter8IntoIterTNtNtCs6IAuOt8vWmF_3syn2ty9BareFnArgNtNtB1Q_5token5CommaEENCINvNtB1Q_10punctuated4foldB1M_B2l_NtNvCs2GZpXKFCdsl_11yoke_derive16replace_lifetime15ReplaceLifetimeNvYB3h_NtNtNtB1Q_3gen4fold4Fold16fold_bare_fn_argE0ENtNtNtBa_6traits8iterator8Iterator8try_foldINtNtB12_13in_place_drop11InPlaceDropB1L_ENCINvNtB12_16in_place_collect24write_in_place_with_dropB1L_E0INtNtBc_6result6ResultB5S_zEEB3l_, symObjAddr: 0x3924, symBinAddr: 0x33718, symSize: 0x4C }
  - { offset: 0x674F0, size: 0x8, addend: 0x0, symName: __RINvXs0_NtNtNtCsfvfooZQ3Axs_4core4iter8adapters3mapINtB6_3MapINtNtNtCse1nGBsou5OW_5alloc3vec9into_iter8IntoIterTNtNtCs6IAuOt8vWmF_3syn3pat3PatNtNtB1Q_5token2OrEENCINvNtB1Q_10punctuated4foldB1M_B2g_NtNvCs2GZpXKFCdsl_11yoke_derive16replace_lifetime15ReplaceLifetimeNvYB39_NtNtNtB1Q_3gen4fold4Fold8fold_patE0ENtNtNtBa_6traits8iterator8Iterator8try_foldINtNtB12_13in_place_drop11InPlaceDropB1L_ENCINvNtB12_16in_place_collect24write_in_place_with_dropB1L_E0INtNtBc_6result6ResultB5B_zEEB3d_, symObjAddr: 0x3970, symBinAddr: 0x33764, symSize: 0x4C }
  - { offset: 0x6756E, size: 0x8, addend: 0x0, symName: __RINvXs0_NtNtNtCsfvfooZQ3Axs_4core4iter8adapters3mapINtB6_3MapINtNtNtCse1nGBsou5OW_5alloc3vec9into_iter8IntoIterTNtNtCs6IAuOt8vWmF_3syn3pat3PatNtNtB1Q_5token5CommaEENCINvNtB1Q_10punctuated4foldB1M_B2g_NtNvCs2GZpXKFCdsl_11yoke_derive16replace_lifetime15ReplaceLifetimeNvYB3c_NtNtNtB1Q_3gen4fold4Fold8fold_patE0ENtNtNtBa_6traits8iterator8Iterator8try_foldINtNtB12_13in_place_drop11InPlaceDropB1L_ENCINvNtB12_16in_place_collect24write_in_place_with_dropB1L_E0INtNtBc_6result6ResultB5E_zEEB3g_, symObjAddr: 0x39BC, symBinAddr: 0x337B0, symSize: 0x4C }
  - { offset: 0x675EC, size: 0x8, addend: 0x0, symName: __RINvXs0_NtNtNtCsfvfooZQ3Axs_4core4iter8adapters3mapINtB6_3MapINtNtNtCse1nGBsou5OW_5alloc3vec9into_iter8IntoIterTNtNtCs6IAuOt8vWmF_3syn3pat8FieldPatNtNtB1Q_5token5CommaEENCINvNtB1Q_10punctuated4foldB1M_B2l_NtNvCs2GZpXKFCdsl_11yoke_derive16replace_lifetime15ReplaceLifetimeNvYB3h_NtNtNtB1Q_3gen4fold4Fold14fold_field_patE0ENtNtNtBa_6traits8iterator8Iterator8try_foldINtNtB12_13in_place_drop11InPlaceDropB1L_ENCINvNtB12_16in_place_collect24write_in_place_with_dropB1L_E0INtNtBc_6result6ResultB5Q_zEEB3l_, symObjAddr: 0x3A08, symBinAddr: 0x337FC, symSize: 0x4C }
  - { offset: 0x6766A, size: 0x8, addend: 0x0, symName: __RINvXs0_NtNtNtCsfvfooZQ3Axs_4core4iter8adapters3mapINtB6_3MapINtNtNtCse1nGBsou5OW_5alloc3vec9into_iter8IntoIterTNtNtCs6IAuOt8vWmF_3syn4data5FieldNtNtB1Q_5token5CommaEENCINvNtB1Q_10punctuated4foldB1M_B2j_NtNvCs2GZpXKFCdsl_11yoke_derive16replace_lifetime15ReplaceLifetimeNvYB3f_NtNtNtB1Q_3gen4fold4Fold10fold_fieldE0ENtNtNtBa_6traits8iterator8Iterator8try_foldINtNtB12_13in_place_drop11InPlaceDropB1L_ENCINvNtB12_16in_place_collect24write_in_place_with_dropB1L_E0INtNtBc_6result6ResultB5K_zEEB3j_, symObjAddr: 0x3A54, symBinAddr: 0x33848, symSize: 0x4C }
  - { offset: 0x676E8, size: 0x8, addend: 0x0, symName: __RINvXs0_NtNtNtCsfvfooZQ3Axs_4core4iter8adapters3mapINtB6_3MapINtNtNtCse1nGBsou5OW_5alloc3vec9into_iter8IntoIterTNtNtCs6IAuOt8vWmF_3syn4data7VariantNtNtB1Q_5token5CommaEENCINvNtB1Q_10punctuated4foldB1M_B2l_NtNvCs2GZpXKFCdsl_11yoke_derive16replace_lifetime15ReplaceLifetimeNvYB3h_NtNtNtB1Q_3gen4fold4Fold12fold_variantE0ENtNtNtBa_6traits8iterator8Iterator8try_foldINtNtB12_13in_place_drop11InPlaceDropB1L_ENCINvNtB12_16in_place_collect24write_in_place_with_dropB1L_E0INtNtBc_6result6ResultB5O_zEEB3l_, symObjAddr: 0x3AA0, symBinAddr: 0x33894, symSize: 0x4C }
  - { offset: 0x67766, size: 0x8, addend: 0x0, symName: __RINvXs0_NtNtNtCsfvfooZQ3Axs_4core4iter8adapters3mapINtB6_3MapINtNtNtCse1nGBsou5OW_5alloc3vec9into_iter8IntoIterTNtNtCs6IAuOt8vWmF_3syn4expr10FieldValueNtNtB1Q_5token5CommaEENCINvNtB1Q_10punctuated4foldB1M_B2p_NtNvCs2GZpXKFCdsl_11yoke_derive16replace_lifetime15ReplaceLifetimeNvYB3l_NtNtNtB1Q_3gen4fold4Fold16fold_field_valueE0ENtNtNtBa_6traits8iterator8Iterator8try_foldINtNtB12_13in_place_drop11InPlaceDropB1L_ENCINvNtB12_16in_place_collect24write_in_place_with_dropB1L_E0INtNtBc_6result6ResultB5W_zEEB3p_, symObjAddr: 0x3AEC, symBinAddr: 0x338E0, symSize: 0x4C }
  - { offset: 0x677E4, size: 0x8, addend: 0x0, symName: __RINvXs0_NtNtNtCsfvfooZQ3Axs_4core4iter8adapters3mapINtB6_3MapINtNtNtCse1nGBsou5OW_5alloc3vec9into_iter8IntoIterTNtNtCs6IAuOt8vWmF_3syn4expr4ExprNtNtB1Q_5token5CommaEENCINvNtB1Q_10punctuated4foldB1M_B2i_NtNvCs2GZpXKFCdsl_11yoke_derive16replace_lifetime15ReplaceLifetimeNvYB3e_NtNtNtB1Q_3gen4fold4Fold9fold_exprE0ENtNtNtBa_6traits8iterator8Iterator8try_foldINtNtB12_13in_place_drop11InPlaceDropB1L_ENCINvNtB12_16in_place_collect24write_in_place_with_dropB1L_E0INtNtBc_6result6ResultB5H_zEEB3i_, symObjAddr: 0x3B38, symBinAddr: 0x3392C, symSize: 0x4C }
  - { offset: 0x67862, size: 0x8, addend: 0x0, symName: __RINvXs0_NtNtNtCsfvfooZQ3Axs_4core4iter8adapters3mapINtB6_3MapINtNtNtCse1nGBsou5OW_5alloc3vec9into_iter8IntoIterTNtNtCs6IAuOt8vWmF_3syn4item5FnArgNtNtB1Q_5token5CommaEENCINvNtB1Q_10punctuated4foldB1M_B2j_NtNvCs2GZpXKFCdsl_11yoke_derive16replace_lifetime15ReplaceLifetimeNvYB3f_NtNtNtB1Q_3gen4fold4Fold11fold_fn_argE0ENtNtNtBa_6traits8iterator8Iterator8try_foldINtNtB12_13in_place_drop11InPlaceDropB1L_ENCINvNtB12_16in_place_collect24write_in_place_with_dropB1L_E0INtNtBc_6result6ResultB5L_zEEB3j_, symObjAddr: 0x3B84, symBinAddr: 0x33978, symSize: 0x4C }
  - { offset: 0x678E0, size: 0x8, addend: 0x0, symName: __RINvXs0_NtNtNtCsfvfooZQ3Axs_4core4iter8adapters3mapINtB6_3MapINtNtNtCse1nGBsou5OW_5alloc3vec9into_iter8IntoIterTNtNtCs6IAuOt8vWmF_3syn4item7UseTreeNtNtB1Q_5token5CommaEENCINvNtB1Q_10punctuated4foldB1M_B2l_NtNvCs2GZpXKFCdsl_11yoke_derive16replace_lifetime15ReplaceLifetimeNvYB3h_NtNtNtB1Q_3gen4fold4Fold13fold_use_treeE0ENtNtNtBa_6traits8iterator8Iterator8try_foldINtNtB12_13in_place_drop11InPlaceDropB1L_ENCINvNtB12_16in_place_collect24write_in_place_with_dropB1L_E0INtNtBc_6result6ResultB5P_zEEB3l_, symObjAddr: 0x3BD0, symBinAddr: 0x339C4, symSize: 0x4C }
  - { offset: 0x6795E, size: 0x8, addend: 0x0, symName: __RINvXs0_NtNtNtCsfvfooZQ3Axs_4core4iter8adapters3mapINtB6_3MapINtNtNtCse1nGBsou5OW_5alloc3vec9into_iter8IntoIterTNtNtCs6IAuOt8vWmF_3syn4path11PathSegmentNtNtB1Q_5token7PathSepEENCINvNtB1Q_10punctuated4foldB1M_B2q_NtNvCs2GZpXKFCdsl_11yoke_derive16replace_lifetime15ReplaceLifetimeNvYB3o_NtNtNtB1Q_3gen4fold4Fold17fold_path_segmentE0ENtNtNtBa_6traits8iterator8Iterator8try_foldINtNtB12_13in_place_drop11InPlaceDropB1L_ENCINvNtB12_16in_place_collect24write_in_place_with_dropB1L_E0INtNtBc_6result6ResultB60_zEEB3s_, symObjAddr: 0x3C1C, symBinAddr: 0x33A10, symSize: 0x4C }
  - { offset: 0x679DC, size: 0x8, addend: 0x0, symName: __RINvXs0_NtNtNtCsfvfooZQ3Axs_4core4iter8adapters3mapINtB6_3MapINtNtNtCse1nGBsou5OW_5alloc3vec9into_iter8IntoIterTNtNtCs6IAuOt8vWmF_3syn4path15GenericArgumentNtNtB1Q_5token5CommaEENCINvNtB1Q_10punctuated4foldB1M_B2u_NtNvCs2GZpXKFCdsl_11yoke_derive16replace_lifetime15ReplaceLifetimeNvYB3q_NtNtNtB1Q_3gen4fold4Fold21fold_generic_argumentE0ENtNtNtBa_6traits8iterator8Iterator8try_foldINtNtB12_13in_place_drop11InPlaceDropB1L_ENCINvNtB12_16in_place_collect24write_in_place_with_dropB1L_E0INtNtBc_6result6ResultB66_zEEB3u_, symObjAddr: 0x3C68, symBinAddr: 0x33A5C, symSize: 0x4C }
  - { offset: 0x67A5A, size: 0x8, addend: 0x0, symName: __RINvXs0_NtNtNtCsfvfooZQ3Axs_4core4iter8adapters3mapINtB6_3MapINtNtNtCse1nGBsou5OW_5alloc3vec9into_iter8IntoIterTNtNtCs6IAuOt8vWmF_3syn8generics12GenericParamNtNtB1Q_5token5CommaEENCINvNtB1Q_10punctuated4foldB1M_B2v_NtNvCs2GZpXKFCdsl_11yoke_derive16replace_lifetime15ReplaceLifetimeNvYB3r_NtNtNtB1Q_3gen4fold4Fold18fold_generic_paramE0ENtNtNtBa_6traits8iterator8Iterator8try_foldINtNtB12_13in_place_drop11InPlaceDropB1L_ENCINvNtB12_16in_place_collect24write_in_place_with_dropB1L_E0INtNtBc_6result6ResultB64_zEEB3v_, symObjAddr: 0x3CB4, symBinAddr: 0x33AA8, symSize: 0x4C }
  - { offset: 0x67AD8, size: 0x8, addend: 0x0, symName: __RINvXs0_NtNtNtCsfvfooZQ3Axs_4core4iter8adapters3mapINtB6_3MapINtNtNtCse1nGBsou5OW_5alloc3vec9into_iter8IntoIterTNtNtCs6IAuOt8vWmF_3syn8generics13CapturedParamNtNtB1Q_5token5CommaEENCINvNtB1Q_10punctuated4foldB1M_B2w_NtNvCs2GZpXKFCdsl_11yoke_derive16replace_lifetime15ReplaceLifetimeNvYB3s_NtNtNtB1Q_3gen4fold4Fold19fold_captured_paramE0ENtNtNtBa_6traits8iterator8Iterator8try_foldINtNtB12_13in_place_drop11InPlaceDropB1L_ENCINvNtB12_16in_place_collect24write_in_place_with_dropB1L_E0INtNtBc_6result6ResultB66_zEEB3w_, symObjAddr: 0x3D00, symBinAddr: 0x33AF4, symSize: 0x4C }
  - { offset: 0x67B56, size: 0x8, addend: 0x0, symName: __RINvXs0_NtNtNtCsfvfooZQ3Axs_4core4iter8adapters3mapINtB6_3MapINtNtNtCse1nGBsou5OW_5alloc3vec9into_iter8IntoIterTNtNtCs6IAuOt8vWmF_3syn8generics14TypeParamBoundNtNtB1Q_5token4PlusEENCINvNtB1Q_10punctuated4foldB1M_B2x_NtNvCs2GZpXKFCdsl_11yoke_derive16replace_lifetime15ReplaceLifetimeNvYB3s_NtNtNtB1Q_3gen4fold4Fold21fold_type_param_boundE0ENtNtNtBa_6traits8iterator8Iterator8try_foldINtNtB12_13in_place_drop11InPlaceDropB1L_ENCINvNtB12_16in_place_collect24write_in_place_with_dropB1L_E0INtNtBc_6result6ResultB68_zEEB3w_, symObjAddr: 0x3D4C, symBinAddr: 0x33B40, symSize: 0x4C }
  - { offset: 0x67BD4, size: 0x8, addend: 0x0, symName: __RINvXs0_NtNtNtCsfvfooZQ3Axs_4core4iter8adapters3mapINtB6_3MapINtNtNtCse1nGBsou5OW_5alloc3vec9into_iter8IntoIterTNtNtCs6IAuOt8vWmF_3syn8generics14WherePredicateNtNtB1Q_5token5CommaEENCINvNtB1Q_10punctuated4foldB1M_B2x_NtNvCs2GZpXKFCdsl_11yoke_derive16replace_lifetime15ReplaceLifetimeNvYB3t_NtNtNtB1Q_3gen4fold4Fold20fold_where_predicateE0ENtNtNtBa_6traits8iterator8Iterator8try_foldINtNtB12_13in_place_drop11InPlaceDropB1L_ENCINvNtB12_16in_place_collect24write_in_place_with_dropB1L_E0INtNtBc_6result6ResultB68_zEEB3x_, symObjAddr: 0x3D98, symBinAddr: 0x33B8C, symSize: 0x4C }
  - { offset: 0x67C52, size: 0x8, addend: 0x0, symName: __RINvXs0_NtNtNtCsfvfooZQ3Axs_4core4iter8adapters3mapINtB6_3MapINtNtNtCse1nGBsou5OW_5alloc3vec9into_iter8IntoIterTNtNtCs6IAuOt8vWmF_3syn8lifetime8LifetimeNtNtB1Q_5token4PlusEENCINvNtB1Q_10punctuated4foldB1M_B2q_NtNvCs2GZpXKFCdsl_11yoke_derive16replace_lifetime15ReplaceLifetimeNvYB3l_NtNtNtB1Q_3gen4fold4Fold13fold_lifetimeE0ENtNtNtBa_6traits8iterator8Iterator8try_foldINtNtB12_13in_place_drop11InPlaceDropB1L_ENCINvNtB12_16in_place_collect24write_in_place_with_dropB1L_E0INtNtBc_6result6ResultB5T_zEEB3p_, symObjAddr: 0x3DE4, symBinAddr: 0x33BD8, symSize: 0x4C }
  - { offset: 0x67CD0, size: 0x8, addend: 0x0, symName: __RNvXs0_NtNtNtCsfvfooZQ3Axs_4core4iter8adapters3mapINtB5_3MapINtNtB7_6cloned6ClonedINtNtNtBb_5slice4iter4IterNtCs3cP53eQoTwO_11proc_macro25IdentEENCINvXs8_NtCsloNvcHxBCre_9hashbrown3setINtB2s_7HashSetB1I_NtNtNtCscOYdFFY2T5N_3std4hash6random11RandomStateEINtNtNtB9_6traits7collect6ExtendB1I_E6extendBW_E0ENtNtB48_8iterator8Iterator9size_hintCs2GZpXKFCdsl_11yoke_derive, symObjAddr: 0x8A5C, symBinAddr: 0x38850, symSize: 0x24 }
  - { offset: 0x67D17, size: 0x8, addend: 0x0, symName: __RNvXs0_NtNtNtCsfvfooZQ3Axs_4core4iter8adapters3mapINtB5_3MapINtNtNtBb_5slice4iter4IterNtCs3cP53eQoTwO_11proc_macro25IdentENCNvCs2GZpXKFCdsl_11yoke_derive20yokeable_derive_impls0_0ENtNtNtB9_6traits8iterator8Iterator9size_hintB20_, symObjAddr: 0x8A80, symBinAddr: 0x38874, symSize: 0x24 }
  - { offset: 0x67D5E, size: 0x8, addend: 0x0, symName: __RNvXs0_NtNtNtCsfvfooZQ3Axs_4core4iter8adapters3mapINtB5_3MapINtNtNtBb_5slice4iter4IterNtCs3cP53eQoTwO_11proc_macro25IdentENCNvCs2GZpXKFCdsl_11yoke_derive20yokeable_derive_impls2_0ENtNtNtB9_6traits8iterator8Iterator9size_hintB20_, symObjAddr: 0x8AA4, symBinAddr: 0x38898, symSize: 0x24 }
  - { offset: 0x67DA5, size: 0x8, addend: 0x0, symName: __RNvXs0_NtNtNtCsfvfooZQ3Axs_4core4iter8adapters3mapINtB5_3MapINtNtNtBb_5slice4iter4IterNtNtCs6IAuOt8vWmF_3syn8generics9TypeParamENCNvCs2GZpXKFCdsl_11yoke_derive20yokeable_derive_impls_0ENtNtNtB9_6traits8iterator8Iterator9size_hintB26_, symObjAddr: 0x8AC8, symBinAddr: 0x388BC, symSize: 0x24 }
  - { offset: 0x67DEC, size: 0x8, addend: 0x0, symName: __RNvXs0_NtNtNtCsfvfooZQ3Axs_4core4iter8adapters3mapINtB5_3MapNtNtCs6IAuOt8vWmF_3syn8generics10TypeParamsNCNvCs2GZpXKFCdsl_11yoke_derive20yokeable_derive_impl0ENtNtNtB9_6traits8iterator8Iterator4nextB1H_, symObjAddr: 0x8AEC, symBinAddr: 0x388E0, symSize: 0x9C }
  - { offset: 0x67E66, size: 0x8, addend: 0x0, symName: __RNvXs0_NtNtNtCsfvfooZQ3Axs_4core4iter8adapters3mapINtB5_3MapNtNtCs6IAuOt8vWmF_3syn8generics10TypeParamsNCNvCs2GZpXKFCdsl_11yoke_derive20yokeable_derive_impl0ENtNtNtB9_6traits8iterator8Iterator9size_hintB1H_, symObjAddr: 0x8B88, symBinAddr: 0x3897C, symSize: 0x24 }
  - { offset: 0x67F61, size: 0x8, addend: 0x0, symName: __RNCINvNtNtNtCsfvfooZQ3Axs_4core4iter8adapters3map8map_foldNtCs3cP53eQoTwO_11proc_macro25IdentTBU_uEuNCINvXs8_NtCsloNvcHxBCre_9hashbrown3setINtB1J_7HashSetBU_NtNtNtCscOYdFFY2T5N_3std4hash6random11RandomStateEINtNtNtB8_6traits7collect6ExtendBU_E6extendINtNtB6_6cloned6ClonedINtNtNtBa_5slice4iter4IterBU_EEE0NCINvNvNtNtB3o_8iterator8Iterator8for_each4callB1t_NCINvXs1i_NtB1L_3mapINtB5S_7HashMapBU_uB2v_EIB3k_B1t_E6extendINtB4_3MapB40_B1A_EE0E0E0Cs2GZpXKFCdsl_11yoke_derive, symObjAddr: 0x6EAC, symBinAddr: 0x36CA0, symSize: 0x9C }
  - { offset: 0x67FE7, size: 0x8, addend: 0x0, symName: __RNCINvNtNtNtCsfvfooZQ3Axs_4core4iter8adapters3map8map_foldRNtCs3cP53eQoTwO_11proc_macro25IdentBV_uNvYBV_NtNtBa_5clone5Clone5cloneNCIB2_BV_TBV_uEuNCINvXs8_NtCsloNvcHxBCre_9hashbrown3setINtB2s_7HashSetBV_NtNtNtCscOYdFFY2T5N_3std4hash6random11RandomStateEINtNtNtB8_6traits7collect6ExtendBV_E6extendINtNtB6_6cloned6ClonedINtNtNtBa_5slice4iter4IterBV_EEE0NCINvNvNtNtB47_8iterator8Iterator8for_each4callB2c_NCINvXs1i_NtB2u_3mapINtB6B_7HashMapBV_uB3e_EIB43_B2c_E6extendINtB4_3MapB4J_B2j_EE0E0E0E0Cs2GZpXKFCdsl_11yoke_derive, symObjAddr: 0x6F48, symBinAddr: 0x36D3C, symSize: 0x8C }
  - { offset: 0x6806C, size: 0x8, addend: 0x0, symName: __RNCINvNtNtNtCsfvfooZQ3Axs_4core4iter8adapters3map8map_foldRNtCs3cP53eQoTwO_11proc_macro25IdentNtNtCs6IAuOt8vWmF_3syn8generics14WherePredicateuNCNvCs2GZpXKFCdsl_11yoke_derive20yokeable_derive_impls0_0NCINvNvNtNtNtB8_6traits8iterator8Iterator8for_each4callB1u_NCINvMsi_NtCse1nGBsou5OW_5alloc3vecINtB4h_3VecB1u_E14extend_trustedINtB4_3MapINtNtNtBa_5slice4iter4IterBV_EB2g_EE0E0E0B2k_, symObjAddr: 0x6FD4, symBinAddr: 0x36DC8, symSize: 0x9C }
  - { offset: 0x680F1, size: 0x8, addend: 0x0, symName: __RNCINvNtNtNtCsfvfooZQ3Axs_4core4iter8adapters3map8map_foldRNtCs3cP53eQoTwO_11proc_macro25IdentNtNtCs6IAuOt8vWmF_3syn8generics14WherePredicateuNCNvCs2GZpXKFCdsl_11yoke_derive20yokeable_derive_impls2_0NCINvNvNtNtNtB8_6traits8iterator8Iterator8for_each4callB1u_NCINvMsi_NtCse1nGBsou5OW_5alloc3vecINtB4h_3VecB1u_E14extend_trustedINtB4_3MapINtNtNtBa_5slice4iter4IterBV_EB2g_EE0E0E0B2k_, symObjAddr: 0x7070, symBinAddr: 0x36E64, symSize: 0x9C }
  - { offset: 0x68176, size: 0x8, addend: 0x0, symName: __RNCINvNtNtNtCsfvfooZQ3Axs_4core4iter8adapters3map8map_foldRNtNtCs6IAuOt8vWmF_3syn8generics9TypeParamNtCs3cP53eQoTwO_11proc_macro25IdentuNCNvCs2GZpXKFCdsl_11yoke_derive20yokeable_derive_impls_0NCINvNvNtNtNtB8_6traits8iterator8Iterator8for_each4callB1A_NCINvMsi_NtCse1nGBsou5OW_5alloc3vecINtB4a_3VecB1A_E14extend_trustedINtB4_3MapINtNtNtBa_5slice4iter4IterBV_EB2a_EE0E0E0B2e_, symObjAddr: 0x710C, symBinAddr: 0x36F00, symSize: 0x8C }
  - { offset: 0x682C7, size: 0x8, addend: 0x0, symName: __RNCINvNtNtNtCsfvfooZQ3Axs_4core4iter8adapters3map12map_try_foldNtNtCs6IAuOt8vWmF_3syn4attr9AttributeBZ_INtNtNtCse1nGBsou5OW_5alloc3vec13in_place_drop11InPlaceDropBZ_EINtNtBa_6result6ResultB1D_zENCINvNtNtB13_3gen4fold8fold_vecBZ_NtNvCs2GZpXKFCdsl_11yoke_derive16replace_lifetime15ReplaceLifetimeNvYB3E_NtB3b_4Fold14fold_attributeE0NCINvNtB1I_16in_place_collect24write_in_place_with_dropBZ_E0E0B3I_, symObjAddr: 0x5330, symBinAddr: 0x35124, symSize: 0x118 }
  - { offset: 0x6835A, size: 0x8, addend: 0x0, symName: __RNCINvNtNtNtCsfvfooZQ3Axs_4core4iter8adapters3map12map_try_foldNtNtCs6IAuOt8vWmF_3syn4expr3ArmBZ_INtNtNtCse1nGBsou5OW_5alloc3vec13in_place_drop11InPlaceDropBZ_EINtNtBa_6result6ResultB1x_zENCINvNtNtB13_3gen4fold8fold_vecBZ_NtNvCs2GZpXKFCdsl_11yoke_derive16replace_lifetime15ReplaceLifetimeNvYB3y_NtB35_4Fold8fold_armE0NCINvNtB1C_16in_place_collect24write_in_place_with_dropBZ_E0E0B3C_, symObjAddr: 0x5448, symBinAddr: 0x3523C, symSize: 0x118 }
  - { offset: 0x683ED, size: 0x8, addend: 0x0, symName: __RNCINvNtNtNtCsfvfooZQ3Axs_4core4iter8adapters3map12map_try_foldNtNtCs6IAuOt8vWmF_3syn4item11ForeignItemBZ_INtNtNtCse1nGBsou5OW_5alloc3vec13in_place_drop11InPlaceDropBZ_EINtNtBa_6result6ResultB1G_zENCINvNtNtB13_3gen4fold8fold_vecBZ_NtNvCs2GZpXKFCdsl_11yoke_derive16replace_lifetime15ReplaceLifetimeNvYB3H_NtB3e_4Fold17fold_foreign_itemE0NCINvNtB1L_16in_place_collect24write_in_place_with_dropBZ_E0E0B3L_, symObjAddr: 0x5560, symBinAddr: 0x35354, symSize: 0x11C }
  - { offset: 0x68480, size: 0x8, addend: 0x0, symName: __RNCINvNtNtNtCsfvfooZQ3Axs_4core4iter8adapters3map12map_try_foldNtNtCs6IAuOt8vWmF_3syn4item4ItemBZ_INtNtNtCse1nGBsou5OW_5alloc3vec13in_place_drop11InPlaceDropBZ_EINtNtBa_6result6ResultB1y_zENCINvNtNtB13_3gen4fold8fold_vecBZ_NtNvCs2GZpXKFCdsl_11yoke_derive16replace_lifetime15ReplaceLifetimeNvYB3z_NtB36_4Fold9fold_itemE0NCINvNtB1D_16in_place_collect24write_in_place_with_dropBZ_E0E0B3D_, symObjAddr: 0x567C, symBinAddr: 0x35470, symSize: 0x11C }
  - { offset: 0x68513, size: 0x8, addend: 0x0, symName: __RNCINvNtNtNtCsfvfooZQ3Axs_4core4iter8adapters3map12map_try_foldNtNtCs6IAuOt8vWmF_3syn4item8ImplItemBZ_INtNtNtCse1nGBsou5OW_5alloc3vec13in_place_drop11InPlaceDropBZ_EINtNtBa_6result6ResultB1C_zENCINvNtNtB13_3gen4fold8fold_vecBZ_NtNvCs2GZpXKFCdsl_11yoke_derive16replace_lifetime15ReplaceLifetimeNvYB3D_NtB3a_4Fold14fold_impl_itemE0NCINvNtB1H_16in_place_collect24write_in_place_with_dropBZ_E0E0B3H_, symObjAddr: 0x5798, symBinAddr: 0x3558C, symSize: 0x11C }
  - { offset: 0x685A6, size: 0x8, addend: 0x0, symName: __RNCINvNtNtNtCsfvfooZQ3Axs_4core4iter8adapters3map12map_try_foldNtNtCs6IAuOt8vWmF_3syn4item9TraitItemBZ_INtNtNtCse1nGBsou5OW_5alloc3vec13in_place_drop11InPlaceDropBZ_EINtNtBa_6result6ResultB1D_zENCINvNtNtB13_3gen4fold8fold_vecBZ_NtNvCs2GZpXKFCdsl_11yoke_derive16replace_lifetime15ReplaceLifetimeNvYB3E_NtB3b_4Fold15fold_trait_itemE0NCINvNtB1I_16in_place_collect24write_in_place_with_dropBZ_E0E0B3I_, symObjAddr: 0x58B4, symBinAddr: 0x356A8, symSize: 0x11C }
  - { offset: 0x68639, size: 0x8, addend: 0x0, symName: __RNCINvNtNtNtCsfvfooZQ3Axs_4core4iter8adapters3map12map_try_foldNtNtCs6IAuOt8vWmF_3syn4stmt4StmtBZ_INtNtNtCse1nGBsou5OW_5alloc3vec13in_place_drop11InPlaceDropBZ_EINtNtBa_6result6ResultB1y_zENCINvNtNtB13_3gen4fold8fold_vecBZ_NtNvCs2GZpXKFCdsl_11yoke_derive16replace_lifetime15ReplaceLifetimeNvYB3z_NtB36_4Fold9fold_stmtE0NCINvNtB1D_16in_place_collect24write_in_place_with_dropBZ_E0E0B3D_, symObjAddr: 0x59D0, symBinAddr: 0x357C4, symSize: 0x11C }
  - { offset: 0x686CC, size: 0x8, addend: 0x0, symName: __RNCINvNtNtNtCsfvfooZQ3Axs_4core4iter8adapters3map12map_try_foldTNtNtCs6IAuOt8vWmF_3syn2ty4TypeNtNtB14_5token5CommaEBZ_INtNtNtCse1nGBsou5OW_5alloc3vec13in_place_drop11InPlaceDropBZ_EINtNtBa_6result6ResultB1S_zENCINvNtB14_10punctuated4foldB10_B1u_NtNvCs2GZpXKFCdsl_11yoke_derive16replace_lifetime15ReplaceLifetimeNvYB3V_NtNtNtB14_3gen4fold4Fold9fold_typeE0NCINvNtB1X_16in_place_collect24write_in_place_with_dropBZ_E0E0B3Z_, symObjAddr: 0x5AEC, symBinAddr: 0x358E0, symSize: 0x118 }
  - { offset: 0x6875F, size: 0x8, addend: 0x0, symName: __RNCINvNtNtNtCsfvfooZQ3Axs_4core4iter8adapters3map12map_try_foldTNtNtCs6IAuOt8vWmF_3syn2ty9BareFnArgNtNtB14_5token5CommaEBZ_INtNtNtCse1nGBsou5OW_5alloc3vec13in_place_drop11InPlaceDropBZ_EINtNtBa_6result6ResultB1X_zENCINvNtB14_10punctuated4foldB10_B1z_NtNvCs2GZpXKFCdsl_11yoke_derive16replace_lifetime15ReplaceLifetimeNvYB40_NtNtNtB14_3gen4fold4Fold16fold_bare_fn_argE0NCINvNtB22_16in_place_collect24write_in_place_with_dropBZ_E0E0B44_, symObjAddr: 0x5C04, symBinAddr: 0x359F8, symSize: 0x118 }
  - { offset: 0x687F2, size: 0x8, addend: 0x0, symName: __RNCINvNtNtNtCsfvfooZQ3Axs_4core4iter8adapters3map12map_try_foldTNtNtCs6IAuOt8vWmF_3syn3pat3PatNtNtB14_5token2OrEBZ_INtNtNtCse1nGBsou5OW_5alloc3vec13in_place_drop11InPlaceDropBZ_EINtNtBa_6result6ResultB1P_zENCINvNtB14_10punctuated4foldB10_B1u_NtNvCs2GZpXKFCdsl_11yoke_derive16replace_lifetime15ReplaceLifetimeNvYB3S_NtNtNtB14_3gen4fold4Fold8fold_patE0NCINvNtB1U_16in_place_collect24write_in_place_with_dropBZ_E0E0B3W_, symObjAddr: 0x5D1C, symBinAddr: 0x35B10, symSize: 0x118 }
  - { offset: 0x68885, size: 0x8, addend: 0x0, symName: __RNCINvNtNtNtCsfvfooZQ3Axs_4core4iter8adapters3map12map_try_foldTNtNtCs6IAuOt8vWmF_3syn3pat3PatNtNtB14_5token5CommaEBZ_INtNtNtCse1nGBsou5OW_5alloc3vec13in_place_drop11InPlaceDropBZ_EINtNtBa_6result6ResultB1S_zENCINvNtB14_10punctuated4foldB10_B1u_NtNvCs2GZpXKFCdsl_11yoke_derive16replace_lifetime15ReplaceLifetimeNvYB3V_NtNtNtB14_3gen4fold4Fold8fold_patE0NCINvNtB1X_16in_place_collect24write_in_place_with_dropBZ_E0E0B3Z_, symObjAddr: 0x5E34, symBinAddr: 0x35C28, symSize: 0x118 }
  - { offset: 0x68918, size: 0x8, addend: 0x0, symName: __RNCINvNtNtNtCsfvfooZQ3Axs_4core4iter8adapters3map12map_try_foldTNtNtCs6IAuOt8vWmF_3syn3pat8FieldPatNtNtB14_5token5CommaEBZ_INtNtNtCse1nGBsou5OW_5alloc3vec13in_place_drop11InPlaceDropBZ_EINtNtBa_6result6ResultB1X_zENCINvNtB14_10punctuated4foldB10_B1z_NtNvCs2GZpXKFCdsl_11yoke_derive16replace_lifetime15ReplaceLifetimeNvYB40_NtNtNtB14_3gen4fold4Fold14fold_field_patE0NCINvNtB22_16in_place_collect24write_in_place_with_dropBZ_E0E0B44_, symObjAddr: 0x5F4C, symBinAddr: 0x35D40, symSize: 0x118 }
  - { offset: 0x689AB, size: 0x8, addend: 0x0, symName: __RNCINvNtNtNtCsfvfooZQ3Axs_4core4iter8adapters3map12map_try_foldTNtNtCs6IAuOt8vWmF_3syn4data5FieldNtNtB14_5token5CommaEBZ_INtNtNtCse1nGBsou5OW_5alloc3vec13in_place_drop11InPlaceDropBZ_EINtNtBa_6result6ResultB1V_zENCINvNtB14_10punctuated4foldB10_B1x_NtNvCs2GZpXKFCdsl_11yoke_derive16replace_lifetime15ReplaceLifetimeNvYB3Y_NtNtNtB14_3gen4fold4Fold10fold_fieldE0NCINvNtB20_16in_place_collect24write_in_place_with_dropBZ_E0E0B42_, symObjAddr: 0x6064, symBinAddr: 0x35E58, symSize: 0x11C }
  - { offset: 0x68A3E, size: 0x8, addend: 0x0, symName: __RNCINvNtNtNtCsfvfooZQ3Axs_4core4iter8adapters3map12map_try_foldTNtNtCs6IAuOt8vWmF_3syn4data7VariantNtNtB14_5token5CommaEBZ_INtNtNtCse1nGBsou5OW_5alloc3vec13in_place_drop11InPlaceDropBZ_EINtNtBa_6result6ResultB1X_zENCINvNtB14_10punctuated4foldB10_B1z_NtNvCs2GZpXKFCdsl_11yoke_derive16replace_lifetime15ReplaceLifetimeNvYB40_NtNtNtB14_3gen4fold4Fold12fold_variantE0NCINvNtB22_16in_place_collect24write_in_place_with_dropBZ_E0E0B44_, symObjAddr: 0x6180, symBinAddr: 0x35F74, symSize: 0x118 }
  - { offset: 0x68AD1, size: 0x8, addend: 0x0, symName: __RNCINvNtNtNtCsfvfooZQ3Axs_4core4iter8adapters3map12map_try_foldTNtNtCs6IAuOt8vWmF_3syn4expr10FieldValueNtNtB14_5token5CommaEBZ_INtNtNtCse1nGBsou5OW_5alloc3vec13in_place_drop11InPlaceDropBZ_EINtNtBa_6result6ResultB21_zENCINvNtB14_10punctuated4foldB10_B1D_NtNvCs2GZpXKFCdsl_11yoke_derive16replace_lifetime15ReplaceLifetimeNvYB44_NtNtNtB14_3gen4fold4Fold16fold_field_valueE0NCINvNtB26_16in_place_collect24write_in_place_with_dropBZ_E0E0B48_, symObjAddr: 0x6298, symBinAddr: 0x3608C, symSize: 0x118 }
  - { offset: 0x68B64, size: 0x8, addend: 0x0, symName: __RNCINvNtNtNtCsfvfooZQ3Axs_4core4iter8adapters3map12map_try_foldTNtNtCs6IAuOt8vWmF_3syn4expr4ExprNtNtB14_5token5CommaEBZ_INtNtNtCse1nGBsou5OW_5alloc3vec13in_place_drop11InPlaceDropBZ_EINtNtBa_6result6ResultB1U_zENCINvNtB14_10punctuated4foldB10_B1w_NtNvCs2GZpXKFCdsl_11yoke_derive16replace_lifetime15ReplaceLifetimeNvYB3X_NtNtNtB14_3gen4fold4Fold9fold_exprE0NCINvNtB1Z_16in_place_collect24write_in_place_with_dropBZ_E0E0B41_, symObjAddr: 0x63B0, symBinAddr: 0x361A4, symSize: 0x118 }
  - { offset: 0x68BF7, size: 0x8, addend: 0x0, symName: __RNCINvNtNtNtCsfvfooZQ3Axs_4core4iter8adapters3map12map_try_foldTNtNtCs6IAuOt8vWmF_3syn4item5FnArgNtNtB14_5token5CommaEBZ_INtNtNtCse1nGBsou5OW_5alloc3vec13in_place_drop11InPlaceDropBZ_EINtNtBa_6result6ResultB1V_zENCINvNtB14_10punctuated4foldB10_B1x_NtNvCs2GZpXKFCdsl_11yoke_derive16replace_lifetime15ReplaceLifetimeNvYB3Y_NtNtNtB14_3gen4fold4Fold11fold_fn_argE0NCINvNtB20_16in_place_collect24write_in_place_with_dropBZ_E0E0B42_, symObjAddr: 0x64C8, symBinAddr: 0x362BC, symSize: 0x118 }
  - { offset: 0x68C8A, size: 0x8, addend: 0x0, symName: __RNCINvNtNtNtCsfvfooZQ3Axs_4core4iter8adapters3map12map_try_foldTNtNtCs6IAuOt8vWmF_3syn4item7UseTreeNtNtB14_5token5CommaEBZ_INtNtNtCse1nGBsou5OW_5alloc3vec13in_place_drop11InPlaceDropBZ_EINtNtBa_6result6ResultB1X_zENCINvNtB14_10punctuated4foldB10_B1z_NtNvCs2GZpXKFCdsl_11yoke_derive16replace_lifetime15ReplaceLifetimeNvYB40_NtNtNtB14_3gen4fold4Fold13fold_use_treeE0NCINvNtB22_16in_place_collect24write_in_place_with_dropBZ_E0E0B44_, symObjAddr: 0x65E0, symBinAddr: 0x363D4, symSize: 0x118 }
  - { offset: 0x68D1D, size: 0x8, addend: 0x0, symName: __RNCINvNtNtNtCsfvfooZQ3Axs_4core4iter8adapters3map12map_try_foldTNtNtCs6IAuOt8vWmF_3syn4path11PathSegmentNtNtB14_5token7PathSepEBZ_INtNtNtCse1nGBsou5OW_5alloc3vec13in_place_drop11InPlaceDropBZ_EINtNtBa_6result6ResultB24_zENCINvNtB14_10punctuated4foldB10_B1E_NtNvCs2GZpXKFCdsl_11yoke_derive16replace_lifetime15ReplaceLifetimeNvYB47_NtNtNtB14_3gen4fold4Fold17fold_path_segmentE0NCINvNtB29_16in_place_collect24write_in_place_with_dropBZ_E0E0B4b_, symObjAddr: 0x66F8, symBinAddr: 0x364EC, symSize: 0x118 }
  - { offset: 0x68DB0, size: 0x8, addend: 0x0, symName: __RNCINvNtNtNtCsfvfooZQ3Axs_4core4iter8adapters3map12map_try_foldTNtNtCs6IAuOt8vWmF_3syn4path15GenericArgumentNtNtB14_5token5CommaEBZ_INtNtNtCse1nGBsou5OW_5alloc3vec13in_place_drop11InPlaceDropBZ_EINtNtBa_6result6ResultB26_zENCINvNtB14_10punctuated4foldB10_B1I_NtNvCs2GZpXKFCdsl_11yoke_derive16replace_lifetime15ReplaceLifetimeNvYB49_NtNtNtB14_3gen4fold4Fold21fold_generic_argumentE0NCINvNtB2b_16in_place_collect24write_in_place_with_dropBZ_E0E0B4d_, symObjAddr: 0x6810, symBinAddr: 0x36604, symSize: 0x11C }
  - { offset: 0x68E43, size: 0x8, addend: 0x0, symName: __RNCINvNtNtNtCsfvfooZQ3Axs_4core4iter8adapters3map12map_try_foldTNtNtCs6IAuOt8vWmF_3syn8generics12GenericParamNtNtB14_5token5CommaEBZ_INtNtNtCse1nGBsou5OW_5alloc3vec13in_place_drop11InPlaceDropBZ_EINtNtBa_6result6ResultB27_zENCINvNtB14_10punctuated4foldB10_B1J_NtNvCs2GZpXKFCdsl_11yoke_derive16replace_lifetime15ReplaceLifetimeNvYB4a_NtNtNtB14_3gen4fold4Fold18fold_generic_paramE0NCINvNtB2c_16in_place_collect24write_in_place_with_dropBZ_E0E0B4e_, symObjAddr: 0x692C, symBinAddr: 0x36720, symSize: 0x11C }
  - { offset: 0x68ED6, size: 0x8, addend: 0x0, symName: __RNCINvNtNtNtCsfvfooZQ3Axs_4core4iter8adapters3map12map_try_foldTNtNtCs6IAuOt8vWmF_3syn8generics13CapturedParamNtNtB14_5token5CommaEBZ_INtNtNtCse1nGBsou5OW_5alloc3vec13in_place_drop11InPlaceDropBZ_EINtNtBa_6result6ResultB28_zENCINvNtB14_10punctuated4foldB10_B1K_NtNvCs2GZpXKFCdsl_11yoke_derive16replace_lifetime15ReplaceLifetimeNvYB4b_NtNtNtB14_3gen4fold4Fold19fold_captured_paramE0NCINvNtB2d_16in_place_collect24write_in_place_with_dropBZ_E0E0B4f_, symObjAddr: 0x6A48, symBinAddr: 0x3683C, symSize: 0x118 }
  - { offset: 0x68F69, size: 0x8, addend: 0x0, symName: __RNCINvNtNtNtCsfvfooZQ3Axs_4core4iter8adapters3map12map_try_foldTNtNtCs6IAuOt8vWmF_3syn8generics14TypeParamBoundNtNtB14_5token4PlusEBZ_INtNtNtCse1nGBsou5OW_5alloc3vec13in_place_drop11InPlaceDropBZ_EINtNtBa_6result6ResultB28_zENCINvNtB14_10punctuated4foldB10_B1L_NtNvCs2GZpXKFCdsl_11yoke_derive16replace_lifetime15ReplaceLifetimeNvYB4b_NtNtNtB14_3gen4fold4Fold21fold_type_param_boundE0NCINvNtB2d_16in_place_collect24write_in_place_with_dropBZ_E0E0B4f_, symObjAddr: 0x6B60, symBinAddr: 0x36954, symSize: 0x118 }
  - { offset: 0x68FFC, size: 0x8, addend: 0x0, symName: __RNCINvNtNtNtCsfvfooZQ3Axs_4core4iter8adapters3map12map_try_foldTNtNtCs6IAuOt8vWmF_3syn8generics14WherePredicateNtNtB14_5token5CommaEBZ_INtNtNtCse1nGBsou5OW_5alloc3vec13in_place_drop11InPlaceDropBZ_EINtNtBa_6result6ResultB29_zENCINvNtB14_10punctuated4foldB10_B1L_NtNvCs2GZpXKFCdsl_11yoke_derive16replace_lifetime15ReplaceLifetimeNvYB4c_NtNtNtB14_3gen4fold4Fold20fold_where_predicateE0NCINvNtB2e_16in_place_collect24write_in_place_with_dropBZ_E0E0B4g_, symObjAddr: 0x6C78, symBinAddr: 0x36A6C, symSize: 0x11C }
  - { offset: 0x6908F, size: 0x8, addend: 0x0, symName: __RNCINvNtNtNtCsfvfooZQ3Axs_4core4iter8adapters3map12map_try_foldTNtNtCs6IAuOt8vWmF_3syn8lifetime8LifetimeNtNtB14_5token4PlusEBZ_INtNtNtCse1nGBsou5OW_5alloc3vec13in_place_drop11InPlaceDropBZ_EINtNtBa_6result6ResultB21_zENCINvNtB14_10punctuated4foldB10_B1E_NtNvCs2GZpXKFCdsl_11yoke_derive16replace_lifetime15ReplaceLifetimeNvYB44_NtNtNtB14_3gen4fold4Fold13fold_lifetimeE0NCINvNtB26_16in_place_collect24write_in_place_with_dropBZ_E0E0B48_, symObjAddr: 0x6D94, symBinAddr: 0x36B88, symSize: 0x118 }
  - { offset: 0x69128, size: 0x8, addend: 0x0, symName: __RNvXs9_NtNtNtCsfvfooZQ3Axs_4core4iter8adapters3mapINtB5_3MapINtNtNtCse1nGBsou5OW_5alloc3vec9into_iter8IntoIterNtNtCs6IAuOt8vWmF_3syn4attr9AttributeENCINvNtNtB1O_3gen4fold8fold_vecB1K_NtNvCs2GZpXKFCdsl_11yoke_derive16replace_lifetime15ReplaceLifetimeNvYB2V_NtB2r_4Fold14fold_attributeE0ENtB7_10SourceIter8as_innerB2Z_, symObjAddr: 0x8BAC, symBinAddr: 0x389A0, symSize: 0x24 }
  - { offset: 0x69166, size: 0x8, addend: 0x0, symName: __RNvXs9_NtNtNtCsfvfooZQ3Axs_4core4iter8adapters3mapINtB5_3MapINtNtNtCse1nGBsou5OW_5alloc3vec9into_iter8IntoIterNtNtCs6IAuOt8vWmF_3syn4expr3ArmENCINvNtNtB1O_3gen4fold8fold_vecB1K_NtNvCs2GZpXKFCdsl_11yoke_derive16replace_lifetime15ReplaceLifetimeNvYB2P_NtB2l_4Fold8fold_armE0ENtB7_10SourceIter8as_innerB2T_, symObjAddr: 0x8BD0, symBinAddr: 0x389C4, symSize: 0x24 }
  - { offset: 0x691A4, size: 0x8, addend: 0x0, symName: __RNvXs9_NtNtNtCsfvfooZQ3Axs_4core4iter8adapters3mapINtB5_3MapINtNtNtCse1nGBsou5OW_5alloc3vec9into_iter8IntoIterNtNtCs6IAuOt8vWmF_3syn4item11ForeignItemENCINvNtNtB1O_3gen4fold8fold_vecB1K_NtNvCs2GZpXKFCdsl_11yoke_derive16replace_lifetime15ReplaceLifetimeNvYB2Y_NtB2u_4Fold17fold_foreign_itemE0ENtB7_10SourceIter8as_innerB32_, symObjAddr: 0x8BF4, symBinAddr: 0x389E8, symSize: 0x24 }
  - { offset: 0x691E2, size: 0x8, addend: 0x0, symName: __RNvXs9_NtNtNtCsfvfooZQ3Axs_4core4iter8adapters3mapINtB5_3MapINtNtNtCse1nGBsou5OW_5alloc3vec9into_iter8IntoIterNtNtCs6IAuOt8vWmF_3syn4item4ItemENCINvNtNtB1O_3gen4fold8fold_vecB1K_NtNvCs2GZpXKFCdsl_11yoke_derive16replace_lifetime15ReplaceLifetimeNvYB2Q_NtB2m_4Fold9fold_itemE0ENtB7_10SourceIter8as_innerB2U_, symObjAddr: 0x8C18, symBinAddr: 0x38A0C, symSize: 0x24 }
  - { offset: 0x69220, size: 0x8, addend: 0x0, symName: __RNvXs9_NtNtNtCsfvfooZQ3Axs_4core4iter8adapters3mapINtB5_3MapINtNtNtCse1nGBsou5OW_5alloc3vec9into_iter8IntoIterNtNtCs6IAuOt8vWmF_3syn4item8ImplItemENCINvNtNtB1O_3gen4fold8fold_vecB1K_NtNvCs2GZpXKFCdsl_11yoke_derive16replace_lifetime15ReplaceLifetimeNvYB2U_NtB2q_4Fold14fold_impl_itemE0ENtB7_10SourceIter8as_innerB2Y_, symObjAddr: 0x8C3C, symBinAddr: 0x38A30, symSize: 0x24 }
  - { offset: 0x6925E, size: 0x8, addend: 0x0, symName: __RNvXs9_NtNtNtCsfvfooZQ3Axs_4core4iter8adapters3mapINtB5_3MapINtNtNtCse1nGBsou5OW_5alloc3vec9into_iter8IntoIterNtNtCs6IAuOt8vWmF_3syn4item9TraitItemENCINvNtNtB1O_3gen4fold8fold_vecB1K_NtNvCs2GZpXKFCdsl_11yoke_derive16replace_lifetime15ReplaceLifetimeNvYB2V_NtB2r_4Fold15fold_trait_itemE0ENtB7_10SourceIter8as_innerB2Z_, symObjAddr: 0x8C60, symBinAddr: 0x38A54, symSize: 0x24 }
  - { offset: 0x6929C, size: 0x8, addend: 0x0, symName: __RNvXs9_NtNtNtCsfvfooZQ3Axs_4core4iter8adapters3mapINtB5_3MapINtNtNtCse1nGBsou5OW_5alloc3vec9into_iter8IntoIterNtNtCs6IAuOt8vWmF_3syn4stmt4StmtENCINvNtNtB1O_3gen4fold8fold_vecB1K_NtNvCs2GZpXKFCdsl_11yoke_derive16replace_lifetime15ReplaceLifetimeNvYB2Q_NtB2m_4Fold9fold_stmtE0ENtB7_10SourceIter8as_innerB2U_, symObjAddr: 0x8C84, symBinAddr: 0x38A78, symSize: 0x24 }
  - { offset: 0x692DA, size: 0x8, addend: 0x0, symName: __RNvXs9_NtNtNtCsfvfooZQ3Axs_4core4iter8adapters3mapINtB5_3MapINtNtNtCse1nGBsou5OW_5alloc3vec9into_iter8IntoIterTNtNtCs6IAuOt8vWmF_3syn2ty4TypeNtNtB1P_5token5CommaEENCINvNtB1P_10punctuated4foldB1L_B2f_NtNvCs2GZpXKFCdsl_11yoke_derive16replace_lifetime15ReplaceLifetimeNvYB3b_NtNtNtB1P_3gen4fold4Fold9fold_typeE0ENtB7_10SourceIter8as_innerB3f_, symObjAddr: 0x8CA8, symBinAddr: 0x38A9C, symSize: 0x24 }
  - { offset: 0x69318, size: 0x8, addend: 0x0, symName: __RNvXs9_NtNtNtCsfvfooZQ3Axs_4core4iter8adapters3mapINtB5_3MapINtNtNtCse1nGBsou5OW_5alloc3vec9into_iter8IntoIterTNtNtCs6IAuOt8vWmF_3syn2ty9BareFnArgNtNtB1P_5token5CommaEENCINvNtB1P_10punctuated4foldB1L_B2k_NtNvCs2GZpXKFCdsl_11yoke_derive16replace_lifetime15ReplaceLifetimeNvYB3g_NtNtNtB1P_3gen4fold4Fold16fold_bare_fn_argE0ENtB7_10SourceIter8as_innerB3k_, symObjAddr: 0x8CCC, symBinAddr: 0x38AC0, symSize: 0x24 }
  - { offset: 0x69356, size: 0x8, addend: 0x0, symName: __RNvXs9_NtNtNtCsfvfooZQ3Axs_4core4iter8adapters3mapINtB5_3MapINtNtNtCse1nGBsou5OW_5alloc3vec9into_iter8IntoIterTNtNtCs6IAuOt8vWmF_3syn3pat3PatNtNtB1P_5token2OrEENCINvNtB1P_10punctuated4foldB1L_B2f_NtNvCs2GZpXKFCdsl_11yoke_derive16replace_lifetime15ReplaceLifetimeNvYB38_NtNtNtB1P_3gen4fold4Fold8fold_patE0ENtB7_10SourceIter8as_innerB3c_, symObjAddr: 0x8CF0, symBinAddr: 0x38AE4, symSize: 0x24 }
  - { offset: 0x69394, size: 0x8, addend: 0x0, symName: __RNvXs9_NtNtNtCsfvfooZQ3Axs_4core4iter8adapters3mapINtB5_3MapINtNtNtCse1nGBsou5OW_5alloc3vec9into_iter8IntoIterTNtNtCs6IAuOt8vWmF_3syn3pat3PatNtNtB1P_5token5CommaEENCINvNtB1P_10punctuated4foldB1L_B2f_NtNvCs2GZpXKFCdsl_11yoke_derive16replace_lifetime15ReplaceLifetimeNvYB3b_NtNtNtB1P_3gen4fold4Fold8fold_patE0ENtB7_10SourceIter8as_innerB3f_, symObjAddr: 0x8D14, symBinAddr: 0x38B08, symSize: 0x24 }
  - { offset: 0x693D2, size: 0x8, addend: 0x0, symName: __RNvXs9_NtNtNtCsfvfooZQ3Axs_4core4iter8adapters3mapINtB5_3MapINtNtNtCse1nGBsou5OW_5alloc3vec9into_iter8IntoIterTNtNtCs6IAuOt8vWmF_3syn3pat8FieldPatNtNtB1P_5token5CommaEENCINvNtB1P_10punctuated4foldB1L_B2k_NtNvCs2GZpXKFCdsl_11yoke_derive16replace_lifetime15ReplaceLifetimeNvYB3g_NtNtNtB1P_3gen4fold4Fold14fold_field_patE0ENtB7_10SourceIter8as_innerB3k_, symObjAddr: 0x8D38, symBinAddr: 0x38B2C, symSize: 0x24 }
  - { offset: 0x69410, size: 0x8, addend: 0x0, symName: __RNvXs9_NtNtNtCsfvfooZQ3Axs_4core4iter8adapters3mapINtB5_3MapINtNtNtCse1nGBsou5OW_5alloc3vec9into_iter8IntoIterTNtNtCs6IAuOt8vWmF_3syn4data5FieldNtNtB1P_5token5CommaEENCINvNtB1P_10punctuated4foldB1L_B2i_NtNvCs2GZpXKFCdsl_11yoke_derive16replace_lifetime15ReplaceLifetimeNvYB3e_NtNtNtB1P_3gen4fold4Fold10fold_fieldE0ENtB7_10SourceIter8as_innerB3i_, symObjAddr: 0x8D5C, symBinAddr: 0x38B50, symSize: 0x24 }
  - { offset: 0x6944E, size: 0x8, addend: 0x0, symName: __RNvXs9_NtNtNtCsfvfooZQ3Axs_4core4iter8adapters3mapINtB5_3MapINtNtNtCse1nGBsou5OW_5alloc3vec9into_iter8IntoIterTNtNtCs6IAuOt8vWmF_3syn4data7VariantNtNtB1P_5token5CommaEENCINvNtB1P_10punctuated4foldB1L_B2k_NtNvCs2GZpXKFCdsl_11yoke_derive16replace_lifetime15ReplaceLifetimeNvYB3g_NtNtNtB1P_3gen4fold4Fold12fold_variantE0ENtB7_10SourceIter8as_innerB3k_, symObjAddr: 0x8D80, symBinAddr: 0x38B74, symSize: 0x24 }
  - { offset: 0x6948C, size: 0x8, addend: 0x0, symName: __RNvXs9_NtNtNtCsfvfooZQ3Axs_4core4iter8adapters3mapINtB5_3MapINtNtNtCse1nGBsou5OW_5alloc3vec9into_iter8IntoIterTNtNtCs6IAuOt8vWmF_3syn4expr10FieldValueNtNtB1P_5token5CommaEENCINvNtB1P_10punctuated4foldB1L_B2o_NtNvCs2GZpXKFCdsl_11yoke_derive16replace_lifetime15ReplaceLifetimeNvYB3k_NtNtNtB1P_3gen4fold4Fold16fold_field_valueE0ENtB7_10SourceIter8as_innerB3o_, symObjAddr: 0x8DA4, symBinAddr: 0x38B98, symSize: 0x24 }
  - { offset: 0x694CA, size: 0x8, addend: 0x0, symName: __RNvXs9_NtNtNtCsfvfooZQ3Axs_4core4iter8adapters3mapINtB5_3MapINtNtNtCse1nGBsou5OW_5alloc3vec9into_iter8IntoIterTNtNtCs6IAuOt8vWmF_3syn4expr4ExprNtNtB1P_5token5CommaEENCINvNtB1P_10punctuated4foldB1L_B2h_NtNvCs2GZpXKFCdsl_11yoke_derive16replace_lifetime15ReplaceLifetimeNvYB3d_NtNtNtB1P_3gen4fold4Fold9fold_exprE0ENtB7_10SourceIter8as_innerB3h_, symObjAddr: 0x8DC8, symBinAddr: 0x38BBC, symSize: 0x24 }
  - { offset: 0x69508, size: 0x8, addend: 0x0, symName: __RNvXs9_NtNtNtCsfvfooZQ3Axs_4core4iter8adapters3mapINtB5_3MapINtNtNtCse1nGBsou5OW_5alloc3vec9into_iter8IntoIterTNtNtCs6IAuOt8vWmF_3syn4item5FnArgNtNtB1P_5token5CommaEENCINvNtB1P_10punctuated4foldB1L_B2i_NtNvCs2GZpXKFCdsl_11yoke_derive16replace_lifetime15ReplaceLifetimeNvYB3e_NtNtNtB1P_3gen4fold4Fold11fold_fn_argE0ENtB7_10SourceIter8as_innerB3i_, symObjAddr: 0x8DEC, symBinAddr: 0x38BE0, symSize: 0x24 }
  - { offset: 0x69546, size: 0x8, addend: 0x0, symName: __RNvXs9_NtNtNtCsfvfooZQ3Axs_4core4iter8adapters3mapINtB5_3MapINtNtNtCse1nGBsou5OW_5alloc3vec9into_iter8IntoIterTNtNtCs6IAuOt8vWmF_3syn4item7UseTreeNtNtB1P_5token5CommaEENCINvNtB1P_10punctuated4foldB1L_B2k_NtNvCs2GZpXKFCdsl_11yoke_derive16replace_lifetime15ReplaceLifetimeNvYB3g_NtNtNtB1P_3gen4fold4Fold13fold_use_treeE0ENtB7_10SourceIter8as_innerB3k_, symObjAddr: 0x8E10, symBinAddr: 0x38C04, symSize: 0x24 }
  - { offset: 0x69584, size: 0x8, addend: 0x0, symName: __RNvXs9_NtNtNtCsfvfooZQ3Axs_4core4iter8adapters3mapINtB5_3MapINtNtNtCse1nGBsou5OW_5alloc3vec9into_iter8IntoIterTNtNtCs6IAuOt8vWmF_3syn4path11PathSegmentNtNtB1P_5token7PathSepEENCINvNtB1P_10punctuated4foldB1L_B2p_NtNvCs2GZpXKFCdsl_11yoke_derive16replace_lifetime15ReplaceLifetimeNvYB3n_NtNtNtB1P_3gen4fold4Fold17fold_path_segmentE0ENtB7_10SourceIter8as_innerB3r_, symObjAddr: 0x8E34, symBinAddr: 0x38C28, symSize: 0x24 }
  - { offset: 0x695C2, size: 0x8, addend: 0x0, symName: __RNvXs9_NtNtNtCsfvfooZQ3Axs_4core4iter8adapters3mapINtB5_3MapINtNtNtCse1nGBsou5OW_5alloc3vec9into_iter8IntoIterTNtNtCs6IAuOt8vWmF_3syn4path15GenericArgumentNtNtB1P_5token5CommaEENCINvNtB1P_10punctuated4foldB1L_B2t_NtNvCs2GZpXKFCdsl_11yoke_derive16replace_lifetime15ReplaceLifetimeNvYB3p_NtNtNtB1P_3gen4fold4Fold21fold_generic_argumentE0ENtB7_10SourceIter8as_innerB3t_, symObjAddr: 0x8E58, symBinAddr: 0x38C4C, symSize: 0x24 }
  - { offset: 0x69600, size: 0x8, addend: 0x0, symName: __RNvXs9_NtNtNtCsfvfooZQ3Axs_4core4iter8adapters3mapINtB5_3MapINtNtNtCse1nGBsou5OW_5alloc3vec9into_iter8IntoIterTNtNtCs6IAuOt8vWmF_3syn8generics12GenericParamNtNtB1P_5token5CommaEENCINvNtB1P_10punctuated4foldB1L_B2u_NtNvCs2GZpXKFCdsl_11yoke_derive16replace_lifetime15ReplaceLifetimeNvYB3q_NtNtNtB1P_3gen4fold4Fold18fold_generic_paramE0ENtB7_10SourceIter8as_innerB3u_, symObjAddr: 0x8E7C, symBinAddr: 0x38C70, symSize: 0x24 }
  - { offset: 0x6963E, size: 0x8, addend: 0x0, symName: __RNvXs9_NtNtNtCsfvfooZQ3Axs_4core4iter8adapters3mapINtB5_3MapINtNtNtCse1nGBsou5OW_5alloc3vec9into_iter8IntoIterTNtNtCs6IAuOt8vWmF_3syn8generics13CapturedParamNtNtB1P_5token5CommaEENCINvNtB1P_10punctuated4foldB1L_B2v_NtNvCs2GZpXKFCdsl_11yoke_derive16replace_lifetime15ReplaceLifetimeNvYB3r_NtNtNtB1P_3gen4fold4Fold19fold_captured_paramE0ENtB7_10SourceIter8as_innerB3v_, symObjAddr: 0x8EA0, symBinAddr: 0x38C94, symSize: 0x24 }
  - { offset: 0x6967C, size: 0x8, addend: 0x0, symName: __RNvXs9_NtNtNtCsfvfooZQ3Axs_4core4iter8adapters3mapINtB5_3MapINtNtNtCse1nGBsou5OW_5alloc3vec9into_iter8IntoIterTNtNtCs6IAuOt8vWmF_3syn8generics14TypeParamBoundNtNtB1P_5token4PlusEENCINvNtB1P_10punctuated4foldB1L_B2w_NtNvCs2GZpXKFCdsl_11yoke_derive16replace_lifetime15ReplaceLifetimeNvYB3r_NtNtNtB1P_3gen4fold4Fold21fold_type_param_boundE0ENtB7_10SourceIter8as_innerB3v_, symObjAddr: 0x8EC4, symBinAddr: 0x38CB8, symSize: 0x24 }
  - { offset: 0x696BA, size: 0x8, addend: 0x0, symName: __RNvXs9_NtNtNtCsfvfooZQ3Axs_4core4iter8adapters3mapINtB5_3MapINtNtNtCse1nGBsou5OW_5alloc3vec9into_iter8IntoIterTNtNtCs6IAuOt8vWmF_3syn8generics14WherePredicateNtNtB1P_5token5CommaEENCINvNtB1P_10punctuated4foldB1L_B2w_NtNvCs2GZpXKFCdsl_11yoke_derive16replace_lifetime15ReplaceLifetimeNvYB3s_NtNtNtB1P_3gen4fold4Fold20fold_where_predicateE0ENtB7_10SourceIter8as_innerB3w_, symObjAddr: 0x8EE8, symBinAddr: 0x38CDC, symSize: 0x24 }
  - { offset: 0x696F8, size: 0x8, addend: 0x0, symName: __RNvXs9_NtNtNtCsfvfooZQ3Axs_4core4iter8adapters3mapINtB5_3MapINtNtNtCse1nGBsou5OW_5alloc3vec9into_iter8IntoIterTNtNtCs6IAuOt8vWmF_3syn8lifetime8LifetimeNtNtB1P_5token4PlusEENCINvNtB1P_10punctuated4foldB1L_B2p_NtNvCs2GZpXKFCdsl_11yoke_derive16replace_lifetime15ReplaceLifetimeNvYB3k_NtNtNtB1P_3gen4fold4Fold13fold_lifetimeE0ENtB7_10SourceIter8as_innerB3o_, symObjAddr: 0x8F0C, symBinAddr: 0x38D00, symSize: 0x24 }
  - { offset: 0x69E4E, size: 0x8, addend: 0x0, symName: __RINvYINtNtNtNtCsfvfooZQ3Axs_4core4iter8adapters3map3MapINtNtB8_6cloned6ClonedINtNtNtBc_5slice4iter4IterNtCs3cP53eQoTwO_11proc_macro25IdentEENCINvXs8_NtCsloNvcHxBCre_9hashbrown3setINtB2n_7HashSetB1D_NtNtNtCscOYdFFY2T5N_3std4hash6random11RandomStateEINtNtNtBa_6traits7collect6ExtendB1D_E6extendBR_E0ENtNtB43_8iterator8Iterator8for_eachNCINvXs1i_NtB2p_3mapINtB5v_7HashMapB1D_uB3a_EIB3Z_TB1D_uEE6extendB3_E0ECs2GZpXKFCdsl_11yoke_derive, symObjAddr: 0x3E30, symBinAddr: 0x33C24, symSize: 0x34 }
  - { offset: 0x69E99, size: 0x8, addend: 0x0, symName: __RINvYINtNtNtNtCsfvfooZQ3Axs_4core4iter8adapters3map3MapINtNtNtBc_5slice4iter4IterNtCs3cP53eQoTwO_11proc_macro25IdentENCNvCs2GZpXKFCdsl_11yoke_derive20yokeable_derive_impls0_0ENtNtNtBa_6traits8iterator8Iterator7collectINtNtCse1nGBsou5OW_5alloc3vec3VecNtNtCs6IAuOt8vWmF_3syn8generics14WherePredicateEEB1V_, symObjAddr: 0x3E64, symBinAddr: 0x33C58, symSize: 0x34 }
  - { offset: 0x69ED9, size: 0x8, addend: 0x0, symName: __RINvYINtNtNtNtCsfvfooZQ3Axs_4core4iter8adapters3map3MapINtNtNtBc_5slice4iter4IterNtCs3cP53eQoTwO_11proc_macro25IdentENCNvCs2GZpXKFCdsl_11yoke_derive20yokeable_derive_impls0_0ENtNtNtBa_6traits8iterator8Iterator8for_eachNCINvMsi_NtCse1nGBsou5OW_5alloc3vecINtB3D_3VecNtNtCs6IAuOt8vWmF_3syn8generics14WherePredicateE14extend_trustedB3_E0EB1V_, symObjAddr: 0x3E98, symBinAddr: 0x33C8C, symSize: 0x44 }
  - { offset: 0x69F44, size: 0x8, addend: 0x0, symName: __RINvYINtNtNtNtCsfvfooZQ3Axs_4core4iter8adapters3map3MapINtNtNtBc_5slice4iter4IterNtCs3cP53eQoTwO_11proc_macro25IdentENCNvCs2GZpXKFCdsl_11yoke_derive20yokeable_derive_impls2_0ENtNtNtBa_6traits8iterator8Iterator7collectINtNtCse1nGBsou5OW_5alloc3vec3VecNtNtCs6IAuOt8vWmF_3syn8generics14WherePredicateEEB1V_, symObjAddr: 0x3EDC, symBinAddr: 0x33CD0, symSize: 0x34 }
  - { offset: 0x69F84, size: 0x8, addend: 0x0, symName: __RINvYINtNtNtNtCsfvfooZQ3Axs_4core4iter8adapters3map3MapINtNtNtBc_5slice4iter4IterNtCs3cP53eQoTwO_11proc_macro25IdentENCNvCs2GZpXKFCdsl_11yoke_derive20yokeable_derive_impls2_0ENtNtNtBa_6traits8iterator8Iterator8for_eachNCINvMsi_NtCse1nGBsou5OW_5alloc3vecINtB3D_3VecNtNtCs6IAuOt8vWmF_3syn8generics14WherePredicateE14extend_trustedB3_E0EB1V_, symObjAddr: 0x3F10, symBinAddr: 0x33D04, symSize: 0x44 }
  - { offset: 0x69FEF, size: 0x8, addend: 0x0, symName: __RINvYINtNtNtNtCsfvfooZQ3Axs_4core4iter8adapters3map3MapINtNtNtBc_5slice4iter4IterNtNtCs6IAuOt8vWmF_3syn8generics9TypeParamENCNvCs2GZpXKFCdsl_11yoke_derive20yokeable_derive_impls_0ENtNtNtBa_6traits8iterator8Iterator7collectINtNtCse1nGBsou5OW_5alloc3vec3VecNtCs3cP53eQoTwO_11proc_macro25IdentEEB21_, symObjAddr: 0x3F54, symBinAddr: 0x33D48, symSize: 0x34 }
  - { offset: 0x6A02F, size: 0x8, addend: 0x0, symName: __RINvYINtNtNtNtCsfvfooZQ3Axs_4core4iter8adapters3map3MapINtNtNtBc_5slice4iter4IterNtNtCs6IAuOt8vWmF_3syn8generics9TypeParamENCNvCs2GZpXKFCdsl_11yoke_derive20yokeable_derive_impls_0ENtNtNtBa_6traits8iterator8Iterator8for_eachNCINvMsi_NtCse1nGBsou5OW_5alloc3vecINtB3I_3VecNtCs3cP53eQoTwO_11proc_macro25IdentE14extend_trustedB3_E0EB21_, symObjAddr: 0x3F88, symBinAddr: 0x33D7C, symSize: 0x44 }
  - { offset: 0x6A09A, size: 0x8, addend: 0x0, symName: __RINvYINtNtNtNtCsfvfooZQ3Axs_4core4iter8adapters3map3MapINtNtNtCse1nGBsou5OW_5alloc3vec9into_iter8IntoIterNtNtCs6IAuOt8vWmF_3syn4attr9AttributeENCINvNtNtB1J_3gen4fold8fold_vecB1F_NtNvCs2GZpXKFCdsl_11yoke_derive16replace_lifetime15ReplaceLifetimeNvYB2Q_NtB2m_4Fold14fold_attributeE0ENtNtNtBa_6traits8iterator8Iterator7collectINtBW_3VecB1F_EEB2U_, symObjAddr: 0x3FCC, symBinAddr: 0x33DC0, symSize: 0x1C }
  - { offset: 0x6A0DB, size: 0x8, addend: 0x0, symName: __RINvYINtNtNtNtCsfvfooZQ3Axs_4core4iter8adapters3map3MapINtNtNtCse1nGBsou5OW_5alloc3vec9into_iter8IntoIterNtNtCs6IAuOt8vWmF_3syn4expr3ArmENCINvNtNtB1J_3gen4fold8fold_vecB1F_NtNvCs2GZpXKFCdsl_11yoke_derive16replace_lifetime15ReplaceLifetimeNvYB2K_NtB2g_4Fold8fold_armE0ENtNtNtBa_6traits8iterator8Iterator7collectINtBW_3VecB1F_EEB2O_, symObjAddr: 0x3FE8, symBinAddr: 0x33DDC, symSize: 0x1C }
  - { offset: 0x6A11C, size: 0x8, addend: 0x0, symName: __RINvYINtNtNtNtCsfvfooZQ3Axs_4core4iter8adapters3map3MapINtNtNtCse1nGBsou5OW_5alloc3vec9into_iter8IntoIterNtNtCs6IAuOt8vWmF_3syn4item11ForeignItemENCINvNtNtB1J_3gen4fold8fold_vecB1F_NtNvCs2GZpXKFCdsl_11yoke_derive16replace_lifetime15ReplaceLifetimeNvYB2T_NtB2p_4Fold17fold_foreign_itemE0ENtNtNtBa_6traits8iterator8Iterator7collectINtBW_3VecB1F_EEB2X_, symObjAddr: 0x4004, symBinAddr: 0x33DF8, symSize: 0x1C }
  - { offset: 0x6A15D, size: 0x8, addend: 0x0, symName: __RINvYINtNtNtNtCsfvfooZQ3Axs_4core4iter8adapters3map3MapINtNtNtCse1nGBsou5OW_5alloc3vec9into_iter8IntoIterNtNtCs6IAuOt8vWmF_3syn4item4ItemENCINvNtNtB1J_3gen4fold8fold_vecB1F_NtNvCs2GZpXKFCdsl_11yoke_derive16replace_lifetime15ReplaceLifetimeNvYB2L_NtB2h_4Fold9fold_itemE0ENtNtNtBa_6traits8iterator8Iterator7collectINtBW_3VecB1F_EEB2P_, symObjAddr: 0x4020, symBinAddr: 0x33E14, symSize: 0x1C }
  - { offset: 0x6A19E, size: 0x8, addend: 0x0, symName: __RINvYINtNtNtNtCsfvfooZQ3Axs_4core4iter8adapters3map3MapINtNtNtCse1nGBsou5OW_5alloc3vec9into_iter8IntoIterNtNtCs6IAuOt8vWmF_3syn4item8ImplItemENCINvNtNtB1J_3gen4fold8fold_vecB1F_NtNvCs2GZpXKFCdsl_11yoke_derive16replace_lifetime15ReplaceLifetimeNvYB2P_NtB2l_4Fold14fold_impl_itemE0ENtNtNtBa_6traits8iterator8Iterator7collectINtBW_3VecB1F_EEB2T_, symObjAddr: 0x403C, symBinAddr: 0x33E30, symSize: 0x1C }
  - { offset: 0x6A1DF, size: 0x8, addend: 0x0, symName: __RINvYINtNtNtNtCsfvfooZQ3Axs_4core4iter8adapters3map3MapINtNtNtCse1nGBsou5OW_5alloc3vec9into_iter8IntoIterNtNtCs6IAuOt8vWmF_3syn4item9TraitItemENCINvNtNtB1J_3gen4fold8fold_vecB1F_NtNvCs2GZpXKFCdsl_11yoke_derive16replace_lifetime15ReplaceLifetimeNvYB2Q_NtB2m_4Fold15fold_trait_itemE0ENtNtNtBa_6traits8iterator8Iterator7collectINtBW_3VecB1F_EEB2U_, symObjAddr: 0x4058, symBinAddr: 0x33E4C, symSize: 0x1C }
  - { offset: 0x6A220, size: 0x8, addend: 0x0, symName: __RINvYINtNtNtNtCsfvfooZQ3Axs_4core4iter8adapters3map3MapINtNtNtCse1nGBsou5OW_5alloc3vec9into_iter8IntoIterNtNtCs6IAuOt8vWmF_3syn4stmt4StmtENCINvNtNtB1J_3gen4fold8fold_vecB1F_NtNvCs2GZpXKFCdsl_11yoke_derive16replace_lifetime15ReplaceLifetimeNvYB2L_NtB2h_4Fold9fold_stmtE0ENtNtNtBa_6traits8iterator8Iterator7collectINtBW_3VecB1F_EEB2P_, symObjAddr: 0x4074, symBinAddr: 0x33E68, symSize: 0x1C }
  - { offset: 0x6A261, size: 0x8, addend: 0x0, symName: __RINvYINtNtNtNtCsfvfooZQ3Axs_4core4iter8adapters3map3MapINtNtNtCse1nGBsou5OW_5alloc3vec9into_iter8IntoIterTNtNtCs6IAuOt8vWmF_3syn2ty4TypeNtNtB1K_5token5CommaEENCINvNtB1K_10punctuated4foldB1G_B2a_NtNvCs2GZpXKFCdsl_11yoke_derive16replace_lifetime15ReplaceLifetimeNvYB36_NtNtNtB1K_3gen4fold4Fold9fold_typeE0ENtNtNtBa_6traits8iterator8Iterator7collectINtBW_3VecB1F_EEB3a_, symObjAddr: 0x4090, symBinAddr: 0x33E84, symSize: 0x1C }
  - { offset: 0x6A2A2, size: 0x8, addend: 0x0, symName: __RINvYINtNtNtNtCsfvfooZQ3Axs_4core4iter8adapters3map3MapINtNtNtCse1nGBsou5OW_5alloc3vec9into_iter8IntoIterTNtNtCs6IAuOt8vWmF_3syn2ty9BareFnArgNtNtB1K_5token5CommaEENCINvNtB1K_10punctuated4foldB1G_B2f_NtNvCs2GZpXKFCdsl_11yoke_derive16replace_lifetime15ReplaceLifetimeNvYB3b_NtNtNtB1K_3gen4fold4Fold16fold_bare_fn_argE0ENtNtNtBa_6traits8iterator8Iterator7collectINtBW_3VecB1F_EEB3f_, symObjAddr: 0x40AC, symBinAddr: 0x33EA0, symSize: 0x1C }
  - { offset: 0x6A2E3, size: 0x8, addend: 0x0, symName: __RINvYINtNtNtNtCsfvfooZQ3Axs_4core4iter8adapters3map3MapINtNtNtCse1nGBsou5OW_5alloc3vec9into_iter8IntoIterTNtNtCs6IAuOt8vWmF_3syn3pat3PatNtNtB1K_5token2OrEENCINvNtB1K_10punctuated4foldB1G_B2a_NtNvCs2GZpXKFCdsl_11yoke_derive16replace_lifetime15ReplaceLifetimeNvYB33_NtNtNtB1K_3gen4fold4Fold8fold_patE0ENtNtNtBa_6traits8iterator8Iterator7collectINtBW_3VecB1F_EEB37_, symObjAddr: 0x40C8, symBinAddr: 0x33EBC, symSize: 0x1C }
  - { offset: 0x6A324, size: 0x8, addend: 0x0, symName: __RINvYINtNtNtNtCsfvfooZQ3Axs_4core4iter8adapters3map3MapINtNtNtCse1nGBsou5OW_5alloc3vec9into_iter8IntoIterTNtNtCs6IAuOt8vWmF_3syn3pat3PatNtNtB1K_5token5CommaEENCINvNtB1K_10punctuated4foldB1G_B2a_NtNvCs2GZpXKFCdsl_11yoke_derive16replace_lifetime15ReplaceLifetimeNvYB36_NtNtNtB1K_3gen4fold4Fold8fold_patE0ENtNtNtBa_6traits8iterator8Iterator7collectINtBW_3VecB1F_EEB3a_, symObjAddr: 0x40E4, symBinAddr: 0x33ED8, symSize: 0x1C }
  - { offset: 0x6A365, size: 0x8, addend: 0x0, symName: __RINvYINtNtNtNtCsfvfooZQ3Axs_4core4iter8adapters3map3MapINtNtNtCse1nGBsou5OW_5alloc3vec9into_iter8IntoIterTNtNtCs6IAuOt8vWmF_3syn3pat8FieldPatNtNtB1K_5token5CommaEENCINvNtB1K_10punctuated4foldB1G_B2f_NtNvCs2GZpXKFCdsl_11yoke_derive16replace_lifetime15ReplaceLifetimeNvYB3b_NtNtNtB1K_3gen4fold4Fold14fold_field_patE0ENtNtNtBa_6traits8iterator8Iterator7collectINtBW_3VecB1F_EEB3f_, symObjAddr: 0x4100, symBinAddr: 0x33EF4, symSize: 0x1C }
  - { offset: 0x6A3A6, size: 0x8, addend: 0x0, symName: __RINvYINtNtNtNtCsfvfooZQ3Axs_4core4iter8adapters3map3MapINtNtNtCse1nGBsou5OW_5alloc3vec9into_iter8IntoIterTNtNtCs6IAuOt8vWmF_3syn4data5FieldNtNtB1K_5token5CommaEENCINvNtB1K_10punctuated4foldB1G_B2d_NtNvCs2GZpXKFCdsl_11yoke_derive16replace_lifetime15ReplaceLifetimeNvYB39_NtNtNtB1K_3gen4fold4Fold10fold_fieldE0ENtNtNtBa_6traits8iterator8Iterator7collectINtBW_3VecB1F_EEB3d_, symObjAddr: 0x411C, symBinAddr: 0x33F10, symSize: 0x1C }
  - { offset: 0x6A3E7, size: 0x8, addend: 0x0, symName: __RINvYINtNtNtNtCsfvfooZQ3Axs_4core4iter8adapters3map3MapINtNtNtCse1nGBsou5OW_5alloc3vec9into_iter8IntoIterTNtNtCs6IAuOt8vWmF_3syn4data7VariantNtNtB1K_5token5CommaEENCINvNtB1K_10punctuated4foldB1G_B2f_NtNvCs2GZpXKFCdsl_11yoke_derive16replace_lifetime15ReplaceLifetimeNvYB3b_NtNtNtB1K_3gen4fold4Fold12fold_variantE0ENtNtNtBa_6traits8iterator8Iterator7collectINtBW_3VecB1F_EEB3f_, symObjAddr: 0x4138, symBinAddr: 0x33F2C, symSize: 0x1C }
  - { offset: 0x6A428, size: 0x8, addend: 0x0, symName: __RINvYINtNtNtNtCsfvfooZQ3Axs_4core4iter8adapters3map3MapINtNtNtCse1nGBsou5OW_5alloc3vec9into_iter8IntoIterTNtNtCs6IAuOt8vWmF_3syn4expr10FieldValueNtNtB1K_5token5CommaEENCINvNtB1K_10punctuated4foldB1G_B2j_NtNvCs2GZpXKFCdsl_11yoke_derive16replace_lifetime15ReplaceLifetimeNvYB3f_NtNtNtB1K_3gen4fold4Fold16fold_field_valueE0ENtNtNtBa_6traits8iterator8Iterator7collectINtBW_3VecB1F_EEB3j_, symObjAddr: 0x4154, symBinAddr: 0x33F48, symSize: 0x1C }
  - { offset: 0x6A469, size: 0x8, addend: 0x0, symName: __RINvYINtNtNtNtCsfvfooZQ3Axs_4core4iter8adapters3map3MapINtNtNtCse1nGBsou5OW_5alloc3vec9into_iter8IntoIterTNtNtCs6IAuOt8vWmF_3syn4expr4ExprNtNtB1K_5token5CommaEENCINvNtB1K_10punctuated4foldB1G_B2c_NtNvCs2GZpXKFCdsl_11yoke_derive16replace_lifetime15ReplaceLifetimeNvYB38_NtNtNtB1K_3gen4fold4Fold9fold_exprE0ENtNtNtBa_6traits8iterator8Iterator7collectINtBW_3VecB1F_EEB3c_, symObjAddr: 0x4170, symBinAddr: 0x33F64, symSize: 0x1C }
  - { offset: 0x6A4AA, size: 0x8, addend: 0x0, symName: __RINvYINtNtNtNtCsfvfooZQ3Axs_4core4iter8adapters3map3MapINtNtNtCse1nGBsou5OW_5alloc3vec9into_iter8IntoIterTNtNtCs6IAuOt8vWmF_3syn4item5FnArgNtNtB1K_5token5CommaEENCINvNtB1K_10punctuated4foldB1G_B2d_NtNvCs2GZpXKFCdsl_11yoke_derive16replace_lifetime15ReplaceLifetimeNvYB39_NtNtNtB1K_3gen4fold4Fold11fold_fn_argE0ENtNtNtBa_6traits8iterator8Iterator7collectINtBW_3VecB1F_EEB3d_, symObjAddr: 0x418C, symBinAddr: 0x33F80, symSize: 0x1C }
  - { offset: 0x6A4EB, size: 0x8, addend: 0x0, symName: __RINvYINtNtNtNtCsfvfooZQ3Axs_4core4iter8adapters3map3MapINtNtNtCse1nGBsou5OW_5alloc3vec9into_iter8IntoIterTNtNtCs6IAuOt8vWmF_3syn4item7UseTreeNtNtB1K_5token5CommaEENCINvNtB1K_10punctuated4foldB1G_B2f_NtNvCs2GZpXKFCdsl_11yoke_derive16replace_lifetime15ReplaceLifetimeNvYB3b_NtNtNtB1K_3gen4fold4Fold13fold_use_treeE0ENtNtNtBa_6traits8iterator8Iterator7collectINtBW_3VecB1F_EEB3f_, symObjAddr: 0x41A8, symBinAddr: 0x33F9C, symSize: 0x1C }
  - { offset: 0x6A52C, size: 0x8, addend: 0x0, symName: __RINvYINtNtNtNtCsfvfooZQ3Axs_4core4iter8adapters3map3MapINtNtNtCse1nGBsou5OW_5alloc3vec9into_iter8IntoIterTNtNtCs6IAuOt8vWmF_3syn4path11PathSegmentNtNtB1K_5token7PathSepEENCINvNtB1K_10punctuated4foldB1G_B2k_NtNvCs2GZpXKFCdsl_11yoke_derive16replace_lifetime15ReplaceLifetimeNvYB3i_NtNtNtB1K_3gen4fold4Fold17fold_path_segmentE0ENtNtNtBa_6traits8iterator8Iterator7collectINtBW_3VecB1F_EEB3m_, symObjAddr: 0x41C4, symBinAddr: 0x33FB8, symSize: 0x1C }
  - { offset: 0x6A56D, size: 0x8, addend: 0x0, symName: __RINvYINtNtNtNtCsfvfooZQ3Axs_4core4iter8adapters3map3MapINtNtNtCse1nGBsou5OW_5alloc3vec9into_iter8IntoIterTNtNtCs6IAuOt8vWmF_3syn4path15GenericArgumentNtNtB1K_5token5CommaEENCINvNtB1K_10punctuated4foldB1G_B2o_NtNvCs2GZpXKFCdsl_11yoke_derive16replace_lifetime15ReplaceLifetimeNvYB3k_NtNtNtB1K_3gen4fold4Fold21fold_generic_argumentE0ENtNtNtBa_6traits8iterator8Iterator7collectINtBW_3VecB1F_EEB3o_, symObjAddr: 0x41E0, symBinAddr: 0x33FD4, symSize: 0x1C }
  - { offset: 0x6A5AE, size: 0x8, addend: 0x0, symName: __RINvYINtNtNtNtCsfvfooZQ3Axs_4core4iter8adapters3map3MapINtNtNtCse1nGBsou5OW_5alloc3vec9into_iter8IntoIterTNtNtCs6IAuOt8vWmF_3syn8generics12GenericParamNtNtB1K_5token5CommaEENCINvNtB1K_10punctuated4foldB1G_B2p_NtNvCs2GZpXKFCdsl_11yoke_derive16replace_lifetime15ReplaceLifetimeNvYB3l_NtNtNtB1K_3gen4fold4Fold18fold_generic_paramE0ENtNtNtBa_6traits8iterator8Iterator7collectINtBW_3VecB1F_EEB3p_, symObjAddr: 0x41FC, symBinAddr: 0x33FF0, symSize: 0x1C }
  - { offset: 0x6A5EF, size: 0x8, addend: 0x0, symName: __RINvYINtNtNtNtCsfvfooZQ3Axs_4core4iter8adapters3map3MapINtNtNtCse1nGBsou5OW_5alloc3vec9into_iter8IntoIterTNtNtCs6IAuOt8vWmF_3syn8generics13CapturedParamNtNtB1K_5token5CommaEENCINvNtB1K_10punctuated4foldB1G_B2q_NtNvCs2GZpXKFCdsl_11yoke_derive16replace_lifetime15ReplaceLifetimeNvYB3m_NtNtNtB1K_3gen4fold4Fold19fold_captured_paramE0ENtNtNtBa_6traits8iterator8Iterator7collectINtBW_3VecB1F_EEB3q_, symObjAddr: 0x4218, symBinAddr: 0x3400C, symSize: 0x1C }
  - { offset: 0x6A630, size: 0x8, addend: 0x0, symName: __RINvYINtNtNtNtCsfvfooZQ3Axs_4core4iter8adapters3map3MapINtNtNtCse1nGBsou5OW_5alloc3vec9into_iter8IntoIterTNtNtCs6IAuOt8vWmF_3syn8generics14TypeParamBoundNtNtB1K_5token4PlusEENCINvNtB1K_10punctuated4foldB1G_B2r_NtNvCs2GZpXKFCdsl_11yoke_derive16replace_lifetime15ReplaceLifetimeNvYB3m_NtNtNtB1K_3gen4fold4Fold21fold_type_param_boundE0ENtNtNtBa_6traits8iterator8Iterator7collectINtBW_3VecB1F_EEB3q_, symObjAddr: 0x4234, symBinAddr: 0x34028, symSize: 0x1C }
  - { offset: 0x6A671, size: 0x8, addend: 0x0, symName: __RINvYINtNtNtNtCsfvfooZQ3Axs_4core4iter8adapters3map3MapINtNtNtCse1nGBsou5OW_5alloc3vec9into_iter8IntoIterTNtNtCs6IAuOt8vWmF_3syn8generics14WherePredicateNtNtB1K_5token5CommaEENCINvNtB1K_10punctuated4foldB1G_B2r_NtNvCs2GZpXKFCdsl_11yoke_derive16replace_lifetime15ReplaceLifetimeNvYB3n_NtNtNtB1K_3gen4fold4Fold20fold_where_predicateE0ENtNtNtBa_6traits8iterator8Iterator7collectINtBW_3VecB1F_EEB3r_, symObjAddr: 0x4250, symBinAddr: 0x34044, symSize: 0x1C }
  - { offset: 0x6A6B2, size: 0x8, addend: 0x0, symName: __RINvYINtNtNtNtCsfvfooZQ3Axs_4core4iter8adapters3map3MapINtNtNtCse1nGBsou5OW_5alloc3vec9into_iter8IntoIterTNtNtCs6IAuOt8vWmF_3syn8lifetime8LifetimeNtNtB1K_5token4PlusEENCINvNtB1K_10punctuated4foldB1G_B2k_NtNvCs2GZpXKFCdsl_11yoke_derive16replace_lifetime15ReplaceLifetimeNvYB3f_NtNtNtB1K_3gen4fold4Fold13fold_lifetimeE0ENtNtNtBa_6traits8iterator8Iterator7collectINtBW_3VecB1F_EEB3j_, symObjAddr: 0x426C, symBinAddr: 0x34060, symSize: 0x1C }
  - { offset: 0x6A6F3, size: 0x8, addend: 0x0, symName: __RINvYINtNtNtNtCsfvfooZQ3Axs_4core4iter8adapters3map3MapNtNtCs6IAuOt8vWmF_3syn8generics10TypeParamsNCNvCs2GZpXKFCdsl_11yoke_derive20yokeable_derive_impl0ENtNtNtBa_6traits8iterator8Iterator7collectINtNtCse1nGBsou5OW_5alloc3vec3VecNtBT_9TypeParamEEB1C_, symObjAddr: 0x4288, symBinAddr: 0x3407C, symSize: 0x34 }
  - { offset: 0x6A73F, size: 0x8, addend: 0x0, symName: __RNvXNtNtNtCsfvfooZQ3Axs_4core4iter6traits7collectINtNtNtB6_8adapters3map3MapINtNtBQ_6cloned6ClonedINtNtNtB8_5slice4iter4IterNtCs3cP53eQoTwO_11proc_macro25IdentEENCINvXs8_NtCsloNvcHxBCre_9hashbrown3setINtB2I_7HashSetB1Y_NtNtNtCscOYdFFY2T5N_3std4hash6random11RandomStateEINtB2_6ExtendB1Y_E6extendB1c_E0ENtB2_12IntoIterator9into_iterCs2GZpXKFCdsl_11yoke_derive, symObjAddr: 0x7198, symBinAddr: 0x36F8C, symSize: 0x1C }
  - { offset: 0x6A776, size: 0x8, addend: 0x0, symName: __RNvXNtNtNtCsfvfooZQ3Axs_4core4iter6traits7collectINtNtNtB6_8adapters3map3MapINtNtNtB8_5slice4iter4IterNtCs3cP53eQoTwO_11proc_macro25IdentENCNvCs2GZpXKFCdsl_11yoke_derive20yokeable_derive_impls0_0ENtB2_12IntoIterator9into_iterB2g_, symObjAddr: 0x71B4, symBinAddr: 0x36FA8, symSize: 0x1C }
  - { offset: 0x6A7AD, size: 0x8, addend: 0x0, symName: __RNvXNtNtNtCsfvfooZQ3Axs_4core4iter6traits7collectINtNtNtB6_8adapters3map3MapINtNtNtB8_5slice4iter4IterNtCs3cP53eQoTwO_11proc_macro25IdentENCNvCs2GZpXKFCdsl_11yoke_derive20yokeable_derive_impls2_0ENtB2_12IntoIterator9into_iterB2g_, symObjAddr: 0x71D0, symBinAddr: 0x36FC4, symSize: 0x1C }
  - { offset: 0x6A7E4, size: 0x8, addend: 0x0, symName: __RNvXNtNtNtCsfvfooZQ3Axs_4core4iter6traits7collectINtNtNtB6_8adapters3map3MapINtNtNtB8_5slice4iter4IterNtNtCs6IAuOt8vWmF_3syn8generics9TypeParamENCNvCs2GZpXKFCdsl_11yoke_derive20yokeable_derive_impls_0ENtB2_12IntoIterator9into_iterB2m_, symObjAddr: 0x71EC, symBinAddr: 0x36FE0, symSize: 0x1C }
  - { offset: 0x6A81B, size: 0x8, addend: 0x0, symName: __RNvXNtNtNtCsfvfooZQ3Axs_4core4iter6traits7collectINtNtNtB6_8adapters3map3MapINtNtNtCse1nGBsou5OW_5alloc3vec9into_iter8IntoIterNtNtCs6IAuOt8vWmF_3syn4attr9AttributeENCINvNtNtB24_3gen4fold8fold_vecB20_NtNvCs2GZpXKFCdsl_11yoke_derive16replace_lifetime15ReplaceLifetimeNvYB3b_NtB2H_4Fold14fold_attributeE0ENtB2_12IntoIterator9into_iterB3f_, symObjAddr: 0x7208, symBinAddr: 0x36FFC, symSize: 0x30 }
  - { offset: 0x6A853, size: 0x8, addend: 0x0, symName: __RNvXNtNtNtCsfvfooZQ3Axs_4core4iter6traits7collectINtNtNtB6_8adapters3map3MapINtNtNtCse1nGBsou5OW_5alloc3vec9into_iter8IntoIterNtNtCs6IAuOt8vWmF_3syn4expr3ArmENCINvNtNtB24_3gen4fold8fold_vecB20_NtNvCs2GZpXKFCdsl_11yoke_derive16replace_lifetime15ReplaceLifetimeNvYB35_NtB2B_4Fold8fold_armE0ENtB2_12IntoIterator9into_iterB39_, symObjAddr: 0x7238, symBinAddr: 0x3702C, symSize: 0x30 }
  - { offset: 0x6A88B, size: 0x8, addend: 0x0, symName: __RNvXNtNtNtCsfvfooZQ3Axs_4core4iter6traits7collectINtNtNtB6_8adapters3map3MapINtNtNtCse1nGBsou5OW_5alloc3vec9into_iter8IntoIterNtNtCs6IAuOt8vWmF_3syn4item11ForeignItemENCINvNtNtB24_3gen4fold8fold_vecB20_NtNvCs2GZpXKFCdsl_11yoke_derive16replace_lifetime15ReplaceLifetimeNvYB3e_NtB2K_4Fold17fold_foreign_itemE0ENtB2_12IntoIterator9into_iterB3i_, symObjAddr: 0x7268, symBinAddr: 0x3705C, symSize: 0x30 }
  - { offset: 0x6A8C3, size: 0x8, addend: 0x0, symName: __RNvXNtNtNtCsfvfooZQ3Axs_4core4iter6traits7collectINtNtNtB6_8adapters3map3MapINtNtNtCse1nGBsou5OW_5alloc3vec9into_iter8IntoIterNtNtCs6IAuOt8vWmF_3syn4item4ItemENCINvNtNtB24_3gen4fold8fold_vecB20_NtNvCs2GZpXKFCdsl_11yoke_derive16replace_lifetime15ReplaceLifetimeNvYB36_NtB2C_4Fold9fold_itemE0ENtB2_12IntoIterator9into_iterB3a_, symObjAddr: 0x7298, symBinAddr: 0x3708C, symSize: 0x30 }
  - { offset: 0x6A8FB, size: 0x8, addend: 0x0, symName: __RNvXNtNtNtCsfvfooZQ3Axs_4core4iter6traits7collectINtNtNtB6_8adapters3map3MapINtNtNtCse1nGBsou5OW_5alloc3vec9into_iter8IntoIterNtNtCs6IAuOt8vWmF_3syn4item8ImplItemENCINvNtNtB24_3gen4fold8fold_vecB20_NtNvCs2GZpXKFCdsl_11yoke_derive16replace_lifetime15ReplaceLifetimeNvYB3a_NtB2G_4Fold14fold_impl_itemE0ENtB2_12IntoIterator9into_iterB3e_, symObjAddr: 0x72C8, symBinAddr: 0x370BC, symSize: 0x30 }
  - { offset: 0x6A933, size: 0x8, addend: 0x0, symName: __RNvXNtNtNtCsfvfooZQ3Axs_4core4iter6traits7collectINtNtNtB6_8adapters3map3MapINtNtNtCse1nGBsou5OW_5alloc3vec9into_iter8IntoIterNtNtCs6IAuOt8vWmF_3syn4item9TraitItemENCINvNtNtB24_3gen4fold8fold_vecB20_NtNvCs2GZpXKFCdsl_11yoke_derive16replace_lifetime15ReplaceLifetimeNvYB3b_NtB2H_4Fold15fold_trait_itemE0ENtB2_12IntoIterator9into_iterB3f_, symObjAddr: 0x72F8, symBinAddr: 0x370EC, symSize: 0x30 }
  - { offset: 0x6A96B, size: 0x8, addend: 0x0, symName: __RNvXNtNtNtCsfvfooZQ3Axs_4core4iter6traits7collectINtNtNtB6_8adapters3map3MapINtNtNtCse1nGBsou5OW_5alloc3vec9into_iter8IntoIterNtNtCs6IAuOt8vWmF_3syn4stmt4StmtENCINvNtNtB24_3gen4fold8fold_vecB20_NtNvCs2GZpXKFCdsl_11yoke_derive16replace_lifetime15ReplaceLifetimeNvYB36_NtB2C_4Fold9fold_stmtE0ENtB2_12IntoIterator9into_iterB3a_, symObjAddr: 0x7328, symBinAddr: 0x3711C, symSize: 0x30 }
  - { offset: 0x6A9A3, size: 0x8, addend: 0x0, symName: __RNvXNtNtNtCsfvfooZQ3Axs_4core4iter6traits7collectINtNtNtB6_8adapters3map3MapINtNtNtCse1nGBsou5OW_5alloc3vec9into_iter8IntoIterTNtNtCs6IAuOt8vWmF_3syn2ty4TypeNtNtB25_5token5CommaEENCINvNtB25_10punctuated4foldB21_B2v_NtNvCs2GZpXKFCdsl_11yoke_derive16replace_lifetime15ReplaceLifetimeNvYB3r_NtNtNtB25_3gen4fold4Fold9fold_typeE0ENtB2_12IntoIterator9into_iterB3v_, symObjAddr: 0x7358, symBinAddr: 0x3714C, symSize: 0x30 }
  - { offset: 0x6A9DB, size: 0x8, addend: 0x0, symName: __RNvXNtNtNtCsfvfooZQ3Axs_4core4iter6traits7collectINtNtNtB6_8adapters3map3MapINtNtNtCse1nGBsou5OW_5alloc3vec9into_iter8IntoIterTNtNtCs6IAuOt8vWmF_3syn2ty9BareFnArgNtNtB25_5token5CommaEENCINvNtB25_10punctuated4foldB21_B2A_NtNvCs2GZpXKFCdsl_11yoke_derive16replace_lifetime15ReplaceLifetimeNvYB3w_NtNtNtB25_3gen4fold4Fold16fold_bare_fn_argE0ENtB2_12IntoIterator9into_iterB3A_, symObjAddr: 0x7388, symBinAddr: 0x3717C, symSize: 0x30 }
  - { offset: 0x6AA13, size: 0x8, addend: 0x0, symName: __RNvXNtNtNtCsfvfooZQ3Axs_4core4iter6traits7collectINtNtNtB6_8adapters3map3MapINtNtNtCse1nGBsou5OW_5alloc3vec9into_iter8IntoIterTNtNtCs6IAuOt8vWmF_3syn3pat3PatNtNtB25_5token2OrEENCINvNtB25_10punctuated4foldB21_B2v_NtNvCs2GZpXKFCdsl_11yoke_derive16replace_lifetime15ReplaceLifetimeNvYB3o_NtNtNtB25_3gen4fold4Fold8fold_patE0ENtB2_12IntoIterator9into_iterB3s_, symObjAddr: 0x73B8, symBinAddr: 0x371AC, symSize: 0x30 }
  - { offset: 0x6AA4B, size: 0x8, addend: 0x0, symName: __RNvXNtNtNtCsfvfooZQ3Axs_4core4iter6traits7collectINtNtNtB6_8adapters3map3MapINtNtNtCse1nGBsou5OW_5alloc3vec9into_iter8IntoIterTNtNtCs6IAuOt8vWmF_3syn3pat3PatNtNtB25_5token5CommaEENCINvNtB25_10punctuated4foldB21_B2v_NtNvCs2GZpXKFCdsl_11yoke_derive16replace_lifetime15ReplaceLifetimeNvYB3r_NtNtNtB25_3gen4fold4Fold8fold_patE0ENtB2_12IntoIterator9into_iterB3v_, symObjAddr: 0x73E8, symBinAddr: 0x371DC, symSize: 0x30 }
  - { offset: 0x6AA83, size: 0x8, addend: 0x0, symName: __RNvXNtNtNtCsfvfooZQ3Axs_4core4iter6traits7collectINtNtNtB6_8adapters3map3MapINtNtNtCse1nGBsou5OW_5alloc3vec9into_iter8IntoIterTNtNtCs6IAuOt8vWmF_3syn3pat8FieldPatNtNtB25_5token5CommaEENCINvNtB25_10punctuated4foldB21_B2A_NtNvCs2GZpXKFCdsl_11yoke_derive16replace_lifetime15ReplaceLifetimeNvYB3w_NtNtNtB25_3gen4fold4Fold14fold_field_patE0ENtB2_12IntoIterator9into_iterB3A_, symObjAddr: 0x7418, symBinAddr: 0x3720C, symSize: 0x30 }
  - { offset: 0x6AABB, size: 0x8, addend: 0x0, symName: __RNvXNtNtNtCsfvfooZQ3Axs_4core4iter6traits7collectINtNtNtB6_8adapters3map3MapINtNtNtCse1nGBsou5OW_5alloc3vec9into_iter8IntoIterTNtNtCs6IAuOt8vWmF_3syn4data5FieldNtNtB25_5token5CommaEENCINvNtB25_10punctuated4foldB21_B2y_NtNvCs2GZpXKFCdsl_11yoke_derive16replace_lifetime15ReplaceLifetimeNvYB3u_NtNtNtB25_3gen4fold4Fold10fold_fieldE0ENtB2_12IntoIterator9into_iterB3y_, symObjAddr: 0x7448, symBinAddr: 0x3723C, symSize: 0x30 }
  - { offset: 0x6AAF3, size: 0x8, addend: 0x0, symName: __RNvXNtNtNtCsfvfooZQ3Axs_4core4iter6traits7collectINtNtNtB6_8adapters3map3MapINtNtNtCse1nGBsou5OW_5alloc3vec9into_iter8IntoIterTNtNtCs6IAuOt8vWmF_3syn4data7VariantNtNtB25_5token5CommaEENCINvNtB25_10punctuated4foldB21_B2A_NtNvCs2GZpXKFCdsl_11yoke_derive16replace_lifetime15ReplaceLifetimeNvYB3w_NtNtNtB25_3gen4fold4Fold12fold_variantE0ENtB2_12IntoIterator9into_iterB3A_, symObjAddr: 0x7478, symBinAddr: 0x3726C, symSize: 0x30 }
  - { offset: 0x6AB2B, size: 0x8, addend: 0x0, symName: __RNvXNtNtNtCsfvfooZQ3Axs_4core4iter6traits7collectINtNtNtB6_8adapters3map3MapINtNtNtCse1nGBsou5OW_5alloc3vec9into_iter8IntoIterTNtNtCs6IAuOt8vWmF_3syn4expr10FieldValueNtNtB25_5token5CommaEENCINvNtB25_10punctuated4foldB21_B2E_NtNvCs2GZpXKFCdsl_11yoke_derive16replace_lifetime15ReplaceLifetimeNvYB3A_NtNtNtB25_3gen4fold4Fold16fold_field_valueE0ENtB2_12IntoIterator9into_iterB3E_, symObjAddr: 0x74A8, symBinAddr: 0x3729C, symSize: 0x30 }
  - { offset: 0x6AB63, size: 0x8, addend: 0x0, symName: __RNvXNtNtNtCsfvfooZQ3Axs_4core4iter6traits7collectINtNtNtB6_8adapters3map3MapINtNtNtCse1nGBsou5OW_5alloc3vec9into_iter8IntoIterTNtNtCs6IAuOt8vWmF_3syn4expr4ExprNtNtB25_5token5CommaEENCINvNtB25_10punctuated4foldB21_B2x_NtNvCs2GZpXKFCdsl_11yoke_derive16replace_lifetime15ReplaceLifetimeNvYB3t_NtNtNtB25_3gen4fold4Fold9fold_exprE0ENtB2_12IntoIterator9into_iterB3x_, symObjAddr: 0x74D8, symBinAddr: 0x372CC, symSize: 0x30 }
  - { offset: 0x6AB9B, size: 0x8, addend: 0x0, symName: __RNvXNtNtNtCsfvfooZQ3Axs_4core4iter6traits7collectINtNtNtB6_8adapters3map3MapINtNtNtCse1nGBsou5OW_5alloc3vec9into_iter8IntoIterTNtNtCs6IAuOt8vWmF_3syn4item5FnArgNtNtB25_5token5CommaEENCINvNtB25_10punctuated4foldB21_B2y_NtNvCs2GZpXKFCdsl_11yoke_derive16replace_lifetime15ReplaceLifetimeNvYB3u_NtNtNtB25_3gen4fold4Fold11fold_fn_argE0ENtB2_12IntoIterator9into_iterB3y_, symObjAddr: 0x7508, symBinAddr: 0x372FC, symSize: 0x30 }
  - { offset: 0x6ABD3, size: 0x8, addend: 0x0, symName: __RNvXNtNtNtCsfvfooZQ3Axs_4core4iter6traits7collectINtNtNtB6_8adapters3map3MapINtNtNtCse1nGBsou5OW_5alloc3vec9into_iter8IntoIterTNtNtCs6IAuOt8vWmF_3syn4item7UseTreeNtNtB25_5token5CommaEENCINvNtB25_10punctuated4foldB21_B2A_NtNvCs2GZpXKFCdsl_11yoke_derive16replace_lifetime15ReplaceLifetimeNvYB3w_NtNtNtB25_3gen4fold4Fold13fold_use_treeE0ENtB2_12IntoIterator9into_iterB3A_, symObjAddr: 0x7538, symBinAddr: 0x3732C, symSize: 0x30 }
  - { offset: 0x6AC0B, size: 0x8, addend: 0x0, symName: __RNvXNtNtNtCsfvfooZQ3Axs_4core4iter6traits7collectINtNtNtB6_8adapters3map3MapINtNtNtCse1nGBsou5OW_5alloc3vec9into_iter8IntoIterTNtNtCs6IAuOt8vWmF_3syn4path11PathSegmentNtNtB25_5token7PathSepEENCINvNtB25_10punctuated4foldB21_B2F_NtNvCs2GZpXKFCdsl_11yoke_derive16replace_lifetime15ReplaceLifetimeNvYB3D_NtNtNtB25_3gen4fold4Fold17fold_path_segmentE0ENtB2_12IntoIterator9into_iterB3H_, symObjAddr: 0x7568, symBinAddr: 0x3735C, symSize: 0x30 }
  - { offset: 0x6AC43, size: 0x8, addend: 0x0, symName: __RNvXNtNtNtCsfvfooZQ3Axs_4core4iter6traits7collectINtNtNtB6_8adapters3map3MapINtNtNtCse1nGBsou5OW_5alloc3vec9into_iter8IntoIterTNtNtCs6IAuOt8vWmF_3syn4path15GenericArgumentNtNtB25_5token5CommaEENCINvNtB25_10punctuated4foldB21_B2J_NtNvCs2GZpXKFCdsl_11yoke_derive16replace_lifetime15ReplaceLifetimeNvYB3F_NtNtNtB25_3gen4fold4Fold21fold_generic_argumentE0ENtB2_12IntoIterator9into_iterB3J_, symObjAddr: 0x7598, symBinAddr: 0x3738C, symSize: 0x30 }
  - { offset: 0x6AC7B, size: 0x8, addend: 0x0, symName: __RNvXNtNtNtCsfvfooZQ3Axs_4core4iter6traits7collectINtNtNtB6_8adapters3map3MapINtNtNtCse1nGBsou5OW_5alloc3vec9into_iter8IntoIterTNtNtCs6IAuOt8vWmF_3syn8generics12GenericParamNtNtB25_5token5CommaEENCINvNtB25_10punctuated4foldB21_B2K_NtNvCs2GZpXKFCdsl_11yoke_derive16replace_lifetime15ReplaceLifetimeNvYB3G_NtNtNtB25_3gen4fold4Fold18fold_generic_paramE0ENtB2_12IntoIterator9into_iterB3K_, symObjAddr: 0x75C8, symBinAddr: 0x373BC, symSize: 0x30 }
  - { offset: 0x6ACB3, size: 0x8, addend: 0x0, symName: __RNvXNtNtNtCsfvfooZQ3Axs_4core4iter6traits7collectINtNtNtB6_8adapters3map3MapINtNtNtCse1nGBsou5OW_5alloc3vec9into_iter8IntoIterTNtNtCs6IAuOt8vWmF_3syn8generics13CapturedParamNtNtB25_5token5CommaEENCINvNtB25_10punctuated4foldB21_B2L_NtNvCs2GZpXKFCdsl_11yoke_derive16replace_lifetime15ReplaceLifetimeNvYB3H_NtNtNtB25_3gen4fold4Fold19fold_captured_paramE0ENtB2_12IntoIterator9into_iterB3L_, symObjAddr: 0x75F8, symBinAddr: 0x373EC, symSize: 0x30 }
  - { offset: 0x6ACEB, size: 0x8, addend: 0x0, symName: __RNvXNtNtNtCsfvfooZQ3Axs_4core4iter6traits7collectINtNtNtB6_8adapters3map3MapINtNtNtCse1nGBsou5OW_5alloc3vec9into_iter8IntoIterTNtNtCs6IAuOt8vWmF_3syn8generics14TypeParamBoundNtNtB25_5token4PlusEENCINvNtB25_10punctuated4foldB21_B2M_NtNvCs2GZpXKFCdsl_11yoke_derive16replace_lifetime15ReplaceLifetimeNvYB3H_NtNtNtB25_3gen4fold4Fold21fold_type_param_boundE0ENtB2_12IntoIterator9into_iterB3L_, symObjAddr: 0x7628, symBinAddr: 0x3741C, symSize: 0x30 }
  - { offset: 0x6AD23, size: 0x8, addend: 0x0, symName: __RNvXNtNtNtCsfvfooZQ3Axs_4core4iter6traits7collectINtNtNtB6_8adapters3map3MapINtNtNtCse1nGBsou5OW_5alloc3vec9into_iter8IntoIterTNtNtCs6IAuOt8vWmF_3syn8generics14WherePredicateNtNtB25_5token5CommaEENCINvNtB25_10punctuated4foldB21_B2M_NtNvCs2GZpXKFCdsl_11yoke_derive16replace_lifetime15ReplaceLifetimeNvYB3I_NtNtNtB25_3gen4fold4Fold20fold_where_predicateE0ENtB2_12IntoIterator9into_iterB3M_, symObjAddr: 0x7658, symBinAddr: 0x3744C, symSize: 0x30 }
  - { offset: 0x6AD5B, size: 0x8, addend: 0x0, symName: __RNvXNtNtNtCsfvfooZQ3Axs_4core4iter6traits7collectINtNtNtB6_8adapters3map3MapINtNtNtCse1nGBsou5OW_5alloc3vec9into_iter8IntoIterTNtNtCs6IAuOt8vWmF_3syn8lifetime8LifetimeNtNtB25_5token4PlusEENCINvNtB25_10punctuated4foldB21_B2F_NtNvCs2GZpXKFCdsl_11yoke_derive16replace_lifetime15ReplaceLifetimeNvYB3A_NtNtNtB25_3gen4fold4Fold13fold_lifetimeE0ENtB2_12IntoIterator9into_iterB3E_, symObjAddr: 0x7688, symBinAddr: 0x3747C, symSize: 0x30 }
  - { offset: 0x6AD93, size: 0x8, addend: 0x0, symName: __RNvXNtNtNtCsfvfooZQ3Axs_4core4iter6traits7collectINtNtNtB6_8adapters3map3MapNtNtCs6IAuOt8vWmF_3syn8generics10TypeParamsNCNvCs2GZpXKFCdsl_11yoke_derive20yokeable_derive_impl0ENtB2_12IntoIterator9into_iterB1X_, symObjAddr: 0x76B8, symBinAddr: 0x374AC, symSize: 0x1C }
  - { offset: 0x6E245, size: 0x8, addend: 0x0, symName: __RINvMsi_NtCse1nGBsou5OW_5alloc3vecINtB6_3VecNtCs3cP53eQoTwO_11proc_macro25IdentE14extend_trustedINtNtNtNtCsfvfooZQ3Axs_4core4iter8adapters3map3MapINtNtNtB1F_5slice4iter4IterNtNtCs6IAuOt8vWmF_3syn8generics9TypeParamENCNvCs2GZpXKFCdsl_11yoke_derive20yokeable_derive_impls_0EEB3v_, symObjAddr: 0x0, symBinAddr: 0x38D24, symSize: 0x170 }
  - { offset: 0x764F7, size: 0x8, addend: 0x0, symName: __RINvXsd_NtCse1nGBsou5OW_5alloc3vecINtB6_3VecNtCs3cP53eQoTwO_11proc_macro25IdentEINtNtNtNtCsfvfooZQ3Axs_4core4iter6traits7collect12FromIteratorBG_E9from_iterINtNtNtB1n_8adapters3map3MapINtNtNtB1p_5slice4iter4IterNtNtCs6IAuOt8vWmF_3syn8generics9TypeParamENCNvCs2GZpXKFCdsl_11yoke_derive20yokeable_derive_impls_0EEB47_, symObjAddr: 0x650, symBinAddr: 0x39374, symSize: 0x40 }
  - { offset: 0x76537, size: 0x8, addend: 0x0, symName: __RINvXsd_NtCse1nGBsou5OW_5alloc3vecINtB6_3VecNtNtCs6IAuOt8vWmF_3syn4attr9AttributeEINtNtNtNtCsfvfooZQ3Axs_4core4iter6traits7collect12FromIteratorBG_E9from_iterINtNtNtB1p_8adapters3map3MapINtNtB6_9into_iter8IntoIterBG_ENCINvNtNtBK_3gen4fold8fold_vecBG_NtNvCs2GZpXKFCdsl_11yoke_derive16replace_lifetime15ReplaceLifetimeNvYB40_NtB3y_4Fold14fold_attributeE0EEB44_, symObjAddr: 0x690, symBinAddr: 0x393B4, symSize: 0x3C }
  - { offset: 0x76578, size: 0x8, addend: 0x0, symName: __RINvXsd_NtCse1nGBsou5OW_5alloc3vecINtB6_3VecNtNtCs6IAuOt8vWmF_3syn4expr3ArmEINtNtNtNtCsfvfooZQ3Axs_4core4iter6traits7collect12FromIteratorBG_E9from_iterINtNtNtB1j_8adapters3map3MapINtNtB6_9into_iter8IntoIterBG_ENCINvNtNtBK_3gen4fold8fold_vecBG_NtNvCs2GZpXKFCdsl_11yoke_derive16replace_lifetime15ReplaceLifetimeNvYB3U_NtB3s_4Fold8fold_armE0EEB3Y_, symObjAddr: 0x6CC, symBinAddr: 0x393F0, symSize: 0x3C }
  - { offset: 0x765B9, size: 0x8, addend: 0x0, symName: __RINvXsd_NtCse1nGBsou5OW_5alloc3vecINtB6_3VecNtNtCs6IAuOt8vWmF_3syn4item11ForeignItemEINtNtNtNtCsfvfooZQ3Axs_4core4iter6traits7collect12FromIteratorBG_E9from_iterINtNtNtB1s_8adapters3map3MapINtNtB6_9into_iter8IntoIterBG_ENCINvNtNtBK_3gen4fold8fold_vecBG_NtNvCs2GZpXKFCdsl_11yoke_derive16replace_lifetime15ReplaceLifetimeNvYB43_NtB3B_4Fold17fold_foreign_itemE0EEB47_, symObjAddr: 0x708, symBinAddr: 0x3942C, symSize: 0x3C }
  - { offset: 0x765FA, size: 0x8, addend: 0x0, symName: __RINvXsd_NtCse1nGBsou5OW_5alloc3vecINtB6_3VecNtNtCs6IAuOt8vWmF_3syn4item4ItemEINtNtNtNtCsfvfooZQ3Axs_4core4iter6traits7collect12FromIteratorBG_E9from_iterINtNtNtB1k_8adapters3map3MapINtNtB6_9into_iter8IntoIterBG_ENCINvNtNtBK_3gen4fold8fold_vecBG_NtNvCs2GZpXKFCdsl_11yoke_derive16replace_lifetime15ReplaceLifetimeNvYB3V_NtB3t_4Fold9fold_itemE0EEB3Z_, symObjAddr: 0x744, symBinAddr: 0x39468, symSize: 0x3C }
  - { offset: 0x7663B, size: 0x8, addend: 0x0, symName: __RINvXsd_NtCse1nGBsou5OW_5alloc3vecINtB6_3VecNtNtCs6IAuOt8vWmF_3syn4item8ImplItemEINtNtNtNtCsfvfooZQ3Axs_4core4iter6traits7collect12FromIteratorBG_E9from_iterINtNtNtB1o_8adapters3map3MapINtNtB6_9into_iter8IntoIterBG_ENCINvNtNtBK_3gen4fold8fold_vecBG_NtNvCs2GZpXKFCdsl_11yoke_derive16replace_lifetime15ReplaceLifetimeNvYB3Z_NtB3x_4Fold14fold_impl_itemE0EEB43_, symObjAddr: 0x780, symBinAddr: 0x394A4, symSize: 0x3C }
  - { offset: 0x7667C, size: 0x8, addend: 0x0, symName: __RINvXsd_NtCse1nGBsou5OW_5alloc3vecINtB6_3VecNtNtCs6IAuOt8vWmF_3syn4item9TraitItemEINtNtNtNtCsfvfooZQ3Axs_4core4iter6traits7collect12FromIteratorBG_E9from_iterINtNtNtB1p_8adapters3map3MapINtNtB6_9into_iter8IntoIterBG_ENCINvNtNtBK_3gen4fold8fold_vecBG_NtNvCs2GZpXKFCdsl_11yoke_derive16replace_lifetime15ReplaceLifetimeNvYB40_NtB3y_4Fold15fold_trait_itemE0EEB44_, symObjAddr: 0x7BC, symBinAddr: 0x394E0, symSize: 0x3C }
  - { offset: 0x766BD, size: 0x8, addend: 0x0, symName: __RINvXsd_NtCse1nGBsou5OW_5alloc3vecINtB6_3VecNtNtCs6IAuOt8vWmF_3syn4stmt4StmtEINtNtNtNtCsfvfooZQ3Axs_4core4iter6traits7collect12FromIteratorBG_E9from_iterINtNtNtB1k_8adapters3map3MapINtNtB6_9into_iter8IntoIterBG_ENCINvNtNtBK_3gen4fold8fold_vecBG_NtNvCs2GZpXKFCdsl_11yoke_derive16replace_lifetime15ReplaceLifetimeNvYB3V_NtB3t_4Fold9fold_stmtE0EEB3Z_, symObjAddr: 0x7F8, symBinAddr: 0x3951C, symSize: 0x3C }
  - { offset: 0x766FE, size: 0x8, addend: 0x0, symName: __RINvXsd_NtCse1nGBsou5OW_5alloc3vecINtB6_3VecNtNtCs6IAuOt8vWmF_3syn8generics14WherePredicateEINtNtNtNtCsfvfooZQ3Axs_4core4iter6traits7collect12FromIteratorBG_E9from_iterINtNtNtB1z_8adapters3map3MapINtNtNtB1B_5slice4iter4IterNtCs3cP53eQoTwO_11proc_macro25IdentENCNvCs2GZpXKFCdsl_11yoke_derive20yokeable_derive_impls0_0EEB4d_, symObjAddr: 0x834, symBinAddr: 0x39558, symSize: 0x40 }
  - { offset: 0x7673E, size: 0x8, addend: 0x0, symName: __RINvXsd_NtCse1nGBsou5OW_5alloc3vecINtB6_3VecNtNtCs6IAuOt8vWmF_3syn8generics14WherePredicateEINtNtNtNtCsfvfooZQ3Axs_4core4iter6traits7collect12FromIteratorBG_E9from_iterINtNtNtB1z_8adapters3map3MapINtNtNtB1B_5slice4iter4IterNtCs3cP53eQoTwO_11proc_macro25IdentENCNvCs2GZpXKFCdsl_11yoke_derive20yokeable_derive_impls2_0EEB4d_, symObjAddr: 0x874, symBinAddr: 0x39598, symSize: 0x40 }
  - { offset: 0x7677E, size: 0x8, addend: 0x0, symName: __RINvXsd_NtCse1nGBsou5OW_5alloc3vecINtB6_3VecNtNtCs6IAuOt8vWmF_3syn8generics9TypeParamEINtNtNtNtCsfvfooZQ3Axs_4core4iter6traits7collect12FromIteratorBG_E9from_iterINtNtNtB1t_8adapters3map3MapNtBI_10TypeParamsNCNvCs2GZpXKFCdsl_11yoke_derive20yokeable_derive_impl0EEB3n_, symObjAddr: 0x8B4, symBinAddr: 0x395D8, symSize: 0x40 }
  - { offset: 0x767BE, size: 0x8, addend: 0x0, symName: __RINvXsd_NtCse1nGBsou5OW_5alloc3vecINtB6_3VecTNtNtCs6IAuOt8vWmF_3syn2ty4TypeNtNtBL_5token5CommaEEINtNtNtNtCsfvfooZQ3Axs_4core4iter6traits7collect12FromIteratorBG_E9from_iterINtNtNtB1D_8adapters3map3MapINtNtB6_9into_iter8IntoIterBG_ENCINvNtBL_10punctuated4foldBH_B1b_NtNvCs2GZpXKFCdsl_11yoke_derive16replace_lifetime15ReplaceLifetimeNvYB4f_NtNtNtBL_3gen4fold4Fold9fold_typeE0EEB4j_, symObjAddr: 0x8F4, symBinAddr: 0x39618, symSize: 0x3C }
  - { offset: 0x767FF, size: 0x8, addend: 0x0, symName: __RINvXsd_NtCse1nGBsou5OW_5alloc3vecINtB6_3VecTNtNtCs6IAuOt8vWmF_3syn2ty9BareFnArgNtNtBL_5token5CommaEEINtNtNtNtCsfvfooZQ3Axs_4core4iter6traits7collect12FromIteratorBG_E9from_iterINtNtNtB1I_8adapters3map3MapINtNtB6_9into_iter8IntoIterBG_ENCINvNtBL_10punctuated4foldBH_B1g_NtNvCs2GZpXKFCdsl_11yoke_derive16replace_lifetime15ReplaceLifetimeNvYB4k_NtNtNtBL_3gen4fold4Fold16fold_bare_fn_argE0EEB4o_, symObjAddr: 0x930, symBinAddr: 0x39654, symSize: 0x3C }
  - { offset: 0x76840, size: 0x8, addend: 0x0, symName: __RINvXsd_NtCse1nGBsou5OW_5alloc3vecINtB6_3VecTNtNtCs6IAuOt8vWmF_3syn3pat3PatNtNtBL_5token2OrEEINtNtNtNtCsfvfooZQ3Axs_4core4iter6traits7collect12FromIteratorBG_E9from_iterINtNtNtB1A_8adapters3map3MapINtNtB6_9into_iter8IntoIterBG_ENCINvNtBL_10punctuated4foldBH_B1b_NtNvCs2GZpXKFCdsl_11yoke_derive16replace_lifetime15ReplaceLifetimeNvYB4c_NtNtNtBL_3gen4fold4Fold8fold_patE0EEB4g_, symObjAddr: 0x96C, symBinAddr: 0x39690, symSize: 0x3C }
  - { offset: 0x76881, size: 0x8, addend: 0x0, symName: __RINvXsd_NtCse1nGBsou5OW_5alloc3vecINtB6_3VecTNtNtCs6IAuOt8vWmF_3syn3pat3PatNtNtBL_5token5CommaEEINtNtNtNtCsfvfooZQ3Axs_4core4iter6traits7collect12FromIteratorBG_E9from_iterINtNtNtB1D_8adapters3map3MapINtNtB6_9into_iter8IntoIterBG_ENCINvNtBL_10punctuated4foldBH_B1b_NtNvCs2GZpXKFCdsl_11yoke_derive16replace_lifetime15ReplaceLifetimeNvYB4f_NtNtNtBL_3gen4fold4Fold8fold_patE0EEB4j_, symObjAddr: 0x9A8, symBinAddr: 0x396CC, symSize: 0x3C }
  - { offset: 0x768C2, size: 0x8, addend: 0x0, symName: __RINvXsd_NtCse1nGBsou5OW_5alloc3vecINtB6_3VecTNtNtCs6IAuOt8vWmF_3syn3pat8FieldPatNtNtBL_5token5CommaEEINtNtNtNtCsfvfooZQ3Axs_4core4iter6traits7collect12FromIteratorBG_E9from_iterINtNtNtB1I_8adapters3map3MapINtNtB6_9into_iter8IntoIterBG_ENCINvNtBL_10punctuated4foldBH_B1g_NtNvCs2GZpXKFCdsl_11yoke_derive16replace_lifetime15ReplaceLifetimeNvYB4k_NtNtNtBL_3gen4fold4Fold14fold_field_patE0EEB4o_, symObjAddr: 0x9E4, symBinAddr: 0x39708, symSize: 0x3C }
  - { offset: 0x76903, size: 0x8, addend: 0x0, symName: __RINvXsd_NtCse1nGBsou5OW_5alloc3vecINtB6_3VecTNtNtCs6IAuOt8vWmF_3syn4data5FieldNtNtBL_5token5CommaEEINtNtNtNtCsfvfooZQ3Axs_4core4iter6traits7collect12FromIteratorBG_E9from_iterINtNtNtB1G_8adapters3map3MapINtNtB6_9into_iter8IntoIterBG_ENCINvNtBL_10punctuated4foldBH_B1e_NtNvCs2GZpXKFCdsl_11yoke_derive16replace_lifetime15ReplaceLifetimeNvYB4i_NtNtNtBL_3gen4fold4Fold10fold_fieldE0EEB4m_, symObjAddr: 0xA20, symBinAddr: 0x39744, symSize: 0x3C }
  - { offset: 0x76944, size: 0x8, addend: 0x0, symName: __RINvXsd_NtCse1nGBsou5OW_5alloc3vecINtB6_3VecTNtNtCs6IAuOt8vWmF_3syn4data7VariantNtNtBL_5token5CommaEEINtNtNtNtCsfvfooZQ3Axs_4core4iter6traits7collect12FromIteratorBG_E9from_iterINtNtNtB1I_8adapters3map3MapINtNtB6_9into_iter8IntoIterBG_ENCINvNtBL_10punctuated4foldBH_B1g_NtNvCs2GZpXKFCdsl_11yoke_derive16replace_lifetime15ReplaceLifetimeNvYB4k_NtNtNtBL_3gen4fold4Fold12fold_variantE0EEB4o_, symObjAddr: 0xA5C, symBinAddr: 0x39780, symSize: 0x3C }
  - { offset: 0x76985, size: 0x8, addend: 0x0, symName: __RINvXsd_NtCse1nGBsou5OW_5alloc3vecINtB6_3VecTNtNtCs6IAuOt8vWmF_3syn4expr10FieldValueNtNtBL_5token5CommaEEINtNtNtNtCsfvfooZQ3Axs_4core4iter6traits7collect12FromIteratorBG_E9from_iterINtNtNtB1M_8adapters3map3MapINtNtB6_9into_iter8IntoIterBG_ENCINvNtBL_10punctuated4foldBH_B1k_NtNvCs2GZpXKFCdsl_11yoke_derive16replace_lifetime15ReplaceLifetimeNvYB4o_NtNtNtBL_3gen4fold4Fold16fold_field_valueE0EEB4s_, symObjAddr: 0xA98, symBinAddr: 0x397BC, symSize: 0x3C }
  - { offset: 0x769C6, size: 0x8, addend: 0x0, symName: __RINvXsd_NtCse1nGBsou5OW_5alloc3vecINtB6_3VecTNtNtCs6IAuOt8vWmF_3syn4expr4ExprNtNtBL_5token5CommaEEINtNtNtNtCsfvfooZQ3Axs_4core4iter6traits7collect12FromIteratorBG_E9from_iterINtNtNtB1F_8adapters3map3MapINtNtB6_9into_iter8IntoIterBG_ENCINvNtBL_10punctuated4foldBH_B1d_NtNvCs2GZpXKFCdsl_11yoke_derive16replace_lifetime15ReplaceLifetimeNvYB4h_NtNtNtBL_3gen4fold4Fold9fold_exprE0EEB4l_, symObjAddr: 0xAD4, symBinAddr: 0x397F8, symSize: 0x3C }
  - { offset: 0x76A07, size: 0x8, addend: 0x0, symName: __RINvXsd_NtCse1nGBsou5OW_5alloc3vecINtB6_3VecTNtNtCs6IAuOt8vWmF_3syn4item5FnArgNtNtBL_5token5CommaEEINtNtNtNtCsfvfooZQ3Axs_4core4iter6traits7collect12FromIteratorBG_E9from_iterINtNtNtB1G_8adapters3map3MapINtNtB6_9into_iter8IntoIterBG_ENCINvNtBL_10punctuated4foldBH_B1e_NtNvCs2GZpXKFCdsl_11yoke_derive16replace_lifetime15ReplaceLifetimeNvYB4i_NtNtNtBL_3gen4fold4Fold11fold_fn_argE0EEB4m_, symObjAddr: 0xB10, symBinAddr: 0x39834, symSize: 0x3C }
  - { offset: 0x76A48, size: 0x8, addend: 0x0, symName: __RINvXsd_NtCse1nGBsou5OW_5alloc3vecINtB6_3VecTNtNtCs6IAuOt8vWmF_3syn4item7UseTreeNtNtBL_5token5CommaEEINtNtNtNtCsfvfooZQ3Axs_4core4iter6traits7collect12FromIteratorBG_E9from_iterINtNtNtB1I_8adapters3map3MapINtNtB6_9into_iter8IntoIterBG_ENCINvNtBL_10punctuated4foldBH_B1g_NtNvCs2GZpXKFCdsl_11yoke_derive16replace_lifetime15ReplaceLifetimeNvYB4k_NtNtNtBL_3gen4fold4Fold13fold_use_treeE0EEB4o_, symObjAddr: 0xB4C, symBinAddr: 0x39870, symSize: 0x3C }
  - { offset: 0x76A89, size: 0x8, addend: 0x0, symName: __RINvXsd_NtCse1nGBsou5OW_5alloc3vecINtB6_3VecTNtNtCs6IAuOt8vWmF_3syn4path11PathSegmentNtNtBL_5token7PathSepEEINtNtNtNtCsfvfooZQ3Axs_4core4iter6traits7collect12FromIteratorBG_E9from_iterINtNtNtB1P_8adapters3map3MapINtNtB6_9into_iter8IntoIterBG_ENCINvNtBL_10punctuated4foldBH_B1l_NtNvCs2GZpXKFCdsl_11yoke_derive16replace_lifetime15ReplaceLifetimeNvYB4r_NtNtNtBL_3gen4fold4Fold17fold_path_segmentE0EEB4v_, symObjAddr: 0xB88, symBinAddr: 0x398AC, symSize: 0x3C }
  - { offset: 0x76ACA, size: 0x8, addend: 0x0, symName: __RINvXsd_NtCse1nGBsou5OW_5alloc3vecINtB6_3VecTNtNtCs6IAuOt8vWmF_3syn4path15GenericArgumentNtNtBL_5token5CommaEEINtNtNtNtCsfvfooZQ3Axs_4core4iter6traits7collect12FromIteratorBG_E9from_iterINtNtNtB1R_8adapters3map3MapINtNtB6_9into_iter8IntoIterBG_ENCINvNtBL_10punctuated4foldBH_B1p_NtNvCs2GZpXKFCdsl_11yoke_derive16replace_lifetime15ReplaceLifetimeNvYB4t_NtNtNtBL_3gen4fold4Fold21fold_generic_argumentE0EEB4x_, symObjAddr: 0xBC4, symBinAddr: 0x398E8, symSize: 0x3C }
  - { offset: 0x76B0B, size: 0x8, addend: 0x0, symName: __RINvXsd_NtCse1nGBsou5OW_5alloc3vecINtB6_3VecTNtNtCs6IAuOt8vWmF_3syn8generics12GenericParamNtNtBL_5token5CommaEEINtNtNtNtCsfvfooZQ3Axs_4core4iter6traits7collect12FromIteratorBG_E9from_iterINtNtNtB1S_8adapters3map3MapINtNtB6_9into_iter8IntoIterBG_ENCINvNtBL_10punctuated4foldBH_B1q_NtNvCs2GZpXKFCdsl_11yoke_derive16replace_lifetime15ReplaceLifetimeNvYB4u_NtNtNtBL_3gen4fold4Fold18fold_generic_paramE0EEB4y_, symObjAddr: 0xC00, symBinAddr: 0x39924, symSize: 0x3C }
  - { offset: 0x76B4C, size: 0x8, addend: 0x0, symName: __RINvXsd_NtCse1nGBsou5OW_5alloc3vecINtB6_3VecTNtNtCs6IAuOt8vWmF_3syn8generics13CapturedParamNtNtBL_5token5CommaEEINtNtNtNtCsfvfooZQ3Axs_4core4iter6traits7collect12FromIteratorBG_E9from_iterINtNtNtB1T_8adapters3map3MapINtNtB6_9into_iter8IntoIterBG_ENCINvNtBL_10punctuated4foldBH_B1r_NtNvCs2GZpXKFCdsl_11yoke_derive16replace_lifetime15ReplaceLifetimeNvYB4v_NtNtNtBL_3gen4fold4Fold19fold_captured_paramE0EEB4z_, symObjAddr: 0xC3C, symBinAddr: 0x39960, symSize: 0x3C }
  - { offset: 0x76B8D, size: 0x8, addend: 0x0, symName: __RINvXsd_NtCse1nGBsou5OW_5alloc3vecINtB6_3VecTNtNtCs6IAuOt8vWmF_3syn8generics14TypeParamBoundNtNtBL_5token4PlusEEINtNtNtNtCsfvfooZQ3Axs_4core4iter6traits7collect12FromIteratorBG_E9from_iterINtNtNtB1T_8adapters3map3MapINtNtB6_9into_iter8IntoIterBG_ENCINvNtBL_10punctuated4foldBH_B1s_NtNvCs2GZpXKFCdsl_11yoke_derive16replace_lifetime15ReplaceLifetimeNvYB4v_NtNtNtBL_3gen4fold4Fold21fold_type_param_boundE0EEB4z_, symObjAddr: 0xC78, symBinAddr: 0x3999C, symSize: 0x3C }
  - { offset: 0x76BCE, size: 0x8, addend: 0x0, symName: __RINvXsd_NtCse1nGBsou5OW_5alloc3vecINtB6_3VecTNtNtCs6IAuOt8vWmF_3syn8generics14WherePredicateNtNtBL_5token5CommaEEINtNtNtNtCsfvfooZQ3Axs_4core4iter6traits7collect12FromIteratorBG_E9from_iterINtNtNtB1U_8adapters3map3MapINtNtB6_9into_iter8IntoIterBG_ENCINvNtBL_10punctuated4foldBH_B1s_NtNvCs2GZpXKFCdsl_11yoke_derive16replace_lifetime15ReplaceLifetimeNvYB4w_NtNtNtBL_3gen4fold4Fold20fold_where_predicateE0EEB4A_, symObjAddr: 0xCB4, symBinAddr: 0x399D8, symSize: 0x3C }
  - { offset: 0x76C0F, size: 0x8, addend: 0x0, symName: __RINvXsd_NtCse1nGBsou5OW_5alloc3vecINtB6_3VecTNtNtCs6IAuOt8vWmF_3syn8lifetime8LifetimeNtNtBL_5token4PlusEEINtNtNtNtCsfvfooZQ3Axs_4core4iter6traits7collect12FromIteratorBG_E9from_iterINtNtNtB1M_8adapters3map3MapINtNtB6_9into_iter8IntoIterBG_ENCINvNtBL_10punctuated4foldBH_B1l_NtNvCs2GZpXKFCdsl_11yoke_derive16replace_lifetime15ReplaceLifetimeNvYB4o_NtNtNtBL_3gen4fold4Fold13fold_lifetimeE0EEB4s_, symObjAddr: 0xCF0, symBinAddr: 0x39A14, symSize: 0x3C }
  - { offset: 0x76C5B, size: 0x8, addend: 0x0, symName: __RNCINvMsi_NtCse1nGBsou5OW_5alloc3vecINtB8_3VecNtCs3cP53eQoTwO_11proc_macro25IdentE14extend_trustedINtNtNtNtCsfvfooZQ3Axs_4core4iter8adapters3map3MapINtNtNtB1H_5slice4iter4IterNtNtCs6IAuOt8vWmF_3syn8generics9TypeParamENCNvCs2GZpXKFCdsl_11yoke_derive20yokeable_derive_impls_0EE0B3x_, symObjAddr: 0xD2C, symBinAddr: 0x39A50, symSize: 0x44 }
  - { offset: 0x76D08, size: 0x8, addend: 0x0, symName: __RNCINvMsi_NtCse1nGBsou5OW_5alloc3vecINtB8_3VecNtNtCs6IAuOt8vWmF_3syn8generics14WherePredicateE14extend_trustedINtNtNtNtCsfvfooZQ3Axs_4core4iter8adapters3map3MapINtNtNtB1T_5slice4iter4IterNtCs3cP53eQoTwO_11proc_macro25IdentENCNvCs2GZpXKFCdsl_11yoke_derive20yokeable_derive_impls0_0EE0B3D_, symObjAddr: 0xD70, symBinAddr: 0x39A94, symSize: 0x54 }
  - { offset: 0x76DC6, size: 0x8, addend: 0x0, symName: __RNCINvMsi_NtCse1nGBsou5OW_5alloc3vecINtB8_3VecNtNtCs6IAuOt8vWmF_3syn8generics14WherePredicateE14extend_trustedINtNtNtNtCsfvfooZQ3Axs_4core4iter8adapters3map3MapINtNtNtB1T_5slice4iter4IterNtCs3cP53eQoTwO_11proc_macro25IdentENCNvCs2GZpXKFCdsl_11yoke_derive20yokeable_derive_impls2_0EE0B3D_, symObjAddr: 0xDC4, symBinAddr: 0x39AE8, symSize: 0x54 }
  - { offset: 0x76E90, size: 0x8, addend: 0x0, symName: __RNvXNtNtCse1nGBsou5OW_5alloc3vec11spec_extendINtB4_3VecNtNtCs6IAuOt8vWmF_3syn8generics9TypeParamEINtB2_10SpecExtendBR_INtNtNtNtCsfvfooZQ3Axs_4core4iter8adapters3map3MapNtBT_10TypeParamsNCNvCs2GZpXKFCdsl_11yoke_derive20yokeable_derive_impl0EE11spec_extendB31_, symObjAddr: 0x1138, symBinAddr: 0x39E5C, symSize: 0x34 }
  - { offset: 0x76EE7, size: 0x8, addend: 0x0, symName: __RNvXs_NtNtCse1nGBsou5OW_5alloc3vec11spec_extendINtB6_3VecNtCs3cP53eQoTwO_11proc_macro25IdentEINtB4_10SpecExtendBT_INtNtNtNtCsfvfooZQ3Axs_4core4iter8adapters3map3MapINtNtNtB1X_5slice4iter4IterNtNtCs6IAuOt8vWmF_3syn8generics9TypeParamENCNvCs2GZpXKFCdsl_11yoke_derive20yokeable_derive_impls_0EE11spec_extendB3N_, symObjAddr: 0x1548, symBinAddr: 0x3A26C, symSize: 0x34 }
  - { offset: 0x76F38, size: 0x8, addend: 0x0, symName: __RNvXs_NtNtCse1nGBsou5OW_5alloc3vec11spec_extendINtB6_3VecNtNtCs6IAuOt8vWmF_3syn8generics14WherePredicateEINtB4_10SpecExtendBT_INtNtNtNtCsfvfooZQ3Axs_4core4iter8adapters3map3MapINtNtNtB29_5slice4iter4IterNtCs3cP53eQoTwO_11proc_macro25IdentENCNvCs2GZpXKFCdsl_11yoke_derive20yokeable_derive_impls0_0EE11spec_extendB3T_, symObjAddr: 0x157C, symBinAddr: 0x3A2A0, symSize: 0x34 }
  - { offset: 0x76F89, size: 0x8, addend: 0x0, symName: __RNvXs_NtNtCse1nGBsou5OW_5alloc3vec11spec_extendINtB6_3VecNtNtCs6IAuOt8vWmF_3syn8generics14WherePredicateEINtB4_10SpecExtendBT_INtNtNtNtCsfvfooZQ3Axs_4core4iter8adapters3map3MapINtNtNtB29_5slice4iter4IterNtCs3cP53eQoTwO_11proc_macro25IdentENCNvCs2GZpXKFCdsl_11yoke_derive20yokeable_derive_impls2_0EE11spec_extendB3T_, symObjAddr: 0x15B0, symBinAddr: 0x3A2D4, symSize: 0x34 }
  - { offset: 0x76FE6, size: 0x8, addend: 0x0, symName: __RNvXNtNtCse1nGBsou5OW_5alloc3vec14spec_from_iterINtB4_3VecNtCs3cP53eQoTwO_11proc_macro25IdentEINtB2_12SpecFromIterBU_INtNtNtNtCsfvfooZQ3Axs_4core4iter8adapters3map3MapINtNtNtB20_5slice4iter4IterNtNtCs6IAuOt8vWmF_3syn8generics9TypeParamENCNvCs2GZpXKFCdsl_11yoke_derive20yokeable_derive_impls_0EE9from_iterB3Q_, symObjAddr: 0x116C, symBinAddr: 0x39E90, symSize: 0x2C }
  - { offset: 0x77024, size: 0x8, addend: 0x0, symName: __RNvXNtNtCse1nGBsou5OW_5alloc3vec14spec_from_iterINtB4_3VecNtNtCs6IAuOt8vWmF_3syn8generics14WherePredicateEINtB2_12SpecFromIterBU_INtNtNtNtCsfvfooZQ3Axs_4core4iter8adapters3map3MapINtNtNtB2c_5slice4iter4IterNtCs3cP53eQoTwO_11proc_macro25IdentENCNvCs2GZpXKFCdsl_11yoke_derive20yokeable_derive_impls0_0EE9from_iterB3W_, symObjAddr: 0x1198, symBinAddr: 0x39EBC, symSize: 0x2C }
  - { offset: 0x77062, size: 0x8, addend: 0x0, symName: __RNvXNtNtCse1nGBsou5OW_5alloc3vec14spec_from_iterINtB4_3VecNtNtCs6IAuOt8vWmF_3syn8generics14WherePredicateEINtB2_12SpecFromIterBU_INtNtNtNtCsfvfooZQ3Axs_4core4iter8adapters3map3MapINtNtNtB2c_5slice4iter4IterNtCs3cP53eQoTwO_11proc_macro25IdentENCNvCs2GZpXKFCdsl_11yoke_derive20yokeable_derive_impls2_0EE9from_iterB3W_, symObjAddr: 0x11C4, symBinAddr: 0x39EE8, symSize: 0x2C }
  - { offset: 0x770A0, size: 0x8, addend: 0x0, symName: __RNvXNtNtCse1nGBsou5OW_5alloc3vec14spec_from_iterINtB4_3VecNtNtCs6IAuOt8vWmF_3syn8generics9TypeParamEINtB2_12SpecFromIterBU_INtNtNtNtCsfvfooZQ3Axs_4core4iter8adapters3map3MapNtBW_10TypeParamsNCNvCs2GZpXKFCdsl_11yoke_derive20yokeable_derive_impl0EE9from_iterB36_, symObjAddr: 0x11F0, symBinAddr: 0x39F14, symSize: 0x2C }
  - { offset: 0x770EA, size: 0x8, addend: 0x0, symName: __RNvXNtNtCse1nGBsou5OW_5alloc3vec21spec_from_iter_nestedINtB4_3VecNtNtCs6IAuOt8vWmF_3syn8generics9TypeParamEINtB2_18SpecFromIterNestedB11_INtNtNtNtCsfvfooZQ3Axs_4core4iter8adapters3map3MapNtB13_10TypeParamsNCNvCs2GZpXKFCdsl_11yoke_derive20yokeable_derive_impl0EE9from_iterB3l_, symObjAddr: 0x121C, symBinAddr: 0x39F40, symSize: 0x23C }
  - { offset: 0x7730F, size: 0x8, addend: 0x0, symName: __RNvXs_NtNtCse1nGBsou5OW_5alloc3vec21spec_from_iter_nestedINtB6_3VecNtCs3cP53eQoTwO_11proc_macro25IdentEINtB4_18SpecFromIterNestedB13_INtNtNtNtCsfvfooZQ3Axs_4core4iter8adapters3map3MapINtNtNtB2g_5slice4iter4IterNtNtCs6IAuOt8vWmF_3syn8generics9TypeParamENCNvCs2GZpXKFCdsl_11yoke_derive20yokeable_derive_impls_0EE9from_iterB46_, symObjAddr: 0x19CC, symBinAddr: 0x3A6F0, symSize: 0x168 }
  - { offset: 0x773E5, size: 0x8, addend: 0x0, symName: __RNvXs_NtNtCse1nGBsou5OW_5alloc3vec21spec_from_iter_nestedINtB6_3VecNtNtCs6IAuOt8vWmF_3syn8generics14WherePredicateEINtB4_18SpecFromIterNestedB13_INtNtNtNtCsfvfooZQ3Axs_4core4iter8adapters3map3MapINtNtNtB2s_5slice4iter4IterNtCs3cP53eQoTwO_11proc_macro25IdentENCNvCs2GZpXKFCdsl_11yoke_derive20yokeable_derive_impls0_0EE9from_iterB4c_, symObjAddr: 0x1B34, symBinAddr: 0x3A858, symSize: 0x168 }
  - { offset: 0x774BB, size: 0x8, addend: 0x0, symName: __RNvXs_NtNtCse1nGBsou5OW_5alloc3vec21spec_from_iter_nestedINtB6_3VecNtNtCs6IAuOt8vWmF_3syn8generics14WherePredicateEINtB4_18SpecFromIterNestedB13_INtNtNtNtCsfvfooZQ3Axs_4core4iter8adapters3map3MapINtNtNtB2s_5slice4iter4IterNtCs3cP53eQoTwO_11proc_macro25IdentENCNvCs2GZpXKFCdsl_11yoke_derive20yokeable_derive_impls2_0EE9from_iterB4c_, symObjAddr: 0x1C9C, symBinAddr: 0x3A9C0, symSize: 0x168 }
  - { offset: 0x77598, size: 0x8, addend: 0x0, symName: __RNvXs6_NtCse1nGBsou5OW_5alloc3vecINtB5_3VecNtCs3cP53eQoTwO_11proc_macro25IdentENtNtNtCsfvfooZQ3Axs_4core3ops5deref5Deref5derefCs2GZpXKFCdsl_11yoke_derive, symObjAddr: 0x1500, symBinAddr: 0x3A224, symSize: 0x24 }
  - { offset: 0x775D8, size: 0x8, addend: 0x0, symName: __RNvXs6_NtCse1nGBsou5OW_5alloc3vecINtB5_3VecNtNtCs6IAuOt8vWmF_3syn8generics9TypeParamENtNtNtCsfvfooZQ3Axs_4core3ops5deref5Deref5derefCs2GZpXKFCdsl_11yoke_derive, symObjAddr: 0x1524, symBinAddr: 0x3A248, symSize: 0x24 }
  - { offset: 0x77623, size: 0x8, addend: 0x0, symName: __RNvXs_NtNtCse1nGBsou5OW_5alloc3vec16in_place_collectINtB6_3VecNtNtCs6IAuOt8vWmF_3syn4attr9AttributeEINtNtB6_14spec_from_iter12SpecFromIterBY_INtNtNtNtCsfvfooZQ3Axs_4core4iter8adapters3map3MapINtNtB6_9into_iter8IntoIterBY_ENCINvNtNtB12_3gen4fold8fold_vecBY_NtNvCs2GZpXKFCdsl_11yoke_derive16replace_lifetime15ReplaceLifetimeNvYB46_NtB3D_4Fold14fold_attributeE0EE9from_iterB4a_, symObjAddr: 0x15E4, symBinAddr: 0x3A308, symSize: 0x28 }
  - { offset: 0x7767F, size: 0x8, addend: 0x0, symName: __RNvXs_NtNtCse1nGBsou5OW_5alloc3vec16in_place_collectINtB6_3VecNtNtCs6IAuOt8vWmF_3syn4expr3ArmEINtNtB6_14spec_from_iter12SpecFromIterBY_INtNtNtNtCsfvfooZQ3Axs_4core4iter8adapters3map3MapINtNtB6_9into_iter8IntoIterBY_ENCINvNtNtB12_3gen4fold8fold_vecBY_NtNvCs2GZpXKFCdsl_11yoke_derive16replace_lifetime15ReplaceLifetimeNvYB40_NtB3x_4Fold8fold_armE0EE9from_iterB44_, symObjAddr: 0x160C, symBinAddr: 0x3A330, symSize: 0x28 }
  - { offset: 0x776DB, size: 0x8, addend: 0x0, symName: __RNvXs_NtNtCse1nGBsou5OW_5alloc3vec16in_place_collectINtB6_3VecNtNtCs6IAuOt8vWmF_3syn4item11ForeignItemEINtNtB6_14spec_from_iter12SpecFromIterBY_INtNtNtNtCsfvfooZQ3Axs_4core4iter8adapters3map3MapINtNtB6_9into_iter8IntoIterBY_ENCINvNtNtB12_3gen4fold8fold_vecBY_NtNvCs2GZpXKFCdsl_11yoke_derive16replace_lifetime15ReplaceLifetimeNvYB49_NtB3G_4Fold17fold_foreign_itemE0EE9from_iterB4d_, symObjAddr: 0x1634, symBinAddr: 0x3A358, symSize: 0x28 }
  - { offset: 0x77737, size: 0x8, addend: 0x0, symName: __RNvXs_NtNtCse1nGBsou5OW_5alloc3vec16in_place_collectINtB6_3VecNtNtCs6IAuOt8vWmF_3syn4item4ItemEINtNtB6_14spec_from_iter12SpecFromIterBY_INtNtNtNtCsfvfooZQ3Axs_4core4iter8adapters3map3MapINtNtB6_9into_iter8IntoIterBY_ENCINvNtNtB12_3gen4fold8fold_vecBY_NtNvCs2GZpXKFCdsl_11yoke_derive16replace_lifetime15ReplaceLifetimeNvYB41_NtB3y_4Fold9fold_itemE0EE9from_iterB45_, symObjAddr: 0x165C, symBinAddr: 0x3A380, symSize: 0x28 }
  - { offset: 0x77793, size: 0x8, addend: 0x0, symName: __RNvXs_NtNtCse1nGBsou5OW_5alloc3vec16in_place_collectINtB6_3VecNtNtCs6IAuOt8vWmF_3syn4item8ImplItemEINtNtB6_14spec_from_iter12SpecFromIterBY_INtNtNtNtCsfvfooZQ3Axs_4core4iter8adapters3map3MapINtNtB6_9into_iter8IntoIterBY_ENCINvNtNtB12_3gen4fold8fold_vecBY_NtNvCs2GZpXKFCdsl_11yoke_derive16replace_lifetime15ReplaceLifetimeNvYB45_NtB3C_4Fold14fold_impl_itemE0EE9from_iterB49_, symObjAddr: 0x1684, symBinAddr: 0x3A3A8, symSize: 0x28 }
  - { offset: 0x777EF, size: 0x8, addend: 0x0, symName: __RNvXs_NtNtCse1nGBsou5OW_5alloc3vec16in_place_collectINtB6_3VecNtNtCs6IAuOt8vWmF_3syn4item9TraitItemEINtNtB6_14spec_from_iter12SpecFromIterBY_INtNtNtNtCsfvfooZQ3Axs_4core4iter8adapters3map3MapINtNtB6_9into_iter8IntoIterBY_ENCINvNtNtB12_3gen4fold8fold_vecBY_NtNvCs2GZpXKFCdsl_11yoke_derive16replace_lifetime15ReplaceLifetimeNvYB46_NtB3D_4Fold15fold_trait_itemE0EE9from_iterB4a_, symObjAddr: 0x16AC, symBinAddr: 0x3A3D0, symSize: 0x28 }
  - { offset: 0x7784B, size: 0x8, addend: 0x0, symName: __RNvXs_NtNtCse1nGBsou5OW_5alloc3vec16in_place_collectINtB6_3VecNtNtCs6IAuOt8vWmF_3syn4stmt4StmtEINtNtB6_14spec_from_iter12SpecFromIterBY_INtNtNtNtCsfvfooZQ3Axs_4core4iter8adapters3map3MapINtNtB6_9into_iter8IntoIterBY_ENCINvNtNtB12_3gen4fold8fold_vecBY_NtNvCs2GZpXKFCdsl_11yoke_derive16replace_lifetime15ReplaceLifetimeNvYB41_NtB3y_4Fold9fold_stmtE0EE9from_iterB45_, symObjAddr: 0x16D4, symBinAddr: 0x3A3F8, symSize: 0x28 }
  - { offset: 0x778A7, size: 0x8, addend: 0x0, symName: __RNvXs_NtNtCse1nGBsou5OW_5alloc3vec16in_place_collectINtB6_3VecTNtNtCs6IAuOt8vWmF_3syn2ty4TypeNtNtB13_5token5CommaEEINtNtB6_14spec_from_iter12SpecFromIterBY_INtNtNtNtCsfvfooZQ3Axs_4core4iter8adapters3map3MapINtNtB6_9into_iter8IntoIterBY_ENCINvNtB13_10punctuated4foldBZ_B1t_NtNvCs2GZpXKFCdsl_11yoke_derive16replace_lifetime15ReplaceLifetimeNvYB4m_NtNtNtB13_3gen4fold4Fold9fold_typeE0EE9from_iterB4q_, symObjAddr: 0x16FC, symBinAddr: 0x3A420, symSize: 0x28 }
  - { offset: 0x77903, size: 0x8, addend: 0x0, symName: __RNvXs_NtNtCse1nGBsou5OW_5alloc3vec16in_place_collectINtB6_3VecTNtNtCs6IAuOt8vWmF_3syn2ty9BareFnArgNtNtB13_5token5CommaEEINtNtB6_14spec_from_iter12SpecFromIterBY_INtNtNtNtCsfvfooZQ3Axs_4core4iter8adapters3map3MapINtNtB6_9into_iter8IntoIterBY_ENCINvNtB13_10punctuated4foldBZ_B1y_NtNvCs2GZpXKFCdsl_11yoke_derive16replace_lifetime15ReplaceLifetimeNvYB4r_NtNtNtB13_3gen4fold4Fold16fold_bare_fn_argE0EE9from_iterB4v_, symObjAddr: 0x1724, symBinAddr: 0x3A448, symSize: 0x28 }
  - { offset: 0x7795F, size: 0x8, addend: 0x0, symName: __RNvXs_NtNtCse1nGBsou5OW_5alloc3vec16in_place_collectINtB6_3VecTNtNtCs6IAuOt8vWmF_3syn3pat3PatNtNtB13_5token2OrEEINtNtB6_14spec_from_iter12SpecFromIterBY_INtNtNtNtCsfvfooZQ3Axs_4core4iter8adapters3map3MapINtNtB6_9into_iter8IntoIterBY_ENCINvNtB13_10punctuated4foldBZ_B1t_NtNvCs2GZpXKFCdsl_11yoke_derive16replace_lifetime15ReplaceLifetimeNvYB4j_NtNtNtB13_3gen4fold4Fold8fold_patE0EE9from_iterB4n_, symObjAddr: 0x174C, symBinAddr: 0x3A470, symSize: 0x28 }
  - { offset: 0x779BB, size: 0x8, addend: 0x0, symName: __RNvXs_NtNtCse1nGBsou5OW_5alloc3vec16in_place_collectINtB6_3VecTNtNtCs6IAuOt8vWmF_3syn3pat3PatNtNtB13_5token5CommaEEINtNtB6_14spec_from_iter12SpecFromIterBY_INtNtNtNtCsfvfooZQ3Axs_4core4iter8adapters3map3MapINtNtB6_9into_iter8IntoIterBY_ENCINvNtB13_10punctuated4foldBZ_B1t_NtNvCs2GZpXKFCdsl_11yoke_derive16replace_lifetime15ReplaceLifetimeNvYB4m_NtNtNtB13_3gen4fold4Fold8fold_patE0EE9from_iterB4q_, symObjAddr: 0x1774, symBinAddr: 0x3A498, symSize: 0x28 }
  - { offset: 0x77A17, size: 0x8, addend: 0x0, symName: __RNvXs_NtNtCse1nGBsou5OW_5alloc3vec16in_place_collectINtB6_3VecTNtNtCs6IAuOt8vWmF_3syn3pat8FieldPatNtNtB13_5token5CommaEEINtNtB6_14spec_from_iter12SpecFromIterBY_INtNtNtNtCsfvfooZQ3Axs_4core4iter8adapters3map3MapINtNtB6_9into_iter8IntoIterBY_ENCINvNtB13_10punctuated4foldBZ_B1y_NtNvCs2GZpXKFCdsl_11yoke_derive16replace_lifetime15ReplaceLifetimeNvYB4r_NtNtNtB13_3gen4fold4Fold14fold_field_patE0EE9from_iterB4v_, symObjAddr: 0x179C, symBinAddr: 0x3A4C0, symSize: 0x28 }
  - { offset: 0x77A73, size: 0x8, addend: 0x0, symName: __RNvXs_NtNtCse1nGBsou5OW_5alloc3vec16in_place_collectINtB6_3VecTNtNtCs6IAuOt8vWmF_3syn4data5FieldNtNtB13_5token5CommaEEINtNtB6_14spec_from_iter12SpecFromIterBY_INtNtNtNtCsfvfooZQ3Axs_4core4iter8adapters3map3MapINtNtB6_9into_iter8IntoIterBY_ENCINvNtB13_10punctuated4foldBZ_B1w_NtNvCs2GZpXKFCdsl_11yoke_derive16replace_lifetime15ReplaceLifetimeNvYB4p_NtNtNtB13_3gen4fold4Fold10fold_fieldE0EE9from_iterB4t_, symObjAddr: 0x17C4, symBinAddr: 0x3A4E8, symSize: 0x28 }
  - { offset: 0x77ACF, size: 0x8, addend: 0x0, symName: __RNvXs_NtNtCse1nGBsou5OW_5alloc3vec16in_place_collectINtB6_3VecTNtNtCs6IAuOt8vWmF_3syn4data7VariantNtNtB13_5token5CommaEEINtNtB6_14spec_from_iter12SpecFromIterBY_INtNtNtNtCsfvfooZQ3Axs_4core4iter8adapters3map3MapINtNtB6_9into_iter8IntoIterBY_ENCINvNtB13_10punctuated4foldBZ_B1y_NtNvCs2GZpXKFCdsl_11yoke_derive16replace_lifetime15ReplaceLifetimeNvYB4r_NtNtNtB13_3gen4fold4Fold12fold_variantE0EE9from_iterB4v_, symObjAddr: 0x17EC, symBinAddr: 0x3A510, symSize: 0x28 }
  - { offset: 0x77B2B, size: 0x8, addend: 0x0, symName: __RNvXs_NtNtCse1nGBsou5OW_5alloc3vec16in_place_collectINtB6_3VecTNtNtCs6IAuOt8vWmF_3syn4expr10FieldValueNtNtB13_5token5CommaEEINtNtB6_14spec_from_iter12SpecFromIterBY_INtNtNtNtCsfvfooZQ3Axs_4core4iter8adapters3map3MapINtNtB6_9into_iter8IntoIterBY_ENCINvNtB13_10punctuated4foldBZ_B1C_NtNvCs2GZpXKFCdsl_11yoke_derive16replace_lifetime15ReplaceLifetimeNvYB4v_NtNtNtB13_3gen4fold4Fold16fold_field_valueE0EE9from_iterB4z_, symObjAddr: 0x1814, symBinAddr: 0x3A538, symSize: 0x28 }
  - { offset: 0x77B87, size: 0x8, addend: 0x0, symName: __RNvXs_NtNtCse1nGBsou5OW_5alloc3vec16in_place_collectINtB6_3VecTNtNtCs6IAuOt8vWmF_3syn4expr4ExprNtNtB13_5token5CommaEEINtNtB6_14spec_from_iter12SpecFromIterBY_INtNtNtNtCsfvfooZQ3Axs_4core4iter8adapters3map3MapINtNtB6_9into_iter8IntoIterBY_ENCINvNtB13_10punctuated4foldBZ_B1v_NtNvCs2GZpXKFCdsl_11yoke_derive16replace_lifetime15ReplaceLifetimeNvYB4o_NtNtNtB13_3gen4fold4Fold9fold_exprE0EE9from_iterB4s_, symObjAddr: 0x183C, symBinAddr: 0x3A560, symSize: 0x28 }
  - { offset: 0x77BE3, size: 0x8, addend: 0x0, symName: __RNvXs_NtNtCse1nGBsou5OW_5alloc3vec16in_place_collectINtB6_3VecTNtNtCs6IAuOt8vWmF_3syn4item5FnArgNtNtB13_5token5CommaEEINtNtB6_14spec_from_iter12SpecFromIterBY_INtNtNtNtCsfvfooZQ3Axs_4core4iter8adapters3map3MapINtNtB6_9into_iter8IntoIterBY_ENCINvNtB13_10punctuated4foldBZ_B1w_NtNvCs2GZpXKFCdsl_11yoke_derive16replace_lifetime15ReplaceLifetimeNvYB4p_NtNtNtB13_3gen4fold4Fold11fold_fn_argE0EE9from_iterB4t_, symObjAddr: 0x1864, symBinAddr: 0x3A588, symSize: 0x28 }
  - { offset: 0x77C3F, size: 0x8, addend: 0x0, symName: __RNvXs_NtNtCse1nGBsou5OW_5alloc3vec16in_place_collectINtB6_3VecTNtNtCs6IAuOt8vWmF_3syn4item7UseTreeNtNtB13_5token5CommaEEINtNtB6_14spec_from_iter12SpecFromIterBY_INtNtNtNtCsfvfooZQ3Axs_4core4iter8adapters3map3MapINtNtB6_9into_iter8IntoIterBY_ENCINvNtB13_10punctuated4foldBZ_B1y_NtNvCs2GZpXKFCdsl_11yoke_derive16replace_lifetime15ReplaceLifetimeNvYB4r_NtNtNtB13_3gen4fold4Fold13fold_use_treeE0EE9from_iterB4v_, symObjAddr: 0x188C, symBinAddr: 0x3A5B0, symSize: 0x28 }
  - { offset: 0x77C9B, size: 0x8, addend: 0x0, symName: __RNvXs_NtNtCse1nGBsou5OW_5alloc3vec16in_place_collectINtB6_3VecTNtNtCs6IAuOt8vWmF_3syn4path11PathSegmentNtNtB13_5token7PathSepEEINtNtB6_14spec_from_iter12SpecFromIterBY_INtNtNtNtCsfvfooZQ3Axs_4core4iter8adapters3map3MapINtNtB6_9into_iter8IntoIterBY_ENCINvNtB13_10punctuated4foldBZ_B1D_NtNvCs2GZpXKFCdsl_11yoke_derive16replace_lifetime15ReplaceLifetimeNvYB4y_NtNtNtB13_3gen4fold4Fold17fold_path_segmentE0EE9from_iterB4C_, symObjAddr: 0x18B4, symBinAddr: 0x3A5D8, symSize: 0x28 }
  - { offset: 0x77CF7, size: 0x8, addend: 0x0, symName: __RNvXs_NtNtCse1nGBsou5OW_5alloc3vec16in_place_collectINtB6_3VecTNtNtCs6IAuOt8vWmF_3syn4path15GenericArgumentNtNtB13_5token5CommaEEINtNtB6_14spec_from_iter12SpecFromIterBY_INtNtNtNtCsfvfooZQ3Axs_4core4iter8adapters3map3MapINtNtB6_9into_iter8IntoIterBY_ENCINvNtB13_10punctuated4foldBZ_B1H_NtNvCs2GZpXKFCdsl_11yoke_derive16replace_lifetime15ReplaceLifetimeNvYB4A_NtNtNtB13_3gen4fold4Fold21fold_generic_argumentE0EE9from_iterB4E_, symObjAddr: 0x18DC, symBinAddr: 0x3A600, symSize: 0x28 }
  - { offset: 0x77D53, size: 0x8, addend: 0x0, symName: __RNvXs_NtNtCse1nGBsou5OW_5alloc3vec16in_place_collectINtB6_3VecTNtNtCs6IAuOt8vWmF_3syn8generics12GenericParamNtNtB13_5token5CommaEEINtNtB6_14spec_from_iter12SpecFromIterBY_INtNtNtNtCsfvfooZQ3Axs_4core4iter8adapters3map3MapINtNtB6_9into_iter8IntoIterBY_ENCINvNtB13_10punctuated4foldBZ_B1I_NtNvCs2GZpXKFCdsl_11yoke_derive16replace_lifetime15ReplaceLifetimeNvYB4B_NtNtNtB13_3gen4fold4Fold18fold_generic_paramE0EE9from_iterB4F_, symObjAddr: 0x1904, symBinAddr: 0x3A628, symSize: 0x28 }
  - { offset: 0x77DAF, size: 0x8, addend: 0x0, symName: __RNvXs_NtNtCse1nGBsou5OW_5alloc3vec16in_place_collectINtB6_3VecTNtNtCs6IAuOt8vWmF_3syn8generics13CapturedParamNtNtB13_5token5CommaEEINtNtB6_14spec_from_iter12SpecFromIterBY_INtNtNtNtCsfvfooZQ3Axs_4core4iter8adapters3map3MapINtNtB6_9into_iter8IntoIterBY_ENCINvNtB13_10punctuated4foldBZ_B1J_NtNvCs2GZpXKFCdsl_11yoke_derive16replace_lifetime15ReplaceLifetimeNvYB4C_NtNtNtB13_3gen4fold4Fold19fold_captured_paramE0EE9from_iterB4G_, symObjAddr: 0x192C, symBinAddr: 0x3A650, symSize: 0x28 }
  - { offset: 0x77E0B, size: 0x8, addend: 0x0, symName: __RNvXs_NtNtCse1nGBsou5OW_5alloc3vec16in_place_collectINtB6_3VecTNtNtCs6IAuOt8vWmF_3syn8generics14TypeParamBoundNtNtB13_5token4PlusEEINtNtB6_14spec_from_iter12SpecFromIterBY_INtNtNtNtCsfvfooZQ3Axs_4core4iter8adapters3map3MapINtNtB6_9into_iter8IntoIterBY_ENCINvNtB13_10punctuated4foldBZ_B1K_NtNvCs2GZpXKFCdsl_11yoke_derive16replace_lifetime15ReplaceLifetimeNvYB4C_NtNtNtB13_3gen4fold4Fold21fold_type_param_boundE0EE9from_iterB4G_, symObjAddr: 0x1954, symBinAddr: 0x3A678, symSize: 0x28 }
  - { offset: 0x77E67, size: 0x8, addend: 0x0, symName: __RNvXs_NtNtCse1nGBsou5OW_5alloc3vec16in_place_collectINtB6_3VecTNtNtCs6IAuOt8vWmF_3syn8generics14WherePredicateNtNtB13_5token5CommaEEINtNtB6_14spec_from_iter12SpecFromIterBY_INtNtNtNtCsfvfooZQ3Axs_4core4iter8adapters3map3MapINtNtB6_9into_iter8IntoIterBY_ENCINvNtB13_10punctuated4foldBZ_B1K_NtNvCs2GZpXKFCdsl_11yoke_derive16replace_lifetime15ReplaceLifetimeNvYB4D_NtNtNtB13_3gen4fold4Fold20fold_where_predicateE0EE9from_iterB4H_, symObjAddr: 0x197C, symBinAddr: 0x3A6A0, symSize: 0x28 }
  - { offset: 0x77EC3, size: 0x8, addend: 0x0, symName: __RNvXs_NtNtCse1nGBsou5OW_5alloc3vec16in_place_collectINtB6_3VecTNtNtCs6IAuOt8vWmF_3syn8lifetime8LifetimeNtNtB13_5token4PlusEEINtNtB6_14spec_from_iter12SpecFromIterBY_INtNtNtNtCsfvfooZQ3Axs_4core4iter8adapters3map3MapINtNtB6_9into_iter8IntoIterBY_ENCINvNtB13_10punctuated4foldBZ_B1D_NtNvCs2GZpXKFCdsl_11yoke_derive16replace_lifetime15ReplaceLifetimeNvYB4v_NtNtNtB13_3gen4fold4Fold13fold_lifetimeE0EE9from_iterB4z_, symObjAddr: 0x19A4, symBinAddr: 0x3A6C8, symSize: 0x28 }
  - { offset: 0x77F26, size: 0x8, addend: 0x0, symName: __RNvXse_NtCse1nGBsou5OW_5alloc3vecINtB5_3VecNtNtCs6IAuOt8vWmF_3syn4expr3ArmENtNtNtNtCsfvfooZQ3Axs_4core4iter6traits7collect12IntoIterator9into_iterCs2GZpXKFCdsl_11yoke_derive, symObjAddr: 0x1E04, symBinAddr: 0x3AB28, symSize: 0xE4 }
  - { offset: 0x781B8, size: 0x8, addend: 0x0, symName: __RNvXse_NtCse1nGBsou5OW_5alloc3vecINtB5_3VecNtNtCs6IAuOt8vWmF_3syn4item11ForeignItemENtNtNtNtCsfvfooZQ3Axs_4core4iter6traits7collect12IntoIterator9into_iterCs2GZpXKFCdsl_11yoke_derive, symObjAddr: 0x1EE8, symBinAddr: 0x3AC0C, symSize: 0xE4 }
  - { offset: 0x7844A, size: 0x8, addend: 0x0, symName: __RNvXse_NtCse1nGBsou5OW_5alloc3vecINtB5_3VecNtNtCs6IAuOt8vWmF_3syn4item4ItemENtNtNtNtCsfvfooZQ3Axs_4core4iter6traits7collect12IntoIterator9into_iterCs2GZpXKFCdsl_11yoke_derive, symObjAddr: 0x1FCC, symBinAddr: 0x3ACF0, symSize: 0xE4 }
  - { offset: 0x786DC, size: 0x8, addend: 0x0, symName: __RNvXse_NtCse1nGBsou5OW_5alloc3vecINtB5_3VecNtNtCs6IAuOt8vWmF_3syn4item8ImplItemENtNtNtNtCsfvfooZQ3Axs_4core4iter6traits7collect12IntoIterator9into_iterCs2GZpXKFCdsl_11yoke_derive, symObjAddr: 0x20B0, symBinAddr: 0x3ADD4, symSize: 0xE4 }
  - { offset: 0x7896E, size: 0x8, addend: 0x0, symName: __RNvXse_NtCse1nGBsou5OW_5alloc3vecINtB5_3VecNtNtCs6IAuOt8vWmF_3syn4item9TraitItemENtNtNtNtCsfvfooZQ3Axs_4core4iter6traits7collect12IntoIterator9into_iterCs2GZpXKFCdsl_11yoke_derive, symObjAddr: 0x2194, symBinAddr: 0x3AEB8, symSize: 0xE4 }
  - { offset: 0x78C00, size: 0x8, addend: 0x0, symName: __RNvXse_NtCse1nGBsou5OW_5alloc3vecINtB5_3VecNtNtCs6IAuOt8vWmF_3syn4stmt4StmtENtNtNtNtCsfvfooZQ3Axs_4core4iter6traits7collect12IntoIterator9into_iterCs2GZpXKFCdsl_11yoke_derive, symObjAddr: 0x2278, symBinAddr: 0x3AF9C, symSize: 0xE4 }
  - { offset: 0x78E92, size: 0x8, addend: 0x0, symName: __RNvXse_NtCse1nGBsou5OW_5alloc3vecINtB5_3VecTNtNtCs6IAuOt8vWmF_3syn2ty4TypeNtNtBK_5token5CommaEENtNtNtNtCsfvfooZQ3Axs_4core4iter6traits7collect12IntoIterator9into_iterCs2GZpXKFCdsl_11yoke_derive, symObjAddr: 0x235C, symBinAddr: 0x3B080, symSize: 0xE4 }
  - { offset: 0x79124, size: 0x8, addend: 0x0, symName: __RNvXse_NtCse1nGBsou5OW_5alloc3vecINtB5_3VecTNtNtCs6IAuOt8vWmF_3syn2ty9BareFnArgNtNtBK_5token5CommaEENtNtNtNtCsfvfooZQ3Axs_4core4iter6traits7collect12IntoIterator9into_iterCs2GZpXKFCdsl_11yoke_derive, symObjAddr: 0x2440, symBinAddr: 0x3B164, symSize: 0xE4 }
  - { offset: 0x793B6, size: 0x8, addend: 0x0, symName: __RNvXse_NtCse1nGBsou5OW_5alloc3vecINtB5_3VecTNtNtCs6IAuOt8vWmF_3syn3pat3PatNtNtBK_5token2OrEENtNtNtNtCsfvfooZQ3Axs_4core4iter6traits7collect12IntoIterator9into_iterCs2GZpXKFCdsl_11yoke_derive, symObjAddr: 0x2524, symBinAddr: 0x3B248, symSize: 0xE4 }
  - { offset: 0x79648, size: 0x8, addend: 0x0, symName: __RNvXse_NtCse1nGBsou5OW_5alloc3vecINtB5_3VecTNtNtCs6IAuOt8vWmF_3syn3pat3PatNtNtBK_5token5CommaEENtNtNtNtCsfvfooZQ3Axs_4core4iter6traits7collect12IntoIterator9into_iterCs2GZpXKFCdsl_11yoke_derive, symObjAddr: 0x2608, symBinAddr: 0x3B32C, symSize: 0xE4 }
  - { offset: 0x798DA, size: 0x8, addend: 0x0, symName: __RNvXse_NtCse1nGBsou5OW_5alloc3vecINtB5_3VecTNtNtCs6IAuOt8vWmF_3syn3pat8FieldPatNtNtBK_5token5CommaEENtNtNtNtCsfvfooZQ3Axs_4core4iter6traits7collect12IntoIterator9into_iterCs2GZpXKFCdsl_11yoke_derive, symObjAddr: 0x26EC, symBinAddr: 0x3B410, symSize: 0xE4 }
  - { offset: 0x79B6C, size: 0x8, addend: 0x0, symName: __RNvXse_NtCse1nGBsou5OW_5alloc3vecINtB5_3VecTNtNtCs6IAuOt8vWmF_3syn4data7VariantNtNtBK_5token5CommaEENtNtNtNtCsfvfooZQ3Axs_4core4iter6traits7collect12IntoIterator9into_iterCs2GZpXKFCdsl_11yoke_derive, symObjAddr: 0x27D0, symBinAddr: 0x3B4F4, symSize: 0xE4 }
  - { offset: 0x79DFE, size: 0x8, addend: 0x0, symName: __RNvXse_NtCse1nGBsou5OW_5alloc3vecINtB5_3VecTNtNtCs6IAuOt8vWmF_3syn4expr10FieldValueNtNtBK_5token5CommaEENtNtNtNtCsfvfooZQ3Axs_4core4iter6traits7collect12IntoIterator9into_iterCs2GZpXKFCdsl_11yoke_derive, symObjAddr: 0x28B4, symBinAddr: 0x3B5D8, symSize: 0xE4 }
  - { offset: 0x7A090, size: 0x8, addend: 0x0, symName: __RNvXse_NtCse1nGBsou5OW_5alloc3vecINtB5_3VecTNtNtCs6IAuOt8vWmF_3syn4expr4ExprNtNtBK_5token5CommaEENtNtNtNtCsfvfooZQ3Axs_4core4iter6traits7collect12IntoIterator9into_iterCs2GZpXKFCdsl_11yoke_derive, symObjAddr: 0x2998, symBinAddr: 0x3B6BC, symSize: 0xE4 }
  - { offset: 0x7A322, size: 0x8, addend: 0x0, symName: __RNvXse_NtCse1nGBsou5OW_5alloc3vecINtB5_3VecTNtNtCs6IAuOt8vWmF_3syn4item5FnArgNtNtBK_5token5CommaEENtNtNtNtCsfvfooZQ3Axs_4core4iter6traits7collect12IntoIterator9into_iterCs2GZpXKFCdsl_11yoke_derive, symObjAddr: 0x2A7C, symBinAddr: 0x3B7A0, symSize: 0xE4 }
  - { offset: 0x7A5B4, size: 0x8, addend: 0x0, symName: __RNvXse_NtCse1nGBsou5OW_5alloc3vecINtB5_3VecTNtNtCs6IAuOt8vWmF_3syn4item7UseTreeNtNtBK_5token5CommaEENtNtNtNtCsfvfooZQ3Axs_4core4iter6traits7collect12IntoIterator9into_iterCs2GZpXKFCdsl_11yoke_derive, symObjAddr: 0x2B60, symBinAddr: 0x3B884, symSize: 0xE4 }
  - { offset: 0x7A846, size: 0x8, addend: 0x0, symName: __RNvXse_NtCse1nGBsou5OW_5alloc3vecINtB5_3VecTNtNtCs6IAuOt8vWmF_3syn4path15GenericArgumentNtNtBK_5token5CommaEENtNtNtNtCsfvfooZQ3Axs_4core4iter6traits7collect12IntoIterator9into_iterCs2GZpXKFCdsl_11yoke_derive, symObjAddr: 0x2C44, symBinAddr: 0x3B968, symSize: 0xE4 }
  - { offset: 0x7AAD8, size: 0x8, addend: 0x0, symName: __RNvXse_NtCse1nGBsou5OW_5alloc3vecINtB5_3VecTNtNtCs6IAuOt8vWmF_3syn8generics12GenericParamNtNtBK_5token5CommaEENtNtNtNtCsfvfooZQ3Axs_4core4iter6traits7collect12IntoIterator9into_iterCs2GZpXKFCdsl_11yoke_derive, symObjAddr: 0x2D28, symBinAddr: 0x3BA4C, symSize: 0xE4 }
  - { offset: 0x7AD6A, size: 0x8, addend: 0x0, symName: __RNvXse_NtCse1nGBsou5OW_5alloc3vecINtB5_3VecTNtNtCs6IAuOt8vWmF_3syn8generics13CapturedParamNtNtBK_5token5CommaEENtNtNtNtCsfvfooZQ3Axs_4core4iter6traits7collect12IntoIterator9into_iterCs2GZpXKFCdsl_11yoke_derive, symObjAddr: 0x2E0C, symBinAddr: 0x3BB30, symSize: 0xE4 }
  - { offset: 0x7AFFC, size: 0x8, addend: 0x0, symName: __RNvXse_NtCse1nGBsou5OW_5alloc3vecINtB5_3VecTNtNtCs6IAuOt8vWmF_3syn8generics14WherePredicateNtNtBK_5token5CommaEENtNtNtNtCsfvfooZQ3Axs_4core4iter6traits7collect12IntoIterator9into_iterCs2GZpXKFCdsl_11yoke_derive, symObjAddr: 0x2EF0, symBinAddr: 0x3BC14, symSize: 0xE4 }
  - { offset: 0x7B28E, size: 0x8, addend: 0x0, symName: __RNvXse_NtCse1nGBsou5OW_5alloc3vecINtB5_3VecTNtNtCs6IAuOt8vWmF_3syn8lifetime8LifetimeNtNtBK_5token4PlusEENtNtNtNtCsfvfooZQ3Axs_4core4iter6traits7collect12IntoIterator9into_iterCs2GZpXKFCdsl_11yoke_derive, symObjAddr: 0x2FD4, symBinAddr: 0x3BCF8, symSize: 0xE4 }
  - { offset: 0x7B642, size: 0x8, addend: 0x0, symName: __RNvXsg_NtCse1nGBsou5OW_5alloc3vecQINtB5_3VecNtCs5gpj3SBp7s6_12synstructure11BindingInfoENtNtNtNtCsfvfooZQ3Axs_4core4iter6traits7collect12IntoIterator9into_iterCs2GZpXKFCdsl_11yoke_derive, symObjAddr: 0x30B8, symBinAddr: 0x3BDDC, symSize: 0xA4 }
  - { offset: 0x7B870, size: 0x8, addend: 0x0, symName: __RNvXsg_NtCse1nGBsou5OW_5alloc3vecQINtB5_3VecNtCs5gpj3SBp7s6_12synstructure11VariantInfoENtNtNtNtCsfvfooZQ3Axs_4core4iter6traits7collect12IntoIterator9into_iterCs2GZpXKFCdsl_11yoke_derive, symObjAddr: 0x315C, symBinAddr: 0x3BE80, symSize: 0xA4 }
  - { offset: 0x7BB27, size: 0x8, addend: 0x0, symName: __RNvXsn_NtCse1nGBsou5OW_5alloc3vecINtB5_3VecNtCs3cP53eQoTwO_11proc_macro25IdentENtNtNtCsfvfooZQ3Axs_4core3ops4drop4Drop4dropCs2GZpXKFCdsl_11yoke_derive, symObjAddr: 0x3200, symBinAddr: 0x3BF24, symSize: 0x38 }
  - { offset: 0x7BBD7, size: 0x8, addend: 0x0, symName: __RNvXsn_NtCse1nGBsou5OW_5alloc3vecINtB5_3VecNtNtCs6IAuOt8vWmF_3syn8generics14WherePredicateENtNtNtCsfvfooZQ3Axs_4core3ops4drop4Drop4dropCs2GZpXKFCdsl_11yoke_derive, symObjAddr: 0x3238, symBinAddr: 0x3BF5C, symSize: 0x38 }
  - { offset: 0x7BC87, size: 0x8, addend: 0x0, symName: __RNvXsn_NtCse1nGBsou5OW_5alloc3vecINtB5_3VecNtNtCs6IAuOt8vWmF_3syn8generics9TypeParamENtNtNtCsfvfooZQ3Axs_4core3ops4drop4Drop4dropCs2GZpXKFCdsl_11yoke_derive, symObjAddr: 0x3270, symBinAddr: 0x3BF94, symSize: 0x38 }
  - { offset: 0x81CE7, size: 0x8, addend: 0x0, symName: __RINvMsi_NtCse1nGBsou5OW_5alloc3vecINtB6_3VecNtCs3cP53eQoTwO_11proc_macro25IdentE14extend_trustedINtNtNtNtCsfvfooZQ3Axs_4core4iter8adapters3map3MapINtNtNtB1F_5slice4iter4IterNtNtCs6IAuOt8vWmF_3syn8generics9TypeParamENCNvCs2GZpXKFCdsl_11yoke_derive20yokeable_derive_impls_0EEB3v_, symObjAddr: 0x0, symBinAddr: 0x38D24, symSize: 0x170 }
  - { offset: 0x81FC5, size: 0x8, addend: 0x0, symName: __RINvMsi_NtCse1nGBsou5OW_5alloc3vecINtB6_3VecNtNtCs6IAuOt8vWmF_3syn8generics14WherePredicateE14extend_trustedINtNtNtNtCsfvfooZQ3Axs_4core4iter8adapters3map3MapINtNtNtB1R_5slice4iter4IterNtCs3cP53eQoTwO_11proc_macro25IdentENCNvCs2GZpXKFCdsl_11yoke_derive20yokeable_derive_impls0_0EEB3B_, symObjAddr: 0x170, symBinAddr: 0x38E94, symSize: 0x170 }
  - { offset: 0x82262, size: 0x8, addend: 0x0, symName: __RINvMsi_NtCse1nGBsou5OW_5alloc3vecINtB6_3VecNtNtCs6IAuOt8vWmF_3syn8generics14WherePredicateE14extend_trustedINtNtNtNtCsfvfooZQ3Axs_4core4iter8adapters3map3MapINtNtNtB1R_5slice4iter4IterNtCs3cP53eQoTwO_11proc_macro25IdentENCNvCs2GZpXKFCdsl_11yoke_derive20yokeable_derive_impls2_0EEB3B_, symObjAddr: 0x2E0, symBinAddr: 0x39004, symSize: 0x170 }
  - { offset: 0x8260F, size: 0x8, addend: 0x0, symName: __RINvMsi_NtCse1nGBsou5OW_5alloc3vecINtB6_3VecNtNtCs6IAuOt8vWmF_3syn8generics9TypeParamE16extend_desugaredINtNtNtNtCsfvfooZQ3Axs_4core4iter8adapters3map3MapNtBI_10TypeParamsNCNvCs2GZpXKFCdsl_11yoke_derive20yokeable_derive_impl0EEB2N_, symObjAddr: 0x450, symBinAddr: 0x39174, symSize: 0x200 }
  - { offset: 0x829B9, size: 0x8, addend: 0x0, symName: __RNvMs_NtCse1nGBsou5OW_5alloc3vecINtB4_3VecNtCs3cP53eQoTwO_11proc_macro25IdentE7reserveCs2GZpXKFCdsl_11yoke_derive, symObjAddr: 0xE18, symBinAddr: 0x39B3C, symSize: 0xC8 }
  - { offset: 0x82BC4, size: 0x8, addend: 0x0, symName: __RNvMs_NtCse1nGBsou5OW_5alloc3vecINtB4_3VecNtCs3cP53eQoTwO_11proc_macro25IdentE8as_sliceCs2GZpXKFCdsl_11yoke_derive, symObjAddr: 0xEE0, symBinAddr: 0x39C04, symSize: 0x64 }
  - { offset: 0x82D94, size: 0x8, addend: 0x0, symName: __RNvMs_NtCse1nGBsou5OW_5alloc3vecINtB4_3VecNtNtCs6IAuOt8vWmF_3syn8generics14WherePredicateE7reserveCs2GZpXKFCdsl_11yoke_derive, symObjAddr: 0xF44, symBinAddr: 0x39C68, symSize: 0xC8 }
  - { offset: 0x83011, size: 0x8, addend: 0x0, symName: __RNvMs_NtCse1nGBsou5OW_5alloc3vecINtB4_3VecNtNtCs6IAuOt8vWmF_3syn8generics9TypeParamE7reserveCs2GZpXKFCdsl_11yoke_derive, symObjAddr: 0x100C, symBinAddr: 0x39D30, symSize: 0xC8 }
  - { offset: 0x8320F, size: 0x8, addend: 0x0, symName: __RNvMs_NtCse1nGBsou5OW_5alloc3vecINtB4_3VecNtNtCs6IAuOt8vWmF_3syn8generics9TypeParamE8as_sliceCs2GZpXKFCdsl_11yoke_derive, symObjAddr: 0x10D4, symBinAddr: 0x39DF8, symSize: 0x64 }
  - { offset: 0x8341D, size: 0x8, addend: 0x0, symName: __RNvXs4_NtNtCs2cqEZUIJimJ_5quote9___private3extINtNtCse1nGBsou5OW_5alloc3vec3VecNtCs3cP53eQoTwO_11proc_macro25IdentENtB5_16RepAsIteratorExt15quote_into_iterCs2GZpXKFCdsl_11yoke_derive, symObjAddr: 0x1458, symBinAddr: 0x3A17C, symSize: 0x38 }
  - { offset: 0x83452, size: 0x8, addend: 0x0, symName: __RNvXs4_NtNtCs2cqEZUIJimJ_5quote9___private3extINtNtCse1nGBsou5OW_5alloc3vec3VecNtNtCs6IAuOt8vWmF_3syn8generics14WherePredicateENtB5_16RepAsIteratorExt15quote_into_iterCs2GZpXKFCdsl_11yoke_derive, symObjAddr: 0x1490, symBinAddr: 0x3A1B4, symSize: 0x38 }
  - { offset: 0x83487, size: 0x8, addend: 0x0, symName: __RNvXs4_NtNtCs2cqEZUIJimJ_5quote9___private3extINtNtCse1nGBsou5OW_5alloc3vec3VecNtNtCs6IAuOt8vWmF_3syn8generics9TypeParamENtB5_16RepAsIteratorExt15quote_into_iterCs2GZpXKFCdsl_11yoke_derive, symObjAddr: 0x14C8, symBinAddr: 0x3A1EC, symSize: 0x38 }
  - { offset: 0x860D7, size: 0x8, addend: 0x0, symName: __RNvXs1_NtNtNtCsfvfooZQ3Axs_4core3ops8function5implsQNCNvCs2GZpXKFCdsl_11yoke_derive20yokeable_derive_impls3_0INtB7_5FnMutTRNtCs5gpj3SBp7s6_12synstructure11BindingInfoEE8call_mutBS_, symObjAddr: 0x0, symBinAddr: 0x3BFCC, symSize: 0x30 }
  - { offset: 0x860F9, size: 0x8, addend: 0x0, symName: ___rustc_proc_macro_decls_1f5f254c44471af3__, symObjAddr: 0xA1A0, symBinAddr: 0x284E48, symSize: 0x0 }
  - { offset: 0x86107, size: 0x8, addend: 0x0, symName: __RNvCs2GZpXKFCdsl_11yoke_derive15yokeable_derive, symObjAddr: 0x270C, symBinAddr: 0x3E6B0, symSize: 0x178 }
  - { offset: 0x8617C, size: 0x8, addend: 0x0, symName: __RNvCs2GZpXKFCdsl_11yoke_derive20yokeable_derive_impl, symObjAddr: 0x2884, symBinAddr: 0x3E828, symSize: 0x59D4 }
  - { offset: 0x86FD8, size: 0x8, addend: 0x0, symName: __RNCNvCs2GZpXKFCdsl_11yoke_derive20yokeable_derive_impl0B3_, symObjAddr: 0x8258, symBinAddr: 0x441FC, symSize: 0xE0 }
  - { offset: 0x87023, size: 0x8, addend: 0x0, symName: __RNCNvCs2GZpXKFCdsl_11yoke_derive20yokeable_derive_impls_0B3_, symObjAddr: 0x8338, symBinAddr: 0x442DC, symSize: 0x38 }
  - { offset: 0x87059, size: 0x8, addend: 0x0, symName: __RNCNvCs2GZpXKFCdsl_11yoke_derive20yokeable_derive_impls0_0B3_, symObjAddr: 0x8370, symBinAddr: 0x44314, symSize: 0xCC }
  - { offset: 0x870A4, size: 0x8, addend: 0x0, symName: __RNCNvCs2GZpXKFCdsl_11yoke_derive20yokeable_derive_impls1_0B3_, symObjAddr: 0x843C, symBinAddr: 0x443E0, symSize: 0x19C }
  - { offset: 0x870EF, size: 0x8, addend: 0x0, symName: __RNCNvCs2GZpXKFCdsl_11yoke_derive20yokeable_derive_impls2_0B3_, symObjAddr: 0x85D8, symBinAddr: 0x4457C, symSize: 0xCC }
  - { offset: 0x8713A, size: 0x8, addend: 0x0, symName: __RNCNvCs2GZpXKFCdsl_11yoke_derive20yokeable_derive_impls3_0B3_, symObjAddr: 0x86A4, symBinAddr: 0x44648, symSize: 0x2C }
  - { offset: 0x8716C, size: 0x8, addend: 0x0, symName: __RNCNvCs2GZpXKFCdsl_11yoke_derive20yokeable_derive_impls4_0B3_, symObjAddr: 0x86D0, symBinAddr: 0x44674, symSize: 0x4C }
  - { offset: 0x871C1, size: 0x8, addend: 0x0, symName: __RNCNCNvCs2GZpXKFCdsl_11yoke_derive20yokeable_derive_impls4_00B5_, symObjAddr: 0x871C, symBinAddr: 0x446C0, symSize: 0x70C }
  - { offset: 0x87329, size: 0x8, addend: 0x0, symName: __RNCNvCs2GZpXKFCdsl_11yoke_derive20yokeable_derive_impls5_0B3_, symObjAddr: 0x8E28, symBinAddr: 0x44DCC, symSize: 0x370 }
  - { offset: 0x8744B, size: 0x8, addend: 0x0, symName: __RNvCs2GZpXKFCdsl_11yoke_derive9static_lt, symObjAddr: 0x9198, symBinAddr: 0x4513C, symSize: 0x4C }
  - { offset: 0x87468, size: 0x8, addend: 0x0, symName: __RNvCs2GZpXKFCdsl_11yoke_derive9custom_lt, symObjAddr: 0x91E4, symBinAddr: 0x45188, symSize: 0x54 }
  - { offset: 0x87496, size: 0x8, addend: 0x0, symName: __RNvCs2GZpXKFCdsl_11yoke_derive16replace_lifetime, symObjAddr: 0x9238, symBinAddr: 0x451DC, symSize: 0x9C }
  - { offset: 0x874DE, size: 0x8, addend: 0x0, symName: __RNvXNvCs2GZpXKFCdsl_11yoke_derive16replace_lifetimeNtB2_15ReplaceLifetimeNtNtNtCs6IAuOt8vWmF_3syn3gen4fold4Fold13fold_lifetime, symObjAddr: 0x92D4, symBinAddr: 0x45278, symSize: 0x6C }
  - { offset: 0x89BBA, size: 0x8, addend: 0x0, symName: __RNvXs1_NtNtNtCsfvfooZQ3Axs_4core3ops8function5implsQNCNvCs2GZpXKFCdsl_11yoke_derive20yokeable_derive_impls3_0INtB7_5FnMutTRNtCs5gpj3SBp7s6_12synstructure11BindingInfoEE8call_mutBS_, symObjAddr: 0x0, symBinAddr: 0x3BFCC, symSize: 0x30 }
  - { offset: 0x89C09, size: 0x8, addend: 0x0, symName: __RNvXs1_NtNtNtCsfvfooZQ3Axs_4core3ops8function5implsQNCNvCs2GZpXKFCdsl_11yoke_derive20yokeable_derive_impls5_0INtB7_5FnMutTRNtCs5gpj3SBp7s6_12synstructure11BindingInfoEE8call_mutBS_, symObjAddr: 0x30, symBinAddr: 0x3BFFC, symSize: 0x30 }
  - { offset: 0x89C5E, size: 0x8, addend: 0x0, symName: __RNvXs2_NtNtNtCsfvfooZQ3Axs_4core3ops8function5implsQNCNvCs2GZpXKFCdsl_11yoke_derive20yokeable_derive_impl0INtB7_6FnOnceTRNtNtCs6IAuOt8vWmF_3syn8generics9TypeParamEE9call_onceBS_, symObjAddr: 0x60, symBinAddr: 0x3C02C, symSize: 0x2C }
  - { offset: 0x8A633, size: 0x8, addend: 0x0, symName: __RNvYNtNvCs2GZpXKFCdsl_11yoke_derive16replace_lifetime15ReplaceLifetimeNtNtNtCs6IAuOt8vWmF_3syn3gen4fold4Fold10fold_blockB6_, symObjAddr: 0x8C, symBinAddr: 0x3C058, symSize: 0x34 }
  - { offset: 0x8A677, size: 0x8, addend: 0x0, symName: __RNvYNtNvCs2GZpXKFCdsl_11yoke_derive16replace_lifetime15ReplaceLifetimeNtNtNtCs6IAuOt8vWmF_3syn3gen4fold4Fold10fold_fieldB6_, symObjAddr: 0xC0, symBinAddr: 0x3C08C, symSize: 0x34 }
  - { offset: 0x8A6BE, size: 0x8, addend: 0x0, symName: __RNvYNtNvCs2GZpXKFCdsl_11yoke_derive16replace_lifetime15ReplaceLifetimeNtNtNtCs6IAuOt8vWmF_3syn3gen4fold4Fold10fold_identB6_, symObjAddr: 0xF4, symBinAddr: 0x3C0C0, symSize: 0x34 }
  - { offset: 0x8A705, size: 0x8, addend: 0x0, symName: __RNvYNtNvCs2GZpXKFCdsl_11yoke_derive16replace_lifetime15ReplaceLifetimeNtNtNtCs6IAuOt8vWmF_3syn3gen4fold4Fold10fold_indexB6_, symObjAddr: 0x128, symBinAddr: 0x3C0F4, symSize: 0x3C }
  - { offset: 0x8A74B, size: 0x8, addend: 0x0, symName: __RNvYNtNvCs2GZpXKFCdsl_11yoke_derive16replace_lifetime15ReplaceLifetimeNtNtNtCs6IAuOt8vWmF_3syn3gen4fold4Fold10fold_labelB6_, symObjAddr: 0x164, symBinAddr: 0x3C130, symSize: 0x34 }
  - { offset: 0x8A792, size: 0x8, addend: 0x0, symName: __RNvYNtNvCs2GZpXKFCdsl_11yoke_derive16replace_lifetime15ReplaceLifetimeNtNtNtCs6IAuOt8vWmF_3syn3gen4fold4Fold10fold_localB6_, symObjAddr: 0x198, symBinAddr: 0x3C164, symSize: 0x34 }
  - { offset: 0x8A7D9, size: 0x8, addend: 0x0, symName: __RNvYNtNvCs2GZpXKFCdsl_11yoke_derive16replace_lifetime15ReplaceLifetimeNtNtNtCs6IAuOt8vWmF_3syn3gen4fold4Fold10fold_macroB6_, symObjAddr: 0x1CC, symBinAddr: 0x3C198, symSize: 0x34 }
  - { offset: 0x8A820, size: 0x8, addend: 0x0, symName: __RNvYNtNvCs2GZpXKFCdsl_11yoke_derive16replace_lifetime15ReplaceLifetimeNtNtNtCs6IAuOt8vWmF_3syn3gen4fold4Fold10fold_qselfB6_, symObjAddr: 0x200, symBinAddr: 0x3C1CC, symSize: 0x34 }
  - { offset: 0x8A867, size: 0x8, addend: 0x0, symName: __RNvYNtNvCs2GZpXKFCdsl_11yoke_derive16replace_lifetime15ReplaceLifetimeNtNtNtCs6IAuOt8vWmF_3syn3gen4fold4Fold10fold_un_opB6_, symObjAddr: 0x234, symBinAddr: 0x3C200, symSize: 0x64 }
  - { offset: 0x8A8AD, size: 0x8, addend: 0x0, symName: __RNvYNtNvCs2GZpXKFCdsl_11yoke_derive16replace_lifetime15ReplaceLifetimeNtNtNtCs6IAuOt8vWmF_3syn3gen4fold4Fold11fold_bin_opB6_, symObjAddr: 0x298, symBinAddr: 0x3C264, symSize: 0x40 }
  - { offset: 0x8A8F1, size: 0x8, addend: 0x0, symName: __RNvYNtNvCs2GZpXKFCdsl_11yoke_derive16replace_lifetime15ReplaceLifetimeNtNtNtCs6IAuOt8vWmF_3syn3gen4fold4Fold11fold_fieldsB6_, symObjAddr: 0x2D8, symBinAddr: 0x3C2A4, symSize: 0x34 }
  - { offset: 0x8A938, size: 0x8, addend: 0x0, symName: __RNvYNtNvCs2GZpXKFCdsl_11yoke_derive16replace_lifetime15ReplaceLifetimeNtNtNtCs6IAuOt8vWmF_3syn3gen4fold4Fold11fold_fn_argB6_, symObjAddr: 0x30C, symBinAddr: 0x3C2D8, symSize: 0x34 }
  - { offset: 0x8A97F, size: 0x8, addend: 0x0, symName: __RNvYNtNvCs2GZpXKFCdsl_11yoke_derive16replace_lifetime15ReplaceLifetimeNtNtNtCs6IAuOt8vWmF_3syn3gen4fold4Fold11fold_memberB6_, symObjAddr: 0x340, symBinAddr: 0x3C30C, symSize: 0x34 }
  - { offset: 0x8A9C6, size: 0x8, addend: 0x0, symName: __RNvYNtNvCs2GZpXKFCdsl_11yoke_derive16replace_lifetime15ReplaceLifetimeNtNtNtCs6IAuOt8vWmF_3syn3gen4fold4Fold11fold_pat_orB6_, symObjAddr: 0x374, symBinAddr: 0x3C340, symSize: 0x34 }
  - { offset: 0x8AA0D, size: 0x8, addend: 0x0, symName: __RNvYNtNvCs2GZpXKFCdsl_11yoke_derive16replace_lifetime15ReplaceLifetimeNtNtNtCs6IAuOt8vWmF_3syn3gen4fold4Fold12fold_expr_ifB6_, symObjAddr: 0x3A8, symBinAddr: 0x3C374, symSize: 0x34 }
  - { offset: 0x8AA51, size: 0x8, addend: 0x0, symName: __RNvYNtNvCs2GZpXKFCdsl_11yoke_derive16replace_lifetime15ReplaceLifetimeNtNtNtCs6IAuOt8vWmF_3syn3gen4fold4Fold12fold_item_fnB6_, symObjAddr: 0x3DC, symBinAddr: 0x3C3A8, symSize: 0x34 }
  - { offset: 0x8AA98, size: 0x8, addend: 0x0, symName: __RNvYNtNvCs2GZpXKFCdsl_11yoke_derive16replace_lifetime15ReplaceLifetimeNtNtNtCs6IAuOt8vWmF_3syn3gen4fold4Fold12fold_lit_intB6_, symObjAddr: 0x410, symBinAddr: 0x3C3DC, symSize: 0x3C }
  - { offset: 0x8AADE, size: 0x8, addend: 0x0, symName: __RNvYNtNvCs2GZpXKFCdsl_11yoke_derive16replace_lifetime15ReplaceLifetimeNtNtNtCs6IAuOt8vWmF_3syn3gen4fold4Fold12fold_lit_strB6_, symObjAddr: 0x44C, symBinAddr: 0x3C418, symSize: 0x3C }
  - { offset: 0x8AB24, size: 0x8, addend: 0x0, symName: __RNvYNtNvCs2GZpXKFCdsl_11yoke_derive16replace_lifetime15ReplaceLifetimeNtNtNtCs6IAuOt8vWmF_3syn3gen4fold4Fold12fold_variantB6_, symObjAddr: 0x488, symBinAddr: 0x3C454, symSize: 0x34 }
  - { offset: 0x8AB6B, size: 0x8, addend: 0x0, symName: __RNvYNtNvCs2GZpXKFCdsl_11yoke_derive16replace_lifetime15ReplaceLifetimeNtNtNtCs6IAuOt8vWmF_3syn3gen4fold4Fold13fold_expr_letB6_, symObjAddr: 0x4BC, symBinAddr: 0x3C488, symSize: 0x34 }
  - { offset: 0x8ABAF, size: 0x8, addend: 0x0, symName: __RNvYNtNvCs2GZpXKFCdsl_11yoke_derive16replace_lifetime15ReplaceLifetimeNtNtNtCs6IAuOt8vWmF_3syn3gen4fold4Fold13fold_expr_litB6_, symObjAddr: 0x4F0, symBinAddr: 0x3C4BC, symSize: 0x34 }
  - { offset: 0x8ABF3, size: 0x8, addend: 0x0, symName: __RNvYNtNvCs2GZpXKFCdsl_11yoke_derive16replace_lifetime15ReplaceLifetimeNtNtNtCs6IAuOt8vWmF_3syn3gen4fold4Fold13fold_expr_tryB6_, symObjAddr: 0x524, symBinAddr: 0x3C4F0, symSize: 0x34 }
  - { offset: 0x8AC3A, size: 0x8, addend: 0x0, symName: __RNvYNtNvCs2GZpXKFCdsl_11yoke_derive16replace_lifetime15ReplaceLifetimeNtNtNtCs6IAuOt8vWmF_3syn3gen4fold4Fold13fold_genericsB6_, symObjAddr: 0x558, symBinAddr: 0x3C524, symSize: 0x34 }
  - { offset: 0x8AC81, size: 0x8, addend: 0x0, symName: __RNvYNtNvCs2GZpXKFCdsl_11yoke_derive16replace_lifetime15ReplaceLifetimeNtNtNtCs6IAuOt8vWmF_3syn3gen4fold4Fold13fold_item_modB6_, symObjAddr: 0x58C, symBinAddr: 0x3C558, symSize: 0x34 }
  - { offset: 0x8ACC8, size: 0x8, addend: 0x0, symName: __RNvYNtNvCs2GZpXKFCdsl_11yoke_derive16replace_lifetime15ReplaceLifetimeNtNtNtCs6IAuOt8vWmF_3syn3gen4fold4Fold13fold_item_useB6_, symObjAddr: 0x5C0, symBinAddr: 0x3C58C, symSize: 0x34 }
  - { offset: 0x8AD0F, size: 0x8, addend: 0x0, symName: __RNvYNtNvCs2GZpXKFCdsl_11yoke_derive16replace_lifetime15ReplaceLifetimeNtNtNtCs6IAuOt8vWmF_3syn3gen4fold4Fold13fold_lit_boolB6_, symObjAddr: 0x5F4, symBinAddr: 0x3C5C0, symSize: 0x40 }
  - { offset: 0x8AD55, size: 0x8, addend: 0x0, symName: __RNvYNtNvCs2GZpXKFCdsl_11yoke_derive16replace_lifetime15ReplaceLifetimeNtNtNtCs6IAuOt8vWmF_3syn3gen4fold4Fold13fold_lit_byteB6_, symObjAddr: 0x634, symBinAddr: 0x3C600, symSize: 0x3C }
  - { offset: 0x8AD9B, size: 0x8, addend: 0x0, symName: __RNvYNtNvCs2GZpXKFCdsl_11yoke_derive16replace_lifetime15ReplaceLifetimeNtNtNtCs6IAuOt8vWmF_3syn3gen4fold4Fold13fold_lit_charB6_, symObjAddr: 0x670, symBinAddr: 0x3C63C, symSize: 0x3C }
  - { offset: 0x8ADE1, size: 0x8, addend: 0x0, symName: __RNvYNtNvCs2GZpXKFCdsl_11yoke_derive16replace_lifetime15ReplaceLifetimeNtNtNtCs6IAuOt8vWmF_3syn3gen4fold4Fold13fold_lit_cstrB6_, symObjAddr: 0x6AC, symBinAddr: 0x3C678, symSize: 0x3C }
  - { offset: 0x8AE27, size: 0x8, addend: 0x0, symName: __RNvYNtNvCs2GZpXKFCdsl_11yoke_derive16replace_lifetime15ReplaceLifetimeNtNtNtCs6IAuOt8vWmF_3syn3gen4fold4Fold13fold_pat_restB6_, symObjAddr: 0x6E8, symBinAddr: 0x3C6B4, symSize: 0x34 }
  - { offset: 0x8AE6E, size: 0x8, addend: 0x0, symName: __RNvYNtNvCs2GZpXKFCdsl_11yoke_derive16replace_lifetime15ReplaceLifetimeNtNtNtCs6IAuOt8vWmF_3syn3gen4fold4Fold13fold_pat_typeB6_, symObjAddr: 0x71C, symBinAddr: 0x3C6E8, symSize: 0x34 }
  - { offset: 0x8AEB5, size: 0x8, addend: 0x0, symName: __RNvYNtNvCs2GZpXKFCdsl_11yoke_derive16replace_lifetime15ReplaceLifetimeNtNtNtCs6IAuOt8vWmF_3syn3gen4fold4Fold13fold_pat_wildB6_, symObjAddr: 0x750, symBinAddr: 0x3C71C, symSize: 0x34 }
  - { offset: 0x8AEFC, size: 0x8, addend: 0x0, symName: __RNvYNtNvCs2GZpXKFCdsl_11yoke_derive16replace_lifetime15ReplaceLifetimeNtNtNtCs6IAuOt8vWmF_3syn3gen4fold4Fold13fold_receiverB6_, symObjAddr: 0x784, symBinAddr: 0x3C750, symSize: 0x34 }
  - { offset: 0x8AF43, size: 0x8, addend: 0x0, symName: __RNvYNtNvCs2GZpXKFCdsl_11yoke_derive16replace_lifetime15ReplaceLifetimeNtNtNtCs6IAuOt8vWmF_3syn3gen4fold4Fold13fold_type_ptrB6_, symObjAddr: 0x7B8, symBinAddr: 0x3C784, symSize: 0x34 }
  - { offset: 0x8AF8A, size: 0x8, addend: 0x0, symName: __RNvYNtNvCs2GZpXKFCdsl_11yoke_derive16replace_lifetime15ReplaceLifetimeNtNtNtCs6IAuOt8vWmF_3syn3gen4fold4Fold13fold_use_globB6_, symObjAddr: 0x7EC, symBinAddr: 0x3C7B8, symSize: 0x5C }
  - { offset: 0x8AFD0, size: 0x8, addend: 0x0, symName: __RNvYNtNvCs2GZpXKFCdsl_11yoke_derive16replace_lifetime15ReplaceLifetimeNtNtNtCs6IAuOt8vWmF_3syn3gen4fold4Fold13fold_use_nameB6_, symObjAddr: 0x848, symBinAddr: 0x3C814, symSize: 0x34 }
  - { offset: 0x8B017, size: 0x8, addend: 0x0, symName: __RNvYNtNvCs2GZpXKFCdsl_11yoke_derive16replace_lifetime15ReplaceLifetimeNtNtNtCs6IAuOt8vWmF_3syn3gen4fold4Fold13fold_use_pathB6_, symObjAddr: 0x87C, symBinAddr: 0x3C848, symSize: 0x34 }
  - { offset: 0x8B05E, size: 0x8, addend: 0x0, symName: __RNvYNtNvCs2GZpXKFCdsl_11yoke_derive16replace_lifetime15ReplaceLifetimeNtNtNtCs6IAuOt8vWmF_3syn3gen4fold4Fold13fold_use_treeB6_, symObjAddr: 0x8B0, symBinAddr: 0x3C87C, symSize: 0x34 }
  - { offset: 0x8B0A5, size: 0x8, addend: 0x0, symName: __RNvYNtNvCs2GZpXKFCdsl_11yoke_derive16replace_lifetime15ReplaceLifetimeNtNtNtCs6IAuOt8vWmF_3syn3gen4fold4Fold13fold_variadicB6_, symObjAddr: 0x8E4, symBinAddr: 0x3C8B0, symSize: 0x34 }
  - { offset: 0x8B0EC, size: 0x8, addend: 0x0, symName: __RNvYNtNvCs2GZpXKFCdsl_11yoke_derive16replace_lifetime15ReplaceLifetimeNtNtNtCs6IAuOt8vWmF_3syn3gen4fold4Fold14fold_attributeB6_, symObjAddr: 0x918, symBinAddr: 0x3C8E4, symSize: 0x34 }
  - { offset: 0x8B130, size: 0x8, addend: 0x0, symName: __RNvYNtNvCs2GZpXKFCdsl_11yoke_derive16replace_lifetime15ReplaceLifetimeNtNtNtCs6IAuOt8vWmF_3syn3gen4fold4Fold14fold_expr_callB6_, symObjAddr: 0x94C, symBinAddr: 0x3C918, symSize: 0x34 }
  - { offset: 0x8B174, size: 0x8, addend: 0x0, symName: __RNvYNtNvCs2GZpXKFCdsl_11yoke_derive16replace_lifetime15ReplaceLifetimeNtNtNtCs6IAuOt8vWmF_3syn3gen4fold4Fold14fold_expr_castB6_, symObjAddr: 0x980, symBinAddr: 0x3C94C, symSize: 0x34 }
  - { offset: 0x8B1B8, size: 0x8, addend: 0x0, symName: __RNvYNtNvCs2GZpXKFCdsl_11yoke_derive16replace_lifetime15ReplaceLifetimeNtNtNtCs6IAuOt8vWmF_3syn3gen4fold4Fold14fold_expr_loopB6_, symObjAddr: 0x9B4, symBinAddr: 0x3C980, symSize: 0x34 }
  - { offset: 0x8B1FC, size: 0x8, addend: 0x0, symName: __RNvYNtNvCs2GZpXKFCdsl_11yoke_derive16replace_lifetime15ReplaceLifetimeNtNtNtCs6IAuOt8vWmF_3syn3gen4fold4Fold14fold_expr_pathB6_, symObjAddr: 0x9E8, symBinAddr: 0x3C9B4, symSize: 0x34 }
  - { offset: 0x8B243, size: 0x8, addend: 0x0, symName: __RNvYNtNvCs2GZpXKFCdsl_11yoke_derive16replace_lifetime15ReplaceLifetimeNtNtNtCs6IAuOt8vWmF_3syn3gen4fold4Fold14fold_field_patB6_, symObjAddr: 0xA1C, symBinAddr: 0x3C9E8, symSize: 0x34 }
  - { offset: 0x8B28A, size: 0x8, addend: 0x0, symName: __RNvYNtNvCs2GZpXKFCdsl_11yoke_derive16replace_lifetime15ReplaceLifetimeNtNtNtCs6IAuOt8vWmF_3syn3gen4fold4Fold14fold_impl_itemB6_, symObjAddr: 0xA50, symBinAddr: 0x3CA1C, symSize: 0x34 }
  - { offset: 0x8B2D1, size: 0x8, addend: 0x0, symName: __RNvYNtNvCs2GZpXKFCdsl_11yoke_derive16replace_lifetime15ReplaceLifetimeNtNtNtCs6IAuOt8vWmF_3syn3gen4fold4Fold14fold_item_enumB6_, symObjAddr: 0xA84, symBinAddr: 0x3CA50, symSize: 0x34 }
  - { offset: 0x8B318, size: 0x8, addend: 0x0, symName: __RNvYNtNvCs2GZpXKFCdsl_11yoke_derive16replace_lifetime15ReplaceLifetimeNtNtNtCs6IAuOt8vWmF_3syn3gen4fold4Fold14fold_item_implB6_, symObjAddr: 0xAB8, symBinAddr: 0x3CA84, symSize: 0x34 }
  - { offset: 0x8B35F, size: 0x8, addend: 0x0, symName: __RNvYNtNvCs2GZpXKFCdsl_11yoke_derive16replace_lifetime15ReplaceLifetimeNtNtNtCs6IAuOt8vWmF_3syn3gen4fold4Fold14fold_item_typeB6_, symObjAddr: 0xAEC, symBinAddr: 0x3CAB8, symSize: 0x34 }
  - { offset: 0x8B3A6, size: 0x8, addend: 0x0, symName: __RNvYNtNvCs2GZpXKFCdsl_11yoke_derive16replace_lifetime15ReplaceLifetimeNtNtNtCs6IAuOt8vWmF_3syn3gen4fold4Fold14fold_lit_floatB6_, symObjAddr: 0xB20, symBinAddr: 0x3CAEC, symSize: 0x3C }
  - { offset: 0x8B3EC, size: 0x8, addend: 0x0, symName: __RNvYNtNvCs2GZpXKFCdsl_11yoke_derive16replace_lifetime15ReplaceLifetimeNtNtNtCs6IAuOt8vWmF_3syn3gen4fold4Fold14fold_meta_listB6_, symObjAddr: 0xB5C, symBinAddr: 0x3CB28, symSize: 0x34 }
  - { offset: 0x8B433, size: 0x8, addend: 0x0, symName: __RNvYNtNvCs2GZpXKFCdsl_11yoke_derive16replace_lifetime15ReplaceLifetimeNtNtNtCs6IAuOt8vWmF_3syn3gen4fold4Fold14fold_pat_identB6_, symObjAddr: 0xB90, symBinAddr: 0x3CB5C, symSize: 0x34 }
  - { offset: 0x8B47A, size: 0x8, addend: 0x0, symName: __RNvYNtNvCs2GZpXKFCdsl_11yoke_derive16replace_lifetime15ReplaceLifetimeNtNtNtCs6IAuOt8vWmF_3syn3gen4fold4Fold14fold_pat_parenB6_, symObjAddr: 0xBC4, symBinAddr: 0x3CB90, symSize: 0x34 }
  - { offset: 0x8B4C1, size: 0x8, addend: 0x0, symName: __RNvYNtNvCs2GZpXKFCdsl_11yoke_derive16replace_lifetime15ReplaceLifetimeNtNtNtCs6IAuOt8vWmF_3syn3gen4fold4Fold14fold_pat_sliceB6_, symObjAddr: 0xBF8, symBinAddr: 0x3CBC4, symSize: 0x34 }
  - { offset: 0x8B508, size: 0x8, addend: 0x0, symName: __RNvYNtNvCs2GZpXKFCdsl_11yoke_derive16replace_lifetime15ReplaceLifetimeNtNtNtCs6IAuOt8vWmF_3syn3gen4fold4Fold14fold_pat_tupleB6_, symObjAddr: 0xC2C, symBinAddr: 0x3CBF8, symSize: 0x34 }
  - { offset: 0x8B54F, size: 0x8, addend: 0x0, symName: __RNvYNtNvCs2GZpXKFCdsl_11yoke_derive16replace_lifetime15ReplaceLifetimeNtNtNtCs6IAuOt8vWmF_3syn3gen4fold4Fold14fold_signatureB6_, symObjAddr: 0xC60, symBinAddr: 0x3CC2C, symSize: 0x34 }
  - { offset: 0x8B596, size: 0x8, addend: 0x0, symName: __RNvYNtNvCs2GZpXKFCdsl_11yoke_derive16replace_lifetime15ReplaceLifetimeNtNtNtCs6IAuOt8vWmF_3syn3gen4fold4Fold14fold_type_pathB6_, symObjAddr: 0xC94, symBinAddr: 0x3CC60, symSize: 0x34 }
  - { offset: 0x8B5DD, size: 0x8, addend: 0x0, symName: __RNvYNtNvCs2GZpXKFCdsl_11yoke_derive16replace_lifetime15ReplaceLifetimeNtNtNtCs6IAuOt8vWmF_3syn3gen4fold4Fold14fold_use_groupB6_, symObjAddr: 0xCC8, symBinAddr: 0x3CC94, symSize: 0x34 }
  - { offset: 0x8B624, size: 0x8, addend: 0x0, symName: __RNvYNtNvCs2GZpXKFCdsl_11yoke_derive16replace_lifetime15ReplaceLifetimeNtNtNtCs6IAuOt8vWmF_3syn3gen4fold4Fold15fold_assoc_typeB6_, symObjAddr: 0xCFC, symBinAddr: 0x3CCC8, symSize: 0x34 }
  - { offset: 0x8B668, size: 0x8, addend: 0x0, symName: __RNvYNtNvCs2GZpXKFCdsl_11yoke_derive16replace_lifetime15ReplaceLifetimeNtNtNtCs6IAuOt8vWmF_3syn3gen4fold4Fold15fold_attr_styleB6_, symObjAddr: 0xD30, symBinAddr: 0x3CCFC, symSize: 0x64 }
  - { offset: 0x8B6AB, size: 0x8, addend: 0x0, symName: __RNvYNtNvCs2GZpXKFCdsl_11yoke_derive16replace_lifetime15ReplaceLifetimeNtNtNtCs6IAuOt8vWmF_3syn3gen4fold4Fold15fold_attributesB6_, symObjAddr: 0xD94, symBinAddr: 0x3CD60, symSize: 0x40 }
  - { offset: 0x8B6EF, size: 0x8, addend: 0x0, symName: __RNvYNtNvCs2GZpXKFCdsl_11yoke_derive16replace_lifetime15ReplaceLifetimeNtNtNtCs6IAuOt8vWmF_3syn3gen4fold4Fold15fold_constraintB6_, symObjAddr: 0xDD4, symBinAddr: 0x3CDA0, symSize: 0x34 }
  - { offset: 0x8B733, size: 0x8, addend: 0x0, symName: __RNvYNtNvCs2GZpXKFCdsl_11yoke_derive16replace_lifetime15ReplaceLifetimeNtNtNtCs6IAuOt8vWmF_3syn3gen4fold4Fold15fold_expr_arrayB6_, symObjAddr: 0xE08, symBinAddr: 0x3CDD4, symSize: 0x34 }
  - { offset: 0x8B777, size: 0x8, addend: 0x0, symName: __RNvYNtNvCs2GZpXKFCdsl_11yoke_derive16replace_lifetime15ReplaceLifetimeNtNtNtCs6IAuOt8vWmF_3syn3gen4fold4Fold15fold_expr_asyncB6_, symObjAddr: 0xE3C, symBinAddr: 0x3CE08, symSize: 0x34 }
  - { offset: 0x8B7BB, size: 0x8, addend: 0x0, symName: __RNvYNtNvCs2GZpXKFCdsl_11yoke_derive16replace_lifetime15ReplaceLifetimeNtNtNtCs6IAuOt8vWmF_3syn3gen4fold4Fold15fold_expr_awaitB6_, symObjAddr: 0xE70, symBinAddr: 0x3CE3C, symSize: 0x34 }
  - { offset: 0x8B7FF, size: 0x8, addend: 0x0, symName: __RNvYNtNvCs2GZpXKFCdsl_11yoke_derive16replace_lifetime15ReplaceLifetimeNtNtNtCs6IAuOt8vWmF_3syn3gen4fold4Fold15fold_expr_blockB6_, symObjAddr: 0xEA4, symBinAddr: 0x3CE70, symSize: 0x34 }
  - { offset: 0x8B843, size: 0x8, addend: 0x0, symName: __RNvYNtNvCs2GZpXKFCdsl_11yoke_derive16replace_lifetime15ReplaceLifetimeNtNtNtCs6IAuOt8vWmF_3syn3gen4fold4Fold15fold_expr_breakB6_, symObjAddr: 0xED8, symBinAddr: 0x3CEA4, symSize: 0x34 }
  - { offset: 0x8B887, size: 0x8, addend: 0x0, symName: __RNvYNtNvCs2GZpXKFCdsl_11yoke_derive16replace_lifetime15ReplaceLifetimeNtNtNtCs6IAuOt8vWmF_3syn3gen4fold4Fold15fold_expr_constB6_, symObjAddr: 0xF0C, symBinAddr: 0x3CED8, symSize: 0x34 }
  - { offset: 0x8B8CB, size: 0x8, addend: 0x0, symName: __RNvYNtNvCs2GZpXKFCdsl_11yoke_derive16replace_lifetime15ReplaceLifetimeNtNtNtCs6IAuOt8vWmF_3syn3gen4fold4Fold15fold_expr_fieldB6_, symObjAddr: 0xF40, symBinAddr: 0x3CF0C, symSize: 0x34 }
  - { offset: 0x8B90F, size: 0x8, addend: 0x0, symName: __RNvYNtNvCs2GZpXKFCdsl_11yoke_derive16replace_lifetime15ReplaceLifetimeNtNtNtCs6IAuOt8vWmF_3syn3gen4fold4Fold15fold_expr_groupB6_, symObjAddr: 0xF74, symBinAddr: 0x3CF40, symSize: 0x34 }
  - { offset: 0x8B953, size: 0x8, addend: 0x0, symName: __RNvYNtNvCs2GZpXKFCdsl_11yoke_derive16replace_lifetime15ReplaceLifetimeNtNtNtCs6IAuOt8vWmF_3syn3gen4fold4Fold15fold_expr_indexB6_, symObjAddr: 0xFA8, symBinAddr: 0x3CF74, symSize: 0x34 }
  - { offset: 0x8B997, size: 0x8, addend: 0x0, symName: __RNvYNtNvCs2GZpXKFCdsl_11yoke_derive16replace_lifetime15ReplaceLifetimeNtNtNtCs6IAuOt8vWmF_3syn3gen4fold4Fold15fold_expr_inferB6_, symObjAddr: 0xFDC, symBinAddr: 0x3CFA8, symSize: 0x34 }
  - { offset: 0x8B9DB, size: 0x8, addend: 0x0, symName: __RNvYNtNvCs2GZpXKFCdsl_11yoke_derive16replace_lifetime15ReplaceLifetimeNtNtNtCs6IAuOt8vWmF_3syn3gen4fold4Fold15fold_expr_macroB6_, symObjAddr: 0x1010, symBinAddr: 0x3CFDC, symSize: 0x34 }
  - { offset: 0x8BA1F, size: 0x8, addend: 0x0, symName: __RNvYNtNvCs2GZpXKFCdsl_11yoke_derive16replace_lifetime15ReplaceLifetimeNtNtNtCs6IAuOt8vWmF_3syn3gen4fold4Fold15fold_expr_matchB6_, symObjAddr: 0x1044, symBinAddr: 0x3D010, symSize: 0x34 }
  - { offset: 0x8BA66, size: 0x8, addend: 0x0, symName: __RNvYNtNvCs2GZpXKFCdsl_11yoke_derive16replace_lifetime15ReplaceLifetimeNtNtNtCs6IAuOt8vWmF_3syn3gen4fold4Fold15fold_expr_parenB6_, symObjAddr: 0x1078, symBinAddr: 0x3D044, symSize: 0x34 }
  - { offset: 0x8BAAD, size: 0x8, addend: 0x0, symName: __RNvYNtNvCs2GZpXKFCdsl_11yoke_derive16replace_lifetime15ReplaceLifetimeNtNtNtCs6IAuOt8vWmF_3syn3gen4fold4Fold15fold_expr_rangeB6_, symObjAddr: 0x10AC, symBinAddr: 0x3D078, symSize: 0x34 }
  - { offset: 0x8BAF4, size: 0x8, addend: 0x0, symName: __RNvYNtNvCs2GZpXKFCdsl_11yoke_derive16replace_lifetime15ReplaceLifetimeNtNtNtCs6IAuOt8vWmF_3syn3gen4fold4Fold15fold_expr_tupleB6_, symObjAddr: 0x10E0, symBinAddr: 0x3D0AC, symSize: 0x34 }
  - { offset: 0x8BB3B, size: 0x8, addend: 0x0, symName: __RNvYNtNvCs2GZpXKFCdsl_11yoke_derive16replace_lifetime15ReplaceLifetimeNtNtNtCs6IAuOt8vWmF_3syn3gen4fold4Fold15fold_expr_unaryB6_, symObjAddr: 0x1114, symBinAddr: 0x3D0E0, symSize: 0x34 }
  - { offset: 0x8BB82, size: 0x8, addend: 0x0, symName: __RNvYNtNvCs2GZpXKFCdsl_11yoke_derive16replace_lifetime15ReplaceLifetimeNtNtNtCs6IAuOt8vWmF_3syn3gen4fold4Fold15fold_expr_whileB6_, symObjAddr: 0x1148, symBinAddr: 0x3D114, symSize: 0x34 }
  - { offset: 0x8BBC9, size: 0x8, addend: 0x0, symName: __RNvYNtNvCs2GZpXKFCdsl_11yoke_derive16replace_lifetime15ReplaceLifetimeNtNtNtCs6IAuOt8vWmF_3syn3gen4fold4Fold15fold_expr_yieldB6_, symObjAddr: 0x117C, symBinAddr: 0x3D148, symSize: 0x34 }
  - { offset: 0x8BC10, size: 0x8, addend: 0x0, symName: __RNvYNtNvCs2GZpXKFCdsl_11yoke_derive16replace_lifetime15ReplaceLifetimeNtNtNtCs6IAuOt8vWmF_3syn3gen4fold4Fold15fold_item_constB6_, symObjAddr: 0x11B0, symBinAddr: 0x3D17C, symSize: 0x34 }
  - { offset: 0x8BC57, size: 0x8, addend: 0x0, symName: __RNvYNtNvCs2GZpXKFCdsl_11yoke_derive16replace_lifetime15ReplaceLifetimeNtNtNtCs6IAuOt8vWmF_3syn3gen4fold4Fold15fold_item_macroB6_, symObjAddr: 0x11E4, symBinAddr: 0x3D1B0, symSize: 0x34 }
  - { offset: 0x8BC9E, size: 0x8, addend: 0x0, symName: __RNvYNtNvCs2GZpXKFCdsl_11yoke_derive16replace_lifetime15ReplaceLifetimeNtNtNtCs6IAuOt8vWmF_3syn3gen4fold4Fold15fold_item_traitB6_, symObjAddr: 0x1218, symBinAddr: 0x3D1E4, symSize: 0x34 }
  - { offset: 0x8BCE5, size: 0x8, addend: 0x0, symName: __RNvYNtNvCs2GZpXKFCdsl_11yoke_derive16replace_lifetime15ReplaceLifetimeNtNtNtCs6IAuOt8vWmF_3syn3gen4fold4Fold15fold_item_unionB6_, symObjAddr: 0x124C, symBinAddr: 0x3D218, symSize: 0x34 }
  - { offset: 0x8BD2C, size: 0x8, addend: 0x0, symName: __RNvYNtNvCs2GZpXKFCdsl_11yoke_derive16replace_lifetime15ReplaceLifetimeNtNtNtCs6IAuOt8vWmF_3syn3gen4fold4Fold15fold_local_initB6_, symObjAddr: 0x1280, symBinAddr: 0x3D24C, symSize: 0x34 }
  - { offset: 0x8BD73, size: 0x8, addend: 0x0, symName: __RNvYNtNvCs2GZpXKFCdsl_11yoke_derive16replace_lifetime15ReplaceLifetimeNtNtNtCs6IAuOt8vWmF_3syn3gen4fold4Fold15fold_pat_structB6_, symObjAddr: 0x12B4, symBinAddr: 0x3D280, symSize: 0x34 }
  - { offset: 0x8BDBA, size: 0x8, addend: 0x0, symName: __RNvYNtNvCs2GZpXKFCdsl_11yoke_derive16replace_lifetime15ReplaceLifetimeNtNtNtCs6IAuOt8vWmF_3syn3gen4fold4Fold15fold_stmt_macroB6_, symObjAddr: 0x12E8, symBinAddr: 0x3D2B4, symSize: 0x34 }
  - { offset: 0x8BE01, size: 0x8, addend: 0x0, symName: __RNvYNtNvCs2GZpXKFCdsl_11yoke_derive16replace_lifetime15ReplaceLifetimeNtNtNtCs6IAuOt8vWmF_3syn3gen4fold4Fold15fold_trait_itemB6_, symObjAddr: 0x131C, symBinAddr: 0x3D2E8, symSize: 0x34 }
  - { offset: 0x8BE48, size: 0x8, addend: 0x0, symName: __RNvYNtNvCs2GZpXKFCdsl_11yoke_derive16replace_lifetime15ReplaceLifetimeNtNtNtCs6IAuOt8vWmF_3syn3gen4fold4Fold15fold_type_arrayB6_, symObjAddr: 0x1350, symBinAddr: 0x3D31C, symSize: 0x34 }
  - { offset: 0x8BE8F, size: 0x8, addend: 0x0, symName: __RNvYNtNvCs2GZpXKFCdsl_11yoke_derive16replace_lifetime15ReplaceLifetimeNtNtNtCs6IAuOt8vWmF_3syn3gen4fold4Fold15fold_type_groupB6_, symObjAddr: 0x1384, symBinAddr: 0x3D350, symSize: 0x40 }
  - { offset: 0x8BED5, size: 0x8, addend: 0x0, symName: __RNvYNtNvCs2GZpXKFCdsl_11yoke_derive16replace_lifetime15ReplaceLifetimeNtNtNtCs6IAuOt8vWmF_3syn3gen4fold4Fold15fold_type_inferB6_, symObjAddr: 0x13C4, symBinAddr: 0x3D390, symSize: 0x5C }
  - { offset: 0x8BF1B, size: 0x8, addend: 0x0, symName: __RNvYNtNvCs2GZpXKFCdsl_11yoke_derive16replace_lifetime15ReplaceLifetimeNtNtNtCs6IAuOt8vWmF_3syn3gen4fold4Fold15fold_type_macroB6_, symObjAddr: 0x1420, symBinAddr: 0x3D3EC, symSize: 0x34 }
  - { offset: 0x8BF62, size: 0x8, addend: 0x0, symName: __RNvYNtNvCs2GZpXKFCdsl_11yoke_derive16replace_lifetime15ReplaceLifetimeNtNtNtCs6IAuOt8vWmF_3syn3gen4fold4Fold15fold_type_neverB6_, symObjAddr: 0x1454, symBinAddr: 0x3D420, symSize: 0x5C }
  - { offset: 0x8BFA8, size: 0x8, addend: 0x0, symName: __RNvYNtNvCs2GZpXKFCdsl_11yoke_derive16replace_lifetime15ReplaceLifetimeNtNtNtCs6IAuOt8vWmF_3syn3gen4fold4Fold15fold_type_paramB6_, symObjAddr: 0x14B0, symBinAddr: 0x3D47C, symSize: 0x34 }
  - { offset: 0x8BFEF, size: 0x8, addend: 0x0, symName: __RNvYNtNvCs2GZpXKFCdsl_11yoke_derive16replace_lifetime15ReplaceLifetimeNtNtNtCs6IAuOt8vWmF_3syn3gen4fold4Fold15fold_type_parenB6_, symObjAddr: 0x14E4, symBinAddr: 0x3D4B0, symSize: 0x34 }
  - { offset: 0x8C036, size: 0x8, addend: 0x0, symName: __RNvYNtNvCs2GZpXKFCdsl_11yoke_derive16replace_lifetime15ReplaceLifetimeNtNtNtCs6IAuOt8vWmF_3syn3gen4fold4Fold15fold_type_sliceB6_, symObjAddr: 0x1518, symBinAddr: 0x3D4E4, symSize: 0x34 }
  - { offset: 0x8C07D, size: 0x8, addend: 0x0, symName: __RNvYNtNvCs2GZpXKFCdsl_11yoke_derive16replace_lifetime15ReplaceLifetimeNtNtNtCs6IAuOt8vWmF_3syn3gen4fold4Fold15fold_type_tupleB6_, symObjAddr: 0x154C, symBinAddr: 0x3D518, symSize: 0x34 }
  - { offset: 0x8C0C4, size: 0x8, addend: 0x0, symName: __RNvYNtNvCs2GZpXKFCdsl_11yoke_derive16replace_lifetime15ReplaceLifetimeNtNtNtCs6IAuOt8vWmF_3syn3gen4fold4Fold15fold_use_renameB6_, symObjAddr: 0x1580, symBinAddr: 0x3D54C, symSize: 0x34 }
  - { offset: 0x8C10B, size: 0x8, addend: 0x0, symName: __RNvYNtNvCs2GZpXKFCdsl_11yoke_derive16replace_lifetime15ReplaceLifetimeNtNtNtCs6IAuOt8vWmF_3syn3gen4fold4Fold15fold_visibilityB6_, symObjAddr: 0x15B4, symBinAddr: 0x3D580, symSize: 0x34 }
  - { offset: 0x8C152, size: 0x8, addend: 0x0, symName: __RNvYNtNvCs2GZpXKFCdsl_11yoke_derive16replace_lifetime15ReplaceLifetimeNtNtNtCs6IAuOt8vWmF_3syn3gen4fold4Fold16fold_assoc_constB6_, symObjAddr: 0x15E8, symBinAddr: 0x3D5B4, symSize: 0x34 }
  - { offset: 0x8C196, size: 0x8, addend: 0x0, symName: __RNvYNtNvCs2GZpXKFCdsl_11yoke_derive16replace_lifetime15ReplaceLifetimeNtNtNtCs6IAuOt8vWmF_3syn3gen4fold4Fold16fold_bare_fn_argB6_, symObjAddr: 0x161C, symBinAddr: 0x3D5E8, symSize: 0x34 }
  - { offset: 0x8C1DA, size: 0x8, addend: 0x0, symName: __RNvYNtNvCs2GZpXKFCdsl_11yoke_derive16replace_lifetime15ReplaceLifetimeNtNtNtCs6IAuOt8vWmF_3syn3gen4fold4Fold16fold_const_paramB6_, symObjAddr: 0x1650, symBinAddr: 0x3D61C, symSize: 0x34 }
  - { offset: 0x8C21E, size: 0x8, addend: 0x0, symName: __RNvYNtNvCs2GZpXKFCdsl_11yoke_derive16replace_lifetime15ReplaceLifetimeNtNtNtCs6IAuOt8vWmF_3syn3gen4fold4Fold16fold_expr_assignB6_, symObjAddr: 0x1684, symBinAddr: 0x3D650, symSize: 0x34 }
  - { offset: 0x8C262, size: 0x8, addend: 0x0, symName: __RNvYNtNvCs2GZpXKFCdsl_11yoke_derive16replace_lifetime15ReplaceLifetimeNtNtNtCs6IAuOt8vWmF_3syn3gen4fold4Fold16fold_expr_binaryB6_, symObjAddr: 0x16B8, symBinAddr: 0x3D684, symSize: 0x34 }
  - { offset: 0x8C2A6, size: 0x8, addend: 0x0, symName: __RNvYNtNvCs2GZpXKFCdsl_11yoke_derive16replace_lifetime15ReplaceLifetimeNtNtNtCs6IAuOt8vWmF_3syn3gen4fold4Fold16fold_expr_repeatB6_, symObjAddr: 0x16EC, symBinAddr: 0x3D6B8, symSize: 0x34 }
  - { offset: 0x8C2ED, size: 0x8, addend: 0x0, symName: __RNvYNtNvCs2GZpXKFCdsl_11yoke_derive16replace_lifetime15ReplaceLifetimeNtNtNtCs6IAuOt8vWmF_3syn3gen4fold4Fold16fold_expr_returnB6_, symObjAddr: 0x1720, symBinAddr: 0x3D6EC, symSize: 0x34 }
  - { offset: 0x8C334, size: 0x8, addend: 0x0, symName: __RNvYNtNvCs2GZpXKFCdsl_11yoke_derive16replace_lifetime15ReplaceLifetimeNtNtNtCs6IAuOt8vWmF_3syn3gen4fold4Fold16fold_expr_structB6_, symObjAddr: 0x1754, symBinAddr: 0x3D720, symSize: 0x34 }
  - { offset: 0x8C37B, size: 0x8, addend: 0x0, symName: __RNvYNtNvCs2GZpXKFCdsl_11yoke_derive16replace_lifetime15ReplaceLifetimeNtNtNtCs6IAuOt8vWmF_3syn3gen4fold4Fold16fold_expr_unsafeB6_, symObjAddr: 0x1788, symBinAddr: 0x3D754, symSize: 0x34 }
  - { offset: 0x8C3C2, size: 0x8, addend: 0x0, symName: __RNvYNtNvCs2GZpXKFCdsl_11yoke_derive16replace_lifetime15ReplaceLifetimeNtNtNtCs6IAuOt8vWmF_3syn3gen4fold4Fold16fold_field_valueB6_, symObjAddr: 0x17BC, symBinAddr: 0x3D788, symSize: 0x34 }
  - { offset: 0x8C409, size: 0x8, addend: 0x0, symName: __RNvYNtNvCs2GZpXKFCdsl_11yoke_derive16replace_lifetime15ReplaceLifetimeNtNtNtCs6IAuOt8vWmF_3syn3gen4fold4Fold16fold_item_staticB6_, symObjAddr: 0x17F0, symBinAddr: 0x3D7BC, symSize: 0x34 }
  - { offset: 0x8C450, size: 0x8, addend: 0x0, symName: __RNvYNtNvCs2GZpXKFCdsl_11yoke_derive16replace_lifetime15ReplaceLifetimeNtNtNtCs6IAuOt8vWmF_3syn3gen4fold4Fold16fold_item_structB6_, symObjAddr: 0x1824, symBinAddr: 0x3D7F0, symSize: 0x34 }
  - { offset: 0x8C497, size: 0x8, addend: 0x0, symName: __RNvYNtNvCs2GZpXKFCdsl_11yoke_derive16replace_lifetime15ReplaceLifetimeNtNtNtCs6IAuOt8vWmF_3syn3gen4fold4Fold16fold_return_typeB6_, symObjAddr: 0x1858, symBinAddr: 0x3D824, symSize: 0x34 }
  - { offset: 0x8C4DE, size: 0x8, addend: 0x0, symName: __RNvYNtNvCs2GZpXKFCdsl_11yoke_derive16replace_lifetime15ReplaceLifetimeNtNtNtCs6IAuOt8vWmF_3syn3gen4fold4Fold16fold_trait_boundB6_, symObjAddr: 0x188C, symBinAddr: 0x3D858, symSize: 0x34 }
  - { offset: 0x8C525, size: 0x8, addend: 0x0, symName: __RNvYNtNvCs2GZpXKFCdsl_11yoke_derive16replace_lifetime15ReplaceLifetimeNtNtNtCs6IAuOt8vWmF_3syn3gen4fold4Fold17fold_expr_closureB6_, symObjAddr: 0x18C0, symBinAddr: 0x3D88C, symSize: 0x34 }
  - { offset: 0x8C569, size: 0x8, addend: 0x0, symName: __RNvYNtNvCs2GZpXKFCdsl_11yoke_derive16replace_lifetime15ReplaceLifetimeNtNtNtCs6IAuOt8vWmF_3syn3gen4fold4Fold17fold_fields_namedB6_, symObjAddr: 0x18F4, symBinAddr: 0x3D8C0, symSize: 0x34 }
  - { offset: 0x8C5B0, size: 0x8, addend: 0x0, symName: __RNvYNtNvCs2GZpXKFCdsl_11yoke_derive16replace_lifetime15ReplaceLifetimeNtNtNtCs6IAuOt8vWmF_3syn3gen4fold4Fold17fold_foreign_itemB6_, symObjAddr: 0x1928, symBinAddr: 0x3D8F4, symSize: 0x34 }
  - { offset: 0x8C5F7, size: 0x8, addend: 0x0, symName: __RNvYNtNvCs2GZpXKFCdsl_11yoke_derive16replace_lifetime15ReplaceLifetimeNtNtNtCs6IAuOt8vWmF_3syn3gen4fold4Fold17fold_impl_item_fnB6_, symObjAddr: 0x195C, symBinAddr: 0x3D928, symSize: 0x34 }
  - { offset: 0x8C63E, size: 0x8, addend: 0x0, symName: __RNvYNtNvCs2GZpXKFCdsl_11yoke_derive16replace_lifetime15ReplaceLifetimeNtNtNtCs6IAuOt8vWmF_3syn3gen4fold4Fold17fold_lit_byte_strB6_, symObjAddr: 0x1990, symBinAddr: 0x3D95C, symSize: 0x3C }
  - { offset: 0x8C684, size: 0x8, addend: 0x0, symName: __RNvYNtNvCs2GZpXKFCdsl_11yoke_derive16replace_lifetime15ReplaceLifetimeNtNtNtCs6IAuOt8vWmF_3syn3gen4fold4Fold17fold_path_segmentB6_, symObjAddr: 0x19CC, symBinAddr: 0x3D998, symSize: 0x34 }
  - { offset: 0x8C6CB, size: 0x8, addend: 0x0, symName: __RNvYNtNvCs2GZpXKFCdsl_11yoke_derive16replace_lifetime15ReplaceLifetimeNtNtNtCs6IAuOt8vWmF_3syn3gen4fold4Fold17fold_range_limitsB6_, symObjAddr: 0x1A00, symBinAddr: 0x3D9CC, symSize: 0x40 }
  - { offset: 0x8C712, size: 0x8, addend: 0x0, symName: __RNvYNtNvCs2GZpXKFCdsl_11yoke_derive16replace_lifetime15ReplaceLifetimeNtNtNtCs6IAuOt8vWmF_3syn3gen4fold4Fold17fold_token_streamB6_, symObjAddr: 0x1A40, symBinAddr: 0x3DA0C, symSize: 0x30 }
  - { offset: 0x8C758, size: 0x8, addend: 0x0, symName: __RNvYNtNvCs2GZpXKFCdsl_11yoke_derive16replace_lifetime15ReplaceLifetimeNtNtNtCs6IAuOt8vWmF_3syn3gen4fold4Fold17fold_type_bare_fnB6_, symObjAddr: 0x1A70, symBinAddr: 0x3DA3C, symSize: 0x34 }
  - { offset: 0x8C79F, size: 0x8, addend: 0x0, symName: __RNvYNtNvCs2GZpXKFCdsl_11yoke_derive16replace_lifetime15ReplaceLifetimeNtNtNtCs6IAuOt8vWmF_3syn3gen4fold4Fold17fold_where_clauseB6_, symObjAddr: 0x1AA4, symBinAddr: 0x3DA70, symSize: 0x34 }
  - { offset: 0x8C7E6, size: 0x8, addend: 0x0, symName: __RNvYNtNvCs2GZpXKFCdsl_11yoke_derive16replace_lifetime15ReplaceLifetimeNtNtNtCs6IAuOt8vWmF_3syn3gen4fold4Fold18fold_bare_variadicB6_, symObjAddr: 0x1AD8, symBinAddr: 0x3DAA4, symSize: 0x34 }
  - { offset: 0x8C82A, size: 0x8, addend: 0x0, symName: __RNvYNtNvCs2GZpXKFCdsl_11yoke_derive16replace_lifetime15ReplaceLifetimeNtNtNtCs6IAuOt8vWmF_3syn3gen4fold4Fold18fold_expr_continueB6_, symObjAddr: 0x1B0C, symBinAddr: 0x3DAD8, symSize: 0x34 }
  - { offset: 0x8C86E, size: 0x8, addend: 0x0, symName: __RNvYNtNvCs2GZpXKFCdsl_11yoke_derive16replace_lifetime15ReplaceLifetimeNtNtNtCs6IAuOt8vWmF_3syn3gen4fold4Fold18fold_expr_for_loopB6_, symObjAddr: 0x1B40, symBinAddr: 0x3DB0C, symSize: 0x34 }
  - { offset: 0x8C8B2, size: 0x8, addend: 0x0, symName: __RNvYNtNvCs2GZpXKFCdsl_11yoke_derive16replace_lifetime15ReplaceLifetimeNtNtNtCs6IAuOt8vWmF_3syn3gen4fold4Fold18fold_expr_raw_addrB6_, symObjAddr: 0x1B74, symBinAddr: 0x3DB40, symSize: 0x34 }
  - { offset: 0x8C8F9, size: 0x8, addend: 0x0, symName: __RNvYNtNvCs2GZpXKFCdsl_11yoke_derive16replace_lifetime15ReplaceLifetimeNtNtNtCs6IAuOt8vWmF_3syn3gen4fold4Fold18fold_generic_paramB6_, symObjAddr: 0x1BA8, symBinAddr: 0x3DB74, symSize: 0x34 }
  - { offset: 0x8C940, size: 0x8, addend: 0x0, symName: __RNvYNtNvCs2GZpXKFCdsl_11yoke_derive16replace_lifetime15ReplaceLifetimeNtNtNtCs6IAuOt8vWmF_3syn3gen4fold4Fold18fold_pat_referenceB6_, symObjAddr: 0x1BDC, symBinAddr: 0x3DBA8, symSize: 0x34 }
  - { offset: 0x8C987, size: 0x8, addend: 0x0, symName: __RNvYNtNvCs2GZpXKFCdsl_11yoke_derive16replace_lifetime15ReplaceLifetimeNtNtNtCs6IAuOt8vWmF_3syn3gen4fold4Fold18fold_trait_item_fnB6_, symObjAddr: 0x1C10, symBinAddr: 0x3DBDC, symSize: 0x34 }
  - { offset: 0x8C9CE, size: 0x8, addend: 0x0, symName: __RNvYNtNvCs2GZpXKFCdsl_11yoke_derive16replace_lifetime15ReplaceLifetimeNtNtNtCs6IAuOt8vWmF_3syn3gen4fold4Fold19fold_captured_paramB6_, symObjAddr: 0x1C44, symBinAddr: 0x3DC10, symSize: 0x34 }
  - { offset: 0x8CA12, size: 0x8, addend: 0x0, symName: __RNvYNtNvCs2GZpXKFCdsl_11yoke_derive16replace_lifetime15ReplaceLifetimeNtNtNtCs6IAuOt8vWmF_3syn3gen4fold4Fold19fold_expr_referenceB6_, symObjAddr: 0x1C78, symBinAddr: 0x3DC44, symSize: 0x34 }
  - { offset: 0x8CA59, size: 0x8, addend: 0x0, symName: __RNvYNtNvCs2GZpXKFCdsl_11yoke_derive16replace_lifetime15ReplaceLifetimeNtNtNtCs6IAuOt8vWmF_3syn3gen4fold4Fold19fold_expr_try_blockB6_, symObjAddr: 0x1CAC, symBinAddr: 0x3DC78, symSize: 0x34 }
  - { offset: 0x8CAA0, size: 0x8, addend: 0x0, symName: __RNvYNtNvCs2GZpXKFCdsl_11yoke_derive16replace_lifetime15ReplaceLifetimeNtNtNtCs6IAuOt8vWmF_3syn3gen4fold4Fold19fold_fields_unnamedB6_, symObjAddr: 0x1CE0, symBinAddr: 0x3DCAC, symSize: 0x34 }
  - { offset: 0x8CAE7, size: 0x8, addend: 0x0, symName: __RNvYNtNvCs2GZpXKFCdsl_11yoke_derive16replace_lifetime15ReplaceLifetimeNtNtNtCs6IAuOt8vWmF_3syn3gen4fold4Fold19fold_impl_item_typeB6_, symObjAddr: 0x1D14, symBinAddr: 0x3DCE0, symSize: 0x34 }
  - { offset: 0x8CB2E, size: 0x8, addend: 0x0, symName: __RNvYNtNvCs2GZpXKFCdsl_11yoke_derive16replace_lifetime15ReplaceLifetimeNtNtNtCs6IAuOt8vWmF_3syn3gen4fold4Fold19fold_lifetime_paramB6_, symObjAddr: 0x1D48, symBinAddr: 0x3DD14, symSize: 0x34 }
  - { offset: 0x8CB75, size: 0x8, addend: 0x0, symName: __RNvYNtNvCs2GZpXKFCdsl_11yoke_derive16replace_lifetime15ReplaceLifetimeNtNtNtCs6IAuOt8vWmF_3syn3gen4fold4Fold19fold_path_argumentsB6_, symObjAddr: 0x1D7C, symBinAddr: 0x3DD48, symSize: 0x34 }
  - { offset: 0x8CBBC, size: 0x8, addend: 0x0, symName: __RNvYNtNvCs2GZpXKFCdsl_11yoke_derive16replace_lifetime15ReplaceLifetimeNtNtNtCs6IAuOt8vWmF_3syn3gen4fold4Fold19fold_predicate_typeB6_, symObjAddr: 0x1DB0, symBinAddr: 0x3DD7C, symSize: 0x34 }
  - { offset: 0x8CC03, size: 0x8, addend: 0x0, symName: __RNvYNtNvCs2GZpXKFCdsl_11yoke_derive16replace_lifetime15ReplaceLifetimeNtNtNtCs6IAuOt8vWmF_3syn3gen4fold4Fold19fold_type_referenceB6_, symObjAddr: 0x1DE4, symBinAddr: 0x3DDB0, symSize: 0x34 }
  - { offset: 0x8CC4A, size: 0x8, addend: 0x0, symName: __RNvYNtNvCs2GZpXKFCdsl_11yoke_derive16replace_lifetime15ReplaceLifetimeNtNtNtCs6IAuOt8vWmF_3syn3gen4fold4Fold19fold_vis_restrictedB6_, symObjAddr: 0x1E18, symBinAddr: 0x3DDE4, symSize: 0x34 }
  - { offset: 0x8CC91, size: 0x8, addend: 0x0, symName: __RNvYNtNvCs2GZpXKFCdsl_11yoke_derive16replace_lifetime15ReplaceLifetimeNtNtNtCs6IAuOt8vWmF_3syn3gen4fold4Fold20fold_bound_lifetimesB6_, symObjAddr: 0x1E4C, symBinAddr: 0x3DE18, symSize: 0x34 }
  - { offset: 0x8CCD5, size: 0x8, addend: 0x0, symName: __RNvYNtNvCs2GZpXKFCdsl_11yoke_derive16replace_lifetime15ReplaceLifetimeNtNtNtCs6IAuOt8vWmF_3syn3gen4fold4Fold20fold_foreign_item_fnB6_, symObjAddr: 0x1E80, symBinAddr: 0x3DE4C, symSize: 0x34 }
  - { offset: 0x8CD1C, size: 0x8, addend: 0x0, symName: __RNvYNtNvCs2GZpXKFCdsl_11yoke_derive16replace_lifetime15ReplaceLifetimeNtNtNtCs6IAuOt8vWmF_3syn3gen4fold4Fold20fold_impl_item_constB6_, symObjAddr: 0x1EB4, symBinAddr: 0x3DE80, symSize: 0x34 }
  - { offset: 0x8CD63, size: 0x8, addend: 0x0, symName: __RNvYNtNvCs2GZpXKFCdsl_11yoke_derive16replace_lifetime15ReplaceLifetimeNtNtNtCs6IAuOt8vWmF_3syn3gen4fold4Fold20fold_impl_item_macroB6_, symObjAddr: 0x1EE8, symBinAddr: 0x3DEB4, symSize: 0x34 }
  - { offset: 0x8CDAA, size: 0x8, addend: 0x0, symName: __RNvYNtNvCs2GZpXKFCdsl_11yoke_derive16replace_lifetime15ReplaceLifetimeNtNtNtCs6IAuOt8vWmF_3syn3gen4fold4Fold20fold_macro_delimiterB6_, symObjAddr: 0x1F1C, symBinAddr: 0x3DEE8, symSize: 0x34 }
  - { offset: 0x8CDF1, size: 0x8, addend: 0x0, symName: __RNvYNtNvCs2GZpXKFCdsl_11yoke_derive16replace_lifetime15ReplaceLifetimeNtNtNtCs6IAuOt8vWmF_3syn3gen4fold4Fold20fold_meta_name_valueB6_, symObjAddr: 0x1F50, symBinAddr: 0x3DF1C, symSize: 0x34 }
  - { offset: 0x8CE38, size: 0x8, addend: 0x0, symName: __RNvYNtNvCs2GZpXKFCdsl_11yoke_derive16replace_lifetime15ReplaceLifetimeNtNtNtCs6IAuOt8vWmF_3syn3gen4fold4Fold20fold_precise_captureB6_, symObjAddr: 0x1F84, symBinAddr: 0x3DF50, symSize: 0x34 }
  - { offset: 0x8CE7F, size: 0x8, addend: 0x0, symName: __RNvYNtNvCs2GZpXKFCdsl_11yoke_derive16replace_lifetime15ReplaceLifetimeNtNtNtCs6IAuOt8vWmF_3syn3gen4fold4Fold20fold_trait_item_typeB6_, symObjAddr: 0x1FB8, symBinAddr: 0x3DF84, symSize: 0x34 }
  - { offset: 0x8CEC6, size: 0x8, addend: 0x0, symName: __RNvYNtNvCs2GZpXKFCdsl_11yoke_derive16replace_lifetime15ReplaceLifetimeNtNtNtCs6IAuOt8vWmF_3syn3gen4fold4Fold20fold_type_impl_traitB6_, symObjAddr: 0x1FEC, symBinAddr: 0x3DFB8, symSize: 0x34 }
  - { offset: 0x8CF0D, size: 0x8, addend: 0x0, symName: __RNvYNtNvCs2GZpXKFCdsl_11yoke_derive16replace_lifetime15ReplaceLifetimeNtNtNtCs6IAuOt8vWmF_3syn3gen4fold4Fold20fold_where_predicateB6_, symObjAddr: 0x2020, symBinAddr: 0x3DFEC, symSize: 0x34 }
  - { offset: 0x8CF54, size: 0x8, addend: 0x0, symName: __RNvYNtNvCs2GZpXKFCdsl_11yoke_derive16replace_lifetime15ReplaceLifetimeNtNtNtCs6IAuOt8vWmF_3syn3gen4fold4Fold21fold_expr_method_callB6_, symObjAddr: 0x2054, symBinAddr: 0x3E020, symSize: 0x34 }
  - { offset: 0x8CF9B, size: 0x8, addend: 0x0, symName: __RNvYNtNvCs2GZpXKFCdsl_11yoke_derive16replace_lifetime15ReplaceLifetimeNtNtNtCs6IAuOt8vWmF_3syn3gen4fold4Fold21fold_field_mutabilityB6_, symObjAddr: 0x2088, symBinAddr: 0x3E054, symSize: 0x34 }
  - { offset: 0x8CFE9, size: 0x8, addend: 0x0, symName: __RNvYNtNvCs2GZpXKFCdsl_11yoke_derive16replace_lifetime15ReplaceLifetimeNtNtNtCs6IAuOt8vWmF_3syn3gen4fold4Fold21fold_generic_argumentB6_, symObjAddr: 0x20BC, symBinAddr: 0x3E088, symSize: 0x34 }
  - { offset: 0x8D030, size: 0x8, addend: 0x0, symName: __RNvYNtNvCs2GZpXKFCdsl_11yoke_derive16replace_lifetime15ReplaceLifetimeNtNtNtCs6IAuOt8vWmF_3syn3gen4fold4Fold21fold_item_foreign_modB6_, symObjAddr: 0x2118, symBinAddr: 0x3E0BC, symSize: 0x34 }
  - { offset: 0x8D077, size: 0x8, addend: 0x0, symName: __RNvYNtNvCs2GZpXKFCdsl_11yoke_derive16replace_lifetime15ReplaceLifetimeNtNtNtCs6IAuOt8vWmF_3syn3gen4fold4Fold21fold_item_trait_aliasB6_, symObjAddr: 0x214C, symBinAddr: 0x3E0F0, symSize: 0x34 }
  - { offset: 0x8D0BE, size: 0x8, addend: 0x0, symName: __RNvYNtNvCs2GZpXKFCdsl_11yoke_derive16replace_lifetime15ReplaceLifetimeNtNtNtCs6IAuOt8vWmF_3syn3gen4fold4Fold21fold_pat_tuple_structB6_, symObjAddr: 0x2180, symBinAddr: 0x3E124, symSize: 0x34 }
  - { offset: 0x8D105, size: 0x8, addend: 0x0, symName: __RNvYNtNvCs2GZpXKFCdsl_11yoke_derive16replace_lifetime15ReplaceLifetimeNtNtNtCs6IAuOt8vWmF_3syn3gen4fold4Fold21fold_trait_item_constB6_, symObjAddr: 0x21B4, symBinAddr: 0x3E158, symSize: 0x34 }
  - { offset: 0x8D14C, size: 0x8, addend: 0x0, symName: __RNvYNtNvCs2GZpXKFCdsl_11yoke_derive16replace_lifetime15ReplaceLifetimeNtNtNtCs6IAuOt8vWmF_3syn3gen4fold4Fold21fold_trait_item_macroB6_, symObjAddr: 0x21E8, symBinAddr: 0x3E18C, symSize: 0x34 }
  - { offset: 0x8D193, size: 0x8, addend: 0x0, symName: __RNvYNtNvCs2GZpXKFCdsl_11yoke_derive16replace_lifetime15ReplaceLifetimeNtNtNtCs6IAuOt8vWmF_3syn3gen4fold4Fold21fold_type_param_boundB6_, symObjAddr: 0x221C, symBinAddr: 0x3E1C0, symSize: 0x34 }
  - { offset: 0x8D1DA, size: 0x8, addend: 0x0, symName: __RNvYNtNvCs2GZpXKFCdsl_11yoke_derive16replace_lifetime15ReplaceLifetimeNtNtNtCs6IAuOt8vWmF_3syn3gen4fold4Fold22fold_foreign_item_typeB6_, symObjAddr: 0x2250, symBinAddr: 0x3E1F4, symSize: 0x34 }
  - { offset: 0x8D221, size: 0x8, addend: 0x0, symName: __RNvYNtNvCs2GZpXKFCdsl_11yoke_derive16replace_lifetime15ReplaceLifetimeNtNtNtCs6IAuOt8vWmF_3syn3gen4fold4Fold22fold_item_extern_crateB6_, symObjAddr: 0x2284, symBinAddr: 0x3E228, symSize: 0x34 }
  - { offset: 0x8D268, size: 0x8, addend: 0x0, symName: __RNvYNtNvCs2GZpXKFCdsl_11yoke_derive16replace_lifetime15ReplaceLifetimeNtNtNtCs6IAuOt8vWmF_3syn3gen4fold4Fold22fold_static_mutabilityB6_, symObjAddr: 0x22B8, symBinAddr: 0x3E25C, symSize: 0x3C }
  - { offset: 0x8D2AE, size: 0x8, addend: 0x0, symName: __RNvYNtNvCs2GZpXKFCdsl_11yoke_derive16replace_lifetime15ReplaceLifetimeNtNtNtCs6IAuOt8vWmF_3syn3gen4fold4Fold22fold_type_trait_objectB6_, symObjAddr: 0x22F4, symBinAddr: 0x3E298, symSize: 0x34 }
  - { offset: 0x8D2F5, size: 0x8, addend: 0x0, symName: __RNvYNtNvCs2GZpXKFCdsl_11yoke_derive16replace_lifetime15ReplaceLifetimeNtNtNtCs6IAuOt8vWmF_3syn3gen4fold4Fold23fold_foreign_item_macroB6_, symObjAddr: 0x2328, symBinAddr: 0x3E2CC, symSize: 0x34 }
  - { offset: 0x8D33C, size: 0x8, addend: 0x0, symName: __RNvYNtNvCs2GZpXKFCdsl_11yoke_derive16replace_lifetime15ReplaceLifetimeNtNtNtCs6IAuOt8vWmF_3syn3gen4fold4Fold23fold_pointer_mutabilityB6_, symObjAddr: 0x235C, symBinAddr: 0x3E300, symSize: 0x3C }
  - { offset: 0x8D382, size: 0x8, addend: 0x0, symName: __RNvYNtNvCs2GZpXKFCdsl_11yoke_derive16replace_lifetime15ReplaceLifetimeNtNtNtCs6IAuOt8vWmF_3syn3gen4fold4Fold23fold_predicate_lifetimeB6_, symObjAddr: 0x2398, symBinAddr: 0x3E33C, symSize: 0x34 }
  - { offset: 0x8D3C9, size: 0x8, addend: 0x0, symName: __RNvYNtNvCs2GZpXKFCdsl_11yoke_derive16replace_lifetime15ReplaceLifetimeNtNtNtCs6IAuOt8vWmF_3syn3gen4fold4Fold24fold_foreign_item_staticB6_, symObjAddr: 0x23CC, symBinAddr: 0x3E370, symSize: 0x34 }
  - { offset: 0x8D410, size: 0x8, addend: 0x0, symName: __RNvYNtNvCs2GZpXKFCdsl_11yoke_derive16replace_lifetime15ReplaceLifetimeNtNtNtCs6IAuOt8vWmF_3syn3gen4fold4Fold25fold_trait_bound_modifierB6_, symObjAddr: 0x2400, symBinAddr: 0x3E3A4, symSize: 0x64 }
  - { offset: 0x8D456, size: 0x8, addend: 0x0, symName: __RNvYNtNvCs2GZpXKFCdsl_11yoke_derive16replace_lifetime15ReplaceLifetimeNtNtNtCs6IAuOt8vWmF_3syn3gen4fold4Fold36fold_parenthesized_generic_argumentsB6_, symObjAddr: 0x2464, symBinAddr: 0x3E408, symSize: 0x34 }
  - { offset: 0x8D49D, size: 0x8, addend: 0x0, symName: __RNvYNtNvCs2GZpXKFCdsl_11yoke_derive16replace_lifetime15ReplaceLifetimeNtNtNtCs6IAuOt8vWmF_3syn3gen4fold4Fold38fold_angle_bracketed_generic_argumentsB6_, symObjAddr: 0x2498, symBinAddr: 0x3E43C, symSize: 0x34 }
  - { offset: 0x8D4E1, size: 0x8, addend: 0x0, symName: __RNvYNtNvCs2GZpXKFCdsl_11yoke_derive16replace_lifetime15ReplaceLifetimeNtNtNtCs6IAuOt8vWmF_3syn3gen4fold4Fold8fold_abiB6_, symObjAddr: 0x24CC, symBinAddr: 0x3E470, symSize: 0x40 }
  - { offset: 0x8D524, size: 0x8, addend: 0x0, symName: __RNvYNtNvCs2GZpXKFCdsl_11yoke_derive16replace_lifetime15ReplaceLifetimeNtNtNtCs6IAuOt8vWmF_3syn3gen4fold4Fold8fold_armB6_, symObjAddr: 0x250C, symBinAddr: 0x3E4B0, symSize: 0x34 }
  - { offset: 0x8D568, size: 0x8, addend: 0x0, symName: __RNvYNtNvCs2GZpXKFCdsl_11yoke_derive16replace_lifetime15ReplaceLifetimeNtNtNtCs6IAuOt8vWmF_3syn3gen4fold4Fold8fold_litB6_, symObjAddr: 0x2540, symBinAddr: 0x3E4E4, symSize: 0x34 }
  - { offset: 0x8D5AF, size: 0x8, addend: 0x0, symName: __RNvYNtNvCs2GZpXKFCdsl_11yoke_derive16replace_lifetime15ReplaceLifetimeNtNtNtCs6IAuOt8vWmF_3syn3gen4fold4Fold8fold_patB6_, symObjAddr: 0x2574, symBinAddr: 0x3E518, symSize: 0x34 }
  - { offset: 0x8D5F6, size: 0x8, addend: 0x0, symName: __RNvYNtNvCs2GZpXKFCdsl_11yoke_derive16replace_lifetime15ReplaceLifetimeNtNtNtCs6IAuOt8vWmF_3syn3gen4fold4Fold9fold_exprB6_, symObjAddr: 0x25A8, symBinAddr: 0x3E54C, symSize: 0x34 }
  - { offset: 0x8D63A, size: 0x8, addend: 0x0, symName: __RNvYNtNvCs2GZpXKFCdsl_11yoke_derive16replace_lifetime15ReplaceLifetimeNtNtNtCs6IAuOt8vWmF_3syn3gen4fold4Fold9fold_itemB6_, symObjAddr: 0x25DC, symBinAddr: 0x3E580, symSize: 0x34 }
  - { offset: 0x8D681, size: 0x8, addend: 0x0, symName: __RNvYNtNvCs2GZpXKFCdsl_11yoke_derive16replace_lifetime15ReplaceLifetimeNtNtNtCs6IAuOt8vWmF_3syn3gen4fold4Fold9fold_metaB6_, symObjAddr: 0x2610, symBinAddr: 0x3E5B4, symSize: 0x34 }
  - { offset: 0x8D6C8, size: 0x8, addend: 0x0, symName: __RNvYNtNvCs2GZpXKFCdsl_11yoke_derive16replace_lifetime15ReplaceLifetimeNtNtNtCs6IAuOt8vWmF_3syn3gen4fold4Fold9fold_pathB6_, symObjAddr: 0x2644, symBinAddr: 0x3E5E8, symSize: 0x34 }
  - { offset: 0x8D70F, size: 0x8, addend: 0x0, symName: __RNvYNtNvCs2GZpXKFCdsl_11yoke_derive16replace_lifetime15ReplaceLifetimeNtNtNtCs6IAuOt8vWmF_3syn3gen4fold4Fold9fold_spanB6_, symObjAddr: 0x2678, symBinAddr: 0x3E61C, symSize: 0x2C }
  - { offset: 0x8D755, size: 0x8, addend: 0x0, symName: __RNvYNtNvCs2GZpXKFCdsl_11yoke_derive16replace_lifetime15ReplaceLifetimeNtNtNtCs6IAuOt8vWmF_3syn3gen4fold4Fold9fold_stmtB6_, symObjAddr: 0x26A4, symBinAddr: 0x3E648, symSize: 0x34 }
  - { offset: 0x8D79C, size: 0x8, addend: 0x0, symName: __RNvYNtNvCs2GZpXKFCdsl_11yoke_derive16replace_lifetime15ReplaceLifetimeNtNtNtCs6IAuOt8vWmF_3syn3gen4fold4Fold9fold_typeB6_, symObjAddr: 0x26D8, symBinAddr: 0x3E67C, symSize: 0x34 }
  - { offset: 0x93E83, size: 0x8, addend: 0x0, symName: __RINvMs6_NtCsloNvcHxBCre_9hashbrown3rawINtB6_8RawTableTNtCs3cP53eQoTwO_11proc_macro25IdentuEE14reserve_rehashNCINvNtB8_3map11make_hasherBQ_uNtNtNtCscOYdFFY2T5N_3std4hash6random11RandomStateE0ECs2GZpXKFCdsl_11yoke_derive, symObjAddr: 0x0, symBinAddr: 0x1D0648, symSize: 0x840 }
  - { offset: 0x93EBF, size: 0x8, addend: 0x0, symName: __RNCINvMs6_NtCsloNvcHxBCre_9hashbrown3rawINtB8_8RawTableTNtCs3cP53eQoTwO_11proc_macro25IdentuEE14reserve_rehashNCINvNtBa_3map11make_hasherBS_uNtNtNtCscOYdFFY2T5N_3std4hash6random11RandomStateE0E0Cs2GZpXKFCdsl_11yoke_derive, symObjAddr: 0x118C, symBinAddr: 0x45C30, symSize: 0xC0 }
  - { offset: 0x9407C, size: 0x8, addend: 0x0, symName: __RNCINvMs6_NtCsloNvcHxBCre_9hashbrown3rawINtB8_8RawTableTNtCs3cP53eQoTwO_11proc_macro25IdentuEE14reserve_rehashNCINvNtBa_3map11make_hasherBS_uNtNtNtCscOYdFFY2T5N_3std4hash6random11RandomStateE0Es_0Cs2GZpXKFCdsl_11yoke_derive, symObjAddr: 0x124C, symBinAddr: 0x45CF0, symSize: 0x30 }
  - { offset: 0x940D9, size: 0x8, addend: 0x0, symName: __RNCINvMs6_NtCsloNvcHxBCre_9hashbrown3rawINtB8_8RawTableTNtCs3cP53eQoTwO_11proc_macro25IdentuEE24find_or_find_insert_slotNCINvNtBa_3map14equivalent_keyBS_BS_uE0NCINvB1Z_11make_hasherBS_uNtNtNtCscOYdFFY2T5N_3std4hash6random11RandomStateE0E0Cs2GZpXKFCdsl_11yoke_derive, symObjAddr: 0x127C, symBinAddr: 0x45D20, symSize: 0xC4 }
  - { offset: 0x942AC, size: 0x8, addend: 0x0, symName: __RNCINvMs6_NtCsloNvcHxBCre_9hashbrown3rawINtB8_8RawTableTNtCs3cP53eQoTwO_11proc_macro25IdentuEE4findNCINvNtBa_3map14equivalent_keyBS_BS_uE0E0Cs2GZpXKFCdsl_11yoke_derive, symObjAddr: 0x1340, symBinAddr: 0x45DE4, symSize: 0xC4 }
  - { offset: 0x94DEA, size: 0x8, addend: 0x0, symName: __RNvXsg_NtCsloNvcHxBCre_9hashbrown3rawINtB5_8RawTableTNtCs3cP53eQoTwO_11proc_macro25IdentuEENtNtNtCsfvfooZQ3Axs_4core3ops4drop4Drop4dropCs2GZpXKFCdsl_11yoke_derive, symObjAddr: 0x260C, symBinAddr: 0x470B0, symSize: 0x3C }
  - { offset: 0x98072, size: 0x8, addend: 0x0, symName: __RINvMs6_NtCsloNvcHxBCre_9hashbrown3rawINtB6_8RawTableTNtCs3cP53eQoTwO_11proc_macro25IdentuEE14reserve_rehashNCINvNtB8_3map11make_hasherBQ_uNtNtNtCscOYdFFY2T5N_3std4hash6random11RandomStateE0ECs2GZpXKFCdsl_11yoke_derive, symObjAddr: 0x0, symBinAddr: 0x1D0648, symSize: 0x840 }
  - { offset: 0x98A62, size: 0x8, addend: 0x0, symName: __RINvMs6_NtCsloNvcHxBCre_9hashbrown3rawINtB6_8RawTableTNtCs3cP53eQoTwO_11proc_macro25IdentuEE24find_or_find_insert_slotNCINvNtB8_3map14equivalent_keyBQ_BQ_uE0NCINvB1X_11make_hasherBQ_uNtNtNtCscOYdFFY2T5N_3std4hash6random11RandomStateE0ECs2GZpXKFCdsl_11yoke_derive, symObjAddr: 0x840, symBinAddr: 0x452E4, symSize: 0x13C }
  - { offset: 0x98EDC, size: 0x8, addend: 0x0, symName: __RINvMs6_NtCsloNvcHxBCre_9hashbrown3rawINtB6_8RawTableTNtCs3cP53eQoTwO_11proc_macro25IdentuEE4findNCINvNtB8_3map14equivalent_keyBQ_BQ_uE0ECs2GZpXKFCdsl_11yoke_derive, symObjAddr: 0x97C, symBinAddr: 0x45420, symSize: 0x330 }
  - { offset: 0x99397, size: 0x8, addend: 0x0, symName: __RINvMs6_NtCsloNvcHxBCre_9hashbrown3rawINtB6_8RawTableTNtCs3cP53eQoTwO_11proc_macro25IdentuEE7reserveNCINvNtB8_3map11make_hasherBQ_uNtNtNtCscOYdFFY2T5N_3std4hash6random11RandomStateE0ECs2GZpXKFCdsl_11yoke_derive, symObjAddr: 0xCAC, symBinAddr: 0x45750, symSize: 0xCC }
  - { offset: 0x9957B, size: 0x8, addend: 0x0, symName: __RINvMsa_NtCsloNvcHxBCre_9hashbrown3rawNtB6_13RawTableInner13drop_elementsTNtCs3cP53eQoTwO_11proc_macro25IdentuEECs2GZpXKFCdsl_11yoke_derive, symObjAddr: 0xD78, symBinAddr: 0x4581C, symSize: 0x174 }
  - { offset: 0x998E8, size: 0x8, addend: 0x0, symName: __RINvMsa_NtCsloNvcHxBCre_9hashbrown3rawNtB6_13RawTableInner16drop_inner_tableTNtCs3cP53eQoTwO_11proc_macro25IdentuENtNtCse1nGBsou5OW_5alloc5alloc6GlobalECs2GZpXKFCdsl_11yoke_derive, symObjAddr: 0xEEC, symBinAddr: 0x45990, symSize: 0xBC }
  - { offset: 0x99BCE, size: 0x8, addend: 0x0, symName: __RINvMsi_NtCsloNvcHxBCre_9hashbrown3rawINtB6_12RawIterRangeTNtCs3cP53eQoTwO_11proc_macro25IdentuEE9next_implKb0_ECs2GZpXKFCdsl_11yoke_derive, symObjAddr: 0xFA8, symBinAddr: 0x45A4C, symSize: 0x1E4 }
  - { offset: 0x9A2DC, size: 0x8, addend: 0x0, symName: __RNvMs1_NtCsloNvcHxBCre_9hashbrown3rawNtB5_11TableLayout20calculate_layout_forCs2GZpXKFCdsl_11yoke_derive, symObjAddr: 0x1404, symBinAddr: 0x45EA8, symSize: 0x210 }
  - { offset: 0x9A769, size: 0x8, addend: 0x0, symName: __RNvMs6_NtCsloNvcHxBCre_9hashbrown3rawINtB5_8RawTableTNtCs3cP53eQoTwO_11proc_macro25IdentuEE14insert_in_slotCs2GZpXKFCdsl_11yoke_derive, symObjAddr: 0x1614, symBinAddr: 0x460B8, symSize: 0x138 }
  - { offset: 0x9AC1F, size: 0x8, addend: 0x0, symName: __RNvMsa_NtCsloNvcHxBCre_9hashbrown3rawNtB5_13RawTableInner15fix_insert_slotCs2GZpXKFCdsl_11yoke_derive, symObjAddr: 0x174C, symBinAddr: 0x461F0, symSize: 0x128 }
  - { offset: 0x9AFB7, size: 0x8, addend: 0x0, symName: __RNvMsa_NtCsloNvcHxBCre_9hashbrown3rawNtB5_13RawTableInner15rehash_in_placeCs2GZpXKFCdsl_11yoke_derive, symObjAddr: 0x1874, symBinAddr: 0x46318, symSize: 0x4E8 }
  - { offset: 0x9B7C1, size: 0x8, addend: 0x0, symName: __RNvMsa_NtCsloNvcHxBCre_9hashbrown3rawNtB5_13RawTableInner16find_insert_slotCs2GZpXKFCdsl_11yoke_derive, symObjAddr: 0x1D5C, symBinAddr: 0x46800, symSize: 0x10C }
  - { offset: 0x9B9B2, size: 0x8, addend: 0x0, symName: __RNvMsa_NtCsloNvcHxBCre_9hashbrown3rawNtB5_13RawTableInner19prepare_insert_slotCs2GZpXKFCdsl_11yoke_derive, symObjAddr: 0x1E68, symBinAddr: 0x4690C, symSize: 0x74 }
  - { offset: 0x9BCA4, size: 0x8, addend: 0x0, symName: __RNvMsa_NtCsloNvcHxBCre_9hashbrown3rawNtB5_13RawTableInner23prepare_rehash_in_placeCs2GZpXKFCdsl_11yoke_derive, symObjAddr: 0x1EDC, symBinAddr: 0x46980, symSize: 0x254 }
  - { offset: 0x9C3A0, size: 0x8, addend: 0x0, symName: __RNvMsa_NtCsloNvcHxBCre_9hashbrown3rawNtB5_13RawTableInner25find_insert_slot_in_groupCs2GZpXKFCdsl_11yoke_derive, symObjAddr: 0x2130, symBinAddr: 0x46BD4, symSize: 0x160 }
  - { offset: 0x9C669, size: 0x8, addend: 0x0, symName: __RNvMsa_NtCsloNvcHxBCre_9hashbrown3rawNtB5_13RawTableInner30find_or_find_insert_slot_innerCs2GZpXKFCdsl_11yoke_derive, symObjAddr: 0x2290, symBinAddr: 0x46D34, symSize: 0x2BC }
  - { offset: 0x9CA64, size: 0x8, addend: 0x0, symName: __RNvMsi_NtCsloNvcHxBCre_9hashbrown3rawINtB5_12RawIterRangeTNtCs3cP53eQoTwO_11proc_macro25IdentuEE3newCs2GZpXKFCdsl_11yoke_derive, symObjAddr: 0x254C, symBinAddr: 0x46FF0, symSize: 0xC0 }
  - { offset: 0x9CCDE, size: 0x8, addend: 0x0, symName: __RNvMNtNtCse1nGBsou5OW_5alloc3vec13in_place_dropINtB2_11InPlaceDropNtNtCs6IAuOt8vWmF_3syn4attr9AttributeE3lenCs2GZpXKFCdsl_11yoke_derive, symObjAddr: 0x0, symBinAddr: 0x470EC, symSize: 0x7C }
  - { offset: 0xA6F34, size: 0x8, addend: 0x0, symName: __RNvXs0_NtNtCse1nGBsou5OW_5alloc3vec13in_place_dropINtB5_24InPlaceDstDataSrcBufDropNtNtCs6IAuOt8vWmF_3syn4attr9AttributeB1i_ENtNtNtCsfvfooZQ3Axs_4core3ops4drop4Drop4dropCs2GZpXKFCdsl_11yoke_derive, symObjAddr: 0xC1C, symBinAddr: 0x47D08, symSize: 0xB8 }
  - { offset: 0xA707A, size: 0x8, addend: 0x0, symName: __RNvXs0_NtNtCse1nGBsou5OW_5alloc3vec13in_place_dropINtB5_24InPlaceDstDataSrcBufDropNtNtCs6IAuOt8vWmF_3syn4expr3ArmB1i_ENtNtNtCsfvfooZQ3Axs_4core3ops4drop4Drop4dropCs2GZpXKFCdsl_11yoke_derive, symObjAddr: 0xCD4, symBinAddr: 0x47DC0, symSize: 0xB8 }
  - { offset: 0xA71C0, size: 0x8, addend: 0x0, symName: __RNvXs0_NtNtCse1nGBsou5OW_5alloc3vec13in_place_dropINtB5_24InPlaceDstDataSrcBufDropNtNtCs6IAuOt8vWmF_3syn4item11ForeignItemB1i_ENtNtNtCsfvfooZQ3Axs_4core3ops4drop4Drop4dropCs2GZpXKFCdsl_11yoke_derive, symObjAddr: 0xD8C, symBinAddr: 0x47E78, symSize: 0xB8 }
  - { offset: 0xA7306, size: 0x8, addend: 0x0, symName: __RNvXs0_NtNtCse1nGBsou5OW_5alloc3vec13in_place_dropINtB5_24InPlaceDstDataSrcBufDropNtNtCs6IAuOt8vWmF_3syn4item4ItemB1i_ENtNtNtCsfvfooZQ3Axs_4core3ops4drop4Drop4dropCs2GZpXKFCdsl_11yoke_derive, symObjAddr: 0xE44, symBinAddr: 0x47F30, symSize: 0xB8 }
  - { offset: 0xA744C, size: 0x8, addend: 0x0, symName: __RNvXs0_NtNtCse1nGBsou5OW_5alloc3vec13in_place_dropINtB5_24InPlaceDstDataSrcBufDropNtNtCs6IAuOt8vWmF_3syn4item8ImplItemB1i_ENtNtNtCsfvfooZQ3Axs_4core3ops4drop4Drop4dropCs2GZpXKFCdsl_11yoke_derive, symObjAddr: 0xEFC, symBinAddr: 0x47FE8, symSize: 0xB8 }
  - { offset: 0xA7592, size: 0x8, addend: 0x0, symName: __RNvXs0_NtNtCse1nGBsou5OW_5alloc3vec13in_place_dropINtB5_24InPlaceDstDataSrcBufDropNtNtCs6IAuOt8vWmF_3syn4item9TraitItemB1i_ENtNtNtCsfvfooZQ3Axs_4core3ops4drop4Drop4dropCs2GZpXKFCdsl_11yoke_derive, symObjAddr: 0xFB4, symBinAddr: 0x480A0, symSize: 0xB8 }
  - { offset: 0xA76D8, size: 0x8, addend: 0x0, symName: __RNvXs0_NtNtCse1nGBsou5OW_5alloc3vec13in_place_dropINtB5_24InPlaceDstDataSrcBufDropNtNtCs6IAuOt8vWmF_3syn4stmt4StmtB1i_ENtNtNtCsfvfooZQ3Axs_4core3ops4drop4Drop4dropCs2GZpXKFCdsl_11yoke_derive, symObjAddr: 0x106C, symBinAddr: 0x48158, symSize: 0xB8 }
  - { offset: 0xA781E, size: 0x8, addend: 0x0, symName: __RNvXs0_NtNtCse1nGBsou5OW_5alloc3vec13in_place_dropINtB5_24InPlaceDstDataSrcBufDropTNtNtCs6IAuOt8vWmF_3syn2ty4TypeNtNtB1n_5token5CommaEB1i_ENtNtNtCsfvfooZQ3Axs_4core3ops4drop4Drop4dropCs2GZpXKFCdsl_11yoke_derive, symObjAddr: 0x1124, symBinAddr: 0x48210, symSize: 0xB8 }
  - { offset: 0xA7964, size: 0x8, addend: 0x0, symName: __RNvXs0_NtNtCse1nGBsou5OW_5alloc3vec13in_place_dropINtB5_24InPlaceDstDataSrcBufDropTNtNtCs6IAuOt8vWmF_3syn2ty9BareFnArgNtNtB1n_5token5CommaEB1i_ENtNtNtCsfvfooZQ3Axs_4core3ops4drop4Drop4dropCs2GZpXKFCdsl_11yoke_derive, symObjAddr: 0x11DC, symBinAddr: 0x482C8, symSize: 0xB8 }
  - { offset: 0xA7AAA, size: 0x8, addend: 0x0, symName: __RNvXs0_NtNtCse1nGBsou5OW_5alloc3vec13in_place_dropINtB5_24InPlaceDstDataSrcBufDropTNtNtCs6IAuOt8vWmF_3syn3pat3PatNtNtB1n_5token2OrEB1i_ENtNtNtCsfvfooZQ3Axs_4core3ops4drop4Drop4dropCs2GZpXKFCdsl_11yoke_derive, symObjAddr: 0x1294, symBinAddr: 0x48380, symSize: 0xB8 }
  - { offset: 0xA7BF0, size: 0x8, addend: 0x0, symName: __RNvXs0_NtNtCse1nGBsou5OW_5alloc3vec13in_place_dropINtB5_24InPlaceDstDataSrcBufDropTNtNtCs6IAuOt8vWmF_3syn3pat3PatNtNtB1n_5token5CommaEB1i_ENtNtNtCsfvfooZQ3Axs_4core3ops4drop4Drop4dropCs2GZpXKFCdsl_11yoke_derive, symObjAddr: 0x134C, symBinAddr: 0x48438, symSize: 0xB8 }
  - { offset: 0xA7D36, size: 0x8, addend: 0x0, symName: __RNvXs0_NtNtCse1nGBsou5OW_5alloc3vec13in_place_dropINtB5_24InPlaceDstDataSrcBufDropTNtNtCs6IAuOt8vWmF_3syn3pat8FieldPatNtNtB1n_5token5CommaEB1i_ENtNtNtCsfvfooZQ3Axs_4core3ops4drop4Drop4dropCs2GZpXKFCdsl_11yoke_derive, symObjAddr: 0x1404, symBinAddr: 0x484F0, symSize: 0xB8 }
  - { offset: 0xA7E7C, size: 0x8, addend: 0x0, symName: __RNvXs0_NtNtCse1nGBsou5OW_5alloc3vec13in_place_dropINtB5_24InPlaceDstDataSrcBufDropTNtNtCs6IAuOt8vWmF_3syn4data5FieldNtNtB1n_5token5CommaEB1i_ENtNtNtCsfvfooZQ3Axs_4core3ops4drop4Drop4dropCs2GZpXKFCdsl_11yoke_derive, symObjAddr: 0x14BC, symBinAddr: 0x485A8, symSize: 0xB8 }
  - { offset: 0xA7FC2, size: 0x8, addend: 0x0, symName: __RNvXs0_NtNtCse1nGBsou5OW_5alloc3vec13in_place_dropINtB5_24InPlaceDstDataSrcBufDropTNtNtCs6IAuOt8vWmF_3syn4data7VariantNtNtB1n_5token5CommaEB1i_ENtNtNtCsfvfooZQ3Axs_4core3ops4drop4Drop4dropCs2GZpXKFCdsl_11yoke_derive, symObjAddr: 0x1574, symBinAddr: 0x48660, symSize: 0xB8 }
  - { offset: 0xA8108, size: 0x8, addend: 0x0, symName: __RNvXs0_NtNtCse1nGBsou5OW_5alloc3vec13in_place_dropINtB5_24InPlaceDstDataSrcBufDropTNtNtCs6IAuOt8vWmF_3syn4expr10FieldValueNtNtB1n_5token5CommaEB1i_ENtNtNtCsfvfooZQ3Axs_4core3ops4drop4Drop4dropCs2GZpXKFCdsl_11yoke_derive, symObjAddr: 0x162C, symBinAddr: 0x48718, symSize: 0xB8 }
  - { offset: 0xA824E, size: 0x8, addend: 0x0, symName: __RNvXs0_NtNtCse1nGBsou5OW_5alloc3vec13in_place_dropINtB5_24InPlaceDstDataSrcBufDropTNtNtCs6IAuOt8vWmF_3syn4expr4ExprNtNtB1n_5token5CommaEB1i_ENtNtNtCsfvfooZQ3Axs_4core3ops4drop4Drop4dropCs2GZpXKFCdsl_11yoke_derive, symObjAddr: 0x16E4, symBinAddr: 0x487D0, symSize: 0xB8 }
  - { offset: 0xA8394, size: 0x8, addend: 0x0, symName: __RNvXs0_NtNtCse1nGBsou5OW_5alloc3vec13in_place_dropINtB5_24InPlaceDstDataSrcBufDropTNtNtCs6IAuOt8vWmF_3syn4item5FnArgNtNtB1n_5token5CommaEB1i_ENtNtNtCsfvfooZQ3Axs_4core3ops4drop4Drop4dropCs2GZpXKFCdsl_11yoke_derive, symObjAddr: 0x179C, symBinAddr: 0x48888, symSize: 0xB8 }
  - { offset: 0xA84DA, size: 0x8, addend: 0x0, symName: __RNvXs0_NtNtCse1nGBsou5OW_5alloc3vec13in_place_dropINtB5_24InPlaceDstDataSrcBufDropTNtNtCs6IAuOt8vWmF_3syn4item7UseTreeNtNtB1n_5token5CommaEB1i_ENtNtNtCsfvfooZQ3Axs_4core3ops4drop4Drop4dropCs2GZpXKFCdsl_11yoke_derive, symObjAddr: 0x1854, symBinAddr: 0x48940, symSize: 0xB8 }
  - { offset: 0xA8620, size: 0x8, addend: 0x0, symName: __RNvXs0_NtNtCse1nGBsou5OW_5alloc3vec13in_place_dropINtB5_24InPlaceDstDataSrcBufDropTNtNtCs6IAuOt8vWmF_3syn4path11PathSegmentNtNtB1n_5token7PathSepEB1i_ENtNtNtCsfvfooZQ3Axs_4core3ops4drop4Drop4dropCs2GZpXKFCdsl_11yoke_derive, symObjAddr: 0x190C, symBinAddr: 0x489F8, symSize: 0xB8 }
  - { offset: 0xA8766, size: 0x8, addend: 0x0, symName: __RNvXs0_NtNtCse1nGBsou5OW_5alloc3vec13in_place_dropINtB5_24InPlaceDstDataSrcBufDropTNtNtCs6IAuOt8vWmF_3syn4path15GenericArgumentNtNtB1n_5token5CommaEB1i_ENtNtNtCsfvfooZQ3Axs_4core3ops4drop4Drop4dropCs2GZpXKFCdsl_11yoke_derive, symObjAddr: 0x19C4, symBinAddr: 0x48AB0, symSize: 0xB8 }
  - { offset: 0xA88AC, size: 0x8, addend: 0x0, symName: __RNvXs0_NtNtCse1nGBsou5OW_5alloc3vec13in_place_dropINtB5_24InPlaceDstDataSrcBufDropTNtNtCs6IAuOt8vWmF_3syn8generics12GenericParamNtNtB1n_5token5CommaEB1i_ENtNtNtCsfvfooZQ3Axs_4core3ops4drop4Drop4dropCs2GZpXKFCdsl_11yoke_derive, symObjAddr: 0x1A7C, symBinAddr: 0x48B68, symSize: 0xB8 }
  - { offset: 0xA89F2, size: 0x8, addend: 0x0, symName: __RNvXs0_NtNtCse1nGBsou5OW_5alloc3vec13in_place_dropINtB5_24InPlaceDstDataSrcBufDropTNtNtCs6IAuOt8vWmF_3syn8generics13CapturedParamNtNtB1n_5token5CommaEB1i_ENtNtNtCsfvfooZQ3Axs_4core3ops4drop4Drop4dropCs2GZpXKFCdsl_11yoke_derive, symObjAddr: 0x1B34, symBinAddr: 0x48C20, symSize: 0xB8 }
  - { offset: 0xA8B38, size: 0x8, addend: 0x0, symName: __RNvXs0_NtNtCse1nGBsou5OW_5alloc3vec13in_place_dropINtB5_24InPlaceDstDataSrcBufDropTNtNtCs6IAuOt8vWmF_3syn8generics14TypeParamBoundNtNtB1n_5token4PlusEB1i_ENtNtNtCsfvfooZQ3Axs_4core3ops4drop4Drop4dropCs2GZpXKFCdsl_11yoke_derive, symObjAddr: 0x1BEC, symBinAddr: 0x48CD8, symSize: 0xB8 }
  - { offset: 0xA8C7E, size: 0x8, addend: 0x0, symName: __RNvXs0_NtNtCse1nGBsou5OW_5alloc3vec13in_place_dropINtB5_24InPlaceDstDataSrcBufDropTNtNtCs6IAuOt8vWmF_3syn8generics14WherePredicateNtNtB1n_5token5CommaEB1i_ENtNtNtCsfvfooZQ3Axs_4core3ops4drop4Drop4dropCs2GZpXKFCdsl_11yoke_derive, symObjAddr: 0x1CA4, symBinAddr: 0x48D90, symSize: 0xB8 }
  - { offset: 0xA8DC4, size: 0x8, addend: 0x0, symName: __RNvXs0_NtNtCse1nGBsou5OW_5alloc3vec13in_place_dropINtB5_24InPlaceDstDataSrcBufDropTNtNtCs6IAuOt8vWmF_3syn8lifetime8LifetimeNtNtB1n_5token4PlusEB1i_ENtNtNtCsfvfooZQ3Axs_4core3ops4drop4Drop4dropCs2GZpXKFCdsl_11yoke_derive, symObjAddr: 0x1D5C, symBinAddr: 0x48E48, symSize: 0xB8 }
  - { offset: 0xA8F10, size: 0x8, addend: 0x0, symName: __RNvXs_NtNtCse1nGBsou5OW_5alloc3vec13in_place_dropINtB4_11InPlaceDropNtNtCs6IAuOt8vWmF_3syn4attr9AttributeENtNtNtCsfvfooZQ3Axs_4core3ops4drop4Drop4dropCs2GZpXKFCdsl_11yoke_derive, symObjAddr: 0x1E14, symBinAddr: 0x48F00, symSize: 0x68 }
  - { offset: 0xA8F66, size: 0x8, addend: 0x0, symName: __RNvXs_NtNtCse1nGBsou5OW_5alloc3vec13in_place_dropINtB4_11InPlaceDropNtNtCs6IAuOt8vWmF_3syn4expr3ArmENtNtNtCsfvfooZQ3Axs_4core3ops4drop4Drop4dropCs2GZpXKFCdsl_11yoke_derive, symObjAddr: 0x1E7C, symBinAddr: 0x48F68, symSize: 0x68 }
  - { offset: 0xA8FBC, size: 0x8, addend: 0x0, symName: __RNvXs_NtNtCse1nGBsou5OW_5alloc3vec13in_place_dropINtB4_11InPlaceDropNtNtCs6IAuOt8vWmF_3syn4item11ForeignItemENtNtNtCsfvfooZQ3Axs_4core3ops4drop4Drop4dropCs2GZpXKFCdsl_11yoke_derive, symObjAddr: 0x1EE4, symBinAddr: 0x48FD0, symSize: 0x68 }
  - { offset: 0xA9012, size: 0x8, addend: 0x0, symName: __RNvXs_NtNtCse1nGBsou5OW_5alloc3vec13in_place_dropINtB4_11InPlaceDropNtNtCs6IAuOt8vWmF_3syn4item4ItemENtNtNtCsfvfooZQ3Axs_4core3ops4drop4Drop4dropCs2GZpXKFCdsl_11yoke_derive, symObjAddr: 0x1F4C, symBinAddr: 0x49038, symSize: 0x68 }
  - { offset: 0xA9068, size: 0x8, addend: 0x0, symName: __RNvXs_NtNtCse1nGBsou5OW_5alloc3vec13in_place_dropINtB4_11InPlaceDropNtNtCs6IAuOt8vWmF_3syn4item8ImplItemENtNtNtCsfvfooZQ3Axs_4core3ops4drop4Drop4dropCs2GZpXKFCdsl_11yoke_derive, symObjAddr: 0x1FB4, symBinAddr: 0x490A0, symSize: 0x68 }
  - { offset: 0xA90BE, size: 0x8, addend: 0x0, symName: __RNvXs_NtNtCse1nGBsou5OW_5alloc3vec13in_place_dropINtB4_11InPlaceDropNtNtCs6IAuOt8vWmF_3syn4item9TraitItemENtNtNtCsfvfooZQ3Axs_4core3ops4drop4Drop4dropCs2GZpXKFCdsl_11yoke_derive, symObjAddr: 0x201C, symBinAddr: 0x49108, symSize: 0x68 }
  - { offset: 0xA9114, size: 0x8, addend: 0x0, symName: __RNvXs_NtNtCse1nGBsou5OW_5alloc3vec13in_place_dropINtB4_11InPlaceDropNtNtCs6IAuOt8vWmF_3syn4stmt4StmtENtNtNtCsfvfooZQ3Axs_4core3ops4drop4Drop4dropCs2GZpXKFCdsl_11yoke_derive, symObjAddr: 0x2084, symBinAddr: 0x49170, symSize: 0x68 }
  - { offset: 0xA916A, size: 0x8, addend: 0x0, symName: __RNvXs_NtNtCse1nGBsou5OW_5alloc3vec13in_place_dropINtB4_11InPlaceDropTNtNtCs6IAuOt8vWmF_3syn2ty4TypeNtNtB19_5token5CommaEENtNtNtCsfvfooZQ3Axs_4core3ops4drop4Drop4dropCs2GZpXKFCdsl_11yoke_derive, symObjAddr: 0x20EC, symBinAddr: 0x491D8, symSize: 0x68 }
  - { offset: 0xA91C0, size: 0x8, addend: 0x0, symName: __RNvXs_NtNtCse1nGBsou5OW_5alloc3vec13in_place_dropINtB4_11InPlaceDropTNtNtCs6IAuOt8vWmF_3syn2ty9BareFnArgNtNtB19_5token5CommaEENtNtNtCsfvfooZQ3Axs_4core3ops4drop4Drop4dropCs2GZpXKFCdsl_11yoke_derive, symObjAddr: 0x2154, symBinAddr: 0x49240, symSize: 0x68 }
  - { offset: 0xA9216, size: 0x8, addend: 0x0, symName: __RNvXs_NtNtCse1nGBsou5OW_5alloc3vec13in_place_dropINtB4_11InPlaceDropTNtNtCs6IAuOt8vWmF_3syn3pat3PatNtNtB19_5token2OrEENtNtNtCsfvfooZQ3Axs_4core3ops4drop4Drop4dropCs2GZpXKFCdsl_11yoke_derive, symObjAddr: 0x21BC, symBinAddr: 0x492A8, symSize: 0x68 }
  - { offset: 0xA926C, size: 0x8, addend: 0x0, symName: __RNvXs_NtNtCse1nGBsou5OW_5alloc3vec13in_place_dropINtB4_11InPlaceDropTNtNtCs6IAuOt8vWmF_3syn3pat3PatNtNtB19_5token5CommaEENtNtNtCsfvfooZQ3Axs_4core3ops4drop4Drop4dropCs2GZpXKFCdsl_11yoke_derive, symObjAddr: 0x2224, symBinAddr: 0x49310, symSize: 0x68 }
  - { offset: 0xA92C2, size: 0x8, addend: 0x0, symName: __RNvXs_NtNtCse1nGBsou5OW_5alloc3vec13in_place_dropINtB4_11InPlaceDropTNtNtCs6IAuOt8vWmF_3syn3pat8FieldPatNtNtB19_5token5CommaEENtNtNtCsfvfooZQ3Axs_4core3ops4drop4Drop4dropCs2GZpXKFCdsl_11yoke_derive, symObjAddr: 0x228C, symBinAddr: 0x49378, symSize: 0x68 }
  - { offset: 0xA9318, size: 0x8, addend: 0x0, symName: __RNvXs_NtNtCse1nGBsou5OW_5alloc3vec13in_place_dropINtB4_11InPlaceDropTNtNtCs6IAuOt8vWmF_3syn4data5FieldNtNtB19_5token5CommaEENtNtNtCsfvfooZQ3Axs_4core3ops4drop4Drop4dropCs2GZpXKFCdsl_11yoke_derive, symObjAddr: 0x22F4, symBinAddr: 0x493E0, symSize: 0x68 }
  - { offset: 0xA936E, size: 0x8, addend: 0x0, symName: __RNvXs_NtNtCse1nGBsou5OW_5alloc3vec13in_place_dropINtB4_11InPlaceDropTNtNtCs6IAuOt8vWmF_3syn4data7VariantNtNtB19_5token5CommaEENtNtNtCsfvfooZQ3Axs_4core3ops4drop4Drop4dropCs2GZpXKFCdsl_11yoke_derive, symObjAddr: 0x235C, symBinAddr: 0x49448, symSize: 0x68 }
  - { offset: 0xA93C4, size: 0x8, addend: 0x0, symName: __RNvXs_NtNtCse1nGBsou5OW_5alloc3vec13in_place_dropINtB4_11InPlaceDropTNtNtCs6IAuOt8vWmF_3syn4expr10FieldValueNtNtB19_5token5CommaEENtNtNtCsfvfooZQ3Axs_4core3ops4drop4Drop4dropCs2GZpXKFCdsl_11yoke_derive, symObjAddr: 0x23C4, symBinAddr: 0x494B0, symSize: 0x68 }
  - { offset: 0xA941A, size: 0x8, addend: 0x0, symName: __RNvXs_NtNtCse1nGBsou5OW_5alloc3vec13in_place_dropINtB4_11InPlaceDropTNtNtCs6IAuOt8vWmF_3syn4expr4ExprNtNtB19_5token5CommaEENtNtNtCsfvfooZQ3Axs_4core3ops4drop4Drop4dropCs2GZpXKFCdsl_11yoke_derive, symObjAddr: 0x242C, symBinAddr: 0x49518, symSize: 0x68 }
  - { offset: 0xA9470, size: 0x8, addend: 0x0, symName: __RNvXs_NtNtCse1nGBsou5OW_5alloc3vec13in_place_dropINtB4_11InPlaceDropTNtNtCs6IAuOt8vWmF_3syn4item5FnArgNtNtB19_5token5CommaEENtNtNtCsfvfooZQ3Axs_4core3ops4drop4Drop4dropCs2GZpXKFCdsl_11yoke_derive, symObjAddr: 0x2494, symBinAddr: 0x49580, symSize: 0x68 }
  - { offset: 0xA94C6, size: 0x8, addend: 0x0, symName: __RNvXs_NtNtCse1nGBsou5OW_5alloc3vec13in_place_dropINtB4_11InPlaceDropTNtNtCs6IAuOt8vWmF_3syn4item7UseTreeNtNtB19_5token5CommaEENtNtNtCsfvfooZQ3Axs_4core3ops4drop4Drop4dropCs2GZpXKFCdsl_11yoke_derive, symObjAddr: 0x24FC, symBinAddr: 0x495E8, symSize: 0x68 }
  - { offset: 0xA951C, size: 0x8, addend: 0x0, symName: __RNvXs_NtNtCse1nGBsou5OW_5alloc3vec13in_place_dropINtB4_11InPlaceDropTNtNtCs6IAuOt8vWmF_3syn4path11PathSegmentNtNtB19_5token7PathSepEENtNtNtCsfvfooZQ3Axs_4core3ops4drop4Drop4dropCs2GZpXKFCdsl_11yoke_derive, symObjAddr: 0x2564, symBinAddr: 0x49650, symSize: 0x68 }
  - { offset: 0xA9572, size: 0x8, addend: 0x0, symName: __RNvXs_NtNtCse1nGBsou5OW_5alloc3vec13in_place_dropINtB4_11InPlaceDropTNtNtCs6IAuOt8vWmF_3syn4path15GenericArgumentNtNtB19_5token5CommaEENtNtNtCsfvfooZQ3Axs_4core3ops4drop4Drop4dropCs2GZpXKFCdsl_11yoke_derive, symObjAddr: 0x25CC, symBinAddr: 0x496B8, symSize: 0x68 }
  - { offset: 0xA95C8, size: 0x8, addend: 0x0, symName: __RNvXs_NtNtCse1nGBsou5OW_5alloc3vec13in_place_dropINtB4_11InPlaceDropTNtNtCs6IAuOt8vWmF_3syn8generics12GenericParamNtNtB19_5token5CommaEENtNtNtCsfvfooZQ3Axs_4core3ops4drop4Drop4dropCs2GZpXKFCdsl_11yoke_derive, symObjAddr: 0x2634, symBinAddr: 0x49720, symSize: 0x68 }
  - { offset: 0xA961E, size: 0x8, addend: 0x0, symName: __RNvXs_NtNtCse1nGBsou5OW_5alloc3vec13in_place_dropINtB4_11InPlaceDropTNtNtCs6IAuOt8vWmF_3syn8generics13CapturedParamNtNtB19_5token5CommaEENtNtNtCsfvfooZQ3Axs_4core3ops4drop4Drop4dropCs2GZpXKFCdsl_11yoke_derive, symObjAddr: 0x269C, symBinAddr: 0x49788, symSize: 0x68 }
  - { offset: 0xA9674, size: 0x8, addend: 0x0, symName: __RNvXs_NtNtCse1nGBsou5OW_5alloc3vec13in_place_dropINtB4_11InPlaceDropTNtNtCs6IAuOt8vWmF_3syn8generics14TypeParamBoundNtNtB19_5token4PlusEENtNtNtCsfvfooZQ3Axs_4core3ops4drop4Drop4dropCs2GZpXKFCdsl_11yoke_derive, symObjAddr: 0x2704, symBinAddr: 0x497F0, symSize: 0x68 }
  - { offset: 0xA96CA, size: 0x8, addend: 0x0, symName: __RNvXs_NtNtCse1nGBsou5OW_5alloc3vec13in_place_dropINtB4_11InPlaceDropTNtNtCs6IAuOt8vWmF_3syn8generics14WherePredicateNtNtB19_5token5CommaEENtNtNtCsfvfooZQ3Axs_4core3ops4drop4Drop4dropCs2GZpXKFCdsl_11yoke_derive, symObjAddr: 0x276C, symBinAddr: 0x49858, symSize: 0x68 }
  - { offset: 0xA9720, size: 0x8, addend: 0x0, symName: __RNvXs_NtNtCse1nGBsou5OW_5alloc3vec13in_place_dropINtB4_11InPlaceDropTNtNtCs6IAuOt8vWmF_3syn8lifetime8LifetimeNtNtB19_5token4PlusEENtNtNtCsfvfooZQ3Axs_4core3ops4drop4Drop4dropCs2GZpXKFCdsl_11yoke_derive, symObjAddr: 0x27D4, symBinAddr: 0x498C0, symSize: 0x68 }
  - { offset: 0xAB284, size: 0x8, addend: 0x0, symName: __RNvMNtNtCse1nGBsou5OW_5alloc3vec13in_place_dropINtB2_11InPlaceDropNtNtCs6IAuOt8vWmF_3syn4attr9AttributeE3lenCs2GZpXKFCdsl_11yoke_derive, symObjAddr: 0x0, symBinAddr: 0x470EC, symSize: 0x7C }
  - { offset: 0xAB34C, size: 0x8, addend: 0x0, symName: __RNvMNtNtCse1nGBsou5OW_5alloc3vec13in_place_dropINtB2_11InPlaceDropNtNtCs6IAuOt8vWmF_3syn4expr3ArmE3lenCs2GZpXKFCdsl_11yoke_derive, symObjAddr: 0x7C, symBinAddr: 0x47168, symSize: 0x7C }
  - { offset: 0xAB414, size: 0x8, addend: 0x0, symName: __RNvMNtNtCse1nGBsou5OW_5alloc3vec13in_place_dropINtB2_11InPlaceDropNtNtCs6IAuOt8vWmF_3syn4item11ForeignItemE3lenCs2GZpXKFCdsl_11yoke_derive, symObjAddr: 0xF8, symBinAddr: 0x471E4, symSize: 0x7C }
  - { offset: 0xAB4DC, size: 0x8, addend: 0x0, symName: __RNvMNtNtCse1nGBsou5OW_5alloc3vec13in_place_dropINtB2_11InPlaceDropNtNtCs6IAuOt8vWmF_3syn4item4ItemE3lenCs2GZpXKFCdsl_11yoke_derive, symObjAddr: 0x174, symBinAddr: 0x47260, symSize: 0x7C }
  - { offset: 0xAB5A4, size: 0x8, addend: 0x0, symName: __RNvMNtNtCse1nGBsou5OW_5alloc3vec13in_place_dropINtB2_11InPlaceDropNtNtCs6IAuOt8vWmF_3syn4item8ImplItemE3lenCs2GZpXKFCdsl_11yoke_derive, symObjAddr: 0x1F0, symBinAddr: 0x472DC, symSize: 0x7C }
  - { offset: 0xAB66C, size: 0x8, addend: 0x0, symName: __RNvMNtNtCse1nGBsou5OW_5alloc3vec13in_place_dropINtB2_11InPlaceDropNtNtCs6IAuOt8vWmF_3syn4item9TraitItemE3lenCs2GZpXKFCdsl_11yoke_derive, symObjAddr: 0x26C, symBinAddr: 0x47358, symSize: 0x7C }
  - { offset: 0xAB734, size: 0x8, addend: 0x0, symName: __RNvMNtNtCse1nGBsou5OW_5alloc3vec13in_place_dropINtB2_11InPlaceDropNtNtCs6IAuOt8vWmF_3syn4stmt4StmtE3lenCs2GZpXKFCdsl_11yoke_derive, symObjAddr: 0x2E8, symBinAddr: 0x473D4, symSize: 0x7C }
  - { offset: 0xAB7FC, size: 0x8, addend: 0x0, symName: __RNvMNtNtCse1nGBsou5OW_5alloc3vec13in_place_dropINtB2_11InPlaceDropTNtNtCs6IAuOt8vWmF_3syn2ty4TypeNtNtB17_5token5CommaEE3lenCs2GZpXKFCdsl_11yoke_derive, symObjAddr: 0x364, symBinAddr: 0x47450, symSize: 0x7C }
  - { offset: 0xAB8C4, size: 0x8, addend: 0x0, symName: __RNvMNtNtCse1nGBsou5OW_5alloc3vec13in_place_dropINtB2_11InPlaceDropTNtNtCs6IAuOt8vWmF_3syn2ty9BareFnArgNtNtB17_5token5CommaEE3lenCs2GZpXKFCdsl_11yoke_derive, symObjAddr: 0x3E0, symBinAddr: 0x474CC, symSize: 0x7C }
  - { offset: 0xAB98C, size: 0x8, addend: 0x0, symName: __RNvMNtNtCse1nGBsou5OW_5alloc3vec13in_place_dropINtB2_11InPlaceDropTNtNtCs6IAuOt8vWmF_3syn3pat3PatNtNtB17_5token2OrEE3lenCs2GZpXKFCdsl_11yoke_derive, symObjAddr: 0x45C, symBinAddr: 0x47548, symSize: 0x7C }
  - { offset: 0xABA54, size: 0x8, addend: 0x0, symName: __RNvMNtNtCse1nGBsou5OW_5alloc3vec13in_place_dropINtB2_11InPlaceDropTNtNtCs6IAuOt8vWmF_3syn3pat3PatNtNtB17_5token5CommaEE3lenCs2GZpXKFCdsl_11yoke_derive, symObjAddr: 0x4D8, symBinAddr: 0x475C4, symSize: 0x7C }
  - { offset: 0xABB1C, size: 0x8, addend: 0x0, symName: __RNvMNtNtCse1nGBsou5OW_5alloc3vec13in_place_dropINtB2_11InPlaceDropTNtNtCs6IAuOt8vWmF_3syn3pat8FieldPatNtNtB17_5token5CommaEE3lenCs2GZpXKFCdsl_11yoke_derive, symObjAddr: 0x554, symBinAddr: 0x47640, symSize: 0x7C }
  - { offset: 0xABBE4, size: 0x8, addend: 0x0, symName: __RNvMNtNtCse1nGBsou5OW_5alloc3vec13in_place_dropINtB2_11InPlaceDropTNtNtCs6IAuOt8vWmF_3syn4data5FieldNtNtB17_5token5CommaEE3lenCs2GZpXKFCdsl_11yoke_derive, symObjAddr: 0x5D0, symBinAddr: 0x476BC, symSize: 0x7C }
  - { offset: 0xABCAC, size: 0x8, addend: 0x0, symName: __RNvMNtNtCse1nGBsou5OW_5alloc3vec13in_place_dropINtB2_11InPlaceDropTNtNtCs6IAuOt8vWmF_3syn4data7VariantNtNtB17_5token5CommaEE3lenCs2GZpXKFCdsl_11yoke_derive, symObjAddr: 0x64C, symBinAddr: 0x47738, symSize: 0x7C }
  - { offset: 0xABD74, size: 0x8, addend: 0x0, symName: __RNvMNtNtCse1nGBsou5OW_5alloc3vec13in_place_dropINtB2_11InPlaceDropTNtNtCs6IAuOt8vWmF_3syn4expr10FieldValueNtNtB17_5token5CommaEE3lenCs2GZpXKFCdsl_11yoke_derive, symObjAddr: 0x6C8, symBinAddr: 0x477B4, symSize: 0x7C }
  - { offset: 0xABE3C, size: 0x8, addend: 0x0, symName: __RNvMNtNtCse1nGBsou5OW_5alloc3vec13in_place_dropINtB2_11InPlaceDropTNtNtCs6IAuOt8vWmF_3syn4expr4ExprNtNtB17_5token5CommaEE3lenCs2GZpXKFCdsl_11yoke_derive, symObjAddr: 0x744, symBinAddr: 0x47830, symSize: 0x7C }
  - { offset: 0xABF04, size: 0x8, addend: 0x0, symName: __RNvMNtNtCse1nGBsou5OW_5alloc3vec13in_place_dropINtB2_11InPlaceDropTNtNtCs6IAuOt8vWmF_3syn4item5FnArgNtNtB17_5token5CommaEE3lenCs2GZpXKFCdsl_11yoke_derive, symObjAddr: 0x7C0, symBinAddr: 0x478AC, symSize: 0x7C }
  - { offset: 0xABFCC, size: 0x8, addend: 0x0, symName: __RNvMNtNtCse1nGBsou5OW_5alloc3vec13in_place_dropINtB2_11InPlaceDropTNtNtCs6IAuOt8vWmF_3syn4item7UseTreeNtNtB17_5token5CommaEE3lenCs2GZpXKFCdsl_11yoke_derive, symObjAddr: 0x83C, symBinAddr: 0x47928, symSize: 0x7C }
  - { offset: 0xAC094, size: 0x8, addend: 0x0, symName: __RNvMNtNtCse1nGBsou5OW_5alloc3vec13in_place_dropINtB2_11InPlaceDropTNtNtCs6IAuOt8vWmF_3syn4path11PathSegmentNtNtB17_5token7PathSepEE3lenCs2GZpXKFCdsl_11yoke_derive, symObjAddr: 0x8B8, symBinAddr: 0x479A4, symSize: 0x7C }
  - { offset: 0xAC15C, size: 0x8, addend: 0x0, symName: __RNvMNtNtCse1nGBsou5OW_5alloc3vec13in_place_dropINtB2_11InPlaceDropTNtNtCs6IAuOt8vWmF_3syn4path15GenericArgumentNtNtB17_5token5CommaEE3lenCs2GZpXKFCdsl_11yoke_derive, symObjAddr: 0x934, symBinAddr: 0x47A20, symSize: 0x7C }
  - { offset: 0xAC224, size: 0x8, addend: 0x0, symName: __RNvMNtNtCse1nGBsou5OW_5alloc3vec13in_place_dropINtB2_11InPlaceDropTNtNtCs6IAuOt8vWmF_3syn8generics12GenericParamNtNtB17_5token5CommaEE3lenCs2GZpXKFCdsl_11yoke_derive, symObjAddr: 0x9B0, symBinAddr: 0x47A9C, symSize: 0x7C }
  - { offset: 0xAC2EC, size: 0x8, addend: 0x0, symName: __RNvMNtNtCse1nGBsou5OW_5alloc3vec13in_place_dropINtB2_11InPlaceDropTNtNtCs6IAuOt8vWmF_3syn8generics13CapturedParamNtNtB17_5token5CommaEE3lenCs2GZpXKFCdsl_11yoke_derive, symObjAddr: 0xA2C, symBinAddr: 0x47B18, symSize: 0x7C }
  - { offset: 0xAC3B4, size: 0x8, addend: 0x0, symName: __RNvMNtNtCse1nGBsou5OW_5alloc3vec13in_place_dropINtB2_11InPlaceDropTNtNtCs6IAuOt8vWmF_3syn8generics14TypeParamBoundNtNtB17_5token4PlusEE3lenCs2GZpXKFCdsl_11yoke_derive, symObjAddr: 0xAA8, symBinAddr: 0x47B94, symSize: 0x7C }
  - { offset: 0xAC47C, size: 0x8, addend: 0x0, symName: __RNvMNtNtCse1nGBsou5OW_5alloc3vec13in_place_dropINtB2_11InPlaceDropTNtNtCs6IAuOt8vWmF_3syn8generics14WherePredicateNtNtB17_5token5CommaEE3lenCs2GZpXKFCdsl_11yoke_derive, symObjAddr: 0xB24, symBinAddr: 0x47C10, symSize: 0x7C }
  - { offset: 0xAC544, size: 0x8, addend: 0x0, symName: __RNvMNtNtCse1nGBsou5OW_5alloc3vec13in_place_dropINtB2_11InPlaceDropTNtNtCs6IAuOt8vWmF_3syn8lifetime8LifetimeNtNtB17_5token4PlusEE3lenCs2GZpXKFCdsl_11yoke_derive, symObjAddr: 0xBA0, symBinAddr: 0x47C8C, symSize: 0x7C }
  - { offset: 0xAE110, size: 0x8, addend: 0x0, symName: __RINvMNtCs6IAuOt8vWmF_3syn4attrNtB3_9Attribute10parse_argsNtCs3cP53eQoTwO_11proc_macro25IdentECs2GZpXKFCdsl_11yoke_derive, symObjAddr: 0x0, symBinAddr: 0x49928, symSize: 0x34 }
  - { offset: 0xAF09A, size: 0x8, addend: 0x0, symName: __RNvNvMs1_NtNtCsfvfooZQ3Axs_4core3ptr8non_nullINtB7_7NonNullpE13new_unchecked18precondition_checkCs2GZpXKFCdsl_11yoke_derive, symObjAddr: 0x2294, symBinAddr: 0x4BBBC, symSize: 0x38 }
  - { offset: 0xB3068, size: 0x8, addend: 0x0, symName: __RNvXsn_NtNtCsfvfooZQ3Axs_4core5panic11unwind_safeINtB5_16AssertUnwindSafeNCINvNtNtCs9i5KxIbZ5ph_10proc_macro6bridge6client10run_clientNtB1e_11TokenStreamINtNtB9_6option6OptionB28_ENCNCINvMs7_B1e_INtB1e_6ClientNtB1i_11TokenStreamB3l_E7expand1NvCs2GZpXKFCdsl_11yoke_derive15yokeable_deriveE00E0EINtNtNtB9_3ops8function6FnOnceuE9call_onceB3T_, symObjAddr: 0x2E9C, symBinAddr: 0x4C7C4, symSize: 0x38 }
  - { offset: 0xB3112, size: 0x8, addend: 0x0, symName: __RNvNvNtCsfvfooZQ3Axs_4core4hint21unreachable_unchecked18precondition_checkCs2GZpXKFCdsl_11yoke_derive, symObjAddr: 0x22CC, symBinAddr: 0x4BBF4, symSize: 0x1C }
  - { offset: 0xB313C, size: 0x8, addend: 0x0, symName: __RINvXs2U_NtNtCsfvfooZQ3Axs_4core5slice4iterINtB7_4IterNtCs3cP53eQoTwO_11proc_macro25IdentENtNtNtNtBb_4iter6traits8iterator8Iterator4folduNCINvNtNtB1w_8adapters3map8map_foldRBQ_BQ_uNvYBQ_NtNtBb_5clone5Clone5cloneNCIB2e_BQ_TBQ_uEuNCINvXs8_NtCsloNvcHxBCre_9hashbrown3setINtB3N_7HashSetBQ_NtNtNtCscOYdFFY2T5N_3std4hash6random11RandomStateEINtNtB1u_7collect6ExtendBQ_E6extendINtNtB2i_6cloned6ClonedBF_EE0NCINvNvB1q_8for_each4callB3x_NCINvXs1i_NtB3P_3mapINtB72_7HashMapBQ_uB4z_EIB5o_B3x_E6extendINtB2g_3MapB5W_B3E_EE0E0E0E0ECs2GZpXKFCdsl_11yoke_derive, symObjAddr: 0x790, symBinAddr: 0x4A0B8, symSize: 0x18C }
  - { offset: 0xB328F, size: 0x8, addend: 0x0, symName: __RINvXs2U_NtNtCsfvfooZQ3Axs_4core5slice4iterINtB7_4IterNtCs3cP53eQoTwO_11proc_macro25IdentENtNtNtNtBb_4iter6traits8iterator8Iterator4folduNCINvNtNtB1w_8adapters3map8map_foldRBQ_NtNtCs6IAuOt8vWmF_3syn8generics14WherePredicateuNCNvCs2GZpXKFCdsl_11yoke_derive20yokeable_derive_impls0_0NCINvNvB1q_8for_each4callB2O_NCINvMsi_NtCse1nGBsou5OW_5alloc3vecINtB57_3VecB2O_E14extend_trustedINtB2g_3MapBF_B3A_EE0E0E0EB3E_, symObjAddr: 0x91C, symBinAddr: 0x4A244, symSize: 0x1B8 }
  - { offset: 0xB33E3, size: 0x8, addend: 0x0, symName: __RINvXs2U_NtNtCsfvfooZQ3Axs_4core5slice4iterINtB7_4IterNtCs3cP53eQoTwO_11proc_macro25IdentENtNtNtNtBb_4iter6traits8iterator8Iterator4folduNCINvNtNtB1w_8adapters3map8map_foldRBQ_NtNtCs6IAuOt8vWmF_3syn8generics14WherePredicateuNCNvCs2GZpXKFCdsl_11yoke_derive20yokeable_derive_impls2_0NCINvNvB1q_8for_each4callB2O_NCINvMsi_NtCse1nGBsou5OW_5alloc3vecINtB57_3VecB2O_E14extend_trustedINtB2g_3MapBF_B3A_EE0E0E0EB3E_, symObjAddr: 0xAD4, symBinAddr: 0x4A3FC, symSize: 0x1B8 }
  - { offset: 0xB3537, size: 0x8, addend: 0x0, symName: __RINvXs2U_NtNtCsfvfooZQ3Axs_4core5slice4iterINtB7_4IterNtNtCs6IAuOt8vWmF_3syn4attr9AttributeENtNtNtNtBb_4iter6traits8iterator8Iterator3anyNCNvCs2GZpXKFCdsl_11yoke_derive20yokeable_derive_impls1_0EB2f_, symObjAddr: 0xC8C, symBinAddr: 0x4A5B4, symSize: 0xB0 }
  - { offset: 0xB359C, size: 0x8, addend: 0x0, symName: __RINvXs2U_NtNtCsfvfooZQ3Axs_4core5slice4iterINtB7_4IterNtNtCs6IAuOt8vWmF_3syn8generics9TypeParamENtNtNtNtBb_4iter6traits8iterator8Iterator4folduNCINvNtNtB1C_8adapters3map8map_foldRBQ_NtCs3cP53eQoTwO_11proc_macro25IdentuNCNvCs2GZpXKFCdsl_11yoke_derive20yokeable_derive_impls_0NCINvNvB1w_8for_each4callB2U_NCINvMsi_NtCse1nGBsou5OW_5alloc3vecINtB50_3VecB2U_E14extend_trustedINtB2m_3MapBF_B3u_EE0E0E0EB3y_, symObjAddr: 0xD3C, symBinAddr: 0x4A664, symSize: 0x1B8 }
  - { offset: 0xB36F0, size: 0x8, addend: 0x0, symName: __RNvXs2U_NtNtCsfvfooZQ3Axs_4core5slice4iterINtB6_4IterNtCs3cP53eQoTwO_11proc_macro25IdentENtNtNtNtBa_4iter6traits8iterator8Iterator4nextCs2GZpXKFCdsl_11yoke_derive, symObjAddr: 0x249C, symBinAddr: 0x4BDC4, symSize: 0xBC }
  - { offset: 0xB383E, size: 0x8, addend: 0x0, symName: __RNvXs2U_NtNtCsfvfooZQ3Axs_4core5slice4iterINtB6_4IterNtCs3cP53eQoTwO_11proc_macro25IdentENtNtNtNtBa_4iter6traits8iterator8Iterator9size_hintCs2GZpXKFCdsl_11yoke_derive, symObjAddr: 0x2558, symBinAddr: 0x4BE80, symSize: 0x70 }
  - { offset: 0xB38AD, size: 0x8, addend: 0x0, symName: __RNvXs2U_NtNtCsfvfooZQ3Axs_4core5slice4iterINtB6_4IterNtNtCs6IAuOt8vWmF_3syn8generics9TypeParamENtNtNtNtBa_4iter6traits8iterator8Iterator4nextCs2GZpXKFCdsl_11yoke_derive, symObjAddr: 0x25C8, symBinAddr: 0x4BEF0, symSize: 0xBC }
  - { offset: 0xB39FB, size: 0x8, addend: 0x0, symName: __RNvXs2U_NtNtCsfvfooZQ3Axs_4core5slice4iterINtB6_4IterNtNtCs6IAuOt8vWmF_3syn8generics9TypeParamENtNtNtNtBa_4iter6traits8iterator8Iterator9size_hintCs2GZpXKFCdsl_11yoke_derive, symObjAddr: 0x2684, symBinAddr: 0x4BFAC, symSize: 0x70 }
  - { offset: 0xB3C5F, size: 0x8, addend: 0x0, symName: __RNvXs32_NtNtCsfvfooZQ3Axs_4core5slice4iterINtB6_7IterMutNtCs5gpj3SBp7s6_12synstructure11BindingInfoENtNtNtNtBa_4iter6traits8iterator8Iterator4nextCs2GZpXKFCdsl_11yoke_derive, symObjAddr: 0x26F4, symBinAddr: 0x4C01C, symSize: 0xBC }
  - { offset: 0xB3D98, size: 0x8, addend: 0x0, symName: __RNvXs32_NtNtCsfvfooZQ3Axs_4core5slice4iterINtB6_7IterMutNtCs5gpj3SBp7s6_12synstructure11VariantInfoENtNtNtNtBa_4iter6traits8iterator8Iterator4nextCs2GZpXKFCdsl_11yoke_derive, symObjAddr: 0x27B0, symBinAddr: 0x4C0D8, symSize: 0xBC }
  - { offset: 0xB42B1, size: 0x8, addend: 0x0, symName: __RINvXs_NtNtNtCsfvfooZQ3Axs_4core4iter8adapters6clonedINtB5_6ClonedINtNtNtBb_5slice4iter4IterNtCs3cP53eQoTwO_11proc_macro25IdentEENtNtNtB9_6traits8iterator8Iterator4folduNCINvNtB7_3map8map_foldB1s_TB1s_uEuNCINvXs8_NtCsloNvcHxBCre_9hashbrown3setINtB3p_7HashSetB1s_NtNtNtCscOYdFFY2T5N_3std4hash6random11RandomStateEINtNtB27_7collect6ExtendB1s_E6extendBP_E0NCINvNvB23_8for_each4callB38_NCINvXs1i_NtB3r_3mapINtB6i_7HashMapB1s_uB4c_EIB51_B38_E6extendINtB2M_3MapBP_B3g_EE0E0E0ECs2GZpXKFCdsl_11yoke_derive, symObjAddr: 0xEF4, symBinAddr: 0x4A81C, symSize: 0xB8 }
  - { offset: 0xB4346, size: 0x8, addend: 0x0, symName: __RNvXs_NtNtNtCsfvfooZQ3Axs_4core4iter8adapters6clonedINtB4_6ClonedINtNtNtBa_5slice4iter4IterNtCs3cP53eQoTwO_11proc_macro25IdentEENtNtNtB8_6traits8iterator8Iterator9size_hintCs2GZpXKFCdsl_11yoke_derive, symObjAddr: 0x2C48, symBinAddr: 0x4C570, symSize: 0x24 }
  - { offset: 0xB43D1, size: 0x8, addend: 0x0, symName: __RNCINvNvNtNtNtNtCsfvfooZQ3Axs_4core4iter6traits8iterator8Iterator8for_each4callNtCs3cP53eQoTwO_11proc_macro25IdentNCINvMsi_NtCse1nGBsou5OW_5alloc3vecINtB1X_3VecB1f_E14extend_trustedINtNtNtBc_8adapters3map3MapINtNtNtBe_5slice4iter4IterNtNtCs6IAuOt8vWmF_3syn8generics9TypeParamENCNvCs2GZpXKFCdsl_11yoke_derive20yokeable_derive_impls_0EE0E0B4u_, symObjAddr: 0x10EC, symBinAddr: 0x4AA14, symSize: 0x3C }
  - { offset: 0xB442A, size: 0x8, addend: 0x0, symName: __RNCINvNvNtNtNtNtCsfvfooZQ3Axs_4core4iter6traits8iterator8Iterator8for_each4callNtNtCs6IAuOt8vWmF_3syn8generics14WherePredicateNCINvMsi_NtCse1nGBsou5OW_5alloc3vecINtB29_3VecB1f_E14extend_trustedINtNtNtBc_8adapters3map3MapINtNtNtBe_5slice4iter4IterNtCs3cP53eQoTwO_11proc_macro25IdentENCNvCs2GZpXKFCdsl_11yoke_derive20yokeable_derive_impls0_0EE0E0B4A_, symObjAddr: 0x1128, symBinAddr: 0x4AA50, symSize: 0x48 }
  - { offset: 0xB4483, size: 0x8, addend: 0x0, symName: __RNCINvNvNtNtNtNtCsfvfooZQ3Axs_4core4iter6traits8iterator8Iterator8for_each4callNtNtCs6IAuOt8vWmF_3syn8generics14WherePredicateNCINvMsi_NtCse1nGBsou5OW_5alloc3vecINtB29_3VecB1f_E14extend_trustedINtNtNtBc_8adapters3map3MapINtNtNtBe_5slice4iter4IterNtCs3cP53eQoTwO_11proc_macro25IdentENCNvCs2GZpXKFCdsl_11yoke_derive20yokeable_derive_impls2_0EE0E0B4A_, symObjAddr: 0x1170, symBinAddr: 0x4AA98, symSize: 0x48 }
  - { offset: 0xB44DC, size: 0x8, addend: 0x0, symName: __RNCINvNvNtNtNtNtCsfvfooZQ3Axs_4core4iter6traits8iterator8Iterator8for_each4callTNtCs3cP53eQoTwO_11proc_macro25IdentuENCINvXs1i_NtCsloNvcHxBCre_9hashbrown3mapINtB21_7HashMapB1g_uNtNtNtCscOYdFFY2T5N_3std4hash6random11RandomStateEINtNtBa_7collect6ExtendB1f_E6extendINtNtNtBc_8adapters3map3MapINtNtB4h_6cloned6ClonedINtNtNtBe_5slice4iter4IterB1g_EENCINvXs8_NtB23_3setINtB5F_7HashSetB1g_B2P_EIB3E_B1g_E6extendB4D_E0EE0E0Cs2GZpXKFCdsl_11yoke_derive, symObjAddr: 0x11B8, symBinAddr: 0x4AAE0, symSize: 0x3C }
  - { offset: 0xB4570, size: 0x8, addend: 0x0, symName: __RINvYINtNtNtCsfvfooZQ3Axs_4core5slice4iter4IterNtCs3cP53eQoTwO_11proc_macro25IdentENtNtNtNtBa_4iter6traits8iterator8Iterator3mapBJ_NvYBJ_NtNtBa_5clone5Clone5cloneECs2GZpXKFCdsl_11yoke_derive, symObjAddr: 0xFAC, symBinAddr: 0x4A8D4, symSize: 0x1C }
  - { offset: 0xB45C8, size: 0x8, addend: 0x0, symName: __RINvYINtNtNtCsfvfooZQ3Axs_4core5slice4iter4IterNtCs3cP53eQoTwO_11proc_macro25IdentENtNtNtNtBa_4iter6traits8iterator8Iterator3mapNtNtCs6IAuOt8vWmF_3syn8generics14WherePredicateNCNvCs2GZpXKFCdsl_11yoke_derive20yokeable_derive_impls0_0EB2R_, symObjAddr: 0xFC8, symBinAddr: 0x4A8F0, symSize: 0x1C }
  - { offset: 0xB4620, size: 0x8, addend: 0x0, symName: __RINvYINtNtNtCsfvfooZQ3Axs_4core5slice4iter4IterNtCs3cP53eQoTwO_11proc_macro25IdentENtNtNtNtBa_4iter6traits8iterator8Iterator3mapNtNtCs6IAuOt8vWmF_3syn8generics14WherePredicateNCNvCs2GZpXKFCdsl_11yoke_derive20yokeable_derive_impls2_0EB2R_, symObjAddr: 0xFE4, symBinAddr: 0x4A90C, symSize: 0x1C }
  - { offset: 0xB4678, size: 0x8, addend: 0x0, symName: __RINvYINtNtNtCsfvfooZQ3Axs_4core5slice4iter4IterNtCs3cP53eQoTwO_11proc_macro25IdentENtNtNtNtBa_4iter6traits8iterator8Iterator6clonedBJ_ECs2GZpXKFCdsl_11yoke_derive, symObjAddr: 0x1000, symBinAddr: 0x4A928, symSize: 0x1C }
  - { offset: 0xB46B8, size: 0x8, addend: 0x0, symName: __RINvYINtNtNtCsfvfooZQ3Axs_4core5slice4iter4IterNtNtCs6IAuOt8vWmF_3syn8generics9TypeParamENtNtNtNtBa_4iter6traits8iterator8Iterator3mapNtCs3cP53eQoTwO_11proc_macro25IdentNCNvCs2GZpXKFCdsl_11yoke_derive20yokeable_derive_impls_0EB2L_, symObjAddr: 0x101C, symBinAddr: 0x4A944, symSize: 0x1C }
  - { offset: 0xB4710, size: 0x8, addend: 0x0, symName: __RINvYINtNtNtNtCsfvfooZQ3Axs_4core4iter8adapters6cloned6ClonedINtNtNtBc_5slice4iter4IterNtCs3cP53eQoTwO_11proc_macro25IdentEENtNtNtBa_6traits8iterator8Iterator3mapTB1n_uENCINvXs8_NtCsloNvcHxBCre_9hashbrown3setINtB2Q_7HashSetB1n_NtNtNtCscOYdFFY2T5N_3std4hash6random11RandomStateEINtNtB22_7collect6ExtendB1n_E6extendB3_E0ECs2GZpXKFCdsl_11yoke_derive, symObjAddr: 0x1038, symBinAddr: 0x4A960, symSize: 0x1C }
  - { offset: 0xB4768, size: 0x8, addend: 0x0, symName: __RINvYINtNtNtNtCsfvfooZQ3Axs_4core4iter8adapters6cloned6ClonedINtNtNtBc_5slice4iter4IterNtCs3cP53eQoTwO_11proc_macro25IdentEENtNtNtBa_6traits8iterator8Iterator7collectINtNtNtNtCscOYdFFY2T5N_3std11collections4hash3set7HashSetB1n_EECs2GZpXKFCdsl_11yoke_derive, symObjAddr: 0x1054, symBinAddr: 0x4A97C, symSize: 0x2C }
  - { offset: 0xB47AD, size: 0x8, addend: 0x0, symName: __RNCNvYNtNtCs6IAuOt8vWmF_3syn8generics9LifetimesNtNtNtNtCsfvfooZQ3Axs_4core4iter6traits8iterator8Iterator5count0Cs2GZpXKFCdsl_11yoke_derive, symObjAddr: 0x1268, symBinAddr: 0x4AB90, symSize: 0x68 }
  - { offset: 0xB480A, size: 0x8, addend: 0x0, symName: __RNvXNtNtNtCsfvfooZQ3Axs_4core4iter6traits7collectINtNtNtB6_8adapters6cloned6ClonedINtNtNtB8_5slice4iter4IterNtCs3cP53eQoTwO_11proc_macro25IdentEENtB2_12IntoIterator9into_iterCs2GZpXKFCdsl_11yoke_derive, symObjAddr: 0x23D4, symBinAddr: 0x4BCFC, symSize: 0x1C }
  - { offset: 0xB490F, size: 0x8, addend: 0x0, symName: __RNvNvMNtNtCsfvfooZQ3Axs_4core5alloc6layoutNtB4_6Layout25from_size_align_unchecked18precondition_checkCs2GZpXKFCdsl_11yoke_derive, symObjAddr: 0x2244, symBinAddr: 0x4BB6C, symSize: 0x50 }
  - { offset: 0xB4D33, size: 0x8, addend: 0x0, symName: __RNvNtNtNtNtCsfvfooZQ3Axs_4core9core_arch10arm_shared4neon9generated18vreinterpret_s8_u8Cs2GZpXKFCdsl_11yoke_derive, symObjAddr: 0x2134, symBinAddr: 0x4BA5C, symSize: 0xC }
  - { offset: 0xB4D61, size: 0x8, addend: 0x0, symName: __RNvNtNtNtNtCsfvfooZQ3Axs_4core9core_arch10arm_shared4neon9generated19vreinterpret_u64_u8Cs2GZpXKFCdsl_11yoke_derive, symObjAddr: 0x2140, symBinAddr: 0x4BA68, symSize: 0xC }
  - { offset: 0xB4D8F, size: 0x8, addend: 0x0, symName: __RNvNtNtNtNtCsfvfooZQ3Axs_4core9core_arch10arm_shared4neon9generated7vceq_u8Cs2GZpXKFCdsl_11yoke_derive, symObjAddr: 0x214C, symBinAddr: 0x4BA74, symSize: 0x14 }
  - { offset: 0xB4DCC, size: 0x8, addend: 0x0, symName: __RNvNtNtNtNtCsfvfooZQ3Axs_4core9core_arch10arm_shared4neon9generated7vorr_u8Cs2GZpXKFCdsl_11yoke_derive, symObjAddr: 0x2160, symBinAddr: 0x4BA88, symSize: 0x14 }
  - { offset: 0xB4EAD, size: 0x8, addend: 0x0, symName: __RNvNtNtNtNtCsfvfooZQ3Axs_4core9core_arch7aarch644neon9generated8vcgez_s8Cs2GZpXKFCdsl_11yoke_derive, symObjAddr: 0x2174, symBinAddr: 0x4BA9C, symSize: 0x68 }
  - { offset: 0xB4F4F, size: 0x8, addend: 0x0, symName: __RNvNtNtNtNtCsfvfooZQ3Axs_4core9core_arch7aarch644neon9generated8vcltz_s8Cs2GZpXKFCdsl_11yoke_derive, symObjAddr: 0x21DC, symBinAddr: 0x4BB04, symSize: 0x68 }
  - { offset: 0xB5023, size: 0x8, addend: 0x0, symName: __RNvNvNtCsfvfooZQ3Axs_4core9ub_checks23maybe_is_nonoverlapping7runtimeCs2GZpXKFCdsl_11yoke_derive, symObjAddr: 0x22E8, symBinAddr: 0x4BC10, symSize: 0xD8 }
  - { offset: 0xB5327, size: 0x8, addend: 0x0, symName: __RINvNtNtNtCs9i5KxIbZ5ph_10proc_macro6bridge6client5state3setINtNtCsfvfooZQ3Axs_4core6option6OptionNtB4_11TokenStreamENCNCINvB4_10run_clientB1y_BW_NCNCINvMs7_B4_INtB4_6ClientNtB8_11TokenStreamB2L_E7expand1NvCs2GZpXKFCdsl_11yoke_derive15yokeable_deriveE00E00EB3i_, symObjAddr: 0x5A0, symBinAddr: 0x49EC8, symSize: 0xE8 }
  - { offset: 0xB5406, size: 0x8, addend: 0x0, symName: __RNCNkNvNtNtNtCs9i5KxIbZ5ph_10proc_macro6bridge6client5state12BRIDGE_STATE0s_0Cs2GZpXKFCdsl_11yoke_derive, symObjAddr: 0x1234, symBinAddr: 0x4AB5C, symSize: 0x34 }
  - { offset: 0xB5865, size: 0x8, addend: 0x0, symName: __RNvXNtNtCs9i5KxIbZ5ph_10proc_macro6bridge3rpcuINtB2_6EncodeuE6encodeCs2GZpXKFCdsl_11yoke_derive, symObjAddr: 0x23C0, symBinAddr: 0x4BCE8, symSize: 0x14 }
  - { offset: 0xB58DE, size: 0x8, addend: 0x0, symName: __RNvXsa_NtNtCs9i5KxIbZ5ph_10proc_macro6bridge3rpcRShINtB5_6EncodeuE6encodeCs2GZpXKFCdsl_11yoke_derive, symObjAddr: 0x2C6C, symBinAddr: 0x4C594, symSize: 0xD0 }
  - { offset: 0xB59E0, size: 0x8, addend: 0x0, symName: __RNvXsc_NtNtCs9i5KxIbZ5ph_10proc_macro6bridge3rpcReINtB5_6EncodeuE6encodeCs2GZpXKFCdsl_11yoke_derive, symObjAddr: 0x2D3C, symBinAddr: 0x4C664, symSize: 0x38 }
  - { offset: 0xB5AC8, size: 0x8, addend: 0x0, symName: __RNvXsl_NtNtCs9i5KxIbZ5ph_10proc_macro6bridge3rpcNtB5_12PanicMessageINtB5_6EncodeuE6encodeCs2GZpXKFCdsl_11yoke_derive, symObjAddr: 0x2D74, symBinAddr: 0x4C69C, symSize: 0x128 }
  - { offset: 0xB5C8E, size: 0x8, addend: 0x0, symName: __RNvXso_NtNtCs9i5KxIbZ5ph_10proc_macro6bridge3rpcmINtB5_9DecodeMutuE6decodeCs2GZpXKFCdsl_11yoke_derive, symObjAddr: 0x2ED4, symBinAddr: 0x4C7FC, symSize: 0x108 }
  - { offset: 0xB6146, size: 0x8, addend: 0x0, symName: __RNvXsA_NtCs3cP53eQoTwO_11proc_macro23impNtB5_19DeferredTokenStreamNtNtCsfvfooZQ3Axs_4core5clone5Clone5cloneCs2GZpXKFCdsl_11yoke_derive, symObjAddr: 0x2A94, symBinAddr: 0x4C3BC, symSize: 0x90 }
  - { offset: 0xB6178, size: 0x8, addend: 0x0, symName: __RNvXsF_NtCs3cP53eQoTwO_11proc_macro23impNtB5_5IdentNtNtCsfvfooZQ3Axs_4core5clone5Clone5cloneCs2GZpXKFCdsl_11yoke_derive, symObjAddr: 0x2B24, symBinAddr: 0x4C44C, symSize: 0x9C }
  - { offset: 0xB61E8, size: 0x8, addend: 0x0, symName: __RNvXsz_NtCs3cP53eQoTwO_11proc_macro23impNtB5_11TokenStreamNtNtCsfvfooZQ3Axs_4core5clone5Clone5cloneCs2GZpXKFCdsl_11yoke_derive, symObjAddr: 0x2FDC, symBinAddr: 0x4C904, symSize: 0x98 }
  - { offset: 0xB630D, size: 0x8, addend: 0x0, symName: __RNvXs1_NtCs3cP53eQoTwO_11proc_macro26markerNtB5_19ProcMacroAutoTraitsNtNtCsfvfooZQ3Axs_4core5clone5Clone5cloneCs2GZpXKFCdsl_11yoke_derive, symObjAddr: 0x23F0, symBinAddr: 0x4BD18, symSize: 0x10 }
  - { offset: 0xBB744, size: 0x8, addend: 0x0, symName: __RNvNtCse1nGBsou5OW_5alloc5alloc12alloc_zeroedCs2GZpXKFCdsl_11yoke_derive, symObjAddr: 0x1F88, symBinAddr: 0x4B8B0, symSize: 0x84 }
  - { offset: 0xBB808, size: 0x8, addend: 0x0, symName: __RNvXs_NtCse1nGBsou5OW_5alloc5allocNtB4_6GlobalNtNtCsfvfooZQ3Axs_4core5alloc9Allocator10deallocateCs2GZpXKFCdsl_11yoke_derive, symObjAddr: 0x2BC0, symBinAddr: 0x4C4E8, symSize: 0x88 }
  - { offset: 0xBB8E4, size: 0x8, addend: 0x0, symName: __RNvNtCse1nGBsou5OW_5alloc5alloc15exchange_mallocCs2GZpXKFCdsl_11yoke_derive, symObjAddr: 0x200C, symBinAddr: 0x4B934, symSize: 0xA4 }
  - { offset: 0xBB97B, size: 0x8, addend: 0x0, symName: __RNvNtCse1nGBsou5OW_5alloc5alloc5allocCs2GZpXKFCdsl_11yoke_derive, symObjAddr: 0x20B0, symBinAddr: 0x4B9D8, symSize: 0x84 }
  - { offset: 0xBC7C5, size: 0x8, addend: 0x0, symName: __RNvXs1_NtCse1nGBsou5OW_5alloc7raw_vecINtB5_6RawVecNtCs3cP53eQoTwO_11proc_macro25IdentENtNtNtCsfvfooZQ3Axs_4core3ops4drop4Drop4dropCs2GZpXKFCdsl_11yoke_derive, symObjAddr: 0x2400, symBinAddr: 0x4BD28, symSize: 0x34 }
  - { offset: 0xBC801, size: 0x8, addend: 0x0, symName: __RNvXs1_NtCse1nGBsou5OW_5alloc7raw_vecINtB5_6RawVecNtNtCs6IAuOt8vWmF_3syn8generics14WherePredicateENtNtNtCsfvfooZQ3Axs_4core3ops4drop4Drop4dropCs2GZpXKFCdsl_11yoke_derive, symObjAddr: 0x2434, symBinAddr: 0x4BD5C, symSize: 0x34 }
  - { offset: 0xBC83D, size: 0x8, addend: 0x0, symName: __RNvXs1_NtCse1nGBsou5OW_5alloc7raw_vecINtB5_6RawVecNtNtCs6IAuOt8vWmF_3syn8generics9TypeParamENtNtNtCsfvfooZQ3Axs_4core3ops4drop4Drop4dropCs2GZpXKFCdsl_11yoke_derive, symObjAddr: 0x2468, symBinAddr: 0x4BD90, symSize: 0x34 }
  - { offset: 0xBC9D9, size: 0x8, addend: 0x0, symName: __RNvXs6_NtCse1nGBsou5OW_5alloc5boxedINtB5_3BoxDNtNtCsfvfooZQ3Axs_4core5error5ErrorNtNtBM_6marker4SendNtB1j_4SyncEL_ENtNtNtBM_3ops4drop4Drop4dropCs2GZpXKFCdsl_11yoke_derive, symObjAddr: 0x2920, symBinAddr: 0x4C248, symSize: 0xC4 }
  - { offset: 0xBCB10, size: 0x8, addend: 0x0, symName: __RNvXs6_NtCse1nGBsou5OW_5alloc5boxedINtB5_3BoxNtNtNtCscOYdFFY2T5N_3std2io5error6CustomENtNtNtCsfvfooZQ3Axs_4core3ops4drop4Drop4dropCs2GZpXKFCdsl_11yoke_derive, symObjAddr: 0x29E4, symBinAddr: 0x4C30C, symSize: 0xB0 }
  - { offset: 0xBD15F, size: 0x8, addend: 0x0, symName: __RINvMNtCs6IAuOt8vWmF_3syn4attrNtB3_9Attribute10parse_argsNtCs3cP53eQoTwO_11proc_macro25IdentECs2GZpXKFCdsl_11yoke_derive, symObjAddr: 0x0, symBinAddr: 0x49928, symSize: 0x34 }
  - { offset: 0xBD222, size: 0x8, addend: 0x0, symName: __RINvMNtCs6IAuOt8vWmF_3syn4attrNtB3_9Attribute15parse_args_withNvYNtCs3cP53eQoTwO_11proc_macro25IdentNtNtB5_5parse5Parse5parseECs2GZpXKFCdsl_11yoke_derive, symObjAddr: 0x34, symBinAddr: 0x4995C, symSize: 0x358 }
  - { offset: 0xBD304, size: 0x8, addend: 0x0, symName: __RINvMs0_NtCs6IAuOt8vWmF_3syn4attrNtB6_8MetaList15parse_args_withNvYNtCs3cP53eQoTwO_11proc_macro25IdentNtNtB8_5parse5Parse5parseECs2GZpXKFCdsl_11yoke_derive, symObjAddr: 0x38C, symBinAddr: 0x49CB4, symSize: 0xF0 }
  - { offset: 0xBD53B, size: 0x8, addend: 0x0, symName: __RNCINvNtCsloNvcHxBCre_9hashbrown3map14equivalent_keyNtCs3cP53eQoTwO_11proc_macro25IdentBO_uE0Cs2GZpXKFCdsl_11yoke_derive, symObjAddr: 0x10BC, symBinAddr: 0x4A9E4, symSize: 0x30 }
  - { offset: 0xBD7D5, size: 0x8, addend: 0x0, symName: __RINvXs1i_NtCsloNvcHxBCre_9hashbrown3mapINtB7_7HashMapNtCs3cP53eQoTwO_11proc_macro25IdentuNtNtNtCscOYdFFY2T5N_3std4hash6random11RandomStateEINtNtNtNtCsfvfooZQ3Axs_4core4iter6traits7collect6ExtendTBP_uEE6extendINtNtNtB2k_8adapters3map3MapINtNtB3p_6cloned6ClonedINtNtNtB2m_5slice4iter4IterBP_EENCINvXs8_NtB9_3setINtB4O_7HashSetBP_B1p_EIB2e_BP_E6extendB3M_E0EECs2GZpXKFCdsl_11yoke_derive, symObjAddr: 0x688, symBinAddr: 0x49FB0, symSize: 0x108 }
  - { offset: 0xBD8F6, size: 0x8, addend: 0x0, symName: __RNCINvXs1i_NtCsloNvcHxBCre_9hashbrown3mapINtB9_7HashMapNtCs3cP53eQoTwO_11proc_macro25IdentuNtNtNtCscOYdFFY2T5N_3std4hash6random11RandomStateEINtNtNtNtCsfvfooZQ3Axs_4core4iter6traits7collect6ExtendTBR_uEE6extendINtNtNtB2m_8adapters3map3MapINtNtB3r_6cloned6ClonedINtNtNtB2o_5slice4iter4IterBR_EENCINvXs8_NtBb_3setINtB4Q_7HashSetBR_B1r_EIB2g_BR_E6extendB3O_E0EE0Cs2GZpXKFCdsl_11yoke_derive, symObjAddr: 0x11F4, symBinAddr: 0x4AB1C, symSize: 0x40 }
  - { offset: 0xBD9C9, size: 0x8, addend: 0x0, symName: __RNCINvNtCsloNvcHxBCre_9hashbrown3map11make_hasherNtCs3cP53eQoTwO_11proc_macro25IdentuNtNtNtCscOYdFFY2T5N_3std4hash6random11RandomStateE0Cs2GZpXKFCdsl_11yoke_derive, symObjAddr: 0x1080, symBinAddr: 0x4A9A8, symSize: 0x3C }
  - { offset: 0xBDC18, size: 0x8, addend: 0x0, symName: __RINvMs1_NtCsloNvcHxBCre_9hashbrown3mapINtB6_7HashMapNtCs3cP53eQoTwO_11proc_macro25IdentuNtNtNtCscOYdFFY2T5N_3std4hash6random11RandomStateE9get_innerBO_ECs2GZpXKFCdsl_11yoke_derive, symObjAddr: 0x47C, symBinAddr: 0x49DA4, symSize: 0xF8 }
  - { offset: 0xBDE7E, size: 0x8, addend: 0x0, symName: __RINvMs_NtNtCsfvfooZQ3Axs_4core3fmt2rtNtB5_8Argument11new_displayNtNtNtCs6IAuOt8vWmF_3syn4attr7parsing16DisplayAttrStyleECs2GZpXKFCdsl_11yoke_derive, symObjAddr: 0x574, symBinAddr: 0x49E9C, symSize: 0x2C }
  - { offset: 0xBE378, size: 0x8, addend: 0x0, symName: __RNvMNtCse1nGBsou5OW_5alloc5allocNtB2_6Global10alloc_implCs2GZpXKFCdsl_11yoke_derive, symObjAddr: 0x12D0, symBinAddr: 0x4ABF8, symSize: 0x194 }
  - { offset: 0xBE73E, size: 0x8, addend: 0x0, symName: __RNvMs1_NtCsloNvcHxBCre_9hashbrown3mapINtB5_7HashMapNtCs3cP53eQoTwO_11proc_macro25IdentuNtNtNtCscOYdFFY2T5N_3std4hash6random11RandomStateE6insertCs2GZpXKFCdsl_11yoke_derive, symObjAddr: 0x1464, symBinAddr: 0x4AD8C, symSize: 0x1D8 }
  - { offset: 0xBE8C0, size: 0x8, addend: 0x0, symName: __RNvMs1_NtNtCsfvfooZQ3Axs_4core3ptr8non_nullINtB5_7NonNullNtCs3cP53eQoTwO_11proc_macro25IdentE7sub_ptrCs2GZpXKFCdsl_11yoke_derive, symObjAddr: 0x163C, symBinAddr: 0x4AF64, symSize: 0x74 }
  - { offset: 0xBE9C6, size: 0x8, addend: 0x0, symName: __RNvMs1_NtNtCsfvfooZQ3Axs_4core3ptr8non_nullINtB5_7NonNullNtNtCs6IAuOt8vWmF_3syn4expr3ArmE7sub_ptrCs2GZpXKFCdsl_11yoke_derive, symObjAddr: 0x16B0, symBinAddr: 0x4AFD8, symSize: 0x74 }
  - { offset: 0xBEACC, size: 0x8, addend: 0x0, symName: __RNvMs1_NtNtCsfvfooZQ3Axs_4core3ptr8non_nullINtB5_7NonNullNtNtCs6IAuOt8vWmF_3syn4item11ForeignItemE7sub_ptrCs2GZpXKFCdsl_11yoke_derive, symObjAddr: 0x1724, symBinAddr: 0x4B04C, symSize: 0x74 }
  - { offset: 0xBEBD2, size: 0x8, addend: 0x0, symName: __RNvMs1_NtNtCsfvfooZQ3Axs_4core3ptr8non_nullINtB5_7NonNullNtNtCs6IAuOt8vWmF_3syn4item4ItemE7sub_ptrCs2GZpXKFCdsl_11yoke_derive, symObjAddr: 0x1798, symBinAddr: 0x4B0C0, symSize: 0x74 }
  - { offset: 0xBECD8, size: 0x8, addend: 0x0, symName: __RNvMs1_NtNtCsfvfooZQ3Axs_4core3ptr8non_nullINtB5_7NonNullNtNtCs6IAuOt8vWmF_3syn4item8ImplItemE7sub_ptrCs2GZpXKFCdsl_11yoke_derive, symObjAddr: 0x180C, symBinAddr: 0x4B134, symSize: 0x74 }
  - { offset: 0xBEDDE, size: 0x8, addend: 0x0, symName: __RNvMs1_NtNtCsfvfooZQ3Axs_4core3ptr8non_nullINtB5_7NonNullNtNtCs6IAuOt8vWmF_3syn4item9TraitItemE7sub_ptrCs2GZpXKFCdsl_11yoke_derive, symObjAddr: 0x1880, symBinAddr: 0x4B1A8, symSize: 0x74 }
  - { offset: 0xBEEE4, size: 0x8, addend: 0x0, symName: __RNvMs1_NtNtCsfvfooZQ3Axs_4core3ptr8non_nullINtB5_7NonNullNtNtCs6IAuOt8vWmF_3syn4stmt4StmtE7sub_ptrCs2GZpXKFCdsl_11yoke_derive, symObjAddr: 0x18F4, symBinAddr: 0x4B21C, symSize: 0x74 }
  - { offset: 0xBEFD0, size: 0x8, addend: 0x0, symName: __RNvMs1_NtNtCsfvfooZQ3Axs_4core3ptr8non_nullINtB5_7NonNullNtNtCs6IAuOt8vWmF_3syn8generics9TypeParamE7sub_ptrCs2GZpXKFCdsl_11yoke_derive, symObjAddr: 0x1968, symBinAddr: 0x4B290, symSize: 0x74 }
  - { offset: 0xBF0D6, size: 0x8, addend: 0x0, symName: __RNvMs1_NtNtCsfvfooZQ3Axs_4core3ptr8non_nullINtB5_7NonNullTNtNtCs6IAuOt8vWmF_3syn2ty4TypeNtNtBY_5token5CommaEE7sub_ptrCs2GZpXKFCdsl_11yoke_derive, symObjAddr: 0x19DC, symBinAddr: 0x4B304, symSize: 0x74 }
  - { offset: 0xBF1DC, size: 0x8, addend: 0x0, symName: __RNvMs1_NtNtCsfvfooZQ3Axs_4core3ptr8non_nullINtB5_7NonNullTNtNtCs6IAuOt8vWmF_3syn2ty9BareFnArgNtNtBY_5token5CommaEE7sub_ptrCs2GZpXKFCdsl_11yoke_derive, symObjAddr: 0x1A50, symBinAddr: 0x4B378, symSize: 0x74 }
  - { offset: 0xBF2E2, size: 0x8, addend: 0x0, symName: __RNvMs1_NtNtCsfvfooZQ3Axs_4core3ptr8non_nullINtB5_7NonNullTNtNtCs6IAuOt8vWmF_3syn3pat3PatNtNtBY_5token2OrEE7sub_ptrCs2GZpXKFCdsl_11yoke_derive, symObjAddr: 0x1AC4, symBinAddr: 0x4B3EC, symSize: 0x74 }
  - { offset: 0xBF3E8, size: 0x8, addend: 0x0, symName: __RNvMs1_NtNtCsfvfooZQ3Axs_4core3ptr8non_nullINtB5_7NonNullTNtNtCs6IAuOt8vWmF_3syn3pat3PatNtNtBY_5token5CommaEE7sub_ptrCs2GZpXKFCdsl_11yoke_derive, symObjAddr: 0x1B38, symBinAddr: 0x4B460, symSize: 0x74 }
  - { offset: 0xBF4EE, size: 0x8, addend: 0x0, symName: __RNvMs1_NtNtCsfvfooZQ3Axs_4core3ptr8non_nullINtB5_7NonNullTNtNtCs6IAuOt8vWmF_3syn3pat8FieldPatNtNtBY_5token5CommaEE7sub_ptrCs2GZpXKFCdsl_11yoke_derive, symObjAddr: 0x1BAC, symBinAddr: 0x4B4D4, symSize: 0x74 }
  - { offset: 0xBF5F4, size: 0x8, addend: 0x0, symName: __RNvMs1_NtNtCsfvfooZQ3Axs_4core3ptr8non_nullINtB5_7NonNullTNtNtCs6IAuOt8vWmF_3syn4expr10FieldValueNtNtBY_5token5CommaEE7sub_ptrCs2GZpXKFCdsl_11yoke_derive, symObjAddr: 0x1C20, symBinAddr: 0x4B548, symSize: 0x74 }
  - { offset: 0xBF6FA, size: 0x8, addend: 0x0, symName: __RNvMs1_NtNtCsfvfooZQ3Axs_4core3ptr8non_nullINtB5_7NonNullTNtNtCs6IAuOt8vWmF_3syn4expr4ExprNtNtBY_5token5CommaEE7sub_ptrCs2GZpXKFCdsl_11yoke_derive, symObjAddr: 0x1C94, symBinAddr: 0x4B5BC, symSize: 0x74 }
  - { offset: 0xBF800, size: 0x8, addend: 0x0, symName: __RNvMs1_NtNtCsfvfooZQ3Axs_4core3ptr8non_nullINtB5_7NonNullTNtNtCs6IAuOt8vWmF_3syn4item7UseTreeNtNtBY_5token5CommaEE7sub_ptrCs2GZpXKFCdsl_11yoke_derive, symObjAddr: 0x1D08, symBinAddr: 0x4B630, symSize: 0x74 }
  - { offset: 0xBF906, size: 0x8, addend: 0x0, symName: __RNvMs1_NtNtCsfvfooZQ3Axs_4core3ptr8non_nullINtB5_7NonNullTNtNtCs6IAuOt8vWmF_3syn4path15GenericArgumentNtNtBY_5token5CommaEE7sub_ptrCs2GZpXKFCdsl_11yoke_derive, symObjAddr: 0x1D7C, symBinAddr: 0x4B6A4, symSize: 0x74 }
  - { offset: 0xBFA0C, size: 0x8, addend: 0x0, symName: __RNvMs1_NtNtCsfvfooZQ3Axs_4core3ptr8non_nullINtB5_7NonNullTNtNtCs6IAuOt8vWmF_3syn8generics13CapturedParamNtNtBY_5token5CommaEE7sub_ptrCs2GZpXKFCdsl_11yoke_derive, symObjAddr: 0x1DF0, symBinAddr: 0x4B718, symSize: 0x74 }
  - { offset: 0xBFB12, size: 0x8, addend: 0x0, symName: __RNvMs1_NtNtCsfvfooZQ3Axs_4core3ptr8non_nullINtB5_7NonNullTNtNtCs6IAuOt8vWmF_3syn8lifetime8LifetimeNtNtBY_5token4PlusEE7sub_ptrCs2GZpXKFCdsl_11yoke_derive, symObjAddr: 0x1E64, symBinAddr: 0x4B78C, symSize: 0x74 }
  - { offset: 0xBFC84, size: 0x8, addend: 0x0, symName: __RNvMs4_NtNtCsfvfooZQ3Axs_4core5slice4iterINtB5_4IterNtCs3cP53eQoTwO_11proc_macro25IdentE3newCs2GZpXKFCdsl_11yoke_derive, symObjAddr: 0x1ED8, symBinAddr: 0x4B800, symSize: 0x58 }
  - { offset: 0xBFE52, size: 0x8, addend: 0x0, symName: __RNvMs4_NtNtCsfvfooZQ3Axs_4core5slice4iterINtB5_4IterNtNtCs6IAuOt8vWmF_3syn8generics9TypeParamE3newCs2GZpXKFCdsl_11yoke_derive, symObjAddr: 0x1F30, symBinAddr: 0x4B858, symSize: 0x58 }
  - { offset: 0xC04A0, size: 0x8, addend: 0x0, symName: __RNvXs4_NtCs2cqEZUIJimJ_5quote9___privateINtB5_9RepInterpRNtCs3cP53eQoTwO_11proc_macro25IdentENtNtB7_9to_tokens8ToTokens9to_tokensCs2GZpXKFCdsl_11yoke_derive, symObjAddr: 0x286C, symBinAddr: 0x4C194, symSize: 0x3C }
  - { offset: 0xC04DF, size: 0x8, addend: 0x0, symName: __RNvXs4_NtCs2cqEZUIJimJ_5quote9___privateINtB5_9RepInterpRNtNtCs6IAuOt8vWmF_3syn8generics14WherePredicateENtNtB7_9to_tokens8ToTokens9to_tokensCs2GZpXKFCdsl_11yoke_derive, symObjAddr: 0x28A8, symBinAddr: 0x4C1D0, symSize: 0x3C }
  - { offset: 0xC051E, size: 0x8, addend: 0x0, symName: __RNvXs4_NtCs2cqEZUIJimJ_5quote9___privateINtB5_9RepInterpRNtNtCs6IAuOt8vWmF_3syn8generics9TypeParamENtNtB7_9to_tokens8ToTokens9to_tokensCs2GZpXKFCdsl_11yoke_derive, symObjAddr: 0x28E4, symBinAddr: 0x4C20C, symSize: 0x3C }
  - { offset: 0xC0B6B, size: 0x8, addend: 0x0, symName: __RINvCs6IAuOt8vWmF_3syn5parseNtNtB2_6derive11DeriveInputECs2GZpXKFCdsl_11yoke_derive, symObjAddr: 0x0, symBinAddr: 0x4C99C, symSize: 0x30 }
  - { offset: 0xC0E87, size: 0x8, addend: 0x0, symName: __RNvXs1J_NtCs9i5KxIbZ5ph_10proc_macro6bridgeINtB6_11ExpnGlobalsNtNtB6_6client4SpanEINtNtB6_3rpc9DecodeMutuE6decodeCs2GZpXKFCdsl_11yoke_derive, symObjAddr: 0x3DD0, symBinAddr: 0x50768, symSize: 0xB0 }
  - { offset: 0xC0EDE, size: 0x8, addend: 0x0, symName: __RNvXs7_NtNtCs9i5KxIbZ5ph_10proc_macro6bridge3rpcINtNtNtCsfvfooZQ3Axs_4core3num7nonzero7NonZeromEINtB5_9DecodeMutuE6decodeCs2GZpXKFCdsl_11yoke_derive, symObjAddr: 0x3EC8, symBinAddr: 0x50860, symSize: 0x5C }
  - { offset: 0xC0F61, size: 0x8, addend: 0x0, symName: __RNvXs9_NtNtCs9i5KxIbZ5ph_10proc_macro6bridge3rpcTINtB7_11ExpnGlobalsNtNtB7_6client4SpanENtB16_11TokenStreamEINtB5_9DecodeMutuE6decodeCs2GZpXKFCdsl_11yoke_derive, symObjAddr: 0x3F24, symBinAddr: 0x508BC, symSize: 0x84 }
  - { offset: 0xC1068, size: 0x8, addend: 0x0, symName: __RNvXsR_NtCs9i5KxIbZ5ph_10proc_macro6bridgeINtNtCsfvfooZQ3Axs_4core6option6OptionNtNtB5_6client11TokenStreamEINtNtB5_3rpc6EncodeuE6encodeCs2GZpXKFCdsl_11yoke_derive, symObjAddr: 0x40B4, symBinAddr: 0x50A4C, symSize: 0xCC }
  - { offset: 0xC110E, size: 0x8, addend: 0x0, symName: __RNvXsR_NtCs9i5KxIbZ5ph_10proc_macro6bridgeINtNtCsfvfooZQ3Axs_4core6option6OptionReEINtNtB5_3rpc6EncodeuE6encodeCs2GZpXKFCdsl_11yoke_derive, symObjAddr: 0x4180, symBinAddr: 0x50B18, symSize: 0xD8 }
  - { offset: 0xC15FF, size: 0x8, addend: 0x0, symName: __RNvXsA_NtCs3cP53eQoTwO_11proc_macro28fallbackNtB5_5IdentNtNtCsfvfooZQ3Axs_4core5clone5Clone5cloneCs2GZpXKFCdsl_11yoke_derive, symObjAddr: 0x3FA8, symBinAddr: 0x50940, symSize: 0x94 }
  - { offset: 0xC1633, size: 0x8, addend: 0x0, symName: __RNvXss_NtCs3cP53eQoTwO_11proc_macro28fallbackNtB5_11TokenStreamNtNtCsfvfooZQ3Axs_4core5clone5Clone5cloneCs2GZpXKFCdsl_11yoke_derive, symObjAddr: 0x4A98, symBinAddr: 0x51430, symSize: 0x24 }
  - { offset: 0xC1665, size: 0x8, addend: 0x0, symName: __RNvXsu_NtCs3cP53eQoTwO_11proc_macro28fallbackNtB5_4SpanNtNtCsfvfooZQ3Axs_4core5clone5Clone5cloneCs2GZpXKFCdsl_11yoke_derive, symObjAddr: 0x4AE0, symBinAddr: 0x51478, symSize: 0x10 }
  - { offset: 0xC18B6, size: 0x8, addend: 0x0, symName: __RNvXsG_Cs3cP53eQoTwO_11proc_macro2NtB5_11TokenStreamNtNtCsfvfooZQ3Axs_4core5clone5Clone5cloneCs2GZpXKFCdsl_11yoke_derive, symObjAddr: 0x403C, symBinAddr: 0x509D4, symSize: 0x78 }
  - { offset: 0xC18E8, size: 0x8, addend: 0x0, symName: __RNvXsY_Cs3cP53eQoTwO_11proc_macro2NtB5_5IdentNtNtCsfvfooZQ3Axs_4core5clone5Clone5cloneCs2GZpXKFCdsl_11yoke_derive, symObjAddr: 0x4258, symBinAddr: 0x50BF0, symSize: 0x78 }
  - { offset: 0xC1BAF, size: 0x8, addend: 0x0, symName: __RNCINvMs1_Cs5gpj3SBp7s6_12synstructureNtB8_11VariantInfo4eachQNCNvCs2GZpXKFCdsl_11yoke_derive20yokeable_derive_impls5_0NtCs3cP53eQoTwO_11proc_macro211TokenStreamE0B12_, symObjAddr: 0x3150, symBinAddr: 0x4FAEC, symSize: 0x90 }
  - { offset: 0xC1C51, size: 0x8, addend: 0x0, symName: __RNCINvMs1_Cs5gpj3SBp7s6_12synstructureNtB8_11VariantInfo9constructNCNCNvCs2GZpXKFCdsl_11yoke_derive20yokeable_derive_impls4_00NtCs3cP53eQoTwO_11proc_macro211TokenStreamE0B18_, symObjAddr: 0x31E0, symBinAddr: 0x4FB7C, symSize: 0x1D4 }
  - { offset: 0xC1D0D, size: 0x8, addend: 0x0, symName: __RNCINvMs1_Cs5gpj3SBp7s6_12synstructureNtB8_11VariantInfo9constructNCNCNvCs2GZpXKFCdsl_11yoke_derive20yokeable_derive_impls4_00NtCs3cP53eQoTwO_11proc_macro211TokenStreamEs_0B18_, symObjAddr: 0x33B4, symBinAddr: 0x4FD50, symSize: 0x270 }
  - { offset: 0xC50BB, size: 0x8, addend: 0x0, symName: __RNvNvNtCsfvfooZQ3Axs_4core3ptr13read_volatile18precondition_checkCs2GZpXKFCdsl_11yoke_derive, symObjAddr: 0x3B28, symBinAddr: 0x504C0, symSize: 0x100 }
  - { offset: 0xC52D6, size: 0x8, addend: 0x0, symName: __RINvYNtNtCs6IAuOt8vWmF_3syn8generics10TypeParamsNtNtNtNtCsfvfooZQ3Axs_4core4iter6traits8iterator8Iterator3mapNtB5_9TypeParamNCNvCs2GZpXKFCdsl_11yoke_derive20yokeable_derive_impl0EB22_, symObjAddr: 0x2FC0, symBinAddr: 0x4F95C, symSize: 0x1C }
  - { offset: 0xC532E, size: 0x8, addend: 0x0, symName: __RINvYNtNtCs6IAuOt8vWmF_3syn8generics9LifetimesNtNtNtNtCsfvfooZQ3Axs_4core4iter6traits8iterator8Iterator4foldjNCNvYB3_BI_5count0ECs2GZpXKFCdsl_11yoke_derive, symObjAddr: 0x2FDC, symBinAddr: 0x4F978, symSize: 0xF0 }
  - { offset: 0xC53C1, size: 0x8, addend: 0x0, symName: __RNvYNtNtCs6IAuOt8vWmF_3syn8generics10TypeParamsNtNtNtNtCsfvfooZQ3Axs_4core4iter6traits8iterator8Iterator9size_hintCs2GZpXKFCdsl_11yoke_derive, symObjAddr: 0x74B4, symBinAddr: 0x53E4C, symSize: 0x34 }
  - { offset: 0xC53F6, size: 0x8, addend: 0x0, symName: __RNvYNtNtCs6IAuOt8vWmF_3syn8generics9LifetimesNtNtNtNtCsfvfooZQ3Axs_4core4iter6traits8iterator8Iterator5countCs2GZpXKFCdsl_11yoke_derive, symObjAddr: 0x74E8, symBinAddr: 0x53E80, symSize: 0x30 }
  - { offset: 0xC5444, size: 0x8, addend: 0x0, symName: __RNvXNtNtNtCsfvfooZQ3Axs_4core4iter6traits7collectINtNtNtB6_8adapters9enumerate9EnumerateINtNtCs6IAuOt8vWmF_3syn10punctuated4IterNtNtB1t_4data5FieldEENtB2_12IntoIterator9into_iterCs2GZpXKFCdsl_11yoke_derive, symObjAddr: 0x3D74, symBinAddr: 0x5070C, symSize: 0x18 }
  - { offset: 0xC551C, size: 0x8, addend: 0x0, symName: __RINvYNtNtNtCscOYdFFY2T5N_3std4hash6random11RandomStateNtNtCsfvfooZQ3Axs_4core4hash11BuildHasher8hash_oneRNtCs3cP53eQoTwO_11proc_macro25IdentECs2GZpXKFCdsl_11yoke_derive, symObjAddr: 0x30CC, symBinAddr: 0x4FA68, symSize: 0x84 }
  - { offset: 0xC56E4, size: 0x8, addend: 0x0, symName: __RNvMNtCsfvfooZQ3Axs_4core5sliceSNtCs3cP53eQoTwO_11proc_macro25Ident4iterCs2GZpXKFCdsl_11yoke_derive, symObjAddr: 0x36B8, symBinAddr: 0x50054, symSize: 0x28 }
  - { offset: 0xC571B, size: 0x8, addend: 0x0, symName: __RNvMNtCsfvfooZQ3Axs_4core5sliceSNtNtCs6IAuOt8vWmF_3syn8generics9TypeParam4iterCs2GZpXKFCdsl_11yoke_derive, symObjAddr: 0x36E0, symBinAddr: 0x5007C, symSize: 0x28 }
  - { offset: 0xC5B22, size: 0x8, addend: 0x0, symName: __RNvNvNtCsfvfooZQ3Axs_4core10intrinsics19copy_nonoverlapping18precondition_checkCs2GZpXKFCdsl_11yoke_derive, symObjAddr: 0x3844, symBinAddr: 0x501DC, symSize: 0x2E4 }
  - { offset: 0xC5DA5, size: 0x8, addend: 0x0, symName: __RNvNtNtNtCsfvfooZQ3Axs_4core9core_arch7aarch644neon7vld1_u8Cs2GZpXKFCdsl_11yoke_derive, symObjAddr: 0x37E0, symBinAddr: 0x50178, symSize: 0x2C }
  - { offset: 0xC5DD3, size: 0x8, addend: 0x0, symName: __RNvNtNtNtCsfvfooZQ3Axs_4core9core_arch7aarch644neon7vst1_u8Cs2GZpXKFCdsl_11yoke_derive, symObjAddr: 0x380C, symBinAddr: 0x501A4, symSize: 0x38 }
  - { offset: 0xC5FA2, size: 0x8, addend: 0x0, symName: __RNvXNtCsfvfooZQ3Axs_4core6borrowNtCs3cP53eQoTwO_11proc_macro25IdentINtB2_6BorrowBu_E6borrowCs2GZpXKFCdsl_11yoke_derive, symObjAddr: 0x3D60, symBinAddr: 0x506F8, symSize: 0x14 }
  - { offset: 0xC6070, size: 0x8, addend: 0x0, symName: __RINvCs6IAuOt8vWmF_3syn5parseNtNtB2_6derive11DeriveInputECs2GZpXKFCdsl_11yoke_derive, symObjAddr: 0x0, symBinAddr: 0x4C99C, symSize: 0x30 }
  - { offset: 0xCB2DF, size: 0x8, addend: 0x0, symName: __RNvYNtNtCs2GZpXKFCdsl_11yoke_derive7visitor11TypeVisitorNtNtNtCs6IAuOt8vWmF_3syn3gen5visit5Visit10visit_exprB6_, symObjAddr: 0x4AF0, symBinAddr: 0x51488, symSize: 0x3C }
  - { offset: 0xCB31E, size: 0x8, addend: 0x0, symName: __RNvYNtNtCs2GZpXKFCdsl_11yoke_derive7visitor11TypeVisitorNtNtNtCs6IAuOt8vWmF_3syn3gen5visit5Visit10visit_itemB6_, symObjAddr: 0x4B2C, symBinAddr: 0x514C4, symSize: 0x3C }
  - { offset: 0xCB360, size: 0x8, addend: 0x0, symName: __RNvYNtNtCs2GZpXKFCdsl_11yoke_derive7visitor11TypeVisitorNtNtNtCs6IAuOt8vWmF_3syn3gen5visit5Visit10visit_metaB6_, symObjAddr: 0x4B68, symBinAddr: 0x51500, symSize: 0x3C }
  - { offset: 0xCB3A2, size: 0x8, addend: 0x0, symName: __RNvYNtNtCs2GZpXKFCdsl_11yoke_derive7visitor11TypeVisitorNtNtNtCs6IAuOt8vWmF_3syn3gen5visit5Visit10visit_pathB6_, symObjAddr: 0x4BA4, symBinAddr: 0x5153C, symSize: 0x3C }
  - { offset: 0xCB3E4, size: 0x8, addend: 0x0, symName: __RNvYNtNtCs2GZpXKFCdsl_11yoke_derive7visitor11TypeVisitorNtNtNtCs6IAuOt8vWmF_3syn3gen5visit5Visit10visit_spanB6_, symObjAddr: 0x4BE0, symBinAddr: 0x51578, symSize: 0x24 }
  - { offset: 0xCB426, size: 0x8, addend: 0x0, symName: __RNvYNtNtCs2GZpXKFCdsl_11yoke_derive7visitor11TypeVisitorNtNtNtCs6IAuOt8vWmF_3syn3gen5visit5Visit10visit_stmtB6_, symObjAddr: 0x4C04, symBinAddr: 0x5159C, symSize: 0x3C }
  - { offset: 0xCB468, size: 0x8, addend: 0x0, symName: __RNvYNtNtCs2GZpXKFCdsl_11yoke_derive7visitor11TypeVisitorNtNtNtCs6IAuOt8vWmF_3syn3gen5visit5Visit10visit_typeB6_, symObjAddr: 0x4C40, symBinAddr: 0x515D8, symSize: 0x3C }
  - { offset: 0xCB4AA, size: 0x8, addend: 0x0, symName: __RNvYNtNtCs2GZpXKFCdsl_11yoke_derive7visitor11TypeVisitorNtNtNtCs6IAuOt8vWmF_3syn3gen5visit5Visit11visit_blockB6_, symObjAddr: 0x4C7C, symBinAddr: 0x51614, symSize: 0x3C }
  - { offset: 0xCB4E9, size: 0x8, addend: 0x0, symName: __RNvYNtNtCs2GZpXKFCdsl_11yoke_derive7visitor11TypeVisitorNtNtNtCs6IAuOt8vWmF_3syn3gen5visit5Visit11visit_fieldB6_, symObjAddr: 0x4CB8, symBinAddr: 0x51650, symSize: 0x3C }
  - { offset: 0xCB52B, size: 0x8, addend: 0x0, symName: __RNvYNtNtCs2GZpXKFCdsl_11yoke_derive7visitor11TypeVisitorNtNtNtCs6IAuOt8vWmF_3syn3gen5visit5Visit11visit_identB6_, symObjAddr: 0x4CF4, symBinAddr: 0x5168C, symSize: 0x3C }
  - { offset: 0xCB56D, size: 0x8, addend: 0x0, symName: __RNvYNtNtCs2GZpXKFCdsl_11yoke_derive7visitor11TypeVisitorNtNtNtCs6IAuOt8vWmF_3syn3gen5visit5Visit11visit_indexB6_, symObjAddr: 0x4D30, symBinAddr: 0x516C8, symSize: 0x3C }
  - { offset: 0xCB5AF, size: 0x8, addend: 0x0, symName: __RNvYNtNtCs2GZpXKFCdsl_11yoke_derive7visitor11TypeVisitorNtNtNtCs6IAuOt8vWmF_3syn3gen5visit5Visit11visit_labelB6_, symObjAddr: 0x4D6C, symBinAddr: 0x51704, symSize: 0x3C }
  - { offset: 0xCB5F1, size: 0x8, addend: 0x0, symName: __RNvYNtNtCs2GZpXKFCdsl_11yoke_derive7visitor11TypeVisitorNtNtNtCs6IAuOt8vWmF_3syn3gen5visit5Visit11visit_localB6_, symObjAddr: 0x4DA8, symBinAddr: 0x51740, symSize: 0x3C }
  - { offset: 0xCB633, size: 0x8, addend: 0x0, symName: __RNvYNtNtCs2GZpXKFCdsl_11yoke_derive7visitor11TypeVisitorNtNtNtCs6IAuOt8vWmF_3syn3gen5visit5Visit11visit_macroB6_, symObjAddr: 0x4DE4, symBinAddr: 0x5177C, symSize: 0x3C }
  - { offset: 0xCB675, size: 0x8, addend: 0x0, symName: __RNvYNtNtCs2GZpXKFCdsl_11yoke_derive7visitor11TypeVisitorNtNtNtCs6IAuOt8vWmF_3syn3gen5visit5Visit11visit_qselfB6_, symObjAddr: 0x4E20, symBinAddr: 0x517B8, symSize: 0x3C }
  - { offset: 0xCB6B7, size: 0x8, addend: 0x0, symName: __RNvYNtNtCs2GZpXKFCdsl_11yoke_derive7visitor11TypeVisitorNtNtNtCs6IAuOt8vWmF_3syn3gen5visit5Visit11visit_un_opB6_, symObjAddr: 0x4E5C, symBinAddr: 0x517F4, symSize: 0x3C }
  - { offset: 0xCB6F9, size: 0x8, addend: 0x0, symName: __RNvYNtNtCs2GZpXKFCdsl_11yoke_derive7visitor11TypeVisitorNtNtNtCs6IAuOt8vWmF_3syn3gen5visit5Visit12visit_bin_opB6_, symObjAddr: 0x4E98, symBinAddr: 0x51830, symSize: 0x3C }
  - { offset: 0xCB738, size: 0x8, addend: 0x0, symName: __RNvYNtNtCs2GZpXKFCdsl_11yoke_derive7visitor11TypeVisitorNtNtNtCs6IAuOt8vWmF_3syn3gen5visit5Visit12visit_fieldsB6_, symObjAddr: 0x4ED4, symBinAddr: 0x5186C, symSize: 0x3C }
  - { offset: 0xCB77A, size: 0x8, addend: 0x0, symName: __RNvYNtNtCs2GZpXKFCdsl_11yoke_derive7visitor11TypeVisitorNtNtNtCs6IAuOt8vWmF_3syn3gen5visit5Visit12visit_fn_argB6_, symObjAddr: 0x4F10, symBinAddr: 0x518A8, symSize: 0x3C }
  - { offset: 0xCB7BC, size: 0x8, addend: 0x0, symName: __RNvYNtNtCs2GZpXKFCdsl_11yoke_derive7visitor11TypeVisitorNtNtNtCs6IAuOt8vWmF_3syn3gen5visit5Visit12visit_memberB6_, symObjAddr: 0x4F4C, symBinAddr: 0x518E4, symSize: 0x3C }
  - { offset: 0xCB7FE, size: 0x8, addend: 0x0, symName: __RNvYNtNtCs2GZpXKFCdsl_11yoke_derive7visitor11TypeVisitorNtNtNtCs6IAuOt8vWmF_3syn3gen5visit5Visit12visit_pat_orB6_, symObjAddr: 0x4F88, symBinAddr: 0x51920, symSize: 0x3C }
  - { offset: 0xCB840, size: 0x8, addend: 0x0, symName: __RNvYNtNtCs2GZpXKFCdsl_11yoke_derive7visitor11TypeVisitorNtNtNtCs6IAuOt8vWmF_3syn3gen5visit5Visit13visit_expr_ifB6_, symObjAddr: 0x4FC4, symBinAddr: 0x5195C, symSize: 0x3C }
  - { offset: 0xCB87F, size: 0x8, addend: 0x0, symName: __RNvYNtNtCs2GZpXKFCdsl_11yoke_derive7visitor11TypeVisitorNtNtNtCs6IAuOt8vWmF_3syn3gen5visit5Visit13visit_item_fnB6_, symObjAddr: 0x5000, symBinAddr: 0x51998, symSize: 0x3C }
  - { offset: 0xCB8C1, size: 0x8, addend: 0x0, symName: __RNvYNtNtCs2GZpXKFCdsl_11yoke_derive7visitor11TypeVisitorNtNtNtCs6IAuOt8vWmF_3syn3gen5visit5Visit13visit_lit_intB6_, symObjAddr: 0x503C, symBinAddr: 0x519D4, symSize: 0x3C }
  - { offset: 0xCB903, size: 0x8, addend: 0x0, symName: __RNvYNtNtCs2GZpXKFCdsl_11yoke_derive7visitor11TypeVisitorNtNtNtCs6IAuOt8vWmF_3syn3gen5visit5Visit13visit_lit_strB6_, symObjAddr: 0x5078, symBinAddr: 0x51A10, symSize: 0x3C }
  - { offset: 0xCB945, size: 0x8, addend: 0x0, symName: __RNvYNtNtCs2GZpXKFCdsl_11yoke_derive7visitor11TypeVisitorNtNtNtCs6IAuOt8vWmF_3syn3gen5visit5Visit13visit_variantB6_, symObjAddr: 0x50B4, symBinAddr: 0x51A4C, symSize: 0x3C }
  - { offset: 0xCB987, size: 0x8, addend: 0x0, symName: __RNvYNtNtCs2GZpXKFCdsl_11yoke_derive7visitor11TypeVisitorNtNtNtCs6IAuOt8vWmF_3syn3gen5visit5Visit14visit_expr_letB6_, symObjAddr: 0x50F0, symBinAddr: 0x51A88, symSize: 0x3C }
  - { offset: 0xCB9C6, size: 0x8, addend: 0x0, symName: __RNvYNtNtCs2GZpXKFCdsl_11yoke_derive7visitor11TypeVisitorNtNtNtCs6IAuOt8vWmF_3syn3gen5visit5Visit14visit_expr_litB6_, symObjAddr: 0x512C, symBinAddr: 0x51AC4, symSize: 0x3C }
  - { offset: 0xCBA05, size: 0x8, addend: 0x0, symName: __RNvYNtNtCs2GZpXKFCdsl_11yoke_derive7visitor11TypeVisitorNtNtNtCs6IAuOt8vWmF_3syn3gen5visit5Visit14visit_expr_tryB6_, symObjAddr: 0x5168, symBinAddr: 0x51B00, symSize: 0x3C }
  - { offset: 0xCBA47, size: 0x8, addend: 0x0, symName: __RNvYNtNtCs2GZpXKFCdsl_11yoke_derive7visitor11TypeVisitorNtNtNtCs6IAuOt8vWmF_3syn3gen5visit5Visit14visit_genericsB6_, symObjAddr: 0x51A4, symBinAddr: 0x51B3C, symSize: 0x3C }
  - { offset: 0xCBA89, size: 0x8, addend: 0x0, symName: __RNvYNtNtCs2GZpXKFCdsl_11yoke_derive7visitor11TypeVisitorNtNtNtCs6IAuOt8vWmF_3syn3gen5visit5Visit14visit_item_modB6_, symObjAddr: 0x51E0, symBinAddr: 0x51B78, symSize: 0x3C }
  - { offset: 0xCBACB, size: 0x8, addend: 0x0, symName: __RNvYNtNtCs2GZpXKFCdsl_11yoke_derive7visitor11TypeVisitorNtNtNtCs6IAuOt8vWmF_3syn3gen5visit5Visit14visit_item_useB6_, symObjAddr: 0x521C, symBinAddr: 0x51BB4, symSize: 0x3C }
  - { offset: 0xCBB0D, size: 0x8, addend: 0x0, symName: __RNvYNtNtCs2GZpXKFCdsl_11yoke_derive7visitor11TypeVisitorNtNtNtCs6IAuOt8vWmF_3syn3gen5visit5Visit14visit_lit_boolB6_, symObjAddr: 0x5258, symBinAddr: 0x51BF0, symSize: 0x3C }
  - { offset: 0xCBB4F, size: 0x8, addend: 0x0, symName: __RNvYNtNtCs2GZpXKFCdsl_11yoke_derive7visitor11TypeVisitorNtNtNtCs6IAuOt8vWmF_3syn3gen5visit5Visit14visit_lit_byteB6_, symObjAddr: 0x5294, symBinAddr: 0x51C2C, symSize: 0x3C }
  - { offset: 0xCBB91, size: 0x8, addend: 0x0, symName: __RNvYNtNtCs2GZpXKFCdsl_11yoke_derive7visitor11TypeVisitorNtNtNtCs6IAuOt8vWmF_3syn3gen5visit5Visit14visit_lit_charB6_, symObjAddr: 0x52D0, symBinAddr: 0x51C68, symSize: 0x3C }
  - { offset: 0xCBBD3, size: 0x8, addend: 0x0, symName: __RNvYNtNtCs2GZpXKFCdsl_11yoke_derive7visitor11TypeVisitorNtNtNtCs6IAuOt8vWmF_3syn3gen5visit5Visit14visit_lit_cstrB6_, symObjAddr: 0x530C, symBinAddr: 0x51CA4, symSize: 0x3C }
  - { offset: 0xCBC15, size: 0x8, addend: 0x0, symName: __RNvYNtNtCs2GZpXKFCdsl_11yoke_derive7visitor11TypeVisitorNtNtNtCs6IAuOt8vWmF_3syn3gen5visit5Visit14visit_pat_restB6_, symObjAddr: 0x5348, symBinAddr: 0x51CE0, symSize: 0x3C }
  - { offset: 0xCBC57, size: 0x8, addend: 0x0, symName: __RNvYNtNtCs2GZpXKFCdsl_11yoke_derive7visitor11TypeVisitorNtNtNtCs6IAuOt8vWmF_3syn3gen5visit5Visit14visit_pat_typeB6_, symObjAddr: 0x5384, symBinAddr: 0x51D1C, symSize: 0x3C }
  - { offset: 0xCBC99, size: 0x8, addend: 0x0, symName: __RNvYNtNtCs2GZpXKFCdsl_11yoke_derive7visitor11TypeVisitorNtNtNtCs6IAuOt8vWmF_3syn3gen5visit5Visit14visit_pat_wildB6_, symObjAddr: 0x53C0, symBinAddr: 0x51D58, symSize: 0x3C }
  - { offset: 0xCBCDB, size: 0x8, addend: 0x0, symName: __RNvYNtNtCs2GZpXKFCdsl_11yoke_derive7visitor11TypeVisitorNtNtNtCs6IAuOt8vWmF_3syn3gen5visit5Visit14visit_receiverB6_, symObjAddr: 0x53FC, symBinAddr: 0x51D94, symSize: 0x3C }
  - { offset: 0xCBD1D, size: 0x8, addend: 0x0, symName: __RNvYNtNtCs2GZpXKFCdsl_11yoke_derive7visitor11TypeVisitorNtNtNtCs6IAuOt8vWmF_3syn3gen5visit5Visit14visit_type_ptrB6_, symObjAddr: 0x5438, symBinAddr: 0x51DD0, symSize: 0x3C }
  - { offset: 0xCBD5F, size: 0x8, addend: 0x0, symName: __RNvYNtNtCs2GZpXKFCdsl_11yoke_derive7visitor11TypeVisitorNtNtNtCs6IAuOt8vWmF_3syn3gen5visit5Visit14visit_use_globB6_, symObjAddr: 0x5474, symBinAddr: 0x51E0C, symSize: 0x3C }
  - { offset: 0xCBDA1, size: 0x8, addend: 0x0, symName: __RNvYNtNtCs2GZpXKFCdsl_11yoke_derive7visitor11TypeVisitorNtNtNtCs6IAuOt8vWmF_3syn3gen5visit5Visit14visit_use_nameB6_, symObjAddr: 0x54B0, symBinAddr: 0x51E48, symSize: 0x3C }
  - { offset: 0xCBDE3, size: 0x8, addend: 0x0, symName: __RNvYNtNtCs2GZpXKFCdsl_11yoke_derive7visitor11TypeVisitorNtNtNtCs6IAuOt8vWmF_3syn3gen5visit5Visit14visit_use_pathB6_, symObjAddr: 0x54EC, symBinAddr: 0x51E84, symSize: 0x3C }
  - { offset: 0xCBE25, size: 0x8, addend: 0x0, symName: __RNvYNtNtCs2GZpXKFCdsl_11yoke_derive7visitor11TypeVisitorNtNtNtCs6IAuOt8vWmF_3syn3gen5visit5Visit14visit_use_treeB6_, symObjAddr: 0x5528, symBinAddr: 0x51EC0, symSize: 0x3C }
  - { offset: 0xCBE67, size: 0x8, addend: 0x0, symName: __RNvYNtNtCs2GZpXKFCdsl_11yoke_derive7visitor11TypeVisitorNtNtNtCs6IAuOt8vWmF_3syn3gen5visit5Visit14visit_variadicB6_, symObjAddr: 0x5564, symBinAddr: 0x51EFC, symSize: 0x3C }
  - { offset: 0xCBEA9, size: 0x8, addend: 0x0, symName: __RNvYNtNtCs2GZpXKFCdsl_11yoke_derive7visitor11TypeVisitorNtNtNtCs6IAuOt8vWmF_3syn3gen5visit5Visit15visit_attributeB6_, symObjAddr: 0x55A0, symBinAddr: 0x51F38, symSize: 0x3C }
  - { offset: 0xCBEE8, size: 0x8, addend: 0x0, symName: __RNvYNtNtCs2GZpXKFCdsl_11yoke_derive7visitor11TypeVisitorNtNtNtCs6IAuOt8vWmF_3syn3gen5visit5Visit15visit_expr_callB6_, symObjAddr: 0x55DC, symBinAddr: 0x51F74, symSize: 0x3C }
  - { offset: 0xCBF27, size: 0x8, addend: 0x0, symName: __RNvYNtNtCs2GZpXKFCdsl_11yoke_derive7visitor11TypeVisitorNtNtNtCs6IAuOt8vWmF_3syn3gen5visit5Visit15visit_expr_castB6_, symObjAddr: 0x5618, symBinAddr: 0x51FB0, symSize: 0x3C }
  - { offset: 0xCBF66, size: 0x8, addend: 0x0, symName: __RNvYNtNtCs2GZpXKFCdsl_11yoke_derive7visitor11TypeVisitorNtNtNtCs6IAuOt8vWmF_3syn3gen5visit5Visit15visit_expr_loopB6_, symObjAddr: 0x5654, symBinAddr: 0x51FEC, symSize: 0x3C }
  - { offset: 0xCBFA5, size: 0x8, addend: 0x0, symName: __RNvYNtNtCs2GZpXKFCdsl_11yoke_derive7visitor11TypeVisitorNtNtNtCs6IAuOt8vWmF_3syn3gen5visit5Visit15visit_expr_pathB6_, symObjAddr: 0x5690, symBinAddr: 0x52028, symSize: 0x3C }
  - { offset: 0xCBFE7, size: 0x8, addend: 0x0, symName: __RNvYNtNtCs2GZpXKFCdsl_11yoke_derive7visitor11TypeVisitorNtNtNtCs6IAuOt8vWmF_3syn3gen5visit5Visit15visit_field_patB6_, symObjAddr: 0x56CC, symBinAddr: 0x52064, symSize: 0x3C }
  - { offset: 0xCC029, size: 0x8, addend: 0x0, symName: __RNvYNtNtCs2GZpXKFCdsl_11yoke_derive7visitor11TypeVisitorNtNtNtCs6IAuOt8vWmF_3syn3gen5visit5Visit15visit_impl_itemB6_, symObjAddr: 0x5708, symBinAddr: 0x520A0, symSize: 0x3C }
  - { offset: 0xCC06B, size: 0x8, addend: 0x0, symName: __RNvYNtNtCs2GZpXKFCdsl_11yoke_derive7visitor11TypeVisitorNtNtNtCs6IAuOt8vWmF_3syn3gen5visit5Visit15visit_item_enumB6_, symObjAddr: 0x5744, symBinAddr: 0x520DC, symSize: 0x3C }
  - { offset: 0xCC0AD, size: 0x8, addend: 0x0, symName: __RNvYNtNtCs2GZpXKFCdsl_11yoke_derive7visitor11TypeVisitorNtNtNtCs6IAuOt8vWmF_3syn3gen5visit5Visit15visit_item_implB6_, symObjAddr: 0x5780, symBinAddr: 0x52118, symSize: 0x3C }
  - { offset: 0xCC0EF, size: 0x8, addend: 0x0, symName: __RNvYNtNtCs2GZpXKFCdsl_11yoke_derive7visitor11TypeVisitorNtNtNtCs6IAuOt8vWmF_3syn3gen5visit5Visit15visit_item_typeB6_, symObjAddr: 0x57BC, symBinAddr: 0x52154, symSize: 0x3C }
  - { offset: 0xCC131, size: 0x8, addend: 0x0, symName: __RNvYNtNtCs2GZpXKFCdsl_11yoke_derive7visitor11TypeVisitorNtNtNtCs6IAuOt8vWmF_3syn3gen5visit5Visit15visit_lit_floatB6_, symObjAddr: 0x57F8, symBinAddr: 0x52190, symSize: 0x3C }
  - { offset: 0xCC173, size: 0x8, addend: 0x0, symName: __RNvYNtNtCs2GZpXKFCdsl_11yoke_derive7visitor11TypeVisitorNtNtNtCs6IAuOt8vWmF_3syn3gen5visit5Visit15visit_meta_listB6_, symObjAddr: 0x5834, symBinAddr: 0x521CC, symSize: 0x3C }
  - { offset: 0xCC1B5, size: 0x8, addend: 0x0, symName: __RNvYNtNtCs2GZpXKFCdsl_11yoke_derive7visitor11TypeVisitorNtNtNtCs6IAuOt8vWmF_3syn3gen5visit5Visit15visit_pat_identB6_, symObjAddr: 0x5870, symBinAddr: 0x52208, symSize: 0x3C }
  - { offset: 0xCC1F7, size: 0x8, addend: 0x0, symName: __RNvYNtNtCs2GZpXKFCdsl_11yoke_derive7visitor11TypeVisitorNtNtNtCs6IAuOt8vWmF_3syn3gen5visit5Visit15visit_pat_parenB6_, symObjAddr: 0x58AC, symBinAddr: 0x52244, symSize: 0x3C }
  - { offset: 0xCC239, size: 0x8, addend: 0x0, symName: __RNvYNtNtCs2GZpXKFCdsl_11yoke_derive7visitor11TypeVisitorNtNtNtCs6IAuOt8vWmF_3syn3gen5visit5Visit15visit_pat_sliceB6_, symObjAddr: 0x58E8, symBinAddr: 0x52280, symSize: 0x3C }
  - { offset: 0xCC27B, size: 0x8, addend: 0x0, symName: __RNvYNtNtCs2GZpXKFCdsl_11yoke_derive7visitor11TypeVisitorNtNtNtCs6IAuOt8vWmF_3syn3gen5visit5Visit15visit_pat_tupleB6_, symObjAddr: 0x5924, symBinAddr: 0x522BC, symSize: 0x3C }
  - { offset: 0xCC2BD, size: 0x8, addend: 0x0, symName: __RNvYNtNtCs2GZpXKFCdsl_11yoke_derive7visitor11TypeVisitorNtNtNtCs6IAuOt8vWmF_3syn3gen5visit5Visit15visit_signatureB6_, symObjAddr: 0x5960, symBinAddr: 0x522F8, symSize: 0x3C }
  - { offset: 0xCC2FF, size: 0x8, addend: 0x0, symName: __RNvYNtNtCs2GZpXKFCdsl_11yoke_derive7visitor11TypeVisitorNtNtNtCs6IAuOt8vWmF_3syn3gen5visit5Visit15visit_use_groupB6_, symObjAddr: 0x599C, symBinAddr: 0x52334, symSize: 0x3C }
  - { offset: 0xCC341, size: 0x8, addend: 0x0, symName: __RNvYNtNtCs2GZpXKFCdsl_11yoke_derive7visitor11TypeVisitorNtNtNtCs6IAuOt8vWmF_3syn3gen5visit5Visit16visit_assoc_typeB6_, symObjAddr: 0x59D8, symBinAddr: 0x52370, symSize: 0x3C }
  - { offset: 0xCC380, size: 0x8, addend: 0x0, symName: __RNvYNtNtCs2GZpXKFCdsl_11yoke_derive7visitor11TypeVisitorNtNtNtCs6IAuOt8vWmF_3syn3gen5visit5Visit16visit_attr_styleB6_, symObjAddr: 0x5A14, symBinAddr: 0x523AC, symSize: 0x3C }
  - { offset: 0xCC3BF, size: 0x8, addend: 0x0, symName: __RNvYNtNtCs2GZpXKFCdsl_11yoke_derive7visitor11TypeVisitorNtNtNtCs6IAuOt8vWmF_3syn3gen5visit5Visit16visit_constraintB6_, symObjAddr: 0x5A50, symBinAddr: 0x523E8, symSize: 0x3C }
  - { offset: 0xCC3FE, size: 0x8, addend: 0x0, symName: __RNvYNtNtCs2GZpXKFCdsl_11yoke_derive7visitor11TypeVisitorNtNtNtCs6IAuOt8vWmF_3syn3gen5visit5Visit16visit_expr_arrayB6_, symObjAddr: 0x5A8C, symBinAddr: 0x52424, symSize: 0x3C }
  - { offset: 0xCC43D, size: 0x8, addend: 0x0, symName: __RNvYNtNtCs2GZpXKFCdsl_11yoke_derive7visitor11TypeVisitorNtNtNtCs6IAuOt8vWmF_3syn3gen5visit5Visit16visit_expr_asyncB6_, symObjAddr: 0x5AC8, symBinAddr: 0x52460, symSize: 0x3C }
  - { offset: 0xCC47C, size: 0x8, addend: 0x0, symName: __RNvYNtNtCs2GZpXKFCdsl_11yoke_derive7visitor11TypeVisitorNtNtNtCs6IAuOt8vWmF_3syn3gen5visit5Visit16visit_expr_awaitB6_, symObjAddr: 0x5B04, symBinAddr: 0x5249C, symSize: 0x3C }
  - { offset: 0xCC4BB, size: 0x8, addend: 0x0, symName: __RNvYNtNtCs2GZpXKFCdsl_11yoke_derive7visitor11TypeVisitorNtNtNtCs6IAuOt8vWmF_3syn3gen5visit5Visit16visit_expr_blockB6_, symObjAddr: 0x5B40, symBinAddr: 0x524D8, symSize: 0x3C }
  - { offset: 0xCC4FA, size: 0x8, addend: 0x0, symName: __RNvYNtNtCs2GZpXKFCdsl_11yoke_derive7visitor11TypeVisitorNtNtNtCs6IAuOt8vWmF_3syn3gen5visit5Visit16visit_expr_breakB6_, symObjAddr: 0x5B7C, symBinAddr: 0x52514, symSize: 0x3C }
  - { offset: 0xCC539, size: 0x8, addend: 0x0, symName: __RNvYNtNtCs2GZpXKFCdsl_11yoke_derive7visitor11TypeVisitorNtNtNtCs6IAuOt8vWmF_3syn3gen5visit5Visit16visit_expr_constB6_, symObjAddr: 0x5BB8, symBinAddr: 0x52550, symSize: 0x3C }
  - { offset: 0xCC578, size: 0x8, addend: 0x0, symName: __RNvYNtNtCs2GZpXKFCdsl_11yoke_derive7visitor11TypeVisitorNtNtNtCs6IAuOt8vWmF_3syn3gen5visit5Visit16visit_expr_fieldB6_, symObjAddr: 0x5BF4, symBinAddr: 0x5258C, symSize: 0x3C }
  - { offset: 0xCC5B7, size: 0x8, addend: 0x0, symName: __RNvYNtNtCs2GZpXKFCdsl_11yoke_derive7visitor11TypeVisitorNtNtNtCs6IAuOt8vWmF_3syn3gen5visit5Visit16visit_expr_groupB6_, symObjAddr: 0x5C30, symBinAddr: 0x525C8, symSize: 0x3C }
  - { offset: 0xCC5F6, size: 0x8, addend: 0x0, symName: __RNvYNtNtCs2GZpXKFCdsl_11yoke_derive7visitor11TypeVisitorNtNtNtCs6IAuOt8vWmF_3syn3gen5visit5Visit16visit_expr_indexB6_, symObjAddr: 0x5C6C, symBinAddr: 0x52604, symSize: 0x3C }
  - { offset: 0xCC635, size: 0x8, addend: 0x0, symName: __RNvYNtNtCs2GZpXKFCdsl_11yoke_derive7visitor11TypeVisitorNtNtNtCs6IAuOt8vWmF_3syn3gen5visit5Visit16visit_expr_inferB6_, symObjAddr: 0x5CA8, symBinAddr: 0x52640, symSize: 0x3C }
  - { offset: 0xCC674, size: 0x8, addend: 0x0, symName: __RNvYNtNtCs2GZpXKFCdsl_11yoke_derive7visitor11TypeVisitorNtNtNtCs6IAuOt8vWmF_3syn3gen5visit5Visit16visit_expr_macroB6_, symObjAddr: 0x5CE4, symBinAddr: 0x5267C, symSize: 0x3C }
  - { offset: 0xCC6B3, size: 0x8, addend: 0x0, symName: __RNvYNtNtCs2GZpXKFCdsl_11yoke_derive7visitor11TypeVisitorNtNtNtCs6IAuOt8vWmF_3syn3gen5visit5Visit16visit_expr_matchB6_, symObjAddr: 0x5D20, symBinAddr: 0x526B8, symSize: 0x3C }
  - { offset: 0xCC6F2, size: 0x8, addend: 0x0, symName: __RNvYNtNtCs2GZpXKFCdsl_11yoke_derive7visitor11TypeVisitorNtNtNtCs6IAuOt8vWmF_3syn3gen5visit5Visit16visit_expr_parenB6_, symObjAddr: 0x5D5C, symBinAddr: 0x526F4, symSize: 0x3C }
  - { offset: 0xCC734, size: 0x8, addend: 0x0, symName: __RNvYNtNtCs2GZpXKFCdsl_11yoke_derive7visitor11TypeVisitorNtNtNtCs6IAuOt8vWmF_3syn3gen5visit5Visit16visit_expr_rangeB6_, symObjAddr: 0x5D98, symBinAddr: 0x52730, symSize: 0x3C }
  - { offset: 0xCC776, size: 0x8, addend: 0x0, symName: __RNvYNtNtCs2GZpXKFCdsl_11yoke_derive7visitor11TypeVisitorNtNtNtCs6IAuOt8vWmF_3syn3gen5visit5Visit16visit_expr_tupleB6_, symObjAddr: 0x5DD4, symBinAddr: 0x5276C, symSize: 0x3C }
  - { offset: 0xCC7B8, size: 0x8, addend: 0x0, symName: __RNvYNtNtCs2GZpXKFCdsl_11yoke_derive7visitor11TypeVisitorNtNtNtCs6IAuOt8vWmF_3syn3gen5visit5Visit16visit_expr_unaryB6_, symObjAddr: 0x5E10, symBinAddr: 0x527A8, symSize: 0x3C }
  - { offset: 0xCC7FA, size: 0x8, addend: 0x0, symName: __RNvYNtNtCs2GZpXKFCdsl_11yoke_derive7visitor11TypeVisitorNtNtNtCs6IAuOt8vWmF_3syn3gen5visit5Visit16visit_expr_whileB6_, symObjAddr: 0x5E4C, symBinAddr: 0x527E4, symSize: 0x3C }
  - { offset: 0xCC83C, size: 0x8, addend: 0x0, symName: __RNvYNtNtCs2GZpXKFCdsl_11yoke_derive7visitor11TypeVisitorNtNtNtCs6IAuOt8vWmF_3syn3gen5visit5Visit16visit_expr_yieldB6_, symObjAddr: 0x5E88, symBinAddr: 0x52820, symSize: 0x3C }
  - { offset: 0xCC87E, size: 0x8, addend: 0x0, symName: __RNvYNtNtCs2GZpXKFCdsl_11yoke_derive7visitor11TypeVisitorNtNtNtCs6IAuOt8vWmF_3syn3gen5visit5Visit16visit_item_constB6_, symObjAddr: 0x5EC4, symBinAddr: 0x5285C, symSize: 0x3C }
  - { offset: 0xCC8C0, size: 0x8, addend: 0x0, symName: __RNvYNtNtCs2GZpXKFCdsl_11yoke_derive7visitor11TypeVisitorNtNtNtCs6IAuOt8vWmF_3syn3gen5visit5Visit16visit_item_macroB6_, symObjAddr: 0x5F00, symBinAddr: 0x52898, symSize: 0x3C }
  - { offset: 0xCC902, size: 0x8, addend: 0x0, symName: __RNvYNtNtCs2GZpXKFCdsl_11yoke_derive7visitor11TypeVisitorNtNtNtCs6IAuOt8vWmF_3syn3gen5visit5Visit16visit_item_traitB6_, symObjAddr: 0x5F3C, symBinAddr: 0x528D4, symSize: 0x3C }
  - { offset: 0xCC944, size: 0x8, addend: 0x0, symName: __RNvYNtNtCs2GZpXKFCdsl_11yoke_derive7visitor11TypeVisitorNtNtNtCs6IAuOt8vWmF_3syn3gen5visit5Visit16visit_item_unionB6_, symObjAddr: 0x5F78, symBinAddr: 0x52910, symSize: 0x3C }
  - { offset: 0xCC986, size: 0x8, addend: 0x0, symName: __RNvYNtNtCs2GZpXKFCdsl_11yoke_derive7visitor11TypeVisitorNtNtNtCs6IAuOt8vWmF_3syn3gen5visit5Visit16visit_local_initB6_, symObjAddr: 0x5FB4, symBinAddr: 0x5294C, symSize: 0x3C }
  - { offset: 0xCC9C8, size: 0x8, addend: 0x0, symName: __RNvYNtNtCs2GZpXKFCdsl_11yoke_derive7visitor11TypeVisitorNtNtNtCs6IAuOt8vWmF_3syn3gen5visit5Visit16visit_pat_structB6_, symObjAddr: 0x5FF0, symBinAddr: 0x52988, symSize: 0x3C }
  - { offset: 0xCCA0A, size: 0x8, addend: 0x0, symName: __RNvYNtNtCs2GZpXKFCdsl_11yoke_derive7visitor11TypeVisitorNtNtNtCs6IAuOt8vWmF_3syn3gen5visit5Visit16visit_stmt_macroB6_, symObjAddr: 0x602C, symBinAddr: 0x529C4, symSize: 0x3C }
  - { offset: 0xCCA4C, size: 0x8, addend: 0x0, symName: __RNvYNtNtCs2GZpXKFCdsl_11yoke_derive7visitor11TypeVisitorNtNtNtCs6IAuOt8vWmF_3syn3gen5visit5Visit16visit_trait_itemB6_, symObjAddr: 0x6068, symBinAddr: 0x52A00, symSize: 0x3C }
  - { offset: 0xCCA8E, size: 0x8, addend: 0x0, symName: __RNvYNtNtCs2GZpXKFCdsl_11yoke_derive7visitor11TypeVisitorNtNtNtCs6IAuOt8vWmF_3syn3gen5visit5Visit16visit_type_arrayB6_, symObjAddr: 0x60A4, symBinAddr: 0x52A3C, symSize: 0x3C }
  - { offset: 0xCCAD0, size: 0x8, addend: 0x0, symName: __RNvYNtNtCs2GZpXKFCdsl_11yoke_derive7visitor11TypeVisitorNtNtNtCs6IAuOt8vWmF_3syn3gen5visit5Visit16visit_type_groupB6_, symObjAddr: 0x60E0, symBinAddr: 0x52A78, symSize: 0x3C }
  - { offset: 0xCCB12, size: 0x8, addend: 0x0, symName: __RNvYNtNtCs2GZpXKFCdsl_11yoke_derive7visitor11TypeVisitorNtNtNtCs6IAuOt8vWmF_3syn3gen5visit5Visit16visit_type_inferB6_, symObjAddr: 0x611C, symBinAddr: 0x52AB4, symSize: 0x3C }
  - { offset: 0xCCB54, size: 0x8, addend: 0x0, symName: __RNvYNtNtCs2GZpXKFCdsl_11yoke_derive7visitor11TypeVisitorNtNtNtCs6IAuOt8vWmF_3syn3gen5visit5Visit16visit_type_macroB6_, symObjAddr: 0x6158, symBinAddr: 0x52AF0, symSize: 0x3C }
  - { offset: 0xCCB96, size: 0x8, addend: 0x0, symName: __RNvYNtNtCs2GZpXKFCdsl_11yoke_derive7visitor11TypeVisitorNtNtNtCs6IAuOt8vWmF_3syn3gen5visit5Visit16visit_type_neverB6_, symObjAddr: 0x6194, symBinAddr: 0x52B2C, symSize: 0x3C }
  - { offset: 0xCCBD8, size: 0x8, addend: 0x0, symName: __RNvYNtNtCs2GZpXKFCdsl_11yoke_derive7visitor11TypeVisitorNtNtNtCs6IAuOt8vWmF_3syn3gen5visit5Visit16visit_type_paramB6_, symObjAddr: 0x61D0, symBinAddr: 0x52B68, symSize: 0x3C }
  - { offset: 0xCCC1A, size: 0x8, addend: 0x0, symName: __RNvYNtNtCs2GZpXKFCdsl_11yoke_derive7visitor11TypeVisitorNtNtNtCs6IAuOt8vWmF_3syn3gen5visit5Visit16visit_type_parenB6_, symObjAddr: 0x620C, symBinAddr: 0x52BA4, symSize: 0x3C }
  - { offset: 0xCCC5C, size: 0x8, addend: 0x0, symName: __RNvYNtNtCs2GZpXKFCdsl_11yoke_derive7visitor11TypeVisitorNtNtNtCs6IAuOt8vWmF_3syn3gen5visit5Visit16visit_type_sliceB6_, symObjAddr: 0x6248, symBinAddr: 0x52BE0, symSize: 0x3C }
  - { offset: 0xCCC9E, size: 0x8, addend: 0x0, symName: __RNvYNtNtCs2GZpXKFCdsl_11yoke_derive7visitor11TypeVisitorNtNtNtCs6IAuOt8vWmF_3syn3gen5visit5Visit16visit_type_tupleB6_, symObjAddr: 0x6284, symBinAddr: 0x52C1C, symSize: 0x3C }
  - { offset: 0xCCCE0, size: 0x8, addend: 0x0, symName: __RNvYNtNtCs2GZpXKFCdsl_11yoke_derive7visitor11TypeVisitorNtNtNtCs6IAuOt8vWmF_3syn3gen5visit5Visit16visit_use_renameB6_, symObjAddr: 0x62C0, symBinAddr: 0x52C58, symSize: 0x3C }
  - { offset: 0xCCD22, size: 0x8, addend: 0x0, symName: __RNvYNtNtCs2GZpXKFCdsl_11yoke_derive7visitor11TypeVisitorNtNtNtCs6IAuOt8vWmF_3syn3gen5visit5Visit16visit_visibilityB6_, symObjAddr: 0x62FC, symBinAddr: 0x52C94, symSize: 0x3C }
  - { offset: 0xCCD64, size: 0x8, addend: 0x0, symName: __RNvYNtNtCs2GZpXKFCdsl_11yoke_derive7visitor11TypeVisitorNtNtNtCs6IAuOt8vWmF_3syn3gen5visit5Visit17visit_assoc_constB6_, symObjAddr: 0x6338, symBinAddr: 0x52CD0, symSize: 0x3C }
  - { offset: 0xCCDA3, size: 0x8, addend: 0x0, symName: __RNvYNtNtCs2GZpXKFCdsl_11yoke_derive7visitor11TypeVisitorNtNtNtCs6IAuOt8vWmF_3syn3gen5visit5Visit17visit_bare_fn_argB6_, symObjAddr: 0x6374, symBinAddr: 0x52D0C, symSize: 0x3C }
  - { offset: 0xCCDE2, size: 0x8, addend: 0x0, symName: __RNvYNtNtCs2GZpXKFCdsl_11yoke_derive7visitor11TypeVisitorNtNtNtCs6IAuOt8vWmF_3syn3gen5visit5Visit17visit_const_paramB6_, symObjAddr: 0x63B0, symBinAddr: 0x52D48, symSize: 0x3C }
  - { offset: 0xCCE21, size: 0x8, addend: 0x0, symName: __RNvYNtNtCs2GZpXKFCdsl_11yoke_derive7visitor11TypeVisitorNtNtNtCs6IAuOt8vWmF_3syn3gen5visit5Visit17visit_expr_assignB6_, symObjAddr: 0x63EC, symBinAddr: 0x52D84, symSize: 0x3C }
  - { offset: 0xCCE60, size: 0x8, addend: 0x0, symName: __RNvYNtNtCs2GZpXKFCdsl_11yoke_derive7visitor11TypeVisitorNtNtNtCs6IAuOt8vWmF_3syn3gen5visit5Visit17visit_expr_binaryB6_, symObjAddr: 0x6428, symBinAddr: 0x52DC0, symSize: 0x3C }
  - { offset: 0xCCE9F, size: 0x8, addend: 0x0, symName: __RNvYNtNtCs2GZpXKFCdsl_11yoke_derive7visitor11TypeVisitorNtNtNtCs6IAuOt8vWmF_3syn3gen5visit5Visit17visit_expr_repeatB6_, symObjAddr: 0x6464, symBinAddr: 0x52DFC, symSize: 0x3C }
  - { offset: 0xCCEE1, size: 0x8, addend: 0x0, symName: __RNvYNtNtCs2GZpXKFCdsl_11yoke_derive7visitor11TypeVisitorNtNtNtCs6IAuOt8vWmF_3syn3gen5visit5Visit17visit_expr_returnB6_, symObjAddr: 0x64A0, symBinAddr: 0x52E38, symSize: 0x3C }
  - { offset: 0xCCF23, size: 0x8, addend: 0x0, symName: __RNvYNtNtCs2GZpXKFCdsl_11yoke_derive7visitor11TypeVisitorNtNtNtCs6IAuOt8vWmF_3syn3gen5visit5Visit17visit_expr_structB6_, symObjAddr: 0x64DC, symBinAddr: 0x52E74, symSize: 0x3C }
  - { offset: 0xCCF65, size: 0x8, addend: 0x0, symName: __RNvYNtNtCs2GZpXKFCdsl_11yoke_derive7visitor11TypeVisitorNtNtNtCs6IAuOt8vWmF_3syn3gen5visit5Visit17visit_expr_unsafeB6_, symObjAddr: 0x6518, symBinAddr: 0x52EB0, symSize: 0x3C }
  - { offset: 0xCCFA7, size: 0x8, addend: 0x0, symName: __RNvYNtNtCs2GZpXKFCdsl_11yoke_derive7visitor11TypeVisitorNtNtNtCs6IAuOt8vWmF_3syn3gen5visit5Visit17visit_field_valueB6_, symObjAddr: 0x6554, symBinAddr: 0x52EEC, symSize: 0x3C }
  - { offset: 0xCCFE9, size: 0x8, addend: 0x0, symName: __RNvYNtNtCs2GZpXKFCdsl_11yoke_derive7visitor11TypeVisitorNtNtNtCs6IAuOt8vWmF_3syn3gen5visit5Visit17visit_item_staticB6_, symObjAddr: 0x6590, symBinAddr: 0x52F28, symSize: 0x3C }
  - { offset: 0xCD02B, size: 0x8, addend: 0x0, symName: __RNvYNtNtCs2GZpXKFCdsl_11yoke_derive7visitor11TypeVisitorNtNtNtCs6IAuOt8vWmF_3syn3gen5visit5Visit17visit_item_structB6_, symObjAddr: 0x65CC, symBinAddr: 0x52F64, symSize: 0x3C }
  - { offset: 0xCD06D, size: 0x8, addend: 0x0, symName: __RNvYNtNtCs2GZpXKFCdsl_11yoke_derive7visitor11TypeVisitorNtNtNtCs6IAuOt8vWmF_3syn3gen5visit5Visit17visit_return_typeB6_, symObjAddr: 0x6608, symBinAddr: 0x52FA0, symSize: 0x3C }
  - { offset: 0xCD0AF, size: 0x8, addend: 0x0, symName: __RNvYNtNtCs2GZpXKFCdsl_11yoke_derive7visitor11TypeVisitorNtNtNtCs6IAuOt8vWmF_3syn3gen5visit5Visit17visit_trait_boundB6_, symObjAddr: 0x6644, symBinAddr: 0x52FDC, symSize: 0x3C }
  - { offset: 0xCD0F1, size: 0x8, addend: 0x0, symName: __RNvYNtNtCs2GZpXKFCdsl_11yoke_derive7visitor11TypeVisitorNtNtNtCs6IAuOt8vWmF_3syn3gen5visit5Visit18visit_expr_closureB6_, symObjAddr: 0x6680, symBinAddr: 0x53018, symSize: 0x3C }
  - { offset: 0xCD130, size: 0x8, addend: 0x0, symName: __RNvYNtNtCs2GZpXKFCdsl_11yoke_derive7visitor11TypeVisitorNtNtNtCs6IAuOt8vWmF_3syn3gen5visit5Visit18visit_fields_namedB6_, symObjAddr: 0x66BC, symBinAddr: 0x53054, symSize: 0x3C }
  - { offset: 0xCD172, size: 0x8, addend: 0x0, symName: __RNvYNtNtCs2GZpXKFCdsl_11yoke_derive7visitor11TypeVisitorNtNtNtCs6IAuOt8vWmF_3syn3gen5visit5Visit18visit_foreign_itemB6_, symObjAddr: 0x66F8, symBinAddr: 0x53090, symSize: 0x3C }
  - { offset: 0xCD1B4, size: 0x8, addend: 0x0, symName: __RNvYNtNtCs2GZpXKFCdsl_11yoke_derive7visitor11TypeVisitorNtNtNtCs6IAuOt8vWmF_3syn3gen5visit5Visit18visit_impl_item_fnB6_, symObjAddr: 0x6734, symBinAddr: 0x530CC, symSize: 0x3C }
  - { offset: 0xCD1F6, size: 0x8, addend: 0x0, symName: __RNvYNtNtCs2GZpXKFCdsl_11yoke_derive7visitor11TypeVisitorNtNtNtCs6IAuOt8vWmF_3syn3gen5visit5Visit18visit_lit_byte_strB6_, symObjAddr: 0x6770, symBinAddr: 0x53108, symSize: 0x3C }
  - { offset: 0xCD238, size: 0x8, addend: 0x0, symName: __RNvYNtNtCs2GZpXKFCdsl_11yoke_derive7visitor11TypeVisitorNtNtNtCs6IAuOt8vWmF_3syn3gen5visit5Visit18visit_path_segmentB6_, symObjAddr: 0x67AC, symBinAddr: 0x53144, symSize: 0x3C }
  - { offset: 0xCD27A, size: 0x8, addend: 0x0, symName: __RNvYNtNtCs2GZpXKFCdsl_11yoke_derive7visitor11TypeVisitorNtNtNtCs6IAuOt8vWmF_3syn3gen5visit5Visit18visit_range_limitsB6_, symObjAddr: 0x67E8, symBinAddr: 0x53180, symSize: 0x3C }
  - { offset: 0xCD2BC, size: 0x8, addend: 0x0, symName: __RNvYNtNtCs2GZpXKFCdsl_11yoke_derive7visitor11TypeVisitorNtNtNtCs6IAuOt8vWmF_3syn3gen5visit5Visit18visit_token_streamB6_, symObjAddr: 0x6824, symBinAddr: 0x531BC, symSize: 0x24 }
  - { offset: 0xCD2FE, size: 0x8, addend: 0x0, symName: __RNvYNtNtCs2GZpXKFCdsl_11yoke_derive7visitor11TypeVisitorNtNtNtCs6IAuOt8vWmF_3syn3gen5visit5Visit18visit_type_bare_fnB6_, symObjAddr: 0x6848, symBinAddr: 0x531E0, symSize: 0x3C }
  - { offset: 0xCD340, size: 0x8, addend: 0x0, symName: __RNvYNtNtCs2GZpXKFCdsl_11yoke_derive7visitor11TypeVisitorNtNtNtCs6IAuOt8vWmF_3syn3gen5visit5Visit18visit_where_clauseB6_, symObjAddr: 0x6884, symBinAddr: 0x5321C, symSize: 0x3C }
  - { offset: 0xCD382, size: 0x8, addend: 0x0, symName: __RNvYNtNtCs2GZpXKFCdsl_11yoke_derive7visitor11TypeVisitorNtNtNtCs6IAuOt8vWmF_3syn3gen5visit5Visit19visit_bare_variadicB6_, symObjAddr: 0x68C0, symBinAddr: 0x53258, symSize: 0x3C }
  - { offset: 0xCD3C1, size: 0x8, addend: 0x0, symName: __RNvYNtNtCs2GZpXKFCdsl_11yoke_derive7visitor11TypeVisitorNtNtNtCs6IAuOt8vWmF_3syn3gen5visit5Visit19visit_expr_continueB6_, symObjAddr: 0x68FC, symBinAddr: 0x53294, symSize: 0x3C }
  - { offset: 0xCD400, size: 0x8, addend: 0x0, symName: __RNvYNtNtCs2GZpXKFCdsl_11yoke_derive7visitor11TypeVisitorNtNtNtCs6IAuOt8vWmF_3syn3gen5visit5Visit19visit_expr_for_loopB6_, symObjAddr: 0x6938, symBinAddr: 0x532D0, symSize: 0x3C }
  - { offset: 0xCD43F, size: 0x8, addend: 0x0, symName: __RNvYNtNtCs2GZpXKFCdsl_11yoke_derive7visitor11TypeVisitorNtNtNtCs6IAuOt8vWmF_3syn3gen5visit5Visit19visit_expr_raw_addrB6_, symObjAddr: 0x6974, symBinAddr: 0x5330C, symSize: 0x3C }
  - { offset: 0xCD481, size: 0x8, addend: 0x0, symName: __RNvYNtNtCs2GZpXKFCdsl_11yoke_derive7visitor11TypeVisitorNtNtNtCs6IAuOt8vWmF_3syn3gen5visit5Visit19visit_generic_paramB6_, symObjAddr: 0x69B0, symBinAddr: 0x53348, symSize: 0x3C }
  - { offset: 0xCD4C3, size: 0x8, addend: 0x0, symName: __RNvYNtNtCs2GZpXKFCdsl_11yoke_derive7visitor11TypeVisitorNtNtNtCs6IAuOt8vWmF_3syn3gen5visit5Visit19visit_pat_referenceB6_, symObjAddr: 0x69EC, symBinAddr: 0x53384, symSize: 0x3C }
  - { offset: 0xCD505, size: 0x8, addend: 0x0, symName: __RNvYNtNtCs2GZpXKFCdsl_11yoke_derive7visitor11TypeVisitorNtNtNtCs6IAuOt8vWmF_3syn3gen5visit5Visit19visit_trait_item_fnB6_, symObjAddr: 0x6A28, symBinAddr: 0x533C0, symSize: 0x3C }
  - { offset: 0xCD547, size: 0x8, addend: 0x0, symName: __RNvYNtNtCs2GZpXKFCdsl_11yoke_derive7visitor11TypeVisitorNtNtNtCs6IAuOt8vWmF_3syn3gen5visit5Visit20visit_captured_paramB6_, symObjAddr: 0x6A64, symBinAddr: 0x533FC, symSize: 0x3C }
  - { offset: 0xCD586, size: 0x8, addend: 0x0, symName: __RNvYNtNtCs2GZpXKFCdsl_11yoke_derive7visitor11TypeVisitorNtNtNtCs6IAuOt8vWmF_3syn3gen5visit5Visit20visit_expr_referenceB6_, symObjAddr: 0x6AA0, symBinAddr: 0x53438, symSize: 0x3C }
  - { offset: 0xCD5C8, size: 0x8, addend: 0x0, symName: __RNvYNtNtCs2GZpXKFCdsl_11yoke_derive7visitor11TypeVisitorNtNtNtCs6IAuOt8vWmF_3syn3gen5visit5Visit20visit_expr_try_blockB6_, symObjAddr: 0x6ADC, symBinAddr: 0x53474, symSize: 0x3C }
  - { offset: 0xCD60A, size: 0x8, addend: 0x0, symName: __RNvYNtNtCs2GZpXKFCdsl_11yoke_derive7visitor11TypeVisitorNtNtNtCs6IAuOt8vWmF_3syn3gen5visit5Visit20visit_fields_unnamedB6_, symObjAddr: 0x6B18, symBinAddr: 0x534B0, symSize: 0x3C }
  - { offset: 0xCD64C, size: 0x8, addend: 0x0, symName: __RNvYNtNtCs2GZpXKFCdsl_11yoke_derive7visitor11TypeVisitorNtNtNtCs6IAuOt8vWmF_3syn3gen5visit5Visit20visit_impl_item_typeB6_, symObjAddr: 0x6B54, symBinAddr: 0x534EC, symSize: 0x3C }
  - { offset: 0xCD68E, size: 0x8, addend: 0x0, symName: __RNvYNtNtCs2GZpXKFCdsl_11yoke_derive7visitor11TypeVisitorNtNtNtCs6IAuOt8vWmF_3syn3gen5visit5Visit20visit_lifetime_paramB6_, symObjAddr: 0x6B90, symBinAddr: 0x53528, symSize: 0x3C }
  - { offset: 0xCD6D0, size: 0x8, addend: 0x0, symName: __RNvYNtNtCs2GZpXKFCdsl_11yoke_derive7visitor11TypeVisitorNtNtNtCs6IAuOt8vWmF_3syn3gen5visit5Visit20visit_path_argumentsB6_, symObjAddr: 0x6BCC, symBinAddr: 0x53564, symSize: 0x3C }
  - { offset: 0xCD712, size: 0x8, addend: 0x0, symName: __RNvYNtNtCs2GZpXKFCdsl_11yoke_derive7visitor11TypeVisitorNtNtNtCs6IAuOt8vWmF_3syn3gen5visit5Visit20visit_predicate_typeB6_, symObjAddr: 0x6C08, symBinAddr: 0x535A0, symSize: 0x3C }
  - { offset: 0xCD754, size: 0x8, addend: 0x0, symName: __RNvYNtNtCs2GZpXKFCdsl_11yoke_derive7visitor11TypeVisitorNtNtNtCs6IAuOt8vWmF_3syn3gen5visit5Visit20visit_type_referenceB6_, symObjAddr: 0x6C44, symBinAddr: 0x535DC, symSize: 0x3C }
  - { offset: 0xCD796, size: 0x8, addend: 0x0, symName: __RNvYNtNtCs2GZpXKFCdsl_11yoke_derive7visitor11TypeVisitorNtNtNtCs6IAuOt8vWmF_3syn3gen5visit5Visit20visit_vis_restrictedB6_, symObjAddr: 0x6C80, symBinAddr: 0x53618, symSize: 0x3C }
  - { offset: 0xCD7D8, size: 0x8, addend: 0x0, symName: __RNvYNtNtCs2GZpXKFCdsl_11yoke_derive7visitor11TypeVisitorNtNtNtCs6IAuOt8vWmF_3syn3gen5visit5Visit21visit_bound_lifetimesB6_, symObjAddr: 0x6CBC, symBinAddr: 0x53654, symSize: 0x3C }
  - { offset: 0xCD817, size: 0x8, addend: 0x0, symName: __RNvYNtNtCs2GZpXKFCdsl_11yoke_derive7visitor11TypeVisitorNtNtNtCs6IAuOt8vWmF_3syn3gen5visit5Visit21visit_foreign_item_fnB6_, symObjAddr: 0x6CF8, symBinAddr: 0x53690, symSize: 0x3C }
  - { offset: 0xCD859, size: 0x8, addend: 0x0, symName: __RNvYNtNtCs2GZpXKFCdsl_11yoke_derive7visitor11TypeVisitorNtNtNtCs6IAuOt8vWmF_3syn3gen5visit5Visit21visit_impl_item_constB6_, symObjAddr: 0x6D34, symBinAddr: 0x536CC, symSize: 0x3C }
  - { offset: 0xCD89B, size: 0x8, addend: 0x0, symName: __RNvYNtNtCs2GZpXKFCdsl_11yoke_derive7visitor11TypeVisitorNtNtNtCs6IAuOt8vWmF_3syn3gen5visit5Visit21visit_impl_item_macroB6_, symObjAddr: 0x6D70, symBinAddr: 0x53708, symSize: 0x3C }
  - { offset: 0xCD8DD, size: 0x8, addend: 0x0, symName: __RNvYNtNtCs2GZpXKFCdsl_11yoke_derive7visitor11TypeVisitorNtNtNtCs6IAuOt8vWmF_3syn3gen5visit5Visit21visit_macro_delimiterB6_, symObjAddr: 0x6DAC, symBinAddr: 0x53744, symSize: 0x3C }
  - { offset: 0xCD91F, size: 0x8, addend: 0x0, symName: __RNvYNtNtCs2GZpXKFCdsl_11yoke_derive7visitor11TypeVisitorNtNtNtCs6IAuOt8vWmF_3syn3gen5visit5Visit21visit_meta_name_valueB6_, symObjAddr: 0x6DE8, symBinAddr: 0x53780, symSize: 0x3C }
  - { offset: 0xCD961, size: 0x8, addend: 0x0, symName: __RNvYNtNtCs2GZpXKFCdsl_11yoke_derive7visitor11TypeVisitorNtNtNtCs6IAuOt8vWmF_3syn3gen5visit5Visit21visit_precise_captureB6_, symObjAddr: 0x6E24, symBinAddr: 0x537BC, symSize: 0x3C }
  - { offset: 0xCD9A3, size: 0x8, addend: 0x0, symName: __RNvYNtNtCs2GZpXKFCdsl_11yoke_derive7visitor11TypeVisitorNtNtNtCs6IAuOt8vWmF_3syn3gen5visit5Visit21visit_trait_item_typeB6_, symObjAddr: 0x6E60, symBinAddr: 0x537F8, symSize: 0x3C }
  - { offset: 0xCD9E5, size: 0x8, addend: 0x0, symName: __RNvYNtNtCs2GZpXKFCdsl_11yoke_derive7visitor11TypeVisitorNtNtNtCs6IAuOt8vWmF_3syn3gen5visit5Visit21visit_type_impl_traitB6_, symObjAddr: 0x6E9C, symBinAddr: 0x53834, symSize: 0x3C }
  - { offset: 0xCDA27, size: 0x8, addend: 0x0, symName: __RNvYNtNtCs2GZpXKFCdsl_11yoke_derive7visitor11TypeVisitorNtNtNtCs6IAuOt8vWmF_3syn3gen5visit5Visit21visit_where_predicateB6_, symObjAddr: 0x6ED8, symBinAddr: 0x53870, symSize: 0x3C }
  - { offset: 0xCDA69, size: 0x8, addend: 0x0, symName: __RNvYNtNtCs2GZpXKFCdsl_11yoke_derive7visitor11TypeVisitorNtNtNtCs6IAuOt8vWmF_3syn3gen5visit5Visit22visit_expr_method_callB6_, symObjAddr: 0x6F14, symBinAddr: 0x538AC, symSize: 0x3C }
  - { offset: 0xCDAA8, size: 0x8, addend: 0x0, symName: __RNvYNtNtCs2GZpXKFCdsl_11yoke_derive7visitor11TypeVisitorNtNtNtCs6IAuOt8vWmF_3syn3gen5visit5Visit22visit_field_mutabilityB6_, symObjAddr: 0x6F50, symBinAddr: 0x538E8, symSize: 0x3C }
  - { offset: 0xCDAEA, size: 0x8, addend: 0x0, symName: __RNvYNtNtCs2GZpXKFCdsl_11yoke_derive7visitor11TypeVisitorNtNtNtCs6IAuOt8vWmF_3syn3gen5visit5Visit22visit_generic_argumentB6_, symObjAddr: 0x6F8C, symBinAddr: 0x53924, symSize: 0x3C }
  - { offset: 0xCDB2C, size: 0x8, addend: 0x0, symName: __RNvYNtNtCs2GZpXKFCdsl_11yoke_derive7visitor11TypeVisitorNtNtNtCs6IAuOt8vWmF_3syn3gen5visit5Visit22visit_item_foreign_modB6_, symObjAddr: 0x6FC8, symBinAddr: 0x53960, symSize: 0x3C }
  - { offset: 0xCDB6E, size: 0x8, addend: 0x0, symName: __RNvYNtNtCs2GZpXKFCdsl_11yoke_derive7visitor11TypeVisitorNtNtNtCs6IAuOt8vWmF_3syn3gen5visit5Visit22visit_item_trait_aliasB6_, symObjAddr: 0x7004, symBinAddr: 0x5399C, symSize: 0x3C }
  - { offset: 0xCDBB0, size: 0x8, addend: 0x0, symName: __RNvYNtNtCs2GZpXKFCdsl_11yoke_derive7visitor11TypeVisitorNtNtNtCs6IAuOt8vWmF_3syn3gen5visit5Visit22visit_pat_tuple_structB6_, symObjAddr: 0x7040, symBinAddr: 0x539D8, symSize: 0x3C }
  - { offset: 0xCDBF2, size: 0x8, addend: 0x0, symName: __RNvYNtNtCs2GZpXKFCdsl_11yoke_derive7visitor11TypeVisitorNtNtNtCs6IAuOt8vWmF_3syn3gen5visit5Visit22visit_trait_item_constB6_, symObjAddr: 0x707C, symBinAddr: 0x53A14, symSize: 0x3C }
  - { offset: 0xCDC34, size: 0x8, addend: 0x0, symName: __RNvYNtNtCs2GZpXKFCdsl_11yoke_derive7visitor11TypeVisitorNtNtNtCs6IAuOt8vWmF_3syn3gen5visit5Visit22visit_trait_item_macroB6_, symObjAddr: 0x70B8, symBinAddr: 0x53A50, symSize: 0x3C }
  - { offset: 0xCDC76, size: 0x8, addend: 0x0, symName: __RNvYNtNtCs2GZpXKFCdsl_11yoke_derive7visitor11TypeVisitorNtNtNtCs6IAuOt8vWmF_3syn3gen5visit5Visit22visit_type_param_boundB6_, symObjAddr: 0x70F4, symBinAddr: 0x53A8C, symSize: 0x3C }
  - { offset: 0xCDCB8, size: 0x8, addend: 0x0, symName: __RNvYNtNtCs2GZpXKFCdsl_11yoke_derive7visitor11TypeVisitorNtNtNtCs6IAuOt8vWmF_3syn3gen5visit5Visit23visit_foreign_item_typeB6_, symObjAddr: 0x7130, symBinAddr: 0x53AC8, symSize: 0x3C }
  - { offset: 0xCDCFA, size: 0x8, addend: 0x0, symName: __RNvYNtNtCs2GZpXKFCdsl_11yoke_derive7visitor11TypeVisitorNtNtNtCs6IAuOt8vWmF_3syn3gen5visit5Visit23visit_item_extern_crateB6_, symObjAddr: 0x716C, symBinAddr: 0x53B04, symSize: 0x3C }
  - { offset: 0xCDD3C, size: 0x8, addend: 0x0, symName: __RNvYNtNtCs2GZpXKFCdsl_11yoke_derive7visitor11TypeVisitorNtNtNtCs6IAuOt8vWmF_3syn3gen5visit5Visit23visit_static_mutabilityB6_, symObjAddr: 0x71A8, symBinAddr: 0x53B40, symSize: 0x3C }
  - { offset: 0xCDD7E, size: 0x8, addend: 0x0, symName: __RNvYNtNtCs2GZpXKFCdsl_11yoke_derive7visitor11TypeVisitorNtNtNtCs6IAuOt8vWmF_3syn3gen5visit5Visit23visit_type_trait_objectB6_, symObjAddr: 0x71E4, symBinAddr: 0x53B7C, symSize: 0x3C }
  - { offset: 0xCDDC0, size: 0x8, addend: 0x0, symName: __RNvYNtNtCs2GZpXKFCdsl_11yoke_derive7visitor11TypeVisitorNtNtNtCs6IAuOt8vWmF_3syn3gen5visit5Visit24visit_foreign_item_macroB6_, symObjAddr: 0x7220, symBinAddr: 0x53BB8, symSize: 0x3C }
  - { offset: 0xCDE02, size: 0x8, addend: 0x0, symName: __RNvYNtNtCs2GZpXKFCdsl_11yoke_derive7visitor11TypeVisitorNtNtNtCs6IAuOt8vWmF_3syn3gen5visit5Visit24visit_pointer_mutabilityB6_, symObjAddr: 0x725C, symBinAddr: 0x53BF4, symSize: 0x3C }
  - { offset: 0xCDE44, size: 0x8, addend: 0x0, symName: __RNvYNtNtCs2GZpXKFCdsl_11yoke_derive7visitor11TypeVisitorNtNtNtCs6IAuOt8vWmF_3syn3gen5visit5Visit24visit_predicate_lifetimeB6_, symObjAddr: 0x7298, symBinAddr: 0x53C30, symSize: 0x3C }
  - { offset: 0xCDE86, size: 0x8, addend: 0x0, symName: __RNvYNtNtCs2GZpXKFCdsl_11yoke_derive7visitor11TypeVisitorNtNtNtCs6IAuOt8vWmF_3syn3gen5visit5Visit25visit_foreign_item_staticB6_, symObjAddr: 0x72D4, symBinAddr: 0x53C6C, symSize: 0x3C }
  - { offset: 0xCDEC8, size: 0x8, addend: 0x0, symName: __RNvYNtNtCs2GZpXKFCdsl_11yoke_derive7visitor11TypeVisitorNtNtNtCs6IAuOt8vWmF_3syn3gen5visit5Visit26visit_trait_bound_modifierB6_, symObjAddr: 0x7310, symBinAddr: 0x53CA8, symSize: 0x3C }
  - { offset: 0xCDF0A, size: 0x8, addend: 0x0, symName: __RNvYNtNtCs2GZpXKFCdsl_11yoke_derive7visitor11TypeVisitorNtNtNtCs6IAuOt8vWmF_3syn3gen5visit5Visit37visit_parenthesized_generic_argumentsB6_, symObjAddr: 0x734C, symBinAddr: 0x53CE4, symSize: 0x3C }
  - { offset: 0xCDF4C, size: 0x8, addend: 0x0, symName: __RNvYNtNtCs2GZpXKFCdsl_11yoke_derive7visitor11TypeVisitorNtNtNtCs6IAuOt8vWmF_3syn3gen5visit5Visit39visit_angle_bracketed_generic_argumentsB6_, symObjAddr: 0x7388, symBinAddr: 0x53D20, symSize: 0x3C }
  - { offset: 0xCDF8B, size: 0x8, addend: 0x0, symName: __RNvYNtNtCs2GZpXKFCdsl_11yoke_derive7visitor11TypeVisitorNtNtNtCs6IAuOt8vWmF_3syn3gen5visit5Visit9visit_abiB6_, symObjAddr: 0x73C4, symBinAddr: 0x53D5C, symSize: 0x3C }
  - { offset: 0xCDFCA, size: 0x8, addend: 0x0, symName: __RNvYNtNtCs2GZpXKFCdsl_11yoke_derive7visitor11TypeVisitorNtNtNtCs6IAuOt8vWmF_3syn3gen5visit5Visit9visit_armB6_, symObjAddr: 0x7400, symBinAddr: 0x53D98, symSize: 0x3C }
  - { offset: 0xCE009, size: 0x8, addend: 0x0, symName: __RNvYNtNtCs2GZpXKFCdsl_11yoke_derive7visitor11TypeVisitorNtNtNtCs6IAuOt8vWmF_3syn3gen5visit5Visit9visit_litB6_, symObjAddr: 0x743C, symBinAddr: 0x53DD4, symSize: 0x3C }
  - { offset: 0xCE04B, size: 0x8, addend: 0x0, symName: __RNvYNtNtCs2GZpXKFCdsl_11yoke_derive7visitor11TypeVisitorNtNtNtCs6IAuOt8vWmF_3syn3gen5visit5Visit9visit_patB6_, symObjAddr: 0x7478, symBinAddr: 0x53E10, symSize: 0x3C }
  - { offset: 0xCE1D9, size: 0x8, addend: 0x0, symName: __RINvNtCs6IAuOt8vWmF_3syn5parse12parse_scopedNvYNtCs3cP53eQoTwO_11proc_macro25IdentNtB2_5Parse5parseECs2GZpXKFCdsl_11yoke_derive, symObjAddr: 0x2F34, symBinAddr: 0x4F8D0, symSize: 0x30 }
  - { offset: 0xCE234, size: 0x8, addend: 0x0, symName: __RNvXsh_NtCs6IAuOt8vWmF_3syn5parseNvYNtCs3cP53eQoTwO_11proc_macro25IdentNtB5_5Parse5parseNtB5_6Parser14___parse_scopedCs2GZpXKFCdsl_11yoke_derive, symObjAddr: 0x439C, symBinAddr: 0x50D34, symSize: 0x3A4 }
  - { offset: 0xCE381, size: 0x8, addend: 0x0, symName: __RNvXsh_NtCs6IAuOt8vWmF_3syn5parseNvYNtNtB7_6derive11DeriveInputNtB5_5Parse5parseNtB5_6Parser6parse2Cs2GZpXKFCdsl_11yoke_derive, symObjAddr: 0x4740, symBinAddr: 0x510D8, symSize: 0x358 }
  - { offset: 0xCE497, size: 0x8, addend: 0x0, symName: __RNvYNvYNtNtCs6IAuOt8vWmF_3syn6derive11DeriveInputNtNtB9_5parse5Parse5parseNtBN_6Parser5parseCs2GZpXKFCdsl_11yoke_derive, symObjAddr: 0x7518, symBinAddr: 0x53EB0, symSize: 0x88 }
  - { offset: 0xCE5A0, size: 0x8, addend: 0x0, symName: __RNvXNtCs6IAuOt8vWmF_3syn11parse_quoteNtNtB4_8generics14WherePredicateNtB2_10ParseQuote5parseCs2GZpXKFCdsl_11yoke_derive, symObjAddr: 0x3CF8, symBinAddr: 0x50690, symSize: 0x34 }
