---
triple:          'arm64-apple-darwin'
binary-path:     '/Users/cedric/orange/ran-llm-claude-flow/src/rust-pipeline/target/debug/deps/libclap_derive-0945ab0f45de4837.dylib'
relocations:
  - { offset: 0x1E, size: 0x8, addend: 0x0, symName: __RNvMNtCsfvfooZQ3Axs_4core5sliceSNtNtCsjOBAykZTw0C_11clap_derive4item11Deprecation4iterBy_, symObjAddr: 0x0, symBinAddr: 0xC50, symSize: 0x28 }
  - { offset: 0x1237, size: 0x8, addend: 0x0, symName: __RNCNvMNtCsjOBAykZTw0C_11clap_derive4itemNtB4_4Item10infer_kind0B6_, symObjAddr: 0x4630, symBinAddr: 0x5280, symSize: 0x48 }
  - { offset: 0x1267, size: 0x8, addend: 0x0, symName: __RNCNvMNtCsjOBAykZTw0C_11clap_derive4itemNtB4_4Item10infer_kinds_0B6_, symObjAddr: 0x4678, symBinAddr: 0x52C8, symSize: 0x48 }
  - { offset: 0x1297, size: 0x8, addend: 0x0, symName: __RNCNvMNtCsjOBAykZTw0C_11clap_derive4itemNtB4_4Item10infer_kinds0_0B6_, symObjAddr: 0x46C0, symBinAddr: 0x5310, symSize: 0x48 }
  - { offset: 0x12CD, size: 0x8, addend: 0x0, symName: __RNCNvMNtCsjOBAykZTw0C_11clap_derive4itemNtB4_4Item10push_attrs0B6_, symObjAddr: 0x11BC0, symBinAddr: 0x12810, symSize: 0x40 }
  - { offset: 0x1306, size: 0x8, addend: 0x0, symName: __RNCNvMNtCsjOBAykZTw0C_11clap_derive4itemNtB4_4Item10push_attrss_0B6_, symObjAddr: 0x11C00, symBinAddr: 0x12850, symSize: 0x40 }
  - { offset: 0x133F, size: 0x8, addend: 0x0, symName: __RNCNvMNtCsjOBAykZTw0C_11clap_derive4itemNtB4_4Item10push_attrss0_0B6_, symObjAddr: 0x11C40, symBinAddr: 0x12890, symSize: 0x40 }
  - { offset: 0x1378, size: 0x8, addend: 0x0, symName: __RNCNvMNtCsjOBAykZTw0C_11clap_derive4itemNtB4_4Item10push_attrss1_0B6_, symObjAddr: 0x11C80, symBinAddr: 0x128D0, symSize: 0x40 }
  - { offset: 0x13D3, size: 0x8, addend: 0x0, symName: __RNCNvMNtCsjOBAykZTw0C_11clap_derive4itemNtB4_4Item16push_doc_comments0_0B6_, symObjAddr: 0x122BC, symBinAddr: 0x12F0C, symSize: 0xAC }
  - { offset: 0x1423, size: 0x8, addend: 0x0, symName: __RNCNvMNtCsjOBAykZTw0C_11clap_derive4itemNtB4_4Item16push_doc_comments1_0B6_, symObjAddr: 0x12368, symBinAddr: 0x12FB8, symSize: 0x90 }
  - { offset: 0x1463, size: 0x8, addend: 0x0, symName: __RNCNvMNtCsjOBAykZTw0C_11clap_derive4itemNtB4_4Item16push_doc_comments2_0B6_, symObjAddr: 0x123F8, symBinAddr: 0x13048, symSize: 0xAC }
  - { offset: 0x14B3, size: 0x8, addend: 0x0, symName: __RNCNvMNtCsjOBAykZTw0C_11clap_derive4itemNtB4_4Item16push_doc_comments3_0B6_, symObjAddr: 0x124A4, symBinAddr: 0x130F4, symSize: 0x90 }
  - { offset: 0x1515, size: 0x8, addend: 0x0, symName: __RNCNvMNtCsjOBAykZTw0C_11clap_derive4itemNtB4_4Item19find_default_method0B6_, symObjAddr: 0x12900, symBinAddr: 0x13550, symSize: 0x9C }
  - { offset: 0x155B, size: 0x8, addend: 0x0, symName: __RNCNvMNtCsjOBAykZTw0C_11clap_derive4itemNtB4_4Item12value_parser0B6_, symObjAddr: 0x13574, symBinAddr: 0x141C4, symSize: 0xBC }
  - { offset: 0x15B9, size: 0x8, addend: 0x0, symName: __RNCNvMNtCsjOBAykZTw0C_11clap_derive4itemNtB4_4Item12value_parsers_0B6_, symObjAddr: 0x13630, symBinAddr: 0x14280, symSize: 0xDC }
  - { offset: 0x1679, size: 0x8, addend: 0x0, symName: __RNCNCNvMNtCsjOBAykZTw0C_11clap_derive4itemNtB6_4Item12value_parsers_00B8_, symObjAddr: 0x1370C, symBinAddr: 0x1435C, symSize: 0x34 }
  - { offset: 0x16B2, size: 0x8, addend: 0x0, symName: __RNCNCNvMNtCsjOBAykZTw0C_11clap_derive4itemNtB6_4Item12value_parsers_0s_0B8_, symObjAddr: 0x13740, symBinAddr: 0x14390, symSize: 0x38 }
  - { offset: 0x16F0, size: 0x8, addend: 0x0, symName: __RNCNvMNtCsjOBAykZTw0C_11clap_derive4itemNtB4_4Item6action0B6_, symObjAddr: 0x137F4, symBinAddr: 0x14444, symSize: 0x3C }
  - { offset: 0x1730, size: 0x8, addend: 0x0, symName: __RNCNvMNtCsjOBAykZTw0C_11clap_derive4itemNtB4_4Item6actions_0B6_, symObjAddr: 0x13830, symBinAddr: 0x14480, symSize: 0xCC }
  - { offset: 0x17D2, size: 0x8, addend: 0x0, symName: __RNCNCNvMNtCsjOBAykZTw0C_11clap_derive4itemNtB6_4Item6actions_00B8_, symObjAddr: 0x138FC, symBinAddr: 0x1454C, symSize: 0x34 }
  - { offset: 0x180B, size: 0x8, addend: 0x0, symName: __RNCNCNvMNtCsjOBAykZTw0C_11clap_derive4itemNtB6_4Item6actions_0s_0B8_, symObjAddr: 0x13930, symBinAddr: 0x14580, symSize: 0x38 }
  - { offset: 0x1849, size: 0x8, addend: 0x0, symName: __RNCNvMNtCsjOBAykZTw0C_11clap_derive4itemNtB4_4Item20has_explicit_methods0B6_, symObjAddr: 0x13A74, symBinAddr: 0x146C4, symSize: 0x8C }
  - { offset: 0x188B, size: 0x8, addend: 0x0, symName: __RNvNtCsjOBAykZTw0C_11clap_derive4item20default_value_parser, symObjAddr: 0x13CD0, symBinAddr: 0x14920, symSize: 0x20C }
  - { offset: 0x192A, size: 0x8, addend: 0x0, symName: __RNvNtCsjOBAykZTw0C_11clap_derive4item14default_action, symObjAddr: 0x14080, symBinAddr: 0x14CD0, symSize: 0x528 }
  - { offset: 0x1A8D, size: 0x8, addend: 0x0, symName: __RNvXs3_NtCsjOBAykZTw0C_11clap_derive4itemNtB5_6MethodNtNtCs2cqEZUIJimJ_5quote9to_tokens8ToTokens9to_tokens, symObjAddr: 0x15190, symBinAddr: 0x15DE0, symSize: 0x138 }
  - { offset: 0x1B3D, size: 0x8, addend: 0x0, symName: __RNvXs5_NtCsjOBAykZTw0C_11clap_derive4itemNtB5_11DeprecationNtNtCs2cqEZUIJimJ_5quote9to_tokens8ToTokens9to_tokens, symObjAddr: 0x15408, symBinAddr: 0x16058, symSize: 0x80 }
  - { offset: 0x1B95, size: 0x8, addend: 0x0, symName: __RNvNtCsjOBAykZTw0C_11clap_derive4item16assert_attr_kind, symObjAddr: 0x15488, symBinAddr: 0x160D8, symSize: 0x2E8 }
  - { offset: 0x1C48, size: 0x8, addend: 0x0, symName: __RNCNvNtCsjOBAykZTw0C_11clap_derive4item16assert_attr_kind0B5_, symObjAddr: 0x15770, symBinAddr: 0x163C0, symSize: 0xBC }
  - { offset: 0x1CA7, size: 0x8, addend: 0x0, symName: __RNvNtCsjOBAykZTw0C_11clap_derive4item18process_author_str, symObjAddr: 0x1582C, symBinAddr: 0x1647C, symSize: 0x2CC }
  - { offset: 0x1D39, size: 0x8, addend: 0x0, symName: __RNCNvMs6_NtCsjOBAykZTw0C_11clap_derive4itemNtB7_11CasingStyle8from_lit0B9_, symObjAddr: 0x162F0, symBinAddr: 0x16F40, symSize: 0x4C }
  - { offset: 0x1D93, size: 0x8, addend: 0x0, symName: __RNvXs8_NtCsjOBAykZTw0C_11clap_derive4itemNtB5_4NameNtNtCs2cqEZUIJimJ_5quote9to_tokens8ToTokens9to_tokens, symObjAddr: 0x16F60, symBinAddr: 0x17BB0, symSize: 0x1B8 }
  - { offset: 0x1E3B, size: 0x8, addend: 0x0, symName: __RNvXsa_NtCsjOBAykZTw0C_11clap_derive4itemNtB5_11ValueParserNtNtCsfvfooZQ3Axs_4core5clone5Clone5cloneB7_, symObjAddr: 0x17118, symBinAddr: 0x17D68, symSize: 0xAC }
  - { offset: 0x1EAB, size: 0x8, addend: 0x0, symName: __RNvXsb_NtCsjOBAykZTw0C_11clap_derive4itemNtB5_6ActionNtNtCsfvfooZQ3Axs_4core5clone5Clone5cloneB7_, symObjAddr: 0x171C4, symBinAddr: 0x17E14, symSize: 0xAC }
  - { offset: 0x1F1B, size: 0x8, addend: 0x0, symName: __RNvXsc_NtCsjOBAykZTw0C_11clap_derive4itemNtB5_4KindNtNtCsfvfooZQ3Axs_4core5clone5Clone5cloneB7_, symObjAddr: 0x17270, symBinAddr: 0x17EC0, symSize: 0x22C }
  - { offset: 0x200F, size: 0x8, addend: 0x0, symName: __RNvXsd_NtCsjOBAykZTw0C_11clap_derive4itemNtB5_6MethodNtNtCsfvfooZQ3Axs_4core5clone5Clone5cloneB7_, symObjAddr: 0x1749C, symBinAddr: 0x180EC, symSize: 0x8C }
  - { offset: 0x2043, size: 0x8, addend: 0x0, symName: __RNvXsl_NtCsjOBAykZTw0C_11clap_derive4itemNtB5_4NameNtNtCsfvfooZQ3Axs_4core5clone5Clone5cloneB7_, symObjAddr: 0x17528, symBinAddr: 0x18178, symSize: 0xA4 }
  - { offset: 0x2344, size: 0x8, addend: 0x0, symName: __RNvMNtCsfvfooZQ3Axs_4core5sliceSNtNtCsjOBAykZTw0C_11clap_derive4item11Deprecation4iterBy_, symObjAddr: 0x0, symBinAddr: 0xC50, symSize: 0x28 }
  - { offset: 0x237B, size: 0x8, addend: 0x0, symName: __RNvMNtCsfvfooZQ3Axs_4core5sliceSNtNtCsjOBAykZTw0C_11clap_derive4item6Method4iterBy_, symObjAddr: 0x28, symBinAddr: 0xC78, symSize: 0x28 }
  - { offset: 0x23B2, size: 0x8, addend: 0x0, symName: __RNvMNtCsfvfooZQ3Axs_4core5sliceSRNtNtCsjOBAykZTw0C_11clap_derive4item4Name4iterBz_, symObjAddr: 0x50, symBinAddr: 0xCA0, symSize: 0x28 }
  - { offset: 0x4D27, size: 0x8, addend: 0x0, symName: __RNvXNtCs2cqEZUIJimJ_5quote9to_tokensRNtNtCsjOBAykZTw0C_11clap_derive4item11DeprecationNtB2_8ToTokens9to_tokensBD_, symObjAddr: 0x78, symBinAddr: 0xCC8, symSize: 0x40 }
  - { offset: 0x4D66, size: 0x8, addend: 0x0, symName: __RNvXNtCs2cqEZUIJimJ_5quote9to_tokensRNtNtCsjOBAykZTw0C_11clap_derive4item4NameNtB2_8ToTokens9to_tokensBD_, symObjAddr: 0xB8, symBinAddr: 0xD08, symSize: 0x40 }
  - { offset: 0x4DA5, size: 0x8, addend: 0x0, symName: __RNvXNtCs2cqEZUIJimJ_5quote9to_tokensRNtNtCsjOBAykZTw0C_11clap_derive4item6MethodNtB2_8ToTokens9to_tokensBD_, symObjAddr: 0xF8, symBinAddr: 0xD48, symSize: 0x40 }
  - { offset: 0x4DE4, size: 0x8, addend: 0x0, symName: __RNvXNtCs2cqEZUIJimJ_5quote9to_tokensRRNtNtCsjOBAykZTw0C_11clap_derive4item4NameNtB2_8ToTokens9to_tokensBE_, symObjAddr: 0x138, symBinAddr: 0xD88, symSize: 0x40 }
  - { offset: 0xB10D, size: 0x8, addend: 0x0, symName: __RNvMNtCsjOBAykZTw0C_11clap_derive4itemNtB2_4Item16from_args_struct, symObjAddr: 0x178, symBinAddr: 0xDC8, symSize: 0x4D0 }
  - { offset: 0xB24B, size: 0x8, addend: 0x0, symName: __RNvMNtCsjOBAykZTw0C_11clap_derive4itemNtB2_4Item20from_subcommand_enum, symObjAddr: 0x648, symBinAddr: 0x1298, symSize: 0x4D0 }
  - { offset: 0xB389, size: 0x8, addend: 0x0, symName: __RNvMNtCsjOBAykZTw0C_11clap_derive4itemNtB2_4Item15from_value_enum, symObjAddr: 0xB18, symBinAddr: 0x1768, symSize: 0x5E4 }
  - { offset: 0xB508, size: 0x8, addend: 0x0, symName: __RNvMNtCsjOBAykZTw0C_11clap_derive4itemNtB2_4Item23from_subcommand_variant, symObjAddr: 0x10FC, symBinAddr: 0x1D4C, symSize: 0x7D8 }
  - { offset: 0xB69A, size: 0x8, addend: 0x0, symName: __RNvMNtCsjOBAykZTw0C_11clap_derive4itemNtB2_4Item23from_value_enum_variant, symObjAddr: 0x18D4, symBinAddr: 0x2524, symSize: 0x528 }
  - { offset: 0xB7EB, size: 0x8, addend: 0x0, symName: __RNvMNtCsjOBAykZTw0C_11clap_derive4itemNtB2_4Item15from_args_field, symObjAddr: 0x1DFC, symBinAddr: 0x2A4C, symSize: 0x938 }
  - { offset: 0xB9C7, size: 0x8, addend: 0x0, symName: __RNvMNtCsjOBAykZTw0C_11clap_derive4itemNtB2_4Item3new, symObjAddr: 0x2734, symBinAddr: 0x3384, symSize: 0x33C }
  - { offset: 0xBA5B, size: 0x8, addend: 0x0, symName: __RINvMNtCsjOBAykZTw0C_11clap_derive4itemNtB3_4Item11push_methodNtCs3cP53eQoTwO_11proc_macro211TokenStreamEB5_, symObjAddr: 0x2A70, symBinAddr: 0x36C0, symSize: 0xD4 }
  - { offset: 0xBAC3, size: 0x8, addend: 0x0, symName: __RINvMNtCsjOBAykZTw0C_11clap_derive4itemNtB3_4Item11push_methodRNtNtB5_4attr9AttrValueEB5_, symObjAddr: 0x2B44, symBinAddr: 0x3794, symSize: 0xC0 }
  - { offset: 0xBB1D, size: 0x8, addend: 0x0, symName: __RNvMNtCsjOBAykZTw0C_11clap_derive4itemNtB2_4Item12push_method_, symObjAddr: 0x2C04, symBinAddr: 0x3854, symSize: 0xBAC }
  - { offset: 0xBBD5, size: 0x8, addend: 0x0, symName: __RNvMNtCsjOBAykZTw0C_11clap_derive4itemNtB2_4Item10infer_kind, symObjAddr: 0x37B0, symBinAddr: 0x4400, symSize: 0xE80 }
  - { offset: 0xBF74, size: 0x8, addend: 0x0, symName: __RNvMNtCsjOBAykZTw0C_11clap_derive4itemNtB2_4Item10push_attrs, symObjAddr: 0x4708, symBinAddr: 0x5358, symSize: 0xD4B8 }
  - { offset: 0xD976, size: 0x8, addend: 0x0, symName: __RNvMNtCsjOBAykZTw0C_11clap_derive4itemNtB2_4Item16push_doc_comment, symObjAddr: 0x11CC0, symBinAddr: 0x12910, symSize: 0x5FC }
  - { offset: 0xDAD7, size: 0x8, addend: 0x0, symName: __RNvMNtCsjOBAykZTw0C_11clap_derive4itemNtB2_4Item8set_kind, symObjAddr: 0x12534, symBinAddr: 0x13184, symSize: 0x380 }
  - { offset: 0xDB86, size: 0x8, addend: 0x0, symName: __RNvMNtCsjOBAykZTw0C_11clap_derive4itemNtB2_4Item19find_default_method, symObjAddr: 0x128B4, symBinAddr: 0x13504, symSize: 0x4C }
  - { offset: 0xDBA9, size: 0x8, addend: 0x0, symName: __RNvMNtCsjOBAykZTw0C_11clap_derive4itemNtB2_4Item25initial_top_level_methods, symObjAddr: 0x1299C, symBinAddr: 0x135EC, symSize: 0x1D8 }
  - { offset: 0xDD2E, size: 0x8, addend: 0x0, symName: __RNvMNtCsjOBAykZTw0C_11clap_derive4itemNtB2_4Item23final_top_level_methods, symObjAddr: 0x12B74, symBinAddr: 0x137C4, symSize: 0x1DC }
  - { offset: 0xDEB3, size: 0x8, addend: 0x0, symName: __RNvMNtCsjOBAykZTw0C_11clap_derive4itemNtB2_4Item13field_methods, symObjAddr: 0x12D50, symBinAddr: 0x139A0, symSize: 0x1DC }
  - { offset: 0xE045, size: 0x8, addend: 0x0, symName: __RNvMNtCsjOBAykZTw0C_11clap_derive4itemNtB2_4Item8group_id, symObjAddr: 0x12F2C, symBinAddr: 0x13B7C, symSize: 0x24 }
  - { offset: 0xE068, size: 0x8, addend: 0x0, symName: __RNvMNtCsjOBAykZTw0C_11clap_derive4itemNtB2_4Item13group_methods, symObjAddr: 0x12F50, symBinAddr: 0x13BA0, symSize: 0x120 }
  - { offset: 0xE147, size: 0x8, addend: 0x0, symName: __RNvMNtCsjOBAykZTw0C_11clap_derive4itemNtB2_4Item12deprecations, symObjAddr: 0x13070, symBinAddr: 0x13CC0, symSize: 0x120 }
  - { offset: 0xE226, size: 0x8, addend: 0x0, symName: __RNvMNtCsjOBAykZTw0C_11clap_derive4itemNtB2_4Item18next_display_order, symObjAddr: 0x13190, symBinAddr: 0x13DE0, symSize: 0x11C }
  - { offset: 0xE304, size: 0x8, addend: 0x0, symName: __RNvMNtCsjOBAykZTw0C_11clap_derive4itemNtB2_4Item17next_help_heading, symObjAddr: 0x132AC, symBinAddr: 0x13EFC, symSize: 0x11C }
  - { offset: 0xE3E2, size: 0x8, addend: 0x0, symName: __RNvMNtCsjOBAykZTw0C_11clap_derive4itemNtB2_4Item2id, symObjAddr: 0x133C8, symBinAddr: 0x14018, symSize: 0x24 }
  - { offset: 0xE405, size: 0x8, addend: 0x0, symName: __RNvMNtCsjOBAykZTw0C_11clap_derive4itemNtB2_4Item10cased_name, symObjAddr: 0x133EC, symBinAddr: 0x1403C, symSize: 0xB4 }
  - { offset: 0xE428, size: 0x8, addend: 0x0, symName: __RNvMNtCsjOBAykZTw0C_11clap_derive4itemNtB2_4Item10value_name, symObjAddr: 0x134A0, symBinAddr: 0x140F0, symSize: 0x58 }
  - { offset: 0xE458, size: 0x8, addend: 0x0, symName: __RNvMNtCsjOBAykZTw0C_11clap_derive4itemNtB2_4Item12value_parser, symObjAddr: 0x134F8, symBinAddr: 0x14148, symSize: 0x7C }
  - { offset: 0xE48A, size: 0x8, addend: 0x0, symName: __RNvMNtCsjOBAykZTw0C_11clap_derive4itemNtB2_4Item6action, symObjAddr: 0x13778, symBinAddr: 0x143C8, symSize: 0x7C }
  - { offset: 0xE4BC, size: 0x8, addend: 0x0, symName: __RNvMNtCsjOBAykZTw0C_11clap_derive4itemNtB2_4Item4kind, symObjAddr: 0x13968, symBinAddr: 0x145B8, symSize: 0x34 }
  - { offset: 0xE4DF, size: 0x8, addend: 0x0, symName: __RNvMNtCsjOBAykZTw0C_11clap_derive4itemNtB2_4Item13is_positional, symObjAddr: 0x1399C, symBinAddr: 0x145EC, symSize: 0x2C }
  - { offset: 0xE502, size: 0x8, addend: 0x0, symName: __RNvMNtCsjOBAykZTw0C_11clap_derive4itemNtB2_4Item6casing, symObjAddr: 0x139C8, symBinAddr: 0x14618, symSize: 0x30 }
  - { offset: 0xE525, size: 0x8, addend: 0x0, symName: __RNvMNtCsjOBAykZTw0C_11clap_derive4itemNtB2_4Item10env_casing, symObjAddr: 0x139F8, symBinAddr: 0x14648, symSize: 0x30 }
  - { offset: 0xE548, size: 0x8, addend: 0x0, symName: __RNvMNtCsjOBAykZTw0C_11clap_derive4itemNtB2_4Item20has_explicit_methods, symObjAddr: 0x13A28, symBinAddr: 0x14678, symSize: 0x4C }
  - { offset: 0xE56B, size: 0x8, addend: 0x0, symName: __RNvMNtCsjOBAykZTw0C_11clap_derive4itemNtB2_4Item10skip_group, symObjAddr: 0x13B00, symBinAddr: 0x14750, symSize: 0x2C }
  - { offset: 0xE58E, size: 0x8, addend: 0x0, symName: __RNvMs_NtCsjOBAykZTw0C_11clap_derive4itemNtB4_11ValueParser7resolve, symObjAddr: 0x13B2C, symBinAddr: 0x1477C, symSize: 0x104 }
  - { offset: 0xE602, size: 0x8, addend: 0x0, symName: __RNvMs_NtCsjOBAykZTw0C_11clap_derive4itemNtB4_11ValueParser4span, symObjAddr: 0x13C30, symBinAddr: 0x14880, symSize: 0xA0 }
  - { offset: 0xE659, size: 0x8, addend: 0x0, symName: __RNvMs0_NtCsjOBAykZTw0C_11clap_derive4itemNtB5_6Action7resolve, symObjAddr: 0x13EDC, symBinAddr: 0x14B2C, symSize: 0x104 }
  - { offset: 0xE6CD, size: 0x8, addend: 0x0, symName: __RNvMs0_NtCsjOBAykZTw0C_11clap_derive4itemNtB5_6Action4span, symObjAddr: 0x13FE0, symBinAddr: 0x14C30, symSize: 0xA0 }
  - { offset: 0xE731, size: 0x8, addend: 0x0, symName: __RNvMs1_NtCsjOBAykZTw0C_11clap_derive4itemNtB5_4Kind4name, symObjAddr: 0x145A8, symBinAddr: 0x151F8, symSize: 0x1FC }
  - { offset: 0xE754, size: 0x8, addend: 0x0, symName: __RNvMs1_NtCsjOBAykZTw0C_11clap_derive4itemNtB5_4Kind9attr_kind, symObjAddr: 0x147A4, symBinAddr: 0x153F4, symSize: 0x1A8 }
  - { offset: 0xE7A2, size: 0x8, addend: 0x0, symName: __RNvMs1_NtCsjOBAykZTw0C_11clap_derive4itemNtB5_4Kind2ty, symObjAddr: 0x1494C, symBinAddr: 0x1559C, symSize: 0x168 }
  - { offset: 0xE7E3, size: 0x8, addend: 0x0, symName: __RNvMs2_NtCsjOBAykZTw0C_11clap_derive4itemNtB5_6Method3new, symObjAddr: 0x14AB4, symBinAddr: 0x15704, symSize: 0x34 }
  - { offset: 0xE815, size: 0x8, addend: 0x0, symName: __RNvMs2_NtCsjOBAykZTw0C_11clap_derive4itemNtB5_6Method8from_env, symObjAddr: 0x14AE8, symBinAddr: 0x15738, symSize: 0x684 }
  - { offset: 0xE8F6, size: 0x8, addend: 0x0, symName: __RNvMs2_NtCsjOBAykZTw0C_11clap_derive4itemNtB5_6Method4args, symObjAddr: 0x1516C, symBinAddr: 0x15DBC, symSize: 0x24 }
  - { offset: 0xE919, size: 0x8, addend: 0x0, symName: __RNvMs4_NtCsjOBAykZTw0C_11clap_derive4itemNtB5_11Deprecation9attribute, symObjAddr: 0x152C8, symBinAddr: 0x15F18, symSize: 0x140 }
  - { offset: 0xE995, size: 0x8, addend: 0x0, symName: __RNvMs6_NtCsjOBAykZTw0C_11clap_derive4itemNtB5_11CasingStyle8from_lit, symObjAddr: 0x15AF8, symBinAddr: 0x16748, symSize: 0x7F8 }
  - { offset: 0xEA60, size: 0x8, addend: 0x0, symName: __RNvMs7_NtCsjOBAykZTw0C_11clap_derive4itemNtB5_4Name9translate, symObjAddr: 0x1633C, symBinAddr: 0x16F8C, symSize: 0x548 }
  - { offset: 0xEB3A, size: 0x8, addend: 0x0, symName: __RNvMs7_NtCsjOBAykZTw0C_11clap_derive4itemNtB5_4Name14translate_char, symObjAddr: 0x16884, symBinAddr: 0x174D4, symSize: 0x6DC }
  - { offset: 0xEE87, size: 0x8, addend: 0x0, symName: __RINvMsi_NtCse1nGBsou5OW_5alloc3vecINtB6_3VecNtCs3cP53eQoTwO_11proc_macro211TokenStreamE16extend_desugaredINtNtNtCsfvfooZQ3Axs_4core4iter8adapters12GenericShuntINtNtB1I_3map3MapINtNtNtB1M_5slice4iter4IterTRNtNtCs6IAuOt8vWmF_3syn4data5FieldNtNtCsjOBAykZTw0C_11clap_derive4item4ItemEENCNvNtNtB3S_7derives4args15gen_constructor0EINtNtB1M_6result6ResultNtNtB1M_7convert10InfallibleNtNtB3l_5error5ErrorEEEB3S_, symObjAddr: 0x0, symBinAddr: 0x1821C, symSize: 0x1C4 }
  - { offset: 0x15773, size: 0x8, addend: 0x0, symName: __RNvXsA_NtNtNtCsfvfooZQ3Axs_4core4iter8adapters7flattenINtNtCse1nGBsou5OW_5alloc3vec3VecNtNtBV_6string6StringENtB5_21ConstSizeIntoIterator4sizeCsjOBAykZTw0C_11clap_derive, symObjAddr: 0x7A10, symBinAddr: 0x1FC2C, symSize: 0x18 }
  - { offset: 0x1671E, size: 0x8, addend: 0x0, symName: __RNvXsf_NtCsfvfooZQ3Axs_4core5tupleTINtNtCse1nGBsou5OW_5alloc3vec3VecNtCs3cP53eQoTwO_11proc_macro211TokenStreamEIBy_NtB16_5IdentEENtNtB7_7default7Default7defaultCsjOBAykZTw0C_11clap_derive, symObjAddr: 0x8708, symBinAddr: 0x20924, symSize: 0x8C }
  - { offset: 0x186AA, size: 0x8, addend: 0x0, symName: __RINvXsd_NtCse1nGBsou5OW_5alloc3vecINtB6_3VecNtCs3cP53eQoTwO_11proc_macro211TokenStreamEINtNtNtNtCsfvfooZQ3Axs_4core4iter6traits7collect12FromIteratorBG_E9from_iterINtNtB1u_8adapters12GenericShuntINtNtB2E_3map3MapINtNtNtB1w_5slice4iter4IterTRNtNtCs6IAuOt8vWmF_3syn4data5FieldNtNtCsjOBAykZTw0C_11clap_derive4item4ItemEENCNvNtNtB4s_7derives4args15gen_constructor0EINtNtB1w_6result6ResultNtNtB1w_7convert10InfallibleNtNtB3V_5error5ErrorEEEB4s_, symObjAddr: 0x2B24, symBinAddr: 0x1AD40, symSize: 0x3C }
  - { offset: 0x186EB, size: 0x8, addend: 0x0, symName: __RINvXsd_NtCse1nGBsou5OW_5alloc3vecINtB6_3VecNtCs3cP53eQoTwO_11proc_macro211TokenStreamEINtNtNtNtCsfvfooZQ3Axs_4core4iter6traits7collect12FromIteratorBG_E9from_iterINtNtB1u_8adapters12GenericShuntINtNtB2E_3map3MapINtNtNtB1w_5slice4iter4IterTRRNtNtCs6IAuOt8vWmF_3syn4data7VariantRNtNtCsjOBAykZTw0C_11clap_derive4item4ItemEENCNvNtNtB4w_7derives10subcommand18gen_has_subcommands1_0EINtNtB1w_6result6ResultNtNtB1w_7convert10InfallibleNtNtB3W_5error5ErrorEEEB4w_, symObjAddr: 0x2B60, symBinAddr: 0x1AD7C, symSize: 0x3C }
  - { offset: 0x1872C, size: 0x8, addend: 0x0, symName: __RINvXsd_NtCse1nGBsou5OW_5alloc3vecINtB6_3VecNtCs3cP53eQoTwO_11proc_macro211TokenStreamEINtNtNtNtCsfvfooZQ3Axs_4core4iter6traits7collect12FromIteratorBG_E9from_iterINtNtB1u_8adapters12GenericShuntINtNtB2E_3map3MapINtNtNtB1w_5slice4iter4IterTRRNtNtCs6IAuOt8vWmF_3syn4data7VariantRNtNtCsjOBAykZTw0C_11clap_derive4item4ItemEENCNvNtNtB4w_7derives10subcommand20gen_from_arg_matches0EINtNtB1w_6result6ResultNtNtB1w_7convert10InfallibleNtNtB3W_5error5ErrorEEEB4w_, symObjAddr: 0x2B9C, symBinAddr: 0x1ADB8, symSize: 0x3C }
  - { offset: 0x1876D, size: 0x8, addend: 0x0, symName: __RINvXsd_NtCse1nGBsou5OW_5alloc3vecINtB6_3VecNtCs3cP53eQoTwO_11proc_macro211TokenStreamEINtNtNtNtCsfvfooZQ3Axs_4core4iter6traits7collect12FromIteratorBG_E9from_iterINtNtB1u_8adapters12GenericShuntINtNtB2E_3map3MapINtNtNtB1w_5slice4iter4IterTRRNtNtCs6IAuOt8vWmF_3syn4data7VariantRNtNtCsjOBAykZTw0C_11clap_derive4item4ItemEENCNvNtNtB4w_7derives10subcommand20gen_from_arg_matchess_0EINtNtB1w_6result6ResultNtNtB1w_7convert10InfallibleNtNtB3W_5error5ErrorEEEB4w_, symObjAddr: 0x2BD8, symBinAddr: 0x1ADF4, symSize: 0x3C }
  - { offset: 0x187AE, size: 0x8, addend: 0x0, symName: __RINvXsd_NtCse1nGBsou5OW_5alloc3vecINtB6_3VecNtCs3cP53eQoTwO_11proc_macro211TokenStreamEINtNtNtNtCsfvfooZQ3Axs_4core4iter6traits7collect12FromIteratorBG_E9from_iterINtNtB1u_8adapters12GenericShuntINtNtB2E_3map3MapINtNtNtB1w_5slice4iter4IterTRRNtNtCs6IAuOt8vWmF_3syn4data7VariantRNtNtCsjOBAykZTw0C_11clap_derive4item4ItemEENCNvNtNtB4w_7derives10subcommand27gen_update_from_arg_matchess0_0EINtNtB1w_6result6ResultNtNtB1w_7convert10InfallibleNtNtB3W_5error5ErrorEEEB4w_, symObjAddr: 0x2C14, symBinAddr: 0x1AE30, symSize: 0x3C }
  - { offset: 0x187EF, size: 0x8, addend: 0x0, symName: __RINvXsd_NtCse1nGBsou5OW_5alloc3vecINtB6_3VecNtCs3cP53eQoTwO_11proc_macro211TokenStreamEINtNtNtNtCsfvfooZQ3Axs_4core4iter6traits7collect12FromIteratorBG_E9from_iterINtNtB1u_8adapters12GenericShuntINtNtB2E_3map3MapINtNtNtB1w_5slice4iter4IterTRRNtNtCs6IAuOt8vWmF_3syn4data7VariantRNtNtCsjOBAykZTw0C_11clap_derive4item4ItemEENCNvNtNtB4w_7derives10subcommand27gen_update_from_arg_matchess1_0EINtNtB1w_6result6ResultNtNtB1w_7convert10InfallibleNtNtB3W_5error5ErrorEEEB4w_, symObjAddr: 0x2C50, symBinAddr: 0x1AE6C, symSize: 0x3C }
  - { offset: 0x18830, size: 0x8, addend: 0x0, symName: __RINvXsd_NtCse1nGBsou5OW_5alloc3vecINtB6_3VecNtNtB8_6string6StringEINtNtNtNtCsfvfooZQ3Axs_4core4iter6traits7collect12FromIteratorBG_E9from_iterINtNtNtB19_7sources7from_fn6FromFnNCNvNtNtCsjOBAykZTw0C_11clap_derive5utils12doc_comments16split_paragraphs0EEB2W_, symObjAddr: 0x2C8C, symBinAddr: 0x1AEA8, symSize: 0x3C }
  - { offset: 0x18871, size: 0x8, addend: 0x0, symName: __RINvXsd_NtCse1nGBsou5OW_5alloc3vecINtB6_3VecNtNtB8_6string6StringEINtNtNtNtCsfvfooZQ3Axs_4core4iter6traits7collect12FromIteratorBG_E9from_iterINtNtNtB19_8adapters3map3MapINtNtNtB1b_3str4iter5SplitcENCNCNvNtNtCsjOBAykZTw0C_11clap_derive5utils12doc_comments19extract_doc_comments1_00EEB3k_, symObjAddr: 0x2CC8, symBinAddr: 0x1AEE4, symSize: 0x3C }
  - { offset: 0x188B2, size: 0x8, addend: 0x0, symName: __RINvXsd_NtCse1nGBsou5OW_5alloc3vecINtB6_3VecNtNtB8_6string6StringEINtNtNtNtCsfvfooZQ3Axs_4core4iter6traits7collect12FromIteratorBG_E9from_iterINtNtNtB19_8adapters3map3MapINtNtNtB1b_5slice4iter4IterBG_ENCINvNtNtCsjOBAykZTw0C_11clap_derive5utils12doc_comments11merge_linesRBG_RSBG_E0EEB3m_, symObjAddr: 0x2D04, symBinAddr: 0x1AF20, symSize: 0x40 }
  - { offset: 0x188F2, size: 0x8, addend: 0x0, symName: __RINvXsd_NtCse1nGBsou5OW_5alloc3vecINtB6_3VecNtNtB8_6string6StringEINtNtNtNtCsfvfooZQ3Axs_4core4iter6traits7collect12FromIteratorBG_E9from_iterINtNtNtB19_8adapters3map3MapINtNtNtB1b_5slice4iter4IterNtNtCsjOBAykZTw0C_11clap_derive4attr8AttrKindENCNvNtB3d_4item16assert_attr_kind0EEB3d_, symObjAddr: 0x2D44, symBinAddr: 0x1AF60, symSize: 0x3C }
  - { offset: 0x18933, size: 0x8, addend: 0x0, symName: __RINvXsd_NtCse1nGBsou5OW_5alloc3vecINtB6_3VecNtNtB8_6string6StringEINtNtNtNtCsfvfooZQ3Axs_4core4iter6traits7collect12FromIteratorBG_E9from_iterINtNtNtB19_8adapters7flatten7FlatMapINtNtB2l_10skip_while9SkipWhileINtNtB2l_10filter_map9FilterMapINtNtB2l_6filter6FilterINtNtNtB1b_5slice4iter4IterNtNtCs6IAuOt8vWmF_3syn4attr9AttributeENCNvNtNtCsjOBAykZTw0C_11clap_derive5utils12doc_comments19extract_doc_comment0ENCB5i_s_0ENCB5i_s0_0EBw_NCB5i_s1_0EEB5o_, symObjAddr: 0x2D80, symBinAddr: 0x1AF9C, symSize: 0x3C }
  - { offset: 0x18974, size: 0x8, addend: 0x0, symName: __RINvXsd_NtCse1nGBsou5OW_5alloc3vecINtB6_3VecNtNtCs6IAuOt8vWmF_3syn4expr4ExprEINtNtNtNtCsfvfooZQ3Axs_4core4iter6traits7collect12FromIteratorBG_E9from_iterINtNtBK_10punctuated10PunctuatedBG_NtNtBK_5token5CommaEECsjOBAykZTw0C_11clap_derive, symObjAddr: 0x2DBC, symBinAddr: 0x1AFD8, symSize: 0x3C }
  - { offset: 0x189B5, size: 0x8, addend: 0x0, symName: __RINvXsd_NtCse1nGBsou5OW_5alloc3vecINtB6_3VecRNtCs3cP53eQoTwO_11proc_macro25IdentEINtNtNtNtCsfvfooZQ3Axs_4core4iter6traits7collect12FromIteratorBG_E9from_iterINtNtNtB1o_8adapters3map3MapINtNtCs6IAuOt8vWmF_3syn10punctuated4IterNtNtB32_4data5FieldENCNCNvNtNtCsjOBAykZTw0C_11clap_derive7derives10subcommand27gen_update_from_arg_matchess0_00EEB45_, symObjAddr: 0x2DF8, symBinAddr: 0x1B014, symSize: 0x40 }
  - { offset: 0x189F5, size: 0x8, addend: 0x0, symName: __RINvXsd_NtCse1nGBsou5OW_5alloc3vecINtB6_3VecRNtCs3cP53eQoTwO_11proc_macro25IdentEINtNtNtNtCsfvfooZQ3Axs_4core4iter6traits7collect12FromIteratorBG_E9from_iterINtNtNtB1o_8adapters3map3MapINtNtNtB1q_5slice4iter4IterTNtBJ_11TokenStreamBH_EENCNvNtNtCsjOBAykZTw0C_11clap_derive7derives10value_enum18gen_value_variants0EEB3U_, symObjAddr: 0x2E38, symBinAddr: 0x1B054, symSize: 0x40 }
  - { offset: 0x18A35, size: 0x8, addend: 0x0, symName: __RINvXsd_NtCse1nGBsou5OW_5alloc3vecINtB6_3VecRNtNtCsjOBAykZTw0C_11clap_derive4item4NameEINtNtNtNtCsfvfooZQ3Axs_4core4iter6traits7collect12FromIteratorBG_E9from_iterINtNtNtB1u_8adapters10filter_map9FilterMapINtNtNtB1w_5slice4iter4IterTRNtNtCs6IAuOt8vWmF_3syn4data5FieldNtBJ_4ItemEENCNvNtNtBL_7derives4args11gen_augment0EEBL_, symObjAddr: 0x2E78, symBinAddr: 0x1B094, symSize: 0x40 }
  - { offset: 0x18A75, size: 0x8, addend: 0x0, symName: __RINvXsd_NtCse1nGBsou5OW_5alloc3vecINtB6_3VecTRNtNtCs6IAuOt8vWmF_3syn4data5FieldNtNtCsjOBAykZTw0C_11clap_derive4item4ItemEEINtNtNtNtCsfvfooZQ3Axs_4core4iter6traits7collect12FromIteratorBG_E9from_iterINtNtB23_8adapters12GenericShuntINtNtB3d_3map3MapINtNtBM_10punctuated4IterBI_ENCNvNtNtB1j_7derives4args11derive_args0EINtNtB25_6result6ResultNtNtB25_7convert10InfallibleNtNtBM_5error5ErrorEEEB1j_, symObjAddr: 0x2EB8, symBinAddr: 0x1B0D4, symSize: 0x3C }
  - { offset: 0x18AB6, size: 0x8, addend: 0x0, symName: __RINvXsd_NtCse1nGBsou5OW_5alloc3vecINtB6_3VecTRNtNtCs6IAuOt8vWmF_3syn4data5FieldNtNtCsjOBAykZTw0C_11clap_derive4item4ItemEEINtNtNtNtCsfvfooZQ3Axs_4core4iter6traits7collect12FromIteratorBG_E9from_iterINtNtB23_8adapters12GenericShuntINtNtB3d_3map3MapINtNtBM_10punctuated4IterBI_ENCNvNtNtB1j_7derives4args19collect_args_fields0EINtNtB25_6result6ResultNtNtB25_7convert10InfallibleNtNtBM_5error5ErrorEEEB1j_, symObjAddr: 0x2EF4, symBinAddr: 0x1B110, symSize: 0x3C }
  - { offset: 0x18AF7, size: 0x8, addend: 0x0, symName: __RINvXsd_NtCse1nGBsou5OW_5alloc3vecINtB6_3VecTRNtNtCs6IAuOt8vWmF_3syn4data5FieldNtNtCsjOBAykZTw0C_11clap_derive4item4ItemEEINtNtNtNtCsfvfooZQ3Axs_4core4iter6traits7collect12FromIteratorBG_E9from_iterINtNtB23_8adapters12GenericShuntINtNtB3d_3map3MapINtNtBM_10punctuated4IterBI_ENCNvNtNtB1j_7derives6parser13derive_parser0EINtNtB25_6result6ResultNtNtB25_7convert10InfallibleNtNtBM_5error5ErrorEEEB1j_, symObjAddr: 0x2F30, symBinAddr: 0x1B14C, symSize: 0x3C }
  - { offset: 0x18B38, size: 0x8, addend: 0x0, symName: __RINvXsd_NtCse1nGBsou5OW_5alloc3vecINtB6_3VecTRNtNtCs6IAuOt8vWmF_3syn4data7VariantNtNtCsjOBAykZTw0C_11clap_derive4item4ItemEEINtNtNtNtCsfvfooZQ3Axs_4core4iter6traits7collect12FromIteratorBG_E9from_iterINtNtB25_8adapters12GenericShuntINtNtB3f_3map3MapINtNtBM_10punctuated4IterBI_ENCNvNtNtB1l_7derives10subcommand17derive_subcommand0EINtNtB27_6result6ResultNtNtB27_7convert10InfallibleNtNtBM_5error5ErrorEEEB1l_, symObjAddr: 0x2F6C, symBinAddr: 0x1B188, symSize: 0x3C }
  - { offset: 0x18B79, size: 0x8, addend: 0x0, symName: __RINvXsd_NtCse1nGBsou5OW_5alloc3vecINtB6_3VecTRNtNtCs6IAuOt8vWmF_3syn4data7VariantNtNtCsjOBAykZTw0C_11clap_derive4item4ItemEEINtNtNtNtCsfvfooZQ3Axs_4core4iter6traits7collect12FromIteratorBG_E9from_iterINtNtB25_8adapters12GenericShuntINtNtB3f_3map3MapINtNtBM_10punctuated4IterBI_ENCNvNtNtB1l_7derives6parser13derive_parsers_0EINtNtB27_6result6ResultNtNtB27_7convert10InfallibleNtNtBM_5error5ErrorEEEB1l_, symObjAddr: 0x2FA8, symBinAddr: 0x1B1C4, symSize: 0x3C }
  - { offset: 0x18BC0, size: 0x8, addend: 0x0, symName: __RINvXsh_NtCse1nGBsou5OW_5alloc3vecINtB6_3VecNtNtCs6IAuOt8vWmF_3syn4expr4ExprEINtNtNtNtCsfvfooZQ3Axs_4core4iter6traits7collect6ExtendBG_E6extendINtNtB1m_6option6OptionBG_EECsjOBAykZTw0C_11clap_derive, symObjAddr: 0x2FE4, symBinAddr: 0x1B200, symSize: 0x48 }
  - { offset: 0x18C15, size: 0x8, addend: 0x0, symName: __RINvXsh_NtCse1nGBsou5OW_5alloc3vecINtB6_3VecNtNtCs6IAuOt8vWmF_3syn4expr4ExprEINtNtNtNtCsfvfooZQ3Axs_4core4iter6traits7collect6ExtendBG_E6extendINtNtNtB1k_8adapters3map3MapINtNtB6_9into_iter8IntoIterTBG_NtNtBK_5token5CommaEENCNvXs8_NtBK_10punctuatedINtB3H_10PunctuatedBG_B3e_ENtB1g_12IntoIterator9into_iter0EECsjOBAykZTw0C_11clap_derive, symObjAddr: 0x302C, symBinAddr: 0x1B248, symSize: 0x48 }
  - { offset: 0x18C6A, size: 0x8, addend: 0x0, symName: __RINvXsh_NtCse1nGBsou5OW_5alloc3vecINtB6_3VecNtNtCsjOBAykZTw0C_11clap_derive4attr8ClapAttrEINtNtNtNtCsfvfooZQ3Axs_4core4iter6traits7collect6ExtendBG_E6extendINtNtB1z_6option6OptionBG_EEBK_, symObjAddr: 0x3074, symBinAddr: 0x1B290, symSize: 0x50 }
  - { offset: 0x18CBF, size: 0x8, addend: 0x0, symName: __RINvXsh_NtCse1nGBsou5OW_5alloc3vecINtB6_3VecNtNtCsjOBAykZTw0C_11clap_derive4attr8ClapAttrEINtNtNtNtCsfvfooZQ3Axs_4core4iter6traits7collect6ExtendBG_E6extendINtNtNtB1x_8adapters3map3MapINtNtB6_9into_iter8IntoIterTBG_NtNtCs6IAuOt8vWmF_3syn5token5CommaEENCNvXs8_NtB3v_10punctuatedINtB49_10PunctuatedBG_B3r_ENtB1t_12IntoIterator9into_iter0EEBK_, symObjAddr: 0x30C4, symBinAddr: 0x1B2E0, symSize: 0x48 }
  - { offset: 0x18D14, size: 0x8, addend: 0x0, symName: __RNvXsh_NtCse1nGBsou5OW_5alloc3vecINtB5_3VecNtCs3cP53eQoTwO_11proc_macro211TokenStreamEINtNtNtNtCsfvfooZQ3Axs_4core4iter6traits7collect6ExtendBF_E10extend_oneCsjOBAykZTw0C_11clap_derive, symObjAddr: 0x8794, symBinAddr: 0x209B0, symSize: 0x24 }
  - { offset: 0x18D60, size: 0x8, addend: 0x0, symName: __RNvXsh_NtCse1nGBsou5OW_5alloc3vecINtB5_3VecNtCs3cP53eQoTwO_11proc_macro211TokenStreamEINtNtNtNtCsfvfooZQ3Axs_4core4iter6traits7collect6ExtendBF_E14extend_reserveCsjOBAykZTw0C_11clap_derive, symObjAddr: 0x87B8, symBinAddr: 0x209D4, symSize: 0x28 }
  - { offset: 0x18DAB, size: 0x8, addend: 0x0, symName: __RNvXsh_NtCse1nGBsou5OW_5alloc3vecINtB5_3VecNtCs3cP53eQoTwO_11proc_macro211TokenStreamEINtNtNtNtCsfvfooZQ3Axs_4core4iter6traits7collect6ExtendBF_E20extend_one_uncheckedCsjOBAykZTw0C_11clap_derive, symObjAddr: 0x87E0, symBinAddr: 0x209FC, symSize: 0x38 }
  - { offset: 0x18EB3, size: 0x8, addend: 0x0, symName: __RNvXsh_NtCse1nGBsou5OW_5alloc3vecINtB5_3VecNtCs3cP53eQoTwO_11proc_macro25IdentEINtNtNtNtCsfvfooZQ3Axs_4core4iter6traits7collect6ExtendBF_E10extend_oneCsjOBAykZTw0C_11clap_derive, symObjAddr: 0x8818, symBinAddr: 0x20A34, symSize: 0x24 }
  - { offset: 0x18EFF, size: 0x8, addend: 0x0, symName: __RNvXsh_NtCse1nGBsou5OW_5alloc3vecINtB5_3VecNtCs3cP53eQoTwO_11proc_macro25IdentEINtNtNtNtCsfvfooZQ3Axs_4core4iter6traits7collect6ExtendBF_E14extend_reserveCsjOBAykZTw0C_11clap_derive, symObjAddr: 0x883C, symBinAddr: 0x20A58, symSize: 0x28 }
  - { offset: 0x18F4A, size: 0x8, addend: 0x0, symName: __RNvXsh_NtCse1nGBsou5OW_5alloc3vecINtB5_3VecNtCs3cP53eQoTwO_11proc_macro25IdentEINtNtNtNtCsfvfooZQ3Axs_4core4iter6traits7collect6ExtendBF_E20extend_one_uncheckedCsjOBAykZTw0C_11clap_derive, symObjAddr: 0x8864, symBinAddr: 0x20A80, symSize: 0x40 }
  - { offset: 0x1904A, size: 0x8, addend: 0x0, symName: __RNvXsh_NtCse1nGBsou5OW_5alloc3vecINtB5_3VecTRRNtNtCs6IAuOt8vWmF_3syn4data7VariantRNtNtCsjOBAykZTw0C_11clap_derive4item4ItemEEINtNtNtNtCsfvfooZQ3Axs_4core4iter6traits7collect6ExtendBF_E10extend_oneB1m_, symObjAddr: 0x88A4, symBinAddr: 0x20AC0, symSize: 0x34 }
  - { offset: 0x190A0, size: 0x8, addend: 0x0, symName: __RNCINvMsi_NtCse1nGBsou5OW_5alloc3vecINtB8_3VecNtNtBa_6string6StringE14extend_trustedINtNtNtNtCsfvfooZQ3Axs_4core4iter8adapters3map3MapINtNtNtB1t_5slice4iter4IterBI_ENCINvNtNtCsjOBAykZTw0C_11clap_derive5utils12doc_comments11merge_linesRBI_RSBI_E0EE0B2M_, symObjAddr: 0x310C, symBinAddr: 0x1B328, symSize: 0x44 }
  - { offset: 0x1914D, size: 0x8, addend: 0x0, symName: __RNCINvMsi_NtCse1nGBsou5OW_5alloc3vecINtB8_3VecNtNtBa_6string6StringE14extend_trustedINtNtNtNtCsfvfooZQ3Axs_4core4iter8adapters3map3MapINtNtNtB1t_5slice4iter4IterNtNtCsjOBAykZTw0C_11clap_derive4attr8AttrKindENCNvNtB2D_4item16assert_attr_kind0EE0B2D_, symObjAddr: 0x3150, symBinAddr: 0x1B36C, symSize: 0x44 }
  - { offset: 0x191FA, size: 0x8, addend: 0x0, symName: __RNCINvMsi_NtCse1nGBsou5OW_5alloc3vecINtB8_3VecNtNtCs6IAuOt8vWmF_3syn4expr4ExprE14extend_trustedINtNtCsfvfooZQ3Axs_4core6option8IntoIterBI_EE0CsjOBAykZTw0C_11clap_derive, symObjAddr: 0x3194, symBinAddr: 0x1B3B0, symSize: 0x54 }
  - { offset: 0x192B8, size: 0x8, addend: 0x0, symName: __RNCINvMsi_NtCse1nGBsou5OW_5alloc3vecINtB8_3VecNtNtCs6IAuOt8vWmF_3syn4expr4ExprE14extend_trustedINtNtNtNtCsfvfooZQ3Axs_4core4iter8adapters3map3MapINtNtB8_9into_iter8IntoIterTBI_NtNtBM_5token5CommaEENCNvXs8_NtBM_10punctuatedINtB3h_10PunctuatedBI_B2O_ENtNtNtB1C_6traits7collect12IntoIterator9into_iter0EE0CsjOBAykZTw0C_11clap_derive, symObjAddr: 0x31E8, symBinAddr: 0x1B404, symSize: 0x54 }
  - { offset: 0x19376, size: 0x8, addend: 0x0, symName: __RNCINvMsi_NtCse1nGBsou5OW_5alloc3vecINtB8_3VecNtNtCsjOBAykZTw0C_11clap_derive4attr8ClapAttrE14extend_trustedINtNtCsfvfooZQ3Axs_4core6option8IntoIterBI_EE0BM_, symObjAddr: 0x323C, symBinAddr: 0x1B458, symSize: 0x54 }
  - { offset: 0x19434, size: 0x8, addend: 0x0, symName: __RNCINvMsi_NtCse1nGBsou5OW_5alloc3vecINtB8_3VecNtNtCsjOBAykZTw0C_11clap_derive4attr8ClapAttrE14extend_trustedINtNtNtNtCsfvfooZQ3Axs_4core4iter8adapters3map3MapINtNtB8_9into_iter8IntoIterTBI_NtNtCs6IAuOt8vWmF_3syn5token5CommaEENCNvXs8_NtB35_10punctuatedINtB3J_10PunctuatedBI_B31_ENtNtNtB1P_6traits7collect12IntoIterator9into_iter0EE0BM_, symObjAddr: 0x3290, symBinAddr: 0x1B4AC, symSize: 0x54 }
  - { offset: 0x194F2, size: 0x8, addend: 0x0, symName: __RNCINvMsi_NtCse1nGBsou5OW_5alloc3vecINtB8_3VecRNtCs3cP53eQoTwO_11proc_macro25IdentE14extend_trustedINtNtNtNtCsfvfooZQ3Axs_4core4iter8adapters3map3MapINtNtNtB1I_5slice4iter4IterTNtBL_11TokenStreamBJ_EENCNvNtNtCsjOBAykZTw0C_11clap_derive7derives10value_enum18gen_value_variants0EE0B3k_, symObjAddr: 0x32E4, symBinAddr: 0x1B500, symSize: 0x34 }
  - { offset: 0x1959A, size: 0x8, addend: 0x0, symName: __RNCINvMsi_NtCse1nGBsou5OW_5alloc3vecINtB8_3VechE14extend_trustedINtNtNtNtCsfvfooZQ3Axs_4core4iter8adapters3map3MapINtNtNtB19_5slice4iter4IterhENCNvNtBa_3str13replace_ascii0EE0CsjOBAykZTw0C_11clap_derive, symObjAddr: 0x3318, symBinAddr: 0x1B534, symSize: 0x30 }
  - { offset: 0x19B64, size: 0x8, addend: 0x0, symName: __RNvXNtNtCse1nGBsou5OW_5alloc3vec11spec_extendINtB4_3VecNtCs3cP53eQoTwO_11proc_macro211TokenStreamEINtB2_10SpecExtendBR_INtNtNtCsfvfooZQ3Axs_4core4iter8adapters12GenericShuntINtNtB1W_3map3MapINtNtNtB20_5slice4iter4IterTRNtNtCs6IAuOt8vWmF_3syn4data5FieldNtNtCsjOBAykZTw0C_11clap_derive4item4ItemEENCNvNtNtB46_7derives4args15gen_constructor0EINtNtB20_6result6ResultNtNtB20_7convert10InfallibleNtNtB3z_5error5ErrorEEE11spec_extendB46_, symObjAddr: 0x4CDC, symBinAddr: 0x1CEF8, symSize: 0x24 }
  - { offset: 0x19BB6, size: 0x8, addend: 0x0, symName: __RNvXNtNtCse1nGBsou5OW_5alloc3vec11spec_extendINtB4_3VecNtCs3cP53eQoTwO_11proc_macro211TokenStreamEINtB2_10SpecExtendBR_INtNtNtCsfvfooZQ3Axs_4core4iter8adapters12GenericShuntINtNtB1W_3map3MapINtNtNtB20_5slice4iter4IterTRRNtNtCs6IAuOt8vWmF_3syn4data7VariantRNtNtCsjOBAykZTw0C_11clap_derive4item4ItemEENCNvNtNtB4a_7derives10subcommand18gen_has_subcommands1_0EINtNtB20_6result6ResultNtNtB20_7convert10InfallibleNtNtB3A_5error5ErrorEEE11spec_extendB4a_, symObjAddr: 0x4D00, symBinAddr: 0x1CF1C, symSize: 0x24 }
  - { offset: 0x19C08, size: 0x8, addend: 0x0, symName: __RNvXNtNtCse1nGBsou5OW_5alloc3vec11spec_extendINtB4_3VecNtCs3cP53eQoTwO_11proc_macro211TokenStreamEINtB2_10SpecExtendBR_INtNtNtCsfvfooZQ3Axs_4core4iter8adapters12GenericShuntINtNtB1W_3map3MapINtNtNtB20_5slice4iter4IterTRRNtNtCs6IAuOt8vWmF_3syn4data7VariantRNtNtCsjOBAykZTw0C_11clap_derive4item4ItemEENCNvNtNtB4a_7derives10subcommand20gen_from_arg_matches0EINtNtB20_6result6ResultNtNtB20_7convert10InfallibleNtNtB3A_5error5ErrorEEE11spec_extendB4a_, symObjAddr: 0x4D24, symBinAddr: 0x1CF40, symSize: 0x24 }
  - { offset: 0x19C5A, size: 0x8, addend: 0x0, symName: __RNvXNtNtCse1nGBsou5OW_5alloc3vec11spec_extendINtB4_3VecNtCs3cP53eQoTwO_11proc_macro211TokenStreamEINtB2_10SpecExtendBR_INtNtNtCsfvfooZQ3Axs_4core4iter8adapters12GenericShuntINtNtB1W_3map3MapINtNtNtB20_5slice4iter4IterTRRNtNtCs6IAuOt8vWmF_3syn4data7VariantRNtNtCsjOBAykZTw0C_11clap_derive4item4ItemEENCNvNtNtB4a_7derives10subcommand20gen_from_arg_matchess_0EINtNtB20_6result6ResultNtNtB20_7convert10InfallibleNtNtB3A_5error5ErrorEEE11spec_extendB4a_, symObjAddr: 0x4D48, symBinAddr: 0x1CF64, symSize: 0x24 }
  - { offset: 0x19CAC, size: 0x8, addend: 0x0, symName: __RNvXNtNtCse1nGBsou5OW_5alloc3vec11spec_extendINtB4_3VecNtCs3cP53eQoTwO_11proc_macro211TokenStreamEINtB2_10SpecExtendBR_INtNtNtCsfvfooZQ3Axs_4core4iter8adapters12GenericShuntINtNtB1W_3map3MapINtNtNtB20_5slice4iter4IterTRRNtNtCs6IAuOt8vWmF_3syn4data7VariantRNtNtCsjOBAykZTw0C_11clap_derive4item4ItemEENCNvNtNtB4a_7derives10subcommand27gen_update_from_arg_matchess0_0EINtNtB20_6result6ResultNtNtB20_7convert10InfallibleNtNtB3A_5error5ErrorEEE11spec_extendB4a_, symObjAddr: 0x4D6C, symBinAddr: 0x1CF88, symSize: 0x24 }
  - { offset: 0x19CFE, size: 0x8, addend: 0x0, symName: __RNvXNtNtCse1nGBsou5OW_5alloc3vec11spec_extendINtB4_3VecNtCs3cP53eQoTwO_11proc_macro211TokenStreamEINtB2_10SpecExtendBR_INtNtNtCsfvfooZQ3Axs_4core4iter8adapters12GenericShuntINtNtB1W_3map3MapINtNtNtB20_5slice4iter4IterTRRNtNtCs6IAuOt8vWmF_3syn4data7VariantRNtNtCsjOBAykZTw0C_11clap_derive4item4ItemEENCNvNtNtB4a_7derives10subcommand27gen_update_from_arg_matchess1_0EINtNtB20_6result6ResultNtNtB20_7convert10InfallibleNtNtB3A_5error5ErrorEEE11spec_extendB4a_, symObjAddr: 0x4D90, symBinAddr: 0x1CFAC, symSize: 0x24 }
  - { offset: 0x19D50, size: 0x8, addend: 0x0, symName: __RNvXNtNtCse1nGBsou5OW_5alloc3vec11spec_extendINtB4_3VecNtNtB6_6string6StringEINtB2_10SpecExtendBR_INtNtNtNtCsfvfooZQ3Axs_4core4iter7sources7from_fn6FromFnNCNvNtNtCsjOBAykZTw0C_11clap_derive5utils12doc_comments16split_paragraphs0EE11spec_extendB2A_, symObjAddr: 0x4DB4, symBinAddr: 0x1CFD0, symSize: 0x24 }
  - { offset: 0x19DA2, size: 0x8, addend: 0x0, symName: __RNvXNtNtCse1nGBsou5OW_5alloc3vec11spec_extendINtB4_3VecNtNtB6_6string6StringEINtB2_10SpecExtendBR_INtNtNtNtCsfvfooZQ3Axs_4core4iter8adapters3map3MapINtNtNtB1H_3str4iter5SplitcENCNCNvNtNtCsjOBAykZTw0C_11clap_derive5utils12doc_comments19extract_doc_comments1_00EE11spec_extendB2Y_, symObjAddr: 0x4DD8, symBinAddr: 0x1CFF4, symSize: 0x24 }
  - { offset: 0x19DF4, size: 0x8, addend: 0x0, symName: __RNvXNtNtCse1nGBsou5OW_5alloc3vec11spec_extendINtB4_3VecNtNtB6_6string6StringEINtB2_10SpecExtendBR_INtNtNtNtCsfvfooZQ3Axs_4core4iter8adapters7flatten7FlatMapINtNtB1D_10skip_while9SkipWhileINtNtB1D_10filter_map9FilterMapINtNtB1D_6filter6FilterINtNtNtB1H_5slice4iter4IterNtNtCs6IAuOt8vWmF_3syn4attr9AttributeENCNvNtNtCsjOBAykZTw0C_11clap_derive5utils12doc_comments19extract_doc_comment0ENCB4W_s_0ENCB4W_s0_0EBH_NCB4W_s1_0EE11spec_extendB52_, symObjAddr: 0x4DFC, symBinAddr: 0x1D018, symSize: 0x24 }
  - { offset: 0x19E46, size: 0x8, addend: 0x0, symName: __RNvXNtNtCse1nGBsou5OW_5alloc3vec11spec_extendINtB4_3VecNtNtCs6IAuOt8vWmF_3syn4expr4ExprEINtB2_10SpecExtendBR_INtNtBV_10punctuated8IntoIterBR_EE11spec_extendCsjOBAykZTw0C_11clap_derive, symObjAddr: 0x4E20, symBinAddr: 0x1D03C, symSize: 0x24 }
  - { offset: 0x19E98, size: 0x8, addend: 0x0, symName: __RNvXNtNtCse1nGBsou5OW_5alloc3vec11spec_extendINtB4_3VecRNtCs3cP53eQoTwO_11proc_macro25IdentEINtB2_10SpecExtendBR_INtNtNtNtCsfvfooZQ3Axs_4core4iter8adapters3map3MapINtNtCs6IAuOt8vWmF_3syn10punctuated4IterNtNtB2G_4data5FieldENCNCNvNtNtCsjOBAykZTw0C_11clap_derive7derives10subcommand27gen_update_from_arg_matchess0_00EE11spec_extendB3J_, symObjAddr: 0x4E44, symBinAddr: 0x1D060, symSize: 0x34 }
  - { offset: 0x19EE9, size: 0x8, addend: 0x0, symName: __RNvXNtNtCse1nGBsou5OW_5alloc3vec11spec_extendINtB4_3VecRNtNtCsjOBAykZTw0C_11clap_derive4item4NameEINtB2_10SpecExtendBR_INtNtNtNtCsfvfooZQ3Axs_4core4iter8adapters10filter_map9FilterMapINtNtNtB22_5slice4iter4IterTRNtNtCs6IAuOt8vWmF_3syn4data5FieldNtBU_4ItemEENCNvNtNtBW_7derives4args11gen_augment0EE11spec_extendBW_, symObjAddr: 0x4E78, symBinAddr: 0x1D094, symSize: 0x34 }
  - { offset: 0x19F3A, size: 0x8, addend: 0x0, symName: __RNvXNtNtCse1nGBsou5OW_5alloc3vec11spec_extendINtB4_3VecTRNtNtCs6IAuOt8vWmF_3syn4data5FieldNtNtCsjOBAykZTw0C_11clap_derive4item4ItemEEINtB2_10SpecExtendBR_INtNtNtCsfvfooZQ3Axs_4core4iter8adapters12GenericShuntINtNtB2v_3map3MapINtNtBX_10punctuated4IterBT_ENCNvNtNtB1u_7derives4args11derive_args0EINtNtB2z_6result6ResultNtNtB2z_7convert10InfallibleNtNtBX_5error5ErrorEEE11spec_extendB1u_, symObjAddr: 0x4EAC, symBinAddr: 0x1D0C8, symSize: 0x24 }
  - { offset: 0x19F8C, size: 0x8, addend: 0x0, symName: __RNvXNtNtCse1nGBsou5OW_5alloc3vec11spec_extendINtB4_3VecTRNtNtCs6IAuOt8vWmF_3syn4data5FieldNtNtCsjOBAykZTw0C_11clap_derive4item4ItemEEINtB2_10SpecExtendBR_INtNtNtCsfvfooZQ3Axs_4core4iter8adapters12GenericShuntINtNtB2v_3map3MapINtNtBX_10punctuated4IterBT_ENCNvNtNtB1u_7derives4args19collect_args_fields0EINtNtB2z_6result6ResultNtNtB2z_7convert10InfallibleNtNtBX_5error5ErrorEEE11spec_extendB1u_, symObjAddr: 0x4ED0, symBinAddr: 0x1D0EC, symSize: 0x24 }
  - { offset: 0x19FDE, size: 0x8, addend: 0x0, symName: __RNvXNtNtCse1nGBsou5OW_5alloc3vec11spec_extendINtB4_3VecTRNtNtCs6IAuOt8vWmF_3syn4data5FieldNtNtCsjOBAykZTw0C_11clap_derive4item4ItemEEINtB2_10SpecExtendBR_INtNtNtCsfvfooZQ3Axs_4core4iter8adapters12GenericShuntINtNtB2v_3map3MapINtNtBX_10punctuated4IterBT_ENCNvNtNtB1u_7derives6parser13derive_parser0EINtNtB2z_6result6ResultNtNtB2z_7convert10InfallibleNtNtBX_5error5ErrorEEE11spec_extendB1u_, symObjAddr: 0x4EF4, symBinAddr: 0x1D110, symSize: 0x24 }
  - { offset: 0x1A030, size: 0x8, addend: 0x0, symName: __RNvXNtNtCse1nGBsou5OW_5alloc3vec11spec_extendINtB4_3VecTRNtNtCs6IAuOt8vWmF_3syn4data7VariantNtNtCsjOBAykZTw0C_11clap_derive4item4ItemEEINtB2_10SpecExtendBR_INtNtNtCsfvfooZQ3Axs_4core4iter8adapters12GenericShuntINtNtB2x_3map3MapINtNtBX_10punctuated4IterBT_ENCNvNtNtB1w_7derives10subcommand17derive_subcommand0EINtNtB2B_6result6ResultNtNtB2B_7convert10InfallibleNtNtBX_5error5ErrorEEE11spec_extendB1w_, symObjAddr: 0x4F18, symBinAddr: 0x1D134, symSize: 0x24 }
  - { offset: 0x1A082, size: 0x8, addend: 0x0, symName: __RNvXNtNtCse1nGBsou5OW_5alloc3vec11spec_extendINtB4_3VecTRNtNtCs6IAuOt8vWmF_3syn4data7VariantNtNtCsjOBAykZTw0C_11clap_derive4item4ItemEEINtB2_10SpecExtendBR_INtNtNtCsfvfooZQ3Axs_4core4iter8adapters12GenericShuntINtNtB2x_3map3MapINtNtBX_10punctuated4IterBT_ENCNvNtNtB1w_7derives6parser13derive_parsers_0EINtNtB2B_6result6ResultNtNtB2B_7convert10InfallibleNtNtBX_5error5ErrorEEE11spec_extendB1w_, symObjAddr: 0x4F3C, symBinAddr: 0x1D158, symSize: 0x24 }
  - { offset: 0x1A0DA, size: 0x8, addend: 0x0, symName: __RNvXs_NtNtCse1nGBsou5OW_5alloc3vec11spec_extendINtB6_3VecNtNtB8_6string6StringEINtB4_10SpecExtendBT_INtNtNtNtCsfvfooZQ3Axs_4core4iter8adapters3map3MapINtNtNtB1J_5slice4iter4IterBT_ENCINvNtNtCsjOBAykZTw0C_11clap_derive5utils12doc_comments11merge_linesRBT_RSBT_E0EE11spec_extendB32_, symObjAddr: 0x7A28, symBinAddr: 0x1FC44, symSize: 0x34 }
  - { offset: 0x1A12B, size: 0x8, addend: 0x0, symName: __RNvXs_NtNtCse1nGBsou5OW_5alloc3vec11spec_extendINtB6_3VecNtNtB8_6string6StringEINtB4_10SpecExtendBT_INtNtNtNtCsfvfooZQ3Axs_4core4iter8adapters3map3MapINtNtNtB1J_5slice4iter4IterNtNtCsjOBAykZTw0C_11clap_derive4attr8AttrKindENCNvNtB2T_4item16assert_attr_kind0EE11spec_extendB2T_, symObjAddr: 0x7A5C, symBinAddr: 0x1FC78, symSize: 0x24 }
  - { offset: 0x1A17D, size: 0x8, addend: 0x0, symName: __RNvXs_NtNtCse1nGBsou5OW_5alloc3vec11spec_extendINtB6_3VecNtNtCs6IAuOt8vWmF_3syn4expr4ExprEINtB4_10SpecExtendBT_INtNtCsfvfooZQ3Axs_4core6option8IntoIterBT_EE11spec_extendCsjOBAykZTw0C_11clap_derive, symObjAddr: 0x7A80, symBinAddr: 0x1FC9C, symSize: 0x24 }
  - { offset: 0x1A1CF, size: 0x8, addend: 0x0, symName: __RNvXs_NtNtCse1nGBsou5OW_5alloc3vec11spec_extendINtB6_3VecNtNtCs6IAuOt8vWmF_3syn4expr4ExprEINtB4_10SpecExtendBT_INtNtNtNtCsfvfooZQ3Axs_4core4iter8adapters3map3MapINtNtB6_9into_iter8IntoIterTBT_NtNtBX_5token5CommaEENCNvXs8_NtBX_10punctuatedINtB3x_10PunctuatedBT_B34_ENtNtNtB1S_6traits7collect12IntoIterator9into_iter0EE11spec_extendCsjOBAykZTw0C_11clap_derive, symObjAddr: 0x7AA4, symBinAddr: 0x1FCC0, symSize: 0x24 }
  - { offset: 0x1A221, size: 0x8, addend: 0x0, symName: __RNvXs_NtNtCse1nGBsou5OW_5alloc3vec11spec_extendINtB6_3VecNtNtCsjOBAykZTw0C_11clap_derive4attr8ClapAttrEINtB4_10SpecExtendBT_INtNtCsfvfooZQ3Axs_4core6option8IntoIterBT_EE11spec_extendBX_, symObjAddr: 0x7AC8, symBinAddr: 0x1FCE4, symSize: 0x24 }
  - { offset: 0x1A273, size: 0x8, addend: 0x0, symName: __RNvXs_NtNtCse1nGBsou5OW_5alloc3vec11spec_extendINtB6_3VecNtNtCsjOBAykZTw0C_11clap_derive4attr8ClapAttrEINtB4_10SpecExtendBT_INtNtNtNtCsfvfooZQ3Axs_4core4iter8adapters3map3MapINtNtB6_9into_iter8IntoIterTBT_NtNtCs6IAuOt8vWmF_3syn5token5CommaEENCNvXs8_NtB3l_10punctuatedINtB3Z_10PunctuatedBT_B3h_ENtNtNtB25_6traits7collect12IntoIterator9into_iter0EE11spec_extendBX_, symObjAddr: 0x7AEC, symBinAddr: 0x1FD08, symSize: 0x24 }
  - { offset: 0x1A2C5, size: 0x8, addend: 0x0, symName: __RNvXs_NtNtCse1nGBsou5OW_5alloc3vec11spec_extendINtB6_3VecRNtCs3cP53eQoTwO_11proc_macro25IdentEINtB4_10SpecExtendBT_INtNtNtNtCsfvfooZQ3Axs_4core4iter8adapters3map3MapINtNtNtB1Y_5slice4iter4IterTNtBW_11TokenStreamBU_EENCNvNtNtCsjOBAykZTw0C_11clap_derive7derives10value_enum18gen_value_variants0EE11spec_extendB3A_, symObjAddr: 0x7B10, symBinAddr: 0x1FD2C, symSize: 0x34 }
  - { offset: 0x1A316, size: 0x8, addend: 0x0, symName: __RNvXs_NtNtCse1nGBsou5OW_5alloc3vec11spec_extendINtB6_3VechEINtB4_10SpecExtendhINtNtNtNtCsfvfooZQ3Axs_4core4iter8adapters3map3MapINtNtNtB1n_5slice4iter4IterhENCNvNtB8_3str13replace_ascii0EE11spec_extendCsjOBAykZTw0C_11clap_derive, symObjAddr: 0x7B44, symBinAddr: 0x1FD60, symSize: 0x24 }
  - { offset: 0x1A374, size: 0x8, addend: 0x0, symName: __RNvXNtNtCse1nGBsou5OW_5alloc3vec14spec_from_iterINtB4_3VecNtCs3cP53eQoTwO_11proc_macro211TokenStreamEINtB2_12SpecFromIterBU_INtNtNtCsfvfooZQ3Axs_4core4iter8adapters12GenericShuntINtNtB21_3map3MapINtNtNtB25_5slice4iter4IterTRNtNtCs6IAuOt8vWmF_3syn4data5FieldNtNtCsjOBAykZTw0C_11clap_derive4item4ItemEENCNvNtNtB4b_7derives4args15gen_constructor0EINtNtB25_6result6ResultNtNtB25_7convert10InfallibleNtNtB3E_5error5ErrorEEE9from_iterB4b_, symObjAddr: 0x4F60, symBinAddr: 0x1D17C, symSize: 0x14 }
  - { offset: 0x1A3B3, size: 0x8, addend: 0x0, symName: __RNvXNtNtCse1nGBsou5OW_5alloc3vec14spec_from_iterINtB4_3VecNtCs3cP53eQoTwO_11proc_macro211TokenStreamEINtB2_12SpecFromIterBU_INtNtNtCsfvfooZQ3Axs_4core4iter8adapters12GenericShuntINtNtB21_3map3MapINtNtNtB25_5slice4iter4IterTRRNtNtCs6IAuOt8vWmF_3syn4data7VariantRNtNtCsjOBAykZTw0C_11clap_derive4item4ItemEENCNvNtNtB4f_7derives10subcommand18gen_has_subcommands1_0EINtNtB25_6result6ResultNtNtB25_7convert10InfallibleNtNtB3F_5error5ErrorEEE9from_iterB4f_, symObjAddr: 0x4F74, symBinAddr: 0x1D190, symSize: 0x14 }
  - { offset: 0x1A3F2, size: 0x8, addend: 0x0, symName: __RNvXNtNtCse1nGBsou5OW_5alloc3vec14spec_from_iterINtB4_3VecNtCs3cP53eQoTwO_11proc_macro211TokenStreamEINtB2_12SpecFromIterBU_INtNtNtCsfvfooZQ3Axs_4core4iter8adapters12GenericShuntINtNtB21_3map3MapINtNtNtB25_5slice4iter4IterTRRNtNtCs6IAuOt8vWmF_3syn4data7VariantRNtNtCsjOBAykZTw0C_11clap_derive4item4ItemEENCNvNtNtB4f_7derives10subcommand20gen_from_arg_matches0EINtNtB25_6result6ResultNtNtB25_7convert10InfallibleNtNtB3F_5error5ErrorEEE9from_iterB4f_, symObjAddr: 0x4F88, symBinAddr: 0x1D1A4, symSize: 0x14 }
  - { offset: 0x1A431, size: 0x8, addend: 0x0, symName: __RNvXNtNtCse1nGBsou5OW_5alloc3vec14spec_from_iterINtB4_3VecNtCs3cP53eQoTwO_11proc_macro211TokenStreamEINtB2_12SpecFromIterBU_INtNtNtCsfvfooZQ3Axs_4core4iter8adapters12GenericShuntINtNtB21_3map3MapINtNtNtB25_5slice4iter4IterTRRNtNtCs6IAuOt8vWmF_3syn4data7VariantRNtNtCsjOBAykZTw0C_11clap_derive4item4ItemEENCNvNtNtB4f_7derives10subcommand20gen_from_arg_matchess_0EINtNtB25_6result6ResultNtNtB25_7convert10InfallibleNtNtB3F_5error5ErrorEEE9from_iterB4f_, symObjAddr: 0x4F9C, symBinAddr: 0x1D1B8, symSize: 0x14 }
  - { offset: 0x1A470, size: 0x8, addend: 0x0, symName: __RNvXNtNtCse1nGBsou5OW_5alloc3vec14spec_from_iterINtB4_3VecNtCs3cP53eQoTwO_11proc_macro211TokenStreamEINtB2_12SpecFromIterBU_INtNtNtCsfvfooZQ3Axs_4core4iter8adapters12GenericShuntINtNtB21_3map3MapINtNtNtB25_5slice4iter4IterTRRNtNtCs6IAuOt8vWmF_3syn4data7VariantRNtNtCsjOBAykZTw0C_11clap_derive4item4ItemEENCNvNtNtB4f_7derives10subcommand27gen_update_from_arg_matchess0_0EINtNtB25_6result6ResultNtNtB25_7convert10InfallibleNtNtB3F_5error5ErrorEEE9from_iterB4f_, symObjAddr: 0x4FB0, symBinAddr: 0x1D1CC, symSize: 0x14 }
  - { offset: 0x1A4AF, size: 0x8, addend: 0x0, symName: __RNvXNtNtCse1nGBsou5OW_5alloc3vec14spec_from_iterINtB4_3VecNtCs3cP53eQoTwO_11proc_macro211TokenStreamEINtB2_12SpecFromIterBU_INtNtNtCsfvfooZQ3Axs_4core4iter8adapters12GenericShuntINtNtB21_3map3MapINtNtNtB25_5slice4iter4IterTRRNtNtCs6IAuOt8vWmF_3syn4data7VariantRNtNtCsjOBAykZTw0C_11clap_derive4item4ItemEENCNvNtNtB4f_7derives10subcommand27gen_update_from_arg_matchess1_0EINtNtB25_6result6ResultNtNtB25_7convert10InfallibleNtNtB3F_5error5ErrorEEE9from_iterB4f_, symObjAddr: 0x4FC4, symBinAddr: 0x1D1E0, symSize: 0x14 }
  - { offset: 0x1A4EE, size: 0x8, addend: 0x0, symName: __RNvXNtNtCse1nGBsou5OW_5alloc3vec14spec_from_iterINtB4_3VecNtNtB6_6string6StringEINtB2_12SpecFromIterBU_INtNtNtNtCsfvfooZQ3Axs_4core4iter7sources7from_fn6FromFnNCNvNtNtCsjOBAykZTw0C_11clap_derive5utils12doc_comments16split_paragraphs0EE9from_iterB2F_, symObjAddr: 0x4FD8, symBinAddr: 0x1D1F4, symSize: 0x14 }
  - { offset: 0x1A52D, size: 0x8, addend: 0x0, symName: __RNvXNtNtCse1nGBsou5OW_5alloc3vec14spec_from_iterINtB4_3VecNtNtB6_6string6StringEINtB2_12SpecFromIterBU_INtNtNtNtCsfvfooZQ3Axs_4core4iter8adapters3map3MapINtNtNtB1M_3str4iter5SplitcENCNCNvNtNtCsjOBAykZTw0C_11clap_derive5utils12doc_comments19extract_doc_comments1_00EE9from_iterB33_, symObjAddr: 0x4FEC, symBinAddr: 0x1D208, symSize: 0x14 }
  - { offset: 0x1A56C, size: 0x8, addend: 0x0, symName: __RNvXNtNtCse1nGBsou5OW_5alloc3vec14spec_from_iterINtB4_3VecNtNtB6_6string6StringEINtB2_12SpecFromIterBU_INtNtNtNtCsfvfooZQ3Axs_4core4iter8adapters3map3MapINtNtNtB1M_5slice4iter4IterBU_ENCINvNtNtCsjOBAykZTw0C_11clap_derive5utils12doc_comments11merge_linesRBU_RSBU_E0EE9from_iterB35_, symObjAddr: 0x5000, symBinAddr: 0x1D21C, symSize: 0x2C }
  - { offset: 0x1A5AA, size: 0x8, addend: 0x0, symName: __RNvXNtNtCse1nGBsou5OW_5alloc3vec14spec_from_iterINtB4_3VecNtNtB6_6string6StringEINtB2_12SpecFromIterBU_INtNtNtNtCsfvfooZQ3Axs_4core4iter8adapters3map3MapINtNtNtB1M_5slice4iter4IterNtNtCsjOBAykZTw0C_11clap_derive4attr8AttrKindENCNvNtB2W_4item16assert_attr_kind0EE9from_iterB2W_, symObjAddr: 0x502C, symBinAddr: 0x1D248, symSize: 0x14 }
  - { offset: 0x1A5E9, size: 0x8, addend: 0x0, symName: __RNvXNtNtCse1nGBsou5OW_5alloc3vec14spec_from_iterINtB4_3VecNtNtB6_6string6StringEINtB2_12SpecFromIterBU_INtNtNtNtCsfvfooZQ3Axs_4core4iter8adapters7flatten7FlatMapINtNtB1I_10skip_while9SkipWhileINtNtB1I_10filter_map9FilterMapINtNtB1I_6filter6FilterINtNtNtB1M_5slice4iter4IterNtNtCs6IAuOt8vWmF_3syn4attr9AttributeENCNvNtNtCsjOBAykZTw0C_11clap_derive5utils12doc_comments19extract_doc_comment0ENCB51_s_0ENCB51_s0_0EBK_NCB51_s1_0EE9from_iterB57_, symObjAddr: 0x5040, symBinAddr: 0x1D25C, symSize: 0x14 }
  - { offset: 0x1A628, size: 0x8, addend: 0x0, symName: __RNvXNtNtCse1nGBsou5OW_5alloc3vec14spec_from_iterINtB4_3VecNtNtCs6IAuOt8vWmF_3syn4expr4ExprEINtB2_12SpecFromIterBU_INtNtBY_10punctuated8IntoIterBU_EE9from_iterCsjOBAykZTw0C_11clap_derive, symObjAddr: 0x5054, symBinAddr: 0x1D270, symSize: 0x14 }
  - { offset: 0x1A667, size: 0x8, addend: 0x0, symName: __RNvXNtNtCse1nGBsou5OW_5alloc3vec14spec_from_iterINtB4_3VecRNtCs3cP53eQoTwO_11proc_macro25IdentEINtB2_12SpecFromIterBU_INtNtNtNtCsfvfooZQ3Axs_4core4iter8adapters3map3MapINtNtCs6IAuOt8vWmF_3syn10punctuated4IterNtNtB2L_4data5FieldENCNCNvNtNtCsjOBAykZTw0C_11clap_derive7derives10subcommand27gen_update_from_arg_matchess0_00EE9from_iterB3O_, symObjAddr: 0x5068, symBinAddr: 0x1D284, symSize: 0x2C }
  - { offset: 0x1A6A5, size: 0x8, addend: 0x0, symName: __RNvXNtNtCse1nGBsou5OW_5alloc3vec14spec_from_iterINtB4_3VecRNtCs3cP53eQoTwO_11proc_macro25IdentEINtB2_12SpecFromIterBU_INtNtNtNtCsfvfooZQ3Axs_4core4iter8adapters3map3MapINtNtNtB21_5slice4iter4IterTNtBX_11TokenStreamBV_EENCNvNtNtCsjOBAykZTw0C_11clap_derive7derives10value_enum18gen_value_variants0EE9from_iterB3D_, symObjAddr: 0x5094, symBinAddr: 0x1D2B0, symSize: 0x2C }
  - { offset: 0x1A6E3, size: 0x8, addend: 0x0, symName: __RNvXNtNtCse1nGBsou5OW_5alloc3vec14spec_from_iterINtB4_3VecRNtNtCsjOBAykZTw0C_11clap_derive4item4NameEINtB2_12SpecFromIterBU_INtNtNtNtCsfvfooZQ3Axs_4core4iter8adapters10filter_map9FilterMapINtNtNtB27_5slice4iter4IterTRNtNtCs6IAuOt8vWmF_3syn4data5FieldNtBX_4ItemEENCNvNtNtBZ_7derives4args11gen_augment0EE9from_iterBZ_, symObjAddr: 0x50C0, symBinAddr: 0x1D2DC, symSize: 0x2C }
  - { offset: 0x1A721, size: 0x8, addend: 0x0, symName: __RNvXNtNtCse1nGBsou5OW_5alloc3vec14spec_from_iterINtB4_3VecTRNtNtCs6IAuOt8vWmF_3syn4data5FieldNtNtCsjOBAykZTw0C_11clap_derive4item4ItemEEINtB2_12SpecFromIterBU_INtNtNtCsfvfooZQ3Axs_4core4iter8adapters12GenericShuntINtNtB2A_3map3MapINtNtB10_10punctuated4IterBW_ENCNvNtNtB1x_7derives4args11derive_args0EINtNtB2E_6result6ResultNtNtB2E_7convert10InfallibleNtNtB10_5error5ErrorEEE9from_iterB1x_, symObjAddr: 0x50EC, symBinAddr: 0x1D308, symSize: 0x14 }
  - { offset: 0x1A760, size: 0x8, addend: 0x0, symName: __RNvXNtNtCse1nGBsou5OW_5alloc3vec14spec_from_iterINtB4_3VecTRNtNtCs6IAuOt8vWmF_3syn4data5FieldNtNtCsjOBAykZTw0C_11clap_derive4item4ItemEEINtB2_12SpecFromIterBU_INtNtNtCsfvfooZQ3Axs_4core4iter8adapters12GenericShuntINtNtB2A_3map3MapINtNtB10_10punctuated4IterBW_ENCNvNtNtB1x_7derives4args19collect_args_fields0EINtNtB2E_6result6ResultNtNtB2E_7convert10InfallibleNtNtB10_5error5ErrorEEE9from_iterB1x_, symObjAddr: 0x5100, symBinAddr: 0x1D31C, symSize: 0x14 }
  - { offset: 0x1A79F, size: 0x8, addend: 0x0, symName: __RNvXNtNtCse1nGBsou5OW_5alloc3vec14spec_from_iterINtB4_3VecTRNtNtCs6IAuOt8vWmF_3syn4data5FieldNtNtCsjOBAykZTw0C_11clap_derive4item4ItemEEINtB2_12SpecFromIterBU_INtNtNtCsfvfooZQ3Axs_4core4iter8adapters12GenericShuntINtNtB2A_3map3MapINtNtB10_10punctuated4IterBW_ENCNvNtNtB1x_7derives6parser13derive_parser0EINtNtB2E_6result6ResultNtNtB2E_7convert10InfallibleNtNtB10_5error5ErrorEEE9from_iterB1x_, symObjAddr: 0x5114, symBinAddr: 0x1D330, symSize: 0x14 }
  - { offset: 0x1A7DE, size: 0x8, addend: 0x0, symName: __RNvXNtNtCse1nGBsou5OW_5alloc3vec14spec_from_iterINtB4_3VecTRNtNtCs6IAuOt8vWmF_3syn4data7VariantNtNtCsjOBAykZTw0C_11clap_derive4item4ItemEEINtB2_12SpecFromIterBU_INtNtNtCsfvfooZQ3Axs_4core4iter8adapters12GenericShuntINtNtB2C_3map3MapINtNtB10_10punctuated4IterBW_ENCNvNtNtB1z_7derives10subcommand17derive_subcommand0EINtNtB2G_6result6ResultNtNtB2G_7convert10InfallibleNtNtB10_5error5ErrorEEE9from_iterB1z_, symObjAddr: 0x5128, symBinAddr: 0x1D344, symSize: 0x14 }
  - { offset: 0x1A81D, size: 0x8, addend: 0x0, symName: __RNvXNtNtCse1nGBsou5OW_5alloc3vec14spec_from_iterINtB4_3VecTRNtNtCs6IAuOt8vWmF_3syn4data7VariantNtNtCsjOBAykZTw0C_11clap_derive4item4ItemEEINtB2_12SpecFromIterBU_INtNtNtCsfvfooZQ3Axs_4core4iter8adapters12GenericShuntINtNtB2C_3map3MapINtNtB10_10punctuated4IterBW_ENCNvNtNtB1z_7derives6parser13derive_parsers_0EINtNtB2G_6result6ResultNtNtB2G_7convert10InfallibleNtNtB10_5error5ErrorEEE9from_iterB1z_, symObjAddr: 0x513C, symBinAddr: 0x1D358, symSize: 0x14 }
  - { offset: 0x1A868, size: 0x8, addend: 0x0, symName: __RNvXNtNtCse1nGBsou5OW_5alloc3vec21spec_from_iter_nestedINtB4_3VecNtCs3cP53eQoTwO_11proc_macro211TokenStreamEINtB2_18SpecFromIterNestedB11_INtNtNtCsfvfooZQ3Axs_4core4iter8adapters12GenericShuntINtNtB2f_3map3MapINtNtNtB2j_5slice4iter4IterTRNtNtCs6IAuOt8vWmF_3syn4data5FieldNtNtCsjOBAykZTw0C_11clap_derive4item4ItemEENCNvNtNtB4p_7derives4args15gen_constructor0EINtNtB2j_6result6ResultNtNtB2j_7convert10InfallibleNtNtB3S_5error5ErrorEEE9from_iterB4p_, symObjAddr: 0x5150, symBinAddr: 0x1D36C, symSize: 0x218 }
  - { offset: 0x1AA86, size: 0x8, addend: 0x0, symName: __RNvXNtNtCse1nGBsou5OW_5alloc3vec21spec_from_iter_nestedINtB4_3VecNtCs3cP53eQoTwO_11proc_macro211TokenStreamEINtB2_18SpecFromIterNestedB11_INtNtNtCsfvfooZQ3Axs_4core4iter8adapters12GenericShuntINtNtB2f_3map3MapINtNtNtB2j_5slice4iter4IterTRRNtNtCs6IAuOt8vWmF_3syn4data7VariantRNtNtCsjOBAykZTw0C_11clap_derive4item4ItemEENCNvNtNtB4t_7derives10subcommand18gen_has_subcommands1_0EINtNtB2j_6result6ResultNtNtB2j_7convert10InfallibleNtNtB3T_5error5ErrorEEE9from_iterB4t_, symObjAddr: 0x5368, symBinAddr: 0x1D584, symSize: 0x218 }
  - { offset: 0x1ACA4, size: 0x8, addend: 0x0, symName: __RNvXNtNtCse1nGBsou5OW_5alloc3vec21spec_from_iter_nestedINtB4_3VecNtCs3cP53eQoTwO_11proc_macro211TokenStreamEINtB2_18SpecFromIterNestedB11_INtNtNtCsfvfooZQ3Axs_4core4iter8adapters12GenericShuntINtNtB2f_3map3MapINtNtNtB2j_5slice4iter4IterTRRNtNtCs6IAuOt8vWmF_3syn4data7VariantRNtNtCsjOBAykZTw0C_11clap_derive4item4ItemEENCNvNtNtB4t_7derives10subcommand20gen_from_arg_matches0EINtNtB2j_6result6ResultNtNtB2j_7convert10InfallibleNtNtB3T_5error5ErrorEEE9from_iterB4t_, symObjAddr: 0x5580, symBinAddr: 0x1D79C, symSize: 0x224 }
  - { offset: 0x1AEC3, size: 0x8, addend: 0x0, symName: __RNvXNtNtCse1nGBsou5OW_5alloc3vec21spec_from_iter_nestedINtB4_3VecNtCs3cP53eQoTwO_11proc_macro211TokenStreamEINtB2_18SpecFromIterNestedB11_INtNtNtCsfvfooZQ3Axs_4core4iter8adapters12GenericShuntINtNtB2f_3map3MapINtNtNtB2j_5slice4iter4IterTRRNtNtCs6IAuOt8vWmF_3syn4data7VariantRNtNtCsjOBAykZTw0C_11clap_derive4item4ItemEENCNvNtNtB4t_7derives10subcommand20gen_from_arg_matchess_0EINtNtB2j_6result6ResultNtNtB2j_7convert10InfallibleNtNtB3T_5error5ErrorEEE9from_iterB4t_, symObjAddr: 0x57A4, symBinAddr: 0x1D9C0, symSize: 0x218 }
  - { offset: 0x1B0E1, size: 0x8, addend: 0x0, symName: __RNvXNtNtCse1nGBsou5OW_5alloc3vec21spec_from_iter_nestedINtB4_3VecNtCs3cP53eQoTwO_11proc_macro211TokenStreamEINtB2_18SpecFromIterNestedB11_INtNtNtCsfvfooZQ3Axs_4core4iter8adapters12GenericShuntINtNtB2f_3map3MapINtNtNtB2j_5slice4iter4IterTRRNtNtCs6IAuOt8vWmF_3syn4data7VariantRNtNtCsjOBAykZTw0C_11clap_derive4item4ItemEENCNvNtNtB4t_7derives10subcommand27gen_update_from_arg_matchess0_0EINtNtB2j_6result6ResultNtNtB2j_7convert10InfallibleNtNtB3T_5error5ErrorEEE9from_iterB4t_, symObjAddr: 0x59BC, symBinAddr: 0x1DBD8, symSize: 0x218 }
  - { offset: 0x1B2FF, size: 0x8, addend: 0x0, symName: __RNvXNtNtCse1nGBsou5OW_5alloc3vec21spec_from_iter_nestedINtB4_3VecNtCs3cP53eQoTwO_11proc_macro211TokenStreamEINtB2_18SpecFromIterNestedB11_INtNtNtCsfvfooZQ3Axs_4core4iter8adapters12GenericShuntINtNtB2f_3map3MapINtNtNtB2j_5slice4iter4IterTRRNtNtCs6IAuOt8vWmF_3syn4data7VariantRNtNtCsjOBAykZTw0C_11clap_derive4item4ItemEENCNvNtNtB4t_7derives10subcommand27gen_update_from_arg_matchess1_0EINtNtB2j_6result6ResultNtNtB2j_7convert10InfallibleNtNtB3T_5error5ErrorEEE9from_iterB4t_, symObjAddr: 0x5BD4, symBinAddr: 0x1DDF0, symSize: 0x218 }
  - { offset: 0x1B51D, size: 0x8, addend: 0x0, symName: __RNvXNtNtCse1nGBsou5OW_5alloc3vec21spec_from_iter_nestedINtB4_3VecNtNtB6_6string6StringEINtB2_18SpecFromIterNestedB11_INtNtNtNtCsfvfooZQ3Axs_4core4iter7sources7from_fn6FromFnNCNvNtNtCsjOBAykZTw0C_11clap_derive5utils12doc_comments16split_paragraphs0EE9from_iterB2T_, symObjAddr: 0x5DEC, symBinAddr: 0x1E008, symSize: 0x218 }
  - { offset: 0x1B73B, size: 0x8, addend: 0x0, symName: __RNvXNtNtCse1nGBsou5OW_5alloc3vec21spec_from_iter_nestedINtB4_3VecNtNtB6_6string6StringEINtB2_18SpecFromIterNestedB11_INtNtNtNtCsfvfooZQ3Axs_4core4iter8adapters3map3MapINtNtNtB20_3str4iter5SplitcENCNCNvNtNtCsjOBAykZTw0C_11clap_derive5utils12doc_comments19extract_doc_comments1_00EE9from_iterB3h_, symObjAddr: 0x6004, symBinAddr: 0x1E220, symSize: 0x224 }
  - { offset: 0x1B95A, size: 0x8, addend: 0x0, symName: __RNvXNtNtCse1nGBsou5OW_5alloc3vec21spec_from_iter_nestedINtB4_3VecNtNtB6_6string6StringEINtB2_18SpecFromIterNestedB11_INtNtNtNtCsfvfooZQ3Axs_4core4iter8adapters7flatten7FlatMapINtNtB1W_10skip_while9SkipWhileINtNtB1W_10filter_map9FilterMapINtNtB1W_6filter6FilterINtNtNtB20_5slice4iter4IterNtNtCs6IAuOt8vWmF_3syn4attr9AttributeENCNvNtNtCsjOBAykZTw0C_11clap_derive5utils12doc_comments19extract_doc_comment0ENCB5f_s_0ENCB5f_s0_0EBR_NCB5f_s1_0EE9from_iterB5l_, symObjAddr: 0x6228, symBinAddr: 0x1E444, symSize: 0x234 }
  - { offset: 0x1BB79, size: 0x8, addend: 0x0, symName: __RNvXNtNtCse1nGBsou5OW_5alloc3vec21spec_from_iter_nestedINtB4_3VecNtNtCs6IAuOt8vWmF_3syn4expr4ExprEINtB2_18SpecFromIterNestedB11_INtNtB15_10punctuated8IntoIterB11_EE9from_iterCsjOBAykZTw0C_11clap_derive, symObjAddr: 0x645C, symBinAddr: 0x1E678, symSize: 0x23C }
  - { offset: 0x1BD98, size: 0x8, addend: 0x0, symName: __RNvXNtNtCse1nGBsou5OW_5alloc3vec21spec_from_iter_nestedINtB4_3VecRNtCs3cP53eQoTwO_11proc_macro25IdentEINtB2_18SpecFromIterNestedB11_INtNtNtNtCsfvfooZQ3Axs_4core4iter8adapters3map3MapINtNtCs6IAuOt8vWmF_3syn10punctuated4IterNtNtB2Z_4data5FieldENCNCNvNtNtCsjOBAykZTw0C_11clap_derive7derives10subcommand27gen_update_from_arg_matchess0_00EE9from_iterB42_, symObjAddr: 0x6698, symBinAddr: 0x1E8B4, symSize: 0x204 }
  - { offset: 0x1BFB6, size: 0x8, addend: 0x0, symName: __RNvXNtNtCse1nGBsou5OW_5alloc3vec21spec_from_iter_nestedINtB4_3VecRNtNtCsjOBAykZTw0C_11clap_derive4item4NameEINtB2_18SpecFromIterNestedB11_INtNtNtNtCsfvfooZQ3Axs_4core4iter8adapters10filter_map9FilterMapINtNtNtB2l_5slice4iter4IterTRNtNtCs6IAuOt8vWmF_3syn4data5FieldNtB14_4ItemEENCNvNtNtB16_7derives4args11gen_augment0EE9from_iterB16_, symObjAddr: 0x689C, symBinAddr: 0x1EAB8, symSize: 0x1F4 }
  - { offset: 0x1C1D4, size: 0x8, addend: 0x0, symName: __RNvXNtNtCse1nGBsou5OW_5alloc3vec21spec_from_iter_nestedINtB4_3VecTRNtNtCs6IAuOt8vWmF_3syn4data5FieldNtNtCsjOBAykZTw0C_11clap_derive4item4ItemEEINtB2_18SpecFromIterNestedB11_INtNtNtCsfvfooZQ3Axs_4core4iter8adapters12GenericShuntINtNtB2O_3map3MapINtNtB17_10punctuated4IterB13_ENCNvNtNtB1E_7derives4args11derive_args0EINtNtB2S_6result6ResultNtNtB2S_7convert10InfallibleNtNtB17_5error5ErrorEEE9from_iterB1E_, symObjAddr: 0x6A90, symBinAddr: 0x1ECAC, symSize: 0x240 }
  - { offset: 0x1C3F3, size: 0x8, addend: 0x0, symName: __RNvXNtNtCse1nGBsou5OW_5alloc3vec21spec_from_iter_nestedINtB4_3VecTRNtNtCs6IAuOt8vWmF_3syn4data5FieldNtNtCsjOBAykZTw0C_11clap_derive4item4ItemEEINtB2_18SpecFromIterNestedB11_INtNtNtCsfvfooZQ3Axs_4core4iter8adapters12GenericShuntINtNtB2O_3map3MapINtNtB17_10punctuated4IterB13_ENCNvNtNtB1E_7derives4args19collect_args_fields0EINtNtB2S_6result6ResultNtNtB2S_7convert10InfallibleNtNtB17_5error5ErrorEEE9from_iterB1E_, symObjAddr: 0x6CD0, symBinAddr: 0x1EEEC, symSize: 0x240 }
  - { offset: 0x1C612, size: 0x8, addend: 0x0, symName: __RNvXNtNtCse1nGBsou5OW_5alloc3vec21spec_from_iter_nestedINtB4_3VecTRNtNtCs6IAuOt8vWmF_3syn4data5FieldNtNtCsjOBAykZTw0C_11clap_derive4item4ItemEEINtB2_18SpecFromIterNestedB11_INtNtNtCsfvfooZQ3Axs_4core4iter8adapters12GenericShuntINtNtB2O_3map3MapINtNtB17_10punctuated4IterB13_ENCNvNtNtB1E_7derives6parser13derive_parser0EINtNtB2S_6result6ResultNtNtB2S_7convert10InfallibleNtNtB17_5error5ErrorEEE9from_iterB1E_, symObjAddr: 0x6F10, symBinAddr: 0x1F12C, symSize: 0x240 }
  - { offset: 0x1C831, size: 0x8, addend: 0x0, symName: __RNvXNtNtCse1nGBsou5OW_5alloc3vec21spec_from_iter_nestedINtB4_3VecTRNtNtCs6IAuOt8vWmF_3syn4data7VariantNtNtCsjOBAykZTw0C_11clap_derive4item4ItemEEINtB2_18SpecFromIterNestedB11_INtNtNtCsfvfooZQ3Axs_4core4iter8adapters12GenericShuntINtNtB2Q_3map3MapINtNtB17_10punctuated4IterB13_ENCNvNtNtB1G_7derives10subcommand17derive_subcommand0EINtNtB2U_6result6ResultNtNtB2U_7convert10InfallibleNtNtB17_5error5ErrorEEE9from_iterB1G_, symObjAddr: 0x7150, symBinAddr: 0x1F36C, symSize: 0x240 }
  - { offset: 0x1CA50, size: 0x8, addend: 0x0, symName: __RNvXNtNtCse1nGBsou5OW_5alloc3vec21spec_from_iter_nestedINtB4_3VecTRNtNtCs6IAuOt8vWmF_3syn4data7VariantNtNtCsjOBAykZTw0C_11clap_derive4item4ItemEEINtB2_18SpecFromIterNestedB11_INtNtNtCsfvfooZQ3Axs_4core4iter8adapters12GenericShuntINtNtB2Q_3map3MapINtNtB17_10punctuated4IterB13_ENCNvNtNtB1G_7derives6parser13derive_parsers_0EINtNtB2U_6result6ResultNtNtB2U_7convert10InfallibleNtNtB17_5error5ErrorEEE9from_iterB1G_, symObjAddr: 0x7390, symBinAddr: 0x1F5AC, symSize: 0x240 }
  - { offset: 0x1CC75, size: 0x8, addend: 0x0, symName: __RNvXs_NtNtCse1nGBsou5OW_5alloc3vec21spec_from_iter_nestedINtB6_3VecNtNtB8_6string6StringEINtB4_18SpecFromIterNestedB13_INtNtNtNtCsfvfooZQ3Axs_4core4iter8adapters3map3MapINtNtNtB22_5slice4iter4IterB13_ENCINvNtNtCsjOBAykZTw0C_11clap_derive5utils12doc_comments11merge_linesRB13_RSB13_E0EE9from_iterB3m_, symObjAddr: 0x7B68, symBinAddr: 0x1FD84, symSize: 0x168 }
  - { offset: 0x1CD4B, size: 0x8, addend: 0x0, symName: __RNvXs_NtNtCse1nGBsou5OW_5alloc3vec21spec_from_iter_nestedINtB6_3VecNtNtB8_6string6StringEINtB4_18SpecFromIterNestedB13_INtNtNtNtCsfvfooZQ3Axs_4core4iter8adapters3map3MapINtNtNtB22_5slice4iter4IterNtNtCsjOBAykZTw0C_11clap_derive4attr8AttrKindENCNvNtB3c_4item16assert_attr_kind0EE9from_iterB3c_, symObjAddr: 0x7CD0, symBinAddr: 0x1FEEC, symSize: 0x16C }
  - { offset: 0x1CE22, size: 0x8, addend: 0x0, symName: __RNvXs_NtNtCse1nGBsou5OW_5alloc3vec21spec_from_iter_nestedINtB6_3VecRNtCs3cP53eQoTwO_11proc_macro25IdentEINtB4_18SpecFromIterNestedB13_INtNtNtNtCsfvfooZQ3Axs_4core4iter8adapters3map3MapINtNtNtB2h_5slice4iter4IterTNtB16_11TokenStreamB14_EENCNvNtNtCsjOBAykZTw0C_11clap_derive7derives10value_enum18gen_value_variants0EE9from_iterB3V_, symObjAddr: 0x7E3C, symBinAddr: 0x20058, symSize: 0x164 }
  - { offset: 0x1CEF8, size: 0x8, addend: 0x0, symName: __RNvXs_NtNtCse1nGBsou5OW_5alloc3vec21spec_from_iter_nestedINtB6_3VechEINtB4_18SpecFromIterNestedhINtNtNtNtCsfvfooZQ3Axs_4core4iter8adapters3map3MapINtNtNtB1F_5slice4iter4IterhENCNvNtB8_3str13replace_ascii0EE9from_iterCsjOBAykZTw0C_11clap_derive, symObjAddr: 0x7FA0, symBinAddr: 0x201BC, symSize: 0x168 }
  - { offset: 0x1CFD6, size: 0x8, addend: 0x0, symName: __RNvXs6_NtCse1nGBsou5OW_5alloc3vecINtB5_3VecINtNtCsfvfooZQ3Axs_4core6option6OptionNtCs3cP53eQoTwO_11proc_macro211TokenStreamEENtNtNtBK_3ops5deref5Deref5derefCsjOBAykZTw0C_11clap_derive, symObjAddr: 0x7790, symBinAddr: 0x1F9AC, symSize: 0x24 }
  - { offset: 0x1D016, size: 0x8, addend: 0x0, symName: __RNvXs6_NtCse1nGBsou5OW_5alloc3vecINtB5_3VecNtCs3cP53eQoTwO_11proc_macro211TokenStreamENtNtNtCsfvfooZQ3Axs_4core3ops5deref5Deref5derefCsjOBAykZTw0C_11clap_derive, symObjAddr: 0x77B4, symBinAddr: 0x1F9D0, symSize: 0x24 }
  - { offset: 0x1D056, size: 0x8, addend: 0x0, symName: __RNvXs6_NtCse1nGBsou5OW_5alloc3vecINtB5_3VecNtCs3cP53eQoTwO_11proc_macro25IdentENtNtNtCsfvfooZQ3Axs_4core3ops5deref5Deref5derefCsjOBAykZTw0C_11clap_derive, symObjAddr: 0x77D8, symBinAddr: 0x1F9F4, symSize: 0x24 }
  - { offset: 0x1D096, size: 0x8, addend: 0x0, symName: __RNvXs6_NtCse1nGBsou5OW_5alloc3vecINtB5_3VecNtNtB7_6string6StringENtNtNtCsfvfooZQ3Axs_4core3ops5deref5Deref5derefCsjOBAykZTw0C_11clap_derive, symObjAddr: 0x77FC, symBinAddr: 0x1FA18, symSize: 0x24 }
  - { offset: 0x1D0D6, size: 0x8, addend: 0x0, symName: __RNvXs6_NtCse1nGBsou5OW_5alloc3vecINtB5_3VecNtNtCs6IAuOt8vWmF_3syn4expr4ExprENtNtNtCsfvfooZQ3Axs_4core3ops5deref5Deref5derefCsjOBAykZTw0C_11clap_derive, symObjAddr: 0x7820, symBinAddr: 0x1FA3C, symSize: 0x24 }
  - { offset: 0x1D116, size: 0x8, addend: 0x0, symName: __RNvXs6_NtCse1nGBsou5OW_5alloc3vecINtB5_3VecNtNtCsjOBAykZTw0C_11clap_derive4attr8ClapAttrENtNtNtCsfvfooZQ3Axs_4core3ops5deref5Deref5derefBJ_, symObjAddr: 0x7844, symBinAddr: 0x1FA60, symSize: 0x24 }
  - { offset: 0x1D156, size: 0x8, addend: 0x0, symName: __RNvXs6_NtCse1nGBsou5OW_5alloc3vecINtB5_3VecNtNtCsjOBAykZTw0C_11clap_derive4item11DeprecationENtNtNtCsfvfooZQ3Axs_4core3ops5deref5Deref5derefBJ_, symObjAddr: 0x7868, symBinAddr: 0x1FA84, symSize: 0x24 }
  - { offset: 0x1D196, size: 0x8, addend: 0x0, symName: __RNvXs6_NtCse1nGBsou5OW_5alloc3vecINtB5_3VecNtNtCsjOBAykZTw0C_11clap_derive4item6MethodENtNtNtCsfvfooZQ3Axs_4core3ops5deref5Deref5derefBJ_, symObjAddr: 0x788C, symBinAddr: 0x1FAA8, symSize: 0x24 }
  - { offset: 0x1D1D6, size: 0x8, addend: 0x0, symName: __RNvXs6_NtCse1nGBsou5OW_5alloc3vecINtB5_3VecRNtCs3cP53eQoTwO_11proc_macro25IdentENtNtNtCsfvfooZQ3Axs_4core3ops5deref5Deref5derefCsjOBAykZTw0C_11clap_derive, symObjAddr: 0x78B0, symBinAddr: 0x1FACC, symSize: 0x24 }
  - { offset: 0x1D216, size: 0x8, addend: 0x0, symName: __RNvXs6_NtCse1nGBsou5OW_5alloc3vecINtB5_3VecRNtNtCsjOBAykZTw0C_11clap_derive4item4NameENtNtNtCsfvfooZQ3Axs_4core3ops5deref5Deref5derefBK_, symObjAddr: 0x78D4, symBinAddr: 0x1FAF0, symSize: 0x24 }
  - { offset: 0x1D256, size: 0x8, addend: 0x0, symName: __RNvXs6_NtCse1nGBsou5OW_5alloc3vecINtB5_3VecTNtCs3cP53eQoTwO_11proc_macro211TokenStreamNtBI_5IdentEENtNtNtCsfvfooZQ3Axs_4core3ops5deref5Deref5derefCsjOBAykZTw0C_11clap_derive, symObjAddr: 0x78F8, symBinAddr: 0x1FB14, symSize: 0x24 }
  - { offset: 0x1D296, size: 0x8, addend: 0x0, symName: __RNvXs6_NtCse1nGBsou5OW_5alloc3vecINtB5_3VecTRNtNtCs6IAuOt8vWmF_3syn4data5FieldNtNtCsjOBAykZTw0C_11clap_derive4item4ItemEENtNtNtCsfvfooZQ3Axs_4core3ops5deref5Deref5derefB1i_, symObjAddr: 0x791C, symBinAddr: 0x1FB38, symSize: 0x24 }
  - { offset: 0x1D2D6, size: 0x8, addend: 0x0, symName: __RNvXs6_NtCse1nGBsou5OW_5alloc3vecINtB5_3VecTRNtNtCs6IAuOt8vWmF_3syn4data7VariantNtNtCsjOBAykZTw0C_11clap_derive4item4ItemEENtNtNtCsfvfooZQ3Axs_4core3ops5deref5Deref5derefB1k_, symObjAddr: 0x7940, symBinAddr: 0x1FB5C, symSize: 0x24 }
  - { offset: 0x1D316, size: 0x8, addend: 0x0, symName: __RNvXs6_NtCse1nGBsou5OW_5alloc3vecINtB5_3VecTRRNtNtCs6IAuOt8vWmF_3syn4data7VariantRNtNtCsjOBAykZTw0C_11clap_derive4item4ItemEENtNtNtCsfvfooZQ3Axs_4core3ops5deref5Deref5derefB1m_, symObjAddr: 0x7964, symBinAddr: 0x1FB80, symSize: 0x24 }
  - { offset: 0x1D41C, size: 0x8, addend: 0x0, symName: __RNvXs9_NtCse1nGBsou5OW_5alloc3vecINtB5_3VecNtNtCs6IAuOt8vWmF_3syn4expr4ExprENtNtCsfvfooZQ3Axs_4core5clone5Clone5cloneCsjOBAykZTw0C_11clap_derive, symObjAddr: 0x7988, symBinAddr: 0x1FBA4, symSize: 0x88 }
  - { offset: 0x1D619, size: 0x8, addend: 0x0, symName: __RNvXsb_NtCse1nGBsou5OW_5alloc3vecINtB5_3VecNtNtB7_6string6StringEINtNtNtCsfvfooZQ3Axs_4core3ops5index5IndexjE5indexCsjOBAykZTw0C_11clap_derive, symObjAddr: 0x8108, symBinAddr: 0x20324, symSize: 0x84 }
  - { offset: 0x1D79B, size: 0x8, addend: 0x0, symName: __RNvXsb_NtCse1nGBsou5OW_5alloc3vecINtB5_3VecNtNtCsjOBAykZTw0C_11clap_derive4item6MethodEINtNtNtCsfvfooZQ3Axs_4core3ops5index5IndexjE5indexBJ_, symObjAddr: 0x818C, symBinAddr: 0x203A8, symSize: 0x84 }
  - { offset: 0x1D91D, size: 0x8, addend: 0x0, symName: __RNvXsb_NtCse1nGBsou5OW_5alloc3vecINtB5_3VecTNtNtCs6IAuOt8vWmF_3syn4data5FieldNtNtBK_5token5CommaEEINtNtNtCsfvfooZQ3Axs_4core3ops5index5IndexjE5indexCsjOBAykZTw0C_11clap_derive, symObjAddr: 0x8210, symBinAddr: 0x2042C, symSize: 0x84 }
  - { offset: 0x1DAA5, size: 0x8, addend: 0x0, symName: __RNvXse_NtCse1nGBsou5OW_5alloc3vecINtB5_3VecNtNtB7_6string6StringENtNtNtNtCsfvfooZQ3Axs_4core4iter6traits7collect12IntoIterator9into_iterCsjOBAykZTw0C_11clap_derive, symObjAddr: 0x8294, symBinAddr: 0x204B0, symSize: 0xE4 }
  - { offset: 0x1DD37, size: 0x8, addend: 0x0, symName: __RNvXse_NtCse1nGBsou5OW_5alloc3vecINtB5_3VecNtNtCs6IAuOt8vWmF_3syn4expr4ExprENtNtNtNtCsfvfooZQ3Axs_4core4iter6traits7collect12IntoIterator9into_iterCsjOBAykZTw0C_11clap_derive, symObjAddr: 0x8378, symBinAddr: 0x20594, symSize: 0xE4 }
  - { offset: 0x1DFC9, size: 0x8, addend: 0x0, symName: __RNvXse_NtCse1nGBsou5OW_5alloc3vecINtB5_3VecNtNtCsjOBAykZTw0C_11clap_derive4attr8ClapAttrENtNtNtNtCsfvfooZQ3Axs_4core4iter6traits7collect12IntoIterator9into_iterBJ_, symObjAddr: 0x845C, symBinAddr: 0x20678, symSize: 0xE4 }
  - { offset: 0x1E25B, size: 0x8, addend: 0x0, symName: __RNvXse_NtCse1nGBsou5OW_5alloc3vecINtB5_3VecTNtNtCs6IAuOt8vWmF_3syn4expr4ExprNtNtBK_5token5CommaEENtNtNtNtCsfvfooZQ3Axs_4core4iter6traits7collect12IntoIterator9into_iterCsjOBAykZTw0C_11clap_derive, symObjAddr: 0x8540, symBinAddr: 0x2075C, symSize: 0xE4 }
  - { offset: 0x1E4ED, size: 0x8, addend: 0x0, symName: __RNvXse_NtCse1nGBsou5OW_5alloc3vecINtB5_3VecTNtNtCsjOBAykZTw0C_11clap_derive4attr8ClapAttrNtNtCs6IAuOt8vWmF_3syn5token5CommaEENtNtNtNtCsfvfooZQ3Axs_4core4iter6traits7collect12IntoIterator9into_iterBK_, symObjAddr: 0x8624, symBinAddr: 0x20840, symSize: 0xE4 }
  - { offset: 0x1E785, size: 0x8, addend: 0x0, symName: __RNvXsn_NtCse1nGBsou5OW_5alloc3vecINtB5_3VecINtNtCsfvfooZQ3Axs_4core6option6OptionNtCs3cP53eQoTwO_11proc_macro211TokenStreamEENtNtNtBK_3ops4drop4Drop4dropCsjOBAykZTw0C_11clap_derive, symObjAddr: 0x88D8, symBinAddr: 0x20AF4, symSize: 0x38 }
  - { offset: 0x1E835, size: 0x8, addend: 0x0, symName: __RNvXsn_NtCse1nGBsou5OW_5alloc3vecINtB5_3VecNtCs3cP53eQoTwO_11proc_macro211TokenStreamENtNtNtCsfvfooZQ3Axs_4core3ops4drop4Drop4dropCsjOBAykZTw0C_11clap_derive, symObjAddr: 0x8910, symBinAddr: 0x20B2C, symSize: 0x38 }
  - { offset: 0x1E8E5, size: 0x8, addend: 0x0, symName: __RNvXsn_NtCse1nGBsou5OW_5alloc3vecINtB5_3VecNtCs3cP53eQoTwO_11proc_macro25IdentENtNtNtCsfvfooZQ3Axs_4core3ops4drop4Drop4dropCsjOBAykZTw0C_11clap_derive, symObjAddr: 0x8948, symBinAddr: 0x20B64, symSize: 0x38 }
  - { offset: 0x1E995, size: 0x8, addend: 0x0, symName: __RNvXsn_NtCse1nGBsou5OW_5alloc3vecINtB5_3VecNtNtB7_6string6StringENtNtNtCsfvfooZQ3Axs_4core3ops4drop4Drop4dropCsjOBAykZTw0C_11clap_derive, symObjAddr: 0x8980, symBinAddr: 0x20B9C, symSize: 0x38 }
  - { offset: 0x1EA45, size: 0x8, addend: 0x0, symName: __RNvXsn_NtCse1nGBsou5OW_5alloc3vecINtB5_3VecNtNtCs6IAuOt8vWmF_3syn4expr4ExprENtNtNtCsfvfooZQ3Axs_4core3ops4drop4Drop4dropCsjOBAykZTw0C_11clap_derive, symObjAddr: 0x89B8, symBinAddr: 0x20BD4, symSize: 0x38 }
  - { offset: 0x1EAF5, size: 0x8, addend: 0x0, symName: __RNvXsn_NtCse1nGBsou5OW_5alloc3vecINtB5_3VecNtNtCsjOBAykZTw0C_11clap_derive4attr8ClapAttrENtNtNtCsfvfooZQ3Axs_4core3ops4drop4Drop4dropBJ_, symObjAddr: 0x89F0, symBinAddr: 0x20C0C, symSize: 0x38 }
  - { offset: 0x1EBA5, size: 0x8, addend: 0x0, symName: __RNvXsn_NtCse1nGBsou5OW_5alloc3vecINtB5_3VecNtNtCsjOBAykZTw0C_11clap_derive4item11DeprecationENtNtNtCsfvfooZQ3Axs_4core3ops4drop4Drop4dropBJ_, symObjAddr: 0x8A28, symBinAddr: 0x20C44, symSize: 0x38 }
  - { offset: 0x1EC55, size: 0x8, addend: 0x0, symName: __RNvXsn_NtCse1nGBsou5OW_5alloc3vecINtB5_3VecNtNtCsjOBAykZTw0C_11clap_derive4item6MethodENtNtNtCsfvfooZQ3Axs_4core3ops4drop4Drop4dropBJ_, symObjAddr: 0x8A60, symBinAddr: 0x20C7C, symSize: 0x38 }
  - { offset: 0x1ED05, size: 0x8, addend: 0x0, symName: __RNvXsn_NtCse1nGBsou5OW_5alloc3vecINtB5_3VecRNtCs3cP53eQoTwO_11proc_macro25IdentENtNtNtCsfvfooZQ3Axs_4core3ops4drop4Drop4dropCsjOBAykZTw0C_11clap_derive, symObjAddr: 0x8A98, symBinAddr: 0x20CB4, symSize: 0x24 }
  - { offset: 0x1EDB5, size: 0x8, addend: 0x0, symName: __RNvXsn_NtCse1nGBsou5OW_5alloc3vecINtB5_3VecRNtNtCsjOBAykZTw0C_11clap_derive4item4NameENtNtNtCsfvfooZQ3Axs_4core3ops4drop4Drop4dropBK_, symObjAddr: 0x8ABC, symBinAddr: 0x20CD8, symSize: 0x24 }
  - { offset: 0x1EE65, size: 0x8, addend: 0x0, symName: __RNvXsn_NtCse1nGBsou5OW_5alloc3vecINtB5_3VecTNtCs3cP53eQoTwO_11proc_macro211TokenStreamNtBI_5IdentEENtNtNtCsfvfooZQ3Axs_4core3ops4drop4Drop4dropCsjOBAykZTw0C_11clap_derive, symObjAddr: 0x8AE0, symBinAddr: 0x20CFC, symSize: 0x38 }
  - { offset: 0x1EF15, size: 0x8, addend: 0x0, symName: __RNvXsn_NtCse1nGBsou5OW_5alloc3vecINtB5_3VecTNtNtCsjOBAykZTw0C_11clap_derive4attr8ClapAttrNtNtCs6IAuOt8vWmF_3syn5token5CommaEENtNtNtCsfvfooZQ3Axs_4core3ops4drop4Drop4dropBK_, symObjAddr: 0x8B18, symBinAddr: 0x20D34, symSize: 0x38 }
  - { offset: 0x1EFC5, size: 0x8, addend: 0x0, symName: __RNvXsn_NtCse1nGBsou5OW_5alloc3vecINtB5_3VecTRNtNtCs6IAuOt8vWmF_3syn4data5FieldNtNtCsjOBAykZTw0C_11clap_derive4item4ItemEENtNtNtCsfvfooZQ3Axs_4core3ops4drop4Drop4dropB1i_, symObjAddr: 0x8B50, symBinAddr: 0x20D6C, symSize: 0x38 }
  - { offset: 0x1F075, size: 0x8, addend: 0x0, symName: __RNvXsn_NtCse1nGBsou5OW_5alloc3vecINtB5_3VecTRNtNtCs6IAuOt8vWmF_3syn4data7VariantNtNtCsjOBAykZTw0C_11clap_derive4item4ItemEENtNtNtCsfvfooZQ3Axs_4core3ops4drop4Drop4dropB1k_, symObjAddr: 0x8B88, symBinAddr: 0x20DA4, symSize: 0x38 }
  - { offset: 0x1F125, size: 0x8, addend: 0x0, symName: __RNvXsn_NtCse1nGBsou5OW_5alloc3vecINtB5_3VecTRRNtNtCs6IAuOt8vWmF_3syn4data7VariantRNtNtCsjOBAykZTw0C_11clap_derive4item4ItemEENtNtNtCsfvfooZQ3Axs_4core3ops4drop4Drop4dropB1m_, symObjAddr: 0x8BC0, symBinAddr: 0x20DDC, symSize: 0x24 }
  - { offset: 0x1F1DB, size: 0x8, addend: 0x0, symName: __RNvXso_NtCse1nGBsou5OW_5alloc3vecINtB5_3VecNtCs3cP53eQoTwO_11proc_macro211TokenStreamENtNtCsfvfooZQ3Axs_4core7default7Default7defaultCsjOBAykZTw0C_11clap_derive, symObjAddr: 0x8BE4, symBinAddr: 0x20E00, symSize: 0x14 }
  - { offset: 0x1F1FD, size: 0x8, addend: 0x0, symName: __RNvXso_NtCse1nGBsou5OW_5alloc3vecINtB5_3VecNtCs3cP53eQoTwO_11proc_macro211TokenStreamENtNtCsfvfooZQ3Axs_4core7default7Default7defaultCsjOBAykZTw0C_11clap_derive, symObjAddr: 0x8BE4, symBinAddr: 0x20E00, symSize: 0x14 }
  - { offset: 0x1F218, size: 0x8, addend: 0x0, symName: __RNvXso_NtCse1nGBsou5OW_5alloc3vecINtB5_3VecNtCs3cP53eQoTwO_11proc_macro25IdentENtNtCsfvfooZQ3Axs_4core7default7Default7defaultCsjOBAykZTw0C_11clap_derive, symObjAddr: 0x8BF8, symBinAddr: 0x20E14, symSize: 0x14 }
  - { offset: 0x1F23A, size: 0x8, addend: 0x0, symName: __RNvXso_NtCse1nGBsou5OW_5alloc3vecINtB5_3VecNtCs3cP53eQoTwO_11proc_macro25IdentENtNtCsfvfooZQ3Axs_4core7default7Default7defaultCsjOBAykZTw0C_11clap_derive, symObjAddr: 0x8BF8, symBinAddr: 0x20E14, symSize: 0x14 }
  - { offset: 0x1F255, size: 0x8, addend: 0x0, symName: __RNvXso_NtCse1nGBsou5OW_5alloc3vecINtB5_3VecTRRNtNtCs6IAuOt8vWmF_3syn4data7VariantRNtNtCsjOBAykZTw0C_11clap_derive4item4ItemEENtNtCsfvfooZQ3Axs_4core7default7Default7defaultB1m_, symObjAddr: 0x8C0C, symBinAddr: 0x20E28, symSize: 0x14 }
  - { offset: 0x1F277, size: 0x8, addend: 0x0, symName: __RNvXso_NtCse1nGBsou5OW_5alloc3vecINtB5_3VecTRRNtNtCs6IAuOt8vWmF_3syn4data7VariantRNtNtCsjOBAykZTw0C_11clap_derive4item4ItemEENtNtCsfvfooZQ3Axs_4core7default7Default7defaultB1m_, symObjAddr: 0x8C0C, symBinAddr: 0x20E28, symSize: 0x14 }
  - { offset: 0x261FC, size: 0x8, addend: 0x0, symName: __RINvMsi_NtCse1nGBsou5OW_5alloc3vecINtB6_3VecNtCs3cP53eQoTwO_11proc_macro211TokenStreamE16extend_desugaredINtNtNtCsfvfooZQ3Axs_4core4iter8adapters12GenericShuntINtNtB1I_3map3MapINtNtNtB1M_5slice4iter4IterTRNtNtCs6IAuOt8vWmF_3syn4data5FieldNtNtCsjOBAykZTw0C_11clap_derive4item4ItemEENCNvNtNtB3S_7derives4args15gen_constructor0EINtNtB1M_6result6ResultNtNtB1M_7convert10InfallibleNtNtB3l_5error5ErrorEEEB3S_, symObjAddr: 0x0, symBinAddr: 0x1821C, symSize: 0x1C4 }
  - { offset: 0x265F1, size: 0x8, addend: 0x0, symName: __RINvMsi_NtCse1nGBsou5OW_5alloc3vecINtB6_3VecNtCs3cP53eQoTwO_11proc_macro211TokenStreamE16extend_desugaredINtNtNtCsfvfooZQ3Axs_4core4iter8adapters12GenericShuntINtNtB1I_3map3MapINtNtNtB1M_5slice4iter4IterTRRNtNtCs6IAuOt8vWmF_3syn4data7VariantRNtNtCsjOBAykZTw0C_11clap_derive4item4ItemEENCNvNtNtB3W_7derives10subcommand18gen_has_subcommands1_0EINtNtB1M_6result6ResultNtNtB1M_7convert10InfallibleNtNtB3m_5error5ErrorEEEB3W_, symObjAddr: 0x1C4, symBinAddr: 0x183E0, symSize: 0x1C4 }
  - { offset: 0x26994, size: 0x8, addend: 0x0, symName: __RINvMsi_NtCse1nGBsou5OW_5alloc3vecINtB6_3VecNtCs3cP53eQoTwO_11proc_macro211TokenStreamE16extend_desugaredINtNtNtCsfvfooZQ3Axs_4core4iter8adapters12GenericShuntINtNtB1I_3map3MapINtNtNtB1M_5slice4iter4IterTRRNtNtCs6IAuOt8vWmF_3syn4data7VariantRNtNtCsjOBAykZTw0C_11clap_derive4item4ItemEENCNvNtNtB3W_7derives10subcommand20gen_from_arg_matches0EINtNtB1M_6result6ResultNtNtB1M_7convert10InfallibleNtNtB3m_5error5ErrorEEEB3W_, symObjAddr: 0x388, symBinAddr: 0x185A4, symSize: 0x1C4 }
  - { offset: 0x26D2A, size: 0x8, addend: 0x0, symName: __RINvMsi_NtCse1nGBsou5OW_5alloc3vecINtB6_3VecNtCs3cP53eQoTwO_11proc_macro211TokenStreamE16extend_desugaredINtNtNtCsfvfooZQ3Axs_4core4iter8adapters12GenericShuntINtNtB1I_3map3MapINtNtNtB1M_5slice4iter4IterTRRNtNtCs6IAuOt8vWmF_3syn4data7VariantRNtNtCsjOBAykZTw0C_11clap_derive4item4ItemEENCNvNtNtB3W_7derives10subcommand20gen_from_arg_matchess_0EINtNtB1M_6result6ResultNtNtB1M_7convert10InfallibleNtNtB3m_5error5ErrorEEEB3W_, symObjAddr: 0x54C, symBinAddr: 0x18768, symSize: 0x1C4 }
  - { offset: 0x270C0, size: 0x8, addend: 0x0, symName: __RINvMsi_NtCse1nGBsou5OW_5alloc3vecINtB6_3VecNtCs3cP53eQoTwO_11proc_macro211TokenStreamE16extend_desugaredINtNtNtCsfvfooZQ3Axs_4core4iter8adapters12GenericShuntINtNtB1I_3map3MapINtNtNtB1M_5slice4iter4IterTRRNtNtCs6IAuOt8vWmF_3syn4data7VariantRNtNtCsjOBAykZTw0C_11clap_derive4item4ItemEENCNvNtNtB3W_7derives10subcommand27gen_update_from_arg_matchess0_0EINtNtB1M_6result6ResultNtNtB1M_7convert10InfallibleNtNtB3m_5error5ErrorEEEB3W_, symObjAddr: 0x710, symBinAddr: 0x1892C, symSize: 0x1C4 }
  - { offset: 0x27456, size: 0x8, addend: 0x0, symName: __RINvMsi_NtCse1nGBsou5OW_5alloc3vecINtB6_3VecNtCs3cP53eQoTwO_11proc_macro211TokenStreamE16extend_desugaredINtNtNtCsfvfooZQ3Axs_4core4iter8adapters12GenericShuntINtNtB1I_3map3MapINtNtNtB1M_5slice4iter4IterTRRNtNtCs6IAuOt8vWmF_3syn4data7VariantRNtNtCsjOBAykZTw0C_11clap_derive4item4ItemEENCNvNtNtB3W_7derives10subcommand27gen_update_from_arg_matchess1_0EINtNtB1M_6result6ResultNtNtB1M_7convert10InfallibleNtNtB3m_5error5ErrorEEEB3W_, symObjAddr: 0x8D4, symBinAddr: 0x18AF0, symSize: 0x1C4 }
  - { offset: 0x278DB, size: 0x8, addend: 0x0, symName: __RINvMsi_NtCse1nGBsou5OW_5alloc3vecINtB6_3VecNtNtB8_6string6StringE14extend_trustedINtNtNtNtCsfvfooZQ3Axs_4core4iter8adapters3map3MapINtNtNtB1r_5slice4iter4IterBG_ENCINvNtNtCsjOBAykZTw0C_11clap_derive5utils12doc_comments11merge_linesRBG_RSBG_E0EEB2K_, symObjAddr: 0xA98, symBinAddr: 0x18CB4, symSize: 0x170 }
  - { offset: 0x27B9F, size: 0x8, addend: 0x0, symName: __RINvMsi_NtCse1nGBsou5OW_5alloc3vecINtB6_3VecNtNtB8_6string6StringE14extend_trustedINtNtNtNtCsfvfooZQ3Axs_4core4iter8adapters3map3MapINtNtNtB1r_5slice4iter4IterNtNtCsjOBAykZTw0C_11clap_derive4attr8AttrKindENCNvNtB2B_4item16assert_attr_kind0EEB2B_, symObjAddr: 0xC08, symBinAddr: 0x18E24, symSize: 0x17C }
  - { offset: 0x27F05, size: 0x8, addend: 0x0, symName: __RINvMsi_NtCse1nGBsou5OW_5alloc3vecINtB6_3VecNtNtB8_6string6StringE16extend_desugaredINtNtNtNtCsfvfooZQ3Axs_4core4iter7sources7from_fn6FromFnNCNvNtNtCsjOBAykZTw0C_11clap_derive5utils12doc_comments16split_paragraphs0EEB2m_, symObjAddr: 0xD84, symBinAddr: 0x18FA0, symSize: 0x1CC }
  - { offset: 0x282A8, size: 0x8, addend: 0x0, symName: __RINvMsi_NtCse1nGBsou5OW_5alloc3vecINtB6_3VecNtNtB8_6string6StringE16extend_desugaredINtNtNtNtCsfvfooZQ3Axs_4core4iter8adapters3map3MapINtNtNtB1t_3str4iter5SplitcENCNCNvNtNtCsjOBAykZTw0C_11clap_derive5utils12doc_comments19extract_doc_comments1_00EEB2K_, symObjAddr: 0xF50, symBinAddr: 0x1916C, symSize: 0x1CC }
  - { offset: 0x28658, size: 0x8, addend: 0x0, symName: __RINvMsi_NtCse1nGBsou5OW_5alloc3vecINtB6_3VecNtNtB8_6string6StringE16extend_desugaredINtNtNtNtCsfvfooZQ3Axs_4core4iter8adapters7flatten7FlatMapINtNtB1p_10skip_while9SkipWhileINtNtB1p_10filter_map9FilterMapINtNtB1p_6filter6FilterINtNtNtB1t_5slice4iter4IterNtNtCs6IAuOt8vWmF_3syn4attr9AttributeENCNvNtNtCsjOBAykZTw0C_11clap_derive5utils12doc_comments19extract_doc_comment0ENCB4I_s_0ENCB4I_s0_0EBw_NCB4I_s1_0EEB4O_, symObjAddr: 0x111C, symBinAddr: 0x19338, symSize: 0x1E0 }
  - { offset: 0x2898E, size: 0x8, addend: 0x0, symName: __RINvMsi_NtCse1nGBsou5OW_5alloc3vecINtB6_3VecNtNtCs6IAuOt8vWmF_3syn4expr4ExprE14extend_trustedINtNtCsfvfooZQ3Axs_4core6option8IntoIterBG_EECsjOBAykZTw0C_11clap_derive, symObjAddr: 0x12FC, symBinAddr: 0x19518, symSize: 0x1A0 }
  - { offset: 0x28C39, size: 0x8, addend: 0x0, symName: __RINvMsi_NtCse1nGBsou5OW_5alloc3vecINtB6_3VecNtNtCs6IAuOt8vWmF_3syn4expr4ExprE14extend_trustedINtNtNtNtCsfvfooZQ3Axs_4core4iter8adapters3map3MapINtNtB6_9into_iter8IntoIterTBG_NtNtBK_5token5CommaEENCNvXs8_NtBK_10punctuatedINtB3f_10PunctuatedBG_B2M_ENtNtNtB1A_6traits7collect12IntoIterator9into_iter0EECsjOBAykZTw0C_11clap_derive, symObjAddr: 0x149C, symBinAddr: 0x196B8, symSize: 0x188 }
  - { offset: 0x28F78, size: 0x8, addend: 0x0, symName: __RINvMsi_NtCse1nGBsou5OW_5alloc3vecINtB6_3VecNtNtCs6IAuOt8vWmF_3syn4expr4ExprE16extend_desugaredINtNtBK_10punctuated8IntoIterBG_EECsjOBAykZTw0C_11clap_derive, symObjAddr: 0x1624, symBinAddr: 0x19840, symSize: 0x1F8 }
  - { offset: 0x292AE, size: 0x8, addend: 0x0, symName: __RINvMsi_NtCse1nGBsou5OW_5alloc3vecINtB6_3VecNtNtCsjOBAykZTw0C_11clap_derive4attr8ClapAttrE14extend_trustedINtNtCsfvfooZQ3Axs_4core6option8IntoIterBG_EEBK_, symObjAddr: 0x181C, symBinAddr: 0x19A38, symSize: 0x1A0 }
  - { offset: 0x29578, size: 0x8, addend: 0x0, symName: __RINvMsi_NtCse1nGBsou5OW_5alloc3vecINtB6_3VecNtNtCsjOBAykZTw0C_11clap_derive4attr8ClapAttrE14extend_trustedINtNtNtNtCsfvfooZQ3Axs_4core4iter8adapters3map3MapINtNtB6_9into_iter8IntoIterTBG_NtNtCs6IAuOt8vWmF_3syn5token5CommaEENCNvXs8_NtB33_10punctuatedINtB3H_10PunctuatedBG_B2Z_ENtNtNtB1N_6traits7collect12IntoIterator9into_iter0EEBK_, symObjAddr: 0x19BC, symBinAddr: 0x19BD8, symSize: 0x188 }
  - { offset: 0x29882, size: 0x8, addend: 0x0, symName: __RINvMsi_NtCse1nGBsou5OW_5alloc3vecINtB6_3VecRNtCs3cP53eQoTwO_11proc_macro25IdentE14extend_trustedINtNtNtNtCsfvfooZQ3Axs_4core4iter8adapters3map3MapINtNtNtB1G_5slice4iter4IterTNtBJ_11TokenStreamBH_EENCNvNtNtCsjOBAykZTw0C_11clap_derive7derives10value_enum18gen_value_variants0EEB3i_, symObjAddr: 0x1B44, symBinAddr: 0x19D60, symSize: 0x170 }
  - { offset: 0x29C08, size: 0x8, addend: 0x0, symName: __RINvMsi_NtCse1nGBsou5OW_5alloc3vecINtB6_3VecRNtCs3cP53eQoTwO_11proc_macro25IdentE16extend_desugaredINtNtNtNtCsfvfooZQ3Axs_4core4iter8adapters3map3MapINtNtCs6IAuOt8vWmF_3syn10punctuated4IterNtNtB2s_4data5FieldENCNCNvNtNtCsjOBAykZTw0C_11clap_derive7derives10subcommand27gen_update_from_arg_matchess0_00EEB3v_, symObjAddr: 0x1CB4, symBinAddr: 0x19ED0, symSize: 0x190 }
  - { offset: 0x29FE9, size: 0x8, addend: 0x0, symName: __RINvMsi_NtCse1nGBsou5OW_5alloc3vecINtB6_3VecRNtNtCsjOBAykZTw0C_11clap_derive4item4NameE16extend_desugaredINtNtNtNtCsfvfooZQ3Axs_4core4iter8adapters10filter_map9FilterMapINtNtNtB1O_5slice4iter4IterTRNtNtCs6IAuOt8vWmF_3syn4data5FieldNtBJ_4ItemEENCNvNtNtBL_7derives4args11gen_augment0EEBL_, symObjAddr: 0x1E44, symBinAddr: 0x1A060, symSize: 0x178 }
  - { offset: 0x2A3B0, size: 0x8, addend: 0x0, symName: __RINvMsi_NtCse1nGBsou5OW_5alloc3vecINtB6_3VecTRNtNtCs6IAuOt8vWmF_3syn4data5FieldNtNtCsjOBAykZTw0C_11clap_derive4item4ItemEE16extend_desugaredINtNtNtCsfvfooZQ3Axs_4core4iter8adapters12GenericShuntINtNtB2h_3map3MapINtNtBM_10punctuated4IterBI_ENCNvNtNtB1j_7derives4args11derive_args0EINtNtB2l_6result6ResultNtNtB2l_7convert10InfallibleNtNtBM_5error5ErrorEEEB1j_, symObjAddr: 0x1FBC, symBinAddr: 0x1A1D8, symSize: 0x1FC }
  - { offset: 0x2A746, size: 0x8, addend: 0x0, symName: __RINvMsi_NtCse1nGBsou5OW_5alloc3vecINtB6_3VecTRNtNtCs6IAuOt8vWmF_3syn4data5FieldNtNtCsjOBAykZTw0C_11clap_derive4item4ItemEE16extend_desugaredINtNtNtCsfvfooZQ3Axs_4core4iter8adapters12GenericShuntINtNtB2h_3map3MapINtNtBM_10punctuated4IterBI_ENCNvNtNtB1j_7derives4args19collect_args_fields0EINtNtB2l_6result6ResultNtNtB2l_7convert10InfallibleNtNtBM_5error5ErrorEEEB1j_, symObjAddr: 0x21B8, symBinAddr: 0x1A3D4, symSize: 0x1FC }
  - { offset: 0x2AADC, size: 0x8, addend: 0x0, symName: __RINvMsi_NtCse1nGBsou5OW_5alloc3vecINtB6_3VecTRNtNtCs6IAuOt8vWmF_3syn4data5FieldNtNtCsjOBAykZTw0C_11clap_derive4item4ItemEE16extend_desugaredINtNtNtCsfvfooZQ3Axs_4core4iter8adapters12GenericShuntINtNtB2h_3map3MapINtNtBM_10punctuated4IterBI_ENCNvNtNtB1j_7derives6parser13derive_parser0EINtNtB2l_6result6ResultNtNtB2l_7convert10InfallibleNtNtBM_5error5ErrorEEEB1j_, symObjAddr: 0x23B4, symBinAddr: 0x1A5D0, symSize: 0x1FC }
  - { offset: 0x2AF00, size: 0x8, addend: 0x0, symName: __RINvMsi_NtCse1nGBsou5OW_5alloc3vecINtB6_3VecTRNtNtCs6IAuOt8vWmF_3syn4data7VariantNtNtCsjOBAykZTw0C_11clap_derive4item4ItemEE16extend_desugaredINtNtNtCsfvfooZQ3Axs_4core4iter8adapters12GenericShuntINtNtB2j_3map3MapINtNtBM_10punctuated4IterBI_ENCNvNtNtB1l_7derives10subcommand17derive_subcommand0EINtNtB2n_6result6ResultNtNtB2n_7convert10InfallibleNtNtBM_5error5ErrorEEEB1l_, symObjAddr: 0x25B0, symBinAddr: 0x1A7CC, symSize: 0x1FC }
  - { offset: 0x2B296, size: 0x8, addend: 0x0, symName: __RINvMsi_NtCse1nGBsou5OW_5alloc3vecINtB6_3VecTRNtNtCs6IAuOt8vWmF_3syn4data7VariantNtNtCsjOBAykZTw0C_11clap_derive4item4ItemEE16extend_desugaredINtNtNtCsfvfooZQ3Axs_4core4iter8adapters12GenericShuntINtNtB2j_3map3MapINtNtBM_10punctuated4IterBI_ENCNvNtNtB1l_7derives6parser13derive_parsers_0EINtNtB2n_6result6ResultNtNtB2n_7convert10InfallibleNtNtBM_5error5ErrorEEEB1l_, symObjAddr: 0x27AC, symBinAddr: 0x1A9C8, symSize: 0x1FC }
  - { offset: 0x2B5CC, size: 0x8, addend: 0x0, symName: __RINvMsi_NtCse1nGBsou5OW_5alloc3vecINtB6_3VechE14extend_trustedINtNtNtNtCsfvfooZQ3Axs_4core4iter8adapters3map3MapINtNtNtB17_5slice4iter4IterhENCNvNtB8_3str13replace_ascii0EECsjOBAykZTw0C_11clap_derive, symObjAddr: 0x29A8, symBinAddr: 0x1ABC4, symSize: 0x17C }
  - { offset: 0x2B81E, size: 0x8, addend: 0x0, symName: __RNvMNtCse1nGBsou5OW_5alloc3vecINtB2_3VecINtNtCsfvfooZQ3Axs_4core6option6OptionNtCs3cP53eQoTwO_11proc_macro211TokenStreamEE3newCsjOBAykZTw0C_11clap_derive, symObjAddr: 0x3348, symBinAddr: 0x1B564, symSize: 0x14 }
  - { offset: 0x2B83B, size: 0x8, addend: 0x0, symName: __RNvMNtCse1nGBsou5OW_5alloc3vecINtB2_3VecNtCs3cP53eQoTwO_11proc_macro211TokenStreamE3newCsjOBAykZTw0C_11clap_derive, symObjAddr: 0x335C, symBinAddr: 0x1B578, symSize: 0x14 }
  - { offset: 0x2B8BA, size: 0x8, addend: 0x0, symName: __RNvMNtCse1nGBsou5OW_5alloc3vecINtB2_3VecNtNtCs6IAuOt8vWmF_3syn4expr4ExprE13with_capacityCsjOBAykZTw0C_11clap_derive, symObjAddr: 0x3370, symBinAddr: 0x1B58C, symSize: 0x48 }
  - { offset: 0x2B994, size: 0x8, addend: 0x0, symName: __RNvMNtCse1nGBsou5OW_5alloc3vecINtB2_3VecNtNtCsjOBAykZTw0C_11clap_derive4attr8ClapAttrE13with_capacityBG_, symObjAddr: 0x33B8, symBinAddr: 0x1B5D4, symSize: 0x48 }
  - { offset: 0x2BA0C, size: 0x8, addend: 0x0, symName: __RNvMNtCse1nGBsou5OW_5alloc3vecINtB2_3VecNtNtCsjOBAykZTw0C_11clap_derive4attr8ClapAttrE3newBG_, symObjAddr: 0x3400, symBinAddr: 0x1B61C, symSize: 0x14 }
  - { offset: 0x2BA29, size: 0x8, addend: 0x0, symName: __RNvMNtCse1nGBsou5OW_5alloc3vecINtB2_3VecNtNtCsjOBAykZTw0C_11clap_derive4item11DeprecationE3newBG_, symObjAddr: 0x3414, symBinAddr: 0x1B630, symSize: 0x14 }
  - { offset: 0x2BA46, size: 0x8, addend: 0x0, symName: __RNvMNtCse1nGBsou5OW_5alloc3vecINtB2_3VecNtNtCsjOBAykZTw0C_11clap_derive4item6MethodE3newBG_, symObjAddr: 0x3428, symBinAddr: 0x1B644, symSize: 0x14 }
  - { offset: 0x2BA63, size: 0x8, addend: 0x0, symName: __RNvMNtCse1nGBsou5OW_5alloc3vecINtB2_3VecTNtCs3cP53eQoTwO_11proc_macro211TokenStreamNtBF_5IdentEE3newCsjOBAykZTw0C_11clap_derive, symObjAddr: 0x343C, symBinAddr: 0x1B658, symSize: 0x14 }
  - { offset: 0x2BA80, size: 0x8, addend: 0x0, symName: __RNvMNtCse1nGBsou5OW_5alloc3vecINtB2_3VecTNtNtCsjOBAykZTw0C_11clap_derive4attr8ClapAttrNtNtCs6IAuOt8vWmF_3syn5token5CommaEE3newBH_, symObjAddr: 0x3450, symBinAddr: 0x1B66C, symSize: 0x14 }
  - { offset: 0x2BA9D, size: 0x8, addend: 0x0, symName: __RNvMNtCse1nGBsou5OW_5alloc3vecINtB2_3VecTRNtNtCs6IAuOt8vWmF_3syn4data7VariantNtNtCsjOBAykZTw0C_11clap_derive4item4ItemEE3newB1h_, symObjAddr: 0x3464, symBinAddr: 0x1B680, symSize: 0x14 }
  - { offset: 0x2BABA, size: 0x8, addend: 0x0, symName: __RNvMNtCse1nGBsou5OW_5alloc3vecINtB2_3VecTRRNtNtCs6IAuOt8vWmF_3syn4data7VariantRNtNtCsjOBAykZTw0C_11clap_derive4item4ItemEE3newB1j_, symObjAddr: 0x3478, symBinAddr: 0x1B694, symSize: 0x14 }
  - { offset: 0x2BBEA, size: 0x8, addend: 0x0, symName: __RNvMs_NtCse1nGBsou5OW_5alloc3vecINtB4_3VecINtNtCsfvfooZQ3Axs_4core6option6OptionNtCs3cP53eQoTwO_11proc_macro211TokenStreamEE4pushCsjOBAykZTw0C_11clap_derive, symObjAddr: 0x348C, symBinAddr: 0x1B6A8, symSize: 0x100 }
  - { offset: 0x2BE42, size: 0x8, addend: 0x0, symName: __RNvMs_NtCse1nGBsou5OW_5alloc3vecINtB4_3VecINtNtCsfvfooZQ3Axs_4core6option6OptionNtCs3cP53eQoTwO_11proc_macro211TokenStreamEE8as_sliceCsjOBAykZTw0C_11clap_derive, symObjAddr: 0x358C, symBinAddr: 0x1B7A8, symSize: 0x64 }
  - { offset: 0x2BFDB, size: 0x8, addend: 0x0, symName: __RNvMs_NtCse1nGBsou5OW_5alloc3vecINtB4_3VecNtCs3cP53eQoTwO_11proc_macro211TokenStreamE4pushCsjOBAykZTw0C_11clap_derive, symObjAddr: 0x35F0, symBinAddr: 0x1B80C, symSize: 0x100 }
  - { offset: 0x2C2BF, size: 0x8, addend: 0x0, symName: __RNvMs_NtCse1nGBsou5OW_5alloc3vecINtB4_3VecNtCs3cP53eQoTwO_11proc_macro211TokenStreamE7reserveCsjOBAykZTw0C_11clap_derive, symObjAddr: 0x36F0, symBinAddr: 0x1B90C, symSize: 0xC8 }
  - { offset: 0x2C4BD, size: 0x8, addend: 0x0, symName: __RNvMs_NtCse1nGBsou5OW_5alloc3vecINtB4_3VecNtCs3cP53eQoTwO_11proc_macro211TokenStreamE8as_sliceCsjOBAykZTw0C_11clap_derive, symObjAddr: 0x37B8, symBinAddr: 0x1B9D4, symSize: 0x64 }
  - { offset: 0x2C68A, size: 0x8, addend: 0x0, symName: __RNvMs_NtCse1nGBsou5OW_5alloc3vecINtB4_3VecNtCs3cP53eQoTwO_11proc_macro25IdentE4pushCsjOBAykZTw0C_11clap_derive, symObjAddr: 0x381C, symBinAddr: 0x1BA38, symSize: 0x108 }
  - { offset: 0x2C954, size: 0x8, addend: 0x0, symName: __RNvMs_NtCse1nGBsou5OW_5alloc3vecINtB4_3VecNtCs3cP53eQoTwO_11proc_macro25IdentE7reserveCsjOBAykZTw0C_11clap_derive, symObjAddr: 0x3924, symBinAddr: 0x1BB40, symSize: 0xC8 }
  - { offset: 0x2CB5F, size: 0x8, addend: 0x0, symName: __RNvMs_NtCse1nGBsou5OW_5alloc3vecINtB4_3VecNtCs3cP53eQoTwO_11proc_macro25IdentE8as_sliceCsjOBAykZTw0C_11clap_derive, symObjAddr: 0x39EC, symBinAddr: 0x1BC08, symSize: 0x64 }
  - { offset: 0x2CD32, size: 0x8, addend: 0x0, symName: __RNvMs_NtCse1nGBsou5OW_5alloc3vecINtB4_3VecNtNtB6_6string6StringE3popCsjOBAykZTw0C_11clap_derive, symObjAddr: 0x3A50, symBinAddr: 0x1BC6C, symSize: 0x100 }
  - { offset: 0x2CFDD, size: 0x8, addend: 0x0, symName: __RNvMs_NtCse1nGBsou5OW_5alloc3vecINtB4_3VecNtNtB6_6string6StringE7reserveCsjOBAykZTw0C_11clap_derive, symObjAddr: 0x3B50, symBinAddr: 0x1BD6C, symSize: 0xC8 }
  - { offset: 0x2D1B4, size: 0x8, addend: 0x0, symName: __RNvMs_NtCse1nGBsou5OW_5alloc3vecINtB4_3VecNtNtB6_6string6StringE8as_sliceCsjOBAykZTw0C_11clap_derive, symObjAddr: 0x3C18, symBinAddr: 0x1BE34, symSize: 0x64 }
  - { offset: 0x2D293, size: 0x8, addend: 0x0, symName: __RNvMs_NtCse1nGBsou5OW_5alloc3vecINtB4_3VecNtNtB6_6string6StringE8is_emptyCsjOBAykZTw0C_11clap_derive, symObjAddr: 0x3C7C, symBinAddr: 0x1BE98, symSize: 0x20 }
  - { offset: 0x2D3FC, size: 0x8, addend: 0x0, symName: __RNvMs_NtCse1nGBsou5OW_5alloc3vecINtB4_3VecNtNtCs6IAuOt8vWmF_3syn4expr4ExprE7reserveCsjOBAykZTw0C_11clap_derive, symObjAddr: 0x3C9C, symBinAddr: 0x1BEB8, symSize: 0xC8 }
  - { offset: 0x2D5FA, size: 0x8, addend: 0x0, symName: __RNvMs_NtCse1nGBsou5OW_5alloc3vecINtB4_3VecNtNtCs6IAuOt8vWmF_3syn4expr4ExprE8as_sliceCsjOBAykZTw0C_11clap_derive, symObjAddr: 0x3D64, symBinAddr: 0x1BF80, symSize: 0x64 }
  - { offset: 0x2D793, size: 0x8, addend: 0x0, symName: __RNvMs_NtCse1nGBsou5OW_5alloc3vecINtB4_3VecNtNtCsjOBAykZTw0C_11clap_derive4attr8ClapAttrE4pushBI_, symObjAddr: 0x3DC8, symBinAddr: 0x1BFE4, symSize: 0x120 }
  - { offset: 0x2DA60, size: 0x8, addend: 0x0, symName: __RNvMs_NtCse1nGBsou5OW_5alloc3vecINtB4_3VecNtNtCsjOBAykZTw0C_11clap_derive4attr8ClapAttrE7reserveBI_, symObjAddr: 0x3EE8, symBinAddr: 0x1C104, symSize: 0xC8 }
  - { offset: 0x2DC6B, size: 0x8, addend: 0x0, symName: __RNvMs_NtCse1nGBsou5OW_5alloc3vecINtB4_3VecNtNtCsjOBAykZTw0C_11clap_derive4attr8ClapAttrE8as_sliceBI_, symObjAddr: 0x3FB0, symBinAddr: 0x1C1CC, symSize: 0x64 }
  - { offset: 0x2DE38, size: 0x8, addend: 0x0, symName: __RNvMs_NtCse1nGBsou5OW_5alloc3vecINtB4_3VecNtNtCsjOBAykZTw0C_11clap_derive4item11DeprecationE4pushBI_, symObjAddr: 0x4014, symBinAddr: 0x1C230, symSize: 0x110 }
  - { offset: 0x2E091, size: 0x8, addend: 0x0, symName: __RNvMs_NtCse1nGBsou5OW_5alloc3vecINtB4_3VecNtNtCsjOBAykZTw0C_11clap_derive4item11DeprecationE8as_sliceBI_, symObjAddr: 0x4124, symBinAddr: 0x1C340, symSize: 0x64 }
  - { offset: 0x2E25E, size: 0x8, addend: 0x0, symName: __RNvMs_NtCse1nGBsou5OW_5alloc3vecINtB4_3VecNtNtCsjOBAykZTw0C_11clap_derive4item6MethodE4pushBI_, symObjAddr: 0x4188, symBinAddr: 0x1C3A4, symSize: 0x118 }
  - { offset: 0x2E4B7, size: 0x8, addend: 0x0, symName: __RNvMs_NtCse1nGBsou5OW_5alloc3vecINtB4_3VecNtNtCsjOBAykZTw0C_11clap_derive4item6MethodE8as_sliceBI_, symObjAddr: 0x42A0, symBinAddr: 0x1C4BC, symSize: 0x64 }
  - { offset: 0x2E687, size: 0x8, addend: 0x0, symName: __RNvMs_NtCse1nGBsou5OW_5alloc3vecINtB4_3VecRNtCs3cP53eQoTwO_11proc_macro25IdentE7reserveCsjOBAykZTw0C_11clap_derive, symObjAddr: 0x4304, symBinAddr: 0x1C520, symSize: 0xBC }
  - { offset: 0x2E885, size: 0x8, addend: 0x0, symName: __RNvMs_NtCse1nGBsou5OW_5alloc3vecINtB4_3VecRNtCs3cP53eQoTwO_11proc_macro25IdentE8as_sliceCsjOBAykZTw0C_11clap_derive, symObjAddr: 0x43C0, symBinAddr: 0x1C5DC, symSize: 0x60 }
  - { offset: 0x2E93F, size: 0x8, addend: 0x0, symName: __RNvMs_NtCse1nGBsou5OW_5alloc3vecINtB4_3VecRNtNtCsjOBAykZTw0C_11clap_derive4item4NameE3lenBJ_, symObjAddr: 0x4420, symBinAddr: 0x1C63C, symSize: 0x18 }
  - { offset: 0x2EA8A, size: 0x8, addend: 0x0, symName: __RNvMs_NtCse1nGBsou5OW_5alloc3vecINtB4_3VecRNtNtCsjOBAykZTw0C_11clap_derive4item4NameE7reserveBJ_, symObjAddr: 0x4438, symBinAddr: 0x1C654, symSize: 0xBC }
  - { offset: 0x2EC88, size: 0x8, addend: 0x0, symName: __RNvMs_NtCse1nGBsou5OW_5alloc3vecINtB4_3VecRNtNtCsjOBAykZTw0C_11clap_derive4item4NameE8as_sliceBJ_, symObjAddr: 0x44F4, symBinAddr: 0x1C710, symSize: 0x60 }
  - { offset: 0x2EE48, size: 0x8, addend: 0x0, symName: __RNvMs_NtCse1nGBsou5OW_5alloc3vecINtB4_3VecTNtCs3cP53eQoTwO_11proc_macro211TokenStreamNtBH_5IdentEE4pushCsjOBAykZTw0C_11clap_derive, symObjAddr: 0x4554, symBinAddr: 0x1C770, symSize: 0x118 }
  - { offset: 0x2F0A1, size: 0x8, addend: 0x0, symName: __RNvMs_NtCse1nGBsou5OW_5alloc3vecINtB4_3VecTNtCs3cP53eQoTwO_11proc_macro211TokenStreamNtBH_5IdentEE8as_sliceCsjOBAykZTw0C_11clap_derive, symObjAddr: 0x466C, symBinAddr: 0x1C888, symSize: 0x64 }
  - { offset: 0x2F168, size: 0x8, addend: 0x0, symName: __RNvMs_NtCse1nGBsou5OW_5alloc3vecINtB4_3VecTNtNtCsjOBAykZTw0C_11clap_derive4attr8ClapAttrNtNtCs6IAuOt8vWmF_3syn5token5CommaEE3lenBJ_, symObjAddr: 0x46D0, symBinAddr: 0x1C8EC, symSize: 0x18 }
  - { offset: 0x2F2A3, size: 0x8, addend: 0x0, symName: __RNvMs_NtCse1nGBsou5OW_5alloc3vecINtB4_3VecTNtNtCsjOBAykZTw0C_11clap_derive4attr8ClapAttrNtNtCs6IAuOt8vWmF_3syn5token5CommaEE4pushBJ_, symObjAddr: 0x46E8, symBinAddr: 0x1C904, symSize: 0x120 }
  - { offset: 0x2F570, size: 0x8, addend: 0x0, symName: __RNvMs_NtCse1nGBsou5OW_5alloc3vecINtB4_3VecTRNtNtCs6IAuOt8vWmF_3syn4data5FieldNtNtCsjOBAykZTw0C_11clap_derive4item4ItemEE7reserveB1h_, symObjAddr: 0x4808, symBinAddr: 0x1CA24, symSize: 0xC8 }
  - { offset: 0x2F76E, size: 0x8, addend: 0x0, symName: __RNvMs_NtCse1nGBsou5OW_5alloc3vecINtB4_3VecTRNtNtCs6IAuOt8vWmF_3syn4data5FieldNtNtCsjOBAykZTw0C_11clap_derive4item4ItemEE8as_sliceB1h_, symObjAddr: 0x48D0, symBinAddr: 0x1CAEC, symSize: 0x64 }
  - { offset: 0x2F907, size: 0x8, addend: 0x0, symName: __RNvMs_NtCse1nGBsou5OW_5alloc3vecINtB4_3VecTRNtNtCs6IAuOt8vWmF_3syn4data7VariantNtNtCsjOBAykZTw0C_11clap_derive4item4ItemEE4pushB1j_, symObjAddr: 0x4934, symBinAddr: 0x1CB50, symSize: 0x120 }
  - { offset: 0x2FBD4, size: 0x8, addend: 0x0, symName: __RNvMs_NtCse1nGBsou5OW_5alloc3vecINtB4_3VecTRNtNtCs6IAuOt8vWmF_3syn4data7VariantNtNtCsjOBAykZTw0C_11clap_derive4item4ItemEE7reserveB1j_, symObjAddr: 0x4A54, symBinAddr: 0x1CC70, symSize: 0xC8 }
  - { offset: 0x2FDD2, size: 0x8, addend: 0x0, symName: __RNvMs_NtCse1nGBsou5OW_5alloc3vecINtB4_3VecTRNtNtCs6IAuOt8vWmF_3syn4data7VariantNtNtCsjOBAykZTw0C_11clap_derive4item4ItemEE8as_sliceB1j_, symObjAddr: 0x4B1C, symBinAddr: 0x1CD38, symSize: 0x64 }
  - { offset: 0x2FF92, size: 0x8, addend: 0x0, symName: __RNvMs_NtCse1nGBsou5OW_5alloc3vecINtB4_3VecTRRNtNtCs6IAuOt8vWmF_3syn4data7VariantRNtNtCsjOBAykZTw0C_11clap_derive4item4ItemEE4pushB1l_, symObjAddr: 0x4B80, symBinAddr: 0x1CD9C, symSize: 0xF8 }
  - { offset: 0x301E9, size: 0x8, addend: 0x0, symName: __RNvMs_NtCse1nGBsou5OW_5alloc3vecINtB4_3VecTRRNtNtCs6IAuOt8vWmF_3syn4data7VariantRNtNtCsjOBAykZTw0C_11clap_derive4item4ItemEE8as_sliceB1l_, symObjAddr: 0x4C78, symBinAddr: 0x1CE94, symSize: 0x64 }
  - { offset: 0x317F7, size: 0x8, addend: 0x0, symName: __RNvXs4_NtNtCs2cqEZUIJimJ_5quote9___private3extINtNtCse1nGBsou5OW_5alloc3vec3VecINtNtCsfvfooZQ3Axs_4core6option6OptionNtCs3cP53eQoTwO_11proc_macro211TokenStreamEENtB5_16RepAsIteratorExt15quote_into_iterCsjOBAykZTw0C_11clap_derive, symObjAddr: 0x75D0, symBinAddr: 0x1F7EC, symSize: 0x38 }
  - { offset: 0x3182C, size: 0x8, addend: 0x0, symName: __RNvXs4_NtNtCs2cqEZUIJimJ_5quote9___private3extINtNtCse1nGBsou5OW_5alloc3vec3VecNtCs3cP53eQoTwO_11proc_macro211TokenStreamENtB5_16RepAsIteratorExt15quote_into_iterCsjOBAykZTw0C_11clap_derive, symObjAddr: 0x7608, symBinAddr: 0x1F824, symSize: 0x38 }
  - { offset: 0x31861, size: 0x8, addend: 0x0, symName: __RNvXs4_NtNtCs2cqEZUIJimJ_5quote9___private3extINtNtCse1nGBsou5OW_5alloc3vec3VecNtCs3cP53eQoTwO_11proc_macro25IdentENtB5_16RepAsIteratorExt15quote_into_iterCsjOBAykZTw0C_11clap_derive, symObjAddr: 0x7640, symBinAddr: 0x1F85C, symSize: 0x38 }
  - { offset: 0x31896, size: 0x8, addend: 0x0, symName: __RNvXs4_NtNtCs2cqEZUIJimJ_5quote9___private3extINtNtCse1nGBsou5OW_5alloc3vec3VecNtNtCs6IAuOt8vWmF_3syn4expr4ExprENtB5_16RepAsIteratorExt15quote_into_iterCsjOBAykZTw0C_11clap_derive, symObjAddr: 0x7678, symBinAddr: 0x1F894, symSize: 0x38 }
  - { offset: 0x318CB, size: 0x8, addend: 0x0, symName: __RNvXs4_NtNtCs2cqEZUIJimJ_5quote9___private3extINtNtCse1nGBsou5OW_5alloc3vec3VecNtNtCsjOBAykZTw0C_11clap_derive4item11DeprecationENtB5_16RepAsIteratorExt15quote_into_iterB1j_, symObjAddr: 0x76B0, symBinAddr: 0x1F8CC, symSize: 0x38 }
  - { offset: 0x31900, size: 0x8, addend: 0x0, symName: __RNvXs4_NtNtCs2cqEZUIJimJ_5quote9___private3extINtNtCse1nGBsou5OW_5alloc3vec3VecNtNtCsjOBAykZTw0C_11clap_derive4item6MethodENtB5_16RepAsIteratorExt15quote_into_iterB1j_, symObjAddr: 0x76E8, symBinAddr: 0x1F904, symSize: 0x38 }
  - { offset: 0x31935, size: 0x8, addend: 0x0, symName: __RNvXs4_NtNtCs2cqEZUIJimJ_5quote9___private3extINtNtCse1nGBsou5OW_5alloc3vec3VecRNtCs3cP53eQoTwO_11proc_macro25IdentENtB5_16RepAsIteratorExt15quote_into_iterCsjOBAykZTw0C_11clap_derive, symObjAddr: 0x7720, symBinAddr: 0x1F93C, symSize: 0x38 }
  - { offset: 0x3196A, size: 0x8, addend: 0x0, symName: __RNvXs4_NtNtCs2cqEZUIJimJ_5quote9___private3extINtNtCse1nGBsou5OW_5alloc3vec3VecRNtNtCsjOBAykZTw0C_11clap_derive4item4NameENtB5_16RepAsIteratorExt15quote_into_iterB1k_, symObjAddr: 0x7758, symBinAddr: 0x1F974, symSize: 0x38 }
  - { offset: 0x33079, size: 0x8, addend: 0x0, symName: __RNvXs1_NtNtNtCsfvfooZQ3Axs_4core3ops8function5implsQNCNvNtNtCsjOBAykZTw0C_11clap_derive7derives4args11gen_augment0INtB7_5FnMutTRTRNtNtCs6IAuOt8vWmF_3syn4data5FieldNtNtBW_4item4ItemEEE8call_mutBW_, symObjAddr: 0x0, symBinAddr: 0x20E3C, symSize: 0x30 }
  - { offset: 0x33F30, size: 0x8, addend: 0x0, symName: __RNvNtNtCsjOBAykZTw0C_11clap_derive7derives4args11derive_args, symObjAddr: 0x30, symBinAddr: 0x20E6C, symSize: 0x630 }
  - { offset: 0x3416F, size: 0x8, addend: 0x0, symName: __RNCNvNtNtCsjOBAykZTw0C_11clap_derive7derives4args11derive_args0B7_, symObjAddr: 0x660, symBinAddr: 0x2149C, symSize: 0x144 }
  - { offset: 0x341E9, size: 0x8, addend: 0x0, symName: __RNvNtNtCsjOBAykZTw0C_11clap_derive7derives4args14gen_for_struct, symObjAddr: 0x7A4, symBinAddr: 0x215E0, symSize: 0x2EC0 }
  - { offset: 0x3474C, size: 0x8, addend: 0x0, symName: __RNvNtNtCsjOBAykZTw0C_11clap_derive7derives4args11gen_augment, symObjAddr: 0x3664, symBinAddr: 0x244A0, symSize: 0x4110 }
  - { offset: 0x3558C, size: 0x8, addend: 0x0, symName: __RNCNvNtNtCsjOBAykZTw0C_11clap_derive7derives4args11gen_augment0B7_, symObjAddr: 0x7774, symBinAddr: 0x285B0, symSize: 0x12C }
  - { offset: 0x355FD, size: 0x8, addend: 0x0, symName: __RNCNvNtNtCsjOBAykZTw0C_11clap_derive7derives4args11gen_augments_0B7_, symObjAddr: 0x78A0, symBinAddr: 0x286DC, symSize: 0x104 }
  - { offset: 0x3567D, size: 0x8, addend: 0x0, symName: __RNvNtNtCsjOBAykZTw0C_11clap_derive7derives4args15gen_constructor, symObjAddr: 0x79A4, symBinAddr: 0x287E0, symSize: 0x2B0 }
  - { offset: 0x357D2, size: 0x8, addend: 0x0, symName: __RNCNvNtNtCsjOBAykZTw0C_11clap_derive7derives4args15gen_constructor0B7_, symObjAddr: 0x7C54, symBinAddr: 0x28A90, symSize: 0x2030 }
  - { offset: 0x35EF9, size: 0x8, addend: 0x0, symName: __RNvNtNtCsjOBAykZTw0C_11clap_derive7derives4args11gen_updater, symObjAddr: 0x9C84, symBinAddr: 0x2AAC0, symSize: 0x1E9C }
  - { offset: 0x3665A, size: 0x8, addend: 0x0, symName: __RNvNtNtCsjOBAykZTw0C_11clap_derive7derives4args11gen_parsers, symObjAddr: 0xBB20, symBinAddr: 0x2C95C, symSize: 0x2D14 }
  - { offset: 0x3705F, size: 0x8, addend: 0x0, symName: __RNvNtNtCsjOBAykZTw0C_11clap_derive7derives4args14raw_deprecated, symObjAddr: 0xE834, symBinAddr: 0x2F670, symSize: 0x174 }
  - { offset: 0x370C1, size: 0x8, addend: 0x0, symName: __RNvNtNtCsjOBAykZTw0C_11clap_derive7derives4args19collect_args_fields, symObjAddr: 0xE9A8, symBinAddr: 0x2F7E4, symSize: 0x64 }
  - { offset: 0x37103, size: 0x8, addend: 0x0, symName: __RNCNvNtNtCsjOBAykZTw0C_11clap_derive7derives4args19collect_args_fields0B7_, symObjAddr: 0xEA0C, symBinAddr: 0x2F848, symSize: 0x144 }
  - { offset: 0x3719E, size: 0x8, addend: 0x0, symName: __RNvXs1_NtNtNtCsfvfooZQ3Axs_4core3ops8function5implsQNCNvNtNtCsjOBAykZTw0C_11clap_derive7derives4args11gen_augment0INtB7_5FnMutTRTRNtNtCs6IAuOt8vWmF_3syn4data5FieldNtNtBW_4item4ItemEEE8call_mutBW_, symObjAddr: 0x0, symBinAddr: 0x20E3C, symSize: 0x30 }
  - { offset: 0x3FE9F, size: 0x8, addend: 0x0, symName: __RNvXs2_NtNtNtCsfvfooZQ3Axs_4core3ops8function5implsQNCNCNvNtNtCsjOBAykZTw0C_11clap_derive7derives10subcommand27gen_update_from_arg_matchess0_00INtB7_6FnOnceTRNtNtCs6IAuOt8vWmF_3syn4data5FieldEE9call_onceBY_, symObjAddr: 0x0, symBinAddr: 0x2F98C, symSize: 0x2C }
  - { offset: 0x40D56, size: 0x8, addend: 0x0, symName: __RNvNtNtCsjOBAykZTw0C_11clap_derive7derives10subcommand17derive_subcommand, symObjAddr: 0x58, symBinAddr: 0x2F9E4, symSize: 0x338 }
  - { offset: 0x40EC5, size: 0x8, addend: 0x0, symName: __RNCNvNtNtCsjOBAykZTw0C_11clap_derive7derives10subcommand17derive_subcommand0B7_, symObjAddr: 0x390, symBinAddr: 0x2FD1C, symSize: 0x144 }
  - { offset: 0x40F3F, size: 0x8, addend: 0x0, symName: __RNvNtNtCsjOBAykZTw0C_11clap_derive7derives10subcommand12gen_for_enum, symObjAddr: 0x4D4, symBinAddr: 0x2FE60, symSize: 0x2424 }
  - { offset: 0x413C6, size: 0x8, addend: 0x0, symName: __RNvNtNtCsjOBAykZTw0C_11clap_derive7derives10subcommand11gen_augment, symObjAddr: 0x28F8, symBinAddr: 0x32284, symSize: 0x3444 }
  - { offset: 0x41FC3, size: 0x8, addend: 0x0, symName: __RNCNvNtNtCsjOBAykZTw0C_11clap_derive7derives10subcommand11gen_augment0B7_, symObjAddr: 0x5D3C, symBinAddr: 0x356C8, symSize: 0xE4 }
  - { offset: 0x42025, size: 0x8, addend: 0x0, symName: __RNvNtNtCsjOBAykZTw0C_11clap_derive7derives10subcommand18gen_has_subcommand, symObjAddr: 0x5E20, symBinAddr: 0x357AC, symSize: 0x5A4 }
  - { offset: 0x42280, size: 0x8, addend: 0x0, symName: __RNCNvNtNtCsjOBAykZTw0C_11clap_derive7derives10subcommand18gen_has_subcommand0B7_, symObjAddr: 0x63C4, symBinAddr: 0x35D50, symSize: 0x170 }
  - { offset: 0x422F9, size: 0x8, addend: 0x0, symName: __RNCNvNtNtCsjOBAykZTw0C_11clap_derive7derives10subcommand18gen_has_subcommands_0B7_, symObjAddr: 0x6534, symBinAddr: 0x35EC0, symSize: 0xF8 }
  - { offset: 0x4235A, size: 0x8, addend: 0x0, symName: __RNCNvNtNtCsjOBAykZTw0C_11clap_derive7derives10subcommand18gen_has_subcommands0_0B7_, symObjAddr: 0x662C, symBinAddr: 0x35FB8, symSize: 0x1A0 }
  - { offset: 0x423F8, size: 0x8, addend: 0x0, symName: __RNCNvNtNtCsjOBAykZTw0C_11clap_derive7derives10subcommand18gen_has_subcommands1_0B7_, symObjAddr: 0x67CC, symBinAddr: 0x36158, symSize: 0x380 }
  - { offset: 0x42527, size: 0x8, addend: 0x0, symName: __RNvNtNtCsjOBAykZTw0C_11clap_derive7derives10subcommand20gen_from_arg_matches, symObjAddr: 0x6B4C, symBinAddr: 0x364D8, symSize: 0x28C4 }
  - { offset: 0x42CD4, size: 0x8, addend: 0x0, symName: __RNCNvNtNtCsjOBAykZTw0C_11clap_derive7derives10subcommand20gen_from_arg_matches0B7_, symObjAddr: 0x9410, symBinAddr: 0x38D9C, symSize: 0x92C }
  - { offset: 0x42F74, size: 0x8, addend: 0x0, symName: __RNCNvNtNtCsjOBAykZTw0C_11clap_derive7derives10subcommand20gen_from_arg_matchess_0B7_, symObjAddr: 0x9D3C, symBinAddr: 0x396C8, symSize: 0x808 }
  - { offset: 0x43107, size: 0x8, addend: 0x0, symName: __RNvNtNtCsjOBAykZTw0C_11clap_derive7derives10subcommand27gen_update_from_arg_matches, symObjAddr: 0xA544, symBinAddr: 0x39ED0, symSize: 0xD70 }
  - { offset: 0x43412, size: 0x8, addend: 0x0, symName: __RNCNvNtNtCsjOBAykZTw0C_11clap_derive7derives10subcommand27gen_update_from_arg_matches0B7_, symObjAddr: 0xB2B4, symBinAddr: 0x3AC40, symSize: 0x130 }
  - { offset: 0x43483, size: 0x8, addend: 0x0, symName: __RNCNvNtNtCsjOBAykZTw0C_11clap_derive7derives10subcommand27gen_update_from_arg_matchess_0B7_, symObjAddr: 0xB3E4, symBinAddr: 0x3AD70, symSize: 0xF8 }
  - { offset: 0x434E4, size: 0x8, addend: 0x0, symName: __RNCNvNtNtCsjOBAykZTw0C_11clap_derive7derives10subcommand27gen_update_from_arg_matchess0_0B7_, symObjAddr: 0xB4DC, symBinAddr: 0x3AE68, symSize: 0xDD0 }
  - { offset: 0x4387B, size: 0x8, addend: 0x0, symName: __RNCNCNvNtNtCsjOBAykZTw0C_11clap_derive7derives10subcommand27gen_update_from_arg_matchess0_00B9_, symObjAddr: 0xC2AC, symBinAddr: 0x3BC38, symSize: 0x5C }
  - { offset: 0x438DA, size: 0x8, addend: 0x0, symName: __RNCNvNtNtCsjOBAykZTw0C_11clap_derive7derives10subcommand27gen_update_from_arg_matchess1_0B7_, symObjAddr: 0xC308, symBinAddr: 0x3BC94, symSize: 0x768 }
  - { offset: 0x43A9E, size: 0x8, addend: 0x0, symName: __RNvXs2_NtNtNtCsfvfooZQ3Axs_4core3ops8function5implsQNCNCNvNtNtCsjOBAykZTw0C_11clap_derive7derives10subcommand27gen_update_from_arg_matchess0_00INtB7_6FnOnceTRNtNtCs6IAuOt8vWmF_3syn4data5FieldEE9call_onceBY_, symObjAddr: 0x0, symBinAddr: 0x2F98C, symSize: 0x2C }
  - { offset: 0x43AED, size: 0x8, addend: 0x0, symName: __RNvXs2_NtNtNtCsfvfooZQ3Axs_4core3ops8function5implsQNCNvNtNtCsjOBAykZTw0C_11clap_derive7derives10subcommand18gen_has_subcommands0_0INtB7_6FnOnceTRTRRNtNtCs6IAuOt8vWmF_3syn4data7VariantRNtNtBW_4item4ItemEEE9call_onceBW_, symObjAddr: 0x2C, symBinAddr: 0x2F9B8, symSize: 0x2C }
  - { offset: 0x4CA29, size: 0x8, addend: 0x0, symName: __RINvXs2U_NtNtCsfvfooZQ3Axs_4core5slice4iterINtB7_4IterNtNtCse1nGBsou5OW_5alloc6string6StringENtNtNtNtBb_4iter6traits8iterator8Iterator3anyNCNvNtNtCsjOBAykZTw0C_11clap_derive5utils12doc_comments14parse_markdown0EB2k_, symObjAddr: 0x0, symBinAddr: 0x3C3FC, symSize: 0xB0 }
  - { offset: 0x4DB6E, size: 0x8, addend: 0x0, symName: __RINvXs2U_NtNtCsfvfooZQ3Axs_4core5slice4iterINtB7_4IterNtNtCse1nGBsou5OW_5alloc6string6StringENtNtNtNtBb_4iter6traits8iterator8Iterator3anyNCNvNtNtCsjOBAykZTw0C_11clap_derive5utils12doc_comments14parse_markdown0EB2k_, symObjAddr: 0x0, symBinAddr: 0x3C3FC, symSize: 0xB0 }
  - { offset: 0x4DBD3, size: 0x8, addend: 0x0, symName: __RINvXs2U_NtNtCsfvfooZQ3Axs_4core5slice4iterINtB7_4IterNtNtCse1nGBsou5OW_5alloc6string6StringENtNtNtNtBb_4iter6traits8iterator8Iterator4folduNCINvNtNtB1z_8adapters3map8map_foldRBQ_BQ_uNCINvNtNtCsjOBAykZTw0C_11clap_derive5utils12doc_comments11merge_linesB2N_RSBQ_E0NCINvNvB1t_8for_each4callBQ_NCINvMsi_NtBU_3vecINtB4O_3VecBQ_E14extend_trustedINtB2j_3MapBF_B2V_EE0E0E0EB34_, symObjAddr: 0xB0, symBinAddr: 0x3C4AC, symSize: 0x1B8 }
  - { offset: 0x4DD27, size: 0x8, addend: 0x0, symName: __RINvXs2U_NtNtCsfvfooZQ3Axs_4core5slice4iterINtB7_4IterNtNtCse1nGBsou5OW_5alloc6string6StringENtNtNtNtBb_4iter6traits8iterator8Iterator8positionNCNCNvNtNtCsjOBAykZTw0C_11clap_derive5utils12doc_comments16split_paragraphs00EB2r_, symObjAddr: 0x268, symBinAddr: 0x3C664, symSize: 0x180 }
  - { offset: 0x4DDE5, size: 0x8, addend: 0x0, symName: __RINvXs2U_NtNtCsfvfooZQ3Axs_4core5slice4iterINtB7_4IterNtNtCse1nGBsou5OW_5alloc6string6StringENtNtNtNtBb_4iter6traits8iterator8Iterator8positionNCNCNvNtNtCsjOBAykZTw0C_11clap_derive5utils12doc_comments16split_paragraphs0s_0EB2r_, symObjAddr: 0x3E8, symBinAddr: 0x3C7E4, symSize: 0x180 }
  - { offset: 0x4DEA3, size: 0x8, addend: 0x0, symName: __RINvXs2U_NtNtCsfvfooZQ3Axs_4core5slice4iterINtB7_4IterNtNtCse1nGBsou5OW_5alloc6string6StringENtNtNtNtBb_4iter6traits8iterator8Iterator8positionNCNvNtNtCsjOBAykZTw0C_11clap_derive5utils12doc_comments18format_doc_comments_0EB2p_, symObjAddr: 0x568, symBinAddr: 0x3C964, symSize: 0x180 }
  - { offset: 0x4DF61, size: 0x8, addend: 0x0, symName: __RINvXs2U_NtNtCsfvfooZQ3Axs_4core5slice4iterINtB7_4IterNtNtCsjOBAykZTw0C_11clap_derive4attr8AttrKindENtNtNtNtBb_4iter6traits8iterator8Iterator3anyNCNvXsd_NtB9_3cmpBQ_NtB2r_13SliceContains14slice_contains0EBU_, symObjAddr: 0x6E8, symBinAddr: 0x3CAE4, symSize: 0xB4 }
  - { offset: 0x4DFC6, size: 0x8, addend: 0x0, symName: __RINvXs2U_NtNtCsfvfooZQ3Axs_4core5slice4iterINtB7_4IterNtNtCsjOBAykZTw0C_11clap_derive4attr8AttrKindENtNtNtNtBb_4iter6traits8iterator8Iterator4folduNCINvNtNtB1G_8adapters3map8map_foldRBQ_NtNtCse1nGBsou5OW_5alloc6string6StringuNCNvNtBU_4item16assert_attr_kind0NCINvNvB1A_8for_each4callB2Y_NCINvMsi_NtB32_3vecINtB4K_3VecB2Y_E14extend_trustedINtB2q_3MapBF_B3B_EE0E0E0EBU_, symObjAddr: 0x79C, symBinAddr: 0x3CB98, symSize: 0x1B0 }
  - { offset: 0x4E11A, size: 0x8, addend: 0x0, symName: __RINvXs2U_NtNtCsfvfooZQ3Axs_4core5slice4iterINtB7_4IterNtNtCsjOBAykZTw0C_11clap_derive4attr8ClapAttrENtNtNtNtBb_4iter6traits8iterator8Iterator3anyNCNvMNtBU_4itemNtB2o_4Item10push_attrs0EBU_, symObjAddr: 0x94C, symBinAddr: 0x3CD48, symSize: 0xB0 }
  - { offset: 0x4E17F, size: 0x8, addend: 0x0, symName: __RINvXs2U_NtNtCsfvfooZQ3Axs_4core5slice4iterINtB7_4IterNtNtCsjOBAykZTw0C_11clap_derive4attr8ClapAttrENtNtNtNtBb_4iter6traits8iterator8Iterator3anyNCNvMNtBU_4itemNtB2o_4Item10push_attrss0_0EBU_, symObjAddr: 0x9FC, symBinAddr: 0x3CDF8, symSize: 0xB0 }
  - { offset: 0x4E1E4, size: 0x8, addend: 0x0, symName: __RINvXs2U_NtNtCsfvfooZQ3Axs_4core5slice4iterINtB7_4IterNtNtCsjOBAykZTw0C_11clap_derive4attr8ClapAttrENtNtNtNtBb_4iter6traits8iterator8Iterator3anyNCNvMNtBU_4itemNtB2o_4Item10push_attrss1_0EBU_, symObjAddr: 0xAAC, symBinAddr: 0x3CEA8, symSize: 0xB0 }
  - { offset: 0x4E249, size: 0x8, addend: 0x0, symName: __RINvXs2U_NtNtCsfvfooZQ3Axs_4core5slice4iterINtB7_4IterNtNtCsjOBAykZTw0C_11clap_derive4attr8ClapAttrENtNtNtNtBb_4iter6traits8iterator8Iterator3anyNCNvMNtBU_4itemNtB2o_4Item10push_attrss_0EBU_, symObjAddr: 0xB5C, symBinAddr: 0x3CF58, symSize: 0xB0 }
  - { offset: 0x4E2AE, size: 0x8, addend: 0x0, symName: __RINvXs2U_NtNtCsfvfooZQ3Axs_4core5slice4iterINtB7_4IterNtNtCsjOBAykZTw0C_11clap_derive4item6MethodENtNtNtNtBb_4iter6traits8iterator8Iterator3anyNCNvMBS_NtBS_4Item20has_explicit_methods0EBU_, symObjAddr: 0xC0C, symBinAddr: 0x3D008, symSize: 0xB0 }
  - { offset: 0x4E313, size: 0x8, addend: 0x0, symName: __RINvXs2U_NtNtCsfvfooZQ3Axs_4core5slice4iterINtB7_4IterNtNtCsjOBAykZTw0C_11clap_derive4item6MethodENtNtNtNtBb_4iter6traits8iterator8Iterator4findNCNvMBS_NtBS_4Item19find_default_method0EBU_, symObjAddr: 0xCBC, symBinAddr: 0x3D0B8, symSize: 0xB0 }
  - { offset: 0x4E378, size: 0x8, addend: 0x0, symName: __RINvXs2U_NtNtCsfvfooZQ3Axs_4core5slice4iterINtB7_4IterTNtCs3cP53eQoTwO_11proc_macro211TokenStreamNtBT_5IdentEENtNtNtNtBb_4iter6traits8iterator8Iterator4folduNCINvNtNtB1Q_8adapters3map8map_foldRBQ_BQ_uNvYBQ_NtNtBb_5clone5Clone5cloneNCINvNvNtB1O_7collect22default_extend_tuple_b6extendBR_B1x_INtNtCse1nGBsou5OW_5alloc3vec3VecBR_EIB4F_B1x_EE0E0ECsjOBAykZTw0C_11clap_derive, symObjAddr: 0xD6C, symBinAddr: 0x3D168, symSize: 0x190 }
  - { offset: 0x4E4CB, size: 0x8, addend: 0x0, symName: __RINvXs2U_NtNtCsfvfooZQ3Axs_4core5slice4iterINtB7_4IterTNtCs3cP53eQoTwO_11proc_macro211TokenStreamNtBT_5IdentEENtNtNtNtBb_4iter6traits8iterator8Iterator4folduNCINvNtNtB1Q_8adapters3map8map_foldRBQ_BQ_uNvYBQ_NtNtBb_5clone5Clone5cloneNCINvNvXs6_NtB1O_7collectpINtB3S_6TraitBppE6extend6extendBR_B1x_INtNtCse1nGBsou5OW_5alloc3vec3VecBR_EIB4K_B1x_EE0E0ECsjOBAykZTw0C_11clap_derive, symObjAddr: 0xEFC, symBinAddr: 0x3D2F8, symSize: 0x190 }
  - { offset: 0x4E61E, size: 0x8, addend: 0x0, symName: __RINvXs2U_NtNtCsfvfooZQ3Axs_4core5slice4iterINtB7_4IterTNtCs3cP53eQoTwO_11proc_macro211TokenStreamNtBT_5IdentEENtNtNtNtBb_4iter6traits8iterator8Iterator4folduNCINvNtNtB1Q_8adapters3map8map_foldRBQ_RB1x_uNCNvNtNtCsjOBAykZTw0C_11clap_derive7derives10value_enum18gen_value_variants0NCINvNvB1K_8for_each4callB38_NCINvMsi_NtCse1nGBsou5OW_5alloc3vecINtB54_3VecB38_E14extend_trustedINtB2A_3MapBF_B3e_EE0E0E0EB3m_, symObjAddr: 0x108C, symBinAddr: 0x3D488, symSize: 0x1B8 }
  - { offset: 0x4E772, size: 0x8, addend: 0x0, symName: __RINvXs2U_NtNtCsfvfooZQ3Axs_4core5slice4iterINtB7_4IterTRNtNtCs6IAuOt8vWmF_3syn4data5FieldNtNtCsjOBAykZTw0C_11clap_derive4item4ItemEENtNtNtNtBb_4iter6traits8iterator8Iterator4foldjNCINvNtNtB2c_8adapters3map8map_foldRBQ_jjNCINvNvXs1_NtB2Y_6filterINtB3H_6FilterppEB26_5count8to_usizeB3q_NCNvNtNtB1t_7derives4args11gen_augments_0E0NCINvXsK_NtB2a_5accumjNtB5o_3Sum3sumINtB2W_3MapBF_B3w_EE0E0EB1t_, symObjAddr: 0x1244, symBinAddr: 0x3D640, symSize: 0x1BC }
  - { offset: 0x4E8CA, size: 0x8, addend: 0x0, symName: __RINvXs2U_NtNtCsfvfooZQ3Axs_4core5slice4iterINtB7_4IterTRNtNtCs6IAuOt8vWmF_3syn4data5FieldNtNtCsjOBAykZTw0C_11clap_derive4item4ItemEENtNtNtNtBb_4iter6traits8iterator8Iterator8find_mapRNtB1r_4NameQNCNvNtNtB1t_7derives4args11gen_augment0EB1t_, symObjAddr: 0x1400, symBinAddr: 0x3D7FC, symSize: 0xCC }
  - { offset: 0x4E94E, size: 0x8, addend: 0x0, symName: __RINvXs2U_NtNtCsfvfooZQ3Axs_4core5slice4iterINtB7_4IterTRNtNtCs6IAuOt8vWmF_3syn4data7VariantNtNtCsjOBAykZTw0C_11clap_derive4item4ItemEENtNtNtNtBb_4iter6traits8iterator8Iterator4folduNCINvNtNtB2e_8adapters10filter_map15filter_map_foldRBQ_TRBR_RB1r_EuNCNvNtNtB1v_7derives10subcommand18gen_has_subcommand0NCINvNvB28_9partition6extendB3M_INtNtCse1nGBsou5OW_5alloc3vec3VecB3M_ENCB40_s_0E0E0EB1v_, symObjAddr: 0x14CC, symBinAddr: 0x3D8C8, symSize: 0x18C }
  - { offset: 0x4EAA2, size: 0x8, addend: 0x0, symName: __RINvXs2U_NtNtCsfvfooZQ3Axs_4core5slice4iterINtB7_4IterTRNtNtCs6IAuOt8vWmF_3syn4data7VariantNtNtCsjOBAykZTw0C_11clap_derive4item4ItemEENtNtNtNtBb_4iter6traits8iterator8Iterator4folduNCINvNtNtB2e_8adapters10filter_map15filter_map_foldRBQ_TRBR_RB1r_EuNCNvNtNtB1v_7derives10subcommand27gen_update_from_arg_matches0NCINvNvB28_9partition6extendB3M_INtNtCse1nGBsou5OW_5alloc3vec3VecB3M_ENCB40_s_0E0E0EB1v_, symObjAddr: 0x1658, symBinAddr: 0x3DA54, symSize: 0x190 }
  - { offset: 0x4EBF5, size: 0x8, addend: 0x0, symName: __RINvXs2U_NtNtCsfvfooZQ3Axs_4core5slice4iterINtB7_4IterhENtNtNtNtBb_4iter6traits8iterator8Iterator4folduNCINvNtNtBY_8adapters3map8map_foldRhhuNCNvNtCse1nGBsou5OW_5alloc3str13replace_ascii0NCINvNvBS_8for_each4callhNCINvMsi_NtB2l_3vecINtB3x_3VechE14extend_trustedINtB1I_3MapBF_B2f_EE0E0E0ECsjOBAykZTw0C_11clap_derive, symObjAddr: 0x17E8, symBinAddr: 0x3DBE4, symSize: 0x1B0 }
  - { offset: 0x4ED49, size: 0x8, addend: 0x0, symName: __RNvXs2U_NtNtCsfvfooZQ3Axs_4core5slice4iterINtB6_4IterINtNtBa_6option6OptionNtCs3cP53eQoTwO_11proc_macro211TokenStreamEENtNtNtNtBa_4iter6traits8iterator8Iterator4nextCsjOBAykZTw0C_11clap_derive, symObjAddr: 0x2B04, symBinAddr: 0x3EF00, symSize: 0xBC }
  - { offset: 0x4EE97, size: 0x8, addend: 0x0, symName: __RNvXs2U_NtNtCsfvfooZQ3Axs_4core5slice4iterINtB6_4IterNtCs3cP53eQoTwO_11proc_macro211TokenStreamENtNtNtNtBa_4iter6traits8iterator8Iterator4nextCsjOBAykZTw0C_11clap_derive, symObjAddr: 0x2BC0, symBinAddr: 0x3EFBC, symSize: 0xBC }
  - { offset: 0x4EFE5, size: 0x8, addend: 0x0, symName: __RNvXs2U_NtNtCsfvfooZQ3Axs_4core5slice4iterINtB6_4IterNtCs3cP53eQoTwO_11proc_macro25IdentENtNtNtNtBa_4iter6traits8iterator8Iterator4nextCsjOBAykZTw0C_11clap_derive, symObjAddr: 0x2C7C, symBinAddr: 0x3F078, symSize: 0xBC }
  - { offset: 0x4F133, size: 0x8, addend: 0x0, symName: __RNvXs2U_NtNtCsfvfooZQ3Axs_4core5slice4iterINtB6_4IterNtNtCs6IAuOt8vWmF_3syn4attr9AttributeENtNtNtNtBa_4iter6traits8iterator8Iterator9size_hintCsjOBAykZTw0C_11clap_derive, symObjAddr: 0x2D38, symBinAddr: 0x3F134, symSize: 0x70 }
  - { offset: 0x4F1A2, size: 0x8, addend: 0x0, symName: __RNvXs2U_NtNtCsfvfooZQ3Axs_4core5slice4iterINtB6_4IterNtNtCs6IAuOt8vWmF_3syn4expr4ExprENtNtNtNtBa_4iter6traits8iterator8Iterator4nextCsjOBAykZTw0C_11clap_derive, symObjAddr: 0x2DA8, symBinAddr: 0x3F1A4, symSize: 0xBC }
  - { offset: 0x4F2F0, size: 0x8, addend: 0x0, symName: __RNvXs2U_NtNtCsfvfooZQ3Axs_4core5slice4iterINtB6_4IterNtNtCse1nGBsou5OW_5alloc6string6StringENtNtNtNtBa_4iter6traits8iterator8Iterator4nextCsjOBAykZTw0C_11clap_derive, symObjAddr: 0x2E64, symBinAddr: 0x3F260, symSize: 0xBC }
  - { offset: 0x4F43E, size: 0x8, addend: 0x0, symName: __RNvXs2U_NtNtCsfvfooZQ3Axs_4core5slice4iterINtB6_4IterNtNtCse1nGBsou5OW_5alloc6string6StringENtNtNtNtBa_4iter6traits8iterator8Iterator9size_hintCsjOBAykZTw0C_11clap_derive, symObjAddr: 0x2F20, symBinAddr: 0x3F31C, symSize: 0x70 }
  - { offset: 0x4F4AD, size: 0x8, addend: 0x0, symName: __RNvXs2U_NtNtCsfvfooZQ3Axs_4core5slice4iterINtB6_4IterNtNtCsjOBAykZTw0C_11clap_derive4attr8AttrKindENtNtNtNtBa_4iter6traits8iterator8Iterator4nextBT_, symObjAddr: 0x2F90, symBinAddr: 0x3F38C, symSize: 0xBC }
  - { offset: 0x4F5FB, size: 0x8, addend: 0x0, symName: __RNvXs2U_NtNtCsfvfooZQ3Axs_4core5slice4iterINtB6_4IterNtNtCsjOBAykZTw0C_11clap_derive4attr8AttrKindENtNtNtNtBa_4iter6traits8iterator8Iterator9size_hintBT_, symObjAddr: 0x304C, symBinAddr: 0x3F448, symSize: 0x70 }
  - { offset: 0x4F66A, size: 0x8, addend: 0x0, symName: __RNvXs2U_NtNtCsfvfooZQ3Axs_4core5slice4iterINtB6_4IterNtNtCsjOBAykZTw0C_11clap_derive4attr8ClapAttrENtNtNtNtBa_4iter6traits8iterator8Iterator4nextBT_, symObjAddr: 0x30BC, symBinAddr: 0x3F4B8, symSize: 0xBC }
  - { offset: 0x4F7B8, size: 0x8, addend: 0x0, symName: __RNvXs2U_NtNtCsfvfooZQ3Axs_4core5slice4iterINtB6_4IterNtNtCsjOBAykZTw0C_11clap_derive4item11DeprecationENtNtNtNtBa_4iter6traits8iterator8Iterator4nextBT_, symObjAddr: 0x3178, symBinAddr: 0x3F574, symSize: 0xBC }
  - { offset: 0x4F906, size: 0x8, addend: 0x0, symName: __RNvXs2U_NtNtCsfvfooZQ3Axs_4core5slice4iterINtB6_4IterNtNtCsjOBAykZTw0C_11clap_derive4item6MethodENtNtNtNtBa_4iter6traits8iterator8Iterator4nextBT_, symObjAddr: 0x3234, symBinAddr: 0x3F630, symSize: 0xBC }
  - { offset: 0x4FA54, size: 0x8, addend: 0x0, symName: __RNvXs2U_NtNtCsfvfooZQ3Axs_4core5slice4iterINtB6_4IterRNtCs3cP53eQoTwO_11proc_macro25IdentENtNtNtNtBa_4iter6traits8iterator8Iterator4nextCsjOBAykZTw0C_11clap_derive, symObjAddr: 0x32F0, symBinAddr: 0x3F6EC, symSize: 0xBC }
  - { offset: 0x4FBA2, size: 0x8, addend: 0x0, symName: __RNvXs2U_NtNtCsfvfooZQ3Axs_4core5slice4iterINtB6_4IterRNtNtCsjOBAykZTw0C_11clap_derive4item4NameENtNtNtNtBa_4iter6traits8iterator8Iterator4nextBU_, symObjAddr: 0x33AC, symBinAddr: 0x3F7A8, symSize: 0xBC }
  - { offset: 0x4FCF0, size: 0x8, addend: 0x0, symName: __RNvXs2U_NtNtCsfvfooZQ3Axs_4core5slice4iterINtB6_4IterTNtCs3cP53eQoTwO_11proc_macro211TokenStreamNtBS_5IdentEENtNtNtNtBa_4iter6traits8iterator8Iterator9size_hintCsjOBAykZTw0C_11clap_derive, symObjAddr: 0x3468, symBinAddr: 0x3F864, symSize: 0x70 }
  - { offset: 0x4FD5F, size: 0x8, addend: 0x0, symName: __RNvXs2U_NtNtCsfvfooZQ3Axs_4core5slice4iterINtB6_4IterTRNtNtCs6IAuOt8vWmF_3syn4data5FieldNtNtCsjOBAykZTw0C_11clap_derive4item4ItemEENtNtNtNtBa_4iter6traits8iterator8Iterator4nextB1s_, symObjAddr: 0x34D8, symBinAddr: 0x3F8D4, symSize: 0xBC }
  - { offset: 0x4FEAD, size: 0x8, addend: 0x0, symName: __RNvXs2U_NtNtCsfvfooZQ3Axs_4core5slice4iterINtB6_4IterTRNtNtCs6IAuOt8vWmF_3syn4data5FieldNtNtCsjOBAykZTw0C_11clap_derive4item4ItemEENtNtNtNtBa_4iter6traits8iterator8Iterator9size_hintB1s_, symObjAddr: 0x3594, symBinAddr: 0x3F990, symSize: 0x70 }
  - { offset: 0x4FF1C, size: 0x8, addend: 0x0, symName: __RNvXs2U_NtNtCsfvfooZQ3Axs_4core5slice4iterINtB6_4IterTRNtNtCs6IAuOt8vWmF_3syn4data7VariantNtNtCsjOBAykZTw0C_11clap_derive4item4ItemEENtNtNtNtBa_4iter6traits8iterator8Iterator4nextB1u_, symObjAddr: 0x3604, symBinAddr: 0x3FA00, symSize: 0xBC }
  - { offset: 0x5006A, size: 0x8, addend: 0x0, symName: __RNvXs2U_NtNtCsfvfooZQ3Axs_4core5slice4iterINtB6_4IterTRRNtNtCs6IAuOt8vWmF_3syn4data7VariantRNtNtCsjOBAykZTw0C_11clap_derive4item4ItemEENtNtNtNtBa_4iter6traits8iterator8Iterator4nextB1w_, symObjAddr: 0x36C0, symBinAddr: 0x3FABC, symSize: 0xBC }
  - { offset: 0x501B8, size: 0x8, addend: 0x0, symName: __RNvXs2U_NtNtCsfvfooZQ3Axs_4core5slice4iterINtB6_4IterTRRNtNtCs6IAuOt8vWmF_3syn4data7VariantRNtNtCsjOBAykZTw0C_11clap_derive4item4ItemEENtNtNtNtBa_4iter6traits8iterator8Iterator9size_hintB1w_, symObjAddr: 0x377C, symBinAddr: 0x3FB78, symSize: 0x70 }
  - { offset: 0x50227, size: 0x8, addend: 0x0, symName: __RNvXs2U_NtNtCsfvfooZQ3Axs_4core5slice4iterINtB6_4IterhENtNtNtNtBa_4iter6traits8iterator8Iterator9size_hintCsjOBAykZTw0C_11clap_derive, symObjAddr: 0x37EC, symBinAddr: 0x3FBE8, symSize: 0x70 }
  - { offset: 0x50C11, size: 0x8, addend: 0x0, symName: __RNvXs2V_NtNtCsfvfooZQ3Axs_4core5slice4iterINtB6_4IterTNtNtCs6IAuOt8vWmF_3syn4data7VariantNtNtBU_5token5CommaEENtNtNtNtBa_4iter6traits12double_ended19DoubleEndedIterator9next_backCsjOBAykZTw0C_11clap_derive, symObjAddr: 0x385C, symBinAddr: 0x3FC58, symSize: 0x100 }
  - { offset: 0x50D6D, size: 0x8, addend: 0x0, symName: __RNvXs2V_NtNtCsfvfooZQ3Axs_4core5slice4iterINtB6_4IterTNtNtCs6IAuOt8vWmF_3syn4path15GenericArgumentNtNtBU_5token5CommaEENtNtNtNtBa_4iter6traits12double_ended19DoubleEndedIterator9next_backCsjOBAykZTw0C_11clap_derive, symObjAddr: 0x395C, symBinAddr: 0x3FD58, symSize: 0x100 }
  - { offset: 0x50F46, size: 0x8, addend: 0x0, symName: __RNvXs5_NtNtCsfvfooZQ3Axs_4core5slice4iterINtB5_4IterTNtNtCs6IAuOt8vWmF_3syn4data7VariantNtNtBT_5token5CommaEENtNtB9_5clone5Clone5cloneCsjOBAykZTw0C_11clap_derive, symObjAddr: 0x3A5C, symBinAddr: 0x3FE58, symSize: 0x20 }
  - { offset: 0x50F7B, size: 0x8, addend: 0x0, symName: __RNvXs5_NtNtCsfvfooZQ3Axs_4core5slice4iterINtB5_4IterTNtNtCs6IAuOt8vWmF_3syn4path15GenericArgumentNtNtBT_5token5CommaEENtNtB9_5clone5Clone5cloneCsjOBAykZTw0C_11clap_derive, symObjAddr: 0x3A7C, symBinAddr: 0x3FE78, symSize: 0x20 }
  - { offset: 0x55A55, size: 0x8, addend: 0x0, symName: __RINvYINtNtNtCsfvfooZQ3Axs_4core5slice4iter4IterNtNtCs6IAuOt8vWmF_3syn4attr9AttributeENtNtNtNtBa_4iter6traits8iterator8Iterator6filterNCNvNtNtCsjOBAykZTw0C_11clap_derive5utils12doc_comments19extract_doc_comment0EB2f_, symObjAddr: 0x1998, symBinAddr: 0x3DD94, symSize: 0x1C }
  - { offset: 0x55AA4, size: 0x8, addend: 0x0, symName: __RINvYINtNtNtCsfvfooZQ3Axs_4core5slice4iter4IterNtNtCs6IAuOt8vWmF_3syn4attr9AttributeENtNtNtNtBa_4iter6traits8iterator8Iterator8try_folduNCINvNtNtB1r_8adapters6filter15filter_try_foldRBJ_uINtNtNtBa_3ops12control_flow11ControlFlowNtNtCse1nGBsou5OW_5alloc6string6StringENCNvNtNtCsjOBAykZTw0C_11clap_derive5utils12doc_comments19extract_doc_comment0NCINvNtB2h_10filter_map19filter_map_try_foldB2U_B3E_uB2Z_NCB4j_s_0NCINvNvB1l_4find5checkB3E_NCINvNvXs0_NtB2h_10skip_whileINtB7b_9SkipWhileppEB1l_4next5checkB3E_NCB4j_s0_0E0E0E0E0B2Z_EB4p_, symObjAddr: 0x19B4, symBinAddr: 0x3DDB0, symSize: 0x13C }
  - { offset: 0x55B60, size: 0x8, addend: 0x0, symName: __RINvYINtNtNtCsfvfooZQ3Axs_4core5slice4iter4IterNtNtCse1nGBsou5OW_5alloc6string6StringENtNtNtNtBa_4iter6traits8iterator8Iterator3mapBJ_NCINvNtNtCsjOBAykZTw0C_11clap_derive5utils12doc_comments11merge_linesRBJ_RSBJ_E0EB2h_, symObjAddr: 0x1AF0, symBinAddr: 0x3DEEC, symSize: 0x1C }
  - { offset: 0x55BB8, size: 0x8, addend: 0x0, symName: __RINvYINtNtNtCsfvfooZQ3Axs_4core5slice4iter4IterNtNtCse1nGBsou5OW_5alloc6string6StringENtNtNtNtBa_4iter6traits8iterator8Iterator8try_foldjNCINvNtNtB1s_8adapters3map12map_try_foldRBJ_jjINtNtBa_6option6OptionjENCNCINvNtBN_3str17join_generic_copyehBJ_E00NvMs9_NtBa_3numj11checked_addE0B2V_ECsjOBAykZTw0C_11clap_derive, symObjAddr: 0x1B0C, symBinAddr: 0x3DF08, symSize: 0x180 }
  - { offset: 0x55C74, size: 0x8, addend: 0x0, symName: __RINvYINtNtNtCsfvfooZQ3Axs_4core5slice4iter4IterNtNtCsjOBAykZTw0C_11clap_derive4attr8AttrKindENtNtNtNtBa_4iter6traits8iterator8Iterator3mapNtNtCse1nGBsou5OW_5alloc6string6StringNCNvNtBN_4item16assert_attr_kind0EBN_, symObjAddr: 0x1C8C, symBinAddr: 0x3E088, symSize: 0x30 }
  - { offset: 0x55CE1, size: 0x8, addend: 0x0, symName: __RINvYINtNtNtCsfvfooZQ3Axs_4core5slice4iter4IterTNtCs3cP53eQoTwO_11proc_macro211TokenStreamNtBM_5IdentEENtNtNtNtBa_4iter6traits8iterator8Iterator3mapBJ_NvYBJ_NtNtBa_5clone5Clone5cloneECsjOBAykZTw0C_11clap_derive, symObjAddr: 0x1CBC, symBinAddr: 0x3E0B8, symSize: 0x1C }
  - { offset: 0x55D39, size: 0x8, addend: 0x0, symName: __RINvYINtNtNtCsfvfooZQ3Axs_4core5slice4iter4IterTNtCs3cP53eQoTwO_11proc_macro211TokenStreamNtBM_5IdentEENtNtNtNtBa_4iter6traits8iterator8Iterator3mapRB1q_NCNvNtNtCsjOBAykZTw0C_11clap_derive7derives10value_enum18gen_value_variants0EB2z_, symObjAddr: 0x1CD8, symBinAddr: 0x3E0D4, symSize: 0x1C }
  - { offset: 0x55D91, size: 0x8, addend: 0x0, symName: __RINvYINtNtNtCsfvfooZQ3Axs_4core5slice4iter4IterTNtCs3cP53eQoTwO_11proc_macro211TokenStreamNtBM_5IdentEENtNtNtNtBa_4iter6traits8iterator8Iterator6clonedBJ_ECsjOBAykZTw0C_11clap_derive, symObjAddr: 0x1CF4, symBinAddr: 0x3E0F0, symSize: 0x1C }
  - { offset: 0x55DD1, size: 0x8, addend: 0x0, symName: __RINvYINtNtNtCsfvfooZQ3Axs_4core5slice4iter4IterTRNtNtCs6IAuOt8vWmF_3syn4data5FieldNtNtCsjOBAykZTw0C_11clap_derive4item4ItemEENtNtNtNtBa_4iter6traits8iterator8Iterator10filter_mapRNtB1k_4NameNCNvNtNtB1m_7derives4args11gen_augment0EB1m_, symObjAddr: 0x1D10, symBinAddr: 0x3E10C, symSize: 0x1C }
  - { offset: 0x55E29, size: 0x8, addend: 0x0, symName: __RINvYINtNtNtCsfvfooZQ3Axs_4core5slice4iter4IterTRNtNtCs6IAuOt8vWmF_3syn4data5FieldNtNtCsjOBAykZTw0C_11clap_derive4item4ItemEENtNtNtNtBa_4iter6traits8iterator8Iterator3mapINtNtBa_6result6ResultNtCs3cP53eQoTwO_11proc_macro211TokenStreamNtNtBP_5error5ErrorENCNvNtNtB1m_7derives4args15gen_constructor0EB1m_, symObjAddr: 0x1D2C, symBinAddr: 0x3E128, symSize: 0x1C }
  - { offset: 0x55E81, size: 0x8, addend: 0x0, symName: __RINvYINtNtNtCsfvfooZQ3Axs_4core5slice4iter4IterTRNtNtCs6IAuOt8vWmF_3syn4data5FieldNtNtCsjOBAykZTw0C_11clap_derive4item4ItemEENtNtNtNtBa_4iter6traits8iterator8Iterator3mapjNCINvNvXs1_NtNtB25_8adapters6filterINtB2U_6FilterppEB1Z_5count8to_usizeRBJ_NCNvNtNtB1m_7derives4args11gen_augments_0E0EB1m_, symObjAddr: 0x1D48, symBinAddr: 0x3E144, symSize: 0x1C }
  - { offset: 0x55ED9, size: 0x8, addend: 0x0, symName: __RINvYINtNtNtCsfvfooZQ3Axs_4core5slice4iter4IterTRNtNtCs6IAuOt8vWmF_3syn4data5FieldNtNtCsjOBAykZTw0C_11clap_derive4item4ItemEENtNtNtNtBa_4iter6traits8iterator8Iterator6filterNCNvNtNtB1m_7derives4args11gen_augments_0EB1m_, symObjAddr: 0x1D64, symBinAddr: 0x3E160, symSize: 0x1C }
  - { offset: 0x55F28, size: 0x8, addend: 0x0, symName: __RINvYINtNtNtCsfvfooZQ3Axs_4core5slice4iter4IterTRNtNtCs6IAuOt8vWmF_3syn4data5FieldNtNtCsjOBAykZTw0C_11clap_derive4item4ItemEENtNtNtNtBa_4iter6traits8iterator8Iterator8try_folduNCINvNtNtB25_8adapters3map12map_try_foldRBJ_INtNtBa_6result6ResultNtCs3cP53eQoTwO_11proc_macro211TokenStreamNtNtBP_5error5ErrorEuINtNtNtBa_3ops12control_flow11ControlFlowIB4U_B3S_EENCNvNtNtB1m_7derives4args15gen_constructor0NCINvXB2V_INtB2V_12GenericShuntINtB2T_3MapB3_B5J_EIB3x_NtNtBa_7convert10InfallibleB4y_EEB1Z_8try_folduNCINvNvB1Z_12try_for_each4callB3S_B5y_NcNtB5y_5Break0E0B5y_E0E0B4T_EB1m_, symObjAddr: 0x1D80, symBinAddr: 0x3E17C, symSize: 0x140 }
  - { offset: 0x55FE4, size: 0x8, addend: 0x0, symName: __RINvYINtNtNtCsfvfooZQ3Axs_4core5slice4iter4IterTRNtNtCs6IAuOt8vWmF_3syn4data7VariantNtNtCsjOBAykZTw0C_11clap_derive4item4ItemEENtNtNtNtBa_4iter6traits8iterator8Iterator10filter_mapTRBK_RB1k_ENCNvNtNtB1o_7derives10subcommand18gen_has_subcommand0EB1o_, symObjAddr: 0x1EC0, symBinAddr: 0x3E2BC, symSize: 0x30 }
  - { offset: 0x56051, size: 0x8, addend: 0x0, symName: __RINvYINtNtNtCsfvfooZQ3Axs_4core5slice4iter4IterTRNtNtCs6IAuOt8vWmF_3syn4data7VariantNtNtCsjOBAykZTw0C_11clap_derive4item4ItemEENtNtNtNtBa_4iter6traits8iterator8Iterator10filter_mapTRBK_RB1k_ENCNvNtNtB1o_7derives10subcommand27gen_update_from_arg_matches0EB1o_, symObjAddr: 0x1EF0, symBinAddr: 0x3E2EC, symSize: 0x1C }
  - { offset: 0x560A9, size: 0x8, addend: 0x0, symName: __RINvYINtNtNtCsfvfooZQ3Axs_4core5slice4iter4IterTRRNtNtCs6IAuOt8vWmF_3syn4data7VariantRNtNtCsjOBAykZTw0C_11clap_derive4item4ItemEENtNtNtNtBa_4iter6traits8iterator8Iterator3mapINtNtBa_6result6ResultNtCs3cP53eQoTwO_11proc_macro211TokenStreamNtNtBQ_5error5ErrorENCNvNtNtB1q_7derives10subcommand18gen_has_subcommands1_0EB1q_, symObjAddr: 0x1F0C, symBinAddr: 0x3E308, symSize: 0x1C }
  - { offset: 0x56101, size: 0x8, addend: 0x0, symName: __RINvYINtNtNtCsfvfooZQ3Axs_4core5slice4iter4IterTRRNtNtCs6IAuOt8vWmF_3syn4data7VariantRNtNtCsjOBAykZTw0C_11clap_derive4item4ItemEENtNtNtNtBa_4iter6traits8iterator8Iterator3mapINtNtBa_6result6ResultNtCs3cP53eQoTwO_11proc_macro211TokenStreamNtNtBQ_5error5ErrorENCNvNtNtB1q_7derives10subcommand20gen_from_arg_matches0EB1q_, symObjAddr: 0x1F28, symBinAddr: 0x3E324, symSize: 0x3C }
  - { offset: 0x5616E, size: 0x8, addend: 0x0, symName: __RINvYINtNtNtCsfvfooZQ3Axs_4core5slice4iter4IterTRRNtNtCs6IAuOt8vWmF_3syn4data7VariantRNtNtCsjOBAykZTw0C_11clap_derive4item4ItemEENtNtNtNtBa_4iter6traits8iterator8Iterator3mapINtNtBa_6result6ResultNtCs3cP53eQoTwO_11proc_macro211TokenStreamNtNtBQ_5error5ErrorENCNvNtNtB1q_7derives10subcommand20gen_from_arg_matchess_0EB1q_, symObjAddr: 0x1F64, symBinAddr: 0x3E360, symSize: 0x1C }
  - { offset: 0x561C6, size: 0x8, addend: 0x0, symName: __RINvYINtNtNtCsfvfooZQ3Axs_4core5slice4iter4IterTRRNtNtCs6IAuOt8vWmF_3syn4data7VariantRNtNtCsjOBAykZTw0C_11clap_derive4item4ItemEENtNtNtNtBa_4iter6traits8iterator8Iterator3mapINtNtBa_6result6ResultNtCs3cP53eQoTwO_11proc_macro211TokenStreamNtNtBQ_5error5ErrorENCNvNtNtB1q_7derives10subcommand27gen_update_from_arg_matchess0_0EB1q_, symObjAddr: 0x1F80, symBinAddr: 0x3E37C, symSize: 0x1C }
  - { offset: 0x5621E, size: 0x8, addend: 0x0, symName: __RINvYINtNtNtCsfvfooZQ3Axs_4core5slice4iter4IterTRRNtNtCs6IAuOt8vWmF_3syn4data7VariantRNtNtCsjOBAykZTw0C_11clap_derive4item4ItemEENtNtNtNtBa_4iter6traits8iterator8Iterator3mapINtNtBa_6result6ResultNtCs3cP53eQoTwO_11proc_macro211TokenStreamNtNtBQ_5error5ErrorENCNvNtNtB1q_7derives10subcommand27gen_update_from_arg_matchess1_0EB1q_, symObjAddr: 0x1F9C, symBinAddr: 0x3E398, symSize: 0x1C }
  - { offset: 0x56276, size: 0x8, addend: 0x0, symName: __RINvYINtNtNtCsfvfooZQ3Axs_4core5slice4iter4IterTRRNtNtCs6IAuOt8vWmF_3syn4data7VariantRNtNtCsjOBAykZTw0C_11clap_derive4item4ItemEENtNtNtNtBa_4iter6traits8iterator8Iterator3mapNtCs3cP53eQoTwO_11proc_macro211TokenStreamNCNvNtNtB1q_7derives10subcommand18gen_has_subcommands0_0EB1q_, symObjAddr: 0x1FB8, symBinAddr: 0x3E3B4, symSize: 0x1C }
  - { offset: 0x562CE, size: 0x8, addend: 0x0, symName: __RINvYINtNtNtCsfvfooZQ3Axs_4core5slice4iter4IterTRRNtNtCs6IAuOt8vWmF_3syn4data7VariantRNtNtCsjOBAykZTw0C_11clap_derive4item4ItemEENtNtNtNtBa_4iter6traits8iterator8Iterator8try_folduNCINvNtNtB29_8adapters3map12map_try_foldRBJ_INtNtBa_6result6ResultNtCs3cP53eQoTwO_11proc_macro211TokenStreamNtNtBQ_5error5ErrorEuINtNtNtBa_3ops12control_flow11ControlFlowIB4Y_B3W_EENCNvNtNtB1q_7derives10subcommand18gen_has_subcommands1_0NCINvXB2Z_INtB2Z_12GenericShuntINtB2X_3MapB3_B5N_EIB3B_NtNtBa_7convert10InfallibleB4C_EEB23_8try_folduNCINvNvB23_12try_for_each4callB3W_B5C_NcNtB5C_5Break0E0B5C_E0E0B4X_EB1q_, symObjAddr: 0x1FD4, symBinAddr: 0x3E3D0, symSize: 0x140 }
  - { offset: 0x5638A, size: 0x8, addend: 0x0, symName: __RINvYINtNtNtCsfvfooZQ3Axs_4core5slice4iter4IterTRRNtNtCs6IAuOt8vWmF_3syn4data7VariantRNtNtCsjOBAykZTw0C_11clap_derive4item4ItemEENtNtNtNtBa_4iter6traits8iterator8Iterator8try_folduNCINvNtNtB29_8adapters3map12map_try_foldRBJ_INtNtBa_6result6ResultNtCs3cP53eQoTwO_11proc_macro211TokenStreamNtNtBQ_5error5ErrorEuINtNtNtBa_3ops12control_flow11ControlFlowIB4Y_B3W_EENCNvNtNtB1q_7derives10subcommand20gen_from_arg_matches0NCINvXB2Z_INtB2Z_12GenericShuntINtB2X_3MapB3_B5N_EIB3B_NtNtBa_7convert10InfallibleB4C_EEB23_8try_folduNCINvNvB23_12try_for_each4callB3W_B5C_NcNtB5C_5Break0E0B5C_E0E0B4X_EB1q_, symObjAddr: 0x2114, symBinAddr: 0x3E510, symSize: 0x140 }
  - { offset: 0x56446, size: 0x8, addend: 0x0, symName: __RINvYINtNtNtCsfvfooZQ3Axs_4core5slice4iter4IterTRRNtNtCs6IAuOt8vWmF_3syn4data7VariantRNtNtCsjOBAykZTw0C_11clap_derive4item4ItemEENtNtNtNtBa_4iter6traits8iterator8Iterator8try_folduNCINvNtNtB29_8adapters3map12map_try_foldRBJ_INtNtBa_6result6ResultNtCs3cP53eQoTwO_11proc_macro211TokenStreamNtNtBQ_5error5ErrorEuINtNtNtBa_3ops12control_flow11ControlFlowIB4Y_B3W_EENCNvNtNtB1q_7derives10subcommand20gen_from_arg_matchess_0NCINvXB2Z_INtB2Z_12GenericShuntINtB2X_3MapB3_B5N_EIB3B_NtNtBa_7convert10InfallibleB4C_EEB23_8try_folduNCINvNvB23_12try_for_each4callB3W_B5C_NcNtB5C_5Break0E0B5C_E0E0B4X_EB1q_, symObjAddr: 0x2254, symBinAddr: 0x3E650, symSize: 0x140 }
  - { offset: 0x56502, size: 0x8, addend: 0x0, symName: __RINvYINtNtNtCsfvfooZQ3Axs_4core5slice4iter4IterTRRNtNtCs6IAuOt8vWmF_3syn4data7VariantRNtNtCsjOBAykZTw0C_11clap_derive4item4ItemEENtNtNtNtBa_4iter6traits8iterator8Iterator8try_folduNCINvNtNtB29_8adapters3map12map_try_foldRBJ_INtNtBa_6result6ResultNtCs3cP53eQoTwO_11proc_macro211TokenStreamNtNtBQ_5error5ErrorEuINtNtNtBa_3ops12control_flow11ControlFlowIB4Y_B3W_EENCNvNtNtB1q_7derives10subcommand27gen_update_from_arg_matchess0_0NCINvXB2Z_INtB2Z_12GenericShuntINtB2X_3MapB3_B5N_EIB3B_NtNtBa_7convert10InfallibleB4C_EEB23_8try_folduNCINvNvB23_12try_for_each4callB3W_B5C_NcNtB5C_5Break0E0B5C_E0E0B4X_EB1q_, symObjAddr: 0x2394, symBinAddr: 0x3E790, symSize: 0x140 }
  - { offset: 0x565BE, size: 0x8, addend: 0x0, symName: __RINvYINtNtNtCsfvfooZQ3Axs_4core5slice4iter4IterTRRNtNtCs6IAuOt8vWmF_3syn4data7VariantRNtNtCsjOBAykZTw0C_11clap_derive4item4ItemEENtNtNtNtBa_4iter6traits8iterator8Iterator8try_folduNCINvNtNtB29_8adapters3map12map_try_foldRBJ_INtNtBa_6result6ResultNtCs3cP53eQoTwO_11proc_macro211TokenStreamNtNtBQ_5error5ErrorEuINtNtNtBa_3ops12control_flow11ControlFlowIB4Y_B3W_EENCNvNtNtB1q_7derives10subcommand27gen_update_from_arg_matchess1_0NCINvXB2Z_INtB2Z_12GenericShuntINtB2X_3MapB3_B5N_EIB3B_NtNtBa_7convert10InfallibleB4C_EEB23_8try_folduNCINvNvB23_12try_for_each4callB3W_B5C_NcNtB5C_5Break0E0B5C_E0E0B4X_EB1q_, symObjAddr: 0x24D4, symBinAddr: 0x3E8D0, symSize: 0x140 }
  - { offset: 0x5DAA8, size: 0x8, addend: 0x0, symName: __RNvMs4_NtNtCsfvfooZQ3Axs_4core5slice4iterINtB5_4IterINtNtB9_6option6OptionNtCs3cP53eQoTwO_11proc_macro211TokenStreamEE3newCsjOBAykZTw0C_11clap_derive, symObjAddr: 0x2614, symBinAddr: 0x3EA10, symSize: 0x50 }
  - { offset: 0x5DC90, size: 0x8, addend: 0x0, symName: __RNvMs4_NtNtCsfvfooZQ3Axs_4core5slice4iterINtB5_4IterNtCs3cP53eQoTwO_11proc_macro211TokenStreamE3newCsjOBAykZTw0C_11clap_derive, symObjAddr: 0x2664, symBinAddr: 0x3EA60, symSize: 0x50 }
  - { offset: 0x5DE6B, size: 0x8, addend: 0x0, symName: __RNvMs4_NtNtCsfvfooZQ3Axs_4core5slice4iterINtB5_4IterNtCs3cP53eQoTwO_11proc_macro25IdentE3newCsjOBAykZTw0C_11clap_derive, symObjAddr: 0x26B4, symBinAddr: 0x3EAB0, symSize: 0x58 }
  - { offset: 0x5E053, size: 0x8, addend: 0x0, symName: __RNvMs4_NtNtCsfvfooZQ3Axs_4core5slice4iterINtB5_4IterNtNtCs6IAuOt8vWmF_3syn4expr4ExprE3newCsjOBAykZTw0C_11clap_derive, symObjAddr: 0x270C, symBinAddr: 0x3EB08, symSize: 0x58 }
  - { offset: 0x5E221, size: 0x8, addend: 0x0, symName: __RNvMs4_NtNtCsfvfooZQ3Axs_4core5slice4iterINtB5_4IterNtNtCse1nGBsou5OW_5alloc6string6StringE3newCsjOBAykZTw0C_11clap_derive, symObjAddr: 0x2764, symBinAddr: 0x3EB60, symSize: 0x58 }
  - { offset: 0x5E3E2, size: 0x8, addend: 0x0, symName: __RNvMs4_NtNtCsfvfooZQ3Axs_4core5slice4iterINtB5_4IterNtNtCsjOBAykZTw0C_11clap_derive4attr8AttrKindE3newBS_, symObjAddr: 0x27BC, symBinAddr: 0x3EBB8, symSize: 0x50 }
  - { offset: 0x5E5BD, size: 0x8, addend: 0x0, symName: __RNvMs4_NtNtCsfvfooZQ3Axs_4core5slice4iterINtB5_4IterNtNtCsjOBAykZTw0C_11clap_derive4attr8ClapAttrE3newBS_, symObjAddr: 0x280C, symBinAddr: 0x3EC08, symSize: 0x58 }
  - { offset: 0x5E7A5, size: 0x8, addend: 0x0, symName: __RNvMs4_NtNtCsfvfooZQ3Axs_4core5slice4iterINtB5_4IterNtNtCsjOBAykZTw0C_11clap_derive4item11DeprecationE3newBS_, symObjAddr: 0x2864, symBinAddr: 0x3EC60, symSize: 0x50 }
  - { offset: 0x5E98D, size: 0x8, addend: 0x0, symName: __RNvMs4_NtNtCsfvfooZQ3Axs_4core5slice4iterINtB5_4IterNtNtCsjOBAykZTw0C_11clap_derive4item6MethodE3newBS_, symObjAddr: 0x28B4, symBinAddr: 0x3ECB0, symSize: 0x58 }
  - { offset: 0x5EB75, size: 0x8, addend: 0x0, symName: __RNvMs4_NtNtCsfvfooZQ3Axs_4core5slice4iterINtB5_4IterRNtCs3cP53eQoTwO_11proc_macro25IdentE3newCsjOBAykZTw0C_11clap_derive, symObjAddr: 0x290C, symBinAddr: 0x3ED08, symSize: 0x50 }
  - { offset: 0x5ED6A, size: 0x8, addend: 0x0, symName: __RNvMs4_NtNtCsfvfooZQ3Axs_4core5slice4iterINtB5_4IterRNtNtCsjOBAykZTw0C_11clap_derive4item4NameE3newBT_, symObjAddr: 0x295C, symBinAddr: 0x3ED58, symSize: 0x50 }
  - { offset: 0x5EF38, size: 0x8, addend: 0x0, symName: __RNvMs4_NtNtCsfvfooZQ3Axs_4core5slice4iterINtB5_4IterTNtCs3cP53eQoTwO_11proc_macro211TokenStreamNtBR_5IdentEE3newCsjOBAykZTw0C_11clap_derive, symObjAddr: 0x29AC, symBinAddr: 0x3EDA8, symSize: 0x58 }
  - { offset: 0x5F106, size: 0x8, addend: 0x0, symName: __RNvMs4_NtNtCsfvfooZQ3Axs_4core5slice4iterINtB5_4IterTRNtNtCs6IAuOt8vWmF_3syn4data5FieldNtNtCsjOBAykZTw0C_11clap_derive4item4ItemEE3newB1r_, symObjAddr: 0x2A04, symBinAddr: 0x3EE00, symSize: 0x58 }
  - { offset: 0x5F2C7, size: 0x8, addend: 0x0, symName: __RNvMs4_NtNtCsfvfooZQ3Axs_4core5slice4iterINtB5_4IterTRNtNtCs6IAuOt8vWmF_3syn4data7VariantNtNtCsjOBAykZTw0C_11clap_derive4item4ItemEE3newB1t_, symObjAddr: 0x2A5C, symBinAddr: 0x3EE58, symSize: 0x58 }
  - { offset: 0x5F495, size: 0x8, addend: 0x0, symName: __RNvMs4_NtNtCsfvfooZQ3Axs_4core5slice4iterINtB5_4IterTRRNtNtCs6IAuOt8vWmF_3syn4data7VariantRNtNtCsjOBAykZTw0C_11clap_derive4item4ItemEE3newB1v_, symObjAddr: 0x2AB4, symBinAddr: 0x3EEB0, symSize: 0x50 }
  - { offset: 0x6061E, size: 0x8, addend: 0x0, symName: __RINvMNtCsfvfooZQ3Axs_4core6resultINtB3_6ResultNtCs3cP53eQoTwO_11proc_macro211TokenStreamNtNtCs6IAuOt8vWmF_3syn5error5ErrorE14unwrap_or_elseNCNvCsjOBAykZTw0C_11clap_derive10subcommand0EB2h_, symObjAddr: 0x0, symBinAddr: 0x3FE98, symSize: 0xA8 }
  - { offset: 0x60997, size: 0x8, addend: 0x0, symName: __RINvNvNtNtCs9i5KxIbZ5ph_10proc_macro6bridge14selfless_reify31reify_to_extern_c_fn_hrt_bridge7wrapperNtNtB6_6buffer6BufferNCINvMs7_NtB6_6clientINtB24_6ClientNtB8_11TokenStreamB2u_E7expand1NvCsjOBAykZTw0C_11clap_derive10subcommandE0EB31_, symObjAddr: 0x2AC, symBinAddr: 0x40144, symSize: 0x5C }
  - { offset: 0x609F3, size: 0x8, addend: 0x0, symName: __RINvNvNtNtCs9i5KxIbZ5ph_10proc_macro6bridge14selfless_reify31reify_to_extern_c_fn_hrt_bridge7wrapperNtNtB6_6buffer6BufferNCINvMs7_NtB6_6clientINtB24_6ClientNtB8_11TokenStreamB2u_E7expand1NvCsjOBAykZTw0C_11clap_derive10value_enumE0EB31_, symObjAddr: 0x308, symBinAddr: 0x401A0, symSize: 0x5C }
  - { offset: 0x60A4F, size: 0x8, addend: 0x0, symName: __RINvNvNtNtCs9i5KxIbZ5ph_10proc_macro6bridge14selfless_reify31reify_to_extern_c_fn_hrt_bridge7wrapperNtNtB6_6buffer6BufferNCINvMs7_NtB6_6clientINtB24_6ClientNtB8_11TokenStreamB2u_E7expand1NvCsjOBAykZTw0C_11clap_derive4argsE0EB31_, symObjAddr: 0x364, symBinAddr: 0x401FC, symSize: 0x5C }
  - { offset: 0x60AAB, size: 0x8, addend: 0x0, symName: __RINvNvNtNtCs9i5KxIbZ5ph_10proc_macro6bridge14selfless_reify31reify_to_extern_c_fn_hrt_bridge7wrapperNtNtB6_6buffer6BufferNCINvMs7_NtB6_6clientINtB24_6ClientNtB8_11TokenStreamB2u_E7expand1NvCsjOBAykZTw0C_11clap_derive6parserE0EB31_, symObjAddr: 0x3C0, symBinAddr: 0x40258, symSize: 0x5C }
  - { offset: 0x60C3E, size: 0x8, addend: 0x0, symName: __RNvXsV_NtCs9i5KxIbZ5ph_10proc_macro6bridgeINtNtCsfvfooZQ3Axs_4core6result6ResultINtNtBJ_6option6OptionNtNtB5_6client11TokenStreamEuEINtNtB5_3rpc6EncodeuE6encodeCsjOBAykZTw0C_11clap_derive, symObjAddr: 0xFC4, symBinAddr: 0x40E5C, symSize: 0x108 }
  - { offset: 0x60D02, size: 0x8, addend: 0x0, symName: __RNvXsV_NtCs9i5KxIbZ5ph_10proc_macro6bridgeINtNtCsfvfooZQ3Axs_4core6result6ResultuNtNtB5_3rpc12PanicMessageEINtB1j_6EncodeuE6encodeCsjOBAykZTw0C_11clap_derive, symObjAddr: 0x10CC, symBinAddr: 0x40F64, symSize: 0x12C }
  - { offset: 0x61963, size: 0x8, addend: 0x0, symName: __RINvXNtNtCsjOBAykZTw0C_11clap_derive5utils5errorNtNtCs6IAuOt8vWmF_3syn3lit6LitStrNtB3_13ToTokensError25EXPECTED_Span_OR_ToTokensNtNtCse1nGBsou5OW_5alloc6string6StringEB7_, symObjAddr: 0x45B8, symBinAddr: 0x44450, symSize: 0xB0 }
  - { offset: 0x619B0, size: 0x8, addend: 0x0, symName: __RINvXNtNtCsjOBAykZTw0C_11clap_derive5utils5errorNtNtCs6IAuOt8vWmF_3syn5token2EqNtB3_13ToTokensError25EXPECTED_Span_OR_ToTokensNtNtCse1nGBsou5OW_5alloc6string6StringEB7_, symObjAddr: 0x4668, symBinAddr: 0x44500, symSize: 0xB0 }
  - { offset: 0x61CEB, size: 0x8, addend: 0x0, symName: __RNvNtCsjOBAykZTw0C_11clap_derive7dummies6parser, symObjAddr: 0x20AC, symBinAddr: 0x41F44, symSize: 0x1E8 }
  - { offset: 0x61D57, size: 0x8, addend: 0x0, symName: __RNvNtCsjOBAykZTw0C_11clap_derive7dummies8into_app, symObjAddr: 0x2294, symBinAddr: 0x4212C, symSize: 0x4EC }
  - { offset: 0x61DF0, size: 0x8, addend: 0x0, symName: __RNvNtCsjOBAykZTw0C_11clap_derive7dummies16from_arg_matches, symObjAddr: 0x2780, symBinAddr: 0x42618, symSize: 0x798 }
  - { offset: 0x61EB5, size: 0x8, addend: 0x0, symName: __RNvNtCsjOBAykZTw0C_11clap_derive7dummies10subcommand, symObjAddr: 0x2F18, symBinAddr: 0x42DB0, symSize: 0x7A4 }
  - { offset: 0x61FBB, size: 0x8, addend: 0x0, symName: __RNvNtCsjOBAykZTw0C_11clap_derive7dummies4args, symObjAddr: 0x36BC, symBinAddr: 0x43554, symSize: 0x600 }
  - { offset: 0x62095, size: 0x8, addend: 0x0, symName: __RNvNtCsjOBAykZTw0C_11clap_derive7dummies10value_enum, symObjAddr: 0x3CBC, symBinAddr: 0x43B54, symSize: 0x8FC }
  - { offset: 0x6284A, size: 0x8, addend: 0x0, symName: __RINvXsn_NtCsfvfooZQ3Axs_4core6resultINtB6_6ResultINtNtCse1nGBsou5OW_5alloc3vec3VecNtCs3cP53eQoTwO_11proc_macro211TokenStreamENtNtCs6IAuOt8vWmF_3syn5error5ErrorEINtNtNtNtB8_4iter6traits7collect12FromIteratorIBz_B1i_B1Z_EE9from_iterINtNtNtB2F_8adapters3map3MapINtNtNtB8_5slice4iter4IterTRNtNtB23_4data5FieldNtNtCsjOBAykZTw0C_11clap_derive4item4ItemEENCNvNtNtB4X_7derives4args15gen_constructor0EEB4X_, symObjAddr: 0x41C, symBinAddr: 0x402B4, symSize: 0x38 }
  - { offset: 0x6289C, size: 0x8, addend: 0x0, symName: __RINvXsn_NtCsfvfooZQ3Axs_4core6resultINtB6_6ResultINtNtCse1nGBsou5OW_5alloc3vec3VecNtCs3cP53eQoTwO_11proc_macro211TokenStreamENtNtCs6IAuOt8vWmF_3syn5error5ErrorEINtNtNtNtB8_4iter6traits7collect12FromIteratorIBz_B1i_B1Z_EE9from_iterINtNtNtB2F_8adapters3map3MapINtNtNtB8_5slice4iter4IterTRRNtNtB23_4data7VariantRNtNtCsjOBAykZTw0C_11clap_derive4item4ItemEENCNvNtNtB51_7derives10subcommand18gen_has_subcommands1_0EEB51_, symObjAddr: 0x454, symBinAddr: 0x402EC, symSize: 0x38 }
  - { offset: 0x628EE, size: 0x8, addend: 0x0, symName: __RINvXsn_NtCsfvfooZQ3Axs_4core6resultINtB6_6ResultINtNtCse1nGBsou5OW_5alloc3vec3VecNtCs3cP53eQoTwO_11proc_macro211TokenStreamENtNtCs6IAuOt8vWmF_3syn5error5ErrorEINtNtNtNtB8_4iter6traits7collect12FromIteratorIBz_B1i_B1Z_EE9from_iterINtNtNtB2F_8adapters3map3MapINtNtNtB8_5slice4iter4IterTRRNtNtB23_4data7VariantRNtNtCsjOBAykZTw0C_11clap_derive4item4ItemEENCNvNtNtB51_7derives10subcommand20gen_from_arg_matches0EEB51_, symObjAddr: 0x48C, symBinAddr: 0x40324, symSize: 0x34 }
  - { offset: 0x62941, size: 0x8, addend: 0x0, symName: __RINvXsn_NtCsfvfooZQ3Axs_4core6resultINtB6_6ResultINtNtCse1nGBsou5OW_5alloc3vec3VecNtCs3cP53eQoTwO_11proc_macro211TokenStreamENtNtCs6IAuOt8vWmF_3syn5error5ErrorEINtNtNtNtB8_4iter6traits7collect12FromIteratorIBz_B1i_B1Z_EE9from_iterINtNtNtB2F_8adapters3map3MapINtNtNtB8_5slice4iter4IterTRRNtNtB23_4data7VariantRNtNtCsjOBAykZTw0C_11clap_derive4item4ItemEENCNvNtNtB51_7derives10subcommand20gen_from_arg_matchess_0EEB51_, symObjAddr: 0x4C0, symBinAddr: 0x40358, symSize: 0x38 }
  - { offset: 0x62993, size: 0x8, addend: 0x0, symName: __RINvXsn_NtCsfvfooZQ3Axs_4core6resultINtB6_6ResultINtNtCse1nGBsou5OW_5alloc3vec3VecNtCs3cP53eQoTwO_11proc_macro211TokenStreamENtNtCs6IAuOt8vWmF_3syn5error5ErrorEINtNtNtNtB8_4iter6traits7collect12FromIteratorIBz_B1i_B1Z_EE9from_iterINtNtNtB2F_8adapters3map3MapINtNtNtB8_5slice4iter4IterTRRNtNtB23_4data7VariantRNtNtCsjOBAykZTw0C_11clap_derive4item4ItemEENCNvNtNtB51_7derives10subcommand27gen_update_from_arg_matchess0_0EEB51_, symObjAddr: 0x4F8, symBinAddr: 0x40390, symSize: 0x38 }
  - { offset: 0x629E5, size: 0x8, addend: 0x0, symName: __RINvXsn_NtCsfvfooZQ3Axs_4core6resultINtB6_6ResultINtNtCse1nGBsou5OW_5alloc3vec3VecNtCs3cP53eQoTwO_11proc_macro211TokenStreamENtNtCs6IAuOt8vWmF_3syn5error5ErrorEINtNtNtNtB8_4iter6traits7collect12FromIteratorIBz_B1i_B1Z_EE9from_iterINtNtNtB2F_8adapters3map3MapINtNtNtB8_5slice4iter4IterTRRNtNtB23_4data7VariantRNtNtCsjOBAykZTw0C_11clap_derive4item4ItemEENCNvNtNtB51_7derives10subcommand27gen_update_from_arg_matchess1_0EEB51_, symObjAddr: 0x530, symBinAddr: 0x403C8, symSize: 0x38 }
  - { offset: 0x62A37, size: 0x8, addend: 0x0, symName: __RINvXsn_NtCsfvfooZQ3Axs_4core6resultINtB6_6ResultINtNtCse1nGBsou5OW_5alloc3vec3VecTRNtNtCs6IAuOt8vWmF_3syn4data5FieldNtNtCsjOBAykZTw0C_11clap_derive4item4ItemEENtNtB1o_5error5ErrorEINtNtNtNtB8_4iter6traits7collect12FromIteratorIBz_B1i_B2y_EE9from_iterINtNtNtB30_8adapters3map3MapINtNtB1o_10punctuated4IterB1k_ENCNvNtNtB1V_7derives4args11derive_args0EEB1V_, symObjAddr: 0x568, symBinAddr: 0x40400, symSize: 0x34 }
  - { offset: 0x62A8A, size: 0x8, addend: 0x0, symName: __RINvXsn_NtCsfvfooZQ3Axs_4core6resultINtB6_6ResultINtNtCse1nGBsou5OW_5alloc3vec3VecTRNtNtCs6IAuOt8vWmF_3syn4data5FieldNtNtCsjOBAykZTw0C_11clap_derive4item4ItemEENtNtB1o_5error5ErrorEINtNtNtNtB8_4iter6traits7collect12FromIteratorIBz_B1i_B2y_EE9from_iterINtNtNtB30_8adapters3map3MapINtNtB1o_10punctuated4IterB1k_ENCNvNtNtB1V_7derives4args19collect_args_fields0EEB1V_, symObjAddr: 0x59C, symBinAddr: 0x40434, symSize: 0x34 }
  - { offset: 0x62ADD, size: 0x8, addend: 0x0, symName: __RINvXsn_NtCsfvfooZQ3Axs_4core6resultINtB6_6ResultINtNtCse1nGBsou5OW_5alloc3vec3VecTRNtNtCs6IAuOt8vWmF_3syn4data5FieldNtNtCsjOBAykZTw0C_11clap_derive4item4ItemEENtNtB1o_5error5ErrorEINtNtNtNtB8_4iter6traits7collect12FromIteratorIBz_B1i_B2y_EE9from_iterINtNtNtB30_8adapters3map3MapINtNtB1o_10punctuated4IterB1k_ENCNvNtNtB1V_7derives6parser13derive_parser0EEB1V_, symObjAddr: 0x5D0, symBinAddr: 0x40468, symSize: 0x34 }
  - { offset: 0x62B30, size: 0x8, addend: 0x0, symName: __RINvXsn_NtCsfvfooZQ3Axs_4core6resultINtB6_6ResultINtNtCse1nGBsou5OW_5alloc3vec3VecTRNtNtCs6IAuOt8vWmF_3syn4data7VariantNtNtCsjOBAykZTw0C_11clap_derive4item4ItemEENtNtB1o_5error5ErrorEINtNtNtNtB8_4iter6traits7collect12FromIteratorIBz_B1i_B2A_EE9from_iterINtNtNtB32_8adapters3map3MapINtNtB1o_10punctuated4IterB1k_ENCNvNtNtB1X_7derives10subcommand17derive_subcommand0EEB1X_, symObjAddr: 0x604, symBinAddr: 0x4049C, symSize: 0x34 }
  - { offset: 0x62B83, size: 0x8, addend: 0x0, symName: __RINvXsn_NtCsfvfooZQ3Axs_4core6resultINtB6_6ResultINtNtCse1nGBsou5OW_5alloc3vec3VecTRNtNtCs6IAuOt8vWmF_3syn4data7VariantNtNtCsjOBAykZTw0C_11clap_derive4item4ItemEENtNtB1o_5error5ErrorEINtNtNtNtB8_4iter6traits7collect12FromIteratorIBz_B1i_B2A_EE9from_iterINtNtNtB32_8adapters3map3MapINtNtB1o_10punctuated4IterB1k_ENCNvNtNtB1X_7derives6parser13derive_parsers_0EEB1X_, symObjAddr: 0x638, symBinAddr: 0x404D0, symSize: 0x34 }
  - { offset: 0x62BDB, size: 0x8, addend: 0x0, symName: __RNCINvXsn_NtCsfvfooZQ3Axs_4core6resultINtB8_6ResultINtNtCse1nGBsou5OW_5alloc3vec3VecNtCs3cP53eQoTwO_11proc_macro211TokenStreamENtNtCs6IAuOt8vWmF_3syn5error5ErrorEINtNtNtNtBa_4iter6traits7collect12FromIteratorIBB_B1k_B21_EE9from_iterINtNtNtB2H_8adapters3map3MapINtNtNtBa_5slice4iter4IterTRNtNtB25_4data5FieldNtNtCsjOBAykZTw0C_11clap_derive4item4ItemEENCNvNtNtB4Z_7derives4args15gen_constructor0EE0B4Z_, symObjAddr: 0x66C, symBinAddr: 0x40504, symSize: 0x30 }
  - { offset: 0x62C57, size: 0x8, addend: 0x0, symName: __RNCINvXsn_NtCsfvfooZQ3Axs_4core6resultINtB8_6ResultINtNtCse1nGBsou5OW_5alloc3vec3VecNtCs3cP53eQoTwO_11proc_macro211TokenStreamENtNtCs6IAuOt8vWmF_3syn5error5ErrorEINtNtNtNtBa_4iter6traits7collect12FromIteratorIBB_B1k_B21_EE9from_iterINtNtNtB2H_8adapters3map3MapINtNtNtBa_5slice4iter4IterTRRNtNtB25_4data7VariantRNtNtCsjOBAykZTw0C_11clap_derive4item4ItemEENCNvNtNtB53_7derives10subcommand18gen_has_subcommands1_0EE0B53_, symObjAddr: 0x69C, symBinAddr: 0x40534, symSize: 0x30 }
  - { offset: 0x62CD3, size: 0x8, addend: 0x0, symName: __RNCINvXsn_NtCsfvfooZQ3Axs_4core6resultINtB8_6ResultINtNtCse1nGBsou5OW_5alloc3vec3VecNtCs3cP53eQoTwO_11proc_macro211TokenStreamENtNtCs6IAuOt8vWmF_3syn5error5ErrorEINtNtNtNtBa_4iter6traits7collect12FromIteratorIBB_B1k_B21_EE9from_iterINtNtNtB2H_8adapters3map3MapINtNtNtBa_5slice4iter4IterTRRNtNtB25_4data7VariantRNtNtCsjOBAykZTw0C_11clap_derive4item4ItemEENCNvNtNtB53_7derives10subcommand20gen_from_arg_matches0EE0B53_, symObjAddr: 0x6CC, symBinAddr: 0x40564, symSize: 0x30 }
  - { offset: 0x62D4F, size: 0x8, addend: 0x0, symName: __RNCINvXsn_NtCsfvfooZQ3Axs_4core6resultINtB8_6ResultINtNtCse1nGBsou5OW_5alloc3vec3VecNtCs3cP53eQoTwO_11proc_macro211TokenStreamENtNtCs6IAuOt8vWmF_3syn5error5ErrorEINtNtNtNtBa_4iter6traits7collect12FromIteratorIBB_B1k_B21_EE9from_iterINtNtNtB2H_8adapters3map3MapINtNtNtBa_5slice4iter4IterTRRNtNtB25_4data7VariantRNtNtCsjOBAykZTw0C_11clap_derive4item4ItemEENCNvNtNtB53_7derives10subcommand20gen_from_arg_matchess_0EE0B53_, symObjAddr: 0x6FC, symBinAddr: 0x40594, symSize: 0x30 }
  - { offset: 0x62DCB, size: 0x8, addend: 0x0, symName: __RNCINvXsn_NtCsfvfooZQ3Axs_4core6resultINtB8_6ResultINtNtCse1nGBsou5OW_5alloc3vec3VecNtCs3cP53eQoTwO_11proc_macro211TokenStreamENtNtCs6IAuOt8vWmF_3syn5error5ErrorEINtNtNtNtBa_4iter6traits7collect12FromIteratorIBB_B1k_B21_EE9from_iterINtNtNtB2H_8adapters3map3MapINtNtNtBa_5slice4iter4IterTRRNtNtB25_4data7VariantRNtNtCsjOBAykZTw0C_11clap_derive4item4ItemEENCNvNtNtB53_7derives10subcommand27gen_update_from_arg_matchess0_0EE0B53_, symObjAddr: 0x72C, symBinAddr: 0x405C4, symSize: 0x30 }
  - { offset: 0x62E47, size: 0x8, addend: 0x0, symName: __RNCINvXsn_NtCsfvfooZQ3Axs_4core6resultINtB8_6ResultINtNtCse1nGBsou5OW_5alloc3vec3VecNtCs3cP53eQoTwO_11proc_macro211TokenStreamENtNtCs6IAuOt8vWmF_3syn5error5ErrorEINtNtNtNtBa_4iter6traits7collect12FromIteratorIBB_B1k_B21_EE9from_iterINtNtNtB2H_8adapters3map3MapINtNtNtBa_5slice4iter4IterTRRNtNtB25_4data7VariantRNtNtCsjOBAykZTw0C_11clap_derive4item4ItemEENCNvNtNtB53_7derives10subcommand27gen_update_from_arg_matchess1_0EE0B53_, symObjAddr: 0x75C, symBinAddr: 0x405F4, symSize: 0x30 }
  - { offset: 0x62EC3, size: 0x8, addend: 0x0, symName: __RNCINvXsn_NtCsfvfooZQ3Axs_4core6resultINtB8_6ResultINtNtCse1nGBsou5OW_5alloc3vec3VecTRNtNtCs6IAuOt8vWmF_3syn4data5FieldNtNtCsjOBAykZTw0C_11clap_derive4item4ItemEENtNtB1q_5error5ErrorEINtNtNtNtBa_4iter6traits7collect12FromIteratorIBB_B1k_B2A_EE9from_iterINtNtNtB32_8adapters3map3MapINtNtB1q_10punctuated4IterB1m_ENCNvNtNtB1X_7derives4args11derive_args0EE0B1X_, symObjAddr: 0x78C, symBinAddr: 0x40624, symSize: 0x30 }
  - { offset: 0x62F3F, size: 0x8, addend: 0x0, symName: __RNCINvXsn_NtCsfvfooZQ3Axs_4core6resultINtB8_6ResultINtNtCse1nGBsou5OW_5alloc3vec3VecTRNtNtCs6IAuOt8vWmF_3syn4data5FieldNtNtCsjOBAykZTw0C_11clap_derive4item4ItemEENtNtB1q_5error5ErrorEINtNtNtNtBa_4iter6traits7collect12FromIteratorIBB_B1k_B2A_EE9from_iterINtNtNtB32_8adapters3map3MapINtNtB1q_10punctuated4IterB1m_ENCNvNtNtB1X_7derives4args19collect_args_fields0EE0B1X_, symObjAddr: 0x7BC, symBinAddr: 0x40654, symSize: 0x30 }
  - { offset: 0x62FBB, size: 0x8, addend: 0x0, symName: __RNCINvXsn_NtCsfvfooZQ3Axs_4core6resultINtB8_6ResultINtNtCse1nGBsou5OW_5alloc3vec3VecTRNtNtCs6IAuOt8vWmF_3syn4data5FieldNtNtCsjOBAykZTw0C_11clap_derive4item4ItemEENtNtB1q_5error5ErrorEINtNtNtNtBa_4iter6traits7collect12FromIteratorIBB_B1k_B2A_EE9from_iterINtNtNtB32_8adapters3map3MapINtNtB1q_10punctuated4IterB1m_ENCNvNtNtB1X_7derives6parser13derive_parser0EE0B1X_, symObjAddr: 0x7EC, symBinAddr: 0x40684, symSize: 0x30 }
  - { offset: 0x63037, size: 0x8, addend: 0x0, symName: __RNCINvXsn_NtCsfvfooZQ3Axs_4core6resultINtB8_6ResultINtNtCse1nGBsou5OW_5alloc3vec3VecTRNtNtCs6IAuOt8vWmF_3syn4data7VariantNtNtCsjOBAykZTw0C_11clap_derive4item4ItemEENtNtB1q_5error5ErrorEINtNtNtNtBa_4iter6traits7collect12FromIteratorIBB_B1k_B2C_EE9from_iterINtNtNtB34_8adapters3map3MapINtNtB1q_10punctuated4IterB1m_ENCNvNtNtB1Z_7derives10subcommand17derive_subcommand0EE0B1Z_, symObjAddr: 0x81C, symBinAddr: 0x406B4, symSize: 0x30 }
  - { offset: 0x630B3, size: 0x8, addend: 0x0, symName: __RNCINvXsn_NtCsfvfooZQ3Axs_4core6resultINtB8_6ResultINtNtCse1nGBsou5OW_5alloc3vec3VecTRNtNtCs6IAuOt8vWmF_3syn4data7VariantNtNtCsjOBAykZTw0C_11clap_derive4item4ItemEENtNtB1q_5error5ErrorEINtNtNtNtBa_4iter6traits7collect12FromIteratorIBB_B1k_B2C_EE9from_iterINtNtNtB34_8adapters3map3MapINtNtB1q_10punctuated4IterB1m_ENCNvNtNtB1Z_7derives6parser13derive_parsers_0EE0B1Z_, symObjAddr: 0x84C, symBinAddr: 0x406E4, symSize: 0x30 }
  - { offset: 0x632BE, size: 0x8, addend: 0x0, symName: __RNvXsp_NtCsfvfooZQ3Axs_4core6resultINtB5_6ResultINtNtCs6IAuOt8vWmF_3syn10punctuated10PunctuatedNtNtCsjOBAykZTw0C_11clap_derive4attr8ClapAttrNtNtBP_5token5CommaENtNtBP_5error5ErrorEINtNtNtB7_3ops9try_trait12FromResidualIBy_NtNtB7_7convert10InfallibleB2y_EE13from_residualB1z_, symObjAddr: 0x1CCC, symBinAddr: 0x41B64, symSize: 0x48 }
  - { offset: 0x63343, size: 0x8, addend: 0x0, symName: __RNvXsp_NtCsfvfooZQ3Axs_4core6resultINtB5_6ResultINtNtCse1nGBsou5OW_5alloc3vec3VecNtCs3cP53eQoTwO_11proc_macro211TokenStreamENtNtCs6IAuOt8vWmF_3syn5error5ErrorEINtNtNtB7_3ops9try_trait12FromResidualIBy_NtNtB7_7convert10InfallibleB1Y_EE13from_residualCsjOBAykZTw0C_11clap_derive, symObjAddr: 0x1D14, symBinAddr: 0x41BAC, symSize: 0x48 }
  - { offset: 0x633C8, size: 0x8, addend: 0x0, symName: __RNvXsp_NtCsfvfooZQ3Axs_4core6resultINtB5_6ResultINtNtCse1nGBsou5OW_5alloc3vec3VecNtNtCsjOBAykZTw0C_11clap_derive4attr8ClapAttrENtNtCs6IAuOt8vWmF_3syn5error5ErrorEINtNtNtB7_3ops9try_trait12FromResidualIBy_NtNtB7_7convert10InfallibleB21_EE13from_residualB1l_, symObjAddr: 0x1D5C, symBinAddr: 0x41BF4, symSize: 0x48 }
  - { offset: 0x6344D, size: 0x8, addend: 0x0, symName: __RNvXsp_NtCsfvfooZQ3Axs_4core6resultINtB5_6ResultINtNtCse1nGBsou5OW_5alloc3vec3VecTRNtNtCs6IAuOt8vWmF_3syn4data5FieldNtNtCsjOBAykZTw0C_11clap_derive4item4ItemEENtNtB1n_5error5ErrorEINtNtNtB7_3ops9try_trait12FromResidualIBy_NtNtB7_7convert10InfallibleB2x_EE13from_residualB1U_, symObjAddr: 0x1DA4, symBinAddr: 0x41C3C, symSize: 0x48 }
  - { offset: 0x634D2, size: 0x8, addend: 0x0, symName: __RNvXsp_NtCsfvfooZQ3Axs_4core6resultINtB5_6ResultINtNtCse1nGBsou5OW_5alloc3vec3VecTRNtNtCs6IAuOt8vWmF_3syn4data7VariantNtNtCsjOBAykZTw0C_11clap_derive4item4ItemEENtNtB1n_5error5ErrorEINtNtNtB7_3ops9try_trait12FromResidualIBy_NtNtB7_7convert10InfallibleB2z_EE13from_residualB1W_, symObjAddr: 0x1DEC, symBinAddr: 0x41C84, symSize: 0x48 }
  - { offset: 0x63557, size: 0x8, addend: 0x0, symName: __RNvXsp_NtCsfvfooZQ3Axs_4core6resultINtB5_6ResultNtNtCsjOBAykZTw0C_11clap_derive4attr8ClapAttrNtNtCs6IAuOt8vWmF_3syn5error5ErrorEINtNtNtB7_3ops9try_trait12FromResidualIBy_NtNtB7_7convert10InfallibleB1t_EE13from_residualBO_, symObjAddr: 0x1E34, symBinAddr: 0x41CCC, symSize: 0x48 }
  - { offset: 0x635DC, size: 0x8, addend: 0x0, symName: __RNvXsp_NtCsfvfooZQ3Axs_4core6resultINtB5_6ResultNtNtCsjOBAykZTw0C_11clap_derive4item4ItemNtNtCs6IAuOt8vWmF_3syn5error5ErrorEINtNtNtB7_3ops9try_trait12FromResidualIBy_NtNtB7_7convert10InfallibleB1p_EE13from_residualBO_, symObjAddr: 0x1E7C, symBinAddr: 0x41D14, symSize: 0x48 }
  - { offset: 0x63661, size: 0x8, addend: 0x0, symName: __RNvXsp_NtCsfvfooZQ3Axs_4core6resultINtB5_6ResultRNtNtCs6IAuOt8vWmF_3syn3lit6LitStrNtNtBP_5error5ErrorEINtNtNtB7_3ops9try_trait12FromResidualIBy_NtNtB7_7convert10InfallibleB1i_EE13from_residualCsjOBAykZTw0C_11clap_derive, symObjAddr: 0x1EC4, symBinAddr: 0x41D5C, symSize: 0x40 }
  - { offset: 0x636E6, size: 0x8, addend: 0x0, symName: __RNvXsp_NtCsfvfooZQ3Axs_4core6resultINtB5_6ResultTRNtNtCs6IAuOt8vWmF_3syn4data5FieldNtNtCsjOBAykZTw0C_11clap_derive4item4ItemENtNtBQ_5error5ErrorEINtNtNtB7_3ops9try_trait12FromResidualIBy_NtNtB7_7convert10InfallibleB1Z_EE13from_residualB1n_, symObjAddr: 0x1F04, symBinAddr: 0x41D9C, symSize: 0x48 }
  - { offset: 0x6376B, size: 0x8, addend: 0x0, symName: __RNvXsp_NtCsfvfooZQ3Axs_4core6resultINtB5_6ResultTRNtNtCs6IAuOt8vWmF_3syn4data7VariantNtNtCsjOBAykZTw0C_11clap_derive4item4ItemENtNtBQ_5error5ErrorEINtNtNtB7_3ops9try_trait12FromResidualIBy_NtNtB7_7convert10InfallibleB21_EE13from_residualB1p_, symObjAddr: 0x1F4C, symBinAddr: 0x41DE4, symSize: 0x48 }
  - { offset: 0x63936, size: 0x8, addend: 0x0, symName: __RNvXso_NtCsfvfooZQ3Axs_4core6resultINtB5_6ResultINtNtB7_6option6OptionNtNtCsjOBAykZTw0C_11clap_derive4item6MethodENtNtCs6IAuOt8vWmF_3syn5error5ErrorENtNtNtB7_3ops9try_trait3Try6branchB1a_, symObjAddr: 0x1280, symBinAddr: 0x41118, symSize: 0xB8 }
  - { offset: 0x639B3, size: 0x8, addend: 0x0, symName: __RNvXso_NtCsfvfooZQ3Axs_4core6resultINtB5_6ResultINtNtCs6IAuOt8vWmF_3syn10punctuated10PunctuatedNtNtCsjOBAykZTw0C_11clap_derive4attr8ClapAttrNtNtBP_5token5CommaENtNtBP_5error5ErrorENtNtNtB7_3ops9try_trait3Try6branchB1z_, symObjAddr: 0x1338, symBinAddr: 0x411D0, symSize: 0xA0 }
  - { offset: 0x63A30, size: 0x8, addend: 0x0, symName: __RNvXso_NtCsfvfooZQ3Axs_4core6resultINtB5_6ResultINtNtCse1nGBsou5OW_5alloc3vec3VecNtCs3cP53eQoTwO_11proc_macro211TokenStreamENtNtCs6IAuOt8vWmF_3syn5error5ErrorENtNtNtB7_3ops9try_trait3Try11from_outputCsjOBAykZTw0C_11clap_derive, symObjAddr: 0x13D8, symBinAddr: 0x41270, symSize: 0x18 }
  - { offset: 0x63A70, size: 0x8, addend: 0x0, symName: __RNvXso_NtCsfvfooZQ3Axs_4core6resultINtB5_6ResultINtNtCse1nGBsou5OW_5alloc3vec3VecNtCs3cP53eQoTwO_11proc_macro211TokenStreamENtNtCs6IAuOt8vWmF_3syn5error5ErrorENtNtNtB7_3ops9try_trait3Try6branchCsjOBAykZTw0C_11clap_derive, symObjAddr: 0x13F0, symBinAddr: 0x41288, symSize: 0x94 }
  - { offset: 0x63AED, size: 0x8, addend: 0x0, symName: __RNvXso_NtCsfvfooZQ3Axs_4core6resultINtB5_6ResultINtNtCse1nGBsou5OW_5alloc3vec3VecNtNtCsjOBAykZTw0C_11clap_derive4attr8ClapAttrENtNtCs6IAuOt8vWmF_3syn5error5ErrorENtNtNtB7_3ops9try_trait3Try6branchB1l_, symObjAddr: 0x1484, symBinAddr: 0x4131C, symSize: 0x94 }
  - { offset: 0x63B6A, size: 0x8, addend: 0x0, symName: __RNvXso_NtCsfvfooZQ3Axs_4core6resultINtB5_6ResultINtNtCse1nGBsou5OW_5alloc3vec3VecTNtCs3cP53eQoTwO_11proc_macro211TokenStreamNtB1k_5IdentEENtNtCs6IAuOt8vWmF_3syn5error5ErrorENtNtNtB7_3ops9try_trait3Try6branchCsjOBAykZTw0C_11clap_derive, symObjAddr: 0x1518, symBinAddr: 0x413B0, symSize: 0x94 }
  - { offset: 0x63BE7, size: 0x8, addend: 0x0, symName: __RNvXso_NtCsfvfooZQ3Axs_4core6resultINtB5_6ResultINtNtCse1nGBsou5OW_5alloc3vec3VecTRNtNtCs6IAuOt8vWmF_3syn4data5FieldNtNtCsjOBAykZTw0C_11clap_derive4item4ItemEENtNtB1n_5error5ErrorENtNtNtB7_3ops9try_trait3Try11from_outputB1U_, symObjAddr: 0x15AC, symBinAddr: 0x41444, symSize: 0x18 }
  - { offset: 0x63C27, size: 0x8, addend: 0x0, symName: __RNvXso_NtCsfvfooZQ3Axs_4core6resultINtB5_6ResultINtNtCse1nGBsou5OW_5alloc3vec3VecTRNtNtCs6IAuOt8vWmF_3syn4data5FieldNtNtCsjOBAykZTw0C_11clap_derive4item4ItemEENtNtB1n_5error5ErrorENtNtNtB7_3ops9try_trait3Try6branchB1U_, symObjAddr: 0x15C4, symBinAddr: 0x4145C, symSize: 0x94 }
  - { offset: 0x63CA4, size: 0x8, addend: 0x0, symName: __RNvXso_NtCsfvfooZQ3Axs_4core6resultINtB5_6ResultINtNtCse1nGBsou5OW_5alloc3vec3VecTRNtNtCs6IAuOt8vWmF_3syn4data7VariantNtNtCsjOBAykZTw0C_11clap_derive4item4ItemEENtNtB1n_5error5ErrorENtNtNtB7_3ops9try_trait3Try11from_outputB1W_, symObjAddr: 0x1658, symBinAddr: 0x414F0, symSize: 0x18 }
  - { offset: 0x63CE4, size: 0x8, addend: 0x0, symName: __RNvXso_NtCsfvfooZQ3Axs_4core6resultINtB5_6ResultINtNtCse1nGBsou5OW_5alloc3vec3VecTRNtNtCs6IAuOt8vWmF_3syn4data7VariantNtNtCsjOBAykZTw0C_11clap_derive4item4ItemEENtNtB1n_5error5ErrorENtNtNtB7_3ops9try_trait3Try6branchB1W_, symObjAddr: 0x1670, symBinAddr: 0x41508, symSize: 0x94 }
  - { offset: 0x63D61, size: 0x8, addend: 0x0, symName: __RNvXso_NtCsfvfooZQ3Axs_4core6resultINtB5_6ResultINtNtNtCsjOBAykZTw0C_11clap_derive5utils7spanned2SpNtNtBR_4item11CasingStyleENtNtCs6IAuOt8vWmF_3syn5error5ErrorENtNtNtB7_3ops9try_trait3Try6branchBR_, symObjAddr: 0x1704, symBinAddr: 0x4159C, symSize: 0x94 }
  - { offset: 0x63DDF, size: 0x8, addend: 0x0, symName: __RNvXso_NtCsfvfooZQ3Axs_4core6resultINtB5_6ResultNtNtCs6IAuOt8vWmF_3syn6derive11DeriveInputNtNtBO_5error5ErrorENtNtNtB7_3ops9try_trait3Try6branchCsjOBAykZTw0C_11clap_derive, symObjAddr: 0x1798, symBinAddr: 0x41630, symSize: 0xB4 }
  - { offset: 0x63E5D, size: 0x8, addend: 0x0, symName: __RNvXso_NtCsfvfooZQ3Axs_4core6resultINtB5_6ResultNtNtCsjOBAykZTw0C_11clap_derive4attr8ClapAttrNtNtCs6IAuOt8vWmF_3syn5error5ErrorENtNtNtB7_3ops9try_trait3Try6branchBO_, symObjAddr: 0x184C, symBinAddr: 0x416E4, symSize: 0xC0 }
  - { offset: 0x63EDB, size: 0x8, addend: 0x0, symName: __RNvXso_NtCsfvfooZQ3Axs_4core6resultINtB5_6ResultNtNtCsjOBAykZTw0C_11clap_derive4item4ItemNtNtCs6IAuOt8vWmF_3syn5error5ErrorENtNtNtB7_3ops9try_trait3Try6branchBO_, symObjAddr: 0x190C, symBinAddr: 0x417A4, symSize: 0xC0 }
  - { offset: 0x63F59, size: 0x8, addend: 0x0, symName: __RNvXso_NtCsfvfooZQ3Axs_4core6resultINtB5_6ResultRNtNtCs6IAuOt8vWmF_3syn2ty4TypeNtNtBP_5error5ErrorENtNtNtB7_3ops9try_trait3Try6branchCsjOBAykZTw0C_11clap_derive, symObjAddr: 0x19CC, symBinAddr: 0x41864, symSize: 0x88 }
  - { offset: 0x63FD7, size: 0x8, addend: 0x0, symName: __RNvXso_NtCsfvfooZQ3Axs_4core6resultINtB5_6ResultRNtNtCs6IAuOt8vWmF_3syn3lit6LitStrNtNtBP_5error5ErrorENtNtNtB7_3ops9try_trait3Try6branchCsjOBAykZTw0C_11clap_derive, symObjAddr: 0x1A54, symBinAddr: 0x418EC, symSize: 0x88 }
  - { offset: 0x64055, size: 0x8, addend: 0x0, symName: __RNvXso_NtCsfvfooZQ3Axs_4core6resultINtB5_6ResultRNtNtCsjOBAykZTw0C_11clap_derive4attr9AttrValueNtNtCs6IAuOt8vWmF_3syn5error5ErrorENtNtNtB7_3ops9try_trait3Try6branchBP_, symObjAddr: 0x1ADC, symBinAddr: 0x41974, symSize: 0x88 }
  - { offset: 0x640D3, size: 0x8, addend: 0x0, symName: __RNvXso_NtCsfvfooZQ3Axs_4core6resultINtB5_6ResultTRNtNtCs6IAuOt8vWmF_3syn4data5FieldNtNtCsjOBAykZTw0C_11clap_derive4item4ItemENtNtBQ_5error5ErrorENtNtNtB7_3ops9try_trait3Try6branchB1n_, symObjAddr: 0x1B64, symBinAddr: 0x419FC, symSize: 0xB4 }
  - { offset: 0x64151, size: 0x8, addend: 0x0, symName: __RNvXso_NtCsfvfooZQ3Axs_4core6resultINtB5_6ResultTRNtNtCs6IAuOt8vWmF_3syn4data7VariantNtNtCsjOBAykZTw0C_11clap_derive4item4ItemENtNtBQ_5error5ErrorENtNtNtB7_3ops9try_trait3Try6branchB1p_, symObjAddr: 0x1C18, symBinAddr: 0x41AB0, symSize: 0xB4 }
  - { offset: 0x68035, size: 0x8, addend: 0x0, symName: __RNvNtNtCsfvfooZQ3Axs_4core4char7methods15encode_utf8_rawCsjOBAykZTw0C_11clap_derive, symObjAddr: 0xC40, symBinAddr: 0x40AD8, symSize: 0x228 }
  - { offset: 0x681F6, size: 0x8, addend: 0x0, symName: __RNvNtNtNtCsfvfooZQ3Axs_4core7unicode12unicode_data11white_space6lookupCsjOBAykZTw0C_11clap_derive, symObjAddr: 0xE68, symBinAddr: 0x40D00, symSize: 0x14C }
  - { offset: 0x68A14, size: 0x8, addend: 0x0, symName: __RNvNtCse1nGBsou5OW_5alloc5alloc12alloc_zeroedCsjOBAykZTw0C_11clap_derive, symObjAddr: 0xA94, symBinAddr: 0x4092C, symSize: 0x84 }
  - { offset: 0x68AD8, size: 0x8, addend: 0x0, symName: __RNvXs_NtCse1nGBsou5OW_5alloc5allocNtB4_6GlobalNtNtCsfvfooZQ3Axs_4core5alloc9Allocator10deallocateCsjOBAykZTw0C_11clap_derive, symObjAddr: 0x11F8, symBinAddr: 0x41090, symSize: 0x88 }
  - { offset: 0x68BB4, size: 0x8, addend: 0x0, symName: __RNvNtCse1nGBsou5OW_5alloc5alloc15exchange_mallocCsjOBAykZTw0C_11clap_derive, symObjAddr: 0xB18, symBinAddr: 0x409B0, symSize: 0xA4 }
  - { offset: 0x68C4B, size: 0x8, addend: 0x0, symName: __RNvNtCse1nGBsou5OW_5alloc5alloc5allocCsjOBAykZTw0C_11clap_derive, symObjAddr: 0xBBC, symBinAddr: 0x40A54, symSize: 0x84 }
  - { offset: 0x68CE7, size: 0x8, addend: 0x0, symName: __RNvXs1_NtCse1nGBsou5OW_5alloc5allocNtB5_6GlobalNtNtCsfvfooZQ3Axs_4core5clone5Clone5cloneCsjOBAykZTw0C_11clap_derive, symObjAddr: 0xFB4, symBinAddr: 0x40E4C, symSize: 0x10 }
  - { offset: 0x6E60E, size: 0x8, addend: 0x0, symName: __RINvMNtCsfvfooZQ3Axs_4core6resultINtB3_6ResultNtCs3cP53eQoTwO_11proc_macro211TokenStreamNtNtCs6IAuOt8vWmF_3syn5error5ErrorE14unwrap_or_elseNCNvCsjOBAykZTw0C_11clap_derive10subcommand0EB2h_, symObjAddr: 0x0, symBinAddr: 0x3FE98, symSize: 0xA8 }
  - { offset: 0x6E699, size: 0x8, addend: 0x0, symName: __RINvMNtCsfvfooZQ3Axs_4core6resultINtB3_6ResultNtCs3cP53eQoTwO_11proc_macro211TokenStreamNtNtCs6IAuOt8vWmF_3syn5error5ErrorE14unwrap_or_elseNCNvCsjOBAykZTw0C_11clap_derive10value_enum0EB2h_, symObjAddr: 0xA8, symBinAddr: 0x3FF40, symSize: 0xA8 }
  - { offset: 0x6E724, size: 0x8, addend: 0x0, symName: __RINvMNtCsfvfooZQ3Axs_4core6resultINtB3_6ResultNtCs3cP53eQoTwO_11proc_macro211TokenStreamNtNtCs6IAuOt8vWmF_3syn5error5ErrorE14unwrap_or_elseNCNvCsjOBAykZTw0C_11clap_derive4args0EB2h_, symObjAddr: 0x150, symBinAddr: 0x3FFE8, symSize: 0xA8 }
  - { offset: 0x6EC85, size: 0x8, addend: 0x0, symName: __RINvMNtCsfvfooZQ3Axs_4core6resultINtB3_6ResultNtCs3cP53eQoTwO_11proc_macro211TokenStreamNtNtCs6IAuOt8vWmF_3syn5error5ErrorE14unwrap_or_elseNCNvCsjOBAykZTw0C_11clap_derive6parser0EB2h_, symObjAddr: 0x1F8, symBinAddr: 0x40090, symSize: 0xB4 }
  - { offset: 0x6EFD2, size: 0x8, addend: 0x0, symName: __RNvMNtCse1nGBsou5OW_5alloc5allocNtB2_6Global10alloc_implCsjOBAykZTw0C_11clap_derive, symObjAddr: 0x87C, symBinAddr: 0x40714, symSize: 0x194 }
  - { offset: 0x6F2DF, size: 0x8, addend: 0x0, symName: __RNvMNtCsfvfooZQ3Axs_4core6resultINtB2_6ResultNtNtCse1nGBsou5OW_5alloc6string6StringNtNtCscOYdFFY2T5N_3std3env8VarErrorE2okCsjOBAykZTw0C_11clap_derive, symObjAddr: 0xA10, symBinAddr: 0x408A8, symSize: 0x84 }
  - { offset: 0x6F455, size: 0x8, addend: 0x0, symName: __RNvYNtNtCs6IAuOt8vWmF_3syn3lit6LitStrNtNtCs2cqEZUIJimJ_5quote9to_tokens8ToTokens15to_token_streamCsjOBAykZTw0C_11clap_derive, symObjAddr: 0x1F94, symBinAddr: 0x41E2C, symSize: 0x8C }
  - { offset: 0x6F49F, size: 0x8, addend: 0x0, symName: __RNvYNtNtCs6IAuOt8vWmF_3syn5token2EqNtNtCs2cqEZUIJimJ_5quote9to_tokens8ToTokens15to_token_streamCsjOBAykZTw0C_11clap_derive, symObjAddr: 0x2020, symBinAddr: 0x41EB8, symSize: 0x8C }
  - { offset: 0x6F67F, size: 0x8, addend: 0x0, symName: __RINvCs6IAuOt8vWmF_3syn5parseNtNtB2_6derive11DeriveInputECsjOBAykZTw0C_11clap_derive, symObjAddr: 0x0, symBinAddr: 0x445B0, symSize: 0x30 }
  - { offset: 0x6FB39, size: 0x8, addend: 0x0, symName: __RNCNCNvXsx_NtCs6IAuOt8vWmF_3syn10punctuatedINtB9_11PrivateIterNtNtBb_4data7VariantNtNtBb_5token5CommaENtNtNtNtCsfvfooZQ3Axs_4core4iter6traits12double_ended19DoubleEndedIterator9next_back00CsjOBAykZTw0C_11clap_derive, symObjAddr: 0xE8C, symBinAddr: 0x4543C, symSize: 0x24 }
  - { offset: 0x6FB84, size: 0x8, addend: 0x0, symName: __RNCNCNvXsx_NtCs6IAuOt8vWmF_3syn10punctuatedINtB9_11PrivateIterNtNtBb_4path15GenericArgumentNtNtBb_5token5CommaENtNtNtNtCsfvfooZQ3Axs_4core4iter6traits12double_ended19DoubleEndedIterator9next_back00CsjOBAykZTw0C_11clap_derive, symObjAddr: 0xEB0, symBinAddr: 0x45460, symSize: 0x24 }
  - { offset: 0x6FBDE, size: 0x8, addend: 0x0, symName: __RNCNvXsx_NtCs6IAuOt8vWmF_3syn10punctuatedINtB7_11PrivateIterNtNtB9_4data7VariantNtNtB9_5token5CommaENtNtNtNtCsfvfooZQ3Axs_4core4iter6traits12double_ended19DoubleEndedIterator9next_back0CsjOBAykZTw0C_11clap_derive, symObjAddr: 0x113C, symBinAddr: 0x456EC, symSize: 0x38 }
  - { offset: 0x6FC20, size: 0x8, addend: 0x0, symName: __RNCNvXsx_NtCs6IAuOt8vWmF_3syn10punctuatedINtB7_11PrivateIterNtNtB9_4path15GenericArgumentNtNtB9_5token5CommaENtNtNtNtCsfvfooZQ3Axs_4core4iter6traits12double_ended19DoubleEndedIterator9next_back0CsjOBAykZTw0C_11clap_derive, symObjAddr: 0x1174, symBinAddr: 0x45724, symSize: 0x38 }
  - { offset: 0x6FC63, size: 0x8, addend: 0x0, symName: __RNvXsx_NtCs6IAuOt8vWmF_3syn10punctuatedINtB5_11PrivateIterNtNtB7_4data7VariantNtNtB7_5token5CommaENtNtNtNtCsfvfooZQ3Axs_4core4iter6traits12double_ended19DoubleEndedIterator9next_backCsjOBAykZTw0C_11clap_derive, symObjAddr: 0x2B4C, symBinAddr: 0x470FC, symSize: 0x40 }
  - { offset: 0x6FCA3, size: 0x8, addend: 0x0, symName: __RNvXsx_NtCs6IAuOt8vWmF_3syn10punctuatedINtB5_11PrivateIterNtNtB7_4path15GenericArgumentNtNtB7_5token5CommaENtNtNtNtCsfvfooZQ3Axs_4core4iter6traits12double_ended19DoubleEndedIterator9next_backCsjOBAykZTw0C_11clap_derive, symObjAddr: 0x2B8C, symBinAddr: 0x4713C, symSize: 0x40 }
  - { offset: 0x6FCEE, size: 0x8, addend: 0x0, symName: __RNCNvXs8_NtCs6IAuOt8vWmF_3syn10punctuatedINtB7_10PunctuatedNtNtB9_4expr4ExprNtNtB9_5token5CommaENtNtNtNtCsfvfooZQ3Axs_4core4iter6traits7collect12IntoIterator9into_iter0CsjOBAykZTw0C_11clap_derive, symObjAddr: 0xED4, symBinAddr: 0x45484, symSize: 0x44 }
  - { offset: 0x6FD3A, size: 0x8, addend: 0x0, symName: __RNCNvXs8_NtCs6IAuOt8vWmF_3syn10punctuatedINtB7_10PunctuatedNtNtB9_4expr4ExprNtNtB9_5token5CommaENtNtNtNtCsfvfooZQ3Axs_4core4iter6traits7collect12IntoIterator9into_iters_0CsjOBAykZTw0C_11clap_derive, symObjAddr: 0xF18, symBinAddr: 0x454C8, symSize: 0x98 }
  - { offset: 0x6FD85, size: 0x8, addend: 0x0, symName: __RNCNvXs8_NtCs6IAuOt8vWmF_3syn10punctuatedINtB7_10PunctuatedNtNtCsjOBAykZTw0C_11clap_derive4attr8ClapAttrNtNtB9_5token5CommaENtNtNtNtCsfvfooZQ3Axs_4core4iter6traits7collect12IntoIterator9into_iter0BZ_, symObjAddr: 0xFB0, symBinAddr: 0x45560, symSize: 0x44 }
  - { offset: 0x6FDD1, size: 0x8, addend: 0x0, symName: __RNCNvXs8_NtCs6IAuOt8vWmF_3syn10punctuatedINtB7_10PunctuatedNtNtCsjOBAykZTw0C_11clap_derive4attr8ClapAttrNtNtB9_5token5CommaENtNtNtNtCsfvfooZQ3Axs_4core4iter6traits7collect12IntoIterator9into_iters_0BZ_, symObjAddr: 0xFF4, symBinAddr: 0x455A4, symSize: 0x98 }
  - { offset: 0x6FE39, size: 0x8, addend: 0x0, symName: __RNvXs8_NtCs6IAuOt8vWmF_3syn10punctuatedINtB5_10PunctuatedNtNtB7_4expr4ExprNtNtB7_5token5CommaENtNtNtNtCsfvfooZQ3Axs_4core4iter6traits7collect12IntoIterator9into_iterCsjOBAykZTw0C_11clap_derive, symObjAddr: 0x1DD8, symBinAddr: 0x46388, symSize: 0x1C0 }
  - { offset: 0x6FE90, size: 0x8, addend: 0x0, symName: __RNvXs8_NtCs6IAuOt8vWmF_3syn10punctuatedINtB5_10PunctuatedNtNtCsjOBAykZTw0C_11clap_derive4attr8ClapAttrNtNtB7_5token5CommaENtNtNtNtCsfvfooZQ3Axs_4core4iter6traits7collect12IntoIterator9into_iterBX_, symObjAddr: 0x1F98, symBinAddr: 0x46548, symSize: 0x1C0 }
  - { offset: 0x6FEF2, size: 0x8, addend: 0x0, symName: __RNCNvXsw_NtCs6IAuOt8vWmF_3syn10punctuatedINtB7_11PrivateIterNtNtB9_4data7VariantNtNtB9_5token5CommaENtNtNtNtCsfvfooZQ3Axs_4core4iter6traits8iterator8Iterator4next0CsjOBAykZTw0C_11clap_derive, symObjAddr: 0x108C, symBinAddr: 0x4563C, symSize: 0x24 }
  - { offset: 0x6FF3D, size: 0x8, addend: 0x0, symName: __RNCNvXsw_NtCs6IAuOt8vWmF_3syn10punctuatedINtB7_11PrivateIterNtNtB9_4data7VariantNtNtB9_5token5CommaENtNtNtNtCsfvfooZQ3Axs_4core4iter6traits8iterator8Iterator4nexts_0CsjOBAykZTw0C_11clap_derive, symObjAddr: 0x10B0, symBinAddr: 0x45660, symSize: 0x34 }
  - { offset: 0x6FF7F, size: 0x8, addend: 0x0, symName: __RNCNvXsw_NtCs6IAuOt8vWmF_3syn10punctuatedINtB7_11PrivateIterNtNtB9_4path15GenericArgumentNtNtB9_5token5CommaENtNtNtNtCsfvfooZQ3Axs_4core4iter6traits8iterator8Iterator4next0CsjOBAykZTw0C_11clap_derive, symObjAddr: 0x10E4, symBinAddr: 0x45694, symSize: 0x24 }
  - { offset: 0x6FFCA, size: 0x8, addend: 0x0, symName: __RNCNvXsw_NtCs6IAuOt8vWmF_3syn10punctuatedINtB7_11PrivateIterNtNtB9_4path15GenericArgumentNtNtB9_5token5CommaENtNtNtNtCsfvfooZQ3Axs_4core4iter6traits8iterator8Iterator4nexts_0CsjOBAykZTw0C_11clap_derive, symObjAddr: 0x1108, symBinAddr: 0x456B8, symSize: 0x34 }
  - { offset: 0x7001B, size: 0x8, addend: 0x0, symName: __RNvXsw_NtCs6IAuOt8vWmF_3syn10punctuatedINtB5_11PrivateIterNtNtB7_4data7VariantNtNtB7_5token5CommaENtNtNtNtCsfvfooZQ3Axs_4core4iter6traits8iterator8Iterator4nextCsjOBAykZTw0C_11clap_derive, symObjAddr: 0x2AC4, symBinAddr: 0x47074, symSize: 0x44 }
  - { offset: 0x7005B, size: 0x8, addend: 0x0, symName: __RNvXsw_NtCs6IAuOt8vWmF_3syn10punctuatedINtB5_11PrivateIterNtNtB7_4path15GenericArgumentNtNtB7_5token5CommaENtNtNtNtCsfvfooZQ3Axs_4core4iter6traits8iterator8Iterator4nextCsjOBAykZTw0C_11clap_derive, symObjAddr: 0x2B08, symBinAddr: 0x470B8, symSize: 0x44 }
  - { offset: 0x70207, size: 0x8, addend: 0x0, symName: __RNvXs9_NtCs6IAuOt8vWmF_3syn10punctuatedRINtB5_10PunctuatedNtNtB7_4data7VariantNtNtB7_5token5CommaENtNtNtNtCsfvfooZQ3Axs_4core4iter6traits7collect12IntoIterator9into_iterCsjOBAykZTw0C_11clap_derive, symObjAddr: 0x2158, symBinAddr: 0x46708, symSize: 0x34 }
  - { offset: 0x7024D, size: 0x8, addend: 0x0, symName: __RNvXsA_NtCs6IAuOt8vWmF_3syn10punctuatedINtB5_11PrivateIterNtNtB7_4data7VariantNtNtB7_5token5CommaEINtB5_9IterTraitBU_E9clone_boxCsjOBAykZTw0C_11clap_derive, symObjAddr: 0x218C, symBinAddr: 0x4673C, symSize: 0x94 }
  - { offset: 0x702AB, size: 0x8, addend: 0x0, symName: __RNvXsA_NtCs6IAuOt8vWmF_3syn10punctuatedINtB5_11PrivateIterNtNtB7_4path15GenericArgumentNtNtB7_5token5CommaEINtB5_9IterTraitBU_E9clone_boxCsjOBAykZTw0C_11clap_derive, symObjAddr: 0x2220, symBinAddr: 0x467D0, symSize: 0x94 }
  - { offset: 0x7030F, size: 0x8, addend: 0x0, symName: __RNvXsN_NtCs6IAuOt8vWmF_3syn10punctuatedINtB5_10PunctuatedNtNtB7_4data5FieldNtNtB7_5token5CommaEINtNtNtCsfvfooZQ3Axs_4core3ops5index5IndexjE5indexCsjOBAykZTw0C_11clap_derive, symObjAddr: 0x22B4, symBinAddr: 0x46864, symSize: 0x134 }
  - { offset: 0x7037A, size: 0x8, addend: 0x0, symName: __RNvXsn_NtCs6IAuOt8vWmF_3syn10punctuatedINtB5_8IntoIterNtNtB7_4expr4ExprENtNtNtNtCsfvfooZQ3Axs_4core4iter6traits8iterator8Iterator4nextCsjOBAykZTw0C_11clap_derive, symObjAddr: 0x2794, symBinAddr: 0x46D44, symSize: 0x34 }
  - { offset: 0x703B1, size: 0x8, addend: 0x0, symName: __RNvXsn_NtCs6IAuOt8vWmF_3syn10punctuatedINtB5_8IntoIterNtNtB7_4expr4ExprENtNtNtNtCsfvfooZQ3Axs_4core4iter6traits8iterator8Iterator9size_hintCsjOBAykZTw0C_11clap_derive, symObjAddr: 0x27C8, symBinAddr: 0x46D78, symSize: 0x7C }
  - { offset: 0x703E8, size: 0x8, addend: 0x0, symName: __RNvXsn_NtCs6IAuOt8vWmF_3syn10punctuatedINtB5_8IntoIterNtNtCsjOBAykZTw0C_11clap_derive4attr8ClapAttrENtNtNtNtCsfvfooZQ3Axs_4core4iter6traits8iterator8Iterator4nextBU_, symObjAddr: 0x2844, symBinAddr: 0x46DF4, symSize: 0x34 }
  - { offset: 0x70425, size: 0x8, addend: 0x0, symName: __RNvXsp_NtCs6IAuOt8vWmF_3syn10punctuatedINtB5_8IntoIterNtNtB7_4expr4ExprENtNtNtNtCsfvfooZQ3Axs_4core4iter6traits10exact_size17ExactSizeIterator3lenCsjOBAykZTw0C_11clap_derive, symObjAddr: 0x2878, symBinAddr: 0x46E28, symSize: 0x34 }
  - { offset: 0x70462, size: 0x8, addend: 0x0, symName: __RNvXst_NtCs6IAuOt8vWmF_3syn10punctuatedINtB5_4IterNtNtB7_4data5FieldENtNtNtNtCsfvfooZQ3Axs_4core4iter6traits8iterator8Iterator9size_hintCsjOBAykZTw0C_11clap_derive, symObjAddr: 0x28AC, symBinAddr: 0x46E5C, symSize: 0x7C }
  - { offset: 0x70499, size: 0x8, addend: 0x0, symName: __RNvXst_NtCs6IAuOt8vWmF_3syn10punctuatedINtB5_4IterNtNtB7_4data7VariantENtNtNtNtCsfvfooZQ3Axs_4core4iter6traits8iterator8Iterator4nextCsjOBAykZTw0C_11clap_derive, symObjAddr: 0x2928, symBinAddr: 0x46ED8, symSize: 0x48 }
  - { offset: 0x704D0, size: 0x8, addend: 0x0, symName: __RNvXst_NtCs6IAuOt8vWmF_3syn10punctuatedINtB5_4IterNtNtB7_4data7VariantENtNtNtNtCsfvfooZQ3Axs_4core4iter6traits8iterator8Iterator9size_hintCsjOBAykZTw0C_11clap_derive, symObjAddr: 0x2970, symBinAddr: 0x46F20, symSize: 0x7C }
  - { offset: 0x70507, size: 0x8, addend: 0x0, symName: __RNvXst_NtCs6IAuOt8vWmF_3syn10punctuatedINtB5_4IterNtNtB7_4path15GenericArgumentENtNtNtNtCsfvfooZQ3Axs_4core4iter6traits8iterator8Iterator4nextCsjOBAykZTw0C_11clap_derive, symObjAddr: 0x29EC, symBinAddr: 0x46F9C, symSize: 0x48 }
  - { offset: 0x70544, size: 0x8, addend: 0x0, symName: __RNvXsv_NtCs6IAuOt8vWmF_3syn10punctuatedINtB5_4IterNtNtB7_4data5FieldENtNtNtNtCsfvfooZQ3Axs_4core4iter6traits10exact_size17ExactSizeIterator3lenCsjOBAykZTw0C_11clap_derive, symObjAddr: 0x2A34, symBinAddr: 0x46FE4, symSize: 0x48 }
  - { offset: 0x7057B, size: 0x8, addend: 0x0, symName: __RNvXsv_NtCs6IAuOt8vWmF_3syn10punctuatedINtB5_4IterNtNtB7_4data7VariantENtNtNtNtCsfvfooZQ3Axs_4core4iter6traits10exact_size17ExactSizeIterator3lenCsjOBAykZTw0C_11clap_derive, symObjAddr: 0x2A7C, symBinAddr: 0x4702C, symSize: 0x48 }
  - { offset: 0x705B8, size: 0x8, addend: 0x0, symName: __RNvXsy_NtCs6IAuOt8vWmF_3syn10punctuatedINtB5_11PrivateIterNtNtB7_4data7VariantNtNtB7_5token5CommaENtNtNtNtCsfvfooZQ3Axs_4core4iter6traits10exact_size17ExactSizeIterator3lenCsjOBAykZTw0C_11clap_derive, symObjAddr: 0x2BCC, symBinAddr: 0x4717C, symSize: 0x94 }
  - { offset: 0x7062C, size: 0x8, addend: 0x0, symName: __RNvXsy_NtCs6IAuOt8vWmF_3syn10punctuatedINtB5_11PrivateIterNtNtB7_4path15GenericArgumentNtNtB7_5token5CommaENtNtNtNtCsfvfooZQ3Axs_4core4iter6traits10exact_size17ExactSizeIterator3lenCsjOBAykZTw0C_11clap_derive, symObjAddr: 0x2C60, symBinAddr: 0x47210, symSize: 0x94 }
  - { offset: 0x706A6, size: 0x8, addend: 0x0, symName: __RNvXsz_NtCs6IAuOt8vWmF_3syn10punctuatedINtB5_11PrivateIterNtNtB7_4data7VariantNtNtB7_5token5CommaENtNtCsfvfooZQ3Axs_4core5clone5Clone5cloneCsjOBAykZTw0C_11clap_derive, symObjAddr: 0x2CF4, symBinAddr: 0x472A4, symSize: 0x68 }
  - { offset: 0x706E6, size: 0x8, addend: 0x0, symName: __RNvXsz_NtCs6IAuOt8vWmF_3syn10punctuatedINtB5_11PrivateIterNtNtB7_4path15GenericArgumentNtNtB7_5token5CommaENtNtCsfvfooZQ3Axs_4core5clone5Clone5cloneCsjOBAykZTw0C_11clap_derive, symObjAddr: 0x2D5C, symBinAddr: 0x4730C, symSize: 0x68 }
  - { offset: 0x74FFF, size: 0x8, addend: 0x0, symName: __RINvCs6IAuOt8vWmF_3syn5parseNtNtB2_6derive11DeriveInputECsjOBAykZTw0C_11clap_derive, symObjAddr: 0x0, symBinAddr: 0x445B0, symSize: 0x30 }
  - { offset: 0x7523E, size: 0x8, addend: 0x0, symName: __RNvXsh_NtCs6IAuOt8vWmF_3syn5parseNvMNtB7_10punctuatedINtBy_10PunctuatedNtNtCsjOBAykZTw0C_11clap_derive4attr8ClapAttrNtNtB7_5token5CommaE16parse_terminatedNtB5_6Parser14___parse_scopedB1b_, symObjAddr: 0x23E8, symBinAddr: 0x46998, symSize: 0x3AC }
  - { offset: 0x754BB, size: 0x8, addend: 0x0, symName: __RNvXNtCs6IAuOt8vWmF_3syn7spannedNtNtB4_4path4PathNtB2_7Spanned4spanCsjOBAykZTw0C_11clap_derive, symObjAddr: 0x1D30, symBinAddr: 0x462E0, symSize: 0x34 }
  - { offset: 0x76813, size: 0x8, addend: 0x0, symName: __RINvXNtNtCse1nGBsou5OW_5alloc5slice4hackNtNtCs6IAuOt8vWmF_3syn4expr4ExprNtB3_10ConvertVec6to_vecNtNtB7_5alloc6GlobalECsjOBAykZTw0C_11clap_derive, symObjAddr: 0x398, symBinAddr: 0x44948, symSize: 0x36C }
  - { offset: 0x779C4, size: 0x8, addend: 0x0, symName: __RNvMs9_NtCsfvfooZQ3Axs_4core3numj11checked_addCsjOBAykZTw0C_11clap_derive, symObjAddr: 0x1BEC, symBinAddr: 0x4619C, symSize: 0x74 }
  - { offset: 0x77A4E, size: 0x8, addend: 0x0, symName: __RNvNvMs9_NtCsfvfooZQ3Axs_4core3numj13unchecked_add18precondition_checkCsjOBAykZTw0C_11clap_derive, symObjAddr: 0x1CAC, symBinAddr: 0x4625C, symSize: 0x44 }
  - { offset: 0x77AD4, size: 0x8, addend: 0x0, symName: __RNvNvMs3_NtCsfvfooZQ3Axs_4core3numi13unchecked_neg18precondition_checkCsjOBAykZTw0C_11clap_derive, symObjAddr: 0x1C60, symBinAddr: 0x46210, symSize: 0x4C }
  - { offset: 0x7A7DC, size: 0x8, addend: 0x0, symName: __RNvMNtCsfvfooZQ3Axs_4core5sliceSNtNtCs6IAuOt8vWmF_3syn4expr4Expr4iterCsjOBAykZTw0C_11clap_derive, symObjAddr: 0x1BC4, symBinAddr: 0x46174, symSize: 0x28 }
  - { offset: 0x7B02F, size: 0x8, addend: 0x0, symName: __RINvYINtNtCs6IAuOt8vWmF_3syn10punctuated4IterNtNtB8_4data5FieldENtNtNtNtCsfvfooZQ3Axs_4core4iter6traits8iterator8Iterator3mapINtNtB18_6result6ResultTRBH_NtNtCsjOBAykZTw0C_11clap_derive4item4ItemENtNtB8_5error5ErrorENCNvNtNtB2v_7derives4args11derive_args0EB2v_, symObjAddr: 0x704, symBinAddr: 0x44CB4, symSize: 0x30 }
  - { offset: 0x7B09C, size: 0x8, addend: 0x0, symName: __RINvYINtNtCs6IAuOt8vWmF_3syn10punctuated4IterNtNtB8_4data5FieldENtNtNtNtCsfvfooZQ3Axs_4core4iter6traits8iterator8Iterator3mapINtNtB18_6result6ResultTRBH_NtNtCsjOBAykZTw0C_11clap_derive4item4ItemENtNtB8_5error5ErrorENCNvNtNtB2v_7derives4args19collect_args_fields0EB2v_, symObjAddr: 0x734, symBinAddr: 0x44CE4, symSize: 0x30 }
  - { offset: 0x7B109, size: 0x8, addend: 0x0, symName: __RINvYINtNtCs6IAuOt8vWmF_3syn10punctuated4IterNtNtB8_4data5FieldENtNtNtNtCsfvfooZQ3Axs_4core4iter6traits8iterator8Iterator3mapINtNtB18_6result6ResultTRBH_NtNtCsjOBAykZTw0C_11clap_derive4item4ItemENtNtB8_5error5ErrorENCNvNtNtB2v_7derives6parser13derive_parser0EB2v_, symObjAddr: 0x764, symBinAddr: 0x44D14, symSize: 0x30 }
  - { offset: 0x7B176, size: 0x8, addend: 0x0, symName: __RINvYINtNtCs6IAuOt8vWmF_3syn10punctuated4IterNtNtB8_4data5FieldENtNtNtNtCsfvfooZQ3Axs_4core4iter6traits8iterator8Iterator3mapRNtCs3cP53eQoTwO_11proc_macro25IdentNCNCNvNtNtCsjOBAykZTw0C_11clap_derive7derives10subcommand27gen_update_from_arg_matchess0_00EB2J_, symObjAddr: 0x794, symBinAddr: 0x44D44, symSize: 0x1C }
  - { offset: 0x7B1CE, size: 0x8, addend: 0x0, symName: __RINvYINtNtCs6IAuOt8vWmF_3syn10punctuated4IterNtNtB8_4data5FieldENtNtNtNtCsfvfooZQ3Axs_4core4iter6traits8iterator8Iterator8try_folduNCINvNtNtB16_8adapters3map12map_try_foldRBH_INtNtB18_6result6ResultTB2J_NtNtCsjOBAykZTw0C_11clap_derive4item4ItemENtNtB8_5error5ErrorEuINtNtNtB18_3ops12control_flow11ControlFlowIB4h_B3a_EENCNvNtNtB3j_7derives4args11derive_args0NCINvXB2c_INtB2c_12GenericShuntINtB2a_3MapB3_B57_EIB2O_NtNtB18_7convert10InfallibleB3V_EEB10_8try_folduNCINvNvB10_12try_for_each4callB3a_B4W_NcNtB4W_5Break0E0B4W_E0E0B4g_EB3j_, symObjAddr: 0x7B0, symBinAddr: 0x44D60, symSize: 0x14C }
  - { offset: 0x7B28A, size: 0x8, addend: 0x0, symName: __RINvYINtNtCs6IAuOt8vWmF_3syn10punctuated4IterNtNtB8_4data5FieldENtNtNtNtCsfvfooZQ3Axs_4core4iter6traits8iterator8Iterator8try_folduNCINvNtNtB16_8adapters3map12map_try_foldRBH_INtNtB18_6result6ResultTB2J_NtNtCsjOBAykZTw0C_11clap_derive4item4ItemENtNtB8_5error5ErrorEuINtNtNtB18_3ops12control_flow11ControlFlowIB4h_B3a_EENCNvNtNtB3j_7derives4args19collect_args_fields0NCINvXB2c_INtB2c_12GenericShuntINtB2a_3MapB3_B57_EIB2O_NtNtB18_7convert10InfallibleB3V_EEB10_8try_folduNCINvNvB10_12try_for_each4callB3a_B4W_NcNtB4W_5Break0E0B4W_E0E0B4g_EB3j_, symObjAddr: 0x8FC, symBinAddr: 0x44EAC, symSize: 0x14C }
  - { offset: 0x7B346, size: 0x8, addend: 0x0, symName: __RINvYINtNtCs6IAuOt8vWmF_3syn10punctuated4IterNtNtB8_4data5FieldENtNtNtNtCsfvfooZQ3Axs_4core4iter6traits8iterator8Iterator8try_folduNCINvNtNtB16_8adapters3map12map_try_foldRBH_INtNtB18_6result6ResultTB2J_NtNtCsjOBAykZTw0C_11clap_derive4item4ItemENtNtB8_5error5ErrorEuINtNtNtB18_3ops12control_flow11ControlFlowIB4h_B3a_EENCNvNtNtB3j_7derives6parser13derive_parser0NCINvXB2c_INtB2c_12GenericShuntINtB2a_3MapB3_B57_EIB2O_NtNtB18_7convert10InfallibleB3V_EEB10_8try_folduNCINvNvB10_12try_for_each4callB3a_B4W_NcNtB4W_5Break0E0B4W_E0E0B4g_EB3j_, symObjAddr: 0xA48, symBinAddr: 0x44FF8, symSize: 0x14C }
  - { offset: 0x7B402, size: 0x8, addend: 0x0, symName: __RINvYINtNtCs6IAuOt8vWmF_3syn10punctuated4IterNtNtB8_4data7VariantENtNtNtNtCsfvfooZQ3Axs_4core4iter6traits8iterator8Iterator3mapINtNtB1a_6result6ResultTRBH_NtNtCsjOBAykZTw0C_11clap_derive4item4ItemENtNtB8_5error5ErrorENCNvNtNtB2x_7derives10subcommand17derive_subcommand0EB2x_, symObjAddr: 0xB94, symBinAddr: 0x45144, symSize: 0x30 }
  - { offset: 0x7B46F, size: 0x8, addend: 0x0, symName: __RINvYINtNtCs6IAuOt8vWmF_3syn10punctuated4IterNtNtB8_4data7VariantENtNtNtNtCsfvfooZQ3Axs_4core4iter6traits8iterator8Iterator3mapINtNtB1a_6result6ResultTRBH_NtNtCsjOBAykZTw0C_11clap_derive4item4ItemENtNtB8_5error5ErrorENCNvNtNtB2x_7derives6parser13derive_parsers_0EB2x_, symObjAddr: 0xBC4, symBinAddr: 0x45174, symSize: 0x30 }
  - { offset: 0x7B4DC, size: 0x8, addend: 0x0, symName: __RINvYINtNtCs6IAuOt8vWmF_3syn10punctuated4IterNtNtB8_4data7VariantENtNtNtNtCsfvfooZQ3Axs_4core4iter6traits8iterator8Iterator8try_folduNCINvNtNtB18_8adapters3map12map_try_foldRBH_INtNtB1a_6result6ResultTB2L_NtNtCsjOBAykZTw0C_11clap_derive4item4ItemENtNtB8_5error5ErrorEuINtNtNtB1a_3ops12control_flow11ControlFlowIB4j_B3c_EENCNvNtNtB3l_7derives10subcommand17derive_subcommand0NCINvXB2e_INtB2e_12GenericShuntINtB2c_3MapB3_B59_EIB2Q_NtNtB1a_7convert10InfallibleB3X_EEB12_8try_folduNCINvNvB12_12try_for_each4callB3c_B4Y_NcNtB4Y_5Break0E0B4Y_E0E0B4i_EB3l_, symObjAddr: 0xBF4, symBinAddr: 0x451A4, symSize: 0x14C }
  - { offset: 0x7B598, size: 0x8, addend: 0x0, symName: __RINvYINtNtCs6IAuOt8vWmF_3syn10punctuated4IterNtNtB8_4data7VariantENtNtNtNtCsfvfooZQ3Axs_4core4iter6traits8iterator8Iterator8try_folduNCINvNtNtB18_8adapters3map12map_try_foldRBH_INtNtB1a_6result6ResultTB2L_NtNtCsjOBAykZTw0C_11clap_derive4item4ItemENtNtB8_5error5ErrorEuINtNtNtB1a_3ops12control_flow11ControlFlowIB4j_B3c_EENCNvNtNtB3l_7derives6parser13derive_parsers_0NCINvXB2e_INtB2e_12GenericShuntINtB2c_3MapB3_B59_EIB2Q_NtNtB1a_7convert10InfallibleB3X_EEB12_8try_folduNCINvNvB12_12try_for_each4callB3c_B4Y_NcNtB4Y_5Break0E0B4Y_E0E0B4i_EB3l_, symObjAddr: 0xD40, symBinAddr: 0x452F0, symSize: 0x14C }
  - { offset: 0x7B654, size: 0x8, addend: 0x0, symName: __RNvYINtNtCs6IAuOt8vWmF_3syn10punctuated11PrivateIterNtNtB7_4data7VariantNtNtB7_5token5CommaENtNtNtNtCsfvfooZQ3Axs_4core4iter6traits8iterator8Iterator10advance_byCsjOBAykZTw0C_11clap_derive, symObjAddr: 0x2F8C, symBinAddr: 0x4753C, symSize: 0x134 }
  - { offset: 0x7B7AA, size: 0x8, addend: 0x0, symName: __RNvYINtNtCs6IAuOt8vWmF_3syn10punctuated11PrivateIterNtNtB7_4data7VariantNtNtB7_5token5CommaENtNtNtNtCsfvfooZQ3Axs_4core4iter6traits8iterator8Iterator3nthCsjOBAykZTw0C_11clap_derive, symObjAddr: 0x30C0, symBinAddr: 0x47670, symSize: 0x80 }
  - { offset: 0x7B876, size: 0x8, addend: 0x0, symName: __RNvYINtNtCs6IAuOt8vWmF_3syn10punctuated11PrivateIterNtNtB7_4data7VariantNtNtB7_5token5CommaENtNtNtNtCsfvfooZQ3Axs_4core4iter6traits8iterator8Iterator9size_hintCsjOBAykZTw0C_11clap_derive, symObjAddr: 0x3140, symBinAddr: 0x476F0, symSize: 0x34 }
  - { offset: 0x7B8AB, size: 0x8, addend: 0x0, symName: __RNvYINtNtCs6IAuOt8vWmF_3syn10punctuated11PrivateIterNtNtB7_4path15GenericArgumentNtNtB7_5token5CommaENtNtNtNtCsfvfooZQ3Axs_4core4iter6traits8iterator8Iterator10advance_byCsjOBAykZTw0C_11clap_derive, symObjAddr: 0x333C, symBinAddr: 0x478EC, symSize: 0x134 }
  - { offset: 0x7BA01, size: 0x8, addend: 0x0, symName: __RNvYINtNtCs6IAuOt8vWmF_3syn10punctuated11PrivateIterNtNtB7_4path15GenericArgumentNtNtB7_5token5CommaENtNtNtNtCsfvfooZQ3Axs_4core4iter6traits8iterator8Iterator3nthCsjOBAykZTw0C_11clap_derive, symObjAddr: 0x3470, symBinAddr: 0x47A20, symSize: 0x80 }
  - { offset: 0x7BACD, size: 0x8, addend: 0x0, symName: __RNvYINtNtCs6IAuOt8vWmF_3syn10punctuated11PrivateIterNtNtB7_4path15GenericArgumentNtNtB7_5token5CommaENtNtNtNtCsfvfooZQ3Axs_4core4iter6traits8iterator8Iterator9size_hintCsjOBAykZTw0C_11clap_derive, symObjAddr: 0x34F0, symBinAddr: 0x47AA0, symSize: 0x34 }
  - { offset: 0x7BB40, size: 0x8, addend: 0x0, symName: __RNvYINtNtCs6IAuOt8vWmF_3syn10punctuated11PrivateIterNtNtB7_4data7VariantNtNtB7_5token5CommaENtNtNtNtCsfvfooZQ3Axs_4core4iter6traits10exact_size17ExactSizeIterator8is_emptyCsjOBAykZTw0C_11clap_derive, symObjAddr: 0x2DC4, symBinAddr: 0x47374, symSize: 0x2C }
  - { offset: 0x7BB75, size: 0x8, addend: 0x0, symName: __RNvYINtNtCs6IAuOt8vWmF_3syn10punctuated11PrivateIterNtNtB7_4path15GenericArgumentNtNtB7_5token5CommaENtNtNtNtCsfvfooZQ3Axs_4core4iter6traits10exact_size17ExactSizeIterator8is_emptyCsjOBAykZTw0C_11clap_derive, symObjAddr: 0x3174, symBinAddr: 0x47724, symSize: 0x2C }
  - { offset: 0x7BBB6, size: 0x8, addend: 0x0, symName: __RNvYINtNtCs6IAuOt8vWmF_3syn10punctuated11PrivateIterNtNtB7_4data7VariantNtNtB7_5token5CommaENtNtNtNtCsfvfooZQ3Axs_4core4iter6traits12double_ended19DoubleEndedIterator15advance_back_byCsjOBAykZTw0C_11clap_derive, symObjAddr: 0x2DF0, symBinAddr: 0x473A0, symSize: 0x134 }
  - { offset: 0x7BD04, size: 0x8, addend: 0x0, symName: __RNvYINtNtCs6IAuOt8vWmF_3syn10punctuated11PrivateIterNtNtB7_4data7VariantNtNtB7_5token5CommaENtNtNtNtCsfvfooZQ3Axs_4core4iter6traits12double_ended19DoubleEndedIterator8nth_backCsjOBAykZTw0C_11clap_derive, symObjAddr: 0x2F24, symBinAddr: 0x474D4, symSize: 0x68 }
  - { offset: 0x7BD82, size: 0x8, addend: 0x0, symName: __RNvYINtNtCs6IAuOt8vWmF_3syn10punctuated11PrivateIterNtNtB7_4path15GenericArgumentNtNtB7_5token5CommaENtNtNtNtCsfvfooZQ3Axs_4core4iter6traits12double_ended19DoubleEndedIterator15advance_back_byCsjOBAykZTw0C_11clap_derive, symObjAddr: 0x31A0, symBinAddr: 0x47750, symSize: 0x134 }
  - { offset: 0x7BED0, size: 0x8, addend: 0x0, symName: __RNvYINtNtCs6IAuOt8vWmF_3syn10punctuated11PrivateIterNtNtB7_4path15GenericArgumentNtNtB7_5token5CommaENtNtNtNtCsfvfooZQ3Axs_4core4iter6traits12double_ended19DoubleEndedIterator8nth_backCsjOBAykZTw0C_11clap_derive, symObjAddr: 0x32D4, symBinAddr: 0x47884, symSize: 0x68 }
  - { offset: 0x7C59C, size: 0x8, addend: 0x0, symName: __RNvXNtCsfvfooZQ3Axs_4core7convertReINtB2_5AsRefNtNtNtCscOYdFFY2T5N_3std3ffi6os_str5OsStrE6as_refCsjOBAykZTw0C_11clap_derive, symObjAddr: 0x1D64, symBinAddr: 0x46314, symSize: 0x30 }
  - { offset: 0x7CA56, size: 0x8, addend: 0x0, symName: __RNvYNtNtNtCsjOBAykZTw0C_11clap_derive5utils2ty2TyNtNtCsfvfooZQ3Axs_4core3cmp9PartialEq2neB8_, symObjAddr: 0x3524, symBinAddr: 0x47AD4, symSize: 0x30 }
  - { offset: 0x7D488, size: 0x8, addend: 0x0, symName: __RNCNvMNtNtCsjOBAykZTw0C_11clap_derive5utils2tyNtB4_2Ty11from_syn_ty0B8_, symObjAddr: 0x3880, symBinAddr: 0x47E30, symSize: 0x4C }
  - { offset: 0x7D4DA, size: 0x8, addend: 0x0, symName: __RNvNtNtCsjOBAykZTw0C_11clap_derive5utils2ty10inner_type, symObjAddr: 0x3AB8, symBinAddr: 0x48068, symSize: 0x144 }
  - { offset: 0x7D523, size: 0x8, addend: 0x0, symName: __RNvNtNtCsjOBAykZTw0C_11clap_derive5utils2ty8sub_type, symObjAddr: 0x3BFC, symBinAddr: 0x481AC, symSize: 0x34 }
  - { offset: 0x7D554, size: 0x8, addend: 0x0, symName: __RNCNvNtNtCsjOBAykZTw0C_11clap_derive5utils2ty8sub_type0B7_, symObjAddr: 0x3C30, symBinAddr: 0x481E0, symSize: 0x28 }
  - { offset: 0x7D58E, size: 0x8, addend: 0x0, symName: __RNvNtNtCsjOBAykZTw0C_11clap_derive5utils2ty17only_last_segment, symObjAddr: 0x3C58, symBinAddr: 0x48208, symSize: 0x13C }
  - { offset: 0x7D5EC, size: 0x8, addend: 0x0, symName: __RINvNtNtCsjOBAykZTw0C_11clap_derive5utils2ty8subty_ifNCNvB2_13subty_if_name0EB6_, symObjAddr: 0x3D94, symBinAddr: 0x48344, symSize: 0xA4 }
  - { offset: 0x7D62F, size: 0x8, addend: 0x0, symName: __RINvNtNtCsjOBAykZTw0C_11clap_derive5utils2ty8subty_ifNCNvB2_8sub_type0EB6_, symObjAddr: 0x3E38, symBinAddr: 0x483E8, symSize: 0x98 }
  - { offset: 0x7D677, size: 0x8, addend: 0x0, symName: __RNCINvNtNtCsjOBAykZTw0C_11clap_derive5utils2ty8subty_ifNCNvB4_13subty_if_name0E0B8_, symObjAddr: 0x3ED0, symBinAddr: 0x48480, symSize: 0x40 }
  - { offset: 0x7D6BB, size: 0x8, addend: 0x0, symName: __RNCINvNtNtCsjOBAykZTw0C_11clap_derive5utils2ty8subty_ifNCNvB4_8sub_type0E0B8_, symObjAddr: 0x3F10, symBinAddr: 0x484C0, symSize: 0x38 }
  - { offset: 0x7D6FF, size: 0x8, addend: 0x0, symName: __RNCINvNtNtCsjOBAykZTw0C_11clap_derive5utils2ty8subty_ifNCNvB4_13subty_if_name0Es_0B8_, symObjAddr: 0x3F48, symBinAddr: 0x484F8, symSize: 0x9C }
  - { offset: 0x7D75B, size: 0x8, addend: 0x0, symName: __RNCINvNtNtCsjOBAykZTw0C_11clap_derive5utils2ty8subty_ifNCNvB4_8sub_type0Es_0B8_, symObjAddr: 0x3FE4, symBinAddr: 0x48594, symSize: 0x9C }
  - { offset: 0x7D7BC, size: 0x8, addend: 0x0, symName: __RNCNCINvNtNtCsjOBAykZTw0C_11clap_derive5utils2ty8subty_ifNCNvB6_13subty_if_name0Es_00Ba_, symObjAddr: 0x4080, symBinAddr: 0x48630, symSize: 0x80 }
  - { offset: 0x7D818, size: 0x8, addend: 0x0, symName: __RNCNCINvNtNtCsjOBAykZTw0C_11clap_derive5utils2ty8subty_ifNCNvB6_8sub_type0Es_00Ba_, symObjAddr: 0x4100, symBinAddr: 0x486B0, symSize: 0x80 }
  - { offset: 0x7D892, size: 0x8, addend: 0x0, symName: __RNvNtNtCsjOBAykZTw0C_11clap_derive5utils2ty13subty_if_name, symObjAddr: 0x4180, symBinAddr: 0x48730, symSize: 0x44 }
  - { offset: 0x7D8D1, size: 0x8, addend: 0x0, symName: __RNCNvNtNtCsjOBAykZTw0C_11clap_derive5utils2ty13subty_if_name0B7_, symObjAddr: 0x41C4, symBinAddr: 0x48774, symSize: 0x40 }
  - { offset: 0x7D921, size: 0x8, addend: 0x0, symName: __RNvNtNtCsjOBAykZTw0C_11clap_derive5utils2ty12is_simple_ty, symObjAddr: 0x4204, symBinAddr: 0x487B4, symSize: 0x58 }
  - { offset: 0x7D960, size: 0x8, addend: 0x0, symName: __RNCNvNtNtCsjOBAykZTw0C_11clap_derive5utils2ty12is_simple_ty0B7_, symObjAddr: 0x425C, symBinAddr: 0x4880C, symSize: 0x94 }
  - { offset: 0x7D99D, size: 0x8, addend: 0x0, symName: __RNvNtNtCsjOBAykZTw0C_11clap_derive5utils2ty13is_generic_ty, symObjAddr: 0x42F0, symBinAddr: 0x488A0, symSize: 0x50 }
  - { offset: 0x7D9D7, size: 0x8, addend: 0x0, symName: __RNvNtNtCsjOBAykZTw0C_11clap_derive5utils2ty10is_unit_ty, symObjAddr: 0x4340, symBinAddr: 0x488F0, symSize: 0x90 }
  - { offset: 0x7DA20, size: 0x8, addend: 0x0, symName: __RINvNtNtCsjOBAykZTw0C_11clap_derive5utils2ty8only_oneINtNtCs6IAuOt8vWmF_3syn10punctuated4IterNtNtBU_4path11PathSegmentERB1t_EB6_, symObjAddr: 0x43D0, symBinAddr: 0x48980, symSize: 0x8C }
  - { offset: 0x7DA5E, size: 0x8, addend: 0x0, symName: __RINvNtNtCsjOBAykZTw0C_11clap_derive5utils2ty8only_oneINtNtCs6IAuOt8vWmF_3syn10punctuated4IterNtNtBU_4path15GenericArgumentERB1t_EB6_, symObjAddr: 0x445C, symBinAddr: 0x48A0C, symSize: 0x8C }
  - { offset: 0x7DAA1, size: 0x8, addend: 0x0, symName: __RNCINvNtNtCsjOBAykZTw0C_11clap_derive5utils2ty8only_oneINtNtCs6IAuOt8vWmF_3syn10punctuated4IterNtNtBW_4path11PathSegmentERB1v_E0B8_, symObjAddr: 0x44E8, symBinAddr: 0x48A98, symSize: 0x6C }
  - { offset: 0x7DAEB, size: 0x8, addend: 0x0, symName: __RNCINvNtNtCsjOBAykZTw0C_11clap_derive5utils2ty8only_oneINtNtCs6IAuOt8vWmF_3syn10punctuated4IterNtNtBW_4path15GenericArgumentERB1v_E0B8_, symObjAddr: 0x4554, symBinAddr: 0x48B04, symSize: 0x6C }
  - { offset: 0x7DB36, size: 0x8, addend: 0x0, symName: __RNvNtNtCsjOBAykZTw0C_11clap_derive5utils2ty10get_vec_ty, symObjAddr: 0x45C0, symBinAddr: 0x48B70, symSize: 0x58 }
  - { offset: 0x7DB83, size: 0x8, addend: 0x0, symName: __RNvXs0_NtNtCsjOBAykZTw0C_11clap_derive5utils2tyNtB5_2TyNtNtCsfvfooZQ3Axs_4core5clone5Clone5cloneB9_, symObjAddr: 0x4618, symBinAddr: 0x48BC8, symSize: 0x18 }
  - { offset: 0x7DBB5, size: 0x8, addend: 0x0, symName: __RNvXs2_NtNtCsjOBAykZTw0C_11clap_derive5utils2tyNtB5_2TyNtNtCsfvfooZQ3Axs_4core3cmp9PartialEq2eqB9_, symObjAddr: 0x4630, symBinAddr: 0x48BE0, symSize: 0x34 }
  - { offset: 0x7DF16, size: 0x8, addend: 0x0, symName: __RINvNtCscOYdFFY2T5N_3std3env3varReECsjOBAykZTw0C_11clap_derive, symObjAddr: 0x30, symBinAddr: 0x445E0, symSize: 0x68 }
  - { offset: 0x7DFAB, size: 0x8, addend: 0x0, symName: __RINvNvNtCscOYdFFY2T5N_3std9panicking3try7do_callINtNtNtCsfvfooZQ3Axs_4core5panic11unwind_safe16AssertUnwindSafeNCINvNtNtCs9i5KxIbZ5ph_10proc_macro6bridge6client10run_clientNtB1Q_11TokenStreamINtNtBR_6option6OptionB2K_ENCNCINvMs7_B1Q_INtB1Q_6ClientNtB1U_11TokenStreamB3X_E7expand1NvCsjOBAykZTw0C_11clap_derive10subcommandE00E0EuEB4v_, symObjAddr: 0x98, symBinAddr: 0x44648, symSize: 0x50 }
  - { offset: 0x7E073, size: 0x8, addend: 0x0, symName: __RINvNvNtCscOYdFFY2T5N_3std9panicking3try7do_callINtNtNtCsfvfooZQ3Axs_4core5panic11unwind_safe16AssertUnwindSafeNCINvNtNtCs9i5KxIbZ5ph_10proc_macro6bridge6client10run_clientNtB1Q_11TokenStreamINtNtBR_6option6OptionB2K_ENCNCINvMs7_B1Q_INtB1Q_6ClientNtB1U_11TokenStreamB3X_E7expand1NvCsjOBAykZTw0C_11clap_derive10value_enumE00E0EuEB4v_, symObjAddr: 0xE8, symBinAddr: 0x44698, symSize: 0x50 }
  - { offset: 0x7E13B, size: 0x8, addend: 0x0, symName: __RINvNvNtCscOYdFFY2T5N_3std9panicking3try7do_callINtNtNtCsfvfooZQ3Axs_4core5panic11unwind_safe16AssertUnwindSafeNCINvNtNtCs9i5KxIbZ5ph_10proc_macro6bridge6client10run_clientNtB1Q_11TokenStreamINtNtBR_6option6OptionB2K_ENCNCINvMs7_B1Q_INtB1Q_6ClientNtB1U_11TokenStreamB3X_E7expand1NvCsjOBAykZTw0C_11clap_derive4argsE00E0EuEB4v_, symObjAddr: 0x138, symBinAddr: 0x446E8, symSize: 0x50 }
  - { offset: 0x7E203, size: 0x8, addend: 0x0, symName: __RINvNvNtCscOYdFFY2T5N_3std9panicking3try7do_callINtNtNtCsfvfooZQ3Axs_4core5panic11unwind_safe16AssertUnwindSafeNCINvNtNtCs9i5KxIbZ5ph_10proc_macro6bridge6client10run_clientNtB1Q_11TokenStreamINtNtBR_6option6OptionB2K_ENCNCINvMs7_B1Q_INtB1Q_6ClientNtB1U_11TokenStreamB3X_E7expand1NvCsjOBAykZTw0C_11clap_derive6parserE00E0EuEB4v_, symObjAddr: 0x188, symBinAddr: 0x44738, symSize: 0x50 }
  - { offset: 0x7E2CB, size: 0x8, addend: 0x0, symName: __RINvNvNtCscOYdFFY2T5N_3std9panicking3try8do_catchINtNtNtCsfvfooZQ3Axs_4core5panic11unwind_safe16AssertUnwindSafeNCINvNtNtCs9i5KxIbZ5ph_10proc_macro6bridge6client10run_clientNtB1R_11TokenStreamINtNtBS_6option6OptionB2L_ENCNCINvMs7_B1R_INtB1R_6ClientNtB1V_11TokenStreamB3Y_E7expand1NvCsjOBAykZTw0C_11clap_derive10subcommandE00E0EuEB4w_, symObjAddr: 0x1D8, symBinAddr: 0x44788, symSize: 0x70 }
  - { offset: 0x7E360, size: 0x8, addend: 0x0, symName: __RINvNvNtCscOYdFFY2T5N_3std9panicking3try8do_catchINtNtNtCsfvfooZQ3Axs_4core5panic11unwind_safe16AssertUnwindSafeNCINvNtNtCs9i5KxIbZ5ph_10proc_macro6bridge6client10run_clientNtB1R_11TokenStreamINtNtBS_6option6OptionB2L_ENCNCINvMs7_B1R_INtB1R_6ClientNtB1V_11TokenStreamB3Y_E7expand1NvCsjOBAykZTw0C_11clap_derive10value_enumE00E0EuEB4w_, symObjAddr: 0x248, symBinAddr: 0x447F8, symSize: 0x70 }
  - { offset: 0x7E3F5, size: 0x8, addend: 0x0, symName: __RINvNvNtCscOYdFFY2T5N_3std9panicking3try8do_catchINtNtNtCsfvfooZQ3Axs_4core5panic11unwind_safe16AssertUnwindSafeNCINvNtNtCs9i5KxIbZ5ph_10proc_macro6bridge6client10run_clientNtB1R_11TokenStreamINtNtBS_6option6OptionB2L_ENCNCINvMs7_B1R_INtB1R_6ClientNtB1V_11TokenStreamB3Y_E7expand1NvCsjOBAykZTw0C_11clap_derive4argsE00E0EuEB4w_, symObjAddr: 0x2B8, symBinAddr: 0x44868, symSize: 0x70 }
  - { offset: 0x7E48A, size: 0x8, addend: 0x0, symName: __RINvNvNtCscOYdFFY2T5N_3std9panicking3try8do_catchINtNtNtCsfvfooZQ3Axs_4core5panic11unwind_safe16AssertUnwindSafeNCINvNtNtCs9i5KxIbZ5ph_10proc_macro6bridge6client10run_clientNtB1R_11TokenStreamINtNtBS_6option6OptionB2L_ENCNCINvMs7_B1R_INtB1R_6ClientNtB1V_11TokenStreamB3Y_E7expand1NvCsjOBAykZTw0C_11clap_derive6parserE00E0EuEB4w_, symObjAddr: 0x328, symBinAddr: 0x448D8, symSize: 0x70 }
  - { offset: 0x7ED06, size: 0x8, addend: 0x0, symName: __RNvMNtCs6IAuOt8vWmF_3syn10punctuatedINtB2_10PunctuatedNtNtB4_4data7VariantNtNtB4_5token5CommaE4iterCsjOBAykZTw0C_11clap_derive, symObjAddr: 0x11AC, symBinAddr: 0x4575C, symSize: 0xC8 }
  - { offset: 0x7ED9F, size: 0x8, addend: 0x0, symName: __RNvMNtCs6IAuOt8vWmF_3syn10punctuatedINtB2_10PunctuatedNtNtB4_4path15GenericArgumentNtNtB4_5token5CommaE4iterCsjOBAykZTw0C_11clap_derive, symObjAddr: 0x1274, symBinAddr: 0x45824, symSize: 0xC8 }
  - { offset: 0x7EE53, size: 0x8, addend: 0x0, symName: __RNvMNtCs6IAuOt8vWmF_3syn10punctuatedINtB2_10PunctuatedNtNtCsjOBAykZTw0C_11clap_derive4attr8ClapAttrNtNtB4_5token5CommaE10push_punctBU_, symObjAddr: 0x133C, symBinAddr: 0x458EC, symSize: 0x200 }
  - { offset: 0x7EED1, size: 0x8, addend: 0x0, symName: __RNvMNtCs6IAuOt8vWmF_3syn10punctuatedINtB2_10PunctuatedNtNtCsjOBAykZTw0C_11clap_derive4attr8ClapAttrNtNtB4_5token5CommaE10push_valueBU_, symObjAddr: 0x153C, symBinAddr: 0x45AEC, symSize: 0x1B4 }
  - { offset: 0x7EF6D, size: 0x8, addend: 0x0, symName: __RNvMNtCs6IAuOt8vWmF_3syn10punctuatedINtB2_10PunctuatedNtNtCsjOBAykZTw0C_11clap_derive4attr8ClapAttrNtNtB4_5token5CommaE16parse_terminatedBU_, symObjAddr: 0x16F0, symBinAddr: 0x45CA0, symSize: 0x3C }
  - { offset: 0x7EFAF, size: 0x8, addend: 0x0, symName: __RNvMNtCs6IAuOt8vWmF_3syn10punctuatedINtB2_10PunctuatedNtNtCsjOBAykZTw0C_11clap_derive4attr8ClapAttrNtNtB4_5token5CommaE17empty_or_trailingBU_, symObjAddr: 0x172C, symBinAddr: 0x45CDC, symSize: 0x34 }
  - { offset: 0x7EFFB, size: 0x8, addend: 0x0, symName: __RNvMNtCs6IAuOt8vWmF_3syn10punctuatedINtB2_10PunctuatedNtNtCsjOBAykZTw0C_11clap_derive4attr8ClapAttrNtNtB4_5token5CommaE21parse_terminated_withBU_, symObjAddr: 0x1760, symBinAddr: 0x45D10, symSize: 0x370 }
  - { offset: 0x7F100, size: 0x8, addend: 0x0, symName: __RNvMNtCs6IAuOt8vWmF_3syn10punctuatedINtB2_10PunctuatedNtNtCsjOBAykZTw0C_11clap_derive4attr8ClapAttrNtNtB4_5token5CommaE3lenBU_, symObjAddr: 0x1AD0, symBinAddr: 0x46080, symSize: 0xA0 }
  - { offset: 0x7F134, size: 0x8, addend: 0x0, symName: __RNvMNtCs6IAuOt8vWmF_3syn10punctuatedINtB2_10PunctuatedNtNtCsjOBAykZTw0C_11clap_derive4attr8ClapAttrNtNtB4_5token5CommaE3newBU_, symObjAddr: 0x1B70, symBinAddr: 0x46120, symSize: 0x54 }
  - { offset: 0x7F1A5, size: 0x8, addend: 0x0, symName: __RNvXNtCs2cqEZUIJimJ_5quote9to_tokensRNtNtCs6IAuOt8vWmF_3syn4path4PathNtB2_8ToTokens9to_tokensCsjOBAykZTw0C_11clap_derive, symObjAddr: 0x1CF0, symBinAddr: 0x462A0, symSize: 0x40 }
  - { offset: 0x7F1EA, size: 0x8, addend: 0x0, symName: __RNvYRNtNtCs6IAuOt8vWmF_3syn4path4PathNtNtCs2cqEZUIJimJ_5quote9to_tokens8ToTokens15to_token_streamCsjOBAykZTw0C_11clap_derive, symObjAddr: 0x3554, symBinAddr: 0x47B04, symSize: 0x8C }
  - { offset: 0x7F234, size: 0x8, addend: 0x0, symName: __RNvYRNtNtCs6IAuOt8vWmF_3syn4path4PathNtNtCs2cqEZUIJimJ_5quote9to_tokens8ToTokens17into_token_streamCsjOBAykZTw0C_11clap_derive, symObjAddr: 0x35E0, symBinAddr: 0x47B90, symSize: 0x54 }
  - { offset: 0x7F275, size: 0x8, addend: 0x0, symName: __RNvXs0_NtCs2cqEZUIJimJ_5quote7spannedNtNtCs6IAuOt8vWmF_3syn4path4PathNtB5_7Spanned6___spanCsjOBAykZTw0C_11clap_derive, symObjAddr: 0x1D94, symBinAddr: 0x46344, symSize: 0x44 }
  - { offset: 0x7F60D, size: 0x8, addend: 0x0, symName: __RNvMNtNtCsjOBAykZTw0C_11clap_derive5utils2tyNtB2_2Ty11from_syn_ty, symObjAddr: 0x3634, symBinAddr: 0x47BE4, symSize: 0x24C }
  - { offset: 0x7F690, size: 0x8, addend: 0x0, symName: __RNvMNtNtCsjOBAykZTw0C_11clap_derive5utils2tyNtB2_2Ty6as_str, symObjAddr: 0x38CC, symBinAddr: 0x47E7C, symSize: 0x1EC }
  - { offset: 0x7FA5A, size: 0x8, addend: 0x0, symName: __RINvMNtCs6IAuOt8vWmF_3syn5errorNtB3_5Error11new_spannedNtCs3cP53eQoTwO_11proc_macro211TokenStreamNtNtCse1nGBsou5OW_5alloc6string6StringECsjOBAykZTw0C_11clap_derive, symObjAddr: 0x0, symBinAddr: 0x48C14, symSize: 0xCC }
  - { offset: 0x7FD76, size: 0x8, addend: 0x0, symName: __RNvXs1J_NtCs9i5KxIbZ5ph_10proc_macro6bridgeINtB6_11ExpnGlobalsNtNtB6_6client4SpanEINtNtB6_3rpc9DecodeMutuE6decodeCsjOBAykZTw0C_11clap_derive, symObjAddr: 0x22F0, symBinAddr: 0x4AF04, symSize: 0xB0 }
  - { offset: 0x7FDCD, size: 0x8, addend: 0x0, symName: __RNvXs9_NtNtCs9i5KxIbZ5ph_10proc_macro6bridge3rpcTINtB7_11ExpnGlobalsNtNtB7_6client4SpanENtB16_11TokenStreamEINtB5_9DecodeMutuE6decodeCsjOBAykZTw0C_11clap_derive, symObjAddr: 0x25B8, symBinAddr: 0x4B1CC, symSize: 0x84 }
  - { offset: 0x83B27, size: 0x8, addend: 0x0, symName: __RNvXs2_NtNtNtCsfvfooZQ3Axs_4core3ops8function5implsQNCINvNtCse1nGBsou5OW_5alloc3str17join_generic_copyehNtNtBV_6string6StringEs_0INtB7_6FnOnceTRB1E_EE9call_onceCsjOBAykZTw0C_11clap_derive, symObjAddr: 0x23F0, symBinAddr: 0x4B004, symSize: 0x2C }
  - { offset: 0x83B76, size: 0x8, addend: 0x0, symName: __RNvXs2_NtNtNtCsfvfooZQ3Axs_4core3ops8function5implsQNCNCNvNtNtCsjOBAykZTw0C_11clap_derive5utils12doc_comments19extract_doc_comments1_00INtB7_6FnOnceTReEE9call_onceBY_, symObjAddr: 0x241C, symBinAddr: 0x4B030, symSize: 0x34 }
  - { offset: 0x83BC5, size: 0x8, addend: 0x0, symName: __RNvXs2_NtNtNtCsfvfooZQ3Axs_4core3ops8function5implsQNCNvNtNtCsjOBAykZTw0C_11clap_derive5utils12doc_comments19extract_doc_comments1_0INtB7_6FnOnceTNtNtCse1nGBsou5OW_5alloc6string6StringEE9call_onceBW_, symObjAddr: 0x2450, symBinAddr: 0x4B064, symSize: 0x3C }
  - { offset: 0x84772, size: 0x8, addend: 0x0, symName: __RINvXs_NtNtNtCsfvfooZQ3Axs_4core4iter8adapters6clonedINtB5_6ClonedINtNtNtBb_5slice4iter4IterTNtCs3cP53eQoTwO_11proc_macro211TokenStreamNtB1v_5IdentEEENtNtNtB9_6traits8iterator8Iterator4folduNCINvNvNtB2s_7collect22default_extend_tuple_b6extendB1t_B29_INtNtCse1nGBsou5OW_5alloc3vec3VecB1t_EIB41_B29_EE0ECsjOBAykZTw0C_11clap_derive, symObjAddr: 0x1F34, symBinAddr: 0x4AB48, symSize: 0xCC }
  - { offset: 0x84809, size: 0x8, addend: 0x0, symName: __RINvXs_NtNtNtCsfvfooZQ3Axs_4core4iter8adapters6clonedINtB5_6ClonedINtNtNtBb_5slice4iter4IterTNtCs3cP53eQoTwO_11proc_macro211TokenStreamNtB1v_5IdentEEENtNtNtB9_6traits8iterator8Iterator4folduNCINvNvXs6_NtB2s_7collectpINtB3d_6TraitBppE6extend6extendB1t_B29_INtNtCse1nGBsou5OW_5alloc3vec3VecB1t_EIB46_B29_EE0ECsjOBAykZTw0C_11clap_derive, symObjAddr: 0x2000, symBinAddr: 0x4AC14, symSize: 0xCC }
  - { offset: 0x848A0, size: 0x8, addend: 0x0, symName: __RNvXs_NtNtNtCsfvfooZQ3Axs_4core4iter8adapters6clonedINtB4_6ClonedINtNtNtBa_5slice4iter4IterTNtCs3cP53eQoTwO_11proc_macro211TokenStreamNtB1u_5IdentEEENtNtNtB8_6traits8iterator8Iterator9size_hintCsjOBAykZTw0C_11clap_derive, symObjAddr: 0x263C, symBinAddr: 0x4B250, symSize: 0x24 }
  - { offset: 0x84908, size: 0x8, addend: 0x0, symName: __RNvXs_NtNtNtCsfvfooZQ3Axs_4core4iter8adapters9enumerateINtB4_9EnumerateINtNtNtBa_5slice4iter4IterNtNtCs6IAuOt8vWmF_3syn4expr4ExprEENtNtNtB8_6traits8iterator8Iterator4nextCsjOBAykZTw0C_11clap_derive, symObjAddr: 0x2660, symBinAddr: 0x4B274, symSize: 0xE0 }
  - { offset: 0x84B1F, size: 0x8, addend: 0x0, symName: __RINvYINtNtNtNtCsfvfooZQ3Axs_4core4iter8adapters6cloned6ClonedINtNtNtBc_5slice4iter4IterTNtCs3cP53eQoTwO_11proc_macro211TokenStreamNtB1q_5IdentEEENtNtNtBa_6traits8iterator8Iterator5unzipB1o_B24_INtNtCse1nGBsou5OW_5alloc3vec3VecB1o_EIB36_B24_EECsjOBAykZTw0C_11clap_derive, symObjAddr: 0x20CC, symBinAddr: 0x4ACE0, symSize: 0xE0 }
  - { offset: 0x84C4B, size: 0x8, addend: 0x0, symName: __RNvXs6_NtNtNtCsfvfooZQ3Axs_4core4iter6traits7collectINtNtNtB9_8adapters6cloned6ClonedINtNtNtBb_5slice4iter4IterTNtCs3cP53eQoTwO_11proc_macro211TokenStreamNtB1O_5IdentEEEINtB5_6TraitBINtNtCse1nGBsou5OW_5alloc3vec3VecB1M_EIB2V_B2s_EE6extendCsjOBAykZTw0C_11clap_derive, symObjAddr: 0x248C, symBinAddr: 0x4B0A0, symSize: 0x12C }
  - { offset: 0x8ACBA, size: 0x8, addend: 0x0, symName: __RINvMs3_NtCse1nGBsou5OW_5alloc3stre7replacecECsjOBAykZTw0C_11clap_derive, symObjAddr: 0x204, symBinAddr: 0x48E18, symSize: 0x714 }
  - { offset: 0x8B93E, size: 0x8, addend: 0x0, symName: __RNCNvNtCse1nGBsou5OW_5alloc3str13replace_ascii0CsjOBAykZTw0C_11clap_derive, symObjAddr: 0x228C, symBinAddr: 0x4AEA0, symSize: 0x64 }
  - { offset: 0x8B9FA, size: 0x8, addend: 0x0, symName: __RNCNCINvNtCse1nGBsou5OW_5alloc3str17join_generic_copyehNtNtB8_6string6StringE00CsjOBAykZTw0C_11clap_derive, symObjAddr: 0x222C, symBinAddr: 0x4AE40, symSize: 0x38 }
  - { offset: 0x8BA53, size: 0x8, addend: 0x0, symName: __RNCINvNtCse1nGBsou5OW_5alloc3str17join_generic_copyehNtNtB6_6string6StringEs_0CsjOBAykZTw0C_11clap_derive, symObjAddr: 0x21AC, symBinAddr: 0x4ADC0, symSize: 0x80 }
  - { offset: 0x8BB21, size: 0x8, addend: 0x0, symName: __RINvNtCse1nGBsou5OW_5alloc3str17join_generic_copyehNtNtB4_6string6StringECsjOBAykZTw0C_11clap_derive, symObjAddr: 0x918, symBinAddr: 0x4952C, symSize: 0x161C }
  - { offset: 0x8D01C, size: 0x8, addend: 0x0, symName: __RNvXs2_NtCse1nGBsou5OW_5alloc3streNtNtB7_6borrow7ToOwned8to_ownedCsjOBAykZTw0C_11clap_derive, symObjAddr: 0x23A0, symBinAddr: 0x4AFB4, symSize: 0x50 }
  - { offset: 0x8D2E3, size: 0x8, addend: 0x0, symName: __RNCNvMs3_NtNtCscOYdFFY2T5N_3std6thread5localINtB7_8LocalKeyINtNtCsfvfooZQ3Axs_4core4cell4CellPuEE7replace0CsjOBAykZTw0C_11clap_derive, symObjAddr: 0x2264, symBinAddr: 0x4AE78, symSize: 0x28 }
  - { offset: 0x8D3EB, size: 0x8, addend: 0x0, symName: __RINvMNtCs6IAuOt8vWmF_3syn5errorNtB3_5Error11new_spannedNtCs3cP53eQoTwO_11proc_macro211TokenStreamNtNtCse1nGBsou5OW_5alloc6string6StringECsjOBAykZTw0C_11clap_derive, symObjAddr: 0x0, symBinAddr: 0x48C14, symSize: 0xCC }
  - { offset: 0x8D47B, size: 0x8, addend: 0x0, symName: __RINvMs2_NtNtCscOYdFFY2T5N_3std6thread5localINtB6_8LocalKeyINtNtCsfvfooZQ3Axs_4core4cell4CellPuEE4withNCNvMs3_B6_BF_7replace0B1s_ECsjOBAykZTw0C_11clap_derive, symObjAddr: 0xCC, symBinAddr: 0x48CE0, symSize: 0x54 }
  - { offset: 0x8D534, size: 0x8, addend: 0x0, symName: __RINvMs2_NtNtCscOYdFFY2T5N_3std6thread5localINtB6_8LocalKeyINtNtCsfvfooZQ3Axs_4core4cell4CellPuEE8try_withNCNvMs3_B6_BF_7replace0B1s_ECsjOBAykZTw0C_11clap_derive, symObjAddr: 0x120, symBinAddr: 0x48D34, symSize: 0xE4 }
  - { offset: 0x8E829, size: 0x8, addend: 0x0, symName: __RNvNtNtCsjOBAykZTw0C_11clap_derive5utils12doc_comments19extract_doc_comment, symObjAddr: 0x2740, symBinAddr: 0x4B354, symSize: 0x148 }
  - { offset: 0x8E86F, size: 0x8, addend: 0x0, symName: __RNCNvNtNtCsjOBAykZTw0C_11clap_derive5utils12doc_comments19extract_doc_comment0B7_, symObjAddr: 0x2888, symBinAddr: 0x4B49C, symSize: 0x50 }
  - { offset: 0x8E8A5, size: 0x8, addend: 0x0, symName: __RNCNvNtNtCsjOBAykZTw0C_11clap_derive5utils12doc_comments19extract_doc_comments_0B7_, symObjAddr: 0x28D8, symBinAddr: 0x4B4EC, symSize: 0xFC }
  - { offset: 0x8E8F8, size: 0x8, addend: 0x0, symName: __RNCNvNtNtCsjOBAykZTw0C_11clap_derive5utils12doc_comments19extract_doc_comments0_0B7_, symObjAddr: 0x29D4, symBinAddr: 0x4B5E8, symSize: 0x44 }
  - { offset: 0x8E92E, size: 0x8, addend: 0x0, symName: __RNCNvNtNtCsjOBAykZTw0C_11clap_derive5utils12doc_comments19extract_doc_comments1_0B7_, symObjAddr: 0x2A18, symBinAddr: 0x4B62C, symSize: 0xB4 }
  - { offset: 0x8E96A, size: 0x8, addend: 0x0, symName: __RNCNCNvNtNtCsjOBAykZTw0C_11clap_derive5utils12doc_comments19extract_doc_comments1_00B9_, symObjAddr: 0x2ACC, symBinAddr: 0x4B6E0, symSize: 0x78 }
  - { offset: 0x8E9C5, size: 0x8, addend: 0x0, symName: __RNCNvNtNtCsjOBAykZTw0C_11clap_derive5utils12doc_comments19extract_doc_comments2_0B7_, symObjAddr: 0x2B44, symBinAddr: 0x4B758, symSize: 0x38 }
  - { offset: 0x8EA1F, size: 0x8, addend: 0x0, symName: __RNvNtNtCsjOBAykZTw0C_11clap_derive5utils12doc_comments18format_doc_comment, symObjAddr: 0x2B7C, symBinAddr: 0x4B790, symSize: 0x438 }
  - { offset: 0x8EBDA, size: 0x8, addend: 0x0, symName: __RNCNvNtNtCsjOBAykZTw0C_11clap_derive5utils12doc_comments18format_doc_comment0B7_, symObjAddr: 0x2FB4, symBinAddr: 0x4BBC8, symSize: 0x44 }
  - { offset: 0x8EC1D, size: 0x8, addend: 0x0, symName: __RNCNCNvNtNtCsjOBAykZTw0C_11clap_derive5utils12doc_comments18format_doc_comment00B9_, symObjAddr: 0x2FF8, symBinAddr: 0x4BC0C, symSize: 0x34 }
  - { offset: 0x8EC4C, size: 0x8, addend: 0x0, symName: __RNCNvNtNtCsjOBAykZTw0C_11clap_derive5utils12doc_comments18format_doc_comments_0B7_, symObjAddr: 0x302C, symBinAddr: 0x4BC40, symSize: 0x44 }
  - { offset: 0x8EC82, size: 0x8, addend: 0x0, symName: __RNCNvNtNtCsjOBAykZTw0C_11clap_derive5utils12doc_comments18format_doc_comments0_0B7_, symObjAddr: 0x3070, symBinAddr: 0x4BC84, symSize: 0x34 }
  - { offset: 0x8ECB8, size: 0x8, addend: 0x0, symName: __RNvNtNtCsjOBAykZTw0C_11clap_derive5utils12doc_comments16split_paragraphs, symObjAddr: 0x30A4, symBinAddr: 0x4BCB8, symSize: 0x6C }
  - { offset: 0x8ECFE, size: 0x8, addend: 0x0, symName: __RNCNvNtNtCsjOBAykZTw0C_11clap_derive5utils12doc_comments16split_paragraphs0B7_, symObjAddr: 0x3110, symBinAddr: 0x4BD24, symSize: 0x23C }
  - { offset: 0x8EEBE, size: 0x8, addend: 0x0, symName: __RNCNCNvNtNtCsjOBAykZTw0C_11clap_derive5utils12doc_comments16split_paragraphs00B9_, symObjAddr: 0x334C, symBinAddr: 0x4BF60, symSize: 0x48 }
  - { offset: 0x8EEF4, size: 0x8, addend: 0x0, symName: __RNCNCNvNtNtCsjOBAykZTw0C_11clap_derive5utils12doc_comments16split_paragraphs0s_0B9_, symObjAddr: 0x3394, symBinAddr: 0x4BFA8, symSize: 0x44 }
  - { offset: 0x8EF3A, size: 0x8, addend: 0x0, symName: __RNvNtNtCsjOBAykZTw0C_11clap_derive5utils12doc_comments13remove_period, symObjAddr: 0x33D8, symBinAddr: 0x4BFEC, symSize: 0x12C }
  - { offset: 0x8EF67, size: 0x8, addend: 0x0, symName: __RNvNtNtCsjOBAykZTw0C_11clap_derive5utils12doc_comments8is_blank, symObjAddr: 0x3504, symBinAddr: 0x4C118, symSize: 0x3C }
  - { offset: 0x8EF93, size: 0x8, addend: 0x0, symName: __RINvNtNtCsjOBAykZTw0C_11clap_derive5utils12doc_comments11merge_linesRNtNtCse1nGBsou5OW_5alloc6string6StringRSB15_EB6_, symObjAddr: 0x3540, symBinAddr: 0x4C154, symSize: 0xB4 }
  - { offset: 0x8EFD6, size: 0x8, addend: 0x0, symName: __RNCINvNtNtCsjOBAykZTw0C_11clap_derive5utils12doc_comments11merge_linesRNtNtCse1nGBsou5OW_5alloc6string6StringRSB17_E0B8_, symObjAddr: 0x35F4, symBinAddr: 0x4C208, symSize: 0x90 }
  - { offset: 0x8F026, size: 0x8, addend: 0x0, symName: __RNvNtNtCsjOBAykZTw0C_11clap_derive5utils12doc_comments14parse_markdown, symObjAddr: 0x3684, symBinAddr: 0x4C298, symSize: 0x1C8 }
  - { offset: 0x8F0BF, size: 0x8, addend: 0x0, symName: __RNCNvNtNtCsjOBAykZTw0C_11clap_derive5utils12doc_comments14parse_markdown0B7_, symObjAddr: 0x384C, symBinAddr: 0x4C460, symSize: 0x44 }
  - { offset: 0x8F2FA, size: 0x8, addend: 0x0, symName: __RINvMNtCsfvfooZQ3Axs_4core4boolb4thenNtNtCse1nGBsou5OW_5alloc6string6StringNCNCNvNtNtCsjOBAykZTw0C_11clap_derive5utils12doc_comments18format_doc_comment00EB1l_, symObjAddr: 0x0, symBinAddr: 0x4C4A4, symSize: 0x64 }
  - { offset: 0x8FCA8, size: 0x8, addend: 0x0, symName: __RNvXs7_NtNtCs9i5KxIbZ5ph_10proc_macro6bridge3rpcINtNtNtCsfvfooZQ3Axs_4core3num7nonzero7NonZeromEINtB5_9DecodeMutuE6decodeCsjOBAykZTw0C_11clap_derive, symObjAddr: 0x40B4, symBinAddr: 0x50558, symSize: 0x5C }
  - { offset: 0x90360, size: 0x8, addend: 0x0, symName: __RINvMNtCsfvfooZQ3Axs_4core4boolb4thenNtNtCse1nGBsou5OW_5alloc6string6StringNCNCNvNtNtCsjOBAykZTw0C_11clap_derive5utils12doc_comments18format_doc_comment00EB1l_, symObjAddr: 0x0, symBinAddr: 0x4C4A4, symSize: 0x64 }
  - { offset: 0x903AC, size: 0x8, addend: 0x0, symName: __RINvMNtCsfvfooZQ3Axs_4core4boolb4thenNtNtCse1nGBsou5OW_5alloc6string6StringNCNvNtNtCsjOBAykZTw0C_11clap_derive5utils12doc_comments18format_doc_comments0_0EB1j_, symObjAddr: 0x64, symBinAddr: 0x4C508, symSize: 0x64 }
  - { offset: 0x903F8, size: 0x8, addend: 0x0, symName: __RINvMNtCsfvfooZQ3Axs_4core4boolb9then_someNtNtNtCsjOBAykZTw0C_11clap_derive5utils2ty2TyEBK_, symObjAddr: 0xC8, symBinAddr: 0x4C56C, symSize: 0x3C }
  - { offset: 0x90447, size: 0x8, addend: 0x0, symName: __RINvNtNtCsfvfooZQ3Axs_4core4iter8adapters11try_processINtNtB2_3map3MapINtNtCs6IAuOt8vWmF_3syn10punctuated4IterNtNtB1b_4data5FieldENCNvNtNtCsjOBAykZTw0C_11clap_derive7derives4args11derive_args0ETRB1K_NtNtB2c_4item4ItemEINtNtB6_6result6ResultNtNtB6_7convert10InfallibleNtNtB1b_5error5ErrorENCINvXsn_B3x_IB3v_INtNtCse1nGBsou5OW_5alloc3vec3VecB35_EB4h_EINtNtNtB4_6traits7collect12FromIteratorIB3v_B35_B4h_EE9from_iterBQ_E0B4U_EB2c_, symObjAddr: 0x104, symBinAddr: 0x4C5A8, symSize: 0x17C }
  - { offset: 0x9050D, size: 0x8, addend: 0x0, symName: __RINvNtNtCsfvfooZQ3Axs_4core4iter8adapters11try_processINtNtB2_3map3MapINtNtCs6IAuOt8vWmF_3syn10punctuated4IterNtNtB1b_4data5FieldENCNvNtNtCsjOBAykZTw0C_11clap_derive7derives4args19collect_args_fields0ETRB1K_NtNtB2c_4item4ItemEINtNtB6_6result6ResultNtNtB6_7convert10InfallibleNtNtB1b_5error5ErrorENCINvXsn_B3F_IB3D_INtNtCse1nGBsou5OW_5alloc3vec3VecB3d_EB4p_EINtNtNtB4_6traits7collect12FromIteratorIB3D_B3d_B4p_EE9from_iterBQ_E0B52_EB2c_, symObjAddr: 0x280, symBinAddr: 0x4C724, symSize: 0x17C }
  - { offset: 0x905D3, size: 0x8, addend: 0x0, symName: __RINvNtNtCsfvfooZQ3Axs_4core4iter8adapters11try_processINtNtB2_3map3MapINtNtCs6IAuOt8vWmF_3syn10punctuated4IterNtNtB1b_4data5FieldENCNvNtNtCsjOBAykZTw0C_11clap_derive7derives6parser13derive_parser0ETRB1K_NtNtB2c_4item4ItemEINtNtB6_6result6ResultNtNtB6_7convert10InfallibleNtNtB1b_5error5ErrorENCINvXsn_B3B_IB3z_INtNtCse1nGBsou5OW_5alloc3vec3VecB39_EB4l_EINtNtNtB4_6traits7collect12FromIteratorIB3z_B39_B4l_EE9from_iterBQ_E0B4Y_EB2c_, symObjAddr: 0x3FC, symBinAddr: 0x4C8A0, symSize: 0x17C }
  - { offset: 0x90699, size: 0x8, addend: 0x0, symName: __RINvNtNtCsfvfooZQ3Axs_4core4iter8adapters11try_processINtNtB2_3map3MapINtNtCs6IAuOt8vWmF_3syn10punctuated4IterNtNtB1b_4data7VariantENCNvNtNtCsjOBAykZTw0C_11clap_derive7derives10subcommand17derive_subcommand0ETRB1K_NtNtB2e_4item4ItemEINtNtB6_6result6ResultNtNtB6_7convert10InfallibleNtNtB1b_5error5ErrorENCINvXsn_B3M_IB3K_INtNtCse1nGBsou5OW_5alloc3vec3VecB3k_EB4w_EINtNtNtB4_6traits7collect12FromIteratorIB3K_B3k_B4w_EE9from_iterBQ_E0B59_EB2e_, symObjAddr: 0x578, symBinAddr: 0x4CA1C, symSize: 0x17C }
  - { offset: 0x9075F, size: 0x8, addend: 0x0, symName: __RINvNtNtCsfvfooZQ3Axs_4core4iter8adapters11try_processINtNtB2_3map3MapINtNtCs6IAuOt8vWmF_3syn10punctuated4IterNtNtB1b_4data7VariantENCNvNtNtCsjOBAykZTw0C_11clap_derive7derives6parser13derive_parsers_0ETRB1K_NtNtB2e_4item4ItemEINtNtB6_6result6ResultNtNtB6_7convert10InfallibleNtNtB1b_5error5ErrorENCINvXsn_B3F_IB3D_INtNtCse1nGBsou5OW_5alloc3vec3VecB3d_EB4p_EINtNtNtB4_6traits7collect12FromIteratorIB3D_B3d_B4p_EE9from_iterBQ_E0B52_EB2e_, symObjAddr: 0x6F4, symBinAddr: 0x4CB98, symSize: 0x17C }
  - { offset: 0x90825, size: 0x8, addend: 0x0, symName: __RINvNtNtCsfvfooZQ3Axs_4core4iter8adapters11try_processINtNtB2_3map3MapINtNtNtB6_5slice4iter4IterTRNtNtCs6IAuOt8vWmF_3syn4data5FieldNtNtCsjOBAykZTw0C_11clap_derive4item4ItemEENCNvNtNtB29_7derives4args15gen_constructor0ENtCs3cP53eQoTwO_11proc_macro211TokenStreamINtNtB6_6result6ResultNtNtB6_7convert10InfallibleNtNtB1C_5error5ErrorENCINvXsn_B4d_IB4b_INtNtCse1nGBsou5OW_5alloc3vec3VecB3u_EB4X_EINtNtNtB4_6traits7collect12FromIteratorIB4b_B3u_B4X_EE9from_iterBQ_E0B5A_EB29_, symObjAddr: 0x870, symBinAddr: 0x4CD14, symSize: 0x180 }
  - { offset: 0x908EA, size: 0x8, addend: 0x0, symName: __RINvNtNtCsfvfooZQ3Axs_4core4iter8adapters11try_processINtNtB2_3map3MapINtNtNtB6_5slice4iter4IterTRRNtNtCs6IAuOt8vWmF_3syn4data7VariantRNtNtCsjOBAykZTw0C_11clap_derive4item4ItemEENCNvNtNtB2d_7derives10subcommand18gen_has_subcommands1_0ENtCs3cP53eQoTwO_11proc_macro211TokenStreamINtNtB6_6result6ResultNtNtB6_7convert10InfallibleNtNtB1D_5error5ErrorENCINvXsn_B4u_IB4s_INtNtCse1nGBsou5OW_5alloc3vec3VecB3L_EB5e_EINtNtNtB4_6traits7collect12FromIteratorIB4s_B3L_B5e_EE9from_iterBQ_E0B5R_EB2d_, symObjAddr: 0x9F0, symBinAddr: 0x4CE94, symSize: 0x180 }
  - { offset: 0x909AF, size: 0x8, addend: 0x0, symName: __RINvNtNtCsfvfooZQ3Axs_4core4iter8adapters11try_processINtNtB2_3map3MapINtNtNtB6_5slice4iter4IterTRRNtNtCs6IAuOt8vWmF_3syn4data7VariantRNtNtCsjOBAykZTw0C_11clap_derive4item4ItemEENCNvNtNtB2d_7derives10subcommand20gen_from_arg_matches0ENtCs3cP53eQoTwO_11proc_macro211TokenStreamINtNtB6_6result6ResultNtNtB6_7convert10InfallibleNtNtB1D_5error5ErrorENCINvXsn_B4t_IB4r_INtNtCse1nGBsou5OW_5alloc3vec3VecB3K_EB5d_EINtNtNtB4_6traits7collect12FromIteratorIB4r_B3K_B5d_EE9from_iterBQ_E0B5Q_EB2d_, symObjAddr: 0xB70, symBinAddr: 0x4D014, symSize: 0x18C }
  - { offset: 0x90A76, size: 0x8, addend: 0x0, symName: __RINvNtNtCsfvfooZQ3Axs_4core4iter8adapters11try_processINtNtB2_3map3MapINtNtNtB6_5slice4iter4IterTRRNtNtCs6IAuOt8vWmF_3syn4data7VariantRNtNtCsjOBAykZTw0C_11clap_derive4item4ItemEENCNvNtNtB2d_7derives10subcommand20gen_from_arg_matchess_0ENtCs3cP53eQoTwO_11proc_macro211TokenStreamINtNtB6_6result6ResultNtNtB6_7convert10InfallibleNtNtB1D_5error5ErrorENCINvXsn_B4v_IB4t_INtNtCse1nGBsou5OW_5alloc3vec3VecB3M_EB5f_EINtNtNtB4_6traits7collect12FromIteratorIB4t_B3M_B5f_EE9from_iterBQ_E0B5S_EB2d_, symObjAddr: 0xCFC, symBinAddr: 0x4D1A0, symSize: 0x180 }
  - { offset: 0x90B3B, size: 0x8, addend: 0x0, symName: __RINvNtNtCsfvfooZQ3Axs_4core4iter8adapters11try_processINtNtB2_3map3MapINtNtNtB6_5slice4iter4IterTRRNtNtCs6IAuOt8vWmF_3syn4data7VariantRNtNtCsjOBAykZTw0C_11clap_derive4item4ItemEENCNvNtNtB2d_7derives10subcommand27gen_update_from_arg_matchess0_0ENtCs3cP53eQoTwO_11proc_macro211TokenStreamINtNtB6_6result6ResultNtNtB6_7convert10InfallibleNtNtB1D_5error5ErrorENCINvXsn_B4D_IB4B_INtNtCse1nGBsou5OW_5alloc3vec3VecB3U_EB5n_EINtNtNtB4_6traits7collect12FromIteratorIB4B_B3U_B5n_EE9from_iterBQ_E0B60_EB2d_, symObjAddr: 0xE7C, symBinAddr: 0x4D320, symSize: 0x180 }
  - { offset: 0x90C00, size: 0x8, addend: 0x0, symName: __RINvNtNtCsfvfooZQ3Axs_4core4iter8adapters11try_processINtNtB2_3map3MapINtNtNtB6_5slice4iter4IterTRRNtNtCs6IAuOt8vWmF_3syn4data7VariantRNtNtCsjOBAykZTw0C_11clap_derive4item4ItemEENCNvNtNtB2d_7derives10subcommand27gen_update_from_arg_matchess1_0ENtCs3cP53eQoTwO_11proc_macro211TokenStreamINtNtB6_6result6ResultNtNtB6_7convert10InfallibleNtNtB1D_5error5ErrorENCINvXsn_B4D_IB4B_INtNtCse1nGBsou5OW_5alloc3vec3VecB3U_EB5n_EINtNtNtB4_6traits7collect12FromIteratorIB4B_B3U_B5n_EE9from_iterBQ_E0B60_EB2d_, symObjAddr: 0xFFC, symBinAddr: 0x4D4A0, symSize: 0x180 }
  - { offset: 0x90CCA, size: 0x8, addend: 0x0, symName: __RINvXNtNtCsfvfooZQ3Axs_4core4iter8adaptersINtB3_12GenericShuntINtNtB3_3map3MapINtNtCs6IAuOt8vWmF_3syn10punctuated4IterNtNtB1j_4data5FieldENCNvNtNtCsjOBAykZTw0C_11clap_derive7derives4args11derive_args0EINtNtB7_6result6ResultNtNtB7_7convert10InfallibleNtNtB1j_5error5ErrorEENtNtNtB5_6traits8iterator8Iterator8try_folduNCINvNvB4m_12try_for_each4callTRB1S_NtNtB2k_4item4ItemEINtNtNtB7_3ops12control_flow11ControlFlowB5y_ENcNtB5X_5Break0E0B5X_EB2k_, symObjAddr: 0x117C, symBinAddr: 0x4D620, symSize: 0xC0 }
  - { offset: 0x90D81, size: 0x8, addend: 0x0, symName: __RINvXNtNtCsfvfooZQ3Axs_4core4iter8adaptersINtB3_12GenericShuntINtNtB3_3map3MapINtNtCs6IAuOt8vWmF_3syn10punctuated4IterNtNtB1j_4data5FieldENCNvNtNtCsjOBAykZTw0C_11clap_derive7derives4args19collect_args_fields0EINtNtB7_6result6ResultNtNtB7_7convert10InfallibleNtNtB1j_5error5ErrorEENtNtNtB5_6traits8iterator8Iterator8try_folduNCINvNvB4u_12try_for_each4callTRB1S_NtNtB2k_4item4ItemEINtNtNtB7_3ops12control_flow11ControlFlowB5G_ENcNtB65_5Break0E0B65_EB2k_, symObjAddr: 0x123C, symBinAddr: 0x4D6E0, symSize: 0xC0 }
  - { offset: 0x90E38, size: 0x8, addend: 0x0, symName: __RINvXNtNtCsfvfooZQ3Axs_4core4iter8adaptersINtB3_12GenericShuntINtNtB3_3map3MapINtNtCs6IAuOt8vWmF_3syn10punctuated4IterNtNtB1j_4data5FieldENCNvNtNtCsjOBAykZTw0C_11clap_derive7derives6parser13derive_parser0EINtNtB7_6result6ResultNtNtB7_7convert10InfallibleNtNtB1j_5error5ErrorEENtNtNtB5_6traits8iterator8Iterator8try_folduNCINvNvB4q_12try_for_each4callTRB1S_NtNtB2k_4item4ItemEINtNtNtB7_3ops12control_flow11ControlFlowB5C_ENcNtB61_5Break0E0B61_EB2k_, symObjAddr: 0x12FC, symBinAddr: 0x4D7A0, symSize: 0xC0 }
  - { offset: 0x90EEF, size: 0x8, addend: 0x0, symName: __RINvXNtNtCsfvfooZQ3Axs_4core4iter8adaptersINtB3_12GenericShuntINtNtB3_3map3MapINtNtCs6IAuOt8vWmF_3syn10punctuated4IterNtNtB1j_4data7VariantENCNvNtNtCsjOBAykZTw0C_11clap_derive7derives10subcommand17derive_subcommand0EINtNtB7_6result6ResultNtNtB7_7convert10InfallibleNtNtB1j_5error5ErrorEENtNtNtB5_6traits8iterator8Iterator8try_folduNCINvNvB4B_12try_for_each4callTRB1S_NtNtB2m_4item4ItemEINtNtNtB7_3ops12control_flow11ControlFlowB5N_ENcNtB6c_5Break0E0B6c_EB2m_, symObjAddr: 0x13BC, symBinAddr: 0x4D860, symSize: 0xC0 }
  - { offset: 0x90FA6, size: 0x8, addend: 0x0, symName: __RINvXNtNtCsfvfooZQ3Axs_4core4iter8adaptersINtB3_12GenericShuntINtNtB3_3map3MapINtNtCs6IAuOt8vWmF_3syn10punctuated4IterNtNtB1j_4data7VariantENCNvNtNtCsjOBAykZTw0C_11clap_derive7derives6parser13derive_parsers_0EINtNtB7_6result6ResultNtNtB7_7convert10InfallibleNtNtB1j_5error5ErrorEENtNtNtB5_6traits8iterator8Iterator8try_folduNCINvNvB4u_12try_for_each4callTRB1S_NtNtB2m_4item4ItemEINtNtNtB7_3ops12control_flow11ControlFlowB5G_ENcNtB65_5Break0E0B65_EB2m_, symObjAddr: 0x147C, symBinAddr: 0x4D920, symSize: 0xC0 }
  - { offset: 0x9105D, size: 0x8, addend: 0x0, symName: __RINvXNtNtCsfvfooZQ3Axs_4core4iter8adaptersINtB3_12GenericShuntINtNtB3_3map3MapINtNtNtB7_5slice4iter4IterTRNtNtCs6IAuOt8vWmF_3syn4data5FieldNtNtCsjOBAykZTw0C_11clap_derive4item4ItemEENCNvNtNtB2h_7derives4args15gen_constructor0EINtNtB7_6result6ResultNtNtB7_7convert10InfallibleNtNtB1K_5error5ErrorEENtNtNtB5_6traits8iterator8Iterator8try_folduNCINvNvB4L_12try_for_each4callNtCs3cP53eQoTwO_11proc_macro211TokenStreamINtNtNtB7_3ops12control_flow11ControlFlowB5X_ENcNtB6D_5Break0E0B6D_EB2h_, symObjAddr: 0x153C, symBinAddr: 0x4D9E0, symSize: 0xA4 }
  - { offset: 0x91113, size: 0x8, addend: 0x0, symName: __RINvXNtNtCsfvfooZQ3Axs_4core4iter8adaptersINtB3_12GenericShuntINtNtB3_3map3MapINtNtNtB7_5slice4iter4IterTRRNtNtCs6IAuOt8vWmF_3syn4data7VariantRNtNtCsjOBAykZTw0C_11clap_derive4item4ItemEENCNvNtNtB2l_7derives10subcommand18gen_has_subcommands1_0EINtNtB7_6result6ResultNtNtB7_7convert10InfallibleNtNtB1L_5error5ErrorEENtNtNtB5_6traits8iterator8Iterator8try_folduNCINvNvB52_12try_for_each4callNtCs3cP53eQoTwO_11proc_macro211TokenStreamINtNtNtB7_3ops12control_flow11ControlFlowB6e_ENcNtB6U_5Break0E0B6U_EB2l_, symObjAddr: 0x15E0, symBinAddr: 0x4DA84, symSize: 0xA4 }
  - { offset: 0x911C9, size: 0x8, addend: 0x0, symName: __RINvXNtNtCsfvfooZQ3Axs_4core4iter8adaptersINtB3_12GenericShuntINtNtB3_3map3MapINtNtNtB7_5slice4iter4IterTRRNtNtCs6IAuOt8vWmF_3syn4data7VariantRNtNtCsjOBAykZTw0C_11clap_derive4item4ItemEENCNvNtNtB2l_7derives10subcommand20gen_from_arg_matches0EINtNtB7_6result6ResultNtNtB7_7convert10InfallibleNtNtB1L_5error5ErrorEENtNtNtB5_6traits8iterator8Iterator8try_folduNCINvNvB51_12try_for_each4callNtCs3cP53eQoTwO_11proc_macro211TokenStreamINtNtNtB7_3ops12control_flow11ControlFlowB6d_ENcNtB6T_5Break0E0B6T_EB2l_, symObjAddr: 0x1684, symBinAddr: 0x4DB28, symSize: 0xA4 }
  - { offset: 0x9127F, size: 0x8, addend: 0x0, symName: __RINvXNtNtCsfvfooZQ3Axs_4core4iter8adaptersINtB3_12GenericShuntINtNtB3_3map3MapINtNtNtB7_5slice4iter4IterTRRNtNtCs6IAuOt8vWmF_3syn4data7VariantRNtNtCsjOBAykZTw0C_11clap_derive4item4ItemEENCNvNtNtB2l_7derives10subcommand20gen_from_arg_matchess_0EINtNtB7_6result6ResultNtNtB7_7convert10InfallibleNtNtB1L_5error5ErrorEENtNtNtB5_6traits8iterator8Iterator8try_folduNCINvNvB53_12try_for_each4callNtCs3cP53eQoTwO_11proc_macro211TokenStreamINtNtNtB7_3ops12control_flow11ControlFlowB6f_ENcNtB6V_5Break0E0B6V_EB2l_, symObjAddr: 0x1728, symBinAddr: 0x4DBCC, symSize: 0xA4 }
  - { offset: 0x91335, size: 0x8, addend: 0x0, symName: __RINvXNtNtCsfvfooZQ3Axs_4core4iter8adaptersINtB3_12GenericShuntINtNtB3_3map3MapINtNtNtB7_5slice4iter4IterTRRNtNtCs6IAuOt8vWmF_3syn4data7VariantRNtNtCsjOBAykZTw0C_11clap_derive4item4ItemEENCNvNtNtB2l_7derives10subcommand27gen_update_from_arg_matchess0_0EINtNtB7_6result6ResultNtNtB7_7convert10InfallibleNtNtB1L_5error5ErrorEENtNtNtB5_6traits8iterator8Iterator8try_folduNCINvNvB5b_12try_for_each4callNtCs3cP53eQoTwO_11proc_macro211TokenStreamINtNtNtB7_3ops12control_flow11ControlFlowB6n_ENcNtB73_5Break0E0B73_EB2l_, symObjAddr: 0x17CC, symBinAddr: 0x4DC70, symSize: 0xA4 }
  - { offset: 0x913EB, size: 0x8, addend: 0x0, symName: __RINvXNtNtCsfvfooZQ3Axs_4core4iter8adaptersINtB3_12GenericShuntINtNtB3_3map3MapINtNtNtB7_5slice4iter4IterTRRNtNtCs6IAuOt8vWmF_3syn4data7VariantRNtNtCsjOBAykZTw0C_11clap_derive4item4ItemEENCNvNtNtB2l_7derives10subcommand27gen_update_from_arg_matchess1_0EINtNtB7_6result6ResultNtNtB7_7convert10InfallibleNtNtB1L_5error5ErrorEENtNtNtB5_6traits8iterator8Iterator8try_folduNCINvNvB5b_12try_for_each4callNtCs3cP53eQoTwO_11proc_macro211TokenStreamINtNtNtB7_3ops12control_flow11ControlFlowB6n_ENcNtB73_5Break0E0B73_EB2l_, symObjAddr: 0x1870, symBinAddr: 0x4DD14, symSize: 0xA4 }
  - { offset: 0x914A6, size: 0x8, addend: 0x0, symName: __RNCINvXNtNtCsfvfooZQ3Axs_4core4iter8adaptersINtB5_12GenericShuntINtNtB5_3map3MapINtNtCs6IAuOt8vWmF_3syn10punctuated4IterNtNtB1l_4data5FieldENCNvNtNtCsjOBAykZTw0C_11clap_derive7derives4args11derive_args0EINtNtB9_6result6ResultNtNtB9_7convert10InfallibleNtNtB1l_5error5ErrorEENtNtNtB7_6traits8iterator8Iterator8try_folduNCINvNvB4o_12try_for_each4callTRB1U_NtNtB2m_4item4ItemEINtNtNtB9_3ops12control_flow11ControlFlowB5A_ENcNtB5Z_5Break0E0B5Z_E0B2m_, symObjAddr: 0x1914, symBinAddr: 0x4DDB8, symSize: 0x22C }
  - { offset: 0x91599, size: 0x8, addend: 0x0, symName: __RNCINvXNtNtCsfvfooZQ3Axs_4core4iter8adaptersINtB5_12GenericShuntINtNtB5_3map3MapINtNtCs6IAuOt8vWmF_3syn10punctuated4IterNtNtB1l_4data5FieldENCNvNtNtCsjOBAykZTw0C_11clap_derive7derives4args19collect_args_fields0EINtNtB9_6result6ResultNtNtB9_7convert10InfallibleNtNtB1l_5error5ErrorEENtNtNtB7_6traits8iterator8Iterator8try_folduNCINvNvB4w_12try_for_each4callTRB1U_NtNtB2m_4item4ItemEINtNtNtB9_3ops12control_flow11ControlFlowB5I_ENcNtB67_5Break0E0B67_E0B2m_, symObjAddr: 0x1B40, symBinAddr: 0x4DFE4, symSize: 0x22C }
  - { offset: 0x9168C, size: 0x8, addend: 0x0, symName: __RNCINvXNtNtCsfvfooZQ3Axs_4core4iter8adaptersINtB5_12GenericShuntINtNtB5_3map3MapINtNtCs6IAuOt8vWmF_3syn10punctuated4IterNtNtB1l_4data5FieldENCNvNtNtCsjOBAykZTw0C_11clap_derive7derives6parser13derive_parser0EINtNtB9_6result6ResultNtNtB9_7convert10InfallibleNtNtB1l_5error5ErrorEENtNtNtB7_6traits8iterator8Iterator8try_folduNCINvNvB4s_12try_for_each4callTRB1U_NtNtB2m_4item4ItemEINtNtNtB9_3ops12control_flow11ControlFlowB5E_ENcNtB63_5Break0E0B63_E0B2m_, symObjAddr: 0x1D6C, symBinAddr: 0x4E210, symSize: 0x22C }
  - { offset: 0x9177F, size: 0x8, addend: 0x0, symName: __RNCINvXNtNtCsfvfooZQ3Axs_4core4iter8adaptersINtB5_12GenericShuntINtNtB5_3map3MapINtNtCs6IAuOt8vWmF_3syn10punctuated4IterNtNtB1l_4data7VariantENCNvNtNtCsjOBAykZTw0C_11clap_derive7derives10subcommand17derive_subcommand0EINtNtB9_6result6ResultNtNtB9_7convert10InfallibleNtNtB1l_5error5ErrorEENtNtNtB7_6traits8iterator8Iterator8try_folduNCINvNvB4D_12try_for_each4callTRB1U_NtNtB2o_4item4ItemEINtNtNtB9_3ops12control_flow11ControlFlowB5P_ENcNtB6e_5Break0E0B6e_E0B2o_, symObjAddr: 0x1F98, symBinAddr: 0x4E43C, symSize: 0x22C }
  - { offset: 0x91872, size: 0x8, addend: 0x0, symName: __RNCINvXNtNtCsfvfooZQ3Axs_4core4iter8adaptersINtB5_12GenericShuntINtNtB5_3map3MapINtNtCs6IAuOt8vWmF_3syn10punctuated4IterNtNtB1l_4data7VariantENCNvNtNtCsjOBAykZTw0C_11clap_derive7derives6parser13derive_parsers_0EINtNtB9_6result6ResultNtNtB9_7convert10InfallibleNtNtB1l_5error5ErrorEENtNtNtB7_6traits8iterator8Iterator8try_folduNCINvNvB4w_12try_for_each4callTRB1U_NtNtB2o_4item4ItemEINtNtNtB9_3ops12control_flow11ControlFlowB5I_ENcNtB67_5Break0E0B67_E0B2o_, symObjAddr: 0x21C4, symBinAddr: 0x4E668, symSize: 0x22C }
  - { offset: 0x91965, size: 0x8, addend: 0x0, symName: __RNCINvXNtNtCsfvfooZQ3Axs_4core4iter8adaptersINtB5_12GenericShuntINtNtB5_3map3MapINtNtNtB9_5slice4iter4IterTRNtNtCs6IAuOt8vWmF_3syn4data5FieldNtNtCsjOBAykZTw0C_11clap_derive4item4ItemEENCNvNtNtB2j_7derives4args15gen_constructor0EINtNtB9_6result6ResultNtNtB9_7convert10InfallibleNtNtB1M_5error5ErrorEENtNtNtB7_6traits8iterator8Iterator8try_folduNCINvNvB4N_12try_for_each4callNtCs3cP53eQoTwO_11proc_macro211TokenStreamINtNtNtB9_3ops12control_flow11ControlFlowB5Z_ENcNtB6F_5Break0E0B6F_E0B2j_, symObjAddr: 0x23F0, symBinAddr: 0x4E894, symSize: 0x1EC }
  - { offset: 0x91A58, size: 0x8, addend: 0x0, symName: __RNCINvXNtNtCsfvfooZQ3Axs_4core4iter8adaptersINtB5_12GenericShuntINtNtB5_3map3MapINtNtNtB9_5slice4iter4IterTRRNtNtCs6IAuOt8vWmF_3syn4data7VariantRNtNtCsjOBAykZTw0C_11clap_derive4item4ItemEENCNvNtNtB2n_7derives10subcommand18gen_has_subcommands1_0EINtNtB9_6result6ResultNtNtB9_7convert10InfallibleNtNtB1N_5error5ErrorEENtNtNtB7_6traits8iterator8Iterator8try_folduNCINvNvB54_12try_for_each4callNtCs3cP53eQoTwO_11proc_macro211TokenStreamINtNtNtB9_3ops12control_flow11ControlFlowB6g_ENcNtB6W_5Break0E0B6W_E0B2n_, symObjAddr: 0x25DC, symBinAddr: 0x4EA80, symSize: 0x1EC }
  - { offset: 0x91B4B, size: 0x8, addend: 0x0, symName: __RNCINvXNtNtCsfvfooZQ3Axs_4core4iter8adaptersINtB5_12GenericShuntINtNtB5_3map3MapINtNtNtB9_5slice4iter4IterTRRNtNtCs6IAuOt8vWmF_3syn4data7VariantRNtNtCsjOBAykZTw0C_11clap_derive4item4ItemEENCNvNtNtB2n_7derives10subcommand20gen_from_arg_matches0EINtNtB9_6result6ResultNtNtB9_7convert10InfallibleNtNtB1N_5error5ErrorEENtNtNtB7_6traits8iterator8Iterator8try_folduNCINvNvB53_12try_for_each4callNtCs3cP53eQoTwO_11proc_macro211TokenStreamINtNtNtB9_3ops12control_flow11ControlFlowB6f_ENcNtB6V_5Break0E0B6V_E0B2n_, symObjAddr: 0x27C8, symBinAddr: 0x4EC6C, symSize: 0x1EC }
  - { offset: 0x91C3E, size: 0x8, addend: 0x0, symName: __RNCINvXNtNtCsfvfooZQ3Axs_4core4iter8adaptersINtB5_12GenericShuntINtNtB5_3map3MapINtNtNtB9_5slice4iter4IterTRRNtNtCs6IAuOt8vWmF_3syn4data7VariantRNtNtCsjOBAykZTw0C_11clap_derive4item4ItemEENCNvNtNtB2n_7derives10subcommand20gen_from_arg_matchess_0EINtNtB9_6result6ResultNtNtB9_7convert10InfallibleNtNtB1N_5error5ErrorEENtNtNtB7_6traits8iterator8Iterator8try_folduNCINvNvB55_12try_for_each4callNtCs3cP53eQoTwO_11proc_macro211TokenStreamINtNtNtB9_3ops12control_flow11ControlFlowB6h_ENcNtB6X_5Break0E0B6X_E0B2n_, symObjAddr: 0x29B4, symBinAddr: 0x4EE58, symSize: 0x1EC }
  - { offset: 0x91D31, size: 0x8, addend: 0x0, symName: __RNCINvXNtNtCsfvfooZQ3Axs_4core4iter8adaptersINtB5_12GenericShuntINtNtB5_3map3MapINtNtNtB9_5slice4iter4IterTRRNtNtCs6IAuOt8vWmF_3syn4data7VariantRNtNtCsjOBAykZTw0C_11clap_derive4item4ItemEENCNvNtNtB2n_7derives10subcommand27gen_update_from_arg_matchess0_0EINtNtB9_6result6ResultNtNtB9_7convert10InfallibleNtNtB1N_5error5ErrorEENtNtNtB7_6traits8iterator8Iterator8try_folduNCINvNvB5d_12try_for_each4callNtCs3cP53eQoTwO_11proc_macro211TokenStreamINtNtNtB9_3ops12control_flow11ControlFlowB6p_ENcNtB75_5Break0E0B75_E0B2n_, symObjAddr: 0x2BA0, symBinAddr: 0x4F044, symSize: 0x1EC }
  - { offset: 0x91E24, size: 0x8, addend: 0x0, symName: __RNCINvXNtNtCsfvfooZQ3Axs_4core4iter8adaptersINtB5_12GenericShuntINtNtB5_3map3MapINtNtNtB9_5slice4iter4IterTRRNtNtCs6IAuOt8vWmF_3syn4data7VariantRNtNtCsjOBAykZTw0C_11clap_derive4item4ItemEENCNvNtNtB2n_7derives10subcommand27gen_update_from_arg_matchess1_0EINtNtB9_6result6ResultNtNtB9_7convert10InfallibleNtNtB1N_5error5ErrorEENtNtNtB7_6traits8iterator8Iterator8try_folduNCINvNvB5d_12try_for_each4callNtCs3cP53eQoTwO_11proc_macro211TokenStreamINtNtNtB9_3ops12control_flow11ControlFlowB6p_ENcNtB75_5Break0E0B75_E0B2n_, symObjAddr: 0x2D8C, symBinAddr: 0x4F230, symSize: 0x1EC }
  - { offset: 0x91F18, size: 0x8, addend: 0x0, symName: __RNvXNtNtCsfvfooZQ3Axs_4core4iter8adaptersINtB2_12GenericShuntINtNtB2_3map3MapINtNtCs6IAuOt8vWmF_3syn10punctuated4IterNtNtB1i_4data5FieldENCNvNtNtCsjOBAykZTw0C_11clap_derive7derives4args11derive_args0EINtNtB6_6result6ResultNtNtB6_7convert10InfallibleNtNtB1i_5error5ErrorEENtNtNtB4_6traits8iterator8Iterator4nextB2j_, symObjAddr: 0x3128, symBinAddr: 0x4F5CC, symSize: 0xB0 }
  - { offset: 0x91FA7, size: 0x8, addend: 0x0, symName: __RNvXNtNtCsfvfooZQ3Axs_4core4iter8adaptersINtB2_12GenericShuntINtNtB2_3map3MapINtNtCs6IAuOt8vWmF_3syn10punctuated4IterNtNtB1i_4data5FieldENCNvNtNtCsjOBAykZTw0C_11clap_derive7derives4args11derive_args0EINtNtB6_6result6ResultNtNtB6_7convert10InfallibleNtNtB1i_5error5ErrorEENtNtNtB4_6traits8iterator8Iterator9size_hintB2j_, symObjAddr: 0x31D8, symBinAddr: 0x4F67C, symSize: 0xA8 }
  - { offset: 0x9201F, size: 0x8, addend: 0x0, symName: __RNvXNtNtCsfvfooZQ3Axs_4core4iter8adaptersINtB2_12GenericShuntINtNtB2_3map3MapINtNtCs6IAuOt8vWmF_3syn10punctuated4IterNtNtB1i_4data5FieldENCNvNtNtCsjOBAykZTw0C_11clap_derive7derives4args19collect_args_fields0EINtNtB6_6result6ResultNtNtB6_7convert10InfallibleNtNtB1i_5error5ErrorEENtNtNtB4_6traits8iterator8Iterator4nextB2j_, symObjAddr: 0x3280, symBinAddr: 0x4F724, symSize: 0xB0 }
  - { offset: 0x920AE, size: 0x8, addend: 0x0, symName: __RNvXNtNtCsfvfooZQ3Axs_4core4iter8adaptersINtB2_12GenericShuntINtNtB2_3map3MapINtNtCs6IAuOt8vWmF_3syn10punctuated4IterNtNtB1i_4data5FieldENCNvNtNtCsjOBAykZTw0C_11clap_derive7derives4args19collect_args_fields0EINtNtB6_6result6ResultNtNtB6_7convert10InfallibleNtNtB1i_5error5ErrorEENtNtNtB4_6traits8iterator8Iterator9size_hintB2j_, symObjAddr: 0x3330, symBinAddr: 0x4F7D4, symSize: 0xA8 }
  - { offset: 0x92126, size: 0x8, addend: 0x0, symName: __RNvXNtNtCsfvfooZQ3Axs_4core4iter8adaptersINtB2_12GenericShuntINtNtB2_3map3MapINtNtCs6IAuOt8vWmF_3syn10punctuated4IterNtNtB1i_4data5FieldENCNvNtNtCsjOBAykZTw0C_11clap_derive7derives6parser13derive_parser0EINtNtB6_6result6ResultNtNtB6_7convert10InfallibleNtNtB1i_5error5ErrorEENtNtNtB4_6traits8iterator8Iterator4nextB2j_, symObjAddr: 0x33D8, symBinAddr: 0x4F87C, symSize: 0xB0 }
  - { offset: 0x921B5, size: 0x8, addend: 0x0, symName: __RNvXNtNtCsfvfooZQ3Axs_4core4iter8adaptersINtB2_12GenericShuntINtNtB2_3map3MapINtNtCs6IAuOt8vWmF_3syn10punctuated4IterNtNtB1i_4data5FieldENCNvNtNtCsjOBAykZTw0C_11clap_derive7derives6parser13derive_parser0EINtNtB6_6result6ResultNtNtB6_7convert10InfallibleNtNtB1i_5error5ErrorEENtNtNtB4_6traits8iterator8Iterator9size_hintB2j_, symObjAddr: 0x3488, symBinAddr: 0x4F92C, symSize: 0xA8 }
  - { offset: 0x9222D, size: 0x8, addend: 0x0, symName: __RNvXNtNtCsfvfooZQ3Axs_4core4iter8adaptersINtB2_12GenericShuntINtNtB2_3map3MapINtNtCs6IAuOt8vWmF_3syn10punctuated4IterNtNtB1i_4data7VariantENCNvNtNtCsjOBAykZTw0C_11clap_derive7derives10subcommand17derive_subcommand0EINtNtB6_6result6ResultNtNtB6_7convert10InfallibleNtNtB1i_5error5ErrorEENtNtNtB4_6traits8iterator8Iterator4nextB2l_, symObjAddr: 0x3530, symBinAddr: 0x4F9D4, symSize: 0xB0 }
  - { offset: 0x922BC, size: 0x8, addend: 0x0, symName: __RNvXNtNtCsfvfooZQ3Axs_4core4iter8adaptersINtB2_12GenericShuntINtNtB2_3map3MapINtNtCs6IAuOt8vWmF_3syn10punctuated4IterNtNtB1i_4data7VariantENCNvNtNtCsjOBAykZTw0C_11clap_derive7derives10subcommand17derive_subcommand0EINtNtB6_6result6ResultNtNtB6_7convert10InfallibleNtNtB1i_5error5ErrorEENtNtNtB4_6traits8iterator8Iterator9size_hintB2l_, symObjAddr: 0x35E0, symBinAddr: 0x4FA84, symSize: 0xA8 }
  - { offset: 0x92334, size: 0x8, addend: 0x0, symName: __RNvXNtNtCsfvfooZQ3Axs_4core4iter8adaptersINtB2_12GenericShuntINtNtB2_3map3MapINtNtCs6IAuOt8vWmF_3syn10punctuated4IterNtNtB1i_4data7VariantENCNvNtNtCsjOBAykZTw0C_11clap_derive7derives6parser13derive_parsers_0EINtNtB6_6result6ResultNtNtB6_7convert10InfallibleNtNtB1i_5error5ErrorEENtNtNtB4_6traits8iterator8Iterator4nextB2l_, symObjAddr: 0x3688, symBinAddr: 0x4FB2C, symSize: 0xB0 }
  - { offset: 0x923C3, size: 0x8, addend: 0x0, symName: __RNvXNtNtCsfvfooZQ3Axs_4core4iter8adaptersINtB2_12GenericShuntINtNtB2_3map3MapINtNtCs6IAuOt8vWmF_3syn10punctuated4IterNtNtB1i_4data7VariantENCNvNtNtCsjOBAykZTw0C_11clap_derive7derives6parser13derive_parsers_0EINtNtB6_6result6ResultNtNtB6_7convert10InfallibleNtNtB1i_5error5ErrorEENtNtNtB4_6traits8iterator8Iterator9size_hintB2l_, symObjAddr: 0x3738, symBinAddr: 0x4FBDC, symSize: 0xA8 }
  - { offset: 0x9243B, size: 0x8, addend: 0x0, symName: __RNvXNtNtCsfvfooZQ3Axs_4core4iter8adaptersINtB2_12GenericShuntINtNtB2_3map3MapINtNtNtB6_5slice4iter4IterTRNtNtCs6IAuOt8vWmF_3syn4data5FieldNtNtCsjOBAykZTw0C_11clap_derive4item4ItemEENCNvNtNtB2g_7derives4args15gen_constructor0EINtNtB6_6result6ResultNtNtB6_7convert10InfallibleNtNtB1J_5error5ErrorEENtNtNtB4_6traits8iterator8Iterator4nextB2g_, symObjAddr: 0x37E0, symBinAddr: 0x4FC84, symSize: 0xA4 }
  - { offset: 0x924C9, size: 0x8, addend: 0x0, symName: __RNvXNtNtCsfvfooZQ3Axs_4core4iter8adaptersINtB2_12GenericShuntINtNtB2_3map3MapINtNtNtB6_5slice4iter4IterTRNtNtCs6IAuOt8vWmF_3syn4data5FieldNtNtCsjOBAykZTw0C_11clap_derive4item4ItemEENCNvNtNtB2g_7derives4args15gen_constructor0EINtNtB6_6result6ResultNtNtB6_7convert10InfallibleNtNtB1J_5error5ErrorEENtNtNtB4_6traits8iterator8Iterator9size_hintB2g_, symObjAddr: 0x3884, symBinAddr: 0x4FD28, symSize: 0xA8 }
  - { offset: 0x92541, size: 0x8, addend: 0x0, symName: __RNvXNtNtCsfvfooZQ3Axs_4core4iter8adaptersINtB2_12GenericShuntINtNtB2_3map3MapINtNtNtB6_5slice4iter4IterTRRNtNtCs6IAuOt8vWmF_3syn4data7VariantRNtNtCsjOBAykZTw0C_11clap_derive4item4ItemEENCNvNtNtB2k_7derives10subcommand18gen_has_subcommands1_0EINtNtB6_6result6ResultNtNtB6_7convert10InfallibleNtNtB1K_5error5ErrorEENtNtNtB4_6traits8iterator8Iterator4nextB2k_, symObjAddr: 0x392C, symBinAddr: 0x4FDD0, symSize: 0xA4 }
  - { offset: 0x925CF, size: 0x8, addend: 0x0, symName: __RNvXNtNtCsfvfooZQ3Axs_4core4iter8adaptersINtB2_12GenericShuntINtNtB2_3map3MapINtNtNtB6_5slice4iter4IterTRRNtNtCs6IAuOt8vWmF_3syn4data7VariantRNtNtCsjOBAykZTw0C_11clap_derive4item4ItemEENCNvNtNtB2k_7derives10subcommand18gen_has_subcommands1_0EINtNtB6_6result6ResultNtNtB6_7convert10InfallibleNtNtB1K_5error5ErrorEENtNtNtB4_6traits8iterator8Iterator9size_hintB2k_, symObjAddr: 0x39D0, symBinAddr: 0x4FE74, symSize: 0xA8 }
  - { offset: 0x92647, size: 0x8, addend: 0x0, symName: __RNvXNtNtCsfvfooZQ3Axs_4core4iter8adaptersINtB2_12GenericShuntINtNtB2_3map3MapINtNtNtB6_5slice4iter4IterTRRNtNtCs6IAuOt8vWmF_3syn4data7VariantRNtNtCsjOBAykZTw0C_11clap_derive4item4ItemEENCNvNtNtB2k_7derives10subcommand20gen_from_arg_matches0EINtNtB6_6result6ResultNtNtB6_7convert10InfallibleNtNtB1K_5error5ErrorEENtNtNtB4_6traits8iterator8Iterator4nextB2k_, symObjAddr: 0x3A78, symBinAddr: 0x4FF1C, symSize: 0xA4 }
  - { offset: 0x926D5, size: 0x8, addend: 0x0, symName: __RNvXNtNtCsfvfooZQ3Axs_4core4iter8adaptersINtB2_12GenericShuntINtNtB2_3map3MapINtNtNtB6_5slice4iter4IterTRRNtNtCs6IAuOt8vWmF_3syn4data7VariantRNtNtCsjOBAykZTw0C_11clap_derive4item4ItemEENCNvNtNtB2k_7derives10subcommand20gen_from_arg_matches0EINtNtB6_6result6ResultNtNtB6_7convert10InfallibleNtNtB1K_5error5ErrorEENtNtNtB4_6traits8iterator8Iterator9size_hintB2k_, symObjAddr: 0x3B1C, symBinAddr: 0x4FFC0, symSize: 0xA8 }
  - { offset: 0x9274D, size: 0x8, addend: 0x0, symName: __RNvXNtNtCsfvfooZQ3Axs_4core4iter8adaptersINtB2_12GenericShuntINtNtB2_3map3MapINtNtNtB6_5slice4iter4IterTRRNtNtCs6IAuOt8vWmF_3syn4data7VariantRNtNtCsjOBAykZTw0C_11clap_derive4item4ItemEENCNvNtNtB2k_7derives10subcommand20gen_from_arg_matchess_0EINtNtB6_6result6ResultNtNtB6_7convert10InfallibleNtNtB1K_5error5ErrorEENtNtNtB4_6traits8iterator8Iterator4nextB2k_, symObjAddr: 0x3BC4, symBinAddr: 0x50068, symSize: 0xA4 }
  - { offset: 0x927DB, size: 0x8, addend: 0x0, symName: __RNvXNtNtCsfvfooZQ3Axs_4core4iter8adaptersINtB2_12GenericShuntINtNtB2_3map3MapINtNtNtB6_5slice4iter4IterTRRNtNtCs6IAuOt8vWmF_3syn4data7VariantRNtNtCsjOBAykZTw0C_11clap_derive4item4ItemEENCNvNtNtB2k_7derives10subcommand20gen_from_arg_matchess_0EINtNtB6_6result6ResultNtNtB6_7convert10InfallibleNtNtB1K_5error5ErrorEENtNtNtB4_6traits8iterator8Iterator9size_hintB2k_, symObjAddr: 0x3C68, symBinAddr: 0x5010C, symSize: 0xA8 }
  - { offset: 0x92853, size: 0x8, addend: 0x0, symName: __RNvXNtNtCsfvfooZQ3Axs_4core4iter8adaptersINtB2_12GenericShuntINtNtB2_3map3MapINtNtNtB6_5slice4iter4IterTRRNtNtCs6IAuOt8vWmF_3syn4data7VariantRNtNtCsjOBAykZTw0C_11clap_derive4item4ItemEENCNvNtNtB2k_7derives10subcommand27gen_update_from_arg_matchess0_0EINtNtB6_6result6ResultNtNtB6_7convert10InfallibleNtNtB1K_5error5ErrorEENtNtNtB4_6traits8iterator8Iterator4nextB2k_, symObjAddr: 0x3D10, symBinAddr: 0x501B4, symSize: 0xA4 }
  - { offset: 0x928E1, size: 0x8, addend: 0x0, symName: __RNvXNtNtCsfvfooZQ3Axs_4core4iter8adaptersINtB2_12GenericShuntINtNtB2_3map3MapINtNtNtB6_5slice4iter4IterTRRNtNtCs6IAuOt8vWmF_3syn4data7VariantRNtNtCsjOBAykZTw0C_11clap_derive4item4ItemEENCNvNtNtB2k_7derives10subcommand27gen_update_from_arg_matchess0_0EINtNtB6_6result6ResultNtNtB6_7convert10InfallibleNtNtB1K_5error5ErrorEENtNtNtB4_6traits8iterator8Iterator9size_hintB2k_, symObjAddr: 0x3DB4, symBinAddr: 0x50258, symSize: 0xA8 }
  - { offset: 0x92959, size: 0x8, addend: 0x0, symName: __RNvXNtNtCsfvfooZQ3Axs_4core4iter8adaptersINtB2_12GenericShuntINtNtB2_3map3MapINtNtNtB6_5slice4iter4IterTRRNtNtCs6IAuOt8vWmF_3syn4data7VariantRNtNtCsjOBAykZTw0C_11clap_derive4item4ItemEENCNvNtNtB2k_7derives10subcommand27gen_update_from_arg_matchess1_0EINtNtB6_6result6ResultNtNtB6_7convert10InfallibleNtNtB1K_5error5ErrorEENtNtNtB4_6traits8iterator8Iterator4nextB2k_, symObjAddr: 0x3E5C, symBinAddr: 0x50300, symSize: 0xA4 }
  - { offset: 0x929E7, size: 0x8, addend: 0x0, symName: __RNvXNtNtCsfvfooZQ3Axs_4core4iter8adaptersINtB2_12GenericShuntINtNtB2_3map3MapINtNtNtB6_5slice4iter4IterTRRNtNtCs6IAuOt8vWmF_3syn4data7VariantRNtNtCsjOBAykZTw0C_11clap_derive4item4ItemEENCNvNtNtB2k_7derives10subcommand27gen_update_from_arg_matchess1_0EINtNtB6_6result6ResultNtNtB6_7convert10InfallibleNtNtB1K_5error5ErrorEENtNtNtB4_6traits8iterator8Iterator9size_hintB2k_, symObjAddr: 0x3F00, symBinAddr: 0x503A4, symSize: 0xA8 }
  - { offset: 0x9322B, size: 0x8, addend: 0x0, symName: __RNvXNtNtNtCsfvfooZQ3Axs_4core4iter6traits7collectINtNtB6_8adapters12GenericShuntINtNtBO_3map3MapINtNtCs6IAuOt8vWmF_3syn10punctuated4IterNtNtB1B_4data5FieldENCNvNtNtCsjOBAykZTw0C_11clap_derive7derives4args11derive_args0EINtNtB8_6result6ResultNtNtB8_7convert10InfallibleNtNtB1B_5error5ErrorEENtB2_12IntoIterator9into_iterB2C_, symObjAddr: 0x3FA8, symBinAddr: 0x5044C, symSize: 0x14 }
  - { offset: 0x93262, size: 0x8, addend: 0x0, symName: __RNvXNtNtNtCsfvfooZQ3Axs_4core4iter6traits7collectINtNtB6_8adapters12GenericShuntINtNtBO_3map3MapINtNtCs6IAuOt8vWmF_3syn10punctuated4IterNtNtB1B_4data5FieldENCNvNtNtCsjOBAykZTw0C_11clap_derive7derives4args19collect_args_fields0EINtNtB8_6result6ResultNtNtB8_7convert10InfallibleNtNtB1B_5error5ErrorEENtB2_12IntoIterator9into_iterB2C_, symObjAddr: 0x3FBC, symBinAddr: 0x50460, symSize: 0x14 }
  - { offset: 0x93299, size: 0x8, addend: 0x0, symName: __RNvXNtNtNtCsfvfooZQ3Axs_4core4iter6traits7collectINtNtB6_8adapters12GenericShuntINtNtBO_3map3MapINtNtCs6IAuOt8vWmF_3syn10punctuated4IterNtNtB1B_4data5FieldENCNvNtNtCsjOBAykZTw0C_11clap_derive7derives6parser13derive_parser0EINtNtB8_6result6ResultNtNtB8_7convert10InfallibleNtNtB1B_5error5ErrorEENtB2_12IntoIterator9into_iterB2C_, symObjAddr: 0x3FD0, symBinAddr: 0x50474, symSize: 0x14 }
  - { offset: 0x932D0, size: 0x8, addend: 0x0, symName: __RNvXNtNtNtCsfvfooZQ3Axs_4core4iter6traits7collectINtNtB6_8adapters12GenericShuntINtNtBO_3map3MapINtNtCs6IAuOt8vWmF_3syn10punctuated4IterNtNtB1B_4data7VariantENCNvNtNtCsjOBAykZTw0C_11clap_derive7derives10subcommand17derive_subcommand0EINtNtB8_6result6ResultNtNtB8_7convert10InfallibleNtNtB1B_5error5ErrorEENtB2_12IntoIterator9into_iterB2E_, symObjAddr: 0x3FE4, symBinAddr: 0x50488, symSize: 0x14 }
  - { offset: 0x93307, size: 0x8, addend: 0x0, symName: __RNvXNtNtNtCsfvfooZQ3Axs_4core4iter6traits7collectINtNtB6_8adapters12GenericShuntINtNtBO_3map3MapINtNtCs6IAuOt8vWmF_3syn10punctuated4IterNtNtB1B_4data7VariantENCNvNtNtCsjOBAykZTw0C_11clap_derive7derives6parser13derive_parsers_0EINtNtB8_6result6ResultNtNtB8_7convert10InfallibleNtNtB1B_5error5ErrorEENtB2_12IntoIterator9into_iterB2E_, symObjAddr: 0x3FF8, symBinAddr: 0x5049C, symSize: 0x14 }
  - { offset: 0x9333E, size: 0x8, addend: 0x0, symName: __RNvXNtNtNtCsfvfooZQ3Axs_4core4iter6traits7collectINtNtB6_8adapters12GenericShuntINtNtBO_3map3MapINtNtNtB8_5slice4iter4IterTRNtNtCs6IAuOt8vWmF_3syn4data5FieldNtNtCsjOBAykZTw0C_11clap_derive4item4ItemEENCNvNtNtB2z_7derives4args15gen_constructor0EINtNtB8_6result6ResultNtNtB8_7convert10InfallibleNtNtB22_5error5ErrorEENtB2_12IntoIterator9into_iterB2z_, symObjAddr: 0x400C, symBinAddr: 0x504B0, symSize: 0x18 }
  - { offset: 0x93375, size: 0x8, addend: 0x0, symName: __RNvXNtNtNtCsfvfooZQ3Axs_4core4iter6traits7collectINtNtB6_8adapters12GenericShuntINtNtBO_3map3MapINtNtNtB8_5slice4iter4IterTRRNtNtCs6IAuOt8vWmF_3syn4data7VariantRNtNtCsjOBAykZTw0C_11clap_derive4item4ItemEENCNvNtNtB2D_7derives10subcommand18gen_has_subcommands1_0EINtNtB8_6result6ResultNtNtB8_7convert10InfallibleNtNtB23_5error5ErrorEENtB2_12IntoIterator9into_iterB2D_, symObjAddr: 0x4024, symBinAddr: 0x504C8, symSize: 0x18 }
  - { offset: 0x933AC, size: 0x8, addend: 0x0, symName: __RNvXNtNtNtCsfvfooZQ3Axs_4core4iter6traits7collectINtNtB6_8adapters12GenericShuntINtNtBO_3map3MapINtNtNtB8_5slice4iter4IterTRRNtNtCs6IAuOt8vWmF_3syn4data7VariantRNtNtCsjOBAykZTw0C_11clap_derive4item4ItemEENCNvNtNtB2D_7derives10subcommand20gen_from_arg_matches0EINtNtB8_6result6ResultNtNtB8_7convert10InfallibleNtNtB23_5error5ErrorEENtB2_12IntoIterator9into_iterB2D_, symObjAddr: 0x403C, symBinAddr: 0x504E0, symSize: 0x30 }
  - { offset: 0x933E4, size: 0x8, addend: 0x0, symName: __RNvXNtNtNtCsfvfooZQ3Axs_4core4iter6traits7collectINtNtB6_8adapters12GenericShuntINtNtBO_3map3MapINtNtNtB8_5slice4iter4IterTRRNtNtCs6IAuOt8vWmF_3syn4data7VariantRNtNtCsjOBAykZTw0C_11clap_derive4item4ItemEENCNvNtNtB2D_7derives10subcommand20gen_from_arg_matchess_0EINtNtB8_6result6ResultNtNtB8_7convert10InfallibleNtNtB23_5error5ErrorEENtB2_12IntoIterator9into_iterB2D_, symObjAddr: 0x406C, symBinAddr: 0x50510, symSize: 0x18 }
  - { offset: 0x9341B, size: 0x8, addend: 0x0, symName: __RNvXNtNtNtCsfvfooZQ3Axs_4core4iter6traits7collectINtNtB6_8adapters12GenericShuntINtNtBO_3map3MapINtNtNtB8_5slice4iter4IterTRRNtNtCs6IAuOt8vWmF_3syn4data7VariantRNtNtCsjOBAykZTw0C_11clap_derive4item4ItemEENCNvNtNtB2D_7derives10subcommand27gen_update_from_arg_matchess0_0EINtNtB8_6result6ResultNtNtB8_7convert10InfallibleNtNtB23_5error5ErrorEENtB2_12IntoIterator9into_iterB2D_, symObjAddr: 0x4084, symBinAddr: 0x50528, symSize: 0x18 }
  - { offset: 0x93452, size: 0x8, addend: 0x0, symName: __RNvXNtNtNtCsfvfooZQ3Axs_4core4iter6traits7collectINtNtB6_8adapters12GenericShuntINtNtBO_3map3MapINtNtNtB8_5slice4iter4IterTRRNtNtCs6IAuOt8vWmF_3syn4data7VariantRNtNtCsjOBAykZTw0C_11clap_derive4item4ItemEENCNvNtNtB2D_7derives10subcommand27gen_update_from_arg_matchess1_0EINtNtB8_6result6ResultNtNtB8_7convert10InfallibleNtNtB23_5error5ErrorEENtB2_12IntoIterator9into_iterB2D_, symObjAddr: 0x409C, symBinAddr: 0x50540, symSize: 0x18 }
  - { offset: 0x93A86, size: 0x8, addend: 0x0, symName: __RNvNvMsc_NtNtCsfvfooZQ3Axs_4core3num7nonzeroINtB7_7NonZeropE13new_unchecked18precondition_checkCsjOBAykZTw0C_11clap_derive, symObjAddr: 0x30AC, symBinAddr: 0x4F550, symSize: 0x1C }
  - { offset: 0x95F28, size: 0x8, addend: 0x0, symName: __RNvNtNtCsfvfooZQ3Axs_4core5slice6memchr6memchrCsjOBAykZTw0C_11clap_derive, symObjAddr: 0x2F98, symBinAddr: 0x4F43C, symSize: 0x114 }
  - { offset: 0x9605A, size: 0x8, addend: 0x0, symName: __RNvNvXs5_NtNtCsfvfooZQ3Axs_4core3str6traitsINtNtNtBb_3ops5range5RangejEINtNtNtBb_5slice5index10SliceIndexeE13get_unchecked18precondition_checkCsjOBAykZTw0C_11clap_derive, symObjAddr: 0x30C8, symBinAddr: 0x4F56C, symSize: 0x60 }
  - { offset: 0x960A5, size: 0x8, addend: 0x0, symName: __RNvXs_NtNtCsfvfooZQ3Axs_4core3str6traitseNtNtB8_3cmp9PartialEq2eqCsjOBAykZTw0C_11clap_derive, symObjAddr: 0x4110, symBinAddr: 0x505B4, symSize: 0x64 }
  - { offset: 0x9CDB3, size: 0x8, addend: 0x0, symName: __RNvMNtNtCs2cqEZUIJimJ_5quote9___private8get_spanINtB2_7GetSpanNtCs3cP53eQoTwO_11proc_macro24SpanE11___into_spanCsjOBAykZTw0C_11clap_derive, symObjAddr: 0x2F78, symBinAddr: 0x4F41C, symSize: 0x20 }
  - { offset: 0x9D4A1, size: 0x8, addend: 0x0, symName: __RINvMs3_NtNtCs9i5KxIbZ5ph_10proc_macro6bridge6bufferNtB6_6Buffer17extend_from_arrayKj4_ECsjOBAykZTw0C_11clap_derive, symObjAddr: 0x0, symBinAddr: 0x50618, symSize: 0x16C }
  - { offset: 0x9DC3A, size: 0x8, addend: 0x0, symName: __RNvNvNtCsfvfooZQ3Axs_4core3ptr13read_volatile18precondition_checkCsjOBAykZTw0C_11clap_derive, symObjAddr: 0x928, symBinAddr: 0x50F3C, symSize: 0x100 }
  - { offset: 0x9E410, size: 0x8, addend: 0x0, symName: __RNvNvNtCsfvfooZQ3Axs_4core10intrinsics19copy_nonoverlapping18precondition_checkCsjOBAykZTw0C_11clap_derive, symObjAddr: 0x644, symBinAddr: 0x50C58, symSize: 0x2E4 }
  - { offset: 0xA1213, size: 0x8, addend: 0x0, symName: __RNvNvMNtNtCsfvfooZQ3Axs_4core5alloc6layoutNtB4_6Layout25from_size_align_unchecked18precondition_checkCsjOBAykZTw0C_11clap_derive, symObjAddr: 0x5F4, symBinAddr: 0x50C08, symSize: 0x50 }
  - { offset: 0xA159E, size: 0x8, addend: 0x0, symName: __RNvNvNtCsfvfooZQ3Axs_4core9ub_checks23maybe_is_nonoverlapping7runtimeCsjOBAykZTw0C_11clap_derive, symObjAddr: 0xA28, symBinAddr: 0x5103C, symSize: 0xD8 }
  - { offset: 0xA187D, size: 0x8, addend: 0x0, symName: __RNvXs2_NtNtCsfvfooZQ3Axs_4core3str7patterncNtB5_7Pattern13into_searcherCsjOBAykZTw0C_11clap_derive, symObjAddr: 0xBCC, symBinAddr: 0x511E0, symSize: 0x114 }
  - { offset: 0xA1995, size: 0x8, addend: 0x0, symName: __RNvXs2_NtNtCsfvfooZQ3Axs_4core3str7patterncNtB5_7Pattern15as_utf8_patternCsjOBAykZTw0C_11clap_derive, symObjAddr: 0xCE0, symBinAddr: 0x512F4, symSize: 0x34 }
  - { offset: 0xA19C3, size: 0x8, addend: 0x0, symName: __RNvXs2_NtNtCsfvfooZQ3Axs_4core3str7patterncNtB5_7Pattern15strip_prefix_ofCsjOBAykZTw0C_11clap_derive, symObjAddr: 0xD14, symBinAddr: 0x51328, symSize: 0x64 }
  - { offset: 0xA1A2C, size: 0x8, addend: 0x0, symName: __RNvXs7_NtNtCsfvfooZQ3Axs_4core3str7patternINtB5_18MultiCharEqPatternNCNvMB7_e4trim0ENtB5_7Pattern13into_searcherCsjOBAykZTw0C_11clap_derive, symObjAddr: 0xE04, symBinAddr: 0x51418, symSize: 0x90 }
  - { offset: 0xA1A8E, size: 0x8, addend: 0x0, symName: __RNvXs8_NtNtCsfvfooZQ3Axs_4core3str7patternINtB5_19MultiCharEqSearcherNCNvMB7_e4trim0ENtB5_8Searcher4nextCsjOBAykZTw0C_11clap_derive, symObjAddr: 0xE94, symBinAddr: 0x514A8, symSize: 0x13C }
  - { offset: 0xA1BB4, size: 0x8, addend: 0x0, symName: __RNvXs9_NtNtCsfvfooZQ3Axs_4core3str7patternINtB5_19MultiCharEqSearcherNCNvMB7_e4trim0ENtB5_15ReverseSearcher9next_backCsjOBAykZTw0C_11clap_derive, symObjAddr: 0xFD0, symBinAddr: 0x515E4, symSize: 0x13C }
  - { offset: 0xA1D41, size: 0x8, addend: 0x0, symName: __RNvXs_NtNtCsfvfooZQ3Axs_4core3str7patternNtB4_12CharSearcherNtB4_8Searcher10next_matchCsjOBAykZTw0C_11clap_derive, symObjAddr: 0x1148, symBinAddr: 0x5175C, symSize: 0x384 }
  - { offset: 0xA21E2, size: 0x8, addend: 0x0, symName: __RNvXs_NtNtCsfvfooZQ3Axs_4core3str7patternNtB4_12CharSearcherNtB4_8Searcher8haystackCsjOBAykZTw0C_11clap_derive, symObjAddr: 0x14CC, symBinAddr: 0x51AE0, symSize: 0x20 }
  - { offset: 0xA2216, size: 0x8, addend: 0x0, symName: __RNvXso_NtNtCsfvfooZQ3Axs_4core3str7patternINtB5_21CharPredicateSearcherNCNvMB7_e4trim0ENtB5_8Searcher11next_rejectCsjOBAykZTw0C_11clap_derive, symObjAddr: 0x1824, symBinAddr: 0x51E38, symSize: 0x24 }
  - { offset: 0xA2253, size: 0x8, addend: 0x0, symName: __RNvXsp_NtNtCsfvfooZQ3Axs_4core3str7patternINtB5_21CharPredicateSearcherNCNvMB7_e4trim0ENtB5_15ReverseSearcher16next_reject_backCsjOBAykZTw0C_11clap_derive, symObjAddr: 0x1848, symBinAddr: 0x51E5C, symSize: 0x24 }
  - { offset: 0xA2290, size: 0x8, addend: 0x0, symName: __RNvXst_NtNtCsfvfooZQ3Axs_4core3str7patternReNtB5_7Pattern12is_suffix_ofCsjOBAykZTw0C_11clap_derive, symObjAddr: 0x186C, symBinAddr: 0x51E80, symSize: 0x4C }
  - { offset: 0xA22F7, size: 0x8, addend: 0x0, symName: __RNvXst_NtNtCsfvfooZQ3Axs_4core3str7patternReNtB5_7Pattern15strip_prefix_ofCsjOBAykZTw0C_11clap_derive, symObjAddr: 0x18B8, symBinAddr: 0x51ECC, symSize: 0xE0 }
  - { offset: 0xA2475, size: 0x8, addend: 0x0, symName: __RNvYINtNtNtCsfvfooZQ3Axs_4core3str7pattern19MultiCharEqSearcherNCNvMB7_e4trim0ENtB5_15ReverseSearcher16next_reject_backCsjOBAykZTw0C_11clap_derive, symObjAddr: 0x1998, symBinAddr: 0x51FAC, symSize: 0x90 }
  - { offset: 0xA24E0, size: 0x8, addend: 0x0, symName: __RNvYINtNtNtCsfvfooZQ3Axs_4core3str7pattern19MultiCharEqSearcherNCNvMB7_e4trim0ENtB5_8Searcher11next_rejectCsjOBAykZTw0C_11clap_derive, symObjAddr: 0x1A28, symBinAddr: 0x5203C, symSize: 0x90 }
  - { offset: 0xA2BDA, size: 0x8, addend: 0x0, symName: __RNvXs5_NtNtCs9i5KxIbZ5ph_10proc_macro6bridge6bufferNtB5_6BufferNtNtNtCsfvfooZQ3Axs_4core3ops4drop4Drop4dropCsjOBAykZTw0C_11clap_derive, symObjAddr: 0xD78, symBinAddr: 0x5138C, symSize: 0x8C }
  - { offset: 0xA2FDD, size: 0x8, addend: 0x0, symName: __RNvXNtNtCs9i5KxIbZ5ph_10proc_macro6bridge3rpcuINtB2_6EncodeuE6encodeCsjOBAykZTw0C_11clap_derive, symObjAddr: 0xB40, symBinAddr: 0x51154, symSize: 0x14 }
  - { offset: 0xA3056, size: 0x8, addend: 0x0, symName: __RNvXsa_NtNtCs9i5KxIbZ5ph_10proc_macro6bridge3rpcRShINtB5_6EncodeuE6encodeCsjOBAykZTw0C_11clap_derive, symObjAddr: 0x14EC, symBinAddr: 0x51B00, symSize: 0xD0 }
  - { offset: 0xA3158, size: 0x8, addend: 0x0, symName: __RNvXsc_NtNtCs9i5KxIbZ5ph_10proc_macro6bridge3rpcReINtB5_6EncodeuE6encodeCsjOBAykZTw0C_11clap_derive, symObjAddr: 0x15BC, symBinAddr: 0x51BD0, symSize: 0x38 }
  - { offset: 0xA3240, size: 0x8, addend: 0x0, symName: __RNvXsl_NtNtCs9i5KxIbZ5ph_10proc_macro6bridge3rpcNtB5_12PanicMessageINtB5_6EncodeuE6encodeCsjOBAykZTw0C_11clap_derive, symObjAddr: 0x15F4, symBinAddr: 0x51C08, symSize: 0x128 }
  - { offset: 0xA3406, size: 0x8, addend: 0x0, symName: __RNvXso_NtNtCs9i5KxIbZ5ph_10proc_macro6bridge3rpcmINtB5_9DecodeMutuE6decodeCsjOBAykZTw0C_11clap_derive, symObjAddr: 0x171C, symBinAddr: 0x51D30, symSize: 0x108 }
  - { offset: 0xA40FD, size: 0x8, addend: 0x0, symName: __RNvNtNtCsjOBAykZTw0C_11clap_derive7derives8into_app14gen_for_struct, symObjAddr: 0x1AB8, symBinAddr: 0x520CC, symSize: 0xFA4 }
  - { offset: 0xA42E8, size: 0x8, addend: 0x0, symName: __RNvNtNtCsjOBAykZTw0C_11clap_derive7derives8into_app12gen_for_enum, symObjAddr: 0x2A5C, symBinAddr: 0x53070, symSize: 0x1204 }
  - { offset: 0xA45B2, size: 0x8, addend: 0x0, symName: __RINvMs3_NtNtCs9i5KxIbZ5ph_10proc_macro6bridge6bufferNtB6_6Buffer17extend_from_arrayKj4_ECsjOBAykZTw0C_11clap_derive, symObjAddr: 0x0, symBinAddr: 0x50618, symSize: 0x16C }
  - { offset: 0xA4778, size: 0x8, addend: 0x0, symName: __RINvMs3_NtNtCs9i5KxIbZ5ph_10proc_macro6bridge6bufferNtB6_6Buffer17extend_from_arrayKj8_ECsjOBAykZTw0C_11clap_derive, symObjAddr: 0x16C, symBinAddr: 0x50784, symSize: 0x16C }
  - { offset: 0xA9642, size: 0x8, addend: 0x0, symName: __RNvXs0_NtCs6IAuOt8vWmF_3syn5dropsINtB5_6NoDropDINtNtB7_10punctuated9IterTraitNtNtB7_4data7VariantEp4ItemRB1d_EL_ENtNtNtCsfvfooZQ3Axs_4core3ops5deref8DerefMut9deref_mutCsjOBAykZTw0C_11clap_derive, symObjAddr: 0xB54, symBinAddr: 0x51168, symSize: 0x3C }
  - { offset: 0xA9677, size: 0x8, addend: 0x0, symName: __RNvXs0_NtCs6IAuOt8vWmF_3syn5dropsINtB5_6NoDropDINtNtB7_10punctuated9IterTraitNtNtB7_4path15GenericArgumentEp4ItemRB1d_EL_ENtNtNtCsfvfooZQ3Axs_4core3ops5deref8DerefMut9deref_mutCsjOBAykZTw0C_11clap_derive, symObjAddr: 0xB90, symBinAddr: 0x511A4, symSize: 0x3C }
  - { offset: 0xA96B2, size: 0x8, addend: 0x0, symName: __RNvXs_NtCs6IAuOt8vWmF_3syn5dropsINtB4_6NoDropDINtNtB6_10punctuated9IterTraitNtNtB6_4data7VariantEp4ItemRB1c_EL_ENtNtNtCsfvfooZQ3Axs_4core3ops5deref5Deref5derefCsjOBAykZTw0C_11clap_derive, symObjAddr: 0x110C, symBinAddr: 0x51720, symSize: 0x3C }
  - { offset: 0xAAC3B, size: 0x8, addend: 0x0, symName: __RNvMNtCs6IAuOt8vWmF_3syn5dropsINtB2_6NoDropINtNtB4_10punctuated11PrivateIterNtNtB4_4data7VariantNtNtB4_5token5CommaEE3newCsjOBAykZTw0C_11clap_derive, symObjAddr: 0x2D8, symBinAddr: 0x508F0, symSize: 0x40 }
  - { offset: 0xAACC5, size: 0x8, addend: 0x0, symName: __RNvMNtCs6IAuOt8vWmF_3syn5dropsINtB2_6NoDropINtNtB4_10punctuated11PrivateIterNtNtB4_4path15GenericArgumentNtNtB4_5token5CommaEE3newCsjOBAykZTw0C_11clap_derive, symObjAddr: 0x318, symBinAddr: 0x50930, symSize: 0x40 }
  - { offset: 0xAAD1F, size: 0x8, addend: 0x0, symName: __RNvMs3_NtNtCs9i5KxIbZ5ph_10proc_macro6bridge6bufferNtB5_6Buffer17extend_from_sliceCsjOBAykZTw0C_11clap_derive, symObjAddr: 0x358, symBinAddr: 0x50970, symSize: 0x164 }
  - { offset: 0xAAEDB, size: 0x8, addend: 0x0, symName: __RNvMs3_NtNtCs9i5KxIbZ5ph_10proc_macro6bridge6bufferNtB5_6Buffer4pushCsjOBAykZTw0C_11clap_derive, symObjAddr: 0x4BC, symBinAddr: 0x50AD4, symSize: 0x134 }
  - { offset: 0xAB141, size: 0x8, addend: 0x0, symName: __RNvXNtCs2cqEZUIJimJ_5quote9to_tokensRNtNtCs6IAuOt8vWmF_3syn8generics11WhereClauseNtB2_8ToTokens9to_tokensCsjOBAykZTw0C_11clap_derive, symObjAddr: 0xB00, symBinAddr: 0x51114, symSize: 0x40 }
  - { offset: 0xAB5CE, size: 0x8, addend: 0x0, symName: __RINvNtNtNtCscOYdFFY2T5N_3std2io5error14repr_bitpacked11decode_reprINtNtCse1nGBsou5OW_5alloc5boxed3BoxNtB4_6CustomENCNvXs1_B2_NtB2_4ReprNtNtNtCsfvfooZQ3Axs_4core3ops4drop4Drop4drop0ECsjOBAykZTw0C_11clap_derive, symObjAddr: 0x0, symBinAddr: 0x54274, symSize: 0x230 }
  - { offset: 0xAB752, size: 0x8, addend: 0x0, symName: __RNCNvXs1_NtNtNtCscOYdFFY2T5N_3std2io5error14repr_bitpackedNtB7_4ReprNtNtNtCsfvfooZQ3Axs_4core3ops4drop4Drop4drop0CsjOBAykZTw0C_11clap_derive, symObjAddr: 0x62C, symBinAddr: 0x548A0, symSize: 0x34 }
  - { offset: 0xAB807, size: 0x8, addend: 0x0, symName: __RNvXs1_NtNtNtCscOYdFFY2T5N_3std2io5error14repr_bitpackedNtB5_4ReprNtNtNtCsfvfooZQ3Axs_4core3ops4drop4Drop4dropCsjOBAykZTw0C_11clap_derive, symObjAddr: 0x14D4, symBinAddr: 0x55748, symSize: 0x38 }
  - { offset: 0xAB830, size: 0x8, addend: 0x0, symName: __RINvNtNtNtCscOYdFFY2T5N_3std2io5error14repr_bitpacked11decode_reprINtNtCse1nGBsou5OW_5alloc5boxed3BoxNtB4_6CustomENCNvXs1_B2_NtB2_4ReprNtNtNtCsfvfooZQ3Axs_4core3ops4drop4Drop4drop0ECsjOBAykZTw0C_11clap_derive, symObjAddr: 0x0, symBinAddr: 0x54274, symSize: 0x230 }
  - { offset: 0xABAD5, size: 0x8, addend: 0x0, symName: __RNvNtNtNtCscOYdFFY2T5N_3std2io5error14repr_bitpacked14kind_from_primCsjOBAykZTw0C_11clap_derive, symObjAddr: 0x6D4, symBinAddr: 0x54948, symSize: 0x608 }
  - { offset: 0xAF01E, size: 0x8, addend: 0x0, symName: __RNvNvMNtNtCsfvfooZQ3Axs_4core3ptr9const_ptrPp7sub_ptr18precondition_checkCsjOBAykZTw0C_11clap_derive, symObjAddr: 0xCDC, symBinAddr: 0x54F50, symSize: 0x40 }
  - { offset: 0xAF470, size: 0x8, addend: 0x0, symName: __RNvNvNtCsfvfooZQ3Axs_4core4hint16assert_unchecked18precondition_checkCsjOBAykZTw0C_11clap_derive, symObjAddr: 0xD1C, symBinAddr: 0x54F90, symSize: 0x38 }
  - { offset: 0xAF49E, size: 0x8, addend: 0x0, symName: __RNvNvNtCsfvfooZQ3Axs_4core4hint21unreachable_unchecked18precondition_checkCsjOBAykZTw0C_11clap_derive, symObjAddr: 0xD54, symBinAddr: 0x54FC8, symSize: 0x1C }
  - { offset: 0xAFB07, size: 0x8, addend: 0x0, symName: __RNCINvNvXs0_NtNtNtCsfvfooZQ3Axs_4core4iter8adapters10skip_whileINtBa_9SkipWhileppENtNtNtBe_6traits8iterator8Iterator4next5checkNtNtCse1nGBsou5OW_5alloc6string6StringNCNvNtNtCsjOBAykZTw0C_11clap_derive5utils12doc_comments19extract_doc_comments0_0E0B2L_, symObjAddr: 0x5AC, symBinAddr: 0x54820, symSize: 0x80 }
  - { offset: 0xAFB69, size: 0x8, addend: 0x0, symName: __RNvXs0_NtNtNtCsfvfooZQ3Axs_4core4iter8adapters10skip_whileINtB5_9SkipWhileINtNtB7_10filter_map9FilterMapINtNtB7_6filter6FilterINtNtNtBb_5slice4iter4IterNtNtCs6IAuOt8vWmF_3syn4attr9AttributeENCNvNtNtCsjOBAykZTw0C_11clap_derive5utils12doc_comments19extract_doc_comment0ENCB34_s_0ENCB34_s0_0ENtNtNtB9_6traits8iterator8Iterator4nextB3a_, symObjAddr: 0x1448, symBinAddr: 0x556BC, symSize: 0x40 }
  - { offset: 0xAFBE1, size: 0x8, addend: 0x0, symName: __RNvXs0_NtNtNtCsfvfooZQ3Axs_4core4iter8adapters10skip_whileINtB5_9SkipWhileINtNtB7_10filter_map9FilterMapINtNtB7_6filter6FilterINtNtNtBb_5slice4iter4IterNtNtCs6IAuOt8vWmF_3syn4attr9AttributeENCNvNtNtCsjOBAykZTw0C_11clap_derive5utils12doc_comments19extract_doc_comment0ENCB34_s_0ENCB34_s0_0ENtNtNtB9_6traits8iterator8Iterator9size_hintB3a_, symObjAddr: 0x1488, symBinAddr: 0x556FC, symSize: 0x4C }
  - { offset: 0xAFDC8, size: 0x8, addend: 0x0, symName: __RNvXs9_NtNtNtCsfvfooZQ3Axs_4core4iter8adapters4fuseINtB5_4FuseINtNtB7_3map3MapINtNtB7_10skip_while9SkipWhileINtNtB7_10filter_map9FilterMapINtNtB7_6filter6FilterINtNtNtBb_5slice4iter4IterNtNtCs6IAuOt8vWmF_3syn4attr9AttributeENCNvNtNtCsjOBAykZTw0C_11clap_derive5utils12doc_comments19extract_doc_comment0ENCB3C_s_0ENCB3C_s0_0ENCB3C_s1_0EEINtB5_8FuseImplBY_E4nextB3I_, symObjAddr: 0x1A50, symBinAddr: 0x55CC4, symSize: 0x88 }
  - { offset: 0xAFEA5, size: 0x8, addend: 0x0, symName: __RINvYINtNtNtCse1nGBsou5OW_5alloc3vec9into_iter8IntoIterTNtNtCs6IAuOt8vWmF_3syn4expr4ExprNtNtBW_5token5CommaEENtNtNtNtCsfvfooZQ3Axs_4core4iter6traits8iterator8Iterator3mapBS_NCNvXs8_NtBW_10punctuatedINtB2T_10PunctuatedBS_B1o_ENtNtB1N_7collect12IntoIterator9into_iter0ECsjOBAykZTw0C_11clap_derive, symObjAddr: 0x4C8, symBinAddr: 0x5473C, symSize: 0x1C }
  - { offset: 0xAFF12, size: 0x8, addend: 0x0, symName: __RINvYINtNtNtCse1nGBsou5OW_5alloc3vec9into_iter8IntoIterTNtNtCsjOBAykZTw0C_11clap_derive4attr8ClapAttrNtNtCs6IAuOt8vWmF_3syn5token5CommaEENtNtNtNtCsfvfooZQ3Axs_4core4iter6traits8iterator8Iterator3mapBS_NCNvXs8_NtB1F_10punctuatedINtB3l_10PunctuatedBS_B1B_ENtNtB2f_7collect12IntoIterator9into_iter0EBW_, symObjAddr: 0x4E4, symBinAddr: 0x54758, symSize: 0x1C }
  - { offset: 0xAFF7F, size: 0x8, addend: 0x0, symName: __RINvYINtNtNtNtCsfvfooZQ3Axs_4core4iter8adapters10skip_while9SkipWhileINtNtB8_10filter_map9FilterMapINtNtB8_6filter6FilterINtNtNtBc_5slice4iter4IterNtNtCs6IAuOt8vWmF_3syn4attr9AttributeENCNvNtNtCsjOBAykZTw0C_11clap_derive5utils12doc_comments19extract_doc_comment0ENCB2Z_s_0ENCB2Z_s0_0ENtNtNtBa_6traits8iterator8Iterator3mapINtNtCse1nGBsou5OW_5alloc3vec3VecNtNtB5f_6string6StringENCB2Z_s1_0EB35_, symObjAddr: 0x500, symBinAddr: 0x54774, symSize: 0x20 }
  - { offset: 0xB0013, size: 0x8, addend: 0x0, symName: __RINvYINtNtNtNtCsfvfooZQ3Axs_4core4iter8adapters10skip_while9SkipWhileINtNtB8_10filter_map9FilterMapINtNtB8_6filter6FilterINtNtNtBc_5slice4iter4IterNtNtCs6IAuOt8vWmF_3syn4attr9AttributeENCNvNtNtCsjOBAykZTw0C_11clap_derive5utils12doc_comments19extract_doc_comment0ENCB2Z_s_0ENCB2Z_s0_0ENtNtNtBa_6traits8iterator8Iterator8flat_mapINtNtCse1nGBsou5OW_5alloc3vec3VecNtNtB5k_6string6StringENCB2Z_s1_0EB35_, symObjAddr: 0x520, symBinAddr: 0x54794, symSize: 0x8C }
  - { offset: 0xB01E2, size: 0x8, addend: 0x0, symName: __RNvYINtNtNtCse1nGBsou5OW_5alloc3vec9into_iter8IntoIterNtNtB9_6string6StringENtNtNtNtCsfvfooZQ3Axs_4core4iter6traits10exact_size17ExactSizeIterator3lenCsjOBAykZTw0C_11clap_derive, symObjAddr: 0x1F98, symBinAddr: 0x5620C, symSize: 0xF4 }
  - { offset: 0xB02D5, size: 0x8, addend: 0x0, symName: __RNvYINtNtNtCse1nGBsou5OW_5alloc3vec9into_iter8IntoIterNtNtCs6IAuOt8vWmF_3syn4expr4ExprENtNtNtNtCsfvfooZQ3Axs_4core4iter6traits10exact_size17ExactSizeIterator3lenCsjOBAykZTw0C_11clap_derive, symObjAddr: 0x208C, symBinAddr: 0x56300, symSize: 0xF4 }
  - { offset: 0xB03C8, size: 0x8, addend: 0x0, symName: __RNvYINtNtNtCse1nGBsou5OW_5alloc3vec9into_iter8IntoIterNtNtCsjOBAykZTw0C_11clap_derive4attr8ClapAttrENtNtNtNtCsfvfooZQ3Axs_4core4iter6traits10exact_size17ExactSizeIterator3lenBU_, symObjAddr: 0x2180, symBinAddr: 0x563F4, symSize: 0xF4 }
  - { offset: 0xB04BB, size: 0x8, addend: 0x0, symName: __RNvYINtNtNtCse1nGBsou5OW_5alloc3vec9into_iter8IntoIterTNtNtCs6IAuOt8vWmF_3syn4expr4ExprNtNtBV_5token5CommaEENtNtNtNtCsfvfooZQ3Axs_4core4iter6traits10exact_size17ExactSizeIterator3lenCsjOBAykZTw0C_11clap_derive, symObjAddr: 0x2274, symBinAddr: 0x564E8, symSize: 0xF4 }
  - { offset: 0xB05AE, size: 0x8, addend: 0x0, symName: __RNvYINtNtNtCse1nGBsou5OW_5alloc3vec9into_iter8IntoIterTNtNtCsjOBAykZTw0C_11clap_derive4attr8ClapAttrNtNtCs6IAuOt8vWmF_3syn5token5CommaEENtNtNtNtCsfvfooZQ3Axs_4core4iter6traits10exact_size17ExactSizeIterator3lenBV_, symObjAddr: 0x2368, symBinAddr: 0x565DC, symSize: 0xF4 }
  - { offset: 0xB0797, size: 0x8, addend: 0x0, symName: __RNvXs5_NtNtCsfvfooZQ3Axs_4core5slice5indexINtNtNtB9_3ops5range9RangeFromjEINtB5_10SliceIndexSNtNtCse1nGBsou5OW_5alloc6string6StringE5indexCsjOBAykZTw0C_11clap_derive, symObjAddr: 0x19C0, symBinAddr: 0x55C34, symSize: 0x90 }
  - { offset: 0xB08F7, size: 0x8, addend: 0x0, symName: __RNcNtINtNtNtCsfvfooZQ3Axs_4core3ops12control_flow11ControlFlowNtCs3cP53eQoTwO_11proc_macro211TokenStreamE5Break0CsjOBAykZTw0C_11clap_derive, symObjAddr: 0x660, symBinAddr: 0x548D4, symSize: 0x14 }
  - { offset: 0xB0931, size: 0x8, addend: 0x0, symName: __RNcNtINtNtNtCsfvfooZQ3Axs_4core3ops12control_flow11ControlFlowTRNtNtCs6IAuOt8vWmF_3syn4data5FieldNtNtCsjOBAykZTw0C_11clap_derive4item4ItemEE5Break0B1B_, symObjAddr: 0x674, symBinAddr: 0x548E8, symSize: 0x30 }
  - { offset: 0xB096C, size: 0x8, addend: 0x0, symName: __RNcNtINtNtNtCsfvfooZQ3Axs_4core3ops12control_flow11ControlFlowTRNtNtCs6IAuOt8vWmF_3syn4data7VariantNtNtCsjOBAykZTw0C_11clap_derive4item4ItemEE5Break0B1D_, symObjAddr: 0x6A4, symBinAddr: 0x54918, symSize: 0x30 }
  - { offset: 0xB09AE, size: 0x8, addend: 0x0, symName: __RNvXNtNtCsfvfooZQ3Axs_4core3ops12control_flowINtB2_11ControlFlowIBI_NtCs3cP53eQoTwO_11proc_macro211TokenStreamEENtNtB4_9try_trait3Try11from_outputCsjOBAykZTw0C_11clap_derive, symObjAddr: 0xD70, symBinAddr: 0x54FE4, symSize: 0x1C }
  - { offset: 0xB09EC, size: 0x8, addend: 0x0, symName: __RNvXNtNtCsfvfooZQ3Axs_4core3ops12control_flowINtB2_11ControlFlowIBI_NtCs3cP53eQoTwO_11proc_macro211TokenStreamEENtNtB4_9try_trait3Try6branchCsjOBAykZTw0C_11clap_derive, symObjAddr: 0xD8C, symBinAddr: 0x55000, symSize: 0x80 }
  - { offset: 0xB0A66, size: 0x8, addend: 0x0, symName: __RNvXNtNtCsfvfooZQ3Axs_4core3ops12control_flowINtB2_11ControlFlowIBI_TRNtNtCs6IAuOt8vWmF_3syn4data5FieldNtNtCsjOBAykZTw0C_11clap_derive4item4ItemEEENtNtB4_9try_trait3Try11from_outputB1H_, symObjAddr: 0xE0C, symBinAddr: 0x55080, symSize: 0x18 }
  - { offset: 0xB0AA4, size: 0x8, addend: 0x0, symName: __RNvXNtNtCsfvfooZQ3Axs_4core3ops12control_flowINtB2_11ControlFlowIBI_TRNtNtCs6IAuOt8vWmF_3syn4data5FieldNtNtCsjOBAykZTw0C_11clap_derive4item4ItemEEENtNtB4_9try_trait3Try6branchB1H_, symObjAddr: 0xE24, symBinAddr: 0x55098, symSize: 0x94 }
  - { offset: 0xB0B1D, size: 0x8, addend: 0x0, symName: __RNvXNtNtCsfvfooZQ3Axs_4core3ops12control_flowINtB2_11ControlFlowIBI_TRNtNtCs6IAuOt8vWmF_3syn4data7VariantNtNtCsjOBAykZTw0C_11clap_derive4item4ItemEEENtNtB4_9try_trait3Try11from_outputB1J_, symObjAddr: 0xEB8, symBinAddr: 0x5512C, symSize: 0x18 }
  - { offset: 0xB0B5B, size: 0x8, addend: 0x0, symName: __RNvXNtNtCsfvfooZQ3Axs_4core3ops12control_flowINtB2_11ControlFlowIBI_TRNtNtCs6IAuOt8vWmF_3syn4data7VariantNtNtCsjOBAykZTw0C_11clap_derive4item4ItemEEENtNtB4_9try_trait3Try6branchB1J_, symObjAddr: 0xED0, symBinAddr: 0x55144, symSize: 0x94 }
  - { offset: 0xB0BD4, size: 0x8, addend: 0x0, symName: __RNvXNtNtCsfvfooZQ3Axs_4core3ops12control_flowINtB2_11ControlFlowNtCs3cP53eQoTwO_11proc_macro211TokenStreamENtNtB4_9try_trait3Try11from_outputCsjOBAykZTw0C_11clap_derive, symObjAddr: 0xF64, symBinAddr: 0x551D8, symSize: 0x18 }
  - { offset: 0xB0C12, size: 0x8, addend: 0x0, symName: __RNvXNtNtCsfvfooZQ3Axs_4core3ops12control_flowINtB2_11ControlFlowNtCs3cP53eQoTwO_11proc_macro211TokenStreamENtNtB4_9try_trait3Try6branchCsjOBAykZTw0C_11clap_derive, symObjAddr: 0xF7C, symBinAddr: 0x551F0, symSize: 0x78 }
  - { offset: 0xB0C8C, size: 0x8, addend: 0x0, symName: __RNvXNtNtCsfvfooZQ3Axs_4core3ops12control_flowINtB2_11ControlFlowNtNtCse1nGBsou5OW_5alloc6string6StringENtNtB4_9try_trait3Try11from_outputCsjOBAykZTw0C_11clap_derive, symObjAddr: 0xFF4, symBinAddr: 0x55268, symSize: 0x18 }
  - { offset: 0xB0CCA, size: 0x8, addend: 0x0, symName: __RNvXNtNtCsfvfooZQ3Axs_4core3ops12control_flowINtB2_11ControlFlowNtNtCse1nGBsou5OW_5alloc6string6StringENtNtB4_9try_trait3Try6branchCsjOBAykZTw0C_11clap_derive, symObjAddr: 0x100C, symBinAddr: 0x55280, symSize: 0x78 }
  - { offset: 0xB0D44, size: 0x8, addend: 0x0, symName: __RNvXNtNtCsfvfooZQ3Axs_4core3ops12control_flowINtB2_11ControlFlowTRNtNtCs6IAuOt8vWmF_3syn4data5FieldNtNtCsjOBAykZTw0C_11clap_derive4item4ItemEENtNtB4_9try_trait3Try11from_outputB1D_, symObjAddr: 0x1084, symBinAddr: 0x552F8, symSize: 0x18 }
  - { offset: 0xB0D82, size: 0x8, addend: 0x0, symName: __RNvXNtNtCsfvfooZQ3Axs_4core3ops12control_flowINtB2_11ControlFlowTRNtNtCs6IAuOt8vWmF_3syn4data5FieldNtNtCsjOBAykZTw0C_11clap_derive4item4ItemEENtNtB4_9try_trait3Try6branchB1D_, symObjAddr: 0x109C, symBinAddr: 0x55310, symSize: 0x94 }
  - { offset: 0xB0DFB, size: 0x8, addend: 0x0, symName: __RNvXNtNtCsfvfooZQ3Axs_4core3ops12control_flowINtB2_11ControlFlowTRNtNtCs6IAuOt8vWmF_3syn4data7VariantNtNtCsjOBAykZTw0C_11clap_derive4item4ItemEENtNtB4_9try_trait3Try11from_outputB1F_, symObjAddr: 0x1130, symBinAddr: 0x553A4, symSize: 0x18 }
  - { offset: 0xB0E39, size: 0x8, addend: 0x0, symName: __RNvXNtNtCsfvfooZQ3Axs_4core3ops12control_flowINtB2_11ControlFlowTRNtNtCs6IAuOt8vWmF_3syn4data7VariantNtNtCsjOBAykZTw0C_11clap_derive4item4ItemEENtNtB4_9try_trait3Try6branchB1F_, symObjAddr: 0x1148, symBinAddr: 0x553BC, symSize: 0x94 }
  - { offset: 0xB0F37, size: 0x8, addend: 0x0, symName: __RNvXs_NtNtCsfvfooZQ3Axs_4core3ops12control_flowINtB4_11ControlFlowIBK_NtCs3cP53eQoTwO_11proc_macro211TokenStreamEEINtNtB6_9try_trait12FromResidualIBK_B12_NtNtB8_7convert10InfallibleEE13from_residualCsjOBAykZTw0C_11clap_derive, symObjAddr: 0x1AD8, symBinAddr: 0x55D4C, symSize: 0x2C }
  - { offset: 0xB0F75, size: 0x8, addend: 0x0, symName: __RNvXs_NtNtCsfvfooZQ3Axs_4core3ops12control_flowINtB4_11ControlFlowIBK_TRNtNtCs6IAuOt8vWmF_3syn4data5FieldNtNtCsjOBAykZTw0C_11clap_derive4item4ItemEEEINtNtB6_9try_trait12FromResidualIBK_B12_NtNtB8_7convert10InfallibleEE13from_residualB1J_, symObjAddr: 0x1B04, symBinAddr: 0x55D78, symSize: 0x50 }
  - { offset: 0xB0FB4, size: 0x8, addend: 0x0, symName: __RNvXs_NtNtCsfvfooZQ3Axs_4core3ops12control_flowINtB4_11ControlFlowIBK_TRNtNtCs6IAuOt8vWmF_3syn4data7VariantNtNtCsjOBAykZTw0C_11clap_derive4item4ItemEEEINtNtB6_9try_trait12FromResidualIBK_B12_NtNtB8_7convert10InfallibleEE13from_residualB1L_, symObjAddr: 0x1B54, symBinAddr: 0x55DC8, symSize: 0x50 }
  - { offset: 0xB0FF3, size: 0x8, addend: 0x0, symName: __RNvXs_NtNtCsfvfooZQ3Axs_4core3ops12control_flowINtB4_11ControlFlowNtCs3cP53eQoTwO_11proc_macro211TokenStreamEINtNtB6_9try_trait12FromResidualIBK_B12_NtNtB8_7convert10InfallibleEE13from_residualCsjOBAykZTw0C_11clap_derive, symObjAddr: 0x1BA4, symBinAddr: 0x55E18, symSize: 0x2C }
  - { offset: 0xB1031, size: 0x8, addend: 0x0, symName: __RNvXs_NtNtCsfvfooZQ3Axs_4core3ops12control_flowINtB4_11ControlFlowNtNtCse1nGBsou5OW_5alloc6string6StringEINtNtB6_9try_trait12FromResidualIBK_B12_NtNtB8_7convert10InfallibleEE13from_residualCsjOBAykZTw0C_11clap_derive, symObjAddr: 0x1BD0, symBinAddr: 0x55E44, symSize: 0x30 }
  - { offset: 0xB106F, size: 0x8, addend: 0x0, symName: __RNvXs_NtNtCsfvfooZQ3Axs_4core3ops12control_flowINtB4_11ControlFlowTRNtNtCs6IAuOt8vWmF_3syn4data5FieldNtNtCsjOBAykZTw0C_11clap_derive4item4ItemEEINtNtB6_9try_trait12FromResidualIBK_B12_NtNtB8_7convert10InfallibleEE13from_residualB1F_, symObjAddr: 0x1C00, symBinAddr: 0x55E74, symSize: 0x50 }
  - { offset: 0xB10AE, size: 0x8, addend: 0x0, symName: __RNvXs_NtNtCsfvfooZQ3Axs_4core3ops12control_flowINtB4_11ControlFlowTRNtNtCs6IAuOt8vWmF_3syn4data7VariantNtNtCsjOBAykZTw0C_11clap_derive4item4ItemEEINtNtB6_9try_trait12FromResidualIBK_B12_NtNtB8_7convert10InfallibleEE13from_residualB1H_, symObjAddr: 0x1C50, symBinAddr: 0x55EC4, symSize: 0x50 }
  - { offset: 0xB7F53, size: 0x8, addend: 0x0, symName: __RINvXs3_NtNtCse1nGBsou5OW_5alloc3vec9into_iterINtB6_8IntoIterTNtNtCs6IAuOt8vWmF_3syn4expr4ExprNtNtB12_5token5CommaEENtNtNtNtCsfvfooZQ3Axs_4core4iter6traits8iterator8Iterator4folduNCINvNtNtB1W_8adapters3map8map_foldBX_BY_uNCNvXs8_NtB12_10punctuatedINtB3F_10PunctuatedBY_B1u_ENtNtB1U_7collect12IntoIterator9into_iter0NCINvNvB1Q_8for_each4callBY_NCINvMsi_B8_INtB8_3VecBY_E14extend_trustedINtB2W_3MapBI_B3x_EE0E0E0ECsjOBAykZTw0C_11clap_derive, symObjAddr: 0x230, symBinAddr: 0x544A4, symSize: 0x14C }
  - { offset: 0xB8123, size: 0x8, addend: 0x0, symName: __RINvXs3_NtNtCse1nGBsou5OW_5alloc3vec9into_iterINtB6_8IntoIterTNtNtCsjOBAykZTw0C_11clap_derive4attr8ClapAttrNtNtCs6IAuOt8vWmF_3syn5token5CommaEENtNtNtNtCsfvfooZQ3Axs_4core4iter6traits8iterator8Iterator4folduNCINvNtNtB2n_8adapters3map8map_foldBX_BY_uNCNvXs8_NtB1L_10punctuatedINtB46_10PunctuatedBY_B1H_ENtNtB2l_7collect12IntoIterator9into_iter0NCINvNvB2h_8for_each4callBY_NCINvMsi_B8_INtB8_3VecBY_E14extend_trustedINtB3n_3MapBI_B3Y_EE0E0E0EB12_, symObjAddr: 0x37C, symBinAddr: 0x545F0, symSize: 0x14C }
  - { offset: 0xB82F3, size: 0x8, addend: 0x0, symName: __RNvXs3_NtNtCse1nGBsou5OW_5alloc3vec9into_iterINtB5_8IntoIterNtNtB9_6string6StringENtNtNtNtCsfvfooZQ3Axs_4core4iter6traits8iterator8Iterator4nextCsjOBAykZTw0C_11clap_derive, symObjAddr: 0x150C, symBinAddr: 0x55780, symSize: 0xD0 }
  - { offset: 0xB846E, size: 0x8, addend: 0x0, symName: __RNvXs3_NtNtCse1nGBsou5OW_5alloc3vec9into_iterINtB5_8IntoIterNtNtB9_6string6StringENtNtNtNtCsfvfooZQ3Axs_4core4iter6traits8iterator8Iterator9size_hintCsjOBAykZTw0C_11clap_derive, symObjAddr: 0x15DC, symBinAddr: 0x55850, symSize: 0x6C }
  - { offset: 0xB84C9, size: 0x8, addend: 0x0, symName: __RNvXs3_NtNtCse1nGBsou5OW_5alloc3vec9into_iterINtB5_8IntoIterNtNtCs6IAuOt8vWmF_3syn4expr4ExprENtNtNtNtCsfvfooZQ3Axs_4core4iter6traits8iterator8Iterator4nextCsjOBAykZTw0C_11clap_derive, symObjAddr: 0x1648, symBinAddr: 0x558BC, symSize: 0xE4 }
  - { offset: 0xB863D, size: 0x8, addend: 0x0, symName: __RNvXs3_NtNtCse1nGBsou5OW_5alloc3vec9into_iterINtB5_8IntoIterNtNtCs6IAuOt8vWmF_3syn4expr4ExprENtNtNtNtCsfvfooZQ3Axs_4core4iter6traits8iterator8Iterator9size_hintCsjOBAykZTw0C_11clap_derive, symObjAddr: 0x172C, symBinAddr: 0x559A0, symSize: 0x6C }
  - { offset: 0xB8698, size: 0x8, addend: 0x0, symName: __RNvXs3_NtNtCse1nGBsou5OW_5alloc3vec9into_iterINtB5_8IntoIterNtNtCsjOBAykZTw0C_11clap_derive4attr8ClapAttrENtNtNtNtCsfvfooZQ3Axs_4core4iter6traits8iterator8Iterator4nextB10_, symObjAddr: 0x1798, symBinAddr: 0x55A0C, symSize: 0xE4 }
  - { offset: 0xB880C, size: 0x8, addend: 0x0, symName: __RNvXs3_NtNtCse1nGBsou5OW_5alloc3vec9into_iterINtB5_8IntoIterNtNtCsjOBAykZTw0C_11clap_derive4attr8ClapAttrENtNtNtNtCsfvfooZQ3Axs_4core4iter6traits8iterator8Iterator9size_hintB10_, symObjAddr: 0x187C, symBinAddr: 0x55AF0, symSize: 0x6C }
  - { offset: 0xB8867, size: 0x8, addend: 0x0, symName: __RNvXs3_NtNtCse1nGBsou5OW_5alloc3vec9into_iterINtB5_8IntoIterTNtNtCs6IAuOt8vWmF_3syn4expr4ExprNtNtB11_5token5CommaEENtNtNtNtCsfvfooZQ3Axs_4core4iter6traits8iterator8Iterator9size_hintCsjOBAykZTw0C_11clap_derive, symObjAddr: 0x18E8, symBinAddr: 0x55B5C, symSize: 0x6C }
  - { offset: 0xB88C2, size: 0x8, addend: 0x0, symName: __RNvXs3_NtNtCse1nGBsou5OW_5alloc3vec9into_iterINtB5_8IntoIterTNtNtCsjOBAykZTw0C_11clap_derive4attr8ClapAttrNtNtCs6IAuOt8vWmF_3syn5token5CommaEENtNtNtNtCsfvfooZQ3Axs_4core4iter6traits8iterator8Iterator9size_hintB11_, symObjAddr: 0x1954, symBinAddr: 0x55BC8, symSize: 0x6C }
  - { offset: 0xB8ACB, size: 0x8, addend: 0x0, symName: __RNvXNvXsd_NtNtCse1nGBsou5OW_5alloc3vec9into_iterINtB8_8IntoIterppENtNtNtCsfvfooZQ3Axs_4core3ops4drop4Drop4dropINtB2_9DropGuardNtNtBc_6string6StringNtNtBc_5alloc6GlobalEB12_4dropCsjOBAykZTw0C_11clap_derive, symObjAddr: 0x11DC, symBinAddr: 0x55450, symSize: 0x7C }
  - { offset: 0xB8BD8, size: 0x8, addend: 0x0, symName: __RNvXNvXsd_NtNtCse1nGBsou5OW_5alloc3vec9into_iterINtB8_8IntoIterppENtNtNtCsfvfooZQ3Axs_4core3ops4drop4Drop4dropINtB2_9DropGuardNtNtCs6IAuOt8vWmF_3syn4expr4ExprNtNtBc_5alloc6GlobalEB12_4dropCsjOBAykZTw0C_11clap_derive, symObjAddr: 0x1258, symBinAddr: 0x554CC, symSize: 0x7C }
  - { offset: 0xB8CE5, size: 0x8, addend: 0x0, symName: __RNvXNvXsd_NtNtCse1nGBsou5OW_5alloc3vec9into_iterINtB8_8IntoIterppENtNtNtCsfvfooZQ3Axs_4core3ops4drop4Drop4dropINtB2_9DropGuardNtNtCsjOBAykZTw0C_11clap_derive4attr8ClapAttrNtNtBc_5alloc6GlobalEB12_4dropB24_, symObjAddr: 0x12D4, symBinAddr: 0x55548, symSize: 0x7C }
  - { offset: 0xB8DF2, size: 0x8, addend: 0x0, symName: __RNvXNvXsd_NtNtCse1nGBsou5OW_5alloc3vec9into_iterINtB8_8IntoIterppENtNtNtCsfvfooZQ3Axs_4core3ops4drop4Drop4dropINtB2_9DropGuardTNtNtCs6IAuOt8vWmF_3syn4expr4ExprNtNtB25_5token5CommaENtNtBc_5alloc6GlobalEB12_4dropCsjOBAykZTw0C_11clap_derive, symObjAddr: 0x1350, symBinAddr: 0x555C4, symSize: 0x7C }
  - { offset: 0xB8EFF, size: 0x8, addend: 0x0, symName: __RNvXNvXsd_NtNtCse1nGBsou5OW_5alloc3vec9into_iterINtB8_8IntoIterppENtNtNtCsfvfooZQ3Axs_4core3ops4drop4Drop4dropINtB2_9DropGuardTNtNtCsjOBAykZTw0C_11clap_derive4attr8ClapAttrNtNtCs6IAuOt8vWmF_3syn5token5CommaENtNtBc_5alloc6GlobalEB12_4dropB25_, symObjAddr: 0x13CC, symBinAddr: 0x55640, symSize: 0x7C }
  - { offset: 0xB90D1, size: 0x8, addend: 0x0, symName: __RNvXsd_NtNtCse1nGBsou5OW_5alloc3vec9into_iterINtB5_8IntoIterNtNtB9_6string6StringENtNtNtCsfvfooZQ3Axs_4core3ops4drop4Drop4dropCsjOBAykZTw0C_11clap_derive, symObjAddr: 0x1CA0, symBinAddr: 0x55F14, symSize: 0x98 }
  - { offset: 0xB916B, size: 0x8, addend: 0x0, symName: __RNvXsd_NtNtCse1nGBsou5OW_5alloc3vec9into_iterINtB5_8IntoIterNtNtCs6IAuOt8vWmF_3syn4expr4ExprENtNtNtCsfvfooZQ3Axs_4core3ops4drop4Drop4dropCsjOBAykZTw0C_11clap_derive, symObjAddr: 0x1D38, symBinAddr: 0x55FAC, symSize: 0x98 }
  - { offset: 0xB9205, size: 0x8, addend: 0x0, symName: __RNvXsd_NtNtCse1nGBsou5OW_5alloc3vec9into_iterINtB5_8IntoIterNtNtCsjOBAykZTw0C_11clap_derive4attr8ClapAttrENtNtNtCsfvfooZQ3Axs_4core3ops4drop4Drop4dropB10_, symObjAddr: 0x1DD0, symBinAddr: 0x56044, symSize: 0x98 }
  - { offset: 0xB929F, size: 0x8, addend: 0x0, symName: __RNvXsd_NtNtCse1nGBsou5OW_5alloc3vec9into_iterINtB5_8IntoIterTNtNtCs6IAuOt8vWmF_3syn4expr4ExprNtNtB11_5token5CommaEENtNtNtCsfvfooZQ3Axs_4core3ops4drop4Drop4dropCsjOBAykZTw0C_11clap_derive, symObjAddr: 0x1E68, symBinAddr: 0x560DC, symSize: 0x98 }
  - { offset: 0xB9339, size: 0x8, addend: 0x0, symName: __RNvXsd_NtNtCse1nGBsou5OW_5alloc3vec9into_iterINtB5_8IntoIterTNtNtCsjOBAykZTw0C_11clap_derive4attr8ClapAttrNtNtCs6IAuOt8vWmF_3syn5token5CommaEENtNtNtCsfvfooZQ3Axs_4core3ops4drop4Drop4dropB11_, symObjAddr: 0x1F00, symBinAddr: 0x56174, symSize: 0x98 }
  - { offset: 0xBB0C1, size: 0x8, addend: 0x0, symName: __RINvMNtCse1nGBsou5OW_5alloc5sliceSNtNtB5_6string6String4joinReECsjOBAykZTw0C_11clap_derive, symObjAddr: 0x0, symBinAddr: 0x566D0, symSize: 0x34 }
  - { offset: 0xBB0E3, size: 0x8, addend: 0x0, symName: ___rustc_proc_macro_decls_e6cfd8226e0cf0c0__, symObjAddr: 0x6618, symBinAddr: 0x28E110, symSize: 0x0 }
  - { offset: 0xBB70D, size: 0x8, addend: 0x0, symName: __RNvXs_NtNtCsjOBAykZTw0C_11clap_derive5utils7spannedINtB4_2SpNtNtB6_2ty2TyENtNtNtCsfvfooZQ3Axs_4core3ops5deref5Deref5derefB8_, symObjAddr: 0x45D8, symBinAddr: 0x5ACA8, symSize: 0x24 }
  - { offset: 0xBB742, size: 0x8, addend: 0x0, symName: __RNvXs_NtNtCsjOBAykZTw0C_11clap_derive5utils7spannedINtB4_2SpNtNtB8_4attr8AttrKindENtNtNtCsfvfooZQ3Axs_4core3ops5deref5Deref5derefB8_, symObjAddr: 0x45FC, symBinAddr: 0x5ACCC, symSize: 0x24 }
  - { offset: 0xBB777, size: 0x8, addend: 0x0, symName: __RNvXs_NtNtCsjOBAykZTw0C_11clap_derive5utils7spannedINtB4_2SpNtNtB8_4item11CasingStyleENtNtNtCsfvfooZQ3Axs_4core3ops5deref5Deref5derefB8_, symObjAddr: 0x4620, symBinAddr: 0x5ACF0, symSize: 0x24 }
  - { offset: 0xBB7AC, size: 0x8, addend: 0x0, symName: __RNvXs_NtNtCsjOBAykZTw0C_11clap_derive5utils7spannedINtB4_2SpNtNtB8_4item4KindENtNtNtCsfvfooZQ3Axs_4core3ops5deref5Deref5derefB8_, symObjAddr: 0x4644, symBinAddr: 0x5AD14, symSize: 0x24 }
  - { offset: 0xBB7E7, size: 0x8, addend: 0x0, symName: __RNvXs4_NtNtCsjOBAykZTw0C_11clap_derive5utils7spannedINtB5_2SpNtNtB9_4attr8AttrKindEINtNtCsfvfooZQ3Axs_4core3cmp9PartialEqBX_E2eqB9_, symObjAddr: 0x4668, symBinAddr: 0x5AD38, symSize: 0x3C }
  - { offset: 0xBB839, size: 0x8, addend: 0x0, symName: __RNvXs9_NtNtCsjOBAykZTw0C_11clap_derive5utils7spannedINtB5_2SpNtNtB7_2ty2TyENtNtCsfvfooZQ3Axs_4core5clone5Clone5cloneB9_, symObjAddr: 0x5508, symBinAddr: 0x5BBD8, symSize: 0x60 }
  - { offset: 0xBB86E, size: 0x8, addend: 0x0, symName: __RNvXs9_NtNtCsjOBAykZTw0C_11clap_derive5utils7spannedINtB5_2SpNtNtB9_4item4KindENtNtCsfvfooZQ3Axs_4core5clone5Clone5cloneB9_, symObjAddr: 0x5568, symBinAddr: 0x5BC38, symSize: 0x90 }
  - { offset: 0xBB8AF, size: 0x8, addend: 0x0, symName: __RINvXNtNtCsjOBAykZTw0C_11clap_derive5utils5errorNtNtB7_4attr9AttrValueNtB3_13ToTokensError25EXPECTED_Span_OR_ToTokensNtNtCse1nGBsou5OW_5alloc6string6StringEB7_, symObjAddr: 0x4378, symBinAddr: 0x5AA48, symSize: 0xB0 }
  - { offset: 0xBBAEB, size: 0x8, addend: 0x0, symName: __RNCNvMNtCsjOBAykZTw0C_11clap_derive4attrNtB4_8ClapAttr14value_or_abort0B6_, symObjAddr: 0x1670, symBinAddr: 0x57D40, symSize: 0x90 }
  - { offset: 0xBBB5A, size: 0x8, addend: 0x0, symName: __RNvXs_NtCsjOBAykZTw0C_11clap_derive4attrNtB4_8ClapAttrNtNtCs6IAuOt8vWmF_3syn5parse5Parse5parse, symObjAddr: 0x1888, symBinAddr: 0x57F58, symSize: 0x10A0 }
  - { offset: 0xBBD94, size: 0x8, addend: 0x0, symName: __RNvXs0_NtCsjOBAykZTw0C_11clap_derive4attrNtB5_9AttrValueNtNtCs2cqEZUIJimJ_5quote9to_tokens8ToTokens9to_tokens, symObjAddr: 0x2928, symBinAddr: 0x58FF8, symSize: 0x254 }
  - { offset: 0xBBEF0, size: 0x8, addend: 0x0, symName: __RNvXs6_NtCsjOBAykZTw0C_11clap_derive4attrNtB5_13MagicAttrNameNtNtCsfvfooZQ3Axs_4core3cmp9PartialEq2eqB7_, symObjAddr: 0x5390, symBinAddr: 0x5BA60, symSize: 0x34 }
  - { offset: 0xBBF6A, size: 0x8, addend: 0x0, symName: __RNvXs8_NtCsjOBAykZTw0C_11clap_derive4attrNtB5_9AttrValueNtNtCsfvfooZQ3Axs_4core5clone5Clone5cloneB7_, symObjAddr: 0x53C4, symBinAddr: 0x5BA94, symSize: 0xF8 }
  - { offset: 0xBBFF3, size: 0x8, addend: 0x0, symName: __RNvXsa_NtCsjOBAykZTw0C_11clap_derive4attrNtB5_8AttrKindNtNtCsfvfooZQ3Axs_4core5clone5Clone5cloneB7_, symObjAddr: 0x54BC, symBinAddr: 0x5BB8C, symSize: 0x18 }
  - { offset: 0xBC025, size: 0x8, addend: 0x0, symName: __RNvXsc_NtCsjOBAykZTw0C_11clap_derive4attrNtB5_8AttrKindNtNtCsfvfooZQ3Axs_4core3cmp9PartialEq2eqB7_, symObjAddr: 0x54D4, symBinAddr: 0x5BBA4, symSize: 0x34 }
  - { offset: 0xBC0B8, size: 0x8, addend: 0x0, symName: __RNvNtNtCsjOBAykZTw0C_11clap_derive7derives6parser13derive_parser, symObjAddr: 0x2CF0, symBinAddr: 0x593C0, symSize: 0xA54 }
  - { offset: 0xBC406, size: 0x8, addend: 0x0, symName: __RNCNvNtNtCsjOBAykZTw0C_11clap_derive7derives6parser13derive_parser0B7_, symObjAddr: 0x3744, symBinAddr: 0x59E14, symSize: 0x144 }
  - { offset: 0xBC47F, size: 0x8, addend: 0x0, symName: __RNCNvNtNtCsjOBAykZTw0C_11clap_derive7derives6parser13derive_parsers_0B7_, symObjAddr: 0x3888, symBinAddr: 0x59F58, symSize: 0x144 }
  - { offset: 0xBC4F9, size: 0x8, addend: 0x0, symName: __RNvNtNtCsjOBAykZTw0C_11clap_derive7derives6parser14gen_for_struct, symObjAddr: 0x39CC, symBinAddr: 0x5A09C, symSize: 0x584 }
  - { offset: 0xBC681, size: 0x8, addend: 0x0, symName: __RNvNtNtCsjOBAykZTw0C_11clap_derive7derives6parser12gen_for_enum, symObjAddr: 0x3F50, symBinAddr: 0x5A620, symSize: 0x428 }
  - { offset: 0xBC7DF, size: 0x8, addend: 0x0, symName: __RNvCsjOBAykZTw0C_11clap_derive10value_enum, symObjAddr: 0x46A4, symBinAddr: 0x5AD74, symSize: 0x1A0 }
  - { offset: 0xBC859, size: 0x8, addend: 0x0, symName: __RNCNvCsjOBAykZTw0C_11clap_derive10value_enum0B3_, symObjAddr: 0x4844, symBinAddr: 0x5AF14, symSize: 0xB0 }
  - { offset: 0xBC8B4, size: 0x8, addend: 0x0, symName: __RNvCsjOBAykZTw0C_11clap_derive6parser, symObjAddr: 0x48F4, symBinAddr: 0x5AFC4, symSize: 0x1A0 }
  - { offset: 0xBC92E, size: 0x8, addend: 0x0, symName: __RNCNvCsjOBAykZTw0C_11clap_derive6parser0B3_, symObjAddr: 0x4A94, symBinAddr: 0x5B164, symSize: 0x21C }
  - { offset: 0xBC9CA, size: 0x8, addend: 0x0, symName: __RNCNCNvCsjOBAykZTw0C_11clap_derive6parser00B5_, symObjAddr: 0x4CB0, symBinAddr: 0x5B380, symSize: 0xF8 }
  - { offset: 0xBCA31, size: 0x8, addend: 0x0, symName: __RNCNCNvCsjOBAykZTw0C_11clap_derive6parser0s_0B5_, symObjAddr: 0x4DA8, symBinAddr: 0x5B478, symSize: 0x2C }
  - { offset: 0xBCA62, size: 0x8, addend: 0x0, symName: __RNvCsjOBAykZTw0C_11clap_derive10subcommand, symObjAddr: 0x4DD4, symBinAddr: 0x5B4A4, symSize: 0x1A0 }
  - { offset: 0xBCADC, size: 0x8, addend: 0x0, symName: __RNCNvCsjOBAykZTw0C_11clap_derive10subcommand0B3_, symObjAddr: 0x4F74, symBinAddr: 0x5B644, symSize: 0xB0 }
  - { offset: 0xBCB37, size: 0x8, addend: 0x0, symName: __RNvCsjOBAykZTw0C_11clap_derive4args, symObjAddr: 0x5024, symBinAddr: 0x5B6F4, symSize: 0x1A0 }
  - { offset: 0xBCBB1, size: 0x8, addend: 0x0, symName: __RNCNvCsjOBAykZTw0C_11clap_derive4args0B3_, symObjAddr: 0x51C4, symBinAddr: 0x5B894, symSize: 0xB0 }
  - { offset: 0xBCC0C, size: 0x8, addend: 0x0, symName: __RNvCsjOBAykZTw0C_11clap_derive16to_compile_error, symObjAddr: 0x5274, symBinAddr: 0x5B944, symSize: 0x11C }
  - { offset: 0xC084F, size: 0x8, addend: 0x0, symName: __RNCINvNtNtNtCsfvfooZQ3Axs_4core4iter8adapters6filter15filter_try_foldRNtNtCs6IAuOt8vWmF_3syn4attr9AttributeuINtNtNtBa_3ops12control_flow11ControlFlowNtNtCse1nGBsou5OW_5alloc6string6StringENCNvNtNtCsjOBAykZTw0C_11clap_derive5utils12doc_comments19extract_doc_comment0NCINvNtB6_10filter_map19filter_map_try_foldB15_B2n_uB1I_NCB32_s_0NCINvNvNtNtNtB8_6traits8iterator8Iterator4find5checkB2n_NCINvNvXs0_NtB6_10skip_whileINtB6n_9SkipWhileppEB5p_4next5checkB2n_NCB32_s0_0E0E0E0E0B38_, symObjAddr: 0x1B0, symBinAddr: 0x56880, symSize: 0xCC }
  - { offset: 0xC08DE, size: 0x8, addend: 0x0, symName: __RINvXs1_NtNtNtCsfvfooZQ3Axs_4core4iter8adapters6filterINtB6_6FilterINtNtNtBc_5slice4iter4IterNtNtCs6IAuOt8vWmF_3syn4attr9AttributeENCNvNtNtCsjOBAykZTw0C_11clap_derive5utils12doc_comments19extract_doc_comment0ENtNtNtBa_6traits8iterator8Iterator8try_folduNCINvNtB8_10filter_map19filter_map_try_foldRB1t_NtNtCse1nGBsou5OW_5alloc6string6StringuINtNtNtBc_3ops12control_flow11ControlFlowB4P_ENCB27_s_0NCINvNvB3l_4find5checkB4P_NCINvNvXs0_NtB8_10skip_whileINtB6W_9SkipWhileppEB3l_4next5checkB4P_NCB27_s0_0E0E0E0B5s_EB2d_, symObjAddr: 0x148, symBinAddr: 0x56818, symSize: 0x4C }
  - { offset: 0xC0984, size: 0x8, addend: 0x0, symName: __RNCINvNvXs1_NtNtNtCsfvfooZQ3Axs_4core4iter8adapters6filterINtBa_6FilterppENtNtNtBe_6traits8iterator8Iterator5count8to_usizeRTRNtNtCs6IAuOt8vWmF_3syn4data5FieldNtNtCsjOBAykZTw0C_11clap_derive4item4ItemENCNvNtNtB2B_7derives4args11gen_augments_0E0B2B_, symObjAddr: 0x27C, symBinAddr: 0x5694C, symSize: 0x5C }
  - { offset: 0xC09E7, size: 0x8, addend: 0x0, symName: __RNvXs1_NtNtNtCsfvfooZQ3Axs_4core4iter8adapters6filterINtB5_6FilterINtNtNtBb_5slice4iter4IterNtNtCs6IAuOt8vWmF_3syn4attr9AttributeENCNvNtNtCsjOBAykZTw0C_11clap_derive5utils12doc_comments19extract_doc_comment0ENtNtNtB9_6traits8iterator8Iterator9size_hintB2c_, symObjAddr: 0x920, symBinAddr: 0x56FF0, symSize: 0x4C }
  - { offset: 0xC0A42, size: 0x8, addend: 0x0, symName: __RNvXs1_NtNtNtCsfvfooZQ3Axs_4core4iter8adapters6filterINtB5_6FilterINtNtNtBb_5slice4iter4IterTRNtNtCs6IAuOt8vWmF_3syn4data5FieldNtNtCsjOBAykZTw0C_11clap_derive4item4ItemEENCNvNtNtB25_7derives4args11gen_augments_0ENtNtNtB9_6traits8iterator8Iterator5countB25_, symObjAddr: 0x96C, symBinAddr: 0x5703C, symSize: 0x50 }
  - { offset: 0xC0D07, size: 0x8, addend: 0x0, symName: __RINvYINtNtNtNtCsfvfooZQ3Axs_4core4iter8adapters6filter6FilterINtNtNtBc_5slice4iter4IterNtNtCs6IAuOt8vWmF_3syn4attr9AttributeENCNvNtNtCsjOBAykZTw0C_11clap_derive5utils12doc_comments19extract_doc_comment0ENtNtNtBa_6traits8iterator8Iterator10filter_mapNtNtCse1nGBsou5OW_5alloc6string6StringNCB21_s_0EB27_, symObjAddr: 0x194, symBinAddr: 0x56864, symSize: 0x1C }
  - { offset: 0xC0E01, size: 0x8, addend: 0x0, symName: __RNvXsF_NtNtCsfvfooZQ3Axs_4core4iter5rangejNtB5_4Step17forward_uncheckedCsjOBAykZTw0C_11clap_derive, symObjAddr: 0xBD8, symBinAddr: 0x572A8, symSize: 0x48 }
  - { offset: 0xC0F8B, size: 0x8, addend: 0x0, symName: __RNCNvXsd_NtNtCsfvfooZQ3Axs_4core5slice3cmpNtNtCsjOBAykZTw0C_11clap_derive4attr8AttrKindNtB7_13SliceContains14slice_contains0BI_, symObjAddr: 0x2D8, symBinAddr: 0x569A8, symSize: 0x38 }
  - { offset: 0xC0FD2, size: 0x8, addend: 0x0, symName: __RNvXsd_NtNtCsfvfooZQ3Axs_4core5slice3cmpNtNtCsjOBAykZTw0C_11clap_derive4attr8AttrKindNtB5_13SliceContains14slice_containsBG_, symObjAddr: 0xD44, symBinAddr: 0x57414, symSize: 0x78 }
  - { offset: 0xC127C, size: 0x8, addend: 0x0, symName: __RNvXs_NtNtCsfvfooZQ3Axs_4core5slice4iterRSNtNtCse1nGBsou5OW_5alloc6string6StringNtNtNtNtB8_4iter6traits7collect12IntoIterator9into_iterCsjOBAykZTw0C_11clap_derive, symObjAddr: 0xC94, symBinAddr: 0x57364, symSize: 0x58 }
  - { offset: 0xC13CB, size: 0x8, addend: 0x0, symName: __RNvXs_NtNtCsfvfooZQ3Axs_4core5slice4iterRSNtNtCsjOBAykZTw0C_11clap_derive4attr8ClapAttrNtNtNtNtB8_4iter6traits7collect12IntoIterator9into_iterBI_, symObjAddr: 0xCEC, symBinAddr: 0x573BC, symSize: 0x58 }
  - { offset: 0xC169E, size: 0x8, addend: 0x0, symName: __RNvMNtCsfvfooZQ3Axs_4core5sliceSNtNtCse1nGBsou5OW_5alloc6string6String4iterCsjOBAykZTw0C_11clap_derive, symObjAddr: 0x70C, symBinAddr: 0x56DDC, symSize: 0x28 }
  - { offset: 0xC16D5, size: 0x8, addend: 0x0, symName: __RNvMNtCsfvfooZQ3Axs_4core5sliceSNtNtCse1nGBsou5OW_5alloc6string6String4lastCsjOBAykZTw0C_11clap_derive, symObjAddr: 0x734, symBinAddr: 0x56E04, symSize: 0x58 }
  - { offset: 0xC1722, size: 0x8, addend: 0x0, symName: __RNvMNtCsfvfooZQ3Axs_4core5sliceSNtNtCsjOBAykZTw0C_11clap_derive4attr8AttrKind4iterBy_, symObjAddr: 0x78C, symBinAddr: 0x56E5C, symSize: 0x28 }
  - { offset: 0xC1759, size: 0x8, addend: 0x0, symName: __RNvMNtCsfvfooZQ3Axs_4core5sliceSNtNtCsjOBAykZTw0C_11clap_derive4attr8AttrKind8containsBy_, symObjAddr: 0x7B4, symBinAddr: 0x56E84, symSize: 0x48 }
  - { offset: 0xC179F, size: 0x8, addend: 0x0, symName: __RNvMNtCsfvfooZQ3Axs_4core5sliceSNtNtCsjOBAykZTw0C_11clap_derive4attr8ClapAttr4iterBy_, symObjAddr: 0x7FC, symBinAddr: 0x56ECC, symSize: 0x28 }
  - { offset: 0xC1A96, size: 0x8, addend: 0x0, symName: __RNvXNtCsfvfooZQ3Axs_4core7convertRNtNtCse1nGBsou5OW_5alloc6string6StringINtB2_5AsRefeE6as_refCsjOBAykZTw0C_11clap_derive, symObjAddr: 0x8BC, symBinAddr: 0x56F8C, symSize: 0x28 }
  - { offset: 0xC1AE2, size: 0x8, addend: 0x0, symName: __RNvYINtNtNtCsjOBAykZTw0C_11clap_derive5utils7spanned2SpNtNtB9_4attr8AttrKindEINtNtCsfvfooZQ3Axs_4core3cmp9PartialEqBR_E2neB9_, symObjAddr: 0xE10, symBinAddr: 0x574E0, symSize: 0x30 }
  - { offset: 0xC1B31, size: 0x8, addend: 0x0, symName: __RNvYNtNtCsjOBAykZTw0C_11clap_derive4attr8AttrKindNtNtCsfvfooZQ3Axs_4core3cmp9PartialEq2neB6_, symObjAddr: 0xE40, symBinAddr: 0x57510, symSize: 0x30 }
  - { offset: 0xC2006, size: 0x8, addend: 0x0, symName: __RNvXs1_NtCs3cP53eQoTwO_11proc_macro26markerNtB5_19ProcMacroAutoTraitsNtNtCsfvfooZQ3Axs_4core5clone5Clone5cloneCsjOBAykZTw0C_11clap_derive, symObjAddr: 0x910, symBinAddr: 0x56FE0, symSize: 0x10 }
  - { offset: 0xC2245, size: 0x8, addend: 0x0, symName: __RINvMNtCse1nGBsou5OW_5alloc5sliceSNtNtB5_6string6String4joinReECsjOBAykZTw0C_11clap_derive, symObjAddr: 0x0, symBinAddr: 0x566D0, symSize: 0x34 }
  - { offset: 0xC35AB, size: 0x8, addend: 0x0, symName: __RNvXss_NtCse1nGBsou5OW_5alloc6stringNtB5_6StringNtNtNtCsfvfooZQ3Axs_4core3ops5deref5Deref5derefCsjOBAykZTw0C_11clap_derive, symObjAddr: 0xDEC, symBinAddr: 0x574BC, symSize: 0x24 }
  - { offset: 0xC35DF, size: 0x8, addend: 0x0, symName: __RNvXsG_NtCse1nGBsou5OW_5alloc6stringNtB5_6StringINtNtCsfvfooZQ3Axs_4core7convert5AsRefeE6as_refCsjOBAykZTw0C_11clap_derive, symObjAddr: 0xC20, symBinAddr: 0x572F0, symSize: 0x24 }
  - { offset: 0xC3631, size: 0x8, addend: 0x0, symName: __RNvXsk_NtCse1nGBsou5OW_5alloc6stringNtB5_6StringNtNtCsfvfooZQ3Axs_4core7default7Default7defaultCsjOBAykZTw0C_11clap_derive, symObjAddr: 0xDBC, symBinAddr: 0x5748C, symSize: 0x30 }
  - { offset: 0xC3687, size: 0x8, addend: 0x0, symName: __RNvXs0_NtCse1nGBsou5OW_5alloc3strNtNtB7_6string6StringINtNtCsfvfooZQ3Axs_4core6borrow6BorroweE6borrowCsjOBAykZTw0C_11clap_derive, symObjAddr: 0x8E4, symBinAddr: 0x56FB4, symSize: 0x2C }
  - { offset: 0xC36B9, size: 0x8, addend: 0x0, symName: __RNvXs_NtCse1nGBsou5OW_5alloc3strSNtNtB6_6string6StringINtNtB6_5slice4JoinReE4joinCsjOBAykZTw0C_11clap_derive, symObjAddr: 0xC44, symBinAddr: 0x57314, symSize: 0x50 }
  - { offset: 0xC383F, size: 0x8, addend: 0x0, symName: __RINvMs3_NtCsfvfooZQ3Axs_4core3fmtNtB6_9Arguments6new_v1Kj1_Kj0_ECsjOBAykZTw0C_11clap_derive, symObjAddr: 0x34, symBinAddr: 0x56704, symSize: 0x4C }
  - { offset: 0xC38A5, size: 0x8, addend: 0x0, symName: __RINvMs3_NtCsfvfooZQ3Axs_4core3fmtNtB6_9Arguments6new_v1Kj3_Kj2_ECsjOBAykZTw0C_11clap_derive, symObjAddr: 0x80, symBinAddr: 0x56750, symSize: 0x54 }
  - { offset: 0xC390B, size: 0x8, addend: 0x0, symName: __RINvMs3_NtCsfvfooZQ3Axs_4core3fmtNtB6_9Arguments6new_v1Kj4_Kj3_ECsjOBAykZTw0C_11clap_derive, symObjAddr: 0xD4, symBinAddr: 0x567A4, symSize: 0x54 }
  - { offset: 0xC3947, size: 0x8, addend: 0x0, symName: __RINvNtCs2cqEZUIJimJ_5quote9___private8get_spanNtCs3cP53eQoTwO_11proc_macro24SpanECsjOBAykZTw0C_11clap_derive, symObjAddr: 0x128, symBinAddr: 0x567F8, symSize: 0x20 }
  - { offset: 0xC3981, size: 0x8, addend: 0x0, symName: __RNvXs4_NtCs2cqEZUIJimJ_5quote9___privateINtB5_9RepInterpNtCs3cP53eQoTwO_11proc_macro211TokenStreamENtNtB7_9to_tokens8ToTokens9to_tokensCsjOBAykZTw0C_11clap_derive, symObjAddr: 0x9BC, symBinAddr: 0x5708C, symSize: 0x3C }
  - { offset: 0xC39C0, size: 0x8, addend: 0x0, symName: __RNvXs4_NtCs2cqEZUIJimJ_5quote9___privateINtB5_9RepInterpRINtNtCsfvfooZQ3Axs_4core6option6OptionNtCs3cP53eQoTwO_11proc_macro211TokenStreamEENtNtB7_9to_tokens8ToTokens9to_tokensCsjOBAykZTw0C_11clap_derive, symObjAddr: 0x9F8, symBinAddr: 0x570C8, symSize: 0x3C }
  - { offset: 0xC39FF, size: 0x8, addend: 0x0, symName: __RNvXs4_NtCs2cqEZUIJimJ_5quote9___privateINtB5_9RepInterpRNtCs3cP53eQoTwO_11proc_macro211TokenStreamENtNtB7_9to_tokens8ToTokens9to_tokensCsjOBAykZTw0C_11clap_derive, symObjAddr: 0xA34, symBinAddr: 0x57104, symSize: 0x3C }
  - { offset: 0xC3A3E, size: 0x8, addend: 0x0, symName: __RNvXs4_NtCs2cqEZUIJimJ_5quote9___privateINtB5_9RepInterpRNtCs3cP53eQoTwO_11proc_macro25IdentENtNtB7_9to_tokens8ToTokens9to_tokensCsjOBAykZTw0C_11clap_derive, symObjAddr: 0xA70, symBinAddr: 0x57140, symSize: 0x3C }
  - { offset: 0xC3A7D, size: 0x8, addend: 0x0, symName: __RNvXs4_NtCs2cqEZUIJimJ_5quote9___privateINtB5_9RepInterpRNtNtCs6IAuOt8vWmF_3syn4expr4ExprENtNtB7_9to_tokens8ToTokens9to_tokensCsjOBAykZTw0C_11clap_derive, symObjAddr: 0xAAC, symBinAddr: 0x5717C, symSize: 0x3C }
  - { offset: 0xC3ABC, size: 0x8, addend: 0x0, symName: __RNvXs4_NtCs2cqEZUIJimJ_5quote9___privateINtB5_9RepInterpRNtNtCsjOBAykZTw0C_11clap_derive4item11DeprecationENtNtB7_9to_tokens8ToTokens9to_tokensBX_, symObjAddr: 0xAE8, symBinAddr: 0x571B8, symSize: 0x3C }
  - { offset: 0xC3AFB, size: 0x8, addend: 0x0, symName: __RNvXs4_NtCs2cqEZUIJimJ_5quote9___privateINtB5_9RepInterpRNtNtCsjOBAykZTw0C_11clap_derive4item6MethodENtNtB7_9to_tokens8ToTokens9to_tokensBX_, symObjAddr: 0xB24, symBinAddr: 0x571F4, symSize: 0x3C }
  - { offset: 0xC3B3A, size: 0x8, addend: 0x0, symName: __RNvXs4_NtCs2cqEZUIJimJ_5quote9___privateINtB5_9RepInterpRRNtCs3cP53eQoTwO_11proc_macro25IdentENtNtB7_9to_tokens8ToTokens9to_tokensCsjOBAykZTw0C_11clap_derive, symObjAddr: 0xB60, symBinAddr: 0x57230, symSize: 0x3C }
  - { offset: 0xC3B79, size: 0x8, addend: 0x0, symName: __RNvXs4_NtCs2cqEZUIJimJ_5quote9___privateINtB5_9RepInterpRRNtNtCsjOBAykZTw0C_11clap_derive4item4NameENtNtB7_9to_tokens8ToTokens9to_tokensBY_, symObjAddr: 0xB9C, symBinAddr: 0x5726C, symSize: 0x3C }
  - { offset: 0xC3D42, size: 0x8, addend: 0x0, symName: __RNvXNtCs2cqEZUIJimJ_5quote9to_tokensRNtNtCsjOBAykZTw0C_11clap_derive4attr9AttrValueNtB2_8ToTokens9to_tokensBD_, symObjAddr: 0x87C, symBinAddr: 0x56F4C, symSize: 0x40 }
  - { offset: 0xC3D87, size: 0x8, addend: 0x0, symName: __RNvYNtNtCsjOBAykZTw0C_11clap_derive4attr9AttrValueNtNtCs2cqEZUIJimJ_5quote9to_tokens8ToTokens15to_token_streamB6_, symObjAddr: 0xE70, symBinAddr: 0x57540, symSize: 0x8C }
  - { offset: 0xC3DD1, size: 0x8, addend: 0x0, symName: __RNvYRNtNtCsjOBAykZTw0C_11clap_derive4attr9AttrValueNtNtCs2cqEZUIJimJ_5quote9to_tokens8ToTokens15to_token_streamB7_, symObjAddr: 0xEFC, symBinAddr: 0x575CC, symSize: 0x8C }
  - { offset: 0xC941C, size: 0x8, addend: 0x0, symName: __RNvMNtCse1nGBsou5OW_5alloc6stringNtB2_6String13with_capacityCsjOBAykZTw0C_11clap_derive, symObjAddr: 0x310, symBinAddr: 0x569E0, symSize: 0x58 }
  - { offset: 0xC96C9, size: 0x8, addend: 0x0, symName: __RNvMNtCse1nGBsou5OW_5alloc6stringNtB2_6String3popCsjOBAykZTw0C_11clap_derive, symObjAddr: 0x368, symBinAddr: 0x56A38, symSize: 0x1B4 }
  - { offset: 0xC9BCF, size: 0x8, addend: 0x0, symName: __RNvMNtCse1nGBsou5OW_5alloc6stringNtB2_6String4pushCsjOBAykZTw0C_11clap_derive, symObjAddr: 0x51C, symBinAddr: 0x56BEC, symSize: 0x100 }
  - { offset: 0xC9E4E, size: 0x8, addend: 0x0, symName: __RNvMNtCse1nGBsou5OW_5alloc6stringNtB2_6String6as_strCsjOBAykZTw0C_11clap_derive, symObjAddr: 0x61C, symBinAddr: 0x56CEC, symSize: 0x70 }
  - { offset: 0xC9F83, size: 0x8, addend: 0x0, symName: __RNvMNtCse1nGBsou5OW_5alloc6stringNtB2_6String8is_emptyCsjOBAykZTw0C_11clap_derive, symObjAddr: 0x68C, symBinAddr: 0x56D5C, symSize: 0x20 }
  - { offset: 0xCA0AC, size: 0x8, addend: 0x0, symName: __RNvMNtCse1nGBsou5OW_5alloc6stringNtB2_6String8push_strCsjOBAykZTw0C_11clap_derive, symObjAddr: 0x6AC, symBinAddr: 0x56D7C, symSize: 0x60 }
  - { offset: 0xCA224, size: 0x8, addend: 0x0, symName: __RNvMs3_NtCsfvfooZQ3Axs_4core3fmtNtB5_9Arguments16new_v1_formattedCsjOBAykZTw0C_11clap_derive, symObjAddr: 0x824, symBinAddr: 0x56EF4, symSize: 0x58 }
  - { offset: 0xCA645, size: 0x8, addend: 0x0, symName: __RNvMNtCsjOBAykZTw0C_11clap_derive4attrNtB2_8ClapAttr9parse_all, symObjAddr: 0xF88, symBinAddr: 0x57658, symSize: 0x6A0 }
  - { offset: 0xCA71D, size: 0x8, addend: 0x0, symName: __RNvMNtCsjOBAykZTw0C_11clap_derive4attrNtB2_8ClapAttr14value_or_abort, symObjAddr: 0x1628, symBinAddr: 0x57CF8, symSize: 0x48 }
  - { offset: 0xCA74C, size: 0x8, addend: 0x0, symName: __RNvMNtCsjOBAykZTw0C_11clap_derive4attrNtB2_8ClapAttr16lit_str_or_abort, symObjAddr: 0x1700, symBinAddr: 0x57DD0, symSize: 0x188 }
  - { offset: 0xCA7FA, size: 0x8, addend: 0x0, symName: __RNvMs1_NtCsjOBAykZTw0C_11clap_derive4attrNtB5_8AttrKind6as_str, symObjAddr: 0x2B7C, symBinAddr: 0x5924C, symSize: 0x174 }
  - { offset: 0xCA81C, size: 0x8, addend: 0x0, symName: __RNvMNtNtCsjOBAykZTw0C_11clap_derive5utils7spannedINtB2_2SpNtNtB4_2ty2TyE3newB6_, symObjAddr: 0x4428, symBinAddr: 0x5AAF8, symSize: 0x30 }
  - { offset: 0xCA855, size: 0x8, addend: 0x0, symName: __RNvMNtNtCsjOBAykZTw0C_11clap_derive5utils7spannedINtB2_2SpNtNtB6_4attr8AttrKindE3newB6_, symObjAddr: 0x4458, symBinAddr: 0x5AB28, symSize: 0x30 }
  - { offset: 0xCA88E, size: 0x8, addend: 0x0, symName: __RNvMNtNtCsjOBAykZTw0C_11clap_derive5utils7spannedINtB2_2SpNtNtB6_4item11CasingStyleE3newB6_, symObjAddr: 0x4488, symBinAddr: 0x5AB58, symSize: 0x30 }
  - { offset: 0xCA8C7, size: 0x8, addend: 0x0, symName: __RNvMNtNtCsjOBAykZTw0C_11clap_derive5utils7spannedINtB2_2SpNtNtB6_4item4KindE3newB6_, symObjAddr: 0x44B8, symBinAddr: 0x5AB88, symSize: 0x60 }
  - { offset: 0xCA90E, size: 0x8, addend: 0x0, symName: __RNvMNtNtCsjOBAykZTw0C_11clap_derive5utils7spannedINtB2_2SpNtNtB6_4attr8AttrKindE3getB6_, symObjAddr: 0x4518, symBinAddr: 0x5ABE8, symSize: 0x24 }
  - { offset: 0xCA953, size: 0x8, addend: 0x0, symName: __RNvMNtNtCsjOBAykZTw0C_11clap_derive5utils7spannedINtB2_2SpNtNtB6_4item4KindE3getB6_, symObjAddr: 0x453C, symBinAddr: 0x5AC0C, symSize: 0x24 }
  - { offset: 0xCA98B, size: 0x8, addend: 0x0, symName: __RNvMNtNtCsjOBAykZTw0C_11clap_derive5utils7spannedINtB2_2SpNtNtB4_2ty2TyE4spanB6_, symObjAddr: 0x4560, symBinAddr: 0x5AC30, symSize: 0x28 }
  - { offset: 0xCA9B6, size: 0x8, addend: 0x0, symName: __RNvMNtNtCsjOBAykZTw0C_11clap_derive5utils7spannedINtB2_2SpNtNtB6_4attr8AttrKindE4spanB6_, symObjAddr: 0x4588, symBinAddr: 0x5AC58, symSize: 0x28 }
  - { offset: 0xCA9E1, size: 0x8, addend: 0x0, symName: __RNvMNtNtCsjOBAykZTw0C_11clap_derive5utils7spannedINtB2_2SpNtNtB6_4item4KindE4spanB6_, symObjAddr: 0x45B0, symBinAddr: 0x5AC80, symSize: 0x28 }
  - { offset: 0xCACDE, size: 0x8, addend: 0x0, symName: __RINvMNtCs6IAuOt8vWmF_3syn4attrNtB3_9Attribute15parse_args_withNvMNtB5_10punctuatedINtB11_10PunctuatedNtNtCsjOBAykZTw0C_11clap_derive4attr8ClapAttrNtNtB5_5token5CommaE16parse_terminatedEB1F_, symObjAddr: 0x0, symBinAddr: 0x5BCC8, symSize: 0x358 }
  - { offset: 0xCB76F, size: 0x8, addend: 0x0, symName: __RNvXsA_NtCs3cP53eQoTwO_11proc_macro28fallbackNtB5_5IdentNtNtCsfvfooZQ3Axs_4core5clone5Clone5cloneCsjOBAykZTw0C_11clap_derive, symObjAddr: 0x3A50, symBinAddr: 0x5F6B0, symSize: 0x94 }
  - { offset: 0xCB7A3, size: 0x8, addend: 0x0, symName: __RNvXss_NtCs3cP53eQoTwO_11proc_macro28fallbackNtB5_11TokenStreamNtNtCsfvfooZQ3Axs_4core5clone5Clone5cloneCsjOBAykZTw0C_11clap_derive, symObjAddr: 0x3BC4, symBinAddr: 0x5F824, symSize: 0x24 }
  - { offset: 0xCB7D5, size: 0x8, addend: 0x0, symName: __RNvXsu_NtCs3cP53eQoTwO_11proc_macro28fallbackNtB5_4SpanNtNtCsfvfooZQ3Axs_4core5clone5Clone5cloneCsjOBAykZTw0C_11clap_derive, symObjAddr: 0x3BE8, symBinAddr: 0x5F848, symSize: 0x10 }
  - { offset: 0xCC0E4, size: 0x8, addend: 0x0, symName: __RNvNtNtCsjOBAykZTw0C_11clap_derive7derives10value_enum17derive_value_enum, symObjAddr: 0x3F5C, symBinAddr: 0x5FBBC, symSize: 0x51C }
  - { offset: 0xCC297, size: 0x8, addend: 0x0, symName: __RNvNtNtCsjOBAykZTw0C_11clap_derive7derives10value_enum12gen_for_enum, symObjAddr: 0x4478, symBinAddr: 0x600D8, symSize: 0xC30 }
  - { offset: 0xCC44A, size: 0x8, addend: 0x0, symName: __RNvNtNtCsjOBAykZTw0C_11clap_derive7derives10value_enum4lits, symObjAddr: 0x50A8, symBinAddr: 0x60D08, symSize: 0x698 }
  - { offset: 0xCC5B9, size: 0x8, addend: 0x0, symName: __RNvNtNtCsjOBAykZTw0C_11clap_derive7derives10value_enum18gen_value_variants, symObjAddr: 0x5740, symBinAddr: 0x613A0, symSize: 0x3D8 }
  - { offset: 0xCC6F0, size: 0x8, addend: 0x0, symName: __RNCNvNtNtCsjOBAykZTw0C_11clap_derive7derives10value_enum18gen_value_variants0B7_, symObjAddr: 0x5B18, symBinAddr: 0x61778, symSize: 0x28 }
  - { offset: 0xCC72E, size: 0x8, addend: 0x0, symName: __RNvNtNtCsjOBAykZTw0C_11clap_derive7derives10value_enum21gen_to_possible_value, symObjAddr: 0x5B40, symBinAddr: 0x617A0, symSize: 0x648 }
  - { offset: 0xCD756, size: 0x8, addend: 0x0, symName: __RINvNtCsfvfooZQ3Axs_4core3ptr13drop_in_placeINtNtB4_4cell10UnsafeCellNtNtNtCs9i5KxIbZ5ph_10proc_macro6bridge6client6BridgeEECsjOBAykZTw0C_11clap_derive, symObjAddr: 0x490, symBinAddr: 0x5C110, symSize: 0x24 }
  - { offset: 0xCD785, size: 0x8, addend: 0x0, symName: __RINvNtCsfvfooZQ3Axs_4core3ptr13drop_in_placeINtNtB4_4cell7RefCellNtNtNtCs9i5KxIbZ5ph_10proc_macro6bridge6client6BridgeEECsjOBAykZTw0C_11clap_derive, symObjAddr: 0x4B4, symBinAddr: 0x5C134, symSize: 0x24 }
  - { offset: 0xCD7B4, size: 0x8, addend: 0x0, symName: __RINvNtCsfvfooZQ3Axs_4core3ptr13drop_in_placeINtNtB4_6option4ItemNtNtCs6IAuOt8vWmF_3syn4expr4ExprEECsjOBAykZTw0C_11clap_derive, symObjAddr: 0x4D8, symBinAddr: 0x5C158, symSize: 0x24 }
  - { offset: 0xCD7E3, size: 0x8, addend: 0x0, symName: __RINvNtCsfvfooZQ3Axs_4core3ptr13drop_in_placeINtNtB4_6option4ItemNtNtCsjOBAykZTw0C_11clap_derive4attr8ClapAttrEEB14_, symObjAddr: 0x4FC, symBinAddr: 0x5C17C, symSize: 0x24 }
  - { offset: 0xCD812, size: 0x8, addend: 0x0, symName: __RINvNtCsfvfooZQ3Axs_4core3ptr13drop_in_placeINtNtB4_6option6OptionINtNtB4_6result6ResultNtNtB4_7convert10InfallibleNtNtCs6IAuOt8vWmF_3syn5error5ErrorEEECsjOBAykZTw0C_11clap_derive, symObjAddr: 0x520, symBinAddr: 0x5C1A0, symSize: 0x48 }
  - { offset: 0xCD841, size: 0x8, addend: 0x0, symName: __RINvNtCsfvfooZQ3Axs_4core3ptr13drop_in_placeINtNtB4_6option6OptionINtNtCse1nGBsou5OW_5alloc5boxed3BoxNtNtCsjOBAykZTw0C_11clap_derive4attr8ClapAttrEEEB1F_, symObjAddr: 0x568, symBinAddr: 0x5C1E8, symSize: 0x44 }
  - { offset: 0xCD870, size: 0x8, addend: 0x0, symName: __RINvNtCsfvfooZQ3Axs_4core3ptr13drop_in_placeINtNtB4_6option6OptionINtNtNtCse1nGBsou5OW_5alloc3vec9into_iter8IntoIterNtNtB19_6string6StringEEECsjOBAykZTw0C_11clap_derive, symObjAddr: 0x5AC, symBinAddr: 0x5C22C, symSize: 0x44 }
  - { offset: 0xCD89F, size: 0x8, addend: 0x0, symName: __RINvNtCsfvfooZQ3Axs_4core3ptr13drop_in_placeINtNtB4_6option6OptionNtNtCsjOBAykZTw0C_11clap_derive4attr8ClapAttrEEB16_, symObjAddr: 0x5F0, symBinAddr: 0x5C270, symSize: 0x44 }
  - { offset: 0xCD8CE, size: 0x8, addend: 0x0, symName: __RINvNtCsfvfooZQ3Axs_4core3ptr13drop_in_placeINtNtB4_6option6OptionNtNtCsjOBAykZTw0C_11clap_derive4attr9AttrValueEEB16_, symObjAddr: 0x634, symBinAddr: 0x5C2B4, symSize: 0x44 }
  - { offset: 0xCD8FD, size: 0x8, addend: 0x0, symName: __RINvNtCsfvfooZQ3Axs_4core3ptr13drop_in_placeINtNtB4_6option6OptionNtNtCsjOBAykZTw0C_11clap_derive4item11ValueParserEEB16_, symObjAddr: 0x678, symBinAddr: 0x5C2F8, symSize: 0x4C }
  - { offset: 0xCD92C, size: 0x8, addend: 0x0, symName: __RINvNtCsfvfooZQ3Axs_4core3ptr13drop_in_placeINtNtB4_6option6OptionNtNtCsjOBAykZTw0C_11clap_derive4item6ActionEEB16_, symObjAddr: 0x6C4, symBinAddr: 0x5C344, symSize: 0x4C }
  - { offset: 0xCD95B, size: 0x8, addend: 0x0, symName: __RINvNtCsfvfooZQ3Axs_4core3ptr13drop_in_placeINtNtB4_6option6OptionNtNtCsjOBAykZTw0C_11clap_derive4item6MethodEEB16_, symObjAddr: 0x710, symBinAddr: 0x5C390, symSize: 0x48 }
  - { offset: 0xCD98A, size: 0x8, addend: 0x0, symName: __RINvNtCsfvfooZQ3Axs_4core3ptr13drop_in_placeINtNtB4_6option6OptionTNtCs3cP53eQoTwO_11proc_macro24SpanRNtB15_5IdentNtB15_11TokenStreamEEECsjOBAykZTw0C_11clap_derive, symObjAddr: 0x758, symBinAddr: 0x5C3D8, symSize: 0x48 }
  - { offset: 0xCD9B9, size: 0x8, addend: 0x0, symName: __RINvNtCsfvfooZQ3Axs_4core3ptr13drop_in_placeINtNtB4_6option6OptionTRNtNtCs6IAuOt8vWmF_3syn4data5FieldNtNtCsjOBAykZTw0C_11clap_derive4item4ItemEEEB1F_, symObjAddr: 0x7A0, symBinAddr: 0x5C420, symSize: 0x44 }
  - { offset: 0xCD9E8, size: 0x8, addend: 0x0, symName: __RINvNtCsfvfooZQ3Axs_4core3ptr13drop_in_placeINtNtB4_6option6OptionTRNtNtCs6IAuOt8vWmF_3syn4data7VariantNtNtCsjOBAykZTw0C_11clap_derive4item4ItemEEEB1H_, symObjAddr: 0x7E4, symBinAddr: 0x5C464, symSize: 0x44 }
  - { offset: 0xCDA17, size: 0x8, addend: 0x0, symName: __RINvNtCsfvfooZQ3Axs_4core3ptr13drop_in_placeINtNtB4_6option8IntoIterNtNtCs6IAuOt8vWmF_3syn4expr4ExprEECsjOBAykZTw0C_11clap_derive, symObjAddr: 0x828, symBinAddr: 0x5C4A8, symSize: 0x24 }
  - { offset: 0xCDA46, size: 0x8, addend: 0x0, symName: __RINvNtCsfvfooZQ3Axs_4core3ptr13drop_in_placeINtNtB4_6option8IntoIterNtNtCsjOBAykZTw0C_11clap_derive4attr8ClapAttrEEB18_, symObjAddr: 0x84C, symBinAddr: 0x5C4CC, symSize: 0x24 }
  - { offset: 0xCDA75, size: 0x8, addend: 0x0, symName: __RINvNtCsfvfooZQ3Axs_4core3ptr13drop_in_placeINtNtB4_6result6ResultNtNtB4_7convert10InfallibleNtNtCs6IAuOt8vWmF_3syn5error5ErrorEECsjOBAykZTw0C_11clap_derive, symObjAddr: 0x870, symBinAddr: 0x5C4F0, symSize: 0x30 }
  - { offset: 0xCDAA4, size: 0x8, addend: 0x0, symName: __RINvNtCsfvfooZQ3Axs_4core3ptr13drop_in_placeINtNtB4_6result6ResultNtNtCs6IAuOt8vWmF_3syn4expr4ExprNtNtB16_5error5ErrorEECsjOBAykZTw0C_11clap_derive, symObjAddr: 0x8A0, symBinAddr: 0x5C520, symSize: 0x58 }
  - { offset: 0xCDAD3, size: 0x8, addend: 0x0, symName: __RINvNtCsfvfooZQ3Axs_4core3ptr13drop_in_placeINtNtB4_6result6ResultNtNtCse1nGBsou5OW_5alloc6string6StringNtNtCscOYdFFY2T5N_3std3env8VarErrorEECsjOBAykZTw0C_11clap_derive, symObjAddr: 0x8F8, symBinAddr: 0x5C578, symSize: 0x50 }
  - { offset: 0xCDB02, size: 0x8, addend: 0x0, symName: __RINvNtCsfvfooZQ3Axs_4core3ptr13drop_in_placeINtNtCs2cqEZUIJimJ_5quote9___private9RepInterpNtCs3cP53eQoTwO_11proc_macro211TokenStreamEECsjOBAykZTw0C_11clap_derive, symObjAddr: 0x948, symBinAddr: 0x5C5C8, symSize: 0x24 }
  - { offset: 0xCDB31, size: 0x8, addend: 0x0, symName: __RINvNtCsfvfooZQ3Axs_4core3ptr13drop_in_placeINtNtCs6IAuOt8vWmF_3syn10punctuated10PunctuatedNtNtCsjOBAykZTw0C_11clap_derive4attr8ClapAttrNtNtBL_5token5CommaEEB1v_, symObjAddr: 0x96C, symBinAddr: 0x5C5EC, symSize: 0x60 }
  - { offset: 0xCDB60, size: 0x8, addend: 0x0, symName: __RINvNtCsfvfooZQ3Axs_4core3ptr13drop_in_placeINtNtCs6IAuOt8vWmF_3syn10punctuated4IterNtNtBL_4data5FieldEECsjOBAykZTw0C_11clap_derive, symObjAddr: 0x9EC, symBinAddr: 0x5C64C, symSize: 0x24 }
  - { offset: 0xCDB8F, size: 0x8, addend: 0x0, symName: __RINvNtCsfvfooZQ3Axs_4core3ptr13drop_in_placeINtNtCs6IAuOt8vWmF_3syn10punctuated4IterNtNtBL_4data7VariantEECsjOBAykZTw0C_11clap_derive, symObjAddr: 0xA10, symBinAddr: 0x5C670, symSize: 0x24 }
  - { offset: 0xCDBBE, size: 0x8, addend: 0x0, symName: __RINvNtCsfvfooZQ3Axs_4core3ptr13drop_in_placeINtNtCs6IAuOt8vWmF_3syn10punctuated4IterNtNtBL_4path15GenericArgumentEECsjOBAykZTw0C_11clap_derive, symObjAddr: 0xA34, symBinAddr: 0x5C694, symSize: 0x24 }
  - { offset: 0xCDBED, size: 0x8, addend: 0x0, symName: __RINvNtCsfvfooZQ3Axs_4core3ptr13drop_in_placeINtNtCs6IAuOt8vWmF_3syn10punctuated8IntoIterNtNtBL_4expr4ExprEECsjOBAykZTw0C_11clap_derive, symObjAddr: 0xA58, symBinAddr: 0x5C6B8, symSize: 0x24 }
  - { offset: 0xCDC1C, size: 0x8, addend: 0x0, symName: __RINvNtCsfvfooZQ3Axs_4core3ptr13drop_in_placeINtNtCs6IAuOt8vWmF_3syn10punctuated8IntoIterNtNtCsjOBAykZTw0C_11clap_derive4attr8ClapAttrEEB1s_, symObjAddr: 0xA7C, symBinAddr: 0x5C6DC, symSize: 0x24 }
  - { offset: 0xCDC4B, size: 0x8, addend: 0x0, symName: __RINvNtCsfvfooZQ3Axs_4core3ptr13drop_in_placeINtNtCse1nGBsou5OW_5alloc3vec3VecINtNtB4_6option6OptionNtCs3cP53eQoTwO_11proc_macro211TokenStreamEEECsjOBAykZTw0C_11clap_derive, symObjAddr: 0xAA0, symBinAddr: 0x5C700, symSize: 0x5C }
  - { offset: 0xCDC7A, size: 0x8, addend: 0x0, symName: __RINvNtCsfvfooZQ3Axs_4core3ptr13drop_in_placeINtNtCse1nGBsou5OW_5alloc3vec3VecNtCs3cP53eQoTwO_11proc_macro211TokenStreamEECsjOBAykZTw0C_11clap_derive, symObjAddr: 0xAFC, symBinAddr: 0x5C75C, symSize: 0x5C }
  - { offset: 0xCDCA9, size: 0x8, addend: 0x0, symName: __RINvNtCsfvfooZQ3Axs_4core3ptr13drop_in_placeINtNtCse1nGBsou5OW_5alloc3vec3VecNtCs3cP53eQoTwO_11proc_macro25IdentEECsjOBAykZTw0C_11clap_derive, symObjAddr: 0xB58, symBinAddr: 0x5C7B8, symSize: 0x5C }
  - { offset: 0xCDCD8, size: 0x8, addend: 0x0, symName: __RINvNtCsfvfooZQ3Axs_4core3ptr13drop_in_placeINtNtCse1nGBsou5OW_5alloc3vec3VecNtNtBL_6string6StringEECsjOBAykZTw0C_11clap_derive, symObjAddr: 0xBB4, symBinAddr: 0x5C814, symSize: 0x5C }
  - { offset: 0xCDD07, size: 0x8, addend: 0x0, symName: __RINvNtCsfvfooZQ3Axs_4core3ptr13drop_in_placeINtNtCse1nGBsou5OW_5alloc3vec3VecNtNtCs6IAuOt8vWmF_3syn4expr4ExprEECsjOBAykZTw0C_11clap_derive, symObjAddr: 0xC10, symBinAddr: 0x5C870, symSize: 0x5C }
  - { offset: 0xCDD36, size: 0x8, addend: 0x0, symName: __RINvNtCsfvfooZQ3Axs_4core3ptr13drop_in_placeINtNtCse1nGBsou5OW_5alloc3vec3VecNtNtCsjOBAykZTw0C_11clap_derive4attr8ClapAttrEEB1h_, symObjAddr: 0xC6C, symBinAddr: 0x5C8CC, symSize: 0x5C }
  - { offset: 0xCDD65, size: 0x8, addend: 0x0, symName: __RINvNtCsfvfooZQ3Axs_4core3ptr13drop_in_placeINtNtCse1nGBsou5OW_5alloc3vec3VecNtNtCsjOBAykZTw0C_11clap_derive4item11DeprecationEEB1h_, symObjAddr: 0xCC8, symBinAddr: 0x5C928, symSize: 0x5C }
  - { offset: 0xCDD94, size: 0x8, addend: 0x0, symName: __RINvNtCsfvfooZQ3Axs_4core3ptr13drop_in_placeINtNtCse1nGBsou5OW_5alloc3vec3VecNtNtCsjOBAykZTw0C_11clap_derive4item6MethodEEB1h_, symObjAddr: 0xD24, symBinAddr: 0x5C984, symSize: 0x5C }
  - { offset: 0xCDDC3, size: 0x8, addend: 0x0, symName: __RINvNtCsfvfooZQ3Axs_4core3ptr13drop_in_placeINtNtCse1nGBsou5OW_5alloc3vec3VecRNtCs3cP53eQoTwO_11proc_macro25IdentEECsjOBAykZTw0C_11clap_derive, symObjAddr: 0xD80, symBinAddr: 0x5C9E0, symSize: 0x5C }
  - { offset: 0xCDDF2, size: 0x8, addend: 0x0, symName: __RINvNtCsfvfooZQ3Axs_4core3ptr13drop_in_placeINtNtCse1nGBsou5OW_5alloc3vec3VecRNtNtCsjOBAykZTw0C_11clap_derive4item4NameEEB1i_, symObjAddr: 0xDDC, symBinAddr: 0x5CA3C, symSize: 0x5C }
  - { offset: 0xCDE21, size: 0x8, addend: 0x0, symName: __RINvNtCsfvfooZQ3Axs_4core3ptr13drop_in_placeINtNtCse1nGBsou5OW_5alloc3vec3VecTNtCs3cP53eQoTwO_11proc_macro211TokenStreamNtB1g_5IdentEEECsjOBAykZTw0C_11clap_derive, symObjAddr: 0xE38, symBinAddr: 0x5CA98, symSize: 0x5C }
  - { offset: 0xCDE50, size: 0x8, addend: 0x0, symName: __RINvNtCsfvfooZQ3Axs_4core3ptr13drop_in_placeINtNtCse1nGBsou5OW_5alloc3vec3VecTNtNtCsjOBAykZTw0C_11clap_derive4attr8ClapAttrNtNtCs6IAuOt8vWmF_3syn5token5CommaEEEB1i_, symObjAddr: 0xE94, symBinAddr: 0x5CAF4, symSize: 0x5C }
  - { offset: 0xCDE7F, size: 0x8, addend: 0x0, symName: __RINvNtCsfvfooZQ3Axs_4core3ptr13drop_in_placeINtNtCse1nGBsou5OW_5alloc3vec3VecTRNtNtCs6IAuOt8vWmF_3syn4data5FieldNtNtCsjOBAykZTw0C_11clap_derive4item4ItemEEEB1Q_, symObjAddr: 0xEF0, symBinAddr: 0x5CB50, symSize: 0x5C }
  - { offset: 0xCDEAE, size: 0x8, addend: 0x0, symName: __RINvNtCsfvfooZQ3Axs_4core3ptr13drop_in_placeINtNtCse1nGBsou5OW_5alloc3vec3VecTRNtNtCs6IAuOt8vWmF_3syn4data7VariantNtNtCsjOBAykZTw0C_11clap_derive4item4ItemEEEB1S_, symObjAddr: 0xF4C, symBinAddr: 0x5CBAC, symSize: 0x5C }
  - { offset: 0xCDEDD, size: 0x8, addend: 0x0, symName: __RINvNtCsfvfooZQ3Axs_4core3ptr13drop_in_placeINtNtCse1nGBsou5OW_5alloc3vec3VecTRRNtNtCs6IAuOt8vWmF_3syn4data7VariantRNtNtCsjOBAykZTw0C_11clap_derive4item4ItemEEEB1U_, symObjAddr: 0xFA8, symBinAddr: 0x5CC08, symSize: 0x5C }
  - { offset: 0xCDF0C, size: 0x8, addend: 0x0, symName: __RINvNtCsfvfooZQ3Axs_4core3ptr13drop_in_placeINtNtCse1nGBsou5OW_5alloc5boxed3BoxDNtNtB4_5error5ErrorNtNtB4_6marker4SendNtB1B_4SyncEL_EECsjOBAykZTw0C_11clap_derive, symObjAddr: 0x1004, symBinAddr: 0x5CC64, symSize: 0x80 }
  - { offset: 0xCDF3B, size: 0x8, addend: 0x0, symName: __RINvNtCsfvfooZQ3Axs_4core3ptr13drop_in_placeINtNtCse1nGBsou5OW_5alloc5boxed3BoxINtNtCs6IAuOt8vWmF_3syn5drops6NoDropDINtNtB1k_10punctuated9IterTraitNtNtB1k_4data5FieldEp4ItemRB2l_EL_EEECsjOBAykZTw0C_11clap_derive, symObjAddr: 0x1084, symBinAddr: 0x5CCE4, symSize: 0x2C }
  - { offset: 0xCDF6A, size: 0x8, addend: 0x0, symName: __RINvNtCsfvfooZQ3Axs_4core3ptr13drop_in_placeINtNtCse1nGBsou5OW_5alloc5boxed3BoxINtNtCs6IAuOt8vWmF_3syn5drops6NoDropDINtNtB1k_10punctuated9IterTraitNtNtB1k_4data7VariantEp4ItemRB2l_EL_EEECsjOBAykZTw0C_11clap_derive, symObjAddr: 0x10B0, symBinAddr: 0x5CD10, symSize: 0x2C }
  - { offset: 0xCDF99, size: 0x8, addend: 0x0, symName: __RINvNtCsfvfooZQ3Axs_4core3ptr13drop_in_placeINtNtCse1nGBsou5OW_5alloc5boxed3BoxINtNtCs6IAuOt8vWmF_3syn5drops6NoDropDINtNtB1k_10punctuated9IterTraitNtNtB1k_4path15GenericArgumentEp4ItemRB2l_EL_EEECsjOBAykZTw0C_11clap_derive, symObjAddr: 0x10DC, symBinAddr: 0x5CD3C, symSize: 0x2C }
  - { offset: 0xCDFC8, size: 0x8, addend: 0x0, symName: __RINvNtCsfvfooZQ3Axs_4core3ptr13drop_in_placeINtNtCse1nGBsou5OW_5alloc5boxed3BoxNtNtCsjOBAykZTw0C_11clap_derive4attr8ClapAttrEEB1j_, symObjAddr: 0x1108, symBinAddr: 0x5CD68, symSize: 0x60 }
  - { offset: 0xCDFF7, size: 0x8, addend: 0x0, symName: __RINvNtCsfvfooZQ3Axs_4core3ptr13drop_in_placeINtNtCse1nGBsou5OW_5alloc5boxed3BoxNtNtNtCscOYdFFY2T5N_3std2io5error6CustomEECsjOBAykZTw0C_11clap_derive, symObjAddr: 0x1168, symBinAddr: 0x5CDC8, symSize: 0x60 }
  - { offset: 0xCE026, size: 0x8, addend: 0x0, symName: __RINvNtCsfvfooZQ3Axs_4core3ptr13drop_in_placeINtNtCse1nGBsou5OW_5alloc7raw_vec6RawVecINtNtB4_6option6OptionNtCs3cP53eQoTwO_11proc_macro211TokenStreamEEECsjOBAykZTw0C_11clap_derive, symObjAddr: 0x11C8, symBinAddr: 0x5CE28, symSize: 0x24 }
  - { offset: 0xCE055, size: 0x8, addend: 0x0, symName: __RINvNtCsfvfooZQ3Axs_4core3ptr13drop_in_placeINtNtCse1nGBsou5OW_5alloc7raw_vec6RawVecNtCs3cP53eQoTwO_11proc_macro211TokenStreamEECsjOBAykZTw0C_11clap_derive, symObjAddr: 0x11EC, symBinAddr: 0x5CE4C, symSize: 0x24 }
  - { offset: 0xCE084, size: 0x8, addend: 0x0, symName: __RINvNtCsfvfooZQ3Axs_4core3ptr13drop_in_placeINtNtCse1nGBsou5OW_5alloc7raw_vec6RawVecNtCs3cP53eQoTwO_11proc_macro25IdentEECsjOBAykZTw0C_11clap_derive, symObjAddr: 0x1210, symBinAddr: 0x5CE70, symSize: 0x24 }
  - { offset: 0xCE0B3, size: 0x8, addend: 0x0, symName: __RINvNtCsfvfooZQ3Axs_4core3ptr13drop_in_placeINtNtCse1nGBsou5OW_5alloc7raw_vec6RawVecNtNtBL_6string6StringEECsjOBAykZTw0C_11clap_derive, symObjAddr: 0x1234, symBinAddr: 0x5CE94, symSize: 0x24 }
  - { offset: 0xCE0E2, size: 0x8, addend: 0x0, symName: __RINvNtCsfvfooZQ3Axs_4core3ptr13drop_in_placeINtNtCse1nGBsou5OW_5alloc7raw_vec6RawVecNtNtCs6IAuOt8vWmF_3syn4expr4ExprEECsjOBAykZTw0C_11clap_derive, symObjAddr: 0x1258, symBinAddr: 0x5CEB8, symSize: 0x24 }
  - { offset: 0xCE111, size: 0x8, addend: 0x0, symName: __RINvNtCsfvfooZQ3Axs_4core3ptr13drop_in_placeINtNtCse1nGBsou5OW_5alloc7raw_vec6RawVecNtNtCsjOBAykZTw0C_11clap_derive4attr8ClapAttrEEB1o_, symObjAddr: 0x127C, symBinAddr: 0x5CEDC, symSize: 0x24 }
  - { offset: 0xCE140, size: 0x8, addend: 0x0, symName: __RINvNtCsfvfooZQ3Axs_4core3ptr13drop_in_placeINtNtCse1nGBsou5OW_5alloc7raw_vec6RawVecNtNtCsjOBAykZTw0C_11clap_derive4item11DeprecationEEB1o_, symObjAddr: 0x12A0, symBinAddr: 0x5CF00, symSize: 0x24 }
  - { offset: 0xCE16F, size: 0x8, addend: 0x0, symName: __RINvNtCsfvfooZQ3Axs_4core3ptr13drop_in_placeINtNtCse1nGBsou5OW_5alloc7raw_vec6RawVecNtNtCsjOBAykZTw0C_11clap_derive4item6MethodEEB1o_, symObjAddr: 0x12C4, symBinAddr: 0x5CF24, symSize: 0x24 }
  - { offset: 0xCE19E, size: 0x8, addend: 0x0, symName: __RINvNtCsfvfooZQ3Axs_4core3ptr13drop_in_placeINtNtCse1nGBsou5OW_5alloc7raw_vec6RawVecRNtCs3cP53eQoTwO_11proc_macro25IdentEECsjOBAykZTw0C_11clap_derive, symObjAddr: 0x12E8, symBinAddr: 0x5CF48, symSize: 0x24 }
  - { offset: 0xCE1CD, size: 0x8, addend: 0x0, symName: __RINvNtCsfvfooZQ3Axs_4core3ptr13drop_in_placeINtNtCse1nGBsou5OW_5alloc7raw_vec6RawVecRNtNtCsjOBAykZTw0C_11clap_derive4item4NameEEB1p_, symObjAddr: 0x130C, symBinAddr: 0x5CF6C, symSize: 0x24 }
  - { offset: 0xCE1FC, size: 0x8, addend: 0x0, symName: __RINvNtCsfvfooZQ3Axs_4core3ptr13drop_in_placeINtNtCse1nGBsou5OW_5alloc7raw_vec6RawVecTNtCs3cP53eQoTwO_11proc_macro211TokenStreamNtB1n_5IdentEEECsjOBAykZTw0C_11clap_derive, symObjAddr: 0x1330, symBinAddr: 0x5CF90, symSize: 0x24 }
  - { offset: 0xCE22B, size: 0x8, addend: 0x0, symName: __RINvNtCsfvfooZQ3Axs_4core3ptr13drop_in_placeINtNtCse1nGBsou5OW_5alloc7raw_vec6RawVecTNtNtCsjOBAykZTw0C_11clap_derive4attr8ClapAttrNtNtCs6IAuOt8vWmF_3syn5token5CommaEEEB1p_, symObjAddr: 0x1354, symBinAddr: 0x5CFB4, symSize: 0x24 }
  - { offset: 0xCE25A, size: 0x8, addend: 0x0, symName: __RINvNtCsfvfooZQ3Axs_4core3ptr13drop_in_placeINtNtCse1nGBsou5OW_5alloc7raw_vec6RawVecTRNtNtCs6IAuOt8vWmF_3syn4data5FieldNtNtCsjOBAykZTw0C_11clap_derive4item4ItemEEEB1X_, symObjAddr: 0x1378, symBinAddr: 0x5CFD8, symSize: 0x24 }
  - { offset: 0xCE289, size: 0x8, addend: 0x0, symName: __RINvNtCsfvfooZQ3Axs_4core3ptr13drop_in_placeINtNtCse1nGBsou5OW_5alloc7raw_vec6RawVecTRNtNtCs6IAuOt8vWmF_3syn4data7VariantNtNtCsjOBAykZTw0C_11clap_derive4item4ItemEEEB1Z_, symObjAddr: 0x139C, symBinAddr: 0x5CFFC, symSize: 0x24 }
  - { offset: 0xCE2B8, size: 0x8, addend: 0x0, symName: __RINvNtCsfvfooZQ3Axs_4core3ptr13drop_in_placeINtNtCse1nGBsou5OW_5alloc7raw_vec6RawVecTRRNtNtCs6IAuOt8vWmF_3syn4data7VariantRNtNtCsjOBAykZTw0C_11clap_derive4item4ItemEEEB21_, symObjAddr: 0x13C0, symBinAddr: 0x5D020, symSize: 0x24 }
  - { offset: 0xCE2E7, size: 0x8, addend: 0x0, symName: __RINvNtCsfvfooZQ3Axs_4core3ptr13drop_in_placeINtNtNtB4_3ops12control_flow11ControlFlowNtCs3cP53eQoTwO_11proc_macro211TokenStreamEECsjOBAykZTw0C_11clap_derive, symObjAddr: 0x13E4, symBinAddr: 0x5D044, symSize: 0x48 }
  - { offset: 0xCE316, size: 0x8, addend: 0x0, symName: __RINvNtCsfvfooZQ3Axs_4core3ptr13drop_in_placeINtNtNtB4_3ops12control_flow11ControlFlowNtNtCse1nGBsou5OW_5alloc6string6StringEECsjOBAykZTw0C_11clap_derive, symObjAddr: 0x142C, symBinAddr: 0x5D08C, symSize: 0x48 }
  - { offset: 0xCE345, size: 0x8, addend: 0x0, symName: __RINvNtCsfvfooZQ3Axs_4core3ptr13drop_in_placeINtNtNtB4_3ops12control_flow11ControlFlowTRNtNtCs6IAuOt8vWmF_3syn4data5FieldNtNtCsjOBAykZTw0C_11clap_derive4item4ItemEEEB1Y_, symObjAddr: 0x1474, symBinAddr: 0x5D0D4, symSize: 0x44 }
  - { offset: 0xCE374, size: 0x8, addend: 0x0, symName: __RINvNtCsfvfooZQ3Axs_4core3ptr13drop_in_placeINtNtNtB4_3ops12control_flow11ControlFlowTRNtNtCs6IAuOt8vWmF_3syn4data7VariantNtNtCsjOBAykZTw0C_11clap_derive4item4ItemEEEB20_, symObjAddr: 0x14B8, symBinAddr: 0x5D118, symSize: 0x44 }
  - { offset: 0xCE3A3, size: 0x8, addend: 0x0, symName: __RINvNtCsfvfooZQ3Axs_4core3ptr13drop_in_placeINtNtNtB4_4iter8adapters12GenericShuntINtNtBJ_3map3MapINtNtCs6IAuOt8vWmF_3syn10punctuated4IterNtNtB1D_4data5FieldENCNvNtNtCsjOBAykZTw0C_11clap_derive7derives4args11derive_args0EINtNtB4_6result6ResultNtNtB4_7convert10InfallibleNtNtB1D_5error5ErrorEEEB2E_, symObjAddr: 0x14FC, symBinAddr: 0x5D15C, symSize: 0x24 }
  - { offset: 0xCE3D2, size: 0x8, addend: 0x0, symName: __RINvNtCsfvfooZQ3Axs_4core3ptr13drop_in_placeINtNtNtB4_4iter8adapters12GenericShuntINtNtBJ_3map3MapINtNtCs6IAuOt8vWmF_3syn10punctuated4IterNtNtB1D_4data5FieldENCNvNtNtCsjOBAykZTw0C_11clap_derive7derives4args19collect_args_fields0EINtNtB4_6result6ResultNtNtB4_7convert10InfallibleNtNtB1D_5error5ErrorEEEB2E_, symObjAddr: 0x1520, symBinAddr: 0x5D180, symSize: 0x24 }
  - { offset: 0xCE401, size: 0x8, addend: 0x0, symName: __RINvNtCsfvfooZQ3Axs_4core3ptr13drop_in_placeINtNtNtB4_4iter8adapters12GenericShuntINtNtBJ_3map3MapINtNtCs6IAuOt8vWmF_3syn10punctuated4IterNtNtB1D_4data5FieldENCNvNtNtCsjOBAykZTw0C_11clap_derive7derives6parser13derive_parser0EINtNtB4_6result6ResultNtNtB4_7convert10InfallibleNtNtB1D_5error5ErrorEEEB2E_, symObjAddr: 0x1544, symBinAddr: 0x5D1A4, symSize: 0x24 }
  - { offset: 0xCE430, size: 0x8, addend: 0x0, symName: __RINvNtCsfvfooZQ3Axs_4core3ptr13drop_in_placeINtNtNtB4_4iter8adapters12GenericShuntINtNtBJ_3map3MapINtNtCs6IAuOt8vWmF_3syn10punctuated4IterNtNtB1D_4data7VariantENCNvNtNtCsjOBAykZTw0C_11clap_derive7derives10subcommand17derive_subcommand0EINtNtB4_6result6ResultNtNtB4_7convert10InfallibleNtNtB1D_5error5ErrorEEEB2G_, symObjAddr: 0x1568, symBinAddr: 0x5D1C8, symSize: 0x24 }
  - { offset: 0xCE45F, size: 0x8, addend: 0x0, symName: __RINvNtCsfvfooZQ3Axs_4core3ptr13drop_in_placeINtNtNtB4_4iter8adapters12GenericShuntINtNtBJ_3map3MapINtNtCs6IAuOt8vWmF_3syn10punctuated4IterNtNtB1D_4data7VariantENCNvNtNtCsjOBAykZTw0C_11clap_derive7derives6parser13derive_parsers_0EINtNtB4_6result6ResultNtNtB4_7convert10InfallibleNtNtB1D_5error5ErrorEEEB2G_, symObjAddr: 0x158C, symBinAddr: 0x5D1EC, symSize: 0x24 }
  - { offset: 0xCE48E, size: 0x8, addend: 0x0, symName: __RINvNtCsfvfooZQ3Axs_4core3ptr13drop_in_placeINtNtNtCscOYdFFY2T5N_3std2io5error9ErrorDataINtNtCse1nGBsou5OW_5alloc5boxed3BoxNtBJ_6CustomEEECsjOBAykZTw0C_11clap_derive, symObjAddr: 0x15B0, symBinAddr: 0x5D210, symSize: 0x48 }
  - { offset: 0xCE4BD, size: 0x8, addend: 0x0, symName: __RINvNtCsfvfooZQ3Axs_4core3ptr13drop_in_placeINtNtNtCse1nGBsou5OW_5alloc3vec9into_iter8IntoIterNtNtBN_6string6StringEECsjOBAykZTw0C_11clap_derive, symObjAddr: 0x15F8, symBinAddr: 0x5D258, symSize: 0x24 }
  - { offset: 0xCE4EC, size: 0x8, addend: 0x0, symName: __RINvNtCsfvfooZQ3Axs_4core3ptr13drop_in_placeINtNtNtCse1nGBsou5OW_5alloc3vec9into_iter8IntoIterNtNtCs6IAuOt8vWmF_3syn4expr4ExprEECsjOBAykZTw0C_11clap_derive, symObjAddr: 0x161C, symBinAddr: 0x5D27C, symSize: 0x24 }
  - { offset: 0xCE51B, size: 0x8, addend: 0x0, symName: __RINvNtCsfvfooZQ3Axs_4core3ptr13drop_in_placeINtNtNtCse1nGBsou5OW_5alloc3vec9into_iter8IntoIterNtNtCsjOBAykZTw0C_11clap_derive4attr8ClapAttrEEB1y_, symObjAddr: 0x1640, symBinAddr: 0x5D2A0, symSize: 0x24 }
  - { offset: 0xCE54A, size: 0x8, addend: 0x0, symName: __RINvNtCsfvfooZQ3Axs_4core3ptr13drop_in_placeINtNtNtCse1nGBsou5OW_5alloc3vec9into_iter8IntoIterTNtNtCs6IAuOt8vWmF_3syn4expr4ExprNtNtB1z_5token5CommaEEECsjOBAykZTw0C_11clap_derive, symObjAddr: 0x1664, symBinAddr: 0x5D2C4, symSize: 0x24 }
  - { offset: 0xCE579, size: 0x8, addend: 0x0, symName: __RINvNtCsfvfooZQ3Axs_4core3ptr13drop_in_placeINtNtNtCse1nGBsou5OW_5alloc3vec9into_iter8IntoIterTNtNtCsjOBAykZTw0C_11clap_derive4attr8ClapAttrNtNtCs6IAuOt8vWmF_3syn5token5CommaEEEB1z_, symObjAddr: 0x1688, symBinAddr: 0x5D2E8, symSize: 0x24 }
  - { offset: 0xCE5A8, size: 0x8, addend: 0x0, symName: __RINvNtCsfvfooZQ3Axs_4core3ptr13drop_in_placeINtNtNtCsjOBAykZTw0C_11clap_derive5utils7spanned2SpNtNtBN_4item4KindEEBN_, symObjAddr: 0x16AC, symBinAddr: 0x5D30C, symSize: 0x24 }
  - { offset: 0xCE5D7, size: 0x8, addend: 0x0, symName: __RINvNtCsfvfooZQ3Axs_4core3ptr13drop_in_placeINtNtNtNtB4_4iter8adapters3map3MapINtNtCs6IAuOt8vWmF_3syn10punctuated4IterNtNtB1j_4data5FieldENCNCNvNtNtCsjOBAykZTw0C_11clap_derive7derives10subcommand27gen_update_from_arg_matchess0_00EEB2m_, symObjAddr: 0x16D0, symBinAddr: 0x5D330, symSize: 0x24 }
  - { offset: 0xCE606, size: 0x8, addend: 0x0, symName: __RINvNtCsfvfooZQ3Axs_4core3ptr13drop_in_placeINtNtNtNtB4_4iter8adapters3map3MapINtNtCs6IAuOt8vWmF_3syn10punctuated4IterNtNtB1j_4data5FieldENCNvNtNtCsjOBAykZTw0C_11clap_derive7derives4args11derive_args0EEB2k_, symObjAddr: 0x16F4, symBinAddr: 0x5D354, symSize: 0x24 }
  - { offset: 0xCE635, size: 0x8, addend: 0x0, symName: __RINvNtCsfvfooZQ3Axs_4core3ptr13drop_in_placeINtNtNtNtB4_4iter8adapters3map3MapINtNtCs6IAuOt8vWmF_3syn10punctuated4IterNtNtB1j_4data5FieldENCNvNtNtCsjOBAykZTw0C_11clap_derive7derives4args19collect_args_fields0EEB2k_, symObjAddr: 0x1718, symBinAddr: 0x5D378, symSize: 0x24 }
  - { offset: 0xCE664, size: 0x8, addend: 0x0, symName: __RINvNtCsfvfooZQ3Axs_4core3ptr13drop_in_placeINtNtNtNtB4_4iter8adapters3map3MapINtNtCs6IAuOt8vWmF_3syn10punctuated4IterNtNtB1j_4data5FieldENCNvNtNtCsjOBAykZTw0C_11clap_derive7derives6parser13derive_parser0EEB2k_, symObjAddr: 0x173C, symBinAddr: 0x5D39C, symSize: 0x24 }
  - { offset: 0xCE693, size: 0x8, addend: 0x0, symName: __RINvNtCsfvfooZQ3Axs_4core3ptr13drop_in_placeINtNtNtNtB4_4iter8adapters3map3MapINtNtCs6IAuOt8vWmF_3syn10punctuated4IterNtNtB1j_4data7VariantENCNvNtNtCsjOBAykZTw0C_11clap_derive7derives10subcommand17derive_subcommand0EEB2m_, symObjAddr: 0x1760, symBinAddr: 0x5D3C0, symSize: 0x24 }
  - { offset: 0xCE6C2, size: 0x8, addend: 0x0, symName: __RINvNtCsfvfooZQ3Axs_4core3ptr13drop_in_placeINtNtNtNtB4_4iter8adapters3map3MapINtNtCs6IAuOt8vWmF_3syn10punctuated4IterNtNtB1j_4data7VariantENCNvNtNtCsjOBAykZTw0C_11clap_derive7derives6parser13derive_parsers_0EEB2m_, symObjAddr: 0x1784, symBinAddr: 0x5D3E4, symSize: 0x24 }
  - { offset: 0xCE6F1, size: 0x8, addend: 0x0, symName: __RINvNtCsfvfooZQ3Axs_4core3ptr13drop_in_placeINtNtNtNtB4_4iter8adapters3map3MapINtNtNtCse1nGBsou5OW_5alloc3vec9into_iter8IntoIterTNtNtCs6IAuOt8vWmF_3syn4expr4ExprNtNtB27_5token5CommaEENCNvXs8_NtB27_10punctuatedINtB33_10PunctuatedB23_B2z_ENtNtNtBN_6traits7collect12IntoIterator9into_iter0EECsjOBAykZTw0C_11clap_derive, symObjAddr: 0x17A8, symBinAddr: 0x5D408, symSize: 0x24 }
  - { offset: 0xCE720, size: 0x8, addend: 0x0, symName: __RINvNtCsfvfooZQ3Axs_4core3ptr13drop_in_placeINtNtNtNtB4_4iter8adapters3map3MapINtNtNtCse1nGBsou5OW_5alloc3vec9into_iter8IntoIterTNtNtCsjOBAykZTw0C_11clap_derive4attr8ClapAttrNtNtCs6IAuOt8vWmF_3syn5token5CommaEENCNvXs8_NtB2Q_10punctuatedINtB3u_10PunctuatedB23_B2M_ENtNtNtBN_6traits7collect12IntoIterator9into_iter0EEB27_, symObjAddr: 0x17CC, symBinAddr: 0x5D42C, symSize: 0x24 }
  - { offset: 0xCE74F, size: 0x8, addend: 0x0, symName: __RINvNtCsfvfooZQ3Axs_4core3ptr13drop_in_placeINtNtNtNtB4_4iter8adapters7flatten13FlattenCompatINtNtBL_3map3MapINtNtBL_10skip_while9SkipWhileINtNtBL_10filter_map9FilterMapINtNtBL_6filter6FilterINtNtNtB4_5slice4iter4IterNtNtCs6IAuOt8vWmF_3syn4attr9AttributeENCNvNtNtCsjOBAykZTw0C_11clap_derive5utils12doc_comments19extract_doc_comment0ENCB47_s_0ENCB47_s0_0ENCB47_s1_0EINtNtNtCse1nGBsou5OW_5alloc3vec9into_iter8IntoIterNtNtB5Y_6string6StringEEEB4d_, symObjAddr: 0x17F0, symBinAddr: 0x5D450, symSize: 0x60 }
  - { offset: 0xCE77E, size: 0x8, addend: 0x0, symName: __RINvNtCsfvfooZQ3Axs_4core3ptr13drop_in_placeINtNtNtNtB4_4iter8adapters7flatten7FlatMapINtNtBL_10skip_while9SkipWhileINtNtBL_10filter_map9FilterMapINtNtBL_6filter6FilterINtNtNtB4_5slice4iter4IterNtNtCs6IAuOt8vWmF_3syn4attr9AttributeENCNvNtNtCsjOBAykZTw0C_11clap_derive5utils12doc_comments19extract_doc_comment0ENCB3K_s_0ENCB3K_s0_0EINtNtCse1nGBsou5OW_5alloc3vec3VecNtNtB5o_6string6StringENCB3K_s1_0EEB3Q_, symObjAddr: 0x1850, symBinAddr: 0x5D4B0, symSize: 0x24 }
  - { offset: 0xCE7AD, size: 0x8, addend: 0x0, symName: __RINvNtCsfvfooZQ3Axs_4core3ptr13drop_in_placeINtNvXNtNtCse1nGBsou5OW_5alloc5slice4hackpNtBM_10ConvertVec6to_vec9DropGuardNtNtCs6IAuOt8vWmF_3syn4expr4ExprNtNtBQ_5alloc6GlobalEECsjOBAykZTw0C_11clap_derive, symObjAddr: 0x1874, symBinAddr: 0x5D4D4, symSize: 0x24 }
  - { offset: 0xCE7DC, size: 0x8, addend: 0x0, symName: __RINvNtCsfvfooZQ3Axs_4core3ptr13drop_in_placeINtNvXsd_NtNtCse1nGBsou5OW_5alloc3vec9into_iterINtBP_8IntoIterppENtNtNtB4_3ops4drop4Drop4drop9DropGuardNtNtBT_6string6StringNtNtBT_5alloc6GlobalEECsjOBAykZTw0C_11clap_derive, symObjAddr: 0x1898, symBinAddr: 0x5D4F8, symSize: 0x24 }
  - { offset: 0xCE80B, size: 0x8, addend: 0x0, symName: __RINvNtCsfvfooZQ3Axs_4core3ptr13drop_in_placeINtNvXsd_NtNtCse1nGBsou5OW_5alloc3vec9into_iterINtBP_8IntoIterppENtNtNtB4_3ops4drop4Drop4drop9DropGuardNtNtCs6IAuOt8vWmF_3syn4expr4ExprNtNtBT_5alloc6GlobalEECsjOBAykZTw0C_11clap_derive, symObjAddr: 0x18BC, symBinAddr: 0x5D51C, symSize: 0x24 }
  - { offset: 0xCE83A, size: 0x8, addend: 0x0, symName: __RINvNtCsfvfooZQ3Axs_4core3ptr13drop_in_placeINtNvXsd_NtNtCse1nGBsou5OW_5alloc3vec9into_iterINtBP_8IntoIterppENtNtNtB4_3ops4drop4Drop4drop9DropGuardNtNtCsjOBAykZTw0C_11clap_derive4attr8ClapAttrNtNtBT_5alloc6GlobalEEB2p_, symObjAddr: 0x18E0, symBinAddr: 0x5D540, symSize: 0x24 }
  - { offset: 0xCE869, size: 0x8, addend: 0x0, symName: __RINvNtCsfvfooZQ3Axs_4core3ptr13drop_in_placeINtNvXsd_NtNtCse1nGBsou5OW_5alloc3vec9into_iterINtBP_8IntoIterppENtNtNtB4_3ops4drop4Drop4drop9DropGuardTNtNtCs6IAuOt8vWmF_3syn4expr4ExprNtNtB2q_5token5CommaENtNtBT_5alloc6GlobalEECsjOBAykZTw0C_11clap_derive, symObjAddr: 0x1904, symBinAddr: 0x5D564, symSize: 0x24 }
  - { offset: 0xCE898, size: 0x8, addend: 0x0, symName: __RINvNtCsfvfooZQ3Axs_4core3ptr13drop_in_placeINtNvXsd_NtNtCse1nGBsou5OW_5alloc3vec9into_iterINtBP_8IntoIterppENtNtNtB4_3ops4drop4Drop4drop9DropGuardTNtNtCsjOBAykZTw0C_11clap_derive4attr8ClapAttrNtNtCs6IAuOt8vWmF_3syn5token5CommaENtNtBT_5alloc6GlobalEEB2q_, symObjAddr: 0x1928, symBinAddr: 0x5D588, symSize: 0x24 }
  - { offset: 0xCE8C7, size: 0x8, addend: 0x0, symName: __RINvNtCsfvfooZQ3Axs_4core3ptr13drop_in_placeNCINvMsi_NtCse1nGBsou5OW_5alloc3vecINtBP_3VecNtNtBR_6string6StringE14extend_trustedINtNtNtNtB4_4iter8adapters3map3MapINtNtNtB4_5slice4iter4IterB1p_ENCINvNtNtCsjOBAykZTw0C_11clap_derive5utils12doc_comments11merge_linesRB1p_RSB1p_E0EE0EB3d_, symObjAddr: 0x194C, symBinAddr: 0x5D5AC, symSize: 0x24 }
  - { offset: 0xCE8F6, size: 0x8, addend: 0x0, symName: __RINvNtCsfvfooZQ3Axs_4core3ptr13drop_in_placeNCINvMsi_NtCse1nGBsou5OW_5alloc3vecINtBP_3VecNtNtBR_6string6StringE14extend_trustedINtNtNtNtB4_4iter8adapters3map3MapINtNtNtB4_5slice4iter4IterNtNtCsjOBAykZTw0C_11clap_derive4attr8AttrKindENCNvNtB33_4item16assert_attr_kind0EE0EB33_, symObjAddr: 0x1970, symBinAddr: 0x5D5D0, symSize: 0x24 }
  - { offset: 0xCE925, size: 0x8, addend: 0x0, symName: __RINvNtCsfvfooZQ3Axs_4core3ptr13drop_in_placeNCINvMsi_NtCse1nGBsou5OW_5alloc3vecINtBP_3VecNtNtCs6IAuOt8vWmF_3syn4expr4ExprE14extend_trustedINtNtB4_6option8IntoIterB1p_EE0ECsjOBAykZTw0C_11clap_derive, symObjAddr: 0x1994, symBinAddr: 0x5D5F4, symSize: 0x24 }
  - { offset: 0xCE954, size: 0x8, addend: 0x0, symName: __RINvNtCsfvfooZQ3Axs_4core3ptr13drop_in_placeNCINvMsi_NtCse1nGBsou5OW_5alloc3vecINtBP_3VecNtNtCs6IAuOt8vWmF_3syn4expr4ExprE14extend_trustedINtNtNtNtB4_4iter8adapters3map3MapINtNtBP_9into_iter8IntoIterTB1p_NtNtB1t_5token5CommaEENCNvXs8_NtB1t_10punctuatedINtB3K_10PunctuatedB1p_B3g_ENtNtNtB2j_6traits7collect12IntoIterator9into_iter0EE0ECsjOBAykZTw0C_11clap_derive, symObjAddr: 0x19B8, symBinAddr: 0x5D618, symSize: 0x24 }
  - { offset: 0xCE983, size: 0x8, addend: 0x0, symName: __RINvNtCsfvfooZQ3Axs_4core3ptr13drop_in_placeNCINvMsi_NtCse1nGBsou5OW_5alloc3vecINtBP_3VecNtNtCsjOBAykZTw0C_11clap_derive4attr8ClapAttrE14extend_trustedINtNtB4_6option8IntoIterB1p_EE0EB1t_, symObjAddr: 0x19DC, symBinAddr: 0x5D63C, symSize: 0x24 }
  - { offset: 0xCE9B2, size: 0x8, addend: 0x0, symName: __RINvNtCsfvfooZQ3Axs_4core3ptr13drop_in_placeNCINvMsi_NtCse1nGBsou5OW_5alloc3vecINtBP_3VecNtNtCsjOBAykZTw0C_11clap_derive4attr8ClapAttrE14extend_trustedINtNtNtNtB4_4iter8adapters3map3MapINtNtBP_9into_iter8IntoIterTB1p_NtNtCs6IAuOt8vWmF_3syn5token5CommaEENCNvXs8_NtB3x_10punctuatedINtB4b_10PunctuatedB1p_B3t_ENtNtNtB2w_6traits7collect12IntoIterator9into_iter0EE0EB1t_, symObjAddr: 0x1A00, symBinAddr: 0x5D660, symSize: 0x24 }
  - { offset: 0xCE9E1, size: 0x8, addend: 0x0, symName: __RINvNtCsfvfooZQ3Axs_4core3ptr13drop_in_placeNCINvMsi_NtCse1nGBsou5OW_5alloc3vecINtBP_3VecRNtCs3cP53eQoTwO_11proc_macro25IdentE14extend_trustedINtNtNtNtB4_4iter8adapters3map3MapINtNtNtB4_5slice4iter4IterTNtB1s_11TokenStreamB1q_EENCNvNtNtCsjOBAykZTw0C_11clap_derive7derives10value_enum18gen_value_variants0EE0EB3M_, symObjAddr: 0x1A24, symBinAddr: 0x5D684, symSize: 0x24 }
  - { offset: 0xCEA10, size: 0x8, addend: 0x0, symName: __RINvNtCsfvfooZQ3Axs_4core3ptr13drop_in_placeNCINvMsi_NtCse1nGBsou5OW_5alloc3vecINtBP_3VechE14extend_trustedINtNtNtNtB4_4iter8adapters3map3MapINtNtNtB4_5slice4iter4IterhENCNvNtBR_3str13replace_ascii0EE0ECsjOBAykZTw0C_11clap_derive, symObjAddr: 0x1A48, symBinAddr: 0x5D6A8, symSize: 0x24 }
  - { offset: 0xCEA3F, size: 0x8, addend: 0x0, symName: __RINvNtCsfvfooZQ3Axs_4core3ptr13drop_in_placeNCINvNtNtNtB4_4iter8adapters3map8map_foldRNtNtCse1nGBsou5OW_5alloc6string6StringB1m_uNCINvNtNtCsjOBAykZTw0C_11clap_derive5utils12doc_comments11merge_linesB1l_RSB1m_E0NCINvNvNtNtNtBP_6traits8iterator8Iterator8for_each4callB1m_NCINvMsi_NtB1q_3vecINtB4s_3VecB1m_E14extend_trustedINtBL_3MapINtNtNtB4_5slice4iter4IterB1m_EB23_EE0E0E0EB2c_, symObjAddr: 0x1A6C, symBinAddr: 0x5D6CC, symSize: 0x24 }
  - { offset: 0xCEA6E, size: 0x8, addend: 0x0, symName: __RINvNtCsfvfooZQ3Axs_4core3ptr13drop_in_placeNCINvNtNtNtB4_4iter8adapters3map8map_foldRNtNtCsjOBAykZTw0C_11clap_derive4attr8AttrKindNtNtCse1nGBsou5OW_5alloc6string6StringuNCNvNtB1q_4item16assert_attr_kind0NCINvNvNtNtNtBP_6traits8iterator8Iterator8for_each4callB25_NCINvMsi_NtB29_3vecINtB4m_3VecB25_E14extend_trustedINtBL_3MapINtNtNtB4_5slice4iter4IterB1m_EB2I_EE0E0E0EB1q_, symObjAddr: 0x1A90, symBinAddr: 0x5D6F0, symSize: 0x24 }
  - { offset: 0xCEA9D, size: 0x8, addend: 0x0, symName: __RINvNtCsfvfooZQ3Axs_4core3ptr13drop_in_placeNCINvNtNtNtB4_4iter8adapters3map8map_foldRTNtCs3cP53eQoTwO_11proc_macro211TokenStreamNtB1p_5IdentERB23_uNCNvNtNtCsjOBAykZTw0C_11clap_derive7derives10value_enum18gen_value_variants0NCINvNvNtNtNtBP_6traits8iterator8Iterator8for_each4callB2g_NCINvMsi_NtCse1nGBsou5OW_5alloc3vecINtB4G_3VecB2g_E14extend_trustedINtBL_3MapINtNtNtB4_5slice4iter4IterB1m_EB2m_EE0E0E0EB2u_, symObjAddr: 0x1AB4, symBinAddr: 0x5D714, symSize: 0x24 }
  - { offset: 0xCEACC, size: 0x8, addend: 0x0, symName: __RINvNtCsfvfooZQ3Axs_4core3ptr13drop_in_placeNCINvNtNtNtB4_4iter8adapters3map8map_foldRhhuNCNvNtCse1nGBsou5OW_5alloc3str13replace_ascii0NCINvNvNtNtNtBP_6traits8iterator8Iterator8for_each4callhNCINvMsi_NtB1v_3vecINtB3c_3VechE14extend_trustedINtBL_3MapINtNtNtB4_5slice4iter4IterhEB1p_EE0E0E0ECsjOBAykZTw0C_11clap_derive, symObjAddr: 0x1AD8, symBinAddr: 0x5D738, symSize: 0x24 }
  - { offset: 0xCEAFB, size: 0x8, addend: 0x0, symName: __RINvNtCsfvfooZQ3Axs_4core3ptr13drop_in_placeNCINvNtNtNtB4_4iter8adapters3map8map_foldTNtNtCs6IAuOt8vWmF_3syn4expr4ExprNtNtB1q_5token5CommaEB1m_uNCNvXs8_NtB1q_10punctuatedINtB2q_10PunctuatedB1m_B1S_ENtNtNtBP_6traits7collect12IntoIterator9into_iter0NCINvNvNtNtB3e_8iterator8Iterator8for_each4callB1m_NCINvMsi_NtCse1nGBsou5OW_5alloc3vecINtB4V_3VecB1m_E14extend_trustedINtBL_3MapINtNtB4V_9into_iter8IntoIterB1l_EB2i_EE0E0E0ECsjOBAykZTw0C_11clap_derive, symObjAddr: 0x1AFC, symBinAddr: 0x5D75C, symSize: 0x24 }
  - { offset: 0xCEB2A, size: 0x8, addend: 0x0, symName: __RINvNtCsfvfooZQ3Axs_4core3ptr13drop_in_placeNCINvNtNtNtB4_4iter8adapters3map8map_foldTNtNtCsjOBAykZTw0C_11clap_derive4attr8ClapAttrNtNtCs6IAuOt8vWmF_3syn5token5CommaEB1m_uNCNvXs8_NtB29_10punctuatedINtB2R_10PunctuatedB1m_B25_ENtNtNtBP_6traits7collect12IntoIterator9into_iter0NCINvNvNtNtB3F_8iterator8Iterator8for_each4callB1m_NCINvMsi_NtCse1nGBsou5OW_5alloc3vecINtB5m_3VecB1m_E14extend_trustedINtBL_3MapINtNtB5m_9into_iter8IntoIterB1l_EB2J_EE0E0E0EB1q_, symObjAddr: 0x1B20, symBinAddr: 0x5D780, symSize: 0x24 }
  - { offset: 0xCEB59, size: 0x8, addend: 0x0, symName: __RINvNtCsfvfooZQ3Axs_4core3ptr13drop_in_placeNCINvNvNtNtNtNtB4_4iter6traits8iterator8Iterator8for_each4callNtNtCs6IAuOt8vWmF_3syn4expr4ExprNCINvMsi_NtCse1nGBsou5OW_5alloc3vecINtB2l_3VecB1G_E14extend_trustedINtNtB4_6option8IntoIterB1G_EE0E0ECsjOBAykZTw0C_11clap_derive, symObjAddr: 0x1B44, symBinAddr: 0x5D7A4, symSize: 0x24 }
  - { offset: 0xCEB88, size: 0x8, addend: 0x0, symName: __RINvNtCsfvfooZQ3Axs_4core3ptr13drop_in_placeNCINvNvNtNtNtNtB4_4iter6traits8iterator8Iterator8for_each4callNtNtCs6IAuOt8vWmF_3syn4expr4ExprNCINvMsi_NtCse1nGBsou5OW_5alloc3vecINtB2l_3VecB1G_E14extend_trustedINtNtNtBT_8adapters3map3MapINtNtB2l_9into_iter8IntoIterTB1G_NtNtB1K_5token5CommaEENCNvXs8_NtB1K_10punctuatedINtB4J_10PunctuatedB1G_B4f_ENtNtBR_7collect12IntoIterator9into_iter0EE0E0ECsjOBAykZTw0C_11clap_derive, symObjAddr: 0x1B68, symBinAddr: 0x5D7C8, symSize: 0x24 }
  - { offset: 0xCEBB7, size: 0x8, addend: 0x0, symName: __RINvNtCsfvfooZQ3Axs_4core3ptr13drop_in_placeNCINvNvNtNtNtNtB4_4iter6traits8iterator8Iterator8for_each4callNtNtCse1nGBsou5OW_5alloc6string6StringNCINvMsi_NtB1K_3vecINtB2r_3VecB1G_E14extend_trustedINtNtNtBT_8adapters3map3MapINtNtNtB4_5slice4iter4IterB1G_ENCINvNtNtCsjOBAykZTw0C_11clap_derive5utils12doc_comments11merge_linesRB1G_RSB1G_E0EE0E0EB4c_, symObjAddr: 0x1B8C, symBinAddr: 0x5D7EC, symSize: 0x24 }
  - { offset: 0xCEBE6, size: 0x8, addend: 0x0, symName: __RINvNtCsfvfooZQ3Axs_4core3ptr13drop_in_placeNCINvNvNtNtNtNtB4_4iter6traits8iterator8Iterator8for_each4callNtNtCse1nGBsou5OW_5alloc6string6StringNCINvMsi_NtB1K_3vecINtB2r_3VecB1G_E14extend_trustedINtNtNtBT_8adapters3map3MapINtNtNtB4_5slice4iter4IterNtNtCsjOBAykZTw0C_11clap_derive4attr8AttrKindENCNvNtB42_4item16assert_attr_kind0EE0E0EB42_, symObjAddr: 0x1BB0, symBinAddr: 0x5D810, symSize: 0x24 }
  - { offset: 0xCEC15, size: 0x8, addend: 0x0, symName: __RINvNtCsfvfooZQ3Axs_4core3ptr13drop_in_placeNCINvNvNtNtNtNtB4_4iter6traits8iterator8Iterator8for_each4callNtNtCsjOBAykZTw0C_11clap_derive4attr8ClapAttrNCINvMsi_NtCse1nGBsou5OW_5alloc3vecINtB2y_3VecB1G_E14extend_trustedINtNtB4_6option8IntoIterB1G_EE0E0EB1K_, symObjAddr: 0x1BD4, symBinAddr: 0x5D834, symSize: 0x24 }
  - { offset: 0xCEC44, size: 0x8, addend: 0x0, symName: __RINvNtCsfvfooZQ3Axs_4core3ptr13drop_in_placeNCINvNvNtNtNtNtB4_4iter6traits8iterator8Iterator8for_each4callNtNtCsjOBAykZTw0C_11clap_derive4attr8ClapAttrNCINvMsi_NtCse1nGBsou5OW_5alloc3vecINtB2y_3VecB1G_E14extend_trustedINtNtNtBT_8adapters3map3MapINtNtB2y_9into_iter8IntoIterTB1G_NtNtCs6IAuOt8vWmF_3syn5token5CommaEENCNvXs8_NtB4w_10punctuatedINtB5a_10PunctuatedB1G_B4s_ENtNtBR_7collect12IntoIterator9into_iter0EE0E0EB1K_, symObjAddr: 0x1BF8, symBinAddr: 0x5D858, symSize: 0x24 }
  - { offset: 0xCEC73, size: 0x8, addend: 0x0, symName: __RINvNtCsfvfooZQ3Axs_4core3ptr13drop_in_placeNCINvNvNtNtNtNtB4_4iter6traits8iterator8Iterator8for_each4callRNtCs3cP53eQoTwO_11proc_macro25IdentNCINvMsi_NtCse1nGBsou5OW_5alloc3vecINtB2p_3VecB1G_E14extend_trustedINtNtNtBT_8adapters3map3MapINtNtNtB4_5slice4iter4IterTNtB1J_11TokenStreamB1H_EENCNvNtNtCsjOBAykZTw0C_11clap_derive7derives10value_enum18gen_value_variants0EE0E0EB4K_, symObjAddr: 0x1C1C, symBinAddr: 0x5D87C, symSize: 0x24 }
  - { offset: 0xCECA2, size: 0x8, addend: 0x0, symName: __RINvNtCsfvfooZQ3Axs_4core3ptr13drop_in_placeNCINvNvNtNtNtNtB4_4iter6traits8iterator8Iterator8for_each4callhNCINvMsi_NtCse1nGBsou5OW_5alloc3vecINtB1Q_3VechE14extend_trustedINtNtNtBT_8adapters3map3MapINtNtNtB4_5slice4iter4IterhENCNvNtB1S_3str13replace_ascii0EE0E0ECsjOBAykZTw0C_11clap_derive, symObjAddr: 0x1C40, symBinAddr: 0x5D8A0, symSize: 0x24 }
  - { offset: 0xCECD1, size: 0x8, addend: 0x0, symName: __RINvNtCsfvfooZQ3Axs_4core3ptr13drop_in_placeNCNCINvNtNtCs9i5KxIbZ5ph_10proc_macro6bridge6client10run_clientNtBN_11TokenStreamINtNtB4_6option6OptionB1H_ENCNCINvMs7_BN_INtBN_6ClientNtBR_11TokenStreamB2R_E7expand1NvCsjOBAykZTw0C_11clap_derive10subcommandE00E00EB3o_, symObjAddr: 0x1C64, symBinAddr: 0x5D8C4, symSize: 0x24 }
  - { offset: 0xCED00, size: 0x8, addend: 0x0, symName: __RINvNtCsfvfooZQ3Axs_4core3ptr13drop_in_placeNCNCINvNtNtCs9i5KxIbZ5ph_10proc_macro6bridge6client10run_clientNtBN_11TokenStreamINtNtB4_6option6OptionB1H_ENCNCINvMs7_BN_INtBN_6ClientNtBR_11TokenStreamB2R_E7expand1NvCsjOBAykZTw0C_11clap_derive10value_enumE00E00EB3o_, symObjAddr: 0x1C88, symBinAddr: 0x5D8E8, symSize: 0x24 }
  - { offset: 0xCED2F, size: 0x8, addend: 0x0, symName: __RINvNtCsfvfooZQ3Axs_4core3ptr13drop_in_placeNCNCINvNtNtCs9i5KxIbZ5ph_10proc_macro6bridge6client10run_clientNtBN_11TokenStreamINtNtB4_6option6OptionB1H_ENCNCINvMs7_BN_INtBN_6ClientNtBR_11TokenStreamB2R_E7expand1NvCsjOBAykZTw0C_11clap_derive4argsE00E00EB3o_, symObjAddr: 0x1CAC, symBinAddr: 0x5D90C, symSize: 0x24 }
  - { offset: 0xCED5E, size: 0x8, addend: 0x0, symName: __RINvNtCsfvfooZQ3Axs_4core3ptr13drop_in_placeNCNCINvNtNtCs9i5KxIbZ5ph_10proc_macro6bridge6client10run_clientNtBN_11TokenStreamINtNtB4_6option6OptionB1H_ENCNCINvMs7_BN_INtBN_6ClientNtBR_11TokenStreamB2R_E7expand1NvCsjOBAykZTw0C_11clap_derive6parserE00E00EB3o_, symObjAddr: 0x1CD0, symBinAddr: 0x5D930, symSize: 0x24 }
  - { offset: 0xCED8D, size: 0x8, addend: 0x0, symName: __RINvNtCsfvfooZQ3Axs_4core3ptr13drop_in_placeNtNtCs6IAuOt8vWmF_3syn6derive11DeriveInputECsjOBAykZTw0C_11clap_derive, symObjAddr: 0x1CF4, symBinAddr: 0x5D954, symSize: 0xEC }
  - { offset: 0xCEDBC, size: 0x8, addend: 0x0, symName: __RINvNtCsfvfooZQ3Axs_4core3ptr13drop_in_placeNtNtCscOYdFFY2T5N_3std3env8VarErrorECsjOBAykZTw0C_11clap_derive, symObjAddr: 0x1DE0, symBinAddr: 0x5DA40, symSize: 0x48 }
  - { offset: 0xCEDEB, size: 0x8, addend: 0x0, symName: __RINvNtCsfvfooZQ3Axs_4core3ptr13drop_in_placeNtNtCsjOBAykZTw0C_11clap_derive4attr8ClapAttrEBK_, symObjAddr: 0x1E28, symBinAddr: 0x5DA88, symSize: 0x5C }
  - { offset: 0xCEE1A, size: 0x8, addend: 0x0, symName: __RINvNtCsfvfooZQ3Axs_4core3ptr13drop_in_placeNtNtCsjOBAykZTw0C_11clap_derive4attr9AttrValueEBK_, symObjAddr: 0x1E84, symBinAddr: 0x5DAE4, symSize: 0x7C }
  - { offset: 0xCEE49, size: 0x8, addend: 0x0, symName: __RINvNtCsfvfooZQ3Axs_4core3ptr13drop_in_placeNtNtCsjOBAykZTw0C_11clap_derive4item11DeprecationEBK_, symObjAddr: 0x1F00, symBinAddr: 0x5DB60, symSize: 0x24 }
  - { offset: 0xCEE78, size: 0x8, addend: 0x0, symName: __RINvNtCsfvfooZQ3Axs_4core3ptr13drop_in_placeNtNtCsjOBAykZTw0C_11clap_derive4item11ValueParserEBK_, symObjAddr: 0x1F24, symBinAddr: 0x5DB84, symSize: 0x5C }
  - { offset: 0xCEEA7, size: 0x8, addend: 0x0, symName: __RINvNtCsfvfooZQ3Axs_4core3ptr13drop_in_placeNtNtCsjOBAykZTw0C_11clap_derive4item4ItemEBK_, symObjAddr: 0x1F80, symBinAddr: 0x5DBE0, symSize: 0x23C }
  - { offset: 0xCEED6, size: 0x8, addend: 0x0, symName: __RINvNtCsfvfooZQ3Axs_4core3ptr13drop_in_placeNtNtCsjOBAykZTw0C_11clap_derive4item4KindEBK_, symObjAddr: 0x21BC, symBinAddr: 0x5DE1C, symSize: 0x50 }
  - { offset: 0xCEF05, size: 0x8, addend: 0x0, symName: __RINvNtCsfvfooZQ3Axs_4core3ptr13drop_in_placeNtNtCsjOBAykZTw0C_11clap_derive4item4NameEBK_, symObjAddr: 0x220C, symBinAddr: 0x5DE6C, symSize: 0x58 }
  - { offset: 0xCEF34, size: 0x8, addend: 0x0, symName: __RINvNtCsfvfooZQ3Axs_4core3ptr13drop_in_placeNtNtCsjOBAykZTw0C_11clap_derive4item6ActionEBK_, symObjAddr: 0x2264, symBinAddr: 0x5DEC4, symSize: 0x5C }
  - { offset: 0xCEF63, size: 0x8, addend: 0x0, symName: __RINvNtCsfvfooZQ3Axs_4core3ptr13drop_in_placeNtNtCsjOBAykZTw0C_11clap_derive4item6MethodEBK_, symObjAddr: 0x22C0, symBinAddr: 0x5DF20, symSize: 0x5C }
  - { offset: 0xCEF92, size: 0x8, addend: 0x0, symName: __RINvNtCsfvfooZQ3Axs_4core3ptr13drop_in_placeNtNtNtCs9i5KxIbZ5ph_10proc_macro6bridge3rpc12PanicMessageECsjOBAykZTw0C_11clap_derive, symObjAddr: 0x231C, symBinAddr: 0x5DF7C, symSize: 0x50 }
  - { offset: 0xCEFC1, size: 0x8, addend: 0x0, symName: __RINvNtCsfvfooZQ3Axs_4core3ptr13drop_in_placeNtNtNtCs9i5KxIbZ5ph_10proc_macro6bridge6buffer6BufferECsjOBAykZTw0C_11clap_derive, symObjAddr: 0x236C, symBinAddr: 0x5DFCC, symSize: 0x24 }
  - { offset: 0xCEFF0, size: 0x8, addend: 0x0, symName: __RINvNtCsfvfooZQ3Axs_4core3ptr13drop_in_placeNtNtNtCs9i5KxIbZ5ph_10proc_macro6bridge6client6BridgeECsjOBAykZTw0C_11clap_derive, symObjAddr: 0x2390, symBinAddr: 0x5DFF0, symSize: 0x24 }
  - { offset: 0xCF01F, size: 0x8, addend: 0x0, symName: __RINvNtCsfvfooZQ3Axs_4core3ptr13drop_in_placeNtNtNtCscOYdFFY2T5N_3std2io5error5ErrorECsjOBAykZTw0C_11clap_derive, symObjAddr: 0x23B4, symBinAddr: 0x5E014, symSize: 0x24 }
  - { offset: 0xCF04E, size: 0x8, addend: 0x0, symName: __RINvNtCsfvfooZQ3Axs_4core3ptr13drop_in_placeNtNtNtCscOYdFFY2T5N_3std2io5error6CustomECsjOBAykZTw0C_11clap_derive, symObjAddr: 0x23D8, symBinAddr: 0x5E038, symSize: 0x24 }
  - { offset: 0xCF07D, size: 0x8, addend: 0x0, symName: __RINvNtCsfvfooZQ3Axs_4core3ptr13drop_in_placeNtNtNtCscOYdFFY2T5N_3std3ffi6os_str8OsStringECsjOBAykZTw0C_11clap_derive, symObjAddr: 0x23FC, symBinAddr: 0x5E05C, symSize: 0x24 }
  - { offset: 0xCF0AC, size: 0x8, addend: 0x0, symName: __RINvNtCsfvfooZQ3Axs_4core3ptr13drop_in_placeNtNtNtNtCscOYdFFY2T5N_3std2io5error14repr_bitpacked4ReprECsjOBAykZTw0C_11clap_derive, symObjAddr: 0x2420, symBinAddr: 0x5E080, symSize: 0x24 }
  - { offset: 0xCF0DB, size: 0x8, addend: 0x0, symName: __RINvNtCsfvfooZQ3Axs_4core3ptr13drop_in_placeNtNtNtNtCscOYdFFY2T5N_3std3sys6os_str5bytes3BufECsjOBAykZTw0C_11clap_derive, symObjAddr: 0x2444, symBinAddr: 0x5E0A4, symSize: 0x24 }
  - { offset: 0xCF10A, size: 0x8, addend: 0x0, symName: __RINvNtCsfvfooZQ3Axs_4core3ptr13drop_in_placeNtNvNtNtNtCs9i5KxIbZ5ph_10proc_macro6bridge6client5state3set13RestoreOnDropECsjOBAykZTw0C_11clap_derive, symObjAddr: 0x2468, symBinAddr: 0x5E0C8, symSize: 0x24 }
  - { offset: 0xCF139, size: 0x8, addend: 0x0, symName: __RINvNtCsfvfooZQ3Axs_4core3ptr13drop_in_placeSINtNtB4_6option6OptionNtCs3cP53eQoTwO_11proc_macro211TokenStreamEECsjOBAykZTw0C_11clap_derive, symObjAddr: 0x248C, symBinAddr: 0x5E0EC, symSize: 0xB4 }
  - { offset: 0xCF168, size: 0x8, addend: 0x0, symName: __RINvNtCsfvfooZQ3Axs_4core3ptr13drop_in_placeSNtCs3cP53eQoTwO_11proc_macro211TokenStreamECsjOBAykZTw0C_11clap_derive, symObjAddr: 0x2540, symBinAddr: 0x5E1A0, symSize: 0xB4 }
  - { offset: 0xCF197, size: 0x8, addend: 0x0, symName: __RINvNtCsfvfooZQ3Axs_4core3ptr13drop_in_placeSNtCs3cP53eQoTwO_11proc_macro25IdentECsjOBAykZTw0C_11clap_derive, symObjAddr: 0x25F4, symBinAddr: 0x5E254, symSize: 0xC4 }
  - { offset: 0xCF1C6, size: 0x8, addend: 0x0, symName: __RINvNtCsfvfooZQ3Axs_4core3ptr13drop_in_placeSNtNtCs6IAuOt8vWmF_3syn4expr4ExprECsjOBAykZTw0C_11clap_derive, symObjAddr: 0x26B8, symBinAddr: 0x5E318, symSize: 0xC4 }
  - { offset: 0xCF1F5, size: 0x8, addend: 0x0, symName: __RINvNtCsfvfooZQ3Axs_4core3ptr13drop_in_placeSNtNtCse1nGBsou5OW_5alloc6string6StringECsjOBAykZTw0C_11clap_derive, symObjAddr: 0x277C, symBinAddr: 0x5E3DC, symSize: 0xC4 }
  - { offset: 0xCF224, size: 0x8, addend: 0x0, symName: __RINvNtCsfvfooZQ3Axs_4core3ptr13drop_in_placeSNtNtCsjOBAykZTw0C_11clap_derive4attr8ClapAttrEBL_, symObjAddr: 0x2840, symBinAddr: 0x5E4A0, symSize: 0xC4 }
  - { offset: 0xCF253, size: 0x8, addend: 0x0, symName: __RINvNtCsfvfooZQ3Axs_4core3ptr13drop_in_placeSNtNtCsjOBAykZTw0C_11clap_derive4item11DeprecationEBL_, symObjAddr: 0x2904, symBinAddr: 0x5E564, symSize: 0xB4 }
  - { offset: 0xCF282, size: 0x8, addend: 0x0, symName: __RINvNtCsfvfooZQ3Axs_4core3ptr13drop_in_placeSNtNtCsjOBAykZTw0C_11clap_derive4item6MethodEBL_, symObjAddr: 0x29B8, symBinAddr: 0x5E618, symSize: 0xC4 }
  - { offset: 0xCF2B1, size: 0x8, addend: 0x0, symName: __RINvNtCsfvfooZQ3Axs_4core3ptr13drop_in_placeSTNtCs3cP53eQoTwO_11proc_macro211TokenStreamNtBK_5IdentEECsjOBAykZTw0C_11clap_derive, symObjAddr: 0x2A7C, symBinAddr: 0x5E6DC, symSize: 0xC4 }
  - { offset: 0xCF2E0, size: 0x8, addend: 0x0, symName: __RINvNtCsfvfooZQ3Axs_4core3ptr13drop_in_placeSTNtNtCsjOBAykZTw0C_11clap_derive4attr8ClapAttrNtNtCs6IAuOt8vWmF_3syn5token5CommaEEBM_, symObjAddr: 0x2B40, symBinAddr: 0x5E7A0, symSize: 0xC4 }
  - { offset: 0xCF30F, size: 0x8, addend: 0x0, symName: __RINvNtCsfvfooZQ3Axs_4core3ptr13drop_in_placeSTRNtNtCs6IAuOt8vWmF_3syn4data5FieldNtNtCsjOBAykZTw0C_11clap_derive4item4ItemEEB1k_, symObjAddr: 0x2C04, symBinAddr: 0x5E864, symSize: 0xC4 }
  - { offset: 0xCF33E, size: 0x8, addend: 0x0, symName: __RINvNtCsfvfooZQ3Axs_4core3ptr13drop_in_placeSTRNtNtCs6IAuOt8vWmF_3syn4data7VariantNtNtCsjOBAykZTw0C_11clap_derive4item4ItemEEB1m_, symObjAddr: 0x2CC8, symBinAddr: 0x5E928, symSize: 0xC4 }
  - { offset: 0xCF36D, size: 0x8, addend: 0x0, symName: __RINvNtCsfvfooZQ3Axs_4core3ptr13drop_in_placeTINtNtCse1nGBsou5OW_5alloc3vec3VecNtCs3cP53eQoTwO_11proc_macro211TokenStreamEIBI_NtB1g_5IdentEEECsjOBAykZTw0C_11clap_derive, symObjAddr: 0x2D8C, symBinAddr: 0x5E9EC, symSize: 0x60 }
  - { offset: 0xCF39C, size: 0x8, addend: 0x0, symName: __RINvNtCsfvfooZQ3Axs_4core3ptr13drop_in_placeTNtCs3cP53eQoTwO_11proc_macro211TokenStreamNtBJ_5IdentEECsjOBAykZTw0C_11clap_derive, symObjAddr: 0x2DEC, symBinAddr: 0x5EA4C, symSize: 0x60 }
  - { offset: 0xCF3CB, size: 0x8, addend: 0x0, symName: __RINvNtCsfvfooZQ3Axs_4core3ptr13drop_in_placeTNtCs3cP53eQoTwO_11proc_macro24SpanRNtBJ_5IdentNtBJ_11TokenStreamEECsjOBAykZTw0C_11clap_derive, symObjAddr: 0x2E4C, symBinAddr: 0x5EAAC, symSize: 0x24 }
  - { offset: 0xCF3FA, size: 0x8, addend: 0x0, symName: __RINvNtCsfvfooZQ3Axs_4core3ptr13drop_in_placeTNtNtCsjOBAykZTw0C_11clap_derive4attr8ClapAttrNtNtCs6IAuOt8vWmF_3syn5token5CommaEEBL_, symObjAddr: 0x2E70, symBinAddr: 0x5EAD0, symSize: 0x24 }
  - { offset: 0xCF429, size: 0x8, addend: 0x0, symName: __RINvNtCsfvfooZQ3Axs_4core3ptr13drop_in_placeTRNtNtCs6IAuOt8vWmF_3syn4data5FieldNtNtCsjOBAykZTw0C_11clap_derive4item4ItemEEB1j_, symObjAddr: 0x2E94, symBinAddr: 0x5EAF4, symSize: 0x24 }
  - { offset: 0xCF458, size: 0x8, addend: 0x0, symName: __RINvNtCsfvfooZQ3Axs_4core3ptr13drop_in_placeTRNtNtCs6IAuOt8vWmF_3syn4data7VariantNtNtCsjOBAykZTw0C_11clap_derive4item4ItemEEB1l_, symObjAddr: 0x2EB8, symBinAddr: 0x5EB18, symSize: 0x24 }
  - { offset: 0xD2143, size: 0x8, addend: 0x0, symName: __RNvXsn_NtNtCsfvfooZQ3Axs_4core5panic11unwind_safeINtB5_16AssertUnwindSafeNCINvNtNtCs9i5KxIbZ5ph_10proc_macro6bridge6client10run_clientNtB1e_11TokenStreamINtNtB9_6option6OptionB28_ENCNCINvMs7_B1e_INtB1e_6ClientNtB1i_11TokenStreamB3l_E7expand1NvCsjOBAykZTw0C_11clap_derive10subcommandE00E0EINtNtNtB9_3ops8function6FnOnceuE9call_onceB3T_, symObjAddr: 0x3AE4, symBinAddr: 0x5F744, symSize: 0x38 }
  - { offset: 0xD219B, size: 0x8, addend: 0x0, symName: __RNvXsn_NtNtCsfvfooZQ3Axs_4core5panic11unwind_safeINtB5_16AssertUnwindSafeNCINvNtNtCs9i5KxIbZ5ph_10proc_macro6bridge6client10run_clientNtB1e_11TokenStreamINtNtB9_6option6OptionB28_ENCNCINvMs7_B1e_INtB1e_6ClientNtB1i_11TokenStreamB3l_E7expand1NvCsjOBAykZTw0C_11clap_derive10value_enumE00E0EINtNtNtB9_3ops8function6FnOnceuE9call_onceB3T_, symObjAddr: 0x3B1C, symBinAddr: 0x5F77C, symSize: 0x38 }
  - { offset: 0xD21F3, size: 0x8, addend: 0x0, symName: __RNvXsn_NtNtCsfvfooZQ3Axs_4core5panic11unwind_safeINtB5_16AssertUnwindSafeNCINvNtNtCs9i5KxIbZ5ph_10proc_macro6bridge6client10run_clientNtB1e_11TokenStreamINtNtB9_6option6OptionB28_ENCNCINvMs7_B1e_INtB1e_6ClientNtB1i_11TokenStreamB3l_E7expand1NvCsjOBAykZTw0C_11clap_derive4argsE00E0EINtNtNtB9_3ops8function6FnOnceuE9call_onceB3T_, symObjAddr: 0x3B54, symBinAddr: 0x5F7B4, symSize: 0x38 }
  - { offset: 0xD224B, size: 0x8, addend: 0x0, symName: __RNvXsn_NtNtCsfvfooZQ3Axs_4core5panic11unwind_safeINtB5_16AssertUnwindSafeNCINvNtNtCs9i5KxIbZ5ph_10proc_macro6bridge6client10run_clientNtB1e_11TokenStreamINtNtB9_6option6OptionB28_ENCNCINvMs7_B1e_INtB1e_6ClientNtB1i_11TokenStreamB3l_E7expand1NvCsjOBAykZTw0C_11clap_derive6parserE00E0EINtNtNtB9_3ops8function6FnOnceuE9call_onceB3T_, symObjAddr: 0x3B8C, symBinAddr: 0x5F7EC, symSize: 0x38 }
  - { offset: 0xD275D, size: 0x8, addend: 0x0, symName: __RINvNtNtNtCsfvfooZQ3Axs_4core4iter6traits7collect22default_extend_tuple_bNtCs3cP53eQoTwO_11proc_macro211TokenStreamNtB1b_5IdentINtNtCse1nGBsou5OW_5alloc3vec3VecB19_EIB22_B1P_EINtNtNtB6_8adapters6cloned6ClonedINtNtNtB8_5slice4iter4IterTB19_B1P_EEEECsjOBAykZTw0C_11clap_derive, symObjAddr: 0x2EDC, symBinAddr: 0x5EB3C, symSize: 0xDC }
  - { offset: 0xD27FA, size: 0x8, addend: 0x0, symName: __RNCINvNvNtNtNtCsfvfooZQ3Axs_4core4iter6traits7collect22default_extend_tuple_b6extendNtCs3cP53eQoTwO_11proc_macro211TokenStreamNtB1m_5IdentINtNtCse1nGBsou5OW_5alloc3vec3VecB1k_EIB2d_B20_EE0CsjOBAykZTw0C_11clap_derive, symObjAddr: 0x2FB8, symBinAddr: 0x5EC18, symSize: 0xCC }
  - { offset: 0xD28AB, size: 0x8, addend: 0x0, symName: __RNCINvNvXs6_NtNtNtCsfvfooZQ3Axs_4core4iter6traits7collectpINtBa_6TraitBppE6extend6extendNtCs3cP53eQoTwO_11proc_macro211TokenStreamNtB1q_5IdentINtNtCse1nGBsou5OW_5alloc3vec3VecB1o_EIB2h_B24_EE0CsjOBAykZTw0C_11clap_derive, symObjAddr: 0x3084, symBinAddr: 0x5ECE4, symSize: 0xBC }
  - { offset: 0xD305E, size: 0x8, addend: 0x0, symName: __RNvNvNtNtCsfvfooZQ3Axs_4core5slice3raw14from_raw_parts18precondition_checkCsjOBAykZTw0C_11clap_derive, symObjAddr: 0x3214, symBinAddr: 0x5EE74, symSize: 0x168 }
  - { offset: 0xD31A4, size: 0x8, addend: 0x0, symName: __RNvNvNtNtCsfvfooZQ3Axs_4core5slice3raw18from_raw_parts_mut18precondition_checkCsjOBAykZTw0C_11clap_derive, symObjAddr: 0x337C, symBinAddr: 0x5EFDC, symSize: 0x168 }
  - { offset: 0xD3793, size: 0x8, addend: 0x0, symName: __RNvYNCNkNvNtNtNtCs9i5KxIbZ5ph_10proc_macro6bridge6client5state12BRIDGE_STATE0s_0INtNtNtCsfvfooZQ3Axs_4core3ops8function6FnOnceTINtNtB1n_6option6OptionQIB22_INtNtB1n_4cell4CellPuEEEEE9call_onceCsjOBAykZTw0C_11clap_derive, symObjAddr: 0x3BF8, symBinAddr: 0x5F858, symSize: 0x4C }
  - { offset: 0xD37D7, size: 0x8, addend: 0x0, symName: __RNvYNvMNtCs6IAuOt8vWmF_3syn10punctuatedINtB5_10PunctuatedNtNtCsjOBAykZTw0C_11clap_derive4attr8ClapAttrNtNtB7_5token5CommaE16parse_terminatedINtNtNtCsfvfooZQ3Axs_4core3ops8function6FnOnceTRNtNtB7_5parse11ParseBufferEE9call_onceBX_, symObjAddr: 0x3DBC, symBinAddr: 0x5FA1C, symSize: 0x24 }
  - { offset: 0xD381B, size: 0x8, addend: 0x0, symName: __RNvYNvNtNtCsjOBAykZTw0C_11clap_derive5utils2ty8sub_typeINtNtNtCsfvfooZQ3Axs_4core3ops8function6FnOnceTRNtNtCs6IAuOt8vWmF_3syn2ty4TypeEE9call_onceB8_, symObjAddr: 0x3E10, symBinAddr: 0x5FA70, symSize: 0x24 }
  - { offset: 0xD385F, size: 0x8, addend: 0x0, symName: __RNvYNvYINtNtNtCse1nGBsou5OW_5alloc3vec9into_iter8IntoIterNtNtBc_6string6StringENtNtNtNtCsfvfooZQ3Axs_4core4iter6traits8iterator8Iterator4nextINtNtNtB1n_3ops8function6FnOnceTQB5_EE9call_onceCsjOBAykZTw0C_11clap_derive, symObjAddr: 0x3E34, symBinAddr: 0x5FA94, symSize: 0x24 }
  - { offset: 0xD38A3, size: 0x8, addend: 0x0, symName: __RNvYNvYINtNtNtCse1nGBsou5OW_5alloc3vec9into_iter8IntoIterNtNtBc_6string6StringENtNtNtNtCsfvfooZQ3Axs_4core4iter6traits8iterator8Iterator9size_hintINtNtNtB1n_3ops8function6FnOnceTRB5_EE9call_onceCsjOBAykZTw0C_11clap_derive, symObjAddr: 0x3E58, symBinAddr: 0x5FAB8, symSize: 0x24 }
  - { offset: 0xD38E7, size: 0x8, addend: 0x0, symName: __RNvYNvYNtNtCs6IAuOt8vWmF_3syn6derive11DeriveInputNtNtB9_5parse5Parse5parseINtNtNtCsfvfooZQ3Axs_4core3ops8function6FnOnceTRNtBN_11ParseBufferEE9call_onceCsjOBAykZTw0C_11clap_derive, symObjAddr: 0x3E7C, symBinAddr: 0x5FADC, symSize: 0x24 }
  - { offset: 0xD392B, size: 0x8, addend: 0x0, symName: __RNvYNvYNtNtNtCs9i5KxIbZ5ph_10proc_macro6bridge3rpc12PanicMessageINtNtCsfvfooZQ3Axs_4core7convert4FromINtNtCse1nGBsou5OW_5alloc5boxed3BoxDNtNtB15_3any3AnyNtNtB15_6marker4SendEL_EE4fromINtNtNtB15_3ops8function6FnOnceTB1B_EE9call_onceCsjOBAykZTw0C_11clap_derive, symObjAddr: 0x3EA0, symBinAddr: 0x5FB00, symSize: 0x2C }
  - { offset: 0xD3975, size: 0x8, addend: 0x0, symName: __RNvYNcNtINtNtNtCsfvfooZQ3Axs_4core3ops12control_flow11ControlFlowNtCs3cP53eQoTwO_11proc_macro211TokenStreamE5Break0INtNtBb_8function5FnMutTB11_EE8call_mutCsjOBAykZTw0C_11clap_derive, symObjAddr: 0x3C44, symBinAddr: 0x5F8A4, symSize: 0x38 }
  - { offset: 0xD39B9, size: 0x8, addend: 0x0, symName: __RNvYNcNtINtNtNtCsfvfooZQ3Axs_4core3ops12control_flow11ControlFlowTRNtNtCs6IAuOt8vWmF_3syn4data5FieldNtNtCsjOBAykZTw0C_11clap_derive4item4ItemEE5Break0INtNtBb_8function5FnMutTB11_EE8call_mutB1E_, symObjAddr: 0x3C7C, symBinAddr: 0x5F8DC, symSize: 0x50 }
  - { offset: 0xD39FD, size: 0x8, addend: 0x0, symName: __RNvYNcNtINtNtNtCsfvfooZQ3Axs_4core3ops12control_flow11ControlFlowTRNtNtCs6IAuOt8vWmF_3syn4data7VariantNtNtCsjOBAykZTw0C_11clap_derive4item4ItemEE5Break0INtNtBb_8function5FnMutTB11_EE8call_mutB1G_, symObjAddr: 0x3CCC, symBinAddr: 0x5F92C, symSize: 0x50 }
  - { offset: 0xD3A41, size: 0x8, addend: 0x0, symName: __RNvYNvMs9_NtCsfvfooZQ3Axs_4core3numj11checked_addINtNtNtBa_3ops8function5FnMutTjjEE8call_mutCsjOBAykZTw0C_11clap_derive, symObjAddr: 0x3DE0, symBinAddr: 0x5FA40, symSize: 0x30 }
  - { offset: 0xD3A85, size: 0x8, addend: 0x0, symName: __RNvYNvYTNtCs3cP53eQoTwO_11proc_macro211TokenStreamNtB8_5IdentENtNtCsfvfooZQ3Axs_4core5clone5Clone5cloneINtNtNtB12_3ops8function5FnMutTRB5_EE8call_mutCsjOBAykZTw0C_11clap_derive, symObjAddr: 0x3ECC, symBinAddr: 0x5FB2C, symSize: 0x28 }
  - { offset: 0xD3ACF, size: 0x8, addend: 0x0, symName: __RNvYNvCsjOBAykZTw0C_11clap_derive10subcommandINtNtNtCsfvfooZQ3Axs_4core3ops8function2FnTNtCs9i5KxIbZ5ph_10proc_macro11TokenStreamEE4callB4_, symObjAddr: 0x3D1C, symBinAddr: 0x5F97C, symSize: 0x28 }
  - { offset: 0xD3B13, size: 0x8, addend: 0x0, symName: __RNvYNvCsjOBAykZTw0C_11clap_derive10value_enumINtNtNtCsfvfooZQ3Axs_4core3ops8function2FnTNtCs9i5KxIbZ5ph_10proc_macro11TokenStreamEE4callB4_, symObjAddr: 0x3D44, symBinAddr: 0x5F9A4, symSize: 0x28 }
  - { offset: 0xD3B57, size: 0x8, addend: 0x0, symName: __RNvYNvCsjOBAykZTw0C_11clap_derive4argsINtNtNtCsfvfooZQ3Axs_4core3ops8function2FnTNtCs9i5KxIbZ5ph_10proc_macro11TokenStreamEE4callB4_, symObjAddr: 0x3D6C, symBinAddr: 0x5F9CC, symSize: 0x28 }
  - { offset: 0xD3B9B, size: 0x8, addend: 0x0, symName: __RNvYNvCsjOBAykZTw0C_11clap_derive6parserINtNtNtCsfvfooZQ3Axs_4core3ops8function2FnTNtCs9i5KxIbZ5ph_10proc_macro11TokenStreamEE4callB4_, symObjAddr: 0x3D94, symBinAddr: 0x5F9F4, symSize: 0x28 }
  - { offset: 0xD3E02, size: 0x8, addend: 0x0, symName: __RNvYTNtCs3cP53eQoTwO_11proc_macro211TokenStreamNtB5_5IdentENtNtCsfvfooZQ3Axs_4core5clone5Clone5cloneCsjOBAykZTw0C_11clap_derive, symObjAddr: 0x3EF4, symBinAddr: 0x5FB54, symSize: 0x68 }
  - { offset: 0xDA739, size: 0x8, addend: 0x0, symName: __RNvNtCse1nGBsou5OW_5alloc3fmt6formatCsjOBAykZTw0C_11clap_derive, symObjAddr: 0x3140, symBinAddr: 0x5EDA0, symSize: 0xD4 }
  - { offset: 0xDA79F, size: 0x8, addend: 0x0, symName: __RNvXs6_NtCse1nGBsou5OW_5alloc5boxedINtB5_3BoxDNtNtCsfvfooZQ3Axs_4core5error5ErrorNtNtBM_6marker4SendNtB1j_4SyncEL_ENtNtNtBM_3ops4drop4Drop4dropCsjOBAykZTw0C_11clap_derive, symObjAddr: 0x34E4, symBinAddr: 0x5F144, symSize: 0xC4 }
  - { offset: 0xDA8D6, size: 0x8, addend: 0x0, symName: __RNvXs6_NtCse1nGBsou5OW_5alloc5boxedINtB5_3BoxINtNtCs6IAuOt8vWmF_3syn5drops6NoDropDINtNtBM_10punctuated9IterTraitNtNtBM_4data5FieldEp4ItemRB1M_EL_EENtNtNtCsfvfooZQ3Axs_4core3ops4drop4Drop4dropCsjOBAykZTw0C_11clap_derive, symObjAddr: 0x35A8, symBinAddr: 0x5F208, symSize: 0x118 }
  - { offset: 0xDAA0D, size: 0x8, addend: 0x0, symName: __RNvXs6_NtCse1nGBsou5OW_5alloc5boxedINtB5_3BoxINtNtCs6IAuOt8vWmF_3syn5drops6NoDropDINtNtBM_10punctuated9IterTraitNtNtBM_4data7VariantEp4ItemRB1M_EL_EENtNtNtCsfvfooZQ3Axs_4core3ops4drop4Drop4dropCsjOBAykZTw0C_11clap_derive, symObjAddr: 0x36C0, symBinAddr: 0x5F320, symSize: 0x118 }
  - { offset: 0xDAB44, size: 0x8, addend: 0x0, symName: __RNvXs6_NtCse1nGBsou5OW_5alloc5boxedINtB5_3BoxINtNtCs6IAuOt8vWmF_3syn5drops6NoDropDINtNtBM_10punctuated9IterTraitNtNtBM_4path15GenericArgumentEp4ItemRB1M_EL_EENtNtNtCsfvfooZQ3Axs_4core3ops4drop4Drop4dropCsjOBAykZTw0C_11clap_derive, symObjAddr: 0x37D8, symBinAddr: 0x5F438, symSize: 0x118 }
  - { offset: 0xDAC7B, size: 0x8, addend: 0x0, symName: __RNvXs6_NtCse1nGBsou5OW_5alloc5boxedINtB5_3BoxNtNtCsjOBAykZTw0C_11clap_derive4attr8ClapAttrENtNtNtCsfvfooZQ3Axs_4core3ops4drop4Drop4dropBL_, symObjAddr: 0x38F0, symBinAddr: 0x5F550, symSize: 0xB0 }
  - { offset: 0xDADB2, size: 0x8, addend: 0x0, symName: __RNvXs6_NtCse1nGBsou5OW_5alloc5boxedINtB5_3BoxNtNtNtCscOYdFFY2T5N_3std2io5error6CustomENtNtNtCsfvfooZQ3Axs_4core3ops4drop4Drop4dropCsjOBAykZTw0C_11clap_derive, symObjAddr: 0x39A0, symBinAddr: 0x5F600, symSize: 0xB0 }
  - { offset: 0xDB539, size: 0x8, addend: 0x0, symName: __RINvMNtCs6IAuOt8vWmF_3syn4attrNtB3_9Attribute15parse_args_withNvMNtB5_10punctuatedINtB11_10PunctuatedNtNtCsjOBAykZTw0C_11clap_derive4attr8ClapAttrNtNtB5_5token5CommaE16parse_terminatedEB1F_, symObjAddr: 0x0, symBinAddr: 0x5BCC8, symSize: 0x358 }
  - { offset: 0xDB61B, size: 0x8, addend: 0x0, symName: __RINvMs0_NtCs6IAuOt8vWmF_3syn4attrNtB6_8MetaList15parse_args_withNvMNtB8_10punctuatedINtB13_10PunctuatedNtNtCsjOBAykZTw0C_11clap_derive4attr8ClapAttrNtNtB8_5token5CommaE16parse_terminatedEB1H_, symObjAddr: 0x358, symBinAddr: 0x5C020, symSize: 0xF0 }
  - { offset: 0xDCDE3, size: 0x8, addend: 0x0, symName: __RINvMs_NtNtCsfvfooZQ3Axs_4core3fmt2rtNtB5_8Argument11new_displayNtNtNtCs6IAuOt8vWmF_3syn4attr7parsing16DisplayAttrStyleECsjOBAykZTw0C_11clap_derive, symObjAddr: 0x0, symBinAddr: 0x61DE8, symSize: 0x2C }
  - { offset: 0xE063A, size: 0x8, addend: 0x0, symName: __RINvNtNtNtCsfvfooZQ3Axs_4core4iter7sources7from_fn7from_fnNtNtCse1nGBsou5OW_5alloc6string6StringNCNvNtNtCsjOBAykZTw0C_11clap_derive5utils12doc_comments16split_paragraphs0EB1E_, symObjAddr: 0x3CC, symBinAddr: 0x621B4, symSize: 0x18 }
  - { offset: 0xE067D, size: 0x8, addend: 0x0, symName: __RNvXNtNtNtCsfvfooZQ3Axs_4core4iter7sources7from_fnINtB2_6FromFnNCNvNtNtCsjOBAykZTw0C_11clap_derive5utils12doc_comments16split_paragraphs0ENtNtNtB6_6traits8iterator8Iterator4nextB17_, symObjAddr: 0x285C, symBinAddr: 0x64644, symSize: 0x24 }
  - { offset: 0xE06E6, size: 0x8, addend: 0x0, symName: __RINvNtNtNtCsfvfooZQ3Axs_4core4iter8adapters7flatten17and_then_or_clearINtNtNtCse1nGBsou5OW_5alloc3vec9into_iter8IntoIterNtNtB1d_6string6StringEB1U_NvYB16_NtNtNtB6_6traits8iterator8Iterator4nextECsjOBAykZTw0C_11clap_derive, symObjAddr: 0x3E4, symBinAddr: 0x621CC, symSize: 0x124 }
  - { offset: 0xE0829, size: 0x8, addend: 0x0, symName: __RNvXs1_NtNtNtCsfvfooZQ3Axs_4core4iter8adapters7flattenINtB5_7FlatMapINtNtB7_10skip_while9SkipWhileINtNtB7_10filter_map9FilterMapINtNtB7_6filter6FilterINtNtNtBb_5slice4iter4IterNtNtCs6IAuOt8vWmF_3syn4attr9AttributeENCNvNtNtCsjOBAykZTw0C_11clap_derive5utils12doc_comments19extract_doc_comment0ENCB3s_s_0ENCB3s_s0_0EINtNtCse1nGBsou5OW_5alloc3vec3VecNtNtB56_6string6StringENCB3s_s1_0ENtNtNtB9_6traits8iterator8Iterator4nextB3y_, symObjAddr: 0x30A0, symBinAddr: 0x64E88, symSize: 0x24 }
  - { offset: 0xE0870, size: 0x8, addend: 0x0, symName: __RNvXs1_NtNtNtCsfvfooZQ3Axs_4core4iter8adapters7flattenINtB5_7FlatMapINtNtB7_10skip_while9SkipWhileINtNtB7_10filter_map9FilterMapINtNtB7_6filter6FilterINtNtNtBb_5slice4iter4IterNtNtCs6IAuOt8vWmF_3syn4attr9AttributeENCNvNtNtCsjOBAykZTw0C_11clap_derive5utils12doc_comments19extract_doc_comment0ENCB3s_s_0ENCB3s_s0_0EINtNtCse1nGBsou5OW_5alloc3vec3VecNtNtB56_6string6StringENCB3s_s1_0ENtNtNtB9_6traits8iterator8Iterator9size_hintB3y_, symObjAddr: 0x30C4, symBinAddr: 0x64EAC, symSize: 0x24 }
  - { offset: 0xE08BD, size: 0x8, addend: 0x0, symName: __RNvXsv_NtNtNtCsfvfooZQ3Axs_4core4iter8adapters7flattenINtB5_13FlattenCompatINtNtB7_3map3MapINtNtB7_10skip_while9SkipWhileINtNtB7_10filter_map9FilterMapINtNtB7_6filter6FilterINtNtNtBb_5slice4iter4IterNtNtCs6IAuOt8vWmF_3syn4attr9AttributeENCNvNtNtCsjOBAykZTw0C_11clap_derive5utils12doc_comments19extract_doc_comment0ENCB3P_s_0ENCB3P_s0_0ENCB3P_s1_0EINtNtNtCse1nGBsou5OW_5alloc3vec9into_iter8IntoIterNtNtB5G_6string6StringEENtNtNtB9_6traits8iterator8Iterator4nextB3V_, symObjAddr: 0x3214, symBinAddr: 0x64FFC, symSize: 0x14C }
  - { offset: 0xE0950, size: 0x8, addend: 0x0, symName: __RNvXsv_NtNtNtCsfvfooZQ3Axs_4core4iter8adapters7flattenINtB5_13FlattenCompatINtNtB7_3map3MapINtNtB7_10skip_while9SkipWhileINtNtB7_10filter_map9FilterMapINtNtB7_6filter6FilterINtNtNtBb_5slice4iter4IterNtNtCs6IAuOt8vWmF_3syn4attr9AttributeENCNvNtNtCsjOBAykZTw0C_11clap_derive5utils12doc_comments19extract_doc_comment0ENCB3P_s_0ENCB3P_s0_0ENCB3P_s1_0EINtNtNtCse1nGBsou5OW_5alloc3vec9into_iter8IntoIterNtNtB5G_6string6StringEENtNtNtB9_6traits8iterator8Iterator9size_hintB3V_, symObjAddr: 0x3360, symBinAddr: 0x65148, symSize: 0x774 }
  - { offset: 0xE1271, size: 0x8, addend: 0x0, symName: __RNCINvNtNtNtCsfvfooZQ3Axs_4core4iter8adapters3map12map_try_foldRNtNtCs6IAuOt8vWmF_3syn4data5FieldINtNtBa_6result6ResultTBZ_NtNtCsjOBAykZTw0C_11clap_derive4item4ItemENtNtB14_5error5ErrorEuINtNtNtBa_3ops12control_flow11ControlFlowIB30_B1T_EENCNvNtNtB21_7derives4args11derive_args0NCINvXB6_INtB6_12GenericShuntINtB4_3MapINtNtB14_10punctuated4IterB10_EB3P_EIB1y_NtNtBa_7convert10InfallibleB2D_EENtNtNtB8_6traits8iterator8Iterator8try_folduNCINvNvB6h_12try_for_each4callB1T_B3E_NcNtB3E_5Break0E0B3E_E0E0B21_, symObjAddr: 0xE20, symBinAddr: 0x62C08, symSize: 0xAC }
  - { offset: 0xE1303, size: 0x8, addend: 0x0, symName: __RNCINvNtNtNtCsfvfooZQ3Axs_4core4iter8adapters3map12map_try_foldRNtNtCs6IAuOt8vWmF_3syn4data5FieldINtNtBa_6result6ResultTBZ_NtNtCsjOBAykZTw0C_11clap_derive4item4ItemENtNtB14_5error5ErrorEuINtNtNtBa_3ops12control_flow11ControlFlowIB30_B1T_EENCNvNtNtB21_7derives4args19collect_args_fields0NCINvXB6_INtB6_12GenericShuntINtB4_3MapINtNtB14_10punctuated4IterB10_EB3P_EIB1y_NtNtBa_7convert10InfallibleB2D_EENtNtNtB8_6traits8iterator8Iterator8try_folduNCINvNvB6p_12try_for_each4callB1T_B3E_NcNtB3E_5Break0E0B3E_E0E0B21_, symObjAddr: 0xECC, symBinAddr: 0x62CB4, symSize: 0xAC }
  - { offset: 0xE1395, size: 0x8, addend: 0x0, symName: __RNCINvNtNtNtCsfvfooZQ3Axs_4core4iter8adapters3map12map_try_foldRNtNtCs6IAuOt8vWmF_3syn4data5FieldINtNtBa_6result6ResultTBZ_NtNtCsjOBAykZTw0C_11clap_derive4item4ItemENtNtB14_5error5ErrorEuINtNtNtBa_3ops12control_flow11ControlFlowIB30_B1T_EENCNvNtNtB21_7derives6parser13derive_parser0NCINvXB6_INtB6_12GenericShuntINtB4_3MapINtNtB14_10punctuated4IterB10_EB3P_EIB1y_NtNtBa_7convert10InfallibleB2D_EENtNtNtB8_6traits8iterator8Iterator8try_folduNCINvNvB6l_12try_for_each4callB1T_B3E_NcNtB3E_5Break0E0B3E_E0E0B21_, symObjAddr: 0xF78, symBinAddr: 0x62D60, symSize: 0xAC }
  - { offset: 0xE1427, size: 0x8, addend: 0x0, symName: __RNCINvNtNtNtCsfvfooZQ3Axs_4core4iter8adapters3map12map_try_foldRNtNtCs6IAuOt8vWmF_3syn4data7VariantINtNtBa_6result6ResultTBZ_NtNtCsjOBAykZTw0C_11clap_derive4item4ItemENtNtB14_5error5ErrorEuINtNtNtBa_3ops12control_flow11ControlFlowIB32_B1V_EENCNvNtNtB23_7derives10subcommand17derive_subcommand0NCINvXB6_INtB6_12GenericShuntINtB4_3MapINtNtB14_10punctuated4IterB10_EB3R_EIB1A_NtNtBa_7convert10InfallibleB2F_EENtNtNtB8_6traits8iterator8Iterator8try_folduNCINvNvB6w_12try_for_each4callB1V_B3G_NcNtB3G_5Break0E0B3G_E0E0B23_, symObjAddr: 0x1024, symBinAddr: 0x62E0C, symSize: 0xAC }
  - { offset: 0xE14B9, size: 0x8, addend: 0x0, symName: __RNCINvNtNtNtCsfvfooZQ3Axs_4core4iter8adapters3map12map_try_foldRNtNtCs6IAuOt8vWmF_3syn4data7VariantINtNtBa_6result6ResultTBZ_NtNtCsjOBAykZTw0C_11clap_derive4item4ItemENtNtB14_5error5ErrorEuINtNtNtBa_3ops12control_flow11ControlFlowIB32_B1V_EENCNvNtNtB23_7derives6parser13derive_parsers_0NCINvXB6_INtB6_12GenericShuntINtB4_3MapINtNtB14_10punctuated4IterB10_EB3R_EIB1A_NtNtBa_7convert10InfallibleB2F_EENtNtNtB8_6traits8iterator8Iterator8try_folduNCINvNvB6p_12try_for_each4callB1V_B3G_NcNtB3G_5Break0E0B3G_E0E0B23_, symObjAddr: 0x10D0, symBinAddr: 0x62EB8, symSize: 0xAC }
  - { offset: 0xE154B, size: 0x8, addend: 0x0, symName: __RNCINvNtNtNtCsfvfooZQ3Axs_4core4iter8adapters3map12map_try_foldRNtNtCse1nGBsou5OW_5alloc6string6StringjjINtNtBa_6option6OptionjENCNCINvNtB14_3str17join_generic_copyehB10_E00NvMs9_NtBa_3numj11checked_addE0CsjOBAykZTw0C_11clap_derive, symObjAddr: 0x117C, symBinAddr: 0x62F64, symSize: 0xA8 }
  - { offset: 0xE15DD, size: 0x8, addend: 0x0, symName: __RNCINvNtNtNtCsfvfooZQ3Axs_4core4iter8adapters3map12map_try_foldRTRNtNtCs6IAuOt8vWmF_3syn4data5FieldNtNtCsjOBAykZTw0C_11clap_derive4item4ItemEINtNtBa_6result6ResultNtCs3cP53eQoTwO_11proc_macro211TokenStreamNtNtB16_5error5ErrorEuINtNtNtBa_3ops12control_flow11ControlFlowIB3E_B2B_EENCNvNtNtB1D_7derives4args15gen_constructor0NCINvXB6_INtB6_12GenericShuntINtB4_3MapINtNtNtBa_5slice4iter4IterB10_EB4t_EIB2g_NtNtBa_7convert10InfallibleB3h_EENtNtNtB8_6traits8iterator8Iterator8try_folduNCINvNvB6Z_12try_for_each4callB2B_B4i_NcNtB4i_5Break0E0B4i_E0E0B1D_, symObjAddr: 0x1224, symBinAddr: 0x6300C, symSize: 0x98 }
  - { offset: 0xE166F, size: 0x8, addend: 0x0, symName: __RNCINvNtNtNtCsfvfooZQ3Axs_4core4iter8adapters3map12map_try_foldRTRRNtNtCs6IAuOt8vWmF_3syn4data7VariantRNtNtCsjOBAykZTw0C_11clap_derive4item4ItemEINtNtBa_6result6ResultNtCs3cP53eQoTwO_11proc_macro211TokenStreamNtNtB17_5error5ErrorEuINtNtNtBa_3ops12control_flow11ControlFlowIB3I_B2F_EENCNvNtNtB1H_7derives10subcommand18gen_has_subcommands1_0NCINvXB6_INtB6_12GenericShuntINtB4_3MapINtNtNtBa_5slice4iter4IterB10_EB4x_EIB2k_NtNtBa_7convert10InfallibleB3l_EENtNtNtB8_6traits8iterator8Iterator8try_folduNCINvNvB7g_12try_for_each4callB2F_B4m_NcNtB4m_5Break0E0B4m_E0E0B1H_, symObjAddr: 0x12BC, symBinAddr: 0x630A4, symSize: 0x98 }
  - { offset: 0xE1701, size: 0x8, addend: 0x0, symName: __RNCINvNtNtNtCsfvfooZQ3Axs_4core4iter8adapters3map12map_try_foldRTRRNtNtCs6IAuOt8vWmF_3syn4data7VariantRNtNtCsjOBAykZTw0C_11clap_derive4item4ItemEINtNtBa_6result6ResultNtCs3cP53eQoTwO_11proc_macro211TokenStreamNtNtB17_5error5ErrorEuINtNtNtBa_3ops12control_flow11ControlFlowIB3I_B2F_EENCNvNtNtB1H_7derives10subcommand20gen_from_arg_matches0NCINvXB6_INtB6_12GenericShuntINtB4_3MapINtNtNtBa_5slice4iter4IterB10_EB4x_EIB2k_NtNtBa_7convert10InfallibleB3l_EENtNtNtB8_6traits8iterator8Iterator8try_folduNCINvNvB7f_12try_for_each4callB2F_B4m_NcNtB4m_5Break0E0B4m_E0E0B1H_, symObjAddr: 0x1354, symBinAddr: 0x6313C, symSize: 0x98 }
  - { offset: 0xE1793, size: 0x8, addend: 0x0, symName: __RNCINvNtNtNtCsfvfooZQ3Axs_4core4iter8adapters3map12map_try_foldRTRRNtNtCs6IAuOt8vWmF_3syn4data7VariantRNtNtCsjOBAykZTw0C_11clap_derive4item4ItemEINtNtBa_6result6ResultNtCs3cP53eQoTwO_11proc_macro211TokenStreamNtNtB17_5error5ErrorEuINtNtNtBa_3ops12control_flow11ControlFlowIB3I_B2F_EENCNvNtNtB1H_7derives10subcommand20gen_from_arg_matchess_0NCINvXB6_INtB6_12GenericShuntINtB4_3MapINtNtNtBa_5slice4iter4IterB10_EB4x_EIB2k_NtNtBa_7convert10InfallibleB3l_EENtNtNtB8_6traits8iterator8Iterator8try_folduNCINvNvB7h_12try_for_each4callB2F_B4m_NcNtB4m_5Break0E0B4m_E0E0B1H_, symObjAddr: 0x13EC, symBinAddr: 0x631D4, symSize: 0x98 }
  - { offset: 0xE1825, size: 0x8, addend: 0x0, symName: __RNCINvNtNtNtCsfvfooZQ3Axs_4core4iter8adapters3map12map_try_foldRTRRNtNtCs6IAuOt8vWmF_3syn4data7VariantRNtNtCsjOBAykZTw0C_11clap_derive4item4ItemEINtNtBa_6result6ResultNtCs3cP53eQoTwO_11proc_macro211TokenStreamNtNtB17_5error5ErrorEuINtNtNtBa_3ops12control_flow11ControlFlowIB3I_B2F_EENCNvNtNtB1H_7derives10subcommand27gen_update_from_arg_matchess0_0NCINvXB6_INtB6_12GenericShuntINtB4_3MapINtNtNtBa_5slice4iter4IterB10_EB4x_EIB2k_NtNtBa_7convert10InfallibleB3l_EENtNtNtB8_6traits8iterator8Iterator8try_folduNCINvNvB7p_12try_for_each4callB2F_B4m_NcNtB4m_5Break0E0B4m_E0E0B1H_, symObjAddr: 0x1484, symBinAddr: 0x6326C, symSize: 0x98 }
  - { offset: 0xE18B7, size: 0x8, addend: 0x0, symName: __RNCINvNtNtNtCsfvfooZQ3Axs_4core4iter8adapters3map12map_try_foldRTRRNtNtCs6IAuOt8vWmF_3syn4data7VariantRNtNtCsjOBAykZTw0C_11clap_derive4item4ItemEINtNtBa_6result6ResultNtCs3cP53eQoTwO_11proc_macro211TokenStreamNtNtB17_5error5ErrorEuINtNtNtBa_3ops12control_flow11ControlFlowIB3I_B2F_EENCNvNtNtB1H_7derives10subcommand27gen_update_from_arg_matchess1_0NCINvXB6_INtB6_12GenericShuntINtB4_3MapINtNtNtBa_5slice4iter4IterB10_EB4x_EIB2k_NtNtBa_7convert10InfallibleB3l_EENtNtNtB8_6traits8iterator8Iterator8try_folduNCINvNvB7p_12try_for_each4callB2F_B4m_NcNtB4m_5Break0E0B4m_E0E0B1H_, symObjAddr: 0x151C, symBinAddr: 0x63304, symSize: 0x98 }
  - { offset: 0xE194F, size: 0x8, addend: 0x0, symName: __RINvXs0_NtNtNtCsfvfooZQ3Axs_4core4iter8adapters3mapINtB6_3MapINtNtCs6IAuOt8vWmF_3syn10punctuated4IterNtNtB12_4data5FieldENCNvNtNtCsjOBAykZTw0C_11clap_derive7derives4args11derive_args0ENtNtNtBa_6traits8iterator8Iterator8try_folduNCINvXB8_INtB8_12GenericShuntBN_INtNtBc_6result6ResultNtNtBc_7convert10InfallibleNtNtB12_5error5ErrorEEB2W_8try_folduNCINvNvB2W_12try_for_each4callTRB1B_NtNtB23_4item4ItemEINtNtNtBc_3ops12control_flow11ControlFlowB61_ENcNtB6q_5Break0E0B6q_E0IB6r_B6q_EEB23_, symObjAddr: 0x508, symBinAddr: 0x622F0, symSize: 0x54 }
  - { offset: 0xE19F2, size: 0x8, addend: 0x0, symName: __RINvXs0_NtNtNtCsfvfooZQ3Axs_4core4iter8adapters3mapINtB6_3MapINtNtCs6IAuOt8vWmF_3syn10punctuated4IterNtNtB12_4data5FieldENCNvNtNtCsjOBAykZTw0C_11clap_derive7derives4args19collect_args_fields0ENtNtNtBa_6traits8iterator8Iterator8try_folduNCINvXB8_INtB8_12GenericShuntBN_INtNtBc_6result6ResultNtNtBc_7convert10InfallibleNtNtB12_5error5ErrorEEB34_8try_folduNCINvNvB34_12try_for_each4callTRB1B_NtNtB23_4item4ItemEINtNtNtBc_3ops12control_flow11ControlFlowB69_ENcNtB6y_5Break0E0B6y_E0IB6z_B6y_EEB23_, symObjAddr: 0x55C, symBinAddr: 0x62344, symSize: 0x54 }
  - { offset: 0xE1A95, size: 0x8, addend: 0x0, symName: __RINvXs0_NtNtNtCsfvfooZQ3Axs_4core4iter8adapters3mapINtB6_3MapINtNtCs6IAuOt8vWmF_3syn10punctuated4IterNtNtB12_4data5FieldENCNvNtNtCsjOBAykZTw0C_11clap_derive7derives6parser13derive_parser0ENtNtNtBa_6traits8iterator8Iterator8try_folduNCINvXB8_INtB8_12GenericShuntBN_INtNtBc_6result6ResultNtNtBc_7convert10InfallibleNtNtB12_5error5ErrorEEB30_8try_folduNCINvNvB30_12try_for_each4callTRB1B_NtNtB23_4item4ItemEINtNtNtBc_3ops12control_flow11ControlFlowB65_ENcNtB6u_5Break0E0B6u_E0IB6v_B6u_EEB23_, symObjAddr: 0x5B0, symBinAddr: 0x62398, symSize: 0x54 }
  - { offset: 0xE1B38, size: 0x8, addend: 0x0, symName: __RINvXs0_NtNtNtCsfvfooZQ3Axs_4core4iter8adapters3mapINtB6_3MapINtNtCs6IAuOt8vWmF_3syn10punctuated4IterNtNtB12_4data7VariantENCNvNtNtCsjOBAykZTw0C_11clap_derive7derives10subcommand17derive_subcommand0ENtNtNtBa_6traits8iterator8Iterator8try_folduNCINvXB8_INtB8_12GenericShuntBN_INtNtBc_6result6ResultNtNtBc_7convert10InfallibleNtNtB12_5error5ErrorEEB3b_8try_folduNCINvNvB3b_12try_for_each4callTRB1B_NtNtB25_4item4ItemEINtNtNtBc_3ops12control_flow11ControlFlowB6g_ENcNtB6F_5Break0E0B6F_E0IB6G_B6F_EEB25_, symObjAddr: 0x604, symBinAddr: 0x623EC, symSize: 0x54 }
  - { offset: 0xE1BDB, size: 0x8, addend: 0x0, symName: __RINvXs0_NtNtNtCsfvfooZQ3Axs_4core4iter8adapters3mapINtB6_3MapINtNtCs6IAuOt8vWmF_3syn10punctuated4IterNtNtB12_4data7VariantENCNvNtNtCsjOBAykZTw0C_11clap_derive7derives6parser13derive_parsers_0ENtNtNtBa_6traits8iterator8Iterator8try_folduNCINvXB8_INtB8_12GenericShuntBN_INtNtBc_6result6ResultNtNtBc_7convert10InfallibleNtNtB12_5error5ErrorEEB34_8try_folduNCINvNvB34_12try_for_each4callTRB1B_NtNtB25_4item4ItemEINtNtNtBc_3ops12control_flow11ControlFlowB69_ENcNtB6y_5Break0E0B6y_E0IB6z_B6y_EEB25_, symObjAddr: 0x658, symBinAddr: 0x62440, symSize: 0x54 }
  - { offset: 0xE1C7E, size: 0x8, addend: 0x0, symName: __RINvXs0_NtNtNtCsfvfooZQ3Axs_4core4iter8adapters3mapINtB6_3MapINtNtNtBc_5slice4iter4IterNtNtCse1nGBsou5OW_5alloc6string6StringENCINvNtNtCsjOBAykZTw0C_11clap_derive5utils12doc_comments11merge_linesRB1n_RSB1n_E0ENtNtNtBa_6traits8iterator8Iterator4folduNCINvNvB3l_8for_each4callB1n_NCINvMsi_NtB1r_3vecINtB4B_3VecB1n_E14extend_trustedBN_E0E0EB29_, symObjAddr: 0x6AC, symBinAddr: 0x62494, symSize: 0x44 }
  - { offset: 0xE1D16, size: 0x8, addend: 0x0, symName: __RINvXs0_NtNtNtCsfvfooZQ3Axs_4core4iter8adapters3mapINtB6_3MapINtNtNtBc_5slice4iter4IterNtNtCsjOBAykZTw0C_11clap_derive4attr8AttrKindENCNvNtB1r_4item16assert_attr_kind0ENtNtNtBa_6traits8iterator8Iterator4folduNCINvNvB2G_8for_each4callNtNtCse1nGBsou5OW_5alloc6string6StringNCINvMsi_NtB3N_3vecINtB4u_3VecB3J_E14extend_trustedBN_E0E0EB1r_, symObjAddr: 0x6F0, symBinAddr: 0x624D8, symSize: 0x4C }
  - { offset: 0xE1DAF, size: 0x8, addend: 0x0, symName: __RINvXs0_NtNtNtCsfvfooZQ3Axs_4core4iter8adapters3mapINtB6_3MapINtNtNtBc_5slice4iter4IterTNtCs3cP53eQoTwO_11proc_macro211TokenStreamNtB1q_5IdentEENCNvNtNtCsjOBAykZTw0C_11clap_derive7derives10value_enum18gen_value_variants0ENtNtNtBa_6traits8iterator8Iterator4folduNCINvNvB3x_8for_each4callRB24_NCINvMsi_NtCse1nGBsou5OW_5alloc3vecINtB4O_3VecB4A_E14extend_trustedBN_E0E0EB2q_, symObjAddr: 0x73C, symBinAddr: 0x62524, symSize: 0x44 }
  - { offset: 0xE1E47, size: 0x8, addend: 0x0, symName: __RINvXs0_NtNtNtCsfvfooZQ3Axs_4core4iter8adapters3mapINtB6_3MapINtNtNtBc_5slice4iter4IterTRNtNtCs6IAuOt8vWmF_3syn4data5FieldNtNtCsjOBAykZTw0C_11clap_derive4item4ItemEENCNvNtNtB20_7derives4args15gen_constructor0ENtNtNtBa_6traits8iterator8Iterator8try_folduNCINvXB8_INtB8_12GenericShuntBN_INtNtBc_6result6ResultNtNtBc_7convert10InfallibleNtNtB1t_5error5ErrorEEB3l_8try_folduNCINvNvB3l_12try_for_each4callNtCs3cP53eQoTwO_11proc_macro211TokenStreamINtNtNtBc_3ops12control_flow11ControlFlowB6q_ENcNtB76_5Break0E0B76_E0IB77_B76_EEB20_, symObjAddr: 0x780, symBinAddr: 0x62568, symSize: 0x54 }
  - { offset: 0xE1EEA, size: 0x8, addend: 0x0, symName: __RINvXs0_NtNtNtCsfvfooZQ3Axs_4core4iter8adapters3mapINtB6_3MapINtNtNtBc_5slice4iter4IterTRRNtNtCs6IAuOt8vWmF_3syn4data7VariantRNtNtCsjOBAykZTw0C_11clap_derive4item4ItemEENCNvNtNtB24_7derives10subcommand18gen_has_subcommands1_0ENtNtNtBa_6traits8iterator8Iterator8try_folduNCINvXB8_INtB8_12GenericShuntBN_INtNtBc_6result6ResultNtNtBc_7convert10InfallibleNtNtB1u_5error5ErrorEEB3C_8try_folduNCINvNvB3C_12try_for_each4callNtCs3cP53eQoTwO_11proc_macro211TokenStreamINtNtNtBc_3ops12control_flow11ControlFlowB6H_ENcNtB7n_5Break0E0B7n_E0IB7o_B7n_EEB24_, symObjAddr: 0x7D4, symBinAddr: 0x625BC, symSize: 0x54 }
  - { offset: 0xE1F8D, size: 0x8, addend: 0x0, symName: __RINvXs0_NtNtNtCsfvfooZQ3Axs_4core4iter8adapters3mapINtB6_3MapINtNtNtBc_5slice4iter4IterTRRNtNtCs6IAuOt8vWmF_3syn4data7VariantRNtNtCsjOBAykZTw0C_11clap_derive4item4ItemEENCNvNtNtB24_7derives10subcommand20gen_from_arg_matches0ENtNtNtBa_6traits8iterator8Iterator8try_folduNCINvXB8_INtB8_12GenericShuntBN_INtNtBc_6result6ResultNtNtBc_7convert10InfallibleNtNtB1u_5error5ErrorEEB3B_8try_folduNCINvNvB3B_12try_for_each4callNtCs3cP53eQoTwO_11proc_macro211TokenStreamINtNtNtBc_3ops12control_flow11ControlFlowB6G_ENcNtB7m_5Break0E0B7m_E0IB7n_B7m_EEB24_, symObjAddr: 0x828, symBinAddr: 0x62610, symSize: 0x54 }
  - { offset: 0xE2030, size: 0x8, addend: 0x0, symName: __RINvXs0_NtNtNtCsfvfooZQ3Axs_4core4iter8adapters3mapINtB6_3MapINtNtNtBc_5slice4iter4IterTRRNtNtCs6IAuOt8vWmF_3syn4data7VariantRNtNtCsjOBAykZTw0C_11clap_derive4item4ItemEENCNvNtNtB24_7derives10subcommand20gen_from_arg_matchess_0ENtNtNtBa_6traits8iterator8Iterator8try_folduNCINvXB8_INtB8_12GenericShuntBN_INtNtBc_6result6ResultNtNtBc_7convert10InfallibleNtNtB1u_5error5ErrorEEB3D_8try_folduNCINvNvB3D_12try_for_each4callNtCs3cP53eQoTwO_11proc_macro211TokenStreamINtNtNtBc_3ops12control_flow11ControlFlowB6I_ENcNtB7o_5Break0E0B7o_E0IB7p_B7o_EEB24_, symObjAddr: 0x87C, symBinAddr: 0x62664, symSize: 0x54 }
  - { offset: 0xE20D3, size: 0x8, addend: 0x0, symName: __RINvXs0_NtNtNtCsfvfooZQ3Axs_4core4iter8adapters3mapINtB6_3MapINtNtNtBc_5slice4iter4IterTRRNtNtCs6IAuOt8vWmF_3syn4data7VariantRNtNtCsjOBAykZTw0C_11clap_derive4item4ItemEENCNvNtNtB24_7derives10subcommand27gen_update_from_arg_matchess0_0ENtNtNtBa_6traits8iterator8Iterator8try_folduNCINvXB8_INtB8_12GenericShuntBN_INtNtBc_6result6ResultNtNtBc_7convert10InfallibleNtNtB1u_5error5ErrorEEB3L_8try_folduNCINvNvB3L_12try_for_each4callNtCs3cP53eQoTwO_11proc_macro211TokenStreamINtNtNtBc_3ops12control_flow11ControlFlowB6Q_ENcNtB7w_5Break0E0B7w_E0IB7x_B7w_EEB24_, symObjAddr: 0x8D0, symBinAddr: 0x626B8, symSize: 0x54 }
  - { offset: 0xE2176, size: 0x8, addend: 0x0, symName: __RINvXs0_NtNtNtCsfvfooZQ3Axs_4core4iter8adapters3mapINtB6_3MapINtNtNtBc_5slice4iter4IterTRRNtNtCs6IAuOt8vWmF_3syn4data7VariantRNtNtCsjOBAykZTw0C_11clap_derive4item4ItemEENCNvNtNtB24_7derives10subcommand27gen_update_from_arg_matchess1_0ENtNtNtBa_6traits8iterator8Iterator8try_folduNCINvXB8_INtB8_12GenericShuntBN_INtNtBc_6result6ResultNtNtBc_7convert10InfallibleNtNtB1u_5error5ErrorEEB3L_8try_folduNCINvNvB3L_12try_for_each4callNtCs3cP53eQoTwO_11proc_macro211TokenStreamINtNtNtBc_3ops12control_flow11ControlFlowB6Q_ENcNtB7w_5Break0E0B7w_E0IB7x_B7w_EEB24_, symObjAddr: 0x924, symBinAddr: 0x6270C, symSize: 0x54 }
  - { offset: 0xE2219, size: 0x8, addend: 0x0, symName: __RINvXs0_NtNtNtCsfvfooZQ3Axs_4core4iter8adapters3mapINtB6_3MapINtNtNtBc_5slice4iter4IterhENCNvNtCse1nGBsou5OW_5alloc3str13replace_ascii0ENtNtNtBa_6traits8iterator8Iterator4folduNCINvNvB2a_8for_each4callhNCINvMsi_NtB1v_3vecINtB3n_3VechE14extend_trustedBN_E0E0ECsjOBAykZTw0C_11clap_derive, symObjAddr: 0x978, symBinAddr: 0x62760, symSize: 0x58 }
  - { offset: 0xE22B2, size: 0x8, addend: 0x0, symName: __RINvXs0_NtNtNtCsfvfooZQ3Axs_4core4iter8adapters3mapINtB6_3MapINtNtNtCse1nGBsou5OW_5alloc3vec9into_iter8IntoIterTNtNtCs6IAuOt8vWmF_3syn4expr4ExprNtNtB1Q_5token5CommaEENCNvXs8_NtB1Q_10punctuatedINtB2M_10PunctuatedB1M_B2i_ENtNtNtBa_6traits7collect12IntoIterator9into_iter0ENtNtB3A_8iterator8Iterator4folduNCINvNvB4k_8for_each4callB1M_NCINvMsi_B12_INtB12_3VecB1M_E14extend_trustedBN_E0E0ECsjOBAykZTw0C_11clap_derive, symObjAddr: 0x9D0, symBinAddr: 0x627B8, symSize: 0x4C }
  - { offset: 0xE234B, size: 0x8, addend: 0x0, symName: __RINvXs0_NtNtNtCsfvfooZQ3Axs_4core4iter8adapters3mapINtB6_3MapINtNtNtCse1nGBsou5OW_5alloc3vec9into_iter8IntoIterTNtNtCsjOBAykZTw0C_11clap_derive4attr8ClapAttrNtNtCs6IAuOt8vWmF_3syn5token5CommaEENCNvXs8_NtB2z_10punctuatedINtB3d_10PunctuatedB1M_B2v_ENtNtNtBa_6traits7collect12IntoIterator9into_iter0ENtNtB41_8iterator8Iterator4folduNCINvNvB4L_8for_each4callB1M_NCINvMsi_B12_INtB12_3VecB1M_E14extend_trustedBN_E0E0EB1Q_, symObjAddr: 0xA1C, symBinAddr: 0x62804, symSize: 0x4C }
  - { offset: 0xE23E4, size: 0x8, addend: 0x0, symName: __RNvXs0_NtNtNtCsfvfooZQ3Axs_4core4iter8adapters3mapINtB5_3MapINtNtB7_10skip_while9SkipWhileINtNtB7_10filter_map9FilterMapINtNtB7_6filter6FilterINtNtNtBb_5slice4iter4IterNtNtCs6IAuOt8vWmF_3syn4attr9AttributeENCNvNtNtCsjOBAykZTw0C_11clap_derive5utils12doc_comments19extract_doc_comment0ENCB3k_s_0ENCB3k_s0_0ENCB3k_s1_0ENtNtNtB9_6traits8iterator8Iterator4nextB3q_, symObjAddr: 0x2880, symBinAddr: 0x64668, symSize: 0xAC }
  - { offset: 0xE2456, size: 0x8, addend: 0x0, symName: __RNvXs0_NtNtNtCsfvfooZQ3Axs_4core4iter8adapters3mapINtB5_3MapINtNtB7_10skip_while9SkipWhileINtNtB7_10filter_map9FilterMapINtNtB7_6filter6FilterINtNtNtBb_5slice4iter4IterNtNtCs6IAuOt8vWmF_3syn4attr9AttributeENCNvNtNtCsjOBAykZTw0C_11clap_derive5utils12doc_comments19extract_doc_comment0ENCB3k_s_0ENCB3k_s0_0ENCB3k_s1_0ENtNtNtB9_6traits8iterator8Iterator9size_hintB3q_, symObjAddr: 0x292C, symBinAddr: 0x64714, symSize: 0x24 }
  - { offset: 0xE249D, size: 0x8, addend: 0x0, symName: __RNvXs0_NtNtNtCsfvfooZQ3Axs_4core4iter8adapters3mapINtB5_3MapINtNtCs6IAuOt8vWmF_3syn10punctuated4IterNtNtB11_4data5FieldENCNCNvNtNtCsjOBAykZTw0C_11clap_derive7derives10subcommand27gen_update_from_arg_matchess0_00ENtNtNtB9_6traits8iterator8Iterator4nextB24_, symObjAddr: 0x2950, symBinAddr: 0x64738, symSize: 0x74 }
  - { offset: 0xE2517, size: 0x8, addend: 0x0, symName: __RNvXs0_NtNtNtCsfvfooZQ3Axs_4core4iter8adapters3mapINtB5_3MapINtNtCs6IAuOt8vWmF_3syn10punctuated4IterNtNtB11_4data5FieldENCNCNvNtNtCsjOBAykZTw0C_11clap_derive7derives10subcommand27gen_update_from_arg_matchess0_00ENtNtNtB9_6traits8iterator8Iterator9size_hintB24_, symObjAddr: 0x29C4, symBinAddr: 0x647AC, symSize: 0x24 }
  - { offset: 0xE255E, size: 0x8, addend: 0x0, symName: __RNvXs0_NtNtNtCsfvfooZQ3Axs_4core4iter8adapters3mapINtB5_3MapINtNtCs6IAuOt8vWmF_3syn10punctuated4IterNtNtB11_4data5FieldENCNvNtNtCsjOBAykZTw0C_11clap_derive7derives4args11derive_args0ENtNtNtB9_6traits8iterator8Iterator9size_hintB22_, symObjAddr: 0x29E8, symBinAddr: 0x647D0, symSize: 0x24 }
  - { offset: 0xE25A5, size: 0x8, addend: 0x0, symName: __RNvXs0_NtNtNtCsfvfooZQ3Axs_4core4iter8adapters3mapINtB5_3MapINtNtCs6IAuOt8vWmF_3syn10punctuated4IterNtNtB11_4data5FieldENCNvNtNtCsjOBAykZTw0C_11clap_derive7derives4args19collect_args_fields0ENtNtNtB9_6traits8iterator8Iterator9size_hintB22_, symObjAddr: 0x2A0C, symBinAddr: 0x647F4, symSize: 0x24 }
  - { offset: 0xE25EC, size: 0x8, addend: 0x0, symName: __RNvXs0_NtNtNtCsfvfooZQ3Axs_4core4iter8adapters3mapINtB5_3MapINtNtCs6IAuOt8vWmF_3syn10punctuated4IterNtNtB11_4data5FieldENCNvNtNtCsjOBAykZTw0C_11clap_derive7derives6parser13derive_parser0ENtNtNtB9_6traits8iterator8Iterator9size_hintB22_, symObjAddr: 0x2A30, symBinAddr: 0x64818, symSize: 0x24 }
  - { offset: 0xE2633, size: 0x8, addend: 0x0, symName: __RNvXs0_NtNtNtCsfvfooZQ3Axs_4core4iter8adapters3mapINtB5_3MapINtNtCs6IAuOt8vWmF_3syn10punctuated4IterNtNtB11_4data7VariantENCNvNtNtCsjOBAykZTw0C_11clap_derive7derives10subcommand17derive_subcommand0ENtNtNtB9_6traits8iterator8Iterator9size_hintB24_, symObjAddr: 0x2A54, symBinAddr: 0x6483C, symSize: 0x24 }
  - { offset: 0xE267A, size: 0x8, addend: 0x0, symName: __RNvXs0_NtNtNtCsfvfooZQ3Axs_4core4iter8adapters3mapINtB5_3MapINtNtCs6IAuOt8vWmF_3syn10punctuated4IterNtNtB11_4data7VariantENCNvNtNtCsjOBAykZTw0C_11clap_derive7derives6parser13derive_parsers_0ENtNtNtB9_6traits8iterator8Iterator9size_hintB24_, symObjAddr: 0x2A78, symBinAddr: 0x64860, symSize: 0x24 }
  - { offset: 0xE26C1, size: 0x8, addend: 0x0, symName: __RNvXs0_NtNtNtCsfvfooZQ3Axs_4core4iter8adapters3mapINtB5_3MapINtNtNtBb_3str4iter5SplitcENCNCNvNtNtCsjOBAykZTw0C_11clap_derive5utils12doc_comments19extract_doc_comments1_00ENtNtNtB9_6traits8iterator8Iterator4nextB1x_, symObjAddr: 0x2A9C, symBinAddr: 0x64884, symSize: 0x9C }
  - { offset: 0xE273B, size: 0x8, addend: 0x0, symName: __RNvXs0_NtNtNtCsfvfooZQ3Axs_4core4iter8adapters3mapINtB5_3MapINtNtNtBb_3str4iter5SplitcENCNCNvNtNtCsjOBAykZTw0C_11clap_derive5utils12doc_comments19extract_doc_comments1_00ENtNtNtB9_6traits8iterator8Iterator9size_hintB1x_, symObjAddr: 0x2B38, symBinAddr: 0x64920, symSize: 0x24 }
  - { offset: 0xE2782, size: 0x8, addend: 0x0, symName: __RNvXs0_NtNtNtCsfvfooZQ3Axs_4core4iter8adapters3mapINtB5_3MapINtNtNtBb_5slice4iter4IterNtNtCse1nGBsou5OW_5alloc6string6StringENCINvNtNtCsjOBAykZTw0C_11clap_derive5utils12doc_comments11merge_linesRB1m_RSB1m_E0ENtNtNtB9_6traits8iterator8Iterator9size_hintB28_, symObjAddr: 0x2B5C, symBinAddr: 0x64944, symSize: 0x24 }
  - { offset: 0xE27C9, size: 0x8, addend: 0x0, symName: __RNvXs0_NtNtNtCsfvfooZQ3Axs_4core4iter8adapters3mapINtB5_3MapINtNtNtBb_5slice4iter4IterNtNtCsjOBAykZTw0C_11clap_derive4attr8AttrKindENCNvNtB1q_4item16assert_attr_kind0ENtNtNtB9_6traits8iterator8Iterator9size_hintB1q_, symObjAddr: 0x2B80, symBinAddr: 0x64968, symSize: 0x24 }
  - { offset: 0xE2810, size: 0x8, addend: 0x0, symName: __RNvXs0_NtNtNtCsfvfooZQ3Axs_4core4iter8adapters3mapINtB5_3MapINtNtNtBb_5slice4iter4IterTNtCs3cP53eQoTwO_11proc_macro211TokenStreamNtB1p_5IdentEENCNvNtNtCsjOBAykZTw0C_11clap_derive7derives10value_enum18gen_value_variants0ENtNtNtB9_6traits8iterator8Iterator9size_hintB2p_, symObjAddr: 0x2BA4, symBinAddr: 0x6498C, symSize: 0x24 }
  - { offset: 0xE2857, size: 0x8, addend: 0x0, symName: __RNvXs0_NtNtNtCsfvfooZQ3Axs_4core4iter8adapters3mapINtB5_3MapINtNtNtBb_5slice4iter4IterTRNtNtCs6IAuOt8vWmF_3syn4data5FieldNtNtCsjOBAykZTw0C_11clap_derive4item4ItemEENCNvNtNtB1Z_7derives4args15gen_constructor0ENtNtNtB9_6traits8iterator8Iterator9size_hintB1Z_, symObjAddr: 0x2BC8, symBinAddr: 0x649B0, symSize: 0x24 }
  - { offset: 0xE289E, size: 0x8, addend: 0x0, symName: __RNvXs0_NtNtNtCsfvfooZQ3Axs_4core4iter8adapters3mapINtB5_3MapINtNtNtBb_5slice4iter4IterTRRNtNtCs6IAuOt8vWmF_3syn4data7VariantRNtNtCsjOBAykZTw0C_11clap_derive4item4ItemEENCNvNtNtB23_7derives10subcommand18gen_has_subcommands0_0ENtNtNtB9_6traits8iterator8Iterator4nextB23_, symObjAddr: 0x2BEC, symBinAddr: 0x649D4, symSize: 0x90 }
  - { offset: 0xE2918, size: 0x8, addend: 0x0, symName: __RNvXs0_NtNtNtCsfvfooZQ3Axs_4core4iter8adapters3mapINtB5_3MapINtNtNtBb_5slice4iter4IterTRRNtNtCs6IAuOt8vWmF_3syn4data7VariantRNtNtCsjOBAykZTw0C_11clap_derive4item4ItemEENCNvNtNtB23_7derives10subcommand18gen_has_subcommands1_0ENtNtNtB9_6traits8iterator8Iterator9size_hintB23_, symObjAddr: 0x2C7C, symBinAddr: 0x64A64, symSize: 0x24 }
  - { offset: 0xE295F, size: 0x8, addend: 0x0, symName: __RNvXs0_NtNtNtCsfvfooZQ3Axs_4core4iter8adapters3mapINtB5_3MapINtNtNtBb_5slice4iter4IterTRRNtNtCs6IAuOt8vWmF_3syn4data7VariantRNtNtCsjOBAykZTw0C_11clap_derive4item4ItemEENCNvNtNtB23_7derives10subcommand20gen_from_arg_matches0ENtNtNtB9_6traits8iterator8Iterator9size_hintB23_, symObjAddr: 0x2CA0, symBinAddr: 0x64A88, symSize: 0x24 }
  - { offset: 0xE29A6, size: 0x8, addend: 0x0, symName: __RNvXs0_NtNtNtCsfvfooZQ3Axs_4core4iter8adapters3mapINtB5_3MapINtNtNtBb_5slice4iter4IterTRRNtNtCs6IAuOt8vWmF_3syn4data7VariantRNtNtCsjOBAykZTw0C_11clap_derive4item4ItemEENCNvNtNtB23_7derives10subcommand20gen_from_arg_matchess_0ENtNtNtB9_6traits8iterator8Iterator9size_hintB23_, symObjAddr: 0x2CC4, symBinAddr: 0x64AAC, symSize: 0x24 }
  - { offset: 0xE29ED, size: 0x8, addend: 0x0, symName: __RNvXs0_NtNtNtCsfvfooZQ3Axs_4core4iter8adapters3mapINtB5_3MapINtNtNtBb_5slice4iter4IterTRRNtNtCs6IAuOt8vWmF_3syn4data7VariantRNtNtCsjOBAykZTw0C_11clap_derive4item4ItemEENCNvNtNtB23_7derives10subcommand27gen_update_from_arg_matchess0_0ENtNtNtB9_6traits8iterator8Iterator9size_hintB23_, symObjAddr: 0x2CE8, symBinAddr: 0x64AD0, symSize: 0x24 }
  - { offset: 0xE2A34, size: 0x8, addend: 0x0, symName: __RNvXs0_NtNtNtCsfvfooZQ3Axs_4core4iter8adapters3mapINtB5_3MapINtNtNtBb_5slice4iter4IterTRRNtNtCs6IAuOt8vWmF_3syn4data7VariantRNtNtCsjOBAykZTw0C_11clap_derive4item4ItemEENCNvNtNtB23_7derives10subcommand27gen_update_from_arg_matchess1_0ENtNtNtB9_6traits8iterator8Iterator9size_hintB23_, symObjAddr: 0x2D0C, symBinAddr: 0x64AF4, symSize: 0x24 }
  - { offset: 0xE2A7B, size: 0x8, addend: 0x0, symName: __RNvXs0_NtNtNtCsfvfooZQ3Axs_4core4iter8adapters3mapINtB5_3MapINtNtNtBb_5slice4iter4IterhENCNvNtCse1nGBsou5OW_5alloc3str13replace_ascii0ENtNtNtB9_6traits8iterator8Iterator9size_hintCsjOBAykZTw0C_11clap_derive, symObjAddr: 0x2D30, symBinAddr: 0x64B18, symSize: 0x24 }
  - { offset: 0xE2AC2, size: 0x8, addend: 0x0, symName: __RNvXs0_NtNtNtCsfvfooZQ3Axs_4core4iter8adapters3mapINtB5_3MapINtNtNtCse1nGBsou5OW_5alloc3vec9into_iter8IntoIterTNtNtCs6IAuOt8vWmF_3syn4expr4ExprNtNtB1P_5token5CommaEENCNvXs8_NtB1P_10punctuatedINtB2L_10PunctuatedB1L_B2h_ENtNtNtB9_6traits7collect12IntoIterator9into_iter0ENtNtB3z_8iterator8Iterator9size_hintCsjOBAykZTw0C_11clap_derive, symObjAddr: 0x2D54, symBinAddr: 0x64B3C, symSize: 0x24 }
  - { offset: 0xE2B09, size: 0x8, addend: 0x0, symName: __RNvXs0_NtNtNtCsfvfooZQ3Axs_4core4iter8adapters3mapINtB5_3MapINtNtNtCse1nGBsou5OW_5alloc3vec9into_iter8IntoIterTNtNtCsjOBAykZTw0C_11clap_derive4attr8ClapAttrNtNtCs6IAuOt8vWmF_3syn5token5CommaEENCNvXs8_NtB2y_10punctuatedINtB3c_10PunctuatedB1L_B2u_ENtNtNtB9_6traits7collect12IntoIterator9into_iter0ENtNtB40_8iterator8Iterator9size_hintB1P_, symObjAddr: 0x2D78, symBinAddr: 0x64B60, symSize: 0x24 }
  - { offset: 0xE2DD2, size: 0x8, addend: 0x0, symName: __RNCINvNtNtNtCsfvfooZQ3Axs_4core4iter8adapters3map8map_foldRNtNtCse1nGBsou5OW_5alloc6string6StringBV_uNCINvNtNtCsjOBAykZTw0C_11clap_derive5utils12doc_comments11merge_linesBU_RSBV_E0NCINvNvNtNtNtB8_6traits8iterator8Iterator8for_each4callBV_NCINvMsi_NtBZ_3vecINtB3X_3VecBV_E14extend_trustedINtB4_3MapINtNtNtBa_5slice4iter4IterBV_EB1B_EE0E0E0B1K_, symObjAddr: 0x15B4, symBinAddr: 0x6339C, symSize: 0x8C }
  - { offset: 0xE2E57, size: 0x8, addend: 0x0, symName: __RNCINvNtNtNtCsfvfooZQ3Axs_4core4iter8adapters3map8map_foldRNtNtCsjOBAykZTw0C_11clap_derive4attr8AttrKindNtNtCse1nGBsou5OW_5alloc6string6StringuNCNvNtBZ_4item16assert_attr_kind0NCINvNvNtNtNtB8_6traits8iterator8Iterator8for_each4callB1E_NCINvMsi_NtB1I_3vecINtB3U_3VecB1E_E14extend_trustedINtB4_3MapINtNtNtBa_5slice4iter4IterBV_EB2h_EE0E0E0BZ_, symObjAddr: 0x1640, symBinAddr: 0x63428, symSize: 0x8C }
  - { offset: 0xE2EDC, size: 0x8, addend: 0x0, symName: __RNCINvNtNtNtCsfvfooZQ3Axs_4core4iter8adapters3map8map_foldRTNtCs3cP53eQoTwO_11proc_macro211TokenStreamNtBY_5IdentEBV_uNvYBV_NtNtBa_5clone5Clone5cloneNCINvNvNtNtB8_6traits7collect22default_extend_tuple_b6extendBW_B1C_INtNtCse1nGBsou5OW_5alloc3vec3VecBW_EIB3t_B1C_EE0E0CsjOBAykZTw0C_11clap_derive, symObjAddr: 0x16CC, symBinAddr: 0x634B4, symSize: 0x94 }
  - { offset: 0xE2F61, size: 0x8, addend: 0x0, symName: __RNCINvNtNtNtCsfvfooZQ3Axs_4core4iter8adapters3map8map_foldRTNtCs3cP53eQoTwO_11proc_macro211TokenStreamNtBY_5IdentEBV_uNvYBV_NtNtBa_5clone5Clone5cloneNCINvNvXs6_NtNtB8_6traits7collectpINtB2y_6TraitBppE6extend6extendBW_B1C_INtNtCse1nGBsou5OW_5alloc3vec3VecBW_EIB3y_B1C_EE0E0CsjOBAykZTw0C_11clap_derive, symObjAddr: 0x1760, symBinAddr: 0x63548, symSize: 0x94 }
  - { offset: 0xE2FE6, size: 0x8, addend: 0x0, symName: __RNCINvNtNtNtCsfvfooZQ3Axs_4core4iter8adapters3map8map_foldRTNtCs3cP53eQoTwO_11proc_macro211TokenStreamNtBY_5IdentERB1C_uNCNvNtNtCsjOBAykZTw0C_11clap_derive7derives10value_enum18gen_value_variants0NCINvNvNtNtNtB8_6traits8iterator8Iterator8for_each4callB1O_NCINvMsi_NtCse1nGBsou5OW_5alloc3vecINtB4e_3VecB1O_E14extend_trustedINtB4_3MapINtNtNtBa_5slice4iter4IterBV_EB1U_EE0E0E0B22_, symObjAddr: 0x17F4, symBinAddr: 0x635DC, symSize: 0x7C }
  - { offset: 0xE306B, size: 0x8, addend: 0x0, symName: __RNCINvNtNtNtCsfvfooZQ3Axs_4core4iter8adapters3map8map_foldRTRNtNtCs6IAuOt8vWmF_3syn4data5FieldNtNtCsjOBAykZTw0C_11clap_derive4item4ItemEjjNCINvNvXs1_NtB6_6filterINtB2n_6FilterppENtNtNtB8_6traits8iterator8Iterator5count8to_usizeBU_NCNvNtNtB1y_7derives4args11gen_augments_0E0NCINvXsK_NtB2U_5accumjNtB4w_3Sum3sumINtB4_3MapINtNtNtBa_5slice4iter4IterBV_EB2c_EE0E0B1y_, symObjAddr: 0x1870, symBinAddr: 0x63658, symSize: 0x98 }
  - { offset: 0xE30F2, size: 0x8, addend: 0x0, symName: __RNCINvNtNtNtCsfvfooZQ3Axs_4core4iter8adapters3map8map_foldRhhuNCNvNtCse1nGBsou5OW_5alloc3str13replace_ascii0NCINvNvNtNtNtB8_6traits8iterator8Iterator8for_each4callhNCINvMsi_NtB14_3vecINtB2L_3VechE14extend_trustedINtB4_3MapINtNtNtBa_5slice4iter4IterhEBY_EE0E0E0CsjOBAykZTw0C_11clap_derive, symObjAddr: 0x1908, symBinAddr: 0x636F0, symSize: 0x7C }
  - { offset: 0xE3177, size: 0x8, addend: 0x0, symName: __RNCINvNtNtNtCsfvfooZQ3Axs_4core4iter8adapters3map8map_foldTNtNtCs6IAuOt8vWmF_3syn4expr4ExprNtNtBZ_5token5CommaEBV_uNCNvXs8_NtBZ_10punctuatedINtB1X_10PunctuatedBV_B1r_ENtNtNtB8_6traits7collect12IntoIterator9into_iter0NCINvNvNtNtB2J_8iterator8Iterator8for_each4callBV_NCINvMsi_NtCse1nGBsou5OW_5alloc3vecINtB4p_3VecBV_E14extend_trustedINtB4_3MapINtNtB4p_9into_iter8IntoIterBU_EB1P_EE0E0E0CsjOBAykZTw0C_11clap_derive, symObjAddr: 0x1984, symBinAddr: 0x6376C, symSize: 0xB0 }
  - { offset: 0xE31FD, size: 0x8, addend: 0x0, symName: __RNCINvNtNtNtCsfvfooZQ3Axs_4core4iter8adapters3map8map_foldTNtNtCsjOBAykZTw0C_11clap_derive4attr8ClapAttrNtNtCs6IAuOt8vWmF_3syn5token5CommaEBV_uNCNvXs8_NtB1I_10punctuatedINtB2p_10PunctuatedBV_B1E_ENtNtNtB8_6traits7collect12IntoIterator9into_iter0NCINvNvNtNtB3c_8iterator8Iterator8for_each4callBV_NCINvMsi_NtCse1nGBsou5OW_5alloc3vecINtB4S_3VecBV_E14extend_trustedINtB4_3MapINtNtB4S_9into_iter8IntoIterBU_EB2h_EE0E0E0BZ_, symObjAddr: 0x1A34, symBinAddr: 0x6381C, symSize: 0xB0 }
  - { offset: 0xE3DCB, size: 0x8, addend: 0x0, symName: __RNCINvNvNtNtNtNtCsfvfooZQ3Axs_4core4iter6traits8iterator8Iterator12try_for_each4callNtCs3cP53eQoTwO_11proc_macro211TokenStreamINtNtNtBe_3ops12control_flow11ControlFlowB1k_ENcNtB20_5Break0E0CsjOBAykZTw0C_11clap_derive, symObjAddr: 0x1AE4, symBinAddr: 0x638CC, symSize: 0x3C }
  - { offset: 0xE3E31, size: 0x8, addend: 0x0, symName: __RNCINvNvNtNtNtNtCsfvfooZQ3Axs_4core4iter6traits8iterator8Iterator12try_for_each4callTRNtNtCs6IAuOt8vWmF_3syn4data5FieldNtNtCsjOBAykZTw0C_11clap_derive4item4ItemEINtNtNtBe_3ops12control_flow11ControlFlowB1k_ENcNtB2z_5Break0E0B1X_, symObjAddr: 0x1B20, symBinAddr: 0x63908, symSize: 0x50 }
  - { offset: 0xE3E97, size: 0x8, addend: 0x0, symName: __RNCINvNvNtNtNtNtCsfvfooZQ3Axs_4core4iter6traits8iterator8Iterator12try_for_each4callTRNtNtCs6IAuOt8vWmF_3syn4data7VariantNtNtCsjOBAykZTw0C_11clap_derive4item4ItemEINtNtNtBe_3ops12control_flow11ControlFlowB1k_ENcNtB2B_5Break0E0B1Z_, symObjAddr: 0x1B70, symBinAddr: 0x63958, symSize: 0x50 }
  - { offset: 0xE3F7B, size: 0x8, addend: 0x0, symName: __RNCINvNvNtNtNtNtCsfvfooZQ3Axs_4core4iter6traits8iterator8Iterator8for_each4callNtNtCs6IAuOt8vWmF_3syn4expr4ExprNCINvMsi_NtCse1nGBsou5OW_5alloc3vecINtB1U_3VecB1f_E14extend_trustedINtNtBe_6option8IntoIterB1f_EE0E0CsjOBAykZTw0C_11clap_derive, symObjAddr: 0x1C6C, symBinAddr: 0x63A54, symSize: 0x40 }
  - { offset: 0xE3FD4, size: 0x8, addend: 0x0, symName: __RNCINvNvNtNtNtNtCsfvfooZQ3Axs_4core4iter6traits8iterator8Iterator8for_each4callNtNtCs6IAuOt8vWmF_3syn4expr4ExprNCINvMsi_NtCse1nGBsou5OW_5alloc3vecINtB1U_3VecB1f_E14extend_trustedINtNtNtBc_8adapters3map3MapINtNtB1U_9into_iter8IntoIterTB1f_NtNtB1j_5token5CommaEENCNvXs8_NtB1j_10punctuatedINtB4i_10PunctuatedB1f_B3O_ENtNtBa_7collect12IntoIterator9into_iter0EE0E0CsjOBAykZTw0C_11clap_derive, symObjAddr: 0x1CAC, symBinAddr: 0x63A94, symSize: 0x40 }
  - { offset: 0xE402D, size: 0x8, addend: 0x0, symName: __RNCINvNvNtNtNtNtCsfvfooZQ3Axs_4core4iter6traits8iterator8Iterator8for_each4callNtNtCse1nGBsou5OW_5alloc6string6StringNCINvMsi_NtB1j_3vecINtB20_3VecB1f_E14extend_trustedINtNtNtBc_8adapters3map3MapINtNtNtBe_5slice4iter4IterB1f_ENCINvNtNtCsjOBAykZTw0C_11clap_derive5utils12doc_comments11merge_linesRB1f_RSB1f_E0EE0E0B3L_, symObjAddr: 0x1CEC, symBinAddr: 0x63AD4, symSize: 0x3C }
  - { offset: 0xE4086, size: 0x8, addend: 0x0, symName: __RNCINvNvNtNtNtNtCsfvfooZQ3Axs_4core4iter6traits8iterator8Iterator8for_each4callNtNtCse1nGBsou5OW_5alloc6string6StringNCINvMsi_NtB1j_3vecINtB20_3VecB1f_E14extend_trustedINtNtNtBc_8adapters3map3MapINtNtNtBe_5slice4iter4IterNtNtCsjOBAykZTw0C_11clap_derive4attr8AttrKindENCNvNtB3B_4item16assert_attr_kind0EE0E0B3B_, symObjAddr: 0x1D28, symBinAddr: 0x63B10, symSize: 0x3C }
  - { offset: 0xE40DF, size: 0x8, addend: 0x0, symName: __RNCINvNvNtNtNtNtCsfvfooZQ3Axs_4core4iter6traits8iterator8Iterator8for_each4callNtNtCsjOBAykZTw0C_11clap_derive4attr8ClapAttrNCINvMsi_NtCse1nGBsou5OW_5alloc3vecINtB27_3VecB1f_E14extend_trustedINtNtBe_6option8IntoIterB1f_EE0E0B1j_, symObjAddr: 0x1D64, symBinAddr: 0x63B4C, symSize: 0x48 }
  - { offset: 0xE4138, size: 0x8, addend: 0x0, symName: __RNCINvNvNtNtNtNtCsfvfooZQ3Axs_4core4iter6traits8iterator8Iterator8for_each4callNtNtCsjOBAykZTw0C_11clap_derive4attr8ClapAttrNCINvMsi_NtCse1nGBsou5OW_5alloc3vecINtB27_3VecB1f_E14extend_trustedINtNtNtBc_8adapters3map3MapINtNtB27_9into_iter8IntoIterTB1f_NtNtCs6IAuOt8vWmF_3syn5token5CommaEENCNvXs8_NtB45_10punctuatedINtB4J_10PunctuatedB1f_B41_ENtNtBa_7collect12IntoIterator9into_iter0EE0E0B1j_, symObjAddr: 0x1DAC, symBinAddr: 0x63B94, symSize: 0x48 }
  - { offset: 0xE4191, size: 0x8, addend: 0x0, symName: __RNCINvNvNtNtNtNtCsfvfooZQ3Axs_4core4iter6traits8iterator8Iterator8for_each4callRNtCs3cP53eQoTwO_11proc_macro25IdentNCINvMsi_NtCse1nGBsou5OW_5alloc3vecINtB1Y_3VecB1f_E14extend_trustedINtNtNtBc_8adapters3map3MapINtNtNtBe_5slice4iter4IterTNtB1i_11TokenStreamB1g_EENCNvNtNtCsjOBAykZTw0C_11clap_derive7derives10value_enum18gen_value_variants0EE0E0B4j_, symObjAddr: 0x1DF4, symBinAddr: 0x63BDC, symSize: 0x2C }
  - { offset: 0xE41E9, size: 0x8, addend: 0x0, symName: __RNCINvNvNtNtNtNtCsfvfooZQ3Axs_4core4iter6traits8iterator8Iterator8for_each4callhNCINvMsi_NtCse1nGBsou5OW_5alloc3vecINtB1p_3VechE14extend_trustedINtNtNtBc_8adapters3map3MapINtNtNtBe_5slice4iter4IterhENCNvNtB1r_3str13replace_ascii0EE0E0CsjOBAykZTw0C_11clap_derive, symObjAddr: 0x1E20, symBinAddr: 0x63C08, symSize: 0x28 }
  - { offset: 0xE4363, size: 0x8, addend: 0x0, symName: __RINvYINtNtNtNtCsfvfooZQ3Axs_4core4iter7sources7from_fn6FromFnNCNvNtNtCsjOBAykZTw0C_11clap_derive5utils12doc_comments16split_paragraphs0ENtNtNtBa_6traits8iterator8Iterator7collectINtNtCse1nGBsou5OW_5alloc3vec3VecNtNtB2V_6string6StringEEB15_, symObjAddr: 0xA68, symBinAddr: 0x62850, symSize: 0x1C }
  - { offset: 0xE43A4, size: 0x8, addend: 0x0, symName: __RINvYINtNtNtNtCsfvfooZQ3Axs_4core4iter8adapters3map3MapINtNtCs6IAuOt8vWmF_3syn10punctuated4IterNtNtBW_4data5FieldENCNCNvNtNtCsjOBAykZTw0C_11clap_derive7derives10subcommand27gen_update_from_arg_matchess0_00ENtNtNtBa_6traits8iterator8Iterator7collectINtNtCse1nGBsou5OW_5alloc3vec3VecRNtCs3cP53eQoTwO_11proc_macro25IdentEEB1Y_, symObjAddr: 0xA84, symBinAddr: 0x6286C, symSize: 0x34 }
  - { offset: 0xE43E4, size: 0x8, addend: 0x0, symName: __RINvYINtNtNtNtCsfvfooZQ3Axs_4core4iter8adapters3map3MapINtNtCs6IAuOt8vWmF_3syn10punctuated4IterNtNtBW_4data5FieldENCNvNtNtCsjOBAykZTw0C_11clap_derive7derives4args11derive_args0ENtNtNtBa_6traits8iterator8Iterator7collectINtNtBc_6result6ResultINtNtCse1nGBsou5OW_5alloc3vec3VecTRB1v_NtNtB1W_4item4ItemEENtNtBW_5error5ErrorEEB1W_, symObjAddr: 0xAB8, symBinAddr: 0x628A0, symSize: 0x14 }
  - { offset: 0xE4425, size: 0x8, addend: 0x0, symName: __RINvYINtNtNtNtCsfvfooZQ3Axs_4core4iter8adapters3map3MapINtNtCs6IAuOt8vWmF_3syn10punctuated4IterNtNtBW_4data5FieldENCNvNtNtCsjOBAykZTw0C_11clap_derive7derives4args19collect_args_fields0ENtNtNtBa_6traits8iterator8Iterator7collectINtNtBc_6result6ResultINtNtCse1nGBsou5OW_5alloc3vec3VecTRB1v_NtNtB1W_4item4ItemEENtNtBW_5error5ErrorEEB1W_, symObjAddr: 0xACC, symBinAddr: 0x628B4, symSize: 0x14 }
  - { offset: 0xE4466, size: 0x8, addend: 0x0, symName: __RINvYINtNtNtNtCsfvfooZQ3Axs_4core4iter8adapters3map3MapINtNtCs6IAuOt8vWmF_3syn10punctuated4IterNtNtBW_4data5FieldENCNvNtNtCsjOBAykZTw0C_11clap_derive7derives6parser13derive_parser0ENtNtNtBa_6traits8iterator8Iterator7collectINtNtBc_6result6ResultINtNtCse1nGBsou5OW_5alloc3vec3VecTRB1v_NtNtB1W_4item4ItemEENtNtBW_5error5ErrorEEB1W_, symObjAddr: 0xAE0, symBinAddr: 0x628C8, symSize: 0x14 }
  - { offset: 0xE44A7, size: 0x8, addend: 0x0, symName: __RINvYINtNtNtNtCsfvfooZQ3Axs_4core4iter8adapters3map3MapINtNtCs6IAuOt8vWmF_3syn10punctuated4IterNtNtBW_4data7VariantENCNvNtNtCsjOBAykZTw0C_11clap_derive7derives10subcommand17derive_subcommand0ENtNtNtBa_6traits8iterator8Iterator7collectINtNtBc_6result6ResultINtNtCse1nGBsou5OW_5alloc3vec3VecTRB1v_NtNtB1Y_4item4ItemEENtNtBW_5error5ErrorEEB1Y_, symObjAddr: 0xAF4, symBinAddr: 0x628DC, symSize: 0x14 }
  - { offset: 0xE44E8, size: 0x8, addend: 0x0, symName: __RINvYINtNtNtNtCsfvfooZQ3Axs_4core4iter8adapters3map3MapINtNtCs6IAuOt8vWmF_3syn10punctuated4IterNtNtBW_4data7VariantENCNvNtNtCsjOBAykZTw0C_11clap_derive7derives6parser13derive_parsers_0ENtNtNtBa_6traits8iterator8Iterator7collectINtNtBc_6result6ResultINtNtCse1nGBsou5OW_5alloc3vec3VecTRB1v_NtNtB1Y_4item4ItemEENtNtBW_5error5ErrorEEB1Y_, symObjAddr: 0xB08, symBinAddr: 0x628F0, symSize: 0x14 }
  - { offset: 0xE4529, size: 0x8, addend: 0x0, symName: __RINvYINtNtNtNtCsfvfooZQ3Axs_4core4iter8adapters3map3MapINtNtNtBc_3str4iter5SplitcENCNCNvNtNtCsjOBAykZTw0C_11clap_derive5utils12doc_comments19extract_doc_comments1_00ENtNtNtBa_6traits8iterator8Iterator7collectINtNtCse1nGBsou5OW_5alloc3vec3VecNtNtB3p_6string6StringEEB1s_, symObjAddr: 0xB1C, symBinAddr: 0x62904, symSize: 0x1C }
  - { offset: 0xE456A, size: 0x8, addend: 0x0, symName: __RINvYINtNtNtNtCsfvfooZQ3Axs_4core4iter8adapters3map3MapINtNtNtBc_5slice4iter4IterNtNtCse1nGBsou5OW_5alloc6string6StringENCINvNtNtCsjOBAykZTw0C_11clap_derive5utils12doc_comments11merge_linesRB1h_RSB1h_E0ENtNtNtBa_6traits8iterator8Iterator7collectINtNtB1l_3vec3VecB1h_EEB23_, symObjAddr: 0xB38, symBinAddr: 0x62920, symSize: 0x34 }
  - { offset: 0xE45AA, size: 0x8, addend: 0x0, symName: __RINvYINtNtNtNtCsfvfooZQ3Axs_4core4iter8adapters3map3MapINtNtNtBc_5slice4iter4IterNtNtCse1nGBsou5OW_5alloc6string6StringENCINvNtNtCsjOBAykZTw0C_11clap_derive5utils12doc_comments11merge_linesRB1h_RSB1h_E0ENtNtNtBa_6traits8iterator8Iterator8for_eachNCINvMsi_NtB1l_3vecINtB45_3VecB1h_E14extend_trustedB3_E0EB23_, symObjAddr: 0xB6C, symBinAddr: 0x62954, symSize: 0x44 }
  - { offset: 0xE4615, size: 0x8, addend: 0x0, symName: __RINvYINtNtNtNtCsfvfooZQ3Axs_4core4iter8adapters3map3MapINtNtNtBc_5slice4iter4IterNtNtCsjOBAykZTw0C_11clap_derive4attr8AttrKindENCNvNtB1l_4item16assert_attr_kind0ENtNtNtBa_6traits8iterator8Iterator7collectINtNtCse1nGBsou5OW_5alloc3vec3VecNtNtB3l_6string6StringEEB1l_, symObjAddr: 0xBB0, symBinAddr: 0x62998, symSize: 0x1C }
  - { offset: 0xE4656, size: 0x8, addend: 0x0, symName: __RINvYINtNtNtNtCsfvfooZQ3Axs_4core4iter8adapters3map3MapINtNtNtBc_5slice4iter4IterNtNtCsjOBAykZTw0C_11clap_derive4attr8AttrKindENCNvNtB1l_4item16assert_attr_kind0ENtNtNtBa_6traits8iterator8Iterator8for_eachNCINvMsi_NtCse1nGBsou5OW_5alloc3vecINtB3q_3VecNtNtB3s_6string6StringE14extend_trustedB3_E0EB1l_, symObjAddr: 0xBCC, symBinAddr: 0x629B4, symSize: 0x34 }
  - { offset: 0xE46C2, size: 0x8, addend: 0x0, symName: __RINvYINtNtNtNtCsfvfooZQ3Axs_4core4iter8adapters3map3MapINtNtNtBc_5slice4iter4IterTNtCs3cP53eQoTwO_11proc_macro211TokenStreamNtB1k_5IdentEENCNvNtNtCsjOBAykZTw0C_11clap_derive7derives10value_enum18gen_value_variants0ENtNtNtBa_6traits8iterator8Iterator7collectINtNtCse1nGBsou5OW_5alloc3vec3VecRB1Y_EEB2k_, symObjAddr: 0xC00, symBinAddr: 0x629E8, symSize: 0x34 }
  - { offset: 0xE4702, size: 0x8, addend: 0x0, symName: __RINvYINtNtNtNtCsfvfooZQ3Axs_4core4iter8adapters3map3MapINtNtNtBc_5slice4iter4IterTNtCs3cP53eQoTwO_11proc_macro211TokenStreamNtB1k_5IdentEENCNvNtNtCsjOBAykZTw0C_11clap_derive7derives10value_enum18gen_value_variants0ENtNtNtBa_6traits8iterator8Iterator8for_eachNCINvMsi_NtCse1nGBsou5OW_5alloc3vecINtB4h_3VecRB1Y_E14extend_trustedB3_E0EB2k_, symObjAddr: 0xC34, symBinAddr: 0x62A1C, symSize: 0x44 }
  - { offset: 0xE476D, size: 0x8, addend: 0x0, symName: __RINvYINtNtNtNtCsfvfooZQ3Axs_4core4iter8adapters3map3MapINtNtNtBc_5slice4iter4IterTRNtNtCs6IAuOt8vWmF_3syn4data5FieldNtNtCsjOBAykZTw0C_11clap_derive4item4ItemEENCNvNtNtB1U_7derives4args15gen_constructor0ENtNtNtBa_6traits8iterator8Iterator7collectINtNtBc_6result6ResultINtNtCse1nGBsou5OW_5alloc3vec3VecNtCs3cP53eQoTwO_11proc_macro211TokenStreamENtNtB1n_5error5ErrorEEB1U_, symObjAddr: 0xC78, symBinAddr: 0x62A60, symSize: 0x2C }
  - { offset: 0xE47AD, size: 0x8, addend: 0x0, symName: __RINvYINtNtNtNtCsfvfooZQ3Axs_4core4iter8adapters3map3MapINtNtNtBc_5slice4iter4IterTRRNtNtCs6IAuOt8vWmF_3syn4data7VariantRNtNtCsjOBAykZTw0C_11clap_derive4item4ItemEENCNvNtNtB1Y_7derives10subcommand18gen_has_subcommands1_0ENtNtNtBa_6traits8iterator8Iterator7collectINtNtBc_6result6ResultINtNtCse1nGBsou5OW_5alloc3vec3VecNtCs3cP53eQoTwO_11proc_macro211TokenStreamENtNtB1o_5error5ErrorEEB1Y_, symObjAddr: 0xCA4, symBinAddr: 0x62A8C, symSize: 0x2C }
  - { offset: 0xE47ED, size: 0x8, addend: 0x0, symName: __RINvYINtNtNtNtCsfvfooZQ3Axs_4core4iter8adapters3map3MapINtNtNtBc_5slice4iter4IterTRRNtNtCs6IAuOt8vWmF_3syn4data7VariantRNtNtCsjOBAykZTw0C_11clap_derive4item4ItemEENCNvNtNtB1Y_7derives10subcommand20gen_from_arg_matches0ENtNtNtBa_6traits8iterator8Iterator7collectINtNtBc_6result6ResultINtNtCse1nGBsou5OW_5alloc3vec3VecNtCs3cP53eQoTwO_11proc_macro211TokenStreamENtNtB1o_5error5ErrorEEB1Y_, symObjAddr: 0xCD0, symBinAddr: 0x62AB8, symSize: 0x14 }
  - { offset: 0xE482E, size: 0x8, addend: 0x0, symName: __RINvYINtNtNtNtCsfvfooZQ3Axs_4core4iter8adapters3map3MapINtNtNtBc_5slice4iter4IterTRRNtNtCs6IAuOt8vWmF_3syn4data7VariantRNtNtCsjOBAykZTw0C_11clap_derive4item4ItemEENCNvNtNtB1Y_7derives10subcommand20gen_from_arg_matchess_0ENtNtNtBa_6traits8iterator8Iterator7collectINtNtBc_6result6ResultINtNtCse1nGBsou5OW_5alloc3vec3VecNtCs3cP53eQoTwO_11proc_macro211TokenStreamENtNtB1o_5error5ErrorEEB1Y_, symObjAddr: 0xCE4, symBinAddr: 0x62ACC, symSize: 0x2C }
  - { offset: 0xE486E, size: 0x8, addend: 0x0, symName: __RINvYINtNtNtNtCsfvfooZQ3Axs_4core4iter8adapters3map3MapINtNtNtBc_5slice4iter4IterTRRNtNtCs6IAuOt8vWmF_3syn4data7VariantRNtNtCsjOBAykZTw0C_11clap_derive4item4ItemEENCNvNtNtB1Y_7derives10subcommand27gen_update_from_arg_matchess0_0ENtNtNtBa_6traits8iterator8Iterator7collectINtNtBc_6result6ResultINtNtCse1nGBsou5OW_5alloc3vec3VecNtCs3cP53eQoTwO_11proc_macro211TokenStreamENtNtB1o_5error5ErrorEEB1Y_, symObjAddr: 0xD10, symBinAddr: 0x62AF8, symSize: 0x2C }
  - { offset: 0xE48AE, size: 0x8, addend: 0x0, symName: __RINvYINtNtNtNtCsfvfooZQ3Axs_4core4iter8adapters3map3MapINtNtNtBc_5slice4iter4IterTRRNtNtCs6IAuOt8vWmF_3syn4data7VariantRNtNtCsjOBAykZTw0C_11clap_derive4item4ItemEENCNvNtNtB1Y_7derives10subcommand27gen_update_from_arg_matchess1_0ENtNtNtBa_6traits8iterator8Iterator7collectINtNtBc_6result6ResultINtNtCse1nGBsou5OW_5alloc3vec3VecNtCs3cP53eQoTwO_11proc_macro211TokenStreamENtNtB1o_5error5ErrorEEB1Y_, symObjAddr: 0xD3C, symBinAddr: 0x62B24, symSize: 0x2C }
  - { offset: 0xE48EE, size: 0x8, addend: 0x0, symName: __RINvYINtNtNtNtCsfvfooZQ3Axs_4core4iter8adapters3map3MapINtNtNtBc_5slice4iter4IterhENCNvNtCse1nGBsou5OW_5alloc3str13replace_ascii0ENtNtNtBa_6traits8iterator8Iterator8for_eachNCINvMsi_NtB1p_3vecINtB2U_3VechE14extend_trustedB3_E0ECsjOBAykZTw0C_11clap_derive, symObjAddr: 0xD68, symBinAddr: 0x62B50, symSize: 0x34 }
  - { offset: 0xE495A, size: 0x8, addend: 0x0, symName: __RINvYINtNtNtNtCsfvfooZQ3Axs_4core4iter8adapters3map3MapINtNtNtCse1nGBsou5OW_5alloc3vec9into_iter8IntoIterTNtNtCs6IAuOt8vWmF_3syn4expr4ExprNtNtB1K_5token5CommaEENCNvXs8_NtB1K_10punctuatedINtB2G_10PunctuatedB1G_B2c_ENtNtNtBa_6traits7collect12IntoIterator9into_iter0ENtNtB3u_8iterator8Iterator8for_eachNCINvMsi_BW_INtBW_3VecB1G_E14extend_trustedB3_E0ECsjOBAykZTw0C_11clap_derive, symObjAddr: 0xD9C, symBinAddr: 0x62B84, symSize: 0x34 }
  - { offset: 0xE49C6, size: 0x8, addend: 0x0, symName: __RINvYINtNtNtNtCsfvfooZQ3Axs_4core4iter8adapters3map3MapINtNtNtCse1nGBsou5OW_5alloc3vec9into_iter8IntoIterTNtNtCsjOBAykZTw0C_11clap_derive4attr8ClapAttrNtNtCs6IAuOt8vWmF_3syn5token5CommaEENCNvXs8_NtB2t_10punctuatedINtB37_10PunctuatedB1G_B2p_ENtNtNtBa_6traits7collect12IntoIterator9into_iter0ENtNtB3V_8iterator8Iterator8for_eachNCINvMsi_BW_INtBW_3VecB1G_E14extend_trustedB3_E0EB1K_, symObjAddr: 0xDD0, symBinAddr: 0x62BB8, symSize: 0x34 }
  - { offset: 0xE4A32, size: 0x8, addend: 0x0, symName: __RINvYINtNtNtNtCsfvfooZQ3Axs_4core4iter8adapters7flatten7FlatMapINtNtB8_10skip_while9SkipWhileINtNtB8_10filter_map9FilterMapINtNtB8_6filter6FilterINtNtNtBc_5slice4iter4IterNtNtCs6IAuOt8vWmF_3syn4attr9AttributeENCNvNtNtCsjOBAykZTw0C_11clap_derive5utils12doc_comments19extract_doc_comment0ENCB3n_s_0ENCB3n_s0_0EINtNtCse1nGBsou5OW_5alloc3vec3VecNtNtB51_6string6StringENCB3n_s1_0ENtNtNtBa_6traits8iterator8Iterator7collectB4W_EB3t_, symObjAddr: 0xE04, symBinAddr: 0x62BEC, symSize: 0x1C }
  - { offset: 0xE4A7D, size: 0x8, addend: 0x0, symName: __RNCINvNvNtNtNtNtCsfvfooZQ3Axs_4core4iter6traits8iterator8Iterator4find5checkNtNtCse1nGBsou5OW_5alloc6string6StringNCINvNvXs0_NtNtBc_8adapters10skip_whileINtB1Z_9SkipWhileppEB6_4next5checkB1c_NCNvNtNtCsjOBAykZTw0C_11clap_derive5utils12doc_comments19extract_doc_comments0_0E0E0B3b_, symObjAddr: 0x1BC0, symBinAddr: 0x639A8, symSize: 0xAC }
  - { offset: 0xE4AE6, size: 0x8, addend: 0x0, symName: __RNCINvNvNtNtNtNtCsfvfooZQ3Axs_4core4iter6traits8iterator8Iterator9partition6extendTRRNtNtCs6IAuOt8vWmF_3syn4data7VariantRNtNtCsjOBAykZTw0C_11clap_derive4item4ItemEINtNtCse1nGBsou5OW_5alloc3vec3VecB1i_ENCNvNtNtB1Z_7derives10subcommand18gen_has_subcommands_0E0B1Z_, symObjAddr: 0x1E48, symBinAddr: 0x63C30, symSize: 0xD0 }
  - { offset: 0xE4B6D, size: 0x8, addend: 0x0, symName: __RNCINvNvNtNtNtNtCsfvfooZQ3Axs_4core4iter6traits8iterator8Iterator9partition6extendTRRNtNtCs6IAuOt8vWmF_3syn4data7VariantRNtNtCsjOBAykZTw0C_11clap_derive4item4ItemEINtNtCse1nGBsou5OW_5alloc3vec3VecB1i_ENCNvNtNtB1Z_7derives10subcommand27gen_update_from_arg_matchess_0E0B1Z_, symObjAddr: 0x1F18, symBinAddr: 0x63D00, symSize: 0xD0 }
  - { offset: 0xE4BF6, size: 0x8, addend: 0x0, symName: __RNvYINtNtNtNtCsfvfooZQ3Axs_4core4iter7sources7from_fn6FromFnNCNvNtNtCsjOBAykZTw0C_11clap_derive5utils12doc_comments16split_paragraphs0ENtNtNtB9_6traits8iterator8Iterator9size_hintB14_, symObjAddr: 0x3B6C, symBinAddr: 0x65954, symSize: 0x34 }
  - { offset: 0xE4C37, size: 0x8, addend: 0x0, symName: __RNvXNtNtNtCsfvfooZQ3Axs_4core4iter6traits7collectINtNtNtB6_7sources7from_fn6FromFnNCNvNtNtCsjOBAykZTw0C_11clap_derive5utils12doc_comments16split_paragraphs0ENtB2_12IntoIterator9into_iterB1q_, symObjAddr: 0x2638, symBinAddr: 0x64420, symSize: 0x18 }
  - { offset: 0xE4C6E, size: 0x8, addend: 0x0, symName: __RNvXNtNtNtCsfvfooZQ3Axs_4core4iter6traits7collectINtNtNtB6_8adapters3map3MapINtNtCs6IAuOt8vWmF_3syn10punctuated4IterNtNtB1h_4data5FieldENCNCNvNtNtCsjOBAykZTw0C_11clap_derive7derives10subcommand27gen_update_from_arg_matchess0_00ENtB2_12IntoIterator9into_iterB2k_, symObjAddr: 0x2650, symBinAddr: 0x64438, symSize: 0x1C }
  - { offset: 0xE4CA5, size: 0x8, addend: 0x0, symName: __RNvXNtNtNtCsfvfooZQ3Axs_4core4iter6traits7collectINtNtNtB6_8adapters3map3MapINtNtCs6IAuOt8vWmF_3syn10punctuated4IterNtNtB1h_4data5FieldENCNvNtNtCsjOBAykZTw0C_11clap_derive7derives4args11derive_args0ENtB2_12IntoIterator9into_iterB2i_, symObjAddr: 0x266C, symBinAddr: 0x64454, symSize: 0x18 }
  - { offset: 0xE4CDC, size: 0x8, addend: 0x0, symName: __RNvXNtNtNtCsfvfooZQ3Axs_4core4iter6traits7collectINtNtNtB6_8adapters3map3MapINtNtCs6IAuOt8vWmF_3syn10punctuated4IterNtNtB1h_4data5FieldENCNvNtNtCsjOBAykZTw0C_11clap_derive7derives4args19collect_args_fields0ENtB2_12IntoIterator9into_iterB2i_, symObjAddr: 0x2684, symBinAddr: 0x6446C, symSize: 0x18 }
  - { offset: 0xE4D13, size: 0x8, addend: 0x0, symName: __RNvXNtNtNtCsfvfooZQ3Axs_4core4iter6traits7collectINtNtNtB6_8adapters3map3MapINtNtCs6IAuOt8vWmF_3syn10punctuated4IterNtNtB1h_4data5FieldENCNvNtNtCsjOBAykZTw0C_11clap_derive7derives6parser13derive_parser0ENtB2_12IntoIterator9into_iterB2i_, symObjAddr: 0x269C, symBinAddr: 0x64484, symSize: 0x18 }
  - { offset: 0xE4D4A, size: 0x8, addend: 0x0, symName: __RNvXNtNtNtCsfvfooZQ3Axs_4core4iter6traits7collectINtNtNtB6_8adapters3map3MapINtNtCs6IAuOt8vWmF_3syn10punctuated4IterNtNtB1h_4data7VariantENCNvNtNtCsjOBAykZTw0C_11clap_derive7derives10subcommand17derive_subcommand0ENtB2_12IntoIterator9into_iterB2k_, symObjAddr: 0x26B4, symBinAddr: 0x6449C, symSize: 0x18 }
  - { offset: 0xE4D81, size: 0x8, addend: 0x0, symName: __RNvXNtNtNtCsfvfooZQ3Axs_4core4iter6traits7collectINtNtNtB6_8adapters3map3MapINtNtCs6IAuOt8vWmF_3syn10punctuated4IterNtNtB1h_4data7VariantENCNvNtNtCsjOBAykZTw0C_11clap_derive7derives6parser13derive_parsers_0ENtB2_12IntoIterator9into_iterB2k_, symObjAddr: 0x26CC, symBinAddr: 0x644B4, symSize: 0x18 }
  - { offset: 0xE4DB8, size: 0x8, addend: 0x0, symName: __RNvXNtNtNtCsfvfooZQ3Axs_4core4iter6traits7collectINtNtNtB6_8adapters3map3MapINtNtNtB8_3str4iter5SplitcENCNCNvNtNtCsjOBAykZTw0C_11clap_derive5utils12doc_comments19extract_doc_comments1_00ENtB2_12IntoIterator9into_iterB1N_, symObjAddr: 0x26E4, symBinAddr: 0x644CC, symSize: 0x30 }
  - { offset: 0xE4DF0, size: 0x8, addend: 0x0, symName: __RNvXNtNtNtCsfvfooZQ3Axs_4core4iter6traits7collectINtNtNtB6_8adapters3map3MapINtNtNtB8_5slice4iter4IterNtNtCse1nGBsou5OW_5alloc6string6StringENCINvNtNtCsjOBAykZTw0C_11clap_derive5utils12doc_comments11merge_linesRB1C_RSB1C_E0ENtB2_12IntoIterator9into_iterB2o_, symObjAddr: 0x2714, symBinAddr: 0x644FC, symSize: 0x1C }
  - { offset: 0xE4E27, size: 0x8, addend: 0x0, symName: __RNvXNtNtNtCsfvfooZQ3Axs_4core4iter6traits7collectINtNtNtB6_8adapters3map3MapINtNtNtB8_5slice4iter4IterNtNtCsjOBAykZTw0C_11clap_derive4attr8AttrKindENCNvNtB1G_4item16assert_attr_kind0ENtB2_12IntoIterator9into_iterB1G_, symObjAddr: 0x2730, symBinAddr: 0x64518, symSize: 0x18 }
  - { offset: 0xE4E5E, size: 0x8, addend: 0x0, symName: __RNvXNtNtNtCsfvfooZQ3Axs_4core4iter6traits7collectINtNtNtB6_8adapters3map3MapINtNtNtB8_5slice4iter4IterTNtCs3cP53eQoTwO_11proc_macro211TokenStreamNtB1F_5IdentEENCNvNtNtCsjOBAykZTw0C_11clap_derive7derives10value_enum18gen_value_variants0ENtB2_12IntoIterator9into_iterB2F_, symObjAddr: 0x2748, symBinAddr: 0x64530, symSize: 0x1C }
  - { offset: 0xE4E95, size: 0x8, addend: 0x0, symName: __RNvXNtNtNtCsfvfooZQ3Axs_4core4iter6traits7collectINtNtNtB6_8adapters3map3MapINtNtNtB8_5slice4iter4IterTRNtNtCs6IAuOt8vWmF_3syn4data5FieldNtNtCsjOBAykZTw0C_11clap_derive4item4ItemEENCNvNtNtB2f_7derives4args15gen_constructor0ENtB2_12IntoIterator9into_iterB2f_, symObjAddr: 0x2764, symBinAddr: 0x6454C, symSize: 0x1C }
  - { offset: 0xE4ECC, size: 0x8, addend: 0x0, symName: __RNvXNtNtNtCsfvfooZQ3Axs_4core4iter6traits7collectINtNtNtB6_8adapters3map3MapINtNtNtB8_5slice4iter4IterTRRNtNtCs6IAuOt8vWmF_3syn4data7VariantRNtNtCsjOBAykZTw0C_11clap_derive4item4ItemEENCNvNtNtB2j_7derives10subcommand18gen_has_subcommands1_0ENtB2_12IntoIterator9into_iterB2j_, symObjAddr: 0x2780, symBinAddr: 0x64568, symSize: 0x1C }
  - { offset: 0xE4F03, size: 0x8, addend: 0x0, symName: __RNvXNtNtNtCsfvfooZQ3Axs_4core4iter6traits7collectINtNtNtB6_8adapters3map3MapINtNtNtB8_5slice4iter4IterTRRNtNtCs6IAuOt8vWmF_3syn4data7VariantRNtNtCsjOBAykZTw0C_11clap_derive4item4ItemEENCNvNtNtB2j_7derives10subcommand20gen_from_arg_matches0ENtB2_12IntoIterator9into_iterB2j_, symObjAddr: 0x279C, symBinAddr: 0x64584, symSize: 0x14 }
  - { offset: 0xE4F3A, size: 0x8, addend: 0x0, symName: __RNvXNtNtNtCsfvfooZQ3Axs_4core4iter6traits7collectINtNtNtB6_8adapters3map3MapINtNtNtB8_5slice4iter4IterTRRNtNtCs6IAuOt8vWmF_3syn4data7VariantRNtNtCsjOBAykZTw0C_11clap_derive4item4ItemEENCNvNtNtB2j_7derives10subcommand20gen_from_arg_matchess_0ENtB2_12IntoIterator9into_iterB2j_, symObjAddr: 0x27B0, symBinAddr: 0x64598, symSize: 0x1C }
  - { offset: 0xE4F71, size: 0x8, addend: 0x0, symName: __RNvXNtNtNtCsfvfooZQ3Axs_4core4iter6traits7collectINtNtNtB6_8adapters3map3MapINtNtNtB8_5slice4iter4IterTRRNtNtCs6IAuOt8vWmF_3syn4data7VariantRNtNtCsjOBAykZTw0C_11clap_derive4item4ItemEENCNvNtNtB2j_7derives10subcommand27gen_update_from_arg_matchess0_0ENtB2_12IntoIterator9into_iterB2j_, symObjAddr: 0x27CC, symBinAddr: 0x645B4, symSize: 0x1C }
  - { offset: 0xE4FA8, size: 0x8, addend: 0x0, symName: __RNvXNtNtNtCsfvfooZQ3Axs_4core4iter6traits7collectINtNtNtB6_8adapters3map3MapINtNtNtB8_5slice4iter4IterTRRNtNtCs6IAuOt8vWmF_3syn4data7VariantRNtNtCsjOBAykZTw0C_11clap_derive4item4ItemEENCNvNtNtB2j_7derives10subcommand27gen_update_from_arg_matchess1_0ENtB2_12IntoIterator9into_iterB2j_, symObjAddr: 0x27E8, symBinAddr: 0x645D0, symSize: 0x1C }
  - { offset: 0xE4FDF, size: 0x8, addend: 0x0, symName: __RNvXNtNtNtCsfvfooZQ3Axs_4core4iter6traits7collectINtNtNtB6_8adapters3map3MapINtNtNtCse1nGBsou5OW_5alloc3vec9into_iter8IntoIterTNtNtCs6IAuOt8vWmF_3syn4expr4ExprNtNtB25_5token5CommaEENCNvXs8_NtB25_10punctuatedINtB31_10PunctuatedB21_B2x_ENtB2_12IntoIterator9into_iter0EB3L_9into_iterCsjOBAykZTw0C_11clap_derive, symObjAddr: 0x2804, symBinAddr: 0x645EC, symSize: 0x14 }
  - { offset: 0xE5016, size: 0x8, addend: 0x0, symName: __RNvXNtNtNtCsfvfooZQ3Axs_4core4iter6traits7collectINtNtNtB6_8adapters3map3MapINtNtNtCse1nGBsou5OW_5alloc3vec9into_iter8IntoIterTNtNtCsjOBAykZTw0C_11clap_derive4attr8ClapAttrNtNtCs6IAuOt8vWmF_3syn5token5CommaEENCNvXs8_NtB2O_10punctuatedINtB3s_10PunctuatedB21_B2K_ENtB2_12IntoIterator9into_iter0EB4c_9into_iterB25_, symObjAddr: 0x2818, symBinAddr: 0x64600, symSize: 0x14 }
  - { offset: 0xE504D, size: 0x8, addend: 0x0, symName: __RNvXNtNtNtCsfvfooZQ3Axs_4core4iter6traits7collectINtNtNtB6_8adapters7flatten7FlatMapINtNtBQ_10skip_while9SkipWhileINtNtBQ_10filter_map9FilterMapINtNtBQ_6filter6FilterINtNtNtB8_5slice4iter4IterNtNtCs6IAuOt8vWmF_3syn4attr9AttributeENCNvNtNtCsjOBAykZTw0C_11clap_derive5utils12doc_comments19extract_doc_comment0ENCB3I_s_0ENCB3I_s0_0EINtNtCse1nGBsou5OW_5alloc3vec3VecNtNtB5m_6string6StringENCB3I_s1_0ENtB2_12IntoIterator9into_iterB3O_, symObjAddr: 0x282C, symBinAddr: 0x64614, symSize: 0x30 }
  - { offset: 0xE5999, size: 0x8, addend: 0x0, symName: __RINvNtNtNtCs9i5KxIbZ5ph_10proc_macro6bridge6client5state3setINtNtCsfvfooZQ3Axs_4core6option6OptionNtB4_11TokenStreamENCNCINvB4_10run_clientB1y_BW_NCNCINvMs7_B4_INtB4_6ClientNtB8_11TokenStreamB2L_E7expand1NvCsjOBAykZTw0C_11clap_derive10subcommandE00E00EB3i_, symObjAddr: 0x2C, symBinAddr: 0x61E14, symSize: 0xE8 }
  - { offset: 0xE5A6E, size: 0x8, addend: 0x0, symName: __RINvNtNtNtCs9i5KxIbZ5ph_10proc_macro6bridge6client5state3setINtNtCsfvfooZQ3Axs_4core6option6OptionNtB4_11TokenStreamENCNCINvB4_10run_clientB1y_BW_NCNCINvMs7_B4_INtB4_6ClientNtB8_11TokenStreamB2L_E7expand1NvCsjOBAykZTw0C_11clap_derive10value_enumE00E00EB3i_, symObjAddr: 0x114, symBinAddr: 0x61EFC, symSize: 0xE8 }
  - { offset: 0xE5B43, size: 0x8, addend: 0x0, symName: __RINvNtNtNtCs9i5KxIbZ5ph_10proc_macro6bridge6client5state3setINtNtCsfvfooZQ3Axs_4core6option6OptionNtB4_11TokenStreamENCNCINvB4_10run_clientB1y_BW_NCNCINvMs7_B4_INtB4_6ClientNtB8_11TokenStreamB2L_E7expand1NvCsjOBAykZTw0C_11clap_derive4argsE00E00EB3i_, symObjAddr: 0x1FC, symBinAddr: 0x61FE4, symSize: 0xE8 }
  - { offset: 0xE5C18, size: 0x8, addend: 0x0, symName: __RINvNtNtNtCs9i5KxIbZ5ph_10proc_macro6bridge6client5state3setINtNtCsfvfooZQ3Axs_4core6option6OptionNtB4_11TokenStreamENCNCINvB4_10run_clientB1y_BW_NCNCINvMs7_B4_INtB4_6ClientNtB8_11TokenStreamB2L_E7expand1NvCsjOBAykZTw0C_11clap_derive6parserE00E00EB3i_, symObjAddr: 0x2E4, symBinAddr: 0x620CC, symSize: 0xE8 }
  - { offset: 0xE5CF7, size: 0x8, addend: 0x0, symName: __RNCNkNvNtNtNtCs9i5KxIbZ5ph_10proc_macro6bridge6client5state12BRIDGE_STATE0s_0CsjOBAykZTw0C_11clap_derive, symObjAddr: 0x1FE8, symBinAddr: 0x63DD0, symSize: 0x34 }
  - { offset: 0xE650E, size: 0x8, addend: 0x0, symName: __RNvXsA_NtCs3cP53eQoTwO_11proc_macro23impNtB5_19DeferredTokenStreamNtNtCsfvfooZQ3Axs_4core5clone5Clone5cloneCsjOBAykZTw0C_11clap_derive, symObjAddr: 0x30E8, symBinAddr: 0x64ED0, symSize: 0x90 }
  - { offset: 0xE6540, size: 0x8, addend: 0x0, symName: __RNvXsF_NtCs3cP53eQoTwO_11proc_macro23impNtB5_5IdentNtNtCsfvfooZQ3Axs_4core5clone5Clone5cloneCsjOBAykZTw0C_11clap_derive, symObjAddr: 0x3178, symBinAddr: 0x64F60, symSize: 0x9C }
  - { offset: 0xE65B0, size: 0x8, addend: 0x0, symName: __RNvXsz_NtCs3cP53eQoTwO_11proc_macro23impNtB5_11TokenStreamNtNtCsfvfooZQ3Axs_4core5clone5Clone5cloneCsjOBAykZTw0C_11clap_derive, symObjAddr: 0x3AD4, symBinAddr: 0x658BC, symSize: 0x98 }
  - { offset: 0xED48C, size: 0x8, addend: 0x0, symName: __RNvXs1_NtCse1nGBsou5OW_5alloc7raw_vecINtB5_6RawVecINtNtCsfvfooZQ3Axs_4core6option6OptionNtCs3cP53eQoTwO_11proc_macro211TokenStreamEENtNtNtBR_3ops4drop4Drop4dropCsjOBAykZTw0C_11clap_derive, symObjAddr: 0x2D9C, symBinAddr: 0x64B84, symSize: 0x34 }
  - { offset: 0xED4C8, size: 0x8, addend: 0x0, symName: __RNvXs1_NtCse1nGBsou5OW_5alloc7raw_vecINtB5_6RawVecNtCs3cP53eQoTwO_11proc_macro211TokenStreamENtNtNtCsfvfooZQ3Axs_4core3ops4drop4Drop4dropCsjOBAykZTw0C_11clap_derive, symObjAddr: 0x2DD0, symBinAddr: 0x64BB8, symSize: 0x34 }
  - { offset: 0xED504, size: 0x8, addend: 0x0, symName: __RNvXs1_NtCse1nGBsou5OW_5alloc7raw_vecINtB5_6RawVecNtCs3cP53eQoTwO_11proc_macro25IdentENtNtNtCsfvfooZQ3Axs_4core3ops4drop4Drop4dropCsjOBAykZTw0C_11clap_derive, symObjAddr: 0x2E04, symBinAddr: 0x64BEC, symSize: 0x34 }
  - { offset: 0xED540, size: 0x8, addend: 0x0, symName: __RNvXs1_NtCse1nGBsou5OW_5alloc7raw_vecINtB5_6RawVecNtNtB7_6string6StringENtNtNtCsfvfooZQ3Axs_4core3ops4drop4Drop4dropCsjOBAykZTw0C_11clap_derive, symObjAddr: 0x2E38, symBinAddr: 0x64C20, symSize: 0x34 }
  - { offset: 0xED57C, size: 0x8, addend: 0x0, symName: __RNvXs1_NtCse1nGBsou5OW_5alloc7raw_vecINtB5_6RawVecNtNtCs6IAuOt8vWmF_3syn4expr4ExprENtNtNtCsfvfooZQ3Axs_4core3ops4drop4Drop4dropCsjOBAykZTw0C_11clap_derive, symObjAddr: 0x2E6C, symBinAddr: 0x64C54, symSize: 0x34 }
  - { offset: 0xED5B8, size: 0x8, addend: 0x0, symName: __RNvXs1_NtCse1nGBsou5OW_5alloc7raw_vecINtB5_6RawVecNtNtCsjOBAykZTw0C_11clap_derive4attr8ClapAttrENtNtNtCsfvfooZQ3Axs_4core3ops4drop4Drop4dropBQ_, symObjAddr: 0x2EA0, symBinAddr: 0x64C88, symSize: 0x34 }
  - { offset: 0xED5F4, size: 0x8, addend: 0x0, symName: __RNvXs1_NtCse1nGBsou5OW_5alloc7raw_vecINtB5_6RawVecNtNtCsjOBAykZTw0C_11clap_derive4item11DeprecationENtNtNtCsfvfooZQ3Axs_4core3ops4drop4Drop4dropBQ_, symObjAddr: 0x2ED4, symBinAddr: 0x64CBC, symSize: 0x34 }
  - { offset: 0xED630, size: 0x8, addend: 0x0, symName: __RNvXs1_NtCse1nGBsou5OW_5alloc7raw_vecINtB5_6RawVecNtNtCsjOBAykZTw0C_11clap_derive4item6MethodENtNtNtCsfvfooZQ3Axs_4core3ops4drop4Drop4dropBQ_, symObjAddr: 0x2F08, symBinAddr: 0x64CF0, symSize: 0x34 }
  - { offset: 0xED66C, size: 0x8, addend: 0x0, symName: __RNvXs1_NtCse1nGBsou5OW_5alloc7raw_vecINtB5_6RawVecRNtCs3cP53eQoTwO_11proc_macro25IdentENtNtNtCsfvfooZQ3Axs_4core3ops4drop4Drop4dropCsjOBAykZTw0C_11clap_derive, symObjAddr: 0x2F3C, symBinAddr: 0x64D24, symSize: 0x30 }
  - { offset: 0xED6A8, size: 0x8, addend: 0x0, symName: __RNvXs1_NtCse1nGBsou5OW_5alloc7raw_vecINtB5_6RawVecRNtNtCsjOBAykZTw0C_11clap_derive4item4NameENtNtNtCsfvfooZQ3Axs_4core3ops4drop4Drop4dropBR_, symObjAddr: 0x2F6C, symBinAddr: 0x64D54, symSize: 0x30 }
  - { offset: 0xED6E4, size: 0x8, addend: 0x0, symName: __RNvXs1_NtCse1nGBsou5OW_5alloc7raw_vecINtB5_6RawVecTNtCs3cP53eQoTwO_11proc_macro211TokenStreamNtBP_5IdentEENtNtNtCsfvfooZQ3Axs_4core3ops4drop4Drop4dropCsjOBAykZTw0C_11clap_derive, symObjAddr: 0x2F9C, symBinAddr: 0x64D84, symSize: 0x34 }
  - { offset: 0xED720, size: 0x8, addend: 0x0, symName: __RNvXs1_NtCse1nGBsou5OW_5alloc7raw_vecINtB5_6RawVecTNtNtCsjOBAykZTw0C_11clap_derive4attr8ClapAttrNtNtCs6IAuOt8vWmF_3syn5token5CommaEENtNtNtCsfvfooZQ3Axs_4core3ops4drop4Drop4dropBR_, symObjAddr: 0x2FD0, symBinAddr: 0x64DB8, symSize: 0x34 }
  - { offset: 0xED75C, size: 0x8, addend: 0x0, symName: __RNvXs1_NtCse1nGBsou5OW_5alloc7raw_vecINtB5_6RawVecTRNtNtCs6IAuOt8vWmF_3syn4data5FieldNtNtCsjOBAykZTw0C_11clap_derive4item4ItemEENtNtNtCsfvfooZQ3Axs_4core3ops4drop4Drop4dropB1p_, symObjAddr: 0x3004, symBinAddr: 0x64DEC, symSize: 0x34 }
  - { offset: 0xED798, size: 0x8, addend: 0x0, symName: __RNvXs1_NtCse1nGBsou5OW_5alloc7raw_vecINtB5_6RawVecTRNtNtCs6IAuOt8vWmF_3syn4data7VariantNtNtCsjOBAykZTw0C_11clap_derive4item4ItemEENtNtNtCsfvfooZQ3Axs_4core3ops4drop4Drop4dropB1r_, symObjAddr: 0x3038, symBinAddr: 0x64E20, symSize: 0x34 }
  - { offset: 0xED7D4, size: 0x8, addend: 0x0, symName: __RNvXs1_NtCse1nGBsou5OW_5alloc7raw_vecINtB5_6RawVecTRRNtNtCs6IAuOt8vWmF_3syn4data7VariantRNtNtCsjOBAykZTw0C_11clap_derive4item4ItemEENtNtNtCsfvfooZQ3Axs_4core3ops4drop4Drop4dropB1t_, symObjAddr: 0x306C, symBinAddr: 0x64E54, symSize: 0x34 }
  - { offset: 0xED9B0, size: 0x8, addend: 0x0, symName: __RINvMs_NtNtCsfvfooZQ3Axs_4core3fmt2rtNtB5_8Argument11new_displayNtNtNtCs6IAuOt8vWmF_3syn4attr7parsing16DisplayAttrStyleECsjOBAykZTw0C_11clap_derive, symObjAddr: 0x0, symBinAddr: 0x61DE8, symSize: 0x2C }
  - { offset: 0xEE40C, size: 0x8, addend: 0x0, symName: __RNvMNtNtCsfvfooZQ3Axs_4core3fmt2rtNtB2_11Placeholder3newCsjOBAykZTw0C_11clap_derive, symObjAddr: 0x201C, symBinAddr: 0x63E04, symSize: 0x4C }
  - { offset: 0xEE4D3, size: 0x8, addend: 0x0, symName: __RNvMs0_NtCse1nGBsou5OW_5alloc7raw_vecINtB5_6RawVecINtNtCsfvfooZQ3Axs_4core6option6OptionNtCs3cP53eQoTwO_11proc_macro211TokenStreamEE8grow_oneCsjOBAykZTw0C_11clap_derive, symObjAddr: 0x2068, symBinAddr: 0x63E50, symSize: 0x94 }
  - { offset: 0xEE581, size: 0x8, addend: 0x0, symName: __RNvMs0_NtCse1nGBsou5OW_5alloc7raw_vecINtB5_6RawVecNtCs3cP53eQoTwO_11proc_macro211TokenStreamE8grow_oneCsjOBAykZTw0C_11clap_derive, symObjAddr: 0x20FC, symBinAddr: 0x63EE4, symSize: 0x94 }
  - { offset: 0xEE62F, size: 0x8, addend: 0x0, symName: __RNvMs0_NtCse1nGBsou5OW_5alloc7raw_vecINtB5_6RawVecNtCs3cP53eQoTwO_11proc_macro25IdentE8grow_oneCsjOBAykZTw0C_11clap_derive, symObjAddr: 0x2190, symBinAddr: 0x63F78, symSize: 0x94 }
  - { offset: 0xEE6DD, size: 0x8, addend: 0x0, symName: __RNvMs0_NtCse1nGBsou5OW_5alloc7raw_vecINtB5_6RawVecNtNtCsjOBAykZTw0C_11clap_derive4attr8ClapAttrE8grow_oneBQ_, symObjAddr: 0x2224, symBinAddr: 0x6400C, symSize: 0x94 }
  - { offset: 0xEE78B, size: 0x8, addend: 0x0, symName: __RNvMs0_NtCse1nGBsou5OW_5alloc7raw_vecINtB5_6RawVecNtNtCsjOBAykZTw0C_11clap_derive4item11DeprecationE8grow_oneBQ_, symObjAddr: 0x22B8, symBinAddr: 0x640A0, symSize: 0x94 }
  - { offset: 0xEE839, size: 0x8, addend: 0x0, symName: __RNvMs0_NtCse1nGBsou5OW_5alloc7raw_vecINtB5_6RawVecNtNtCsjOBAykZTw0C_11clap_derive4item6MethodE8grow_oneBQ_, symObjAddr: 0x234C, symBinAddr: 0x64134, symSize: 0x94 }
  - { offset: 0xEE8E7, size: 0x8, addend: 0x0, symName: __RNvMs0_NtCse1nGBsou5OW_5alloc7raw_vecINtB5_6RawVecTNtCs3cP53eQoTwO_11proc_macro211TokenStreamNtBP_5IdentEE8grow_oneCsjOBAykZTw0C_11clap_derive, symObjAddr: 0x23E0, symBinAddr: 0x641C8, symSize: 0x94 }
  - { offset: 0xEE995, size: 0x8, addend: 0x0, symName: __RNvMs0_NtCse1nGBsou5OW_5alloc7raw_vecINtB5_6RawVecTNtNtCsjOBAykZTw0C_11clap_derive4attr8ClapAttrNtNtCs6IAuOt8vWmF_3syn5token5CommaEE8grow_oneBR_, symObjAddr: 0x2474, symBinAddr: 0x6425C, symSize: 0x94 }
  - { offset: 0xEEA43, size: 0x8, addend: 0x0, symName: __RNvMs0_NtCse1nGBsou5OW_5alloc7raw_vecINtB5_6RawVecTRNtNtCs6IAuOt8vWmF_3syn4data7VariantNtNtCsjOBAykZTw0C_11clap_derive4item4ItemEE8grow_oneB1r_, symObjAddr: 0x2508, symBinAddr: 0x642F0, symSize: 0x94 }
  - { offset: 0xEEAF1, size: 0x8, addend: 0x0, symName: __RNvMs0_NtCse1nGBsou5OW_5alloc7raw_vecINtB5_6RawVecTRRNtNtCs6IAuOt8vWmF_3syn4data7VariantRNtNtCsjOBAykZTw0C_11clap_derive4item4ItemEE8grow_oneB1t_, symObjAddr: 0x259C, symBinAddr: 0x64384, symSize: 0x94 }
  - { offset: 0xEEB5A, size: 0x8, addend: 0x0, symName: __RNvMs0_NtNtCsfvfooZQ3Axs_4core3fmt2rtNtB5_9UnsafeArg3newCsjOBAykZTw0C_11clap_derive, symObjAddr: 0x2630, symBinAddr: 0x64418, symSize: 0x4 }
  - { offset: 0xEEB6D, size: 0x8, addend: 0x0, symName: __RNvMs_NtNtCsfvfooZQ3Axs_4core3fmt2rtNtB4_8Argument4noneCsjOBAykZTw0C_11clap_derive, symObjAddr: 0x2634, symBinAddr: 0x6441C, symSize: 0x4 }
  - { offset: 0xEEDBD, size: 0x8, addend: 0x0, symName: __RNvYINtNtNtNtCsfvfooZQ3Axs_4core4iter8adapters3map3MapINtNtNtBb_5slice4iter4IterTRRNtNtCs6IAuOt8vWmF_3syn4data7VariantRNtNtCsjOBAykZTw0C_11clap_derive4item4ItemEENCNvNtNtB1X_7derives10subcommand18gen_has_subcommands0_0ENtNtNtCs2cqEZUIJimJ_5quote9___private3ext14RepIteratorExt15quote_into_iterB1X_, symObjAddr: 0x3BA0, symBinAddr: 0x65988, symSize: 0x2C }
  - { offset: 0xEF2A3, size: 0x8, addend: 0x0, symName: __RINvMNtCsfvfooZQ3Axs_4core3stre12strip_prefixcECsjOBAykZTw0C_11clap_derive, symObjAddr: 0x0, symBinAddr: 0x659B4, symSize: 0x44 }
  - { offset: 0xEF50C, size: 0x8, addend: 0x0, symName: __RNCINvNtNtCs9i5KxIbZ5ph_10proc_macro6bridge6client10run_clientNtB4_11TokenStreamINtNtCsfvfooZQ3Axs_4core6option6OptionBY_ENCNCINvMs7_B4_INtB4_6ClientNtB8_11TokenStreamB2n_E7expand1NvCsjOBAykZTw0C_11clap_derive10subcommandE00E0B2U_, symObjAddr: 0xB18, symBinAddr: 0x664CC, symSize: 0x324 }
  - { offset: 0xEF76F, size: 0x8, addend: 0x0, symName: __RNCINvNtNtCs9i5KxIbZ5ph_10proc_macro6bridge6client10run_clientNtB4_11TokenStreamINtNtCsfvfooZQ3Axs_4core6option6OptionBY_ENCNCINvMs7_B4_INtB4_6ClientNtB8_11TokenStreamB2n_E7expand1NvCsjOBAykZTw0C_11clap_derive10value_enumE00E0B2U_, symObjAddr: 0xE3C, symBinAddr: 0x667F0, symSize: 0x324 }
  - { offset: 0xEF9D2, size: 0x8, addend: 0x0, symName: __RNCINvNtNtCs9i5KxIbZ5ph_10proc_macro6bridge6client10run_clientNtB4_11TokenStreamINtNtCsfvfooZQ3Axs_4core6option6OptionBY_ENCNCINvMs7_B4_INtB4_6ClientNtB8_11TokenStreamB2n_E7expand1NvCsjOBAykZTw0C_11clap_derive4argsE00E0B2U_, symObjAddr: 0x1160, symBinAddr: 0x66B14, symSize: 0x324 }
  - { offset: 0xEFC35, size: 0x8, addend: 0x0, symName: __RNCINvNtNtCs9i5KxIbZ5ph_10proc_macro6bridge6client10run_clientNtB4_11TokenStreamINtNtCsfvfooZQ3Axs_4core6option6OptionBY_ENCNCINvMs7_B4_INtB4_6ClientNtB8_11TokenStreamB2n_E7expand1NvCsjOBAykZTw0C_11clap_derive6parserE00E0B2U_, symObjAddr: 0x1484, symBinAddr: 0x66E38, symSize: 0x324 }
  - { offset: 0xEFE9D, size: 0x8, addend: 0x0, symName: __RNCNCINvNtNtCs9i5KxIbZ5ph_10proc_macro6bridge6client10run_clientNtB6_11TokenStreamINtNtCsfvfooZQ3Axs_4core6option6OptionB10_ENCNCINvMs7_B6_INtB6_6ClientNtBa_11TokenStreamB2q_E7expand1NvCsjOBAykZTw0C_11clap_derive10subcommandE00E00B2X_, symObjAddr: 0x1868, symBinAddr: 0x6721C, symSize: 0x28 }
  - { offset: 0xEFEF7, size: 0x8, addend: 0x0, symName: __RNCNCINvNtNtCs9i5KxIbZ5ph_10proc_macro6bridge6client10run_clientNtB6_11TokenStreamINtNtCsfvfooZQ3Axs_4core6option6OptionB10_ENCNCINvMs7_B6_INtB6_6ClientNtBa_11TokenStreamB2q_E7expand1NvCsjOBAykZTw0C_11clap_derive10value_enumE00E00B2X_, symObjAddr: 0x1890, symBinAddr: 0x67244, symSize: 0x28 }
  - { offset: 0xEFF51, size: 0x8, addend: 0x0, symName: __RNCNCINvNtNtCs9i5KxIbZ5ph_10proc_macro6bridge6client10run_clientNtB6_11TokenStreamINtNtCsfvfooZQ3Axs_4core6option6OptionB10_ENCNCINvMs7_B6_INtB6_6ClientNtBa_11TokenStreamB2q_E7expand1NvCsjOBAykZTw0C_11clap_derive4argsE00E00B2X_, symObjAddr: 0x18B8, symBinAddr: 0x6726C, symSize: 0x28 }
  - { offset: 0xEFFAB, size: 0x8, addend: 0x0, symName: __RNCNCINvNtNtCs9i5KxIbZ5ph_10proc_macro6bridge6client10run_clientNtB6_11TokenStreamINtNtCsfvfooZQ3Axs_4core6option6OptionB10_ENCNCINvMs7_B6_INtB6_6ClientNtBa_11TokenStreamB2q_E7expand1NvCsjOBAykZTw0C_11clap_derive6parserE00E00B2X_, symObjAddr: 0x18E0, symBinAddr: 0x67294, symSize: 0x28 }
  - { offset: 0xF0062, size: 0x8, addend: 0x0, symName: __RNCNCINvMs7_NtNtCs9i5KxIbZ5ph_10proc_macro6bridge6clientINtBa_6ClientNtBe_11TokenStreamB15_E7expand1NvCsjOBAykZTw0C_11clap_derive10subcommandE00B1C_, symObjAddr: 0x17A8, symBinAddr: 0x6715C, symSize: 0x30 }
  - { offset: 0xF00AA, size: 0x8, addend: 0x0, symName: __RNCNCINvMs7_NtNtCs9i5KxIbZ5ph_10proc_macro6bridge6clientINtBa_6ClientNtBe_11TokenStreamB15_E7expand1NvCsjOBAykZTw0C_11clap_derive10value_enumE00B1C_, symObjAddr: 0x17D8, symBinAddr: 0x6718C, symSize: 0x30 }
  - { offset: 0xF00F2, size: 0x8, addend: 0x0, symName: __RNCNCINvMs7_NtNtCs9i5KxIbZ5ph_10proc_macro6bridge6clientINtBa_6ClientNtBe_11TokenStreamB15_E7expand1NvCsjOBAykZTw0C_11clap_derive4argsE00B1C_, symObjAddr: 0x1808, symBinAddr: 0x671BC, symSize: 0x30 }
  - { offset: 0xF013A, size: 0x8, addend: 0x0, symName: __RNCNCINvMs7_NtNtCs9i5KxIbZ5ph_10proc_macro6bridge6clientINtBa_6ClientNtBe_11TokenStreamB15_E7expand1NvCsjOBAykZTw0C_11clap_derive6parserE00B1C_, symObjAddr: 0x1838, symBinAddr: 0x671EC, symSize: 0x30 }
  - { offset: 0xF0183, size: 0x8, addend: 0x0, symName: __RNCINvMs7_NtNtCs9i5KxIbZ5ph_10proc_macro6bridge6clientINtB8_6ClientNtBc_11TokenStreamB13_E7expand1NvCsjOBAykZTw0C_11clap_derive10subcommandE0B1A_, symObjAddr: 0xA58, symBinAddr: 0x6640C, symSize: 0x30 }
  - { offset: 0xF01CC, size: 0x8, addend: 0x0, symName: __RNCINvMs7_NtNtCs9i5KxIbZ5ph_10proc_macro6bridge6clientINtB8_6ClientNtBc_11TokenStreamB13_E7expand1NvCsjOBAykZTw0C_11clap_derive10value_enumE0B1A_, symObjAddr: 0xA88, symBinAddr: 0x6643C, symSize: 0x30 }
  - { offset: 0xF0215, size: 0x8, addend: 0x0, symName: __RNCINvMs7_NtNtCs9i5KxIbZ5ph_10proc_macro6bridge6clientINtB8_6ClientNtBc_11TokenStreamB13_E7expand1NvCsjOBAykZTw0C_11clap_derive4argsE0B1A_, symObjAddr: 0xAB8, symBinAddr: 0x6646C, symSize: 0x30 }
  - { offset: 0xF025E, size: 0x8, addend: 0x0, symName: __RNCINvMs7_NtNtCs9i5KxIbZ5ph_10proc_macro6bridge6clientINtB8_6ClientNtBc_11TokenStreamB13_E7expand1NvCsjOBAykZTw0C_11clap_derive6parserE0B1A_, symObjAddr: 0xAE8, symBinAddr: 0x6649C, symSize: 0x30 }
  - { offset: 0xF02CA, size: 0x8, addend: 0x0, symName: __RINvNtNtCs9i5KxIbZ5ph_10proc_macro6bridge6client10run_clientNtB2_11TokenStreamINtNtCsfvfooZQ3Axs_4core6option6OptionBW_ENCNCINvMs7_B2_INtB2_6ClientNtB6_11TokenStreamB2l_E7expand1NvCsjOBAykZTw0C_11clap_derive10subcommandE00EB2S_, symObjAddr: 0x1B8, symBinAddr: 0x65B6C, symSize: 0x21C }
  - { offset: 0xF048A, size: 0x8, addend: 0x0, symName: __RINvNtNtCs9i5KxIbZ5ph_10proc_macro6bridge6client10run_clientNtB2_11TokenStreamINtNtCsfvfooZQ3Axs_4core6option6OptionBW_ENCNCINvMs7_B2_INtB2_6ClientNtB6_11TokenStreamB2l_E7expand1NvCsjOBAykZTw0C_11clap_derive10value_enumE00EB2S_, symObjAddr: 0x3D4, symBinAddr: 0x65D88, symSize: 0x21C }
  - { offset: 0xF064A, size: 0x8, addend: 0x0, symName: __RINvNtNtCs9i5KxIbZ5ph_10proc_macro6bridge6client10run_clientNtB2_11TokenStreamINtNtCsfvfooZQ3Axs_4core6option6OptionBW_ENCNCINvMs7_B2_INtB2_6ClientNtB6_11TokenStreamB2l_E7expand1NvCsjOBAykZTw0C_11clap_derive4argsE00EB2S_, symObjAddr: 0x5F0, symBinAddr: 0x65FA4, symSize: 0x21C }
  - { offset: 0xF080A, size: 0x8, addend: 0x0, symName: __RINvNtNtCs9i5KxIbZ5ph_10proc_macro6bridge6client10run_clientNtB2_11TokenStreamINtNtCsfvfooZQ3Axs_4core6option6OptionBW_ENCNCINvMs7_B2_INtB2_6ClientNtB6_11TokenStreamB2l_E7expand1NvCsjOBAykZTw0C_11clap_derive6parserE00EB2S_, symObjAddr: 0x80C, symBinAddr: 0x661C0, symSize: 0x21C }
  - { offset: 0xF0A1D, size: 0x8, addend: 0x0, symName: __RNvXsg_NtNtCs9i5KxIbZ5ph_10proc_macro6bridge6clientNtB5_11TokenStreamINtNtB7_3rpc6EncodeuE6encodeCsjOBAykZTw0C_11clap_derive, symObjAddr: 0x28D4, symBinAddr: 0x68288, symSize: 0x50 }
  - { offset: 0xF0B2E, size: 0x8, addend: 0x0, symName: __RNvXsj_NtNtCs9i5KxIbZ5ph_10proc_macro6bridge6clientNtB5_11TokenStreamINtNtB7_3rpc9DecodeMutuE6decodeCsjOBAykZTw0C_11clap_derive, symObjAddr: 0x2924, symBinAddr: 0x682D8, symSize: 0x2C }
  - { offset: 0xF0B77, size: 0x8, addend: 0x0, symName: __RNvXsq_NtNtCs9i5KxIbZ5ph_10proc_macro6bridge6clientNtB5_4SpanINtNtB7_3rpc9DecodeMutuE6decodeCsjOBAykZTw0C_11clap_derive, symObjAddr: 0x2950, symBinAddr: 0x68304, symSize: 0x2C }
  - { offset: 0xF1283, size: 0x8, addend: 0x0, symName: __RNvXs1f_Cs9i5KxIbZ5ph_10proc_macroNtB6_5IdentNtNtCsfvfooZQ3Axs_4core5clone5Clone5cloneCsjOBAykZTw0C_11clap_derive, symObjAddr: 0x2474, symBinAddr: 0x67E28, symSize: 0x40 }
  - { offset: 0xF12B7, size: 0x8, addend: 0x0, symName: __RNvXsU_Cs9i5KxIbZ5ph_10proc_macroNtB5_11TokenStreamNtNtCsfvfooZQ3Axs_4core5clone5Clone5cloneCsjOBAykZTw0C_11clap_derive, symObjAddr: 0x27C8, symBinAddr: 0x6817C, symSize: 0x64 }
  - { offset: 0xF1841, size: 0x8, addend: 0x0, symName: __RNvXsG_Cs3cP53eQoTwO_11proc_macro2NtB5_11TokenStreamNtNtCsfvfooZQ3Axs_4core5clone5Clone5cloneCsjOBAykZTw0C_11clap_derive, symObjAddr: 0x2738, symBinAddr: 0x680EC, symSize: 0x78 }
  - { offset: 0xF1873, size: 0x8, addend: 0x0, symName: __RNvXsI_Cs3cP53eQoTwO_11proc_macro2NtB5_4SpanNtNtCsfvfooZQ3Axs_4core5clone5Clone5cloneCsjOBAykZTw0C_11clap_derive, symObjAddr: 0x27B0, symBinAddr: 0x68164, symSize: 0x18 }
  - { offset: 0xF18A7, size: 0x8, addend: 0x0, symName: __RNvXsY_Cs3cP53eQoTwO_11proc_macro2NtB5_5IdentNtNtCsfvfooZQ3Axs_4core5clone5Clone5cloneCsjOBAykZTw0C_11clap_derive, symObjAddr: 0x2844, symBinAddr: 0x681F8, symSize: 0x78 }
  - { offset: 0xF1F63, size: 0x8, addend: 0x0, symName: __RINvXNtNtCsjOBAykZTw0C_11clap_derive5utils5errorNtCs3cP53eQoTwO_11proc_macro25IdentNtB3_13ToTokensError25EXPECTED_Span_OR_ToTokensNtNtCse1nGBsou5OW_5alloc6string6StringEB7_, symObjAddr: 0x2B40, symBinAddr: 0x684F4, symSize: 0xB0 }
  - { offset: 0xF1FB6, size: 0x8, addend: 0x0, symName: __RINvXs_NtNtCsjOBAykZTw0C_11clap_derive5utils5errorNtCs3cP53eQoTwO_11proc_macro24SpanNtB5_9SpanError25EXPECTED_Span_OR_ToTokensNtNtCse1nGBsou5OW_5alloc6string6StringEB9_, symObjAddr: 0x2BF0, symBinAddr: 0x685A4, symSize: 0x38 }
  - { offset: 0xF200D, size: 0x8, addend: 0x0, symName: __RINvMNtCsfvfooZQ3Axs_4core3stre12strip_prefixcECsjOBAykZTw0C_11clap_derive, symObjAddr: 0x0, symBinAddr: 0x659B4, symSize: 0x44 }
  - { offset: 0xF2087, size: 0x8, addend: 0x0, symName: __RINvMNtCsfvfooZQ3Axs_4core3stre12trim_matchesNCNvB2_4trim0ECsjOBAykZTw0C_11clap_derive, symObjAddr: 0x44, symBinAddr: 0x659F8, symSize: 0x128 }
  - { offset: 0xF2224, size: 0x8, addend: 0x0, symName: __RINvMNtCsfvfooZQ3Axs_4core3stre9ends_withReECsjOBAykZTw0C_11clap_derive, symObjAddr: 0x16C, symBinAddr: 0x65B20, symSize: 0x4C }
  - { offset: 0xF226F, size: 0x8, addend: 0x0, symName: __RNCNvMNtCsfvfooZQ3Axs_4core3stre4trim0CsjOBAykZTw0C_11clap_derive, symObjAddr: 0x1908, symBinAddr: 0x672BC, symSize: 0x94 }
  - { offset: 0xF2310, size: 0x8, addend: 0x0, symName: __RNvMNtCsfvfooZQ3Axs_4core3stre3lenCsjOBAykZTw0C_11clap_derive, symObjAddr: 0x1A3C, symBinAddr: 0x673F0, symSize: 0x1C }
  - { offset: 0xF233C, size: 0x8, addend: 0x0, symName: __RNvMNtCsfvfooZQ3Axs_4core3stre4trimCsjOBAykZTw0C_11clap_derive, symObjAddr: 0x1A58, symBinAddr: 0x6740C, symSize: 0x28 }
  - { offset: 0xF236A, size: 0x8, addend: 0x0, symName: __RNvMNtCsfvfooZQ3Axs_4core3stre5charsCsjOBAykZTw0C_11clap_derive, symObjAddr: 0x1A80, symBinAddr: 0x67434, symSize: 0x20 }
  - { offset: 0xF23D8, size: 0x8, addend: 0x0, symName: __RNvMNtCsfvfooZQ3Axs_4core3stre8is_emptyCsjOBAykZTw0C_11clap_derive, symObjAddr: 0x1AA0, symBinAddr: 0x67454, symSize: 0x1C }
  - { offset: 0xF2514, size: 0x8, addend: 0x0, symName: __RNCNvMsp_NtNtCsfvfooZQ3Axs_4core3str4iterINtB7_20MatchIndicesInternalcE4next0CsjOBAykZTw0C_11clap_derive, symObjAddr: 0x199C, symBinAddr: 0x67350, symSize: 0xA0 }
  - { offset: 0xF269C, size: 0x8, addend: 0x0, symName: __RNvXNtNtCsfvfooZQ3Axs_4core3str4iterNtB2_5CharsNtNtNtNtB6_4iter6traits8iterator8Iterator4nextCsjOBAykZTw0C_11clap_derive, symObjAddr: 0x22C4, symBinAddr: 0x67C78, symSize: 0x70 }
  - { offset: 0xF276A, size: 0x8, addend: 0x0, symName: __RNvXs3_NtNtCsfvfooZQ3Axs_4core3str4iterNtB5_11CharIndicesNtNtNtNtB9_4iter6traits8iterator8Iterator4nextCsjOBAykZTw0C_11clap_derive, symObjAddr: 0x24B4, symBinAddr: 0x67E68, symSize: 0x120 }
  - { offset: 0xF29A3, size: 0x8, addend: 0x0, symName: __RNvXs4_NtNtCsfvfooZQ3Axs_4core3str4iterNtB5_11CharIndicesNtNtNtNtB9_4iter6traits12double_ended19DoubleEndedIterator9next_backCsjOBAykZTw0C_11clap_derive, symObjAddr: 0x25FC, symBinAddr: 0x67FB0, symSize: 0x13C }
  - { offset: 0xF2B6E, size: 0x8, addend: 0x0, symName: __RNvXs3_NtNtCsfvfooZQ3Axs_4core3str7patternNCNvMB7_e4trim0NtB5_11MultiCharEq7matchesCsjOBAykZTw0C_11clap_derive, symObjAddr: 0x25D4, symBinAddr: 0x67F88, symSize: 0x28 }
  - { offset: 0xF2BBA, size: 0x8, addend: 0x0, symName: __RNvXsr_NtNtCsfvfooZQ3Axs_4core3str7patternNCNvMB7_e4trim0NtB5_7Pattern13into_searcherCsjOBAykZTw0C_11clap_derive, symObjAddr: 0x297C, symBinAddr: 0x68330, symSize: 0x48 }
  - { offset: 0xF2C5B, size: 0x8, addend: 0x0, symName: __RNvXs_NtCsfvfooZQ3Axs_4core3streINtNtB6_7convert5AsRefShE6as_refCsjOBAykZTw0C_11clap_derive, symObjAddr: 0x28BC, symBinAddr: 0x68270, symSize: 0x18 }
  - { offset: 0xF35C9, size: 0x8, addend: 0x0, symName: __RNvNvMs1_NtNtCsfvfooZQ3Axs_4core3ptr8non_nullINtB7_7NonNullpE13new_unchecked18precondition_checkCsjOBAykZTw0C_11clap_derive, symObjAddr: 0x20CC, symBinAddr: 0x67A80, symSize: 0x38 }
  - { offset: 0xF65C3, size: 0x8, addend: 0x0, symName: __RINvYINtNtNtCsfvfooZQ3Axs_4core3str4iter5SplitcENtNtNtNtBa_4iter6traits8iterator8Iterator3mapNtNtCse1nGBsou5OW_5alloc6string6StringNCNCNvNtNtCsjOBAykZTw0C_11clap_derive5utils12doc_comments19extract_doc_comments1_00EB2f_, symObjAddr: 0xA28, symBinAddr: 0x663DC, symSize: 0x30 }
  - { offset: 0xF6631, size: 0x8, addend: 0x0, symName: __RNvYINtNtNtCsfvfooZQ3Axs_4core3str4iter5SplitcENtNtNtNtB9_4iter6traits8iterator8Iterator9size_hintCsjOBAykZTw0C_11clap_derive, symObjAddr: 0x29C4, symBinAddr: 0x68378, symSize: 0x34 }
  - { offset: 0xF68D3, size: 0x8, addend: 0x0, symName: __RNvMNtCsfvfooZQ3Axs_4core5sliceSNtCs3cP53eQoTwO_11proc_macro211TokenStream4iterCsjOBAykZTw0C_11clap_derive, symObjAddr: 0x1ABC, symBinAddr: 0x67470, symSize: 0x28 }
  - { offset: 0xF690A, size: 0x8, addend: 0x0, symName: __RNvMNtCsfvfooZQ3Axs_4core5sliceSNtCs3cP53eQoTwO_11proc_macro25Ident4iterCsjOBAykZTw0C_11clap_derive, symObjAddr: 0x1AE4, symBinAddr: 0x67498, symSize: 0x28 }
  - { offset: 0xF6941, size: 0x8, addend: 0x0, symName: __RNvMNtCsfvfooZQ3Axs_4core5sliceSRNtCs3cP53eQoTwO_11proc_macro25Ident4iterCsjOBAykZTw0C_11clap_derive, symObjAddr: 0x1B0C, symBinAddr: 0x674C0, symSize: 0x28 }
  - { offset: 0xF6978, size: 0x8, addend: 0x0, symName: __RNvMNtCsfvfooZQ3Axs_4core5sliceSTNtCs3cP53eQoTwO_11proc_macro211TokenStreamNtBx_5IdentE4iterCsjOBAykZTw0C_11clap_derive, symObjAddr: 0x1B34, symBinAddr: 0x674E8, symSize: 0x28 }
  - { offset: 0xF69BF, size: 0x8, addend: 0x0, symName: __RNvNvXs0_NtNtCsfvfooZQ3Axs_4core5slice5indexjINtB7_10SliceIndexSpE13get_unchecked18precondition_checkCsjOBAykZTw0C_11clap_derive, symObjAddr: 0x2104, symBinAddr: 0x67AB8, symSize: 0x40 }
  - { offset: 0xF69F6, size: 0x8, addend: 0x0, symName: __RNvXs0_NtNtCsfvfooZQ3Axs_4core5slice5indexjINtB5_10SliceIndexSNtNtCse1nGBsou5OW_5alloc6string6StringE5indexCsjOBAykZTw0C_11clap_derive, symObjAddr: 0x2334, symBinAddr: 0x67CE8, symSize: 0x64 }
  - { offset: 0xF6A3C, size: 0x8, addend: 0x0, symName: __RNvXs0_NtNtCsfvfooZQ3Axs_4core5slice5indexjINtB5_10SliceIndexSNtNtCsjOBAykZTw0C_11clap_derive4item6MethodE5indexB12_, symObjAddr: 0x2398, symBinAddr: 0x67D4C, symSize: 0x64 }
  - { offset: 0xF6A82, size: 0x8, addend: 0x0, symName: __RNvXs0_NtNtCsfvfooZQ3Axs_4core5slice5indexjINtB5_10SliceIndexSTNtNtCs6IAuOt8vWmF_3syn4data5FieldNtNtB13_5token5CommaEE5indexCsjOBAykZTw0C_11clap_derive, symObjAddr: 0x23FC, symBinAddr: 0x67DB0, symSize: 0x64 }
  - { offset: 0xF6AD3, size: 0x8, addend: 0x0, symName: __RNvNvXs2_NtNtCsfvfooZQ3Axs_4core5slice5indexINtNtNtBb_3ops5range5RangejEINtB7_10SliceIndexSpE13get_unchecked18precondition_checkCsjOBAykZTw0C_11clap_derive, symObjAddr: 0x2144, symBinAddr: 0x67AF8, symSize: 0x60 }
  - { offset: 0xF6B1D, size: 0x8, addend: 0x0, symName: __RNvNvXs2_NtNtCsfvfooZQ3Axs_4core5slice5indexINtNtNtBb_3ops5range5RangejEINtB7_10SliceIndexSpE17get_unchecked_mut18precondition_checkCsjOBAykZTw0C_11clap_derive, symObjAddr: 0x21A4, symBinAddr: 0x67B58, symSize: 0x60 }
  - { offset: 0xF6D60, size: 0x8, addend: 0x0, symName: __RNvXs1_NtCsfvfooZQ3Axs_4core7convertNtCs3cP53eQoTwO_11proc_macro211TokenStreamINtB5_4IntoNtCs9i5KxIbZ5ph_10proc_macro11TokenStreamE4intoCsjOBAykZTw0C_11clap_derive, symObjAddr: 0x2460, symBinAddr: 0x67E14, symSize: 0x14 }
  - { offset: 0xF6DAD, size: 0x8, addend: 0x0, symName: __RNvYNtCs3cP53eQoTwO_11proc_macro25IdentINtNtCsfvfooZQ3Axs_4core3cmp9PartialEqReE2neCsjOBAykZTw0C_11clap_derive, symObjAddr: 0x2A84, symBinAddr: 0x68438, symSize: 0x30 }
  - { offset: 0xF727E, size: 0x8, addend: 0x0, symName: __RNvXsW_NtNtCscOYdFFY2T5N_3std3ffi6os_streINtNtCsfvfooZQ3Axs_4core7convert5AsRefNtB5_5OsStrE6as_refCsjOBAykZTw0C_11clap_derive, symObjAddr: 0x282C, symBinAddr: 0x681E0, symSize: 0x18 }
  - { offset: 0xFD8B3, size: 0x8, addend: 0x0, symName: __RNvMs1_NtNtCsfvfooZQ3Axs_4core3ptr8non_nullINtB5_7NonNullNtNtCs6IAuOt8vWmF_3syn4expr4ExprE7sub_ptrCsjOBAykZTw0C_11clap_derive, symObjAddr: 0x1B5C, symBinAddr: 0x67510, symSize: 0x74 }
  - { offset: 0xFD9B9, size: 0x8, addend: 0x0, symName: __RNvMs1_NtNtCsfvfooZQ3Axs_4core3ptr8non_nullINtB5_7NonNullNtNtCse1nGBsou5OW_5alloc6string6StringE7sub_ptrCsjOBAykZTw0C_11clap_derive, symObjAddr: 0x1BD0, symBinAddr: 0x67584, symSize: 0x74 }
  - { offset: 0xFDABF, size: 0x8, addend: 0x0, symName: __RNvMs1_NtNtCsfvfooZQ3Axs_4core3ptr8non_nullINtB5_7NonNullNtNtCsjOBAykZTw0C_11clap_derive4attr8AttrKindE7sub_ptrBX_, symObjAddr: 0x1C44, symBinAddr: 0x675F8, symSize: 0x74 }
  - { offset: 0xFDBC5, size: 0x8, addend: 0x0, symName: __RNvMs1_NtNtCsfvfooZQ3Axs_4core3ptr8non_nullINtB5_7NonNullNtNtCsjOBAykZTw0C_11clap_derive4attr8ClapAttrE7sub_ptrBX_, symObjAddr: 0x1CB8, symBinAddr: 0x6766C, symSize: 0x74 }
  - { offset: 0xFDCE9, size: 0x8, addend: 0x0, symName: __RNvMs1_NtNtCsfvfooZQ3Axs_4core3ptr8non_nullINtB5_7NonNullTNtCs3cP53eQoTwO_11proc_macro211TokenStreamNtBW_5IdentEE7sub_ptrCsjOBAykZTw0C_11clap_derive, symObjAddr: 0x1D2C, symBinAddr: 0x676E0, symSize: 0x74 }
  - { offset: 0xFDDEF, size: 0x8, addend: 0x0, symName: __RNvMs1_NtNtCsfvfooZQ3Axs_4core3ptr8non_nullINtB5_7NonNullTNtNtCs6IAuOt8vWmF_3syn4data7VariantNtNtBY_5token5CommaEE7sub_ptrCsjOBAykZTw0C_11clap_derive, symObjAddr: 0x1DA0, symBinAddr: 0x67754, symSize: 0x74 }
  - { offset: 0xFDEF5, size: 0x8, addend: 0x0, symName: __RNvMs1_NtNtCsfvfooZQ3Axs_4core3ptr8non_nullINtB5_7NonNullTNtNtCs6IAuOt8vWmF_3syn4expr4ExprNtNtBY_5token5CommaEE7sub_ptrCsjOBAykZTw0C_11clap_derive, symObjAddr: 0x1E14, symBinAddr: 0x677C8, symSize: 0x74 }
  - { offset: 0xFDFFB, size: 0x8, addend: 0x0, symName: __RNvMs1_NtNtCsfvfooZQ3Axs_4core3ptr8non_nullINtB5_7NonNullTNtNtCs6IAuOt8vWmF_3syn4path15GenericArgumentNtNtBY_5token5CommaEE7sub_ptrCsjOBAykZTw0C_11clap_derive, symObjAddr: 0x1E88, symBinAddr: 0x6783C, symSize: 0x74 }
  - { offset: 0xFE11F, size: 0x8, addend: 0x0, symName: __RNvMs1_NtNtCsfvfooZQ3Axs_4core3ptr8non_nullINtB5_7NonNullTNtNtCsjOBAykZTw0C_11clap_derive4attr8ClapAttrNtNtCs6IAuOt8vWmF_3syn5token5CommaEE7sub_ptrBY_, symObjAddr: 0x1EFC, symBinAddr: 0x678B0, symSize: 0x74 }
  - { offset: 0xFE251, size: 0x8, addend: 0x0, symName: __RNvMs1_NtNtCsfvfooZQ3Axs_4core3ptr8non_nullINtB5_7NonNullTRNtNtCs6IAuOt8vWmF_3syn4data5FieldNtNtCsjOBAykZTw0C_11clap_derive4item4ItemEE7sub_ptrB1w_, symObjAddr: 0x1F70, symBinAddr: 0x67924, symSize: 0x74 }
  - { offset: 0xFE383, size: 0x8, addend: 0x0, symName: __RNvMs1_NtNtCsfvfooZQ3Axs_4core3ptr8non_nullINtB5_7NonNullTRNtNtCs6IAuOt8vWmF_3syn4data7VariantNtNtCsjOBAykZTw0C_11clap_derive4item4ItemEE7sub_ptrB1y_, symObjAddr: 0x1FE4, symBinAddr: 0x67998, symSize: 0x74 }
  - { offset: 0xFE4C1, size: 0x8, addend: 0x0, symName: __RNvMs1_NtNtCsfvfooZQ3Axs_4core3ptr8non_nullINtB5_7NonNullTRRNtNtCs6IAuOt8vWmF_3syn4data7VariantRNtNtCsjOBAykZTw0C_11clap_derive4item4ItemEE7sub_ptrB1A_, symObjAddr: 0x2058, symBinAddr: 0x67A0C, symSize: 0x74 }
  - { offset: 0xFE5A0, size: 0x8, addend: 0x0, symName: __RNvXNtCs2cqEZUIJimJ_5quote9to_tokensRNtCs3cP53eQoTwO_11proc_macro211TokenStreamNtB2_8ToTokens9to_tokensCsjOBAykZTw0C_11clap_derive, symObjAddr: 0x2204, symBinAddr: 0x67BB8, symSize: 0x40 }
  - { offset: 0xFE5DF, size: 0x8, addend: 0x0, symName: __RNvXNtCs2cqEZUIJimJ_5quote9to_tokensRNtCs3cP53eQoTwO_11proc_macro25IdentNtB2_8ToTokens9to_tokensCsjOBAykZTw0C_11clap_derive, symObjAddr: 0x2244, symBinAddr: 0x67BF8, symSize: 0x40 }
  - { offset: 0xFE61E, size: 0x8, addend: 0x0, symName: __RNvXNtCs2cqEZUIJimJ_5quote9to_tokensRRNtCs3cP53eQoTwO_11proc_macro25IdentNtB2_8ToTokens9to_tokensCsjOBAykZTw0C_11clap_derive, symObjAddr: 0x2284, symBinAddr: 0x67C38, symSize: 0x40 }
  - { offset: 0xFE663, size: 0x8, addend: 0x0, symName: __RNvYNtCs3cP53eQoTwO_11proc_macro211TokenStreamNtNtCs2cqEZUIJimJ_5quote9to_tokens8ToTokens15to_token_streamCsjOBAykZTw0C_11clap_derive, symObjAddr: 0x29F8, symBinAddr: 0x683AC, symSize: 0x8C }
  - { offset: 0xFE6AD, size: 0x8, addend: 0x0, symName: __RNvYNtCs3cP53eQoTwO_11proc_macro25IdentNtNtCs2cqEZUIJimJ_5quote9to_tokens8ToTokens15to_token_streamCsjOBAykZTw0C_11clap_derive, symObjAddr: 0x2AB4, symBinAddr: 0x68468, symSize: 0x8C }
  - { offset: 0xFEB86, size: 0x8, addend: 0x0, symName: __RINvMNtCsfvfooZQ3Axs_4core6optionINtB3_6OptionINtNtCse1nGBsou5OW_5alloc5boxed3BoxNtNtCs6IAuOt8vWmF_3syn4expr4ExprEE3mapB1h_NCNvXs8_NtB1l_10punctuatedINtB25_10PunctuatedB1h_NtNtB1l_5token5CommaENtNtNtNtB5_4iter6traits7collect12IntoIterator9into_iters_0ECsjOBAykZTw0C_11clap_derive, symObjAddr: 0x0, symBinAddr: 0x68630, symSize: 0x70 }
  - { offset: 0xFEF53, size: 0x8, addend: 0x0, symName: __RNvXsR_NtCs9i5KxIbZ5ph_10proc_macro6bridgeINtNtCsfvfooZQ3Axs_4core6option6OptionNtNtB5_6client11TokenStreamEINtNtB5_3rpc6EncodeuE6encodeCsjOBAykZTw0C_11clap_derive, symObjAddr: 0x2F68, symBinAddr: 0x6B598, symSize: 0xCC }
  - { offset: 0xFEFF9, size: 0x8, addend: 0x0, symName: __RNvXsR_NtCs9i5KxIbZ5ph_10proc_macro6bridgeINtNtCsfvfooZQ3Axs_4core6option6OptionReEINtNtB5_3rpc6EncodeuE6encodeCsjOBAykZTw0C_11clap_derive, symObjAddr: 0x3034, symBinAddr: 0x6B664, symSize: 0xD8 }
  - { offset: 0xFFA88, size: 0x8, addend: 0x0, symName: __RINvXNtNtCsjOBAykZTw0C_11clap_derive5utils5errorRNtNtCs6IAuOt8vWmF_3syn4data7VariantNtB3_13ToTokensError25EXPECTED_Span_OR_ToTokensNtNtCse1nGBsou5OW_5alloc6string6StringEB7_, symObjAddr: 0x3DD4, symBinAddr: 0x6C404, symSize: 0xB0 }
  - { offset: 0xFFAD5, size: 0x8, addend: 0x0, symName: __RINvXNtNtCsjOBAykZTw0C_11clap_derive5utils5errorRRNtNtCs6IAuOt8vWmF_3syn4data7VariantNtB3_13ToTokensError25EXPECTED_Span_OR_ToTokensNtNtCse1nGBsou5OW_5alloc6string6StringEB7_, symObjAddr: 0x3E84, symBinAddr: 0x6C4B4, symSize: 0xB0 }
  - { offset: 0x103416, size: 0x8, addend: 0x0, symName: __RNvXs3_NtCsfvfooZQ3Axs_4core6optionINtB5_6OptionNtNtCsjOBAykZTw0C_11clap_derive4attr9AttrValueENtNtB7_5clone5Clone5cloneBO_, symObjAddr: 0x2C60, symBinAddr: 0x6B290, symSize: 0x7C }
  - { offset: 0x10346B, size: 0x8, addend: 0x0, symName: __RNvXs3_NtCsfvfooZQ3Axs_4core6optionINtB5_6OptionNtNtCsjOBAykZTw0C_11clap_derive4item11ValueParserENtNtB7_5clone5Clone5cloneBO_, symObjAddr: 0x2CDC, symBinAddr: 0x6B30C, symSize: 0x88 }
  - { offset: 0x1034C0, size: 0x8, addend: 0x0, symName: __RNvXs3_NtCsfvfooZQ3Axs_4core6optionINtB5_6OptionNtNtCsjOBAykZTw0C_11clap_derive4item6ActionENtNtB7_5clone5Clone5cloneBO_, symObjAddr: 0x2D64, symBinAddr: 0x6B394, symSize: 0x88 }
  - { offset: 0x103587, size: 0x8, addend: 0x0, symName: __RNvXs5_NtCsfvfooZQ3Axs_4core6optionINtB5_6OptionNtNtCs6IAuOt8vWmF_3syn4expr4ExprENtNtNtNtB7_4iter6traits7collect12IntoIterator9into_iterCsjOBAykZTw0C_11clap_derive, symObjAddr: 0x2DEC, symBinAddr: 0x6B41C, symSize: 0x48 }
  - { offset: 0x1035BF, size: 0x8, addend: 0x0, symName: __RNvXs5_NtCsfvfooZQ3Axs_4core6optionINtB5_6OptionNtNtCsjOBAykZTw0C_11clap_derive4attr8ClapAttrENtNtNtNtB7_4iter6traits7collect12IntoIterator9into_iterBO_, symObjAddr: 0x2E34, symBinAddr: 0x6B464, symSize: 0x50 }
  - { offset: 0x1035F7, size: 0x8, addend: 0x0, symName: __RNvXs5_NtCsfvfooZQ3Axs_4core6optionINtB5_6OptionRNtNtCsjOBAykZTw0C_11clap_derive4item6MethodENtNtNtNtB7_4iter6traits7collect12IntoIterator9into_iterBP_, symObjAddr: 0x2E84, symBinAddr: 0x6B4B4, symSize: 0x14 }
  - { offset: 0x103688, size: 0x8, addend: 0x0, symName: __RNvXsO_NtCsfvfooZQ3Axs_4core6optionINtB5_8IntoIterRNtNtCs6IAuOt8vWmF_3syn4data7VariantENtNtB7_5clone5Clone5cloneCsjOBAykZTw0C_11clap_derive, symObjAddr: 0x2E98, symBinAddr: 0x6B4C8, symSize: 0x68 }
  - { offset: 0x10372F, size: 0x8, addend: 0x0, symName: __RNvXsO_NtCsfvfooZQ3Axs_4core6optionINtB5_8IntoIterRNtNtCs6IAuOt8vWmF_3syn4path15GenericArgumentENtNtB7_5clone5Clone5cloneCsjOBAykZTw0C_11clap_derive, symObjAddr: 0x2F00, symBinAddr: 0x6B530, symSize: 0x68 }
  - { offset: 0x1037DC, size: 0x8, addend: 0x0, symName: __RNvXsc_NtCsfvfooZQ3Axs_4core6optionINtB5_6OptionNtNtCsjOBAykZTw0C_11clap_derive4attr13MagicAttrNameENtNtB7_3cmp9PartialEq2eqBO_, symObjAddr: 0x31BC, symBinAddr: 0x6B7EC, symSize: 0xAC }
  - { offset: 0x1039B7, size: 0x8, addend: 0x0, symName: __RNvXsv_NtCsfvfooZQ3Axs_4core6optionINtB5_8IntoIterNtNtCs6IAuOt8vWmF_3syn4expr4ExprENtNtNtNtB7_4iter6traits8iterator8Iterator4nextCsjOBAykZTw0C_11clap_derive, symObjAddr: 0x35C0, symBinAddr: 0x6BBF0, symSize: 0x60 }
  - { offset: 0x103A5A, size: 0x8, addend: 0x0, symName: __RNvXsv_NtCsfvfooZQ3Axs_4core6optionINtB5_8IntoIterNtNtCs6IAuOt8vWmF_3syn4expr4ExprENtNtNtNtB7_4iter6traits8iterator8Iterator9size_hintCsjOBAykZTw0C_11clap_derive, symObjAddr: 0x3620, symBinAddr: 0x6BC50, symSize: 0x44 }
  - { offset: 0x103AD2, size: 0x8, addend: 0x0, symName: __RNvXsv_NtCsfvfooZQ3Axs_4core6optionINtB5_8IntoIterNtNtCsjOBAykZTw0C_11clap_derive4attr8ClapAttrENtNtNtNtB7_4iter6traits8iterator8Iterator4nextBQ_, symObjAddr: 0x3664, symBinAddr: 0x6BC94, symSize: 0x68 }
  - { offset: 0x103B75, size: 0x8, addend: 0x0, symName: __RNvXsv_NtCsfvfooZQ3Axs_4core6optionINtB5_8IntoIterNtNtCsjOBAykZTw0C_11clap_derive4attr8ClapAttrENtNtNtNtB7_4iter6traits8iterator8Iterator9size_hintBQ_, symObjAddr: 0x36CC, symBinAddr: 0x6BCFC, symSize: 0x44 }
  - { offset: 0x103BED, size: 0x8, addend: 0x0, symName: __RNvXsv_NtCsfvfooZQ3Axs_4core6optionINtB5_8IntoIterRNtNtCs6IAuOt8vWmF_3syn4data7VariantENtNtNtNtB7_4iter6traits8iterator8Iterator9size_hintCsjOBAykZTw0C_11clap_derive, symObjAddr: 0x3710, symBinAddr: 0x6BD40, symSize: 0x44 }
  - { offset: 0x103C65, size: 0x8, addend: 0x0, symName: __RNvXsv_NtCsfvfooZQ3Axs_4core6optionINtB5_8IntoIterRNtNtCs6IAuOt8vWmF_3syn4path15GenericArgumentENtNtNtNtB7_4iter6traits8iterator8Iterator9size_hintCsjOBAykZTw0C_11clap_derive, symObjAddr: 0x3754, symBinAddr: 0x6BD84, symSize: 0x44 }
  - { offset: 0x103CDD, size: 0x8, addend: 0x0, symName: __RNvXsv_NtCsfvfooZQ3Axs_4core6optionINtB5_8IntoIterRNtNtCsjOBAykZTw0C_11clap_derive4item6MethodENtNtNtNtB7_4iter6traits8iterator8Iterator4nextBR_, symObjAddr: 0x3798, symBinAddr: 0x6BDC8, symSize: 0x28 }
  - { offset: 0x104E4A, size: 0x8, addend: 0x0, symName: __RNvXs_NtNtCsfvfooZQ3Axs_4core5slice4iterRSTRNtNtCs6IAuOt8vWmF_3syn4data5FieldNtNtCsjOBAykZTw0C_11clap_derive4item4ItemENtNtNtNtB8_4iter6traits7collect12IntoIterator9into_iterB1h_, symObjAddr: 0x310C, symBinAddr: 0x6B73C, symSize: 0x58 }
  - { offset: 0x104F99, size: 0x8, addend: 0x0, symName: __RNvXs_NtNtCsfvfooZQ3Axs_4core5slice4iterRSTRNtNtCs6IAuOt8vWmF_3syn4data7VariantNtNtCsjOBAykZTw0C_11clap_derive4item4ItemENtNtNtNtB8_4iter6traits7collect12IntoIterator9into_iterB1j_, symObjAddr: 0x3164, symBinAddr: 0x6B794, symSize: 0x58 }
  - { offset: 0x1051AF, size: 0x8, addend: 0x0, symName: __RNvMNtCsfvfooZQ3Axs_4core5sliceSINtNtB4_6option6OptionNtCs3cP53eQoTwO_11proc_macro211TokenStreamE4iterCsjOBAykZTw0C_11clap_derive, symObjAddr: 0x203C, symBinAddr: 0x6A66C, symSize: 0x28 }
  - { offset: 0x1051E6, size: 0x8, addend: 0x0, symName: __RNvMNtCsfvfooZQ3Axs_4core5sliceSTRNtNtCs6IAuOt8vWmF_3syn4data5FieldNtNtCsjOBAykZTw0C_11clap_derive4item4ItemE4iterB17_, symObjAddr: 0x2064, symBinAddr: 0x6A694, symSize: 0x28 }
  - { offset: 0x10521D, size: 0x8, addend: 0x0, symName: __RNvMNtCsfvfooZQ3Axs_4core5sliceSTRNtNtCs6IAuOt8vWmF_3syn4data7VariantNtNtCsjOBAykZTw0C_11clap_derive4item4ItemE4iterB19_, symObjAddr: 0x208C, symBinAddr: 0x6A6BC, symSize: 0x28 }
  - { offset: 0x105254, size: 0x8, addend: 0x0, symName: __RNvMNtCsfvfooZQ3Axs_4core5sliceSTRRNtNtCs6IAuOt8vWmF_3syn4data7VariantRNtNtCsjOBAykZTw0C_11clap_derive4item4ItemE4iterB1b_, symObjAddr: 0x20B4, symBinAddr: 0x6A6E4, symSize: 0x28 }
  - { offset: 0x1052D9, size: 0x8, addend: 0x0, symName: __RNvMNtCsfvfooZQ3Axs_4core5sliceSh15copy_from_sliceCsjOBAykZTw0C_11clap_derive, symObjAddr: 0x20DC, symBinAddr: 0x6A70C, symSize: 0xA4 }
  - { offset: 0x10545C, size: 0x8, addend: 0x0, symName: __RNCINvNtNtNtCsfvfooZQ3Axs_4core4iter8adapters10filter_map19filter_map_try_foldRNtNtCs6IAuOt8vWmF_3syn4attr9AttributeNtNtCse1nGBsou5OW_5alloc6string6StringuINtNtNtBa_3ops12control_flow11ControlFlowB1Q_ENCNvNtNtCsjOBAykZTw0C_11clap_derive5utils12doc_comments19extract_doc_comments_0NCINvNvNtNtNtB8_6traits8iterator8Iterator4find5checkB1Q_NCINvNvXs0_NtB6_10skip_whileINtB5z_9SkipWhileppEB4B_4next5checkB1Q_NCB3f_s0_0E0E0E0B3l_, symObjAddr: 0x1F18, symBinAddr: 0x6A548, symSize: 0xDC }
  - { offset: 0x105511, size: 0x8, addend: 0x0, symName: __RINvXs0_NtNtNtCsfvfooZQ3Axs_4core4iter8adapters10filter_mapINtB6_9FilterMapINtNtB8_6filter6FilterINtNtNtBc_5slice4iter4IterNtNtCs6IAuOt8vWmF_3syn4attr9AttributeENCNvNtNtCsjOBAykZTw0C_11clap_derive5utils12doc_comments19extract_doc_comment0ENCB2B_s_0ENtNtNtBa_6traits8iterator8Iterator8try_folduNCINvNvB3Z_4find5checkNtNtCse1nGBsou5OW_5alloc6string6StringNCINvNvXs0_NtB8_10skip_whileINtB5Q_9SkipWhileppEB3Z_4next5checkB53_NCB2B_s0_0E0E0INtNtNtBc_3ops12control_flow11ControlFlowB53_EEB2H_, symObjAddr: 0x164C, symBinAddr: 0x69C7C, symSize: 0x54 }
  - { offset: 0x1055B4, size: 0x8, addend: 0x0, symName: __RINvXs0_NtNtNtCsfvfooZQ3Axs_4core4iter8adapters10filter_mapINtB6_9FilterMapINtNtNtBc_5slice4iter4IterTRNtNtCs6IAuOt8vWmF_3syn4data7VariantNtNtCsjOBAykZTw0C_11clap_derive4item4ItemEENCNvNtNtB2g_7derives10subcommand18gen_has_subcommand0ENtNtNtBa_6traits8iterator8Iterator4folduNCINvNvB3L_9partition6extendTRB1C_RB2c_EINtNtCse1nGBsou5OW_5alloc3vec3VecB4R_ENCB2V_s_0E0EB2g_, symObjAddr: 0x16A0, symBinAddr: 0x69CD0, symSize: 0x58 }
  - { offset: 0x10564B, size: 0x8, addend: 0x0, symName: __RINvXs0_NtNtNtCsfvfooZQ3Axs_4core4iter8adapters10filter_mapINtB6_9FilterMapINtNtNtBc_5slice4iter4IterTRNtNtCs6IAuOt8vWmF_3syn4data7VariantNtNtCsjOBAykZTw0C_11clap_derive4item4ItemEENCNvNtNtB2g_7derives10subcommand27gen_update_from_arg_matches0ENtNtNtBa_6traits8iterator8Iterator4folduNCINvNvB3U_9partition6extendTRB1C_RB2c_EINtNtCse1nGBsou5OW_5alloc3vec3VecB50_ENCB2V_s_0E0EB2g_, symObjAddr: 0x16F8, symBinAddr: 0x69D28, symSize: 0x3C }
  - { offset: 0x1056BC, size: 0x8, addend: 0x0, symName: __RNvXs0_NtNtNtCsfvfooZQ3Axs_4core4iter8adapters10filter_mapINtB5_9FilterMapINtNtB7_6filter6FilterINtNtNtBb_5slice4iter4IterNtNtCs6IAuOt8vWmF_3syn4attr9AttributeENCNvNtNtCsjOBAykZTw0C_11clap_derive5utils12doc_comments19extract_doc_comment0ENCB2A_s_0ENtNtNtB9_6traits8iterator8Iterator9size_hintB2G_, symObjAddr: 0x2A90, symBinAddr: 0x6B0C0, symSize: 0x4C }
  - { offset: 0x105720, size: 0x8, addend: 0x0, symName: __RNvXs0_NtNtNtCsfvfooZQ3Axs_4core4iter8adapters10filter_mapINtB5_9FilterMapINtNtNtBb_5slice4iter4IterTRNtNtCs6IAuOt8vWmF_3syn4data5FieldNtNtCsjOBAykZTw0C_11clap_derive4item4ItemEENCNvNtNtB2d_7derives4args11gen_augment0ENtNtNtB9_6traits8iterator8Iterator4nextB2d_, symObjAddr: 0x2ADC, symBinAddr: 0x6B10C, symSize: 0x2C }
  - { offset: 0x105767, size: 0x8, addend: 0x0, symName: __RNvXs0_NtNtNtCsfvfooZQ3Axs_4core4iter8adapters10filter_mapINtB5_9FilterMapINtNtNtBb_5slice4iter4IterTRNtNtCs6IAuOt8vWmF_3syn4data5FieldNtNtCsjOBAykZTw0C_11clap_derive4item4ItemEENCNvNtNtB2d_7derives4args11gen_augment0ENtNtNtB9_6traits8iterator8Iterator9size_hintB2d_, symObjAddr: 0x2B08, symBinAddr: 0x6B138, symSize: 0x4C }
  - { offset: 0x105843, size: 0x8, addend: 0x0, symName: __RNCINvNtNtNtCsfvfooZQ3Axs_4core4iter8adapters10filter_map15filter_map_foldRTRNtNtCs6IAuOt8vWmF_3syn4data7VariantNtNtCsjOBAykZTw0C_11clap_derive4item4ItemETRB1c_RB1M_EuNCNvNtNtB1Q_7derives10subcommand18gen_has_subcommand0NCINvNvNtNtNtB8_6traits8iterator8Iterator9partition6extendB2s_INtNtCse1nGBsou5OW_5alloc3vec3VecB2s_ENCB2H_s_0E0E0B1Q_, symObjAddr: 0x1DA8, symBinAddr: 0x6A3D8, symSize: 0xB8 }
  - { offset: 0x1058E5, size: 0x8, addend: 0x0, symName: __RNCINvNtNtNtCsfvfooZQ3Axs_4core4iter8adapters10filter_map15filter_map_foldRTRNtNtCs6IAuOt8vWmF_3syn4data7VariantNtNtCsjOBAykZTw0C_11clap_derive4item4ItemETRB1c_RB1M_EuNCNvNtNtB1Q_7derives10subcommand27gen_update_from_arg_matches0NCINvNvNtNtNtB8_6traits8iterator8Iterator9partition6extendB2s_INtNtCse1nGBsou5OW_5alloc3vec3VecB2s_ENCB2H_s_0E0E0B1Q_, symObjAddr: 0x1E60, symBinAddr: 0x6A490, symSize: 0xB8 }
  - { offset: 0x105C1A, size: 0x8, addend: 0x0, symName: __RINvYINtNtCsfvfooZQ3Axs_4core6option8IntoIterNtNtCs6IAuOt8vWmF_3syn4expr4ExprENtNtNtNtB8_4iter6traits8iterator8Iterator4folduNCINvNvB1e_8for_each4callBH_NCINvMsi_NtCse1nGBsou5OW_5alloc3vecINtB2A_3VecBH_E14extend_trustedB3_E0E0ECsjOBAykZTw0C_11clap_derive, symObjAddr: 0x1734, symBinAddr: 0x69D64, symSize: 0x144 }
  - { offset: 0x105D3E, size: 0x8, addend: 0x0, symName: __RINvYINtNtCsfvfooZQ3Axs_4core6option8IntoIterNtNtCs6IAuOt8vWmF_3syn4expr4ExprENtNtNtNtB8_4iter6traits8iterator8Iterator8for_eachNCINvMsi_NtCse1nGBsou5OW_5alloc3vecINtB2b_3VecBH_E14extend_trustedB3_E0ECsjOBAykZTw0C_11clap_derive, symObjAddr: 0x1878, symBinAddr: 0x69EA8, symSize: 0x34 }
  - { offset: 0x105DAA, size: 0x8, addend: 0x0, symName: __RINvYINtNtCsfvfooZQ3Axs_4core6option8IntoIterNtNtCsjOBAykZTw0C_11clap_derive4attr8ClapAttrENtNtNtNtB8_4iter6traits8iterator8Iterator4folduNCINvNvB1r_8for_each4callBH_NCINvMsi_NtCse1nGBsou5OW_5alloc3vecINtB2N_3VecBH_E14extend_trustedB3_E0E0EBL_, symObjAddr: 0x18AC, symBinAddr: 0x69EDC, symSize: 0x144 }
  - { offset: 0x105E3C, size: 0x8, addend: 0x0, symName: __RINvYINtNtCsfvfooZQ3Axs_4core6option8IntoIterNtNtCsjOBAykZTw0C_11clap_derive4attr8ClapAttrENtNtNtNtB8_4iter6traits8iterator8Iterator8for_eachNCINvMsi_NtCse1nGBsou5OW_5alloc3vecINtB2o_3VecBH_E14extend_trustedB3_E0EBL_, symObjAddr: 0x19F0, symBinAddr: 0x6A020, symSize: 0x34 }
  - { offset: 0x105EA8, size: 0x8, addend: 0x0, symName: __RINvYINtNtNtNtCsfvfooZQ3Axs_4core4iter8adapters10filter_map9FilterMapINtNtB8_6filter6FilterINtNtNtBc_5slice4iter4IterNtNtCs6IAuOt8vWmF_3syn4attr9AttributeENCNvNtNtCsjOBAykZTw0C_11clap_derive5utils12doc_comments19extract_doc_comment0ENCB2v_s_0ENtNtNtBa_6traits8iterator8Iterator10skip_whileNCB2v_s0_0EB2B_, symObjAddr: 0x1A24, symBinAddr: 0x6A054, symSize: 0x28 }
  - { offset: 0x105F0C, size: 0x8, addend: 0x0, symName: __RINvYINtNtNtNtCsfvfooZQ3Axs_4core4iter8adapters10filter_map9FilterMapINtNtB8_6filter6FilterINtNtNtBc_5slice4iter4IterNtNtCs6IAuOt8vWmF_3syn4attr9AttributeENCNvNtNtCsjOBAykZTw0C_11clap_derive5utils12doc_comments19extract_doc_comment0ENCB2v_s_0ENtNtNtBa_6traits8iterator8Iterator4findNCINvNvXs0_NtB8_10skip_whileINtB4H_9SkipWhileppEB3T_4next5checkNtNtCse1nGBsou5OW_5alloc6string6StringNCB2v_s0_0E0EB2B_, symObjAddr: 0x1A4C, symBinAddr: 0x6A07C, symSize: 0xB4 }
  - { offset: 0x105F87, size: 0x8, addend: 0x0, symName: __RINvYINtNtNtNtCsfvfooZQ3Axs_4core4iter8adapters10filter_map9FilterMapINtNtNtBc_5slice4iter4IterTRNtNtCs6IAuOt8vWmF_3syn4data5FieldNtNtCsjOBAykZTw0C_11clap_derive4item4ItemEENCNvNtNtB28_7derives4args11gen_augment0ENtNtNtBa_6traits8iterator8Iterator7collectINtNtCse1nGBsou5OW_5alloc3vec3VecRNtB26_4NameEEB28_, symObjAddr: 0x1B00, symBinAddr: 0x6A130, symSize: 0x34 }
  - { offset: 0x105FC7, size: 0x8, addend: 0x0, symName: __RINvYINtNtNtNtCsfvfooZQ3Axs_4core4iter8adapters10filter_map9FilterMapINtNtNtBc_5slice4iter4IterTRNtNtCs6IAuOt8vWmF_3syn4data7VariantNtNtCsjOBAykZTw0C_11clap_derive4item4ItemEENCNvNtNtB2a_7derives10subcommand18gen_has_subcommand0ENtNtNtBa_6traits8iterator8Iterator9partitionINtNtCse1nGBsou5OW_5alloc3vec3VecTRB1w_RB26_EENCB2P_s_0EB2a_, symObjAddr: 0x1B34, symBinAddr: 0x6A164, symSize: 0x13C }
  - { offset: 0x10604C, size: 0x8, addend: 0x0, symName: __RINvYINtNtNtNtCsfvfooZQ3Axs_4core4iter8adapters10filter_map9FilterMapINtNtNtBc_5slice4iter4IterTRNtNtCs6IAuOt8vWmF_3syn4data7VariantNtNtCsjOBAykZTw0C_11clap_derive4item4ItemEENCNvNtNtB2a_7derives10subcommand27gen_update_from_arg_matches0ENtNtNtBa_6traits8iterator8Iterator9partitionINtNtCse1nGBsou5OW_5alloc3vec3VecTRB1w_RB26_EENCB2P_s_0EB2a_, symObjAddr: 0x1C70, symBinAddr: 0x6A2A0, symSize: 0x138 }
  - { offset: 0x1060E1, size: 0x8, addend: 0x0, symName: __RNCINvXsK_NtNtNtCsfvfooZQ3Axs_4core4iter6traits5accumjNtB8_3Sum3sumINtNtNtBc_8adapters3map3MapINtNtNtBe_5slice4iter4IterTRNtNtCs6IAuOt8vWmF_3syn4data5FieldNtNtCsjOBAykZTw0C_11clap_derive4item4ItemEENCINvNvXs1_NtB18_6filterINtB3l_6FilterppENtNtBa_8iterator8Iterator5count8to_usizeRB1U_NCNvNtNtB2x_7derives4args11gen_augments_0E0EE0B2x_, symObjAddr: 0x1FF4, symBinAddr: 0x6A624, symSize: 0x48 }
  - { offset: 0x106142, size: 0x8, addend: 0x0, symName: __RNvXNtNtNtCsfvfooZQ3Axs_4core4iter6traits7collectINtNtNtB6_8adapters10filter_map9FilterMapINtNtNtB8_5slice4iter4IterTRNtNtCs6IAuOt8vWmF_3syn4data5FieldNtNtCsjOBAykZTw0C_11clap_derive4item4ItemEENCNvNtNtB2t_7derives4args11gen_augment0ENtB2_12IntoIterator9into_iterB2t_, symObjAddr: 0x2944, symBinAddr: 0x6AF74, symSize: 0x1C }
  - { offset: 0x106185, size: 0x8, addend: 0x0, symName: __RNvYINtNtCsfvfooZQ3Axs_4core6option8IntoIterRNtNtCs6IAuOt8vWmF_3syn4data7VariantENtNtNtNtB7_4iter6traits10exact_size17ExactSizeIterator3lenCsjOBAykZTw0C_11clap_derive, symObjAddr: 0x37C0, symBinAddr: 0x6BDF0, symSize: 0xF4 }
  - { offset: 0x106278, size: 0x8, addend: 0x0, symName: __RNvYINtNtCsfvfooZQ3Axs_4core6option8IntoIterRNtNtCs6IAuOt8vWmF_3syn4path15GenericArgumentENtNtNtNtB7_4iter6traits10exact_size17ExactSizeIterator3lenCsjOBAykZTw0C_11clap_derive, symObjAddr: 0x38B4, symBinAddr: 0x6BEE4, symSize: 0xF4 }
  - { offset: 0x1064A9, size: 0x8, addend: 0x0, symName: __RNvNvNtNtCsfvfooZQ3Axs_4core4char7convert18from_u32_unchecked18precondition_checkCsjOBAykZTw0C_11clap_derive, symObjAddr: 0x271C, symBinAddr: 0x6AD4C, symSize: 0x98 }
  - { offset: 0x10B4F2, size: 0x8, addend: 0x0, symName: __RINvNtCs6IAuOt8vWmF_3syn5parse12parse_scopedNvMNtB4_10punctuatedINtBJ_10PunctuatedNtNtCsjOBAykZTw0C_11clap_derive4attr8ClapAttrNtNtB4_5token5CommaE16parse_terminatedEB1m_, symObjAddr: 0x161C, symBinAddr: 0x69C4C, symSize: 0x30 }
  - { offset: 0x10B54D, size: 0x8, addend: 0x0, symName: __RNvXsh_NtCs6IAuOt8vWmF_3syn5parseNvYNtNtB7_6derive11DeriveInputNtB5_5Parse5parseNtB5_6Parser6parse2CsjOBAykZTw0C_11clap_derive, symObjAddr: 0x3268, symBinAddr: 0x6B898, symSize: 0x358 }
  - { offset: 0x10B663, size: 0x8, addend: 0x0, symName: __RNvYNvYNtNtCs6IAuOt8vWmF_3syn6derive11DeriveInputNtNtB9_5parse5Parse5parseNtBN_6Parser5parseCsjOBAykZTw0C_11clap_derive, symObjAddr: 0x39CC, symBinAddr: 0x6BFFC, symSize: 0x88 }
  - { offset: 0x10B7E9, size: 0x8, addend: 0x0, symName: __RNvXNtCs6IAuOt8vWmF_3syn7spannedNtNtB4_4data5FieldNtB2_7Spanned4spanCsjOBAykZTw0C_11clap_derive, symObjAddr: 0x2874, symBinAddr: 0x6AEA4, symSize: 0x34 }
  - { offset: 0x10B81E, size: 0x8, addend: 0x0, symName: __RNvXNtCs6IAuOt8vWmF_3syn7spannedNtNtB4_4data7VariantNtB2_7Spanned4spanCsjOBAykZTw0C_11clap_derive, symObjAddr: 0x28A8, symBinAddr: 0x6AED8, symSize: 0x34 }
  - { offset: 0x10B853, size: 0x8, addend: 0x0, symName: __RNvXNtCs6IAuOt8vWmF_3syn7spannedRNtNtB4_4data5FieldNtB2_7Spanned4spanCsjOBAykZTw0C_11clap_derive, symObjAddr: 0x28DC, symBinAddr: 0x6AF0C, symSize: 0x34 }
  - { offset: 0x10B888, size: 0x8, addend: 0x0, symName: __RNvXNtCs6IAuOt8vWmF_3syn7spannedRNtNtB4_4data7VariantNtB2_7Spanned4spanCsjOBAykZTw0C_11clap_derive, symObjAddr: 0x2910, symBinAddr: 0x6AF40, symSize: 0x34 }
  - { offset: 0x10CAE5, size: 0x8, addend: 0x0, symName: __RNvXNvXNtNtCse1nGBsou5OW_5alloc5slice4hackpNtB5_10ConvertVec6to_vecINtB2_9DropGuardNtNtCs6IAuOt8vWmF_3syn4expr4ExprNtNtB9_5alloc6GlobalENtNtNtCsfvfooZQ3Axs_4core3ops4drop4Drop4dropCsjOBAykZTw0C_11clap_derive, symObjAddr: 0x2960, symBinAddr: 0x6AF90, symSize: 0x20 }
  - { offset: 0x10D0A6, size: 0x8, addend: 0x0, symName: __RINvMNtCsfvfooZQ3Axs_4core6optionINtB3_6OptionINtNtCse1nGBsou5OW_5alloc5boxed3BoxNtNtCs6IAuOt8vWmF_3syn4expr4ExprEE3mapB1h_NCNvXs8_NtB1l_10punctuatedINtB25_10PunctuatedB1h_NtNtB1l_5token5CommaENtNtNtNtB5_4iter6traits7collect12IntoIterator9into_iters_0ECsjOBAykZTw0C_11clap_derive, symObjAddr: 0x0, symBinAddr: 0x68630, symSize: 0x70 }
  - { offset: 0x10D11E, size: 0x8, addend: 0x0, symName: __RINvMNtCsfvfooZQ3Axs_4core6optionINtB3_6OptionINtNtCse1nGBsou5OW_5alloc5boxed3BoxNtNtCsjOBAykZTw0C_11clap_derive4attr8ClapAttrEE3mapB1h_NCNvXs8_NtCs6IAuOt8vWmF_3syn10punctuatedINtB2i_10PunctuatedB1h_NtNtB2k_5token5CommaENtNtNtNtB5_4iter6traits7collect12IntoIterator9into_iters_0EB1l_, symObjAddr: 0x70, symBinAddr: 0x686A0, symSize: 0x78 }
  - { offset: 0x10D1C1, size: 0x8, addend: 0x0, symName: __RINvMNtCsfvfooZQ3Axs_4core6optionINtB3_6OptionINtNtNtCsjOBAykZTw0C_11clap_derive5utils7spanned2SpNtNtBN_2ty2TyEE14unwrap_or_elseNCNvMNtBP_4itemNtB27_4Item10infer_kind0EBP_, symObjAddr: 0xE8, symBinAddr: 0x68718, symSize: 0x74 }
  - { offset: 0x10D223, size: 0x8, addend: 0x0, symName: __RINvMNtCsfvfooZQ3Axs_4core6optionINtB3_6OptionINtNtNtCsjOBAykZTw0C_11clap_derive5utils7spanned2SpNtNtBN_2ty2TyEE14unwrap_or_elseNCNvMNtBP_4itemNtB27_4Item10infer_kinds0_0EBP_, symObjAddr: 0x15C, symBinAddr: 0x6878C, symSize: 0x74 }
  - { offset: 0x10D285, size: 0x8, addend: 0x0, symName: __RINvMNtCsfvfooZQ3Axs_4core6optionINtB3_6OptionINtNtNtCsjOBAykZTw0C_11clap_derive5utils7spanned2SpNtNtBN_2ty2TyEE14unwrap_or_elseNCNvMNtBP_4itemNtB27_4Item10infer_kinds_0EBP_, symObjAddr: 0x1D0, symBinAddr: 0x68800, symSize: 0x74 }
  - { offset: 0x10D2E7, size: 0x8, addend: 0x0, symName: __RINvMNtCsfvfooZQ3Axs_4core6optionINtB3_6OptionNtCs3cP53eQoTwO_11proc_macro211TokenStreamE14unwrap_or_elseNCNCNvCsjOBAykZTw0C_11clap_derive6parser0s_0EB1L_, symObjAddr: 0x244, symBinAddr: 0x68874, symSize: 0x70 }
  - { offset: 0x10D34A, size: 0x8, addend: 0x0, symName: __RINvMNtCsfvfooZQ3Axs_4core6optionINtB3_6OptionNtCs3cP53eQoTwO_11proc_macro211TokenStreamE14unwrap_or_elseNCNvMNtCsjOBAykZTw0C_11clap_derive4itemNtB1K_4Item16push_doc_comments1_0EB1M_, symObjAddr: 0x2B4, symBinAddr: 0x688E4, symSize: 0x70 }
  - { offset: 0x10D3AD, size: 0x8, addend: 0x0, symName: __RINvMNtCsfvfooZQ3Axs_4core6optionINtB3_6OptionNtCs3cP53eQoTwO_11proc_macro211TokenStreamE14unwrap_or_elseNCNvMNtCsjOBAykZTw0C_11clap_derive4itemNtB1K_4Item16push_doc_comments3_0EB1M_, symObjAddr: 0x324, symBinAddr: 0x68954, symSize: 0x70 }
  - { offset: 0x10D41D, size: 0x8, addend: 0x0, symName: __RINvMNtCsfvfooZQ3Axs_4core6optionINtB3_6OptionNtCs3cP53eQoTwO_11proc_macro211TokenStreamE3mapBI_NCNCNvCsjOBAykZTw0C_11clap_derive6parser00EB1C_, symObjAddr: 0x394, symBinAddr: 0x689C4, symSize: 0x9C }
  - { offset: 0x10D496, size: 0x8, addend: 0x0, symName: __RINvMNtCsfvfooZQ3Axs_4core6optionINtB3_6OptionNtCs3cP53eQoTwO_11proc_macro24SpanE14unwrap_or_elseNCNCNvMNtCsjOBAykZTw0C_11clap_derive4itemNtB1E_4Item12value_parsers_0s_0EB1G_, symObjAddr: 0x430, symBinAddr: 0x68A60, symSize: 0x58 }
  - { offset: 0x10D4F8, size: 0x8, addend: 0x0, symName: __RINvMNtCsfvfooZQ3Axs_4core6optionINtB3_6OptionNtCs3cP53eQoTwO_11proc_macro24SpanE14unwrap_or_elseNCNCNvMNtCsjOBAykZTw0C_11clap_derive4itemNtB1E_4Item6actions_0s_0EB1G_, symObjAddr: 0x488, symBinAddr: 0x68AB8, symSize: 0x58 }
  - { offset: 0x10D55A, size: 0x8, addend: 0x0, symName: __RINvMNtCsfvfooZQ3Axs_4core6optionINtB3_6OptionNtNtCse1nGBsou5OW_5alloc6string6StringE3mapNtCs3cP53eQoTwO_11proc_macro211TokenStreamNCNvMNtCsjOBAykZTw0C_11clap_derive4itemNtB2a_4Item16push_doc_comments0_0EB2c_, symObjAddr: 0x4E0, symBinAddr: 0x68B10, symSize: 0x90 }
  - { offset: 0x10D5C6, size: 0x8, addend: 0x0, symName: __RINvMNtCsfvfooZQ3Axs_4core6optionINtB3_6OptionNtNtCse1nGBsou5OW_5alloc6string6StringE3mapNtCs3cP53eQoTwO_11proc_macro211TokenStreamNCNvMNtCsjOBAykZTw0C_11clap_derive4itemNtB2a_4Item16push_doc_comments2_0EB2c_, symObjAddr: 0x570, symBinAddr: 0x68BA0, symSize: 0x90 }
  - { offset: 0x10D64C, size: 0x8, addend: 0x0, symName: __RINvMNtCsfvfooZQ3Axs_4core6optionINtB3_6OptionNtNtCse1nGBsou5OW_5alloc6string6StringE7or_elseNCNvNtNtCsjOBAykZTw0C_11clap_derive5utils12doc_comments18format_doc_comment0EB1B_, symObjAddr: 0x600, symBinAddr: 0x68C30, symSize: 0xE0 }
  - { offset: 0x10D6BC, size: 0x8, addend: 0x0, symName: __RINvMNtCsfvfooZQ3Axs_4core6optionINtB3_6OptionNtNtCsjOBAykZTw0C_11clap_derive4item11ValueParserE3mapNtBK_6MethodNCNvMBK_NtBK_4Item12value_parser0EBM_, symObjAddr: 0x6E0, symBinAddr: 0x68D10, symSize: 0xB4 }
  - { offset: 0x10D729, size: 0x8, addend: 0x0, symName: __RINvMNtCsfvfooZQ3Axs_4core6optionINtB3_6OptionNtNtCsjOBAykZTw0C_11clap_derive4item6ActionE3mapNtBK_6MethodNCNvMBK_NtBK_4Item6action0EBM_, symObjAddr: 0x794, symBinAddr: 0x68DC4, symSize: 0xB4 }
  - { offset: 0x10D796, size: 0x8, addend: 0x0, symName: __RINvMNtCsfvfooZQ3Axs_4core6optionINtB3_6OptionNtNtCsjOBAykZTw0C_11clap_derive4item6MethodE14unwrap_or_elseNCNvMBK_NtBK_4Item12value_parsers_0EBM_, symObjAddr: 0x848, symBinAddr: 0x68E78, symSize: 0x8C }
  - { offset: 0x10D7F9, size: 0x8, addend: 0x0, symName: __RINvMNtCsfvfooZQ3Axs_4core6optionINtB3_6OptionNtNtCsjOBAykZTw0C_11clap_derive4item6MethodE14unwrap_or_elseNCNvMBK_NtBK_4Item6actions_0EBM_, symObjAddr: 0x8D4, symBinAddr: 0x68F04, symSize: 0x8C }
  - { offset: 0x10D8AC, size: 0x8, addend: 0x0, symName: __RINvMNtCsfvfooZQ3Axs_4core6optionINtB3_6OptionRINtNtNtCse1nGBsou5OW_5alloc3vec9into_iter8IntoIterNtNtBQ_6string6StringEE6map_orTjIBw_jEENvYBJ_NtNtNtNtB5_4iter6traits8iterator8Iterator9size_hintECsjOBAykZTw0C_11clap_derive, symObjAddr: 0x960, symBinAddr: 0x68F90, symSize: 0xAC }
  - { offset: 0x10D948, size: 0x8, addend: 0x0, symName: __RINvMNtCsfvfooZQ3Axs_4core6optionINtB3_6OptionRNtNtCs6IAuOt8vWmF_3syn2ty4TypeE10ok_or_elseNtNtBN_5error5ErrorNCNvNtNtCsjOBAykZTw0C_11clap_derive7derives10subcommand11gen_augment0EB1R_, symObjAddr: 0xA0C, symBinAddr: 0x6903C, symSize: 0x7C }
  - { offset: 0x10D9CB, size: 0x8, addend: 0x0, symName: __RINvMNtCsfvfooZQ3Axs_4core6optionINtB3_6OptionRNtNtCs6IAuOt8vWmF_3syn2ty4TypeE8and_thenBI_NvNtNtCsjOBAykZTw0C_11clap_derive5utils2ty8sub_typeEB1w_, symObjAddr: 0xA88, symBinAddr: 0x690B8, symSize: 0x50 }
  - { offset: 0x10DA50, size: 0x8, addend: 0x0, symName: __RINvMNtCsfvfooZQ3Axs_4core6optionINtB3_6OptionRNtNtCs6IAuOt8vWmF_3syn4data7VariantE7or_elseNCNvXsw_NtBN_10punctuatedINtB1z_11PrivateIterBJ_NtNtBN_5token5CommaENtNtNtNtB5_4iter6traits8iterator8Iterator4nexts_0ECsjOBAykZTw0C_11clap_derive, symObjAddr: 0xAD8, symBinAddr: 0x69108, symSize: 0xA8 }
  - { offset: 0x10DAD9, size: 0x8, addend: 0x0, symName: __RINvMNtCsfvfooZQ3Axs_4core6optionINtB3_6OptionRNtNtCs6IAuOt8vWmF_3syn4data7VariantE7or_elseNCNvXsx_NtBN_10punctuatedINtB1z_11PrivateIterBJ_NtNtBN_5token5CommaENtNtNtNtB5_4iter6traits12double_ended19DoubleEndedIterator9next_back0ECsjOBAykZTw0C_11clap_derive, symObjAddr: 0xB80, symBinAddr: 0x691B0, symSize: 0xA8 }
  - { offset: 0x10DB55, size: 0x8, addend: 0x0, symName: __RINvMNtCsfvfooZQ3Axs_4core6optionINtB3_6OptionRNtNtCs6IAuOt8vWmF_3syn4path11PathSegmentE3mapbNCNvNtNtCsjOBAykZTw0C_11clap_derive5utils2ty12is_simple_ty0EB1B_, symObjAddr: 0xC28, symBinAddr: 0x69258, symSize: 0x60 }
  - { offset: 0x10DC15, size: 0x8, addend: 0x0, symName: __RINvMNtCsfvfooZQ3Axs_4core6optionINtB3_6OptionRNtNtCs6IAuOt8vWmF_3syn4path11PathSegmentE6filterNCINvNtNtCsjOBAykZTw0C_11clap_derive5utils2ty8only_oneINtNtBN_10punctuated4IterBJ_EBI_E0EB1E_, symObjAddr: 0xC88, symBinAddr: 0x692B8, symSize: 0x104 }
  - { offset: 0x10DC6F, size: 0x8, addend: 0x0, symName: __RINvMNtCsfvfooZQ3Axs_4core6optionINtB3_6OptionRNtNtCs6IAuOt8vWmF_3syn4path11PathSegmentE6filterNCINvNtNtCsjOBAykZTw0C_11clap_derive5utils2ty8subty_ifNCNvB1A_13subty_if_name0E0EB1E_, symObjAddr: 0xD8C, symBinAddr: 0x693BC, symSize: 0x104 }
  - { offset: 0x10DCC9, size: 0x8, addend: 0x0, symName: __RINvMNtCsfvfooZQ3Axs_4core6optionINtB3_6OptionRNtNtCs6IAuOt8vWmF_3syn4path11PathSegmentE6filterNCINvNtNtCsjOBAykZTw0C_11clap_derive5utils2ty8subty_ifNCNvB1A_8sub_type0E0EB1E_, symObjAddr: 0xE90, symBinAddr: 0x694C0, symSize: 0xF8 }
  - { offset: 0x10DD23, size: 0x8, addend: 0x0, symName: __RINvMNtCsfvfooZQ3Axs_4core6optionINtB3_6OptionRNtNtCs6IAuOt8vWmF_3syn4path11PathSegmentE8and_thenRNtNtBN_2ty4TypeNCINvNtNtCsjOBAykZTw0C_11clap_derive5utils2ty8subty_ifNCNvB1S_13subty_if_name0Es_0EB1W_, symObjAddr: 0xF88, symBinAddr: 0x695B8, symSize: 0x50 }
  - { offset: 0x10DD8E, size: 0x8, addend: 0x0, symName: __RINvMNtCsfvfooZQ3Axs_4core6optionINtB3_6OptionRNtNtCs6IAuOt8vWmF_3syn4path11PathSegmentE8and_thenRNtNtBN_2ty4TypeNCINvNtNtCsjOBAykZTw0C_11clap_derive5utils2ty8subty_ifNCNvB1S_8sub_type0Es_0EB1W_, symObjAddr: 0xFD8, symBinAddr: 0x69608, symSize: 0x50 }
  - { offset: 0x10DE41, size: 0x8, addend: 0x0, symName: __RINvMNtCsfvfooZQ3Axs_4core6optionINtB3_6OptionRNtNtCs6IAuOt8vWmF_3syn4path15GenericArgumentE6filterNCINvNtNtCsjOBAykZTw0C_11clap_derive5utils2ty8only_oneINtNtBN_10punctuated4IterBJ_EBI_E0EB1I_, symObjAddr: 0x1028, symBinAddr: 0x69658, symSize: 0x104 }
  - { offset: 0x10DEA8, size: 0x8, addend: 0x0, symName: __RINvMNtCsfvfooZQ3Axs_4core6optionINtB3_6OptionRNtNtCs6IAuOt8vWmF_3syn4path15GenericArgumentE7or_elseNCNvXsw_NtBN_10punctuatedINtB1I_11PrivateIterBJ_NtNtBN_5token5CommaENtNtNtNtB5_4iter6traits8iterator8Iterator4nexts_0ECsjOBAykZTw0C_11clap_derive, symObjAddr: 0x112C, symBinAddr: 0x6975C, symSize: 0xA8 }
  - { offset: 0x10DF31, size: 0x8, addend: 0x0, symName: __RINvMNtCsfvfooZQ3Axs_4core6optionINtB3_6OptionRNtNtCs6IAuOt8vWmF_3syn4path15GenericArgumentE7or_elseNCNvXsx_NtBN_10punctuatedINtB1I_11PrivateIterBJ_NtNtBN_5token5CommaENtNtNtNtB5_4iter6traits12double_ended19DoubleEndedIterator9next_back0ECsjOBAykZTw0C_11clap_derive, symObjAddr: 0x11D4, symBinAddr: 0x69804, symSize: 0xA8 }
  - { offset: 0x10DF93, size: 0x8, addend: 0x0, symName: __RINvMNtCsfvfooZQ3Axs_4core6optionINtB3_6OptionRNtNtCs6IAuOt8vWmF_3syn4path15GenericArgumentE8and_thenRNtNtBN_2ty4TypeNCNCINvNtNtCsjOBAykZTw0C_11clap_derive5utils2ty8subty_ifNCNvB1Y_13subty_if_name0Es_00EB22_, symObjAddr: 0x127C, symBinAddr: 0x698AC, symSize: 0x50 }
  - { offset: 0x10DFFE, size: 0x8, addend: 0x0, symName: __RINvMNtCsfvfooZQ3Axs_4core6optionINtB3_6OptionRNtNtCs6IAuOt8vWmF_3syn4path15GenericArgumentE8and_thenRNtNtBN_2ty4TypeNCNCINvNtNtCsjOBAykZTw0C_11clap_derive5utils2ty8subty_ifNCNvB1Y_8sub_type0Es_00EB22_, symObjAddr: 0x12CC, symBinAddr: 0x698FC, symSize: 0x50 }
  - { offset: 0x10E069, size: 0x8, addend: 0x0, symName: __RINvMNtCsfvfooZQ3Axs_4core6optionINtB3_6OptionRNtNtCse1nGBsou5OW_5alloc6string6StringE3mapbNCNvNtNtCsjOBAykZTw0C_11clap_derive5utils12doc_comments19extract_doc_comments2_0EB1z_, symObjAddr: 0x131C, symBinAddr: 0x6994C, symSize: 0x54 }
  - { offset: 0x10E0EE, size: 0x8, addend: 0x0, symName: __RINvMNtCsfvfooZQ3Axs_4core6optionINtB3_6OptionRNtNtCsjOBAykZTw0C_11clap_derive4attr9AttrValueE10ok_or_elseNtNtCs6IAuOt8vWmF_3syn5error5ErrorNCNvMBL_NtBL_8ClapAttr14value_or_abort0EBN_, symObjAddr: 0x1370, symBinAddr: 0x699A0, symSize: 0x7C }
  - { offset: 0x10E166, size: 0x8, addend: 0x0, symName: __RINvMNtCsfvfooZQ3Axs_4core6optionINtB3_6OptionRNtNtCsjOBAykZTw0C_11clap_derive4item11ValueParserE3mapNtCs3cP53eQoTwO_11proc_macro24SpanNCNCNvMBL_NtBL_4Item6actions_00EBN_, symObjAddr: 0x13EC, symBinAddr: 0x69A1C, symSize: 0x5C }
  - { offset: 0x10E1DE, size: 0x8, addend: 0x0, symName: __RINvMNtCsfvfooZQ3Axs_4core6optionINtB3_6OptionRNtNtCsjOBAykZTw0C_11clap_derive4item6ActionE3mapNtCs3cP53eQoTwO_11proc_macro24SpanNCNCNvMBL_NtBL_4Item12value_parsers_00EBN_, symObjAddr: 0x1448, symBinAddr: 0x69A78, symSize: 0x5C }
  - { offset: 0x10E249, size: 0x8, addend: 0x0, symName: __RINvMNtCsfvfooZQ3Axs_4core6optionINtB3_6OptionRTNtNtCs6IAuOt8vWmF_3syn4data7VariantNtNtBO_5token5CommaEE3mapRBK_NCNCNvXsx_NtBO_10punctuatedINtB1W_11PrivateIterBK_B1j_ENtNtNtNtB5_4iter6traits12double_ended19DoubleEndedIterator9next_back00ECsjOBAykZTw0C_11clap_derive, symObjAddr: 0x14A4, symBinAddr: 0x69AD4, symSize: 0x50 }
  - { offset: 0x10E2B4, size: 0x8, addend: 0x0, symName: __RINvMNtCsfvfooZQ3Axs_4core6optionINtB3_6OptionRTNtNtCs6IAuOt8vWmF_3syn4data7VariantNtNtBO_5token5CommaEE3mapRBK_NCNvXsw_NtBO_10punctuatedINtB1U_11PrivateIterBK_B1j_ENtNtNtNtB5_4iter6traits8iterator8Iterator4next0ECsjOBAykZTw0C_11clap_derive, symObjAddr: 0x14F4, symBinAddr: 0x69B24, symSize: 0x50 }
  - { offset: 0x10E31F, size: 0x8, addend: 0x0, symName: __RINvMNtCsfvfooZQ3Axs_4core6optionINtB3_6OptionRTNtNtCs6IAuOt8vWmF_3syn4path15GenericArgumentNtNtBO_5token5CommaEE3mapRBK_NCNCNvXsx_NtBO_10punctuatedINtB25_11PrivateIterBK_B1s_ENtNtNtNtB5_4iter6traits12double_ended19DoubleEndedIterator9next_back00ECsjOBAykZTw0C_11clap_derive, symObjAddr: 0x1544, symBinAddr: 0x69B74, symSize: 0x50 }
  - { offset: 0x10E38A, size: 0x8, addend: 0x0, symName: __RINvMNtCsfvfooZQ3Axs_4core6optionINtB3_6OptionRTNtNtCs6IAuOt8vWmF_3syn4path15GenericArgumentNtNtBO_5token5CommaEE3mapRBK_NCNvXsw_NtBO_10punctuatedINtB23_11PrivateIterBK_B1s_ENtNtNtNtB5_4iter6traits8iterator8Iterator4next0ECsjOBAykZTw0C_11clap_derive, symObjAddr: 0x1594, symBinAddr: 0x69BC4, symSize: 0x50 }
  - { offset: 0x10E448, size: 0x8, addend: 0x0, symName: __RINvMs9_NtCs6IAuOt8vWmF_3syn5parseNtB6_11ParseBuffer4peekNvNtB8_3lit6LitStrECsjOBAykZTw0C_11clap_derive, symObjAddr: 0x15E4, symBinAddr: 0x69C14, symSize: 0x38 }
  - { offset: 0x10E5F0, size: 0x8, addend: 0x0, symName: __RNvMNtCsfvfooZQ3Axs_4core6optionINtB2_6OptionINtNtCse1nGBsou5OW_5alloc5boxed3BoxNtNtCsjOBAykZTw0C_11clap_derive4attr8ClapAttrEE4takeB1k_, symObjAddr: 0x2180, symBinAddr: 0x6A7B0, symSize: 0x28 }
  - { offset: 0x10E69F, size: 0x8, addend: 0x0, symName: __RNvMNtCsfvfooZQ3Axs_4core6optionINtB2_6OptionINtNtCse1nGBsou5OW_5alloc5boxed3BoxNtNtCsjOBAykZTw0C_11clap_derive4attr8ClapAttrEE7is_noneB1k_, symObjAddr: 0x21A8, symBinAddr: 0x6A7D8, symSize: 0x28 }
  - { offset: 0x10E6E9, size: 0x8, addend: 0x0, symName: __RNvMNtCsfvfooZQ3Axs_4core6optionINtB2_6OptionINtNtCse1nGBsou5OW_5alloc5boxed3BoxNtNtCsjOBAykZTw0C_11clap_derive4attr8ClapAttrEE7is_someB1k_, symObjAddr: 0x21D0, symBinAddr: 0x6A800, symSize: 0x28 }
  - { offset: 0x10E722, size: 0x8, addend: 0x0, symName: __RNvMNtCsfvfooZQ3Axs_4core6optionINtB2_6OptionNtCs3cP53eQoTwO_11proc_macro25IdentE6as_refCsjOBAykZTw0C_11clap_derive, symObjAddr: 0x21F8, symBinAddr: 0x6A828, symSize: 0x4C }
  - { offset: 0x10E779, size: 0x8, addend: 0x0, symName: __RNvMNtCsfvfooZQ3Axs_4core6optionINtB2_6OptionNtNtCs6IAuOt8vWmF_3syn2ty4TypeE6as_refCsjOBAykZTw0C_11clap_derive, symObjAddr: 0x2244, symBinAddr: 0x6A874, symSize: 0x4C }
  - { offset: 0x10E7C3, size: 0x8, addend: 0x0, symName: __RNvMNtCsfvfooZQ3Axs_4core6optionINtB2_6OptionNtNtCse1nGBsou5OW_5alloc6string6StringE17unwrap_or_defaultCsjOBAykZTw0C_11clap_derive, symObjAddr: 0x2290, symBinAddr: 0x6A8C0, symSize: 0x70 }
  - { offset: 0x10E81B, size: 0x8, addend: 0x0, symName: __RNvMNtCsfvfooZQ3Axs_4core6optionINtB2_6OptionNtNtCsjOBAykZTw0C_11clap_derive4attr9AttrValueE6as_refBL_, symObjAddr: 0x2300, symBinAddr: 0x6A930, symSize: 0x4C }
  - { offset: 0x10E881, size: 0x8, addend: 0x0, symName: __RNvMNtCsfvfooZQ3Axs_4core6optionINtB2_6OptionNtNtCsjOBAykZTw0C_11clap_derive4attr9AttrValueE7is_noneBL_, symObjAddr: 0x234C, symBinAddr: 0x6A97C, symSize: 0x28 }
  - { offset: 0x10E8CB, size: 0x8, addend: 0x0, symName: __RNvMNtCsfvfooZQ3Axs_4core6optionINtB2_6OptionNtNtCsjOBAykZTw0C_11clap_derive4attr9AttrValueE7is_someBL_, symObjAddr: 0x2374, symBinAddr: 0x6A9A4, symSize: 0x28 }
  - { offset: 0x10E904, size: 0x8, addend: 0x0, symName: __RNvMNtCsfvfooZQ3Axs_4core6optionINtB2_6OptionNtNtCsjOBAykZTw0C_11clap_derive4item11ValueParserE6as_refBL_, symObjAddr: 0x239C, symBinAddr: 0x6A9CC, symSize: 0x54 }
  - { offset: 0x10E95B, size: 0x8, addend: 0x0, symName: __RNvMNtCsfvfooZQ3Axs_4core6optionINtB2_6OptionNtNtCsjOBAykZTw0C_11clap_derive4item6ActionE6as_refBL_, symObjAddr: 0x23F0, symBinAddr: 0x6AA20, symSize: 0x54 }
  - { offset: 0x10E9BF, size: 0x8, addend: 0x0, symName: __RNvMNtCsfvfooZQ3Axs_4core6optionINtB2_6OptionNtNtCsjOBAykZTw0C_11clap_derive4item6MethodE6as_refBL_, symObjAddr: 0x2444, symBinAddr: 0x6AA74, symSize: 0x50 }
  - { offset: 0x10EA16, size: 0x8, addend: 0x0, symName: __RNvMNtCsfvfooZQ3Axs_4core6optionINtB2_6OptionRNtNtCs6IAuOt8vWmF_3syn2ty4TypeE7is_someCsjOBAykZTw0C_11clap_derive, symObjAddr: 0x2494, symBinAddr: 0x6AAC4, symSize: 0x28 }
  - { offset: 0x10EA42, size: 0x8, addend: 0x0, symName: __RNvMNtCsfvfooZQ3Axs_4core6optionINtB2_6OptionRNtNtCs6IAuOt8vWmF_3syn2ty4TypeE9unwrap_orCsjOBAykZTw0C_11clap_derive, symObjAddr: 0x24BC, symBinAddr: 0x6AAEC, symSize: 0x4C }
  - { offset: 0x10EAC4, size: 0x8, addend: 0x0, symName: __RNvMNtCsfvfooZQ3Axs_4core6optionINtB2_6OptionRNtNtCs6IAuOt8vWmF_3syn4path11PathSegmentE7is_noneCsjOBAykZTw0C_11clap_derive, symObjAddr: 0x2508, symBinAddr: 0x6AB38, symSize: 0x28 }
  - { offset: 0x10EB37, size: 0x8, addend: 0x0, symName: __RNvMNtCsfvfooZQ3Axs_4core6optionINtB2_6OptionRNtNtCs6IAuOt8vWmF_3syn4path15GenericArgumentE7is_noneCsjOBAykZTw0C_11clap_derive, symObjAddr: 0x2530, symBinAddr: 0x6AB60, symSize: 0x28 }
  - { offset: 0x10EBAA, size: 0x8, addend: 0x0, symName: __RNvMNtCsfvfooZQ3Axs_4core6optionINtB2_6OptionRNtNtCsjOBAykZTw0C_11clap_derive4item6MethodE7is_noneBM_, symObjAddr: 0x2558, symBinAddr: 0x6AB88, symSize: 0x28 }
  - { offset: 0x10EBF4, size: 0x8, addend: 0x0, symName: __RNvMNtCsfvfooZQ3Axs_4core6optionINtB2_6OptionReE9unwrap_orCsjOBAykZTw0C_11clap_derive, symObjAddr: 0x2580, symBinAddr: 0x6ABB0, symSize: 0x70 }
  - { offset: 0x10EC84, size: 0x8, addend: 0x0, symName: __RNvMNtCsfvfooZQ3Axs_4core6optionINtB2_6OptionTNtCs3cP53eQoTwO_11proc_macro24SpanRNtBK_5IdentNtBK_11TokenStreamEE7is_someCsjOBAykZTw0C_11clap_derive, symObjAddr: 0x25F0, symBinAddr: 0x6AC20, symSize: 0x2C }
  - { offset: 0x10ECB0, size: 0x8, addend: 0x0, symName: __RNvMNtCsfvfooZQ3Axs_4core6optionINtB2_6OptionbE9unwrap_orCsjOBAykZTw0C_11clap_derive, symObjAddr: 0x261C, symBinAddr: 0x6AC4C, symSize: 0x5C }
  - { offset: 0x10ED09, size: 0x8, addend: 0x0, symName: __RNvMNtCsfvfooZQ3Axs_4core6optionINtB2_6OptionjE9unwrap_orCsjOBAykZTw0C_11clap_derive, symObjAddr: 0x2678, symBinAddr: 0x6ACA8, symSize: 0x48 }
  - { offset: 0x10ED6F, size: 0x8, addend: 0x0, symName: __RNvMs0_NtCsfvfooZQ3Axs_4core6optionINtB5_6OptionRINtNtNtCsjOBAykZTw0C_11clap_derive5utils7spanned2SpNtNtBQ_2ty2TyEE6clonedBS_, symObjAddr: 0x26C0, symBinAddr: 0x6ACF0, symSize: 0x5C }
  - { offset: 0x10EDFA, size: 0x8, addend: 0x0, symName: __RNvXNtCs2cqEZUIJimJ_5quote9to_tokensRINtNtCsfvfooZQ3Axs_4core6option6OptionNtCs3cP53eQoTwO_11proc_macro211TokenStreamENtB2_8ToTokens9to_tokensCsjOBAykZTw0C_11clap_derive, symObjAddr: 0x27B4, symBinAddr: 0x6ADE4, symSize: 0x40 }
  - { offset: 0x10EE39, size: 0x8, addend: 0x0, symName: __RNvXNtCs2cqEZUIJimJ_5quote9to_tokensRRNtNtCs6IAuOt8vWmF_3syn4data5FieldNtB2_8ToTokens9to_tokensCsjOBAykZTw0C_11clap_derive, symObjAddr: 0x27F4, symBinAddr: 0x6AE24, symSize: 0x40 }
  - { offset: 0x10EE78, size: 0x8, addend: 0x0, symName: __RNvXNtCs2cqEZUIJimJ_5quote9to_tokensRRNtNtCs6IAuOt8vWmF_3syn4data7VariantNtB2_8ToTokens9to_tokensCsjOBAykZTw0C_11clap_derive, symObjAddr: 0x2834, symBinAddr: 0x6AE64, symSize: 0x40 }
  - { offset: 0x10EEBD, size: 0x8, addend: 0x0, symName: __RNvXs3_NtCs2cqEZUIJimJ_5quote9to_tokensINtNtCsfvfooZQ3Axs_4core6option6OptionNtCs3cP53eQoTwO_11proc_macro211TokenStreamENtB5_8ToTokens9to_tokensCsjOBAykZTw0C_11clap_derive, symObjAddr: 0x2B54, symBinAddr: 0x6B184, symSize: 0x88 }
  - { offset: 0x10EF19, size: 0x8, addend: 0x0, symName: __RNvXs3_NtCs2cqEZUIJimJ_5quote9to_tokensINtNtCsfvfooZQ3Axs_4core6option6OptionRNtNtCs6IAuOt8vWmF_3syn8generics11WhereClauseENtB5_8ToTokens9to_tokensCsjOBAykZTw0C_11clap_derive, symObjAddr: 0x2BDC, symBinAddr: 0x6B20C, symSize: 0x84 }
  - { offset: 0x10EF7B, size: 0x8, addend: 0x0, symName: __RNvYRNtNtCs6IAuOt8vWmF_3syn4data5FieldNtNtCs2cqEZUIJimJ_5quote9to_tokens8ToTokens15to_token_streamCsjOBAykZTw0C_11clap_derive, symObjAddr: 0x3A54, symBinAddr: 0x6C084, symSize: 0x8C }
  - { offset: 0x10EFC5, size: 0x8, addend: 0x0, symName: __RNvYRNtNtCs6IAuOt8vWmF_3syn4data5FieldNtNtCs2cqEZUIJimJ_5quote9to_tokens8ToTokens17into_token_streamCsjOBAykZTw0C_11clap_derive, symObjAddr: 0x3AE0, symBinAddr: 0x6C110, symSize: 0x54 }
  - { offset: 0x10EFFA, size: 0x8, addend: 0x0, symName: __RNvYRNtNtCs6IAuOt8vWmF_3syn4data7VariantNtNtCs2cqEZUIJimJ_5quote9to_tokens8ToTokens15to_token_streamCsjOBAykZTw0C_11clap_derive, symObjAddr: 0x3B34, symBinAddr: 0x6C164, symSize: 0x8C }
  - { offset: 0x10F044, size: 0x8, addend: 0x0, symName: __RNvYRNtNtCs6IAuOt8vWmF_3syn4data7VariantNtNtCs2cqEZUIJimJ_5quote9to_tokens8ToTokens17into_token_streamCsjOBAykZTw0C_11clap_derive, symObjAddr: 0x3BC0, symBinAddr: 0x6C1F0, symSize: 0x54 }
  - { offset: 0x10F079, size: 0x8, addend: 0x0, symName: __RNvYRRNtNtCs6IAuOt8vWmF_3syn4data5FieldNtNtCs2cqEZUIJimJ_5quote9to_tokens8ToTokens15to_token_streamCsjOBAykZTw0C_11clap_derive, symObjAddr: 0x3C14, symBinAddr: 0x6C244, symSize: 0x8C }
  - { offset: 0x10F0C3, size: 0x8, addend: 0x0, symName: __RNvYRRNtNtCs6IAuOt8vWmF_3syn4data5FieldNtNtCs2cqEZUIJimJ_5quote9to_tokens8ToTokens17into_token_streamCsjOBAykZTw0C_11clap_derive, symObjAddr: 0x3CA0, symBinAddr: 0x6C2D0, symSize: 0x54 }
  - { offset: 0x10F0F8, size: 0x8, addend: 0x0, symName: __RNvYRRNtNtCs6IAuOt8vWmF_3syn4data7VariantNtNtCs2cqEZUIJimJ_5quote9to_tokens8ToTokens15to_token_streamCsjOBAykZTw0C_11clap_derive, symObjAddr: 0x3CF4, symBinAddr: 0x6C324, symSize: 0x8C }
  - { offset: 0x10F142, size: 0x8, addend: 0x0, symName: __RNvYRRNtNtCs6IAuOt8vWmF_3syn4data7VariantNtNtCs2cqEZUIJimJ_5quote9to_tokens8ToTokens17into_token_streamCsjOBAykZTw0C_11clap_derive, symObjAddr: 0x3D80, symBinAddr: 0x6C3B0, symSize: 0x54 }
  - { offset: 0x10F183, size: 0x8, addend: 0x0, symName: __RNvXs0_NtCs2cqEZUIJimJ_5quote7spannedNtNtCs6IAuOt8vWmF_3syn4data5FieldNtB5_7Spanned6___spanCsjOBAykZTw0C_11clap_derive, symObjAddr: 0x2980, symBinAddr: 0x6AFB0, symSize: 0x44 }
  - { offset: 0x10F1B8, size: 0x8, addend: 0x0, symName: __RNvXs0_NtCs2cqEZUIJimJ_5quote7spannedNtNtCs6IAuOt8vWmF_3syn4data7VariantNtB5_7Spanned6___spanCsjOBAykZTw0C_11clap_derive, symObjAddr: 0x29C4, symBinAddr: 0x6AFF4, symSize: 0x44 }
  - { offset: 0x10F1ED, size: 0x8, addend: 0x0, symName: __RNvXs0_NtCs2cqEZUIJimJ_5quote7spannedRNtNtCs6IAuOt8vWmF_3syn4data5FieldNtB5_7Spanned6___spanCsjOBAykZTw0C_11clap_derive, symObjAddr: 0x2A08, symBinAddr: 0x6B038, symSize: 0x44 }
  - { offset: 0x10F222, size: 0x8, addend: 0x0, symName: __RNvXs0_NtCs2cqEZUIJimJ_5quote7spannedRNtNtCs6IAuOt8vWmF_3syn4data7VariantNtB5_7Spanned6___spanCsjOBAykZTw0C_11clap_derive, symObjAddr: 0x2A4C, symBinAddr: 0x6B07C, symSize: 0x44 }
  - { offset: 0x10F268, size: 0x8, addend: 0x0, symName: __RNvYINtNtCsfvfooZQ3Axs_4core6option8IntoIterRNtNtCsjOBAykZTw0C_11clap_derive4item6MethodENtNtNtCs2cqEZUIJimJ_5quote9___private3ext14RepIteratorExt15quote_into_iterBL_, symObjAddr: 0x39A8, symBinAddr: 0x6BFD8, symSize: 0x24 }
  - { offset: 0x10F8EA, size: 0x8, addend: 0x0, symName: __RINvNtCse1nGBsou5OW_5alloc7raw_vec11finish_growNtNtB4_5alloc6GlobalECs1Pl9FLJvUDI_4heck, symObjAddr: 0x0, symBinAddr: 0x1D953C, symSize: 0x1C0 }
  - { offset: 0x11084C, size: 0x8, addend: 0x0, symName: __RNvMNtNtCsfvfooZQ3Axs_4core4char7methodsc12is_lowercaseCs1Pl9FLJvUDI_4heck, symObjAddr: 0x234, symBinAddr: 0x6C578, symSize: 0x80 }
  - { offset: 0x110890, size: 0x8, addend: 0x0, symName: __RNvMNtNtCsfvfooZQ3Axs_4core4char7methodsc12is_uppercaseCs1Pl9FLJvUDI_4heck, symObjAddr: 0x2B4, symBinAddr: 0x6C5F8, symSize: 0x80 }
  - { offset: 0x1108D4, size: 0x8, addend: 0x0, symName: __RNvMNtNtCsfvfooZQ3Axs_4core4char7methodsc12to_lowercaseCs1Pl9FLJvUDI_4heck, symObjAddr: 0x334, symBinAddr: 0x6C678, symSize: 0x4C }
  - { offset: 0x110902, size: 0x8, addend: 0x0, symName: __RNvMNtNtCsfvfooZQ3Axs_4core4char7methodsc12to_uppercaseCs1Pl9FLJvUDI_4heck, symObjAddr: 0x380, symBinAddr: 0x6C6C4, symSize: 0x4C }
  - { offset: 0x11098A, size: 0x8, addend: 0x0, symName: __RNvMNtNtCsfvfooZQ3Axs_4core4char7methodsc15is_alphanumericCs1Pl9FLJvUDI_4heck, symObjAddr: 0x3CC, symBinAddr: 0x6C710, symSize: 0x100 }
  - { offset: 0x110A53, size: 0x8, addend: 0x0, symName: __RNvNtNtCsfvfooZQ3Axs_4core4char7methods15encode_utf8_rawCs1Pl9FLJvUDI_4heck, symObjAddr: 0xAB0, symBinAddr: 0x6CDF4, symSize: 0x228 }
  - { offset: 0x11132F, size: 0x8, addend: 0x0, symName: __RNvXs3_NtNtCsfvfooZQ3Axs_4core3str7patternNCINvCs1Pl9FLJvUDI_4heck9transformNCNvXs_NtBJ_11lower_camelINtB1j_16AsLowerCamelCaseReENtNtB9_3fmt7Display3fmt0NCB1e_s_0E0NtB5_11MultiCharEq7matchesBJ_, symObjAddr: 0xD08, symBinAddr: 0x6D04C, symSize: 0x28 }
  - { offset: 0x111375, size: 0x8, addend: 0x0, symName: __RNvXs3_NtNtCsfvfooZQ3Axs_4core3str7patternNCINvCs1Pl9FLJvUDI_4heck9transformNvBJ_10capitalizeNCNvXs0_NtBJ_11upper_camelINtB1B_16AsUpperCamelCaseReENtNtB9_3fmt7Display3fmt0E0NtB5_11MultiCharEq7matchesBJ_, symObjAddr: 0xD30, symBinAddr: 0x6D074, symSize: 0x28 }
