---
triple:          'arm64-apple-darwin'
binary-path:     '/Users/cedric/orange/ran-llm-claude-flow/src/rust-pipeline/target/debug/deps/libzerofrom_derive-ce2b908ca77833a6.dylib'
relocations:
  - { offset: 0x1E, size: 0x8, addend: 0x0, symName: __RINvNtNtCse1nGBsou5OW_5alloc3vec16in_place_collect18from_iter_in_placeINtNtNtNtCsfvfooZQ3Axs_4core4iter8adapters3map3MapINtNtB4_9into_iter8IntoIterNtNtCs6IAuOt8vWmF_3syn4attr9AttributeENCINvNtNtB2p_3gen4fold8fold_vecB2l_NtNvCs3yqPx1X2sxh_15zerofrom_derive16replace_lifetime15ReplaceLifetimeNvYB3w_NtB32_4Fold14fold_attributeE0EB2l_EB3A_, symObjAddr: 0x0, symBinAddr: 0xC50, symSize: 0x25C }
  - { offset: 0x726A, size: 0x8, addend: 0x0, symName: __RINvNtNtCse1nGBsou5OW_5alloc3vec16in_place_collect18from_iter_in_placeINtNtNtNtCsfvfooZQ3Axs_4core4iter8adapters3map3MapINtNtB4_9into_iter8IntoIterNtNtCs6IAuOt8vWmF_3syn4attr9AttributeENCINvNtNtB2p_3gen4fold8fold_vecB2l_NtNvCs3yqPx1X2sxh_15zerofrom_derive16replace_lifetime15ReplaceLifetimeNvYB3w_NtB32_4Fold14fold_attributeE0EB2l_EB3A_, symObjAddr: 0x0, symBinAddr: 0xC50, symSize: 0x25C }
  - { offset: 0x76F8, size: 0x8, addend: 0x0, symName: __RINvNtNtCse1nGBsou5OW_5alloc3vec16in_place_collect18from_iter_in_placeINtNtNtNtCsfvfooZQ3Axs_4core4iter8adapters3map3MapINtNtB4_9into_iter8IntoIterNtNtCs6IAuOt8vWmF_3syn4attr9AttributeENCINvNtNtB2p_3gen4fold8fold_vecB2l_NtNvCs3yqPx1X2sxh_15zerofrom_derive25replace_lifetime_and_type20ReplaceLifetimeAndTyNvYB3w_NtB32_4Fold14fold_attributeE0EB2l_EB3A_, symObjAddr: 0x25C, symBinAddr: 0xEAC, symSize: 0x25C }
  - { offset: 0x7B86, size: 0x8, addend: 0x0, symName: __RINvNtNtCse1nGBsou5OW_5alloc3vec16in_place_collect18from_iter_in_placeINtNtNtNtCsfvfooZQ3Axs_4core4iter8adapters3map3MapINtNtB4_9into_iter8IntoIterNtNtCs6IAuOt8vWmF_3syn4expr3ArmENCINvNtNtB2p_3gen4fold8fold_vecB2l_NtNvCs3yqPx1X2sxh_15zerofrom_derive16replace_lifetime15ReplaceLifetimeNvYB3q_NtB2W_4Fold8fold_armE0EB2l_EB3u_, symObjAddr: 0x4B8, symBinAddr: 0x1108, symSize: 0x260 }
  - { offset: 0x8014, size: 0x8, addend: 0x0, symName: __RINvNtNtCse1nGBsou5OW_5alloc3vec16in_place_collect18from_iter_in_placeINtNtNtNtCsfvfooZQ3Axs_4core4iter8adapters3map3MapINtNtB4_9into_iter8IntoIterNtNtCs6IAuOt8vWmF_3syn4expr3ArmENCINvNtNtB2p_3gen4fold8fold_vecB2l_NtNvCs3yqPx1X2sxh_15zerofrom_derive25replace_lifetime_and_type20ReplaceLifetimeAndTyNvYB3q_NtB2W_4Fold8fold_armE0EB2l_EB3u_, symObjAddr: 0x718, symBinAddr: 0x1368, symSize: 0x260 }
  - { offset: 0x84A2, size: 0x8, addend: 0x0, symName: __RINvNtNtCse1nGBsou5OW_5alloc3vec16in_place_collect18from_iter_in_placeINtNtNtNtCsfvfooZQ3Axs_4core4iter8adapters3map3MapINtNtB4_9into_iter8IntoIterNtNtCs6IAuOt8vWmF_3syn4item11ForeignItemENCINvNtNtB2p_3gen4fold8fold_vecB2l_NtNvCs3yqPx1X2sxh_15zerofrom_derive16replace_lifetime15ReplaceLifetimeNvYB3z_NtB35_4Fold17fold_foreign_itemE0EB2l_EB3D_, symObjAddr: 0x978, symBinAddr: 0x15C8, symSize: 0x260 }
  - { offset: 0x8930, size: 0x8, addend: 0x0, symName: __RINvNtNtCse1nGBsou5OW_5alloc3vec16in_place_collect18from_iter_in_placeINtNtNtNtCsfvfooZQ3Axs_4core4iter8adapters3map3MapINtNtB4_9into_iter8IntoIterNtNtCs6IAuOt8vWmF_3syn4item11ForeignItemENCINvNtNtB2p_3gen4fold8fold_vecB2l_NtNvCs3yqPx1X2sxh_15zerofrom_derive25replace_lifetime_and_type20ReplaceLifetimeAndTyNvYB3z_NtB35_4Fold17fold_foreign_itemE0EB2l_EB3D_, symObjAddr: 0xBD8, symBinAddr: 0x1828, symSize: 0x260 }
  - { offset: 0x8DBE, size: 0x8, addend: 0x0, symName: __RINvNtNtCse1nGBsou5OW_5alloc3vec16in_place_collect18from_iter_in_placeINtNtNtNtCsfvfooZQ3Axs_4core4iter8adapters3map3MapINtNtB4_9into_iter8IntoIterNtNtCs6IAuOt8vWmF_3syn4item4ItemENCINvNtNtB2p_3gen4fold8fold_vecB2l_NtNvCs3yqPx1X2sxh_15zerofrom_derive16replace_lifetime15ReplaceLifetimeNvYB3r_NtB2X_4Fold9fold_itemE0EB2l_EB3v_, symObjAddr: 0xE38, symBinAddr: 0x1A88, symSize: 0x260 }
  - { offset: 0x924C, size: 0x8, addend: 0x0, symName: __RINvNtNtCse1nGBsou5OW_5alloc3vec16in_place_collect18from_iter_in_placeINtNtNtNtCsfvfooZQ3Axs_4core4iter8adapters3map3MapINtNtB4_9into_iter8IntoIterNtNtCs6IAuOt8vWmF_3syn4item4ItemENCINvNtNtB2p_3gen4fold8fold_vecB2l_NtNvCs3yqPx1X2sxh_15zerofrom_derive25replace_lifetime_and_type20ReplaceLifetimeAndTyNvYB3r_NtB2X_4Fold9fold_itemE0EB2l_EB3v_, symObjAddr: 0x1098, symBinAddr: 0x1CE8, symSize: 0x260 }
  - { offset: 0x96DA, size: 0x8, addend: 0x0, symName: __RINvNtNtCse1nGBsou5OW_5alloc3vec16in_place_collect18from_iter_in_placeINtNtNtNtCsfvfooZQ3Axs_4core4iter8adapters3map3MapINtNtB4_9into_iter8IntoIterNtNtCs6IAuOt8vWmF_3syn4item8ImplItemENCINvNtNtB2p_3gen4fold8fold_vecB2l_NtNvCs3yqPx1X2sxh_15zerofrom_derive16replace_lifetime15ReplaceLifetimeNvYB3v_NtB31_4Fold14fold_impl_itemE0EB2l_EB3z_, symObjAddr: 0x12F8, symBinAddr: 0x1F48, symSize: 0x260 }
  - { offset: 0x9B68, size: 0x8, addend: 0x0, symName: __RINvNtNtCse1nGBsou5OW_5alloc3vec16in_place_collect18from_iter_in_placeINtNtNtNtCsfvfooZQ3Axs_4core4iter8adapters3map3MapINtNtB4_9into_iter8IntoIterNtNtCs6IAuOt8vWmF_3syn4item8ImplItemENCINvNtNtB2p_3gen4fold8fold_vecB2l_NtNvCs3yqPx1X2sxh_15zerofrom_derive25replace_lifetime_and_type20ReplaceLifetimeAndTyNvYB3v_NtB31_4Fold14fold_impl_itemE0EB2l_EB3z_, symObjAddr: 0x1558, symBinAddr: 0x21A8, symSize: 0x260 }
  - { offset: 0x9FF6, size: 0x8, addend: 0x0, symName: __RINvNtNtCse1nGBsou5OW_5alloc3vec16in_place_collect18from_iter_in_placeINtNtNtNtCsfvfooZQ3Axs_4core4iter8adapters3map3MapINtNtB4_9into_iter8IntoIterNtNtCs6IAuOt8vWmF_3syn4item9TraitItemENCINvNtNtB2p_3gen4fold8fold_vecB2l_NtNvCs3yqPx1X2sxh_15zerofrom_derive16replace_lifetime15ReplaceLifetimeNvYB3w_NtB32_4Fold15fold_trait_itemE0EB2l_EB3A_, symObjAddr: 0x17B8, symBinAddr: 0x2408, symSize: 0x260 }
  - { offset: 0xA484, size: 0x8, addend: 0x0, symName: __RINvNtNtCse1nGBsou5OW_5alloc3vec16in_place_collect18from_iter_in_placeINtNtNtNtCsfvfooZQ3Axs_4core4iter8adapters3map3MapINtNtB4_9into_iter8IntoIterNtNtCs6IAuOt8vWmF_3syn4item9TraitItemENCINvNtNtB2p_3gen4fold8fold_vecB2l_NtNvCs3yqPx1X2sxh_15zerofrom_derive25replace_lifetime_and_type20ReplaceLifetimeAndTyNvYB3w_NtB32_4Fold15fold_trait_itemE0EB2l_EB3A_, symObjAddr: 0x1A18, symBinAddr: 0x2668, symSize: 0x260 }
  - { offset: 0xA912, size: 0x8, addend: 0x0, symName: __RINvNtNtCse1nGBsou5OW_5alloc3vec16in_place_collect18from_iter_in_placeINtNtNtNtCsfvfooZQ3Axs_4core4iter8adapters3map3MapINtNtB4_9into_iter8IntoIterNtNtCs6IAuOt8vWmF_3syn4stmt4StmtENCINvNtNtB2p_3gen4fold8fold_vecB2l_NtNvCs3yqPx1X2sxh_15zerofrom_derive16replace_lifetime15ReplaceLifetimeNvYB3r_NtB2X_4Fold9fold_stmtE0EB2l_EB3v_, symObjAddr: 0x1C78, symBinAddr: 0x28C8, symSize: 0x260 }
  - { offset: 0xADA0, size: 0x8, addend: 0x0, symName: __RINvNtNtCse1nGBsou5OW_5alloc3vec16in_place_collect18from_iter_in_placeINtNtNtNtCsfvfooZQ3Axs_4core4iter8adapters3map3MapINtNtB4_9into_iter8IntoIterNtNtCs6IAuOt8vWmF_3syn4stmt4StmtENCINvNtNtB2p_3gen4fold8fold_vecB2l_NtNvCs3yqPx1X2sxh_15zerofrom_derive25replace_lifetime_and_type20ReplaceLifetimeAndTyNvYB3r_NtB2X_4Fold9fold_stmtE0EB2l_EB3v_, symObjAddr: 0x1ED8, symBinAddr: 0x2B28, symSize: 0x260 }
  - { offset: 0xB22E, size: 0x8, addend: 0x0, symName: __RINvNtNtCse1nGBsou5OW_5alloc3vec16in_place_collect18from_iter_in_placeINtNtNtNtCsfvfooZQ3Axs_4core4iter8adapters3map3MapINtNtB4_9into_iter8IntoIterTNtNtCs6IAuOt8vWmF_3syn2ty4TypeNtNtB2q_5token5CommaEENCINvNtB2q_10punctuated4foldB2m_B2Q_NtNvCs3yqPx1X2sxh_15zerofrom_derive16replace_lifetime15ReplaceLifetimeNvYB3M_NtNtNtB2q_3gen4fold4Fold9fold_typeE0EB2l_EB3Q_, symObjAddr: 0x2138, symBinAddr: 0x2D88, symSize: 0x260 }
  - { offset: 0xB6BC, size: 0x8, addend: 0x0, symName: __RINvNtNtCse1nGBsou5OW_5alloc3vec16in_place_collect18from_iter_in_placeINtNtNtNtCsfvfooZQ3Axs_4core4iter8adapters3map3MapINtNtB4_9into_iter8IntoIterTNtNtCs6IAuOt8vWmF_3syn2ty4TypeNtNtB2q_5token5CommaEENCINvNtB2q_10punctuated4foldB2m_B2Q_NtNvCs3yqPx1X2sxh_15zerofrom_derive25replace_lifetime_and_type20ReplaceLifetimeAndTyNvYB3M_NtNtNtB2q_3gen4fold4Fold9fold_typeE0EB2l_EB3Q_, symObjAddr: 0x2398, symBinAddr: 0x2FE8, symSize: 0x260 }
  - { offset: 0xBB4A, size: 0x8, addend: 0x0, symName: __RINvNtNtCse1nGBsou5OW_5alloc3vec16in_place_collect18from_iter_in_placeINtNtNtNtCsfvfooZQ3Axs_4core4iter8adapters3map3MapINtNtB4_9into_iter8IntoIterTNtNtCs6IAuOt8vWmF_3syn2ty9BareFnArgNtNtB2q_5token5CommaEENCINvNtB2q_10punctuated4foldB2m_B2V_NtNvCs3yqPx1X2sxh_15zerofrom_derive16replace_lifetime15ReplaceLifetimeNvYB3R_NtNtNtB2q_3gen4fold4Fold16fold_bare_fn_argE0EB2l_EB3V_, symObjAddr: 0x25F8, symBinAddr: 0x3248, symSize: 0x260 }
  - { offset: 0xBFD8, size: 0x8, addend: 0x0, symName: __RINvNtNtCse1nGBsou5OW_5alloc3vec16in_place_collect18from_iter_in_placeINtNtNtNtCsfvfooZQ3Axs_4core4iter8adapters3map3MapINtNtB4_9into_iter8IntoIterTNtNtCs6IAuOt8vWmF_3syn2ty9BareFnArgNtNtB2q_5token5CommaEENCINvNtB2q_10punctuated4foldB2m_B2V_NtNvCs3yqPx1X2sxh_15zerofrom_derive25replace_lifetime_and_type20ReplaceLifetimeAndTyNvYB3R_NtNtNtB2q_3gen4fold4Fold16fold_bare_fn_argE0EB2l_EB3V_, symObjAddr: 0x2858, symBinAddr: 0x34A8, symSize: 0x260 }
  - { offset: 0xC466, size: 0x8, addend: 0x0, symName: __RINvNtNtCse1nGBsou5OW_5alloc3vec16in_place_collect18from_iter_in_placeINtNtNtNtCsfvfooZQ3Axs_4core4iter8adapters3map3MapINtNtB4_9into_iter8IntoIterTNtNtCs6IAuOt8vWmF_3syn3pat3PatNtNtB2q_5token2OrEENCINvNtB2q_10punctuated4foldB2m_B2Q_NtNvCs3yqPx1X2sxh_15zerofrom_derive16replace_lifetime15ReplaceLifetimeNvYB3J_NtNtNtB2q_3gen4fold4Fold8fold_patE0EB2l_EB3N_, symObjAddr: 0x2AB8, symBinAddr: 0x3708, symSize: 0x260 }
  - { offset: 0xC8F4, size: 0x8, addend: 0x0, symName: __RINvNtNtCse1nGBsou5OW_5alloc3vec16in_place_collect18from_iter_in_placeINtNtNtNtCsfvfooZQ3Axs_4core4iter8adapters3map3MapINtNtB4_9into_iter8IntoIterTNtNtCs6IAuOt8vWmF_3syn3pat3PatNtNtB2q_5token2OrEENCINvNtB2q_10punctuated4foldB2m_B2Q_NtNvCs3yqPx1X2sxh_15zerofrom_derive25replace_lifetime_and_type20ReplaceLifetimeAndTyNvYB3J_NtNtNtB2q_3gen4fold4Fold8fold_patE0EB2l_EB3N_, symObjAddr: 0x2D18, symBinAddr: 0x3968, symSize: 0x260 }
  - { offset: 0xCD82, size: 0x8, addend: 0x0, symName: __RINvNtNtCse1nGBsou5OW_5alloc3vec16in_place_collect18from_iter_in_placeINtNtNtNtCsfvfooZQ3Axs_4core4iter8adapters3map3MapINtNtB4_9into_iter8IntoIterTNtNtCs6IAuOt8vWmF_3syn3pat3PatNtNtB2q_5token5CommaEENCINvNtB2q_10punctuated4foldB2m_B2Q_NtNvCs3yqPx1X2sxh_15zerofrom_derive16replace_lifetime15ReplaceLifetimeNvYB3M_NtNtNtB2q_3gen4fold4Fold8fold_patE0EB2l_EB3Q_, symObjAddr: 0x2F78, symBinAddr: 0x3BC8, symSize: 0x260 }
  - { offset: 0xD210, size: 0x8, addend: 0x0, symName: __RINvNtNtCse1nGBsou5OW_5alloc3vec16in_place_collect18from_iter_in_placeINtNtNtNtCsfvfooZQ3Axs_4core4iter8adapters3map3MapINtNtB4_9into_iter8IntoIterTNtNtCs6IAuOt8vWmF_3syn3pat3PatNtNtB2q_5token5CommaEENCINvNtB2q_10punctuated4foldB2m_B2Q_NtNvCs3yqPx1X2sxh_15zerofrom_derive25replace_lifetime_and_type20ReplaceLifetimeAndTyNvYB3M_NtNtNtB2q_3gen4fold4Fold8fold_patE0EB2l_EB3Q_, symObjAddr: 0x31D8, symBinAddr: 0x3E28, symSize: 0x260 }
  - { offset: 0xD69E, size: 0x8, addend: 0x0, symName: __RINvNtNtCse1nGBsou5OW_5alloc3vec16in_place_collect18from_iter_in_placeINtNtNtNtCsfvfooZQ3Axs_4core4iter8adapters3map3MapINtNtB4_9into_iter8IntoIterTNtNtCs6IAuOt8vWmF_3syn3pat8FieldPatNtNtB2q_5token5CommaEENCINvNtB2q_10punctuated4foldB2m_B2V_NtNvCs3yqPx1X2sxh_15zerofrom_derive16replace_lifetime15ReplaceLifetimeNvYB3R_NtNtNtB2q_3gen4fold4Fold14fold_field_patE0EB2l_EB3V_, symObjAddr: 0x3438, symBinAddr: 0x4088, symSize: 0x260 }
  - { offset: 0xDB2C, size: 0x8, addend: 0x0, symName: __RINvNtNtCse1nGBsou5OW_5alloc3vec16in_place_collect18from_iter_in_placeINtNtNtNtCsfvfooZQ3Axs_4core4iter8adapters3map3MapINtNtB4_9into_iter8IntoIterTNtNtCs6IAuOt8vWmF_3syn3pat8FieldPatNtNtB2q_5token5CommaEENCINvNtB2q_10punctuated4foldB2m_B2V_NtNvCs3yqPx1X2sxh_15zerofrom_derive25replace_lifetime_and_type20ReplaceLifetimeAndTyNvYB3R_NtNtNtB2q_3gen4fold4Fold14fold_field_patE0EB2l_EB3V_, symObjAddr: 0x3698, symBinAddr: 0x42E8, symSize: 0x260 }
  - { offset: 0xDFBA, size: 0x8, addend: 0x0, symName: __RINvNtNtCse1nGBsou5OW_5alloc3vec16in_place_collect18from_iter_in_placeINtNtNtNtCsfvfooZQ3Axs_4core4iter8adapters3map3MapINtNtB4_9into_iter8IntoIterTNtNtCs6IAuOt8vWmF_3syn4data5FieldNtNtB2q_5token5CommaEENCINvNtB2q_10punctuated4foldB2m_B2T_NtNvCs3yqPx1X2sxh_15zerofrom_derive16replace_lifetime15ReplaceLifetimeNvYB3P_NtNtNtB2q_3gen4fold4Fold10fold_fieldE0EB2l_EB3T_, symObjAddr: 0x38F8, symBinAddr: 0x4548, symSize: 0x260 }
  - { offset: 0xE448, size: 0x8, addend: 0x0, symName: __RINvNtNtCse1nGBsou5OW_5alloc3vec16in_place_collect18from_iter_in_placeINtNtNtNtCsfvfooZQ3Axs_4core4iter8adapters3map3MapINtNtB4_9into_iter8IntoIterTNtNtCs6IAuOt8vWmF_3syn4data5FieldNtNtB2q_5token5CommaEENCINvNtB2q_10punctuated4foldB2m_B2T_NtNvCs3yqPx1X2sxh_15zerofrom_derive25replace_lifetime_and_type20ReplaceLifetimeAndTyNvYB3P_NtNtNtB2q_3gen4fold4Fold10fold_fieldE0EB2l_EB3T_, symObjAddr: 0x3B58, symBinAddr: 0x47A8, symSize: 0x260 }
  - { offset: 0xE8D6, size: 0x8, addend: 0x0, symName: __RINvNtNtCse1nGBsou5OW_5alloc3vec16in_place_collect18from_iter_in_placeINtNtNtNtCsfvfooZQ3Axs_4core4iter8adapters3map3MapINtNtB4_9into_iter8IntoIterTNtNtCs6IAuOt8vWmF_3syn4data7VariantNtNtB2q_5token5CommaEENCINvNtB2q_10punctuated4foldB2m_B2V_NtNvCs3yqPx1X2sxh_15zerofrom_derive16replace_lifetime15ReplaceLifetimeNvYB3R_NtNtNtB2q_3gen4fold4Fold12fold_variantE0EB2l_EB3V_, symObjAddr: 0x3DB8, symBinAddr: 0x4A08, symSize: 0x260 }
  - { offset: 0xED64, size: 0x8, addend: 0x0, symName: __RINvNtNtCse1nGBsou5OW_5alloc3vec16in_place_collect18from_iter_in_placeINtNtNtNtCsfvfooZQ3Axs_4core4iter8adapters3map3MapINtNtB4_9into_iter8IntoIterTNtNtCs6IAuOt8vWmF_3syn4data7VariantNtNtB2q_5token5CommaEENCINvNtB2q_10punctuated4foldB2m_B2V_NtNvCs3yqPx1X2sxh_15zerofrom_derive25replace_lifetime_and_type20ReplaceLifetimeAndTyNvYB3R_NtNtNtB2q_3gen4fold4Fold12fold_variantE0EB2l_EB3V_, symObjAddr: 0x4018, symBinAddr: 0x4C68, symSize: 0x260 }
  - { offset: 0xF1F2, size: 0x8, addend: 0x0, symName: __RINvNtNtCse1nGBsou5OW_5alloc3vec16in_place_collect18from_iter_in_placeINtNtNtNtCsfvfooZQ3Axs_4core4iter8adapters3map3MapINtNtB4_9into_iter8IntoIterTNtNtCs6IAuOt8vWmF_3syn4expr10FieldValueNtNtB2q_5token5CommaEENCINvNtB2q_10punctuated4foldB2m_B2Z_NtNvCs3yqPx1X2sxh_15zerofrom_derive16replace_lifetime15ReplaceLifetimeNvYB3V_NtNtNtB2q_3gen4fold4Fold16fold_field_valueE0EB2l_EB3Z_, symObjAddr: 0x4278, symBinAddr: 0x4EC8, symSize: 0x260 }
  - { offset: 0xF680, size: 0x8, addend: 0x0, symName: __RINvNtNtCse1nGBsou5OW_5alloc3vec16in_place_collect18from_iter_in_placeINtNtNtNtCsfvfooZQ3Axs_4core4iter8adapters3map3MapINtNtB4_9into_iter8IntoIterTNtNtCs6IAuOt8vWmF_3syn4expr10FieldValueNtNtB2q_5token5CommaEENCINvNtB2q_10punctuated4foldB2m_B2Z_NtNvCs3yqPx1X2sxh_15zerofrom_derive25replace_lifetime_and_type20ReplaceLifetimeAndTyNvYB3V_NtNtNtB2q_3gen4fold4Fold16fold_field_valueE0EB2l_EB3Z_, symObjAddr: 0x44D8, symBinAddr: 0x5128, symSize: 0x260 }
  - { offset: 0xFB0E, size: 0x8, addend: 0x0, symName: __RINvNtNtCse1nGBsou5OW_5alloc3vec16in_place_collect18from_iter_in_placeINtNtNtNtCsfvfooZQ3Axs_4core4iter8adapters3map3MapINtNtB4_9into_iter8IntoIterTNtNtCs6IAuOt8vWmF_3syn4expr4ExprNtNtB2q_5token5CommaEENCINvNtB2q_10punctuated4foldB2m_B2S_NtNvCs3yqPx1X2sxh_15zerofrom_derive16replace_lifetime15ReplaceLifetimeNvYB3O_NtNtNtB2q_3gen4fold4Fold9fold_exprE0EB2l_EB3S_, symObjAddr: 0x4738, symBinAddr: 0x5388, symSize: 0x260 }
  - { offset: 0xFF9C, size: 0x8, addend: 0x0, symName: __RINvNtNtCse1nGBsou5OW_5alloc3vec16in_place_collect18from_iter_in_placeINtNtNtNtCsfvfooZQ3Axs_4core4iter8adapters3map3MapINtNtB4_9into_iter8IntoIterTNtNtCs6IAuOt8vWmF_3syn4expr4ExprNtNtB2q_5token5CommaEENCINvNtB2q_10punctuated4foldB2m_B2S_NtNvCs3yqPx1X2sxh_15zerofrom_derive25replace_lifetime_and_type20ReplaceLifetimeAndTyNvYB3O_NtNtNtB2q_3gen4fold4Fold9fold_exprE0EB2l_EB3S_, symObjAddr: 0x4998, symBinAddr: 0x55E8, symSize: 0x260 }
  - { offset: 0x1042A, size: 0x8, addend: 0x0, symName: __RINvNtNtCse1nGBsou5OW_5alloc3vec16in_place_collect18from_iter_in_placeINtNtNtNtCsfvfooZQ3Axs_4core4iter8adapters3map3MapINtNtB4_9into_iter8IntoIterTNtNtCs6IAuOt8vWmF_3syn4item5FnArgNtNtB2q_5token5CommaEENCINvNtB2q_10punctuated4foldB2m_B2T_NtNvCs3yqPx1X2sxh_15zerofrom_derive16replace_lifetime15ReplaceLifetimeNvYB3P_NtNtNtB2q_3gen4fold4Fold11fold_fn_argE0EB2l_EB3T_, symObjAddr: 0x4BF8, symBinAddr: 0x5848, symSize: 0x260 }
  - { offset: 0x108B8, size: 0x8, addend: 0x0, symName: __RINvNtNtCse1nGBsou5OW_5alloc3vec16in_place_collect18from_iter_in_placeINtNtNtNtCsfvfooZQ3Axs_4core4iter8adapters3map3MapINtNtB4_9into_iter8IntoIterTNtNtCs6IAuOt8vWmF_3syn4item5FnArgNtNtB2q_5token5CommaEENCINvNtB2q_10punctuated4foldB2m_B2T_NtNvCs3yqPx1X2sxh_15zerofrom_derive25replace_lifetime_and_type20ReplaceLifetimeAndTyNvYB3P_NtNtNtB2q_3gen4fold4Fold11fold_fn_argE0EB2l_EB3T_, symObjAddr: 0x4E58, symBinAddr: 0x5AA8, symSize: 0x260 }
  - { offset: 0x10D46, size: 0x8, addend: 0x0, symName: __RINvNtNtCse1nGBsou5OW_5alloc3vec16in_place_collect18from_iter_in_placeINtNtNtNtCsfvfooZQ3Axs_4core4iter8adapters3map3MapINtNtB4_9into_iter8IntoIterTNtNtCs6IAuOt8vWmF_3syn4item7UseTreeNtNtB2q_5token5CommaEENCINvNtB2q_10punctuated4foldB2m_B2V_NtNvCs3yqPx1X2sxh_15zerofrom_derive16replace_lifetime15ReplaceLifetimeNvYB3R_NtNtNtB2q_3gen4fold4Fold13fold_use_treeE0EB2l_EB3V_, symObjAddr: 0x50B8, symBinAddr: 0x5D08, symSize: 0x260 }
  - { offset: 0x111D4, size: 0x8, addend: 0x0, symName: __RINvNtNtCse1nGBsou5OW_5alloc3vec16in_place_collect18from_iter_in_placeINtNtNtNtCsfvfooZQ3Axs_4core4iter8adapters3map3MapINtNtB4_9into_iter8IntoIterTNtNtCs6IAuOt8vWmF_3syn4item7UseTreeNtNtB2q_5token5CommaEENCINvNtB2q_10punctuated4foldB2m_B2V_NtNvCs3yqPx1X2sxh_15zerofrom_derive25replace_lifetime_and_type20ReplaceLifetimeAndTyNvYB3R_NtNtNtB2q_3gen4fold4Fold13fold_use_treeE0EB2l_EB3V_, symObjAddr: 0x5318, symBinAddr: 0x5F68, symSize: 0x260 }
  - { offset: 0x11662, size: 0x8, addend: 0x0, symName: __RINvNtNtCse1nGBsou5OW_5alloc3vec16in_place_collect18from_iter_in_placeINtNtNtNtCsfvfooZQ3Axs_4core4iter8adapters3map3MapINtNtB4_9into_iter8IntoIterTNtNtCs6IAuOt8vWmF_3syn4path11PathSegmentNtNtB2q_5token7PathSepEENCINvNtB2q_10punctuated4foldB2m_B30_NtNvCs3yqPx1X2sxh_15zerofrom_derive16replace_lifetime15ReplaceLifetimeNvYB3Y_NtNtNtB2q_3gen4fold4Fold17fold_path_segmentE0EB2l_EB42_, symObjAddr: 0x5578, symBinAddr: 0x61C8, symSize: 0x260 }
  - { offset: 0x11AF0, size: 0x8, addend: 0x0, symName: __RINvNtNtCse1nGBsou5OW_5alloc3vec16in_place_collect18from_iter_in_placeINtNtNtNtCsfvfooZQ3Axs_4core4iter8adapters3map3MapINtNtB4_9into_iter8IntoIterTNtNtCs6IAuOt8vWmF_3syn4path11PathSegmentNtNtB2q_5token7PathSepEENCINvNtB2q_10punctuated4foldB2m_B30_NtNvCs3yqPx1X2sxh_15zerofrom_derive25replace_lifetime_and_type20ReplaceLifetimeAndTyNvYB3Y_NtNtNtB2q_3gen4fold4Fold17fold_path_segmentE0EB2l_EB42_, symObjAddr: 0x57D8, symBinAddr: 0x6428, symSize: 0x260 }
  - { offset: 0x11F7E, size: 0x8, addend: 0x0, symName: __RINvNtNtCse1nGBsou5OW_5alloc3vec16in_place_collect18from_iter_in_placeINtNtNtNtCsfvfooZQ3Axs_4core4iter8adapters3map3MapINtNtB4_9into_iter8IntoIterTNtNtCs6IAuOt8vWmF_3syn4path15GenericArgumentNtNtB2q_5token5CommaEENCINvNtB2q_10punctuated4foldB2m_B34_NtNvCs3yqPx1X2sxh_15zerofrom_derive16replace_lifetime15ReplaceLifetimeNvYB40_NtNtNtB2q_3gen4fold4Fold21fold_generic_argumentE0EB2l_EB44_, symObjAddr: 0x5A38, symBinAddr: 0x6688, symSize: 0x260 }
  - { offset: 0x1240C, size: 0x8, addend: 0x0, symName: __RINvNtNtCse1nGBsou5OW_5alloc3vec16in_place_collect18from_iter_in_placeINtNtNtNtCsfvfooZQ3Axs_4core4iter8adapters3map3MapINtNtB4_9into_iter8IntoIterTNtNtCs6IAuOt8vWmF_3syn4path15GenericArgumentNtNtB2q_5token5CommaEENCINvNtB2q_10punctuated4foldB2m_B34_NtNvCs3yqPx1X2sxh_15zerofrom_derive25replace_lifetime_and_type20ReplaceLifetimeAndTyNvYB40_NtNtNtB2q_3gen4fold4Fold21fold_generic_argumentE0EB2l_EB44_, symObjAddr: 0x5C98, symBinAddr: 0x68E8, symSize: 0x260 }
  - { offset: 0x1289A, size: 0x8, addend: 0x0, symName: __RINvNtNtCse1nGBsou5OW_5alloc3vec16in_place_collect18from_iter_in_placeINtNtNtNtCsfvfooZQ3Axs_4core4iter8adapters3map3MapINtNtB4_9into_iter8IntoIterTNtNtCs6IAuOt8vWmF_3syn8generics12GenericParamNtNtB2q_5token5CommaEENCINvNtB2q_10punctuated4foldB2m_B35_NtNvCs3yqPx1X2sxh_15zerofrom_derive16replace_lifetime15ReplaceLifetimeNvYB41_NtNtNtB2q_3gen4fold4Fold18fold_generic_paramE0EB2l_EB45_, symObjAddr: 0x5EF8, symBinAddr: 0x6B48, symSize: 0x260 }
  - { offset: 0x12D28, size: 0x8, addend: 0x0, symName: __RINvNtNtCse1nGBsou5OW_5alloc3vec16in_place_collect18from_iter_in_placeINtNtNtNtCsfvfooZQ3Axs_4core4iter8adapters3map3MapINtNtB4_9into_iter8IntoIterTNtNtCs6IAuOt8vWmF_3syn8generics12GenericParamNtNtB2q_5token5CommaEENCINvNtB2q_10punctuated4foldB2m_B35_NtNvCs3yqPx1X2sxh_15zerofrom_derive25replace_lifetime_and_type20ReplaceLifetimeAndTyNvYB41_NtNtNtB2q_3gen4fold4Fold18fold_generic_paramE0EB2l_EB45_, symObjAddr: 0x6158, symBinAddr: 0x6DA8, symSize: 0x260 }
  - { offset: 0x131B6, size: 0x8, addend: 0x0, symName: __RINvNtNtCse1nGBsou5OW_5alloc3vec16in_place_collect18from_iter_in_placeINtNtNtNtCsfvfooZQ3Axs_4core4iter8adapters3map3MapINtNtB4_9into_iter8IntoIterTNtNtCs6IAuOt8vWmF_3syn8generics13CapturedParamNtNtB2q_5token5CommaEENCINvNtB2q_10punctuated4foldB2m_B36_NtNvCs3yqPx1X2sxh_15zerofrom_derive16replace_lifetime15ReplaceLifetimeNvYB42_NtNtNtB2q_3gen4fold4Fold19fold_captured_paramE0EB2l_EB46_, symObjAddr: 0x63B8, symBinAddr: 0x7008, symSize: 0x260 }
  - { offset: 0x13644, size: 0x8, addend: 0x0, symName: __RINvNtNtCse1nGBsou5OW_5alloc3vec16in_place_collect18from_iter_in_placeINtNtNtNtCsfvfooZQ3Axs_4core4iter8adapters3map3MapINtNtB4_9into_iter8IntoIterTNtNtCs6IAuOt8vWmF_3syn8generics13CapturedParamNtNtB2q_5token5CommaEENCINvNtB2q_10punctuated4foldB2m_B36_NtNvCs3yqPx1X2sxh_15zerofrom_derive25replace_lifetime_and_type20ReplaceLifetimeAndTyNvYB42_NtNtNtB2q_3gen4fold4Fold19fold_captured_paramE0EB2l_EB46_, symObjAddr: 0x6618, symBinAddr: 0x7268, symSize: 0x260 }
  - { offset: 0x13AD2, size: 0x8, addend: 0x0, symName: __RINvNtNtCse1nGBsou5OW_5alloc3vec16in_place_collect18from_iter_in_placeINtNtNtNtCsfvfooZQ3Axs_4core4iter8adapters3map3MapINtNtB4_9into_iter8IntoIterTNtNtCs6IAuOt8vWmF_3syn8generics14TypeParamBoundNtNtB2q_5token4PlusEENCINvNtB2q_10punctuated4foldB2m_B37_NtNvCs3yqPx1X2sxh_15zerofrom_derive16replace_lifetime15ReplaceLifetimeNvYB42_NtNtNtB2q_3gen4fold4Fold21fold_type_param_boundE0EB2l_EB46_, symObjAddr: 0x6878, symBinAddr: 0x74C8, symSize: 0x25C }
  - { offset: 0x13F60, size: 0x8, addend: 0x0, symName: __RINvNtNtCse1nGBsou5OW_5alloc3vec16in_place_collect18from_iter_in_placeINtNtNtNtCsfvfooZQ3Axs_4core4iter8adapters3map3MapINtNtB4_9into_iter8IntoIterTNtNtCs6IAuOt8vWmF_3syn8generics14TypeParamBoundNtNtB2q_5token4PlusEENCINvNtB2q_10punctuated4foldB2m_B37_NtNvCs3yqPx1X2sxh_15zerofrom_derive25replace_lifetime_and_type20ReplaceLifetimeAndTyNvYB42_NtNtNtB2q_3gen4fold4Fold21fold_type_param_boundE0EB2l_EB46_, symObjAddr: 0x6AD4, symBinAddr: 0x7724, symSize: 0x25C }
  - { offset: 0x143EE, size: 0x8, addend: 0x0, symName: __RINvNtNtCse1nGBsou5OW_5alloc3vec16in_place_collect18from_iter_in_placeINtNtNtNtCsfvfooZQ3Axs_4core4iter8adapters3map3MapINtNtB4_9into_iter8IntoIterTNtNtCs6IAuOt8vWmF_3syn8generics14WherePredicateNtNtB2q_5token5CommaEENCINvNtB2q_10punctuated4foldB2m_B37_NtNvCs3yqPx1X2sxh_15zerofrom_derive16replace_lifetime15ReplaceLifetimeNvYB43_NtNtNtB2q_3gen4fold4Fold20fold_where_predicateE0EB2l_EB47_, symObjAddr: 0x6D30, symBinAddr: 0x7980, symSize: 0x260 }
  - { offset: 0x1487C, size: 0x8, addend: 0x0, symName: __RINvNtNtCse1nGBsou5OW_5alloc3vec16in_place_collect18from_iter_in_placeINtNtNtNtCsfvfooZQ3Axs_4core4iter8adapters3map3MapINtNtB4_9into_iter8IntoIterTNtNtCs6IAuOt8vWmF_3syn8generics14WherePredicateNtNtB2q_5token5CommaEENCINvNtB2q_10punctuated4foldB2m_B37_NtNvCs3yqPx1X2sxh_15zerofrom_derive25replace_lifetime_and_type20ReplaceLifetimeAndTyNvYB43_NtNtNtB2q_3gen4fold4Fold20fold_where_predicateE0EB2l_EB47_, symObjAddr: 0x6F90, symBinAddr: 0x7BE0, symSize: 0x260 }
  - { offset: 0x14D0A, size: 0x8, addend: 0x0, symName: __RINvNtNtCse1nGBsou5OW_5alloc3vec16in_place_collect18from_iter_in_placeINtNtNtNtCsfvfooZQ3Axs_4core4iter8adapters3map3MapINtNtB4_9into_iter8IntoIterTNtNtCs6IAuOt8vWmF_3syn8lifetime8LifetimeNtNtB2q_5token4PlusEENCINvNtB2q_10punctuated4foldB2m_B30_NtNvCs3yqPx1X2sxh_15zerofrom_derive16replace_lifetime15ReplaceLifetimeNvYB3V_NtNtNtB2q_3gen4fold4Fold13fold_lifetimeE0EB2l_EB3Z_, symObjAddr: 0x71F0, symBinAddr: 0x7E40, symSize: 0x260 }
  - { offset: 0x15198, size: 0x8, addend: 0x0, symName: __RINvNtNtCse1nGBsou5OW_5alloc3vec16in_place_collect18from_iter_in_placeINtNtNtNtCsfvfooZQ3Axs_4core4iter8adapters3map3MapINtNtB4_9into_iter8IntoIterTNtNtCs6IAuOt8vWmF_3syn8lifetime8LifetimeNtNtB2q_5token4PlusEENCINvNtB2q_10punctuated4foldB2m_B30_NtNvCs3yqPx1X2sxh_15zerofrom_derive25replace_lifetime_and_type20ReplaceLifetimeAndTyNvYB3V_NtNtNtB2q_3gen4fold4Fold13fold_lifetimeE0EB2l_EB3Z_, symObjAddr: 0x7450, symBinAddr: 0x80A0, symSize: 0x260 }
  - { offset: 0x155F2, size: 0x8, addend: 0x0, symName: __RNCINvNtNtCse1nGBsou5OW_5alloc3vec16in_place_collect24write_in_place_with_dropNtNtCs6IAuOt8vWmF_3syn4attr9AttributeE0Cs3yqPx1X2sxh_15zerofrom_derive, symObjAddr: 0x76B0, symBinAddr: 0x8300, symSize: 0x60 }
  - { offset: 0x15674, size: 0x8, addend: 0x0, symName: __RNCINvNtNtCse1nGBsou5OW_5alloc3vec16in_place_collect24write_in_place_with_dropNtNtCs6IAuOt8vWmF_3syn4expr3ArmE0Cs3yqPx1X2sxh_15zerofrom_derive, symObjAddr: 0x7710, symBinAddr: 0x8360, symSize: 0x60 }
  - { offset: 0x156F6, size: 0x8, addend: 0x0, symName: __RNCINvNtNtCse1nGBsou5OW_5alloc3vec16in_place_collect24write_in_place_with_dropNtNtCs6IAuOt8vWmF_3syn4item11ForeignItemE0Cs3yqPx1X2sxh_15zerofrom_derive, symObjAddr: 0x7770, symBinAddr: 0x83C0, symSize: 0x60 }
  - { offset: 0x15778, size: 0x8, addend: 0x0, symName: __RNCINvNtNtCse1nGBsou5OW_5alloc3vec16in_place_collect24write_in_place_with_dropNtNtCs6IAuOt8vWmF_3syn4item4ItemE0Cs3yqPx1X2sxh_15zerofrom_derive, symObjAddr: 0x77D0, symBinAddr: 0x8420, symSize: 0x60 }
  - { offset: 0x157FA, size: 0x8, addend: 0x0, symName: __RNCINvNtNtCse1nGBsou5OW_5alloc3vec16in_place_collect24write_in_place_with_dropNtNtCs6IAuOt8vWmF_3syn4item8ImplItemE0Cs3yqPx1X2sxh_15zerofrom_derive, symObjAddr: 0x7830, symBinAddr: 0x8480, symSize: 0x60 }
  - { offset: 0x1587C, size: 0x8, addend: 0x0, symName: __RNCINvNtNtCse1nGBsou5OW_5alloc3vec16in_place_collect24write_in_place_with_dropNtNtCs6IAuOt8vWmF_3syn4item9TraitItemE0Cs3yqPx1X2sxh_15zerofrom_derive, symObjAddr: 0x7890, symBinAddr: 0x84E0, symSize: 0x60 }
  - { offset: 0x158FE, size: 0x8, addend: 0x0, symName: __RNCINvNtNtCse1nGBsou5OW_5alloc3vec16in_place_collect24write_in_place_with_dropNtNtCs6IAuOt8vWmF_3syn4stmt4StmtE0Cs3yqPx1X2sxh_15zerofrom_derive, symObjAddr: 0x78F0, symBinAddr: 0x8540, symSize: 0x60 }
  - { offset: 0x15980, size: 0x8, addend: 0x0, symName: __RNCINvNtNtCse1nGBsou5OW_5alloc3vec16in_place_collect24write_in_place_with_dropTNtNtCs6IAuOt8vWmF_3syn2ty4TypeNtNtB1j_5token5CommaEE0Cs3yqPx1X2sxh_15zerofrom_derive, symObjAddr: 0x7950, symBinAddr: 0x85A0, symSize: 0x60 }
  - { offset: 0x15A02, size: 0x8, addend: 0x0, symName: __RNCINvNtNtCse1nGBsou5OW_5alloc3vec16in_place_collect24write_in_place_with_dropTNtNtCs6IAuOt8vWmF_3syn2ty9BareFnArgNtNtB1j_5token5CommaEE0Cs3yqPx1X2sxh_15zerofrom_derive, symObjAddr: 0x79B0, symBinAddr: 0x8600, symSize: 0x60 }
  - { offset: 0x15A84, size: 0x8, addend: 0x0, symName: __RNCINvNtNtCse1nGBsou5OW_5alloc3vec16in_place_collect24write_in_place_with_dropTNtNtCs6IAuOt8vWmF_3syn3pat3PatNtNtB1j_5token2OrEE0Cs3yqPx1X2sxh_15zerofrom_derive, symObjAddr: 0x7A10, symBinAddr: 0x8660, symSize: 0x60 }
  - { offset: 0x15B06, size: 0x8, addend: 0x0, symName: __RNCINvNtNtCse1nGBsou5OW_5alloc3vec16in_place_collect24write_in_place_with_dropTNtNtCs6IAuOt8vWmF_3syn3pat3PatNtNtB1j_5token5CommaEE0Cs3yqPx1X2sxh_15zerofrom_derive, symObjAddr: 0x7A70, symBinAddr: 0x86C0, symSize: 0x60 }
  - { offset: 0x15B88, size: 0x8, addend: 0x0, symName: __RNCINvNtNtCse1nGBsou5OW_5alloc3vec16in_place_collect24write_in_place_with_dropTNtNtCs6IAuOt8vWmF_3syn3pat8FieldPatNtNtB1j_5token5CommaEE0Cs3yqPx1X2sxh_15zerofrom_derive, symObjAddr: 0x7AD0, symBinAddr: 0x8720, symSize: 0x60 }
  - { offset: 0x15C0A, size: 0x8, addend: 0x0, symName: __RNCINvNtNtCse1nGBsou5OW_5alloc3vec16in_place_collect24write_in_place_with_dropTNtNtCs6IAuOt8vWmF_3syn4data5FieldNtNtB1j_5token5CommaEE0Cs3yqPx1X2sxh_15zerofrom_derive, symObjAddr: 0x7B30, symBinAddr: 0x8780, symSize: 0x60 }
  - { offset: 0x15C8C, size: 0x8, addend: 0x0, symName: __RNCINvNtNtCse1nGBsou5OW_5alloc3vec16in_place_collect24write_in_place_with_dropTNtNtCs6IAuOt8vWmF_3syn4data7VariantNtNtB1j_5token5CommaEE0Cs3yqPx1X2sxh_15zerofrom_derive, symObjAddr: 0x7B90, symBinAddr: 0x87E0, symSize: 0x60 }
  - { offset: 0x15D0E, size: 0x8, addend: 0x0, symName: __RNCINvNtNtCse1nGBsou5OW_5alloc3vec16in_place_collect24write_in_place_with_dropTNtNtCs6IAuOt8vWmF_3syn4expr10FieldValueNtNtB1j_5token5CommaEE0Cs3yqPx1X2sxh_15zerofrom_derive, symObjAddr: 0x7BF0, symBinAddr: 0x8840, symSize: 0x60 }
  - { offset: 0x15D90, size: 0x8, addend: 0x0, symName: __RNCINvNtNtCse1nGBsou5OW_5alloc3vec16in_place_collect24write_in_place_with_dropTNtNtCs6IAuOt8vWmF_3syn4expr4ExprNtNtB1j_5token5CommaEE0Cs3yqPx1X2sxh_15zerofrom_derive, symObjAddr: 0x7C50, symBinAddr: 0x88A0, symSize: 0x60 }
  - { offset: 0x15E12, size: 0x8, addend: 0x0, symName: __RNCINvNtNtCse1nGBsou5OW_5alloc3vec16in_place_collect24write_in_place_with_dropTNtNtCs6IAuOt8vWmF_3syn4item5FnArgNtNtB1j_5token5CommaEE0Cs3yqPx1X2sxh_15zerofrom_derive, symObjAddr: 0x7CB0, symBinAddr: 0x8900, symSize: 0x60 }
  - { offset: 0x15E94, size: 0x8, addend: 0x0, symName: __RNCINvNtNtCse1nGBsou5OW_5alloc3vec16in_place_collect24write_in_place_with_dropTNtNtCs6IAuOt8vWmF_3syn4item7UseTreeNtNtB1j_5token5CommaEE0Cs3yqPx1X2sxh_15zerofrom_derive, symObjAddr: 0x7D10, symBinAddr: 0x8960, symSize: 0x60 }
  - { offset: 0x15F16, size: 0x8, addend: 0x0, symName: __RNCINvNtNtCse1nGBsou5OW_5alloc3vec16in_place_collect24write_in_place_with_dropTNtNtCs6IAuOt8vWmF_3syn4path11PathSegmentNtNtB1j_5token7PathSepEE0Cs3yqPx1X2sxh_15zerofrom_derive, symObjAddr: 0x7D70, symBinAddr: 0x89C0, symSize: 0x60 }
  - { offset: 0x15F98, size: 0x8, addend: 0x0, symName: __RNCINvNtNtCse1nGBsou5OW_5alloc3vec16in_place_collect24write_in_place_with_dropTNtNtCs6IAuOt8vWmF_3syn4path15GenericArgumentNtNtB1j_5token5CommaEE0Cs3yqPx1X2sxh_15zerofrom_derive, symObjAddr: 0x7DD0, symBinAddr: 0x8A20, symSize: 0x60 }
  - { offset: 0x1601A, size: 0x8, addend: 0x0, symName: __RNCINvNtNtCse1nGBsou5OW_5alloc3vec16in_place_collect24write_in_place_with_dropTNtNtCs6IAuOt8vWmF_3syn8generics12GenericParamNtNtB1j_5token5CommaEE0Cs3yqPx1X2sxh_15zerofrom_derive, symObjAddr: 0x7E30, symBinAddr: 0x8A80, symSize: 0x60 }
  - { offset: 0x1609C, size: 0x8, addend: 0x0, symName: __RNCINvNtNtCse1nGBsou5OW_5alloc3vec16in_place_collect24write_in_place_with_dropTNtNtCs6IAuOt8vWmF_3syn8generics13CapturedParamNtNtB1j_5token5CommaEE0Cs3yqPx1X2sxh_15zerofrom_derive, symObjAddr: 0x7E90, symBinAddr: 0x8AE0, symSize: 0x60 }
  - { offset: 0x1611E, size: 0x8, addend: 0x0, symName: __RNCINvNtNtCse1nGBsou5OW_5alloc3vec16in_place_collect24write_in_place_with_dropTNtNtCs6IAuOt8vWmF_3syn8generics14TypeParamBoundNtNtB1j_5token4PlusEE0Cs3yqPx1X2sxh_15zerofrom_derive, symObjAddr: 0x7EF0, symBinAddr: 0x8B40, symSize: 0x60 }
  - { offset: 0x161A0, size: 0x8, addend: 0x0, symName: __RNCINvNtNtCse1nGBsou5OW_5alloc3vec16in_place_collect24write_in_place_with_dropTNtNtCs6IAuOt8vWmF_3syn8generics14WherePredicateNtNtB1j_5token5CommaEE0Cs3yqPx1X2sxh_15zerofrom_derive, symObjAddr: 0x7F50, symBinAddr: 0x8BA0, symSize: 0x60 }
  - { offset: 0x16222, size: 0x8, addend: 0x0, symName: __RNCINvNtNtCse1nGBsou5OW_5alloc3vec16in_place_collect24write_in_place_with_dropTNtNtCs6IAuOt8vWmF_3syn8lifetime8LifetimeNtNtB1j_5token4PlusEE0Cs3yqPx1X2sxh_15zerofrom_derive, symObjAddr: 0x7FB0, symBinAddr: 0x8C00, symSize: 0x60 }
  - { offset: 0x23910, size: 0x8, addend: 0x0, symName: __RINvXs3_NtNtCse1nGBsou5OW_5alloc3vec9into_iterINtB6_8IntoIterNtNtCs6IAuOt8vWmF_3syn4attr9AttributeENtNtNtNtCsfvfooZQ3Axs_4core4iter6traits8iterator8Iterator8try_foldINtNtB8_13in_place_drop11InPlaceDropBX_ENCINvNtNtB1F_8adapters3map12map_try_foldBX_BX_B2D_INtNtB1H_6result6ResultB2D_zENCINvNtNtB11_3gen4fold8fold_vecBX_NtNvCs3yqPx1X2sxh_15zerofrom_derive16replace_lifetime15ReplaceLifetimeNvYB56_NtB4D_4Fold14fold_attributeE0NCINvNtB8_16in_place_collect24write_in_place_with_dropBX_E0E0B45_EB5a_, symObjAddr: 0x0, symBinAddr: 0x8C60, symSize: 0x1F0 }
  - { offset: 0x2E0F1, size: 0x8, addend: 0x0, symName: __RINvYINtNtNtCse1nGBsou5OW_5alloc3vec9into_iter8IntoIterNtNtCs6IAuOt8vWmF_3syn4attr9AttributeENtNtNtNtCsfvfooZQ3Axs_4core4iter6traits8iterator8Iterator3mapBR_NCINvNtNtBV_3gen4fold8fold_vecBR_NtNvCs3yqPx1X2sxh_15zerofrom_derive16replace_lifetime15ReplaceLifetimeNvYB32_NtB2A_4Fold14fold_attributeE0EB36_, symObjAddr: 0x6230, symBinAddr: 0xEE90, symSize: 0x34 }
  - { offset: 0x2E15E, size: 0x8, addend: 0x0, symName: __RINvYINtNtNtCse1nGBsou5OW_5alloc3vec9into_iter8IntoIterNtNtCs6IAuOt8vWmF_3syn4attr9AttributeENtNtNtNtCsfvfooZQ3Axs_4core4iter6traits8iterator8Iterator3mapBR_NCINvNtNtBV_3gen4fold8fold_vecBR_NtNvCs3yqPx1X2sxh_15zerofrom_derive25replace_lifetime_and_type20ReplaceLifetimeAndTyNvYB32_NtB2A_4Fold14fold_attributeE0EB36_, symObjAddr: 0x6264, symBinAddr: 0xEEC4, symSize: 0x34 }
  - { offset: 0x2E1CB, size: 0x8, addend: 0x0, symName: __RINvYINtNtNtCse1nGBsou5OW_5alloc3vec9into_iter8IntoIterNtNtCs6IAuOt8vWmF_3syn4expr3ArmENtNtNtNtCsfvfooZQ3Axs_4core4iter6traits8iterator8Iterator3mapBR_NCINvNtNtBV_3gen4fold8fold_vecBR_NtNvCs3yqPx1X2sxh_15zerofrom_derive16replace_lifetime15ReplaceLifetimeNvYB2W_NtB2u_4Fold8fold_armE0EB30_, symObjAddr: 0x6298, symBinAddr: 0xEEF8, symSize: 0x34 }
  - { offset: 0x2E238, size: 0x8, addend: 0x0, symName: __RINvYINtNtNtCse1nGBsou5OW_5alloc3vec9into_iter8IntoIterNtNtCs6IAuOt8vWmF_3syn4expr3ArmENtNtNtNtCsfvfooZQ3Axs_4core4iter6traits8iterator8Iterator3mapBR_NCINvNtNtBV_3gen4fold8fold_vecBR_NtNvCs3yqPx1X2sxh_15zerofrom_derive25replace_lifetime_and_type20ReplaceLifetimeAndTyNvYB2W_NtB2u_4Fold8fold_armE0EB30_, symObjAddr: 0x62CC, symBinAddr: 0xEF2C, symSize: 0x34 }
  - { offset: 0x2E2A5, size: 0x8, addend: 0x0, symName: __RINvYINtNtNtCse1nGBsou5OW_5alloc3vec9into_iter8IntoIterNtNtCs6IAuOt8vWmF_3syn4item11ForeignItemENtNtNtNtCsfvfooZQ3Axs_4core4iter6traits8iterator8Iterator3mapBR_NCINvNtNtBV_3gen4fold8fold_vecBR_NtNvCs3yqPx1X2sxh_15zerofrom_derive16replace_lifetime15ReplaceLifetimeNvYB35_NtB2D_4Fold17fold_foreign_itemE0EB39_, symObjAddr: 0x6300, symBinAddr: 0xEF60, symSize: 0x34 }
  - { offset: 0x2E312, size: 0x8, addend: 0x0, symName: __RINvYINtNtNtCse1nGBsou5OW_5alloc3vec9into_iter8IntoIterNtNtCs6IAuOt8vWmF_3syn4item11ForeignItemENtNtNtNtCsfvfooZQ3Axs_4core4iter6traits8iterator8Iterator3mapBR_NCINvNtNtBV_3gen4fold8fold_vecBR_NtNvCs3yqPx1X2sxh_15zerofrom_derive25replace_lifetime_and_type20ReplaceLifetimeAndTyNvYB35_NtB2D_4Fold17fold_foreign_itemE0EB39_, symObjAddr: 0x6334, symBinAddr: 0xEF94, symSize: 0x34 }
  - { offset: 0x2E37F, size: 0x8, addend: 0x0, symName: __RINvYINtNtNtCse1nGBsou5OW_5alloc3vec9into_iter8IntoIterNtNtCs6IAuOt8vWmF_3syn4item4ItemENtNtNtNtCsfvfooZQ3Axs_4core4iter6traits8iterator8Iterator3mapBR_NCINvNtNtBV_3gen4fold8fold_vecBR_NtNvCs3yqPx1X2sxh_15zerofrom_derive16replace_lifetime15ReplaceLifetimeNvYB2X_NtB2v_4Fold9fold_itemE0EB31_, symObjAddr: 0x6368, symBinAddr: 0xEFC8, symSize: 0x34 }
  - { offset: 0x2E3EC, size: 0x8, addend: 0x0, symName: __RINvYINtNtNtCse1nGBsou5OW_5alloc3vec9into_iter8IntoIterNtNtCs6IAuOt8vWmF_3syn4item4ItemENtNtNtNtCsfvfooZQ3Axs_4core4iter6traits8iterator8Iterator3mapBR_NCINvNtNtBV_3gen4fold8fold_vecBR_NtNvCs3yqPx1X2sxh_15zerofrom_derive25replace_lifetime_and_type20ReplaceLifetimeAndTyNvYB2X_NtB2v_4Fold9fold_itemE0EB31_, symObjAddr: 0x639C, symBinAddr: 0xEFFC, symSize: 0x34 }
  - { offset: 0x2E459, size: 0x8, addend: 0x0, symName: __RINvYINtNtNtCse1nGBsou5OW_5alloc3vec9into_iter8IntoIterNtNtCs6IAuOt8vWmF_3syn4item8ImplItemENtNtNtNtCsfvfooZQ3Axs_4core4iter6traits8iterator8Iterator3mapBR_NCINvNtNtBV_3gen4fold8fold_vecBR_NtNvCs3yqPx1X2sxh_15zerofrom_derive16replace_lifetime15ReplaceLifetimeNvYB31_NtB2z_4Fold14fold_impl_itemE0EB35_, symObjAddr: 0x63D0, symBinAddr: 0xF030, symSize: 0x34 }
  - { offset: 0x2E4C6, size: 0x8, addend: 0x0, symName: __RINvYINtNtNtCse1nGBsou5OW_5alloc3vec9into_iter8IntoIterNtNtCs6IAuOt8vWmF_3syn4item8ImplItemENtNtNtNtCsfvfooZQ3Axs_4core4iter6traits8iterator8Iterator3mapBR_NCINvNtNtBV_3gen4fold8fold_vecBR_NtNvCs3yqPx1X2sxh_15zerofrom_derive25replace_lifetime_and_type20ReplaceLifetimeAndTyNvYB31_NtB2z_4Fold14fold_impl_itemE0EB35_, symObjAddr: 0x6404, symBinAddr: 0xF064, symSize: 0x34 }
  - { offset: 0x2E533, size: 0x8, addend: 0x0, symName: __RINvYINtNtNtCse1nGBsou5OW_5alloc3vec9into_iter8IntoIterNtNtCs6IAuOt8vWmF_3syn4item9TraitItemENtNtNtNtCsfvfooZQ3Axs_4core4iter6traits8iterator8Iterator3mapBR_NCINvNtNtBV_3gen4fold8fold_vecBR_NtNvCs3yqPx1X2sxh_15zerofrom_derive16replace_lifetime15ReplaceLifetimeNvYB32_NtB2A_4Fold15fold_trait_itemE0EB36_, symObjAddr: 0x6438, symBinAddr: 0xF098, symSize: 0x34 }
  - { offset: 0x2E5A0, size: 0x8, addend: 0x0, symName: __RINvYINtNtNtCse1nGBsou5OW_5alloc3vec9into_iter8IntoIterNtNtCs6IAuOt8vWmF_3syn4item9TraitItemENtNtNtNtCsfvfooZQ3Axs_4core4iter6traits8iterator8Iterator3mapBR_NCINvNtNtBV_3gen4fold8fold_vecBR_NtNvCs3yqPx1X2sxh_15zerofrom_derive25replace_lifetime_and_type20ReplaceLifetimeAndTyNvYB32_NtB2A_4Fold15fold_trait_itemE0EB36_, symObjAddr: 0x646C, symBinAddr: 0xF0CC, symSize: 0x34 }
  - { offset: 0x2E60D, size: 0x8, addend: 0x0, symName: __RINvYINtNtNtCse1nGBsou5OW_5alloc3vec9into_iter8IntoIterNtNtCs6IAuOt8vWmF_3syn4stmt4StmtENtNtNtNtCsfvfooZQ3Axs_4core4iter6traits8iterator8Iterator3mapBR_NCINvNtNtBV_3gen4fold8fold_vecBR_NtNvCs3yqPx1X2sxh_15zerofrom_derive16replace_lifetime15ReplaceLifetimeNvYB2X_NtB2v_4Fold9fold_stmtE0EB31_, symObjAddr: 0x64A0, symBinAddr: 0xF100, symSize: 0x34 }
  - { offset: 0x2E67A, size: 0x8, addend: 0x0, symName: __RINvYINtNtNtCse1nGBsou5OW_5alloc3vec9into_iter8IntoIterNtNtCs6IAuOt8vWmF_3syn4stmt4StmtENtNtNtNtCsfvfooZQ3Axs_4core4iter6traits8iterator8Iterator3mapBR_NCINvNtNtBV_3gen4fold8fold_vecBR_NtNvCs3yqPx1X2sxh_15zerofrom_derive25replace_lifetime_and_type20ReplaceLifetimeAndTyNvYB2X_NtB2v_4Fold9fold_stmtE0EB31_, symObjAddr: 0x64D4, symBinAddr: 0xF134, symSize: 0x34 }
  - { offset: 0x2E6E7, size: 0x8, addend: 0x0, symName: __RINvYINtNtNtCse1nGBsou5OW_5alloc3vec9into_iter8IntoIterTNtCs3cP53eQoTwO_11proc_macro25IdentNtNtCs6IAuOt8vWmF_3syn5token5CommaEENtNtNtNtCsfvfooZQ3Axs_4core4iter6traits8iterator8Iterator3mapBS_NCNvXs8_NtB1v_10punctuatedINtB3b_10PunctuatedBS_B1r_ENtNtB25_7collect12IntoIterator9into_iter0ECs3yqPx1X2sxh_15zerofrom_derive, symObjAddr: 0x6508, symBinAddr: 0xF168, symSize: 0x1C }
  - { offset: 0x2E754, size: 0x8, addend: 0x0, symName: __RINvYINtNtNtCse1nGBsou5OW_5alloc3vec9into_iter8IntoIterTNtNtCs6IAuOt8vWmF_3syn2ty4TypeNtNtBW_5token5CommaEENtNtNtNtCsfvfooZQ3Axs_4core4iter6traits8iterator8Iterator3mapBR_NCINvNtBW_10punctuated4foldBS_B1m_NtNvCs3yqPx1X2sxh_15zerofrom_derive16replace_lifetime15ReplaceLifetimeNvYB3h_NtNtNtBW_3gen4fold4Fold9fold_typeE0EB3l_, symObjAddr: 0x6524, symBinAddr: 0xF184, symSize: 0x34 }
  - { offset: 0x2E7C1, size: 0x8, addend: 0x0, symName: __RINvYINtNtNtCse1nGBsou5OW_5alloc3vec9into_iter8IntoIterTNtNtCs6IAuOt8vWmF_3syn2ty4TypeNtNtBW_5token5CommaEENtNtNtNtCsfvfooZQ3Axs_4core4iter6traits8iterator8Iterator3mapBR_NCINvNtBW_10punctuated4foldBS_B1m_NtNvCs3yqPx1X2sxh_15zerofrom_derive25replace_lifetime_and_type20ReplaceLifetimeAndTyNvYB3h_NtNtNtBW_3gen4fold4Fold9fold_typeE0EB3l_, symObjAddr: 0x6558, symBinAddr: 0xF1B8, symSize: 0x34 }
  - { offset: 0x2E82E, size: 0x8, addend: 0x0, symName: __RINvYINtNtNtCse1nGBsou5OW_5alloc3vec9into_iter8IntoIterTNtNtCs6IAuOt8vWmF_3syn2ty9BareFnArgNtNtBW_5token5CommaEENtNtNtNtCsfvfooZQ3Axs_4core4iter6traits8iterator8Iterator3mapBR_NCINvNtBW_10punctuated4foldBS_B1r_NtNvCs3yqPx1X2sxh_15zerofrom_derive16replace_lifetime15ReplaceLifetimeNvYB3m_NtNtNtBW_3gen4fold4Fold16fold_bare_fn_argE0EB3q_, symObjAddr: 0x658C, symBinAddr: 0xF1EC, symSize: 0x34 }
  - { offset: 0x2E89B, size: 0x8, addend: 0x0, symName: __RINvYINtNtNtCse1nGBsou5OW_5alloc3vec9into_iter8IntoIterTNtNtCs6IAuOt8vWmF_3syn2ty9BareFnArgNtNtBW_5token5CommaEENtNtNtNtCsfvfooZQ3Axs_4core4iter6traits8iterator8Iterator3mapBR_NCINvNtBW_10punctuated4foldBS_B1r_NtNvCs3yqPx1X2sxh_15zerofrom_derive25replace_lifetime_and_type20ReplaceLifetimeAndTyNvYB3m_NtNtNtBW_3gen4fold4Fold16fold_bare_fn_argE0EB3q_, symObjAddr: 0x65C0, symBinAddr: 0xF220, symSize: 0x34 }
  - { offset: 0x2E908, size: 0x8, addend: 0x0, symName: __RINvYINtNtNtCse1nGBsou5OW_5alloc3vec9into_iter8IntoIterTNtNtCs6IAuOt8vWmF_3syn3pat3PatNtNtBW_5token2OrEENtNtNtNtCsfvfooZQ3Axs_4core4iter6traits8iterator8Iterator3mapBR_NCINvNtBW_10punctuated4foldBS_B1m_NtNvCs3yqPx1X2sxh_15zerofrom_derive16replace_lifetime15ReplaceLifetimeNvYB3e_NtNtNtBW_3gen4fold4Fold8fold_patE0EB3i_, symObjAddr: 0x65F4, symBinAddr: 0xF254, symSize: 0x34 }
  - { offset: 0x2E975, size: 0x8, addend: 0x0, symName: __RINvYINtNtNtCse1nGBsou5OW_5alloc3vec9into_iter8IntoIterTNtNtCs6IAuOt8vWmF_3syn3pat3PatNtNtBW_5token2OrEENtNtNtNtCsfvfooZQ3Axs_4core4iter6traits8iterator8Iterator3mapBR_NCINvNtBW_10punctuated4foldBS_B1m_NtNvCs3yqPx1X2sxh_15zerofrom_derive25replace_lifetime_and_type20ReplaceLifetimeAndTyNvYB3e_NtNtNtBW_3gen4fold4Fold8fold_patE0EB3i_, symObjAddr: 0x6628, symBinAddr: 0xF288, symSize: 0x34 }
  - { offset: 0x2E9E2, size: 0x8, addend: 0x0, symName: __RINvYINtNtNtCse1nGBsou5OW_5alloc3vec9into_iter8IntoIterTNtNtCs6IAuOt8vWmF_3syn3pat3PatNtNtBW_5token5CommaEENtNtNtNtCsfvfooZQ3Axs_4core4iter6traits8iterator8Iterator3mapBR_NCINvNtBW_10punctuated4foldBS_B1m_NtNvCs3yqPx1X2sxh_15zerofrom_derive16replace_lifetime15ReplaceLifetimeNvYB3h_NtNtNtBW_3gen4fold4Fold8fold_patE0EB3l_, symObjAddr: 0x665C, symBinAddr: 0xF2BC, symSize: 0x34 }
  - { offset: 0x2EA4F, size: 0x8, addend: 0x0, symName: __RINvYINtNtNtCse1nGBsou5OW_5alloc3vec9into_iter8IntoIterTNtNtCs6IAuOt8vWmF_3syn3pat3PatNtNtBW_5token5CommaEENtNtNtNtCsfvfooZQ3Axs_4core4iter6traits8iterator8Iterator3mapBR_NCINvNtBW_10punctuated4foldBS_B1m_NtNvCs3yqPx1X2sxh_15zerofrom_derive25replace_lifetime_and_type20ReplaceLifetimeAndTyNvYB3h_NtNtNtBW_3gen4fold4Fold8fold_patE0EB3l_, symObjAddr: 0x6690, symBinAddr: 0xF2F0, symSize: 0x34 }
  - { offset: 0x2EABC, size: 0x8, addend: 0x0, symName: __RINvYINtNtNtCse1nGBsou5OW_5alloc3vec9into_iter8IntoIterTNtNtCs6IAuOt8vWmF_3syn3pat8FieldPatNtNtBW_5token5CommaEENtNtNtNtCsfvfooZQ3Axs_4core4iter6traits8iterator8Iterator3mapBR_NCINvNtBW_10punctuated4foldBS_B1r_NtNvCs3yqPx1X2sxh_15zerofrom_derive16replace_lifetime15ReplaceLifetimeNvYB3m_NtNtNtBW_3gen4fold4Fold14fold_field_patE0EB3q_, symObjAddr: 0x66C4, symBinAddr: 0xF324, symSize: 0x34 }
  - { offset: 0x2EB29, size: 0x8, addend: 0x0, symName: __RINvYINtNtNtCse1nGBsou5OW_5alloc3vec9into_iter8IntoIterTNtNtCs6IAuOt8vWmF_3syn3pat8FieldPatNtNtBW_5token5CommaEENtNtNtNtCsfvfooZQ3Axs_4core4iter6traits8iterator8Iterator3mapBR_NCINvNtBW_10punctuated4foldBS_B1r_NtNvCs3yqPx1X2sxh_15zerofrom_derive25replace_lifetime_and_type20ReplaceLifetimeAndTyNvYB3m_NtNtNtBW_3gen4fold4Fold14fold_field_patE0EB3q_, symObjAddr: 0x66F8, symBinAddr: 0xF358, symSize: 0x34 }
  - { offset: 0x2EB96, size: 0x8, addend: 0x0, symName: __RINvYINtNtNtCse1nGBsou5OW_5alloc3vec9into_iter8IntoIterTNtNtCs6IAuOt8vWmF_3syn4data5FieldNtNtBW_5token5CommaEENtNtNtNtCsfvfooZQ3Axs_4core4iter6traits8iterator8Iterator3mapBR_NCINvNtBW_10punctuated4foldBS_B1p_NtNvCs3yqPx1X2sxh_15zerofrom_derive16replace_lifetime15ReplaceLifetimeNvYB3k_NtNtNtBW_3gen4fold4Fold10fold_fieldE0EB3o_, symObjAddr: 0x672C, symBinAddr: 0xF38C, symSize: 0x34 }
  - { offset: 0x2EC03, size: 0x8, addend: 0x0, symName: __RINvYINtNtNtCse1nGBsou5OW_5alloc3vec9into_iter8IntoIterTNtNtCs6IAuOt8vWmF_3syn4data5FieldNtNtBW_5token5CommaEENtNtNtNtCsfvfooZQ3Axs_4core4iter6traits8iterator8Iterator3mapBR_NCINvNtBW_10punctuated4foldBS_B1p_NtNvCs3yqPx1X2sxh_15zerofrom_derive25replace_lifetime_and_type20ReplaceLifetimeAndTyNvYB3k_NtNtNtBW_3gen4fold4Fold10fold_fieldE0EB3o_, symObjAddr: 0x6760, symBinAddr: 0xF3C0, symSize: 0x34 }
  - { offset: 0x2EC70, size: 0x8, addend: 0x0, symName: __RINvYINtNtNtCse1nGBsou5OW_5alloc3vec9into_iter8IntoIterTNtNtCs6IAuOt8vWmF_3syn4data7VariantNtNtBW_5token5CommaEENtNtNtNtCsfvfooZQ3Axs_4core4iter6traits8iterator8Iterator3mapBR_NCINvNtBW_10punctuated4foldBS_B1r_NtNvCs3yqPx1X2sxh_15zerofrom_derive16replace_lifetime15ReplaceLifetimeNvYB3m_NtNtNtBW_3gen4fold4Fold12fold_variantE0EB3q_, symObjAddr: 0x6794, symBinAddr: 0xF3F4, symSize: 0x34 }
  - { offset: 0x2ECDD, size: 0x8, addend: 0x0, symName: __RINvYINtNtNtCse1nGBsou5OW_5alloc3vec9into_iter8IntoIterTNtNtCs6IAuOt8vWmF_3syn4data7VariantNtNtBW_5token5CommaEENtNtNtNtCsfvfooZQ3Axs_4core4iter6traits8iterator8Iterator3mapBR_NCINvNtBW_10punctuated4foldBS_B1r_NtNvCs3yqPx1X2sxh_15zerofrom_derive25replace_lifetime_and_type20ReplaceLifetimeAndTyNvYB3m_NtNtNtBW_3gen4fold4Fold12fold_variantE0EB3q_, symObjAddr: 0x67C8, symBinAddr: 0xF428, symSize: 0x34 }
  - { offset: 0x2ED4A, size: 0x8, addend: 0x0, symName: __RINvYINtNtNtCse1nGBsou5OW_5alloc3vec9into_iter8IntoIterTNtNtCs6IAuOt8vWmF_3syn4expr10FieldValueNtNtBW_5token5CommaEENtNtNtNtCsfvfooZQ3Axs_4core4iter6traits8iterator8Iterator3mapBR_NCINvNtBW_10punctuated4foldBS_B1v_NtNvCs3yqPx1X2sxh_15zerofrom_derive16replace_lifetime15ReplaceLifetimeNvYB3q_NtNtNtBW_3gen4fold4Fold16fold_field_valueE0EB3u_, symObjAddr: 0x67FC, symBinAddr: 0xF45C, symSize: 0x34 }
  - { offset: 0x2EDB7, size: 0x8, addend: 0x0, symName: __RINvYINtNtNtCse1nGBsou5OW_5alloc3vec9into_iter8IntoIterTNtNtCs6IAuOt8vWmF_3syn4expr10FieldValueNtNtBW_5token5CommaEENtNtNtNtCsfvfooZQ3Axs_4core4iter6traits8iterator8Iterator3mapBR_NCINvNtBW_10punctuated4foldBS_B1v_NtNvCs3yqPx1X2sxh_15zerofrom_derive25replace_lifetime_and_type20ReplaceLifetimeAndTyNvYB3q_NtNtNtBW_3gen4fold4Fold16fold_field_valueE0EB3u_, symObjAddr: 0x6830, symBinAddr: 0xF490, symSize: 0x34 }
  - { offset: 0x2EE24, size: 0x8, addend: 0x0, symName: __RINvYINtNtNtCse1nGBsou5OW_5alloc3vec9into_iter8IntoIterTNtNtCs6IAuOt8vWmF_3syn4expr4ExprNtNtBW_5token5CommaEENtNtNtNtCsfvfooZQ3Axs_4core4iter6traits8iterator8Iterator3mapBR_NCINvNtBW_10punctuated4foldBS_B1o_NtNvCs3yqPx1X2sxh_15zerofrom_derive16replace_lifetime15ReplaceLifetimeNvYB3j_NtNtNtBW_3gen4fold4Fold9fold_exprE0EB3n_, symObjAddr: 0x6864, symBinAddr: 0xF4C4, symSize: 0x34 }
  - { offset: 0x2EE91, size: 0x8, addend: 0x0, symName: __RINvYINtNtNtCse1nGBsou5OW_5alloc3vec9into_iter8IntoIterTNtNtCs6IAuOt8vWmF_3syn4expr4ExprNtNtBW_5token5CommaEENtNtNtNtCsfvfooZQ3Axs_4core4iter6traits8iterator8Iterator3mapBR_NCINvNtBW_10punctuated4foldBS_B1o_NtNvCs3yqPx1X2sxh_15zerofrom_derive25replace_lifetime_and_type20ReplaceLifetimeAndTyNvYB3j_NtNtNtBW_3gen4fold4Fold9fold_exprE0EB3n_, symObjAddr: 0x6898, symBinAddr: 0xF4F8, symSize: 0x34 }
  - { offset: 0x2EEFE, size: 0x8, addend: 0x0, symName: __RINvYINtNtNtCse1nGBsou5OW_5alloc3vec9into_iter8IntoIterTNtNtCs6IAuOt8vWmF_3syn4item5FnArgNtNtBW_5token5CommaEENtNtNtNtCsfvfooZQ3Axs_4core4iter6traits8iterator8Iterator3mapBR_NCINvNtBW_10punctuated4foldBS_B1p_NtNvCs3yqPx1X2sxh_15zerofrom_derive16replace_lifetime15ReplaceLifetimeNvYB3k_NtNtNtBW_3gen4fold4Fold11fold_fn_argE0EB3o_, symObjAddr: 0x68CC, symBinAddr: 0xF52C, symSize: 0x34 }
  - { offset: 0x2EF6B, size: 0x8, addend: 0x0, symName: __RINvYINtNtNtCse1nGBsou5OW_5alloc3vec9into_iter8IntoIterTNtNtCs6IAuOt8vWmF_3syn4item5FnArgNtNtBW_5token5CommaEENtNtNtNtCsfvfooZQ3Axs_4core4iter6traits8iterator8Iterator3mapBR_NCINvNtBW_10punctuated4foldBS_B1p_NtNvCs3yqPx1X2sxh_15zerofrom_derive25replace_lifetime_and_type20ReplaceLifetimeAndTyNvYB3k_NtNtNtBW_3gen4fold4Fold11fold_fn_argE0EB3o_, symObjAddr: 0x6900, symBinAddr: 0xF560, symSize: 0x34 }
  - { offset: 0x2EFD8, size: 0x8, addend: 0x0, symName: __RINvYINtNtNtCse1nGBsou5OW_5alloc3vec9into_iter8IntoIterTNtNtCs6IAuOt8vWmF_3syn4item7UseTreeNtNtBW_5token5CommaEENtNtNtNtCsfvfooZQ3Axs_4core4iter6traits8iterator8Iterator3mapBR_NCINvNtBW_10punctuated4foldBS_B1r_NtNvCs3yqPx1X2sxh_15zerofrom_derive16replace_lifetime15ReplaceLifetimeNvYB3m_NtNtNtBW_3gen4fold4Fold13fold_use_treeE0EB3q_, symObjAddr: 0x6934, symBinAddr: 0xF594, symSize: 0x34 }
  - { offset: 0x2F045, size: 0x8, addend: 0x0, symName: __RINvYINtNtNtCse1nGBsou5OW_5alloc3vec9into_iter8IntoIterTNtNtCs6IAuOt8vWmF_3syn4item7UseTreeNtNtBW_5token5CommaEENtNtNtNtCsfvfooZQ3Axs_4core4iter6traits8iterator8Iterator3mapBR_NCINvNtBW_10punctuated4foldBS_B1r_NtNvCs3yqPx1X2sxh_15zerofrom_derive25replace_lifetime_and_type20ReplaceLifetimeAndTyNvYB3m_NtNtNtBW_3gen4fold4Fold13fold_use_treeE0EB3q_, symObjAddr: 0x6968, symBinAddr: 0xF5C8, symSize: 0x34 }
  - { offset: 0x2F0B2, size: 0x8, addend: 0x0, symName: __RINvYINtNtNtCse1nGBsou5OW_5alloc3vec9into_iter8IntoIterTNtNtCs6IAuOt8vWmF_3syn4path11PathSegmentNtNtBW_5token7PathSepEENtNtNtNtCsfvfooZQ3Axs_4core4iter6traits8iterator8Iterator3mapBR_NCINvNtBW_10punctuated4foldBS_B1w_NtNvCs3yqPx1X2sxh_15zerofrom_derive16replace_lifetime15ReplaceLifetimeNvYB3t_NtNtNtBW_3gen4fold4Fold17fold_path_segmentE0EB3x_, symObjAddr: 0x699C, symBinAddr: 0xF5FC, symSize: 0x34 }
  - { offset: 0x2F11F, size: 0x8, addend: 0x0, symName: __RINvYINtNtNtCse1nGBsou5OW_5alloc3vec9into_iter8IntoIterTNtNtCs6IAuOt8vWmF_3syn4path11PathSegmentNtNtBW_5token7PathSepEENtNtNtNtCsfvfooZQ3Axs_4core4iter6traits8iterator8Iterator3mapBR_NCINvNtBW_10punctuated4foldBS_B1w_NtNvCs3yqPx1X2sxh_15zerofrom_derive25replace_lifetime_and_type20ReplaceLifetimeAndTyNvYB3t_NtNtNtBW_3gen4fold4Fold17fold_path_segmentE0EB3x_, symObjAddr: 0x69D0, symBinAddr: 0xF630, symSize: 0x34 }
  - { offset: 0x2F18C, size: 0x8, addend: 0x0, symName: __RINvYINtNtNtCse1nGBsou5OW_5alloc3vec9into_iter8IntoIterTNtNtCs6IAuOt8vWmF_3syn4path15GenericArgumentNtNtBW_5token5CommaEENtNtNtNtCsfvfooZQ3Axs_4core4iter6traits8iterator8Iterator3mapBR_NCINvNtBW_10punctuated4foldBS_B1A_NtNvCs3yqPx1X2sxh_15zerofrom_derive16replace_lifetime15ReplaceLifetimeNvYB3v_NtNtNtBW_3gen4fold4Fold21fold_generic_argumentE0EB3z_, symObjAddr: 0x6A04, symBinAddr: 0xF664, symSize: 0x34 }
  - { offset: 0x2F1F9, size: 0x8, addend: 0x0, symName: __RINvYINtNtNtCse1nGBsou5OW_5alloc3vec9into_iter8IntoIterTNtNtCs6IAuOt8vWmF_3syn4path15GenericArgumentNtNtBW_5token5CommaEENtNtNtNtCsfvfooZQ3Axs_4core4iter6traits8iterator8Iterator3mapBR_NCINvNtBW_10punctuated4foldBS_B1A_NtNvCs3yqPx1X2sxh_15zerofrom_derive25replace_lifetime_and_type20ReplaceLifetimeAndTyNvYB3v_NtNtNtBW_3gen4fold4Fold21fold_generic_argumentE0EB3z_, symObjAddr: 0x6A38, symBinAddr: 0xF698, symSize: 0x34 }
  - { offset: 0x2F266, size: 0x8, addend: 0x0, symName: __RINvYINtNtNtCse1nGBsou5OW_5alloc3vec9into_iter8IntoIterTNtNtCs6IAuOt8vWmF_3syn8generics12GenericParamNtNtBW_5token5CommaEENtNtNtNtCsfvfooZQ3Axs_4core4iter6traits8iterator8Iterator3mapBR_NCINvNtBW_10punctuated4foldBS_B1B_NtNvCs3yqPx1X2sxh_15zerofrom_derive16replace_lifetime15ReplaceLifetimeNvYB3w_NtNtNtBW_3gen4fold4Fold18fold_generic_paramE0EB3A_, symObjAddr: 0x6A6C, symBinAddr: 0xF6CC, symSize: 0x34 }
  - { offset: 0x2F2D3, size: 0x8, addend: 0x0, symName: __RINvYINtNtNtCse1nGBsou5OW_5alloc3vec9into_iter8IntoIterTNtNtCs6IAuOt8vWmF_3syn8generics12GenericParamNtNtBW_5token5CommaEENtNtNtNtCsfvfooZQ3Axs_4core4iter6traits8iterator8Iterator3mapBR_NCINvNtBW_10punctuated4foldBS_B1B_NtNvCs3yqPx1X2sxh_15zerofrom_derive25replace_lifetime_and_type20ReplaceLifetimeAndTyNvYB3w_NtNtNtBW_3gen4fold4Fold18fold_generic_paramE0EB3A_, symObjAddr: 0x6AA0, symBinAddr: 0xF700, symSize: 0x34 }
  - { offset: 0x2F340, size: 0x8, addend: 0x0, symName: __RINvYINtNtNtCse1nGBsou5OW_5alloc3vec9into_iter8IntoIterTNtNtCs6IAuOt8vWmF_3syn8generics13CapturedParamNtNtBW_5token5CommaEENtNtNtNtCsfvfooZQ3Axs_4core4iter6traits8iterator8Iterator3mapBR_NCINvNtBW_10punctuated4foldBS_B1C_NtNvCs3yqPx1X2sxh_15zerofrom_derive16replace_lifetime15ReplaceLifetimeNvYB3x_NtNtNtBW_3gen4fold4Fold19fold_captured_paramE0EB3B_, symObjAddr: 0x6AD4, symBinAddr: 0xF734, symSize: 0x34 }
  - { offset: 0x2F3AD, size: 0x8, addend: 0x0, symName: __RINvYINtNtNtCse1nGBsou5OW_5alloc3vec9into_iter8IntoIterTNtNtCs6IAuOt8vWmF_3syn8generics13CapturedParamNtNtBW_5token5CommaEENtNtNtNtCsfvfooZQ3Axs_4core4iter6traits8iterator8Iterator3mapBR_NCINvNtBW_10punctuated4foldBS_B1C_NtNvCs3yqPx1X2sxh_15zerofrom_derive25replace_lifetime_and_type20ReplaceLifetimeAndTyNvYB3x_NtNtNtBW_3gen4fold4Fold19fold_captured_paramE0EB3B_, symObjAddr: 0x6B08, symBinAddr: 0xF768, symSize: 0x34 }
  - { offset: 0x2F41A, size: 0x8, addend: 0x0, symName: __RINvYINtNtNtCse1nGBsou5OW_5alloc3vec9into_iter8IntoIterTNtNtCs6IAuOt8vWmF_3syn8generics14TypeParamBoundNtNtBW_5token4PlusEENtNtNtNtCsfvfooZQ3Axs_4core4iter6traits8iterator8Iterator3mapBR_NCINvNtBW_10punctuated4foldBS_B1D_NtNvCs3yqPx1X2sxh_15zerofrom_derive16replace_lifetime15ReplaceLifetimeNvYB3x_NtNtNtBW_3gen4fold4Fold21fold_type_param_boundE0EB3B_, symObjAddr: 0x6B3C, symBinAddr: 0xF79C, symSize: 0x34 }
  - { offset: 0x2F487, size: 0x8, addend: 0x0, symName: __RINvYINtNtNtCse1nGBsou5OW_5alloc3vec9into_iter8IntoIterTNtNtCs6IAuOt8vWmF_3syn8generics14TypeParamBoundNtNtBW_5token4PlusEENtNtNtNtCsfvfooZQ3Axs_4core4iter6traits8iterator8Iterator3mapBR_NCINvNtBW_10punctuated4foldBS_B1D_NtNvCs3yqPx1X2sxh_15zerofrom_derive25replace_lifetime_and_type20ReplaceLifetimeAndTyNvYB3x_NtNtNtBW_3gen4fold4Fold21fold_type_param_boundE0EB3B_, symObjAddr: 0x6B70, symBinAddr: 0xF7D0, symSize: 0x34 }
  - { offset: 0x2F4F4, size: 0x8, addend: 0x0, symName: __RINvYINtNtNtCse1nGBsou5OW_5alloc3vec9into_iter8IntoIterTNtNtCs6IAuOt8vWmF_3syn8generics14WherePredicateNtNtBW_5token5CommaEENtNtNtNtCsfvfooZQ3Axs_4core4iter6traits8iterator8Iterator3mapBR_NCINvNtBW_10punctuated4foldBS_B1D_NtNvCs3yqPx1X2sxh_15zerofrom_derive16replace_lifetime15ReplaceLifetimeNvYB3y_NtNtNtBW_3gen4fold4Fold20fold_where_predicateE0EB3C_, symObjAddr: 0x6BA4, symBinAddr: 0xF804, symSize: 0x34 }
  - { offset: 0x2F561, size: 0x8, addend: 0x0, symName: __RINvYINtNtNtCse1nGBsou5OW_5alloc3vec9into_iter8IntoIterTNtNtCs6IAuOt8vWmF_3syn8generics14WherePredicateNtNtBW_5token5CommaEENtNtNtNtCsfvfooZQ3Axs_4core4iter6traits8iterator8Iterator3mapBR_NCINvNtBW_10punctuated4foldBS_B1D_NtNvCs3yqPx1X2sxh_15zerofrom_derive25replace_lifetime_and_type20ReplaceLifetimeAndTyNvYB3y_NtNtNtBW_3gen4fold4Fold20fold_where_predicateE0EB3C_, symObjAddr: 0x6BD8, symBinAddr: 0xF838, symSize: 0x34 }
  - { offset: 0x2F5CE, size: 0x8, addend: 0x0, symName: __RINvYINtNtNtCse1nGBsou5OW_5alloc3vec9into_iter8IntoIterTNtNtCs6IAuOt8vWmF_3syn8lifetime8LifetimeNtNtBW_5token4PlusEENtNtNtNtCsfvfooZQ3Axs_4core4iter6traits8iterator8Iterator3mapBR_NCINvNtBW_10punctuated4foldBS_B1w_NtNvCs3yqPx1X2sxh_15zerofrom_derive16replace_lifetime15ReplaceLifetimeNvYB3q_NtNtNtBW_3gen4fold4Fold13fold_lifetimeE0EB3u_, symObjAddr: 0x6C0C, symBinAddr: 0xF86C, symSize: 0x34 }
  - { offset: 0x2F63B, size: 0x8, addend: 0x0, symName: __RINvYINtNtNtCse1nGBsou5OW_5alloc3vec9into_iter8IntoIterTNtNtCs6IAuOt8vWmF_3syn8lifetime8LifetimeNtNtBW_5token4PlusEENtNtNtNtCsfvfooZQ3Axs_4core4iter6traits8iterator8Iterator3mapBR_NCINvNtBW_10punctuated4foldBS_B1w_NtNvCs3yqPx1X2sxh_15zerofrom_derive25replace_lifetime_and_type20ReplaceLifetimeAndTyNvYB3q_NtNtNtBW_3gen4fold4Fold13fold_lifetimeE0EB3u_, symObjAddr: 0x6C40, symBinAddr: 0xF8A0, symSize: 0x34 }
  - { offset: 0x2FDC9, size: 0x8, addend: 0x0, symName: __RNvYINtNtNtCse1nGBsou5OW_5alloc3vec9into_iter8IntoIterNtCs3cP53eQoTwO_11proc_macro25IdentENtNtNtNtCsfvfooZQ3Axs_4core4iter6traits10exact_size17ExactSizeIterator3lenCs3yqPx1X2sxh_15zerofrom_derive, symObjAddr: 0xA478, symBinAddr: 0x130D8, symSize: 0xF4 }
  - { offset: 0x2FEBC, size: 0x8, addend: 0x0, symName: __RNvYINtNtNtCse1nGBsou5OW_5alloc3vec9into_iter8IntoIterNtNtCs6IAuOt8vWmF_3syn4expr3ArmENtNtNtNtCsfvfooZQ3Axs_4core4iter6traits10exact_size17ExactSizeIterator3lenCs3yqPx1X2sxh_15zerofrom_derive, symObjAddr: 0xA56C, symBinAddr: 0x131CC, symSize: 0xF4 }
  - { offset: 0x2FFAF, size: 0x8, addend: 0x0, symName: __RNvYINtNtNtCse1nGBsou5OW_5alloc3vec9into_iter8IntoIterNtNtCs6IAuOt8vWmF_3syn4item11ForeignItemENtNtNtNtCsfvfooZQ3Axs_4core4iter6traits10exact_size17ExactSizeIterator3lenCs3yqPx1X2sxh_15zerofrom_derive, symObjAddr: 0xA660, symBinAddr: 0x132C0, symSize: 0xF4 }
  - { offset: 0x300A2, size: 0x8, addend: 0x0, symName: __RNvYINtNtNtCse1nGBsou5OW_5alloc3vec9into_iter8IntoIterNtNtCs6IAuOt8vWmF_3syn4item4ItemENtNtNtNtCsfvfooZQ3Axs_4core4iter6traits10exact_size17ExactSizeIterator3lenCs3yqPx1X2sxh_15zerofrom_derive, symObjAddr: 0xA754, symBinAddr: 0x133B4, symSize: 0xF4 }
  - { offset: 0x30195, size: 0x8, addend: 0x0, symName: __RNvYINtNtNtCse1nGBsou5OW_5alloc3vec9into_iter8IntoIterNtNtCs6IAuOt8vWmF_3syn4item8ImplItemENtNtNtNtCsfvfooZQ3Axs_4core4iter6traits10exact_size17ExactSizeIterator3lenCs3yqPx1X2sxh_15zerofrom_derive, symObjAddr: 0xA848, symBinAddr: 0x134A8, symSize: 0xF4 }
  - { offset: 0x30288, size: 0x8, addend: 0x0, symName: __RNvYINtNtNtCse1nGBsou5OW_5alloc3vec9into_iter8IntoIterNtNtCs6IAuOt8vWmF_3syn4item9TraitItemENtNtNtNtCsfvfooZQ3Axs_4core4iter6traits10exact_size17ExactSizeIterator3lenCs3yqPx1X2sxh_15zerofrom_derive, symObjAddr: 0xA93C, symBinAddr: 0x1359C, symSize: 0xF4 }
  - { offset: 0x3037B, size: 0x8, addend: 0x0, symName: __RNvYINtNtNtCse1nGBsou5OW_5alloc3vec9into_iter8IntoIterNtNtCs6IAuOt8vWmF_3syn4stmt4StmtENtNtNtNtCsfvfooZQ3Axs_4core4iter6traits10exact_size17ExactSizeIterator3lenCs3yqPx1X2sxh_15zerofrom_derive, symObjAddr: 0xAA30, symBinAddr: 0x13690, symSize: 0xF4 }
  - { offset: 0x3046E, size: 0x8, addend: 0x0, symName: __RNvYINtNtNtCse1nGBsou5OW_5alloc3vec9into_iter8IntoIterTNtCs3cP53eQoTwO_11proc_macro25IdentNtNtCs6IAuOt8vWmF_3syn5token5CommaEENtNtNtNtCsfvfooZQ3Axs_4core4iter6traits10exact_size17ExactSizeIterator3lenCs3yqPx1X2sxh_15zerofrom_derive, symObjAddr: 0xAB24, symBinAddr: 0x13784, symSize: 0xF4 }
  - { offset: 0x30561, size: 0x8, addend: 0x0, symName: __RNvYINtNtNtCse1nGBsou5OW_5alloc3vec9into_iter8IntoIterTNtNtCs6IAuOt8vWmF_3syn2ty4TypeNtNtBV_5token5CommaEENtNtNtNtCsfvfooZQ3Axs_4core4iter6traits10exact_size17ExactSizeIterator3lenCs3yqPx1X2sxh_15zerofrom_derive, symObjAddr: 0xAC18, symBinAddr: 0x13878, symSize: 0xF4 }
  - { offset: 0x30654, size: 0x8, addend: 0x0, symName: __RNvYINtNtNtCse1nGBsou5OW_5alloc3vec9into_iter8IntoIterTNtNtCs6IAuOt8vWmF_3syn2ty9BareFnArgNtNtBV_5token5CommaEENtNtNtNtCsfvfooZQ3Axs_4core4iter6traits10exact_size17ExactSizeIterator3lenCs3yqPx1X2sxh_15zerofrom_derive, symObjAddr: 0xAD0C, symBinAddr: 0x1396C, symSize: 0xF4 }
  - { offset: 0x30747, size: 0x8, addend: 0x0, symName: __RNvYINtNtNtCse1nGBsou5OW_5alloc3vec9into_iter8IntoIterTNtNtCs6IAuOt8vWmF_3syn3pat3PatNtNtBV_5token2OrEENtNtNtNtCsfvfooZQ3Axs_4core4iter6traits10exact_size17ExactSizeIterator3lenCs3yqPx1X2sxh_15zerofrom_derive, symObjAddr: 0xAE00, symBinAddr: 0x13A60, symSize: 0xF4 }
  - { offset: 0x3083A, size: 0x8, addend: 0x0, symName: __RNvYINtNtNtCse1nGBsou5OW_5alloc3vec9into_iter8IntoIterTNtNtCs6IAuOt8vWmF_3syn3pat3PatNtNtBV_5token5CommaEENtNtNtNtCsfvfooZQ3Axs_4core4iter6traits10exact_size17ExactSizeIterator3lenCs3yqPx1X2sxh_15zerofrom_derive, symObjAddr: 0xAEF4, symBinAddr: 0x13B54, symSize: 0xF4 }
  - { offset: 0x3092D, size: 0x8, addend: 0x0, symName: __RNvYINtNtNtCse1nGBsou5OW_5alloc3vec9into_iter8IntoIterTNtNtCs6IAuOt8vWmF_3syn3pat8FieldPatNtNtBV_5token5CommaEENtNtNtNtCsfvfooZQ3Axs_4core4iter6traits10exact_size17ExactSizeIterator3lenCs3yqPx1X2sxh_15zerofrom_derive, symObjAddr: 0xAFE8, symBinAddr: 0x13C48, symSize: 0xF4 }
  - { offset: 0x30A20, size: 0x8, addend: 0x0, symName: __RNvYINtNtNtCse1nGBsou5OW_5alloc3vec9into_iter8IntoIterTNtNtCs6IAuOt8vWmF_3syn4data7VariantNtNtBV_5token5CommaEENtNtNtNtCsfvfooZQ3Axs_4core4iter6traits10exact_size17ExactSizeIterator3lenCs3yqPx1X2sxh_15zerofrom_derive, symObjAddr: 0xB0DC, symBinAddr: 0x13D3C, symSize: 0xF4 }
  - { offset: 0x30B13, size: 0x8, addend: 0x0, symName: __RNvYINtNtNtCse1nGBsou5OW_5alloc3vec9into_iter8IntoIterTNtNtCs6IAuOt8vWmF_3syn4expr10FieldValueNtNtBV_5token5CommaEENtNtNtNtCsfvfooZQ3Axs_4core4iter6traits10exact_size17ExactSizeIterator3lenCs3yqPx1X2sxh_15zerofrom_derive, symObjAddr: 0xB1D0, symBinAddr: 0x13E30, symSize: 0xF4 }
  - { offset: 0x30C06, size: 0x8, addend: 0x0, symName: __RNvYINtNtNtCse1nGBsou5OW_5alloc3vec9into_iter8IntoIterTNtNtCs6IAuOt8vWmF_3syn4expr4ExprNtNtBV_5token5CommaEENtNtNtNtCsfvfooZQ3Axs_4core4iter6traits10exact_size17ExactSizeIterator3lenCs3yqPx1X2sxh_15zerofrom_derive, symObjAddr: 0xB2C4, symBinAddr: 0x13F24, symSize: 0xF4 }
  - { offset: 0x30CF9, size: 0x8, addend: 0x0, symName: __RNvYINtNtNtCse1nGBsou5OW_5alloc3vec9into_iter8IntoIterTNtNtCs6IAuOt8vWmF_3syn4item5FnArgNtNtBV_5token5CommaEENtNtNtNtCsfvfooZQ3Axs_4core4iter6traits10exact_size17ExactSizeIterator3lenCs3yqPx1X2sxh_15zerofrom_derive, symObjAddr: 0xB3B8, symBinAddr: 0x14018, symSize: 0xF4 }
  - { offset: 0x30DEC, size: 0x8, addend: 0x0, symName: __RNvYINtNtNtCse1nGBsou5OW_5alloc3vec9into_iter8IntoIterTNtNtCs6IAuOt8vWmF_3syn4item7UseTreeNtNtBV_5token5CommaEENtNtNtNtCsfvfooZQ3Axs_4core4iter6traits10exact_size17ExactSizeIterator3lenCs3yqPx1X2sxh_15zerofrom_derive, symObjAddr: 0xB4AC, symBinAddr: 0x1410C, symSize: 0xF4 }
  - { offset: 0x30EDF, size: 0x8, addend: 0x0, symName: __RNvYINtNtNtCse1nGBsou5OW_5alloc3vec9into_iter8IntoIterTNtNtCs6IAuOt8vWmF_3syn4path15GenericArgumentNtNtBV_5token5CommaEENtNtNtNtCsfvfooZQ3Axs_4core4iter6traits10exact_size17ExactSizeIterator3lenCs3yqPx1X2sxh_15zerofrom_derive, symObjAddr: 0xB5A0, symBinAddr: 0x14200, symSize: 0xF4 }
  - { offset: 0x30FD2, size: 0x8, addend: 0x0, symName: __RNvYINtNtNtCse1nGBsou5OW_5alloc3vec9into_iter8IntoIterTNtNtCs6IAuOt8vWmF_3syn8generics12GenericParamNtNtBV_5token5CommaEENtNtNtNtCsfvfooZQ3Axs_4core4iter6traits10exact_size17ExactSizeIterator3lenCs3yqPx1X2sxh_15zerofrom_derive, symObjAddr: 0xB694, symBinAddr: 0x142F4, symSize: 0xF4 }
  - { offset: 0x310C5, size: 0x8, addend: 0x0, symName: __RNvYINtNtNtCse1nGBsou5OW_5alloc3vec9into_iter8IntoIterTNtNtCs6IAuOt8vWmF_3syn8generics13CapturedParamNtNtBV_5token5CommaEENtNtNtNtCsfvfooZQ3Axs_4core4iter6traits10exact_size17ExactSizeIterator3lenCs3yqPx1X2sxh_15zerofrom_derive, symObjAddr: 0xB788, symBinAddr: 0x143E8, symSize: 0xF4 }
  - { offset: 0x311B8, size: 0x8, addend: 0x0, symName: __RNvYINtNtNtCse1nGBsou5OW_5alloc3vec9into_iter8IntoIterTNtNtCs6IAuOt8vWmF_3syn8generics14WherePredicateNtNtBV_5token5CommaEENtNtNtNtCsfvfooZQ3Axs_4core4iter6traits10exact_size17ExactSizeIterator3lenCs3yqPx1X2sxh_15zerofrom_derive, symObjAddr: 0xB87C, symBinAddr: 0x144DC, symSize: 0xF4 }
  - { offset: 0x312AB, size: 0x8, addend: 0x0, symName: __RNvYINtNtNtCse1nGBsou5OW_5alloc3vec9into_iter8IntoIterTNtNtCs6IAuOt8vWmF_3syn8lifetime8LifetimeNtNtBV_5token4PlusEENtNtNtNtCsfvfooZQ3Axs_4core4iter6traits10exact_size17ExactSizeIterator3lenCs3yqPx1X2sxh_15zerofrom_derive, symObjAddr: 0xB970, symBinAddr: 0x145D0, symSize: 0xF4 }
  - { offset: 0x37802, size: 0x8, addend: 0x0, symName: __RINvXs3_NtNtCse1nGBsou5OW_5alloc3vec9into_iterINtB6_8IntoIterNtNtCs6IAuOt8vWmF_3syn4attr9AttributeENtNtNtNtCsfvfooZQ3Axs_4core4iter6traits8iterator8Iterator8try_foldINtNtB8_13in_place_drop11InPlaceDropBX_ENCINvNtNtB1F_8adapters3map12map_try_foldBX_BX_B2D_INtNtB1H_6result6ResultB2D_zENCINvNtNtB11_3gen4fold8fold_vecBX_NtNvCs3yqPx1X2sxh_15zerofrom_derive16replace_lifetime15ReplaceLifetimeNvYB56_NtB4D_4Fold14fold_attributeE0NCINvNtB8_16in_place_collect24write_in_place_with_dropBX_E0E0B45_EB5a_, symObjAddr: 0x0, symBinAddr: 0x8C60, symSize: 0x1F0 }
  - { offset: 0x379E4, size: 0x8, addend: 0x0, symName: __RINvXs3_NtNtCse1nGBsou5OW_5alloc3vec9into_iterINtB6_8IntoIterNtNtCs6IAuOt8vWmF_3syn4attr9AttributeENtNtNtNtCsfvfooZQ3Axs_4core4iter6traits8iterator8Iterator8try_foldINtNtB8_13in_place_drop11InPlaceDropBX_ENCINvNtNtB1F_8adapters3map12map_try_foldBX_BX_B2D_INtNtB1H_6result6ResultB2D_zENCINvNtNtB11_3gen4fold8fold_vecBX_NtNvCs3yqPx1X2sxh_15zerofrom_derive25replace_lifetime_and_type20ReplaceLifetimeAndTyNvYB56_NtB4D_4Fold14fold_attributeE0NCINvNtB8_16in_place_collect24write_in_place_with_dropBX_E0E0B45_EB5a_, symObjAddr: 0x1F0, symBinAddr: 0x8E50, symSize: 0x1F0 }
  - { offset: 0x37BC6, size: 0x8, addend: 0x0, symName: __RINvXs3_NtNtCse1nGBsou5OW_5alloc3vec9into_iterINtB6_8IntoIterNtNtCs6IAuOt8vWmF_3syn4expr3ArmENtNtNtNtCsfvfooZQ3Axs_4core4iter6traits8iterator8Iterator8try_foldINtNtB8_13in_place_drop11InPlaceDropBX_ENCINvNtNtB1z_8adapters3map12map_try_foldBX_BX_B2x_INtNtB1B_6result6ResultB2x_zENCINvNtNtB11_3gen4fold8fold_vecBX_NtNvCs3yqPx1X2sxh_15zerofrom_derive16replace_lifetime15ReplaceLifetimeNvYB50_NtB4x_4Fold8fold_armE0NCINvNtB8_16in_place_collect24write_in_place_with_dropBX_E0E0B3Z_EB54_, symObjAddr: 0x3E0, symBinAddr: 0x9040, symSize: 0x1F0 }
  - { offset: 0x37DA8, size: 0x8, addend: 0x0, symName: __RINvXs3_NtNtCse1nGBsou5OW_5alloc3vec9into_iterINtB6_8IntoIterNtNtCs6IAuOt8vWmF_3syn4expr3ArmENtNtNtNtCsfvfooZQ3Axs_4core4iter6traits8iterator8Iterator8try_foldINtNtB8_13in_place_drop11InPlaceDropBX_ENCINvNtNtB1z_8adapters3map12map_try_foldBX_BX_B2x_INtNtB1B_6result6ResultB2x_zENCINvNtNtB11_3gen4fold8fold_vecBX_NtNvCs3yqPx1X2sxh_15zerofrom_derive25replace_lifetime_and_type20ReplaceLifetimeAndTyNvYB50_NtB4x_4Fold8fold_armE0NCINvNtB8_16in_place_collect24write_in_place_with_dropBX_E0E0B3Z_EB54_, symObjAddr: 0x5D0, symBinAddr: 0x9230, symSize: 0x1F0 }
  - { offset: 0x37F8A, size: 0x8, addend: 0x0, symName: __RINvXs3_NtNtCse1nGBsou5OW_5alloc3vec9into_iterINtB6_8IntoIterNtNtCs6IAuOt8vWmF_3syn4item11ForeignItemENtNtNtNtCsfvfooZQ3Axs_4core4iter6traits8iterator8Iterator8try_foldINtNtB8_13in_place_drop11InPlaceDropBX_ENCINvNtNtB1I_8adapters3map12map_try_foldBX_BX_B2G_INtNtB1K_6result6ResultB2G_zENCINvNtNtB11_3gen4fold8fold_vecBX_NtNvCs3yqPx1X2sxh_15zerofrom_derive16replace_lifetime15ReplaceLifetimeNvYB59_NtB4G_4Fold17fold_foreign_itemE0NCINvNtB8_16in_place_collect24write_in_place_with_dropBX_E0E0B48_EB5d_, symObjAddr: 0x7C0, symBinAddr: 0x9420, symSize: 0x1F0 }
  - { offset: 0x3816C, size: 0x8, addend: 0x0, symName: __RINvXs3_NtNtCse1nGBsou5OW_5alloc3vec9into_iterINtB6_8IntoIterNtNtCs6IAuOt8vWmF_3syn4item11ForeignItemENtNtNtNtCsfvfooZQ3Axs_4core4iter6traits8iterator8Iterator8try_foldINtNtB8_13in_place_drop11InPlaceDropBX_ENCINvNtNtB1I_8adapters3map12map_try_foldBX_BX_B2G_INtNtB1K_6result6ResultB2G_zENCINvNtNtB11_3gen4fold8fold_vecBX_NtNvCs3yqPx1X2sxh_15zerofrom_derive25replace_lifetime_and_type20ReplaceLifetimeAndTyNvYB59_NtB4G_4Fold17fold_foreign_itemE0NCINvNtB8_16in_place_collect24write_in_place_with_dropBX_E0E0B48_EB5d_, symObjAddr: 0x9B0, symBinAddr: 0x9610, symSize: 0x1F0 }
  - { offset: 0x3834E, size: 0x8, addend: 0x0, symName: __RINvXs3_NtNtCse1nGBsou5OW_5alloc3vec9into_iterINtB6_8IntoIterNtNtCs6IAuOt8vWmF_3syn4item4ItemENtNtNtNtCsfvfooZQ3Axs_4core4iter6traits8iterator8Iterator8try_foldINtNtB8_13in_place_drop11InPlaceDropBX_ENCINvNtNtB1A_8adapters3map12map_try_foldBX_BX_B2y_INtNtB1C_6result6ResultB2y_zENCINvNtNtB11_3gen4fold8fold_vecBX_NtNvCs3yqPx1X2sxh_15zerofrom_derive16replace_lifetime15ReplaceLifetimeNvYB51_NtB4y_4Fold9fold_itemE0NCINvNtB8_16in_place_collect24write_in_place_with_dropBX_E0E0B40_EB55_, symObjAddr: 0xBA0, symBinAddr: 0x9800, symSize: 0x1F0 }
  - { offset: 0x38530, size: 0x8, addend: 0x0, symName: __RINvXs3_NtNtCse1nGBsou5OW_5alloc3vec9into_iterINtB6_8IntoIterNtNtCs6IAuOt8vWmF_3syn4item4ItemENtNtNtNtCsfvfooZQ3Axs_4core4iter6traits8iterator8Iterator8try_foldINtNtB8_13in_place_drop11InPlaceDropBX_ENCINvNtNtB1A_8adapters3map12map_try_foldBX_BX_B2y_INtNtB1C_6result6ResultB2y_zENCINvNtNtB11_3gen4fold8fold_vecBX_NtNvCs3yqPx1X2sxh_15zerofrom_derive25replace_lifetime_and_type20ReplaceLifetimeAndTyNvYB51_NtB4y_4Fold9fold_itemE0NCINvNtB8_16in_place_collect24write_in_place_with_dropBX_E0E0B40_EB55_, symObjAddr: 0xD90, symBinAddr: 0x99F0, symSize: 0x1F0 }
  - { offset: 0x38712, size: 0x8, addend: 0x0, symName: __RINvXs3_NtNtCse1nGBsou5OW_5alloc3vec9into_iterINtB6_8IntoIterNtNtCs6IAuOt8vWmF_3syn4item8ImplItemENtNtNtNtCsfvfooZQ3Axs_4core4iter6traits8iterator8Iterator8try_foldINtNtB8_13in_place_drop11InPlaceDropBX_ENCINvNtNtB1E_8adapters3map12map_try_foldBX_BX_B2C_INtNtB1G_6result6ResultB2C_zENCINvNtNtB11_3gen4fold8fold_vecBX_NtNvCs3yqPx1X2sxh_15zerofrom_derive16replace_lifetime15ReplaceLifetimeNvYB55_NtB4C_4Fold14fold_impl_itemE0NCINvNtB8_16in_place_collect24write_in_place_with_dropBX_E0E0B44_EB59_, symObjAddr: 0xF80, symBinAddr: 0x9BE0, symSize: 0x1F4 }
  - { offset: 0x388F4, size: 0x8, addend: 0x0, symName: __RINvXs3_NtNtCse1nGBsou5OW_5alloc3vec9into_iterINtB6_8IntoIterNtNtCs6IAuOt8vWmF_3syn4item8ImplItemENtNtNtNtCsfvfooZQ3Axs_4core4iter6traits8iterator8Iterator8try_foldINtNtB8_13in_place_drop11InPlaceDropBX_ENCINvNtNtB1E_8adapters3map12map_try_foldBX_BX_B2C_INtNtB1G_6result6ResultB2C_zENCINvNtNtB11_3gen4fold8fold_vecBX_NtNvCs3yqPx1X2sxh_15zerofrom_derive25replace_lifetime_and_type20ReplaceLifetimeAndTyNvYB55_NtB4C_4Fold14fold_impl_itemE0NCINvNtB8_16in_place_collect24write_in_place_with_dropBX_E0E0B44_EB59_, symObjAddr: 0x1174, symBinAddr: 0x9DD4, symSize: 0x1F4 }
  - { offset: 0x38AD6, size: 0x8, addend: 0x0, symName: __RINvXs3_NtNtCse1nGBsou5OW_5alloc3vec9into_iterINtB6_8IntoIterNtNtCs6IAuOt8vWmF_3syn4item9TraitItemENtNtNtNtCsfvfooZQ3Axs_4core4iter6traits8iterator8Iterator8try_foldINtNtB8_13in_place_drop11InPlaceDropBX_ENCINvNtNtB1F_8adapters3map12map_try_foldBX_BX_B2D_INtNtB1H_6result6ResultB2D_zENCINvNtNtB11_3gen4fold8fold_vecBX_NtNvCs3yqPx1X2sxh_15zerofrom_derive16replace_lifetime15ReplaceLifetimeNvYB56_NtB4D_4Fold15fold_trait_itemE0NCINvNtB8_16in_place_collect24write_in_place_with_dropBX_E0E0B45_EB5a_, symObjAddr: 0x1368, symBinAddr: 0x9FC8, symSize: 0x1F4 }
  - { offset: 0x38CB8, size: 0x8, addend: 0x0, symName: __RINvXs3_NtNtCse1nGBsou5OW_5alloc3vec9into_iterINtB6_8IntoIterNtNtCs6IAuOt8vWmF_3syn4item9TraitItemENtNtNtNtCsfvfooZQ3Axs_4core4iter6traits8iterator8Iterator8try_foldINtNtB8_13in_place_drop11InPlaceDropBX_ENCINvNtNtB1F_8adapters3map12map_try_foldBX_BX_B2D_INtNtB1H_6result6ResultB2D_zENCINvNtNtB11_3gen4fold8fold_vecBX_NtNvCs3yqPx1X2sxh_15zerofrom_derive25replace_lifetime_and_type20ReplaceLifetimeAndTyNvYB56_NtB4D_4Fold15fold_trait_itemE0NCINvNtB8_16in_place_collect24write_in_place_with_dropBX_E0E0B45_EB5a_, symObjAddr: 0x155C, symBinAddr: 0xA1BC, symSize: 0x1F4 }
  - { offset: 0x38E9A, size: 0x8, addend: 0x0, symName: __RINvXs3_NtNtCse1nGBsou5OW_5alloc3vec9into_iterINtB6_8IntoIterNtNtCs6IAuOt8vWmF_3syn4stmt4StmtENtNtNtNtCsfvfooZQ3Axs_4core4iter6traits8iterator8Iterator8try_foldINtNtB8_13in_place_drop11InPlaceDropBX_ENCINvNtNtB1A_8adapters3map12map_try_foldBX_BX_B2y_INtNtB1C_6result6ResultB2y_zENCINvNtNtB11_3gen4fold8fold_vecBX_NtNvCs3yqPx1X2sxh_15zerofrom_derive16replace_lifetime15ReplaceLifetimeNvYB51_NtB4y_4Fold9fold_stmtE0NCINvNtB8_16in_place_collect24write_in_place_with_dropBX_E0E0B40_EB55_, symObjAddr: 0x1750, symBinAddr: 0xA3B0, symSize: 0x1F0 }
  - { offset: 0x3907C, size: 0x8, addend: 0x0, symName: __RINvXs3_NtNtCse1nGBsou5OW_5alloc3vec9into_iterINtB6_8IntoIterNtNtCs6IAuOt8vWmF_3syn4stmt4StmtENtNtNtNtCsfvfooZQ3Axs_4core4iter6traits8iterator8Iterator8try_foldINtNtB8_13in_place_drop11InPlaceDropBX_ENCINvNtNtB1A_8adapters3map12map_try_foldBX_BX_B2y_INtNtB1C_6result6ResultB2y_zENCINvNtNtB11_3gen4fold8fold_vecBX_NtNvCs3yqPx1X2sxh_15zerofrom_derive25replace_lifetime_and_type20ReplaceLifetimeAndTyNvYB51_NtB4y_4Fold9fold_stmtE0NCINvNtB8_16in_place_collect24write_in_place_with_dropBX_E0E0B40_EB55_, symObjAddr: 0x1940, symBinAddr: 0xA5A0, symSize: 0x1F0 }
  - { offset: 0x3925E, size: 0x8, addend: 0x0, symName: __RINvXs3_NtNtCse1nGBsou5OW_5alloc3vec9into_iterINtB6_8IntoIterTNtCs3cP53eQoTwO_11proc_macro25IdentNtNtCs6IAuOt8vWmF_3syn5token5CommaEENtNtNtNtCsfvfooZQ3Axs_4core4iter6traits8iterator8Iterator4folduNCINvNtNtB2d_8adapters3map8map_foldBX_BY_uNCNvXs8_NtB1B_10punctuatedINtB3W_10PunctuatedBY_B1x_ENtNtB2b_7collect12IntoIterator9into_iter0NCINvNvB27_8for_each4callBY_NCINvMsi_B8_INtB8_3VecBY_E14extend_trustedINtB3d_3MapBI_B3O_EE0E0E0ECs3yqPx1X2sxh_15zerofrom_derive, symObjAddr: 0x1B30, symBinAddr: 0xA790, symSize: 0x138 }
  - { offset: 0x3942C, size: 0x8, addend: 0x0, symName: __RINvXs3_NtNtCse1nGBsou5OW_5alloc3vec9into_iterINtB6_8IntoIterTNtNtCs6IAuOt8vWmF_3syn2ty4TypeNtNtB12_5token5CommaEENtNtNtNtCsfvfooZQ3Axs_4core4iter6traits8iterator8Iterator8try_foldINtNtB8_13in_place_drop11InPlaceDropBX_ENCINvNtNtB1U_8adapters3map12map_try_foldBX_BX_B2S_INtNtB1W_6result6ResultB2S_zENCINvNtB12_10punctuated4foldBY_B1s_NtNvCs3yqPx1X2sxh_15zerofrom_derive16replace_lifetime15ReplaceLifetimeNvYB5m_NtNtNtB12_3gen4fold4Fold9fold_typeE0NCINvNtB8_16in_place_collect24write_in_place_with_dropBX_E0E0B4k_EB5q_, symObjAddr: 0x1C68, symBinAddr: 0xA8C8, symSize: 0x1F0 }
  - { offset: 0x3960E, size: 0x8, addend: 0x0, symName: __RINvXs3_NtNtCse1nGBsou5OW_5alloc3vec9into_iterINtB6_8IntoIterTNtNtCs6IAuOt8vWmF_3syn2ty4TypeNtNtB12_5token5CommaEENtNtNtNtCsfvfooZQ3Axs_4core4iter6traits8iterator8Iterator8try_foldINtNtB8_13in_place_drop11InPlaceDropBX_ENCINvNtNtB1U_8adapters3map12map_try_foldBX_BX_B2S_INtNtB1W_6result6ResultB2S_zENCINvNtB12_10punctuated4foldBY_B1s_NtNvCs3yqPx1X2sxh_15zerofrom_derive25replace_lifetime_and_type20ReplaceLifetimeAndTyNvYB5m_NtNtNtB12_3gen4fold4Fold9fold_typeE0NCINvNtB8_16in_place_collect24write_in_place_with_dropBX_E0E0B4k_EB5q_, symObjAddr: 0x1E58, symBinAddr: 0xAAB8, symSize: 0x1F0 }
  - { offset: 0x397F0, size: 0x8, addend: 0x0, symName: __RINvXs3_NtNtCse1nGBsou5OW_5alloc3vec9into_iterINtB6_8IntoIterTNtNtCs6IAuOt8vWmF_3syn2ty9BareFnArgNtNtB12_5token5CommaEENtNtNtNtCsfvfooZQ3Axs_4core4iter6traits8iterator8Iterator8try_foldINtNtB8_13in_place_drop11InPlaceDropBX_ENCINvNtNtB1Z_8adapters3map12map_try_foldBX_BX_B2X_INtNtB21_6result6ResultB2X_zENCINvNtB12_10punctuated4foldBY_B1x_NtNvCs3yqPx1X2sxh_15zerofrom_derive16replace_lifetime15ReplaceLifetimeNvYB5r_NtNtNtB12_3gen4fold4Fold16fold_bare_fn_argE0NCINvNtB8_16in_place_collect24write_in_place_with_dropBX_E0E0B4p_EB5v_, symObjAddr: 0x2048, symBinAddr: 0xACA8, symSize: 0x1F0 }
  - { offset: 0x399D2, size: 0x8, addend: 0x0, symName: __RINvXs3_NtNtCse1nGBsou5OW_5alloc3vec9into_iterINtB6_8IntoIterTNtNtCs6IAuOt8vWmF_3syn2ty9BareFnArgNtNtB12_5token5CommaEENtNtNtNtCsfvfooZQ3Axs_4core4iter6traits8iterator8Iterator8try_foldINtNtB8_13in_place_drop11InPlaceDropBX_ENCINvNtNtB1Z_8adapters3map12map_try_foldBX_BX_B2X_INtNtB21_6result6ResultB2X_zENCINvNtB12_10punctuated4foldBY_B1x_NtNvCs3yqPx1X2sxh_15zerofrom_derive25replace_lifetime_and_type20ReplaceLifetimeAndTyNvYB5r_NtNtNtB12_3gen4fold4Fold16fold_bare_fn_argE0NCINvNtB8_16in_place_collect24write_in_place_with_dropBX_E0E0B4p_EB5v_, symObjAddr: 0x2238, symBinAddr: 0xAE98, symSize: 0x1F0 }
  - { offset: 0x39BB4, size: 0x8, addend: 0x0, symName: __RINvXs3_NtNtCse1nGBsou5OW_5alloc3vec9into_iterINtB6_8IntoIterTNtNtCs6IAuOt8vWmF_3syn3pat3PatNtNtB12_5token2OrEENtNtNtNtCsfvfooZQ3Axs_4core4iter6traits8iterator8Iterator8try_foldINtNtB8_13in_place_drop11InPlaceDropBX_ENCINvNtNtB1R_8adapters3map12map_try_foldBX_BX_B2P_INtNtB1T_6result6ResultB2P_zENCINvNtB12_10punctuated4foldBY_B1s_NtNvCs3yqPx1X2sxh_15zerofrom_derive16replace_lifetime15ReplaceLifetimeNvYB5j_NtNtNtB12_3gen4fold4Fold8fold_patE0NCINvNtB8_16in_place_collect24write_in_place_with_dropBX_E0E0B4h_EB5n_, symObjAddr: 0x2428, symBinAddr: 0xB088, symSize: 0x1F0 }
  - { offset: 0x39D96, size: 0x8, addend: 0x0, symName: __RINvXs3_NtNtCse1nGBsou5OW_5alloc3vec9into_iterINtB6_8IntoIterTNtNtCs6IAuOt8vWmF_3syn3pat3PatNtNtB12_5token2OrEENtNtNtNtCsfvfooZQ3Axs_4core4iter6traits8iterator8Iterator8try_foldINtNtB8_13in_place_drop11InPlaceDropBX_ENCINvNtNtB1R_8adapters3map12map_try_foldBX_BX_B2P_INtNtB1T_6result6ResultB2P_zENCINvNtB12_10punctuated4foldBY_B1s_NtNvCs3yqPx1X2sxh_15zerofrom_derive25replace_lifetime_and_type20ReplaceLifetimeAndTyNvYB5j_NtNtNtB12_3gen4fold4Fold8fold_patE0NCINvNtB8_16in_place_collect24write_in_place_with_dropBX_E0E0B4h_EB5n_, symObjAddr: 0x2618, symBinAddr: 0xB278, symSize: 0x1F0 }
  - { offset: 0x39F78, size: 0x8, addend: 0x0, symName: __RINvXs3_NtNtCse1nGBsou5OW_5alloc3vec9into_iterINtB6_8IntoIterTNtNtCs6IAuOt8vWmF_3syn3pat3PatNtNtB12_5token5CommaEENtNtNtNtCsfvfooZQ3Axs_4core4iter6traits8iterator8Iterator8try_foldINtNtB8_13in_place_drop11InPlaceDropBX_ENCINvNtNtB1U_8adapters3map12map_try_foldBX_BX_B2S_INtNtB1W_6result6ResultB2S_zENCINvNtB12_10punctuated4foldBY_B1s_NtNvCs3yqPx1X2sxh_15zerofrom_derive16replace_lifetime15ReplaceLifetimeNvYB5m_NtNtNtB12_3gen4fold4Fold8fold_patE0NCINvNtB8_16in_place_collect24write_in_place_with_dropBX_E0E0B4k_EB5q_, symObjAddr: 0x2808, symBinAddr: 0xB468, symSize: 0x1F0 }
  - { offset: 0x3A15A, size: 0x8, addend: 0x0, symName: __RINvXs3_NtNtCse1nGBsou5OW_5alloc3vec9into_iterINtB6_8IntoIterTNtNtCs6IAuOt8vWmF_3syn3pat3PatNtNtB12_5token5CommaEENtNtNtNtCsfvfooZQ3Axs_4core4iter6traits8iterator8Iterator8try_foldINtNtB8_13in_place_drop11InPlaceDropBX_ENCINvNtNtB1U_8adapters3map12map_try_foldBX_BX_B2S_INtNtB1W_6result6ResultB2S_zENCINvNtB12_10punctuated4foldBY_B1s_NtNvCs3yqPx1X2sxh_15zerofrom_derive25replace_lifetime_and_type20ReplaceLifetimeAndTyNvYB5m_NtNtNtB12_3gen4fold4Fold8fold_patE0NCINvNtB8_16in_place_collect24write_in_place_with_dropBX_E0E0B4k_EB5q_, symObjAddr: 0x29F8, symBinAddr: 0xB658, symSize: 0x1F0 }
  - { offset: 0x3A33C, size: 0x8, addend: 0x0, symName: __RINvXs3_NtNtCse1nGBsou5OW_5alloc3vec9into_iterINtB6_8IntoIterTNtNtCs6IAuOt8vWmF_3syn3pat8FieldPatNtNtB12_5token5CommaEENtNtNtNtCsfvfooZQ3Axs_4core4iter6traits8iterator8Iterator8try_foldINtNtB8_13in_place_drop11InPlaceDropBX_ENCINvNtNtB1Z_8adapters3map12map_try_foldBX_BX_B2X_INtNtB21_6result6ResultB2X_zENCINvNtB12_10punctuated4foldBY_B1x_NtNvCs3yqPx1X2sxh_15zerofrom_derive16replace_lifetime15ReplaceLifetimeNvYB5r_NtNtNtB12_3gen4fold4Fold14fold_field_patE0NCINvNtB8_16in_place_collect24write_in_place_with_dropBX_E0E0B4p_EB5v_, symObjAddr: 0x2BE8, symBinAddr: 0xB848, symSize: 0x1F0 }
  - { offset: 0x3A51E, size: 0x8, addend: 0x0, symName: __RINvXs3_NtNtCse1nGBsou5OW_5alloc3vec9into_iterINtB6_8IntoIterTNtNtCs6IAuOt8vWmF_3syn3pat8FieldPatNtNtB12_5token5CommaEENtNtNtNtCsfvfooZQ3Axs_4core4iter6traits8iterator8Iterator8try_foldINtNtB8_13in_place_drop11InPlaceDropBX_ENCINvNtNtB1Z_8adapters3map12map_try_foldBX_BX_B2X_INtNtB21_6result6ResultB2X_zENCINvNtB12_10punctuated4foldBY_B1x_NtNvCs3yqPx1X2sxh_15zerofrom_derive25replace_lifetime_and_type20ReplaceLifetimeAndTyNvYB5r_NtNtNtB12_3gen4fold4Fold14fold_field_patE0NCINvNtB8_16in_place_collect24write_in_place_with_dropBX_E0E0B4p_EB5v_, symObjAddr: 0x2DD8, symBinAddr: 0xBA38, symSize: 0x1F0 }
  - { offset: 0x3A700, size: 0x8, addend: 0x0, symName: __RINvXs3_NtNtCse1nGBsou5OW_5alloc3vec9into_iterINtB6_8IntoIterTNtNtCs6IAuOt8vWmF_3syn4data5FieldNtNtB12_5token5CommaEENtNtNtNtCsfvfooZQ3Axs_4core4iter6traits8iterator8Iterator8try_foldINtNtB8_13in_place_drop11InPlaceDropBX_ENCINvNtNtB1X_8adapters3map12map_try_foldBX_BX_B2V_INtNtB1Z_6result6ResultB2V_zENCINvNtB12_10punctuated4foldBY_B1v_NtNvCs3yqPx1X2sxh_15zerofrom_derive16replace_lifetime15ReplaceLifetimeNvYB5p_NtNtNtB12_3gen4fold4Fold10fold_fieldE0NCINvNtB8_16in_place_collect24write_in_place_with_dropBX_E0E0B4n_EB5t_, symObjAddr: 0x2FC8, symBinAddr: 0xBC28, symSize: 0x1F0 }
  - { offset: 0x3A8E2, size: 0x8, addend: 0x0, symName: __RINvXs3_NtNtCse1nGBsou5OW_5alloc3vec9into_iterINtB6_8IntoIterTNtNtCs6IAuOt8vWmF_3syn4data5FieldNtNtB12_5token5CommaEENtNtNtNtCsfvfooZQ3Axs_4core4iter6traits8iterator8Iterator8try_foldINtNtB8_13in_place_drop11InPlaceDropBX_ENCINvNtNtB1X_8adapters3map12map_try_foldBX_BX_B2V_INtNtB1Z_6result6ResultB2V_zENCINvNtB12_10punctuated4foldBY_B1v_NtNvCs3yqPx1X2sxh_15zerofrom_derive25replace_lifetime_and_type20ReplaceLifetimeAndTyNvYB5p_NtNtNtB12_3gen4fold4Fold10fold_fieldE0NCINvNtB8_16in_place_collect24write_in_place_with_dropBX_E0E0B4n_EB5t_, symObjAddr: 0x31B8, symBinAddr: 0xBE18, symSize: 0x1F0 }
  - { offset: 0x3AAC4, size: 0x8, addend: 0x0, symName: __RINvXs3_NtNtCse1nGBsou5OW_5alloc3vec9into_iterINtB6_8IntoIterTNtNtCs6IAuOt8vWmF_3syn4data7VariantNtNtB12_5token5CommaEENtNtNtNtCsfvfooZQ3Axs_4core4iter6traits8iterator8Iterator8try_foldINtNtB8_13in_place_drop11InPlaceDropBX_ENCINvNtNtB1Z_8adapters3map12map_try_foldBX_BX_B2X_INtNtB21_6result6ResultB2X_zENCINvNtB12_10punctuated4foldBY_B1x_NtNvCs3yqPx1X2sxh_15zerofrom_derive16replace_lifetime15ReplaceLifetimeNvYB5r_NtNtNtB12_3gen4fold4Fold12fold_variantE0NCINvNtB8_16in_place_collect24write_in_place_with_dropBX_E0E0B4p_EB5v_, symObjAddr: 0x33A8, symBinAddr: 0xC008, symSize: 0x1F0 }
  - { offset: 0x3ACA6, size: 0x8, addend: 0x0, symName: __RINvXs3_NtNtCse1nGBsou5OW_5alloc3vec9into_iterINtB6_8IntoIterTNtNtCs6IAuOt8vWmF_3syn4data7VariantNtNtB12_5token5CommaEENtNtNtNtCsfvfooZQ3Axs_4core4iter6traits8iterator8Iterator8try_foldINtNtB8_13in_place_drop11InPlaceDropBX_ENCINvNtNtB1Z_8adapters3map12map_try_foldBX_BX_B2X_INtNtB21_6result6ResultB2X_zENCINvNtB12_10punctuated4foldBY_B1x_NtNvCs3yqPx1X2sxh_15zerofrom_derive25replace_lifetime_and_type20ReplaceLifetimeAndTyNvYB5r_NtNtNtB12_3gen4fold4Fold12fold_variantE0NCINvNtB8_16in_place_collect24write_in_place_with_dropBX_E0E0B4p_EB5v_, symObjAddr: 0x3598, symBinAddr: 0xC1F8, symSize: 0x1F0 }
  - { offset: 0x3AE88, size: 0x8, addend: 0x0, symName: __RINvXs3_NtNtCse1nGBsou5OW_5alloc3vec9into_iterINtB6_8IntoIterTNtNtCs6IAuOt8vWmF_3syn4expr10FieldValueNtNtB12_5token5CommaEENtNtNtNtCsfvfooZQ3Axs_4core4iter6traits8iterator8Iterator8try_foldINtNtB8_13in_place_drop11InPlaceDropBX_ENCINvNtNtB23_8adapters3map12map_try_foldBX_BX_B31_INtNtB25_6result6ResultB31_zENCINvNtB12_10punctuated4foldBY_B1B_NtNvCs3yqPx1X2sxh_15zerofrom_derive16replace_lifetime15ReplaceLifetimeNvYB5v_NtNtNtB12_3gen4fold4Fold16fold_field_valueE0NCINvNtB8_16in_place_collect24write_in_place_with_dropBX_E0E0B4t_EB5z_, symObjAddr: 0x3788, symBinAddr: 0xC3E8, symSize: 0x1F0 }
  - { offset: 0x3B06A, size: 0x8, addend: 0x0, symName: __RINvXs3_NtNtCse1nGBsou5OW_5alloc3vec9into_iterINtB6_8IntoIterTNtNtCs6IAuOt8vWmF_3syn4expr10FieldValueNtNtB12_5token5CommaEENtNtNtNtCsfvfooZQ3Axs_4core4iter6traits8iterator8Iterator8try_foldINtNtB8_13in_place_drop11InPlaceDropBX_ENCINvNtNtB23_8adapters3map12map_try_foldBX_BX_B31_INtNtB25_6result6ResultB31_zENCINvNtB12_10punctuated4foldBY_B1B_NtNvCs3yqPx1X2sxh_15zerofrom_derive25replace_lifetime_and_type20ReplaceLifetimeAndTyNvYB5v_NtNtNtB12_3gen4fold4Fold16fold_field_valueE0NCINvNtB8_16in_place_collect24write_in_place_with_dropBX_E0E0B4t_EB5z_, symObjAddr: 0x3978, symBinAddr: 0xC5D8, symSize: 0x1F0 }
  - { offset: 0x3B24C, size: 0x8, addend: 0x0, symName: __RINvXs3_NtNtCse1nGBsou5OW_5alloc3vec9into_iterINtB6_8IntoIterTNtNtCs6IAuOt8vWmF_3syn4expr4ExprNtNtB12_5token5CommaEENtNtNtNtCsfvfooZQ3Axs_4core4iter6traits8iterator8Iterator8try_foldINtNtB8_13in_place_drop11InPlaceDropBX_ENCINvNtNtB1W_8adapters3map12map_try_foldBX_BX_B2U_INtNtB1Y_6result6ResultB2U_zENCINvNtB12_10punctuated4foldBY_B1u_NtNvCs3yqPx1X2sxh_15zerofrom_derive16replace_lifetime15ReplaceLifetimeNvYB5o_NtNtNtB12_3gen4fold4Fold9fold_exprE0NCINvNtB8_16in_place_collect24write_in_place_with_dropBX_E0E0B4m_EB5s_, symObjAddr: 0x3B68, symBinAddr: 0xC7C8, symSize: 0x1F0 }
  - { offset: 0x3B42E, size: 0x8, addend: 0x0, symName: __RINvXs3_NtNtCse1nGBsou5OW_5alloc3vec9into_iterINtB6_8IntoIterTNtNtCs6IAuOt8vWmF_3syn4expr4ExprNtNtB12_5token5CommaEENtNtNtNtCsfvfooZQ3Axs_4core4iter6traits8iterator8Iterator8try_foldINtNtB8_13in_place_drop11InPlaceDropBX_ENCINvNtNtB1W_8adapters3map12map_try_foldBX_BX_B2U_INtNtB1Y_6result6ResultB2U_zENCINvNtB12_10punctuated4foldBY_B1u_NtNvCs3yqPx1X2sxh_15zerofrom_derive25replace_lifetime_and_type20ReplaceLifetimeAndTyNvYB5o_NtNtNtB12_3gen4fold4Fold9fold_exprE0NCINvNtB8_16in_place_collect24write_in_place_with_dropBX_E0E0B4m_EB5s_, symObjAddr: 0x3D58, symBinAddr: 0xC9B8, symSize: 0x1F0 }
  - { offset: 0x3B610, size: 0x8, addend: 0x0, symName: __RINvXs3_NtNtCse1nGBsou5OW_5alloc3vec9into_iterINtB6_8IntoIterTNtNtCs6IAuOt8vWmF_3syn4item5FnArgNtNtB12_5token5CommaEENtNtNtNtCsfvfooZQ3Axs_4core4iter6traits8iterator8Iterator8try_foldINtNtB8_13in_place_drop11InPlaceDropBX_ENCINvNtNtB1X_8adapters3map12map_try_foldBX_BX_B2V_INtNtB1Z_6result6ResultB2V_zENCINvNtB12_10punctuated4foldBY_B1v_NtNvCs3yqPx1X2sxh_15zerofrom_derive16replace_lifetime15ReplaceLifetimeNvYB5p_NtNtNtB12_3gen4fold4Fold11fold_fn_argE0NCINvNtB8_16in_place_collect24write_in_place_with_dropBX_E0E0B4n_EB5t_, symObjAddr: 0x3F48, symBinAddr: 0xCBA8, symSize: 0x1F0 }
  - { offset: 0x3B7F2, size: 0x8, addend: 0x0, symName: __RINvXs3_NtNtCse1nGBsou5OW_5alloc3vec9into_iterINtB6_8IntoIterTNtNtCs6IAuOt8vWmF_3syn4item5FnArgNtNtB12_5token5CommaEENtNtNtNtCsfvfooZQ3Axs_4core4iter6traits8iterator8Iterator8try_foldINtNtB8_13in_place_drop11InPlaceDropBX_ENCINvNtNtB1X_8adapters3map12map_try_foldBX_BX_B2V_INtNtB1Z_6result6ResultB2V_zENCINvNtB12_10punctuated4foldBY_B1v_NtNvCs3yqPx1X2sxh_15zerofrom_derive25replace_lifetime_and_type20ReplaceLifetimeAndTyNvYB5p_NtNtNtB12_3gen4fold4Fold11fold_fn_argE0NCINvNtB8_16in_place_collect24write_in_place_with_dropBX_E0E0B4n_EB5t_, symObjAddr: 0x4138, symBinAddr: 0xCD98, symSize: 0x1F0 }
  - { offset: 0x3B9D4, size: 0x8, addend: 0x0, symName: __RINvXs3_NtNtCse1nGBsou5OW_5alloc3vec9into_iterINtB6_8IntoIterTNtNtCs6IAuOt8vWmF_3syn4item7UseTreeNtNtB12_5token5CommaEENtNtNtNtCsfvfooZQ3Axs_4core4iter6traits8iterator8Iterator8try_foldINtNtB8_13in_place_drop11InPlaceDropBX_ENCINvNtNtB1Z_8adapters3map12map_try_foldBX_BX_B2X_INtNtB21_6result6ResultB2X_zENCINvNtB12_10punctuated4foldBY_B1x_NtNvCs3yqPx1X2sxh_15zerofrom_derive16replace_lifetime15ReplaceLifetimeNvYB5r_NtNtNtB12_3gen4fold4Fold13fold_use_treeE0NCINvNtB8_16in_place_collect24write_in_place_with_dropBX_E0E0B4p_EB5v_, symObjAddr: 0x4328, symBinAddr: 0xCF88, symSize: 0x1F0 }
  - { offset: 0x3BBB6, size: 0x8, addend: 0x0, symName: __RINvXs3_NtNtCse1nGBsou5OW_5alloc3vec9into_iterINtB6_8IntoIterTNtNtCs6IAuOt8vWmF_3syn4item7UseTreeNtNtB12_5token5CommaEENtNtNtNtCsfvfooZQ3Axs_4core4iter6traits8iterator8Iterator8try_foldINtNtB8_13in_place_drop11InPlaceDropBX_ENCINvNtNtB1Z_8adapters3map12map_try_foldBX_BX_B2X_INtNtB21_6result6ResultB2X_zENCINvNtB12_10punctuated4foldBY_B1x_NtNvCs3yqPx1X2sxh_15zerofrom_derive25replace_lifetime_and_type20ReplaceLifetimeAndTyNvYB5r_NtNtNtB12_3gen4fold4Fold13fold_use_treeE0NCINvNtB8_16in_place_collect24write_in_place_with_dropBX_E0E0B4p_EB5v_, symObjAddr: 0x4518, symBinAddr: 0xD178, symSize: 0x1F0 }
  - { offset: 0x3BD98, size: 0x8, addend: 0x0, symName: __RINvXs3_NtNtCse1nGBsou5OW_5alloc3vec9into_iterINtB6_8IntoIterTNtNtCs6IAuOt8vWmF_3syn4path11PathSegmentNtNtB12_5token7PathSepEENtNtNtNtCsfvfooZQ3Axs_4core4iter6traits8iterator8Iterator8try_foldINtNtB8_13in_place_drop11InPlaceDropBX_ENCINvNtNtB26_8adapters3map12map_try_foldBX_BX_B34_INtNtB28_6result6ResultB34_zENCINvNtB12_10punctuated4foldBY_B1C_NtNvCs3yqPx1X2sxh_15zerofrom_derive16replace_lifetime15ReplaceLifetimeNvYB5y_NtNtNtB12_3gen4fold4Fold17fold_path_segmentE0NCINvNtB8_16in_place_collect24write_in_place_with_dropBX_E0E0B4w_EB5C_, symObjAddr: 0x4708, symBinAddr: 0xD368, symSize: 0x1F0 }
  - { offset: 0x3BF7A, size: 0x8, addend: 0x0, symName: __RINvXs3_NtNtCse1nGBsou5OW_5alloc3vec9into_iterINtB6_8IntoIterTNtNtCs6IAuOt8vWmF_3syn4path11PathSegmentNtNtB12_5token7PathSepEENtNtNtNtCsfvfooZQ3Axs_4core4iter6traits8iterator8Iterator8try_foldINtNtB8_13in_place_drop11InPlaceDropBX_ENCINvNtNtB26_8adapters3map12map_try_foldBX_BX_B34_INtNtB28_6result6ResultB34_zENCINvNtB12_10punctuated4foldBY_B1C_NtNvCs3yqPx1X2sxh_15zerofrom_derive25replace_lifetime_and_type20ReplaceLifetimeAndTyNvYB5y_NtNtNtB12_3gen4fold4Fold17fold_path_segmentE0NCINvNtB8_16in_place_collect24write_in_place_with_dropBX_E0E0B4w_EB5C_, symObjAddr: 0x48F8, symBinAddr: 0xD558, symSize: 0x1F0 }
  - { offset: 0x3C15C, size: 0x8, addend: 0x0, symName: __RINvXs3_NtNtCse1nGBsou5OW_5alloc3vec9into_iterINtB6_8IntoIterTNtNtCs6IAuOt8vWmF_3syn4path15GenericArgumentNtNtB12_5token5CommaEENtNtNtNtCsfvfooZQ3Axs_4core4iter6traits8iterator8Iterator8try_foldINtNtB8_13in_place_drop11InPlaceDropBX_ENCINvNtNtB28_8adapters3map12map_try_foldBX_BX_B36_INtNtB2a_6result6ResultB36_zENCINvNtB12_10punctuated4foldBY_B1G_NtNvCs3yqPx1X2sxh_15zerofrom_derive16replace_lifetime15ReplaceLifetimeNvYB5A_NtNtNtB12_3gen4fold4Fold21fold_generic_argumentE0NCINvNtB8_16in_place_collect24write_in_place_with_dropBX_E0E0B4y_EB5E_, symObjAddr: 0x4AE8, symBinAddr: 0xD748, symSize: 0x1F0 }
  - { offset: 0x3C33E, size: 0x8, addend: 0x0, symName: __RINvXs3_NtNtCse1nGBsou5OW_5alloc3vec9into_iterINtB6_8IntoIterTNtNtCs6IAuOt8vWmF_3syn4path15GenericArgumentNtNtB12_5token5CommaEENtNtNtNtCsfvfooZQ3Axs_4core4iter6traits8iterator8Iterator8try_foldINtNtB8_13in_place_drop11InPlaceDropBX_ENCINvNtNtB28_8adapters3map12map_try_foldBX_BX_B36_INtNtB2a_6result6ResultB36_zENCINvNtB12_10punctuated4foldBY_B1G_NtNvCs3yqPx1X2sxh_15zerofrom_derive25replace_lifetime_and_type20ReplaceLifetimeAndTyNvYB5A_NtNtNtB12_3gen4fold4Fold21fold_generic_argumentE0NCINvNtB8_16in_place_collect24write_in_place_with_dropBX_E0E0B4y_EB5E_, symObjAddr: 0x4CD8, symBinAddr: 0xD938, symSize: 0x1F0 }
  - { offset: 0x3C520, size: 0x8, addend: 0x0, symName: __RINvXs3_NtNtCse1nGBsou5OW_5alloc3vec9into_iterINtB6_8IntoIterTNtNtCs6IAuOt8vWmF_3syn8generics12GenericParamNtNtB12_5token5CommaEENtNtNtNtCsfvfooZQ3Axs_4core4iter6traits8iterator8Iterator8try_foldINtNtB8_13in_place_drop11InPlaceDropBX_ENCINvNtNtB29_8adapters3map12map_try_foldBX_BX_B37_INtNtB2b_6result6ResultB37_zENCINvNtB12_10punctuated4foldBY_B1H_NtNvCs3yqPx1X2sxh_15zerofrom_derive16replace_lifetime15ReplaceLifetimeNvYB5B_NtNtNtB12_3gen4fold4Fold18fold_generic_paramE0NCINvNtB8_16in_place_collect24write_in_place_with_dropBX_E0E0B4z_EB5F_, symObjAddr: 0x4EC8, symBinAddr: 0xDB28, symSize: 0x1F4 }
  - { offset: 0x3C702, size: 0x8, addend: 0x0, symName: __RINvXs3_NtNtCse1nGBsou5OW_5alloc3vec9into_iterINtB6_8IntoIterTNtNtCs6IAuOt8vWmF_3syn8generics12GenericParamNtNtB12_5token5CommaEENtNtNtNtCsfvfooZQ3Axs_4core4iter6traits8iterator8Iterator8try_foldINtNtB8_13in_place_drop11InPlaceDropBX_ENCINvNtNtB29_8adapters3map12map_try_foldBX_BX_B37_INtNtB2b_6result6ResultB37_zENCINvNtB12_10punctuated4foldBY_B1H_NtNvCs3yqPx1X2sxh_15zerofrom_derive25replace_lifetime_and_type20ReplaceLifetimeAndTyNvYB5B_NtNtNtB12_3gen4fold4Fold18fold_generic_paramE0NCINvNtB8_16in_place_collect24write_in_place_with_dropBX_E0E0B4z_EB5F_, symObjAddr: 0x50BC, symBinAddr: 0xDD1C, symSize: 0x1F4 }
  - { offset: 0x3C8E4, size: 0x8, addend: 0x0, symName: __RINvXs3_NtNtCse1nGBsou5OW_5alloc3vec9into_iterINtB6_8IntoIterTNtNtCs6IAuOt8vWmF_3syn8generics13CapturedParamNtNtB12_5token5CommaEENtNtNtNtCsfvfooZQ3Axs_4core4iter6traits8iterator8Iterator8try_foldINtNtB8_13in_place_drop11InPlaceDropBX_ENCINvNtNtB2a_8adapters3map12map_try_foldBX_BX_B38_INtNtB2c_6result6ResultB38_zENCINvNtB12_10punctuated4foldBY_B1I_NtNvCs3yqPx1X2sxh_15zerofrom_derive16replace_lifetime15ReplaceLifetimeNvYB5C_NtNtNtB12_3gen4fold4Fold19fold_captured_paramE0NCINvNtB8_16in_place_collect24write_in_place_with_dropBX_E0E0B4A_EB5G_, symObjAddr: 0x52B0, symBinAddr: 0xDF10, symSize: 0x1F0 }
  - { offset: 0x3CAC6, size: 0x8, addend: 0x0, symName: __RINvXs3_NtNtCse1nGBsou5OW_5alloc3vec9into_iterINtB6_8IntoIterTNtNtCs6IAuOt8vWmF_3syn8generics13CapturedParamNtNtB12_5token5CommaEENtNtNtNtCsfvfooZQ3Axs_4core4iter6traits8iterator8Iterator8try_foldINtNtB8_13in_place_drop11InPlaceDropBX_ENCINvNtNtB2a_8adapters3map12map_try_foldBX_BX_B38_INtNtB2c_6result6ResultB38_zENCINvNtB12_10punctuated4foldBY_B1I_NtNvCs3yqPx1X2sxh_15zerofrom_derive25replace_lifetime_and_type20ReplaceLifetimeAndTyNvYB5C_NtNtNtB12_3gen4fold4Fold19fold_captured_paramE0NCINvNtB8_16in_place_collect24write_in_place_with_dropBX_E0E0B4A_EB5G_, symObjAddr: 0x54A0, symBinAddr: 0xE100, symSize: 0x1F0 }
  - { offset: 0x3CCA8, size: 0x8, addend: 0x0, symName: __RINvXs3_NtNtCse1nGBsou5OW_5alloc3vec9into_iterINtB6_8IntoIterTNtNtCs6IAuOt8vWmF_3syn8generics14TypeParamBoundNtNtB12_5token4PlusEENtNtNtNtCsfvfooZQ3Axs_4core4iter6traits8iterator8Iterator8try_foldINtNtB8_13in_place_drop11InPlaceDropBX_ENCINvNtNtB2a_8adapters3map12map_try_foldBX_BX_B38_INtNtB2c_6result6ResultB38_zENCINvNtB12_10punctuated4foldBY_B1J_NtNvCs3yqPx1X2sxh_15zerofrom_derive16replace_lifetime15ReplaceLifetimeNvYB5C_NtNtNtB12_3gen4fold4Fold21fold_type_param_boundE0NCINvNtB8_16in_place_collect24write_in_place_with_dropBX_E0E0B4A_EB5G_, symObjAddr: 0x5690, symBinAddr: 0xE2F0, symSize: 0x1F0 }
  - { offset: 0x3CE8A, size: 0x8, addend: 0x0, symName: __RINvXs3_NtNtCse1nGBsou5OW_5alloc3vec9into_iterINtB6_8IntoIterTNtNtCs6IAuOt8vWmF_3syn8generics14TypeParamBoundNtNtB12_5token4PlusEENtNtNtNtCsfvfooZQ3Axs_4core4iter6traits8iterator8Iterator8try_foldINtNtB8_13in_place_drop11InPlaceDropBX_ENCINvNtNtB2a_8adapters3map12map_try_foldBX_BX_B38_INtNtB2c_6result6ResultB38_zENCINvNtB12_10punctuated4foldBY_B1J_NtNvCs3yqPx1X2sxh_15zerofrom_derive25replace_lifetime_and_type20ReplaceLifetimeAndTyNvYB5C_NtNtNtB12_3gen4fold4Fold21fold_type_param_boundE0NCINvNtB8_16in_place_collect24write_in_place_with_dropBX_E0E0B4A_EB5G_, symObjAddr: 0x5880, symBinAddr: 0xE4E0, symSize: 0x1F0 }
  - { offset: 0x3D06C, size: 0x8, addend: 0x0, symName: __RINvXs3_NtNtCse1nGBsou5OW_5alloc3vec9into_iterINtB6_8IntoIterTNtNtCs6IAuOt8vWmF_3syn8generics14WherePredicateNtNtB12_5token5CommaEENtNtNtNtCsfvfooZQ3Axs_4core4iter6traits8iterator8Iterator8try_foldINtNtB8_13in_place_drop11InPlaceDropBX_ENCINvNtNtB2b_8adapters3map12map_try_foldBX_BX_B39_INtNtB2d_6result6ResultB39_zENCINvNtB12_10punctuated4foldBY_B1J_NtNvCs3yqPx1X2sxh_15zerofrom_derive16replace_lifetime15ReplaceLifetimeNvYB5D_NtNtNtB12_3gen4fold4Fold20fold_where_predicateE0NCINvNtB8_16in_place_collect24write_in_place_with_dropBX_E0E0B4B_EB5H_, symObjAddr: 0x5A70, symBinAddr: 0xE6D0, symSize: 0x1F0 }
  - { offset: 0x3D24E, size: 0x8, addend: 0x0, symName: __RINvXs3_NtNtCse1nGBsou5OW_5alloc3vec9into_iterINtB6_8IntoIterTNtNtCs6IAuOt8vWmF_3syn8generics14WherePredicateNtNtB12_5token5CommaEENtNtNtNtCsfvfooZQ3Axs_4core4iter6traits8iterator8Iterator8try_foldINtNtB8_13in_place_drop11InPlaceDropBX_ENCINvNtNtB2b_8adapters3map12map_try_foldBX_BX_B39_INtNtB2d_6result6ResultB39_zENCINvNtB12_10punctuated4foldBY_B1J_NtNvCs3yqPx1X2sxh_15zerofrom_derive25replace_lifetime_and_type20ReplaceLifetimeAndTyNvYB5D_NtNtNtB12_3gen4fold4Fold20fold_where_predicateE0NCINvNtB8_16in_place_collect24write_in_place_with_dropBX_E0E0B4B_EB5H_, symObjAddr: 0x5C60, symBinAddr: 0xE8C0, symSize: 0x1F0 }
  - { offset: 0x3D430, size: 0x8, addend: 0x0, symName: __RINvXs3_NtNtCse1nGBsou5OW_5alloc3vec9into_iterINtB6_8IntoIterTNtNtCs6IAuOt8vWmF_3syn8lifetime8LifetimeNtNtB12_5token4PlusEENtNtNtNtCsfvfooZQ3Axs_4core4iter6traits8iterator8Iterator8try_foldINtNtB8_13in_place_drop11InPlaceDropBX_ENCINvNtNtB23_8adapters3map12map_try_foldBX_BX_B31_INtNtB25_6result6ResultB31_zENCINvNtB12_10punctuated4foldBY_B1C_NtNvCs3yqPx1X2sxh_15zerofrom_derive16replace_lifetime15ReplaceLifetimeNvYB5v_NtNtNtB12_3gen4fold4Fold13fold_lifetimeE0NCINvNtB8_16in_place_collect24write_in_place_with_dropBX_E0E0B4t_EB5z_, symObjAddr: 0x5E50, symBinAddr: 0xEAB0, symSize: 0x1F0 }
  - { offset: 0x3D612, size: 0x8, addend: 0x0, symName: __RINvXs3_NtNtCse1nGBsou5OW_5alloc3vec9into_iterINtB6_8IntoIterTNtNtCs6IAuOt8vWmF_3syn8lifetime8LifetimeNtNtB12_5token4PlusEENtNtNtNtCsfvfooZQ3Axs_4core4iter6traits8iterator8Iterator8try_foldINtNtB8_13in_place_drop11InPlaceDropBX_ENCINvNtNtB23_8adapters3map12map_try_foldBX_BX_B31_INtNtB25_6result6ResultB31_zENCINvNtB12_10punctuated4foldBY_B1C_NtNvCs3yqPx1X2sxh_15zerofrom_derive25replace_lifetime_and_type20ReplaceLifetimeAndTyNvYB5v_NtNtNtB12_3gen4fold4Fold13fold_lifetimeE0NCINvNtB8_16in_place_collect24write_in_place_with_dropBX_E0E0B4t_EB5z_, symObjAddr: 0x6040, symBinAddr: 0xECA0, symSize: 0x1F0 }
  - { offset: 0x3D7F4, size: 0x8, addend: 0x0, symName: __RNvXs3_NtNtCse1nGBsou5OW_5alloc3vec9into_iterINtB5_8IntoIterNtCs3cP53eQoTwO_11proc_macro25IdentENtNtNtNtCsfvfooZQ3Axs_4core4iter6traits8iterator8Iterator4nextCs3yqPx1X2sxh_15zerofrom_derive, symObjAddr: 0x8864, symBinAddr: 0x114C4, symSize: 0xD0 }
  - { offset: 0x3D96F, size: 0x8, addend: 0x0, symName: __RNvXs3_NtNtCse1nGBsou5OW_5alloc3vec9into_iterINtB5_8IntoIterNtCs3cP53eQoTwO_11proc_macro25IdentENtNtNtNtCsfvfooZQ3Axs_4core4iter6traits8iterator8Iterator9size_hintCs3yqPx1X2sxh_15zerofrom_derive, symObjAddr: 0x8934, symBinAddr: 0x11594, symSize: 0x6C }
  - { offset: 0x3D9CA, size: 0x8, addend: 0x0, symName: __RNvXs3_NtNtCse1nGBsou5OW_5alloc3vec9into_iterINtB5_8IntoIterNtNtCs6IAuOt8vWmF_3syn4expr3ArmENtNtNtNtCsfvfooZQ3Axs_4core4iter6traits8iterator8Iterator9size_hintCs3yqPx1X2sxh_15zerofrom_derive, symObjAddr: 0x89A0, symBinAddr: 0x11600, symSize: 0x6C }
  - { offset: 0x3DA25, size: 0x8, addend: 0x0, symName: __RNvXs3_NtNtCse1nGBsou5OW_5alloc3vec9into_iterINtB5_8IntoIterNtNtCs6IAuOt8vWmF_3syn4item11ForeignItemENtNtNtNtCsfvfooZQ3Axs_4core4iter6traits8iterator8Iterator9size_hintCs3yqPx1X2sxh_15zerofrom_derive, symObjAddr: 0x8A0C, symBinAddr: 0x1166C, symSize: 0x6C }
  - { offset: 0x3DA80, size: 0x8, addend: 0x0, symName: __RNvXs3_NtNtCse1nGBsou5OW_5alloc3vec9into_iterINtB5_8IntoIterNtNtCs6IAuOt8vWmF_3syn4item4ItemENtNtNtNtCsfvfooZQ3Axs_4core4iter6traits8iterator8Iterator9size_hintCs3yqPx1X2sxh_15zerofrom_derive, symObjAddr: 0x8A78, symBinAddr: 0x116D8, symSize: 0x6C }
  - { offset: 0x3DADB, size: 0x8, addend: 0x0, symName: __RNvXs3_NtNtCse1nGBsou5OW_5alloc3vec9into_iterINtB5_8IntoIterNtNtCs6IAuOt8vWmF_3syn4item8ImplItemENtNtNtNtCsfvfooZQ3Axs_4core4iter6traits8iterator8Iterator9size_hintCs3yqPx1X2sxh_15zerofrom_derive, symObjAddr: 0x8AE4, symBinAddr: 0x11744, symSize: 0x6C }
  - { offset: 0x3DB36, size: 0x8, addend: 0x0, symName: __RNvXs3_NtNtCse1nGBsou5OW_5alloc3vec9into_iterINtB5_8IntoIterNtNtCs6IAuOt8vWmF_3syn4item9TraitItemENtNtNtNtCsfvfooZQ3Axs_4core4iter6traits8iterator8Iterator9size_hintCs3yqPx1X2sxh_15zerofrom_derive, symObjAddr: 0x8B50, symBinAddr: 0x117B0, symSize: 0x6C }
  - { offset: 0x3DB91, size: 0x8, addend: 0x0, symName: __RNvXs3_NtNtCse1nGBsou5OW_5alloc3vec9into_iterINtB5_8IntoIterNtNtCs6IAuOt8vWmF_3syn4stmt4StmtENtNtNtNtCsfvfooZQ3Axs_4core4iter6traits8iterator8Iterator9size_hintCs3yqPx1X2sxh_15zerofrom_derive, symObjAddr: 0x8BBC, symBinAddr: 0x1181C, symSize: 0x6C }
  - { offset: 0x3DBEC, size: 0x8, addend: 0x0, symName: __RNvXs3_NtNtCse1nGBsou5OW_5alloc3vec9into_iterINtB5_8IntoIterTNtCs3cP53eQoTwO_11proc_macro25IdentNtNtCs6IAuOt8vWmF_3syn5token5CommaEENtNtNtNtCsfvfooZQ3Axs_4core4iter6traits8iterator8Iterator9size_hintCs3yqPx1X2sxh_15zerofrom_derive, symObjAddr: 0x8C28, symBinAddr: 0x11888, symSize: 0x6C }
  - { offset: 0x3DC47, size: 0x8, addend: 0x0, symName: __RNvXs3_NtNtCse1nGBsou5OW_5alloc3vec9into_iterINtB5_8IntoIterTNtNtCs6IAuOt8vWmF_3syn2ty4TypeNtNtB11_5token5CommaEENtNtNtNtCsfvfooZQ3Axs_4core4iter6traits8iterator8Iterator9size_hintCs3yqPx1X2sxh_15zerofrom_derive, symObjAddr: 0x8C94, symBinAddr: 0x118F4, symSize: 0x6C }
  - { offset: 0x3DCA2, size: 0x8, addend: 0x0, symName: __RNvXs3_NtNtCse1nGBsou5OW_5alloc3vec9into_iterINtB5_8IntoIterTNtNtCs6IAuOt8vWmF_3syn2ty9BareFnArgNtNtB11_5token5CommaEENtNtNtNtCsfvfooZQ3Axs_4core4iter6traits8iterator8Iterator9size_hintCs3yqPx1X2sxh_15zerofrom_derive, symObjAddr: 0x8D00, symBinAddr: 0x11960, symSize: 0x6C }
  - { offset: 0x3DCFD, size: 0x8, addend: 0x0, symName: __RNvXs3_NtNtCse1nGBsou5OW_5alloc3vec9into_iterINtB5_8IntoIterTNtNtCs6IAuOt8vWmF_3syn3pat3PatNtNtB11_5token2OrEENtNtNtNtCsfvfooZQ3Axs_4core4iter6traits8iterator8Iterator9size_hintCs3yqPx1X2sxh_15zerofrom_derive, symObjAddr: 0x8D6C, symBinAddr: 0x119CC, symSize: 0x6C }
  - { offset: 0x3DD58, size: 0x8, addend: 0x0, symName: __RNvXs3_NtNtCse1nGBsou5OW_5alloc3vec9into_iterINtB5_8IntoIterTNtNtCs6IAuOt8vWmF_3syn3pat3PatNtNtB11_5token5CommaEENtNtNtNtCsfvfooZQ3Axs_4core4iter6traits8iterator8Iterator9size_hintCs3yqPx1X2sxh_15zerofrom_derive, symObjAddr: 0x8DD8, symBinAddr: 0x11A38, symSize: 0x6C }
  - { offset: 0x3DDB3, size: 0x8, addend: 0x0, symName: __RNvXs3_NtNtCse1nGBsou5OW_5alloc3vec9into_iterINtB5_8IntoIterTNtNtCs6IAuOt8vWmF_3syn3pat8FieldPatNtNtB11_5token5CommaEENtNtNtNtCsfvfooZQ3Axs_4core4iter6traits8iterator8Iterator9size_hintCs3yqPx1X2sxh_15zerofrom_derive, symObjAddr: 0x8E44, symBinAddr: 0x11AA4, symSize: 0x6C }
  - { offset: 0x3DE0E, size: 0x8, addend: 0x0, symName: __RNvXs3_NtNtCse1nGBsou5OW_5alloc3vec9into_iterINtB5_8IntoIterTNtNtCs6IAuOt8vWmF_3syn4data7VariantNtNtB11_5token5CommaEENtNtNtNtCsfvfooZQ3Axs_4core4iter6traits8iterator8Iterator9size_hintCs3yqPx1X2sxh_15zerofrom_derive, symObjAddr: 0x8EB0, symBinAddr: 0x11B10, symSize: 0x6C }
  - { offset: 0x3DE69, size: 0x8, addend: 0x0, symName: __RNvXs3_NtNtCse1nGBsou5OW_5alloc3vec9into_iterINtB5_8IntoIterTNtNtCs6IAuOt8vWmF_3syn4expr10FieldValueNtNtB11_5token5CommaEENtNtNtNtCsfvfooZQ3Axs_4core4iter6traits8iterator8Iterator9size_hintCs3yqPx1X2sxh_15zerofrom_derive, symObjAddr: 0x8F1C, symBinAddr: 0x11B7C, symSize: 0x6C }
  - { offset: 0x3DEC4, size: 0x8, addend: 0x0, symName: __RNvXs3_NtNtCse1nGBsou5OW_5alloc3vec9into_iterINtB5_8IntoIterTNtNtCs6IAuOt8vWmF_3syn4expr4ExprNtNtB11_5token5CommaEENtNtNtNtCsfvfooZQ3Axs_4core4iter6traits8iterator8Iterator9size_hintCs3yqPx1X2sxh_15zerofrom_derive, symObjAddr: 0x8F88, symBinAddr: 0x11BE8, symSize: 0x6C }
  - { offset: 0x3DF1F, size: 0x8, addend: 0x0, symName: __RNvXs3_NtNtCse1nGBsou5OW_5alloc3vec9into_iterINtB5_8IntoIterTNtNtCs6IAuOt8vWmF_3syn4item5FnArgNtNtB11_5token5CommaEENtNtNtNtCsfvfooZQ3Axs_4core4iter6traits8iterator8Iterator9size_hintCs3yqPx1X2sxh_15zerofrom_derive, symObjAddr: 0x8FF4, symBinAddr: 0x11C54, symSize: 0x6C }
  - { offset: 0x3DF7A, size: 0x8, addend: 0x0, symName: __RNvXs3_NtNtCse1nGBsou5OW_5alloc3vec9into_iterINtB5_8IntoIterTNtNtCs6IAuOt8vWmF_3syn4item7UseTreeNtNtB11_5token5CommaEENtNtNtNtCsfvfooZQ3Axs_4core4iter6traits8iterator8Iterator9size_hintCs3yqPx1X2sxh_15zerofrom_derive, symObjAddr: 0x9060, symBinAddr: 0x11CC0, symSize: 0x6C }
  - { offset: 0x3DFD5, size: 0x8, addend: 0x0, symName: __RNvXs3_NtNtCse1nGBsou5OW_5alloc3vec9into_iterINtB5_8IntoIterTNtNtCs6IAuOt8vWmF_3syn4path15GenericArgumentNtNtB11_5token5CommaEENtNtNtNtCsfvfooZQ3Axs_4core4iter6traits8iterator8Iterator9size_hintCs3yqPx1X2sxh_15zerofrom_derive, symObjAddr: 0x90CC, symBinAddr: 0x11D2C, symSize: 0x6C }
  - { offset: 0x3E030, size: 0x8, addend: 0x0, symName: __RNvXs3_NtNtCse1nGBsou5OW_5alloc3vec9into_iterINtB5_8IntoIterTNtNtCs6IAuOt8vWmF_3syn8generics12GenericParamNtNtB11_5token5CommaEENtNtNtNtCsfvfooZQ3Axs_4core4iter6traits8iterator8Iterator9size_hintCs3yqPx1X2sxh_15zerofrom_derive, symObjAddr: 0x9138, symBinAddr: 0x11D98, symSize: 0x6C }
  - { offset: 0x3E08B, size: 0x8, addend: 0x0, symName: __RNvXs3_NtNtCse1nGBsou5OW_5alloc3vec9into_iterINtB5_8IntoIterTNtNtCs6IAuOt8vWmF_3syn8generics13CapturedParamNtNtB11_5token5CommaEENtNtNtNtCsfvfooZQ3Axs_4core4iter6traits8iterator8Iterator9size_hintCs3yqPx1X2sxh_15zerofrom_derive, symObjAddr: 0x91A4, symBinAddr: 0x11E04, symSize: 0x6C }
  - { offset: 0x3E0E6, size: 0x8, addend: 0x0, symName: __RNvXs3_NtNtCse1nGBsou5OW_5alloc3vec9into_iterINtB5_8IntoIterTNtNtCs6IAuOt8vWmF_3syn8generics14WherePredicateNtNtB11_5token5CommaEENtNtNtNtCsfvfooZQ3Axs_4core4iter6traits8iterator8Iterator9size_hintCs3yqPx1X2sxh_15zerofrom_derive, symObjAddr: 0x9210, symBinAddr: 0x11E70, symSize: 0x6C }
  - { offset: 0x3E141, size: 0x8, addend: 0x0, symName: __RNvXs3_NtNtCse1nGBsou5OW_5alloc3vec9into_iterINtB5_8IntoIterTNtNtCs6IAuOt8vWmF_3syn8lifetime8LifetimeNtNtB11_5token4PlusEENtNtNtNtCsfvfooZQ3Axs_4core4iter6traits8iterator8Iterator9size_hintCs3yqPx1X2sxh_15zerofrom_derive, symObjAddr: 0x927C, symBinAddr: 0x11EDC, symSize: 0x6C }
  - { offset: 0x3F31B, size: 0x8, addend: 0x0, symName: __RNvXNvXsd_NtNtCse1nGBsou5OW_5alloc3vec9into_iterINtB8_8IntoIterppENtNtNtCsfvfooZQ3Axs_4core3ops4drop4Drop4dropINtB2_9DropGuardNtCs3cP53eQoTwO_11proc_macro25IdentNtNtBc_5alloc6GlobalEB12_4dropCs3yqPx1X2sxh_15zerofrom_derive, symObjAddr: 0x7D40, symBinAddr: 0x109A0, symSize: 0x7C }
  - { offset: 0x3F428, size: 0x8, addend: 0x0, symName: __RNvXNvXsd_NtNtCse1nGBsou5OW_5alloc3vec9into_iterINtB8_8IntoIterppENtNtNtCsfvfooZQ3Axs_4core3ops4drop4Drop4dropINtB2_9DropGuardNtNtCs6IAuOt8vWmF_3syn4expr3ArmNtNtBc_5alloc6GlobalEB12_4dropCs3yqPx1X2sxh_15zerofrom_derive, symObjAddr: 0x7DBC, symBinAddr: 0x10A1C, symSize: 0x7C }
  - { offset: 0x3F535, size: 0x8, addend: 0x0, symName: __RNvXNvXsd_NtNtCse1nGBsou5OW_5alloc3vec9into_iterINtB8_8IntoIterppENtNtNtCsfvfooZQ3Axs_4core3ops4drop4Drop4dropINtB2_9DropGuardNtNtCs6IAuOt8vWmF_3syn4item11ForeignItemNtNtBc_5alloc6GlobalEB12_4dropCs3yqPx1X2sxh_15zerofrom_derive, symObjAddr: 0x7E38, symBinAddr: 0x10A98, symSize: 0x7C }
  - { offset: 0x3F642, size: 0x8, addend: 0x0, symName: __RNvXNvXsd_NtNtCse1nGBsou5OW_5alloc3vec9into_iterINtB8_8IntoIterppENtNtNtCsfvfooZQ3Axs_4core3ops4drop4Drop4dropINtB2_9DropGuardNtNtCs6IAuOt8vWmF_3syn4item4ItemNtNtBc_5alloc6GlobalEB12_4dropCs3yqPx1X2sxh_15zerofrom_derive, symObjAddr: 0x7EB4, symBinAddr: 0x10B14, symSize: 0x7C }
  - { offset: 0x3F74F, size: 0x8, addend: 0x0, symName: __RNvXNvXsd_NtNtCse1nGBsou5OW_5alloc3vec9into_iterINtB8_8IntoIterppENtNtNtCsfvfooZQ3Axs_4core3ops4drop4Drop4dropINtB2_9DropGuardNtNtCs6IAuOt8vWmF_3syn4item8ImplItemNtNtBc_5alloc6GlobalEB12_4dropCs3yqPx1X2sxh_15zerofrom_derive, symObjAddr: 0x7F30, symBinAddr: 0x10B90, symSize: 0x7C }
  - { offset: 0x3F85C, size: 0x8, addend: 0x0, symName: __RNvXNvXsd_NtNtCse1nGBsou5OW_5alloc3vec9into_iterINtB8_8IntoIterppENtNtNtCsfvfooZQ3Axs_4core3ops4drop4Drop4dropINtB2_9DropGuardNtNtCs6IAuOt8vWmF_3syn4item9TraitItemNtNtBc_5alloc6GlobalEB12_4dropCs3yqPx1X2sxh_15zerofrom_derive, symObjAddr: 0x7FAC, symBinAddr: 0x10C0C, symSize: 0x7C }
  - { offset: 0x3F969, size: 0x8, addend: 0x0, symName: __RNvXNvXsd_NtNtCse1nGBsou5OW_5alloc3vec9into_iterINtB8_8IntoIterppENtNtNtCsfvfooZQ3Axs_4core3ops4drop4Drop4dropINtB2_9DropGuardNtNtCs6IAuOt8vWmF_3syn4stmt4StmtNtNtBc_5alloc6GlobalEB12_4dropCs3yqPx1X2sxh_15zerofrom_derive, symObjAddr: 0x8028, symBinAddr: 0x10C88, symSize: 0x7C }
  - { offset: 0x3FA76, size: 0x8, addend: 0x0, symName: __RNvXNvXsd_NtNtCse1nGBsou5OW_5alloc3vec9into_iterINtB8_8IntoIterppENtNtNtCsfvfooZQ3Axs_4core3ops4drop4Drop4dropINtB2_9DropGuardTNtCs3cP53eQoTwO_11proc_macro25IdentNtNtCs6IAuOt8vWmF_3syn5token5CommaENtNtBc_5alloc6GlobalEB12_4dropCs3yqPx1X2sxh_15zerofrom_derive, symObjAddr: 0x80A4, symBinAddr: 0x10D04, symSize: 0x7C }
  - { offset: 0x3FB83, size: 0x8, addend: 0x0, symName: __RNvXNvXsd_NtNtCse1nGBsou5OW_5alloc3vec9into_iterINtB8_8IntoIterppENtNtNtCsfvfooZQ3Axs_4core3ops4drop4Drop4dropINtB2_9DropGuardTNtNtCs6IAuOt8vWmF_3syn2ty4TypeNtNtB25_5token5CommaENtNtBc_5alloc6GlobalEB12_4dropCs3yqPx1X2sxh_15zerofrom_derive, symObjAddr: 0x8120, symBinAddr: 0x10D80, symSize: 0x7C }
  - { offset: 0x3FC90, size: 0x8, addend: 0x0, symName: __RNvXNvXsd_NtNtCse1nGBsou5OW_5alloc3vec9into_iterINtB8_8IntoIterppENtNtNtCsfvfooZQ3Axs_4core3ops4drop4Drop4dropINtB2_9DropGuardTNtNtCs6IAuOt8vWmF_3syn2ty9BareFnArgNtNtB25_5token5CommaENtNtBc_5alloc6GlobalEB12_4dropCs3yqPx1X2sxh_15zerofrom_derive, symObjAddr: 0x819C, symBinAddr: 0x10DFC, symSize: 0x7C }
  - { offset: 0x3FD9D, size: 0x8, addend: 0x0, symName: __RNvXNvXsd_NtNtCse1nGBsou5OW_5alloc3vec9into_iterINtB8_8IntoIterppENtNtNtCsfvfooZQ3Axs_4core3ops4drop4Drop4dropINtB2_9DropGuardTNtNtCs6IAuOt8vWmF_3syn3pat3PatNtNtB25_5token2OrENtNtBc_5alloc6GlobalEB12_4dropCs3yqPx1X2sxh_15zerofrom_derive, symObjAddr: 0x8218, symBinAddr: 0x10E78, symSize: 0x7C }
  - { offset: 0x3FEAA, size: 0x8, addend: 0x0, symName: __RNvXNvXsd_NtNtCse1nGBsou5OW_5alloc3vec9into_iterINtB8_8IntoIterppENtNtNtCsfvfooZQ3Axs_4core3ops4drop4Drop4dropINtB2_9DropGuardTNtNtCs6IAuOt8vWmF_3syn3pat3PatNtNtB25_5token5CommaENtNtBc_5alloc6GlobalEB12_4dropCs3yqPx1X2sxh_15zerofrom_derive, symObjAddr: 0x8294, symBinAddr: 0x10EF4, symSize: 0x7C }
  - { offset: 0x3FFB7, size: 0x8, addend: 0x0, symName: __RNvXNvXsd_NtNtCse1nGBsou5OW_5alloc3vec9into_iterINtB8_8IntoIterppENtNtNtCsfvfooZQ3Axs_4core3ops4drop4Drop4dropINtB2_9DropGuardTNtNtCs6IAuOt8vWmF_3syn3pat8FieldPatNtNtB25_5token5CommaENtNtBc_5alloc6GlobalEB12_4dropCs3yqPx1X2sxh_15zerofrom_derive, symObjAddr: 0x8310, symBinAddr: 0x10F70, symSize: 0x7C }
  - { offset: 0x400C4, size: 0x8, addend: 0x0, symName: __RNvXNvXsd_NtNtCse1nGBsou5OW_5alloc3vec9into_iterINtB8_8IntoIterppENtNtNtCsfvfooZQ3Axs_4core3ops4drop4Drop4dropINtB2_9DropGuardTNtNtCs6IAuOt8vWmF_3syn4data7VariantNtNtB25_5token5CommaENtNtBc_5alloc6GlobalEB12_4dropCs3yqPx1X2sxh_15zerofrom_derive, symObjAddr: 0x838C, symBinAddr: 0x10FEC, symSize: 0x7C }
  - { offset: 0x401D1, size: 0x8, addend: 0x0, symName: __RNvXNvXsd_NtNtCse1nGBsou5OW_5alloc3vec9into_iterINtB8_8IntoIterppENtNtNtCsfvfooZQ3Axs_4core3ops4drop4Drop4dropINtB2_9DropGuardTNtNtCs6IAuOt8vWmF_3syn4expr10FieldValueNtNtB25_5token5CommaENtNtBc_5alloc6GlobalEB12_4dropCs3yqPx1X2sxh_15zerofrom_derive, symObjAddr: 0x8408, symBinAddr: 0x11068, symSize: 0x7C }
  - { offset: 0x402DE, size: 0x8, addend: 0x0, symName: __RNvXNvXsd_NtNtCse1nGBsou5OW_5alloc3vec9into_iterINtB8_8IntoIterppENtNtNtCsfvfooZQ3Axs_4core3ops4drop4Drop4dropINtB2_9DropGuardTNtNtCs6IAuOt8vWmF_3syn4expr4ExprNtNtB25_5token5CommaENtNtBc_5alloc6GlobalEB12_4dropCs3yqPx1X2sxh_15zerofrom_derive, symObjAddr: 0x8484, symBinAddr: 0x110E4, symSize: 0x7C }
  - { offset: 0x403EB, size: 0x8, addend: 0x0, symName: __RNvXNvXsd_NtNtCse1nGBsou5OW_5alloc3vec9into_iterINtB8_8IntoIterppENtNtNtCsfvfooZQ3Axs_4core3ops4drop4Drop4dropINtB2_9DropGuardTNtNtCs6IAuOt8vWmF_3syn4item5FnArgNtNtB25_5token5CommaENtNtBc_5alloc6GlobalEB12_4dropCs3yqPx1X2sxh_15zerofrom_derive, symObjAddr: 0x8500, symBinAddr: 0x11160, symSize: 0x7C }
  - { offset: 0x404F8, size: 0x8, addend: 0x0, symName: __RNvXNvXsd_NtNtCse1nGBsou5OW_5alloc3vec9into_iterINtB8_8IntoIterppENtNtNtCsfvfooZQ3Axs_4core3ops4drop4Drop4dropINtB2_9DropGuardTNtNtCs6IAuOt8vWmF_3syn4item7UseTreeNtNtB25_5token5CommaENtNtBc_5alloc6GlobalEB12_4dropCs3yqPx1X2sxh_15zerofrom_derive, symObjAddr: 0x857C, symBinAddr: 0x111DC, symSize: 0x7C }
  - { offset: 0x40605, size: 0x8, addend: 0x0, symName: __RNvXNvXsd_NtNtCse1nGBsou5OW_5alloc3vec9into_iterINtB8_8IntoIterppENtNtNtCsfvfooZQ3Axs_4core3ops4drop4Drop4dropINtB2_9DropGuardTNtNtCs6IAuOt8vWmF_3syn4path15GenericArgumentNtNtB25_5token5CommaENtNtBc_5alloc6GlobalEB12_4dropCs3yqPx1X2sxh_15zerofrom_derive, symObjAddr: 0x85F8, symBinAddr: 0x11258, symSize: 0x7C }
  - { offset: 0x40712, size: 0x8, addend: 0x0, symName: __RNvXNvXsd_NtNtCse1nGBsou5OW_5alloc3vec9into_iterINtB8_8IntoIterppENtNtNtCsfvfooZQ3Axs_4core3ops4drop4Drop4dropINtB2_9DropGuardTNtNtCs6IAuOt8vWmF_3syn8generics12GenericParamNtNtB25_5token5CommaENtNtBc_5alloc6GlobalEB12_4dropCs3yqPx1X2sxh_15zerofrom_derive, symObjAddr: 0x8674, symBinAddr: 0x112D4, symSize: 0x7C }
  - { offset: 0x4081F, size: 0x8, addend: 0x0, symName: __RNvXNvXsd_NtNtCse1nGBsou5OW_5alloc3vec9into_iterINtB8_8IntoIterppENtNtNtCsfvfooZQ3Axs_4core3ops4drop4Drop4dropINtB2_9DropGuardTNtNtCs6IAuOt8vWmF_3syn8generics13CapturedParamNtNtB25_5token5CommaENtNtBc_5alloc6GlobalEB12_4dropCs3yqPx1X2sxh_15zerofrom_derive, symObjAddr: 0x86F0, symBinAddr: 0x11350, symSize: 0x7C }
  - { offset: 0x4092C, size: 0x8, addend: 0x0, symName: __RNvXNvXsd_NtNtCse1nGBsou5OW_5alloc3vec9into_iterINtB8_8IntoIterppENtNtNtCsfvfooZQ3Axs_4core3ops4drop4Drop4dropINtB2_9DropGuardTNtNtCs6IAuOt8vWmF_3syn8generics14WherePredicateNtNtB25_5token5CommaENtNtBc_5alloc6GlobalEB12_4dropCs3yqPx1X2sxh_15zerofrom_derive, symObjAddr: 0x876C, symBinAddr: 0x113CC, symSize: 0x7C }
  - { offset: 0x40A39, size: 0x8, addend: 0x0, symName: __RNvXNvXsd_NtNtCse1nGBsou5OW_5alloc3vec9into_iterINtB8_8IntoIterppENtNtNtCsfvfooZQ3Axs_4core3ops4drop4Drop4dropINtB2_9DropGuardTNtNtCs6IAuOt8vWmF_3syn8lifetime8LifetimeNtNtB25_5token4PlusENtNtBc_5alloc6GlobalEB12_4dropCs3yqPx1X2sxh_15zerofrom_derive, symObjAddr: 0x87E8, symBinAddr: 0x11448, symSize: 0x7C }
  - { offset: 0x40EC9, size: 0x8, addend: 0x0, symName: __RNvXsd_NtNtCse1nGBsou5OW_5alloc3vec9into_iterINtB5_8IntoIterNtCs3cP53eQoTwO_11proc_macro25IdentENtNtNtCsfvfooZQ3Axs_4core3ops4drop4Drop4dropCs3yqPx1X2sxh_15zerofrom_derive, symObjAddr: 0x92E8, symBinAddr: 0x11F48, symSize: 0x98 }
  - { offset: 0x40F63, size: 0x8, addend: 0x0, symName: __RNvXsd_NtNtCse1nGBsou5OW_5alloc3vec9into_iterINtB5_8IntoIterNtNtCs6IAuOt8vWmF_3syn4expr3ArmENtNtNtCsfvfooZQ3Axs_4core3ops4drop4Drop4dropCs3yqPx1X2sxh_15zerofrom_derive, symObjAddr: 0x9380, symBinAddr: 0x11FE0, symSize: 0x98 }
  - { offset: 0x40FFD, size: 0x8, addend: 0x0, symName: __RNvXsd_NtNtCse1nGBsou5OW_5alloc3vec9into_iterINtB5_8IntoIterNtNtCs6IAuOt8vWmF_3syn4item11ForeignItemENtNtNtCsfvfooZQ3Axs_4core3ops4drop4Drop4dropCs3yqPx1X2sxh_15zerofrom_derive, symObjAddr: 0x9418, symBinAddr: 0x12078, symSize: 0x98 }
  - { offset: 0x41097, size: 0x8, addend: 0x0, symName: __RNvXsd_NtNtCse1nGBsou5OW_5alloc3vec9into_iterINtB5_8IntoIterNtNtCs6IAuOt8vWmF_3syn4item4ItemENtNtNtCsfvfooZQ3Axs_4core3ops4drop4Drop4dropCs3yqPx1X2sxh_15zerofrom_derive, symObjAddr: 0x94B0, symBinAddr: 0x12110, symSize: 0x98 }
  - { offset: 0x41131, size: 0x8, addend: 0x0, symName: __RNvXsd_NtNtCse1nGBsou5OW_5alloc3vec9into_iterINtB5_8IntoIterNtNtCs6IAuOt8vWmF_3syn4item8ImplItemENtNtNtCsfvfooZQ3Axs_4core3ops4drop4Drop4dropCs3yqPx1X2sxh_15zerofrom_derive, symObjAddr: 0x9548, symBinAddr: 0x121A8, symSize: 0x98 }
  - { offset: 0x411CB, size: 0x8, addend: 0x0, symName: __RNvXsd_NtNtCse1nGBsou5OW_5alloc3vec9into_iterINtB5_8IntoIterNtNtCs6IAuOt8vWmF_3syn4item9TraitItemENtNtNtCsfvfooZQ3Axs_4core3ops4drop4Drop4dropCs3yqPx1X2sxh_15zerofrom_derive, symObjAddr: 0x95E0, symBinAddr: 0x12240, symSize: 0x98 }
  - { offset: 0x41265, size: 0x8, addend: 0x0, symName: __RNvXsd_NtNtCse1nGBsou5OW_5alloc3vec9into_iterINtB5_8IntoIterNtNtCs6IAuOt8vWmF_3syn4stmt4StmtENtNtNtCsfvfooZQ3Axs_4core3ops4drop4Drop4dropCs3yqPx1X2sxh_15zerofrom_derive, symObjAddr: 0x9678, symBinAddr: 0x122D8, symSize: 0x98 }
  - { offset: 0x412FF, size: 0x8, addend: 0x0, symName: __RNvXsd_NtNtCse1nGBsou5OW_5alloc3vec9into_iterINtB5_8IntoIterTNtCs3cP53eQoTwO_11proc_macro25IdentNtNtCs6IAuOt8vWmF_3syn5token5CommaEENtNtNtCsfvfooZQ3Axs_4core3ops4drop4Drop4dropCs3yqPx1X2sxh_15zerofrom_derive, symObjAddr: 0x9710, symBinAddr: 0x12370, symSize: 0x98 }
  - { offset: 0x41399, size: 0x8, addend: 0x0, symName: __RNvXsd_NtNtCse1nGBsou5OW_5alloc3vec9into_iterINtB5_8IntoIterTNtNtCs6IAuOt8vWmF_3syn2ty4TypeNtNtB11_5token5CommaEENtNtNtCsfvfooZQ3Axs_4core3ops4drop4Drop4dropCs3yqPx1X2sxh_15zerofrom_derive, symObjAddr: 0x97A8, symBinAddr: 0x12408, symSize: 0x98 }
  - { offset: 0x41433, size: 0x8, addend: 0x0, symName: __RNvXsd_NtNtCse1nGBsou5OW_5alloc3vec9into_iterINtB5_8IntoIterTNtNtCs6IAuOt8vWmF_3syn2ty9BareFnArgNtNtB11_5token5CommaEENtNtNtCsfvfooZQ3Axs_4core3ops4drop4Drop4dropCs3yqPx1X2sxh_15zerofrom_derive, symObjAddr: 0x9840, symBinAddr: 0x124A0, symSize: 0x98 }
  - { offset: 0x414CD, size: 0x8, addend: 0x0, symName: __RNvXsd_NtNtCse1nGBsou5OW_5alloc3vec9into_iterINtB5_8IntoIterTNtNtCs6IAuOt8vWmF_3syn3pat3PatNtNtB11_5token2OrEENtNtNtCsfvfooZQ3Axs_4core3ops4drop4Drop4dropCs3yqPx1X2sxh_15zerofrom_derive, symObjAddr: 0x98D8, symBinAddr: 0x12538, symSize: 0x98 }
  - { offset: 0x41567, size: 0x8, addend: 0x0, symName: __RNvXsd_NtNtCse1nGBsou5OW_5alloc3vec9into_iterINtB5_8IntoIterTNtNtCs6IAuOt8vWmF_3syn3pat3PatNtNtB11_5token5CommaEENtNtNtCsfvfooZQ3Axs_4core3ops4drop4Drop4dropCs3yqPx1X2sxh_15zerofrom_derive, symObjAddr: 0x9970, symBinAddr: 0x125D0, symSize: 0x98 }
  - { offset: 0x41601, size: 0x8, addend: 0x0, symName: __RNvXsd_NtNtCse1nGBsou5OW_5alloc3vec9into_iterINtB5_8IntoIterTNtNtCs6IAuOt8vWmF_3syn3pat8FieldPatNtNtB11_5token5CommaEENtNtNtCsfvfooZQ3Axs_4core3ops4drop4Drop4dropCs3yqPx1X2sxh_15zerofrom_derive, symObjAddr: 0x9A08, symBinAddr: 0x12668, symSize: 0x98 }
  - { offset: 0x4169B, size: 0x8, addend: 0x0, symName: __RNvXsd_NtNtCse1nGBsou5OW_5alloc3vec9into_iterINtB5_8IntoIterTNtNtCs6IAuOt8vWmF_3syn4data7VariantNtNtB11_5token5CommaEENtNtNtCsfvfooZQ3Axs_4core3ops4drop4Drop4dropCs3yqPx1X2sxh_15zerofrom_derive, symObjAddr: 0x9AA0, symBinAddr: 0x12700, symSize: 0x98 }
  - { offset: 0x41735, size: 0x8, addend: 0x0, symName: __RNvXsd_NtNtCse1nGBsou5OW_5alloc3vec9into_iterINtB5_8IntoIterTNtNtCs6IAuOt8vWmF_3syn4expr10FieldValueNtNtB11_5token5CommaEENtNtNtCsfvfooZQ3Axs_4core3ops4drop4Drop4dropCs3yqPx1X2sxh_15zerofrom_derive, symObjAddr: 0x9B38, symBinAddr: 0x12798, symSize: 0x98 }
  - { offset: 0x417CF, size: 0x8, addend: 0x0, symName: __RNvXsd_NtNtCse1nGBsou5OW_5alloc3vec9into_iterINtB5_8IntoIterTNtNtCs6IAuOt8vWmF_3syn4expr4ExprNtNtB11_5token5CommaEENtNtNtCsfvfooZQ3Axs_4core3ops4drop4Drop4dropCs3yqPx1X2sxh_15zerofrom_derive, symObjAddr: 0x9BD0, symBinAddr: 0x12830, symSize: 0x98 }
  - { offset: 0x41869, size: 0x8, addend: 0x0, symName: __RNvXsd_NtNtCse1nGBsou5OW_5alloc3vec9into_iterINtB5_8IntoIterTNtNtCs6IAuOt8vWmF_3syn4item5FnArgNtNtB11_5token5CommaEENtNtNtCsfvfooZQ3Axs_4core3ops4drop4Drop4dropCs3yqPx1X2sxh_15zerofrom_derive, symObjAddr: 0x9C68, symBinAddr: 0x128C8, symSize: 0x98 }
  - { offset: 0x41903, size: 0x8, addend: 0x0, symName: __RNvXsd_NtNtCse1nGBsou5OW_5alloc3vec9into_iterINtB5_8IntoIterTNtNtCs6IAuOt8vWmF_3syn4item7UseTreeNtNtB11_5token5CommaEENtNtNtCsfvfooZQ3Axs_4core3ops4drop4Drop4dropCs3yqPx1X2sxh_15zerofrom_derive, symObjAddr: 0x9D00, symBinAddr: 0x12960, symSize: 0x98 }
  - { offset: 0x4199D, size: 0x8, addend: 0x0, symName: __RNvXsd_NtNtCse1nGBsou5OW_5alloc3vec9into_iterINtB5_8IntoIterTNtNtCs6IAuOt8vWmF_3syn4path15GenericArgumentNtNtB11_5token5CommaEENtNtNtCsfvfooZQ3Axs_4core3ops4drop4Drop4dropCs3yqPx1X2sxh_15zerofrom_derive, symObjAddr: 0x9D98, symBinAddr: 0x129F8, symSize: 0x98 }
  - { offset: 0x41A37, size: 0x8, addend: 0x0, symName: __RNvXsd_NtNtCse1nGBsou5OW_5alloc3vec9into_iterINtB5_8IntoIterTNtNtCs6IAuOt8vWmF_3syn8generics12GenericParamNtNtB11_5token5CommaEENtNtNtCsfvfooZQ3Axs_4core3ops4drop4Drop4dropCs3yqPx1X2sxh_15zerofrom_derive, symObjAddr: 0x9E30, symBinAddr: 0x12A90, symSize: 0x98 }
  - { offset: 0x41AD1, size: 0x8, addend: 0x0, symName: __RNvXsd_NtNtCse1nGBsou5OW_5alloc3vec9into_iterINtB5_8IntoIterTNtNtCs6IAuOt8vWmF_3syn8generics13CapturedParamNtNtB11_5token5CommaEENtNtNtCsfvfooZQ3Axs_4core3ops4drop4Drop4dropCs3yqPx1X2sxh_15zerofrom_derive, symObjAddr: 0x9EC8, symBinAddr: 0x12B28, symSize: 0x98 }
  - { offset: 0x41B6B, size: 0x8, addend: 0x0, symName: __RNvXsd_NtNtCse1nGBsou5OW_5alloc3vec9into_iterINtB5_8IntoIterTNtNtCs6IAuOt8vWmF_3syn8generics14WherePredicateNtNtB11_5token5CommaEENtNtNtCsfvfooZQ3Axs_4core3ops4drop4Drop4dropCs3yqPx1X2sxh_15zerofrom_derive, symObjAddr: 0x9F60, symBinAddr: 0x12BC0, symSize: 0x98 }
  - { offset: 0x41C05, size: 0x8, addend: 0x0, symName: __RNvXsd_NtNtCse1nGBsou5OW_5alloc3vec9into_iterINtB5_8IntoIterTNtNtCs6IAuOt8vWmF_3syn8lifetime8LifetimeNtNtB11_5token4PlusEENtNtNtCsfvfooZQ3Axs_4core3ops4drop4Drop4dropCs3yqPx1X2sxh_15zerofrom_derive, symObjAddr: 0x9FF8, symBinAddr: 0x12C58, symSize: 0x98 }
  - { offset: 0x41D2F, size: 0x8, addend: 0x0, symName: __RNvXsf_NtNtCse1nGBsou5OW_5alloc3vec9into_iterINtB5_8IntoIterNtNtCs6IAuOt8vWmF_3syn4attr9AttributeENtNtNtCsfvfooZQ3Axs_4core4iter8adapters10SourceIter8as_innerCs3yqPx1X2sxh_15zerofrom_derive, symObjAddr: 0xA090, symBinAddr: 0x12CF0, symSize: 0x14 }
  - { offset: 0x41D6F, size: 0x8, addend: 0x0, symName: __RNvXsf_NtNtCse1nGBsou5OW_5alloc3vec9into_iterINtB5_8IntoIterNtNtCs6IAuOt8vWmF_3syn4expr3ArmENtNtNtCsfvfooZQ3Axs_4core4iter8adapters10SourceIter8as_innerCs3yqPx1X2sxh_15zerofrom_derive, symObjAddr: 0xA0A4, symBinAddr: 0x12D04, symSize: 0x14 }
  - { offset: 0x41DAF, size: 0x8, addend: 0x0, symName: __RNvXsf_NtNtCse1nGBsou5OW_5alloc3vec9into_iterINtB5_8IntoIterNtNtCs6IAuOt8vWmF_3syn4item11ForeignItemENtNtNtCsfvfooZQ3Axs_4core4iter8adapters10SourceIter8as_innerCs3yqPx1X2sxh_15zerofrom_derive, symObjAddr: 0xA0B8, symBinAddr: 0x12D18, symSize: 0x14 }
  - { offset: 0x41DEF, size: 0x8, addend: 0x0, symName: __RNvXsf_NtNtCse1nGBsou5OW_5alloc3vec9into_iterINtB5_8IntoIterNtNtCs6IAuOt8vWmF_3syn4item4ItemENtNtNtCsfvfooZQ3Axs_4core4iter8adapters10SourceIter8as_innerCs3yqPx1X2sxh_15zerofrom_derive, symObjAddr: 0xA0CC, symBinAddr: 0x12D2C, symSize: 0x14 }
  - { offset: 0x41E2F, size: 0x8, addend: 0x0, symName: __RNvXsf_NtNtCse1nGBsou5OW_5alloc3vec9into_iterINtB5_8IntoIterNtNtCs6IAuOt8vWmF_3syn4item8ImplItemENtNtNtCsfvfooZQ3Axs_4core4iter8adapters10SourceIter8as_innerCs3yqPx1X2sxh_15zerofrom_derive, symObjAddr: 0xA0E0, symBinAddr: 0x12D40, symSize: 0x14 }
  - { offset: 0x41E6F, size: 0x8, addend: 0x0, symName: __RNvXsf_NtNtCse1nGBsou5OW_5alloc3vec9into_iterINtB5_8IntoIterNtNtCs6IAuOt8vWmF_3syn4item9TraitItemENtNtNtCsfvfooZQ3Axs_4core4iter8adapters10SourceIter8as_innerCs3yqPx1X2sxh_15zerofrom_derive, symObjAddr: 0xA0F4, symBinAddr: 0x12D54, symSize: 0x14 }
  - { offset: 0x41EAF, size: 0x8, addend: 0x0, symName: __RNvXsf_NtNtCse1nGBsou5OW_5alloc3vec9into_iterINtB5_8IntoIterNtNtCs6IAuOt8vWmF_3syn4stmt4StmtENtNtNtCsfvfooZQ3Axs_4core4iter8adapters10SourceIter8as_innerCs3yqPx1X2sxh_15zerofrom_derive, symObjAddr: 0xA108, symBinAddr: 0x12D68, symSize: 0x14 }
  - { offset: 0x41EEF, size: 0x8, addend: 0x0, symName: __RNvXsf_NtNtCse1nGBsou5OW_5alloc3vec9into_iterINtB5_8IntoIterTNtNtCs6IAuOt8vWmF_3syn2ty4TypeNtNtB11_5token5CommaEENtNtNtCsfvfooZQ3Axs_4core4iter8adapters10SourceIter8as_innerCs3yqPx1X2sxh_15zerofrom_derive, symObjAddr: 0xA11C, symBinAddr: 0x12D7C, symSize: 0x14 }
  - { offset: 0x41F2F, size: 0x8, addend: 0x0, symName: __RNvXsf_NtNtCse1nGBsou5OW_5alloc3vec9into_iterINtB5_8IntoIterTNtNtCs6IAuOt8vWmF_3syn2ty9BareFnArgNtNtB11_5token5CommaEENtNtNtCsfvfooZQ3Axs_4core4iter8adapters10SourceIter8as_innerCs3yqPx1X2sxh_15zerofrom_derive, symObjAddr: 0xA130, symBinAddr: 0x12D90, symSize: 0x14 }
  - { offset: 0x41F6F, size: 0x8, addend: 0x0, symName: __RNvXsf_NtNtCse1nGBsou5OW_5alloc3vec9into_iterINtB5_8IntoIterTNtNtCs6IAuOt8vWmF_3syn3pat3PatNtNtB11_5token2OrEENtNtNtCsfvfooZQ3Axs_4core4iter8adapters10SourceIter8as_innerCs3yqPx1X2sxh_15zerofrom_derive, symObjAddr: 0xA144, symBinAddr: 0x12DA4, symSize: 0x14 }
  - { offset: 0x41FAF, size: 0x8, addend: 0x0, symName: __RNvXsf_NtNtCse1nGBsou5OW_5alloc3vec9into_iterINtB5_8IntoIterTNtNtCs6IAuOt8vWmF_3syn3pat3PatNtNtB11_5token5CommaEENtNtNtCsfvfooZQ3Axs_4core4iter8adapters10SourceIter8as_innerCs3yqPx1X2sxh_15zerofrom_derive, symObjAddr: 0xA158, symBinAddr: 0x12DB8, symSize: 0x14 }
  - { offset: 0x41FEF, size: 0x8, addend: 0x0, symName: __RNvXsf_NtNtCse1nGBsou5OW_5alloc3vec9into_iterINtB5_8IntoIterTNtNtCs6IAuOt8vWmF_3syn3pat8FieldPatNtNtB11_5token5CommaEENtNtNtCsfvfooZQ3Axs_4core4iter8adapters10SourceIter8as_innerCs3yqPx1X2sxh_15zerofrom_derive, symObjAddr: 0xA16C, symBinAddr: 0x12DCC, symSize: 0x14 }
  - { offset: 0x4202F, size: 0x8, addend: 0x0, symName: __RNvXsf_NtNtCse1nGBsou5OW_5alloc3vec9into_iterINtB5_8IntoIterTNtNtCs6IAuOt8vWmF_3syn4data5FieldNtNtB11_5token5CommaEENtNtNtCsfvfooZQ3Axs_4core4iter8adapters10SourceIter8as_innerCs3yqPx1X2sxh_15zerofrom_derive, symObjAddr: 0xA180, symBinAddr: 0x12DE0, symSize: 0x14 }
  - { offset: 0x4206F, size: 0x8, addend: 0x0, symName: __RNvXsf_NtNtCse1nGBsou5OW_5alloc3vec9into_iterINtB5_8IntoIterTNtNtCs6IAuOt8vWmF_3syn4data7VariantNtNtB11_5token5CommaEENtNtNtCsfvfooZQ3Axs_4core4iter8adapters10SourceIter8as_innerCs3yqPx1X2sxh_15zerofrom_derive, symObjAddr: 0xA194, symBinAddr: 0x12DF4, symSize: 0x14 }
  - { offset: 0x420AF, size: 0x8, addend: 0x0, symName: __RNvXsf_NtNtCse1nGBsou5OW_5alloc3vec9into_iterINtB5_8IntoIterTNtNtCs6IAuOt8vWmF_3syn4expr10FieldValueNtNtB11_5token5CommaEENtNtNtCsfvfooZQ3Axs_4core4iter8adapters10SourceIter8as_innerCs3yqPx1X2sxh_15zerofrom_derive, symObjAddr: 0xA1A8, symBinAddr: 0x12E08, symSize: 0x14 }
  - { offset: 0x420EF, size: 0x8, addend: 0x0, symName: __RNvXsf_NtNtCse1nGBsou5OW_5alloc3vec9into_iterINtB5_8IntoIterTNtNtCs6IAuOt8vWmF_3syn4expr4ExprNtNtB11_5token5CommaEENtNtNtCsfvfooZQ3Axs_4core4iter8adapters10SourceIter8as_innerCs3yqPx1X2sxh_15zerofrom_derive, symObjAddr: 0xA1BC, symBinAddr: 0x12E1C, symSize: 0x14 }
  - { offset: 0x4212F, size: 0x8, addend: 0x0, symName: __RNvXsf_NtNtCse1nGBsou5OW_5alloc3vec9into_iterINtB5_8IntoIterTNtNtCs6IAuOt8vWmF_3syn4item5FnArgNtNtB11_5token5CommaEENtNtNtCsfvfooZQ3Axs_4core4iter8adapters10SourceIter8as_innerCs3yqPx1X2sxh_15zerofrom_derive, symObjAddr: 0xA1D0, symBinAddr: 0x12E30, symSize: 0x14 }
  - { offset: 0x4216F, size: 0x8, addend: 0x0, symName: __RNvXsf_NtNtCse1nGBsou5OW_5alloc3vec9into_iterINtB5_8IntoIterTNtNtCs6IAuOt8vWmF_3syn4item7UseTreeNtNtB11_5token5CommaEENtNtNtCsfvfooZQ3Axs_4core4iter8adapters10SourceIter8as_innerCs3yqPx1X2sxh_15zerofrom_derive, symObjAddr: 0xA1E4, symBinAddr: 0x12E44, symSize: 0x14 }
  - { offset: 0x421AF, size: 0x8, addend: 0x0, symName: __RNvXsf_NtNtCse1nGBsou5OW_5alloc3vec9into_iterINtB5_8IntoIterTNtNtCs6IAuOt8vWmF_3syn4path11PathSegmentNtNtB11_5token7PathSepEENtNtNtCsfvfooZQ3Axs_4core4iter8adapters10SourceIter8as_innerCs3yqPx1X2sxh_15zerofrom_derive, symObjAddr: 0xA1F8, symBinAddr: 0x12E58, symSize: 0x14 }
  - { offset: 0x421EF, size: 0x8, addend: 0x0, symName: __RNvXsf_NtNtCse1nGBsou5OW_5alloc3vec9into_iterINtB5_8IntoIterTNtNtCs6IAuOt8vWmF_3syn4path15GenericArgumentNtNtB11_5token5CommaEENtNtNtCsfvfooZQ3Axs_4core4iter8adapters10SourceIter8as_innerCs3yqPx1X2sxh_15zerofrom_derive, symObjAddr: 0xA20C, symBinAddr: 0x12E6C, symSize: 0x14 }
  - { offset: 0x4222F, size: 0x8, addend: 0x0, symName: __RNvXsf_NtNtCse1nGBsou5OW_5alloc3vec9into_iterINtB5_8IntoIterTNtNtCs6IAuOt8vWmF_3syn8generics12GenericParamNtNtB11_5token5CommaEENtNtNtCsfvfooZQ3Axs_4core4iter8adapters10SourceIter8as_innerCs3yqPx1X2sxh_15zerofrom_derive, symObjAddr: 0xA220, symBinAddr: 0x12E80, symSize: 0x14 }
  - { offset: 0x4226F, size: 0x8, addend: 0x0, symName: __RNvXsf_NtNtCse1nGBsou5OW_5alloc3vec9into_iterINtB5_8IntoIterTNtNtCs6IAuOt8vWmF_3syn8generics13CapturedParamNtNtB11_5token5CommaEENtNtNtCsfvfooZQ3Axs_4core4iter8adapters10SourceIter8as_innerCs3yqPx1X2sxh_15zerofrom_derive, symObjAddr: 0xA234, symBinAddr: 0x12E94, symSize: 0x14 }
  - { offset: 0x422AF, size: 0x8, addend: 0x0, symName: __RNvXsf_NtNtCse1nGBsou5OW_5alloc3vec9into_iterINtB5_8IntoIterTNtNtCs6IAuOt8vWmF_3syn8generics14TypeParamBoundNtNtB11_5token4PlusEENtNtNtCsfvfooZQ3Axs_4core4iter8adapters10SourceIter8as_innerCs3yqPx1X2sxh_15zerofrom_derive, symObjAddr: 0xA248, symBinAddr: 0x12EA8, symSize: 0x14 }
  - { offset: 0x422EF, size: 0x8, addend: 0x0, symName: __RNvXsf_NtNtCse1nGBsou5OW_5alloc3vec9into_iterINtB5_8IntoIterTNtNtCs6IAuOt8vWmF_3syn8generics14WherePredicateNtNtB11_5token5CommaEENtNtNtCsfvfooZQ3Axs_4core4iter8adapters10SourceIter8as_innerCs3yqPx1X2sxh_15zerofrom_derive, symObjAddr: 0xA25C, symBinAddr: 0x12EBC, symSize: 0x14 }
  - { offset: 0x4232F, size: 0x8, addend: 0x0, symName: __RNvXsf_NtNtCse1nGBsou5OW_5alloc3vec9into_iterINtB5_8IntoIterTNtNtCs6IAuOt8vWmF_3syn8lifetime8LifetimeNtNtB11_5token4PlusEENtNtNtCsfvfooZQ3Axs_4core4iter8adapters10SourceIter8as_innerCs3yqPx1X2sxh_15zerofrom_derive, symObjAddr: 0xA270, symBinAddr: 0x12ED0, symSize: 0x14 }
  - { offset: 0x42375, size: 0x8, addend: 0x0, symName: __RNvXsg_NtNtCse1nGBsou5OW_5alloc3vec9into_iterINtB5_8IntoIterNtNtCs6IAuOt8vWmF_3syn4attr9AttributeENtNtB7_16in_place_collect13AsVecIntoIter12as_into_iterCs3yqPx1X2sxh_15zerofrom_derive, symObjAddr: 0xA284, symBinAddr: 0x12EE4, symSize: 0x14 }
  - { offset: 0x423AC, size: 0x8, addend: 0x0, symName: __RNvXsg_NtNtCse1nGBsou5OW_5alloc3vec9into_iterINtB5_8IntoIterNtNtCs6IAuOt8vWmF_3syn4expr3ArmENtNtB7_16in_place_collect13AsVecIntoIter12as_into_iterCs3yqPx1X2sxh_15zerofrom_derive, symObjAddr: 0xA298, symBinAddr: 0x12EF8, symSize: 0x14 }
  - { offset: 0x423E3, size: 0x8, addend: 0x0, symName: __RNvXsg_NtNtCse1nGBsou5OW_5alloc3vec9into_iterINtB5_8IntoIterNtNtCs6IAuOt8vWmF_3syn4item11ForeignItemENtNtB7_16in_place_collect13AsVecIntoIter12as_into_iterCs3yqPx1X2sxh_15zerofrom_derive, symObjAddr: 0xA2AC, symBinAddr: 0x12F0C, symSize: 0x14 }
  - { offset: 0x4241A, size: 0x8, addend: 0x0, symName: __RNvXsg_NtNtCse1nGBsou5OW_5alloc3vec9into_iterINtB5_8IntoIterNtNtCs6IAuOt8vWmF_3syn4item4ItemENtNtB7_16in_place_collect13AsVecIntoIter12as_into_iterCs3yqPx1X2sxh_15zerofrom_derive, symObjAddr: 0xA2C0, symBinAddr: 0x12F20, symSize: 0x14 }
  - { offset: 0x42451, size: 0x8, addend: 0x0, symName: __RNvXsg_NtNtCse1nGBsou5OW_5alloc3vec9into_iterINtB5_8IntoIterNtNtCs6IAuOt8vWmF_3syn4item8ImplItemENtNtB7_16in_place_collect13AsVecIntoIter12as_into_iterCs3yqPx1X2sxh_15zerofrom_derive, symObjAddr: 0xA2D4, symBinAddr: 0x12F34, symSize: 0x14 }
  - { offset: 0x42488, size: 0x8, addend: 0x0, symName: __RNvXsg_NtNtCse1nGBsou5OW_5alloc3vec9into_iterINtB5_8IntoIterNtNtCs6IAuOt8vWmF_3syn4item9TraitItemENtNtB7_16in_place_collect13AsVecIntoIter12as_into_iterCs3yqPx1X2sxh_15zerofrom_derive, symObjAddr: 0xA2E8, symBinAddr: 0x12F48, symSize: 0x14 }
  - { offset: 0x424BF, size: 0x8, addend: 0x0, symName: __RNvXsg_NtNtCse1nGBsou5OW_5alloc3vec9into_iterINtB5_8IntoIterNtNtCs6IAuOt8vWmF_3syn4stmt4StmtENtNtB7_16in_place_collect13AsVecIntoIter12as_into_iterCs3yqPx1X2sxh_15zerofrom_derive, symObjAddr: 0xA2FC, symBinAddr: 0x12F5C, symSize: 0x14 }
  - { offset: 0x424F6, size: 0x8, addend: 0x0, symName: __RNvXsg_NtNtCse1nGBsou5OW_5alloc3vec9into_iterINtB5_8IntoIterTNtNtCs6IAuOt8vWmF_3syn2ty4TypeNtNtB11_5token5CommaEENtNtB7_16in_place_collect13AsVecIntoIter12as_into_iterCs3yqPx1X2sxh_15zerofrom_derive, symObjAddr: 0xA310, symBinAddr: 0x12F70, symSize: 0x14 }
  - { offset: 0x4252D, size: 0x8, addend: 0x0, symName: __RNvXsg_NtNtCse1nGBsou5OW_5alloc3vec9into_iterINtB5_8IntoIterTNtNtCs6IAuOt8vWmF_3syn2ty9BareFnArgNtNtB11_5token5CommaEENtNtB7_16in_place_collect13AsVecIntoIter12as_into_iterCs3yqPx1X2sxh_15zerofrom_derive, symObjAddr: 0xA324, symBinAddr: 0x12F84, symSize: 0x14 }
  - { offset: 0x42564, size: 0x8, addend: 0x0, symName: __RNvXsg_NtNtCse1nGBsou5OW_5alloc3vec9into_iterINtB5_8IntoIterTNtNtCs6IAuOt8vWmF_3syn3pat3PatNtNtB11_5token2OrEENtNtB7_16in_place_collect13AsVecIntoIter12as_into_iterCs3yqPx1X2sxh_15zerofrom_derive, symObjAddr: 0xA338, symBinAddr: 0x12F98, symSize: 0x14 }
  - { offset: 0x4259B, size: 0x8, addend: 0x0, symName: __RNvXsg_NtNtCse1nGBsou5OW_5alloc3vec9into_iterINtB5_8IntoIterTNtNtCs6IAuOt8vWmF_3syn3pat3PatNtNtB11_5token5CommaEENtNtB7_16in_place_collect13AsVecIntoIter12as_into_iterCs3yqPx1X2sxh_15zerofrom_derive, symObjAddr: 0xA34C, symBinAddr: 0x12FAC, symSize: 0x14 }
  - { offset: 0x425D2, size: 0x8, addend: 0x0, symName: __RNvXsg_NtNtCse1nGBsou5OW_5alloc3vec9into_iterINtB5_8IntoIterTNtNtCs6IAuOt8vWmF_3syn3pat8FieldPatNtNtB11_5token5CommaEENtNtB7_16in_place_collect13AsVecIntoIter12as_into_iterCs3yqPx1X2sxh_15zerofrom_derive, symObjAddr: 0xA360, symBinAddr: 0x12FC0, symSize: 0x14 }
  - { offset: 0x42609, size: 0x8, addend: 0x0, symName: __RNvXsg_NtNtCse1nGBsou5OW_5alloc3vec9into_iterINtB5_8IntoIterTNtNtCs6IAuOt8vWmF_3syn4data5FieldNtNtB11_5token5CommaEENtNtB7_16in_place_collect13AsVecIntoIter12as_into_iterCs3yqPx1X2sxh_15zerofrom_derive, symObjAddr: 0xA374, symBinAddr: 0x12FD4, symSize: 0x14 }
  - { offset: 0x42640, size: 0x8, addend: 0x0, symName: __RNvXsg_NtNtCse1nGBsou5OW_5alloc3vec9into_iterINtB5_8IntoIterTNtNtCs6IAuOt8vWmF_3syn4data7VariantNtNtB11_5token5CommaEENtNtB7_16in_place_collect13AsVecIntoIter12as_into_iterCs3yqPx1X2sxh_15zerofrom_derive, symObjAddr: 0xA388, symBinAddr: 0x12FE8, symSize: 0x14 }
  - { offset: 0x42677, size: 0x8, addend: 0x0, symName: __RNvXsg_NtNtCse1nGBsou5OW_5alloc3vec9into_iterINtB5_8IntoIterTNtNtCs6IAuOt8vWmF_3syn4expr10FieldValueNtNtB11_5token5CommaEENtNtB7_16in_place_collect13AsVecIntoIter12as_into_iterCs3yqPx1X2sxh_15zerofrom_derive, symObjAddr: 0xA39C, symBinAddr: 0x12FFC, symSize: 0x14 }
  - { offset: 0x426AE, size: 0x8, addend: 0x0, symName: __RNvXsg_NtNtCse1nGBsou5OW_5alloc3vec9into_iterINtB5_8IntoIterTNtNtCs6IAuOt8vWmF_3syn4expr4ExprNtNtB11_5token5CommaEENtNtB7_16in_place_collect13AsVecIntoIter12as_into_iterCs3yqPx1X2sxh_15zerofrom_derive, symObjAddr: 0xA3B0, symBinAddr: 0x13010, symSize: 0x14 }
  - { offset: 0x426E5, size: 0x8, addend: 0x0, symName: __RNvXsg_NtNtCse1nGBsou5OW_5alloc3vec9into_iterINtB5_8IntoIterTNtNtCs6IAuOt8vWmF_3syn4item5FnArgNtNtB11_5token5CommaEENtNtB7_16in_place_collect13AsVecIntoIter12as_into_iterCs3yqPx1X2sxh_15zerofrom_derive, symObjAddr: 0xA3C4, symBinAddr: 0x13024, symSize: 0x14 }
  - { offset: 0x4271C, size: 0x8, addend: 0x0, symName: __RNvXsg_NtNtCse1nGBsou5OW_5alloc3vec9into_iterINtB5_8IntoIterTNtNtCs6IAuOt8vWmF_3syn4item7UseTreeNtNtB11_5token5CommaEENtNtB7_16in_place_collect13AsVecIntoIter12as_into_iterCs3yqPx1X2sxh_15zerofrom_derive, symObjAddr: 0xA3D8, symBinAddr: 0x13038, symSize: 0x14 }
  - { offset: 0x42753, size: 0x8, addend: 0x0, symName: __RNvXsg_NtNtCse1nGBsou5OW_5alloc3vec9into_iterINtB5_8IntoIterTNtNtCs6IAuOt8vWmF_3syn4path11PathSegmentNtNtB11_5token7PathSepEENtNtB7_16in_place_collect13AsVecIntoIter12as_into_iterCs3yqPx1X2sxh_15zerofrom_derive, symObjAddr: 0xA3EC, symBinAddr: 0x1304C, symSize: 0x14 }
  - { offset: 0x4278A, size: 0x8, addend: 0x0, symName: __RNvXsg_NtNtCse1nGBsou5OW_5alloc3vec9into_iterINtB5_8IntoIterTNtNtCs6IAuOt8vWmF_3syn4path15GenericArgumentNtNtB11_5token5CommaEENtNtB7_16in_place_collect13AsVecIntoIter12as_into_iterCs3yqPx1X2sxh_15zerofrom_derive, symObjAddr: 0xA400, symBinAddr: 0x13060, symSize: 0x14 }
  - { offset: 0x427C1, size: 0x8, addend: 0x0, symName: __RNvXsg_NtNtCse1nGBsou5OW_5alloc3vec9into_iterINtB5_8IntoIterTNtNtCs6IAuOt8vWmF_3syn8generics12GenericParamNtNtB11_5token5CommaEENtNtB7_16in_place_collect13AsVecIntoIter12as_into_iterCs3yqPx1X2sxh_15zerofrom_derive, symObjAddr: 0xA414, symBinAddr: 0x13074, symSize: 0x14 }
  - { offset: 0x427F8, size: 0x8, addend: 0x0, symName: __RNvXsg_NtNtCse1nGBsou5OW_5alloc3vec9into_iterINtB5_8IntoIterTNtNtCs6IAuOt8vWmF_3syn8generics13CapturedParamNtNtB11_5token5CommaEENtNtB7_16in_place_collect13AsVecIntoIter12as_into_iterCs3yqPx1X2sxh_15zerofrom_derive, symObjAddr: 0xA428, symBinAddr: 0x13088, symSize: 0x14 }
  - { offset: 0x4282F, size: 0x8, addend: 0x0, symName: __RNvXsg_NtNtCse1nGBsou5OW_5alloc3vec9into_iterINtB5_8IntoIterTNtNtCs6IAuOt8vWmF_3syn8generics14TypeParamBoundNtNtB11_5token4PlusEENtNtB7_16in_place_collect13AsVecIntoIter12as_into_iterCs3yqPx1X2sxh_15zerofrom_derive, symObjAddr: 0xA43C, symBinAddr: 0x1309C, symSize: 0x14 }
  - { offset: 0x42866, size: 0x8, addend: 0x0, symName: __RNvXsg_NtNtCse1nGBsou5OW_5alloc3vec9into_iterINtB5_8IntoIterTNtNtCs6IAuOt8vWmF_3syn8generics14WherePredicateNtNtB11_5token5CommaEENtNtB7_16in_place_collect13AsVecIntoIter12as_into_iterCs3yqPx1X2sxh_15zerofrom_derive, symObjAddr: 0xA450, symBinAddr: 0x130B0, symSize: 0x14 }
  - { offset: 0x4289D, size: 0x8, addend: 0x0, symName: __RNvXsg_NtNtCse1nGBsou5OW_5alloc3vec9into_iterINtB5_8IntoIterTNtNtCs6IAuOt8vWmF_3syn8lifetime8LifetimeNtNtB11_5token4PlusEENtNtB7_16in_place_collect13AsVecIntoIter12as_into_iterCs3yqPx1X2sxh_15zerofrom_derive, symObjAddr: 0xA464, symBinAddr: 0x130C4, symSize: 0x14 }
  - { offset: 0x477A4, size: 0x8, addend: 0x0, symName: __RNvMs_NtNtCse1nGBsou5OW_5alloc3vec9into_iterINtB4_8IntoIterNtNtCs6IAuOt8vWmF_3syn4attr9AttributeE32forget_allocation_drop_remainingCs3yqPx1X2sxh_15zerofrom_derive, symObjAddr: 0x6C74, symBinAddr: 0xF8D4, symSize: 0xAC }
  - { offset: 0x479D7, size: 0x8, addend: 0x0, symName: __RNvMs_NtNtCse1nGBsou5OW_5alloc3vec9into_iterINtB4_8IntoIterNtNtCs6IAuOt8vWmF_3syn4expr3ArmE32forget_allocation_drop_remainingCs3yqPx1X2sxh_15zerofrom_derive, symObjAddr: 0x6D20, symBinAddr: 0xF980, symSize: 0xAC }
  - { offset: 0x47C0A, size: 0x8, addend: 0x0, symName: __RNvMs_NtNtCse1nGBsou5OW_5alloc3vec9into_iterINtB4_8IntoIterNtNtCs6IAuOt8vWmF_3syn4item11ForeignItemE32forget_allocation_drop_remainingCs3yqPx1X2sxh_15zerofrom_derive, symObjAddr: 0x6DCC, symBinAddr: 0xFA2C, symSize: 0xAC }
  - { offset: 0x47E3D, size: 0x8, addend: 0x0, symName: __RNvMs_NtNtCse1nGBsou5OW_5alloc3vec9into_iterINtB4_8IntoIterNtNtCs6IAuOt8vWmF_3syn4item4ItemE32forget_allocation_drop_remainingCs3yqPx1X2sxh_15zerofrom_derive, symObjAddr: 0x6E78, symBinAddr: 0xFAD8, symSize: 0xAC }
  - { offset: 0x48070, size: 0x8, addend: 0x0, symName: __RNvMs_NtNtCse1nGBsou5OW_5alloc3vec9into_iterINtB4_8IntoIterNtNtCs6IAuOt8vWmF_3syn4item8ImplItemE32forget_allocation_drop_remainingCs3yqPx1X2sxh_15zerofrom_derive, symObjAddr: 0x6F24, symBinAddr: 0xFB84, symSize: 0xAC }
  - { offset: 0x482A3, size: 0x8, addend: 0x0, symName: __RNvMs_NtNtCse1nGBsou5OW_5alloc3vec9into_iterINtB4_8IntoIterNtNtCs6IAuOt8vWmF_3syn4item9TraitItemE32forget_allocation_drop_remainingCs3yqPx1X2sxh_15zerofrom_derive, symObjAddr: 0x6FD0, symBinAddr: 0xFC30, symSize: 0xAC }
  - { offset: 0x484D6, size: 0x8, addend: 0x0, symName: __RNvMs_NtNtCse1nGBsou5OW_5alloc3vec9into_iterINtB4_8IntoIterNtNtCs6IAuOt8vWmF_3syn4stmt4StmtE32forget_allocation_drop_remainingCs3yqPx1X2sxh_15zerofrom_derive, symObjAddr: 0x707C, symBinAddr: 0xFCDC, symSize: 0xAC }
  - { offset: 0x48709, size: 0x8, addend: 0x0, symName: __RNvMs_NtNtCse1nGBsou5OW_5alloc3vec9into_iterINtB4_8IntoIterTNtNtCs6IAuOt8vWmF_3syn2ty4TypeNtNtB10_5token5CommaEE32forget_allocation_drop_remainingCs3yqPx1X2sxh_15zerofrom_derive, symObjAddr: 0x7128, symBinAddr: 0xFD88, symSize: 0xAC }
  - { offset: 0x4893C, size: 0x8, addend: 0x0, symName: __RNvMs_NtNtCse1nGBsou5OW_5alloc3vec9into_iterINtB4_8IntoIterTNtNtCs6IAuOt8vWmF_3syn2ty9BareFnArgNtNtB10_5token5CommaEE32forget_allocation_drop_remainingCs3yqPx1X2sxh_15zerofrom_derive, symObjAddr: 0x71D4, symBinAddr: 0xFE34, symSize: 0xAC }
  - { offset: 0x48B6F, size: 0x8, addend: 0x0, symName: __RNvMs_NtNtCse1nGBsou5OW_5alloc3vec9into_iterINtB4_8IntoIterTNtNtCs6IAuOt8vWmF_3syn3pat3PatNtNtB10_5token2OrEE32forget_allocation_drop_remainingCs3yqPx1X2sxh_15zerofrom_derive, symObjAddr: 0x7280, symBinAddr: 0xFEE0, symSize: 0xAC }
  - { offset: 0x48DA2, size: 0x8, addend: 0x0, symName: __RNvMs_NtNtCse1nGBsou5OW_5alloc3vec9into_iterINtB4_8IntoIterTNtNtCs6IAuOt8vWmF_3syn3pat3PatNtNtB10_5token5CommaEE32forget_allocation_drop_remainingCs3yqPx1X2sxh_15zerofrom_derive, symObjAddr: 0x732C, symBinAddr: 0xFF8C, symSize: 0xAC }
  - { offset: 0x48FD5, size: 0x8, addend: 0x0, symName: __RNvMs_NtNtCse1nGBsou5OW_5alloc3vec9into_iterINtB4_8IntoIterTNtNtCs6IAuOt8vWmF_3syn3pat8FieldPatNtNtB10_5token5CommaEE32forget_allocation_drop_remainingCs3yqPx1X2sxh_15zerofrom_derive, symObjAddr: 0x73D8, symBinAddr: 0x10038, symSize: 0xAC }
  - { offset: 0x49208, size: 0x8, addend: 0x0, symName: __RNvMs_NtNtCse1nGBsou5OW_5alloc3vec9into_iterINtB4_8IntoIterTNtNtCs6IAuOt8vWmF_3syn4data5FieldNtNtB10_5token5CommaEE32forget_allocation_drop_remainingCs3yqPx1X2sxh_15zerofrom_derive, symObjAddr: 0x7484, symBinAddr: 0x100E4, symSize: 0xAC }
  - { offset: 0x4943B, size: 0x8, addend: 0x0, symName: __RNvMs_NtNtCse1nGBsou5OW_5alloc3vec9into_iterINtB4_8IntoIterTNtNtCs6IAuOt8vWmF_3syn4data7VariantNtNtB10_5token5CommaEE32forget_allocation_drop_remainingCs3yqPx1X2sxh_15zerofrom_derive, symObjAddr: 0x7530, symBinAddr: 0x10190, symSize: 0xAC }
  - { offset: 0x4966E, size: 0x8, addend: 0x0, symName: __RNvMs_NtNtCse1nGBsou5OW_5alloc3vec9into_iterINtB4_8IntoIterTNtNtCs6IAuOt8vWmF_3syn4expr10FieldValueNtNtB10_5token5CommaEE32forget_allocation_drop_remainingCs3yqPx1X2sxh_15zerofrom_derive, symObjAddr: 0x75DC, symBinAddr: 0x1023C, symSize: 0xAC }
  - { offset: 0x498A1, size: 0x8, addend: 0x0, symName: __RNvMs_NtNtCse1nGBsou5OW_5alloc3vec9into_iterINtB4_8IntoIterTNtNtCs6IAuOt8vWmF_3syn4expr4ExprNtNtB10_5token5CommaEE32forget_allocation_drop_remainingCs3yqPx1X2sxh_15zerofrom_derive, symObjAddr: 0x7688, symBinAddr: 0x102E8, symSize: 0xAC }
  - { offset: 0x49AD4, size: 0x8, addend: 0x0, symName: __RNvMs_NtNtCse1nGBsou5OW_5alloc3vec9into_iterINtB4_8IntoIterTNtNtCs6IAuOt8vWmF_3syn4item5FnArgNtNtB10_5token5CommaEE32forget_allocation_drop_remainingCs3yqPx1X2sxh_15zerofrom_derive, symObjAddr: 0x7734, symBinAddr: 0x10394, symSize: 0xAC }
  - { offset: 0x49D07, size: 0x8, addend: 0x0, symName: __RNvMs_NtNtCse1nGBsou5OW_5alloc3vec9into_iterINtB4_8IntoIterTNtNtCs6IAuOt8vWmF_3syn4item7UseTreeNtNtB10_5token5CommaEE32forget_allocation_drop_remainingCs3yqPx1X2sxh_15zerofrom_derive, symObjAddr: 0x77E0, symBinAddr: 0x10440, symSize: 0xAC }
  - { offset: 0x49F3A, size: 0x8, addend: 0x0, symName: __RNvMs_NtNtCse1nGBsou5OW_5alloc3vec9into_iterINtB4_8IntoIterTNtNtCs6IAuOt8vWmF_3syn4path11PathSegmentNtNtB10_5token7PathSepEE32forget_allocation_drop_remainingCs3yqPx1X2sxh_15zerofrom_derive, symObjAddr: 0x788C, symBinAddr: 0x104EC, symSize: 0xAC }
  - { offset: 0x4A16D, size: 0x8, addend: 0x0, symName: __RNvMs_NtNtCse1nGBsou5OW_5alloc3vec9into_iterINtB4_8IntoIterTNtNtCs6IAuOt8vWmF_3syn4path15GenericArgumentNtNtB10_5token5CommaEE32forget_allocation_drop_remainingCs3yqPx1X2sxh_15zerofrom_derive, symObjAddr: 0x7938, symBinAddr: 0x10598, symSize: 0xAC }
  - { offset: 0x4A3A0, size: 0x8, addend: 0x0, symName: __RNvMs_NtNtCse1nGBsou5OW_5alloc3vec9into_iterINtB4_8IntoIterTNtNtCs6IAuOt8vWmF_3syn8generics12GenericParamNtNtB10_5token5CommaEE32forget_allocation_drop_remainingCs3yqPx1X2sxh_15zerofrom_derive, symObjAddr: 0x79E4, symBinAddr: 0x10644, symSize: 0xAC }
  - { offset: 0x4A5D3, size: 0x8, addend: 0x0, symName: __RNvMs_NtNtCse1nGBsou5OW_5alloc3vec9into_iterINtB4_8IntoIterTNtNtCs6IAuOt8vWmF_3syn8generics13CapturedParamNtNtB10_5token5CommaEE32forget_allocation_drop_remainingCs3yqPx1X2sxh_15zerofrom_derive, symObjAddr: 0x7A90, symBinAddr: 0x106F0, symSize: 0xAC }
  - { offset: 0x4A806, size: 0x8, addend: 0x0, symName: __RNvMs_NtNtCse1nGBsou5OW_5alloc3vec9into_iterINtB4_8IntoIterTNtNtCs6IAuOt8vWmF_3syn8generics14TypeParamBoundNtNtB10_5token4PlusEE32forget_allocation_drop_remainingCs3yqPx1X2sxh_15zerofrom_derive, symObjAddr: 0x7B3C, symBinAddr: 0x1079C, symSize: 0xAC }
  - { offset: 0x4AA39, size: 0x8, addend: 0x0, symName: __RNvMs_NtNtCse1nGBsou5OW_5alloc3vec9into_iterINtB4_8IntoIterTNtNtCs6IAuOt8vWmF_3syn8generics14WherePredicateNtNtB10_5token5CommaEE32forget_allocation_drop_remainingCs3yqPx1X2sxh_15zerofrom_derive, symObjAddr: 0x7BE8, symBinAddr: 0x10848, symSize: 0xAC }
  - { offset: 0x4AC6C, size: 0x8, addend: 0x0, symName: __RNvMs_NtNtCse1nGBsou5OW_5alloc3vec9into_iterINtB4_8IntoIterTNtNtCs6IAuOt8vWmF_3syn8lifetime8LifetimeNtNtB10_5token4PlusEE32forget_allocation_drop_remainingCs3yqPx1X2sxh_15zerofrom_derive, symObjAddr: 0x7C94, symBinAddr: 0x108F4, symSize: 0xAC }
  - { offset: 0x4C6DC, size: 0x8, addend: 0x0, symName: __RINvNtNtCs6IAuOt8vWmF_3syn3gen4fold10fold_blockNtNvCs3yqPx1X2sxh_15zerofrom_derive16replace_lifetime15ReplaceLifetimeEBN_, symObjAddr: 0x0, symBinAddr: 0x146C4, symSize: 0x90 }
  - { offset: 0x4D033, size: 0x8, addend: 0x0, symName: __RINvNtNtCs6IAuOt8vWmF_3syn3gen4fold10fold_blockNtNvCs3yqPx1X2sxh_15zerofrom_derive16replace_lifetime15ReplaceLifetimeEBN_, symObjAddr: 0x0, symBinAddr: 0x146C4, symSize: 0x90 }
  - { offset: 0x4D07A, size: 0x8, addend: 0x0, symName: __RINvNtNtCs6IAuOt8vWmF_3syn3gen4fold10fold_blockNtNvCs3yqPx1X2sxh_15zerofrom_derive25replace_lifetime_and_type20ReplaceLifetimeAndTyEBN_, symObjAddr: 0x90, symBinAddr: 0x14754, symSize: 0x90 }
  - { offset: 0x4D0C1, size: 0x8, addend: 0x0, symName: __RINvNtNtCs6IAuOt8vWmF_3syn3gen4fold10fold_fieldNtNvCs3yqPx1X2sxh_15zerofrom_derive16replace_lifetime15ReplaceLifetimeEBN_, symObjAddr: 0x120, symBinAddr: 0x147E4, symSize: 0x22C }
  - { offset: 0x4D108, size: 0x8, addend: 0x0, symName: __RINvNtNtCs6IAuOt8vWmF_3syn3gen4fold10fold_fieldNtNvCs3yqPx1X2sxh_15zerofrom_derive25replace_lifetime_and_type20ReplaceLifetimeAndTyEBN_, symObjAddr: 0x34C, symBinAddr: 0x14A10, symSize: 0x22C }
  - { offset: 0x4D14F, size: 0x8, addend: 0x0, symName: __RINvNtNtCs6IAuOt8vWmF_3syn3gen4fold10fold_identNtNvCs3yqPx1X2sxh_15zerofrom_derive16replace_lifetime15ReplaceLifetimeEBN_, symObjAddr: 0x578, symBinAddr: 0x14C3C, symSize: 0xB8 }
  - { offset: 0x4D1CA, size: 0x8, addend: 0x0, symName: __RINvNtNtCs6IAuOt8vWmF_3syn3gen4fold10fold_identNtNvCs3yqPx1X2sxh_15zerofrom_derive25replace_lifetime_and_type20ReplaceLifetimeAndTyEBN_, symObjAddr: 0x630, symBinAddr: 0x14CF4, symSize: 0xB8 }
  - { offset: 0x4D245, size: 0x8, addend: 0x0, symName: __RINvNtNtCs6IAuOt8vWmF_3syn3gen4fold10fold_indexNtNvCs3yqPx1X2sxh_15zerofrom_derive16replace_lifetime15ReplaceLifetimeEBN_, symObjAddr: 0x6E8, symBinAddr: 0x14DAC, symSize: 0x50 }
  - { offset: 0x4D28B, size: 0x8, addend: 0x0, symName: __RINvNtNtCs6IAuOt8vWmF_3syn3gen4fold10fold_indexNtNvCs3yqPx1X2sxh_15zerofrom_derive25replace_lifetime_and_type20ReplaceLifetimeAndTyEBN_, symObjAddr: 0x738, symBinAddr: 0x14DFC, symSize: 0x50 }
  - { offset: 0x4D2D1, size: 0x8, addend: 0x0, symName: __RINvNtNtCs6IAuOt8vWmF_3syn3gen4fold10fold_labelNtNvCs3yqPx1X2sxh_15zerofrom_derive16replace_lifetime15ReplaceLifetimeEBN_, symObjAddr: 0x788, symBinAddr: 0x14E4C, symSize: 0x80 }
  - { offset: 0x4D318, size: 0x8, addend: 0x0, symName: __RINvNtNtCs6IAuOt8vWmF_3syn3gen4fold10fold_labelNtNvCs3yqPx1X2sxh_15zerofrom_derive25replace_lifetime_and_type20ReplaceLifetimeAndTyEBN_, symObjAddr: 0x808, symBinAddr: 0x14ECC, symSize: 0x80 }
  - { offset: 0x4D35F, size: 0x8, addend: 0x0, symName: __RINvNtNtCs6IAuOt8vWmF_3syn3gen4fold10fold_localNtNvCs3yqPx1X2sxh_15zerofrom_derive16replace_lifetime15ReplaceLifetimeEBN_, symObjAddr: 0x888, symBinAddr: 0x14F4C, symSize: 0x1D8 }
  - { offset: 0x4D3A6, size: 0x8, addend: 0x0, symName: __RINvNtNtCs6IAuOt8vWmF_3syn3gen4fold10fold_localNtNvCs3yqPx1X2sxh_15zerofrom_derive25replace_lifetime_and_type20ReplaceLifetimeAndTyEBN_, symObjAddr: 0xA60, symBinAddr: 0x15124, symSize: 0x1D8 }
  - { offset: 0x4D3ED, size: 0x8, addend: 0x0, symName: __RINvNtNtCs6IAuOt8vWmF_3syn3gen4fold10fold_macroNtNvCs3yqPx1X2sxh_15zerofrom_derive16replace_lifetime15ReplaceLifetimeEBN_, symObjAddr: 0xC38, symBinAddr: 0x152FC, symSize: 0x164 }
  - { offset: 0x4D434, size: 0x8, addend: 0x0, symName: __RINvNtNtCs6IAuOt8vWmF_3syn3gen4fold10fold_macroNtNvCs3yqPx1X2sxh_15zerofrom_derive25replace_lifetime_and_type20ReplaceLifetimeAndTyEBN_, symObjAddr: 0xD9C, symBinAddr: 0x15460, symSize: 0x164 }
  - { offset: 0x4D47B, size: 0x8, addend: 0x0, symName: __RINvNtNtCs6IAuOt8vWmF_3syn3gen4fold10fold_qselfNtNvCs3yqPx1X2sxh_15zerofrom_derive16replace_lifetime15ReplaceLifetimeEBN_, symObjAddr: 0xF00, symBinAddr: 0x155C4, symSize: 0x1CC }
  - { offset: 0x4D4E1, size: 0x8, addend: 0x0, symName: __RINvNtNtCs6IAuOt8vWmF_3syn3gen4fold10fold_qselfNtNvCs3yqPx1X2sxh_15zerofrom_derive25replace_lifetime_and_type20ReplaceLifetimeAndTyEBN_, symObjAddr: 0x10CC, symBinAddr: 0x15790, symSize: 0x1CC }
  - { offset: 0x4D547, size: 0x8, addend: 0x0, symName: __RINvNtNtCs6IAuOt8vWmF_3syn3gen4fold10fold_un_opNtNvCs3yqPx1X2sxh_15zerofrom_derive16replace_lifetime15ReplaceLifetimeEBN_, symObjAddr: 0x1298, symBinAddr: 0x1595C, symSize: 0xCC }
  - { offset: 0x4D5E7, size: 0x8, addend: 0x0, symName: __RINvNtNtCs6IAuOt8vWmF_3syn3gen4fold10fold_un_opNtNvCs3yqPx1X2sxh_15zerofrom_derive25replace_lifetime_and_type20ReplaceLifetimeAndTyEBN_, symObjAddr: 0x1364, symBinAddr: 0x15A28, symSize: 0xCC }
  - { offset: 0x4D687, size: 0x8, addend: 0x0, symName: __RINvNtNtCs6IAuOt8vWmF_3syn3gen4fold11fold_bin_opNtNvCs3yqPx1X2sxh_15zerofrom_derive16replace_lifetime15ReplaceLifetimeEBO_, symObjAddr: 0x1430, symBinAddr: 0x15AF4, symSize: 0x6B0 }
  - { offset: 0x4DA2D, size: 0x8, addend: 0x0, symName: __RINvNtNtCs6IAuOt8vWmF_3syn3gen4fold11fold_bin_opNtNvCs3yqPx1X2sxh_15zerofrom_derive25replace_lifetime_and_type20ReplaceLifetimeAndTyEBO_, symObjAddr: 0x1AE0, symBinAddr: 0x161A4, symSize: 0x6B0 }
  - { offset: 0x4DDD3, size: 0x8, addend: 0x0, symName: __RINvNtNtCs6IAuOt8vWmF_3syn3gen4fold11fold_fieldsNtNvCs3yqPx1X2sxh_15zerofrom_derive16replace_lifetime15ReplaceLifetimeEBO_, symObjAddr: 0x2190, symBinAddr: 0x16854, symSize: 0x14C }
  - { offset: 0x4DE58, size: 0x8, addend: 0x0, symName: __RINvNtNtCs6IAuOt8vWmF_3syn3gen4fold11fold_fieldsNtNvCs3yqPx1X2sxh_15zerofrom_derive25replace_lifetime_and_type20ReplaceLifetimeAndTyEBO_, symObjAddr: 0x22DC, symBinAddr: 0x169A0, symSize: 0x14C }
  - { offset: 0x4DEDD, size: 0x8, addend: 0x0, symName: __RINvNtNtCs6IAuOt8vWmF_3syn3gen4fold11fold_fn_argNtNvCs3yqPx1X2sxh_15zerofrom_derive16replace_lifetime15ReplaceLifetimeEBO_, symObjAddr: 0x2428, symBinAddr: 0x16AEC, symSize: 0x10C }
  - { offset: 0x4DF5A, size: 0x8, addend: 0x0, symName: __RINvNtNtCs6IAuOt8vWmF_3syn3gen4fold11fold_fn_argNtNvCs3yqPx1X2sxh_15zerofrom_derive25replace_lifetime_and_type20ReplaceLifetimeAndTyEBO_, symObjAddr: 0x2534, symBinAddr: 0x16BF8, symSize: 0x10C }
  - { offset: 0x4DFD7, size: 0x8, addend: 0x0, symName: __RINvNtNtCs6IAuOt8vWmF_3syn3gen4fold11fold_memberNtNvCs3yqPx1X2sxh_15zerofrom_derive16replace_lifetime15ReplaceLifetimeEBO_, symObjAddr: 0x2640, symBinAddr: 0x16D04, symSize: 0xD4 }
  - { offset: 0x4E052, size: 0x8, addend: 0x0, symName: __RINvNtNtCs6IAuOt8vWmF_3syn3gen4fold11fold_memberNtNvCs3yqPx1X2sxh_15zerofrom_derive25replace_lifetime_and_type20ReplaceLifetimeAndTyEBO_, symObjAddr: 0x2714, symBinAddr: 0x16DD8, symSize: 0xD4 }
  - { offset: 0x4E0CD, size: 0x8, addend: 0x0, symName: __RINvNtNtCs6IAuOt8vWmF_3syn3gen4fold11fold_pat_orNtNvCs3yqPx1X2sxh_15zerofrom_derive16replace_lifetime15ReplaceLifetimeEBO_, symObjAddr: 0x27E8, symBinAddr: 0x16EAC, symSize: 0x120 }
  - { offset: 0x4E114, size: 0x8, addend: 0x0, symName: __RINvNtNtCs6IAuOt8vWmF_3syn3gen4fold11fold_pat_orNtNvCs3yqPx1X2sxh_15zerofrom_derive25replace_lifetime_and_type20ReplaceLifetimeAndTyEBO_, symObjAddr: 0x2908, symBinAddr: 0x16FCC, symSize: 0x120 }
  - { offset: 0x4E15B, size: 0x8, addend: 0x0, symName: __RINvNtNtCs6IAuOt8vWmF_3syn3gen4fold12fold_expr_ifNtNvCs3yqPx1X2sxh_15zerofrom_derive16replace_lifetime15ReplaceLifetimeEBP_, symObjAddr: 0x2A28, symBinAddr: 0x170EC, symSize: 0x310 }
  - { offset: 0x4E1C1, size: 0x8, addend: 0x0, symName: __RINvNtNtCs6IAuOt8vWmF_3syn3gen4fold12fold_expr_ifNtNvCs3yqPx1X2sxh_15zerofrom_derive25replace_lifetime_and_type20ReplaceLifetimeAndTyEBP_, symObjAddr: 0x2D38, symBinAddr: 0x173FC, symSize: 0x310 }
  - { offset: 0x4E227, size: 0x8, addend: 0x0, symName: __RINvNtNtCs6IAuOt8vWmF_3syn3gen4fold12fold_item_fnNtNvCs3yqPx1X2sxh_15zerofrom_derive16replace_lifetime15ReplaceLifetimeEBP_, symObjAddr: 0x3048, symBinAddr: 0x1770C, symSize: 0x2FC }
  - { offset: 0x4E28D, size: 0x8, addend: 0x0, symName: __RINvNtNtCs6IAuOt8vWmF_3syn3gen4fold12fold_item_fnNtNvCs3yqPx1X2sxh_15zerofrom_derive25replace_lifetime_and_type20ReplaceLifetimeAndTyEBP_, symObjAddr: 0x3344, symBinAddr: 0x17A08, symSize: 0x2FC }
  - { offset: 0x4E2F3, size: 0x8, addend: 0x0, symName: __RINvNtNtCs6IAuOt8vWmF_3syn3gen4fold12fold_lit_intNtNvCs3yqPx1X2sxh_15zerofrom_derive16replace_lifetime15ReplaceLifetimeEBP_, symObjAddr: 0x3640, symBinAddr: 0x17D04, symSize: 0xDC }
  - { offset: 0x4E36D, size: 0x8, addend: 0x0, symName: __RINvNtNtCs6IAuOt8vWmF_3syn3gen4fold12fold_lit_intNtNvCs3yqPx1X2sxh_15zerofrom_derive25replace_lifetime_and_type20ReplaceLifetimeAndTyEBP_, symObjAddr: 0x371C, symBinAddr: 0x17DE0, symSize: 0xDC }
  - { offset: 0x4E3E7, size: 0x8, addend: 0x0, symName: __RINvNtNtCs6IAuOt8vWmF_3syn3gen4fold12fold_lit_strNtNvCs3yqPx1X2sxh_15zerofrom_derive16replace_lifetime15ReplaceLifetimeEBP_, symObjAddr: 0x37F8, symBinAddr: 0x17EBC, symSize: 0xDC }
  - { offset: 0x4E461, size: 0x8, addend: 0x0, symName: __RINvNtNtCs6IAuOt8vWmF_3syn3gen4fold12fold_lit_strNtNvCs3yqPx1X2sxh_15zerofrom_derive25replace_lifetime_and_type20ReplaceLifetimeAndTyEBP_, symObjAddr: 0x38D4, symBinAddr: 0x17F98, symSize: 0xDC }
  - { offset: 0x4E4DB, size: 0x8, addend: 0x0, symName: __RINvNtNtCs6IAuOt8vWmF_3syn3gen4fold12fold_variantNtNvCs3yqPx1X2sxh_15zerofrom_derive16replace_lifetime15ReplaceLifetimeEBP_, symObjAddr: 0x39B0, symBinAddr: 0x18074, symSize: 0x228 }
  - { offset: 0x4E522, size: 0x8, addend: 0x0, symName: __RINvNtNtCs6IAuOt8vWmF_3syn3gen4fold12fold_variantNtNvCs3yqPx1X2sxh_15zerofrom_derive25replace_lifetime_and_type20ReplaceLifetimeAndTyEBP_, symObjAddr: 0x3BD8, symBinAddr: 0x1829C, symSize: 0x228 }
  - { offset: 0x4E569, size: 0x8, addend: 0x0, symName: __RINvNtNtCs6IAuOt8vWmF_3syn3gen4fold13fold_expr_letNtNvCs3yqPx1X2sxh_15zerofrom_derive16replace_lifetime15ReplaceLifetimeEBQ_, symObjAddr: 0x3E00, symBinAddr: 0x184C4, symSize: 0x3A8 }
  - { offset: 0x4E5EF, size: 0x8, addend: 0x0, symName: __RINvNtNtCs6IAuOt8vWmF_3syn3gen4fold13fold_expr_letNtNvCs3yqPx1X2sxh_15zerofrom_derive25replace_lifetime_and_type20ReplaceLifetimeAndTyEBQ_, symObjAddr: 0x41A8, symBinAddr: 0x1886C, symSize: 0x3A8 }
  - { offset: 0x4E675, size: 0x8, addend: 0x0, symName: __RINvNtNtCs6IAuOt8vWmF_3syn3gen4fold13fold_expr_litNtNvCs3yqPx1X2sxh_15zerofrom_derive16replace_lifetime15ReplaceLifetimeEBQ_, symObjAddr: 0x4550, symBinAddr: 0x18C14, symSize: 0x110 }
  - { offset: 0x4E6BC, size: 0x8, addend: 0x0, symName: __RINvNtNtCs6IAuOt8vWmF_3syn3gen4fold13fold_expr_litNtNvCs3yqPx1X2sxh_15zerofrom_derive25replace_lifetime_and_type20ReplaceLifetimeAndTyEBQ_, symObjAddr: 0x4660, symBinAddr: 0x18D24, symSize: 0x110 }
  - { offset: 0x4E703, size: 0x8, addend: 0x0, symName: __RINvNtNtCs6IAuOt8vWmF_3syn3gen4fold13fold_expr_tryNtNvCs3yqPx1X2sxh_15zerofrom_derive16replace_lifetime15ReplaceLifetimeEBQ_, symObjAddr: 0x4770, symBinAddr: 0x18E34, symSize: 0x208 }
  - { offset: 0x4E769, size: 0x8, addend: 0x0, symName: __RINvNtNtCs6IAuOt8vWmF_3syn3gen4fold13fold_expr_tryNtNvCs3yqPx1X2sxh_15zerofrom_derive25replace_lifetime_and_type20ReplaceLifetimeAndTyEBQ_, symObjAddr: 0x4978, symBinAddr: 0x1903C, symSize: 0x208 }
  - { offset: 0x4E7CF, size: 0x8, addend: 0x0, symName: __RINvNtNtCs6IAuOt8vWmF_3syn3gen4fold13fold_genericsNtNvCs3yqPx1X2sxh_15zerofrom_derive16replace_lifetime15ReplaceLifetimeEBQ_, symObjAddr: 0x4B80, symBinAddr: 0x19244, symSize: 0x148 }
  - { offset: 0x4E816, size: 0x8, addend: 0x0, symName: __RINvNtNtCs6IAuOt8vWmF_3syn3gen4fold13fold_genericsNtNvCs3yqPx1X2sxh_15zerofrom_derive25replace_lifetime_and_type20ReplaceLifetimeAndTyEBQ_, symObjAddr: 0x4CC8, symBinAddr: 0x1938C, symSize: 0x148 }
  - { offset: 0x4E85D, size: 0x8, addend: 0x0, symName: __RINvNtNtCs6IAuOt8vWmF_3syn3gen4fold13fold_item_modNtNvCs3yqPx1X2sxh_15zerofrom_derive16replace_lifetime15ReplaceLifetimeEBQ_, symObjAddr: 0x4E10, symBinAddr: 0x194D4, symSize: 0x264 }
  - { offset: 0x4E8A4, size: 0x8, addend: 0x0, symName: __RINvNtNtCs6IAuOt8vWmF_3syn3gen4fold13fold_item_modNtNvCs3yqPx1X2sxh_15zerofrom_derive25replace_lifetime_and_type20ReplaceLifetimeAndTyEBQ_, symObjAddr: 0x5074, symBinAddr: 0x19738, symSize: 0x264 }
  - { offset: 0x4E8EB, size: 0x8, addend: 0x0, symName: __RINvNtNtCs6IAuOt8vWmF_3syn3gen4fold13fold_item_useNtNvCs3yqPx1X2sxh_15zerofrom_derive16replace_lifetime15ReplaceLifetimeEBQ_, symObjAddr: 0x52D8, symBinAddr: 0x1999C, symSize: 0x1E8 }
  - { offset: 0x4E932, size: 0x8, addend: 0x0, symName: __RINvNtNtCs6IAuOt8vWmF_3syn3gen4fold13fold_item_useNtNvCs3yqPx1X2sxh_15zerofrom_derive25replace_lifetime_and_type20ReplaceLifetimeAndTyEBQ_, symObjAddr: 0x54C0, symBinAddr: 0x19B84, symSize: 0x1E8 }
  - { offset: 0x4E979, size: 0x8, addend: 0x0, symName: __RINvNtNtCs6IAuOt8vWmF_3syn3gen4fold13fold_lit_boolNtNvCs3yqPx1X2sxh_15zerofrom_derive16replace_lifetime15ReplaceLifetimeEBQ_, symObjAddr: 0x56A8, symBinAddr: 0x19D6C, symSize: 0x44 }
  - { offset: 0x4E9BF, size: 0x8, addend: 0x0, symName: __RINvNtNtCs6IAuOt8vWmF_3syn3gen4fold13fold_lit_boolNtNvCs3yqPx1X2sxh_15zerofrom_derive25replace_lifetime_and_type20ReplaceLifetimeAndTyEBQ_, symObjAddr: 0x56EC, symBinAddr: 0x19DB0, symSize: 0x44 }
  - { offset: 0x4EA05, size: 0x8, addend: 0x0, symName: __RINvNtNtCs6IAuOt8vWmF_3syn3gen4fold13fold_lit_byteNtNvCs3yqPx1X2sxh_15zerofrom_derive16replace_lifetime15ReplaceLifetimeEBQ_, symObjAddr: 0x5730, symBinAddr: 0x19DF4, symSize: 0xDC }
  - { offset: 0x4EA7F, size: 0x8, addend: 0x0, symName: __RINvNtNtCs6IAuOt8vWmF_3syn3gen4fold13fold_lit_byteNtNvCs3yqPx1X2sxh_15zerofrom_derive25replace_lifetime_and_type20ReplaceLifetimeAndTyEBQ_, symObjAddr: 0x580C, symBinAddr: 0x19ED0, symSize: 0xDC }
  - { offset: 0x4EAF9, size: 0x8, addend: 0x0, symName: __RINvNtNtCs6IAuOt8vWmF_3syn3gen4fold13fold_lit_charNtNvCs3yqPx1X2sxh_15zerofrom_derive16replace_lifetime15ReplaceLifetimeEBQ_, symObjAddr: 0x58E8, symBinAddr: 0x19FAC, symSize: 0xDC }
  - { offset: 0x4EB73, size: 0x8, addend: 0x0, symName: __RINvNtNtCs6IAuOt8vWmF_3syn3gen4fold13fold_lit_charNtNvCs3yqPx1X2sxh_15zerofrom_derive25replace_lifetime_and_type20ReplaceLifetimeAndTyEBQ_, symObjAddr: 0x59C4, symBinAddr: 0x1A088, symSize: 0xDC }
  - { offset: 0x4EBED, size: 0x8, addend: 0x0, symName: __RINvNtNtCs6IAuOt8vWmF_3syn3gen4fold13fold_lit_cstrNtNvCs3yqPx1X2sxh_15zerofrom_derive16replace_lifetime15ReplaceLifetimeEBQ_, symObjAddr: 0x5AA0, symBinAddr: 0x1A164, symSize: 0xDC }
  - { offset: 0x4EC67, size: 0x8, addend: 0x0, symName: __RINvNtNtCs6IAuOt8vWmF_3syn3gen4fold13fold_lit_cstrNtNvCs3yqPx1X2sxh_15zerofrom_derive25replace_lifetime_and_type20ReplaceLifetimeAndTyEBQ_, symObjAddr: 0x5B7C, symBinAddr: 0x1A240, symSize: 0xDC }
  - { offset: 0x4ECE1, size: 0x8, addend: 0x0, symName: __RINvNtNtCs6IAuOt8vWmF_3syn3gen4fold13fold_pat_restNtNvCs3yqPx1X2sxh_15zerofrom_derive16replace_lifetime15ReplaceLifetimeEBQ_, symObjAddr: 0x5C58, symBinAddr: 0x1A31C, symSize: 0x80 }
  - { offset: 0x4ED28, size: 0x8, addend: 0x0, symName: __RINvNtNtCs6IAuOt8vWmF_3syn3gen4fold13fold_pat_restNtNvCs3yqPx1X2sxh_15zerofrom_derive25replace_lifetime_and_type20ReplaceLifetimeAndTyEBQ_, symObjAddr: 0x5CD8, symBinAddr: 0x1A39C, symSize: 0x80 }
  - { offset: 0x4ED6F, size: 0x8, addend: 0x0, symName: __RINvNtNtCs6IAuOt8vWmF_3syn3gen4fold13fold_pat_typeNtNvCs3yqPx1X2sxh_15zerofrom_derive16replace_lifetime15ReplaceLifetimeEBQ_, symObjAddr: 0x5D58, symBinAddr: 0x1A41C, symSize: 0x39C }
  - { offset: 0x4EDF5, size: 0x8, addend: 0x0, symName: __RINvNtNtCs6IAuOt8vWmF_3syn3gen4fold13fold_pat_typeNtNvCs3yqPx1X2sxh_15zerofrom_derive25replace_lifetime_and_type20ReplaceLifetimeAndTyEBQ_, symObjAddr: 0x60F4, symBinAddr: 0x1A7B8, symSize: 0x39C }
  - { offset: 0x4EE7B, size: 0x8, addend: 0x0, symName: __RINvNtNtCs6IAuOt8vWmF_3syn3gen4fold13fold_pat_wildNtNvCs3yqPx1X2sxh_15zerofrom_derive16replace_lifetime15ReplaceLifetimeEBQ_, symObjAddr: 0x6490, symBinAddr: 0x1AB54, symSize: 0x80 }
  - { offset: 0x4EEC2, size: 0x8, addend: 0x0, symName: __RINvNtNtCs6IAuOt8vWmF_3syn3gen4fold13fold_pat_wildNtNvCs3yqPx1X2sxh_15zerofrom_derive25replace_lifetime_and_type20ReplaceLifetimeAndTyEBQ_, symObjAddr: 0x6510, symBinAddr: 0x1ABD4, symSize: 0x80 }
  - { offset: 0x4EF09, size: 0x8, addend: 0x0, symName: __RINvNtNtCs6IAuOt8vWmF_3syn3gen4fold13fold_receiverNtNvCs3yqPx1X2sxh_15zerofrom_derive16replace_lifetime15ReplaceLifetimeEBQ_, symObjAddr: 0x6590, symBinAddr: 0x1AC54, symSize: 0x2C4 }
  - { offset: 0x4EF6F, size: 0x8, addend: 0x0, symName: __RINvNtNtCs6IAuOt8vWmF_3syn3gen4fold13fold_receiverNtNvCs3yqPx1X2sxh_15zerofrom_derive25replace_lifetime_and_type20ReplaceLifetimeAndTyEBQ_, symObjAddr: 0x6854, symBinAddr: 0x1AF18, symSize: 0x2C4 }
  - { offset: 0x4EFD5, size: 0x8, addend: 0x0, symName: __RINvNtNtCs6IAuOt8vWmF_3syn3gen4fold13fold_type_ptrNtNvCs3yqPx1X2sxh_15zerofrom_derive16replace_lifetime15ReplaceLifetimeEBQ_, symObjAddr: 0x6B18, symBinAddr: 0x1B1DC, symSize: 0x1E4 }
  - { offset: 0x4F03B, size: 0x8, addend: 0x0, symName: __RINvNtNtCs6IAuOt8vWmF_3syn3gen4fold13fold_type_ptrNtNvCs3yqPx1X2sxh_15zerofrom_derive25replace_lifetime_and_type20ReplaceLifetimeAndTyEBQ_, symObjAddr: 0x6CFC, symBinAddr: 0x1B3C0, symSize: 0x1E4 }
  - { offset: 0x4F0A1, size: 0x8, addend: 0x0, symName: __RINvNtNtCs6IAuOt8vWmF_3syn3gen4fold13fold_use_globNtNvCs3yqPx1X2sxh_15zerofrom_derive16replace_lifetime15ReplaceLifetimeEBQ_, symObjAddr: 0x6EE0, symBinAddr: 0x1B5A4, symSize: 0x40 }
  - { offset: 0x4F0E7, size: 0x8, addend: 0x0, symName: __RINvNtNtCs6IAuOt8vWmF_3syn3gen4fold13fold_use_globNtNvCs3yqPx1X2sxh_15zerofrom_derive25replace_lifetime_and_type20ReplaceLifetimeAndTyEBQ_, symObjAddr: 0x6F20, symBinAddr: 0x1B5E4, symSize: 0x40 }
  - { offset: 0x4F12D, size: 0x8, addend: 0x0, symName: __RINvNtNtCs6IAuOt8vWmF_3syn3gen4fold13fold_use_nameNtNvCs3yqPx1X2sxh_15zerofrom_derive16replace_lifetime15ReplaceLifetimeEBQ_, symObjAddr: 0x6F60, symBinAddr: 0x1B624, symSize: 0x68 }
  - { offset: 0x4F174, size: 0x8, addend: 0x0, symName: __RINvNtNtCs6IAuOt8vWmF_3syn3gen4fold13fold_use_nameNtNvCs3yqPx1X2sxh_15zerofrom_derive25replace_lifetime_and_type20ReplaceLifetimeAndTyEBQ_, symObjAddr: 0x6FC8, symBinAddr: 0x1B68C, symSize: 0x68 }
  - { offset: 0x4F1BB, size: 0x8, addend: 0x0, symName: __RINvNtNtCs6IAuOt8vWmF_3syn3gen4fold13fold_use_pathNtNvCs3yqPx1X2sxh_15zerofrom_derive16replace_lifetime15ReplaceLifetimeEBQ_, symObjAddr: 0x7030, symBinAddr: 0x1B6F4, symSize: 0x208 }
  - { offset: 0x4F221, size: 0x8, addend: 0x0, symName: __RINvNtNtCs6IAuOt8vWmF_3syn3gen4fold13fold_use_pathNtNvCs3yqPx1X2sxh_15zerofrom_derive25replace_lifetime_and_type20ReplaceLifetimeAndTyEBQ_, symObjAddr: 0x7238, symBinAddr: 0x1B8FC, symSize: 0x208 }
  - { offset: 0x4F287, size: 0x8, addend: 0x0, symName: __RINvNtNtCs6IAuOt8vWmF_3syn3gen4fold13fold_use_treeNtNvCs3yqPx1X2sxh_15zerofrom_derive16replace_lifetime15ReplaceLifetimeEBQ_, symObjAddr: 0x7440, symBinAddr: 0x1BB04, symSize: 0x260 }
  - { offset: 0x4F361, size: 0x8, addend: 0x0, symName: __RINvNtNtCs6IAuOt8vWmF_3syn3gen4fold13fold_use_treeNtNvCs3yqPx1X2sxh_15zerofrom_derive25replace_lifetime_and_type20ReplaceLifetimeAndTyEBQ_, symObjAddr: 0x76A0, symBinAddr: 0x1BD64, symSize: 0x260 }
  - { offset: 0x4F43B, size: 0x8, addend: 0x0, symName: __RINvNtNtCs6IAuOt8vWmF_3syn3gen4fold13fold_variadicNtNvCs3yqPx1X2sxh_15zerofrom_derive16replace_lifetime15ReplaceLifetimeEBQ_, symObjAddr: 0x7900, symBinAddr: 0x1BFC4, symSize: 0x134 }
  - { offset: 0x4F482, size: 0x8, addend: 0x0, symName: __RINvNtNtCs6IAuOt8vWmF_3syn3gen4fold13fold_variadicNtNvCs3yqPx1X2sxh_15zerofrom_derive25replace_lifetime_and_type20ReplaceLifetimeAndTyEBQ_, symObjAddr: 0x7A34, symBinAddr: 0x1C0F8, symSize: 0x134 }
  - { offset: 0x4F4C9, size: 0x8, addend: 0x0, symName: __RINvNtNtCs6IAuOt8vWmF_3syn3gen4fold14fold_attributeNtNvCs3yqPx1X2sxh_15zerofrom_derive16replace_lifetime15ReplaceLifetimeEBR_, symObjAddr: 0x7B68, symBinAddr: 0x1C22C, symSize: 0x14C }
  - { offset: 0x4F510, size: 0x8, addend: 0x0, symName: __RINvNtNtCs6IAuOt8vWmF_3syn3gen4fold14fold_attributeNtNvCs3yqPx1X2sxh_15zerofrom_derive25replace_lifetime_and_type20ReplaceLifetimeAndTyEBR_, symObjAddr: 0x7CB4, symBinAddr: 0x1C378, symSize: 0x14C }
  - { offset: 0x4F557, size: 0x8, addend: 0x0, symName: __RINvNtNtCs6IAuOt8vWmF_3syn3gen4fold14fold_expr_callNtNvCs3yqPx1X2sxh_15zerofrom_derive16replace_lifetime15ReplaceLifetimeEBR_, symObjAddr: 0x7E00, symBinAddr: 0x1C4C4, symSize: 0x2AC }
  - { offset: 0x4F5BD, size: 0x8, addend: 0x0, symName: __RINvNtNtCs6IAuOt8vWmF_3syn3gen4fold14fold_expr_callNtNvCs3yqPx1X2sxh_15zerofrom_derive25replace_lifetime_and_type20ReplaceLifetimeAndTyEBR_, symObjAddr: 0x80AC, symBinAddr: 0x1C770, symSize: 0x2AC }
  - { offset: 0x4F623, size: 0x8, addend: 0x0, symName: __RINvNtNtCs6IAuOt8vWmF_3syn3gen4fold14fold_expr_castNtNvCs3yqPx1X2sxh_15zerofrom_derive16replace_lifetime15ReplaceLifetimeEBR_, symObjAddr: 0x8358, symBinAddr: 0x1CA1C, symSize: 0x39C }
  - { offset: 0x4F6A9, size: 0x8, addend: 0x0, symName: __RINvNtNtCs6IAuOt8vWmF_3syn3gen4fold14fold_expr_castNtNvCs3yqPx1X2sxh_15zerofrom_derive25replace_lifetime_and_type20ReplaceLifetimeAndTyEBR_, symObjAddr: 0x86F4, symBinAddr: 0x1CDB8, symSize: 0x39C }
  - { offset: 0x4F72F, size: 0x8, addend: 0x0, symName: __RINvNtNtCs6IAuOt8vWmF_3syn3gen4fold14fold_expr_loopNtNvCs3yqPx1X2sxh_15zerofrom_derive16replace_lifetime15ReplaceLifetimeEBR_, symObjAddr: 0x8A90, symBinAddr: 0x1D154, symSize: 0x1C0 }
  - { offset: 0x4F776, size: 0x8, addend: 0x0, symName: __RINvNtNtCs6IAuOt8vWmF_3syn3gen4fold14fold_expr_loopNtNvCs3yqPx1X2sxh_15zerofrom_derive25replace_lifetime_and_type20ReplaceLifetimeAndTyEBR_, symObjAddr: 0x8C50, symBinAddr: 0x1D314, symSize: 0x1C0 }
  - { offset: 0x4F7BD, size: 0x8, addend: 0x0, symName: __RINvNtNtCs6IAuOt8vWmF_3syn3gen4fold14fold_expr_pathNtNvCs3yqPx1X2sxh_15zerofrom_derive16replace_lifetime15ReplaceLifetimeEBR_, symObjAddr: 0x8E10, symBinAddr: 0x1D4D4, symSize: 0x1A0 }
  - { offset: 0x4F804, size: 0x8, addend: 0x0, symName: __RINvNtNtCs6IAuOt8vWmF_3syn3gen4fold14fold_expr_pathNtNvCs3yqPx1X2sxh_15zerofrom_derive25replace_lifetime_and_type20ReplaceLifetimeAndTyEBR_, symObjAddr: 0x8FB0, symBinAddr: 0x1D674, symSize: 0x1A0 }
  - { offset: 0x4F84B, size: 0x8, addend: 0x0, symName: __RINvNtNtCs6IAuOt8vWmF_3syn3gen4fold14fold_field_patNtNvCs3yqPx1X2sxh_15zerofrom_derive16replace_lifetime15ReplaceLifetimeEBR_, symObjAddr: 0x9150, symBinAddr: 0x1D814, symSize: 0x284 }
  - { offset: 0x4F8B1, size: 0x8, addend: 0x0, symName: __RINvNtNtCs6IAuOt8vWmF_3syn3gen4fold14fold_field_patNtNvCs3yqPx1X2sxh_15zerofrom_derive25replace_lifetime_and_type20ReplaceLifetimeAndTyEBR_, symObjAddr: 0x93D4, symBinAddr: 0x1DA98, symSize: 0x284 }
  - { offset: 0x4F917, size: 0x8, addend: 0x0, symName: __RINvNtNtCs6IAuOt8vWmF_3syn3gen4fold14fold_impl_itemNtNvCs3yqPx1X2sxh_15zerofrom_derive16replace_lifetime15ReplaceLifetimeEBR_, symObjAddr: 0x9658, symBinAddr: 0x1DD1C, symSize: 0x284 }
  - { offset: 0x4F9F1, size: 0x8, addend: 0x0, symName: __RINvNtNtCs6IAuOt8vWmF_3syn3gen4fold14fold_impl_itemNtNvCs3yqPx1X2sxh_15zerofrom_derive25replace_lifetime_and_type20ReplaceLifetimeAndTyEBR_, symObjAddr: 0x98DC, symBinAddr: 0x1DFA0, symSize: 0x284 }
  - { offset: 0x4FACB, size: 0x8, addend: 0x0, symName: __RINvNtNtCs6IAuOt8vWmF_3syn3gen4fold14fold_item_enumNtNvCs3yqPx1X2sxh_15zerofrom_derive16replace_lifetime15ReplaceLifetimeEBR_, symObjAddr: 0x9B60, symBinAddr: 0x1E224, symSize: 0x2E0 }
  - { offset: 0x4FB12, size: 0x8, addend: 0x0, symName: __RINvNtNtCs6IAuOt8vWmF_3syn3gen4fold14fold_item_enumNtNvCs3yqPx1X2sxh_15zerofrom_derive25replace_lifetime_and_type20ReplaceLifetimeAndTyEBR_, symObjAddr: 0x9E40, symBinAddr: 0x1E504, symSize: 0x2E0 }
  - { offset: 0x4FB59, size: 0x8, addend: 0x0, symName: __RINvNtNtCs6IAuOt8vWmF_3syn3gen4fold14fold_item_implNtNvCs3yqPx1X2sxh_15zerofrom_derive16replace_lifetime15ReplaceLifetimeEBR_, symObjAddr: 0xA120, symBinAddr: 0x1E7E4, symSize: 0x408 }
  - { offset: 0x4FBBF, size: 0x8, addend: 0x0, symName: __RINvNtNtCs6IAuOt8vWmF_3syn3gen4fold14fold_item_implNtNvCs3yqPx1X2sxh_15zerofrom_derive25replace_lifetime_and_type20ReplaceLifetimeAndTyEBR_, symObjAddr: 0xA528, symBinAddr: 0x1EBEC, symSize: 0x408 }
  - { offset: 0x4FC25, size: 0x8, addend: 0x0, symName: __RINvNtNtCs6IAuOt8vWmF_3syn3gen4fold14fold_item_typeNtNvCs3yqPx1X2sxh_15zerofrom_derive16replace_lifetime15ReplaceLifetimeEBR_, symObjAddr: 0xA930, symBinAddr: 0x1EFF4, symSize: 0x3B0 }
  - { offset: 0x4FC8B, size: 0x8, addend: 0x0, symName: __RINvNtNtCs6IAuOt8vWmF_3syn3gen4fold14fold_item_typeNtNvCs3yqPx1X2sxh_15zerofrom_derive25replace_lifetime_and_type20ReplaceLifetimeAndTyEBR_, symObjAddr: 0xACE0, symBinAddr: 0x1F3A4, symSize: 0x3B0 }
  - { offset: 0x4FCF1, size: 0x8, addend: 0x0, symName: __RINvNtNtCs6IAuOt8vWmF_3syn3gen4fold14fold_lit_floatNtNvCs3yqPx1X2sxh_15zerofrom_derive16replace_lifetime15ReplaceLifetimeEBR_, symObjAddr: 0xB090, symBinAddr: 0x1F754, symSize: 0xDC }
  - { offset: 0x4FD6B, size: 0x8, addend: 0x0, symName: __RINvNtNtCs6IAuOt8vWmF_3syn3gen4fold14fold_lit_floatNtNvCs3yqPx1X2sxh_15zerofrom_derive25replace_lifetime_and_type20ReplaceLifetimeAndTyEBR_, symObjAddr: 0xB16C, symBinAddr: 0x1F830, symSize: 0xDC }
  - { offset: 0x4FDE5, size: 0x8, addend: 0x0, symName: __RINvNtNtCs6IAuOt8vWmF_3syn3gen4fold14fold_meta_listNtNvCs3yqPx1X2sxh_15zerofrom_derive16replace_lifetime15ReplaceLifetimeEBR_, symObjAddr: 0xB248, symBinAddr: 0x1F90C, symSize: 0x144 }
  - { offset: 0x4FE2C, size: 0x8, addend: 0x0, symName: __RINvNtNtCs6IAuOt8vWmF_3syn3gen4fold14fold_meta_listNtNvCs3yqPx1X2sxh_15zerofrom_derive25replace_lifetime_and_type20ReplaceLifetimeAndTyEBR_, symObjAddr: 0xB38C, symBinAddr: 0x1FA50, symSize: 0x144 }
  - { offset: 0x4FE73, size: 0x8, addend: 0x0, symName: __RINvNtNtCs6IAuOt8vWmF_3syn3gen4fold14fold_pat_identNtNvCs3yqPx1X2sxh_15zerofrom_derive16replace_lifetime15ReplaceLifetimeEBR_, symObjAddr: 0xB4D0, symBinAddr: 0x1FB94, symSize: 0x1BC }
  - { offset: 0x4FEBA, size: 0x8, addend: 0x0, symName: __RINvNtNtCs6IAuOt8vWmF_3syn3gen4fold14fold_pat_identNtNvCs3yqPx1X2sxh_15zerofrom_derive25replace_lifetime_and_type20ReplaceLifetimeAndTyEBR_, symObjAddr: 0xB68C, symBinAddr: 0x1FD50, symSize: 0x1BC }
  - { offset: 0x4FF01, size: 0x8, addend: 0x0, symName: __RINvNtNtCs6IAuOt8vWmF_3syn3gen4fold14fold_pat_parenNtNvCs3yqPx1X2sxh_15zerofrom_derive16replace_lifetime15ReplaceLifetimeEBR_, symObjAddr: 0xB848, symBinAddr: 0x1FF0C, symSize: 0x218 }
  - { offset: 0x4FF67, size: 0x8, addend: 0x0, symName: __RINvNtNtCs6IAuOt8vWmF_3syn3gen4fold14fold_pat_parenNtNvCs3yqPx1X2sxh_15zerofrom_derive25replace_lifetime_and_type20ReplaceLifetimeAndTyEBR_, symObjAddr: 0xBA60, symBinAddr: 0x20124, symSize: 0x218 }
  - { offset: 0x4FFCD, size: 0x8, addend: 0x0, symName: __RINvNtNtCs6IAuOt8vWmF_3syn3gen4fold14fold_pat_sliceNtNvCs3yqPx1X2sxh_15zerofrom_derive16replace_lifetime15ReplaceLifetimeEBR_, symObjAddr: 0xBC78, symBinAddr: 0x2033C, symSize: 0x130 }
  - { offset: 0x50014, size: 0x8, addend: 0x0, symName: __RINvNtNtCs6IAuOt8vWmF_3syn3gen4fold14fold_pat_sliceNtNvCs3yqPx1X2sxh_15zerofrom_derive25replace_lifetime_and_type20ReplaceLifetimeAndTyEBR_, symObjAddr: 0xBDA8, symBinAddr: 0x2046C, symSize: 0x130 }
  - { offset: 0x5005B, size: 0x8, addend: 0x0, symName: __RINvNtNtCs6IAuOt8vWmF_3syn3gen4fold14fold_pat_tupleNtNvCs3yqPx1X2sxh_15zerofrom_derive16replace_lifetime15ReplaceLifetimeEBR_, symObjAddr: 0xBED8, symBinAddr: 0x2059C, symSize: 0x130 }
  - { offset: 0x500A2, size: 0x8, addend: 0x0, symName: __RINvNtNtCs6IAuOt8vWmF_3syn3gen4fold14fold_pat_tupleNtNvCs3yqPx1X2sxh_15zerofrom_derive25replace_lifetime_and_type20ReplaceLifetimeAndTyEBR_, symObjAddr: 0xC008, symBinAddr: 0x206CC, symSize: 0x130 }
  - { offset: 0x500E9, size: 0x8, addend: 0x0, symName: __RINvNtNtCs6IAuOt8vWmF_3syn3gen4fold14fold_signatureNtNvCs3yqPx1X2sxh_15zerofrom_derive16replace_lifetime15ReplaceLifetimeEBR_, symObjAddr: 0xC138, symBinAddr: 0x207FC, symSize: 0x3CC }
  - { offset: 0x50130, size: 0x8, addend: 0x0, symName: __RINvNtNtCs6IAuOt8vWmF_3syn3gen4fold14fold_signatureNtNvCs3yqPx1X2sxh_15zerofrom_derive25replace_lifetime_and_type20ReplaceLifetimeAndTyEBR_, symObjAddr: 0xC504, symBinAddr: 0x20BC8, symSize: 0x3CC }
  - { offset: 0x50177, size: 0x8, addend: 0x0, symName: __RINvNtNtCs6IAuOt8vWmF_3syn3gen4fold14fold_type_pathNtNvCs3yqPx1X2sxh_15zerofrom_derive16replace_lifetime15ReplaceLifetimeEBR_, symObjAddr: 0xC8D0, symBinAddr: 0x20F94, symSize: 0x114 }
  - { offset: 0x501BE, size: 0x8, addend: 0x0, symName: __RINvNtNtCs6IAuOt8vWmF_3syn3gen4fold14fold_type_pathNtNvCs3yqPx1X2sxh_15zerofrom_derive25replace_lifetime_and_type20ReplaceLifetimeAndTyEBR_, symObjAddr: 0xC9E4, symBinAddr: 0x210A8, symSize: 0x114 }
  - { offset: 0x50205, size: 0x8, addend: 0x0, symName: __RINvNtNtCs6IAuOt8vWmF_3syn3gen4fold14fold_use_groupNtNvCs3yqPx1X2sxh_15zerofrom_derive16replace_lifetime15ReplaceLifetimeEBR_, symObjAddr: 0xCAF8, symBinAddr: 0x211BC, symSize: 0x90 }
  - { offset: 0x5024C, size: 0x8, addend: 0x0, symName: __RINvNtNtCs6IAuOt8vWmF_3syn3gen4fold14fold_use_groupNtNvCs3yqPx1X2sxh_15zerofrom_derive25replace_lifetime_and_type20ReplaceLifetimeAndTyEBR_, symObjAddr: 0xCB88, symBinAddr: 0x2124C, symSize: 0x90 }
  - { offset: 0x50293, size: 0x8, addend: 0x0, symName: __RINvNtNtCs6IAuOt8vWmF_3syn3gen4fold15fold_assoc_typeNtNvCs3yqPx1X2sxh_15zerofrom_derive16replace_lifetime15ReplaceLifetimeEBS_, symObjAddr: 0xCC18, symBinAddr: 0x212DC, symSize: 0x1BC }
  - { offset: 0x502DA, size: 0x8, addend: 0x0, symName: __RINvNtNtCs6IAuOt8vWmF_3syn3gen4fold15fold_assoc_typeNtNvCs3yqPx1X2sxh_15zerofrom_derive25replace_lifetime_and_type20ReplaceLifetimeAndTyEBS_, symObjAddr: 0xCDD4, symBinAddr: 0x21498, symSize: 0x1BC }
  - { offset: 0x50321, size: 0x8, addend: 0x0, symName: __RINvNtNtCs6IAuOt8vWmF_3syn3gen4fold15fold_attr_styleNtNvCs3yqPx1X2sxh_15zerofrom_derive16replace_lifetime15ReplaceLifetimeEBS_, symObjAddr: 0xCF90, symBinAddr: 0x21654, symSize: 0x74 }
  - { offset: 0x50385, size: 0x8, addend: 0x0, symName: __RINvNtNtCs6IAuOt8vWmF_3syn3gen4fold15fold_attr_styleNtNvCs3yqPx1X2sxh_15zerofrom_derive25replace_lifetime_and_type20ReplaceLifetimeAndTyEBS_, symObjAddr: 0xD004, symBinAddr: 0x216C8, symSize: 0x74 }
  - { offset: 0x503E9, size: 0x8, addend: 0x0, symName: __RINvNtNtCs6IAuOt8vWmF_3syn3gen4fold15fold_constraintNtNvCs3yqPx1X2sxh_15zerofrom_derive16replace_lifetime15ReplaceLifetimeEBS_, symObjAddr: 0xD078, symBinAddr: 0x2173C, symSize: 0x1C0 }
  - { offset: 0x50430, size: 0x8, addend: 0x0, symName: __RINvNtNtCs6IAuOt8vWmF_3syn3gen4fold15fold_constraintNtNvCs3yqPx1X2sxh_15zerofrom_derive25replace_lifetime_and_type20ReplaceLifetimeAndTyEBS_, symObjAddr: 0xD238, symBinAddr: 0x218FC, symSize: 0x1C0 }
  - { offset: 0x50477, size: 0x8, addend: 0x0, symName: __RINvNtNtCs6IAuOt8vWmF_3syn3gen4fold15fold_expr_arrayNtNvCs3yqPx1X2sxh_15zerofrom_derive16replace_lifetime15ReplaceLifetimeEBS_, symObjAddr: 0xD3F8, symBinAddr: 0x21ABC, symSize: 0x130 }
  - { offset: 0x504BE, size: 0x8, addend: 0x0, symName: __RINvNtNtCs6IAuOt8vWmF_3syn3gen4fold15fold_expr_arrayNtNvCs3yqPx1X2sxh_15zerofrom_derive25replace_lifetime_and_type20ReplaceLifetimeAndTyEBS_, symObjAddr: 0xD528, symBinAddr: 0x21BEC, symSize: 0x130 }
  - { offset: 0x50505, size: 0x8, addend: 0x0, symName: __RINvNtNtCs6IAuOt8vWmF_3syn3gen4fold15fold_expr_asyncNtNvCs3yqPx1X2sxh_15zerofrom_derive16replace_lifetime15ReplaceLifetimeEBS_, symObjAddr: 0xD658, symBinAddr: 0x21D1C, symSize: 0x14C }
  - { offset: 0x5054C, size: 0x8, addend: 0x0, symName: __RINvNtNtCs6IAuOt8vWmF_3syn3gen4fold15fold_expr_asyncNtNvCs3yqPx1X2sxh_15zerofrom_derive25replace_lifetime_and_type20ReplaceLifetimeAndTyEBS_, symObjAddr: 0xD7A4, symBinAddr: 0x21E68, symSize: 0x14C }
  - { offset: 0x50593, size: 0x8, addend: 0x0, symName: __RINvNtNtCs6IAuOt8vWmF_3syn3gen4fold15fold_expr_awaitNtNvCs3yqPx1X2sxh_15zerofrom_derive16replace_lifetime15ReplaceLifetimeEBS_, symObjAddr: 0xD8F0, symBinAddr: 0x21FB4, symSize: 0x210 }
  - { offset: 0x505F9, size: 0x8, addend: 0x0, symName: __RINvNtNtCs6IAuOt8vWmF_3syn3gen4fold15fold_expr_awaitNtNvCs3yqPx1X2sxh_15zerofrom_derive25replace_lifetime_and_type20ReplaceLifetimeAndTyEBS_, symObjAddr: 0xDB00, symBinAddr: 0x221C4, symSize: 0x210 }
  - { offset: 0x5065F, size: 0x8, addend: 0x0, symName: __RINvNtNtCs6IAuOt8vWmF_3syn3gen4fold15fold_expr_blockNtNvCs3yqPx1X2sxh_15zerofrom_derive16replace_lifetime15ReplaceLifetimeEBS_, symObjAddr: 0xDD10, symBinAddr: 0x223D4, symSize: 0x1B0 }
  - { offset: 0x506A6, size: 0x8, addend: 0x0, symName: __RINvNtNtCs6IAuOt8vWmF_3syn3gen4fold15fold_expr_blockNtNvCs3yqPx1X2sxh_15zerofrom_derive25replace_lifetime_and_type20ReplaceLifetimeAndTyEBS_, symObjAddr: 0xDEC0, symBinAddr: 0x22584, symSize: 0x1B0 }
  - { offset: 0x506ED, size: 0x8, addend: 0x0, symName: __RINvNtNtCs6IAuOt8vWmF_3syn3gen4fold15fold_expr_breakNtNvCs3yqPx1X2sxh_15zerofrom_derive16replace_lifetime15ReplaceLifetimeEBS_, symObjAddr: 0xE070, symBinAddr: 0x22734, symSize: 0x184 }
  - { offset: 0x50734, size: 0x8, addend: 0x0, symName: __RINvNtNtCs6IAuOt8vWmF_3syn3gen4fold15fold_expr_breakNtNvCs3yqPx1X2sxh_15zerofrom_derive25replace_lifetime_and_type20ReplaceLifetimeAndTyEBS_, symObjAddr: 0xE1F4, symBinAddr: 0x228B8, symSize: 0x184 }
  - { offset: 0x5077B, size: 0x8, addend: 0x0, symName: __RINvNtNtCs6IAuOt8vWmF_3syn3gen4fold15fold_expr_constNtNvCs3yqPx1X2sxh_15zerofrom_derive16replace_lifetime15ReplaceLifetimeEBS_, symObjAddr: 0xE378, symBinAddr: 0x22A3C, symSize: 0x12C }
  - { offset: 0x507C2, size: 0x8, addend: 0x0, symName: __RINvNtNtCs6IAuOt8vWmF_3syn3gen4fold15fold_expr_constNtNvCs3yqPx1X2sxh_15zerofrom_derive25replace_lifetime_and_type20ReplaceLifetimeAndTyEBS_, symObjAddr: 0xE4A4, symBinAddr: 0x22B68, symSize: 0x12C }
  - { offset: 0x50809, size: 0x8, addend: 0x0, symName: __RINvNtNtCs6IAuOt8vWmF_3syn3gen4fold15fold_expr_fieldNtNvCs3yqPx1X2sxh_15zerofrom_derive16replace_lifetime15ReplaceLifetimeEBS_, symObjAddr: 0xE5D0, symBinAddr: 0x22C94, symSize: 0x28C }
  - { offset: 0x5086F, size: 0x8, addend: 0x0, symName: __RINvNtNtCs6IAuOt8vWmF_3syn3gen4fold15fold_expr_fieldNtNvCs3yqPx1X2sxh_15zerofrom_derive25replace_lifetime_and_type20ReplaceLifetimeAndTyEBS_, symObjAddr: 0xE85C, symBinAddr: 0x22F20, symSize: 0x28C }
  - { offset: 0x508D5, size: 0x8, addend: 0x0, symName: __RINvNtNtCs6IAuOt8vWmF_3syn3gen4fold15fold_expr_groupNtNvCs3yqPx1X2sxh_15zerofrom_derive16replace_lifetime15ReplaceLifetimeEBS_, symObjAddr: 0xEAE8, symBinAddr: 0x231AC, symSize: 0x208 }
  - { offset: 0x5093B, size: 0x8, addend: 0x0, symName: __RINvNtNtCs6IAuOt8vWmF_3syn3gen4fold15fold_expr_groupNtNvCs3yqPx1X2sxh_15zerofrom_derive25replace_lifetime_and_type20ReplaceLifetimeAndTyEBS_, symObjAddr: 0xECF0, symBinAddr: 0x233B4, symSize: 0x208 }
  - { offset: 0x509A1, size: 0x8, addend: 0x0, symName: __RINvNtNtCs6IAuOt8vWmF_3syn3gen4fold15fold_expr_indexNtNvCs3yqPx1X2sxh_15zerofrom_derive16replace_lifetime15ReplaceLifetimeEBS_, symObjAddr: 0xEEF8, symBinAddr: 0x235BC, symSize: 0x3A8 }
  - { offset: 0x50A27, size: 0x8, addend: 0x0, symName: __RINvNtNtCs6IAuOt8vWmF_3syn3gen4fold15fold_expr_indexNtNvCs3yqPx1X2sxh_15zerofrom_derive25replace_lifetime_and_type20ReplaceLifetimeAndTyEBS_, symObjAddr: 0xF2A0, symBinAddr: 0x23964, symSize: 0x3A8 }
  - { offset: 0x50AAD, size: 0x8, addend: 0x0, symName: __RINvNtNtCs6IAuOt8vWmF_3syn3gen4fold15fold_expr_inferNtNvCs3yqPx1X2sxh_15zerofrom_derive16replace_lifetime15ReplaceLifetimeEBS_, symObjAddr: 0xF648, symBinAddr: 0x23D0C, symSize: 0x80 }
  - { offset: 0x50AF4, size: 0x8, addend: 0x0, symName: __RINvNtNtCs6IAuOt8vWmF_3syn3gen4fold15fold_expr_inferNtNvCs3yqPx1X2sxh_15zerofrom_derive25replace_lifetime_and_type20ReplaceLifetimeAndTyEBS_, symObjAddr: 0xF6C8, symBinAddr: 0x23D8C, symSize: 0x80 }
  - { offset: 0x50B3B, size: 0x8, addend: 0x0, symName: __RINvNtNtCs6IAuOt8vWmF_3syn3gen4fold15fold_expr_macroNtNvCs3yqPx1X2sxh_15zerofrom_derive16replace_lifetime15ReplaceLifetimeEBS_, symObjAddr: 0xF748, symBinAddr: 0x23E0C, symSize: 0x124 }
  - { offset: 0x50B82, size: 0x8, addend: 0x0, symName: __RINvNtNtCs6IAuOt8vWmF_3syn3gen4fold15fold_expr_macroNtNvCs3yqPx1X2sxh_15zerofrom_derive25replace_lifetime_and_type20ReplaceLifetimeAndTyEBS_, symObjAddr: 0xF86C, symBinAddr: 0x23F30, symSize: 0x124 }
  - { offset: 0x50BC9, size: 0x8, addend: 0x0, symName: __RINvNtNtCs6IAuOt8vWmF_3syn3gen4fold15fold_expr_matchNtNvCs3yqPx1X2sxh_15zerofrom_derive16replace_lifetime15ReplaceLifetimeEBS_, symObjAddr: 0xF990, symBinAddr: 0x24054, symSize: 0x2AC }
  - { offset: 0x50C2F, size: 0x8, addend: 0x0, symName: __RINvNtNtCs6IAuOt8vWmF_3syn3gen4fold15fold_expr_matchNtNvCs3yqPx1X2sxh_15zerofrom_derive25replace_lifetime_and_type20ReplaceLifetimeAndTyEBS_, symObjAddr: 0xFC3C, symBinAddr: 0x24300, symSize: 0x2AC }
  - { offset: 0x50C95, size: 0x8, addend: 0x0, symName: __RINvNtNtCs6IAuOt8vWmF_3syn3gen4fold15fold_expr_parenNtNvCs3yqPx1X2sxh_15zerofrom_derive16replace_lifetime15ReplaceLifetimeEBS_, symObjAddr: 0xFEE8, symBinAddr: 0x245AC, symSize: 0x218 }
  - { offset: 0x50CFB, size: 0x8, addend: 0x0, symName: __RINvNtNtCs6IAuOt8vWmF_3syn3gen4fold15fold_expr_parenNtNvCs3yqPx1X2sxh_15zerofrom_derive25replace_lifetime_and_type20ReplaceLifetimeAndTyEBS_, symObjAddr: 0x10100, symBinAddr: 0x247C4, symSize: 0x218 }
  - { offset: 0x50D61, size: 0x8, addend: 0x0, symName: __RINvNtNtCs6IAuOt8vWmF_3syn3gen4fold15fold_expr_rangeNtNvCs3yqPx1X2sxh_15zerofrom_derive16replace_lifetime15ReplaceLifetimeEBS_, symObjAddr: 0x10318, symBinAddr: 0x249DC, symSize: 0x18C }
  - { offset: 0x50DA8, size: 0x8, addend: 0x0, symName: __RINvNtNtCs6IAuOt8vWmF_3syn3gen4fold15fold_expr_rangeNtNvCs3yqPx1X2sxh_15zerofrom_derive25replace_lifetime_and_type20ReplaceLifetimeAndTyEBS_, symObjAddr: 0x104A4, symBinAddr: 0x24B68, symSize: 0x18C }
  - { offset: 0x50DEF, size: 0x8, addend: 0x0, symName: __RINvNtNtCs6IAuOt8vWmF_3syn3gen4fold15fold_expr_tupleNtNvCs3yqPx1X2sxh_15zerofrom_derive16replace_lifetime15ReplaceLifetimeEBS_, symObjAddr: 0x10630, symBinAddr: 0x24CF4, symSize: 0x130 }
  - { offset: 0x50E36, size: 0x8, addend: 0x0, symName: __RINvNtNtCs6IAuOt8vWmF_3syn3gen4fold15fold_expr_tupleNtNvCs3yqPx1X2sxh_15zerofrom_derive25replace_lifetime_and_type20ReplaceLifetimeAndTyEBS_, symObjAddr: 0x10760, symBinAddr: 0x24E24, symSize: 0x130 }
  - { offset: 0x50E7D, size: 0x8, addend: 0x0, symName: __RINvNtNtCs6IAuOt8vWmF_3syn3gen4fold15fold_expr_unaryNtNvCs3yqPx1X2sxh_15zerofrom_derive16replace_lifetime15ReplaceLifetimeEBS_, symObjAddr: 0x10890, symBinAddr: 0x24F54, symSize: 0x238 }
  - { offset: 0x50EE4, size: 0x8, addend: 0x0, symName: __RINvNtNtCs6IAuOt8vWmF_3syn3gen4fold15fold_expr_unaryNtNvCs3yqPx1X2sxh_15zerofrom_derive25replace_lifetime_and_type20ReplaceLifetimeAndTyEBS_, symObjAddr: 0x10AC8, symBinAddr: 0x2518C, symSize: 0x238 }
  - { offset: 0x50F4B, size: 0x8, addend: 0x0, symName: __RINvNtNtCs6IAuOt8vWmF_3syn3gen4fold15fold_expr_whileNtNvCs3yqPx1X2sxh_15zerofrom_derive16replace_lifetime15ReplaceLifetimeEBS_, symObjAddr: 0x10D00, symBinAddr: 0x253C4, symSize: 0x324 }
  - { offset: 0x50FB1, size: 0x8, addend: 0x0, symName: __RINvNtNtCs6IAuOt8vWmF_3syn3gen4fold15fold_expr_whileNtNvCs3yqPx1X2sxh_15zerofrom_derive25replace_lifetime_and_type20ReplaceLifetimeAndTyEBS_, symObjAddr: 0x11024, symBinAddr: 0x256E8, symSize: 0x324 }
  - { offset: 0x51017, size: 0x8, addend: 0x0, symName: __RINvNtNtCs6IAuOt8vWmF_3syn3gen4fold15fold_expr_yieldNtNvCs3yqPx1X2sxh_15zerofrom_derive16replace_lifetime15ReplaceLifetimeEBS_, symObjAddr: 0x11348, symBinAddr: 0x25A0C, symSize: 0x108 }
  - { offset: 0x5105E, size: 0x8, addend: 0x0, symName: __RINvNtNtCs6IAuOt8vWmF_3syn3gen4fold15fold_expr_yieldNtNvCs3yqPx1X2sxh_15zerofrom_derive25replace_lifetime_and_type20ReplaceLifetimeAndTyEBS_, symObjAddr: 0x11450, symBinAddr: 0x25B14, symSize: 0x108 }
  - { offset: 0x510A5, size: 0x8, addend: 0x0, symName: __RINvNtNtCs6IAuOt8vWmF_3syn3gen4fold15fold_item_constNtNvCs3yqPx1X2sxh_15zerofrom_derive16replace_lifetime15ReplaceLifetimeEBS_, symObjAddr: 0x11558, symBinAddr: 0x25C1C, symSize: 0x554 }
  - { offset: 0x5112B, size: 0x8, addend: 0x0, symName: __RINvNtNtCs6IAuOt8vWmF_3syn3gen4fold15fold_item_constNtNvCs3yqPx1X2sxh_15zerofrom_derive25replace_lifetime_and_type20ReplaceLifetimeAndTyEBS_, symObjAddr: 0x11AAC, symBinAddr: 0x26170, symSize: 0x554 }
  - { offset: 0x511B1, size: 0x8, addend: 0x0, symName: __RINvNtNtCs6IAuOt8vWmF_3syn3gen4fold15fold_item_macroNtNvCs3yqPx1X2sxh_15zerofrom_derive16replace_lifetime15ReplaceLifetimeEBS_, symObjAddr: 0x12000, symBinAddr: 0x266C4, symSize: 0x1B8 }
  - { offset: 0x511F8, size: 0x8, addend: 0x0, symName: __RINvNtNtCs6IAuOt8vWmF_3syn3gen4fold15fold_item_macroNtNvCs3yqPx1X2sxh_15zerofrom_derive25replace_lifetime_and_type20ReplaceLifetimeAndTyEBS_, symObjAddr: 0x121B8, symBinAddr: 0x2687C, symSize: 0x1B8 }
  - { offset: 0x5123F, size: 0x8, addend: 0x0, symName: __RINvNtNtCs6IAuOt8vWmF_3syn3gen4fold15fold_item_traitNtNvCs3yqPx1X2sxh_15zerofrom_derive16replace_lifetime15ReplaceLifetimeEBS_, symObjAddr: 0x12370, symBinAddr: 0x26A34, symSize: 0x3C0 }
  - { offset: 0x51286, size: 0x8, addend: 0x0, symName: __RINvNtNtCs6IAuOt8vWmF_3syn3gen4fold15fold_item_traitNtNvCs3yqPx1X2sxh_15zerofrom_derive25replace_lifetime_and_type20ReplaceLifetimeAndTyEBS_, symObjAddr: 0x12730, symBinAddr: 0x26DF4, symSize: 0x3C0 }
  - { offset: 0x512CD, size: 0x8, addend: 0x0, symName: __RINvNtNtCs6IAuOt8vWmF_3syn3gen4fold15fold_item_unionNtNvCs3yqPx1X2sxh_15zerofrom_derive16replace_lifetime15ReplaceLifetimeEBS_, symObjAddr: 0x12AF0, symBinAddr: 0x271B4, symSize: 0x2B8 }
  - { offset: 0x51314, size: 0x8, addend: 0x0, symName: __RINvNtNtCs6IAuOt8vWmF_3syn3gen4fold15fold_item_unionNtNvCs3yqPx1X2sxh_15zerofrom_derive25replace_lifetime_and_type20ReplaceLifetimeAndTyEBS_, symObjAddr: 0x12DA8, symBinAddr: 0x2746C, symSize: 0x2B8 }
  - { offset: 0x5135B, size: 0x8, addend: 0x0, symName: __RINvNtNtCs6IAuOt8vWmF_3syn3gen4fold15fold_local_initNtNvCs3yqPx1X2sxh_15zerofrom_derive16replace_lifetime15ReplaceLifetimeEBS_, symObjAddr: 0x13060, symBinAddr: 0x27724, symSize: 0x220 }
  - { offset: 0x513C1, size: 0x8, addend: 0x0, symName: __RINvNtNtCs6IAuOt8vWmF_3syn3gen4fold15fold_local_initNtNvCs3yqPx1X2sxh_15zerofrom_derive25replace_lifetime_and_type20ReplaceLifetimeAndTyEBS_, symObjAddr: 0x13280, symBinAddr: 0x27944, symSize: 0x220 }
  - { offset: 0x51427, size: 0x8, addend: 0x0, symName: __RINvNtNtCs6IAuOt8vWmF_3syn3gen4fold15fold_pat_structNtNvCs3yqPx1X2sxh_15zerofrom_derive16replace_lifetime15ReplaceLifetimeEBS_, symObjAddr: 0x134A0, symBinAddr: 0x27B64, symSize: 0x2D0 }
  - { offset: 0x5146E, size: 0x8, addend: 0x0, symName: __RINvNtNtCs6IAuOt8vWmF_3syn3gen4fold15fold_pat_structNtNvCs3yqPx1X2sxh_15zerofrom_derive25replace_lifetime_and_type20ReplaceLifetimeAndTyEBS_, symObjAddr: 0x13770, symBinAddr: 0x27E34, symSize: 0x2D0 }
  - { offset: 0x514B5, size: 0x8, addend: 0x0, symName: __RINvNtNtCs6IAuOt8vWmF_3syn3gen4fold15fold_stmt_macroNtNvCs3yqPx1X2sxh_15zerofrom_derive16replace_lifetime15ReplaceLifetimeEBS_, symObjAddr: 0x13A40, symBinAddr: 0x28104, symSize: 0x13C }
  - { offset: 0x514FC, size: 0x8, addend: 0x0, symName: __RINvNtNtCs6IAuOt8vWmF_3syn3gen4fold15fold_stmt_macroNtNvCs3yqPx1X2sxh_15zerofrom_derive25replace_lifetime_and_type20ReplaceLifetimeAndTyEBS_, symObjAddr: 0x13B7C, symBinAddr: 0x28240, symSize: 0x13C }
  - { offset: 0x51543, size: 0x8, addend: 0x0, symName: __RINvNtNtCs6IAuOt8vWmF_3syn3gen4fold15fold_trait_itemNtNvCs3yqPx1X2sxh_15zerofrom_derive16replace_lifetime15ReplaceLifetimeEBS_, symObjAddr: 0x13CB8, symBinAddr: 0x2837C, symSize: 0x284 }
  - { offset: 0x5161D, size: 0x8, addend: 0x0, symName: __RINvNtNtCs6IAuOt8vWmF_3syn3gen4fold15fold_trait_itemNtNvCs3yqPx1X2sxh_15zerofrom_derive25replace_lifetime_and_type20ReplaceLifetimeAndTyEBS_, symObjAddr: 0x13F3C, symBinAddr: 0x28600, symSize: 0x284 }
  - { offset: 0x516F7, size: 0x8, addend: 0x0, symName: __RINvNtNtCs6IAuOt8vWmF_3syn3gen4fold15fold_type_arrayNtNvCs3yqPx1X2sxh_15zerofrom_derive16replace_lifetime15ReplaceLifetimeEBS_, symObjAddr: 0x141C0, symBinAddr: 0x28884, symSize: 0x22C }
  - { offset: 0x5175D, size: 0x8, addend: 0x0, symName: __RINvNtNtCs6IAuOt8vWmF_3syn3gen4fold15fold_type_arrayNtNvCs3yqPx1X2sxh_15zerofrom_derive25replace_lifetime_and_type20ReplaceLifetimeAndTyEBS_, symObjAddr: 0x143EC, symBinAddr: 0x28AB0, symSize: 0x22C }
  - { offset: 0x517C3, size: 0x8, addend: 0x0, symName: __RINvNtNtCs6IAuOt8vWmF_3syn3gen4fold15fold_type_groupNtNvCs3yqPx1X2sxh_15zerofrom_derive16replace_lifetime15ReplaceLifetimeEBS_, symObjAddr: 0x14618, symBinAddr: 0x28CDC, symSize: 0x170 }
  - { offset: 0x51828, size: 0x8, addend: 0x0, symName: __RINvNtNtCs6IAuOt8vWmF_3syn3gen4fold15fold_type_groupNtNvCs3yqPx1X2sxh_15zerofrom_derive25replace_lifetime_and_type20ReplaceLifetimeAndTyEBS_, symObjAddr: 0x14788, symBinAddr: 0x28E4C, symSize: 0x170 }
  - { offset: 0x5188D, size: 0x8, addend: 0x0, symName: __RINvNtNtCs6IAuOt8vWmF_3syn3gen4fold15fold_type_inferNtNvCs3yqPx1X2sxh_15zerofrom_derive16replace_lifetime15ReplaceLifetimeEBS_, symObjAddr: 0x148F8, symBinAddr: 0x28FBC, symSize: 0x40 }
  - { offset: 0x518D3, size: 0x8, addend: 0x0, symName: __RINvNtNtCs6IAuOt8vWmF_3syn3gen4fold15fold_type_inferNtNvCs3yqPx1X2sxh_15zerofrom_derive25replace_lifetime_and_type20ReplaceLifetimeAndTyEBS_, symObjAddr: 0x14938, symBinAddr: 0x28FFC, symSize: 0x40 }
  - { offset: 0x51919, size: 0x8, addend: 0x0, symName: __RINvNtNtCs6IAuOt8vWmF_3syn3gen4fold15fold_type_macroNtNvCs3yqPx1X2sxh_15zerofrom_derive16replace_lifetime15ReplaceLifetimeEBS_, symObjAddr: 0x14978, symBinAddr: 0x2903C, symSize: 0x78 }
  - { offset: 0x51960, size: 0x8, addend: 0x0, symName: __RINvNtNtCs6IAuOt8vWmF_3syn3gen4fold15fold_type_macroNtNvCs3yqPx1X2sxh_15zerofrom_derive25replace_lifetime_and_type20ReplaceLifetimeAndTyEBS_, symObjAddr: 0x149F0, symBinAddr: 0x290B4, symSize: 0x78 }
  - { offset: 0x519A7, size: 0x8, addend: 0x0, symName: __RINvNtNtCs6IAuOt8vWmF_3syn3gen4fold15fold_type_neverNtNvCs3yqPx1X2sxh_15zerofrom_derive16replace_lifetime15ReplaceLifetimeEBS_, symObjAddr: 0x14A68, symBinAddr: 0x2912C, symSize: 0x40 }
  - { offset: 0x519ED, size: 0x8, addend: 0x0, symName: __RINvNtNtCs6IAuOt8vWmF_3syn3gen4fold15fold_type_neverNtNvCs3yqPx1X2sxh_15zerofrom_derive25replace_lifetime_and_type20ReplaceLifetimeAndTyEBS_, symObjAddr: 0x14AA8, symBinAddr: 0x2916C, symSize: 0x40 }
  - { offset: 0x51A33, size: 0x8, addend: 0x0, symName: __RINvNtNtCs6IAuOt8vWmF_3syn3gen4fold15fold_type_paramNtNvCs3yqPx1X2sxh_15zerofrom_derive16replace_lifetime15ReplaceLifetimeEBS_, symObjAddr: 0x14AE8, symBinAddr: 0x291AC, symSize: 0x24C }
  - { offset: 0x51A7A, size: 0x8, addend: 0x0, symName: __RINvNtNtCs6IAuOt8vWmF_3syn3gen4fold15fold_type_paramNtNvCs3yqPx1X2sxh_15zerofrom_derive25replace_lifetime_and_type20ReplaceLifetimeAndTyEBS_, symObjAddr: 0x14D34, symBinAddr: 0x293F8, symSize: 0x24C }
  - { offset: 0x51AC1, size: 0x8, addend: 0x0, symName: __RINvNtNtCs6IAuOt8vWmF_3syn3gen4fold15fold_type_parenNtNvCs3yqPx1X2sxh_15zerofrom_derive16replace_lifetime15ReplaceLifetimeEBS_, symObjAddr: 0x14F80, symBinAddr: 0x29644, symSize: 0x18C }
  - { offset: 0x51B27, size: 0x8, addend: 0x0, symName: __RINvNtNtCs6IAuOt8vWmF_3syn3gen4fold15fold_type_parenNtNvCs3yqPx1X2sxh_15zerofrom_derive25replace_lifetime_and_type20ReplaceLifetimeAndTyEBS_, symObjAddr: 0x1510C, symBinAddr: 0x297D0, symSize: 0x18C }
  - { offset: 0x51B8D, size: 0x8, addend: 0x0, symName: __RINvNtNtCs6IAuOt8vWmF_3syn3gen4fold15fold_type_sliceNtNvCs3yqPx1X2sxh_15zerofrom_derive16replace_lifetime15ReplaceLifetimeEBS_, symObjAddr: 0x15298, symBinAddr: 0x2995C, symSize: 0x18C }
  - { offset: 0x51BF3, size: 0x8, addend: 0x0, symName: __RINvNtNtCs6IAuOt8vWmF_3syn3gen4fold15fold_type_sliceNtNvCs3yqPx1X2sxh_15zerofrom_derive25replace_lifetime_and_type20ReplaceLifetimeAndTyEBS_, symObjAddr: 0x15424, symBinAddr: 0x29AE8, symSize: 0x18C }
  - { offset: 0x51C59, size: 0x8, addend: 0x0, symName: __RINvNtNtCs6IAuOt8vWmF_3syn3gen4fold15fold_type_tupleNtNvCs3yqPx1X2sxh_15zerofrom_derive16replace_lifetime15ReplaceLifetimeEBS_, symObjAddr: 0x155B0, symBinAddr: 0x29C74, symSize: 0x90 }
  - { offset: 0x51CA0, size: 0x8, addend: 0x0, symName: __RINvNtNtCs6IAuOt8vWmF_3syn3gen4fold15fold_type_tupleNtNvCs3yqPx1X2sxh_15zerofrom_derive25replace_lifetime_and_type20ReplaceLifetimeAndTyEBS_, symObjAddr: 0x15640, symBinAddr: 0x29D04, symSize: 0x90 }
  - { offset: 0x51CE7, size: 0x8, addend: 0x0, symName: __RINvNtNtCs6IAuOt8vWmF_3syn3gen4fold15fold_use_renameNtNvCs3yqPx1X2sxh_15zerofrom_derive16replace_lifetime15ReplaceLifetimeEBS_, symObjAddr: 0x156D0, symBinAddr: 0x29D94, symSize: 0x120 }
  - { offset: 0x51D2E, size: 0x8, addend: 0x0, symName: __RINvNtNtCs6IAuOt8vWmF_3syn3gen4fold15fold_use_renameNtNvCs3yqPx1X2sxh_15zerofrom_derive25replace_lifetime_and_type20ReplaceLifetimeAndTyEBS_, symObjAddr: 0x157F0, symBinAddr: 0x29EB4, symSize: 0x120 }
  - { offset: 0x51D75, size: 0x8, addend: 0x0, symName: __RINvNtNtCs6IAuOt8vWmF_3syn3gen4fold15fold_visibilityNtNvCs3yqPx1X2sxh_15zerofrom_derive16replace_lifetime15ReplaceLifetimeEBS_, symObjAddr: 0x15910, symBinAddr: 0x29FD4, symSize: 0x100 }
  - { offset: 0x51DF8, size: 0x8, addend: 0x0, symName: __RINvNtNtCs6IAuOt8vWmF_3syn3gen4fold15fold_visibilityNtNvCs3yqPx1X2sxh_15zerofrom_derive25replace_lifetime_and_type20ReplaceLifetimeAndTyEBS_, symObjAddr: 0x15A10, symBinAddr: 0x2A0D4, symSize: 0x100 }
  - { offset: 0x51E7B, size: 0x8, addend: 0x0, symName: __RINvNtNtCs6IAuOt8vWmF_3syn3gen4fold16fold_assoc_constNtNvCs3yqPx1X2sxh_15zerofrom_derive16replace_lifetime15ReplaceLifetimeEBT_, symObjAddr: 0x15B10, symBinAddr: 0x2A1D4, symSize: 0x1B4 }
  - { offset: 0x51EC2, size: 0x8, addend: 0x0, symName: __RINvNtNtCs6IAuOt8vWmF_3syn3gen4fold16fold_assoc_constNtNvCs3yqPx1X2sxh_15zerofrom_derive25replace_lifetime_and_type20ReplaceLifetimeAndTyEBT_, symObjAddr: 0x15CC4, symBinAddr: 0x2A388, symSize: 0x1B4 }
  - { offset: 0x51F09, size: 0x8, addend: 0x0, symName: __RINvNtNtCs6IAuOt8vWmF_3syn3gen4fold16fold_bare_fn_argNtNvCs3yqPx1X2sxh_15zerofrom_derive16replace_lifetime15ReplaceLifetimeEBT_, symObjAddr: 0x15E78, symBinAddr: 0x2A53C, symSize: 0x19C }
  - { offset: 0x51F50, size: 0x8, addend: 0x0, symName: __RINvNtNtCs6IAuOt8vWmF_3syn3gen4fold16fold_bare_fn_argNtNvCs3yqPx1X2sxh_15zerofrom_derive25replace_lifetime_and_type20ReplaceLifetimeAndTyEBT_, symObjAddr: 0x16014, symBinAddr: 0x2A6D8, symSize: 0x19C }
  - { offset: 0x51F97, size: 0x8, addend: 0x0, symName: __RINvNtNtCs6IAuOt8vWmF_3syn3gen4fold16fold_const_paramNtNvCs3yqPx1X2sxh_15zerofrom_derive16replace_lifetime15ReplaceLifetimeEBT_, symObjAddr: 0x161B0, symBinAddr: 0x2A874, symSize: 0x250 }
  - { offset: 0x51FDE, size: 0x8, addend: 0x0, symName: __RINvNtNtCs6IAuOt8vWmF_3syn3gen4fold16fold_const_paramNtNvCs3yqPx1X2sxh_15zerofrom_derive25replace_lifetime_and_type20ReplaceLifetimeAndTyEBT_, symObjAddr: 0x16400, symBinAddr: 0x2AAC4, symSize: 0x250 }
  - { offset: 0x52025, size: 0x8, addend: 0x0, symName: __RINvNtNtCs6IAuOt8vWmF_3syn3gen4fold16fold_expr_assignNtNvCs3yqPx1X2sxh_15zerofrom_derive16replace_lifetime15ReplaceLifetimeEBT_, symObjAddr: 0x16650, symBinAddr: 0x2AD14, symSize: 0x398 }
  - { offset: 0x520AB, size: 0x8, addend: 0x0, symName: __RINvNtNtCs6IAuOt8vWmF_3syn3gen4fold16fold_expr_assignNtNvCs3yqPx1X2sxh_15zerofrom_derive25replace_lifetime_and_type20ReplaceLifetimeAndTyEBT_, symObjAddr: 0x169E8, symBinAddr: 0x2B0AC, symSize: 0x398 }
  - { offset: 0x52131, size: 0x8, addend: 0x0, symName: __RINvNtNtCs6IAuOt8vWmF_3syn3gen4fold16fold_expr_binaryNtNvCs3yqPx1X2sxh_15zerofrom_derive16replace_lifetime15ReplaceLifetimeEBT_, symObjAddr: 0x16D80, symBinAddr: 0x2B444, symSize: 0x3C0 }
  - { offset: 0x521B7, size: 0x8, addend: 0x0, symName: __RINvNtNtCs6IAuOt8vWmF_3syn3gen4fold16fold_expr_binaryNtNvCs3yqPx1X2sxh_15zerofrom_derive25replace_lifetime_and_type20ReplaceLifetimeAndTyEBT_, symObjAddr: 0x17140, symBinAddr: 0x2B804, symSize: 0x3C0 }
  - { offset: 0x5223D, size: 0x8, addend: 0x0, symName: __RINvNtNtCs6IAuOt8vWmF_3syn3gen4fold16fold_expr_repeatNtNvCs3yqPx1X2sxh_15zerofrom_derive16replace_lifetime15ReplaceLifetimeEBT_, symObjAddr: 0x17500, symBinAddr: 0x2BBC4, symSize: 0x3B8 }
  - { offset: 0x522C3, size: 0x8, addend: 0x0, symName: __RINvNtNtCs6IAuOt8vWmF_3syn3gen4fold16fold_expr_repeatNtNvCs3yqPx1X2sxh_15zerofrom_derive25replace_lifetime_and_type20ReplaceLifetimeAndTyEBT_, symObjAddr: 0x178B8, symBinAddr: 0x2BF7C, symSize: 0x3B8 }
  - { offset: 0x52349, size: 0x8, addend: 0x0, symName: __RINvNtNtCs6IAuOt8vWmF_3syn3gen4fold16fold_expr_returnNtNvCs3yqPx1X2sxh_15zerofrom_derive16replace_lifetime15ReplaceLifetimeEBT_, symObjAddr: 0x17C70, symBinAddr: 0x2C334, symSize: 0x108 }
  - { offset: 0x52390, size: 0x8, addend: 0x0, symName: __RINvNtNtCs6IAuOt8vWmF_3syn3gen4fold16fold_expr_returnNtNvCs3yqPx1X2sxh_15zerofrom_derive25replace_lifetime_and_type20ReplaceLifetimeAndTyEBT_, symObjAddr: 0x17D78, symBinAddr: 0x2C43C, symSize: 0x108 }
  - { offset: 0x523D7, size: 0x8, addend: 0x0, symName: __RINvNtNtCs6IAuOt8vWmF_3syn3gen4fold16fold_expr_structNtNvCs3yqPx1X2sxh_15zerofrom_derive16replace_lifetime15ReplaceLifetimeEBT_, symObjAddr: 0x17E80, symBinAddr: 0x2C544, symSize: 0x2D4 }
  - { offset: 0x5241E, size: 0x8, addend: 0x0, symName: __RINvNtNtCs6IAuOt8vWmF_3syn3gen4fold16fold_expr_structNtNvCs3yqPx1X2sxh_15zerofrom_derive25replace_lifetime_and_type20ReplaceLifetimeAndTyEBT_, symObjAddr: 0x18154, symBinAddr: 0x2C818, symSize: 0x2D4 }
  - { offset: 0x52465, size: 0x8, addend: 0x0, symName: __RINvNtNtCs6IAuOt8vWmF_3syn3gen4fold16fold_expr_unsafeNtNvCs3yqPx1X2sxh_15zerofrom_derive16replace_lifetime15ReplaceLifetimeEBT_, symObjAddr: 0x18428, symBinAddr: 0x2CAEC, symSize: 0x12C }
  - { offset: 0x524AC, size: 0x8, addend: 0x0, symName: __RINvNtNtCs6IAuOt8vWmF_3syn3gen4fold16fold_expr_unsafeNtNvCs3yqPx1X2sxh_15zerofrom_derive25replace_lifetime_and_type20ReplaceLifetimeAndTyEBT_, symObjAddr: 0x18554, symBinAddr: 0x2CC18, symSize: 0x12C }
  - { offset: 0x524F3, size: 0x8, addend: 0x0, symName: __RINvNtNtCs6IAuOt8vWmF_3syn3gen4fold16fold_field_valueNtNvCs3yqPx1X2sxh_15zerofrom_derive16replace_lifetime15ReplaceLifetimeEBT_, symObjAddr: 0x18680, symBinAddr: 0x2CD44, symSize: 0x1A4 }
  - { offset: 0x5253A, size: 0x8, addend: 0x0, symName: __RINvNtNtCs6IAuOt8vWmF_3syn3gen4fold16fold_field_valueNtNvCs3yqPx1X2sxh_15zerofrom_derive25replace_lifetime_and_type20ReplaceLifetimeAndTyEBT_, symObjAddr: 0x18824, symBinAddr: 0x2CEE8, symSize: 0x1A4 }
  - { offset: 0x52581, size: 0x8, addend: 0x0, symName: __RINvNtNtCs6IAuOt8vWmF_3syn3gen4fold16fold_item_staticNtNvCs3yqPx1X2sxh_15zerofrom_derive16replace_lifetime15ReplaceLifetimeEBT_, symObjAddr: 0x189C8, symBinAddr: 0x2D08C, symSize: 0x4F4 }
  - { offset: 0x52607, size: 0x8, addend: 0x0, symName: __RINvNtNtCs6IAuOt8vWmF_3syn3gen4fold16fold_item_staticNtNvCs3yqPx1X2sxh_15zerofrom_derive25replace_lifetime_and_type20ReplaceLifetimeAndTyEBT_, symObjAddr: 0x18EBC, symBinAddr: 0x2D580, symSize: 0x4F4 }
  - { offset: 0x5268D, size: 0x8, addend: 0x0, symName: __RINvNtNtCs6IAuOt8vWmF_3syn3gen4fold16fold_item_structNtNvCs3yqPx1X2sxh_15zerofrom_derive16replace_lifetime15ReplaceLifetimeEBT_, symObjAddr: 0x193B0, symBinAddr: 0x2DA74, symSize: 0x2C4 }
  - { offset: 0x526D4, size: 0x8, addend: 0x0, symName: __RINvNtNtCs6IAuOt8vWmF_3syn3gen4fold16fold_item_structNtNvCs3yqPx1X2sxh_15zerofrom_derive25replace_lifetime_and_type20ReplaceLifetimeAndTyEBT_, symObjAddr: 0x19674, symBinAddr: 0x2DD38, symSize: 0x2C4 }
  - { offset: 0x5271B, size: 0x8, addend: 0x0, symName: __RINvNtNtCs6IAuOt8vWmF_3syn3gen4fold16fold_return_typeNtNvCs3yqPx1X2sxh_15zerofrom_derive16replace_lifetime15ReplaceLifetimeEBT_, symObjAddr: 0x19938, symBinAddr: 0x2DFFC, symSize: 0x1C0 }
  - { offset: 0x527A9, size: 0x8, addend: 0x0, symName: __RINvNtNtCs6IAuOt8vWmF_3syn3gen4fold16fold_return_typeNtNvCs3yqPx1X2sxh_15zerofrom_derive25replace_lifetime_and_type20ReplaceLifetimeAndTyEBT_, symObjAddr: 0x19AF8, symBinAddr: 0x2E1BC, symSize: 0x1C0 }
  - { offset: 0x52837, size: 0x8, addend: 0x0, symName: __RINvNtNtCs6IAuOt8vWmF_3syn3gen4fold16fold_trait_boundNtNvCs3yqPx1X2sxh_15zerofrom_derive16replace_lifetime15ReplaceLifetimeEBT_, symObjAddr: 0x19CB8, symBinAddr: 0x2E37C, symSize: 0x19C }
  - { offset: 0x5287E, size: 0x8, addend: 0x0, symName: __RINvNtNtCs6IAuOt8vWmF_3syn3gen4fold16fold_trait_boundNtNvCs3yqPx1X2sxh_15zerofrom_derive25replace_lifetime_and_type20ReplaceLifetimeAndTyEBT_, symObjAddr: 0x19E54, symBinAddr: 0x2E518, symSize: 0x19C }
  - { offset: 0x528C5, size: 0x8, addend: 0x0, symName: __RINvNtNtCs6IAuOt8vWmF_3syn3gen4fold17fold_expr_closureNtNvCs3yqPx1X2sxh_15zerofrom_derive16replace_lifetime15ReplaceLifetimeEBU_, symObjAddr: 0x19FF0, symBinAddr: 0x2E6B4, symSize: 0x420 }
  - { offset: 0x5292B, size: 0x8, addend: 0x0, symName: __RINvNtNtCs6IAuOt8vWmF_3syn3gen4fold17fold_expr_closureNtNvCs3yqPx1X2sxh_15zerofrom_derive25replace_lifetime_and_type20ReplaceLifetimeAndTyEBU_, symObjAddr: 0x1A410, symBinAddr: 0x2EAD4, symSize: 0x420 }
  - { offset: 0x52991, size: 0x8, addend: 0x0, symName: __RINvNtNtCs6IAuOt8vWmF_3syn3gen4fold17fold_fields_namedNtNvCs3yqPx1X2sxh_15zerofrom_derive16replace_lifetime15ReplaceLifetimeEBU_, symObjAddr: 0x1A830, symBinAddr: 0x2EEF4, symSize: 0x90 }
  - { offset: 0x529D8, size: 0x8, addend: 0x0, symName: __RINvNtNtCs6IAuOt8vWmF_3syn3gen4fold17fold_fields_namedNtNvCs3yqPx1X2sxh_15zerofrom_derive25replace_lifetime_and_type20ReplaceLifetimeAndTyEBU_, symObjAddr: 0x1A8C0, symBinAddr: 0x2EF84, symSize: 0x90 }
  - { offset: 0x52A1F, size: 0x8, addend: 0x0, symName: __RINvNtNtCs6IAuOt8vWmF_3syn3gen4fold17fold_foreign_itemNtNvCs3yqPx1X2sxh_15zerofrom_derive16replace_lifetime15ReplaceLifetimeEBU_, symObjAddr: 0x1A950, symBinAddr: 0x2F014, symSize: 0x284 }
  - { offset: 0x52AF9, size: 0x8, addend: 0x0, symName: __RINvNtNtCs6IAuOt8vWmF_3syn3gen4fold17fold_foreign_itemNtNvCs3yqPx1X2sxh_15zerofrom_derive25replace_lifetime_and_type20ReplaceLifetimeAndTyEBU_, symObjAddr: 0x1ABD4, symBinAddr: 0x2F298, symSize: 0x284 }
  - { offset: 0x52BD3, size: 0x8, addend: 0x0, symName: __RINvNtNtCs6IAuOt8vWmF_3syn3gen4fold17fold_impl_item_fnNtNvCs3yqPx1X2sxh_15zerofrom_derive16replace_lifetime15ReplaceLifetimeEBU_, symObjAddr: 0x1AE58, symBinAddr: 0x2F51C, symSize: 0x248 }
  - { offset: 0x52C1A, size: 0x8, addend: 0x0, symName: __RINvNtNtCs6IAuOt8vWmF_3syn3gen4fold17fold_impl_item_fnNtNvCs3yqPx1X2sxh_15zerofrom_derive25replace_lifetime_and_type20ReplaceLifetimeAndTyEBU_, symObjAddr: 0x1B0A0, symBinAddr: 0x2F764, symSize: 0x248 }
  - { offset: 0x52C61, size: 0x8, addend: 0x0, symName: __RINvNtNtCs6IAuOt8vWmF_3syn3gen4fold17fold_lit_byte_strNtNvCs3yqPx1X2sxh_15zerofrom_derive16replace_lifetime15ReplaceLifetimeEBU_, symObjAddr: 0x1B2E8, symBinAddr: 0x2F9AC, symSize: 0xDC }
  - { offset: 0x52CDB, size: 0x8, addend: 0x0, symName: __RINvNtNtCs6IAuOt8vWmF_3syn3gen4fold17fold_lit_byte_strNtNvCs3yqPx1X2sxh_15zerofrom_derive25replace_lifetime_and_type20ReplaceLifetimeAndTyEBU_, symObjAddr: 0x1B3C4, symBinAddr: 0x2FA88, symSize: 0xDC }
  - { offset: 0x52D55, size: 0x8, addend: 0x0, symName: __RINvNtNtCs6IAuOt8vWmF_3syn3gen4fold17fold_path_segmentNtNvCs3yqPx1X2sxh_15zerofrom_derive16replace_lifetime15ReplaceLifetimeEBU_, symObjAddr: 0x1B4A0, symBinAddr: 0x2FB64, symSize: 0x118 }
  - { offset: 0x52D9C, size: 0x8, addend: 0x0, symName: __RINvNtNtCs6IAuOt8vWmF_3syn3gen4fold17fold_path_segmentNtNvCs3yqPx1X2sxh_15zerofrom_derive25replace_lifetime_and_type20ReplaceLifetimeAndTyEBU_, symObjAddr: 0x1B5B8, symBinAddr: 0x2FC7C, symSize: 0x118 }
  - { offset: 0x52DE3, size: 0x8, addend: 0x0, symName: __RINvNtNtCs6IAuOt8vWmF_3syn3gen4fold17fold_range_limitsNtNvCs3yqPx1X2sxh_15zerofrom_derive16replace_lifetime15ReplaceLifetimeEBU_, symObjAddr: 0x1B6D0, symBinAddr: 0x2FD94, symSize: 0x9C }
  - { offset: 0x52E66, size: 0x8, addend: 0x0, symName: __RINvNtNtCs6IAuOt8vWmF_3syn3gen4fold17fold_range_limitsNtNvCs3yqPx1X2sxh_15zerofrom_derive25replace_lifetime_and_type20ReplaceLifetimeAndTyEBU_, symObjAddr: 0x1B76C, symBinAddr: 0x2FE30, symSize: 0x9C }
  - { offset: 0x52EE9, size: 0x8, addend: 0x0, symName: __RINvNtNtCs6IAuOt8vWmF_3syn3gen4fold17fold_type_bare_fnNtNvCs3yqPx1X2sxh_15zerofrom_derive16replace_lifetime15ReplaceLifetimeEBU_, symObjAddr: 0x1B808, symBinAddr: 0x2FECC, symSize: 0x2FC }
  - { offset: 0x52F30, size: 0x8, addend: 0x0, symName: __RINvNtNtCs6IAuOt8vWmF_3syn3gen4fold17fold_type_bare_fnNtNvCs3yqPx1X2sxh_15zerofrom_derive25replace_lifetime_and_type20ReplaceLifetimeAndTyEBU_, symObjAddr: 0x1BB04, symBinAddr: 0x301C8, symSize: 0x2FC }
  - { offset: 0x52F77, size: 0x8, addend: 0x0, symName: __RINvNtNtCs6IAuOt8vWmF_3syn3gen4fold17fold_where_clauseNtNvCs3yqPx1X2sxh_15zerofrom_derive16replace_lifetime15ReplaceLifetimeEBU_, symObjAddr: 0x1BE00, symBinAddr: 0x304C4, symSize: 0x80 }
  - { offset: 0x52FBE, size: 0x8, addend: 0x0, symName: __RINvNtNtCs6IAuOt8vWmF_3syn3gen4fold17fold_where_clauseNtNvCs3yqPx1X2sxh_15zerofrom_derive25replace_lifetime_and_type20ReplaceLifetimeAndTyEBU_, symObjAddr: 0x1BE80, symBinAddr: 0x30544, symSize: 0x80 }
  - { offset: 0x53005, size: 0x8, addend: 0x0, symName: __RINvNtNtCs6IAuOt8vWmF_3syn3gen4fold18fold_bare_variadicNtNvCs3yqPx1X2sxh_15zerofrom_derive16replace_lifetime15ReplaceLifetimeEBV_, symObjAddr: 0x1BF00, symBinAddr: 0x305C4, symSize: 0x144 }
  - { offset: 0x5304C, size: 0x8, addend: 0x0, symName: __RINvNtNtCs6IAuOt8vWmF_3syn3gen4fold18fold_bare_variadicNtNvCs3yqPx1X2sxh_15zerofrom_derive25replace_lifetime_and_type20ReplaceLifetimeAndTyEBV_, symObjAddr: 0x1C044, symBinAddr: 0x30708, symSize: 0x144 }
  - { offset: 0x53093, size: 0x8, addend: 0x0, symName: __RINvNtNtCs6IAuOt8vWmF_3syn3gen4fold18fold_expr_continueNtNvCs3yqPx1X2sxh_15zerofrom_derive16replace_lifetime15ReplaceLifetimeEBV_, symObjAddr: 0x1C188, symBinAddr: 0x3084C, symSize: 0x120 }
  - { offset: 0x530DA, size: 0x8, addend: 0x0, symName: __RINvNtNtCs6IAuOt8vWmF_3syn3gen4fold18fold_expr_continueNtNvCs3yqPx1X2sxh_15zerofrom_derive25replace_lifetime_and_type20ReplaceLifetimeAndTyEBV_, symObjAddr: 0x1C2A8, symBinAddr: 0x3096C, symSize: 0x120 }
  - { offset: 0x53121, size: 0x8, addend: 0x0, symName: __RINvNtNtCs6IAuOt8vWmF_3syn3gen4fold18fold_expr_for_loopNtNvCs3yqPx1X2sxh_15zerofrom_derive16replace_lifetime15ReplaceLifetimeEBV_, symObjAddr: 0x1C3C8, symBinAddr: 0x30A8C, symSize: 0x4C4 }
  - { offset: 0x531A7, size: 0x8, addend: 0x0, symName: __RINvNtNtCs6IAuOt8vWmF_3syn3gen4fold18fold_expr_for_loopNtNvCs3yqPx1X2sxh_15zerofrom_derive25replace_lifetime_and_type20ReplaceLifetimeAndTyEBV_, symObjAddr: 0x1C88C, symBinAddr: 0x30F50, symSize: 0x4C4 }
  - { offset: 0x5322D, size: 0x8, addend: 0x0, symName: __RINvNtNtCs6IAuOt8vWmF_3syn3gen4fold18fold_expr_raw_addrNtNvCs3yqPx1X2sxh_15zerofrom_derive16replace_lifetime15ReplaceLifetimeEBV_, symObjAddr: 0x1CD50, symBinAddr: 0x31414, symSize: 0x248 }
  - { offset: 0x53293, size: 0x8, addend: 0x0, symName: __RINvNtNtCs6IAuOt8vWmF_3syn3gen4fold18fold_expr_raw_addrNtNvCs3yqPx1X2sxh_15zerofrom_derive25replace_lifetime_and_type20ReplaceLifetimeAndTyEBV_, symObjAddr: 0x1CF98, symBinAddr: 0x3165C, symSize: 0x248 }
  - { offset: 0x532F9, size: 0x8, addend: 0x0, symName: __RINvNtNtCs6IAuOt8vWmF_3syn3gen4fold18fold_generic_paramNtNvCs3yqPx1X2sxh_15zerofrom_derive16replace_lifetime15ReplaceLifetimeEBV_, symObjAddr: 0x1D1E0, symBinAddr: 0x318A4, symSize: 0x194 }
  - { offset: 0x53395, size: 0x8, addend: 0x0, symName: __RINvNtNtCs6IAuOt8vWmF_3syn3gen4fold18fold_generic_paramNtNvCs3yqPx1X2sxh_15zerofrom_derive25replace_lifetime_and_type20ReplaceLifetimeAndTyEBV_, symObjAddr: 0x1D374, symBinAddr: 0x31A38, symSize: 0x194 }
  - { offset: 0x53431, size: 0x8, addend: 0x0, symName: __RINvNtNtCs6IAuOt8vWmF_3syn3gen4fold18fold_pat_referenceNtNvCs3yqPx1X2sxh_15zerofrom_derive16replace_lifetime15ReplaceLifetimeEBV_, symObjAddr: 0x1D508, symBinAddr: 0x31BCC, symSize: 0x228 }
  - { offset: 0x53497, size: 0x8, addend: 0x0, symName: __RINvNtNtCs6IAuOt8vWmF_3syn3gen4fold18fold_pat_referenceNtNvCs3yqPx1X2sxh_15zerofrom_derive25replace_lifetime_and_type20ReplaceLifetimeAndTyEBV_, symObjAddr: 0x1D730, symBinAddr: 0x31DF4, symSize: 0x228 }
  - { offset: 0x534FD, size: 0x8, addend: 0x0, symName: __RINvNtNtCs6IAuOt8vWmF_3syn3gen4fold18fold_trait_item_fnNtNvCs3yqPx1X2sxh_15zerofrom_derive16replace_lifetime15ReplaceLifetimeEBV_, symObjAddr: 0x1D958, symBinAddr: 0x3201C, symSize: 0x1BC }
  - { offset: 0x53544, size: 0x8, addend: 0x0, symName: __RINvNtNtCs6IAuOt8vWmF_3syn3gen4fold18fold_trait_item_fnNtNvCs3yqPx1X2sxh_15zerofrom_derive25replace_lifetime_and_type20ReplaceLifetimeAndTyEBV_, symObjAddr: 0x1DB14, symBinAddr: 0x321D8, symSize: 0x1BC }
  - { offset: 0x5358B, size: 0x8, addend: 0x0, symName: __RINvNtNtCs6IAuOt8vWmF_3syn3gen4fold19fold_captured_paramNtNvCs3yqPx1X2sxh_15zerofrom_derive16replace_lifetime15ReplaceLifetimeEBW_, symObjAddr: 0x1DCD0, symBinAddr: 0x32394, symSize: 0xE0 }
  - { offset: 0x53606, size: 0x8, addend: 0x0, symName: __RINvNtNtCs6IAuOt8vWmF_3syn3gen4fold19fold_captured_paramNtNvCs3yqPx1X2sxh_15zerofrom_derive25replace_lifetime_and_type20ReplaceLifetimeAndTyEBW_, symObjAddr: 0x1DDB0, symBinAddr: 0x32474, symSize: 0xE0 }
  - { offset: 0x53681, size: 0x8, addend: 0x0, symName: __RINvNtNtCs6IAuOt8vWmF_3syn3gen4fold19fold_expr_referenceNtNvCs3yqPx1X2sxh_15zerofrom_derive16replace_lifetime15ReplaceLifetimeEBW_, symObjAddr: 0x1DE90, symBinAddr: 0x32554, symSize: 0x228 }
  - { offset: 0x536E7, size: 0x8, addend: 0x0, symName: __RINvNtNtCs6IAuOt8vWmF_3syn3gen4fold19fold_expr_referenceNtNvCs3yqPx1X2sxh_15zerofrom_derive25replace_lifetime_and_type20ReplaceLifetimeAndTyEBW_, symObjAddr: 0x1E0B8, symBinAddr: 0x3277C, symSize: 0x228 }
  - { offset: 0x5374D, size: 0x8, addend: 0x0, symName: __RINvNtNtCs6IAuOt8vWmF_3syn3gen4fold19fold_expr_try_blockNtNvCs3yqPx1X2sxh_15zerofrom_derive16replace_lifetime15ReplaceLifetimeEBW_, symObjAddr: 0x1E2E0, symBinAddr: 0x329A4, symSize: 0x12C }
  - { offset: 0x53794, size: 0x8, addend: 0x0, symName: __RINvNtNtCs6IAuOt8vWmF_3syn3gen4fold19fold_expr_try_blockNtNvCs3yqPx1X2sxh_15zerofrom_derive25replace_lifetime_and_type20ReplaceLifetimeAndTyEBW_, symObjAddr: 0x1E40C, symBinAddr: 0x32AD0, symSize: 0x12C }
  - { offset: 0x537DB, size: 0x8, addend: 0x0, symName: __RINvNtNtCs6IAuOt8vWmF_3syn3gen4fold19fold_fields_unnamedNtNvCs3yqPx1X2sxh_15zerofrom_derive16replace_lifetime15ReplaceLifetimeEBW_, symObjAddr: 0x1E538, symBinAddr: 0x32BFC, symSize: 0x90 }
  - { offset: 0x53822, size: 0x8, addend: 0x0, symName: __RINvNtNtCs6IAuOt8vWmF_3syn3gen4fold19fold_fields_unnamedNtNvCs3yqPx1X2sxh_15zerofrom_derive25replace_lifetime_and_type20ReplaceLifetimeAndTyEBW_, symObjAddr: 0x1E5C8, symBinAddr: 0x32C8C, symSize: 0x90 }
  - { offset: 0x53869, size: 0x8, addend: 0x0, symName: __RINvNtNtCs6IAuOt8vWmF_3syn3gen4fold19fold_impl_item_typeNtNvCs3yqPx1X2sxh_15zerofrom_derive16replace_lifetime15ReplaceLifetimeEBW_, symObjAddr: 0x1E658, symBinAddr: 0x32D1C, symSize: 0x304 }
  - { offset: 0x538B0, size: 0x8, addend: 0x0, symName: __RINvNtNtCs6IAuOt8vWmF_3syn3gen4fold19fold_impl_item_typeNtNvCs3yqPx1X2sxh_15zerofrom_derive25replace_lifetime_and_type20ReplaceLifetimeAndTyEBW_, symObjAddr: 0x1E95C, symBinAddr: 0x33020, symSize: 0x304 }
  - { offset: 0x538F7, size: 0x8, addend: 0x0, symName: __RINvNtNtCs6IAuOt8vWmF_3syn3gen4fold19fold_lifetime_paramNtNvCs3yqPx1X2sxh_15zerofrom_derive16replace_lifetime15ReplaceLifetimeEBW_, symObjAddr: 0x1EC60, symBinAddr: 0x33324, symSize: 0x1B4 }
  - { offset: 0x5393E, size: 0x8, addend: 0x0, symName: __RINvNtNtCs6IAuOt8vWmF_3syn3gen4fold19fold_lifetime_paramNtNvCs3yqPx1X2sxh_15zerofrom_derive25replace_lifetime_and_type20ReplaceLifetimeAndTyEBW_, symObjAddr: 0x1EE14, symBinAddr: 0x334D8, symSize: 0x1B4 }
  - { offset: 0x53985, size: 0x8, addend: 0x0, symName: __RINvNtNtCs6IAuOt8vWmF_3syn3gen4fold19fold_path_argumentsNtNvCs3yqPx1X2sxh_15zerofrom_derive16replace_lifetime15ReplaceLifetimeEBW_, symObjAddr: 0x1EFC8, symBinAddr: 0x3368C, symSize: 0x14C }
  - { offset: 0x53A02, size: 0x8, addend: 0x0, symName: __RINvNtNtCs6IAuOt8vWmF_3syn3gen4fold19fold_path_argumentsNtNvCs3yqPx1X2sxh_15zerofrom_derive25replace_lifetime_and_type20ReplaceLifetimeAndTyEBW_, symObjAddr: 0x1F114, symBinAddr: 0x337D8, symSize: 0x14C }
  - { offset: 0x53A7F, size: 0x8, addend: 0x0, symName: __RINvNtNtCs6IAuOt8vWmF_3syn3gen4fold19fold_predicate_typeNtNvCs3yqPx1X2sxh_15zerofrom_derive16replace_lifetime15ReplaceLifetimeEBW_, symObjAddr: 0x1F260, symBinAddr: 0x33924, symSize: 0x1C4 }
  - { offset: 0x53AC6, size: 0x8, addend: 0x0, symName: __RINvNtNtCs6IAuOt8vWmF_3syn3gen4fold19fold_predicate_typeNtNvCs3yqPx1X2sxh_15zerofrom_derive25replace_lifetime_and_type20ReplaceLifetimeAndTyEBW_, symObjAddr: 0x1F424, symBinAddr: 0x33AE8, symSize: 0x1C4 }
  - { offset: 0x53B0D, size: 0x8, addend: 0x0, symName: __RINvNtNtCs6IAuOt8vWmF_3syn3gen4fold19fold_type_referenceNtNvCs3yqPx1X2sxh_15zerofrom_derive16replace_lifetime15ReplaceLifetimeEBW_, symObjAddr: 0x1F5E8, symBinAddr: 0x33CAC, symSize: 0x248 }
  - { offset: 0x53B73, size: 0x8, addend: 0x0, symName: __RINvNtNtCs6IAuOt8vWmF_3syn3gen4fold19fold_type_referenceNtNvCs3yqPx1X2sxh_15zerofrom_derive25replace_lifetime_and_type20ReplaceLifetimeAndTyEBW_, symObjAddr: 0x1F830, symBinAddr: 0x33EF4, symSize: 0x248 }
  - { offset: 0x53BD9, size: 0x8, addend: 0x0, symName: __RINvNtNtCs6IAuOt8vWmF_3syn3gen4fold19fold_vis_restrictedNtNvCs3yqPx1X2sxh_15zerofrom_derive16replace_lifetime15ReplaceLifetimeEBW_, symObjAddr: 0x1FA78, symBinAddr: 0x3413C, symSize: 0x1C4 }
  - { offset: 0x53C3F, size: 0x8, addend: 0x0, symName: __RINvNtNtCs6IAuOt8vWmF_3syn3gen4fold19fold_vis_restrictedNtNvCs3yqPx1X2sxh_15zerofrom_derive25replace_lifetime_and_type20ReplaceLifetimeAndTyEBW_, symObjAddr: 0x1FC3C, symBinAddr: 0x34300, symSize: 0x1C4 }
  - { offset: 0x53CA5, size: 0x8, addend: 0x0, symName: __RINvNtNtCs6IAuOt8vWmF_3syn3gen4fold20fold_bound_lifetimesNtNvCs3yqPx1X2sxh_15zerofrom_derive16replace_lifetime15ReplaceLifetimeEBX_, symObjAddr: 0x1FE00, symBinAddr: 0x344C4, symSize: 0xA8 }
  - { offset: 0x53CEC, size: 0x8, addend: 0x0, symName: __RINvNtNtCs6IAuOt8vWmF_3syn3gen4fold20fold_bound_lifetimesNtNvCs3yqPx1X2sxh_15zerofrom_derive25replace_lifetime_and_type20ReplaceLifetimeAndTyEBX_, symObjAddr: 0x1FEA8, symBinAddr: 0x3456C, symSize: 0xA8 }
  - { offset: 0x53D33, size: 0x8, addend: 0x0, symName: __RINvNtNtCs6IAuOt8vWmF_3syn3gen4fold20fold_foreign_item_fnNtNvCs3yqPx1X2sxh_15zerofrom_derive16replace_lifetime15ReplaceLifetimeEBX_, symObjAddr: 0x1FF50, symBinAddr: 0x34614, symSize: 0x1B4 }
  - { offset: 0x53D7A, size: 0x8, addend: 0x0, symName: __RINvNtNtCs6IAuOt8vWmF_3syn3gen4fold20fold_foreign_item_fnNtNvCs3yqPx1X2sxh_15zerofrom_derive25replace_lifetime_and_type20ReplaceLifetimeAndTyEBX_, symObjAddr: 0x20104, symBinAddr: 0x347C8, symSize: 0x1B4 }
  - { offset: 0x53DC1, size: 0x8, addend: 0x0, symName: __RINvNtNtCs6IAuOt8vWmF_3syn3gen4fold20fold_impl_item_constNtNvCs3yqPx1X2sxh_15zerofrom_derive16replace_lifetime15ReplaceLifetimeEBX_, symObjAddr: 0x202B8, symBinAddr: 0x3497C, symSize: 0x3A4 }
  - { offset: 0x53E08, size: 0x8, addend: 0x0, symName: __RINvNtNtCs6IAuOt8vWmF_3syn3gen4fold20fold_impl_item_constNtNvCs3yqPx1X2sxh_15zerofrom_derive25replace_lifetime_and_type20ReplaceLifetimeAndTyEBX_, symObjAddr: 0x2065C, symBinAddr: 0x34D20, symSize: 0x3A4 }
  - { offset: 0x53E4F, size: 0x8, addend: 0x0, symName: __RINvNtNtCs6IAuOt8vWmF_3syn3gen4fold20fold_impl_item_macroNtNvCs3yqPx1X2sxh_15zerofrom_derive16replace_lifetime15ReplaceLifetimeEBX_, symObjAddr: 0x20A00, symBinAddr: 0x350C4, symSize: 0x13C }
  - { offset: 0x53E96, size: 0x8, addend: 0x0, symName: __RINvNtNtCs6IAuOt8vWmF_3syn3gen4fold20fold_impl_item_macroNtNvCs3yqPx1X2sxh_15zerofrom_derive25replace_lifetime_and_type20ReplaceLifetimeAndTyEBX_, symObjAddr: 0x20B3C, symBinAddr: 0x35200, symSize: 0x13C }
  - { offset: 0x53EDD, size: 0x8, addend: 0x0, symName: __RINvNtNtCs6IAuOt8vWmF_3syn3gen4fold20fold_macro_delimiterNtNvCs3yqPx1X2sxh_15zerofrom_derive16replace_lifetime15ReplaceLifetimeEBX_, symObjAddr: 0x20C78, symBinAddr: 0x3533C, symSize: 0x10C }
  - { offset: 0x53F7F, size: 0x8, addend: 0x0, symName: __RINvNtNtCs6IAuOt8vWmF_3syn3gen4fold20fold_macro_delimiterNtNvCs3yqPx1X2sxh_15zerofrom_derive25replace_lifetime_and_type20ReplaceLifetimeAndTyEBX_, symObjAddr: 0x20D84, symBinAddr: 0x35448, symSize: 0x10C }
  - { offset: 0x54021, size: 0x8, addend: 0x0, symName: __RINvNtNtCs6IAuOt8vWmF_3syn3gen4fold20fold_meta_name_valueNtNvCs3yqPx1X2sxh_15zerofrom_derive16replace_lifetime15ReplaceLifetimeEBX_, symObjAddr: 0x20E90, symBinAddr: 0x35554, symSize: 0x134 }
  - { offset: 0x54068, size: 0x8, addend: 0x0, symName: __RINvNtNtCs6IAuOt8vWmF_3syn3gen4fold20fold_meta_name_valueNtNvCs3yqPx1X2sxh_15zerofrom_derive25replace_lifetime_and_type20ReplaceLifetimeAndTyEBX_, symObjAddr: 0x20FC4, symBinAddr: 0x35688, symSize: 0x134 }
  - { offset: 0x540AF, size: 0x8, addend: 0x0, symName: __RINvNtNtCs6IAuOt8vWmF_3syn3gen4fold20fold_precise_captureNtNvCs3yqPx1X2sxh_15zerofrom_derive16replace_lifetime15ReplaceLifetimeEBX_, symObjAddr: 0x210F8, symBinAddr: 0x357BC, symSize: 0xA8 }
  - { offset: 0x540F6, size: 0x8, addend: 0x0, symName: __RINvNtNtCs6IAuOt8vWmF_3syn3gen4fold20fold_precise_captureNtNvCs3yqPx1X2sxh_15zerofrom_derive25replace_lifetime_and_type20ReplaceLifetimeAndTyEBX_, symObjAddr: 0x211A0, symBinAddr: 0x35864, symSize: 0xA8 }
  - { offset: 0x5413D, size: 0x8, addend: 0x0, symName: __RINvNtNtCs6IAuOt8vWmF_3syn3gen4fold20fold_trait_item_typeNtNvCs3yqPx1X2sxh_15zerofrom_derive16replace_lifetime15ReplaceLifetimeEBX_, symObjAddr: 0x21248, symBinAddr: 0x3590C, symSize: 0x2EC }
  - { offset: 0x54184, size: 0x8, addend: 0x0, symName: __RINvNtNtCs6IAuOt8vWmF_3syn3gen4fold20fold_trait_item_typeNtNvCs3yqPx1X2sxh_15zerofrom_derive25replace_lifetime_and_type20ReplaceLifetimeAndTyEBX_, symObjAddr: 0x21534, symBinAddr: 0x35BF8, symSize: 0x2EC }
  - { offset: 0x541CB, size: 0x8, addend: 0x0, symName: __RINvNtNtCs6IAuOt8vWmF_3syn3gen4fold20fold_type_impl_traitNtNvCs3yqPx1X2sxh_15zerofrom_derive16replace_lifetime15ReplaceLifetimeEBX_, symObjAddr: 0x21820, symBinAddr: 0x35EE4, symSize: 0x80 }
  - { offset: 0x54212, size: 0x8, addend: 0x0, symName: __RINvNtNtCs6IAuOt8vWmF_3syn3gen4fold20fold_type_impl_traitNtNvCs3yqPx1X2sxh_15zerofrom_derive25replace_lifetime_and_type20ReplaceLifetimeAndTyEBX_, symObjAddr: 0x218A0, symBinAddr: 0x35F64, symSize: 0x80 }
  - { offset: 0x54259, size: 0x8, addend: 0x0, symName: __RINvNtNtCs6IAuOt8vWmF_3syn3gen4fold20fold_where_predicateNtNvCs3yqPx1X2sxh_15zerofrom_derive16replace_lifetime15ReplaceLifetimeEBX_, symObjAddr: 0x21920, symBinAddr: 0x35FE4, symSize: 0x104 }
  - { offset: 0x542D6, size: 0x8, addend: 0x0, symName: __RINvNtNtCs6IAuOt8vWmF_3syn3gen4fold20fold_where_predicateNtNvCs3yqPx1X2sxh_15zerofrom_derive25replace_lifetime_and_type20ReplaceLifetimeAndTyEBX_, symObjAddr: 0x21A24, symBinAddr: 0x360E8, symSize: 0x104 }
  - { offset: 0x54353, size: 0x8, addend: 0x0, symName: __RINvNtNtCs6IAuOt8vWmF_3syn3gen4fold21fold_expr_method_callNtNvCs3yqPx1X2sxh_15zerofrom_derive16replace_lifetime15ReplaceLifetimeEBY_, symObjAddr: 0x21B28, symBinAddr: 0x361EC, symSize: 0x3CC }
  - { offset: 0x543B9, size: 0x8, addend: 0x0, symName: __RINvNtNtCs6IAuOt8vWmF_3syn3gen4fold21fold_expr_method_callNtNvCs3yqPx1X2sxh_15zerofrom_derive25replace_lifetime_and_type20ReplaceLifetimeAndTyEBY_, symObjAddr: 0x21EF4, symBinAddr: 0x365B8, symSize: 0x3CC }
  - { offset: 0x5441F, size: 0x8, addend: 0x0, symName: __RINvNtNtCs6IAuOt8vWmF_3syn3gen4fold21fold_field_mutabilityNtNvCs3yqPx1X2sxh_15zerofrom_derive16replace_lifetime15ReplaceLifetimeEBY_, symObjAddr: 0x222C0, symBinAddr: 0x36984, symSize: 0x20 }
  - { offset: 0x5446D, size: 0x8, addend: 0x0, symName: __RINvNtNtCs6IAuOt8vWmF_3syn3gen4fold21fold_field_mutabilityNtNvCs3yqPx1X2sxh_15zerofrom_derive25replace_lifetime_and_type20ReplaceLifetimeAndTyEBY_, symObjAddr: 0x222E0, symBinAddr: 0x369A4, symSize: 0x20 }
  - { offset: 0x544BB, size: 0x8, addend: 0x0, symName: __RINvNtNtCs6IAuOt8vWmF_3syn3gen4fold21fold_generic_argumentNtNvCs3yqPx1X2sxh_15zerofrom_derive16replace_lifetime15ReplaceLifetimeEBY_, symObjAddr: 0x22300, symBinAddr: 0x369C4, symSize: 0x2F4 }
  - { offset: 0x545B4, size: 0x8, addend: 0x0, symName: __RINvNtNtCs6IAuOt8vWmF_3syn3gen4fold21fold_generic_argumentNtNvCs3yqPx1X2sxh_15zerofrom_derive25replace_lifetime_and_type20ReplaceLifetimeAndTyEBY_, symObjAddr: 0x225F4, symBinAddr: 0x36CB8, symSize: 0x2F4 }
  - { offset: 0x546AD, size: 0x8, addend: 0x0, symName: __RINvNtNtCs6IAuOt8vWmF_3syn3gen4fold21fold_item_foreign_modNtNvCs3yqPx1X2sxh_15zerofrom_derive16replace_lifetime15ReplaceLifetimeEBY_, symObjAddr: 0x22900, symBinAddr: 0x36FAC, symSize: 0x1D4 }
  - { offset: 0x546F4, size: 0x8, addend: 0x0, symName: __RINvNtNtCs6IAuOt8vWmF_3syn3gen4fold21fold_item_foreign_modNtNvCs3yqPx1X2sxh_15zerofrom_derive25replace_lifetime_and_type20ReplaceLifetimeAndTyEBY_, symObjAddr: 0x22AD4, symBinAddr: 0x37180, symSize: 0x1D4 }
  - { offset: 0x5473B, size: 0x8, addend: 0x0, symName: __RINvNtNtCs6IAuOt8vWmF_3syn3gen4fold21fold_item_trait_aliasNtNvCs3yqPx1X2sxh_15zerofrom_derive16replace_lifetime15ReplaceLifetimeEBY_, symObjAddr: 0x22CA8, symBinAddr: 0x37354, symSize: 0x2E4 }
  - { offset: 0x54782, size: 0x8, addend: 0x0, symName: __RINvNtNtCs6IAuOt8vWmF_3syn3gen4fold21fold_item_trait_aliasNtNvCs3yqPx1X2sxh_15zerofrom_derive25replace_lifetime_and_type20ReplaceLifetimeAndTyEBY_, symObjAddr: 0x22F8C, symBinAddr: 0x37638, symSize: 0x2E4 }
  - { offset: 0x547C9, size: 0x8, addend: 0x0, symName: __RINvNtNtCs6IAuOt8vWmF_3syn3gen4fold21fold_pat_tuple_structNtNvCs3yqPx1X2sxh_15zerofrom_derive16replace_lifetime15ReplaceLifetimeEBY_, symObjAddr: 0x23270, symBinAddr: 0x3791C, symSize: 0x250 }
  - { offset: 0x54810, size: 0x8, addend: 0x0, symName: __RINvNtNtCs6IAuOt8vWmF_3syn3gen4fold21fold_pat_tuple_structNtNvCs3yqPx1X2sxh_15zerofrom_derive25replace_lifetime_and_type20ReplaceLifetimeAndTyEBY_, symObjAddr: 0x234C0, symBinAddr: 0x37B6C, symSize: 0x250 }
  - { offset: 0x54857, size: 0x8, addend: 0x0, symName: __RINvNtNtCs6IAuOt8vWmF_3syn3gen4fold21fold_trait_item_constNtNvCs3yqPx1X2sxh_15zerofrom_derive16replace_lifetime15ReplaceLifetimeEBY_, symObjAddr: 0x23710, symBinAddr: 0x37DBC, symSize: 0x2F8 }
  - { offset: 0x5489E, size: 0x8, addend: 0x0, symName: __RINvNtNtCs6IAuOt8vWmF_3syn3gen4fold21fold_trait_item_constNtNvCs3yqPx1X2sxh_15zerofrom_derive25replace_lifetime_and_type20ReplaceLifetimeAndTyEBY_, symObjAddr: 0x23A08, symBinAddr: 0x380B4, symSize: 0x2F8 }
  - { offset: 0x548E5, size: 0x8, addend: 0x0, symName: __RINvNtNtCs6IAuOt8vWmF_3syn3gen4fold21fold_trait_item_macroNtNvCs3yqPx1X2sxh_15zerofrom_derive16replace_lifetime15ReplaceLifetimeEBY_, symObjAddr: 0x23D00, symBinAddr: 0x383AC, symSize: 0x13C }
  - { offset: 0x5492C, size: 0x8, addend: 0x0, symName: __RINvNtNtCs6IAuOt8vWmF_3syn3gen4fold21fold_trait_item_macroNtNvCs3yqPx1X2sxh_15zerofrom_derive25replace_lifetime_and_type20ReplaceLifetimeAndTyEBY_, symObjAddr: 0x23E3C, symBinAddr: 0x384E8, symSize: 0x13C }
  - { offset: 0x54973, size: 0x8, addend: 0x0, symName: __RINvNtNtCs6IAuOt8vWmF_3syn3gen4fold21fold_type_param_boundNtNvCs3yqPx1X2sxh_15zerofrom_derive16replace_lifetime15ReplaceLifetimeEBY_, symObjAddr: 0x23F78, symBinAddr: 0x38624, symSize: 0x1F8 }
  - { offset: 0x54A2E, size: 0x8, addend: 0x0, symName: __RINvNtNtCs6IAuOt8vWmF_3syn3gen4fold21fold_type_param_boundNtNvCs3yqPx1X2sxh_15zerofrom_derive25replace_lifetime_and_type20ReplaceLifetimeAndTyEBY_, symObjAddr: 0x24170, symBinAddr: 0x3881C, symSize: 0x1F8 }
  - { offset: 0x54AE9, size: 0x8, addend: 0x0, symName: __RINvNtNtCs6IAuOt8vWmF_3syn3gen4fold22fold_foreign_item_typeNtNvCs3yqPx1X2sxh_15zerofrom_derive16replace_lifetime15ReplaceLifetimeEBZ_, symObjAddr: 0x24368, symBinAddr: 0x38A14, symSize: 0x244 }
  - { offset: 0x54B30, size: 0x8, addend: 0x0, symName: __RINvNtNtCs6IAuOt8vWmF_3syn3gen4fold22fold_foreign_item_typeNtNvCs3yqPx1X2sxh_15zerofrom_derive25replace_lifetime_and_type20ReplaceLifetimeAndTyEBZ_, symObjAddr: 0x245AC, symBinAddr: 0x38C58, symSize: 0x244 }
  - { offset: 0x54B77, size: 0x8, addend: 0x0, symName: __RINvNtNtCs6IAuOt8vWmF_3syn3gen4fold22fold_item_extern_crateNtNvCs3yqPx1X2sxh_15zerofrom_derive16replace_lifetime15ReplaceLifetimeEBZ_, symObjAddr: 0x247F0, symBinAddr: 0x38E9C, symSize: 0x258 }
  - { offset: 0x54BBE, size: 0x8, addend: 0x0, symName: __RINvNtNtCs6IAuOt8vWmF_3syn3gen4fold22fold_item_extern_crateNtNvCs3yqPx1X2sxh_15zerofrom_derive25replace_lifetime_and_type20ReplaceLifetimeAndTyEBZ_, symObjAddr: 0x24A48, symBinAddr: 0x390F4, symSize: 0x258 }
  - { offset: 0x54C05, size: 0x8, addend: 0x0, symName: __RINvNtNtCs6IAuOt8vWmF_3syn3gen4fold22fold_static_mutabilityNtNvCs3yqPx1X2sxh_15zerofrom_derive16replace_lifetime15ReplaceLifetimeEBZ_, symObjAddr: 0x24CA0, symBinAddr: 0x3934C, symSize: 0x70 }
  - { offset: 0x54C69, size: 0x8, addend: 0x0, symName: __RINvNtNtCs6IAuOt8vWmF_3syn3gen4fold22fold_static_mutabilityNtNvCs3yqPx1X2sxh_15zerofrom_derive25replace_lifetime_and_type20ReplaceLifetimeAndTyEBZ_, symObjAddr: 0x24D10, symBinAddr: 0x393BC, symSize: 0x70 }
  - { offset: 0x54CCD, size: 0x8, addend: 0x0, symName: __RINvNtNtCs6IAuOt8vWmF_3syn3gen4fold22fold_type_trait_objectNtNvCs3yqPx1X2sxh_15zerofrom_derive16replace_lifetime15ReplaceLifetimeEBZ_, symObjAddr: 0x24D80, symBinAddr: 0x3942C, symSize: 0x90 }
  - { offset: 0x54D14, size: 0x8, addend: 0x0, symName: __RINvNtNtCs6IAuOt8vWmF_3syn3gen4fold22fold_type_trait_objectNtNvCs3yqPx1X2sxh_15zerofrom_derive25replace_lifetime_and_type20ReplaceLifetimeAndTyEBZ_, symObjAddr: 0x24E10, symBinAddr: 0x394BC, symSize: 0x90 }
  - { offset: 0x54D5B, size: 0x8, addend: 0x0, symName: __RINvNtNtCs6IAuOt8vWmF_3syn3gen4fold23fold_foreign_item_macroNtNvCs3yqPx1X2sxh_15zerofrom_derive16replace_lifetime15ReplaceLifetimeEB10_, symObjAddr: 0x24EA0, symBinAddr: 0x3954C, symSize: 0x13C }
  - { offset: 0x54DA2, size: 0x8, addend: 0x0, symName: __RINvNtNtCs6IAuOt8vWmF_3syn3gen4fold23fold_foreign_item_macroNtNvCs3yqPx1X2sxh_15zerofrom_derive25replace_lifetime_and_type20ReplaceLifetimeAndTyEB10_, symObjAddr: 0x24FDC, symBinAddr: 0x39688, symSize: 0x13C }
  - { offset: 0x54DE9, size: 0x8, addend: 0x0, symName: __RINvNtNtCs6IAuOt8vWmF_3syn3gen4fold23fold_pointer_mutabilityNtNvCs3yqPx1X2sxh_15zerofrom_derive16replace_lifetime15ReplaceLifetimeEB10_, symObjAddr: 0x25118, symBinAddr: 0x397C4, symSize: 0x7C }
  - { offset: 0x54E6B, size: 0x8, addend: 0x0, symName: __RINvNtNtCs6IAuOt8vWmF_3syn3gen4fold23fold_pointer_mutabilityNtNvCs3yqPx1X2sxh_15zerofrom_derive25replace_lifetime_and_type20ReplaceLifetimeAndTyEB10_, symObjAddr: 0x25194, symBinAddr: 0x39840, symSize: 0x7C }
  - { offset: 0x54EED, size: 0x8, addend: 0x0, symName: __RINvNtNtCs6IAuOt8vWmF_3syn3gen4fold23fold_predicate_lifetimeNtNvCs3yqPx1X2sxh_15zerofrom_derive16replace_lifetime15ReplaceLifetimeEB10_, symObjAddr: 0x25210, symBinAddr: 0x398BC, symSize: 0x11C }
  - { offset: 0x54F34, size: 0x8, addend: 0x0, symName: __RINvNtNtCs6IAuOt8vWmF_3syn3gen4fold23fold_predicate_lifetimeNtNvCs3yqPx1X2sxh_15zerofrom_derive25replace_lifetime_and_type20ReplaceLifetimeAndTyEB10_, symObjAddr: 0x2532C, symBinAddr: 0x399D8, symSize: 0x11C }
  - { offset: 0x54F7B, size: 0x8, addend: 0x0, symName: __RINvNtNtCs6IAuOt8vWmF_3syn3gen4fold24fold_foreign_item_staticNtNvCs3yqPx1X2sxh_15zerofrom_derive16replace_lifetime15ReplaceLifetimeEB11_, symObjAddr: 0x25448, symBinAddr: 0x39AF4, symSize: 0x350 }
  - { offset: 0x54FE1, size: 0x8, addend: 0x0, symName: __RINvNtNtCs6IAuOt8vWmF_3syn3gen4fold24fold_foreign_item_staticNtNvCs3yqPx1X2sxh_15zerofrom_derive25replace_lifetime_and_type20ReplaceLifetimeAndTyEB11_, symObjAddr: 0x25798, symBinAddr: 0x39E44, symSize: 0x350 }
  - { offset: 0x55047, size: 0x8, addend: 0x0, symName: __RINvNtNtCs6IAuOt8vWmF_3syn3gen4fold25fold_trait_bound_modifierNtNvCs3yqPx1X2sxh_15zerofrom_derive16replace_lifetime15ReplaceLifetimeEB12_, symObjAddr: 0x25AE8, symBinAddr: 0x3A194, symSize: 0x74 }
  - { offset: 0x550AB, size: 0x8, addend: 0x0, symName: __RINvNtNtCs6IAuOt8vWmF_3syn3gen4fold25fold_trait_bound_modifierNtNvCs3yqPx1X2sxh_15zerofrom_derive25replace_lifetime_and_type20ReplaceLifetimeAndTyEB12_, symObjAddr: 0x25B5C, symBinAddr: 0x3A208, symSize: 0x74 }
  - { offset: 0x5510F, size: 0x8, addend: 0x0, symName: __RINvNtNtCs6IAuOt8vWmF_3syn3gen4fold36fold_parenthesized_generic_argumentsNtNvCs3yqPx1X2sxh_15zerofrom_derive16replace_lifetime15ReplaceLifetimeEB1d_, symObjAddr: 0x25BD0, symBinAddr: 0x3A27C, symSize: 0x124 }
  - { offset: 0x55156, size: 0x8, addend: 0x0, symName: __RINvNtNtCs6IAuOt8vWmF_3syn3gen4fold36fold_parenthesized_generic_argumentsNtNvCs3yqPx1X2sxh_15zerofrom_derive25replace_lifetime_and_type20ReplaceLifetimeAndTyEB1d_, symObjAddr: 0x25CF4, symBinAddr: 0x3A3A0, symSize: 0x124 }
  - { offset: 0x5519D, size: 0x8, addend: 0x0, symName: __RINvNtNtCs6IAuOt8vWmF_3syn3gen4fold38fold_angle_bracketed_generic_argumentsNtNvCs3yqPx1X2sxh_15zerofrom_derive16replace_lifetime15ReplaceLifetimeEB1f_, symObjAddr: 0x25E18, symBinAddr: 0x3A4C4, symSize: 0xB8 }
  - { offset: 0x551E4, size: 0x8, addend: 0x0, symName: __RINvNtNtCs6IAuOt8vWmF_3syn3gen4fold38fold_angle_bracketed_generic_argumentsNtNvCs3yqPx1X2sxh_15zerofrom_derive25replace_lifetime_and_type20ReplaceLifetimeAndTyEB1f_, symObjAddr: 0x25ED0, symBinAddr: 0x3A57C, symSize: 0xB8 }
  - { offset: 0x5522B, size: 0x8, addend: 0x0, symName: __RINvNtNtCs6IAuOt8vWmF_3syn3gen4fold8fold_abiNtNvCs3yqPx1X2sxh_15zerofrom_derive16replace_lifetime15ReplaceLifetimeEBK_, symObjAddr: 0x25F88, symBinAddr: 0x3A634, symSize: 0x54 }
  - { offset: 0x55271, size: 0x8, addend: 0x0, symName: __RINvNtNtCs6IAuOt8vWmF_3syn3gen4fold8fold_abiNtNvCs3yqPx1X2sxh_15zerofrom_derive25replace_lifetime_and_type20ReplaceLifetimeAndTyEBK_, symObjAddr: 0x25FDC, symBinAddr: 0x3A688, symSize: 0x54 }
  - { offset: 0x552B7, size: 0x8, addend: 0x0, symName: __RINvNtNtCs6IAuOt8vWmF_3syn3gen4fold8fold_armNtNvCs3yqPx1X2sxh_15zerofrom_derive16replace_lifetime15ReplaceLifetimeEBK_, symObjAddr: 0x26030, symBinAddr: 0x3A6DC, symSize: 0x32C }
  - { offset: 0x5531D, size: 0x8, addend: 0x0, symName: __RINvNtNtCs6IAuOt8vWmF_3syn3gen4fold8fold_armNtNvCs3yqPx1X2sxh_15zerofrom_derive25replace_lifetime_and_type20ReplaceLifetimeAndTyEBK_, symObjAddr: 0x2635C, symBinAddr: 0x3AA08, symSize: 0x32C }
  - { offset: 0x55383, size: 0x8, addend: 0x0, symName: __RINvNtNtCs6IAuOt8vWmF_3syn3gen4fold8fold_litNtNvCs3yqPx1X2sxh_15zerofrom_derive16replace_lifetime15ReplaceLifetimeEBK_, symObjAddr: 0x26688, symBinAddr: 0x3AD34, symSize: 0x318 }
  - { offset: 0x554D1, size: 0x8, addend: 0x0, symName: __RINvNtNtCs6IAuOt8vWmF_3syn3gen4fold8fold_litNtNvCs3yqPx1X2sxh_15zerofrom_derive25replace_lifetime_and_type20ReplaceLifetimeAndTyEBK_, symObjAddr: 0x269A0, symBinAddr: 0x3B04C, symSize: 0x318 }
  - { offset: 0x5561F, size: 0x8, addend: 0x0, symName: __RINvNtNtCs6IAuOt8vWmF_3syn3gen4fold8fold_patNtNvCs3yqPx1X2sxh_15zerofrom_derive16replace_lifetime15ReplaceLifetimeEBK_, symObjAddr: 0x26CB8, symBinAddr: 0x3B364, symSize: 0x780 }
  - { offset: 0x5586D, size: 0x8, addend: 0x0, symName: __RINvNtNtCs6IAuOt8vWmF_3syn3gen4fold8fold_patNtNvCs3yqPx1X2sxh_15zerofrom_derive25replace_lifetime_and_type20ReplaceLifetimeAndTyEBK_, symObjAddr: 0x27438, symBinAddr: 0x3BAE4, symSize: 0x780 }
  - { offset: 0x55ABB, size: 0x8, addend: 0x0, symName: __RINvNtNtCs6IAuOt8vWmF_3syn3gen4fold8fold_vecNtNtB6_4attr9AttributeNtNvCs3yqPx1X2sxh_15zerofrom_derive16replace_lifetime15ReplaceLifetimeNvYB12_NtB2_4Fold14fold_attributeEB16_, symObjAddr: 0x27BB8, symBinAddr: 0x3C264, symSize: 0x80 }
  - { offset: 0x55B23, size: 0x8, addend: 0x0, symName: __RINvNtNtCs6IAuOt8vWmF_3syn3gen4fold8fold_vecNtNtB6_4attr9AttributeNtNvCs3yqPx1X2sxh_15zerofrom_derive25replace_lifetime_and_type20ReplaceLifetimeAndTyNvYB12_NtB2_4Fold14fold_attributeEB16_, symObjAddr: 0x27C38, symBinAddr: 0x3C2E4, symSize: 0x80 }
  - { offset: 0x55B8B, size: 0x8, addend: 0x0, symName: __RINvNtNtCs6IAuOt8vWmF_3syn3gen4fold8fold_vecNtNtB6_4expr3ArmNtNvCs3yqPx1X2sxh_15zerofrom_derive16replace_lifetime15ReplaceLifetimeNvYBW_NtB2_4Fold8fold_armEB10_, symObjAddr: 0x27CB8, symBinAddr: 0x3C364, symSize: 0x80 }
  - { offset: 0x55BF3, size: 0x8, addend: 0x0, symName: __RINvNtNtCs6IAuOt8vWmF_3syn3gen4fold8fold_vecNtNtB6_4expr3ArmNtNvCs3yqPx1X2sxh_15zerofrom_derive25replace_lifetime_and_type20ReplaceLifetimeAndTyNvYBW_NtB2_4Fold8fold_armEB10_, symObjAddr: 0x27D38, symBinAddr: 0x3C3E4, symSize: 0x80 }
  - { offset: 0x55C5B, size: 0x8, addend: 0x0, symName: __RINvNtNtCs6IAuOt8vWmF_3syn3gen4fold8fold_vecNtNtB6_4item11ForeignItemNtNvCs3yqPx1X2sxh_15zerofrom_derive16replace_lifetime15ReplaceLifetimeNvYB15_NtB2_4Fold17fold_foreign_itemEB19_, symObjAddr: 0x27DB8, symBinAddr: 0x3C464, symSize: 0x80 }
  - { offset: 0x55CC3, size: 0x8, addend: 0x0, symName: __RINvNtNtCs6IAuOt8vWmF_3syn3gen4fold8fold_vecNtNtB6_4item11ForeignItemNtNvCs3yqPx1X2sxh_15zerofrom_derive25replace_lifetime_and_type20ReplaceLifetimeAndTyNvYB15_NtB2_4Fold17fold_foreign_itemEB19_, symObjAddr: 0x27E38, symBinAddr: 0x3C4E4, symSize: 0x80 }
  - { offset: 0x55D2B, size: 0x8, addend: 0x0, symName: __RINvNtNtCs6IAuOt8vWmF_3syn3gen4fold8fold_vecNtNtB6_4item4ItemNtNvCs3yqPx1X2sxh_15zerofrom_derive16replace_lifetime15ReplaceLifetimeNvYBX_NtB2_4Fold9fold_itemEB11_, symObjAddr: 0x27EB8, symBinAddr: 0x3C564, symSize: 0x80 }
  - { offset: 0x55D93, size: 0x8, addend: 0x0, symName: __RINvNtNtCs6IAuOt8vWmF_3syn3gen4fold8fold_vecNtNtB6_4item4ItemNtNvCs3yqPx1X2sxh_15zerofrom_derive25replace_lifetime_and_type20ReplaceLifetimeAndTyNvYBX_NtB2_4Fold9fold_itemEB11_, symObjAddr: 0x27F38, symBinAddr: 0x3C5E4, symSize: 0x80 }
  - { offset: 0x55DFB, size: 0x8, addend: 0x0, symName: __RINvNtNtCs6IAuOt8vWmF_3syn3gen4fold8fold_vecNtNtB6_4item8ImplItemNtNvCs3yqPx1X2sxh_15zerofrom_derive16replace_lifetime15ReplaceLifetimeNvYB11_NtB2_4Fold14fold_impl_itemEB15_, symObjAddr: 0x27FB8, symBinAddr: 0x3C664, symSize: 0x80 }
  - { offset: 0x55E63, size: 0x8, addend: 0x0, symName: __RINvNtNtCs6IAuOt8vWmF_3syn3gen4fold8fold_vecNtNtB6_4item8ImplItemNtNvCs3yqPx1X2sxh_15zerofrom_derive25replace_lifetime_and_type20ReplaceLifetimeAndTyNvYB11_NtB2_4Fold14fold_impl_itemEB15_, symObjAddr: 0x28038, symBinAddr: 0x3C6E4, symSize: 0x80 }
  - { offset: 0x55ECB, size: 0x8, addend: 0x0, symName: __RINvNtNtCs6IAuOt8vWmF_3syn3gen4fold8fold_vecNtNtB6_4item9TraitItemNtNvCs3yqPx1X2sxh_15zerofrom_derive16replace_lifetime15ReplaceLifetimeNvYB12_NtB2_4Fold15fold_trait_itemEB16_, symObjAddr: 0x280B8, symBinAddr: 0x3C764, symSize: 0x80 }
  - { offset: 0x55F33, size: 0x8, addend: 0x0, symName: __RINvNtNtCs6IAuOt8vWmF_3syn3gen4fold8fold_vecNtNtB6_4item9TraitItemNtNvCs3yqPx1X2sxh_15zerofrom_derive25replace_lifetime_and_type20ReplaceLifetimeAndTyNvYB12_NtB2_4Fold15fold_trait_itemEB16_, symObjAddr: 0x28138, symBinAddr: 0x3C7E4, symSize: 0x80 }
  - { offset: 0x55F9B, size: 0x8, addend: 0x0, symName: __RINvNtNtCs6IAuOt8vWmF_3syn3gen4fold8fold_vecNtNtB6_4stmt4StmtNtNvCs3yqPx1X2sxh_15zerofrom_derive16replace_lifetime15ReplaceLifetimeNvYBX_NtB2_4Fold9fold_stmtEB11_, symObjAddr: 0x281B8, symBinAddr: 0x3C864, symSize: 0x80 }
  - { offset: 0x56003, size: 0x8, addend: 0x0, symName: __RINvNtNtCs6IAuOt8vWmF_3syn3gen4fold8fold_vecNtNtB6_4stmt4StmtNtNvCs3yqPx1X2sxh_15zerofrom_derive25replace_lifetime_and_type20ReplaceLifetimeAndTyNvYBX_NtB2_4Fold9fold_stmtEB11_, symObjAddr: 0x28238, symBinAddr: 0x3C8E4, symSize: 0x80 }
  - { offset: 0x5606B, size: 0x8, addend: 0x0, symName: __RINvNtNtCs6IAuOt8vWmF_3syn3gen4fold9fold_exprNtNvCs3yqPx1X2sxh_15zerofrom_derive16replace_lifetime15ReplaceLifetimeEBL_, symObjAddr: 0x282B8, symBinAddr: 0x3C964, symSize: 0x11B4 }
  - { offset: 0x56582, size: 0x8, addend: 0x0, symName: __RINvNtNtCs6IAuOt8vWmF_3syn3gen4fold9fold_exprNtNvCs3yqPx1X2sxh_15zerofrom_derive25replace_lifetime_and_type20ReplaceLifetimeAndTyEBL_, symObjAddr: 0x2946C, symBinAddr: 0x3DB18, symSize: 0x11B4 }
  - { offset: 0x56A99, size: 0x8, addend: 0x0, symName: __RINvNtNtCs6IAuOt8vWmF_3syn3gen4fold9fold_itemNtNvCs3yqPx1X2sxh_15zerofrom_derive16replace_lifetime15ReplaceLifetimeEBL_, symObjAddr: 0x2A620, symBinAddr: 0x3ECCC, symSize: 0x744 }
  - { offset: 0x56CC8, size: 0x8, addend: 0x0, symName: __RINvNtNtCs6IAuOt8vWmF_3syn3gen4fold9fold_itemNtNvCs3yqPx1X2sxh_15zerofrom_derive25replace_lifetime_and_type20ReplaceLifetimeAndTyEBL_, symObjAddr: 0x2AD64, symBinAddr: 0x3F410, symSize: 0x744 }
  - { offset: 0x56EF7, size: 0x8, addend: 0x0, symName: __RINvNtNtCs6IAuOt8vWmF_3syn3gen4fold9fold_metaNtNvCs3yqPx1X2sxh_15zerofrom_derive16replace_lifetime15ReplaceLifetimeEBL_, symObjAddr: 0x2B4A8, symBinAddr: 0x3FB54, symSize: 0x190 }
  - { offset: 0x56F93, size: 0x8, addend: 0x0, symName: __RINvNtNtCs6IAuOt8vWmF_3syn3gen4fold9fold_metaNtNvCs3yqPx1X2sxh_15zerofrom_derive25replace_lifetime_and_type20ReplaceLifetimeAndTyEBL_, symObjAddr: 0x2B638, symBinAddr: 0x3FCE4, symSize: 0x190 }
  - { offset: 0x5702F, size: 0x8, addend: 0x0, symName: __RINvNtNtCs6IAuOt8vWmF_3syn3gen4fold9fold_pathNtNvCs3yqPx1X2sxh_15zerofrom_derive16replace_lifetime15ReplaceLifetimeEBL_, symObjAddr: 0x2B7C8, symBinAddr: 0x3FE74, symSize: 0x90 }
  - { offset: 0x57076, size: 0x8, addend: 0x0, symName: __RINvNtNtCs6IAuOt8vWmF_3syn3gen4fold9fold_pathNtNvCs3yqPx1X2sxh_15zerofrom_derive25replace_lifetime_and_type20ReplaceLifetimeAndTyEBL_, symObjAddr: 0x2B858, symBinAddr: 0x3FF04, symSize: 0x90 }
  - { offset: 0x570BD, size: 0x8, addend: 0x0, symName: __RINvNtNtCs6IAuOt8vWmF_3syn3gen4fold9fold_stmtNtNvCs3yqPx1X2sxh_15zerofrom_derive16replace_lifetime15ReplaceLifetimeEBL_, symObjAddr: 0x2B8E8, symBinAddr: 0x3FF94, symSize: 0x220 }
  - { offset: 0x57189, size: 0x8, addend: 0x0, symName: __RINvNtNtCs6IAuOt8vWmF_3syn3gen4fold9fold_stmtNtNvCs3yqPx1X2sxh_15zerofrom_derive25replace_lifetime_and_type20ReplaceLifetimeAndTyEBL_, symObjAddr: 0x2BB08, symBinAddr: 0x401B4, symSize: 0x220 }
  - { offset: 0x57255, size: 0x8, addend: 0x0, symName: __RINvNtNtCs6IAuOt8vWmF_3syn3gen4fold9fold_typeNtNvCs3yqPx1X2sxh_15zerofrom_derive16replace_lifetime15ReplaceLifetimeEBL_, symObjAddr: 0x2BD28, symBinAddr: 0x403D4, symSize: 0x61C }
  - { offset: 0x57464, size: 0x8, addend: 0x0, symName: __RINvNtNtCs6IAuOt8vWmF_3syn3gen4fold9fold_typeNtNvCs3yqPx1X2sxh_15zerofrom_derive25replace_lifetime_and_type20ReplaceLifetimeAndTyEBL_, symObjAddr: 0x2C344, symBinAddr: 0x409F0, symSize: 0x61C }
  - { offset: 0x57678, size: 0x8, addend: 0x0, symName: __RNCINvNtNtCs6IAuOt8vWmF_3syn3gen4fold10fold_fieldNtNvCs3yqPx1X2sxh_15zerofrom_derive16replace_lifetime15ReplaceLifetimeE0BP_, symObjAddr: 0x2C960, symBinAddr: 0x4100C, symSize: 0x34 }
  - { offset: 0x576C1, size: 0x8, addend: 0x0, symName: __RNCINvNtNtCs6IAuOt8vWmF_3syn3gen4fold10fold_fieldNtNvCs3yqPx1X2sxh_15zerofrom_derive25replace_lifetime_and_type20ReplaceLifetimeAndTyE0BP_, symObjAddr: 0x2C994, symBinAddr: 0x41040, symSize: 0x34 }
  - { offset: 0x57710, size: 0x8, addend: 0x0, symName: __RNCINvNtNtCs6IAuOt8vWmF_3syn3gen4fold10fold_localNtNvCs3yqPx1X2sxh_15zerofrom_derive16replace_lifetime15ReplaceLifetimeE0BP_, symObjAddr: 0x2C9C8, symBinAddr: 0x41074, symSize: 0x34 }
  - { offset: 0x57759, size: 0x8, addend: 0x0, symName: __RNCINvNtNtCs6IAuOt8vWmF_3syn3gen4fold10fold_localNtNvCs3yqPx1X2sxh_15zerofrom_derive25replace_lifetime_and_type20ReplaceLifetimeAndTyE0BP_, symObjAddr: 0x2C9FC, symBinAddr: 0x410A8, symSize: 0x34 }
  - { offset: 0x577A8, size: 0x8, addend: 0x0, symName: __RNCINvNtNtCs6IAuOt8vWmF_3syn3gen4fold12fold_expr_ifNtNvCs3yqPx1X2sxh_15zerofrom_derive16replace_lifetime15ReplaceLifetimeE0BR_, symObjAddr: 0x2CA30, symBinAddr: 0x410DC, symSize: 0x17C }
  - { offset: 0x57810, size: 0x8, addend: 0x0, symName: __RNCINvNtNtCs6IAuOt8vWmF_3syn3gen4fold12fold_expr_ifNtNvCs3yqPx1X2sxh_15zerofrom_derive25replace_lifetime_and_type20ReplaceLifetimeAndTyE0BR_, symObjAddr: 0x2CBAC, symBinAddr: 0x41258, symSize: 0x17C }
  - { offset: 0x5787E, size: 0x8, addend: 0x0, symName: __RNCINvNtNtCs6IAuOt8vWmF_3syn3gen4fold12fold_variantNtNvCs3yqPx1X2sxh_15zerofrom_derive16replace_lifetime15ReplaceLifetimeE0BR_, symObjAddr: 0x2CD28, symBinAddr: 0x413D4, symSize: 0x94 }
  - { offset: 0x578C7, size: 0x8, addend: 0x0, symName: __RNCINvNtNtCs6IAuOt8vWmF_3syn3gen4fold12fold_variantNtNvCs3yqPx1X2sxh_15zerofrom_derive25replace_lifetime_and_type20ReplaceLifetimeAndTyE0BR_, symObjAddr: 0x2CDBC, symBinAddr: 0x41468, symSize: 0x94 }
  - { offset: 0x57916, size: 0x8, addend: 0x0, symName: __RNCINvNtNtCs6IAuOt8vWmF_3syn3gen4fold13fold_genericsNtNvCs3yqPx1X2sxh_15zerofrom_derive16replace_lifetime15ReplaceLifetimeE0BS_, symObjAddr: 0x2CE50, symBinAddr: 0x414FC, symSize: 0x34 }
  - { offset: 0x5795F, size: 0x8, addend: 0x0, symName: __RNCINvNtNtCs6IAuOt8vWmF_3syn3gen4fold13fold_genericsNtNvCs3yqPx1X2sxh_15zerofrom_derive25replace_lifetime_and_type20ReplaceLifetimeAndTyE0BS_, symObjAddr: 0x2CE84, symBinAddr: 0x41530, symSize: 0x34 }
  - { offset: 0x579AE, size: 0x8, addend: 0x0, symName: __RNCINvNtNtCs6IAuOt8vWmF_3syn3gen4fold13fold_item_modNtNvCs3yqPx1X2sxh_15zerofrom_derive16replace_lifetime15ReplaceLifetimeE0BS_, symObjAddr: 0x2CEB8, symBinAddr: 0x41564, symSize: 0x84 }
  - { offset: 0x579F7, size: 0x8, addend: 0x0, symName: __RNCINvNtNtCs6IAuOt8vWmF_3syn3gen4fold13fold_item_modNtNvCs3yqPx1X2sxh_15zerofrom_derive25replace_lifetime_and_type20ReplaceLifetimeAndTyE0BS_, symObjAddr: 0x2CF3C, symBinAddr: 0x415E8, symSize: 0x84 }
  - { offset: 0x57A46, size: 0x8, addend: 0x0, symName: __RNCINvNtNtCs6IAuOt8vWmF_3syn3gen4fold13fold_receiverNtNvCs3yqPx1X2sxh_15zerofrom_derive16replace_lifetime15ReplaceLifetimeE0BS_, symObjAddr: 0x2CFC0, symBinAddr: 0x4166C, symSize: 0x74 }
  - { offset: 0x57A8F, size: 0x8, addend: 0x0, symName: __RNCINvNtNtCs6IAuOt8vWmF_3syn3gen4fold13fold_receiverNtNvCs3yqPx1X2sxh_15zerofrom_derive25replace_lifetime_and_type20ReplaceLifetimeAndTyE0BS_, symObjAddr: 0x2D034, symBinAddr: 0x416E0, symSize: 0x74 }
  - { offset: 0x57ADD, size: 0x8, addend: 0x0, symName: __RNCNCINvNtNtCs6IAuOt8vWmF_3syn3gen4fold13fold_receiverNtNvCs3yqPx1X2sxh_15zerofrom_derive16replace_lifetime15ReplaceLifetimeE00BU_, symObjAddr: 0x30760, symBinAddr: 0x44DBC, symSize: 0x34 }
  - { offset: 0x57B26, size: 0x8, addend: 0x0, symName: __RNCNCINvNtNtCs6IAuOt8vWmF_3syn3gen4fold13fold_receiverNtNvCs3yqPx1X2sxh_15zerofrom_derive25replace_lifetime_and_type20ReplaceLifetimeAndTyE00BU_, symObjAddr: 0x30794, symBinAddr: 0x44DF0, symSize: 0x34 }
  - { offset: 0x57B76, size: 0x8, addend: 0x0, symName: __RNCINvNtNtCs6IAuOt8vWmF_3syn3gen4fold13fold_variadicNtNvCs3yqPx1X2sxh_15zerofrom_derive16replace_lifetime15ReplaceLifetimeE0BS_, symObjAddr: 0x2D0A8, symBinAddr: 0x41754, symSize: 0x180 }
  - { offset: 0x57BDF, size: 0x8, addend: 0x0, symName: __RNCINvNtNtCs6IAuOt8vWmF_3syn3gen4fold13fold_variadicNtNvCs3yqPx1X2sxh_15zerofrom_derive25replace_lifetime_and_type20ReplaceLifetimeAndTyE0BS_, symObjAddr: 0x2D228, symBinAddr: 0x418D4, symSize: 0x180 }
  - { offset: 0x57C4E, size: 0x8, addend: 0x0, symName: __RNCINvNtNtCs6IAuOt8vWmF_3syn3gen4fold14fold_expr_loopNtNvCs3yqPx1X2sxh_15zerofrom_derive16replace_lifetime15ReplaceLifetimeE0BT_, symObjAddr: 0x2D3A8, symBinAddr: 0x41A54, symSize: 0x34 }
  - { offset: 0x57C97, size: 0x8, addend: 0x0, symName: __RNCINvNtNtCs6IAuOt8vWmF_3syn3gen4fold14fold_expr_loopNtNvCs3yqPx1X2sxh_15zerofrom_derive25replace_lifetime_and_type20ReplaceLifetimeAndTyE0BT_, symObjAddr: 0x2D3DC, symBinAddr: 0x41A88, symSize: 0x34 }
  - { offset: 0x57CE6, size: 0x8, addend: 0x0, symName: __RNCINvNtNtCs6IAuOt8vWmF_3syn3gen4fold14fold_expr_pathNtNvCs3yqPx1X2sxh_15zerofrom_derive16replace_lifetime15ReplaceLifetimeE0BT_, symObjAddr: 0x2D410, symBinAddr: 0x41ABC, symSize: 0x34 }
  - { offset: 0x57D2F, size: 0x8, addend: 0x0, symName: __RNCINvNtNtCs6IAuOt8vWmF_3syn3gen4fold14fold_expr_pathNtNvCs3yqPx1X2sxh_15zerofrom_derive25replace_lifetime_and_type20ReplaceLifetimeAndTyE0BT_, symObjAddr: 0x2D444, symBinAddr: 0x41AF0, symSize: 0x34 }
  - { offset: 0x57D7E, size: 0x8, addend: 0x0, symName: __RNCINvNtNtCs6IAuOt8vWmF_3syn3gen4fold14fold_item_implNtNvCs3yqPx1X2sxh_15zerofrom_derive16replace_lifetime15ReplaceLifetimeE0BT_, symObjAddr: 0x2D478, symBinAddr: 0x41B24, symSize: 0xA0 }
  - { offset: 0x57DC8, size: 0x8, addend: 0x0, symName: __RNCINvNtNtCs6IAuOt8vWmF_3syn3gen4fold14fold_item_implNtNvCs3yqPx1X2sxh_15zerofrom_derive25replace_lifetime_and_type20ReplaceLifetimeAndTyE0BT_, symObjAddr: 0x2D518, symBinAddr: 0x41BC4, symSize: 0xA0 }
  - { offset: 0x57E18, size: 0x8, addend: 0x0, symName: __RNCINvNtNtCs6IAuOt8vWmF_3syn3gen4fold14fold_pat_identNtNvCs3yqPx1X2sxh_15zerofrom_derive16replace_lifetime15ReplaceLifetimeE0BT_, symObjAddr: 0x2D5B8, symBinAddr: 0x41C64, symSize: 0x188 }
  - { offset: 0x57E81, size: 0x8, addend: 0x0, symName: __RNCINvNtNtCs6IAuOt8vWmF_3syn3gen4fold14fold_pat_identNtNvCs3yqPx1X2sxh_15zerofrom_derive25replace_lifetime_and_type20ReplaceLifetimeAndTyE0BT_, symObjAddr: 0x2D740, symBinAddr: 0x41DEC, symSize: 0x188 }
  - { offset: 0x57EF0, size: 0x8, addend: 0x0, symName: __RNCINvNtNtCs6IAuOt8vWmF_3syn3gen4fold14fold_signatureNtNvCs3yqPx1X2sxh_15zerofrom_derive16replace_lifetime15ReplaceLifetimeE0BT_, symObjAddr: 0x2D8C8, symBinAddr: 0x41F74, symSize: 0x40 }
  - { offset: 0x57F38, size: 0x8, addend: 0x0, symName: __RNCINvNtNtCs6IAuOt8vWmF_3syn3gen4fold14fold_signatureNtNvCs3yqPx1X2sxh_15zerofrom_derive16replace_lifetime15ReplaceLifetimeEs_0BT_, symObjAddr: 0x2D908, symBinAddr: 0x41FB4, symSize: 0x34 }
  - { offset: 0x57F81, size: 0x8, addend: 0x0, symName: __RNCINvNtNtCs6IAuOt8vWmF_3syn3gen4fold14fold_signatureNtNvCs3yqPx1X2sxh_15zerofrom_derive25replace_lifetime_and_type20ReplaceLifetimeAndTyE0BT_, symObjAddr: 0x2D93C, symBinAddr: 0x41FE8, symSize: 0x40 }
  - { offset: 0x57FC9, size: 0x8, addend: 0x0, symName: __RNCINvNtNtCs6IAuOt8vWmF_3syn3gen4fold14fold_signatureNtNvCs3yqPx1X2sxh_15zerofrom_derive25replace_lifetime_and_type20ReplaceLifetimeAndTyEs_0BT_, symObjAddr: 0x2D97C, symBinAddr: 0x42028, symSize: 0x34 }
  - { offset: 0x58018, size: 0x8, addend: 0x0, symName: __RNCINvNtNtCs6IAuOt8vWmF_3syn3gen4fold14fold_type_pathNtNvCs3yqPx1X2sxh_15zerofrom_derive16replace_lifetime15ReplaceLifetimeE0BT_, symObjAddr: 0x2D9B0, symBinAddr: 0x4205C, symSize: 0x34 }
  - { offset: 0x58061, size: 0x8, addend: 0x0, symName: __RNCINvNtNtCs6IAuOt8vWmF_3syn3gen4fold14fold_type_pathNtNvCs3yqPx1X2sxh_15zerofrom_derive25replace_lifetime_and_type20ReplaceLifetimeAndTyE0BT_, symObjAddr: 0x2D9E4, symBinAddr: 0x42090, symSize: 0x34 }
  - { offset: 0x580B0, size: 0x8, addend: 0x0, symName: __RNCINvNtNtCs6IAuOt8vWmF_3syn3gen4fold15fold_assoc_typeNtNvCs3yqPx1X2sxh_15zerofrom_derive16replace_lifetime15ReplaceLifetimeE0BU_, symObjAddr: 0x2DA18, symBinAddr: 0x420C4, symSize: 0x34 }
  - { offset: 0x580F9, size: 0x8, addend: 0x0, symName: __RNCINvNtNtCs6IAuOt8vWmF_3syn3gen4fold15fold_assoc_typeNtNvCs3yqPx1X2sxh_15zerofrom_derive25replace_lifetime_and_type20ReplaceLifetimeAndTyE0BU_, symObjAddr: 0x2DA4C, symBinAddr: 0x420F8, symSize: 0x34 }
  - { offset: 0x58148, size: 0x8, addend: 0x0, symName: __RNCINvNtNtCs6IAuOt8vWmF_3syn3gen4fold15fold_constraintNtNvCs3yqPx1X2sxh_15zerofrom_derive16replace_lifetime15ReplaceLifetimeE0BU_, symObjAddr: 0x2DA80, symBinAddr: 0x4212C, symSize: 0x34 }
  - { offset: 0x58191, size: 0x8, addend: 0x0, symName: __RNCINvNtNtCs6IAuOt8vWmF_3syn3gen4fold15fold_constraintNtNvCs3yqPx1X2sxh_15zerofrom_derive25replace_lifetime_and_type20ReplaceLifetimeAndTyE0BU_, symObjAddr: 0x2DAB4, symBinAddr: 0x42160, symSize: 0x34 }
  - { offset: 0x581E0, size: 0x8, addend: 0x0, symName: __RNCINvNtNtCs6IAuOt8vWmF_3syn3gen4fold15fold_expr_blockNtNvCs3yqPx1X2sxh_15zerofrom_derive16replace_lifetime15ReplaceLifetimeE0BU_, symObjAddr: 0x2DAE8, symBinAddr: 0x42194, symSize: 0x34 }
  - { offset: 0x58229, size: 0x8, addend: 0x0, symName: __RNCINvNtNtCs6IAuOt8vWmF_3syn3gen4fold15fold_expr_blockNtNvCs3yqPx1X2sxh_15zerofrom_derive25replace_lifetime_and_type20ReplaceLifetimeAndTyE0BU_, symObjAddr: 0x2DB1C, symBinAddr: 0x421C8, symSize: 0x34 }
  - { offset: 0x58278, size: 0x8, addend: 0x0, symName: __RNCINvNtNtCs6IAuOt8vWmF_3syn3gen4fold15fold_expr_breakNtNvCs3yqPx1X2sxh_15zerofrom_derive16replace_lifetime15ReplaceLifetimeE0BU_, symObjAddr: 0x2DB50, symBinAddr: 0x421FC, symSize: 0x34 }
  - { offset: 0x582C1, size: 0x8, addend: 0x0, symName: __RNCINvNtNtCs6IAuOt8vWmF_3syn3gen4fold15fold_expr_breakNtNvCs3yqPx1X2sxh_15zerofrom_derive16replace_lifetime15ReplaceLifetimeEs_0BU_, symObjAddr: 0x2DB84, symBinAddr: 0x42230, symSize: 0x164 }
  - { offset: 0x58328, size: 0x8, addend: 0x0, symName: __RNCINvNtNtCs6IAuOt8vWmF_3syn3gen4fold15fold_expr_breakNtNvCs3yqPx1X2sxh_15zerofrom_derive25replace_lifetime_and_type20ReplaceLifetimeAndTyE0BU_, symObjAddr: 0x2DCE8, symBinAddr: 0x42394, symSize: 0x34 }
  - { offset: 0x58371, size: 0x8, addend: 0x0, symName: __RNCINvNtNtCs6IAuOt8vWmF_3syn3gen4fold15fold_expr_breakNtNvCs3yqPx1X2sxh_15zerofrom_derive25replace_lifetime_and_type20ReplaceLifetimeAndTyEs_0BU_, symObjAddr: 0x2DD1C, symBinAddr: 0x423C8, symSize: 0x164 }
  - { offset: 0x583DE, size: 0x8, addend: 0x0, symName: __RNCINvNtNtCs6IAuOt8vWmF_3syn3gen4fold15fold_expr_rangeNtNvCs3yqPx1X2sxh_15zerofrom_derive16replace_lifetime15ReplaceLifetimeE0BU_, symObjAddr: 0x2DE80, symBinAddr: 0x4252C, symSize: 0x164 }
  - { offset: 0x58445, size: 0x8, addend: 0x0, symName: __RNCINvNtNtCs6IAuOt8vWmF_3syn3gen4fold15fold_expr_rangeNtNvCs3yqPx1X2sxh_15zerofrom_derive16replace_lifetime15ReplaceLifetimeEs_0BU_, symObjAddr: 0x2DFE4, symBinAddr: 0x42690, symSize: 0x164 }
  - { offset: 0x584AC, size: 0x8, addend: 0x0, symName: __RNCINvNtNtCs6IAuOt8vWmF_3syn3gen4fold15fold_expr_rangeNtNvCs3yqPx1X2sxh_15zerofrom_derive25replace_lifetime_and_type20ReplaceLifetimeAndTyE0BU_, symObjAddr: 0x2E148, symBinAddr: 0x427F4, symSize: 0x164 }
  - { offset: 0x58513, size: 0x8, addend: 0x0, symName: __RNCINvNtNtCs6IAuOt8vWmF_3syn3gen4fold15fold_expr_rangeNtNvCs3yqPx1X2sxh_15zerofrom_derive25replace_lifetime_and_type20ReplaceLifetimeAndTyEs_0BU_, symObjAddr: 0x2E2AC, symBinAddr: 0x42958, symSize: 0x164 }
  - { offset: 0x58580, size: 0x8, addend: 0x0, symName: __RNCINvNtNtCs6IAuOt8vWmF_3syn3gen4fold15fold_expr_whileNtNvCs3yqPx1X2sxh_15zerofrom_derive16replace_lifetime15ReplaceLifetimeE0BU_, symObjAddr: 0x2E410, symBinAddr: 0x42ABC, symSize: 0x34 }
  - { offset: 0x585C9, size: 0x8, addend: 0x0, symName: __RNCINvNtNtCs6IAuOt8vWmF_3syn3gen4fold15fold_expr_whileNtNvCs3yqPx1X2sxh_15zerofrom_derive25replace_lifetime_and_type20ReplaceLifetimeAndTyE0BU_, symObjAddr: 0x2E444, symBinAddr: 0x42AF0, symSize: 0x34 }
  - { offset: 0x58618, size: 0x8, addend: 0x0, symName: __RNCINvNtNtCs6IAuOt8vWmF_3syn3gen4fold15fold_expr_yieldNtNvCs3yqPx1X2sxh_15zerofrom_derive16replace_lifetime15ReplaceLifetimeE0BU_, symObjAddr: 0x2E478, symBinAddr: 0x42B24, symSize: 0x164 }
  - { offset: 0x5867F, size: 0x8, addend: 0x0, symName: __RNCINvNtNtCs6IAuOt8vWmF_3syn3gen4fold15fold_expr_yieldNtNvCs3yqPx1X2sxh_15zerofrom_derive25replace_lifetime_and_type20ReplaceLifetimeAndTyE0BU_, symObjAddr: 0x2E5DC, symBinAddr: 0x42C88, symSize: 0x164 }
  - { offset: 0x586EC, size: 0x8, addend: 0x0, symName: __RNCINvNtNtCs6IAuOt8vWmF_3syn3gen4fold15fold_item_macroNtNvCs3yqPx1X2sxh_15zerofrom_derive16replace_lifetime15ReplaceLifetimeE0BU_, symObjAddr: 0x2E740, symBinAddr: 0x42DEC, symSize: 0x34 }
  - { offset: 0x58735, size: 0x8, addend: 0x0, symName: __RNCINvNtNtCs6IAuOt8vWmF_3syn3gen4fold15fold_item_macroNtNvCs3yqPx1X2sxh_15zerofrom_derive25replace_lifetime_and_type20ReplaceLifetimeAndTyE0BU_, symObjAddr: 0x2E774, symBinAddr: 0x42E20, symSize: 0x34 }
  - { offset: 0x58784, size: 0x8, addend: 0x0, symName: __RNCINvNtNtCs6IAuOt8vWmF_3syn3gen4fold15fold_local_initNtNvCs3yqPx1X2sxh_15zerofrom_derive16replace_lifetime15ReplaceLifetimeE0BU_, symObjAddr: 0x2E7F8, symBinAddr: 0x42E54, symSize: 0x17C }
  - { offset: 0x587EC, size: 0x8, addend: 0x0, symName: __RNCINvNtNtCs6IAuOt8vWmF_3syn3gen4fold15fold_local_initNtNvCs3yqPx1X2sxh_15zerofrom_derive25replace_lifetime_and_type20ReplaceLifetimeAndTyE0BU_, symObjAddr: 0x2E974, symBinAddr: 0x42FD0, symSize: 0x17C }
  - { offset: 0x5885A, size: 0x8, addend: 0x0, symName: __RNCINvNtNtCs6IAuOt8vWmF_3syn3gen4fold15fold_pat_structNtNvCs3yqPx1X2sxh_15zerofrom_derive16replace_lifetime15ReplaceLifetimeE0BU_, symObjAddr: 0x2EAF0, symBinAddr: 0x4314C, symSize: 0x34 }
  - { offset: 0x588A3, size: 0x8, addend: 0x0, symName: __RNCINvNtNtCs6IAuOt8vWmF_3syn3gen4fold15fold_pat_structNtNvCs3yqPx1X2sxh_15zerofrom_derive16replace_lifetime15ReplaceLifetimeEs_0BU_, symObjAddr: 0x2EB24, symBinAddr: 0x43180, symSize: 0x34 }
  - { offset: 0x588EC, size: 0x8, addend: 0x0, symName: __RNCINvNtNtCs6IAuOt8vWmF_3syn3gen4fold15fold_pat_structNtNvCs3yqPx1X2sxh_15zerofrom_derive25replace_lifetime_and_type20ReplaceLifetimeAndTyE0BU_, symObjAddr: 0x2EB58, symBinAddr: 0x431B4, symSize: 0x34 }
  - { offset: 0x58935, size: 0x8, addend: 0x0, symName: __RNCINvNtNtCs6IAuOt8vWmF_3syn3gen4fold15fold_pat_structNtNvCs3yqPx1X2sxh_15zerofrom_derive25replace_lifetime_and_type20ReplaceLifetimeAndTyEs_0BU_, symObjAddr: 0x2EB8C, symBinAddr: 0x431E8, symSize: 0x34 }
  - { offset: 0x58984, size: 0x8, addend: 0x0, symName: __RNCINvNtNtCs6IAuOt8vWmF_3syn3gen4fold15fold_type_paramNtNvCs3yqPx1X2sxh_15zerofrom_derive16replace_lifetime15ReplaceLifetimeE0BU_, symObjAddr: 0x2EBC0, symBinAddr: 0x4321C, symSize: 0x34 }
  - { offset: 0x589CD, size: 0x8, addend: 0x0, symName: __RNCINvNtNtCs6IAuOt8vWmF_3syn3gen4fold15fold_type_paramNtNvCs3yqPx1X2sxh_15zerofrom_derive25replace_lifetime_and_type20ReplaceLifetimeAndTyE0BU_, symObjAddr: 0x2EBF4, symBinAddr: 0x43250, symSize: 0x34 }
  - { offset: 0x58A1C, size: 0x8, addend: 0x0, symName: __RNCINvNtNtCs6IAuOt8vWmF_3syn3gen4fold16fold_assoc_constNtNvCs3yqPx1X2sxh_15zerofrom_derive16replace_lifetime15ReplaceLifetimeE0BV_, symObjAddr: 0x2EC28, symBinAddr: 0x43284, symSize: 0x34 }
  - { offset: 0x58A65, size: 0x8, addend: 0x0, symName: __RNCINvNtNtCs6IAuOt8vWmF_3syn3gen4fold16fold_assoc_constNtNvCs3yqPx1X2sxh_15zerofrom_derive25replace_lifetime_and_type20ReplaceLifetimeAndTyE0BV_, symObjAddr: 0x2EC5C, symBinAddr: 0x432B8, symSize: 0x34 }
  - { offset: 0x58AB4, size: 0x8, addend: 0x0, symName: __RNCINvNtNtCs6IAuOt8vWmF_3syn3gen4fold16fold_bare_fn_argNtNvCs3yqPx1X2sxh_15zerofrom_derive16replace_lifetime15ReplaceLifetimeE0BV_, symObjAddr: 0x2EC90, symBinAddr: 0x432EC, symSize: 0x80 }
  - { offset: 0x58AFD, size: 0x8, addend: 0x0, symName: __RNCINvNtNtCs6IAuOt8vWmF_3syn3gen4fold16fold_bare_fn_argNtNvCs3yqPx1X2sxh_15zerofrom_derive25replace_lifetime_and_type20ReplaceLifetimeAndTyE0BV_, symObjAddr: 0x2ED10, symBinAddr: 0x4336C, symSize: 0x80 }
  - { offset: 0x58B4C, size: 0x8, addend: 0x0, symName: __RNCINvNtNtCs6IAuOt8vWmF_3syn3gen4fold16fold_const_paramNtNvCs3yqPx1X2sxh_15zerofrom_derive16replace_lifetime15ReplaceLifetimeE0BV_, symObjAddr: 0x2ED90, symBinAddr: 0x433EC, symSize: 0x34 }
  - { offset: 0x58B95, size: 0x8, addend: 0x0, symName: __RNCINvNtNtCs6IAuOt8vWmF_3syn3gen4fold16fold_const_paramNtNvCs3yqPx1X2sxh_15zerofrom_derive25replace_lifetime_and_type20ReplaceLifetimeAndTyE0BV_, symObjAddr: 0x2EDC4, symBinAddr: 0x43420, symSize: 0x34 }
  - { offset: 0x58BE4, size: 0x8, addend: 0x0, symName: __RNCINvNtNtCs6IAuOt8vWmF_3syn3gen4fold16fold_expr_returnNtNvCs3yqPx1X2sxh_15zerofrom_derive16replace_lifetime15ReplaceLifetimeE0BV_, symObjAddr: 0x2EDF8, symBinAddr: 0x43454, symSize: 0x164 }
  - { offset: 0x58C4B, size: 0x8, addend: 0x0, symName: __RNCINvNtNtCs6IAuOt8vWmF_3syn3gen4fold16fold_expr_returnNtNvCs3yqPx1X2sxh_15zerofrom_derive25replace_lifetime_and_type20ReplaceLifetimeAndTyE0BV_, symObjAddr: 0x2EF5C, symBinAddr: 0x435B8, symSize: 0x164 }
  - { offset: 0x58CB8, size: 0x8, addend: 0x0, symName: __RNCINvNtNtCs6IAuOt8vWmF_3syn3gen4fold16fold_expr_structNtNvCs3yqPx1X2sxh_15zerofrom_derive16replace_lifetime15ReplaceLifetimeE0BV_, symObjAddr: 0x2F0C0, symBinAddr: 0x4371C, symSize: 0x34 }
  - { offset: 0x58D01, size: 0x8, addend: 0x0, symName: __RNCINvNtNtCs6IAuOt8vWmF_3syn3gen4fold16fold_expr_structNtNvCs3yqPx1X2sxh_15zerofrom_derive16replace_lifetime15ReplaceLifetimeEs_0BV_, symObjAddr: 0x2F0F4, symBinAddr: 0x43750, symSize: 0x164 }
  - { offset: 0x58D68, size: 0x8, addend: 0x0, symName: __RNCINvNtNtCs6IAuOt8vWmF_3syn3gen4fold16fold_expr_structNtNvCs3yqPx1X2sxh_15zerofrom_derive25replace_lifetime_and_type20ReplaceLifetimeAndTyE0BV_, symObjAddr: 0x2F258, symBinAddr: 0x438B4, symSize: 0x34 }
  - { offset: 0x58DB1, size: 0x8, addend: 0x0, symName: __RNCINvNtNtCs6IAuOt8vWmF_3syn3gen4fold16fold_expr_structNtNvCs3yqPx1X2sxh_15zerofrom_derive25replace_lifetime_and_type20ReplaceLifetimeAndTyEs_0BV_, symObjAddr: 0x2F28C, symBinAddr: 0x438E8, symSize: 0x164 }
  - { offset: 0x58E1E, size: 0x8, addend: 0x0, symName: __RNCINvNtNtCs6IAuOt8vWmF_3syn3gen4fold16fold_trait_boundNtNvCs3yqPx1X2sxh_15zerofrom_derive16replace_lifetime15ReplaceLifetimeE0BV_, symObjAddr: 0x2F3F0, symBinAddr: 0x43A4C, symSize: 0x34 }
  - { offset: 0x58E67, size: 0x8, addend: 0x0, symName: __RNCINvNtNtCs6IAuOt8vWmF_3syn3gen4fold16fold_trait_boundNtNvCs3yqPx1X2sxh_15zerofrom_derive25replace_lifetime_and_type20ReplaceLifetimeAndTyE0BV_, symObjAddr: 0x2F424, symBinAddr: 0x43A80, symSize: 0x34 }
  - { offset: 0x58EB6, size: 0x8, addend: 0x0, symName: __RNCINvNtNtCs6IAuOt8vWmF_3syn3gen4fold17fold_expr_closureNtNvCs3yqPx1X2sxh_15zerofrom_derive16replace_lifetime15ReplaceLifetimeE0BW_, symObjAddr: 0x2F458, symBinAddr: 0x43AB4, symSize: 0x34 }
  - { offset: 0x58EFF, size: 0x8, addend: 0x0, symName: __RNCINvNtNtCs6IAuOt8vWmF_3syn3gen4fold17fold_expr_closureNtNvCs3yqPx1X2sxh_15zerofrom_derive25replace_lifetime_and_type20ReplaceLifetimeAndTyE0BW_, symObjAddr: 0x2F48C, symBinAddr: 0x43AE8, symSize: 0x34 }
  - { offset: 0x58F4E, size: 0x8, addend: 0x0, symName: __RNCINvNtNtCs6IAuOt8vWmF_3syn3gen4fold17fold_type_bare_fnNtNvCs3yqPx1X2sxh_15zerofrom_derive16replace_lifetime15ReplaceLifetimeE0BW_, symObjAddr: 0x2F4C0, symBinAddr: 0x43B1C, symSize: 0x34 }
  - { offset: 0x58F97, size: 0x8, addend: 0x0, symName: __RNCINvNtNtCs6IAuOt8vWmF_3syn3gen4fold17fold_type_bare_fnNtNvCs3yqPx1X2sxh_15zerofrom_derive16replace_lifetime15ReplaceLifetimeEs0_0BW_, symObjAddr: 0x2F4F4, symBinAddr: 0x43B50, symSize: 0x34 }
  - { offset: 0x58FE0, size: 0x8, addend: 0x0, symName: __RNCINvNtNtCs6IAuOt8vWmF_3syn3gen4fold17fold_type_bare_fnNtNvCs3yqPx1X2sxh_15zerofrom_derive16replace_lifetime15ReplaceLifetimeEs_0BW_, symObjAddr: 0x2F528, symBinAddr: 0x43B84, symSize: 0x40 }
  - { offset: 0x59028, size: 0x8, addend: 0x0, symName: __RNCINvNtNtCs6IAuOt8vWmF_3syn3gen4fold17fold_type_bare_fnNtNvCs3yqPx1X2sxh_15zerofrom_derive25replace_lifetime_and_type20ReplaceLifetimeAndTyE0BW_, symObjAddr: 0x2F568, symBinAddr: 0x43BC4, symSize: 0x34 }
  - { offset: 0x59071, size: 0x8, addend: 0x0, symName: __RNCINvNtNtCs6IAuOt8vWmF_3syn3gen4fold17fold_type_bare_fnNtNvCs3yqPx1X2sxh_15zerofrom_derive25replace_lifetime_and_type20ReplaceLifetimeAndTyEs0_0BW_, symObjAddr: 0x2F59C, symBinAddr: 0x43BF8, symSize: 0x34 }
  - { offset: 0x590BA, size: 0x8, addend: 0x0, symName: __RNCINvNtNtCs6IAuOt8vWmF_3syn3gen4fold17fold_type_bare_fnNtNvCs3yqPx1X2sxh_15zerofrom_derive25replace_lifetime_and_type20ReplaceLifetimeAndTyEs_0BW_, symObjAddr: 0x2F5D0, symBinAddr: 0x43C2C, symSize: 0x40 }
  - { offset: 0x59108, size: 0x8, addend: 0x0, symName: __RNCINvNtNtCs6IAuOt8vWmF_3syn3gen4fold18fold_bare_variadicNtNvCs3yqPx1X2sxh_15zerofrom_derive16replace_lifetime15ReplaceLifetimeE0BX_, symObjAddr: 0x2F610, symBinAddr: 0x43C6C, symSize: 0x80 }
  - { offset: 0x59151, size: 0x8, addend: 0x0, symName: __RNCINvNtNtCs6IAuOt8vWmF_3syn3gen4fold18fold_bare_variadicNtNvCs3yqPx1X2sxh_15zerofrom_derive25replace_lifetime_and_type20ReplaceLifetimeAndTyE0BX_, symObjAddr: 0x2F690, symBinAddr: 0x43CEC, symSize: 0x80 }
  - { offset: 0x591A0, size: 0x8, addend: 0x0, symName: __RNCINvNtNtCs6IAuOt8vWmF_3syn3gen4fold18fold_expr_continueNtNvCs3yqPx1X2sxh_15zerofrom_derive16replace_lifetime15ReplaceLifetimeE0BX_, symObjAddr: 0x2F710, symBinAddr: 0x43D6C, symSize: 0x34 }
  - { offset: 0x591E9, size: 0x8, addend: 0x0, symName: __RNCINvNtNtCs6IAuOt8vWmF_3syn3gen4fold18fold_expr_continueNtNvCs3yqPx1X2sxh_15zerofrom_derive25replace_lifetime_and_type20ReplaceLifetimeAndTyE0BX_, symObjAddr: 0x2F744, symBinAddr: 0x43DA0, symSize: 0x34 }
  - { offset: 0x59238, size: 0x8, addend: 0x0, symName: __RNCINvNtNtCs6IAuOt8vWmF_3syn3gen4fold18fold_expr_for_loopNtNvCs3yqPx1X2sxh_15zerofrom_derive16replace_lifetime15ReplaceLifetimeE0BX_, symObjAddr: 0x2F778, symBinAddr: 0x43DD4, symSize: 0x34 }
  - { offset: 0x59281, size: 0x8, addend: 0x0, symName: __RNCINvNtNtCs6IAuOt8vWmF_3syn3gen4fold18fold_expr_for_loopNtNvCs3yqPx1X2sxh_15zerofrom_derive25replace_lifetime_and_type20ReplaceLifetimeAndTyE0BX_, symObjAddr: 0x2F7AC, symBinAddr: 0x43E08, symSize: 0x34 }
  - { offset: 0x592D0, size: 0x8, addend: 0x0, symName: __RNCINvNtNtCs6IAuOt8vWmF_3syn3gen4fold18fold_trait_item_fnNtNvCs3yqPx1X2sxh_15zerofrom_derive16replace_lifetime15ReplaceLifetimeE0BX_, symObjAddr: 0x2F7E0, symBinAddr: 0x43E3C, symSize: 0x34 }
  - { offset: 0x59319, size: 0x8, addend: 0x0, symName: __RNCINvNtNtCs6IAuOt8vWmF_3syn3gen4fold18fold_trait_item_fnNtNvCs3yqPx1X2sxh_15zerofrom_derive25replace_lifetime_and_type20ReplaceLifetimeAndTyE0BX_, symObjAddr: 0x2F814, symBinAddr: 0x43E70, symSize: 0x34 }
  - { offset: 0x59368, size: 0x8, addend: 0x0, symName: __RNCINvNtNtCs6IAuOt8vWmF_3syn3gen4fold19fold_predicate_typeNtNvCs3yqPx1X2sxh_15zerofrom_derive16replace_lifetime15ReplaceLifetimeE0BY_, symObjAddr: 0x2F848, symBinAddr: 0x43EA4, symSize: 0x34 }
  - { offset: 0x593B1, size: 0x8, addend: 0x0, symName: __RNCINvNtNtCs6IAuOt8vWmF_3syn3gen4fold19fold_predicate_typeNtNvCs3yqPx1X2sxh_15zerofrom_derive25replace_lifetime_and_type20ReplaceLifetimeAndTyE0BY_, symObjAddr: 0x2F87C, symBinAddr: 0x43ED8, symSize: 0x34 }
  - { offset: 0x59400, size: 0x8, addend: 0x0, symName: __RNCINvNtNtCs6IAuOt8vWmF_3syn3gen4fold19fold_type_referenceNtNvCs3yqPx1X2sxh_15zerofrom_derive16replace_lifetime15ReplaceLifetimeE0BY_, symObjAddr: 0x2F8B0, symBinAddr: 0x43F0C, symSize: 0x34 }
  - { offset: 0x59449, size: 0x8, addend: 0x0, symName: __RNCINvNtNtCs6IAuOt8vWmF_3syn3gen4fold19fold_type_referenceNtNvCs3yqPx1X2sxh_15zerofrom_derive25replace_lifetime_and_type20ReplaceLifetimeAndTyE0BY_, symObjAddr: 0x2F8E4, symBinAddr: 0x43F40, symSize: 0x34 }
  - { offset: 0x59498, size: 0x8, addend: 0x0, symName: __RNCINvNtNtCs6IAuOt8vWmF_3syn3gen4fold20fold_trait_item_typeNtNvCs3yqPx1X2sxh_15zerofrom_derive16replace_lifetime15ReplaceLifetimeE0BZ_, symObjAddr: 0x2F918, symBinAddr: 0x43F74, symSize: 0x94 }
  - { offset: 0x594E1, size: 0x8, addend: 0x0, symName: __RNCINvNtNtCs6IAuOt8vWmF_3syn3gen4fold20fold_trait_item_typeNtNvCs3yqPx1X2sxh_15zerofrom_derive25replace_lifetime_and_type20ReplaceLifetimeAndTyE0BZ_, symObjAddr: 0x2F9AC, symBinAddr: 0x44008, symSize: 0x94 }
  - { offset: 0x59530, size: 0x8, addend: 0x0, symName: __RNCINvNtNtCs6IAuOt8vWmF_3syn3gen4fold21fold_expr_method_callNtNvCs3yqPx1X2sxh_15zerofrom_derive16replace_lifetime15ReplaceLifetimeE0B10_, symObjAddr: 0x2FA40, symBinAddr: 0x4409C, symSize: 0x34 }
  - { offset: 0x59579, size: 0x8, addend: 0x0, symName: __RNCINvNtNtCs6IAuOt8vWmF_3syn3gen4fold21fold_expr_method_callNtNvCs3yqPx1X2sxh_15zerofrom_derive25replace_lifetime_and_type20ReplaceLifetimeAndTyE0B10_, symObjAddr: 0x2FA74, symBinAddr: 0x440D0, symSize: 0x34 }
  - { offset: 0x595C8, size: 0x8, addend: 0x0, symName: __RNCINvNtNtCs6IAuOt8vWmF_3syn3gen4fold21fold_pat_tuple_structNtNvCs3yqPx1X2sxh_15zerofrom_derive16replace_lifetime15ReplaceLifetimeE0B10_, symObjAddr: 0x2FAA8, symBinAddr: 0x44104, symSize: 0x34 }
  - { offset: 0x59611, size: 0x8, addend: 0x0, symName: __RNCINvNtNtCs6IAuOt8vWmF_3syn3gen4fold21fold_pat_tuple_structNtNvCs3yqPx1X2sxh_15zerofrom_derive25replace_lifetime_and_type20ReplaceLifetimeAndTyE0B10_, symObjAddr: 0x2FADC, symBinAddr: 0x44138, symSize: 0x34 }
  - { offset: 0x59660, size: 0x8, addend: 0x0, symName: __RNCINvNtNtCs6IAuOt8vWmF_3syn3gen4fold21fold_trait_item_constNtNvCs3yqPx1X2sxh_15zerofrom_derive16replace_lifetime15ReplaceLifetimeE0B10_, symObjAddr: 0x2FB10, symBinAddr: 0x4416C, symSize: 0x94 }
  - { offset: 0x596A9, size: 0x8, addend: 0x0, symName: __RNCINvNtNtCs6IAuOt8vWmF_3syn3gen4fold21fold_trait_item_constNtNvCs3yqPx1X2sxh_15zerofrom_derive25replace_lifetime_and_type20ReplaceLifetimeAndTyE0B10_, symObjAddr: 0x2FBA4, symBinAddr: 0x44200, symSize: 0x94 }
  - { offset: 0x596F8, size: 0x8, addend: 0x0, symName: __RNCINvNtNtCs6IAuOt8vWmF_3syn3gen4fold22fold_item_extern_crateNtNvCs3yqPx1X2sxh_15zerofrom_derive16replace_lifetime15ReplaceLifetimeE0B11_, symObjAddr: 0x2FC38, symBinAddr: 0x44294, symSize: 0x78 }
  - { offset: 0x59741, size: 0x8, addend: 0x0, symName: __RNCINvNtNtCs6IAuOt8vWmF_3syn3gen4fold22fold_item_extern_crateNtNvCs3yqPx1X2sxh_15zerofrom_derive25replace_lifetime_and_type20ReplaceLifetimeAndTyE0B11_, symObjAddr: 0x2FCB0, symBinAddr: 0x4430C, symSize: 0x78 }
  - { offset: 0x59790, size: 0x8, addend: 0x0, symName: __RNCINvNtNtCs6IAuOt8vWmF_3syn3gen4fold8fold_abiNtNvCs3yqPx1X2sxh_15zerofrom_derive16replace_lifetime15ReplaceLifetimeE0BM_, symObjAddr: 0x2FD28, symBinAddr: 0x44384, symSize: 0x3C }
  - { offset: 0x597D8, size: 0x8, addend: 0x0, symName: __RNCINvNtNtCs6IAuOt8vWmF_3syn3gen4fold8fold_abiNtNvCs3yqPx1X2sxh_15zerofrom_derive25replace_lifetime_and_type20ReplaceLifetimeAndTyE0BM_, symObjAddr: 0x2FD64, symBinAddr: 0x443C0, symSize: 0x3C }
  - { offset: 0x59826, size: 0x8, addend: 0x0, symName: __RNCINvNtNtCs6IAuOt8vWmF_3syn3gen4fold8fold_armNtNvCs3yqPx1X2sxh_15zerofrom_derive16replace_lifetime15ReplaceLifetimeE0BM_, symObjAddr: 0x2FDA0, symBinAddr: 0x443FC, symSize: 0x17C }
  - { offset: 0x5988E, size: 0x8, addend: 0x0, symName: __RNCINvNtNtCs6IAuOt8vWmF_3syn3gen4fold8fold_armNtNvCs3yqPx1X2sxh_15zerofrom_derive25replace_lifetime_and_type20ReplaceLifetimeAndTyE0BM_, symObjAddr: 0x2FF1C, symBinAddr: 0x44578, symSize: 0x17C }
  - { offset: 0x598FC, size: 0x8, addend: 0x0, symName: __RNCINvNtNtCs6IAuOt8vWmF_3syn3gen4fold8fold_vecNtNtB8_4attr9AttributeNtNvCs3yqPx1X2sxh_15zerofrom_derive16replace_lifetime15ReplaceLifetimeNvYB14_NtB4_4Fold14fold_attributeE0B18_, symObjAddr: 0x30098, symBinAddr: 0x446F4, symSize: 0x7C }
  - { offset: 0x5996C, size: 0x8, addend: 0x0, symName: __RNCINvNtNtCs6IAuOt8vWmF_3syn3gen4fold8fold_vecNtNtB8_4attr9AttributeNtNvCs3yqPx1X2sxh_15zerofrom_derive25replace_lifetime_and_type20ReplaceLifetimeAndTyNvYB14_NtB4_4Fold14fold_attributeE0B18_, symObjAddr: 0x30114, symBinAddr: 0x44770, symSize: 0x7C }
  - { offset: 0x599DC, size: 0x8, addend: 0x0, symName: __RNCINvNtNtCs6IAuOt8vWmF_3syn3gen4fold8fold_vecNtNtB8_4expr3ArmNtNvCs3yqPx1X2sxh_15zerofrom_derive16replace_lifetime15ReplaceLifetimeNvYBY_NtB4_4Fold8fold_armE0B12_, symObjAddr: 0x30190, symBinAddr: 0x447EC, symSize: 0x7C }
  - { offset: 0x59A4C, size: 0x8, addend: 0x0, symName: __RNCINvNtNtCs6IAuOt8vWmF_3syn3gen4fold8fold_vecNtNtB8_4expr3ArmNtNvCs3yqPx1X2sxh_15zerofrom_derive25replace_lifetime_and_type20ReplaceLifetimeAndTyNvYBY_NtB4_4Fold8fold_armE0B12_, symObjAddr: 0x3020C, symBinAddr: 0x44868, symSize: 0x7C }
  - { offset: 0x59ABC, size: 0x8, addend: 0x0, symName: __RNCINvNtNtCs6IAuOt8vWmF_3syn3gen4fold8fold_vecNtNtB8_4item11ForeignItemNtNvCs3yqPx1X2sxh_15zerofrom_derive16replace_lifetime15ReplaceLifetimeNvYB17_NtB4_4Fold17fold_foreign_itemE0B1b_, symObjAddr: 0x30288, symBinAddr: 0x448E4, symSize: 0x7C }
  - { offset: 0x59B2C, size: 0x8, addend: 0x0, symName: __RNCINvNtNtCs6IAuOt8vWmF_3syn3gen4fold8fold_vecNtNtB8_4item11ForeignItemNtNvCs3yqPx1X2sxh_15zerofrom_derive25replace_lifetime_and_type20ReplaceLifetimeAndTyNvYB17_NtB4_4Fold17fold_foreign_itemE0B1b_, symObjAddr: 0x30304, symBinAddr: 0x44960, symSize: 0x7C }
  - { offset: 0x59B9C, size: 0x8, addend: 0x0, symName: __RNCINvNtNtCs6IAuOt8vWmF_3syn3gen4fold8fold_vecNtNtB8_4item4ItemNtNvCs3yqPx1X2sxh_15zerofrom_derive16replace_lifetime15ReplaceLifetimeNvYBZ_NtB4_4Fold9fold_itemE0B13_, symObjAddr: 0x30380, symBinAddr: 0x449DC, symSize: 0x7C }
  - { offset: 0x59C0C, size: 0x8, addend: 0x0, symName: __RNCINvNtNtCs6IAuOt8vWmF_3syn3gen4fold8fold_vecNtNtB8_4item4ItemNtNvCs3yqPx1X2sxh_15zerofrom_derive25replace_lifetime_and_type20ReplaceLifetimeAndTyNvYBZ_NtB4_4Fold9fold_itemE0B13_, symObjAddr: 0x303FC, symBinAddr: 0x44A58, symSize: 0x7C }
  - { offset: 0x59C7C, size: 0x8, addend: 0x0, symName: __RNCINvNtNtCs6IAuOt8vWmF_3syn3gen4fold8fold_vecNtNtB8_4item8ImplItemNtNvCs3yqPx1X2sxh_15zerofrom_derive16replace_lifetime15ReplaceLifetimeNvYB13_NtB4_4Fold14fold_impl_itemE0B17_, symObjAddr: 0x30478, symBinAddr: 0x44AD4, symSize: 0x7C }
  - { offset: 0x59CEC, size: 0x8, addend: 0x0, symName: __RNCINvNtNtCs6IAuOt8vWmF_3syn3gen4fold8fold_vecNtNtB8_4item8ImplItemNtNvCs3yqPx1X2sxh_15zerofrom_derive25replace_lifetime_and_type20ReplaceLifetimeAndTyNvYB13_NtB4_4Fold14fold_impl_itemE0B17_, symObjAddr: 0x304F4, symBinAddr: 0x44B50, symSize: 0x7C }
  - { offset: 0x59D5C, size: 0x8, addend: 0x0, symName: __RNCINvNtNtCs6IAuOt8vWmF_3syn3gen4fold8fold_vecNtNtB8_4item9TraitItemNtNvCs3yqPx1X2sxh_15zerofrom_derive16replace_lifetime15ReplaceLifetimeNvYB14_NtB4_4Fold15fold_trait_itemE0B18_, symObjAddr: 0x30570, symBinAddr: 0x44BCC, symSize: 0x7C }
  - { offset: 0x59DCC, size: 0x8, addend: 0x0, symName: __RNCINvNtNtCs6IAuOt8vWmF_3syn3gen4fold8fold_vecNtNtB8_4item9TraitItemNtNvCs3yqPx1X2sxh_15zerofrom_derive25replace_lifetime_and_type20ReplaceLifetimeAndTyNvYB14_NtB4_4Fold15fold_trait_itemE0B18_, symObjAddr: 0x305EC, symBinAddr: 0x44C48, symSize: 0x7C }
  - { offset: 0x59E3C, size: 0x8, addend: 0x0, symName: __RNCINvNtNtCs6IAuOt8vWmF_3syn3gen4fold8fold_vecNtNtB8_4stmt4StmtNtNvCs3yqPx1X2sxh_15zerofrom_derive16replace_lifetime15ReplaceLifetimeNvYBZ_NtB4_4Fold9fold_stmtE0B13_, symObjAddr: 0x30668, symBinAddr: 0x44CC4, symSize: 0x7C }
  - { offset: 0x59EAC, size: 0x8, addend: 0x0, symName: __RNCINvNtNtCs6IAuOt8vWmF_3syn3gen4fold8fold_vecNtNtB8_4stmt4StmtNtNvCs3yqPx1X2sxh_15zerofrom_derive25replace_lifetime_and_type20ReplaceLifetimeAndTyNvYBZ_NtB4_4Fold9fold_stmtE0B13_, symObjAddr: 0x306E4, symBinAddr: 0x44D40, symSize: 0x7C }
  - { offset: 0x61FF2, size: 0x8, addend: 0x0, symName: __RINvXs0_NtNtNtCsfvfooZQ3Axs_4core4iter8adapters3mapINtB6_3MapINtNtCs6IAuOt8vWmF_3syn10punctuated8IntoIterNtCs3cP53eQoTwO_11proc_macro25IdentENCINvXs8_NtCsloNvcHxBCre_9hashbrown3setINtB2o_7HashSetB1F_NtNtNtCscOYdFFY2T5N_3std4hash6random11RandomStateEINtNtNtBa_6traits7collect6ExtendB1F_E6extendINtB10_10PunctuatedB1F_NtNtB12_5token5CommaEE0ENtNtB44_8iterator8Iterator4folduNCINvNvB5s_8for_each4callTB1F_uENCINvXs1i_NtB2q_3mapINtB6E_7HashMapB1F_uB3b_EIB40_B6n_E6extendBN_E0E0ECs3yqPx1X2sxh_15zerofrom_derive, symObjAddr: 0x0, symBinAddr: 0x44E24, symSize: 0x3C }
  - { offset: 0x62A4C, size: 0x8, addend: 0x0, symName: __RINvXs0_NtNtNtCsfvfooZQ3Axs_4core4iter8adapters3mapINtB6_3MapINtNtCs6IAuOt8vWmF_3syn10punctuated8IntoIterNtCs3cP53eQoTwO_11proc_macro25IdentENCINvXs8_NtCsloNvcHxBCre_9hashbrown3setINtB2o_7HashSetB1F_NtNtNtCscOYdFFY2T5N_3std4hash6random11RandomStateEINtNtNtBa_6traits7collect6ExtendB1F_E6extendINtB10_10PunctuatedB1F_NtNtB12_5token5CommaEE0ENtNtB44_8iterator8Iterator4folduNCINvNvB5s_8for_each4callTB1F_uENCINvXs1i_NtB2q_3mapINtB6E_7HashMapB1F_uB3b_EIB40_B6n_E6extendBN_E0E0ECs3yqPx1X2sxh_15zerofrom_derive, symObjAddr: 0x0, symBinAddr: 0x44E24, symSize: 0x3C }
  - { offset: 0x62ABE, size: 0x8, addend: 0x0, symName: __RINvXs0_NtNtNtCsfvfooZQ3Axs_4core4iter8adapters3mapINtB6_3MapINtNtNtBc_5slice4iter4IterNtCs3cP53eQoTwO_11proc_macro25IdentENCNvCs3yqPx1X2sxh_15zerofrom_derive14zf_derive_impls4_0ENtNtNtBa_6traits8iterator8Iterator4folduNCINvNvB2R_8for_each4callNtNtCs6IAuOt8vWmF_3syn8generics14WherePredicateNCINvMsi_NtCse1nGBsou5OW_5alloc3vecINtB4O_3VecB3U_E14extend_trustedBN_E0E0EB21_, symObjAddr: 0x3C, symBinAddr: 0x44E60, symSize: 0x4C }
  - { offset: 0x62B57, size: 0x8, addend: 0x0, symName: __RINvXs0_NtNtNtCsfvfooZQ3Axs_4core4iter8adapters3mapINtB6_3MapINtNtNtBc_5slice4iter4IterNtCs5gpj3SBp7s6_12synstructure11VariantInfoENCNvCs3yqPx1X2sxh_15zerofrom_derive14zf_derive_impls2_0ENtNtNtBa_6traits8iterator8Iterator8try_folduNCINvNvMst_NtB8_7flattenINtB3S_13FlattenCompatppE13iter_try_fold7flattenIBY_NtB1p_11BindingInfoEuINtNtNtBc_3ops12control_flow11ControlFlowuENCINvNvXsv_B3S_B45_B2Z_8try_fold7flattenB4R_uB5g_NCINvNvB2Z_3any5checkRB4V_NCB27_s3_0E0E0E0B5g_EB29_, symObjAddr: 0x88, symBinAddr: 0x44EAC, symSize: 0x54 }
  - { offset: 0x62BFA, size: 0x8, addend: 0x0, symName: __RINvXs0_NtNtNtCsfvfooZQ3Axs_4core4iter8adapters3mapINtB6_3MapINtNtNtBc_5slice4iter4IterNtNtCs6IAuOt8vWmF_3syn8generics9TypeParamENCNvCs3yqPx1X2sxh_15zerofrom_derive14zf_derive_impls_0ENtNtNtBa_6traits8iterator8Iterator4folduNCINvNvB2W_8for_each4callNtCs3cP53eQoTwO_11proc_macro25IdentNCINvMsi_NtCse1nGBsou5OW_5alloc3vecINtB4H_3VecB3Z_E14extend_trustedBN_E0E0EB27_, symObjAddr: 0xDC, symBinAddr: 0x44F00, symSize: 0x44 }
  - { offset: 0x62C92, size: 0x8, addend: 0x0, symName: __RINvXs0_NtNtNtCsfvfooZQ3Axs_4core4iter8adapters3mapINtB6_3MapINtNtNtBc_5slice4iter7IterMutNtNtCs6IAuOt8vWmF_3syn8generics9TypeParamENCNvCs3yqPx1X2sxh_15zerofrom_derive14zf_derive_impls0_0ENtNtNtBa_6traits8iterator8Iterator4folduNCINvNvB30_8for_each4callTNtCs3cP53eQoTwO_11proc_macro25IdentINtNtBc_6option6OptionB44_EENCINvXs1i_NtCsloNvcHxBCre_9hashbrown3mapINtB5f_7HashMapB44_B4D_NtNtNtCscOYdFFY2T5N_3std4hash6random11RandomStateEINtNtB34_7collect6ExtendB43_E6extendBN_E0E0EB2a_, symObjAddr: 0x120, symBinAddr: 0x44F44, symSize: 0x3C }
  - { offset: 0x62D04, size: 0x8, addend: 0x0, symName: __RINvXs0_NtNtNtCsfvfooZQ3Axs_4core4iter8adapters3mapINtB6_3MapINtNtNtCse1nGBsou5OW_5alloc3vec9into_iter8IntoIterNtNtCs6IAuOt8vWmF_3syn4attr9AttributeENCINvNtNtB1P_3gen4fold8fold_vecB1L_NtNvCs3yqPx1X2sxh_15zerofrom_derive16replace_lifetime15ReplaceLifetimeNvYB2W_NtB2s_4Fold14fold_attributeE0ENtNtNtBa_6traits8iterator8Iterator8try_foldINtNtB12_13in_place_drop11InPlaceDropB1L_ENCINvNtB12_16in_place_collect24write_in_place_with_dropB1L_E0INtNtBc_6result6ResultB5m_zEEB30_, symObjAddr: 0x15C, symBinAddr: 0x44F80, symSize: 0x4C }
  - { offset: 0x62D82, size: 0x8, addend: 0x0, symName: __RINvXs0_NtNtNtCsfvfooZQ3Axs_4core4iter8adapters3mapINtB6_3MapINtNtNtCse1nGBsou5OW_5alloc3vec9into_iter8IntoIterNtNtCs6IAuOt8vWmF_3syn4attr9AttributeENCINvNtNtB1P_3gen4fold8fold_vecB1L_NtNvCs3yqPx1X2sxh_15zerofrom_derive25replace_lifetime_and_type20ReplaceLifetimeAndTyNvYB2W_NtB2s_4Fold14fold_attributeE0ENtNtNtBa_6traits8iterator8Iterator8try_foldINtNtB12_13in_place_drop11InPlaceDropB1L_ENCINvNtB12_16in_place_collect24write_in_place_with_dropB1L_E0INtNtBc_6result6ResultB5A_zEEB30_, symObjAddr: 0x1A8, symBinAddr: 0x44FCC, symSize: 0x4C }
  - { offset: 0x62E00, size: 0x8, addend: 0x0, symName: __RINvXs0_NtNtNtCsfvfooZQ3Axs_4core4iter8adapters3mapINtB6_3MapINtNtNtCse1nGBsou5OW_5alloc3vec9into_iter8IntoIterNtNtCs6IAuOt8vWmF_3syn4expr3ArmENCINvNtNtB1P_3gen4fold8fold_vecB1L_NtNvCs3yqPx1X2sxh_15zerofrom_derive16replace_lifetime15ReplaceLifetimeNvYB2Q_NtB2m_4Fold8fold_armE0ENtNtNtBa_6traits8iterator8Iterator8try_foldINtNtB12_13in_place_drop11InPlaceDropB1L_ENCINvNtB12_16in_place_collect24write_in_place_with_dropB1L_E0INtNtBc_6result6ResultB59_zEEB2U_, symObjAddr: 0x1F4, symBinAddr: 0x45018, symSize: 0x4C }
  - { offset: 0x62E7E, size: 0x8, addend: 0x0, symName: __RINvXs0_NtNtNtCsfvfooZQ3Axs_4core4iter8adapters3mapINtB6_3MapINtNtNtCse1nGBsou5OW_5alloc3vec9into_iter8IntoIterNtNtCs6IAuOt8vWmF_3syn4expr3ArmENCINvNtNtB1P_3gen4fold8fold_vecB1L_NtNvCs3yqPx1X2sxh_15zerofrom_derive25replace_lifetime_and_type20ReplaceLifetimeAndTyNvYB2Q_NtB2m_4Fold8fold_armE0ENtNtNtBa_6traits8iterator8Iterator8try_foldINtNtB12_13in_place_drop11InPlaceDropB1L_ENCINvNtB12_16in_place_collect24write_in_place_with_dropB1L_E0INtNtBc_6result6ResultB5n_zEEB2U_, symObjAddr: 0x240, symBinAddr: 0x45064, symSize: 0x4C }
  - { offset: 0x62EFC, size: 0x8, addend: 0x0, symName: __RINvXs0_NtNtNtCsfvfooZQ3Axs_4core4iter8adapters3mapINtB6_3MapINtNtNtCse1nGBsou5OW_5alloc3vec9into_iter8IntoIterNtNtCs6IAuOt8vWmF_3syn4item11ForeignItemENCINvNtNtB1P_3gen4fold8fold_vecB1L_NtNvCs3yqPx1X2sxh_15zerofrom_derive16replace_lifetime15ReplaceLifetimeNvYB2Z_NtB2v_4Fold17fold_foreign_itemE0ENtNtNtBa_6traits8iterator8Iterator8try_foldINtNtB12_13in_place_drop11InPlaceDropB1L_ENCINvNtB12_16in_place_collect24write_in_place_with_dropB1L_E0INtNtBc_6result6ResultB5s_zEEB33_, symObjAddr: 0x28C, symBinAddr: 0x450B0, symSize: 0x4C }
  - { offset: 0x62F7A, size: 0x8, addend: 0x0, symName: __RINvXs0_NtNtNtCsfvfooZQ3Axs_4core4iter8adapters3mapINtB6_3MapINtNtNtCse1nGBsou5OW_5alloc3vec9into_iter8IntoIterNtNtCs6IAuOt8vWmF_3syn4item11ForeignItemENCINvNtNtB1P_3gen4fold8fold_vecB1L_NtNvCs3yqPx1X2sxh_15zerofrom_derive25replace_lifetime_and_type20ReplaceLifetimeAndTyNvYB2Z_NtB2v_4Fold17fold_foreign_itemE0ENtNtNtBa_6traits8iterator8Iterator8try_foldINtNtB12_13in_place_drop11InPlaceDropB1L_ENCINvNtB12_16in_place_collect24write_in_place_with_dropB1L_E0INtNtBc_6result6ResultB5G_zEEB33_, symObjAddr: 0x2D8, symBinAddr: 0x450FC, symSize: 0x4C }
  - { offset: 0x62FF8, size: 0x8, addend: 0x0, symName: __RINvXs0_NtNtNtCsfvfooZQ3Axs_4core4iter8adapters3mapINtB6_3MapINtNtNtCse1nGBsou5OW_5alloc3vec9into_iter8IntoIterNtNtCs6IAuOt8vWmF_3syn4item4ItemENCINvNtNtB1P_3gen4fold8fold_vecB1L_NtNvCs3yqPx1X2sxh_15zerofrom_derive16replace_lifetime15ReplaceLifetimeNvYB2R_NtB2n_4Fold9fold_itemE0ENtNtNtBa_6traits8iterator8Iterator8try_foldINtNtB12_13in_place_drop11InPlaceDropB1L_ENCINvNtB12_16in_place_collect24write_in_place_with_dropB1L_E0INtNtBc_6result6ResultB5b_zEEB2V_, symObjAddr: 0x324, symBinAddr: 0x45148, symSize: 0x4C }
  - { offset: 0x63076, size: 0x8, addend: 0x0, symName: __RINvXs0_NtNtNtCsfvfooZQ3Axs_4core4iter8adapters3mapINtB6_3MapINtNtNtCse1nGBsou5OW_5alloc3vec9into_iter8IntoIterNtNtCs6IAuOt8vWmF_3syn4item4ItemENCINvNtNtB1P_3gen4fold8fold_vecB1L_NtNvCs3yqPx1X2sxh_15zerofrom_derive25replace_lifetime_and_type20ReplaceLifetimeAndTyNvYB2R_NtB2n_4Fold9fold_itemE0ENtNtNtBa_6traits8iterator8Iterator8try_foldINtNtB12_13in_place_drop11InPlaceDropB1L_ENCINvNtB12_16in_place_collect24write_in_place_with_dropB1L_E0INtNtBc_6result6ResultB5p_zEEB2V_, symObjAddr: 0x370, symBinAddr: 0x45194, symSize: 0x4C }
  - { offset: 0x630F4, size: 0x8, addend: 0x0, symName: __RINvXs0_NtNtNtCsfvfooZQ3Axs_4core4iter8adapters3mapINtB6_3MapINtNtNtCse1nGBsou5OW_5alloc3vec9into_iter8IntoIterNtNtCs6IAuOt8vWmF_3syn4item8ImplItemENCINvNtNtB1P_3gen4fold8fold_vecB1L_NtNvCs3yqPx1X2sxh_15zerofrom_derive16replace_lifetime15ReplaceLifetimeNvYB2V_NtB2r_4Fold14fold_impl_itemE0ENtNtNtBa_6traits8iterator8Iterator8try_foldINtNtB12_13in_place_drop11InPlaceDropB1L_ENCINvNtB12_16in_place_collect24write_in_place_with_dropB1L_E0INtNtBc_6result6ResultB5l_zEEB2Z_, symObjAddr: 0x3BC, symBinAddr: 0x451E0, symSize: 0x4C }
  - { offset: 0x63172, size: 0x8, addend: 0x0, symName: __RINvXs0_NtNtNtCsfvfooZQ3Axs_4core4iter8adapters3mapINtB6_3MapINtNtNtCse1nGBsou5OW_5alloc3vec9into_iter8IntoIterNtNtCs6IAuOt8vWmF_3syn4item8ImplItemENCINvNtNtB1P_3gen4fold8fold_vecB1L_NtNvCs3yqPx1X2sxh_15zerofrom_derive25replace_lifetime_and_type20ReplaceLifetimeAndTyNvYB2V_NtB2r_4Fold14fold_impl_itemE0ENtNtNtBa_6traits8iterator8Iterator8try_foldINtNtB12_13in_place_drop11InPlaceDropB1L_ENCINvNtB12_16in_place_collect24write_in_place_with_dropB1L_E0INtNtBc_6result6ResultB5z_zEEB2Z_, symObjAddr: 0x408, symBinAddr: 0x4522C, symSize: 0x4C }
  - { offset: 0x631F0, size: 0x8, addend: 0x0, symName: __RINvXs0_NtNtNtCsfvfooZQ3Axs_4core4iter8adapters3mapINtB6_3MapINtNtNtCse1nGBsou5OW_5alloc3vec9into_iter8IntoIterNtNtCs6IAuOt8vWmF_3syn4item9TraitItemENCINvNtNtB1P_3gen4fold8fold_vecB1L_NtNvCs3yqPx1X2sxh_15zerofrom_derive16replace_lifetime15ReplaceLifetimeNvYB2W_NtB2s_4Fold15fold_trait_itemE0ENtNtNtBa_6traits8iterator8Iterator8try_foldINtNtB12_13in_place_drop11InPlaceDropB1L_ENCINvNtB12_16in_place_collect24write_in_place_with_dropB1L_E0INtNtBc_6result6ResultB5n_zEEB30_, symObjAddr: 0x454, symBinAddr: 0x45278, symSize: 0x4C }
  - { offset: 0x6326E, size: 0x8, addend: 0x0, symName: __RINvXs0_NtNtNtCsfvfooZQ3Axs_4core4iter8adapters3mapINtB6_3MapINtNtNtCse1nGBsou5OW_5alloc3vec9into_iter8IntoIterNtNtCs6IAuOt8vWmF_3syn4item9TraitItemENCINvNtNtB1P_3gen4fold8fold_vecB1L_NtNvCs3yqPx1X2sxh_15zerofrom_derive25replace_lifetime_and_type20ReplaceLifetimeAndTyNvYB2W_NtB2s_4Fold15fold_trait_itemE0ENtNtNtBa_6traits8iterator8Iterator8try_foldINtNtB12_13in_place_drop11InPlaceDropB1L_ENCINvNtB12_16in_place_collect24write_in_place_with_dropB1L_E0INtNtBc_6result6ResultB5B_zEEB30_, symObjAddr: 0x4A0, symBinAddr: 0x452C4, symSize: 0x4C }
  - { offset: 0x632EC, size: 0x8, addend: 0x0, symName: __RINvXs0_NtNtNtCsfvfooZQ3Axs_4core4iter8adapters3mapINtB6_3MapINtNtNtCse1nGBsou5OW_5alloc3vec9into_iter8IntoIterNtNtCs6IAuOt8vWmF_3syn4stmt4StmtENCINvNtNtB1P_3gen4fold8fold_vecB1L_NtNvCs3yqPx1X2sxh_15zerofrom_derive16replace_lifetime15ReplaceLifetimeNvYB2R_NtB2n_4Fold9fold_stmtE0ENtNtNtBa_6traits8iterator8Iterator8try_foldINtNtB12_13in_place_drop11InPlaceDropB1L_ENCINvNtB12_16in_place_collect24write_in_place_with_dropB1L_E0INtNtBc_6result6ResultB5b_zEEB2V_, symObjAddr: 0x4EC, symBinAddr: 0x45310, symSize: 0x4C }
  - { offset: 0x6336A, size: 0x8, addend: 0x0, symName: __RINvXs0_NtNtNtCsfvfooZQ3Axs_4core4iter8adapters3mapINtB6_3MapINtNtNtCse1nGBsou5OW_5alloc3vec9into_iter8IntoIterNtNtCs6IAuOt8vWmF_3syn4stmt4StmtENCINvNtNtB1P_3gen4fold8fold_vecB1L_NtNvCs3yqPx1X2sxh_15zerofrom_derive25replace_lifetime_and_type20ReplaceLifetimeAndTyNvYB2R_NtB2n_4Fold9fold_stmtE0ENtNtNtBa_6traits8iterator8Iterator8try_foldINtNtB12_13in_place_drop11InPlaceDropB1L_ENCINvNtB12_16in_place_collect24write_in_place_with_dropB1L_E0INtNtBc_6result6ResultB5p_zEEB2V_, symObjAddr: 0x538, symBinAddr: 0x4535C, symSize: 0x4C }
  - { offset: 0x633E8, size: 0x8, addend: 0x0, symName: __RINvXs0_NtNtNtCsfvfooZQ3Axs_4core4iter8adapters3mapINtB6_3MapINtNtNtCse1nGBsou5OW_5alloc3vec9into_iter8IntoIterTNtCs3cP53eQoTwO_11proc_macro25IdentNtNtCs6IAuOt8vWmF_3syn5token5CommaEENCNvXs8_NtB2p_10punctuatedINtB33_10PunctuatedB1M_B2l_ENtNtNtBa_6traits7collect12IntoIterator9into_iter0ENtNtB3R_8iterator8Iterator4folduNCINvNvB4B_8for_each4callB1M_NCINvMsi_B12_INtB12_3VecB1M_E14extend_trustedBN_E0E0ECs3yqPx1X2sxh_15zerofrom_derive, symObjAddr: 0x584, symBinAddr: 0x453A8, symSize: 0x4C }
  - { offset: 0x63481, size: 0x8, addend: 0x0, symName: __RINvXs0_NtNtNtCsfvfooZQ3Axs_4core4iter8adapters3mapINtB6_3MapINtNtNtCse1nGBsou5OW_5alloc3vec9into_iter8IntoIterTNtNtCs6IAuOt8vWmF_3syn2ty4TypeNtNtB1Q_5token5CommaEENCINvNtB1Q_10punctuated4foldB1M_B2g_NtNvCs3yqPx1X2sxh_15zerofrom_derive16replace_lifetime15ReplaceLifetimeNvYB3c_NtNtNtB1Q_3gen4fold4Fold9fold_typeE0ENtNtNtBa_6traits8iterator8Iterator8try_foldINtNtB12_13in_place_drop11InPlaceDropB1L_ENCINvNtB12_16in_place_collect24write_in_place_with_dropB1L_E0INtNtBc_6result6ResultB5J_zEEB3g_, symObjAddr: 0x5D0, symBinAddr: 0x453F4, symSize: 0x4C }
  - { offset: 0x634FF, size: 0x8, addend: 0x0, symName: __RINvXs0_NtNtNtCsfvfooZQ3Axs_4core4iter8adapters3mapINtB6_3MapINtNtNtCse1nGBsou5OW_5alloc3vec9into_iter8IntoIterTNtNtCs6IAuOt8vWmF_3syn2ty4TypeNtNtB1Q_5token5CommaEENCINvNtB1Q_10punctuated4foldB1M_B2g_NtNvCs3yqPx1X2sxh_15zerofrom_derive25replace_lifetime_and_type20ReplaceLifetimeAndTyNvYB3c_NtNtNtB1Q_3gen4fold4Fold9fold_typeE0ENtNtNtBa_6traits8iterator8Iterator8try_foldINtNtB12_13in_place_drop11InPlaceDropB1L_ENCINvNtB12_16in_place_collect24write_in_place_with_dropB1L_E0INtNtBc_6result6ResultB5X_zEEB3g_, symObjAddr: 0x61C, symBinAddr: 0x45440, symSize: 0x4C }
  - { offset: 0x6357D, size: 0x8, addend: 0x0, symName: __RINvXs0_NtNtNtCsfvfooZQ3Axs_4core4iter8adapters3mapINtB6_3MapINtNtNtCse1nGBsou5OW_5alloc3vec9into_iter8IntoIterTNtNtCs6IAuOt8vWmF_3syn2ty9BareFnArgNtNtB1Q_5token5CommaEENCINvNtB1Q_10punctuated4foldB1M_B2l_NtNvCs3yqPx1X2sxh_15zerofrom_derive16replace_lifetime15ReplaceLifetimeNvYB3h_NtNtNtB1Q_3gen4fold4Fold16fold_bare_fn_argE0ENtNtNtBa_6traits8iterator8Iterator8try_foldINtNtB12_13in_place_drop11InPlaceDropB1L_ENCINvNtB12_16in_place_collect24write_in_place_with_dropB1L_E0INtNtBc_6result6ResultB5W_zEEB3l_, symObjAddr: 0x668, symBinAddr: 0x4548C, symSize: 0x4C }
  - { offset: 0x635FB, size: 0x8, addend: 0x0, symName: __RINvXs0_NtNtNtCsfvfooZQ3Axs_4core4iter8adapters3mapINtB6_3MapINtNtNtCse1nGBsou5OW_5alloc3vec9into_iter8IntoIterTNtNtCs6IAuOt8vWmF_3syn2ty9BareFnArgNtNtB1Q_5token5CommaEENCINvNtB1Q_10punctuated4foldB1M_B2l_NtNvCs3yqPx1X2sxh_15zerofrom_derive25replace_lifetime_and_type20ReplaceLifetimeAndTyNvYB3h_NtNtNtB1Q_3gen4fold4Fold16fold_bare_fn_argE0ENtNtNtBa_6traits8iterator8Iterator8try_foldINtNtB12_13in_place_drop11InPlaceDropB1L_ENCINvNtB12_16in_place_collect24write_in_place_with_dropB1L_E0INtNtBc_6result6ResultB6a_zEEB3l_, symObjAddr: 0x6B4, symBinAddr: 0x454D8, symSize: 0x4C }
  - { offset: 0x63679, size: 0x8, addend: 0x0, symName: __RINvXs0_NtNtNtCsfvfooZQ3Axs_4core4iter8adapters3mapINtB6_3MapINtNtNtCse1nGBsou5OW_5alloc3vec9into_iter8IntoIterTNtNtCs6IAuOt8vWmF_3syn3pat3PatNtNtB1Q_5token2OrEENCINvNtB1Q_10punctuated4foldB1M_B2g_NtNvCs3yqPx1X2sxh_15zerofrom_derive16replace_lifetime15ReplaceLifetimeNvYB39_NtNtNtB1Q_3gen4fold4Fold8fold_patE0ENtNtNtBa_6traits8iterator8Iterator8try_foldINtNtB12_13in_place_drop11InPlaceDropB1L_ENCINvNtB12_16in_place_collect24write_in_place_with_dropB1L_E0INtNtBc_6result6ResultB5F_zEEB3d_, symObjAddr: 0x700, symBinAddr: 0x45524, symSize: 0x4C }
  - { offset: 0x636F7, size: 0x8, addend: 0x0, symName: __RINvXs0_NtNtNtCsfvfooZQ3Axs_4core4iter8adapters3mapINtB6_3MapINtNtNtCse1nGBsou5OW_5alloc3vec9into_iter8IntoIterTNtNtCs6IAuOt8vWmF_3syn3pat3PatNtNtB1Q_5token2OrEENCINvNtB1Q_10punctuated4foldB1M_B2g_NtNvCs3yqPx1X2sxh_15zerofrom_derive25replace_lifetime_and_type20ReplaceLifetimeAndTyNvYB39_NtNtNtB1Q_3gen4fold4Fold8fold_patE0ENtNtNtBa_6traits8iterator8Iterator8try_foldINtNtB12_13in_place_drop11InPlaceDropB1L_ENCINvNtB12_16in_place_collect24write_in_place_with_dropB1L_E0INtNtBc_6result6ResultB5T_zEEB3d_, symObjAddr: 0x74C, symBinAddr: 0x45570, symSize: 0x4C }
  - { offset: 0x63775, size: 0x8, addend: 0x0, symName: __RINvXs0_NtNtNtCsfvfooZQ3Axs_4core4iter8adapters3mapINtB6_3MapINtNtNtCse1nGBsou5OW_5alloc3vec9into_iter8IntoIterTNtNtCs6IAuOt8vWmF_3syn3pat3PatNtNtB1Q_5token5CommaEENCINvNtB1Q_10punctuated4foldB1M_B2g_NtNvCs3yqPx1X2sxh_15zerofrom_derive16replace_lifetime15ReplaceLifetimeNvYB3c_NtNtNtB1Q_3gen4fold4Fold8fold_patE0ENtNtNtBa_6traits8iterator8Iterator8try_foldINtNtB12_13in_place_drop11InPlaceDropB1L_ENCINvNtB12_16in_place_collect24write_in_place_with_dropB1L_E0INtNtBc_6result6ResultB5I_zEEB3g_, symObjAddr: 0x798, symBinAddr: 0x455BC, symSize: 0x4C }
  - { offset: 0x637F3, size: 0x8, addend: 0x0, symName: __RINvXs0_NtNtNtCsfvfooZQ3Axs_4core4iter8adapters3mapINtB6_3MapINtNtNtCse1nGBsou5OW_5alloc3vec9into_iter8IntoIterTNtNtCs6IAuOt8vWmF_3syn3pat3PatNtNtB1Q_5token5CommaEENCINvNtB1Q_10punctuated4foldB1M_B2g_NtNvCs3yqPx1X2sxh_15zerofrom_derive25replace_lifetime_and_type20ReplaceLifetimeAndTyNvYB3c_NtNtNtB1Q_3gen4fold4Fold8fold_patE0ENtNtNtBa_6traits8iterator8Iterator8try_foldINtNtB12_13in_place_drop11InPlaceDropB1L_ENCINvNtB12_16in_place_collect24write_in_place_with_dropB1L_E0INtNtBc_6result6ResultB5W_zEEB3g_, symObjAddr: 0x7E4, symBinAddr: 0x45608, symSize: 0x4C }
  - { offset: 0x63871, size: 0x8, addend: 0x0, symName: __RINvXs0_NtNtNtCsfvfooZQ3Axs_4core4iter8adapters3mapINtB6_3MapINtNtNtCse1nGBsou5OW_5alloc3vec9into_iter8IntoIterTNtNtCs6IAuOt8vWmF_3syn3pat8FieldPatNtNtB1Q_5token5CommaEENCINvNtB1Q_10punctuated4foldB1M_B2l_NtNvCs3yqPx1X2sxh_15zerofrom_derive16replace_lifetime15ReplaceLifetimeNvYB3h_NtNtNtB1Q_3gen4fold4Fold14fold_field_patE0ENtNtNtBa_6traits8iterator8Iterator8try_foldINtNtB12_13in_place_drop11InPlaceDropB1L_ENCINvNtB12_16in_place_collect24write_in_place_with_dropB1L_E0INtNtBc_6result6ResultB5U_zEEB3l_, symObjAddr: 0x830, symBinAddr: 0x45654, symSize: 0x4C }
  - { offset: 0x638EF, size: 0x8, addend: 0x0, symName: __RINvXs0_NtNtNtCsfvfooZQ3Axs_4core4iter8adapters3mapINtB6_3MapINtNtNtCse1nGBsou5OW_5alloc3vec9into_iter8IntoIterTNtNtCs6IAuOt8vWmF_3syn3pat8FieldPatNtNtB1Q_5token5CommaEENCINvNtB1Q_10punctuated4foldB1M_B2l_NtNvCs3yqPx1X2sxh_15zerofrom_derive25replace_lifetime_and_type20ReplaceLifetimeAndTyNvYB3h_NtNtNtB1Q_3gen4fold4Fold14fold_field_patE0ENtNtNtBa_6traits8iterator8Iterator8try_foldINtNtB12_13in_place_drop11InPlaceDropB1L_ENCINvNtB12_16in_place_collect24write_in_place_with_dropB1L_E0INtNtBc_6result6ResultB68_zEEB3l_, symObjAddr: 0x87C, symBinAddr: 0x456A0, symSize: 0x4C }
  - { offset: 0x6396D, size: 0x8, addend: 0x0, symName: __RINvXs0_NtNtNtCsfvfooZQ3Axs_4core4iter8adapters3mapINtB6_3MapINtNtNtCse1nGBsou5OW_5alloc3vec9into_iter8IntoIterTNtNtCs6IAuOt8vWmF_3syn4data5FieldNtNtB1Q_5token5CommaEENCINvNtB1Q_10punctuated4foldB1M_B2j_NtNvCs3yqPx1X2sxh_15zerofrom_derive16replace_lifetime15ReplaceLifetimeNvYB3f_NtNtNtB1Q_3gen4fold4Fold10fold_fieldE0ENtNtNtBa_6traits8iterator8Iterator8try_foldINtNtB12_13in_place_drop11InPlaceDropB1L_ENCINvNtB12_16in_place_collect24write_in_place_with_dropB1L_E0INtNtBc_6result6ResultB5O_zEEB3j_, symObjAddr: 0x8C8, symBinAddr: 0x456EC, symSize: 0x4C }
  - { offset: 0x639EB, size: 0x8, addend: 0x0, symName: __RINvXs0_NtNtNtCsfvfooZQ3Axs_4core4iter8adapters3mapINtB6_3MapINtNtNtCse1nGBsou5OW_5alloc3vec9into_iter8IntoIterTNtNtCs6IAuOt8vWmF_3syn4data5FieldNtNtB1Q_5token5CommaEENCINvNtB1Q_10punctuated4foldB1M_B2j_NtNvCs3yqPx1X2sxh_15zerofrom_derive25replace_lifetime_and_type20ReplaceLifetimeAndTyNvYB3f_NtNtNtB1Q_3gen4fold4Fold10fold_fieldE0ENtNtNtBa_6traits8iterator8Iterator8try_foldINtNtB12_13in_place_drop11InPlaceDropB1L_ENCINvNtB12_16in_place_collect24write_in_place_with_dropB1L_E0INtNtBc_6result6ResultB62_zEEB3j_, symObjAddr: 0x914, symBinAddr: 0x45738, symSize: 0x4C }
  - { offset: 0x63A69, size: 0x8, addend: 0x0, symName: __RINvXs0_NtNtNtCsfvfooZQ3Axs_4core4iter8adapters3mapINtB6_3MapINtNtNtCse1nGBsou5OW_5alloc3vec9into_iter8IntoIterTNtNtCs6IAuOt8vWmF_3syn4data7VariantNtNtB1Q_5token5CommaEENCINvNtB1Q_10punctuated4foldB1M_B2l_NtNvCs3yqPx1X2sxh_15zerofrom_derive16replace_lifetime15ReplaceLifetimeNvYB3h_NtNtNtB1Q_3gen4fold4Fold12fold_variantE0ENtNtNtBa_6traits8iterator8Iterator8try_foldINtNtB12_13in_place_drop11InPlaceDropB1L_ENCINvNtB12_16in_place_collect24write_in_place_with_dropB1L_E0INtNtBc_6result6ResultB5S_zEEB3l_, symObjAddr: 0x960, symBinAddr: 0x45784, symSize: 0x4C }
  - { offset: 0x63AE7, size: 0x8, addend: 0x0, symName: __RINvXs0_NtNtNtCsfvfooZQ3Axs_4core4iter8adapters3mapINtB6_3MapINtNtNtCse1nGBsou5OW_5alloc3vec9into_iter8IntoIterTNtNtCs6IAuOt8vWmF_3syn4data7VariantNtNtB1Q_5token5CommaEENCINvNtB1Q_10punctuated4foldB1M_B2l_NtNvCs3yqPx1X2sxh_15zerofrom_derive25replace_lifetime_and_type20ReplaceLifetimeAndTyNvYB3h_NtNtNtB1Q_3gen4fold4Fold12fold_variantE0ENtNtNtBa_6traits8iterator8Iterator8try_foldINtNtB12_13in_place_drop11InPlaceDropB1L_ENCINvNtB12_16in_place_collect24write_in_place_with_dropB1L_E0INtNtBc_6result6ResultB66_zEEB3l_, symObjAddr: 0x9AC, symBinAddr: 0x457D0, symSize: 0x4C }
  - { offset: 0x63B65, size: 0x8, addend: 0x0, symName: __RINvXs0_NtNtNtCsfvfooZQ3Axs_4core4iter8adapters3mapINtB6_3MapINtNtNtCse1nGBsou5OW_5alloc3vec9into_iter8IntoIterTNtNtCs6IAuOt8vWmF_3syn4expr10FieldValueNtNtB1Q_5token5CommaEENCINvNtB1Q_10punctuated4foldB1M_B2p_NtNvCs3yqPx1X2sxh_15zerofrom_derive16replace_lifetime15ReplaceLifetimeNvYB3l_NtNtNtB1Q_3gen4fold4Fold16fold_field_valueE0ENtNtNtBa_6traits8iterator8Iterator8try_foldINtNtB12_13in_place_drop11InPlaceDropB1L_ENCINvNtB12_16in_place_collect24write_in_place_with_dropB1L_E0INtNtBc_6result6ResultB60_zEEB3p_, symObjAddr: 0x9F8, symBinAddr: 0x4581C, symSize: 0x4C }
  - { offset: 0x63BE3, size: 0x8, addend: 0x0, symName: __RINvXs0_NtNtNtCsfvfooZQ3Axs_4core4iter8adapters3mapINtB6_3MapINtNtNtCse1nGBsou5OW_5alloc3vec9into_iter8IntoIterTNtNtCs6IAuOt8vWmF_3syn4expr10FieldValueNtNtB1Q_5token5CommaEENCINvNtB1Q_10punctuated4foldB1M_B2p_NtNvCs3yqPx1X2sxh_15zerofrom_derive25replace_lifetime_and_type20ReplaceLifetimeAndTyNvYB3l_NtNtNtB1Q_3gen4fold4Fold16fold_field_valueE0ENtNtNtBa_6traits8iterator8Iterator8try_foldINtNtB12_13in_place_drop11InPlaceDropB1L_ENCINvNtB12_16in_place_collect24write_in_place_with_dropB1L_E0INtNtBc_6result6ResultB6e_zEEB3p_, symObjAddr: 0xA44, symBinAddr: 0x45868, symSize: 0x4C }
  - { offset: 0x63C61, size: 0x8, addend: 0x0, symName: __RINvXs0_NtNtNtCsfvfooZQ3Axs_4core4iter8adapters3mapINtB6_3MapINtNtNtCse1nGBsou5OW_5alloc3vec9into_iter8IntoIterTNtNtCs6IAuOt8vWmF_3syn4expr4ExprNtNtB1Q_5token5CommaEENCINvNtB1Q_10punctuated4foldB1M_B2i_NtNvCs3yqPx1X2sxh_15zerofrom_derive16replace_lifetime15ReplaceLifetimeNvYB3e_NtNtNtB1Q_3gen4fold4Fold9fold_exprE0ENtNtNtBa_6traits8iterator8Iterator8try_foldINtNtB12_13in_place_drop11InPlaceDropB1L_ENCINvNtB12_16in_place_collect24write_in_place_with_dropB1L_E0INtNtBc_6result6ResultB5L_zEEB3i_, symObjAddr: 0xA90, symBinAddr: 0x458B4, symSize: 0x4C }
  - { offset: 0x63CDF, size: 0x8, addend: 0x0, symName: __RINvXs0_NtNtNtCsfvfooZQ3Axs_4core4iter8adapters3mapINtB6_3MapINtNtNtCse1nGBsou5OW_5alloc3vec9into_iter8IntoIterTNtNtCs6IAuOt8vWmF_3syn4expr4ExprNtNtB1Q_5token5CommaEENCINvNtB1Q_10punctuated4foldB1M_B2i_NtNvCs3yqPx1X2sxh_15zerofrom_derive25replace_lifetime_and_type20ReplaceLifetimeAndTyNvYB3e_NtNtNtB1Q_3gen4fold4Fold9fold_exprE0ENtNtNtBa_6traits8iterator8Iterator8try_foldINtNtB12_13in_place_drop11InPlaceDropB1L_ENCINvNtB12_16in_place_collect24write_in_place_with_dropB1L_E0INtNtBc_6result6ResultB5Z_zEEB3i_, symObjAddr: 0xADC, symBinAddr: 0x45900, symSize: 0x4C }
  - { offset: 0x63D5D, size: 0x8, addend: 0x0, symName: __RINvXs0_NtNtNtCsfvfooZQ3Axs_4core4iter8adapters3mapINtB6_3MapINtNtNtCse1nGBsou5OW_5alloc3vec9into_iter8IntoIterTNtNtCs6IAuOt8vWmF_3syn4item5FnArgNtNtB1Q_5token5CommaEENCINvNtB1Q_10punctuated4foldB1M_B2j_NtNvCs3yqPx1X2sxh_15zerofrom_derive16replace_lifetime15ReplaceLifetimeNvYB3f_NtNtNtB1Q_3gen4fold4Fold11fold_fn_argE0ENtNtNtBa_6traits8iterator8Iterator8try_foldINtNtB12_13in_place_drop11InPlaceDropB1L_ENCINvNtB12_16in_place_collect24write_in_place_with_dropB1L_E0INtNtBc_6result6ResultB5P_zEEB3j_, symObjAddr: 0xB28, symBinAddr: 0x4594C, symSize: 0x4C }
  - { offset: 0x63DDB, size: 0x8, addend: 0x0, symName: __RINvXs0_NtNtNtCsfvfooZQ3Axs_4core4iter8adapters3mapINtB6_3MapINtNtNtCse1nGBsou5OW_5alloc3vec9into_iter8IntoIterTNtNtCs6IAuOt8vWmF_3syn4item5FnArgNtNtB1Q_5token5CommaEENCINvNtB1Q_10punctuated4foldB1M_B2j_NtNvCs3yqPx1X2sxh_15zerofrom_derive25replace_lifetime_and_type20ReplaceLifetimeAndTyNvYB3f_NtNtNtB1Q_3gen4fold4Fold11fold_fn_argE0ENtNtNtBa_6traits8iterator8Iterator8try_foldINtNtB12_13in_place_drop11InPlaceDropB1L_ENCINvNtB12_16in_place_collect24write_in_place_with_dropB1L_E0INtNtBc_6result6ResultB63_zEEB3j_, symObjAddr: 0xB74, symBinAddr: 0x45998, symSize: 0x4C }
  - { offset: 0x63E59, size: 0x8, addend: 0x0, symName: __RINvXs0_NtNtNtCsfvfooZQ3Axs_4core4iter8adapters3mapINtB6_3MapINtNtNtCse1nGBsou5OW_5alloc3vec9into_iter8IntoIterTNtNtCs6IAuOt8vWmF_3syn4item7UseTreeNtNtB1Q_5token5CommaEENCINvNtB1Q_10punctuated4foldB1M_B2l_NtNvCs3yqPx1X2sxh_15zerofrom_derive16replace_lifetime15ReplaceLifetimeNvYB3h_NtNtNtB1Q_3gen4fold4Fold13fold_use_treeE0ENtNtNtBa_6traits8iterator8Iterator8try_foldINtNtB12_13in_place_drop11InPlaceDropB1L_ENCINvNtB12_16in_place_collect24write_in_place_with_dropB1L_E0INtNtBc_6result6ResultB5T_zEEB3l_, symObjAddr: 0xBC0, symBinAddr: 0x459E4, symSize: 0x4C }
  - { offset: 0x63ED7, size: 0x8, addend: 0x0, symName: __RINvXs0_NtNtNtCsfvfooZQ3Axs_4core4iter8adapters3mapINtB6_3MapINtNtNtCse1nGBsou5OW_5alloc3vec9into_iter8IntoIterTNtNtCs6IAuOt8vWmF_3syn4item7UseTreeNtNtB1Q_5token5CommaEENCINvNtB1Q_10punctuated4foldB1M_B2l_NtNvCs3yqPx1X2sxh_15zerofrom_derive25replace_lifetime_and_type20ReplaceLifetimeAndTyNvYB3h_NtNtNtB1Q_3gen4fold4Fold13fold_use_treeE0ENtNtNtBa_6traits8iterator8Iterator8try_foldINtNtB12_13in_place_drop11InPlaceDropB1L_ENCINvNtB12_16in_place_collect24write_in_place_with_dropB1L_E0INtNtBc_6result6ResultB67_zEEB3l_, symObjAddr: 0xC0C, symBinAddr: 0x45A30, symSize: 0x4C }
  - { offset: 0x63F55, size: 0x8, addend: 0x0, symName: __RINvXs0_NtNtNtCsfvfooZQ3Axs_4core4iter8adapters3mapINtB6_3MapINtNtNtCse1nGBsou5OW_5alloc3vec9into_iter8IntoIterTNtNtCs6IAuOt8vWmF_3syn4path11PathSegmentNtNtB1Q_5token7PathSepEENCINvNtB1Q_10punctuated4foldB1M_B2q_NtNvCs3yqPx1X2sxh_15zerofrom_derive16replace_lifetime15ReplaceLifetimeNvYB3o_NtNtNtB1Q_3gen4fold4Fold17fold_path_segmentE0ENtNtNtBa_6traits8iterator8Iterator8try_foldINtNtB12_13in_place_drop11InPlaceDropB1L_ENCINvNtB12_16in_place_collect24write_in_place_with_dropB1L_E0INtNtBc_6result6ResultB64_zEEB3s_, symObjAddr: 0xC58, symBinAddr: 0x45A7C, symSize: 0x4C }
  - { offset: 0x63FD3, size: 0x8, addend: 0x0, symName: __RINvXs0_NtNtNtCsfvfooZQ3Axs_4core4iter8adapters3mapINtB6_3MapINtNtNtCse1nGBsou5OW_5alloc3vec9into_iter8IntoIterTNtNtCs6IAuOt8vWmF_3syn4path11PathSegmentNtNtB1Q_5token7PathSepEENCINvNtB1Q_10punctuated4foldB1M_B2q_NtNvCs3yqPx1X2sxh_15zerofrom_derive25replace_lifetime_and_type20ReplaceLifetimeAndTyNvYB3o_NtNtNtB1Q_3gen4fold4Fold17fold_path_segmentE0ENtNtNtBa_6traits8iterator8Iterator8try_foldINtNtB12_13in_place_drop11InPlaceDropB1L_ENCINvNtB12_16in_place_collect24write_in_place_with_dropB1L_E0INtNtBc_6result6ResultB6i_zEEB3s_, symObjAddr: 0xCA4, symBinAddr: 0x45AC8, symSize: 0x4C }
  - { offset: 0x64051, size: 0x8, addend: 0x0, symName: __RINvXs0_NtNtNtCsfvfooZQ3Axs_4core4iter8adapters3mapINtB6_3MapINtNtNtCse1nGBsou5OW_5alloc3vec9into_iter8IntoIterTNtNtCs6IAuOt8vWmF_3syn4path15GenericArgumentNtNtB1Q_5token5CommaEENCINvNtB1Q_10punctuated4foldB1M_B2u_NtNvCs3yqPx1X2sxh_15zerofrom_derive16replace_lifetime15ReplaceLifetimeNvYB3q_NtNtNtB1Q_3gen4fold4Fold21fold_generic_argumentE0ENtNtNtBa_6traits8iterator8Iterator8try_foldINtNtB12_13in_place_drop11InPlaceDropB1L_ENCINvNtB12_16in_place_collect24write_in_place_with_dropB1L_E0INtNtBc_6result6ResultB6a_zEEB3u_, symObjAddr: 0xCF0, symBinAddr: 0x45B14, symSize: 0x4C }
  - { offset: 0x640CF, size: 0x8, addend: 0x0, symName: __RINvXs0_NtNtNtCsfvfooZQ3Axs_4core4iter8adapters3mapINtB6_3MapINtNtNtCse1nGBsou5OW_5alloc3vec9into_iter8IntoIterTNtNtCs6IAuOt8vWmF_3syn4path15GenericArgumentNtNtB1Q_5token5CommaEENCINvNtB1Q_10punctuated4foldB1M_B2u_NtNvCs3yqPx1X2sxh_15zerofrom_derive25replace_lifetime_and_type20ReplaceLifetimeAndTyNvYB3q_NtNtNtB1Q_3gen4fold4Fold21fold_generic_argumentE0ENtNtNtBa_6traits8iterator8Iterator8try_foldINtNtB12_13in_place_drop11InPlaceDropB1L_ENCINvNtB12_16in_place_collect24write_in_place_with_dropB1L_E0INtNtBc_6result6ResultB6o_zEEB3u_, symObjAddr: 0xD3C, symBinAddr: 0x45B60, symSize: 0x4C }
  - { offset: 0x6414D, size: 0x8, addend: 0x0, symName: __RINvXs0_NtNtNtCsfvfooZQ3Axs_4core4iter8adapters3mapINtB6_3MapINtNtNtCse1nGBsou5OW_5alloc3vec9into_iter8IntoIterTNtNtCs6IAuOt8vWmF_3syn8generics12GenericParamNtNtB1Q_5token5CommaEENCINvNtB1Q_10punctuated4foldB1M_B2v_NtNvCs3yqPx1X2sxh_15zerofrom_derive16replace_lifetime15ReplaceLifetimeNvYB3r_NtNtNtB1Q_3gen4fold4Fold18fold_generic_paramE0ENtNtNtBa_6traits8iterator8Iterator8try_foldINtNtB12_13in_place_drop11InPlaceDropB1L_ENCINvNtB12_16in_place_collect24write_in_place_with_dropB1L_E0INtNtBc_6result6ResultB68_zEEB3v_, symObjAddr: 0xD88, symBinAddr: 0x45BAC, symSize: 0x4C }
  - { offset: 0x641CB, size: 0x8, addend: 0x0, symName: __RINvXs0_NtNtNtCsfvfooZQ3Axs_4core4iter8adapters3mapINtB6_3MapINtNtNtCse1nGBsou5OW_5alloc3vec9into_iter8IntoIterTNtNtCs6IAuOt8vWmF_3syn8generics12GenericParamNtNtB1Q_5token5CommaEENCINvNtB1Q_10punctuated4foldB1M_B2v_NtNvCs3yqPx1X2sxh_15zerofrom_derive25replace_lifetime_and_type20ReplaceLifetimeAndTyNvYB3r_NtNtNtB1Q_3gen4fold4Fold18fold_generic_paramE0ENtNtNtBa_6traits8iterator8Iterator8try_foldINtNtB12_13in_place_drop11InPlaceDropB1L_ENCINvNtB12_16in_place_collect24write_in_place_with_dropB1L_E0INtNtBc_6result6ResultB6m_zEEB3v_, symObjAddr: 0xDD4, symBinAddr: 0x45BF8, symSize: 0x4C }
  - { offset: 0x64249, size: 0x8, addend: 0x0, symName: __RINvXs0_NtNtNtCsfvfooZQ3Axs_4core4iter8adapters3mapINtB6_3MapINtNtNtCse1nGBsou5OW_5alloc3vec9into_iter8IntoIterTNtNtCs6IAuOt8vWmF_3syn8generics13CapturedParamNtNtB1Q_5token5CommaEENCINvNtB1Q_10punctuated4foldB1M_B2w_NtNvCs3yqPx1X2sxh_15zerofrom_derive16replace_lifetime15ReplaceLifetimeNvYB3s_NtNtNtB1Q_3gen4fold4Fold19fold_captured_paramE0ENtNtNtBa_6traits8iterator8Iterator8try_foldINtNtB12_13in_place_drop11InPlaceDropB1L_ENCINvNtB12_16in_place_collect24write_in_place_with_dropB1L_E0INtNtBc_6result6ResultB6a_zEEB3w_, symObjAddr: 0xE20, symBinAddr: 0x45C44, symSize: 0x4C }
  - { offset: 0x642C7, size: 0x8, addend: 0x0, symName: __RINvXs0_NtNtNtCsfvfooZQ3Axs_4core4iter8adapters3mapINtB6_3MapINtNtNtCse1nGBsou5OW_5alloc3vec9into_iter8IntoIterTNtNtCs6IAuOt8vWmF_3syn8generics13CapturedParamNtNtB1Q_5token5CommaEENCINvNtB1Q_10punctuated4foldB1M_B2w_NtNvCs3yqPx1X2sxh_15zerofrom_derive25replace_lifetime_and_type20ReplaceLifetimeAndTyNvYB3s_NtNtNtB1Q_3gen4fold4Fold19fold_captured_paramE0ENtNtNtBa_6traits8iterator8Iterator8try_foldINtNtB12_13in_place_drop11InPlaceDropB1L_ENCINvNtB12_16in_place_collect24write_in_place_with_dropB1L_E0INtNtBc_6result6ResultB6o_zEEB3w_, symObjAddr: 0xE6C, symBinAddr: 0x45C90, symSize: 0x4C }
  - { offset: 0x64345, size: 0x8, addend: 0x0, symName: __RINvXs0_NtNtNtCsfvfooZQ3Axs_4core4iter8adapters3mapINtB6_3MapINtNtNtCse1nGBsou5OW_5alloc3vec9into_iter8IntoIterTNtNtCs6IAuOt8vWmF_3syn8generics14TypeParamBoundNtNtB1Q_5token4PlusEENCINvNtB1Q_10punctuated4foldB1M_B2x_NtNvCs3yqPx1X2sxh_15zerofrom_derive16replace_lifetime15ReplaceLifetimeNvYB3s_NtNtNtB1Q_3gen4fold4Fold21fold_type_param_boundE0ENtNtNtBa_6traits8iterator8Iterator8try_foldINtNtB12_13in_place_drop11InPlaceDropB1L_ENCINvNtB12_16in_place_collect24write_in_place_with_dropB1L_E0INtNtBc_6result6ResultB6c_zEEB3w_, symObjAddr: 0xEB8, symBinAddr: 0x45CDC, symSize: 0x4C }
  - { offset: 0x643C3, size: 0x8, addend: 0x0, symName: __RINvXs0_NtNtNtCsfvfooZQ3Axs_4core4iter8adapters3mapINtB6_3MapINtNtNtCse1nGBsou5OW_5alloc3vec9into_iter8IntoIterTNtNtCs6IAuOt8vWmF_3syn8generics14TypeParamBoundNtNtB1Q_5token4PlusEENCINvNtB1Q_10punctuated4foldB1M_B2x_NtNvCs3yqPx1X2sxh_15zerofrom_derive25replace_lifetime_and_type20ReplaceLifetimeAndTyNvYB3s_NtNtNtB1Q_3gen4fold4Fold21fold_type_param_boundE0ENtNtNtBa_6traits8iterator8Iterator8try_foldINtNtB12_13in_place_drop11InPlaceDropB1L_ENCINvNtB12_16in_place_collect24write_in_place_with_dropB1L_E0INtNtBc_6result6ResultB6q_zEEB3w_, symObjAddr: 0xF04, symBinAddr: 0x45D28, symSize: 0x4C }
  - { offset: 0x64441, size: 0x8, addend: 0x0, symName: __RINvXs0_NtNtNtCsfvfooZQ3Axs_4core4iter8adapters3mapINtB6_3MapINtNtNtCse1nGBsou5OW_5alloc3vec9into_iter8IntoIterTNtNtCs6IAuOt8vWmF_3syn8generics14WherePredicateNtNtB1Q_5token5CommaEENCINvNtB1Q_10punctuated4foldB1M_B2x_NtNvCs3yqPx1X2sxh_15zerofrom_derive16replace_lifetime15ReplaceLifetimeNvYB3t_NtNtNtB1Q_3gen4fold4Fold20fold_where_predicateE0ENtNtNtBa_6traits8iterator8Iterator8try_foldINtNtB12_13in_place_drop11InPlaceDropB1L_ENCINvNtB12_16in_place_collect24write_in_place_with_dropB1L_E0INtNtBc_6result6ResultB6c_zEEB3x_, symObjAddr: 0xF50, symBinAddr: 0x45D74, symSize: 0x4C }
  - { offset: 0x644BF, size: 0x8, addend: 0x0, symName: __RINvXs0_NtNtNtCsfvfooZQ3Axs_4core4iter8adapters3mapINtB6_3MapINtNtNtCse1nGBsou5OW_5alloc3vec9into_iter8IntoIterTNtNtCs6IAuOt8vWmF_3syn8generics14WherePredicateNtNtB1Q_5token5CommaEENCINvNtB1Q_10punctuated4foldB1M_B2x_NtNvCs3yqPx1X2sxh_15zerofrom_derive25replace_lifetime_and_type20ReplaceLifetimeAndTyNvYB3t_NtNtNtB1Q_3gen4fold4Fold20fold_where_predicateE0ENtNtNtBa_6traits8iterator8Iterator8try_foldINtNtB12_13in_place_drop11InPlaceDropB1L_ENCINvNtB12_16in_place_collect24write_in_place_with_dropB1L_E0INtNtBc_6result6ResultB6q_zEEB3x_, symObjAddr: 0xF9C, symBinAddr: 0x45DC0, symSize: 0x4C }
  - { offset: 0x6453D, size: 0x8, addend: 0x0, symName: __RINvXs0_NtNtNtCsfvfooZQ3Axs_4core4iter8adapters3mapINtB6_3MapINtNtNtCse1nGBsou5OW_5alloc3vec9into_iter8IntoIterTNtNtCs6IAuOt8vWmF_3syn8lifetime8LifetimeNtNtB1Q_5token4PlusEENCINvNtB1Q_10punctuated4foldB1M_B2q_NtNvCs3yqPx1X2sxh_15zerofrom_derive16replace_lifetime15ReplaceLifetimeNvYB3l_NtNtNtB1Q_3gen4fold4Fold13fold_lifetimeE0ENtNtNtBa_6traits8iterator8Iterator8try_foldINtNtB12_13in_place_drop11InPlaceDropB1L_ENCINvNtB12_16in_place_collect24write_in_place_with_dropB1L_E0INtNtBc_6result6ResultB5X_zEEB3p_, symObjAddr: 0xFE8, symBinAddr: 0x45E0C, symSize: 0x4C }
  - { offset: 0x645BB, size: 0x8, addend: 0x0, symName: __RINvXs0_NtNtNtCsfvfooZQ3Axs_4core4iter8adapters3mapINtB6_3MapINtNtNtCse1nGBsou5OW_5alloc3vec9into_iter8IntoIterTNtNtCs6IAuOt8vWmF_3syn8lifetime8LifetimeNtNtB1Q_5token4PlusEENCINvNtB1Q_10punctuated4foldB1M_B2q_NtNvCs3yqPx1X2sxh_15zerofrom_derive25replace_lifetime_and_type20ReplaceLifetimeAndTyNvYB3l_NtNtNtB1Q_3gen4fold4Fold13fold_lifetimeE0ENtNtNtBa_6traits8iterator8Iterator8try_foldINtNtB12_13in_place_drop11InPlaceDropB1L_ENCINvNtB12_16in_place_collect24write_in_place_with_dropB1L_E0INtNtBc_6result6ResultB6b_zEEB3p_, symObjAddr: 0x1034, symBinAddr: 0x45E58, symSize: 0x4C }
  - { offset: 0x64639, size: 0x8, addend: 0x0, symName: __RNvXs0_NtNtNtCsfvfooZQ3Axs_4core4iter8adapters3mapINtB5_3MapINtNtCs6IAuOt8vWmF_3syn10punctuated8IntoIterNtCs3cP53eQoTwO_11proc_macro25IdentENCINvXs8_NtCsloNvcHxBCre_9hashbrown3setINtB2n_7HashSetB1E_NtNtNtCscOYdFFY2T5N_3std4hash6random11RandomStateEINtNtNtB9_6traits7collect6ExtendB1E_E6extendINtBZ_10PunctuatedB1E_NtNtB11_5token5CommaEE0ENtNtB43_8iterator8Iterator9size_hintCs3yqPx1X2sxh_15zerofrom_derive, symObjAddr: 0x8300, symBinAddr: 0x4D124, symSize: 0x24 }
  - { offset: 0x64680, size: 0x8, addend: 0x0, symName: __RNvXs0_NtNtNtCsfvfooZQ3Axs_4core4iter8adapters3mapINtB5_3MapINtNtNtBb_5slice4iter4IterNtCs3cP53eQoTwO_11proc_macro25IdentENCNvCs3yqPx1X2sxh_15zerofrom_derive14zf_derive_impls4_0ENtNtNtB9_6traits8iterator8Iterator9size_hintB20_, symObjAddr: 0x8324, symBinAddr: 0x4D148, symSize: 0x24 }
  - { offset: 0x646C7, size: 0x8, addend: 0x0, symName: __RNvXs0_NtNtNtCsfvfooZQ3Axs_4core4iter8adapters3mapINtB5_3MapINtNtNtBb_5slice4iter4IterNtNtCs6IAuOt8vWmF_3syn8generics9TypeParamENCNvCs3yqPx1X2sxh_15zerofrom_derive14zf_derive_impls_0ENtNtNtB9_6traits8iterator8Iterator9size_hintB26_, symObjAddr: 0x8348, symBinAddr: 0x4D16C, symSize: 0x24 }
  - { offset: 0x6470E, size: 0x8, addend: 0x0, symName: __RNvXs0_NtNtNtCsfvfooZQ3Axs_4core4iter8adapters3mapINtB5_3MapINtNtNtBb_5slice4iter7IterMutNtNtCs6IAuOt8vWmF_3syn8generics9TypeParamENCNvCs3yqPx1X2sxh_15zerofrom_derive14zf_derive_impls0_0ENtNtNtB9_6traits8iterator8Iterator9size_hintB29_, symObjAddr: 0x836C, symBinAddr: 0x4D190, symSize: 0x24 }
  - { offset: 0x64755, size: 0x8, addend: 0x0, symName: __RNvXs0_NtNtNtCsfvfooZQ3Axs_4core4iter8adapters3mapINtB5_3MapINtNtNtCse1nGBsou5OW_5alloc3vec9into_iter8IntoIterTNtCs3cP53eQoTwO_11proc_macro25IdentNtNtCs6IAuOt8vWmF_3syn5token5CommaEENCNvXs8_NtB2o_10punctuatedINtB32_10PunctuatedB1L_B2k_ENtNtNtB9_6traits7collect12IntoIterator9into_iter0ENtNtB3Q_8iterator8Iterator9size_hintCs3yqPx1X2sxh_15zerofrom_derive, symObjAddr: 0x8390, symBinAddr: 0x4D1B4, symSize: 0x24 }
  - { offset: 0x6479C, size: 0x8, addend: 0x0, symName: __RNvXs0_NtNtNtCsfvfooZQ3Axs_4core4iter8adapters3mapINtB5_3MapNtNtCs6IAuOt8vWmF_3syn8generics10TypeParamsNCNvCs3yqPx1X2sxh_15zerofrom_derive14zf_derive_impl0ENtNtNtB9_6traits8iterator8Iterator4nextB1H_, symObjAddr: 0x83B4, symBinAddr: 0x4D1D8, symSize: 0x9C }
  - { offset: 0x64816, size: 0x8, addend: 0x0, symName: __RNvXs0_NtNtNtCsfvfooZQ3Axs_4core4iter8adapters3mapINtB5_3MapNtNtCs6IAuOt8vWmF_3syn8generics10TypeParamsNCNvCs3yqPx1X2sxh_15zerofrom_derive14zf_derive_impl0ENtNtNtB9_6traits8iterator8Iterator9size_hintB1H_, symObjAddr: 0x8450, symBinAddr: 0x4D274, symSize: 0x24 }
  - { offset: 0x64911, size: 0x8, addend: 0x0, symName: __RNCINvNtNtNtCsfvfooZQ3Axs_4core4iter8adapters3map8map_foldNtCs3cP53eQoTwO_11proc_macro25IdentTBU_uEuNCINvXs8_NtCsloNvcHxBCre_9hashbrown3setINtB1J_7HashSetBU_NtNtNtCscOYdFFY2T5N_3std4hash6random11RandomStateEINtNtNtB8_6traits7collect6ExtendBU_E6extendINtNtCs6IAuOt8vWmF_3syn10punctuated10PunctuatedBU_NtNtB45_5token5CommaEE0NCINvNvNtNtB3o_8iterator8Iterator8for_each4callB1t_NCINvXs1i_NtB1L_3mapINtB6a_7HashMapBU_uB2v_EIB3k_B1t_E6extendINtB4_3MapINtB43_8IntoIterBU_EB1A_EE0E0E0Cs3yqPx1X2sxh_15zerofrom_derive, symObjAddr: 0x4F0C, symBinAddr: 0x49D30, symSize: 0x9C }
  - { offset: 0x64997, size: 0x8, addend: 0x0, symName: __RNCINvNtNtNtCsfvfooZQ3Axs_4core4iter8adapters3map8map_foldQNtNtCs6IAuOt8vWmF_3syn8generics9TypeParamTNtCs3cP53eQoTwO_11proc_macro25IdentINtNtBa_6option6OptionB1B_EEuNCNvCs3yqPx1X2sxh_15zerofrom_derive14zf_derive_impls0_0NCINvNvNtNtNtB8_6traits8iterator8Iterator8for_each4callB1A_NCINvXs1i_NtCsloNvcHxBCre_9hashbrown3mapINtB4D_7HashMapB1B_B2a_NtNtNtCscOYdFFY2T5N_3std4hash6random11RandomStateEINtNtB3H_7collect6ExtendB1A_E6extendINtB4_3MapINtNtNtBa_5slice4iter7IterMutBV_EB2D_EE0E0E0B2H_, symObjAddr: 0x4FA8, symBinAddr: 0x49DCC, symSize: 0x94 }
  - { offset: 0x64A1C, size: 0x8, addend: 0x0, symName: __RNCINvNtNtNtCsfvfooZQ3Axs_4core4iter8adapters3map8map_foldRNtCs3cP53eQoTwO_11proc_macro25IdentNtNtCs6IAuOt8vWmF_3syn8generics14WherePredicateuNCNvCs3yqPx1X2sxh_15zerofrom_derive14zf_derive_impls4_0NCINvNvNtNtNtB8_6traits8iterator8Iterator8for_each4callB1u_NCINvMsi_NtCse1nGBsou5OW_5alloc3vecINtB4f_3VecB1u_E14extend_trustedINtB4_3MapINtNtNtBa_5slice4iter4IterBV_EB2g_EE0E0E0B2k_, symObjAddr: 0x503C, symBinAddr: 0x49E60, symSize: 0x9C }
  - { offset: 0x64AA1, size: 0x8, addend: 0x0, symName: __RNCINvNtNtNtCsfvfooZQ3Axs_4core4iter8adapters3map8map_foldRNtNtCs6IAuOt8vWmF_3syn8generics9TypeParamNtCs3cP53eQoTwO_11proc_macro25IdentuNCNvCs3yqPx1X2sxh_15zerofrom_derive14zf_derive_impls_0NCINvNvNtNtNtB8_6traits8iterator8Iterator8for_each4callB1A_NCINvMsi_NtCse1nGBsou5OW_5alloc3vecINtB48_3VecB1A_E14extend_trustedINtB4_3MapINtNtNtBa_5slice4iter4IterBV_EB2a_EE0E0E0B2e_, symObjAddr: 0x50D8, symBinAddr: 0x49EFC, symSize: 0x8C }
  - { offset: 0x64B26, size: 0x8, addend: 0x0, symName: __RNCINvNtNtNtCsfvfooZQ3Axs_4core4iter8adapters3map8map_foldTNtCs3cP53eQoTwO_11proc_macro25IdentNtNtCs6IAuOt8vWmF_3syn5token5CommaEBV_uNCNvXs8_NtB1y_10punctuatedINtB2f_10PunctuatedBV_B1u_ENtNtNtB8_6traits7collect12IntoIterator9into_iter0NCINvNvNtNtB32_8iterator8Iterator8for_each4callBV_NCINvMsi_NtCse1nGBsou5OW_5alloc3vecINtB4I_3VecBV_E14extend_trustedINtB4_3MapINtNtB4I_9into_iter8IntoIterBU_EB27_EE0E0E0Cs3yqPx1X2sxh_15zerofrom_derive, symObjAddr: 0x5164, symBinAddr: 0x49F88, symSize: 0x9C }
  - { offset: 0x64C2D, size: 0x8, addend: 0x0, symName: __RNCINvNtNtNtCsfvfooZQ3Axs_4core4iter8adapters3map12map_try_foldNtNtCs6IAuOt8vWmF_3syn4attr9AttributeBZ_INtNtNtCse1nGBsou5OW_5alloc3vec13in_place_drop11InPlaceDropBZ_EINtNtBa_6result6ResultB1D_zENCINvNtNtB13_3gen4fold8fold_vecBZ_NtNvCs3yqPx1X2sxh_15zerofrom_derive16replace_lifetime15ReplaceLifetimeNvYB3E_NtB3b_4Fold14fold_attributeE0NCINvNtB1I_16in_place_collect24write_in_place_with_dropBZ_E0E0B3I_, symObjAddr: 0x1784, symBinAddr: 0x465A8, symSize: 0x118 }
  - { offset: 0x64CC0, size: 0x8, addend: 0x0, symName: __RNCINvNtNtNtCsfvfooZQ3Axs_4core4iter8adapters3map12map_try_foldNtNtCs6IAuOt8vWmF_3syn4attr9AttributeBZ_INtNtNtCse1nGBsou5OW_5alloc3vec13in_place_drop11InPlaceDropBZ_EINtNtBa_6result6ResultB1D_zENCINvNtNtB13_3gen4fold8fold_vecBZ_NtNvCs3yqPx1X2sxh_15zerofrom_derive25replace_lifetime_and_type20ReplaceLifetimeAndTyNvYB3E_NtB3b_4Fold14fold_attributeE0NCINvNtB1I_16in_place_collect24write_in_place_with_dropBZ_E0E0B3I_, symObjAddr: 0x189C, symBinAddr: 0x466C0, symSize: 0x118 }
  - { offset: 0x64D53, size: 0x8, addend: 0x0, symName: __RNCINvNtNtNtCsfvfooZQ3Axs_4core4iter8adapters3map12map_try_foldNtNtCs6IAuOt8vWmF_3syn4expr3ArmBZ_INtNtNtCse1nGBsou5OW_5alloc3vec13in_place_drop11InPlaceDropBZ_EINtNtBa_6result6ResultB1x_zENCINvNtNtB13_3gen4fold8fold_vecBZ_NtNvCs3yqPx1X2sxh_15zerofrom_derive16replace_lifetime15ReplaceLifetimeNvYB3y_NtB35_4Fold8fold_armE0NCINvNtB1C_16in_place_collect24write_in_place_with_dropBZ_E0E0B3C_, symObjAddr: 0x19B4, symBinAddr: 0x467D8, symSize: 0x118 }
  - { offset: 0x64DE6, size: 0x8, addend: 0x0, symName: __RNCINvNtNtNtCsfvfooZQ3Axs_4core4iter8adapters3map12map_try_foldNtNtCs6IAuOt8vWmF_3syn4expr3ArmBZ_INtNtNtCse1nGBsou5OW_5alloc3vec13in_place_drop11InPlaceDropBZ_EINtNtBa_6result6ResultB1x_zENCINvNtNtB13_3gen4fold8fold_vecBZ_NtNvCs3yqPx1X2sxh_15zerofrom_derive25replace_lifetime_and_type20ReplaceLifetimeAndTyNvYB3y_NtB35_4Fold8fold_armE0NCINvNtB1C_16in_place_collect24write_in_place_with_dropBZ_E0E0B3C_, symObjAddr: 0x1ACC, symBinAddr: 0x468F0, symSize: 0x118 }
  - { offset: 0x64E79, size: 0x8, addend: 0x0, symName: __RNCINvNtNtNtCsfvfooZQ3Axs_4core4iter8adapters3map12map_try_foldNtNtCs6IAuOt8vWmF_3syn4item11ForeignItemBZ_INtNtNtCse1nGBsou5OW_5alloc3vec13in_place_drop11InPlaceDropBZ_EINtNtBa_6result6ResultB1G_zENCINvNtNtB13_3gen4fold8fold_vecBZ_NtNvCs3yqPx1X2sxh_15zerofrom_derive16replace_lifetime15ReplaceLifetimeNvYB3H_NtB3e_4Fold17fold_foreign_itemE0NCINvNtB1L_16in_place_collect24write_in_place_with_dropBZ_E0E0B3L_, symObjAddr: 0x1BE4, symBinAddr: 0x46A08, symSize: 0x11C }
  - { offset: 0x64F0C, size: 0x8, addend: 0x0, symName: __RNCINvNtNtNtCsfvfooZQ3Axs_4core4iter8adapters3map12map_try_foldNtNtCs6IAuOt8vWmF_3syn4item11ForeignItemBZ_INtNtNtCse1nGBsou5OW_5alloc3vec13in_place_drop11InPlaceDropBZ_EINtNtBa_6result6ResultB1G_zENCINvNtNtB13_3gen4fold8fold_vecBZ_NtNvCs3yqPx1X2sxh_15zerofrom_derive25replace_lifetime_and_type20ReplaceLifetimeAndTyNvYB3H_NtB3e_4Fold17fold_foreign_itemE0NCINvNtB1L_16in_place_collect24write_in_place_with_dropBZ_E0E0B3L_, symObjAddr: 0x1D00, symBinAddr: 0x46B24, symSize: 0x11C }
  - { offset: 0x64F9F, size: 0x8, addend: 0x0, symName: __RNCINvNtNtNtCsfvfooZQ3Axs_4core4iter8adapters3map12map_try_foldNtNtCs6IAuOt8vWmF_3syn4item4ItemBZ_INtNtNtCse1nGBsou5OW_5alloc3vec13in_place_drop11InPlaceDropBZ_EINtNtBa_6result6ResultB1y_zENCINvNtNtB13_3gen4fold8fold_vecBZ_NtNvCs3yqPx1X2sxh_15zerofrom_derive16replace_lifetime15ReplaceLifetimeNvYB3z_NtB36_4Fold9fold_itemE0NCINvNtB1D_16in_place_collect24write_in_place_with_dropBZ_E0E0B3D_, symObjAddr: 0x1E1C, symBinAddr: 0x46C40, symSize: 0x11C }
  - { offset: 0x65032, size: 0x8, addend: 0x0, symName: __RNCINvNtNtNtCsfvfooZQ3Axs_4core4iter8adapters3map12map_try_foldNtNtCs6IAuOt8vWmF_3syn4item4ItemBZ_INtNtNtCse1nGBsou5OW_5alloc3vec13in_place_drop11InPlaceDropBZ_EINtNtBa_6result6ResultB1y_zENCINvNtNtB13_3gen4fold8fold_vecBZ_NtNvCs3yqPx1X2sxh_15zerofrom_derive25replace_lifetime_and_type20ReplaceLifetimeAndTyNvYB3z_NtB36_4Fold9fold_itemE0NCINvNtB1D_16in_place_collect24write_in_place_with_dropBZ_E0E0B3D_, symObjAddr: 0x1F38, symBinAddr: 0x46D5C, symSize: 0x11C }
  - { offset: 0x650C5, size: 0x8, addend: 0x0, symName: __RNCINvNtNtNtCsfvfooZQ3Axs_4core4iter8adapters3map12map_try_foldNtNtCs6IAuOt8vWmF_3syn4item8ImplItemBZ_INtNtNtCse1nGBsou5OW_5alloc3vec13in_place_drop11InPlaceDropBZ_EINtNtBa_6result6ResultB1C_zENCINvNtNtB13_3gen4fold8fold_vecBZ_NtNvCs3yqPx1X2sxh_15zerofrom_derive16replace_lifetime15ReplaceLifetimeNvYB3D_NtB3a_4Fold14fold_impl_itemE0NCINvNtB1H_16in_place_collect24write_in_place_with_dropBZ_E0E0B3H_, symObjAddr: 0x2054, symBinAddr: 0x46E78, symSize: 0x11C }
  - { offset: 0x65158, size: 0x8, addend: 0x0, symName: __RNCINvNtNtNtCsfvfooZQ3Axs_4core4iter8adapters3map12map_try_foldNtNtCs6IAuOt8vWmF_3syn4item8ImplItemBZ_INtNtNtCse1nGBsou5OW_5alloc3vec13in_place_drop11InPlaceDropBZ_EINtNtBa_6result6ResultB1C_zENCINvNtNtB13_3gen4fold8fold_vecBZ_NtNvCs3yqPx1X2sxh_15zerofrom_derive25replace_lifetime_and_type20ReplaceLifetimeAndTyNvYB3D_NtB3a_4Fold14fold_impl_itemE0NCINvNtB1H_16in_place_collect24write_in_place_with_dropBZ_E0E0B3H_, symObjAddr: 0x2170, symBinAddr: 0x46F94, symSize: 0x11C }
  - { offset: 0x651EB, size: 0x8, addend: 0x0, symName: __RNCINvNtNtNtCsfvfooZQ3Axs_4core4iter8adapters3map12map_try_foldNtNtCs6IAuOt8vWmF_3syn4item9TraitItemBZ_INtNtNtCse1nGBsou5OW_5alloc3vec13in_place_drop11InPlaceDropBZ_EINtNtBa_6result6ResultB1D_zENCINvNtNtB13_3gen4fold8fold_vecBZ_NtNvCs3yqPx1X2sxh_15zerofrom_derive16replace_lifetime15ReplaceLifetimeNvYB3E_NtB3b_4Fold15fold_trait_itemE0NCINvNtB1I_16in_place_collect24write_in_place_with_dropBZ_E0E0B3I_, symObjAddr: 0x228C, symBinAddr: 0x470B0, symSize: 0x11C }
  - { offset: 0x6527E, size: 0x8, addend: 0x0, symName: __RNCINvNtNtNtCsfvfooZQ3Axs_4core4iter8adapters3map12map_try_foldNtNtCs6IAuOt8vWmF_3syn4item9TraitItemBZ_INtNtNtCse1nGBsou5OW_5alloc3vec13in_place_drop11InPlaceDropBZ_EINtNtBa_6result6ResultB1D_zENCINvNtNtB13_3gen4fold8fold_vecBZ_NtNvCs3yqPx1X2sxh_15zerofrom_derive25replace_lifetime_and_type20ReplaceLifetimeAndTyNvYB3E_NtB3b_4Fold15fold_trait_itemE0NCINvNtB1I_16in_place_collect24write_in_place_with_dropBZ_E0E0B3I_, symObjAddr: 0x23A8, symBinAddr: 0x471CC, symSize: 0x11C }
  - { offset: 0x65311, size: 0x8, addend: 0x0, symName: __RNCINvNtNtNtCsfvfooZQ3Axs_4core4iter8adapters3map12map_try_foldNtNtCs6IAuOt8vWmF_3syn4stmt4StmtBZ_INtNtNtCse1nGBsou5OW_5alloc3vec13in_place_drop11InPlaceDropBZ_EINtNtBa_6result6ResultB1y_zENCINvNtNtB13_3gen4fold8fold_vecBZ_NtNvCs3yqPx1X2sxh_15zerofrom_derive16replace_lifetime15ReplaceLifetimeNvYB3z_NtB36_4Fold9fold_stmtE0NCINvNtB1D_16in_place_collect24write_in_place_with_dropBZ_E0E0B3D_, symObjAddr: 0x24C4, symBinAddr: 0x472E8, symSize: 0x11C }
  - { offset: 0x653A4, size: 0x8, addend: 0x0, symName: __RNCINvNtNtNtCsfvfooZQ3Axs_4core4iter8adapters3map12map_try_foldNtNtCs6IAuOt8vWmF_3syn4stmt4StmtBZ_INtNtNtCse1nGBsou5OW_5alloc3vec13in_place_drop11InPlaceDropBZ_EINtNtBa_6result6ResultB1y_zENCINvNtNtB13_3gen4fold8fold_vecBZ_NtNvCs3yqPx1X2sxh_15zerofrom_derive25replace_lifetime_and_type20ReplaceLifetimeAndTyNvYB3z_NtB36_4Fold9fold_stmtE0NCINvNtB1D_16in_place_collect24write_in_place_with_dropBZ_E0E0B3D_, symObjAddr: 0x25E0, symBinAddr: 0x47404, symSize: 0x11C }
  - { offset: 0x65437, size: 0x8, addend: 0x0, symName: __RNCINvNtNtNtCsfvfooZQ3Axs_4core4iter8adapters3map12map_try_foldRNtCs5gpj3SBp7s6_12synstructure11VariantInfoINtNtNtBa_5slice4iter4IterNtB12_11BindingInfoEuINtNtNtBa_3ops12control_flow11ControlFlowuENCNvCs3yqPx1X2sxh_15zerofrom_derive14zf_derive_impls2_0NCINvNvMst_NtB6_7flattenINtB4d_13FlattenCompatppE13iter_try_fold7flattenB1H_uB2s_NCINvNvXsv_B4d_B4q_NtNtNtB8_6traits8iterator8Iterator8try_fold7flattenB1H_uB2s_NCINvNvB5E_3any5checkRB27_NCB3b_s3_0E0E0E0E0B3d_, symObjAddr: 0x26FC, symBinAddr: 0x47520, symSize: 0x90 }
  - { offset: 0x654C9, size: 0x8, addend: 0x0, symName: __RNCINvNtNtNtCsfvfooZQ3Axs_4core4iter8adapters3map12map_try_foldTNtNtCs6IAuOt8vWmF_3syn2ty4TypeNtNtB14_5token5CommaEBZ_INtNtNtCse1nGBsou5OW_5alloc3vec13in_place_drop11InPlaceDropBZ_EINtNtBa_6result6ResultB1S_zENCINvNtB14_10punctuated4foldB10_B1u_NtNvCs3yqPx1X2sxh_15zerofrom_derive16replace_lifetime15ReplaceLifetimeNvYB3V_NtNtNtB14_3gen4fold4Fold9fold_typeE0NCINvNtB1X_16in_place_collect24write_in_place_with_dropBZ_E0E0B3Z_, symObjAddr: 0x278C, symBinAddr: 0x475B0, symSize: 0x118 }
  - { offset: 0x6555C, size: 0x8, addend: 0x0, symName: __RNCINvNtNtNtCsfvfooZQ3Axs_4core4iter8adapters3map12map_try_foldTNtNtCs6IAuOt8vWmF_3syn2ty4TypeNtNtB14_5token5CommaEBZ_INtNtNtCse1nGBsou5OW_5alloc3vec13in_place_drop11InPlaceDropBZ_EINtNtBa_6result6ResultB1S_zENCINvNtB14_10punctuated4foldB10_B1u_NtNvCs3yqPx1X2sxh_15zerofrom_derive25replace_lifetime_and_type20ReplaceLifetimeAndTyNvYB3V_NtNtNtB14_3gen4fold4Fold9fold_typeE0NCINvNtB1X_16in_place_collect24write_in_place_with_dropBZ_E0E0B3Z_, symObjAddr: 0x28A4, symBinAddr: 0x476C8, symSize: 0x118 }
  - { offset: 0x655EF, size: 0x8, addend: 0x0, symName: __RNCINvNtNtNtCsfvfooZQ3Axs_4core4iter8adapters3map12map_try_foldTNtNtCs6IAuOt8vWmF_3syn2ty9BareFnArgNtNtB14_5token5CommaEBZ_INtNtNtCse1nGBsou5OW_5alloc3vec13in_place_drop11InPlaceDropBZ_EINtNtBa_6result6ResultB1X_zENCINvNtB14_10punctuated4foldB10_B1z_NtNvCs3yqPx1X2sxh_15zerofrom_derive16replace_lifetime15ReplaceLifetimeNvYB40_NtNtNtB14_3gen4fold4Fold16fold_bare_fn_argE0NCINvNtB22_16in_place_collect24write_in_place_with_dropBZ_E0E0B44_, symObjAddr: 0x29BC, symBinAddr: 0x477E0, symSize: 0x118 }
  - { offset: 0x65682, size: 0x8, addend: 0x0, symName: __RNCINvNtNtNtCsfvfooZQ3Axs_4core4iter8adapters3map12map_try_foldTNtNtCs6IAuOt8vWmF_3syn2ty9BareFnArgNtNtB14_5token5CommaEBZ_INtNtNtCse1nGBsou5OW_5alloc3vec13in_place_drop11InPlaceDropBZ_EINtNtBa_6result6ResultB1X_zENCINvNtB14_10punctuated4foldB10_B1z_NtNvCs3yqPx1X2sxh_15zerofrom_derive25replace_lifetime_and_type20ReplaceLifetimeAndTyNvYB40_NtNtNtB14_3gen4fold4Fold16fold_bare_fn_argE0NCINvNtB22_16in_place_collect24write_in_place_with_dropBZ_E0E0B44_, symObjAddr: 0x2AD4, symBinAddr: 0x478F8, symSize: 0x118 }
  - { offset: 0x65715, size: 0x8, addend: 0x0, symName: __RNCINvNtNtNtCsfvfooZQ3Axs_4core4iter8adapters3map12map_try_foldTNtNtCs6IAuOt8vWmF_3syn3pat3PatNtNtB14_5token2OrEBZ_INtNtNtCse1nGBsou5OW_5alloc3vec13in_place_drop11InPlaceDropBZ_EINtNtBa_6result6ResultB1P_zENCINvNtB14_10punctuated4foldB10_B1u_NtNvCs3yqPx1X2sxh_15zerofrom_derive16replace_lifetime15ReplaceLifetimeNvYB3S_NtNtNtB14_3gen4fold4Fold8fold_patE0NCINvNtB1U_16in_place_collect24write_in_place_with_dropBZ_E0E0B3W_, symObjAddr: 0x2BEC, symBinAddr: 0x47A10, symSize: 0x118 }
  - { offset: 0x657A8, size: 0x8, addend: 0x0, symName: __RNCINvNtNtNtCsfvfooZQ3Axs_4core4iter8adapters3map12map_try_foldTNtNtCs6IAuOt8vWmF_3syn3pat3PatNtNtB14_5token2OrEBZ_INtNtNtCse1nGBsou5OW_5alloc3vec13in_place_drop11InPlaceDropBZ_EINtNtBa_6result6ResultB1P_zENCINvNtB14_10punctuated4foldB10_B1u_NtNvCs3yqPx1X2sxh_15zerofrom_derive25replace_lifetime_and_type20ReplaceLifetimeAndTyNvYB3S_NtNtNtB14_3gen4fold4Fold8fold_patE0NCINvNtB1U_16in_place_collect24write_in_place_with_dropBZ_E0E0B3W_, symObjAddr: 0x2D04, symBinAddr: 0x47B28, symSize: 0x118 }
  - { offset: 0x6583B, size: 0x8, addend: 0x0, symName: __RNCINvNtNtNtCsfvfooZQ3Axs_4core4iter8adapters3map12map_try_foldTNtNtCs6IAuOt8vWmF_3syn3pat3PatNtNtB14_5token5CommaEBZ_INtNtNtCse1nGBsou5OW_5alloc3vec13in_place_drop11InPlaceDropBZ_EINtNtBa_6result6ResultB1S_zENCINvNtB14_10punctuated4foldB10_B1u_NtNvCs3yqPx1X2sxh_15zerofrom_derive16replace_lifetime15ReplaceLifetimeNvYB3V_NtNtNtB14_3gen4fold4Fold8fold_patE0NCINvNtB1X_16in_place_collect24write_in_place_with_dropBZ_E0E0B3Z_, symObjAddr: 0x2E1C, symBinAddr: 0x47C40, symSize: 0x118 }
  - { offset: 0x658CE, size: 0x8, addend: 0x0, symName: __RNCINvNtNtNtCsfvfooZQ3Axs_4core4iter8adapters3map12map_try_foldTNtNtCs6IAuOt8vWmF_3syn3pat3PatNtNtB14_5token5CommaEBZ_INtNtNtCse1nGBsou5OW_5alloc3vec13in_place_drop11InPlaceDropBZ_EINtNtBa_6result6ResultB1S_zENCINvNtB14_10punctuated4foldB10_B1u_NtNvCs3yqPx1X2sxh_15zerofrom_derive25replace_lifetime_and_type20ReplaceLifetimeAndTyNvYB3V_NtNtNtB14_3gen4fold4Fold8fold_patE0NCINvNtB1X_16in_place_collect24write_in_place_with_dropBZ_E0E0B3Z_, symObjAddr: 0x2F34, symBinAddr: 0x47D58, symSize: 0x118 }
  - { offset: 0x65961, size: 0x8, addend: 0x0, symName: __RNCINvNtNtNtCsfvfooZQ3Axs_4core4iter8adapters3map12map_try_foldTNtNtCs6IAuOt8vWmF_3syn3pat8FieldPatNtNtB14_5token5CommaEBZ_INtNtNtCse1nGBsou5OW_5alloc3vec13in_place_drop11InPlaceDropBZ_EINtNtBa_6result6ResultB1X_zENCINvNtB14_10punctuated4foldB10_B1z_NtNvCs3yqPx1X2sxh_15zerofrom_derive16replace_lifetime15ReplaceLifetimeNvYB40_NtNtNtB14_3gen4fold4Fold14fold_field_patE0NCINvNtB22_16in_place_collect24write_in_place_with_dropBZ_E0E0B44_, symObjAddr: 0x304C, symBinAddr: 0x47E70, symSize: 0x118 }
  - { offset: 0x659F4, size: 0x8, addend: 0x0, symName: __RNCINvNtNtNtCsfvfooZQ3Axs_4core4iter8adapters3map12map_try_foldTNtNtCs6IAuOt8vWmF_3syn3pat8FieldPatNtNtB14_5token5CommaEBZ_INtNtNtCse1nGBsou5OW_5alloc3vec13in_place_drop11InPlaceDropBZ_EINtNtBa_6result6ResultB1X_zENCINvNtB14_10punctuated4foldB10_B1z_NtNvCs3yqPx1X2sxh_15zerofrom_derive25replace_lifetime_and_type20ReplaceLifetimeAndTyNvYB40_NtNtNtB14_3gen4fold4Fold14fold_field_patE0NCINvNtB22_16in_place_collect24write_in_place_with_dropBZ_E0E0B44_, symObjAddr: 0x3164, symBinAddr: 0x47F88, symSize: 0x118 }
  - { offset: 0x65A87, size: 0x8, addend: 0x0, symName: __RNCINvNtNtNtCsfvfooZQ3Axs_4core4iter8adapters3map12map_try_foldTNtNtCs6IAuOt8vWmF_3syn4data5FieldNtNtB14_5token5CommaEBZ_INtNtNtCse1nGBsou5OW_5alloc3vec13in_place_drop11InPlaceDropBZ_EINtNtBa_6result6ResultB1V_zENCINvNtB14_10punctuated4foldB10_B1x_NtNvCs3yqPx1X2sxh_15zerofrom_derive16replace_lifetime15ReplaceLifetimeNvYB3Y_NtNtNtB14_3gen4fold4Fold10fold_fieldE0NCINvNtB20_16in_place_collect24write_in_place_with_dropBZ_E0E0B42_, symObjAddr: 0x327C, symBinAddr: 0x480A0, symSize: 0x11C }
  - { offset: 0x65B1A, size: 0x8, addend: 0x0, symName: __RNCINvNtNtNtCsfvfooZQ3Axs_4core4iter8adapters3map12map_try_foldTNtNtCs6IAuOt8vWmF_3syn4data5FieldNtNtB14_5token5CommaEBZ_INtNtNtCse1nGBsou5OW_5alloc3vec13in_place_drop11InPlaceDropBZ_EINtNtBa_6result6ResultB1V_zENCINvNtB14_10punctuated4foldB10_B1x_NtNvCs3yqPx1X2sxh_15zerofrom_derive25replace_lifetime_and_type20ReplaceLifetimeAndTyNvYB3Y_NtNtNtB14_3gen4fold4Fold10fold_fieldE0NCINvNtB20_16in_place_collect24write_in_place_with_dropBZ_E0E0B42_, symObjAddr: 0x3398, symBinAddr: 0x481BC, symSize: 0x11C }
  - { offset: 0x65BAD, size: 0x8, addend: 0x0, symName: __RNCINvNtNtNtCsfvfooZQ3Axs_4core4iter8adapters3map12map_try_foldTNtNtCs6IAuOt8vWmF_3syn4data7VariantNtNtB14_5token5CommaEBZ_INtNtNtCse1nGBsou5OW_5alloc3vec13in_place_drop11InPlaceDropBZ_EINtNtBa_6result6ResultB1X_zENCINvNtB14_10punctuated4foldB10_B1z_NtNvCs3yqPx1X2sxh_15zerofrom_derive16replace_lifetime15ReplaceLifetimeNvYB40_NtNtNtB14_3gen4fold4Fold12fold_variantE0NCINvNtB22_16in_place_collect24write_in_place_with_dropBZ_E0E0B44_, symObjAddr: 0x34B4, symBinAddr: 0x482D8, symSize: 0x118 }
  - { offset: 0x65C40, size: 0x8, addend: 0x0, symName: __RNCINvNtNtNtCsfvfooZQ3Axs_4core4iter8adapters3map12map_try_foldTNtNtCs6IAuOt8vWmF_3syn4data7VariantNtNtB14_5token5CommaEBZ_INtNtNtCse1nGBsou5OW_5alloc3vec13in_place_drop11InPlaceDropBZ_EINtNtBa_6result6ResultB1X_zENCINvNtB14_10punctuated4foldB10_B1z_NtNvCs3yqPx1X2sxh_15zerofrom_derive25replace_lifetime_and_type20ReplaceLifetimeAndTyNvYB40_NtNtNtB14_3gen4fold4Fold12fold_variantE0NCINvNtB22_16in_place_collect24write_in_place_with_dropBZ_E0E0B44_, symObjAddr: 0x35CC, symBinAddr: 0x483F0, symSize: 0x118 }
  - { offset: 0x65CD3, size: 0x8, addend: 0x0, symName: __RNCINvNtNtNtCsfvfooZQ3Axs_4core4iter8adapters3map12map_try_foldTNtNtCs6IAuOt8vWmF_3syn4expr10FieldValueNtNtB14_5token5CommaEBZ_INtNtNtCse1nGBsou5OW_5alloc3vec13in_place_drop11InPlaceDropBZ_EINtNtBa_6result6ResultB21_zENCINvNtB14_10punctuated4foldB10_B1D_NtNvCs3yqPx1X2sxh_15zerofrom_derive16replace_lifetime15ReplaceLifetimeNvYB44_NtNtNtB14_3gen4fold4Fold16fold_field_valueE0NCINvNtB26_16in_place_collect24write_in_place_with_dropBZ_E0E0B48_, symObjAddr: 0x36E4, symBinAddr: 0x48508, symSize: 0x118 }
  - { offset: 0x65D66, size: 0x8, addend: 0x0, symName: __RNCINvNtNtNtCsfvfooZQ3Axs_4core4iter8adapters3map12map_try_foldTNtNtCs6IAuOt8vWmF_3syn4expr10FieldValueNtNtB14_5token5CommaEBZ_INtNtNtCse1nGBsou5OW_5alloc3vec13in_place_drop11InPlaceDropBZ_EINtNtBa_6result6ResultB21_zENCINvNtB14_10punctuated4foldB10_B1D_NtNvCs3yqPx1X2sxh_15zerofrom_derive25replace_lifetime_and_type20ReplaceLifetimeAndTyNvYB44_NtNtNtB14_3gen4fold4Fold16fold_field_valueE0NCINvNtB26_16in_place_collect24write_in_place_with_dropBZ_E0E0B48_, symObjAddr: 0x37FC, symBinAddr: 0x48620, symSize: 0x118 }
  - { offset: 0x65DF9, size: 0x8, addend: 0x0, symName: __RNCINvNtNtNtCsfvfooZQ3Axs_4core4iter8adapters3map12map_try_foldTNtNtCs6IAuOt8vWmF_3syn4expr4ExprNtNtB14_5token5CommaEBZ_INtNtNtCse1nGBsou5OW_5alloc3vec13in_place_drop11InPlaceDropBZ_EINtNtBa_6result6ResultB1U_zENCINvNtB14_10punctuated4foldB10_B1w_NtNvCs3yqPx1X2sxh_15zerofrom_derive16replace_lifetime15ReplaceLifetimeNvYB3X_NtNtNtB14_3gen4fold4Fold9fold_exprE0NCINvNtB1Z_16in_place_collect24write_in_place_with_dropBZ_E0E0B41_, symObjAddr: 0x3914, symBinAddr: 0x48738, symSize: 0x118 }
  - { offset: 0x65E8C, size: 0x8, addend: 0x0, symName: __RNCINvNtNtNtCsfvfooZQ3Axs_4core4iter8adapters3map12map_try_foldTNtNtCs6IAuOt8vWmF_3syn4expr4ExprNtNtB14_5token5CommaEBZ_INtNtNtCse1nGBsou5OW_5alloc3vec13in_place_drop11InPlaceDropBZ_EINtNtBa_6result6ResultB1U_zENCINvNtB14_10punctuated4foldB10_B1w_NtNvCs3yqPx1X2sxh_15zerofrom_derive25replace_lifetime_and_type20ReplaceLifetimeAndTyNvYB3X_NtNtNtB14_3gen4fold4Fold9fold_exprE0NCINvNtB1Z_16in_place_collect24write_in_place_with_dropBZ_E0E0B41_, symObjAddr: 0x3A2C, symBinAddr: 0x48850, symSize: 0x118 }
  - { offset: 0x65F1F, size: 0x8, addend: 0x0, symName: __RNCINvNtNtNtCsfvfooZQ3Axs_4core4iter8adapters3map12map_try_foldTNtNtCs6IAuOt8vWmF_3syn4item5FnArgNtNtB14_5token5CommaEBZ_INtNtNtCse1nGBsou5OW_5alloc3vec13in_place_drop11InPlaceDropBZ_EINtNtBa_6result6ResultB1V_zENCINvNtB14_10punctuated4foldB10_B1x_NtNvCs3yqPx1X2sxh_15zerofrom_derive16replace_lifetime15ReplaceLifetimeNvYB3Y_NtNtNtB14_3gen4fold4Fold11fold_fn_argE0NCINvNtB20_16in_place_collect24write_in_place_with_dropBZ_E0E0B42_, symObjAddr: 0x3B44, symBinAddr: 0x48968, symSize: 0x118 }
  - { offset: 0x65FB2, size: 0x8, addend: 0x0, symName: __RNCINvNtNtNtCsfvfooZQ3Axs_4core4iter8adapters3map12map_try_foldTNtNtCs6IAuOt8vWmF_3syn4item5FnArgNtNtB14_5token5CommaEBZ_INtNtNtCse1nGBsou5OW_5alloc3vec13in_place_drop11InPlaceDropBZ_EINtNtBa_6result6ResultB1V_zENCINvNtB14_10punctuated4foldB10_B1x_NtNvCs3yqPx1X2sxh_15zerofrom_derive25replace_lifetime_and_type20ReplaceLifetimeAndTyNvYB3Y_NtNtNtB14_3gen4fold4Fold11fold_fn_argE0NCINvNtB20_16in_place_collect24write_in_place_with_dropBZ_E0E0B42_, symObjAddr: 0x3C5C, symBinAddr: 0x48A80, symSize: 0x118 }
  - { offset: 0x66045, size: 0x8, addend: 0x0, symName: __RNCINvNtNtNtCsfvfooZQ3Axs_4core4iter8adapters3map12map_try_foldTNtNtCs6IAuOt8vWmF_3syn4item7UseTreeNtNtB14_5token5CommaEBZ_INtNtNtCse1nGBsou5OW_5alloc3vec13in_place_drop11InPlaceDropBZ_EINtNtBa_6result6ResultB1X_zENCINvNtB14_10punctuated4foldB10_B1z_NtNvCs3yqPx1X2sxh_15zerofrom_derive16replace_lifetime15ReplaceLifetimeNvYB40_NtNtNtB14_3gen4fold4Fold13fold_use_treeE0NCINvNtB22_16in_place_collect24write_in_place_with_dropBZ_E0E0B44_, symObjAddr: 0x3D74, symBinAddr: 0x48B98, symSize: 0x118 }
  - { offset: 0x660D8, size: 0x8, addend: 0x0, symName: __RNCINvNtNtNtCsfvfooZQ3Axs_4core4iter8adapters3map12map_try_foldTNtNtCs6IAuOt8vWmF_3syn4item7UseTreeNtNtB14_5token5CommaEBZ_INtNtNtCse1nGBsou5OW_5alloc3vec13in_place_drop11InPlaceDropBZ_EINtNtBa_6result6ResultB1X_zENCINvNtB14_10punctuated4foldB10_B1z_NtNvCs3yqPx1X2sxh_15zerofrom_derive25replace_lifetime_and_type20ReplaceLifetimeAndTyNvYB40_NtNtNtB14_3gen4fold4Fold13fold_use_treeE0NCINvNtB22_16in_place_collect24write_in_place_with_dropBZ_E0E0B44_, symObjAddr: 0x3E8C, symBinAddr: 0x48CB0, symSize: 0x118 }
  - { offset: 0x6616B, size: 0x8, addend: 0x0, symName: __RNCINvNtNtNtCsfvfooZQ3Axs_4core4iter8adapters3map12map_try_foldTNtNtCs6IAuOt8vWmF_3syn4path11PathSegmentNtNtB14_5token7PathSepEBZ_INtNtNtCse1nGBsou5OW_5alloc3vec13in_place_drop11InPlaceDropBZ_EINtNtBa_6result6ResultB24_zENCINvNtB14_10punctuated4foldB10_B1E_NtNvCs3yqPx1X2sxh_15zerofrom_derive16replace_lifetime15ReplaceLifetimeNvYB47_NtNtNtB14_3gen4fold4Fold17fold_path_segmentE0NCINvNtB29_16in_place_collect24write_in_place_with_dropBZ_E0E0B4b_, symObjAddr: 0x3FA4, symBinAddr: 0x48DC8, symSize: 0x118 }
  - { offset: 0x661FE, size: 0x8, addend: 0x0, symName: __RNCINvNtNtNtCsfvfooZQ3Axs_4core4iter8adapters3map12map_try_foldTNtNtCs6IAuOt8vWmF_3syn4path11PathSegmentNtNtB14_5token7PathSepEBZ_INtNtNtCse1nGBsou5OW_5alloc3vec13in_place_drop11InPlaceDropBZ_EINtNtBa_6result6ResultB24_zENCINvNtB14_10punctuated4foldB10_B1E_NtNvCs3yqPx1X2sxh_15zerofrom_derive25replace_lifetime_and_type20ReplaceLifetimeAndTyNvYB47_NtNtNtB14_3gen4fold4Fold17fold_path_segmentE0NCINvNtB29_16in_place_collect24write_in_place_with_dropBZ_E0E0B4b_, symObjAddr: 0x40BC, symBinAddr: 0x48EE0, symSize: 0x118 }
  - { offset: 0x66291, size: 0x8, addend: 0x0, symName: __RNCINvNtNtNtCsfvfooZQ3Axs_4core4iter8adapters3map12map_try_foldTNtNtCs6IAuOt8vWmF_3syn4path15GenericArgumentNtNtB14_5token5CommaEBZ_INtNtNtCse1nGBsou5OW_5alloc3vec13in_place_drop11InPlaceDropBZ_EINtNtBa_6result6ResultB26_zENCINvNtB14_10punctuated4foldB10_B1I_NtNvCs3yqPx1X2sxh_15zerofrom_derive16replace_lifetime15ReplaceLifetimeNvYB49_NtNtNtB14_3gen4fold4Fold21fold_generic_argumentE0NCINvNtB2b_16in_place_collect24write_in_place_with_dropBZ_E0E0B4d_, symObjAddr: 0x41D4, symBinAddr: 0x48FF8, symSize: 0x11C }
  - { offset: 0x66324, size: 0x8, addend: 0x0, symName: __RNCINvNtNtNtCsfvfooZQ3Axs_4core4iter8adapters3map12map_try_foldTNtNtCs6IAuOt8vWmF_3syn4path15GenericArgumentNtNtB14_5token5CommaEBZ_INtNtNtCse1nGBsou5OW_5alloc3vec13in_place_drop11InPlaceDropBZ_EINtNtBa_6result6ResultB26_zENCINvNtB14_10punctuated4foldB10_B1I_NtNvCs3yqPx1X2sxh_15zerofrom_derive25replace_lifetime_and_type20ReplaceLifetimeAndTyNvYB49_NtNtNtB14_3gen4fold4Fold21fold_generic_argumentE0NCINvNtB2b_16in_place_collect24write_in_place_with_dropBZ_E0E0B4d_, symObjAddr: 0x42F0, symBinAddr: 0x49114, symSize: 0x11C }
  - { offset: 0x663B7, size: 0x8, addend: 0x0, symName: __RNCINvNtNtNtCsfvfooZQ3Axs_4core4iter8adapters3map12map_try_foldTNtNtCs6IAuOt8vWmF_3syn8generics12GenericParamNtNtB14_5token5CommaEBZ_INtNtNtCse1nGBsou5OW_5alloc3vec13in_place_drop11InPlaceDropBZ_EINtNtBa_6result6ResultB27_zENCINvNtB14_10punctuated4foldB10_B1J_NtNvCs3yqPx1X2sxh_15zerofrom_derive16replace_lifetime15ReplaceLifetimeNvYB4a_NtNtNtB14_3gen4fold4Fold18fold_generic_paramE0NCINvNtB2c_16in_place_collect24write_in_place_with_dropBZ_E0E0B4e_, symObjAddr: 0x440C, symBinAddr: 0x49230, symSize: 0x11C }
  - { offset: 0x6644A, size: 0x8, addend: 0x0, symName: __RNCINvNtNtNtCsfvfooZQ3Axs_4core4iter8adapters3map12map_try_foldTNtNtCs6IAuOt8vWmF_3syn8generics12GenericParamNtNtB14_5token5CommaEBZ_INtNtNtCse1nGBsou5OW_5alloc3vec13in_place_drop11InPlaceDropBZ_EINtNtBa_6result6ResultB27_zENCINvNtB14_10punctuated4foldB10_B1J_NtNvCs3yqPx1X2sxh_15zerofrom_derive25replace_lifetime_and_type20ReplaceLifetimeAndTyNvYB4a_NtNtNtB14_3gen4fold4Fold18fold_generic_paramE0NCINvNtB2c_16in_place_collect24write_in_place_with_dropBZ_E0E0B4e_, symObjAddr: 0x4528, symBinAddr: 0x4934C, symSize: 0x11C }
  - { offset: 0x664DD, size: 0x8, addend: 0x0, symName: __RNCINvNtNtNtCsfvfooZQ3Axs_4core4iter8adapters3map12map_try_foldTNtNtCs6IAuOt8vWmF_3syn8generics13CapturedParamNtNtB14_5token5CommaEBZ_INtNtNtCse1nGBsou5OW_5alloc3vec13in_place_drop11InPlaceDropBZ_EINtNtBa_6result6ResultB28_zENCINvNtB14_10punctuated4foldB10_B1K_NtNvCs3yqPx1X2sxh_15zerofrom_derive16replace_lifetime15ReplaceLifetimeNvYB4b_NtNtNtB14_3gen4fold4Fold19fold_captured_paramE0NCINvNtB2d_16in_place_collect24write_in_place_with_dropBZ_E0E0B4f_, symObjAddr: 0x4644, symBinAddr: 0x49468, symSize: 0x118 }
  - { offset: 0x66570, size: 0x8, addend: 0x0, symName: __RNCINvNtNtNtCsfvfooZQ3Axs_4core4iter8adapters3map12map_try_foldTNtNtCs6IAuOt8vWmF_3syn8generics13CapturedParamNtNtB14_5token5CommaEBZ_INtNtNtCse1nGBsou5OW_5alloc3vec13in_place_drop11InPlaceDropBZ_EINtNtBa_6result6ResultB28_zENCINvNtB14_10punctuated4foldB10_B1K_NtNvCs3yqPx1X2sxh_15zerofrom_derive25replace_lifetime_and_type20ReplaceLifetimeAndTyNvYB4b_NtNtNtB14_3gen4fold4Fold19fold_captured_paramE0NCINvNtB2d_16in_place_collect24write_in_place_with_dropBZ_E0E0B4f_, symObjAddr: 0x475C, symBinAddr: 0x49580, symSize: 0x118 }
  - { offset: 0x66603, size: 0x8, addend: 0x0, symName: __RNCINvNtNtNtCsfvfooZQ3Axs_4core4iter8adapters3map12map_try_foldTNtNtCs6IAuOt8vWmF_3syn8generics14TypeParamBoundNtNtB14_5token4PlusEBZ_INtNtNtCse1nGBsou5OW_5alloc3vec13in_place_drop11InPlaceDropBZ_EINtNtBa_6result6ResultB28_zENCINvNtB14_10punctuated4foldB10_B1L_NtNvCs3yqPx1X2sxh_15zerofrom_derive16replace_lifetime15ReplaceLifetimeNvYB4b_NtNtNtB14_3gen4fold4Fold21fold_type_param_boundE0NCINvNtB2d_16in_place_collect24write_in_place_with_dropBZ_E0E0B4f_, symObjAddr: 0x4874, symBinAddr: 0x49698, symSize: 0x118 }
  - { offset: 0x66696, size: 0x8, addend: 0x0, symName: __RNCINvNtNtNtCsfvfooZQ3Axs_4core4iter8adapters3map12map_try_foldTNtNtCs6IAuOt8vWmF_3syn8generics14TypeParamBoundNtNtB14_5token4PlusEBZ_INtNtNtCse1nGBsou5OW_5alloc3vec13in_place_drop11InPlaceDropBZ_EINtNtBa_6result6ResultB28_zENCINvNtB14_10punctuated4foldB10_B1L_NtNvCs3yqPx1X2sxh_15zerofrom_derive25replace_lifetime_and_type20ReplaceLifetimeAndTyNvYB4b_NtNtNtB14_3gen4fold4Fold21fold_type_param_boundE0NCINvNtB2d_16in_place_collect24write_in_place_with_dropBZ_E0E0B4f_, symObjAddr: 0x498C, symBinAddr: 0x497B0, symSize: 0x118 }
  - { offset: 0x66729, size: 0x8, addend: 0x0, symName: __RNCINvNtNtNtCsfvfooZQ3Axs_4core4iter8adapters3map12map_try_foldTNtNtCs6IAuOt8vWmF_3syn8generics14WherePredicateNtNtB14_5token5CommaEBZ_INtNtNtCse1nGBsou5OW_5alloc3vec13in_place_drop11InPlaceDropBZ_EINtNtBa_6result6ResultB29_zENCINvNtB14_10punctuated4foldB10_B1L_NtNvCs3yqPx1X2sxh_15zerofrom_derive16replace_lifetime15ReplaceLifetimeNvYB4c_NtNtNtB14_3gen4fold4Fold20fold_where_predicateE0NCINvNtB2e_16in_place_collect24write_in_place_with_dropBZ_E0E0B4g_, symObjAddr: 0x4AA4, symBinAddr: 0x498C8, symSize: 0x11C }
  - { offset: 0x667BC, size: 0x8, addend: 0x0, symName: __RNCINvNtNtNtCsfvfooZQ3Axs_4core4iter8adapters3map12map_try_foldTNtNtCs6IAuOt8vWmF_3syn8generics14WherePredicateNtNtB14_5token5CommaEBZ_INtNtNtCse1nGBsou5OW_5alloc3vec13in_place_drop11InPlaceDropBZ_EINtNtBa_6result6ResultB29_zENCINvNtB14_10punctuated4foldB10_B1L_NtNvCs3yqPx1X2sxh_15zerofrom_derive25replace_lifetime_and_type20ReplaceLifetimeAndTyNvYB4c_NtNtNtB14_3gen4fold4Fold20fold_where_predicateE0NCINvNtB2e_16in_place_collect24write_in_place_with_dropBZ_E0E0B4g_, symObjAddr: 0x4BC0, symBinAddr: 0x499E4, symSize: 0x11C }
  - { offset: 0x6684F, size: 0x8, addend: 0x0, symName: __RNCINvNtNtNtCsfvfooZQ3Axs_4core4iter8adapters3map12map_try_foldTNtNtCs6IAuOt8vWmF_3syn8lifetime8LifetimeNtNtB14_5token4PlusEBZ_INtNtNtCse1nGBsou5OW_5alloc3vec13in_place_drop11InPlaceDropBZ_EINtNtBa_6result6ResultB21_zENCINvNtB14_10punctuated4foldB10_B1E_NtNvCs3yqPx1X2sxh_15zerofrom_derive16replace_lifetime15ReplaceLifetimeNvYB44_NtNtNtB14_3gen4fold4Fold13fold_lifetimeE0NCINvNtB26_16in_place_collect24write_in_place_with_dropBZ_E0E0B48_, symObjAddr: 0x4CDC, symBinAddr: 0x49B00, symSize: 0x118 }
  - { offset: 0x668E2, size: 0x8, addend: 0x0, symName: __RNCINvNtNtNtCsfvfooZQ3Axs_4core4iter8adapters3map12map_try_foldTNtNtCs6IAuOt8vWmF_3syn8lifetime8LifetimeNtNtB14_5token4PlusEBZ_INtNtNtCse1nGBsou5OW_5alloc3vec13in_place_drop11InPlaceDropBZ_EINtNtBa_6result6ResultB21_zENCINvNtB14_10punctuated4foldB10_B1E_NtNvCs3yqPx1X2sxh_15zerofrom_derive25replace_lifetime_and_type20ReplaceLifetimeAndTyNvYB44_NtNtNtB14_3gen4fold4Fold13fold_lifetimeE0NCINvNtB26_16in_place_collect24write_in_place_with_dropBZ_E0E0B48_, symObjAddr: 0x4DF4, symBinAddr: 0x49C18, symSize: 0x118 }
  - { offset: 0x66A23, size: 0x8, addend: 0x0, symName: __RNvXs9_NtNtNtCsfvfooZQ3Axs_4core4iter8adapters3mapINtB5_3MapINtNtNtCse1nGBsou5OW_5alloc3vec9into_iter8IntoIterNtNtCs6IAuOt8vWmF_3syn4attr9AttributeENCINvNtNtB1O_3gen4fold8fold_vecB1K_NtNvCs3yqPx1X2sxh_15zerofrom_derive16replace_lifetime15ReplaceLifetimeNvYB2V_NtB2r_4Fold14fold_attributeE0ENtB7_10SourceIter8as_innerB2Z_, symObjAddr: 0x8474, symBinAddr: 0x4D298, symSize: 0x24 }
  - { offset: 0x66A61, size: 0x8, addend: 0x0, symName: __RNvXs9_NtNtNtCsfvfooZQ3Axs_4core4iter8adapters3mapINtB5_3MapINtNtNtCse1nGBsou5OW_5alloc3vec9into_iter8IntoIterNtNtCs6IAuOt8vWmF_3syn4attr9AttributeENCINvNtNtB1O_3gen4fold8fold_vecB1K_NtNvCs3yqPx1X2sxh_15zerofrom_derive25replace_lifetime_and_type20ReplaceLifetimeAndTyNvYB2V_NtB2r_4Fold14fold_attributeE0ENtB7_10SourceIter8as_innerB2Z_, symObjAddr: 0x8498, symBinAddr: 0x4D2BC, symSize: 0x24 }
  - { offset: 0x66A9F, size: 0x8, addend: 0x0, symName: __RNvXs9_NtNtNtCsfvfooZQ3Axs_4core4iter8adapters3mapINtB5_3MapINtNtNtCse1nGBsou5OW_5alloc3vec9into_iter8IntoIterNtNtCs6IAuOt8vWmF_3syn4expr3ArmENCINvNtNtB1O_3gen4fold8fold_vecB1K_NtNvCs3yqPx1X2sxh_15zerofrom_derive16replace_lifetime15ReplaceLifetimeNvYB2P_NtB2l_4Fold8fold_armE0ENtB7_10SourceIter8as_innerB2T_, symObjAddr: 0x84BC, symBinAddr: 0x4D2E0, symSize: 0x24 }
  - { offset: 0x66ADD, size: 0x8, addend: 0x0, symName: __RNvXs9_NtNtNtCsfvfooZQ3Axs_4core4iter8adapters3mapINtB5_3MapINtNtNtCse1nGBsou5OW_5alloc3vec9into_iter8IntoIterNtNtCs6IAuOt8vWmF_3syn4expr3ArmENCINvNtNtB1O_3gen4fold8fold_vecB1K_NtNvCs3yqPx1X2sxh_15zerofrom_derive25replace_lifetime_and_type20ReplaceLifetimeAndTyNvYB2P_NtB2l_4Fold8fold_armE0ENtB7_10SourceIter8as_innerB2T_, symObjAddr: 0x84E0, symBinAddr: 0x4D304, symSize: 0x24 }
  - { offset: 0x66B1B, size: 0x8, addend: 0x0, symName: __RNvXs9_NtNtNtCsfvfooZQ3Axs_4core4iter8adapters3mapINtB5_3MapINtNtNtCse1nGBsou5OW_5alloc3vec9into_iter8IntoIterNtNtCs6IAuOt8vWmF_3syn4item11ForeignItemENCINvNtNtB1O_3gen4fold8fold_vecB1K_NtNvCs3yqPx1X2sxh_15zerofrom_derive16replace_lifetime15ReplaceLifetimeNvYB2Y_NtB2u_4Fold17fold_foreign_itemE0ENtB7_10SourceIter8as_innerB32_, symObjAddr: 0x8504, symBinAddr: 0x4D328, symSize: 0x24 }
  - { offset: 0x66B59, size: 0x8, addend: 0x0, symName: __RNvXs9_NtNtNtCsfvfooZQ3Axs_4core4iter8adapters3mapINtB5_3MapINtNtNtCse1nGBsou5OW_5alloc3vec9into_iter8IntoIterNtNtCs6IAuOt8vWmF_3syn4item11ForeignItemENCINvNtNtB1O_3gen4fold8fold_vecB1K_NtNvCs3yqPx1X2sxh_15zerofrom_derive25replace_lifetime_and_type20ReplaceLifetimeAndTyNvYB2Y_NtB2u_4Fold17fold_foreign_itemE0ENtB7_10SourceIter8as_innerB32_, symObjAddr: 0x8528, symBinAddr: 0x4D34C, symSize: 0x24 }
  - { offset: 0x66B97, size: 0x8, addend: 0x0, symName: __RNvXs9_NtNtNtCsfvfooZQ3Axs_4core4iter8adapters3mapINtB5_3MapINtNtNtCse1nGBsou5OW_5alloc3vec9into_iter8IntoIterNtNtCs6IAuOt8vWmF_3syn4item4ItemENCINvNtNtB1O_3gen4fold8fold_vecB1K_NtNvCs3yqPx1X2sxh_15zerofrom_derive16replace_lifetime15ReplaceLifetimeNvYB2Q_NtB2m_4Fold9fold_itemE0ENtB7_10SourceIter8as_innerB2U_, symObjAddr: 0x854C, symBinAddr: 0x4D370, symSize: 0x24 }
  - { offset: 0x66BD5, size: 0x8, addend: 0x0, symName: __RNvXs9_NtNtNtCsfvfooZQ3Axs_4core4iter8adapters3mapINtB5_3MapINtNtNtCse1nGBsou5OW_5alloc3vec9into_iter8IntoIterNtNtCs6IAuOt8vWmF_3syn4item4ItemENCINvNtNtB1O_3gen4fold8fold_vecB1K_NtNvCs3yqPx1X2sxh_15zerofrom_derive25replace_lifetime_and_type20ReplaceLifetimeAndTyNvYB2Q_NtB2m_4Fold9fold_itemE0ENtB7_10SourceIter8as_innerB2U_, symObjAddr: 0x8570, symBinAddr: 0x4D394, symSize: 0x24 }
  - { offset: 0x66C13, size: 0x8, addend: 0x0, symName: __RNvXs9_NtNtNtCsfvfooZQ3Axs_4core4iter8adapters3mapINtB5_3MapINtNtNtCse1nGBsou5OW_5alloc3vec9into_iter8IntoIterNtNtCs6IAuOt8vWmF_3syn4item8ImplItemENCINvNtNtB1O_3gen4fold8fold_vecB1K_NtNvCs3yqPx1X2sxh_15zerofrom_derive16replace_lifetime15ReplaceLifetimeNvYB2U_NtB2q_4Fold14fold_impl_itemE0ENtB7_10SourceIter8as_innerB2Y_, symObjAddr: 0x8594, symBinAddr: 0x4D3B8, symSize: 0x24 }
  - { offset: 0x66C51, size: 0x8, addend: 0x0, symName: __RNvXs9_NtNtNtCsfvfooZQ3Axs_4core4iter8adapters3mapINtB5_3MapINtNtNtCse1nGBsou5OW_5alloc3vec9into_iter8IntoIterNtNtCs6IAuOt8vWmF_3syn4item8ImplItemENCINvNtNtB1O_3gen4fold8fold_vecB1K_NtNvCs3yqPx1X2sxh_15zerofrom_derive25replace_lifetime_and_type20ReplaceLifetimeAndTyNvYB2U_NtB2q_4Fold14fold_impl_itemE0ENtB7_10SourceIter8as_innerB2Y_, symObjAddr: 0x85B8, symBinAddr: 0x4D3DC, symSize: 0x24 }
  - { offset: 0x66C8F, size: 0x8, addend: 0x0, symName: __RNvXs9_NtNtNtCsfvfooZQ3Axs_4core4iter8adapters3mapINtB5_3MapINtNtNtCse1nGBsou5OW_5alloc3vec9into_iter8IntoIterNtNtCs6IAuOt8vWmF_3syn4item9TraitItemENCINvNtNtB1O_3gen4fold8fold_vecB1K_NtNvCs3yqPx1X2sxh_15zerofrom_derive16replace_lifetime15ReplaceLifetimeNvYB2V_NtB2r_4Fold15fold_trait_itemE0ENtB7_10SourceIter8as_innerB2Z_, symObjAddr: 0x85DC, symBinAddr: 0x4D400, symSize: 0x24 }
  - { offset: 0x66CCD, size: 0x8, addend: 0x0, symName: __RNvXs9_NtNtNtCsfvfooZQ3Axs_4core4iter8adapters3mapINtB5_3MapINtNtNtCse1nGBsou5OW_5alloc3vec9into_iter8IntoIterNtNtCs6IAuOt8vWmF_3syn4item9TraitItemENCINvNtNtB1O_3gen4fold8fold_vecB1K_NtNvCs3yqPx1X2sxh_15zerofrom_derive25replace_lifetime_and_type20ReplaceLifetimeAndTyNvYB2V_NtB2r_4Fold15fold_trait_itemE0ENtB7_10SourceIter8as_innerB2Z_, symObjAddr: 0x8600, symBinAddr: 0x4D424, symSize: 0x24 }
  - { offset: 0x66D0B, size: 0x8, addend: 0x0, symName: __RNvXs9_NtNtNtCsfvfooZQ3Axs_4core4iter8adapters3mapINtB5_3MapINtNtNtCse1nGBsou5OW_5alloc3vec9into_iter8IntoIterNtNtCs6IAuOt8vWmF_3syn4stmt4StmtENCINvNtNtB1O_3gen4fold8fold_vecB1K_NtNvCs3yqPx1X2sxh_15zerofrom_derive16replace_lifetime15ReplaceLifetimeNvYB2Q_NtB2m_4Fold9fold_stmtE0ENtB7_10SourceIter8as_innerB2U_, symObjAddr: 0x8624, symBinAddr: 0x4D448, symSize: 0x24 }
  - { offset: 0x66D49, size: 0x8, addend: 0x0, symName: __RNvXs9_NtNtNtCsfvfooZQ3Axs_4core4iter8adapters3mapINtB5_3MapINtNtNtCse1nGBsou5OW_5alloc3vec9into_iter8IntoIterNtNtCs6IAuOt8vWmF_3syn4stmt4StmtENCINvNtNtB1O_3gen4fold8fold_vecB1K_NtNvCs3yqPx1X2sxh_15zerofrom_derive25replace_lifetime_and_type20ReplaceLifetimeAndTyNvYB2Q_NtB2m_4Fold9fold_stmtE0ENtB7_10SourceIter8as_innerB2U_, symObjAddr: 0x8648, symBinAddr: 0x4D46C, symSize: 0x24 }
  - { offset: 0x66D87, size: 0x8, addend: 0x0, symName: __RNvXs9_NtNtNtCsfvfooZQ3Axs_4core4iter8adapters3mapINtB5_3MapINtNtNtCse1nGBsou5OW_5alloc3vec9into_iter8IntoIterTNtNtCs6IAuOt8vWmF_3syn2ty4TypeNtNtB1P_5token5CommaEENCINvNtB1P_10punctuated4foldB1L_B2f_NtNvCs3yqPx1X2sxh_15zerofrom_derive16replace_lifetime15ReplaceLifetimeNvYB3b_NtNtNtB1P_3gen4fold4Fold9fold_typeE0ENtB7_10SourceIter8as_innerB3f_, symObjAddr: 0x866C, symBinAddr: 0x4D490, symSize: 0x24 }
  - { offset: 0x66DC5, size: 0x8, addend: 0x0, symName: __RNvXs9_NtNtNtCsfvfooZQ3Axs_4core4iter8adapters3mapINtB5_3MapINtNtNtCse1nGBsou5OW_5alloc3vec9into_iter8IntoIterTNtNtCs6IAuOt8vWmF_3syn2ty4TypeNtNtB1P_5token5CommaEENCINvNtB1P_10punctuated4foldB1L_B2f_NtNvCs3yqPx1X2sxh_15zerofrom_derive25replace_lifetime_and_type20ReplaceLifetimeAndTyNvYB3b_NtNtNtB1P_3gen4fold4Fold9fold_typeE0ENtB7_10SourceIter8as_innerB3f_, symObjAddr: 0x8690, symBinAddr: 0x4D4B4, symSize: 0x24 }
  - { offset: 0x66E03, size: 0x8, addend: 0x0, symName: __RNvXs9_NtNtNtCsfvfooZQ3Axs_4core4iter8adapters3mapINtB5_3MapINtNtNtCse1nGBsou5OW_5alloc3vec9into_iter8IntoIterTNtNtCs6IAuOt8vWmF_3syn2ty9BareFnArgNtNtB1P_5token5CommaEENCINvNtB1P_10punctuated4foldB1L_B2k_NtNvCs3yqPx1X2sxh_15zerofrom_derive16replace_lifetime15ReplaceLifetimeNvYB3g_NtNtNtB1P_3gen4fold4Fold16fold_bare_fn_argE0ENtB7_10SourceIter8as_innerB3k_, symObjAddr: 0x86B4, symBinAddr: 0x4D4D8, symSize: 0x24 }
  - { offset: 0x66E41, size: 0x8, addend: 0x0, symName: __RNvXs9_NtNtNtCsfvfooZQ3Axs_4core4iter8adapters3mapINtB5_3MapINtNtNtCse1nGBsou5OW_5alloc3vec9into_iter8IntoIterTNtNtCs6IAuOt8vWmF_3syn2ty9BareFnArgNtNtB1P_5token5CommaEENCINvNtB1P_10punctuated4foldB1L_B2k_NtNvCs3yqPx1X2sxh_15zerofrom_derive25replace_lifetime_and_type20ReplaceLifetimeAndTyNvYB3g_NtNtNtB1P_3gen4fold4Fold16fold_bare_fn_argE0ENtB7_10SourceIter8as_innerB3k_, symObjAddr: 0x86D8, symBinAddr: 0x4D4FC, symSize: 0x24 }
  - { offset: 0x66E7F, size: 0x8, addend: 0x0, symName: __RNvXs9_NtNtNtCsfvfooZQ3Axs_4core4iter8adapters3mapINtB5_3MapINtNtNtCse1nGBsou5OW_5alloc3vec9into_iter8IntoIterTNtNtCs6IAuOt8vWmF_3syn3pat3PatNtNtB1P_5token2OrEENCINvNtB1P_10punctuated4foldB1L_B2f_NtNvCs3yqPx1X2sxh_15zerofrom_derive16replace_lifetime15ReplaceLifetimeNvYB38_NtNtNtB1P_3gen4fold4Fold8fold_patE0ENtB7_10SourceIter8as_innerB3c_, symObjAddr: 0x86FC, symBinAddr: 0x4D520, symSize: 0x24 }
  - { offset: 0x66EBD, size: 0x8, addend: 0x0, symName: __RNvXs9_NtNtNtCsfvfooZQ3Axs_4core4iter8adapters3mapINtB5_3MapINtNtNtCse1nGBsou5OW_5alloc3vec9into_iter8IntoIterTNtNtCs6IAuOt8vWmF_3syn3pat3PatNtNtB1P_5token2OrEENCINvNtB1P_10punctuated4foldB1L_B2f_NtNvCs3yqPx1X2sxh_15zerofrom_derive25replace_lifetime_and_type20ReplaceLifetimeAndTyNvYB38_NtNtNtB1P_3gen4fold4Fold8fold_patE0ENtB7_10SourceIter8as_innerB3c_, symObjAddr: 0x8720, symBinAddr: 0x4D544, symSize: 0x24 }
  - { offset: 0x66EFB, size: 0x8, addend: 0x0, symName: __RNvXs9_NtNtNtCsfvfooZQ3Axs_4core4iter8adapters3mapINtB5_3MapINtNtNtCse1nGBsou5OW_5alloc3vec9into_iter8IntoIterTNtNtCs6IAuOt8vWmF_3syn3pat3PatNtNtB1P_5token5CommaEENCINvNtB1P_10punctuated4foldB1L_B2f_NtNvCs3yqPx1X2sxh_15zerofrom_derive16replace_lifetime15ReplaceLifetimeNvYB3b_NtNtNtB1P_3gen4fold4Fold8fold_patE0ENtB7_10SourceIter8as_innerB3f_, symObjAddr: 0x8744, symBinAddr: 0x4D568, symSize: 0x24 }
  - { offset: 0x66F39, size: 0x8, addend: 0x0, symName: __RNvXs9_NtNtNtCsfvfooZQ3Axs_4core4iter8adapters3mapINtB5_3MapINtNtNtCse1nGBsou5OW_5alloc3vec9into_iter8IntoIterTNtNtCs6IAuOt8vWmF_3syn3pat3PatNtNtB1P_5token5CommaEENCINvNtB1P_10punctuated4foldB1L_B2f_NtNvCs3yqPx1X2sxh_15zerofrom_derive25replace_lifetime_and_type20ReplaceLifetimeAndTyNvYB3b_NtNtNtB1P_3gen4fold4Fold8fold_patE0ENtB7_10SourceIter8as_innerB3f_, symObjAddr: 0x8768, symBinAddr: 0x4D58C, symSize: 0x24 }
  - { offset: 0x66F77, size: 0x8, addend: 0x0, symName: __RNvXs9_NtNtNtCsfvfooZQ3Axs_4core4iter8adapters3mapINtB5_3MapINtNtNtCse1nGBsou5OW_5alloc3vec9into_iter8IntoIterTNtNtCs6IAuOt8vWmF_3syn3pat8FieldPatNtNtB1P_5token5CommaEENCINvNtB1P_10punctuated4foldB1L_B2k_NtNvCs3yqPx1X2sxh_15zerofrom_derive16replace_lifetime15ReplaceLifetimeNvYB3g_NtNtNtB1P_3gen4fold4Fold14fold_field_patE0ENtB7_10SourceIter8as_innerB3k_, symObjAddr: 0x878C, symBinAddr: 0x4D5B0, symSize: 0x24 }
  - { offset: 0x66FB5, size: 0x8, addend: 0x0, symName: __RNvXs9_NtNtNtCsfvfooZQ3Axs_4core4iter8adapters3mapINtB5_3MapINtNtNtCse1nGBsou5OW_5alloc3vec9into_iter8IntoIterTNtNtCs6IAuOt8vWmF_3syn3pat8FieldPatNtNtB1P_5token5CommaEENCINvNtB1P_10punctuated4foldB1L_B2k_NtNvCs3yqPx1X2sxh_15zerofrom_derive25replace_lifetime_and_type20ReplaceLifetimeAndTyNvYB3g_NtNtNtB1P_3gen4fold4Fold14fold_field_patE0ENtB7_10SourceIter8as_innerB3k_, symObjAddr: 0x87B0, symBinAddr: 0x4D5D4, symSize: 0x24 }
  - { offset: 0x66FF3, size: 0x8, addend: 0x0, symName: __RNvXs9_NtNtNtCsfvfooZQ3Axs_4core4iter8adapters3mapINtB5_3MapINtNtNtCse1nGBsou5OW_5alloc3vec9into_iter8IntoIterTNtNtCs6IAuOt8vWmF_3syn4data5FieldNtNtB1P_5token5CommaEENCINvNtB1P_10punctuated4foldB1L_B2i_NtNvCs3yqPx1X2sxh_15zerofrom_derive16replace_lifetime15ReplaceLifetimeNvYB3e_NtNtNtB1P_3gen4fold4Fold10fold_fieldE0ENtB7_10SourceIter8as_innerB3i_, symObjAddr: 0x87D4, symBinAddr: 0x4D5F8, symSize: 0x24 }
  - { offset: 0x67031, size: 0x8, addend: 0x0, symName: __RNvXs9_NtNtNtCsfvfooZQ3Axs_4core4iter8adapters3mapINtB5_3MapINtNtNtCse1nGBsou5OW_5alloc3vec9into_iter8IntoIterTNtNtCs6IAuOt8vWmF_3syn4data5FieldNtNtB1P_5token5CommaEENCINvNtB1P_10punctuated4foldB1L_B2i_NtNvCs3yqPx1X2sxh_15zerofrom_derive25replace_lifetime_and_type20ReplaceLifetimeAndTyNvYB3e_NtNtNtB1P_3gen4fold4Fold10fold_fieldE0ENtB7_10SourceIter8as_innerB3i_, symObjAddr: 0x87F8, symBinAddr: 0x4D61C, symSize: 0x24 }
  - { offset: 0x6706F, size: 0x8, addend: 0x0, symName: __RNvXs9_NtNtNtCsfvfooZQ3Axs_4core4iter8adapters3mapINtB5_3MapINtNtNtCse1nGBsou5OW_5alloc3vec9into_iter8IntoIterTNtNtCs6IAuOt8vWmF_3syn4data7VariantNtNtB1P_5token5CommaEENCINvNtB1P_10punctuated4foldB1L_B2k_NtNvCs3yqPx1X2sxh_15zerofrom_derive16replace_lifetime15ReplaceLifetimeNvYB3g_NtNtNtB1P_3gen4fold4Fold12fold_variantE0ENtB7_10SourceIter8as_innerB3k_, symObjAddr: 0x881C, symBinAddr: 0x4D640, symSize: 0x24 }
  - { offset: 0x670AD, size: 0x8, addend: 0x0, symName: __RNvXs9_NtNtNtCsfvfooZQ3Axs_4core4iter8adapters3mapINtB5_3MapINtNtNtCse1nGBsou5OW_5alloc3vec9into_iter8IntoIterTNtNtCs6IAuOt8vWmF_3syn4data7VariantNtNtB1P_5token5CommaEENCINvNtB1P_10punctuated4foldB1L_B2k_NtNvCs3yqPx1X2sxh_15zerofrom_derive25replace_lifetime_and_type20ReplaceLifetimeAndTyNvYB3g_NtNtNtB1P_3gen4fold4Fold12fold_variantE0ENtB7_10SourceIter8as_innerB3k_, symObjAddr: 0x8840, symBinAddr: 0x4D664, symSize: 0x24 }
  - { offset: 0x670EB, size: 0x8, addend: 0x0, symName: __RNvXs9_NtNtNtCsfvfooZQ3Axs_4core4iter8adapters3mapINtB5_3MapINtNtNtCse1nGBsou5OW_5alloc3vec9into_iter8IntoIterTNtNtCs6IAuOt8vWmF_3syn4expr10FieldValueNtNtB1P_5token5CommaEENCINvNtB1P_10punctuated4foldB1L_B2o_NtNvCs3yqPx1X2sxh_15zerofrom_derive16replace_lifetime15ReplaceLifetimeNvYB3k_NtNtNtB1P_3gen4fold4Fold16fold_field_valueE0ENtB7_10SourceIter8as_innerB3o_, symObjAddr: 0x8864, symBinAddr: 0x4D688, symSize: 0x24 }
  - { offset: 0x67129, size: 0x8, addend: 0x0, symName: __RNvXs9_NtNtNtCsfvfooZQ3Axs_4core4iter8adapters3mapINtB5_3MapINtNtNtCse1nGBsou5OW_5alloc3vec9into_iter8IntoIterTNtNtCs6IAuOt8vWmF_3syn4expr10FieldValueNtNtB1P_5token5CommaEENCINvNtB1P_10punctuated4foldB1L_B2o_NtNvCs3yqPx1X2sxh_15zerofrom_derive25replace_lifetime_and_type20ReplaceLifetimeAndTyNvYB3k_NtNtNtB1P_3gen4fold4Fold16fold_field_valueE0ENtB7_10SourceIter8as_innerB3o_, symObjAddr: 0x8888, symBinAddr: 0x4D6AC, symSize: 0x24 }
  - { offset: 0x67167, size: 0x8, addend: 0x0, symName: __RNvXs9_NtNtNtCsfvfooZQ3Axs_4core4iter8adapters3mapINtB5_3MapINtNtNtCse1nGBsou5OW_5alloc3vec9into_iter8IntoIterTNtNtCs6IAuOt8vWmF_3syn4expr4ExprNtNtB1P_5token5CommaEENCINvNtB1P_10punctuated4foldB1L_B2h_NtNvCs3yqPx1X2sxh_15zerofrom_derive16replace_lifetime15ReplaceLifetimeNvYB3d_NtNtNtB1P_3gen4fold4Fold9fold_exprE0ENtB7_10SourceIter8as_innerB3h_, symObjAddr: 0x88AC, symBinAddr: 0x4D6D0, symSize: 0x24 }
  - { offset: 0x671A5, size: 0x8, addend: 0x0, symName: __RNvXs9_NtNtNtCsfvfooZQ3Axs_4core4iter8adapters3mapINtB5_3MapINtNtNtCse1nGBsou5OW_5alloc3vec9into_iter8IntoIterTNtNtCs6IAuOt8vWmF_3syn4expr4ExprNtNtB1P_5token5CommaEENCINvNtB1P_10punctuated4foldB1L_B2h_NtNvCs3yqPx1X2sxh_15zerofrom_derive25replace_lifetime_and_type20ReplaceLifetimeAndTyNvYB3d_NtNtNtB1P_3gen4fold4Fold9fold_exprE0ENtB7_10SourceIter8as_innerB3h_, symObjAddr: 0x88D0, symBinAddr: 0x4D6F4, symSize: 0x24 }
  - { offset: 0x671E3, size: 0x8, addend: 0x0, symName: __RNvXs9_NtNtNtCsfvfooZQ3Axs_4core4iter8adapters3mapINtB5_3MapINtNtNtCse1nGBsou5OW_5alloc3vec9into_iter8IntoIterTNtNtCs6IAuOt8vWmF_3syn4item5FnArgNtNtB1P_5token5CommaEENCINvNtB1P_10punctuated4foldB1L_B2i_NtNvCs3yqPx1X2sxh_15zerofrom_derive16replace_lifetime15ReplaceLifetimeNvYB3e_NtNtNtB1P_3gen4fold4Fold11fold_fn_argE0ENtB7_10SourceIter8as_innerB3i_, symObjAddr: 0x88F4, symBinAddr: 0x4D718, symSize: 0x24 }
  - { offset: 0x67221, size: 0x8, addend: 0x0, symName: __RNvXs9_NtNtNtCsfvfooZQ3Axs_4core4iter8adapters3mapINtB5_3MapINtNtNtCse1nGBsou5OW_5alloc3vec9into_iter8IntoIterTNtNtCs6IAuOt8vWmF_3syn4item5FnArgNtNtB1P_5token5CommaEENCINvNtB1P_10punctuated4foldB1L_B2i_NtNvCs3yqPx1X2sxh_15zerofrom_derive25replace_lifetime_and_type20ReplaceLifetimeAndTyNvYB3e_NtNtNtB1P_3gen4fold4Fold11fold_fn_argE0ENtB7_10SourceIter8as_innerB3i_, symObjAddr: 0x8918, symBinAddr: 0x4D73C, symSize: 0x24 }
  - { offset: 0x6725F, size: 0x8, addend: 0x0, symName: __RNvXs9_NtNtNtCsfvfooZQ3Axs_4core4iter8adapters3mapINtB5_3MapINtNtNtCse1nGBsou5OW_5alloc3vec9into_iter8IntoIterTNtNtCs6IAuOt8vWmF_3syn4item7UseTreeNtNtB1P_5token5CommaEENCINvNtB1P_10punctuated4foldB1L_B2k_NtNvCs3yqPx1X2sxh_15zerofrom_derive16replace_lifetime15ReplaceLifetimeNvYB3g_NtNtNtB1P_3gen4fold4Fold13fold_use_treeE0ENtB7_10SourceIter8as_innerB3k_, symObjAddr: 0x893C, symBinAddr: 0x4D760, symSize: 0x24 }
  - { offset: 0x6729D, size: 0x8, addend: 0x0, symName: __RNvXs9_NtNtNtCsfvfooZQ3Axs_4core4iter8adapters3mapINtB5_3MapINtNtNtCse1nGBsou5OW_5alloc3vec9into_iter8IntoIterTNtNtCs6IAuOt8vWmF_3syn4item7UseTreeNtNtB1P_5token5CommaEENCINvNtB1P_10punctuated4foldB1L_B2k_NtNvCs3yqPx1X2sxh_15zerofrom_derive25replace_lifetime_and_type20ReplaceLifetimeAndTyNvYB3g_NtNtNtB1P_3gen4fold4Fold13fold_use_treeE0ENtB7_10SourceIter8as_innerB3k_, symObjAddr: 0x8960, symBinAddr: 0x4D784, symSize: 0x24 }
  - { offset: 0x672DB, size: 0x8, addend: 0x0, symName: __RNvXs9_NtNtNtCsfvfooZQ3Axs_4core4iter8adapters3mapINtB5_3MapINtNtNtCse1nGBsou5OW_5alloc3vec9into_iter8IntoIterTNtNtCs6IAuOt8vWmF_3syn4path11PathSegmentNtNtB1P_5token7PathSepEENCINvNtB1P_10punctuated4foldB1L_B2p_NtNvCs3yqPx1X2sxh_15zerofrom_derive16replace_lifetime15ReplaceLifetimeNvYB3n_NtNtNtB1P_3gen4fold4Fold17fold_path_segmentE0ENtB7_10SourceIter8as_innerB3r_, symObjAddr: 0x8984, symBinAddr: 0x4D7A8, symSize: 0x24 }
  - { offset: 0x67319, size: 0x8, addend: 0x0, symName: __RNvXs9_NtNtNtCsfvfooZQ3Axs_4core4iter8adapters3mapINtB5_3MapINtNtNtCse1nGBsou5OW_5alloc3vec9into_iter8IntoIterTNtNtCs6IAuOt8vWmF_3syn4path11PathSegmentNtNtB1P_5token7PathSepEENCINvNtB1P_10punctuated4foldB1L_B2p_NtNvCs3yqPx1X2sxh_15zerofrom_derive25replace_lifetime_and_type20ReplaceLifetimeAndTyNvYB3n_NtNtNtB1P_3gen4fold4Fold17fold_path_segmentE0ENtB7_10SourceIter8as_innerB3r_, symObjAddr: 0x89A8, symBinAddr: 0x4D7CC, symSize: 0x24 }
  - { offset: 0x67357, size: 0x8, addend: 0x0, symName: __RNvXs9_NtNtNtCsfvfooZQ3Axs_4core4iter8adapters3mapINtB5_3MapINtNtNtCse1nGBsou5OW_5alloc3vec9into_iter8IntoIterTNtNtCs6IAuOt8vWmF_3syn4path15GenericArgumentNtNtB1P_5token5CommaEENCINvNtB1P_10punctuated4foldB1L_B2t_NtNvCs3yqPx1X2sxh_15zerofrom_derive16replace_lifetime15ReplaceLifetimeNvYB3p_NtNtNtB1P_3gen4fold4Fold21fold_generic_argumentE0ENtB7_10SourceIter8as_innerB3t_, symObjAddr: 0x89CC, symBinAddr: 0x4D7F0, symSize: 0x24 }
  - { offset: 0x67395, size: 0x8, addend: 0x0, symName: __RNvXs9_NtNtNtCsfvfooZQ3Axs_4core4iter8adapters3mapINtB5_3MapINtNtNtCse1nGBsou5OW_5alloc3vec9into_iter8IntoIterTNtNtCs6IAuOt8vWmF_3syn4path15GenericArgumentNtNtB1P_5token5CommaEENCINvNtB1P_10punctuated4foldB1L_B2t_NtNvCs3yqPx1X2sxh_15zerofrom_derive25replace_lifetime_and_type20ReplaceLifetimeAndTyNvYB3p_NtNtNtB1P_3gen4fold4Fold21fold_generic_argumentE0ENtB7_10SourceIter8as_innerB3t_, symObjAddr: 0x89F0, symBinAddr: 0x4D814, symSize: 0x24 }
  - { offset: 0x673D3, size: 0x8, addend: 0x0, symName: __RNvXs9_NtNtNtCsfvfooZQ3Axs_4core4iter8adapters3mapINtB5_3MapINtNtNtCse1nGBsou5OW_5alloc3vec9into_iter8IntoIterTNtNtCs6IAuOt8vWmF_3syn8generics12GenericParamNtNtB1P_5token5CommaEENCINvNtB1P_10punctuated4foldB1L_B2u_NtNvCs3yqPx1X2sxh_15zerofrom_derive16replace_lifetime15ReplaceLifetimeNvYB3q_NtNtNtB1P_3gen4fold4Fold18fold_generic_paramE0ENtB7_10SourceIter8as_innerB3u_, symObjAddr: 0x8A14, symBinAddr: 0x4D838, symSize: 0x24 }
  - { offset: 0x67411, size: 0x8, addend: 0x0, symName: __RNvXs9_NtNtNtCsfvfooZQ3Axs_4core4iter8adapters3mapINtB5_3MapINtNtNtCse1nGBsou5OW_5alloc3vec9into_iter8IntoIterTNtNtCs6IAuOt8vWmF_3syn8generics12GenericParamNtNtB1P_5token5CommaEENCINvNtB1P_10punctuated4foldB1L_B2u_NtNvCs3yqPx1X2sxh_15zerofrom_derive25replace_lifetime_and_type20ReplaceLifetimeAndTyNvYB3q_NtNtNtB1P_3gen4fold4Fold18fold_generic_paramE0ENtB7_10SourceIter8as_innerB3u_, symObjAddr: 0x8A38, symBinAddr: 0x4D85C, symSize: 0x24 }
  - { offset: 0x6744F, size: 0x8, addend: 0x0, symName: __RNvXs9_NtNtNtCsfvfooZQ3Axs_4core4iter8adapters3mapINtB5_3MapINtNtNtCse1nGBsou5OW_5alloc3vec9into_iter8IntoIterTNtNtCs6IAuOt8vWmF_3syn8generics13CapturedParamNtNtB1P_5token5CommaEENCINvNtB1P_10punctuated4foldB1L_B2v_NtNvCs3yqPx1X2sxh_15zerofrom_derive16replace_lifetime15ReplaceLifetimeNvYB3r_NtNtNtB1P_3gen4fold4Fold19fold_captured_paramE0ENtB7_10SourceIter8as_innerB3v_, symObjAddr: 0x8A5C, symBinAddr: 0x4D880, symSize: 0x24 }
  - { offset: 0x6748D, size: 0x8, addend: 0x0, symName: __RNvXs9_NtNtNtCsfvfooZQ3Axs_4core4iter8adapters3mapINtB5_3MapINtNtNtCse1nGBsou5OW_5alloc3vec9into_iter8IntoIterTNtNtCs6IAuOt8vWmF_3syn8generics13CapturedParamNtNtB1P_5token5CommaEENCINvNtB1P_10punctuated4foldB1L_B2v_NtNvCs3yqPx1X2sxh_15zerofrom_derive25replace_lifetime_and_type20ReplaceLifetimeAndTyNvYB3r_NtNtNtB1P_3gen4fold4Fold19fold_captured_paramE0ENtB7_10SourceIter8as_innerB3v_, symObjAddr: 0x8A80, symBinAddr: 0x4D8A4, symSize: 0x24 }
  - { offset: 0x674CB, size: 0x8, addend: 0x0, symName: __RNvXs9_NtNtNtCsfvfooZQ3Axs_4core4iter8adapters3mapINtB5_3MapINtNtNtCse1nGBsou5OW_5alloc3vec9into_iter8IntoIterTNtNtCs6IAuOt8vWmF_3syn8generics14TypeParamBoundNtNtB1P_5token4PlusEENCINvNtB1P_10punctuated4foldB1L_B2w_NtNvCs3yqPx1X2sxh_15zerofrom_derive16replace_lifetime15ReplaceLifetimeNvYB3r_NtNtNtB1P_3gen4fold4Fold21fold_type_param_boundE0ENtB7_10SourceIter8as_innerB3v_, symObjAddr: 0x8AA4, symBinAddr: 0x4D8C8, symSize: 0x24 }
  - { offset: 0x67509, size: 0x8, addend: 0x0, symName: __RNvXs9_NtNtNtCsfvfooZQ3Axs_4core4iter8adapters3mapINtB5_3MapINtNtNtCse1nGBsou5OW_5alloc3vec9into_iter8IntoIterTNtNtCs6IAuOt8vWmF_3syn8generics14TypeParamBoundNtNtB1P_5token4PlusEENCINvNtB1P_10punctuated4foldB1L_B2w_NtNvCs3yqPx1X2sxh_15zerofrom_derive25replace_lifetime_and_type20ReplaceLifetimeAndTyNvYB3r_NtNtNtB1P_3gen4fold4Fold21fold_type_param_boundE0ENtB7_10SourceIter8as_innerB3v_, symObjAddr: 0x8AC8, symBinAddr: 0x4D8EC, symSize: 0x24 }
  - { offset: 0x67547, size: 0x8, addend: 0x0, symName: __RNvXs9_NtNtNtCsfvfooZQ3Axs_4core4iter8adapters3mapINtB5_3MapINtNtNtCse1nGBsou5OW_5alloc3vec9into_iter8IntoIterTNtNtCs6IAuOt8vWmF_3syn8generics14WherePredicateNtNtB1P_5token5CommaEENCINvNtB1P_10punctuated4foldB1L_B2w_NtNvCs3yqPx1X2sxh_15zerofrom_derive16replace_lifetime15ReplaceLifetimeNvYB3s_NtNtNtB1P_3gen4fold4Fold20fold_where_predicateE0ENtB7_10SourceIter8as_innerB3w_, symObjAddr: 0x8AEC, symBinAddr: 0x4D910, symSize: 0x24 }
  - { offset: 0x67585, size: 0x8, addend: 0x0, symName: __RNvXs9_NtNtNtCsfvfooZQ3Axs_4core4iter8adapters3mapINtB5_3MapINtNtNtCse1nGBsou5OW_5alloc3vec9into_iter8IntoIterTNtNtCs6IAuOt8vWmF_3syn8generics14WherePredicateNtNtB1P_5token5CommaEENCINvNtB1P_10punctuated4foldB1L_B2w_NtNvCs3yqPx1X2sxh_15zerofrom_derive25replace_lifetime_and_type20ReplaceLifetimeAndTyNvYB3s_NtNtNtB1P_3gen4fold4Fold20fold_where_predicateE0ENtB7_10SourceIter8as_innerB3w_, symObjAddr: 0x8B10, symBinAddr: 0x4D934, symSize: 0x24 }
  - { offset: 0x675C3, size: 0x8, addend: 0x0, symName: __RNvXs9_NtNtNtCsfvfooZQ3Axs_4core4iter8adapters3mapINtB5_3MapINtNtNtCse1nGBsou5OW_5alloc3vec9into_iter8IntoIterTNtNtCs6IAuOt8vWmF_3syn8lifetime8LifetimeNtNtB1P_5token4PlusEENCINvNtB1P_10punctuated4foldB1L_B2p_NtNvCs3yqPx1X2sxh_15zerofrom_derive16replace_lifetime15ReplaceLifetimeNvYB3k_NtNtNtB1P_3gen4fold4Fold13fold_lifetimeE0ENtB7_10SourceIter8as_innerB3o_, symObjAddr: 0x8B34, symBinAddr: 0x4D958, symSize: 0x24 }
  - { offset: 0x67601, size: 0x8, addend: 0x0, symName: __RNvXs9_NtNtNtCsfvfooZQ3Axs_4core4iter8adapters3mapINtB5_3MapINtNtNtCse1nGBsou5OW_5alloc3vec9into_iter8IntoIterTNtNtCs6IAuOt8vWmF_3syn8lifetime8LifetimeNtNtB1P_5token4PlusEENCINvNtB1P_10punctuated4foldB1L_B2p_NtNvCs3yqPx1X2sxh_15zerofrom_derive25replace_lifetime_and_type20ReplaceLifetimeAndTyNvYB3k_NtNtNtB1P_3gen4fold4Fold13fold_lifetimeE0ENtB7_10SourceIter8as_innerB3o_, symObjAddr: 0x8B58, symBinAddr: 0x4D97C, symSize: 0x24 }
  - { offset: 0x68321, size: 0x8, addend: 0x0, symName: __RINvYINtNtNtNtCsfvfooZQ3Axs_4core4iter8adapters3map3MapINtNtCs6IAuOt8vWmF_3syn10punctuated8IntoIterNtCs3cP53eQoTwO_11proc_macro25IdentENCINvXs8_NtCsloNvcHxBCre_9hashbrown3setINtB2i_7HashSetB1z_NtNtNtCscOYdFFY2T5N_3std4hash6random11RandomStateEINtNtNtBa_6traits7collect6ExtendB1z_E6extendINtBU_10PunctuatedB1z_NtNtBW_5token5CommaEE0ENtNtB3Y_8iterator8Iterator8for_eachNCINvXs1i_NtB2k_3mapINtB63_7HashMapB1z_uB35_EIB3U_TB1z_uEE6extendB3_E0ECs3yqPx1X2sxh_15zerofrom_derive, symObjAddr: 0x1080, symBinAddr: 0x45EA4, symSize: 0x24 }
  - { offset: 0x6836D, size: 0x8, addend: 0x0, symName: __RINvYINtNtNtNtCsfvfooZQ3Axs_4core4iter8adapters3map3MapINtNtNtBc_5slice4iter4IterNtCs3cP53eQoTwO_11proc_macro25IdentENCNvCs3yqPx1X2sxh_15zerofrom_derive14zf_derive_impls4_0ENtNtNtBa_6traits8iterator8Iterator7collectINtNtCse1nGBsou5OW_5alloc3vec3VecNtNtCs6IAuOt8vWmF_3syn8generics14WherePredicateEEB1V_, symObjAddr: 0x10A4, symBinAddr: 0x45EC8, symSize: 0x1C }
  - { offset: 0x683AE, size: 0x8, addend: 0x0, symName: __RINvYINtNtNtNtCsfvfooZQ3Axs_4core4iter8adapters3map3MapINtNtNtBc_5slice4iter4IterNtCs3cP53eQoTwO_11proc_macro25IdentENCNvCs3yqPx1X2sxh_15zerofrom_derive14zf_derive_impls4_0ENtNtNtBa_6traits8iterator8Iterator8for_eachNCINvMsi_NtCse1nGBsou5OW_5alloc3vecINtB3B_3VecNtNtCs6IAuOt8vWmF_3syn8generics14WherePredicateE14extend_trustedB3_E0EB1V_, symObjAddr: 0x10C0, symBinAddr: 0x45EE4, symSize: 0x34 }
  - { offset: 0x6841A, size: 0x8, addend: 0x0, symName: __RINvYINtNtNtNtCsfvfooZQ3Axs_4core4iter8adapters3map3MapINtNtNtBc_5slice4iter4IterNtNtCs6IAuOt8vWmF_3syn8generics9TypeParamENCNvCs3yqPx1X2sxh_15zerofrom_derive14zf_derive_impls_0ENtNtNtBa_6traits8iterator8Iterator7collectINtNtCse1nGBsou5OW_5alloc3vec3VecNtCs3cP53eQoTwO_11proc_macro25IdentEEB21_, symObjAddr: 0x10F4, symBinAddr: 0x45F18, symSize: 0x34 }
  - { offset: 0x6845A, size: 0x8, addend: 0x0, symName: __RINvYINtNtNtNtCsfvfooZQ3Axs_4core4iter8adapters3map3MapINtNtNtBc_5slice4iter4IterNtNtCs6IAuOt8vWmF_3syn8generics9TypeParamENCNvCs3yqPx1X2sxh_15zerofrom_derive14zf_derive_impls_0ENtNtNtBa_6traits8iterator8Iterator8for_eachNCINvMsi_NtCse1nGBsou5OW_5alloc3vecINtB3G_3VecNtCs3cP53eQoTwO_11proc_macro25IdentE14extend_trustedB3_E0EB21_, symObjAddr: 0x1128, symBinAddr: 0x45F4C, symSize: 0x44 }
  - { offset: 0x684C5, size: 0x8, addend: 0x0, symName: __RINvYINtNtNtNtCsfvfooZQ3Axs_4core4iter8adapters3map3MapINtNtNtBc_5slice4iter7IterMutNtNtCs6IAuOt8vWmF_3syn8generics9TypeParamENCNvCs3yqPx1X2sxh_15zerofrom_derive14zf_derive_impls0_0ENtNtNtBa_6traits8iterator8Iterator7collectINtNtNtNtCscOYdFFY2T5N_3std11collections4hash3map7HashMapNtCs3cP53eQoTwO_11proc_macro25IdentINtNtBc_6option6OptionB4v_EEEB24_, symObjAddr: 0x116C, symBinAddr: 0x45F90, symSize: 0x14 }
  - { offset: 0x68506, size: 0x8, addend: 0x0, symName: __RINvYINtNtNtNtCsfvfooZQ3Axs_4core4iter8adapters3map3MapINtNtNtBc_5slice4iter7IterMutNtNtCs6IAuOt8vWmF_3syn8generics9TypeParamENCNvCs3yqPx1X2sxh_15zerofrom_derive14zf_derive_impls0_0ENtNtNtBa_6traits8iterator8Iterator8for_eachNCINvXs1i_NtCsloNvcHxBCre_9hashbrown3mapINtB3L_7HashMapNtCs3cP53eQoTwO_11proc_macro25IdentINtNtBc_6option6OptionB4u_ENtNtNtCscOYdFFY2T5N_3std4hash6random11RandomStateEINtNtB2Y_7collect6ExtendTB4u_B53_EE6extendB3_E0EB24_, symObjAddr: 0x1180, symBinAddr: 0x45FA4, symSize: 0x24 }
  - { offset: 0x68552, size: 0x8, addend: 0x0, symName: __RINvYINtNtNtNtCsfvfooZQ3Axs_4core4iter8adapters3map3MapINtNtNtCse1nGBsou5OW_5alloc3vec9into_iter8IntoIterNtNtCs6IAuOt8vWmF_3syn4attr9AttributeENCINvNtNtB1J_3gen4fold8fold_vecB1F_NtNvCs3yqPx1X2sxh_15zerofrom_derive16replace_lifetime15ReplaceLifetimeNvYB2Q_NtB2m_4Fold14fold_attributeE0ENtNtNtBa_6traits8iterator8Iterator7collectINtBW_3VecB1F_EEB2U_, symObjAddr: 0x11A4, symBinAddr: 0x45FC8, symSize: 0x1C }
  - { offset: 0x68593, size: 0x8, addend: 0x0, symName: __RINvYINtNtNtNtCsfvfooZQ3Axs_4core4iter8adapters3map3MapINtNtNtCse1nGBsou5OW_5alloc3vec9into_iter8IntoIterNtNtCs6IAuOt8vWmF_3syn4attr9AttributeENCINvNtNtB1J_3gen4fold8fold_vecB1F_NtNvCs3yqPx1X2sxh_15zerofrom_derive25replace_lifetime_and_type20ReplaceLifetimeAndTyNvYB2Q_NtB2m_4Fold14fold_attributeE0ENtNtNtBa_6traits8iterator8Iterator7collectINtBW_3VecB1F_EEB2U_, symObjAddr: 0x11C0, symBinAddr: 0x45FE4, symSize: 0x1C }
  - { offset: 0x685D4, size: 0x8, addend: 0x0, symName: __RINvYINtNtNtNtCsfvfooZQ3Axs_4core4iter8adapters3map3MapINtNtNtCse1nGBsou5OW_5alloc3vec9into_iter8IntoIterNtNtCs6IAuOt8vWmF_3syn4expr3ArmENCINvNtNtB1J_3gen4fold8fold_vecB1F_NtNvCs3yqPx1X2sxh_15zerofrom_derive16replace_lifetime15ReplaceLifetimeNvYB2K_NtB2g_4Fold8fold_armE0ENtNtNtBa_6traits8iterator8Iterator7collectINtBW_3VecB1F_EEB2O_, symObjAddr: 0x11DC, symBinAddr: 0x46000, symSize: 0x1C }
  - { offset: 0x68615, size: 0x8, addend: 0x0, symName: __RINvYINtNtNtNtCsfvfooZQ3Axs_4core4iter8adapters3map3MapINtNtNtCse1nGBsou5OW_5alloc3vec9into_iter8IntoIterNtNtCs6IAuOt8vWmF_3syn4expr3ArmENCINvNtNtB1J_3gen4fold8fold_vecB1F_NtNvCs3yqPx1X2sxh_15zerofrom_derive25replace_lifetime_and_type20ReplaceLifetimeAndTyNvYB2K_NtB2g_4Fold8fold_armE0ENtNtNtBa_6traits8iterator8Iterator7collectINtBW_3VecB1F_EEB2O_, symObjAddr: 0x11F8, symBinAddr: 0x4601C, symSize: 0x1C }
  - { offset: 0x68656, size: 0x8, addend: 0x0, symName: __RINvYINtNtNtNtCsfvfooZQ3Axs_4core4iter8adapters3map3MapINtNtNtCse1nGBsou5OW_5alloc3vec9into_iter8IntoIterNtNtCs6IAuOt8vWmF_3syn4item11ForeignItemENCINvNtNtB1J_3gen4fold8fold_vecB1F_NtNvCs3yqPx1X2sxh_15zerofrom_derive16replace_lifetime15ReplaceLifetimeNvYB2T_NtB2p_4Fold17fold_foreign_itemE0ENtNtNtBa_6traits8iterator8Iterator7collectINtBW_3VecB1F_EEB2X_, symObjAddr: 0x1214, symBinAddr: 0x46038, symSize: 0x1C }
  - { offset: 0x68697, size: 0x8, addend: 0x0, symName: __RINvYINtNtNtNtCsfvfooZQ3Axs_4core4iter8adapters3map3MapINtNtNtCse1nGBsou5OW_5alloc3vec9into_iter8IntoIterNtNtCs6IAuOt8vWmF_3syn4item11ForeignItemENCINvNtNtB1J_3gen4fold8fold_vecB1F_NtNvCs3yqPx1X2sxh_15zerofrom_derive25replace_lifetime_and_type20ReplaceLifetimeAndTyNvYB2T_NtB2p_4Fold17fold_foreign_itemE0ENtNtNtBa_6traits8iterator8Iterator7collectINtBW_3VecB1F_EEB2X_, symObjAddr: 0x1230, symBinAddr: 0x46054, symSize: 0x1C }
  - { offset: 0x686D8, size: 0x8, addend: 0x0, symName: __RINvYINtNtNtNtCsfvfooZQ3Axs_4core4iter8adapters3map3MapINtNtNtCse1nGBsou5OW_5alloc3vec9into_iter8IntoIterNtNtCs6IAuOt8vWmF_3syn4item4ItemENCINvNtNtB1J_3gen4fold8fold_vecB1F_NtNvCs3yqPx1X2sxh_15zerofrom_derive16replace_lifetime15ReplaceLifetimeNvYB2L_NtB2h_4Fold9fold_itemE0ENtNtNtBa_6traits8iterator8Iterator7collectINtBW_3VecB1F_EEB2P_, symObjAddr: 0x124C, symBinAddr: 0x46070, symSize: 0x1C }
  - { offset: 0x68719, size: 0x8, addend: 0x0, symName: __RINvYINtNtNtNtCsfvfooZQ3Axs_4core4iter8adapters3map3MapINtNtNtCse1nGBsou5OW_5alloc3vec9into_iter8IntoIterNtNtCs6IAuOt8vWmF_3syn4item4ItemENCINvNtNtB1J_3gen4fold8fold_vecB1F_NtNvCs3yqPx1X2sxh_15zerofrom_derive25replace_lifetime_and_type20ReplaceLifetimeAndTyNvYB2L_NtB2h_4Fold9fold_itemE0ENtNtNtBa_6traits8iterator8Iterator7collectINtBW_3VecB1F_EEB2P_, symObjAddr: 0x1268, symBinAddr: 0x4608C, symSize: 0x1C }
  - { offset: 0x6875A, size: 0x8, addend: 0x0, symName: __RINvYINtNtNtNtCsfvfooZQ3Axs_4core4iter8adapters3map3MapINtNtNtCse1nGBsou5OW_5alloc3vec9into_iter8IntoIterNtNtCs6IAuOt8vWmF_3syn4item8ImplItemENCINvNtNtB1J_3gen4fold8fold_vecB1F_NtNvCs3yqPx1X2sxh_15zerofrom_derive16replace_lifetime15ReplaceLifetimeNvYB2P_NtB2l_4Fold14fold_impl_itemE0ENtNtNtBa_6traits8iterator8Iterator7collectINtBW_3VecB1F_EEB2T_, symObjAddr: 0x1284, symBinAddr: 0x460A8, symSize: 0x1C }
  - { offset: 0x6879B, size: 0x8, addend: 0x0, symName: __RINvYINtNtNtNtCsfvfooZQ3Axs_4core4iter8adapters3map3MapINtNtNtCse1nGBsou5OW_5alloc3vec9into_iter8IntoIterNtNtCs6IAuOt8vWmF_3syn4item8ImplItemENCINvNtNtB1J_3gen4fold8fold_vecB1F_NtNvCs3yqPx1X2sxh_15zerofrom_derive25replace_lifetime_and_type20ReplaceLifetimeAndTyNvYB2P_NtB2l_4Fold14fold_impl_itemE0ENtNtNtBa_6traits8iterator8Iterator7collectINtBW_3VecB1F_EEB2T_, symObjAddr: 0x12A0, symBinAddr: 0x460C4, symSize: 0x1C }
  - { offset: 0x687DC, size: 0x8, addend: 0x0, symName: __RINvYINtNtNtNtCsfvfooZQ3Axs_4core4iter8adapters3map3MapINtNtNtCse1nGBsou5OW_5alloc3vec9into_iter8IntoIterNtNtCs6IAuOt8vWmF_3syn4item9TraitItemENCINvNtNtB1J_3gen4fold8fold_vecB1F_NtNvCs3yqPx1X2sxh_15zerofrom_derive16replace_lifetime15ReplaceLifetimeNvYB2Q_NtB2m_4Fold15fold_trait_itemE0ENtNtNtBa_6traits8iterator8Iterator7collectINtBW_3VecB1F_EEB2U_, symObjAddr: 0x12BC, symBinAddr: 0x460E0, symSize: 0x1C }
  - { offset: 0x6881D, size: 0x8, addend: 0x0, symName: __RINvYINtNtNtNtCsfvfooZQ3Axs_4core4iter8adapters3map3MapINtNtNtCse1nGBsou5OW_5alloc3vec9into_iter8IntoIterNtNtCs6IAuOt8vWmF_3syn4item9TraitItemENCINvNtNtB1J_3gen4fold8fold_vecB1F_NtNvCs3yqPx1X2sxh_15zerofrom_derive25replace_lifetime_and_type20ReplaceLifetimeAndTyNvYB2Q_NtB2m_4Fold15fold_trait_itemE0ENtNtNtBa_6traits8iterator8Iterator7collectINtBW_3VecB1F_EEB2U_, symObjAddr: 0x12D8, symBinAddr: 0x460FC, symSize: 0x1C }
  - { offset: 0x6885E, size: 0x8, addend: 0x0, symName: __RINvYINtNtNtNtCsfvfooZQ3Axs_4core4iter8adapters3map3MapINtNtNtCse1nGBsou5OW_5alloc3vec9into_iter8IntoIterNtNtCs6IAuOt8vWmF_3syn4stmt4StmtENCINvNtNtB1J_3gen4fold8fold_vecB1F_NtNvCs3yqPx1X2sxh_15zerofrom_derive16replace_lifetime15ReplaceLifetimeNvYB2L_NtB2h_4Fold9fold_stmtE0ENtNtNtBa_6traits8iterator8Iterator7collectINtBW_3VecB1F_EEB2P_, symObjAddr: 0x12F4, symBinAddr: 0x46118, symSize: 0x1C }
  - { offset: 0x6889F, size: 0x8, addend: 0x0, symName: __RINvYINtNtNtNtCsfvfooZQ3Axs_4core4iter8adapters3map3MapINtNtNtCse1nGBsou5OW_5alloc3vec9into_iter8IntoIterNtNtCs6IAuOt8vWmF_3syn4stmt4StmtENCINvNtNtB1J_3gen4fold8fold_vecB1F_NtNvCs3yqPx1X2sxh_15zerofrom_derive25replace_lifetime_and_type20ReplaceLifetimeAndTyNvYB2L_NtB2h_4Fold9fold_stmtE0ENtNtNtBa_6traits8iterator8Iterator7collectINtBW_3VecB1F_EEB2P_, symObjAddr: 0x1310, symBinAddr: 0x46134, symSize: 0x1C }
  - { offset: 0x688E0, size: 0x8, addend: 0x0, symName: __RINvYINtNtNtNtCsfvfooZQ3Axs_4core4iter8adapters3map3MapINtNtNtCse1nGBsou5OW_5alloc3vec9into_iter8IntoIterTNtCs3cP53eQoTwO_11proc_macro25IdentNtNtCs6IAuOt8vWmF_3syn5token5CommaEENCNvXs8_NtB2j_10punctuatedINtB2X_10PunctuatedB1G_B2f_ENtNtNtBa_6traits7collect12IntoIterator9into_iter0ENtNtB3L_8iterator8Iterator8for_eachNCINvMsi_BW_INtBW_3VecB1G_E14extend_trustedB3_E0ECs3yqPx1X2sxh_15zerofrom_derive, symObjAddr: 0x132C, symBinAddr: 0x46150, symSize: 0x34 }
  - { offset: 0x6894C, size: 0x8, addend: 0x0, symName: __RINvYINtNtNtNtCsfvfooZQ3Axs_4core4iter8adapters3map3MapINtNtNtCse1nGBsou5OW_5alloc3vec9into_iter8IntoIterTNtNtCs6IAuOt8vWmF_3syn2ty4TypeNtNtB1K_5token5CommaEENCINvNtB1K_10punctuated4foldB1G_B2a_NtNvCs3yqPx1X2sxh_15zerofrom_derive16replace_lifetime15ReplaceLifetimeNvYB36_NtNtNtB1K_3gen4fold4Fold9fold_typeE0ENtNtNtBa_6traits8iterator8Iterator7collectINtBW_3VecB1F_EEB3a_, symObjAddr: 0x1360, symBinAddr: 0x46184, symSize: 0x1C }
  - { offset: 0x6898D, size: 0x8, addend: 0x0, symName: __RINvYINtNtNtNtCsfvfooZQ3Axs_4core4iter8adapters3map3MapINtNtNtCse1nGBsou5OW_5alloc3vec9into_iter8IntoIterTNtNtCs6IAuOt8vWmF_3syn2ty4TypeNtNtB1K_5token5CommaEENCINvNtB1K_10punctuated4foldB1G_B2a_NtNvCs3yqPx1X2sxh_15zerofrom_derive25replace_lifetime_and_type20ReplaceLifetimeAndTyNvYB36_NtNtNtB1K_3gen4fold4Fold9fold_typeE0ENtNtNtBa_6traits8iterator8Iterator7collectINtBW_3VecB1F_EEB3a_, symObjAddr: 0x137C, symBinAddr: 0x461A0, symSize: 0x1C }
  - { offset: 0x689CE, size: 0x8, addend: 0x0, symName: __RINvYINtNtNtNtCsfvfooZQ3Axs_4core4iter8adapters3map3MapINtNtNtCse1nGBsou5OW_5alloc3vec9into_iter8IntoIterTNtNtCs6IAuOt8vWmF_3syn2ty9BareFnArgNtNtB1K_5token5CommaEENCINvNtB1K_10punctuated4foldB1G_B2f_NtNvCs3yqPx1X2sxh_15zerofrom_derive16replace_lifetime15ReplaceLifetimeNvYB3b_NtNtNtB1K_3gen4fold4Fold16fold_bare_fn_argE0ENtNtNtBa_6traits8iterator8Iterator7collectINtBW_3VecB1F_EEB3f_, symObjAddr: 0x1398, symBinAddr: 0x461BC, symSize: 0x1C }
  - { offset: 0x68A0F, size: 0x8, addend: 0x0, symName: __RINvYINtNtNtNtCsfvfooZQ3Axs_4core4iter8adapters3map3MapINtNtNtCse1nGBsou5OW_5alloc3vec9into_iter8IntoIterTNtNtCs6IAuOt8vWmF_3syn2ty9BareFnArgNtNtB1K_5token5CommaEENCINvNtB1K_10punctuated4foldB1G_B2f_NtNvCs3yqPx1X2sxh_15zerofrom_derive25replace_lifetime_and_type20ReplaceLifetimeAndTyNvYB3b_NtNtNtB1K_3gen4fold4Fold16fold_bare_fn_argE0ENtNtNtBa_6traits8iterator8Iterator7collectINtBW_3VecB1F_EEB3f_, symObjAddr: 0x13B4, symBinAddr: 0x461D8, symSize: 0x1C }
  - { offset: 0x68A50, size: 0x8, addend: 0x0, symName: __RINvYINtNtNtNtCsfvfooZQ3Axs_4core4iter8adapters3map3MapINtNtNtCse1nGBsou5OW_5alloc3vec9into_iter8IntoIterTNtNtCs6IAuOt8vWmF_3syn3pat3PatNtNtB1K_5token2OrEENCINvNtB1K_10punctuated4foldB1G_B2a_NtNvCs3yqPx1X2sxh_15zerofrom_derive16replace_lifetime15ReplaceLifetimeNvYB33_NtNtNtB1K_3gen4fold4Fold8fold_patE0ENtNtNtBa_6traits8iterator8Iterator7collectINtBW_3VecB1F_EEB37_, symObjAddr: 0x13D0, symBinAddr: 0x461F4, symSize: 0x1C }
  - { offset: 0x68A91, size: 0x8, addend: 0x0, symName: __RINvYINtNtNtNtCsfvfooZQ3Axs_4core4iter8adapters3map3MapINtNtNtCse1nGBsou5OW_5alloc3vec9into_iter8IntoIterTNtNtCs6IAuOt8vWmF_3syn3pat3PatNtNtB1K_5token2OrEENCINvNtB1K_10punctuated4foldB1G_B2a_NtNvCs3yqPx1X2sxh_15zerofrom_derive25replace_lifetime_and_type20ReplaceLifetimeAndTyNvYB33_NtNtNtB1K_3gen4fold4Fold8fold_patE0ENtNtNtBa_6traits8iterator8Iterator7collectINtBW_3VecB1F_EEB37_, symObjAddr: 0x13EC, symBinAddr: 0x46210, symSize: 0x1C }
  - { offset: 0x68AD2, size: 0x8, addend: 0x0, symName: __RINvYINtNtNtNtCsfvfooZQ3Axs_4core4iter8adapters3map3MapINtNtNtCse1nGBsou5OW_5alloc3vec9into_iter8IntoIterTNtNtCs6IAuOt8vWmF_3syn3pat3PatNtNtB1K_5token5CommaEENCINvNtB1K_10punctuated4foldB1G_B2a_NtNvCs3yqPx1X2sxh_15zerofrom_derive16replace_lifetime15ReplaceLifetimeNvYB36_NtNtNtB1K_3gen4fold4Fold8fold_patE0ENtNtNtBa_6traits8iterator8Iterator7collectINtBW_3VecB1F_EEB3a_, symObjAddr: 0x1408, symBinAddr: 0x4622C, symSize: 0x1C }
  - { offset: 0x68B13, size: 0x8, addend: 0x0, symName: __RINvYINtNtNtNtCsfvfooZQ3Axs_4core4iter8adapters3map3MapINtNtNtCse1nGBsou5OW_5alloc3vec9into_iter8IntoIterTNtNtCs6IAuOt8vWmF_3syn3pat3PatNtNtB1K_5token5CommaEENCINvNtB1K_10punctuated4foldB1G_B2a_NtNvCs3yqPx1X2sxh_15zerofrom_derive25replace_lifetime_and_type20ReplaceLifetimeAndTyNvYB36_NtNtNtB1K_3gen4fold4Fold8fold_patE0ENtNtNtBa_6traits8iterator8Iterator7collectINtBW_3VecB1F_EEB3a_, symObjAddr: 0x1424, symBinAddr: 0x46248, symSize: 0x1C }
  - { offset: 0x68B54, size: 0x8, addend: 0x0, symName: __RINvYINtNtNtNtCsfvfooZQ3Axs_4core4iter8adapters3map3MapINtNtNtCse1nGBsou5OW_5alloc3vec9into_iter8IntoIterTNtNtCs6IAuOt8vWmF_3syn3pat8FieldPatNtNtB1K_5token5CommaEENCINvNtB1K_10punctuated4foldB1G_B2f_NtNvCs3yqPx1X2sxh_15zerofrom_derive16replace_lifetime15ReplaceLifetimeNvYB3b_NtNtNtB1K_3gen4fold4Fold14fold_field_patE0ENtNtNtBa_6traits8iterator8Iterator7collectINtBW_3VecB1F_EEB3f_, symObjAddr: 0x1440, symBinAddr: 0x46264, symSize: 0x1C }
  - { offset: 0x68B95, size: 0x8, addend: 0x0, symName: __RINvYINtNtNtNtCsfvfooZQ3Axs_4core4iter8adapters3map3MapINtNtNtCse1nGBsou5OW_5alloc3vec9into_iter8IntoIterTNtNtCs6IAuOt8vWmF_3syn3pat8FieldPatNtNtB1K_5token5CommaEENCINvNtB1K_10punctuated4foldB1G_B2f_NtNvCs3yqPx1X2sxh_15zerofrom_derive25replace_lifetime_and_type20ReplaceLifetimeAndTyNvYB3b_NtNtNtB1K_3gen4fold4Fold14fold_field_patE0ENtNtNtBa_6traits8iterator8Iterator7collectINtBW_3VecB1F_EEB3f_, symObjAddr: 0x145C, symBinAddr: 0x46280, symSize: 0x1C }
  - { offset: 0x68BD6, size: 0x8, addend: 0x0, symName: __RINvYINtNtNtNtCsfvfooZQ3Axs_4core4iter8adapters3map3MapINtNtNtCse1nGBsou5OW_5alloc3vec9into_iter8IntoIterTNtNtCs6IAuOt8vWmF_3syn4data5FieldNtNtB1K_5token5CommaEENCINvNtB1K_10punctuated4foldB1G_B2d_NtNvCs3yqPx1X2sxh_15zerofrom_derive16replace_lifetime15ReplaceLifetimeNvYB39_NtNtNtB1K_3gen4fold4Fold10fold_fieldE0ENtNtNtBa_6traits8iterator8Iterator7collectINtBW_3VecB1F_EEB3d_, symObjAddr: 0x1478, symBinAddr: 0x4629C, symSize: 0x1C }
  - { offset: 0x68C17, size: 0x8, addend: 0x0, symName: __RINvYINtNtNtNtCsfvfooZQ3Axs_4core4iter8adapters3map3MapINtNtNtCse1nGBsou5OW_5alloc3vec9into_iter8IntoIterTNtNtCs6IAuOt8vWmF_3syn4data5FieldNtNtB1K_5token5CommaEENCINvNtB1K_10punctuated4foldB1G_B2d_NtNvCs3yqPx1X2sxh_15zerofrom_derive25replace_lifetime_and_type20ReplaceLifetimeAndTyNvYB39_NtNtNtB1K_3gen4fold4Fold10fold_fieldE0ENtNtNtBa_6traits8iterator8Iterator7collectINtBW_3VecB1F_EEB3d_, symObjAddr: 0x1494, symBinAddr: 0x462B8, symSize: 0x1C }
  - { offset: 0x68C58, size: 0x8, addend: 0x0, symName: __RINvYINtNtNtNtCsfvfooZQ3Axs_4core4iter8adapters3map3MapINtNtNtCse1nGBsou5OW_5alloc3vec9into_iter8IntoIterTNtNtCs6IAuOt8vWmF_3syn4data7VariantNtNtB1K_5token5CommaEENCINvNtB1K_10punctuated4foldB1G_B2f_NtNvCs3yqPx1X2sxh_15zerofrom_derive16replace_lifetime15ReplaceLifetimeNvYB3b_NtNtNtB1K_3gen4fold4Fold12fold_variantE0ENtNtNtBa_6traits8iterator8Iterator7collectINtBW_3VecB1F_EEB3f_, symObjAddr: 0x14B0, symBinAddr: 0x462D4, symSize: 0x1C }
  - { offset: 0x68C99, size: 0x8, addend: 0x0, symName: __RINvYINtNtNtNtCsfvfooZQ3Axs_4core4iter8adapters3map3MapINtNtNtCse1nGBsou5OW_5alloc3vec9into_iter8IntoIterTNtNtCs6IAuOt8vWmF_3syn4data7VariantNtNtB1K_5token5CommaEENCINvNtB1K_10punctuated4foldB1G_B2f_NtNvCs3yqPx1X2sxh_15zerofrom_derive25replace_lifetime_and_type20ReplaceLifetimeAndTyNvYB3b_NtNtNtB1K_3gen4fold4Fold12fold_variantE0ENtNtNtBa_6traits8iterator8Iterator7collectINtBW_3VecB1F_EEB3f_, symObjAddr: 0x14CC, symBinAddr: 0x462F0, symSize: 0x1C }
  - { offset: 0x68CDA, size: 0x8, addend: 0x0, symName: __RINvYINtNtNtNtCsfvfooZQ3Axs_4core4iter8adapters3map3MapINtNtNtCse1nGBsou5OW_5alloc3vec9into_iter8IntoIterTNtNtCs6IAuOt8vWmF_3syn4expr10FieldValueNtNtB1K_5token5CommaEENCINvNtB1K_10punctuated4foldB1G_B2j_NtNvCs3yqPx1X2sxh_15zerofrom_derive16replace_lifetime15ReplaceLifetimeNvYB3f_NtNtNtB1K_3gen4fold4Fold16fold_field_valueE0ENtNtNtBa_6traits8iterator8Iterator7collectINtBW_3VecB1F_EEB3j_, symObjAddr: 0x14E8, symBinAddr: 0x4630C, symSize: 0x1C }
  - { offset: 0x68D1B, size: 0x8, addend: 0x0, symName: __RINvYINtNtNtNtCsfvfooZQ3Axs_4core4iter8adapters3map3MapINtNtNtCse1nGBsou5OW_5alloc3vec9into_iter8IntoIterTNtNtCs6IAuOt8vWmF_3syn4expr10FieldValueNtNtB1K_5token5CommaEENCINvNtB1K_10punctuated4foldB1G_B2j_NtNvCs3yqPx1X2sxh_15zerofrom_derive25replace_lifetime_and_type20ReplaceLifetimeAndTyNvYB3f_NtNtNtB1K_3gen4fold4Fold16fold_field_valueE0ENtNtNtBa_6traits8iterator8Iterator7collectINtBW_3VecB1F_EEB3j_, symObjAddr: 0x1504, symBinAddr: 0x46328, symSize: 0x1C }
  - { offset: 0x68D5C, size: 0x8, addend: 0x0, symName: __RINvYINtNtNtNtCsfvfooZQ3Axs_4core4iter8adapters3map3MapINtNtNtCse1nGBsou5OW_5alloc3vec9into_iter8IntoIterTNtNtCs6IAuOt8vWmF_3syn4expr4ExprNtNtB1K_5token5CommaEENCINvNtB1K_10punctuated4foldB1G_B2c_NtNvCs3yqPx1X2sxh_15zerofrom_derive16replace_lifetime15ReplaceLifetimeNvYB38_NtNtNtB1K_3gen4fold4Fold9fold_exprE0ENtNtNtBa_6traits8iterator8Iterator7collectINtBW_3VecB1F_EEB3c_, symObjAddr: 0x1520, symBinAddr: 0x46344, symSize: 0x1C }
  - { offset: 0x68D9D, size: 0x8, addend: 0x0, symName: __RINvYINtNtNtNtCsfvfooZQ3Axs_4core4iter8adapters3map3MapINtNtNtCse1nGBsou5OW_5alloc3vec9into_iter8IntoIterTNtNtCs6IAuOt8vWmF_3syn4expr4ExprNtNtB1K_5token5CommaEENCINvNtB1K_10punctuated4foldB1G_B2c_NtNvCs3yqPx1X2sxh_15zerofrom_derive25replace_lifetime_and_type20ReplaceLifetimeAndTyNvYB38_NtNtNtB1K_3gen4fold4Fold9fold_exprE0ENtNtNtBa_6traits8iterator8Iterator7collectINtBW_3VecB1F_EEB3c_, symObjAddr: 0x153C, symBinAddr: 0x46360, symSize: 0x1C }
  - { offset: 0x68DDE, size: 0x8, addend: 0x0, symName: __RINvYINtNtNtNtCsfvfooZQ3Axs_4core4iter8adapters3map3MapINtNtNtCse1nGBsou5OW_5alloc3vec9into_iter8IntoIterTNtNtCs6IAuOt8vWmF_3syn4item5FnArgNtNtB1K_5token5CommaEENCINvNtB1K_10punctuated4foldB1G_B2d_NtNvCs3yqPx1X2sxh_15zerofrom_derive16replace_lifetime15ReplaceLifetimeNvYB39_NtNtNtB1K_3gen4fold4Fold11fold_fn_argE0ENtNtNtBa_6traits8iterator8Iterator7collectINtBW_3VecB1F_EEB3d_, symObjAddr: 0x1558, symBinAddr: 0x4637C, symSize: 0x1C }
  - { offset: 0x68E1F, size: 0x8, addend: 0x0, symName: __RINvYINtNtNtNtCsfvfooZQ3Axs_4core4iter8adapters3map3MapINtNtNtCse1nGBsou5OW_5alloc3vec9into_iter8IntoIterTNtNtCs6IAuOt8vWmF_3syn4item5FnArgNtNtB1K_5token5CommaEENCINvNtB1K_10punctuated4foldB1G_B2d_NtNvCs3yqPx1X2sxh_15zerofrom_derive25replace_lifetime_and_type20ReplaceLifetimeAndTyNvYB39_NtNtNtB1K_3gen4fold4Fold11fold_fn_argE0ENtNtNtBa_6traits8iterator8Iterator7collectINtBW_3VecB1F_EEB3d_, symObjAddr: 0x1574, symBinAddr: 0x46398, symSize: 0x1C }
  - { offset: 0x68E60, size: 0x8, addend: 0x0, symName: __RINvYINtNtNtNtCsfvfooZQ3Axs_4core4iter8adapters3map3MapINtNtNtCse1nGBsou5OW_5alloc3vec9into_iter8IntoIterTNtNtCs6IAuOt8vWmF_3syn4item7UseTreeNtNtB1K_5token5CommaEENCINvNtB1K_10punctuated4foldB1G_B2f_NtNvCs3yqPx1X2sxh_15zerofrom_derive16replace_lifetime15ReplaceLifetimeNvYB3b_NtNtNtB1K_3gen4fold4Fold13fold_use_treeE0ENtNtNtBa_6traits8iterator8Iterator7collectINtBW_3VecB1F_EEB3f_, symObjAddr: 0x1590, symBinAddr: 0x463B4, symSize: 0x1C }
  - { offset: 0x68EA1, size: 0x8, addend: 0x0, symName: __RINvYINtNtNtNtCsfvfooZQ3Axs_4core4iter8adapters3map3MapINtNtNtCse1nGBsou5OW_5alloc3vec9into_iter8IntoIterTNtNtCs6IAuOt8vWmF_3syn4item7UseTreeNtNtB1K_5token5CommaEENCINvNtB1K_10punctuated4foldB1G_B2f_NtNvCs3yqPx1X2sxh_15zerofrom_derive25replace_lifetime_and_type20ReplaceLifetimeAndTyNvYB3b_NtNtNtB1K_3gen4fold4Fold13fold_use_treeE0ENtNtNtBa_6traits8iterator8Iterator7collectINtBW_3VecB1F_EEB3f_, symObjAddr: 0x15AC, symBinAddr: 0x463D0, symSize: 0x1C }
  - { offset: 0x68EE2, size: 0x8, addend: 0x0, symName: __RINvYINtNtNtNtCsfvfooZQ3Axs_4core4iter8adapters3map3MapINtNtNtCse1nGBsou5OW_5alloc3vec9into_iter8IntoIterTNtNtCs6IAuOt8vWmF_3syn4path11PathSegmentNtNtB1K_5token7PathSepEENCINvNtB1K_10punctuated4foldB1G_B2k_NtNvCs3yqPx1X2sxh_15zerofrom_derive16replace_lifetime15ReplaceLifetimeNvYB3i_NtNtNtB1K_3gen4fold4Fold17fold_path_segmentE0ENtNtNtBa_6traits8iterator8Iterator7collectINtBW_3VecB1F_EEB3m_, symObjAddr: 0x15C8, symBinAddr: 0x463EC, symSize: 0x1C }
  - { offset: 0x68F23, size: 0x8, addend: 0x0, symName: __RINvYINtNtNtNtCsfvfooZQ3Axs_4core4iter8adapters3map3MapINtNtNtCse1nGBsou5OW_5alloc3vec9into_iter8IntoIterTNtNtCs6IAuOt8vWmF_3syn4path11PathSegmentNtNtB1K_5token7PathSepEENCINvNtB1K_10punctuated4foldB1G_B2k_NtNvCs3yqPx1X2sxh_15zerofrom_derive25replace_lifetime_and_type20ReplaceLifetimeAndTyNvYB3i_NtNtNtB1K_3gen4fold4Fold17fold_path_segmentE0ENtNtNtBa_6traits8iterator8Iterator7collectINtBW_3VecB1F_EEB3m_, symObjAddr: 0x15E4, symBinAddr: 0x46408, symSize: 0x1C }
  - { offset: 0x68F64, size: 0x8, addend: 0x0, symName: __RINvYINtNtNtNtCsfvfooZQ3Axs_4core4iter8adapters3map3MapINtNtNtCse1nGBsou5OW_5alloc3vec9into_iter8IntoIterTNtNtCs6IAuOt8vWmF_3syn4path15GenericArgumentNtNtB1K_5token5CommaEENCINvNtB1K_10punctuated4foldB1G_B2o_NtNvCs3yqPx1X2sxh_15zerofrom_derive16replace_lifetime15ReplaceLifetimeNvYB3k_NtNtNtB1K_3gen4fold4Fold21fold_generic_argumentE0ENtNtNtBa_6traits8iterator8Iterator7collectINtBW_3VecB1F_EEB3o_, symObjAddr: 0x1600, symBinAddr: 0x46424, symSize: 0x1C }
  - { offset: 0x68FA5, size: 0x8, addend: 0x0, symName: __RINvYINtNtNtNtCsfvfooZQ3Axs_4core4iter8adapters3map3MapINtNtNtCse1nGBsou5OW_5alloc3vec9into_iter8IntoIterTNtNtCs6IAuOt8vWmF_3syn4path15GenericArgumentNtNtB1K_5token5CommaEENCINvNtB1K_10punctuated4foldB1G_B2o_NtNvCs3yqPx1X2sxh_15zerofrom_derive25replace_lifetime_and_type20ReplaceLifetimeAndTyNvYB3k_NtNtNtB1K_3gen4fold4Fold21fold_generic_argumentE0ENtNtNtBa_6traits8iterator8Iterator7collectINtBW_3VecB1F_EEB3o_, symObjAddr: 0x161C, symBinAddr: 0x46440, symSize: 0x1C }
  - { offset: 0x68FE6, size: 0x8, addend: 0x0, symName: __RINvYINtNtNtNtCsfvfooZQ3Axs_4core4iter8adapters3map3MapINtNtNtCse1nGBsou5OW_5alloc3vec9into_iter8IntoIterTNtNtCs6IAuOt8vWmF_3syn8generics12GenericParamNtNtB1K_5token5CommaEENCINvNtB1K_10punctuated4foldB1G_B2p_NtNvCs3yqPx1X2sxh_15zerofrom_derive16replace_lifetime15ReplaceLifetimeNvYB3l_NtNtNtB1K_3gen4fold4Fold18fold_generic_paramE0ENtNtNtBa_6traits8iterator8Iterator7collectINtBW_3VecB1F_EEB3p_, symObjAddr: 0x1638, symBinAddr: 0x4645C, symSize: 0x1C }
  - { offset: 0x69027, size: 0x8, addend: 0x0, symName: __RINvYINtNtNtNtCsfvfooZQ3Axs_4core4iter8adapters3map3MapINtNtNtCse1nGBsou5OW_5alloc3vec9into_iter8IntoIterTNtNtCs6IAuOt8vWmF_3syn8generics12GenericParamNtNtB1K_5token5CommaEENCINvNtB1K_10punctuated4foldB1G_B2p_NtNvCs3yqPx1X2sxh_15zerofrom_derive25replace_lifetime_and_type20ReplaceLifetimeAndTyNvYB3l_NtNtNtB1K_3gen4fold4Fold18fold_generic_paramE0ENtNtNtBa_6traits8iterator8Iterator7collectINtBW_3VecB1F_EEB3p_, symObjAddr: 0x1654, symBinAddr: 0x46478, symSize: 0x1C }
  - { offset: 0x69068, size: 0x8, addend: 0x0, symName: __RINvYINtNtNtNtCsfvfooZQ3Axs_4core4iter8adapters3map3MapINtNtNtCse1nGBsou5OW_5alloc3vec9into_iter8IntoIterTNtNtCs6IAuOt8vWmF_3syn8generics13CapturedParamNtNtB1K_5token5CommaEENCINvNtB1K_10punctuated4foldB1G_B2q_NtNvCs3yqPx1X2sxh_15zerofrom_derive16replace_lifetime15ReplaceLifetimeNvYB3m_NtNtNtB1K_3gen4fold4Fold19fold_captured_paramE0ENtNtNtBa_6traits8iterator8Iterator7collectINtBW_3VecB1F_EEB3q_, symObjAddr: 0x1670, symBinAddr: 0x46494, symSize: 0x1C }
  - { offset: 0x690A9, size: 0x8, addend: 0x0, symName: __RINvYINtNtNtNtCsfvfooZQ3Axs_4core4iter8adapters3map3MapINtNtNtCse1nGBsou5OW_5alloc3vec9into_iter8IntoIterTNtNtCs6IAuOt8vWmF_3syn8generics13CapturedParamNtNtB1K_5token5CommaEENCINvNtB1K_10punctuated4foldB1G_B2q_NtNvCs3yqPx1X2sxh_15zerofrom_derive25replace_lifetime_and_type20ReplaceLifetimeAndTyNvYB3m_NtNtNtB1K_3gen4fold4Fold19fold_captured_paramE0ENtNtNtBa_6traits8iterator8Iterator7collectINtBW_3VecB1F_EEB3q_, symObjAddr: 0x168C, symBinAddr: 0x464B0, symSize: 0x1C }
  - { offset: 0x690EA, size: 0x8, addend: 0x0, symName: __RINvYINtNtNtNtCsfvfooZQ3Axs_4core4iter8adapters3map3MapINtNtNtCse1nGBsou5OW_5alloc3vec9into_iter8IntoIterTNtNtCs6IAuOt8vWmF_3syn8generics14TypeParamBoundNtNtB1K_5token4PlusEENCINvNtB1K_10punctuated4foldB1G_B2r_NtNvCs3yqPx1X2sxh_15zerofrom_derive16replace_lifetime15ReplaceLifetimeNvYB3m_NtNtNtB1K_3gen4fold4Fold21fold_type_param_boundE0ENtNtNtBa_6traits8iterator8Iterator7collectINtBW_3VecB1F_EEB3q_, symObjAddr: 0x16A8, symBinAddr: 0x464CC, symSize: 0x1C }
  - { offset: 0x6912B, size: 0x8, addend: 0x0, symName: __RINvYINtNtNtNtCsfvfooZQ3Axs_4core4iter8adapters3map3MapINtNtNtCse1nGBsou5OW_5alloc3vec9into_iter8IntoIterTNtNtCs6IAuOt8vWmF_3syn8generics14TypeParamBoundNtNtB1K_5token4PlusEENCINvNtB1K_10punctuated4foldB1G_B2r_NtNvCs3yqPx1X2sxh_15zerofrom_derive25replace_lifetime_and_type20ReplaceLifetimeAndTyNvYB3m_NtNtNtB1K_3gen4fold4Fold21fold_type_param_boundE0ENtNtNtBa_6traits8iterator8Iterator7collectINtBW_3VecB1F_EEB3q_, symObjAddr: 0x16C4, symBinAddr: 0x464E8, symSize: 0x1C }
  - { offset: 0x6916C, size: 0x8, addend: 0x0, symName: __RINvYINtNtNtNtCsfvfooZQ3Axs_4core4iter8adapters3map3MapINtNtNtCse1nGBsou5OW_5alloc3vec9into_iter8IntoIterTNtNtCs6IAuOt8vWmF_3syn8generics14WherePredicateNtNtB1K_5token5CommaEENCINvNtB1K_10punctuated4foldB1G_B2r_NtNvCs3yqPx1X2sxh_15zerofrom_derive16replace_lifetime15ReplaceLifetimeNvYB3n_NtNtNtB1K_3gen4fold4Fold20fold_where_predicateE0ENtNtNtBa_6traits8iterator8Iterator7collectINtBW_3VecB1F_EEB3r_, symObjAddr: 0x16E0, symBinAddr: 0x46504, symSize: 0x1C }
  - { offset: 0x691AD, size: 0x8, addend: 0x0, symName: __RINvYINtNtNtNtCsfvfooZQ3Axs_4core4iter8adapters3map3MapINtNtNtCse1nGBsou5OW_5alloc3vec9into_iter8IntoIterTNtNtCs6IAuOt8vWmF_3syn8generics14WherePredicateNtNtB1K_5token5CommaEENCINvNtB1K_10punctuated4foldB1G_B2r_NtNvCs3yqPx1X2sxh_15zerofrom_derive25replace_lifetime_and_type20ReplaceLifetimeAndTyNvYB3n_NtNtNtB1K_3gen4fold4Fold20fold_where_predicateE0ENtNtNtBa_6traits8iterator8Iterator7collectINtBW_3VecB1F_EEB3r_, symObjAddr: 0x16FC, symBinAddr: 0x46520, symSize: 0x1C }
  - { offset: 0x691EE, size: 0x8, addend: 0x0, symName: __RINvYINtNtNtNtCsfvfooZQ3Axs_4core4iter8adapters3map3MapINtNtNtCse1nGBsou5OW_5alloc3vec9into_iter8IntoIterTNtNtCs6IAuOt8vWmF_3syn8lifetime8LifetimeNtNtB1K_5token4PlusEENCINvNtB1K_10punctuated4foldB1G_B2k_NtNvCs3yqPx1X2sxh_15zerofrom_derive16replace_lifetime15ReplaceLifetimeNvYB3f_NtNtNtB1K_3gen4fold4Fold13fold_lifetimeE0ENtNtNtBa_6traits8iterator8Iterator7collectINtBW_3VecB1F_EEB3j_, symObjAddr: 0x1718, symBinAddr: 0x4653C, symSize: 0x1C }
  - { offset: 0x6922F, size: 0x8, addend: 0x0, symName: __RINvYINtNtNtNtCsfvfooZQ3Axs_4core4iter8adapters3map3MapINtNtNtCse1nGBsou5OW_5alloc3vec9into_iter8IntoIterTNtNtCs6IAuOt8vWmF_3syn8lifetime8LifetimeNtNtB1K_5token4PlusEENCINvNtB1K_10punctuated4foldB1G_B2k_NtNvCs3yqPx1X2sxh_15zerofrom_derive25replace_lifetime_and_type20ReplaceLifetimeAndTyNvYB3f_NtNtNtB1K_3gen4fold4Fold13fold_lifetimeE0ENtNtNtBa_6traits8iterator8Iterator7collectINtBW_3VecB1F_EEB3j_, symObjAddr: 0x1734, symBinAddr: 0x46558, symSize: 0x1C }
  - { offset: 0x69270, size: 0x8, addend: 0x0, symName: __RINvYINtNtNtNtCsfvfooZQ3Axs_4core4iter8adapters3map3MapNtNtCs6IAuOt8vWmF_3syn8generics10TypeParamsNCNvCs3yqPx1X2sxh_15zerofrom_derive14zf_derive_impl0ENtNtNtBa_6traits8iterator8Iterator7collectINtNtCse1nGBsou5OW_5alloc3vec3VecNtBT_9TypeParamEEB1C_, symObjAddr: 0x1750, symBinAddr: 0x46574, symSize: 0x34 }
  - { offset: 0x692BC, size: 0x8, addend: 0x0, symName: __RNvXNtNtNtCsfvfooZQ3Axs_4core4iter6traits7collectINtNtNtB6_8adapters3map3MapINtNtCs6IAuOt8vWmF_3syn10punctuated8IntoIterNtCs3cP53eQoTwO_11proc_macro25IdentENCINvXs8_NtCsloNvcHxBCre_9hashbrown3setINtB2D_7HashSetB1U_NtNtNtCscOYdFFY2T5N_3std4hash6random11RandomStateEINtB2_6ExtendB1U_E6extendINtB1f_10PunctuatedB1U_NtNtB1h_5token5CommaEE0ENtB2_12IntoIterator9into_iterCs3yqPx1X2sxh_15zerofrom_derive, symObjAddr: 0x5200, symBinAddr: 0x4A024, symSize: 0x14 }
  - { offset: 0x692F3, size: 0x8, addend: 0x0, symName: __RNvXNtNtNtCsfvfooZQ3Axs_4core4iter6traits7collectINtNtNtB6_8adapters3map3MapINtNtNtB8_5slice4iter4IterNtCs3cP53eQoTwO_11proc_macro25IdentENCNvCs3yqPx1X2sxh_15zerofrom_derive14zf_derive_impls4_0ENtB2_12IntoIterator9into_iterB2g_, symObjAddr: 0x5214, symBinAddr: 0x4A038, symSize: 0x18 }
  - { offset: 0x6932A, size: 0x8, addend: 0x0, symName: __RNvXNtNtNtCsfvfooZQ3Axs_4core4iter6traits7collectINtNtNtB6_8adapters3map3MapINtNtNtB8_5slice4iter4IterNtNtCs6IAuOt8vWmF_3syn8generics9TypeParamENCNvCs3yqPx1X2sxh_15zerofrom_derive14zf_derive_impls_0ENtB2_12IntoIterator9into_iterB2m_, symObjAddr: 0x522C, symBinAddr: 0x4A050, symSize: 0x1C }
  - { offset: 0x69361, size: 0x8, addend: 0x0, symName: __RNvXNtNtNtCsfvfooZQ3Axs_4core4iter6traits7collectINtNtNtB6_8adapters3map3MapINtNtNtB8_5slice4iter7IterMutNtNtCs6IAuOt8vWmF_3syn8generics9TypeParamENCNvCs3yqPx1X2sxh_15zerofrom_derive14zf_derive_impls0_0ENtB2_12IntoIterator9into_iterB2p_, symObjAddr: 0x5248, symBinAddr: 0x4A06C, symSize: 0x18 }
  - { offset: 0x69398, size: 0x8, addend: 0x0, symName: __RNvXNtNtNtCsfvfooZQ3Axs_4core4iter6traits7collectINtNtNtB6_8adapters3map3MapINtNtNtCse1nGBsou5OW_5alloc3vec9into_iter8IntoIterNtNtCs6IAuOt8vWmF_3syn4attr9AttributeENCINvNtNtB24_3gen4fold8fold_vecB20_NtNvCs3yqPx1X2sxh_15zerofrom_derive16replace_lifetime15ReplaceLifetimeNvYB3b_NtB2H_4Fold14fold_attributeE0ENtB2_12IntoIterator9into_iterB3f_, symObjAddr: 0x5260, symBinAddr: 0x4A084, symSize: 0x30 }
  - { offset: 0x693D0, size: 0x8, addend: 0x0, symName: __RNvXNtNtNtCsfvfooZQ3Axs_4core4iter6traits7collectINtNtNtB6_8adapters3map3MapINtNtNtCse1nGBsou5OW_5alloc3vec9into_iter8IntoIterNtNtCs6IAuOt8vWmF_3syn4attr9AttributeENCINvNtNtB24_3gen4fold8fold_vecB20_NtNvCs3yqPx1X2sxh_15zerofrom_derive25replace_lifetime_and_type20ReplaceLifetimeAndTyNvYB3b_NtB2H_4Fold14fold_attributeE0ENtB2_12IntoIterator9into_iterB3f_, symObjAddr: 0x5290, symBinAddr: 0x4A0B4, symSize: 0x30 }
  - { offset: 0x69408, size: 0x8, addend: 0x0, symName: __RNvXNtNtNtCsfvfooZQ3Axs_4core4iter6traits7collectINtNtNtB6_8adapters3map3MapINtNtNtCse1nGBsou5OW_5alloc3vec9into_iter8IntoIterNtNtCs6IAuOt8vWmF_3syn4expr3ArmENCINvNtNtB24_3gen4fold8fold_vecB20_NtNvCs3yqPx1X2sxh_15zerofrom_derive16replace_lifetime15ReplaceLifetimeNvYB35_NtB2B_4Fold8fold_armE0ENtB2_12IntoIterator9into_iterB39_, symObjAddr: 0x52C0, symBinAddr: 0x4A0E4, symSize: 0x30 }
  - { offset: 0x69440, size: 0x8, addend: 0x0, symName: __RNvXNtNtNtCsfvfooZQ3Axs_4core4iter6traits7collectINtNtNtB6_8adapters3map3MapINtNtNtCse1nGBsou5OW_5alloc3vec9into_iter8IntoIterNtNtCs6IAuOt8vWmF_3syn4expr3ArmENCINvNtNtB24_3gen4fold8fold_vecB20_NtNvCs3yqPx1X2sxh_15zerofrom_derive25replace_lifetime_and_type20ReplaceLifetimeAndTyNvYB35_NtB2B_4Fold8fold_armE0ENtB2_12IntoIterator9into_iterB39_, symObjAddr: 0x52F0, symBinAddr: 0x4A114, symSize: 0x30 }
  - { offset: 0x69478, size: 0x8, addend: 0x0, symName: __RNvXNtNtNtCsfvfooZQ3Axs_4core4iter6traits7collectINtNtNtB6_8adapters3map3MapINtNtNtCse1nGBsou5OW_5alloc3vec9into_iter8IntoIterNtNtCs6IAuOt8vWmF_3syn4item11ForeignItemENCINvNtNtB24_3gen4fold8fold_vecB20_NtNvCs3yqPx1X2sxh_15zerofrom_derive16replace_lifetime15ReplaceLifetimeNvYB3e_NtB2K_4Fold17fold_foreign_itemE0ENtB2_12IntoIterator9into_iterB3i_, symObjAddr: 0x5320, symBinAddr: 0x4A144, symSize: 0x30 }
  - { offset: 0x694B0, size: 0x8, addend: 0x0, symName: __RNvXNtNtNtCsfvfooZQ3Axs_4core4iter6traits7collectINtNtNtB6_8adapters3map3MapINtNtNtCse1nGBsou5OW_5alloc3vec9into_iter8IntoIterNtNtCs6IAuOt8vWmF_3syn4item11ForeignItemENCINvNtNtB24_3gen4fold8fold_vecB20_NtNvCs3yqPx1X2sxh_15zerofrom_derive25replace_lifetime_and_type20ReplaceLifetimeAndTyNvYB3e_NtB2K_4Fold17fold_foreign_itemE0ENtB2_12IntoIterator9into_iterB3i_, symObjAddr: 0x5350, symBinAddr: 0x4A174, symSize: 0x30 }
  - { offset: 0x694E8, size: 0x8, addend: 0x0, symName: __RNvXNtNtNtCsfvfooZQ3Axs_4core4iter6traits7collectINtNtNtB6_8adapters3map3MapINtNtNtCse1nGBsou5OW_5alloc3vec9into_iter8IntoIterNtNtCs6IAuOt8vWmF_3syn4item4ItemENCINvNtNtB24_3gen4fold8fold_vecB20_NtNvCs3yqPx1X2sxh_15zerofrom_derive16replace_lifetime15ReplaceLifetimeNvYB36_NtB2C_4Fold9fold_itemE0ENtB2_12IntoIterator9into_iterB3a_, symObjAddr: 0x5380, symBinAddr: 0x4A1A4, symSize: 0x30 }
  - { offset: 0x69520, size: 0x8, addend: 0x0, symName: __RNvXNtNtNtCsfvfooZQ3Axs_4core4iter6traits7collectINtNtNtB6_8adapters3map3MapINtNtNtCse1nGBsou5OW_5alloc3vec9into_iter8IntoIterNtNtCs6IAuOt8vWmF_3syn4item4ItemENCINvNtNtB24_3gen4fold8fold_vecB20_NtNvCs3yqPx1X2sxh_15zerofrom_derive25replace_lifetime_and_type20ReplaceLifetimeAndTyNvYB36_NtB2C_4Fold9fold_itemE0ENtB2_12IntoIterator9into_iterB3a_, symObjAddr: 0x53B0, symBinAddr: 0x4A1D4, symSize: 0x30 }
  - { offset: 0x69558, size: 0x8, addend: 0x0, symName: __RNvXNtNtNtCsfvfooZQ3Axs_4core4iter6traits7collectINtNtNtB6_8adapters3map3MapINtNtNtCse1nGBsou5OW_5alloc3vec9into_iter8IntoIterNtNtCs6IAuOt8vWmF_3syn4item8ImplItemENCINvNtNtB24_3gen4fold8fold_vecB20_NtNvCs3yqPx1X2sxh_15zerofrom_derive16replace_lifetime15ReplaceLifetimeNvYB3a_NtB2G_4Fold14fold_impl_itemE0ENtB2_12IntoIterator9into_iterB3e_, symObjAddr: 0x53E0, symBinAddr: 0x4A204, symSize: 0x30 }
  - { offset: 0x69590, size: 0x8, addend: 0x0, symName: __RNvXNtNtNtCsfvfooZQ3Axs_4core4iter6traits7collectINtNtNtB6_8adapters3map3MapINtNtNtCse1nGBsou5OW_5alloc3vec9into_iter8IntoIterNtNtCs6IAuOt8vWmF_3syn4item8ImplItemENCINvNtNtB24_3gen4fold8fold_vecB20_NtNvCs3yqPx1X2sxh_15zerofrom_derive25replace_lifetime_and_type20ReplaceLifetimeAndTyNvYB3a_NtB2G_4Fold14fold_impl_itemE0ENtB2_12IntoIterator9into_iterB3e_, symObjAddr: 0x5410, symBinAddr: 0x4A234, symSize: 0x30 }
  - { offset: 0x695C8, size: 0x8, addend: 0x0, symName: __RNvXNtNtNtCsfvfooZQ3Axs_4core4iter6traits7collectINtNtNtB6_8adapters3map3MapINtNtNtCse1nGBsou5OW_5alloc3vec9into_iter8IntoIterNtNtCs6IAuOt8vWmF_3syn4item9TraitItemENCINvNtNtB24_3gen4fold8fold_vecB20_NtNvCs3yqPx1X2sxh_15zerofrom_derive16replace_lifetime15ReplaceLifetimeNvYB3b_NtB2H_4Fold15fold_trait_itemE0ENtB2_12IntoIterator9into_iterB3f_, symObjAddr: 0x5440, symBinAddr: 0x4A264, symSize: 0x30 }
  - { offset: 0x69600, size: 0x8, addend: 0x0, symName: __RNvXNtNtNtCsfvfooZQ3Axs_4core4iter6traits7collectINtNtNtB6_8adapters3map3MapINtNtNtCse1nGBsou5OW_5alloc3vec9into_iter8IntoIterNtNtCs6IAuOt8vWmF_3syn4item9TraitItemENCINvNtNtB24_3gen4fold8fold_vecB20_NtNvCs3yqPx1X2sxh_15zerofrom_derive25replace_lifetime_and_type20ReplaceLifetimeAndTyNvYB3b_NtB2H_4Fold15fold_trait_itemE0ENtB2_12IntoIterator9into_iterB3f_, symObjAddr: 0x5470, symBinAddr: 0x4A294, symSize: 0x30 }
  - { offset: 0x69638, size: 0x8, addend: 0x0, symName: __RNvXNtNtNtCsfvfooZQ3Axs_4core4iter6traits7collectINtNtNtB6_8adapters3map3MapINtNtNtCse1nGBsou5OW_5alloc3vec9into_iter8IntoIterNtNtCs6IAuOt8vWmF_3syn4stmt4StmtENCINvNtNtB24_3gen4fold8fold_vecB20_NtNvCs3yqPx1X2sxh_15zerofrom_derive16replace_lifetime15ReplaceLifetimeNvYB36_NtB2C_4Fold9fold_stmtE0ENtB2_12IntoIterator9into_iterB3a_, symObjAddr: 0x54A0, symBinAddr: 0x4A2C4, symSize: 0x30 }
  - { offset: 0x69670, size: 0x8, addend: 0x0, symName: __RNvXNtNtNtCsfvfooZQ3Axs_4core4iter6traits7collectINtNtNtB6_8adapters3map3MapINtNtNtCse1nGBsou5OW_5alloc3vec9into_iter8IntoIterNtNtCs6IAuOt8vWmF_3syn4stmt4StmtENCINvNtNtB24_3gen4fold8fold_vecB20_NtNvCs3yqPx1X2sxh_15zerofrom_derive25replace_lifetime_and_type20ReplaceLifetimeAndTyNvYB36_NtB2C_4Fold9fold_stmtE0ENtB2_12IntoIterator9into_iterB3a_, symObjAddr: 0x54D0, symBinAddr: 0x4A2F4, symSize: 0x30 }
  - { offset: 0x696A8, size: 0x8, addend: 0x0, symName: __RNvXNtNtNtCsfvfooZQ3Axs_4core4iter6traits7collectINtNtNtB6_8adapters3map3MapINtNtNtCse1nGBsou5OW_5alloc3vec9into_iter8IntoIterTNtCs3cP53eQoTwO_11proc_macro25IdentNtNtCs6IAuOt8vWmF_3syn5token5CommaEENCNvXs8_NtB2E_10punctuatedINtB3i_10PunctuatedB21_B2A_ENtB2_12IntoIterator9into_iter0EB42_9into_iterCs3yqPx1X2sxh_15zerofrom_derive, symObjAddr: 0x5500, symBinAddr: 0x4A324, symSize: 0x14 }
  - { offset: 0x696DF, size: 0x8, addend: 0x0, symName: __RNvXNtNtNtCsfvfooZQ3Axs_4core4iter6traits7collectINtNtNtB6_8adapters3map3MapINtNtNtCse1nGBsou5OW_5alloc3vec9into_iter8IntoIterTNtNtCs6IAuOt8vWmF_3syn2ty4TypeNtNtB25_5token5CommaEENCINvNtB25_10punctuated4foldB21_B2v_NtNvCs3yqPx1X2sxh_15zerofrom_derive16replace_lifetime15ReplaceLifetimeNvYB3r_NtNtNtB25_3gen4fold4Fold9fold_typeE0ENtB2_12IntoIterator9into_iterB3v_, symObjAddr: 0x5514, symBinAddr: 0x4A338, symSize: 0x30 }
  - { offset: 0x69717, size: 0x8, addend: 0x0, symName: __RNvXNtNtNtCsfvfooZQ3Axs_4core4iter6traits7collectINtNtNtB6_8adapters3map3MapINtNtNtCse1nGBsou5OW_5alloc3vec9into_iter8IntoIterTNtNtCs6IAuOt8vWmF_3syn2ty4TypeNtNtB25_5token5CommaEENCINvNtB25_10punctuated4foldB21_B2v_NtNvCs3yqPx1X2sxh_15zerofrom_derive25replace_lifetime_and_type20ReplaceLifetimeAndTyNvYB3r_NtNtNtB25_3gen4fold4Fold9fold_typeE0ENtB2_12IntoIterator9into_iterB3v_, symObjAddr: 0x5544, symBinAddr: 0x4A368, symSize: 0x30 }
  - { offset: 0x6974F, size: 0x8, addend: 0x0, symName: __RNvXNtNtNtCsfvfooZQ3Axs_4core4iter6traits7collectINtNtNtB6_8adapters3map3MapINtNtNtCse1nGBsou5OW_5alloc3vec9into_iter8IntoIterTNtNtCs6IAuOt8vWmF_3syn2ty9BareFnArgNtNtB25_5token5CommaEENCINvNtB25_10punctuated4foldB21_B2A_NtNvCs3yqPx1X2sxh_15zerofrom_derive16replace_lifetime15ReplaceLifetimeNvYB3w_NtNtNtB25_3gen4fold4Fold16fold_bare_fn_argE0ENtB2_12IntoIterator9into_iterB3A_, symObjAddr: 0x5574, symBinAddr: 0x4A398, symSize: 0x30 }
  - { offset: 0x69787, size: 0x8, addend: 0x0, symName: __RNvXNtNtNtCsfvfooZQ3Axs_4core4iter6traits7collectINtNtNtB6_8adapters3map3MapINtNtNtCse1nGBsou5OW_5alloc3vec9into_iter8IntoIterTNtNtCs6IAuOt8vWmF_3syn2ty9BareFnArgNtNtB25_5token5CommaEENCINvNtB25_10punctuated4foldB21_B2A_NtNvCs3yqPx1X2sxh_15zerofrom_derive25replace_lifetime_and_type20ReplaceLifetimeAndTyNvYB3w_NtNtNtB25_3gen4fold4Fold16fold_bare_fn_argE0ENtB2_12IntoIterator9into_iterB3A_, symObjAddr: 0x55A4, symBinAddr: 0x4A3C8, symSize: 0x30 }
  - { offset: 0x697BF, size: 0x8, addend: 0x0, symName: __RNvXNtNtNtCsfvfooZQ3Axs_4core4iter6traits7collectINtNtNtB6_8adapters3map3MapINtNtNtCse1nGBsou5OW_5alloc3vec9into_iter8IntoIterTNtNtCs6IAuOt8vWmF_3syn3pat3PatNtNtB25_5token2OrEENCINvNtB25_10punctuated4foldB21_B2v_NtNvCs3yqPx1X2sxh_15zerofrom_derive16replace_lifetime15ReplaceLifetimeNvYB3o_NtNtNtB25_3gen4fold4Fold8fold_patE0ENtB2_12IntoIterator9into_iterB3s_, symObjAddr: 0x55D4, symBinAddr: 0x4A3F8, symSize: 0x30 }
  - { offset: 0x697F7, size: 0x8, addend: 0x0, symName: __RNvXNtNtNtCsfvfooZQ3Axs_4core4iter6traits7collectINtNtNtB6_8adapters3map3MapINtNtNtCse1nGBsou5OW_5alloc3vec9into_iter8IntoIterTNtNtCs6IAuOt8vWmF_3syn3pat3PatNtNtB25_5token2OrEENCINvNtB25_10punctuated4foldB21_B2v_NtNvCs3yqPx1X2sxh_15zerofrom_derive25replace_lifetime_and_type20ReplaceLifetimeAndTyNvYB3o_NtNtNtB25_3gen4fold4Fold8fold_patE0ENtB2_12IntoIterator9into_iterB3s_, symObjAddr: 0x5604, symBinAddr: 0x4A428, symSize: 0x30 }
  - { offset: 0x6982F, size: 0x8, addend: 0x0, symName: __RNvXNtNtNtCsfvfooZQ3Axs_4core4iter6traits7collectINtNtNtB6_8adapters3map3MapINtNtNtCse1nGBsou5OW_5alloc3vec9into_iter8IntoIterTNtNtCs6IAuOt8vWmF_3syn3pat3PatNtNtB25_5token5CommaEENCINvNtB25_10punctuated4foldB21_B2v_NtNvCs3yqPx1X2sxh_15zerofrom_derive16replace_lifetime15ReplaceLifetimeNvYB3r_NtNtNtB25_3gen4fold4Fold8fold_patE0ENtB2_12IntoIterator9into_iterB3v_, symObjAddr: 0x5634, symBinAddr: 0x4A458, symSize: 0x30 }
  - { offset: 0x69867, size: 0x8, addend: 0x0, symName: __RNvXNtNtNtCsfvfooZQ3Axs_4core4iter6traits7collectINtNtNtB6_8adapters3map3MapINtNtNtCse1nGBsou5OW_5alloc3vec9into_iter8IntoIterTNtNtCs6IAuOt8vWmF_3syn3pat3PatNtNtB25_5token5CommaEENCINvNtB25_10punctuated4foldB21_B2v_NtNvCs3yqPx1X2sxh_15zerofrom_derive25replace_lifetime_and_type20ReplaceLifetimeAndTyNvYB3r_NtNtNtB25_3gen4fold4Fold8fold_patE0ENtB2_12IntoIterator9into_iterB3v_, symObjAddr: 0x5664, symBinAddr: 0x4A488, symSize: 0x30 }
  - { offset: 0x6989F, size: 0x8, addend: 0x0, symName: __RNvXNtNtNtCsfvfooZQ3Axs_4core4iter6traits7collectINtNtNtB6_8adapters3map3MapINtNtNtCse1nGBsou5OW_5alloc3vec9into_iter8IntoIterTNtNtCs6IAuOt8vWmF_3syn3pat8FieldPatNtNtB25_5token5CommaEENCINvNtB25_10punctuated4foldB21_B2A_NtNvCs3yqPx1X2sxh_15zerofrom_derive16replace_lifetime15ReplaceLifetimeNvYB3w_NtNtNtB25_3gen4fold4Fold14fold_field_patE0ENtB2_12IntoIterator9into_iterB3A_, symObjAddr: 0x5694, symBinAddr: 0x4A4B8, symSize: 0x30 }
  - { offset: 0x698D7, size: 0x8, addend: 0x0, symName: __RNvXNtNtNtCsfvfooZQ3Axs_4core4iter6traits7collectINtNtNtB6_8adapters3map3MapINtNtNtCse1nGBsou5OW_5alloc3vec9into_iter8IntoIterTNtNtCs6IAuOt8vWmF_3syn3pat8FieldPatNtNtB25_5token5CommaEENCINvNtB25_10punctuated4foldB21_B2A_NtNvCs3yqPx1X2sxh_15zerofrom_derive25replace_lifetime_and_type20ReplaceLifetimeAndTyNvYB3w_NtNtNtB25_3gen4fold4Fold14fold_field_patE0ENtB2_12IntoIterator9into_iterB3A_, symObjAddr: 0x56C4, symBinAddr: 0x4A4E8, symSize: 0x30 }
  - { offset: 0x6990F, size: 0x8, addend: 0x0, symName: __RNvXNtNtNtCsfvfooZQ3Axs_4core4iter6traits7collectINtNtNtB6_8adapters3map3MapINtNtNtCse1nGBsou5OW_5alloc3vec9into_iter8IntoIterTNtNtCs6IAuOt8vWmF_3syn4data5FieldNtNtB25_5token5CommaEENCINvNtB25_10punctuated4foldB21_B2y_NtNvCs3yqPx1X2sxh_15zerofrom_derive16replace_lifetime15ReplaceLifetimeNvYB3u_NtNtNtB25_3gen4fold4Fold10fold_fieldE0ENtB2_12IntoIterator9into_iterB3y_, symObjAddr: 0x56F4, symBinAddr: 0x4A518, symSize: 0x30 }
  - { offset: 0x69947, size: 0x8, addend: 0x0, symName: __RNvXNtNtNtCsfvfooZQ3Axs_4core4iter6traits7collectINtNtNtB6_8adapters3map3MapINtNtNtCse1nGBsou5OW_5alloc3vec9into_iter8IntoIterTNtNtCs6IAuOt8vWmF_3syn4data5FieldNtNtB25_5token5CommaEENCINvNtB25_10punctuated4foldB21_B2y_NtNvCs3yqPx1X2sxh_15zerofrom_derive25replace_lifetime_and_type20ReplaceLifetimeAndTyNvYB3u_NtNtNtB25_3gen4fold4Fold10fold_fieldE0ENtB2_12IntoIterator9into_iterB3y_, symObjAddr: 0x5724, symBinAddr: 0x4A548, symSize: 0x30 }
  - { offset: 0x6997F, size: 0x8, addend: 0x0, symName: __RNvXNtNtNtCsfvfooZQ3Axs_4core4iter6traits7collectINtNtNtB6_8adapters3map3MapINtNtNtCse1nGBsou5OW_5alloc3vec9into_iter8IntoIterTNtNtCs6IAuOt8vWmF_3syn4data7VariantNtNtB25_5token5CommaEENCINvNtB25_10punctuated4foldB21_B2A_NtNvCs3yqPx1X2sxh_15zerofrom_derive16replace_lifetime15ReplaceLifetimeNvYB3w_NtNtNtB25_3gen4fold4Fold12fold_variantE0ENtB2_12IntoIterator9into_iterB3A_, symObjAddr: 0x5754, symBinAddr: 0x4A578, symSize: 0x30 }
  - { offset: 0x699B7, size: 0x8, addend: 0x0, symName: __RNvXNtNtNtCsfvfooZQ3Axs_4core4iter6traits7collectINtNtNtB6_8adapters3map3MapINtNtNtCse1nGBsou5OW_5alloc3vec9into_iter8IntoIterTNtNtCs6IAuOt8vWmF_3syn4data7VariantNtNtB25_5token5CommaEENCINvNtB25_10punctuated4foldB21_B2A_NtNvCs3yqPx1X2sxh_15zerofrom_derive25replace_lifetime_and_type20ReplaceLifetimeAndTyNvYB3w_NtNtNtB25_3gen4fold4Fold12fold_variantE0ENtB2_12IntoIterator9into_iterB3A_, symObjAddr: 0x5784, symBinAddr: 0x4A5A8, symSize: 0x30 }
  - { offset: 0x699EF, size: 0x8, addend: 0x0, symName: __RNvXNtNtNtCsfvfooZQ3Axs_4core4iter6traits7collectINtNtNtB6_8adapters3map3MapINtNtNtCse1nGBsou5OW_5alloc3vec9into_iter8IntoIterTNtNtCs6IAuOt8vWmF_3syn4expr10FieldValueNtNtB25_5token5CommaEENCINvNtB25_10punctuated4foldB21_B2E_NtNvCs3yqPx1X2sxh_15zerofrom_derive16replace_lifetime15ReplaceLifetimeNvYB3A_NtNtNtB25_3gen4fold4Fold16fold_field_valueE0ENtB2_12IntoIterator9into_iterB3E_, symObjAddr: 0x57B4, symBinAddr: 0x4A5D8, symSize: 0x30 }
  - { offset: 0x69A27, size: 0x8, addend: 0x0, symName: __RNvXNtNtNtCsfvfooZQ3Axs_4core4iter6traits7collectINtNtNtB6_8adapters3map3MapINtNtNtCse1nGBsou5OW_5alloc3vec9into_iter8IntoIterTNtNtCs6IAuOt8vWmF_3syn4expr10FieldValueNtNtB25_5token5CommaEENCINvNtB25_10punctuated4foldB21_B2E_NtNvCs3yqPx1X2sxh_15zerofrom_derive25replace_lifetime_and_type20ReplaceLifetimeAndTyNvYB3A_NtNtNtB25_3gen4fold4Fold16fold_field_valueE0ENtB2_12IntoIterator9into_iterB3E_, symObjAddr: 0x57E4, symBinAddr: 0x4A608, symSize: 0x30 }
  - { offset: 0x69A5F, size: 0x8, addend: 0x0, symName: __RNvXNtNtNtCsfvfooZQ3Axs_4core4iter6traits7collectINtNtNtB6_8adapters3map3MapINtNtNtCse1nGBsou5OW_5alloc3vec9into_iter8IntoIterTNtNtCs6IAuOt8vWmF_3syn4expr4ExprNtNtB25_5token5CommaEENCINvNtB25_10punctuated4foldB21_B2x_NtNvCs3yqPx1X2sxh_15zerofrom_derive16replace_lifetime15ReplaceLifetimeNvYB3t_NtNtNtB25_3gen4fold4Fold9fold_exprE0ENtB2_12IntoIterator9into_iterB3x_, symObjAddr: 0x5814, symBinAddr: 0x4A638, symSize: 0x30 }
  - { offset: 0x69A97, size: 0x8, addend: 0x0, symName: __RNvXNtNtNtCsfvfooZQ3Axs_4core4iter6traits7collectINtNtNtB6_8adapters3map3MapINtNtNtCse1nGBsou5OW_5alloc3vec9into_iter8IntoIterTNtNtCs6IAuOt8vWmF_3syn4expr4ExprNtNtB25_5token5CommaEENCINvNtB25_10punctuated4foldB21_B2x_NtNvCs3yqPx1X2sxh_15zerofrom_derive25replace_lifetime_and_type20ReplaceLifetimeAndTyNvYB3t_NtNtNtB25_3gen4fold4Fold9fold_exprE0ENtB2_12IntoIterator9into_iterB3x_, symObjAddr: 0x5844, symBinAddr: 0x4A668, symSize: 0x30 }
  - { offset: 0x69ACF, size: 0x8, addend: 0x0, symName: __RNvXNtNtNtCsfvfooZQ3Axs_4core4iter6traits7collectINtNtNtB6_8adapters3map3MapINtNtNtCse1nGBsou5OW_5alloc3vec9into_iter8IntoIterTNtNtCs6IAuOt8vWmF_3syn4item5FnArgNtNtB25_5token5CommaEENCINvNtB25_10punctuated4foldB21_B2y_NtNvCs3yqPx1X2sxh_15zerofrom_derive16replace_lifetime15ReplaceLifetimeNvYB3u_NtNtNtB25_3gen4fold4Fold11fold_fn_argE0ENtB2_12IntoIterator9into_iterB3y_, symObjAddr: 0x5874, symBinAddr: 0x4A698, symSize: 0x30 }
  - { offset: 0x69B07, size: 0x8, addend: 0x0, symName: __RNvXNtNtNtCsfvfooZQ3Axs_4core4iter6traits7collectINtNtNtB6_8adapters3map3MapINtNtNtCse1nGBsou5OW_5alloc3vec9into_iter8IntoIterTNtNtCs6IAuOt8vWmF_3syn4item5FnArgNtNtB25_5token5CommaEENCINvNtB25_10punctuated4foldB21_B2y_NtNvCs3yqPx1X2sxh_15zerofrom_derive25replace_lifetime_and_type20ReplaceLifetimeAndTyNvYB3u_NtNtNtB25_3gen4fold4Fold11fold_fn_argE0ENtB2_12IntoIterator9into_iterB3y_, symObjAddr: 0x58A4, symBinAddr: 0x4A6C8, symSize: 0x30 }
  - { offset: 0x69B3F, size: 0x8, addend: 0x0, symName: __RNvXNtNtNtCsfvfooZQ3Axs_4core4iter6traits7collectINtNtNtB6_8adapters3map3MapINtNtNtCse1nGBsou5OW_5alloc3vec9into_iter8IntoIterTNtNtCs6IAuOt8vWmF_3syn4item7UseTreeNtNtB25_5token5CommaEENCINvNtB25_10punctuated4foldB21_B2A_NtNvCs3yqPx1X2sxh_15zerofrom_derive16replace_lifetime15ReplaceLifetimeNvYB3w_NtNtNtB25_3gen4fold4Fold13fold_use_treeE0ENtB2_12IntoIterator9into_iterB3A_, symObjAddr: 0x58D4, symBinAddr: 0x4A6F8, symSize: 0x30 }
  - { offset: 0x69B77, size: 0x8, addend: 0x0, symName: __RNvXNtNtNtCsfvfooZQ3Axs_4core4iter6traits7collectINtNtNtB6_8adapters3map3MapINtNtNtCse1nGBsou5OW_5alloc3vec9into_iter8IntoIterTNtNtCs6IAuOt8vWmF_3syn4item7UseTreeNtNtB25_5token5CommaEENCINvNtB25_10punctuated4foldB21_B2A_NtNvCs3yqPx1X2sxh_15zerofrom_derive25replace_lifetime_and_type20ReplaceLifetimeAndTyNvYB3w_NtNtNtB25_3gen4fold4Fold13fold_use_treeE0ENtB2_12IntoIterator9into_iterB3A_, symObjAddr: 0x5904, symBinAddr: 0x4A728, symSize: 0x30 }
  - { offset: 0x69BAF, size: 0x8, addend: 0x0, symName: __RNvXNtNtNtCsfvfooZQ3Axs_4core4iter6traits7collectINtNtNtB6_8adapters3map3MapINtNtNtCse1nGBsou5OW_5alloc3vec9into_iter8IntoIterTNtNtCs6IAuOt8vWmF_3syn4path11PathSegmentNtNtB25_5token7PathSepEENCINvNtB25_10punctuated4foldB21_B2F_NtNvCs3yqPx1X2sxh_15zerofrom_derive16replace_lifetime15ReplaceLifetimeNvYB3D_NtNtNtB25_3gen4fold4Fold17fold_path_segmentE0ENtB2_12IntoIterator9into_iterB3H_, symObjAddr: 0x5934, symBinAddr: 0x4A758, symSize: 0x30 }
  - { offset: 0x69BE7, size: 0x8, addend: 0x0, symName: __RNvXNtNtNtCsfvfooZQ3Axs_4core4iter6traits7collectINtNtNtB6_8adapters3map3MapINtNtNtCse1nGBsou5OW_5alloc3vec9into_iter8IntoIterTNtNtCs6IAuOt8vWmF_3syn4path11PathSegmentNtNtB25_5token7PathSepEENCINvNtB25_10punctuated4foldB21_B2F_NtNvCs3yqPx1X2sxh_15zerofrom_derive25replace_lifetime_and_type20ReplaceLifetimeAndTyNvYB3D_NtNtNtB25_3gen4fold4Fold17fold_path_segmentE0ENtB2_12IntoIterator9into_iterB3H_, symObjAddr: 0x5964, symBinAddr: 0x4A788, symSize: 0x30 }
  - { offset: 0x69C1F, size: 0x8, addend: 0x0, symName: __RNvXNtNtNtCsfvfooZQ3Axs_4core4iter6traits7collectINtNtNtB6_8adapters3map3MapINtNtNtCse1nGBsou5OW_5alloc3vec9into_iter8IntoIterTNtNtCs6IAuOt8vWmF_3syn4path15GenericArgumentNtNtB25_5token5CommaEENCINvNtB25_10punctuated4foldB21_B2J_NtNvCs3yqPx1X2sxh_15zerofrom_derive16replace_lifetime15ReplaceLifetimeNvYB3F_NtNtNtB25_3gen4fold4Fold21fold_generic_argumentE0ENtB2_12IntoIterator9into_iterB3J_, symObjAddr: 0x5994, symBinAddr: 0x4A7B8, symSize: 0x30 }
  - { offset: 0x69C57, size: 0x8, addend: 0x0, symName: __RNvXNtNtNtCsfvfooZQ3Axs_4core4iter6traits7collectINtNtNtB6_8adapters3map3MapINtNtNtCse1nGBsou5OW_5alloc3vec9into_iter8IntoIterTNtNtCs6IAuOt8vWmF_3syn4path15GenericArgumentNtNtB25_5token5CommaEENCINvNtB25_10punctuated4foldB21_B2J_NtNvCs3yqPx1X2sxh_15zerofrom_derive25replace_lifetime_and_type20ReplaceLifetimeAndTyNvYB3F_NtNtNtB25_3gen4fold4Fold21fold_generic_argumentE0ENtB2_12IntoIterator9into_iterB3J_, symObjAddr: 0x59C4, symBinAddr: 0x4A7E8, symSize: 0x30 }
  - { offset: 0x69C8F, size: 0x8, addend: 0x0, symName: __RNvXNtNtNtCsfvfooZQ3Axs_4core4iter6traits7collectINtNtNtB6_8adapters3map3MapINtNtNtCse1nGBsou5OW_5alloc3vec9into_iter8IntoIterTNtNtCs6IAuOt8vWmF_3syn8generics12GenericParamNtNtB25_5token5CommaEENCINvNtB25_10punctuated4foldB21_B2K_NtNvCs3yqPx1X2sxh_15zerofrom_derive16replace_lifetime15ReplaceLifetimeNvYB3G_NtNtNtB25_3gen4fold4Fold18fold_generic_paramE0ENtB2_12IntoIterator9into_iterB3K_, symObjAddr: 0x59F4, symBinAddr: 0x4A818, symSize: 0x30 }
  - { offset: 0x69CC7, size: 0x8, addend: 0x0, symName: __RNvXNtNtNtCsfvfooZQ3Axs_4core4iter6traits7collectINtNtNtB6_8adapters3map3MapINtNtNtCse1nGBsou5OW_5alloc3vec9into_iter8IntoIterTNtNtCs6IAuOt8vWmF_3syn8generics12GenericParamNtNtB25_5token5CommaEENCINvNtB25_10punctuated4foldB21_B2K_NtNvCs3yqPx1X2sxh_15zerofrom_derive25replace_lifetime_and_type20ReplaceLifetimeAndTyNvYB3G_NtNtNtB25_3gen4fold4Fold18fold_generic_paramE0ENtB2_12IntoIterator9into_iterB3K_, symObjAddr: 0x5A24, symBinAddr: 0x4A848, symSize: 0x30 }
  - { offset: 0x69CFF, size: 0x8, addend: 0x0, symName: __RNvXNtNtNtCsfvfooZQ3Axs_4core4iter6traits7collectINtNtNtB6_8adapters3map3MapINtNtNtCse1nGBsou5OW_5alloc3vec9into_iter8IntoIterTNtNtCs6IAuOt8vWmF_3syn8generics13CapturedParamNtNtB25_5token5CommaEENCINvNtB25_10punctuated4foldB21_B2L_NtNvCs3yqPx1X2sxh_15zerofrom_derive16replace_lifetime15ReplaceLifetimeNvYB3H_NtNtNtB25_3gen4fold4Fold19fold_captured_paramE0ENtB2_12IntoIterator9into_iterB3L_, symObjAddr: 0x5A54, symBinAddr: 0x4A878, symSize: 0x30 }
  - { offset: 0x69D37, size: 0x8, addend: 0x0, symName: __RNvXNtNtNtCsfvfooZQ3Axs_4core4iter6traits7collectINtNtNtB6_8adapters3map3MapINtNtNtCse1nGBsou5OW_5alloc3vec9into_iter8IntoIterTNtNtCs6IAuOt8vWmF_3syn8generics13CapturedParamNtNtB25_5token5CommaEENCINvNtB25_10punctuated4foldB21_B2L_NtNvCs3yqPx1X2sxh_15zerofrom_derive25replace_lifetime_and_type20ReplaceLifetimeAndTyNvYB3H_NtNtNtB25_3gen4fold4Fold19fold_captured_paramE0ENtB2_12IntoIterator9into_iterB3L_, symObjAddr: 0x5A84, symBinAddr: 0x4A8A8, symSize: 0x30 }
  - { offset: 0x69D6F, size: 0x8, addend: 0x0, symName: __RNvXNtNtNtCsfvfooZQ3Axs_4core4iter6traits7collectINtNtNtB6_8adapters3map3MapINtNtNtCse1nGBsou5OW_5alloc3vec9into_iter8IntoIterTNtNtCs6IAuOt8vWmF_3syn8generics14TypeParamBoundNtNtB25_5token4PlusEENCINvNtB25_10punctuated4foldB21_B2M_NtNvCs3yqPx1X2sxh_15zerofrom_derive16replace_lifetime15ReplaceLifetimeNvYB3H_NtNtNtB25_3gen4fold4Fold21fold_type_param_boundE0ENtB2_12IntoIterator9into_iterB3L_, symObjAddr: 0x5AB4, symBinAddr: 0x4A8D8, symSize: 0x30 }
  - { offset: 0x69DA7, size: 0x8, addend: 0x0, symName: __RNvXNtNtNtCsfvfooZQ3Axs_4core4iter6traits7collectINtNtNtB6_8adapters3map3MapINtNtNtCse1nGBsou5OW_5alloc3vec9into_iter8IntoIterTNtNtCs6IAuOt8vWmF_3syn8generics14TypeParamBoundNtNtB25_5token4PlusEENCINvNtB25_10punctuated4foldB21_B2M_NtNvCs3yqPx1X2sxh_15zerofrom_derive25replace_lifetime_and_type20ReplaceLifetimeAndTyNvYB3H_NtNtNtB25_3gen4fold4Fold21fold_type_param_boundE0ENtB2_12IntoIterator9into_iterB3L_, symObjAddr: 0x5AE4, symBinAddr: 0x4A908, symSize: 0x30 }
  - { offset: 0x69DDF, size: 0x8, addend: 0x0, symName: __RNvXNtNtNtCsfvfooZQ3Axs_4core4iter6traits7collectINtNtNtB6_8adapters3map3MapINtNtNtCse1nGBsou5OW_5alloc3vec9into_iter8IntoIterTNtNtCs6IAuOt8vWmF_3syn8generics14WherePredicateNtNtB25_5token5CommaEENCINvNtB25_10punctuated4foldB21_B2M_NtNvCs3yqPx1X2sxh_15zerofrom_derive16replace_lifetime15ReplaceLifetimeNvYB3I_NtNtNtB25_3gen4fold4Fold20fold_where_predicateE0ENtB2_12IntoIterator9into_iterB3M_, symObjAddr: 0x5B14, symBinAddr: 0x4A938, symSize: 0x30 }
  - { offset: 0x69E17, size: 0x8, addend: 0x0, symName: __RNvXNtNtNtCsfvfooZQ3Axs_4core4iter6traits7collectINtNtNtB6_8adapters3map3MapINtNtNtCse1nGBsou5OW_5alloc3vec9into_iter8IntoIterTNtNtCs6IAuOt8vWmF_3syn8generics14WherePredicateNtNtB25_5token5CommaEENCINvNtB25_10punctuated4foldB21_B2M_NtNvCs3yqPx1X2sxh_15zerofrom_derive25replace_lifetime_and_type20ReplaceLifetimeAndTyNvYB3I_NtNtNtB25_3gen4fold4Fold20fold_where_predicateE0ENtB2_12IntoIterator9into_iterB3M_, symObjAddr: 0x5B44, symBinAddr: 0x4A968, symSize: 0x30 }
  - { offset: 0x69E4F, size: 0x8, addend: 0x0, symName: __RNvXNtNtNtCsfvfooZQ3Axs_4core4iter6traits7collectINtNtNtB6_8adapters3map3MapINtNtNtCse1nGBsou5OW_5alloc3vec9into_iter8IntoIterTNtNtCs6IAuOt8vWmF_3syn8lifetime8LifetimeNtNtB25_5token4PlusEENCINvNtB25_10punctuated4foldB21_B2F_NtNvCs3yqPx1X2sxh_15zerofrom_derive16replace_lifetime15ReplaceLifetimeNvYB3A_NtNtNtB25_3gen4fold4Fold13fold_lifetimeE0ENtB2_12IntoIterator9into_iterB3E_, symObjAddr: 0x5B74, symBinAddr: 0x4A998, symSize: 0x30 }
  - { offset: 0x69E87, size: 0x8, addend: 0x0, symName: __RNvXNtNtNtCsfvfooZQ3Axs_4core4iter6traits7collectINtNtNtB6_8adapters3map3MapINtNtNtCse1nGBsou5OW_5alloc3vec9into_iter8IntoIterTNtNtCs6IAuOt8vWmF_3syn8lifetime8LifetimeNtNtB25_5token4PlusEENCINvNtB25_10punctuated4foldB21_B2F_NtNvCs3yqPx1X2sxh_15zerofrom_derive25replace_lifetime_and_type20ReplaceLifetimeAndTyNvYB3A_NtNtNtB25_3gen4fold4Fold13fold_lifetimeE0ENtB2_12IntoIterator9into_iterB3E_, symObjAddr: 0x5BA4, symBinAddr: 0x4A9C8, symSize: 0x30 }
  - { offset: 0x69EBF, size: 0x8, addend: 0x0, symName: __RNvXNtNtNtCsfvfooZQ3Axs_4core4iter6traits7collectINtNtNtB6_8adapters3map3MapNtNtCs6IAuOt8vWmF_3syn8generics10TypeParamsNCNvCs3yqPx1X2sxh_15zerofrom_derive14zf_derive_impl0ENtB2_12IntoIterator9into_iterB1X_, symObjAddr: 0x5BD4, symBinAddr: 0x4A9F8, symSize: 0x1C }
  - { offset: 0x70318, size: 0x8, addend: 0x0, symName: __RNvXs0_NtNtCse1nGBsou5OW_5alloc3vec16in_place_collectINtNtNtNtCsfvfooZQ3Axs_4core4iter8adapters3map3MapINtNtB7_9into_iter8IntoIterNtNtCs6IAuOt8vWmF_3syn4attr9AttributeENCINvNtNtB28_3gen4fold8fold_vecB24_NtNvCs3yqPx1X2sxh_15zerofrom_derive16replace_lifetime15ReplaceLifetimeNvYB3f_NtB2L_4Fold14fold_attributeE0EINtB5_18SpecInPlaceCollectB24_BP_E16collect_in_placeB3j_, symObjAddr: 0x5BF0, symBinAddr: 0x4AA14, symSize: 0xC8 }
  - { offset: 0x70467, size: 0x8, addend: 0x0, symName: __RNvXs0_NtNtCse1nGBsou5OW_5alloc3vec16in_place_collectINtNtNtNtCsfvfooZQ3Axs_4core4iter8adapters3map3MapINtNtB7_9into_iter8IntoIterNtNtCs6IAuOt8vWmF_3syn4attr9AttributeENCINvNtNtB28_3gen4fold8fold_vecB24_NtNvCs3yqPx1X2sxh_15zerofrom_derive25replace_lifetime_and_type20ReplaceLifetimeAndTyNvYB3f_NtB2L_4Fold14fold_attributeE0EINtB5_18SpecInPlaceCollectB24_BP_E16collect_in_placeB3j_, symObjAddr: 0x5CB8, symBinAddr: 0x4AADC, symSize: 0xC8 }
  - { offset: 0x705B6, size: 0x8, addend: 0x0, symName: __RNvXs0_NtNtCse1nGBsou5OW_5alloc3vec16in_place_collectINtNtNtNtCsfvfooZQ3Axs_4core4iter8adapters3map3MapINtNtB7_9into_iter8IntoIterNtNtCs6IAuOt8vWmF_3syn4expr3ArmENCINvNtNtB28_3gen4fold8fold_vecB24_NtNvCs3yqPx1X2sxh_15zerofrom_derive16replace_lifetime15ReplaceLifetimeNvYB39_NtB2F_4Fold8fold_armE0EINtB5_18SpecInPlaceCollectB24_BP_E16collect_in_placeB3d_, symObjAddr: 0x5D80, symBinAddr: 0x4ABA4, symSize: 0xC8 }
  - { offset: 0x70705, size: 0x8, addend: 0x0, symName: __RNvXs0_NtNtCse1nGBsou5OW_5alloc3vec16in_place_collectINtNtNtNtCsfvfooZQ3Axs_4core4iter8adapters3map3MapINtNtB7_9into_iter8IntoIterNtNtCs6IAuOt8vWmF_3syn4expr3ArmENCINvNtNtB28_3gen4fold8fold_vecB24_NtNvCs3yqPx1X2sxh_15zerofrom_derive25replace_lifetime_and_type20ReplaceLifetimeAndTyNvYB39_NtB2F_4Fold8fold_armE0EINtB5_18SpecInPlaceCollectB24_BP_E16collect_in_placeB3d_, symObjAddr: 0x5E48, symBinAddr: 0x4AC6C, symSize: 0xC8 }
  - { offset: 0x70854, size: 0x8, addend: 0x0, symName: __RNvXs0_NtNtCse1nGBsou5OW_5alloc3vec16in_place_collectINtNtNtNtCsfvfooZQ3Axs_4core4iter8adapters3map3MapINtNtB7_9into_iter8IntoIterNtNtCs6IAuOt8vWmF_3syn4item11ForeignItemENCINvNtNtB28_3gen4fold8fold_vecB24_NtNvCs3yqPx1X2sxh_15zerofrom_derive16replace_lifetime15ReplaceLifetimeNvYB3i_NtB2O_4Fold17fold_foreign_itemE0EINtB5_18SpecInPlaceCollectB24_BP_E16collect_in_placeB3m_, symObjAddr: 0x5F10, symBinAddr: 0x4AD34, symSize: 0xC8 }
  - { offset: 0x709A3, size: 0x8, addend: 0x0, symName: __RNvXs0_NtNtCse1nGBsou5OW_5alloc3vec16in_place_collectINtNtNtNtCsfvfooZQ3Axs_4core4iter8adapters3map3MapINtNtB7_9into_iter8IntoIterNtNtCs6IAuOt8vWmF_3syn4item11ForeignItemENCINvNtNtB28_3gen4fold8fold_vecB24_NtNvCs3yqPx1X2sxh_15zerofrom_derive25replace_lifetime_and_type20ReplaceLifetimeAndTyNvYB3i_NtB2O_4Fold17fold_foreign_itemE0EINtB5_18SpecInPlaceCollectB24_BP_E16collect_in_placeB3m_, symObjAddr: 0x5FD8, symBinAddr: 0x4ADFC, symSize: 0xC8 }
  - { offset: 0x70AF2, size: 0x8, addend: 0x0, symName: __RNvXs0_NtNtCse1nGBsou5OW_5alloc3vec16in_place_collectINtNtNtNtCsfvfooZQ3Axs_4core4iter8adapters3map3MapINtNtB7_9into_iter8IntoIterNtNtCs6IAuOt8vWmF_3syn4item4ItemENCINvNtNtB28_3gen4fold8fold_vecB24_NtNvCs3yqPx1X2sxh_15zerofrom_derive16replace_lifetime15ReplaceLifetimeNvYB3a_NtB2G_4Fold9fold_itemE0EINtB5_18SpecInPlaceCollectB24_BP_E16collect_in_placeB3e_, symObjAddr: 0x60A0, symBinAddr: 0x4AEC4, symSize: 0xC8 }
  - { offset: 0x70C41, size: 0x8, addend: 0x0, symName: __RNvXs0_NtNtCse1nGBsou5OW_5alloc3vec16in_place_collectINtNtNtNtCsfvfooZQ3Axs_4core4iter8adapters3map3MapINtNtB7_9into_iter8IntoIterNtNtCs6IAuOt8vWmF_3syn4item4ItemENCINvNtNtB28_3gen4fold8fold_vecB24_NtNvCs3yqPx1X2sxh_15zerofrom_derive25replace_lifetime_and_type20ReplaceLifetimeAndTyNvYB3a_NtB2G_4Fold9fold_itemE0EINtB5_18SpecInPlaceCollectB24_BP_E16collect_in_placeB3e_, symObjAddr: 0x6168, symBinAddr: 0x4AF8C, symSize: 0xC8 }
  - { offset: 0x70D90, size: 0x8, addend: 0x0, symName: __RNvXs0_NtNtCse1nGBsou5OW_5alloc3vec16in_place_collectINtNtNtNtCsfvfooZQ3Axs_4core4iter8adapters3map3MapINtNtB7_9into_iter8IntoIterNtNtCs6IAuOt8vWmF_3syn4item8ImplItemENCINvNtNtB28_3gen4fold8fold_vecB24_NtNvCs3yqPx1X2sxh_15zerofrom_derive16replace_lifetime15ReplaceLifetimeNvYB3e_NtB2K_4Fold14fold_impl_itemE0EINtB5_18SpecInPlaceCollectB24_BP_E16collect_in_placeB3i_, symObjAddr: 0x6230, symBinAddr: 0x4B054, symSize: 0xC8 }
  - { offset: 0x70EDF, size: 0x8, addend: 0x0, symName: __RNvXs0_NtNtCse1nGBsou5OW_5alloc3vec16in_place_collectINtNtNtNtCsfvfooZQ3Axs_4core4iter8adapters3map3MapINtNtB7_9into_iter8IntoIterNtNtCs6IAuOt8vWmF_3syn4item8ImplItemENCINvNtNtB28_3gen4fold8fold_vecB24_NtNvCs3yqPx1X2sxh_15zerofrom_derive25replace_lifetime_and_type20ReplaceLifetimeAndTyNvYB3e_NtB2K_4Fold14fold_impl_itemE0EINtB5_18SpecInPlaceCollectB24_BP_E16collect_in_placeB3i_, symObjAddr: 0x62F8, symBinAddr: 0x4B11C, symSize: 0xC8 }
  - { offset: 0x7102E, size: 0x8, addend: 0x0, symName: __RNvXs0_NtNtCse1nGBsou5OW_5alloc3vec16in_place_collectINtNtNtNtCsfvfooZQ3Axs_4core4iter8adapters3map3MapINtNtB7_9into_iter8IntoIterNtNtCs6IAuOt8vWmF_3syn4item9TraitItemENCINvNtNtB28_3gen4fold8fold_vecB24_NtNvCs3yqPx1X2sxh_15zerofrom_derive16replace_lifetime15ReplaceLifetimeNvYB3f_NtB2L_4Fold15fold_trait_itemE0EINtB5_18SpecInPlaceCollectB24_BP_E16collect_in_placeB3j_, symObjAddr: 0x63C0, symBinAddr: 0x4B1E4, symSize: 0xC8 }
  - { offset: 0x7117D, size: 0x8, addend: 0x0, symName: __RNvXs0_NtNtCse1nGBsou5OW_5alloc3vec16in_place_collectINtNtNtNtCsfvfooZQ3Axs_4core4iter8adapters3map3MapINtNtB7_9into_iter8IntoIterNtNtCs6IAuOt8vWmF_3syn4item9TraitItemENCINvNtNtB28_3gen4fold8fold_vecB24_NtNvCs3yqPx1X2sxh_15zerofrom_derive25replace_lifetime_and_type20ReplaceLifetimeAndTyNvYB3f_NtB2L_4Fold15fold_trait_itemE0EINtB5_18SpecInPlaceCollectB24_BP_E16collect_in_placeB3j_, symObjAddr: 0x6488, symBinAddr: 0x4B2AC, symSize: 0xC8 }
  - { offset: 0x712CC, size: 0x8, addend: 0x0, symName: __RNvXs0_NtNtCse1nGBsou5OW_5alloc3vec16in_place_collectINtNtNtNtCsfvfooZQ3Axs_4core4iter8adapters3map3MapINtNtB7_9into_iter8IntoIterNtNtCs6IAuOt8vWmF_3syn4stmt4StmtENCINvNtNtB28_3gen4fold8fold_vecB24_NtNvCs3yqPx1X2sxh_15zerofrom_derive16replace_lifetime15ReplaceLifetimeNvYB3a_NtB2G_4Fold9fold_stmtE0EINtB5_18SpecInPlaceCollectB24_BP_E16collect_in_placeB3e_, symObjAddr: 0x6550, symBinAddr: 0x4B374, symSize: 0xC8 }
  - { offset: 0x7141B, size: 0x8, addend: 0x0, symName: __RNvXs0_NtNtCse1nGBsou5OW_5alloc3vec16in_place_collectINtNtNtNtCsfvfooZQ3Axs_4core4iter8adapters3map3MapINtNtB7_9into_iter8IntoIterNtNtCs6IAuOt8vWmF_3syn4stmt4StmtENCINvNtNtB28_3gen4fold8fold_vecB24_NtNvCs3yqPx1X2sxh_15zerofrom_derive25replace_lifetime_and_type20ReplaceLifetimeAndTyNvYB3a_NtB2G_4Fold9fold_stmtE0EINtB5_18SpecInPlaceCollectB24_BP_E16collect_in_placeB3e_, symObjAddr: 0x6618, symBinAddr: 0x4B43C, symSize: 0xC8 }
  - { offset: 0x7156A, size: 0x8, addend: 0x0, symName: __RNvXs0_NtNtCse1nGBsou5OW_5alloc3vec16in_place_collectINtNtNtNtCsfvfooZQ3Axs_4core4iter8adapters3map3MapINtNtB7_9into_iter8IntoIterTNtNtCs6IAuOt8vWmF_3syn2ty4TypeNtNtB29_5token5CommaEENCINvNtB29_10punctuated4foldB25_B2z_NtNvCs3yqPx1X2sxh_15zerofrom_derive16replace_lifetime15ReplaceLifetimeNvYB3v_NtNtNtB29_3gen4fold4Fold9fold_typeE0EINtB5_18SpecInPlaceCollectB24_BP_E16collect_in_placeB3z_, symObjAddr: 0x66E0, symBinAddr: 0x4B504, symSize: 0xC8 }
  - { offset: 0x716B9, size: 0x8, addend: 0x0, symName: __RNvXs0_NtNtCse1nGBsou5OW_5alloc3vec16in_place_collectINtNtNtNtCsfvfooZQ3Axs_4core4iter8adapters3map3MapINtNtB7_9into_iter8IntoIterTNtNtCs6IAuOt8vWmF_3syn2ty4TypeNtNtB29_5token5CommaEENCINvNtB29_10punctuated4foldB25_B2z_NtNvCs3yqPx1X2sxh_15zerofrom_derive25replace_lifetime_and_type20ReplaceLifetimeAndTyNvYB3v_NtNtNtB29_3gen4fold4Fold9fold_typeE0EINtB5_18SpecInPlaceCollectB24_BP_E16collect_in_placeB3z_, symObjAddr: 0x67A8, symBinAddr: 0x4B5CC, symSize: 0xC8 }
  - { offset: 0x71808, size: 0x8, addend: 0x0, symName: __RNvXs0_NtNtCse1nGBsou5OW_5alloc3vec16in_place_collectINtNtNtNtCsfvfooZQ3Axs_4core4iter8adapters3map3MapINtNtB7_9into_iter8IntoIterTNtNtCs6IAuOt8vWmF_3syn2ty9BareFnArgNtNtB29_5token5CommaEENCINvNtB29_10punctuated4foldB25_B2E_NtNvCs3yqPx1X2sxh_15zerofrom_derive16replace_lifetime15ReplaceLifetimeNvYB3A_NtNtNtB29_3gen4fold4Fold16fold_bare_fn_argE0EINtB5_18SpecInPlaceCollectB24_BP_E16collect_in_placeB3E_, symObjAddr: 0x6870, symBinAddr: 0x4B694, symSize: 0xC8 }
  - { offset: 0x71957, size: 0x8, addend: 0x0, symName: __RNvXs0_NtNtCse1nGBsou5OW_5alloc3vec16in_place_collectINtNtNtNtCsfvfooZQ3Axs_4core4iter8adapters3map3MapINtNtB7_9into_iter8IntoIterTNtNtCs6IAuOt8vWmF_3syn2ty9BareFnArgNtNtB29_5token5CommaEENCINvNtB29_10punctuated4foldB25_B2E_NtNvCs3yqPx1X2sxh_15zerofrom_derive25replace_lifetime_and_type20ReplaceLifetimeAndTyNvYB3A_NtNtNtB29_3gen4fold4Fold16fold_bare_fn_argE0EINtB5_18SpecInPlaceCollectB24_BP_E16collect_in_placeB3E_, symObjAddr: 0x6938, symBinAddr: 0x4B75C, symSize: 0xC8 }
  - { offset: 0x71AA6, size: 0x8, addend: 0x0, symName: __RNvXs0_NtNtCse1nGBsou5OW_5alloc3vec16in_place_collectINtNtNtNtCsfvfooZQ3Axs_4core4iter8adapters3map3MapINtNtB7_9into_iter8IntoIterTNtNtCs6IAuOt8vWmF_3syn3pat3PatNtNtB29_5token2OrEENCINvNtB29_10punctuated4foldB25_B2z_NtNvCs3yqPx1X2sxh_15zerofrom_derive16replace_lifetime15ReplaceLifetimeNvYB3s_NtNtNtB29_3gen4fold4Fold8fold_patE0EINtB5_18SpecInPlaceCollectB24_BP_E16collect_in_placeB3w_, symObjAddr: 0x6A00, symBinAddr: 0x4B824, symSize: 0xC8 }
  - { offset: 0x71BF5, size: 0x8, addend: 0x0, symName: __RNvXs0_NtNtCse1nGBsou5OW_5alloc3vec16in_place_collectINtNtNtNtCsfvfooZQ3Axs_4core4iter8adapters3map3MapINtNtB7_9into_iter8IntoIterTNtNtCs6IAuOt8vWmF_3syn3pat3PatNtNtB29_5token2OrEENCINvNtB29_10punctuated4foldB25_B2z_NtNvCs3yqPx1X2sxh_15zerofrom_derive25replace_lifetime_and_type20ReplaceLifetimeAndTyNvYB3s_NtNtNtB29_3gen4fold4Fold8fold_patE0EINtB5_18SpecInPlaceCollectB24_BP_E16collect_in_placeB3w_, symObjAddr: 0x6AC8, symBinAddr: 0x4B8EC, symSize: 0xC8 }
  - { offset: 0x71D44, size: 0x8, addend: 0x0, symName: __RNvXs0_NtNtCse1nGBsou5OW_5alloc3vec16in_place_collectINtNtNtNtCsfvfooZQ3Axs_4core4iter8adapters3map3MapINtNtB7_9into_iter8IntoIterTNtNtCs6IAuOt8vWmF_3syn3pat3PatNtNtB29_5token5CommaEENCINvNtB29_10punctuated4foldB25_B2z_NtNvCs3yqPx1X2sxh_15zerofrom_derive16replace_lifetime15ReplaceLifetimeNvYB3v_NtNtNtB29_3gen4fold4Fold8fold_patE0EINtB5_18SpecInPlaceCollectB24_BP_E16collect_in_placeB3z_, symObjAddr: 0x6B90, symBinAddr: 0x4B9B4, symSize: 0xC8 }
  - { offset: 0x71E93, size: 0x8, addend: 0x0, symName: __RNvXs0_NtNtCse1nGBsou5OW_5alloc3vec16in_place_collectINtNtNtNtCsfvfooZQ3Axs_4core4iter8adapters3map3MapINtNtB7_9into_iter8IntoIterTNtNtCs6IAuOt8vWmF_3syn3pat3PatNtNtB29_5token5CommaEENCINvNtB29_10punctuated4foldB25_B2z_NtNvCs3yqPx1X2sxh_15zerofrom_derive25replace_lifetime_and_type20ReplaceLifetimeAndTyNvYB3v_NtNtNtB29_3gen4fold4Fold8fold_patE0EINtB5_18SpecInPlaceCollectB24_BP_E16collect_in_placeB3z_, symObjAddr: 0x6C58, symBinAddr: 0x4BA7C, symSize: 0xC8 }
  - { offset: 0x71FE2, size: 0x8, addend: 0x0, symName: __RNvXs0_NtNtCse1nGBsou5OW_5alloc3vec16in_place_collectINtNtNtNtCsfvfooZQ3Axs_4core4iter8adapters3map3MapINtNtB7_9into_iter8IntoIterTNtNtCs6IAuOt8vWmF_3syn3pat8FieldPatNtNtB29_5token5CommaEENCINvNtB29_10punctuated4foldB25_B2E_NtNvCs3yqPx1X2sxh_15zerofrom_derive16replace_lifetime15ReplaceLifetimeNvYB3A_NtNtNtB29_3gen4fold4Fold14fold_field_patE0EINtB5_18SpecInPlaceCollectB24_BP_E16collect_in_placeB3E_, symObjAddr: 0x6D20, symBinAddr: 0x4BB44, symSize: 0xC8 }
  - { offset: 0x72131, size: 0x8, addend: 0x0, symName: __RNvXs0_NtNtCse1nGBsou5OW_5alloc3vec16in_place_collectINtNtNtNtCsfvfooZQ3Axs_4core4iter8adapters3map3MapINtNtB7_9into_iter8IntoIterTNtNtCs6IAuOt8vWmF_3syn3pat8FieldPatNtNtB29_5token5CommaEENCINvNtB29_10punctuated4foldB25_B2E_NtNvCs3yqPx1X2sxh_15zerofrom_derive25replace_lifetime_and_type20ReplaceLifetimeAndTyNvYB3A_NtNtNtB29_3gen4fold4Fold14fold_field_patE0EINtB5_18SpecInPlaceCollectB24_BP_E16collect_in_placeB3E_, symObjAddr: 0x6DE8, symBinAddr: 0x4BC0C, symSize: 0xC8 }
  - { offset: 0x72280, size: 0x8, addend: 0x0, symName: __RNvXs0_NtNtCse1nGBsou5OW_5alloc3vec16in_place_collectINtNtNtNtCsfvfooZQ3Axs_4core4iter8adapters3map3MapINtNtB7_9into_iter8IntoIterTNtNtCs6IAuOt8vWmF_3syn4data5FieldNtNtB29_5token5CommaEENCINvNtB29_10punctuated4foldB25_B2C_NtNvCs3yqPx1X2sxh_15zerofrom_derive16replace_lifetime15ReplaceLifetimeNvYB3y_NtNtNtB29_3gen4fold4Fold10fold_fieldE0EINtB5_18SpecInPlaceCollectB24_BP_E16collect_in_placeB3C_, symObjAddr: 0x6EB0, symBinAddr: 0x4BCD4, symSize: 0xC8 }
  - { offset: 0x723CF, size: 0x8, addend: 0x0, symName: __RNvXs0_NtNtCse1nGBsou5OW_5alloc3vec16in_place_collectINtNtNtNtCsfvfooZQ3Axs_4core4iter8adapters3map3MapINtNtB7_9into_iter8IntoIterTNtNtCs6IAuOt8vWmF_3syn4data5FieldNtNtB29_5token5CommaEENCINvNtB29_10punctuated4foldB25_B2C_NtNvCs3yqPx1X2sxh_15zerofrom_derive25replace_lifetime_and_type20ReplaceLifetimeAndTyNvYB3y_NtNtNtB29_3gen4fold4Fold10fold_fieldE0EINtB5_18SpecInPlaceCollectB24_BP_E16collect_in_placeB3C_, symObjAddr: 0x6F78, symBinAddr: 0x4BD9C, symSize: 0xC8 }
  - { offset: 0x7251E, size: 0x8, addend: 0x0, symName: __RNvXs0_NtNtCse1nGBsou5OW_5alloc3vec16in_place_collectINtNtNtNtCsfvfooZQ3Axs_4core4iter8adapters3map3MapINtNtB7_9into_iter8IntoIterTNtNtCs6IAuOt8vWmF_3syn4data7VariantNtNtB29_5token5CommaEENCINvNtB29_10punctuated4foldB25_B2E_NtNvCs3yqPx1X2sxh_15zerofrom_derive16replace_lifetime15ReplaceLifetimeNvYB3A_NtNtNtB29_3gen4fold4Fold12fold_variantE0EINtB5_18SpecInPlaceCollectB24_BP_E16collect_in_placeB3E_, symObjAddr: 0x7040, symBinAddr: 0x4BE64, symSize: 0xC8 }
  - { offset: 0x7266D, size: 0x8, addend: 0x0, symName: __RNvXs0_NtNtCse1nGBsou5OW_5alloc3vec16in_place_collectINtNtNtNtCsfvfooZQ3Axs_4core4iter8adapters3map3MapINtNtB7_9into_iter8IntoIterTNtNtCs6IAuOt8vWmF_3syn4data7VariantNtNtB29_5token5CommaEENCINvNtB29_10punctuated4foldB25_B2E_NtNvCs3yqPx1X2sxh_15zerofrom_derive25replace_lifetime_and_type20ReplaceLifetimeAndTyNvYB3A_NtNtNtB29_3gen4fold4Fold12fold_variantE0EINtB5_18SpecInPlaceCollectB24_BP_E16collect_in_placeB3E_, symObjAddr: 0x7108, symBinAddr: 0x4BF2C, symSize: 0xC8 }
  - { offset: 0x727BC, size: 0x8, addend: 0x0, symName: __RNvXs0_NtNtCse1nGBsou5OW_5alloc3vec16in_place_collectINtNtNtNtCsfvfooZQ3Axs_4core4iter8adapters3map3MapINtNtB7_9into_iter8IntoIterTNtNtCs6IAuOt8vWmF_3syn4expr10FieldValueNtNtB29_5token5CommaEENCINvNtB29_10punctuated4foldB25_B2I_NtNvCs3yqPx1X2sxh_15zerofrom_derive16replace_lifetime15ReplaceLifetimeNvYB3E_NtNtNtB29_3gen4fold4Fold16fold_field_valueE0EINtB5_18SpecInPlaceCollectB24_BP_E16collect_in_placeB3I_, symObjAddr: 0x71D0, symBinAddr: 0x4BFF4, symSize: 0xC8 }
  - { offset: 0x7290B, size: 0x8, addend: 0x0, symName: __RNvXs0_NtNtCse1nGBsou5OW_5alloc3vec16in_place_collectINtNtNtNtCsfvfooZQ3Axs_4core4iter8adapters3map3MapINtNtB7_9into_iter8IntoIterTNtNtCs6IAuOt8vWmF_3syn4expr10FieldValueNtNtB29_5token5CommaEENCINvNtB29_10punctuated4foldB25_B2I_NtNvCs3yqPx1X2sxh_15zerofrom_derive25replace_lifetime_and_type20ReplaceLifetimeAndTyNvYB3E_NtNtNtB29_3gen4fold4Fold16fold_field_valueE0EINtB5_18SpecInPlaceCollectB24_BP_E16collect_in_placeB3I_, symObjAddr: 0x7298, symBinAddr: 0x4C0BC, symSize: 0xC8 }
  - { offset: 0x72A5A, size: 0x8, addend: 0x0, symName: __RNvXs0_NtNtCse1nGBsou5OW_5alloc3vec16in_place_collectINtNtNtNtCsfvfooZQ3Axs_4core4iter8adapters3map3MapINtNtB7_9into_iter8IntoIterTNtNtCs6IAuOt8vWmF_3syn4expr4ExprNtNtB29_5token5CommaEENCINvNtB29_10punctuated4foldB25_B2B_NtNvCs3yqPx1X2sxh_15zerofrom_derive16replace_lifetime15ReplaceLifetimeNvYB3x_NtNtNtB29_3gen4fold4Fold9fold_exprE0EINtB5_18SpecInPlaceCollectB24_BP_E16collect_in_placeB3B_, symObjAddr: 0x7360, symBinAddr: 0x4C184, symSize: 0xC8 }
  - { offset: 0x72BA9, size: 0x8, addend: 0x0, symName: __RNvXs0_NtNtCse1nGBsou5OW_5alloc3vec16in_place_collectINtNtNtNtCsfvfooZQ3Axs_4core4iter8adapters3map3MapINtNtB7_9into_iter8IntoIterTNtNtCs6IAuOt8vWmF_3syn4expr4ExprNtNtB29_5token5CommaEENCINvNtB29_10punctuated4foldB25_B2B_NtNvCs3yqPx1X2sxh_15zerofrom_derive25replace_lifetime_and_type20ReplaceLifetimeAndTyNvYB3x_NtNtNtB29_3gen4fold4Fold9fold_exprE0EINtB5_18SpecInPlaceCollectB24_BP_E16collect_in_placeB3B_, symObjAddr: 0x7428, symBinAddr: 0x4C24C, symSize: 0xC8 }
  - { offset: 0x72CF8, size: 0x8, addend: 0x0, symName: __RNvXs0_NtNtCse1nGBsou5OW_5alloc3vec16in_place_collectINtNtNtNtCsfvfooZQ3Axs_4core4iter8adapters3map3MapINtNtB7_9into_iter8IntoIterTNtNtCs6IAuOt8vWmF_3syn4item5FnArgNtNtB29_5token5CommaEENCINvNtB29_10punctuated4foldB25_B2C_NtNvCs3yqPx1X2sxh_15zerofrom_derive16replace_lifetime15ReplaceLifetimeNvYB3y_NtNtNtB29_3gen4fold4Fold11fold_fn_argE0EINtB5_18SpecInPlaceCollectB24_BP_E16collect_in_placeB3C_, symObjAddr: 0x74F0, symBinAddr: 0x4C314, symSize: 0xC8 }
  - { offset: 0x72E47, size: 0x8, addend: 0x0, symName: __RNvXs0_NtNtCse1nGBsou5OW_5alloc3vec16in_place_collectINtNtNtNtCsfvfooZQ3Axs_4core4iter8adapters3map3MapINtNtB7_9into_iter8IntoIterTNtNtCs6IAuOt8vWmF_3syn4item5FnArgNtNtB29_5token5CommaEENCINvNtB29_10punctuated4foldB25_B2C_NtNvCs3yqPx1X2sxh_15zerofrom_derive25replace_lifetime_and_type20ReplaceLifetimeAndTyNvYB3y_NtNtNtB29_3gen4fold4Fold11fold_fn_argE0EINtB5_18SpecInPlaceCollectB24_BP_E16collect_in_placeB3C_, symObjAddr: 0x75B8, symBinAddr: 0x4C3DC, symSize: 0xC8 }
  - { offset: 0x72F96, size: 0x8, addend: 0x0, symName: __RNvXs0_NtNtCse1nGBsou5OW_5alloc3vec16in_place_collectINtNtNtNtCsfvfooZQ3Axs_4core4iter8adapters3map3MapINtNtB7_9into_iter8IntoIterTNtNtCs6IAuOt8vWmF_3syn4item7UseTreeNtNtB29_5token5CommaEENCINvNtB29_10punctuated4foldB25_B2E_NtNvCs3yqPx1X2sxh_15zerofrom_derive16replace_lifetime15ReplaceLifetimeNvYB3A_NtNtNtB29_3gen4fold4Fold13fold_use_treeE0EINtB5_18SpecInPlaceCollectB24_BP_E16collect_in_placeB3E_, symObjAddr: 0x7680, symBinAddr: 0x4C4A4, symSize: 0xC8 }
  - { offset: 0x730E5, size: 0x8, addend: 0x0, symName: __RNvXs0_NtNtCse1nGBsou5OW_5alloc3vec16in_place_collectINtNtNtNtCsfvfooZQ3Axs_4core4iter8adapters3map3MapINtNtB7_9into_iter8IntoIterTNtNtCs6IAuOt8vWmF_3syn4item7UseTreeNtNtB29_5token5CommaEENCINvNtB29_10punctuated4foldB25_B2E_NtNvCs3yqPx1X2sxh_15zerofrom_derive25replace_lifetime_and_type20ReplaceLifetimeAndTyNvYB3A_NtNtNtB29_3gen4fold4Fold13fold_use_treeE0EINtB5_18SpecInPlaceCollectB24_BP_E16collect_in_placeB3E_, symObjAddr: 0x7748, symBinAddr: 0x4C56C, symSize: 0xC8 }
  - { offset: 0x73234, size: 0x8, addend: 0x0, symName: __RNvXs0_NtNtCse1nGBsou5OW_5alloc3vec16in_place_collectINtNtNtNtCsfvfooZQ3Axs_4core4iter8adapters3map3MapINtNtB7_9into_iter8IntoIterTNtNtCs6IAuOt8vWmF_3syn4path11PathSegmentNtNtB29_5token7PathSepEENCINvNtB29_10punctuated4foldB25_B2J_NtNvCs3yqPx1X2sxh_15zerofrom_derive16replace_lifetime15ReplaceLifetimeNvYB3H_NtNtNtB29_3gen4fold4Fold17fold_path_segmentE0EINtB5_18SpecInPlaceCollectB24_BP_E16collect_in_placeB3L_, symObjAddr: 0x7810, symBinAddr: 0x4C634, symSize: 0xC8 }
  - { offset: 0x73383, size: 0x8, addend: 0x0, symName: __RNvXs0_NtNtCse1nGBsou5OW_5alloc3vec16in_place_collectINtNtNtNtCsfvfooZQ3Axs_4core4iter8adapters3map3MapINtNtB7_9into_iter8IntoIterTNtNtCs6IAuOt8vWmF_3syn4path11PathSegmentNtNtB29_5token7PathSepEENCINvNtB29_10punctuated4foldB25_B2J_NtNvCs3yqPx1X2sxh_15zerofrom_derive25replace_lifetime_and_type20ReplaceLifetimeAndTyNvYB3H_NtNtNtB29_3gen4fold4Fold17fold_path_segmentE0EINtB5_18SpecInPlaceCollectB24_BP_E16collect_in_placeB3L_, symObjAddr: 0x78D8, symBinAddr: 0x4C6FC, symSize: 0xC8 }
  - { offset: 0x734D2, size: 0x8, addend: 0x0, symName: __RNvXs0_NtNtCse1nGBsou5OW_5alloc3vec16in_place_collectINtNtNtNtCsfvfooZQ3Axs_4core4iter8adapters3map3MapINtNtB7_9into_iter8IntoIterTNtNtCs6IAuOt8vWmF_3syn4path15GenericArgumentNtNtB29_5token5CommaEENCINvNtB29_10punctuated4foldB25_B2N_NtNvCs3yqPx1X2sxh_15zerofrom_derive16replace_lifetime15ReplaceLifetimeNvYB3J_NtNtNtB29_3gen4fold4Fold21fold_generic_argumentE0EINtB5_18SpecInPlaceCollectB24_BP_E16collect_in_placeB3N_, symObjAddr: 0x79A0, symBinAddr: 0x4C7C4, symSize: 0xC8 }
  - { offset: 0x73621, size: 0x8, addend: 0x0, symName: __RNvXs0_NtNtCse1nGBsou5OW_5alloc3vec16in_place_collectINtNtNtNtCsfvfooZQ3Axs_4core4iter8adapters3map3MapINtNtB7_9into_iter8IntoIterTNtNtCs6IAuOt8vWmF_3syn4path15GenericArgumentNtNtB29_5token5CommaEENCINvNtB29_10punctuated4foldB25_B2N_NtNvCs3yqPx1X2sxh_15zerofrom_derive25replace_lifetime_and_type20ReplaceLifetimeAndTyNvYB3J_NtNtNtB29_3gen4fold4Fold21fold_generic_argumentE0EINtB5_18SpecInPlaceCollectB24_BP_E16collect_in_placeB3N_, symObjAddr: 0x7A68, symBinAddr: 0x4C88C, symSize: 0xC8 }
  - { offset: 0x73770, size: 0x8, addend: 0x0, symName: __RNvXs0_NtNtCse1nGBsou5OW_5alloc3vec16in_place_collectINtNtNtNtCsfvfooZQ3Axs_4core4iter8adapters3map3MapINtNtB7_9into_iter8IntoIterTNtNtCs6IAuOt8vWmF_3syn8generics12GenericParamNtNtB29_5token5CommaEENCINvNtB29_10punctuated4foldB25_B2O_NtNvCs3yqPx1X2sxh_15zerofrom_derive16replace_lifetime15ReplaceLifetimeNvYB3K_NtNtNtB29_3gen4fold4Fold18fold_generic_paramE0EINtB5_18SpecInPlaceCollectB24_BP_E16collect_in_placeB3O_, symObjAddr: 0x7B30, symBinAddr: 0x4C954, symSize: 0xC8 }
  - { offset: 0x738BF, size: 0x8, addend: 0x0, symName: __RNvXs0_NtNtCse1nGBsou5OW_5alloc3vec16in_place_collectINtNtNtNtCsfvfooZQ3Axs_4core4iter8adapters3map3MapINtNtB7_9into_iter8IntoIterTNtNtCs6IAuOt8vWmF_3syn8generics12GenericParamNtNtB29_5token5CommaEENCINvNtB29_10punctuated4foldB25_B2O_NtNvCs3yqPx1X2sxh_15zerofrom_derive25replace_lifetime_and_type20ReplaceLifetimeAndTyNvYB3K_NtNtNtB29_3gen4fold4Fold18fold_generic_paramE0EINtB5_18SpecInPlaceCollectB24_BP_E16collect_in_placeB3O_, symObjAddr: 0x7BF8, symBinAddr: 0x4CA1C, symSize: 0xC8 }
  - { offset: 0x73A0E, size: 0x8, addend: 0x0, symName: __RNvXs0_NtNtCse1nGBsou5OW_5alloc3vec16in_place_collectINtNtNtNtCsfvfooZQ3Axs_4core4iter8adapters3map3MapINtNtB7_9into_iter8IntoIterTNtNtCs6IAuOt8vWmF_3syn8generics13CapturedParamNtNtB29_5token5CommaEENCINvNtB29_10punctuated4foldB25_B2P_NtNvCs3yqPx1X2sxh_15zerofrom_derive16replace_lifetime15ReplaceLifetimeNvYB3L_NtNtNtB29_3gen4fold4Fold19fold_captured_paramE0EINtB5_18SpecInPlaceCollectB24_BP_E16collect_in_placeB3P_, symObjAddr: 0x7CC0, symBinAddr: 0x4CAE4, symSize: 0xC8 }
  - { offset: 0x73B5D, size: 0x8, addend: 0x0, symName: __RNvXs0_NtNtCse1nGBsou5OW_5alloc3vec16in_place_collectINtNtNtNtCsfvfooZQ3Axs_4core4iter8adapters3map3MapINtNtB7_9into_iter8IntoIterTNtNtCs6IAuOt8vWmF_3syn8generics13CapturedParamNtNtB29_5token5CommaEENCINvNtB29_10punctuated4foldB25_B2P_NtNvCs3yqPx1X2sxh_15zerofrom_derive25replace_lifetime_and_type20ReplaceLifetimeAndTyNvYB3L_NtNtNtB29_3gen4fold4Fold19fold_captured_paramE0EINtB5_18SpecInPlaceCollectB24_BP_E16collect_in_placeB3P_, symObjAddr: 0x7D88, symBinAddr: 0x4CBAC, symSize: 0xC8 }
  - { offset: 0x73CAC, size: 0x8, addend: 0x0, symName: __RNvXs0_NtNtCse1nGBsou5OW_5alloc3vec16in_place_collectINtNtNtNtCsfvfooZQ3Axs_4core4iter8adapters3map3MapINtNtB7_9into_iter8IntoIterTNtNtCs6IAuOt8vWmF_3syn8generics14TypeParamBoundNtNtB29_5token4PlusEENCINvNtB29_10punctuated4foldB25_B2Q_NtNvCs3yqPx1X2sxh_15zerofrom_derive16replace_lifetime15ReplaceLifetimeNvYB3L_NtNtNtB29_3gen4fold4Fold21fold_type_param_boundE0EINtB5_18SpecInPlaceCollectB24_BP_E16collect_in_placeB3P_, symObjAddr: 0x7E50, symBinAddr: 0x4CC74, symSize: 0xC8 }
  - { offset: 0x73DFB, size: 0x8, addend: 0x0, symName: __RNvXs0_NtNtCse1nGBsou5OW_5alloc3vec16in_place_collectINtNtNtNtCsfvfooZQ3Axs_4core4iter8adapters3map3MapINtNtB7_9into_iter8IntoIterTNtNtCs6IAuOt8vWmF_3syn8generics14TypeParamBoundNtNtB29_5token4PlusEENCINvNtB29_10punctuated4foldB25_B2Q_NtNvCs3yqPx1X2sxh_15zerofrom_derive25replace_lifetime_and_type20ReplaceLifetimeAndTyNvYB3L_NtNtNtB29_3gen4fold4Fold21fold_type_param_boundE0EINtB5_18SpecInPlaceCollectB24_BP_E16collect_in_placeB3P_, symObjAddr: 0x7F18, symBinAddr: 0x4CD3C, symSize: 0xC8 }
  - { offset: 0x73F4A, size: 0x8, addend: 0x0, symName: __RNvXs0_NtNtCse1nGBsou5OW_5alloc3vec16in_place_collectINtNtNtNtCsfvfooZQ3Axs_4core4iter8adapters3map3MapINtNtB7_9into_iter8IntoIterTNtNtCs6IAuOt8vWmF_3syn8generics14WherePredicateNtNtB29_5token5CommaEENCINvNtB29_10punctuated4foldB25_B2Q_NtNvCs3yqPx1X2sxh_15zerofrom_derive16replace_lifetime15ReplaceLifetimeNvYB3M_NtNtNtB29_3gen4fold4Fold20fold_where_predicateE0EINtB5_18SpecInPlaceCollectB24_BP_E16collect_in_placeB3Q_, symObjAddr: 0x7FE0, symBinAddr: 0x4CE04, symSize: 0xC8 }
  - { offset: 0x74099, size: 0x8, addend: 0x0, symName: __RNvXs0_NtNtCse1nGBsou5OW_5alloc3vec16in_place_collectINtNtNtNtCsfvfooZQ3Axs_4core4iter8adapters3map3MapINtNtB7_9into_iter8IntoIterTNtNtCs6IAuOt8vWmF_3syn8generics14WherePredicateNtNtB29_5token5CommaEENCINvNtB29_10punctuated4foldB25_B2Q_NtNvCs3yqPx1X2sxh_15zerofrom_derive25replace_lifetime_and_type20ReplaceLifetimeAndTyNvYB3M_NtNtNtB29_3gen4fold4Fold20fold_where_predicateE0EINtB5_18SpecInPlaceCollectB24_BP_E16collect_in_placeB3Q_, symObjAddr: 0x80A8, symBinAddr: 0x4CECC, symSize: 0xC8 }
  - { offset: 0x741E8, size: 0x8, addend: 0x0, symName: __RNvXs0_NtNtCse1nGBsou5OW_5alloc3vec16in_place_collectINtNtNtNtCsfvfooZQ3Axs_4core4iter8adapters3map3MapINtNtB7_9into_iter8IntoIterTNtNtCs6IAuOt8vWmF_3syn8lifetime8LifetimeNtNtB29_5token4PlusEENCINvNtB29_10punctuated4foldB25_B2J_NtNvCs3yqPx1X2sxh_15zerofrom_derive16replace_lifetime15ReplaceLifetimeNvYB3E_NtNtNtB29_3gen4fold4Fold13fold_lifetimeE0EINtB5_18SpecInPlaceCollectB24_BP_E16collect_in_placeB3I_, symObjAddr: 0x8170, symBinAddr: 0x4CF94, symSize: 0xC8 }
  - { offset: 0x74337, size: 0x8, addend: 0x0, symName: __RNvXs0_NtNtCse1nGBsou5OW_5alloc3vec16in_place_collectINtNtNtNtCsfvfooZQ3Axs_4core4iter8adapters3map3MapINtNtB7_9into_iter8IntoIterTNtNtCs6IAuOt8vWmF_3syn8lifetime8LifetimeNtNtB29_5token4PlusEENCINvNtB29_10punctuated4foldB25_B2J_NtNvCs3yqPx1X2sxh_15zerofrom_derive25replace_lifetime_and_type20ReplaceLifetimeAndTyNvYB3E_NtNtNtB29_3gen4fold4Fold13fold_lifetimeE0EINtB5_18SpecInPlaceCollectB24_BP_E16collect_in_placeB3I_, symObjAddr: 0x8238, symBinAddr: 0x4D05C, symSize: 0xC8 }
  - { offset: 0x7D946, size: 0x8, addend: 0x0, symName: __RINvNtNtCs6IAuOt8vWmF_3syn3gen5visit10visit_exprNtNtCs3yqPx1X2sxh_15zerofrom_derive7visitor11TypeVisitorEBO_, symObjAddr: 0x0, symBinAddr: 0x4D9A0, symSize: 0x7D8 }
  - { offset: 0x7E29D, size: 0x8, addend: 0x0, symName: __RINvNtNtCs6IAuOt8vWmF_3syn3gen5visit10visit_exprNtNtCs3yqPx1X2sxh_15zerofrom_derive7visitor11TypeVisitorEBO_, symObjAddr: 0x0, symBinAddr: 0x4D9A0, symSize: 0x7D8 }
  - { offset: 0x7E7A7, size: 0x8, addend: 0x0, symName: __RINvNtNtCs6IAuOt8vWmF_3syn3gen5visit10visit_itemNtNtCs3yqPx1X2sxh_15zerofrom_derive7visitor11TypeVisitorEBO_, symObjAddr: 0x7D8, symBinAddr: 0x4E178, symSize: 0x35C }
  - { offset: 0x7E9C7, size: 0x8, addend: 0x0, symName: __RINvNtNtCs6IAuOt8vWmF_3syn3gen5visit10visit_metaNtNtCs3yqPx1X2sxh_15zerofrom_derive7visitor11TypeVisitorEBO_, symObjAddr: 0xB34, symBinAddr: 0x4E4D4, symSize: 0xE8 }
  - { offset: 0x7EA5B, size: 0x8, addend: 0x0, symName: __RINvNtNtCs6IAuOt8vWmF_3syn3gen5visit10visit_pathNtNtCs3yqPx1X2sxh_15zerofrom_derive7visitor11TypeVisitorEBO_, symObjAddr: 0xC1C, symBinAddr: 0x4E5BC, symSize: 0xC8 }
  - { offset: 0x7EAF0, size: 0x8, addend: 0x0, symName: __RINvNtNtCs6IAuOt8vWmF_3syn3gen5visit10visit_stmtNtNtCs3yqPx1X2sxh_15zerofrom_derive7visitor11TypeVisitorEBO_, symObjAddr: 0xCE4, symBinAddr: 0x4E684, symSize: 0x12C }
  - { offset: 0x7EBB2, size: 0x8, addend: 0x0, symName: __RINvNtNtCs6IAuOt8vWmF_3syn3gen5visit10visit_typeNtNtCs3yqPx1X2sxh_15zerofrom_derive7visitor11TypeVisitorEBO_, symObjAddr: 0xE10, symBinAddr: 0x4E7B0, symSize: 0x328 }
  - { offset: 0x7EDB2, size: 0x8, addend: 0x0, symName: __RINvNtNtCs6IAuOt8vWmF_3syn3gen5visit11visit_blockNtNtCs3yqPx1X2sxh_15zerofrom_derive7visitor11TypeVisitorEBP_, symObjAddr: 0x1138, symBinAddr: 0x4EAD8, symSize: 0x98 }
  - { offset: 0x7EE28, size: 0x8, addend: 0x0, symName: __RINvNtNtCs6IAuOt8vWmF_3syn3gen5visit11visit_fieldNtNtCs3yqPx1X2sxh_15zerofrom_derive7visitor11TypeVisitorEBP_, symObjAddr: 0x11D0, symBinAddr: 0x4EB70, symSize: 0x118 }
  - { offset: 0x7EEB4, size: 0x8, addend: 0x0, symName: __RINvNtNtCs6IAuOt8vWmF_3syn3gen5visit11visit_identNtNtCs3yqPx1X2sxh_15zerofrom_derive7visitor11TypeVisitorEBP_, symObjAddr: 0x12E8, symBinAddr: 0x4EC88, symSize: 0x58 }
  - { offset: 0x7EEF6, size: 0x8, addend: 0x0, symName: __RINvNtNtCs6IAuOt8vWmF_3syn3gen5visit11visit_indexNtNtCs3yqPx1X2sxh_15zerofrom_derive7visitor11TypeVisitorEBP_, symObjAddr: 0x1340, symBinAddr: 0x4ECE0, symSize: 0x3C }
  - { offset: 0x7EF38, size: 0x8, addend: 0x0, symName: __RINvNtNtCs6IAuOt8vWmF_3syn3gen5visit11visit_labelNtNtCs3yqPx1X2sxh_15zerofrom_derive7visitor11TypeVisitorEBP_, symObjAddr: 0x137C, symBinAddr: 0x4ED1C, symSize: 0x3C }
  - { offset: 0x7EF7A, size: 0x8, addend: 0x0, symName: __RINvNtNtCs6IAuOt8vWmF_3syn3gen5visit11visit_localNtNtCs3yqPx1X2sxh_15zerofrom_derive7visitor11TypeVisitorEBP_, symObjAddr: 0x13B8, symBinAddr: 0x4ED58, symSize: 0x100 }
  - { offset: 0x7F006, size: 0x8, addend: 0x0, symName: __RINvNtNtCs6IAuOt8vWmF_3syn3gen5visit11visit_macroNtNtCs3yqPx1X2sxh_15zerofrom_derive7visitor11TypeVisitorEBP_, symObjAddr: 0x14B8, symBinAddr: 0x4EE58, symSize: 0x60 }
  - { offset: 0x7F048, size: 0x8, addend: 0x0, symName: __RINvNtNtCs6IAuOt8vWmF_3syn3gen5visit11visit_qselfNtNtCs3yqPx1X2sxh_15zerofrom_derive7visitor11TypeVisitorEBP_, symObjAddr: 0x1518, symBinAddr: 0x4EEB8, symSize: 0x68 }
  - { offset: 0x7F08A, size: 0x8, addend: 0x0, symName: __RINvNtNtCs6IAuOt8vWmF_3syn3gen5visit11visit_un_opNtNtCs3yqPx1X2sxh_15zerofrom_derive7visitor11TypeVisitorEBP_, symObjAddr: 0x1580, symBinAddr: 0x4EF20, symSize: 0xA8 }
  - { offset: 0x7F0CC, size: 0x8, addend: 0x0, symName: __RINvNtNtCs6IAuOt8vWmF_3syn3gen5visit12visit_bin_opNtNtCs3yqPx1X2sxh_15zerofrom_derive7visitor11TypeVisitorEBQ_, symObjAddr: 0x1628, symBinAddr: 0x4EFC8, symSize: 0x438 }
  - { offset: 0x7F10E, size: 0x8, addend: 0x0, symName: __RINvNtNtCs6IAuOt8vWmF_3syn3gen5visit12visit_fieldsNtNtCs3yqPx1X2sxh_15zerofrom_derive7visitor11TypeVisitorEBQ_, symObjAddr: 0x1A60, symBinAddr: 0x4F400, symSize: 0xC4 }
  - { offset: 0x7F18C, size: 0x8, addend: 0x0, symName: __RINvNtNtCs6IAuOt8vWmF_3syn3gen5visit12visit_fn_argNtNtCs3yqPx1X2sxh_15zerofrom_derive7visitor11TypeVisitorEBQ_, symObjAddr: 0x1B24, symBinAddr: 0x4F4C4, symSize: 0xA0 }
  - { offset: 0x7F202, size: 0x8, addend: 0x0, symName: __RINvNtNtCs6IAuOt8vWmF_3syn3gen5visit12visit_memberNtNtCs3yqPx1X2sxh_15zerofrom_derive7visitor11TypeVisitorEBQ_, symObjAddr: 0x1BC4, symBinAddr: 0x4F564, symSize: 0x98 }
  - { offset: 0x7F278, size: 0x8, addend: 0x0, symName: __RINvNtNtCs6IAuOt8vWmF_3syn3gen5visit12visit_pat_orNtNtCs3yqPx1X2sxh_15zerofrom_derive7visitor11TypeVisitorEBQ_, symObjAddr: 0x1C5C, symBinAddr: 0x4F5FC, symSize: 0x128 }
  - { offset: 0x7F341, size: 0x8, addend: 0x0, symName: __RINvNtNtCs6IAuOt8vWmF_3syn3gen5visit13visit_expr_ifNtNtCs3yqPx1X2sxh_15zerofrom_derive7visitor11TypeVisitorEBR_, symObjAddr: 0x1D84, symBinAddr: 0x4F724, symSize: 0x15C }
  - { offset: 0x7F3CD, size: 0x8, addend: 0x0, symName: __RINvNtNtCs6IAuOt8vWmF_3syn3gen5visit13visit_item_fnNtNtCs3yqPx1X2sxh_15zerofrom_derive7visitor11TypeVisitorEBR_, symObjAddr: 0x1EE0, symBinAddr: 0x4F880, symSize: 0xE8 }
  - { offset: 0x7F443, size: 0x8, addend: 0x0, symName: __RINvNtNtCs6IAuOt8vWmF_3syn3gen5visit13visit_lit_intNtNtCs3yqPx1X2sxh_15zerofrom_derive7visitor11TypeVisitorEBR_, symObjAddr: 0x1FC8, symBinAddr: 0x4F968, symSize: 0x24 }
  - { offset: 0x7F485, size: 0x8, addend: 0x0, symName: __RINvNtNtCs6IAuOt8vWmF_3syn3gen5visit13visit_lit_strNtNtCs3yqPx1X2sxh_15zerofrom_derive7visitor11TypeVisitorEBR_, symObjAddr: 0x1FEC, symBinAddr: 0x4F98C, symSize: 0x24 }
  - { offset: 0x7F4C7, size: 0x8, addend: 0x0, symName: __RINvNtNtCs6IAuOt8vWmF_3syn3gen5visit13visit_variantNtNtCs3yqPx1X2sxh_15zerofrom_derive7visitor11TypeVisitorEBR_, symObjAddr: 0x2010, symBinAddr: 0x4F9B0, symSize: 0x10C }
  - { offset: 0x7F553, size: 0x8, addend: 0x0, symName: __RINvNtNtCs6IAuOt8vWmF_3syn3gen5visit14visit_expr_letNtNtCs3yqPx1X2sxh_15zerofrom_derive7visitor11TypeVisitorEBS_, symObjAddr: 0x211C, symBinAddr: 0x4FABC, symSize: 0x104 }
  - { offset: 0x7F5C9, size: 0x8, addend: 0x0, symName: __RINvNtNtCs6IAuOt8vWmF_3syn3gen5visit14visit_expr_litNtNtCs3yqPx1X2sxh_15zerofrom_derive7visitor11TypeVisitorEBS_, symObjAddr: 0x2220, symBinAddr: 0x4FBC0, symSize: 0xA8 }
  - { offset: 0x7F63F, size: 0x8, addend: 0x0, symName: __RINvNtNtCs6IAuOt8vWmF_3syn3gen5visit14visit_expr_tryNtNtCs3yqPx1X2sxh_15zerofrom_derive7visitor11TypeVisitorEBS_, symObjAddr: 0x22C8, symBinAddr: 0x4FC68, symSize: 0xD0 }
  - { offset: 0x7F6B5, size: 0x8, addend: 0x0, symName: __RINvNtNtCs6IAuOt8vWmF_3syn3gen5visit14visit_genericsNtNtCs3yqPx1X2sxh_15zerofrom_derive7visitor11TypeVisitorEBS_, symObjAddr: 0x2398, symBinAddr: 0x4FD38, symSize: 0x124 }
  - { offset: 0x7F760, size: 0x8, addend: 0x0, symName: __RINvNtNtCs6IAuOt8vWmF_3syn3gen5visit14visit_item_modNtNtCs3yqPx1X2sxh_15zerofrom_derive7visitor11TypeVisitorEBS_, symObjAddr: 0x24BC, symBinAddr: 0x4FE5C, symSize: 0x168 }
  - { offset: 0x7F820, size: 0x8, addend: 0x0, symName: __RINvNtNtCs6IAuOt8vWmF_3syn3gen5visit14visit_item_useNtNtCs3yqPx1X2sxh_15zerofrom_derive7visitor11TypeVisitorEBS_, symObjAddr: 0x2624, symBinAddr: 0x4FFC4, symSize: 0xB8 }
  - { offset: 0x7F896, size: 0x8, addend: 0x0, symName: __RINvNtNtCs6IAuOt8vWmF_3syn3gen5visit14visit_lifetimeNtNtCs3yqPx1X2sxh_15zerofrom_derive7visitor11TypeVisitorEBS_, symObjAddr: 0x26DC, symBinAddr: 0x5007C, symSize: 0x50 }
  - { offset: 0x7F8D8, size: 0x8, addend: 0x0, symName: __RINvNtNtCs6IAuOt8vWmF_3syn3gen5visit14visit_lit_boolNtNtCs3yqPx1X2sxh_15zerofrom_derive7visitor11TypeVisitorEBS_, symObjAddr: 0x272C, symBinAddr: 0x500CC, symSize: 0x3C }
  - { offset: 0x7F91A, size: 0x8, addend: 0x0, symName: __RINvNtNtCs6IAuOt8vWmF_3syn3gen5visit14visit_lit_byteNtNtCs3yqPx1X2sxh_15zerofrom_derive7visitor11TypeVisitorEBS_, symObjAddr: 0x2768, symBinAddr: 0x50108, symSize: 0x24 }
  - { offset: 0x7F95C, size: 0x8, addend: 0x0, symName: __RINvNtNtCs6IAuOt8vWmF_3syn3gen5visit14visit_lit_charNtNtCs3yqPx1X2sxh_15zerofrom_derive7visitor11TypeVisitorEBS_, symObjAddr: 0x278C, symBinAddr: 0x5012C, symSize: 0x24 }
  - { offset: 0x7F99E, size: 0x8, addend: 0x0, symName: __RINvNtNtCs6IAuOt8vWmF_3syn3gen5visit14visit_lit_cstrNtNtCs3yqPx1X2sxh_15zerofrom_derive7visitor11TypeVisitorEBS_, symObjAddr: 0x27B0, symBinAddr: 0x50150, symSize: 0x24 }
  - { offset: 0x7F9E0, size: 0x8, addend: 0x0, symName: __RINvNtNtCs6IAuOt8vWmF_3syn3gen5visit14visit_pat_restNtNtCs3yqPx1X2sxh_15zerofrom_derive7visitor11TypeVisitorEBS_, symObjAddr: 0x27D4, symBinAddr: 0x50174, symSize: 0x98 }
  - { offset: 0x7FA56, size: 0x8, addend: 0x0, symName: __RINvNtNtCs6IAuOt8vWmF_3syn3gen5visit14visit_pat_typeNtNtCs3yqPx1X2sxh_15zerofrom_derive7visitor11TypeVisitorEBS_, symObjAddr: 0x286C, symBinAddr: 0x5020C, symSize: 0x104 }
  - { offset: 0x7FACC, size: 0x8, addend: 0x0, symName: __RINvNtNtCs6IAuOt8vWmF_3syn3gen5visit14visit_pat_wildNtNtCs3yqPx1X2sxh_15zerofrom_derive7visitor11TypeVisitorEBS_, symObjAddr: 0x2970, symBinAddr: 0x50310, symSize: 0x98 }
  - { offset: 0x7FB42, size: 0x8, addend: 0x0, symName: __RINvNtNtCs6IAuOt8vWmF_3syn3gen5visit14visit_receiverNtNtCs3yqPx1X2sxh_15zerofrom_derive7visitor11TypeVisitorEBS_, symObjAddr: 0x2A08, symBinAddr: 0x503A8, symSize: 0x16C }
  - { offset: 0x7FBE4, size: 0x8, addend: 0x0, symName: __RINvNtNtCs6IAuOt8vWmF_3syn3gen5visit14visit_type_ptrNtNtCs3yqPx1X2sxh_15zerofrom_derive7visitor11TypeVisitorEBS_, symObjAddr: 0x2B74, symBinAddr: 0x50514, symSize: 0x68 }
  - { offset: 0x7FC26, size: 0x8, addend: 0x0, symName: __RINvNtNtCs6IAuOt8vWmF_3syn3gen5visit14visit_use_globNtNtCs3yqPx1X2sxh_15zerofrom_derive7visitor11TypeVisitorEBS_, symObjAddr: 0x2BDC, symBinAddr: 0x5057C, symSize: 0x24 }
  - { offset: 0x7FC68, size: 0x8, addend: 0x0, symName: __RINvNtNtCs6IAuOt8vWmF_3syn3gen5visit14visit_use_nameNtNtCs3yqPx1X2sxh_15zerofrom_derive7visitor11TypeVisitorEBS_, symObjAddr: 0x2C00, symBinAddr: 0x505A0, symSize: 0x3C }
  - { offset: 0x7FCAA, size: 0x8, addend: 0x0, symName: __RINvNtNtCs6IAuOt8vWmF_3syn3gen5visit14visit_use_pathNtNtCs3yqPx1X2sxh_15zerofrom_derive7visitor11TypeVisitorEBS_, symObjAddr: 0x2C3C, symBinAddr: 0x505DC, symSize: 0x7C }
  - { offset: 0x7FCEC, size: 0x8, addend: 0x0, symName: __RINvNtNtCs6IAuOt8vWmF_3syn3gen5visit14visit_use_treeNtNtCs3yqPx1X2sxh_15zerofrom_derive7visitor11TypeVisitorEBS_, symObjAddr: 0x2CB8, symBinAddr: 0x50658, symSize: 0x15C }
  - { offset: 0x7FDBC, size: 0x8, addend: 0x0, symName: __RINvNtNtCs6IAuOt8vWmF_3syn3gen5visit14visit_variadicNtNtCs3yqPx1X2sxh_15zerofrom_derive7visitor11TypeVisitorEBS_, symObjAddr: 0x2E14, symBinAddr: 0x507B4, symSize: 0x118 }
  - { offset: 0x7FE48, size: 0x8, addend: 0x0, symName: __RINvNtNtCs6IAuOt8vWmF_3syn3gen5visit15visit_attributeNtNtCs3yqPx1X2sxh_15zerofrom_derive7visitor11TypeVisitorEBT_, symObjAddr: 0x2F2C, symBinAddr: 0x508CC, symSize: 0x50 }
  - { offset: 0x7FE8A, size: 0x8, addend: 0x0, symName: __RINvNtNtCs6IAuOt8vWmF_3syn3gen5visit15visit_expr_callNtNtCs3yqPx1X2sxh_15zerofrom_derive7visitor11TypeVisitorEBT_, symObjAddr: 0x2F7C, symBinAddr: 0x5091C, symSize: 0x160 }
  - { offset: 0x7FF53, size: 0x8, addend: 0x0, symName: __RINvNtNtCs6IAuOt8vWmF_3syn3gen5visit15visit_expr_castNtNtCs3yqPx1X2sxh_15zerofrom_derive7visitor11TypeVisitorEBT_, symObjAddr: 0x30DC, symBinAddr: 0x50A7C, symSize: 0x104 }
  - { offset: 0x7FFC9, size: 0x8, addend: 0x0, symName: __RINvNtNtCs6IAuOt8vWmF_3syn3gen5visit15visit_expr_loopNtNtCs3yqPx1X2sxh_15zerofrom_derive7visitor11TypeVisitorEBT_, symObjAddr: 0x31E0, symBinAddr: 0x50B80, symSize: 0x100 }
  - { offset: 0x80055, size: 0x8, addend: 0x0, symName: __RINvNtNtCs6IAuOt8vWmF_3syn3gen5visit15visit_expr_pathNtNtCs3yqPx1X2sxh_15zerofrom_derive7visitor11TypeVisitorEBT_, symObjAddr: 0x32E0, symBinAddr: 0x50C80, symSize: 0x100 }
  - { offset: 0x800E1, size: 0x8, addend: 0x0, symName: __RINvNtNtCs6IAuOt8vWmF_3syn3gen5visit15visit_field_patNtNtCs3yqPx1X2sxh_15zerofrom_derive7visitor11TypeVisitorEBT_, symObjAddr: 0x33E0, symBinAddr: 0x50D80, symSize: 0xE0 }
  - { offset: 0x80157, size: 0x8, addend: 0x0, symName: __RINvNtNtCs6IAuOt8vWmF_3syn3gen5visit15visit_impl_itemNtNtCs3yqPx1X2sxh_15zerofrom_derive7visitor11TypeVisitorEBT_, symObjAddr: 0x34C0, symBinAddr: 0x50E60, symSize: 0x168 }
  - { offset: 0x80227, size: 0x8, addend: 0x0, symName: __RINvNtNtCs6IAuOt8vWmF_3syn3gen5visit15visit_item_enumNtNtCs3yqPx1X2sxh_15zerofrom_derive7visitor11TypeVisitorEBT_, symObjAddr: 0x3628, symBinAddr: 0x50FC8, symSize: 0x158 }
  - { offset: 0x802F0, size: 0x8, addend: 0x0, symName: __RINvNtNtCs6IAuOt8vWmF_3syn3gen5visit15visit_item_implNtNtCs3yqPx1X2sxh_15zerofrom_derive7visitor11TypeVisitorEBT_, symObjAddr: 0x3780, symBinAddr: 0x51120, symSize: 0x198 }
  - { offset: 0x803B1, size: 0x8, addend: 0x0, symName: __RINvNtNtCs6IAuOt8vWmF_3syn3gen5visit15visit_item_typeNtNtCs3yqPx1X2sxh_15zerofrom_derive7visitor11TypeVisitorEBT_, symObjAddr: 0x3918, symBinAddr: 0x512B8, symSize: 0x100 }
  - { offset: 0x80427, size: 0x8, addend: 0x0, symName: __RINvNtNtCs6IAuOt8vWmF_3syn3gen5visit15visit_lit_floatNtNtCs3yqPx1X2sxh_15zerofrom_derive7visitor11TypeVisitorEBT_, symObjAddr: 0x3A18, symBinAddr: 0x513B8, symSize: 0x24 }
  - { offset: 0x80469, size: 0x8, addend: 0x0, symName: __RINvNtNtCs6IAuOt8vWmF_3syn3gen5visit15visit_meta_listNtNtCs3yqPx1X2sxh_15zerofrom_derive7visitor11TypeVisitorEBT_, symObjAddr: 0x3A3C, symBinAddr: 0x513DC, symSize: 0x60 }
  - { offset: 0x804AB, size: 0x8, addend: 0x0, symName: __RINvNtNtCs6IAuOt8vWmF_3syn3gen5visit15visit_pat_identNtNtCs3yqPx1X2sxh_15zerofrom_derive7visitor11TypeVisitorEBT_, symObjAddr: 0x3A9C, symBinAddr: 0x5143C, symSize: 0x128 }
  - { offset: 0x80537, size: 0x8, addend: 0x0, symName: __RINvNtNtCs6IAuOt8vWmF_3syn3gen5visit15visit_pat_parenNtNtCs3yqPx1X2sxh_15zerofrom_derive7visitor11TypeVisitorEBT_, symObjAddr: 0x3BC4, symBinAddr: 0x51564, symSize: 0xD0 }
  - { offset: 0x805AD, size: 0x8, addend: 0x0, symName: __RINvNtNtCs6IAuOt8vWmF_3syn3gen5visit15visit_pat_sliceNtNtCs3yqPx1X2sxh_15zerofrom_derive7visitor11TypeVisitorEBT_, symObjAddr: 0x3C94, symBinAddr: 0x51634, symSize: 0x128 }
  - { offset: 0x80676, size: 0x8, addend: 0x0, symName: __RINvNtNtCs6IAuOt8vWmF_3syn3gen5visit15visit_pat_tupleNtNtCs3yqPx1X2sxh_15zerofrom_derive7visitor11TypeVisitorEBT_, symObjAddr: 0x3DBC, symBinAddr: 0x5175C, symSize: 0x128 }
  - { offset: 0x8073F, size: 0x8, addend: 0x0, symName: __RINvNtNtCs6IAuOt8vWmF_3syn3gen5visit15visit_signatureNtNtCs3yqPx1X2sxh_15zerofrom_derive7visitor11TypeVisitorEBT_, symObjAddr: 0x3EE4, symBinAddr: 0x51884, symSize: 0x198 }
  - { offset: 0x80808, size: 0x8, addend: 0x0, symName: __RINvNtNtCs6IAuOt8vWmF_3syn3gen5visit15visit_type_pathNtNtCs3yqPx1X2sxh_15zerofrom_derive7visitor11TypeVisitorEBT_, symObjAddr: 0x407C, symBinAddr: 0x51A1C, symSize: 0x94 }
  - { offset: 0x80868, size: 0x8, addend: 0x0, symName: __RINvNtNtCs6IAuOt8vWmF_3syn3gen5visit15visit_use_groupNtNtCs3yqPx1X2sxh_15zerofrom_derive7visitor11TypeVisitorEBT_, symObjAddr: 0x4110, symBinAddr: 0x51AB0, symSize: 0xC8 }
  - { offset: 0x808FD, size: 0x8, addend: 0x0, symName: __RINvNtNtCs6IAuOt8vWmF_3syn3gen5visit16visit_assoc_typeNtNtCs3yqPx1X2sxh_15zerofrom_derive7visitor11TypeVisitorEBU_, symObjAddr: 0x41D8, symBinAddr: 0x51B78, symSize: 0xA8 }
  - { offset: 0x8095D, size: 0x8, addend: 0x0, symName: __RINvNtNtCs6IAuOt8vWmF_3syn3gen5visit16visit_attr_styleNtNtCs3yqPx1X2sxh_15zerofrom_derive7visitor11TypeVisitorEBU_, symObjAddr: 0x4280, symBinAddr: 0x51C20, symSize: 0x60 }
  - { offset: 0x8099F, size: 0x8, addend: 0x0, symName: __RINvNtNtCs6IAuOt8vWmF_3syn3gen5visit16visit_constraintNtNtCs3yqPx1X2sxh_15zerofrom_derive7visitor11TypeVisitorEBU_, symObjAddr: 0x42E0, symBinAddr: 0x51C80, symSize: 0x128 }
  - { offset: 0x80A52, size: 0x8, addend: 0x0, symName: __RINvNtNtCs6IAuOt8vWmF_3syn3gen5visit16visit_expr_arrayNtNtCs3yqPx1X2sxh_15zerofrom_derive7visitor11TypeVisitorEBU_, symObjAddr: 0x4408, symBinAddr: 0x51DA8, symSize: 0x128 }
  - { offset: 0x80B1B, size: 0x8, addend: 0x0, symName: __RINvNtNtCs6IAuOt8vWmF_3syn3gen5visit16visit_expr_asyncNtNtCs3yqPx1X2sxh_15zerofrom_derive7visitor11TypeVisitorEBU_, symObjAddr: 0x4530, symBinAddr: 0x51ED0, symSize: 0xA8 }
  - { offset: 0x80B91, size: 0x8, addend: 0x0, symName: __RINvNtNtCs6IAuOt8vWmF_3syn3gen5visit16visit_expr_awaitNtNtCs3yqPx1X2sxh_15zerofrom_derive7visitor11TypeVisitorEBU_, symObjAddr: 0x45D8, symBinAddr: 0x51F78, symSize: 0xD0 }
  - { offset: 0x80C07, size: 0x8, addend: 0x0, symName: __RINvNtNtCs6IAuOt8vWmF_3syn3gen5visit16visit_expr_blockNtNtCs3yqPx1X2sxh_15zerofrom_derive7visitor11TypeVisitorEBU_, symObjAddr: 0x46A8, symBinAddr: 0x52048, symSize: 0x100 }
  - { offset: 0x80C93, size: 0x8, addend: 0x0, symName: __RINvNtNtCs6IAuOt8vWmF_3syn3gen5visit16visit_expr_breakNtNtCs3yqPx1X2sxh_15zerofrom_derive7visitor11TypeVisitorEBU_, symObjAddr: 0x47A8, symBinAddr: 0x52148, symSize: 0x16C }
  - { offset: 0x80D35, size: 0x8, addend: 0x0, symName: __RINvNtNtCs6IAuOt8vWmF_3syn3gen5visit16visit_expr_constNtNtCs3yqPx1X2sxh_15zerofrom_derive7visitor11TypeVisitorEBU_, symObjAddr: 0x4914, symBinAddr: 0x522B4, symSize: 0xA8 }
  - { offset: 0x80DAB, size: 0x8, addend: 0x0, symName: __RINvNtNtCs6IAuOt8vWmF_3syn3gen5visit16visit_expr_fieldNtNtCs3yqPx1X2sxh_15zerofrom_derive7visitor11TypeVisitorEBU_, symObjAddr: 0x49BC, symBinAddr: 0x5235C, symSize: 0xE0 }
  - { offset: 0x80E21, size: 0x8, addend: 0x0, symName: __RINvNtNtCs6IAuOt8vWmF_3syn3gen5visit16visit_expr_groupNtNtCs3yqPx1X2sxh_15zerofrom_derive7visitor11TypeVisitorEBU_, symObjAddr: 0x4A9C, symBinAddr: 0x5243C, symSize: 0xD0 }
  - { offset: 0x80E97, size: 0x8, addend: 0x0, symName: __RINvNtNtCs6IAuOt8vWmF_3syn3gen5visit16visit_expr_indexNtNtCs3yqPx1X2sxh_15zerofrom_derive7visitor11TypeVisitorEBU_, symObjAddr: 0x4B6C, symBinAddr: 0x5250C, symSize: 0x104 }
  - { offset: 0x80F0D, size: 0x8, addend: 0x0, symName: __RINvNtNtCs6IAuOt8vWmF_3syn3gen5visit16visit_expr_inferNtNtCs3yqPx1X2sxh_15zerofrom_derive7visitor11TypeVisitorEBU_, symObjAddr: 0x4C70, symBinAddr: 0x52610, symSize: 0x98 }
  - { offset: 0x80F83, size: 0x8, addend: 0x0, symName: __RINvNtNtCs6IAuOt8vWmF_3syn3gen5visit16visit_expr_macroNtNtCs3yqPx1X2sxh_15zerofrom_derive7visitor11TypeVisitorEBU_, symObjAddr: 0x4D08, symBinAddr: 0x526A8, symSize: 0xA8 }
  - { offset: 0x80FF9, size: 0x8, addend: 0x0, symName: __RINvNtNtCs6IAuOt8vWmF_3syn3gen5visit16visit_expr_matchNtNtCs3yqPx1X2sxh_15zerofrom_derive7visitor11TypeVisitorEBU_, symObjAddr: 0x4DB0, symBinAddr: 0x52750, symSize: 0x130 }
  - { offset: 0x810A3, size: 0x8, addend: 0x0, symName: __RINvNtNtCs6IAuOt8vWmF_3syn3gen5visit16visit_expr_parenNtNtCs3yqPx1X2sxh_15zerofrom_derive7visitor11TypeVisitorEBU_, symObjAddr: 0x4EE0, symBinAddr: 0x52880, symSize: 0xD0 }
  - { offset: 0x81119, size: 0x8, addend: 0x0, symName: __RINvNtNtCs6IAuOt8vWmF_3syn3gen5visit16visit_expr_rangeNtNtCs3yqPx1X2sxh_15zerofrom_derive7visitor11TypeVisitorEBU_, symObjAddr: 0x4FB0, symBinAddr: 0x52950, symSize: 0x1A4 }
  - { offset: 0x811BB, size: 0x8, addend: 0x0, symName: __RINvNtNtCs6IAuOt8vWmF_3syn3gen5visit16visit_expr_tupleNtNtCs3yqPx1X2sxh_15zerofrom_derive7visitor11TypeVisitorEBU_, symObjAddr: 0x5154, symBinAddr: 0x52AF4, symSize: 0x128 }
  - { offset: 0x81284, size: 0x8, addend: 0x0, symName: __RINvNtNtCs6IAuOt8vWmF_3syn3gen5visit16visit_expr_unaryNtNtCs3yqPx1X2sxh_15zerofrom_derive7visitor11TypeVisitorEBU_, symObjAddr: 0x527C, symBinAddr: 0x52C1C, symSize: 0xE0 }
  - { offset: 0x812FA, size: 0x8, addend: 0x0, symName: __RINvNtNtCs6IAuOt8vWmF_3syn3gen5visit16visit_expr_whileNtNtCs3yqPx1X2sxh_15zerofrom_derive7visitor11TypeVisitorEBU_, symObjAddr: 0x535C, symBinAddr: 0x52CFC, symSize: 0x134 }
  - { offset: 0x81386, size: 0x8, addend: 0x0, symName: __RINvNtNtCs6IAuOt8vWmF_3syn3gen5visit16visit_expr_yieldNtNtCs3yqPx1X2sxh_15zerofrom_derive7visitor11TypeVisitorEBU_, symObjAddr: 0x5490, symBinAddr: 0x52E30, symSize: 0x118 }
  - { offset: 0x81412, size: 0x8, addend: 0x0, symName: __RINvNtNtCs6IAuOt8vWmF_3syn3gen5visit16visit_item_constNtNtCs3yqPx1X2sxh_15zerofrom_derive7visitor11TypeVisitorEBU_, symObjAddr: 0x55A8, symBinAddr: 0x52F48, symSize: 0x134 }
  - { offset: 0x81488, size: 0x8, addend: 0x0, symName: __RINvNtNtCs6IAuOt8vWmF_3syn3gen5visit16visit_item_macroNtNtCs3yqPx1X2sxh_15zerofrom_derive7visitor11TypeVisitorEBU_, symObjAddr: 0x56DC, symBinAddr: 0x5307C, symSize: 0x100 }
  - { offset: 0x81514, size: 0x8, addend: 0x0, symName: __RINvNtNtCs6IAuOt8vWmF_3syn3gen5visit16visit_item_traitNtNtCs3yqPx1X2sxh_15zerofrom_derive7visitor11TypeVisitorEBU_, symObjAddr: 0x57DC, symBinAddr: 0x5317C, symSize: 0x1BC }
  - { offset: 0x8162D, size: 0x8, addend: 0x0, symName: __RINvNtNtCs6IAuOt8vWmF_3syn3gen5visit16visit_item_unionNtNtCs3yqPx1X2sxh_15zerofrom_derive7visitor11TypeVisitorEBU_, symObjAddr: 0x5998, symBinAddr: 0x53338, symSize: 0xD8 }
  - { offset: 0x816A3, size: 0x8, addend: 0x0, symName: __RINvNtNtCs6IAuOt8vWmF_3syn3gen5visit16visit_local_initNtNtCs3yqPx1X2sxh_15zerofrom_derive7visitor11TypeVisitorEBU_, symObjAddr: 0x5A70, symBinAddr: 0x53410, symSize: 0xE8 }
  - { offset: 0x816FB, size: 0x8, addend: 0x0, symName: __RINvNtNtCs6IAuOt8vWmF_3syn3gen5visit16visit_pat_structNtNtCs3yqPx1X2sxh_15zerofrom_derive7visitor11TypeVisitorEBU_, symObjAddr: 0x5B58, symBinAddr: 0x534F8, symSize: 0x1E8 }
  - { offset: 0x817F0, size: 0x8, addend: 0x0, symName: __RINvNtNtCs6IAuOt8vWmF_3syn3gen5visit16visit_stmt_macroNtNtCs3yqPx1X2sxh_15zerofrom_derive7visitor11TypeVisitorEBU_, symObjAddr: 0x5D40, symBinAddr: 0x536E0, symSize: 0xA8 }
  - { offset: 0x81866, size: 0x8, addend: 0x0, symName: __RINvNtNtCs6IAuOt8vWmF_3syn3gen5visit16visit_trait_itemNtNtCs3yqPx1X2sxh_15zerofrom_derive7visitor11TypeVisitorEBU_, symObjAddr: 0x5DE8, symBinAddr: 0x53788, symSize: 0x168 }
  - { offset: 0x81936, size: 0x8, addend: 0x0, symName: __RINvNtNtCs6IAuOt8vWmF_3syn3gen5visit16visit_type_arrayNtNtCs3yqPx1X2sxh_15zerofrom_derive7visitor11TypeVisitorEBU_, symObjAddr: 0x5F50, symBinAddr: 0x538F0, symSize: 0x78 }
  - { offset: 0x81978, size: 0x8, addend: 0x0, symName: __RINvNtNtCs6IAuOt8vWmF_3syn3gen5visit16visit_type_groupNtNtCs3yqPx1X2sxh_15zerofrom_derive7visitor11TypeVisitorEBU_, symObjAddr: 0x5FC8, symBinAddr: 0x53968, symSize: 0x68 }
  - { offset: 0x819BA, size: 0x8, addend: 0x0, symName: __RINvNtNtCs6IAuOt8vWmF_3syn3gen5visit16visit_type_inferNtNtCs3yqPx1X2sxh_15zerofrom_derive7visitor11TypeVisitorEBU_, symObjAddr: 0x6030, symBinAddr: 0x539D0, symSize: 0x24 }
  - { offset: 0x819FC, size: 0x8, addend: 0x0, symName: __RINvNtNtCs6IAuOt8vWmF_3syn3gen5visit16visit_type_macroNtNtCs3yqPx1X2sxh_15zerofrom_derive7visitor11TypeVisitorEBU_, symObjAddr: 0x6054, symBinAddr: 0x539F4, symSize: 0x3C }
  - { offset: 0x81A3E, size: 0x8, addend: 0x0, symName: __RINvNtNtCs6IAuOt8vWmF_3syn3gen5visit16visit_type_neverNtNtCs3yqPx1X2sxh_15zerofrom_derive7visitor11TypeVisitorEBU_, symObjAddr: 0x6090, symBinAddr: 0x53A30, symSize: 0x24 }
  - { offset: 0x81A80, size: 0x8, addend: 0x0, symName: __RINvNtNtCs6IAuOt8vWmF_3syn3gen5visit16visit_type_paramNtNtCs3yqPx1X2sxh_15zerofrom_derive7visitor11TypeVisitorEBU_, symObjAddr: 0x60B4, symBinAddr: 0x53A54, symSize: 0x184 }
  - { offset: 0x81B5F, size: 0x8, addend: 0x0, symName: __RINvNtNtCs6IAuOt8vWmF_3syn3gen5visit16visit_type_parenNtNtCs3yqPx1X2sxh_15zerofrom_derive7visitor11TypeVisitorEBU_, symObjAddr: 0x6238, symBinAddr: 0x53BD8, symSize: 0x68 }
  - { offset: 0x81BA1, size: 0x8, addend: 0x0, symName: __RINvNtNtCs6IAuOt8vWmF_3syn3gen5visit16visit_type_sliceNtNtCs3yqPx1X2sxh_15zerofrom_derive7visitor11TypeVisitorEBU_, symObjAddr: 0x62A0, symBinAddr: 0x53C40, symSize: 0x68 }
  - { offset: 0x81BE3, size: 0x8, addend: 0x0, symName: __RINvNtNtCs6IAuOt8vWmF_3syn3gen5visit16visit_type_tupleNtNtCs3yqPx1X2sxh_15zerofrom_derive7visitor11TypeVisitorEBU_, symObjAddr: 0x6308, symBinAddr: 0x53CA8, symSize: 0xC8 }
  - { offset: 0x81C78, size: 0x8, addend: 0x0, symName: __RINvNtNtCs6IAuOt8vWmF_3syn3gen5visit16visit_use_renameNtNtCs3yqPx1X2sxh_15zerofrom_derive7visitor11TypeVisitorEBU_, symObjAddr: 0x63D0, symBinAddr: 0x53D70, symSize: 0x50 }
  - { offset: 0x81CBA, size: 0x8, addend: 0x0, symName: __RINvNtNtCs6IAuOt8vWmF_3syn3gen5visit16visit_visibilityNtNtCs3yqPx1X2sxh_15zerofrom_derive7visitor11TypeVisitorEBU_, symObjAddr: 0x6420, symBinAddr: 0x53DC0, symSize: 0xC4 }
  - { offset: 0x81D1A, size: 0x8, addend: 0x0, symName: __RINvNtNtCs6IAuOt8vWmF_3syn3gen5visit17visit_assoc_constNtNtCs3yqPx1X2sxh_15zerofrom_derive7visitor11TypeVisitorEBV_, symObjAddr: 0x64E4, symBinAddr: 0x53E84, symSize: 0xA8 }
  - { offset: 0x81D7A, size: 0x8, addend: 0x0, symName: __RINvNtNtCs6IAuOt8vWmF_3syn3gen5visit17visit_bare_fn_argNtNtCs3yqPx1X2sxh_15zerofrom_derive7visitor11TypeVisitorEBV_, symObjAddr: 0x658C, symBinAddr: 0x53F2C, symSize: 0xF8 }
  - { offset: 0x81E06, size: 0x8, addend: 0x0, symName: __RINvNtNtCs6IAuOt8vWmF_3syn3gen5visit17visit_const_paramNtNtCs3yqPx1X2sxh_15zerofrom_derive7visitor11TypeVisitorEBV_, symObjAddr: 0x6684, symBinAddr: 0x54024, symSize: 0x108 }
  - { offset: 0x81E92, size: 0x8, addend: 0x0, symName: __RINvNtNtCs6IAuOt8vWmF_3syn3gen5visit17visit_expr_assignNtNtCs3yqPx1X2sxh_15zerofrom_derive7visitor11TypeVisitorEBV_, symObjAddr: 0x678C, symBinAddr: 0x5412C, symSize: 0x104 }
  - { offset: 0x81F08, size: 0x8, addend: 0x0, symName: __RINvNtNtCs6IAuOt8vWmF_3syn3gen5visit17visit_expr_binaryNtNtCs3yqPx1X2sxh_15zerofrom_derive7visitor11TypeVisitorEBV_, symObjAddr: 0x6890, symBinAddr: 0x54230, symSize: 0x114 }
  - { offset: 0x81F7E, size: 0x8, addend: 0x0, symName: __RINvNtNtCs6IAuOt8vWmF_3syn3gen5visit17visit_expr_repeatNtNtCs3yqPx1X2sxh_15zerofrom_derive7visitor11TypeVisitorEBV_, symObjAddr: 0x69A4, symBinAddr: 0x54344, symSize: 0x104 }
  - { offset: 0x81FF4, size: 0x8, addend: 0x0, symName: __RINvNtNtCs6IAuOt8vWmF_3syn3gen5visit17visit_expr_returnNtNtCs3yqPx1X2sxh_15zerofrom_derive7visitor11TypeVisitorEBV_, symObjAddr: 0x6AA8, symBinAddr: 0x54448, symSize: 0x118 }
  - { offset: 0x82080, size: 0x8, addend: 0x0, symName: __RINvNtNtCs6IAuOt8vWmF_3syn3gen5visit17visit_expr_structNtNtCs3yqPx1X2sxh_15zerofrom_derive7visitor11TypeVisitorEBV_, symObjAddr: 0x6BC0, symBinAddr: 0x54560, symSize: 0x214 }
  - { offset: 0x82176, size: 0x8, addend: 0x0, symName: __RINvNtNtCs6IAuOt8vWmF_3syn3gen5visit17visit_expr_unsafeNtNtCs3yqPx1X2sxh_15zerofrom_derive7visitor11TypeVisitorEBV_, symObjAddr: 0x6DD4, symBinAddr: 0x54774, symSize: 0xA8 }
  - { offset: 0x821EC, size: 0x8, addend: 0x0, symName: __RINvNtNtCs6IAuOt8vWmF_3syn3gen5visit17visit_field_valueNtNtCs3yqPx1X2sxh_15zerofrom_derive7visitor11TypeVisitorEBV_, symObjAddr: 0x6E7C, symBinAddr: 0x5481C, symSize: 0xB0 }
  - { offset: 0x82262, size: 0x8, addend: 0x0, symName: __RINvNtNtCs6IAuOt8vWmF_3syn3gen5visit17visit_item_staticNtNtCs3yqPx1X2sxh_15zerofrom_derive7visitor11TypeVisitorEBV_, symObjAddr: 0x6F2C, symBinAddr: 0x548CC, symSize: 0x134 }
  - { offset: 0x822D8, size: 0x8, addend: 0x0, symName: __RINvNtNtCs6IAuOt8vWmF_3syn3gen5visit17visit_item_structNtNtCs3yqPx1X2sxh_15zerofrom_derive7visitor11TypeVisitorEBV_, symObjAddr: 0x7060, symBinAddr: 0x54A00, symSize: 0xD0 }
  - { offset: 0x8234E, size: 0x8, addend: 0x0, symName: __RINvNtNtCs6IAuOt8vWmF_3syn3gen5visit17visit_return_typeNtNtCs3yqPx1X2sxh_15zerofrom_derive7visitor11TypeVisitorEBV_, symObjAddr: 0x7130, symBinAddr: 0x54AD0, symSize: 0xB0 }
  - { offset: 0x823B6, size: 0x8, addend: 0x0, symName: __RINvNtNtCs6IAuOt8vWmF_3syn3gen5visit17visit_trait_boundNtNtCs3yqPx1X2sxh_15zerofrom_derive7visitor11TypeVisitorEBV_, symObjAddr: 0x71E0, symBinAddr: 0x54B80, symSize: 0xA8 }
  - { offset: 0x82416, size: 0x8, addend: 0x0, symName: __RINvNtNtCs6IAuOt8vWmF_3syn3gen5visit18visit_expr_closureNtNtCs3yqPx1X2sxh_15zerofrom_derive7visitor11TypeVisitorEBW_, symObjAddr: 0x7288, symBinAddr: 0x54C28, symSize: 0x1C8 }
  - { offset: 0x824F5, size: 0x8, addend: 0x0, symName: __RINvNtNtCs6IAuOt8vWmF_3syn3gen5visit18visit_fields_namedNtNtCs3yqPx1X2sxh_15zerofrom_derive7visitor11TypeVisitorEBW_, symObjAddr: 0x7450, symBinAddr: 0x54DF0, symSize: 0xC8 }
  - { offset: 0x8258A, size: 0x8, addend: 0x0, symName: __RINvNtNtCs6IAuOt8vWmF_3syn3gen5visit18visit_foreign_itemNtNtCs3yqPx1X2sxh_15zerofrom_derive7visitor11TypeVisitorEBW_, symObjAddr: 0x7518, symBinAddr: 0x54EB8, symSize: 0x168 }
  - { offset: 0x8265A, size: 0x8, addend: 0x0, symName: __RINvNtNtCs6IAuOt8vWmF_3syn3gen5visit18visit_impl_item_fnNtNtCs3yqPx1X2sxh_15zerofrom_derive7visitor11TypeVisitorEBW_, symObjAddr: 0x7680, symBinAddr: 0x55020, symSize: 0xC0 }
  - { offset: 0x826D0, size: 0x8, addend: 0x0, symName: __RINvNtNtCs6IAuOt8vWmF_3syn3gen5visit18visit_lit_byte_strNtNtCs3yqPx1X2sxh_15zerofrom_derive7visitor11TypeVisitorEBW_, symObjAddr: 0x7740, symBinAddr: 0x550E0, symSize: 0x24 }
  - { offset: 0x82712, size: 0x8, addend: 0x0, symName: __RINvNtNtCs6IAuOt8vWmF_3syn3gen5visit18visit_path_segmentNtNtCs3yqPx1X2sxh_15zerofrom_derive7visitor11TypeVisitorEBW_, symObjAddr: 0x7764, symBinAddr: 0x55104, symSize: 0x50 }
  - { offset: 0x82754, size: 0x8, addend: 0x0, symName: __RINvNtNtCs6IAuOt8vWmF_3syn3gen5visit18visit_range_limitsNtNtCs3yqPx1X2sxh_15zerofrom_derive7visitor11TypeVisitorEBW_, symObjAddr: 0x77B4, symBinAddr: 0x55154, symSize: 0x6C }
  - { offset: 0x82796, size: 0x8, addend: 0x0, symName: __RINvNtNtCs6IAuOt8vWmF_3syn3gen5visit18visit_type_bare_fnNtNtCs3yqPx1X2sxh_15zerofrom_derive7visitor11TypeVisitorEBW_, symObjAddr: 0x7820, symBinAddr: 0x551C0, symSize: 0x1CC }
  - { offset: 0x8287D, size: 0x8, addend: 0x0, symName: __RINvNtNtCs6IAuOt8vWmF_3syn3gen5visit18visit_where_clauseNtNtCs3yqPx1X2sxh_15zerofrom_derive7visitor11TypeVisitorEBW_, symObjAddr: 0x79EC, symBinAddr: 0x5538C, symSize: 0xC8 }
  - { offset: 0x82912, size: 0x8, addend: 0x0, symName: __RINvNtNtCs6IAuOt8vWmF_3syn3gen5visit19visit_bare_variadicNtNtCs3yqPx1X2sxh_15zerofrom_derive7visitor11TypeVisitorEBX_, symObjAddr: 0x7AB4, symBinAddr: 0x55454, symSize: 0xF0 }
  - { offset: 0x8299E, size: 0x8, addend: 0x0, symName: __RINvNtNtCs6IAuOt8vWmF_3syn3gen5visit19visit_expr_continueNtNtCs3yqPx1X2sxh_15zerofrom_derive7visitor11TypeVisitorEBX_, symObjAddr: 0x7BA4, symBinAddr: 0x55544, symSize: 0xF0 }
  - { offset: 0x82A2A, size: 0x8, addend: 0x0, symName: __RINvNtNtCs6IAuOt8vWmF_3syn3gen5visit19visit_expr_for_loopNtNtCs3yqPx1X2sxh_15zerofrom_derive7visitor11TypeVisitorEBX_, symObjAddr: 0x7C94, symBinAddr: 0x55634, symSize: 0x168 }
  - { offset: 0x82AB6, size: 0x8, addend: 0x0, symName: __RINvNtNtCs6IAuOt8vWmF_3syn3gen5visit19visit_expr_raw_addrNtNtCs3yqPx1X2sxh_15zerofrom_derive7visitor11TypeVisitorEBX_, symObjAddr: 0x7DFC, symBinAddr: 0x5579C, symSize: 0xE0 }
  - { offset: 0x82B2C, size: 0x8, addend: 0x0, symName: __RINvNtNtCs6IAuOt8vWmF_3syn3gen5visit19visit_generic_paramNtNtCs3yqPx1X2sxh_15zerofrom_derive7visitor11TypeVisitorEBX_, symObjAddr: 0x7EDC, symBinAddr: 0x5587C, symSize: 0xE8 }
  - { offset: 0x82BC0, size: 0x8, addend: 0x0, symName: __RINvNtNtCs6IAuOt8vWmF_3syn3gen5visit19visit_pat_referenceNtNtCs3yqPx1X2sxh_15zerofrom_derive7visitor11TypeVisitorEBX_, symObjAddr: 0x7FC4, symBinAddr: 0x55964, symSize: 0xD0 }
  - { offset: 0x82C36, size: 0x8, addend: 0x0, symName: __RINvNtNtCs6IAuOt8vWmF_3syn3gen5visit19visit_trait_item_fnNtNtCs3yqPx1X2sxh_15zerofrom_derive7visitor11TypeVisitorEBX_, symObjAddr: 0x8094, symBinAddr: 0x55A34, symSize: 0xFC }
  - { offset: 0x82CC2, size: 0x8, addend: 0x0, symName: __RINvNtNtCs6IAuOt8vWmF_3syn3gen5visit20visit_captured_paramNtNtCs3yqPx1X2sxh_15zerofrom_derive7visitor11TypeVisitorEBY_, symObjAddr: 0x8190, symBinAddr: 0x55B30, symSize: 0x94 }
  - { offset: 0x82D38, size: 0x8, addend: 0x0, symName: __RINvNtNtCs6IAuOt8vWmF_3syn3gen5visit20visit_expr_referenceNtNtCs3yqPx1X2sxh_15zerofrom_derive7visitor11TypeVisitorEBY_, symObjAddr: 0x8224, symBinAddr: 0x55BC4, symSize: 0xD0 }
  - { offset: 0x82DAE, size: 0x8, addend: 0x0, symName: __RINvNtNtCs6IAuOt8vWmF_3syn3gen5visit20visit_expr_try_blockNtNtCs3yqPx1X2sxh_15zerofrom_derive7visitor11TypeVisitorEBY_, symObjAddr: 0x82F4, symBinAddr: 0x55C94, symSize: 0xA8 }
  - { offset: 0x82E24, size: 0x8, addend: 0x0, symName: __RINvNtNtCs6IAuOt8vWmF_3syn3gen5visit20visit_fields_unnamedNtNtCs3yqPx1X2sxh_15zerofrom_derive7visitor11TypeVisitorEBY_, symObjAddr: 0x839C, symBinAddr: 0x55D3C, symSize: 0xC8 }
  - { offset: 0x82EB9, size: 0x8, addend: 0x0, symName: __RINvNtNtCs6IAuOt8vWmF_3syn3gen5visit20visit_impl_item_typeNtNtCs3yqPx1X2sxh_15zerofrom_derive7visitor11TypeVisitorEBY_, symObjAddr: 0x8464, symBinAddr: 0x55E04, symSize: 0xD0 }
  - { offset: 0x82F2F, size: 0x8, addend: 0x0, symName: __RINvNtNtCs6IAuOt8vWmF_3syn3gen5visit20visit_lifetime_paramNtNtCs3yqPx1X2sxh_15zerofrom_derive7visitor11TypeVisitorEBY_, symObjAddr: 0x8534, symBinAddr: 0x55ED4, symSize: 0x138 }
  - { offset: 0x82FF8, size: 0x8, addend: 0x0, symName: __RINvNtNtCs6IAuOt8vWmF_3syn3gen5visit20visit_path_argumentsNtNtCs3yqPx1X2sxh_15zerofrom_derive7visitor11TypeVisitorEBY_, symObjAddr: 0x866C, symBinAddr: 0x5600C, symSize: 0xD4 }
  - { offset: 0x8306E, size: 0x8, addend: 0x0, symName: __RINvNtNtCs6IAuOt8vWmF_3syn3gen5visit20visit_predicate_typeNtNtCs3yqPx1X2sxh_15zerofrom_derive7visitor11TypeVisitorEBY_, symObjAddr: 0x8740, symBinAddr: 0x560E0, symSize: 0x128 }
  - { offset: 0x83121, size: 0x8, addend: 0x0, symName: __RINvNtNtCs6IAuOt8vWmF_3syn3gen5visit20visit_type_referenceNtNtCs3yqPx1X2sxh_15zerofrom_derive7visitor11TypeVisitorEBY_, symObjAddr: 0x8868, symBinAddr: 0x56208, symSize: 0xBC }
  - { offset: 0x83181, size: 0x8, addend: 0x0, symName: __RINvNtNtCs6IAuOt8vWmF_3syn3gen5visit20visit_vis_restrictedNtNtCs3yqPx1X2sxh_15zerofrom_derive7visitor11TypeVisitorEBY_, symObjAddr: 0x8924, symBinAddr: 0x562C4, symSize: 0x68 }
  - { offset: 0x831C3, size: 0x8, addend: 0x0, symName: __RINvNtNtCs6IAuOt8vWmF_3syn3gen5visit21visit_bound_lifetimesNtNtCs3yqPx1X2sxh_15zerofrom_derive7visitor11TypeVisitorEBZ_, symObjAddr: 0x898C, symBinAddr: 0x5632C, symSize: 0xC8 }
  - { offset: 0x83258, size: 0x8, addend: 0x0, symName: __RINvNtNtCs6IAuOt8vWmF_3syn3gen5visit21visit_foreign_item_fnNtNtCs3yqPx1X2sxh_15zerofrom_derive7visitor11TypeVisitorEBZ_, symObjAddr: 0x8A54, symBinAddr: 0x563F4, symSize: 0xB0 }
  - { offset: 0x832CE, size: 0x8, addend: 0x0, symName: __RINvNtNtCs6IAuOt8vWmF_3syn3gen5visit21visit_impl_item_constNtNtCs3yqPx1X2sxh_15zerofrom_derive7visitor11TypeVisitorEBZ_, symObjAddr: 0x8B04, symBinAddr: 0x564A4, symSize: 0xE0 }
  - { offset: 0x83344, size: 0x8, addend: 0x0, symName: __RINvNtNtCs6IAuOt8vWmF_3syn3gen5visit21visit_impl_item_macroNtNtCs3yqPx1X2sxh_15zerofrom_derive7visitor11TypeVisitorEBZ_, symObjAddr: 0x8BE4, symBinAddr: 0x56584, symSize: 0xA8 }
  - { offset: 0x833BA, size: 0x8, addend: 0x0, symName: __RINvNtNtCs6IAuOt8vWmF_3syn3gen5visit21visit_macro_delimiterNtNtCs3yqPx1X2sxh_15zerofrom_derive7visitor11TypeVisitorEBZ_, symObjAddr: 0x8C8C, symBinAddr: 0x5662C, symSize: 0xA8 }
  - { offset: 0x833FC, size: 0x8, addend: 0x0, symName: __RINvNtNtCs6IAuOt8vWmF_3syn3gen5visit21visit_meta_name_valueNtNtCs3yqPx1X2sxh_15zerofrom_derive7visitor11TypeVisitorEBZ_, symObjAddr: 0x8D34, symBinAddr: 0x566D4, symSize: 0x50 }
  - { offset: 0x8343E, size: 0x8, addend: 0x0, symName: __RINvNtNtCs6IAuOt8vWmF_3syn3gen5visit21visit_precise_captureNtNtCs3yqPx1X2sxh_15zerofrom_derive7visitor11TypeVisitorEBZ_, symObjAddr: 0x8D84, symBinAddr: 0x56724, symSize: 0xC8 }
  - { offset: 0x834D3, size: 0x8, addend: 0x0, symName: __RINvNtNtCs6IAuOt8vWmF_3syn3gen5visit21visit_trait_item_typeNtNtCs3yqPx1X2sxh_15zerofrom_derive7visitor11TypeVisitorEBZ_, symObjAddr: 0x8E4C, symBinAddr: 0x567EC, symSize: 0x198 }
  - { offset: 0x835B2, size: 0x8, addend: 0x0, symName: __RINvNtNtCs6IAuOt8vWmF_3syn3gen5visit21visit_type_impl_traitNtNtCs3yqPx1X2sxh_15zerofrom_derive7visitor11TypeVisitorEBZ_, symObjAddr: 0x8FE4, symBinAddr: 0x56984, symSize: 0xC8 }
  - { offset: 0x83647, size: 0x8, addend: 0x0, symName: __RINvNtNtCs6IAuOt8vWmF_3syn3gen5visit21visit_where_predicateNtNtCs3yqPx1X2sxh_15zerofrom_derive7visitor11TypeVisitorEBZ_, symObjAddr: 0x90AC, symBinAddr: 0x56A4C, symSize: 0x98 }
  - { offset: 0x836BD, size: 0x8, addend: 0x0, symName: __RINvNtNtCs6IAuOt8vWmF_3syn3gen5visit22visit_expr_method_callNtNtCs3yqPx1X2sxh_15zerofrom_derive7visitor11TypeVisitorEB10_, symObjAddr: 0x9144, symBinAddr: 0x56AE4, symSize: 0x1C8 }
  - { offset: 0x8379C, size: 0x8, addend: 0x0, symName: __RINvNtNtCs6IAuOt8vWmF_3syn3gen5visit22visit_field_mutabilityNtNtCs3yqPx1X2sxh_15zerofrom_derive7visitor11TypeVisitorEB10_, symObjAddr: 0x930C, symBinAddr: 0x56CAC, symSize: 0x24 }
  - { offset: 0x837DE, size: 0x8, addend: 0x0, symName: __RINvNtNtCs6IAuOt8vWmF_3syn3gen5visit22visit_generic_argumentNtNtCs3yqPx1X2sxh_15zerofrom_derive7visitor11TypeVisitorEB10_, symObjAddr: 0x9330, symBinAddr: 0x56CD0, symSize: 0x1A8 }
  - { offset: 0x838CC, size: 0x8, addend: 0x0, symName: __RINvNtNtCs6IAuOt8vWmF_3syn3gen5visit22visit_item_foreign_modNtNtCs3yqPx1X2sxh_15zerofrom_derive7visitor11TypeVisitorEB10_, symObjAddr: 0x94D8, symBinAddr: 0x56E78, symSize: 0x108 }
  - { offset: 0x83976, size: 0x8, addend: 0x0, symName: __RINvNtNtCs6IAuOt8vWmF_3syn3gen5visit22visit_item_trait_aliasNtNtCs3yqPx1X2sxh_15zerofrom_derive7visitor11TypeVisitorEB10_, symObjAddr: 0x95E0, symBinAddr: 0x56F80, symSize: 0x158 }
  - { offset: 0x83A3F, size: 0x8, addend: 0x0, symName: __RINvNtNtCs6IAuOt8vWmF_3syn3gen5visit22visit_pat_tuple_structNtNtCs3yqPx1X2sxh_15zerofrom_derive7visitor11TypeVisitorEB10_, symObjAddr: 0x9738, symBinAddr: 0x570D8, symSize: 0x190 }
  - { offset: 0x83B1E, size: 0x8, addend: 0x0, symName: __RINvNtNtCs6IAuOt8vWmF_3syn3gen5visit22visit_trait_item_constNtNtCs3yqPx1X2sxh_15zerofrom_derive7visitor11TypeVisitorEB10_, symObjAddr: 0x98C8, symBinAddr: 0x57268, symSize: 0x11C }
  - { offset: 0x83BAA, size: 0x8, addend: 0x0, symName: __RINvNtNtCs6IAuOt8vWmF_3syn3gen5visit22visit_trait_item_macroNtNtCs3yqPx1X2sxh_15zerofrom_derive7visitor11TypeVisitorEB10_, symObjAddr: 0x99E4, symBinAddr: 0x57384, symSize: 0xA8 }
  - { offset: 0x83C20, size: 0x8, addend: 0x0, symName: __RINvNtNtCs6IAuOt8vWmF_3syn3gen5visit22visit_type_param_boundNtNtCs3yqPx1X2sxh_15zerofrom_derive7visitor11TypeVisitorEB10_, symObjAddr: 0x9A8C, symBinAddr: 0x5742C, symSize: 0x12C }
  - { offset: 0x83CD2, size: 0x8, addend: 0x0, symName: __RINvNtNtCs6IAuOt8vWmF_3syn3gen5visit23visit_foreign_item_typeNtNtCs3yqPx1X2sxh_15zerofrom_derive7visitor11TypeVisitorEB11_, symObjAddr: 0x9BB8, symBinAddr: 0x57558, symSize: 0xC8 }
  - { offset: 0x83D48, size: 0x8, addend: 0x0, symName: __RINvNtNtCs6IAuOt8vWmF_3syn3gen5visit23visit_item_extern_crateNtNtCs3yqPx1X2sxh_15zerofrom_derive7visitor11TypeVisitorEB11_, symObjAddr: 0x9C80, symBinAddr: 0x57620, symSize: 0x114 }
  - { offset: 0x83DD4, size: 0x8, addend: 0x0, symName: __RINvNtNtCs6IAuOt8vWmF_3syn3gen5visit23visit_static_mutabilityNtNtCs3yqPx1X2sxh_15zerofrom_derive7visitor11TypeVisitorEB11_, symObjAddr: 0x9D94, symBinAddr: 0x57734, symSize: 0x60 }
  - { offset: 0x83E16, size: 0x8, addend: 0x0, symName: __RINvNtNtCs6IAuOt8vWmF_3syn3gen5visit23visit_type_trait_objectNtNtCs3yqPx1X2sxh_15zerofrom_derive7visitor11TypeVisitorEB11_, symObjAddr: 0x9DF4, symBinAddr: 0x57794, symSize: 0xC8 }
  - { offset: 0x83EAB, size: 0x8, addend: 0x0, symName: __RINvNtNtCs6IAuOt8vWmF_3syn3gen5visit24visit_foreign_item_macroNtNtCs3yqPx1X2sxh_15zerofrom_derive7visitor11TypeVisitorEB12_, symObjAddr: 0x9EBC, symBinAddr: 0x5785C, symSize: 0xA8 }
  - { offset: 0x83F21, size: 0x8, addend: 0x0, symName: __RINvNtNtCs6IAuOt8vWmF_3syn3gen5visit24visit_pointer_mutabilityNtNtCs3yqPx1X2sxh_15zerofrom_derive7visitor11TypeVisitorEB12_, symObjAddr: 0x9F64, symBinAddr: 0x57904, symSize: 0x6C }
  - { offset: 0x83F63, size: 0x8, addend: 0x0, symName: __RINvNtNtCs6IAuOt8vWmF_3syn3gen5visit24visit_predicate_lifetimeNtNtCs3yqPx1X2sxh_15zerofrom_derive7visitor11TypeVisitorEB12_, symObjAddr: 0x9FD0, symBinAddr: 0x57970, symSize: 0xD0 }
  - { offset: 0x83FF8, size: 0x8, addend: 0x0, symName: __RINvNtNtCs6IAuOt8vWmF_3syn3gen5visit25visit_foreign_item_staticNtNtCs3yqPx1X2sxh_15zerofrom_derive7visitor11TypeVisitorEB13_, symObjAddr: 0xA0A0, symBinAddr: 0x57A40, symSize: 0x100 }
  - { offset: 0x8406E, size: 0x8, addend: 0x0, symName: __RINvNtNtCs6IAuOt8vWmF_3syn3gen5visit26visit_trait_bound_modifierNtNtCs3yqPx1X2sxh_15zerofrom_derive7visitor11TypeVisitorEB14_, symObjAddr: 0xA1A0, symBinAddr: 0x57B40, symSize: 0x60 }
  - { offset: 0x840B0, size: 0x8, addend: 0x0, symName: __RINvNtNtCs6IAuOt8vWmF_3syn3gen5visit37visit_parenthesized_generic_argumentsNtNtCs3yqPx1X2sxh_15zerofrom_derive7visitor11TypeVisitorEB1f_, symObjAddr: 0xA200, symBinAddr: 0x57BA0, symSize: 0xD8 }
  - { offset: 0x84145, size: 0x8, addend: 0x0, symName: __RINvNtNtCs6IAuOt8vWmF_3syn3gen5visit39visit_angle_bracketed_generic_argumentsNtNtCs3yqPx1X2sxh_15zerofrom_derive7visitor11TypeVisitorEB1h_, symObjAddr: 0xA2D8, symBinAddr: 0x57C78, symSize: 0xC8 }
  - { offset: 0x841DA, size: 0x8, addend: 0x0, symName: __RINvNtNtCs6IAuOt8vWmF_3syn3gen5visit9visit_abiNtNtCs3yqPx1X2sxh_15zerofrom_derive7visitor11TypeVisitorEBM_, symObjAddr: 0xA3A0, symBinAddr: 0x57D40, symSize: 0x84 }
  - { offset: 0x8423A, size: 0x8, addend: 0x0, symName: __RINvNtNtCs6IAuOt8vWmF_3syn3gen5visit9visit_armNtNtCs3yqPx1X2sxh_15zerofrom_derive7visitor11TypeVisitorEBM_, symObjAddr: 0xA424, symBinAddr: 0x57DC4, symSize: 0x15C }
  - { offset: 0x842C6, size: 0x8, addend: 0x0, symName: __RINvNtNtCs6IAuOt8vWmF_3syn3gen5visit9visit_litNtNtCs3yqPx1X2sxh_15zerofrom_derive7visitor11TypeVisitorEBM_, symObjAddr: 0xA580, symBinAddr: 0x57F20, symSize: 0x264 }
  - { offset: 0x843F8, size: 0x8, addend: 0x0, symName: __RINvNtNtCs6IAuOt8vWmF_3syn3gen5visit9visit_patNtNtCs3yqPx1X2sxh_15zerofrom_derive7visitor11TypeVisitorEBM_, symObjAddr: 0xA7E4, symBinAddr: 0x58184, symSize: 0x390 }
  - { offset: 0x8F362, size: 0x8, addend: 0x0, symName: __RINvCs6IAuOt8vWmF_3syn5parseNtNtB2_6derive11DeriveInputECs3yqPx1X2sxh_15zerofrom_derive, symObjAddr: 0x0, symBinAddr: 0x58514, symSize: 0x30 }
  - { offset: 0x8F72F, size: 0x8, addend: 0x0, symName: __RNvXsR_NtCs9i5KxIbZ5ph_10proc_macro6bridgeINtNtCsfvfooZQ3Axs_4core6option6OptionNtNtB5_6client11TokenStreamEINtNtB5_3rpc6EncodeuE6encodeCs3yqPx1X2sxh_15zerofrom_derive, symObjAddr: 0x5F44, symBinAddr: 0x5E430, symSize: 0xCC }
  - { offset: 0x8F7D5, size: 0x8, addend: 0x0, symName: __RNvXsR_NtCs9i5KxIbZ5ph_10proc_macro6bridgeINtNtCsfvfooZQ3Axs_4core6option6OptionReEINtNtB5_3rpc6EncodeuE6encodeCs3yqPx1X2sxh_15zerofrom_derive, symObjAddr: 0x6010, symBinAddr: 0x5E4FC, symSize: 0xD8 }
  - { offset: 0x8F98C, size: 0x8, addend: 0x0, symName: __RNvXs1f_Cs9i5KxIbZ5ph_10proc_macroNtB6_5IdentNtNtCsfvfooZQ3Axs_4core5clone5Clone5cloneCs3yqPx1X2sxh_15zerofrom_derive, symObjAddr: 0x5820, symBinAddr: 0x5DD0C, symSize: 0x40 }
  - { offset: 0x8F9C0, size: 0x8, addend: 0x0, symName: __RNvXsU_Cs9i5KxIbZ5ph_10proc_macroNtB5_11TokenStreamNtNtCsfvfooZQ3Axs_4core5clone5Clone5cloneCs3yqPx1X2sxh_15zerofrom_derive, symObjAddr: 0x60E8, symBinAddr: 0x5E5D4, symSize: 0x64 }
  - { offset: 0x8FD29, size: 0x8, addend: 0x0, symName: __RNvXsA_NtCs3cP53eQoTwO_11proc_macro28fallbackNtB5_5IdentNtNtCsfvfooZQ3Axs_4core5clone5Clone5cloneCs3yqPx1X2sxh_15zerofrom_derive, symObjAddr: 0x5E38, symBinAddr: 0x5E324, symSize: 0x94 }
  - { offset: 0x8FD5D, size: 0x8, addend: 0x0, symName: __RNvXss_NtCs3cP53eQoTwO_11proc_macro28fallbackNtB5_11TokenStreamNtNtCsfvfooZQ3Axs_4core5clone5Clone5cloneCs3yqPx1X2sxh_15zerofrom_derive, symObjAddr: 0x6CC4, symBinAddr: 0x5F1B0, symSize: 0x24 }
  - { offset: 0x8FD8F, size: 0x8, addend: 0x0, symName: __RNvXsu_NtCs3cP53eQoTwO_11proc_macro28fallbackNtB5_4SpanNtNtCsfvfooZQ3Axs_4core5clone5Clone5cloneCs3yqPx1X2sxh_15zerofrom_derive, symObjAddr: 0x6D0C, symBinAddr: 0x5F1F8, symSize: 0x10 }
  - { offset: 0x8FFE0, size: 0x8, addend: 0x0, symName: __RNvXsG_Cs3cP53eQoTwO_11proc_macro2NtB5_11TokenStreamNtNtCsfvfooZQ3Axs_4core5clone5Clone5cloneCs3yqPx1X2sxh_15zerofrom_derive, symObjAddr: 0x5ECC, symBinAddr: 0x5E3B8, symSize: 0x78 }
  - { offset: 0x90012, size: 0x8, addend: 0x0, symName: __RNvXsY_Cs3cP53eQoTwO_11proc_macro2NtB5_5IdentNtNtCsfvfooZQ3Axs_4core5clone5Clone5cloneCs3yqPx1X2sxh_15zerofrom_derive, symObjAddr: 0x614C, symBinAddr: 0x5E638, symSize: 0x78 }
  - { offset: 0x94B3D, size: 0x8, addend: 0x0, symName: __RNvXs5_NtCsfvfooZQ3Axs_4core6optionINtB5_6OptionNtCs3cP53eQoTwO_11proc_macro25IdentENtNtNtNtB7_4iter6traits7collect12IntoIterator9into_iterCs3yqPx1X2sxh_15zerofrom_derive, symObjAddr: 0x5BE4, symBinAddr: 0x5E0D0, symSize: 0x30 }
  - { offset: 0x94BB6, size: 0x8, addend: 0x0, symName: __RNvXsc_NtCsfvfooZQ3Axs_4core6optionINtB5_6OptionbENtNtB7_3cmp9PartialEq2eqCs3yqPx1X2sxh_15zerofrom_derive, symObjAddr: 0x6204, symBinAddr: 0x5E6F0, symSize: 0xAC }
  - { offset: 0x94C6C, size: 0x8, addend: 0x0, symName: __RNvXsv_NtCsfvfooZQ3Axs_4core6optionINtB5_8IntoIterNtCs3cP53eQoTwO_11proc_macro25IdentENtNtNtNtB7_4iter6traits8iterator8Iterator4nextCs3yqPx1X2sxh_15zerofrom_derive, symObjAddr: 0x6D1C, symBinAddr: 0x5F208, symSize: 0x40 }
  - { offset: 0x94D0F, size: 0x8, addend: 0x0, symName: __RNvXsv_NtCsfvfooZQ3Axs_4core6optionINtB5_8IntoIterNtCs3cP53eQoTwO_11proc_macro25IdentENtNtNtNtB7_4iter6traits8iterator8Iterator9size_hintCs3yqPx1X2sxh_15zerofrom_derive, symObjAddr: 0x6D5C, symBinAddr: 0x5F248, symSize: 0x44 }
  - { offset: 0x955A8, size: 0x8, addend: 0x0, symName: __RINvNtCsfvfooZQ3Axs_4core3mem4takeINtNtCs6IAuOt8vWmF_3syn10punctuated10PunctuatedNtNtBB_8generics14TypeParamBoundNtNtBB_5token4PlusEECs3yqPx1X2sxh_15zerofrom_derive, symObjAddr: 0x4300, symBinAddr: 0x5C814, symSize: 0x54 }
  - { offset: 0x95641, size: 0x8, addend: 0x0, symName: __RINvNtCsfvfooZQ3Axs_4core3mem7replaceNtCs3cP53eQoTwO_11proc_macro25IdentECs3yqPx1X2sxh_15zerofrom_derive, symObjAddr: 0x4354, symBinAddr: 0x5C868, symSize: 0x38 }
  - { offset: 0x959E2, size: 0x8, addend: 0x0, symName: __RINvXs2U_NtNtCsfvfooZQ3Axs_4core5slice4iterINtB7_4IterNtCs3cP53eQoTwO_11proc_macro25IdentENtNtNtNtBb_4iter6traits8iterator8Iterator4folduNCINvNtNtB1w_8adapters3map8map_foldRBQ_NtNtCs6IAuOt8vWmF_3syn8generics14WherePredicateuNCNvCs3yqPx1X2sxh_15zerofrom_derive14zf_derive_impls4_0NCINvNvB1q_8for_each4callB2O_NCINvMsi_NtCse1nGBsou5OW_5alloc3vecINtB55_3VecB2O_E14extend_trustedINtB2g_3MapBF_B3A_EE0E0E0EB3E_, symObjAddr: 0x4720, symBinAddr: 0x5CC0C, symSize: 0x1B8 }
  - { offset: 0x95B36, size: 0x8, addend: 0x0, symName: __RINvXs2U_NtNtCsfvfooZQ3Axs_4core5slice4iterINtB7_4IterNtNtCs6IAuOt8vWmF_3syn4attr9AttributeENtNtNtNtBb_4iter6traits8iterator8Iterator3anyNCNvCs3yqPx1X2sxh_15zerofrom_derive8has_attr0EB2f_, symObjAddr: 0x48D8, symBinAddr: 0x5CDC4, symSize: 0xB4 }
  - { offset: 0x95B9B, size: 0x8, addend: 0x0, symName: __RINvXs2U_NtNtCsfvfooZQ3Axs_4core5slice4iterINtB7_4IterNtNtCs6IAuOt8vWmF_3syn8generics9TypeParamENtNtNtNtBb_4iter6traits8iterator8Iterator4folduNCINvNtNtB1C_8adapters3map8map_foldRBQ_NtCs3cP53eQoTwO_11proc_macro25IdentuNCNvCs3yqPx1X2sxh_15zerofrom_derive14zf_derive_impls_0NCINvNvB1w_8for_each4callB2U_NCINvMsi_NtCse1nGBsou5OW_5alloc3vecINtB4Y_3VecB2U_E14extend_trustedINtB2m_3MapBF_B3u_EE0E0E0EB3y_, symObjAddr: 0x498C, symBinAddr: 0x5CE78, symSize: 0x1B8 }
  - { offset: 0x95CEF, size: 0x8, addend: 0x0, symName: __RNvXs2U_NtNtCsfvfooZQ3Axs_4core5slice4iterINtB6_4IterNtCs3cP53eQoTwO_11proc_macro25IdentENtNtNtNtBa_4iter6traits8iterator8Iterator4nextCs3yqPx1X2sxh_15zerofrom_derive, symObjAddr: 0x5860, symBinAddr: 0x5DD4C, symSize: 0xBC }
  - { offset: 0x95E3D, size: 0x8, addend: 0x0, symName: __RNvXs2U_NtNtCsfvfooZQ3Axs_4core5slice4iterINtB6_4IterNtCs3cP53eQoTwO_11proc_macro25IdentENtNtNtNtBa_4iter6traits8iterator8Iterator9size_hintCs3yqPx1X2sxh_15zerofrom_derive, symObjAddr: 0x591C, symBinAddr: 0x5DE08, symSize: 0x70 }
  - { offset: 0x95EAC, size: 0x8, addend: 0x0, symName: __RNvXs2U_NtNtCsfvfooZQ3Axs_4core5slice4iterINtB6_4IterNtNtCs6IAuOt8vWmF_3syn8generics9TypeParamENtNtNtNtBa_4iter6traits8iterator8Iterator4nextCs3yqPx1X2sxh_15zerofrom_derive, symObjAddr: 0x598C, symBinAddr: 0x5DE78, symSize: 0xBC }
  - { offset: 0x95FFA, size: 0x8, addend: 0x0, symName: __RNvXs2U_NtNtCsfvfooZQ3Axs_4core5slice4iterINtB6_4IterNtNtCs6IAuOt8vWmF_3syn8generics9TypeParamENtNtNtNtBa_4iter6traits8iterator8Iterator9size_hintCs3yqPx1X2sxh_15zerofrom_derive, symObjAddr: 0x5A48, symBinAddr: 0x5DF34, symSize: 0x70 }
  - { offset: 0x9606F, size: 0x8, addend: 0x0, symName: __RINvXs32_NtNtCsfvfooZQ3Axs_4core5slice4iterINtB7_7IterMutNtNtCs6IAuOt8vWmF_3syn8generics9TypeParamENtNtNtNtBb_4iter6traits8iterator8Iterator4folduNCINvNtNtB1F_8adapters3map8map_foldQBT_TNtCs3cP53eQoTwO_11proc_macro25IdentINtNtBb_6option6OptionB2Y_EEuNCNvCs3yqPx1X2sxh_15zerofrom_derive14zf_derive_impls0_0NCINvNvB1z_8for_each4callB2X_NCINvXs1i_NtCsloNvcHxBCre_9hashbrown3mapINtB5w_7HashMapB2Y_B3x_NtNtNtCscOYdFFY2T5N_3std4hash6random11RandomStateEINtNtB1D_7collect6ExtendB2X_E6extendINtB2p_3MapBF_B40_EE0E0E0EB44_, symObjAddr: 0x4B44, symBinAddr: 0x5D030, symSize: 0x190 }
  - { offset: 0x961C2, size: 0x8, addend: 0x0, symName: __RNvXs32_NtNtCsfvfooZQ3Axs_4core5slice4iterINtB6_7IterMutNtCs3cP53eQoTwO_11proc_macro25IdentENtNtNtNtBa_4iter6traits8iterator8Iterator4nextCs3yqPx1X2sxh_15zerofrom_derive, symObjAddr: 0x5AB8, symBinAddr: 0x5DFA4, symSize: 0xBC }
  - { offset: 0x962FB, size: 0x8, addend: 0x0, symName: __RNvXs32_NtNtCsfvfooZQ3Axs_4core5slice4iterINtB6_7IterMutNtNtCs6IAuOt8vWmF_3syn8generics9TypeParamENtNtNtNtBa_4iter6traits8iterator8Iterator9size_hintCs3yqPx1X2sxh_15zerofrom_derive, symObjAddr: 0x5B74, symBinAddr: 0x5E060, symSize: 0x70 }
  - { offset: 0x9661B, size: 0x8, addend: 0x0, symName: __RNvMNtCsfvfooZQ3Axs_4core5sliceSNtCs3cP53eQoTwO_11proc_macro25Ident4iterCs3yqPx1X2sxh_15zerofrom_derive, symObjAddr: 0x52B4, symBinAddr: 0x5D7A0, symSize: 0x28 }
  - { offset: 0x96AAB, size: 0x8, addend: 0x0, symName: __RINvYINtNtCsfvfooZQ3Axs_4core6option8IntoIterNtCs3cP53eQoTwO_11proc_macro25IdentENtNtNtNtB8_4iter6traits8iterator8Iterator4folduNCINvNvB1h_8for_each4callBH_NCINvMsi_NtCse1nGBsou5OW_5alloc3vecINtB2D_3VecBH_E14extend_trustedB3_E0E0ECs3yqPx1X2sxh_15zerofrom_derive, symObjAddr: 0x4D24, symBinAddr: 0x5D210, symSize: 0x12C }
  - { offset: 0x96BC5, size: 0x8, addend: 0x0, symName: __RINvYINtNtCsfvfooZQ3Axs_4core6option8IntoIterNtCs3cP53eQoTwO_11proc_macro25IdentENtNtNtNtB8_4iter6traits8iterator8Iterator8for_eachNCINvMsi_NtCse1nGBsou5OW_5alloc3vecINtB2e_3VecBH_E14extend_trustedB3_E0ECs3yqPx1X2sxh_15zerofrom_derive, symObjAddr: 0x4E50, symBinAddr: 0x5D33C, symSize: 0x34 }
  - { offset: 0x96C31, size: 0x8, addend: 0x0, symName: __RINvYINtNtNtCsfvfooZQ3Axs_4core5slice4iter4IterNtCs3cP53eQoTwO_11proc_macro25IdentENtNtNtNtBa_4iter6traits8iterator8Iterator3mapNtNtCs6IAuOt8vWmF_3syn8generics14WherePredicateNCNvCs3yqPx1X2sxh_15zerofrom_derive14zf_derive_impls4_0EB2R_, symObjAddr: 0x4E84, symBinAddr: 0x5D370, symSize: 0x30 }
  - { offset: 0x96C9E, size: 0x8, addend: 0x0, symName: __RINvYINtNtNtCsfvfooZQ3Axs_4core5slice4iter4IterNtCs5gpj3SBp7s6_12synstructure11BindingInfoENtNtNtNtBa_4iter6traits8iterator8Iterator8try_folduQNCINvNvB1r_3any5checkRBJ_NCNvCs3yqPx1X2sxh_15zerofrom_derive14zf_derive_impls3_0E0INtNtNtBa_3ops12control_flow11ControlFlowuEEB2K_, symObjAddr: 0x4EB4, symBinAddr: 0x5D3A0, symSize: 0x138 }
  - { offset: 0x96D58, size: 0x8, addend: 0x0, symName: __RINvYINtNtNtCsfvfooZQ3Axs_4core5slice4iter4IterNtCs5gpj3SBp7s6_12synstructure11VariantInfoENtNtNtNtBa_4iter6traits8iterator8Iterator3mapIB4_NtBL_11BindingInfoENCNvCs3yqPx1X2sxh_15zerofrom_derive14zf_derive_impls2_0EB2B_, symObjAddr: 0x4FEC, symBinAddr: 0x5D4D8, symSize: 0x1C }
  - { offset: 0x96DD7, size: 0x8, addend: 0x0, symName: __RINvYINtNtNtCsfvfooZQ3Axs_4core5slice4iter4IterNtCs5gpj3SBp7s6_12synstructure11VariantInfoENtNtNtNtBa_4iter6traits8iterator8Iterator8flat_mapIB4_NtBL_11BindingInfoENCNvCs3yqPx1X2sxh_15zerofrom_derive14zf_derive_impls2_0EB2G_, symObjAddr: 0x5008, symBinAddr: 0x5D4F4, symSize: 0x94 }
  - { offset: 0x96EA5, size: 0x8, addend: 0x0, symName: __RINvYINtNtNtCsfvfooZQ3Axs_4core5slice4iter4IterNtCs5gpj3SBp7s6_12synstructure11VariantInfoENtNtNtNtBa_4iter6traits8iterator8Iterator8try_folduNCINvNtNtB1x_8adapters3map12map_try_foldRBJ_IB4_NtBL_11BindingInfoEuINtNtNtBa_3ops12control_flow11ControlFlowuENCNvCs3yqPx1X2sxh_15zerofrom_derive14zf_derive_impls2_0NCINvNvMst_NtB2n_7flattenINtB57_13FlattenCompatppE13iter_try_fold7flattenB2Y_uB3m_NCINvNvXsv_B57_B5l_B1r_8try_fold7flattenB2Y_uB3m_NCINvNvB1r_3any5checkRB32_NCB45_s3_0E0E0E0E0B3m_EB47_, symObjAddr: 0x509C, symBinAddr: 0x5D588, symSize: 0x138 }
  - { offset: 0x96F60, size: 0x8, addend: 0x0, symName: __RINvYINtNtNtCsfvfooZQ3Axs_4core5slice4iter4IterNtNtCs6IAuOt8vWmF_3syn8generics9TypeParamENtNtNtNtBa_4iter6traits8iterator8Iterator3mapNtCs3cP53eQoTwO_11proc_macro25IdentNCNvCs3yqPx1X2sxh_15zerofrom_derive14zf_derive_impls_0EB2L_, symObjAddr: 0x51D4, symBinAddr: 0x5D6C0, symSize: 0x1C }
  - { offset: 0x96FB8, size: 0x8, addend: 0x0, symName: __RINvYINtNtNtCsfvfooZQ3Axs_4core5slice4iter7IterMutNtNtCs6IAuOt8vWmF_3syn8generics9TypeParamENtNtNtNtBa_4iter6traits8iterator8Iterator3mapTNtCs3cP53eQoTwO_11proc_macro25IdentINtNtBa_6option6OptionB2c_EENCNvCs3yqPx1X2sxh_15zerofrom_derive14zf_derive_impls0_0EB3h_, symObjAddr: 0x51F0, symBinAddr: 0x5D6DC, symSize: 0x30 }
  - { offset: 0x97050, size: 0x8, addend: 0x0, symName: __RNvXNtNtNtCsfvfooZQ3Axs_4core4iter6traits7collectINtNtNtB8_5slice4iter4IterNtCs5gpj3SBp7s6_12synstructure11BindingInfoENtB2_12IntoIterator9into_iterCs3yqPx1X2sxh_15zerofrom_derive, symObjAddr: 0x5804, symBinAddr: 0x5DCF0, symSize: 0x1C }
  - { offset: 0x973CD, size: 0x8, addend: 0x0, symName: __RNvNvNtCsfvfooZQ3Axs_4core9ub_checks23maybe_is_nonoverlapping7runtimeCs3yqPx1X2sxh_15zerofrom_derive, symObjAddr: 0x5694, symBinAddr: 0x5DB80, symSize: 0xD8 }
  - { offset: 0x975CE, size: 0x8, addend: 0x0, symName: __RNvXNtCsfvfooZQ3Axs_4core6borrowNtCs3cP53eQoTwO_11proc_macro25IdentINtB2_6BorrowBu_E6borrowCs3yqPx1X2sxh_15zerofrom_derive, symObjAddr: 0x57F0, symBinAddr: 0x5DCDC, symSize: 0x14 }
  - { offset: 0x979B4, size: 0x8, addend: 0x0, symName: __RINvCs6IAuOt8vWmF_3syn5parseNtNtB2_6derive11DeriveInputECs3yqPx1X2sxh_15zerofrom_derive, symObjAddr: 0x0, symBinAddr: 0x58514, symSize: 0x30 }
  - { offset: 0x9D051, size: 0x8, addend: 0x0, symName: __RINvNtCs6IAuOt8vWmF_3syn11parse_quote5parseNtNtB4_2ty8TypePathECs3yqPx1X2sxh_15zerofrom_derive, symObjAddr: 0x4094, symBinAddr: 0x5C5A8, symSize: 0xCC }
  - { offset: 0x9D0B1, size: 0x8, addend: 0x0, symName: __RINvNtCs6IAuOt8vWmF_3syn11parse_quote5parseNtNtB4_8generics14WherePredicateECs3yqPx1X2sxh_15zerofrom_derive, symObjAddr: 0x4160, symBinAddr: 0x5C674, symSize: 0xD0 }
  - { offset: 0x9D111, size: 0x8, addend: 0x0, symName: __RINvNtCs6IAuOt8vWmF_3syn11parse_quote5parseNtNtB4_8generics9TypeParamECs3yqPx1X2sxh_15zerofrom_derive, symObjAddr: 0x4230, symBinAddr: 0x5C744, symSize: 0xD0 }
  - { offset: 0x9D176, size: 0x8, addend: 0x0, symName: __RINvNvNtCs6IAuOt8vWmF_3syn11parse_quote5parse18panic_cold_displayNtNtB6_5error5ErrorECs3yqPx1X2sxh_15zerofrom_derive, symObjAddr: 0x438C, symBinAddr: 0x201790, symSize: 0x28 }
  - { offset: 0x9D1AD, size: 0x8, addend: 0x0, symName: __RNvXNtCs6IAuOt8vWmF_3syn11parse_quoteNtNtB4_2ty8TypePathNtB2_10ParseQuote5parseCs3yqPx1X2sxh_15zerofrom_derive, symObjAddr: 0x57BC, symBinAddr: 0x5DCA8, symSize: 0x34 }
  - { offset: 0x9D1EE, size: 0x8, addend: 0x0, symName: __RNvXsh_NtCs6IAuOt8vWmF_3syn5parseNvYNtNtB7_2ty8TypePathNtNtB7_11parse_quote10ParseQuote5parseNtB5_6Parser6parse2Cs3yqPx1X2sxh_15zerofrom_derive, symObjAddr: 0x62B0, symBinAddr: 0x5E79C, symSize: 0x354 }
  - { offset: 0x9D2FE, size: 0x8, addend: 0x0, symName: __RNvXsh_NtCs6IAuOt8vWmF_3syn5parseNvYNtNtB7_8generics14WherePredicateNtNtB7_11parse_quote10ParseQuote5parseNtB5_6Parser6parse2Cs3yqPx1X2sxh_15zerofrom_derive, symObjAddr: 0x6604, symBinAddr: 0x5EAF0, symSize: 0x368 }
  - { offset: 0x9D40E, size: 0x8, addend: 0x0, symName: __RNvXsh_NtCs6IAuOt8vWmF_3syn5parseNvYNtNtB7_8generics9TypeParamNtNtB7_11parse_quote10ParseQuote5parseNtB5_6Parser6parse2Cs3yqPx1X2sxh_15zerofrom_derive, symObjAddr: 0x696C, symBinAddr: 0x5EE58, symSize: 0x358 }
  - { offset: 0x9EB34, size: 0x8, addend: 0x0, symName: __RNvXss_NtCse1nGBsou5OW_5alloc6stringNtB5_6StringNtNtNtCsfvfooZQ3Axs_4core3ops5deref5Deref5derefCs3yqPx1X2sxh_15zerofrom_derive, symObjAddr: 0x6CE8, symBinAddr: 0x5F1D4, symSize: 0x24 }
  - { offset: 0x9EB73, size: 0x8, addend: 0x0, symName: __RINvXNtNtCse1nGBsou5OW_5alloc5slice4hackNtCs3cP53eQoTwO_11proc_macro25IdentNtB3_10ConvertVec6to_vecNtNtB7_5alloc6GlobalECs3yqPx1X2sxh_15zerofrom_derive, symObjAddr: 0x43B4, symBinAddr: 0x5C8A0, symSize: 0x36C }
  - { offset: 0x9F077, size: 0x8, addend: 0x0, symName: __RNvNtCse1nGBsou5OW_5alloc3fmt6formatCs3yqPx1X2sxh_15zerofrom_derive, symObjAddr: 0x55C0, symBinAddr: 0x5DAAC, symSize: 0xD4 }
  - { offset: 0x9F0DD, size: 0x8, addend: 0x0, symName: __RNvXs6_NtCse1nGBsou5OW_5alloc5boxedINtB5_3BoxDNtNtCsfvfooZQ3Axs_4core5error5ErrorNtNtBM_6marker4SendNtB1j_4SyncEL_ENtNtNtBM_3ops4drop4Drop4dropCs3yqPx1X2sxh_15zerofrom_derive, symObjAddr: 0x5C14, symBinAddr: 0x5E100, symSize: 0xC4 }
  - { offset: 0x9F214, size: 0x8, addend: 0x0, symName: __RNvXs6_NtCse1nGBsou5OW_5alloc5boxedINtB5_3BoxNtCs3cP53eQoTwO_11proc_macro25IdentENtNtNtCsfvfooZQ3Axs_4core3ops4drop4Drop4dropCs3yqPx1X2sxh_15zerofrom_derive, symObjAddr: 0x5CD8, symBinAddr: 0x5E1C4, symSize: 0xB0 }
  - { offset: 0x9F34B, size: 0x8, addend: 0x0, symName: __RNvXs6_NtCse1nGBsou5OW_5alloc5boxedINtB5_3BoxNtNtNtCscOYdFFY2T5N_3std2io5error6CustomENtNtNtCsfvfooZQ3Axs_4core3ops4drop4Drop4dropCs3yqPx1X2sxh_15zerofrom_derive, symObjAddr: 0x5D88, symBinAddr: 0x5E274, symSize: 0xB0 }
  - { offset: 0x9F492, size: 0x8, addend: 0x0, symName: __RINvMNtCsfvfooZQ3Axs_4core6optionINtB3_6OptionINtNtCse1nGBsou5OW_5alloc5boxed3BoxNtCs3cP53eQoTwO_11proc_macro25IdentEE3mapB1h_NCNvXs8_NtCs6IAuOt8vWmF_3syn10punctuatedINtB28_10PunctuatedB1h_NtNtB2a_5token5CommaENtNtNtNtB5_4iter6traits7collect12IntoIterator9into_iters_0ECs3yqPx1X2sxh_15zerofrom_derive, symObjAddr: 0x30, symBinAddr: 0x58544, symSize: 0x6C }
  - { offset: 0x9FAA3, size: 0x8, addend: 0x0, symName: __RINvMNtCsfvfooZQ3Axs_4core6optionINtB3_6OptionINtNtCse1nGBsou5OW_5alloc5boxed3BoxNtNtCs6IAuOt8vWmF_3syn4expr4ExprEE3mapBI_NCINvNtNtB1l_3gen4fold15fold_expr_breakNtNvCs3yqPx1X2sxh_15zerofrom_derive16replace_lifetime15ReplaceLifetimeEs_0EB2D_, symObjAddr: 0x9C, symBinAddr: 0x585B0, symSize: 0x5C }
  - { offset: 0x9FCA3, size: 0x8, addend: 0x0, symName: __RINvXs8_NtCsloNvcHxBCre_9hashbrown3setINtB6_7HashSetNtCs3cP53eQoTwO_11proc_macro25IdentNtNtNtCscOYdFFY2T5N_3std4hash6random11RandomStateEINtNtNtNtCsfvfooZQ3Axs_4core4iter6traits7collect6ExtendBO_E6extendINtNtCs6IAuOt8vWmF_3syn10punctuated10PunctuatedBO_NtNtB3k_5token5CommaEECs3yqPx1X2sxh_15zerofrom_derive, symObjAddr: 0x4CD4, symBinAddr: 0x5D1C0, symSize: 0x50 }
