---
triple:          'arm64-apple-darwin'
binary-path:     '/Users/cedric/orange/ran-llm-claude-flow/src/rust-pipeline/target/debug/build/markup5ever-e96cd92faa7bd246/build_script_build-e96cd92faa7bd246'
relocations:
  - { offset: 0x1E, size: 0x8, addend: 0x0, symName: __RINvMs6_NtCsloNvcHxBCre_9hashbrown3rawINtB6_8RawTableTRReuEE14reserve_rehashNCINvNtB8_3map11make_hasherBQ_uNtNtNtCscOYdFFY2T5N_3std4hash6random11RandomStateE0ECsbGvsTGsJZQm_18build_script_build, symObjAddr: 0x0, symBinAddr: 0x1000A21C4, symSize: 0x824 }
  - { offset: 0x5A, size: 0x8, addend: 0x0, symName: __RNCINvMs6_NtCsloNvcHxBCre_9hashbrown3rawINtB8_8RawTableTRReuEE14reserve_rehashNCINvNtBa_3map11make_hasherBS_uNtNtNtCscOYdFFY2T5N_3std4hash6random11RandomStateE0E0CsbGvsTGsJZQm_18build_script_build, symObjAddr: 0x1FA0, symBinAddr: 0x100001B6C, symSize: 0xC0 }
  - { offset: 0x217, size: 0x8, addend: 0x0, symName: __RNCINvMs6_NtCsloNvcHxBCre_9hashbrown3rawINtB8_8RawTableTReTmmEEE14reserve_rehashNCINvNtBa_3map11make_hasherBS_BU_NtNtNtCscOYdFFY2T5N_3std4hash6random11RandomStateE0E0CsbGvsTGsJZQm_18build_script_build, symObjAddr: 0x2124, symBinAddr: 0x100001CF0, symSize: 0xC0 }
  - { offset: 0x3DA, size: 0x8, addend: 0x0, symName: __RNCINvMs6_NtCsloNvcHxBCre_9hashbrown3rawINtB8_8RawTableTRReuEE24find_or_find_insert_slotNCINvNtBa_3map14equivalent_keyBS_BS_uE0NCINvB1t_11make_hasherBS_uNtNtNtCscOYdFFY2T5N_3std4hash6random11RandomStateE0E0CsbGvsTGsJZQm_18build_script_build, symObjAddr: 0x2060, symBinAddr: 0x100001C2C, symSize: 0xC4 }
  - { offset: 0x5A7, size: 0x8, addend: 0x0, symName: __RNCINvMs6_NtCsloNvcHxBCre_9hashbrown3rawINtB8_8RawTableTReTmmEEE24find_or_find_insert_slotNCINvNtBa_3map14equivalent_keyBS_BS_BU_E0NCINvB1v_11make_hasherBS_BU_NtNtNtCscOYdFFY2T5N_3std4hash6random11RandomStateE0E0CsbGvsTGsJZQm_18build_script_build, symObjAddr: 0x21E4, symBinAddr: 0x100001DB0, symSize: 0xC4 }
  - { offset: 0x77A, size: 0x8, addend: 0x0, symName: __RNCINvMs6_NtCsloNvcHxBCre_9hashbrown3rawINtB8_8RawTableTReTmmEEE4findNCNvMNtBa_11rustc_entryINtNtBa_3map7HashMapBS_BU_NtNtNtCscOYdFFY2T5N_3std4hash6random11RandomStateE11rustc_entry0E0CsbGvsTGsJZQm_18build_script_build, symObjAddr: 0x22A8, symBinAddr: 0x100001E74, symSize: 0xC4 }
  - { offset: 0x1379, size: 0x8, addend: 0x0, symName: __RNCINvMsa_NtCsloNvcHxBCre_9hashbrown3rawNtB8_13RawTableInner14prepare_resizeNtNtCse1nGBsou5OW_5alloc5alloc6GlobalE0CsbGvsTGsJZQm_18build_script_build, symObjAddr: 0x236C, symBinAddr: 0x100001F38, symSize: 0xBC }
  - { offset: 0x155C, size: 0x8, addend: 0x0, symName: __RNCNvMsa_NtCsloNvcHxBCre_9hashbrown3rawNtB7_13RawTableInner15rehash_in_place0CsbGvsTGsJZQm_18build_script_build, symObjAddr: 0x2428, symBinAddr: 0x100001FF4, symSize: 0x23C }
  - { offset: 0x1C9B, size: 0x8, addend: 0x0, symName: __RNvNtCsloNvcHxBCre_9hashbrown3raw19capacity_to_bucketsCsbGvsTGsJZQm_18build_script_build, symObjAddr: 0x3CD0, symBinAddr: 0x10000389C, symSize: 0x198 }
  - { offset: 0x1E56, size: 0x8, addend: 0x0, symName: __RNvXsB_NtCsloNvcHxBCre_9hashbrown3rawINtB5_11RawIntoIterTReTmmEEENtNtNtCsfvfooZQ3Axs_4core3ops4drop4Drop4dropCsbGvsTGsJZQm_18build_script_build, symObjAddr: 0x3E68, symBinAddr: 0x100003A34, symSize: 0x78 }
  - { offset: 0x1F12, size: 0x8, addend: 0x0, symName: __RNvXsD_NtCsloNvcHxBCre_9hashbrown3rawINtB5_11RawIntoIterTReTmmEEENtNtNtNtCsfvfooZQ3Axs_4core4iter6traits8iterator8Iterator4nextCsbGvsTGsJZQm_18build_script_build, symObjAddr: 0x3EE0, symBinAddr: 0x100003AAC, symSize: 0x108 }
  - { offset: 0x20A1, size: 0x8, addend: 0x0, symName: __RNvXsg_NtCsloNvcHxBCre_9hashbrown3rawINtB5_8RawTableTRReuEENtNtNtCsfvfooZQ3Axs_4core3ops4drop4Drop4dropCsbGvsTGsJZQm_18build_script_build, symObjAddr: 0x3FE8, symBinAddr: 0x100003BB4, symSize: 0x38 }
  - { offset: 0x20DD, size: 0x8, addend: 0x0, symName: __RNvXsg_NtCsloNvcHxBCre_9hashbrown3rawINtB5_8RawTableTReTmmEEENtNtNtCsfvfooZQ3Axs_4core3ops4drop4Drop4dropCsbGvsTGsJZQm_18build_script_build, symObjAddr: 0x4020, symBinAddr: 0x100003BEC, symSize: 0x3C }
  - { offset: 0x211F, size: 0x8, addend: 0x0, symName: __RNvXsh_NtCsloNvcHxBCre_9hashbrown3rawINtB5_8RawTableTReTmmEEENtNtNtNtCsfvfooZQ3Axs_4core4iter6traits7collect12IntoIterator9into_iterCsbGvsTGsJZQm_18build_script_build, symObjAddr: 0x405C, symBinAddr: 0x100003C28, symSize: 0x11C }
  - { offset: 0x5FF1, size: 0x8, addend: 0x0, symName: __RINvMs6_NtCsloNvcHxBCre_9hashbrown3rawINtB6_8RawTableTRReuEE14reserve_rehashNCINvNtB8_3map11make_hasherBQ_uNtNtNtCscOYdFFY2T5N_3std4hash6random11RandomStateE0ECsbGvsTGsJZQm_18build_script_build, symObjAddr: 0x0, symBinAddr: 0x1000A21C4, symSize: 0x824 }
  - { offset: 0x69E1, size: 0x8, addend: 0x0, symName: __RINvMs6_NtCsloNvcHxBCre_9hashbrown3rawINtB6_8RawTableTRReuEE24find_or_find_insert_slotNCINvNtB8_3map14equivalent_keyBQ_BQ_uE0NCINvB1r_11make_hasherBQ_uNtNtNtCscOYdFFY2T5N_3std4hash6random11RandomStateE0ECsbGvsTGsJZQm_18build_script_build, symObjAddr: 0x824, symBinAddr: 0x100000C28, symSize: 0x13C }
  - { offset: 0x6BC5, size: 0x8, addend: 0x0, symName: __RINvMs6_NtCsloNvcHxBCre_9hashbrown3rawINtB6_8RawTableTRReuEE7reserveNCINvNtB8_3map11make_hasherBQ_uNtNtNtCscOYdFFY2T5N_3std4hash6random11RandomStateE0ECsbGvsTGsJZQm_18build_script_build, symObjAddr: 0x960, symBinAddr: 0x100000D64, symSize: 0xCC }
  - { offset: 0x6C9D, size: 0x8, addend: 0x0, symName: __RINvMs6_NtCsloNvcHxBCre_9hashbrown3rawINtB6_8RawTableTReTmmEEE14reserve_rehashNCINvNtB8_3map11make_hasherBQ_BS_NtNtNtCscOYdFFY2T5N_3std4hash6random11RandomStateE0ECsbGvsTGsJZQm_18build_script_build, symObjAddr: 0xA2C, symBinAddr: 0x1000A29E8, symSize: 0x838 }
  - { offset: 0x768D, size: 0x8, addend: 0x0, symName: __RINvMs6_NtCsloNvcHxBCre_9hashbrown3rawINtB6_8RawTableTReTmmEEE24find_or_find_insert_slotNCINvNtB8_3map14equivalent_keyBQ_BQ_BS_E0NCINvB1t_11make_hasherBQ_BS_NtNtNtCscOYdFFY2T5N_3std4hash6random11RandomStateE0ECsbGvsTGsJZQm_18build_script_build, symObjAddr: 0x1264, symBinAddr: 0x100000E30, symSize: 0x13C }
  - { offset: 0x7B07, size: 0x8, addend: 0x0, symName: __RINvMs6_NtCsloNvcHxBCre_9hashbrown3rawINtB6_8RawTableTReTmmEEE4findNCNvMNtB8_11rustc_entryINtNtB8_3map7HashMapBQ_BS_NtNtNtCscOYdFFY2T5N_3std4hash6random11RandomStateE11rustc_entry0ECsbGvsTGsJZQm_18build_script_build, symObjAddr: 0x13A0, symBinAddr: 0x100000F6C, symSize: 0x330 }
  - { offset: 0x7FB5, size: 0x8, addend: 0x0, symName: __RINvMs6_NtCsloNvcHxBCre_9hashbrown3rawINtB6_8RawTableTReTmmEEE7reserveNCINvNtB8_3map11make_hasherBQ_BS_NtNtNtCscOYdFFY2T5N_3std4hash6random11RandomStateE0ECsbGvsTGsJZQm_18build_script_build, symObjAddr: 0x16D0, symBinAddr: 0x10000129C, symSize: 0xCC }
  - { offset: 0x8128, size: 0x8, addend: 0x0, symName: __RINvMsa_NtCsloNvcHxBCre_9hashbrown3rawNtB6_13RawTableInner13drop_elementsTRReuEECsbGvsTGsJZQm_18build_script_build, symObjAddr: 0x179C, symBinAddr: 0x100001368, symSize: 0x28 }
  - { offset: 0x82F4, size: 0x8, addend: 0x0, symName: __RINvMsa_NtCsloNvcHxBCre_9hashbrown3rawNtB6_13RawTableInner13drop_elementsTReTmmEEECsbGvsTGsJZQm_18build_script_build, symObjAddr: 0x17C4, symBinAddr: 0x100001390, symSize: 0x28 }
  - { offset: 0x855F, size: 0x8, addend: 0x0, symName: __RINvMsa_NtCsloNvcHxBCre_9hashbrown3rawNtB6_13RawTableInner16drop_inner_tableTRReuENtNtCse1nGBsou5OW_5alloc5alloc6GlobalECsbGvsTGsJZQm_18build_script_build, symObjAddr: 0x17EC, symBinAddr: 0x1000013B8, symSize: 0xBC }
  - { offset: 0x8803, size: 0x8, addend: 0x0, symName: __RINvMsa_NtCsloNvcHxBCre_9hashbrown3rawNtB6_13RawTableInner16drop_inner_tableTReTmmEENtNtCse1nGBsou5OW_5alloc5alloc6GlobalECsbGvsTGsJZQm_18build_script_build, symObjAddr: 0x18A8, symBinAddr: 0x100001474, symSize: 0xBC }
  - { offset: 0x8A16, size: 0x8, addend: 0x0, symName: __RINvMsa_NtCsloNvcHxBCre_9hashbrown3rawNtB6_13RawTableInner17new_uninitializedNtNtCse1nGBsou5OW_5alloc5alloc6GlobalECsbGvsTGsJZQm_18build_script_build, symObjAddr: 0x1964, symBinAddr: 0x100001530, symSize: 0x1B0 }
  - { offset: 0x8C4F, size: 0x8, addend: 0x0, symName: __RINvMsa_NtCsloNvcHxBCre_9hashbrown3rawNtB6_13RawTableInner22fallible_with_capacityNtNtCse1nGBsou5OW_5alloc5alloc6GlobalECsbGvsTGsJZQm_18build_script_build, symObjAddr: 0x1B14, symBinAddr: 0x1000016E0, symSize: 0x2A8 }
  - { offset: 0x90C6, size: 0x8, addend: 0x0, symName: __RINvMsi_NtCsloNvcHxBCre_9hashbrown3rawINtB6_12RawIterRangeTReTmmEEE9next_implKb0_ECsbGvsTGsJZQm_18build_script_build, symObjAddr: 0x1DBC, symBinAddr: 0x100001988, symSize: 0x1E4 }
  - { offset: 0x9C19, size: 0x8, addend: 0x0, symName: __RNvMs1_NtCsloNvcHxBCre_9hashbrown3rawNtB5_11TableLayout20calculate_layout_forCsbGvsTGsJZQm_18build_script_build, symObjAddr: 0x2664, symBinAddr: 0x100002230, symSize: 0x210 }
  - { offset: 0xA0A6, size: 0x8, addend: 0x0, symName: __RNvMs6_NtCsloNvcHxBCre_9hashbrown3rawINtB5_8RawTableTRReuEE14insert_in_slotCsbGvsTGsJZQm_18build_script_build, symObjAddr: 0x2874, symBinAddr: 0x100002440, symSize: 0x130 }
  - { offset: 0xA602, size: 0x8, addend: 0x0, symName: __RNvMs6_NtCsloNvcHxBCre_9hashbrown3rawINtB5_8RawTableTReTmmEEE14insert_in_slotCsbGvsTGsJZQm_18build_script_build, symObjAddr: 0x29A4, symBinAddr: 0x100002570, symSize: 0x138 }
  - { offset: 0xAACB, size: 0x8, addend: 0x0, symName: __RNvMs6_NtCsloNvcHxBCre_9hashbrown3rawINtB5_8RawTableTReTmmEEE14insert_no_growCsbGvsTGsJZQm_18build_script_build, symObjAddr: 0x2ADC, symBinAddr: 0x1000026A8, symSize: 0x14C }
  - { offset: 0xAD46, size: 0x8, addend: 0x0, symName: __RNvMs6_NtCsloNvcHxBCre_9hashbrown3rawINtB5_8RawTableTReTmmEEE14into_iter_fromCsbGvsTGsJZQm_18build_script_build, symObjAddr: 0x2C28, symBinAddr: 0x1000027F4, symSize: 0x90 }
  - { offset: 0xAE32, size: 0x8, addend: 0x0, symName: __RNvMs6_NtCsloNvcHxBCre_9hashbrown3rawINtB5_8RawTableTReTmmEEE15into_allocationCsbGvsTGsJZQm_18build_script_build, symObjAddr: 0x2CB8, symBinAddr: 0x100002884, symSize: 0x13C }
  - { offset: 0xB073, size: 0x8, addend: 0x0, symName: __RNvMsa_NtCsloNvcHxBCre_9hashbrown3rawNtB5_13RawTableInner15fix_insert_slotCsbGvsTGsJZQm_18build_script_build, symObjAddr: 0x2DF4, symBinAddr: 0x1000029C0, symSize: 0x128 }
  - { offset: 0xB3F1, size: 0x8, addend: 0x0, symName: __RNvMsa_NtCsloNvcHxBCre_9hashbrown3rawNtB5_13RawTableInner15rehash_in_placeCsbGvsTGsJZQm_18build_script_build, symObjAddr: 0x2F1C, symBinAddr: 0x100002AE8, symSize: 0x4E8 }
  - { offset: 0xBBFB, size: 0x8, addend: 0x0, symName: __RNvMsa_NtCsloNvcHxBCre_9hashbrown3rawNtB5_13RawTableInner16find_insert_slotCsbGvsTGsJZQm_18build_script_build, symObjAddr: 0x3404, symBinAddr: 0x100002FD0, symSize: 0x10C }
  - { offset: 0xBDEC, size: 0x8, addend: 0x0, symName: __RNvMsa_NtCsloNvcHxBCre_9hashbrown3rawNtB5_13RawTableInner19prepare_insert_slotCsbGvsTGsJZQm_18build_script_build, symObjAddr: 0x3510, symBinAddr: 0x1000030DC, symSize: 0x74 }
  - { offset: 0xC0DE, size: 0x8, addend: 0x0, symName: __RNvMsa_NtCsloNvcHxBCre_9hashbrown3rawNtB5_13RawTableInner23prepare_rehash_in_placeCsbGvsTGsJZQm_18build_script_build, symObjAddr: 0x3584, symBinAddr: 0x100003150, symSize: 0x254 }
  - { offset: 0xC7DA, size: 0x8, addend: 0x0, symName: __RNvMsa_NtCsloNvcHxBCre_9hashbrown3rawNtB5_13RawTableInner25find_insert_slot_in_groupCsbGvsTGsJZQm_18build_script_build, symObjAddr: 0x37D8, symBinAddr: 0x1000033A4, symSize: 0x160 }
  - { offset: 0xCAA3, size: 0x8, addend: 0x0, symName: __RNvMsa_NtCsloNvcHxBCre_9hashbrown3rawNtB5_13RawTableInner30find_or_find_insert_slot_innerCsbGvsTGsJZQm_18build_script_build, symObjAddr: 0x3938, symBinAddr: 0x100003504, symSize: 0x2BC }
  - { offset: 0xCE9E, size: 0x8, addend: 0x0, symName: __RNvMsi_NtCsloNvcHxBCre_9hashbrown3rawINtB5_12RawIterRangeTReTmmEEE3newCsbGvsTGsJZQm_18build_script_build, symObjAddr: 0x3BF4, symBinAddr: 0x1000037C0, symSize: 0xC0 }
  - { offset: 0xD132, size: 0x8, addend: 0x0, symName: __RNvMso_NtCsloNvcHxBCre_9hashbrown3rawINtB5_7RawIterTReTmmEEE13drop_elementsCsbGvsTGsJZQm_18build_script_build, symObjAddr: 0x3CB4, symBinAddr: 0x100003880, symSize: 0x1C }
  - { offset: 0xD356, size: 0x8, addend: 0x0, symName: __RINvMs3_NtCsfvfooZQ3Axs_4core3fmtNtB6_9Arguments6new_v1Kj3_Kj2_ECsbGvsTGsJZQm_18build_script_build, symObjAddr: 0x0, symBinAddr: 0x100003D44, symSize: 0x54 }
  - { offset: 0xD78C, size: 0x8, addend: 0x0, symName: __RNvXs1A_NtCsfvfooZQ3Axs_4core3fmtTmmENtB6_5Debug3fmtCsbGvsTGsJZQm_18build_script_build, symObjAddr: 0x3014, symBinAddr: 0x100006750, symSize: 0x90 }
  - { offset: 0xD82D, size: 0x8, addend: 0x0, symName: __RNvXs1a_NtCsfvfooZQ3Axs_4core3fmtRNtNtNtCscOYdFFY2T5N_3std3ffi6os_str8OsStringNtB6_5Debug3fmtCsbGvsTGsJZQm_18build_script_build, symObjAddr: 0x30A4, symBinAddr: 0x1000067E0, symSize: 0x30 }
  - { offset: 0xDC77, size: 0x8, addend: 0x0, symName: __RINvNtCsfvfooZQ3Axs_4core3ptr14read_unalignedNtNtNtNtB4_9core_arch10arm_shared4neon9uint8x8_tECsbGvsTGsJZQm_18build_script_build, symObjAddr: 0x130, symBinAddr: 0x100003E74, symSize: 0x8C }
  - { offset: 0xDD4B, size: 0x8, addend: 0x0, symName: __RINvNtCsfvfooZQ3Axs_4core3ptr15write_unalignedNtNtNtNtB4_9core_arch10arm_shared4neon9uint8x8_tECsbGvsTGsJZQm_18build_script_build, symObjAddr: 0x1BC, symBinAddr: 0x100003F00, symSize: 0x70 }
  - { offset: 0xE2FF, size: 0x8, addend: 0x0, symName: __RINvNvNtCsfvfooZQ3Axs_4core3ptr19swap_nonoverlapping7runtimehECsbGvsTGsJZQm_18build_script_build, symObjAddr: 0x2264, symBinAddr: 0x100005CA0, symSize: 0x1B4 }
  - { offset: 0xE93B, size: 0x8, addend: 0x0, symName: __RNvNvNtCsfvfooZQ3Axs_4core3ptr13read_volatile18precondition_checkCsbGvsTGsJZQm_18build_script_build, symObjAddr: 0x2860, symBinAddr: 0x10000629C, symSize: 0x100 }
  - { offset: 0xEA50, size: 0x8, addend: 0x0, symName: __RNvNvNtCsfvfooZQ3Axs_4core3ptr7replace18precondition_checkCsbGvsTGsJZQm_18build_script_build, symObjAddr: 0x2C60, symBinAddr: 0x10000639C, symSize: 0x100 }
  - { offset: 0xF36E, size: 0x8, addend: 0x0, symName: __RINvNtNtNtCsfvfooZQ3Axs_4core9core_arch10arm_shared4neon13vget_lane_u64Kl0_ECsbGvsTGsJZQm_18build_script_build, symObjAddr: 0x5A8, symBinAddr: 0x10000421C, symSize: 0x18 }
  - { offset: 0xF3BE, size: 0x8, addend: 0x0, symName: __RNvNtNtNtCsfvfooZQ3Axs_4core9core_arch10arm_shared4neon9vdup_n_u8CsbGvsTGsJZQm_18build_script_build, symObjAddr: 0x27C8, symBinAddr: 0x100006204, symSize: 0x34 }
  - { offset: 0xF441, size: 0x8, addend: 0x0, symName: __RNvNtNtNtCsfvfooZQ3Axs_4core9core_arch7aarch644neon7vld1_u8CsbGvsTGsJZQm_18build_script_build, symObjAddr: 0x27FC, symBinAddr: 0x100006238, symSize: 0x2C }
  - { offset: 0xF46F, size: 0x8, addend: 0x0, symName: __RNvNtNtNtCsfvfooZQ3Axs_4core9core_arch7aarch644neon7vst1_u8CsbGvsTGsJZQm_18build_script_build, symObjAddr: 0x2828, symBinAddr: 0x100006264, symSize: 0x38 }
  - { offset: 0xF8B5, size: 0x8, addend: 0x0, symName: __RINvNtNtNtCsfvfooZQ3Axs_4core5slice4sort6stable14driftsort_mainNtNvCsgq90m4oCT4f_13phf_generator17try_generate_hash6BucketNCINvMNtCse1nGBsou5OW_5alloc5sliceSBZ_7sort_byNCIB11_ReEs0_0E0INtNtB24_3vec3VecBZ_EECsbGvsTGsJZQm_18build_script_build, symObjAddr: 0x2FC, symBinAddr: 0x100003F70, symSize: 0x2AC }
  - { offset: 0xFAD0, size: 0x8, addend: 0x0, symName: __RINvNtNtNtNtCsfvfooZQ3Axs_4core5slice4sort6stable5drift10create_runNtNvCsgq90m4oCT4f_13phf_generator17try_generate_hash6BucketNCINvMNtCse1nGBsou5OW_5alloc5sliceSB13_7sort_byNCIB15_ReEs0_0E0ECsbGvsTGsJZQm_18build_script_build, symObjAddr: 0x16B0, symBinAddr: 0x100005324, symSize: 0x3A8 }
  - { offset: 0xFFDB, size: 0x8, addend: 0x0, symName: __RINvNtNtNtNtCsfvfooZQ3Axs_4core5slice4sort6stable5drift16stable_quicksortNtNvCsgq90m4oCT4f_13phf_generator17try_generate_hash6BucketNCINvMNtCse1nGBsou5OW_5alloc5sliceSB19_7sort_byNCIB1b_ReEs0_0E0ECsbGvsTGsJZQm_18build_script_build, symObjAddr: 0x1A58, symBinAddr: 0x1000056CC, symSize: 0xB4 }
  - { offset: 0x101F0, size: 0x8, addend: 0x0, symName: __RINvNtNtNtNtCsfvfooZQ3Axs_4core5slice4sort6stable5drift4sortNtNvCsgq90m4oCT4f_13phf_generator17try_generate_hash6BucketNCINvMNtCse1nGBsou5OW_5alloc5sliceSBW_7sort_byNCIBY_ReEs0_0E0ECsbGvsTGsJZQm_18build_script_build, symObjAddr: 0x1B0C, symBinAddr: 0x100005780, symSize: 0x520 }
  - { offset: 0x108FB, size: 0x8, addend: 0x0, symName: __RINvNtNtNtNtCsfvfooZQ3Axs_4core5slice4sort6shared9smallsort11insert_tailNtNvCsgq90m4oCT4f_13phf_generator17try_generate_hash6BucketNCINvMNtCse1nGBsou5OW_5alloc5sliceSB18_7sort_byNCIB1a_ReEs0_0E0ECsbGvsTGsJZQm_18build_script_build, symObjAddr: 0x5C0, symBinAddr: 0x100004234, symSize: 0x1C8 }
  - { offset: 0x10A9A, size: 0x8, addend: 0x0, symName: __RINvNtNtNtNtCsfvfooZQ3Axs_4core5slice4sort6shared9smallsort12sort4_stableNtNvCsgq90m4oCT4f_13phf_generator17try_generate_hash6BucketNCINvMNtCse1nGBsou5OW_5alloc5sliceSB19_7sort_byNCIB1b_ReEs0_0E0ECsbGvsTGsJZQm_18build_script_build, symObjAddr: 0x788, symBinAddr: 0x1000043FC, symSize: 0x488 }
  - { offset: 0x1106A, size: 0x8, addend: 0x0, symName: __RINvNtNtNtNtCsfvfooZQ3Axs_4core5slice4sort6shared9smallsort19bidirectional_mergeNtNvCsgq90m4oCT4f_13phf_generator17try_generate_hash6BucketNCINvMNtCse1nGBsou5OW_5alloc5sliceSB1g_7sort_byNCIB1i_ReEs0_0E0ECsbGvsTGsJZQm_18build_script_build, symObjAddr: 0xC10, symBinAddr: 0x100004884, symSize: 0x55C }
  - { offset: 0x11727, size: 0x8, addend: 0x0, symName: __RINvNtNtNtNtCsfvfooZQ3Axs_4core5slice4sort6shared9smallsort25insertion_sort_shift_leftNtNvCsgq90m4oCT4f_13phf_generator17try_generate_hash6BucketNCINvMNtCse1nGBsou5OW_5alloc5sliceSB1m_7sort_byNCIB1o_ReEs0_0E0ECsbGvsTGsJZQm_18build_script_build, symObjAddr: 0x116C, symBinAddr: 0x100004DE0, symSize: 0xC4 }
  - { offset: 0x11861, size: 0x8, addend: 0x0, symName: __RINvNtNtNtNtCsfvfooZQ3Axs_4core5slice4sort6shared9smallsort31small_sort_general_with_scratchNtNvCsgq90m4oCT4f_13phf_generator17try_generate_hash6BucketNCINvMNtCse1nGBsou5OW_5alloc5sliceSB1s_7sort_byNCIB1u_ReEs0_0E0ECsbGvsTGsJZQm_18build_script_build, symObjAddr: 0x1230, symBinAddr: 0x100004EA4, symSize: 0x480 }
  - { offset: 0x11C39, size: 0x8, addend: 0x0, symName: __RNvXs5_NtNtNtNtCsfvfooZQ3Axs_4core5slice4sort6shared9smallsortINtB5_10CopyOnDropNtNvCsgq90m4oCT4f_13phf_generator17try_generate_hash6BucketENtNtNtBd_3ops4drop4Drop4dropCsbGvsTGsJZQm_18build_script_build, symObjAddr: 0x314C, symBinAddr: 0x100006888, symSize: 0x80 }
  - { offset: 0x11EAA, size: 0x8, addend: 0x0, symName: __RNvNvXs0_NtNtCsfvfooZQ3Axs_4core5slice5indexjINtB7_10SliceIndexSpE13get_unchecked18precondition_checkCsbGvsTGsJZQm_18build_script_build, symObjAddr: 0x2E14, symBinAddr: 0x100006550, symSize: 0x40 }
  - { offset: 0x11EE6, size: 0x8, addend: 0x0, symName: __RNvNvXs0_NtNtCsfvfooZQ3Axs_4core5slice5indexjINtB7_10SliceIndexSpE17get_unchecked_mut18precondition_checkCsbGvsTGsJZQm_18build_script_build, symObjAddr: 0x2E54, symBinAddr: 0x100006590, symSize: 0x40 }
  - { offset: 0x11F1D, size: 0x8, addend: 0x0, symName: __RNvXs0_NtNtCsfvfooZQ3Axs_4core5slice5indexjINtB5_10SliceIndexSNtCsbvn0pgfta96_10phf_shared6HashesE5indexCsbGvsTGsJZQm_18build_script_build, symObjAddr: 0x2F54, symBinAddr: 0x100006690, symSize: 0x64 }
  - { offset: 0x11F63, size: 0x8, addend: 0x0, symName: __RNvXs0_NtNtCsfvfooZQ3Axs_4core5slice5indexjINtB5_10SliceIndexSNtNvCsgq90m4oCT4f_13phf_generator17try_generate_hash6BucketE9index_mutCsbGvsTGsJZQm_18build_script_build, symObjAddr: 0x2FB8, symBinAddr: 0x1000066F4, symSize: 0x5C }
  - { offset: 0x1218D, size: 0x8, addend: 0x0, symName: __RNvNvXs2_NtNtCsfvfooZQ3Axs_4core5slice5indexINtNtNtBb_3ops5range5RangejEINtB7_10SliceIndexSpE13get_unchecked18precondition_checkCsbGvsTGsJZQm_18build_script_build, symObjAddr: 0x2E94, symBinAddr: 0x1000065D0, symSize: 0x60 }
  - { offset: 0x121D7, size: 0x8, addend: 0x0, symName: __RNvNvXs2_NtNtCsfvfooZQ3Axs_4core5slice5indexINtNtNtBb_3ops5range5RangejEINtB7_10SliceIndexSpE17get_unchecked_mut18precondition_checkCsbGvsTGsJZQm_18build_script_build, symObjAddr: 0x2EF4, symBinAddr: 0x100006630, symSize: 0x60 }
  - { offset: 0x123C4, size: 0x8, addend: 0x0, symName: __RNCINvNvNtNtNtNtCsfvfooZQ3Axs_4core4iter6traits8iterator8Iterator8find_map5checkyNtCsgq90m4oCT4f_13phf_generator9HashStateNCINvB1j_13generate_hashReE0E0CsbGvsTGsJZQm_18build_script_build, symObjAddr: 0x2418, symBinAddr: 0x100005E54, symSize: 0x88 }
  - { offset: 0x12454, size: 0x8, addend: 0x0, symName: __RNCINvNvNtNtNtNtCsfvfooZQ3Axs_4core4iter6traits8iterator8Iterator8for_each4callNtCsbvn0pgfta96_10phf_shared6HashesNCINvMsi_NtCse1nGBsou5OW_5alloc3vecINtB1X_3VecB1f_E14extend_trustedINtNtNtBc_8adapters3map3MapINtNtNtBe_5slice4iter4IterReENCINvCsgq90m4oCT4f_13phf_generator17try_generate_hashB3K_E0EE0E0CsbGvsTGsJZQm_18build_script_build, symObjAddr: 0x24A0, symBinAddr: 0x100005EDC, symSize: 0x3C }
  - { offset: 0x124AD, size: 0x8, addend: 0x0, symName: __RNCINvNvNtNtNtNtCsfvfooZQ3Axs_4core4iter6traits8iterator8Iterator8for_each4callNtNtCse1nGBsou5OW_5alloc6string6StringNCINvXsl_NtNtNtB1j_11collections5btree3setINtB20_8BTreeSetB1f_EINtNtBa_7collect6ExtendB1f_E6extendINtNtNtBc_8adapters3map3MapIB3s_INtNtNtBe_5slice4iter4IterTReB4o_EENCNvCsbGvsTGsJZQm_18build_script_build4main0ENCINvMCsdy4PFqiFpmx_20string_cache_codegenNtB5l_8AtomType5atomsB3S_E0EE0E0B4A_, symObjAddr: 0x24DC, symBinAddr: 0x100005F18, symSize: 0x3C }
  - { offset: 0x12506, size: 0x8, addend: 0x0, symName: __RNCINvNvNtNtNtNtCsfvfooZQ3Axs_4core4iter6traits8iterator8Iterator8for_each4callNtNtCse1nGBsou5OW_5alloc6string6StringNCINvXsl_NtNtNtB1j_11collections5btree3setINtB20_8BTreeSetB1f_EINtNtBa_7collect6ExtendB1f_E6extendINtNtNtBc_8adapters3map3MapIB3s_INtNtNtBe_5slice4iter4IterTReB4o_EENCNvCsbGvsTGsJZQm_18build_script_build4mains_0ENCINvMCsdy4PFqiFpmx_20string_cache_codegenNtB5n_8AtomType5atomsB3S_E0EE0E0B4A_, symObjAddr: 0x2518, symBinAddr: 0x100005F54, symSize: 0x3C }
  - { offset: 0x1255F, size: 0x8, addend: 0x0, symName: __RNCINvNvNtNtNtNtCsfvfooZQ3Axs_4core4iter6traits8iterator8Iterator8for_each4callNtNvCsgq90m4oCT4f_13phf_generator17try_generate_hash6BucketNCINvMsi_NtCse1nGBsou5OW_5alloc3vecINtB2l_3VecB1f_E14extend_trustedINtNtNtBc_8adapters3map3MapINtNtNtBe_3ops5range5RangejENCIB1h_ReEs_0EE0E0CsbGvsTGsJZQm_18build_script_build, symObjAddr: 0x2554, symBinAddr: 0x100005F90, symSize: 0x3C }
  - { offset: 0x125B8, size: 0x8, addend: 0x0, symName: __RNCINvNvNtNtNtNtCsfvfooZQ3Axs_4core4iter6traits8iterator8Iterator8for_each4callTReTmmEENCINvXs1i_NtCsloNvcHxBCre_9hashbrown3mapINtB1x_7HashMapB1g_B1i_NtNtNtCscOYdFFY2T5N_3std4hash6random11RandomStateEINtNtBa_7collect6ExtendB1f_E6extendINtNtNtBc_8adapters3map3MapINtNtNtBe_5slice4iter4IterTB1g_mmEENCNvCsbGvsTGsJZQm_18build_script_build21named_entities_to_phf0EE0E0B4P_, symObjAddr: 0x2590, symBinAddr: 0x100005FCC, symSize: 0x3C }
  - { offset: 0x1288B, size: 0x8, addend: 0x0, symName: __RNvNvNtCsfvfooZQ3Axs_4core4hint21unreachable_unchecked18precondition_checkCsbGvsTGsJZQm_18build_script_build, symObjAddr: 0x2D60, symBinAddr: 0x10000649C, symSize: 0x1C }
  - { offset: 0x128E6, size: 0x8, addend: 0x0, symName: __RNvNvNtNtCsfvfooZQ3Axs_4core4char7convert18from_u32_unchecked18precondition_checkCsbGvsTGsJZQm_18build_script_build, symObjAddr: 0x2D7C, symBinAddr: 0x1000064B8, symSize: 0x98 }
  - { offset: 0x12AD4, size: 0x8, addend: 0x0, symName: __RINvMs3_NtCsfvfooZQ3Axs_4core3fmtNtB6_9Arguments6new_v1Kj3_Kj2_ECsbGvsTGsJZQm_18build_script_build, symObjAddr: 0x0, symBinAddr: 0x100003D44, symSize: 0x54 }
  - { offset: 0x131EC, size: 0x8, addend: 0x0, symName: __RINvMs_NtNtCsfvfooZQ3Axs_4core3fmt2rtNtB5_8Argument11new_displayINtCsavgYnAsOLFI_11phf_codegen10DisplayMapReEECsbGvsTGsJZQm_18build_script_build, symObjAddr: 0x54, symBinAddr: 0x100003D98, symSize: 0x2C }
  - { offset: 0x13286, size: 0x8, addend: 0x0, symName: __RINvMs_NtNtCsfvfooZQ3Axs_4core3fmt2rtNtB5_8Argument11new_displayINtCsavgYnAsOLFI_11phf_codegen8DelegateRReEECsbGvsTGsJZQm_18build_script_build, symObjAddr: 0x80, symBinAddr: 0x100003DC4, symSize: 0x2C }
  - { offset: 0x13320, size: 0x8, addend: 0x0, symName: __RINvMs_NtNtCsfvfooZQ3Axs_4core3fmt2rtNtB5_8Argument11new_displayRNtNtCse1nGBsou5OW_5alloc6string6StringECsbGvsTGsJZQm_18build_script_build, symObjAddr: 0xAC, symBinAddr: 0x100003DF0, symSize: 0x2C }
  - { offset: 0x133AD, size: 0x8, addend: 0x0, symName: __RINvMs_NtNtCsfvfooZQ3Axs_4core3fmt2rtNtB5_8Argument9new_debugTmmEECsbGvsTGsJZQm_18build_script_build, symObjAddr: 0xD8, symBinAddr: 0x100003E1C, symSize: 0x2C }
  - { offset: 0x1343A, size: 0x8, addend: 0x0, symName: __RINvMs_NtNtCsfvfooZQ3Axs_4core3fmt2rtNtB5_8Argument9new_debugyECsbGvsTGsJZQm_18build_script_build, symObjAddr: 0x104, symBinAddr: 0x100003E48, symSize: 0x2C }
  - { offset: 0x13976, size: 0x8, addend: 0x0, symName: __RNvMNtNtNtCsfvfooZQ3Axs_4core5slice4sort6stableINtB2_14AlignedStorageNtNvCsgq90m4oCT4f_13phf_generator17try_generate_hash6BucketKj1000_E19as_uninit_slice_mutCsbGvsTGsJZQm_18build_script_build, symObjAddr: 0x25CC, symBinAddr: 0x100006008, symSize: 0x7C }
  - { offset: 0x13A6E, size: 0x8, addend: 0x0, symName: __RNvMsa_NtCsfvfooZQ3Axs_4core3fmtNtB5_9Formatter9write_fmtCsbGvsTGsJZQm_18build_script_build, symObjAddr: 0x2648, symBinAddr: 0x100006084, symSize: 0x180 }
  - { offset: 0x13BF8, size: 0x8, addend: 0x0, symName: __RNvXs3_NtNtCscOYdFFY2T5N_3std3ffi6os_strNtB5_8OsStringINtNtNtCsfvfooZQ3Axs_4core3ops5index5IndexNtNtBV_5range9RangeFullE5indexCsbGvsTGsJZQm_18build_script_build, symObjAddr: 0x30D4, symBinAddr: 0x100006810, symSize: 0x78 }
  - { offset: 0x13D25, size: 0x8, addend: 0x0, symName: __RNvXsW_NtNtCscOYdFFY2T5N_3std3ffi6os_streINtNtCsfvfooZQ3Axs_4core7convert5AsRefNtB5_5OsStrE6as_refCsbGvsTGsJZQm_18build_script_build, symObjAddr: 0x31CC, symBinAddr: 0x100006908, symSize: 0x18 }
  - { offset: 0x140C5, size: 0x8, addend: 0x0, symName: __RINvMs12_NtCscOYdFFY2T5N_3std4pathNtB7_4Path3newNtNtCse1nGBsou5OW_5alloc6string6StringECsbGvsTGsJZQm_18build_script_build, symObjAddr: 0x0, symBinAddr: 0x100006920, symSize: 0x24 }
  - { offset: 0x149E2, size: 0x8, addend: 0x0, symName: __RINvNtCsfvfooZQ3Axs_4core3ptr13drop_in_placeINtCsavgYnAsOLFI_11phf_codegen10DisplayMapReEECsbGvsTGsJZQm_18build_script_build, symObjAddr: 0xA98, symBinAddr: 0x1000073B8, symSize: 0x24 }
  - { offset: 0x14A11, size: 0x8, addend: 0x0, symName: __RINvNtCsfvfooZQ3Axs_4core3ptr13drop_in_placeINtCsavgYnAsOLFI_11phf_codegen3MapReEECsbGvsTGsJZQm_18build_script_build, symObjAddr: 0xABC, symBinAddr: 0x1000073DC, symSize: 0x90 }
  - { offset: 0x14A40, size: 0x8, addend: 0x0, symName: __RINvNtCsfvfooZQ3Axs_4core3ptr13drop_in_placeINtNtB4_6result6ResultRShNtNtNtCscOYdFFY2T5N_3std2io5error5ErrorEECsbGvsTGsJZQm_18build_script_build, symObjAddr: 0xB4C, symBinAddr: 0x10000746C, symSize: 0x4C }
  - { offset: 0x14A6F, size: 0x8, addend: 0x0, symName: __RINvNtCsfvfooZQ3Axs_4core3ptr13drop_in_placeINtNtB4_6result6ResultjNtNtNtCscOYdFFY2T5N_3std2io5error5ErrorEECsbGvsTGsJZQm_18build_script_build, symObjAddr: 0xB98, symBinAddr: 0x1000074B8, symSize: 0x40 }
  - { offset: 0x14A9E, size: 0x8, addend: 0x0, symName: __RINvNtCsfvfooZQ3Axs_4core3ptr13drop_in_placeINtNtCscOYdFFY2T5N_3std2io5LinesINtNtNtBJ_8buffered9bufreader9BufReaderNtNtBL_2fs4FileEEECsbGvsTGsJZQm_18build_script_build, symObjAddr: 0xBD8, symBinAddr: 0x1000074F8, symSize: 0x24 }
  - { offset: 0x14ACD, size: 0x8, addend: 0x0, symName: __RINvNtCsfvfooZQ3Axs_4core3ptr13drop_in_placeINtNtCse1nGBsou5OW_5alloc3vec3VecNtCsbvn0pgfta96_10phf_shared6HashesEECsbGvsTGsJZQm_18build_script_build, symObjAddr: 0xBFC, symBinAddr: 0x10000751C, symSize: 0x5C }
  - { offset: 0x14AFC, size: 0x8, addend: 0x0, symName: __RINvNtCsfvfooZQ3Axs_4core3ptr13drop_in_placeINtNtCse1nGBsou5OW_5alloc3vec3VecNtNtBL_6string6StringEECsbGvsTGsJZQm_18build_script_build, symObjAddr: 0xC58, symBinAddr: 0x100007578, symSize: 0x5C }
  - { offset: 0x14B2B, size: 0x8, addend: 0x0, symName: __RINvNtCsfvfooZQ3Axs_4core3ptr13drop_in_placeINtNtCse1nGBsou5OW_5alloc3vec3VecNtNvCsgq90m4oCT4f_13phf_generator17try_generate_hash6BucketEECsbGvsTGsJZQm_18build_script_build, symObjAddr: 0xCB4, symBinAddr: 0x1000075D4, symSize: 0x5C }
  - { offset: 0x14B5A, size: 0x8, addend: 0x0, symName: __RINvNtCsfvfooZQ3Axs_4core3ptr13drop_in_placeINtNtCse1nGBsou5OW_5alloc5boxed3BoxSINtNtNtB4_3mem12maybe_uninit11MaybeUninithEEECsbGvsTGsJZQm_18build_script_build, symObjAddr: 0xD10, symBinAddr: 0x100007630, symSize: 0x2C }
  - { offset: 0x14B89, size: 0x8, addend: 0x0, symName: __RINvNtCsfvfooZQ3Axs_4core3ptr13drop_in_placeINtNtCse1nGBsou5OW_5alloc7raw_vec6RawVecNtCsbvn0pgfta96_10phf_shared6HashesEECsbGvsTGsJZQm_18build_script_build, symObjAddr: 0xD3C, symBinAddr: 0x10000765C, symSize: 0x24 }
  - { offset: 0x14BB8, size: 0x8, addend: 0x0, symName: __RINvNtCsfvfooZQ3Axs_4core3ptr13drop_in_placeINtNtCse1nGBsou5OW_5alloc7raw_vec6RawVecNtNtBL_6string6StringEECsbGvsTGsJZQm_18build_script_build, symObjAddr: 0xD60, symBinAddr: 0x100007680, symSize: 0x24 }
  - { offset: 0x14BE7, size: 0x8, addend: 0x0, symName: __RINvNtCsfvfooZQ3Axs_4core3ptr13drop_in_placeINtNtCse1nGBsou5OW_5alloc7raw_vec6RawVecNtNvCsgq90m4oCT4f_13phf_generator17try_generate_hash6BucketEECsbGvsTGsJZQm_18build_script_build, symObjAddr: 0xD84, symBinAddr: 0x1000076A4, symSize: 0x24 }
  - { offset: 0x14C16, size: 0x8, addend: 0x0, symName: __RINvNtCsfvfooZQ3Axs_4core3ptr13drop_in_placeINtNtCsloNvcHxBCre_9hashbrown10scopeguard10ScopeGuardNtNtBL_3raw13RawTableInnerNCINvMsa_B1z_B1x_14prepare_resizeNtNtCse1nGBsou5OW_5alloc5alloc6GlobalE0EECsbGvsTGsJZQm_18build_script_build, symObjAddr: 0xDA8, symBinAddr: 0x1000076C8, symSize: 0x24 }
  - { offset: 0x14C45, size: 0x8, addend: 0x0, symName: __RINvNtCsfvfooZQ3Axs_4core3ptr13drop_in_placeINtNtCsloNvcHxBCre_9hashbrown10scopeguard10ScopeGuardQNtNtBL_3raw13RawTableInnerNCNvMsa_B1A_B1y_15rehash_in_place0EECsbGvsTGsJZQm_18build_script_build, symObjAddr: 0xDCC, symBinAddr: 0x1000076EC, symSize: 0x24 }
  - { offset: 0x14C74, size: 0x8, addend: 0x0, symName: __RINvNtCsfvfooZQ3Axs_4core3ptr13drop_in_placeINtNtCsloNvcHxBCre_9hashbrown3map7HashMapRReuNtNtNtCscOYdFFY2T5N_3std4hash6random11RandomStateEECsbGvsTGsJZQm_18build_script_build, symObjAddr: 0xDF0, symBinAddr: 0x100007710, symSize: 0x24 }
  - { offset: 0x14CA3, size: 0x8, addend: 0x0, symName: __RINvNtCsfvfooZQ3Axs_4core3ptr13drop_in_placeINtNtCsloNvcHxBCre_9hashbrown3map7HashMapReTmmENtNtNtCscOYdFFY2T5N_3std4hash6random11RandomStateEECsbGvsTGsJZQm_18build_script_build, symObjAddr: 0xE14, symBinAddr: 0x100007734, symSize: 0x24 }
  - { offset: 0x14CD2, size: 0x8, addend: 0x0, symName: __RINvNtCsfvfooZQ3Axs_4core3ptr13drop_in_placeINtNtCsloNvcHxBCre_9hashbrown3map8IntoIterReTmmEEECsbGvsTGsJZQm_18build_script_build, symObjAddr: 0xE38, symBinAddr: 0x100007758, symSize: 0x24 }
  - { offset: 0x14D01, size: 0x8, addend: 0x0, symName: __RINvNtCsfvfooZQ3Axs_4core3ptr13drop_in_placeINtNtCsloNvcHxBCre_9hashbrown3raw11RawIntoIterTReTmmEEEECsbGvsTGsJZQm_18build_script_build, symObjAddr: 0xE5C, symBinAddr: 0x10000777C, symSize: 0x24 }
  - { offset: 0x14D30, size: 0x8, addend: 0x0, symName: __RINvNtCsfvfooZQ3Axs_4core3ptr13drop_in_placeINtNtCsloNvcHxBCre_9hashbrown3raw8RawTableTRReuEEECsbGvsTGsJZQm_18build_script_build, symObjAddr: 0xE80, symBinAddr: 0x1000077A0, symSize: 0x24 }
  - { offset: 0x14D5F, size: 0x8, addend: 0x0, symName: __RINvNtCsfvfooZQ3Axs_4core3ptr13drop_in_placeINtNtCsloNvcHxBCre_9hashbrown3raw8RawTableTReTmmEEEECsbGvsTGsJZQm_18build_script_build, symObjAddr: 0xEA4, symBinAddr: 0x1000077C4, symSize: 0x24 }
  - { offset: 0x14D8E, size: 0x8, addend: 0x0, symName: __RINvNtCsfvfooZQ3Axs_4core3ptr13drop_in_placeINtNtCsloNvcHxBCre_9hashbrown3set7HashSetRReNtNtNtCscOYdFFY2T5N_3std4hash6random11RandomStateEECsbGvsTGsJZQm_18build_script_build, symObjAddr: 0xEC8, symBinAddr: 0x1000077E8, symSize: 0x24 }
  - { offset: 0x14DBD, size: 0x8, addend: 0x0, symName: __RINvNtCsfvfooZQ3Axs_4core3ptr13drop_in_placeINtNtNtB4_3ops12control_flow11ControlFlowNtCsgq90m4oCT4f_13phf_generator9HashStateEECsbGvsTGsJZQm_18build_script_build, symObjAddr: 0xEEC, symBinAddr: 0x10000780C, symSize: 0x48 }
  - { offset: 0x14DEC, size: 0x8, addend: 0x0, symName: __RINvNtCsfvfooZQ3Axs_4core3ptr13drop_in_placeINtNtNtCse1nGBsou5OW_5alloc3vec9into_iter8IntoIterReEECsbGvsTGsJZQm_18build_script_build, symObjAddr: 0xF34, symBinAddr: 0x100007854, symSize: 0x24 }
  - { offset: 0x14E1B, size: 0x8, addend: 0x0, symName: __RINvNtCsfvfooZQ3Axs_4core3ptr13drop_in_placeINtNtNtNtB4_4iter8adapters3map3MapINtNtNtCse1nGBsou5OW_5alloc3vec9into_iter8IntoIterINtNtB4_6option6OptionjEENCINvCsgq90m4oCT4f_13phf_generator17try_generate_hashReEs1_0EECsbGvsTGsJZQm_18build_script_build, symObjAddr: 0xF58, symBinAddr: 0x100007878, symSize: 0x24 }
  - { offset: 0x14E4A, size: 0x8, addend: 0x0, symName: __RINvNtCsfvfooZQ3Axs_4core3ptr13drop_in_placeINtNtNtNtCscOYdFFY2T5N_3std11collections4hash3map7HashMapReTmmEEECsbGvsTGsJZQm_18build_script_build, symObjAddr: 0xF7C, symBinAddr: 0x10000789C, symSize: 0x24 }
  - { offset: 0x14E79, size: 0x8, addend: 0x0, symName: __RINvNtCsfvfooZQ3Axs_4core3ptr13drop_in_placeINtNtNtNtCscOYdFFY2T5N_3std11collections4hash3map8IntoIterReTmmEEECsbGvsTGsJZQm_18build_script_build, symObjAddr: 0xFA0, symBinAddr: 0x1000078C0, symSize: 0x24 }
  - { offset: 0x14EA8, size: 0x8, addend: 0x0, symName: __RINvNtCsfvfooZQ3Axs_4core3ptr13drop_in_placeINtNtNtNtCscOYdFFY2T5N_3std11collections4hash3set7HashSetRReEECsbGvsTGsJZQm_18build_script_build, symObjAddr: 0xFC4, symBinAddr: 0x1000078E4, symSize: 0x24 }
  - { offset: 0x14ED7, size: 0x8, addend: 0x0, symName: __RINvNtCsfvfooZQ3Axs_4core3ptr13drop_in_placeINtNtNtNtCscOYdFFY2T5N_3std2io8buffered9bufreader9BufReaderNtNtBP_2fs4FileEECsbGvsTGsJZQm_18build_script_build, symObjAddr: 0xFE8, symBinAddr: 0x100007908, symSize: 0x60 }
  - { offset: 0x14F06, size: 0x8, addend: 0x0, symName: __RINvNtCsfvfooZQ3Axs_4core3ptr13drop_in_placeINtNtNtNtCse1nGBsou5OW_5alloc11collections5btree3map8BTreeMapNtNtBP_6string6StringNtNtBL_7set_val9SetValZSTEECsbGvsTGsJZQm_18build_script_build, symObjAddr: 0x1048, symBinAddr: 0x100007968, symSize: 0x24 }
  - { offset: 0x14F35, size: 0x8, addend: 0x0, symName: __RINvNtCsfvfooZQ3Axs_4core3ptr13drop_in_placeINtNtNtNtCse1nGBsou5OW_5alloc11collections5btree3map8IntoIterNtNtBP_6string6StringNtNtBL_7set_val9SetValZSTEECsbGvsTGsJZQm_18build_script_build, symObjAddr: 0x106C, symBinAddr: 0x10000798C, symSize: 0x24 }
  - { offset: 0x14F64, size: 0x8, addend: 0x0, symName: __RINvNtCsfvfooZQ3Axs_4core3ptr13drop_in_placeINtNtNtNtCse1nGBsou5OW_5alloc11collections5btree3set8BTreeSetNtNtBP_6string6StringEECsbGvsTGsJZQm_18build_script_build, symObjAddr: 0x1090, symBinAddr: 0x1000079B0, symSize: 0x24 }
  - { offset: 0x14F93, size: 0x8, addend: 0x0, symName: __RINvNtCsfvfooZQ3Axs_4core3ptr13drop_in_placeINtNtNtNtNtB4_5slice4sort6shared9smallsort10CopyOnDropNtNvCsgq90m4oCT4f_13phf_generator17try_generate_hash6BucketEECsbGvsTGsJZQm_18build_script_build, symObjAddr: 0x10B4, symBinAddr: 0x1000079D4, symSize: 0x24 }
  - { offset: 0x14FC2, size: 0x8, addend: 0x0, symName: __RINvNtCsfvfooZQ3Axs_4core3ptr13drop_in_placeINtNtNtNtNtB4_5slice4sort6stable5merge10MergeStateNtNvCsgq90m4oCT4f_13phf_generator17try_generate_hash6BucketEECsbGvsTGsJZQm_18build_script_build, symObjAddr: 0x10D8, symBinAddr: 0x1000079F8, symSize: 0x24 }
  - { offset: 0x14FF1, size: 0x8, addend: 0x0, symName: __RINvNtCsfvfooZQ3Axs_4core3ptr13drop_in_placeINtNvMsT_NtNtNtCse1nGBsou5OW_5alloc11collections5btree4nodeINtBP_6HandleINtBP_7NodeRefNtNtBP_6marker5DyingpppENtB26_2KVE12drop_key_val7DropperNtNtBR_7set_val9SetValZSTEECsbGvsTGsJZQm_18build_script_build, symObjAddr: 0x10FC, symBinAddr: 0x100007A1C, symSize: 0x24 }
  - { offset: 0x15020, size: 0x8, addend: 0x0, symName: __RINvNtCsfvfooZQ3Axs_4core3ptr13drop_in_placeINtNvNtNtCscOYdFFY2T5N_3std2io5Write9write_fmt7AdapterINtNtNtBN_8buffered9bufwriter9BufWriterNtNtBP_2fs4FileEEECsbGvsTGsJZQm_18build_script_build, symObjAddr: 0x1120, symBinAddr: 0x100007A40, symSize: 0x24 }
  - { offset: 0x1504F, size: 0x8, addend: 0x0, symName: __RINvNtCsfvfooZQ3Axs_4core3ptr13drop_in_placeINtNvNtNtCscOYdFFY2T5N_3std2io5Write9write_fmt7AdapterNtNtBP_2fs4FileEECsbGvsTGsJZQm_18build_script_build, symObjAddr: 0x1144, symBinAddr: 0x100007A64, symSize: 0x24 }
  - { offset: 0x1507E, size: 0x8, addend: 0x0, symName: __RINvNtCsfvfooZQ3Axs_4core3ptr13drop_in_placeINtNvXsd_NtNtCse1nGBsou5OW_5alloc3vec9into_iterINtBP_8IntoIterppENtNtNtB4_3ops4drop4Drop4drop9DropGuardReNtNtBT_5alloc6GlobalEECsbGvsTGsJZQm_18build_script_build, symObjAddr: 0x1168, symBinAddr: 0x100007A88, symSize: 0x24 }
  - { offset: 0x150AD, size: 0x8, addend: 0x0, symName: __RINvNtCsfvfooZQ3Axs_4core3ptr13drop_in_placeINtNvXsw_NtNtNtCse1nGBsou5OW_5alloc11collections5btree3mapINtBP_8IntoIterpppENtNtNtB4_3ops4drop4Drop4drop9DropGuardNtNtBV_6string6StringNtNtBR_7set_val9SetValZSTNtNtBV_5alloc6GlobalEECsbGvsTGsJZQm_18build_script_build, symObjAddr: 0x118C, symBinAddr: 0x100007AAC, symSize: 0x24 }
  - { offset: 0x150DC, size: 0x8, addend: 0x0, symName: __RINvNtCsfvfooZQ3Axs_4core3ptr13drop_in_placeNCINvMsi_NtCse1nGBsou5OW_5alloc3vecINtBP_3VecNtCsbvn0pgfta96_10phf_shared6HashesE14extend_trustedINtNtNtNtB4_4iter8adapters3map3MapINtNtNtB4_5slice4iter4IterReENCINvCsgq90m4oCT4f_13phf_generator17try_generate_hashB3d_E0EE0ECsbGvsTGsJZQm_18build_script_build, symObjAddr: 0x1200, symBinAddr: 0x100007AD0, symSize: 0x24 }
  - { offset: 0x1510B, size: 0x8, addend: 0x0, symName: __RINvNtCsfvfooZQ3Axs_4core3ptr13drop_in_placeNCINvMsi_NtCse1nGBsou5OW_5alloc3vecINtBP_3VecNtNvCsgq90m4oCT4f_13phf_generator17try_generate_hash6BucketE14extend_trustedINtNtNtNtB4_4iter8adapters3map3MapINtNtNtB4_3ops5range5RangejENCIB1r_ReEs_0EE0ECsbGvsTGsJZQm_18build_script_build, symObjAddr: 0x1224, symBinAddr: 0x100007AF4, symSize: 0x24 }
  - { offset: 0x1513A, size: 0x8, addend: 0x0, symName: __RINvNtCsfvfooZQ3Axs_4core3ptr13drop_in_placeNCINvNtNtNtB4_4iter8adapters3map8map_foldRReNtCsbvn0pgfta96_10phf_shared6HashesuNCINvCsgq90m4oCT4f_13phf_generator17try_generate_hashB1m_E0NCINvNvNtNtNtBP_6traits8iterator8Iterator8for_each4callB1o_NCINvMsi_NtCse1nGBsou5OW_5alloc3vecINtB41_3VecB1o_E14extend_trustedINtBL_3MapINtNtNtB4_5slice4iter4IterB1m_EB1Y_EE0E0E0ECsbGvsTGsJZQm_18build_script_build, symObjAddr: 0x1258, symBinAddr: 0x100007B18, symSize: 0x24 }
  - { offset: 0x15169, size: 0x8, addend: 0x0, symName: __RINvNtCsfvfooZQ3Axs_4core3ptr13drop_in_placeNCINvNtNtNtB4_4iter8adapters3map8map_foldjNtNvCsgq90m4oCT4f_13phf_generator17try_generate_hash6BucketuNCIB1o_ReEs_0NCINvNvNtNtNtBP_6traits8iterator8Iterator8for_each4callB1m_NCINvMsi_NtCse1nGBsou5OW_5alloc3vecINtB3D_3VecB1m_E14extend_trustedINtBL_3MapINtNtNtB4_3ops5range5RangejEB2k_EE0E0E0ECsbGvsTGsJZQm_18build_script_build, symObjAddr: 0x127C, symBinAddr: 0x100007B3C, symSize: 0x24 }
  - { offset: 0x15198, size: 0x8, addend: 0x0, symName: __RINvNtCsfvfooZQ3Axs_4core3ptr13drop_in_placeNCINvNvNtNtNtNtB4_4iter6traits8iterator8Iterator8for_each4callNtCsbvn0pgfta96_10phf_shared6HashesNCINvMsi_NtCse1nGBsou5OW_5alloc3vecINtB2o_3VecB1G_E14extend_trustedINtNtNtBT_8adapters3map3MapINtNtNtB4_5slice4iter4IterReENCINvCsgq90m4oCT4f_13phf_generator17try_generate_hashB4b_E0EE0E0ECsbGvsTGsJZQm_18build_script_build, symObjAddr: 0x12A0, symBinAddr: 0x100007B60, symSize: 0x24 }
  - { offset: 0x151C7, size: 0x8, addend: 0x0, symName: __RINvNtCsfvfooZQ3Axs_4core3ptr13drop_in_placeNCINvNvNtNtNtNtB4_4iter6traits8iterator8Iterator8for_each4callNtNvCsgq90m4oCT4f_13phf_generator17try_generate_hash6BucketNCINvMsi_NtCse1nGBsou5OW_5alloc3vecINtB2M_3VecB1G_E14extend_trustedINtNtNtBT_8adapters3map3MapINtNtNtB4_3ops5range5RangejENCIB1I_ReEs_0EE0E0ECsbGvsTGsJZQm_18build_script_build, symObjAddr: 0x12C4, symBinAddr: 0x100007B84, symSize: 0x24 }
  - { offset: 0x151F6, size: 0x8, addend: 0x0, symName: __RINvNtCsfvfooZQ3Axs_4core3ptr13drop_in_placeNtCsdy4PFqiFpmx_20string_cache_codegen8AtomTypeECsbGvsTGsJZQm_18build_script_build, symObjAddr: 0x12E8, symBinAddr: 0x100007BA8, symSize: 0x120 }
  - { offset: 0x15225, size: 0x8, addend: 0x0, symName: __RINvNtCsfvfooZQ3Axs_4core3ptr13drop_in_placeNtCsgq90m4oCT4f_13phf_generator9HashStateECsbGvsTGsJZQm_18build_script_build, symObjAddr: 0x1408, symBinAddr: 0x100007CC8, symSize: 0x60 }
  - { offset: 0x15254, size: 0x8, addend: 0x0, symName: __RINvNtCsfvfooZQ3Axs_4core3ptr13drop_in_placeNtNtCscOYdFFY2T5N_3std2io5GuardECsbGvsTGsJZQm_18build_script_build, symObjAddr: 0x1468, symBinAddr: 0x100007D28, symSize: 0x24 }
  - { offset: 0x15283, size: 0x8, addend: 0x0, symName: __RINvNtCsfvfooZQ3Axs_4core3ptr13drop_in_placeNtNtCscOYdFFY2T5N_3std3env8VarErrorECsbGvsTGsJZQm_18build_script_build, symObjAddr: 0x148C, symBinAddr: 0x100007D4C, symSize: 0x48 }
  - { offset: 0x152B2, size: 0x8, addend: 0x0, symName: __RINvNtCsfvfooZQ3Axs_4core3ptr13drop_in_placeNtNtCscOYdFFY2T5N_3std4path7PathBufECsbGvsTGsJZQm_18build_script_build, symObjAddr: 0x14D4, symBinAddr: 0x100007D94, symSize: 0x24 }
  - { offset: 0x152E1, size: 0x8, addend: 0x0, symName: __RINvNtCsfvfooZQ3Axs_4core3ptr13drop_in_placeNtNtNtCscOYdFFY2T5N_3std3ffi6os_str8OsStringECsbGvsTGsJZQm_18build_script_build, symObjAddr: 0x14F8, symBinAddr: 0x100007DB8, symSize: 0x24 }
  - { offset: 0x15310, size: 0x8, addend: 0x0, symName: __RINvNtCsfvfooZQ3Axs_4core3ptr13drop_in_placeNtNtNtNtCscOYdFFY2T5N_3std3sys6os_str5bytes3BufECsbGvsTGsJZQm_18build_script_build, symObjAddr: 0x151C, symBinAddr: 0x100007DDC, symSize: 0x24 }
  - { offset: 0x1533F, size: 0x8, addend: 0x0, symName: __RINvNtCsfvfooZQ3Axs_4core3ptr13drop_in_placeNtNtNtNtNtCscOYdFFY2T5N_3std2io8buffered9bufreader6buffer6BufferECsbGvsTGsJZQm_18build_script_build, symObjAddr: 0x1540, symBinAddr: 0x100007E00, symSize: 0x24 }
  - { offset: 0x1536E, size: 0x8, addend: 0x0, symName: __RINvNtCsfvfooZQ3Axs_4core3ptr13drop_in_placeNtNvCsgq90m4oCT4f_13phf_generator17try_generate_hash6BucketECsbGvsTGsJZQm_18build_script_build, symObjAddr: 0x1564, symBinAddr: 0x100007E24, symSize: 0x24 }
  - { offset: 0x1539D, size: 0x8, addend: 0x0, symName: __RINvNtCsfvfooZQ3Axs_4core3ptr13drop_in_placeSNtNtCse1nGBsou5OW_5alloc6string6StringECsbGvsTGsJZQm_18build_script_build, symObjAddr: 0x15A8, symBinAddr: 0x100007E48, symSize: 0xC4 }
  - { offset: 0x153CC, size: 0x8, addend: 0x0, symName: __RINvNtCsfvfooZQ3Axs_4core3ptr13drop_in_placeSNtNvCsgq90m4oCT4f_13phf_generator17try_generate_hash6BucketECsbGvsTGsJZQm_18build_script_build, symObjAddr: 0x166C, symBinAddr: 0x100007F0C, symSize: 0xB4 }
  - { offset: 0x17142, size: 0x8, addend: 0x0, symName: __RNvNvNtNtCsfvfooZQ3Axs_4core5slice3raw14from_raw_parts18precondition_checkCsbGvsTGsJZQm_18build_script_build, symObjAddr: 0x2374, symBinAddr: 0x100008C14, symSize: 0x168 }
  - { offset: 0x17288, size: 0x8, addend: 0x0, symName: __RNvNvNtNtCsfvfooZQ3Axs_4core5slice3raw18from_raw_parts_mut18precondition_checkCsbGvsTGsJZQm_18build_script_build, symObjAddr: 0x24DC, symBinAddr: 0x100008D7C, symSize: 0x168 }
  - { offset: 0x175A8, size: 0x8, addend: 0x0, symName: __RNSNvYNCINvMs6_NtCsloNvcHxBCre_9hashbrown3rawINtBd_8RawTableTRReuEE14reserve_rehashNCINvNtBf_3map11make_hasherBX_uNtNtNtCscOYdFFY2T5N_3std4hash6random11RandomStateE0E0INtNtNtCsfvfooZQ3Axs_4core3ops8function6FnOnceTQNtBd_13RawTableInnerjEE9call_once6vtableCsbGvsTGsJZQm_18build_script_build, symObjAddr: 0x190C, symBinAddr: 0x1000081AC, symSize: 0x38 }
  - { offset: 0x175EC, size: 0x8, addend: 0x0, symName: __RNSNvYNCINvMs6_NtCsloNvcHxBCre_9hashbrown3rawINtBd_8RawTableTRReuEE24find_or_find_insert_slotNCINvNtBf_3map14equivalent_keyBX_BX_uE0NCINvB1y_11make_hasherBX_uNtNtNtCscOYdFFY2T5N_3std4hash6random11RandomStateE0E0INtNtNtCsfvfooZQ3Axs_4core3ops8function6FnOnceTjEE9call_once6vtableCsbGvsTGsJZQm_18build_script_build, symObjAddr: 0x1944, symBinAddr: 0x1000081E4, symSize: 0x38 }
  - { offset: 0x17630, size: 0x8, addend: 0x0, symName: __RNSNvYNCINvMs6_NtCsloNvcHxBCre_9hashbrown3rawINtBd_8RawTableTReTmmEEE14reserve_rehashNCINvNtBf_3map11make_hasherBX_BZ_NtNtNtCscOYdFFY2T5N_3std4hash6random11RandomStateE0E0INtNtNtCsfvfooZQ3Axs_4core3ops8function6FnOnceTQNtBd_13RawTableInnerjEE9call_once6vtableCsbGvsTGsJZQm_18build_script_build, symObjAddr: 0x197C, symBinAddr: 0x10000821C, symSize: 0x38 }
  - { offset: 0x17674, size: 0x8, addend: 0x0, symName: __RNSNvYNCINvMs6_NtCsloNvcHxBCre_9hashbrown3rawINtBd_8RawTableTReTmmEEE24find_or_find_insert_slotNCINvNtBf_3map14equivalent_keyBX_BX_BZ_E0NCINvB1A_11make_hasherBX_BZ_NtNtNtCscOYdFFY2T5N_3std4hash6random11RandomStateE0E0INtNtNtCsfvfooZQ3Axs_4core3ops8function6FnOnceTjEE9call_once6vtableCsbGvsTGsJZQm_18build_script_build, symObjAddr: 0x19B4, symBinAddr: 0x100008254, symSize: 0x38 }
  - { offset: 0x176B8, size: 0x8, addend: 0x0, symName: __RNSNvYNCINvMs6_NtCsloNvcHxBCre_9hashbrown3rawINtBd_8RawTableTReTmmEEE4findNCNvMNtBf_11rustc_entryINtNtBf_3map7HashMapBX_BZ_NtNtNtCscOYdFFY2T5N_3std4hash6random11RandomStateE11rustc_entry0E0INtNtNtCsfvfooZQ3Axs_4core3ops8function6FnOnceTjEE9call_once6vtableCsbGvsTGsJZQm_18build_script_build, symObjAddr: 0x19EC, symBinAddr: 0x10000828C, symSize: 0x38 }
  - { offset: 0x176FC, size: 0x8, addend: 0x0, symName: __RNSNvYNCINvNtCscOYdFFY2T5N_3std2rt10lang_startuE0INtNtNtCsfvfooZQ3Axs_4core3ops8function6FnOnceuE9call_once6vtableCsbGvsTGsJZQm_18build_script_build, symObjAddr: 0x1A24, symBinAddr: 0x1000082C4, symSize: 0x28 }
  - { offset: 0x17740, size: 0x8, addend: 0x0, symName: __RNvYFEuINtNtNtCsfvfooZQ3Axs_4core3ops8function6FnOnceuE9call_onceCsbGvsTGsJZQm_18build_script_build, symObjAddr: 0x3378, symBinAddr: 0x100009C18, symSize: 0x20 }
  - { offset: 0x17780, size: 0x8, addend: 0x0, symName: __RNvYNCINvMs6_NtCsloNvcHxBCre_9hashbrown3rawINtBb_8RawTableTRReuEE14reserve_rehashNCINvNtBd_3map11make_hasherBV_uNtNtNtCscOYdFFY2T5N_3std4hash6random11RandomStateE0E0INtNtNtCsfvfooZQ3Axs_4core3ops8function6FnOnceTQNtBb_13RawTableInnerjEE9call_onceCsbGvsTGsJZQm_18build_script_build, symObjAddr: 0x3398, symBinAddr: 0x100009C38, symSize: 0x5C }
  - { offset: 0x177C4, size: 0x8, addend: 0x0, symName: __RNvYNCINvMs6_NtCsloNvcHxBCre_9hashbrown3rawINtBb_8RawTableTRReuEE24find_or_find_insert_slotNCINvNtBd_3map14equivalent_keyBV_BV_uE0NCINvB1w_11make_hasherBV_uNtNtNtCscOYdFFY2T5N_3std4hash6random11RandomStateE0E0INtNtNtCsfvfooZQ3Axs_4core3ops8function6FnOnceTjEE9call_onceCsbGvsTGsJZQm_18build_script_build, symObjAddr: 0x33F4, symBinAddr: 0x100009C94, symSize: 0x58 }
  - { offset: 0x17808, size: 0x8, addend: 0x0, symName: __RNvYNCINvMs6_NtCsloNvcHxBCre_9hashbrown3rawINtBb_8RawTableTReTmmEEE14reserve_rehashNCINvNtBd_3map11make_hasherBV_BX_NtNtNtCscOYdFFY2T5N_3std4hash6random11RandomStateE0E0INtNtNtCsfvfooZQ3Axs_4core3ops8function6FnOnceTQNtBb_13RawTableInnerjEE9call_onceCsbGvsTGsJZQm_18build_script_build, symObjAddr: 0x344C, symBinAddr: 0x100009CEC, symSize: 0x5C }
  - { offset: 0x1784C, size: 0x8, addend: 0x0, symName: __RNvYNCINvMs6_NtCsloNvcHxBCre_9hashbrown3rawINtBb_8RawTableTReTmmEEE24find_or_find_insert_slotNCINvNtBd_3map14equivalent_keyBV_BV_BX_E0NCINvB1y_11make_hasherBV_BX_NtNtNtCscOYdFFY2T5N_3std4hash6random11RandomStateE0E0INtNtNtCsfvfooZQ3Axs_4core3ops8function6FnOnceTjEE9call_onceCsbGvsTGsJZQm_18build_script_build, symObjAddr: 0x34A8, symBinAddr: 0x100009D48, symSize: 0x58 }
  - { offset: 0x17890, size: 0x8, addend: 0x0, symName: __RNvYNCINvMs6_NtCsloNvcHxBCre_9hashbrown3rawINtBb_8RawTableTReTmmEEE4findNCNvMNtBd_11rustc_entryINtNtBd_3map7HashMapBV_BX_NtNtNtCscOYdFFY2T5N_3std4hash6random11RandomStateE11rustc_entry0E0INtNtNtCsfvfooZQ3Axs_4core3ops8function6FnOnceTjEE9call_onceCsbGvsTGsJZQm_18build_script_build, symObjAddr: 0x3500, symBinAddr: 0x100009DA0, symSize: 0x58 }
  - { offset: 0x178D4, size: 0x8, addend: 0x0, symName: __RNvYNCINvNtCscOYdFFY2T5N_3std2rt10lang_startuE0INtNtNtCsfvfooZQ3Axs_4core3ops8function6FnOnceuE9call_onceCsbGvsTGsJZQm_18build_script_build, symObjAddr: 0x3558, symBinAddr: 0x100009DF8, symSize: 0x4C }
  - { offset: 0x17918, size: 0x8, addend: 0x0, symName: __RNvYNCNkNvNvMNtNtCscOYdFFY2T5N_3std4hash6randomNtBb_11RandomState3new4KEYS0s_0INtNtNtCsfvfooZQ3Axs_4core3ops8function6FnOnceTINtNtB1l_6option6OptionQIB20_INtNtB1l_4cell4CellTyyEEEEEE9call_onceCsbGvsTGsJZQm_18build_script_build, symObjAddr: 0x35A4, symBinAddr: 0x100009E44, symSize: 0x4C }
  - { offset: 0x1795C, size: 0x8, addend: 0x0, symName: __RNvYNvMNtCsfvfooZQ3Axs_4core6optionINtB5_6OptionINtNtB7_4cell4CellTyyEEE4takeINtNtNtB7_3ops8function6FnOnceTQBx_EE9call_onceCsbGvsTGsJZQm_18build_script_build, symObjAddr: 0x35F0, symBinAddr: 0x100009E90, symSize: 0x24 }
  - { offset: 0x179A0, size: 0x8, addend: 0x0, symName: __RNvYNvNvNvMNtNtCscOYdFFY2T5N_3std4hash6randomNtB9_11RandomState3new4KEYS6___initINtNtNtCsfvfooZQ3Axs_4core3ops8function6FnOnceuE9call_onceCsbGvsTGsJZQm_18build_script_build, symObjAddr: 0x3614, symBinAddr: 0x100009EB4, symSize: 0x1C }
  - { offset: 0x17BEB, size: 0x8, addend: 0x0, symName: __RNvXNtCsfvfooZQ3Axs_4core7convertRNtNtCscOYdFFY2T5N_3std4path7PathBufINtB2_5AsRefNtBy_4PathE6as_refCsbGvsTGsJZQm_18build_script_build, symObjAddr: 0x2644, symBinAddr: 0x100008EE4, symSize: 0x28 }
  - { offset: 0x17C60, size: 0x8, addend: 0x0, symName: __RNvXs_NtNtCsfvfooZQ3Axs_4core3str6traitseNtNtB8_3cmp9PartialEq2eqCsbGvsTGsJZQm_18build_script_build, symObjAddr: 0x2EC8, symBinAddr: 0x100009768, symSize: 0x64 }
  - { offset: 0x181B6, size: 0x8, addend: 0x0, symName: __RNvXs1h_NtCscOYdFFY2T5N_3std4patheINtNtCsfvfooZQ3Axs_4core7convert5AsRefNtB6_4PathE6as_refCsbGvsTGsJZQm_18build_script_build, symObjAddr: 0x297C, symBinAddr: 0x10000921C, symSize: 0x18 }
  - { offset: 0x18208, size: 0x8, addend: 0x0, symName: __RNvXsH_NtCscOYdFFY2T5N_3std4pathNtB5_7PathBufNtNtNtCsfvfooZQ3Axs_4core3ops5deref5Deref5derefCsbGvsTGsJZQm_18build_script_build, symObjAddr: 0x2B48, symBinAddr: 0x1000093E8, symSize: 0x34 }
  - { offset: 0x18296, size: 0x8, addend: 0x0, symName: __RNvXs1j_NtCscOYdFFY2T5N_3std4pathNtB6_7PathBufINtNtCsfvfooZQ3Axs_4core7convert5AsRefNtB6_4PathE6as_refCsbGvsTGsJZQm_18build_script_build, symObjAddr: 0x2994, symBinAddr: 0x100009234, symSize: 0x34 }
  - { offset: 0x18C70, size: 0x8, addend: 0x0, symName: __RINvXsd_NtCse1nGBsou5OW_5alloc3vecINtB6_3VecNtCsbvn0pgfta96_10phf_shared6HashesEINtNtNtNtCsfvfooZQ3Axs_4core4iter6traits7collect12FromIteratorBG_E9from_iterINtNtNtB1n_8adapters3map3MapINtNtNtB1p_5slice4iter4IterReENCINvCsgq90m4oCT4f_13phf_generator17try_generate_hashB3n_E0EECsbGvsTGsJZQm_18build_script_build, symObjAddr: 0x1720, symBinAddr: 0x100007FC0, symSize: 0x3C }
  - { offset: 0x18CB1, size: 0x8, addend: 0x0, symName: __RINvXsd_NtCse1nGBsou5OW_5alloc3vecINtB6_3VecNtNvCsgq90m4oCT4f_13phf_generator17try_generate_hash6BucketEINtNtNtNtCsfvfooZQ3Axs_4core4iter6traits7collect12FromIteratorBG_E9from_iterINtNtNtB1L_8adapters3map3MapINtNtNtB1N_3ops5range5RangejENCIBI_ReEs_0EECsbGvsTGsJZQm_18build_script_build, symObjAddr: 0x175C, symBinAddr: 0x100007FFC, symSize: 0x38 }
  - { offset: 0x18CF1, size: 0x8, addend: 0x0, symName: __RINvXsd_NtCse1nGBsou5OW_5alloc3vecINtB6_3VecReEINtNtNtNtCsfvfooZQ3Axs_4core4iter6traits7collect12FromIteratorBG_E9from_iterINtNtNtBQ_8adapters6cloned6ClonedINtNtNtNtCscOYdFFY2T5N_3std11collections4hash3map4KeysBG_TmmEEEECsbGvsTGsJZQm_18build_script_build, symObjAddr: 0x1794, symBinAddr: 0x100008034, symSize: 0x3C }
  - { offset: 0x18D32, size: 0x8, addend: 0x0, symName: __RINvXsd_NtCse1nGBsou5OW_5alloc3vecINtB6_3VecjEINtNtNtNtCsfvfooZQ3Axs_4core4iter6traits7collect12FromIteratorjE9from_iterINtNtNtBP_8adapters3map3MapINtNtB6_9into_iter8IntoIterINtNtBR_6option6OptionjEENCINvCsgq90m4oCT4f_13phf_generator17try_generate_hashReEs1_0EECsbGvsTGsJZQm_18build_script_build, symObjAddr: 0x17D0, symBinAddr: 0x100008070, symSize: 0x3C }
  - { offset: 0x18D7E, size: 0x8, addend: 0x0, symName: __RNCINvMsi_NtCse1nGBsou5OW_5alloc3vecINtB8_3VecNtCsbvn0pgfta96_10phf_shared6HashesE14extend_trustedINtNtNtNtCsfvfooZQ3Axs_4core4iter8adapters3map3MapINtNtNtB1H_5slice4iter4IterReENCINvCsgq90m4oCT4f_13phf_generator17try_generate_hashB2N_E0EE0CsbGvsTGsJZQm_18build_script_build, symObjAddr: 0x1870, symBinAddr: 0x100008110, symSize: 0x44 }
  - { offset: 0x18E2B, size: 0x8, addend: 0x0, symName: __RNCINvMsi_NtCse1nGBsou5OW_5alloc3vecINtB8_3VecNtNvCsgq90m4oCT4f_13phf_generator17try_generate_hash6BucketE14extend_trustedINtNtNtNtCsfvfooZQ3Axs_4core4iter8adapters3map3MapINtNtNtB25_3ops5range5RangejENCIBK_ReEs_0EE0CsbGvsTGsJZQm_18build_script_build, symObjAddr: 0x18B4, symBinAddr: 0x100008154, symSize: 0x3C }
  - { offset: 0x18F23, size: 0x8, addend: 0x0, symName: __RNSINvNtNtCse1nGBsou5OW_5alloc3vec16in_place_collect18from_iter_in_placeINtNtNtNtCsfvfooZQ3Axs_4core4iter8adapters3map3MapINtNtB6_9into_iter8IntoIterINtNtB1h_6option6OptionjEENCINvCsgq90m4oCT4f_13phf_generator17try_generate_hashReEs1_0EjE5reifyCsbGvsTGsJZQm_18build_script_build, symObjAddr: 0x18F0, symBinAddr: 0x100008190, symSize: 0x1C }
  - { offset: 0x18F63, size: 0x8, addend: 0x0, symName: __RNvXs_NtNtCse1nGBsou5OW_5alloc3vec16in_place_collectINtB6_3VecjEINtNtB6_14spec_from_iter12SpecFromIterjINtNtNtNtCsfvfooZQ3Axs_4core4iter8adapters3map3MapINtNtB6_9into_iter8IntoIterINtNtB1M_6option6OptionjEENCINvCsgq90m4oCT4f_13phf_generator17try_generate_hashReEs1_0EE9from_iterCsbGvsTGsJZQm_18build_script_build, symObjAddr: 0x2BCC, symBinAddr: 0x10000946C, symSize: 0x28 }
  - { offset: 0x190BE, size: 0x8, addend: 0x0, symName: __RNvXNtNtCse1nGBsou5OW_5alloc3vec11spec_extendINtB4_3VecReEINtB2_10SpecExtendBR_INtNtNtNtCsfvfooZQ3Axs_4core4iter8adapters6cloned6ClonedINtNtNtNtCscOYdFFY2T5N_3std11collections4hash3map4KeysBR_TmmEEEE11spec_extendCsbGvsTGsJZQm_18build_script_build, symObjAddr: 0x266C, symBinAddr: 0x100008F0C, symSize: 0x24 }
  - { offset: 0x19116, size: 0x8, addend: 0x0, symName: __RNvXs_NtNtCse1nGBsou5OW_5alloc3vec11spec_extendINtB6_3VecNtCsbvn0pgfta96_10phf_shared6HashesEINtB4_10SpecExtendBT_INtNtNtNtCsfvfooZQ3Axs_4core4iter8adapters3map3MapINtNtNtB1X_5slice4iter4IterReENCINvCsgq90m4oCT4f_13phf_generator17try_generate_hashB33_E0EE11spec_extendCsbGvsTGsJZQm_18build_script_build, symObjAddr: 0x2B7C, symBinAddr: 0x10000941C, symSize: 0x24 }
  - { offset: 0x19168, size: 0x8, addend: 0x0, symName: __RNvXs_NtNtCse1nGBsou5OW_5alloc3vec11spec_extendINtB6_3VecNtNvCsgq90m4oCT4f_13phf_generator17try_generate_hash6BucketEINtB4_10SpecExtendBT_INtNtNtNtCsfvfooZQ3Axs_4core4iter8adapters3map3MapINtNtNtB2l_3ops5range5RangejENCIBV_ReEs_0EE11spec_extendCsbGvsTGsJZQm_18build_script_build, symObjAddr: 0x2BA0, symBinAddr: 0x100009440, symSize: 0x2C }
  - { offset: 0x191C5, size: 0x8, addend: 0x0, symName: __RNvXNtNtCse1nGBsou5OW_5alloc3vec14spec_from_iterINtB4_3VecNtCsbvn0pgfta96_10phf_shared6HashesEINtB2_12SpecFromIterBU_INtNtNtNtCsfvfooZQ3Axs_4core4iter8adapters3map3MapINtNtNtB20_5slice4iter4IterReENCINvCsgq90m4oCT4f_13phf_generator17try_generate_hashB36_E0EE9from_iterCsbGvsTGsJZQm_18build_script_build, symObjAddr: 0x2690, symBinAddr: 0x100008F30, symSize: 0x14 }
  - { offset: 0x19204, size: 0x8, addend: 0x0, symName: __RNvXNtNtCse1nGBsou5OW_5alloc3vec14spec_from_iterINtB4_3VecNtNvCsgq90m4oCT4f_13phf_generator17try_generate_hash6BucketEINtB2_12SpecFromIterBU_INtNtNtNtCsfvfooZQ3Axs_4core4iter8adapters3map3MapINtNtNtB2o_3ops5range5RangejENCIBW_ReEs_0EE9from_iterCsbGvsTGsJZQm_18build_script_build, symObjAddr: 0x26A4, symBinAddr: 0x100008F44, symSize: 0x24 }
  - { offset: 0x19242, size: 0x8, addend: 0x0, symName: __RNvXNtNtCse1nGBsou5OW_5alloc3vec14spec_from_iterINtB4_3VecReEINtB2_12SpecFromIterBU_INtNtNtNtCsfvfooZQ3Axs_4core4iter8adapters6cloned6ClonedINtNtNtNtCscOYdFFY2T5N_3std11collections4hash3map4KeysBU_TmmEEEE9from_iterCsbGvsTGsJZQm_18build_script_build, symObjAddr: 0x26C8, symBinAddr: 0x100008F68, symSize: 0x14 }
  - { offset: 0x1928D, size: 0x8, addend: 0x0, symName: __RNvXNtNtCse1nGBsou5OW_5alloc3vec21spec_from_iter_nestedINtB4_3VecReEINtB2_18SpecFromIterNestedB11_INtNtNtNtCsfvfooZQ3Axs_4core4iter8adapters6cloned6ClonedINtNtNtNtCscOYdFFY2T5N_3std11collections4hash3map4KeysB11_TmmEEEE9from_iterCsbGvsTGsJZQm_18build_script_build, symObjAddr: 0x26DC, symBinAddr: 0x100008F7C, symSize: 0x22C }
  - { offset: 0x194B2, size: 0x8, addend: 0x0, symName: __RNvXs_NtNtCse1nGBsou5OW_5alloc3vec21spec_from_iter_nestedINtB6_3VecNtCsbvn0pgfta96_10phf_shared6HashesEINtB4_18SpecFromIterNestedB13_INtNtNtNtCsfvfooZQ3Axs_4core4iter8adapters3map3MapINtNtNtB2g_5slice4iter4IterReENCINvCsgq90m4oCT4f_13phf_generator17try_generate_hashB3m_E0EE9from_iterCsbGvsTGsJZQm_18build_script_build, symObjAddr: 0x2BF4, symBinAddr: 0x100009494, symSize: 0x16C }
  - { offset: 0x19589, size: 0x8, addend: 0x0, symName: __RNvXs_NtNtCse1nGBsou5OW_5alloc3vec21spec_from_iter_nestedINtB6_3VecNtNvCsgq90m4oCT4f_13phf_generator17try_generate_hash6BucketEINtB4_18SpecFromIterNestedB13_INtNtNtNtCsfvfooZQ3Axs_4core4iter8adapters3map3MapINtNtNtB2E_3ops5range5RangejENCIB15_ReEs_0EE9from_iterCsbGvsTGsJZQm_18build_script_build, symObjAddr: 0x2D60, symBinAddr: 0x100009600, symSize: 0x168 }
  - { offset: 0x19666, size: 0x8, addend: 0x0, symName: __RNvXs6_NtCse1nGBsou5OW_5alloc3vecINtB5_3VecNtCsbvn0pgfta96_10phf_shared6HashesENtNtNtCsfvfooZQ3Axs_4core3ops5deref5Deref5derefCsbGvsTGsJZQm_18build_script_build, symObjAddr: 0x29C8, symBinAddr: 0x100009268, symSize: 0x24 }
  - { offset: 0x196A6, size: 0x8, addend: 0x0, symName: __RNvXs6_NtCse1nGBsou5OW_5alloc3vecINtB5_3VecNtNtB7_6string6StringENtNtNtCsfvfooZQ3Axs_4core3ops5deref5Deref5derefCsbGvsTGsJZQm_18build_script_build, symObjAddr: 0x29EC, symBinAddr: 0x10000928C, symSize: 0x24 }
  - { offset: 0x197AC, size: 0x8, addend: 0x0, symName: __RNvXs7_NtCse1nGBsou5OW_5alloc3vecINtB5_3VecNtNvCsgq90m4oCT4f_13phf_generator17try_generate_hash6BucketENtNtNtCsfvfooZQ3Axs_4core3ops5deref8DerefMut9deref_mutCsbGvsTGsJZQm_18build_script_build, symObjAddr: 0x2A10, symBinAddr: 0x1000092B0, symSize: 0x24 }
  - { offset: 0x19822, size: 0x8, addend: 0x0, symName: __RNvXsb_NtCse1nGBsou5OW_5alloc3vecINtB5_3VecNtCsbvn0pgfta96_10phf_shared6HashesEINtNtNtCsfvfooZQ3Axs_4core3ops5index5IndexjE5indexCsbGvsTGsJZQm_18build_script_build, symObjAddr: 0x2F2C, symBinAddr: 0x1000097CC, symSize: 0x84 }
  - { offset: 0x199AA, size: 0x8, addend: 0x0, symName: __RNvXsc_NtCse1nGBsou5OW_5alloc3vecINtB5_3VecNtNvCsgq90m4oCT4f_13phf_generator17try_generate_hash6BucketEINtNtNtCsfvfooZQ3Axs_4core3ops5index8IndexMutjE9index_mutCsbGvsTGsJZQm_18build_script_build, symObjAddr: 0x2FB0, symBinAddr: 0x100009850, symSize: 0x84 }
  - { offset: 0x19B04, size: 0x8, addend: 0x0, symName: __RNvXse_NtCse1nGBsou5OW_5alloc3vecINtB5_3VecReENtNtNtNtCsfvfooZQ3Axs_4core4iter6traits7collect12IntoIterator9into_iterCsbGvsTGsJZQm_18build_script_build, symObjAddr: 0x3034, symBinAddr: 0x1000098D4, symSize: 0xDC }
  - { offset: 0x19D9C, size: 0x8, addend: 0x0, symName: __RNvXsf_NtCse1nGBsou5OW_5alloc3vecRINtB5_3VecNtNvCsgq90m4oCT4f_13phf_generator17try_generate_hash6BucketENtNtNtNtCsfvfooZQ3Axs_4core4iter6traits7collect12IntoIterator9into_iterCsbGvsTGsJZQm_18build_script_build, symObjAddr: 0x3110, symBinAddr: 0x1000099B0, symSize: 0x9C }
  - { offset: 0x19FF8, size: 0x8, addend: 0x0, symName: __RNvXsf_NtCse1nGBsou5OW_5alloc3vecRINtB5_3VecReENtNtNtNtCsfvfooZQ3Axs_4core4iter6traits7collect12IntoIterator9into_iterCsbGvsTGsJZQm_18build_script_build, symObjAddr: 0x31AC, symBinAddr: 0x100009A4C, symSize: 0x9C }
  - { offset: 0x1A254, size: 0x8, addend: 0x0, symName: __RNvXsf_NtCse1nGBsou5OW_5alloc3vecRINtB5_3VecTmmEENtNtNtNtCsfvfooZQ3Axs_4core4iter6traits7collect12IntoIterator9into_iterCsbGvsTGsJZQm_18build_script_build, symObjAddr: 0x3248, symBinAddr: 0x100009AE8, symSize: 0x9C }
  - { offset: 0x1A539, size: 0x8, addend: 0x0, symName: __RNvXsn_NtCse1nGBsou5OW_5alloc3vecINtB5_3VecNtCsbvn0pgfta96_10phf_shared6HashesENtNtNtCsfvfooZQ3Axs_4core3ops4drop4Drop4dropCsbGvsTGsJZQm_18build_script_build, symObjAddr: 0x32E4, symBinAddr: 0x100009B84, symSize: 0x24 }
  - { offset: 0x1A5E9, size: 0x8, addend: 0x0, symName: __RNvXsn_NtCse1nGBsou5OW_5alloc3vecINtB5_3VecNtNtB7_6string6StringENtNtNtCsfvfooZQ3Axs_4core3ops4drop4Drop4dropCsbGvsTGsJZQm_18build_script_build, symObjAddr: 0x3308, symBinAddr: 0x100009BA8, symSize: 0x38 }
  - { offset: 0x1A699, size: 0x8, addend: 0x0, symName: __RNvXsn_NtCse1nGBsou5OW_5alloc3vecINtB5_3VecNtNvCsgq90m4oCT4f_13phf_generator17try_generate_hash6BucketENtNtNtCsfvfooZQ3Axs_4core3ops4drop4Drop4dropCsbGvsTGsJZQm_18build_script_build, symObjAddr: 0x3340, symBinAddr: 0x100009BE0, symSize: 0x38 }
  - { offset: 0x1B8B1, size: 0x8, addend: 0x0, symName: __RNvXNvMsT_NtNtNtCse1nGBsou5OW_5alloc11collections5btree4nodeINtB8_6HandleINtB8_7NodeRefNtNtB8_6marker5DyingpppENtB1p_2KVE12drop_key_valINtB2_7DropperNtNtBa_7set_val9SetValZSTENtNtNtCsfvfooZQ3Axs_4core3ops4drop4Drop4dropCsbGvsTGsJZQm_18build_script_build, symObjAddr: 0x2908, symBinAddr: 0x1000091A8, symSize: 0x1C }
  - { offset: 0x1BB67, size: 0x8, addend: 0x0, symName: __RNCINvMNtCse1nGBsou5OW_5alloc5sliceSNtNvCsgq90m4oCT4f_13phf_generator17try_generate_hash6Bucket7sort_byNCIBA_ReEs0_0E0CsbGvsTGsJZQm_18build_script_build, symObjAddr: 0x180C, symBinAddr: 0x1000080AC, symSize: 0x64 }
  - { offset: 0x1BBF0, size: 0x8, addend: 0x0, symName: __RINvNtCse1nGBsou5OW_5alloc5slice11stable_sortNtNvCsgq90m4oCT4f_13phf_generator17try_generate_hash6BucketNCINvMB2_SBH_7sort_byNCIBJ_ReEs0_0E0ECsbGvsTGsJZQm_18build_script_build, symObjAddr: 0x9D0, symBinAddr: 0x1000072F0, symSize: 0xC8 }
  - { offset: 0x1BCA6, size: 0x8, addend: 0x0, symName: __RNvXs8_NtCse1nGBsou5OW_5alloc5sliceINtNtB7_3vec3VecNtNvCsgq90m4oCT4f_13phf_generator17try_generate_hash6BucketEINtNtNtNtCsfvfooZQ3Axs_4core5slice4sort6stable8BufGuardBN_E13with_capacityCsbGvsTGsJZQm_18build_script_build, symObjAddr: 0x2A34, symBinAddr: 0x1000092D4, symSize: 0x4C }
  - { offset: 0x1BD47, size: 0x8, addend: 0x0, symName: __RNvXs8_NtCse1nGBsou5OW_5alloc5sliceINtNtB7_3vec3VecNtNvCsgq90m4oCT4f_13phf_generator17try_generate_hash6BucketEINtNtNtNtCsfvfooZQ3Axs_4core5slice4sort6stable8BufGuardBN_E19as_uninit_slice_mutCsbGvsTGsJZQm_18build_script_build, symObjAddr: 0x2A80, symBinAddr: 0x100009320, symSize: 0xC8 }
  - { offset: 0x1BF0E, size: 0x8, addend: 0x0, symName: __RINvMs12_NtCscOYdFFY2T5N_3std4pathNtB7_4Path3newNtNtCse1nGBsou5OW_5alloc6string6StringECsbGvsTGsJZQm_18build_script_build, symObjAddr: 0x0, symBinAddr: 0x100006920, symSize: 0x24 }
  - { offset: 0x1BF61, size: 0x8, addend: 0x0, symName: __RINvMs12_NtCscOYdFFY2T5N_3std4pathNtB7_4Path4joinReECsbGvsTGsJZQm_18build_script_build, symObjAddr: 0x24, symBinAddr: 0x100006944, symSize: 0x80 }
  - { offset: 0x1C0F1, size: 0x8, addend: 0x0, symName: __RINvMsh_NtNtNtCse1nGBsou5OW_5alloc11collections5btree4nodeINtB6_7NodeRefNtNtB6_6marker5DyingNtNtBc_6string6StringNtNtB8_7set_val9SetValZSTNtB1a_14LeafOrInternalE21deallocate_and_ascendNtNtBc_5alloc6GlobalECsbGvsTGsJZQm_18build_script_build, symObjAddr: 0xA4, symBinAddr: 0x1000069C4, symSize: 0x178 }
  - { offset: 0x1C5FF, size: 0x8, addend: 0x0, symName: __RINvMsi_NtCse1nGBsou5OW_5alloc3vecINtB6_3VecNtCsbvn0pgfta96_10phf_shared6HashesE14extend_trustedINtNtNtNtCsfvfooZQ3Axs_4core4iter8adapters3map3MapINtNtNtB1F_5slice4iter4IterReENCINvCsgq90m4oCT4f_13phf_generator17try_generate_hashB2L_E0EECsbGvsTGsJZQm_18build_script_build, symObjAddr: 0x21C, symBinAddr: 0x100006B3C, symSize: 0x17C }
  - { offset: 0x1C8D1, size: 0x8, addend: 0x0, symName: __RINvMsi_NtCse1nGBsou5OW_5alloc3vecINtB6_3VecNtNvCsgq90m4oCT4f_13phf_generator17try_generate_hash6BucketE14extend_trustedINtNtNtNtCsfvfooZQ3Axs_4core4iter8adapters3map3MapINtNtNtB23_3ops5range5RangejENCIBI_ReEs_0EECsbGvsTGsJZQm_18build_script_build, symObjAddr: 0x398, symBinAddr: 0x100006CB8, symSize: 0x170 }
  - { offset: 0x1D071, size: 0x8, addend: 0x0, symName: __RNvXs1_NtCsloNvcHxBCre_9hashbrown10scopeguardINtB5_10ScopeGuardNtNtB7_3raw13RawTableInnerNCINvMsa_B11_BZ_14prepare_resizeNtNtCse1nGBsou5OW_5alloc5alloc6GlobalE0ENtNtNtCsfvfooZQ3Axs_4core3ops4drop4Drop4dropCsbGvsTGsJZQm_18build_script_build, symObjAddr: 0x2924, symBinAddr: 0x1000091C4, symSize: 0x2C }
  - { offset: 0x1D0AB, size: 0x8, addend: 0x0, symName: __RNvXs1_NtCsloNvcHxBCre_9hashbrown10scopeguardINtB5_10ScopeGuardQNtNtB7_3raw13RawTableInnerNCNvMsa_B12_B10_15rehash_in_place0ENtNtNtCsfvfooZQ3Axs_4core3ops4drop4Drop4dropCsbGvsTGsJZQm_18build_script_build, symObjAddr: 0x2950, symBinAddr: 0x1000091F0, symSize: 0x2C }
  - { offset: 0x1D1FF, size: 0x8, addend: 0x0, symName: __RINvMsi_NtCse1nGBsou5OW_5alloc3vecINtB6_3VecReE16extend_desugaredINtNtNtNtCsfvfooZQ3Axs_4core4iter8adapters6cloned6ClonedINtNtNtNtCscOYdFFY2T5N_3std11collections4hash3map4KeysBG_TmmEEEECsbGvsTGsJZQm_18build_script_build, symObjAddr: 0x508, symBinAddr: 0x100006E28, symSize: 0x19C }
  - { offset: 0x1D4B5, size: 0x8, addend: 0x0, symName: __RINvMsj_NtNtNtCse1nGBsou5OW_5alloc11collections5btree8navigateINtNtB8_4node6HandleINtB11_7NodeRefNtNtB11_6marker5DyingNtNtBc_6string6StringNtNtB8_7set_val9SetValZSTNtB1z_4LeafENtB1z_4EdgeE16deallocating_endNtNtBc_5alloc6GlobalECsbGvsTGsJZQm_18build_script_build, symObjAddr: 0x6A4, symBinAddr: 0x100006FC4, symSize: 0xD8 }
  - { offset: 0x1D736, size: 0x8, addend: 0x0, symName: __RINvMsj_NtNtNtCse1nGBsou5OW_5alloc11collections5btree8navigateINtNtB8_4node6HandleINtB11_7NodeRefNtNtB11_6marker5DyingNtNtBc_6string6StringNtNtB8_7set_val9SetValZSTNtB1z_4LeafENtB1z_4EdgeE17deallocating_nextNtNtBc_5alloc6GlobalECsbGvsTGsJZQm_18build_script_build, symObjAddr: 0x77C, symBinAddr: 0x10000709C, symSize: 0x254 }
  - { offset: 0x1D997, size: 0x8, addend: 0x0, symName: __RNvMNtCse1nGBsou5OW_5alloc3vecINtB2_3VecNtNtB4_6string6StringE3newCsbGvsTGsJZQm_18build_script_build, symObjAddr: 0x1A4C, symBinAddr: 0x1000082EC, symSize: 0x14 }
  - { offset: 0x1D9B4, size: 0x8, addend: 0x0, symName: __RNvMNtCse1nGBsou5OW_5alloc3vecINtB2_3VecReE3newCsbGvsTGsJZQm_18build_script_build, symObjAddr: 0x1A60, symBinAddr: 0x100008300, symSize: 0x14 }
  - { offset: 0x1DA9F, size: 0x8, addend: 0x0, symName: __RNvMsO_NtNtNtCse1nGBsou5OW_5alloc11collections5btree4nodeINtB5_6HandleINtB5_7NodeRefNtNtB5_6marker5DyingNtNtBb_6string6StringNtNtB7_7set_val9SetValZSTNtB1m_8InternalENtB1m_4EdgeE7descendCsbGvsTGsJZQm_18build_script_build, symObjAddr: 0x1A74, symBinAddr: 0x100008314, symSize: 0x94 }
  - { offset: 0x1DDA4, size: 0x8, addend: 0x0, symName: __RNvMsT_NtNtNtCse1nGBsou5OW_5alloc11collections5btree4nodeINtB5_6HandleINtB5_7NodeRefNtNtB5_6marker5DyingNtNtBb_6string6StringNtNtB7_7set_val9SetValZSTNtB1m_14LeafOrInternalENtB1m_2KVE12drop_key_valCsbGvsTGsJZQm_18build_script_build, symObjAddr: 0x1B08, symBinAddr: 0x1000083A8, symSize: 0x118 }
  - { offset: 0x1DFCA, size: 0x8, addend: 0x0, symName: __RNvMs_NtCse1nGBsou5OW_5alloc3vecINtB4_3VecNtCsbvn0pgfta96_10phf_shared6HashesE3lenCsbGvsTGsJZQm_18build_script_build, symObjAddr: 0x1C20, symBinAddr: 0x1000084C0, symSize: 0x18 }
  - { offset: 0x1E12F, size: 0x8, addend: 0x0, symName: __RNvMs_NtCse1nGBsou5OW_5alloc3vecINtB4_3VecNtCsbvn0pgfta96_10phf_shared6HashesE7reserveCsbGvsTGsJZQm_18build_script_build, symObjAddr: 0x1C38, symBinAddr: 0x1000084D8, symSize: 0xC8 }
  - { offset: 0x1E32D, size: 0x8, addend: 0x0, symName: __RNvMs_NtCse1nGBsou5OW_5alloc3vecINtB4_3VecNtCsbvn0pgfta96_10phf_shared6HashesE8as_sliceCsbGvsTGsJZQm_18build_script_build, symObjAddr: 0x1D00, symBinAddr: 0x1000085A0, symSize: 0x64 }
  - { offset: 0x1E4ED, size: 0x8, addend: 0x0, symName: __RNvMs_NtCse1nGBsou5OW_5alloc3vecINtB4_3VecNtNtB6_6string6StringE4pushCsbGvsTGsJZQm_18build_script_build, symObjAddr: 0x1D64, symBinAddr: 0x100008604, symSize: 0x108 }
  - { offset: 0x1E745, size: 0x8, addend: 0x0, symName: __RNvMs_NtCse1nGBsou5OW_5alloc3vecINtB4_3VecNtNtB6_6string6StringE8as_sliceCsbGvsTGsJZQm_18build_script_build, symObjAddr: 0x1E6C, symBinAddr: 0x10000870C, symSize: 0x64 }
  - { offset: 0x1E87F, size: 0x8, addend: 0x0, symName: __RNvMs_NtCse1nGBsou5OW_5alloc3vecINtB4_3VecNtNvCsgq90m4oCT4f_13phf_generator17try_generate_hash6BucketE12as_mut_sliceCsbGvsTGsJZQm_18build_script_build, symObjAddr: 0x1ED0, symBinAddr: 0x100008770, symSize: 0x64 }
  - { offset: 0x1EA64, size: 0x8, addend: 0x0, symName: __RNvMs_NtCse1nGBsou5OW_5alloc3vecINtB4_3VecNtNvCsgq90m4oCT4f_13phf_generator17try_generate_hash6BucketE7reserveCsbGvsTGsJZQm_18build_script_build, symObjAddr: 0x1F34, symBinAddr: 0x1000087D4, symSize: 0xC8 }
  - { offset: 0x1ECEB, size: 0x8, addend: 0x0, symName: __RNvMse_NtNtNtCse1nGBsou5OW_5alloc11collections5btree4nodeINtB5_7NodeRefNtNtB5_6marker5DyingNtNtBb_6string6StringNtNtB7_7set_val9SetValZSTNtB19_14LeafOrInternalE6ascendCsbGvsTGsJZQm_18build_script_build, symObjAddr: 0x1FFC, symBinAddr: 0x10000889C, symSize: 0x168 }
  - { offset: 0x1F057, size: 0x8, addend: 0x0, symName: __RNvMsp_NtNtNtCse1nGBsou5OW_5alloc11collections5btree8navigateINtNtB7_4node6HandleINtB10_7NodeRefNtNtB10_6marker5DyingNtNtBb_6string6StringNtNtB7_7set_val9SetValZSTNtB1y_14LeafOrInternalENtB1y_2KVE14next_leaf_edgeCsbGvsTGsJZQm_18build_script_build, symObjAddr: 0x2164, symBinAddr: 0x100008A04, symSize: 0x210 }
  - { offset: 0x207B4, size: 0x8, addend: 0x0, symName: __RINvMsb_NtNtNtCse1nGBsou5OW_5alloc11collections5btree8navigateINtB6_13LazyLeafRangeNtNtNtB8_4node6marker5DyingNtNtBc_6string6StringNtNtB8_7set_val9SetValZSTE16deallocating_endNtNtBc_5alloc6GlobalECsbGvsTGsJZQm_18build_script_build, symObjAddr: 0x0, symBinAddr: 0x100009ED0, symSize: 0xA8 }
  - { offset: 0x207EB, size: 0x8, addend: 0x0, symName: __RNCINvNtCscOYdFFY2T5N_3std2rt10lang_startuE0CsbGvsTGsJZQm_18build_script_build, symObjAddr: 0xD58, symBinAddr: 0x10000AC28, symSize: 0x34 }
  - { offset: 0x20855, size: 0x8, addend: 0x0, symName: __RINvNtCscOYdFFY2T5N_3std2rt10lang_startuECsbGvsTGsJZQm_18build_script_build, symObjAddr: 0x5D8, symBinAddr: 0x10000A4A8, symSize: 0x60 }
  - { offset: 0x2091D, size: 0x8, addend: 0x0, symName: __RNvXNvNtNtCscOYdFFY2T5N_3std2io5Write9write_fmtINtB2_7AdapterINtNtNtB6_8buffered9bufwriter9BufWriterNtNtB8_2fs4FileEENtNtCsfvfooZQ3Axs_4core3fmt5Write9write_strCsbGvsTGsJZQm_18build_script_build, symObjAddr: 0x15D8, symBinAddr: 0x10000B4A8, symSize: 0xB8 }
  - { offset: 0x20979, size: 0x8, addend: 0x0, symName: __RNvXNvNtNtCscOYdFFY2T5N_3std2io5Write9write_fmtINtB2_7AdapterNtNtB8_2fs4FileENtNtCsfvfooZQ3Axs_4core3fmt5Write9write_strCsbGvsTGsJZQm_18build_script_build, symObjAddr: 0x1690, symBinAddr: 0x10000B560, symSize: 0xB8 }
  - { offset: 0x209D7, size: 0x8, addend: 0x0, symName: __RNvYINtNtNtNtCscOYdFFY2T5N_3std2io8buffered9bufwriter9BufWriterNtNtBb_2fs4FileENtB9_5Write9write_fmtCsbGvsTGsJZQm_18build_script_build, symObjAddr: 0x2290, symBinAddr: 0x10000C160, symSize: 0x128 }
  - { offset: 0x20D8A, size: 0x8, addend: 0x0, symName: __RINvNtCscOYdFFY2T5N_3std2io10read_untilINtNtNtB2_8buffered9bufreader9BufReaderNtNtB4_2fs4FileEECsbGvsTGsJZQm_18build_script_build, symObjAddr: 0x150, symBinAddr: 0x10000A020, symSize: 0x284 }
  - { offset: 0x2117F, size: 0x8, addend: 0x0, symName: __RNCNvYINtNtNtNtCscOYdFFY2T5N_3std2io8buffered9bufreader9BufReaderNtNtBd_2fs4FileENtBb_7BufRead9read_line0CsbGvsTGsJZQm_18build_script_build, symObjAddr: 0xD8C, symBinAddr: 0x10000AC5C, symSize: 0x34 }
  - { offset: 0x211C9, size: 0x8, addend: 0x0, symName: __RINvNtCscOYdFFY2T5N_3std2io16append_to_stringNCNvYINtNtNtB2_8buffered9bufreader9BufReaderNtNtB4_2fs4FileENtB2_7BufRead9read_line0ECsbGvsTGsJZQm_18build_script_build, symObjAddr: 0x3D4, symBinAddr: 0x10000A2A4, symSize: 0x204 }
  - { offset: 0x21577, size: 0x8, addend: 0x0, symName: __RNvXNtCscOYdFFY2T5N_3std2ioNtB2_5GuardNtNtNtCsfvfooZQ3Axs_4core3ops4drop4Drop4dropCsbGvsTGsJZQm_18build_script_build, symObjAddr: 0x1588, symBinAddr: 0x10000B458, symSize: 0x20 }
  - { offset: 0x215C1, size: 0x8, addend: 0x0, symName: __RNvXs_NtNtCscOYdFFY2T5N_3std2io5implsQINtNtNtB6_8buffered9bufwriter9BufWriterNtNtB8_2fs4FileENtB6_5Write9write_allCsbGvsTGsJZQm_18build_script_build, symObjAddr: 0x1BE8, symBinAddr: 0x10000BAB8, symSize: 0x34 }
  - { offset: 0x2160B, size: 0x8, addend: 0x0, symName: __RNvXsp_NtCscOYdFFY2T5N_3std2ioINtB5_5LinesINtNtNtB5_8buffered9bufreader9BufReaderNtNtB7_2fs4FileEENtNtNtNtCsfvfooZQ3Axs_4core4iter6traits8iterator8Iterator4nextCsbGvsTGsJZQm_18build_script_build, symObjAddr: 0x1F34, symBinAddr: 0x10000BE04, symSize: 0x334 }
  - { offset: 0x22D39, size: 0x8, addend: 0x0, symName: __RNvXs7_NtNtCsfvfooZQ3Axs_4core3cmp5implsRReNtB7_9PartialEq2eqCsbGvsTGsJZQm_18build_script_build, symObjAddr: 0x1B38, symBinAddr: 0x10000BA08, symSize: 0x34 }
  - { offset: 0x22D88, size: 0x8, addend: 0x0, symName: __RNvXs7_NtNtCsfvfooZQ3Axs_4core3cmp5implsReNtB7_9PartialEq2eqCsbGvsTGsJZQm_18build_script_build, symObjAddr: 0x1B6C, symBinAddr: 0x10000BA3C, symSize: 0x44 }
  - { offset: 0x22DDD, size: 0x8, addend: 0x0, symName: __RNvXsV_NtNtCsfvfooZQ3Axs_4core3cmp5implsjNtB7_3Ord3cmpCsbGvsTGsJZQm_18build_script_build, symObjAddr: 0x1BB0, symBinAddr: 0x10000BA80, symSize: 0x38 }
  - { offset: 0x230C8, size: 0x8, addend: 0x0, symName: __RNvXs1n_NtNtCsfvfooZQ3Axs_4core3fmt3numyNtB8_5Debug3fmtCsbGvsTGsJZQm_18build_script_build, symObjAddr: 0x1748, symBinAddr: 0x10000B618, symSize: 0x90 }
  - { offset: 0x2314D, size: 0x8, addend: 0x0, symName: __RNvXs_NvNtNtCsfvfooZQ3Axs_4core3fmt5Write9write_fmtQINtNvNtNtCscOYdFFY2T5N_3std2io5Write9write_fmt7AdapterINtNtNtBV_8buffered9bufwriter9BufWriterNtNtBX_2fs4FileEENtB4_12SpecWriteFmt14spec_write_fmtCsbGvsTGsJZQm_18build_script_build, symObjAddr: 0x1C6C, symBinAddr: 0x10000BB3C, symSize: 0x164 }
  - { offset: 0x231FA, size: 0x8, addend: 0x0, symName: __RNvXs_NvNtNtCsfvfooZQ3Axs_4core3fmt5Write9write_fmtQINtNvNtNtCscOYdFFY2T5N_3std2io5Write9write_fmt7AdapterNtNtBX_2fs4FileENtB4_12SpecWriteFmt14spec_write_fmtCsbGvsTGsJZQm_18build_script_build, symObjAddr: 0x1DD0, symBinAddr: 0x10000BCA0, symSize: 0x164 }
  - { offset: 0x232A9, size: 0x8, addend: 0x0, symName: __RNvYINtNvNtNtCscOYdFFY2T5N_3std2io5Write9write_fmt7AdapterINtNtNtB9_8buffered9bufwriter9BufWriterNtNtBb_2fs4FileEENtNtCsfvfooZQ3Axs_4core3fmt5Write10write_charCsbGvsTGsJZQm_18build_script_build, symObjAddr: 0x23B8, symBinAddr: 0x10000C288, symSize: 0x70 }
  - { offset: 0x23311, size: 0x8, addend: 0x0, symName: __RNvYINtNvNtNtCscOYdFFY2T5N_3std2io5Write9write_fmt7AdapterINtNtNtB9_8buffered9bufwriter9BufWriterNtNtBb_2fs4FileEENtNtCsfvfooZQ3Axs_4core3fmt5Write9write_fmtCsbGvsTGsJZQm_18build_script_build, symObjAddr: 0x2428, symBinAddr: 0x10000C2F8, symSize: 0x24 }
  - { offset: 0x23355, size: 0x8, addend: 0x0, symName: __RNvYINtNvNtNtCscOYdFFY2T5N_3std2io5Write9write_fmt7AdapterNtNtBb_2fs4FileENtNtCsfvfooZQ3Axs_4core3fmt5Write10write_charCsbGvsTGsJZQm_18build_script_build, symObjAddr: 0x244C, symBinAddr: 0x10000C31C, symSize: 0x70 }
  - { offset: 0x233BD, size: 0x8, addend: 0x0, symName: __RNvYINtNvNtNtCscOYdFFY2T5N_3std2io5Write9write_fmt7AdapterNtNtBb_2fs4FileENtNtCsfvfooZQ3Axs_4core3fmt5Write9write_fmtCsbGvsTGsJZQm_18build_script_build, symObjAddr: 0x24BC, symBinAddr: 0x10000C38C, symSize: 0x24 }
  - { offset: 0x2403D, size: 0x8, addend: 0x0, symName: __RINvXs2U_NtNtCsfvfooZQ3Axs_4core5slice4iterINtB7_4IterReENtNtNtNtBb_4iter6traits8iterator8Iterator4folduNCINvNtNtBZ_8adapters3map8map_foldRBQ_NtCsbvn0pgfta96_10phf_shared6HashesuNCINvCsgq90m4oCT4f_13phf_generator17try_generate_hashBQ_E0NCINvNvBT_8for_each4callB2g_NCINvMsi_NtCse1nGBsou5OW_5alloc3vecINtB4n_3VecB2g_E14extend_trustedINtB1J_3MapBF_B2Q_EE0E0E0ECsbGvsTGsJZQm_18build_script_build, symObjAddr: 0x638, symBinAddr: 0x10000A508, symSize: 0x1B0 }
  - { offset: 0x24191, size: 0x8, addend: 0x0, symName: __RINvXs2U_NtNtCsfvfooZQ3Axs_4core5slice4iterINtB7_4IterTReBR_EENtNtNtNtBb_4iter6traits8iterator8Iterator4folduNCINvNtNtB14_8adapters3map8map_foldRBQ_BR_uNCNvCsbGvsTGsJZQm_18build_script_build4main0NCIB1M_BR_NtNtCse1nGBsou5OW_5alloc6string6StringuNCINvMCsdy4PFqiFpmx_20string_cache_codegenNtB41_8AtomType5atomsINtB1O_3MapBF_B2q_EE0NCINvNvBY_8for_each4callB3i_NCINvXsl_NtNtNtB3m_11collections5btree3setINtB5S_8BTreeSetB3i_EINtNtB12_7collect6ExtendB3i_E6extendIB4X_B4W_B3V_EE0E0E0E0EB2u_, symObjAddr: 0x7E8, symBinAddr: 0x10000A6B8, symSize: 0x184 }
  - { offset: 0x242E4, size: 0x8, addend: 0x0, symName: __RINvXs2U_NtNtCsfvfooZQ3Axs_4core5slice4iterINtB7_4IterTReBR_EENtNtNtNtBb_4iter6traits8iterator8Iterator4folduNCINvNtNtB14_8adapters3map8map_foldRBQ_BR_uNCNvCsbGvsTGsJZQm_18build_script_build4mains_0NCIB1M_BR_NtNtCse1nGBsou5OW_5alloc6string6StringuNCINvMCsdy4PFqiFpmx_20string_cache_codegenNtB43_8AtomType5atomsINtB1O_3MapBF_B2q_EE0NCINvNvBY_8for_each4callB3k_NCINvXsl_NtNtNtB3o_11collections5btree3setINtB5U_8BTreeSetB3k_EINtNtB12_7collect6ExtendB3k_E6extendIB4Z_B4Y_B3X_EE0E0E0E0EB2u_, symObjAddr: 0x96C, symBinAddr: 0x10000A83C, symSize: 0x184 }
  - { offset: 0x24437, size: 0x8, addend: 0x0, symName: __RINvXs2U_NtNtCsfvfooZQ3Axs_4core5slice4iterINtB7_4IterTRemmEENtNtNtNtBb_4iter6traits8iterator8Iterator4folduNCINvNtNtB13_8adapters3map8map_foldRBQ_TBR_TmmEEuNCNvCsbGvsTGsJZQm_18build_script_build21named_entities_to_phf0NCINvNvBX_8for_each4callB2l_NCINvXs1i_NtCsloNvcHxBCre_9hashbrown3mapINtB47_7HashMapBR_B2p_NtNtNtCscOYdFFY2T5N_3std4hash6random11RandomStateEINtNtB11_7collect6ExtendB2l_E6extendINtB1N_3MapBF_B2v_EE0E0E0EB2z_, symObjAddr: 0xAF0, symBinAddr: 0x10000A9C0, symSize: 0x18C }
  - { offset: 0x2458A, size: 0x8, addend: 0x0, symName: __RNvXs2U_NtNtCsfvfooZQ3Axs_4core5slice4iterINtB6_4IterNtCsbvn0pgfta96_10phf_shared6HashesENtNtNtNtBa_4iter6traits8iterator8Iterator4nextCsbGvsTGsJZQm_18build_script_build, symObjAddr: 0x17D8, symBinAddr: 0x10000B6A8, symSize: 0xBC }
  - { offset: 0x246D8, size: 0x8, addend: 0x0, symName: __RNvXs2U_NtNtCsfvfooZQ3Axs_4core5slice4iterINtB6_4IterNtNvCsgq90m4oCT4f_13phf_generator17try_generate_hash6BucketENtNtNtNtBa_4iter6traits8iterator8Iterator4nextCsbGvsTGsJZQm_18build_script_build, symObjAddr: 0x1894, symBinAddr: 0x10000B764, symSize: 0xBC }
  - { offset: 0x24826, size: 0x8, addend: 0x0, symName: __RNvXs2U_NtNtCsfvfooZQ3Axs_4core5slice4iterINtB6_4IterTReBQ_EENtNtNtNtBa_4iter6traits8iterator8Iterator4nextCsbGvsTGsJZQm_18build_script_build, symObjAddr: 0x1950, symBinAddr: 0x10000B820, symSize: 0xBC }
  - { offset: 0x24974, size: 0x8, addend: 0x0, symName: __RNvXs2U_NtNtCsfvfooZQ3Axs_4core5slice4iterINtB6_4IterTRemmEENtNtNtNtBa_4iter6traits8iterator8Iterator9size_hintCsbGvsTGsJZQm_18build_script_build, symObjAddr: 0x1A0C, symBinAddr: 0x10000B8DC, symSize: 0x70 }
  - { offset: 0x249E3, size: 0x8, addend: 0x0, symName: __RNvXs2U_NtNtCsfvfooZQ3Axs_4core5slice4iterINtB6_4IterTmmEENtNtNtNtBa_4iter6traits8iterator8Iterator4nextCsbGvsTGsJZQm_18build_script_build, symObjAddr: 0x1A7C, symBinAddr: 0x10000B94C, symSize: 0xBC }
  - { offset: 0x24E03, size: 0x8, addend: 0x0, symName: __RNvXs_NtNtCsfvfooZQ3Axs_4core5slice4iterRSTReBF_ENtNtNtNtB8_4iter6traits7collect12IntoIterator9into_iterCsbGvsTGsJZQm_18build_script_build, symObjAddr: 0x1C1C, symBinAddr: 0x10000BAEC, symSize: 0x50 }
  - { offset: 0x25378, size: 0x8, addend: 0x0, symName: __RINvYINtNtNtCsfvfooZQ3Axs_4core5slice4iter4IterReENtNtNtNtBa_4iter6traits8iterator8Iterator3mapNtCsbvn0pgfta96_10phf_shared6HashesNCINvCsgq90m4oCT4f_13phf_generator17try_generate_hashBJ_E0ECsbGvsTGsJZQm_18build_script_build, symObjAddr: 0xC7C, symBinAddr: 0x10000AB4C, symSize: 0x30 }
  - { offset: 0x253E5, size: 0x8, addend: 0x0, symName: __RINvYINtNtNtCsfvfooZQ3Axs_4core5slice4iter4IterTReBK_EENtNtNtNtBa_4iter6traits8iterator8Iterator3mapBK_NCNvCsbGvsTGsJZQm_18build_script_build4main0EB1H_, symObjAddr: 0xCAC, symBinAddr: 0x10000AB7C, symSize: 0x1C }
  - { offset: 0x2543D, size: 0x8, addend: 0x0, symName: __RINvYINtNtNtCsfvfooZQ3Axs_4core5slice4iter4IterTReBK_EENtNtNtNtBa_4iter6traits8iterator8Iterator3mapBK_NCNvCsbGvsTGsJZQm_18build_script_build4mains_0EB1H_, symObjAddr: 0xCC8, symBinAddr: 0x10000AB98, symSize: 0x1C }
  - { offset: 0x25495, size: 0x8, addend: 0x0, symName: __RINvYINtNtNtCsfvfooZQ3Axs_4core5slice4iter4IterTRemmEENtNtNtNtBa_4iter6traits8iterator8Iterator3mapTBK_TmmEENCNvCsbGvsTGsJZQm_18build_script_build21named_entities_to_phf0EB1M_, symObjAddr: 0xCE4, symBinAddr: 0x10000ABB4, symSize: 0x1C }
  - { offset: 0x254ED, size: 0x8, addend: 0x0, symName: __RNvYINtNtNtCsfvfooZQ3Axs_4core5slice4iter4IterNtCsbvn0pgfta96_10phf_shared6HashesENtNtNtNtB9_4iter6traits8iterator8Iterator9enumerateCsbGvsTGsJZQm_18build_script_build, symObjAddr: 0x2268, symBinAddr: 0x10000C138, symSize: 0x28 }
  - { offset: 0x2559D, size: 0x8, addend: 0x0, symName: __RNvXNtNtNtCsfvfooZQ3Axs_4core4iter6traits7collectINtNtCscOYdFFY2T5N_3std2io5LinesINtNtNtBO_8buffered9bufreader9BufReaderNtNtBQ_2fs4FileEENtB2_12IntoIterator9into_iterCsbGvsTGsJZQm_18build_script_build, symObjAddr: 0x15A8, symBinAddr: 0x10000B478, symSize: 0x30 }
  - { offset: 0x25602, size: 0x8, addend: 0x0, symName: __RNvNtNtNtNtCsfvfooZQ3Axs_4core9core_arch10arm_shared4neon9generated18vreinterpret_s8_u8CsbGvsTGsJZQm_18build_script_build, symObjAddr: 0x1548, symBinAddr: 0x10000B418, symSize: 0xC }
  - { offset: 0x25630, size: 0x8, addend: 0x0, symName: __RNvNtNtNtNtCsfvfooZQ3Axs_4core9core_arch10arm_shared4neon9generated19vreinterpret_u64_u8CsbGvsTGsJZQm_18build_script_build, symObjAddr: 0x1554, symBinAddr: 0x10000B424, symSize: 0xC }
  - { offset: 0x2565E, size: 0x8, addend: 0x0, symName: __RNvNtNtNtNtCsfvfooZQ3Axs_4core9core_arch10arm_shared4neon9generated7vceq_u8CsbGvsTGsJZQm_18build_script_build, symObjAddr: 0x1560, symBinAddr: 0x10000B430, symSize: 0x14 }
  - { offset: 0x2569B, size: 0x8, addend: 0x0, symName: __RNvNtNtNtNtCsfvfooZQ3Axs_4core9core_arch10arm_shared4neon9generated7vorr_u8CsbGvsTGsJZQm_18build_script_build, symObjAddr: 0x1574, symBinAddr: 0x10000B444, symSize: 0x14 }
  - { offset: 0x25C6D, size: 0x8, addend: 0x0, symName: __RNCINvMsm_NtNtNtCse1nGBsou5OW_5alloc11collections5btree8navigateINtNtBa_4node6HandleINtB13_7NodeRefNtNtB13_6marker5DyingNtNtBe_6string6StringNtNtBa_7set_val9SetValZSTNtB1B_4LeafENtB1B_4EdgeE27deallocating_next_uncheckedNtNtBe_5alloc6GlobalE0CsbGvsTGsJZQm_18build_script_build, symObjAddr: 0xD00, symBinAddr: 0x10000ABD0, symSize: 0x58 }
  - { offset: 0x2631E, size: 0x8, addend: 0x0, symName: __RNvNtCse1nGBsou5OW_5alloc3fmt6formatCsbGvsTGsJZQm_18build_script_build, symObjAddr: 0x1474, symBinAddr: 0x10000B344, symSize: 0xD4 }
  - { offset: 0x264DF, size: 0x8, addend: 0x0, symName: __RINvMsb_NtNtNtCse1nGBsou5OW_5alloc11collections5btree8navigateINtB6_13LazyLeafRangeNtNtNtB8_4node6marker5DyingNtNtBc_6string6StringNtNtB8_7set_val9SetValZSTE16deallocating_endNtNtBc_5alloc6GlobalECsbGvsTGsJZQm_18build_script_build, symObjAddr: 0x0, symBinAddr: 0x100009ED0, symSize: 0xA8 }
  - { offset: 0x265C5, size: 0x8, addend: 0x0, symName: __RINvMsb_NtNtNtCse1nGBsou5OW_5alloc11collections5btree8navigateINtB6_13LazyLeafRangeNtNtNtB8_4node6marker5DyingNtNtBc_6string6StringNtNtB8_7set_val9SetValZSTE27deallocating_next_uncheckedNtNtBc_5alloc6GlobalECsbGvsTGsJZQm_18build_script_build, symObjAddr: 0xA8, symBinAddr: 0x100009F78, symSize: 0xA8 }
  - { offset: 0x26CA1, size: 0x8, addend: 0x0, symName: __RNvMNtCsfvfooZQ3Axs_4core3cmpNtB2_8Ordering7reverseCsbGvsTGsJZQm_18build_script_build, symObjAddr: 0xDC0, symBinAddr: 0x10000AC90, symSize: 0x58 }
  - { offset: 0x26E75, size: 0x8, addend: 0x0, symName: __RNvMNtNtNtCsloNvcHxBCre_9hashbrown7control5group4neonNtB2_5Group10match_fullCsbGvsTGsJZQm_18build_script_build, symObjAddr: 0xE18, symBinAddr: 0x10000ACE8, symSize: 0x68 }
  - { offset: 0x26EAD, size: 0x8, addend: 0x0, symName: __RNvMNtNtNtCsloNvcHxBCre_9hashbrown7control5group4neonNtB2_5Group22match_empty_or_deletedCsbGvsTGsJZQm_18build_script_build, symObjAddr: 0xE80, symBinAddr: 0x10000AD50, symSize: 0x68 }
  - { offset: 0x26EE5, size: 0x8, addend: 0x0, symName: __RNvMNtNtNtCsloNvcHxBCre_9hashbrown7control5group4neonNtB2_5Group44convert_special_to_empty_and_full_to_deletedCsbGvsTGsJZQm_18build_script_build, symObjAddr: 0xEE8, symBinAddr: 0x10000ADB8, symSize: 0x88 }
  - { offset: 0x26F1D, size: 0x8, addend: 0x0, symName: __RNvMNtNtNtCsloNvcHxBCre_9hashbrown7control5group4neonNtB2_5Group9match_tagCsbGvsTGsJZQm_18build_script_build, symObjAddr: 0xF70, symBinAddr: 0x10000AE40, symSize: 0x7C }
  - { offset: 0x27067, size: 0x8, addend: 0x0, symName: __RNvMs4_NtNtCsfvfooZQ3Axs_4core5slice4iterINtB5_4IterNtCsbvn0pgfta96_10phf_shared6HashesE3newCsbGvsTGsJZQm_18build_script_build, symObjAddr: 0xFEC, symBinAddr: 0x10000AEBC, symSize: 0x58 }
  - { offset: 0x27235, size: 0x8, addend: 0x0, symName: __RNvMs4_NtNtCsfvfooZQ3Axs_4core5slice4iterINtB5_4IterTReBP_EE3newCsbGvsTGsJZQm_18build_script_build, symObjAddr: 0x1044, symBinAddr: 0x10000AF14, symSize: 0x50 }
  - { offset: 0x27403, size: 0x8, addend: 0x0, symName: __RNvMs4_NtNtCsfvfooZQ3Axs_4core5slice4iterINtB5_4IterTRemmEE3newCsbGvsTGsJZQm_18build_script_build, symObjAddr: 0x1094, symBinAddr: 0x10000AF64, symSize: 0x58 }
  - { offset: 0x276B8, size: 0x8, addend: 0x0, symName: __RNvMsb_NtNtNtCse1nGBsou5OW_5alloc11collections5btree8navigateINtB5_13LazyLeafRangeNtNtNtB7_4node6marker5DyingNtNtBb_6string6StringNtNtB7_7set_val9SetValZSTE10take_frontCsbGvsTGsJZQm_18build_script_build, symObjAddr: 0x10EC, symBinAddr: 0x10000AFBC, symSize: 0x1C4 }
  - { offset: 0x27A41, size: 0x8, addend: 0x0, symName: __RNvMsc_NtNtNtCse1nGBsou5OW_5alloc11collections5btree8navigateINtB5_13LazyLeafRangeNtNtNtB7_4node6marker5DyingNtNtBb_6string6StringNtNtB7_7set_val9SetValZSTE10init_frontCsbGvsTGsJZQm_18build_script_build, symObjAddr: 0x12B0, symBinAddr: 0x10000B180, symSize: 0x1C4 }
  - { offset: 0x28946, size: 0x8, addend: 0x0, symName: __RNvNvNtCsfvfooZQ3Axs_4core10intrinsics19copy_nonoverlapping18precondition_checkCsbGvsTGsJZQm_18build_script_build, symObjAddr: 0x16F0, symBinAddr: 0x10000DA24, symSize: 0x2E4 }
  - { offset: 0x28C85, size: 0x8, addend: 0x0, symName: __RNvNvMs9_NtCsfvfooZQ3Axs_4core3numj13unchecked_add18precondition_checkCsbGvsTGsJZQm_18build_script_build, symObjAddr: 0x166C, symBinAddr: 0x10000D9A0, symSize: 0x44 }
  - { offset: 0x28D11, size: 0x8, addend: 0x0, symName: __RNvNvMs9_NtCsfvfooZQ3Axs_4core3numj13unchecked_mul18precondition_checkCsbGvsTGsJZQm_18build_script_build, symObjAddr: 0x16B0, symBinAddr: 0x10000D9E4, symSize: 0x40 }
  - { offset: 0x29058, size: 0x8, addend: 0x0, symName: __RNvNvMNtNtCsfvfooZQ3Axs_4core3ptr9const_ptrPp7sub_ptr18precondition_checkCsbGvsTGsJZQm_18build_script_build, symObjAddr: 0x162C, symBinAddr: 0x10000D960, symSize: 0x40 }
  - { offset: 0x2965B, size: 0x8, addend: 0x0, symName: __RINvNtNtNtNtCsfvfooZQ3Axs_4core5slice4sort6stable9quicksort16stable_partitionNtNvCsgq90m4oCT4f_13phf_generator17try_generate_hash6BucketNCINvB2_9quicksortB1d_NCINvMNtCse1nGBsou5OW_5alloc5sliceSB1d_7sort_byNCIB1f_ReEs0_0E0E0ECsbGvsTGsJZQm_18build_script_build, symObjAddr: 0x78, symBinAddr: 0x10000C3B0, symSize: 0x398 }
  - { offset: 0x29A85, size: 0x8, addend: 0x0, symName: __RINvNtNtNtNtCsfvfooZQ3Axs_4core5slice4sort6stable9quicksort16stable_partitionNtNvCsgq90m4oCT4f_13phf_generator17try_generate_hash6BucketNCINvMNtCse1nGBsou5OW_5alloc5sliceSB1d_7sort_byNCIB1f_ReEs0_0E0ECsbGvsTGsJZQm_18build_script_build, symObjAddr: 0x410, symBinAddr: 0x10000C748, symSize: 0x398 }
  - { offset: 0x29EAF, size: 0x8, addend: 0x0, symName: __RINvNtNtNtNtCsfvfooZQ3Axs_4core5slice4sort6stable9quicksort9quicksortNtNvCsgq90m4oCT4f_13phf_generator17try_generate_hash6BucketNCINvMNtCse1nGBsou5OW_5alloc5sliceSB15_7sort_byNCIB17_ReEs0_0E0ECsbGvsTGsJZQm_18build_script_build, symObjAddr: 0x7A8, symBinAddr: 0x10000CAE0, symSize: 0x3B8 }
  - { offset: 0x2A147, size: 0x8, addend: 0x0, symName: __RNCINvNtNtNtNtCsfvfooZQ3Axs_4core5slice4sort6stable9quicksort9quicksortNtNvCsgq90m4oCT4f_13phf_generator17try_generate_hash6BucketNCINvMNtCse1nGBsou5OW_5alloc5sliceSB17_7sort_byNCIB19_ReEs0_0E0E0CsbGvsTGsJZQm_18build_script_build, symObjAddr: 0xDA0, symBinAddr: 0x10000D0D8, symSize: 0x48 }
  - { offset: 0x2A50C, size: 0x8, addend: 0x0, symName: __RINvYINtNtNtCsg10Tkzhqh8d_4rand13distributions12distribution8DistIterNtB8_8StandardNtNtNtBa_4rngs5small8SmallRngyENtNtNtNtCsfvfooZQ3Axs_4core4iter6traits8iterator8Iterator8find_mapNtCsgq90m4oCT4f_13phf_generator9HashStateNCINvB2U_13generate_hashReE0ECsbGvsTGsJZQm_18build_script_build, symObjAddr: 0xB60, symBinAddr: 0x10000CE98, symSize: 0xB4 }
  - { offset: 0x2A591, size: 0x8, addend: 0x0, symName: __RINvYINtNtNtCsg10Tkzhqh8d_4rand13distributions12distribution8DistIterNtB8_8StandardNtNtNtBa_4rngs5small8SmallRngyENtNtNtNtCsfvfooZQ3Axs_4core4iter6traits8iterator8Iterator8try_folduNCINvNvB1O_8find_map5checkyNtCsgq90m4oCT4f_13phf_generator9HashStateNCINvB3m_13generate_hashReE0E0INtNtNtB1W_3ops12control_flow11ControlFlowB3k_EECsbGvsTGsJZQm_18build_script_build, symObjAddr: 0xC14, symBinAddr: 0x10000CF4C, symSize: 0x18C }
  - { offset: 0x2AB60, size: 0x8, addend: 0x0, symName: __RNvXNtNtCsfvfooZQ3Axs_4core3ops12control_flowINtB2_11ControlFlowNtCsgq90m4oCT4f_13phf_generator9HashStateENtNtB4_9try_trait3Try11from_outputCsbGvsTGsJZQm_18build_script_build, symObjAddr: 0x19D4, symBinAddr: 0x10000DD08, symSize: 0x18 }
  - { offset: 0x2AB9E, size: 0x8, addend: 0x0, symName: __RNvXNtNtCsfvfooZQ3Axs_4core3ops12control_flowINtB2_11ControlFlowNtCsgq90m4oCT4f_13phf_generator9HashStateENtNtB4_9try_trait3Try6branchCsbGvsTGsJZQm_18build_script_build, symObjAddr: 0x19EC, symBinAddr: 0x10000DD20, symSize: 0x8C }
  - { offset: 0x2AC1D, size: 0x8, addend: 0x0, symName: __RNvXs_NtNtCsfvfooZQ3Axs_4core3ops12control_flowINtB4_11ControlFlowNtCsgq90m4oCT4f_13phf_generator9HashStateEINtNtB6_9try_trait12FromResidualIBK_B12_NtNtB8_7convert10InfallibleEE13from_residualCsbGvsTGsJZQm_18build_script_build, symObjAddr: 0x23EC, symBinAddr: 0x10000E720, symSize: 0x48 }
  - { offset: 0x2B00D, size: 0x8, addend: 0x0, symName: __RNvMNtCsfvfooZQ3Axs_4core3stre20make_ascii_lowercaseCsbGvsTGsJZQm_18build_script_build, symObjAddr: 0xDE8, symBinAddr: 0x10000D120, symSize: 0xF8 }
  - { offset: 0x2B0DE, size: 0x8, addend: 0x0, symName: __RNvMNtCsfvfooZQ3Axs_4core3stre3lenCsbGvsTGsJZQm_18build_script_build, symObjAddr: 0xEE0, symBinAddr: 0x10000D218, symSize: 0x1C }
  - { offset: 0x2B28E, size: 0x8, addend: 0x0, symName: __RNvNtNtCsfvfooZQ3Axs_4core4hash3sip9u8to64_leCsbGvsTGsJZQm_18build_script_build, symObjAddr: 0x1404, symBinAddr: 0x10000D738, symSize: 0x228 }
  - { offset: 0x2B44B, size: 0x8, addend: 0x0, symName: __RNvXs3_NtNtCsfvfooZQ3Axs_4core4hash3sipINtB5_6HasherNtB5_11Sip13RoundsENtB7_6Hasher5writeCsbGvsTGsJZQm_18build_script_build, symObjAddr: 0x1AC8, symBinAddr: 0x10000DDFC, symSize: 0x230 }
  - { offset: 0x2B5C1, size: 0x8, addend: 0x0, symName: __RNvXs3_NtNtCsfvfooZQ3Axs_4core4hash3sipINtB5_6HasherNtB5_11Sip13RoundsENtB7_6Hasher6finishCsbGvsTGsJZQm_18build_script_build, symObjAddr: 0x1CF8, symBinAddr: 0x10000E02C, symSize: 0xA0 }
  - { offset: 0x2B634, size: 0x8, addend: 0x0, symName: __RNvXs3_NtNtCsfvfooZQ3Axs_4core4hash3sipINtB5_6HasherNtB5_11Sip13RoundsENtB7_6Hasher9write_strCsbGvsTGsJZQm_18build_script_build, symObjAddr: 0x1D98, symBinAddr: 0x10000E0CC, symSize: 0x5C }
  - { offset: 0x2B69A, size: 0x8, addend: 0x0, symName: __RNvXs6_NtNtCsfvfooZQ3Axs_4core4hash3sipNtB5_11Sip13RoundsNtB5_3Sip8c_roundsCsbGvsTGsJZQm_18build_script_build, symObjAddr: 0x1E74, symBinAddr: 0x10000E1A8, symSize: 0x170 }
  - { offset: 0x2B810, size: 0x8, addend: 0x0, symName: __RNvXs6_NtNtCsfvfooZQ3Axs_4core4hash3sipNtB5_11Sip13RoundsNtB5_3Sip8d_roundsCsbGvsTGsJZQm_18build_script_build, symObjAddr: 0x1FE4, symBinAddr: 0x10000E318, symSize: 0x408 }
  - { offset: 0x2C084, size: 0x8, addend: 0x0, symName: __RNvXs4_NtNtNtCscOYdFFY2T5N_3std2io8buffered9bufreaderINtB5_9BufReaderNtNtBb_2fs4FileENtB9_7BufRead7consumeCsbGvsTGsJZQm_18build_script_build, symObjAddr: 0x1DF4, symBinAddr: 0x10000E128, symSize: 0x54 }
  - { offset: 0x2C111, size: 0x8, addend: 0x0, symName: __RNvXs4_NtNtNtCscOYdFFY2T5N_3std2io8buffered9bufreaderINtB5_9BufReaderNtNtBb_2fs4FileENtB9_7BufRead8fill_bufCsbGvsTGsJZQm_18build_script_build, symObjAddr: 0x1E48, symBinAddr: 0x10000E17C, symSize: 0x2C }
  - { offset: 0x2C150, size: 0x8, addend: 0x0, symName: __RNvYINtNtNtNtCscOYdFFY2T5N_3std2io8buffered9bufreader9BufReaderNtNtBb_2fs4FileENtB9_7BufRead5linesCsbGvsTGsJZQm_18build_script_build, symObjAddr: 0x2434, symBinAddr: 0x10000E768, symSize: 0x30 }
  - { offset: 0x2C188, size: 0x8, addend: 0x0, symName: __RNvYINtNtNtNtCscOYdFFY2T5N_3std2io8buffered9bufreader9BufReaderNtNtBb_2fs4FileENtB9_7BufRead9read_lineCsbGvsTGsJZQm_18build_script_build, symObjAddr: 0x2464, symBinAddr: 0x10000E798, symSize: 0x38 }
  - { offset: 0x2C72A, size: 0x8, addend: 0x0, symName: __RNvXs2_NtCse1nGBsou5OW_5alloc3streNtNtB7_6borrow7ToOwned8to_ownedCsbGvsTGsJZQm_18build_script_build, symObjAddr: 0x1A78, symBinAddr: 0x10000DDAC, symSize: 0x50 }
  - { offset: 0x2C81D, size: 0x8, addend: 0x0, symName: __RNvMs3_NtCse1nGBsou5OW_5alloc3stre18to_ascii_lowercaseCsbGvsTGsJZQm_18build_script_build, symObjAddr: 0x1318, symBinAddr: 0x10000D650, symSize: 0xE8 }
  - { offset: 0x2CFB5, size: 0x8, addend: 0x0, symName: __RNvMNtCsfvfooZQ3Axs_4core6optionINtB2_6OptionINtNtB4_4cell4CellTyyEEE4takeCsbGvsTGsJZQm_18build_script_build, symObjAddr: 0xEFC, symBinAddr: 0x10000D234, symSize: 0x3C }
  - { offset: 0x2D048, size: 0x8, addend: 0x0, symName: __RNvMNtCsfvfooZQ3Axs_4core6optionINtB2_6OptionNtCsgq90m4oCT4f_13phf_generator9HashStateE6expectCsbGvsTGsJZQm_18build_script_build, symObjAddr: 0xF38, symBinAddr: 0x10000D270, symSize: 0x70 }
  - { offset: 0x2D0D2, size: 0x8, addend: 0x0, symName: __RNvMNtNtNtCscOYdFFY2T5N_3std2io8buffered9bufreaderINtB2_9BufReaderNtNtB8_2fs4FileE13with_capacityCsbGvsTGsJZQm_18build_script_build, symObjAddr: 0xFA8, symBinAddr: 0x10000D2E0, symSize: 0xA8 }
  - { offset: 0x2D136, size: 0x8, addend: 0x0, symName: __RNvMNtNtNtCscOYdFFY2T5N_3std2io8buffered9bufreaderINtB2_9BufReaderNtNtB8_2fs4FileE3newCsbGvsTGsJZQm_18build_script_build, symObjAddr: 0x1050, symBinAddr: 0x10000D388, symSize: 0x2C }
  - { offset: 0x2D161, size: 0x8, addend: 0x0, symName: __RNvMNtNtNtCsfvfooZQ3Axs_4core4iter8adapters7step_byINtB2_6StepByINtNtNtB8_3ops5range5RangejEE3newCsbGvsTGsJZQm_18build_script_build, symObjAddr: 0x107C, symBinAddr: 0x10000D3B4, symSize: 0xE0 }
  - { offset: 0x2D1C4, size: 0x8, addend: 0x0, symName: __RNvMNtNtNtNtCsfvfooZQ3Axs_4core5slice4sort6stable9quicksortINtB2_14PartitionStateNtNvCsgq90m4oCT4f_13phf_generator17try_generate_hash6BucketE13partition_oneCsbGvsTGsJZQm_18build_script_build, symObjAddr: 0x115C, symBinAddr: 0x10000D494, symSize: 0x130 }
  - { offset: 0x2D2BA, size: 0x8, addend: 0x0, symName: __RNvMs0_NtNtCsfvfooZQ3Axs_4core4hash3sipINtB5_6HasherNtB5_11Sip13RoundsE5resetCsbGvsTGsJZQm_18build_script_build, symObjAddr: 0x128C, symBinAddr: 0x10000D5C4, symSize: 0x8C }
  - { offset: 0x2D57E, size: 0x8, addend: 0x0, symName: __RINvCsgq90m4oCT4f_13phf_generator13generate_hashReECsbGvsTGsJZQm_18build_script_build, symObjAddr: 0x0, symBinAddr: 0x10000E7D0, symSize: 0x9C }
  - { offset: 0x2D837, size: 0x8, addend: 0x0, symName: __RNvYNtNtCscOYdFFY2T5N_3std2fs4FileNtNtB6_2io5Write9write_fmtCsbGvsTGsJZQm_18build_script_build, symObjAddr: 0x2970, symBinAddr: 0x100010EDC, symSize: 0x128 }
  - { offset: 0x2D8F1, size: 0x8, addend: 0x0, symName: __RNvXNtNtCscOYdFFY2T5N_3std2io5implsQNtNtB6_2fs4FileNtB4_4Read8read_bufCsbGvsTGsJZQm_18build_script_build, symObjAddr: 0x23E4, symBinAddr: 0x100010950, symSize: 0x34 }
  - { offset: 0x2DA85, size: 0x8, addend: 0x0, symName: __RNvXsX_NtNtCscOYdFFY2T5N_3std3ffi6os_strNtNtCse1nGBsou5OW_5alloc6string6StringINtNtCsfvfooZQ3Axs_4core7convert5AsRefNtB5_5OsStrE6as_refCsbGvsTGsJZQm_18build_script_build, symObjAddr: 0x2774, symBinAddr: 0x100010CE0, symSize: 0x78 }
  - { offset: 0x2DEB5, size: 0x8, addend: 0x0, symName: __RINvXNtNtNtNtCscOYdFFY2T5N_3std3sys12thread_local6native4lazyzNtB3_14DestroyedState13register_dtorINtNtCsfvfooZQ3Axs_4core4cell4CellTyyEEECsbGvsTGsJZQm_18build_script_build, symObjAddr: 0x16C4, symBinAddr: 0x10000FC30, symSize: 0x10 }
  - { offset: 0x2DEEB, size: 0x8, addend: 0x0, symName: __RINvNtNtCscOYdFFY2T5N_3std3sys9backtrace28___rust_begin_short_backtraceFEuuECsbGvsTGsJZQm_18build_script_build, symObjAddr: 0x105C, symBinAddr: 0x10000F5C8, symSize: 0x24 }
  - { offset: 0x2E267, size: 0x8, addend: 0x0, symName: __RINvXs1n_NtNtNtCscOYdFFY2T5N_3std11collections4hash3mapINtB7_7HashMapReTmmEEINtNtNtNtCsfvfooZQ3Axs_4core4iter6traits7collect12FromIteratorTB15_B17_EE9from_iterINtNtNtB1j_8adapters3map3MapINtNtNtB1l_5slice4iter4IterTB15_mmEENCNvCsbGvsTGsJZQm_18build_script_build21named_entities_to_phf0EEB3D_, symObjAddr: 0x16D4, symBinAddr: 0x10000FC40, symSize: 0x130 }
  - { offset: 0x2E530, size: 0x8, addend: 0x0, symName: __RNvXsI_NtNtNtCscOYdFFY2T5N_3std11collections4hash3mapINtB5_7HashMapReTmmEENtNtNtNtCsfvfooZQ3Axs_4core4iter6traits7collect12IntoIterator9into_iterCsbGvsTGsJZQm_18build_script_build, symObjAddr: 0x25F4, symBinAddr: 0x100010B60, symSize: 0x58 }
  - { offset: 0x2E580, size: 0x8, addend: 0x0, symName: __RNvXsQ_NtNtNtCscOYdFFY2T5N_3std11collections4hash3mapINtB5_8IntoIterReTmmEENtNtNtNtCsfvfooZQ3Axs_4core4iter6traits8iterator8Iterator4nextCsbGvsTGsJZQm_18build_script_build, symObjAddr: 0x269C, symBinAddr: 0x100010C08, symSize: 0x2C }
  - { offset: 0x2E64B, size: 0x8, addend: 0x0, symName: __RNvXsU_NtNtNtCscOYdFFY2T5N_3std11collections4hash3mapINtB5_4KeysReTmmEENtNtNtNtCsfvfooZQ3Axs_4core4iter6traits8iterator8Iterator4nextCsbGvsTGsJZQm_18build_script_build, symObjAddr: 0x26C8, symBinAddr: 0x100010C34, symSize: 0x6C }
  - { offset: 0x2E6EB, size: 0x8, addend: 0x0, symName: __RNvXsU_NtNtNtCscOYdFFY2T5N_3std11collections4hash3mapINtB5_4KeysReTmmEENtNtNtNtCsfvfooZQ3Axs_4core4iter6traits8iterator8Iterator9size_hintCsbGvsTGsJZQm_18build_script_build, symObjAddr: 0x2734, symBinAddr: 0x100010CA0, symSize: 0x40 }
  - { offset: 0x2F961, size: 0x8, addend: 0x0, symName: __RNvXs1c_NtCsfvfooZQ3Axs_4core3fmtRNtNtCse1nGBsou5OW_5alloc6string6StringNtB6_7Display3fmtCsbGvsTGsJZQm_18build_script_build, symObjAddr: 0x24D8, symBinAddr: 0x100010A44, symSize: 0x30 }
  - { offset: 0x30781, size: 0x8, addend: 0x0, symName: __RINvNtNtNtNtCsfvfooZQ3Axs_4core5slice4sort6shared5pivot11median3_recNtNvCsgq90m4oCT4f_13phf_generator17try_generate_hash6BucketNCINvMNtCse1nGBsou5OW_5alloc5sliceSB14_7sort_byNCIB16_ReEs0_0E0ECsbGvsTGsJZQm_18build_script_build, symObjAddr: 0x1080, symBinAddr: 0x10000F5EC, symSize: 0x1CC }
  - { offset: 0x3097B, size: 0x8, addend: 0x0, symName: __RINvNtNtNtNtCsfvfooZQ3Axs_4core5slice4sort6shared5pivot12choose_pivotNtNvCsgq90m4oCT4f_13phf_generator17try_generate_hash6BucketNCINvMNtCse1nGBsou5OW_5alloc5sliceSB15_7sort_byNCIB17_ReEs0_0E0ECsbGvsTGsJZQm_18build_script_build, symObjAddr: 0x124C, symBinAddr: 0x10000F7B8, symSize: 0x1F8 }
  - { offset: 0x30BD8, size: 0x8, addend: 0x0, symName: __RNvXs0_NtNtNtNtCsfvfooZQ3Axs_4core5slice4sort6stable9quicksortNtNvCsgq90m4oCT4f_13phf_generator17try_generate_hash6BucketNtB5_8IsFreeze9is_freezeCsbGvsTGsJZQm_18build_script_build, symObjAddr: 0x2430, symBinAddr: 0x10001099C, symSize: 0xC }
  - { offset: 0x30CB8, size: 0x8, addend: 0x0, symName: __RINvNvMNtCsfvfooZQ3Axs_4core5sliceSp7reverse7revswapNtNvCsgq90m4oCT4f_13phf_generator17try_generate_hash6BucketECsbGvsTGsJZQm_18build_script_build, symObjAddr: 0x1444, symBinAddr: 0x10000F9B0, symSize: 0x280 }
  - { offset: 0x30E6A, size: 0x8, addend: 0x0, symName: __RNvMNtCsfvfooZQ3Axs_4core5sliceSNtNvCsgq90m4oCT4f_13phf_generator17try_generate_hash6Bucket22split_at_mut_uncheckedCsbGvsTGsJZQm_18build_script_build, symObjAddr: 0x1C3C, symBinAddr: 0x1000101A8, symSize: 0xF0 }
  - { offset: 0x3100A, size: 0x8, addend: 0x0, symName: __RNvMNtCsfvfooZQ3Axs_4core5sliceSNtNvCsgq90m4oCT4f_13phf_generator17try_generate_hash6Bucket7reverseCsbGvsTGsJZQm_18build_script_build, symObjAddr: 0x1D2C, symBinAddr: 0x100010298, symSize: 0x104 }
  - { offset: 0x3119A, size: 0x8, addend: 0x0, symName: __RNvMNtCsfvfooZQ3Axs_4core5sliceSTReBv_E4iterCsbGvsTGsJZQm_18build_script_build, symObjAddr: 0x1E30, symBinAddr: 0x10001039C, symSize: 0x28 }
  - { offset: 0x311D1, size: 0x8, addend: 0x0, symName: __RNvMNtCsfvfooZQ3Axs_4core5sliceSTRemmE4iterCsbGvsTGsJZQm_18build_script_build, symObjAddr: 0x1E58, symBinAddr: 0x1000103C4, symSize: 0x28 }
  - { offset: 0x3120D, size: 0x8, addend: 0x0, symName: __RNvNvMNtCsfvfooZQ3Axs_4core5sliceSp22split_at_mut_unchecked18precondition_checkCsbGvsTGsJZQm_18build_script_build, symObjAddr: 0x22F4, symBinAddr: 0x100010860, symSize: 0x40 }
  - { offset: 0x31543, size: 0x8, addend: 0x0, symName: __RNvNtNtCsfvfooZQ3Axs_4core5slice6memchr6memchrCsbGvsTGsJZQm_18build_script_build, symObjAddr: 0x21E0, symBinAddr: 0x10001074C, symSize: 0x114 }
  - { offset: 0x316A6, size: 0x8, addend: 0x0, symName: __RNvXs_NtNtNtCsfvfooZQ3Axs_4core4iter8adapters9enumerateINtB4_9EnumerateINtNtNtBa_5slice4iter4IterNtCsbvn0pgfta96_10phf_shared6HashesEENtNtNtB8_6traits8iterator8Iterator4nextCsbGvsTGsJZQm_18build_script_build, symObjAddr: 0x27EC, symBinAddr: 0x100010D58, symSize: 0xE0 }
  - { offset: 0x317BC, size: 0x8, addend: 0x0, symName: __RINvYINtNtNtNtCscOYdFFY2T5N_3std11collections4hash3map4KeysReTmmEENtNtNtNtCsfvfooZQ3Axs_4core4iter6traits8iterator8Iterator6clonedBV_ECsbGvsTGsJZQm_18build_script_build, symObjAddr: 0x1804, symBinAddr: 0x10000FD70, symSize: 0x30 }
  - { offset: 0x31845, size: 0x8, addend: 0x0, symName: __RNvXNtNtNtCsfvfooZQ3Axs_4core4iter6traits7collectINtNtNtB6_8adapters9enumerate9EnumerateINtNtNtB8_5slice4iter4IterNtCsbvn0pgfta96_10phf_shared6HashesEENtB2_12IntoIterator9into_iterCsbGvsTGsJZQm_18build_script_build, symObjAddr: 0x2418, symBinAddr: 0x100010984, symSize: 0x18 }
  - { offset: 0x31889, size: 0x8, addend: 0x0, symName: __RNvXsF_NtNtCsfvfooZQ3Axs_4core4iter5rangejNtB5_4Step13steps_betweenCsbGvsTGsJZQm_18build_script_build, symObjAddr: 0x2508, symBinAddr: 0x100010A74, symSize: 0xA4 }
  - { offset: 0x318E4, size: 0x8, addend: 0x0, symName: __RNvXsF_NtNtCsfvfooZQ3Axs_4core4iter5rangejNtB5_4Step17forward_uncheckedCsbGvsTGsJZQm_18build_script_build, symObjAddr: 0x25AC, symBinAddr: 0x100010B18, symSize: 0x48 }
  - { offset: 0x31C63, size: 0x8, addend: 0x0, symName: __RNvXNtCsfvfooZQ3Axs_4core7convertReINtB2_5AsRefNtNtCscOYdFFY2T5N_3std4path4PathE6as_refCsbGvsTGsJZQm_18build_script_build, symObjAddr: 0x235C, symBinAddr: 0x1000108C8, symSize: 0x30 }
  - { offset: 0x31CA3, size: 0x8, addend: 0x0, symName: __RNvXNtCsfvfooZQ3Axs_4core7convertReINtB2_5AsRefNtNtNtCscOYdFFY2T5N_3std3ffi6os_str5OsStrE6as_refCsbGvsTGsJZQm_18build_script_build, symObjAddr: 0x238C, symBinAddr: 0x1000108F8, symSize: 0x30 }
  - { offset: 0x31CE3, size: 0x8, addend: 0x0, symName: __RNvXNtCsfvfooZQ3Axs_4core7convertReINtB2_5AsRefeE6as_refCsbGvsTGsJZQm_18build_script_build, symObjAddr: 0x23BC, symBinAddr: 0x100010928, symSize: 0x28 }
  - { offset: 0x31D2F, size: 0x8, addend: 0x0, symName: __RNvXNtCsfvfooZQ3Axs_4core6borrowRReINtB2_6BorrowBu_E6borrowCsbGvsTGsJZQm_18build_script_build, symObjAddr: 0x2334, symBinAddr: 0x1000108A0, symSize: 0x14 }
  - { offset: 0x31D64, size: 0x8, addend: 0x0, symName: __RNvXNtCsfvfooZQ3Axs_4core6borrowReINtB2_6BorrowBu_E6borrowCsbGvsTGsJZQm_18build_script_build, symObjAddr: 0x2348, symBinAddr: 0x1000108B4, symSize: 0x14 }
  - { offset: 0x32307, size: 0x8, addend: 0x0, symName: __RNvXs1_NtCse1nGBsou5OW_5alloc7raw_vecINtB5_6RawVecNtCsbvn0pgfta96_10phf_shared6HashesENtNtNtCsfvfooZQ3Axs_4core3ops4drop4Drop4dropCsbGvsTGsJZQm_18build_script_build, symObjAddr: 0x243C, symBinAddr: 0x1000109A8, symSize: 0x34 }
  - { offset: 0x32343, size: 0x8, addend: 0x0, symName: __RNvXs1_NtCse1nGBsou5OW_5alloc7raw_vecINtB5_6RawVecNtNtB7_6string6StringENtNtNtCsfvfooZQ3Axs_4core3ops4drop4Drop4dropCsbGvsTGsJZQm_18build_script_build, symObjAddr: 0x2470, symBinAddr: 0x1000109DC, symSize: 0x34 }
  - { offset: 0x3237F, size: 0x8, addend: 0x0, symName: __RNvXs1_NtCse1nGBsou5OW_5alloc7raw_vecINtB5_6RawVecNtNvCsgq90m4oCT4f_13phf_generator17try_generate_hash6BucketENtNtNtCsfvfooZQ3Axs_4core3ops4drop4Drop4dropCsbGvsTGsJZQm_18build_script_build, symObjAddr: 0x24A4, symBinAddr: 0x100010A10, symSize: 0x34 }
  - { offset: 0x3255F, size: 0x8, addend: 0x0, symName: __RINvMNtCse1nGBsou5OW_5alloc5sliceSNtNvCsgq90m4oCT4f_13phf_generator17try_generate_hash6Bucket7sort_byNCIBy_ReEs0_0ECsbGvsTGsJZQm_18build_script_build, symObjAddr: 0xCEC, symBinAddr: 0x10000F4BC, symSize: 0x48 }
  - { offset: 0x3277D, size: 0x8, addend: 0x0, symName: __RNvXss_NtCse1nGBsou5OW_5alloc6stringNtB5_6StringNtNtNtCsfvfooZQ3Axs_4core3ops5deref5Deref5derefCsbGvsTGsJZQm_18build_script_build, symObjAddr: 0x294C, symBinAddr: 0x100010EB8, symSize: 0x24 }
  - { offset: 0x327B1, size: 0x8, addend: 0x0, symName: __RNvXsJ_NtCse1nGBsou5OW_5alloc6stringNtB5_6StringINtNtCsfvfooZQ3Axs_4core7convert4FromReE4fromCsbGvsTGsJZQm_18build_script_build, symObjAddr: 0x264C, symBinAddr: 0x100010BB8, symSize: 0x50 }
  - { offset: 0x328C4, size: 0x8, addend: 0x0, symName: __RNvXsl_NtCse1nGBsou5OW_5alloc6stringNtB5_6StringNtNtCsfvfooZQ3Axs_4core3fmt7Display3fmtCsbGvsTGsJZQm_18build_script_build, symObjAddr: 0x28CC, symBinAddr: 0x100010E38, symSize: 0x80 }
  - { offset: 0x32C1C, size: 0x8, addend: 0x0, symName: __RNvCsbGvsTGsJZQm_18build_script_build10NAMESPACES, symObjAddr: 0x8E48, symBinAddr: 0x1000F0970, symSize: 0x0 }
  - { offset: 0x32C35, size: 0x8, addend: 0x0, symName: __RNCNvCsbGvsTGsJZQm_18build_script_build21named_entities_to_phf0B3_, symObjAddr: 0x41A4, symBinAddr: 0x100012710, symSize: 0xD8 }
  - { offset: 0x32C9B, size: 0x8, addend: 0x0, symName: __RNvCsbGvsTGsJZQm_18build_script_build4main, symObjAddr: 0x2A98, symBinAddr: 0x100011004, symSize: 0xF48 }
  - { offset: 0x3300A, size: 0x8, addend: 0x0, symName: __RNCNvCsbGvsTGsJZQm_18build_script_build4main0B3_, symObjAddr: 0x39E0, symBinAddr: 0x100011F4C, symSize: 0x4C }
  - { offset: 0x3303C, size: 0x8, addend: 0x0, symName: __RNCNvCsbGvsTGsJZQm_18build_script_build4mains_0B3_, symObjAddr: 0x3A2C, symBinAddr: 0x100011F98, symSize: 0x48 }
  - { offset: 0x3307D, size: 0x8, addend: 0x0, symName: __RNvCsbGvsTGsJZQm_18build_script_build21named_entities_to_phf, symObjAddr: 0x3A74, symBinAddr: 0x100011FE0, symSize: 0x730 }
  - { offset: 0x33291, size: 0x8, addend: 0x0, symName: __RINvCsgq90m4oCT4f_13phf_generator13generate_hashReECsbGvsTGsJZQm_18build_script_build, symObjAddr: 0x0, symBinAddr: 0x10000E7D0, symSize: 0x9C }
  - { offset: 0x332C6, size: 0x8, addend: 0x0, symName: __RINvCsgq90m4oCT4f_13phf_generator17try_generate_hashReECsbGvsTGsJZQm_18build_script_build, symObjAddr: 0x9C, symBinAddr: 0x10000E86C, symSize: 0xAE0 }
  - { offset: 0x3353E, size: 0x8, addend: 0x0, symName: __RNCINvCsgq90m4oCT4f_13phf_generator17try_generate_hashReE0CsbGvsTGsJZQm_18build_script_build, symObjAddr: 0x187C, symBinAddr: 0x10000FDE8, symSize: 0x48 }
  - { offset: 0x33584, size: 0x8, addend: 0x0, symName: __RNCINvCsgq90m4oCT4f_13phf_generator17try_generate_hashReEs0_0CsbGvsTGsJZQm_18build_script_build, symObjAddr: 0x18C4, symBinAddr: 0x10000FE30, symSize: 0x78 }
  - { offset: 0x335D1, size: 0x8, addend: 0x0, symName: __RNCINvCsgq90m4oCT4f_13phf_generator17try_generate_hashReEs1_0CsbGvsTGsJZQm_18build_script_build, symObjAddr: 0x193C, symBinAddr: 0x10000FEA8, symSize: 0x5C }
  - { offset: 0x3362D, size: 0x8, addend: 0x0, symName: __RNCINvCsgq90m4oCT4f_13phf_generator17try_generate_hashReEs_0CsbGvsTGsJZQm_18build_script_build, symObjAddr: 0x1998, symBinAddr: 0x10000FF04, symSize: 0x5C }
  - { offset: 0x33680, size: 0x8, addend: 0x0, symName: __RNCINvCsgq90m4oCT4f_13phf_generator13generate_hashReE0CsbGvsTGsJZQm_18build_script_build, symObjAddr: 0x1834, symBinAddr: 0x10000FDA0, symSize: 0x48 }
  - { offset: 0x33763, size: 0x8, addend: 0x0, symName: __RINvMNtCscOYdFFY2T5N_3std2fsNtB3_4File4openRNtNtB5_4path7PathBufECsbGvsTGsJZQm_18build_script_build, symObjAddr: 0xB7C, symBinAddr: 0x10000F34C, symSize: 0xB0 }
  - { offset: 0x3386B, size: 0x8, addend: 0x0, symName: __RINvMNtCscOYdFFY2T5N_3std2fsNtB3_4File6createRNtNtB5_4path7PathBufECsbGvsTGsJZQm_18build_script_build, symObjAddr: 0xC2C, symBinAddr: 0x10000F3FC, symSize: 0xC0 }
  - { offset: 0x33A9E, size: 0x8, addend: 0x0, symName: __RINvMs0_NtNtNtNtCscOYdFFY2T5N_3std3sys12thread_local6native4lazyINtB6_7StorageINtNtCsfvfooZQ3Axs_4core4cell4CellTyyEEzE10initializeNvNvNvMNtNtBe_4hash6randomNtB2c_11RandomState3new4KEYS6___initECsbGvsTGsJZQm_18build_script_build, symObjAddr: 0xD34, symBinAddr: 0x1000A3220, symSize: 0x264 }
  - { offset: 0x33CF2, size: 0x8, addend: 0x0, symName: __RINvMs0_NtNtNtNtCscOYdFFY2T5N_3std3sys12thread_local6native4lazyINtB6_7StorageINtNtCsfvfooZQ3Axs_4core4cell4CellTyyEEzE11get_or_initNvNvNvMNtNtBe_4hash6randomNtB2d_11RandomState3new4KEYS6___initECsbGvsTGsJZQm_18build_script_build, symObjAddr: 0xF98, symBinAddr: 0x10000F504, symSize: 0xC4 }
  - { offset: 0x34913, size: 0x8, addend: 0x0, symName: __RNvMNtCse1nGBsou5OW_5alloc6stringNtB2_6String3popCsbGvsTGsJZQm_18build_script_build, symObjAddr: 0x19F4, symBinAddr: 0x10000FF60, symSize: 0x1B4 }
  - { offset: 0x34D81, size: 0x8, addend: 0x0, symName: __RNvMNtCse1nGBsou5OW_5alloc6stringNtB2_6String6as_strCsbGvsTGsJZQm_18build_script_build, symObjAddr: 0x1BA8, symBinAddr: 0x100010114, symSize: 0x70 }
  - { offset: 0x34E8A, size: 0x8, addend: 0x0, symName: __RNvMNtCse1nGBsou5OW_5alloc6stringNtB2_6String8as_bytesCsbGvsTGsJZQm_18build_script_build, symObjAddr: 0x1C18, symBinAddr: 0x100010184, symSize: 0x24 }
  - { offset: 0x34EF6, size: 0x8, addend: 0x0, symName: __RNvMNtNtNtCscOYdFFY2T5N_3std11collections4hash3setINtB2_7HashSetRReE3newCsbGvsTGsJZQm_18build_script_build, symObjAddr: 0x1E80, symBinAddr: 0x1000103EC, symSize: 0x54 }
  - { offset: 0x34F4A, size: 0x8, addend: 0x0, symName: __RNvMs0_NtNtNtCscOYdFFY2T5N_3std11collections4hash3mapINtB5_7HashMapReTmmEE5entryCsbGvsTGsJZQm_18build_script_build, symObjAddr: 0x1ED4, symBinAddr: 0x100010440, symSize: 0xA8 }
  - { offset: 0x34FE1, size: 0x8, addend: 0x0, symName: __RNvMs0_NtNtNtCscOYdFFY2T5N_3std11collections4hash3mapINtB5_7HashMapReTmmEE6insertCsbGvsTGsJZQm_18build_script_build, symObjAddr: 0x1F7C, symBinAddr: 0x1000104E8, symSize: 0x38 }
  - { offset: 0x350D6, size: 0x8, addend: 0x0, symName: __RNvMs0_NtNtNtCscOYdFFY2T5N_3std11collections4hash3setINtB5_7HashSetRReE6insertCsbGvsTGsJZQm_18build_script_build, symObjAddr: 0x1FB4, symBinAddr: 0x100010520, symSize: 0x50 }
  - { offset: 0x352D2, size: 0x8, addend: 0x0, symName: __RNvMs1j_NtNtNtCscOYdFFY2T5N_3std11collections4hash3mapINtB6_5EntryReTmmEE9or_insertCsbGvsTGsJZQm_18build_script_build, symObjAddr: 0x2004, symBinAddr: 0x100010570, symSize: 0x180 }
  - { offset: 0x354E2, size: 0x8, addend: 0x0, symName: __RNvMs_NtNtNtCscOYdFFY2T5N_3std11collections4hash3mapINtB4_7HashMapReTmmEE4keysCsbGvsTGsJZQm_18build_script_build, symObjAddr: 0x2184, symBinAddr: 0x1000106F0, symSize: 0x5C }
  - { offset: 0x35C94, size: 0x8, addend: 0x0, symName: __RINvMCsdy4PFqiFpmx_20string_cache_codegenNtB3_8AtomType5atomsINtNtNtNtCsfvfooZQ3Axs_4core4iter8adapters3map3MapINtNtNtB16_5slice4iter4IterTReB2d_EENCNvCsbGvsTGsJZQm_18build_script_build4main0EEB2p_, symObjAddr: 0x0, symBinAddr: 0x100012814, symSize: 0x74 }
  - { offset: 0x36251, size: 0x8, addend: 0x0, symName: __RINvNtCscOYdFFY2T5N_3std3env3varReECsbGvsTGsJZQm_18build_script_build, symObjAddr: 0x834, symBinAddr: 0x100013048, symSize: 0x68 }
  - { offset: 0x3628B, size: 0x8, addend: 0x0, symName: __RNvXsk_NtCscOYdFFY2T5N_3std3envNtB5_8VarErrorNtNtCsfvfooZQ3Axs_4core3fmt5Debug3fmtCsbGvsTGsJZQm_18build_script_build, symObjAddr: 0x3330, symBinAddr: 0x100015B44, symSize: 0xA0 }
  - { offset: 0x3645E, size: 0x8, addend: 0x0, symName: __RNvXNvXsd_NtNtCse1nGBsou5OW_5alloc3vec9into_iterINtB8_8IntoIterppENtNtNtCsfvfooZQ3Axs_4core3ops4drop4Drop4dropINtB2_9DropGuardReNtNtBc_5alloc6GlobalEB12_4dropCsbGvsTGsJZQm_18build_script_build, symObjAddr: 0x1DB0, symBinAddr: 0x1000145C4, symSize: 0x7C }
  - { offset: 0x36594, size: 0x8, addend: 0x0, symName: __RNvXsd_NtNtCse1nGBsou5OW_5alloc3vec9into_iterINtB5_8IntoIterReENtNtNtCsfvfooZQ3Axs_4core3ops4drop4Drop4dropCsbGvsTGsJZQm_18build_script_build, symObjAddr: 0x2BE0, symBinAddr: 0x1000153F4, symSize: 0x8C }
  - { offset: 0x36634, size: 0x8, addend: 0x0, symName: __RNvXs3_NtNtCse1nGBsou5OW_5alloc3vec9into_iterINtB5_8IntoIterReENtNtNtNtCsfvfooZQ3Axs_4core4iter6traits8iterator8Iterator4nextCsbGvsTGsJZQm_18build_script_build, symObjAddr: 0x23C0, symBinAddr: 0x100014BD4, symSize: 0xB8 }
  - { offset: 0x367AD, size: 0x8, addend: 0x0, symName: __RNvXs3_NtNtCse1nGBsou5OW_5alloc3vec9into_iterINtB5_8IntoIterReENtNtNtNtCsfvfooZQ3Axs_4core4iter6traits8iterator8Iterator9size_hintCsbGvsTGsJZQm_18build_script_build, symObjAddr: 0x2478, symBinAddr: 0x100014C8C, symSize: 0x6C }
  - { offset: 0x36C48, size: 0x8, addend: 0x0, symName: __RNvXNtNtNtCse1nGBsou5OW_5alloc11collections5btree3mapINtB2_8BTreeMapNtNtB8_6string6StringNtNtB4_7set_val9SetValZSTENtNtNtCsfvfooZQ3Axs_4core3ops4drop4Drop4dropCsbGvsTGsJZQm_18build_script_build, symObjAddr: 0x1D50, symBinAddr: 0x100014564, symSize: 0x4C }
  - { offset: 0x36CD5, size: 0x8, addend: 0x0, symName: __RNvXNvXsw_NtNtNtCse1nGBsou5OW_5alloc11collections5btree3mapINtB8_8IntoIterpppENtNtNtCsfvfooZQ3Axs_4core3ops4drop4Drop4dropINtB2_9DropGuardNtNtBe_6string6StringNtNtBa_7set_val9SetValZSTNtNtBe_5alloc6GlobalEB1e_4dropCsbGvsTGsJZQm_18build_script_build, symObjAddr: 0x1E2C, symBinAddr: 0x100014640, symSize: 0x68 }
  - { offset: 0x36D6A, size: 0x8, addend: 0x0, symName: __RNvXsw_NtNtNtCse1nGBsou5OW_5alloc11collections5btree3mapINtB5_8IntoIterNtNtBb_6string6StringNtNtB7_7set_val9SetValZSTENtNtNtCsfvfooZQ3Axs_4core3ops4drop4Drop4dropCsbGvsTGsJZQm_18build_script_build, symObjAddr: 0x3564, symBinAddr: 0x100015D78, symSize: 0xA0 }
  - { offset: 0x36DE1, size: 0x8, addend: 0x0, symName: __RNvXsv_NtNtNtCse1nGBsou5OW_5alloc11collections5btree3mapINtB5_8BTreeMapNtNtBb_6string6StringNtNtB7_7set_val9SetValZSTENtNtNtNtCsfvfooZQ3Axs_4core4iter6traits7collect12IntoIterator9into_iterCsbGvsTGsJZQm_18build_script_build, symObjAddr: 0x33D0, symBinAddr: 0x100015BE4, symSize: 0x194 }
  - { offset: 0x37C0A, size: 0x8, addend: 0x0, symName: __RNvXs3N_NtNtCsfvfooZQ3Axs_4core3num8wrappingINtB6_8WrappingmENtNtNtBa_3ops5arith3Add3addCsbGvsTGsJZQm_18build_script_build, symObjAddr: 0x235C, symBinAddr: 0x100014B70, symSize: 0x18 }
  - { offset: 0x37C5E, size: 0x8, addend: 0x0, symName: __RNvXs3T_NtNtCsfvfooZQ3Axs_4core3num8wrappingINtB6_8WrappingmENtNtNtBa_3ops5arith3Mul3mulCsbGvsTGsJZQm_18build_script_build, symObjAddr: 0x2374, symBinAddr: 0x100014B88, symSize: 0x18 }
  - { offset: 0x3867C, size: 0x8, addend: 0x0, symName: __RNvXsh_NtNtNtCsfvfooZQ3Axs_4core4iter8adapters7step_byINtNtNtBb_3ops5range5RangejEINtB5_14SpecRangeSetupBQ_E5setupCsbGvsTGsJZQm_18build_script_build, symObjAddr: 0x3204, symBinAddr: 0x100015A18, symSize: 0x12C }
  - { offset: 0x3878E, size: 0x8, addend: 0x0, symName: __RINvYINtNtNtCse1nGBsou5OW_5alloc3vec9into_iter8IntoIterINtNtCsfvfooZQ3Axs_4core6option6OptionjEENtNtNtNtBW_4iter6traits8iterator8Iterator3mapjNCINvCsgq90m4oCT4f_13phf_generator17try_generate_hashReEs1_0ECsbGvsTGsJZQm_18build_script_build, symObjAddr: 0xB94, symBinAddr: 0x1000133A8, symSize: 0x1C }
  - { offset: 0x387FB, size: 0x8, addend: 0x0, symName: __RINvYINtNtNtCsfvfooZQ3Axs_4core3ops5range5RangejENtNtNtNtBa_4iter6traits8iterator8Iterator3mapNtNvCsgq90m4oCT4f_13phf_generator17try_generate_hash6BucketNCIB1w_ReEs_0ECsbGvsTGsJZQm_18build_script_build, symObjAddr: 0xBB0, symBinAddr: 0x1000133C4, symSize: 0x14 }
  - { offset: 0x38853, size: 0x8, addend: 0x0, symName: __RINvYINtNtNtCsfvfooZQ3Axs_4core3ops5range5RangejENtNtNtNtBa_4iter6traits8iterator8Iterator4folduNCINvNtNtBR_8adapters3map8map_foldjNtNvCsgq90m4oCT4f_13phf_generator17try_generate_hash6BucketuNCIB27_ReEs_0NCINvNvBL_8for_each4callB25_NCINvMsi_NtCse1nGBsou5OW_5alloc3vecINtB3R_3VecB25_E14extend_trustedINtB1B_3MapB3_B33_EE0E0E0ECsbGvsTGsJZQm_18build_script_build, symObjAddr: 0xBC4, symBinAddr: 0x1000133D8, symSize: 0xE0 }
  - { offset: 0x3890E, size: 0x8, addend: 0x0, symName: __RNvXNtNtNtCsfvfooZQ3Axs_4core4iter6traits7collectINtNtNtB8_3ops5range5RangejENtB2_12IntoIterator9into_iterCsbGvsTGsJZQm_18build_script_build, symObjAddr: 0x1D9C, symBinAddr: 0x1000145B0, symSize: 0x14 }
  - { offset: 0x3897C, size: 0x8, addend: 0x0, symName: __RNvYINtNtNtCse1nGBsou5OW_5alloc3vec9into_iter8IntoIterReENtNtNtNtCsfvfooZQ3Axs_4core4iter6traits10exact_size17ExactSizeIterator3lenCsbGvsTGsJZQm_18build_script_build, symObjAddr: 0x3604, symBinAddr: 0x100015E18, symSize: 0xF4 }
  - { offset: 0x38C37, size: 0x8, addend: 0x0, symName: __RINvNtNtNtNtCsfvfooZQ3Axs_4core5slice4sort6stable5merge5mergeNtNvCsgq90m4oCT4f_13phf_generator17try_generate_hash6BucketNCINvMNtCse1nGBsou5OW_5alloc5sliceSBX_7sort_byNCIBZ_ReEs0_0E0ECsbGvsTGsJZQm_18build_script_build, symObjAddr: 0x89C, symBinAddr: 0x1000130B0, symSize: 0x2F8 }
  - { offset: 0x38EA1, size: 0x8, addend: 0x0, symName: __RNvXs_NtNtNtNtCsfvfooZQ3Axs_4core5slice4sort6stable5mergeINtB4_10MergeStateNtNvCsgq90m4oCT4f_13phf_generator17try_generate_hash6BucketENtNtNtBc_3ops4drop4Drop4dropCsbGvsTGsJZQm_18build_script_build, symObjAddr: 0x2700, symBinAddr: 0x100014F14, symSize: 0xE0 }
  - { offset: 0x39023, size: 0x8, addend: 0x0, symName: __RNvXs2_NtNtCsfvfooZQ3Axs_4core5slice5indexINtNtNtB9_3ops5range5RangejEINtB5_10SliceIndexSNtNvCsgq90m4oCT4f_13phf_generator17try_generate_hash6BucketE9index_mutCsbGvsTGsJZQm_18build_script_build, symObjAddr: 0x229C, symBinAddr: 0x100014AB0, symSize: 0xC0 }
  - { offset: 0x391A7, size: 0x8, addend: 0x0, symName: __RNvXs5_NtNtCsfvfooZQ3Axs_4core5slice5indexINtNtNtB9_3ops5range9RangeFromjEINtB5_10SliceIndexSNtNvCsgq90m4oCT4f_13phf_generator17try_generate_hash6BucketE9index_mutCsbGvsTGsJZQm_18build_script_build, symObjAddr: 0x24E4, symBinAddr: 0x100014CF8, symSize: 0x98 }
  - { offset: 0x39342, size: 0x8, addend: 0x0, symName: __RNvXs8_NtNtCsfvfooZQ3Axs_4core5slice5indexINtNtNtB9_3ops5range14RangeInclusivejEINtB5_10SliceIndexShE5indexCsbGvsTGsJZQm_18build_script_build, symObjAddr: 0x257C, symBinAddr: 0x100014D90, symSize: 0x144 }
  - { offset: 0x39C83, size: 0x8, addend: 0x0, symName: __RNvNvNtCsfvfooZQ3Axs_4core9ub_checks23maybe_is_nonoverlapping7runtimeCsbGvsTGsJZQm_18build_script_build, symObjAddr: 0x1B9C, symBinAddr: 0x1000143B0, symSize: 0xD8 }
  - { offset: 0x39E93, size: 0x8, addend: 0x0, symName: __RNvNtNtNtNtCsfvfooZQ3Axs_4core9core_arch7aarch644neon9generated8vcgez_s8CsbGvsTGsJZQm_18build_script_build, symObjAddr: 0x1A7C, symBinAddr: 0x100014290, symSize: 0x68 }
  - { offset: 0x39F35, size: 0x8, addend: 0x0, symName: __RNvNtNtNtNtCsfvfooZQ3Axs_4core9core_arch7aarch644neon9generated8vcltz_s8CsbGvsTGsJZQm_18build_script_build, symObjAddr: 0x1AE4, symBinAddr: 0x1000142F8, symSize: 0x68 }
  - { offset: 0x3A025, size: 0x8, addend: 0x0, symName: __RNvNvMNtNtCsfvfooZQ3Axs_4core5alloc6layoutNtB4_6Layout25from_size_align_unchecked18precondition_checkCsbGvsTGsJZQm_18build_script_build, symObjAddr: 0x1B4C, symBinAddr: 0x100014360, symSize: 0x50 }
  - { offset: 0x3A136, size: 0x8, addend: 0x0, symName: __RNCINvMCsdy4PFqiFpmx_20string_cache_codegenNtB5_8AtomType5atomsINtNtNtNtCsfvfooZQ3Axs_4core4iter8adapters3map3MapINtNtNtB18_5slice4iter4IterTReB2f_EENCNvCsbGvsTGsJZQm_18build_script_build4main0EE0B2r_, symObjAddr: 0xCA4, symBinAddr: 0x1000134B8, symSize: 0x7C }
  - { offset: 0x3A175, size: 0x8, addend: 0x0, symName: __RNCINvMCsdy4PFqiFpmx_20string_cache_codegenNtB5_8AtomType5atomsINtNtNtNtCsfvfooZQ3Axs_4core4iter8adapters3map3MapINtNtNtB18_5slice4iter4IterTReB2f_EENCNvCsbGvsTGsJZQm_18build_script_build4mains_0EE0B2r_, symObjAddr: 0xD20, symBinAddr: 0x100013534, symSize: 0x7C }
  - { offset: 0x3A2EA, size: 0x8, addend: 0x0, symName: __RINvMCsdy4PFqiFpmx_20string_cache_codegenNtB3_8AtomType5atomsINtNtNtNtCsfvfooZQ3Axs_4core4iter8adapters3map3MapINtNtNtB16_5slice4iter4IterTReB2d_EENCNvCsbGvsTGsJZQm_18build_script_build4main0EEB2p_, symObjAddr: 0x0, symBinAddr: 0x100012814, symSize: 0x74 }
  - { offset: 0x3A323, size: 0x8, addend: 0x0, symName: __RINvMCsdy4PFqiFpmx_20string_cache_codegenNtB3_8AtomType5atomsINtNtNtNtCsfvfooZQ3Axs_4core4iter8adapters3map3MapINtNtNtB16_5slice4iter4IterTReB2d_EENCNvCsbGvsTGsJZQm_18build_script_build4mains_0EEB2p_, symObjAddr: 0x74, symBinAddr: 0x100012888, symSize: 0x74 }
  - { offset: 0x3A3D9, size: 0x8, addend: 0x0, symName: __RINvMCsdy4PFqiFpmx_20string_cache_codegenNtB3_8AtomType8write_toQINtNtNtNtCscOYdFFY2T5N_3std2io8buffered9bufwriter9BufWriterNtNtB1a_2fs4FileEECsbGvsTGsJZQm_18build_script_build, symObjAddr: 0xE8, symBinAddr: 0x1000128FC, symSize: 0x2AC }
  - { offset: 0x3A4C3, size: 0x8, addend: 0x0, symName: __RINvMNtNtNtNtCsfvfooZQ3Axs_4core5slice4sort6stable5mergeINtB3_10MergeStateNtNvCsgq90m4oCT4f_13phf_generator17try_generate_hash6BucketE10merge_downNCINvMNtCse1nGBsou5OW_5alloc5sliceSB1a_7sort_byNCIB1c_ReEs0_0E0ECsbGvsTGsJZQm_18build_script_build, symObjAddr: 0x394, symBinAddr: 0x100012BA8, symSize: 0x1D4 }
  - { offset: 0x3A659, size: 0x8, addend: 0x0, symName: __RINvMNtNtNtNtCsfvfooZQ3Axs_4core5slice4sort6stable5mergeINtB3_10MergeStateNtNvCsgq90m4oCT4f_13phf_generator17try_generate_hash6BucketE8merge_upNCINvMNtCse1nGBsou5OW_5alloc5sliceSB1a_7sort_byNCIB1c_ReEs0_0E0ECsbGvsTGsJZQm_18build_script_build, symObjAddr: 0x568, symBinAddr: 0x100012D7C, symSize: 0x194 }
  - { offset: 0x3A7FC, size: 0x8, addend: 0x0, symName: __RINvMs2_NtNtCscOYdFFY2T5N_3std6thread5localINtB6_8LocalKeyINtNtCsfvfooZQ3Axs_4core4cell4CellTyyEEE4withNCNvMNtNtBa_4hash6randomNtB1I_11RandomState3new0B21_ECsbGvsTGsJZQm_18build_script_build, symObjAddr: 0x6FC, symBinAddr: 0x100012F10, symSize: 0x50 }
  - { offset: 0x3A8B5, size: 0x8, addend: 0x0, symName: __RINvMs2_NtNtCscOYdFFY2T5N_3std6thread5localINtB6_8LocalKeyINtNtCsfvfooZQ3Axs_4core4cell4CellTyyEEE8try_withNCNvMNtNtBa_4hash6randomNtB1M_11RandomState3new0B25_ECsbGvsTGsJZQm_18build_script_build, symObjAddr: 0x74C, symBinAddr: 0x100012F60, symSize: 0xE8 }
  - { offset: 0x3AA8E, size: 0x8, addend: 0x0, symName: __RNCNvMNtCsloNvcHxBCre_9hashbrown11rustc_entryINtNtB6_3map7HashMapReTmmENtNtNtCscOYdFFY2T5N_3std4hash6random11RandomStateE11rustc_entry0CsbGvsTGsJZQm_18build_script_build, symObjAddr: 0xD9C, symBinAddr: 0x1000135B0, symSize: 0x38 }
  - { offset: 0x3AAF7, size: 0x8, addend: 0x0, symName: __RNvXCsloNvcHxBCre_9hashbrownRReINtB2_10EquivalentBq_E10equivalentCsbGvsTGsJZQm_18build_script_build, symObjAddr: 0x1CB0, symBinAddr: 0x1000144C4, symSize: 0x50 }
  - { offset: 0x3AB68, size: 0x8, addend: 0x0, symName: __RNvXCsloNvcHxBCre_9hashbrownReINtB2_10EquivalentBq_E10equivalentCsbGvsTGsJZQm_18build_script_build, symObjAddr: 0x1D00, symBinAddr: 0x100014514, symSize: 0x50 }
  - { offset: 0x3ADFA, size: 0x8, addend: 0x0, symName: __RNvNtCslgz3eGxzwqz_9siphasher6sip1289u8to64_leCsbGvsTGsJZQm_18build_script_build, symObjAddr: 0x14C8, symBinAddr: 0x100013CDC, symSize: 0x5B4 }
  - { offset: 0x3AFA0, size: 0x8, addend: 0x0, symName: __RNvXs3_NtCslgz3eGxzwqz_9siphasher6sip128NtB5_11SipHasher13NtB5_9Hasher1289finish128CsbGvsTGsJZQm_18build_script_build, symObjAddr: 0x238C, symBinAddr: 0x100014BA0, symSize: 0x34 }
  - { offset: 0x3AFD4, size: 0x8, addend: 0x0, symName: __RNvXs9_NtCslgz3eGxzwqz_9siphasher6sip128NtB5_11SipHasher13NtNtCsfvfooZQ3Axs_4core4hash6Hasher5writeCsbGvsTGsJZQm_18build_script_build, symObjAddr: 0x26C0, symBinAddr: 0x100014ED4, symSize: 0x40 }
  - { offset: 0x3B013, size: 0x8, addend: 0x0, symName: __RNvXsb_NtCslgz3eGxzwqz_9siphasher6sip128INtB5_6HasherNtB5_11Sip13RoundsENtNtCsfvfooZQ3Axs_4core4hash6Hasher5writeCsbGvsTGsJZQm_18build_script_build, symObjAddr: 0x27E0, symBinAddr: 0x100014FF4, symSize: 0x400 }
  - { offset: 0x3B159, size: 0x8, addend: 0x0, symName: __RNvXse_NtCslgz3eGxzwqz_9siphasher6sip128NtB5_11Sip13RoundsNtB5_3Sip8c_roundsCsbGvsTGsJZQm_18build_script_build, symObjAddr: 0x2C6C, symBinAddr: 0x100015480, symSize: 0x180 }
  - { offset: 0x3B305, size: 0x8, addend: 0x0, symName: __RNvXse_NtCslgz3eGxzwqz_9siphasher6sip128NtB5_11Sip13RoundsNtB5_3Sip8d_roundsCsbGvsTGsJZQm_18build_script_build, symObjAddr: 0x2DEC, symBinAddr: 0x100015600, symSize: 0x418 }
  - { offset: 0x3B7C0, size: 0x8, addend: 0x0, symName: __RNvMs2_NtCslgz3eGxzwqz_9siphasher6sip128NtB5_11SipHasher1313new_with_keysCsbGvsTGsJZQm_18build_script_build, symObjAddr: 0xDD4, symBinAddr: 0x1000135E8, symSize: 0x54 }
  - { offset: 0x3B836, size: 0x8, addend: 0x0, symName: __RNvMs5_NtNtCscOYdFFY2T5N_3std2io5errorNtB5_5Error14is_interruptedCsbGvsTGsJZQm_18build_script_build, symObjAddr: 0xE28, symBinAddr: 0x10001363C, symSize: 0x138 }
  - { offset: 0x3B98D, size: 0x8, addend: 0x0, symName: __RNvMs7_NtCslgz3eGxzwqz_9siphasher6sip128INtB5_6HasherNtB5_11Sip13RoundsE9finish128CsbGvsTGsJZQm_18build_script_build, symObjAddr: 0xF60, symBinAddr: 0x100013774, symSize: 0xF8 }
  - { offset: 0x3BAEC, size: 0x8, addend: 0x0, symName: __RNvXCsavgYnAsOLFI_11phf_codegenINtB2_8DelegateRReENtNtCsfvfooZQ3Axs_4core3fmt7Display3fmtCsbGvsTGsJZQm_18build_script_build, symObjAddr: 0x1C74, symBinAddr: 0x100014488, symSize: 0x3C }
  - { offset: 0x3BB35, size: 0x8, addend: 0x0, symName: __RNvXs0_CsavgYnAsOLFI_11phf_codegenINtB5_10DisplayMapReENtNtCsfvfooZQ3Axs_4core3fmt7Display3fmtCsbGvsTGsJZQm_18build_script_build, symObjAddr: 0x1E94, symBinAddr: 0x1000146A8, symSize: 0x408 }
  - { offset: 0x3BC73, size: 0x8, addend: 0x0, symName: __RNvMs_CsavgYnAsOLFI_11phf_codegenINtB4_3MapReE3newCsbGvsTGsJZQm_18build_script_build, symObjAddr: 0x1058, symBinAddr: 0x10001386C, symSize: 0xD8 }
  - { offset: 0x3BD10, size: 0x8, addend: 0x0, symName: __RNvMs_CsavgYnAsOLFI_11phf_codegenINtB4_3MapReE5buildCsbGvsTGsJZQm_18build_script_build, symObjAddr: 0x1130, symBinAddr: 0x100013944, symSize: 0x280 }
  - { offset: 0x3BD9F, size: 0x8, addend: 0x0, symName: __RNvMs_CsavgYnAsOLFI_11phf_codegenINtB4_3MapReE5entryCsbGvsTGsJZQm_18build_script_build, symObjAddr: 0x13B0, symBinAddr: 0x100013BC4, symSize: 0x88 }
  - { offset: 0x3BE2F, size: 0x8, addend: 0x0, symName: __RNvMsx_NtNtNtCse1nGBsou5OW_5alloc11collections5btree3mapINtB5_8IntoIterNtNtBb_6string6StringNtNtB7_7set_val9SetValZSTE10dying_nextCsbGvsTGsJZQm_18build_script_build, symObjAddr: 0x1438, symBinAddr: 0x100013C4C, symSize: 0x90 }
  - { offset: 0x3C410, size: 0x8, addend: 0x0, symName: __RINvCsbvn0pgfta96_10phf_shared4hashReECsbGvsTGsJZQm_18build_script_build, symObjAddr: 0x0, symBinAddr: 0x100015F0C, symSize: 0x88 }
  - { offset: 0x3C7F6, size: 0x8, addend: 0x0, symName: __RNCNkNvNvMNtNtCscOYdFFY2T5N_3std4hash6randomNtB8_11RandomState3new4KEYS0s_0CsbGvsTGsJZQm_18build_script_build, symObjAddr: 0x12CC, symBinAddr: 0x1000171D8, symSize: 0x3C }
  - { offset: 0x3C834, size: 0x8, addend: 0x0, symName: __RNvNvNvMNtNtCscOYdFFY2T5N_3std4hash6randomNtB6_11RandomState3new4KEYS6___initCsbGvsTGsJZQm_18build_script_build, symObjAddr: 0x1F78, symBinAddr: 0x100017E84, symSize: 0x24 }
  - { offset: 0x3C852, size: 0x8, addend: 0x0, symName: __RNCNvMNtNtCscOYdFFY2T5N_3std4hash6randomNtB4_11RandomState3new0CsbGvsTGsJZQm_18build_script_build, symObjAddr: 0x1308, symBinAddr: 0x100017214, symSize: 0x2C }
  - { offset: 0x3C92D, size: 0x8, addend: 0x0, symName: __RNvXs2_NtNtCscOYdFFY2T5N_3std4hash6randomNtB5_13DefaultHasherNtNtCsfvfooZQ3Axs_4core4hash6Hasher6finishCsbGvsTGsJZQm_18build_script_build, symObjAddr: 0x22F4, symBinAddr: 0x100018200, symSize: 0x2C }
  - { offset: 0x3C976, size: 0x8, addend: 0x0, symName: __RNvXs2_NtNtCscOYdFFY2T5N_3std4hash6randomNtB5_13DefaultHasherNtNtCsfvfooZQ3Axs_4core4hash6Hasher9write_strCsbGvsTGsJZQm_18build_script_build, symObjAddr: 0x2320, symBinAddr: 0x10001822C, symSize: 0x38 }
  - { offset: 0x3C9D7, size: 0x8, addend: 0x0, symName: __RNvXs3_NtNtCscOYdFFY2T5N_3std4hash6randomNtB5_11RandomStateNtNtCsfvfooZQ3Axs_4core7default7Default7defaultCsbGvsTGsJZQm_18build_script_build, symObjAddr: 0x23E4, symBinAddr: 0x1000182F0, symSize: 0x1C }
  - { offset: 0x3CA0F, size: 0x8, addend: 0x0, symName: __RNvXs_NtNtCscOYdFFY2T5N_3std4hash6randomNtB4_11RandomStateNtNtCsfvfooZQ3Axs_4core4hash11BuildHasher12build_hasherCsbGvsTGsJZQm_18build_script_build, symObjAddr: 0x279C, symBinAddr: 0x1000186A8, symSize: 0xCC }
  - { offset: 0x3CABE, size: 0x8, addend: 0x0, symName: __RNvXsT_NtCscOYdFFY2T5N_3std7processuNtB5_11Termination6reportCsbGvsTGsJZQm_18build_script_build, symObjAddr: 0x26D0, symBinAddr: 0x1000185DC, symSize: 0x10 }
  - { offset: 0x3D4BF, size: 0x8, addend: 0x0, symName: __RNvNvMs1_NtNtCsfvfooZQ3Axs_4core3ptr8non_nullINtB7_7NonNullpE13new_unchecked18precondition_checkCsbGvsTGsJZQm_18build_script_build, symObjAddr: 0x1F40, symBinAddr: 0x100017E4C, symSize: 0x38 }
  - { offset: 0x3DE1F, size: 0x8, addend: 0x0, symName: __RNvMNtCsfvfooZQ3Axs_4core5sliceSNtCsbvn0pgfta96_10phf_shared6Hashes4iterCsbGvsTGsJZQm_18build_script_build, symObjAddr: 0x1528, symBinAddr: 0x100017434, symSize: 0x28 }
  - { offset: 0x3EF13, size: 0x8, addend: 0x0, symName: __RINvXs0_NtNtCsfvfooZQ3Axs_4core4hash5implseNtB8_4Hash4hashNtNtNtCscOYdFFY2T5N_3std4hash6random13DefaultHasherECsbGvsTGsJZQm_18build_script_build, symObjAddr: 0x57C, symBinAddr: 0x100016488, symSize: 0x48 }
  - { offset: 0x3EF5B, size: 0x8, addend: 0x0, symName: __RINvXs3_NtNtCsfvfooZQ3Axs_4core4hash5implsRRReNtB8_4Hash4hashNtNtNtCscOYdFFY2T5N_3std4hash6random13DefaultHasherECsbGvsTGsJZQm_18build_script_build, symObjAddr: 0x8A4, symBinAddr: 0x1000167B0, symSize: 0x30 }
  - { offset: 0x3EFA6, size: 0x8, addend: 0x0, symName: __RINvXs3_NtNtCsfvfooZQ3Axs_4core4hash5implsRReNtB8_4Hash4hashNtNtNtCscOYdFFY2T5N_3std4hash6random13DefaultHasherECsbGvsTGsJZQm_18build_script_build, symObjAddr: 0x8D4, symBinAddr: 0x1000167E0, symSize: 0x30 }
  - { offset: 0x3EFF1, size: 0x8, addend: 0x0, symName: __RINvXs3_NtNtCsfvfooZQ3Axs_4core4hash5implsReNtB8_4Hash4hashNtNtNtCscOYdFFY2T5N_3std4hash6random13DefaultHasherECsbGvsTGsJZQm_18build_script_build, symObjAddr: 0x904, symBinAddr: 0x100016810, symSize: 0x3C }
  - { offset: 0x3F043, size: 0x8, addend: 0x0, symName: __RINvYNtNtNtCscOYdFFY2T5N_3std4hash6random11RandomStateNtNtCsfvfooZQ3Axs_4core4hash11BuildHasher8hash_oneRRReECsbGvsTGsJZQm_18build_script_build, symObjAddr: 0xC64, symBinAddr: 0x100016B70, symSize: 0x84 }
  - { offset: 0x3F0A8, size: 0x8, addend: 0x0, symName: __RINvYNtNtNtCscOYdFFY2T5N_3std4hash6random11RandomStateNtNtCsfvfooZQ3Axs_4core4hash11BuildHasher8hash_oneRReECsbGvsTGsJZQm_18build_script_build, symObjAddr: 0xCE8, symBinAddr: 0x100016BF4, symSize: 0x84 }
  - { offset: 0x3F267, size: 0x8, addend: 0x0, symName: __RINvXs0_NtNtNtCsfvfooZQ3Axs_4core4iter8adapters3mapINtB6_3MapIBO_INtNtNtBc_5slice4iter4IterTReB1s_EENCNvCsbGvsTGsJZQm_18build_script_build4main0ENCINvMCsdy4PFqiFpmx_20string_cache_codegenNtB2p_8AtomType5atomsBX_E0ENtNtNtBa_6traits8iterator8Iterator4folduNCINvNvB3q_8for_each4callNtNtCse1nGBsou5OW_5alloc6string6StringNCINvXsl_NtNtNtB4x_11collections5btree3setINtB5e_8BTreeSetB4t_EINtNtB3u_7collect6ExtendB4t_E6extendBN_E0E0EB1E_, symObjAddr: 0x5C4, symBinAddr: 0x1000164D0, symSize: 0x34 }
  - { offset: 0x3F2D8, size: 0x8, addend: 0x0, symName: __RINvXs0_NtNtNtCsfvfooZQ3Axs_4core4iter8adapters3mapINtB6_3MapIBO_INtNtNtBc_5slice4iter4IterTReB1s_EENCNvCsbGvsTGsJZQm_18build_script_build4mains_0ENCINvMCsdy4PFqiFpmx_20string_cache_codegenNtB2r_8AtomType5atomsBX_E0ENtNtNtBa_6traits8iterator8Iterator4folduNCINvNvB3s_8for_each4callNtNtCse1nGBsou5OW_5alloc6string6StringNCINvXsl_NtNtNtB4z_11collections5btree3setINtB5g_8BTreeSetB4v_EINtNtB3w_7collect6ExtendB4v_E6extendBN_E0E0EB1E_, symObjAddr: 0x5F8, symBinAddr: 0x100016504, symSize: 0x34 }
  - { offset: 0x3F349, size: 0x8, addend: 0x0, symName: __RINvXs0_NtNtNtCsfvfooZQ3Axs_4core4iter8adapters3mapINtB6_3MapINtNtNtBc_3ops5range5RangejENCINvCsgq90m4oCT4f_13phf_generator17try_generate_hashReEs_0ENtNtNtBa_6traits8iterator8Iterator4folduNCINvNvB2n_8for_each4callNtB1s_6BucketNCINvMsi_NtCse1nGBsou5OW_5alloc3vecINtB3M_3VecB3q_E14extend_trustedBN_E0E0ECsbGvsTGsJZQm_18build_script_build, symObjAddr: 0x62C, symBinAddr: 0x100016538, symSize: 0x3C }
  - { offset: 0x3F3E1, size: 0x8, addend: 0x0, symName: __RINvXs0_NtNtNtCsfvfooZQ3Axs_4core4iter8adapters3mapINtB6_3MapINtNtNtBc_5slice4iter4IterReENCINvCsgq90m4oCT4f_13phf_generator17try_generate_hashB1n_E0ENtNtNtBa_6traits8iterator8Iterator4folduNCINvNvB2o_8for_each4callNtCsbvn0pgfta96_10phf_shared6HashesNCINvMsi_NtCse1nGBsou5OW_5alloc3vecINtB49_3VecB3r_E14extend_trustedBN_E0E0ECsbGvsTGsJZQm_18build_script_build, symObjAddr: 0x668, symBinAddr: 0x100016574, symSize: 0x4C }
  - { offset: 0x3F47A, size: 0x8, addend: 0x0, symName: __RINvXs0_NtNtNtCsfvfooZQ3Axs_4core4iter8adapters3mapINtB6_3MapINtNtNtBc_5slice4iter4IterTReB1o_EENCNvCsbGvsTGsJZQm_18build_script_build4main0ENtNtNtBa_6traits8iterator8Iterator4folduNCINvB6_8map_foldB1o_NtNtCse1nGBsou5OW_5alloc6string6StringuNCINvMCsdy4PFqiFpmx_20string_cache_codegenNtB3X_8AtomType5atomsBN_E0NCINvNvB2f_8for_each4callB3e_NCINvXsl_NtNtNtB3i_11collections5btree3setINtB5z_8BTreeSetB3e_EINtNtB2j_7collect6ExtendB3e_E6extendIBO_BN_B3R_EE0E0E0EB1A_, symObjAddr: 0x6B4, symBinAddr: 0x1000165C0, symSize: 0x34 }
  - { offset: 0x3F4EB, size: 0x8, addend: 0x0, symName: __RINvXs0_NtNtNtCsfvfooZQ3Axs_4core4iter8adapters3mapINtB6_3MapINtNtNtBc_5slice4iter4IterTReB1o_EENCNvCsbGvsTGsJZQm_18build_script_build4mains_0ENtNtNtBa_6traits8iterator8Iterator4folduNCINvB6_8map_foldB1o_NtNtCse1nGBsou5OW_5alloc6string6StringuNCINvMCsdy4PFqiFpmx_20string_cache_codegenNtB3Z_8AtomType5atomsBN_E0NCINvNvB2h_8for_each4callB3g_NCINvXsl_NtNtNtB3k_11collections5btree3setINtB5B_8BTreeSetB3g_EINtNtB2l_7collect6ExtendB3g_E6extendIBO_BN_B3T_EE0E0E0EB1A_, symObjAddr: 0x6E8, symBinAddr: 0x1000165F4, symSize: 0x34 }
  - { offset: 0x3F55C, size: 0x8, addend: 0x0, symName: __RINvXs0_NtNtNtCsfvfooZQ3Axs_4core4iter8adapters3mapINtB6_3MapINtNtNtBc_5slice4iter4IterTRemmEENCNvCsbGvsTGsJZQm_18build_script_build21named_entities_to_phf0ENtNtNtBa_6traits8iterator8Iterator4folduNCINvNvB2v_8for_each4callTB1o_TmmEENCINvXs1i_NtCsloNvcHxBCre_9hashbrown3mapINtB3S_7HashMapB1o_B3D_NtNtNtCscOYdFFY2T5N_3std4hash6random11RandomStateEINtNtB2z_7collect6ExtendB3y_E6extendBN_E0E0EB1y_, symObjAddr: 0x71C, symBinAddr: 0x100016628, symSize: 0x34 }
  - { offset: 0x3F5CD, size: 0x8, addend: 0x0, symName: __RNvXs0_NtNtNtCsfvfooZQ3Axs_4core4iter8adapters3mapINtB5_3MapINtNtNtBb_3ops5range5RangejENCINvCsgq90m4oCT4f_13phf_generator17try_generate_hashReEs_0ENtNtNtB9_6traits8iterator8Iterator9size_hintCsbGvsTGsJZQm_18build_script_build, symObjAddr: 0x2098, symBinAddr: 0x100017FA4, symSize: 0x24 }
  - { offset: 0x3F614, size: 0x8, addend: 0x0, symName: __RNvXs0_NtNtNtCsfvfooZQ3Axs_4core4iter8adapters3mapINtB5_3MapINtNtNtBb_5slice4iter4IterReENCINvCsgq90m4oCT4f_13phf_generator17try_generate_hashB1m_E0ENtNtNtB9_6traits8iterator8Iterator9size_hintCsbGvsTGsJZQm_18build_script_build, symObjAddr: 0x20BC, symBinAddr: 0x100017FC8, symSize: 0x24 }
  - { offset: 0x3F65B, size: 0x8, addend: 0x0, symName: __RNvXs0_NtNtNtCsfvfooZQ3Axs_4core4iter8adapters3mapINtB5_3MapINtNtNtBb_5slice4iter4IterTRemmEENCNvCsbGvsTGsJZQm_18build_script_build21named_entities_to_phf0ENtNtNtB9_6traits8iterator8Iterator9size_hintB1x_, symObjAddr: 0x20E0, symBinAddr: 0x100017FEC, symSize: 0x24 }
  - { offset: 0x3F6A2, size: 0x8, addend: 0x0, symName: __RNvXs0_NtNtNtCsfvfooZQ3Axs_4core4iter8adapters3mapINtB5_3MapINtNtNtCse1nGBsou5OW_5alloc3vec9into_iter8IntoIterINtNtBb_6option6OptionjEENCINvCsgq90m4oCT4f_13phf_generator17try_generate_hashReEs1_0ENtNtNtB9_6traits8iterator8Iterator24___iterator_get_uncheckedCsbGvsTGsJZQm_18build_script_build, symObjAddr: 0x2104, symBinAddr: 0x100018010, symSize: 0x48 }
  - { offset: 0x3F71C, size: 0x8, addend: 0x0, symName: __RNvXs0_NtNtNtCsfvfooZQ3Axs_4core4iter8adapters3mapINtB5_3MapINtNtNtCse1nGBsou5OW_5alloc3vec9into_iter8IntoIterINtNtBb_6option6OptionjEENCINvCsgq90m4oCT4f_13phf_generator17try_generate_hashReEs1_0ENtNtNtB9_6traits8iterator8Iterator9size_hintCsbGvsTGsJZQm_18build_script_build, symObjAddr: 0x214C, symBinAddr: 0x100018058, symSize: 0x24 }
  - { offset: 0x3F7F9, size: 0x8, addend: 0x0, symName: __RNCINvNtNtNtCsfvfooZQ3Axs_4core4iter8adapters3map8map_foldRReNtCsbvn0pgfta96_10phf_shared6HashesuNCINvCsgq90m4oCT4f_13phf_generator17try_generate_hashBV_E0NCINvNvNtNtNtB8_6traits8iterator8Iterator8for_each4callBX_NCINvMsi_NtCse1nGBsou5OW_5alloc3vecINtB3y_3VecBX_E14extend_trustedINtB4_3MapINtNtNtBa_5slice4iter4IterBV_EB1x_EE0E0E0CsbGvsTGsJZQm_18build_script_build, symObjAddr: 0xE44, symBinAddr: 0x100016D50, symSize: 0x8C }
  - { offset: 0x3F87E, size: 0x8, addend: 0x0, symName: __RNCINvNtNtNtCsfvfooZQ3Axs_4core4iter8adapters3map8map_foldRTReBW_EBW_uNCNvCsbGvsTGsJZQm_18build_script_build4main0NCIB2_BW_NtNtCse1nGBsou5OW_5alloc6string6StringuNCINvMCsdy4PFqiFpmx_20string_cache_codegenNtB2G_8AtomType5atomsINtB4_3MapINtNtNtBa_5slice4iter4IterBV_EB16_EE0NCINvNvNtNtNtB8_6traits8iterator8Iterator8for_each4callB1X_NCINvXsl_NtNtNtB21_11collections5btree3setINtB5s_8BTreeSetB1X_EINtNtB4x_7collect6ExtendB1X_E6extendIB3C_B3B_B2A_EE0E0E0E0B1a_, symObjAddr: 0xED0, symBinAddr: 0x100016DDC, symSize: 0x84 }
  - { offset: 0x3F903, size: 0x8, addend: 0x0, symName: __RNCINvNtNtNtCsfvfooZQ3Axs_4core4iter8adapters3map8map_foldRTReBW_EBW_uNCNvCsbGvsTGsJZQm_18build_script_build4mains_0NCIB2_BW_NtNtCse1nGBsou5OW_5alloc6string6StringuNCINvMCsdy4PFqiFpmx_20string_cache_codegenNtB2I_8AtomType5atomsINtB4_3MapINtNtNtBa_5slice4iter4IterBV_EB16_EE0NCINvNvNtNtNtB8_6traits8iterator8Iterator8for_each4callB1Z_NCINvXsl_NtNtNtB23_11collections5btree3setINtB5u_8BTreeSetB1Z_EINtNtB4z_7collect6ExtendB1Z_E6extendIB3E_B3D_B2C_EE0E0E0E0B1a_, symObjAddr: 0xF54, symBinAddr: 0x100016E60, symSize: 0x84 }
  - { offset: 0x3F988, size: 0x8, addend: 0x0, symName: __RNCINvNtNtNtCsfvfooZQ3Axs_4core4iter8adapters3map8map_foldRTRemmETBW_TmmEEuNCNvCsbGvsTGsJZQm_18build_script_build21named_entities_to_phf0NCINvNvNtNtNtB8_6traits8iterator8Iterator8for_each4callB11_NCINvXs1i_NtCsloNvcHxBCre_9hashbrown3mapINtB3i_7HashMapBW_B15_NtNtNtCscOYdFFY2T5N_3std4hash6random11RandomStateEINtNtB2m_7collect6ExtendB11_E6extendINtB4_3MapINtNtNtBa_5slice4iter4IterBV_EB1b_EE0E0E0B1f_, symObjAddr: 0xFD8, symBinAddr: 0x100016EE4, symSize: 0x8C }
  - { offset: 0x3FA0D, size: 0x8, addend: 0x0, symName: __RNCINvNtNtNtCsfvfooZQ3Axs_4core4iter8adapters3map8map_foldReNtNtCse1nGBsou5OW_5alloc6string6StringuNCINvMCsdy4PFqiFpmx_20string_cache_codegenNtB1F_8AtomType5atomsINtB4_3MapINtNtNtBa_5slice4iter4IterTBU_BU_EENCNvCsbGvsTGsJZQm_18build_script_build4main0EE0NCINvNvNtNtNtB8_6traits8iterator8Iterator8for_each4callBW_NCINvXsl_NtNtNtB10_11collections5btree3setINtB59_8BTreeSetBW_EINtNtB4f_7collect6ExtendBW_E6extendIB2B_B2A_B1z_EE0E0E0B3n_, symObjAddr: 0x1064, symBinAddr: 0x100016F70, symSize: 0x90 }
  - { offset: 0x3FA92, size: 0x8, addend: 0x0, symName: __RNCINvNtNtNtCsfvfooZQ3Axs_4core4iter8adapters3map8map_foldReNtNtCse1nGBsou5OW_5alloc6string6StringuNCINvMCsdy4PFqiFpmx_20string_cache_codegenNtB1F_8AtomType5atomsINtB4_3MapINtNtNtBa_5slice4iter4IterTBU_BU_EENCNvCsbGvsTGsJZQm_18build_script_build4mains_0EE0NCINvNvNtNtNtB8_6traits8iterator8Iterator8for_each4callBW_NCINvXsl_NtNtNtB10_11collections5btree3setINtB5b_8BTreeSetBW_EINtNtB4h_7collect6ExtendBW_E6extendIB2B_B2A_B1z_EE0E0E0B3n_, symObjAddr: 0x10F4, symBinAddr: 0x100017000, symSize: 0x90 }
  - { offset: 0x3FB17, size: 0x8, addend: 0x0, symName: __RNCINvNtNtNtCsfvfooZQ3Axs_4core4iter8adapters3map8map_foldjNtNvCsgq90m4oCT4f_13phf_generator17try_generate_hash6BucketuNCIBX_ReEs_0NCINvNvNtNtNtB8_6traits8iterator8Iterator8for_each4callBV_NCINvMsi_NtCse1nGBsou5OW_5alloc3vecINtB3a_3VecBV_E14extend_trustedINtB4_3MapINtNtNtBa_3ops5range5RangejEB1T_EE0E0E0CsbGvsTGsJZQm_18build_script_build, symObjAddr: 0x1184, symBinAddr: 0x100017090, symSize: 0x88 }
  - { offset: 0x3FC32, size: 0x8, addend: 0x0, symName: __RNvXs9_NtNtNtCsfvfooZQ3Axs_4core4iter8adapters3mapINtB5_3MapINtNtNtCse1nGBsou5OW_5alloc3vec9into_iter8IntoIterINtNtBb_6option6OptionjEENCINvCsgq90m4oCT4f_13phf_generator17try_generate_hashReEs1_0ENtB7_10SourceIter8as_innerCsbGvsTGsJZQm_18build_script_build, symObjAddr: 0x2548, symBinAddr: 0x100018454, symSize: 0x24 }
  - { offset: 0x3FE47, size: 0x8, addend: 0x0, symName: __RNvYINtNtNtNtCsfvfooZQ3Axs_4core4iter8adapters3map3MapINtNtNtCse1nGBsou5OW_5alloc3vec9into_iter8IntoIterINtNtBb_6option6OptionjEENCINvCsgq90m4oCT4f_13phf_generator17try_generate_hashReEs1_0ENtNtB7_3zip27TrustedRandomAccessNoCoerce4sizeCsbGvsTGsJZQm_18build_script_build, symObjAddr: 0x2900, symBinAddr: 0x10001880C, symSize: 0x2C }
  - { offset: 0x3FE8A, size: 0x8, addend: 0x0, symName: __RNvXs_NtNtNtCsfvfooZQ3Axs_4core4iter8adapters6clonedINtB4_6ClonedINtNtNtNtCscOYdFFY2T5N_3std11collections4hash3map4KeysReTmmEEENtNtNtB8_6traits8iterator8Iterator4nextCsbGvsTGsJZQm_18build_script_build, symObjAddr: 0x2868, symBinAddr: 0x100018774, symSize: 0x74 }
  - { offset: 0x3FF19, size: 0x8, addend: 0x0, symName: __RNvXs_NtNtNtCsfvfooZQ3Axs_4core4iter8adapters6clonedINtB4_6ClonedINtNtNtNtCscOYdFFY2T5N_3std11collections4hash3map4KeysReTmmEEENtNtNtB8_6traits8iterator8Iterator9size_hintCsbGvsTGsJZQm_18build_script_build, symObjAddr: 0x28DC, symBinAddr: 0x1000187E8, symSize: 0x24 }
  - { offset: 0x40052, size: 0x8, addend: 0x0, symName: __RINvYINtNtNtNtCsfvfooZQ3Axs_4core4iter8adapters3map3MapIB4_INtNtNtBc_5slice4iter4IterTReB1m_EENCNvCsbGvsTGsJZQm_18build_script_build4main0ENCINvMCsdy4PFqiFpmx_20string_cache_codegenNtB2j_8AtomType5atomsBR_E0ENtNtNtBa_6traits8iterator8Iterator8for_eachNCINvXsl_NtNtNtCse1nGBsou5OW_5alloc11collections5btree3setINtB4a_8BTreeSetNtNtB4g_6string6StringEINtNtB3o_7collect6ExtendB5d_E6extendB3_E0EB1y_, symObjAddr: 0xA74, symBinAddr: 0x100016980, symSize: 0x34 }
  - { offset: 0x4009D, size: 0x8, addend: 0x0, symName: __RINvYINtNtNtNtCsfvfooZQ3Axs_4core4iter8adapters3map3MapIB4_INtNtNtBc_5slice4iter4IterTReB1m_EENCNvCsbGvsTGsJZQm_18build_script_build4mains_0ENCINvMCsdy4PFqiFpmx_20string_cache_codegenNtB2l_8AtomType5atomsBR_E0ENtNtNtBa_6traits8iterator8Iterator8for_eachNCINvXsl_NtNtNtCse1nGBsou5OW_5alloc11collections5btree3setINtB4c_8BTreeSetNtNtB4i_6string6StringEINtNtB3q_7collect6ExtendB5f_E6extendB3_E0EB1y_, symObjAddr: 0xAA8, symBinAddr: 0x1000169B4, symSize: 0x34 }
  - { offset: 0x400E8, size: 0x8, addend: 0x0, symName: __RINvYINtNtNtNtCsfvfooZQ3Axs_4core4iter8adapters3map3MapINtNtNtBc_3ops5range5RangejENCINvCsgq90m4oCT4f_13phf_generator17try_generate_hashReEs_0ENtNtNtBa_6traits8iterator8Iterator7collectINtNtCse1nGBsou5OW_5alloc3vec3VecNtB1m_6BucketEECsbGvsTGsJZQm_18build_script_build, symObjAddr: 0xADC, symBinAddr: 0x1000169E8, symSize: 0x2C }
  - { offset: 0x40128, size: 0x8, addend: 0x0, symName: __RINvYINtNtNtNtCsfvfooZQ3Axs_4core4iter8adapters3map3MapINtNtNtBc_3ops5range5RangejENCINvCsgq90m4oCT4f_13phf_generator17try_generate_hashReEs_0ENtNtNtBa_6traits8iterator8Iterator8for_eachNCINvMsi_NtCse1nGBsou5OW_5alloc3vecINtB37_3VecNtB1m_6BucketE14extend_trustedB3_E0ECsbGvsTGsJZQm_18build_script_build, symObjAddr: 0xB08, symBinAddr: 0x100016A14, symSize: 0x3C }
  - { offset: 0x40193, size: 0x8, addend: 0x0, symName: __RINvYINtNtNtNtCsfvfooZQ3Axs_4core4iter8adapters3map3MapINtNtNtBc_5slice4iter4IterReENCINvCsgq90m4oCT4f_13phf_generator17try_generate_hashB1h_E0ENtNtNtBa_6traits8iterator8Iterator7collectINtNtCse1nGBsou5OW_5alloc3vec3VecNtCsbvn0pgfta96_10phf_shared6HashesEECsbGvsTGsJZQm_18build_script_build, symObjAddr: 0xB44, symBinAddr: 0x100016A50, symSize: 0x1C }
  - { offset: 0x401D4, size: 0x8, addend: 0x0, symName: __RINvYINtNtNtNtCsfvfooZQ3Axs_4core4iter8adapters3map3MapINtNtNtBc_5slice4iter4IterReENCINvCsgq90m4oCT4f_13phf_generator17try_generate_hashB1h_E0ENtNtNtBa_6traits8iterator8Iterator8for_eachNCINvMsi_NtCse1nGBsou5OW_5alloc3vecINtB38_3VecNtCsbvn0pgfta96_10phf_shared6HashesE14extend_trustedB3_E0ECsbGvsTGsJZQm_18build_script_build, symObjAddr: 0xB60, symBinAddr: 0x100016A6C, symSize: 0x34 }
  - { offset: 0x40240, size: 0x8, addend: 0x0, symName: __RINvYINtNtNtNtCsfvfooZQ3Axs_4core4iter8adapters3map3MapINtNtNtBc_5slice4iter4IterTReB1i_EENCNvCsbGvsTGsJZQm_18build_script_build4main0ENtNtNtBa_6traits8iterator8Iterator3mapNtNtCse1nGBsou5OW_5alloc6string6StringNCINvMCsdy4PFqiFpmx_20string_cache_codegenNtB3t_8AtomType5atomsB3_E0EB1u_, symObjAddr: 0xB94, symBinAddr: 0x100016AA0, symSize: 0x1C }
  - { offset: 0x40298, size: 0x8, addend: 0x0, symName: __RINvYINtNtNtNtCsfvfooZQ3Axs_4core4iter8adapters3map3MapINtNtNtBc_5slice4iter4IterTReB1i_EENCNvCsbGvsTGsJZQm_18build_script_build4mains_0ENtNtNtBa_6traits8iterator8Iterator3mapNtNtCse1nGBsou5OW_5alloc6string6StringNCINvMCsdy4PFqiFpmx_20string_cache_codegenNtB3v_8AtomType5atomsB3_E0EB1u_, symObjAddr: 0xBB0, symBinAddr: 0x100016ABC, symSize: 0x1C }
  - { offset: 0x402F0, size: 0x8, addend: 0x0, symName: __RINvYINtNtNtNtCsfvfooZQ3Axs_4core4iter8adapters3map3MapINtNtNtBc_5slice4iter4IterTRemmEENCNvCsbGvsTGsJZQm_18build_script_build21named_entities_to_phf0ENtNtNtBa_6traits8iterator8Iterator7collectINtNtNtNtCscOYdFFY2T5N_3std11collections4hash3map7HashMapB1i_TmmEEEB1s_, symObjAddr: 0xBCC, symBinAddr: 0x100016AD8, symSize: 0x2C }
  - { offset: 0x40330, size: 0x8, addend: 0x0, symName: __RINvYINtNtNtNtCsfvfooZQ3Axs_4core4iter8adapters3map3MapINtNtNtBc_5slice4iter4IterTRemmEENCNvCsbGvsTGsJZQm_18build_script_build21named_entities_to_phf0ENtNtNtBa_6traits8iterator8Iterator8for_eachNCINvXs1i_NtCsloNvcHxBCre_9hashbrown3mapINtB3g_7HashMapB1i_TmmENtNtNtCscOYdFFY2T5N_3std4hash6random11RandomStateEINtNtB2t_7collect6ExtendTB1i_B43_EE6extendB3_E0EB1s_, symObjAddr: 0xBF8, symBinAddr: 0x100016B04, symSize: 0x34 }
  - { offset: 0x4037B, size: 0x8, addend: 0x0, symName: __RINvYINtNtNtNtCsfvfooZQ3Axs_4core4iter8adapters3map3MapINtNtNtCse1nGBsou5OW_5alloc3vec9into_iter8IntoIterINtNtBc_6option6OptionjEENCINvCsgq90m4oCT4f_13phf_generator17try_generate_hashReEs1_0ENtNtNtBa_6traits8iterator8Iterator7collectINtBW_3VecjEECsbGvsTGsJZQm_18build_script_build, symObjAddr: 0xC2C, symBinAddr: 0x100016B38, symSize: 0x1C }
  - { offset: 0x403BC, size: 0x8, addend: 0x0, symName: __RINvYINtNtNtNtCsfvfooZQ3Axs_4core4iter8adapters6cloned6ClonedINtNtNtNtCscOYdFFY2T5N_3std11collections4hash3map4KeysReTmmEEENtNtNtBa_6traits8iterator8Iterator7collectINtNtCse1nGBsou5OW_5alloc3vec3VecB1P_EECsbGvsTGsJZQm_18build_script_build, symObjAddr: 0xC48, symBinAddr: 0x100016B54, symSize: 0x1C }
  - { offset: 0x40409, size: 0x8, addend: 0x0, symName: __RNvXNtNtNtCsfvfooZQ3Axs_4core4iter6traits7collectINtNtNtB6_8adapters3map3MapIBM_INtNtNtB8_5slice4iter4IterTReB1H_EENCNvCsbGvsTGsJZQm_18build_script_build4main0ENCINvMCsdy4PFqiFpmx_20string_cache_codegenNtB2E_8AtomType5atomsB1c_E0ENtB2_12IntoIterator9into_iterB1T_, symObjAddr: 0x1F9C, symBinAddr: 0x100017EA8, symSize: 0x1C }
  - { offset: 0x40440, size: 0x8, addend: 0x0, symName: __RNvXNtNtNtCsfvfooZQ3Axs_4core4iter6traits7collectINtNtNtB6_8adapters3map3MapIBM_INtNtNtB8_5slice4iter4IterTReB1H_EENCNvCsbGvsTGsJZQm_18build_script_build4mains_0ENCINvMCsdy4PFqiFpmx_20string_cache_codegenNtB2G_8AtomType5atomsB1c_E0ENtB2_12IntoIterator9into_iterB1T_, symObjAddr: 0x1FB8, symBinAddr: 0x100017EC4, symSize: 0x1C }
  - { offset: 0x40477, size: 0x8, addend: 0x0, symName: __RNvXNtNtNtCsfvfooZQ3Axs_4core4iter6traits7collectINtNtNtB6_8adapters3map3MapINtNtNtB8_3ops5range5RangejENCINvCsgq90m4oCT4f_13phf_generator17try_generate_hashReEs_0ENtB2_12IntoIterator9into_iterCsbGvsTGsJZQm_18build_script_build, symObjAddr: 0x1FD4, symBinAddr: 0x100017EE0, symSize: 0x14 }
  - { offset: 0x404AE, size: 0x8, addend: 0x0, symName: __RNvXNtNtNtCsfvfooZQ3Axs_4core4iter6traits7collectINtNtNtB6_8adapters3map3MapINtNtNtB8_5slice4iter4IterReENCINvCsgq90m4oCT4f_13phf_generator17try_generate_hashB1C_E0ENtB2_12IntoIterator9into_iterCsbGvsTGsJZQm_18build_script_build, symObjAddr: 0x1FE8, symBinAddr: 0x100017EF4, symSize: 0x18 }
  - { offset: 0x404E5, size: 0x8, addend: 0x0, symName: __RNvXNtNtNtCsfvfooZQ3Axs_4core4iter6traits7collectINtNtNtB6_8adapters3map3MapINtNtNtB8_5slice4iter4IterTReB1D_EENCNvCsbGvsTGsJZQm_18build_script_build4main0ENtB2_12IntoIterator9into_iterB1P_, symObjAddr: 0x2000, symBinAddr: 0x100017F0C, symSize: 0x1C }
  - { offset: 0x4051C, size: 0x8, addend: 0x0, symName: __RNvXNtNtNtCsfvfooZQ3Axs_4core4iter6traits7collectINtNtNtB6_8adapters3map3MapINtNtNtB8_5slice4iter4IterTReB1D_EENCNvCsbGvsTGsJZQm_18build_script_build4mains_0ENtB2_12IntoIterator9into_iterB1P_, symObjAddr: 0x201C, symBinAddr: 0x100017F28, symSize: 0x1C }
  - { offset: 0x40553, size: 0x8, addend: 0x0, symName: __RNvXNtNtNtCsfvfooZQ3Axs_4core4iter6traits7collectINtNtNtB6_8adapters3map3MapINtNtNtB8_5slice4iter4IterTRemmEENCNvCsbGvsTGsJZQm_18build_script_build21named_entities_to_phf0ENtB2_12IntoIterator9into_iterB1N_, symObjAddr: 0x2038, symBinAddr: 0x100017F44, symSize: 0x1C }
  - { offset: 0x4058A, size: 0x8, addend: 0x0, symName: __RNvXNtNtNtCsfvfooZQ3Axs_4core4iter6traits7collectINtNtNtB6_8adapters3map3MapINtNtNtCse1nGBsou5OW_5alloc3vec9into_iter8IntoIterINtNtB8_6option6OptionjEENCINvCsgq90m4oCT4f_13phf_generator17try_generate_hashReEs1_0ENtB2_12IntoIterator9into_iterCsbGvsTGsJZQm_18build_script_build, symObjAddr: 0x2054, symBinAddr: 0x100017F60, symSize: 0x14 }
  - { offset: 0x405C1, size: 0x8, addend: 0x0, symName: __RNvXNtNtNtCsfvfooZQ3Axs_4core4iter6traits7collectINtNtNtB6_8adapters6cloned6ClonedINtNtNtNtCscOYdFFY2T5N_3std11collections4hash3map4KeysReTmmEEENtB2_12IntoIterator9into_iterCsbGvsTGsJZQm_18build_script_build, symObjAddr: 0x2068, symBinAddr: 0x100017F74, symSize: 0x30 }
  - { offset: 0x40852, size: 0x8, addend: 0x0, symName: __RNvNtNtCsfvfooZQ3Axs_4core4char7methods15encode_utf8_rawCsbGvsTGsJZQm_18build_script_build, symObjAddr: 0x1D18, symBinAddr: 0x100017C24, symSize: 0x228 }
  - { offset: 0x40A51, size: 0x8, addend: 0x0, symName: __RINvCsbvn0pgfta96_10phf_shared4hashReECsbGvsTGsJZQm_18build_script_build, symObjAddr: 0x0, symBinAddr: 0x100015F0C, symSize: 0x88 }
  - { offset: 0x40B0F, size: 0x8, addend: 0x0, symName: __RINvXs2_Csbvn0pgfta96_10phf_sharedReNtB6_7PhfHash8phf_hashNtNtCslgz3eGxzwqz_9siphasher6sip12811SipHasher13ECsbGvsTGsJZQm_18build_script_build, symObjAddr: 0x858, symBinAddr: 0x100016764, symSize: 0x4C }
  - { offset: 0x40B5D, size: 0x8, addend: 0x0, symName: __RINvXs6_Csbvn0pgfta96_10phf_sharedeNtB6_7PhfHash8phf_hashNtNtCslgz3eGxzwqz_9siphasher6sip12811SipHasher13ECsbGvsTGsJZQm_18build_script_build, symObjAddr: 0x940, symBinAddr: 0x10001684C, symSize: 0x4C }
  - { offset: 0x40BA2, size: 0x8, addend: 0x0, symName: __RINvXs7_Csbvn0pgfta96_10phf_sharedShNtB6_7PhfHash8phf_hashNtNtCslgz3eGxzwqz_9siphasher6sip12811SipHasher13ECsbGvsTGsJZQm_18build_script_build, symObjAddr: 0x98C, symBinAddr: 0x100016898, symSize: 0x58 }
  - { offset: 0x40BE2, size: 0x8, addend: 0x0, symName: __RNvCsbvn0pgfta96_10phf_shared8displaceCsbGvsTGsJZQm_18build_script_build, symObjAddr: 0x1334, symBinAddr: 0x100017240, symSize: 0x60 }
  - { offset: 0x40C3D, size: 0x8, addend: 0x0, symName: __RNvXs3_Csbvn0pgfta96_10phf_sharedRReNtB5_8FmtConst9fmt_constCsbGvsTGsJZQm_18build_script_build, symObjAddr: 0x2358, symBinAddr: 0x100018264, symSize: 0x40 }
  - { offset: 0x40C80, size: 0x8, addend: 0x0, symName: __RNvXs3_Csbvn0pgfta96_10phf_sharedReNtB5_8FmtConst9fmt_constCsbGvsTGsJZQm_18build_script_build, symObjAddr: 0x2398, symBinAddr: 0x1000182A4, symSize: 0x4C }
  - { offset: 0x40EC9, size: 0x8, addend: 0x0, symName: __RINvMNtNtNtNtCscOYdFFY2T5N_3std2io8buffered9bufreader6bufferNtB3_6Buffer8fill_bufQNtNtBb_2fs4FileECsbGvsTGsJZQm_18build_script_build, symObjAddr: 0x88, symBinAddr: 0x100015F94, symSize: 0x1CC }
  - { offset: 0x412AA, size: 0x8, addend: 0x0, symName: __RINvNtNtCse1nGBsou5OW_5alloc3vec16in_place_collect18from_iter_in_placeINtNtNtNtCsfvfooZQ3Axs_4core4iter8adapters3map3MapINtNtB4_9into_iter8IntoIterINtNtB1f_6option6OptionjEENCINvCsgq90m4oCT4f_13phf_generator17try_generate_hashReEs1_0EjECsbGvsTGsJZQm_18build_script_build, symObjAddr: 0x254, symBinAddr: 0x100016160, symSize: 0x25C }
  - { offset: 0x41704, size: 0x8, addend: 0x0, symName: __RNvXs1_NtNtCse1nGBsou5OW_5alloc3vec16in_place_collectINtNtNtNtCsfvfooZQ3Axs_4core4iter8adapters3map3MapINtNtB7_9into_iter8IntoIterINtNtBY_6option6OptionjEENCINvCsgq90m4oCT4f_13phf_generator17try_generate_hashReEs1_0EINtB5_18SpecInPlaceCollectjBP_E16collect_in_placeCsbGvsTGsJZQm_18build_script_build, symObjAddr: 0x2180, symBinAddr: 0x10001808C, symSize: 0x170 }
  - { offset: 0x41D7C, size: 0x8, addend: 0x0, symName: __RNvNtCse1nGBsou5OW_5alloc5alloc12alloc_zeroedCsbGvsTGsJZQm_18build_script_build, symObjAddr: 0x1C10, symBinAddr: 0x100017B1C, symSize: 0x84 }
  - { offset: 0x41E13, size: 0x8, addend: 0x0, symName: __RNvNtCse1nGBsou5OW_5alloc5alloc5allocCsbGvsTGsJZQm_18build_script_build, symObjAddr: 0x1C94, symBinAddr: 0x100017BA0, symSize: 0x84 }
  - { offset: 0x41EAF, size: 0x8, addend: 0x0, symName: __RNvXs1_NtCse1nGBsou5OW_5alloc5allocNtB5_6GlobalNtNtCsfvfooZQ3Axs_4core5clone5Clone5cloneCsbGvsTGsJZQm_18build_script_build, symObjAddr: 0x2170, symBinAddr: 0x10001807C, symSize: 0x10 }
  - { offset: 0x41EDD, size: 0x8, addend: 0x0, symName: __RNvXs2_NtCse1nGBsou5OW_5alloc5allocNtB5_6GlobalNtNtCsfvfooZQ3Axs_4core7default7Default7defaultCsbGvsTGsJZQm_18build_script_build, symObjAddr: 0x22F0, symBinAddr: 0x1000181FC, symSize: 0x4 }
  - { offset: 0x41F1F, size: 0x8, addend: 0x0, symName: __RNvXs_NtCse1nGBsou5OW_5alloc5allocNtB4_6GlobalNtNtCsfvfooZQ3Axs_4core5alloc9Allocator10deallocateCsbGvsTGsJZQm_18build_script_build, symObjAddr: 0x26E0, symBinAddr: 0x1000185EC, symSize: 0x88 }
  - { offset: 0x41FFA, size: 0x8, addend: 0x0, symName: __RNvXs_NtCse1nGBsou5OW_5alloc5allocNtB4_6GlobalNtNtCsfvfooZQ3Axs_4core5alloc9Allocator8allocateCsbGvsTGsJZQm_18build_script_build, symObjAddr: 0x2768, symBinAddr: 0x100018674, symSize: 0x34 }
  - { offset: 0x4229C, size: 0x8, addend: 0x0, symName: __RINvNtNtNtCse1nGBsou5OW_5alloc11collections5btree3mem7replaceINtNtB4_4node6HandleINtB10_7NodeRefNtNtB10_6marker5DyingNtNtB8_6string6StringNtNtB4_7set_val9SetValZSTNtB1y_4LeafENtB1y_4EdgeEIBY_IB1i_B1w_B1R_B2c_NtB1y_14LeafOrInternalENtB1y_2KVENCINvMsm_NtB4_8navigateBX_27deallocating_next_uncheckedNtNtB8_5alloc6GlobalE0ECsbGvsTGsJZQm_18build_script_build, symObjAddr: 0x4B0, symBinAddr: 0x1000163BC, symSize: 0xCC }
  - { offset: 0x423A5, size: 0x8, addend: 0x0, symName: __RINvXsl_NtNtNtCse1nGBsou5OW_5alloc11collections5btree3setINtB6_8BTreeSetNtNtBc_6string6StringEINtNtNtNtCsfvfooZQ3Axs_4core4iter6traits7collect6ExtendB18_E6extendINtNtNtB1B_8adapters3map3MapIB2A_INtNtNtB1D_5slice4iter4IterTReB3y_EENCNvCsbGvsTGsJZQm_18build_script_build4main0ENCINvMCsdy4PFqiFpmx_20string_cache_codegenNtB4v_8AtomType5atomsB31_E0EEB3K_, symObjAddr: 0x9E4, symBinAddr: 0x1000168F0, symSize: 0x48 }
  - { offset: 0x423F9, size: 0x8, addend: 0x0, symName: __RINvXsl_NtNtNtCse1nGBsou5OW_5alloc11collections5btree3setINtB6_8BTreeSetNtNtBc_6string6StringEINtNtNtNtCsfvfooZQ3Axs_4core4iter6traits7collect6ExtendB18_E6extendINtNtNtB1B_8adapters3map3MapIB2A_INtNtNtB1D_5slice4iter4IterTReB3y_EENCNvCsbGvsTGsJZQm_18build_script_build4mains_0ENCINvMCsdy4PFqiFpmx_20string_cache_codegenNtB4x_8AtomType5atomsB31_E0EEB3K_, symObjAddr: 0xA2C, symBinAddr: 0x100016938, symSize: 0x48 }
  - { offset: 0x42452, size: 0x8, addend: 0x0, symName: __RNCINvXsl_NtNtNtCse1nGBsou5OW_5alloc11collections5btree3setINtB8_8BTreeSetNtNtBe_6string6StringEINtNtNtNtCsfvfooZQ3Axs_4core4iter6traits7collect6ExtendB1a_E6extendINtNtNtB1D_8adapters3map3MapIB2C_INtNtNtB1F_5slice4iter4IterTReB3A_EENCNvCsbGvsTGsJZQm_18build_script_build4main0ENCINvMCsdy4PFqiFpmx_20string_cache_codegenNtB4x_8AtomType5atomsB33_E0EE0B3M_, symObjAddr: 0x125C, symBinAddr: 0x100017168, symSize: 0x38 }
  - { offset: 0x424D0, size: 0x8, addend: 0x0, symName: __RNCINvXsl_NtNtNtCse1nGBsou5OW_5alloc11collections5btree3setINtB8_8BTreeSetNtNtBe_6string6StringEINtNtNtNtCsfvfooZQ3Axs_4core4iter6traits7collect6ExtendB1a_E6extendINtNtNtB1D_8adapters3map3MapIB2C_INtNtNtB1F_5slice4iter4IterTReB3A_EENCNvCsbGvsTGsJZQm_18build_script_build4mains_0ENCINvMCsdy4PFqiFpmx_20string_cache_codegenNtB4z_8AtomType5atomsB33_E0EE0B3M_, symObjAddr: 0x1294, symBinAddr: 0x1000171A0, symSize: 0x38 }
  - { offset: 0x426E0, size: 0x8, addend: 0x0, symName: __RNvMs0_NtCse1nGBsou5OW_5alloc5boxedINtB5_3BoxShE16new_uninit_sliceCsbGvsTGsJZQm_18build_script_build, symObjAddr: 0x167C, symBinAddr: 0x100017588, symSize: 0x84 }
  - { offset: 0x42766, size: 0x8, addend: 0x0, symName: __RNvXs6_NtCse1nGBsou5OW_5alloc5boxedINtB5_3BoxSINtNtNtCsfvfooZQ3Axs_4core3mem12maybe_uninit11MaybeUninithEENtNtNtBP_3ops4drop4Drop4dropCsbGvsTGsJZQm_18build_script_build, symObjAddr: 0x248C, symBinAddr: 0x100018398, symSize: 0xBC }
  - { offset: 0x4307A, size: 0x8, addend: 0x0, symName: __RINvXs1i_NtCsloNvcHxBCre_9hashbrown3mapINtB7_7HashMapReTmmENtNtNtCscOYdFFY2T5N_3std4hash6random11RandomStateEINtNtNtNtCsfvfooZQ3Axs_4core4iter6traits7collect6ExtendTBP_BR_EE6extendINtNtNtB1Q_8adapters3map3MapINtNtNtB1S_5slice4iter4IterTBP_mmEENCNvCsbGvsTGsJZQm_18build_script_build21named_entities_to_phf0EEB3X_, symObjAddr: 0x750, symBinAddr: 0x10001665C, symSize: 0x108 }
  - { offset: 0x43188, size: 0x8, addend: 0x0, symName: __RNCINvXs1i_NtCsloNvcHxBCre_9hashbrown3mapINtB9_7HashMapReTmmENtNtNtCscOYdFFY2T5N_3std4hash6random11RandomStateEINtNtNtNtCsfvfooZQ3Axs_4core4iter6traits7collect6ExtendTBR_BT_EE6extendINtNtNtB1S_8adapters3map3MapINtNtNtB1U_5slice4iter4IterTBR_mmEENCNvCsbGvsTGsJZQm_18build_script_build21named_entities_to_phf0EE0B3Z_, symObjAddr: 0x120C, symBinAddr: 0x100017118, symSize: 0x50 }
  - { offset: 0x4326E, size: 0x8, addend: 0x0, symName: __RNCINvNtCsloNvcHxBCre_9hashbrown3map11make_hasherRReuNtNtNtCscOYdFFY2T5N_3std4hash6random11RandomStateE0CsbGvsTGsJZQm_18build_script_build, symObjAddr: 0xD6C, symBinAddr: 0x100016C78, symSize: 0x3C }
  - { offset: 0x432EA, size: 0x8, addend: 0x0, symName: __RNCINvNtCsloNvcHxBCre_9hashbrown3map11make_hasherReTmmENtNtNtCscOYdFFY2T5N_3std4hash6random11RandomStateE0CsbGvsTGsJZQm_18build_script_build, symObjAddr: 0xDA8, symBinAddr: 0x100016CB4, symSize: 0x3C }
  - { offset: 0x433A5, size: 0x8, addend: 0x0, symName: __RNCINvNtCsloNvcHxBCre_9hashbrown3map14equivalent_keyRReBO_uE0CsbGvsTGsJZQm_18build_script_build, symObjAddr: 0xDE4, symBinAddr: 0x100016CF0, symSize: 0x30 }
  - { offset: 0x433FC, size: 0x8, addend: 0x0, symName: __RNCINvNtCsloNvcHxBCre_9hashbrown3map14equivalent_keyReBO_TmmEE0CsbGvsTGsJZQm_18build_script_build, symObjAddr: 0xE14, symBinAddr: 0x100016D20, symSize: 0x30 }
  - { offset: 0x4364C, size: 0x8, addend: 0x0, symName: __RNvXs5_NtCsloNvcHxBCre_9hashbrown3mapINtB5_7HashMapRReuNtNtNtCscOYdFFY2T5N_3std4hash6random11RandomStateENtNtCsfvfooZQ3Axs_4core7default7Default7defaultCsbGvsTGsJZQm_18build_script_build, symObjAddr: 0x2400, symBinAddr: 0x10001830C, symSize: 0x8C }
  - { offset: 0x436D0, size: 0x8, addend: 0x0, symName: __RNvXsE_NtCsloNvcHxBCre_9hashbrown3mapINtB5_7HashMapReTmmENtNtNtCscOYdFFY2T5N_3std4hash6random11RandomStateENtNtNtNtCsfvfooZQ3Axs_4core4iter6traits7collect12IntoIterator9into_iterCsbGvsTGsJZQm_18build_script_build, symObjAddr: 0x256C, symBinAddr: 0x100018478, symSize: 0x6C }
  - { offset: 0x43729, size: 0x8, addend: 0x0, symName: __RNvXsG_NtCsloNvcHxBCre_9hashbrown3mapINtB5_4IterReTmmEENtNtNtNtCsfvfooZQ3Axs_4core4iter6traits8iterator8Iterator4nextCsbGvsTGsJZQm_18build_script_build, symObjAddr: 0x25D8, symBinAddr: 0x1000184E4, symSize: 0xF8 }
  - { offset: 0x43DDB, size: 0x8, addend: 0x0, symName: __RNvMNtCse1nGBsou5OW_5alloc5allocNtB2_6Global10alloc_implCsbGvsTGsJZQm_18build_script_build, symObjAddr: 0x1394, symBinAddr: 0x1000172A0, symSize: 0x194 }
  - { offset: 0x44146, size: 0x8, addend: 0x0, symName: __RNvMNtCsloNvcHxBCre_9hashbrown11rustc_entryINtNtB4_3map7HashMapReTmmENtNtNtCscOYdFFY2T5N_3std4hash6random11RandomStateE11rustc_entryCsbGvsTGsJZQm_18build_script_build, symObjAddr: 0x1550, symBinAddr: 0x10001745C, symSize: 0x12C }
  - { offset: 0x4439B, size: 0x8, addend: 0x0, symName: __RNvMs0_NtCsloNvcHxBCre_9hashbrown3mapINtB5_7HashMapReTmmENtNtNtCscOYdFFY2T5N_3std4hash6random11RandomStateE4iterCsbGvsTGsJZQm_18build_script_build, symObjAddr: 0x1700, symBinAddr: 0x10001760C, symSize: 0xC8 }
  - { offset: 0x44612, size: 0x8, addend: 0x0, symName: __RNvMs1_NtCsloNvcHxBCre_9hashbrown3mapINtB5_7HashMapRReuNtNtNtCscOYdFFY2T5N_3std4hash6random11RandomStateE6insertCsbGvsTGsJZQm_18build_script_build, symObjAddr: 0x17C8, symBinAddr: 0x1000176D4, symSize: 0x17C }
  - { offset: 0x44847, size: 0x8, addend: 0x0, symName: __RNvMs1_NtCsloNvcHxBCre_9hashbrown3mapINtB5_7HashMapReTmmENtNtNtCscOYdFFY2T5N_3std4hash6random11RandomStateE6insertCsbGvsTGsJZQm_18build_script_build, symObjAddr: 0x1944, symBinAddr: 0x100017850, symSize: 0x1E4 }
  - { offset: 0x44A63, size: 0x8, addend: 0x0, symName: __RNvMs1_NtNtCsfvfooZQ3Axs_4core3ptr8non_nullINtB5_7NonNullTReBU_EE7sub_ptrCsbGvsTGsJZQm_18build_script_build, symObjAddr: 0x1B28, symBinAddr: 0x100017A34, symSize: 0x74 }
  - { offset: 0x44B92, size: 0x8, addend: 0x0, symName: __RNvMs1_NtNtCsfvfooZQ3Axs_4core3ptr8non_nullINtB5_7NonNullTRemmEE7sub_ptrCsbGvsTGsJZQm_18build_script_build, symObjAddr: 0x1B9C, symBinAddr: 0x100017AA8, symSize: 0x74 }
  - { offset: 0x45249, size: 0x8, addend: 0x0, symName: __RINvMNtNtNtCse1nGBsou5OW_5alloc11collections5btree4nodeINtB3_8LeafNodeNtNtB9_6string6StringNtNtB5_7set_val9SetValZSTE3newNtNtB9_5alloc6GlobalECsdy4PFqiFpmx_20string_cache_codegen, symObjAddr: 0x0, symBinAddr: 0x10001884C, symSize: 0x68 }
  - { offset: 0x49DEF, size: 0x8, addend: 0x0, symName: __RINvNtNtNtCse1nGBsou5OW_5alloc11collections5btree4node12slice_insertINtNtNtCsfvfooZQ3Axs_4core3ptr8non_null7NonNullINtB2_8LeafNodeNtNtB8_6string6StringNtNtB4_7set_val9SetValZSTEEECsdy4PFqiFpmx_20string_cache_codegen, symObjAddr: 0x1A1C, symBinAddr: 0x10001A268, symSize: 0x114 }
  - { offset: 0x49F73, size: 0x8, addend: 0x0, symName: __RINvNtNtNtCse1nGBsou5OW_5alloc11collections5btree4node12slice_insertNtNtB4_7set_val9SetValZSTECsdy4PFqiFpmx_20string_cache_codegen, symObjAddr: 0x1B30, symBinAddr: 0x10001A37C, symSize: 0xD0 }
  - { offset: 0x4A088, size: 0x8, addend: 0x0, symName: __RINvNtNtNtCse1nGBsou5OW_5alloc11collections5btree4node12slice_insertNtNtB8_6string6StringECsdy4PFqiFpmx_20string_cache_codegen, symObjAddr: 0x1C00, symBinAddr: 0x10001A44C, symSize: 0x150 }
  - { offset: 0x4A20F, size: 0x8, addend: 0x0, symName: __RINvNtNtNtCse1nGBsou5OW_5alloc11collections5btree4node13move_to_sliceINtNtNtCsfvfooZQ3Axs_4core3ptr8non_null7NonNullINtB2_8LeafNodeNtNtB8_6string6StringNtNtB4_7set_val9SetValZSTEEECsdy4PFqiFpmx_20string_cache_codegen, symObjAddr: 0x1D50, symBinAddr: 0x10001A59C, symSize: 0xA8 }
  - { offset: 0x4A2BB, size: 0x8, addend: 0x0, symName: __RINvNtNtNtCse1nGBsou5OW_5alloc11collections5btree4node13move_to_sliceNtNtB4_7set_val9SetValZSTECsdy4PFqiFpmx_20string_cache_codegen, symObjAddr: 0x1DF8, symBinAddr: 0x10001A644, symSize: 0xAC }
  - { offset: 0x4A367, size: 0x8, addend: 0x0, symName: __RINvNtNtNtCse1nGBsou5OW_5alloc11collections5btree4node13move_to_sliceNtNtB8_6string6StringECsdy4PFqiFpmx_20string_cache_codegen, symObjAddr: 0x1EA4, symBinAddr: 0x10001A6F0, symSize: 0xB0 }
  - { offset: 0x4A41D, size: 0x8, addend: 0x0, symName: __RNCINvMss_NtNtNtCse1nGBsou5OW_5alloc11collections5btree4nodeINtB8_7NodeRefNtNtB8_6marker5OwnedNtNtBe_6string6StringNtNtBa_7set_val9SetValZSTNtB1c_14LeafOrInternalE19push_internal_levelNtNtBe_5alloc6GlobalE0Csdy4PFqiFpmx_20string_cache_codegen, symObjAddr: 0x1F54, symBinAddr: 0x10001A7A0, symSize: 0x34 }
  - { offset: 0x4B3B4, size: 0x8, addend: 0x0, symName: __RINvMNtNtNtCse1nGBsou5OW_5alloc11collections5btree4nodeINtB3_8LeafNodeNtNtB9_6string6StringNtNtB5_7set_val9SetValZSTE3newNtNtB9_5alloc6GlobalECsdy4PFqiFpmx_20string_cache_codegen, symObjAddr: 0x0, symBinAddr: 0x10001884C, symSize: 0x68 }
  - { offset: 0x4B70F, size: 0x8, addend: 0x0, symName: __RINvMs0_NtNtNtCse1nGBsou5OW_5alloc11collections5btree6searchINtNtB8_4node7NodeRefNtNtBZ_6marker3MutNtNtBc_6string6StringNtNtB8_7set_val9SetValZSTNtB1j_14LeafOrInternalE14find_key_indexB1z_ECsdy4PFqiFpmx_20string_cache_codegen, symObjAddr: 0x68, symBinAddr: 0x1000188B4, symSize: 0x1E4 }
  - { offset: 0x4BACC, size: 0x8, addend: 0x0, symName: __RINvMs8_NtNtNtCse1nGBsou5OW_5alloc11collections5btree4nodeINtB6_7NodeRefNtNtB6_6marker5OwnedNtNtBc_6string6StringNtNtB8_7set_val9SetValZSTNtB1a_4LeafE8new_leafNtNtBc_5alloc6GlobalECsdy4PFqiFpmx_20string_cache_codegen, symObjAddr: 0x24C, symBinAddr: 0x100018A98, symSize: 0x38 }
  - { offset: 0x4BBFB, size: 0x8, addend: 0x0, symName: __RINvMs9_NtNtNtCse1nGBsou5OW_5alloc11collections5btree4nodeINtB6_7NodeRefNtNtB6_6marker5OwnedNtNtBc_6string6StringNtNtB8_7set_val9SetValZSTNtB1a_8InternalE12new_internalNtNtBc_5alloc6GlobalECsdy4PFqiFpmx_20string_cache_codegen, symObjAddr: 0x284, symBinAddr: 0x100018AD0, symSize: 0x98 }
  - { offset: 0x4BE53, size: 0x8, addend: 0x0, symName: __RINvMs9_NtNtNtCse1nGBsou5OW_5alloc11collections5btree4nodeINtB6_7NodeRefNtNtB6_6marker5OwnedNtNtBc_6string6StringNtNtB8_7set_val9SetValZSTNtB1a_8InternalE17from_new_internalNtNtBc_5alloc6GlobalECsdy4PFqiFpmx_20string_cache_codegen, symObjAddr: 0x31C, symBinAddr: 0x100018B68, symSize: 0xC0 }
  - { offset: 0x4C281, size: 0x8, addend: 0x0, symName: __RINvMsK_NtNtNtCse1nGBsou5OW_5alloc11collections5btree4nodeINtB6_6HandleINtB6_7NodeRefNtNtB6_6marker3MutNtNtBc_6string6StringNtNtB8_7set_val9SetValZSTNtB1n_4LeafENtB1n_4EdgeE6insertNtNtBc_5alloc6GlobalECsdy4PFqiFpmx_20string_cache_codegen, symObjAddr: 0x3DC, symBinAddr: 0x100018C28, symSize: 0x50C }
  - { offset: 0x4C693, size: 0x8, addend: 0x0, symName: __RINvMsM_NtNtNtCse1nGBsou5OW_5alloc11collections5btree4nodeINtB6_6HandleINtB6_7NodeRefNtNtB6_6marker3MutNtNtBc_6string6StringNtNtB8_7set_val9SetValZSTNtB1n_8InternalENtB1n_4EdgeE6insertNtNtBc_5alloc6GlobalECsdy4PFqiFpmx_20string_cache_codegen, symObjAddr: 0x8E8, symBinAddr: 0x100019134, symSize: 0x57C }
  - { offset: 0x4C966, size: 0x8, addend: 0x0, symName: __RINvMsN_NtNtNtCse1nGBsou5OW_5alloc11collections5btree4nodeINtB6_6HandleINtB6_7NodeRefNtNtB6_6marker3MutNtNtBc_6string6StringNtNtB8_7set_val9SetValZSTNtB1n_4LeafENtB1n_4EdgeE16insert_recursingNtNtBc_5alloc6GlobalNCNvMs6_NtNtB8_3map5entryINtB3v_11VacantEntryB1D_B1Y_E12insert_entry0ECsdy4PFqiFpmx_20string_cache_codegen, symObjAddr: 0xE64, symBinAddr: 0x1000196B0, symSize: 0x488 }
  - { offset: 0x4CC12, size: 0x8, addend: 0x0, symName: __RINvMsV_NtNtNtCse1nGBsou5OW_5alloc11collections5btree4nodeINtB6_6HandleINtB6_7NodeRefNtNtB6_6marker3MutNtNtBc_6string6StringNtNtB8_7set_val9SetValZSTNtB1n_4LeafENtB1n_2KVE5splitNtNtBc_5alloc6GlobalECsdy4PFqiFpmx_20string_cache_codegen, symObjAddr: 0x12EC, symBinAddr: 0x100019B38, symSize: 0xE0 }
  - { offset: 0x4CE6F, size: 0x8, addend: 0x0, symName: __RINvMsW_NtNtNtCse1nGBsou5OW_5alloc11collections5btree4nodeINtB6_6HandleINtB6_7NodeRefNtNtB6_6marker3MutNtNtBc_6string6StringNtNtB8_7set_val9SetValZSTNtB1n_8InternalENtB1n_2KVE5splitNtNtBc_5alloc6GlobalECsdy4PFqiFpmx_20string_cache_codegen, symObjAddr: 0x13CC, symBinAddr: 0x100019C18, symSize: 0x240 }
  - { offset: 0x4D212, size: 0x8, addend: 0x0, symName: __RINvMs_NtNtNtCse1nGBsou5OW_5alloc11collections5btree4nodeINtB5_12InternalNodeNtNtBb_6string6StringNtNtB7_7set_val9SetValZSTE3newNtNtBb_5alloc6GlobalECsdy4PFqiFpmx_20string_cache_codegen, symObjAddr: 0x160C, symBinAddr: 0x100019E58, symSize: 0x68 }
  - { offset: 0x4D509, size: 0x8, addend: 0x0, symName: __RINvMs_NtNtNtCse1nGBsou5OW_5alloc11collections5btree6searchINtNtB7_4node7NodeRefNtNtBY_6marker3MutNtNtBb_6string6StringNtNtB7_7set_val9SetValZSTNtB1i_14LeafOrInternalE11search_treeB1y_ECsdy4PFqiFpmx_20string_cache_codegen, symObjAddr: 0x1674, symBinAddr: 0x100019EC0, symSize: 0x240 }
  - { offset: 0x4D74E, size: 0x8, addend: 0x0, symName: __RINvMsp_NtNtNtCse1nGBsou5OW_5alloc11collections5btree4nodeINtB6_7NodeRefNtNtB6_6marker3MutNtNtBc_6string6StringNtNtB8_7set_val9SetValZSTNtB1a_8InternalE30correct_childrens_parent_linksINtNtNtCsfvfooZQ3Axs_4core3ops5range14RangeInclusivejEECsdy4PFqiFpmx_20string_cache_codegen, symObjAddr: 0x18B4, symBinAddr: 0x10001A100, symSize: 0xB4 }
  - { offset: 0x4D885, size: 0x8, addend: 0x0, symName: __RINvMsp_NtNtNtCse1nGBsou5OW_5alloc11collections5btree4nodeINtB6_7NodeRefNtNtB6_6marker3MutNtNtBc_6string6StringNtNtB8_7set_val9SetValZSTNtB1a_8InternalE30correct_childrens_parent_linksINtNtNtCsfvfooZQ3Axs_4core3ops5range5RangejEECsdy4PFqiFpmx_20string_cache_codegen, symObjAddr: 0x1968, symBinAddr: 0x10001A1B4, symSize: 0xB4 }
  - { offset: 0x4DC95, size: 0x8, addend: 0x0, symName: __RNvMsJ_NtNtNtCse1nGBsou5OW_5alloc11collections5btree4nodeINtB5_6HandleINtB5_7NodeRefNtNtB5_6marker3MutNtNtBb_6string6StringNtNtB7_7set_val9SetValZSTNtB1m_4LeafENtB1m_4EdgeE10insert_fitCsdy4PFqiFpmx_20string_cache_codegen, symObjAddr: 0x1F88, symBinAddr: 0x10001A7D4, symSize: 0x1E4 }
  - { offset: 0x4E119, size: 0x8, addend: 0x0, symName: __RNvMsL_NtNtNtCse1nGBsou5OW_5alloc11collections5btree4nodeINtB5_6HandleINtB5_7NodeRefNtNtB5_6marker3MutNtNtBb_6string6StringNtNtB7_7set_val9SetValZSTNtB1m_8InternalENtB1m_4EdgeE19correct_parent_linkCsdy4PFqiFpmx_20string_cache_codegen, symObjAddr: 0x216C, symBinAddr: 0x10001A9B8, symSize: 0xA4 }
  - { offset: 0x4E465, size: 0x8, addend: 0x0, symName: __RNvMsM_NtNtNtCse1nGBsou5OW_5alloc11collections5btree4nodeINtB5_6HandleINtB5_7NodeRefNtNtB5_6marker3MutNtNtBb_6string6StringNtNtB7_7set_val9SetValZSTNtB1m_8InternalENtB1m_4EdgeE10insert_fitCsdy4PFqiFpmx_20string_cache_codegen, symObjAddr: 0x2210, symBinAddr: 0x10001AA5C, symSize: 0x27C }
  - { offset: 0x4E9E5, size: 0x8, addend: 0x0, symName: __RNvMsO_NtNtNtCse1nGBsou5OW_5alloc11collections5btree4nodeINtB5_6HandleINtB5_7NodeRefNtNtB5_6marker3MutNtNtBb_6string6StringNtNtB7_7set_val9SetValZSTNtB1m_8InternalENtB1m_4EdgeE7descendCsdy4PFqiFpmx_20string_cache_codegen, symObjAddr: 0x248C, symBinAddr: 0x10001ACD8, symSize: 0x94 }
  - { offset: 0x4EBE9, size: 0x8, addend: 0x0, symName: __RNvMsO_NtNtNtCse1nGBsou5OW_5alloc11collections5btree4nodeINtB5_6HandleINtB5_7NodeRefNtNtB5_6marker5ImmutNtNtBb_6string6StringNtNtB7_7set_val9SetValZSTNtB1m_8InternalENtB1m_4EdgeE7descendCsdy4PFqiFpmx_20string_cache_codegen, symObjAddr: 0x2520, symBinAddr: 0x10001AD6C, symSize: 0x94 }
  - { offset: 0x4EEEA, size: 0x8, addend: 0x0, symName: __RNvMsP_NtNtNtCse1nGBsou5OW_5alloc11collections5btree4nodeINtB5_6HandleINtB5_7NodeRefNtNtB5_6marker5ImmutNtNtBb_6string6StringNtNtB7_7set_val9SetValZSTNtB1m_14LeafOrInternalENtB1m_2KVE7into_kvCsdy4PFqiFpmx_20string_cache_codegen, symObjAddr: 0x25B4, symBinAddr: 0x10001AE00, symSize: 0xE0 }
  - { offset: 0x4F1AF, size: 0x8, addend: 0x0, symName: __RNvMsQ_NtNtNtCse1nGBsou5OW_5alloc11collections5btree4nodeINtB5_6HandleINtB5_7NodeRefNtNtB5_6marker3MutNtNtBb_6string6StringNtNtB7_7set_val9SetValZSTNtB1m_14LeafOrInternalENtB1m_2KVE12into_val_mutCsdy4PFqiFpmx_20string_cache_codegen, symObjAddr: 0x2694, symBinAddr: 0x10001AEE0, symSize: 0x80 }
  - { offset: 0x4F396, size: 0x8, addend: 0x0, symName: __RNvMsS_NtNtNtCse1nGBsou5OW_5alloc11collections5btree4nodeINtB5_6HandleINtB5_7NodeRefNtNtB5_6marker3MutNtNtBb_6string6StringNtNtB7_7set_val9SetValZSTNtB1m_14LeafOrInternalENtB1m_2KVE6kv_mutCsdy4PFqiFpmx_20string_cache_codegen, symObjAddr: 0x2714, symBinAddr: 0x10001AF60, symSize: 0xEC }
  - { offset: 0x4F808, size: 0x8, addend: 0x0, symName: __RNvMsU_NtNtNtCse1nGBsou5OW_5alloc11collections5btree4nodeINtB5_6HandleINtB5_7NodeRefNtNtB5_6marker3MutNtNtBb_6string6StringNtNtB7_7set_val9SetValZSTNtB1m_4LeafENtB1m_2KVE15split_leaf_dataCsdy4PFqiFpmx_20string_cache_codegen, symObjAddr: 0x2800, symBinAddr: 0x10001B04C, symSize: 0x3B4 }
  - { offset: 0x5020E, size: 0x8, addend: 0x0, symName: __RNvMsU_NtNtNtCse1nGBsou5OW_5alloc11collections5btree4nodeINtB5_6HandleINtB5_7NodeRefNtNtB5_6marker3MutNtNtBb_6string6StringNtNtB7_7set_val9SetValZSTNtB1m_8InternalENtB1m_2KVE15split_leaf_dataCsdy4PFqiFpmx_20string_cache_codegen, symObjAddr: 0x2BB4, symBinAddr: 0x10001B400, symSize: 0x3B4 }
  - { offset: 0x50ABB, size: 0x8, addend: 0x0, symName: __RNvMse_NtNtNtCse1nGBsou5OW_5alloc11collections5btree4nodeINtB5_7NodeRefNtNtB5_6marker3MutNtNtBb_6string6StringNtNtB7_7set_val9SetValZSTNtB19_14LeafOrInternalE6ascendCsdy4PFqiFpmx_20string_cache_codegen, symObjAddr: 0x2F68, symBinAddr: 0x10001B7B4, symSize: 0x168 }
  - { offset: 0x50CFF, size: 0x8, addend: 0x0, symName: __RNvMse_NtNtNtCse1nGBsou5OW_5alloc11collections5btree4nodeINtB5_7NodeRefNtNtB5_6marker5ImmutNtNtBb_6string6StringNtNtB7_7set_val9SetValZSTNtB19_14LeafOrInternalE6ascendCsdy4PFqiFpmx_20string_cache_codegen, symObjAddr: 0x30D0, symBinAddr: 0x10001B91C, symSize: 0x168 }
  - { offset: 0x50EDF, size: 0x8, addend: 0x0, symName: __RNvMsg_NtNtNtCse1nGBsou5OW_5alloc11collections5btree4nodeINtB5_7NodeRefNtNtB5_6marker5ImmutNtNtBb_6string6StringNtNtB7_7set_val9SetValZSTNtB19_14LeafOrInternalE4keysCsdy4PFqiFpmx_20string_cache_codegen, symObjAddr: 0x3238, symBinAddr: 0x10001BA84, symSize: 0xA0 }
  - { offset: 0x511C3, size: 0x8, addend: 0x0, symName: __RNvMsh_NtNtNtCse1nGBsou5OW_5alloc11collections5btree8navigateINtNtB7_4node6HandleINtB10_7NodeRefNtNtB10_6marker5ImmutNtNtBb_6string6StringNtNtB7_7set_val9SetValZSTNtB1y_4LeafENtB1y_4EdgeE7next_kvCsdy4PFqiFpmx_20string_cache_codegen, symObjAddr: 0x32D8, symBinAddr: 0x10001BB24, symSize: 0x194 }
  - { offset: 0x515B3, size: 0x8, addend: 0x0, symName: __RNvMsp_NtNtNtCse1nGBsou5OW_5alloc11collections5btree8navigateINtNtB7_4node6HandleINtB10_7NodeRefNtNtB10_6marker5ImmutNtNtBb_6string6StringNtNtB7_7set_val9SetValZSTNtB1y_14LeafOrInternalENtB1y_2KVE14next_leaf_edgeCsdy4PFqiFpmx_20string_cache_codegen, symObjAddr: 0x346C, symBinAddr: 0x10001BCB8, symSize: 0x210 }
  - { offset: 0x519D1, size: 0x8, addend: 0x0, symName: __RNvMsu_NtNtNtCse1nGBsou5OW_5alloc11collections5btree4nodeINtB5_7NodeRefNtNtB5_6marker3MutNtNtBb_6string6StringNtNtB7_7set_val9SetValZSTNtB19_4LeafE16push_with_handleCsdy4PFqiFpmx_20string_cache_codegen, symObjAddr: 0x367C, symBinAddr: 0x10001BEC8, symSize: 0x1E0 }
  - { offset: 0x52002, size: 0x8, addend: 0x0, symName: __RNvMsv_NtNtNtCse1nGBsou5OW_5alloc11collections5btree4nodeINtB5_7NodeRefNtNtB5_6marker3MutNtNtBb_6string6StringNtNtB7_7set_val9SetValZSTNtB19_8InternalE4pushCsdy4PFqiFpmx_20string_cache_codegen, symObjAddr: 0x385C, symBinAddr: 0x10001C0A8, symSize: 0x2D8 }
  - { offset: 0x52513, size: 0x8, addend: 0x0, symName: __RINvMsi_NtCse1nGBsou5OW_5alloc3vecINtB6_3VecNtCs3cP53eQoTwO_11proc_macro25IdentE14extend_trustedINtNtNtNtCsfvfooZQ3Axs_4core4iter8adapters3map3MapINtNtB1B_6copied6CopiedINtNtNtB1F_5slice4iter4IterReEENCNvMCsdy4PFqiFpmx_20string_cache_codegenNtB3h_8AtomType9to_tokenss3_0EEB3h_, symObjAddr: 0x0, symBinAddr: 0x10001C380, symSize: 0x17C }
  - { offset: 0x54F34, size: 0x8, addend: 0x0, symName: __RNvXsf_NtCsfvfooZQ3Axs_4core5tupleTINtNtCse1nGBsou5OW_5alloc3vec3VecNtCs3cP53eQoTwO_11proc_macro25IdentEIBy_TyhEEENtNtB7_7default7Default7defaultCsdy4PFqiFpmx_20string_cache_codegen, symObjAddr: 0x2170, symBinAddr: 0x10001E4F0, symSize: 0x8C }
  - { offset: 0x54F81, size: 0x8, addend: 0x0, symName: __RNvXsf_NtCsfvfooZQ3Axs_4core5tupleTINtNtCse1nGBsou5OW_5alloc3vec3VecmEBx_ENtNtB7_7default7Default7defaultCsdy4PFqiFpmx_20string_cache_codegen, symObjAddr: 0x21FC, symBinAddr: 0x10001E57C, symSize: 0x8C }
  - { offset: 0x54FCE, size: 0x8, addend: 0x0, symName: __RNvXsf_NtCsfvfooZQ3Axs_4core5tupleTINtNtCse1nGBsou5OW_5alloc3vec3VecyEIBy_hEENtNtB7_7default7Default7defaultCsdy4PFqiFpmx_20string_cache_codegen, symObjAddr: 0x2288, symBinAddr: 0x10001E608, symSize: 0x8C }
  - { offset: 0x56705, size: 0x8, addend: 0x0, symName: __RINvXsd_NtCse1nGBsou5OW_5alloc3vecINtB6_3VecNtCs3cP53eQoTwO_11proc_macro25IdentEINtNtNtNtCsfvfooZQ3Axs_4core4iter6traits7collect12FromIteratorBG_E9from_iterINtNtNtB1n_8adapters3map3MapINtNtB2z_6copied6CopiedINtNtNtB1p_5slice4iter4IterReEENCNvMCsdy4PFqiFpmx_20string_cache_codegenNtB3T_8AtomType9to_tokenss3_0EEB3T_, symObjAddr: 0x76C, symBinAddr: 0x10001CAEC, symSize: 0x3C }
  - { offset: 0x56746, size: 0x8, addend: 0x0, symName: __RINvXsd_NtCse1nGBsou5OW_5alloc3vecINtB6_3VecReEINtNtNtNtCsfvfooZQ3Axs_4core4iter6traits7collect12FromIteratorBG_E9from_iterINtNtNtBQ_8adapters3map3MapINtNtNtBS_5slice4iter4IterjENCNvMCsdy4PFqiFpmx_20string_cache_codegenNtB2V_8AtomType9to_tokenss_0EEB2V_, symObjAddr: 0x7A8, symBinAddr: 0x10001CB28, symSize: 0x3C }
  - { offset: 0x56787, size: 0x8, addend: 0x0, symName: __RINvXsd_NtCse1nGBsou5OW_5alloc3vecINtB6_3VecjEINtNtNtNtCsfvfooZQ3Axs_4core4iter6traits7collect12FromIteratorjE9from_iterINtNtNtBP_8adapters3map3MapINtNtB6_9into_iter8IntoIterINtNtBR_6option6OptionjEENCNCINvCs6nR6nErDO7j_13phf_generator26generate_hash_with_hash_fnReINvCs9tf12AD4ZJa_10phf_shared4hashB4d_EEs_00EECsdy4PFqiFpmx_20string_cache_codegen, symObjAddr: 0x7E4, symBinAddr: 0x10001CB64, symSize: 0x3C }
  - { offset: 0x567C8, size: 0x8, addend: 0x0, symName: __RINvXsd_NtCse1nGBsou5OW_5alloc3vecINtB6_3VecmEINtNtNtNtCsfvfooZQ3Axs_4core4iter6traits7collect12FromIteratormE9from_iterINtNtNtBP_8adapters3map3MapINtNtNtBR_5slice4iter4IterReENCNvMCsdy4PFqiFpmx_20string_cache_codegenNtB2T_8AtomType9to_tokenss1_0EEB2T_, symObjAddr: 0x820, symBinAddr: 0x10001CBA0, symSize: 0x3C }
  - { offset: 0x5680F, size: 0x8, addend: 0x0, symName: __RINvXsh_NtCse1nGBsou5OW_5alloc3vecINtB6_3VecNtCs9tf12AD4ZJa_10phf_shared6HashesEINtNtNtNtCsfvfooZQ3Axs_4core4iter6traits7collect6ExtendBG_E6extendINtNtNtB1n_8adapters3map3MapINtNtNtB1p_5slice4iter4IterReENCNCINvCs6nR6nErDO7j_13phf_generator26generate_hash_with_hash_fnB3d_INvBI_4hashB3d_EE00EECsdy4PFqiFpmx_20string_cache_codegen, symObjAddr: 0x85C, symBinAddr: 0x10001CBDC, symSize: 0x48 }
  - { offset: 0x56864, size: 0x8, addend: 0x0, symName: __RNvXsh_NtCse1nGBsou5OW_5alloc3vecINtB5_3VecNtCs3cP53eQoTwO_11proc_macro25IdentEINtNtNtNtCsfvfooZQ3Axs_4core4iter6traits7collect6ExtendBF_E10extend_oneCsdy4PFqiFpmx_20string_cache_codegen, symObjAddr: 0x2314, symBinAddr: 0x10001E694, symSize: 0x24 }
  - { offset: 0x568B0, size: 0x8, addend: 0x0, symName: __RNvXsh_NtCse1nGBsou5OW_5alloc3vecINtB5_3VecNtCs3cP53eQoTwO_11proc_macro25IdentEINtNtNtNtCsfvfooZQ3Axs_4core4iter6traits7collect6ExtendBF_E14extend_reserveCsdy4PFqiFpmx_20string_cache_codegen, symObjAddr: 0x2338, symBinAddr: 0x10001E6B8, symSize: 0x28 }
  - { offset: 0x568FB, size: 0x8, addend: 0x0, symName: __RNvXsh_NtCse1nGBsou5OW_5alloc3vecINtB5_3VecNtCs3cP53eQoTwO_11proc_macro25IdentEINtNtNtNtCsfvfooZQ3Axs_4core4iter6traits7collect6ExtendBF_E20extend_one_uncheckedCsdy4PFqiFpmx_20string_cache_codegen, symObjAddr: 0x2360, symBinAddr: 0x10001E6E0, symSize: 0x40 }
  - { offset: 0x569FB, size: 0x8, addend: 0x0, symName: __RNvXsh_NtCse1nGBsou5OW_5alloc3vecINtB5_3VecReEINtNtNtNtCsfvfooZQ3Axs_4core4iter6traits7collect6ExtendBF_E10extend_oneCsdy4PFqiFpmx_20string_cache_codegen, symObjAddr: 0x23A0, symBinAddr: 0x10001E720, symSize: 0x30 }
  - { offset: 0x56A46, size: 0x8, addend: 0x0, symName: __RNvXsh_NtCse1nGBsou5OW_5alloc3vecINtB5_3VecTyhEEINtNtNtNtCsfvfooZQ3Axs_4core4iter6traits7collect6ExtendBF_E10extend_oneCsdy4PFqiFpmx_20string_cache_codegen, symObjAddr: 0x23D0, symBinAddr: 0x10001E750, symSize: 0x2C }
  - { offset: 0x56A91, size: 0x8, addend: 0x0, symName: __RNvXsh_NtCse1nGBsou5OW_5alloc3vecINtB5_3VecTyhEEINtNtNtNtCsfvfooZQ3Axs_4core4iter6traits7collect6ExtendBF_E14extend_reserveCsdy4PFqiFpmx_20string_cache_codegen, symObjAddr: 0x23FC, symBinAddr: 0x10001E77C, symSize: 0x28 }
  - { offset: 0x56ADC, size: 0x8, addend: 0x0, symName: __RNvXsh_NtCse1nGBsou5OW_5alloc3vecINtB5_3VecTyhEEINtNtNtNtCsfvfooZQ3Axs_4core4iter6traits7collect6ExtendBF_E20extend_one_uncheckedCsdy4PFqiFpmx_20string_cache_codegen, symObjAddr: 0x2424, symBinAddr: 0x10001E7A4, symSize: 0x38 }
  - { offset: 0x56BEC, size: 0x8, addend: 0x0, symName: __RNvXsh_NtCse1nGBsou5OW_5alloc3vecINtB5_3VechEINtNtNtNtCsfvfooZQ3Axs_4core4iter6traits7collect6ExtendhE10extend_oneCsdy4PFqiFpmx_20string_cache_codegen, symObjAddr: 0x245C, symBinAddr: 0x10001E7DC, symSize: 0x28 }
  - { offset: 0x56C37, size: 0x8, addend: 0x0, symName: __RNvXsh_NtCse1nGBsou5OW_5alloc3vecINtB5_3VechEINtNtNtNtCsfvfooZQ3Axs_4core4iter6traits7collect6ExtendhE14extend_reserveCsdy4PFqiFpmx_20string_cache_codegen, symObjAddr: 0x2484, symBinAddr: 0x10001E804, symSize: 0x28 }
  - { offset: 0x56C82, size: 0x8, addend: 0x0, symName: __RNvXsh_NtCse1nGBsou5OW_5alloc3vecINtB5_3VechEINtNtNtNtCsfvfooZQ3Axs_4core4iter6traits7collect6ExtendhE20extend_one_uncheckedCsdy4PFqiFpmx_20string_cache_codegen, symObjAddr: 0x24AC, symBinAddr: 0x10001E82C, symSize: 0x2C }
  - { offset: 0x56D7D, size: 0x8, addend: 0x0, symName: __RNvXsh_NtCse1nGBsou5OW_5alloc3vecINtB5_3VecmEINtNtNtNtCsfvfooZQ3Axs_4core4iter6traits7collect6ExtendmE10extend_oneCsdy4PFqiFpmx_20string_cache_codegen, symObjAddr: 0x24D8, symBinAddr: 0x10001E858, symSize: 0x28 }
  - { offset: 0x56DC8, size: 0x8, addend: 0x0, symName: __RNvXsh_NtCse1nGBsou5OW_5alloc3vecINtB5_3VecmEINtNtNtNtCsfvfooZQ3Axs_4core4iter6traits7collect6ExtendmE14extend_reserveCsdy4PFqiFpmx_20string_cache_codegen, symObjAddr: 0x2500, symBinAddr: 0x10001E880, symSize: 0x28 }
  - { offset: 0x56E13, size: 0x8, addend: 0x0, symName: __RNvXsh_NtCse1nGBsou5OW_5alloc3vecINtB5_3VecmEINtNtNtNtCsfvfooZQ3Axs_4core4iter6traits7collect6ExtendmE20extend_one_uncheckedCsdy4PFqiFpmx_20string_cache_codegen, symObjAddr: 0x2528, symBinAddr: 0x10001E8A8, symSize: 0x2C }
  - { offset: 0x56F0E, size: 0x8, addend: 0x0, symName: __RNvXsh_NtCse1nGBsou5OW_5alloc3vecINtB5_3VecyEINtNtNtNtCsfvfooZQ3Axs_4core4iter6traits7collect6ExtendyE10extend_oneCsdy4PFqiFpmx_20string_cache_codegen, symObjAddr: 0x2554, symBinAddr: 0x10001E8D4, symSize: 0x28 }
  - { offset: 0x56F59, size: 0x8, addend: 0x0, symName: __RNvXsh_NtCse1nGBsou5OW_5alloc3vecINtB5_3VecyEINtNtNtNtCsfvfooZQ3Axs_4core4iter6traits7collect6ExtendyE14extend_reserveCsdy4PFqiFpmx_20string_cache_codegen, symObjAddr: 0x257C, symBinAddr: 0x10001E8FC, symSize: 0x28 }
  - { offset: 0x56FA4, size: 0x8, addend: 0x0, symName: __RNvXsh_NtCse1nGBsou5OW_5alloc3vecINtB5_3VecyEINtNtNtNtCsfvfooZQ3Axs_4core4iter6traits7collect6ExtendyE20extend_one_uncheckedCsdy4PFqiFpmx_20string_cache_codegen, symObjAddr: 0x25A4, symBinAddr: 0x10001E924, symSize: 0x2C }
  - { offset: 0x570AA, size: 0x8, addend: 0x0, symName: __RNCINvMsi_NtCse1nGBsou5OW_5alloc3vecINtB8_3VecNtCs3cP53eQoTwO_11proc_macro25IdentE14extend_trustedINtNtNtNtCsfvfooZQ3Axs_4core4iter8adapters3map3MapINtNtB1D_6copied6CopiedINtNtNtB1H_5slice4iter4IterReEENCNvMCsdy4PFqiFpmx_20string_cache_codegenNtB3j_8AtomType9to_tokenss3_0EE0B3j_, symObjAddr: 0x8A4, symBinAddr: 0x10001CC24, symSize: 0x44 }
  - { offset: 0x57157, size: 0x8, addend: 0x0, symName: __RNCINvMsi_NtCse1nGBsou5OW_5alloc3vecINtB8_3VecNtCs9tf12AD4ZJa_10phf_shared6HashesE14extend_trustedINtNtNtNtCsfvfooZQ3Axs_4core4iter8adapters3map3MapINtNtNtB1H_5slice4iter4IterReENCNCINvCs6nR6nErDO7j_13phf_generator26generate_hash_with_hash_fnB2N_INvBK_4hashB2N_EE00EE0Csdy4PFqiFpmx_20string_cache_codegen, symObjAddr: 0x8E8, symBinAddr: 0x10001CC68, symSize: 0x44 }
  - { offset: 0x57204, size: 0x8, addend: 0x0, symName: __RNCINvMsi_NtCse1nGBsou5OW_5alloc3vecINtB8_3VecReE14extend_trustedINtNtNtNtCsfvfooZQ3Axs_4core4iter8adapters3map3MapINtNtNtB1a_5slice4iter4IterjENCNvMCsdy4PFqiFpmx_20string_cache_codegenNtB2n_8AtomType9to_tokenss_0EE0B2n_, symObjAddr: 0x92C, symBinAddr: 0x10001CCAC, symSize: 0x40 }
  - { offset: 0x572C1, size: 0x8, addend: 0x0, symName: __RNCINvMsi_NtCse1nGBsou5OW_5alloc3vecINtB8_3VechE14extend_trustedINtNtNtNtCsfvfooZQ3Axs_4core4iter8adapters3map3MapINtNtNtB19_5slice4iter4IterhENCNvNtBa_3str13replace_ascii0EE0Csdy4PFqiFpmx_20string_cache_codegen, symObjAddr: 0x96C, symBinAddr: 0x10001CCEC, symSize: 0x30 }
  - { offset: 0x57369, size: 0x8, addend: 0x0, symName: __RNCINvMsi_NtCse1nGBsou5OW_5alloc3vecINtB8_3VecmE14extend_trustedINtNtNtNtCsfvfooZQ3Axs_4core4iter8adapters3map3MapINtNtNtB19_5slice4iter4IterReENCNvMCsdy4PFqiFpmx_20string_cache_codegenNtB2n_8AtomType9to_tokenss1_0EE0B2n_, symObjAddr: 0x99C, symBinAddr: 0x10001CD1C, symSize: 0x30 }
  - { offset: 0x578A8, size: 0x8, addend: 0x0, symName: __RNvXNtNtCse1nGBsou5OW_5alloc3vec14spec_from_iterINtB4_3VecNtCs3cP53eQoTwO_11proc_macro25IdentEINtB2_12SpecFromIterBU_INtNtNtNtCsfvfooZQ3Axs_4core4iter8adapters3map3MapINtNtB1W_6copied6CopiedINtNtNtB20_5slice4iter4IterReEENCNvMCsdy4PFqiFpmx_20string_cache_codegenNtB3C_8AtomType9to_tokenss3_0EE9from_iterB3C_, symObjAddr: 0x15A8, symBinAddr: 0x10001D928, symSize: 0x14 }
  - { offset: 0x578E7, size: 0x8, addend: 0x0, symName: __RNvXNtNtCse1nGBsou5OW_5alloc3vec14spec_from_iterINtB4_3VecReEINtB2_12SpecFromIterBU_INtNtNtNtCsfvfooZQ3Axs_4core4iter8adapters3map3MapINtNtNtB1t_5slice4iter4IterjENCNvMCsdy4PFqiFpmx_20string_cache_codegenNtB2G_8AtomType9to_tokenss_0EE9from_iterB2G_, symObjAddr: 0x15BC, symBinAddr: 0x10001D93C, symSize: 0x14 }
  - { offset: 0x57926, size: 0x8, addend: 0x0, symName: __RNvXNtNtCse1nGBsou5OW_5alloc3vec14spec_from_iterINtB4_3VecmEINtB2_12SpecFromItermINtNtNtNtCsfvfooZQ3Axs_4core4iter8adapters3map3MapINtNtNtB1q_5slice4iter4IterReENCNvMCsdy4PFqiFpmx_20string_cache_codegenNtB2E_8AtomType9to_tokenss1_0EE9from_iterB2E_, symObjAddr: 0x15D0, symBinAddr: 0x10001D950, symSize: 0x14 }
  - { offset: 0x5796C, size: 0x8, addend: 0x0, symName: __RNvXs6_NtCse1nGBsou5OW_5alloc3vecINtB5_3VecNtCs3cP53eQoTwO_11proc_macro25IdentENtNtNtCsfvfooZQ3Axs_4core3ops5deref5Deref5derefCsdy4PFqiFpmx_20string_cache_codegen, symObjAddr: 0x16FC, symBinAddr: 0x10001DA7C, symSize: 0x24 }
  - { offset: 0x579AC, size: 0x8, addend: 0x0, symName: __RNvXs6_NtCse1nGBsou5OW_5alloc3vecINtB5_3VecReENtNtNtCsfvfooZQ3Axs_4core3ops5deref5Deref5derefCsdy4PFqiFpmx_20string_cache_codegen, symObjAddr: 0x1720, symBinAddr: 0x10001DAA0, symSize: 0x24 }
  - { offset: 0x579EC, size: 0x8, addend: 0x0, symName: __RNvXs6_NtCse1nGBsou5OW_5alloc3vecINtB5_3VecyENtNtNtCsfvfooZQ3Axs_4core3ops5deref5Deref5derefCsdy4PFqiFpmx_20string_cache_codegen, symObjAddr: 0x1744, symBinAddr: 0x10001DAC4, symSize: 0x24 }
  - { offset: 0x57A62, size: 0x8, addend: 0x0, symName: __RNvXs7_NtCse1nGBsou5OW_5alloc3vecINtB5_3VecINtNtCsfvfooZQ3Axs_4core6option6OptionjEENtNtNtBK_3ops5deref8DerefMut9deref_mutCsdy4PFqiFpmx_20string_cache_codegen, symObjAddr: 0x1768, symBinAddr: 0x10001DAE8, symSize: 0x24 }
  - { offset: 0x57AA2, size: 0x8, addend: 0x0, symName: __RNvXs7_NtCse1nGBsou5OW_5alloc3vecINtB5_3VecTmmEENtNtNtCsfvfooZQ3Axs_4core3ops5deref8DerefMut9deref_mutCsdy4PFqiFpmx_20string_cache_codegen, symObjAddr: 0x178C, symBinAddr: 0x10001DB0C, symSize: 0x24 }
  - { offset: 0x57AE2, size: 0x8, addend: 0x0, symName: __RNvXs7_NtCse1nGBsou5OW_5alloc3vecINtB5_3VecyENtNtNtCsfvfooZQ3Axs_4core3ops5deref8DerefMut9deref_mutCsdy4PFqiFpmx_20string_cache_codegen, symObjAddr: 0x17B0, symBinAddr: 0x10001DB30, symSize: 0x24 }
  - { offset: 0x57B2D, size: 0x8, addend: 0x0, symName: __RNvXs_NtNtCse1nGBsou5OW_5alloc3vec11spec_extendINtB6_3VecNtCs3cP53eQoTwO_11proc_macro25IdentEINtB4_10SpecExtendBT_INtNtNtNtCsfvfooZQ3Axs_4core4iter8adapters3map3MapINtNtB1T_6copied6CopiedINtNtNtB1X_5slice4iter4IterReEENCNvMCsdy4PFqiFpmx_20string_cache_codegenNtB3z_8AtomType9to_tokenss3_0EE11spec_extendB3z_, symObjAddr: 0x17D4, symBinAddr: 0x10001DB54, symSize: 0x24 }
  - { offset: 0x57B7F, size: 0x8, addend: 0x0, symName: __RNvXs_NtNtCse1nGBsou5OW_5alloc3vec11spec_extendINtB6_3VecNtCs9tf12AD4ZJa_10phf_shared6HashesEINtB4_10SpecExtendBT_INtNtNtNtCsfvfooZQ3Axs_4core4iter8adapters3map3MapINtNtNtB1X_5slice4iter4IterReENCNCINvCs6nR6nErDO7j_13phf_generator26generate_hash_with_hash_fnB33_INvBV_4hashB33_EE00EE11spec_extendCsdy4PFqiFpmx_20string_cache_codegen, symObjAddr: 0x17F8, symBinAddr: 0x10001DB78, symSize: 0x24 }
  - { offset: 0x57BD1, size: 0x8, addend: 0x0, symName: __RNvXs_NtNtCse1nGBsou5OW_5alloc3vec11spec_extendINtB6_3VecReEINtB4_10SpecExtendBT_INtNtNtNtCsfvfooZQ3Axs_4core4iter8adapters3map3MapINtNtNtB1q_5slice4iter4IterjENCNvMCsdy4PFqiFpmx_20string_cache_codegenNtB2D_8AtomType9to_tokenss_0EE11spec_extendB2D_, symObjAddr: 0x181C, symBinAddr: 0x10001DB9C, symSize: 0x24 }
  - { offset: 0x57C23, size: 0x8, addend: 0x0, symName: __RNvXs_NtNtCse1nGBsou5OW_5alloc3vec11spec_extendINtB6_3VechEINtB4_10SpecExtendhINtNtNtNtCsfvfooZQ3Axs_4core4iter8adapters3map3MapINtNtNtB1n_5slice4iter4IterhENCNvNtB8_3str13replace_ascii0EE11spec_extendCsdy4PFqiFpmx_20string_cache_codegen, symObjAddr: 0x1840, symBinAddr: 0x10001DBC0, symSize: 0x24 }
  - { offset: 0x57C75, size: 0x8, addend: 0x0, symName: __RNvXs_NtNtCse1nGBsou5OW_5alloc3vec11spec_extendINtB6_3VecmEINtB4_10SpecExtendmINtNtNtNtCsfvfooZQ3Axs_4core4iter8adapters3map3MapINtNtNtB1n_5slice4iter4IterReENCNvMCsdy4PFqiFpmx_20string_cache_codegenNtB2B_8AtomType9to_tokenss1_0EE11spec_extendB2B_, symObjAddr: 0x1864, symBinAddr: 0x10001DBE4, symSize: 0x24 }
  - { offset: 0x57CD3, size: 0x8, addend: 0x0, symName: __RNvXs_NtNtCse1nGBsou5OW_5alloc3vec16in_place_collectINtB6_3VecjEINtNtB6_14spec_from_iter12SpecFromIterjINtNtNtNtCsfvfooZQ3Axs_4core4iter8adapters3map3MapINtNtB6_9into_iter8IntoIterINtNtB1M_6option6OptionjEENCNCINvCs6nR6nErDO7j_13phf_generator26generate_hash_with_hash_fnReINvCs9tf12AD4ZJa_10phf_shared4hashB4k_EEs_00EE9from_iterCsdy4PFqiFpmx_20string_cache_codegen, symObjAddr: 0x1888, symBinAddr: 0x10001DC08, symSize: 0x28 }
  - { offset: 0x57D3B, size: 0x8, addend: 0x0, symName: __RNvXs_NtNtCse1nGBsou5OW_5alloc3vec21spec_from_iter_nestedINtB6_3VecNtCs3cP53eQoTwO_11proc_macro25IdentEINtB4_18SpecFromIterNestedB13_INtNtNtNtCsfvfooZQ3Axs_4core4iter8adapters3map3MapINtNtB2c_6copied6CopiedINtNtNtB2g_5slice4iter4IterReEENCNvMCsdy4PFqiFpmx_20string_cache_codegenNtB3S_8AtomType9to_tokenss3_0EE9from_iterB3S_, symObjAddr: 0x18B0, symBinAddr: 0x10001DC30, symSize: 0x16C }
  - { offset: 0x57E12, size: 0x8, addend: 0x0, symName: __RNvXs_NtNtCse1nGBsou5OW_5alloc3vec21spec_from_iter_nestedINtB6_3VecReEINtB4_18SpecFromIterNestedB13_INtNtNtNtCsfvfooZQ3Axs_4core4iter8adapters3map3MapINtNtNtB1J_5slice4iter4IterjENCNvMCsdy4PFqiFpmx_20string_cache_codegenNtB2W_8AtomType9to_tokenss_0EE9from_iterB2W_, symObjAddr: 0x1A1C, symBinAddr: 0x10001DD9C, symSize: 0x16C }
  - { offset: 0x57EE9, size: 0x8, addend: 0x0, symName: __RNvXs_NtNtCse1nGBsou5OW_5alloc3vec21spec_from_iter_nestedINtB6_3VechEINtB4_18SpecFromIterNestedhINtNtNtNtCsfvfooZQ3Axs_4core4iter8adapters3map3MapINtNtNtB1F_5slice4iter4IterhENCNvNtB8_3str13replace_ascii0EE9from_iterCsdy4PFqiFpmx_20string_cache_codegen, symObjAddr: 0x1B88, symBinAddr: 0x10001DF08, symSize: 0x168 }
  - { offset: 0x57FC0, size: 0x8, addend: 0x0, symName: __RNvXs_NtNtCse1nGBsou5OW_5alloc3vec21spec_from_iter_nestedINtB6_3VecmEINtB4_18SpecFromIterNestedmINtNtNtNtCsfvfooZQ3Axs_4core4iter8adapters3map3MapINtNtNtB1F_5slice4iter4IterReENCNvMCsdy4PFqiFpmx_20string_cache_codegenNtB2T_8AtomType9to_tokenss1_0EE9from_iterB2T_, symObjAddr: 0x1CF0, symBinAddr: 0x10001E070, symSize: 0x168 }
  - { offset: 0x5809E, size: 0x8, addend: 0x0, symName: __RNvXsb_NtCse1nGBsou5OW_5alloc3vecINtB5_3VecReEINtNtNtCsfvfooZQ3Axs_4core3ops5index5IndexjE5indexCsdy4PFqiFpmx_20string_cache_codegen, symObjAddr: 0x1E58, symBinAddr: 0x10001E1D8, symSize: 0x84 }
  - { offset: 0x58226, size: 0x8, addend: 0x0, symName: __RNvXse_NtCse1nGBsou5OW_5alloc3vecINtB5_3VecINtNtCsfvfooZQ3Axs_4core6option6OptionjEENtNtNtNtBK_4iter6traits7collect12IntoIterator9into_iterCsdy4PFqiFpmx_20string_cache_codegen, symObjAddr: 0x1EDC, symBinAddr: 0x10001E25C, symSize: 0xDC }
  - { offset: 0x584B8, size: 0x8, addend: 0x0, symName: __RNvXse_NtCse1nGBsou5OW_5alloc3vecINtB5_3VecTmmEENtNtNtNtCsfvfooZQ3Axs_4core4iter6traits7collect12IntoIterator9into_iterCsdy4PFqiFpmx_20string_cache_codegen, symObjAddr: 0x1FB8, symBinAddr: 0x10001E338, symSize: 0xDC }
  - { offset: 0x5874A, size: 0x8, addend: 0x0, symName: __RNvXse_NtCse1nGBsou5OW_5alloc3vecINtB5_3VecTyhEENtNtNtNtCsfvfooZQ3Axs_4core4iter6traits7collect12IntoIterator9into_iterCsdy4PFqiFpmx_20string_cache_codegen, symObjAddr: 0x2094, symBinAddr: 0x10001E414, symSize: 0xDC }
  - { offset: 0x589E2, size: 0x8, addend: 0x0, symName: __RNvXsn_NtCse1nGBsou5OW_5alloc3vecINtB5_3VecNtCs3cP53eQoTwO_11proc_macro25IdentENtNtNtCsfvfooZQ3Axs_4core3ops4drop4Drop4dropCsdy4PFqiFpmx_20string_cache_codegen, symObjAddr: 0x25D0, symBinAddr: 0x10001E950, symSize: 0x38 }
  - { offset: 0x58A92, size: 0x8, addend: 0x0, symName: __RNvXsn_NtCse1nGBsou5OW_5alloc3vecINtB5_3VecReENtNtNtCsfvfooZQ3Axs_4core3ops4drop4Drop4dropCsdy4PFqiFpmx_20string_cache_codegen, symObjAddr: 0x2608, symBinAddr: 0x10001E988, symSize: 0x24 }
  - { offset: 0x58B42, size: 0x8, addend: 0x0, symName: __RNvXsn_NtCse1nGBsou5OW_5alloc3vecINtB5_3VecTyhEENtNtNtCsfvfooZQ3Axs_4core3ops4drop4Drop4dropCsdy4PFqiFpmx_20string_cache_codegen, symObjAddr: 0x262C, symBinAddr: 0x10001E9AC, symSize: 0x24 }
  - { offset: 0x58BF2, size: 0x8, addend: 0x0, symName: __RNvXsn_NtCse1nGBsou5OW_5alloc3vecINtB5_3VecmENtNtNtCsfvfooZQ3Axs_4core3ops4drop4Drop4dropCsdy4PFqiFpmx_20string_cache_codegen, symObjAddr: 0x2650, symBinAddr: 0x10001E9D0, symSize: 0x24 }
  - { offset: 0x58CA8, size: 0x8, addend: 0x0, symName: __RNvXso_NtCse1nGBsou5OW_5alloc3vecINtB5_3VecNtCs3cP53eQoTwO_11proc_macro25IdentENtNtCsfvfooZQ3Axs_4core7default7Default7defaultCsdy4PFqiFpmx_20string_cache_codegen, symObjAddr: 0x2674, symBinAddr: 0x10001E9F4, symSize: 0x14 }
  - { offset: 0x58CCA, size: 0x8, addend: 0x0, symName: __RNvXso_NtCse1nGBsou5OW_5alloc3vecINtB5_3VecNtCs3cP53eQoTwO_11proc_macro25IdentENtNtCsfvfooZQ3Axs_4core7default7Default7defaultCsdy4PFqiFpmx_20string_cache_codegen, symObjAddr: 0x2674, symBinAddr: 0x10001E9F4, symSize: 0x14 }
  - { offset: 0x58CE5, size: 0x8, addend: 0x0, symName: __RNvXso_NtCse1nGBsou5OW_5alloc3vecINtB5_3VecReENtNtCsfvfooZQ3Axs_4core7default7Default7defaultCsdy4PFqiFpmx_20string_cache_codegen, symObjAddr: 0x2688, symBinAddr: 0x10001EA08, symSize: 0x14 }
  - { offset: 0x58D07, size: 0x8, addend: 0x0, symName: __RNvXso_NtCse1nGBsou5OW_5alloc3vecINtB5_3VecReENtNtCsfvfooZQ3Axs_4core7default7Default7defaultCsdy4PFqiFpmx_20string_cache_codegen, symObjAddr: 0x2688, symBinAddr: 0x10001EA08, symSize: 0x14 }
  - { offset: 0x58D22, size: 0x8, addend: 0x0, symName: __RNvXso_NtCse1nGBsou5OW_5alloc3vecINtB5_3VecTyhEENtNtCsfvfooZQ3Axs_4core7default7Default7defaultCsdy4PFqiFpmx_20string_cache_codegen, symObjAddr: 0x269C, symBinAddr: 0x10001EA1C, symSize: 0x14 }
  - { offset: 0x58D44, size: 0x8, addend: 0x0, symName: __RNvXso_NtCse1nGBsou5OW_5alloc3vecINtB5_3VecTyhEENtNtCsfvfooZQ3Axs_4core7default7Default7defaultCsdy4PFqiFpmx_20string_cache_codegen, symObjAddr: 0x269C, symBinAddr: 0x10001EA1C, symSize: 0x14 }
  - { offset: 0x58D5F, size: 0x8, addend: 0x0, symName: __RNvXso_NtCse1nGBsou5OW_5alloc3vecINtB5_3VechENtNtCsfvfooZQ3Axs_4core7default7Default7defaultCsdy4PFqiFpmx_20string_cache_codegen, symObjAddr: 0x26B0, symBinAddr: 0x10001EA30, symSize: 0x14 }
  - { offset: 0x58D81, size: 0x8, addend: 0x0, symName: __RNvXso_NtCse1nGBsou5OW_5alloc3vecINtB5_3VechENtNtCsfvfooZQ3Axs_4core7default7Default7defaultCsdy4PFqiFpmx_20string_cache_codegen, symObjAddr: 0x26B0, symBinAddr: 0x10001EA30, symSize: 0x14 }
  - { offset: 0x58D9C, size: 0x8, addend: 0x0, symName: __RNvXso_NtCse1nGBsou5OW_5alloc3vecINtB5_3VecmENtNtCsfvfooZQ3Axs_4core7default7Default7defaultCsdy4PFqiFpmx_20string_cache_codegen, symObjAddr: 0x26C4, symBinAddr: 0x10001EA44, symSize: 0x14 }
  - { offset: 0x58DBE, size: 0x8, addend: 0x0, symName: __RNvXso_NtCse1nGBsou5OW_5alloc3vecINtB5_3VecmENtNtCsfvfooZQ3Axs_4core7default7Default7defaultCsdy4PFqiFpmx_20string_cache_codegen, symObjAddr: 0x26C4, symBinAddr: 0x10001EA44, symSize: 0x14 }
  - { offset: 0x58DD9, size: 0x8, addend: 0x0, symName: __RNvXso_NtCse1nGBsou5OW_5alloc3vecINtB5_3VecyENtNtCsfvfooZQ3Axs_4core7default7Default7defaultCsdy4PFqiFpmx_20string_cache_codegen, symObjAddr: 0x26D8, symBinAddr: 0x10001EA58, symSize: 0x14 }
  - { offset: 0x58DFB, size: 0x8, addend: 0x0, symName: __RNvXso_NtCse1nGBsou5OW_5alloc3vecINtB5_3VecyENtNtCsfvfooZQ3Axs_4core7default7Default7defaultCsdy4PFqiFpmx_20string_cache_codegen, symObjAddr: 0x26D8, symBinAddr: 0x10001EA58, symSize: 0x14 }
  - { offset: 0x5985B, size: 0x8, addend: 0x0, symName: __RNCNvMCsdy4PFqiFpmx_20string_cache_codegenNtB4_8AtomType9to_tokens0B4_, symObjAddr: 0x59A4, symBinAddr: 0x100021904, symSize: 0x90 }
  - { offset: 0x59891, size: 0x8, addend: 0x0, symName: __RNCNvMCsdy4PFqiFpmx_20string_cache_codegenNtB4_8AtomType9to_tokenss_0B4_, symObjAddr: 0x5A34, symBinAddr: 0x100021994, symSize: 0x5C }
  - { offset: 0x598DF, size: 0x8, addend: 0x0, symName: __RNCNvMCsdy4PFqiFpmx_20string_cache_codegenNtB4_8AtomType9to_tokenss0_0B4_, symObjAddr: 0x5A90, symBinAddr: 0x1000219F0, symSize: 0x40 }
  - { offset: 0x59915, size: 0x8, addend: 0x0, symName: __RNCNvMCsdy4PFqiFpmx_20string_cache_codegenNtB4_8AtomType9to_tokenss1_0B4_, symObjAddr: 0x5AD0, symBinAddr: 0x100021A30, symSize: 0x58 }
  - { offset: 0x5996F, size: 0x8, addend: 0x0, symName: __RNCNvMCsdy4PFqiFpmx_20string_cache_codegenNtB4_8AtomType9to_tokenss2_0B4_, symObjAddr: 0x5B28, symBinAddr: 0x100021A88, symSize: 0x60 }
  - { offset: 0x599A5, size: 0x8, addend: 0x0, symName: __RNCNvMCsdy4PFqiFpmx_20string_cache_codegenNtB4_8AtomType9to_tokenss3_0B4_, symObjAddr: 0x5B88, symBinAddr: 0x100021AE8, symSize: 0x290 }
  - { offset: 0x59A58, size: 0x8, addend: 0x0, symName: __RNCNvMCsdy4PFqiFpmx_20string_cache_codegenNtB4_8AtomType9to_tokenss4_0B4_, symObjAddr: 0x5E18, symBinAddr: 0x100021D78, symSize: 0x23C }
  - { offset: 0x59C80, size: 0x8, addend: 0x0, symName: __RINvMsi_NtCse1nGBsou5OW_5alloc3vecINtB6_3VecNtCs3cP53eQoTwO_11proc_macro25IdentE14extend_trustedINtNtNtNtCsfvfooZQ3Axs_4core4iter8adapters3map3MapINtNtB1B_6copied6CopiedINtNtNtB1F_5slice4iter4IterReEENCNvMCsdy4PFqiFpmx_20string_cache_codegenNtB3h_8AtomType9to_tokenss3_0EEB3h_, symObjAddr: 0x0, symBinAddr: 0x10001C380, symSize: 0x17C }
  - { offset: 0x5A026, size: 0x8, addend: 0x0, symName: __RINvMsi_NtCse1nGBsou5OW_5alloc3vecINtB6_3VecNtCs9tf12AD4ZJa_10phf_shared6HashesE14extend_trustedINtNtNtNtCsfvfooZQ3Axs_4core4iter8adapters3map3MapINtNtNtB1F_5slice4iter4IterReENCNCINvCs6nR6nErDO7j_13phf_generator26generate_hash_with_hash_fnB2L_INvBI_4hashB2L_EE00EECsdy4PFqiFpmx_20string_cache_codegen, symObjAddr: 0x17C, symBinAddr: 0x10001C4FC, symSize: 0x17C }
  - { offset: 0x5A312, size: 0x8, addend: 0x0, symName: __RINvMsi_NtCse1nGBsou5OW_5alloc3vecINtB6_3VecReE14extend_trustedINtNtNtNtCsfvfooZQ3Axs_4core4iter8adapters3map3MapINtNtNtB18_5slice4iter4IterjENCNvMCsdy4PFqiFpmx_20string_cache_codegenNtB2l_8AtomType9to_tokenss_0EEB2l_, symObjAddr: 0x2F8, symBinAddr: 0x10001C678, symSize: 0x17C }
  - { offset: 0x5A5E4, size: 0x8, addend: 0x0, symName: __RINvMsi_NtCse1nGBsou5OW_5alloc3vecINtB6_3VechE14extend_trustedINtNtNtNtCsfvfooZQ3Axs_4core4iter8adapters3map3MapINtNtNtB17_5slice4iter4IterhENCNvNtB8_3str13replace_ascii0EECsdy4PFqiFpmx_20string_cache_codegen, symObjAddr: 0x474, symBinAddr: 0x10001C7F4, symSize: 0x17C }
  - { offset: 0x5A8B6, size: 0x8, addend: 0x0, symName: __RINvMsi_NtCse1nGBsou5OW_5alloc3vecINtB6_3VecmE14extend_trustedINtNtNtNtCsfvfooZQ3Axs_4core4iter8adapters3map3MapINtNtNtB17_5slice4iter4IterReENCNvMCsdy4PFqiFpmx_20string_cache_codegenNtB2l_8AtomType9to_tokenss1_0EEB2l_, symObjAddr: 0x5F0, symBinAddr: 0x10001C970, symSize: 0x17C }
  - { offset: 0x5ABBF, size: 0x8, addend: 0x0, symName: __RNvMs_NtCse1nGBsou5OW_5alloc3vecINtB4_3VecINtNtCsfvfooZQ3Axs_4core6option6OptionjEE12as_mut_sliceCsdy4PFqiFpmx_20string_cache_codegen, symObjAddr: 0x9CC, symBinAddr: 0x10001CD4C, symSize: 0x64 }
  - { offset: 0x5AD6D, size: 0x8, addend: 0x0, symName: __RNvMs_NtCse1nGBsou5OW_5alloc3vecINtB4_3VecNtCs3cP53eQoTwO_11proc_macro25IdentE4pushCsdy4PFqiFpmx_20string_cache_codegen, symObjAddr: 0xA30, symBinAddr: 0x10001CDB0, symSize: 0x108 }
  - { offset: 0x5B051, size: 0x8, addend: 0x0, symName: __RNvMs_NtCse1nGBsou5OW_5alloc3vecINtB4_3VecNtCs3cP53eQoTwO_11proc_macro25IdentE7reserveCsdy4PFqiFpmx_20string_cache_codegen, symObjAddr: 0xB38, symBinAddr: 0x10001CEB8, symSize: 0xC8 }
  - { offset: 0x5B25C, size: 0x8, addend: 0x0, symName: __RNvMs_NtCse1nGBsou5OW_5alloc3vecINtB4_3VecNtCs3cP53eQoTwO_11proc_macro25IdentE8as_sliceCsdy4PFqiFpmx_20string_cache_codegen, symObjAddr: 0xC00, symBinAddr: 0x10001CF80, symSize: 0x64 }
  - { offset: 0x5B400, size: 0x8, addend: 0x0, symName: __RNvMs_NtCse1nGBsou5OW_5alloc3vecINtB4_3VecNtCs9tf12AD4ZJa_10phf_shared6HashesE5clearCsdy4PFqiFpmx_20string_cache_codegen, symObjAddr: 0xC64, symBinAddr: 0x10001CFE4, symSize: 0x78 }
  - { offset: 0x5B65B, size: 0x8, addend: 0x0, symName: __RNvMs_NtCse1nGBsou5OW_5alloc3vecINtB4_3VecNtCs9tf12AD4ZJa_10phf_shared6HashesE7reserveCsdy4PFqiFpmx_20string_cache_codegen, symObjAddr: 0xCDC, symBinAddr: 0x10001D05C, symSize: 0xC8 }
  - { offset: 0x5B7C2, size: 0x8, addend: 0x0, symName: __RNvMs_NtCse1nGBsou5OW_5alloc3vecINtB4_3VecReE3lenCsdy4PFqiFpmx_20string_cache_codegen, symObjAddr: 0xDA4, symBinAddr: 0x10001D124, symSize: 0x18 }
  - { offset: 0x5B8D6, size: 0x8, addend: 0x0, symName: __RNvMs_NtCse1nGBsou5OW_5alloc3vecINtB4_3VecReE4pushCsdy4PFqiFpmx_20string_cache_codegen, symObjAddr: 0xDBC, symBinAddr: 0x10001D13C, symSize: 0xF4 }
  - { offset: 0x5BB9F, size: 0x8, addend: 0x0, symName: __RNvMs_NtCse1nGBsou5OW_5alloc3vecINtB4_3VecReE7reserveCsdy4PFqiFpmx_20string_cache_codegen, symObjAddr: 0xEB0, symBinAddr: 0x10001D230, symSize: 0xC8 }
  - { offset: 0x5BD76, size: 0x8, addend: 0x0, symName: __RNvMs_NtCse1nGBsou5OW_5alloc3vecINtB4_3VecReE8as_sliceCsdy4PFqiFpmx_20string_cache_codegen, symObjAddr: 0xF78, symBinAddr: 0x10001D2F8, symSize: 0x64 }
  - { offset: 0x5BF29, size: 0x8, addend: 0x0, symName: __RNvMs_NtCse1nGBsou5OW_5alloc3vecINtB4_3VecTmmEE12as_mut_sliceCsdy4PFqiFpmx_20string_cache_codegen, symObjAddr: 0xFDC, symBinAddr: 0x10001D35C, symSize: 0x64 }
  - { offset: 0x5C129, size: 0x8, addend: 0x0, symName: __RNvMs_NtCse1nGBsou5OW_5alloc3vecINtB4_3VecTyhEE4pushCsdy4PFqiFpmx_20string_cache_codegen, symObjAddr: 0x1040, symBinAddr: 0x10001D3C0, symSize: 0xF0 }
  - { offset: 0x5C3F2, size: 0x8, addend: 0x0, symName: __RNvMs_NtCse1nGBsou5OW_5alloc3vecINtB4_3VecTyhEE7reserveCsdy4PFqiFpmx_20string_cache_codegen, symObjAddr: 0x1130, symBinAddr: 0x10001D4B0, symSize: 0xC8 }
  - { offset: 0x5C66A, size: 0x8, addend: 0x0, symName: __RNvMs_NtCse1nGBsou5OW_5alloc3vecINtB4_3VecjE5clearCsdy4PFqiFpmx_20string_cache_codegen, symObjAddr: 0x11F8, symBinAddr: 0x10001D578, symSize: 0x74 }
  - { offset: 0x5C88E, size: 0x8, addend: 0x0, symName: __RNvMs_NtCse1nGBsou5OW_5alloc3vecINtB4_3VecmE4pushCsdy4PFqiFpmx_20string_cache_codegen, symObjAddr: 0x126C, symBinAddr: 0x10001D5EC, symSize: 0xE0 }
  - { offset: 0x5CB56, size: 0x8, addend: 0x0, symName: __RNvMs_NtCse1nGBsou5OW_5alloc3vecINtB4_3VecmE7reserveCsdy4PFqiFpmx_20string_cache_codegen, symObjAddr: 0x134C, symBinAddr: 0x10001D6CC, symSize: 0xBC }
  - { offset: 0x5CD98, size: 0x8, addend: 0x0, symName: __RNvMs_NtCse1nGBsou5OW_5alloc3vecINtB4_3VecyE12as_mut_sliceCsdy4PFqiFpmx_20string_cache_codegen, symObjAddr: 0x1408, symBinAddr: 0x10001D788, symSize: 0x60 }
  - { offset: 0x5CF46, size: 0x8, addend: 0x0, symName: __RNvMs_NtCse1nGBsou5OW_5alloc3vecINtB4_3VecyE4pushCsdy4PFqiFpmx_20string_cache_codegen, symObjAddr: 0x1468, symBinAddr: 0x10001D7E8, symSize: 0xE0 }
  - { offset: 0x5D193, size: 0x8, addend: 0x0, symName: __RNvMs_NtCse1nGBsou5OW_5alloc3vecINtB4_3VecyE8as_sliceCsdy4PFqiFpmx_20string_cache_codegen, symObjAddr: 0x1548, symBinAddr: 0x10001D8C8, symSize: 0x60 }
  - { offset: 0x5D261, size: 0x8, addend: 0x0, symName: __RNvXs4_NtNtCs2cqEZUIJimJ_5quote9___private3extINtNtCse1nGBsou5OW_5alloc3vec3VecNtCs3cP53eQoTwO_11proc_macro25IdentENtB5_16RepAsIteratorExt15quote_into_iterCsdy4PFqiFpmx_20string_cache_codegen, symObjAddr: 0x15E4, symBinAddr: 0x10001D964, symSize: 0x38 }
  - { offset: 0x5D296, size: 0x8, addend: 0x0, symName: __RNvXs4_NtNtCs2cqEZUIJimJ_5quote9___private3extINtNtCse1nGBsou5OW_5alloc3vec3VecReENtB5_16RepAsIteratorExt15quote_into_iterCsdy4PFqiFpmx_20string_cache_codegen, symObjAddr: 0x161C, symBinAddr: 0x10001D99C, symSize: 0x38 }
  - { offset: 0x5D2CB, size: 0x8, addend: 0x0, symName: __RNvXs4_NtNtCs2cqEZUIJimJ_5quote9___private3extINtNtCse1nGBsou5OW_5alloc3vec3VechENtB5_16RepAsIteratorExt15quote_into_iterCsdy4PFqiFpmx_20string_cache_codegen, symObjAddr: 0x1654, symBinAddr: 0x10001D9D4, symSize: 0x38 }
  - { offset: 0x5D300, size: 0x8, addend: 0x0, symName: __RNvXs4_NtNtCs2cqEZUIJimJ_5quote9___private3extINtNtCse1nGBsou5OW_5alloc3vec3VecmENtB5_16RepAsIteratorExt15quote_into_iterCsdy4PFqiFpmx_20string_cache_codegen, symObjAddr: 0x168C, symBinAddr: 0x10001DA0C, symSize: 0x38 }
  - { offset: 0x5D335, size: 0x8, addend: 0x0, symName: __RNvXs4_NtNtCs2cqEZUIJimJ_5quote9___private3extINtNtCse1nGBsou5OW_5alloc3vec3VecyENtB5_16RepAsIteratorExt15quote_into_iterCsdy4PFqiFpmx_20string_cache_codegen, symObjAddr: 0x16C4, symBinAddr: 0x10001DA44, symSize: 0x38 }
  - { offset: 0x5E1C7, size: 0x8, addend: 0x0, symName: __RNvMCsdy4PFqiFpmx_20string_cache_codegenNtB2_8AtomType3new, symObjAddr: 0x26EC, symBinAddr: 0x10001EA6C, symSize: 0x240 }
  - { offset: 0x5E204, size: 0x8, addend: 0x0, symName: __RNvMCsdy4PFqiFpmx_20string_cache_codegenNtB2_8AtomType14with_macro_doc, symObjAddr: 0x2A8C, symBinAddr: 0x10001ECAC, symSize: 0xB0 }
  - { offset: 0x5E234, size: 0x8, addend: 0x0, symName: __RNvMCsdy4PFqiFpmx_20string_cache_codegenNtB2_8AtomType4atom, symObjAddr: 0x2B3C, symBinAddr: 0x10001ED5C, symSize: 0x68 }
  - { offset: 0x5E373, size: 0x8, addend: 0x0, symName: __RNvMCsdy4PFqiFpmx_20string_cache_codegenNtB2_8AtomType9to_tokens, symObjAddr: 0x2E64, symBinAddr: 0x10001EDC4, symSize: 0x2B40 }
  - { offset: 0x5F4E9, size: 0x8, addend: 0x0, symName: __RINvMsx_NtNtCsfvfooZQ3Axs_4core3str7patternNtB6_14TwoWaySearcher9next_backNtB6_14RejectAndMatchECsdy4PFqiFpmx_20string_cache_codegen, symObjAddr: 0x0, symBinAddr: 0x100021FB4, symSize: 0x504 }
  - { offset: 0x5FDD0, size: 0x8, addend: 0x0, symName: __RNvXst_NtNtCsfvfooZQ3Axs_4core3str7patternReNtB5_7Pattern12is_suffix_ofCsdy4PFqiFpmx_20string_cache_codegen, symObjAddr: 0x1804, symBinAddr: 0x1000237B8, symSize: 0x4C }
  - { offset: 0x5FE0D, size: 0x8, addend: 0x0, symName: __RNvXst_NtNtCsfvfooZQ3Axs_4core3str7patternReNtB5_7Pattern13into_searcherCsdy4PFqiFpmx_20string_cache_codegen, symObjAddr: 0x1850, symBinAddr: 0x100023804, symSize: 0x4C }
  - { offset: 0x5FE4A, size: 0x8, addend: 0x0, symName: __RNvXst_NtNtCsfvfooZQ3Axs_4core3str7patternReNtB5_7Pattern15as_utf8_patternCsdy4PFqiFpmx_20string_cache_codegen, symObjAddr: 0x189C, symBinAddr: 0x100023850, symSize: 0x38 }
  - { offset: 0x5FE7E, size: 0x8, addend: 0x0, symName: __RNvXsv_NtNtCsfvfooZQ3Axs_4core3str7patternNtB5_11StrSearcherNtB5_8Searcher10next_matchCsdy4PFqiFpmx_20string_cache_codegen, symObjAddr: 0x18D4, symBinAddr: 0x100023888, symSize: 0x148 }
  - { offset: 0x5FF0A, size: 0x8, addend: 0x0, symName: __RNvXsv_NtNtCsfvfooZQ3Axs_4core3str7patternNtB5_11StrSearcherNtB5_8Searcher4nextCsdy4PFqiFpmx_20string_cache_codegen, symObjAddr: 0x1A1C, symBinAddr: 0x1000239D0, symSize: 0x444 }
  - { offset: 0x6020F, size: 0x8, addend: 0x0, symName: __RNvXsv_NtNtCsfvfooZQ3Axs_4core3str7patternNtB5_11StrSearcherNtB5_8Searcher8haystackCsdy4PFqiFpmx_20string_cache_codegen, symObjAddr: 0x1E60, symBinAddr: 0x100023E14, symSize: 0x20 }
  - { offset: 0x60243, size: 0x8, addend: 0x0, symName: __RNvXsw_NtNtCsfvfooZQ3Axs_4core3str7patternNtB5_11StrSearcherNtB5_15ReverseSearcher15next_match_backCsdy4PFqiFpmx_20string_cache_codegen, symObjAddr: 0x1E80, symBinAddr: 0x100023E34, symSize: 0x148 }
  - { offset: 0x602CF, size: 0x8, addend: 0x0, symName: __RNvXsw_NtNtCsfvfooZQ3Axs_4core3str7patternNtB5_11StrSearcherNtB5_15ReverseSearcher9next_backCsdy4PFqiFpmx_20string_cache_codegen, symObjAddr: 0x1FC8, symBinAddr: 0x100023F7C, symSize: 0x42C }
  - { offset: 0x605BA, size: 0x8, addend: 0x0, symName: __RNvXsy_NtNtCsfvfooZQ3Axs_4core3str7patternNtB5_9MatchOnlyNtB5_14TwoWayStrategy16use_early_rejectCsdy4PFqiFpmx_20string_cache_codegen, symObjAddr: 0x23F4, symBinAddr: 0x1000243A8, symSize: 0xC }
  - { offset: 0x605D8, size: 0x8, addend: 0x0, symName: __RNvXsy_NtNtCsfvfooZQ3Axs_4core3str7patternNtB5_9MatchOnlyNtB5_14TwoWayStrategy8matchingCsdy4PFqiFpmx_20string_cache_codegen, symObjAddr: 0x2400, symBinAddr: 0x1000243B4, symSize: 0x28 }
  - { offset: 0x60615, size: 0x8, addend: 0x0, symName: __RNvXsy_NtNtCsfvfooZQ3Axs_4core3str7patternNtB5_9MatchOnlyNtB5_14TwoWayStrategy9rejectingCsdy4PFqiFpmx_20string_cache_codegen, symObjAddr: 0x2428, symBinAddr: 0x1000243DC, symSize: 0x18 }
  - { offset: 0x60658, size: 0x8, addend: 0x0, symName: __RNvXsz_NtNtCsfvfooZQ3Axs_4core3str7patternNtB5_14RejectAndMatchNtB5_14TwoWayStrategy16use_early_rejectCsdy4PFqiFpmx_20string_cache_codegen, symObjAddr: 0x2440, symBinAddr: 0x1000243F4, symSize: 0xC }
  - { offset: 0x60676, size: 0x8, addend: 0x0, symName: __RNvXsz_NtNtCsfvfooZQ3Axs_4core3str7patternNtB5_14RejectAndMatchNtB5_14TwoWayStrategy8matchingCsdy4PFqiFpmx_20string_cache_codegen, symObjAddr: 0x244C, symBinAddr: 0x100024400, symSize: 0x20 }
  - { offset: 0x606B3, size: 0x8, addend: 0x0, symName: __RNvXsz_NtNtCsfvfooZQ3Axs_4core3str7patternNtB5_14RejectAndMatchNtB5_14TwoWayStrategy9rejectingCsdy4PFqiFpmx_20string_cache_codegen, symObjAddr: 0x246C, symBinAddr: 0x100024420, symSize: 0x28 }
  - { offset: 0x60E4B, size: 0x8, addend: 0x0, symName: __RNvXsh_NtNtNtCsfvfooZQ3Axs_4core4iter8adapters3zipINtNtNtCse1nGBsou5OW_5alloc3vec9into_iter8IntoIterINtNtBb_6option6OptionjEENtB5_23SpecTrustedRandomAccess17try_get_uncheckedCsdy4PFqiFpmx_20string_cache_codegen, symObjAddr: 0x17DC, symBinAddr: 0x100023790, symSize: 0x28 }
  - { offset: 0x60EF1, size: 0x8, addend: 0x0, symName: __RINvYINtNtNtCse1nGBsou5OW_5alloc3vec9into_iter8IntoIterINtNtCsfvfooZQ3Axs_4core6option6OptionjEENtNtNtNtBW_4iter6traits8iterator8Iterator3mapjNCNCINvCs6nR6nErDO7j_13phf_generator26generate_hash_with_hash_fnReINvCs9tf12AD4ZJa_10phf_shared4hashB3i_EEs_00ECsdy4PFqiFpmx_20string_cache_codegen, symObjAddr: 0xE28, symBinAddr: 0x100022DDC, symSize: 0x1C }
  - { offset: 0x60F5E, size: 0x8, addend: 0x0, symName: __RINvYINtNtNtCse1nGBsou5OW_5alloc3vec9into_iter8IntoIterTmmEENtNtNtNtCsfvfooZQ3Axs_4core4iter6traits8iterator8Iterator5unzipmmINtB8_3VecmEB1Z_ECsdy4PFqiFpmx_20string_cache_codegen, symObjAddr: 0xE44, symBinAddr: 0x100022DF8, symSize: 0xDC }
  - { offset: 0x6102C, size: 0x8, addend: 0x0, symName: __RINvYINtNtNtCse1nGBsou5OW_5alloc3vec9into_iter8IntoIterTyhEENtNtNtNtCsfvfooZQ3Axs_4core4iter6traits8iterator8Iterator5unzipyhINtB8_3VecyEIB20_hEECsdy4PFqiFpmx_20string_cache_codegen, symObjAddr: 0xF20, symBinAddr: 0x100022ED4, symSize: 0xDC }
  - { offset: 0x61208, size: 0x8, addend: 0x0, symName: __RNvXs6_NtNtNtCsfvfooZQ3Axs_4core4iter6traits7collectINtNtNtCse1nGBsou5OW_5alloc3vec9into_iter8IntoIterTmmEEINtB5_6TraitBINtBT_3VecmEB1U_E6extendCsdy4PFqiFpmx_20string_cache_codegen, symObjAddr: 0x1378, symBinAddr: 0x10002332C, symSize: 0x14C }
  - { offset: 0x612E8, size: 0x8, addend: 0x0, symName: __RNvXs6_NtNtNtCsfvfooZQ3Axs_4core4iter6traits7collectINtNtNtCse1nGBsou5OW_5alloc3vec9into_iter8IntoIterTyhEEINtB5_6TraitBINtBT_3VecyEIB1V_hEE6extendCsdy4PFqiFpmx_20string_cache_codegen, symObjAddr: 0x14C4, symBinAddr: 0x100023478, symSize: 0x14C }
  - { offset: 0x614FE, size: 0x8, addend: 0x0, symName: __RNvYINtNtNtCse1nGBsou5OW_5alloc3vec9into_iter8IntoIterINtNtCsfvfooZQ3Axs_4core6option6OptionjEENtNtNtNtBV_4iter6traits10exact_size17ExactSizeIterator3lenCsdy4PFqiFpmx_20string_cache_codegen, symObjAddr: 0x2494, symBinAddr: 0x100024448, symSize: 0xF4 }
  - { offset: 0x615F1, size: 0x8, addend: 0x0, symName: __RNvYINtNtNtCse1nGBsou5OW_5alloc3vec9into_iter8IntoIterTmmEENtNtNtNtCsfvfooZQ3Axs_4core4iter6traits10exact_size17ExactSizeIterator3lenCsdy4PFqiFpmx_20string_cache_codegen, symObjAddr: 0x2588, symBinAddr: 0x10002453C, symSize: 0xF4 }
  - { offset: 0x616E4, size: 0x8, addend: 0x0, symName: __RNvYINtNtNtCse1nGBsou5OW_5alloc3vec9into_iter8IntoIterTyhEENtNtNtNtCsfvfooZQ3Axs_4core4iter6traits10exact_size17ExactSizeIterator3lenCsdy4PFqiFpmx_20string_cache_codegen, symObjAddr: 0x267C, symBinAddr: 0x100024630, symSize: 0xF4 }
  - { offset: 0x622FC, size: 0x8, addend: 0x0, symName: __RINvMsx_NtNtCsfvfooZQ3Axs_4core3str7patternNtB6_14TwoWaySearcher9next_backNtB6_14RejectAndMatchECsdy4PFqiFpmx_20string_cache_codegen, symObjAddr: 0x0, symBinAddr: 0x100021FB4, symSize: 0x504 }
  - { offset: 0x6265D, size: 0x8, addend: 0x0, symName: __RINvMsx_NtNtCsfvfooZQ3Axs_4core3str7patternNtB6_14TwoWaySearcher9next_backNtB6_9MatchOnlyECsdy4PFqiFpmx_20string_cache_codegen, symObjAddr: 0x504, symBinAddr: 0x1000224B8, symSize: 0x504 }
  - { offset: 0x62A39, size: 0x8, addend: 0x0, symName: __RINvXs3_NtNtCse1nGBsou5OW_5alloc3vec9into_iterINtB6_8IntoIterTmmEENtNtNtNtCsfvfooZQ3Axs_4core4iter6traits8iterator8Iterator4folduNCINvNvNtB16_7collect22default_extend_tuple_b6extendmmINtB8_3VecmEB2V_E0ECsdy4PFqiFpmx_20string_cache_codegen, symObjAddr: 0xA08, symBinAddr: 0x1000229BC, symSize: 0x108 }
  - { offset: 0x62C04, size: 0x8, addend: 0x0, symName: __RINvXs3_NtNtCse1nGBsou5OW_5alloc3vec9into_iterINtB6_8IntoIterTmmEENtNtNtNtCsfvfooZQ3Axs_4core4iter6traits8iterator8Iterator4folduNCINvNvXs6_NtB16_7collectpINtB2e_6TraitBppE6extend6extendmmINtB8_3VecmEB30_E0ECsdy4PFqiFpmx_20string_cache_codegen, symObjAddr: 0xB10, symBinAddr: 0x100022AC4, symSize: 0x108 }
  - { offset: 0x62DCF, size: 0x8, addend: 0x0, symName: __RINvXs3_NtNtCse1nGBsou5OW_5alloc3vec9into_iterINtB6_8IntoIterTyhEENtNtNtNtCsfvfooZQ3Axs_4core4iter6traits8iterator8Iterator4folduNCINvNvNtB16_7collect22default_extend_tuple_b6extendyhINtB8_3VecyEIB2W_hEE0ECsdy4PFqiFpmx_20string_cache_codegen, symObjAddr: 0xC18, symBinAddr: 0x100022BCC, symSize: 0x108 }
  - { offset: 0x62F9A, size: 0x8, addend: 0x0, symName: __RINvXs3_NtNtCse1nGBsou5OW_5alloc3vec9into_iterINtB6_8IntoIterTyhEENtNtNtNtCsfvfooZQ3Axs_4core4iter6traits8iterator8Iterator4folduNCINvNvXs6_NtB16_7collectpINtB2e_6TraitBppE6extend6extendyhINtB8_3VecyEIB31_hEE0ECsdy4PFqiFpmx_20string_cache_codegen, symObjAddr: 0xD20, symBinAddr: 0x100022CD4, symSize: 0x108 }
  - { offset: 0x63165, size: 0x8, addend: 0x0, symName: __RNvXs3_NtNtCse1nGBsou5OW_5alloc3vec9into_iterINtB5_8IntoIterINtNtCsfvfooZQ3Axs_4core6option6OptionjEENtNtNtNtB11_4iter6traits8iterator8Iterator24___iterator_get_uncheckedCsdy4PFqiFpmx_20string_cache_codegen, symObjAddr: 0x120C, symBinAddr: 0x1000231C0, symSize: 0x28 }
  - { offset: 0x631F4, size: 0x8, addend: 0x0, symName: __RNvXs3_NtNtCse1nGBsou5OW_5alloc3vec9into_iterINtB5_8IntoIterINtNtCsfvfooZQ3Axs_4core6option6OptionjEENtNtNtNtB11_4iter6traits8iterator8Iterator9size_hintCsdy4PFqiFpmx_20string_cache_codegen, symObjAddr: 0x1234, symBinAddr: 0x1000231E8, symSize: 0x6C }
  - { offset: 0x6324F, size: 0x8, addend: 0x0, symName: __RNvXs3_NtNtCse1nGBsou5OW_5alloc3vec9into_iterINtB5_8IntoIterTmmEENtNtNtNtCsfvfooZQ3Axs_4core4iter6traits8iterator8Iterator9size_hintCsdy4PFqiFpmx_20string_cache_codegen, symObjAddr: 0x12A0, symBinAddr: 0x100023254, symSize: 0x6C }
  - { offset: 0x632AA, size: 0x8, addend: 0x0, symName: __RNvXs3_NtNtCse1nGBsou5OW_5alloc3vec9into_iterINtB5_8IntoIterTyhEENtNtNtNtCsfvfooZQ3Axs_4core4iter6traits8iterator8Iterator9size_hintCsdy4PFqiFpmx_20string_cache_codegen, symObjAddr: 0x130C, symBinAddr: 0x1000232C0, symSize: 0x6C }
  - { offset: 0x634D6, size: 0x8, addend: 0x0, symName: __RNvXNvXsd_NtNtCse1nGBsou5OW_5alloc3vec9into_iterINtB8_8IntoIterppENtNtNtCsfvfooZQ3Axs_4core3ops4drop4Drop4dropINtB2_9DropGuardINtNtB18_6option6OptionjENtNtBc_5alloc6GlobalEB12_4dropCsdy4PFqiFpmx_20string_cache_codegen, symObjAddr: 0x1098, symBinAddr: 0x10002304C, symSize: 0x7C }
  - { offset: 0x635E3, size: 0x8, addend: 0x0, symName: __RNvXNvXsd_NtNtCse1nGBsou5OW_5alloc3vec9into_iterINtB8_8IntoIterppENtNtNtCsfvfooZQ3Axs_4core3ops4drop4Drop4dropINtB2_9DropGuardTmmENtNtBc_5alloc6GlobalEB12_4dropCsdy4PFqiFpmx_20string_cache_codegen, symObjAddr: 0x1114, symBinAddr: 0x1000230C8, symSize: 0x7C }
  - { offset: 0x636F0, size: 0x8, addend: 0x0, symName: __RNvXNvXsd_NtNtCse1nGBsou5OW_5alloc3vec9into_iterINtB8_8IntoIterppENtNtNtCsfvfooZQ3Axs_4core3ops4drop4Drop4dropINtB2_9DropGuardTyhENtNtBc_5alloc6GlobalEB12_4dropCsdy4PFqiFpmx_20string_cache_codegen, symObjAddr: 0x1190, symBinAddr: 0x100023144, symSize: 0x7C }
  - { offset: 0x63874, size: 0x8, addend: 0x0, symName: __RNvXsd_NtNtCse1nGBsou5OW_5alloc3vec9into_iterINtB5_8IntoIterINtNtCsfvfooZQ3Axs_4core6option6OptionjEENtNtNtB11_3ops4drop4Drop4dropCsdy4PFqiFpmx_20string_cache_codegen, symObjAddr: 0x1610, symBinAddr: 0x1000235C4, symSize: 0x8C }
  - { offset: 0x6390E, size: 0x8, addend: 0x0, symName: __RNvXsd_NtNtCse1nGBsou5OW_5alloc3vec9into_iterINtB5_8IntoIterTmmEENtNtNtCsfvfooZQ3Axs_4core3ops4drop4Drop4dropCsdy4PFqiFpmx_20string_cache_codegen, symObjAddr: 0x169C, symBinAddr: 0x100023650, symSize: 0x8C }
  - { offset: 0x639A8, size: 0x8, addend: 0x0, symName: __RNvXsd_NtNtCse1nGBsou5OW_5alloc3vec9into_iterINtB5_8IntoIterTyhEENtNtNtCsfvfooZQ3Axs_4core3ops4drop4Drop4dropCsdy4PFqiFpmx_20string_cache_codegen, symObjAddr: 0x1728, symBinAddr: 0x1000236DC, symSize: 0x8C }
  - { offset: 0x63A48, size: 0x8, addend: 0x0, symName: __RNvXsf_NtNtCse1nGBsou5OW_5alloc3vec9into_iterINtB5_8IntoIterINtNtCsfvfooZQ3Axs_4core6option6OptionjEENtNtNtB11_4iter8adapters10SourceIter8as_innerCsdy4PFqiFpmx_20string_cache_codegen, symObjAddr: 0x17B4, symBinAddr: 0x100023768, symSize: 0x14 }
  - { offset: 0x63A8E, size: 0x8, addend: 0x0, symName: __RNvXsg_NtNtCse1nGBsou5OW_5alloc3vec9into_iterINtB5_8IntoIterINtNtCsfvfooZQ3Axs_4core6option6OptionjEENtNtB7_16in_place_collect13AsVecIntoIter12as_into_iterCsdy4PFqiFpmx_20string_cache_codegen, symObjAddr: 0x17C8, symBinAddr: 0x10002377C, symSize: 0x14 }
  - { offset: 0x641A6, size: 0x8, addend: 0x0, symName: __RNvMs_NtNtCse1nGBsou5OW_5alloc3vec9into_iterINtB4_8IntoIterINtNtCsfvfooZQ3Axs_4core6option6OptionjEE32forget_allocation_drop_remainingCsdy4PFqiFpmx_20string_cache_codegen, symObjAddr: 0xFFC, symBinAddr: 0x100022FB0, symSize: 0x9C }
  - { offset: 0x64830, size: 0x8, addend: 0x0, symName: __RINvMNtNtNtNtCsfvfooZQ3Axs_4core5slice4sort6stable5mergeINtB3_10MergeStateNtCs6nR6nErDO7j_13phf_generator6BucketE10merge_downNCINvMNtCse1nGBsou5OW_5alloc5sliceSB1a_11sort_by_keyjNCINvMB1c_NtB1c_9Generator5resetINtNtNtNtBb_4iter8adapters3map3MapINtNtB9_4iter4IterReENCNCINvB1c_26generate_hash_with_hash_fnB4c_INvCs9tf12AD4ZJa_10phf_shared4hashB4c_EE00EEs_0E0ECsdy4PFqiFpmx_20string_cache_codegen, symObjAddr: 0x0, symBinAddr: 0x100024724, symSize: 0x1D4 }
  - { offset: 0x648D9, size: 0x8, addend: 0x0, symName: __RNvXs1h_NtCse1nGBsou5OW_5alloc6stringNtB6_6StringNtNtCsfvfooZQ3Axs_4core3cmp3Ord3cmpCsdy4PFqiFpmx_20string_cache_codegen, symObjAddr: 0x22F8, symBinAddr: 0x1000269F8, symSize: 0x2C }
  - { offset: 0x6491C, size: 0x8, addend: 0x0, symName: __RNvXsW_NtCse1nGBsou5OW_5alloc6stringNtB5_6StringNtNtCsfvfooZQ3Axs_4core3fmt5Write10write_charCsdy4PFqiFpmx_20string_cache_codegen, symObjAddr: 0x2324, symBinAddr: 0x100026A24, symSize: 0x30 }
  - { offset: 0x64959, size: 0x8, addend: 0x0, symName: __RNvXsW_NtCse1nGBsou5OW_5alloc6stringNtB5_6StringNtNtCsfvfooZQ3Axs_4core3fmt5Write9write_strCsdy4PFqiFpmx_20string_cache_codegen, symObjAddr: 0x2354, symBinAddr: 0x100026A54, symSize: 0x38 }
  - { offset: 0x6499C, size: 0x8, addend: 0x0, symName: __RNvXss_NtCse1nGBsou5OW_5alloc6stringNtB5_6StringNtNtNtCsfvfooZQ3Axs_4core3ops5deref5Deref5derefCsdy4PFqiFpmx_20string_cache_codegen, symObjAddr: 0x2494, symBinAddr: 0x100026B94, symSize: 0x24 }
  - { offset: 0x649D0, size: 0x8, addend: 0x0, symName: __RNvXsw_NtCse1nGBsou5OW_5alloc6stringNtCs3cP53eQoTwO_11proc_macro211TokenStreamNtB5_8ToString9to_stringCsdy4PFqiFpmx_20string_cache_codegen, symObjAddr: 0x24B8, symBinAddr: 0x100026BB8, symSize: 0x24 }
  - { offset: 0x64A0D, size: 0x8, addend: 0x0, symName: __RNvXsx_NtCse1nGBsou5OW_5alloc6stringNtCs3cP53eQoTwO_11proc_macro211TokenStreamNtB5_12SpecToString14spec_to_stringCsdy4PFqiFpmx_20string_cache_codegen, symObjAddr: 0x24DC, symBinAddr: 0x100026BDC, symSize: 0x144 }
  - { offset: 0x64F05, size: 0x8, addend: 0x0, symName: __RNvXs1_NtCse1nGBsou5OW_5alloc7raw_vecINtB5_6RawVecNtCs3cP53eQoTwO_11proc_macro25IdentENtNtNtCsfvfooZQ3Axs_4core3ops4drop4Drop4dropCsdy4PFqiFpmx_20string_cache_codegen, symObjAddr: 0x222C, symBinAddr: 0x10002692C, symSize: 0x34 }
  - { offset: 0x64F41, size: 0x8, addend: 0x0, symName: __RNvXs1_NtCse1nGBsou5OW_5alloc7raw_vecINtB5_6RawVecReENtNtNtCsfvfooZQ3Axs_4core3ops4drop4Drop4dropCsdy4PFqiFpmx_20string_cache_codegen, symObjAddr: 0x2260, symBinAddr: 0x100026960, symSize: 0x34 }
  - { offset: 0x64F7D, size: 0x8, addend: 0x0, symName: __RNvXs1_NtCse1nGBsou5OW_5alloc7raw_vecINtB5_6RawVecTyhEENtNtNtCsfvfooZQ3Axs_4core3ops4drop4Drop4dropCsdy4PFqiFpmx_20string_cache_codegen, symObjAddr: 0x2294, symBinAddr: 0x100026994, symSize: 0x34 }
  - { offset: 0x64FB9, size: 0x8, addend: 0x0, symName: __RNvXs1_NtCse1nGBsou5OW_5alloc7raw_vecINtB5_6RawVecmENtNtNtCsfvfooZQ3Axs_4core3ops4drop4Drop4dropCsdy4PFqiFpmx_20string_cache_codegen, symObjAddr: 0x22C8, symBinAddr: 0x1000269C8, symSize: 0x30 }
  - { offset: 0x65175, size: 0x8, addend: 0x0, symName: __RNCNvMs6_NtNtNtNtCse1nGBsou5OW_5alloc11collections5btree3map5entryINtB7_11VacantEntryNtNtBf_6string6StringNtNtBb_7set_val9SetValZSTE12insert_entry0Csdy4PFqiFpmx_20string_cache_codegen, symObjAddr: 0x17D0, symBinAddr: 0x100025EF4, symSize: 0x154 }
  - { offset: 0x66B8E, size: 0x8, addend: 0x0, symName: __RINvNtNtNtNtCsfvfooZQ3Axs_4core5slice4sort6stable5merge5mergeNtCs6nR6nErDO7j_13phf_generator6BucketNCINvMNtCse1nGBsou5OW_5alloc5sliceSBX_11sort_by_keyjNCINvMBZ_NtBZ_9Generator5resetINtNtNtNtBa_4iter8adapters3map3MapINtNtB8_4iter4IterReENCNCINvBZ_26generate_hash_with_hash_fnB3J_INvCs9tf12AD4ZJa_10phf_shared4hashB3J_EE00EEs_0E0ECsdy4PFqiFpmx_20string_cache_codegen, symObjAddr: 0x1458, symBinAddr: 0x100025B7C, symSize: 0x2F8 }
  - { offset: 0x66DFF, size: 0x8, addend: 0x0, symName: __RINvNtNtNtNtCsfvfooZQ3Axs_4core5slice4sort6shared9smallsort11insert_tailNtCs6nR6nErDO7j_13phf_generator6BucketNCINvMNtCse1nGBsou5OW_5alloc5sliceSB18_11sort_by_keyjNCINvMB1a_NtB1a_9Generator5resetINtNtNtNtBa_4iter8adapters3map3MapINtNtB8_4iter4IterReENCNCINvB1a_26generate_hash_with_hash_fnB3X_INvCs9tf12AD4ZJa_10phf_shared4hashB3X_EE00EEs_0E0ECsdy4PFqiFpmx_20string_cache_codegen, symObjAddr: 0x368, symBinAddr: 0x100024A8C, symSize: 0x1C8 }
  - { offset: 0x66F9E, size: 0x8, addend: 0x0, symName: __RINvNtNtNtNtCsfvfooZQ3Axs_4core5slice4sort6shared9smallsort12sort4_stableNtCs6nR6nErDO7j_13phf_generator6BucketNCINvMNtCse1nGBsou5OW_5alloc5sliceSB19_11sort_by_keyjNCINvMB1b_NtB1b_9Generator5resetINtNtNtNtBa_4iter8adapters3map3MapINtNtB8_4iter4IterReENCNCINvB1b_26generate_hash_with_hash_fnB3Y_INvCs9tf12AD4ZJa_10phf_shared4hashB3Y_EE00EEs_0E0ECsdy4PFqiFpmx_20string_cache_codegen, symObjAddr: 0x530, symBinAddr: 0x100024C54, symSize: 0x488 }
  - { offset: 0x6756E, size: 0x8, addend: 0x0, symName: __RINvNtNtNtNtCsfvfooZQ3Axs_4core5slice4sort6shared9smallsort19bidirectional_mergeNtCs6nR6nErDO7j_13phf_generator6BucketNCINvMNtCse1nGBsou5OW_5alloc5sliceSB1g_11sort_by_keyjNCINvMB1i_NtB1i_9Generator5resetINtNtNtNtBa_4iter8adapters3map3MapINtNtB8_4iter4IterReENCNCINvB1i_26generate_hash_with_hash_fnB45_INvCs9tf12AD4ZJa_10phf_shared4hashB45_EE00EEs_0E0ECsdy4PFqiFpmx_20string_cache_codegen, symObjAddr: 0x9B8, symBinAddr: 0x1000250DC, symSize: 0x55C }
  - { offset: 0x67C2B, size: 0x8, addend: 0x0, symName: __RINvNtNtNtNtCsfvfooZQ3Axs_4core5slice4sort6shared9smallsort25insertion_sort_shift_leftNtCs6nR6nErDO7j_13phf_generator6BucketNCINvMNtCse1nGBsou5OW_5alloc5sliceSB1m_11sort_by_keyjNCINvMB1o_NtB1o_9Generator5resetINtNtNtNtBa_4iter8adapters3map3MapINtNtB8_4iter4IterReENCNCINvB1o_26generate_hash_with_hash_fnB4b_INvCs9tf12AD4ZJa_10phf_shared4hashB4b_EE00EEs_0E0ECsdy4PFqiFpmx_20string_cache_codegen, symObjAddr: 0xF14, symBinAddr: 0x100025638, symSize: 0xC4 }
  - { offset: 0x67D65, size: 0x8, addend: 0x0, symName: __RINvNtNtNtNtCsfvfooZQ3Axs_4core5slice4sort6shared9smallsort31small_sort_general_with_scratchNtCs6nR6nErDO7j_13phf_generator6BucketNCINvMNtCse1nGBsou5OW_5alloc5sliceSB1s_11sort_by_keyjNCINvMB1u_NtB1u_9Generator5resetINtNtNtNtBa_4iter8adapters3map3MapINtNtB8_4iter4IterReENCNCINvB1u_26generate_hash_with_hash_fnB4h_INvCs9tf12AD4ZJa_10phf_shared4hashB4h_EE00EEs_0E0ECsdy4PFqiFpmx_20string_cache_codegen, symObjAddr: 0xFD8, symBinAddr: 0x1000256FC, symSize: 0x480 }
  - { offset: 0x68260, size: 0x8, addend: 0x0, symName: __RNvMNtCsfvfooZQ3Axs_4core5sliceSNtCs3cP53eQoTwO_11proc_macro25Ident4iterCsdy4PFqiFpmx_20string_cache_codegen, symObjAddr: 0x1B48, symBinAddr: 0x100026248, symSize: 0x28 }
  - { offset: 0x6869B, size: 0x8, addend: 0x0, symName: __RNvXs_NtNtNtCsfvfooZQ3Axs_4core4iter8adapters9enumerateINtB4_9EnumerateINtNtNtBa_5slice4iter4IterNtNtCse1nGBsou5OW_5alloc6string6StringEENtNtNtB8_6traits8iterator8Iterator4nextCsdy4PFqiFpmx_20string_cache_codegen, symObjAddr: 0x23B4, symBinAddr: 0x100026AB4, symSize: 0xE0 }
  - { offset: 0x68DD9, size: 0x8, addend: 0x0, symName: __RNvXNtNtCsfvfooZQ3Axs_4core3ops12control_flowINtB2_11ControlFlowyENtNtB4_9try_trait3Try11from_outputCsdy4PFqiFpmx_20string_cache_codegen, symObjAddr: 0x21C4, symBinAddr: 0x1000268C4, symSize: 0x18 }
  - { offset: 0x68E17, size: 0x8, addend: 0x0, symName: __RNvXNtNtCsfvfooZQ3Axs_4core3ops12control_flowINtB2_11ControlFlowyENtNtB4_9try_trait3Try6branchCsdy4PFqiFpmx_20string_cache_codegen, symObjAddr: 0x21DC, symBinAddr: 0x1000268DC, symSize: 0x50 }
  - { offset: 0x68E95, size: 0x8, addend: 0x0, symName: __RNvXs_NtNtCsfvfooZQ3Axs_4core3ops12control_flowINtB4_11ControlFlowyEINtNtB6_9try_trait12FromResidualIBK_yNtNtB8_7convert10InfallibleEE13from_residualCsdy4PFqiFpmx_20string_cache_codegen, symObjAddr: 0x238C, symBinAddr: 0x100026A8C, symSize: 0x28 }
  - { offset: 0x692E5, size: 0x8, addend: 0x0, symName: __RNvXNtCsfvfooZQ3Axs_4core6borrowNtNtCse1nGBsou5OW_5alloc6string6StringINtB2_6BorrowBu_E6borrowCsdy4PFqiFpmx_20string_cache_codegen, symObjAddr: 0x21B0, symBinAddr: 0x1000268B0, symSize: 0x14 }
  - { offset: 0x69CE3, size: 0x8, addend: 0x0, symName: __RINvMNtNtNtNtCsfvfooZQ3Axs_4core5slice4sort6stable5mergeINtB3_10MergeStateNtCs6nR6nErDO7j_13phf_generator6BucketE10merge_downNCINvMNtCse1nGBsou5OW_5alloc5sliceSB1a_11sort_by_keyjNCINvMB1c_NtB1c_9Generator5resetINtNtNtNtBb_4iter8adapters3map3MapINtNtB9_4iter4IterReENCNCINvB1c_26generate_hash_with_hash_fnB4c_INvCs9tf12AD4ZJa_10phf_shared4hashB4c_EE00EEs_0E0ECsdy4PFqiFpmx_20string_cache_codegen, symObjAddr: 0x0, symBinAddr: 0x100024724, symSize: 0x1D4 }
  - { offset: 0x69E79, size: 0x8, addend: 0x0, symName: __RINvMNtNtNtNtCsfvfooZQ3Axs_4core5slice4sort6stable5mergeINtB3_10MergeStateNtCs6nR6nErDO7j_13phf_generator6BucketE8merge_upNCINvMNtCse1nGBsou5OW_5alloc5sliceSB1a_11sort_by_keyjNCINvMB1c_NtB1c_9Generator5resetINtNtNtNtBb_4iter8adapters3map3MapINtNtB9_4iter4IterReENCNCINvB1c_26generate_hash_with_hash_fnB49_INvCs9tf12AD4ZJa_10phf_shared4hashB49_EE00EEs_0E0ECsdy4PFqiFpmx_20string_cache_codegen, symObjAddr: 0x1D4, symBinAddr: 0x1000248F8, symSize: 0x194 }
  - { offset: 0x6A146, size: 0x8, addend: 0x0, symName: __RINvXs1_NtNtCsg10Tkzhqh8d_4rand13distributions7integerNtB8_8StandardINtNtB8_12distribution12DistributionyE6sampleNtNtNtBa_4rngs5small8SmallRngECsdy4PFqiFpmx_20string_cache_codegen, symObjAddr: 0x1750, symBinAddr: 0x100025E74, symSize: 0x54 }
  - { offset: 0x6A1B2, size: 0x8, addend: 0x0, symName: __RINvYNtNtCsg10Tkzhqh8d_4rand13distributions8StandardINtNtB5_12distribution12DistributionyE11sample_iterNtNtNtB7_4rngs5small8SmallRngECsdy4PFqiFpmx_20string_cache_codegen, symObjAddr: 0x17A4, symBinAddr: 0x100025EC8, symSize: 0x2C }
  - { offset: 0x6A485, size: 0x8, addend: 0x0, symName: __RNvMNtCse1nGBsou5OW_5alloc6stringNtB2_6String3newCsdy4PFqiFpmx_20string_cache_codegen, symObjAddr: 0x1924, symBinAddr: 0x100026048, symSize: 0x30 }
  - { offset: 0x6A652, size: 0x8, addend: 0x0, symName: __RNvMNtCse1nGBsou5OW_5alloc6stringNtB2_6String4pushCsdy4PFqiFpmx_20string_cache_codegen, symObjAddr: 0x1954, symBinAddr: 0x100026078, symSize: 0x100 }
  - { offset: 0x6A905, size: 0x8, addend: 0x0, symName: __RNvMNtCse1nGBsou5OW_5alloc6stringNtB2_6String6as_strCsdy4PFqiFpmx_20string_cache_codegen, symObjAddr: 0x1A54, symBinAddr: 0x100026178, symSize: 0x70 }
  - { offset: 0x6AAE1, size: 0x8, addend: 0x0, symName: __RNvMNtCse1nGBsou5OW_5alloc6stringNtB2_6String8push_strCsdy4PFqiFpmx_20string_cache_codegen, symObjAddr: 0x1AE8, symBinAddr: 0x1000261E8, symSize: 0x60 }
  - { offset: 0x6ACE3, size: 0x8, addend: 0x0, symName: __RNvMs0_NtCse1nGBsou5OW_5alloc7raw_vecINtB5_6RawVecNtCs3cP53eQoTwO_11proc_macro25IdentE8grow_oneCsdy4PFqiFpmx_20string_cache_codegen, symObjAddr: 0x1B70, symBinAddr: 0x100026270, symSize: 0x94 }
  - { offset: 0x6ADAF, size: 0x8, addend: 0x0, symName: __RNvMs0_NtCse1nGBsou5OW_5alloc7raw_vecINtB5_6RawVecTyhEE8grow_oneCsdy4PFqiFpmx_20string_cache_codegen, symObjAddr: 0x1C04, symBinAddr: 0x100026304, symSize: 0x94 }
  - { offset: 0x6AE5D, size: 0x8, addend: 0x0, symName: __RNvMs0_NtCse1nGBsou5OW_5alloc7raw_vecINtB5_6RawVecmE8grow_oneCsdy4PFqiFpmx_20string_cache_codegen, symObjAddr: 0x1C98, symBinAddr: 0x100026398, symSize: 0x90 }
  - { offset: 0x6AF0B, size: 0x8, addend: 0x0, symName: __RNvMs0_NtCse1nGBsou5OW_5alloc7raw_vecINtB5_6RawVecyE8grow_oneCsdy4PFqiFpmx_20string_cache_codegen, symObjAddr: 0x1D28, symBinAddr: 0x100026428, symSize: 0x90 }
  - { offset: 0x6B160, size: 0x8, addend: 0x0, symName: __RNvMs6_NtNtNtNtCse1nGBsou5OW_5alloc11collections5btree3map5entryINtB5_11VacantEntryNtNtBd_6string6StringNtNtB9_7set_val9SetValZSTE12insert_entryCsdy4PFqiFpmx_20string_cache_codegen, symObjAddr: 0x1DB8, symBinAddr: 0x1000264B8, symSize: 0x294 }
  - { offset: 0x6B3F3, size: 0x8, addend: 0x0, symName: __RNvMs7_NtNtNtNtCse1nGBsou5OW_5alloc11collections5btree3map5entryINtB5_13OccupiedEntryNtNtBd_6string6StringNtNtB9_7set_val9SetValZSTE6insertCsdy4PFqiFpmx_20string_cache_codegen, symObjAddr: 0x204C, symBinAddr: 0x10002674C, symSize: 0x4C }
  - { offset: 0x6B456, size: 0x8, addend: 0x0, symName: __RNvMs7_NtNtNtNtCse1nGBsou5OW_5alloc11collections5btree3map5entryINtB5_13OccupiedEntryNtNtBd_6string6StringNtNtB9_7set_val9SetValZSTE8into_mutCsdy4PFqiFpmx_20string_cache_codegen, symObjAddr: 0x2098, symBinAddr: 0x100026798, symSize: 0x58 }
  - { offset: 0x6B4A4, size: 0x8, addend: 0x0, symName: __RNvXNtCs2cqEZUIJimJ_5quote9to_tokensRNtCs3cP53eQoTwO_11proc_macro211TokenStreamNtB2_8ToTokens9to_tokensCsdy4PFqiFpmx_20string_cache_codegen, symObjAddr: 0x20F0, symBinAddr: 0x1000267F0, symSize: 0x40 }
  - { offset: 0x6B4E3, size: 0x8, addend: 0x0, symName: __RNvXNtCs2cqEZUIJimJ_5quote9to_tokensRNtCs3cP53eQoTwO_11proc_macro25IdentNtB2_8ToTokens9to_tokensCsdy4PFqiFpmx_20string_cache_codegen, symObjAddr: 0x2130, symBinAddr: 0x100026830, symSize: 0x40 }
  - { offset: 0x6B522, size: 0x8, addend: 0x0, symName: __RNvXNtCs2cqEZUIJimJ_5quote9to_tokensRNtNtCse1nGBsou5OW_5alloc6string6StringNtB2_8ToTokens9to_tokensCsdy4PFqiFpmx_20string_cache_codegen, symObjAddr: 0x2170, symBinAddr: 0x100026870, symSize: 0x40 }
  - { offset: 0x6B572, size: 0x8, addend: 0x0, symName: __RNvYNtCs3cP53eQoTwO_11proc_macro211TokenStreamNtNtNtCs2cqEZUIJimJ_5quote9___private3ext14RepToTokensExt15quote_into_iterCsdy4PFqiFpmx_20string_cache_codegen, symObjAddr: 0x2620, symBinAddr: 0x100026D20, symSize: 0x24 }
  - { offset: 0x6B5A7, size: 0x8, addend: 0x0, symName: __RNvYNtCs3cP53eQoTwO_11proc_macro211TokenStreamNtNtNtCs2cqEZUIJimJ_5quote9___private3ext14RepToTokensExt4nextCsdy4PFqiFpmx_20string_cache_codegen, symObjAddr: 0x2644, symBinAddr: 0x100026D44, symSize: 0x2C }
  - { offset: 0x6B5DC, size: 0x8, addend: 0x0, symName: __RNvYNtCs3cP53eQoTwO_11proc_macro25IdentNtNtNtCs2cqEZUIJimJ_5quote9___private3ext14RepToTokensExt15quote_into_iterCsdy4PFqiFpmx_20string_cache_codegen, symObjAddr: 0x2670, symBinAddr: 0x100026D70, symSize: 0x24 }
  - { offset: 0x6B611, size: 0x8, addend: 0x0, symName: __RNvYNtCs3cP53eQoTwO_11proc_macro25IdentNtNtNtCs2cqEZUIJimJ_5quote9___private3ext14RepToTokensExt4nextCsdy4PFqiFpmx_20string_cache_codegen, symObjAddr: 0x2694, symBinAddr: 0x100026D94, symSize: 0x2C }
  - { offset: 0x6B81D, size: 0x8, addend: 0x0, symName: __RINvNtCsfvfooZQ3Axs_4core3ptr13drop_in_placeINtNtB4_6option6OptionNtNtCse1nGBsou5OW_5alloc6string6StringEECsdy4PFqiFpmx_20string_cache_codegen, symObjAddr: 0x0, symBinAddr: 0x100026DC0, symSize: 0x48 }
  - { offset: 0x6BE4C, size: 0x8, addend: 0x0, symName: __RINvNtCsfvfooZQ3Axs_4core3ptr13drop_in_placeINtNtB4_6option6OptionNtNtCse1nGBsou5OW_5alloc6string6StringEECsdy4PFqiFpmx_20string_cache_codegen, symObjAddr: 0x0, symBinAddr: 0x100026DC0, symSize: 0x48 }
  - { offset: 0x6BE7B, size: 0x8, addend: 0x0, symName: __RINvNtCsfvfooZQ3Axs_4core3ptr13drop_in_placeINtNtCse1nGBsou5OW_5alloc3vec3VecNtCs3cP53eQoTwO_11proc_macro25IdentEECsdy4PFqiFpmx_20string_cache_codegen, symObjAddr: 0x48, symBinAddr: 0x100026E08, symSize: 0x5C }
  - { offset: 0x6BEAA, size: 0x8, addend: 0x0, symName: __RINvNtCsfvfooZQ3Axs_4core3ptr13drop_in_placeINtNtCse1nGBsou5OW_5alloc3vec3VecReEECsdy4PFqiFpmx_20string_cache_codegen, symObjAddr: 0xA4, symBinAddr: 0x100026E64, symSize: 0x5C }
  - { offset: 0x6BED9, size: 0x8, addend: 0x0, symName: __RINvNtCsfvfooZQ3Axs_4core3ptr13drop_in_placeINtNtCse1nGBsou5OW_5alloc3vec3VecTyhEEECsdy4PFqiFpmx_20string_cache_codegen, symObjAddr: 0x100, symBinAddr: 0x100026EC0, symSize: 0x5C }
  - { offset: 0x6BF08, size: 0x8, addend: 0x0, symName: __RINvNtCsfvfooZQ3Axs_4core3ptr13drop_in_placeINtNtCse1nGBsou5OW_5alloc3vec3VecmEECsdy4PFqiFpmx_20string_cache_codegen, symObjAddr: 0x15C, symBinAddr: 0x100026F1C, symSize: 0x5C }
  - { offset: 0x6BF37, size: 0x8, addend: 0x0, symName: __RINvNtCsfvfooZQ3Axs_4core3ptr13drop_in_placeINtNtCse1nGBsou5OW_5alloc5boxed3BoxINtNtNtNtBL_11collections5btree4node12InternalNodeNtNtBL_6string6StringNtNtB1k_7set_val9SetValZSTEEECsdy4PFqiFpmx_20string_cache_codegen, symObjAddr: 0x1B8, symBinAddr: 0x100026F78, symSize: 0x2C }
  - { offset: 0x6BF66, size: 0x8, addend: 0x0, symName: __RINvNtCsfvfooZQ3Axs_4core3ptr13drop_in_placeINtNtCse1nGBsou5OW_5alloc5boxed3BoxINtNtNtNtBL_11collections5btree4node8LeafNodeNtNtBL_6string6StringNtNtB1k_7set_val9SetValZSTEEECsdy4PFqiFpmx_20string_cache_codegen, symObjAddr: 0x1E4, symBinAddr: 0x100026FA4, symSize: 0x2C }
  - { offset: 0x6BF95, size: 0x8, addend: 0x0, symName: __RINvNtCsfvfooZQ3Axs_4core3ptr13drop_in_placeINtNtCse1nGBsou5OW_5alloc7raw_vec6RawVecNtCs3cP53eQoTwO_11proc_macro25IdentEECsdy4PFqiFpmx_20string_cache_codegen, symObjAddr: 0x210, symBinAddr: 0x100026FD0, symSize: 0x24 }
  - { offset: 0x6BFC4, size: 0x8, addend: 0x0, symName: __RINvNtCsfvfooZQ3Axs_4core3ptr13drop_in_placeINtNtCse1nGBsou5OW_5alloc7raw_vec6RawVecReEECsdy4PFqiFpmx_20string_cache_codegen, symObjAddr: 0x234, symBinAddr: 0x100026FF4, symSize: 0x24 }
  - { offset: 0x6BFF3, size: 0x8, addend: 0x0, symName: __RINvNtCsfvfooZQ3Axs_4core3ptr13drop_in_placeINtNtCse1nGBsou5OW_5alloc7raw_vec6RawVecTyhEEECsdy4PFqiFpmx_20string_cache_codegen, symObjAddr: 0x258, symBinAddr: 0x100027018, symSize: 0x24 }
  - { offset: 0x6C022, size: 0x8, addend: 0x0, symName: __RINvNtCsfvfooZQ3Axs_4core3ptr13drop_in_placeINtNtCse1nGBsou5OW_5alloc7raw_vec6RawVecmEECsdy4PFqiFpmx_20string_cache_codegen, symObjAddr: 0x27C, symBinAddr: 0x10002703C, symSize: 0x24 }
  - { offset: 0x6C051, size: 0x8, addend: 0x0, symName: __RINvNtCsfvfooZQ3Axs_4core3ptr13drop_in_placeINtNtNtCse1nGBsou5OW_5alloc3vec13in_place_drop11InPlaceDropjEECsdy4PFqiFpmx_20string_cache_codegen, symObjAddr: 0x2A0, symBinAddr: 0x100027060, symSize: 0x24 }
  - { offset: 0x6C080, size: 0x8, addend: 0x0, symName: __RINvNtCsfvfooZQ3Axs_4core3ptr13drop_in_placeINtNtNtCse1nGBsou5OW_5alloc3vec13in_place_drop24InPlaceDstDataSrcBufDropINtNtB4_6option6OptionjEjEECsdy4PFqiFpmx_20string_cache_codegen, symObjAddr: 0x2C4, symBinAddr: 0x100027084, symSize: 0x24 }
  - { offset: 0x6C0AF, size: 0x8, addend: 0x0, symName: __RINvNtCsfvfooZQ3Axs_4core3ptr13drop_in_placeINtNtNtCse1nGBsou5OW_5alloc3vec9into_iter8IntoIterINtNtB4_6option6OptionjEEECsdy4PFqiFpmx_20string_cache_codegen, symObjAddr: 0x2E8, symBinAddr: 0x1000270A8, symSize: 0x24 }
  - { offset: 0x6C0DE, size: 0x8, addend: 0x0, symName: __RINvNtCsfvfooZQ3Axs_4core3ptr13drop_in_placeINtNtNtCse1nGBsou5OW_5alloc3vec9into_iter8IntoIterTmmEEECsdy4PFqiFpmx_20string_cache_codegen, symObjAddr: 0x30C, symBinAddr: 0x1000270CC, symSize: 0x24 }
  - { offset: 0x6C10D, size: 0x8, addend: 0x0, symName: __RINvNtCsfvfooZQ3Axs_4core3ptr13drop_in_placeINtNtNtCse1nGBsou5OW_5alloc3vec9into_iter8IntoIterTyhEEECsdy4PFqiFpmx_20string_cache_codegen, symObjAddr: 0x330, symBinAddr: 0x1000270F0, symSize: 0x24 }
  - { offset: 0x6C13C, size: 0x8, addend: 0x0, symName: __RINvNtCsfvfooZQ3Axs_4core3ptr13drop_in_placeINtNtNtNtB4_4iter8adapters3map3MapINtNtNtCse1nGBsou5OW_5alloc3vec9into_iter8IntoIterINtNtB4_6option6OptionjEENCNCINvCs6nR6nErDO7j_13phf_generator26generate_hash_with_hash_fnReINvCs9tf12AD4ZJa_10phf_shared4hashB3t_EEs_00EECsdy4PFqiFpmx_20string_cache_codegen, symObjAddr: 0x354, symBinAddr: 0x100027114, symSize: 0x24 }
  - { offset: 0x6C16B, size: 0x8, addend: 0x0, symName: __RINvNtCsfvfooZQ3Axs_4core3ptr13drop_in_placeINtNtNtNtCscOYdFFY2T5N_3std2io8buffered9bufwriter9BufWriterNtNtBP_2fs4FileEECsdy4PFqiFpmx_20string_cache_codegen, symObjAddr: 0x378, symBinAddr: 0x100027138, symSize: 0x88 }
  - { offset: 0x6C19A, size: 0x8, addend: 0x0, symName: __RINvNtCsfvfooZQ3Axs_4core3ptr13drop_in_placeINtNtNtNtCse1nGBsou5OW_5alloc11collections5btree4node11SplitResultNtNtBP_6string6StringNtNtBL_7set_val9SetValZSTNtNtBJ_6marker4LeafEECsdy4PFqiFpmx_20string_cache_codegen, symObjAddr: 0x400, symBinAddr: 0x1000271C0, symSize: 0x24 }
  - { offset: 0x6C1C9, size: 0x8, addend: 0x0, symName: __RINvNtCsfvfooZQ3Axs_4core3ptr13drop_in_placeINtNtNtNtCse1nGBsou5OW_5alloc11collections5btree4node11SplitResultNtNtBP_6string6StringNtNtBL_7set_val9SetValZSTNtNtBJ_6marker8InternalEECsdy4PFqiFpmx_20string_cache_codegen, symObjAddr: 0x424, symBinAddr: 0x1000271E4, symSize: 0x24 }
  - { offset: 0x6C1F8, size: 0x8, addend: 0x0, symName: __RINvNtCsfvfooZQ3Axs_4core3ptr13drop_in_placeINtNvXsd_NtNtCse1nGBsou5OW_5alloc3vec9into_iterINtBP_8IntoIterppENtNtNtB4_3ops4drop4Drop4drop9DropGuardINtNtB4_6option6OptionjENtNtBT_5alloc6GlobalEECsdy4PFqiFpmx_20string_cache_codegen, symObjAddr: 0x448, symBinAddr: 0x100027208, symSize: 0x24 }
  - { offset: 0x6C227, size: 0x8, addend: 0x0, symName: __RINvNtCsfvfooZQ3Axs_4core3ptr13drop_in_placeINtNvXsd_NtNtCse1nGBsou5OW_5alloc3vec9into_iterINtBP_8IntoIterppENtNtNtB4_3ops4drop4Drop4drop9DropGuardTmmENtNtBT_5alloc6GlobalEECsdy4PFqiFpmx_20string_cache_codegen, symObjAddr: 0x46C, symBinAddr: 0x10002722C, symSize: 0x24 }
  - { offset: 0x6C256, size: 0x8, addend: 0x0, symName: __RINvNtCsfvfooZQ3Axs_4core3ptr13drop_in_placeINtNvXsd_NtNtCse1nGBsou5OW_5alloc3vec9into_iterINtBP_8IntoIterppENtNtNtB4_3ops4drop4Drop4drop9DropGuardTyhENtNtBT_5alloc6GlobalEECsdy4PFqiFpmx_20string_cache_codegen, symObjAddr: 0x490, symBinAddr: 0x100027250, symSize: 0x24 }
  - { offset: 0x6C285, size: 0x8, addend: 0x0, symName: __RINvNtCsfvfooZQ3Axs_4core3ptr13drop_in_placeNCINvCs6nR6nErDO7j_13phf_generator26generate_hash_with_hash_fnReINvCs9tf12AD4ZJa_10phf_shared4hashB1G_EEs_0ECsdy4PFqiFpmx_20string_cache_codegen, symObjAddr: 0x4B4, symBinAddr: 0x100027274, symSize: 0x60 }
  - { offset: 0x6C2B4, size: 0x8, addend: 0x0, symName: __RINvNtCsfvfooZQ3Axs_4core3ptr13drop_in_placeNCINvMsi_NtCse1nGBsou5OW_5alloc3vecINtBP_3VecNtCs3cP53eQoTwO_11proc_macro25IdentE14extend_trustedINtNtNtNtB4_4iter8adapters3map3MapINtNtB2k_6copied6CopiedINtNtNtB4_5slice4iter4IterReEENCNvMCsdy4PFqiFpmx_20string_cache_codegenNtB3J_8AtomType9to_tokenss3_0EE0EB3J_, symObjAddr: 0x514, symBinAddr: 0x1000272D4, symSize: 0x24 }
  - { offset: 0x6C2E3, size: 0x8, addend: 0x0, symName: __RINvNtCsfvfooZQ3Axs_4core3ptr13drop_in_placeNCINvMsi_NtCse1nGBsou5OW_5alloc3vecINtBP_3VecNtCs9tf12AD4ZJa_10phf_shared6HashesE14extend_trustedINtNtNtNtB4_4iter8adapters3map3MapINtNtNtB4_5slice4iter4IterReENCNCINvCs6nR6nErDO7j_13phf_generator26generate_hash_with_hash_fnB3d_INvB1r_4hashB3d_EE00EE0ECsdy4PFqiFpmx_20string_cache_codegen, symObjAddr: 0x538, symBinAddr: 0x1000272F8, symSize: 0x24 }
  - { offset: 0x6C312, size: 0x8, addend: 0x0, symName: __RINvNtCsfvfooZQ3Axs_4core3ptr13drop_in_placeNCINvMsi_NtCse1nGBsou5OW_5alloc3vecINtBP_3VecReE14extend_trustedINtNtNtNtB4_4iter8adapters3map3MapINtNtNtB4_5slice4iter4IterjENCNvMCsdy4PFqiFpmx_20string_cache_codegenNtB2N_8AtomType9to_tokenss_0EE0EB2N_, symObjAddr: 0x55C, symBinAddr: 0x10002731C, symSize: 0x24 }
  - { offset: 0x6C341, size: 0x8, addend: 0x0, symName: __RINvNtCsfvfooZQ3Axs_4core3ptr13drop_in_placeNCINvMsi_NtCse1nGBsou5OW_5alloc3vecINtBP_3VechE14extend_trustedINtNtNtNtB4_4iter8adapters3map3MapINtNtNtB4_5slice4iter4IterhENCNvNtBR_3str13replace_ascii0EE0ECsdy4PFqiFpmx_20string_cache_codegen, symObjAddr: 0x580, symBinAddr: 0x100027340, symSize: 0x24 }
  - { offset: 0x6C370, size: 0x8, addend: 0x0, symName: __RINvNtCsfvfooZQ3Axs_4core3ptr13drop_in_placeNCINvMsi_NtCse1nGBsou5OW_5alloc3vecINtBP_3VecmE14extend_trustedINtNtNtNtB4_4iter8adapters3map3MapINtNtNtB4_5slice4iter4IterReENCNvMCsdy4PFqiFpmx_20string_cache_codegenNtB2N_8AtomType9to_tokenss1_0EE0EB2N_, symObjAddr: 0x5A4, symBinAddr: 0x100027364, symSize: 0x24 }
  - { offset: 0x6C39F, size: 0x8, addend: 0x0, symName: __RINvNtCsfvfooZQ3Axs_4core3ptr13drop_in_placeNCINvNtNtNtB4_4iter8adapters3map8map_foldRReNtCs9tf12AD4ZJa_10phf_shared6HashesuNCNCINvCs6nR6nErDO7j_13phf_generator26generate_hash_with_hash_fnB1m_INvB1q_4hashB1m_EE00NCINvNvNtNtNtBP_6traits8iterator8Iterator8for_each4callB1o_NCINvMsi_NtCse1nGBsou5OW_5alloc3vecINtB4u_3VecB1o_E14extend_trustedINtBL_3MapINtNtNtB4_5slice4iter4IterB1m_EB1Y_EE0E0E0ECsdy4PFqiFpmx_20string_cache_codegen, symObjAddr: 0x5C8, symBinAddr: 0x100027388, symSize: 0x24 }
  - { offset: 0x6C3CE, size: 0x8, addend: 0x0, symName: __RINvNtCsfvfooZQ3Axs_4core3ptr13drop_in_placeNCINvNtNtNtB4_4iter8adapters3map8map_foldRRemuNCNvMCsdy4PFqiFpmx_20string_cache_codegenNtB1v_8AtomType9to_tokenss1_0NCINvNvNtNtNtBP_6traits8iterator8Iterator8for_each4callmNCINvMsi_NtCse1nGBsou5OW_5alloc3vecINtB3B_3VecmE14extend_trustedINtBL_3MapINtNtNtB4_5slice4iter4IterB1m_EB1q_EE0E0E0EB1v_, symObjAddr: 0x5EC, symBinAddr: 0x1000273AC, symSize: 0x24 }
  - { offset: 0x6C3FD, size: 0x8, addend: 0x0, symName: __RINvNtCsfvfooZQ3Axs_4core3ptr13drop_in_placeNCINvNtNtNtB4_4iter8adapters3map8map_foldReNtCs3cP53eQoTwO_11proc_macro25IdentuNCNvMCsdy4PFqiFpmx_20string_cache_codegenNtB22_8AtomType9to_tokenss3_0NCINvNvNtNtNtBP_6traits8iterator8Iterator8for_each4callB1n_NCINvMsi_NtCse1nGBsou5OW_5alloc3vecINtB4b_3VecB1n_E14extend_trustedINtBL_3MapINtNtBN_6copied6CopiedINtNtNtB4_5slice4iter4IterB1l_EEB1X_EE0E0E0EB22_, symObjAddr: 0x610, symBinAddr: 0x1000273D0, symSize: 0x24 }
  - { offset: 0x6C42C, size: 0x8, addend: 0x0, symName: __RINvNtCsfvfooZQ3Axs_4core3ptr13drop_in_placeNCINvNtNtNtB4_4iter8adapters3map8map_foldRhhuNCNvNtCse1nGBsou5OW_5alloc3str13replace_ascii0NCINvNvNtNtNtBP_6traits8iterator8Iterator8for_each4callhNCINvMsi_NtB1v_3vecINtB3c_3VechE14extend_trustedINtBL_3MapINtNtNtB4_5slice4iter4IterhEB1p_EE0E0E0ECsdy4PFqiFpmx_20string_cache_codegen, symObjAddr: 0x634, symBinAddr: 0x1000273F4, symSize: 0x24 }
  - { offset: 0x6C45B, size: 0x8, addend: 0x0, symName: __RINvNtCsfvfooZQ3Axs_4core3ptr13drop_in_placeNCINvNtNtNtB4_4iter8adapters3map8map_foldRjReuNCNvMCsdy4PFqiFpmx_20string_cache_codegenNtB1v_8AtomType9to_tokenss_0NCINvNvNtNtNtBP_6traits8iterator8Iterator8for_each4callB1n_NCINvMsi_NtCse1nGBsou5OW_5alloc3vecINtB3D_3VecB1n_E14extend_trustedINtBL_3MapINtNtNtB4_5slice4iter4IterjEB1q_EE0E0E0EB1v_, symObjAddr: 0x658, symBinAddr: 0x100027418, symSize: 0x24 }
  - { offset: 0x6C48A, size: 0x8, addend: 0x0, symName: __RINvNtCsfvfooZQ3Axs_4core3ptr13drop_in_placeNCINvNtNtNtB4_4iter8adapters6copied9copy_foldReuNCINvNtBN_3map8map_foldB1p_NtCs3cP53eQoTwO_11proc_macro25IdentuNCNvMCsdy4PFqiFpmx_20string_cache_codegenNtB2y_8AtomType9to_tokenss3_0NCINvNvNtNtNtBP_6traits8iterator8Iterator8for_each4callB1T_NCINvMsi_NtCse1nGBsou5OW_5alloc3vecINtB4H_3VecB1T_E14extend_trustedINtB1x_3MapINtBL_6CopiedINtNtNtB4_5slice4iter4IterB1p_EEB2t_EE0E0E0E0EB2y_, symObjAddr: 0x67C, symBinAddr: 0x10002743C, symSize: 0x24 }
  - { offset: 0x6C4B9, size: 0x8, addend: 0x0, symName: __RINvNtCsfvfooZQ3Axs_4core3ptr13drop_in_placeNCINvNvNtNtNtNtB4_4iter6traits8iterator8Iterator8for_each4callNtCs3cP53eQoTwO_11proc_macro25IdentNCINvMsi_NtCse1nGBsou5OW_5alloc3vecINtB2o_3VecB1G_E14extend_trustedINtNtNtBT_8adapters3map3MapINtNtB3p_6copied6CopiedINtNtNtB4_5slice4iter4IterReEENCNvMCsdy4PFqiFpmx_20string_cache_codegenNtB4H_8AtomType9to_tokenss3_0EE0E0EB4H_, symObjAddr: 0x6A0, symBinAddr: 0x100027460, symSize: 0x24 }
  - { offset: 0x6C4E8, size: 0x8, addend: 0x0, symName: __RINvNtCsfvfooZQ3Axs_4core3ptr13drop_in_placeNCINvNvNtNtNtNtB4_4iter6traits8iterator8Iterator8for_each4callNtCs9tf12AD4ZJa_10phf_shared6HashesNCINvMsi_NtCse1nGBsou5OW_5alloc3vecINtB2o_3VecB1G_E14extend_trustedINtNtNtBT_8adapters3map3MapINtNtNtB4_5slice4iter4IterReENCNCINvCs6nR6nErDO7j_13phf_generator26generate_hash_with_hash_fnB4b_INvB1I_4hashB4b_EE00EE0E0ECsdy4PFqiFpmx_20string_cache_codegen, symObjAddr: 0x6C4, symBinAddr: 0x100027484, symSize: 0x24 }
  - { offset: 0x6C517, size: 0x8, addend: 0x0, symName: __RINvNtCsfvfooZQ3Axs_4core3ptr13drop_in_placeNCINvNvNtNtNtNtB4_4iter6traits8iterator8Iterator8for_each4callReNCINvMsi_NtCse1nGBsou5OW_5alloc3vecINtB1R_3VecB1G_E14extend_trustedINtNtNtBT_8adapters3map3MapINtNtNtB4_5slice4iter4IterjENCNvMCsdy4PFqiFpmx_20string_cache_codegenNtB3L_8AtomType9to_tokenss_0EE0E0EB3L_, symObjAddr: 0x6E8, symBinAddr: 0x1000274A8, symSize: 0x24 }
  - { offset: 0x6C546, size: 0x8, addend: 0x0, symName: __RINvNtCsfvfooZQ3Axs_4core3ptr13drop_in_placeNCINvNvNtNtNtNtB4_4iter6traits8iterator8Iterator8for_each4callhNCINvMsi_NtCse1nGBsou5OW_5alloc3vecINtB1Q_3VechE14extend_trustedINtNtNtBT_8adapters3map3MapINtNtNtB4_5slice4iter4IterhENCNvNtB1S_3str13replace_ascii0EE0E0ECsdy4PFqiFpmx_20string_cache_codegen, symObjAddr: 0x70C, symBinAddr: 0x1000274CC, symSize: 0x24 }
  - { offset: 0x6C575, size: 0x8, addend: 0x0, symName: __RINvNtCsfvfooZQ3Axs_4core3ptr13drop_in_placeNCINvNvNtNtNtNtB4_4iter6traits8iterator8Iterator8for_each4callmNCINvMsi_NtCse1nGBsou5OW_5alloc3vecINtB1Q_3VecmE14extend_trustedINtNtNtBT_8adapters3map3MapINtNtNtB4_5slice4iter4IterReENCNvMCsdy4PFqiFpmx_20string_cache_codegenNtB3I_8AtomType9to_tokenss1_0EE0E0EB3I_, symObjAddr: 0x730, symBinAddr: 0x1000274F0, symSize: 0x24 }
  - { offset: 0x6C5A4, size: 0x8, addend: 0x0, symName: __RINvNtCsfvfooZQ3Axs_4core3ptr13drop_in_placeNtNtCscOYdFFY2T5N_3std2fs4FileECsdy4PFqiFpmx_20string_cache_codegen, symObjAddr: 0x774, symBinAddr: 0x100027514, symSize: 0x24 }
  - { offset: 0x6C5D3, size: 0x8, addend: 0x0, symName: __RINvNtCsfvfooZQ3Axs_4core3ptr13drop_in_placeNtNtNtNtCscOYdFFY2T5N_3std2os2fd5owned7OwnedFdECsdy4PFqiFpmx_20string_cache_codegen, symObjAddr: 0x798, symBinAddr: 0x100027538, symSize: 0x24 }
  - { offset: 0x6C602, size: 0x8, addend: 0x0, symName: __RINvNtCsfvfooZQ3Axs_4core3ptr13drop_in_placeNtNtNtNtNtCscOYdFFY2T5N_3std3sys3pal4unix2fd8FileDescECsdy4PFqiFpmx_20string_cache_codegen, symObjAddr: 0x7BC, symBinAddr: 0x10002755C, symSize: 0x24 }
  - { offset: 0x6C631, size: 0x8, addend: 0x0, symName: __RINvNtCsfvfooZQ3Axs_4core3ptr13drop_in_placeNtNtNtNtNtCscOYdFFY2T5N_3std3sys3pal4unix2fs4FileECsdy4PFqiFpmx_20string_cache_codegen, symObjAddr: 0x7E0, symBinAddr: 0x100027580, symSize: 0x24 }
  - { offset: 0x6C660, size: 0x8, addend: 0x0, symName: __RINvNtCsfvfooZQ3Axs_4core3ptr13drop_in_placeNtNvMs_NtNtNtCscOYdFFY2T5N_3std2io8buffered9bufwriterINtBN_9BufWriterpE9flush_buf8BufGuardECsdy4PFqiFpmx_20string_cache_codegen, symObjAddr: 0x804, symBinAddr: 0x1000275A4, symSize: 0x24 }
  - { offset: 0x6C68F, size: 0x8, addend: 0x0, symName: __RINvNtCsfvfooZQ3Axs_4core3ptr13drop_in_placeNtNvNtNtNtCse1nGBsou5OW_5alloc11collections5btree3mem7replace10PanicGuardECsdy4PFqiFpmx_20string_cache_codegen, symObjAddr: 0x828, symBinAddr: 0x1000275C8, symSize: 0x24 }
  - { offset: 0x6C6BE, size: 0x8, addend: 0x0, symName: __RINvNtCsfvfooZQ3Axs_4core3ptr13drop_in_placeSNtCs3cP53eQoTwO_11proc_macro25IdentECsdy4PFqiFpmx_20string_cache_codegen, symObjAddr: 0x85C, symBinAddr: 0x1000275EC, symSize: 0xC4 }
  - { offset: 0x6C6ED, size: 0x8, addend: 0x0, symName: __RINvNtCsfvfooZQ3Axs_4core3ptr13drop_in_placeTINtNtCse1nGBsou5OW_5alloc3vec3VecNtCs3cP53eQoTwO_11proc_macro25IdentEIBI_TyhEEEECsdy4PFqiFpmx_20string_cache_codegen, symObjAddr: 0x920, symBinAddr: 0x1000276B0, symSize: 0x60 }
  - { offset: 0x6C71C, size: 0x8, addend: 0x0, symName: __RINvNtCsfvfooZQ3Axs_4core3ptr13drop_in_placeTINtNtCse1nGBsou5OW_5alloc3vec3VecmEBH_EECsdy4PFqiFpmx_20string_cache_codegen, symObjAddr: 0x980, symBinAddr: 0x100027710, symSize: 0x60 }
  - { offset: 0x6C74B, size: 0x8, addend: 0x0, symName: __RINvNtCsfvfooZQ3Axs_4core3ptr13drop_in_placeTINtNtCse1nGBsou5OW_5alloc3vec3VecyEIBI_hEEECsdy4PFqiFpmx_20string_cache_codegen, symObjAddr: 0x9E0, symBinAddr: 0x100027770, symSize: 0x60 }
  - { offset: 0x6C77A, size: 0x8, addend: 0x0, symName: __RINvNtCsfvfooZQ3Axs_4core3ptr13drop_in_placeTNtNtCse1nGBsou5OW_5alloc6string6StringNtNtNtNtBL_11collections5btree7set_val9SetValZSTEECsdy4PFqiFpmx_20string_cache_codegen, symObjAddr: 0xA40, symBinAddr: 0x1000277D0, symSize: 0x24 }
  - { offset: 0x6CDC6, size: 0x8, addend: 0x0, symName: __RNvNvNtCsfvfooZQ3Axs_4core3ptr13read_volatile18precondition_checkCsdy4PFqiFpmx_20string_cache_codegen, symObjAddr: 0x23FC, symBinAddr: 0x10002918C, symSize: 0x100 }
  - { offset: 0x6E387, size: 0x8, addend: 0x0, symName: __RINvNtNtNtCsfvfooZQ3Axs_4core5slice4sort6stable14driftsort_mainNtCs6nR6nErDO7j_13phf_generator6BucketNCINvMNtCse1nGBsou5OW_5alloc5sliceSBZ_11sort_by_keyjNCINvMB11_NtB11_9Generator5resetINtNtNtNtB8_4iter8adapters3map3MapINtNtB6_4iter4IterReENCNCINvB11_26generate_hash_with_hash_fnB3N_INvCs9tf12AD4ZJa_10phf_shared4hashB3N_EE00EEs_0E0INtNtB1J_3vec3VecBZ_EECsdy4PFqiFpmx_20string_cache_codegen, symObjAddr: 0xCC0, symBinAddr: 0x100027A50, symSize: 0x2AC }
  - { offset: 0x6E5A2, size: 0x8, addend: 0x0, symName: __RINvNtNtNtNtCsfvfooZQ3Axs_4core5slice4sort6stable5drift10create_runNtCs6nR6nErDO7j_13phf_generator6BucketNCINvMNtCse1nGBsou5OW_5alloc5sliceSB13_11sort_by_keyjNCINvMB15_NtB15_9Generator5resetINtNtNtNtBa_4iter8adapters3map3MapINtNtB8_4iter4IterReENCNCINvB15_26generate_hash_with_hash_fnB3S_INvCs9tf12AD4ZJa_10phf_shared4hashB3S_EE00EEs_0E0ECsdy4PFqiFpmx_20string_cache_codegen, symObjAddr: 0xF6C, symBinAddr: 0x100027CFC, symSize: 0x3A8 }
  - { offset: 0x6EAAD, size: 0x8, addend: 0x0, symName: __RINvNtNtNtNtCsfvfooZQ3Axs_4core5slice4sort6stable5drift16stable_quicksortNtCs6nR6nErDO7j_13phf_generator6BucketNCINvMNtCse1nGBsou5OW_5alloc5sliceSB19_11sort_by_keyjNCINvMB1b_NtB1b_9Generator5resetINtNtNtNtBa_4iter8adapters3map3MapINtNtB8_4iter4IterReENCNCINvB1b_26generate_hash_with_hash_fnB3Y_INvCs9tf12AD4ZJa_10phf_shared4hashB3Y_EE00EEs_0E0ECsdy4PFqiFpmx_20string_cache_codegen, symObjAddr: 0x1314, symBinAddr: 0x1000280A4, symSize: 0xB4 }
  - { offset: 0x6ECC2, size: 0x8, addend: 0x0, symName: __RINvNtNtNtNtCsfvfooZQ3Axs_4core5slice4sort6stable5drift4sortNtCs6nR6nErDO7j_13phf_generator6BucketNCINvMNtCse1nGBsou5OW_5alloc5sliceSBW_11sort_by_keyjNCINvMBY_NtBY_9Generator5resetINtNtNtNtBa_4iter8adapters3map3MapINtNtB8_4iter4IterReENCNCINvBY_26generate_hash_with_hash_fnB3I_INvCs9tf12AD4ZJa_10phf_shared4hashB3I_EE00EEs_0E0ECsdy4PFqiFpmx_20string_cache_codegen, symObjAddr: 0x13C8, symBinAddr: 0x100028158, symSize: 0x520 }
  - { offset: 0x6F4BE, size: 0x8, addend: 0x0, symName: __RNvMNtCsfvfooZQ3Axs_4core5sliceSTmmE8iter_mutCsdy4PFqiFpmx_20string_cache_codegen, symObjAddr: 0x1CFC, symBinAddr: 0x100028A8C, symSize: 0x28 }
  - { offset: 0x6F4F5, size: 0x8, addend: 0x0, symName: __RNvMNtCsfvfooZQ3Axs_4core5sliceSy4iterCsdy4PFqiFpmx_20string_cache_codegen, symObjAddr: 0x1D24, symBinAddr: 0x100028AB4, symSize: 0x28 }
  - { offset: 0x6F85B, size: 0x8, addend: 0x0, symName: __RNvNvNtNtCsfvfooZQ3Axs_4core5slice3raw14from_raw_parts18precondition_checkCsdy4PFqiFpmx_20string_cache_codegen, symObjAddr: 0x24FC, symBinAddr: 0x10002928C, symSize: 0x168 }
  - { offset: 0x6F9A1, size: 0x8, addend: 0x0, symName: __RNvNvNtNtCsfvfooZQ3Axs_4core5slice3raw18from_raw_parts_mut18precondition_checkCsdy4PFqiFpmx_20string_cache_codegen, symObjAddr: 0x2664, symBinAddr: 0x1000293F4, symSize: 0x168 }
  - { offset: 0x6FCFE, size: 0x8, addend: 0x0, symName: __RNvYINvCs9tf12AD4ZJa_10phf_shared4hashReEINtNtNtCsfvfooZQ3Axs_4core3ops8function2FnTRBA_RyEE4callCsdy4PFqiFpmx_20string_cache_codegen, symObjAddr: 0x2C50, symBinAddr: 0x1000299E0, symSize: 0x30 }
  - { offset: 0x6FD48, size: 0x8, addend: 0x0, symName: __RNvYNvMNtCse1nGBsou5OW_5alloc6stringNtB5_6String6as_strINtNtNtCsfvfooZQ3Axs_4core3ops8function5FnMutTRBy_EE8call_mutCsdy4PFqiFpmx_20string_cache_codegen, symObjAddr: 0x2C80, symBinAddr: 0x100029A10, symSize: 0x28 }
  - { offset: 0x6FDED, size: 0x8, addend: 0x0, symName: __RNCINvNtNtNtCsfvfooZQ3Axs_4core4iter8adapters6copied9copy_foldReuNCINvNtB6_3map8map_foldBY_NtCs3cP53eQoTwO_11proc_macro25IdentuNCNvMCsdy4PFqiFpmx_20string_cache_codegenNtB26_8AtomType9to_tokenss3_0NCINvNvNtNtNtB8_6traits8iterator8Iterator8for_each4callB1r_NCINvMsi_NtCse1nGBsou5OW_5alloc3vecINtB4f_3VecB1r_E14extend_trustedINtB16_3MapINtB4_6CopiedINtNtNtBa_5slice4iter4IterBY_EEB21_EE0E0E0E0B26_, symObjAddr: 0x1CA0, symBinAddr: 0x100028A30, symSize: 0x40 }
  - { offset: 0x6FE6D, size: 0x8, addend: 0x0, symName: __RINvXs_NtNtNtCsfvfooZQ3Axs_4core4iter8adapters6copiedINtB5_6CopiedINtNtNtBb_5slice4iter4IterReEENtNtNtB9_6traits8iterator8Iterator4folduNCINvNtB7_3map8map_foldB1s_NtCs3cP53eQoTwO_11proc_macro25IdentuNCNvMCsdy4PFqiFpmx_20string_cache_codegenNtB3g_8AtomType9to_tokenss3_0NCINvNvB1w_8for_each4callB2B_NCINvMsi_NtCse1nGBsou5OW_5alloc3vecINtB4V_3VecB2B_E14extend_trustedINtB2f_3MapBP_B3b_EE0E0E0EB3g_, symObjAddr: 0x18E8, symBinAddr: 0x100028678, symSize: 0x54 }
  - { offset: 0x6FEF4, size: 0x8, addend: 0x0, symName: __RNvXs_NtNtNtCsfvfooZQ3Axs_4core4iter8adapters6copiedINtB4_6CopiedINtNtNtBa_5slice4iter4IterReEENtNtNtB8_6traits8iterator8Iterator9size_hintCsdy4PFqiFpmx_20string_cache_codegen, symObjAddr: 0x2BC0, symBinAddr: 0x100029950, symSize: 0x24 }
  - { offset: 0x701CD, size: 0x8, addend: 0x0, symName: __RINvYINtNtNtCsg10Tkzhqh8d_4rand13distributions12distribution8DistIterNtB8_8StandardNtNtNtBa_4rngs5small8SmallRngyENtNtNtNtCsfvfooZQ3Axs_4core4iter6traits8iterator8Iterator4findNCINvCs6nR6nErDO7j_13phf_generator26generate_hash_with_hash_fnReINvCs9tf12AD4ZJa_10phf_shared4hashB3O_EE0ECsdy4PFqiFpmx_20string_cache_codegen, symObjAddr: 0x193C, symBinAddr: 0x1000286CC, symSize: 0x8C }
  - { offset: 0x70267, size: 0x8, addend: 0x0, symName: __RINvYINtNtNtCsg10Tkzhqh8d_4rand13distributions12distribution8DistIterNtB8_8StandardNtNtNtBa_4rngs5small8SmallRngyENtNtNtNtCsfvfooZQ3Axs_4core4iter6traits8iterator8Iterator8try_folduNCINvNvB1O_4find5checkyNCINvCs6nR6nErDO7j_13phf_generator26generate_hash_with_hash_fnReINvCs9tf12AD4ZJa_10phf_shared4hashB4g_EE0E0INtNtNtB1W_3ops12control_flow11ControlFlowyEECsdy4PFqiFpmx_20string_cache_codegen, symObjAddr: 0x19C8, symBinAddr: 0x100028758, symSize: 0x1B4 }
  - { offset: 0x70343, size: 0x8, addend: 0x0, symName: __RINvYINtNtNtNtCse1nGBsou5OW_5alloc11collections5btree3set4IterNtNtBc_6string6StringENtNtNtNtCsfvfooZQ3Axs_4core4iter6traits8iterator8Iterator3mapReNvMB10_BY_6as_strECsdy4PFqiFpmx_20string_cache_codegen, symObjAddr: 0x1B7C, symBinAddr: 0x10002890C, symSize: 0x30 }
  - { offset: 0x703B1, size: 0x8, addend: 0x0, symName: __RINvYINtNtNtNtCse1nGBsou5OW_5alloc11collections5btree3set4IterNtNtBc_6string6StringENtNtNtNtCsfvfooZQ3Axs_4core4iter6traits8iterator8Iterator4folduNCINvNtNtB1q_8adapters3map8map_foldRBY_ReuNvMB10_BY_6as_strNCINvNvB1k_9partition6extendB2Y_INtNtBc_3vec3VecB2Y_ENCNvMCsdy4PFqiFpmx_20string_cache_codegenNtB4e_8AtomType9to_tokens0E0E0EB4e_, symObjAddr: 0x1BAC, symBinAddr: 0x10002893C, symSize: 0xB8 }
  - { offset: 0x70441, size: 0x8, addend: 0x0, symName: __RINvYINtNtNtNtCsfvfooZQ3Axs_4core4iter8adapters6copied6CopiedINtNtNtBc_5slice4iter4IterReEENtNtNtBa_6traits8iterator8Iterator3mapNtCs3cP53eQoTwO_11proc_macro25IdentNCNvMCsdy4PFqiFpmx_20string_cache_codegenNtB2H_8AtomType9to_tokenss3_0EB2H_, symObjAddr: 0x1C64, symBinAddr: 0x1000289F4, symSize: 0x3C }
  - { offset: 0x704F0, size: 0x8, addend: 0x0, symName: __RNvXsF_NtNtCsfvfooZQ3Axs_4core4iter5rangejNtB5_4Step17forward_uncheckedCsdy4PFqiFpmx_20string_cache_codegen, symObjAddr: 0x2B30, symBinAddr: 0x1000298C0, symSize: 0x48 }
  - { offset: 0x7054F, size: 0x8, addend: 0x0, symName: __RNvXsF_NtNtCsfvfooZQ3Axs_4core4iter5rangejNtB5_4Step18backward_uncheckedCsdy4PFqiFpmx_20string_cache_codegen, symObjAddr: 0x2B78, symBinAddr: 0x100029908, symSize: 0x48 }
  - { offset: 0x708EE, size: 0x8, addend: 0x0, symName: __RNvNvXs5_NtNtCsfvfooZQ3Axs_4core3str6traitsINtNtNtBb_3ops5range5RangejEINtNtNtBb_5slice5index10SliceIndexeE13get_unchecked18precondition_checkCsdy4PFqiFpmx_20string_cache_codegen, symObjAddr: 0x27CC, symBinAddr: 0x10002955C, symSize: 0x60 }
  - { offset: 0x71838, size: 0x8, addend: 0x0, symName: __RINvNtNtCse1nGBsou5OW_5alloc3vec16in_place_collect18from_iter_in_placeINtNtNtNtCsfvfooZQ3Axs_4core4iter8adapters3map3MapINtNtB4_9into_iter8IntoIterINtNtB1f_6option6OptionjEENCNCINvCs6nR6nErDO7j_13phf_generator26generate_hash_with_hash_fnReINvCs9tf12AD4ZJa_10phf_shared4hashB3N_EEs_00EjECsdy4PFqiFpmx_20string_cache_codegen, symObjAddr: 0xA64, symBinAddr: 0x1000277F4, symSize: 0x25C }
  - { offset: 0x71C8D, size: 0x8, addend: 0x0, symName: __RNSINvNtNtCse1nGBsou5OW_5alloc3vec16in_place_collect18from_iter_in_placeINtNtNtNtCsfvfooZQ3Axs_4core4iter8adapters3map3MapINtNtB6_9into_iter8IntoIterINtNtB1h_6option6OptionjEENCNCINvCs6nR6nErDO7j_13phf_generator26generate_hash_with_hash_fnReINvCs9tf12AD4ZJa_10phf_shared4hashB3P_EEs_00EjE5reifyCsdy4PFqiFpmx_20string_cache_codegen, symObjAddr: 0x1CE0, symBinAddr: 0x100028A70, symSize: 0x1C }
  - { offset: 0x727E5, size: 0x8, addend: 0x0, symName: __RNvXsu_NtNtNtCse1nGBsou5OW_5alloc11collections5btree3setINtB5_4IterNtNtBb_6string6StringENtNtNtNtCsfvfooZQ3Axs_4core4iter6traits8iterator8Iterator4nextCsdy4PFqiFpmx_20string_cache_codegen, symObjAddr: 0x2BE4, symBinAddr: 0x100029974, symSize: 0x6C }
  - { offset: 0x72FB3, size: 0x8, addend: 0x0, symName: __RNvMs_NtCse1nGBsou5OW_5alloc5boxedINtB4_3BoxINtNtNtNtB6_11collections5btree4node12InternalNodeNtNtB6_6string6StringNtNtBL_7set_val9SetValZSTEE13new_uninit_inCsdy4PFqiFpmx_20string_cache_codegen, symObjAddr: 0x1EB0, symBinAddr: 0x100028C40, symSize: 0x90 }
  - { offset: 0x7309F, size: 0x8, addend: 0x0, symName: __RNvMs_NtCse1nGBsou5OW_5alloc5boxedINtB4_3BoxINtNtNtNtB6_11collections5btree4node12InternalNodeNtNtB6_6string6StringNtNtBL_7set_val9SetValZSTEE17try_new_uninit_inCsdy4PFqiFpmx_20string_cache_codegen, symObjAddr: 0x1F40, symBinAddr: 0x100028CD0, symSize: 0x12C }
  - { offset: 0x732D7, size: 0x8, addend: 0x0, symName: __RNvMs_NtCse1nGBsou5OW_5alloc5boxedINtB4_3BoxINtNtNtNtB6_11collections5btree4node8LeafNodeNtNtB6_6string6StringNtNtBL_7set_val9SetValZSTEE13new_uninit_inCsdy4PFqiFpmx_20string_cache_codegen, symObjAddr: 0x206C, symBinAddr: 0x100028DFC, symSize: 0x90 }
  - { offset: 0x733C3, size: 0x8, addend: 0x0, symName: __RNvMs_NtCse1nGBsou5OW_5alloc5boxedINtB4_3BoxINtNtNtNtB6_11collections5btree4node8LeafNodeNtNtB6_6string6StringNtNtBL_7set_val9SetValZSTEE17try_new_uninit_inCsdy4PFqiFpmx_20string_cache_codegen, symObjAddr: 0x20FC, symBinAddr: 0x100028E8C, symSize: 0x12C }
  - { offset: 0x7367F, size: 0x8, addend: 0x0, symName: __RNvXs6_NtCse1nGBsou5OW_5alloc5boxedINtB5_3BoxINtNtNtNtB7_11collections5btree4node12InternalNodeNtNtB7_6string6StringNtNtBM_7set_val9SetValZSTEENtNtNtCsfvfooZQ3Axs_4core3ops4drop4Drop4dropCsdy4PFqiFpmx_20string_cache_codegen, symObjAddr: 0x29D0, symBinAddr: 0x100029760, symSize: 0xB0 }
  - { offset: 0x737B6, size: 0x8, addend: 0x0, symName: __RNvXs6_NtCse1nGBsou5OW_5alloc5boxedINtB5_3BoxINtNtNtNtB7_11collections5btree4node8LeafNodeNtNtB7_6string6StringNtNtBM_7set_val9SetValZSTEENtNtNtCsfvfooZQ3Axs_4core3ops4drop4Drop4dropCsdy4PFqiFpmx_20string_cache_codegen, symObjAddr: 0x2A80, symBinAddr: 0x100029810, symSize: 0xB0 }
  - { offset: 0x741DC, size: 0x8, addend: 0x0, symName: __RNvXs4_NtCs2cqEZUIJimJ_5quote9___privateINtB5_9RepInterpRNtCs3cP53eQoTwO_11proc_macro211TokenStreamENtNtB7_9to_tokens8ToTokens9to_tokensCsdy4PFqiFpmx_20string_cache_codegen, symObjAddr: 0x282C, symBinAddr: 0x1000295BC, symSize: 0x3C }
  - { offset: 0x7421B, size: 0x8, addend: 0x0, symName: __RNvXs4_NtCs2cqEZUIJimJ_5quote9___privateINtB5_9RepInterpRNtCs3cP53eQoTwO_11proc_macro25IdentENtNtB7_9to_tokens8ToTokens9to_tokensCsdy4PFqiFpmx_20string_cache_codegen, symObjAddr: 0x2868, symBinAddr: 0x1000295F8, symSize: 0x3C }
  - { offset: 0x7425A, size: 0x8, addend: 0x0, symName: __RNvXs4_NtCs2cqEZUIJimJ_5quote9___privateINtB5_9RepInterpRReENtNtB7_9to_tokens8ToTokens9to_tokensCsdy4PFqiFpmx_20string_cache_codegen, symObjAddr: 0x28A4, symBinAddr: 0x100029634, symSize: 0x3C }
  - { offset: 0x74299, size: 0x8, addend: 0x0, symName: __RNvXs4_NtCs2cqEZUIJimJ_5quote9___privateINtB5_9RepInterpRhENtNtB7_9to_tokens8ToTokens9to_tokensCsdy4PFqiFpmx_20string_cache_codegen, symObjAddr: 0x28E0, symBinAddr: 0x100029670, symSize: 0x3C }
  - { offset: 0x742D8, size: 0x8, addend: 0x0, symName: __RNvXs4_NtCs2cqEZUIJimJ_5quote9___privateINtB5_9RepInterpRmENtNtB7_9to_tokens8ToTokens9to_tokensCsdy4PFqiFpmx_20string_cache_codegen, symObjAddr: 0x291C, symBinAddr: 0x1000296AC, symSize: 0x3C }
  - { offset: 0x74317, size: 0x8, addend: 0x0, symName: __RNvXs4_NtCs2cqEZUIJimJ_5quote9___privateINtB5_9RepInterpRyENtNtB7_9to_tokens8ToTokens9to_tokensCsdy4PFqiFpmx_20string_cache_codegen, symObjAddr: 0x2958, symBinAddr: 0x1000296E8, symSize: 0x3C }
  - { offset: 0x74356, size: 0x8, addend: 0x0, symName: __RNvXs4_NtCs2cqEZUIJimJ_5quote9___privateINtB5_9RepInterpmENtNtB7_9to_tokens8ToTokens9to_tokensCsdy4PFqiFpmx_20string_cache_codegen, symObjAddr: 0x2994, symBinAddr: 0x100029724, symSize: 0x3C }
  - { offset: 0x74459, size: 0x8, addend: 0x0, symName: __RNvMs2_NtCs2cqEZUIJimJ_5quote9___privateINtB5_9RepInterpRNtCs3cP53eQoTwO_11proc_macro25IdentE4nextCsdy4PFqiFpmx_20string_cache_codegen, symObjAddr: 0x1D4C, symBinAddr: 0x100028ADC, symSize: 0x2C }
  - { offset: 0x74533, size: 0x8, addend: 0x0, symName: __RNvMs5_NtNtCscOYdFFY2T5N_3std2io5errorNtB5_5Error14is_interruptedCsdy4PFqiFpmx_20string_cache_codegen, symObjAddr: 0x1D78, symBinAddr: 0x100028B08, symSize: 0x138 }
  - { offset: 0x74973, size: 0x8, addend: 0x0, symName: __RNvMsb_NtNtNtCse1nGBsou5OW_5alloc11collections5btree3setINtB5_8BTreeSetNtNtBb_6string6StringE3newCsdy4PFqiFpmx_20string_cache_codegen, symObjAddr: 0x2228, symBinAddr: 0x100028FB8, symSize: 0x40 }
  - { offset: 0x74AC4, size: 0x8, addend: 0x0, symName: __RNvMsc_NtNtNtCse1nGBsou5OW_5alloc11collections5btree3setINtB5_8BTreeSetNtNtBb_6string6StringE4iterCsdy4PFqiFpmx_20string_cache_codegen, symObjAddr: 0x2268, symBinAddr: 0x100028FF8, symSize: 0x154 }
  - { offset: 0x74C1A, size: 0x8, addend: 0x0, symName: __RNvMsc_NtNtNtCse1nGBsou5OW_5alloc11collections5btree3setINtB5_8BTreeSetNtNtBb_6string6StringE6insertCsdy4PFqiFpmx_20string_cache_codegen, symObjAddr: 0x23BC, symBinAddr: 0x10002914C, symSize: 0x40 }
  - { offset: 0x754A9, size: 0x8, addend: 0x0, symName: __RINvCs6nR6nErDO7j_13phf_generator13generate_hashReECsdy4PFqiFpmx_20string_cache_codegen, symObjAddr: 0x0, symBinAddr: 0x100029A38, symSize: 0x38 }
  - { offset: 0x75DD3, size: 0x8, addend: 0x0, symName: __RNvMs7_NtCsfvfooZQ3Axs_4core3numy13from_le_bytesCsdy4PFqiFpmx_20string_cache_codegen, symObjAddr: 0x12DC, symBinAddr: 0x10002AD14, symSize: 0x1C }
  - { offset: 0x75E93, size: 0x8, addend: 0x0, symName: __RNvNvMs3_NtCsfvfooZQ3Axs_4core3numi13unchecked_neg18precondition_checkCsdy4PFqiFpmx_20string_cache_codegen, symObjAddr: 0x24CC, symBinAddr: 0x10002BDD4, symSize: 0x4C }
  - { offset: 0x75F2D, size: 0x8, addend: 0x0, symName: __RNvNvMs9_NtCsfvfooZQ3Axs_4core3numj13unchecked_add18precondition_checkCsdy4PFqiFpmx_20string_cache_codegen, symObjAddr: 0x2518, symBinAddr: 0x10002BE20, symSize: 0x44 }
  - { offset: 0x75FB9, size: 0x8, addend: 0x0, symName: __RNvNvMs9_NtCsfvfooZQ3Axs_4core3numj13unchecked_mul18precondition_checkCsdy4PFqiFpmx_20string_cache_codegen, symObjAddr: 0x255C, symBinAddr: 0x10002BE64, symSize: 0x40 }
  - { offset: 0x7601B, size: 0x8, addend: 0x0, symName: __RNvNvMs9_NtCsfvfooZQ3Axs_4core3numj13unchecked_sub18precondition_checkCsdy4PFqiFpmx_20string_cache_codegen, symObjAddr: 0x259C, symBinAddr: 0x10002BEA4, symSize: 0x40 }
  - { offset: 0x763CE, size: 0x8, addend: 0x0, symName: __RINvNtNtNtCsfvfooZQ3Axs_4core4iter6traits7collect22default_extend_tuple_bNtCs3cP53eQoTwO_11proc_macro25IdentTyhEINtNtCse1nGBsou5OW_5alloc3vec3VecB19_EIB1N_B1I_EINtNtNtB6_8adapters3map3MapINtNtNtB8_5slice4iter4IterReENCNvMCsdy4PFqiFpmx_20string_cache_codegenNtB3x_8AtomType9to_tokenss4_0EEB3x_, symObjAddr: 0x564, symBinAddr: 0x100029F9C, symSize: 0xE0 }
  - { offset: 0x76462, size: 0x8, addend: 0x0, symName: __RINvNtNtNtCsfvfooZQ3Axs_4core4iter6traits7collect22default_extend_tuple_bmmINtNtCse1nGBsou5OW_5alloc3vec3VecmEB1b_INtNtB1e_9into_iter8IntoIterTmmEEECsdy4PFqiFpmx_20string_cache_codegen, symObjAddr: 0x644, symBinAddr: 0x10002A07C, symSize: 0xEC }
  - { offset: 0x764F6, size: 0x8, addend: 0x0, symName: __RINvNtNtNtCsfvfooZQ3Axs_4core4iter6traits7collect22default_extend_tuple_byhINtNtCse1nGBsou5OW_5alloc3vec3VecyEIB1c_hEINtNtB1e_9into_iter8IntoIterTyhEEECsdy4PFqiFpmx_20string_cache_codegen, symObjAddr: 0x730, symBinAddr: 0x10002A168, symSize: 0xEC }
  - { offset: 0x76594, size: 0x8, addend: 0x0, symName: __RNCINvNvNtNtNtCsfvfooZQ3Axs_4core4iter6traits7collect22default_extend_tuple_b6extendNtCs3cP53eQoTwO_11proc_macro25IdentTyhEINtNtCse1nGBsou5OW_5alloc3vec3VecB1k_EIB1Y_B1T_EE0Csdy4PFqiFpmx_20string_cache_codegen, symObjAddr: 0xB6C, symBinAddr: 0x10002A5A4, symSize: 0xBC }
  - { offset: 0x76634, size: 0x8, addend: 0x0, symName: __RNCINvNvNtNtNtCsfvfooZQ3Axs_4core4iter6traits7collect22default_extend_tuple_b6extendmmINtNtCse1nGBsou5OW_5alloc3vec3VecmEB1m_E0Csdy4PFqiFpmx_20string_cache_codegen, symObjAddr: 0xC28, symBinAddr: 0x10002A660, symSize: 0x9C }
  - { offset: 0x766D3, size: 0x8, addend: 0x0, symName: __RNCINvNvNtNtNtCsfvfooZQ3Axs_4core4iter6traits7collect22default_extend_tuple_b6extendyhINtNtCse1nGBsou5OW_5alloc3vec3VecyEIB1n_hEE0Csdy4PFqiFpmx_20string_cache_codegen, symObjAddr: 0xCC4, symBinAddr: 0x10002A6FC, symSize: 0x9C }
  - { offset: 0x76783, size: 0x8, addend: 0x0, symName: __RNCINvNvXs6_NtNtNtCsfvfooZQ3Axs_4core4iter6traits7collectpINtBa_6TraitBppE6extend6extendNtCs3cP53eQoTwO_11proc_macro25IdentTyhEINtNtCse1nGBsou5OW_5alloc3vec3VecB1o_EIB22_B1X_EE0Csdy4PFqiFpmx_20string_cache_codegen, symObjAddr: 0xD60, symBinAddr: 0x10002A798, symSize: 0xAC }
  - { offset: 0x76823, size: 0x8, addend: 0x0, symName: __RNCINvNvXs6_NtNtNtCsfvfooZQ3Axs_4core4iter6traits7collectpINtBa_6TraitBppE6extend6extendmmINtNtCse1nGBsou5OW_5alloc3vec3VecmEB1q_E0Csdy4PFqiFpmx_20string_cache_codegen, symObjAddr: 0xE0C, symBinAddr: 0x10002A844, symSize: 0x8C }
  - { offset: 0x768C2, size: 0x8, addend: 0x0, symName: __RNCINvNvXs6_NtNtNtCsfvfooZQ3Axs_4core4iter6traits7collectpINtBa_6TraitBppE6extend6extendyhINtNtCse1nGBsou5OW_5alloc3vec3VecyEIB1r_hEE0Csdy4PFqiFpmx_20string_cache_codegen, symObjAddr: 0xE98, symBinAddr: 0x10002A8D0, symSize: 0x8C }
  - { offset: 0x76A19, size: 0x8, addend: 0x0, symName: __RNvMNtCsfvfooZQ3Axs_4core5sliceSNtCs6nR6nErDO7j_13phf_generator6Bucket8iter_mutCsdy4PFqiFpmx_20string_cache_codegen, symObjAddr: 0x1068, symBinAddr: 0x10002AAA0, symSize: 0x28 }
  - { offset: 0x76B14, size: 0x8, addend: 0x0, symName: __RNvNvXs0_NtNtCsfvfooZQ3Axs_4core5slice5indexjINtB7_10SliceIndexSpE13get_unchecked18precondition_checkCsdy4PFqiFpmx_20string_cache_codegen, symObjAddr: 0x2630, symBinAddr: 0x10002BF38, symSize: 0x40 }
  - { offset: 0x76B50, size: 0x8, addend: 0x0, symName: __RNvNvXs0_NtNtCsfvfooZQ3Axs_4core5slice5indexjINtB7_10SliceIndexSpE17get_unchecked_mut18precondition_checkCsdy4PFqiFpmx_20string_cache_codegen, symObjAddr: 0x2670, symBinAddr: 0x10002BF78, symSize: 0x40 }
  - { offset: 0x76B87, size: 0x8, addend: 0x0, symName: __RNvXs0_NtNtCsfvfooZQ3Axs_4core5slice5indexjINtB5_10SliceIndexSReE5indexCsdy4PFqiFpmx_20string_cache_codegen, symObjAddr: 0x2938, symBinAddr: 0x10002C240, symSize: 0x5C }
  - { offset: 0x76BD8, size: 0x8, addend: 0x0, symName: __RNvNvXs2_NtNtCsfvfooZQ3Axs_4core5slice5indexINtNtNtBb_3ops5range5RangejEINtB7_10SliceIndexSpE13get_unchecked18precondition_checkCsdy4PFqiFpmx_20string_cache_codegen, symObjAddr: 0x26B0, symBinAddr: 0x10002BFB8, symSize: 0x60 }
  - { offset: 0x76C22, size: 0x8, addend: 0x0, symName: __RNvNvXs2_NtNtCsfvfooZQ3Axs_4core5slice5indexINtNtNtBb_3ops5range5RangejEINtB7_10SliceIndexSpE17get_unchecked_mut18precondition_checkCsdy4PFqiFpmx_20string_cache_codegen, symObjAddr: 0x2710, symBinAddr: 0x10002C018, symSize: 0x60 }
  - { offset: 0x771A1, size: 0x8, addend: 0x0, symName: __RNCNvMsp_NtNtCsfvfooZQ3Axs_4core3str4iterINtB7_20MatchIndicesInternalReE4next0Csdy4PFqiFpmx_20string_cache_codegen, symObjAddr: 0xFC8, symBinAddr: 0x10002AA00, symSize: 0xA0 }
  - { offset: 0x773E2, size: 0x8, addend: 0x0, symName: __RNvXNtNtCsfvfooZQ3Axs_4core3str4iterNtB2_5CharsNtNtNtNtB6_4iter6traits8iterator8Iterator4nextCsdy4PFqiFpmx_20string_cache_codegen, symObjAddr: 0x2770, symBinAddr: 0x10002C078, symSize: 0x70 }
  - { offset: 0x7747F, size: 0x8, addend: 0x0, symName: __RNvXs1l_NtNtCsfvfooZQ3Axs_4core3str4iterINtB6_7RSplitNReENtNtNtNtBa_4iter6traits8iterator8Iterator4nextCsdy4PFqiFpmx_20string_cache_codegen, symObjAddr: 0x2994, symBinAddr: 0x10002C29C, symSize: 0x24 }
  - { offset: 0x7784D, size: 0x8, addend: 0x0, symName: __RNvNtNtCsfvfooZQ3Axs_4core4char7methods15encode_utf8_rawCsdy4PFqiFpmx_20string_cache_codegen, symObjAddr: 0x22A4, symBinAddr: 0x10002BBAC, symSize: 0x228 }
  - { offset: 0x77A4D, size: 0x8, addend: 0x0, symName: __RNvNvNtCsfvfooZQ3Axs_4core4hint16assert_unchecked18precondition_checkCsdy4PFqiFpmx_20string_cache_codegen, symObjAddr: 0x25DC, symBinAddr: 0x10002BEE4, symSize: 0x38 }
  - { offset: 0x77A7B, size: 0x8, addend: 0x0, symName: __RNvNvNtCsfvfooZQ3Axs_4core4hint21unreachable_unchecked18precondition_checkCsdy4PFqiFpmx_20string_cache_codegen, symObjAddr: 0x2614, symBinAddr: 0x10002BF1C, symSize: 0x1C }
  - { offset: 0x77AA0, size: 0x8, addend: 0x0, symName: __RNvXsd_NtCsfvfooZQ3Axs_4core5arrayAhj4_INtNtNtB7_3ops5index5IndexINtNtBG_5range7RangeTojEE5indexCsdy4PFqiFpmx_20string_cache_codegen, symObjAddr: 0x3030, symBinAddr: 0x10002C938, symSize: 0xAC }
  - { offset: 0x77BA5, size: 0x8, addend: 0x0, symName: __RNvXso_NtCsfvfooZQ3Axs_4core5arrayNtB5_17TryFromSliceErrorNtNtB7_3fmt5Debug3fmtCsdy4PFqiFpmx_20string_cache_codegen, symObjAddr: 0x3674, symBinAddr: 0x10002CF7C, symSize: 0x54 }
  - { offset: 0x7805A, size: 0x8, addend: 0x0, symName: __RNvXs4_NtNtNtCscOYdFFY2T5N_3std2io8buffered9bufwriterINtB5_9BufWriterNtNtBb_2fs4FileENtB9_5Write9write_allCsdy4PFqiFpmx_20string_cache_codegen, symObjAddr: 0x29EC, symBinAddr: 0x10002C2F4, symSize: 0x80 }
  - { offset: 0x7811A, size: 0x8, addend: 0x0, symName: __RNvXs7_NtNtNtCscOYdFFY2T5N_3std2io8buffered9bufwriterINtB5_9BufWriterNtNtBb_2fs4FileENtNtNtCsfvfooZQ3Axs_4core3ops4drop4Drop4dropCsdy4PFqiFpmx_20string_cache_codegen, symObjAddr: 0x2A6C, symBinAddr: 0x10002C374, symSize: 0x4C }
  - { offset: 0x781E1, size: 0x8, addend: 0x0, symName: __RINvCs6nR6nErDO7j_13phf_generator13generate_hashReECsdy4PFqiFpmx_20string_cache_codegen, symObjAddr: 0x0, symBinAddr: 0x100029A38, symSize: 0x38 }
  - { offset: 0x78216, size: 0x8, addend: 0x0, symName: __RINvCs6nR6nErDO7j_13phf_generator26generate_hash_with_hash_fnReINvCs9tf12AD4ZJa_10phf_shared4hashBX_EECsdy4PFqiFpmx_20string_cache_codegen, symObjAddr: 0x38, symBinAddr: 0x100029A70, symSize: 0x268 }
  - { offset: 0x78325, size: 0x8, addend: 0x0, symName: __RNCNCINvCs6nR6nErDO7j_13phf_generator26generate_hash_with_hash_fnReINvCs9tf12AD4ZJa_10phf_shared4hashB11_EE00Csdy4PFqiFpmx_20string_cache_codegen, symObjAddr: 0xF24, symBinAddr: 0x10002A95C, symSize: 0x48 }
  - { offset: 0x78388, size: 0x8, addend: 0x0, symName: __RNCINvCs6nR6nErDO7j_13phf_generator26generate_hash_with_hash_fnReINvCs9tf12AD4ZJa_10phf_shared4hashBZ_EE0Csdy4PFqiFpmx_20string_cache_codegen, symObjAddr: 0x90C, symBinAddr: 0x10002A344, symSize: 0x80 }
  - { offset: 0x7841A, size: 0x8, addend: 0x0, symName: __RNCINvCs6nR6nErDO7j_13phf_generator26generate_hash_with_hash_fnReINvCs9tf12AD4ZJa_10phf_shared4hashBZ_EEs_0Csdy4PFqiFpmx_20string_cache_codegen, symObjAddr: 0x98C, symBinAddr: 0x10002A3C4, symSize: 0xDC }
  - { offset: 0x7847D, size: 0x8, addend: 0x0, symName: __RNCNCINvCs6nR6nErDO7j_13phf_generator26generate_hash_with_hash_fnReINvCs9tf12AD4ZJa_10phf_shared4hashB11_EEs_00Csdy4PFqiFpmx_20string_cache_codegen, symObjAddr: 0xF6C, symBinAddr: 0x10002A9A4, symSize: 0x5C }
  - { offset: 0x784F5, size: 0x8, addend: 0x0, symName: __RNCINvMCs6nR6nErDO7j_13phf_generatorNtB5_9Generator5resetINtNtNtNtCsfvfooZQ3Axs_4core4iter8adapters3map3MapINtNtNtB12_5slice4iter4IterReENCNCINvB5_26generate_hash_with_hash_fnB28_INvCs9tf12AD4ZJa_10phf_shared4hashB28_EE00EE0Csdy4PFqiFpmx_20string_cache_codegen, symObjAddr: 0xA68, symBinAddr: 0x10002A4A0, symSize: 0x40 }
  - { offset: 0x78530, size: 0x8, addend: 0x0, symName: __RNCINvMCs6nR6nErDO7j_13phf_generatorNtB5_9Generator5resetINtNtNtNtCsfvfooZQ3Axs_4core4iter8adapters3map3MapINtNtNtB12_5slice4iter4IterReENCNCINvB5_26generate_hash_with_hash_fnB28_INvCs9tf12AD4ZJa_10phf_shared4hashB28_EE00EEs0_0Csdy4PFqiFpmx_20string_cache_codegen, symObjAddr: 0xAA8, symBinAddr: 0x10002A4E0, symSize: 0x30 }
  - { offset: 0x7856B, size: 0x8, addend: 0x0, symName: __RNCINvMCs6nR6nErDO7j_13phf_generatorNtB5_9Generator5resetINtNtNtNtCsfvfooZQ3Axs_4core4iter8adapters3map3MapINtNtNtB12_5slice4iter4IterReENCNCINvB5_26generate_hash_with_hash_fnB28_INvCs9tf12AD4ZJa_10phf_shared4hashB28_EE00EEs1_0Csdy4PFqiFpmx_20string_cache_codegen, symObjAddr: 0xAD8, symBinAddr: 0x10002A510, symSize: 0x3C }
  - { offset: 0x785A6, size: 0x8, addend: 0x0, symName: __RNCINvMCs6nR6nErDO7j_13phf_generatorNtB5_9Generator5resetINtNtNtNtCsfvfooZQ3Axs_4core4iter8adapters3map3MapINtNtNtB12_5slice4iter4IterReENCNCINvB5_26generate_hash_with_hash_fnB28_INvCs9tf12AD4ZJa_10phf_shared4hashB28_EE00EEs2_0Csdy4PFqiFpmx_20string_cache_codegen, symObjAddr: 0xB14, symBinAddr: 0x10002A54C, symSize: 0x2C }
  - { offset: 0x785E1, size: 0x8, addend: 0x0, symName: __RNCINvMCs6nR6nErDO7j_13phf_generatorNtB5_9Generator5resetINtNtNtNtCsfvfooZQ3Axs_4core4iter8adapters3map3MapINtNtNtB12_5slice4iter4IterReENCNCINvB5_26generate_hash_with_hash_fnB28_INvCs9tf12AD4ZJa_10phf_shared4hashB28_EE00EEs_0Csdy4PFqiFpmx_20string_cache_codegen, symObjAddr: 0xB40, symBinAddr: 0x10002A578, symSize: 0x2C }
  - { offset: 0x78678, size: 0x8, addend: 0x0, symName: __RINvCs9tf12AD4ZJa_10phf_shared4hashReECsdy4PFqiFpmx_20string_cache_codegen, symObjAddr: 0x2A0, symBinAddr: 0x100029CD8, symSize: 0x88 }
  - { offset: 0x78736, size: 0x8, addend: 0x0, symName: __RINvXs2_Cs9tf12AD4ZJa_10phf_sharedReNtB6_7PhfHash8phf_hashNtNtCsjeDdzWe0nlS_9siphasher6sip12811SipHasher13ECsdy4PFqiFpmx_20string_cache_codegen, symObjAddr: 0x81C, symBinAddr: 0x10002A254, symSize: 0x4C }
  - { offset: 0x78784, size: 0x8, addend: 0x0, symName: __RINvXs7_Cs9tf12AD4ZJa_10phf_sharedeNtB6_7PhfHash8phf_hashNtNtCsjeDdzWe0nlS_9siphasher6sip12811SipHasher13ECsdy4PFqiFpmx_20string_cache_codegen, symObjAddr: 0x868, symBinAddr: 0x10002A2A0, symSize: 0x4C }
  - { offset: 0x787CC, size: 0x8, addend: 0x0, symName: __RINvXs8_Cs9tf12AD4ZJa_10phf_sharedShNtB6_7PhfHash8phf_hashNtNtCsjeDdzWe0nlS_9siphasher6sip12811SipHasher13ECsdy4PFqiFpmx_20string_cache_codegen, symObjAddr: 0x8B4, symBinAddr: 0x10002A2EC, symSize: 0x58 }
  - { offset: 0x7899E, size: 0x8, addend: 0x0, symName: __RNvXs0_NtNtCse1nGBsou5OW_5alloc3vec13in_place_dropINtB5_24InPlaceDstDataSrcBufDropINtNtCsfvfooZQ3Axs_4core6option6OptionjEjENtNtNtB1n_3ops4drop4Drop4dropCsdy4PFqiFpmx_20string_cache_codegen, symObjAddr: 0x28AC, symBinAddr: 0x10002C1B4, symSize: 0x8C }
  - { offset: 0x78AEA, size: 0x8, addend: 0x0, symName: __RNvXs_NtNtCse1nGBsou5OW_5alloc3vec13in_place_dropINtB4_11InPlaceDropjENtNtNtCsfvfooZQ3Axs_4core3ops4drop4Drop4dropCsdy4PFqiFpmx_20string_cache_codegen, symObjAddr: 0x2AF8, symBinAddr: 0x10002C400, symSize: 0x58 }
  - { offset: 0x791BB, size: 0x8, addend: 0x0, symName: __RINvMNtCse1nGBsou5OW_5alloc5sliceSNtCs6nR6nErDO7j_13phf_generator6Bucket11sort_by_keyjNCINvMBy_NtBy_9Generator5resetINtNtNtNtCsfvfooZQ3Axs_4core4iter8adapters3map3MapINtNtNtB1Z_5slice4iter4IterReENCNCINvBy_26generate_hash_with_hash_fnB35_INvCs9tf12AD4ZJa_10phf_shared4hashB35_EE00EEs_0ECsdy4PFqiFpmx_20string_cache_codegen, symObjAddr: 0x4F0, symBinAddr: 0x100029F28, symSize: 0x48 }
  - { offset: 0x79216, size: 0x8, addend: 0x0, symName: __RNvNtCse1nGBsou5OW_5alloc3fmt6formatCsdy4PFqiFpmx_20string_cache_codegen, symObjAddr: 0x1C1C, symBinAddr: 0x10002B524, symSize: 0xD4 }
  - { offset: 0x793C7, size: 0x8, addend: 0x0, symName: __RINvMCs6nR6nErDO7j_13phf_generatorNtB3_9Generator5resetINtNtNtNtCsfvfooZQ3Axs_4core4iter8adapters3map3MapINtNtNtB10_5slice4iter4IterReENCNCINvB3_26generate_hash_with_hash_fnB26_INvCs9tf12AD4ZJa_10phf_shared4hashB26_EE00EECsdy4PFqiFpmx_20string_cache_codegen, symObjAddr: 0x328, symBinAddr: 0x100029D60, symSize: 0x1C8 }
  - { offset: 0x794C6, size: 0x8, addend: 0x0, symName: __RINvMs_NtNtCsfvfooZQ3Axs_4core3fmt2rtNtB5_8Argument13new_upper_hexmECsdy4PFqiFpmx_20string_cache_codegen, symObjAddr: 0x538, symBinAddr: 0x100029F70, symSize: 0x2C }
  - { offset: 0x795A9, size: 0x8, addend: 0x0, symName: __RNvMNtNtCse1nGBsou5OW_5alloc3vec13in_place_dropINtB2_11InPlaceDropjE3lenCsdy4PFqiFpmx_20string_cache_codegen, symObjAddr: 0x1090, symBinAddr: 0x10002AAC8, symSize: 0x7C }
  - { offset: 0x7964A, size: 0x8, addend: 0x0, symName: __RNvMNtNtCsfvfooZQ3Axs_4core3fmt2rtNtB2_11Placeholder3newCsdy4PFqiFpmx_20string_cache_codegen, symObjAddr: 0x110C, symBinAddr: 0x10002AB44, symSize: 0x4C }
  - { offset: 0x7973E, size: 0x8, addend: 0x0, symName: __RNvMNtNtNtCscOYdFFY2T5N_3std2io8buffered9bufwriterINtB2_9BufWriterNtNtB8_2fs4FileE13with_capacityCsdy4PFqiFpmx_20string_cache_codegen, symObjAddr: 0x1158, symBinAddr: 0x10002AB90, symSize: 0xA8 }
  - { offset: 0x797D0, size: 0x8, addend: 0x0, symName: __RNvMNtNtNtCscOYdFFY2T5N_3std2io8buffered9bufwriterINtB2_9BufWriterNtNtB8_2fs4FileE3newCsdy4PFqiFpmx_20string_cache_codegen, symObjAddr: 0x1200, symBinAddr: 0x10002AC38, symSize: 0x2C }
  - { offset: 0x797FB, size: 0x8, addend: 0x0, symName: __RNvMs0_NtNtCsfvfooZQ3Axs_4core3fmt2rtNtB5_9UnsafeArg3newCsdy4PFqiFpmx_20string_cache_codegen, symObjAddr: 0x122C, symBinAddr: 0x10002AC64, symSize: 0x4 }
  - { offset: 0x7992E, size: 0x8, addend: 0x0, symName: __RNvNtCsjeDdzWe0nlS_9siphasher6sip1289u8to64_leCsdy4PFqiFpmx_20string_cache_codegen, symObjAddr: 0x1CF0, symBinAddr: 0x10002B5F8, symSize: 0x5B4 }
  - { offset: 0x79AD4, size: 0x8, addend: 0x0, symName: __RNvXs3_NtCsjeDdzWe0nlS_9siphasher6sip128NtB5_11SipHasher13NtB5_9Hasher1289finish128Csdy4PFqiFpmx_20string_cache_codegen, symObjAddr: 0x29B8, symBinAddr: 0x10002C2C0, symSize: 0x34 }
  - { offset: 0x79B08, size: 0x8, addend: 0x0, symName: __RNvXs9_NtCsjeDdzWe0nlS_9siphasher6sip128NtB5_11SipHasher13NtNtCsfvfooZQ3Axs_4core4hash6Hasher5writeCsdy4PFqiFpmx_20string_cache_codegen, symObjAddr: 0x2AB8, symBinAddr: 0x10002C3C0, symSize: 0x40 }
  - { offset: 0x79B47, size: 0x8, addend: 0x0, symName: __RNvXsb_NtCsjeDdzWe0nlS_9siphasher6sip128INtB5_6HasherNtB5_11Sip13RoundsENtNtCsfvfooZQ3Axs_4core4hash6Hasher5writeCsdy4PFqiFpmx_20string_cache_codegen, symObjAddr: 0x2C30, symBinAddr: 0x10002C538, symSize: 0x400 }
  - { offset: 0x79C8D, size: 0x8, addend: 0x0, symName: __RNvXse_NtCsjeDdzWe0nlS_9siphasher6sip128NtB5_11Sip13RoundsNtB5_3Sip8c_roundsCsdy4PFqiFpmx_20string_cache_codegen, symObjAddr: 0x30DC, symBinAddr: 0x10002C9E4, symSize: 0x180 }
  - { offset: 0x79E39, size: 0x8, addend: 0x0, symName: __RNvXse_NtCsjeDdzWe0nlS_9siphasher6sip128NtB5_11Sip13RoundsNtB5_3Sip8d_roundsCsdy4PFqiFpmx_20string_cache_codegen, symObjAddr: 0x325C, symBinAddr: 0x10002CB64, symSize: 0x418 }
  - { offset: 0x7A2F4, size: 0x8, addend: 0x0, symName: __RNvMs2_NtCsjeDdzWe0nlS_9siphasher6sip128NtB5_11SipHasher1313new_with_keysCsdy4PFqiFpmx_20string_cache_codegen, symObjAddr: 0x1230, symBinAddr: 0x10002AC68, symSize: 0x54 }
  - { offset: 0x7A399, size: 0x8, addend: 0x0, symName: __RNvMs3_NtCsfvfooZQ3Axs_4core3fmtNtB5_9Arguments16new_v1_formattedCsdy4PFqiFpmx_20string_cache_codegen, symObjAddr: 0x1284, symBinAddr: 0x10002ACBC, symSize: 0x58 }
  - { offset: 0x7A3F3, size: 0x8, addend: 0x0, symName: __RNvMs7_NtCsjeDdzWe0nlS_9siphasher6sip128INtB5_6HasherNtB5_11Sip13RoundsE9finish128Csdy4PFqiFpmx_20string_cache_codegen, symObjAddr: 0x12F8, symBinAddr: 0x10002AD30, symSize: 0xF8 }
  - { offset: 0x7A603, size: 0x8, addend: 0x0, symName: __RNvMs_NtNtNtCscOYdFFY2T5N_3std2io8buffered9bufwriterINtB4_9BufWriterNtNtBa_2fs4FileE14write_all_coldCsdy4PFqiFpmx_20string_cache_codegen, symObjAddr: 0x13F0, symBinAddr: 0x1000A3484, symSize: 0x130 }
  - { offset: 0x7A8AD, size: 0x8, addend: 0x0, symName: __RNvMs_NtNtNtCscOYdFFY2T5N_3std2io8buffered9bufwriterINtB4_9BufWriterNtNtBa_2fs4FileE25write_to_buffer_uncheckedCsdy4PFqiFpmx_20string_cache_codegen, symObjAddr: 0x1520, symBinAddr: 0x10002AE28, symSize: 0xD8 }
  - { offset: 0x7AB34, size: 0x8, addend: 0x0, symName: __RNvMs_NtNtNtCscOYdFFY2T5N_3std2io8buffered9bufwriterINtB4_9BufWriterNtNtBa_2fs4FileE9flush_bufCsdy4PFqiFpmx_20string_cache_codegen, symObjAddr: 0x15F8, symBinAddr: 0x10002AF00, symSize: 0x20C }
  - { offset: 0x7AC88, size: 0x8, addend: 0x0, symName: __RNvMsf_NtNtCsfvfooZQ3Axs_4core3str4iterINtB5_13SplitInternalReE7get_endCsdy4PFqiFpmx_20string_cache_codegen, symObjAddr: 0x1804, symBinAddr: 0x10002B10C, symSize: 0x11C }
  - { offset: 0x7AD86, size: 0x8, addend: 0x0, symName: __RNvMsf_NtNtCsfvfooZQ3Axs_4core3str4iterINtB5_13SplitInternalReE9next_backCsdy4PFqiFpmx_20string_cache_codegen, symObjAddr: 0x1920, symBinAddr: 0x10002B228, symSize: 0x258 }
  - { offset: 0x7AFC0, size: 0x8, addend: 0x0, symName: __RNvMsl_NtNtCsfvfooZQ3Axs_4core3str4iterINtB5_14SplitNInternalReE9next_backCsdy4PFqiFpmx_20string_cache_codegen, symObjAddr: 0x1B78, symBinAddr: 0x10002B480, symSize: 0xA4 }
  - { offset: 0x7B0DA, size: 0x8, addend: 0x0, symName: __RNvXNtNtCsg10Tkzhqh8d_4rand4rngs18xoshiro256plusplusNtB2_18Xoshiro256PlusPlusNtCsc9oQL4R8Sxl_9rand_core11SeedableRng9from_seedCsdy4PFqiFpmx_20string_cache_codegen, symObjAddr: 0x27E0, symBinAddr: 0x10002C0E8, symSize: 0xCC }
  - { offset: 0x7B12A, size: 0x8, addend: 0x0, symName: __RNvXs_NtNtCsg10Tkzhqh8d_4rand4rngs18xoshiro256plusplusNtB4_18Xoshiro256PlusPlusNtCsc9oQL4R8Sxl_9rand_core7RngCore8next_u64Csdy4PFqiFpmx_20string_cache_codegen, symObjAddr: 0x2B50, symBinAddr: 0x10002C458, symSize: 0xE0 }
  - { offset: 0x7B882, size: 0x8, addend: 0x0, symName: __RINvMNtCscOYdFFY2T5N_3std2fsNtB3_4File6createRNtNtB5_4path4PathECsdy4PFqiFpmx_20string_cache_codegen, symObjAddr: 0x0, symBinAddr: 0x10002CFD0, symSize: 0xC4 }
  - { offset: 0x7BAF0, size: 0x8, addend: 0x0, symName: __RNvYNtNtCscOYdFFY2T5N_3std2fs4FileNtNtB6_2io5Write9write_allCsdy4PFqiFpmx_20string_cache_codegen, symObjAddr: 0x2458, symBinAddr: 0x10002F39C, symSize: 0x180 }
  - { offset: 0x7BD4E, size: 0x8, addend: 0x0, symName: __RNvNtNtNtNtCscOYdFFY2T5N_3std3sys3pal4unix2fs23debug_assert_fd_is_openCsdy4PFqiFpmx_20string_cache_codegen, symObjAddr: 0x1CC0, symBinAddr: 0x10002EC8C, symSize: 0xC8 }
  - { offset: 0x7BE4C, size: 0x8, addend: 0x0, symName: __RNvXs1d_NtCscOYdFFY2T5N_3std4pathNtB6_4PathINtNtCsfvfooZQ3Axs_4core7convert5AsRefBv_E6as_refCsdy4PFqiFpmx_20string_cache_codegen, symObjAddr: 0x22B8, symBinAddr: 0x10002F284, symSize: 0x18 }
  - { offset: 0x7DBD2, size: 0x8, addend: 0x0, symName: __RNvMNtCsfvfooZQ3Axs_4core5sliceSINtNtB4_6option6OptionjE8iter_mutCsdy4PFqiFpmx_20string_cache_codegen, symObjAddr: 0x1884, symBinAddr: 0x10002E854, symSize: 0x28 }
  - { offset: 0x7DC9D, size: 0x8, addend: 0x0, symName: __RINvNtNtNtNtCsfvfooZQ3Axs_4core5slice4sort6stable9quicksort16stable_partitionNtCs6nR6nErDO7j_13phf_generator6BucketNCINvB2_9quicksortB1d_NCINvMNtCse1nGBsou5OW_5alloc5sliceSB1d_11sort_by_keyjNCINvMB1f_NtB1f_9Generator5resetINtNtNtNtBa_4iter8adapters3map3MapINtNtB8_4iter4IterReENCNCINvB1f_26generate_hash_with_hash_fnB4o_INvCs9tf12AD4ZJa_10phf_shared4hashB4o_EE00EEs_0E0E0ECsdy4PFqiFpmx_20string_cache_codegen, symObjAddr: 0xA54, symBinAddr: 0x10002DA24, symSize: 0x398 }
  - { offset: 0x7E0C7, size: 0x8, addend: 0x0, symName: __RINvNtNtNtNtCsfvfooZQ3Axs_4core5slice4sort6stable9quicksort16stable_partitionNtCs6nR6nErDO7j_13phf_generator6BucketNCINvMNtCse1nGBsou5OW_5alloc5sliceSB1d_11sort_by_keyjNCINvMB1f_NtB1f_9Generator5resetINtNtNtNtBa_4iter8adapters3map3MapINtNtB8_4iter4IterReENCNCINvB1f_26generate_hash_with_hash_fnB42_INvCs9tf12AD4ZJa_10phf_shared4hashB42_EE00EEs_0E0ECsdy4PFqiFpmx_20string_cache_codegen, symObjAddr: 0xDEC, symBinAddr: 0x10002DDBC, symSize: 0x398 }
  - { offset: 0x7E4F1, size: 0x8, addend: 0x0, symName: __RINvNtNtNtNtCsfvfooZQ3Axs_4core5slice4sort6stable9quicksort9quicksortNtCs6nR6nErDO7j_13phf_generator6BucketNCINvMNtCse1nGBsou5OW_5alloc5sliceSB15_11sort_by_keyjNCINvMB17_NtB17_9Generator5resetINtNtNtNtBa_4iter8adapters3map3MapINtNtB8_4iter4IterReENCNCINvB17_26generate_hash_with_hash_fnB3U_INvCs9tf12AD4ZJa_10phf_shared4hashB3U_EE00EEs_0E0ECsdy4PFqiFpmx_20string_cache_codegen, symObjAddr: 0x1184, symBinAddr: 0x10002E154, symSize: 0x3B8 }
  - { offset: 0x7E789, size: 0x8, addend: 0x0, symName: __RNCINvNtNtNtNtCsfvfooZQ3Axs_4core5slice4sort6stable9quicksort9quicksortNtCs6nR6nErDO7j_13phf_generator6BucketNCINvMNtCse1nGBsou5OW_5alloc5sliceSB17_11sort_by_keyjNCINvMB19_NtB19_9Generator5resetINtNtNtNtBc_4iter8adapters3map3MapINtNtBa_4iter4IterReENCNCINvB19_26generate_hash_with_hash_fnB3W_INvCs9tf12AD4ZJa_10phf_shared4hashB3W_EE00EEs_0E0E0Csdy4PFqiFpmx_20string_cache_codegen, symObjAddr: 0x1590, symBinAddr: 0x10002E560, symSize: 0x48 }
  - { offset: 0x7E9D2, size: 0x8, addend: 0x0, symName: __RNCINvNvNtNtNtNtCsfvfooZQ3Axs_4core4iter6traits8iterator8Iterator4find5checkyNCINvCs6nR6nErDO7j_13phf_generator26generate_hash_with_hash_fnReINvCs9tf12AD4ZJa_10phf_shared4hashB2d_EE0E0Csdy4PFqiFpmx_20string_cache_codegen, symObjAddr: 0x15D8, symBinAddr: 0x10002E5A8, symSize: 0x80 }
  - { offset: 0x7EA3A, size: 0x8, addend: 0x0, symName: __RNCINvNvNtNtNtNtCsfvfooZQ3Axs_4core4iter6traits8iterator8Iterator8for_each4callNtCs3cP53eQoTwO_11proc_macro25IdentNCINvMsi_NtCse1nGBsou5OW_5alloc3vecINtB1X_3VecB1f_E14extend_trustedINtNtNtBc_8adapters3map3MapINtNtB2Y_6copied6CopiedINtNtNtBe_5slice4iter4IterReEENCNvMCsdy4PFqiFpmx_20string_cache_codegenNtB4g_8AtomType9to_tokenss3_0EE0E0B4g_, symObjAddr: 0x1658, symBinAddr: 0x10002E628, symSize: 0x3C }
  - { offset: 0x7EA93, size: 0x8, addend: 0x0, symName: __RNCINvNvNtNtNtNtCsfvfooZQ3Axs_4core4iter6traits8iterator8Iterator8for_each4callNtCs9tf12AD4ZJa_10phf_shared6HashesNCINvMsi_NtCse1nGBsou5OW_5alloc3vecINtB1X_3VecB1f_E14extend_trustedINtNtNtBc_8adapters3map3MapINtNtNtBe_5slice4iter4IterReENCNCINvCs6nR6nErDO7j_13phf_generator26generate_hash_with_hash_fnB3K_INvB1h_4hashB3K_EE00EE0E0Csdy4PFqiFpmx_20string_cache_codegen, symObjAddr: 0x1694, symBinAddr: 0x10002E664, symSize: 0x3C }
  - { offset: 0x7EAEC, size: 0x8, addend: 0x0, symName: __RNCINvNvNtNtNtNtCsfvfooZQ3Axs_4core4iter6traits8iterator8Iterator8for_each4callReNCINvMsi_NtCse1nGBsou5OW_5alloc3vecINtB1q_3VecB1f_E14extend_trustedINtNtNtBc_8adapters3map3MapINtNtNtBe_5slice4iter4IterjENCNvMCsdy4PFqiFpmx_20string_cache_codegenNtB3k_8AtomType9to_tokenss_0EE0E0B3k_, symObjAddr: 0x16D0, symBinAddr: 0x10002E6A0, symSize: 0x30 }
  - { offset: 0x7EB44, size: 0x8, addend: 0x0, symName: __RNCINvNvNtNtNtNtCsfvfooZQ3Axs_4core4iter6traits8iterator8Iterator8for_each4callhNCINvMsi_NtCse1nGBsou5OW_5alloc3vecINtB1p_3VechE14extend_trustedINtNtNtBc_8adapters3map3MapINtNtNtBe_5slice4iter4IterhENCNvNtB1r_3str13replace_ascii0EE0E0Csdy4PFqiFpmx_20string_cache_codegen, symObjAddr: 0x1700, symBinAddr: 0x10002E6D0, symSize: 0x28 }
  - { offset: 0x7EB9C, size: 0x8, addend: 0x0, symName: __RNCINvNvNtNtNtNtCsfvfooZQ3Axs_4core4iter6traits8iterator8Iterator8for_each4callmNCINvMsi_NtCse1nGBsou5OW_5alloc3vecINtB1p_3VecmE14extend_trustedINtNtNtBc_8adapters3map3MapINtNtNtBe_5slice4iter4IterReENCNvMCsdy4PFqiFpmx_20string_cache_codegenNtB3h_8AtomType9to_tokenss1_0EE0E0B3h_, symObjAddr: 0x1728, symBinAddr: 0x10002E6F8, symSize: 0x28 }
  - { offset: 0x7EC00, size: 0x8, addend: 0x0, symName: __RNCINvNvNtNtNtNtCsfvfooZQ3Axs_4core4iter6traits8iterator8Iterator9partition6extendReINtNtCse1nGBsou5OW_5alloc3vec3VecB1i_ENCNvMCsdy4PFqiFpmx_20string_cache_codegenNtB21_8AtomType9to_tokens0E0B21_, symObjAddr: 0x1750, symBinAddr: 0x10002E720, symSize: 0xD0 }
  - { offset: 0x7F15C, size: 0x8, addend: 0x0, symName: __RNvNvNtCsfvfooZQ3Axs_4core10intrinsics19copy_nonoverlapping18precondition_checkCsdy4PFqiFpmx_20string_cache_codegen, symObjAddr: 0x1DD8, symBinAddr: 0x10002EDA4, symSize: 0x2E4 }
  - { offset: 0x7F3D4, size: 0x8, addend: 0x0, symName: __RNvNvNtCsfvfooZQ3Axs_4core10intrinsics4copy18precondition_checkCsdy4PFqiFpmx_20string_cache_codegen, symObjAddr: 0x20BC, symBinAddr: 0x10002F088, symSize: 0x1CC }
  - { offset: 0x7F65D, size: 0x8, addend: 0x0, symName: __RNvNvMNtNtCsfvfooZQ3Axs_4core5alloc6layoutNtB4_6Layout25from_size_align_unchecked18precondition_checkCsdy4PFqiFpmx_20string_cache_codegen, symObjAddr: 0x1D88, symBinAddr: 0x10002ED54, symSize: 0x50 }
  - { offset: 0x7F7BA, size: 0x8, addend: 0x0, symName: __RNvXNtCsfvfooZQ3Axs_4core7convertRNtNtCscOYdFFY2T5N_3std4path4PathINtB2_5AsRefBw_E6as_refCsdy4PFqiFpmx_20string_cache_codegen, symObjAddr: 0x2288, symBinAddr: 0x10002F254, symSize: 0x30 }
  - { offset: 0x7F9C5, size: 0x8, addend: 0x0, symName: __RINvMNtCscOYdFFY2T5N_3std2fsNtB3_4File6createRNtNtB5_4path4PathECsdy4PFqiFpmx_20string_cache_codegen, symObjAddr: 0x0, symBinAddr: 0x10002CFD0, symSize: 0xC4 }
  - { offset: 0x80166, size: 0x8, addend: 0x0, symName: __RINvMs3_NtCse1nGBsou5OW_5alloc3stre7replaceReECsdy4PFqiFpmx_20string_cache_codegen, symObjAddr: 0x160, symBinAddr: 0x10002D130, symSize: 0x72C }
  - { offset: 0x80DEA, size: 0x8, addend: 0x0, symName: __RNCNvNtCse1nGBsou5OW_5alloc3str13replace_ascii0Csdy4PFqiFpmx_20string_cache_codegen, symObjAddr: 0x1820, symBinAddr: 0x10002E7F0, symSize: 0x64 }
  - { offset: 0x80E44, size: 0x8, addend: 0x0, symName: __RNvXs2_NtCse1nGBsou5OW_5alloc3streNtNtB7_6borrow7ToOwned8to_ownedCsdy4PFqiFpmx_20string_cache_codegen, symObjAddr: 0x22D0, symBinAddr: 0x10002F29C, symSize: 0x50 }
  - { offset: 0x81370, size: 0x8, addend: 0x0, symName: __RINvNtNtNtCse1nGBsou5OW_5alloc11collections5btree3mem7replaceINtNtB4_4node6HandleINtB10_7NodeRefNtNtB10_6marker5ImmutNtNtB8_6string6StringNtNtB4_7set_val9SetValZSTNtB1y_4LeafENtB1y_4EdgeETRB1R_RB2c_ENCNvMsk_NtB4_8navigateBX_14next_unchecked0ECsdy4PFqiFpmx_20string_cache_codegen, symObjAddr: 0x900, symBinAddr: 0x10002D8D0, symSize: 0xC4 }
  - { offset: 0x8145F, size: 0x8, addend: 0x0, symName: __RINvNtNtNtCse1nGBsou5OW_5alloc11collections5btree3mem7replaceINtNtB4_4node7NodeRefNtNtB10_6marker5OwnedNtNtB8_6string6StringNtNtB4_7set_val9SetValZSTNtB1k_14LeafOrInternalEuNCINvB2_8take_mutBX_NCINvMss_B10_BX_19push_internal_levelNtNtB8_5alloc6GlobalE0E0ECsdy4PFqiFpmx_20string_cache_codegen, symObjAddr: 0x9C4, symBinAddr: 0x10002D994, symSize: 0x90 }
  - { offset: 0x8154D, size: 0x8, addend: 0x0, symName: __RNCINvNtNtNtCse1nGBsou5OW_5alloc11collections5btree3mem8take_mutINtNtB6_4node7NodeRefNtNtB13_6marker5OwnedNtNtBa_6string6StringNtNtB6_7set_val9SetValZSTNtB1n_14LeafOrInternalENCINvMss_B13_B10_19push_internal_levelNtNtBa_5alloc6GlobalE0E0Csdy4PFqiFpmx_20string_cache_codegen, symObjAddr: 0x1568, symBinAddr: 0x10002E538, symSize: 0x28 }
  - { offset: 0x81862, size: 0x8, addend: 0x0, symName: __RNvXsk_NtNtNtCse1nGBsou5OW_5alloc11collections5btree3mapINtB5_4IterNtNtBb_6string6StringNtNtB7_7set_val9SetValZSTENtNtNtNtCsfvfooZQ3Axs_4core4iter6traits8iterator8Iterator4nextCsdy4PFqiFpmx_20string_cache_codegen, symObjAddr: 0x2320, symBinAddr: 0x10002F2EC, symSize: 0xB0 }
  - { offset: 0x81BCB, size: 0x8, addend: 0x0, symName: __RINvMNtCsfvfooZQ3Axs_4core6optionINtB3_6OptionyE3mapNtCs6nR6nErDO7j_13phf_generator9HashStateNCINvBQ_26generate_hash_with_hash_fnReINvCs9tf12AD4ZJa_10phf_shared4hashB23_EEs_0ECsdy4PFqiFpmx_20string_cache_codegen, symObjAddr: 0xC4, symBinAddr: 0x10002D094, symSize: 0x9C }
  - { offset: 0x82038, size: 0x8, addend: 0x0, symName: __RINvMsc_NtCscOYdFFY2T5N_3std2fsNtB6_11OpenOptions4openRNtNtB8_4path4PathECsdy4PFqiFpmx_20string_cache_codegen, symObjAddr: 0x88C, symBinAddr: 0x10002D85C, symSize: 0x74 }
  - { offset: 0x823C4, size: 0x8, addend: 0x0, symName: __RINvYNtNtNtCsg10Tkzhqh8d_4rand4rngs5small8SmallRngNtNtB9_3rng3Rng11sample_iteryNtNtB9_13distributions8StandardECsdy4PFqiFpmx_20string_cache_codegen, symObjAddr: 0x153C, symBinAddr: 0x10002E50C, symSize: 0x2C }
  - { offset: 0x824D7, size: 0x8, addend: 0x0, symName: __RNvMNtCsfvfooZQ3Axs_4core6optionINtB2_6OptionNtCs6nR6nErDO7j_13phf_generator9HashStateE6expectCsdy4PFqiFpmx_20string_cache_codegen, symObjAddr: 0x18AC, symBinAddr: 0x10002E87C, symSize: 0x70 }
  - { offset: 0x8262F, size: 0x8, addend: 0x0, symName: __RNvMsi_NtNtNtCse1nGBsou5OW_5alloc11collections5btree3mapINtB5_8BTreeMapNtNtBb_6string6StringNtNtB7_7set_val9SetValZSTE5entryCsdy4PFqiFpmx_20string_cache_codegen, symObjAddr: 0x191C, symBinAddr: 0x10002E8EC, symSize: 0x27C }
  - { offset: 0x827C8, size: 0x8, addend: 0x0, symName: __RNvMsi_NtNtNtCse1nGBsou5OW_5alloc11collections5btree3mapINtB5_8BTreeMapNtNtBb_6string6StringNtNtB7_7set_val9SetValZSTE6insertCsdy4PFqiFpmx_20string_cache_codegen, symObjAddr: 0x1B98, symBinAddr: 0x10002EB68, symSize: 0x124 }
  - { offset: 0x829E2, size: 0x8, addend: 0x0, symName: __RNvYNtNtNtCsg10Tkzhqh8d_4rand4rngs5small8SmallRngNtCsc9oQL4R8Sxl_9rand_core11SeedableRng13seed_from_u64Csdy4PFqiFpmx_20string_cache_codegen, symObjAddr: 0x25D8, symBinAddr: 0x10002F51C, symSize: 0x2D0 }
  - { offset: 0x82E7A, size: 0x8, addend: 0x0, symName: __RINvMNtCsfvfooZQ3Axs_4core3stre7rsplitnReECsdy4PFqiFpmx_20string_cache_codegen, symObjAddr: 0x0, symBinAddr: 0x10002F7EC, symSize: 0xD0 }
  - { offset: 0x8349D, size: 0x8, addend: 0x0, symName: __RNvNvMs1_NtNtCsfvfooZQ3Axs_4core3ptr8non_nullINtB7_7NonNullpE13new_unchecked18precondition_checkCsdy4PFqiFpmx_20string_cache_codegen, symObjAddr: 0x1CFC, symBinAddr: 0x1000314E8, symSize: 0x38 }
  - { offset: 0x8370E, size: 0x8, addend: 0x0, symName: __RNvNvMNtNtCsfvfooZQ3Axs_4core3ptr9const_ptrPp7sub_ptr18precondition_checkCsdy4PFqiFpmx_20string_cache_codegen, symObjAddr: 0x1CBC, symBinAddr: 0x1000314A8, symSize: 0x40 }
  - { offset: 0x83DFC, size: 0x8, addend: 0x0, symName: __RINvMNtCsfvfooZQ3Axs_4core3stre7rsplitnReECsdy4PFqiFpmx_20string_cache_codegen, symObjAddr: 0x0, symBinAddr: 0x10002F7EC, symSize: 0xD0 }
  - { offset: 0x83EA5, size: 0x8, addend: 0x0, symName: __RINvMNtCsfvfooZQ3Axs_4core3stre9ends_withReECsdy4PFqiFpmx_20string_cache_codegen, symObjAddr: 0xD0, symBinAddr: 0x10002F8BC, symSize: 0x4C }
  - { offset: 0x83EEB, size: 0x8, addend: 0x0, symName: __RNvMNtCsfvfooZQ3Axs_4core3stre3lenCsdy4PFqiFpmx_20string_cache_codegen, symObjAddr: 0x1584, symBinAddr: 0x100030D70, symSize: 0x1C }
  - { offset: 0x83F17, size: 0x8, addend: 0x0, symName: __RNvMNtCsfvfooZQ3Axs_4core3stre5bytesCsdy4PFqiFpmx_20string_cache_codegen, symObjAddr: 0x15A0, symBinAddr: 0x100030D8C, symSize: 0x20 }
  - { offset: 0x83F85, size: 0x8, addend: 0x0, symName: __RNvMNtCsfvfooZQ3Axs_4core3stre5charsCsdy4PFqiFpmx_20string_cache_codegen, symObjAddr: 0x15C0, symBinAddr: 0x100030DAC, symSize: 0x20 }
  - { offset: 0x83FF3, size: 0x8, addend: 0x0, symName: __RNvMNtCsfvfooZQ3Axs_4core3stre8is_emptyCsdy4PFqiFpmx_20string_cache_codegen, symObjAddr: 0x15E0, symBinAddr: 0x100030DCC, symSize: 0x1C }
  - { offset: 0x84323, size: 0x8, addend: 0x0, symName: __RINvNtNtCsfvfooZQ3Axs_4core3str11validations23next_code_point_reverseINtNtNtB6_5slice4iter4IterhEECsdy4PFqiFpmx_20string_cache_codegen, symObjAddr: 0x1E4, symBinAddr: 0x10002F9D0, symSize: 0x234 }
  - { offset: 0x8469B, size: 0x8, addend: 0x0, symName: __RNvXs8_NtNtCsfvfooZQ3Axs_4core3str6traitsINtNtNtB9_3ops5range7RangeTojEINtNtNtB9_5slice5index10SliceIndexeE3getCsdy4PFqiFpmx_20string_cache_codegen, symObjAddr: 0x26E4, symBinAddr: 0x100031ED0, symSize: 0x138 }
  - { offset: 0x847F4, size: 0x8, addend: 0x0, symName: __RNvXs9_NtNtCsfvfooZQ3Axs_4core3str6traitsINtNtNtB9_3ops5range9RangeFromjEINtNtNtB9_5slice5index10SliceIndexeE3getCsdy4PFqiFpmx_20string_cache_codegen, symObjAddr: 0x281C, symBinAddr: 0x100032008, symSize: 0x148 }
  - { offset: 0x84A45, size: 0x8, addend: 0x0, symName: __RINvNtNtNtNtCsfvfooZQ3Axs_4core5slice4sort6shared5pivot11median3_recNtCs6nR6nErDO7j_13phf_generator6BucketNCINvMNtCse1nGBsou5OW_5alloc5sliceSB14_11sort_by_keyjNCINvMB16_NtB16_9Generator5resetINtNtNtNtBa_4iter8adapters3map3MapINtNtB8_4iter4IterReENCNCINvB16_26generate_hash_with_hash_fnB3T_INvCs9tf12AD4ZJa_10phf_shared4hashB3T_EE00EEs_0E0ECsdy4PFqiFpmx_20string_cache_codegen, symObjAddr: 0x418, symBinAddr: 0x10002FC04, symSize: 0x1CC }
  - { offset: 0x84C3F, size: 0x8, addend: 0x0, symName: __RINvNtNtNtNtCsfvfooZQ3Axs_4core5slice4sort6shared5pivot12choose_pivotNtCs6nR6nErDO7j_13phf_generator6BucketNCINvMNtCse1nGBsou5OW_5alloc5sliceSB15_11sort_by_keyjNCINvMB17_NtB17_9Generator5resetINtNtNtNtBa_4iter8adapters3map3MapINtNtB8_4iter4IterReENCNCINvB17_26generate_hash_with_hash_fnB3U_INvCs9tf12AD4ZJa_10phf_shared4hashB3U_EE00EEs_0E0ECsdy4PFqiFpmx_20string_cache_codegen, symObjAddr: 0x5E4, symBinAddr: 0x10002FDD0, symSize: 0x1F8 }
  - { offset: 0x85082, size: 0x8, addend: 0x0, symName: __RNvXs2_NtNtCsfvfooZQ3Axs_4core5slice5indexINtNtNtB9_3ops5range5RangejEINtB5_10SliceIndexSINtNtNtB9_3mem12maybe_uninit11MaybeUninitINtNtNtB9_3ptr8non_null7NonNullINtNtNtNtCse1nGBsou5OW_5alloc11collections5btree4node8LeafNodeNtNtB2I_6string6StringNtNtB2E_7set_val9SetValZSTEEEE9index_mutCsdy4PFqiFpmx_20string_cache_codegen, symObjAddr: 0x2320, symBinAddr: 0x100031B0C, symSize: 0xC0 }
  - { offset: 0x85147, size: 0x8, addend: 0x0, symName: __RNvXs2_NtNtCsfvfooZQ3Axs_4core5slice5indexINtNtNtB9_3ops5range5RangejEINtB5_10SliceIndexSINtNtNtB9_3mem12maybe_uninit11MaybeUninitNtNtCse1nGBsou5OW_5alloc6string6StringEE9index_mutCsdy4PFqiFpmx_20string_cache_codegen, symObjAddr: 0x23E0, symBinAddr: 0x100031BCC, symSize: 0xC8 }
  - { offset: 0x8520C, size: 0x8, addend: 0x0, symName: __RNvXs2_NtNtCsfvfooZQ3Axs_4core5slice5indexINtNtNtB9_3ops5range5RangejEINtB5_10SliceIndexSINtNtNtB9_3mem12maybe_uninit11MaybeUninitNtNtNtNtCse1nGBsou5OW_5alloc11collections5btree7set_val9SetValZSTEE9index_mutCsdy4PFqiFpmx_20string_cache_codegen, symObjAddr: 0x24A8, symBinAddr: 0x100031C94, symSize: 0xBC }
  - { offset: 0x86301, size: 0x8, addend: 0x0, symName: __RNCINvNtNtNtCsfvfooZQ3Axs_4core4iter8adapters3map8map_foldRNtNtCse1nGBsou5OW_5alloc6string6StringReuNvMBX_BV_6as_strNCINvNvNtNtNtB8_6traits8iterator8Iterator9partition6extendB1x_INtNtBZ_3vec3VecB1x_ENCNvMCsdy4PFqiFpmx_20string_cache_codegenNtB3g_8AtomType9to_tokens0E0E0B3g_, symObjAddr: 0xECC, symBinAddr: 0x1000306B8, symSize: 0x84 }
  - { offset: 0x86386, size: 0x8, addend: 0x0, symName: __RNCINvNtNtNtCsfvfooZQ3Axs_4core4iter8adapters3map8map_foldRReNtCs9tf12AD4ZJa_10phf_shared6HashesuNCNCINvCs6nR6nErDO7j_13phf_generator26generate_hash_with_hash_fnBV_INvBZ_4hashBV_EE00NCINvNvNtNtNtB8_6traits8iterator8Iterator8for_each4callBX_NCINvMsi_NtCse1nGBsou5OW_5alloc3vecINtB3Z_3VecBX_E14extend_trustedINtB4_3MapINtNtNtBa_5slice4iter4IterBV_EB1x_EE0E0E0Csdy4PFqiFpmx_20string_cache_codegen, symObjAddr: 0xF50, symBinAddr: 0x10003073C, symSize: 0x8C }
  - { offset: 0x8640B, size: 0x8, addend: 0x0, symName: __RNCINvNtNtNtCsfvfooZQ3Axs_4core4iter8adapters3map8map_foldRReTNtCs3cP53eQoTwO_11proc_macro25IdentTyhEEuNCNvMCsdy4PFqiFpmx_20string_cache_codegenNtB1I_8AtomType9to_tokenss4_0NCINvNvNtNtB8_6traits7collect22default_extend_tuple_b6extendBY_B1x_INtNtCse1nGBsou5OW_5alloc3vec3VecBY_EIB3R_B1x_EE0E0B1I_, symObjAddr: 0xFDC, symBinAddr: 0x1000307C8, symSize: 0x94 }
  - { offset: 0x86490, size: 0x8, addend: 0x0, symName: __RNCINvNtNtNtCsfvfooZQ3Axs_4core4iter8adapters3map8map_foldRReTNtCs3cP53eQoTwO_11proc_macro25IdentTyhEEuNCNvMCsdy4PFqiFpmx_20string_cache_codegenNtB1I_8AtomType9to_tokenss4_0NCINvNvXs6_NtNtB8_6traits7collectpINtB2W_6TraitBppE6extend6extendBY_B1x_INtNtCse1nGBsou5OW_5alloc3vec3VecBY_EIB3W_B1x_EE0E0B1I_, symObjAddr: 0x1070, symBinAddr: 0x10003085C, symSize: 0x94 }
  - { offset: 0x86515, size: 0x8, addend: 0x0, symName: __RNCINvNtNtNtCsfvfooZQ3Axs_4core4iter8adapters3map8map_foldRRemuNCNvMCsdy4PFqiFpmx_20string_cache_codegenNtB14_8AtomType9to_tokenss1_0NCINvNvNtNtNtB8_6traits8iterator8Iterator8for_each4callmNCINvMsi_NtCse1nGBsou5OW_5alloc3vecINtB3a_3VecmE14extend_trustedINtB4_3MapINtNtNtBa_5slice4iter4IterBV_EBZ_EE0E0E0B14_, symObjAddr: 0x1104, symBinAddr: 0x1000308F0, symSize: 0x7C }
  - { offset: 0x8659A, size: 0x8, addend: 0x0, symName: __RNCINvNtNtNtCsfvfooZQ3Axs_4core4iter8adapters3map8map_foldReNtCs3cP53eQoTwO_11proc_macro25IdentuNCNvMCsdy4PFqiFpmx_20string_cache_codegenNtB1B_8AtomType9to_tokenss3_0NCINvNvNtNtNtB8_6traits8iterator8Iterator8for_each4callBW_NCINvMsi_NtCse1nGBsou5OW_5alloc3vecINtB3J_3VecBW_E14extend_trustedINtB4_3MapINtNtB6_6copied6CopiedINtNtNtBa_5slice4iter4IterBU_EEB1w_EE0E0E0B1B_, symObjAddr: 0x1180, symBinAddr: 0x10003096C, symSize: 0x90 }
  - { offset: 0x8661F, size: 0x8, addend: 0x0, symName: __RNCINvNtNtNtCsfvfooZQ3Axs_4core4iter8adapters3map8map_foldRhhuNCNvNtCse1nGBsou5OW_5alloc3str13replace_ascii0NCINvNvNtNtNtB8_6traits8iterator8Iterator8for_each4callhNCINvMsi_NtB14_3vecINtB2L_3VechE14extend_trustedINtB4_3MapINtNtNtBa_5slice4iter4IterhEBY_EE0E0E0Csdy4PFqiFpmx_20string_cache_codegen, symObjAddr: 0x1210, symBinAddr: 0x1000309FC, symSize: 0x7C }
  - { offset: 0x866A4, size: 0x8, addend: 0x0, symName: __RNCINvNtNtNtCsfvfooZQ3Axs_4core4iter8adapters3map8map_foldRjReuNCNvMCsdy4PFqiFpmx_20string_cache_codegenNtB14_8AtomType9to_tokenss_0NCINvNvNtNtNtB8_6traits8iterator8Iterator8for_each4callBW_NCINvMsi_NtCse1nGBsou5OW_5alloc3vecINtB3b_3VecBW_E14extend_trustedINtB4_3MapINtNtNtBa_5slice4iter4IterjEBZ_EE0E0E0B14_, symObjAddr: 0x128C, symBinAddr: 0x100030A78, symSize: 0x84 }
  - { offset: 0x8672F, size: 0x8, addend: 0x0, symName: __RINvXs0_NtNtNtCsfvfooZQ3Axs_4core4iter8adapters3mapINtB6_3MapINtNtB8_6copied6CopiedINtNtNtBc_5slice4iter4IterReEENCNvMCsdy4PFqiFpmx_20string_cache_codegenNtB1S_8AtomType9to_tokenss3_0ENtNtNtBa_6traits8iterator8Iterator4folduNCINvNvB2W_8for_each4callNtCs3cP53eQoTwO_11proc_macro25IdentNCINvMsi_NtCse1nGBsou5OW_5alloc3vecINtB4H_3VecB3Z_E14extend_trustedBN_E0E0EB1S_, symObjAddr: 0x7DC, symBinAddr: 0x10002FFC8, symSize: 0x58 }
  - { offset: 0x867C8, size: 0x8, addend: 0x0, symName: __RINvXs0_NtNtNtCsfvfooZQ3Axs_4core4iter8adapters3mapINtB6_3MapINtNtNtBc_5slice4iter4IterReENCNCINvCs6nR6nErDO7j_13phf_generator26generate_hash_with_hash_fnB1n_INvCs9tf12AD4ZJa_10phf_shared4hashB1n_EE00ENtNtNtBa_6traits8iterator8Iterator4folduNCINvNvB3d_8for_each4callNtB2z_6HashesNCINvMsi_NtCse1nGBsou5OW_5alloc3vecINtB4C_3VecB4g_E14extend_trustedBN_E0E0ECsdy4PFqiFpmx_20string_cache_codegen, symObjAddr: 0x834, symBinAddr: 0x100030020, symSize: 0x58 }
  - { offset: 0x86861, size: 0x8, addend: 0x0, symName: __RINvXs0_NtNtNtCsfvfooZQ3Axs_4core4iter8adapters3mapINtB6_3MapINtNtNtBc_5slice4iter4IterReENCNvMCsdy4PFqiFpmx_20string_cache_codegenNtB1v_8AtomType9to_tokenss1_0ENtNtNtBa_6traits8iterator8Iterator4folduNCINvNvB2z_8for_each4callmNCINvMsi_NtCse1nGBsou5OW_5alloc3vecINtB3M_3VecmE14extend_trustedBN_E0E0EB1v_, symObjAddr: 0x88C, symBinAddr: 0x100030078, symSize: 0x4C }
  - { offset: 0x868FA, size: 0x8, addend: 0x0, symName: __RINvXs0_NtNtNtCsfvfooZQ3Axs_4core4iter8adapters3mapINtB6_3MapINtNtNtBc_5slice4iter4IterReENCNvMCsdy4PFqiFpmx_20string_cache_codegenNtB1v_8AtomType9to_tokenss4_0ENtNtNtBa_6traits8iterator8Iterator4folduNCINvNvNtB2D_7collect22default_extend_tuple_b6extendNtCs3cP53eQoTwO_11proc_macro25IdentTyhEINtNtCse1nGBsou5OW_5alloc3vec3VecB43_EIB4H_B4C_EE0EB1v_, symObjAddr: 0x8D8, symBinAddr: 0x1000300C4, symSize: 0x58 }
  - { offset: 0x86991, size: 0x8, addend: 0x0, symName: __RINvXs0_NtNtNtCsfvfooZQ3Axs_4core4iter8adapters3mapINtB6_3MapINtNtNtBc_5slice4iter4IterReENCNvMCsdy4PFqiFpmx_20string_cache_codegenNtB1v_8AtomType9to_tokenss4_0ENtNtNtBa_6traits8iterator8Iterator4folduNCINvNvXs6_NtB2D_7collectpINtB3o_6TraitBppE6extend6extendNtCs3cP53eQoTwO_11proc_macro25IdentTyhEINtNtCse1nGBsou5OW_5alloc3vec3VecB48_EIB4M_B4H_EE0EB1v_, symObjAddr: 0x930, symBinAddr: 0x10003011C, symSize: 0x58 }
  - { offset: 0x86A28, size: 0x8, addend: 0x0, symName: __RINvXs0_NtNtNtCsfvfooZQ3Axs_4core4iter8adapters3mapINtB6_3MapINtNtNtBc_5slice4iter4IterhENCNvNtCse1nGBsou5OW_5alloc3str13replace_ascii0ENtNtNtBa_6traits8iterator8Iterator4folduNCINvNvB2a_8for_each4callhNCINvMsi_NtB1v_3vecINtB3n_3VechE14extend_trustedBN_E0E0ECsdy4PFqiFpmx_20string_cache_codegen, symObjAddr: 0x988, symBinAddr: 0x100030174, symSize: 0x58 }
  - { offset: 0x86AC1, size: 0x8, addend: 0x0, symName: __RINvXs0_NtNtNtCsfvfooZQ3Axs_4core4iter8adapters3mapINtB6_3MapINtNtNtBc_5slice4iter4IterjENCNvMCsdy4PFqiFpmx_20string_cache_codegenNtB1u_8AtomType9to_tokenss_0ENtNtNtBa_6traits8iterator8Iterator4folduNCINvNvB2x_8for_each4callReNCINvMsi_NtCse1nGBsou5OW_5alloc3vecINtB3L_3VecB3A_E14extend_trustedBN_E0E0EB1u_, symObjAddr: 0x9E0, symBinAddr: 0x1000301CC, symSize: 0x4C }
  - { offset: 0x86B5A, size: 0x8, addend: 0x0, symName: __RINvXs0_NtNtNtCsfvfooZQ3Axs_4core4iter8adapters3mapINtB6_3MapINtNtNtNtCse1nGBsou5OW_5alloc11collections5btree3set4IterNtNtB16_6string6StringENvMB1U_B1S_6as_strENtNtNtBa_6traits8iterator8Iterator4folduNCINvNvB2y_9partition6extendReINtNtB16_3vec3VecB3E_ENCNvMCsdy4PFqiFpmx_20string_cache_codegenNtB47_8AtomType9to_tokens0E0EB47_, symObjAddr: 0xA2C, symBinAddr: 0x100030218, symSize: 0x58 }
  - { offset: 0x86BCC, size: 0x8, addend: 0x0, symName: __RNvXs0_NtNtNtCsfvfooZQ3Axs_4core4iter8adapters3mapINtB5_3MapINtNtB7_6copied6CopiedINtNtNtBb_5slice4iter4IterReEENCNvMCsdy4PFqiFpmx_20string_cache_codegenNtB1R_8AtomType9to_tokenss3_0ENtNtNtB9_6traits8iterator8Iterator9size_hintB1R_, symObjAddr: 0x205C, symBinAddr: 0x100031848, symSize: 0x24 }
  - { offset: 0x86C13, size: 0x8, addend: 0x0, symName: __RNvXs0_NtNtNtCsfvfooZQ3Axs_4core4iter8adapters3mapINtB5_3MapINtNtNtBb_5slice4iter4IterReENCNCINvCs6nR6nErDO7j_13phf_generator26generate_hash_with_hash_fnB1m_INvCs9tf12AD4ZJa_10phf_shared4hashB1m_EE00ENtNtNtB9_6traits8iterator8Iterator9size_hintCsdy4PFqiFpmx_20string_cache_codegen, symObjAddr: 0x2080, symBinAddr: 0x10003186C, symSize: 0x24 }
  - { offset: 0x86C5A, size: 0x8, addend: 0x0, symName: __RNvXs0_NtNtNtCsfvfooZQ3Axs_4core4iter8adapters3mapINtB5_3MapINtNtNtBb_5slice4iter4IterReENCNvMCsdy4PFqiFpmx_20string_cache_codegenNtB1u_8AtomType9to_tokenss1_0ENtNtNtB9_6traits8iterator8Iterator9size_hintB1u_, symObjAddr: 0x20A4, symBinAddr: 0x100031890, symSize: 0x24 }
  - { offset: 0x86CA1, size: 0x8, addend: 0x0, symName: __RNvXs0_NtNtNtCsfvfooZQ3Axs_4core4iter8adapters3mapINtB5_3MapINtNtNtBb_5slice4iter4IterReENCNvMCsdy4PFqiFpmx_20string_cache_codegenNtB1u_8AtomType9to_tokenss4_0ENtNtNtB9_6traits8iterator8Iterator9size_hintB1u_, symObjAddr: 0x20C8, symBinAddr: 0x1000318B4, symSize: 0x24 }
  - { offset: 0x86CE8, size: 0x8, addend: 0x0, symName: __RNvXs0_NtNtNtCsfvfooZQ3Axs_4core4iter8adapters3mapINtB5_3MapINtNtNtBb_5slice4iter4IterhENCNvNtCse1nGBsou5OW_5alloc3str13replace_ascii0ENtNtNtB9_6traits8iterator8Iterator9size_hintCsdy4PFqiFpmx_20string_cache_codegen, symObjAddr: 0x20EC, symBinAddr: 0x1000318D8, symSize: 0x24 }
  - { offset: 0x86D2F, size: 0x8, addend: 0x0, symName: __RNvXs0_NtNtNtCsfvfooZQ3Axs_4core4iter8adapters3mapINtB5_3MapINtNtNtBb_5slice4iter4IterjENCNvMCsdy4PFqiFpmx_20string_cache_codegenNtB1t_8AtomType9to_tokenss_0ENtNtNtB9_6traits8iterator8Iterator9size_hintB1t_, symObjAddr: 0x2110, symBinAddr: 0x1000318FC, symSize: 0x24 }
  - { offset: 0x86D76, size: 0x8, addend: 0x0, symName: __RNvXs0_NtNtNtCsfvfooZQ3Axs_4core4iter8adapters3mapINtB5_3MapINtNtNtCse1nGBsou5OW_5alloc3vec9into_iter8IntoIterINtNtBb_6option6OptionjEENCNCINvCs6nR6nErDO7j_13phf_generator26generate_hash_with_hash_fnReINvCs9tf12AD4ZJa_10phf_shared4hashB3b_EEs_00ENtNtNtB9_6traits8iterator8Iterator24___iterator_get_uncheckedCsdy4PFqiFpmx_20string_cache_codegen, symObjAddr: 0x2134, symBinAddr: 0x100031920, symSize: 0x48 }
  - { offset: 0x86DF0, size: 0x8, addend: 0x0, symName: __RNvXs0_NtNtNtCsfvfooZQ3Axs_4core4iter8adapters3mapINtB5_3MapINtNtNtCse1nGBsou5OW_5alloc3vec9into_iter8IntoIterINtNtBb_6option6OptionjEENCNCINvCs6nR6nErDO7j_13phf_generator26generate_hash_with_hash_fnReINvCs9tf12AD4ZJa_10phf_shared4hashB3b_EEs_00ENtNtNtB9_6traits8iterator8Iterator9size_hintCsdy4PFqiFpmx_20string_cache_codegen, symObjAddr: 0x217C, symBinAddr: 0x100031968, symSize: 0x24 }
  - { offset: 0x87068, size: 0x8, addend: 0x0, symName: __RNvXs9_NtNtNtCsfvfooZQ3Axs_4core4iter8adapters3mapINtB5_3MapINtNtNtCse1nGBsou5OW_5alloc3vec9into_iter8IntoIterINtNtBb_6option6OptionjEENCNCINvCs6nR6nErDO7j_13phf_generator26generate_hash_with_hash_fnReINvCs9tf12AD4ZJa_10phf_shared4hashB3b_EEs_00ENtB7_10SourceIter8as_innerCsdy4PFqiFpmx_20string_cache_codegen, symObjAddr: 0x2964, symBinAddr: 0x100032150, symSize: 0x24 }
  - { offset: 0x8724A, size: 0x8, addend: 0x0, symName: __RNvYINtNtNtNtCsfvfooZQ3Axs_4core4iter8adapters3map3MapINtNtNtCse1nGBsou5OW_5alloc3vec9into_iter8IntoIterINtNtBb_6option6OptionjEENCNCINvCs6nR6nErDO7j_13phf_generator26generate_hash_with_hash_fnReINvCs9tf12AD4ZJa_10phf_shared4hashB35_EEs_00ENtNtB7_3zip27TrustedRandomAccessNoCoerce4sizeCsdy4PFqiFpmx_20string_cache_codegen, symObjAddr: 0x2B8C, symBinAddr: 0x100032378, symSize: 0x2C }
  - { offset: 0x87487, size: 0x8, addend: 0x0, symName: __RINvYINtNtNtNtCsfvfooZQ3Axs_4core4iter8adapters3map3MapINtNtB8_6copied6CopiedINtNtNtBc_5slice4iter4IterReEENCNvMCsdy4PFqiFpmx_20string_cache_codegenNtB1M_8AtomType9to_tokenss3_0ENtNtNtBa_6traits8iterator8Iterator7collectINtNtCse1nGBsou5OW_5alloc3vec3VecNtCs3cP53eQoTwO_11proc_macro25IdentEEB1M_, symObjAddr: 0xA84, symBinAddr: 0x100030270, symSize: 0x1C }
  - { offset: 0x874C8, size: 0x8, addend: 0x0, symName: __RINvYINtNtNtNtCsfvfooZQ3Axs_4core4iter8adapters3map3MapINtNtB8_6copied6CopiedINtNtNtBc_5slice4iter4IterReEENCNvMCsdy4PFqiFpmx_20string_cache_codegenNtB1M_8AtomType9to_tokenss3_0ENtNtNtBa_6traits8iterator8Iterator8for_eachNCINvMsi_NtCse1nGBsou5OW_5alloc3vecINtB3G_3VecNtCs3cP53eQoTwO_11proc_macro25IdentE14extend_trustedB3_E0EB1M_, symObjAddr: 0xAA0, symBinAddr: 0x10003028C, symSize: 0x34 }
  - { offset: 0x87534, size: 0x8, addend: 0x0, symName: __RINvYINtNtNtNtCsfvfooZQ3Axs_4core4iter8adapters3map3MapINtNtNtBc_5slice4iter4IterReENCNCINvCs6nR6nErDO7j_13phf_generator26generate_hash_with_hash_fnB1h_INvCs9tf12AD4ZJa_10phf_shared4hashB1h_EE00ENtNtNtBa_6traits8iterator8Iterator8for_eachNCINvMsi_NtCse1nGBsou5OW_5alloc3vecINtB3X_3VecNtB2t_6HashesE14extend_trustedB3_E0ECsdy4PFqiFpmx_20string_cache_codegen, symObjAddr: 0xAD4, symBinAddr: 0x1000302C0, symSize: 0x34 }
  - { offset: 0x875A0, size: 0x8, addend: 0x0, symName: __RINvYINtNtNtNtCsfvfooZQ3Axs_4core4iter8adapters3map3MapINtNtNtBc_5slice4iter4IterReENCNvMCsdy4PFqiFpmx_20string_cache_codegenNtB1p_8AtomType9to_tokenss1_0ENtNtNtBa_6traits8iterator8Iterator7collectINtNtCse1nGBsou5OW_5alloc3vec3VecmEEB1p_, symObjAddr: 0xB08, symBinAddr: 0x1000302F4, symSize: 0x1C }
  - { offset: 0x875E1, size: 0x8, addend: 0x0, symName: __RINvYINtNtNtNtCsfvfooZQ3Axs_4core4iter8adapters3map3MapINtNtNtBc_5slice4iter4IterReENCNvMCsdy4PFqiFpmx_20string_cache_codegenNtB1p_8AtomType9to_tokenss1_0ENtNtNtBa_6traits8iterator8Iterator8for_eachNCINvMsi_NtCse1nGBsou5OW_5alloc3vecINtB3j_3VecmE14extend_trustedB3_E0EB1p_, symObjAddr: 0xB24, symBinAddr: 0x100030310, symSize: 0x34 }
  - { offset: 0x8764D, size: 0x8, addend: 0x0, symName: __RINvYINtNtNtNtCsfvfooZQ3Axs_4core4iter8adapters3map3MapINtNtNtBc_5slice4iter4IterReENCNvMCsdy4PFqiFpmx_20string_cache_codegenNtB1p_8AtomType9to_tokenss4_0ENtNtNtBa_6traits8iterator8Iterator5unzipNtCs3cP53eQoTwO_11proc_macro25IdentTyhEINtNtCse1nGBsou5OW_5alloc3vec3VecB37_EIB3L_B3G_EEB1p_, symObjAddr: 0xB58, symBinAddr: 0x100030344, symSize: 0xD4 }
  - { offset: 0x8771B, size: 0x8, addend: 0x0, symName: __RINvYINtNtNtNtCsfvfooZQ3Axs_4core4iter8adapters3map3MapINtNtNtBc_5slice4iter4IterhENCNvNtCse1nGBsou5OW_5alloc3str13replace_ascii0ENtNtNtBa_6traits8iterator8Iterator8for_eachNCINvMsi_NtB1p_3vecINtB2U_3VechE14extend_trustedB3_E0ECsdy4PFqiFpmx_20string_cache_codegen, symObjAddr: 0xC2C, symBinAddr: 0x100030418, symSize: 0x34 }
  - { offset: 0x87787, size: 0x8, addend: 0x0, symName: __RINvYINtNtNtNtCsfvfooZQ3Axs_4core4iter8adapters3map3MapINtNtNtBc_5slice4iter4IterjENCNvMCsdy4PFqiFpmx_20string_cache_codegenNtB1o_8AtomType9to_tokenss_0ENtNtNtBa_6traits8iterator8Iterator7collectINtNtCse1nGBsou5OW_5alloc3vec3VecReEEB1o_, symObjAddr: 0xC60, symBinAddr: 0x10003044C, symSize: 0x1C }
  - { offset: 0x877C8, size: 0x8, addend: 0x0, symName: __RINvYINtNtNtNtCsfvfooZQ3Axs_4core4iter8adapters3map3MapINtNtNtBc_5slice4iter4IterjENCNvMCsdy4PFqiFpmx_20string_cache_codegenNtB1o_8AtomType9to_tokenss_0ENtNtNtBa_6traits8iterator8Iterator8for_eachNCINvMsi_NtCse1nGBsou5OW_5alloc3vecINtB3h_3VecReE14extend_trustedB3_E0EB1o_, symObjAddr: 0xC7C, symBinAddr: 0x100030468, symSize: 0x34 }
  - { offset: 0x87834, size: 0x8, addend: 0x0, symName: __RINvYINtNtNtNtCsfvfooZQ3Axs_4core4iter8adapters3map3MapINtNtNtCse1nGBsou5OW_5alloc3vec9into_iter8IntoIterINtNtBc_6option6OptionjEENCNCINvCs6nR6nErDO7j_13phf_generator26generate_hash_with_hash_fnReINvCs9tf12AD4ZJa_10phf_shared4hashB36_EEs_00ENtNtNtBa_6traits8iterator8Iterator7collectINtBW_3VecjEECsdy4PFqiFpmx_20string_cache_codegen, symObjAddr: 0xCB0, symBinAddr: 0x10003049C, symSize: 0x1C }
  - { offset: 0x87875, size: 0x8, addend: 0x0, symName: __RINvYINtNtNtNtCsfvfooZQ3Axs_4core4iter8adapters3map3MapINtNtNtNtCse1nGBsou5OW_5alloc11collections5btree3set4IterNtNtB10_6string6StringENvMB1O_B1M_6as_strENtNtNtBa_6traits8iterator8Iterator9partitionINtNtB10_3vec3VecReENCNvMCsdy4PFqiFpmx_20string_cache_codegenNtB3z_8AtomType9to_tokens0EB3z_, symObjAddr: 0xCCC, symBinAddr: 0x1000304B8, symSize: 0x154 }
  - { offset: 0x87990, size: 0x8, addend: 0x0, symName: __RNvXs6_NtNtNtCsfvfooZQ3Axs_4core4iter6traits7collectINtNtNtB9_8adapters3map3MapINtNtNtBb_5slice4iter4IterReENCNvMCsdy4PFqiFpmx_20string_cache_codegenNtB1N_8AtomType9to_tokenss4_0EINtB5_6TraitBINtNtCse1nGBsou5OW_5alloc3vec3VecNtCs3cP53eQoTwO_11proc_macro25IdentEIB35_TyhEEE6extendB1N_, symObjAddr: 0x25A4, symBinAddr: 0x100031D90, symSize: 0x140 }
  - { offset: 0x87AFA, size: 0x8, addend: 0x0, symName: __RNvXNtNtNtCsfvfooZQ3Axs_4core4iter6traits7collectINtNtNtB6_8adapters3map3MapINtNtBQ_6copied6CopiedINtNtNtB8_5slice4iter4IterReEENCNvMCsdy4PFqiFpmx_20string_cache_codegenNtB27_8AtomType9to_tokenss3_0ENtB2_12IntoIterator9into_iterB27_, symObjAddr: 0x1FF0, symBinAddr: 0x1000317DC, symSize: 0x14 }
  - { offset: 0x87B31, size: 0x8, addend: 0x0, symName: __RNvXNtNtNtCsfvfooZQ3Axs_4core4iter6traits7collectINtNtNtB6_8adapters3map3MapINtNtNtB8_5slice4iter4IterReENCNCINvCs6nR6nErDO7j_13phf_generator26generate_hash_with_hash_fnB1C_INvCs9tf12AD4ZJa_10phf_shared4hashB1C_EE00ENtB2_12IntoIterator9into_iterCsdy4PFqiFpmx_20string_cache_codegen, symObjAddr: 0x2004, symBinAddr: 0x1000317F0, symSize: 0x14 }
  - { offset: 0x87B68, size: 0x8, addend: 0x0, symName: __RNvXNtNtNtCsfvfooZQ3Axs_4core4iter6traits7collectINtNtNtB6_8adapters3map3MapINtNtNtB8_5slice4iter4IterReENCNvMCsdy4PFqiFpmx_20string_cache_codegenNtB1K_8AtomType9to_tokenss1_0ENtB2_12IntoIterator9into_iterB1K_, symObjAddr: 0x2018, symBinAddr: 0x100031804, symSize: 0x18 }
  - { offset: 0x87B9F, size: 0x8, addend: 0x0, symName: __RNvXNtNtNtCsfvfooZQ3Axs_4core4iter6traits7collectINtNtNtB6_8adapters3map3MapINtNtNtB8_5slice4iter4IterjENCNvMCsdy4PFqiFpmx_20string_cache_codegenNtB1J_8AtomType9to_tokenss_0ENtB2_12IntoIterator9into_iterB1J_, symObjAddr: 0x2030, symBinAddr: 0x10003181C, symSize: 0x18 }
  - { offset: 0x87BD6, size: 0x8, addend: 0x0, symName: __RNvXNtNtNtCsfvfooZQ3Axs_4core4iter6traits7collectINtNtNtB6_8adapters3map3MapINtNtNtCse1nGBsou5OW_5alloc3vec9into_iter8IntoIterINtNtB8_6option6OptionjEENCNCINvCs6nR6nErDO7j_13phf_generator26generate_hash_with_hash_fnReINvCs9tf12AD4ZJa_10phf_shared4hashB3r_EEs_00ENtB2_12IntoIterator9into_iterCsdy4PFqiFpmx_20string_cache_codegen, symObjAddr: 0x2048, symBinAddr: 0x100031834, symSize: 0x14 }
  - { offset: 0x87C83, size: 0x8, addend: 0x0, symName: __RNvXsc_NtNtCsfvfooZQ3Axs_4core4iter5rangeINtNtNtB9_3ops5range14RangeInclusivejENtB5_26RangeInclusiveIteratorImpl9spec_nextCsdy4PFqiFpmx_20string_cache_codegen, symObjAddr: 0x2A44, symBinAddr: 0x100032230, symSize: 0x100 }
  - { offset: 0x87DC0, size: 0x8, addend: 0x0, symName: __RNvXsd_NtNtCsfvfooZQ3Axs_4core4iter5rangeINtNtNtB9_3ops5range14RangeInclusivejENtNtNtB7_6traits8iterator8Iterator4nextCsdy4PFqiFpmx_20string_cache_codegen, symObjAddr: 0x2B44, symBinAddr: 0x100032330, symSize: 0x24 }
  - { offset: 0x883E2, size: 0x8, addend: 0x0, symName: __RNvNvNtCsfvfooZQ3Axs_4core9ub_checks23maybe_is_nonoverlapping7runtimeCsdy4PFqiFpmx_20string_cache_codegen, symObjAddr: 0x1D34, symBinAddr: 0x100031520, symSize: 0xD8 }
  - { offset: 0x885CB, size: 0x8, addend: 0x0, symName: __RNvNvNtNtCsfvfooZQ3Axs_4core4char7convert18from_u32_unchecked18precondition_checkCsdy4PFqiFpmx_20string_cache_codegen, symObjAddr: 0x1E0C, symBinAddr: 0x1000315F8, symSize: 0x98 }
  - { offset: 0x8920D, size: 0x8, addend: 0x0, symName: __RNvXs1_NtNtCse1nGBsou5OW_5alloc3vec16in_place_collectINtNtNtNtCsfvfooZQ3Axs_4core4iter8adapters3map3MapINtNtB7_9into_iter8IntoIterINtNtBY_6option6OptionjEENCNCINvCs6nR6nErDO7j_13phf_generator26generate_hash_with_hash_fnReINvCs9tf12AD4ZJa_10phf_shared4hashB3v_EEs_00EINtB5_18SpecInPlaceCollectjBP_E16collect_in_placeCsdy4PFqiFpmx_20string_cache_codegen, symObjAddr: 0x21B0, symBinAddr: 0x10003199C, symSize: 0x170 }
  - { offset: 0x894C8, size: 0x8, addend: 0x0, symName: __RNvNtCse1nGBsou5OW_5alloc5alloc12alloc_zeroedCsdy4PFqiFpmx_20string_cache_codegen, symObjAddr: 0x1BB4, symBinAddr: 0x1000313A0, symSize: 0x84 }
  - { offset: 0x8955F, size: 0x8, addend: 0x0, symName: __RNvNtCse1nGBsou5OW_5alloc5alloc5allocCsdy4PFqiFpmx_20string_cache_codegen, symObjAddr: 0x1C38, symBinAddr: 0x100031424, symSize: 0x84 }
  - { offset: 0x895FB, size: 0x8, addend: 0x0, symName: __RNvXs1_NtCse1nGBsou5OW_5alloc5allocNtB5_6GlobalNtNtCsfvfooZQ3Axs_4core5clone5Clone5cloneCsdy4PFqiFpmx_20string_cache_codegen, symObjAddr: 0x21A0, symBinAddr: 0x10003198C, symSize: 0x10 }
  - { offset: 0x8964C, size: 0x8, addend: 0x0, symName: __RNvXs_NtCse1nGBsou5OW_5alloc5allocNtB4_6GlobalNtNtCsfvfooZQ3Axs_4core5alloc9Allocator10deallocateCsdy4PFqiFpmx_20string_cache_codegen, symObjAddr: 0x2988, symBinAddr: 0x100032174, symSize: 0x88 }
  - { offset: 0x89727, size: 0x8, addend: 0x0, symName: __RNvXs_NtCse1nGBsou5OW_5alloc5allocNtB4_6GlobalNtNtCsfvfooZQ3Axs_4core5alloc9Allocator8allocateCsdy4PFqiFpmx_20string_cache_codegen, symObjAddr: 0x2A10, symBinAddr: 0x1000321FC, symSize: 0x34 }
  - { offset: 0x8998C, size: 0x8, addend: 0x0, symName: __RNCINvMNtCse1nGBsou5OW_5alloc5sliceSNtCs6nR6nErDO7j_13phf_generator6Bucket11sort_by_keyjNCINvMBA_NtBA_9Generator5resetINtNtNtNtCsfvfooZQ3Axs_4core4iter8adapters3map3MapINtNtNtB21_5slice4iter4IterReENCNCINvBA_26generate_hash_with_hash_fnB37_INvCs9tf12AD4ZJa_10phf_shared4hashB37_EE00EEs_0E0Csdy4PFqiFpmx_20string_cache_codegen, symObjAddr: 0xE20, symBinAddr: 0x10003060C, symSize: 0xAC }
  - { offset: 0x89A1E, size: 0x8, addend: 0x0, symName: __RINvNtCse1nGBsou5OW_5alloc5slice11stable_sortNtCs6nR6nErDO7j_13phf_generator6BucketNCINvMB2_SBH_11sort_by_keyjNCINvMBJ_NtBJ_9Generator5resetINtNtNtNtCsfvfooZQ3Axs_4core4iter8adapters3map3MapINtNtNtB2n_5slice4iter4IterReENCNCINvBJ_26generate_hash_with_hash_fnB3t_INvCs9tf12AD4ZJa_10phf_shared4hashB3t_EE00EEs_0E0ECsdy4PFqiFpmx_20string_cache_codegen, symObjAddr: 0x11C, symBinAddr: 0x10002F908, symSize: 0xC8 }
  - { offset: 0x8A093, size: 0x8, addend: 0x0, symName: __RNCNvMsk_NtNtNtCse1nGBsou5OW_5alloc11collections5btree8navigateINtNtB9_4node6HandleINtB12_7NodeRefNtNtB12_6marker5ImmutNtNtBd_6string6StringNtNtB9_7set_val9SetValZSTNtB1A_4LeafENtB1A_4EdgeE14next_unchecked0Csdy4PFqiFpmx_20string_cache_codegen, symObjAddr: 0x1310, symBinAddr: 0x100030AFC, symSize: 0xE0 }
  - { offset: 0x8A858, size: 0x8, addend: 0x0, symName: __RNvMNtCse1nGBsou5OW_5alloc5allocNtB2_6Global10alloc_implCsdy4PFqiFpmx_20string_cache_codegen, symObjAddr: 0x13F0, symBinAddr: 0x100030BDC, symSize: 0x194 }
  - { offset: 0x8ABD9, size: 0x8, addend: 0x0, symName: __RNvMs1_NtNtCsfvfooZQ3Axs_4core3ptr8non_nullINtB5_7NonNullINtNtB9_6option6OptionjEE7sub_ptrCsdy4PFqiFpmx_20string_cache_codegen, symObjAddr: 0x15FC, symBinAddr: 0x100030DE8, symSize: 0x74 }
  - { offset: 0x8ACC5, size: 0x8, addend: 0x0, symName: __RNvMs1_NtNtCsfvfooZQ3Axs_4core3ptr8non_nullINtB5_7NonNullReE7sub_ptrCsdy4PFqiFpmx_20string_cache_codegen, symObjAddr: 0x1670, symBinAddr: 0x100030E5C, symSize: 0x74 }
  - { offset: 0x8ADE9, size: 0x8, addend: 0x0, symName: __RNvMs1_NtNtCsfvfooZQ3Axs_4core3ptr8non_nullINtB5_7NonNullTmmEE7sub_ptrCsdy4PFqiFpmx_20string_cache_codegen, symObjAddr: 0x16E4, symBinAddr: 0x100030ED0, symSize: 0x74 }
  - { offset: 0x8AEEF, size: 0x8, addend: 0x0, symName: __RNvMs1_NtNtCsfvfooZQ3Axs_4core3ptr8non_nullINtB5_7NonNullTyhEE7sub_ptrCsdy4PFqiFpmx_20string_cache_codegen, symObjAddr: 0x1758, symBinAddr: 0x100030F44, symSize: 0x74 }
  - { offset: 0x8B171, size: 0x8, addend: 0x0, symName: __RNvMsc_NtNtNtCse1nGBsou5OW_5alloc11collections5btree8navigateINtB5_13LazyLeafRangeNtNtNtB7_4node6marker5ImmutNtNtBb_6string6StringNtNtB7_7set_val9SetValZSTE10init_frontCsdy4PFqiFpmx_20string_cache_codegen, symObjAddr: 0x17CC, symBinAddr: 0x100030FB8, symSize: 0x1C4 }
  - { offset: 0x8B351, size: 0x8, addend: 0x0, symName: __RNvNtCsc9oQL4R8Sxl_9rand_core2le13read_u64_intoCsdy4PFqiFpmx_20string_cache_codegen, symObjAddr: 0x1990, symBinAddr: 0x10003117C, symSize: 0x224 }
  - { offset: 0x8B4BD, size: 0x8, addend: 0x0, symName: __RNvXNtCs2cqEZUIJimJ_5quote9to_tokensRReNtB2_8ToTokens9to_tokensCsdy4PFqiFpmx_20string_cache_codegen, symObjAddr: 0x1EA4, symBinAddr: 0x100031690, symSize: 0x40 }
  - { offset: 0x8B4FC, size: 0x8, addend: 0x0, symName: __RNvXNtCs2cqEZUIJimJ_5quote9to_tokensReNtB2_8ToTokens9to_tokensCsdy4PFqiFpmx_20string_cache_codegen, symObjAddr: 0x1EE4, symBinAddr: 0x1000316D0, symSize: 0x4C }
  - { offset: 0x8B53B, size: 0x8, addend: 0x0, symName: __RNvXNtCs2cqEZUIJimJ_5quote9to_tokensRhNtB2_8ToTokens9to_tokensCsdy4PFqiFpmx_20string_cache_codegen, symObjAddr: 0x1F30, symBinAddr: 0x10003171C, symSize: 0x40 }
  - { offset: 0x8B57A, size: 0x8, addend: 0x0, symName: __RNvXNtCs2cqEZUIJimJ_5quote9to_tokensRmNtB2_8ToTokens9to_tokensCsdy4PFqiFpmx_20string_cache_codegen, symObjAddr: 0x1F70, symBinAddr: 0x10003175C, symSize: 0x40 }
  - { offset: 0x8B5B9, size: 0x8, addend: 0x0, symName: __RNvXNtCs2cqEZUIJimJ_5quote9to_tokensRyNtB2_8ToTokens9to_tokensCsdy4PFqiFpmx_20string_cache_codegen, symObjAddr: 0x1FB0, symBinAddr: 0x10003179C, symSize: 0x40 }
  - { offset: 0x8B609, size: 0x8, addend: 0x0, symName: __RNvYINtNtNtCsfvfooZQ3Axs_4core3ops5range5RangemENtNtNtCs2cqEZUIJimJ_5quote9___private3ext14RepIteratorExt15quote_into_iterCsdy4PFqiFpmx_20string_cache_codegen, symObjAddr: 0x2B68, symBinAddr: 0x100032354, symSize: 0x24 }
  - { offset: 0x8B807, size: 0x8, addend: 0x0, symName: __RNvXs5_NtNtNtCscOYdFFY2T5N_3std2os2fd5ownedNtB5_7OwnedFdNtNtNtCsfvfooZQ3Axs_4core3ops4drop4Drop4dropCsdy4PFqiFpmx_20string_cache_codegen, symObjAddr: 0x2564, symBinAddr: 0x100031D50, symSize: 0x40 }
  - { offset: 0x8BBBD, size: 0x8, addend: 0x0, symName: __RINvXs2U_NtNtCsfvfooZQ3Axs_4core5slice4iterINtB7_4IterReENtNtNtNtBb_4iter6traits8iterator8Iterator4folduNCINvNtNtBZ_8adapters3map8map_foldRBQ_NtCs9tf12AD4ZJa_10phf_shared6HashesuNCNCINvCs6nR6nErDO7j_13phf_generator26generate_hash_with_hash_fnBQ_INvB2i_4hashBQ_EE00NCINvNvBT_8for_each4callB2g_NCINvMsi_NtCse1nGBsou5OW_5alloc3vecINtB4P_3VecB2g_E14extend_trustedINtB1J_3MapBF_B2Q_EE0E0E0ECsdy4PFqiFpmx_20string_cache_codegen, symObjAddr: 0x0, symBinAddr: 0x1000323A4, symSize: 0x1B0 }
  - { offset: 0x8CC22, size: 0x8, addend: 0x0, symName: __RINvXs2U_NtNtCsfvfooZQ3Axs_4core5slice4iterINtB7_4IterReENtNtNtNtBb_4iter6traits8iterator8Iterator4folduNCINvNtNtBZ_8adapters3map8map_foldRBQ_NtCs9tf12AD4ZJa_10phf_shared6HashesuNCNCINvCs6nR6nErDO7j_13phf_generator26generate_hash_with_hash_fnBQ_INvB2i_4hashBQ_EE00NCINvNvBT_8for_each4callB2g_NCINvMsi_NtCse1nGBsou5OW_5alloc3vecINtB4P_3VecB2g_E14extend_trustedINtB1J_3MapBF_B2Q_EE0E0E0ECsdy4PFqiFpmx_20string_cache_codegen, symObjAddr: 0x0, symBinAddr: 0x1000323A4, symSize: 0x1B0 }
  - { offset: 0x8CD76, size: 0x8, addend: 0x0, symName: __RINvXs2U_NtNtCsfvfooZQ3Axs_4core5slice4iterINtB7_4IterReENtNtNtNtBb_4iter6traits8iterator8Iterator4folduNCINvNtNtBZ_8adapters3map8map_foldRBQ_TNtCs3cP53eQoTwO_11proc_macro25IdentTyhEEuNCNvMCsdy4PFqiFpmx_20string_cache_codegenNtB31_8AtomType9to_tokenss4_0NCINvNvNtBX_7collect22default_extend_tuple_b6extendB2h_B2Q_INtNtCse1nGBsou5OW_5alloc3vec3VecB2h_EIB52_B2Q_EE0E0EB31_, symObjAddr: 0x1B0, symBinAddr: 0x100032554, symSize: 0x184 }
  - { offset: 0x8CECA, size: 0x8, addend: 0x0, symName: __RINvXs2U_NtNtCsfvfooZQ3Axs_4core5slice4iterINtB7_4IterReENtNtNtNtBb_4iter6traits8iterator8Iterator4folduNCINvNtNtBZ_8adapters3map8map_foldRBQ_TNtCs3cP53eQoTwO_11proc_macro25IdentTyhEEuNCNvMCsdy4PFqiFpmx_20string_cache_codegenNtB31_8AtomType9to_tokenss4_0NCINvNvXs6_NtBX_7collectpINtB4f_6TraitBppE6extend6extendB2h_B2Q_INtNtCse1nGBsou5OW_5alloc3vec3VecB2h_EIB57_B2Q_EE0E0EB31_, symObjAddr: 0x334, symBinAddr: 0x1000326D8, symSize: 0x184 }
  - { offset: 0x8D01E, size: 0x8, addend: 0x0, symName: __RINvXs2U_NtNtCsfvfooZQ3Axs_4core5slice4iterINtB7_4IterReENtNtNtNtBb_4iter6traits8iterator8Iterator4folduNCINvNtNtBZ_8adapters3map8map_foldRBQ_muNCNvMCsdy4PFqiFpmx_20string_cache_codegenNtB2n_8AtomType9to_tokenss1_0NCINvNvBT_8for_each4callmNCINvMsi_NtCse1nGBsou5OW_5alloc3vecINtB3Y_3VecmE14extend_trustedINtB1J_3MapBF_B2i_EE0E0E0EB2n_, symObjAddr: 0x4B8, symBinAddr: 0x10003285C, symSize: 0x1B0 }
  - { offset: 0x8D172, size: 0x8, addend: 0x0, symName: __RINvXs2U_NtNtCsfvfooZQ3Axs_4core5slice4iterINtB7_4IterReENtNtNtNtBb_4iter6traits8iterator8Iterator4folduNCINvNtNtBZ_8adapters6copied9copy_foldBQ_uNCINvNtB1L_3map8map_foldBQ_NtCs3cP53eQoTwO_11proc_macro25IdentuNCNvMCsdy4PFqiFpmx_20string_cache_codegenNtB3q_8AtomType9to_tokenss3_0NCINvNvBT_8for_each4callB2L_NCINvMsi_NtCse1nGBsou5OW_5alloc3vecINtB54_3VecB2L_E14extend_trustedINtB2p_3MapINtB1J_6CopiedBF_EB3l_EE0E0E0E0EB3q_, symObjAddr: 0x668, symBinAddr: 0x100032A0C, symSize: 0x1B0 }
  - { offset: 0x8D2C6, size: 0x8, addend: 0x0, symName: __RINvXs2U_NtNtCsfvfooZQ3Axs_4core5slice4iterINtB7_4IterReENtNtNtNtBb_4iter6traits8iterator8Iterator8positionNCNvMCsdy4PFqiFpmx_20string_cache_codegenNtB1M_8AtomType9to_tokenss0_0EB1M_, symObjAddr: 0x818, symBinAddr: 0x100032BBC, symSize: 0x180 }
  - { offset: 0x8D384, size: 0x8, addend: 0x0, symName: __RINvXs2U_NtNtCsfvfooZQ3Axs_4core5slice4iterINtB7_4IterhENtNtNtNtBb_4iter6traits8iterator8Iterator4folduNCINvNtNtBY_8adapters3map8map_foldRhhuNCNvNtCse1nGBsou5OW_5alloc3str13replace_ascii0NCINvNvBS_8for_each4callhNCINvMsi_NtB2l_3vecINtB3x_3VechE14extend_trustedINtB1I_3MapBF_B2f_EE0E0E0ECsdy4PFqiFpmx_20string_cache_codegen, symObjAddr: 0x998, symBinAddr: 0x100032D3C, symSize: 0x1B0 }
  - { offset: 0x8D4D8, size: 0x8, addend: 0x0, symName: __RINvXs2U_NtNtCsfvfooZQ3Axs_4core5slice4iterINtB7_4IterjENtNtNtNtBb_4iter6traits8iterator8Iterator4folduNCINvNtNtBY_8adapters3map8map_foldRjReuNCNvMCsdy4PFqiFpmx_20string_cache_codegenNtB2l_8AtomType9to_tokenss_0NCINvNvBS_8for_each4callB2d_NCINvMsi_NtCse1nGBsou5OW_5alloc3vecINtB3Y_3VecB2d_E14extend_trustedINtB1I_3MapBF_B2g_EE0E0E0EB2l_, symObjAddr: 0xB48, symBinAddr: 0x100032EEC, symSize: 0x1B0 }
  - { offset: 0x8D62C, size: 0x8, addend: 0x0, symName: __RNvXs2U_NtNtCsfvfooZQ3Axs_4core5slice4iterINtB6_4IterNtCs3cP53eQoTwO_11proc_macro25IdentENtNtNtNtBa_4iter6traits8iterator8Iterator4nextCsdy4PFqiFpmx_20string_cache_codegen, symObjAddr: 0x11D4, symBinAddr: 0x100033578, symSize: 0xBC }
  - { offset: 0x8D77A, size: 0x8, addend: 0x0, symName: __RNvXs2U_NtNtCsfvfooZQ3Axs_4core5slice4iterINtB6_4IterNtNtCse1nGBsou5OW_5alloc6string6StringENtNtNtNtBa_4iter6traits8iterator8Iterator4nextCsdy4PFqiFpmx_20string_cache_codegen, symObjAddr: 0x1290, symBinAddr: 0x100033634, symSize: 0xBC }
  - { offset: 0x8D8C8, size: 0x8, addend: 0x0, symName: __RNvXs2U_NtNtCsfvfooZQ3Axs_4core5slice4iterINtB6_4IterReENtNtNtNtBa_4iter6traits8iterator8Iterator9size_hintCsdy4PFqiFpmx_20string_cache_codegen, symObjAddr: 0x134C, symBinAddr: 0x1000336F0, symSize: 0x70 }
  - { offset: 0x8D937, size: 0x8, addend: 0x0, symName: __RNvXs2U_NtNtCsfvfooZQ3Axs_4core5slice4iterINtB6_4IterhENtNtNtNtBa_4iter6traits8iterator8Iterator9size_hintCsdy4PFqiFpmx_20string_cache_codegen, symObjAddr: 0x13BC, symBinAddr: 0x100033760, symSize: 0x70 }
  - { offset: 0x8D9A6, size: 0x8, addend: 0x0, symName: __RNvXs2U_NtNtCsfvfooZQ3Axs_4core5slice4iterINtB6_4ItermENtNtNtNtBa_4iter6traits8iterator8Iterator4nextCsdy4PFqiFpmx_20string_cache_codegen, symObjAddr: 0x142C, symBinAddr: 0x1000337D0, symSize: 0xBC }
  - { offset: 0x8DAF4, size: 0x8, addend: 0x0, symName: __RNvXs2U_NtNtCsfvfooZQ3Axs_4core5slice4iterINtB6_4IteryENtNtNtNtBa_4iter6traits8iterator8Iterator4nextCsdy4PFqiFpmx_20string_cache_codegen, symObjAddr: 0x14E8, symBinAddr: 0x10003388C, symSize: 0xBC }
  - { offset: 0x8DC48, size: 0x8, addend: 0x0, symName: __RINvXs32_NtNtCsfvfooZQ3Axs_4core5slice4iterINtB7_7IterMutINtNtBb_6option6OptionjEENtNtNtNtBb_4iter6traits8iterator8Iterator8for_eachNCINvMCs6nR6nErDO7j_13phf_generatorNtB2c_9Generator5resetINtNtNtB1o_8adapters3map3MapINtB7_4IterReENCNCINvB2c_26generate_hash_with_hash_fnB3E_INvCs9tf12AD4ZJa_10phf_shared4hashB3E_EE00EEs1_0ECsdy4PFqiFpmx_20string_cache_codegen, symObjAddr: 0xCF8, symBinAddr: 0x10003309C, symSize: 0x84 }
  - { offset: 0x8DCA5, size: 0x8, addend: 0x0, symName: __RINvXs32_NtNtCsfvfooZQ3Axs_4core5slice4iterINtB7_7IterMutNtCs6nR6nErDO7j_13phf_generator6BucketENtNtNtNtBb_4iter6traits8iterator8Iterator8for_eachNCINvMBV_NtBV_9Generator5resetINtNtNtB1C_8adapters3map3MapINtB7_4IterReENCNCINvBV_26generate_hash_with_hash_fnB3r_INvCs9tf12AD4ZJa_10phf_shared4hashB3r_EE00EE0ECsdy4PFqiFpmx_20string_cache_codegen, symObjAddr: 0xD7C, symBinAddr: 0x100033120, symSize: 0x84 }
  - { offset: 0x8DD02, size: 0x8, addend: 0x0, symName: __RINvXs32_NtNtCsfvfooZQ3Axs_4core5slice4iterINtB7_7IterMutTmmEENtNtNtNtBb_4iter6traits8iterator8Iterator8for_eachNCINvMCs6nR6nErDO7j_13phf_generatorNtB1S_9Generator5resetINtNtNtB14_8adapters3map3MapINtB7_4IterReENCNCINvB1S_26generate_hash_with_hash_fnB3k_INvCs9tf12AD4ZJa_10phf_shared4hashB3k_EE00EEs0_0ECsdy4PFqiFpmx_20string_cache_codegen, symObjAddr: 0xE00, symBinAddr: 0x1000331A4, symSize: 0x84 }
  - { offset: 0x8DD5F, size: 0x8, addend: 0x0, symName: __RINvXs32_NtNtCsfvfooZQ3Axs_4core5slice4iterINtB7_7IterMutyENtNtNtNtBb_4iter6traits8iterator8Iterator8for_eachNCINvMCs6nR6nErDO7j_13phf_generatorNtB1P_9Generator5resetINtNtNtB11_8adapters3map3MapINtB7_4IterReENCNCINvB1P_26generate_hash_with_hash_fnB3h_INvCs9tf12AD4ZJa_10phf_shared4hashB3h_EE00EEs2_0ECsdy4PFqiFpmx_20string_cache_codegen, symObjAddr: 0xE84, symBinAddr: 0x100033228, symSize: 0x84 }
  - { offset: 0x8DDBC, size: 0x8, addend: 0x0, symName: __RNvXs32_NtNtCsfvfooZQ3Axs_4core5slice4iterINtB6_7IterMutINtNtBa_6option6OptionjEENtNtNtNtBa_4iter6traits8iterator8Iterator4nextCsdy4PFqiFpmx_20string_cache_codegen, symObjAddr: 0x16A4, symBinAddr: 0x100033A48, symSize: 0xBC }
  - { offset: 0x8DEF5, size: 0x8, addend: 0x0, symName: __RNvXs32_NtNtCsfvfooZQ3Axs_4core5slice4iterINtB6_7IterMutNtCs6nR6nErDO7j_13phf_generator6BucketENtNtNtNtBa_4iter6traits8iterator8Iterator4nextCsdy4PFqiFpmx_20string_cache_codegen, symObjAddr: 0x1760, symBinAddr: 0x100033B04, symSize: 0xBC }
  - { offset: 0x8E02E, size: 0x8, addend: 0x0, symName: __RNvXs32_NtNtCsfvfooZQ3Axs_4core5slice4iterINtB6_7IterMutTmmEENtNtNtNtBa_4iter6traits8iterator8Iterator4nextCsdy4PFqiFpmx_20string_cache_codegen, symObjAddr: 0x181C, symBinAddr: 0x100033BC0, symSize: 0xBC }
  - { offset: 0x8E167, size: 0x8, addend: 0x0, symName: __RNvXs32_NtNtCsfvfooZQ3Axs_4core5slice4iterINtB6_7IterMutyENtNtNtNtBa_4iter6traits8iterator8Iterator4nextCsdy4PFqiFpmx_20string_cache_codegen, symObjAddr: 0x18D8, symBinAddr: 0x100033C7C, symSize: 0xBC }
  - { offset: 0x8E791, size: 0x8, addend: 0x0, symName: __RNvXs2V_NtNtCsfvfooZQ3Axs_4core5slice4iterINtB6_4IterhENtNtNtNtBa_4iter6traits12double_ended19DoubleEndedIterator9next_backCsdy4PFqiFpmx_20string_cache_codegen, symObjAddr: 0x15A4, symBinAddr: 0x100033948, symSize: 0x100 }
  - { offset: 0x8ECBA, size: 0x8, addend: 0x0, symName: __RINvYINtNtNtCsfvfooZQ3Axs_4core5slice4iter4IterReENtNtNtNtBa_4iter6traits8iterator8Iterator3mapNtCs9tf12AD4ZJa_10phf_shared6HashesNCNCINvCs6nR6nErDO7j_13phf_generator26generate_hash_with_hash_fnBJ_INvB1x_4hashBJ_EE00ECsdy4PFqiFpmx_20string_cache_codegen, symObjAddr: 0xF08, symBinAddr: 0x1000332AC, symSize: 0x3C }
  - { offset: 0x8ED27, size: 0x8, addend: 0x0, symName: __RINvYINtNtNtCsfvfooZQ3Axs_4core5slice4iter4IterReENtNtNtNtBa_4iter6traits8iterator8Iterator3mapTNtCs3cP53eQoTwO_11proc_macro25IdentTyhEENCNvMCsdy4PFqiFpmx_20string_cache_codegenNtB2f_8AtomType9to_tokenss4_0EB2f_, symObjAddr: 0xF44, symBinAddr: 0x1000332E8, symSize: 0x30 }
  - { offset: 0x8ED94, size: 0x8, addend: 0x0, symName: __RINvYINtNtNtCsfvfooZQ3Axs_4core5slice4iter4IterReENtNtNtNtBa_4iter6traits8iterator8Iterator3mapmNCNvMCsdy4PFqiFpmx_20string_cache_codegenNtB1B_8AtomType9to_tokenss1_0EB1B_, symObjAddr: 0xF74, symBinAddr: 0x100033318, symSize: 0x30 }
  - { offset: 0x8EE01, size: 0x8, addend: 0x0, symName: __RINvYINtNtNtCsfvfooZQ3Axs_4core5slice4iter4IterReENtNtNtNtBa_4iter6traits8iterator8Iterator6copiedBJ_ECsdy4PFqiFpmx_20string_cache_codegen, symObjAddr: 0xFA4, symBinAddr: 0x100033348, symSize: 0x1C }
  - { offset: 0x8EE41, size: 0x8, addend: 0x0, symName: __RINvYINtNtNtCsfvfooZQ3Axs_4core5slice4iter4IterjENtNtNtNtBa_4iter6traits8iterator8Iterator3mapReNCNvMCsdy4PFqiFpmx_20string_cache_codegenNtB1B_8AtomType9to_tokenss_0EB1B_, symObjAddr: 0xFC0, symBinAddr: 0x100033364, symSize: 0x30 }
  - { offset: 0x8EF1F, size: 0x8, addend: 0x0, symName: __RNvXNtNtNtCsfvfooZQ3Axs_4core4iter6traits8iteratorQINtNtNtB8_5slice4iter14ChunksExactMuthENtB2_8Iterator4nextCsdy4PFqiFpmx_20string_cache_codegen, symObjAddr: 0x11AC, symBinAddr: 0x100033550, symSize: 0x28 }
  - { offset: 0x8EF62, size: 0x8, addend: 0x0, symName: __RNvXNtNtNtCsfvfooZQ3Axs_4core4iter6traits7collectQINtNtNtB8_5slice4iter14ChunksExactMuthENtB2_12IntoIterator9into_iterCsdy4PFqiFpmx_20string_cache_codegen, symObjAddr: 0x1198, symBinAddr: 0x10003353C, symSize: 0x14 }
  - { offset: 0x8FEA7, size: 0x8, addend: 0x0, symName: __RNvMs1x_NtNtCsfvfooZQ3Axs_4core5slice4iterINtB6_14ChunksExactMuthE14into_remainderCsdy4PFqiFpmx_20string_cache_codegen, symObjAddr: 0xFF0, symBinAddr: 0x100033394, symSize: 0x10 }
  - { offset: 0x9015B, size: 0x8, addend: 0x0, symName: __RNvMs4_NtNtCsfvfooZQ3Axs_4core5slice4iterINtB5_4IterNtCs3cP53eQoTwO_11proc_macro25IdentE3newCsdy4PFqiFpmx_20string_cache_codegen, symObjAddr: 0x1000, symBinAddr: 0x1000333A4, symSize: 0x58 }
  - { offset: 0x90336, size: 0x8, addend: 0x0, symName: __RNvMs4_NtNtCsfvfooZQ3Axs_4core5slice4iterINtB5_4IteryE3newCsdy4PFqiFpmx_20string_cache_codegen, symObjAddr: 0x1058, symBinAddr: 0x1000333FC, symSize: 0x50 }
  - { offset: 0x9051E, size: 0x8, addend: 0x0, symName: __RNvMsa_NtNtCsfvfooZQ3Axs_4core5slice4iterINtB5_7IterMutINtNtB9_6option6OptionjEE3newCsdy4PFqiFpmx_20string_cache_codegen, symObjAddr: 0x10A8, symBinAddr: 0x10003344C, symSize: 0x50 }
  - { offset: 0x90706, size: 0x8, addend: 0x0, symName: __RNvMsa_NtNtCsfvfooZQ3Axs_4core5slice4iterINtB5_7IterMutNtCs6nR6nErDO7j_13phf_generator6BucketE3newCsdy4PFqiFpmx_20string_cache_codegen, symObjAddr: 0x10F8, symBinAddr: 0x10003349C, symSize: 0x50 }
  - { offset: 0x9090C, size: 0x8, addend: 0x0, symName: __RNvMsa_NtNtCsfvfooZQ3Axs_4core5slice4iterINtB5_7IterMutTmmEE3newCsdy4PFqiFpmx_20string_cache_codegen, symObjAddr: 0x1148, symBinAddr: 0x1000334EC, symSize: 0x50 }
  - { offset: 0x91367, size: 0x8, addend: 0x0, symName: __RINvMNtCse1nGBsou5OW_5alloc5sliceSNtCs6nR6nErDO7j_13phf_generator6Bucket7sort_byNCNvMBy_NtBy_9Generator17try_generate_hash0EBy_, symObjAddr: 0x0, symBinAddr: 0x100033D38, symSize: 0x48 }
  - { offset: 0x926C5, size: 0x8, addend: 0x0, symName: __RINvNtNtNtNtCsfvfooZQ3Axs_4core5slice4sort6stable5merge5mergeNtCs6nR6nErDO7j_13phf_generator6BucketNCINvMNtCse1nGBsou5OW_5alloc5sliceSBX_7sort_byNCNvMBZ_NtBZ_9Generator17try_generate_hash0E0EBZ_, symObjAddr: 0xD94, symBinAddr: 0x100034A64, symSize: 0x2F8 }
  - { offset: 0x9292F, size: 0x8, addend: 0x0, symName: __RNvXs_NtNtNtNtCsfvfooZQ3Axs_4core5slice4sort6stable5mergeINtB4_10MergeStateNtCs6nR6nErDO7j_13phf_generator6BucketENtNtNtBc_3ops4drop4Drop4dropB1d_, symObjAddr: 0x2650, symBinAddr: 0x100035F04, symSize: 0xE0 }
  - { offset: 0x92A95, size: 0x8, addend: 0x0, symName: __RINvNtNtNtNtCsfvfooZQ3Axs_4core5slice4sort6stable5drift10create_runNtCs6nR6nErDO7j_13phf_generator6BucketNCINvMNtCse1nGBsou5OW_5alloc5sliceSB13_7sort_byNCNvMB15_NtB15_9Generator17try_generate_hash0E0EB15_, symObjAddr: 0x418, symBinAddr: 0x1000340E8, symSize: 0x3A8 }
  - { offset: 0x92FA0, size: 0x8, addend: 0x0, symName: __RINvNtNtNtNtCsfvfooZQ3Axs_4core5slice4sort6stable5drift16stable_quicksortNtCs6nR6nErDO7j_13phf_generator6BucketNCINvMNtCse1nGBsou5OW_5alloc5sliceSB19_7sort_byNCNvMB1b_NtB1b_9Generator17try_generate_hash0E0EB1b_, symObjAddr: 0x7C0, symBinAddr: 0x100034490, symSize: 0xB4 }
  - { offset: 0x931B5, size: 0x8, addend: 0x0, symName: __RINvNtNtNtNtCsfvfooZQ3Axs_4core5slice4sort6stable5drift4sortNtCs6nR6nErDO7j_13phf_generator6BucketNCINvMNtCse1nGBsou5OW_5alloc5sliceSBW_7sort_byNCNvMBY_NtBY_9Generator17try_generate_hash0E0EBY_, symObjAddr: 0x874, symBinAddr: 0x100034544, symSize: 0x520 }
  - { offset: 0x93941, size: 0x8, addend: 0x0, symName: __RINvNtNtNtNtCsfvfooZQ3Axs_4core5slice4sort6stable9quicksort16stable_partitionNtCs6nR6nErDO7j_13phf_generator6BucketNCINvB2_9quicksortB1d_NCINvMNtCse1nGBsou5OW_5alloc5sliceSB1d_7sort_byNCNvMB1f_NtB1f_9Generator17try_generate_hash0E0E0EB1f_, symObjAddr: 0x108C, symBinAddr: 0x100034D5C, symSize: 0x398 }
  - { offset: 0x93D6B, size: 0x8, addend: 0x0, symName: __RINvNtNtNtNtCsfvfooZQ3Axs_4core5slice4sort6stable9quicksort16stable_partitionNtCs6nR6nErDO7j_13phf_generator6BucketNCINvMNtCse1nGBsou5OW_5alloc5sliceSB1d_7sort_byNCNvMB1f_NtB1f_9Generator17try_generate_hash0E0EB1f_, symObjAddr: 0x1424, symBinAddr: 0x1000350F4, symSize: 0x398 }
  - { offset: 0x94195, size: 0x8, addend: 0x0, symName: __RINvNtNtNtNtCsfvfooZQ3Axs_4core5slice4sort6stable9quicksort9quicksortNtCs6nR6nErDO7j_13phf_generator6BucketNCINvMNtCse1nGBsou5OW_5alloc5sliceSB15_7sort_byNCNvMB17_NtB17_9Generator17try_generate_hash0E0EB17_, symObjAddr: 0x17BC, symBinAddr: 0x10003548C, symSize: 0x3B8 }
  - { offset: 0x9442D, size: 0x8, addend: 0x0, symName: __RNCINvNtNtNtNtCsfvfooZQ3Axs_4core5slice4sort6stable9quicksort9quicksortNtCs6nR6nErDO7j_13phf_generator6BucketNCINvMNtCse1nGBsou5OW_5alloc5sliceSB17_7sort_byNCNvMB19_NtB19_9Generator17try_generate_hash0E0E0B19_, symObjAddr: 0x1C90, symBinAddr: 0x100035844, symSize: 0x48 }
  - { offset: 0x944A3, size: 0x8, addend: 0x0, symName: __RNvXs0_NtNtNtNtCsfvfooZQ3Axs_4core5slice4sort6stable9quicksortNtCs6nR6nErDO7j_13phf_generator6BucketNtB5_8IsFreeze9is_freezeB10_, symObjAddr: 0x2354, symBinAddr: 0x100035C08, symSize: 0xC }
  - { offset: 0x9476D, size: 0x8, addend: 0x0, symName: __RNvMNtCsfvfooZQ3Axs_4core5sliceSNtCs6nR6nErDO7j_13phf_generator6Bucket22split_at_mut_uncheckedBw_, symObjAddr: 0x1CD8, symBinAddr: 0x10003588C, symSize: 0xF0 }
  - { offset: 0x9490D, size: 0x8, addend: 0x0, symName: __RNvMNtCsfvfooZQ3Axs_4core5sliceSNtCs6nR6nErDO7j_13phf_generator6Bucket7reverseBw_, symObjAddr: 0x1DC8, symBinAddr: 0x10003597C, symSize: 0x104 }
  - { offset: 0x94F35, size: 0x8, addend: 0x0, symName: __RNvXs2U_NtNtCsfvfooZQ3Axs_4core5slice4iterINtB6_4IterNtCs6nR6nErDO7j_13phf_generator6BucketENtNtNtNtBa_4iter6traits8iterator8Iterator4nextBR_, symObjAddr: 0x2360, symBinAddr: 0x100035C14, symSize: 0xBC }
  - { offset: 0x95083, size: 0x8, addend: 0x0, symName: __RNvXs2U_NtNtCsfvfooZQ3Axs_4core5slice4iterINtB6_4IterNtCs9tf12AD4ZJa_10phf_shared6HashesENtNtNtNtBa_4iter6traits8iterator8Iterator4nextCs6nR6nErDO7j_13phf_generator, symObjAddr: 0x241C, symBinAddr: 0x100035CD0, symSize: 0xBC }
  - { offset: 0x951D1, size: 0x8, addend: 0x0, symName: __RNvXs2U_NtNtCsfvfooZQ3Axs_4core5slice4iterINtB6_4IterTjjEENtNtNtNtBa_4iter6traits8iterator8Iterator4nextCs6nR6nErDO7j_13phf_generator, symObjAddr: 0x24D8, symBinAddr: 0x100035D8C, symSize: 0xBC }
  - { offset: 0x9531F, size: 0x8, addend: 0x0, symName: __RNvXs2U_NtNtCsfvfooZQ3Axs_4core5slice4iterINtB6_4IterjENtNtNtNtBa_4iter6traits8iterator8Iterator4nextCs6nR6nErDO7j_13phf_generator, symObjAddr: 0x2594, symBinAddr: 0x100035E48, symSize: 0xBC }
  - { offset: 0x95D4B, size: 0x8, addend: 0x0, symName: __RNvYINtNtNtCsfvfooZQ3Axs_4core5slice4iter4IterNtCs9tf12AD4ZJa_10phf_shared6HashesENtNtNtNtB9_4iter6traits8iterator8Iterator9enumerateCs6nR6nErDO7j_13phf_generator, symObjAddr: 0x2730, symBinAddr: 0x100035FE4, symSize: 0x28 }
  - { offset: 0x95DF5, size: 0x8, addend: 0x0, symName: __RINvMNtCse1nGBsou5OW_5alloc5sliceSNtCs6nR6nErDO7j_13phf_generator6Bucket7sort_byNCNvMBy_NtBy_9Generator17try_generate_hash0EBy_, symObjAddr: 0x0, symBinAddr: 0x100033D38, symSize: 0x48 }
  - { offset: 0x961AD, size: 0x8, addend: 0x0, symName: __RNCNvMCs6nR6nErDO7j_13phf_generatorNtB4_9Generator17try_generate_hash0B4_, symObjAddr: 0x31D4, symBinAddr: 0x100036A88, symSize: 0x78 }
  - { offset: 0x961F7, size: 0x8, addend: 0x0, symName: __RNCNvMCs6nR6nErDO7j_13phf_generatorNtB4_9Generator3new0B4_, symObjAddr: 0x29B4, symBinAddr: 0x100036268, symSize: 0x5C }
  - { offset: 0x962FB, size: 0x8, addend: 0x0, symName: __RINvMNtNtNtNtCsfvfooZQ3Axs_4core5slice4sort6stable5mergeINtB3_10MergeStateNtCs6nR6nErDO7j_13phf_generator6BucketE10merge_downNCINvMNtCse1nGBsou5OW_5alloc5sliceSB1a_7sort_byNCNvMB1c_NtB1c_9Generator17try_generate_hash0E0EB1c_, symObjAddr: 0x48, symBinAddr: 0x100033D80, symSize: 0x1D4 }
  - { offset: 0x96491, size: 0x8, addend: 0x0, symName: __RINvMNtNtNtNtCsfvfooZQ3Axs_4core5slice4sort6stable5mergeINtB3_10MergeStateNtCs6nR6nErDO7j_13phf_generator6BucketE8merge_upNCINvMNtCse1nGBsou5OW_5alloc5sliceSB1a_7sort_byNCNvMB1c_NtB1c_9Generator17try_generate_hash0E0EB1c_, symObjAddr: 0x21C, symBinAddr: 0x100033F54, symSize: 0x194 }
  - { offset: 0x96AE2, size: 0x8, addend: 0x0, symName: __RNvMNtNtNtNtCsfvfooZQ3Axs_4core5slice4sort6stable9quicksortINtB2_14PartitionStateNtCs6nR6nErDO7j_13phf_generator6BucketE13partition_oneB1j_, symObjAddr: 0x1ECC, symBinAddr: 0x100035A80, symSize: 0x130 }
  - { offset: 0x96CC7, size: 0x8, addend: 0x0, symName: __RNvMs4_NtNtCsfvfooZQ3Axs_4core5slice4iterINtB5_4IterNtCs9tf12AD4ZJa_10phf_shared6HashesE3newCs6nR6nErDO7j_13phf_generator, symObjAddr: 0x1FFC, symBinAddr: 0x100035BB0, symSize: 0x58 }
  - { offset: 0x971CE, size: 0x8, addend: 0x0, symName: __RNvMCs6nR6nErDO7j_13phf_generatorNtB2_9Generator3new, symObjAddr: 0x2758, symBinAddr: 0x10003600C, symSize: 0x25C }
  - { offset: 0x97290, size: 0x8, addend: 0x0, symName: __RNvMCs6nR6nErDO7j_13phf_generatorNtB2_9Generator17try_generate_hash, symObjAddr: 0x2A10, symBinAddr: 0x1000362C4, symSize: 0x7C4 }
  - { offset: 0x97490, size: 0x8, addend: 0x0, symName: __RINvMsi_NtCse1nGBsou5OW_5alloc3vecINtB6_3VecNtCs6nR6nErDO7j_13phf_generator6BucketE14extend_trustedINtNtNtNtCsfvfooZQ3Axs_4core4iter8adapters3map3MapINtNtNtB1I_3ops5range5RangejENCNvMBI_NtBI_9Generator3new0EEBI_, symObjAddr: 0x0, symBinAddr: 0x100036B00, symSize: 0x170 }
  - { offset: 0x98FC6, size: 0x8, addend: 0x0, symName: __RINvNtNtNtNtCsfvfooZQ3Axs_4core5slice4sort6shared9smallsort11insert_tailNtCs6nR6nErDO7j_13phf_generator6BucketNCINvMNtCse1nGBsou5OW_5alloc5sliceSB18_7sort_byNCNvMB1a_NtB1a_9Generator17try_generate_hash0E0EB1a_, symObjAddr: 0x1E4, symBinAddr: 0x100036CE4, symSize: 0x1C8 }
  - { offset: 0x99165, size: 0x8, addend: 0x0, symName: __RINvNtNtNtNtCsfvfooZQ3Axs_4core5slice4sort6shared9smallsort12sort4_stableNtCs6nR6nErDO7j_13phf_generator6BucketNCINvMNtCse1nGBsou5OW_5alloc5sliceSB19_7sort_byNCNvMB1b_NtB1b_9Generator17try_generate_hash0E0EB1b_, symObjAddr: 0x3AC, symBinAddr: 0x100036EAC, symSize: 0x488 }
  - { offset: 0x99735, size: 0x8, addend: 0x0, symName: __RINvNtNtNtNtCsfvfooZQ3Axs_4core5slice4sort6shared9smallsort19bidirectional_mergeNtCs6nR6nErDO7j_13phf_generator6BucketNCINvMNtCse1nGBsou5OW_5alloc5sliceSB1g_7sort_byNCNvMB1i_NtB1i_9Generator17try_generate_hash0E0EB1i_, symObjAddr: 0x834, symBinAddr: 0x100037334, symSize: 0x55C }
  - { offset: 0x99DF2, size: 0x8, addend: 0x0, symName: __RINvNtNtNtNtCsfvfooZQ3Axs_4core5slice4sort6shared9smallsort25insertion_sort_shift_leftNtCs6nR6nErDO7j_13phf_generator6BucketNCINvMNtCse1nGBsou5OW_5alloc5sliceSB1m_7sort_byNCNvMB1o_NtB1o_9Generator17try_generate_hash0E0EB1o_, symObjAddr: 0xD90, symBinAddr: 0x100037890, symSize: 0xC4 }
  - { offset: 0x99F2C, size: 0x8, addend: 0x0, symName: __RINvNtNtNtNtCsfvfooZQ3Axs_4core5slice4sort6shared9smallsort31small_sort_general_with_scratchNtCs6nR6nErDO7j_13phf_generator6BucketNCINvMNtCse1nGBsou5OW_5alloc5sliceSB1s_7sort_byNCNvMB1u_NtB1u_9Generator17try_generate_hash0E0EB1u_, symObjAddr: 0xE54, symBinAddr: 0x100037954, symSize: 0x480 }
  - { offset: 0x9A304, size: 0x8, addend: 0x0, symName: __RNvXs5_NtNtNtNtCsfvfooZQ3Axs_4core5slice4sort6shared9smallsortINtB5_10CopyOnDropNtCs6nR6nErDO7j_13phf_generator6BucketENtNtNtBd_3ops4drop4Drop4dropB1i_, symObjAddr: 0x2098, symBinAddr: 0x100038B98, symSize: 0x80 }
  - { offset: 0x9B7B2, size: 0x8, addend: 0x0, symName: __RINvNtCse1nGBsou5OW_5alloc3vec9from_elemINtNtCsfvfooZQ3Axs_4core6option6OptionjEECs6nR6nErDO7j_13phf_generator, symObjAddr: 0x170, symBinAddr: 0x100036C70, symSize: 0x28 }
  - { offset: 0x9B7F8, size: 0x8, addend: 0x0, symName: __RINvNtCse1nGBsou5OW_5alloc3vec9from_elemTmmEECs6nR6nErDO7j_13phf_generator, symObjAddr: 0x198, symBinAddr: 0x100036C98, symSize: 0x28 }
  - { offset: 0x9B83E, size: 0x8, addend: 0x0, symName: __RINvNtCse1nGBsou5OW_5alloc3vec9from_elemyECs6nR6nErDO7j_13phf_generator, symObjAddr: 0x1C0, symBinAddr: 0x100036CC0, symSize: 0x24 }
  - { offset: 0x9B889, size: 0x8, addend: 0x0, symName: __RINvXsd_NtCse1nGBsou5OW_5alloc3vecINtB6_3VecNtCs6nR6nErDO7j_13phf_generator6BucketEINtNtNtNtCsfvfooZQ3Axs_4core4iter6traits7collect12FromIteratorBG_E9from_iterINtNtNtB1q_8adapters3map3MapINtNtNtB1s_3ops5range5RangejENCNvMBI_NtBI_9Generator3new0EEBI_, symObjAddr: 0x12D4, symBinAddr: 0x100037DD4, symSize: 0x38 }
  - { offset: 0x9B8D4, size: 0x8, addend: 0x0, symName: __RNCINvMsi_NtCse1nGBsou5OW_5alloc3vecINtB8_3VecNtCs6nR6nErDO7j_13phf_generator6BucketE14extend_trustedINtNtNtNtCsfvfooZQ3Axs_4core4iter8adapters3map3MapINtNtNtB1K_3ops5range5RangejENCNvMBK_NtBK_9Generator3new0EE0BK_, symObjAddr: 0x130C, symBinAddr: 0x100037E0C, symSize: 0x3C }
  - { offset: 0x9BFC1, size: 0x8, addend: 0x0, symName: __RNvXNtNtCse1nGBsou5OW_5alloc3vec14spec_from_iterINtB4_3VecNtCs6nR6nErDO7j_13phf_generator6BucketEINtB2_12SpecFromIterBU_INtNtNtNtCsfvfooZQ3Axs_4core4iter8adapters3map3MapINtNtNtB23_3ops5range5RangejENCNvMBW_NtBW_9Generator3new0EE9from_iterBW_, symObjAddr: 0x2074, symBinAddr: 0x100038B74, symSize: 0x24 }
  - { offset: 0x9C006, size: 0x8, addend: 0x0, symName: __RNvXs6_NtCse1nGBsou5OW_5alloc3vecINtB5_3VecNtCs9tf12AD4ZJa_10phf_shared6HashesENtNtNtCsfvfooZQ3Axs_4core3ops5deref5Deref5derefCs6nR6nErDO7j_13phf_generator, symObjAddr: 0x2118, symBinAddr: 0x100038C18, symSize: 0x24 }
  - { offset: 0x9C16C, size: 0x8, addend: 0x0, symName: __RNvXs7_NtCse1nGBsou5OW_5alloc3vecINtB5_3VecNtCs6nR6nErDO7j_13phf_generator6BucketENtNtNtCsfvfooZQ3Axs_4core3ops5deref8DerefMut9deref_mutBH_, symObjAddr: 0x213C, symBinAddr: 0x100038C3C, symSize: 0x24 }
  - { offset: 0x9C277, size: 0x8, addend: 0x0, symName: __RNvXs_NtNtCse1nGBsou5OW_5alloc3vec11spec_extendINtB6_3VecNtCs6nR6nErDO7j_13phf_generator6BucketEINtB4_10SpecExtendBT_INtNtNtNtCsfvfooZQ3Axs_4core4iter8adapters3map3MapINtNtNtB20_3ops5range5RangejENCNvMBV_NtBV_9Generator3new0EE11spec_extendBV_, symObjAddr: 0x2274, symBinAddr: 0x100038D74, symSize: 0x2C }
  - { offset: 0x9C2D4, size: 0x8, addend: 0x0, symName: __RNvXs_NtNtCse1nGBsou5OW_5alloc3vec21spec_from_iter_nestedINtB6_3VecNtCs6nR6nErDO7j_13phf_generator6BucketEINtB4_18SpecFromIterNestedB13_INtNtNtNtCsfvfooZQ3Axs_4core4iter8adapters3map3MapINtNtNtB2j_3ops5range5RangejENCNvMB15_NtB15_9Generator3new0EE9from_iterB15_, symObjAddr: 0x22A0, symBinAddr: 0x100038DA0, symSize: 0x168 }
  - { offset: 0x9C3B1, size: 0x8, addend: 0x0, symName: __RNvXsb_NtCse1nGBsou5OW_5alloc3vecINtB5_3VecINtNtCsfvfooZQ3Axs_4core6option6OptionjEEINtNtNtBK_3ops5index5IndexjE5indexCs6nR6nErDO7j_13phf_generator, symObjAddr: 0x2408, symBinAddr: 0x100038F08, symSize: 0x84 }
  - { offset: 0x9C533, size: 0x8, addend: 0x0, symName: __RNvXsb_NtCse1nGBsou5OW_5alloc3vecINtB5_3VecNtCs9tf12AD4ZJa_10phf_shared6HashesEINtNtNtCsfvfooZQ3Axs_4core3ops5index5IndexjE5indexCs6nR6nErDO7j_13phf_generator, symObjAddr: 0x248C, symBinAddr: 0x100038F8C, symSize: 0x84 }
  - { offset: 0x9C6B5, size: 0x8, addend: 0x0, symName: __RNvXsb_NtCse1nGBsou5OW_5alloc3vecINtB5_3VecyEINtNtNtCsfvfooZQ3Axs_4core3ops5index5IndexjE5indexCs6nR6nErDO7j_13phf_generator, symObjAddr: 0x2510, symBinAddr: 0x100039010, symSize: 0x80 }
  - { offset: 0x9C83D, size: 0x8, addend: 0x0, symName: __RNvXsc_NtCse1nGBsou5OW_5alloc3vecINtB5_3VecINtNtCsfvfooZQ3Axs_4core6option6OptionjEEINtNtNtBK_3ops5index8IndexMutjE9index_mutCs6nR6nErDO7j_13phf_generator, symObjAddr: 0x2590, symBinAddr: 0x100039090, symSize: 0x84 }
  - { offset: 0x9C991, size: 0x8, addend: 0x0, symName: __RNvXsc_NtCse1nGBsou5OW_5alloc3vecINtB5_3VecNtCs6nR6nErDO7j_13phf_generator6BucketEINtNtNtCsfvfooZQ3Axs_4core3ops5index8IndexMutjE9index_mutBH_, symObjAddr: 0x2614, symBinAddr: 0x100039114, symSize: 0x84 }
  - { offset: 0x9CAE5, size: 0x8, addend: 0x0, symName: __RNvXsc_NtCse1nGBsou5OW_5alloc3vecINtB5_3VecTmmEEINtNtNtCsfvfooZQ3Axs_4core3ops5index8IndexMutjE9index_mutCs6nR6nErDO7j_13phf_generator, symObjAddr: 0x2698, symBinAddr: 0x100039198, symSize: 0x84 }
  - { offset: 0x9CC39, size: 0x8, addend: 0x0, symName: __RNvXsc_NtCse1nGBsou5OW_5alloc3vecINtB5_3VecyEINtNtNtCsfvfooZQ3Axs_4core3ops5index8IndexMutjE9index_mutCs6nR6nErDO7j_13phf_generator, symObjAddr: 0x271C, symBinAddr: 0x10003921C, symSize: 0x80 }
  - { offset: 0x9CD93, size: 0x8, addend: 0x0, symName: __RNvXsf_NtCse1nGBsou5OW_5alloc3vecRINtB5_3VecNtCs6nR6nErDO7j_13phf_generator6BucketENtNtNtNtCsfvfooZQ3Axs_4core4iter6traits7collect12IntoIterator9into_iterBI_, symObjAddr: 0x279C, symBinAddr: 0x10003929C, symSize: 0x9C }
  - { offset: 0x9CFEF, size: 0x8, addend: 0x0, symName: __RNvXsf_NtCse1nGBsou5OW_5alloc3vecRINtB5_3VecTjjEENtNtNtNtCsfvfooZQ3Axs_4core4iter6traits7collect12IntoIterator9into_iterCs6nR6nErDO7j_13phf_generator, symObjAddr: 0x2838, symBinAddr: 0x100039338, symSize: 0x9C }
  - { offset: 0x9D24B, size: 0x8, addend: 0x0, symName: __RNvXsf_NtCse1nGBsou5OW_5alloc3vecRINtB5_3VecjENtNtNtNtCsfvfooZQ3Axs_4core4iter6traits7collect12IntoIterator9into_iterCs6nR6nErDO7j_13phf_generator, symObjAddr: 0x28D4, symBinAddr: 0x1000393D4, symSize: 0x98 }
  - { offset: 0x9D4AD, size: 0x8, addend: 0x0, symName: __RNvXsn_NtCse1nGBsou5OW_5alloc3vecINtB5_3VecINtNtCsfvfooZQ3Axs_4core6option6OptionjEENtNtNtBK_3ops4drop4Drop4dropCs6nR6nErDO7j_13phf_generator, symObjAddr: 0x296C, symBinAddr: 0x10003946C, symSize: 0x24 }
  - { offset: 0x9D55D, size: 0x8, addend: 0x0, symName: __RNvXsn_NtCse1nGBsou5OW_5alloc3vecINtB5_3VecNtCs6nR6nErDO7j_13phf_generator6BucketENtNtNtCsfvfooZQ3Axs_4core3ops4drop4Drop4dropBH_, symObjAddr: 0x2990, symBinAddr: 0x100039490, symSize: 0x38 }
  - { offset: 0x9D60D, size: 0x8, addend: 0x0, symName: __RNvXsn_NtCse1nGBsou5OW_5alloc3vecINtB5_3VecNtCs9tf12AD4ZJa_10phf_shared6HashesENtNtNtCsfvfooZQ3Axs_4core3ops4drop4Drop4dropCs6nR6nErDO7j_13phf_generator, symObjAddr: 0x29C8, symBinAddr: 0x1000394C8, symSize: 0x24 }
  - { offset: 0x9D6BD, size: 0x8, addend: 0x0, symName: __RNvXsn_NtCse1nGBsou5OW_5alloc3vecINtB5_3VecTjjEENtNtNtCsfvfooZQ3Axs_4core3ops4drop4Drop4dropCs6nR6nErDO7j_13phf_generator, symObjAddr: 0x29EC, symBinAddr: 0x1000394EC, symSize: 0x24 }
  - { offset: 0x9D76D, size: 0x8, addend: 0x0, symName: __RNvXsn_NtCse1nGBsou5OW_5alloc3vecINtB5_3VecTmmEENtNtNtCsfvfooZQ3Axs_4core3ops4drop4Drop4dropCs6nR6nErDO7j_13phf_generator, symObjAddr: 0x2A10, symBinAddr: 0x100039510, symSize: 0x24 }
  - { offset: 0x9D81D, size: 0x8, addend: 0x0, symName: __RNvXsn_NtCse1nGBsou5OW_5alloc3vecINtB5_3VecjENtNtNtCsfvfooZQ3Axs_4core3ops4drop4Drop4dropCs6nR6nErDO7j_13phf_generator, symObjAddr: 0x2A34, symBinAddr: 0x100039534, symSize: 0x24 }
  - { offset: 0x9D8CD, size: 0x8, addend: 0x0, symName: __RNvXsn_NtCse1nGBsou5OW_5alloc3vecINtB5_3VecyENtNtNtCsfvfooZQ3Axs_4core3ops4drop4Drop4dropCs6nR6nErDO7j_13phf_generator, symObjAddr: 0x2A58, symBinAddr: 0x100039558, symSize: 0x24 }
  - { offset: 0x9D9A8, size: 0x8, addend: 0x0, symName: __RNvXs8_NtCse1nGBsou5OW_5alloc5sliceINtNtB7_3vec3VecNtCs6nR6nErDO7j_13phf_generator6BucketEINtNtNtNtCsfvfooZQ3Axs_4core5slice4sort6stable8BufGuardBN_E13with_capacityBP_, symObjAddr: 0x2160, symBinAddr: 0x100038C60, symSize: 0x4C }
  - { offset: 0x9DA49, size: 0x8, addend: 0x0, symName: __RNvXs8_NtCse1nGBsou5OW_5alloc5sliceINtNtB7_3vec3VecNtCs6nR6nErDO7j_13phf_generator6BucketEINtNtNtNtCsfvfooZQ3Axs_4core5slice4sort6stable8BufGuardBN_E19as_uninit_slice_mutBP_, symObjAddr: 0x21AC, symBinAddr: 0x100038CAC, symSize: 0xC8 }
  - { offset: 0x9DD09, size: 0x8, addend: 0x0, symName: __RINvMsi_NtCse1nGBsou5OW_5alloc3vecINtB6_3VecNtCs6nR6nErDO7j_13phf_generator6BucketE14extend_trustedINtNtNtNtCsfvfooZQ3Axs_4core4iter8adapters3map3MapINtNtNtB1I_3ops5range5RangejENCNvMBI_NtBI_9Generator3new0EEBI_, symObjAddr: 0x0, symBinAddr: 0x100036B00, symSize: 0x170 }
  - { offset: 0x9E080, size: 0x8, addend: 0x0, symName: __RNvMNtCse1nGBsou5OW_5alloc3vecINtB2_3VecNtCs9tf12AD4ZJa_10phf_shared6HashesE13with_capacityCs6nR6nErDO7j_13phf_generator, symObjAddr: 0x1348, symBinAddr: 0x100037E48, symSize: 0x48 }
  - { offset: 0x9E116, size: 0x8, addend: 0x0, symName: __RNvMNtCse1nGBsou5OW_5alloc3vecINtB2_3VecTjjEE3newCs6nR6nErDO7j_13phf_generator, symObjAddr: 0x1390, symBinAddr: 0x100037E90, symSize: 0x14 }
  - { offset: 0x9E133, size: 0x8, addend: 0x0, symName: __RNvMNtCse1nGBsou5OW_5alloc3vecINtB2_3VecjE3newCs6nR6nErDO7j_13phf_generator, symObjAddr: 0x13A4, symBinAddr: 0x100037EA4, symSize: 0x14 }
  - { offset: 0x9E266, size: 0x8, addend: 0x0, symName: __RNvMs2_NtCse1nGBsou5OW_5alloc3vecINtB5_3VecINtNtCsfvfooZQ3Axs_4core6option6OptionjEE11extend_withCs6nR6nErDO7j_13phf_generator, symObjAddr: 0x13B8, symBinAddr: 0x100037EB8, symSize: 0x22C }
  - { offset: 0x9E620, size: 0x8, addend: 0x0, symName: __RNvMs2_NtCse1nGBsou5OW_5alloc3vecINtB5_3VecTmmEE11extend_withCs6nR6nErDO7j_13phf_generator, symObjAddr: 0x15E4, symBinAddr: 0x1000380E4, symSize: 0x22C }
  - { offset: 0x9E9C7, size: 0x8, addend: 0x0, symName: __RNvMs2_NtCse1nGBsou5OW_5alloc3vecINtB5_3VecyE11extend_withCs6nR6nErDO7j_13phf_generator, symObjAddr: 0x1810, symBinAddr: 0x100038310, symSize: 0x210 }
  - { offset: 0x9ED99, size: 0x8, addend: 0x0, symName: __RNvMs_NtCse1nGBsou5OW_5alloc3vecINtB4_3VecINtNtCsfvfooZQ3Axs_4core6option6OptionjEE7reserveCs6nR6nErDO7j_13phf_generator, symObjAddr: 0x1A20, symBinAddr: 0x100038520, symSize: 0xC8 }
  - { offset: 0x9EF80, size: 0x8, addend: 0x0, symName: __RNvMs_NtCse1nGBsou5OW_5alloc3vecINtB4_3VecNtCs6nR6nErDO7j_13phf_generator6BucketE12as_mut_sliceBG_, symObjAddr: 0x1AE8, symBinAddr: 0x1000385E8, symSize: 0x64 }
  - { offset: 0x9F05C, size: 0x8, addend: 0x0, symName: __RNvMs_NtCse1nGBsou5OW_5alloc3vecINtB4_3VecNtCs6nR6nErDO7j_13phf_generator6BucketE3lenBG_, symObjAddr: 0x1B4C, symBinAddr: 0x10003864C, symSize: 0x18 }
  - { offset: 0x9F1A7, size: 0x8, addend: 0x0, symName: __RNvMs_NtCse1nGBsou5OW_5alloc3vecINtB4_3VecNtCs6nR6nErDO7j_13phf_generator6BucketE7reserveBG_, symObjAddr: 0x1B64, symBinAddr: 0x100038664, symSize: 0xC8 }
  - { offset: 0x9F31B, size: 0x8, addend: 0x0, symName: __RNvMs_NtCse1nGBsou5OW_5alloc3vecINtB4_3VecNtCs9tf12AD4ZJa_10phf_shared6HashesE3lenCs6nR6nErDO7j_13phf_generator, symObjAddr: 0x1C2C, symBinAddr: 0x10003872C, symSize: 0x18 }
  - { offset: 0x9F40E, size: 0x8, addend: 0x0, symName: __RNvMs_NtCse1nGBsou5OW_5alloc3vecINtB4_3VecNtCs9tf12AD4ZJa_10phf_shared6HashesE8as_sliceCs6nR6nErDO7j_13phf_generator, symObjAddr: 0x1C44, symBinAddr: 0x100038744, symSize: 0x64 }
  - { offset: 0x9F5DB, size: 0x8, addend: 0x0, symName: __RNvMs_NtCse1nGBsou5OW_5alloc3vecINtB4_3VecTjjEE4pushCs6nR6nErDO7j_13phf_generator, symObjAddr: 0x1CA8, symBinAddr: 0x1000387A8, symSize: 0xF0 }
  - { offset: 0x9F878, size: 0x8, addend: 0x0, symName: __RNvMs_NtCse1nGBsou5OW_5alloc3vecINtB4_3VecTjjEE5clearCs6nR6nErDO7j_13phf_generator, symObjAddr: 0x1D98, symBinAddr: 0x100038898, symSize: 0x78 }
  - { offset: 0x9FAD3, size: 0x8, addend: 0x0, symName: __RNvMs_NtCse1nGBsou5OW_5alloc3vecINtB4_3VecTmmEE7reserveCs6nR6nErDO7j_13phf_generator, symObjAddr: 0x1E10, symBinAddr: 0x100038910, symSize: 0xC8 }
  - { offset: 0x9FD4D, size: 0x8, addend: 0x0, symName: __RNvMs_NtCse1nGBsou5OW_5alloc3vecINtB4_3VecjE4pushCs6nR6nErDO7j_13phf_generator, symObjAddr: 0x1ED8, symBinAddr: 0x1000389D8, symSize: 0xE0 }
  - { offset: 0xA0015, size: 0x8, addend: 0x0, symName: __RNvMs_NtCse1nGBsou5OW_5alloc3vecINtB4_3VecyE7reserveCs6nR6nErDO7j_13phf_generator, symObjAddr: 0x1FB8, symBinAddr: 0x100038AB8, symSize: 0xBC }
  - { offset: 0xA11A0, size: 0x8, addend: 0x0, symName: __RINvNtCse1nGBsou5OW_5alloc5slice11stable_sortNtCs6nR6nErDO7j_13phf_generator6BucketNCINvMB2_SBH_7sort_byNCNvMBJ_NtBJ_9Generator17try_generate_hash0E0EBJ_, symObjAddr: 0x0, symBinAddr: 0x10003957C, symSize: 0xC8 }
  - { offset: 0xA173D, size: 0x8, addend: 0x0, symName: __RINvNtCsfvfooZQ3Axs_4core3ptr13drop_in_placeINtNtCse1nGBsou5OW_5alloc3vec3VecINtNtB4_6option6OptionjEEECs6nR6nErDO7j_13phf_generator, symObjAddr: 0x104, symBinAddr: 0x100039644, symSize: 0x5C }
  - { offset: 0xA176C, size: 0x8, addend: 0x0, symName: __RINvNtCsfvfooZQ3Axs_4core3ptr13drop_in_placeINtNtCse1nGBsou5OW_5alloc3vec3VecNtCs6nR6nErDO7j_13phf_generator6BucketEEB1f_, symObjAddr: 0x160, symBinAddr: 0x1000396A0, symSize: 0x5C }
  - { offset: 0xA179B, size: 0x8, addend: 0x0, symName: __RINvNtCsfvfooZQ3Axs_4core3ptr13drop_in_placeINtNtCse1nGBsou5OW_5alloc3vec3VecNtCs9tf12AD4ZJa_10phf_shared6HashesEECs6nR6nErDO7j_13phf_generator, symObjAddr: 0x1BC, symBinAddr: 0x1000396FC, symSize: 0x5C }
  - { offset: 0xA17CA, size: 0x8, addend: 0x0, symName: __RINvNtCsfvfooZQ3Axs_4core3ptr13drop_in_placeINtNtCse1nGBsou5OW_5alloc3vec3VecTjjEEECs6nR6nErDO7j_13phf_generator, symObjAddr: 0x218, symBinAddr: 0x100039758, symSize: 0x5C }
  - { offset: 0xA17F9, size: 0x8, addend: 0x0, symName: __RINvNtCsfvfooZQ3Axs_4core3ptr13drop_in_placeINtNtCse1nGBsou5OW_5alloc3vec3VecTmmEEECs6nR6nErDO7j_13phf_generator, symObjAddr: 0x274, symBinAddr: 0x1000397B4, symSize: 0x5C }
  - { offset: 0xA1828, size: 0x8, addend: 0x0, symName: __RINvNtCsfvfooZQ3Axs_4core3ptr13drop_in_placeINtNtCse1nGBsou5OW_5alloc3vec3VecjEECs6nR6nErDO7j_13phf_generator, symObjAddr: 0x2D0, symBinAddr: 0x100039810, symSize: 0x5C }
  - { offset: 0xA1857, size: 0x8, addend: 0x0, symName: __RINvNtCsfvfooZQ3Axs_4core3ptr13drop_in_placeINtNtCse1nGBsou5OW_5alloc3vec3VecyEECs6nR6nErDO7j_13phf_generator, symObjAddr: 0x32C, symBinAddr: 0x10003986C, symSize: 0x5C }
  - { offset: 0xA1886, size: 0x8, addend: 0x0, symName: __RINvNtCsfvfooZQ3Axs_4core3ptr13drop_in_placeINtNtCse1nGBsou5OW_5alloc7raw_vec6RawVecINtNtB4_6option6OptionjEEECs6nR6nErDO7j_13phf_generator, symObjAddr: 0x388, symBinAddr: 0x1000398C8, symSize: 0x24 }
  - { offset: 0xA18B5, size: 0x8, addend: 0x0, symName: __RINvNtCsfvfooZQ3Axs_4core3ptr13drop_in_placeINtNtCse1nGBsou5OW_5alloc7raw_vec6RawVecNtCs6nR6nErDO7j_13phf_generator6BucketEEB1m_, symObjAddr: 0x3AC, symBinAddr: 0x1000398EC, symSize: 0x24 }
  - { offset: 0xA18E4, size: 0x8, addend: 0x0, symName: __RINvNtCsfvfooZQ3Axs_4core3ptr13drop_in_placeINtNtCse1nGBsou5OW_5alloc7raw_vec6RawVecNtCs9tf12AD4ZJa_10phf_shared6HashesEECs6nR6nErDO7j_13phf_generator, symObjAddr: 0x3D0, symBinAddr: 0x100039910, symSize: 0x24 }
  - { offset: 0xA1913, size: 0x8, addend: 0x0, symName: __RINvNtCsfvfooZQ3Axs_4core3ptr13drop_in_placeINtNtCse1nGBsou5OW_5alloc7raw_vec6RawVecTjjEEECs6nR6nErDO7j_13phf_generator, symObjAddr: 0x3F4, symBinAddr: 0x100039934, symSize: 0x24 }
  - { offset: 0xA1942, size: 0x8, addend: 0x0, symName: __RINvNtCsfvfooZQ3Axs_4core3ptr13drop_in_placeINtNtCse1nGBsou5OW_5alloc7raw_vec6RawVecTmmEEECs6nR6nErDO7j_13phf_generator, symObjAddr: 0x418, symBinAddr: 0x100039958, symSize: 0x24 }
  - { offset: 0xA1971, size: 0x8, addend: 0x0, symName: __RINvNtCsfvfooZQ3Axs_4core3ptr13drop_in_placeINtNtCse1nGBsou5OW_5alloc7raw_vec6RawVecjEECs6nR6nErDO7j_13phf_generator, symObjAddr: 0x43C, symBinAddr: 0x10003997C, symSize: 0x24 }
  - { offset: 0xA19A0, size: 0x8, addend: 0x0, symName: __RINvNtCsfvfooZQ3Axs_4core3ptr13drop_in_placeINtNtCse1nGBsou5OW_5alloc7raw_vec6RawVecyEECs6nR6nErDO7j_13phf_generator, symObjAddr: 0x460, symBinAddr: 0x1000399A0, symSize: 0x24 }
  - { offset: 0xA19CF, size: 0x8, addend: 0x0, symName: __RINvNtCsfvfooZQ3Axs_4core3ptr13drop_in_placeINtNtNtB4_5array4iter8IntoIterjKj2_EECs6nR6nErDO7j_13phf_generator, symObjAddr: 0x484, symBinAddr: 0x1000399C4, symSize: 0x24 }
  - { offset: 0xA19FE, size: 0x8, addend: 0x0, symName: __RINvNtCsfvfooZQ3Axs_4core3ptr13drop_in_placeINtNtNtNtNtB4_5slice4sort6shared9smallsort10CopyOnDropNtCs6nR6nErDO7j_13phf_generator6BucketEEB1A_, symObjAddr: 0x4A8, symBinAddr: 0x1000399E8, symSize: 0x24 }
  - { offset: 0xA1A2D, size: 0x8, addend: 0x0, symName: __RINvNtCsfvfooZQ3Axs_4core3ptr13drop_in_placeINtNtNtNtNtB4_5slice4sort6stable5merge10MergeStateNtCs6nR6nErDO7j_13phf_generator6BucketEEB1w_, symObjAddr: 0x4CC, symBinAddr: 0x100039A0C, symSize: 0x24 }
  - { offset: 0xA1A5C, size: 0x8, addend: 0x0, symName: __RINvNtCsfvfooZQ3Axs_4core3ptr13drop_in_placeNCINvMsi_NtCse1nGBsou5OW_5alloc3vecINtBP_3VecNtCs6nR6nErDO7j_13phf_generator6BucketE14extend_trustedINtNtNtNtB4_4iter8adapters3map3MapINtNtNtB4_3ops5range5RangejENCNvMB1r_NtB1r_9Generator3new0EE0EB1r_, symObjAddr: 0x4F0, symBinAddr: 0x100039A30, symSize: 0x24 }
  - { offset: 0xA1A8B, size: 0x8, addend: 0x0, symName: __RINvNtCsfvfooZQ3Axs_4core3ptr13drop_in_placeNCINvNtNtNtB4_4iter8adapters3map8map_foldjNtCs6nR6nErDO7j_13phf_generator6BucketuNCNvMB1o_NtB1o_9Generator3new0NCINvNvNtNtNtBP_6traits8iterator8Iterator8for_each4callB1m_NCINvMsi_NtCse1nGBsou5OW_5alloc3vecINtB3z_3VecB1m_E14extend_trustedINtBL_3MapINtNtNtB4_3ops5range5RangejEB1Z_EE0E0E0EB1o_, symObjAddr: 0x514, symBinAddr: 0x100039A54, symSize: 0x24 }
  - { offset: 0xA1ABA, size: 0x8, addend: 0x0, symName: __RINvNtCsfvfooZQ3Axs_4core3ptr13drop_in_placeNCINvNvNtNtNtNtB4_4iter6traits8iterator8Iterator8for_each4callNtCs6nR6nErDO7j_13phf_generator6BucketNCINvMsi_NtCse1nGBsou5OW_5alloc3vecINtB2r_3VecB1G_E14extend_trustedINtNtNtBT_8adapters3map3MapINtNtNtB4_3ops5range5RangejENCNvMB1I_NtB1I_9Generator3new0EE0E0EB1I_, symObjAddr: 0x538, symBinAddr: 0x100039A78, symSize: 0x24 }
  - { offset: 0xA1AE9, size: 0x8, addend: 0x0, symName: __RINvNtCsfvfooZQ3Axs_4core3ptr13drop_in_placeNtCs6nR6nErDO7j_13phf_generator6BucketEBI_, symObjAddr: 0x55C, symBinAddr: 0x100039A9C, symSize: 0x24 }
  - { offset: 0xA1B18, size: 0x8, addend: 0x0, symName: __RINvNtCsfvfooZQ3Axs_4core3ptr13drop_in_placeNtNtNtCse1nGBsou5OW_5alloc3vec15set_len_on_drop12SetLenOnDropECs6nR6nErDO7j_13phf_generator, symObjAddr: 0x580, symBinAddr: 0x100039AC0, symSize: 0x24 }
  - { offset: 0xA1B47, size: 0x8, addend: 0x0, symName: __RINvNtCsfvfooZQ3Axs_4core3ptr13drop_in_placeSNtCs6nR6nErDO7j_13phf_generator6BucketEBJ_, symObjAddr: 0x5A4, symBinAddr: 0x100039AE4, symSize: 0xB4 }
  - { offset: 0xA1C3C, size: 0x8, addend: 0x0, symName: __RNvNvMNtNtCsfvfooZQ3Axs_4core3ptr9const_ptrPp7sub_ptr18precondition_checkCs6nR6nErDO7j_13phf_generator, symObjAddr: 0x1BC8, symBinAddr: 0x10003B104, symSize: 0x40 }
  - { offset: 0xA1F33, size: 0x8, addend: 0x0, symName: __RNvXsV_NtNtCsfvfooZQ3Axs_4core3cmp5implsjNtB7_3Ord3cmpCs6nR6nErDO7j_13phf_generator, symObjAddr: 0x2DD8, symBinAddr: 0x10003C314, symSize: 0x38 }
  - { offset: 0xA1F77, size: 0x8, addend: 0x0, symName: __RNvYjNtNtCsfvfooZQ3Axs_4core3cmp3Ord3maxCs6nR6nErDO7j_13phf_generator, symObjAddr: 0x2FDC, symBinAddr: 0x10003C518, symSize: 0x80 }
  - { offset: 0xA20A4, size: 0x8, addend: 0x0, symName: __RINvNtNtNtCsfvfooZQ3Axs_4core5slice4sort6stable14driftsort_mainNtCs6nR6nErDO7j_13phf_generator6BucketNCINvMNtCse1nGBsou5OW_5alloc5sliceSBZ_7sort_byNCNvMB11_NtB11_9Generator17try_generate_hash0E0INtNtB1J_3vec3VecBZ_EEB11_, symObjAddr: 0x658, symBinAddr: 0x100039B98, symSize: 0x2AC }
  - { offset: 0xA2369, size: 0x8, addend: 0x0, symName: __RINvNtNtNtNtCsfvfooZQ3Axs_4core5slice4sort6shared5pivot11median3_recNtCs6nR6nErDO7j_13phf_generator6BucketNCINvMNtCse1nGBsou5OW_5alloc5sliceSB14_7sort_byNCNvMB16_NtB16_9Generator17try_generate_hash0E0EB16_, symObjAddr: 0x904, symBinAddr: 0x100039E44, symSize: 0x1CC }
  - { offset: 0xA2563, size: 0x8, addend: 0x0, symName: __RINvNtNtNtNtCsfvfooZQ3Axs_4core5slice4sort6shared5pivot12choose_pivotNtCs6nR6nErDO7j_13phf_generator6BucketNCINvMNtCse1nGBsou5OW_5alloc5sliceSB15_7sort_byNCNvMB17_NtB17_9Generator17try_generate_hash0E0EB17_, symObjAddr: 0xAD0, symBinAddr: 0x10003A010, symSize: 0x1F8 }
  - { offset: 0xA2867, size: 0x8, addend: 0x0, symName: __RINvNvMNtCsfvfooZQ3Axs_4core5sliceSp7reverse7revswapNtCs6nR6nErDO7j_13phf_generator6BucketEBQ_, symObjAddr: 0xCC8, symBinAddr: 0x10003A208, symSize: 0x280 }
  - { offset: 0xA29D7, size: 0x8, addend: 0x0, symName: __RNvMNtCsfvfooZQ3Axs_4core5sliceSNtCs9tf12AD4ZJa_10phf_shared6Hashes4iterCs6nR6nErDO7j_13phf_generator, symObjAddr: 0x17E0, symBinAddr: 0x10003AD20, symSize: 0x28 }
  - { offset: 0xA2A76, size: 0x8, addend: 0x0, symName: __RNvNvMNtCsfvfooZQ3Axs_4core5sliceSp22split_at_mut_unchecked18precondition_checkCs6nR6nErDO7j_13phf_generator, symObjAddr: 0x1B88, symBinAddr: 0x10003B0C4, symSize: 0x40 }
  - { offset: 0xA2B24, size: 0x8, addend: 0x0, symName: __RNvNvNtNtCsfvfooZQ3Axs_4core5slice3raw14from_raw_parts18precondition_checkCs6nR6nErDO7j_13phf_generator, symObjAddr: 0x2040, symBinAddr: 0x10003B57C, symSize: 0x168 }
  - { offset: 0xA2C6A, size: 0x8, addend: 0x0, symName: __RNvNvNtNtCsfvfooZQ3Axs_4core5slice3raw18from_raw_parts_mut18precondition_checkCs6nR6nErDO7j_13phf_generator, symObjAddr: 0x21A8, symBinAddr: 0x10003B6E4, symSize: 0x168 }
  - { offset: 0xA2DEE, size: 0x8, addend: 0x0, symName: __RNvNvXs1_NtNtCsfvfooZQ3Axs_4core5slice5indexNtNtNtBb_3ops11index_range10IndexRangeINtB7_10SliceIndexSpE17get_unchecked_mut18precondition_checkCs6nR6nErDO7j_13phf_generator, symObjAddr: 0x2350, symBinAddr: 0x10003B88C, symSize: 0x40 }
  - { offset: 0xA2E85, size: 0x8, addend: 0x0, symName: __RNvNvXs0_NtNtCsfvfooZQ3Axs_4core5slice5indexjINtB7_10SliceIndexSpE13get_unchecked18precondition_checkCs6nR6nErDO7j_13phf_generator, symObjAddr: 0x2310, symBinAddr: 0x10003B84C, symSize: 0x40 }
  - { offset: 0xA2EEC, size: 0x8, addend: 0x0, symName: __RNvXs0_NtNtCsfvfooZQ3Axs_4core5slice5indexjINtB5_10SliceIndexSINtNtB9_6option6OptionjEE5indexCs6nR6nErDO7j_13phf_generator, symObjAddr: 0x2570, symBinAddr: 0x10003BAAC, symSize: 0x5C }
  - { offset: 0xA2F32, size: 0x8, addend: 0x0, symName: __RNvXs0_NtNtCsfvfooZQ3Axs_4core5slice5indexjINtB5_10SliceIndexSINtNtB9_6option6OptionjEE9index_mutCs6nR6nErDO7j_13phf_generator, symObjAddr: 0x25CC, symBinAddr: 0x10003BB08, symSize: 0x5C }
  - { offset: 0xA2F78, size: 0x8, addend: 0x0, symName: __RNvXs0_NtNtCsfvfooZQ3Axs_4core5slice5indexjINtB5_10SliceIndexSNtCs6nR6nErDO7j_13phf_generator6BucketE9index_mutB10_, symObjAddr: 0x2628, symBinAddr: 0x10003BB64, symSize: 0x5C }
  - { offset: 0xA2FBE, size: 0x8, addend: 0x0, symName: __RNvXs0_NtNtCsfvfooZQ3Axs_4core5slice5indexjINtB5_10SliceIndexSNtCs9tf12AD4ZJa_10phf_shared6HashesE5indexCs6nR6nErDO7j_13phf_generator, symObjAddr: 0x2684, symBinAddr: 0x10003BBC0, symSize: 0x64 }
  - { offset: 0xA3004, size: 0x8, addend: 0x0, symName: __RNvXs0_NtNtCsfvfooZQ3Axs_4core5slice5indexjINtB5_10SliceIndexSTmmEE9index_mutCs6nR6nErDO7j_13phf_generator, symObjAddr: 0x26E8, symBinAddr: 0x10003BC24, symSize: 0x5C }
  - { offset: 0xA304A, size: 0x8, addend: 0x0, symName: __RNvXs0_NtNtCsfvfooZQ3Axs_4core5slice5indexjINtB5_10SliceIndexSyE5indexCs6nR6nErDO7j_13phf_generator, symObjAddr: 0x2744, symBinAddr: 0x10003BC80, symSize: 0x5C }
  - { offset: 0xA3090, size: 0x8, addend: 0x0, symName: __RNvXs0_NtNtCsfvfooZQ3Axs_4core5slice5indexjINtB5_10SliceIndexSyE9index_mutCs6nR6nErDO7j_13phf_generator, symObjAddr: 0x27A0, symBinAddr: 0x10003BCDC, symSize: 0x5C }
  - { offset: 0xA30E1, size: 0x8, addend: 0x0, symName: __RNvNvXs2_NtNtCsfvfooZQ3Axs_4core5slice5indexINtNtNtBb_3ops5range5RangejEINtB7_10SliceIndexSpE17get_unchecked_mut18precondition_checkCs6nR6nErDO7j_13phf_generator, symObjAddr: 0x2390, symBinAddr: 0x10003B8CC, symSize: 0x60 }
  - { offset: 0xA3126, size: 0x8, addend: 0x0, symName: __RNvXs2_NtNtCsfvfooZQ3Axs_4core5slice5indexINtNtNtB9_3ops5range5RangejEINtB5_10SliceIndexSNtCs6nR6nErDO7j_13phf_generator6BucketE9index_mutB1r_, symObjAddr: 0x29A8, symBinAddr: 0x10003BEE4, symSize: 0xC0 }
  - { offset: 0xA32ED, size: 0x8, addend: 0x0, symName: __RNvXs5_NtNtCsfvfooZQ3Axs_4core5slice5indexINtNtNtB9_3ops5range9RangeFromjEINtB5_10SliceIndexSNtCs6nR6nErDO7j_13phf_generator6BucketE9index_mutB1v_, symObjAddr: 0x2C34, symBinAddr: 0x10003C170, symSize: 0x98 }
  - { offset: 0xA35AF, size: 0x8, addend: 0x0, symName: __RNvNvMs9_NtCsfvfooZQ3Axs_4core3numj13unchecked_add18precondition_checkCs6nR6nErDO7j_13phf_generator, symObjAddr: 0x1C08, symBinAddr: 0x10003B144, symSize: 0x44 }
  - { offset: 0xA3806, size: 0x8, addend: 0x0, symName: __RNvXs3N_NtNtCsfvfooZQ3Axs_4core3num8wrappingINtB6_8WrappingmENtNtNtBa_3ops5arith3Add3addCs6nR6nErDO7j_13phf_generator, symObjAddr: 0x2A68, symBinAddr: 0x10003BFA4, symSize: 0x18 }
  - { offset: 0xA385A, size: 0x8, addend: 0x0, symName: __RNvXs3T_NtNtCsfvfooZQ3Axs_4core3num8wrappingINtB6_8WrappingmENtNtNtBa_3ops5arith3Mul3mulCs6nR6nErDO7j_13phf_generator, symObjAddr: 0x2A80, symBinAddr: 0x10003BFBC, symSize: 0x18 }
  - { offset: 0xA38F5, size: 0x8, addend: 0x0, symName: __RNvNvNtCsfvfooZQ3Axs_4core10intrinsics19copy_nonoverlapping18precondition_checkCs6nR6nErDO7j_13phf_generator, symObjAddr: 0x1C4C, symBinAddr: 0x10003B188, symSize: 0x2E4 }
  - { offset: 0xA3EF8, size: 0x8, addend: 0x0, symName: __RNvXs3_NtCsfvfooZQ3Axs_4core6optionINtB5_6OptionjENtNtB7_5clone5Clone5cloneCs6nR6nErDO7j_13phf_generator, symObjAddr: 0x2A98, symBinAddr: 0x10003BFD4, symSize: 0x5C }
  - { offset: 0xA41ED, size: 0x8, addend: 0x0, symName: __RNCINvNtNtNtCsfvfooZQ3Axs_4core4iter8adapters3map8map_foldjNtCs6nR6nErDO7j_13phf_generator6BucketuNCNvMBX_NtBX_9Generator3new0NCINvNvNtNtNtB8_6traits8iterator8Iterator8for_each4callBV_NCINvMsi_NtCse1nGBsou5OW_5alloc3vecINtB35_3VecBV_E14extend_trustedINtB4_3MapINtNtNtBa_3ops5range5RangejEB1y_EE0E0E0BX_, symObjAddr: 0x1664, symBinAddr: 0x10003ABA4, symSize: 0x88 }
  - { offset: 0xA4278, size: 0x8, addend: 0x0, symName: __RINvXs0_NtNtNtCsfvfooZQ3Axs_4core4iter8adapters3mapINtB6_3MapINtNtNtBc_3ops5range5RangejENCNvMCs6nR6nErDO7j_13phf_generatorNtB1u_9Generator3new0ENtNtNtBa_6traits8iterator8Iterator4folduNCINvNvB2j_8for_each4callNtB1u_6BucketNCINvMsi_NtCse1nGBsou5OW_5alloc3vecINtB3I_3VecB3m_E14extend_trustedBN_E0E0EB1u_, symObjAddr: 0xF48, symBinAddr: 0x10003A488, symSize: 0x3C }
  - { offset: 0xA4310, size: 0x8, addend: 0x0, symName: __RNvXs0_NtNtNtCsfvfooZQ3Axs_4core4iter8adapters3mapINtB5_3MapINtNtNtBb_3ops5range5RangejENCNvMCs6nR6nErDO7j_13phf_generatorNtB1t_9Generator3new0ENtNtNtB9_6traits8iterator8Iterator9size_hintB1t_, symObjAddr: 0x27FC, symBinAddr: 0x10003BD38, symSize: 0x24 }
  - { offset: 0xA4396, size: 0x8, addend: 0x0, symName: __RNvXs_NtNtNtCsfvfooZQ3Axs_4core4iter8adapters9enumerateINtB4_9EnumerateINtNtNtBa_5slice4iter4IterNtCs9tf12AD4ZJa_10phf_shared6HashesEENtNtNtB8_6traits8iterator8Iterator4nextCs6nR6nErDO7j_13phf_generator, symObjAddr: 0x2E30, symBinAddr: 0x10003C36C, symSize: 0xE0 }
  - { offset: 0xA44C9, size: 0x8, addend: 0x0, symName: __RNCINvNvNtNtNtNtCsfvfooZQ3Axs_4core4iter6traits8iterator8Iterator8for_each4callNtCs6nR6nErDO7j_13phf_generator6BucketNCINvMsi_NtCse1nGBsou5OW_5alloc3vecINtB20_3VecB1f_E14extend_trustedINtNtNtBc_8adapters3map3MapINtNtNtBe_3ops5range5RangejENCNvMB1h_NtB1h_9Generator3new0EE0E0B1h_, symObjAddr: 0x16EC, symBinAddr: 0x10003AC2C, symSize: 0x3C }
  - { offset: 0xA4554, size: 0x8, addend: 0x0, symName: __RINvYINtNtNtCsfvfooZQ3Axs_4core3ops5range5RangejENtNtNtNtBa_4iter6traits8iterator8Iterator3mapNtCs6nR6nErDO7j_13phf_generator6BucketNCNvMB1w_NtB1w_9Generator3new0EB1w_, symObjAddr: 0x14A4, symBinAddr: 0x10003A9E4, symSize: 0x14 }
  - { offset: 0xA45AC, size: 0x8, addend: 0x0, symName: __RINvYINtNtNtCsfvfooZQ3Axs_4core3ops5range5RangejENtNtNtNtBa_4iter6traits8iterator8Iterator4folduNCINvNtNtBR_8adapters3map8map_foldjNtCs6nR6nErDO7j_13phf_generator6BucketuNCNvMB27_NtB27_9Generator3new0NCINvNvBL_8for_each4callB25_NCINvMsi_NtCse1nGBsou5OW_5alloc3vecINtB3N_3VecB25_E14extend_trustedINtB1B_3MapB3_B2I_EE0E0E0EB27_, symObjAddr: 0x14B8, symBinAddr: 0x10003A9F8, symSize: 0xE0 }
  - { offset: 0xA463C, size: 0x8, addend: 0x0, symName: __RINvYINtNtNtNtCsfvfooZQ3Axs_4core4iter8adapters3map3MapINtNtNtBc_3ops5range5RangejENCNvMCs6nR6nErDO7j_13phf_generatorNtB1o_9Generator3new0ENtNtNtBa_6traits8iterator8Iterator7collectINtNtCse1nGBsou5OW_5alloc3vec3VecNtB1o_6BucketEEB1o_, symObjAddr: 0x1598, symBinAddr: 0x10003AAD8, symSize: 0x2C }
  - { offset: 0xA467C, size: 0x8, addend: 0x0, symName: __RINvYINtNtNtNtCsfvfooZQ3Axs_4core4iter8adapters3map3MapINtNtNtBc_3ops5range5RangejENCNvMCs6nR6nErDO7j_13phf_generatorNtB1o_9Generator3new0ENtNtNtBa_6traits8iterator8Iterator8for_eachNCINvMsi_NtCse1nGBsou5OW_5alloc3vecINtB33_3VecNtB1o_6BucketE14extend_trustedB3_E0EB1o_, symObjAddr: 0x15C4, symBinAddr: 0x10003AB04, symSize: 0x3C }
  - { offset: 0xA46F3, size: 0x8, addend: 0x0, symName: __RNvXNtNtNtCsfvfooZQ3Axs_4core4iter6traits7collectINtNtNtB6_8adapters3map3MapINtNtNtB8_3ops5range5RangejENCNvMCs6nR6nErDO7j_13phf_generatorNtB1J_9Generator3new0ENtB2_12IntoIterator9into_iterB1J_, symObjAddr: 0x23F0, symBinAddr: 0x10003B92C, symSize: 0x14 }
  - { offset: 0xA472A, size: 0x8, addend: 0x0, symName: __RNvXNtNtNtCsfvfooZQ3Axs_4core4iter6traits7collectINtNtNtB6_8adapters9enumerate9EnumerateINtNtNtB8_5slice4iter4IterNtCs9tf12AD4ZJa_10phf_shared6HashesEENtB2_12IntoIterator9into_iterCs6nR6nErDO7j_13phf_generator, symObjAddr: 0x2404, symBinAddr: 0x10003B940, symSize: 0x18 }
  - { offset: 0xA479F, size: 0x8, addend: 0x0, symName: __RNvXs3_NtNtCsfvfooZQ3Axs_4core4iter5rangeINtNtNtB9_3ops5range5RangejENtB5_17RangeIteratorImpl9spec_nextCs6nR6nErDO7j_13phf_generator, symObjAddr: 0x2AF4, symBinAddr: 0x10003C030, symSize: 0x94 }
  - { offset: 0xA4820, size: 0x8, addend: 0x0, symName: __RNvXs4_NtNtCsfvfooZQ3Axs_4core4iter5rangeINtNtNtB9_3ops5range5RangejENtNtNtB7_6traits8iterator8Iterator4nextCs6nR6nErDO7j_13phf_generator, symObjAddr: 0x2B88, symBinAddr: 0x10003C0C4, symSize: 0x24 }
  - { offset: 0xA4857, size: 0x8, addend: 0x0, symName: __RNvXs4_NtNtCsfvfooZQ3Axs_4core4iter5rangeINtNtNtB9_3ops5range5RangejENtNtNtB7_6traits8iterator8Iterator9size_hintCs6nR6nErDO7j_13phf_generator, symObjAddr: 0x2BAC, symBinAddr: 0x10003C0E8, symSize: 0x88 }
  - { offset: 0xA48BA, size: 0x8, addend: 0x0, symName: __RNvXsF_NtNtCsfvfooZQ3Axs_4core4iter5rangejNtB5_4Step13steps_betweenCs6nR6nErDO7j_13phf_generator, symObjAddr: 0x2CCC, symBinAddr: 0x10003C208, symSize: 0xA4 }
  - { offset: 0xA4915, size: 0x8, addend: 0x0, symName: __RNvXsF_NtNtCsfvfooZQ3Axs_4core4iter5rangejNtB5_4Step17forward_uncheckedCs6nR6nErDO7j_13phf_generator, symObjAddr: 0x2D70, symBinAddr: 0x10003C2AC, symSize: 0x48 }
  - { offset: 0xA4A14, size: 0x8, addend: 0x0, symName: __RNvNvNtCsfvfooZQ3Axs_4core4hint16assert_unchecked18precondition_checkCs6nR6nErDO7j_13phf_generator, symObjAddr: 0x1F30, symBinAddr: 0x10003B46C, symSize: 0x38 }
  - { offset: 0xA4C6F, size: 0x8, addend: 0x0, symName: __RNvXs0_NtNtCsfvfooZQ3Axs_4core5array4iterINtB5_8IntoIterjKj2_ENtNtNtNtB9_4iter6traits8iterator8Iterator4nextCs6nR6nErDO7j_13phf_generator, symObjAddr: 0x241C, symBinAddr: 0x10003B958, symSize: 0x154 }
  - { offset: 0xA4E9F, size: 0x8, addend: 0x0, symName: __RNvXs2_NtNtCsfvfooZQ3Axs_4core5array4iterINtB5_8IntoIterjKj2_ENtNtNtB9_3ops4drop4Drop4dropCs6nR6nErDO7j_13phf_generator, symObjAddr: 0x2984, symBinAddr: 0x10003BEC0, symSize: 0x24 }
  - { offset: 0xA4FF8, size: 0x8, addend: 0x0, symName: __RNvNvNtCsfvfooZQ3Axs_4core9ub_checks23maybe_is_nonoverlapping7runtimeCs6nR6nErDO7j_13phf_generator, symObjAddr: 0x1F68, symBinAddr: 0x10003B4A4, symSize: 0xD8 }
  - { offset: 0xA52A5, size: 0x8, addend: 0x0, symName: __RNvYTmmENtNtCsfvfooZQ3Axs_4core5clone5Clone5cloneCs6nR6nErDO7j_13phf_generator, symObjAddr: 0x2FB0, symBinAddr: 0x10003C4EC, symSize: 0x2C }
  - { offset: 0xA5411, size: 0x8, addend: 0x0, symName: __RNvXs_NtNtCse1nGBsou5OW_5alloc3vec15set_len_on_dropNtB4_12SetLenOnDropNtNtNtCsfvfooZQ3Axs_4core3ops4drop4Drop4dropCs6nR6nErDO7j_13phf_generator, symObjAddr: 0x2E10, symBinAddr: 0x10003C34C, symSize: 0x20 }
  - { offset: 0xA54AA, size: 0x8, addend: 0x0, symName: __RINvXs_NtNtCse1nGBsou5OW_5alloc3vec14spec_from_elemINtNtCsfvfooZQ3Axs_4core6option6OptionjENtB5_12SpecFromElem9from_elemNtNtB9_5alloc6GlobalECs6nR6nErDO7j_13phf_generator, symObjAddr: 0xF84, symBinAddr: 0x10003A4C4, symSize: 0x1BC }
  - { offset: 0xA55BF, size: 0x8, addend: 0x0, symName: __RINvXs_NtNtCse1nGBsou5OW_5alloc3vec14spec_from_elemTmmENtB5_12SpecFromElem9from_elemNtNtB9_5alloc6GlobalECs6nR6nErDO7j_13phf_generator, symObjAddr: 0x1140, symBinAddr: 0x10003A680, symSize: 0x1BC }
  - { offset: 0xA56D3, size: 0x8, addend: 0x0, symName: __RINvXs_NtNtCse1nGBsou5OW_5alloc3vec14spec_from_elemyNtB5_12SpecFromElem9from_elemNtNtB9_5alloc6GlobalECs6nR6nErDO7j_13phf_generator, symObjAddr: 0x12FC, symBinAddr: 0x10003A83C, symSize: 0x1A8 }
  - { offset: 0xA58BD, size: 0x8, addend: 0x0, symName: __RNvXsN_NtNtCse1nGBsou5OW_5alloc3vec7is_zeroINtNtCsfvfooZQ3Axs_4core6option6OptionjENtB5_6IsZero7is_zeroCs6nR6nErDO7j_13phf_generator, symObjAddr: 0x2DB8, symBinAddr: 0x10003C2F4, symSize: 0x20 }
  - { offset: 0xA5940, size: 0x8, addend: 0x0, symName: __RNvXsb_NtNtCse1nGBsou5OW_5alloc3vec7is_zeromNtB5_6IsZero7is_zeroCs6nR6nErDO7j_13phf_generator, symObjAddr: 0x2F10, symBinAddr: 0x10003C44C, symSize: 0x20 }
  - { offset: 0xA599C, size: 0x8, addend: 0x0, symName: __RNvXsc_NtNtCse1nGBsou5OW_5alloc3vec7is_zeroyNtB5_6IsZero7is_zeroCs6nR6nErDO7j_13phf_generator, symObjAddr: 0x2F30, symBinAddr: 0x10003C46C, symSize: 0x20 }
  - { offset: 0xA59E2, size: 0x8, addend: 0x0, symName: __RNvXsp_NtNtCse1nGBsou5OW_5alloc3vec7is_zeroTmmENtB5_6IsZero7is_zeroCs6nR6nErDO7j_13phf_generator, symObjAddr: 0x2F50, symBinAddr: 0x10003C48C, symSize: 0x60 }
  - { offset: 0xA5E78, size: 0x8, addend: 0x0, symName: __RNvXs1_NtCse1nGBsou5OW_5alloc7raw_vecINtB5_6RawVecINtNtCsfvfooZQ3Axs_4core6option6OptionjEENtNtNtBR_3ops4drop4Drop4dropCs6nR6nErDO7j_13phf_generator, symObjAddr: 0x2820, symBinAddr: 0x10003BD5C, symSize: 0x34 }
  - { offset: 0xA5EB4, size: 0x8, addend: 0x0, symName: __RNvXs1_NtCse1nGBsou5OW_5alloc7raw_vecINtB5_6RawVecNtCs6nR6nErDO7j_13phf_generator6BucketENtNtNtCsfvfooZQ3Axs_4core3ops4drop4Drop4dropBO_, symObjAddr: 0x2854, symBinAddr: 0x10003BD90, symSize: 0x34 }
  - { offset: 0xA5EF0, size: 0x8, addend: 0x0, symName: __RNvXs1_NtCse1nGBsou5OW_5alloc7raw_vecINtB5_6RawVecNtCs9tf12AD4ZJa_10phf_shared6HashesENtNtNtCsfvfooZQ3Axs_4core3ops4drop4Drop4dropCs6nR6nErDO7j_13phf_generator, symObjAddr: 0x2888, symBinAddr: 0x10003BDC4, symSize: 0x34 }
  - { offset: 0xA5F2C, size: 0x8, addend: 0x0, symName: __RNvXs1_NtCse1nGBsou5OW_5alloc7raw_vecINtB5_6RawVecTjjEENtNtNtCsfvfooZQ3Axs_4core3ops4drop4Drop4dropCs6nR6nErDO7j_13phf_generator, symObjAddr: 0x28BC, symBinAddr: 0x10003BDF8, symSize: 0x34 }
  - { offset: 0xA5F68, size: 0x8, addend: 0x0, symName: __RNvXs1_NtCse1nGBsou5OW_5alloc7raw_vecINtB5_6RawVecTmmEENtNtNtCsfvfooZQ3Axs_4core3ops4drop4Drop4dropCs6nR6nErDO7j_13phf_generator, symObjAddr: 0x28F0, symBinAddr: 0x10003BE2C, symSize: 0x34 }
  - { offset: 0xA5FA4, size: 0x8, addend: 0x0, symName: __RNvXs1_NtCse1nGBsou5OW_5alloc7raw_vecINtB5_6RawVecjENtNtNtCsfvfooZQ3Axs_4core3ops4drop4Drop4dropCs6nR6nErDO7j_13phf_generator, symObjAddr: 0x2924, symBinAddr: 0x10003BE60, symSize: 0x30 }
  - { offset: 0xA5FE0, size: 0x8, addend: 0x0, symName: __RNvXs1_NtCse1nGBsou5OW_5alloc7raw_vecINtB5_6RawVecyENtNtNtCsfvfooZQ3Axs_4core3ops4drop4Drop4dropCs6nR6nErDO7j_13phf_generator, symObjAddr: 0x2954, symBinAddr: 0x10003BE90, symSize: 0x30 }
  - { offset: 0xA6073, size: 0x8, addend: 0x0, symName: __RNCINvMNtCse1nGBsou5OW_5alloc5sliceSNtCs6nR6nErDO7j_13phf_generator6Bucket7sort_byNCNvMBA_NtBA_9Generator17try_generate_hash0E0BA_, symObjAddr: 0x1600, symBinAddr: 0x10003AB40, symSize: 0x64 }
  - { offset: 0xA60FC, size: 0x8, addend: 0x0, symName: __RINvNtCse1nGBsou5OW_5alloc5slice11stable_sortNtCs6nR6nErDO7j_13phf_generator6BucketNCINvMB2_SBH_7sort_byNCNvMBJ_NtBJ_9Generator17try_generate_hash0E0EBJ_, symObjAddr: 0x0, symBinAddr: 0x10003957C, symSize: 0xC8 }
  - { offset: 0xA6776, size: 0x8, addend: 0x0, symName: __RNvCs9tf12AD4ZJa_10phf_shared8displaceCs6nR6nErDO7j_13phf_generator, symObjAddr: 0x1728, symBinAddr: 0x10003AC68, symSize: 0x60 }
  - { offset: 0xA67FA, size: 0x8, addend: 0x0, symName: __RNvMNtCsfvfooZQ3Axs_4core3cmpNtB2_8Ordering7reverseCs6nR6nErDO7j_13phf_generator, symObjAddr: 0x1788, symBinAddr: 0x10003ACC8, symSize: 0x58 }
  - { offset: 0xA682A, size: 0x8, addend: 0x0, symName: __RNvMNtCsfvfooZQ3Axs_4core6optionINtB2_6OptionjE7is_someCs6nR6nErDO7j_13phf_generator, symObjAddr: 0x1808, symBinAddr: 0x10003AD48, symSize: 0x20 }
  - { offset: 0xA68CB, size: 0x8, addend: 0x0, symName: __RNvMNtNtNtCsfvfooZQ3Axs_4core5slice4sort6stableINtB2_14AlignedStorageNtCs6nR6nErDO7j_13phf_generator6BucketKj1000_E19as_uninit_slice_mutB17_, symObjAddr: 0x1828, symBinAddr: 0x10003AD68, symSize: 0x7C }
  - { offset: 0xA69E2, size: 0x8, addend: 0x0, symName: __RNvMs0_NtCse1nGBsou5OW_5alloc7raw_vecINtB5_6RawVecTjjEE8grow_oneCs6nR6nErDO7j_13phf_generator, symObjAddr: 0x18A4, symBinAddr: 0x10003ADE4, symSize: 0x94 }
  - { offset: 0xA6A90, size: 0x8, addend: 0x0, symName: __RNvMs0_NtCse1nGBsou5OW_5alloc7raw_vecINtB5_6RawVecjE8grow_oneCs6nR6nErDO7j_13phf_generator, symObjAddr: 0x1938, symBinAddr: 0x10003AE78, symSize: 0x90 }
  - { offset: 0xA6BA0, size: 0x8, addend: 0x0, symName: __RNvMs2_NtCse1nGBsou5OW_5alloc7raw_vecNtB5_11RawVecInner16with_capacity_inCs6nR6nErDO7j_13phf_generator, symObjAddr: 0x19C8, symBinAddr: 0x10003AF08, symSize: 0x10C }
  - { offset: 0xA6D9C, size: 0x8, addend: 0x0, symName: __RNvMs_NtNtCsfvfooZQ3Axs_4core5array4iterINtB4_8IntoIterjKj2_E12as_mut_sliceCs6nR6nErDO7j_13phf_generator, symObjAddr: 0x1AD4, symBinAddr: 0x10003B014, symSize: 0xB0 }
  - { offset: 0xA7AA6, size: 0x8, addend: 0x0, symName: __RNvXs1a_NtCsfvfooZQ3Axs_4core3fmtRmNtB6_5Debug3fmtCs9tf12AD4ZJa_10phf_shared, symObjAddr: 0x89C, symBinAddr: 0x10003C760, symSize: 0x30 }
  - { offset: 0xA7AF7, size: 0x8, addend: 0x0, symName: __RNvXs1m_NtNtCsfvfooZQ3Axs_4core3fmt3nummNtB8_5Debug3fmtCs9tf12AD4ZJa_10phf_shared, symObjAddr: 0xCEC, symBinAddr: 0x10003C790, symSize: 0x90 }
  - { offset: 0xA7F00, size: 0x8, addend: 0x0, symName: __RNvNvNtNtCsfvfooZQ3Axs_4core5slice3raw14from_raw_parts18precondition_checkCs9tf12AD4ZJa_10phf_shared, symObjAddr: 0x578, symBinAddr: 0x10003C5F8, symSize: 0x168 }
  - { offset: 0xA834C, size: 0x8, addend: 0x0, symName: __RNvXs6_NtCse1nGBsou5OW_5alloc3vecINtB5_3VechENtNtNtCsfvfooZQ3Axs_4core3ops5deref5Deref5derefCs9tf12AD4ZJa_10phf_shared, symObjAddr: 0xF2C, symBinAddr: 0x10003C820, symSize: 0x24 }
  - { offset: 0xA88E8, size: 0x8, addend: 0x0, symName: __RNvMs_NtCse1nGBsou5OW_5alloc3vecINtB4_3VechE8as_sliceCs9tf12AD4ZJa_10phf_shared, symObjAddr: 0x398, symBinAddr: 0x10003C598, symSize: 0x60 }
  - { offset: 0xA8B76, size: 0x8, addend: 0x0, symName: __RNvMs6_NtCsjeDdzWe0nlS_9siphasher6sip128INtB5_6HasherNtB5_11Sip13RoundsE13new_with_keysB7_, symObjAddr: 0x18EC, symBinAddr: 0x10003C844, symSize: 0x90 }
  - { offset: 0xA8BD4, size: 0x8, addend: 0x0, symName: __RNvMs6_NtCsjeDdzWe0nlS_9siphasher6sip128INtB5_6HasherNtB5_11Sip13RoundsE5resetB7_, symObjAddr: 0x1A0C, symBinAddr: 0x10003C8D4, symSize: 0x9C }
  - { offset: 0xA8C25, size: 0x8, addend: 0x0, symName: __RINvMNtCsfvfooZQ3Axs_4core3stre12strip_prefixReECs2cqEZUIJimJ_5quote, symObjAddr: 0x0, symBinAddr: 0x10003C970, symSize: 0x4C }
  - { offset: 0xA8EE6, size: 0x8, addend: 0x0, symName: __RINvXs7_NtCs3cP53eQoTwO_11proc_macro23impNtB6_11TokenStreamINtNtNtNtCsfvfooZQ3Axs_4core4iter6traits7collect6ExtendNtB8_9TokenTreeE6extendAB1O_j2_ECs2cqEZUIJimJ_5quote, symObjAddr: 0x11AC, symBinAddr: 0x10003D630, symSize: 0x164 }
  - { offset: 0xA8F7C, size: 0x8, addend: 0x0, symName: __RINvXs7_NtCs3cP53eQoTwO_11proc_macro23impNtB6_11TokenStreamINtNtNtNtCsfvfooZQ3Axs_4core4iter6traits7collect6ExtendNtB8_9TokenTreeE6extendINtNtNtB12_7sources4once4OnceB1O_EECs2cqEZUIJimJ_5quote, symObjAddr: 0x1310, symBinAddr: 0x10003D794, symSize: 0x154 }
  - { offset: 0xA9017, size: 0x8, addend: 0x0, symName: __RINvXs8_NtCs3cP53eQoTwO_11proc_macro23impNtB6_11TokenStreamINtNtNtNtCsfvfooZQ3Axs_4core4iter6traits7collect6ExtendBD_E6extendINtNtNtB12_8adapters3map3MapINtNtNtB12_7sources4once4OnceNtB8_11TokenStreamENCINvXs5_B8_B2U_IBW_B2U_E6extendB2r_E0EECs2cqEZUIJimJ_5quote, symObjAddr: 0x15C8, symBinAddr: 0x10003D8E8, symSize: 0x178 }
  - { offset: 0xA9087, size: 0x8, addend: 0x0, symName: __RNvXsA_NtCs3cP53eQoTwO_11proc_macro23impNtB5_19DeferredTokenStreamNtNtCsfvfooZQ3Axs_4core5clone5Clone5cloneCs2cqEZUIJimJ_5quote, symObjAddr: 0x3F90, symBinAddr: 0x10003F3D4, symSize: 0x90 }
  - { offset: 0xA90B9, size: 0x8, addend: 0x0, symName: __RNvXsF_NtCs3cP53eQoTwO_11proc_macro23impNtB5_5IdentNtNtCsfvfooZQ3Axs_4core5clone5Clone5cloneCs2cqEZUIJimJ_5quote, symObjAddr: 0x40B4, symBinAddr: 0x10003F464, symSize: 0x9C }
  - { offset: 0xA9129, size: 0x8, addend: 0x0, symName: __RNvXsz_NtCs3cP53eQoTwO_11proc_macro23impNtB5_11TokenStreamNtNtCsfvfooZQ3Axs_4core5clone5Clone5cloneCs2cqEZUIJimJ_5quote, symObjAddr: 0x51AC, symBinAddr: 0x100040100, symSize: 0x98 }
  - { offset: 0xA9295, size: 0x8, addend: 0x0, symName: __RNvXs1_NtCs3cP53eQoTwO_11proc_macro26markerNtB5_19ProcMacroAutoTraitsNtNtCsfvfooZQ3Axs_4core5clone5Clone5cloneCs2cqEZUIJimJ_5quote, symObjAddr: 0x3CD8, symBinAddr: 0x10003F1DC, symSize: 0x10 }
  - { offset: 0xA9538, size: 0x8, addend: 0x0, symName: __RNCINvXs5_Cs3cP53eQoTwO_11proc_macro2NtB8_11TokenStreamINtNtNtNtCsfvfooZQ3Axs_4core4iter6traits7collect6ExtendBz_E6extendINtNtNtBY_7sources4once4OnceBz_EE0Cs2cqEZUIJimJ_5quote, symObjAddr: 0x28AC, symBinAddr: 0x10003E130, symSize: 0x30 }
  - { offset: 0xA957B, size: 0x8, addend: 0x0, symName: __RINvXs5_Cs3cP53eQoTwO_11proc_macro2NtB6_11TokenStreamINtNtNtNtCsfvfooZQ3Axs_4core4iter6traits7collect6ExtendBx_E6extendINtNtNtBW_7sources4once4OnceBx_EECs2cqEZUIJimJ_5quote, symObjAddr: 0xF8C, symBinAddr: 0x10003D5D0, symSize: 0x60 }
  - { offset: 0xA95C4, size: 0x8, addend: 0x0, symName: __RINvXs4_Cs3cP53eQoTwO_11proc_macro2NtB6_11TokenStreamINtNtNtNtCsfvfooZQ3Axs_4core4iter6traits7collect6ExtendNtB6_9TokenTreeE6extendAB1I_j2_ECs2cqEZUIJimJ_5quote, symObjAddr: 0xEF0, symBinAddr: 0x10003D568, symSize: 0x34 }
  - { offset: 0xA9607, size: 0x8, addend: 0x0, symName: __RINvXs4_Cs3cP53eQoTwO_11proc_macro2NtB6_11TokenStreamINtNtNtNtCsfvfooZQ3Axs_4core4iter6traits7collect6ExtendNtB6_9TokenTreeE6extendINtNtNtBW_7sources4once4OnceB1I_EECs2cqEZUIJimJ_5quote, symObjAddr: 0xF24, symBinAddr: 0x10003D59C, symSize: 0x34 }
  - { offset: 0xA9650, size: 0x8, addend: 0x0, symName: __RNvXsG_Cs3cP53eQoTwO_11proc_macro2NtB5_11TokenStreamNtNtCsfvfooZQ3Axs_4core5clone5Clone5cloneCs2cqEZUIJimJ_5quote, symObjAddr: 0x4150, symBinAddr: 0x10003F500, symSize: 0x78 }
  - { offset: 0xA9682, size: 0x8, addend: 0x0, symName: __RNvXsY_Cs3cP53eQoTwO_11proc_macro2NtB5_5IdentNtNtCsfvfooZQ3Axs_4core5clone5Clone5cloneCs2cqEZUIJimJ_5quote, symObjAddr: 0x44F0, symBinAddr: 0x10003F5DC, symSize: 0x78 }
  - { offset: 0xA9ADB, size: 0x8, addend: 0x0, symName: __RINvXsj_Cs9i5KxIbZ5ph_10proc_macroNtB6_11TokenStreamINtNtNtNtCsfvfooZQ3Axs_4core4iter6traits7collect6ExtendBw_E6extendINtNtNtBV_8adapters3map3MapIB1T_INtNtNtBV_7sources4once4OnceNtCs3cP53eQoTwO_11proc_macro211TokenStreamENCINvXs5_B2S_B2Q_IBP_B2Q_E6extendB2o_E0ENvMs_NtB2S_3impNtB4g_11TokenStream14unwrap_nightlyEECs2cqEZUIJimJ_5quote, symObjAddr: 0x1844, symBinAddr: 0x10003DA60, symSize: 0x108 }
  - { offset: 0xA9B4F, size: 0x8, addend: 0x0, symName: __RNCINvXsj_Cs9i5KxIbZ5ph_10proc_macroNtB8_11TokenStreamINtNtNtNtCsfvfooZQ3Axs_4core4iter6traits7collect6ExtendBy_E6extendINtNtNtBX_8adapters3map3MapIB1V_INtNtNtBX_7sources4once4OnceNtCs3cP53eQoTwO_11proc_macro211TokenStreamENCINvXs5_B2U_B2S_IBR_B2S_E6extendB2q_E0ENvMs_NtB2U_3impNtB4i_11TokenStream14unwrap_nightlyEE0Cs2cqEZUIJimJ_5quote, symObjAddr: 0x2904, symBinAddr: 0x10003E160, symSize: 0x2C }
  - { offset: 0xA9BAE, size: 0x8, addend: 0x0, symName: __RNvXs1f_Cs9i5KxIbZ5ph_10proc_macroNtB6_5IdentNtNtCsfvfooZQ3Axs_4core5clone5Clone5cloneCs2cqEZUIJimJ_5quote, symObjAddr: 0x3D9C, symBinAddr: 0x10003F26C, symSize: 0x40 }
  - { offset: 0xA9BE2, size: 0x8, addend: 0x0, symName: __RNvXsU_Cs9i5KxIbZ5ph_10proc_macroNtB5_11TokenStreamNtNtCsfvfooZQ3Axs_4core5clone5Clone5cloneCs2cqEZUIJimJ_5quote, symObjAddr: 0x448C, symBinAddr: 0x10003F578, symSize: 0x64 }
  - { offset: 0xAA16F, size: 0x8, addend: 0x0, symName: __RNvNvMNtNtCsfvfooZQ3Axs_4core3ptr9alignmentNtB4_9Alignment13new_unchecked18precondition_checkCs2cqEZUIJimJ_5quote, symObjAddr: 0x321C, symBinAddr: 0x10003E980, symSize: 0x50 }
  - { offset: 0xAA31F, size: 0x8, addend: 0x0, symName: __RINvNtCsfvfooZQ3Axs_4core3ptr13drop_in_placeANtCs3cP53eQoTwO_11proc_macro29TokenTreej2_ECs2cqEZUIJimJ_5quote, symObjAddr: 0x48C, symBinAddr: 0x10003CD50, symSize: 0xA4 }
  - { offset: 0xAA34E, size: 0x8, addend: 0x0, symName: __RINvNtCsfvfooZQ3Axs_4core3ptr13drop_in_placeINtNtB4_6option4ItemNtCs3cP53eQoTwO_11proc_macro211TokenStreamEECs2cqEZUIJimJ_5quote, symObjAddr: 0x530, symBinAddr: 0x10003CDF4, symSize: 0x24 }
  - { offset: 0xAA37D, size: 0x8, addend: 0x0, symName: __RINvNtCsfvfooZQ3Axs_4core3ptr13drop_in_placeINtNtB4_6option4ItemNtCs3cP53eQoTwO_11proc_macro29TokenTreeEECs2cqEZUIJimJ_5quote, symObjAddr: 0x554, symBinAddr: 0x10003CE18, symSize: 0x24 }
  - { offset: 0xAA3AC, size: 0x8, addend: 0x0, symName: __RINvNtCsfvfooZQ3Axs_4core3ptr13drop_in_placeINtNtB4_6option6OptionINtNtCs3cP53eQoTwO_11proc_macro25rcvec13RcVecIntoIterNtB17_9TokenTreeEEECs2cqEZUIJimJ_5quote, symObjAddr: 0x578, symBinAddr: 0x10003CE3C, symSize: 0x44 }
  - { offset: 0xAA3DB, size: 0x8, addend: 0x0, symName: __RINvNtCsfvfooZQ3Axs_4core3ptr13drop_in_placeINtNtB4_6option6OptionINtNtNtNtB4_4iter8adapters3map3MapIB13_INtNtNtB19_7sources4once4OnceNtCs3cP53eQoTwO_11proc_macro211TokenStreamENCINvXs5_B2a_B28_INtNtNtB19_6traits7collect6ExtendB28_E6extendB1F_E0ENvMs_NtB2a_3impNtB41_11TokenStream13unwrap_stableEEECs2cqEZUIJimJ_5quote, symObjAddr: 0x5BC, symBinAddr: 0x10003CE80, symSize: 0x4C }
  - { offset: 0xAA40A, size: 0x8, addend: 0x0, symName: __RINvNtCsfvfooZQ3Axs_4core3ptr13drop_in_placeINtNtB4_6option6OptionNtCs3cP53eQoTwO_11proc_macro211TokenStreamEECs2cqEZUIJimJ_5quote, symObjAddr: 0x608, symBinAddr: 0x10003CECC, symSize: 0x48 }
  - { offset: 0xAA439, size: 0x8, addend: 0x0, symName: __RINvNtCsfvfooZQ3Axs_4core3ptr13drop_in_placeINtNtB4_6option8IntoIterNtCs3cP53eQoTwO_11proc_macro211TokenStreamEECs2cqEZUIJimJ_5quote, symObjAddr: 0x650, symBinAddr: 0x10003CF14, symSize: 0x24 }
  - { offset: 0xAA468, size: 0x8, addend: 0x0, symName: __RINvNtCsfvfooZQ3Axs_4core3ptr13drop_in_placeINtNtB4_6option8IntoIterNtCs3cP53eQoTwO_11proc_macro29TokenTreeEECs2cqEZUIJimJ_5quote, symObjAddr: 0x674, symBinAddr: 0x10003CF38, symSize: 0x24 }
  - { offset: 0xAA497, size: 0x8, addend: 0x0, symName: __RINvNtCsfvfooZQ3Axs_4core3ptr13drop_in_placeINtNtCse1nGBsou5OW_5alloc2rc14UniqueRcUninitINtNtBL_3vec3VecNtCs3cP53eQoTwO_11proc_macro29TokenTreeENtNtBL_5alloc6GlobalEECs2cqEZUIJimJ_5quote, symObjAddr: 0x698, symBinAddr: 0x10003CF5C, symSize: 0x24 }
  - { offset: 0xAA4C6, size: 0x8, addend: 0x0, symName: __RINvNtCsfvfooZQ3Axs_4core3ptr13drop_in_placeINtNtCse1nGBsou5OW_5alloc3vec3VecNtNtNtCs9i5KxIbZ5ph_10proc_macro6bridge6client11TokenStreamEECs2cqEZUIJimJ_5quote, symObjAddr: 0x6BC, symBinAddr: 0x10003CF80, symSize: 0x5C }
  - { offset: 0xAA4F5, size: 0x8, addend: 0x0, symName: __RINvNtCsfvfooZQ3Axs_4core3ptr13drop_in_placeINtNtCse1nGBsou5OW_5alloc7raw_vec6RawVecNtNtNtCs9i5KxIbZ5ph_10proc_macro6bridge6client11TokenStreamEECs2cqEZUIJimJ_5quote, symObjAddr: 0x718, symBinAddr: 0x10003CFDC, symSize: 0x24 }
  - { offset: 0xAA524, size: 0x8, addend: 0x0, symName: __RINvNtCsfvfooZQ3Axs_4core3ptr13drop_in_placeINtNtNtB4_5array4iter8IntoIterNtCs3cP53eQoTwO_11proc_macro29TokenTreeKj2_EECs2cqEZUIJimJ_5quote, symObjAddr: 0x73C, symBinAddr: 0x10003D000, symSize: 0x24 }
  - { offset: 0xAA553, size: 0x8, addend: 0x0, symName: __RINvNtCsfvfooZQ3Axs_4core3ptr13drop_in_placeINtNtNtNtB4_4iter7sources4once4OnceNtCs3cP53eQoTwO_11proc_macro211TokenStreamEECs2cqEZUIJimJ_5quote, symObjAddr: 0x760, symBinAddr: 0x10003D024, symSize: 0x24 }
  - { offset: 0xAA582, size: 0x8, addend: 0x0, symName: __RINvNtCsfvfooZQ3Axs_4core3ptr13drop_in_placeINtNtNtNtB4_4iter7sources4once4OnceNtCs3cP53eQoTwO_11proc_macro29TokenTreeEECs2cqEZUIJimJ_5quote, symObjAddr: 0x784, symBinAddr: 0x10003D048, symSize: 0x24 }
  - { offset: 0xAA5B1, size: 0x8, addend: 0x0, symName: __RINvNtCsfvfooZQ3Axs_4core3ptr13drop_in_placeINtNtNtNtB4_4iter8adapters3map3MapIBH_INtNtNtBN_7sources4once4OnceNtCs3cP53eQoTwO_11proc_macro211TokenStreamENCINvXs5_B1M_B1K_INtNtNtBN_6traits7collect6ExtendB1K_E6extendB1i_E0ENvMs_NtB1M_3impNtB3C_11TokenStream13unwrap_stableEECs2cqEZUIJimJ_5quote, symObjAddr: 0x7A8, symBinAddr: 0x10003D06C, symSize: 0x24 }
  - { offset: 0xAA5E0, size: 0x8, addend: 0x0, symName: __RINvNtCsfvfooZQ3Axs_4core3ptr13drop_in_placeINtNtNtNtB4_4iter8adapters3map3MapIBH_INtNtNtBN_7sources4once4OnceNtCs3cP53eQoTwO_11proc_macro211TokenStreamENCINvXs5_B1M_B1K_INtNtNtBN_6traits7collect6ExtendB1K_E6extendB1i_E0ENvMs_NtB1M_3impNtB3C_11TokenStream14unwrap_nightlyEECs2cqEZUIJimJ_5quote, symObjAddr: 0x7CC, symBinAddr: 0x10003D090, symSize: 0x24 }
  - { offset: 0xAA60F, size: 0x8, addend: 0x0, symName: __RINvNtCsfvfooZQ3Axs_4core3ptr13drop_in_placeINtNtNtNtB4_4iter8adapters3map3MapINtNtNtBN_7sources4once4OnceNtCs3cP53eQoTwO_11proc_macro211TokenStreamENCINvXs5_B1I_B1G_INtNtNtBN_6traits7collect6ExtendB1G_E6extendB1e_E0EECs2cqEZUIJimJ_5quote, symObjAddr: 0x814, symBinAddr: 0x10003D0B4, symSize: 0x24 }
  - { offset: 0xAA63E, size: 0x8, addend: 0x0, symName: __RINvNtCsfvfooZQ3Axs_4core3ptr13drop_in_placeINtNtNtNtB4_4iter8adapters4fuse4FuseINtNtBL_3map3MapIB1h_INtNtNtBN_7sources4once4OnceNtCs3cP53eQoTwO_11proc_macro211TokenStreamENCINvXs5_B25_B23_INtNtNtBN_6traits7collect6ExtendB23_E6extendB1B_E0ENvMs_NtB25_3impNtB3V_11TokenStream13unwrap_stableEEECs2cqEZUIJimJ_5quote, symObjAddr: 0x8A4, symBinAddr: 0x10003D0D8, symSize: 0x24 }
  - { offset: 0xAA66D, size: 0x8, addend: 0x0, symName: __RINvNtCsfvfooZQ3Axs_4core3ptr13drop_in_placeINtNtNtNtB4_4iter8adapters7flatten13FlattenCompatINtNtBL_3map3MapIB1u_INtNtNtBN_7sources4once4OnceNtCs3cP53eQoTwO_11proc_macro211TokenStreamENCINvXs5_B2i_B2g_INtNtNtBN_6traits7collect6ExtendB2g_E6extendB1O_E0ENvMs_NtB2i_3impNtB48_11TokenStream13unwrap_stableEINtNtB2i_5rcvec13RcVecIntoIterNtB2i_9TokenTreeEEECs2cqEZUIJimJ_5quote, symObjAddr: 0x8C8, symBinAddr: 0x10003D0FC, symSize: 0x90 }
  - { offset: 0xAA69C, size: 0x8, addend: 0x0, symName: __RINvNtCsfvfooZQ3Axs_4core3ptr13drop_in_placeINtNtNtNtB4_4iter8adapters7flatten7FlattenINtNtBL_3map3MapIB1n_INtNtNtBN_7sources4once4OnceNtCs3cP53eQoTwO_11proc_macro211TokenStreamENCINvXs5_B2b_B29_INtNtNtBN_6traits7collect6ExtendB29_E6extendB1H_E0ENvMs_NtB2b_3impNtB41_11TokenStream13unwrap_stableEEECs2cqEZUIJimJ_5quote, symObjAddr: 0x958, symBinAddr: 0x10003D18C, symSize: 0x24 }
  - { offset: 0xAA6CB, size: 0x8, addend: 0x0, symName: __RINvNtCsfvfooZQ3Axs_4core3ptr13drop_in_placeNtCs3cP53eQoTwO_11proc_macro211TokenStreamECs2cqEZUIJimJ_5quote, symObjAddr: 0x97C, symBinAddr: 0x10003D1B0, symSize: 0x24 }
  - { offset: 0xAA6FA, size: 0x8, addend: 0x0, symName: __RINvNtCsfvfooZQ3Axs_4core3ptr13drop_in_placeNtCs9i5KxIbZ5ph_10proc_macro19ConcatStreamsHelperECs2cqEZUIJimJ_5quote, symObjAddr: 0x9B0, symBinAddr: 0x10003D1D4, symSize: 0x24 }
  - { offset: 0xAA729, size: 0x8, addend: 0x0, symName: __RINvNtCsfvfooZQ3Axs_4core3ptr13drop_in_placeSNtNtNtCs9i5KxIbZ5ph_10proc_macro6bridge6client11TokenStreamECs2cqEZUIJimJ_5quote, symObjAddr: 0x9D4, symBinAddr: 0x10003D1F8, symSize: 0xB4 }
  - { offset: 0xAAE30, size: 0x8, addend: 0x0, symName: __RINvMNtCsfvfooZQ3Axs_4core3stre12strip_prefixReECs2cqEZUIJimJ_5quote, symObjAddr: 0x0, symBinAddr: 0x10003C970, symSize: 0x4C }
  - { offset: 0xAAE76, size: 0x8, addend: 0x0, symName: __RINvMNtCsfvfooZQ3Axs_4core3stre5parseNtCs3cP53eQoTwO_11proc_macro211TokenStreamECs2cqEZUIJimJ_5quote, symObjAddr: 0x4C, symBinAddr: 0x10003C9BC, symSize: 0x28 }
  - { offset: 0xAAEF1, size: 0x8, addend: 0x0, symName: __RNvNvXs5_NtNtCsfvfooZQ3Axs_4core3str6traitsINtNtNtBb_3ops5range5RangejEINtNtNtBb_5slice5index10SliceIndexeE13get_unchecked18precondition_checkCs2cqEZUIJimJ_5quote, symObjAddr: 0x3498, symBinAddr: 0x10003EBFC, symSize: 0x60 }
  - { offset: 0xAAFF0, size: 0x8, addend: 0x0, symName: __RNvXst_NtNtCsfvfooZQ3Axs_4core3str7patternReNtB5_7Pattern15strip_prefix_ofCs2cqEZUIJimJ_5quote, symObjAddr: 0x481C, symBinAddr: 0x10003F770, symSize: 0xE0 }
  - { offset: 0xABFD7, size: 0x8, addend: 0x0, symName: __RNvNvMs9_NtCsfvfooZQ3Axs_4core3numj13unchecked_add18precondition_checkCs2cqEZUIJimJ_5quote, symObjAddr: 0x326C, symBinAddr: 0x10003E9D0, symSize: 0x44 }
  - { offset: 0xAC4D2, size: 0x8, addend: 0x0, symName: __RINvNtNtNtCsfvfooZQ3Axs_4core4iter8adapters7flatten17and_then_or_clearINtNtCs3cP53eQoTwO_11proc_macro25rcvec13RcVecIntoIterNtB1b_9TokenTreeEB1X_NvYB16_NtNtNtB6_6traits8iterator8Iterator4nextECs2cqEZUIJimJ_5quote, symObjAddr: 0xB20, symBinAddr: 0x10003D344, symSize: 0x120 }
  - { offset: 0xAC616, size: 0x8, addend: 0x0, symName: __RNvXsm_NtNtNtCsfvfooZQ3Axs_4core4iter8adapters7flattenINtB5_7FlattenINtNtB7_3map3MapIB15_INtNtNtB9_7sources4once4OnceNtCs3cP53eQoTwO_11proc_macro211TokenStreamENCINvXs5_B1T_B1R_INtNtNtB9_6traits7collect6ExtendB1R_E6extendB1p_E0ENvMs_NtB1T_3impNtB3J_11TokenStream13unwrap_stableEENtNtB2U_8iterator8Iterator4nextCs2cqEZUIJimJ_5quote, symObjAddr: 0x4734, symBinAddr: 0x10003F728, symSize: 0x24 }
  - { offset: 0xAC656, size: 0x8, addend: 0x0, symName: __RNvXsm_NtNtNtCsfvfooZQ3Axs_4core4iter8adapters7flattenINtB5_7FlattenINtNtB7_3map3MapIB15_INtNtNtB9_7sources4once4OnceNtCs3cP53eQoTwO_11proc_macro211TokenStreamENCINvXs5_B1T_B1R_INtNtNtB9_6traits7collect6ExtendB1R_E6extendB1p_E0ENvMs_NtB1T_3impNtB3J_11TokenStream13unwrap_stableEENtNtB2U_8iterator8Iterator9size_hintCs2cqEZUIJimJ_5quote, symObjAddr: 0x4758, symBinAddr: 0x10003F74C, symSize: 0x24 }
  - { offset: 0xAC69C, size: 0x8, addend: 0x0, symName: __RNvXsv_NtNtNtCsfvfooZQ3Axs_4core4iter8adapters7flattenINtB5_13FlattenCompatINtNtB7_3map3MapIB1c_INtNtNtB9_7sources4once4OnceNtCs3cP53eQoTwO_11proc_macro211TokenStreamENCINvXs5_B20_B1Y_INtNtNtB9_6traits7collect6ExtendB1Y_E6extendB1w_E0ENvMs_NtB20_3impNtB3Q_11TokenStream13unwrap_stableEINtNtB20_5rcvec13RcVecIntoIterNtB20_9TokenTreeEENtNtB31_8iterator8Iterator4nextCs2cqEZUIJimJ_5quote, symObjAddr: 0x48FC, symBinAddr: 0x10003F850, symSize: 0x130 }
  - { offset: 0xAC72E, size: 0x8, addend: 0x0, symName: __RNvXsv_NtNtNtCsfvfooZQ3Axs_4core4iter8adapters7flattenINtB5_13FlattenCompatINtNtB7_3map3MapIB1c_INtNtNtB9_7sources4once4OnceNtCs3cP53eQoTwO_11proc_macro211TokenStreamENCINvXs5_B20_B1Y_INtNtNtB9_6traits7collect6ExtendB1Y_E6extendB1w_E0ENvMs_NtB20_3impNtB3Q_11TokenStream13unwrap_stableEINtNtB20_5rcvec13RcVecIntoIterNtB20_9TokenTreeEENtNtB31_8iterator8Iterator9size_hintCs2cqEZUIJimJ_5quote, symObjAddr: 0x4A2C, symBinAddr: 0x10003F980, symSize: 0x780 }
  - { offset: 0xACEF7, size: 0x8, addend: 0x0, symName: __RINvXs0_NtNtNtCsfvfooZQ3Axs_4core4iter8adapters3mapINtB6_3MapIBO_INtNtNtBa_7sources4once4OnceNtCs3cP53eQoTwO_11proc_macro211TokenStreamENCINvXs5_B1v_B1t_INtNtNtBa_6traits7collect6ExtendB1t_E6extendB11_E0ENvMs_NtB1v_3impNtB3l_11TokenStream14unwrap_nightlyENtNtB2w_8iterator8Iterator4folduNCINvNvB45_8for_each4callNtCs9i5KxIbZ5ph_10proc_macro11TokenStreamNCINvXsj_B52_B50_IB2s_B50_E6extendBN_E0E0ECs2cqEZUIJimJ_5quote, symObjAddr: 0xCCC, symBinAddr: 0x10003D4F0, symSize: 0x3C }
  - { offset: 0xACF69, size: 0x8, addend: 0x0, symName: __RINvXs0_NtNtNtCsfvfooZQ3Axs_4core4iter8adapters3mapINtB6_3MapINtNtNtBa_7sources4once4OnceNtCs3cP53eQoTwO_11proc_macro211TokenStreamENCINvXs5_B1r_B1p_INtNtNtBa_6traits7collect6ExtendB1p_E6extendBX_E0ENtNtB2s_8iterator8Iterator4folduNCINvB6_8map_foldNtNtB1r_3imp11TokenStreamNtCs9i5KxIbZ5ph_10proc_macro11TokenStreamuNvMs_B40_B3Y_14unwrap_nightlyNCINvNvB3b_8for_each4callB4n_NCINvXsj_B4p_B4n_IB2o_B4n_E6extendIBO_BN_B53_EE0E0E0ECs2cqEZUIJimJ_5quote, symObjAddr: 0xD54, symBinAddr: 0x10003D52C, symSize: 0x3C }
  - { offset: 0xACFDB, size: 0x8, addend: 0x0, symName: __RNvXs0_NtNtNtCsfvfooZQ3Axs_4core4iter8adapters3mapINtB5_3MapIBN_INtNtNtB9_7sources4once4OnceNtCs3cP53eQoTwO_11proc_macro211TokenStreamENCINvXs5_B1u_B1s_INtNtNtB9_6traits7collect6ExtendB1s_E6extendB10_E0ENvMs_NtB1u_3impNtB3k_11TokenStream13unwrap_stableENtNtB2v_8iterator8Iterator4nextCs2cqEZUIJimJ_5quote, symObjAddr: 0x38AC, symBinAddr: 0x10003EF78, symSize: 0x90 }
  - { offset: 0xAD04D, size: 0x8, addend: 0x0, symName: __RNvXs0_NtNtNtCsfvfooZQ3Axs_4core4iter8adapters3mapINtB5_3MapIBN_INtNtNtB9_7sources4once4OnceNtCs3cP53eQoTwO_11proc_macro211TokenStreamENCINvXs5_B1u_B1s_INtNtNtB9_6traits7collect6ExtendB1s_E6extendB10_E0ENvMs_NtB1u_3impNtB3k_11TokenStream13unwrap_stableENtNtB2v_8iterator8Iterator9size_hintCs2cqEZUIJimJ_5quote, symObjAddr: 0x393C, symBinAddr: 0x10003F008, symSize: 0x24 }
  - { offset: 0xAD094, size: 0x8, addend: 0x0, symName: __RNvXs0_NtNtNtCsfvfooZQ3Axs_4core4iter8adapters3mapINtB5_3MapIBN_INtNtNtB9_7sources4once4OnceNtCs3cP53eQoTwO_11proc_macro211TokenStreamENCINvXs5_B1u_B1s_INtNtNtB9_6traits7collect6ExtendB1s_E6extendB10_E0ENvMs_NtB1u_3impNtB3k_11TokenStream14unwrap_nightlyENtNtB2v_8iterator8Iterator9size_hintCs2cqEZUIJimJ_5quote, symObjAddr: 0x3960, symBinAddr: 0x10003F02C, symSize: 0x24 }
  - { offset: 0xAD0DB, size: 0x8, addend: 0x0, symName: __RNvXs0_NtNtNtCsfvfooZQ3Axs_4core4iter8adapters3mapINtB5_3MapINtNtNtB9_7sources4once4OnceNtCs3cP53eQoTwO_11proc_macro211TokenStreamENCINvXs5_B1q_B1o_INtNtNtB9_6traits7collect6ExtendB1o_E6extendBW_E0ENtNtB2r_8iterator8Iterator4nextCs2cqEZUIJimJ_5quote, symObjAddr: 0x39A8, symBinAddr: 0x10003F050, symSize: 0xAC }
  - { offset: 0xAD14D, size: 0x8, addend: 0x0, symName: __RNvXs0_NtNtNtCsfvfooZQ3Axs_4core4iter8adapters3mapINtB5_3MapINtNtNtB9_7sources4once4OnceNtCs3cP53eQoTwO_11proc_macro211TokenStreamENCINvXs5_B1q_B1o_INtNtNtB9_6traits7collect6ExtendB1o_E6extendBW_E0ENtNtB2r_8iterator8Iterator9size_hintCs2cqEZUIJimJ_5quote, symObjAddr: 0x3A54, symBinAddr: 0x10003F0FC, symSize: 0x24 }
  - { offset: 0xAD1F9, size: 0x8, addend: 0x0, symName: __RNCINvNtNtNtCsfvfooZQ3Axs_4core4iter8adapters3map8map_foldNtCs3cP53eQoTwO_11proc_macro211TokenStreamNtNtBW_3imp11TokenStreamuNCINvXs5_BW_BU_INtNtNtB8_6traits7collect6ExtendBU_E6extendINtNtNtB8_7sources4once4OnceBU_EE0NCIB2_B1A_NtCs9i5KxIbZ5ph_10proc_macro11TokenStreamuNvMs_B1C_B1A_14unwrap_nightlyNCINvNvNtNtB2j_8iterator8Iterator8for_each4callB3D_NCINvXsj_B3F_B3D_IB2f_B3D_E6extendINtB4_3MapIB6a_B2V_B1Z_EB4j_EE0E0E0E0Cs2cqEZUIJimJ_5quote, symObjAddr: 0x23A8, symBinAddr: 0x10003DF64, symSize: 0x9C }
  - { offset: 0xAD27F, size: 0x8, addend: 0x0, symName: __RNCINvNtNtNtCsfvfooZQ3Axs_4core4iter8adapters3map8map_foldNtNtCs3cP53eQoTwO_11proc_macro23imp11TokenStreamNtCs9i5KxIbZ5ph_10proc_macro11TokenStreamuNvMs_BW_BU_14unwrap_nightlyNCINvNvNtNtNtB8_6traits8iterator8Iterator8for_each4callB1G_NCINvXsj_B1I_B1G_INtNtB2Y_7collect6ExtendB1G_E6extendINtB4_3MapIB4C_INtNtNtB8_7sources4once4OnceNtBY_11TokenStreamENCINvXs5_BY_B5i_IB42_B5i_E6extendB4Q_E0EB2m_EE0E0E0Cs2cqEZUIJimJ_5quote, symObjAddr: 0x277C, symBinAddr: 0x10003E000, symSize: 0x8C }
  - { offset: 0xAD389, size: 0x8, addend: 0x0, symName: __RNvXs9_NtNtNtCsfvfooZQ3Axs_4core4iter8adapters4fuseINtB5_4FuseINtNtB7_3map3MapIBZ_INtNtNtB9_7sources4once4OnceNtCs3cP53eQoTwO_11proc_macro211TokenStreamENCINvXs5_B1M_B1K_INtNtNtB9_6traits7collect6ExtendB1K_E6extendB1i_E0ENvMs_NtB1M_3impNtB3C_11TokenStream13unwrap_stableEEINtB5_8FuseImplBY_E4nextCs2cqEZUIJimJ_5quote, symObjAddr: 0x3F08, symBinAddr: 0x10003F34C, symSize: 0x88 }
  - { offset: 0xAD55E, size: 0x8, addend: 0x0, symName: __RINvNtNtNtCsfvfooZQ3Axs_4core4iter7sources4once4onceNtCs3cP53eQoTwO_11proc_macro211TokenStreamECs2cqEZUIJimJ_5quote, symObjAddr: 0xA88, symBinAddr: 0x10003D2AC, symSize: 0x4C }
  - { offset: 0xAD5A7, size: 0x8, addend: 0x0, symName: __RINvNtNtNtCsfvfooZQ3Axs_4core4iter7sources4once4onceNtCs3cP53eQoTwO_11proc_macro29TokenTreeECs2cqEZUIJimJ_5quote, symObjAddr: 0xAD4, symBinAddr: 0x10003D2F8, symSize: 0x4C }
  - { offset: 0xAD5F5, size: 0x8, addend: 0x0, symName: __RNvXNtNtNtCsfvfooZQ3Axs_4core4iter7sources4onceINtB2_4OnceNtCs3cP53eQoTwO_11proc_macro211TokenStreamENtNtNtB6_6traits8iterator8Iterator4nextCs2cqEZUIJimJ_5quote, symObjAddr: 0x3674, symBinAddr: 0x10003ED48, symSize: 0x3C }
  - { offset: 0xAD6AB, size: 0x8, addend: 0x0, symName: __RNvXNtNtNtCsfvfooZQ3Axs_4core4iter7sources4onceINtB2_4OnceNtCs3cP53eQoTwO_11proc_macro211TokenStreamENtNtNtB6_6traits8iterator8Iterator9size_hintCs2cqEZUIJimJ_5quote, symObjAddr: 0x36B0, symBinAddr: 0x10003ED84, symSize: 0x48 }
  - { offset: 0xAD736, size: 0x8, addend: 0x0, symName: __RNvXNtNtNtCsfvfooZQ3Axs_4core4iter7sources4onceINtB2_4OnceNtCs3cP53eQoTwO_11proc_macro29TokenTreeENtNtNtB6_6traits8iterator8Iterator4nextCs2cqEZUIJimJ_5quote, symObjAddr: 0x36F8, symBinAddr: 0x10003EDCC, symSize: 0x3C }
  - { offset: 0xAD861, size: 0x8, addend: 0x0, symName: __RINvYINtNtNtCsfvfooZQ3Axs_4core5array4iter8IntoIterNtCs3cP53eQoTwO_11proc_macro29TokenTreeKj2_ENtNtNtNtBa_4iter6traits8iterator8Iterator8for_eachNCINvXsa_NtBP_8fallbackNtB2s_11TokenStreamINtNtB1z_7collect6ExtendBN_E6extendABN_B1r_E0ECs2cqEZUIJimJ_5quote, symObjAddr: 0x194C, symBinAddr: 0x10003DB68, symSize: 0x24 }
  - { offset: 0xAD8AD, size: 0x8, addend: 0x0, symName: __RINvYINtNtNtNtCsfvfooZQ3Axs_4core4iter7sources4once4OnceNtCs3cP53eQoTwO_11proc_macro211TokenStreamENtNtNtBa_6traits8iterator8Iterator3mapNtNtBU_3imp11TokenStreamNCINvXs5_BU_BS_INtNtB1D_7collect6ExtendBS_E6extendB3_E0ECs2cqEZUIJimJ_5quote, symObjAddr: 0x1970, symBinAddr: 0x10003DB8C, symSize: 0x1C }
  - { offset: 0xAD91A, size: 0x8, addend: 0x0, symName: __RINvYINtNtNtNtCsfvfooZQ3Axs_4core4iter7sources4once4OnceNtCs3cP53eQoTwO_11proc_macro211TokenStreamENtNtNtBa_6traits8iterator8Iterator4folduNCINvNtNtBa_8adapters3map8map_foldBS_NtNtBU_3imp11TokenStreamuNCINvXs5_BU_BS_INtNtB1D_7collect6ExtendBS_E6extendB3_E0NCIB2g_B2O_NtCs9i5KxIbZ5ph_10proc_macro11TokenStreamuNvMs_B2Q_B2O_14unwrap_nightlyNCINvNvB1z_8for_each4callB4h_NCINvXsj_B4j_B4h_IB3t_B4h_E6extendINtB2i_3MapIB6s_B3_B3d_EB4X_EE0E0E0E0ECs2cqEZUIJimJ_5quote, symObjAddr: 0x198C, symBinAddr: 0x10003DBA8, symSize: 0x110 }
  - { offset: 0xAD9AB, size: 0x8, addend: 0x0, symName: __RINvYINtNtNtNtCsfvfooZQ3Axs_4core4iter7sources4once4OnceNtCs3cP53eQoTwO_11proc_macro29TokenTreeENtNtNtBa_6traits8iterator8Iterator4folduNCINvNvB1w_8for_each4callBS_NCINvXsa_NtBU_8fallbackNtB2L_11TokenStreamINtNtB1A_7collect6ExtendBS_E6extendB3_E0E0ECs2cqEZUIJimJ_5quote, symObjAddr: 0x1A9C, symBinAddr: 0x10003DCB8, symSize: 0x10C }
  - { offset: 0xADA3C, size: 0x8, addend: 0x0, symName: __RINvYINtNtNtNtCsfvfooZQ3Axs_4core4iter7sources4once4OnceNtCs3cP53eQoTwO_11proc_macro29TokenTreeENtNtNtBa_6traits8iterator8Iterator8for_eachNCINvXsa_NtBU_8fallbackNtB2m_11TokenStreamINtNtB1A_7collect6ExtendBS_E6extendB3_E0ECs2cqEZUIJimJ_5quote, symObjAddr: 0x1BA8, symBinAddr: 0x10003DDC4, symSize: 0x24 }
  - { offset: 0xADA88, size: 0x8, addend: 0x0, symName: __RINvYINtNtNtNtCsfvfooZQ3Axs_4core4iter8adapters3map3MapIB4_INtNtNtBa_7sources4once4OnceNtCs3cP53eQoTwO_11proc_macro211TokenStreamENCINvXs5_B1p_B1n_INtNtNtBa_6traits7collect6ExtendB1n_E6extendBV_E0ENvMs_NtB1p_3impNtB3e_11TokenStream14unwrap_nightlyENtNtB2q_8iterator8Iterator8for_eachNCINvXsj_Cs9i5KxIbZ5ph_10proc_macroNtB4G_11TokenStreamIB2m_B56_E6extendB3_E0ECs2cqEZUIJimJ_5quote, symObjAddr: 0x1BCC, symBinAddr: 0x10003DDE8, symSize: 0x24 }
  - { offset: 0xADAD4, size: 0x8, addend: 0x0, symName: __RINvYINtNtNtNtCsfvfooZQ3Axs_4core4iter8adapters3map3MapINtNtNtBa_7sources4once4OnceNtCs3cP53eQoTwO_11proc_macro211TokenStreamENCINvXs5_B1l_B1j_INtNtNtBa_6traits7collect6ExtendB1j_E6extendBR_E0ENtNtB2m_8iterator8Iterator3mapNtCs9i5KxIbZ5ph_10proc_macro11TokenStreamNvMs_NtB1l_3impNtB4j_11TokenStream14unwrap_nightlyECs2cqEZUIJimJ_5quote, symObjAddr: 0x1C28, symBinAddr: 0x10003DE0C, symSize: 0x1C }
  - { offset: 0xADB41, size: 0x8, addend: 0x0, symName: __RINvYINtNtNtNtCsfvfooZQ3Axs_4core4iter8adapters3map3MapINtNtNtBa_7sources4once4OnceNtCs3cP53eQoTwO_11proc_macro211TokenStreamENCINvXs5_B1l_B1j_INtNtNtBa_6traits7collect6ExtendB1j_E6extendBR_E0ENtNtB2m_8iterator8Iterator3mapNtNtB1l_8fallback11TokenStreamNvMs_NtB1l_3impNtB48_11TokenStream13unwrap_stableECs2cqEZUIJimJ_5quote, symObjAddr: 0x1C44, symBinAddr: 0x10003DE28, symSize: 0x1C }
  - { offset: 0xADBAE, size: 0x8, addend: 0x0, symName: __RINvYNtNtNtCsfvfooZQ3Axs_4core3ops11index_range10IndexRangeNtNtNtNtB9_4iter6traits8iterator8Iterator8try_folduNCINvMNtB7_9try_traitINtB1Q_17NeverShortCircuituE10wrap_mut_2ujNCINvXs0_NtNtB9_5array4iterINtB2U_8IntoIterNtCs3cP53eQoTwO_11proc_macro29TokenTreeKj2_EBV_4folduNCINvNvBV_8for_each4callB3s_NCINvXsa_NtB3u_8fallbackNtB4U_11TokenStreamINtNtBZ_7collect6ExtendB3s_E6extendAB3s_B46_E0E0E0E0B25_ECs2cqEZUIJimJ_5quote, symObjAddr: 0x2288, symBinAddr: 0x10003DE44, symSize: 0xF8 }
  - { offset: 0xADC46, size: 0x8, addend: 0x0, symName: __RNvYINtNtNtNtCsfvfooZQ3Axs_4core4iter8adapters3map3MapIB3_INtNtNtB9_7sources4once4OnceNtCs3cP53eQoTwO_11proc_macro211TokenStreamENCINvXs5_B1o_B1m_INtNtNtB9_6traits7collect6ExtendB1m_E6extendBU_E0ENvMs_NtB1o_3impNtB3d_11TokenStream13unwrap_stableENtNtB2p_8iterator8Iterator4fuseCs2cqEZUIJimJ_5quote, symObjAddr: 0x526C, symBinAddr: 0x1000401C0, symSize: 0x2C }
  - { offset: 0xADC92, size: 0x8, addend: 0x0, symName: __RNvYINtNtNtNtCsfvfooZQ3Axs_4core4iter8adapters3map3MapIB3_INtNtNtB9_7sources4once4OnceNtCs3cP53eQoTwO_11proc_macro211TokenStreamENCINvXs5_B1o_B1m_INtNtNtB9_6traits7collect6ExtendB1m_E6extendBU_E0ENvMs_NtB1o_3impNtB3d_11TokenStream13unwrap_stableENtNtB2p_8iterator8Iterator7flattenCs2cqEZUIJimJ_5quote, symObjAddr: 0x5298, symBinAddr: 0x1000401EC, symSize: 0x6C }
  - { offset: 0xADD13, size: 0x8, addend: 0x0, symName: __RNvXNtNtNtCsfvfooZQ3Axs_4core4iter6traits7collectINtNtNtB6_7sources4once4OnceNtCs3cP53eQoTwO_11proc_macro211TokenStreamENtB2_12IntoIterator9into_iterCs2cqEZUIJimJ_5quote, symObjAddr: 0x3550, symBinAddr: 0x10003ECB4, symSize: 0x14 }
  - { offset: 0xADD4A, size: 0x8, addend: 0x0, symName: __RNvXNtNtNtCsfvfooZQ3Axs_4core4iter6traits7collectINtNtNtB6_7sources4once4OnceNtCs3cP53eQoTwO_11proc_macro29TokenTreeENtB2_12IntoIterator9into_iterCs2cqEZUIJimJ_5quote, symObjAddr: 0x3564, symBinAddr: 0x10003ECC8, symSize: 0x14 }
  - { offset: 0xADD81, size: 0x8, addend: 0x0, symName: __RNvXNtNtNtCsfvfooZQ3Axs_4core4iter6traits7collectINtNtNtB6_8adapters3map3MapIBM_INtNtNtB6_7sources4once4OnceNtCs3cP53eQoTwO_11proc_macro211TokenStreamENCINvXs5_B1K_B1I_INtB2_6ExtendB1I_E6extendB1g_E0ENvMs_NtB1K_3impNtB3h_11TokenStream13unwrap_stableENtB2_12IntoIterator9into_iterCs2cqEZUIJimJ_5quote, symObjAddr: 0x3578, symBinAddr: 0x10003ECDC, symSize: 0x14 }
  - { offset: 0xADDB8, size: 0x8, addend: 0x0, symName: __RNvXNtNtNtCsfvfooZQ3Axs_4core4iter6traits7collectINtNtNtB6_8adapters3map3MapIBM_INtNtNtB6_7sources4once4OnceNtCs3cP53eQoTwO_11proc_macro211TokenStreamENCINvXs5_B1K_B1I_INtB2_6ExtendB1I_E6extendB1g_E0ENvMs_NtB1K_3impNtB3h_11TokenStream14unwrap_nightlyENtB2_12IntoIterator9into_iterCs2cqEZUIJimJ_5quote, symObjAddr: 0x358C, symBinAddr: 0x10003ECF0, symSize: 0x14 }
  - { offset: 0xADDEF, size: 0x8, addend: 0x0, symName: __RNvXNtNtNtCsfvfooZQ3Axs_4core4iter6traits7collectINtNtNtB6_8adapters3map3MapINtNtNtB6_7sources4once4OnceNtCs3cP53eQoTwO_11proc_macro211TokenStreamENCINvXs5_B1G_B1E_INtB2_6ExtendB1E_E6extendB1c_E0ENtB2_12IntoIterator9into_iterCs2cqEZUIJimJ_5quote, symObjAddr: 0x35D0, symBinAddr: 0x10003ED04, symSize: 0x14 }
  - { offset: 0xADE26, size: 0x8, addend: 0x0, symName: __RNvXNtNtNtCsfvfooZQ3Axs_4core4iter6traits7collectINtNtNtB6_8adapters7flatten7FlattenINtNtBQ_3map3MapIB1l_INtNtNtB6_7sources4once4OnceNtCs3cP53eQoTwO_11proc_macro211TokenStreamENCINvXs5_B29_B27_INtB2_6ExtendB27_E6extendB1F_E0ENvMs_NtB29_3impNtB3G_11TokenStream13unwrap_stableEENtB2_12IntoIterator9into_iterCs2cqEZUIJimJ_5quote, symObjAddr: 0x3644, symBinAddr: 0x10003ED18, symSize: 0x30 }
  - { offset: 0xAE57C, size: 0x8, addend: 0x0, symName: __RNvXs_NtNtCsfvfooZQ3Axs_4core3ops11index_rangeNtB4_10IndexRangeNtNtNtNtB8_4iter6traits8iterator8Iterator4nextCs2cqEZUIJimJ_5quote, symObjAddr: 0x45E0, symBinAddr: 0x10003F654, symSize: 0xBC }
  - { offset: 0xAE68E, size: 0x8, addend: 0x0, symName: __RNCINvMNtNtCsfvfooZQ3Axs_4core3ops9try_traitINtB5_17NeverShortCircuituE10wrap_mut_2ujNCINvXs0_NtNtB9_5array4iterINtB1u_8IntoIterNtCs3cP53eQoTwO_11proc_macro29TokenTreeKj2_ENtNtNtNtB9_4iter6traits8iterator8Iterator4folduNCINvNvB2K_8for_each4callB22_NCINvXsa_NtB24_8fallbackNtB47_11TokenStreamINtNtB2O_7collect6ExtendB22_E6extendAB22_B2G_E0E0E0E0Cs2cqEZUIJimJ_5quote, symObjAddr: 0x2380, symBinAddr: 0x10003DF3C, symSize: 0x28 }
  - { offset: 0xAE716, size: 0x8, addend: 0x0, symName: __RNvXs_NtNtCsfvfooZQ3Axs_4core3ops9try_traitINtB4_17NeverShortCircuituENtB4_3Try11from_outputCs2cqEZUIJimJ_5quote, symObjAddr: 0x469C, symBinAddr: 0x10003F710, symSize: 0xC }
  - { offset: 0xAE749, size: 0x8, addend: 0x0, symName: __RNvXs_NtNtCsfvfooZQ3Axs_4core3ops9try_traitINtB4_17NeverShortCircuituENtB4_3Try6branchCs2cqEZUIJimJ_5quote, symObjAddr: 0x46A8, symBinAddr: 0x10003F71C, symSize: 0xC }
  - { offset: 0xAE7AB, size: 0x8, addend: 0x0, symName: __RNvXs2_NtNtNtCsfvfooZQ3Axs_4core3ops8function5implsQNCINvXs5_Cs3cP53eQoTwO_11proc_macro2NtBX_11TokenStreamINtNtNtNtBb_4iter6traits7collect6ExtendB1o_E6extendINtNtNtB1N_7sources4once4OnceB1o_EE0INtB7_6FnOnceTB1o_EE9call_onceCs2cqEZUIJimJ_5quote, symObjAddr: 0x3E3C, symBinAddr: 0x10003F2D4, symSize: 0x3C }
  - { offset: 0xAE7FA, size: 0x8, addend: 0x0, symName: __RNvXs2_NtNtNtCsfvfooZQ3Axs_4core3ops8function5implsQNvMs_NtCs3cP53eQoTwO_11proc_macro23impNtBT_11TokenStream13unwrap_stableINtB7_6FnOnceTB1q_EE9call_onceCs2cqEZUIJimJ_5quote, symObjAddr: 0x3EB4, symBinAddr: 0x10003F310, symSize: 0x3C }
  - { offset: 0xAE850, size: 0x8, addend: 0x0, symName: __RNvYNvMs_NtCs3cP53eQoTwO_11proc_macro23impNtB7_11TokenStream13unwrap_stableINtNtNtCsfvfooZQ3Axs_4core3ops8function5FnMutTBE_EE8call_mutCs2cqEZUIJimJ_5quote, symObjAddr: 0x5304, symBinAddr: 0x100040258, symSize: 0x38 }
  - { offset: 0xAE894, size: 0x8, addend: 0x0, symName: __RNvYNvMs_NtCs3cP53eQoTwO_11proc_macro23impNtB7_11TokenStream14unwrap_nightlyINtNtNtCsfvfooZQ3Axs_4core3ops8function5FnMutTBE_EE8call_mutCs2cqEZUIJimJ_5quote, symObjAddr: 0x533C, symBinAddr: 0x100040290, symSize: 0x38 }
  - { offset: 0xAE8DE, size: 0x8, addend: 0x0, symName: __RNvYNvYINtNtCs3cP53eQoTwO_11proc_macro25rcvec13RcVecIntoIterNtBa_9TokenTreeENtNtNtNtCsfvfooZQ3Axs_4core4iter6traits8iterator8Iterator4nextINtNtNtB1k_3ops8function6FnOnceTQB5_EE9call_onceCs2cqEZUIJimJ_5quote, symObjAddr: 0x53C8, symBinAddr: 0x1000402C8, symSize: 0x24 }
  - { offset: 0xAE922, size: 0x8, addend: 0x0, symName: __RNvYNvYINtNtCs3cP53eQoTwO_11proc_macro25rcvec13RcVecIntoIterNtBa_9TokenTreeENtNtNtNtCsfvfooZQ3Axs_4core4iter6traits8iterator8Iterator9size_hintINtNtNtB1k_3ops8function6FnOnceTRB5_EE9call_onceCs2cqEZUIJimJ_5quote, symObjAddr: 0x53EC, symBinAddr: 0x1000402EC, symSize: 0x24 }
  - { offset: 0xAE9CB, size: 0x8, addend: 0x0, symName: __RNvXs1_NtCsfvfooZQ3Axs_4core7convertNtCs3cP53eQoTwO_11proc_macro25GroupINtB5_4IntoNtBA_9TokenTreeE4intoCs2cqEZUIJimJ_5quote, symObjAddr: 0x3D18, symBinAddr: 0x10003F21C, symSize: 0x14 }
  - { offset: 0xAEA0C, size: 0x8, addend: 0x0, symName: __RNvXs1_NtCsfvfooZQ3Axs_4core7convertNtCs3cP53eQoTwO_11proc_macro25IdentINtB5_4IntoNtBA_9TokenTreeE4intoCs2cqEZUIJimJ_5quote, symObjAddr: 0x3D2C, symBinAddr: 0x10003F230, symSize: 0x14 }
  - { offset: 0xAEA4D, size: 0x8, addend: 0x0, symName: __RNvXs1_NtCsfvfooZQ3Axs_4core7convertNtCs3cP53eQoTwO_11proc_macro25PunctINtB5_4IntoNtBA_9TokenTreeE4intoCs2cqEZUIJimJ_5quote, symObjAddr: 0x3D40, symBinAddr: 0x10003F244, symSize: 0x14 }
  - { offset: 0xAEA8E, size: 0x8, addend: 0x0, symName: __RNvXs1_NtCsfvfooZQ3Axs_4core7convertNtCs3cP53eQoTwO_11proc_macro27LiteralINtB5_4IntoNtBA_9TokenTreeE4intoCs2cqEZUIJimJ_5quote, symObjAddr: 0x3D54, symBinAddr: 0x10003F258, symSize: 0x14 }
  - { offset: 0xAEB03, size: 0x8, addend: 0x0, symName: __RNCINvXs0_NtNtCsfvfooZQ3Axs_4core5array4iterINtB8_8IntoIterNtCs3cP53eQoTwO_11proc_macro29TokenTreeKj2_ENtNtNtNtBc_4iter6traits8iterator8Iterator4folduNCINvNvB1D_8for_each4callBV_NCINvXsa_NtBX_8fallbackNtB2Z_11TokenStreamINtNtB1H_7collect6ExtendBV_E6extendABV_B1z_E0E0E0Cs2cqEZUIJimJ_5quote, symObjAddr: 0x2808, symBinAddr: 0x10003E08C, symSize: 0xA4 }
  - { offset: 0xAEC68, size: 0x8, addend: 0x0, symName: __RINvXs0_NtNtCsfvfooZQ3Axs_4core5array4iterINtB6_8IntoIterNtCs3cP53eQoTwO_11proc_macro29TokenTreeKj2_ENtNtNtNtBa_4iter6traits8iterator8Iterator4folduNCINvNvB1B_8for_each4callBT_NCINvXsa_NtBV_8fallbackNtB2X_11TokenStreamINtNtB1F_7collect6ExtendBT_E6extendABT_B1x_E0E0ECs2cqEZUIJimJ_5quote, symObjAddr: 0xC40, symBinAddr: 0x10003D464, symSize: 0x8C }
  - { offset: 0xAED62, size: 0x8, addend: 0x0, symName: __RNvXs0_NtNtCsfvfooZQ3Axs_4core5array4iterINtB5_8IntoIterNtCs3cP53eQoTwO_11proc_macro29TokenTreeKj2_ENtNtNtNtB9_4iter6traits8iterator8Iterator4nextCs2cqEZUIJimJ_5quote, symObjAddr: 0x373C, symBinAddr: 0x10003EE08, symSize: 0x170 }
  - { offset: 0xAEFDA, size: 0x8, addend: 0x0, symName: __RNvXNtNtCsfvfooZQ3Axs_4core5array4iterANtCs3cP53eQoTwO_11proc_macro29TokenTreej2_NtNtNtNtB6_4iter6traits7collect12IntoIterator9into_iterCs2cqEZUIJimJ_5quote, symObjAddr: 0x34F8, symBinAddr: 0x10003EC5C, symSize: 0x58 }
  - { offset: 0xAF016, size: 0x8, addend: 0x0, symName: __RNvXs2_NtNtCsfvfooZQ3Axs_4core5array4iterINtB5_8IntoIterNtCs3cP53eQoTwO_11proc_macro29TokenTreeKj2_ENtNtNtB9_3ops4drop4Drop4dropCs2cqEZUIJimJ_5quote, symObjAddr: 0x3E14, symBinAddr: 0x10003F2AC, symSize: 0x28 }
  - { offset: 0xAF090, size: 0x8, addend: 0x0, symName: __RNvNvXs0_NtNtCsfvfooZQ3Axs_4core5slice5indexjINtB7_10SliceIndexSpE13get_unchecked18precondition_checkCs2cqEZUIJimJ_5quote, symObjAddr: 0x3418, symBinAddr: 0x10003EB7C, symSize: 0x40 }
  - { offset: 0xAF165, size: 0x8, addend: 0x0, symName: __RNvNvXs1_NtNtCsfvfooZQ3Axs_4core5slice5indexNtNtNtBb_3ops11index_range10IndexRangeINtB7_10SliceIndexSpE17get_unchecked_mut18precondition_checkCs2cqEZUIJimJ_5quote, symObjAddr: 0x3458, symBinAddr: 0x10003EBBC, symSize: 0x40 }
  - { offset: 0xAF317, size: 0x8, addend: 0x0, symName: __RNvNvNtNtCsfvfooZQ3Axs_4core5slice3raw14from_raw_parts18precondition_checkCs2cqEZUIJimJ_5quote, symObjAddr: 0x32B0, symBinAddr: 0x10003EA14, symSize: 0x168 }
  - { offset: 0xAF825, size: 0x8, addend: 0x0, symName: __RNCNvMs1E_NtCse1nGBsou5OW_5alloc2rcINtB8_14UniqueRcUninitINtNtBa_3vec3VecNtCs3cP53eQoTwO_11proc_macro29TokenTreeENtNtBa_5alloc6GlobalE3new0Cs2cqEZUIJimJ_5quote, symObjAddr: 0x2930, symBinAddr: 0x10003E18C, symSize: 0x2C }
  - { offset: 0xAF876, size: 0x8, addend: 0x0, symName: __RNCNvMs1E_NtCse1nGBsou5OW_5alloc2rcINtB8_14UniqueRcUninitINtNtBa_3vec3VecNtCs3cP53eQoTwO_11proc_macro29TokenTreeENtNtBa_5alloc6GlobalE3news_0Cs2cqEZUIJimJ_5quote, symObjAddr: 0x295C, symBinAddr: 0x10003E1B8, symSize: 0x20 }
  - { offset: 0xAFA69, size: 0x8, addend: 0x0, symName: __RNvYINtNtCse1nGBsou5OW_5alloc2rc7RcInnerINtNtB7_3vec3VecNtCs3cP53eQoTwO_11proc_macro29TokenTreeEENtB5_10RcInnerPtr4weakCs2cqEZUIJimJ_5quote, symObjAddr: 0x5244, symBinAddr: 0x100040198, symSize: 0x28 }
  - { offset: 0xAFB5D, size: 0x8, addend: 0x0, symName: __RNvXs1F_NtCse1nGBsou5OW_5alloc2rcINtB6_14UniqueRcUninitINtNtB8_3vec3VecNtCs3cP53eQoTwO_11proc_macro29TokenTreeENtNtB8_5alloc6GlobalENtNtNtCsfvfooZQ3Axs_4core3ops4drop4Drop4dropCs2cqEZUIJimJ_5quote, symObjAddr: 0x3C1C, symBinAddr: 0x10003F120, symSize: 0xBC }
  - { offset: 0xAFF69, size: 0x8, addend: 0x0, symName: __RNvXs1_NtCse1nGBsou5OW_5alloc7raw_vecINtB5_6RawVecNtNtNtCs9i5KxIbZ5ph_10proc_macro6bridge6client11TokenStreamENtNtNtCsfvfooZQ3Axs_4core3ops4drop4Drop4dropCs2cqEZUIJimJ_5quote, symObjAddr: 0x3CE8, symBinAddr: 0x10003F1EC, symSize: 0x30 }
  - { offset: 0xB0143, size: 0x8, addend: 0x0, symName: __RINvXNtCs2cqEZUIJimJ_5quote3extNtCs3cP53eQoTwO_11proc_macro211TokenStreamNtB3_14TokenStreamExt6appendNtBv_5GroupEB5_, symObjAddr: 0x5410, symBinAddr: 0x100040310, symSize: 0x68 }
  - { offset: 0xB0183, size: 0x8, addend: 0x0, symName: __RINvXNtCs2cqEZUIJimJ_5quote3extNtCs3cP53eQoTwO_11proc_macro211TokenStreamNtB3_14TokenStreamExt6appendNtBv_5IdentEB5_, symObjAddr: 0x5478, symBinAddr: 0x100040378, symSize: 0x68 }
  - { offset: 0xB01C3, size: 0x8, addend: 0x0, symName: __RINvXNtCs2cqEZUIJimJ_5quote3extNtCs3cP53eQoTwO_11proc_macro211TokenStreamNtB3_14TokenStreamExt6appendNtBv_5PunctEB5_, symObjAddr: 0x54E0, symBinAddr: 0x1000403E0, symSize: 0x68 }
  - { offset: 0xB0203, size: 0x8, addend: 0x0, symName: __RINvXNtCs2cqEZUIJimJ_5quote3extNtCs3cP53eQoTwO_11proc_macro211TokenStreamNtB3_14TokenStreamExt6appendNtBv_7LiteralEB5_, symObjAddr: 0x5548, symBinAddr: 0x100040448, symSize: 0x68 }
  - { offset: 0xB024F, size: 0x8, addend: 0x0, symName: __RNvXs4_NtCs2cqEZUIJimJ_5quote9to_tokenseNtB5_8ToTokens9to_tokens, symObjAddr: 0x57C0, symBinAddr: 0x1000404B0, symSize: 0x54 }
  - { offset: 0xB028B, size: 0x8, addend: 0x0, symName: __RNvXs5_NtCs2cqEZUIJimJ_5quote9to_tokensNtNtCse1nGBsou5OW_5alloc6string6StringNtB5_8ToTokens9to_tokens, symObjAddr: 0x5814, symBinAddr: 0x100040504, symSize: 0x44 }
  - { offset: 0xB02C7, size: 0x8, addend: 0x0, symName: __RNvXsc_NtCs2cqEZUIJimJ_5quote9to_tokenshNtB5_8ToTokens9to_tokens, symObjAddr: 0x5A60, symBinAddr: 0x100040548, symSize: 0x54 }
  - { offset: 0xB0303, size: 0x8, addend: 0x0, symName: __RNvXse_NtCs2cqEZUIJimJ_5quote9to_tokensmNtB5_8ToTokens9to_tokens, symObjAddr: 0x5B08, symBinAddr: 0x10004059C, symSize: 0x54 }
  - { offset: 0xB033F, size: 0x8, addend: 0x0, symName: __RNvXsf_NtCs2cqEZUIJimJ_5quote9to_tokensyNtB5_8ToTokens9to_tokens, symObjAddr: 0x5B5C, symBinAddr: 0x1000405F0, symSize: 0x54 }
  - { offset: 0xB037B, size: 0x8, addend: 0x0, symName: __RNvXsp_NtCs2cqEZUIJimJ_5quote9to_tokensNtCs3cP53eQoTwO_11proc_macro25IdentNtB5_8ToTokens9to_tokens, symObjAddr: 0x5F24, symBinAddr: 0x100040644, symSize: 0x50 }
  - { offset: 0xB03B7, size: 0x8, addend: 0x0, symName: __RNvXst_NtCs2cqEZUIJimJ_5quote9to_tokensNtCs3cP53eQoTwO_11proc_macro211TokenStreamNtB5_8ToTokens9to_tokens, symObjAddr: 0x6064, symBinAddr: 0x100040694, symSize: 0x60 }
  - { offset: 0xB0496, size: 0x8, addend: 0x0, symName: __RINvMNtCsfvfooZQ3Axs_4core6optionINtB3_6OptionRINtNtCs3cP53eQoTwO_11proc_macro25rcvec13RcVecIntoIterNtBO_9TokenTreeEE6map_orTjIBw_jEENvYBJ_NtNtNtNtB5_4iter6traits8iterator8Iterator9size_hintECs2cqEZUIJimJ_5quote, symObjAddr: 0x120, symBinAddr: 0x10003C9E4, symSize: 0xAC }
  - { offset: 0xB0543, size: 0x8, addend: 0x0, symName: __RINvMs0_NtCs3cP53eQoTwO_11proc_macro25rcvecINtB6_8RcVecMutNtB8_9TokenTreeE6extendINtNtNtNtCsfvfooZQ3Axs_4core4iter8adapters7flatten7FlattenINtNtB1m_3map3MapIB2e_INtNtNtB1o_7sources4once4OnceNtB8_11TokenStreamENCINvXs5_B8_B32_INtNtNtB1o_6traits7collect6ExtendB32_E6extendB2z_E0ENvMs_NtB8_3impNtB4w_11TokenStream13unwrap_stableEEECs2cqEZUIJimJ_5quote, symObjAddr: 0x1CC, symBinAddr: 0x10003CA90, symSize: 0x40 }
  - { offset: 0xB0613, size: 0x8, addend: 0x0, symName: __RINvMsh_NtCse1nGBsou5OW_5alloc2rcINtB6_2RcINtNtB8_3vec3VecNtCs3cP53eQoTwO_11proc_macro29TokenTreeEE19allocate_for_layoutNCNvMs1E_B6_INtB6_14UniqueRcUninitBE_NtNtB8_5alloc6GlobalE3new0NCB1W_s_0ECs2cqEZUIJimJ_5quote, symObjAddr: 0x20C, symBinAddr: 0x10003CAD0, symSize: 0x104 }
  - { offset: 0xB0758, size: 0x8, addend: 0x0, symName: __RINvMsh_NtCse1nGBsou5OW_5alloc2rcINtB6_2RcINtNtB8_3vec3VecNtCs3cP53eQoTwO_11proc_macro29TokenTreeEE23try_allocate_for_layoutNCNvMs1E_B6_INtB6_14UniqueRcUninitBE_NtNtB8_5alloc6GlobalE3new0NCB20_s_0ECs2cqEZUIJimJ_5quote, symObjAddr: 0x310, symBinAddr: 0x10003CBD4, symSize: 0x17C }
  - { offset: 0xB0B67, size: 0x8, addend: 0x0, symName: __RNvMNtCs3cP53eQoTwO_11proc_macro25rcvecINtB2_5RcVecNtB4_9TokenTreeE8make_mutCs2cqEZUIJimJ_5quote, symObjAddr: 0x297C, symBinAddr: 0x10003E1D8, symSize: 0x34 }
  - { offset: 0xB0C86, size: 0x8, addend: 0x0, symName: __RNvMNtCse1nGBsou5OW_5alloc6stringNtB2_6String6as_strCs2cqEZUIJimJ_5quote, symObjAddr: 0x29B0, symBinAddr: 0x10003E20C, symSize: 0x70 }
  - { offset: 0xB0D8F, size: 0x8, addend: 0x0, symName: __RNvMs0_NtCs3cP53eQoTwO_11proc_macro25rcvecINtB5_8RcVecMutNtB7_9TokenTreeE6as_mutCs2cqEZUIJimJ_5quote, symObjAddr: 0x2B18, symBinAddr: 0x10003E27C, symSize: 0x28 }
  - { offset: 0xB0E0C, size: 0x8, addend: 0x0, symName: __RNvMs0_NtCse1nGBsou5OW_5alloc7raw_vecINtB5_6RawVecNtCs9i5KxIbZ5ph_10proc_macro9TokenTreeE8grow_oneCs2cqEZUIJimJ_5quote, symObjAddr: 0x2B40, symBinAddr: 0x10003E2A4, symSize: 0x94 }
  - { offset: 0xB0F29, size: 0x8, addend: 0x0, symName: __RNvMs1E_NtCse1nGBsou5OW_5alloc2rcINtB6_14UniqueRcUninitINtNtB8_3vec3VecNtCs3cP53eQoTwO_11proc_macro29TokenTreeENtNtB8_5alloc6GlobalE3newCs2cqEZUIJimJ_5quote, symObjAddr: 0x2BD4, symBinAddr: 0x10003E338, symSize: 0x120 }
  - { offset: 0xB1195, size: 0x8, addend: 0x0, symName: __RNvMs1E_NtCse1nGBsou5OW_5alloc2rcINtB6_14UniqueRcUninitINtNtB8_3vec3VecNtCs3cP53eQoTwO_11proc_macro29TokenTreeENtNtB8_5alloc6GlobalE7into_rcCs2cqEZUIJimJ_5quote, symObjAddr: 0x2CF4, symBinAddr: 0x10003E458, symSize: 0xA8 }
  - { offset: 0xB13D2, size: 0x8, addend: 0x0, symName: __RNvMs1E_NtCse1nGBsou5OW_5alloc2rcINtB6_14UniqueRcUninitINtNtB8_3vec3VecNtCs3cP53eQoTwO_11proc_macro29TokenTreeENtNtB8_5alloc6GlobalE8data_ptrCs2cqEZUIJimJ_5quote, symObjAddr: 0x2D9C, symBinAddr: 0x10003E500, symSize: 0xB8 }
  - { offset: 0xB15BA, size: 0x8, addend: 0x0, symName: __RNvMs_NtNtCsfvfooZQ3Axs_4core5array4iterINtB4_8IntoIterNtCs3cP53eQoTwO_11proc_macro29TokenTreeKj2_E12as_mut_sliceCs2cqEZUIJimJ_5quote, symObjAddr: 0x2E54, symBinAddr: 0x10003E5B8, symSize: 0xB0 }
  - { offset: 0xB1812, size: 0x8, addend: 0x0, symName: __RNvMse_NtCse1nGBsou5OW_5alloc2rcINtB5_2RcINtNtB7_3vec3VecNtCs3cP53eQoTwO_11proc_macro29TokenTreeEE8make_mutCs2cqEZUIJimJ_5quote, symObjAddr: 0x2F04, symBinAddr: 0x10003E668, symSize: 0x318 }
  - { offset: 0xB26B6, size: 0x8, addend: 0x0, symName: __RINvMsi_NtCse1nGBsou5OW_5alloc3vecINtB6_3VecNtCs3cP53eQoTwO_11proc_macro29TokenTreeE16extend_desugaredINtNtNtNtCsfvfooZQ3Axs_4core4iter8adapters7flatten7FlattenINtNtB1H_3map3MapIB2z_INtNtNtB1J_7sources4once4OnceNtBI_11TokenStreamENCINvXs5_BI_B3n_INtNtNtB1J_6traits7collect6ExtendB3n_E6extendB2U_E0ENvMs_NtBI_3impNtB4R_11TokenStream13unwrap_stableEEECs2cqEZUIJimJ_5quote, symObjAddr: 0x0, symBinAddr: 0x1000406F4, symSize: 0x1D4 }
  - { offset: 0xB2EAB, size: 0x8, addend: 0x0, symName: __RINvXsa_NtCs3cP53eQoTwO_11proc_macro28fallbackNtB6_11TokenStreamINtNtNtNtCsfvfooZQ3Axs_4core4iter6traits7collect6ExtendNtB8_9TokenTreeE6extendAB1T_j2_ECs2cqEZUIJimJ_5quote, symObjAddr: 0x2A8, symBinAddr: 0x1000408C8, symSize: 0xC4 }
  - { offset: 0xB2F0C, size: 0x8, addend: 0x0, symName: __RINvXsa_NtCs3cP53eQoTwO_11proc_macro28fallbackNtB6_11TokenStreamINtNtNtNtCsfvfooZQ3Axs_4core4iter6traits7collect6ExtendNtB8_9TokenTreeE6extendINtNtNtB17_7sources4once4OnceB1T_EECs2cqEZUIJimJ_5quote, symObjAddr: 0x36C, symBinAddr: 0x10004098C, symSize: 0xC0 }
  - { offset: 0xB2F72, size: 0x8, addend: 0x0, symName: __RNCINvXsa_NtCs3cP53eQoTwO_11proc_macro28fallbackNtB8_11TokenStreamINtNtNtNtCsfvfooZQ3Axs_4core4iter6traits7collect6ExtendNtBa_9TokenTreeE6extendAB1V_j2_E0Cs2cqEZUIJimJ_5quote, symObjAddr: 0x82C, symBinAddr: 0x100040C10, symSize: 0xAC }
  - { offset: 0xB2FB8, size: 0x8, addend: 0x0, symName: __RNCINvXsa_NtCs3cP53eQoTwO_11proc_macro28fallbackNtB8_11TokenStreamINtNtNtNtCsfvfooZQ3Axs_4core4iter6traits7collect6ExtendNtBa_9TokenTreeE6extendINtNtNtB19_7sources4once4OnceB1V_EE0Cs2cqEZUIJimJ_5quote, symObjAddr: 0x8D8, symBinAddr: 0x100040CBC, symSize: 0xAC }
  - { offset: 0xB302B, size: 0x8, addend: 0x0, symName: __RINvXsb_NtCs3cP53eQoTwO_11proc_macro28fallbackNtB6_11TokenStreamINtNtNtNtCsfvfooZQ3Axs_4core4iter6traits7collect6ExtendBI_E6extendINtNtNtB17_8adapters3map3MapIB25_INtNtNtB17_7sources4once4OnceNtB8_11TokenStreamENCINvXs5_B8_B34_IB11_B34_E6extendB2B_E0ENvMs_NtB8_3impNtB46_11TokenStream13unwrap_stableEECs2cqEZUIJimJ_5quote, symObjAddr: 0x5B4, symBinAddr: 0x100040A4C, symSize: 0xDC }
  - { offset: 0xB3074, size: 0x8, addend: 0x0, symName: __RNvXsA_NtCs3cP53eQoTwO_11proc_macro28fallbackNtB5_5IdentNtNtCsfvfooZQ3Axs_4core5clone5Clone5cloneCs2cqEZUIJimJ_5quote, symObjAddr: 0x1620, symBinAddr: 0x10004186C, symSize: 0x94 }
  - { offset: 0xB30A8, size: 0x8, addend: 0x0, symName: __RNvXss_NtCs3cP53eQoTwO_11proc_macro28fallbackNtB5_11TokenStreamNtNtCsfvfooZQ3Axs_4core5clone5Clone5cloneCs2cqEZUIJimJ_5quote, symObjAddr: 0x1838, symBinAddr: 0x100041A0C, symSize: 0x24 }
  - { offset: 0xB30DA, size: 0x8, addend: 0x0, symName: __RNvXsu_NtCs3cP53eQoTwO_11proc_macro28fallbackNtB5_4SpanNtNtCsfvfooZQ3Axs_4core5clone5Clone5cloneCs2cqEZUIJimJ_5quote, symObjAddr: 0x185C, symBinAddr: 0x100041A30, symSize: 0x10 }
  - { offset: 0xB36F8, size: 0x8, addend: 0x0, symName: __RNvNvMs1_NtNtCsfvfooZQ3Axs_4core3ptr8non_nullINtB7_7NonNullpE13new_unchecked18precondition_checkCs2cqEZUIJimJ_5quote, symObjAddr: 0x1044, symBinAddr: 0x1000412CC, symSize: 0x38 }
  - { offset: 0xB3A4F, size: 0x8, addend: 0x0, symName: __RNvNvNtCsfvfooZQ3Axs_4core3ptr13read_volatile18precondition_checkCs2cqEZUIJimJ_5quote, symObjAddr: 0x1360, symBinAddr: 0x1000415E8, symSize: 0x100 }
  - { offset: 0xB46BE, size: 0x8, addend: 0x0, symName: __RNvXsA_NtNtNtCsfvfooZQ3Axs_4core4iter8adapters7flattenNtNtCs3cP53eQoTwO_11proc_macro28fallback11TokenStreamNtB5_21ConstSizeIntoIterator4sizeCs2cqEZUIJimJ_5quote, symObjAddr: 0x16B4, symBinAddr: 0x100041900, symSize: 0x18 }
  - { offset: 0xB47DA, size: 0x8, addend: 0x0, symName: __RNCINvNvNtNtNtNtCsfvfooZQ3Axs_4core4iter6traits8iterator8Iterator8for_each4callNtCs3cP53eQoTwO_11proc_macro29TokenTreeNCINvXsa_NtB1h_8fallbackNtB21_11TokenStreamINtNtBa_7collect6ExtendB1f_E6extendAB1f_j2_E0E0Cs2cqEZUIJimJ_5quote, symObjAddr: 0x6D8, symBinAddr: 0x100040B70, symSize: 0x3C }
  - { offset: 0xB4833, size: 0x8, addend: 0x0, symName: __RNCINvNvNtNtNtNtCsfvfooZQ3Axs_4core4iter6traits8iterator8Iterator8for_each4callNtCs3cP53eQoTwO_11proc_macro29TokenTreeNCINvXsa_NtB1h_8fallbackNtB21_11TokenStreamINtNtBa_7collect6ExtendB1f_E6extendINtNtNtBc_7sources4once4OnceB1f_EE0E0Cs2cqEZUIJimJ_5quote, symObjAddr: 0x714, symBinAddr: 0x100040BAC, symSize: 0x3C }
  - { offset: 0xB488C, size: 0x8, addend: 0x0, symName: __RNCINvNvNtNtNtNtCsfvfooZQ3Axs_4core4iter6traits8iterator8Iterator8for_each4callNtCs9i5KxIbZ5ph_10proc_macro11TokenStreamNCINvXsj_B1h_B1f_INtNtBa_7collect6ExtendB1f_E6extendINtNtNtBc_8adapters3map3MapIB2L_INtNtNtBc_7sources4once4OnceNtCs3cP53eQoTwO_11proc_macro211TokenStreamENCINvXs5_B3K_B3I_IB2c_B3I_E6extendB3g_E0ENvMs_NtB3K_3impNtB59_11TokenStream14unwrap_nightlyEE0E0Cs2cqEZUIJimJ_5quote, symObjAddr: 0x7C8, symBinAddr: 0x100040BE8, symSize: 0x28 }
  - { offset: 0xB49CD, size: 0x8, addend: 0x0, symName: __RNvNvMNtNtCsfvfooZQ3Axs_4core5alloc6layoutNtB4_6Layout25from_size_align_unchecked18precondition_checkCs2cqEZUIJimJ_5quote, symObjAddr: 0xFF4, symBinAddr: 0x10004127C, symSize: 0x50 }
  - { offset: 0xB4D4E, size: 0x8, addend: 0x0, symName: __RNvNvNtCsfvfooZQ3Axs_4core10intrinsics19copy_nonoverlapping18precondition_checkCs2cqEZUIJimJ_5quote, symObjAddr: 0x107C, symBinAddr: 0x100041304, symSize: 0x2E4 }
  - { offset: 0xB50FD, size: 0x8, addend: 0x0, symName: __RNvNvNtCsfvfooZQ3Axs_4core9ub_checks23maybe_is_nonoverlapping7runtimeCs2cqEZUIJimJ_5quote, symObjAddr: 0x1460, symBinAddr: 0x1000416E8, symSize: 0xD8 }
  - { offset: 0xB52B0, size: 0x8, addend: 0x0, symName: __RNvXNtCsfvfooZQ3Axs_4core5cloneINtNtCse1nGBsou5OW_5alloc3vec3VecNtCs3cP53eQoTwO_11proc_macro29TokenTreeENtB2_13CloneToUninit15clone_to_uninitCs2cqEZUIJimJ_5quote, symObjAddr: 0x1538, symBinAddr: 0x1000417C0, symSize: 0x2C }
  - { offset: 0xB52FD, size: 0x8, addend: 0x0, symName: __RNvXNtNtCsfvfooZQ3Axs_4core5clone6uninitINtNtCse1nGBsou5OW_5alloc3vec3VecNtCs3cP53eQoTwO_11proc_macro29TokenTreeENtB2_8CopySpec9clone_oneCs2cqEZUIJimJ_5quote, symObjAddr: 0x1588, symBinAddr: 0x100041810, symSize: 0x4C }
  - { offset: 0xB55E0, size: 0x8, addend: 0x0, symName: __RINvXsh_NtCse1nGBsou5OW_5alloc3vecINtB6_3VecNtCs3cP53eQoTwO_11proc_macro29TokenTreeEINtNtNtNtCsfvfooZQ3Axs_4core4iter6traits7collect6ExtendBG_E6extendINtNtNtB1r_8adapters7flatten7FlattenINtNtB2t_3map3MapIB2Z_INtNtNtB1r_7sources4once4OnceNtBI_11TokenStreamENCINvXs5_BI_B3N_IB1l_B3N_E6extendB3k_E0ENvMs_NtBI_3impNtB4P_11TokenStream13unwrap_stableEEECs2cqEZUIJimJ_5quote, symObjAddr: 0x690, symBinAddr: 0x100040B28, symSize: 0x48 }
  - { offset: 0xB5640, size: 0x8, addend: 0x0, symName: __RNvXNtNtCse1nGBsou5OW_5alloc3vec11spec_extendINtB4_3VecNtCs3cP53eQoTwO_11proc_macro29TokenTreeEINtB2_10SpecExtendBR_INtNtNtNtCsfvfooZQ3Axs_4core4iter8adapters7flatten7FlattenINtNtB1V_3map3MapIB2N_INtNtNtB1X_7sources4once4OnceNtBT_11TokenStreamENCINvXs5_BT_B3B_INtNtNtB1X_6traits7collect6ExtendB3B_E6extendB38_E0ENvMs_NtBT_3impNtB55_11TokenStream13unwrap_stableEEE11spec_extendCs2cqEZUIJimJ_5quote, symObjAddr: 0x1564, symBinAddr: 0x1000417EC, symSize: 0x24 }
  - { offset: 0xB56F4, size: 0x8, addend: 0x0, symName: __RNvXsn_NtCse1nGBsou5OW_5alloc3vecINtB5_3VecNtNtNtCs9i5KxIbZ5ph_10proc_macro6bridge6client11TokenStreamENtNtNtCsfvfooZQ3Axs_4core3ops4drop4Drop4dropCs2cqEZUIJimJ_5quote, symObjAddr: 0x1800, symBinAddr: 0x1000419D4, symSize: 0x38 }
  - { offset: 0xB58C3, size: 0x8, addend: 0x0, symName: __RNvNtCse1nGBsou5OW_5alloc5alloc12alloc_zeroedCs2cqEZUIJimJ_5quote, symObjAddr: 0xEE8, symBinAddr: 0x100041174, symSize: 0x84 }
  - { offset: 0xB595A, size: 0x8, addend: 0x0, symName: __RNvNtCse1nGBsou5OW_5alloc5alloc5allocCs2cqEZUIJimJ_5quote, symObjAddr: 0xF6C, symBinAddr: 0x1000411F8, symSize: 0x84 }
  - { offset: 0xB59F6, size: 0x8, addend: 0x0, symName: __RNvXs1_NtCse1nGBsou5OW_5alloc5allocNtB5_6GlobalNtNtCsfvfooZQ3Axs_4core5clone5Clone5cloneCs2cqEZUIJimJ_5quote, symObjAddr: 0x15D4, symBinAddr: 0x10004185C, symSize: 0x10 }
  - { offset: 0xB5A47, size: 0x8, addend: 0x0, symName: __RNvXs_NtCse1nGBsou5OW_5alloc5allocNtB4_6GlobalNtNtCsfvfooZQ3Axs_4core5alloc9Allocator10deallocateCs2cqEZUIJimJ_5quote, symObjAddr: 0x1744, symBinAddr: 0x100041918, symSize: 0x88 }
  - { offset: 0xB5B22, size: 0x8, addend: 0x0, symName: __RNvXs_NtCse1nGBsou5OW_5alloc5allocNtB4_6GlobalNtNtCsfvfooZQ3Axs_4core5alloc9Allocator8allocateCs2cqEZUIJimJ_5quote, symObjAddr: 0x17CC, symBinAddr: 0x1000419A0, symSize: 0x34 }
  - { offset: 0xB6150, size: 0x8, addend: 0x0, symName: __RINvMsi_NtCse1nGBsou5OW_5alloc3vecINtB6_3VecNtCs3cP53eQoTwO_11proc_macro29TokenTreeE16extend_desugaredINtNtNtNtCsfvfooZQ3Axs_4core4iter8adapters7flatten7FlattenINtNtB1H_3map3MapIB2z_INtNtNtB1J_7sources4once4OnceNtBI_11TokenStreamENCINvXs5_BI_B3n_INtNtNtB1J_6traits7collect6ExtendB3n_E6extendB2U_E0ENvMs_NtBI_3impNtB4R_11TokenStream13unwrap_stableEEECs2cqEZUIJimJ_5quote, symObjAddr: 0x0, symBinAddr: 0x1000406F4, symSize: 0x1D4 }
  - { offset: 0xB6507, size: 0x8, addend: 0x0, symName: __RNvMNtCse1nGBsou5OW_5alloc5allocNtB2_6Global10alloc_implCs2cqEZUIJimJ_5quote, symObjAddr: 0xADC, symBinAddr: 0x100040D68, symSize: 0x194 }
  - { offset: 0xB685D, size: 0x8, addend: 0x0, symName: __RNvMNtNtCsfvfooZQ3Axs_4core5alloc6layoutNtB2_6Layout18padding_needed_forCs2cqEZUIJimJ_5quote, symObjAddr: 0xC70, symBinAddr: 0x100040EFC, symSize: 0xA8 }
  - { offset: 0xB6A8F, size: 0x8, addend: 0x0, symName: __RNvMs_NtCse1nGBsou5OW_5alloc3vecINtB4_3VecNtCs3cP53eQoTwO_11proc_macro29TokenTreeE7reserveCs2cqEZUIJimJ_5quote, symObjAddr: 0xD18, symBinAddr: 0x100040FA4, symSize: 0xC8 }
  - { offset: 0xB6D09, size: 0x8, addend: 0x0, symName: __RNvMs_NtCse1nGBsou5OW_5alloc3vecINtB4_3VecNtCs9i5KxIbZ5ph_10proc_macro9TokenTreeE4pushCs2cqEZUIJimJ_5quote, symObjAddr: 0xDE0, symBinAddr: 0x10004106C, symSize: 0x108 }
  - { offset: 0xB718F, size: 0x8, addend: 0x0, symName: __RNvXs_NtCs2cqEZUIJimJ_5quote9___privateNtB4_11HasIteratorINtNtNtCsfvfooZQ3Axs_4core3ops3bit5BitOrNtB4_29ThereIsNoIteratorInRepetitionE5bitor, symObjAddr: 0x1908, symBinAddr: 0x100041A40, symSize: 0x1C }
  - { offset: 0xB71E1, size: 0x8, addend: 0x0, symName: __RNvXs0_NtCs2cqEZUIJimJ_5quote9___privateNtB5_29ThereIsNoIteratorInRepetitionINtNtNtCsfvfooZQ3Axs_4core3ops3bit5BitOrNtB5_11HasIteratorE5bitor, symObjAddr: 0x1924, symBinAddr: 0x100041A5C, symSize: 0x1C }
  - { offset: 0xB7233, size: 0x8, addend: 0x0, symName: __RNvXs1_NtCs2cqEZUIJimJ_5quote9___privateNtB5_11HasIteratorNtNtNtCsfvfooZQ3Axs_4core3ops3bit5BitOr5bitor, symObjAddr: 0x1940, symBinAddr: 0x100041A78, symSize: 0x1C }
  - { offset: 0xB7280, size: 0x8, addend: 0x0, symName: __RNvNtCs2cqEZUIJimJ_5quote9___private10push_group, symObjAddr: 0x195C, symBinAddr: 0x100041A94, symSize: 0x58 }
  - { offset: 0xB72C5, size: 0x8, addend: 0x0, symName: __RNvNtCs2cqEZUIJimJ_5quote9___private10push_ident, symObjAddr: 0x1E6C, symBinAddr: 0x100041AEC, symSize: 0x5C }
  - { offset: 0xB731C, size: 0x8, addend: 0x0, symName: __RNvNtCs2cqEZUIJimJ_5quote9___private18push_ident_spanned, symObjAddr: 0x1EC8, symBinAddr: 0x100041B48, symSize: 0x6C }
  - { offset: 0xB7364, size: 0x8, addend: 0x0, symName: __RNvNtCs2cqEZUIJimJ_5quote9___private13push_lifetime, symObjAddr: 0x1F34, symBinAddr: 0x100041BB4, symSize: 0x144 }
  - { offset: 0xB739D, size: 0x8, addend: 0x0, symName: __RNvNtCs2cqEZUIJimJ_5quote9___private15ident_maybe_raw, symObjAddr: 0x2300, symBinAddr: 0x100041CF8, symSize: 0xD8 }
  - { offset: 0xB73F8, size: 0x8, addend: 0x0, symName: __RNvNtCs2cqEZUIJimJ_5quote9___private8push_and, symObjAddr: 0x25F4, symBinAddr: 0x100041DD0, symSize: 0x58 }
  - { offset: 0xB7422, size: 0x8, addend: 0x0, symName: __RNvNtCs2cqEZUIJimJ_5quote9___private9push_bang, symObjAddr: 0x2A34, symBinAddr: 0x100041E28, symSize: 0x58 }
  - { offset: 0xB744C, size: 0x8, addend: 0x0, symName: __RNvNtCs2cqEZUIJimJ_5quote9___private10push_colon, symObjAddr: 0x2D24, symBinAddr: 0x100041E80, symSize: 0x58 }
  - { offset: 0xB7476, size: 0x8, addend: 0x0, symName: __RNvNtCs2cqEZUIJimJ_5quote9___private11push_colon2, symObjAddr: 0x2DF8, symBinAddr: 0x100041ED8, symSize: 0x88 }
  - { offset: 0xB74A0, size: 0x8, addend: 0x0, symName: __RNvNtCs2cqEZUIJimJ_5quote9___private10push_comma, symObjAddr: 0x2F48, symBinAddr: 0x100041F60, symSize: 0x58 }
  - { offset: 0xB74CA, size: 0x8, addend: 0x0, symName: __RNvNtCs2cqEZUIJimJ_5quote9___private7push_eq, symObjAddr: 0x37F4, symBinAddr: 0x100041FB8, symSize: 0x58 }
  - { offset: 0xB74F4, size: 0x8, addend: 0x0, symName: __RNvNtCs2cqEZUIJimJ_5quote9___private7push_gt, symObjAddr: 0x3B60, symBinAddr: 0x100042010, symSize: 0x58 }
  - { offset: 0xB751E, size: 0x8, addend: 0x0, symName: __RNvNtCs2cqEZUIJimJ_5quote9___private7push_lt, symObjAddr: 0x3D7C, symBinAddr: 0x100042068, symSize: 0x58 }
  - { offset: 0xB7548, size: 0x8, addend: 0x0, symName: __RNvNtCs2cqEZUIJimJ_5quote9___private10push_pound, symObjAddr: 0x444C, symBinAddr: 0x1000420C0, symSize: 0x58 }
  - { offset: 0xB7572, size: 0x8, addend: 0x0, symName: __RNvNtCs2cqEZUIJimJ_5quote9___private11push_rarrow, symObjAddr: 0x45F4, symBinAddr: 0x100042118, symSize: 0x84 }
  - { offset: 0xB759C, size: 0x8, addend: 0x0, symName: __RNvNtCs2cqEZUIJimJ_5quote9___private14push_fat_arrow, symObjAddr: 0x4AA0, symBinAddr: 0x10004219C, symSize: 0x84 }
  - { offset: 0xB75C6, size: 0x8, addend: 0x0, symName: __RNvNtCs2cqEZUIJimJ_5quote9___private9push_semi, symObjAddr: 0x4BE8, symBinAddr: 0x100042220, symSize: 0x58 }
  - { offset: 0xB7688, size: 0x8, addend: 0x0, symName: __RINvMs_NtNtCsfvfooZQ3Axs_4core3fmt2rtNtB5_8Argument11new_displayNtNtCse1nGBsou5OW_5alloc6string6StringECs3cP53eQoTwO_11proc_macro2, symObjAddr: 0x0, symBinAddr: 0x100042278, symSize: 0x2C }
  - { offset: 0xB7CF6, size: 0x8, addend: 0x0, symName: __RNvNtCs3cP53eQoTwO_11proc_macro28fallback26push_token_from_proc_macro, symObjAddr: 0x3630, symBinAddr: 0x100044804, symSize: 0x214 }
  - { offset: 0xB7D56, size: 0x8, addend: 0x0, symName: __RNvNvNtCs3cP53eQoTwO_11proc_macro28fallback26push_token_from_proc_macro21push_negative_literal, symObjAddr: 0x3844, symBinAddr: 0x1000A35B4, symSize: 0x144 }
  - { offset: 0xB7DB0, size: 0x8, addend: 0x0, symName: __RNvXs0_NtCs3cP53eQoTwO_11proc_macro28fallbackNtB5_11TokenStreamNtNtNtCsfvfooZQ3Axs_4core3ops4drop4Drop4drop, symObjAddr: 0x3988, symBinAddr: 0x100044A18, symSize: 0x4BC }
  - { offset: 0xB7F1E, size: 0x8, addend: 0x0, symName: __RNvNtCs3cP53eQoTwO_11proc_macro28fallback10get_cursor, symObjAddr: 0x3F50, symBinAddr: 0x100044FE0, symSize: 0x28 }
  - { offset: 0xB7F4F, size: 0x8, addend: 0x0, symName: __RNvXs3_NtCs3cP53eQoTwO_11proc_macro28fallbackNtB5_11TokenStreamNtNtCsfvfooZQ3Axs_4core3fmt7Display3fmt, symObjAddr: 0x3FC8, symBinAddr: 0x100045008, symSize: 0x300 }
  - { offset: 0xB8088, size: 0x8, addend: 0x0, symName: __RNvXsc_NtCs3cP53eQoTwO_11proc_macro28fallbackNtB5_11TokenStreamNtNtNtNtCsfvfooZQ3Axs_4core4iter6traits7collect12IntoIterator9into_iter, symObjAddr: 0x4568, symBinAddr: 0x100045308, symSize: 0x4C }
  - { offset: 0xB80BC, size: 0x8, addend: 0x0, symName: __RNvXse_NtCs3cP53eQoTwO_11proc_macro28fallbackNtB5_4SpanNtNtCsfvfooZQ3Axs_4core3fmt5Debug3fmt, symObjAddr: 0x46C0, symBinAddr: 0x100045368, symSize: 0x54 }
  - { offset: 0xB80FF, size: 0x8, addend: 0x0, symName: __RNvXsg_NtCs3cP53eQoTwO_11proc_macro28fallbackNtB5_5GroupNtNtCsfvfooZQ3Axs_4core3fmt7Display3fmt, symObjAddr: 0x48A4, symBinAddr: 0x100045450, symSize: 0x304 }
  - { offset: 0xB81DB, size: 0x8, addend: 0x0, symName: __RNvNtCs3cP53eQoTwO_11proc_macro28fallback14is_ident_start, symObjAddr: 0x4DE4, symBinAddr: 0x1000458B8, symSize: 0x74 }
  - { offset: 0xB8209, size: 0x8, addend: 0x0, symName: __RNvNtCs3cP53eQoTwO_11proc_macro28fallback17is_ident_continue, symObjAddr: 0x4E58, symBinAddr: 0x10004592C, symSize: 0x30 }
  - { offset: 0xB8237, size: 0x8, addend: 0x0, symName: __RNvNtCs3cP53eQoTwO_11proc_macro28fallback14validate_ident, symObjAddr: 0x4E88, symBinAddr: 0x10004595C, symSize: 0x140 }
  - { offset: 0xB8266, size: 0x8, addend: 0x0, symName: __RNCNvNtCs3cP53eQoTwO_11proc_macro28fallback14validate_ident0B5_, symObjAddr: 0x4FC8, symBinAddr: 0x100045A9C, symSize: 0x74 }
  - { offset: 0xB829F, size: 0x8, addend: 0x0, symName: __RNvNvNtCs3cP53eQoTwO_11proc_macro28fallback14validate_ident8ident_ok, symObjAddr: 0x503C, symBinAddr: 0x100045B10, symSize: 0x138 }
  - { offset: 0xB834B, size: 0x8, addend: 0x0, symName: __RNvNtCs3cP53eQoTwO_11proc_macro28fallback18validate_ident_raw, symObjAddr: 0x5174, symBinAddr: 0x100045C48, symSize: 0x190 }
  - { offset: 0xB837A, size: 0x8, addend: 0x0, symName: __RNvXsl_NtCs3cP53eQoTwO_11proc_macro28fallbackNtB5_5IdentNtNtCsfvfooZQ3Axs_4core3fmt7Display3fmt, symObjAddr: 0x539C, symBinAddr: 0x100045DD8, symSize: 0xD4 }
  - { offset: 0xB83DB, size: 0x8, addend: 0x0, symName: __RNvXso_NtCs3cP53eQoTwO_11proc_macro28fallbackNtB5_7LiteralNtNtCsfvfooZQ3Axs_4core3fmt7Display3fmt, symObjAddr: 0x6BE8, symBinAddr: 0x10004605C, symSize: 0x3C }
  - { offset: 0xB8419, size: 0x8, addend: 0x0, symName: __RNvNtCs3cP53eQoTwO_11proc_macro28fallback11escape_utf8, symObjAddr: 0x6CE0, symBinAddr: 0x100046098, symSize: 0x174 }
  - { offset: 0xB8483, size: 0x8, addend: 0x0, symName: __RNCNvNtCs3cP53eQoTwO_11proc_macro28fallback11escape_utf80B5_, symObjAddr: 0x6E54, symBinAddr: 0x10004620C, symSize: 0x70 }
  - { offset: 0xB84CE, size: 0x8, addend: 0x0, symName: __RNCNvYNtCs9i5KxIbZ5ph_10proc_macro11TokenStreamNtNtCs3cP53eQoTwO_11proc_macro28fallback8FromStr216from_str_checked0BN_, symObjAddr: 0x6EC4, symBinAddr: 0x10004627C, symSize: 0x3C }
  - { offset: 0xB850E, size: 0x8, addend: 0x0, symName: __RNvXss_NtCs3cP53eQoTwO_11proc_macro28fallbackNtB5_11TokenStreamNtNtCsfvfooZQ3Axs_4core5clone5Clone5cloneB7_, symObjAddr: 0x738C, symBinAddr: 0x1000462B8, symSize: 0x24 }
  - { offset: 0xB8540, size: 0x8, addend: 0x0, symName: __RNvXst_NtCs3cP53eQoTwO_11proc_macro28fallbackNtB5_8LexErrorNtNtCsfvfooZQ3Axs_4core3fmt5Debug3fmtB7_, symObjAddr: 0x73B0, symBinAddr: 0x1000462DC, symSize: 0x64 }
  - { offset: 0xB8580, size: 0x8, addend: 0x0, symName: __RNvXsu_NtCs3cP53eQoTwO_11proc_macro28fallbackNtB5_4SpanNtNtCsfvfooZQ3Axs_4core5clone5Clone5cloneB7_, symObjAddr: 0x7414, symBinAddr: 0x100046340, symSize: 0x10 }
  - { offset: 0xB85B0, size: 0x8, addend: 0x0, symName: __RNvXsz_NtCs3cP53eQoTwO_11proc_macro28fallbackNtB5_5GroupNtNtCsfvfooZQ3Axs_4core5clone5Clone5cloneB7_, symObjAddr: 0x7424, symBinAddr: 0x100046350, symSize: 0x80 }
  - { offset: 0xB85E4, size: 0x8, addend: 0x0, symName: __RNvXsA_NtCs3cP53eQoTwO_11proc_macro28fallbackNtB5_5IdentNtNtCsfvfooZQ3Axs_4core5clone5Clone5cloneB7_, symObjAddr: 0x74A4, symBinAddr: 0x1000463D0, symSize: 0x94 }
  - { offset: 0xB8618, size: 0x8, addend: 0x0, symName: __RNvXsB_NtCs3cP53eQoTwO_11proc_macro28fallbackNtB5_7LiteralNtNtCsfvfooZQ3Axs_4core5clone5Clone5cloneB7_, symObjAddr: 0x7538, symBinAddr: 0x100046464, symSize: 0x78 }
  - { offset: 0xB8ADB, size: 0x8, addend: 0x0, symName: __RNvXs3_NtNtCsfvfooZQ3Axs_4core3str7patternNCNvNtCs3cP53eQoTwO_11proc_macro28fallback11escape_utf80NtB5_11MultiCharEq7matchesBK_, symObjAddr: 0x28F8, symBinAddr: 0x100043FA4, symSize: 0x28 }
  - { offset: 0xB8B27, size: 0x8, addend: 0x0, symName: __RNvXsr_NtNtCsfvfooZQ3Axs_4core3str7patternNCNvNtCs3cP53eQoTwO_11proc_macro28fallback11escape_utf80NtB5_7Pattern12is_prefix_ofBK_, symObjAddr: 0x3110, symBinAddr: 0x1000445B4, symSize: 0x28 }
  - { offset: 0xB973A, size: 0x8, addend: 0x0, symName: __RNvNvMs1_NtNtCsfvfooZQ3Axs_4core3ptr8non_nullINtB7_7NonNullpE13new_unchecked18precondition_checkCs3cP53eQoTwO_11proc_macro2, symObjAddr: 0x216C, symBinAddr: 0x100043A34, symSize: 0x38 }
  - { offset: 0xB9B15, size: 0x8, addend: 0x0, symName: __RINvNtCsfvfooZQ3Axs_4core3ptr13drop_in_placeINtNtB4_6option6OptionNtCs3cP53eQoTwO_11proc_macro29TokenTreeEEB14_, symObjAddr: 0x3E4, symBinAddr: 0x1000423AC, symSize: 0x44 }
  - { offset: 0xB9B44, size: 0x8, addend: 0x0, symName: __RINvNtCsfvfooZQ3Axs_4core3ptr13drop_in_placeINtNtB4_6option6OptionNtCs9i5KxIbZ5ph_10proc_macro9TokenTreeEECs3cP53eQoTwO_11proc_macro2, symObjAddr: 0x428, symBinAddr: 0x1000423F0, symSize: 0x44 }
  - { offset: 0xB9B73, size: 0x8, addend: 0x0, symName: __RINvNtCsfvfooZQ3Axs_4core3ptr13drop_in_placeINtNtB4_6option6OptionNtNtNtCs9i5KxIbZ5ph_10proc_macro6bridge6client11TokenStreamEECs3cP53eQoTwO_11proc_macro2, symObjAddr: 0x46C, symBinAddr: 0x100042434, symSize: 0x44 }
  - { offset: 0xB9BA2, size: 0x8, addend: 0x0, symName: __RINvNtCsfvfooZQ3Axs_4core3ptr13drop_in_placeINtNtB4_6result6ResultNtNtCs3cP53eQoTwO_11proc_macro28fallback11TokenStreamNtB14_8LexErrorEEB16_, symObjAddr: 0x4B0, symBinAddr: 0x100042478, symSize: 0x48 }
  - { offset: 0xB9BD1, size: 0x8, addend: 0x0, symName: __RINvNtCsfvfooZQ3Axs_4core3ptr13drop_in_placeINtNtB4_6result6ResultTNtNtCs3cP53eQoTwO_11proc_macro25parse6CursorNtB17_5IdentENtB15_6RejectEEB17_, symObjAddr: 0x544, symBinAddr: 0x1000424C0, symSize: 0x48 }
  - { offset: 0xB9C00, size: 0x8, addend: 0x0, symName: __RINvNtCsfvfooZQ3Axs_4core3ptr13drop_in_placeINtNtCs3cP53eQoTwO_11proc_macro25rcvec12RcVecBuilderNtBL_9TokenTreeEEBL_, symObjAddr: 0x58C, symBinAddr: 0x100042508, symSize: 0x24 }
  - { offset: 0xB9C2F, size: 0x8, addend: 0x0, symName: __RINvNtCsfvfooZQ3Axs_4core3ptr13drop_in_placeINtNtCs3cP53eQoTwO_11proc_macro25rcvec13RcVecIntoIterNtBL_9TokenTreeEEBL_, symObjAddr: 0x5B0, symBinAddr: 0x10004252C, symSize: 0x24 }
  - { offset: 0xB9C5E, size: 0x8, addend: 0x0, symName: __RINvNtCsfvfooZQ3Axs_4core3ptr13drop_in_placeINtNtCs3cP53eQoTwO_11proc_macro25rcvec5RcVecNtBL_9TokenTreeEEBL_, symObjAddr: 0x5D4, symBinAddr: 0x100042550, symSize: 0x24 }
  - { offset: 0xB9C8D, size: 0x8, addend: 0x0, symName: __RINvNtCsfvfooZQ3Axs_4core3ptr13drop_in_placeINtNtCs9i5KxIbZ5ph_10proc_macro6bridge5GroupNtNtBJ_6client11TokenStreamNtB1q_4SpanEECs3cP53eQoTwO_11proc_macro2, symObjAddr: 0x5F8, symBinAddr: 0x100042574, symSize: 0x24 }
  - { offset: 0xB9CBC, size: 0x8, addend: 0x0, symName: __RINvNtCsfvfooZQ3Axs_4core3ptr13drop_in_placeINtNtCs9i5KxIbZ5ph_10proc_macro6bridge9TokenTreeNtNtBJ_6client11TokenStreamNtB1u_4SpanNtNtBJ_6symbol6SymbolEECs3cP53eQoTwO_11proc_macro2, symObjAddr: 0x61C, symBinAddr: 0x100042598, symSize: 0x58 }
  - { offset: 0xB9CEB, size: 0x8, addend: 0x0, symName: __RINvNtCsfvfooZQ3Axs_4core3ptr13drop_in_placeINtNtCse1nGBsou5OW_5alloc2rc2RcINtNtBL_3vec3VecNtCs3cP53eQoTwO_11proc_macro29TokenTreeEEEB1t_, symObjAddr: 0x674, symBinAddr: 0x1000425F0, symSize: 0x24 }
  - { offset: 0xB9D1A, size: 0x8, addend: 0x0, symName: __RINvNtCsfvfooZQ3Axs_4core3ptr13drop_in_placeINtNtCse1nGBsou5OW_5alloc2rc4WeakINtNtBL_3vec3VecNtCs3cP53eQoTwO_11proc_macro29TokenTreeERNtNtBL_5alloc6GlobalEEB1v_, symObjAddr: 0x698, symBinAddr: 0x100042614, symSize: 0x24 }
  - { offset: 0xB9D49, size: 0x8, addend: 0x0, symName: __RINvNtCsfvfooZQ3Axs_4core3ptr13drop_in_placeINtNtCse1nGBsou5OW_5alloc2rc7RcInnerINtNtBL_3vec3VecNtCs3cP53eQoTwO_11proc_macro29TokenTreeEEEB1y_, symObjAddr: 0x6BC, symBinAddr: 0x100042638, symSize: 0x24 }
  - { offset: 0xB9D78, size: 0x8, addend: 0x0, symName: __RINvNtCsfvfooZQ3Axs_4core3ptr13drop_in_placeINtNtCse1nGBsou5OW_5alloc3vec3VecINtNtCs3cP53eQoTwO_11proc_macro25rcvec13RcVecIntoIterNtB1i_9TokenTreeEEEB1i_, symObjAddr: 0x6E0, symBinAddr: 0x10004265C, symSize: 0x5C }
  - { offset: 0xB9DA7, size: 0x8, addend: 0x0, symName: __RINvNtCsfvfooZQ3Axs_4core3ptr13drop_in_placeINtNtCse1nGBsou5OW_5alloc3vec3VecINtNtCs9i5KxIbZ5ph_10proc_macro6bridge9TokenTreeNtNtB1g_6client11TokenStreamNtB21_4SpanNtNtB1g_6symbol6SymbolEEECs3cP53eQoTwO_11proc_macro2, symObjAddr: 0x73C, symBinAddr: 0x1000426B8, symSize: 0x5C }
  - { offset: 0xB9DD6, size: 0x8, addend: 0x0, symName: __RINvNtCsfvfooZQ3Axs_4core3ptr13drop_in_placeINtNtCse1nGBsou5OW_5alloc3vec3VecNtCs3cP53eQoTwO_11proc_macro29TokenTreeEEB1f_, symObjAddr: 0x798, symBinAddr: 0x100042714, symSize: 0x5C }
  - { offset: 0xB9E05, size: 0x8, addend: 0x0, symName: __RINvNtCsfvfooZQ3Axs_4core3ptr13drop_in_placeINtNtCse1nGBsou5OW_5alloc3vec3VecNtCs9i5KxIbZ5ph_10proc_macro9TokenTreeEECs3cP53eQoTwO_11proc_macro2, symObjAddr: 0x7F4, symBinAddr: 0x100042770, symSize: 0x5C }
  - { offset: 0xB9E34, size: 0x8, addend: 0x0, symName: __RINvNtCsfvfooZQ3Axs_4core3ptr13drop_in_placeINtNtCse1nGBsou5OW_5alloc3vec3VecTNtCs3cP53eQoTwO_11proc_macro29DelimiterNtNtB1g_8fallback18TokenStreamBuilderEEEB1g_, symObjAddr: 0x850, symBinAddr: 0x1000427CC, symSize: 0x5C }
  - { offset: 0xB9E63, size: 0x8, addend: 0x0, symName: __RINvNtCsfvfooZQ3Axs_4core3ptr13drop_in_placeINtNtCse1nGBsou5OW_5alloc3vec3VechEECs3cP53eQoTwO_11proc_macro2, symObjAddr: 0x8AC, symBinAddr: 0x100042828, symSize: 0x5C }
  - { offset: 0xB9E92, size: 0x8, addend: 0x0, symName: __RINvNtCsfvfooZQ3Axs_4core3ptr13drop_in_placeINtNtCse1nGBsou5OW_5alloc5boxed3BoxDNtNtB4_3any3AnyNtNtB4_6marker4SendEL_EECs3cP53eQoTwO_11proc_macro2, symObjAddr: 0x908, symBinAddr: 0x100042884, symSize: 0x80 }
  - { offset: 0xB9EC1, size: 0x8, addend: 0x0, symName: __RINvNtCsfvfooZQ3Axs_4core3ptr13drop_in_placeINtNtCse1nGBsou5OW_5alloc5boxed3BoxeEECs3cP53eQoTwO_11proc_macro2, symObjAddr: 0x988, symBinAddr: 0x100042904, symSize: 0x2C }
  - { offset: 0xB9EF0, size: 0x8, addend: 0x0, symName: __RINvNtCsfvfooZQ3Axs_4core3ptr13drop_in_placeINtNtCse1nGBsou5OW_5alloc7raw_vec6RawVecINtNtCs3cP53eQoTwO_11proc_macro25rcvec13RcVecIntoIterNtB1p_9TokenTreeEEEB1p_, symObjAddr: 0x9B4, symBinAddr: 0x100042930, symSize: 0x24 }
  - { offset: 0xB9F1F, size: 0x8, addend: 0x0, symName: __RINvNtCsfvfooZQ3Axs_4core3ptr13drop_in_placeINtNtCse1nGBsou5OW_5alloc7raw_vec6RawVecINtNtCs9i5KxIbZ5ph_10proc_macro6bridge9TokenTreeNtNtB1n_6client11TokenStreamNtB28_4SpanNtNtB1n_6symbol6SymbolEEECs3cP53eQoTwO_11proc_macro2, symObjAddr: 0x9D8, symBinAddr: 0x100042954, symSize: 0x24 }
  - { offset: 0xB9F4E, size: 0x8, addend: 0x0, symName: __RINvNtCsfvfooZQ3Axs_4core3ptr13drop_in_placeINtNtCse1nGBsou5OW_5alloc7raw_vec6RawVecNtCs3cP53eQoTwO_11proc_macro29TokenTreeEEB1m_, symObjAddr: 0x9FC, symBinAddr: 0x100042978, symSize: 0x24 }
  - { offset: 0xB9F7D, size: 0x8, addend: 0x0, symName: __RINvNtCsfvfooZQ3Axs_4core3ptr13drop_in_placeINtNtCse1nGBsou5OW_5alloc7raw_vec6RawVecNtCs9i5KxIbZ5ph_10proc_macro9TokenTreeEECs3cP53eQoTwO_11proc_macro2, symObjAddr: 0xA20, symBinAddr: 0x10004299C, symSize: 0x24 }
  - { offset: 0xB9FAC, size: 0x8, addend: 0x0, symName: __RINvNtCsfvfooZQ3Axs_4core3ptr13drop_in_placeINtNtCse1nGBsou5OW_5alloc7raw_vec6RawVecTNtCs3cP53eQoTwO_11proc_macro29DelimiterNtNtB1n_8fallback18TokenStreamBuilderEEEB1n_, symObjAddr: 0xA44, symBinAddr: 0x1000429C0, symSize: 0x24 }
  - { offset: 0xB9FDB, size: 0x8, addend: 0x0, symName: __RINvNtCsfvfooZQ3Axs_4core3ptr13drop_in_placeINtNtCse1nGBsou5OW_5alloc7raw_vec6RawVechEECs3cP53eQoTwO_11proc_macro2, symObjAddr: 0xA68, symBinAddr: 0x1000429E4, symSize: 0x24 }
  - { offset: 0xBA00A, size: 0x8, addend: 0x0, symName: __RINvNtCsfvfooZQ3Axs_4core3ptr13drop_in_placeINtNtNtCse1nGBsou5OW_5alloc3vec5drain5DrainNtCs9i5KxIbZ5ph_10proc_macro9TokenTreeEECs3cP53eQoTwO_11proc_macro2, symObjAddr: 0xA8C, symBinAddr: 0x100042A08, symSize: 0x24 }
  - { offset: 0xBA039, size: 0x8, addend: 0x0, symName: __RINvNtCsfvfooZQ3Axs_4core3ptr13drop_in_placeINtNtNtCse1nGBsou5OW_5alloc3vec9into_iter8IntoIterNtCs3cP53eQoTwO_11proc_macro29TokenTreeEEB1w_, symObjAddr: 0xAD4, symBinAddr: 0x100042A2C, symSize: 0x24 }
  - { offset: 0xBA068, size: 0x8, addend: 0x0, symName: __RINvNtCsfvfooZQ3Axs_4core3ptr13drop_in_placeINtNvXNtNtCse1nGBsou5OW_5alloc5slice4hackpNtBM_10ConvertVec6to_vec9DropGuardNtCs3cP53eQoTwO_11proc_macro29TokenTreeNtNtBQ_5alloc6GlobalEEB1W_, symObjAddr: 0xB1C, symBinAddr: 0x100042A50, symSize: 0x24 }
  - { offset: 0xBA097, size: 0x8, addend: 0x0, symName: __RINvNtCsfvfooZQ3Axs_4core3ptr13drop_in_placeINtNvXNtNtCse1nGBsou5OW_5alloc5slice4hackpNtBM_10ConvertVec6to_vec9DropGuardNtCs9i5KxIbZ5ph_10proc_macro9TokenTreeNtNtBQ_5alloc6GlobalEECs3cP53eQoTwO_11proc_macro2, symObjAddr: 0xB40, symBinAddr: 0x100042A74, symSize: 0x24 }
  - { offset: 0xBA0C6, size: 0x8, addend: 0x0, symName: __RINvNtCsfvfooZQ3Axs_4core3ptr13drop_in_placeINtNvXs5_NtNtCse1nGBsou5OW_5alloc3vec5drainINtBP_5DrainppENtNtNtB4_3ops4drop4Drop4drop9DropGuardNtCs9i5KxIbZ5ph_10proc_macro9TokenTreeNtNtBT_5alloc6GlobalEECs3cP53eQoTwO_11proc_macro2, symObjAddr: 0xB64, symBinAddr: 0x100042A98, symSize: 0x24 }
  - { offset: 0xBA0F5, size: 0x8, addend: 0x0, symName: __RINvNtCsfvfooZQ3Axs_4core3ptr13drop_in_placeINtNvXsd_NtNtCse1nGBsou5OW_5alloc3vec9into_iterINtBP_8IntoIterppENtNtNtB4_3ops4drop4Drop4drop9DropGuardNtCs3cP53eQoTwO_11proc_macro29TokenTreeNtNtBT_5alloc6GlobalEEB2n_, symObjAddr: 0xBAC, symBinAddr: 0x100042ABC, symSize: 0x24 }
  - { offset: 0xBA124, size: 0x8, addend: 0x0, symName: __RINvNtCsfvfooZQ3Axs_4core3ptr13drop_in_placeNtCs3cP53eQoTwO_11proc_macro25GroupEBI_, symObjAddr: 0xBE0, symBinAddr: 0x100042AE0, symSize: 0x24 }
  - { offset: 0xBA153, size: 0x8, addend: 0x0, symName: __RINvNtCsfvfooZQ3Axs_4core3ptr13drop_in_placeNtCs3cP53eQoTwO_11proc_macro25IdentEBI_, symObjAddr: 0xC04, symBinAddr: 0x100042B04, symSize: 0x24 }
  - { offset: 0xBA182, size: 0x8, addend: 0x0, symName: __RINvNtCsfvfooZQ3Axs_4core3ptr13drop_in_placeNtCs3cP53eQoTwO_11proc_macro27LiteralEBI_, symObjAddr: 0xC28, symBinAddr: 0x100042B28, symSize: 0x24 }
  - { offset: 0xBA1B1, size: 0x8, addend: 0x0, symName: __RINvNtCsfvfooZQ3Axs_4core3ptr13drop_in_placeNtCs3cP53eQoTwO_11proc_macro29TokenTreeEBI_, symObjAddr: 0xC6C, symBinAddr: 0x100042B4C, symSize: 0x84 }
  - { offset: 0xBA1E0, size: 0x8, addend: 0x0, symName: __RINvNtCsfvfooZQ3Axs_4core3ptr13drop_in_placeNtCs9i5KxIbZ5ph_10proc_macro11TokenStreamECs3cP53eQoTwO_11proc_macro2, symObjAddr: 0xCF0, symBinAddr: 0x100042BD0, symSize: 0x24 }
  - { offset: 0xBA20F, size: 0x8, addend: 0x0, symName: __RINvNtCsfvfooZQ3Axs_4core3ptr13drop_in_placeNtCs9i5KxIbZ5ph_10proc_macro17ConcatTreesHelperECs3cP53eQoTwO_11proc_macro2, symObjAddr: 0xD14, symBinAddr: 0x100042BF4, symSize: 0x24 }
  - { offset: 0xBA23E, size: 0x8, addend: 0x0, symName: __RINvNtCsfvfooZQ3Axs_4core3ptr13drop_in_placeNtCs9i5KxIbZ5ph_10proc_macro5GroupECs3cP53eQoTwO_11proc_macro2, symObjAddr: 0xD48, symBinAddr: 0x100042C18, symSize: 0x24 }
  - { offset: 0xBA26D, size: 0x8, addend: 0x0, symName: __RINvNtCsfvfooZQ3Axs_4core3ptr13drop_in_placeNtCs9i5KxIbZ5ph_10proc_macro9TokenTreeECs3cP53eQoTwO_11proc_macro2, symObjAddr: 0xD7C, symBinAddr: 0x100042C3C, symSize: 0x58 }
  - { offset: 0xBA29C, size: 0x8, addend: 0x0, symName: __RINvNtCsfvfooZQ3Axs_4core3ptr13drop_in_placeNtNtCs3cP53eQoTwO_11proc_macro23imp11TokenStreamEBK_, symObjAddr: 0xE18, symBinAddr: 0x100042C94, symSize: 0x5C }
  - { offset: 0xBA2CB, size: 0x8, addend: 0x0, symName: __RINvNtCsfvfooZQ3Axs_4core3ptr13drop_in_placeNtNtCs3cP53eQoTwO_11proc_macro23imp19DeferredTokenStreamEBK_, symObjAddr: 0xEC4, symBinAddr: 0x100042CF0, symSize: 0x5C }
  - { offset: 0xBA2FA, size: 0x8, addend: 0x0, symName: __RINvNtCsfvfooZQ3Axs_4core3ptr13drop_in_placeNtNtCs3cP53eQoTwO_11proc_macro23imp5GroupEBK_, symObjAddr: 0xF20, symBinAddr: 0x100042D4C, symSize: 0x50 }
  - { offset: 0xBA329, size: 0x8, addend: 0x0, symName: __RINvNtCsfvfooZQ3Axs_4core3ptr13drop_in_placeNtNtCs3cP53eQoTwO_11proc_macro23imp5IdentEBK_, symObjAddr: 0xF70, symBinAddr: 0x100042D9C, symSize: 0x44 }
  - { offset: 0xBA358, size: 0x8, addend: 0x0, symName: __RINvNtCsfvfooZQ3Axs_4core3ptr13drop_in_placeNtNtCs3cP53eQoTwO_11proc_macro23imp7LiteralEBK_, symObjAddr: 0xFB4, symBinAddr: 0x100042DE0, symSize: 0x48 }
  - { offset: 0xBA387, size: 0x8, addend: 0x0, symName: __RINvNtCsfvfooZQ3Axs_4core3ptr13drop_in_placeNtNtCs3cP53eQoTwO_11proc_macro28fallback11TokenStreamEBK_, symObjAddr: 0xFFC, symBinAddr: 0x100042E28, symSize: 0x5C }
  - { offset: 0xBA3B6, size: 0x8, addend: 0x0, symName: __RINvNtCsfvfooZQ3Axs_4core3ptr13drop_in_placeNtNtCs3cP53eQoTwO_11proc_macro28fallback18TokenStreamBuilderEBK_, symObjAddr: 0x1058, symBinAddr: 0x100042E84, symSize: 0x24 }
  - { offset: 0xBA3E5, size: 0x8, addend: 0x0, symName: __RINvNtCsfvfooZQ3Axs_4core3ptr13drop_in_placeNtNtCs3cP53eQoTwO_11proc_macro28fallback5GroupEBK_, symObjAddr: 0x107C, symBinAddr: 0x100042EA8, symSize: 0x24 }
  - { offset: 0xBA414, size: 0x8, addend: 0x0, symName: __RINvNtCsfvfooZQ3Axs_4core3ptr13drop_in_placeNtNtCs3cP53eQoTwO_11proc_macro28fallback5IdentEBK_, symObjAddr: 0x10A0, symBinAddr: 0x100042ECC, symSize: 0x24 }
  - { offset: 0xBA443, size: 0x8, addend: 0x0, symName: __RINvNtCsfvfooZQ3Axs_4core3ptr13drop_in_placeNtNtCs3cP53eQoTwO_11proc_macro28fallback7LiteralEBK_, symObjAddr: 0x10C4, symBinAddr: 0x100042EF0, symSize: 0x24 }
  - { offset: 0xBA472, size: 0x8, addend: 0x0, symName: __RINvNtCsfvfooZQ3Axs_4core3ptr13drop_in_placeNtNtCse1nGBsou5OW_5alloc6string6StringECs3cP53eQoTwO_11proc_macro2, symObjAddr: 0x111C, symBinAddr: 0x100042F14, symSize: 0x24 }
  - { offset: 0xBA4A1, size: 0x8, addend: 0x0, symName: __RINvNtCsfvfooZQ3Axs_4core3ptr13drop_in_placeNtNtNtCs9i5KxIbZ5ph_10proc_macro6bridge6client11TokenStreamECs3cP53eQoTwO_11proc_macro2, symObjAddr: 0x1160, symBinAddr: 0x100042F38, symSize: 0x24 }
  - { offset: 0xBA4D0, size: 0x8, addend: 0x0, symName: __RINvNtCsfvfooZQ3Axs_4core3ptr13drop_in_placeSINtNtCs3cP53eQoTwO_11proc_macro25rcvec13RcVecIntoIterNtBM_9TokenTreeEEBM_, symObjAddr: 0x11C4, symBinAddr: 0x100042F5C, symSize: 0xB4 }
  - { offset: 0xBA4FF, size: 0x8, addend: 0x0, symName: __RINvNtCsfvfooZQ3Axs_4core3ptr13drop_in_placeSINtNtCs9i5KxIbZ5ph_10proc_macro6bridge9TokenTreeNtNtBK_6client11TokenStreamNtB1v_4SpanNtNtBK_6symbol6SymbolEECs3cP53eQoTwO_11proc_macro2, symObjAddr: 0x1278, symBinAddr: 0x100043010, symSize: 0xC4 }
  - { offset: 0xBA52E, size: 0x8, addend: 0x0, symName: __RINvNtCsfvfooZQ3Axs_4core3ptr13drop_in_placeSNtCs3cP53eQoTwO_11proc_macro29TokenTreeEBJ_, symObjAddr: 0x133C, symBinAddr: 0x1000430D4, symSize: 0xB4 }
  - { offset: 0xBA55D, size: 0x8, addend: 0x0, symName: __RINvNtCsfvfooZQ3Axs_4core3ptr13drop_in_placeSNtCs9i5KxIbZ5ph_10proc_macro9TokenTreeECs3cP53eQoTwO_11proc_macro2, symObjAddr: 0x13F0, symBinAddr: 0x100043188, symSize: 0xC4 }
  - { offset: 0xBA58C, size: 0x8, addend: 0x0, symName: __RINvNtCsfvfooZQ3Axs_4core3ptr13drop_in_placeSTNtCs3cP53eQoTwO_11proc_macro29DelimiterNtNtBK_8fallback18TokenStreamBuilderEEBK_, symObjAddr: 0x14B4, symBinAddr: 0x10004324C, symSize: 0xB4 }
  - { offset: 0xBA5BB, size: 0x8, addend: 0x0, symName: __RINvNtCsfvfooZQ3Axs_4core3ptr13drop_in_placeTNtCs3cP53eQoTwO_11proc_macro29DelimiterNtNtBJ_8fallback18TokenStreamBuilderEEBJ_, symObjAddr: 0x1568, symBinAddr: 0x100043300, symSize: 0x24 }
  - { offset: 0xBA5EA, size: 0x8, addend: 0x0, symName: __RINvNtCsfvfooZQ3Axs_4core3ptr13drop_in_placeTNtNtCs3cP53eQoTwO_11proc_macro25parse6CursorNtBL_5IdentEEBL_, symObjAddr: 0x158C, symBinAddr: 0x100043324, symSize: 0x24 }
  - { offset: 0xBB16C, size: 0x8, addend: 0x0, symName: __RNvXs1a_NtCsfvfooZQ3Axs_4core3fmtRNtNtCs3cP53eQoTwO_11proc_macro28fallback4SpanNtB6_5Debug3fmtBA_, symObjAddr: 0x253C, symBinAddr: 0x100043D94, symSize: 0x30 }
  - { offset: 0xBB512, size: 0x8, addend: 0x0, symName: __RINvNtNtCsfvfooZQ3Axs_4core4sync6atomic11atomic_loadOuECs3cP53eQoTwO_11proc_macro2, symObjAddr: 0x15D0, symBinAddr: 0x100043348, symSize: 0x14C }
  - { offset: 0xBB584, size: 0x8, addend: 0x0, symName: __RINvNtNtCsfvfooZQ3Axs_4core4sync6atomic11atomic_loadjECs3cP53eQoTwO_11proc_macro2, symObjAddr: 0x171C, symBinAddr: 0x100043494, symSize: 0x14C }
  - { offset: 0xBB5F6, size: 0x8, addend: 0x0, symName: __RINvNtNtCsfvfooZQ3Axs_4core4sync6atomic12atomic_storejECs3cP53eQoTwO_11proc_macro2, symObjAddr: 0x1868, symBinAddr: 0x1000435E0, symSize: 0x150 }
  - { offset: 0xBBA34, size: 0x8, addend: 0x0, symName: __RNvNtNtCsfvfooZQ3Axs_4core5slice6memchr6memchrCs3cP53eQoTwO_11proc_macro2, symObjAddr: 0x2058, symBinAddr: 0x100043920, symSize: 0x114 }
  - { offset: 0xBBAAF, size: 0x8, addend: 0x0, symName: __RNvXs_NtNtNtCsfvfooZQ3Axs_4core4iter8adapters9enumerateINtB4_9EnumerateINtNtNtBa_5slice4iter4IterNtCs3cP53eQoTwO_11proc_macro29TokenTreeEENtNtNtB8_6traits8iterator8Iterator4nextB1z_, symObjAddr: 0x2DB8, symBinAddr: 0x1000442C8, symSize: 0xE0 }
  - { offset: 0xBBB89, size: 0x8, addend: 0x0, symName: __RNvXs_NtNtNtCsfvfooZQ3Axs_4core4iter8adapters9enumerateINtB4_9EnumerateINtNtNtBa_5slice4iter4IterNtCs9i5KxIbZ5ph_10proc_macro9TokenTreeEENtNtNtB8_6traits8iterator8Iterator4nextCs3cP53eQoTwO_11proc_macro2, symObjAddr: 0x2E98, symBinAddr: 0x1000443A8, symSize: 0xE0 }
  - { offset: 0xBBC63, size: 0x8, addend: 0x0, symName: __RNvXs_NtNtNtCsfvfooZQ3Axs_4core4iter8adapters9enumerateINtB4_9EnumerateNtNtNtBa_3str4iter5BytesENtNtNtB8_6traits8iterator8Iterator4nextCs3cP53eQoTwO_11proc_macro2, symObjAddr: 0x2F78, symBinAddr: 0x100044488, symSize: 0xF0 }
  - { offset: 0xBBDF0, size: 0x8, addend: 0x0, symName: __RNvXNtNtNtCsfvfooZQ3Axs_4core4iter6traits7collectINtNtNtB6_8adapters9enumerate9EnumerateINtNtNtB8_5slice4iter4IterNtCs3cP53eQoTwO_11proc_macro29TokenTreeEENtB2_12IntoIterator9into_iterB1Q_, symObjAddr: 0x21F4, symBinAddr: 0x100043ABC, symSize: 0x18 }
  - { offset: 0xBBE27, size: 0x8, addend: 0x0, symName: __RNvXNtNtNtCsfvfooZQ3Axs_4core4iter6traits7collectINtNtNtB6_8adapters9enumerate9EnumerateNtNtNtB8_3str4iter5BytesENtB2_12IntoIterator9into_iterCs3cP53eQoTwO_11proc_macro2, symObjAddr: 0x220C, symBinAddr: 0x100043AD4, symSize: 0x18 }
  - { offset: 0xBBE71, size: 0x8, addend: 0x0, symName: __RNSNvYNCINvMs0_NtNtNtCscOYdFFY2T5N_3std4sync6poison4onceNtBd_4Once9call_onceNvNtCs3cP53eQoTwO_11proc_macro29detection10initializeE0INtNtNtCsfvfooZQ3Axs_4core3ops8function6FnOnceTRNtBd_9OnceStateEE9call_once6vtableB1g_, symObjAddr: 0x1D20, symBinAddr: 0x100043730, symSize: 0x30 }
  - { offset: 0xBBEB1, size: 0x8, addend: 0x0, symName: __RNvYNCINvMs0_NtNtNtCscOYdFFY2T5N_3std4sync6poison4onceNtBb_4Once9call_onceNvNtCs3cP53eQoTwO_11proc_macro29detection10initializeE0INtNtNtCsfvfooZQ3Axs_4core3ops8function6FnOnceTRNtBb_9OnceStateEE9call_onceB1e_, symObjAddr: 0x32A0, symBinAddr: 0x1000445DC, symSize: 0x4C }
  - { offset: 0xBBEF1, size: 0x8, addend: 0x0, symName: __RNvYNvNtCs3cP53eQoTwO_11proc_macro29detection10initializeINtNtNtCsfvfooZQ3Axs_4core3ops8function6FnOnceuE9call_onceB6_, symObjAddr: 0x3310, symBinAddr: 0x100044628, symSize: 0x1C }
  - { offset: 0xBBF31, size: 0x8, addend: 0x0, symName: __RNvYNvYcINtNtCsfvfooZQ3Axs_4core7convert4FromhE4fromINtNtNtBb_3ops8function6FnOnceThEE9call_onceCs3cP53eQoTwO_11proc_macro2, symObjAddr: 0x332C, symBinAddr: 0x100044644, symSize: 0x24 }
  - { offset: 0xBBF75, size: 0x8, addend: 0x0, symName: __RNvYNvYeNtNtCse1nGBsou5OW_5alloc6borrow7ToOwned8to_ownedINtNtNtCsfvfooZQ3Axs_4core3ops8function6FnOnceTReEE9call_onceCs3cP53eQoTwO_11proc_macro2, symObjAddr: 0x3350, symBinAddr: 0x100044668, symSize: 0x2C }
  - { offset: 0xBBFC5, size: 0x8, addend: 0x0, symName: __RNvXNtNtCsfvfooZQ3Axs_4core3ops12control_flowINtB2_11ControlFlowuENtNtB4_9try_trait3Try11from_outputCs3cP53eQoTwO_11proc_macro2, symObjAddr: 0x21A4, symBinAddr: 0x100043A6C, symSize: 0x18 }
  - { offset: 0xBC003, size: 0x8, addend: 0x0, symName: __RNvXNtNtCsfvfooZQ3Axs_4core3ops12control_flowINtB2_11ControlFlowuENtNtB4_9try_trait3Try6branchCs3cP53eQoTwO_11proc_macro2, symObjAddr: 0x21BC, symBinAddr: 0x100043A84, symSize: 0x38 }
  - { offset: 0xBC081, size: 0x8, addend: 0x0, symName: __RNvXs7_NtNtCsfvfooZQ3Axs_4core3ops12control_flowINtB5_11ControlFlowuENtNtB9_3cmp9PartialEq2eqCs3cP53eQoTwO_11proc_macro2, symObjAddr: 0x2B48, symBinAddr: 0x1000441C0, symSize: 0xEC }
  - { offset: 0xBC1A0, size: 0x8, addend: 0x0, symName: __RNvXs_NtNtCsfvfooZQ3Axs_4core3ops12control_flowINtB4_11ControlFlowuEINtNtB6_9try_trait12FromResidualIBK_uNtNtB8_7convert10InfallibleEE13from_residualCs3cP53eQoTwO_11proc_macro2, symObjAddr: 0x2CBC, symBinAddr: 0x1000442AC, symSize: 0x1C }
  - { offset: 0xBD0D0, size: 0x8, addend: 0x0, symName: __RNvXs1_NtNtCse1nGBsou5OW_5alloc5boxed7convertINtB7_3BoxShEINtB5_12BoxFromSlicehE10from_sliceCs3cP53eQoTwO_11proc_macro2, symObjAddr: 0x2408, symBinAddr: 0x100043C60, symSize: 0x134 }
  - { offset: 0xBD30C, size: 0x8, addend: 0x0, symName: __RNvXs5_NtNtCse1nGBsou5OW_5alloc5boxed7convertINtB7_3BoxeEINtNtCsfvfooZQ3Axs_4core7convert4FromReE4fromCs3cP53eQoTwO_11proc_macro2, symObjAddr: 0x2920, symBinAddr: 0x100043FCC, symSize: 0x74 }
  - { offset: 0xBD442, size: 0x8, addend: 0x0, symName: __RNvXs6_NtCse1nGBsou5OW_5alloc5boxedINtB5_3BoxDNtNtCsfvfooZQ3Axs_4core3any3AnyNtNtBM_6marker4SendEL_ENtNtNtBM_3ops4drop4Drop4dropCs3cP53eQoTwO_11proc_macro2, symObjAddr: 0x2994, symBinAddr: 0x100044040, symSize: 0xC4 }
  - { offset: 0xBD579, size: 0x8, addend: 0x0, symName: __RNvXs6_NtCse1nGBsou5OW_5alloc5boxedINtB5_3BoxeENtNtNtCsfvfooZQ3Axs_4core3ops4drop4Drop4dropCs3cP53eQoTwO_11proc_macro2, symObjAddr: 0x2A58, symBinAddr: 0x100044104, symSize: 0xBC }
  - { offset: 0xBD6B6, size: 0x8, addend: 0x0, symName: __RNvXsj_NtCse1nGBsou5OW_5alloc5boxedINtB5_3BoxeENtNtCsfvfooZQ3Axs_4core3fmt7Display3fmtCs3cP53eQoTwO_11proc_macro2, symObjAddr: 0x30AC, symBinAddr: 0x100044578, symSize: 0x3C }
  - { offset: 0xBD711, size: 0x8, addend: 0x0, symName: __RNvXs2_NtCse1nGBsou5OW_5alloc3streNtNtB7_6borrow7ToOwned8to_ownedCs3cP53eQoTwO_11proc_macro2, symObjAddr: 0x2880, symBinAddr: 0x100043F54, symSize: 0x50 }
  - { offset: 0xBDC2B, size: 0x8, addend: 0x0, symName: __RNvXs10_NtCs9i5KxIbZ5ph_10proc_macro6bridgeINtB6_9DelimSpanNtNtB6_6client4SpanENtNtCsfvfooZQ3Axs_4core5clone5Clone5cloneCs3cP53eQoTwO_11proc_macro2, symObjAddr: 0x2294, symBinAddr: 0x100043AEC, symSize: 0xA0 }
  - { offset: 0xBDC68, size: 0x8, addend: 0x0, symName: __RNvXs15_NtCs9i5KxIbZ5ph_10proc_macro6bridgeINtB6_5GroupNtNtB6_6client11TokenStreamNtBT_4SpanENtNtCsfvfooZQ3Axs_4core5clone5Clone5cloneCs3cP53eQoTwO_11proc_macro2, symObjAddr: 0x2334, symBinAddr: 0x100043B8C, symSize: 0xD4 }
  - { offset: 0xBDD00, size: 0x8, addend: 0x0, symName: __RNvXs1g_NtCs9i5KxIbZ5ph_10proc_macro6bridgeINtB6_5IdentNtNtB6_6client4SpanNtNtB6_6symbol6SymbolENtNtCsfvfooZQ3Axs_4core5clone5Clone5cloneCs3cP53eQoTwO_11proc_macro2, symObjAddr: 0x259C, symBinAddr: 0x100043DC4, symSize: 0x88 }
  - { offset: 0xBDD6A, size: 0x8, addend: 0x0, symName: __RNvXs1o_NtCs9i5KxIbZ5ph_10proc_macro6bridgeINtB6_7LiteralNtNtB6_6client4SpanNtNtB6_6symbol6SymbolENtNtCsfvfooZQ3Axs_4core5clone5Clone5cloneCs3cP53eQoTwO_11proc_macro2, symObjAddr: 0x2624, symBinAddr: 0x100043E4C, symSize: 0x108 }
  - { offset: 0xBE12C, size: 0x8, addend: 0x0, symName: __RINvMs_NtNtCsfvfooZQ3Axs_4core3fmt2rtNtB5_8Argument11new_displayNtNtCse1nGBsou5OW_5alloc6string6StringECs3cP53eQoTwO_11proc_macro2, symObjAddr: 0x0, symBinAddr: 0x100042278, symSize: 0x2C }
  - { offset: 0xBE227, size: 0x8, addend: 0x0, symName: __RINvMs_NtNtCsfvfooZQ3Axs_4core3fmt2rtNtB5_8Argument11new_displayReECs3cP53eQoTwO_11proc_macro2, symObjAddr: 0x84, symBinAddr: 0x1000422A4, symSize: 0x2C }
  - { offset: 0xBE347, size: 0x8, addend: 0x0, symName: __RINvMs_NtNtCsfvfooZQ3Axs_4core3fmt2rtNtB5_8Argument11new_displayhECs3cP53eQoTwO_11proc_macro2, symObjAddr: 0x134, symBinAddr: 0x1000422D0, symSize: 0x2C }
  - { offset: 0xBE460, size: 0x8, addend: 0x0, symName: __RINvMs_NtNtCsfvfooZQ3Axs_4core3fmt2rtNtB5_8Argument11new_displaymECs3cP53eQoTwO_11proc_macro2, symObjAddr: 0x1E4, symBinAddr: 0x1000422FC, symSize: 0x2C }
  - { offset: 0xBE5E2, size: 0x8, addend: 0x0, symName: __RINvMs_NtNtCsfvfooZQ3Axs_4core3fmt2rtNtB5_8Argument11new_displayyECs3cP53eQoTwO_11proc_macro2, symObjAddr: 0x2EC, symBinAddr: 0x100042328, symSize: 0x2C }
  - { offset: 0xBE645, size: 0x8, addend: 0x0, symName: __RINvMs_NtNtCsfvfooZQ3Axs_4core3fmt2rtNtB5_8Argument9new_debugReECs3cP53eQoTwO_11proc_macro2, symObjAddr: 0x344, symBinAddr: 0x100042354, symSize: 0x2C }
  - { offset: 0xBE6D2, size: 0x8, addend: 0x0, symName: __RINvMs_NtNtCsfvfooZQ3Axs_4core3fmt2rtNtB5_8Argument9new_debugcECs3cP53eQoTwO_11proc_macro2, symObjAddr: 0x370, symBinAddr: 0x100042380, symSize: 0x2C }
  - { offset: 0xBE83E, size: 0x8, addend: 0x0, symName: __RNvMs1_NtNtCsfvfooZQ3Axs_4core3ptr8non_nullINtB5_7NonNullNtCs3cP53eQoTwO_11proc_macro29TokenTreeE7sub_ptrBV_, symObjAddr: 0x1E98, symBinAddr: 0x100043760, symSize: 0x74 }
  - { offset: 0xBE944, size: 0x8, addend: 0x0, symName: __RNvMs1_NtNtCsfvfooZQ3Axs_4core3ptr8non_nullINtB5_7NonNullNtCs9i5KxIbZ5ph_10proc_macro9TokenTreeE7sub_ptrCs3cP53eQoTwO_11proc_macro2, symObjAddr: 0x1F0C, symBinAddr: 0x1000437D4, symSize: 0x74 }
  - { offset: 0xBEA3D, size: 0x8, addend: 0x0, symName: __RNvMs1_NtNtCsfvfooZQ3Axs_4core3ptr8non_nullINtB5_7NonNullhE7sub_ptrCs3cP53eQoTwO_11proc_macro2, symObjAddr: 0x1F80, symBinAddr: 0x100043848, symSize: 0x74 }
  - { offset: 0xBEB1A, size: 0x8, addend: 0x0, symName: __RNvMs1e_NtNtCsfvfooZQ3Axs_4core4sync6atomicNtB6_11AtomicUsize4loadCs3cP53eQoTwO_11proc_macro2, symObjAddr: 0x1FF4, symBinAddr: 0x1000438BC, symSize: 0x30 }
  - { offset: 0xBEB4C, size: 0x8, addend: 0x0, symName: __RNvMs1e_NtNtCsfvfooZQ3Axs_4core4sync6atomicNtB6_11AtomicUsize5storeCs3cP53eQoTwO_11proc_macro2, symObjAddr: 0x2024, symBinAddr: 0x1000438EC, symSize: 0x34 }
  - { offset: 0xBF030, size: 0x8, addend: 0x0, symName: __RNvMNtCs3cP53eQoTwO_11proc_macro28fallbackNtB2_8LexError9call_site, symObjAddr: 0x33E4, symBinAddr: 0x100044694, symSize: 0x24 }
  - { offset: 0xBF043, size: 0x8, addend: 0x0, symName: __RNvMs_NtCs3cP53eQoTwO_11proc_macro28fallbackNtB4_11TokenStream3new, symObjAddr: 0x3408, symBinAddr: 0x1000446B8, symSize: 0x3C }
  - { offset: 0xBF056, size: 0x8, addend: 0x0, symName: __RNvMs_NtCs3cP53eQoTwO_11proc_macro28fallbackNtB4_11TokenStream16from_str_checked, symObjAddr: 0x3444, symBinAddr: 0x1000446F4, symSize: 0xB4 }
  - { offset: 0xBF0A2, size: 0x8, addend: 0x0, symName: __RNvMs_NtCs3cP53eQoTwO_11proc_macro28fallbackNtB4_11TokenStream10take_inner, symObjAddr: 0x35D4, symBinAddr: 0x1000447A8, symSize: 0x5C }
  - { offset: 0xBF0E1, size: 0x8, addend: 0x0, symName: __RNvMs1_NtCs3cP53eQoTwO_11proc_macro28fallbackNtB5_18TokenStreamBuilder3new, symObjAddr: 0x3E44, symBinAddr: 0x100044ED4, symSize: 0x48 }
  - { offset: 0xBF0F4, size: 0x8, addend: 0x0, symName: __RNvMs1_NtCs3cP53eQoTwO_11proc_macro28fallbackNtB5_18TokenStreamBuilder13with_capacity, symObjAddr: 0x3E8C, symBinAddr: 0x100044F1C, symSize: 0x4C }
  - { offset: 0xBF123, size: 0x8, addend: 0x0, symName: __RNvMs1_NtCs3cP53eQoTwO_11proc_macro28fallbackNtB5_18TokenStreamBuilder22push_token_from_parser, symObjAddr: 0x3ED8, symBinAddr: 0x100044F68, symSize: 0x34 }
  - { offset: 0xBF154, size: 0x8, addend: 0x0, symName: __RNvMs1_NtCs3cP53eQoTwO_11proc_macro28fallbackNtB5_18TokenStreamBuilder5build, symObjAddr: 0x3F0C, symBinAddr: 0x100044F9C, symSize: 0x44 }
  - { offset: 0xBF177, size: 0x8, addend: 0x0, symName: __RNvMsd_NtCs3cP53eQoTwO_11proc_macro28fallbackNtB5_4Span9call_site, symObjAddr: 0x45B4, symBinAddr: 0x100045354, symSize: 0x14 }
  - { offset: 0xBF18A, size: 0x8, addend: 0x0, symName: __RNvMsf_NtCs3cP53eQoTwO_11proc_macro28fallbackNtB5_5Group3new, symObjAddr: 0x4734, symBinAddr: 0x1000453BC, symSize: 0x74 }
  - { offset: 0xBF1D6, size: 0x8, addend: 0x0, symName: __RNvMsf_NtCs3cP53eQoTwO_11proc_macro28fallbackNtB5_5Group8set_span, symObjAddr: 0x4884, symBinAddr: 0x100045430, symSize: 0x20 }
  - { offset: 0xBF214, size: 0x8, addend: 0x0, symName: __RNvMsi_NtCs3cP53eQoTwO_11proc_macro28fallbackNtB5_5Ident11new_checked, symObjAddr: 0x4C60, symBinAddr: 0x100045754, symSize: 0x54 }
  - { offset: 0xBF252, size: 0x8, addend: 0x0, symName: __RNvMsi_NtCs3cP53eQoTwO_11proc_macro28fallbackNtB5_5Ident13new_unchecked, symObjAddr: 0x4CB4, symBinAddr: 0x1000457A8, symSize: 0x4C }
  - { offset: 0xBF290, size: 0x8, addend: 0x0, symName: __RNvMsi_NtCs3cP53eQoTwO_11proc_macro28fallbackNtB5_5Ident15new_raw_checked, symObjAddr: 0x4D00, symBinAddr: 0x1000457F4, symSize: 0x54 }
  - { offset: 0xBF2CE, size: 0x8, addend: 0x0, symName: __RNvMsi_NtCs3cP53eQoTwO_11proc_macro28fallbackNtB5_5Ident17new_raw_unchecked, symObjAddr: 0x4D54, symBinAddr: 0x100045848, symSize: 0x50 }
  - { offset: 0xBF319, size: 0x8, addend: 0x0, symName: __RNvMsi_NtCs3cP53eQoTwO_11proc_macro28fallbackNtB5_5Ident8set_span, symObjAddr: 0x4DC4, symBinAddr: 0x100045898, symSize: 0x20 }
  - { offset: 0xBF382, size: 0x8, addend: 0x0, symName: __RNvMsn_NtCs3cP53eQoTwO_11proc_macro28fallbackNtB5_7Literal4__new, symObjAddr: 0x5518, symBinAddr: 0x100045EAC, symSize: 0x80 }
  - { offset: 0xBF3A6, size: 0x8, addend: 0x0, symName: __RNvMsn_NtCs3cP53eQoTwO_11proc_macro28fallbackNtB5_7Literal6string, symObjAddr: 0x5ABC, symBinAddr: 0x100045F2C, symSize: 0x110 }
  - { offset: 0xBF420, size: 0x8, addend: 0x0, symName: __RNvMsn_NtCs3cP53eQoTwO_11proc_macro28fallbackNtB5_7Literal8set_span, symObjAddr: 0x6BC8, symBinAddr: 0x10004603C, symSize: 0x20 }
  - { offset: 0xBF45E, size: 0x8, addend: 0x0, symName: __RNvMsn_NtCs3cP53eQoTwO_11proc_macro28fallbackNtB5_7Literal11u8_suffixed, symObjAddr: 0x75B0, symBinAddr: 0x1000464DC, symSize: 0x88 }
  - { offset: 0xBF49F, size: 0x8, addend: 0x0, symName: __RNvMsn_NtCs3cP53eQoTwO_11proc_macro28fallbackNtB5_7Literal12u32_suffixed, symObjAddr: 0x76C0, symBinAddr: 0x100046564, symSize: 0x88 }
  - { offset: 0xBF4E0, size: 0x8, addend: 0x0, symName: __RNvMsn_NtCs3cP53eQoTwO_11proc_macro28fallbackNtB5_7Literal12u64_suffixed, symObjAddr: 0x7748, symBinAddr: 0x1000465EC, symSize: 0x88 }
  - { offset: 0xBFB93, size: 0x8, addend: 0x0, symName: __RNvMNtCs3cP53eQoTwO_11proc_macro25parseNtB2_6Cursor7advance, symObjAddr: 0x0, symBinAddr: 0x100046674, symSize: 0x6C }
  - { offset: 0xC0028, size: 0x8, addend: 0x0, symName: __RNvNtCs3cP53eQoTwO_11proc_macro25parse15skip_whitespace, symObjAddr: 0x360, symBinAddr: 0x100046994, symSize: 0x4FC }
  - { offset: 0xC00EC, size: 0x8, addend: 0x0, symName: __RNvNtCs3cP53eQoTwO_11proc_macro25parse13block_comment, symObjAddr: 0x85C, symBinAddr: 0x100046E90, symSize: 0x494 }
  - { offset: 0xC016F, size: 0x8, addend: 0x0, symName: __RNvNtCs3cP53eQoTwO_11proc_macro25parse13is_whitespace, symObjAddr: 0xCF0, symBinAddr: 0x100047324, symSize: 0xAC }
  - { offset: 0xC019B, size: 0x8, addend: 0x0, symName: __RNvNtCs3cP53eQoTwO_11proc_macro25parse10word_break, symObjAddr: 0xD9C, symBinAddr: 0x1000473D0, symSize: 0xD8 }
  - { offset: 0xC01F3, size: 0x8, addend: 0x0, symName: __RNvNtCs3cP53eQoTwO_11proc_macro25parse12token_stream, symObjAddr: 0xE74, symBinAddr: 0x1000474A8, symSize: 0x984 }
  - { offset: 0xC03A7, size: 0x8, addend: 0x0, symName: __RNvNtCs3cP53eQoTwO_11proc_macro25parse9lex_error, symObjAddr: 0x17F8, symBinAddr: 0x100047E2C, symSize: 0x24 }
  - { offset: 0xC03CF, size: 0x8, addend: 0x0, symName: __RNvNtCs3cP53eQoTwO_11proc_macro25parse10leaf_token, symObjAddr: 0x181C, symBinAddr: 0x100047E50, symSize: 0x4BC }
  - { offset: 0xC04B1, size: 0x8, addend: 0x0, symName: __RNvNtCs3cP53eQoTwO_11proc_macro25parse5ident, symObjAddr: 0x1CD8, symBinAddr: 0x10004830C, symSize: 0xAC }
  - { offset: 0xC04E4, size: 0x8, addend: 0x0, symName: __RNCNvNtCs3cP53eQoTwO_11proc_macro25parse5ident0B5_, symObjAddr: 0x1D84, symBinAddr: 0x1000483B8, symSize: 0x4C }
  - { offset: 0xC0525, size: 0x8, addend: 0x0, symName: __RNvNtCs3cP53eQoTwO_11proc_macro25parse9ident_any, symObjAddr: 0x1DD0, symBinAddr: 0x100048404, symSize: 0x324 }
  - { offset: 0xC0614, size: 0x8, addend: 0x0, symName: __RNvNtCs3cP53eQoTwO_11proc_macro25parse13ident_not_raw, symObjAddr: 0x20F4, symBinAddr: 0x100048728, symSize: 0x200 }
  - { offset: 0xC06AD, size: 0x8, addend: 0x0, symName: __RNvNtCs3cP53eQoTwO_11proc_macro25parse7literal, symObjAddr: 0x22F4, symBinAddr: 0x100048928, symSize: 0x170 }
  - { offset: 0xC074C, size: 0x8, addend: 0x0, symName: __RNvNtCs3cP53eQoTwO_11proc_macro25parse17literal_nocapture, symObjAddr: 0x2464, symBinAddr: 0x100048A98, symSize: 0x2E8 }
  - { offset: 0xC0821, size: 0x8, addend: 0x0, symName: __RNvNtCs3cP53eQoTwO_11proc_macro25parse14literal_suffix, symObjAddr: 0x274C, symBinAddr: 0x100048D80, symSize: 0xA8 }
  - { offset: 0xC086D, size: 0x8, addend: 0x0, symName: __RNvNtCs3cP53eQoTwO_11proc_macro25parse6string, symObjAddr: 0x27F4, symBinAddr: 0x100048E28, symSize: 0x118 }
  - { offset: 0xC08CF, size: 0x8, addend: 0x0, symName: __RNvNtCs3cP53eQoTwO_11proc_macro25parse13cooked_string, symObjAddr: 0x290C, symBinAddr: 0x100048F40, symSize: 0x47C }
  - { offset: 0xC09DD, size: 0x8, addend: 0x0, symName: __RNvNtCs3cP53eQoTwO_11proc_macro25parse10raw_string, symObjAddr: 0x2D88, symBinAddr: 0x1000493BC, symSize: 0x2D0 }
  - { offset: 0xC0AAD, size: 0x8, addend: 0x0, symName: __RNvNtCs3cP53eQoTwO_11proc_macro25parse11byte_string, symObjAddr: 0x3058, symBinAddr: 0x10004968C, symSize: 0x120 }
  - { offset: 0xC0B0F, size: 0x8, addend: 0x0, symName: __RNvNtCs3cP53eQoTwO_11proc_macro25parse18cooked_byte_string, symObjAddr: 0x3178, symBinAddr: 0x1000497AC, symSize: 0x410 }
  - { offset: 0xC0BFE, size: 0x8, addend: 0x0, symName: __RNvNtCs3cP53eQoTwO_11proc_macro25parse23delimiter_of_raw_string, symObjAddr: 0x3588, symBinAddr: 0x100049BBC, symSize: 0x1C4 }
  - { offset: 0xC0C6A, size: 0x8, addend: 0x0, symName: __RNvNtCs3cP53eQoTwO_11proc_macro25parse15raw_byte_string, symObjAddr: 0x374C, symBinAddr: 0x100049D80, symSize: 0x304 }
  - { offset: 0xC0D59, size: 0x8, addend: 0x0, symName: __RNvNtCs3cP53eQoTwO_11proc_macro25parse8c_string, symObjAddr: 0x3A50, symBinAddr: 0x10004A084, symSize: 0x120 }
  - { offset: 0xC0DBB, size: 0x8, addend: 0x0, symName: __RNvNtCs3cP53eQoTwO_11proc_macro25parse12raw_c_string, symObjAddr: 0x3B70, symBinAddr: 0x10004A1A4, symSize: 0x2F8 }
  - { offset: 0xC0E8B, size: 0x8, addend: 0x0, symName: __RNvNtCs3cP53eQoTwO_11proc_macro25parse15cooked_c_string, symObjAddr: 0x3E68, symBinAddr: 0x10004A49C, symSize: 0x4B4 }
  - { offset: 0xC0F99, size: 0x8, addend: 0x0, symName: __RNvNtCs3cP53eQoTwO_11proc_macro25parse4byte, symObjAddr: 0x431C, symBinAddr: 0x10004A950, symSize: 0x40C }
  - { offset: 0xC10D9, size: 0x8, addend: 0x0, symName: __RNCNvNtCs3cP53eQoTwO_11proc_macro25parse4byte0B5_, symObjAddr: 0x4728, symBinAddr: 0x10004AD5C, symSize: 0x30 }
  - { offset: 0xC110E, size: 0x8, addend: 0x0, symName: __RNCNvNtCs3cP53eQoTwO_11proc_macro25parse4bytes_0B5_, symObjAddr: 0x4758, symBinAddr: 0x10004AD8C, symSize: 0x30 }
  - { offset: 0xC1152, size: 0x8, addend: 0x0, symName: __RNvNtCs3cP53eQoTwO_11proc_macro25parse9character, symObjAddr: 0x4788, symBinAddr: 0x10004ADBC, symSize: 0x3C0 }
  - { offset: 0xC1290, size: 0x8, addend: 0x0, symName: __RNCNvNtCs3cP53eQoTwO_11proc_macro25parse9character0B5_, symObjAddr: 0x4B48, symBinAddr: 0x10004B17C, symSize: 0x30 }
  - { offset: 0xC12C5, size: 0x8, addend: 0x0, symName: __RNCNvNtCs3cP53eQoTwO_11proc_macro25parse9characters_0B5_, symObjAddr: 0x4B78, symBinAddr: 0x10004B1AC, symSize: 0x30 }
  - { offset: 0xC1309, size: 0x8, addend: 0x0, symName: __RINvNtCs3cP53eQoTwO_11proc_macro25parse16backslash_x_charNtNtNtCsfvfooZQ3Axs_4core3str4iter11CharIndicesEB4_, symObjAddr: 0x4BA8, symBinAddr: 0x10004B1DC, symSize: 0x1D8 }
  - { offset: 0xC136C, size: 0x8, addend: 0x0, symName: __RINvNtCs3cP53eQoTwO_11proc_macro25parse16backslash_x_byteINtNtNtNtCsfvfooZQ3Axs_4core4iter8adapters9enumerate9EnumerateNtNtNtB12_3str4iter5BytesEEB4_, symObjAddr: 0x4D80, symBinAddr: 0x10004B3B4, symSize: 0x230 }
  - { offset: 0xC13CF, size: 0x8, addend: 0x0, symName: __RINvNtCs3cP53eQoTwO_11proc_macro25parse19backslash_x_nonzeroNtNtNtCsfvfooZQ3Axs_4core3str4iter11CharIndicesEB4_, symObjAddr: 0x4FB0, symBinAddr: 0x10004B5E4, symSize: 0x2AC }
  - { offset: 0xC145E, size: 0x8, addend: 0x0, symName: __RINvNtCs3cP53eQoTwO_11proc_macro25parse11backslash_uNtNtNtCsfvfooZQ3Axs_4core3str4iter11CharIndicesEB4_, symObjAddr: 0x525C, symBinAddr: 0x10004B890, symSize: 0x46C }
  - { offset: 0xC1519, size: 0x8, addend: 0x0, symName: __RNvNtCs3cP53eQoTwO_11proc_macro25parse18trailing_backslash, symObjAddr: 0x56C8, symBinAddr: 0x10004BCFC, symSize: 0x184 }
  - { offset: 0xC15AD, size: 0x8, addend: 0x0, symName: __RNCNvNtCs3cP53eQoTwO_11proc_macro25parse18trailing_backslash0B5_, symObjAddr: 0x584C, symBinAddr: 0x10004BE80, symSize: 0x34 }
  - { offset: 0xC1608, size: 0x8, addend: 0x0, symName: __RNvNtCs3cP53eQoTwO_11proc_macro25parse5float, symObjAddr: 0x5880, symBinAddr: 0x10004BEB4, symSize: 0x1E0 }
  - { offset: 0xC16BC, size: 0x8, addend: 0x0, symName: __RNvNtCs3cP53eQoTwO_11proc_macro25parse12float_digits, symObjAddr: 0x5A60, symBinAddr: 0x10004C094, symSize: 0x670 }
  - { offset: 0xC17BB, size: 0x8, addend: 0x0, symName: __RNCNvNtCs3cP53eQoTwO_11proc_macro25parse12float_digits0B5_, symObjAddr: 0x60D0, symBinAddr: 0x10004C704, symSize: 0x80 }
  - { offset: 0xC180E, size: 0x8, addend: 0x0, symName: __RNvNtCs3cP53eQoTwO_11proc_macro25parse3int, symObjAddr: 0x6150, symBinAddr: 0x10004C784, symSize: 0x1E0 }
  - { offset: 0xC18C2, size: 0x8, addend: 0x0, symName: __RNvNtCs3cP53eQoTwO_11proc_macro25parse6digits, symObjAddr: 0x6330, symBinAddr: 0x10004C964, symSize: 0x550 }
  - { offset: 0xC19B1, size: 0x8, addend: 0x0, symName: __RNvNtCs3cP53eQoTwO_11proc_macro25parse5punct, symObjAddr: 0x6880, symBinAddr: 0x10004CEB4, symSize: 0x37C }
  - { offset: 0xC1A89, size: 0x8, addend: 0x0, symName: __RNvNtCs3cP53eQoTwO_11proc_macro25parse10punct_char, symObjAddr: 0x6BFC, symBinAddr: 0x10004D230, symSize: 0x1B0 }
  - { offset: 0xC1AF9, size: 0x8, addend: 0x0, symName: __RNvNtCs3cP53eQoTwO_11proc_macro25parse11doc_comment, symObjAddr: 0x6DAC, symBinAddr: 0x10004D3E0, symSize: 0x5EC }
  - { offset: 0xC1CC1, size: 0x8, addend: 0x0, symName: __RNvNtCs3cP53eQoTwO_11proc_macro25parse20doc_comment_contents, symObjAddr: 0x7398, symBinAddr: 0x10004D9CC, symSize: 0x534 }
  - { offset: 0xC1E11, size: 0x8, addend: 0x0, symName: __RNvNtCs3cP53eQoTwO_11proc_macro25parse25take_until_newline_or_eof, symObjAddr: 0x78CC, symBinAddr: 0x10004DF00, symSize: 0x28C }
  - { offset: 0xC22CA, size: 0x8, addend: 0x0, symName: __RNvMNtCs3cP53eQoTwO_11proc_macro25parseNtB2_6Cursor7advance, symObjAddr: 0x0, symBinAddr: 0x100046674, symSize: 0x6C }
  - { offset: 0xC2301, size: 0x8, addend: 0x0, symName: __RNvMNtCs3cP53eQoTwO_11proc_macro25parseNtB2_6Cursor11starts_with, symObjAddr: 0x6C, symBinAddr: 0x1000466E0, symSize: 0x58 }
  - { offset: 0xC2338, size: 0x8, addend: 0x0, symName: __RNvMNtCs3cP53eQoTwO_11proc_macro25parseNtB2_6Cursor16starts_with_char, symObjAddr: 0xC4, symBinAddr: 0x100046738, symSize: 0x48 }
  - { offset: 0xC2368, size: 0x8, addend: 0x0, symName: __RNvMNtCs3cP53eQoTwO_11proc_macro25parseNtB2_6Cursor8is_empty, symObjAddr: 0x14C, symBinAddr: 0x100046780, symSize: 0x40 }
  - { offset: 0xC238A, size: 0x8, addend: 0x0, symName: __RNvMNtCs3cP53eQoTwO_11proc_macro25parseNtB2_6Cursor3len, symObjAddr: 0x18C, symBinAddr: 0x1000467C0, symSize: 0x40 }
  - { offset: 0xC23CA, size: 0x8, addend: 0x0, symName: __RNvMNtCs3cP53eQoTwO_11proc_macro25parseNtB2_6Cursor8as_bytes, symObjAddr: 0x1CC, symBinAddr: 0x100046800, symSize: 0x38 }
  - { offset: 0xC2FDA, size: 0x8, addend: 0x0, symName: __RNvMNtCs3cP53eQoTwO_11proc_macro25parseNtB2_6Cursor5bytes, symObjAddr: 0x204, symBinAddr: 0x100046838, symSize: 0x40 }
  - { offset: 0xC2FFC, size: 0x8, addend: 0x0, symName: __RNvMNtCs3cP53eQoTwO_11proc_macro25parseNtB2_6Cursor5chars, symObjAddr: 0x244, symBinAddr: 0x100046878, symSize: 0x40 }
  - { offset: 0xC301E, size: 0x8, addend: 0x0, symName: __RNvMNtCs3cP53eQoTwO_11proc_macro25parseNtB2_6Cursor12char_indices, symObjAddr: 0x284, symBinAddr: 0x1000468B8, symSize: 0x40 }
  - { offset: 0xC3047, size: 0x8, addend: 0x0, symName: __RNvMNtCs3cP53eQoTwO_11proc_macro25parseNtB2_6Cursor5parse, symObjAddr: 0x2C4, symBinAddr: 0x1000468F8, symSize: 0x9C }
  - { offset: 0xC357D, size: 0x8, addend: 0x0, symName: __RINvMsx_NtNtCsfvfooZQ3Axs_4core3str7patternNtB6_14TwoWaySearcher4nextNtB6_14RejectAndMatchECs3cP53eQoTwO_11proc_macro2, symObjAddr: 0x0, symBinAddr: 0x10004E18C, symSize: 0x4F8 }
  - { offset: 0xC4A4D, size: 0x8, addend: 0x0, symName: __RNvXst_NtNtCsfvfooZQ3Axs_4core3str7patternReNtB5_7Pattern12is_prefix_ofCs3cP53eQoTwO_11proc_macro2, symObjAddr: 0x1370, symBinAddr: 0x10004F330, symSize: 0x4C }
  - { offset: 0xC4AB4, size: 0x8, addend: 0x0, symName: __RNvXst_NtNtCsfvfooZQ3Axs_4core3str7patternReNtB5_7Pattern15is_contained_inCs3cP53eQoTwO_11proc_macro2, symObjAddr: 0x13BC, symBinAddr: 0x10004F37C, symSize: 0x1D0 }
  - { offset: 0xC4D3F, size: 0x8, addend: 0x0, symName: __RNvXs2_NtNtCsfvfooZQ3Axs_4core3str7patterncNtB5_7Pattern12is_prefix_ofCs3cP53eQoTwO_11proc_macro2, symObjAddr: 0x9F0, symBinAddr: 0x10004EB7C, symSize: 0x78 }
  - { offset: 0xC4DE6, size: 0x8, addend: 0x0, symName: __RNvXs2_NtNtCsfvfooZQ3Axs_4core3str7patterncNtB5_7Pattern13into_searcherCs3cP53eQoTwO_11proc_macro2, symObjAddr: 0xA68, symBinAddr: 0x10004EBF4, symSize: 0x114 }
  - { offset: 0xC4EFE, size: 0x8, addend: 0x0, symName: __RNvXs2_NtNtCsfvfooZQ3Axs_4core3str7patterncNtB5_7Pattern15is_contained_inCs3cP53eQoTwO_11proc_macro2, symObjAddr: 0xB7C, symBinAddr: 0x10004ED08, symSize: 0xD8 }
  - { offset: 0xC500E, size: 0x8, addend: 0x0, symName: __RNvXs7_NtNtCsfvfooZQ3Axs_4core3str7patternINtB5_18MultiCharEqPatternNCNvNtCs3cP53eQoTwO_11proc_macro28fallback11escape_utf80ENtB5_7Pattern13into_searcherB1a_, symObjAddr: 0xCE4, symBinAddr: 0x10004EDE0, symSize: 0x90 }
  - { offset: 0xC5070, size: 0x8, addend: 0x0, symName: __RNvXs8_NtNtCsfvfooZQ3Axs_4core3str7patternINtB5_19MultiCharEqSearcherNCNvNtCs3cP53eQoTwO_11proc_macro28fallback11escape_utf80ENtB5_8Searcher4nextB1b_, symObjAddr: 0xEB0, symBinAddr: 0x10004EE70, symSize: 0x13C }
  - { offset: 0xC51FD, size: 0x8, addend: 0x0, symName: __RNvXs_NtNtCsfvfooZQ3Axs_4core3str7patternNtB4_12CharSearcherNtB4_8Searcher10next_matchCs3cP53eQoTwO_11proc_macro2, symObjAddr: 0xFEC, symBinAddr: 0x10004EFAC, symSize: 0x384 }
  - { offset: 0xC5772, size: 0x8, addend: 0x0, symName: __RNvXsv_NtNtCsfvfooZQ3Axs_4core3str7patternNtB5_11StrSearcherNtB5_8Searcher10next_matchCs3cP53eQoTwO_11proc_macro2, symObjAddr: 0x158C, symBinAddr: 0x10004F54C, symSize: 0x148 }
  - { offset: 0xC57FE, size: 0x8, addend: 0x0, symName: __RNvXsv_NtNtCsfvfooZQ3Axs_4core3str7patternNtB5_11StrSearcherNtB5_8Searcher4nextCs3cP53eQoTwO_11proc_macro2, symObjAddr: 0x16D4, symBinAddr: 0x10004F694, symSize: 0x444 }
  - { offset: 0xC5B09, size: 0x8, addend: 0x0, symName: __RNvXsy_NtNtCsfvfooZQ3Axs_4core3str7patternNtB5_9MatchOnlyNtB5_14TwoWayStrategy16use_early_rejectCs3cP53eQoTwO_11proc_macro2, symObjAddr: 0x1B18, symBinAddr: 0x10004FAD8, symSize: 0xC }
  - { offset: 0xC5B27, size: 0x8, addend: 0x0, symName: __RNvXsy_NtNtCsfvfooZQ3Axs_4core3str7patternNtB5_9MatchOnlyNtB5_14TwoWayStrategy8matchingCs3cP53eQoTwO_11proc_macro2, symObjAddr: 0x1B24, symBinAddr: 0x10004FAE4, symSize: 0x28 }
  - { offset: 0xC5B64, size: 0x8, addend: 0x0, symName: __RNvXsy_NtNtCsfvfooZQ3Axs_4core3str7patternNtB5_9MatchOnlyNtB5_14TwoWayStrategy9rejectingCs3cP53eQoTwO_11proc_macro2, symObjAddr: 0x1B4C, symBinAddr: 0x10004FB0C, symSize: 0x18 }
  - { offset: 0xC5BA7, size: 0x8, addend: 0x0, symName: __RNvXsz_NtNtCsfvfooZQ3Axs_4core3str7patternNtB5_14RejectAndMatchNtB5_14TwoWayStrategy16use_early_rejectCs3cP53eQoTwO_11proc_macro2, symObjAddr: 0x1B64, symBinAddr: 0x10004FB24, symSize: 0xC }
  - { offset: 0xC5BC5, size: 0x8, addend: 0x0, symName: __RNvXsz_NtNtCsfvfooZQ3Axs_4core3str7patternNtB5_14RejectAndMatchNtB5_14TwoWayStrategy8matchingCs3cP53eQoTwO_11proc_macro2, symObjAddr: 0x1B70, symBinAddr: 0x10004FB30, symSize: 0x20 }
  - { offset: 0xC5C02, size: 0x8, addend: 0x0, symName: __RNvXsz_NtNtCsfvfooZQ3Axs_4core3str7patternNtB5_14RejectAndMatchNtB5_14TwoWayStrategy9rejectingCs3cP53eQoTwO_11proc_macro2, symObjAddr: 0x1B90, symBinAddr: 0x10004FB50, symSize: 0x28 }
  - { offset: 0xC5C45, size: 0x8, addend: 0x0, symName: __RNvYINtNtNtCsfvfooZQ3Axs_4core3str7pattern18MultiCharEqPatternNCNvNtCs3cP53eQoTwO_11proc_macro28fallback11escape_utf80ENtB5_7Pattern12is_prefix_ofB14_, symObjAddr: 0x1C40, symBinAddr: 0x10004FB78, symSize: 0x88 }
  - { offset: 0xC6947, size: 0x8, addend: 0x0, symName: __RNvNtCs3cP53eQoTwO_11proc_macro23imp8mismatch, symObjAddr: 0x1CC8, symBinAddr: 0x1000A36F8, symSize: 0x60 }
  - { offset: 0xC71D7, size: 0x8, addend: 0x0, symName: __RNvXs0_NtCs3cP53eQoTwO_11proc_macro23impNtB5_11TokenStreamNtNtCsfvfooZQ3Axs_4core3fmt7Display3fmt, symObjAddr: 0x23C4, symBinAddr: 0x100050188, symSize: 0x10C }
  - { offset: 0xC723C, size: 0x8, addend: 0x0, symName: __RNvNtCs3cP53eQoTwO_11proc_macro23imp19into_compiler_token, symObjAddr: 0x2550, symBinAddr: 0x100050294, symSize: 0x244 }
  - { offset: 0xC7311, size: 0x8, addend: 0x0, symName: __RNvXsc_NtCs3cP53eQoTwO_11proc_macro23impNtB5_8LexErrorINtNtCsfvfooZQ3Axs_4core7convert4FromNtNtB7_8fallback8LexErrorE4from, symObjAddr: 0x2A98, symBinAddr: 0x1000504D8, symSize: 0x28 }
  - { offset: 0xC7351, size: 0x8, addend: 0x0, symName: __RNvXsd_NtCs3cP53eQoTwO_11proc_macro23impNtB5_8LexErrorNtNtCsfvfooZQ3Axs_4core3fmt5Debug3fmt, symObjAddr: 0x2AC0, symBinAddr: 0x100050500, symSize: 0xE8 }
  - { offset: 0xC73EE, size: 0x8, addend: 0x0, symName: __RNvXsj_NtCs3cP53eQoTwO_11proc_macro23impNtB5_4SpanINtNtCsfvfooZQ3Axs_4core7convert4FromNtNtB7_8fallback4SpanE4from, symObjAddr: 0x3694, symBinAddr: 0x1000506B4, symSize: 0x24 }
  - { offset: 0xC742E, size: 0x8, addend: 0x0, symName: __RNvXsm_NtCs3cP53eQoTwO_11proc_macro23impNtB5_5GroupINtNtCsfvfooZQ3Axs_4core7convert4FromNtNtB7_8fallback5GroupE4from, symObjAddr: 0x3ED0, symBinAddr: 0x100050A1C, symSize: 0x3C }
  - { offset: 0xC7462, size: 0x8, addend: 0x0, symName: __RNvXsn_NtCs3cP53eQoTwO_11proc_macro23impNtB5_5GroupNtNtCsfvfooZQ3Axs_4core3fmt7Display3fmt, symObjAddr: 0x3F0C, symBinAddr: 0x100050A58, symSize: 0xA4 }
  - { offset: 0xC74D9, size: 0x8, addend: 0x0, symName: __RNvXsq_NtCs3cP53eQoTwO_11proc_macro23impNtB5_5IdentINtNtCsfvfooZQ3Axs_4core7convert4FromNtNtB7_8fallback5IdentE4from, symObjAddr: 0x4448, symBinAddr: 0x100050E60, symSize: 0x28 }
  - { offset: 0xC750D, size: 0x8, addend: 0x0, symName: __RNvXst_NtCs3cP53eQoTwO_11proc_macro23impNtB5_5IdentNtNtCsfvfooZQ3Axs_4core3fmt7Display3fmt, symObjAddr: 0x4614, symBinAddr: 0x100050E88, symSize: 0xA4 }
  - { offset: 0xC7584, size: 0x8, addend: 0x0, symName: __RNvXsw_NtCs3cP53eQoTwO_11proc_macro23impNtB5_7LiteralINtNtCsfvfooZQ3Axs_4core7convert4FromNtNtB7_8fallback7LiteralE4from, symObjAddr: 0x5080, symBinAddr: 0x1000511A0, symSize: 0x28 }
  - { offset: 0xC75B8, size: 0x8, addend: 0x0, symName: __RNvXsx_NtCs3cP53eQoTwO_11proc_macro23impNtB5_7LiteralNtNtCsfvfooZQ3Axs_4core3fmt7Display3fmt, symObjAddr: 0x50A8, symBinAddr: 0x1000511C8, symSize: 0xAC }
  - { offset: 0xC762F, size: 0x8, addend: 0x0, symName: __RNvXsA_NtCs3cP53eQoTwO_11proc_macro23impNtB5_19DeferredTokenStreamNtNtCsfvfooZQ3Axs_4core5clone5Clone5cloneB7_, symObjAddr: 0x5200, symBinAddr: 0x100051274, symSize: 0x90 }
  - { offset: 0xC7661, size: 0x8, addend: 0x0, symName: __RNvXsE_NtCs3cP53eQoTwO_11proc_macro23impNtB5_5GroupNtNtCsfvfooZQ3Axs_4core5clone5Clone5cloneB7_, symObjAddr: 0x5330, symBinAddr: 0x100051304, symSize: 0x94 }
  - { offset: 0xC76D1, size: 0x8, addend: 0x0, symName: __RNvXsF_NtCs3cP53eQoTwO_11proc_macro23impNtB5_5IdentNtNtCsfvfooZQ3Axs_4core5clone5Clone5cloneB7_, symObjAddr: 0x53C4, symBinAddr: 0x100051398, symSize: 0x9C }
  - { offset: 0xC7741, size: 0x8, addend: 0x0, symName: __RNvXsG_NtCs3cP53eQoTwO_11proc_macro23impNtB5_7LiteralNtNtCsfvfooZQ3Axs_4core5clone5Clone5cloneB7_, symObjAddr: 0x5460, symBinAddr: 0x100051434, symSize: 0x9C }
  - { offset: 0xC7AB3, size: 0x8, addend: 0x0, symName: __RINvMsx_NtNtCsfvfooZQ3Axs_4core3str7patternNtB6_14TwoWaySearcher4nextNtB6_14RejectAndMatchECs3cP53eQoTwO_11proc_macro2, symObjAddr: 0x0, symBinAddr: 0x10004E18C, symSize: 0x4F8 }
  - { offset: 0xC7E03, size: 0x8, addend: 0x0, symName: __RINvMsx_NtNtCsfvfooZQ3Axs_4core3str7patternNtB6_14TwoWaySearcher4nextNtB6_9MatchOnlyECs3cP53eQoTwO_11proc_macro2, symObjAddr: 0x4F8, symBinAddr: 0x10004E684, symSize: 0x4F8 }
  - { offset: 0xC858D, size: 0x8, addend: 0x0, symName: __RNvMNtCs3cP53eQoTwO_11proc_macro23impNtB2_19DeferredTokenStream3new, symObjAddr: 0x1D28, symBinAddr: 0x10004FC00, symSize: 0x84 }
  - { offset: 0xC85C9, size: 0x8, addend: 0x0, symName: __RNvMNtCs3cP53eQoTwO_11proc_macro23impNtB2_19DeferredTokenStream12evaluate_now, symObjAddr: 0x1E20, symBinAddr: 0x10004FC84, symSize: 0x80 }
  - { offset: 0xC85EB, size: 0x8, addend: 0x0, symName: __RNvMNtCs3cP53eQoTwO_11proc_macro23impNtB2_19DeferredTokenStream17into_token_stream, symObjAddr: 0x1EA0, symBinAddr: 0x10004FD04, symSize: 0x70 }
  - { offset: 0xC8646, size: 0x8, addend: 0x0, symName: __RNvMs_NtCs3cP53eQoTwO_11proc_macro23impNtB4_11TokenStream3new, symObjAddr: 0x1F10, symBinAddr: 0x10004FD74, symSize: 0x88 }
  - { offset: 0xC8659, size: 0x8, addend: 0x0, symName: __RNvMs_NtCs3cP53eQoTwO_11proc_macro23impNtB4_11TokenStream16from_str_checked, symObjAddr: 0x1F98, symBinAddr: 0x10004FDFC, symSize: 0x18C }
  - { offset: 0xC86C2, size: 0x8, addend: 0x0, symName: __RNvMs_NtCs3cP53eQoTwO_11proc_macro23impNtB4_11TokenStream14unwrap_nightly, symObjAddr: 0x21C4, symBinAddr: 0x10004FF88, symSize: 0x108 }
  - { offset: 0xC8702, size: 0x8, addend: 0x0, symName: __RNvMs_NtCs3cP53eQoTwO_11proc_macro23impNtB4_11TokenStream13unwrap_stable, symObjAddr: 0x22CC, symBinAddr: 0x100050090, symSize: 0xF8 }
  - { offset: 0xC8732, size: 0x8, addend: 0x0, symName: __RNvMsh_NtCs3cP53eQoTwO_11proc_macro23impNtB5_4Span9call_site, symObjAddr: 0x3140, symBinAddr: 0x1000505E8, symSize: 0x64 }
  - { offset: 0xC8752, size: 0x8, addend: 0x0, symName: __RNvMsh_NtCs3cP53eQoTwO_11proc_macro23impNtB5_4Span14unwrap_nightly, symObjAddr: 0x362C, symBinAddr: 0x10005064C, symSize: 0x68 }
  - { offset: 0xC8775, size: 0x8, addend: 0x0, symName: __RNvMsl_NtCs3cP53eQoTwO_11proc_macro23impNtB5_5Group3new, symObjAddr: 0x37FC, symBinAddr: 0x1000506D8, symSize: 0x17C }
  - { offset: 0xC880C, size: 0x8, addend: 0x0, symName: __RNvMsl_NtCs3cP53eQoTwO_11proc_macro23impNtB5_5Group8set_span, symObjAddr: 0x3D08, symBinAddr: 0x100050854, symSize: 0x100 }
  - { offset: 0xC889A, size: 0x8, addend: 0x0, symName: __RNvMsl_NtCs3cP53eQoTwO_11proc_macro23impNtB5_5Group14unwrap_nightly, symObjAddr: 0x3E08, symBinAddr: 0x100050954, symSize: 0xC8 }
  - { offset: 0xC88CB, size: 0x8, addend: 0x0, symName: __RNvMsp_NtCs3cP53eQoTwO_11proc_macro23impNtB5_5Ident11new_checked, symObjAddr: 0x4054, symBinAddr: 0x100050AFC, symSize: 0xD4 }
  - { offset: 0xC8939, size: 0x8, addend: 0x0, symName: __RNvMsp_NtCs3cP53eQoTwO_11proc_macro23impNtB5_5Ident15new_raw_checked, symObjAddr: 0x4128, symBinAddr: 0x100050BD0, symSize: 0xD4 }
  - { offset: 0xC89C1, size: 0x8, addend: 0x0, symName: __RNvMsp_NtCs3cP53eQoTwO_11proc_macro23impNtB5_5Ident8set_span, symObjAddr: 0x428C, symBinAddr: 0x100050CA4, symSize: 0xF8 }
  - { offset: 0xC8A4F, size: 0x8, addend: 0x0, symName: __RNvMsp_NtCs3cP53eQoTwO_11proc_macro23impNtB5_5Ident14unwrap_nightly, symObjAddr: 0x4384, symBinAddr: 0x100050D9C, symSize: 0xC4 }
  - { offset: 0xC8A81, size: 0x8, addend: 0x0, symName: __RNvMsv_NtCs3cP53eQoTwO_11proc_macro23impNtB5_7Literal6string, symObjAddr: 0x4AE4, symBinAddr: 0x100050F2C, symSize: 0xAC }
  - { offset: 0xC8AE5, size: 0x8, addend: 0x0, symName: __RNvMsv_NtCs3cP53eQoTwO_11proc_macro23impNtB5_7Literal8set_span, symObjAddr: 0x4EB8, symBinAddr: 0x100050FD8, symSize: 0x104 }
  - { offset: 0xC8B73, size: 0x8, addend: 0x0, symName: __RNvMsv_NtCs3cP53eQoTwO_11proc_macro23impNtB5_7Literal14unwrap_nightly, symObjAddr: 0x4FBC, symBinAddr: 0x1000510DC, symSize: 0xC4 }
  - { offset: 0xC8B97, size: 0x8, addend: 0x0, symName: __RNvMsv_NtCs3cP53eQoTwO_11proc_macro23impNtB5_7Literal11u8_suffixed, symObjAddr: 0x54FC, symBinAddr: 0x1000514D0, symSize: 0x9C }
  - { offset: 0xC8BC1, size: 0x8, addend: 0x0, symName: __RNvMsv_NtCs3cP53eQoTwO_11proc_macro23impNtB5_7Literal12u32_suffixed, symObjAddr: 0x5634, symBinAddr: 0x10005156C, symSize: 0x9C }
  - { offset: 0xC8BE4, size: 0x8, addend: 0x0, symName: __RNvMsv_NtCs3cP53eQoTwO_11proc_macro23impNtB5_7Literal12u64_suffixed, symObjAddr: 0x56D0, symBinAddr: 0x100051608, symSize: 0x9C }
  - { offset: 0xC8D9B, size: 0x8, addend: 0x0, symName: __RINvMs_NtCse1nGBsou5OW_5alloc3vecINtB5_3VecNtCs9i5KxIbZ5ph_10proc_macro9TokenTreeE5drainNtNtNtCsfvfooZQ3Axs_4core3ops5range9RangeFullECs3cP53eQoTwO_11proc_macro2, symObjAddr: 0x0, symBinAddr: 0x1000516A4, symSize: 0x140 }
  - { offset: 0xC8ECB, size: 0x8, addend: 0x0, symName: __RINvXsb_NtCse1nGBsou5OW_5alloc6stringNtB6_6StringINtNtNtNtCsfvfooZQ3Axs_4core4iter6traits7collect6ExtendcE6extendNtNtBU_4char11EscapeDebugECs3cP53eQoTwO_11proc_macro2, symObjAddr: 0x140, symBinAddr: 0x1000517E4, symSize: 0xB4 }
  - { offset: 0xC8F6D, size: 0x8, addend: 0x0, symName: __RNCINvXsb_NtCse1nGBsou5OW_5alloc6stringNtB8_6StringINtNtNtNtCsfvfooZQ3Axs_4core4iter6traits7collect6ExtendcE6extendNtNtBW_4char11EscapeDebugE0Cs3cP53eQoTwO_11proc_macro2, symObjAddr: 0x1F4, symBinAddr: 0x100051898, symSize: 0x2C }
  - { offset: 0xC8FD6, size: 0x8, addend: 0x0, symName: __RNvXss_NtCse1nGBsou5OW_5alloc6stringNtB5_6StringNtNtNtCsfvfooZQ3Axs_4core3ops5deref5Deref5derefCs3cP53eQoTwO_11proc_macro2, symObjAddr: 0x1C8C, symBinAddr: 0x100052C04, symSize: 0x24 }
  - { offset: 0xC9067, size: 0x8, addend: 0x0, symName: __RNvXs1K_NtCse1nGBsou5OW_5alloc6stringeNtB6_12SpecToString14spec_to_stringCs3cP53eQoTwO_11proc_macro2, symObjAddr: 0x1154, symBinAddr: 0x10005253C, symSize: 0x50 }
  - { offset: 0xC9198, size: 0x8, addend: 0x0, symName: __RNvXsW_NtCse1nGBsou5OW_5alloc6stringNtB5_6StringNtNtCsfvfooZQ3Axs_4core3fmt5Write10write_charCs3cP53eQoTwO_11proc_macro2, symObjAddr: 0x1688, symBinAddr: 0x1000526E4, symSize: 0x30 }
