---
triple:          'arm64-apple-darwin'
binary-path:     '/Users/cedric/orange/ran-llm-claude-flow/src/rust-pipeline/target/debug/build/ahash-aec32107746316b9/build_script_build-aec32107746316b9'
relocations:
  - { offset: 0x1E, size: 0x8, addend: 0x0, symName: __RINvMs3_NtCsfvfooZQ3Axs_4core3fmtNtB6_9Arguments9new_constKj1_ECsjwbrm8XFZd5_18build_script_build, symObjAddr: 0x0, symBinAddr: 0x100000BF0, symSize: 0x48 }
  - { offset: 0x68, size: 0x8, addend: 0x0, symName: __RNCINvNtCscOYdFFY2T5N_3std2rt10lang_startuE0Csjwbrm8XFZd5_18build_script_build, symObjAddr: 0xEC, symBinAddr: 0x100000CBC, symSize: 0x34 }
  - { offset: 0xD2, size: 0x8, addend: 0x0, symName: __RINvNtCscOYdFFY2T5N_3std2rt10lang_startuECsjwbrm8XFZd5_18build_script_build, symObjAddr: 0x48, symBinAddr: 0x100000C38, symSize: 0x60 }
  - { offset: 0x191, size: 0x8, addend: 0x0, symName: __RNvXsk_NtCscOYdFFY2T5N_3std3envNtB5_8VarErrorNtNtCsfvfooZQ3Axs_4core3fmt5Debug3fmtCsjwbrm8XFZd5_18build_script_build, symObjAddr: 0x630, symBinAddr: 0x100001200, symSize: 0xA0 }
  - { offset: 0x23A, size: 0x8, addend: 0x0, symName: __RINvNtNtCscOYdFFY2T5N_3std3sys9backtrace28___rust_begin_short_backtraceFEuuECsjwbrm8XFZd5_18build_script_build, symObjAddr: 0xC8, symBinAddr: 0x100000C98, symSize: 0x24 }
  - { offset: 0x328, size: 0x8, addend: 0x0, symName: __RNvXsT_NtCscOYdFFY2T5N_3std7processuNtB5_11Termination6reportCsjwbrm8XFZd5_18build_script_build, symObjAddr: 0x620, symBinAddr: 0x1000011F0, symSize: 0x10 }
  - { offset: 0x522, size: 0x8, addend: 0x0, symName: __RNvXss_NtCse1nGBsou5OW_5alloc6stringNtB5_6StringNtNtNtCsfvfooZQ3Axs_4core3ops5deref5Deref5derefCsjwbrm8XFZd5_18build_script_build, symObjAddr: 0x6D0, symBinAddr: 0x1000012A0, symSize: 0x24 }
  - { offset: 0x9C2, size: 0x8, addend: 0x0, symName: __RNvXs1a_NtCsfvfooZQ3Axs_4core3fmtRNtNtNtCscOYdFFY2T5N_3std3ffi6os_str8OsStringNtB6_5Debug3fmtCsjwbrm8XFZd5_18build_script_build, symObjAddr: 0x5F0, symBinAddr: 0x1000011C0, symSize: 0x30 }
  - { offset: 0xCA5, size: 0x8, addend: 0x0, symName: __RNSNvYNCINvNtCscOYdFFY2T5N_3std2rt10lang_startuE0INtNtNtCsfvfooZQ3Axs_4core3ops8function6FnOnceuE9call_once6vtableCsjwbrm8XFZd5_18build_script_build, symObjAddr: 0x120, symBinAddr: 0x100000CF0, symSize: 0x28 }
  - { offset: 0xCE9, size: 0x8, addend: 0x0, symName: __RNvYFEuINtNtNtCsfvfooZQ3Axs_4core3ops8function6FnOnceuE9call_onceCsjwbrm8XFZd5_18build_script_build, symObjAddr: 0x6F4, symBinAddr: 0x1000012C4, symSize: 0x20 }
  - { offset: 0xD29, size: 0x8, addend: 0x0, symName: __RNvYNCINvNtCscOYdFFY2T5N_3std2rt10lang_startuE0INtNtNtCsfvfooZQ3Axs_4core3ops8function6FnOnceuE9call_onceCsjwbrm8XFZd5_18build_script_build, symObjAddr: 0x714, symBinAddr: 0x1000012E4, symSize: 0x4C }
  - { offset: 0xDAF, size: 0x8, addend: 0x0, symName: __RNvNvNtNtCsfvfooZQ3Axs_4core5slice3raw14from_raw_parts18precondition_checkCsjwbrm8XFZd5_18build_script_build, symObjAddr: 0x488, symBinAddr: 0x100001058, symSize: 0x168 }
  - { offset: 0xEFB, size: 0x8, addend: 0x0, symName: __RNvMNtNtCsfvfooZQ3Axs_4core5slice5asciiSh20eq_ignore_ascii_caseCsjwbrm8XFZd5_18build_script_build, symObjAddr: 0x2A4, symBinAddr: 0x100000E74, symSize: 0x1E4 }
  - { offset: 0x1042, size: 0x8, addend: 0x0, symName: __RNvMNtCsfvfooZQ3Axs_4core3stre20eq_ignore_ascii_caseCsjwbrm8XFZd5_18build_script_build, symObjAddr: 0x1B8, symBinAddr: 0x100000D88, symSize: 0x34 }
  - { offset: 0x12CA, size: 0x8, addend: 0x0, symName: __RINvMs3_NtCsfvfooZQ3Axs_4core3fmtNtB6_9Arguments9new_constKj1_ECsjwbrm8XFZd5_18build_script_build, symObjAddr: 0x0, symBinAddr: 0x100000BF0, symSize: 0x48 }
  - { offset: 0x142C, size: 0x8, addend: 0x0, symName: __RNvMNtCse1nGBsou5OW_5alloc6stringNtB2_6String6as_strCsjwbrm8XFZd5_18build_script_build, symObjAddr: 0x148, symBinAddr: 0x100000D18, symSize: 0x70 }
  - { offset: 0x1542, size: 0x8, addend: 0x0, symName: __RNvMNtCsfvfooZQ3Axs_4core6resultINtB2_6ResultNtNtCse1nGBsou5OW_5alloc6string6StringNtNtCscOYdFFY2T5N_3std3env8VarErrorE6expectCsjwbrm8XFZd5_18build_script_build, symObjAddr: 0x1EC, symBinAddr: 0x100000DBC, symSize: 0xB8 }
  - { offset: 0x15D2, size: 0x8, addend: 0x0, symName: __RNvCsjwbrm8XFZd5_18build_script_build4main, symObjAddr: 0x760, symBinAddr: 0x100001330, symSize: 0x3BC }
  - { offset: 0x1669, size: 0x8, addend: 0x0, symName: __RINvMsx_NtNtCsfvfooZQ3Axs_4core3str7patternNtB6_14TwoWaySearcher4nextNtB6_14RejectAndMatchECs7EIZlGwJWX2_13version_check, symObjAddr: 0x0, symBinAddr: 0x10000172C, symSize: 0x4F8 }
  - { offset: 0x28BF, size: 0x8, addend: 0x0, symName: __RNvXs0_NtNtCsfvfooZQ3Axs_4core3str7patternNtB5_12CharSearcherNtB5_15ReverseSearcher15next_match_backCs7EIZlGwJWX2_13version_check, symObjAddr: 0xEF4, symBinAddr: 0x100002620, symSize: 0x38C }
  - { offset: 0x2DFD, size: 0x8, addend: 0x0, symName: __RNvXst_NtNtCsfvfooZQ3Axs_4core3str7patternReNtB5_7Pattern12is_prefix_ofCs7EIZlGwJWX2_13version_check, symObjAddr: 0x20AC, symBinAddr: 0x1000037D8, symSize: 0x4C }
  - { offset: 0x2E3A, size: 0x8, addend: 0x0, symName: __RNvXst_NtNtCsfvfooZQ3Axs_4core3str7patternReNtB5_7Pattern12is_suffix_ofCs7EIZlGwJWX2_13version_check, symObjAddr: 0x20F8, symBinAddr: 0x100003824, symSize: 0x4C }
  - { offset: 0x2E77, size: 0x8, addend: 0x0, symName: __RNvXst_NtNtCsfvfooZQ3Axs_4core3str7patternReNtB5_7Pattern13into_searcherCs7EIZlGwJWX2_13version_check, symObjAddr: 0x2144, symBinAddr: 0x100003870, symSize: 0x4C }
  - { offset: 0x2EDE, size: 0x8, addend: 0x0, symName: __RNvXst_NtNtCsfvfooZQ3Axs_4core3str7patternReNtB5_7Pattern15is_contained_inCs7EIZlGwJWX2_13version_check, symObjAddr: 0x2190, symBinAddr: 0x1000038BC, symSize: 0x1D0 }
  - { offset: 0x318D, size: 0x8, addend: 0x0, symName: __RNvXst_NtNtCsfvfooZQ3Axs_4core3str7patternReNtB5_7Pattern15strip_suffix_ofCs7EIZlGwJWX2_13version_check, symObjAddr: 0x2360, symBinAddr: 0x100003A8C, symSize: 0xE0 }
  - { offset: 0x32CC, size: 0x8, addend: 0x0, symName: __RNvXs2_NtNtCsfvfooZQ3Axs_4core3str7patterncNtB5_7Pattern12is_suffix_ofCs7EIZlGwJWX2_13version_check, symObjAddr: 0x1280, symBinAddr: 0x1000029AC, symSize: 0x78 }
  - { offset: 0x3373, size: 0x8, addend: 0x0, symName: __RNvXs2_NtNtCsfvfooZQ3Axs_4core3str7patterncNtB5_7Pattern13into_searcherCs7EIZlGwJWX2_13version_check, symObjAddr: 0x12F8, symBinAddr: 0x100002A24, symSize: 0x114 }
  - { offset: 0x3491, size: 0x8, addend: 0x0, symName: __RNvXs7_NtNtCsfvfooZQ3Axs_4core3str7patternINtB5_18MultiCharEqPatternNCNvMB7_e10trim_start0ENtB5_7Pattern13into_searcherCs7EIZlGwJWX2_13version_check, symObjAddr: 0x140C, symBinAddr: 0x100002B38, symSize: 0x90 }
  - { offset: 0x34ED, size: 0x8, addend: 0x0, symName: __RNvXs7_NtNtCsfvfooZQ3Axs_4core3str7patternINtB5_18MultiCharEqPatternNCNvMB7_e4trim0ENtB5_7Pattern13into_searcherCs7EIZlGwJWX2_13version_check, symObjAddr: 0x149C, symBinAddr: 0x100002BC8, symSize: 0x90 }
  - { offset: 0x3549, size: 0x8, addend: 0x0, symName: __RNvXs7_NtNtCsfvfooZQ3Axs_4core3str7patternINtB5_18MultiCharEqPatternNCNvMB7_e8trim_end0ENtB5_7Pattern13into_searcherCs7EIZlGwJWX2_13version_check, symObjAddr: 0x152C, symBinAddr: 0x100002C58, symSize: 0x90 }
  - { offset: 0x35AB, size: 0x8, addend: 0x0, symName: __RNvXs8_NtNtCsfvfooZQ3Axs_4core3str7patternINtB5_19MultiCharEqSearcherNCNvMB7_e10trim_start0ENtB5_8Searcher4nextCs7EIZlGwJWX2_13version_check, symObjAddr: 0x15BC, symBinAddr: 0x100002CE8, symSize: 0x13C }
  - { offset: 0x36CB, size: 0x8, addend: 0x0, symName: __RNvXs8_NtNtCsfvfooZQ3Axs_4core3str7patternINtB5_19MultiCharEqSearcherNCNvMB7_e4trim0ENtB5_8Searcher4nextCs7EIZlGwJWX2_13version_check, symObjAddr: 0x16F8, symBinAddr: 0x100002E24, symSize: 0x13C }
  - { offset: 0x37F1, size: 0x8, addend: 0x0, symName: __RNvXs9_NtNtCsfvfooZQ3Axs_4core3str7patternINtB5_19MultiCharEqSearcherNCNvMB7_e4trim0ENtB5_15ReverseSearcher9next_backCs7EIZlGwJWX2_13version_check, symObjAddr: 0x1834, symBinAddr: 0x100002F60, symSize: 0x13C }
  - { offset: 0x3911, size: 0x8, addend: 0x0, symName: __RNvXs9_NtNtCsfvfooZQ3Axs_4core3str7patternINtB5_19MultiCharEqSearcherNCNvMB7_e8trim_end0ENtB5_15ReverseSearcher9next_backCs7EIZlGwJWX2_13version_check, symObjAddr: 0x1970, symBinAddr: 0x10000309C, symSize: 0x13C }
  - { offset: 0x3A37, size: 0x8, addend: 0x0, symName: __RNvXs_NtNtCsfvfooZQ3Axs_4core3str7patternNtB4_12CharSearcherNtB4_8Searcher10next_matchCs7EIZlGwJWX2_13version_check, symObjAddr: 0x1AAC, symBinAddr: 0x1000031D8, symSize: 0x384 }
  - { offset: 0x3ED8, size: 0x8, addend: 0x0, symName: __RNvXs_NtNtCsfvfooZQ3Axs_4core3str7patternNtB4_12CharSearcherNtB4_8Searcher4nextCs7EIZlGwJWX2_13version_check, symObjAddr: 0x1E30, symBinAddr: 0x10000355C, symSize: 0x1CC }
  - { offset: 0x4194, size: 0x8, addend: 0x0, symName: __RNvXs_NtNtCsfvfooZQ3Axs_4core3str7patternNtB4_12CharSearcherNtB4_8Searcher8haystackCs7EIZlGwJWX2_13version_check, symObjAddr: 0x1FFC, symBinAddr: 0x100003728, symSize: 0x20 }
  - { offset: 0x41C8, size: 0x8, addend: 0x0, symName: __RNvXso_NtNtCsfvfooZQ3Axs_4core3str7patternINtB5_21CharPredicateSearcherNCNvMB7_e10trim_start0ENtB5_8Searcher11next_rejectCs7EIZlGwJWX2_13version_check, symObjAddr: 0x201C, symBinAddr: 0x100003748, symSize: 0x24 }
  - { offset: 0x41FF, size: 0x8, addend: 0x0, symName: __RNvXso_NtNtCsfvfooZQ3Axs_4core3str7patternINtB5_21CharPredicateSearcherNCNvMB7_e4trim0ENtB5_8Searcher11next_rejectCs7EIZlGwJWX2_13version_check, symObjAddr: 0x2040, symBinAddr: 0x10000376C, symSize: 0x24 }
  - { offset: 0x423C, size: 0x8, addend: 0x0, symName: __RNvXsp_NtNtCsfvfooZQ3Axs_4core3str7patternINtB5_21CharPredicateSearcherNCNvMB7_e4trim0ENtB5_15ReverseSearcher16next_reject_backCs7EIZlGwJWX2_13version_check, symObjAddr: 0x2064, symBinAddr: 0x100003790, symSize: 0x24 }
  - { offset: 0x4273, size: 0x8, addend: 0x0, symName: __RNvXsp_NtNtCsfvfooZQ3Axs_4core3str7patternINtB5_21CharPredicateSearcherNCNvMB7_e8trim_end0ENtB5_15ReverseSearcher16next_reject_backCs7EIZlGwJWX2_13version_check, symObjAddr: 0x2088, symBinAddr: 0x1000037B4, symSize: 0x24 }
  - { offset: 0x437E, size: 0x8, addend: 0x0, symName: __RNvXsv_NtNtCsfvfooZQ3Axs_4core3str7patternNtB5_11StrSearcherNtB5_8Searcher10next_matchCs7EIZlGwJWX2_13version_check, symObjAddr: 0x2440, symBinAddr: 0x100003B6C, symSize: 0x148 }
  - { offset: 0x440A, size: 0x8, addend: 0x0, symName: __RNvXsv_NtNtCsfvfooZQ3Axs_4core3str7patternNtB5_11StrSearcherNtB5_8Searcher4nextCs7EIZlGwJWX2_13version_check, symObjAddr: 0x2588, symBinAddr: 0x100003CB4, symSize: 0x444 }
  - { offset: 0x470F, size: 0x8, addend: 0x0, symName: __RNvXsv_NtNtCsfvfooZQ3Axs_4core3str7patternNtB5_11StrSearcherNtB5_8Searcher8haystackCs7EIZlGwJWX2_13version_check, symObjAddr: 0x29CC, symBinAddr: 0x1000040F8, symSize: 0x20 }
  - { offset: 0x4743, size: 0x8, addend: 0x0, symName: __RNvXsw_NtNtCsfvfooZQ3Axs_4core3str7patternNtB5_11StrSearcherNtB5_15ReverseSearcher9next_backCs7EIZlGwJWX2_13version_check, symObjAddr: 0x29EC, symBinAddr: 0x100004118, symSize: 0x42C }
  - { offset: 0x4A2E, size: 0x8, addend: 0x0, symName: __RNvXsy_NtNtCsfvfooZQ3Axs_4core3str7patternNtB5_9MatchOnlyNtB5_14TwoWayStrategy16use_early_rejectCs7EIZlGwJWX2_13version_check, symObjAddr: 0x2E18, symBinAddr: 0x100004544, symSize: 0xC }
  - { offset: 0x4A4C, size: 0x8, addend: 0x0, symName: __RNvXsy_NtNtCsfvfooZQ3Axs_4core3str7patternNtB5_9MatchOnlyNtB5_14TwoWayStrategy8matchingCs7EIZlGwJWX2_13version_check, symObjAddr: 0x2E24, symBinAddr: 0x100004550, symSize: 0x28 }
  - { offset: 0x4A89, size: 0x8, addend: 0x0, symName: __RNvXsy_NtNtCsfvfooZQ3Axs_4core3str7patternNtB5_9MatchOnlyNtB5_14TwoWayStrategy9rejectingCs7EIZlGwJWX2_13version_check, symObjAddr: 0x2E4C, symBinAddr: 0x100004578, symSize: 0x18 }
  - { offset: 0x4ACC, size: 0x8, addend: 0x0, symName: __RNvXsz_NtNtCsfvfooZQ3Axs_4core3str7patternNtB5_14RejectAndMatchNtB5_14TwoWayStrategy16use_early_rejectCs7EIZlGwJWX2_13version_check, symObjAddr: 0x2E64, symBinAddr: 0x100004590, symSize: 0xC }
  - { offset: 0x4AEA, size: 0x8, addend: 0x0, symName: __RNvXsz_NtNtCsfvfooZQ3Axs_4core3str7patternNtB5_14RejectAndMatchNtB5_14TwoWayStrategy8matchingCs7EIZlGwJWX2_13version_check, symObjAddr: 0x2E70, symBinAddr: 0x10000459C, symSize: 0x20 }
  - { offset: 0x4B27, size: 0x8, addend: 0x0, symName: __RNvXsz_NtNtCsfvfooZQ3Axs_4core3str7patternNtB5_14RejectAndMatchNtB5_14TwoWayStrategy9rejectingCs7EIZlGwJWX2_13version_check, symObjAddr: 0x2E90, symBinAddr: 0x1000045BC, symSize: 0x28 }
  - { offset: 0x4B6A, size: 0x8, addend: 0x0, symName: __RNvYINtNtNtCsfvfooZQ3Axs_4core3str7pattern19MultiCharEqSearcherNCNvMB7_e10trim_start0ENtB5_8Searcher11next_rejectCs7EIZlGwJWX2_13version_check, symObjAddr: 0x2EB8, symBinAddr: 0x1000045E4, symSize: 0x90 }
  - { offset: 0x4BCF, size: 0x8, addend: 0x0, symName: __RNvYINtNtNtCsfvfooZQ3Axs_4core3str7pattern19MultiCharEqSearcherNCNvMB7_e4trim0ENtB5_8Searcher11next_rejectCs7EIZlGwJWX2_13version_check, symObjAddr: 0x2FD8, symBinAddr: 0x100004704, symSize: 0x90 }
  - { offset: 0x4C34, size: 0x8, addend: 0x0, symName: __RNvYNtNtNtCsfvfooZQ3Axs_4core3str7pattern11StrSearcherNtB4_8Searcher11next_rejectCs7EIZlGwJWX2_13version_check, symObjAddr: 0x3188, symBinAddr: 0x1000048B4, symSize: 0x90 }
  - { offset: 0x4C99, size: 0x8, addend: 0x0, symName: __RNvYNtNtNtCsfvfooZQ3Axs_4core3str7pattern12CharSearcherNtB4_8Searcher11next_rejectCs7EIZlGwJWX2_13version_check, symObjAddr: 0x3218, symBinAddr: 0x100004944, symSize: 0x90 }
  - { offset: 0x4D04, size: 0x8, addend: 0x0, symName: __RNvYINtNtNtCsfvfooZQ3Axs_4core3str7pattern19MultiCharEqSearcherNCNvMB7_e4trim0ENtB5_15ReverseSearcher16next_reject_backCs7EIZlGwJWX2_13version_check, symObjAddr: 0x2F48, symBinAddr: 0x100004674, symSize: 0x90 }
  - { offset: 0x4D69, size: 0x8, addend: 0x0, symName: __RNvYINtNtNtCsfvfooZQ3Axs_4core3str7pattern19MultiCharEqSearcherNCNvMB7_e8trim_end0ENtB5_15ReverseSearcher16next_reject_backCs7EIZlGwJWX2_13version_check, symObjAddr: 0x3068, symBinAddr: 0x100004794, symSize: 0x90 }
  - { offset: 0x4DCE, size: 0x8, addend: 0x0, symName: __RNvYNtNtNtCsfvfooZQ3Axs_4core3str7pattern11StrSearcherNtB4_15ReverseSearcher16next_reject_backCs7EIZlGwJWX2_13version_check, symObjAddr: 0x30F8, symBinAddr: 0x100004824, symSize: 0x90 }
  - { offset: 0x5FCA, size: 0x8, addend: 0x0, symName: __RINvMsx_NtNtCsfvfooZQ3Axs_4core3str7patternNtB6_14TwoWaySearcher4nextNtB6_14RejectAndMatchECs7EIZlGwJWX2_13version_check, symObjAddr: 0x0, symBinAddr: 0x10000172C, symSize: 0x4F8 }
  - { offset: 0x631A, size: 0x8, addend: 0x0, symName: __RINvMsx_NtNtCsfvfooZQ3Axs_4core3str7patternNtB6_14TwoWaySearcher4nextNtB6_9MatchOnlyECs7EIZlGwJWX2_13version_check, symObjAddr: 0x4F8, symBinAddr: 0x100001C24, symSize: 0x4F8 }
  - { offset: 0x664C, size: 0x8, addend: 0x0, symName: __RINvMsx_NtNtCsfvfooZQ3Axs_4core3str7patternNtB6_14TwoWaySearcher9next_backNtB6_14RejectAndMatchECs7EIZlGwJWX2_13version_check, symObjAddr: 0x9F0, symBinAddr: 0x10000211C, symSize: 0x504 }
  - { offset: 0x6CCB, size: 0x8, addend: 0x0, symName: __RINvMNtCsfvfooZQ3Axs_4core3stre11starts_withReECs7EIZlGwJWX2_13version_check, symObjAddr: 0x0, symBinAddr: 0x1000049D4, symSize: 0x4C }
  - { offset: 0x75C8, size: 0x8, addend: 0x0, symName: __RINvMNtCsfvfooZQ3Axs_4core3stre11starts_withReECs7EIZlGwJWX2_13version_check, symObjAddr: 0x0, symBinAddr: 0x1000049D4, symSize: 0x4C }
  - { offset: 0x7642, size: 0x8, addend: 0x0, symName: __RINvMNtCsfvfooZQ3Axs_4core3stre12trim_matchesNCNvB2_4trim0ECs7EIZlGwJWX2_13version_check, symObjAddr: 0x4C, symBinAddr: 0x100004A20, symSize: 0x128 }
  - { offset: 0x7813, size: 0x8, addend: 0x0, symName: __RINvMNtCsfvfooZQ3Axs_4core3stre16trim_end_matchesNCNvB2_8trim_end0ECs7EIZlGwJWX2_13version_check, symObjAddr: 0x174, symBinAddr: 0x100004B48, symSize: 0xD4 }
  - { offset: 0x797B, size: 0x8, addend: 0x0, symName: __RINvMNtCsfvfooZQ3Axs_4core3stre16trim_end_matchesReECs7EIZlGwJWX2_13version_check, symObjAddr: 0x248, symBinAddr: 0x100004C1C, symSize: 0xF8 }
  - { offset: 0x7AB0, size: 0x8, addend: 0x0, symName: __RINvMNtCsfvfooZQ3Axs_4core3stre17trim_left_matchesReECs7EIZlGwJWX2_13version_check, symObjAddr: 0x340, symBinAddr: 0x100004D14, symSize: 0x34 }
  - { offset: 0x7AF6, size: 0x8, addend: 0x0, symName: __RINvMNtCsfvfooZQ3Axs_4core3stre17trim_left_matchescECs7EIZlGwJWX2_13version_check, symObjAddr: 0x374, symBinAddr: 0x100004D48, symSize: 0x2C }
  - { offset: 0x7B3C, size: 0x8, addend: 0x0, symName: __RINvMNtCsfvfooZQ3Axs_4core3stre18trim_right_matchesReECs7EIZlGwJWX2_13version_check, symObjAddr: 0x3A0, symBinAddr: 0x100004D74, symSize: 0x34 }
  - { offset: 0x7BD2, size: 0x8, addend: 0x0, symName: __RINvMNtCsfvfooZQ3Axs_4core3stre18trim_start_matchesNCNvB2_10trim_start0ECs7EIZlGwJWX2_13version_check, symObjAddr: 0x3D4, symBinAddr: 0x100004DA8, symSize: 0xD8 }
  - { offset: 0x7DB2, size: 0x8, addend: 0x0, symName: __RINvMNtCsfvfooZQ3Axs_4core3stre18trim_start_matchesReECs7EIZlGwJWX2_13version_check, symObjAddr: 0x4AC, symBinAddr: 0x100004E80, symSize: 0xFC }
  - { offset: 0x7F96, size: 0x8, addend: 0x0, symName: __RINvMNtCsfvfooZQ3Axs_4core3stre18trim_start_matchescECs7EIZlGwJWX2_13version_check, symObjAddr: 0x5A8, symBinAddr: 0x100004F7C, symSize: 0xEC }
  - { offset: 0x8126, size: 0x8, addend: 0x0, symName: __RINvMNtCsfvfooZQ3Axs_4core3stre5splitReECs7EIZlGwJWX2_13version_check, symObjAddr: 0x6CC, symBinAddr: 0x100005068, symSize: 0xA4 }
  - { offset: 0x816C, size: 0x8, addend: 0x0, symName: __RINvMNtCsfvfooZQ3Axs_4core3stre5splitcECs7EIZlGwJWX2_13version_check, symObjAddr: 0x770, symBinAddr: 0x10000510C, symSize: 0x98 }
  - { offset: 0x81E5, size: 0x8, addend: 0x0, symName: __RINvMNtCsfvfooZQ3Axs_4core3stre6splitnReECs7EIZlGwJWX2_13version_check, symObjAddr: 0x808, symBinAddr: 0x1000051A4, symSize: 0xD0 }
  - { offset: 0x8260, size: 0x8, addend: 0x0, symName: __RINvMNtCsfvfooZQ3Axs_4core3stre8containsReECs7EIZlGwJWX2_13version_check, symObjAddr: 0x8D8, symBinAddr: 0x100005274, symSize: 0x4C }
  - { offset: 0x82A6, size: 0x8, addend: 0x0, symName: __RINvMNtCsfvfooZQ3Axs_4core3stre9ends_withReECs7EIZlGwJWX2_13version_check, symObjAddr: 0x924, symBinAddr: 0x1000052C0, symSize: 0x4C }
  - { offset: 0x82EC, size: 0x8, addend: 0x0, symName: __RINvMNtCsfvfooZQ3Axs_4core3stre9ends_withcECs7EIZlGwJWX2_13version_check, symObjAddr: 0x970, symBinAddr: 0x10000530C, symSize: 0x44 }
  - { offset: 0x8337, size: 0x8, addend: 0x0, symName: __RNCNvMNtCsfvfooZQ3Axs_4core3stre10trim_start0Cs7EIZlGwJWX2_13version_check, symObjAddr: 0x1400, symBinAddr: 0x100005D3C, symSize: 0x94 }
  - { offset: 0x83A9, size: 0x8, addend: 0x0, symName: __RNCNvMNtCsfvfooZQ3Axs_4core3stre4trim0Cs7EIZlGwJWX2_13version_check, symObjAddr: 0x1494, symBinAddr: 0x100005DD0, symSize: 0x94 }
  - { offset: 0x841B, size: 0x8, addend: 0x0, symName: __RNCNvMNtCsfvfooZQ3Axs_4core3stre8trim_end0Cs7EIZlGwJWX2_13version_check, symObjAddr: 0x1528, symBinAddr: 0x100005E64, symSize: 0x94 }
  - { offset: 0x84A6, size: 0x8, addend: 0x0, symName: __RNvMNtCsfvfooZQ3Axs_4core3stre10trim_rightCs7EIZlGwJWX2_13version_check, symObjAddr: 0x15BC, symBinAddr: 0x100005EF8, symSize: 0x28 }
  - { offset: 0x84F2, size: 0x8, addend: 0x0, symName: __RNvMNtCsfvfooZQ3Axs_4core3stre3lenCs7EIZlGwJWX2_13version_check, symObjAddr: 0x15E4, symBinAddr: 0x100005F20, symSize: 0x1C }
  - { offset: 0x851E, size: 0x8, addend: 0x0, symName: __RNvMNtCsfvfooZQ3Axs_4core3stre4trimCs7EIZlGwJWX2_13version_check, symObjAddr: 0x1600, symBinAddr: 0x100005F3C, symSize: 0x28 }
  - { offset: 0x854C, size: 0x8, addend: 0x0, symName: __RNvMNtCsfvfooZQ3Axs_4core3stre5charsCs7EIZlGwJWX2_13version_check, symObjAddr: 0x1628, symBinAddr: 0x100005F64, symSize: 0x20 }
  - { offset: 0x85EE, size: 0x8, addend: 0x0, symName: __RNvMNtCsfvfooZQ3Axs_4core3stre5linesCs7EIZlGwJWX2_13version_check, symObjAddr: 0x1648, symBinAddr: 0x100005F84, symSize: 0xC4 }
  - { offset: 0x869C, size: 0x8, addend: 0x0, symName: __RNvMNtCsfvfooZQ3Axs_4core3stre9trim_leftCs7EIZlGwJWX2_13version_check, symObjAddr: 0x170C, symBinAddr: 0x100006048, symSize: 0x28 }
  - { offset: 0x8DB0, size: 0x8, addend: 0x0, symName: __RNvXs1i_NtNtCsfvfooZQ3Axs_4core3str4iterINtB6_6SplitNReENtNtNtNtBa_4iter6traits8iterator8Iterator4nextCs7EIZlGwJWX2_13version_check, symObjAddr: 0x2584, symBinAddr: 0x100006EC0, symSize: 0x24 }
  - { offset: 0x8E4D, size: 0x8, addend: 0x0, symName: __RNvXs3_NtNtCsfvfooZQ3Axs_4core3str4iterNtB5_11CharIndicesNtNtNtNtB9_4iter6traits8iterator8Iterator4nextCs7EIZlGwJWX2_13version_check, symObjAddr: 0x2758, symBinAddr: 0x100007094, symSize: 0x120 }
  - { offset: 0x9086, size: 0x8, addend: 0x0, symName: __RNvXs4_NtNtCsfvfooZQ3Axs_4core3str4iterNtB5_11CharIndicesNtNtNtNtB9_4iter6traits12double_ended19DoubleEndedIterator9next_backCs7EIZlGwJWX2_13version_check, symObjAddr: 0x292C, symBinAddr: 0x100007268, symSize: 0x13C }
  - { offset: 0x91D9, size: 0x8, addend: 0x0, symName: __RNvXsH_NtNtCsfvfooZQ3Axs_4core3str4iterINtB5_14SplitInclusivecENtNtNtNtB9_4iter6traits8iterator8Iterator4nextCs7EIZlGwJWX2_13version_check, symObjAddr: 0x2A68, symBinAddr: 0x1000073A4, symSize: 0x24 }
  - { offset: 0x9216, size: 0x8, addend: 0x0, symName: __RNvXsK_NtNtCsfvfooZQ3Axs_4core3str4iterINtB5_14SplitInclusivecENtNtNtNtB9_4iter6traits12double_ended19DoubleEndedIterator9next_backCs7EIZlGwJWX2_13version_check, symObjAddr: 0x2A8C, symBinAddr: 0x1000073C8, symSize: 0x24 }
  - { offset: 0x9253, size: 0x8, addend: 0x0, symName: __RNvXsX_NtNtCsfvfooZQ3Axs_4core3str4iterINtB5_5SplitReENtNtNtNtB9_4iter6traits8iterator8Iterator4nextCs7EIZlGwJWX2_13version_check, symObjAddr: 0x2AB0, symBinAddr: 0x1000073EC, symSize: 0x24 }
  - { offset: 0x928A, size: 0x8, addend: 0x0, symName: __RNvXsX_NtNtCsfvfooZQ3Axs_4core3str4iterINtB5_5SplitcENtNtNtNtB9_4iter6traits8iterator8Iterator4nextCs7EIZlGwJWX2_13version_check, symObjAddr: 0x2AD4, symBinAddr: 0x100007410, symSize: 0x24 }
  - { offset: 0x9300, size: 0x8, addend: 0x0, symName: __RNvXss_NtNtCsfvfooZQ3Axs_4core3str4iterNtB5_5LinesNtNtNtNtB9_4iter6traits8iterator8Iterator4lastCs7EIZlGwJWX2_13version_check, symObjAddr: 0x2BD0, symBinAddr: 0x10000750C, symSize: 0x20 }
  - { offset: 0x934D, size: 0x8, addend: 0x0, symName: __RNvXss_NtNtCsfvfooZQ3Axs_4core3str4iterNtB5_5LinesNtNtNtNtB9_4iter6traits8iterator8Iterator4nextCs7EIZlGwJWX2_13version_check, symObjAddr: 0x2BF0, symBinAddr: 0x10000752C, symSize: 0x24 }
  - { offset: 0x957F, size: 0x8, addend: 0x0, symName: __RNvXs3_NtNtCsfvfooZQ3Axs_4core3str7patternNCNvMB7_e10trim_start0NtB5_11MultiCharEq7matchesCs7EIZlGwJWX2_13version_check, symObjAddr: 0x2878, symBinAddr: 0x1000071B4, symSize: 0x28 }
  - { offset: 0x95C5, size: 0x8, addend: 0x0, symName: __RNvXs3_NtNtCsfvfooZQ3Axs_4core3str7patternNCNvMB7_e4trim0NtB5_11MultiCharEq7matchesCs7EIZlGwJWX2_13version_check, symObjAddr: 0x28A0, symBinAddr: 0x1000071DC, symSize: 0x28 }
  - { offset: 0x960B, size: 0x8, addend: 0x0, symName: __RNvXs3_NtNtCsfvfooZQ3Axs_4core3str7patternNCNvMB7_e8trim_end0NtB5_11MultiCharEq7matchesCs7EIZlGwJWX2_13version_check, symObjAddr: 0x28C8, symBinAddr: 0x100007204, symSize: 0x28 }
  - { offset: 0x9657, size: 0x8, addend: 0x0, symName: __RNvXsr_NtNtCsfvfooZQ3Axs_4core3str7patternNCNvMB7_e10trim_start0NtB5_7Pattern13into_searcherCs7EIZlGwJWX2_13version_check, symObjAddr: 0x2AF8, symBinAddr: 0x100007434, symSize: 0x48 }
  - { offset: 0x969D, size: 0x8, addend: 0x0, symName: __RNvXsr_NtNtCsfvfooZQ3Axs_4core3str7patternNCNvMB7_e4trim0NtB5_7Pattern13into_searcherCs7EIZlGwJWX2_13version_check, symObjAddr: 0x2B40, symBinAddr: 0x10000747C, symSize: 0x48 }
  - { offset: 0x96E3, size: 0x8, addend: 0x0, symName: __RNvXsr_NtNtCsfvfooZQ3Axs_4core3str7patternNCNvMB7_e8trim_end0NtB5_7Pattern13into_searcherCs7EIZlGwJWX2_13version_check, symObjAddr: 0x2B88, symBinAddr: 0x1000074C4, symSize: 0x48 }
  - { offset: 0x9834, size: 0x8, addend: 0x0, symName: __RNvXs3_NtCsfvfooZQ3Axs_4core3strNtB5_8LinesMapINtNtNtB7_3ops8function2FnTReEE4callCs7EIZlGwJWX2_13version_check, symObjAddr: 0x25DC, symBinAddr: 0x100006F18, symSize: 0x17C }
  - { offset: 0x995F, size: 0x8, addend: 0x0, symName: __RNvXs4_NtCsfvfooZQ3Axs_4core3strNtB5_8LinesMapINtNtNtB7_3ops8function5FnMutTReEE8call_mutCs7EIZlGwJWX2_13version_check, symObjAddr: 0x28F0, symBinAddr: 0x10000722C, symSize: 0x3C }
  - { offset: 0x9C8A, size: 0x8, addend: 0x0, symName: __RNvXs2_NtNtNtCsfvfooZQ3Axs_4core3ops8function5implsQNtNtBb_3str8LinesMapINtB7_6FnOnceTReEE9call_onceCs7EIZlGwJWX2_13version_check, symObjAddr: 0x25A8, symBinAddr: 0x100006EE4, symSize: 0x34 }
  - { offset: 0xA927, size: 0x8, addend: 0x0, symName: __RINvYINtNtNtCsfvfooZQ3Axs_4core3str4iter5SplitReENtNtNtNtBa_4iter6traits8iterator8Iterator4findQNCNvCs7EIZlGwJWX2_13version_check35version_and_date_from_rustc_version0EB1A_, symObjAddr: 0xE58, symBinAddr: 0x1000057F4, symSize: 0x90 }
  - { offset: 0xA9A2, size: 0x8, addend: 0x0, symName: __RINvYINtNtNtCsfvfooZQ3Axs_4core3str4iter5SplitReENtNtNtNtBa_4iter6traits8iterator8Iterator6filterNCNvCs7EIZlGwJWX2_13version_check35version_and_date_from_rustc_version0EB1B_, symObjAddr: 0xEE8, symBinAddr: 0x100005884, symSize: 0x30 }
  - { offset: 0xAA07, size: 0x8, addend: 0x0, symName: __RINvYINtNtNtCsfvfooZQ3Axs_4core3str4iter5SplitReENtNtNtNtBa_4iter6traits8iterator8Iterator8try_folduNCINvNvBL_4find5checkBI_QNCNvCs7EIZlGwJWX2_13version_check35version_and_date_from_rustc_version0E0INtNtNtBa_3ops12control_flow11ControlFlowBI_EEB23_, symObjAddr: 0xF18, symBinAddr: 0x1000058B4, symSize: 0x198 }
  - { offset: 0xAAC5, size: 0x8, addend: 0x0, symName: __RINvYINtNtNtCsfvfooZQ3Axs_4core3str4iter5SplitcENtNtNtNtBa_4iter6traits8iterator8Iterator3anyNCNvCs7EIZlGwJWX2_13version_check16supports_features3_0EB1x_, symObjAddr: 0x10B0, symBinAddr: 0x100005A4C, symSize: 0x44 }
  - { offset: 0xAB14, size: 0x8, addend: 0x0, symName: __RINvYINtNtNtCsfvfooZQ3Axs_4core3str4iter5SplitcENtNtNtNtBa_4iter6traits8iterator8Iterator3mapReNCNvCs7EIZlGwJWX2_13version_check16supports_features0_0EB1z_, symObjAddr: 0x1154, symBinAddr: 0x100005A90, symSize: 0x30 }
  - { offset: 0xAB82, size: 0x8, addend: 0x0, symName: __RINvYINtNtNtCsfvfooZQ3Axs_4core3str4iter5SplitcENtNtNtNtBa_4iter6traits8iterator8Iterator4foldINtNtBa_6option6OptionReENCINvNtNtBQ_8adapters3map8map_foldB1Q_B1Q_B1u_NCNvCs7EIZlGwJWX2_13version_check16supports_features0_0NCINvNtB20_6filter11filter_foldB1Q_B1u_NCB2F_s1_0NCIB1W_B1Q_B1Q_B1u_NCB2F_s2_0INvNvBK_4last4someB1Q_EE0E0E0EB2H_, symObjAddr: 0x1184, symBinAddr: 0x100005AC0, symSize: 0x130 }
  - { offset: 0xAC18, size: 0x8, addend: 0x0, symName: __RINvYINtNtNtCsfvfooZQ3Axs_4core3str4iter5SplitcENtNtNtNtBa_4iter6traits8iterator8Iterator8try_folduNCINvNvBK_3any5checkReNCNvCs7EIZlGwJWX2_13version_check16supports_features3_0E0INtNtNtBa_3ops12control_flow11ControlFlowuEEB1Z_, symObjAddr: 0x12B4, symBinAddr: 0x100005BF0, symSize: 0x14C }
  - { offset: 0xAD18, size: 0x8, addend: 0x0, symName: __RNvYINtNtNtCsfvfooZQ3Axs_4core3str4iter5SplitReENtNtNtNtB9_4iter6traits8iterator8Iterator10advance_byCs7EIZlGwJWX2_13version_check, symObjAddr: 0x2C14, symBinAddr: 0x100007550, symSize: 0x138 }
  - { offset: 0xAE6D, size: 0x8, addend: 0x0, symName: __RNvYINtNtNtCsfvfooZQ3Axs_4core3str4iter5SplitReENtNtNtNtB9_4iter6traits8iterator8Iterator3nthCs7EIZlGwJWX2_13version_check, symObjAddr: 0x2D4C, symBinAddr: 0x100007688, symSize: 0x88 }
  - { offset: 0xAF39, size: 0x8, addend: 0x0, symName: __RNvYINtNtNtCsfvfooZQ3Axs_4core3str4iter6SplitNReENtNtNtNtB9_4iter6traits8iterator8Iterator10advance_byCs7EIZlGwJWX2_13version_check, symObjAddr: 0x2F94, symBinAddr: 0x100007710, symSize: 0x138 }
  - { offset: 0xB08E, size: 0x8, addend: 0x0, symName: __RNvYINtNtNtCsfvfooZQ3Axs_4core3str4iter6SplitNReENtNtNtNtB9_4iter6traits8iterator8Iterator3nthCs7EIZlGwJWX2_13version_check, symObjAddr: 0x30CC, symBinAddr: 0x100007848, symSize: 0x88 }
  - { offset: 0xB1A4, size: 0x8, addend: 0x0, symName: __RNvXNtNtNtCsfvfooZQ3Axs_4core4iter6traits7collectNtNtNtB8_3str4iter5LinesNtB2_12IntoIterator9into_iterCs7EIZlGwJWX2_13version_check, symObjAddr: 0x2528, symBinAddr: 0x100006E64, symSize: 0x30 }
  - { offset: 0xC403, size: 0x8, addend: 0x0, symName: __RNvXNvMsT_NtNtNtCse1nGBsou5OW_5alloc11collections5btree4nodeINtB8_6HandleINtB8_7NodeRefNtNtB8_6marker5DyingpppENtB1p_2KVE12drop_key_valINtB2_7DropperINtNtCsfvfooZQ3Axs_4core6option6OptionNtNtNtCscOYdFFY2T5N_3std3ffi6os_str8OsStringEENtNtNtB2s_3ops4drop4Drop4dropCs7EIZlGwJWX2_13version_check, symObjAddr: 0x2558, symBinAddr: 0x100006E94, symSize: 0x2C }
  - { offset: 0xC6D2, size: 0x8, addend: 0x0, symName: __RINvMsh_NtNtNtCse1nGBsou5OW_5alloc11collections5btree4nodeINtB6_7NodeRefNtNtB6_6marker5DyingNtNtNtCscOYdFFY2T5N_3std3ffi6os_str8OsStringINtNtCsfvfooZQ3Axs_4core6option6OptionB1s_ENtB1a_14LeafOrInternalE21deallocate_and_ascendNtNtBc_5alloc6GlobalECs7EIZlGwJWX2_13version_check, symObjAddr: 0x9B4, symBinAddr: 0x100005350, symSize: 0x178 }
  - { offset: 0xC918, size: 0x8, addend: 0x0, symName: __RINvMsj_NtNtNtCse1nGBsou5OW_5alloc11collections5btree8navigateINtNtB8_4node6HandleINtB11_7NodeRefNtNtB11_6marker5DyingNtNtNtCscOYdFFY2T5N_3std3ffi6os_str8OsStringINtNtCsfvfooZQ3Axs_4core6option6OptionB1S_ENtB1z_4LeafENtB1z_4EdgeE16deallocating_endNtNtBc_5alloc6GlobalECs7EIZlGwJWX2_13version_check, symObjAddr: 0xB2C, symBinAddr: 0x1000054C8, symSize: 0xD8 }
  - { offset: 0xCB99, size: 0x8, addend: 0x0, symName: __RINvMsj_NtNtNtCse1nGBsou5OW_5alloc11collections5btree8navigateINtNtB8_4node6HandleINtB11_7NodeRefNtNtB11_6marker5DyingNtNtNtCscOYdFFY2T5N_3std3ffi6os_str8OsStringINtNtCsfvfooZQ3Axs_4core6option6OptionB1S_ENtB1z_4LeafENtB1z_4EdgeE17deallocating_nextNtNtBc_5alloc6GlobalECs7EIZlGwJWX2_13version_check, symObjAddr: 0xC04, symBinAddr: 0x1000055A0, symSize: 0x254 }
  - { offset: 0xCF6F, size: 0x8, addend: 0x0, symName: __RNvMsO_NtNtNtCse1nGBsou5OW_5alloc11collections5btree4nodeINtB5_6HandleINtB5_7NodeRefNtNtB5_6marker5DyingNtNtNtCscOYdFFY2T5N_3std3ffi6os_str8OsStringINtNtCsfvfooZQ3Axs_4core6option6OptionB1E_ENtB1m_8InternalENtB1m_4EdgeE7descendCs7EIZlGwJWX2_13version_check, symObjAddr: 0x1734, symBinAddr: 0x100006070, symSize: 0x94 }
  - { offset: 0xD274, size: 0x8, addend: 0x0, symName: __RNvMsT_NtNtNtCse1nGBsou5OW_5alloc11collections5btree4nodeINtB5_6HandleINtB5_7NodeRefNtNtB5_6marker5DyingNtNtNtCscOYdFFY2T5N_3std3ffi6os_str8OsStringINtNtCsfvfooZQ3Axs_4core6option6OptionB1E_ENtB1m_14LeafOrInternalENtB1m_2KVE12drop_key_valCs7EIZlGwJWX2_13version_check, symObjAddr: 0x17C8, symBinAddr: 0x100006104, symSize: 0x128 }
  - { offset: 0xD5AD, size: 0x8, addend: 0x0, symName: __RNvMse_NtNtNtCse1nGBsou5OW_5alloc11collections5btree4nodeINtB5_7NodeRefNtNtB5_6marker5DyingNtNtNtCscOYdFFY2T5N_3std3ffi6os_str8OsStringINtNtCsfvfooZQ3Axs_4core6option6OptionB1r_ENtB19_14LeafOrInternalE6ascendCs7EIZlGwJWX2_13version_check, symObjAddr: 0x18F0, symBinAddr: 0x10000622C, symSize: 0x168 }
  - { offset: 0xD712, size: 0x8, addend: 0x0, symName: __RNvMsf_NtNtCsfvfooZQ3Axs_4core3str4iterINtB5_13SplitInternalReE4nextCs7EIZlGwJWX2_13version_check, symObjAddr: 0x1A58, symBinAddr: 0x100006394, symSize: 0x134 }
  - { offset: 0xD84E, size: 0x8, addend: 0x0, symName: __RNvMsf_NtNtCsfvfooZQ3Axs_4core3str4iterINtB5_13SplitInternalReE7get_endCs7EIZlGwJWX2_13version_check, symObjAddr: 0x1B8C, symBinAddr: 0x1000064C8, symSize: 0x11C }
  - { offset: 0xD959, size: 0x8, addend: 0x0, symName: __RNvMsf_NtNtCsfvfooZQ3Axs_4core3str4iterINtB5_13SplitInternalcE14next_inclusiveCs7EIZlGwJWX2_13version_check, symObjAddr: 0x1CA8, symBinAddr: 0x1000065E4, symSize: 0x128 }
  - { offset: 0xDA84, size: 0x8, addend: 0x0, symName: __RNvMsf_NtNtCsfvfooZQ3Axs_4core3str4iterINtB5_13SplitInternalcE19next_back_inclusiveCs7EIZlGwJWX2_13version_check, symObjAddr: 0x1DD0, symBinAddr: 0x10000670C, symSize: 0x24C }
  - { offset: 0xDCA0, size: 0x8, addend: 0x0, symName: __RNvMsf_NtNtCsfvfooZQ3Axs_4core3str4iterINtB5_13SplitInternalcE4nextCs7EIZlGwJWX2_13version_check, symObjAddr: 0x201C, symBinAddr: 0x100006958, symSize: 0x138 }
  - { offset: 0xDDDC, size: 0x8, addend: 0x0, symName: __RNvMsf_NtNtCsfvfooZQ3Axs_4core3str4iterINtB5_13SplitInternalcE7get_endCs7EIZlGwJWX2_13version_check, symObjAddr: 0x2154, symBinAddr: 0x100006A90, symSize: 0x120 }
  - { offset: 0xDEE7, size: 0x8, addend: 0x0, symName: __RNvMsl_NtNtCsfvfooZQ3Axs_4core3str4iterINtB5_14SplitNInternalReE4nextCs7EIZlGwJWX2_13version_check, symObjAddr: 0x2274, symBinAddr: 0x100006BB0, symSize: 0xA4 }
  - { offset: 0xE127, size: 0x8, addend: 0x0, symName: __RNvMsp_NtNtNtCse1nGBsou5OW_5alloc11collections5btree8navigateINtNtB7_4node6HandleINtB10_7NodeRefNtNtB10_6marker5DyingNtNtNtCscOYdFFY2T5N_3std3ffi6os_str8OsStringINtNtCsfvfooZQ3Axs_4core6option6OptionB1R_ENtB1y_14LeafOrInternalENtB1y_2KVE14next_leaf_edgeCs7EIZlGwJWX2_13version_check, symObjAddr: 0x2318, symBinAddr: 0x100006C54, symSize: 0x210 }
  - { offset: 0xE79C, size: 0x8, addend: 0x0, symName: __RINvMNtCsfvfooZQ3Axs_4core6resultINtB3_6ResultNtNtCse1nGBsou5OW_5alloc6string6StringNtNtCscOYdFFY2T5N_3std3env8VarErrorE14unwrap_or_elseNCNvCs7EIZlGwJWX2_13version_check20get_version_and_date0EB2e_, symObjAddr: 0x0, symBinAddr: 0x1000078D0, symSize: 0x8C }
  - { offset: 0xE7ED, size: 0x8, addend: 0x0, symName: __RNvXs5_NtNtCsfvfooZQ3Axs_4core3num5errorNtB5_15TryFromIntErrorNtNtB9_3fmt5Debug3fmtCs7EIZlGwJWX2_13version_check, symObjAddr: 0x1C7C, symBinAddr: 0x1000094CC, symSize: 0x54 }
  - { offset: 0xFC25, size: 0x8, addend: 0x0, symName: __RNvXs_NvNtNtCsfvfooZQ3Axs_4core3fmt5Write9write_fmtQINtNvNtNtCscOYdFFY2T5N_3std2io5Write9write_fmt7AdapterNtNtNtNtNtBX_3sys3pal4unix5stdio6StderrENtB4_12SpecWriteFmt14spec_write_fmtCs7EIZlGwJWX2_13version_check, symObjAddr: 0x20C4, symBinAddr: 0x100009914, symSize: 0x164 }
  - { offset: 0xFCD4, size: 0x8, addend: 0x0, symName: __RNvYINtNvNtNtCscOYdFFY2T5N_3std2io5Write9write_fmt7AdapterNtNtNtNtNtBb_3sys3pal4unix5stdio6StderrENtNtCsfvfooZQ3Axs_4core3fmt5Write10write_charCs7EIZlGwJWX2_13version_check, symObjAddr: 0x2228, symBinAddr: 0x100009A78, symSize: 0x70 }
  - { offset: 0xFD3C, size: 0x8, addend: 0x0, symName: __RNvYINtNvNtNtCscOYdFFY2T5N_3std2io5Write9write_fmt7AdapterNtNtNtNtNtBb_3sys3pal4unix5stdio6StderrENtNtCsfvfooZQ3Axs_4core3fmt5Write9write_fmtCs7EIZlGwJWX2_13version_check, symObjAddr: 0x2298, symBinAddr: 0x100009AE8, symSize: 0x24 }
  - { offset: 0xFD91, size: 0x8, addend: 0x0, symName: __RNvXNtNtCsfvfooZQ3Axs_4core3cmp5implsuNtB4_9PartialEq2eqCs7EIZlGwJWX2_13version_check, symObjAddr: 0x19BC, symBinAddr: 0x10000928C, symSize: 0x1C }
  - { offset: 0xFDD4, size: 0x8, addend: 0x0, symName: __RNvXs7_NtNtCsfvfooZQ3Axs_4core3cmp5implsReNtB7_9PartialEq2eqCs7EIZlGwJWX2_13version_check, symObjAddr: 0x2080, symBinAddr: 0x1000098D0, symSize: 0x44 }
  - { offset: 0x10B2E, size: 0x8, addend: 0x0, symName: __RINvNtNtCsfvfooZQ3Axs_4core3str11validations15next_code_pointINtNtNtB6_5slice4iter4IterhEECs7EIZlGwJWX2_13version_check, symObjAddr: 0x1DC, symBinAddr: 0x100007AAC, symSize: 0x20C }
  - { offset: 0x10DE8, size: 0x8, addend: 0x0, symName: __RINvNtNtCsfvfooZQ3Axs_4core3str11validations23next_code_point_reverseINtNtNtB6_5slice4iter4IterhEECs7EIZlGwJWX2_13version_check, symObjAddr: 0x3E8, symBinAddr: 0x100007CB8, symSize: 0x234 }
  - { offset: 0x11485, size: 0x8, addend: 0x0, symName: __RNvXs1_NtNtNtCsfvfooZQ3Axs_4core3ops8function5implsQNCNvCs7EIZlGwJWX2_13version_check35version_and_date_from_rustc_version0INtB7_5FnMutTRReEE8call_mutBS_, symObjAddr: 0x1C4C, symBinAddr: 0x10000949C, symSize: 0x30 }
  - { offset: 0x117D2, size: 0x8, addend: 0x0, symName: __RNvNvNtNtCsfvfooZQ3Axs_4core4char7convert18from_u32_unchecked18precondition_checkCs7EIZlGwJWX2_13version_check, symObjAddr: 0x1924, symBinAddr: 0x1000091F4, symSize: 0x98 }
  - { offset: 0x119BF, size: 0x8, addend: 0x0, symName: __RNvXNvNtNtCscOYdFFY2T5N_3std2io5Write9write_fmtINtB2_7AdapterNtNtNtNtNtB8_3sys3pal4unix5stdio6StderrENtNtCsfvfooZQ3Axs_4core3fmt5Write9write_strCs7EIZlGwJWX2_13version_check, symObjAddr: 0x19D8, symBinAddr: 0x1000092A8, symSize: 0xB8 }
  - { offset: 0x11AFD, size: 0x8, addend: 0x0, symName: __RNCNvXs1_NtNtNtCscOYdFFY2T5N_3std2io5error14repr_bitpackedNtB7_4ReprNtNtNtCsfvfooZQ3Axs_4core3ops4drop4Drop4drop0Cs7EIZlGwJWX2_13version_check, symObjAddr: 0xC8C, symBinAddr: 0x10000855C, symSize: 0x34 }
  - { offset: 0x11BB2, size: 0x8, addend: 0x0, symName: __RNvXs1_NtNtNtCscOYdFFY2T5N_3std2io5error14repr_bitpackedNtB5_4ReprNtNtNtCsfvfooZQ3Axs_4core3ops4drop4Drop4dropCs7EIZlGwJWX2_13version_check, symObjAddr: 0x1C14, symBinAddr: 0x100009464, symSize: 0x38 }
  - { offset: 0x11BDB, size: 0x8, addend: 0x0, symName: __RINvNtNtNtCscOYdFFY2T5N_3std2io5error14repr_bitpacked11decode_reprINtNtCse1nGBsou5OW_5alloc5boxed3BoxNtB4_6CustomENCNvXs1_B2_NtB2_4ReprNtNtNtCsfvfooZQ3Axs_4core3ops4drop4Drop4drop0ECs7EIZlGwJWX2_13version_check, symObjAddr: 0x61C, symBinAddr: 0x100007EEC, symSize: 0x230 }
  - { offset: 0x11E91, size: 0x8, addend: 0x0, symName: __RNCNvMs0_NtNtNtCscOYdFFY2T5N_3std2io5error14repr_bitpackedNtB7_4Repr4data0Cs7EIZlGwJWX2_13version_check, symObjAddr: 0xC78, symBinAddr: 0x100008548, symSize: 0x14 }
  - { offset: 0x11EC9, size: 0x8, addend: 0x0, symName: __RINvNtNtNtCscOYdFFY2T5N_3std2io5error14repr_bitpacked11decode_reprRNtB4_6CustomNCNvMs0_B2_NtB2_4Repr4data0ECs7EIZlGwJWX2_13version_check, symObjAddr: 0x84C, symBinAddr: 0x10000811C, symSize: 0x230 }
  - { offset: 0x1216E, size: 0x8, addend: 0x0, symName: __RNvNtNtNtCscOYdFFY2T5N_3std2io5error14repr_bitpacked14kind_from_primCs7EIZlGwJWX2_13version_check, symObjAddr: 0x131C, symBinAddr: 0x100008BEC, symSize: 0x608 }
  - { offset: 0x12E62, size: 0x8, addend: 0x0, symName: __RNCNvCs7EIZlGwJWX2_13version_check20get_version_and_date0B3_, symObjAddr: 0x2D64, symBinAddr: 0x10000A5B4, symSize: 0x74 }
  - { offset: 0x12E95, size: 0x8, addend: 0x0, symName: __RNCNvCs7EIZlGwJWX2_13version_check20get_version_and_dates_0B3_, symObjAddr: 0x2DD8, symBinAddr: 0x10000A628, symSize: 0x9C }
  - { offset: 0x12ECC, size: 0x8, addend: 0x0, symName: __RNCNvCs7EIZlGwJWX2_13version_check20get_version_and_dates0_0B3_, symObjAddr: 0x2E74, symBinAddr: 0x10000A6C4, symSize: 0x84 }
  - { offset: 0x12F12, size: 0x8, addend: 0x0, symName: __RNvCs7EIZlGwJWX2_13version_check35version_and_date_from_rustc_version, symObjAddr: 0x22BC, symBinAddr: 0x100009B0C, symSize: 0x170 }
  - { offset: 0x12FBA, size: 0x8, addend: 0x0, symName: __RNCNvCs7EIZlGwJWX2_13version_check35version_and_date_from_rustc_version0B3_, symObjAddr: 0x242C, symBinAddr: 0x100009C7C, symSize: 0x44 }
  - { offset: 0x12FF0, size: 0x8, addend: 0x0, symName: __RNCNvCs7EIZlGwJWX2_13version_check35version_and_date_from_rustc_versions_0B3_, symObjAddr: 0x2470, symBinAddr: 0x100009CC0, symSize: 0x58 }
  - { offset: 0x13026, size: 0x8, addend: 0x0, symName: __RNCNvCs7EIZlGwJWX2_13version_check35version_and_date_from_rustc_versions0_0B3_, symObjAddr: 0x24C8, symBinAddr: 0x100009D18, symSize: 0x38 }
  - { offset: 0x1305C, size: 0x8, addend: 0x0, symName: __RNCNvCs7EIZlGwJWX2_13version_check35version_and_date_from_rustc_versions1_0B3_, symObjAddr: 0x2500, symBinAddr: 0x100009D50, symSize: 0x38 }
  - { offset: 0x130AF, size: 0x8, addend: 0x0, symName: __RNvCs7EIZlGwJWX2_13version_check43version_and_date_from_rustc_verbose_version, symObjAddr: 0x2538, symBinAddr: 0x100009D88, symSize: 0x640 }
  - { offset: 0x1316D, size: 0x8, addend: 0x0, symName: __RNCNvCs7EIZlGwJWX2_13version_check43version_and_date_from_rustc_verbose_version0B3_, symObjAddr: 0x2B78, symBinAddr: 0x10000A3C8, symSize: 0x80 }
  - { offset: 0x131A8, size: 0x8, addend: 0x0, symName: __RNCNCNvCs7EIZlGwJWX2_13version_check43version_and_date_from_rustc_verbose_version00B5_, symObjAddr: 0x2BF8, symBinAddr: 0x10000A448, symSize: 0x44 }
  - { offset: 0x131EE, size: 0x8, addend: 0x0, symName: __RNvCs7EIZlGwJWX2_13version_check20get_version_and_date, symObjAddr: 0x2C3C, symBinAddr: 0x10000A48C, symSize: 0x128 }
  - { offset: 0x13221, size: 0x8, addend: 0x0, symName: __RNvCs7EIZlGwJWX2_13version_check20is_feature_flaggable, symObjAddr: 0x3750, symBinAddr: 0x10000A748, symSize: 0x28 }
  - { offset: 0x13244, size: 0x8, addend: 0x0, symName: __RNCNvCs7EIZlGwJWX2_13version_check20is_feature_flaggable0B3_, symObjAddr: 0x3778, symBinAddr: 0x10000A770, symSize: 0x38 }
  - { offset: 0x13285, size: 0x8, addend: 0x0, symName: __RNvCs7EIZlGwJWX2_13version_check16supports_feature, symObjAddr: 0x37B0, symBinAddr: 0x10000A7A8, symSize: 0x308 }
  - { offset: 0x1333B, size: 0x8, addend: 0x0, symName: __RNCNvCs7EIZlGwJWX2_13version_check16supports_feature0B3_, symObjAddr: 0x3AB8, symBinAddr: 0x10000AAB0, symSize: 0x38 }
  - { offset: 0x13374, size: 0x8, addend: 0x0, symName: __RNCNvCs7EIZlGwJWX2_13version_check16supports_features_0B3_, symObjAddr: 0x3AF0, symBinAddr: 0x10000AAE8, symSize: 0x54 }
  - { offset: 0x133A3, size: 0x8, addend: 0x0, symName: __RNCNCNvCs7EIZlGwJWX2_13version_check16supports_features_00B5_, symObjAddr: 0x3B44, symBinAddr: 0x10000AB3C, symSize: 0x38 }
  - { offset: 0x133E4, size: 0x8, addend: 0x0, symName: __RNCNvCs7EIZlGwJWX2_13version_check16supports_features0_0B3_, symObjAddr: 0x3B7C, symBinAddr: 0x10000AB74, symSize: 0x5C }
  - { offset: 0x1341D, size: 0x8, addend: 0x0, symName: __RNCNvCs7EIZlGwJWX2_13version_check16supports_features1_0B3_, symObjAddr: 0x3BD8, symBinAddr: 0x10000ABD0, symSize: 0x50 }
  - { offset: 0x13456, size: 0x8, addend: 0x0, symName: __RNCNvCs7EIZlGwJWX2_13version_check16supports_features2_0B3_, symObjAddr: 0x3C28, symBinAddr: 0x10000AC20, symSize: 0x68 }
  - { offset: 0x1348F, size: 0x8, addend: 0x0, symName: __RNCNvCs7EIZlGwJWX2_13version_check16supports_features3_0B3_, symObjAddr: 0x3C90, symBinAddr: 0x10000AC88, symSize: 0x68 }
  - { offset: 0x1379B, size: 0x8, addend: 0x0, symName: __RNvXs1_NtCse1nGBsou5OW_5alloc7raw_vecINtB5_6RawVecINtNtB7_5boxed3BoxDINtNtNtCsfvfooZQ3Axs_4core3ops8function5FnMutuEp6OutputINtNtB1c_6result6ResultuNtNtNtCscOYdFFY2T5N_3std2io5error5ErrorENtNtB1c_6marker4SendNtB32_4SyncEL_EENtNtB1a_4drop4Drop4dropCs7EIZlGwJWX2_13version_check, symObjAddr: 0x1B7C, symBinAddr: 0x1000093CC, symSize: 0x34 }
  - { offset: 0x137D7, size: 0x8, addend: 0x0, symName: __RNvXs1_NtCse1nGBsou5OW_5alloc7raw_vecINtB5_6RawVecNtNtNtB7_3ffi5c_str7CStringENtNtNtCsfvfooZQ3Axs_4core3ops4drop4Drop4dropCs7EIZlGwJWX2_13version_check, symObjAddr: 0x1BB0, symBinAddr: 0x100009400, symSize: 0x34 }
  - { offset: 0x13813, size: 0x8, addend: 0x0, symName: __RNvXs1_NtCse1nGBsou5OW_5alloc7raw_vecINtB5_6RawVecPaENtNtNtCsfvfooZQ3Axs_4core3ops4drop4Drop4dropCs7EIZlGwJWX2_13version_check, symObjAddr: 0x1BE4, symBinAddr: 0x100009434, symSize: 0x30 }
  - { offset: 0x13A8D, size: 0x8, addend: 0x0, symName: __RNCINvMsm_NtNtNtCse1nGBsou5OW_5alloc11collections5btree8navigateINtNtBa_4node6HandleINtB13_7NodeRefNtNtB13_6marker5DyingNtNtNtCscOYdFFY2T5N_3std3ffi6os_str8OsStringINtNtCsfvfooZQ3Axs_4core6option6OptionB1U_ENtB1B_4LeafENtB1B_4EdgeE27deallocating_next_uncheckedNtNtBe_5alloc6GlobalE0Cs7EIZlGwJWX2_13version_check, symObjAddr: 0xC20, symBinAddr: 0x1000084F0, symSize: 0x58 }
  - { offset: 0x13FB2, size: 0x8, addend: 0x0, symName: __RINvNtNtNtCse1nGBsou5OW_5alloc11collections5btree3mem7replaceINtNtB4_4node6HandleINtB10_7NodeRefNtNtB10_6marker5DyingNtNtNtCscOYdFFY2T5N_3std3ffi6os_str8OsStringINtNtCsfvfooZQ3Axs_4core6option6OptionB1R_ENtB1y_4LeafENtB1y_4EdgeEIBY_IB1i_B1w_B1R_B2z_NtB1y_14LeafOrInternalENtB1y_2KVENCINvMsm_NtB4_8navigateBX_27deallocating_next_uncheckedNtNtB8_5alloc6GlobalE0ECs7EIZlGwJWX2_13version_check, symObjAddr: 0xA7C, symBinAddr: 0x10000834C, symSize: 0xCC }
  - { offset: 0x14131, size: 0x8, addend: 0x0, symName: __RINvXs_NtNtCse1nGBsou5OW_5alloc5slice4hackhNtB5_10ConvertVec6to_vecNtNtB9_5alloc6GlobalECs7EIZlGwJWX2_13version_check, symObjAddr: 0xB48, symBinAddr: 0x100008418, symSize: 0xD8 }
  - { offset: 0x14374, size: 0x8, addend: 0x0, symName: __RNvXs6_NtCse1nGBsou5OW_5alloc5boxedINtB5_3BoxDINtNtNtCsfvfooZQ3Axs_4core3ops8function5FnMutuEp6OutputINtNtBP_6result6ResultuNtNtNtCscOYdFFY2T5N_3std2io5error5ErrorENtNtBP_6marker4SendNtB2E_4SyncEL_ENtNtBN_4drop4Drop4dropCs7EIZlGwJWX2_13version_check, symObjAddr: 0x1CD0, symBinAddr: 0x100009520, symSize: 0xC4 }
  - { offset: 0x144AB, size: 0x8, addend: 0x0, symName: __RNvXs6_NtCse1nGBsou5OW_5alloc5boxedINtB5_3BoxDNtNtCsfvfooZQ3Axs_4core5error5ErrorNtNtBM_6marker4SendNtB1j_4SyncEL_ENtNtNtBM_3ops4drop4Drop4dropCs7EIZlGwJWX2_13version_check, symObjAddr: 0x1D94, symBinAddr: 0x1000095E4, symSize: 0xC4 }
  - { offset: 0x145E2, size: 0x8, addend: 0x0, symName: __RNvXs6_NtCse1nGBsou5OW_5alloc5boxedINtB5_3BoxNtNtNtCscOYdFFY2T5N_3std2io5error6CustomENtNtNtCsfvfooZQ3Axs_4core3ops4drop4Drop4dropCs7EIZlGwJWX2_13version_check, symObjAddr: 0x1E58, symBinAddr: 0x1000096A8, symSize: 0xB0 }
  - { offset: 0x14719, size: 0x8, addend: 0x0, symName: __RNvXs6_NtCse1nGBsou5OW_5alloc5boxedINtB5_3BoxShENtNtNtCsfvfooZQ3Axs_4core3ops4drop4Drop4dropCs7EIZlGwJWX2_13version_check, symObjAddr: 0x1F08, symBinAddr: 0x100009758, symSize: 0xBC }
  - { offset: 0x14850, size: 0x8, addend: 0x0, symName: __RNvXs6_NtCse1nGBsou5OW_5alloc5boxedINtB5_3BoxSmENtNtNtCsfvfooZQ3Axs_4core3ops4drop4Drop4dropCs7EIZlGwJWX2_13version_check, symObjAddr: 0x1FC4, symBinAddr: 0x100009814, symSize: 0xBC }
  - { offset: 0x14998, size: 0x8, addend: 0x0, symName: __RNvXs0_NtNtCse1nGBsou5OW_5alloc3ffi5c_strNtB5_7CStringNtNtNtCsfvfooZQ3Axs_4core3ops4drop4Drop4dropCs7EIZlGwJWX2_13version_check, symObjAddr: 0x1A90, symBinAddr: 0x100009360, symSize: 0x6C }
  - { offset: 0x14AD8, size: 0x8, addend: 0x0, symName: __RINvMNtCsfvfooZQ3Axs_4core6resultINtB3_6ResultNtNtCse1nGBsou5OW_5alloc6string6StringNtNtCscOYdFFY2T5N_3std3env8VarErrorE14unwrap_or_elseNCNvCs7EIZlGwJWX2_13version_check20get_version_and_date0EB2e_, symObjAddr: 0x0, symBinAddr: 0x1000078D0, symSize: 0x8C }
  - { offset: 0x14BF3, size: 0x8, addend: 0x0, symName: __RINvMsb_NtNtNtCse1nGBsou5OW_5alloc11collections5btree8navigateINtB6_13LazyLeafRangeNtNtNtB8_4node6marker5DyingNtNtNtCscOYdFFY2T5N_3std3ffi6os_str8OsStringINtNtCsfvfooZQ3Axs_4core6option6OptionB1K_EE16deallocating_endNtNtBc_5alloc6GlobalECs7EIZlGwJWX2_13version_check, symObjAddr: 0x8C, symBinAddr: 0x10000795C, symSize: 0xA8 }
  - { offset: 0x14CC5, size: 0x8, addend: 0x0, symName: __RINvMsb_NtNtNtCse1nGBsou5OW_5alloc11collections5btree8navigateINtB6_13LazyLeafRangeNtNtNtB8_4node6marker5DyingNtNtNtCscOYdFFY2T5N_3std3ffi6os_str8OsStringINtNtCsfvfooZQ3Axs_4core6option6OptionB1K_EE27deallocating_next_uncheckedNtNtBc_5alloc6GlobalECs7EIZlGwJWX2_13version_check, symObjAddr: 0x134, symBinAddr: 0x100007A04, symSize: 0xA8 }
  - { offset: 0x151F5, size: 0x8, addend: 0x0, symName: __RNvMNtCsfvfooZQ3Axs_4core6resultINtB2_6ResultNtNtCscOYdFFY2T5N_3std7process6OutputNtNtNtBL_2io5error5ErrorE2okCs7EIZlGwJWX2_13version_check, symObjAddr: 0xCC0, symBinAddr: 0x100008590, symSize: 0xA8 }
  - { offset: 0x15249, size: 0x8, addend: 0x0, symName: __RNvMNtCsfvfooZQ3Axs_4core6resultINtB2_6ResultNtNtCse1nGBsou5OW_5alloc6string6StringNtBJ_13FromUtf8ErrorE2okCs7EIZlGwJWX2_13version_check, symObjAddr: 0xD68, symBinAddr: 0x100008638, symSize: 0x9C }
  - { offset: 0x1529D, size: 0x8, addend: 0x0, symName: __RNvMNtCsfvfooZQ3Axs_4core6resultINtB2_6ResulthNtNtNtB4_3num5error15TryFromIntErrorE6expectCs7EIZlGwJWX2_13version_check, symObjAddr: 0xE04, symBinAddr: 0x1000086D4, symSize: 0x84 }
  - { offset: 0x15399, size: 0x8, addend: 0x0, symName: __RNvMs2_NtCse1nGBsou5OW_5alloc7raw_vecNtB5_11RawVecInner16with_capacity_inCs7EIZlGwJWX2_13version_check, symObjAddr: 0xE88, symBinAddr: 0x100008758, symSize: 0x10C }
  - { offset: 0x15679, size: 0x8, addend: 0x0, symName: __RNvMsb_NtNtNtCse1nGBsou5OW_5alloc11collections5btree8navigateINtB5_13LazyLeafRangeNtNtNtB7_4node6marker5DyingNtNtNtCscOYdFFY2T5N_3std3ffi6os_str8OsStringINtNtCsfvfooZQ3Axs_4core6option6OptionB1J_EE10take_frontCs7EIZlGwJWX2_13version_check, symObjAddr: 0xF94, symBinAddr: 0x100008864, symSize: 0x1C4 }
  - { offset: 0x15A02, size: 0x8, addend: 0x0, symName: __RNvMsc_NtNtNtCse1nGBsou5OW_5alloc11collections5btree8navigateINtB5_13LazyLeafRangeNtNtNtB7_4node6marker5DyingNtNtNtCscOYdFFY2T5N_3std3ffi6os_str8OsStringINtNtCsfvfooZQ3Axs_4core6option6OptionB1J_EE10init_frontCs7EIZlGwJWX2_13version_check, symObjAddr: 0x1158, symBinAddr: 0x100008A28, symSize: 0x1C4 }
  - { offset: 0x16653, size: 0x8, addend: 0x0, symName: __RNvXs1a_NtCsfvfooZQ3Axs_4core3fmtRuNtB6_5Debug3fmtCs7EIZlGwJWX2_13version_check, symObjAddr: 0x2490, symBinAddr: 0x10000CBA0, symSize: 0x30 }
  - { offset: 0x1669F, size: 0x8, addend: 0x0, symName: __RNvXss_NtCsfvfooZQ3Axs_4core3fmtuNtB5_5Debug3fmtCs7EIZlGwJWX2_13version_check, symObjAddr: 0x2E18, symBinAddr: 0x10000CFD8, symSize: 0x40 }
  - { offset: 0x1684C, size: 0x8, addend: 0x0, symName: __RNvYjNtNtCsfvfooZQ3Axs_4core3cmp3Ord3maxCs7EIZlGwJWX2_13version_check, symObjAddr: 0x32DC, symBinAddr: 0x10000D2B4, symSize: 0x80 }
  - { offset: 0x168BA, size: 0x8, addend: 0x0, symName: __RNvYjNtNtCsfvfooZQ3Axs_4core3cmp3Ord3minCs7EIZlGwJWX2_13version_check, symObjAddr: 0x335C, symBinAddr: 0x10000D334, symSize: 0x80 }
  - { offset: 0x17114, size: 0x8, addend: 0x0, symName: __RINvNtCsfvfooZQ3Axs_4core3ptr13drop_in_placeINtNtB4_6option6OptionINtNtCse1nGBsou5OW_5alloc5boxed3BoxSmEEECs7EIZlGwJWX2_13version_check, symObjAddr: 0x254, symBinAddr: 0x10000ADC0, symSize: 0x44 }
  - { offset: 0x17143, size: 0x8, addend: 0x0, symName: __RINvNtCsfvfooZQ3Axs_4core3ptr13drop_in_placeINtNtB4_6option6OptionNtNtCse1nGBsou5OW_5alloc6string6StringEECs7EIZlGwJWX2_13version_check, symObjAddr: 0x298, symBinAddr: 0x10000AE04, symSize: 0x48 }
  - { offset: 0x17172, size: 0x8, addend: 0x0, symName: __RINvNtCsfvfooZQ3Axs_4core3ptr13drop_in_placeINtNtB4_6option6OptionNtNtNtCscOYdFFY2T5N_3std3ffi6os_str8OsStringEECs7EIZlGwJWX2_13version_check, symObjAddr: 0x2E0, symBinAddr: 0x10000AE4C, symSize: 0x48 }
  - { offset: 0x171A1, size: 0x8, addend: 0x0, symName: __RINvNtCsfvfooZQ3Axs_4core3ptr13drop_in_placeINtNtB4_6option6OptionNtNtNtCse1nGBsou5OW_5alloc3ffi5c_str7CStringEECs7EIZlGwJWX2_13version_check, symObjAddr: 0x328, symBinAddr: 0x10000AE94, symSize: 0x44 }
  - { offset: 0x171D0, size: 0x8, addend: 0x0, symName: __RINvNtCsfvfooZQ3Axs_4core3ptr13drop_in_placeINtNtB4_6option6OptionNtNtNtNtNtNtCscOYdFFY2T5N_3std3sys3pal4unix7process14process_common5StdioEECs7EIZlGwJWX2_13version_check, symObjAddr: 0x36C, symBinAddr: 0x10000AED8, symSize: 0x44 }
  - { offset: 0x171FF, size: 0x8, addend: 0x0, symName: __RINvNtCsfvfooZQ3Axs_4core3ptr13drop_in_placeINtNtB4_6option6OptionTNtNtNtCscOYdFFY2T5N_3std3ffi6os_str8OsStringcEEECs7EIZlGwJWX2_13version_check, symObjAddr: 0x3F8, symBinAddr: 0x10000AF1C, symSize: 0x48 }
  - { offset: 0x1722E, size: 0x8, addend: 0x0, symName: __RINvNtCsfvfooZQ3Axs_4core3ptr13drop_in_placeINtNtB4_6result6ResultNtNtCscOYdFFY2T5N_3std7process6OutputNtNtNtB16_2io5error5ErrorEECs7EIZlGwJWX2_13version_check, symObjAddr: 0x440, symBinAddr: 0x10000AF64, symSize: 0x5C }
  - { offset: 0x1725D, size: 0x8, addend: 0x0, symName: __RINvNtCsfvfooZQ3Axs_4core3ptr13drop_in_placeINtNtB4_6result6ResultNtNtCse1nGBsou5OW_5alloc6string6StringNtB14_13FromUtf8ErrorEECs7EIZlGwJWX2_13version_check, symObjAddr: 0x49C, symBinAddr: 0x10000AFC0, symSize: 0x58 }
  - { offset: 0x1728C, size: 0x8, addend: 0x0, symName: __RINvNtCsfvfooZQ3Axs_4core3ptr13drop_in_placeINtNtB4_6result6ResultuNtNtNtCscOYdFFY2T5N_3std2io5error5ErrorEECs7EIZlGwJWX2_13version_check, symObjAddr: 0x4F4, symBinAddr: 0x10000B018, symSize: 0x44 }
  - { offset: 0x172BB, size: 0x8, addend: 0x0, symName: __RINvNtCsfvfooZQ3Axs_4core3ptr13drop_in_placeINtNtCse1nGBsou5OW_5alloc3vec3VecINtNtBL_5boxed3BoxDINtNtNtB4_3ops8function5FnMutuEp6OutputINtNtB4_6result6ResultuNtNtNtCscOYdFFY2T5N_3std2io5error5ErrorENtNtB4_6marker4SendNtB3c_4SyncEL_EEECs7EIZlGwJWX2_13version_check, symObjAddr: 0x538, symBinAddr: 0x10000B05C, symSize: 0x5C }
  - { offset: 0x172EA, size: 0x8, addend: 0x0, symName: __RINvNtCsfvfooZQ3Axs_4core3ptr13drop_in_placeINtNtCse1nGBsou5OW_5alloc3vec3VecNtNtNtBL_3ffi5c_str7CStringEECs7EIZlGwJWX2_13version_check, symObjAddr: 0x594, symBinAddr: 0x10000B0B8, symSize: 0x5C }
  - { offset: 0x17319, size: 0x8, addend: 0x0, symName: __RINvNtCsfvfooZQ3Axs_4core3ptr13drop_in_placeINtNtCse1nGBsou5OW_5alloc3vec3VecPaEECs7EIZlGwJWX2_13version_check, symObjAddr: 0x5F0, symBinAddr: 0x10000B114, symSize: 0x5C }
  - { offset: 0x17348, size: 0x8, addend: 0x0, symName: __RINvNtCsfvfooZQ3Axs_4core3ptr13drop_in_placeINtNtCse1nGBsou5OW_5alloc3vec3VechEECs7EIZlGwJWX2_13version_check, symObjAddr: 0x64C, symBinAddr: 0x10000B170, symSize: 0x5C }
  - { offset: 0x17377, size: 0x8, addend: 0x0, symName: __RINvNtCsfvfooZQ3Axs_4core3ptr13drop_in_placeINtNtCse1nGBsou5OW_5alloc5boxed3BoxDINtNtNtB4_3ops8function5FnMutuEp6OutputINtNtB4_6result6ResultuNtNtNtCscOYdFFY2T5N_3std2io5error5ErrorENtNtB4_6marker4SendNtB2W_4SyncEL_EECs7EIZlGwJWX2_13version_check, symObjAddr: 0x6A8, symBinAddr: 0x10000B1CC, symSize: 0x80 }
  - { offset: 0x173A6, size: 0x8, addend: 0x0, symName: __RINvNtCsfvfooZQ3Axs_4core3ptr13drop_in_placeINtNtCse1nGBsou5OW_5alloc5boxed3BoxDNtNtB4_5error5ErrorNtNtB4_6marker4SendNtB1B_4SyncEL_EECs7EIZlGwJWX2_13version_check, symObjAddr: 0x728, symBinAddr: 0x10000B24C, symSize: 0x80 }
  - { offset: 0x173D5, size: 0x8, addend: 0x0, symName: __RINvNtCsfvfooZQ3Axs_4core3ptr13drop_in_placeINtNtCse1nGBsou5OW_5alloc5boxed3BoxNtNtNtCscOYdFFY2T5N_3std2io5error6CustomEECs7EIZlGwJWX2_13version_check, symObjAddr: 0x7A8, symBinAddr: 0x10000B2CC, symSize: 0x60 }
  - { offset: 0x17404, size: 0x8, addend: 0x0, symName: __RINvNtCsfvfooZQ3Axs_4core3ptr13drop_in_placeINtNtCse1nGBsou5OW_5alloc5boxed3BoxShEECs7EIZlGwJWX2_13version_check, symObjAddr: 0x808, symBinAddr: 0x10000B32C, symSize: 0x2C }
  - { offset: 0x17433, size: 0x8, addend: 0x0, symName: __RINvNtCsfvfooZQ3Axs_4core3ptr13drop_in_placeINtNtCse1nGBsou5OW_5alloc5boxed3BoxSmEECs7EIZlGwJWX2_13version_check, symObjAddr: 0x834, symBinAddr: 0x10000B358, symSize: 0x2C }
  - { offset: 0x17462, size: 0x8, addend: 0x0, symName: __RINvNtCsfvfooZQ3Axs_4core3ptr13drop_in_placeINtNtCse1nGBsou5OW_5alloc6borrow3CoweEECs7EIZlGwJWX2_13version_check, symObjAddr: 0x860, symBinAddr: 0x10000B384, symSize: 0x48 }
  - { offset: 0x17491, size: 0x8, addend: 0x0, symName: __RINvNtCsfvfooZQ3Axs_4core3ptr13drop_in_placeINtNtCse1nGBsou5OW_5alloc7raw_vec6RawVecINtNtBL_5boxed3BoxDINtNtNtB4_3ops8function5FnMutuEp6OutputINtNtB4_6result6ResultuNtNtNtCscOYdFFY2T5N_3std2io5error5ErrorENtNtB4_6marker4SendNtB3j_4SyncEL_EEECs7EIZlGwJWX2_13version_check, symObjAddr: 0x8A8, symBinAddr: 0x10000B3CC, symSize: 0x24 }
  - { offset: 0x174C0, size: 0x8, addend: 0x0, symName: __RINvNtCsfvfooZQ3Axs_4core3ptr13drop_in_placeINtNtCse1nGBsou5OW_5alloc7raw_vec6RawVecNtNtNtBL_3ffi5c_str7CStringEECs7EIZlGwJWX2_13version_check, symObjAddr: 0x8CC, symBinAddr: 0x10000B3F0, symSize: 0x24 }
  - { offset: 0x174EF, size: 0x8, addend: 0x0, symName: __RINvNtCsfvfooZQ3Axs_4core3ptr13drop_in_placeINtNtCse1nGBsou5OW_5alloc7raw_vec6RawVecPaEECs7EIZlGwJWX2_13version_check, symObjAddr: 0x8F0, symBinAddr: 0x10000B414, symSize: 0x24 }
  - { offset: 0x1751E, size: 0x8, addend: 0x0, symName: __RINvNtCsfvfooZQ3Axs_4core3ptr13drop_in_placeINtNtCse1nGBsou5OW_5alloc7raw_vec6RawVechEECs7EIZlGwJWX2_13version_check, symObjAddr: 0x914, symBinAddr: 0x10000B438, symSize: 0x24 }
  - { offset: 0x1754D, size: 0x8, addend: 0x0, symName: __RINvNtCsfvfooZQ3Axs_4core3ptr13drop_in_placeINtNtNtCscOYdFFY2T5N_3std2io5error9ErrorDataINtNtCse1nGBsou5OW_5alloc5boxed3BoxNtBJ_6CustomEEECs7EIZlGwJWX2_13version_check, symObjAddr: 0x938, symBinAddr: 0x10000B45C, symSize: 0x48 }
  - { offset: 0x1757C, size: 0x8, addend: 0x0, symName: __RINvNtCsfvfooZQ3Axs_4core3ptr13drop_in_placeINtNtNtNtCse1nGBsou5OW_5alloc11collections5btree3map8BTreeMapNtNtNtCscOYdFFY2T5N_3std3ffi6os_str8OsStringINtNtB4_6option6OptionB1F_EEECs7EIZlGwJWX2_13version_check, symObjAddr: 0x980, symBinAddr: 0x10000B4A4, symSize: 0x24 }
  - { offset: 0x175AB, size: 0x8, addend: 0x0, symName: __RINvNtCsfvfooZQ3Axs_4core3ptr13drop_in_placeINtNtNtNtCse1nGBsou5OW_5alloc11collections5btree3map8IntoIterNtNtNtCscOYdFFY2T5N_3std3ffi6os_str8OsStringINtNtB4_6option6OptionB1F_EEECs7EIZlGwJWX2_13version_check, symObjAddr: 0x9A4, symBinAddr: 0x10000B4C8, symSize: 0x24 }
  - { offset: 0x175DA, size: 0x8, addend: 0x0, symName: __RINvNtCsfvfooZQ3Axs_4core3ptr13drop_in_placeINtNvMsT_NtNtNtCse1nGBsou5OW_5alloc11collections5btree4nodeINtBP_6HandleINtBP_7NodeRefNtNtBP_6marker5DyingpppENtB26_2KVE12drop_key_val7DropperINtNtB4_6option6OptionNtNtNtCscOYdFFY2T5N_3std3ffi6os_str8OsStringEEECs7EIZlGwJWX2_13version_check, symObjAddr: 0x9C8, symBinAddr: 0x10000B4EC, symSize: 0x24 }
  - { offset: 0x17609, size: 0x8, addend: 0x0, symName: __RINvNtCsfvfooZQ3Axs_4core3ptr13drop_in_placeINtNvNtNtCscOYdFFY2T5N_3std2io5Write9write_fmt7AdapterNtNtNtNtNtBP_3sys3pal4unix5stdio6StderrEECs7EIZlGwJWX2_13version_check, symObjAddr: 0x9EC, symBinAddr: 0x10000B510, symSize: 0x24 }
  - { offset: 0x17638, size: 0x8, addend: 0x0, symName: __RINvNtCsfvfooZQ3Axs_4core3ptr13drop_in_placeINtNvXsw_NtNtNtCse1nGBsou5OW_5alloc11collections5btree3mapINtBP_8IntoIterpppENtNtNtB4_3ops4drop4Drop4drop9DropGuardNtNtNtCscOYdFFY2T5N_3std3ffi6os_str8OsStringINtNtB4_6option6OptionB2x_ENtNtBV_5alloc6GlobalEECs7EIZlGwJWX2_13version_check, symObjAddr: 0xA10, symBinAddr: 0x10000B534, symSize: 0x24 }
  - { offset: 0x17667, size: 0x8, addend: 0x0, symName: __RINvNtCsfvfooZQ3Axs_4core3ptr13drop_in_placeNtNtCscOYdFFY2T5N_3std3env8VarErrorECs7EIZlGwJWX2_13version_check, symObjAddr: 0xA34, symBinAddr: 0x10000B558, symSize: 0x48 }
  - { offset: 0x17696, size: 0x8, addend: 0x0, symName: __RINvNtCsfvfooZQ3Axs_4core3ptr13drop_in_placeNtNtCscOYdFFY2T5N_3std7process6OutputECs7EIZlGwJWX2_13version_check, symObjAddr: 0xA7C, symBinAddr: 0x10000B5A0, symSize: 0x60 }
  - { offset: 0x176C5, size: 0x8, addend: 0x0, symName: __RINvNtCsfvfooZQ3Axs_4core3ptr13drop_in_placeNtNtCscOYdFFY2T5N_3std7process7CommandECs7EIZlGwJWX2_13version_check, symObjAddr: 0xADC, symBinAddr: 0x10000B600, symSize: 0x24 }
  - { offset: 0x176F4, size: 0x8, addend: 0x0, symName: __RINvNtCsfvfooZQ3Axs_4core3ptr13drop_in_placeNtNtCse1nGBsou5OW_5alloc6string13FromUtf8ErrorECs7EIZlGwJWX2_13version_check, symObjAddr: 0xB00, symBinAddr: 0x10000B624, symSize: 0x24 }
  - { offset: 0x17723, size: 0x8, addend: 0x0, symName: __RINvNtCsfvfooZQ3Axs_4core3ptr13drop_in_placeNtNtCse1nGBsou5OW_5alloc6string6StringECs7EIZlGwJWX2_13version_check, symObjAddr: 0xB24, symBinAddr: 0x10000B648, symSize: 0x24 }
  - { offset: 0x17752, size: 0x8, addend: 0x0, symName: __RINvNtCsfvfooZQ3Axs_4core3ptr13drop_in_placeNtNtNtCscOYdFFY2T5N_3std10sys_common7process10CommandEnvECs7EIZlGwJWX2_13version_check, symObjAddr: 0xB58, symBinAddr: 0x10000B66C, symSize: 0x24 }
  - { offset: 0x17781, size: 0x8, addend: 0x0, symName: __RINvNtCsfvfooZQ3Axs_4core3ptr13drop_in_placeNtNtNtCscOYdFFY2T5N_3std2io5error5ErrorECs7EIZlGwJWX2_13version_check, symObjAddr: 0xB7C, symBinAddr: 0x10000B690, symSize: 0x24 }
  - { offset: 0x177B0, size: 0x8, addend: 0x0, symName: __RINvNtCsfvfooZQ3Axs_4core3ptr13drop_in_placeNtNtNtCscOYdFFY2T5N_3std2io5error6CustomECs7EIZlGwJWX2_13version_check, symObjAddr: 0xBA0, symBinAddr: 0x10000B6B4, symSize: 0x24 }
  - { offset: 0x177DF, size: 0x8, addend: 0x0, symName: __RINvNtCsfvfooZQ3Axs_4core3ptr13drop_in_placeNtNtNtCscOYdFFY2T5N_3std3ffi6os_str8OsStringECs7EIZlGwJWX2_13version_check, symObjAddr: 0xBC4, symBinAddr: 0x10000B6D8, symSize: 0x24 }
  - { offset: 0x1780E, size: 0x8, addend: 0x0, symName: __RINvNtCsfvfooZQ3Axs_4core3ptr13drop_in_placeNtNtNtCse1nGBsou5OW_5alloc3ffi5c_str7CStringECs7EIZlGwJWX2_13version_check, symObjAddr: 0xBE8, symBinAddr: 0x10000B6FC, symSize: 0x5C }
  - { offset: 0x1783D, size: 0x8, addend: 0x0, symName: __RINvNtCsfvfooZQ3Axs_4core3ptr13drop_in_placeNtNtNtNtCscOYdFFY2T5N_3std2io5error14repr_bitpacked4ReprECs7EIZlGwJWX2_13version_check, symObjAddr: 0xC44, symBinAddr: 0x10000B758, symSize: 0x24 }
  - { offset: 0x1786C, size: 0x8, addend: 0x0, symName: __RINvNtCsfvfooZQ3Axs_4core3ptr13drop_in_placeNtNtNtNtCscOYdFFY2T5N_3std2os2fd5owned7OwnedFdECs7EIZlGwJWX2_13version_check, symObjAddr: 0xC68, symBinAddr: 0x10000B77C, symSize: 0x24 }
  - { offset: 0x1789B, size: 0x8, addend: 0x0, symName: __RINvNtCsfvfooZQ3Axs_4core3ptr13drop_in_placeNtNtNtNtCscOYdFFY2T5N_3std3sys6os_str5bytes3BufECs7EIZlGwJWX2_13version_check, symObjAddr: 0xC8C, symBinAddr: 0x10000B7A0, symSize: 0x24 }
  - { offset: 0x178CA, size: 0x8, addend: 0x0, symName: __RINvNtCsfvfooZQ3Axs_4core3ptr13drop_in_placeNtNtNtNtNtCscOYdFFY2T5N_3std3sys3pal4unix2fd8FileDescECs7EIZlGwJWX2_13version_check, symObjAddr: 0xCB0, symBinAddr: 0x10000B7C4, symSize: 0x24 }
  - { offset: 0x178F9, size: 0x8, addend: 0x0, symName: __RINvNtCsfvfooZQ3Axs_4core3ptr13drop_in_placeNtNtNtNtNtNtCscOYdFFY2T5N_3std3sys3pal4unix7process14process_common4ArgvECs7EIZlGwJWX2_13version_check, symObjAddr: 0xCD4, symBinAddr: 0x10000B7E8, symSize: 0x24 }
  - { offset: 0x17928, size: 0x8, addend: 0x0, symName: __RINvNtCsfvfooZQ3Axs_4core3ptr13drop_in_placeNtNtNtNtNtNtCscOYdFFY2T5N_3std3sys3pal4unix7process14process_common5StdioECs7EIZlGwJWX2_13version_check, symObjAddr: 0xCF8, symBinAddr: 0x10000B80C, symSize: 0x44 }
  - { offset: 0x17957, size: 0x8, addend: 0x0, symName: __RINvNtCsfvfooZQ3Axs_4core3ptr13drop_in_placeNtNtNtNtNtNtCscOYdFFY2T5N_3std3sys3pal4unix7process14process_common7CommandECs7EIZlGwJWX2_13version_check, symObjAddr: 0xD3C, symBinAddr: 0x10000B850, symSize: 0x1DC }
  - { offset: 0x17986, size: 0x8, addend: 0x0, symName: __RINvNtCsfvfooZQ3Axs_4core3ptr13drop_in_placeNtNvNtNtNtCse1nGBsou5OW_5alloc11collections5btree3mem7replace10PanicGuardECs7EIZlGwJWX2_13version_check, symObjAddr: 0xF18, symBinAddr: 0x10000BA2C, symSize: 0x24 }
  - { offset: 0x179B5, size: 0x8, addend: 0x0, symName: __RINvNtCsfvfooZQ3Axs_4core3ptr13drop_in_placeSINtNtCse1nGBsou5OW_5alloc5boxed3BoxDINtNtNtB4_3ops8function5FnMutuEp6OutputINtNtB4_6result6ResultuNtNtNtCscOYdFFY2T5N_3std2io5error5ErrorENtNtB4_6marker4SendNtB2X_4SyncEL_EECs7EIZlGwJWX2_13version_check, symObjAddr: 0xF5C, symBinAddr: 0x10000BA50, symSize: 0xB4 }
  - { offset: 0x179E4, size: 0x8, addend: 0x0, symName: __RINvNtCsfvfooZQ3Axs_4core3ptr13drop_in_placeSNtNtNtCse1nGBsou5OW_5alloc3ffi5c_str7CStringECs7EIZlGwJWX2_13version_check, symObjAddr: 0x1010, symBinAddr: 0x10000BB04, symSize: 0xB4 }
  - { offset: 0x17A13, size: 0x8, addend: 0x0, symName: __RINvNtCsfvfooZQ3Axs_4core3ptr13drop_in_placeTNtNtNtCscOYdFFY2T5N_3std3ffi6os_str8OsStringcEECs7EIZlGwJWX2_13version_check, symObjAddr: 0x1124, symBinAddr: 0x10000BBB8, symSize: 0x24 }
  - { offset: 0x17B44, size: 0x8, addend: 0x0, symName: __RNvNvMNtNtCsfvfooZQ3Axs_4core3ptr9const_ptrPp7sub_ptr18precondition_checkCs7EIZlGwJWX2_13version_check, symObjAddr: 0x1DF4, symBinAddr: 0x10000C564, symSize: 0x40 }
  - { offset: 0x18055, size: 0x8, addend: 0x0, symName: __RINvNvNtNtNtNtCsfvfooZQ3Axs_4core4iter6traits8iterator8Iterator4last4someReECs7EIZlGwJWX2_13version_check, symObjAddr: 0x1148, symBinAddr: 0x10000BBDC, symSize: 0x30 }
  - { offset: 0x18095, size: 0x8, addend: 0x0, symName: __RINvYINtNtNtNtCsfvfooZQ3Axs_4core4iter8adapters6filter6FilterINtNtB8_3map3MapINtNtNtBc_3str4iter5SplitcENCNvCs7EIZlGwJWX2_13version_check16supports_features0_0ENCB1G_s1_0ENtNtNtBa_6traits8iterator8Iterator3mapReNCB1G_s2_0EB1I_, symObjAddr: 0x11D0, symBinAddr: 0x10000BC64, symSize: 0x30 }
  - { offset: 0x1810D, size: 0x8, addend: 0x0, symName: __RNCINvNvNtNtNtNtCsfvfooZQ3Axs_4core4iter6traits8iterator8Iterator3any5checkReNCNvCs7EIZlGwJWX2_13version_check16supports_features3_0E0B1h_, symObjAddr: 0x1320, symBinAddr: 0x10000BDB4, symSize: 0x54 }
  - { offset: 0x18175, size: 0x8, addend: 0x0, symName: __RNCINvNvNtNtNtNtCsfvfooZQ3Axs_4core4iter6traits8iterator8Iterator4find5checkReQNCNvCs7EIZlGwJWX2_13version_check35version_and_date_from_rustc_version0E0B1j_, symObjAddr: 0x1374, symBinAddr: 0x10000BE08, symSize: 0x84 }
  - { offset: 0x181E5, size: 0x8, addend: 0x0, symName: __RINvXs1_NtNtNtCsfvfooZQ3Axs_4core4iter8adapters6filterINtB6_6FilterINtNtB8_3map3MapINtNtNtBc_3str4iter5SplitcENCNvCs7EIZlGwJWX2_13version_check16supports_features0_0ENCB1M_s1_0ENtNtNtBa_6traits8iterator8Iterator4foldINtNtBc_6option6OptionReENCINvB16_8map_foldB3O_B3O_B3s_NCB1M_s2_0INvNvB2P_4last4someB3O_EE0EB1O_, symObjAddr: 0x1178, symBinAddr: 0x10000BC0C, symSize: 0x58 }
  - { offset: 0x18252, size: 0x8, addend: 0x0, symName: __RNvXs1_NtNtNtCsfvfooZQ3Axs_4core4iter8adapters6filterINtB5_6FilterINtNtNtBb_3str4iter5SplitReENCNvCs7EIZlGwJWX2_13version_check35version_and_date_from_rustc_version0ENtNtNtB9_6traits8iterator8Iterator4nextB1y_, symObjAddr: 0x2464, symBinAddr: 0x10000CB74, symSize: 0x2C }
  - { offset: 0x182C9, size: 0x8, addend: 0x0, symName: __RNCINvNtNtNtCsfvfooZQ3Axs_4core4iter8adapters6filter11filter_foldReINtNtBa_6option6OptionB11_ENCNvCs7EIZlGwJWX2_13version_check16supports_features1_0NCINvNtB6_3map8map_foldB11_B11_B13_NCB1w_s2_0INvNvNtNtNtB8_6traits8iterator8Iterator4last4someB11_EE0E0B1y_, symObjAddr: 0x1200, symBinAddr: 0x10000BC94, symSize: 0x120 }
  - { offset: 0x186E1, size: 0x8, addend: 0x0, symName: __RNvNvXs5_NtNtCsfvfooZQ3Axs_4core3str6traitsINtNtNtBb_3ops5range5RangejEINtNtNtBb_5slice5index10SliceIndexeE13get_unchecked18precondition_checkCs7EIZlGwJWX2_13version_check, symObjAddr: 0x21A8, symBinAddr: 0x10000C918, symSize: 0x60 }
  - { offset: 0x1872C, size: 0x8, addend: 0x0, symName: __RNvXs2_NtNtCsfvfooZQ3Axs_4core3str6traitseINtNtNtB9_3ops5index5IndexINtNtBJ_5range9RangeFromjEE5indexCs7EIZlGwJWX2_13version_check, symObjAddr: 0x26C0, symBinAddr: 0x10000CC50, symSize: 0x44 }
  - { offset: 0x18775, size: 0x8, addend: 0x0, symName: __RNvXs_NtNtCsfvfooZQ3Axs_4core3str6traitseNtNtB8_3cmp9PartialEq2eqCs7EIZlGwJWX2_13version_check, symObjAddr: 0x2A70, symBinAddr: 0x10000CE40, symSize: 0x64 }
  - { offset: 0x1893A, size: 0x8, addend: 0x0, symName: __RNvNvNtNtCsfvfooZQ3Axs_4core5slice3raw14from_raw_parts18precondition_checkCs7EIZlGwJWX2_13version_check, symObjAddr: 0x1ED8, symBinAddr: 0x10000C648, symSize: 0x168 }
  - { offset: 0x18A80, size: 0x8, addend: 0x0, symName: __RNvNvNtNtCsfvfooZQ3Axs_4core5slice3raw18from_raw_parts_mut18precondition_checkCs7EIZlGwJWX2_13version_check, symObjAddr: 0x2040, symBinAddr: 0x10000C7B0, symSize: 0x168 }
  - { offset: 0x18C89, size: 0x8, addend: 0x0, symName: __RNvNtNtCsfvfooZQ3Axs_4core5slice6memchr6memchrCs7EIZlGwJWX2_13version_check, symObjAddr: 0x1B94, symBinAddr: 0x10000C304, symSize: 0x114 }
  - { offset: 0x18D91, size: 0x8, addend: 0x0, symName: __RNvNtNtCsfvfooZQ3Axs_4core4char7methods15encode_utf8_rawCs7EIZlGwJWX2_13version_check, symObjAddr: 0x196C, symBinAddr: 0x10000C0DC, symSize: 0x228 }
  - { offset: 0x1911C, size: 0x8, addend: 0x0, symName: __RNvNtNtNtCsfvfooZQ3Axs_4core7unicode12unicode_data11white_space6lookupCs7EIZlGwJWX2_13version_check, symObjAddr: 0x1CA8, symBinAddr: 0x10000C418, symSize: 0x14C }
  - { offset: 0x19161, size: 0x8, addend: 0x0, symName: __RNvNvMNtNtCsfvfooZQ3Axs_4core5alloc6layoutNtB4_6Layout25from_size_align_unchecked18precondition_checkCs7EIZlGwJWX2_13version_check, symObjAddr: 0x1E34, symBinAddr: 0x10000C5A4, symSize: 0x50 }
  - { offset: 0x191A5, size: 0x8, addend: 0x0, symName: __RNvNvNtCsfvfooZQ3Axs_4core4hint16assert_unchecked18precondition_checkCs7EIZlGwJWX2_13version_check, symObjAddr: 0x1E84, symBinAddr: 0x10000C5F4, symSize: 0x38 }
  - { offset: 0x191D3, size: 0x8, addend: 0x0, symName: __RNvNvNtCsfvfooZQ3Axs_4core4hint21unreachable_unchecked18precondition_checkCs7EIZlGwJWX2_13version_check, symObjAddr: 0x1EBC, symBinAddr: 0x10000C62C, symSize: 0x1C }
  - { offset: 0x19347, size: 0x8, addend: 0x0, symName: __RNvXNtNtCsfvfooZQ3Axs_4core3ops12control_flowINtB2_11ControlFlowReENtNtB4_9try_trait3Try11from_outputCs7EIZlGwJWX2_13version_check, symObjAddr: 0x2208, symBinAddr: 0x10000C978, symSize: 0x18 }
  - { offset: 0x19385, size: 0x8, addend: 0x0, symName: __RNvXNtNtCsfvfooZQ3Axs_4core3ops12control_flowINtB2_11ControlFlowReENtNtB4_9try_trait3Try6branchCs7EIZlGwJWX2_13version_check, symObjAddr: 0x2220, symBinAddr: 0x10000C990, symSize: 0x64 }
  - { offset: 0x193FE, size: 0x8, addend: 0x0, symName: __RNvXNtNtCsfvfooZQ3Axs_4core3ops12control_flowINtB2_11ControlFlowuENtNtB4_9try_trait3Try11from_outputCs7EIZlGwJWX2_13version_check, symObjAddr: 0x2284, symBinAddr: 0x10000C9F4, symSize: 0x18 }
  - { offset: 0x1943C, size: 0x8, addend: 0x0, symName: __RNvXNtNtCsfvfooZQ3Axs_4core3ops12control_flowINtB2_11ControlFlowuENtNtB4_9try_trait3Try6branchCs7EIZlGwJWX2_13version_check, symObjAddr: 0x229C, symBinAddr: 0x10000CA0C, symSize: 0x38 }
  - { offset: 0x194BA, size: 0x8, addend: 0x0, symName: __RNvXs7_NtNtCsfvfooZQ3Axs_4core3ops12control_flowINtB5_11ControlFlowuENtNtB9_3cmp9PartialEq2eqCs7EIZlGwJWX2_13version_check, symObjAddr: 0x27F4, symBinAddr: 0x10000CC94, symSize: 0xEC }
  - { offset: 0x195D9, size: 0x8, addend: 0x0, symName: __RNvXs_NtNtCsfvfooZQ3Axs_4core3ops12control_flowINtB4_11ControlFlowReEINtNtB6_9try_trait12FromResidualIBK_B12_NtNtB8_7convert10InfallibleEE13from_residualCs7EIZlGwJWX2_13version_check, symObjAddr: 0x2A28, symBinAddr: 0x10000CDF8, symSize: 0x2C }
  - { offset: 0x19617, size: 0x8, addend: 0x0, symName: __RNvXs_NtNtCsfvfooZQ3Axs_4core3ops12control_flowINtB4_11ControlFlowuEINtNtB6_9try_trait12FromResidualIBK_uNtNtB8_7convert10InfallibleEE13from_residualCs7EIZlGwJWX2_13version_check, symObjAddr: 0x2A54, symBinAddr: 0x10000CE24, symSize: 0x1C }
  - { offset: 0x19945, size: 0x8, addend: 0x0, symName: __RNvYINvNvNtNtNtNtCsfvfooZQ3Axs_4core4iter6traits8iterator8Iterator4last4someReEINtNtNtBf_3ops8function5FnMutTINtNtBf_6option6OptionB1c_EB1c_EE8call_mutCs7EIZlGwJWX2_13version_check, symObjAddr: 0x30B4, symBinAddr: 0x10000D274, symSize: 0x40 }
  - { offset: 0x19E9B, size: 0x8, addend: 0x0, symName: __RINvNtCscOYdFFY2T5N_3std3env3varReECs7EIZlGwJWX2_13version_check, symObjAddr: 0xF4, symBinAddr: 0x10000ACF0, symSize: 0x68 }
  - { offset: 0x19ED0, size: 0x8, addend: 0x0, symName: __RINvNtCscOYdFFY2T5N_3std3env6var_osReECs7EIZlGwJWX2_13version_check, symObjAddr: 0x15C, symBinAddr: 0x10000AD58, symSize: 0x68 }
  - { offset: 0x19F7F, size: 0x8, addend: 0x0, symName: __RNvXsX_NtNtCscOYdFFY2T5N_3std3ffi6os_strNtNtCse1nGBsou5OW_5alloc6string6StringINtNtCsfvfooZQ3Axs_4core7convert5AsRefNtB5_5OsStrE6as_refCs7EIZlGwJWX2_13version_check, symObjAddr: 0x29B0, symBinAddr: 0x10000CD80, symSize: 0x78 }
  - { offset: 0x1A82B, size: 0x8, addend: 0x0, symName: __RNvXsn_NtCse1nGBsou5OW_5alloc3vecINtB5_3VecINtNtB7_5boxed3BoxDINtNtNtCsfvfooZQ3Axs_4core3ops8function5FnMutuEp6OutputINtNtB15_6result6ResultuNtNtNtCscOYdFFY2T5N_3std2io5error5ErrorENtNtB15_6marker4SendNtB2V_4SyncEL_EENtNtB13_4drop4Drop4dropCs7EIZlGwJWX2_13version_check, symObjAddr: 0x2CE4, symBinAddr: 0x10000CEA4, symSize: 0x38 }
  - { offset: 0x1A8DB, size: 0x8, addend: 0x0, symName: __RNvXsn_NtCse1nGBsou5OW_5alloc3vecINtB5_3VecNtNtNtB7_3ffi5c_str7CStringENtNtNtCsfvfooZQ3Axs_4core3ops4drop4Drop4dropCs7EIZlGwJWX2_13version_check, symObjAddr: 0x2D1C, symBinAddr: 0x10000CEDC, symSize: 0x38 }
  - { offset: 0x1A98B, size: 0x8, addend: 0x0, symName: __RNvXsn_NtCse1nGBsou5OW_5alloc3vecINtB5_3VecPaENtNtNtCsfvfooZQ3Axs_4core3ops4drop4Drop4dropCs7EIZlGwJWX2_13version_check, symObjAddr: 0x2D54, symBinAddr: 0x10000CF14, symSize: 0x24 }
  - { offset: 0x1AB99, size: 0x8, addend: 0x0, symName: __RNvXs1K_NtCse1nGBsou5OW_5alloc6stringeNtB6_12SpecToString14spec_to_stringCs7EIZlGwJWX2_13version_check, symObjAddr: 0x2414, symBinAddr: 0x10000CB24, symSize: 0x50 }
  - { offset: 0x1ACE8, size: 0x8, addend: 0x0, symName: __RNvXss_NtCse1nGBsou5OW_5alloc6stringNtB5_6StringNtNtNtCsfvfooZQ3Axs_4core3ops5deref5Deref5derefCs7EIZlGwJWX2_13version_check, symObjAddr: 0x2DF4, symBinAddr: 0x10000CFB4, symSize: 0x24 }
  - { offset: 0x1AD1C, size: 0x8, addend: 0x0, symName: __RNvXsq_NtCse1nGBsou5OW_5alloc6stringNtB5_6StringINtNtNtCsfvfooZQ3Axs_4core3ops5index5IndexNtNtBP_5range9RangeFullE5indexCs7EIZlGwJWX2_13version_check, symObjAddr: 0x2D78, symBinAddr: 0x10000CF38, symSize: 0x7C }
  - { offset: 0x1AE6C, size: 0x8, addend: 0x0, symName: __RNvXsw_NtCse1nGBsou5OW_5alloc6stringeNtB5_8ToString9to_stringCs7EIZlGwJWX2_13version_check, symObjAddr: 0x2FEC, symBinAddr: 0x10000D1AC, symSize: 0x28 }
  - { offset: 0x1AF86, size: 0x8, addend: 0x0, symName: __RNvXNtNtNtCse1nGBsou5OW_5alloc11collections5btree3mapINtB2_8BTreeMapNtNtNtCscOYdFFY2T5N_3std3ffi6os_str8OsStringINtNtCsfvfooZQ3Axs_4core6option6OptionB14_EENtNtNtB1R_3ops4drop4Drop4dropCs7EIZlGwJWX2_13version_check, symObjAddr: 0x22D4, symBinAddr: 0x10000CA44, symSize: 0x4C }
  - { offset: 0x1B013, size: 0x8, addend: 0x0, symName: __RNvXNvXsw_NtNtNtCse1nGBsou5OW_5alloc11collections5btree3mapINtB8_8IntoIterpppENtNtNtCsfvfooZQ3Axs_4core3ops4drop4Drop4dropINtB2_9DropGuardNtNtNtCscOYdFFY2T5N_3std3ffi6os_str8OsStringINtNtB1k_6option6OptionB2c_ENtNtBe_5alloc6GlobalEB1e_4dropCs7EIZlGwJWX2_13version_check, symObjAddr: 0x2380, symBinAddr: 0x10000CA90, symSize: 0x68 }
  - { offset: 0x1B0A8, size: 0x8, addend: 0x0, symName: __RNvXsw_NtNtNtCse1nGBsou5OW_5alloc11collections5btree3mapINtB5_8IntoIterNtNtNtCscOYdFFY2T5N_3std3ffi6os_str8OsStringINtNtCsfvfooZQ3Axs_4core6option6OptionB17_EENtNtNtB1U_3ops4drop4Drop4dropCs7EIZlGwJWX2_13version_check, symObjAddr: 0x3014, symBinAddr: 0x10000D1D4, symSize: 0xA0 }
  - { offset: 0x1B11F, size: 0x8, addend: 0x0, symName: __RNvXsv_NtNtNtCse1nGBsou5OW_5alloc11collections5btree3mapINtB5_8BTreeMapNtNtNtCscOYdFFY2T5N_3std3ffi6os_str8OsStringINtNtCsfvfooZQ3Axs_4core6option6OptionB17_EENtNtNtNtB1U_4iter6traits7collect12IntoIterator9into_iterCs7EIZlGwJWX2_13version_check, symObjAddr: 0x2E58, symBinAddr: 0x10000D018, symSize: 0x194 }
  - { offset: 0x1B6EE, size: 0x8, addend: 0x0, symName: __RNvXs0_NtCse1nGBsou5OW_5alloc3strNtNtB7_6string6StringINtNtCsfvfooZQ3Axs_4core6borrow6BorroweE6borrowCs7EIZlGwJWX2_13version_check, symObjAddr: 0x23E8, symBinAddr: 0x10000CAF8, symSize: 0x2C }
  - { offset: 0x1B825, size: 0x8, addend: 0x0, symName: __RNvXs2_NtCse1nGBsou5OW_5alloc6borrowINtB5_3CoweENtNtNtCsfvfooZQ3Axs_4core3ops5deref5Deref5derefCs7EIZlGwJWX2_13version_check, symObjAddr: 0x2640, symBinAddr: 0x10000CBD0, symSize: 0x80 }
  - { offset: 0x1BA4F, size: 0x8, addend: 0x0, symName: __RNvMNtCse1nGBsou5OW_5alloc6stringNtB2_6String6as_strCs7EIZlGwJWX2_13version_check, symObjAddr: 0x13F8, symBinAddr: 0x10000BE8C, symSize: 0x70 }
  - { offset: 0x1BBED, size: 0x8, addend: 0x0, symName: __RNvMNtCse1nGBsou5OW_5alloc6stringNtB2_6String9from_utf8Cs7EIZlGwJWX2_13version_check, symObjAddr: 0x1468, symBinAddr: 0x10000BEFC, symSize: 0x150 }
  - { offset: 0x1BD95, size: 0x8, addend: 0x0, symName: __RNvMsx_NtNtNtCse1nGBsou5OW_5alloc11collections5btree3mapINtB5_8IntoIterNtNtNtCscOYdFFY2T5N_3std3ffi6os_str8OsStringINtNtCsfvfooZQ3Axs_4core6option6OptionB17_EE10dying_nextCs7EIZlGwJWX2_13version_check, symObjAddr: 0x18DC, symBinAddr: 0x10000C04C, symSize: 0x90 }
  - { offset: 0x1C81E, size: 0x8, addend: 0x0, symName: __RNvYNtNtNtNtNtCscOYdFFY2T5N_3std3sys3pal4unix5stdio6StderrNtNtBc_2io5Write9write_allCs7EIZlGwJWX2_13version_check, symObjAddr: 0x2960, symBinAddr: 0x10000F014, symSize: 0x180 }
  - { offset: 0x1C8BF, size: 0x8, addend: 0x0, symName: __RNvYNtNtNtNtNtCscOYdFFY2T5N_3std3sys3pal4unix5stdio6StderrNtNtBc_2io5Write9write_fmtCs7EIZlGwJWX2_13version_check, symObjAddr: 0x2AE0, symBinAddr: 0x10000F194, symSize: 0x128 }
  - { offset: 0x1CEFB, size: 0x8, addend: 0x0, symName: __RNvNtNtNtNtCscOYdFFY2T5N_3std3sys3pal4unix2fs23debug_assert_fd_is_openCs7EIZlGwJWX2_13version_check, symObjAddr: 0x1810, symBinAddr: 0x10000E09C, symSize: 0xC8 }
  - { offset: 0x1D096, size: 0x8, addend: 0x0, symName: __RNvXs3_NtNtCscOYdFFY2T5N_3std3ffi6os_strNtB5_8OsStringINtNtNtCsfvfooZQ3Axs_4core3ops5index5IndexNtNtBV_5range9RangeFullE5indexCs7EIZlGwJWX2_13version_check, symObjAddr: 0x22CC, symBinAddr: 0x10000EA30, symSize: 0x78 }
  - { offset: 0x1D1C3, size: 0x8, addend: 0x0, symName: __RNvXs5_NtNtCscOYdFFY2T5N_3std3ffi6os_strNtB5_8OsStringNtNtNtCsfvfooZQ3Axs_4core3ops5deref5Deref5derefCs7EIZlGwJWX2_13version_check, symObjAddr: 0x235C, symBinAddr: 0x10000EAC0, symSize: 0x2C }
  - { offset: 0x1D1F7, size: 0x8, addend: 0x0, symName: __RNvXsW_NtNtCscOYdFFY2T5N_3std3ffi6os_streINtNtCsfvfooZQ3Axs_4core7convert5AsRefNtB5_5OsStrE6as_refCs7EIZlGwJWX2_13version_check, symObjAddr: 0x27E8, symBinAddr: 0x10000EF4C, symSize: 0x18 }
  - { offset: 0x1D2AB, size: 0x8, addend: 0x0, symName: __RNvXs5_NtNtNtCscOYdFFY2T5N_3std2os2fd5ownedNtB5_7OwnedFdNtNtNtCsfvfooZQ3Axs_4core3ops4drop4Drop4dropCs7EIZlGwJWX2_13version_check, symObjAddr: 0x2410, symBinAddr: 0x10000EB74, symSize: 0x40 }
  - { offset: 0x1D619, size: 0x8, addend: 0x0, symName: __RNvNvMs1_NtNtCsfvfooZQ3Axs_4core3ptr8non_nullINtB7_7NonNullpE13new_unchecked18precondition_checkCs7EIZlGwJWX2_13version_check, symObjAddr: 0x18D8, symBinAddr: 0x10000E164, symSize: 0x38 }
  - { offset: 0x1E19F, size: 0x8, addend: 0x0, symName: __RNvNvMs3_NtCsfvfooZQ3Axs_4core3numi13unchecked_neg18precondition_checkCs7EIZlGwJWX2_13version_check, symObjAddr: 0x1910, symBinAddr: 0x10000E19C, symSize: 0x4C }
  - { offset: 0x1E258, size: 0x8, addend: 0x0, symName: __RNvNvMs9_NtCsfvfooZQ3Axs_4core3numj13unchecked_add18precondition_checkCs7EIZlGwJWX2_13version_check, symObjAddr: 0x195C, symBinAddr: 0x10000E1E8, symSize: 0x44 }
  - { offset: 0x1E2BA, size: 0x8, addend: 0x0, symName: __RNvNvMs9_NtCsfvfooZQ3Axs_4core3numj13unchecked_sub18precondition_checkCs7EIZlGwJWX2_13version_check, symObjAddr: 0x19A0, symBinAddr: 0x10000E22C, symSize: 0x40 }
  - { offset: 0x1E429, size: 0x8, addend: 0x0, symName: __RNvNvMsc_NtNtCsfvfooZQ3Axs_4core3num7nonzeroINtB7_7NonZeropE13new_unchecked18precondition_checkCs7EIZlGwJWX2_13version_check, symObjAddr: 0x19E0, symBinAddr: 0x10000E26C, symSize: 0x1C }
  - { offset: 0x1F43C, size: 0x8, addend: 0x0, symName: __RNvNvNtCsfvfooZQ3Axs_4core10intrinsics19copy_nonoverlapping18precondition_checkCs7EIZlGwJWX2_13version_check, symObjAddr: 0x19FC, symBinAddr: 0x10000E288, symSize: 0x2E4 }
  - { offset: 0x1F6E2, size: 0x8, addend: 0x0, symName: __RINvXs0_NtNtNtCsfvfooZQ3Axs_4core4iter8adapters3mapINtB6_3MapINtNtB8_6filter6FilterIBO_INtNtNtBc_3str4iter5SplitcENCNvCs7EIZlGwJWX2_13version_check16supports_features0_0ENCB1Q_s1_0ENCB1Q_s2_0ENtNtNtBa_6traits8iterator8Iterator4foldINtNtBc_6option6OptionReEINvNvB34_4last4someB43_EEB1S_, symObjAddr: 0xC48, symBinAddr: 0x10000DAD8, symSize: 0x58 }
  - { offset: 0x1F758, size: 0x8, addend: 0x0, symName: __RINvXs0_NtNtNtCsfvfooZQ3Axs_4core4iter8adapters3mapINtB6_3MapINtNtNtBc_3str4iter5SplitcENCNvCs7EIZlGwJWX2_13version_check16supports_features0_0ENtNtNtBa_6traits8iterator8Iterator4foldINtNtBc_6option6OptionReENCINvNtB8_6filter11filter_foldB3h_B2V_NCB1q_s1_0NCINvB6_8map_foldB3h_B3h_B2V_NCB1q_s2_0INvNvB2i_4last4someB3h_EE0E0EB1s_, symObjAddr: 0xCA0, symBinAddr: 0x10000DB30, symSize: 0x58 }
  - { offset: 0x1F7CE, size: 0x8, addend: 0x0, symName: __RNvXs0_NtNtNtCsfvfooZQ3Axs_4core4iter8adapters3mapINtB5_3MapINtNtNtBb_3str4iter14SplitInclusivecENtB11_8LinesMapENtNtNtB9_6traits8iterator8Iterator4nextCs7EIZlGwJWX2_13version_check, symObjAddr: 0x1EC8, symBinAddr: 0x10000E754, symSize: 0x88 }
  - { offset: 0x1F881, size: 0x8, addend: 0x0, symName: __RNCINvNtNtNtCsfvfooZQ3Axs_4core4iter8adapters3map8map_foldReBU_INtNtBa_6option6OptionBU_ENCNvCs7EIZlGwJWX2_13version_check16supports_features0_0NCINvNtB6_6filter11filter_foldBU_BZ_NCB1r_s1_0NCIB2_BU_BU_BZ_NCB1r_s2_0INvNvNtNtNtB8_6traits8iterator8Iterator4last4someBU_EE0E0E0B1t_, symObjAddr: 0xD28, symBinAddr: 0x10000DBB8, symSize: 0xE0 }
  - { offset: 0x1F908, size: 0x8, addend: 0x0, symName: __RNCINvNtNtNtCsfvfooZQ3Axs_4core4iter8adapters3map8map_foldReBU_INtNtBa_6option6OptionBU_ENCNvCs7EIZlGwJWX2_13version_check16supports_features2_0INvNvNtNtNtB8_6traits8iterator8Iterator4last4someBU_EE0B1t_, symObjAddr: 0xE08, symBinAddr: 0x10000DC98, symSize: 0xE0 }
  - { offset: 0x1F9B3, size: 0x8, addend: 0x0, symName: __RNvXs1_NtNtNtCsfvfooZQ3Axs_4core4iter8adapters3mapINtB5_3MapINtNtNtBb_3str4iter14SplitInclusivecENtB11_8LinesMapENtNtNtB9_6traits12double_ended19DoubleEndedIterator9next_backCs7EIZlGwJWX2_13version_check, symObjAddr: 0x2088, symBinAddr: 0x10000E7EC, symSize: 0x88 }
  - { offset: 0x1FB2E, size: 0x8, addend: 0x0, symName: __RINvYINtNtNtNtCsfvfooZQ3Axs_4core4iter8adapters3map3MapINtNtNtBc_3str4iter5SplitcENCNvCs7EIZlGwJWX2_13version_check16supports_features0_0ENtNtNtBa_6traits8iterator8Iterator6filterNCB1k_s1_0EB1m_, symObjAddr: 0xCF8, symBinAddr: 0x10000DB88, symSize: 0x30 }
  - { offset: 0x1FB93, size: 0x8, addend: 0x0, symName: __RNvYINtNtNtNtCsfvfooZQ3Axs_4core4iter8adapters3map3MapINtNtB7_6filter6FilterIB3_INtNtNtBb_3str4iter5SplitcENCNvCs7EIZlGwJWX2_13version_check16supports_features0_0ENCB1J_s1_0ENCB1J_s2_0ENtNtNtB9_6traits8iterator8Iterator4lastB1L_, symObjAddr: 0x28C8, symBinAddr: 0x10000EFEC, symSize: 0x28 }
  - { offset: 0x1FBD6, size: 0x8, addend: 0x0, symName: __RNvXsF_NtNtCsfvfooZQ3Axs_4core4iter5rangejNtB5_4Step17forward_uncheckedCs7EIZlGwJWX2_13version_check, symObjAddr: 0x2758, symBinAddr: 0x10000EEBC, symSize: 0x48 }
  - { offset: 0x1FC35, size: 0x8, addend: 0x0, symName: __RNvXsF_NtNtCsfvfooZQ3Axs_4core4iter5rangejNtB5_4Step18backward_uncheckedCs7EIZlGwJWX2_13version_check, symObjAddr: 0x27A0, symBinAddr: 0x10000EF04, symSize: 0x48 }
  - { offset: 0x1FD95, size: 0x8, addend: 0x0, symName: __RNvXs4_NtNtCsfvfooZQ3Axs_4core3str6traitsNtNtNtB9_3ops5range9RangeFullINtNtNtB9_5slice5index10SliceIndexeE5indexCs7EIZlGwJWX2_13version_check, symObjAddr: 0x2344, symBinAddr: 0x10000EAA8, symSize: 0x18 }
  - { offset: 0x1FE8A, size: 0x8, addend: 0x0, symName: __RNvXs8_NtNtCsfvfooZQ3Axs_4core3str6traitsINtNtNtB9_3ops5range7RangeTojEINtNtNtB9_5slice5index10SliceIndexeE3getCs7EIZlGwJWX2_13version_check, symObjAddr: 0x2450, symBinAddr: 0x10000EBB4, symSize: 0x138 }
  - { offset: 0x1FFE3, size: 0x8, addend: 0x0, symName: __RNvXs9_NtNtCsfvfooZQ3Axs_4core3str6traitsINtNtNtB9_3ops5range9RangeFromjEINtNtNtB9_5slice5index10SliceIndexeE3getCs7EIZlGwJWX2_13version_check, symObjAddr: 0x2588, symBinAddr: 0x10000ECEC, symSize: 0x148 }
  - { offset: 0x20152, size: 0x8, addend: 0x0, symName: __RNvXs9_NtNtCsfvfooZQ3Axs_4core3str6traitsINtNtNtB9_3ops5range9RangeFromjEINtNtNtB9_5slice5index10SliceIndexeE5indexCs7EIZlGwJWX2_13version_check, symObjAddr: 0x26D0, symBinAddr: 0x10000EE34, symSize: 0x88 }
  - { offset: 0x20309, size: 0x8, addend: 0x0, symName: __RNvNvNtCsfvfooZQ3Axs_4core9ub_checks23maybe_is_nonoverlapping7runtimeCs7EIZlGwJWX2_13version_check, symObjAddr: 0x1CE0, symBinAddr: 0x10000E56C, symSize: 0xD8 }
  - { offset: 0x204C6, size: 0x8, addend: 0x0, symName: __RNvNvXs0_NtNtCsfvfooZQ3Axs_4core5slice5indexjINtB7_10SliceIndexSpE13get_unchecked18precondition_checkCs7EIZlGwJWX2_13version_check, symObjAddr: 0x1DB8, symBinAddr: 0x10000E644, symSize: 0x40 }
  - { offset: 0x20502, size: 0x8, addend: 0x0, symName: __RNvNvXs0_NtNtCsfvfooZQ3Axs_4core5slice5indexjINtB7_10SliceIndexSpE17get_unchecked_mut18precondition_checkCs7EIZlGwJWX2_13version_check, symObjAddr: 0x1DF8, symBinAddr: 0x10000E684, symSize: 0x40 }
  - { offset: 0x20544, size: 0x8, addend: 0x0, symName: __RNvNvXs2_NtNtCsfvfooZQ3Axs_4core5slice5indexINtNtNtBb_3ops5range5RangejEINtB7_10SliceIndexSpE13get_unchecked18precondition_checkCs7EIZlGwJWX2_13version_check, symObjAddr: 0x1E38, symBinAddr: 0x10000E6C4, symSize: 0x60 }
  - { offset: 0x20606, size: 0x8, addend: 0x0, symName: __RNvXs5_NtNtCsfvfooZQ3Axs_4core5slice5indexINtNtNtB9_3ops5range9RangeFromjEINtB5_10SliceIndexShE5indexCs7EIZlGwJWX2_13version_check, symObjAddr: 0x2388, symBinAddr: 0x10000EAEC, symSize: 0x88 }
  - { offset: 0x20861, size: 0x8, addend: 0x0, symName: __RNvXs2U_NtNtCsfvfooZQ3Axs_4core5slice4iterINtB6_4IterhENtNtNtNtBa_4iter6traits8iterator8Iterator4nextCs7EIZlGwJWX2_13version_check, symObjAddr: 0x2110, symBinAddr: 0x10000E874, symSize: 0xBC }
  - { offset: 0x209B5, size: 0x8, addend: 0x0, symName: __RNvXs2V_NtNtCsfvfooZQ3Axs_4core5slice4iterINtB6_4IterhENtNtNtNtBa_4iter6traits12double_ended19DoubleEndedIterator9next_backCs7EIZlGwJWX2_13version_check, symObjAddr: 0x21CC, symBinAddr: 0x10000E930, symSize: 0x100 }
  - { offset: 0x20B54, size: 0x8, addend: 0x0, symName: __RNvXNtCsfvfooZQ3Axs_4core7convertReINtB2_5AsRefNtNtNtCscOYdFFY2T5N_3std3ffi6os_str5OsStrE6as_refCs7EIZlGwJWX2_13version_check, symObjAddr: 0x1E98, symBinAddr: 0x10000E724, symSize: 0x30 }
  - { offset: 0x20E0A, size: 0x8, addend: 0x0, symName: __RNCNvMNtCs7EIZlGwJWX2_13version_check7channelNtB4_7Channel4read0B6_, symObjAddr: 0x2C54, symBinAddr: 0x10000F308, symSize: 0x44 }
  - { offset: 0x20E3D, size: 0x8, addend: 0x0, symName: __RNCNvMNtCs7EIZlGwJWX2_13version_check7channelNtB4_7Channel4reads_0B6_, symObjAddr: 0x2C98, symBinAddr: 0x10000F34C, symSize: 0x84 }
  - { offset: 0x2103F, size: 0x8, addend: 0x0, symName: __RINvMNtCsfvfooZQ3Axs_4core6optionINtB3_6OptionNtNtCs7EIZlGwJWX2_13version_check7channel7ChannelE3mapbNCNvBM_20is_feature_flaggable0EBM_, symObjAddr: 0x114, symBinAddr: 0x10000D3B4, symSize: 0x54 }
  - { offset: 0x21233, size: 0x8, addend: 0x0, symName: __RNvXs1_NtCse1nGBsou5OW_5alloc5allocNtB5_6GlobalNtNtCsfvfooZQ3Axs_4core5clone5Clone5cloneCs7EIZlGwJWX2_13version_check, symObjAddr: 0x2078, symBinAddr: 0x10000E7DC, symSize: 0x10 }
  - { offset: 0x21284, size: 0x8, addend: 0x0, symName: __RNvXs_NtCse1nGBsou5OW_5alloc5allocNtB4_6GlobalNtNtCsfvfooZQ3Axs_4core5alloc9Allocator10deallocateCs7EIZlGwJWX2_13version_check, symObjAddr: 0x2800, symBinAddr: 0x10000EF64, symSize: 0x88 }
  - { offset: 0x2170C, size: 0x8, addend: 0x0, symName: __RINvMNtCsfvfooZQ3Axs_4core6optionINtB3_6OptionNtNtCscOYdFFY2T5N_3std7process6OutputE8and_thenNtNtCse1nGBsou5OW_5alloc6string6StringNCNvCs7EIZlGwJWX2_13version_check20get_version_and_dates_0EB29_, symObjAddr: 0x27C, symBinAddr: 0x10000D408, symSize: 0x88 }
  - { offset: 0x21796, size: 0x8, addend: 0x0, symName: __RINvMNtCsfvfooZQ3Axs_4core6optionINtB3_6OptionNtNtCse1nGBsou5OW_5alloc6string6StringE3mapTBv_Bv_ENCNvCs7EIZlGwJWX2_13version_check20get_version_and_dates0_0EB1B_, symObjAddr: 0x304, symBinAddr: 0x10000D490, symSize: 0x94 }
  - { offset: 0x21802, size: 0x8, addend: 0x0, symName: __RINvMNtCsfvfooZQ3Axs_4core6optionINtB3_6OptionNtNtCse1nGBsou5OW_5alloc6string6StringE8and_thenNtNtCs7EIZlGwJWX2_13version_check7channel7ChannelNCNvMB1w_B1u_4reads_0EB1y_, symObjAddr: 0x414, symBinAddr: 0x10000D524, symSize: 0x78 }
  - { offset: 0x21893, size: 0x8, addend: 0x0, symName: __RINvMNtCsfvfooZQ3Axs_4core6optionINtB3_6OptionNtNtNtCscOYdFFY2T5N_3std3ffi6os_str8OsStringE3mapTBI_cENCNCNvCs7EIZlGwJWX2_13version_check16supports_features_00EB1H_, symObjAddr: 0x508, symBinAddr: 0x10000D59C, symSize: 0x90 }
  - { offset: 0x218FF, size: 0x8, addend: 0x0, symName: __RINvMNtCsfvfooZQ3Axs_4core6optionINtB3_6OptionNtNtNtCscOYdFFY2T5N_3std3ffi6os_str8OsStringE3mapTBI_cENCNvCs7EIZlGwJWX2_13version_check16supports_feature0EB1F_, symObjAddr: 0x598, symBinAddr: 0x10000D62C, symSize: 0x90 }
  - { offset: 0x2196B, size: 0x8, addend: 0x0, symName: __RINvMNtCsfvfooZQ3Axs_4core6optionINtB3_6OptionReE3mapBI_NCNvCs7EIZlGwJWX2_13version_check35version_and_date_from_rustc_versions_0EBW_, symObjAddr: 0x628, symBinAddr: 0x10000D6BC, symSize: 0x64 }
  - { offset: 0x219D6, size: 0x8, addend: 0x0, symName: __RINvMNtCsfvfooZQ3Axs_4core6optionINtB3_6OptionReE3mapNtNtCse1nGBsou5OW_5alloc6string6StringNCNCNvCs7EIZlGwJWX2_13version_check43version_and_date_from_rustc_verbose_version00EB1x_, symObjAddr: 0x68C, symBinAddr: 0x10000D720, symSize: 0x78 }
  - { offset: 0x21A41, size: 0x8, addend: 0x0, symName: __RINvMNtCsfvfooZQ3Axs_4core6optionINtB3_6OptionReE3mapNtNtCse1nGBsou5OW_5alloc6string6StringNCNvCs7EIZlGwJWX2_13version_check35version_and_date_from_rustc_versions0_0EB1v_, symObjAddr: 0x704, symBinAddr: 0x10000D798, symSize: 0x78 }
  - { offset: 0x21AAC, size: 0x8, addend: 0x0, symName: __RINvMNtCsfvfooZQ3Axs_4core6optionINtB3_6OptionReE3mapNtNtCse1nGBsou5OW_5alloc6string6StringNCNvCs7EIZlGwJWX2_13version_check35version_and_date_from_rustc_versions1_0EB1v_, symObjAddr: 0x77C, symBinAddr: 0x10000D810, symSize: 0x78 }
  - { offset: 0x21B17, size: 0x8, addend: 0x0, symName: __RINvMNtCsfvfooZQ3Axs_4core6optionINtB3_6OptionTIBw_NtNtCse1nGBsou5OW_5alloc6string6StringEBJ_EE8and_thenBN_NCNvMNtCs7EIZlGwJWX2_13version_check7channelNtB1M_7Channel4read0EB1O_, symObjAddr: 0x87C, symBinAddr: 0x10000D888, symSize: 0x88 }
  - { offset: 0x21B83, size: 0x8, addend: 0x0, symName: __RINvMNtCsfvfooZQ3Axs_4core6optionINtB3_6OptionTNtNtNtCscOYdFFY2T5N_3std3ffi6os_str8OsStringcEE7or_elseNCNvCs7EIZlGwJWX2_13version_check16supports_features_0EB1G_, symObjAddr: 0x98C, symBinAddr: 0x10000D910, symSize: 0xC8 }
  - { offset: 0x21EAC, size: 0x8, addend: 0x0, symName: __RINvMsk_NtCscOYdFFY2T5N_3std7processNtB6_7Command3argReECs7EIZlGwJWX2_13version_check, symObjAddr: 0xB30, symBinAddr: 0x10000D9D8, symSize: 0x70 }
  - { offset: 0x21EE7, size: 0x8, addend: 0x0, symName: __RINvMsk_NtCscOYdFFY2T5N_3std7processNtB6_7Command3newNtNtCse1nGBsou5OW_5alloc6string6StringECs7EIZlGwJWX2_13version_check, symObjAddr: 0xBA0, symBinAddr: 0x10000DA48, symSize: 0x90 }
  - { offset: 0x21F3A, size: 0x8, addend: 0x0, symName: __RNvMNtCsfvfooZQ3Axs_4core6optionINtB2_6OptionNtNtCse1nGBsou5OW_5alloc6string6StringE2orCs7EIZlGwJWX2_13version_check, symObjAddr: 0xEE8, symBinAddr: 0x10000DD78, symSize: 0xE0 }
  - { offset: 0x21F95, size: 0x8, addend: 0x0, symName: __RNvMNtCsfvfooZQ3Axs_4core6optionINtB2_6OptionReE9unwrap_orCs7EIZlGwJWX2_13version_check, symObjAddr: 0xFC8, symBinAddr: 0x10000DE58, symSize: 0x70 }
  - { offset: 0x22018, size: 0x8, addend: 0x0, symName: __RNvMs1_NtNtCsfvfooZQ3Axs_4core3ptr8non_nullINtB5_7NonNullhE7sub_ptrCs7EIZlGwJWX2_13version_check, symObjAddr: 0x10E4, symBinAddr: 0x10000DEC8, symSize: 0x74 }
  - { offset: 0x2212E, size: 0x8, addend: 0x0, symName: __RNvMs5_NtNtCscOYdFFY2T5N_3std2io5errorNtB5_5Error14is_interruptedCs7EIZlGwJWX2_13version_check, symObjAddr: 0x1158, symBinAddr: 0x10000DF3C, symSize: 0x138 }
  - { offset: 0x2229F, size: 0x8, addend: 0x0, symName: __RNvMsl_NtNtCscOYdFFY2T5N_3std3ffi6os_strNtB5_5OsStr15to_string_lossyCs7EIZlGwJWX2_13version_check, symObjAddr: 0x1290, symBinAddr: 0x10000E074, symSize: 0x28 }
  - { offset: 0x22878, size: 0x8, addend: 0x0, symName: __RNvMNtCs7EIZlGwJWX2_13version_check7channelNtB2_7Channel4read, symObjAddr: 0x2C08, symBinAddr: 0x10000F2BC, symSize: 0x4C }
  - { offset: 0x2288B, size: 0x8, addend: 0x0, symName: __RNvMNtCs7EIZlGwJWX2_13version_check7channelNtB2_7Channel5parse, symObjAddr: 0x2D1C, symBinAddr: 0x10000F3D0, symSize: 0x224 }
  - { offset: 0x228CF, size: 0x8, addend: 0x0, symName: __RNvMNtCs7EIZlGwJWX2_13version_check7channelNtB2_7Channel17supports_features, symObjAddr: 0x303C, symBinAddr: 0x10000F5F4, symSize: 0x6C }
  - { offset: 0x229A0, size: 0x8, addend: 0x0, symName: ___llvm_profile_get_magic, symObjAddr: 0x28, symBinAddr: 0x10000F660, symSize: 0x14 }
  - { offset: 0x229C1, size: 0x8, addend: 0x0, symName: ___llvm_profile_get_num_padding_bytes, symObjAddr: 0x44, symBinAddr: 0x10000F674, symSize: 0xC }
  - { offset: 0x229C9, size: 0x8, addend: 0x0, symName: ___llvm_profile_get_version, symObjAddr: 0x50, symBinAddr: 0x10000F680, symSize: 0xC }
  - { offset: 0x229F2, size: 0x8, addend: 0x0, symName: ___llvm_profile_get_version, symObjAddr: 0x50, symBinAddr: 0x10000F680, symSize: 0xC }
  - { offset: 0x22A67, size: 0x8, addend: 0x0, symName: ___llvm_profile_is_continuous_mode_enabled, symObjAddr: 0x0, symBinAddr: 0x10000F68C, symSize: 0x20 }
  - { offset: 0x22A84, size: 0x8, addend: 0x0, symName: __MergedGlobals, symObjAddr: 0x3E20, symBinAddr: 0x10006DAC8, symSize: 0x0 }
  - { offset: 0x22AA6, size: 0x8, addend: 0x0, symName: __MergedGlobals, symObjAddr: 0x3E20, symBinAddr: 0x10006DAC8, symSize: 0x0 }
  - { offset: 0x22AD6, size: 0x8, addend: 0x0, symName: ___llvm_profile_is_continuous_mode_enabled, symObjAddr: 0x0, symBinAddr: 0x10000F68C, symSize: 0x20 }
  - { offset: 0x22ADE, size: 0x8, addend: 0x0, symName: ___llvm_profile_enable_continuous_mode, symObjAddr: 0x20, symBinAddr: 0x10000F6AC, symSize: 0x10 }
  - { offset: 0x22AEE, size: 0x8, addend: 0x0, symName: ___llvm_profile_enable_continuous_mode, symObjAddr: 0x20, symBinAddr: 0x10000F6AC, symSize: 0x10 }
  - { offset: 0x22AF6, size: 0x8, addend: 0x0, symName: ___llvm_profile_disable_continuous_mode, symObjAddr: 0x30, symBinAddr: 0x10000F6BC, symSize: 0xC }
  - { offset: 0x22B0B, size: 0x8, addend: 0x0, symName: ___llvm_profile_disable_continuous_mode, symObjAddr: 0x30, symBinAddr: 0x10000F6BC, symSize: 0xC }
  - { offset: 0x22B13, size: 0x8, addend: 0x0, symName: ___llvm_profile_set_page_size, symObjAddr: 0x3C, symBinAddr: 0x10000F6C8, symSize: 0xC }
  - { offset: 0x22B28, size: 0x8, addend: 0x0, symName: ___llvm_profile_set_page_size, symObjAddr: 0x3C, symBinAddr: 0x10000F6C8, symSize: 0xC }
  - { offset: 0x22B30, size: 0x8, addend: 0x0, symName: ___llvm_profile_get_size_for_buffer, symObjAddr: 0x48, symBinAddr: 0x10000F6D4, symSize: 0xC4 }
  - { offset: 0x22B53, size: 0x8, addend: 0x0, symName: ___llvm_profile_get_size_for_buffer, symObjAddr: 0x48, symBinAddr: 0x10000F6D4, symSize: 0xC4 }
  - { offset: 0x22B5B, size: 0x8, addend: 0x0, symName: ___llvm_profile_get_size_for_buffer_internal, symObjAddr: 0x10C, symBinAddr: 0x10000F798, symSize: 0x1C0 }
  - { offset: 0x22FBE, size: 0x8, addend: 0x0, symName: ___llvm_profile_get_size_for_buffer_internal, symObjAddr: 0x10C, symBinAddr: 0x10000F798, symSize: 0x1C0 }
  - { offset: 0x22FC6, size: 0x8, addend: 0x0, symName: ___llvm_profile_get_num_data, symObjAddr: 0x2CC, symBinAddr: 0x10000F958, symSize: 0x10 }
  - { offset: 0x233B5, size: 0x8, addend: 0x0, symName: ___llvm_profile_get_num_data, symObjAddr: 0x2CC, symBinAddr: 0x10000F958, symSize: 0x10 }
  - { offset: 0x233BD, size: 0x8, addend: 0x0, symName: ___llvm_profile_get_data_size, symObjAddr: 0x2DC, symBinAddr: 0x10000F968, symSize: 0x10 }
  - { offset: 0x233EE, size: 0x8, addend: 0x0, symName: ___llvm_profile_get_data_size, symObjAddr: 0x2DC, symBinAddr: 0x10000F968, symSize: 0x10 }
  - { offset: 0x233F6, size: 0x8, addend: 0x0, symName: ___llvm_profile_get_num_vtable, symObjAddr: 0x2EC, symBinAddr: 0x10000F978, symSize: 0x18 }
  - { offset: 0x2341A, size: 0x8, addend: 0x0, symName: ___llvm_profile_get_data_size, symObjAddr: 0x2DC, symBinAddr: 0x10000F968, symSize: 0x10 }
  - { offset: 0x2344C, size: 0x8, addend: 0x0, symName: ___llvm_profile_get_num_vtable, symObjAddr: 0x2EC, symBinAddr: 0x10000F978, symSize: 0x18 }
  - { offset: 0x23454, size: 0x8, addend: 0x0, symName: ___llvm_profile_get_vtable_section_size, symObjAddr: 0x304, symBinAddr: 0x10000F990, symSize: 0x8 }
  - { offset: 0x234A6, size: 0x8, addend: 0x0, symName: ___llvm_profile_get_vtable_section_size, symObjAddr: 0x304, symBinAddr: 0x10000F990, symSize: 0x8 }
  - { offset: 0x234AE, size: 0x8, addend: 0x0, symName: ___llvm_profile_counter_entry_size, symObjAddr: 0x30C, symBinAddr: 0x10000F998, symSize: 0x1C }
  - { offset: 0x234CF, size: 0x8, addend: 0x0, symName: ___llvm_profile_counter_entry_size, symObjAddr: 0x30C, symBinAddr: 0x10000F998, symSize: 0x1C }
  - { offset: 0x234D7, size: 0x8, addend: 0x0, symName: ___llvm_profile_get_num_counters, symObjAddr: 0x328, symBinAddr: 0x10000F9B4, symSize: 0x48 }
  - { offset: 0x234E7, size: 0x8, addend: 0x0, symName: ___llvm_profile_get_num_counters, symObjAddr: 0x328, symBinAddr: 0x10000F9B4, symSize: 0x48 }
  - { offset: 0x234EF, size: 0x8, addend: 0x0, symName: ___llvm_profile_get_counters_size, symObjAddr: 0x370, symBinAddr: 0x10000F9FC, symSize: 0x5C }
  - { offset: 0x23554, size: 0x8, addend: 0x0, symName: ___llvm_profile_get_counters_size, symObjAddr: 0x370, symBinAddr: 0x10000F9FC, symSize: 0x5C }
  - { offset: 0x2355C, size: 0x8, addend: 0x0, symName: ___llvm_profile_get_num_bitmap_bytes, symObjAddr: 0x3CC, symBinAddr: 0x10000FA58, symSize: 0x8 }
  - { offset: 0x23600, size: 0x8, addend: 0x0, symName: ___llvm_profile_get_num_bitmap_bytes, symObjAddr: 0x3CC, symBinAddr: 0x10000FA58, symSize: 0x8 }
  - { offset: 0x23608, size: 0x8, addend: 0x0, symName: ___llvm_profile_get_name_size, symObjAddr: 0x3D4, symBinAddr: 0x10000FA60, symSize: 0x8 }
  - { offset: 0x23629, size: 0x8, addend: 0x0, symName: ___llvm_profile_get_name_size, symObjAddr: 0x3D4, symBinAddr: 0x10000FA60, symSize: 0x8 }
  - { offset: 0x23631, size: 0x8, addend: 0x0, symName: ___llvm_profile_get_padding_sizes_for_counters, symObjAddr: 0x3DC, symBinAddr: 0x10000FA68, symSize: 0x15C }
  - { offset: 0x23652, size: 0x8, addend: 0x0, symName: ___llvm_profile_get_padding_sizes_for_counters, symObjAddr: 0x3DC, symBinAddr: 0x10000FA68, symSize: 0x15C }
  - { offset: 0x2365A, size: 0x8, addend: 0x0, symName: _initBufferWriter, symObjAddr: 0x538, symBinAddr: 0x10000FBC4, symSize: 0x10 }
  - { offset: 0x237AE, size: 0x8, addend: 0x0, symName: _initBufferWriter, symObjAddr: 0x538, symBinAddr: 0x10000FBC4, symSize: 0x10 }
  - { offset: 0x23919, size: 0x8, addend: 0x0, symName: __MergedGlobals, symObjAddr: 0xA4F0, symBinAddr: 0x10006DAD8, symSize: 0x0 }
  - { offset: 0x23A37, size: 0x8, addend: 0x0, symName: __MergedGlobals, symObjAddr: 0xA4F0, symBinAddr: 0x10006DAD8, symSize: 0x0 }
  - { offset: 0x23C68, size: 0x8, addend: 0x0, symName: __MergedGlobals, symObjAddr: 0xA4F0, symBinAddr: 0x10006DAD8, symSize: 0x0 }
  - { offset: 0x23D90, size: 0x8, addend: 0x0, symName: _getCurFilenameLength, symObjAddr: 0x1C8, symBinAddr: 0x10000FBD4, symSize: 0x108 }
  - { offset: 0x23D98, size: 0x8, addend: 0x0, symName: _getCurFilename, symObjAddr: 0x2D0, symBinAddr: 0x10000FCDC, symSize: 0x2B8 }
  - { offset: 0x23E1B, size: 0x8, addend: 0x0, symName: _getCurFilename, symObjAddr: 0x2D0, symBinAddr: 0x10000FCDC, symSize: 0x2B8 }
  - { offset: 0x2404C, size: 0x8, addend: 0x0, symName: _parseAndSetFilename, symObjAddr: 0x688, symBinAddr: 0x10000FF94, symSize: 0x4B8 }
  - { offset: 0x24054, size: 0x8, addend: 0x0, symName: ___llvm_profile_initialize, symObjAddr: 0xB40, symBinAddr: 0x10001044C, symSize: 0xB8 }
  - { offset: 0x2423C, size: 0x8, addend: 0x0, symName: ___llvm_profile_initialize, symObjAddr: 0xB40, symBinAddr: 0x10001044C, symSize: 0xB8 }
  - { offset: 0x242B8, size: 0x8, addend: 0x0, symName: ___llvm_profile_write_file, symObjAddr: 0xC74, symBinAddr: 0x100010504, symSize: 0x1B4 }
  - { offset: 0x242C0, size: 0x8, addend: 0x0, symName: _writeFile, symObjAddr: 0xE28, symBinAddr: 0x1000106B8, symSize: 0x294 }
  - { offset: 0x2441B, size: 0x8, addend: 0x0, symName: _writeFile, symObjAddr: 0xE28, symBinAddr: 0x1000106B8, symSize: 0x294 }
  - { offset: 0x2458F, size: 0x8, addend: 0x0, symName: _writeFileWithoutReturn, symObjAddr: 0x138C, symBinAddr: 0x10001094C, symSize: 0x4 }
  - { offset: 0x245C6, size: 0x8, addend: 0x0, symName: _getProfileFileSizeForMerging, symObjAddr: 0x1574, symBinAddr: 0x100010950, symSize: 0x110 }
  - { offset: 0x245CE, size: 0x8, addend: 0x0, symName: _mmapProfileForMerging, symObjAddr: 0x1684, symBinAddr: 0x100010A60, symSize: 0xBC }
  - { offset: 0x2460B, size: 0x8, addend: 0x0, symName: _mmapProfileForMerging, symObjAddr: 0x1684, symBinAddr: 0x100010A60, symSize: 0xBC }
  - { offset: 0x24613, size: 0x8, addend: 0x0, symName: _mmapForContinuousMode, symObjAddr: 0x1740, symBinAddr: 0x100010B1C, symSize: 0x264 }
  - { offset: 0x24661, size: 0x8, addend: 0x0, symName: _mmapForContinuousMode, symObjAddr: 0x1740, symBinAddr: 0x100010B1C, symSize: 0x264 }
  - { offset: 0x24669, size: 0x8, addend: 0x0, symName: _fileWriter, symObjAddr: 0x19A4, symBinAddr: 0x100010D80, symSize: 0x140 }
  - { offset: 0x24828, size: 0x8, addend: 0x0, symName: _fileWriter, symObjAddr: 0x19A4, symBinAddr: 0x100010D80, symSize: 0x140 }
  - { offset: 0x24830, size: 0x8, addend: 0x0, symName: _truncateCurrentFile, symObjAddr: 0x1AE4, symBinAddr: 0x100010EC0, symSize: 0xD8 }
  - { offset: 0x248F8, size: 0x8, addend: 0x0, symName: _truncateCurrentFile, symObjAddr: 0x1AE4, symBinAddr: 0x100010EC0, symSize: 0xD8 }
  - { offset: 0x24900, size: 0x8, addend: 0x0, symName: _initializeProfileForContinuousMode, symObjAddr: 0x1BBC, symBinAddr: 0x100010F98, symSize: 0x25C }
  - { offset: 0x2499E, size: 0x8, addend: 0x0, symName: _initializeProfileForContinuousMode, symObjAddr: 0x1BBC, symBinAddr: 0x100010F98, symSize: 0x25C }
  - { offset: 0x249A6, size: 0x8, addend: 0x0, symName: _createProfileDir, symObjAddr: 0x1E18, symBinAddr: 0x1000111F4, symSize: 0xA4 }
  - { offset: 0x24B73, size: 0x8, addend: 0x0, symName: _createProfileDir, symObjAddr: 0x1E18, symBinAddr: 0x1000111F4, symSize: 0xA4 }
  - { offset: 0x24B7B, size: 0x8, addend: 0x0, symName: _parseAndSetFilename.cold.1, symObjAddr: 0x1EBC, symBinAddr: 0x10004E08C, symSize: 0x24 }
  - { offset: 0x24BD8, size: 0x8, addend: 0x0, symName: _parseAndSetFilename.cold.1, symObjAddr: 0x1EBC, symBinAddr: 0x10004E08C, symSize: 0x24 }
  - { offset: 0x24BE0, size: 0x8, addend: 0x0, symName: _parseAndSetFilename.cold.2, symObjAddr: 0x1EE0, symBinAddr: 0x10004E0B0, symSize: 0x24 }
  - { offset: 0x24C02, size: 0x8, addend: 0x0, symName: _parseAndSetFilename.cold.2, symObjAddr: 0x1EE0, symBinAddr: 0x10004E0B0, symSize: 0x24 }
  - { offset: 0x24C1C, size: 0x8, addend: 0x0, symName: _parseAndSetFilename.cold.2, symObjAddr: 0x1EE0, symBinAddr: 0x10004E0B0, symSize: 0x24 }
  - { offset: 0x24C2C, size: 0x8, addend: 0x0, symName: _parseAndSetFilename.cold.2, symObjAddr: 0x1EE0, symBinAddr: 0x10004E0B0, symSize: 0x24 }
  - { offset: 0x24D91, size: 0x8, addend: 0x0, symName: _lprofProfileDumped, symObjAddr: 0x0, symBinAddr: 0x100011298, symSize: 0xC }
  - { offset: 0x24DAE, size: 0x8, addend: 0x0, symName: _ProfileDumped, symObjAddr: 0x4E0, symBinAddr: 0x10006DBA8, symSize: 0x0 }
  - { offset: 0x24DBE, size: 0x8, addend: 0x0, symName: _lprofProfileDumped, symObjAddr: 0x0, symBinAddr: 0x100011298, symSize: 0xC }
  - { offset: 0x24E06, size: 0x8, addend: 0x0, symName: _lprofGetLoadModuleSignature, symObjAddr: 0x0, symBinAddr: 0x1000112A4, symSize: 0xD0 }
  - { offset: 0x24E33, size: 0x8, addend: 0x0, symName: _VPMergeHook, symBinAddr: 0x10006DAC0, symSize: 0x0 }
  - { offset: 0x25097, size: 0x8, addend: 0x0, symName: _lprofGetLoadModuleSignature, symObjAddr: 0x0, symBinAddr: 0x1000112A4, symSize: 0xD0 }
  - { offset: 0x2509F, size: 0x8, addend: 0x0, symName: ___llvm_profile_check_compatibility, symObjAddr: 0xD0, symBinAddr: 0x100011374, symSize: 0x1CC }
  - { offset: 0x2510E, size: 0x8, addend: 0x0, symName: ___llvm_profile_check_compatibility, symObjAddr: 0xD0, symBinAddr: 0x100011374, symSize: 0x1CC }
  - { offset: 0x25116, size: 0x8, addend: 0x0, symName: ___llvm_profile_merge_from_buffer, symObjAddr: 0x29C, symBinAddr: 0x100011540, symSize: 0x48C }
  - { offset: 0x251EE, size: 0x8, addend: 0x0, symName: ___llvm_profile_merge_from_buffer, symObjAddr: 0x29C, symBinAddr: 0x100011540, symSize: 0x48C }
  - { offset: 0x25455, size: 0x8, addend: 0x0, symName: _lprofMergeValueProfData, symObjAddr: 0x0, symBinAddr: 0x1000119CC, symSize: 0xF0 }
  - { offset: 0x25466, size: 0x8, addend: 0x0, symName: _lprofMergeValueProfData, symObjAddr: 0x0, symBinAddr: 0x1000119CC, symSize: 0xF0 }
  - { offset: 0x25731, size: 0x8, addend: 0x0, symName: ___llvm_profile_begin_data, symObjAddr: 0x0, symBinAddr: 0x100011ABC, symSize: 0xC }
  - { offset: 0x25750, size: 0x8, addend: 0x0, symName: _CurrentVNode, symObjAddr: 0xC0, symBinAddr: 0x10006CF68, symSize: 0x0 }
  - { offset: 0x257CC, size: 0x8, addend: 0x0, symName: _EndVNode, symObjAddr: 0xC8, symBinAddr: 0x10006CF70, symSize: 0x0 }
  - { offset: 0x257D5, size: 0x8, addend: 0x0, symName: ___llvm_profile_begin_data, symObjAddr: 0x0, symBinAddr: 0x100011ABC, symSize: 0xC }
  - { offset: 0x257DD, size: 0x8, addend: 0x0, symName: ___llvm_profile_end_data, symObjAddr: 0xC, symBinAddr: 0x100011AC8, symSize: 0xC }
  - { offset: 0x257F6, size: 0x8, addend: 0x0, symName: ___llvm_profile_end_data, symObjAddr: 0xC, symBinAddr: 0x100011AC8, symSize: 0xC }
  - { offset: 0x257FE, size: 0x8, addend: 0x0, symName: ___llvm_profile_begin_names, symObjAddr: 0x18, symBinAddr: 0x100011AD4, symSize: 0xC }
  - { offset: 0x25817, size: 0x8, addend: 0x0, symName: ___llvm_profile_begin_names, symObjAddr: 0x18, symBinAddr: 0x100011AD4, symSize: 0xC }
  - { offset: 0x2581F, size: 0x8, addend: 0x0, symName: ___llvm_profile_end_names, symObjAddr: 0x24, symBinAddr: 0x100011AE0, symSize: 0xC }
  - { offset: 0x25838, size: 0x8, addend: 0x0, symName: ___llvm_profile_end_names, symObjAddr: 0x24, symBinAddr: 0x100011AE0, symSize: 0xC }
  - { offset: 0x25840, size: 0x8, addend: 0x0, symName: ___llvm_profile_begin_counters, symObjAddr: 0x30, symBinAddr: 0x100011AEC, symSize: 0xC }
  - { offset: 0x25859, size: 0x8, addend: 0x0, symName: ___llvm_profile_begin_counters, symObjAddr: 0x30, symBinAddr: 0x100011AEC, symSize: 0xC }
  - { offset: 0x25861, size: 0x8, addend: 0x0, symName: ___llvm_profile_end_counters, symObjAddr: 0x3C, symBinAddr: 0x100011AF8, symSize: 0xC }
  - { offset: 0x2587A, size: 0x8, addend: 0x0, symName: ___llvm_profile_end_counters, symObjAddr: 0x3C, symBinAddr: 0x100011AF8, symSize: 0xC }
  - { offset: 0x25882, size: 0x8, addend: 0x0, symName: ___llvm_profile_begin_bitmap, symObjAddr: 0x48, symBinAddr: 0x100011B04, symSize: 0xC }
  - { offset: 0x2589B, size: 0x8, addend: 0x0, symName: ___llvm_profile_begin_bitmap, symObjAddr: 0x48, symBinAddr: 0x100011B04, symSize: 0xC }
  - { offset: 0x258A3, size: 0x8, addend: 0x0, symName: ___llvm_profile_end_bitmap, symObjAddr: 0x54, symBinAddr: 0x100011B10, symSize: 0xC }
  - { offset: 0x258BC, size: 0x8, addend: 0x0, symName: ___llvm_profile_end_bitmap, symObjAddr: 0x54, symBinAddr: 0x100011B10, symSize: 0xC }
  - { offset: 0x258C4, size: 0x8, addend: 0x0, symName: ___llvm_profile_begin_vtables, symObjAddr: 0x60, symBinAddr: 0x100011B1C, symSize: 0xC }
  - { offset: 0x258DE, size: 0x8, addend: 0x0, symName: ___llvm_profile_begin_vtables, symObjAddr: 0x60, symBinAddr: 0x100011B1C, symSize: 0xC }
  - { offset: 0x258E6, size: 0x8, addend: 0x0, symName: ___llvm_profile_end_vtables, symObjAddr: 0x6C, symBinAddr: 0x100011B28, symSize: 0xC }
  - { offset: 0x258FF, size: 0x8, addend: 0x0, symName: ___llvm_profile_end_vtables, symObjAddr: 0x6C, symBinAddr: 0x100011B28, symSize: 0xC }
  - { offset: 0x25907, size: 0x8, addend: 0x0, symName: ___llvm_profile_begin_vtabnames, symObjAddr: 0x78, symBinAddr: 0x100011B34, symSize: 0xC }
  - { offset: 0x2591F, size: 0x8, addend: 0x0, symName: ___llvm_profile_begin_vtabnames, symObjAddr: 0x78, symBinAddr: 0x100011B34, symSize: 0xC }
  - { offset: 0x25927, size: 0x8, addend: 0x0, symName: ___llvm_profile_end_vtabnames, symObjAddr: 0x84, symBinAddr: 0x100011B40, symSize: 0xC }
  - { offset: 0x25940, size: 0x8, addend: 0x0, symName: ___llvm_profile_end_vtabnames, symObjAddr: 0x84, symBinAddr: 0x100011B40, symSize: 0xC }
  - { offset: 0x25962, size: 0x8, addend: 0x0, symName: ___llvm_profile_begin_vnodes, symObjAddr: 0x9C, symBinAddr: 0x100011B4C, symSize: 0xC }
  - { offset: 0x2596A, size: 0x8, addend: 0x0, symName: ___llvm_profile_end_vnodes, symObjAddr: 0xA8, symBinAddr: 0x100011B58, symSize: 0xC }
  - { offset: 0x25983, size: 0x8, addend: 0x0, symName: ___llvm_profile_end_vnodes, symObjAddr: 0xA8, symBinAddr: 0x100011B58, symSize: 0xC }
  - { offset: 0x2598B, size: 0x8, addend: 0x0, symName: ___llvm_write_binary_ids, symObjAddr: 0xB4, symBinAddr: 0x100011B64, symSize: 0x8 }
  - { offset: 0x259A3, size: 0x8, addend: 0x0, symName: ___llvm_write_binary_ids, symObjAddr: 0xB4, symBinAddr: 0x100011B64, symSize: 0x8 }
  - { offset: 0x25C2A, size: 0x8, addend: 0x0, symName: __GLOBAL__sub_I_InstrProfilingRuntime.cpp, symObjAddr: 0x0, symBinAddr: 0x100011B6C, symSize: 0x18 }
  - { offset: 0x25C4D, size: 0x8, addend: 0x0, symName: ___llvm_profile_runtime, symObjAddr: 0x590, symBinAddr: 0x10006DA7C, symSize: 0x0 }
  - { offset: 0x25C7D, size: 0x8, addend: 0x0, symName: __GLOBAL__sub_I_InstrProfilingRuntime.cpp, symObjAddr: 0x0, symBinAddr: 0x100011B6C, symSize: 0x18 }
  - { offset: 0x25CF9, size: 0x8, addend: 0x0, symName: ___llvm_profile_recursive_mkdir, symObjAddr: 0x0, symBinAddr: 0x100011B84, symSize: 0x58 }
  - { offset: 0x25D01, size: 0x8, addend: 0x0, symName: _lprofDirMode, symObjAddr: 0x5A8, symBinAddr: 0x10006CF78, symSize: 0x0 }
  - { offset: 0x25D18, size: 0x8, addend: 0x0, symName: _lprofDirMode, symObjAddr: 0x5A8, symBinAddr: 0x10006CF78, symSize: 0x0 }
  - { offset: 0x25D4D, size: 0x8, addend: 0x0, symName: ___llvm_profile_recursive_mkdir, symObjAddr: 0x0, symBinAddr: 0x100011B84, symSize: 0x58 }
  - { offset: 0x25DCC, size: 0x8, addend: 0x0, symName: _lprofGetHostName, symObjAddr: 0x70, symBinAddr: 0x100011BDC, symSize: 0x80 }
  - { offset: 0x25F01, size: 0x8, addend: 0x0, symName: _lprofLockFileHandle, symObjAddr: 0x208, symBinAddr: 0x100011C5C, symSize: 0x90 }
  - { offset: 0x25F09, size: 0x8, addend: 0x0, symName: _lprofUnlockFileHandle, symObjAddr: 0x298, symBinAddr: 0x100011CEC, symSize: 0x90 }
  - { offset: 0x25F8F, size: 0x8, addend: 0x0, symName: _lprofUnlockFileHandle, symObjAddr: 0x298, symBinAddr: 0x100011CEC, symSize: 0x90 }
  - { offset: 0x25F97, size: 0x8, addend: 0x0, symName: _lprofOpenFileEx, symObjAddr: 0x328, symBinAddr: 0x100011D7C, symSize: 0xD0 }
  - { offset: 0x25FF7, size: 0x8, addend: 0x0, symName: _lprofOpenFileEx, symObjAddr: 0x328, symBinAddr: 0x100011D7C, symSize: 0xD0 }
  - { offset: 0x2606F, size: 0x8, addend: 0x0, symName: _lprofFindFirstDirSeparator, symObjAddr: 0x538, symBinAddr: 0x100011E4C, symSize: 0x8 }
  - { offset: 0x260AF, size: 0x8, addend: 0x0, symName: _lprofSuspendSigKill, symObjAddr: 0x548, symBinAddr: 0x100011E54, symSize: 0x8 }
  - { offset: 0x260B7, size: 0x8, addend: 0x0, symName: _lprofRestoreSigKill, symObjAddr: 0x550, symBinAddr: 0x100011E5C, symSize: 0x4 }
  - { offset: 0x260D1, size: 0x8, addend: 0x0, symName: _lprofRestoreSigKill, symObjAddr: 0x550, symBinAddr: 0x100011E5C, symSize: 0x4 }
  - { offset: 0x2637C, size: 0x8, addend: 0x0, symName: _getValueProfRecordHeaderSize, symObjAddr: 0x0, symBinAddr: 0x100011E60, symSize: 0xC }
  - { offset: 0x2639B, size: 0x8, addend: 0x0, symName: _VPMaxNumValsPerSite, symObjAddr: 0x1740, symBinAddr: 0x10006CF80, symSize: 0x0 }
  - { offset: 0x26430, size: 0x8, addend: 0x0, symName: __MergedGlobals, symObjAddr: 0xEF68, symBinAddr: 0x10006DBD8, symSize: 0x0 }
  - { offset: 0x26457, size: 0x8, addend: 0x0, symName: __MergedGlobals, symObjAddr: 0xEF68, symBinAddr: 0x10006DBD8, symSize: 0x0 }
  - { offset: 0x2646E, size: 0x8, addend: 0x0, symName: __MergedGlobals, symObjAddr: 0xEF68, symBinAddr: 0x10006DBD8, symSize: 0x0 }
  - { offset: 0x2648E, size: 0x8, addend: 0x0, symName: _TheVPDataReader, symObjAddr: 0x1748, symBinAddr: 0x10006CF88, symSize: 0x0 }
  - { offset: 0x2672F, size: 0x8, addend: 0x0, symName: _RTRecord, symObjAddr: 0xEF40, symBinAddr: 0x10006DBB0, symSize: 0x0 }
  - { offset: 0x26924, size: 0x8, addend: 0x0, symName: _getValueProfRecordHeaderSize, symObjAddr: 0x0, symBinAddr: 0x100011E60, symSize: 0xC }
  - { offset: 0x2697A, size: 0x8, addend: 0x0, symName: _getValueProfRecordValueData, symObjAddr: 0x1C, symBinAddr: 0x100011E6C, symSize: 0x14 }
  - { offset: 0x26A28, size: 0x8, addend: 0x0, symName: _getValueProfRecordNext, symObjAddr: 0x1B4, symBinAddr: 0x100011E80, symSize: 0x1A4 }
  - { offset: 0x26A30, size: 0x8, addend: 0x0, symName: _getFirstValueProfRecord, symObjAddr: 0x358, symBinAddr: 0x100012024, symSize: 0x8 }
  - { offset: 0x26A97, size: 0x8, addend: 0x0, symName: _getFirstValueProfRecord, symObjAddr: 0x358, symBinAddr: 0x100012024, symSize: 0x8 }
  - { offset: 0x26B7A, size: 0x8, addend: 0x0, symName: _lprofSetupValueProfiler, symObjAddr: 0xB38, symBinAddr: 0x10001202C, symSize: 0x64 }
  - { offset: 0x26C8B, size: 0x8, addend: 0x0, symName: ___llvm_profile_instrument_target_value, symObjAddr: 0xE30, symBinAddr: 0x100012090, symSize: 0x290 }
  - { offset: 0x26DA9, size: 0x8, addend: 0x0, symName: _lprofGetVPDataReader, symObjAddr: 0x1108, symBinAddr: 0x100012320, symSize: 0xC }
  - { offset: 0x26DB1, size: 0x8, addend: 0x0, symName: _initializeValueProfRuntimeRecord, symObjAddr: 0x1114, symBinAddr: 0x10001232C, symSize: 0x210 }
  - { offset: 0x26DCB, size: 0x8, addend: 0x0, symName: _initializeValueProfRuntimeRecord, symObjAddr: 0x1114, symBinAddr: 0x10001232C, symSize: 0x210 }
  - { offset: 0x26DD3, size: 0x8, addend: 0x0, symName: _getNumValueDataForSiteWrapper, symObjAddr: 0x1324, symBinAddr: 0x10001253C, symSize: 0x14 }
  - { offset: 0x26EEE, size: 0x8, addend: 0x0, symName: _getNumValueDataForSiteWrapper, symObjAddr: 0x1324, symBinAddr: 0x10001253C, symSize: 0x14 }
  - { offset: 0x26EF6, size: 0x8, addend: 0x0, symName: _getValueProfDataSizeWrapper, symObjAddr: 0x1338, symBinAddr: 0x100012550, symSize: 0xDC }
  - { offset: 0x26F34, size: 0x8, addend: 0x0, symName: _getNumValueDataForSiteWrapper, symObjAddr: 0x1324, symBinAddr: 0x10001253C, symSize: 0x14 }
  - { offset: 0x26F5A, size: 0x8, addend: 0x0, symName: _getValueProfDataSizeWrapper, symObjAddr: 0x1338, symBinAddr: 0x100012550, symSize: 0xDC }
  - { offset: 0x26F62, size: 0x8, addend: 0x0, symName: _getNextNValueData, symObjAddr: 0x1414, symBinAddr: 0x10001262C, symSize: 0x44 }
  - { offset: 0x26FF9, size: 0x8, addend: 0x0, symName: _getNextNValueData, symObjAddr: 0x1414, symBinAddr: 0x10001262C, symSize: 0x44 }
  - { offset: 0x27001, size: 0x8, addend: 0x0, symName: _getNumValueSitesRT, symObjAddr: 0x1458, symBinAddr: 0x100012670, symSize: 0x10 }
  - { offset: 0x2708F, size: 0x8, addend: 0x0, symName: _getNumValueSitesRT, symObjAddr: 0x1458, symBinAddr: 0x100012670, symSize: 0x10 }
  - { offset: 0x27097, size: 0x8, addend: 0x0, symName: _getNumValueDataRT, symObjAddr: 0x1468, symBinAddr: 0x100012680, symSize: 0x190 }
  - { offset: 0x270D2, size: 0x8, addend: 0x0, symName: _getNumValueDataRT, symObjAddr: 0x1468, symBinAddr: 0x100012680, symSize: 0x190 }
  - { offset: 0x27148, size: 0x8, addend: 0x0, symName: ___llvm_profile_instrument_target_value.cold.1, symObjAddr: 0x161C, symBinAddr: 0x10004E0D4, symSize: 0x24 }
  - { offset: 0x271D8, size: 0x8, addend: 0x0, symName: ___llvm_profile_raw_version, symObjAddr: 0x0, symBinAddr: 0x10006CFB8, symSize: 0x0 }
  - { offset: 0x2721A, size: 0x8, addend: 0x0, symName: _lprofBufferWriter, symObjAddr: 0x0, symBinAddr: 0x100012810, symSize: 0x6C }
  - { offset: 0x27239, size: 0x8, addend: 0x0, symName: _FreeHook, symObjAddr: 0x4F30, symBinAddr: 0x10006DA80, symSize: 0x0 }
  - { offset: 0x2725F, size: 0x8, addend: 0x0, symName: _DynamicBufferIOBuffer, symObjAddr: 0x4F38, symBinAddr: 0x10006DA88, symSize: 0x0 }
  - { offset: 0x2728D, size: 0x8, addend: 0x0, symName: _VPBufferSize, symObjAddr: 0x4F40, symBinAddr: 0x10006DA90, symSize: 0x0 }
  - { offset: 0x272B4, size: 0x8, addend: 0x0, symName: __MergedGlobals, symObjAddr: 0x6F48, symBinAddr: 0x10006FBE8, symSize: 0x0 }
  - { offset: 0x273FF, size: 0x8, addend: 0x0, symName: _BufferIOBuffer, symObjAddr: 0x4F48, symBinAddr: 0x10006DBE8, symSize: 0x0 }
  - { offset: 0x27429, size: 0x8, addend: 0x0, symName: __MergedGlobals, symObjAddr: 0x6F48, symBinAddr: 0x10006FBE8, symSize: 0x0 }
  - { offset: 0x274A5, size: 0x8, addend: 0x0, symName: _lprofBufferWriter, symObjAddr: 0x0, symBinAddr: 0x100012810, symSize: 0x6C }
  - { offset: 0x275BD, size: 0x8, addend: 0x0, symName: _lprofBufferIOWrite, symObjAddr: 0x100, symBinAddr: 0x10001287C, symSize: 0x134 }
  - { offset: 0x276BE, size: 0x8, addend: 0x0, symName: _lprofWriteData, symObjAddr: 0x2F4, symBinAddr: 0x1000129B0, symSize: 0xD4 }
  - { offset: 0x276C6, size: 0x8, addend: 0x0, symName: _lprofWriteDataImpl, symObjAddr: 0x3C8, symBinAddr: 0x100012A84, symSize: 0x46C }
  - { offset: 0x27AEC, size: 0x8, addend: 0x0, symName: _lprofWriteDataImpl, symObjAddr: 0x3C8, symBinAddr: 0x100012A84, symSize: 0x46C }
  - { offset: 0x27E16, size: 0x8, addend: 0x0, symName: _writeOneValueProfData, symObjAddr: 0x8C0, symBinAddr: 0x100012EF0, symSize: 0x4A8 }
  - { offset: 0x280DB, size: 0x8, addend: 0x0, symName: '__ZN108_$LT$alloc..collections..btree..map..Iter$LT$K$C$V$GT$$u20$as$u20$core..iter..traits..iterator..Iterator$GT$4next17h45e1d25cf43a5166E', symObjAddr: 0x0, symBinAddr: 0x100013398, symSize: 0x13C }
  - { offset: 0x284F1, size: 0x8, addend: 0x0, symName: '__ZN5alloc11collections5btree4node208Handle$LT$alloc..collections..btree..node..NodeRef$LT$alloc..collections..btree..node..marker..Mut$C$K$C$V$C$alloc..collections..btree..node..marker..Leaf$GT$$C$alloc..collections..btree..node..marker..KV$GT$5split17ha102f583f1ae45bdE', symObjAddr: 0xF314, symBinAddr: 0x10001FF14, symSize: 0x1C8 }
  - { offset: 0x289AF, size: 0x8, addend: 0x0, symName: '__ZN5alloc11collections5btree4node212Handle$LT$alloc..collections..btree..node..NodeRef$LT$alloc..collections..btree..node..marker..Mut$C$K$C$V$C$alloc..collections..btree..node..marker..Internal$GT$$C$alloc..collections..btree..node..marker..KV$GT$5split17he1631b8e3d135de0E', symObjAddr: 0xF950, symBinAddr: 0x1000200DC, symSize: 0x294 }
  - { offset: 0x290C8, size: 0x8, addend: 0x0, symName: '__ZN5alloc11collections5btree6remove259_$LT$impl$u20$alloc..collections..btree..node..Handle$LT$alloc..collections..btree..node..NodeRef$LT$alloc..collections..btree..node..marker..Mut$C$K$C$V$C$alloc..collections..btree..node..marker..Leaf$GT$$C$alloc..collections..btree..node..marker..KV$GT$$GT$14remove_leaf_kv17h6b3fb6c543c3f14fE', symObjAddr: 0x10904, symBinAddr: 0x100020AF4, symSize: 0x59C }
  - { offset: 0x2A776, size: 0x8, addend: 0x0, symName: '__ZN5alloc11collections5btree4node29BalancingContext$LT$K$C$V$GT$15bulk_steal_left17h116648e9c1058487E', symObjAddr: 0xFBE4, symBinAddr: 0x100020370, symSize: 0x284 }
  - { offset: 0x2ADCB, size: 0x8, addend: 0x0, symName: '__ZN5alloc11collections5btree4node29BalancingContext$LT$K$C$V$GT$16bulk_steal_right17h7dc2c295fb017210E', symObjAddr: 0xFE68, symBinAddr: 0x1000205F4, symSize: 0x2A8 }
  - { offset: 0x2B501, size: 0x8, addend: 0x0, symName: '__ZN5alloc11collections5btree4node29BalancingContext$LT$K$C$V$GT$8do_merge17h5a11588cadfa6da9E', symObjAddr: 0x10110, symBinAddr: 0x10002089C, symSize: 0x258 }
  - { offset: 0x2BC70, size: 0x8, addend: 0x0, symName: '__ZN108_$LT$alloc..collections..btree..map..Iter$LT$K$C$V$GT$$u20$as$u20$core..iter..traits..iterator..Iterator$GT$4next17h45e1d25cf43a5166E', symObjAddr: 0x0, symBinAddr: 0x100013398, symSize: 0x13C }
  - { offset: 0x2C003, size: 0x8, addend: 0x0, symName: '__ZN5alloc11collections5btree3map25BTreeMap$LT$K$C$V$C$A$GT$6insert17h4e30f42673c48afbE', symObjAddr: 0xD8AC, symBinAddr: 0x10001EEC8, symSize: 0x9E0 }
  - { offset: 0x2D8ED, size: 0x8, addend: 0x0, symName: '__ZN5alloc11collections5btree3map25IntoIter$LT$K$C$V$C$A$GT$10dying_next17h1d88f957430bad1dE', symObjAddr: 0xECA8, symBinAddr: 0x10001F8A8, symSize: 0x224 }
  - { offset: 0x2DCDC, size: 0x8, addend: 0x0, symName: '__ZN5alloc11collections5btree3map25IntoIter$LT$K$C$V$C$A$GT$10dying_next17h50da07c4ee930b47E', symObjAddr: 0xEECC, symBinAddr: 0x10001FACC, symSize: 0x224 }
  - { offset: 0x2E0CB, size: 0x8, addend: 0x0, symName: '__ZN5alloc11collections5btree3map25IntoIter$LT$K$C$V$C$A$GT$10dying_next17hfaa5a005d7e39d8eE', symObjAddr: 0xF0F0, symBinAddr: 0x10001FCF0, symSize: 0x224 }
  - { offset: 0x2F00D, size: 0x8, addend: 0x0, symName: '__ZN5alloc7raw_vec19RawVec$LT$T$C$A$GT$8grow_one17h095dc4f4c91ff6b9E', symObjAddr: 0x114B8, symBinAddr: 0x10002147C, symSize: 0xD0 }
  - { offset: 0x2F163, size: 0x8, addend: 0x0, symName: '__ZN5alloc7raw_vec19RawVec$LT$T$C$A$GT$8grow_one17h3a19a4ab2b92359dE', symObjAddr: 0x11658, symBinAddr: 0x10002154C, symSize: 0xC0 }
  - { offset: 0x2F2B9, size: 0x8, addend: 0x0, symName: '__ZN5alloc7raw_vec19RawVec$LT$T$C$A$GT$8grow_one17h40071feec6bbd372E', symObjAddr: 0x11718, symBinAddr: 0x10002160C, symSize: 0xD0 }
  - { offset: 0x2F40F, size: 0x8, addend: 0x0, symName: '__ZN5alloc7raw_vec19RawVec$LT$T$C$A$GT$8grow_one17h4a39c02819ac1667E', symObjAddr: 0x117E8, symBinAddr: 0x1000216DC, symSize: 0xD0 }
  - { offset: 0x2F565, size: 0x8, addend: 0x0, symName: '__ZN5alloc7raw_vec19RawVec$LT$T$C$A$GT$8grow_one17h4a92fc1fe476e477E', symObjAddr: 0x118B8, symBinAddr: 0x1000217AC, symSize: 0xC0 }
  - { offset: 0x2F6BB, size: 0x8, addend: 0x0, symName: '__ZN5alloc7raw_vec19RawVec$LT$T$C$A$GT$8grow_one17h4fe34a41a9b5eb13E', symObjAddr: 0x11978, symBinAddr: 0x10002186C, symSize: 0xC0 }
  - { offset: 0x2F811, size: 0x8, addend: 0x0, symName: '__ZN5alloc7raw_vec19RawVec$LT$T$C$A$GT$8grow_one17h51ebdaf7922ccb0fE', symObjAddr: 0x11A38, symBinAddr: 0x10002192C, symSize: 0xD0 }
  - { offset: 0x2F967, size: 0x8, addend: 0x0, symName: '__ZN5alloc7raw_vec19RawVec$LT$T$C$A$GT$8grow_one17h5fa1addd75b9c473E', symObjAddr: 0x11B08, symBinAddr: 0x1000219FC, symSize: 0xC0 }
  - { offset: 0x2FABD, size: 0x8, addend: 0x0, symName: '__ZN5alloc7raw_vec19RawVec$LT$T$C$A$GT$8grow_one17h86dfd012ac0923eeE', symObjAddr: 0x11BC8, symBinAddr: 0x100021ABC, symSize: 0xCC }
  - { offset: 0x2FC13, size: 0x8, addend: 0x0, symName: '__ZN5alloc7raw_vec19RawVec$LT$T$C$A$GT$8grow_one17h94e52b7d38af74feE', symObjAddr: 0x11C94, symBinAddr: 0x100021B88, symSize: 0xCC }
  - { offset: 0x2FD69, size: 0x8, addend: 0x0, symName: '__ZN5alloc7raw_vec19RawVec$LT$T$C$A$GT$8grow_one17hbaffb1ea2421dae5E', symObjAddr: 0x11D60, symBinAddr: 0x100021C54, symSize: 0xCC }
  - { offset: 0x30611, size: 0x8, addend: 0x0, symName: __ZN5alloc7raw_vec11finish_grow17hd37f20dcfa74548bE, symObjAddr: 0x11430, symBinAddr: 0x10004E2A4, symSize: 0x88 }
  - { offset: 0x306AC, size: 0x8, addend: 0x0, symName: '__ZN5alloc7raw_vec20RawVecInner$LT$A$GT$7reserve21do_reserve_and_handle17h59c9ec03f2a10329E', symObjAddr: 0x11E2C, symBinAddr: 0x10004E32C, symSize: 0xF0 }
  - { offset: 0x31CF6, size: 0x8, addend: 0x0, symName: '__ZN5alloc4sync16Arc$LT$T$C$A$GT$9drop_slow17h382cff577ce4ab40E', symObjAddr: 0x10FD0, symBinAddr: 0x100021090, symSize: 0x100 }
  - { offset: 0x32026, size: 0x8, addend: 0x0, symName: '__ZN5alloc4sync16Arc$LT$T$C$A$GT$9drop_slow17h5608352b196d8cb3E', symObjAddr: 0x110D0, symBinAddr: 0x100021190, symSize: 0xA0 }
  - { offset: 0x3234A, size: 0x8, addend: 0x0, symName: '__ZN5alloc4sync16Arc$LT$T$C$A$GT$9drop_slow17h5ede859a095ca78aE', symObjAddr: 0x111E4, symBinAddr: 0x100021230, symSize: 0x78 }
  - { offset: 0x32516, size: 0x8, addend: 0x0, symName: '__ZN5alloc4sync16Arc$LT$T$C$A$GT$9drop_slow17h7cf1d5f987884bcfE', symObjAddr: 0x1125C, symBinAddr: 0x1000212A8, symSize: 0xC0 }
  - { offset: 0x3283B, size: 0x8, addend: 0x0, symName: '__ZN5alloc4sync16Arc$LT$T$C$A$GT$9drop_slow17h90e2e762cfbfaa1eE', symObjAddr: 0x1131C, symBinAddr: 0x100021368, symSize: 0x44 }
  - { offset: 0x32918, size: 0x8, addend: 0x0, symName: '__ZN5alloc4sync16Arc$LT$T$C$A$GT$9drop_slow17h9659d3e2cd59fce8E', symObjAddr: 0x11360, symBinAddr: 0x1000213AC, symSize: 0xD0 }
  - { offset: 0x32E8E, size: 0x8, addend: 0x0, symName: '__ZN64_$LT$alloc..ffi..c_str..NulError$u20$as$u20$core..fmt..Debug$GT$3fmt17h18ce3d950e35fa91E', symObjAddr: 0x18D64, symBinAddr: 0x100028B68, symSize: 0x4C }
  - { offset: 0x3334B, size: 0x8, addend: 0x0, symName: '__ZN58_$LT$alloc..string..String$u20$as$u20$core..fmt..Debug$GT$3fmt17hdbacb71d50eff926E', symObjAddr: 0xD6B8, symBinAddr: 0x10001ECD4, symSize: 0x1C }
  - { offset: 0x33406, size: 0x8, addend: 0x0, symName: '__ZN58_$LT$alloc..string..String$u20$as$u20$core..fmt..Write$GT$10write_char17h67c485e816708459E', symObjAddr: 0xD6D4, symBinAddr: 0x10001ECF0, symSize: 0x158 }
  - { offset: 0x3366B, size: 0x8, addend: 0x0, symName: '__ZN58_$LT$alloc..string..String$u20$as$u20$core..fmt..Write$GT$9write_str17h4bc2793cacc1d696E', symObjAddr: 0xD82C, symBinAddr: 0x10001EE48, symSize: 0x80 }
  - { offset: 0x337C4, size: 0x8, addend: 0x0, symName: '__ZN60_$LT$alloc..string..String$u20$as$u20$core..fmt..Display$GT$3fmt17ha0099383a97e68c2E', symObjAddr: 0x18D48, symBinAddr: 0x100028B4C, symSize: 0x1C }
  - { offset: 0x34FD3, size: 0x8, addend: 0x0, symName: '__ZN4core3ptr107drop_in_place$LT$alloc..vec..Vec$LT$$LP$std..ffi..os_str..OsString$C$std..ffi..os_str..OsString$RP$$GT$$GT$17h6612d33457a8ea03E', symObjAddr: 0x1AE4, symBinAddr: 0x100014074, symSize: 0x94 }
  - { offset: 0x3525A, size: 0x8, addend: 0x0, symName: '__ZN4core3ptr107drop_in_place$LT$core..option..Option$LT$std..sys..pal..unix..process..process_common..CStringArray$GT$$GT$17hf3f42dd5b05d3cc1E', symObjAddr: 0x1C04, symBinAddr: 0x100014108, symSize: 0xAC }
  - { offset: 0x3546B, size: 0x8, addend: 0x0, symName: '__ZN4core3ptr107drop_in_place$LT$core..pin..Pin$LT$alloc..boxed..Box$LT$std..sys..pal..unix..sync..mutex..Mutex$GT$$GT$$GT$17hc07c140671e79445E', symObjAddr: 0x1CB0, symBinAddr: 0x1000141B4, symSize: 0x2C }
  - { offset: 0x35564, size: 0x8, addend: 0x0, symName: '__ZN4core3ptr108drop_in_place$LT$alloc..collections..btree..map..BTreeMap$LT$u64$C$gimli..read..abbrev..Abbreviation$GT$$GT$17haa74a0211d9ed923E', symObjAddr: 0x1CDC, symBinAddr: 0x1000141E0, symSize: 0xB0 }
  - { offset: 0x35737, size: 0x8, addend: 0x0, symName: '__ZN4core3ptr109drop_in_place$LT$alloc..sync..Arc$LT$std..sync..poison..mutex..Mutex$LT$alloc..vec..Vec$LT$u8$GT$$GT$$GT$$GT$17h61b1cac8a1fede90E', symObjAddr: 0x1D8C, symBinAddr: 0x100014290, symSize: 0x30 }
  - { offset: 0x357DA, size: 0x8, addend: 0x0, symName: '__ZN4core3ptr118drop_in_place$LT$std..io..Write..write_fmt..Adapter$LT$std..io..cursor..Cursor$LT$$RF$mut$u20$$u5b$u8$u5d$$GT$$GT$$GT$17h5c63d0c0bee45058E', symObjAddr: 0x1E54, symBinAddr: 0x1000142C0, symSize: 0x20 }
  - { offset: 0x35812, size: 0x8, addend: 0x0, symName: '__ZN4core3ptr123drop_in_place$LT$addr2line..Context$LT$gimli..read..endian_slice..EndianSlice$LT$gimli..endianity..LittleEndian$GT$$GT$$GT$17hc6d5be859abd218dE', symObjAddr: 0x1E74, symBinAddr: 0x1000142E0, symSize: 0x70 }
  - { offset: 0x358E7, size: 0x8, addend: 0x0, symName: '__ZN4core3ptr124drop_in_place$LT$alloc..collections..btree..map..BTreeMap$LT$std..ffi..os_str..OsString$C$std..ffi..os_str..OsString$GT$$GT$17hc9840ba1a16bc149E', symObjAddr: 0x1EE4, symBinAddr: 0x100014350, symSize: 0xB8 }
  - { offset: 0x35B1A, size: 0x8, addend: 0x0, symName: '__ZN4core3ptr124drop_in_place$LT$alloc..collections..btree..map..IntoIter$LT$std..ffi..os_str..OsString$C$std..ffi..os_str..OsString$GT$$GT$17h1e45a95309140dfeE', symObjAddr: 0x1F9C, symBinAddr: 0x100014408, symSize: 0x90 }
  - { offset: 0x35DA1, size: 0x8, addend: 0x0, symName: '__ZN4core3ptr129drop_in_place$LT$addr2line..unit..ResUnit$LT$gimli..read..endian_slice..EndianSlice$LT$gimli..endianity..LittleEndian$GT$$GT$$GT$17h3200663a94d9b140E', symObjAddr: 0x202C, symBinAddr: 0x100014498, symSize: 0xE4 }
  - { offset: 0x35FC3, size: 0x8, addend: 0x0, symName: '__ZN4core3ptr129drop_in_place$LT$addr2line..unit..SupUnit$LT$gimli..read..endian_slice..EndianSlice$LT$gimli..endianity..LittleEndian$GT$$GT$$GT$17hea048140b03f01afE', symObjAddr: 0x2110, symBinAddr: 0x10001457C, symSize: 0x54 }
  - { offset: 0x3609E, size: 0x8, addend: 0x0, symName: '__ZN4core3ptr130drop_in_place$LT$addr2line..unit..ResUnits$LT$gimli..read..endian_slice..EndianSlice$LT$gimli..endianity..LittleEndian$GT$$GT$$GT$17he56c193886414dbaE', symObjAddr: 0x2164, symBinAddr: 0x1000145D0, symSize: 0xD0 }
  - { offset: 0x36247, size: 0x8, addend: 0x0, symName: '__ZN4core3ptr130drop_in_place$LT$addr2line..unit..SupUnits$LT$gimli..read..endian_slice..EndianSlice$LT$gimli..endianity..LittleEndian$GT$$GT$$GT$17h74d4d2bc946c0774E', symObjAddr: 0x2234, symBinAddr: 0x1000146A0, symSize: 0xE4 }
  - { offset: 0x36405, size: 0x8, addend: 0x0, symName: '__ZN4core3ptr130drop_in_place$LT$gimli..read..dwarf..Dwarf$LT$gimli..read..endian_slice..EndianSlice$LT$gimli..endianity..LittleEndian$GT$$GT$$GT$17h733659cc5e33a4cbE', symObjAddr: 0x2318, symBinAddr: 0x100014784, symSize: 0x58 }
  - { offset: 0x364D3, size: 0x8, addend: 0x0, symName: '__ZN4core3ptr131drop_in_place$LT$$u5b$core..option..Option$LT$core..option..Option$LT$std..backtrace_rs..symbolize..gimli..Mapping$GT$$GT$$u5d$$GT$17h1b55ae3732cae68aE', symObjAddr: 0x2370, symBinAddr: 0x1000147DC, symSize: 0xCC }
  - { offset: 0x3657D, size: 0x8, addend: 0x0, symName: '__ZN4core3ptr137drop_in_place$LT$gimli..read..dwarf..Unit$LT$gimli..read..endian_slice..EndianSlice$LT$gimli..endianity..LittleEndian$GT$$C$usize$GT$$GT$17h90351d6bab11b82cE', symObjAddr: 0x2500, symBinAddr: 0x1000148A8, symSize: 0x54 }
  - { offset: 0x3667A, size: 0x8, addend: 0x0, symName: '__ZN4core3ptr138drop_in_place$LT$addr2line..function..LazyFunction$LT$gimli..read..endian_slice..EndianSlice$LT$gimli..endianity..LittleEndian$GT$$GT$$GT$17h0f9458c797bd90e9E', symObjAddr: 0x2554, symBinAddr: 0x1000148FC, symSize: 0x64 }
  - { offset: 0x36691, size: 0x8, addend: 0x0, symName: '__ZN4core3ptr138drop_in_place$LT$addr2line..function..LazyFunction$LT$gimli..read..endian_slice..EndianSlice$LT$gimli..endianity..LittleEndian$GT$$GT$$GT$17h0f9458c797bd90e9E', symObjAddr: 0x2554, symBinAddr: 0x1000148FC, symSize: 0x64 }
  - { offset: 0x366A6, size: 0x8, addend: 0x0, symName: '__ZN4core3ptr138drop_in_place$LT$addr2line..function..LazyFunction$LT$gimli..read..endian_slice..EndianSlice$LT$gimli..endianity..LittleEndian$GT$$GT$$GT$17h0f9458c797bd90e9E', symObjAddr: 0x2554, symBinAddr: 0x1000148FC, symSize: 0x64 }
  - { offset: 0x366BB, size: 0x8, addend: 0x0, symName: '__ZN4core3ptr138drop_in_place$LT$addr2line..function..LazyFunction$LT$gimli..read..endian_slice..EndianSlice$LT$gimli..endianity..LittleEndian$GT$$GT$$GT$17h0f9458c797bd90e9E', symObjAddr: 0x2554, symBinAddr: 0x1000148FC, symSize: 0x64 }
  - { offset: 0x367FD, size: 0x8, addend: 0x0, symName: '__ZN4core3ptr144drop_in_place$LT$alloc..vec..Vec$LT$core..option..Option$LT$core..option..Option$LT$std..backtrace_rs..symbolize..gimli..Mapping$GT$$GT$$GT$$GT$17hd5b41028903956eeE', symObjAddr: 0x25B8, symBinAddr: 0x100014960, symSize: 0x78 }
  - { offset: 0x36965, size: 0x8, addend: 0x0, symName: '__ZN4core3ptr152drop_in_place$LT$alloc..vec..Vec$LT$addr2line..unit..ResUnit$LT$gimli..read..endian_slice..EndianSlice$LT$gimli..endianity..LittleEndian$GT$$GT$$GT$$GT$17hdd35552c1680b2ebE', symObjAddr: 0x26FC, symBinAddr: 0x1000149D8, symSize: 0xC4 }
  - { offset: 0x36AD4, size: 0x8, addend: 0x0, symName: '__ZN4core3ptr152drop_in_place$LT$alloc..vec..Vec$LT$addr2line..unit..SupUnit$LT$gimli..read..endian_slice..EndianSlice$LT$gimli..endianity..LittleEndian$GT$$GT$$GT$$GT$17h6431a2f92897bef0E', symObjAddr: 0x27C0, symBinAddr: 0x100014A9C, symSize: 0xF4 }
  - { offset: 0x36CEC, size: 0x8, addend: 0x0, symName: '__ZN4core3ptr156drop_in_place$LT$alloc..boxed..Box$LT$$u5b$core..option..Option$LT$core..option..Option$LT$std..backtrace_rs..symbolize..gimli..Mapping$GT$$GT$$u5d$$GT$$GT$17h61627ecd782bd92dE', symObjAddr: 0x28B4, symBinAddr: 0x100014B90, symSize: 0xF8 }
  - { offset: 0x36E16, size: 0x8, addend: 0x0, symName: '__ZN4core3ptr159drop_in_place$LT$alloc..sync..ArcInner$LT$gimli..read..dwarf..Dwarf$LT$gimli..read..endian_slice..EndianSlice$LT$gimli..endianity..LittleEndian$GT$$GT$$GT$$GT$17h71c073e2ea863d36E', symObjAddr: 0x29AC, symBinAddr: 0x100014C88, symSize: 0x58 }
  - { offset: 0x36EF3, size: 0x8, addend: 0x0, symName: '__ZN4core3ptr161drop_in_place$LT$alloc..vec..Vec$LT$addr2line..function..LazyFunction$LT$gimli..read..endian_slice..EndianSlice$LT$gimli..endianity..LittleEndian$GT$$GT$$GT$$GT$17h938f97b5a308fc3cE', symObjAddr: 0x2A04, symBinAddr: 0x100014CE0, symSize: 0xAC }
  - { offset: 0x37130, size: 0x8, addend: 0x0, symName: '__ZN4core3ptr172drop_in_place$LT$core..result..Result$LT$addr2line..Context$LT$gimli..read..endian_slice..EndianSlice$LT$gimli..endianity..LittleEndian$GT$$GT$$C$gimli..read..Error$GT$$GT$17h8205db00afecd676E', symObjAddr: 0x2B5C, symBinAddr: 0x100014D8C, symSize: 0x80 }
  - { offset: 0x371C5, size: 0x8, addend: 0x0, symName: '__ZN4core3ptr173drop_in_place$LT$alloc..boxed..Box$LT$$u5b$addr2line..function..LazyFunction$LT$gimli..read..endian_slice..EndianSlice$LT$gimli..endianity..LittleEndian$GT$$GT$$u5d$$GT$$GT$17h141b901e37828fa3E', symObjAddr: 0x2BDC, symBinAddr: 0x100014E0C, symSize: 0x9C }
  - { offset: 0x371DC, size: 0x8, addend: 0x0, symName: '__ZN4core3ptr173drop_in_place$LT$alloc..boxed..Box$LT$$u5b$addr2line..function..LazyFunction$LT$gimli..read..endian_slice..EndianSlice$LT$gimli..endianity..LittleEndian$GT$$GT$$u5d$$GT$$GT$17h141b901e37828fa3E', symObjAddr: 0x2BDC, symBinAddr: 0x100014E0C, symSize: 0x9C }
  - { offset: 0x37421, size: 0x8, addend: 0x0, symName: '__ZN4core3ptr181drop_in_place$LT$core..option..Option$LT$gimli..read..line..IncompleteLineProgram$LT$gimli..read..endian_slice..EndianSlice$LT$gimli..endianity..LittleEndian$GT$$C$usize$GT$$GT$$GT$17h0ce7bfce5e4abb6bE', symObjAddr: 0x2CE8, symBinAddr: 0x100014EA8, symSize: 0x98 }
  - { offset: 0x376DC, size: 0x8, addend: 0x0, symName: '__ZN4core3ptr181drop_in_place$LT$core..result..Result$LT$addr2line..frame..FrameIter$LT$gimli..read..endian_slice..EndianSlice$LT$gimli..endianity..LittleEndian$GT$$GT$$C$gimli..read..Error$GT$$GT$17hc32763af75cf70e4E', symObjAddr: 0x2D80, symBinAddr: 0x100014F40, symSize: 0x44 }
  - { offset: 0x3781A, size: 0x8, addend: 0x0, symName: '__ZN4core3ptr184drop_in_place$LT$core..result..Result$LT$addr2line..function..Functions$LT$gimli..read..endian_slice..EndianSlice$LT$gimli..endianity..LittleEndian$GT$$GT$$C$gimli..read..Error$GT$$GT$17hae974801a783d12aE', symObjAddr: 0x2DC4, symBinAddr: 0x100014F84, symSize: 0xD8 }
  - { offset: 0x38313, size: 0x8, addend: 0x0, symName: '__ZN4core3ptr223drop_in_place$LT$std..sys..thread_local..native..lazy..State$LT$core..cell..Cell$LT$core..option..Option$LT$alloc..sync..Arc$LT$std..sync..poison..mutex..Mutex$LT$alloc..vec..Vec$LT$u8$GT$$GT$$GT$$GT$$GT$$C$$LP$$RP$$GT$$GT$17h8e1dbbdc8aa6e2b2E', symObjAddr: 0x2F10, symBinAddr: 0x10001505C, symSize: 0x40 }
  - { offset: 0x383FF, size: 0x8, addend: 0x0, symName: '__ZN4core3ptr231drop_in_place$LT$core..result..Result$LT$core..option..Option$LT$alloc..boxed..Box$LT$addr2line..unit..DwoUnit$LT$gimli..read..endian_slice..EndianSlice$LT$gimli..endianity..LittleEndian$GT$$GT$$GT$$GT$$C$gimli..read..Error$GT$$GT$17h48abe14940fae1d7E', symObjAddr: 0x2F50, symBinAddr: 0x10001509C, symSize: 0xD4 }
  - { offset: 0x385E8, size: 0x8, addend: 0x0, symName: '__ZN4core3ptr275drop_in_place$LT$gimli..read..line..LineRows$LT$gimli..read..endian_slice..EndianSlice$LT$gimli..endianity..LittleEndian$GT$$C$gimli..read..line..IncompleteLineProgram$LT$gimli..read..endian_slice..EndianSlice$LT$gimli..endianity..LittleEndian$GT$$C$usize$GT$$C$usize$GT$$GT$17h1fb49ddc3575d792E', symObjAddr: 0x304C, symBinAddr: 0x100015170, symSize: 0x8C }
  - { offset: 0x3885D, size: 0x8, addend: 0x0, symName: '__ZN4core3ptr280drop_in_place$LT$$LT$alloc..collections..btree..map..IntoIter$LT$K$C$V$C$A$GT$$u20$as$u20$core..ops..drop..Drop$GT$..drop..DropGuard$LT$u64$C$core..result..Result$LT$alloc..sync..Arc$LT$gimli..read..abbrev..Abbreviations$GT$$C$gimli..read..Error$GT$$C$alloc..alloc..Global$GT$$GT$17h412edb4cf40f508aE', symObjAddr: 0x30D8, symBinAddr: 0x1000151FC, symSize: 0x84 }
  - { offset: 0x38A00, size: 0x8, addend: 0x0, symName: '__ZN4core3ptr37drop_in_place$LT$std..env..VarsOs$GT$17h8833fb9321bef3f6E', symObjAddr: 0x315C, symBinAddr: 0x100015280, symSize: 0xAC }
  - { offset: 0x38CFF, size: 0x8, addend: 0x0, symName: '__ZN4core3ptr42drop_in_place$LT$alloc..string..String$GT$17h49e49416d7fc736bE', symObjAddr: 0x3330, symBinAddr: 0x10001532C, symSize: 0x28 }
  - { offset: 0x38DDA, size: 0x8, addend: 0x0, symName: '__ZN4core3ptr42drop_in_place$LT$std..io..error..Error$GT$17h2076e24185186a1eE', symObjAddr: 0x3358, symBinAddr: 0x100015354, symSize: 0xAC }
  - { offset: 0x38FF4, size: 0x8, addend: 0x0, symName: '__ZN4core3ptr44drop_in_place$LT$object..read..ObjectMap$GT$17hefa7b8970618855fE', symObjAddr: 0x3404, symBinAddr: 0x100015400, symSize: 0x58 }
  - { offset: 0x39123, size: 0x8, addend: 0x0, symName: '__ZN4core3ptr46drop_in_place$LT$alloc..vec..Vec$LT$u8$GT$$GT$17he05f3434a0e55321E', symObjAddr: 0x350C, symBinAddr: 0x100015458, symSize: 0x28 }
  - { offset: 0x391B0, size: 0x8, addend: 0x0, symName: '__ZN4core3ptr46drop_in_place$LT$std..io..stdio..StdinLock$GT$17h7f23f0068af34be6E', symObjAddr: 0x3534, symBinAddr: 0x100015480, symSize: 0x54 }
  - { offset: 0x391C7, size: 0x8, addend: 0x0, symName: '__ZN4core3ptr46drop_in_place$LT$std..io..stdio..StdinLock$GT$17h7f23f0068af34be6E', symObjAddr: 0x3534, symBinAddr: 0x100015480, symSize: 0x54 }
  - { offset: 0x391DC, size: 0x8, addend: 0x0, symName: '__ZN4core3ptr46drop_in_place$LT$std..io..stdio..StdinLock$GT$17h7f23f0068af34be6E', symObjAddr: 0x3534, symBinAddr: 0x100015480, symSize: 0x54 }
  - { offset: 0x392C0, size: 0x8, addend: 0x0, symName: '__ZN4core3ptr48drop_in_place$LT$alloc..ffi..c_str..NulError$GT$17hf807e8c3d992613aE', symObjAddr: 0x35E0, symBinAddr: 0x1000154D4, symSize: 0x28 }
  - { offset: 0x3937F, size: 0x8, addend: 0x0, symName: '__ZN4core3ptr55drop_in_place$LT$gimli..read..abbrev..Abbreviations$GT$17h5028fd7f23a66a5dE', symObjAddr: 0x38D4, symBinAddr: 0x1000154FC, symSize: 0x84 }
  - { offset: 0x3953A, size: 0x8, addend: 0x0, symName: '__ZN4core3ptr60drop_in_place$LT$gimli..read..abbrev..AbbreviationsCache$GT$17h109635aebb38ad94E', symObjAddr: 0x39E8, symBinAddr: 0x100015580, symSize: 0xCC }
  - { offset: 0x396FC, size: 0x8, addend: 0x0, symName: '__ZN4core3ptr62drop_in_place$LT$std..sys..sync..rwlock..queue..PanicGuard$GT$17ha6ff6fed8f58b75aE', symObjAddr: 0x3AB4, symBinAddr: 0x10001564C, symSize: 0x44 }
  - { offset: 0x39743, size: 0x8, addend: 0x0, symName: '__ZN4core3ptr64drop_in_place$LT$std..sys..pal..unix..sync..mutex..AttrGuard$GT$17hfae1c338ebc17455E', symObjAddr: 0x3AF8, symBinAddr: 0x100015690, symSize: 0x48 }
  - { offset: 0x39782, size: 0x8, addend: 0x0, symName: '__ZN4core3ptr65drop_in_place$LT$alloc..vec..Vec$LT$alloc..string..String$GT$$GT$17h0e8d3320a68b6c20E', symObjAddr: 0x3B40, symBinAddr: 0x1000156D8, symSize: 0x80 }
  - { offset: 0x39920, size: 0x8, addend: 0x0, symName: '__ZN4core3ptr65drop_in_place$LT$std..backtrace_rs..symbolize..gimli..Context$GT$17he1a9681aa2b789c5E', symObjAddr: 0x3BC0, symBinAddr: 0x100015758, symSize: 0xE8 }
  - { offset: 0x39BB2, size: 0x8, addend: 0x0, symName: '__ZN4core3ptr65drop_in_place$LT$std..backtrace_rs..symbolize..gimli..Mapping$GT$17h1ad26fdf3d4d883aE', symObjAddr: 0x3CA8, symBinAddr: 0x100015840, symSize: 0x50 }
  - { offset: 0x39C1D, size: 0x8, addend: 0x0, symName: '__ZN4core3ptr66drop_in_place$LT$std..backtrace_rs..backtrace..libunwind..Bomb$GT$17hcf55bbc6e2408f91E', symObjAddr: 0x3D50, symBinAddr: 0x100015890, symSize: 0x40 }
  - { offset: 0x39C5B, size: 0x8, addend: 0x0, symName: '__ZN4core3ptr70drop_in_place$LT$alloc..vec..Vec$LT$alloc..ffi..c_str..CString$GT$$GT$17hfd0a4040cac87084E', symObjAddr: 0x3D90, symBinAddr: 0x1000158D0, symSize: 0x7C }
  - { offset: 0x39E0E, size: 0x8, addend: 0x0, symName: '__ZN4core3ptr70drop_in_place$LT$std..backtrace_rs..symbolize..gimli..stash..Stash$GT$17h823b9ed5294710a1E', symObjAddr: 0x3E8C, symBinAddr: 0x10001594C, symSize: 0xB8 }
  - { offset: 0x3A0B4, size: 0x8, addend: 0x0, symName: '__ZN4core3ptr71drop_in_place$LT$std..backtrace_rs..symbolize..gimli..macho..Object$GT$17h7d766a5d50e6fcdbE', symObjAddr: 0x3F44, symBinAddr: 0x100015A04, symSize: 0xD8 }
  - { offset: 0x3A387, size: 0x8, addend: 0x0, symName: '__ZN4core3ptr72drop_in_place$LT$core..option..Option$LT$object..read..ObjectMap$GT$$GT$17hc34cda9cf8984625E', symObjAddr: 0x4088, symBinAddr: 0x100015ADC, symSize: 0x64 }
  - { offset: 0x3A504, size: 0x8, addend: 0x0, symName: '__ZN4core3ptr73drop_in_place$LT$alloc..vec..Vec$LT$addr2line..line..LineSequence$GT$$GT$17h0feaef6467c5bb06E', symObjAddr: 0x40EC, symBinAddr: 0x100015B40, symSize: 0x84 }
  - { offset: 0x3A65C, size: 0x8, addend: 0x0, symName: '__ZN4core3ptr77drop_in_place$LT$alloc..boxed..Box$LT$$u5b$alloc..string..String$u5d$$GT$$GT$17h8657c1556d878703E', symObjAddr: 0x41C8, symBinAddr: 0x100015BC4, symSize: 0x70 }
  - { offset: 0x3A673, size: 0x8, addend: 0x0, symName: '__ZN4core3ptr77drop_in_place$LT$alloc..boxed..Box$LT$$u5b$alloc..string..String$u5d$$GT$$GT$17h8657c1556d878703E', symObjAddr: 0x41C8, symBinAddr: 0x100015BC4, symSize: 0x70 }
  - { offset: 0x3A77F, size: 0x8, addend: 0x0, symName: '__ZN4core3ptr77drop_in_place$LT$std..panicking..begin_panic_handler..FormatStringPayload$GT$17h1141e34cc3e1cd8cE', symObjAddr: 0x4238, symBinAddr: 0x100015C34, symSize: 0x34 }
  - { offset: 0x3A849, size: 0x8, addend: 0x0, symName: '__ZN4core3ptr77drop_in_place$LT$std..sys..pal..unix..process..process_common..ChildPipes$GT$17h620614c70ca5ad33E', symObjAddr: 0x426C, symBinAddr: 0x100015C68, symSize: 0x78 }
  - { offset: 0x3A959, size: 0x8, addend: 0x0, symName: '__ZN4core3ptr77drop_in_place$LT$std..sys..pal..unix..process..process_common..StdioPipes$GT$17ha094cdbd3e642bc1E', symObjAddr: 0x42E4, symBinAddr: 0x100015CE0, symSize: 0x54 }
  - { offset: 0x3AAB5, size: 0x8, addend: 0x0, symName: '__ZN4core3ptr78drop_in_place$LT$core..result..Result$LT$usize$C$std..io..error..Error$GT$$GT$17h31f04dfac34de6cfE', symObjAddr: 0x4338, symBinAddr: 0x100015D34, symSize: 0x24 }
  - { offset: 0x3AAC9, size: 0x8, addend: 0x0, symName: '__ZN4core3ptr79drop_in_place$LT$std..sync..poison..rwlock..RwLockReadGuard$LT$$LP$$RP$$GT$$GT$17h3c7acdfaefb6864dE', symObjAddr: 0x435C, symBinAddr: 0x100015D58, symSize: 0x68 }
  - { offset: 0x3AB65, size: 0x8, addend: 0x0, symName: '__ZN4core3ptr79drop_in_place$LT$std..sys..pal..unix..process..process_common..CStringArray$GT$17h6aeb88f15641d3f5E', symObjAddr: 0x43C4, symBinAddr: 0x100015DC0, symSize: 0x94 }
  - { offset: 0x3AD44, size: 0x8, addend: 0x0, symName: '__ZN4core3ptr81drop_in_place$LT$$LP$usize$C$std..backtrace_rs..symbolize..gimli..Mapping$RP$$GT$17h0fc60d1e178e2af3E', symObjAddr: 0x4458, symBinAddr: 0x100015E54, symSize: 0x54 }
  - { offset: 0x3ADC5, size: 0x8, addend: 0x0, symName: '__ZN4core3ptr81drop_in_place$LT$core..result..Result$LT$$LP$$RP$$C$std..io..error..Error$GT$$GT$17h32d66e7d6b4290f9E', symObjAddr: 0x44AC, symBinAddr: 0x100015EA8, symSize: 0x20 }
  - { offset: 0x3ADD9, size: 0x8, addend: 0x0, symName: '__ZN4core3ptr84drop_in_place$LT$$LP$std..ffi..os_str..OsString$C$std..ffi..os_str..OsString$RP$$GT$17hce73656bd67f13b5E', symObjAddr: 0x4510, symBinAddr: 0x100015EC8, symSize: 0x4C }
  - { offset: 0x3AF34, size: 0x8, addend: 0x0, symName: '__ZN4core3ptr84drop_in_place$LT$alloc..sync..ArcInner$LT$gimli..read..abbrev..Abbreviations$GT$$GT$17hc1742a6ee5f4f5c4E', symObjAddr: 0x455C, symBinAddr: 0x100015F14, symSize: 0x84 }
  - { offset: 0x3B0FE, size: 0x8, addend: 0x0, symName: '__ZN4core3ptr87drop_in_place$LT$alloc..sync..ArcInner$LT$std..sys..pal..unix..fs..InnerReadDir$GT$$GT$17h22f7f5fc9c3aa8bdE', symObjAddr: 0x45E0, symBinAddr: 0x100015F98, symSize: 0x60 }
  - { offset: 0x3B2E7, size: 0x8, addend: 0x0, symName: '__ZN4core3ptr88drop_in_place$LT$alloc..vec..Vec$LT$std..backtrace_rs..symbolize..gimli..Library$GT$$GT$17heda6be67225cff8cE', symObjAddr: 0x4674, symBinAddr: 0x100015FF8, symSize: 0x98 }
  - { offset: 0x3B4FD, size: 0x8, addend: 0x0, symName: '__ZN4core3ptr90drop_in_place$LT$std..io..buffered..bufwriter..BufWriter$LT$W$GT$..flush_buf..BufGuard$GT$17h18eab3e558793eacE', symObjAddr: 0x470C, symBinAddr: 0x100016090, symSize: 0x60 }
  - { offset: 0x3B6BE, size: 0x8, addend: 0x0, symName: '__ZN4core3ptr92drop_in_place$LT$core..result..Result$LT$addr2line..line..Lines$C$gimli..read..Error$GT$$GT$17h75873180c89d56d0E', symObjAddr: 0x47E8, symBinAddr: 0x1000160F0, symSize: 0xE4 }
  - { offset: 0x3B904, size: 0x8, addend: 0x0, symName: '__ZN4core3ptr93drop_in_place$LT$core..option..Option$LT$std..backtrace_rs..symbolize..gimli..Mapping$GT$$GT$17h8ea9f8655928f4fcE', symObjAddr: 0x48CC, symBinAddr: 0x1000161D4, symSize: 0x6C }
  - { offset: 0x3B9A1, size: 0x8, addend: 0x0, symName: '__ZN4core3ptr95drop_in_place$LT$core..option..IntoIter$LT$std..backtrace_rs..symbolize..gimli..Library$GT$$GT$17he46fad7f279ea952E', symObjAddr: 0x4938, symBinAddr: 0x100016240, symSize: 0x5C }
  - { offset: 0x3B9BF, size: 0x8, addend: 0x0, symName: '__ZN4core3ptr95drop_in_place$LT$core..option..IntoIter$LT$std..backtrace_rs..symbolize..gimli..Library$GT$$GT$17he46fad7f279ea952E', symObjAddr: 0x4938, symBinAddr: 0x100016240, symSize: 0x5C }
  - { offset: 0x3B9D4, size: 0x8, addend: 0x0, symName: '__ZN4core3ptr95drop_in_place$LT$core..option..IntoIter$LT$std..backtrace_rs..symbolize..gimli..Library$GT$$GT$17he46fad7f279ea952E', symObjAddr: 0x4938, symBinAddr: 0x100016240, symSize: 0x5C }
  - { offset: 0x3BB3D, size: 0x8, addend: 0x0, symName: '__ZN4core3ptr95drop_in_place$LT$std..io..buffered..linewriter..LineWriter$LT$std..io..stdio..StdoutRaw$GT$$GT$17h3bd57fa990556d59E', symObjAddr: 0x4994, symBinAddr: 0x10001629C, symSize: 0xF0 }
  - { offset: 0x3E669, size: 0x8, addend: 0x0, symName: __ZN4core5slice4sort6shared5pivot11median3_rec17h025645fbfb2d8cd1E, symObjAddr: 0x4D90, symBinAddr: 0x10001649C, symSize: 0x134 }
  - { offset: 0x3E890, size: 0x8, addend: 0x0, symName: __ZN4core5slice4sort6shared5pivot11median3_rec17h246a4f2d911688a1E, symObjAddr: 0x4EC4, symBinAddr: 0x1000165D0, symSize: 0xD0 }
  - { offset: 0x3E98B, size: 0x8, addend: 0x0, symName: __ZN4core5slice4sort6shared5pivot11median3_rec17h6ce4cdb71517d19eE, symObjAddr: 0x4F94, symBinAddr: 0x1000166A0, symSize: 0xCC }
  - { offset: 0x3EA86, size: 0x8, addend: 0x0, symName: __ZN4core5slice4sort6shared5pivot11median3_rec17h6e4fd85017a3f5e4E, symObjAddr: 0x5060, symBinAddr: 0x10001676C, symSize: 0xD0 }
  - { offset: 0x3EB81, size: 0x8, addend: 0x0, symName: __ZN4core5slice4sort6shared5pivot11median3_rec17ha3c898ebd570d9a9E, symObjAddr: 0x5130, symBinAddr: 0x10001683C, symSize: 0xCC }
  - { offset: 0x3ECD2, size: 0x8, addend: 0x0, symName: __ZN4core5slice4sort6shared5pivot11median3_rec17hbe3f226301cd071dE, symObjAddr: 0x51FC, symBinAddr: 0x100016908, symSize: 0xCC }
  - { offset: 0x3EDCD, size: 0x8, addend: 0x0, symName: __ZN4core5slice4sort6shared5pivot11median3_rec17hc3d7c76f255c304aE, symObjAddr: 0x52C8, symBinAddr: 0x1000169D4, symSize: 0xD0 }
  - { offset: 0x3EEC8, size: 0x8, addend: 0x0, symName: __ZN4core5slice4sort6shared5pivot11median3_rec17heb13e39171436e07E, symObjAddr: 0x5398, symBinAddr: 0x100016AA4, symSize: 0x11C }
  - { offset: 0x3F09E, size: 0x8, addend: 0x0, symName: __ZN4core5slice4sort6shared9smallsort12sort4_stable17h29d5ecfff8d25808E, symObjAddr: 0x54B4, symBinAddr: 0x100016BC0, symSize: 0x1B4 }
  - { offset: 0x3F249, size: 0x8, addend: 0x0, symName: __ZN4core5slice4sort6shared9smallsort12sort4_stable17he2b82e95c0946cc4E, symObjAddr: 0x5668, symBinAddr: 0x100016D74, symSize: 0x180 }
  - { offset: 0x3F66B, size: 0x8, addend: 0x0, symName: __ZN4core5slice4sort6shared9smallsort12sort8_stable17h40f301b851efa79fE, symObjAddr: 0x57E8, symBinAddr: 0x100016EF4, symSize: 0x2B8 }
  - { offset: 0x3FC04, size: 0x8, addend: 0x0, symName: __ZN4core5slice4sort6shared9smallsort18small_sort_general17h8f0f2bfe6ac37bfbE, symObjAddr: 0x5AA0, symBinAddr: 0x1000171AC, symSize: 0x490 }
  - { offset: 0x40319, size: 0x8, addend: 0x0, symName: __ZN4core5slice4sort6shared9smallsort18small_sort_general17h9886ba35fa9ddf7bE, symObjAddr: 0x5F30, symBinAddr: 0x10001763C, symSize: 0x3E0 }
  - { offset: 0x40833, size: 0x8, addend: 0x0, symName: __ZN4core5slice4sort6shared9smallsort25insertion_sort_shift_left17h001473db42a80264E, symObjAddr: 0x6310, symBinAddr: 0x100017A1C, symSize: 0xB0 }
  - { offset: 0x408D6, size: 0x8, addend: 0x0, symName: __ZN4core5slice4sort6shared9smallsort25insertion_sort_shift_left17h1e1ea2c4d7503f74E, symObjAddr: 0x63C0, symBinAddr: 0x100017ACC, symSize: 0xCC }
  - { offset: 0x409D7, size: 0x8, addend: 0x0, symName: __ZN4core5slice4sort6shared9smallsort25insertion_sort_shift_left17h4c238536f310567cE, symObjAddr: 0x648C, symBinAddr: 0x100017B98, symSize: 0xFC }
  - { offset: 0x40B6E, size: 0x8, addend: 0x0, symName: __ZN4core5slice4sort6shared9smallsort25insertion_sort_shift_left17h5ae8ea909444dc00E, symObjAddr: 0x6588, symBinAddr: 0x100017C94, symSize: 0xAC }
  - { offset: 0x40C11, size: 0x8, addend: 0x0, symName: __ZN4core5slice4sort6shared9smallsort25insertion_sort_shift_left17h677848d84e66ea2aE, symObjAddr: 0x6634, symBinAddr: 0x100017D40, symSize: 0xA8 }
  - { offset: 0x40CB4, size: 0x8, addend: 0x0, symName: __ZN4core5slice4sort6shared9smallsort25insertion_sort_shift_left17h753c2c33d7211ceaE, symObjAddr: 0x66DC, symBinAddr: 0x100017DE8, symSize: 0xBC }
  - { offset: 0x40D57, size: 0x8, addend: 0x0, symName: __ZN4core5slice4sort6shared9smallsort25insertion_sort_shift_left17hceef73df05978c22E, symObjAddr: 0x6798, symBinAddr: 0x100017EA4, symSize: 0x90 }
  - { offset: 0x40DFA, size: 0x8, addend: 0x0, symName: __ZN4core5slice4sort6shared9smallsort25insertion_sort_shift_left17hfb494d5f79707c02E, symObjAddr: 0x6828, symBinAddr: 0x100017F34, symSize: 0xAC }
  - { offset: 0x410EA, size: 0x8, addend: 0x0, symName: __ZN4core5slice4sort6stable14driftsort_main17h103ff636fd5ab89dE, symObjAddr: 0x68D4, symBinAddr: 0x100017FE0, symSize: 0x148 }
  - { offset: 0x4138D, size: 0x8, addend: 0x0, symName: __ZN4core5slice4sort6stable14driftsort_main17h1e88dc2727ad5c37E, symObjAddr: 0x6A1C, symBinAddr: 0x100018128, symSize: 0x16C }
  - { offset: 0x41686, size: 0x8, addend: 0x0, symName: __ZN4core5slice4sort6stable14driftsort_main17h54d923433181cd8aE, symObjAddr: 0x6B88, symBinAddr: 0x100018294, symSize: 0x16C }
  - { offset: 0x4197F, size: 0x8, addend: 0x0, symName: __ZN4core5slice4sort6stable14driftsort_main17h76405073938de01eE, symObjAddr: 0x6CF4, symBinAddr: 0x100018400, symSize: 0x148 }
  - { offset: 0x41C22, size: 0x8, addend: 0x0, symName: __ZN4core5slice4sort6stable14driftsort_main17h9cb82a8482cd4f53E, symObjAddr: 0x6E3C, symBinAddr: 0x100018548, symSize: 0x148 }
  - { offset: 0x41EC5, size: 0x8, addend: 0x0, symName: __ZN4core5slice4sort6stable14driftsort_main17hf9ea8a01734384bdE, symObjAddr: 0x6F84, symBinAddr: 0x100018690, symSize: 0x148 }
  - { offset: 0x422D7, size: 0x8, addend: 0x0, symName: __ZN4core5slice4sort6stable5drift4sort17h00ab1c6180ac4055E, symObjAddr: 0x70CC, symBinAddr: 0x1000187D8, symSize: 0x4E0 }
  - { offset: 0x4290C, size: 0x8, addend: 0x0, symName: __ZN4core5slice4sort6stable5drift4sort17h0aa4aacce1cc6d7cE, symObjAddr: 0x75AC, symBinAddr: 0x100018CB8, symSize: 0x5E8 }
  - { offset: 0x42F94, size: 0x8, addend: 0x0, symName: __ZN4core5slice4sort6stable5drift4sort17h343dbae25f37733bE, symObjAddr: 0x7B94, symBinAddr: 0x1000192A0, symSize: 0x538 }
  - { offset: 0x43667, size: 0x8, addend: 0x0, symName: __ZN4core5slice4sort6stable5drift4sort17h4258b1bc2caa3ec0E, symObjAddr: 0x80CC, symBinAddr: 0x1000197D8, symSize: 0x6F0 }
  - { offset: 0x43D3D, size: 0x8, addend: 0x0, symName: __ZN4core5slice4sort6stable5drift4sort17h9cf8228521243839E, symObjAddr: 0x87BC, symBinAddr: 0x100019EC8, symSize: 0x5E8 }
  - { offset: 0x443C5, size: 0x8, addend: 0x0, symName: __ZN4core5slice4sort6stable5drift4sort17he5c0348fca8b4ee7E, symObjAddr: 0x8DA4, symBinAddr: 0x10001A4B0, symSize: 0x63C }
  - { offset: 0x44C3D, size: 0x8, addend: 0x0, symName: __ZN4core5slice4sort6stable9quicksort9quicksort17h115e1a8136b6fa84E, symObjAddr: 0x93E0, symBinAddr: 0x10001AAEC, symSize: 0x820 }
  - { offset: 0x4580A, size: 0x8, addend: 0x0, symName: __ZN4core5slice4sort6stable9quicksort9quicksort17h270cbea95e7bc0c9E, symObjAddr: 0x9C00, symBinAddr: 0x10001B30C, symSize: 0x73C }
  - { offset: 0x45F2B, size: 0x8, addend: 0x0, symName: __ZN4core5slice4sort6stable9quicksort9quicksort17h3e7b305b5c7976baE, symObjAddr: 0xA33C, symBinAddr: 0x10001BA48, symSize: 0x6C8 }
  - { offset: 0x469B8, size: 0x8, addend: 0x0, symName: __ZN4core5slice4sort6stable9quicksort9quicksort17hc1d95435bd0f54c5E, symObjAddr: 0xAA04, symBinAddr: 0x10001C110, symSize: 0x828 }
  - { offset: 0x47A79, size: 0x8, addend: 0x0, symName: __ZN4core5slice4sort6stable9quicksort9quicksort17hcf4fb219382f768bE, symObjAddr: 0xB22C, symBinAddr: 0x10001C938, symSize: 0x7FC }
  - { offset: 0x48646, size: 0x8, addend: 0x0, symName: __ZN4core5slice4sort6stable9quicksort9quicksort17hfd59b4f11a472dd5E, symObjAddr: 0xBA28, symBinAddr: 0x10001D134, symSize: 0x6D0 }
  - { offset: 0x4910E, size: 0x8, addend: 0x0, symName: __ZN4core5slice4sort8unstable7ipnsort17h519db9bb88c7d2c0E, symObjAddr: 0xC0F8, symBinAddr: 0x10001D804, symSize: 0x1E4 }
  - { offset: 0x49225, size: 0x8, addend: 0x0, symName: __ZN4core5slice4sort8unstable7ipnsort17hc49a474c49f61d9aE, symObjAddr: 0xC2DC, symBinAddr: 0x10001D9E8, symSize: 0x290 }
  - { offset: 0x494CE, size: 0x8, addend: 0x0, symName: __ZN4core5slice4sort8unstable8heapsort8heapsort17h6b7b52018c9f5da0E, symObjAddr: 0xC56C, symBinAddr: 0x10001DC78, symSize: 0x10C }
  - { offset: 0x496D5, size: 0x8, addend: 0x0, symName: __ZN4core5slice4sort8unstable8heapsort8heapsort17h719a9553e129d672E, symObjAddr: 0xC678, symBinAddr: 0x10001DD84, symSize: 0x160 }
  - { offset: 0x49A73, size: 0x8, addend: 0x0, symName: __ZN4core5slice4sort8unstable9quicksort9quicksort17h96e7db41672c501eE, symObjAddr: 0xC7D8, symBinAddr: 0x10001DEE4, symSize: 0x448 }
  - { offset: 0x4A329, size: 0x8, addend: 0x0, symName: __ZN4core5slice4sort8unstable9quicksort9quicksort17ha039472c97b018d8E, symObjAddr: 0xCC20, symBinAddr: 0x10001E32C, symSize: 0x5BC }
  - { offset: 0x4B05B, size: 0x8, addend: 0x0, symName: '__ZN36_$LT$T$u20$as$u20$core..any..Any$GT$7type_id17h225d92188c8db6c3E', symObjAddr: 0x13C, symBinAddr: 0x1000134D4, symSize: 0x30 }
  - { offset: 0x4B075, size: 0x8, addend: 0x0, symName: '__ZN36_$LT$T$u20$as$u20$core..any..Any$GT$7type_id17h22a55d7ebb819ea6E', symObjAddr: 0x16C, symBinAddr: 0x100013504, symSize: 0x30 }
  - { offset: 0x4B0E3, size: 0x8, addend: 0x0, symName: '__ZN42_$LT$$RF$T$u20$as$u20$core..fmt..Debug$GT$3fmt17h229631da8bdd67acE', symObjAddr: 0x464, symBinAddr: 0x100013534, symSize: 0x1C }
  - { offset: 0x4B0F7, size: 0x8, addend: 0x0, symName: '__ZN42_$LT$$RF$T$u20$as$u20$core..fmt..Debug$GT$3fmt17h45300256e973f494E', symObjAddr: 0x4F8, symBinAddr: 0x100013550, symSize: 0x30 }
  - { offset: 0x4B13D, size: 0x8, addend: 0x0, symName: '__ZN42_$LT$$RF$T$u20$as$u20$core..fmt..Debug$GT$3fmt17h6cf282856d53ef8fE', symObjAddr: 0x66C, symBinAddr: 0x100013580, symSize: 0x74 }
  - { offset: 0x4B27F, size: 0x8, addend: 0x0, symName: '__ZN42_$LT$$RF$T$u20$as$u20$core..fmt..Debug$GT$3fmt17h832369a0cde054d2E', symObjAddr: 0x77C, symBinAddr: 0x1000135F4, symSize: 0x30 }
  - { offset: 0x4B2D3, size: 0x8, addend: 0x0, symName: '__ZN42_$LT$$RF$T$u20$as$u20$core..fmt..Debug$GT$3fmt17h8bbb2abac655b284E', symObjAddr: 0x7AC, symBinAddr: 0x100013624, symSize: 0x9C }
  - { offset: 0x4B37D, size: 0x8, addend: 0x0, symName: '__ZN42_$LT$$RF$T$u20$as$u20$core..fmt..Debug$GT$3fmt17h99ba184c1a5db1eaE', symObjAddr: 0x91C, symBinAddr: 0x1000136C0, symSize: 0x1C }
  - { offset: 0x4B3BC, size: 0x8, addend: 0x0, symName: '__ZN42_$LT$$RF$T$u20$as$u20$core..fmt..Debug$GT$3fmt17h9e2071203f91d82eE', symObjAddr: 0x938, symBinAddr: 0x1000136DC, symSize: 0x74 }
  - { offset: 0x4B47B, size: 0x8, addend: 0x0, symName: '__ZN42_$LT$$RF$T$u20$as$u20$core..fmt..Debug$GT$3fmt17hc3e2ad6268e8985cE', symObjAddr: 0xB50, symBinAddr: 0x100013750, symSize: 0x20 }
  - { offset: 0x4B531, size: 0x8, addend: 0x0, symName: '__ZN4core3fmt3num50_$LT$impl$u20$core..fmt..Debug$u20$for$u20$i32$GT$3fmt17h15c50277390862aeE', symObjAddr: 0xCF0, symBinAddr: 0x1000137F4, symSize: 0x2C }
  - { offset: 0x4B560, size: 0x8, addend: 0x0, symName: '__ZN4core3fmt3num52_$LT$impl$u20$core..fmt..Debug$u20$for$u20$usize$GT$3fmt17h6def11b803266407E', symObjAddr: 0xDA0, symBinAddr: 0x100013820, symSize: 0x2C }
  - { offset: 0x4B5DF, size: 0x8, addend: 0x0, symName: '__ZN44_$LT$$RF$T$u20$as$u20$core..fmt..Display$GT$3fmt17h3bfca5eae23b0d69E', symObjAddr: 0xC20, symBinAddr: 0x100013770, symSize: 0x1C }
  - { offset: 0x4B5FA, size: 0x8, addend: 0x0, symName: '__ZN44_$LT$$RF$T$u20$as$u20$core..fmt..Display$GT$3fmt17ha43e2829162aef39E', symObjAddr: 0xC3C, symBinAddr: 0x10001378C, symSize: 0x68 }
  - { offset: 0x4BA45, size: 0x8, addend: 0x0, symName: __ZN4core3fmt5Write10write_char17h2bd2da6422df0c04E, symObjAddr: 0xDCC, symBinAddr: 0x10001384C, symSize: 0x128 }
  - { offset: 0x4BBDD, size: 0x8, addend: 0x0, symName: __ZN4core3fmt5Write10write_char17h375232e784da95c3E, symObjAddr: 0xEF4, symBinAddr: 0x100013974, symSize: 0x174 }
  - { offset: 0x4BDDF, size: 0x8, addend: 0x0, symName: __ZN4core3fmt5Write10write_char17h5fd94b4a6a085facE, symObjAddr: 0x11E8, symBinAddr: 0x100013AE8, symSize: 0x140 }
  - { offset: 0x4BE45, size: 0x8, addend: 0x0, symName: __ZN4core3fmt5Write10write_char17h7453f2c039370a9dE, symObjAddr: 0x1328, symBinAddr: 0x100013C28, symSize: 0x180 }
  - { offset: 0x4C031, size: 0x8, addend: 0x0, symName: __ZN4core3fmt5Write9write_fmt17h2a0fceba8367f855E, symObjAddr: 0x1620, symBinAddr: 0x100013DA8, symSize: 0x1C }
  - { offset: 0x4C060, size: 0x8, addend: 0x0, symName: __ZN4core3fmt5Write9write_fmt17h7b0eee5bb9fc5859E, symObjAddr: 0x163C, symBinAddr: 0x100013DC4, symSize: 0x1C }
  - { offset: 0x4C08F, size: 0x8, addend: 0x0, symName: __ZN4core3fmt5Write9write_fmt17hb212afec46fd02ecE, symObjAddr: 0x1658, symBinAddr: 0x100013DE0, symSize: 0x1C }
  - { offset: 0x4C0BE, size: 0x8, addend: 0x0, symName: __ZN4core3fmt5Write9write_fmt17hbad323a678cb2207E, symObjAddr: 0x1674, symBinAddr: 0x100013DFC, symSize: 0x1C }
  - { offset: 0x4C0ED, size: 0x8, addend: 0x0, symName: __ZN4core3fmt5Write9write_fmt17he153d8ed26875afeE, symObjAddr: 0x1690, symBinAddr: 0x100013E18, symSize: 0x1C }
  - { offset: 0x4C14A, size: 0x8, addend: 0x0, symName: '__ZN50_$LT$$BP$mut$u20$T$u20$as$u20$core..fmt..Debug$GT$3fmt17he39465caf33bcc4eE', symObjAddr: 0xD258, symBinAddr: 0x10001E8E8, symSize: 0x14 }
  - { offset: 0x4C197, size: 0x8, addend: 0x0, symName: '__ZN52_$LT$$RF$mut$u20$T$u20$as$u20$core..fmt..Display$GT$3fmt17hc6db9c4561bb0640E', symObjAddr: 0xD2E0, symBinAddr: 0x10001E8FC, symSize: 0x1C }
  - { offset: 0x4C71A, size: 0x8, addend: 0x0, symName: '__ZN70_$LT$core..num..error..TryFromIntError$u20$as$u20$core..fmt..Debug$GT$3fmt17heb63bc146d788e8fE', symObjAddr: 0x19870, symBinAddr: 0x100029220, symSize: 0x40 }
  - { offset: 0x4C8C0, size: 0x8, addend: 0x0, symName: '__ZN4core5array69_$LT$impl$u20$core..fmt..Debug$u20$for$u20$$u5b$T$u3b$$u20$N$u5d$$GT$3fmt17h705a2aa453ffacd4E', symObjAddr: 0x4BD8, symBinAddr: 0x10001638C, symSize: 0xFC }
  - { offset: 0x4CDFC, size: 0x8, addend: 0x0, symName: '__ZN55_$LT$$RF$str$u20$as$u20$core..str..pattern..Pattern$GT$15is_contained_in17h07538af93eae73f4E', symObjAddr: 0xD2FC, symBinAddr: 0x10001E918, symSize: 0x3BC }
  - { offset: 0x4D21B, size: 0x8, addend: 0x0, symName: __ZN4core5panic12PanicPayload6as_str17h5cdc46f655586ed2E, symObjAddr: 0x4D7C, symBinAddr: 0x100016488, symSize: 0x14 }
  - { offset: 0x4E2B4, size: 0x8, addend: 0x0, symName: '__ZN4core3ops8function6FnOnce40call_once$u7b$$u7b$vtable.shim$u7d$$u7d$17h372dd670162a11a3E', symObjAddr: 0x1714, symBinAddr: 0x100013E34, symSize: 0x18 }
  - { offset: 0x4E305, size: 0x8, addend: 0x0, symName: '__ZN4core3ops8function6FnOnce40call_once$u7b$$u7b$vtable.shim$u7d$$u7d$17h49be7b3161c92e51E', symObjAddr: 0x172C, symBinAddr: 0x100013E4C, symSize: 0x28 }
  - { offset: 0x4E341, size: 0x8, addend: 0x0, symName: '__ZN4core3ops8function6FnOnce40call_once$u7b$$u7b$vtable.shim$u7d$$u7d$17h4dbfbb5401248555E', symObjAddr: 0x1754, symBinAddr: 0x100013E74, symSize: 0xA4 }
  - { offset: 0x4E487, size: 0x8, addend: 0x0, symName: '__ZN4core3ops8function6FnOnce40call_once$u7b$$u7b$vtable.shim$u7d$$u7d$17h59664865ad50834bE', symObjAddr: 0x17F8, symBinAddr: 0x100013F18, symSize: 0x10 }
  - { offset: 0x4E4C3, size: 0x8, addend: 0x0, symName: '__ZN4core3ops8function6FnOnce40call_once$u7b$$u7b$vtable.shim$u7d$$u7d$17h5dd18c650d3d28d5E', symObjAddr: 0x18B8, symBinAddr: 0x100013F28, symSize: 0x80 }
  - { offset: 0x4E658, size: 0x8, addend: 0x0, symName: '__ZN4core3ops8function6FnOnce40call_once$u7b$$u7b$vtable.shim$u7d$$u7d$17hb8f0a3a311886dd1E', symObjAddr: 0x194C, symBinAddr: 0x100013FA8, symSize: 0x18 }
  - { offset: 0x4E6A9, size: 0x8, addend: 0x0, symName: '__ZN4core3ops8function6FnOnce40call_once$u7b$$u7b$vtable.shim$u7d$$u7d$17hc37bdb1ed22c5dd7E', symObjAddr: 0x19E0, symBinAddr: 0x100013FC0, symSize: 0x10 }
  - { offset: 0x4E6E5, size: 0x8, addend: 0x0, symName: '__ZN4core3ops8function6FnOnce40call_once$u7b$$u7b$vtable.shim$u7d$$u7d$17heb56308df1374649E', symObjAddr: 0x19F0, symBinAddr: 0x100013FD0, symSize: 0x60 }
  - { offset: 0x4E7E7, size: 0x8, addend: 0x0, symName: __ZN4core3ops8function6FnOnce9call_once17he5d2535e31b739dcE, symObjAddr: 0x1A78, symBinAddr: 0x100014030, symSize: 0x44 }
  - { offset: 0x5110A, size: 0x8, addend: 0x0, symName: '__ZN4core4cell4once17OnceCell$LT$T$GT$8try_init17he4193c4098c349bdE', symObjAddr: 0x4A84, symBinAddr: 0x10004E0F8, symSize: 0x154 }
  - { offset: 0x515EC, size: 0x8, addend: 0x0, symName: __ZN4core9panicking13assert_failed17h5ef480159103c8ebE, symObjAddr: 0xD1DC, symBinAddr: 0x10004E24C, symSize: 0x34 }
  - { offset: 0x51607, size: 0x8, addend: 0x0, symName: __ZN4core9panicking13assert_failed17he664f25a4eeebf5cE, symObjAddr: 0xD234, symBinAddr: 0x10004E280, symSize: 0x24 }
  - { offset: 0x51A8A, size: 0x8, addend: 0x0, symName: __ZN3std9panicking11panic_count8increase17h1d24b79d4790a8a8E, symObjAddr: 0x3A9E8, symBinAddr: 0x1000345A8, symSize: 0x80 }
  - { offset: 0x51B81, size: 0x8, addend: 0x0, symName: __ZN3std9panicking11panic_count17is_zero_slow_path17hbb753c2ecca816a8E, symObjAddr: 0x3AB00, symBinAddr: 0x10004EAC8, symSize: 0x2C }
  - { offset: 0x51CB7, size: 0x8, addend: 0x0, symName: ___rust_drop_panic, symObjAddr: 0x39FEC, symBinAddr: 0x100033E20, symSize: 0xB8 }
  - { offset: 0x51EA9, size: 0x8, addend: 0x0, symName: ___rust_foreign_exception, symObjAddr: 0x3A0A4, symBinAddr: 0x100033ED8, symSize: 0xB8 }
  - { offset: 0x5209B, size: 0x8, addend: 0x0, symName: __ZN3std9panicking12default_hook17ha0b223ccc4379930E, symObjAddr: 0x3A3D0, symBinAddr: 0x100033F90, symSize: 0x1EC }
  - { offset: 0x5233C, size: 0x8, addend: 0x0, symName: '__ZN3std9panicking12default_hook28_$u7b$$u7b$closure$u7d$$u7d$17h5c3a234feebd11a5E', symObjAddr: 0x3A5BC, symBinAddr: 0x10003417C, symSize: 0x1A8 }
  - { offset: 0x52520, size: 0x8, addend: 0x0, symName: '__ZN3std9panicking12default_hook28_$u7b$$u7b$closure$u7d$$u7d$28_$u7b$$u7b$closure$u7d$$u7d$17h2cb359aea37a8eccE', symObjAddr: 0x3A764, symBinAddr: 0x100034324, symSize: 0x284 }
  - { offset: 0x52996, size: 0x8, addend: 0x0, symName: _rust_begin_unwind, symObjAddr: 0x3AB80, symBinAddr: 0x100034628, symSize: 0x20 }
  - { offset: 0x529FF, size: 0x8, addend: 0x0, symName: '__ZN102_$LT$std..panicking..begin_panic_handler..FormatStringPayload$u20$as$u20$core..panic..PanicPayload$GT$8take_box17hf9936339f9bb3e6eE', symObjAddr: 0x3ABA0, symBinAddr: 0x100034648, symSize: 0x110 }
  - { offset: 0x52C93, size: 0x8, addend: 0x0, symName: '__ZN102_$LT$std..panicking..begin_panic_handler..FormatStringPayload$u20$as$u20$core..panic..PanicPayload$GT$3get17h671f5c789103ccc6E', symObjAddr: 0x3ACB0, symBinAddr: 0x100034758, symSize: 0xB0 }
  - { offset: 0x52DCC, size: 0x8, addend: 0x0, symName: '__ZN95_$LT$std..panicking..begin_panic_handler..FormatStringPayload$u20$as$u20$core..fmt..Display$GT$3fmt17h1a7e141a9fd2e841E', symObjAddr: 0x3AD60, symBinAddr: 0x100034808, symSize: 0x5C }
  - { offset: 0x52EC9, size: 0x8, addend: 0x0, symName: '__ZN99_$LT$std..panicking..begin_panic_handler..StaticStrPayload$u20$as$u20$core..panic..PanicPayload$GT$8take_box17hfde794f38dfdff84E', symObjAddr: 0x3ADBC, symBinAddr: 0x100034864, symSize: 0x50 }
  - { offset: 0x52F40, size: 0x8, addend: 0x0, symName: '__ZN99_$LT$std..panicking..begin_panic_handler..StaticStrPayload$u20$as$u20$core..panic..PanicPayload$GT$3get17h40c5dcbca42c5d43E', symObjAddr: 0x3AE0C, symBinAddr: 0x1000348B4, symSize: 0x18 }
  - { offset: 0x52F5B, size: 0x8, addend: 0x0, symName: '__ZN99_$LT$std..panicking..begin_panic_handler..StaticStrPayload$u20$as$u20$core..panic..PanicPayload$GT$6as_str17h36252a21ddc56c9bE', symObjAddr: 0x3AE24, symBinAddr: 0x1000348CC, symSize: 0x18 }
  - { offset: 0x52F7C, size: 0x8, addend: 0x0, symName: '__ZN92_$LT$std..panicking..begin_panic_handler..StaticStrPayload$u20$as$u20$core..fmt..Display$GT$3fmt17hd84ef799566d4562E', symObjAddr: 0x3AE3C, symBinAddr: 0x1000348E4, symSize: 0x1C }
  - { offset: 0x52F98, size: 0x8, addend: 0x0, symName: '__ZN3std9panicking19begin_panic_handler28_$u7b$$u7b$closure$u7d$$u7d$17hcc8f653f753c0254E', symObjAddr: 0x3AE58, symBinAddr: 0x100034900, symSize: 0xC4 }
  - { offset: 0x53100, size: 0x8, addend: 0x0, symName: __ZN3std9panicking14payload_as_str17h326c21158c3ccbd7E, symObjAddr: 0x3B008, symBinAddr: 0x1000349C4, symSize: 0xB0 }
  - { offset: 0x531E4, size: 0x8, addend: 0x0, symName: __ZN3std9panicking20rust_panic_with_hook17h203f96c93e7ac62dE, symObjAddr: 0x3B0B8, symBinAddr: 0x100034A74, symSize: 0x3F8 }
  - { offset: 0x539F7, size: 0x8, addend: 0x0, symName: _rust_panic, symObjAddr: 0x3B5E4, symBinAddr: 0x100034E6C, symSize: 0x60 }
  - { offset: 0x53A3D, size: 0x8, addend: 0x0, symName: __ZN3std7process7Command6output17h173f2f9f8e9cb0e1E, symObjAddr: 0x35188, symBinAddr: 0x100032BEC, symSize: 0x2FC }
  - { offset: 0x5400F, size: 0x8, addend: 0x0, symName: __ZN3std7process5abort17h5bdab09773b2c592E, symObjAddr: 0x35D9C, symBinAddr: 0x10004E6F8, symSize: 0xC }
  - { offset: 0x540AB, size: 0x8, addend: 0x0, symName: __ZN3std4path4Path13_strip_prefix17h55294dff41b26308E, symObjAddr: 0x33B38, symBinAddr: 0x100032824, symSize: 0x21C }
  - { offset: 0x541EB, size: 0x8, addend: 0x0, symName: __ZN3std4path4Path5_join17h516bc57fe1e4225dE, symObjAddr: 0x34358, symBinAddr: 0x100032A40, symSize: 0x1AC }
  - { offset: 0x547A1, size: 0x8, addend: 0x0, symName: __ZN3std4path10Components15len_before_body17ha7ee2271a8a6c6d9E, symObjAddr: 0x31DBC, symBinAddr: 0x1000319B4, symSize: 0x188 }
  - { offset: 0x547B8, size: 0x8, addend: 0x0, symName: __ZN3std4path10Components15len_before_body17ha7ee2271a8a6c6d9E, symObjAddr: 0x31DBC, symBinAddr: 0x1000319B4, symSize: 0x188 }
  - { offset: 0x547CD, size: 0x8, addend: 0x0, symName: __ZN3std4path10Components15len_before_body17ha7ee2271a8a6c6d9E, symObjAddr: 0x31DBC, symBinAddr: 0x1000319B4, symSize: 0x188 }
  - { offset: 0x549AF, size: 0x8, addend: 0x0, symName: __ZN3std4path10Components7as_path17h6e25608fa8cb9557E, symObjAddr: 0x31F44, symBinAddr: 0x100031B3C, symSize: 0x530 }
  - { offset: 0x54E82, size: 0x8, addend: 0x0, symName: __ZN3std4path10Components25parse_next_component_back17h5239b6f3b65d70c8E, symObjAddr: 0x32474, symBinAddr: 0x10003206C, symSize: 0x120 }
  - { offset: 0x5508D, size: 0x8, addend: 0x0, symName: '__ZN80_$LT$std..path..Components$u20$as$u20$core..iter..traits..iterator..Iterator$GT$4next17h6e8b0f281526c929E', symObjAddr: 0x3272C, symBinAddr: 0x10003218C, symSize: 0x340 }
  - { offset: 0x553DC, size: 0x8, addend: 0x0, symName: '__ZN95_$LT$std..path..Components$u20$as$u20$core..iter..traits..double_ended..DoubleEndedIterator$GT$9next_back17h15500b5b5dde7decE', symObjAddr: 0x32A6C, symBinAddr: 0x1000324CC, symSize: 0x330 }
  - { offset: 0x5555E, size: 0x8, addend: 0x0, symName: '__ZN55_$LT$std..path..PathBuf$u20$as$u20$core..fmt..Debug$GT$3fmt17h05c96f503b3c5842E', symObjAddr: 0x339FC, symBinAddr: 0x1000327FC, symSize: 0x28 }
  - { offset: 0x55725, size: 0x8, addend: 0x0, symName: '__ZN61_$LT$std..path..Component$u20$as$u20$core..cmp..PartialEq$GT$2eq17h238f4f8a8cc29bb2E', symObjAddr: 0x3C0CC, symBinAddr: 0x1000355B4, symSize: 0x138 }
  - { offset: 0x558EF, size: 0x8, addend: 0x0, symName: __ZN3std3sys3pal4unix2fs4File6open_c17h0a400570de534b0aE, symObjAddr: 0x3D220, symBinAddr: 0x100035B18, symSize: 0x1B0 }
  - { offset: 0x55A58, size: 0x8, addend: 0x0, symName: '__ZN91_$LT$std..sys..pal..unix..fs..ReadDir$u20$as$u20$core..iter..traits..iterator..Iterator$GT$4next17he1b3299a727d70eaE', symObjAddr: 0x3CD90, symBinAddr: 0x100035914, symSize: 0x138 }
  - { offset: 0x55CFF, size: 0x8, addend: 0x0, symName: '__ZN70_$LT$std..sys..pal..unix..fs..Dir$u20$as$u20$core..ops..drop..Drop$GT$4drop17h2f7cbb54b209bd1fE', symObjAddr: 0x3CEC8, symBinAddr: 0x100035A4C, symSize: 0xCC }
  - { offset: 0x55DF2, size: 0x8, addend: 0x0, symName: __ZN3std3sys3pal4unix2fs7readdir17h52c204b360126013E, symObjAddr: 0x3DAF4, symBinAddr: 0x100035CC8, symSize: 0x1A4 }
  - { offset: 0x560E6, size: 0x8, addend: 0x0, symName: __ZN3std3sys3pal4unix2fd8FileDesc11read_to_end17hb48365a6d7f4162dE, symObjAddr: 0x3C5C8, symBinAddr: 0x1000356EC, symSize: 0x228 }
  - { offset: 0x5657B, size: 0x8, addend: 0x0, symName: __ZN3std3sys3pal4unix7process13process_inner7Process4wait17h3c2b205dcceaa54aE, symObjAddr: 0x44A18, symBinAddr: 0x100038C90, symSize: 0xA0 }
  - { offset: 0x56712, size: 0x8, addend: 0x0, symName: __ZN3std3sys3pal4unix7process14process_common7Command3new17h1d046efb69807da0E, symObjAddr: 0x40DB4, symBinAddr: 0x100036688, symSize: 0x2C4 }
  - { offset: 0x56C7C, size: 0x8, addend: 0x0, symName: __ZN3std3sys3pal4unix7process14process_common7Command3arg17h236ab9fd4e9e458bE, symObjAddr: 0x411AC, symBinAddr: 0x10003694C, symSize: 0x15C }
  - { offset: 0x56FF5, size: 0x8, addend: 0x0, symName: __ZN3std3sys3pal4unix7process14process_common7Command11capture_env17h73b5aff2a246da54E, symObjAddr: 0x41528, symBinAddr: 0x100036AA8, symSize: 0xA9C }
  - { offset: 0x58D20, size: 0x8, addend: 0x0, symName: __ZN3std3sys3pal4unix7process14process_common7Command8setup_io17hcfeddda79479f9dfE, symObjAddr: 0x41FC4, symBinAddr: 0x100037544, symSize: 0x2F0 }
  - { offset: 0x591D9, size: 0x8, addend: 0x0, symName: '__ZN3std3sys3pal4unix7process13process_inner71_$LT$impl$u20$std..sys..pal..unix..process..process_common..Command$GT$5spawn17hbb692d0a4a0abbffE', symObjAddr: 0x43CC4, symBinAddr: 0x100037F88, symSize: 0x9A8 }
  - { offset: 0x5A42D, size: 0x8, addend: 0x0, symName: '__ZN3std3sys3pal4unix7process13process_inner71_$LT$impl$u20$std..sys..pal..unix..process..process_common..Command$GT$7do_exec17he847cfd6d5f995b9E', symObjAddr: 0x4466C, symBinAddr: 0x100038930, symSize: 0x360 }
  - { offset: 0x5AD8E, size: 0x8, addend: 0x0, symName: __ZN3std3sys3pal4unix7process14process_common5Stdio14to_child_stdio17ha05e85644a02177cE, symObjAddr: 0x422B4, symBinAddr: 0x100037834, symSize: 0x15C }
  - { offset: 0x5AF8D, size: 0x8, addend: 0x0, symName: __ZN3std3sys3pal4unix2os5errno17h1e687568046dfc01E, symObjAddr: 0x3FC68, symBinAddr: 0x100035E6C, symSize: 0x18 }
  - { offset: 0x5AFA1, size: 0x8, addend: 0x0, symName: __ZN3std3sys3pal4unix2os13env_read_lock17h1370e80127ab09adE, symObjAddr: 0x400EC, symBinAddr: 0x100035E84, symSize: 0x2EC }
  - { offset: 0x5B651, size: 0x8, addend: 0x0, symName: '__ZN3std3sys3pal4unix2os6getenv28_$u7b$$u7b$closure$u7d$$u7d$17h09d09dd30efbeda3E', symObjAddr: 0x403D8, symBinAddr: 0x100036170, symSize: 0x150 }
  - { offset: 0x5B894, size: 0x8, addend: 0x0, symName: '__ZN69_$LT$std..sys..pal..unix..stdio..Stderr$u20$as$u20$std..io..Write$GT$5write17hf7eb28e2e3a5bd7dE', symObjAddr: 0x43178, symBinAddr: 0x100037D20, symSize: 0x4C }
  - { offset: 0x5B955, size: 0x8, addend: 0x0, symName: '__ZN69_$LT$std..sys..pal..unix..stdio..Stderr$u20$as$u20$std..io..Write$GT$14write_vectored17h6899437ee14ad0e1E', symObjAddr: 0x431C4, symBinAddr: 0x100037D6C, symSize: 0x4C }
  - { offset: 0x5BA16, size: 0x8, addend: 0x0, symName: '__ZN69_$LT$std..sys..pal..unix..stdio..Stderr$u20$as$u20$std..io..Write$GT$17is_write_vectored17h9b2366713f7e1db9E', symObjAddr: 0x43210, symBinAddr: 0x100037DB8, symSize: 0x14 }
  - { offset: 0x5BA30, size: 0x8, addend: 0x0, symName: '__ZN69_$LT$std..sys..pal..unix..stdio..Stderr$u20$as$u20$std..io..Write$GT$5flush17hd9b43cd37b405524E', symObjAddr: 0x43224, symBinAddr: 0x100037DCC, symSize: 0x14 }
  - { offset: 0x5BAA2, size: 0x8, addend: 0x0, symName: __ZN3std3sys3pal4unix4sync5mutex5Mutex4init17hdf1c4f248d85eb16E, symObjAddr: 0x43238, symBinAddr: 0x100037DE0, symSize: 0x16C }
  - { offset: 0x5BB59, size: 0x8, addend: 0x0, symName: __ZN3std3sys3pal4unix4sync5mutex5Mutex4lock4fail17h6819c36a4f036f8cE, symObjAddr: 0x433C0, symBinAddr: 0x10004EB4C, symSize: 0xDC }
  - { offset: 0x5BE19, size: 0x8, addend: 0x0, symName: __ZN3std3sys3pal4unix14stack_overflow3imp14signal_handler17h2fa8e10590380ab0E, symObjAddr: 0x42C40, symBinAddr: 0x100037990, symSize: 0xB0 }
  - { offset: 0x5BECA, size: 0x8, addend: 0x0, symName: '__ZN3std3sys3pal4unix14stack_overflow3imp14signal_handler28_$u7b$$u7b$closure$u7d$$u7d$17h58562be330c5529fE', symObjAddr: 0x42CF0, symBinAddr: 0x100037A40, symSize: 0x100 }
  - { offset: 0x5C0F0, size: 0x8, addend: 0x0, symName: __ZN3std3sys3pal4unix14stack_overflow3imp12make_handler17ha0e2e74c0ff811adE, symObjAddr: 0x42DF0, symBinAddr: 0x100037B40, symSize: 0x1E0 }
  - { offset: 0x5C49B, size: 0x8, addend: 0x0, symName: __ZN3std3sys3pal4unix4pipe8AnonPipe5write17h9d42360bb4720a56E, symObjAddr: 0x40B14, symBinAddr: 0x1000363E8, symSize: 0x48 }
  - { offset: 0x5C563, size: 0x8, addend: 0x0, symName: __ZN3std3sys3pal4unix4pipe9anon_pipe17h3f2ef7b4629c71e8E, symObjAddr: 0x409EC, symBinAddr: 0x1000362C0, symSize: 0x128 }
  - { offset: 0x5C858, size: 0x8, addend: 0x0, symName: __ZN3std3sys3pal4unix4pipe5read217he4ec31afe54221baE, symObjAddr: 0x40B5C, symBinAddr: 0x100036430, symSize: 0x258 }
  - { offset: 0x5CD86, size: 0x8, addend: 0x0, symName: '__ZN3std3sys3pal4unix4weak18DlsymWeak$LT$F$GT$10initialize17h5e388e39dc1ce791E', symObjAddr: 0x3C314, symBinAddr: 0x10004EAF4, symSize: 0x58 }
  - { offset: 0x5CE08, size: 0x8, addend: 0x0, symName: __ZN3std3sys3pal4unix17decode_error_kind17h7a8628d240588c97E, symObjAddr: 0x43C48, symBinAddr: 0x100037F4C, symSize: 0x30 }
  - { offset: 0x5CE22, size: 0x8, addend: 0x0, symName: __ZN3std3sys3pal4unix14abort_internal17h1f437a045e84c0acE, symObjAddr: 0x43C78, symBinAddr: 0x100037F7C, symSize: 0xC }
  - { offset: 0x5CEC0, size: 0x8, addend: 0x0, symName: __ZN3std3sys3pal6common14small_c_string24run_with_cstr_allocating17h0222687f57b5b8d8E, symObjAddr: 0x378C4, symBinAddr: 0x10004E7D0, symSize: 0xAC }
  - { offset: 0x5D01C, size: 0x8, addend: 0x0, symName: __ZN3std3sys3pal6common14small_c_string24run_with_cstr_allocating17h89545bf18b96ebe8E, symObjAddr: 0x37BC8, symBinAddr: 0x10004E87C, symSize: 0x9C }
  - { offset: 0x5D18B, size: 0x8, addend: 0x0, symName: __ZN3std3sys3pal6common14small_c_string24run_with_cstr_allocating17hf540475ca51d3e7bE, symObjAddr: 0x37DE8, symBinAddr: 0x10004E918, symSize: 0xC4 }
  - { offset: 0x5D42B, size: 0x8, addend: 0x0, symName: __ZN3std3sys6os_str5bytes5Slice15to_string_lossy17h53517d7c6e8fee16E, symObjAddr: 0x46A04, symBinAddr: 0x100039168, symSize: 0x10 }
  - { offset: 0x5D458, size: 0x8, addend: 0x0, symName: '__ZN69_$LT$std..sys..os_str..bytes..Slice$u20$as$u20$core..fmt..Display$GT$3fmt17h9ac75767c8ed01b2E', symObjAddr: 0x466F4, symBinAddr: 0x1000390C8, symSize: 0xA0 }
  - { offset: 0x5D4C9, size: 0x8, addend: 0x0, symName: '__ZN3std3sys11personality3gcc14find_eh_action28_$u7b$$u7b$closure$u7d$$u7d$17heb526fe46b317879E', symObjAddr: 0x44DB8, symBinAddr: 0x100038D30, symSize: 0x18 }
  - { offset: 0x5D4DD, size: 0x8, addend: 0x0, symName: '__ZN3std3sys11personality3gcc14find_eh_action28_$u7b$$u7b$closure$u7d$$u7d$17hdfacf1f5ab590eb6E', symObjAddr: 0x44DD0, symBinAddr: 0x100038D48, symSize: 0x18 }
  - { offset: 0x5D50D, size: 0x8, addend: 0x0, symName: _rust_eh_personality, symObjAddr: 0x44DE8, symBinAddr: 0x100038D60, symSize: 0x368 }
  - { offset: 0x5D842, size: 0x8, addend: 0x0, symName: __ZN3std3sys11personality5dwarf2eh19read_encoded_offset17he9cb5faabb9c188bE, symObjAddr: 0x3801C, symBinAddr: 0x100033224, symSize: 0x150 }
  - { offset: 0x5D9A5, size: 0x8, addend: 0x0, symName: '__ZN3std3sys9backtrace10_print_fmt28_$u7b$$u7b$closure$u7d$$u7d$17h1863ed5b66499a89E', symObjAddr: 0x38458, symBinAddr: 0x100033660, symSize: 0x30 }
  - { offset: 0x5D9CE, size: 0x8, addend: 0x0, symName: '__ZN3std3sys9backtrace10_print_fmt28_$u7b$$u7b$closure$u7d$$u7d$17h49125cd88324db11E', symObjAddr: 0x38488, symBinAddr: 0x100033690, symSize: 0x134 }
  - { offset: 0x5DAE2, size: 0x8, addend: 0x0, symName: '__ZN3std3sys9backtrace10_print_fmt28_$u7b$$u7b$closure$u7d$$u7d$28_$u7b$$u7b$closure$u7d$$u7d$17heb5be01c54158345E', symObjAddr: 0x385BC, symBinAddr: 0x1000337C4, symSize: 0x25C }
  - { offset: 0x5DD1E, size: 0x8, addend: 0x0, symName: __ZN3std3sys9backtrace4lock17h6e02177f0f3558baE, symObjAddr: 0x3816C, symBinAddr: 0x100033374, symSize: 0x70 }
  - { offset: 0x5DE67, size: 0x8, addend: 0x0, symName: __ZN3std3sys9backtrace13BacktraceLock5print17h115149c0b879e5c3E, symObjAddr: 0x381DC, symBinAddr: 0x1000333E4, symSize: 0x54 }
  - { offset: 0x5DEB4, size: 0x8, addend: 0x0, symName: '__ZN98_$LT$std..sys..backtrace..BacktraceLock..print..DisplayBacktrace$u20$as$u20$core..fmt..Display$GT$3fmt17h217270392019d164E', symObjAddr: 0x38230, symBinAddr: 0x100033438, symSize: 0x228 }
  - { offset: 0x5E436, size: 0x8, addend: 0x0, symName: __ZN3std3sys9backtrace26__rust_end_short_backtrace17h911de07218b69a6cE, symObjAddr: 0x38818, symBinAddr: 0x100033A20, symSize: 0xC }
  - { offset: 0x5E450, size: 0x8, addend: 0x0, symName: __ZN3std3sys9backtrace15output_filename17h988a0b5399b264d6E, symObjAddr: 0x38830, symBinAddr: 0x100033A2C, symSize: 0xFC }
  - { offset: 0x5E614, size: 0x8, addend: 0x0, symName: '__ZN3std3sys4sync8once_box16OnceBox$LT$T$GT$10initialize17h482967fb77aa636aE', symObjAddr: 0x3899C, symBinAddr: 0x10004E9DC, symSize: 0xEC }
  - { offset: 0x5E8FD, size: 0x8, addend: 0x0, symName: __ZN3std3sys4sync6rwlock5queue6RwLock21read_unlock_contended17ha1da939695eb68a4E, symObjAddr: 0x479D0, symBinAddr: 0x10004ED88, symSize: 0x50 }
  - { offset: 0x5EA6D, size: 0x8, addend: 0x0, symName: __ZN3std3sys4sync6rwlock5queue6RwLock16unlock_contended17hb1bda0f6c9583d94E, symObjAddr: 0x47A20, symBinAddr: 0x10004EDD8, symSize: 0x50 }
  - { offset: 0x5EB49, size: 0x8, addend: 0x0, symName: __ZN3std3sys4sync6rwlock5queue6RwLock12unlock_queue17h1e38a16940d3a0e6E, symObjAddr: 0x47B84, symBinAddr: 0x100039424, symSize: 0x1D8 }
  - { offset: 0x5F296, size: 0x8, addend: 0x0, symName: __ZN3std3sys4sync6rwlock5queue9read_lock17h02feed94edb2ee18E, symObjAddr: 0x47710, symBinAddr: 0x1000393F8, symSize: 0x2C }
  - { offset: 0x5F371, size: 0x8, addend: 0x0, symName: __ZN3std3sys4sync4once5queue4Once4call17hc1cbcad9bb87275cE, symObjAddr: 0x47310, symBinAddr: 0x10004EC28, symSize: 0x160 }
  - { offset: 0x5F499, size: 0x8, addend: 0x0, symName: __ZN3std3sys4sync4once5queue4wait17h58ee39f231bfccb9E, symObjAddr: 0x47470, symBinAddr: 0x100039178, symSize: 0x198 }
  - { offset: 0x5FA15, size: 0x8, addend: 0x0, symName: '__ZN82_$LT$std..sys..sync..once..queue..WaiterQueue$u20$as$u20$core..ops..drop..Drop$GT$4drop17h45f863b67fd27f71E', symObjAddr: 0x47608, symBinAddr: 0x100039310, symSize: 0xE8 }
  - { offset: 0x5FC73, size: 0x8, addend: 0x0, symName: '__ZN3std3sys12thread_local6native4lazy20Storage$LT$T$C$D$GT$10initialize17h61fa4697cd48c6f6E', symObjAddr: 0x47E24, symBinAddr: 0x10004EE28, symSize: 0xC0 }
  - { offset: 0x5FE69, size: 0x8, addend: 0x0, symName: __ZN3std3sys12thread_local6native4lazy7destroy17h26d4ae6c1bac34fbE, symObjAddr: 0x47EE4, symBinAddr: 0x1000395FC, symSize: 0x54 }
  - { offset: 0x5FFD7, size: 0x8, addend: 0x0, symName: __ZN3std3sys12thread_local5guard5apple6enable9run_dtors17h15022dedc81e5063E, symObjAddr: 0x4807C, symBinAddr: 0x100039794, symSize: 0x13C }
  - { offset: 0x60531, size: 0x8, addend: 0x0, symName: __ZN3std3sys12thread_local11destructors4list8register17h51fb0c77f8b321e6E, symObjAddr: 0x47F38, symBinAddr: 0x100039650, symSize: 0x144 }
  - { offset: 0x60C2E, size: 0x8, addend: 0x0, symName: '__ZN80_$LT$std..io..Write..write_fmt..Adapter$LT$T$GT$$u20$as$u20$core..fmt..Write$GT$9write_str17h0698cdf4cfa713e8E', symObjAddr: 0x2D538, symBinAddr: 0x100031630, symSize: 0xD8 }
  - { offset: 0x60D81, size: 0x8, addend: 0x0, symName: '__ZN80_$LT$std..io..Write..write_fmt..Adapter$LT$T$GT$$u20$as$u20$core..fmt..Write$GT$9write_str17h1c13ca75cd138050E', symObjAddr: 0x2D610, symBinAddr: 0x100031708, symSize: 0x50 }
  - { offset: 0x60DAB, size: 0x8, addend: 0x0, symName: '__ZN80_$LT$std..io..Write..write_fmt..Adapter$LT$T$GT$$u20$as$u20$core..fmt..Write$GT$9write_str17h58a4ca428f95c900E', symObjAddr: 0x2D738, symBinAddr: 0x100031758, symSize: 0xD0 }
  - { offset: 0x60F61, size: 0x8, addend: 0x0, symName: '__ZN80_$LT$std..io..Write..write_fmt..Adapter$LT$T$GT$$u20$as$u20$core..fmt..Write$GT$9write_str17h6eb5a36b1832c95eE', symObjAddr: 0x2D808, symBinAddr: 0x100031828, symSize: 0x80 }
  - { offset: 0x610E7, size: 0x8, addend: 0x0, symName: __ZN3std2io5Write9write_all17h87bc481c06d6b6c7E, symObjAddr: 0x2CC10, symBinAddr: 0x100030D08, symSize: 0xB8 }
  - { offset: 0x61217, size: 0x8, addend: 0x0, symName: __ZN3std2io5Write18write_all_vectored17h0d3be626dc41da2eE, symObjAddr: 0x2CCC8, symBinAddr: 0x100030DC0, symSize: 0x264 }
  - { offset: 0x616BF, size: 0x8, addend: 0x0, symName: __ZN3std2io5Write18write_all_vectored17h0f11e99192ac0da3E, symObjAddr: 0x2CF2C, symBinAddr: 0x100031024, symSize: 0x2A0 }
  - { offset: 0x61B5D, size: 0x8, addend: 0x0, symName: __ZN3std2io5Write9write_fmt17h6564db7565ec4928E, symObjAddr: 0x2D1CC, symBinAddr: 0x1000312C4, symSize: 0x124 }
  - { offset: 0x61D71, size: 0x8, addend: 0x0, symName: __ZN3std2io5Write9write_fmt17h6e471a53cbe47e27E, symObjAddr: 0x2D2F0, symBinAddr: 0x1000313E8, symSize: 0x124 }
  - { offset: 0x61F85, size: 0x8, addend: 0x0, symName: __ZN3std2io5Write9write_fmt17hb32eaafcfd249a19E, symObjAddr: 0x2D414, symBinAddr: 0x10003150C, symSize: 0x124 }
  - { offset: 0x621B2, size: 0x8, addend: 0x0, symName: '__ZN3std2io5impls74_$LT$impl$u20$std..io..Write$u20$for$u20$alloc..vec..Vec$LT$u8$C$A$GT$$GT$5write17hf1a6df91b3a9c331E', symObjAddr: 0x2731C, symBinAddr: 0x10003009C, symSize: 0x84 }
  - { offset: 0x622F7, size: 0x8, addend: 0x0, symName: '__ZN3std2io5impls74_$LT$impl$u20$std..io..Write$u20$for$u20$alloc..vec..Vec$LT$u8$C$A$GT$$GT$14write_vectored17h935681c1f031c204E', symObjAddr: 0x273A0, symBinAddr: 0x100030120, symSize: 0x174 }
  - { offset: 0x62544, size: 0x8, addend: 0x0, symName: '__ZN3std2io5impls74_$LT$impl$u20$std..io..Write$u20$for$u20$alloc..vec..Vec$LT$u8$C$A$GT$$GT$17is_write_vectored17h4055b148f544ec6cE', symObjAddr: 0x27514, symBinAddr: 0x100030294, symSize: 0x14 }
  - { offset: 0x6255F, size: 0x8, addend: 0x0, symName: '__ZN3std2io5impls74_$LT$impl$u20$std..io..Write$u20$for$u20$alloc..vec..Vec$LT$u8$C$A$GT$$GT$9write_all17h8667482891c5bc01E', symObjAddr: 0x27528, symBinAddr: 0x1000302A8, symSize: 0x80 }
  - { offset: 0x6269D, size: 0x8, addend: 0x0, symName: '__ZN3std2io5impls74_$LT$impl$u20$std..io..Write$u20$for$u20$alloc..vec..Vec$LT$u8$C$A$GT$$GT$5flush17h1aa70c4ce0391c44E', symObjAddr: 0x275A8, symBinAddr: 0x100030328, symSize: 0x14 }
  - { offset: 0x62875, size: 0x8, addend: 0x0, symName: __ZN3std2io5error14repr_bitpacked11decode_repr17h37cbf447dd36b64bE, symObjAddr: 0x26A7C, symBinAddr: 0x10002FB90, symSize: 0x64 }
  - { offset: 0x628E4, size: 0x8, addend: 0x0, symName: '__ZN58_$LT$std..io..error..Error$u20$as$u20$core..fmt..Debug$GT$3fmt17h4ed4286e752207faE', symObjAddr: 0x26AE0, symBinAddr: 0x10002FBF4, symSize: 0x10 }
  - { offset: 0x62917, size: 0x8, addend: 0x0, symName: '__ZN3std2io5error83_$LT$impl$u20$core..fmt..Debug$u20$for$u20$std..io..error..repr_bitpacked..Repr$GT$3fmt17h65ae83bc7dc9681bE', symObjAddr: 0x26D88, symBinAddr: 0x10002FC04, symSize: 0x294 }
  - { offset: 0x62B62, size: 0x8, addend: 0x0, symName: '__ZN60_$LT$std..io..error..Error$u20$as$u20$core..fmt..Display$GT$3fmt17h9bd80ee0c1811a25E', symObjAddr: 0x2701C, symBinAddr: 0x10002FE98, symSize: 0x204 }
  - { offset: 0x62DC1, size: 0x8, addend: 0x0, symName: '__ZN62_$LT$std..io..error..ErrorKind$u20$as$u20$core..fmt..Debug$GT$3fmt17h219a5c9d2c7eda43E', symObjAddr: 0x3C098, symBinAddr: 0x100035580, symSize: 0x34 }
  - { offset: 0x62DF9, size: 0x8, addend: 0x0, symName: '__ZN3std2io8buffered9bufwriter18BufWriter$LT$W$GT$9flush_buf17h4bdccd2184fd8b56E', symObjAddr: 0x25FE4, symBinAddr: 0x10002F98C, symSize: 0x204 }
  - { offset: 0x633AF, size: 0x8, addend: 0x0, symName: '__ZN3std2io8buffered9bufwriter18BufWriter$LT$W$GT$14write_all_cold17h03d13fe4cf302958E', symObjAddr: 0x26374, symBinAddr: 0x10004E5D0, symSize: 0x128 }
  - { offset: 0x637DD, size: 0x8, addend: 0x0, symName: '__ZN61_$LT$$RF$std..io..stdio..Stdout$u20$as$u20$std..io..Write$GT$9write_fmt17h14426c11ecd17a4cE', symObjAddr: 0x2A280, symBinAddr: 0x10003033C, symSize: 0x18C }
  - { offset: 0x63BD7, size: 0x8, addend: 0x0, symName: '__ZN61_$LT$std..io..stdio..StdoutLock$u20$as$u20$std..io..Write$GT$9write_all17hdf550e962fae6ee2E', symObjAddr: 0x2A744, symBinAddr: 0x1000304C8, symSize: 0x268 }
  - { offset: 0x643B2, size: 0x8, addend: 0x0, symName: __ZN3std2io5stdio6Stderr4lock17ha6b178440672670eE, symObjAddr: 0x2ACBC, symBinAddr: 0x100030730, symSize: 0xF0 }
  - { offset: 0x646A2, size: 0x8, addend: 0x0, symName: __ZN3std2io5stdio22try_set_output_capture17h3c34954bc62c0e61E, symObjAddr: 0x2BA8C, symBinAddr: 0x100030820, symSize: 0xF4 }
  - { offset: 0x648F5, size: 0x8, addend: 0x0, symName: __ZN3std2io5stdio31print_to_buffer_if_capture_used17h604f8acf6a08e2ebE, symObjAddr: 0x2BB80, symBinAddr: 0x100030914, symSize: 0x20C }
  - { offset: 0x65000, size: 0x8, addend: 0x0, symName: __ZN3std2io5stdio6_print17h6200d46cef53dee1E, symObjAddr: 0x2BE5C, symBinAddr: 0x100030B20, symSize: 0xE4 }
  - { offset: 0x65165, size: 0x8, addend: 0x0, symName: __ZN3std2io19default_read_to_end16small_probe_read17heb774478ee1d979dE, symObjAddr: 0x2CA8C, symBinAddr: 0x100030C04, symSize: 0x104 }
  - { offset: 0x653A3, size: 0x8, addend: 0x0, symName: '__ZN3std4sync6poison4once4Once15call_once_force28_$u7b$$u7b$closure$u7d$$u7d$17hb663b4fc9d65cdd9E', symObjAddr: 0x36574, symBinAddr: 0x100033144, symSize: 0x60 }
  - { offset: 0x65485, size: 0x8, addend: 0x0, symName: '__ZN3std4sync6poison4once4Once15call_once_force28_$u7b$$u7b$closure$u7d$$u7d$17hdc9b4573ce8ff5c2E', symObjAddr: 0x365D4, symBinAddr: 0x1000331A4, symSize: 0x80 }
  - { offset: 0x655F3, size: 0x8, addend: 0x0, symName: '__ZN3std4sync6poison4once4Once9call_once28_$u7b$$u7b$closure$u7d$$u7d$17h972e10e961241d2eE', symObjAddr: 0x36114, symBinAddr: 0x100032EE8, symSize: 0x25C }
  - { offset: 0x66046, size: 0x8, addend: 0x0, symName: '__ZN3std4sync9once_lock17OnceLock$LT$T$GT$10initialize17h5a4e2f750c24f788E', symObjAddr: 0x37008, symBinAddr: 0x10004E704, symSize: 0x64 }
  - { offset: 0x66071, size: 0x8, addend: 0x0, symName: '__ZN3std4sync9once_lock17OnceLock$LT$T$GT$10initialize17h5a4e2f750c24f788E', symObjAddr: 0x37008, symBinAddr: 0x10004E704, symSize: 0x64 }
  - { offset: 0x66085, size: 0x8, addend: 0x0, symName: '__ZN3std4sync9once_lock17OnceLock$LT$T$GT$10initialize17h5a4e2f750c24f788E', symObjAddr: 0x37008, symBinAddr: 0x10004E704, symSize: 0x64 }
  - { offset: 0x66099, size: 0x8, addend: 0x0, symName: '__ZN3std4sync9once_lock17OnceLock$LT$T$GT$10initialize17h5a4e2f750c24f788E', symObjAddr: 0x37008, symBinAddr: 0x10004E704, symSize: 0x64 }
  - { offset: 0x660AF, size: 0x8, addend: 0x0, symName: '__ZN3std4sync9once_lock17OnceLock$LT$T$GT$10initialize17hde8bf60cb9cf1a08E', symObjAddr: 0x3706C, symBinAddr: 0x10004E768, symSize: 0x68 }
  - { offset: 0x660DA, size: 0x8, addend: 0x0, symName: '__ZN3std4sync9once_lock17OnceLock$LT$T$GT$10initialize17hde8bf60cb9cf1a08E', symObjAddr: 0x3706C, symBinAddr: 0x10004E768, symSize: 0x68 }
  - { offset: 0x660EE, size: 0x8, addend: 0x0, symName: '__ZN3std4sync9once_lock17OnceLock$LT$T$GT$10initialize17hde8bf60cb9cf1a08E', symObjAddr: 0x3706C, symBinAddr: 0x10004E768, symSize: 0x68 }
  - { offset: 0x66102, size: 0x8, addend: 0x0, symName: '__ZN3std4sync9once_lock17OnceLock$LT$T$GT$10initialize17hde8bf60cb9cf1a08E', symObjAddr: 0x3706C, symBinAddr: 0x10004E768, symSize: 0x68 }
  - { offset: 0x6624D, size: 0x8, addend: 0x0, symName: __ZN3std2rt19lang_start_internal17h95cf27b851151b9cE, symObjAddr: 0x1EEA4, symBinAddr: 0x10002E6D4, symSize: 0x684 }
  - { offset: 0x66E79, size: 0x8, addend: 0x0, symName: __ZN3std12backtrace_rs9symbolize5gimli7Context3new17h596fdfe772dc2bb6E, symObjAddr: 0x482F4, symBinAddr: 0x10003995C, symSize: 0x2410 }
  - { offset: 0x6AD3A, size: 0x8, addend: 0x0, symName: __ZN3std12backtrace_rs9symbolize5gimli7Context11find_frames17h5933b96d93a6487fE, symObjAddr: 0x4A704, symBinAddr: 0x10003BD6C, symSize: 0x37C }
  - { offset: 0x6B1CE, size: 0x8, addend: 0x0, symName: __ZN3std12backtrace_rs9symbolize5gimli5macho6Object5parse17h7c99ba302784e02bE, symObjAddr: 0x4D518, symBinAddr: 0x10003EB50, symSize: 0xBD0 }
  - { offset: 0x6D08D, size: 0x8, addend: 0x0, symName: __ZN3std12backtrace_rs9symbolize5gimli5macho6Object7section17h7775decf80db3f1dE, symObjAddr: 0x4E0E8, symBinAddr: 0x10003F720, symSize: 0x3A0 }
  - { offset: 0x6D563, size: 0x8, addend: 0x0, symName: __ZN3std12backtrace_rs9symbolize5gimli5macho11find_header17hcafb8c4177e72185E, symObjAddr: 0x4D344, symBinAddr: 0x10003E97C, symSize: 0x1D4 }
  - { offset: 0x6DC66, size: 0x8, addend: 0x0, symName: __ZN3std12backtrace_rs9symbolize5gimli4mmap17h52426abb42b033dbE, symObjAddr: 0x4AA80, symBinAddr: 0x10003C0E8, symSize: 0x160 }
  - { offset: 0x6E27C, size: 0x8, addend: 0x0, symName: __ZN3std12backtrace_rs9symbolize5gimli7resolve17h4e500df68d74bbd0E, symObjAddr: 0x4ABE0, symBinAddr: 0x10003C248, symSize: 0x2734 }
  - { offset: 0x74287, size: 0x8, addend: 0x0, symName: __ZN3std12backtrace_rs9symbolize6Symbol4name17hfe1d12d8092fe441E, symObjAddr: 0x3B724, symBinAddr: 0x100034ECC, symSize: 0xE4 }
  - { offset: 0x743C2, size: 0x8, addend: 0x0, symName: '__ZN79_$LT$std..backtrace_rs..symbolize..SymbolName$u20$as$u20$core..fmt..Display$GT$3fmt17hebc8fecc1f34ea4cE', symObjAddr: 0x3B948, symBinAddr: 0x100034FB0, symSize: 0x100 }
  - { offset: 0x74500, size: 0x8, addend: 0x0, symName: __ZN3std12backtrace_rs9backtrace9libunwind5trace8trace_fn17h8dbf4a7a3c414c4fE, symObjAddr: 0x482AC, symBinAddr: 0x100039914, symSize: 0x48 }
  - { offset: 0x745DF, size: 0x8, addend: 0x0, symName: __ZN3std12backtrace_rs5print17BacktraceFrameFmt21print_raw_with_column17h4b2c8f5f934c00c0E, symObjAddr: 0x3BB48, symBinAddr: 0x1000350B0, symSize: 0x4D0 }
  - { offset: 0x748E3, size: 0x8, addend: 0x0, symName: __ZN3std6thread7current16try_with_current17h38cb00b0189d4132E, symObjAddr: 0x1F754, symBinAddr: 0x10002ED58, symSize: 0x98 }
  - { offset: 0x74A17, size: 0x8, addend: 0x0, symName: __ZN3std6thread7current12init_current17hb7b435bd17801980E, symObjAddr: 0x1F900, symBinAddr: 0x10004E41C, symSize: 0x17C }
  - { offset: 0x74DE3, size: 0x8, addend: 0x0, symName: __ZN3std6thread6Thread3new17h37ed5d6af114daceE, symObjAddr: 0x20814, symBinAddr: 0x10002EEEC, symSize: 0x164 }
  - { offset: 0x752AE, size: 0x8, addend: 0x0, symName: '__ZN118_$LT$std..thread..thread_name_string..ThreadNameString$u20$as$u20$core..convert..From$LT$alloc..string..String$GT$$GT$4from17h83ebc56d52812e83E', symObjAddr: 0x20718, symBinAddr: 0x10002EDF0, symSize: 0xFC }
  - { offset: 0x75499, size: 0x8, addend: 0x0, symName: __ZN3std6thread8ThreadId3new9exhausted17h1c0c206286c216f1E, symObjAddr: 0x206E0, symBinAddr: 0x10004E598, symSize: 0x38 }
  - { offset: 0x75582, size: 0x8, addend: 0x0, symName: __ZN3std5panic19get_backtrace_style17hb0947c7d43e173b3E, symObjAddr: 0x31B78, symBinAddr: 0x1000318A8, symSize: 0x10C }
  - { offset: 0x755A0, size: 0x8, addend: 0x0, symName: __ZN3std5panic19get_backtrace_style17hb0947c7d43e173b3E, symObjAddr: 0x31B78, symBinAddr: 0x1000318A8, symSize: 0x10C }
  - { offset: 0x755B5, size: 0x8, addend: 0x0, symName: __ZN3std5panic19get_backtrace_style17hb0947c7d43e173b3E, symObjAddr: 0x31B78, symBinAddr: 0x1000318A8, symSize: 0x10C }
  - { offset: 0x759C9, size: 0x8, addend: 0x0, symName: __ZN3std3env11current_dir17h378d2e00353b8c55E, symObjAddr: 0x21D9C, symBinAddr: 0x10002F050, symSize: 0x1D0 }
  - { offset: 0x75D42, size: 0x8, addend: 0x0, symName: __ZN3std3env7vars_os17h852cf544c003c314E, symObjAddr: 0x21F7C, symBinAddr: 0x10002F220, symSize: 0x314 }
  - { offset: 0x763C5, size: 0x8, addend: 0x0, symName: __ZN3std3env4_var17hedb8b309980f1fb0E, symObjAddr: 0x225F0, symBinAddr: 0x10002F534, symSize: 0xA8 }
  - { offset: 0x764C1, size: 0x8, addend: 0x0, symName: __ZN3std3env7_var_os17h91cf52b19c1ae9d5E, symObjAddr: 0x22698, symBinAddr: 0x10002F5DC, symSize: 0x160 }
  - { offset: 0x76784, size: 0x8, addend: 0x0, symName: __ZN3std2fs11OpenOptions5_open17h060c4979cd359a16E, symObjAddr: 0x24BC4, symBinAddr: 0x10002F73C, symSize: 0x250 }
  - { offset: 0x769CB, size: 0x8, addend: 0x0, symName: __ZN3std5alloc24default_alloc_error_hook17h2ab9053c5916c535E, symObjAddr: 0x39CF4, symBinAddr: 0x100033B28, symSize: 0x13C }
  - { offset: 0x76C0E, size: 0x8, addend: 0x0, symName: ___rdl_alloc, symObjAddr: 0x39E30, symBinAddr: 0x100033C64, symSize: 0x6C }
  - { offset: 0x76C8A, size: 0x8, addend: 0x0, symName: ___rdl_dealloc, symObjAddr: 0x39E9C, symBinAddr: 0x100033CD0, symSize: 0x10 }
  - { offset: 0x76CBA, size: 0x8, addend: 0x0, symName: ___rdl_realloc, symObjAddr: 0x39EAC, symBinAddr: 0x100033CE0, symSize: 0xB0 }
  - { offset: 0x76D8C, size: 0x8, addend: 0x0, symName: ___rdl_alloc_zeroed, symObjAddr: 0x39F5C, symBinAddr: 0x100033D90, symSize: 0x90 }
  - { offset: 0x76E2A, size: 0x8, addend: 0x0, symName: __ZN3std5alloc8rust_oom17hb46c5aeb63fa3cb5E, symObjAddr: 0x481B8, symBinAddr: 0x1000398D0, symSize: 0x2C }
  - { offset: 0x76E79, size: 0x8, addend: 0x0, symName: ___rg_oom, symObjAddr: 0x481E4, symBinAddr: 0x1000398FC, symSize: 0x18 }
  - { offset: 0x76FC0, size: 0x8, addend: 0x0, symName: '__ZN5gimli4read4unit32AttributeValue$LT$R$C$Offset$GT$11udata_value17h2b61cc9b6a98fb32E', symObjAddr: 0x14DE0, symBinAddr: 0x100024BE4, symSize: 0x90 }
  - { offset: 0x7701B, size: 0x8, addend: 0x0, symName: __ZN5gimli4read4unit15parse_attribute17h49f957a62d462029E, symObjAddr: 0x130AC, symBinAddr: 0x100022EB0, symSize: 0xF74 }
  - { offset: 0x79D0E, size: 0x8, addend: 0x0, symName: __ZN5gimli4read4unit15skip_attributes17h31562773efeee2f1E, symObjAddr: 0x14020, symBinAddr: 0x100023E24, symSize: 0x52C }
  - { offset: 0x7A730, size: 0x8, addend: 0x0, symName: '__ZN5gimli4read4unit18Attribute$LT$R$GT$5value17hbc90a819c686a39aE', symObjAddr: 0x1454C, symBinAddr: 0x100024350, symSize: 0x5DC }
  - { offset: 0x7ACD5, size: 0x8, addend: 0x0, symName: '__ZN5gimli4read4unit22EntriesCursor$LT$R$GT$10next_entry17hdf28d3cec3327cb6E', symObjAddr: 0x14B28, symBinAddr: 0x10002492C, symSize: 0x2B8 }
  - { offset: 0x7B2CB, size: 0x8, addend: 0x0, symName: '__ZN5gimli4read4unit33DebugInfoUnitHeadersIter$LT$R$GT$4next17h34712ebaabdffee4E', symObjAddr: 0x14E70, symBinAddr: 0x100024C74, symSize: 0x524 }
  - { offset: 0x7C404, size: 0x8, addend: 0x0, symName: '__ZN90_$LT$gimli..read..unit..AttributeValue$LT$R$C$Offset$GT$$u20$as$u20$core..clone..Clone$GT$5clone17h20eda0c245e8425dE', symObjAddr: 0x19914, symBinAddr: 0x100029260, symSize: 0x68 }
  - { offset: 0x7C655, size: 0x8, addend: 0x0, symName: __ZN5gimli4read6reader6Reader11read_offset17hb66bf69f998efb74E, symObjAddr: 0x179B8, symBinAddr: 0x1000277BC, symSize: 0xBC }
  - { offset: 0x7C891, size: 0x8, addend: 0x0, symName: __ZN5gimli4read6reader6Reader12read_sleb12817hd93e25793436fd15E, symObjAddr: 0x17A74, symBinAddr: 0x100027878, symSize: 0x21C }
  - { offset: 0x7C981, size: 0x8, addend: 0x0, symName: __ZN5gimli4read6reader6Reader12read_uleb12817ha415c724c08e32b4E, symObjAddr: 0x17C90, symBinAddr: 0x100027A94, symSize: 0xB0 }
  - { offset: 0x7CA37, size: 0x8, addend: 0x0, symName: __ZN5gimli4read6reader6Reader17read_sized_offset17hbf387c98074d1971E, symObjAddr: 0x17D40, symBinAddr: 0x100027B44, symSize: 0xEC }
  - { offset: 0x7CE4A, size: 0x8, addend: 0x0, symName: __ZN5gimli4read4line13parse_file_v517hcd59a31a0bc27fa9E, symObjAddr: 0x11F1C, symBinAddr: 0x100021D20, symSize: 0x2B4 }
  - { offset: 0x7CFC2, size: 0x8, addend: 0x0, symName: __ZN5gimli4read4line15FileEntryFormat5parse17he68be02eb21a6f6cE, symObjAddr: 0x121D0, symBinAddr: 0x100021FD4, symSize: 0x370 }
  - { offset: 0x7D7E9, size: 0x8, addend: 0x0, symName: __ZN5gimli4read4line15parse_attribute17h6dcb28bb0d8f0d55E, symObjAddr: 0x12540, symBinAddr: 0x100022344, symSize: 0x86C }
  - { offset: 0x7EF86, size: 0x8, addend: 0x0, symName: __ZN5gimli4read4line18parse_directory_v517h7ed9e48bb2fa518bE, symObjAddr: 0x12DAC, symBinAddr: 0x100022BB0, symSize: 0xE8 }
  - { offset: 0x7F017, size: 0x8, addend: 0x0, symName: '__ZN5gimli4read4line27FileEntry$LT$R$C$Offset$GT$5parse17h0cf5e73c1698de2fE', symObjAddr: 0x12E94, symBinAddr: 0x100022C98, symSize: 0x218 }
  - { offset: 0x7F73D, size: 0x8, addend: 0x0, symName: '__ZN5gimli4read5dwarf14Dwarf$LT$R$GT$11attr_string17hc40cc697c7ad324fE', symObjAddr: 0x17104, symBinAddr: 0x100026F08, symSize: 0x1E8 }
  - { offset: 0x7FF8B, size: 0x8, addend: 0x0, symName: '__ZN5gimli4read5dwarf13Unit$LT$R$GT$3new17h9c8abef5d8c50a6dE', symObjAddr: 0x15394, symBinAddr: 0x100025198, symSize: 0x1D70 }
  - { offset: 0x83B9D, size: 0x8, addend: 0x0, symName: '__ZN5gimli4read5index18UnitIndex$LT$R$GT$5parse17haa9f95b067464b66E', symObjAddr: 0x172EC, symBinAddr: 0x1000270F0, symSize: 0x6CC }
  - { offset: 0x84164, size: 0x8, addend: 0x0, symName: '__ZN5gimli4read7aranges30ArangeHeader$LT$R$C$Offset$GT$5parse17h20619b15205da501E', symObjAddr: 0x17E2C, symBinAddr: 0x100027C30, symSize: 0x2A8 }
  - { offset: 0x84A1B, size: 0x8, addend: 0x0, symName: '__ZN5gimli4read8rnglists20RngListIter$LT$R$GT$4next17h7e27fd598c933045E', symObjAddr: 0x180D4, symBinAddr: 0x100027ED8, symSize: 0xC74 }
  - { offset: 0x8795A, size: 0x8, addend: 0x0, symName: '__ZN9addr2line8function17Function$LT$R$GT$14parse_children17he1d2dd4eaf8a7357E', symObjAddr: 0x1DDF8, symBinAddr: 0x10002D68C, symSize: 0xE88 }
  - { offset: 0x89199, size: 0x8, addend: 0x0, symName: __ZN9addr2line8function10name_entry17hd712c6a5749c0b0eE, symObjAddr: 0x1DA8C, symBinAddr: 0x10002D320, symSize: 0x36C }
  - { offset: 0x89662, size: 0x8, addend: 0x0, symName: __ZN9addr2line8function9name_attr17h41adbb1d91e81904E, symObjAddr: 0x1EC80, symBinAddr: 0x10002E514, symSize: 0x1C0 }
  - { offset: 0x89885, size: 0x8, addend: 0x0, symName: '__ZN9addr2line4unit16ResUnit$LT$R$GT$25find_function_or_location17h353b18e237b7b2c9E', symObjAddr: 0x1BBAC, symBinAddr: 0x10002B440, symSize: 0x39C }
  - { offset: 0x89DEA, size: 0x8, addend: 0x0, symName: '__ZN9addr2line4unit16ResUnit$LT$R$GT$25find_function_or_location28_$u7b$$u7b$closure$u7d$$u7d$17h6a4d5a45c96dd11cE', symObjAddr: 0x1BF48, symBinAddr: 0x10002B7DC, symSize: 0x1490 }
  - { offset: 0x8C726, size: 0x8, addend: 0x0, symName: '__ZN9addr2line16Context$LT$R$GT$9find_unit17h672f8cef0a6cef5fE', symObjAddr: 0x19A34, symBinAddr: 0x1000292C8, symSize: 0x168 }
  - { offset: 0x8C8BD, size: 0x8, addend: 0x0, symName: __ZN9addr2line4line11render_file17h56c7df47359e37daE, symObjAddr: 0x19B9C, symBinAddr: 0x100029430, symSize: 0x4C0 }
  - { offset: 0x8D1D3, size: 0x8, addend: 0x0, symName: __ZN9addr2line4line9LazyLines6borrow17ha6d975a019e23e93E, symObjAddr: 0x1A05C, symBinAddr: 0x1000298F0, symSize: 0x1B50 }
  - { offset: 0x9061E, size: 0x8, addend: 0x0, symName: '__ZN9addr2line6lookup30LoopingLookup$LT$T$C$L$C$F$GT$10new_lookup17h590d4f5c6451cf3cE', symObjAddr: 0x1D654, symBinAddr: 0x10002CEE8, symSize: 0x438 }
  - { offset: 0x90BBD, size: 0x8, addend: 0x0, symName: '__ZN9addr2line5frame18FrameIter$LT$R$GT$4next17h4512ac685f8f4647E', symObjAddr: 0x1D3D8, symBinAddr: 0x10002CC6C, symSize: 0x27C }
  - { offset: 0x9105D, size: 0x8, addend: 0x0, symName: __ZN6object4read7archive13ArchiveMember5parse17he23e9c7a2dcdb639E, symObjAddr: 0x19204, symBinAddr: 0x100028BB4, symSize: 0x41C }
  - { offset: 0x91BEF, size: 0x8, addend: 0x0, symName: __ZN6object4read7archive23parse_bsd_extended_name17hc2b3d25eef9eeec9E, symObjAddr: 0x19620, symBinAddr: 0x100028FD0, symSize: 0x250 }
  - { offset: 0x92A14, size: 0x8, addend: 0x0, symName: _OUTLINED_FUNCTION_0, symObjAddr: 0x4E488, symBinAddr: 0x10003FAC0, symSize: 0x24 }
  - { offset: 0x92A2C, size: 0x8, addend: 0x0, symName: _OUTLINED_FUNCTION_1, symObjAddr: 0x4E4AC, symBinAddr: 0x10003FAE4, symSize: 0x8 }
  - { offset: 0x92A44, size: 0x8, addend: 0x0, symName: _OUTLINED_FUNCTION_2, symObjAddr: 0x4E4B4, symBinAddr: 0x10003FAEC, symSize: 0x10 }
  - { offset: 0x92A5C, size: 0x8, addend: 0x0, symName: _OUTLINED_FUNCTION_3, symObjAddr: 0x4E4C4, symBinAddr: 0x10003FAFC, symSize: 0x8 }
  - { offset: 0x92A74, size: 0x8, addend: 0x0, symName: _OUTLINED_FUNCTION_4, symObjAddr: 0x4E4CC, symBinAddr: 0x10003FB04, symSize: 0x8 }
  - { offset: 0x92A8C, size: 0x8, addend: 0x0, symName: _OUTLINED_FUNCTION_5, symObjAddr: 0x4E4D4, symBinAddr: 0x10003FB0C, symSize: 0xC }
  - { offset: 0x92AC2, size: 0x8, addend: 0x0, symName: '__ZN4core3ptr49drop_in_place$LT$panic_unwind..imp..Exception$GT$17h82c2656372694058E', symObjAddr: 0x0, symBinAddr: 0x10003FB18, symSize: 0x78 }
  - { offset: 0x92AE8, size: 0x8, addend: 0x0, symName: '__ZN4core3ptr49drop_in_place$LT$panic_unwind..imp..Exception$GT$17h82c2656372694058E', symObjAddr: 0x0, symBinAddr: 0x10003FB18, symSize: 0x78 }
  - { offset: 0x92BEF, size: 0x8, addend: 0x0, symName: '__ZN4core3ptr74drop_in_place$LT$alloc..boxed..Box$LT$panic_unwind..imp..Exception$GT$$GT$17h401304109b323233E', symObjAddr: 0x78, symBinAddr: 0x10003FB90, symSize: 0x8C }
  - { offset: 0x92EC5, size: 0x8, addend: 0x0, symName: __ZN12panic_unwind3imp5panic17exception_cleanup17h71dcf2e4fc4aa769E, symObjAddr: 0x214, symBinAddr: 0x10003FD2C, symSize: 0x18 }
  - { offset: 0x92EE1, size: 0x8, addend: 0x0, symName: ___rust_panic_cleanup, symObjAddr: 0x104, symBinAddr: 0x10003FC1C, symSize: 0x68 }
  - { offset: 0x92F83, size: 0x8, addend: 0x0, symName: ___rust_start_panic, symObjAddr: 0x16C, symBinAddr: 0x10003FC84, symSize: 0xA8 }
  - { offset: 0x9312C, size: 0x8, addend: 0x0, symName: '__ZN69_$LT$core..alloc..layout..LayoutError$u20$as$u20$core..fmt..Debug$GT$3fmt17h847390e718c251f1E', symObjAddr: 0x1C0, symBinAddr: 0x100048564, symSize: 0x20 }
  - { offset: 0x93487, size: 0x8, addend: 0x0, symName: __ZN5alloc7raw_vec17capacity_overflow17hf0a187d8de84083bE, symObjAddr: 0x1E0, symBinAddr: 0x100048584, symSize: 0x34 }
  - { offset: 0x934C9, size: 0x8, addend: 0x0, symName: '__ZN5alloc7raw_vec19RawVec$LT$T$C$A$GT$8grow_one17h207f2a977af11d07E', symObjAddr: 0x214, symBinAddr: 0x1000485B8, symSize: 0xAC }
  - { offset: 0x9364D, size: 0x8, addend: 0x0, symName: '__ZN5alloc7raw_vec20RawVecInner$LT$A$GT$7reserve21do_reserve_and_handle17hf907109019113e80E', symObjAddr: 0x2C0, symBinAddr: 0x10004EF9C, symSize: 0xB0 }
  - { offset: 0x9374F, size: 0x8, addend: 0x0, symName: __ZN5alloc7raw_vec11finish_grow17h91993be477efd13cE, symObjAddr: 0x370, symBinAddr: 0x10004F04C, symSize: 0x88 }
  - { offset: 0x937C5, size: 0x8, addend: 0x0, symName: __ZN5alloc7raw_vec12handle_error17h7f0cbdf2396d2d52E, symObjAddr: 0x3F8, symBinAddr: 0x10004F0D4, symSize: 0x18 }
  - { offset: 0x938BF, size: 0x8, addend: 0x0, symName: __ZN5alloc5alloc18handle_alloc_error17h14470fb7117d6c37E, symObjAddr: 0x410, symBinAddr: 0x10004F0EC, symSize: 0x18 }
  - { offset: 0x9394A, size: 0x8, addend: 0x0, symName: '__ZN93_$LT$alloc..collections..btree..mem..replace..PanicGuard$u20$as$u20$core..ops..drop..Drop$GT$4drop17h4dbb92e5b56c174aE', symObjAddr: 0xE10, symBinAddr: 0x100048664, symSize: 0xC }
  - { offset: 0x93A9A, size: 0x8, addend: 0x0, symName: __ZN5alloc6string6String15from_utf8_lossy17h7d31b366d97043dfE, symObjAddr: 0x2F28, symBinAddr: 0x100048974, symSize: 0x238 }
  - { offset: 0x93FE7, size: 0x8, addend: 0x0, symName: '__ZN98_$LT$alloc..string..String$u20$as$u20$core..convert..From$LT$alloc..borrow..Cow$LT$str$GT$$GT$$GT$4from17hde800050cd4f6a42E', symObjAddr: 0x4D48, symBinAddr: 0x100048BAC, symSize: 0xBC }
  - { offset: 0x94247, size: 0x8, addend: 0x0, symName: '__ZN72_$LT$$RF$str$u20$as$u20$alloc..ffi..c_str..CString..new..SpecNewImpl$GT$13spec_new_impl17h37cb9b6572c7448bE', symObjAddr: 0xEA8, symBinAddr: 0x100048670, symSize: 0x11C }
  - { offset: 0x94488, size: 0x8, addend: 0x0, symName: __ZN5alloc3ffi5c_str7CString19_from_vec_unchecked17h8dccb886daea0b28E, symObjAddr: 0x1110, symBinAddr: 0x10004878C, symSize: 0x160 }
  - { offset: 0x947B4, size: 0x8, addend: 0x0, symName: '__ZN5alloc3ffi5c_str131_$LT$impl$u20$core..convert..From$LT$$RF$core..ffi..c_str..CStr$GT$$u20$for$u20$alloc..boxed..Box$LT$core..ffi..c_str..CStr$GT$$GT$4from17hdf0b8dc43b6e7f83E', symObjAddr: 0x15EC, symBinAddr: 0x1000488EC, symSize: 0x88 }
  - { offset: 0x948B5, size: 0x8, addend: 0x0, symName: __ZN5alloc4sync32arcinner_layout_for_value_layout17h83c76efa9058bc15E, symObjAddr: 0x516C, symBinAddr: 0x100048C68, symSize: 0x74 }
  - { offset: 0x94F5E, size: 0x8, addend: 0x0, symName: __ZN4core5slice5index26slice_start_index_len_fail8do_panic7runtime17h9ddc6a7ecebba1e9E, symObjAddr: 0x1B12C, symBinAddr: 0x10004DDF4, symSize: 0x50 }
  - { offset: 0x94F91, size: 0x8, addend: 0x0, symName: __ZN4core5slice5index26slice_start_index_len_fail17hbef4cde757a23982E, symObjAddr: 0xEAAC, symBinAddr: 0x10004F518, symSize: 0xC }
  - { offset: 0x94FD7, size: 0x8, addend: 0x0, symName: __ZN4core5slice5index24slice_end_index_len_fail8do_panic7runtime17h385f2d9d99153a75E, symObjAddr: 0x1B17C, symBinAddr: 0x10004DE44, symSize: 0x50 }
  - { offset: 0x9500A, size: 0x8, addend: 0x0, symName: __ZN4core5slice5index24slice_end_index_len_fail17ha150b75f771021fbE, symObjAddr: 0xEAB8, symBinAddr: 0x10004F524, symSize: 0xC }
  - { offset: 0x95050, size: 0x8, addend: 0x0, symName: __ZN4core5slice5index22slice_index_order_fail8do_panic7runtime17he0b28f8ab2cd970eE, symObjAddr: 0x1B1CC, symBinAddr: 0x10004DE94, symSize: 0x50 }
  - { offset: 0x95083, size: 0x8, addend: 0x0, symName: __ZN4core5slice5index22slice_index_order_fail17h7613890af586566aE, symObjAddr: 0xEAC4, symBinAddr: 0x10004F530, symSize: 0xC }
  - { offset: 0x95474, size: 0x8, addend: 0x0, symName: __ZN4core5slice6memchr14memchr_aligned17h6296e9c99467795dE, symObjAddr: 0xE3FC, symBinAddr: 0x10004B124, symSize: 0xE8 }
  - { offset: 0x95550, size: 0x8, addend: 0x0, symName: __ZN4core5slice6memchr7memrchr17h6227400e5108dcb2E, symObjAddr: 0xE4E4, symBinAddr: 0x10004B20C, symSize: 0x120 }
  - { offset: 0x956A9, size: 0x8, addend: 0x0, symName: __ZN4core5slice4sort6stable5drift11sqrt_approx17hea6fce954f57e78dE, symObjAddr: 0xE604, symBinAddr: 0x10004B32C, symSize: 0x38 }
  - { offset: 0x95726, size: 0x8, addend: 0x0, symName: __ZN4core5slice4sort6shared9smallsort22panic_on_ord_violation17h87158ad44664865dE, symObjAddr: 0xE63C, symBinAddr: 0x10004F4E0, symSize: 0x38 }
  - { offset: 0x958EF, size: 0x8, addend: 0x0, symName: '__ZN42_$LT$str$u20$as$u20$core..fmt..Display$GT$3fmt17hf009c24fe723987dE', symObjAddr: 0xE0B4, symBinAddr: 0x10004AEA4, symSize: 0x20 }
  - { offset: 0x95AC1, size: 0x8, addend: 0x0, symName: __ZN4core3fmt9Formatter12pad_integral17hc0a697f6bef9bc99E, symObjAddr: 0xB878, symBinAddr: 0x100049D34, symSize: 0x3E8 }
  - { offset: 0x95DB7, size: 0x8, addend: 0x0, symName: __ZN4core3fmt9Formatter3pad17hc45fb048fd353932E, symObjAddr: 0xBCDC, symBinAddr: 0x10004A198, symSize: 0x370 }
  - { offset: 0x96272, size: 0x8, addend: 0x0, symName: __ZN4core3fmt9Formatter9write_str17h325369b1c335017bE, symObjAddr: 0xC49C, symBinAddr: 0x10004A508, symSize: 0x1C }
  - { offset: 0x96286, size: 0x8, addend: 0x0, symName: __ZN4core3fmt9Formatter12debug_struct17h01892abf43f6400aE, symObjAddr: 0xC4B8, symBinAddr: 0x10004A524, symSize: 0x3C }
  - { offset: 0x962C5, size: 0x8, addend: 0x0, symName: __ZN4core3fmt9Formatter26debug_struct_field1_finish17h9a6aad483cd91d8bE, symObjAddr: 0xC4F4, symBinAddr: 0x10004A560, symSize: 0xD0 }
  - { offset: 0x9639C, size: 0x8, addend: 0x0, symName: __ZN4core3fmt9Formatter26debug_struct_field2_finish17h50e0aebce8a58786E, symObjAddr: 0xC5C4, symBinAddr: 0x10004A630, symSize: 0x104 }
  - { offset: 0x96473, size: 0x8, addend: 0x0, symName: __ZN4core3fmt9Formatter11debug_tuple17hc10fd19a9736e89bE, symObjAddr: 0xCBD8, symBinAddr: 0x10004A734, symSize: 0x50 }
  - { offset: 0x964C8, size: 0x8, addend: 0x0, symName: __ZN4core3fmt9Formatter25debug_tuple_field1_finish17ha7de20751beabbe9E, symObjAddr: 0xCC28, symBinAddr: 0x10004A784, symSize: 0x168 }
  - { offset: 0x966CA, size: 0x8, addend: 0x0, symName: __ZN4core3fmt9Formatter25debug_tuple_field2_finish17h4e3f51f71b24019cE, symObjAddr: 0xCD90, symBinAddr: 0x10004A8EC, symSize: 0x1E0 }
  - { offset: 0x96984, size: 0x8, addend: 0x0, symName: __ZN4core3fmt9Formatter10debug_list17h017ce85e0805b545E, symObjAddr: 0xDB70, symBinAddr: 0x10004AACC, symSize: 0x48 }
  - { offset: 0x96A2C, size: 0x8, addend: 0x0, symName: __ZN4core3fmt8builders11DebugStruct5field17h2f0dca0d2df6974aE, symObjAddr: 0x84A0, symBinAddr: 0x10004952C, symSize: 0x1B8 }
  - { offset: 0x96C2B, size: 0x8, addend: 0x0, symName: __ZN4core3fmt8builders11DebugStruct6finish17he06e5b5d674203a3E, symObjAddr: 0x871C, symBinAddr: 0x1000496E4, symSize: 0x80 }
  - { offset: 0x96D2C, size: 0x8, addend: 0x0, symName: '__ZN68_$LT$core..fmt..builders..PadAdapter$u20$as$u20$core..fmt..Write$GT$9write_str17hfaa313c4119f7ed4E', symObjAddr: 0x81D0, symBinAddr: 0x10004925C, symSize: 0x250 }
  - { offset: 0x96FD7, size: 0x8, addend: 0x0, symName: '__ZN68_$LT$core..fmt..builders..PadAdapter$u20$as$u20$core..fmt..Write$GT$10write_char17hde86c020ea7d2eadE', symObjAddr: 0x8420, symBinAddr: 0x1000494AC, symSize: 0x80 }
  - { offset: 0x9705C, size: 0x8, addend: 0x0, symName: __ZN4core3fmt8builders10DebugTuple5field17hd1be49f816fc5cc6E, symObjAddr: 0x879C, symBinAddr: 0x100049764, symSize: 0x14C }
  - { offset: 0x971E8, size: 0x8, addend: 0x0, symName: __ZN4core3fmt8builders10DebugTuple6finish17h27cf27fbab1a8a2aE, symObjAddr: 0x89A8, symBinAddr: 0x1000498B0, symSize: 0xB0 }
  - { offset: 0x97337, size: 0x8, addend: 0x0, symName: __ZN4core3fmt8builders8DebugSet5entry17h30a73ad81f14a0f2E, symObjAddr: 0x8A58, symBinAddr: 0x100049960, symSize: 0x14C }
  - { offset: 0x974DC, size: 0x8, addend: 0x0, symName: __ZN4core3fmt8builders9DebugList6finish17h106b57f1a22a675eE, symObjAddr: 0x8D7C, symBinAddr: 0x100049AAC, symSize: 0x4C }
  - { offset: 0x97598, size: 0x8, addend: 0x0, symName: '__ZN4core3fmt3num3imp52_$LT$impl$u20$core..fmt..Display$u20$for$u20$u32$GT$3fmt17hbf1c5d9b6583f29fE', symObjAddr: 0x19B78, symBinAddr: 0x10004D938, symSize: 0x1C }
  - { offset: 0x975BF, size: 0x8, addend: 0x0, symName: '__ZN4core3fmt3num3imp52_$LT$impl$u20$core..fmt..Display$u20$for$u20$u64$GT$3fmt17h339ac4429cb37bf0E', symObjAddr: 0x19CE0, symBinAddr: 0x10004DAA0, symSize: 0x1C }
  - { offset: 0x975E6, size: 0x8, addend: 0x0, symName: '__ZN4core3fmt3num3imp52_$LT$impl$u20$core..fmt..Display$u20$for$u20$i32$GT$3fmt17hf55f78073eda7290E', symObjAddr: 0x19B94, symBinAddr: 0x10004D954, symSize: 0x28 }
  - { offset: 0x9764B, size: 0x8, addend: 0x0, symName: '__ZN4core3fmt3num3imp51_$LT$impl$u20$core..fmt..Display$u20$for$u20$u8$GT$3fmt17h4f4911bf2ed93697E', symObjAddr: 0x198A4, symBinAddr: 0x10004D888, symSize: 0xB0 }
  - { offset: 0x97711, size: 0x8, addend: 0x0, symName: '__ZN4core3fmt3num3imp21_$LT$impl$u20$u32$GT$4_fmt17h2969b048172ebb80E', symObjAddr: 0x19BBC, symBinAddr: 0x10004D97C, symSize: 0x124 }
  - { offset: 0x977F2, size: 0x8, addend: 0x0, symName: '__ZN4core3fmt3num3imp21_$LT$impl$u20$u64$GT$4_fmt17h99108e3731ddbd8bE', symObjAddr: 0x19D24, symBinAddr: 0x10004DABC, symSize: 0x130 }
  - { offset: 0x97A0D, size: 0x8, addend: 0x0, symName: '__ZN4core3fmt3num53_$LT$impl$u20$core..fmt..LowerHex$u20$for$u20$i32$GT$3fmt17ha0cbda09c03c5041E', symObjAddr: 0x18C80, symBinAddr: 0x10004D688, symSize: 0x80 }
  - { offset: 0x97AB5, size: 0x8, addend: 0x0, symName: '__ZN4core3fmt3num53_$LT$impl$u20$core..fmt..UpperHex$u20$for$u20$i32$GT$3fmt17heb47dcda93036a36E', symObjAddr: 0x18D00, symBinAddr: 0x10004D708, symSize: 0x80 }
  - { offset: 0x97B5D, size: 0x8, addend: 0x0, symName: '__ZN4core3fmt3num53_$LT$impl$u20$core..fmt..LowerHex$u20$for$u20$i64$GT$3fmt17hf3c2c8f0bf48439fE', symObjAddr: 0x18E60, symBinAddr: 0x10004D788, symSize: 0x80 }
  - { offset: 0x97C05, size: 0x8, addend: 0x0, symName: '__ZN4core3fmt3num53_$LT$impl$u20$core..fmt..UpperHex$u20$for$u20$i64$GT$3fmt17h4be4db71703d1dabE', symObjAddr: 0x18EE0, symBinAddr: 0x10004D808, symSize: 0x80 }
  - { offset: 0x97CA0, size: 0x8, addend: 0x0, symName: '__ZN4core3fmt3num52_$LT$impl$u20$core..fmt..LowerHex$u20$for$u20$i8$GT$3fmt17h7bff1931c71ac012E', symObjAddr: 0x188C0, symBinAddr: 0x10004D588, symSize: 0x80 }
  - { offset: 0x97D4F, size: 0x8, addend: 0x0, symName: '__ZN4core3fmt3num52_$LT$impl$u20$core..fmt..UpperHex$u20$for$u20$i8$GT$3fmt17h8dba84f19f74308cE', symObjAddr: 0x18940, symBinAddr: 0x10004D608, symSize: 0x80 }
  - { offset: 0x97E0D, size: 0x8, addend: 0x0, symName: '__ZN57_$LT$core..fmt..Formatter$u20$as$u20$core..fmt..Write$GT$10write_char17h712a7a5b14df20b9E', symObjAddr: 0xDCC0, symBinAddr: 0x10004AB14, symSize: 0x1C }
  - { offset: 0x97E40, size: 0x8, addend: 0x0, symName: __ZN4core3fmt5Write9write_fmt17h3451af32630eef07E, symObjAddr: 0xB4E4, symBinAddr: 0x100049AF8, symSize: 0x1C }
  - { offset: 0x97EA9, size: 0x8, addend: 0x0, symName: '__ZN59_$LT$core..fmt..Arguments$u20$as$u20$core..fmt..Display$GT$3fmt17h5a31f19e8734f16eE', symObjAddr: 0xB658, symBinAddr: 0x100049B14, symSize: 0x18 }
  - { offset: 0x97EDA, size: 0x8, addend: 0x0, symName: __ZN4core3fmt5write17he22fcab56bd3ec61E, symObjAddr: 0xB670, symBinAddr: 0x100049B2C, symSize: 0x208 }
  - { offset: 0x980ED, size: 0x8, addend: 0x0, symName: __ZN4core3fmt9Formatter12pad_integral12write_prefix17h37c97ab3a7046bd2E, symObjAddr: 0xBC60, symBinAddr: 0x10004A11C, symSize: 0x7C }
  - { offset: 0x98133, size: 0x8, addend: 0x0, symName: '__ZN42_$LT$$RF$T$u20$as$u20$core..fmt..Debug$GT$3fmt17h3133fac5ab5169ddE', symObjAddr: 0x1AE44, symBinAddr: 0x10004DBEC, symSize: 0xEC }
  - { offset: 0x98265, size: 0x8, addend: 0x0, symName: '__ZN42_$LT$$RF$T$u20$as$u20$core..fmt..Debug$GT$3fmt17h54e81ade5e5de57dE', symObjAddr: 0x1AF30, symBinAddr: 0x10004DCD8, symSize: 0x1C }
  - { offset: 0x98279, size: 0x8, addend: 0x0, symName: '__ZN42_$LT$$RF$T$u20$as$u20$core..fmt..Debug$GT$3fmt17h91eecf8d28a7cefeE', symObjAddr: 0x1AF4C, symBinAddr: 0x10004DCF4, symSize: 0xE4 }
  - { offset: 0x983D3, size: 0x8, addend: 0x0, symName: '__ZN40_$LT$str$u20$as$u20$core..fmt..Debug$GT$3fmt17hd8879d369458d53aE', symObjAddr: 0xDD40, symBinAddr: 0x10004AB30, symSize: 0x374 }
  - { offset: 0x9882C, size: 0x8, addend: 0x0, symName: '__ZN41_$LT$char$u20$as$u20$core..fmt..Debug$GT$3fmt17ha35a21095fe6b2aeE', symObjAddr: 0xE0D4, symBinAddr: 0x10004AEC4, symSize: 0xAC }
  - { offset: 0x98933, size: 0x8, addend: 0x0, symName: '__ZN43_$LT$char$u20$as$u20$core..fmt..Display$GT$3fmt17h3667dcfbeb89f1b7E', symObjAddr: 0xE180, symBinAddr: 0x10004AF70, symSize: 0xF0 }
  - { offset: 0x989BB, size: 0x8, addend: 0x0, symName: __ZN4core3fmt17pointer_fmt_inner17ha05a056f67b250baE, symObjAddr: 0xE270, symBinAddr: 0x10004B060, symSize: 0xC4 }
  - { offset: 0x98A79, size: 0x8, addend: 0x0, symName: '__ZN44_$LT$$RF$T$u20$as$u20$core..fmt..Display$GT$3fmt17h09a056bd82e73243E', symObjAddr: 0x1B044, symBinAddr: 0x10004DDD8, symSize: 0x1C }
  - { offset: 0x98C35, size: 0x8, addend: 0x0, symName: __ZN4core6option13unwrap_failed17h84f662fc2717d129E, symObjAddr: 0x7B40, symBinAddr: 0x10004F148, symSize: 0x1C }
  - { offset: 0x98C50, size: 0x8, addend: 0x0, symName: __ZN4core6option13expect_failed17h064f2cf84916882aE, symObjAddr: 0x7B5C, symBinAddr: 0x10004F164, symSize: 0x48 }
  - { offset: 0x98CA8, size: 0x8, addend: 0x0, symName: '__ZN71_$LT$core..ops..range..Range$LT$Idx$GT$$u20$as$u20$core..fmt..Debug$GT$3fmt17h8610e207370f6ef7E', symObjAddr: 0x442C, symBinAddr: 0x100048CDC, symSize: 0x1FC }
  - { offset: 0x9919E, size: 0x8, addend: 0x0, symName: __ZN4core6result13unwrap_failed17h2bf1684417afbe6bE, symObjAddr: 0x80FC, symBinAddr: 0x10004F484, symSize: 0x5C }
  - { offset: 0x9947F, size: 0x8, addend: 0x0, symName: __ZN4core3str7pattern11StrSearcher3new17habaad989c72fb7a8E, symObjAddr: 0x10248, symBinAddr: 0x10004BF7C, symSize: 0x904 }
  - { offset: 0x9972A, size: 0x8, addend: 0x0, symName: __ZN4core3str5count14do_count_chars17hc555c670c9b10e3bE, symObjAddr: 0xF128, symBinAddr: 0x10004B5A8, symSize: 0x724 }
  - { offset: 0x99A7B, size: 0x8, addend: 0x0, symName: __ZN4core3str5count23char_count_general_case17h0a6ef21a4825751aE, symObjAddr: 0xF84C, symBinAddr: 0x10004BCCC, symSize: 0x2B0 }
  - { offset: 0x99C31, size: 0x8, addend: 0x0, symName: __ZN4core3str6traits23str_index_overflow_fail17h6ba0069023d715bdE, symObjAddr: 0x10214, symBinAddr: 0x10004F53C, symSize: 0x34 }
  - { offset: 0x99C66, size: 0x8, addend: 0x0, symName: __ZN4core3str8converts9from_utf817h5b7081f8e3c98111E, symObjAddr: 0xECA0, symBinAddr: 0x10004B364, symSize: 0x244 }
  - { offset: 0x99CD5, size: 0x8, addend: 0x0, symName: '__ZN60_$LT$core..str..lossy..Debug$u20$as$u20$core..fmt..Debug$GT$3fmt17h509fb95436d3e626E', symObjAddr: 0x10B4C, symBinAddr: 0x10004C880, symSize: 0x3E4 }
  - { offset: 0x9A071, size: 0x8, addend: 0x0, symName: '__ZN87_$LT$core..str..lossy..Utf8Chunks$u20$as$u20$core..iter..traits..iterator..Iterator$GT$4next17hc0bb2f8797014ed2E', symObjAddr: 0x10F30, symBinAddr: 0x10004CC64, symSize: 0x1DC }
  - { offset: 0x9A274, size: 0x8, addend: 0x0, symName: __ZN4core3str16slice_error_fail17h8b847e853482f553E, symObjAddr: 0x111D8, symBinAddr: 0x10004F570, symSize: 0xC }
  - { offset: 0x9A28E, size: 0x8, addend: 0x0, symName: __ZN4core3str19slice_error_fail_rt17hd494714b9640772bE, symObjAddr: 0x11218, symBinAddr: 0x10004CE40, symSize: 0x390 }
  - { offset: 0x9A537, size: 0x8, addend: 0x0, symName: '__ZN4core4char7methods22_$LT$impl$u20$char$GT$16escape_debug_ext17hbfb443f01c84243eE', symObjAddr: 0x50B8, symBinAddr: 0x100048EFC, symSize: 0x260 }
  - { offset: 0x9A759, size: 0x8, addend: 0x0, symName: __ZN4core4char7methods15encode_utf8_raw8do_panic7runtime17h78f2c250983698c5E, symObjAddr: 0x171EC, symBinAddr: 0x10004D4C0, symSize: 0xC8 }
  - { offset: 0x9A820, size: 0x8, addend: 0x0, symName: '__ZN63_$LT$core..cell..BorrowMutError$u20$as$u20$core..fmt..Debug$GT$3fmt17h4f632190c10a8f91E', symObjAddr: 0x4F3C, symBinAddr: 0x100048ED8, symSize: 0x24 }
  - { offset: 0x9A87D, size: 0x8, addend: 0x0, symName: __ZN4core4cell22panic_already_borrowed17ha893d1f06b8b63deE, symObjAddr: 0x4F80, symBinAddr: 0x10004F104, symSize: 0x44 }
  - { offset: 0x9A8CD, size: 0x8, addend: 0x0, symName: __ZN4core7unicode12unicode_data15grapheme_extend11lookup_slow17hbcdf8b5a821a33ffE, symObjAddr: 0x1C978, symBinAddr: 0x10004DF08, symSize: 0x174 }
  - { offset: 0x9AAB8, size: 0x8, addend: 0x0, symName: __ZN4core7unicode12unicode_data2cc6lookup17he25d7ab2d2fa0f97E, symObjAddr: 0x1C954, symBinAddr: 0x10004DEE4, symSize: 0x24 }
  - { offset: 0x9AB24, size: 0x8, addend: 0x0, symName: __ZN4core7unicode9printable12is_printable17haae76351f6525626E, symObjAddr: 0x12144, symBinAddr: 0x10004D1D0, symSize: 0x2C0 }
  - { offset: 0x9AF62, size: 0x8, addend: 0x0, symName: __ZN4core3ffi5c_str4CStr19from_bytes_with_nul17h10506affebd054b1E, symObjAddr: 0x5700, symBinAddr: 0x10004915C, symSize: 0x100 }
  - { offset: 0x9B04F, size: 0x8, addend: 0x0, symName: __ZN4core9panicking9panic_fmt17h6a4014bec58fba4fE, symObjAddr: 0x7C94, symBinAddr: 0x10004F1AC, symSize: 0x20 }
  - { offset: 0x9B092, size: 0x8, addend: 0x0, symName: __ZN4core9panicking18panic_nounwind_fmt17hc1d4bd06ab2bbbabE, symObjAddr: 0x7CB4, symBinAddr: 0x10004F1CC, symSize: 0x3C }
  - { offset: 0x9B0D7, size: 0x8, addend: 0x0, symName: __ZN4core9panicking5panic17h3ce9043ca357f318E, symObjAddr: 0x7CF0, symBinAddr: 0x10004F208, symSize: 0x34 }
  - { offset: 0x9B106, size: 0x8, addend: 0x0, symName: __ZN4core9panicking14panic_nounwind17h96b8083b1a8e2dbdE, symObjAddr: 0x7D24, symBinAddr: 0x10004F23C, symSize: 0x3C }
  - { offset: 0x9B135, size: 0x8, addend: 0x0, symName: __ZN4core9panicking26panic_nounwind_nobacktrace17h984deb6b7d0bc614E, symObjAddr: 0x7D60, symBinAddr: 0x10004F278, symSize: 0x3C }
  - { offset: 0x9B164, size: 0x8, addend: 0x0, symName: __ZN4core9panicking18panic_bounds_check17h1ecfa3d00f46f81cE, symObjAddr: 0x7DE4, symBinAddr: 0x10004F2B4, symSize: 0x50 }
  - { offset: 0x9B196, size: 0x8, addend: 0x0, symName: __ZN4core9panicking19panic_cannot_unwind17ha5edf28dd2569dc8E, symObjAddr: 0x7EF8, symBinAddr: 0x10004F304, symSize: 0x18 }
  - { offset: 0x9B1B1, size: 0x8, addend: 0x0, symName: __ZN4core9panicking16panic_in_cleanup17hb960b8c5dea287d4E, symObjAddr: 0x7F10, symBinAddr: 0x10004F31C, symSize: 0x18 }
  - { offset: 0x9B1CC, size: 0x8, addend: 0x0, symName: __ZN4core9panicking13assert_failed17h2af7932842d934b6E, symObjAddr: 0x7F8C, symBinAddr: 0x10004F334, symSize: 0x24 }
  - { offset: 0x9B1E7, size: 0x8, addend: 0x0, symName: __ZN4core9panicking13assert_failed17hc7c9e0269eebc316E, symObjAddr: 0x7FB0, symBinAddr: 0x10004F358, symSize: 0x24 }
  - { offset: 0x9B202, size: 0x8, addend: 0x0, symName: __ZN4core9panicking19assert_failed_inner17hafd35c69af0230bfE, symObjAddr: 0x7FF4, symBinAddr: 0x10004F37C, symSize: 0x108 }
  - { offset: 0x9B24F, size: 0x8, addend: 0x0, symName: __ZN4core9panicking11panic_const23panic_const_div_by_zero17h0422238fbdaad2d7E, symObjAddr: 0x179B8, symBinAddr: 0x10004F57C, symSize: 0x34 }
  - { offset: 0x9B27E, size: 0x8, addend: 0x0, symName: __ZN4core9panicking11panic_const23panic_const_rem_by_zero17h723f338bbd7af040E, symObjAddr: 0x179EC, symBinAddr: 0x10004F5B0, symSize: 0x34 }
  - { offset: 0x9B2F7, size: 0x8, addend: 0x0, symName: __ZN4core5alloc6layout6Layout19is_size_align_valid17h054933e8a3b2a17cE, symObjAddr: 0x126A0, symBinAddr: 0x10004D490, symSize: 0x30 }
  - { offset: 0x9B350, size: 0x8, addend: 0x0, symName: _OUTLINED_FUNCTION_0, symObjAddr: 0x1D194, symBinAddr: 0x10004E07C, symSize: 0x10 }
...
