---
triple:          'arm64-apple-darwin'
binary-path:     '/Users/cedric/orange/ran-llm-claude-flow/src/rust-pipeline/target/debug/deps/libserde_derive-0b6f4db4fbf09432.dylib'
relocations:
  - { offset: 0x1E, size: 0x8, addend: 0x0, symName: __RNvMNtCsfvfooZQ3Axs_4core5sliceSNtNtCs1edtEUeLQ4Q_12serde_derive2de16FieldWithAliases4iterBy_, symObjAddr: 0x0, symBinAddr: 0xC50, symSize: 0x28 }
  - { offset: 0xF64, size: 0x8, addend: 0x0, symName: __RNvNtCs1edtEUeLQ4Q_12serde_derive2de25expand_derive_deserialize, symObjAddr: 0x6D4, symBinAddr: 0x1324, symSize: 0x1138 }
  - { offset: 0x11E6, size: 0x8, addend: 0x0, symName: __RNvNtCs1edtEUeLQ4Q_12serde_derive2de12precondition, symObjAddr: 0x180C, symBinAddr: 0x245C, symSize: 0x50 }
  - { offset: 0x121C, size: 0x8, addend: 0x0, symName: __RNvNtCs1edtEUeLQ4Q_12serde_derive2de18precondition_sized, symObjAddr: 0x185C, symBinAddr: 0x24AC, symSize: 0x130 }
  - { offset: 0x127C, size: 0x8, addend: 0x0, symName: __RNvNtCs1edtEUeLQ4Q_12serde_derive2de27precondition_no_de_lifetime, symObjAddr: 0x198C, symBinAddr: 0x25DC, symSize: 0x248 }
  - { offset: 0x13DD, size: 0x8, addend: 0x0, symName: __RNvNtCs1edtEUeLQ4Q_12serde_derive2de14build_generics, symObjAddr: 0x1E70, symBinAddr: 0x2AC0, symSize: 0x614 }
  - { offset: 0x14FA, size: 0x8, addend: 0x0, symName: __RNvNtCs1edtEUeLQ4Q_12serde_derive2de23needs_deserialize_bound, symObjAddr: 0x2484, symBinAddr: 0x30D4, symSize: 0xFC }
  - { offset: 0x1539, size: 0x8, addend: 0x0, symName: __RNCNvNtCs1edtEUeLQ4Q_12serde_derive2de23needs_deserialize_bound0B5_, symObjAddr: 0x2580, symBinAddr: 0x31D0, symSize: 0xC4 }
  - { offset: 0x1577, size: 0x8, addend: 0x0, symName: __RNvNtCs1edtEUeLQ4Q_12serde_derive2de16requires_default, symObjAddr: 0x2644, symBinAddr: 0x3294, symSize: 0x8C }
  - { offset: 0x15B1, size: 0x8, addend: 0x0, symName: __RNvNtCs1edtEUeLQ4Q_12serde_derive2de18borrowed_lifetimes, symObjAddr: 0x28E8, symBinAddr: 0x3538, symSize: 0x24C }
  - { offset: 0x1628, size: 0x8, addend: 0x0, symName: __RNCNvNtCs1edtEUeLQ4Q_12serde_derive2de18borrowed_lifetimes0B5_, symObjAddr: 0x2B34, symBinAddr: 0x3784, symSize: 0x94 }
  - { offset: 0x1669, size: 0x8, addend: 0x0, symName: __RNvNtCs1edtEUeLQ4Q_12serde_derive2de16deserialize_body, symObjAddr: 0x2BC8, symBinAddr: 0x3818, symSize: 0x350 }
  - { offset: 0x174C, size: 0x8, addend: 0x0, symName: __RNvNtCs1edtEUeLQ4Q_12serde_derive2de25deserialize_in_place_body, symObjAddr: 0x2F18, symBinAddr: 0x3B68, symSize: 0x30 }
  - { offset: 0x1789, size: 0x8, addend: 0x0, symName: __RNvNtCs1edtEUeLQ4Q_12serde_derive2de23deserialize_transparent, symObjAddr: 0x2F48, symBinAddr: 0x3B98, symSize: 0x6B4 }
  - { offset: 0x19CB, size: 0x8, addend: 0x0, symName: __RNCNvNtCs1edtEUeLQ4Q_12serde_derive2de23deserialize_transparent0B5_, symObjAddr: 0x35FC, symBinAddr: 0x424C, symSize: 0x3C }
  - { offset: 0x1A04, size: 0x8, addend: 0x0, symName: __RNCNvNtCs1edtEUeLQ4Q_12serde_derive2de23deserialize_transparents_0B5_, symObjAddr: 0x3638, symBinAddr: 0x4288, symSize: 0x474 }
  - { offset: 0x1B36, size: 0x8, addend: 0x0, symName: __RNvNtCs1edtEUeLQ4Q_12serde_derive2de16deserialize_from, symObjAddr: 0x3AAC, symBinAddr: 0x46FC, symSize: 0x344 }
  - { offset: 0x1BA5, size: 0x8, addend: 0x0, symName: __RNvNtCs1edtEUeLQ4Q_12serde_derive2de20deserialize_try_from, symObjAddr: 0x3DF0, symBinAddr: 0x4A40, symSize: 0x4F8 }
  - { offset: 0x1C40, size: 0x8, addend: 0x0, symName: __RNvNtCs1edtEUeLQ4Q_12serde_derive2de23deserialize_unit_struct, symObjAddr: 0x42E8, symBinAddr: 0x4F38, symSize: 0x1388 }
  - { offset: 0x1EF1, size: 0x8, addend: 0x0, symName: __RNvNtCs1edtEUeLQ4Q_12serde_derive2de17deserialize_tuple, symObjAddr: 0x5670, symBinAddr: 0x62C0, symSize: 0x20F4 }
  - { offset: 0x246D, size: 0x8, addend: 0x0, symName: __RNCNvNtCs1edtEUeLQ4Q_12serde_derive2de17deserialize_tuple0B5_, symObjAddr: 0x7764, symBinAddr: 0x83B4, symSize: 0x40 }
  - { offset: 0x24AE, size: 0x8, addend: 0x0, symName: __RNvNtCs1edtEUeLQ4Q_12serde_derive2de15deserialize_seq, symObjAddr: 0x77A4, symBinAddr: 0x83F4, symSize: 0xFC4 }
  - { offset: 0x29D5, size: 0x8, addend: 0x0, symName: __RNCNvNtCs1edtEUeLQ4Q_12serde_derive2de15deserialize_seq0B5_, symObjAddr: 0x8768, symBinAddr: 0x93B8, symSize: 0x40 }
  - { offset: 0x2A0E, size: 0x8, addend: 0x0, symName: __RNCNvNtCs1edtEUeLQ4Q_12serde_derive2de15deserialize_seqs_0B5_, symObjAddr: 0x87A8, symBinAddr: 0x93F8, symSize: 0xC2C }
  - { offset: 0x2CAF, size: 0x8, addend: 0x0, symName: __RNCNvNtCs1edtEUeLQ4Q_12serde_derive2de15deserialize_seqs0_0B5_, symObjAddr: 0x93D4, symBinAddr: 0xA024, symSize: 0x28 }
  - { offset: 0x2D2B, size: 0x8, addend: 0x0, symName: __RNvNtCs1edtEUeLQ4Q_12serde_derive2de26deserialize_newtype_struct, symObjAddr: 0x93FC, symBinAddr: 0xA04C, symSize: 0xD20 }
  - { offset: 0x3002, size: 0x8, addend: 0x0, symName: __RNvNtCs1edtEUeLQ4Q_12serde_derive2de18deserialize_struct, symObjAddr: 0xA11C, symBinAddr: 0xAD6C, symSize: 0x36D4 }
  - { offset: 0x383E, size: 0x8, addend: 0x0, symName: __RNCNvNtCs1edtEUeLQ4Q_12serde_derive2de18deserialize_struct0B5_, symObjAddr: 0xD7F0, symBinAddr: 0xE440, symSize: 0x8C }
  - { offset: 0x3889, size: 0x8, addend: 0x0, symName: __RNCNvNtCs1edtEUeLQ4Q_12serde_derive2de18deserialize_structs_0B5_, symObjAddr: 0xD87C, symBinAddr: 0xE4CC, symSize: 0xAC }
  - { offset: 0x38E4, size: 0x8, addend: 0x0, symName: __RNCNvNtCs1edtEUeLQ4Q_12serde_derive2de18deserialize_structs0_0B5_, symObjAddr: 0xD928, symBinAddr: 0xE578, symSize: 0x2C }
  - { offset: 0x3933, size: 0x8, addend: 0x0, symName: __RNvNtCs1edtEUeLQ4Q_12serde_derive2de16deserialize_enum, symObjAddr: 0xD954, symBinAddr: 0xE5A4, symSize: 0x16C }
  - { offset: 0x39F1, size: 0x8, addend: 0x0, symName: __RNCNvNtCs1edtEUeLQ4Q_12serde_derive2de16deserialize_enum0B5_, symObjAddr: 0xDAC0, symBinAddr: 0xE710, symSize: 0x40 }
  - { offset: 0x3A32, size: 0x8, addend: 0x0, symName: __RNvNtCs1edtEUeLQ4Q_12serde_derive2de28deserialize_homogeneous_enum, symObjAddr: 0xDB00, symBinAddr: 0xE750, symSize: 0x1B0 }
  - { offset: 0x3ACA, size: 0x8, addend: 0x0, symName: __RNvNtCs1edtEUeLQ4Q_12serde_derive2de25prepare_enum_variant_enum, symObjAddr: 0xDCB0, symBinAddr: 0xE900, symSize: 0x5F8 }
  - { offset: 0x3CA1, size: 0x8, addend: 0x0, symName: __RNCNvNtCs1edtEUeLQ4Q_12serde_derive2de25prepare_enum_variant_enum0B5_, symObjAddr: 0xE2A8, symBinAddr: 0xEEF8, symSize: 0x4C }
  - { offset: 0x3CFC, size: 0x8, addend: 0x0, symName: __RNCNvNtCs1edtEUeLQ4Q_12serde_derive2de25prepare_enum_variant_enums_0B5_, symObjAddr: 0xE2F4, symBinAddr: 0xEF44, symSize: 0x4C }
  - { offset: 0x3D57, size: 0x8, addend: 0x0, symName: __RNCNvNtCs1edtEUeLQ4Q_12serde_derive2de25prepare_enum_variant_enums0_0B5_, symObjAddr: 0xE340, symBinAddr: 0xEF90, symSize: 0x1A8 }
  - { offset: 0x3DF5, size: 0x8, addend: 0x0, symName: __RNCNvNtCs1edtEUeLQ4Q_12serde_derive2de25prepare_enum_variant_enums1_0B5_, symObjAddr: 0xE4E8, symBinAddr: 0xF138, symSize: 0x50 }
  - { offset: 0x3E50, size: 0x8, addend: 0x0, symName: __RNCNvNtCs1edtEUeLQ4Q_12serde_derive2de25prepare_enum_variant_enums2_0B5_, symObjAddr: 0xE538, symBinAddr: 0xF188, symSize: 0xAC }
  - { offset: 0x3ECF, size: 0x8, addend: 0x0, symName: __RNvNtCs1edtEUeLQ4Q_12serde_derive2de34deserialize_externally_tagged_enum, symObjAddr: 0xE5E4, symBinAddr: 0xF234, symSize: 0x1A40 }
  - { offset: 0x42D9, size: 0x8, addend: 0x0, symName: __RNCNvNtCs1edtEUeLQ4Q_12serde_derive2de34deserialize_externally_tagged_enum0B5_, symObjAddr: 0x10024, symBinAddr: 0x10C74, symSize: 0x44 }
  - { offset: 0x4324, size: 0x8, addend: 0x0, symName: __RNCNvNtCs1edtEUeLQ4Q_12serde_derive2de34deserialize_externally_tagged_enums_0B5_, symObjAddr: 0x10068, symBinAddr: 0x10CB8, symSize: 0x208 }
  - { offset: 0x43F6, size: 0x8, addend: 0x0, symName: __RNCNvNtCs1edtEUeLQ4Q_12serde_derive2de34deserialize_externally_tagged_enums0_0B5_, symObjAddr: 0x10270, symBinAddr: 0x10EC0, symSize: 0x40 }
  - { offset: 0x445C, size: 0x8, addend: 0x0, symName: __RNvNtCs1edtEUeLQ4Q_12serde_derive2de34deserialize_internally_tagged_enum, symObjAddr: 0x102B0, symBinAddr: 0x10F00, symSize: 0x988 }
  - { offset: 0x4679, size: 0x8, addend: 0x0, symName: __RNCNvNtCs1edtEUeLQ4Q_12serde_derive2de34deserialize_internally_tagged_enum0B5_, symObjAddr: 0x10C38, symBinAddr: 0x11888, symSize: 0x44 }
  - { offset: 0x46C4, size: 0x8, addend: 0x0, symName: __RNCNvNtCs1edtEUeLQ4Q_12serde_derive2de34deserialize_internally_tagged_enums_0B5_, symObjAddr: 0x10C7C, symBinAddr: 0x118CC, symSize: 0x1EC }
  - { offset: 0x47BD, size: 0x8, addend: 0x0, symName: __RNvNtCs1edtEUeLQ4Q_12serde_derive2de34deserialize_adjacently_tagged_enum, symObjAddr: 0x10E68, symBinAddr: 0x11AB8, symSize: 0x8E28 }
  - { offset: 0x55D9, size: 0x8, addend: 0x0, symName: __RNCNvNtCs1edtEUeLQ4Q_12serde_derive2de34deserialize_adjacently_tagged_enum0B5_, symObjAddr: 0x19C90, symBinAddr: 0x1A8E0, symSize: 0x44 }
  - { offset: 0x5624, size: 0x8, addend: 0x0, symName: __RNCNvNtCs1edtEUeLQ4Q_12serde_derive2de34deserialize_adjacently_tagged_enums_0B5_, symObjAddr: 0x19CD4, symBinAddr: 0x1A924, symSize: 0x1EC }
  - { offset: 0x56F7, size: 0x8, addend: 0x0, symName: __RNCNvNtCs1edtEUeLQ4Q_12serde_derive2de34deserialize_adjacently_tagged_enums0_0B5_, symObjAddr: 0x19EC0, symBinAddr: 0x1AB10, symSize: 0x44 }
  - { offset: 0x5742, size: 0x8, addend: 0x0, symName: __RNCNvNtCs1edtEUeLQ4Q_12serde_derive2de34deserialize_adjacently_tagged_enums1_0B5_, symObjAddr: 0x19F04, symBinAddr: 0x1AB54, symSize: 0x6C4 }
  - { offset: 0x5996, size: 0x8, addend: 0x0, symName: __RNvNtCs1edtEUeLQ4Q_12serde_derive2de25deserialize_untagged_enum, symObjAddr: 0x1A5C8, symBinAddr: 0x1B218, symSize: 0x54 }
  - { offset: 0x59F8, size: 0x8, addend: 0x0, symName: __RNvNtCs1edtEUeLQ4Q_12serde_derive2de31deserialize_untagged_enum_after, symObjAddr: 0x1A61C, symBinAddr: 0x1B26C, symSize: 0xBD0 }
  - { offset: 0x5C28, size: 0x8, addend: 0x0, symName: __RNCNvNtCs1edtEUeLQ4Q_12serde_derive2de31deserialize_untagged_enum_after0B5_, symObjAddr: 0x1B1EC, symBinAddr: 0x1BE3C, symSize: 0x40 }
  - { offset: 0x5C61, size: 0x8, addend: 0x0, symName: __RNCNvNtCs1edtEUeLQ4Q_12serde_derive2de31deserialize_untagged_enum_afters_0B5_, symObjAddr: 0x1B22C, symBinAddr: 0x1BE7C, symSize: 0xE4 }
  - { offset: 0x5CCB, size: 0x8, addend: 0x0, symName: __RNCNvNtCs1edtEUeLQ4Q_12serde_derive2de31deserialize_untagged_enum_afters0_0B5_, symObjAddr: 0x1B310, symBinAddr: 0x1BF60, symSize: 0x460 }
  - { offset: 0x5DA4, size: 0x8, addend: 0x0, symName: __RNvNtCs1edtEUeLQ4Q_12serde_derive2de37deserialize_externally_tagged_variant, symObjAddr: 0x1B770, symBinAddr: 0x1C3C0, symSize: 0x7D8 }
  - { offset: 0x5EF1, size: 0x8, addend: 0x0, symName: __RNvNtCs1edtEUeLQ4Q_12serde_derive2de37deserialize_internally_tagged_variant, symObjAddr: 0x1BF48, symBinAddr: 0x1CB98, symSize: 0x6FC }
  - { offset: 0x601E, size: 0x8, addend: 0x0, symName: __RNCNvNtCs1edtEUeLQ4Q_12serde_derive2de37deserialize_internally_tagged_variant0B5_, symObjAddr: 0x1C644, symBinAddr: 0x1D294, symSize: 0x148 }
  - { offset: 0x60A2, size: 0x8, addend: 0x0, symName: __RNvNtCs1edtEUeLQ4Q_12serde_derive2de28deserialize_untagged_variant, symObjAddr: 0x1C78C, symBinAddr: 0x1D3DC, symSize: 0xCA8 }
  - { offset: 0x6297, size: 0x8, addend: 0x0, symName: __RNCNvNtCs1edtEUeLQ4Q_12serde_derive2de28deserialize_untagged_variant0B5_, symObjAddr: 0x1D434, symBinAddr: 0x1E084, symSize: 0x148 }
  - { offset: 0x631B, size: 0x8, addend: 0x0, symName: __RNvNtCs1edtEUeLQ4Q_12serde_derive2de45deserialize_externally_tagged_newtype_variant, symObjAddr: 0x1D57C, symBinAddr: 0x1E1CC, symSize: 0xB74 }
  - { offset: 0x6550, size: 0x8, addend: 0x0, symName: __RNvNtCs1edtEUeLQ4Q_12serde_derive2de36deserialize_untagged_newtype_variant, symObjAddr: 0x1E0F0, symBinAddr: 0x1ED40, symSize: 0x71C }
  - { offset: 0x66D7, size: 0x8, addend: 0x0, symName: __RNvNtCs1edtEUeLQ4Q_12serde_derive2de32deserialize_generated_identifier, symObjAddr: 0x1E80C, symBinAddr: 0x1F45C, symSize: 0x114C }
  - { offset: 0x69B4, size: 0x8, addend: 0x0, symName: __RNCNvNtCs1edtEUeLQ4Q_12serde_derive2de32deserialize_generated_identifier0B5_, symObjAddr: 0x1F958, symBinAddr: 0x205A8, symSize: 0x28 }
  - { offset: 0x69F5, size: 0x8, addend: 0x0, symName: __RNvNtCs1edtEUeLQ4Q_12serde_derive2de28deserialize_field_identifier, symObjAddr: 0x1F980, symBinAddr: 0x205D0, symSize: 0x764 }
  - { offset: 0x6B8D, size: 0x8, addend: 0x0, symName: __RNvNtCs1edtEUeLQ4Q_12serde_derive2de29deserialize_custom_identifier, symObjAddr: 0x200E4, symBinAddr: 0x20D34, symSize: 0x1DCC }
  - { offset: 0x72BB, size: 0x8, addend: 0x0, symName: __RNCNvNtCs1edtEUeLQ4Q_12serde_derive2de29deserialize_custom_identifier0B5_, symObjAddr: 0x21EB0, symBinAddr: 0x22B00, symSize: 0x3B8 }
  - { offset: 0x736B, size: 0x8, addend: 0x0, symName: __RNCNvNtCs1edtEUeLQ4Q_12serde_derive2de29deserialize_custom_identifiers_0B5_, symObjAddr: 0x22268, symBinAddr: 0x22EB8, symSize: 0x98 }
  - { offset: 0x73A4, size: 0x8, addend: 0x0, symName: __RNCNvNtCs1edtEUeLQ4Q_12serde_derive2de29deserialize_custom_identifiers0_0B5_, symObjAddr: 0x22300, symBinAddr: 0x22F50, symSize: 0x2C }
  - { offset: 0x740A, size: 0x8, addend: 0x0, symName: __RNvNtCs1edtEUeLQ4Q_12serde_derive2de22deserialize_identifier, symObjAddr: 0x2232C, symBinAddr: 0x22F7C, symSize: 0x964C }
  - { offset: 0x8386, size: 0x8, addend: 0x0, symName: __RNCNvNtCs1edtEUeLQ4Q_12serde_derive2de22deserialize_identifier0B5_, symObjAddr: 0x2B978, symBinAddr: 0x2C5C8, symSize: 0x318 }
  - { offset: 0x859D, size: 0x8, addend: 0x0, symName: __RNCNvNtCs1edtEUeLQ4Q_12serde_derive2de22deserialize_identifiers_0B5_, symObjAddr: 0x2BC90, symBinAddr: 0x2C8E0, symSize: 0x35C }
  - { offset: 0x87BA, size: 0x8, addend: 0x0, symName: __RNCNCNvNtCs1edtEUeLQ4Q_12serde_derive2de22deserialize_identifiers_00B7_, symObjAddr: 0x2BFEC, symBinAddr: 0x2CC3C, symSize: 0x4C }
  - { offset: 0x87FB, size: 0x8, addend: 0x0, symName: __RNCNvNtCs1edtEUeLQ4Q_12serde_derive2de22deserialize_identifiers0_0B5_, symObjAddr: 0x2C038, symBinAddr: 0x2CC88, symSize: 0x1A8 }
  - { offset: 0x88F0, size: 0x8, addend: 0x0, symName: __RNvNtCs1edtEUeLQ4Q_12serde_derive2de15deserialize_map, symObjAddr: 0x2C1E0, symBinAddr: 0x2CE30, symSize: 0x30C8 }
  - { offset: 0x91B3, size: 0x8, addend: 0x0, symName: __RNCNvNtCs1edtEUeLQ4Q_12serde_derive2de15deserialize_map0B5_, symObjAddr: 0x2F2A8, symBinAddr: 0x2FEF8, symSize: 0x74 }
  - { offset: 0x920E, size: 0x8, addend: 0x0, symName: __RNCNvNtCs1edtEUeLQ4Q_12serde_derive2de15deserialize_maps_0B5_, symObjAddr: 0x2F31C, symBinAddr: 0x2FF6C, symSize: 0x90 }
  - { offset: 0x9259, size: 0x8, addend: 0x0, symName: __RNCNvNtCs1edtEUeLQ4Q_12serde_derive2de15deserialize_maps0_0B5_, symObjAddr: 0x2F3AC, symBinAddr: 0x2FFFC, symSize: 0x208 }
  - { offset: 0x92E0, size: 0x8, addend: 0x0, symName: __RNCNvNtCs1edtEUeLQ4Q_12serde_derive2de15deserialize_maps1_0B5_, symObjAddr: 0x2F5B4, symBinAddr: 0x30204, symSize: 0x90 }
  - { offset: 0x932B, size: 0x8, addend: 0x0, symName: __RNCNvNtCs1edtEUeLQ4Q_12serde_derive2de15deserialize_maps2_0B5_, symObjAddr: 0x2F644, symBinAddr: 0x30294, symSize: 0xF8C }
  - { offset: 0x95FA, size: 0x8, addend: 0x0, symName: __RNCNvNtCs1edtEUeLQ4Q_12serde_derive2de15deserialize_maps3_0B5_, symObjAddr: 0x305D0, symBinAddr: 0x31220, symSize: 0x40 }
  - { offset: 0x9633, size: 0x8, addend: 0x0, symName: __RNCNvNtCs1edtEUeLQ4Q_12serde_derive2de15deserialize_maps4_0B5_, symObjAddr: 0x30610, symBinAddr: 0x31260, symSize: 0x90 }
  - { offset: 0x967E, size: 0x8, addend: 0x0, symName: __RNCNvNtCs1edtEUeLQ4Q_12serde_derive2de15deserialize_maps5_0B5_, symObjAddr: 0x306A0, symBinAddr: 0x312F0, symSize: 0x340 }
  - { offset: 0x973B, size: 0x8, addend: 0x0, symName: __RNCNvNtCs1edtEUeLQ4Q_12serde_derive2de15deserialize_maps6_0B5_, symObjAddr: 0x309E0, symBinAddr: 0x31630, symSize: 0x90 }
  - { offset: 0x9786, size: 0x8, addend: 0x0, symName: __RNCNvNtCs1edtEUeLQ4Q_12serde_derive2de15deserialize_maps7_0B5_, symObjAddr: 0x30A70, symBinAddr: 0x316C0, symSize: 0x500 }
  - { offset: 0x98CF, size: 0x8, addend: 0x0, symName: __RNCNvNtCs1edtEUeLQ4Q_12serde_derive2de15deserialize_maps8_0B5_, symObjAddr: 0x30F70, symBinAddr: 0x31BC0, symSize: 0x1C4 }
  - { offset: 0x99FD, size: 0x8, addend: 0x0, symName: __RNvNtCs1edtEUeLQ4Q_12serde_derive2de7field_i, symObjAddr: 0x31134, symBinAddr: 0x31D84, symSize: 0xEC }
  - { offset: 0x9A4A, size: 0x8, addend: 0x0, symName: __RNvNtCs1edtEUeLQ4Q_12serde_derive2de21wrap_deserialize_with, symObjAddr: 0x31220, symBinAddr: 0x31E70, symSize: 0xEF0 }
  - { offset: 0x9CD9, size: 0x8, addend: 0x0, symName: __RNvNtCs1edtEUeLQ4Q_12serde_derive2de27wrap_deserialize_field_with, symObjAddr: 0x32110, symBinAddr: 0x32D60, symSize: 0xD8 }
  - { offset: 0x9D3B, size: 0x8, addend: 0x0, symName: __RNvNtCs1edtEUeLQ4Q_12serde_derive2de29wrap_deserialize_variant_with, symObjAddr: 0x321E8, symBinAddr: 0x32E38, symSize: 0x304 }
  - { offset: 0x9EC1, size: 0x8, addend: 0x0, symName: __RNCNvNtCs1edtEUeLQ4Q_12serde_derive2de29wrap_deserialize_variant_with0B5_, symObjAddr: 0x324EC, symBinAddr: 0x3313C, symSize: 0x2C }
  - { offset: 0x9F02, size: 0x8, addend: 0x0, symName: __RNvNtCs1edtEUeLQ4Q_12serde_derive2de25unwrap_to_variant_closure, symObjAddr: 0x32518, symBinAddr: 0x33168, symSize: 0xE94 }
  - { offset: 0xA495, size: 0x8, addend: 0x0, symName: __RNCNvNtCs1edtEUeLQ4Q_12serde_derive2de25unwrap_to_variant_closure0B5_, symObjAddr: 0x333AC, symBinAddr: 0x33FFC, symSize: 0x2C }
  - { offset: 0xA4CE, size: 0x8, addend: 0x0, symName: __RNCNvNtCs1edtEUeLQ4Q_12serde_derive2de25unwrap_to_variant_closures_0B5_, symObjAddr: 0x333D8, symBinAddr: 0x34028, symSize: 0x58 }
  - { offset: 0xA507, size: 0x8, addend: 0x0, symName: __RNCNvNtCs1edtEUeLQ4Q_12serde_derive2de25unwrap_to_variant_closures0_0B5_, symObjAddr: 0x33430, symBinAddr: 0x34080, symSize: 0x28 }
  - { offset: 0xA556, size: 0x8, addend: 0x0, symName: __RNvNtCs1edtEUeLQ4Q_12serde_derive2de15expr_is_missing, symObjAddr: 0x33458, symBinAddr: 0x340A8, symSize: 0x950 }
  - { offset: 0xA76C, size: 0x8, addend: 0x0, symName: __RNvNtCs1edtEUeLQ4Q_12serde_derive2de19expr_is_missing_seq, symObjAddr: 0x33DA8, symBinAddr: 0x349F8, symSize: 0x6A0 }
  - { offset: 0xA8EB, size: 0x8, addend: 0x0, symName: __RNvNtCs1edtEUeLQ4Q_12serde_derive2de15effective_style, symObjAddr: 0x34448, symBinAddr: 0x35098, symSize: 0xB8 }
  - { offset: 0xA937, size: 0x8, addend: 0x0, symName: __RNvNtCs1edtEUeLQ4Q_12serde_derive2de11has_flatten, symObjAddr: 0x34500, symBinAddr: 0x35150, symSize: 0x4C }
  - { offset: 0xA96A, size: 0x8, addend: 0x0, symName: __RNCNvNtCs1edtEUeLQ4Q_12serde_derive2de11has_flatten0B5_, symObjAddr: 0x3454C, symBinAddr: 0x3519C, symSize: 0x8C }
  - { offset: 0xA9B0, size: 0x8, addend: 0x0, symName: __RNvXs0_NtCs1edtEUeLQ4Q_12serde_derive2deNtB5_14DeImplGenericsNtNtCs2cqEZUIJimJ_5quote9to_tokens8ToTokens9to_tokens, symObjAddr: 0x345D8, symBinAddr: 0x35228, symSize: 0x224 }
  - { offset: 0xAA36, size: 0x8, addend: 0x0, symName: __RNvNtCs1edtEUeLQ4Q_12serde_derive2de26de_type_generics_to_tokens, symObjAddr: 0x347FC, symBinAddr: 0x3544C, symSize: 0x2A8 }
  - { offset: 0xAAC2, size: 0x8, addend: 0x0, symName: __RNvXs1_NtCs1edtEUeLQ4Q_12serde_derive2deNtB5_14DeTypeGenericsNtNtCs2cqEZUIJimJ_5quote9to_tokens8ToTokens9to_tokens, symObjAddr: 0x34AA4, symBinAddr: 0x356F4, symSize: 0x64 }
  - { offset: 0xAAFC, size: 0x8, addend: 0x0, symName: __RNvNtCs1edtEUeLQ4Q_12serde_derive2de22split_with_de_lifetime, symObjAddr: 0x34B08, symBinAddr: 0x35758, symSize: 0x70 }
  - { offset: 0xADB9, size: 0x8, addend: 0x0, symName: __RNvMNtCsfvfooZQ3Axs_4core5sliceSNtNtCs1edtEUeLQ4Q_12serde_derive2de16FieldWithAliases4iterBy_, symObjAddr: 0x0, symBinAddr: 0xC50, symSize: 0x28 }
  - { offset: 0xB016, size: 0x8, addend: 0x0, symName: __RNvXs1_NtNtNtCsfvfooZQ3Axs_4core3ops8function5implsQNCNvNtCs1edtEUeLQ4Q_12serde_derive2de15deserialize_maps1_0INtB7_5FnMutTRRTRNtNtNtBU_9internals3ast5FieldNtCs3cP53eQoTwO_11proc_macro25IdentEEE8call_mutBU_, symObjAddr: 0x28, symBinAddr: 0xC78, symSize: 0x30 }
  - { offset: 0xB065, size: 0x8, addend: 0x0, symName: __RNvXs1_NtNtNtCsfvfooZQ3Axs_4core3ops8function5implsQNCNvNtCs1edtEUeLQ4Q_12serde_derive2de15deserialize_maps4_0INtB7_5FnMutTRRTRNtNtNtBU_9internals3ast5FieldNtCs3cP53eQoTwO_11proc_macro25IdentEEE8call_mutBU_, symObjAddr: 0x58, symBinAddr: 0xCA8, symSize: 0x30 }
  - { offset: 0xB0B4, size: 0x8, addend: 0x0, symName: __RNvXs1_NtNtNtCsfvfooZQ3Axs_4core3ops8function5implsQNCNvNtCs1edtEUeLQ4Q_12serde_derive2de15deserialize_maps6_0INtB7_5FnMutTRRTRNtNtNtBU_9internals3ast5FieldNtCs3cP53eQoTwO_11proc_macro25IdentEEE8call_mutBU_, symObjAddr: 0x88, symBinAddr: 0xCD8, symSize: 0x30 }
  - { offset: 0xB103, size: 0x8, addend: 0x0, symName: __RNvXs1_NtNtNtCsfvfooZQ3Axs_4core3ops8function5implsQNCNvNtCs1edtEUeLQ4Q_12serde_derive2de15deserialize_maps_0INtB7_5FnMutTRRTRNtNtNtBU_9internals3ast5FieldNtCs3cP53eQoTwO_11proc_macro25IdentEEE8call_mutBU_, symObjAddr: 0xB8, symBinAddr: 0xD08, symSize: 0x30 }
  - { offset: 0xB152, size: 0x8, addend: 0x0, symName: __RNvXs1_NtNtNtCsfvfooZQ3Axs_4core3ops8function5implsQNCNvNtCs1edtEUeLQ4Q_12serde_derive2de18deserialize_struct0INtB7_5FnMutTRTjRNtNtNtBU_9internals3ast5FieldEEE8call_mutBU_, symObjAddr: 0xE8, symBinAddr: 0xD38, symSize: 0x30 }
  - { offset: 0xB1A1, size: 0x8, addend: 0x0, symName: __RNvXs1_NtNtNtCsfvfooZQ3Axs_4core3ops8function5implsQNCNvNtCs1edtEUeLQ4Q_12serde_derive2de25prepare_enum_variant_enum0INtB7_5FnMutTRTjRNtNtNtBU_9internals3ast7VariantEEE8call_mutBU_, symObjAddr: 0x118, symBinAddr: 0xD68, symSize: 0x30 }
  - { offset: 0xB1F0, size: 0x8, addend: 0x0, symName: __RNvXs1_NtNtNtCsfvfooZQ3Axs_4core3ops8function5implsQNCNvNtCs1edtEUeLQ4Q_12serde_derive2de31deserialize_untagged_enum_after0INtB7_5FnMutTRRNtNtNtBU_9internals3ast7VariantEE8call_mutBU_, symObjAddr: 0x148, symBinAddr: 0xD98, symSize: 0x30 }
  - { offset: 0xB23F, size: 0x8, addend: 0x0, symName: __RNvXs1_NtNtNtCsfvfooZQ3Axs_4core3ops8function5implsQNCNvNtCs1edtEUeLQ4Q_12serde_derive2de34deserialize_adjacently_tagged_enum0INtB7_5FnMutTRTjRNtNtNtBU_9internals3ast7VariantEEE8call_mutBU_, symObjAddr: 0x178, symBinAddr: 0xDC8, symSize: 0x30 }
  - { offset: 0xB28E, size: 0x8, addend: 0x0, symName: __RNvXs1_NtNtNtCsfvfooZQ3Axs_4core3ops8function5implsQNCNvNtCs1edtEUeLQ4Q_12serde_derive2de34deserialize_adjacently_tagged_enums1_0INtB7_5FnMutTTjRNtNtNtBU_9internals3ast7VariantEEE8call_mutBU_, symObjAddr: 0x1A8, symBinAddr: 0xDF8, symSize: 0x38 }
  - { offset: 0xB2DD, size: 0x8, addend: 0x0, symName: __RNvXs1_NtNtNtCsfvfooZQ3Axs_4core3ops8function5implsQNCNvNtCs1edtEUeLQ4Q_12serde_derive2de34deserialize_externally_tagged_enum0INtB7_5FnMutTRTjRNtNtNtBU_9internals3ast7VariantEEE8call_mutBU_, symObjAddr: 0x1E0, symBinAddr: 0xE30, symSize: 0x30 }
  - { offset: 0xB32C, size: 0x8, addend: 0x0, symName: __RNvXs1_NtNtNtCsfvfooZQ3Axs_4core3ops8function5implsQNCNvNtCs1edtEUeLQ4Q_12serde_derive2de34deserialize_internally_tagged_enum0INtB7_5FnMutTRTjRNtNtNtBU_9internals3ast7VariantEEE8call_mutBU_, symObjAddr: 0x210, symBinAddr: 0xE60, symSize: 0x30 }
  - { offset: 0xB381, size: 0x8, addend: 0x0, symName: __RNvXs2_NtNtNtCsfvfooZQ3Axs_4core3ops8function5implsQNCNCNvNtCs1edtEUeLQ4Q_12serde_derive2de22deserialize_identifiers_00INtB7_6FnOnceTRNtNtNtBW_9internals4name4NameEE9call_onceBW_, symObjAddr: 0x240, symBinAddr: 0xE90, symSize: 0x2C }
  - { offset: 0xB3D0, size: 0x8, addend: 0x0, symName: __RNvXs2_NtNtNtCsfvfooZQ3Axs_4core3ops8function5implsQNCNvNtCs1edtEUeLQ4Q_12serde_derive2de15deserialize_maps0_0INtB7_6FnOnceTRTRNtNtNtBU_9internals3ast5FieldNtCs3cP53eQoTwO_11proc_macro25IdentEEE9call_onceBU_, symObjAddr: 0x26C, symBinAddr: 0xEBC, symSize: 0x2C }
  - { offset: 0xB41F, size: 0x8, addend: 0x0, symName: __RNvXs2_NtNtNtCsfvfooZQ3Axs_4core3ops8function5implsQNCNvNtCs1edtEUeLQ4Q_12serde_derive2de15deserialize_maps2_0INtB7_6FnOnceTRTRNtNtNtBU_9internals3ast5FieldNtCs3cP53eQoTwO_11proc_macro25IdentEEE9call_onceBU_, symObjAddr: 0x298, symBinAddr: 0xEE8, symSize: 0x2C }
  - { offset: 0xB46E, size: 0x8, addend: 0x0, symName: __RNvXs2_NtNtNtCsfvfooZQ3Axs_4core3ops8function5implsQNCNvNtCs1edtEUeLQ4Q_12serde_derive2de15deserialize_maps5_0INtB7_6FnOnceTRTRNtNtNtBU_9internals3ast5FieldNtCs3cP53eQoTwO_11proc_macro25IdentEEE9call_onceBU_, symObjAddr: 0x2C4, symBinAddr: 0xF14, symSize: 0x2C }
  - { offset: 0xB4BD, size: 0x8, addend: 0x0, symName: __RNvXs2_NtNtNtCsfvfooZQ3Axs_4core3ops8function5implsQNCNvNtCs1edtEUeLQ4Q_12serde_derive2de15deserialize_maps7_0INtB7_6FnOnceTRTRNtNtNtBU_9internals3ast5FieldNtCs3cP53eQoTwO_11proc_macro25IdentEEE9call_onceBU_, symObjAddr: 0x2F0, symBinAddr: 0xF40, symSize: 0x2C }
  - { offset: 0xB50C, size: 0x8, addend: 0x0, symName: __RNvXs2_NtNtNtCsfvfooZQ3Axs_4core3ops8function5implsQNCNvNtCs1edtEUeLQ4Q_12serde_derive2de15deserialize_maps8_0INtB7_6FnOnceTRTRNtNtNtBU_9internals3ast5FieldNtCs3cP53eQoTwO_11proc_macro25IdentEEE9call_onceBU_, symObjAddr: 0x31C, symBinAddr: 0xF6C, symSize: 0x2C }
  - { offset: 0xB55B, size: 0x8, addend: 0x0, symName: __RNvXs2_NtNtNtCsfvfooZQ3Axs_4core3ops8function5implsQNCNvNtCs1edtEUeLQ4Q_12serde_derive2de15deserialize_seqs0_0INtB7_6FnOnceTRNtNtNtBU_9internals3ast5FieldEE9call_onceBU_, symObjAddr: 0x348, symBinAddr: 0xF98, symSize: 0x2C }
  - { offset: 0xB5AA, size: 0x8, addend: 0x0, symName: __RNvXs2_NtNtNtCsfvfooZQ3Axs_4core3ops8function5implsQNCNvNtCs1edtEUeLQ4Q_12serde_derive2de15deserialize_seqs_0INtB7_6FnOnceTTNtCs3cP53eQoTwO_11proc_macro25IdentRNtNtNtBU_9internals3ast5FieldEEE9call_onceBU_, symObjAddr: 0x374, symBinAddr: 0xFC4, symSize: 0x3C }
  - { offset: 0xB5F9, size: 0x8, addend: 0x0, symName: __RNvXs2_NtNtNtCsfvfooZQ3Axs_4core3ops8function5implsQNCNvNtCs1edtEUeLQ4Q_12serde_derive2de18deserialize_structs0_0INtB7_6FnOnceTRNtBS_16FieldWithAliasesEE9call_onceBU_, symObjAddr: 0x3B0, symBinAddr: 0x1000, symSize: 0x2C }
  - { offset: 0xB648, size: 0x8, addend: 0x0, symName: __RNvXs2_NtNtNtCsfvfooZQ3Axs_4core3ops8function5implsQNCNvNtCs1edtEUeLQ4Q_12serde_derive2de18deserialize_structs_0INtB7_6FnOnceTTjRNtNtNtBU_9internals3ast5FieldEEE9call_onceBU_, symObjAddr: 0x3DC, symBinAddr: 0x102C, symSize: 0x34 }
  - { offset: 0xB697, size: 0x8, addend: 0x0, symName: __RNvXs2_NtNtNtCsfvfooZQ3Axs_4core3ops8function5implsQNCNvNtCs1edtEUeLQ4Q_12serde_derive2de22deserialize_identifier0INtB7_6FnOnceTRNtBS_16FieldWithAliasesEE9call_onceBU_, symObjAddr: 0x410, symBinAddr: 0x1060, symSize: 0x2C }
  - { offset: 0xB6E6, size: 0x8, addend: 0x0, symName: __RNvXs2_NtNtNtCsfvfooZQ3Axs_4core3ops8function5implsQNCNvNtCs1edtEUeLQ4Q_12serde_derive2de22deserialize_identifiers0_0INtB7_6FnOnceTTjRNtBS_16FieldWithAliasesEEE9call_onceBU_, symObjAddr: 0x43C, symBinAddr: 0x108C, symSize: 0x34 }
  - { offset: 0xB735, size: 0x8, addend: 0x0, symName: __RNvXs2_NtNtNtCsfvfooZQ3Axs_4core3ops8function5implsQNCNvNtCs1edtEUeLQ4Q_12serde_derive2de22deserialize_identifiers_0INtB7_6FnOnceTRNtBS_16FieldWithAliasesEE9call_onceBU_, symObjAddr: 0x470, symBinAddr: 0x10C0, symSize: 0x2C }
  - { offset: 0xB784, size: 0x8, addend: 0x0, symName: __RNvXs2_NtNtNtCsfvfooZQ3Axs_4core3ops8function5implsQNCNvNtCs1edtEUeLQ4Q_12serde_derive2de23deserialize_transparents_0INtB7_6FnOnceTRNtNtNtBU_9internals3ast5FieldEE9call_onceBU_, symObjAddr: 0x49C, symBinAddr: 0x10EC, symSize: 0x2C }
  - { offset: 0xB7D3, size: 0x8, addend: 0x0, symName: __RNvXs2_NtNtNtCsfvfooZQ3Axs_4core3ops8function5implsQNCNvNtCs1edtEUeLQ4Q_12serde_derive2de25prepare_enum_variant_enums1_0INtB7_6FnOnceTTjRNtNtNtBU_9internals3ast7VariantEEE9call_onceBU_, symObjAddr: 0x4C8, symBinAddr: 0x1118, symSize: 0x34 }
  - { offset: 0xB822, size: 0x8, addend: 0x0, symName: __RNvXs2_NtNtNtCsfvfooZQ3Axs_4core3ops8function5implsQNCNvNtCs1edtEUeLQ4Q_12serde_derive2de25prepare_enum_variant_enums2_0INtB7_6FnOnceTTjRNtNtNtBU_9internals3ast7VariantEEE9call_onceBU_, symObjAddr: 0x4FC, symBinAddr: 0x114C, symSize: 0x34 }
  - { offset: 0xB871, size: 0x8, addend: 0x0, symName: __RNvXs2_NtNtNtCsfvfooZQ3Axs_4core3ops8function5implsQNCNvNtCs1edtEUeLQ4Q_12serde_derive2de25unwrap_to_variant_closure0INtB7_6FnOnceTRNtNtNtBU_9internals3ast5FieldEE9call_onceBU_, symObjAddr: 0x530, symBinAddr: 0x1180, symSize: 0x2C }
  - { offset: 0xB8C0, size: 0x8, addend: 0x0, symName: __RNvXs2_NtNtNtCsfvfooZQ3Axs_4core3ops8function5implsQNCNvNtCs1edtEUeLQ4Q_12serde_derive2de25unwrap_to_variant_closures0_0INtB7_6FnOnceTRNtNtNtBU_9internals3ast5FieldEE9call_onceBU_, symObjAddr: 0x55C, symBinAddr: 0x11AC, symSize: 0x2C }
  - { offset: 0xB90F, size: 0x8, addend: 0x0, symName: __RNvXs2_NtNtNtCsfvfooZQ3Axs_4core3ops8function5implsQNCNvNtCs1edtEUeLQ4Q_12serde_derive2de25unwrap_to_variant_closures_0INtB7_6FnOnceTjEE9call_onceBU_, symObjAddr: 0x588, symBinAddr: 0x11D8, symSize: 0x2C }
  - { offset: 0xB95E, size: 0x8, addend: 0x0, symName: __RNvXs2_NtNtNtCsfvfooZQ3Axs_4core3ops8function5implsQNCNvNtCs1edtEUeLQ4Q_12serde_derive2de29deserialize_custom_identifiers0_0INtB7_6FnOnceTRNtBS_16FieldWithAliasesEE9call_onceBU_, symObjAddr: 0x5B4, symBinAddr: 0x1204, symSize: 0x2C }
  - { offset: 0xB9AD, size: 0x8, addend: 0x0, symName: __RNvXs2_NtNtNtCsfvfooZQ3Axs_4core3ops8function5implsQNCNvNtCs1edtEUeLQ4Q_12serde_derive2de29wrap_deserialize_variant_with0INtB7_6FnOnceTRNtNtNtBU_9internals3ast5FieldEE9call_onceBU_, symObjAddr: 0x5E0, symBinAddr: 0x1230, symSize: 0x2C }
  - { offset: 0xB9FC, size: 0x8, addend: 0x0, symName: __RNvXs2_NtNtNtCsfvfooZQ3Axs_4core3ops8function5implsQNCNvNtCs1edtEUeLQ4Q_12serde_derive2de31deserialize_untagged_enum_afters_0INtB7_6FnOnceTRNtNtNtBU_9internals3ast7VariantEE9call_onceBU_, symObjAddr: 0x60C, symBinAddr: 0x125C, symSize: 0x2C }
  - { offset: 0xBA4B, size: 0x8, addend: 0x0, symName: __RNvXs2_NtNtNtCsfvfooZQ3Axs_4core3ops8function5implsQNCNvNtCs1edtEUeLQ4Q_12serde_derive2de34deserialize_adjacently_tagged_enums_0INtB7_6FnOnceTTjRNtNtNtBU_9internals3ast7VariantEEE9call_onceBU_, symObjAddr: 0x638, symBinAddr: 0x1288, symSize: 0x34 }
  - { offset: 0xBA9A, size: 0x8, addend: 0x0, symName: __RNvXs2_NtNtNtCsfvfooZQ3Axs_4core3ops8function5implsQNCNvNtCs1edtEUeLQ4Q_12serde_derive2de34deserialize_externally_tagged_enums_0INtB7_6FnOnceTTjRNtNtNtBU_9internals3ast7VariantEEE9call_onceBU_, symObjAddr: 0x66C, symBinAddr: 0x12BC, symSize: 0x34 }
  - { offset: 0xBAE9, size: 0x8, addend: 0x0, symName: __RNvXs2_NtNtNtCsfvfooZQ3Axs_4core3ops8function5implsQNCNvNtCs1edtEUeLQ4Q_12serde_derive2de34deserialize_internally_tagged_enums_0INtB7_6FnOnceTTjRNtNtNtBU_9internals3ast7VariantEEE9call_onceBU_, symObjAddr: 0x6A0, symBinAddr: 0x12F0, symSize: 0x34 }
  - { offset: 0x15ECA, size: 0x8, addend: 0x0, symName: __RNvMNtCs1edtEUeLQ4Q_12serde_derive2deNtB2_10Parameters3new, symObjAddr: 0x1BD4, symBinAddr: 0x2824, symSize: 0x234 }
  - { offset: 0x16004, size: 0x8, addend: 0x0, symName: __RNvMNtCs1edtEUeLQ4Q_12serde_derive2deNtB2_10Parameters9type_name, symObjAddr: 0x1E08, symBinAddr: 0x2A58, symSize: 0x68 }
  - { offset: 0x16050, size: 0x8, addend: 0x0, symName: __RNvMs_NtCs1edtEUeLQ4Q_12serde_derive2deNtB4_17BorrowedLifetimes11de_lifetime, symObjAddr: 0x26D0, symBinAddr: 0x3320, symSize: 0x9C }
  - { offset: 0x16072, size: 0x8, addend: 0x0, symName: __RNvMs_NtCs1edtEUeLQ4Q_12serde_derive2deNtB4_17BorrowedLifetimes17de_lifetime_param, symObjAddr: 0x276C, symBinAddr: 0x33BC, symSize: 0x17C }
  - { offset: 0x16BC2, size: 0x8, addend: 0x0, symName: __RINvMNtNtNtCse1nGBsou5OW_5alloc11collections5btree4nodeINtB3_8LeafNodeNtNtCs6IAuOt8vWmF_3syn8lifetime8LifetimeNtNtB5_7set_val9SetValZSTE3newNtNtB9_5alloc6GlobalECs1edtEUeLQ4Q_12serde_derive, symObjAddr: 0x0, symBinAddr: 0x357C8, symSize: 0x68 }
  - { offset: 0x22677, size: 0x8, addend: 0x0, symName: __RINvNtNtNtCse1nGBsou5OW_5alloc11collections5btree4node12slice_insertINtNtNtCsfvfooZQ3Axs_4core3ptr8non_null7NonNullINtB2_8LeafNodeNtNtCs6IAuOt8vWmF_3syn8lifetime8LifetimeNtNtB4_7set_val9SetValZSTEEECs1edtEUeLQ4Q_12serde_derive, symObjAddr: 0x4160, symBinAddr: 0x39928, symSize: 0x114 }
  - { offset: 0x227FB, size: 0x8, addend: 0x0, symName: __RINvNtNtNtCse1nGBsou5OW_5alloc11collections5btree4node12slice_insertINtNtNtCsfvfooZQ3Axs_4core3ptr8non_null7NonNullINtB2_8LeafNodeNtNtNtCs1edtEUeLQ4Q_12serde_derive9internals4name4NameNtNtB4_7set_val9SetValZSTEEEB2a_, symObjAddr: 0x4274, symBinAddr: 0x39A3C, symSize: 0x114 }
  - { offset: 0x2297F, size: 0x8, addend: 0x0, symName: __RINvNtNtNtCse1nGBsou5OW_5alloc11collections5btree4node12slice_insertNtNtB4_7set_val9SetValZSTECs1edtEUeLQ4Q_12serde_derive, symObjAddr: 0x4388, symBinAddr: 0x39B50, symSize: 0xD0 }
  - { offset: 0x22A94, size: 0x8, addend: 0x0, symName: __RINvNtNtNtCse1nGBsou5OW_5alloc11collections5btree4node12slice_insertNtNtCs6IAuOt8vWmF_3syn8lifetime8LifetimeECs1edtEUeLQ4Q_12serde_derive, symObjAddr: 0x4458, symBinAddr: 0x39C20, symSize: 0x13C }
  - { offset: 0x22C1B, size: 0x8, addend: 0x0, symName: __RINvNtNtNtCse1nGBsou5OW_5alloc11collections5btree4node12slice_insertNtNtNtCs1edtEUeLQ4Q_12serde_derive9internals4name4NameEB1a_, symObjAddr: 0x4594, symBinAddr: 0x39D5C, symSize: 0x13C }
  - { offset: 0x22DA2, size: 0x8, addend: 0x0, symName: __RINvNtNtNtCse1nGBsou5OW_5alloc11collections5btree4node13move_to_sliceINtNtNtCsfvfooZQ3Axs_4core3ptr8non_null7NonNullINtB2_8LeafNodeNtNtCs6IAuOt8vWmF_3syn8lifetime8LifetimeNtNtB4_7set_val9SetValZSTEEECs1edtEUeLQ4Q_12serde_derive, symObjAddr: 0x46D0, symBinAddr: 0x39E98, symSize: 0xA8 }
  - { offset: 0x22E4E, size: 0x8, addend: 0x0, symName: __RINvNtNtNtCse1nGBsou5OW_5alloc11collections5btree4node13move_to_sliceINtNtNtCsfvfooZQ3Axs_4core3ptr8non_null7NonNullINtB2_8LeafNodeNtNtNtCs1edtEUeLQ4Q_12serde_derive9internals4name4NameNtNtB4_7set_val9SetValZSTEEEB2b_, symObjAddr: 0x4778, symBinAddr: 0x39F40, symSize: 0xA8 }
  - { offset: 0x22EFA, size: 0x8, addend: 0x0, symName: __RINvNtNtNtCse1nGBsou5OW_5alloc11collections5btree4node13move_to_sliceNtNtB4_7set_val9SetValZSTECs1edtEUeLQ4Q_12serde_derive, symObjAddr: 0x4820, symBinAddr: 0x39FE8, symSize: 0xAC }
  - { offset: 0x22FA6, size: 0x8, addend: 0x0, symName: __RINvNtNtNtCse1nGBsou5OW_5alloc11collections5btree4node13move_to_sliceNtNtCs6IAuOt8vWmF_3syn8lifetime8LifetimeECs1edtEUeLQ4Q_12serde_derive, symObjAddr: 0x48CC, symBinAddr: 0x3A094, symSize: 0xAC }
  - { offset: 0x23052, size: 0x8, addend: 0x0, symName: __RINvNtNtNtCse1nGBsou5OW_5alloc11collections5btree4node13move_to_sliceNtNtNtCs1edtEUeLQ4Q_12serde_derive9internals4name4NameEB1b_, symObjAddr: 0x4978, symBinAddr: 0x3A140, symSize: 0xAC }
  - { offset: 0x23108, size: 0x8, addend: 0x0, symName: __RNCINvMss_NtNtNtCse1nGBsou5OW_5alloc11collections5btree4nodeINtB8_7NodeRefNtNtB8_6marker5OwnedNtNtCs6IAuOt8vWmF_3syn8lifetime8LifetimeNtNtBa_7set_val9SetValZSTNtB1c_14LeafOrInternalE19push_internal_levelNtNtBe_5alloc6GlobalE0Cs1edtEUeLQ4Q_12serde_derive, symObjAddr: 0x4A24, symBinAddr: 0x3A1EC, symSize: 0x34 }
  - { offset: 0x23161, size: 0x8, addend: 0x0, symName: __RNCINvMss_NtNtNtCse1nGBsou5OW_5alloc11collections5btree4nodeINtB8_7NodeRefNtNtB8_6marker5OwnedNtNtNtCs1edtEUeLQ4Q_12serde_derive9internals4name4NameNtNtBa_7set_val9SetValZSTNtB1c_14LeafOrInternalE19push_internal_levelNtNtBe_5alloc6GlobalE0B1A_, symObjAddr: 0x4A58, symBinAddr: 0x3A220, symSize: 0x34 }
  - { offset: 0x24136, size: 0x8, addend: 0x0, symName: __RNvXNvMsT_NtNtNtCse1nGBsou5OW_5alloc11collections5btree4nodeINtB8_6HandleINtB8_7NodeRefNtNtB8_6marker5DyingpppENtB1p_2KVE12drop_key_valINtB2_7DropperNtNtBa_7set_val9SetValZSTENtNtNtCsfvfooZQ3Axs_4core3ops4drop4Drop4dropCs1edtEUeLQ4Q_12serde_derive, symObjAddr: 0x8C64, symBinAddr: 0x3E42C, symSize: 0x1C }
  - { offset: 0x251FD, size: 0x8, addend: 0x0, symName: __RINvMNtNtNtCse1nGBsou5OW_5alloc11collections5btree4nodeINtB3_8LeafNodeNtNtCs6IAuOt8vWmF_3syn8lifetime8LifetimeNtNtB5_7set_val9SetValZSTE3newNtNtB9_5alloc6GlobalECs1edtEUeLQ4Q_12serde_derive, symObjAddr: 0x0, symBinAddr: 0x357C8, symSize: 0x68 }
  - { offset: 0x254F6, size: 0x8, addend: 0x0, symName: __RINvMNtNtNtCse1nGBsou5OW_5alloc11collections5btree4nodeINtB3_8LeafNodeNtNtNtCs1edtEUeLQ4Q_12serde_derive9internals4name4NameNtNtB5_7set_val9SetValZSTE3newNtNtB9_5alloc6GlobalEB1c_, symObjAddr: 0x68, symBinAddr: 0x35830, symSize: 0x68 }
  - { offset: 0x25851, size: 0x8, addend: 0x0, symName: __RINvMs0_NtNtNtCse1nGBsou5OW_5alloc11collections5btree6searchINtNtB8_4node7NodeRefNtNtBZ_6marker3MutNtNtCs6IAuOt8vWmF_3syn8lifetime8LifetimeNtNtB8_7set_val9SetValZSTNtB1j_14LeafOrInternalE14find_key_indexB1z_ECs1edtEUeLQ4Q_12serde_derive, symObjAddr: 0xD0, symBinAddr: 0x35898, symSize: 0x1D4 }
  - { offset: 0x25D18, size: 0x8, addend: 0x0, symName: __RINvMs0_NtNtNtCse1nGBsou5OW_5alloc11collections5btree6searchINtNtB8_4node7NodeRefNtNtBZ_6marker3MutNtNtNtCs1edtEUeLQ4Q_12serde_derive9internals4name4NameNtNtB8_7set_val9SetValZSTNtB1j_14LeafOrInternalE14find_key_indexB1z_EB1F_, symObjAddr: 0x2A4, symBinAddr: 0x35A6C, symSize: 0x1D4 }
  - { offset: 0x26173, size: 0x8, addend: 0x0, symName: __RINvMs0_NtNtNtCse1nGBsou5OW_5alloc11collections5btree6searchINtNtB8_4node7NodeRefNtNtBZ_6marker5ImmutNtNtCs6IAuOt8vWmF_3syn8lifetime8LifetimeNtNtB8_7set_val9SetValZSTNtB1j_14LeafOrInternalE14find_key_indexB1B_ECs1edtEUeLQ4Q_12serde_derive, symObjAddr: 0x478, symBinAddr: 0x35C40, symSize: 0x1D4 }
  - { offset: 0x26530, size: 0x8, addend: 0x0, symName: __RINvMs8_NtNtNtCse1nGBsou5OW_5alloc11collections5btree4nodeINtB6_7NodeRefNtNtB6_6marker5OwnedNtNtCs6IAuOt8vWmF_3syn8lifetime8LifetimeNtNtB8_7set_val9SetValZSTNtB1a_4LeafE8new_leafNtNtBc_5alloc6GlobalECs1edtEUeLQ4Q_12serde_derive, symObjAddr: 0x64C, symBinAddr: 0x35E14, symSize: 0x38 }
  - { offset: 0x265FF, size: 0x8, addend: 0x0, symName: __RINvMs8_NtNtNtCse1nGBsou5OW_5alloc11collections5btree4nodeINtB6_7NodeRefNtNtB6_6marker5OwnedNtNtNtCs1edtEUeLQ4Q_12serde_derive9internals4name4NameNtNtB8_7set_val9SetValZSTNtB1a_4LeafE8new_leafNtNtBc_5alloc6GlobalEB1y_, symObjAddr: 0x684, symBinAddr: 0x35E4C, symSize: 0x38 }
  - { offset: 0x2672E, size: 0x8, addend: 0x0, symName: __RINvMs9_NtNtNtCse1nGBsou5OW_5alloc11collections5btree4nodeINtB6_7NodeRefNtNtB6_6marker5OwnedNtNtCs6IAuOt8vWmF_3syn8lifetime8LifetimeNtNtB8_7set_val9SetValZSTNtB1a_8InternalE12new_internalNtNtBc_5alloc6GlobalECs1edtEUeLQ4Q_12serde_derive, symObjAddr: 0x6BC, symBinAddr: 0x35E84, symSize: 0x98 }
  - { offset: 0x2697F, size: 0x8, addend: 0x0, symName: __RINvMs9_NtNtNtCse1nGBsou5OW_5alloc11collections5btree4nodeINtB6_7NodeRefNtNtB6_6marker5OwnedNtNtCs6IAuOt8vWmF_3syn8lifetime8LifetimeNtNtB8_7set_val9SetValZSTNtB1a_8InternalE17from_new_internalNtNtBc_5alloc6GlobalECs1edtEUeLQ4Q_12serde_derive, symObjAddr: 0x754, symBinAddr: 0x35F1C, symSize: 0xC0 }
  - { offset: 0x26B98, size: 0x8, addend: 0x0, symName: __RINvMs9_NtNtNtCse1nGBsou5OW_5alloc11collections5btree4nodeINtB6_7NodeRefNtNtB6_6marker5OwnedNtNtNtCs1edtEUeLQ4Q_12serde_derive9internals4name4NameNtNtB8_7set_val9SetValZSTNtB1a_8InternalE12new_internalNtNtBc_5alloc6GlobalEB1y_, symObjAddr: 0x814, symBinAddr: 0x35FDC, symSize: 0x98 }
  - { offset: 0x26DCB, size: 0x8, addend: 0x0, symName: __RINvMs9_NtNtNtCse1nGBsou5OW_5alloc11collections5btree4nodeINtB6_7NodeRefNtNtB6_6marker5OwnedNtNtNtCs1edtEUeLQ4Q_12serde_derive9internals4name4NameNtNtB8_7set_val9SetValZSTNtB1a_8InternalE17from_new_internalNtNtBc_5alloc6GlobalEB1y_, symObjAddr: 0x8AC, symBinAddr: 0x36074, symSize: 0xC0 }
  - { offset: 0x271F9, size: 0x8, addend: 0x0, symName: __RINvMsK_NtNtNtCse1nGBsou5OW_5alloc11collections5btree4nodeINtB6_6HandleINtB6_7NodeRefNtNtB6_6marker3MutNtNtCs6IAuOt8vWmF_3syn8lifetime8LifetimeNtNtB8_7set_val9SetValZSTNtB1n_4LeafENtB1n_4EdgeE6insertNtNtBc_5alloc6GlobalECs1edtEUeLQ4Q_12serde_derive, symObjAddr: 0x96C, symBinAddr: 0x36134, symSize: 0x508 }
  - { offset: 0x276D4, size: 0x8, addend: 0x0, symName: __RINvMsK_NtNtNtCse1nGBsou5OW_5alloc11collections5btree4nodeINtB6_6HandleINtB6_7NodeRefNtNtB6_6marker3MutNtNtNtCs1edtEUeLQ4Q_12serde_derive9internals4name4NameNtNtB8_7set_val9SetValZSTNtB1n_4LeafENtB1n_4EdgeE6insertNtNtBc_5alloc6GlobalEB1J_, symObjAddr: 0xE74, symBinAddr: 0x3663C, symSize: 0x50C }
  - { offset: 0x27AE6, size: 0x8, addend: 0x0, symName: __RINvMsM_NtNtNtCse1nGBsou5OW_5alloc11collections5btree4nodeINtB6_6HandleINtB6_7NodeRefNtNtB6_6marker3MutNtNtCs6IAuOt8vWmF_3syn8lifetime8LifetimeNtNtB8_7set_val9SetValZSTNtB1n_8InternalENtB1n_4EdgeE6insertNtNtBc_5alloc6GlobalECs1edtEUeLQ4Q_12serde_derive, symObjAddr: 0x1380, symBinAddr: 0x36B48, symSize: 0x574 }
  - { offset: 0x27E44, size: 0x8, addend: 0x0, symName: __RINvMsM_NtNtNtCse1nGBsou5OW_5alloc11collections5btree4nodeINtB6_6HandleINtB6_7NodeRefNtNtB6_6marker3MutNtNtNtCs1edtEUeLQ4Q_12serde_derive9internals4name4NameNtNtB8_7set_val9SetValZSTNtB1n_8InternalENtB1n_4EdgeE6insertNtNtBc_5alloc6GlobalEB1J_, symObjAddr: 0x18F4, symBinAddr: 0x370BC, symSize: 0x57C }
  - { offset: 0x28117, size: 0x8, addend: 0x0, symName: __RINvMsN_NtNtNtCse1nGBsou5OW_5alloc11collections5btree4nodeINtB6_6HandleINtB6_7NodeRefNtNtB6_6marker3MutNtNtCs6IAuOt8vWmF_3syn8lifetime8LifetimeNtNtB8_7set_val9SetValZSTNtB1n_4LeafENtB1n_4EdgeE16insert_recursingNtNtBc_5alloc6GlobalNCNvMs6_NtNtB8_3map5entryINtB3O_11VacantEntryB1D_B2h_E12insert_entry0ECs1edtEUeLQ4Q_12serde_derive, symObjAddr: 0x1E70, symBinAddr: 0x37638, symSize: 0x480 }
  - { offset: 0x2844D, size: 0x8, addend: 0x0, symName: __RINvMsN_NtNtNtCse1nGBsou5OW_5alloc11collections5btree4nodeINtB6_6HandleINtB6_7NodeRefNtNtB6_6marker3MutNtNtNtCs1edtEUeLQ4Q_12serde_derive9internals4name4NameNtNtB8_7set_val9SetValZSTNtB1n_4LeafENtB1n_4EdgeE16insert_recursingNtNtBc_5alloc6GlobalNCNvMs6_NtNtB8_3map5entryINtB42_11VacantEntryB1D_B2v_E12insert_entry0EB1J_, symObjAddr: 0x22F0, symBinAddr: 0x37AB8, symSize: 0x488 }
  - { offset: 0x286F9, size: 0x8, addend: 0x0, symName: __RINvMsV_NtNtNtCse1nGBsou5OW_5alloc11collections5btree4nodeINtB6_6HandleINtB6_7NodeRefNtNtB6_6marker3MutNtNtCs6IAuOt8vWmF_3syn8lifetime8LifetimeNtNtB8_7set_val9SetValZSTNtB1n_4LeafENtB1n_2KVE5splitNtNtBc_5alloc6GlobalECs1edtEUeLQ4Q_12serde_derive, symObjAddr: 0x2778, symBinAddr: 0x37F40, symSize: 0xE0 }
  - { offset: 0x28820, size: 0x8, addend: 0x0, symName: __RINvMsV_NtNtNtCse1nGBsou5OW_5alloc11collections5btree4nodeINtB6_6HandleINtB6_7NodeRefNtNtB6_6marker3MutNtNtNtCs1edtEUeLQ4Q_12serde_derive9internals4name4NameNtNtB8_7set_val9SetValZSTNtB1n_4LeafENtB1n_2KVE5splitNtNtBc_5alloc6GlobalEB1J_, symObjAddr: 0x2858, symBinAddr: 0x38020, symSize: 0xE0 }
  - { offset: 0x28A7D, size: 0x8, addend: 0x0, symName: __RINvMsW_NtNtNtCse1nGBsou5OW_5alloc11collections5btree4nodeINtB6_6HandleINtB6_7NodeRefNtNtB6_6marker3MutNtNtCs6IAuOt8vWmF_3syn8lifetime8LifetimeNtNtB8_7set_val9SetValZSTNtB1n_8InternalENtB1n_2KVE5splitNtNtBc_5alloc6GlobalECs1edtEUeLQ4Q_12serde_derive, symObjAddr: 0x2938, symBinAddr: 0x38100, symSize: 0x240 }
  - { offset: 0x28EF2, size: 0x8, addend: 0x0, symName: __RINvMsW_NtNtNtCse1nGBsou5OW_5alloc11collections5btree4nodeINtB6_6HandleINtB6_7NodeRefNtNtB6_6marker3MutNtNtNtCs1edtEUeLQ4Q_12serde_derive9internals4name4NameNtNtB8_7set_val9SetValZSTNtB1n_8InternalENtB1n_2KVE5splitNtNtBc_5alloc6GlobalEB1J_, symObjAddr: 0x2B78, symBinAddr: 0x38340, symSize: 0x240 }
  - { offset: 0x29295, size: 0x8, addend: 0x0, symName: __RINvMs_NtNtNtCse1nGBsou5OW_5alloc11collections5btree4nodeINtB5_12InternalNodeNtNtCs6IAuOt8vWmF_3syn8lifetime8LifetimeNtNtB7_7set_val9SetValZSTE3newNtNtBb_5alloc6GlobalECs1edtEUeLQ4Q_12serde_derive, symObjAddr: 0x2DB8, symBinAddr: 0x38580, symSize: 0x68 }
  - { offset: 0x294AD, size: 0x8, addend: 0x0, symName: __RINvMs_NtNtNtCse1nGBsou5OW_5alloc11collections5btree4nodeINtB5_12InternalNodeNtNtNtCs1edtEUeLQ4Q_12serde_derive9internals4name4NameNtNtB7_7set_val9SetValZSTE3newNtNtBb_5alloc6GlobalEB1j_, symObjAddr: 0x2E20, symBinAddr: 0x385E8, symSize: 0x68 }
  - { offset: 0x297A4, size: 0x8, addend: 0x0, symName: __RINvMs_NtNtNtCse1nGBsou5OW_5alloc11collections5btree6searchINtNtB7_4node7NodeRefNtNtBY_6marker3MutNtNtCs6IAuOt8vWmF_3syn8lifetime8LifetimeNtNtB7_7set_val9SetValZSTNtB1i_14LeafOrInternalE11search_treeB1y_ECs1edtEUeLQ4Q_12serde_derive, symObjAddr: 0x2E88, symBinAddr: 0x38650, symSize: 0x240 }
  - { offset: 0x29AE9, size: 0x8, addend: 0x0, symName: __RINvMs_NtNtNtCse1nGBsou5OW_5alloc11collections5btree6searchINtNtB7_4node7NodeRefNtNtBY_6marker3MutNtNtNtCs1edtEUeLQ4Q_12serde_derive9internals4name4NameNtNtB7_7set_val9SetValZSTNtB1i_14LeafOrInternalE11search_treeB1y_EB1E_, symObjAddr: 0x30C8, symBinAddr: 0x38890, symSize: 0x240 }
  - { offset: 0x29E6A, size: 0x8, addend: 0x0, symName: __RINvMs_NtNtNtCse1nGBsou5OW_5alloc11collections5btree6searchINtNtB7_4node7NodeRefNtNtBY_6marker5ImmutNtNtCs6IAuOt8vWmF_3syn8lifetime8LifetimeNtNtB7_7set_val9SetValZSTNtB1i_14LeafOrInternalE11search_treeB1A_ECs1edtEUeLQ4Q_12serde_derive, symObjAddr: 0x3308, symBinAddr: 0x38AD0, symSize: 0x240 }
  - { offset: 0x2A13D, size: 0x8, addend: 0x0, symName: __RINvMsh_NtNtNtCse1nGBsou5OW_5alloc11collections5btree4nodeINtB6_7NodeRefNtNtB6_6marker5DyingNtNtCs6IAuOt8vWmF_3syn8lifetime8LifetimeNtNtB8_7set_val9SetValZSTNtB1a_14LeafOrInternalE21deallocate_and_ascendNtNtBc_5alloc6GlobalECs1edtEUeLQ4Q_12serde_derive, symObjAddr: 0x3548, symBinAddr: 0x38D10, symSize: 0x178 }
  - { offset: 0x2A3B0, size: 0x8, addend: 0x0, symName: __RINvMsh_NtNtNtCse1nGBsou5OW_5alloc11collections5btree4nodeINtB6_7NodeRefNtNtB6_6marker5DyingNtNtNtCs1edtEUeLQ4Q_12serde_derive9internals4name4NameNtNtB8_7set_val9SetValZSTNtB1a_14LeafOrInternalE21deallocate_and_ascendNtNtBc_5alloc6GlobalEB1y_, symObjAddr: 0x36C0, symBinAddr: 0x38E88, symSize: 0x178 }
  - { offset: 0x2A5F6, size: 0x8, addend: 0x0, symName: __RINvMsj_NtNtNtCse1nGBsou5OW_5alloc11collections5btree8navigateINtNtB8_4node6HandleINtB11_7NodeRefNtNtB11_6marker5DyingNtNtCs6IAuOt8vWmF_3syn8lifetime8LifetimeNtNtB8_7set_val9SetValZSTNtB1z_4LeafENtB1z_4EdgeE16deallocating_endNtNtBc_5alloc6GlobalECs1edtEUeLQ4Q_12serde_derive, symObjAddr: 0x3838, symBinAddr: 0x39000, symSize: 0xD8 }
  - { offset: 0x2A86A, size: 0x8, addend: 0x0, symName: __RINvMsj_NtNtNtCse1nGBsou5OW_5alloc11collections5btree8navigateINtNtB8_4node6HandleINtB11_7NodeRefNtNtB11_6marker5DyingNtNtCs6IAuOt8vWmF_3syn8lifetime8LifetimeNtNtB8_7set_val9SetValZSTNtB1z_4LeafENtB1z_4EdgeE17deallocating_nextNtNtBc_5alloc6GlobalECs1edtEUeLQ4Q_12serde_derive, symObjAddr: 0x3910, symBinAddr: 0x390D8, symSize: 0x254 }
  - { offset: 0x2AA9E, size: 0x8, addend: 0x0, symName: __RINvMsj_NtNtNtCse1nGBsou5OW_5alloc11collections5btree8navigateINtNtB8_4node6HandleINtB11_7NodeRefNtNtB11_6marker5DyingNtNtNtCs1edtEUeLQ4Q_12serde_derive9internals4name4NameNtNtB8_7set_val9SetValZSTNtB1z_4LeafENtB1z_4EdgeE16deallocating_endNtNtBc_5alloc6GlobalEB1Y_, symObjAddr: 0x3B64, symBinAddr: 0x3932C, symSize: 0xD8 }
  - { offset: 0x2AD12, size: 0x8, addend: 0x0, symName: __RINvMsj_NtNtNtCse1nGBsou5OW_5alloc11collections5btree8navigateINtNtB8_4node6HandleINtB11_7NodeRefNtNtB11_6marker5DyingNtNtNtCs1edtEUeLQ4Q_12serde_derive9internals4name4NameNtNtB8_7set_val9SetValZSTNtB1z_4LeafENtB1z_4EdgeE17deallocating_nextNtNtBc_5alloc6GlobalEB1Y_, symObjAddr: 0x3C3C, symBinAddr: 0x39404, symSize: 0x254 }
  - { offset: 0x2AF5D, size: 0x8, addend: 0x0, symName: __RINvMsp_NtNtNtCse1nGBsou5OW_5alloc11collections5btree4nodeINtB6_7NodeRefNtNtB6_6marker3MutNtNtCs6IAuOt8vWmF_3syn8lifetime8LifetimeNtNtB8_7set_val9SetValZSTNtB1a_8InternalE30correct_childrens_parent_linksINtNtNtCsfvfooZQ3Axs_4core3ops5range14RangeInclusivejEECs1edtEUeLQ4Q_12serde_derive, symObjAddr: 0x3E90, symBinAddr: 0x39658, symSize: 0xB4 }
  - { offset: 0x2B094, size: 0x8, addend: 0x0, symName: __RINvMsp_NtNtNtCse1nGBsou5OW_5alloc11collections5btree4nodeINtB6_7NodeRefNtNtB6_6marker3MutNtNtCs6IAuOt8vWmF_3syn8lifetime8LifetimeNtNtB8_7set_val9SetValZSTNtB1a_8InternalE30correct_childrens_parent_linksINtNtNtCsfvfooZQ3Axs_4core3ops5range5RangejEECs1edtEUeLQ4Q_12serde_derive, symObjAddr: 0x3F44, symBinAddr: 0x3970C, symSize: 0xB4 }
  - { offset: 0x2B1CA, size: 0x8, addend: 0x0, symName: __RINvMsp_NtNtNtCse1nGBsou5OW_5alloc11collections5btree4nodeINtB6_7NodeRefNtNtB6_6marker3MutNtNtNtCs1edtEUeLQ4Q_12serde_derive9internals4name4NameNtNtB8_7set_val9SetValZSTNtB1a_8InternalE30correct_childrens_parent_linksINtNtNtCsfvfooZQ3Axs_4core3ops5range14RangeInclusivejEEB1w_, symObjAddr: 0x3FF8, symBinAddr: 0x397C0, symSize: 0xB4 }
  - { offset: 0x2B301, size: 0x8, addend: 0x0, symName: __RINvMsp_NtNtNtCse1nGBsou5OW_5alloc11collections5btree4nodeINtB6_7NodeRefNtNtB6_6marker3MutNtNtNtCs1edtEUeLQ4Q_12serde_derive9internals4name4NameNtNtB8_7set_val9SetValZSTNtB1a_8InternalE30correct_childrens_parent_linksINtNtNtCsfvfooZQ3Axs_4core3ops5range5RangejEEB1w_, symObjAddr: 0x40AC, symBinAddr: 0x39874, symSize: 0xB4 }
  - { offset: 0x2B811, size: 0x8, addend: 0x0, symName: __RNvMsJ_NtNtNtCse1nGBsou5OW_5alloc11collections5btree4nodeINtB5_6HandleINtB5_7NodeRefNtNtB5_6marker3MutNtNtCs6IAuOt8vWmF_3syn8lifetime8LifetimeNtNtB7_7set_val9SetValZSTNtB1m_4LeafENtB1m_4EdgeE10insert_fitCs1edtEUeLQ4Q_12serde_derive, symObjAddr: 0x4A8C, symBinAddr: 0x3A254, symSize: 0x1D4 }
  - { offset: 0x2BD70, size: 0x8, addend: 0x0, symName: __RNvMsJ_NtNtNtCse1nGBsou5OW_5alloc11collections5btree4nodeINtB5_6HandleINtB5_7NodeRefNtNtB5_6marker3MutNtNtNtCs1edtEUeLQ4Q_12serde_derive9internals4name4NameNtNtB7_7set_val9SetValZSTNtB1m_4LeafENtB1m_4EdgeE10insert_fitB1I_, symObjAddr: 0x4C60, symBinAddr: 0x3A428, symSize: 0x1D4 }
  - { offset: 0x2C1F4, size: 0x8, addend: 0x0, symName: __RNvMsL_NtNtNtCse1nGBsou5OW_5alloc11collections5btree4nodeINtB5_6HandleINtB5_7NodeRefNtNtB5_6marker3MutNtNtCs6IAuOt8vWmF_3syn8lifetime8LifetimeNtNtB7_7set_val9SetValZSTNtB1m_8InternalENtB1m_4EdgeE19correct_parent_linkCs1edtEUeLQ4Q_12serde_derive, symObjAddr: 0x4E34, symBinAddr: 0x3A5FC, symSize: 0xA4 }
  - { offset: 0x2C422, size: 0x8, addend: 0x0, symName: __RNvMsL_NtNtNtCse1nGBsou5OW_5alloc11collections5btree4nodeINtB5_6HandleINtB5_7NodeRefNtNtB5_6marker3MutNtNtNtCs1edtEUeLQ4Q_12serde_derive9internals4name4NameNtNtB7_7set_val9SetValZSTNtB1m_8InternalENtB1m_4EdgeE19correct_parent_linkB1I_, symObjAddr: 0x4ED8, symBinAddr: 0x3A6A0, symSize: 0xA4 }
  - { offset: 0x2C76E, size: 0x8, addend: 0x0, symName: __RNvMsM_NtNtNtCse1nGBsou5OW_5alloc11collections5btree4nodeINtB5_6HandleINtB5_7NodeRefNtNtB5_6marker3MutNtNtCs6IAuOt8vWmF_3syn8lifetime8LifetimeNtNtB7_7set_val9SetValZSTNtB1m_8InternalENtB1m_4EdgeE10insert_fitCs1edtEUeLQ4Q_12serde_derive, symObjAddr: 0x4F7C, symBinAddr: 0x3A744, symSize: 0x26C }
  - { offset: 0x2CE1D, size: 0x8, addend: 0x0, symName: __RNvMsM_NtNtNtCse1nGBsou5OW_5alloc11collections5btree4nodeINtB5_6HandleINtB5_7NodeRefNtNtB5_6marker3MutNtNtNtCs1edtEUeLQ4Q_12serde_derive9internals4name4NameNtNtB7_7set_val9SetValZSTNtB1m_8InternalENtB1m_4EdgeE10insert_fitB1I_, symObjAddr: 0x51E8, symBinAddr: 0x3A9B0, symSize: 0x26C }
  - { offset: 0x2D38D, size: 0x8, addend: 0x0, symName: __RNvMsO_NtNtNtCse1nGBsou5OW_5alloc11collections5btree4nodeINtB5_6HandleINtB5_7NodeRefNtNtB5_6marker3MutNtNtCs6IAuOt8vWmF_3syn8lifetime8LifetimeNtNtB7_7set_val9SetValZSTNtB1m_8InternalENtB1m_4EdgeE7descendCs1edtEUeLQ4Q_12serde_derive, symObjAddr: 0x5454, symBinAddr: 0x3AC1C, symSize: 0x94 }
  - { offset: 0x2D59E, size: 0x8, addend: 0x0, symName: __RNvMsO_NtNtNtCse1nGBsou5OW_5alloc11collections5btree4nodeINtB5_6HandleINtB5_7NodeRefNtNtB5_6marker3MutNtNtNtCs1edtEUeLQ4Q_12serde_derive9internals4name4NameNtNtB7_7set_val9SetValZSTNtB1m_8InternalENtB1m_4EdgeE7descendB1I_, symObjAddr: 0x54E8, symBinAddr: 0x3ACB0, symSize: 0x94 }
  - { offset: 0x2D784, size: 0x8, addend: 0x0, symName: __RNvMsO_NtNtNtCse1nGBsou5OW_5alloc11collections5btree4nodeINtB5_6HandleINtB5_7NodeRefNtNtB5_6marker5DyingNtNtCs6IAuOt8vWmF_3syn8lifetime8LifetimeNtNtB7_7set_val9SetValZSTNtB1m_8InternalENtB1m_4EdgeE7descendCs1edtEUeLQ4Q_12serde_derive, symObjAddr: 0x557C, symBinAddr: 0x3AD44, symSize: 0x94 }
  - { offset: 0x2D96A, size: 0x8, addend: 0x0, symName: __RNvMsO_NtNtNtCse1nGBsou5OW_5alloc11collections5btree4nodeINtB5_6HandleINtB5_7NodeRefNtNtB5_6marker5DyingNtNtNtCs1edtEUeLQ4Q_12serde_derive9internals4name4NameNtNtB7_7set_val9SetValZSTNtB1m_8InternalENtB1m_4EdgeE7descendB1K_, symObjAddr: 0x5610, symBinAddr: 0x3ADD8, symSize: 0x94 }
  - { offset: 0x2DB50, size: 0x8, addend: 0x0, symName: __RNvMsO_NtNtNtCse1nGBsou5OW_5alloc11collections5btree4nodeINtB5_6HandleINtB5_7NodeRefNtNtB5_6marker5ImmutNtNtCs6IAuOt8vWmF_3syn8lifetime8LifetimeNtNtB7_7set_val9SetValZSTNtB1m_8InternalENtB1m_4EdgeE7descendCs1edtEUeLQ4Q_12serde_derive, symObjAddr: 0x56A4, symBinAddr: 0x3AE6C, symSize: 0x94 }
  - { offset: 0x2DD36, size: 0x8, addend: 0x0, symName: __RNvMsO_NtNtNtCse1nGBsou5OW_5alloc11collections5btree4nodeINtB5_6HandleINtB5_7NodeRefNtNtB5_6marker5ImmutNtNtNtCs1edtEUeLQ4Q_12serde_derive9internals4name4NameNtNtB7_7set_val9SetValZSTNtB1m_8InternalENtB1m_4EdgeE7descendB1K_, symObjAddr: 0x5738, symBinAddr: 0x3AF00, symSize: 0x94 }
  - { offset: 0x2E02A, size: 0x8, addend: 0x0, symName: __RNvMsP_NtNtNtCse1nGBsou5OW_5alloc11collections5btree4nodeINtB5_6HandleINtB5_7NodeRefNtNtB5_6marker5ImmutNtNtCs6IAuOt8vWmF_3syn8lifetime8LifetimeNtNtB7_7set_val9SetValZSTNtB1m_14LeafOrInternalENtB1m_2KVE7into_kvCs1edtEUeLQ4Q_12serde_derive, symObjAddr: 0x57CC, symBinAddr: 0x3AF94, symSize: 0xCC }
  - { offset: 0x2E36A, size: 0x8, addend: 0x0, symName: __RNvMsP_NtNtNtCse1nGBsou5OW_5alloc11collections5btree4nodeINtB5_6HandleINtB5_7NodeRefNtNtB5_6marker5ImmutNtNtCs6IAuOt8vWmF_3syn8lifetime8LifetimeNtNtB7_7set_val9SetValZSTNtB1m_4LeafENtB1m_2KVE7into_kvCs1edtEUeLQ4Q_12serde_derive, symObjAddr: 0x5898, symBinAddr: 0x3B060, symSize: 0xCC }
  - { offset: 0x2E69D, size: 0x8, addend: 0x0, symName: __RNvMsP_NtNtNtCse1nGBsou5OW_5alloc11collections5btree4nodeINtB5_6HandleINtB5_7NodeRefNtNtB5_6marker5ImmutNtNtCs6IAuOt8vWmF_3syn8lifetime8LifetimeNtNtB7_7set_val9SetValZSTNtB1m_8InternalENtB1m_2KVE7into_kvCs1edtEUeLQ4Q_12serde_derive, symObjAddr: 0x5964, symBinAddr: 0x3B12C, symSize: 0xCC }
  - { offset: 0x2EA33, size: 0x8, addend: 0x0, symName: __RNvMsP_NtNtNtCse1nGBsou5OW_5alloc11collections5btree4nodeINtB5_6HandleINtB5_7NodeRefNtNtB5_6marker5ImmutNtNtNtCs1edtEUeLQ4Q_12serde_derive9internals4name4NameNtNtB7_7set_val9SetValZSTNtB1m_14LeafOrInternalENtB1m_2KVE7into_kvB1K_, symObjAddr: 0x5A30, symBinAddr: 0x3B1F8, symSize: 0xCC }
  - { offset: 0x2ED10, size: 0x8, addend: 0x0, symName: __RNvMsQ_NtNtNtCse1nGBsou5OW_5alloc11collections5btree4nodeINtB5_6HandleINtB5_7NodeRefNtNtB5_6marker3MutNtNtCs6IAuOt8vWmF_3syn8lifetime8LifetimeNtNtB7_7set_val9SetValZSTNtB1m_14LeafOrInternalENtB1m_2KVE12into_val_mutCs1edtEUeLQ4Q_12serde_derive, symObjAddr: 0x5AFC, symBinAddr: 0x3B2C4, symSize: 0x80 }
  - { offset: 0x2EE95, size: 0x8, addend: 0x0, symName: __RNvMsQ_NtNtNtCse1nGBsou5OW_5alloc11collections5btree4nodeINtB5_6HandleINtB5_7NodeRefNtNtB5_6marker3MutNtNtCs6IAuOt8vWmF_3syn8lifetime8LifetimeNtNtB7_7set_val9SetValZSTNtB1m_4LeafENtB1m_2KVE12into_val_mutCs1edtEUeLQ4Q_12serde_derive, symObjAddr: 0x5B7C, symBinAddr: 0x3B344, symSize: 0x80 }
  - { offset: 0x2F01A, size: 0x8, addend: 0x0, symName: __RNvMsQ_NtNtNtCse1nGBsou5OW_5alloc11collections5btree4nodeINtB5_6HandleINtB5_7NodeRefNtNtB5_6marker3MutNtNtNtCs1edtEUeLQ4Q_12serde_derive9internals4name4NameNtNtB7_7set_val9SetValZSTNtB1m_14LeafOrInternalENtB1m_2KVE12into_val_mutB1I_, symObjAddr: 0x5BFC, symBinAddr: 0x3B3C4, symSize: 0x80 }
  - { offset: 0x2F201, size: 0x8, addend: 0x0, symName: __RNvMsS_NtNtNtCse1nGBsou5OW_5alloc11collections5btree4nodeINtB5_6HandleINtB5_7NodeRefNtNtB5_6marker3MutNtNtCs6IAuOt8vWmF_3syn8lifetime8LifetimeNtNtB7_7set_val9SetValZSTNtB1m_14LeafOrInternalENtB1m_2KVE6kv_mutCs1edtEUeLQ4Q_12serde_derive, symObjAddr: 0x5C7C, symBinAddr: 0x3B444, symSize: 0xD4 }
  - { offset: 0x2F4EA, size: 0x8, addend: 0x0, symName: __RNvMsS_NtNtNtCse1nGBsou5OW_5alloc11collections5btree4nodeINtB5_6HandleINtB5_7NodeRefNtNtB5_6marker3MutNtNtNtCs1edtEUeLQ4Q_12serde_derive9internals4name4NameNtNtB7_7set_val9SetValZSTNtB1m_14LeafOrInternalENtB1m_2KVE6kv_mutB1I_, symObjAddr: 0x5D50, symBinAddr: 0x3B518, symSize: 0xD4 }
  - { offset: 0x2F7B5, size: 0x8, addend: 0x0, symName: __RNvMsT_NtNtNtCse1nGBsou5OW_5alloc11collections5btree4nodeINtB5_6HandleINtB5_7NodeRefNtNtB5_6marker5DyingNtNtCs6IAuOt8vWmF_3syn8lifetime8LifetimeNtNtB7_7set_val9SetValZSTNtB1m_14LeafOrInternalENtB1m_2KVE12drop_key_valCs1edtEUeLQ4Q_12serde_derive, symObjAddr: 0x5E24, symBinAddr: 0x3B5EC, symSize: 0x100 }
  - { offset: 0x2FAA0, size: 0x8, addend: 0x0, symName: __RNvMsT_NtNtNtCse1nGBsou5OW_5alloc11collections5btree4nodeINtB5_6HandleINtB5_7NodeRefNtNtB5_6marker5DyingNtNtNtCs1edtEUeLQ4Q_12serde_derive9internals4name4NameNtNtB7_7set_val9SetValZSTNtB1m_14LeafOrInternalENtB1m_2KVE12drop_key_valB1K_, symObjAddr: 0x5F24, symBinAddr: 0x3B6EC, symSize: 0x100 }
  - { offset: 0x2FF4A, size: 0x8, addend: 0x0, symName: __RNvMsU_NtNtNtCse1nGBsou5OW_5alloc11collections5btree4nodeINtB5_6HandleINtB5_7NodeRefNtNtB5_6marker3MutNtNtCs6IAuOt8vWmF_3syn8lifetime8LifetimeNtNtB7_7set_val9SetValZSTNtB1m_4LeafENtB1m_2KVE15split_leaf_dataCs1edtEUeLQ4Q_12serde_derive, symObjAddr: 0x6024, symBinAddr: 0x3B7EC, symSize: 0x384 }
  - { offset: 0x30968, size: 0x8, addend: 0x0, symName: __RNvMsU_NtNtNtCse1nGBsou5OW_5alloc11collections5btree4nodeINtB5_6HandleINtB5_7NodeRefNtNtB5_6marker3MutNtNtCs6IAuOt8vWmF_3syn8lifetime8LifetimeNtNtB7_7set_val9SetValZSTNtB1m_8InternalENtB1m_2KVE15split_leaf_dataCs1edtEUeLQ4Q_12serde_derive, symObjAddr: 0x63A8, symBinAddr: 0x3BB70, symSize: 0x384 }
  - { offset: 0x31386, size: 0x8, addend: 0x0, symName: __RNvMsU_NtNtNtCse1nGBsou5OW_5alloc11collections5btree4nodeINtB5_6HandleINtB5_7NodeRefNtNtB5_6marker3MutNtNtNtCs1edtEUeLQ4Q_12serde_derive9internals4name4NameNtNtB7_7set_val9SetValZSTNtB1m_4LeafENtB1m_2KVE15split_leaf_dataB1I_, symObjAddr: 0x672C, symBinAddr: 0x3BEF4, symSize: 0x384 }
  - { offset: 0x31DA4, size: 0x8, addend: 0x0, symName: __RNvMsU_NtNtNtCse1nGBsou5OW_5alloc11collections5btree4nodeINtB5_6HandleINtB5_7NodeRefNtNtB5_6marker3MutNtNtNtCs1edtEUeLQ4Q_12serde_derive9internals4name4NameNtNtB7_7set_val9SetValZSTNtB1m_8InternalENtB1m_2KVE15split_leaf_dataB1I_, symObjAddr: 0x6AB0, symBinAddr: 0x3C278, symSize: 0x384 }
  - { offset: 0x32669, size: 0x8, addend: 0x0, symName: __RNvMse_NtNtNtCse1nGBsou5OW_5alloc11collections5btree4nodeINtB5_7NodeRefNtNtB5_6marker3MutNtNtCs6IAuOt8vWmF_3syn8lifetime8LifetimeNtNtB7_7set_val9SetValZSTNtB19_14LeafOrInternalE6ascendCs1edtEUeLQ4Q_12serde_derive, symObjAddr: 0x6E34, symBinAddr: 0x3C5FC, symSize: 0x168 }
  - { offset: 0x328D4, size: 0x8, addend: 0x0, symName: __RNvMse_NtNtNtCse1nGBsou5OW_5alloc11collections5btree4nodeINtB5_7NodeRefNtNtB5_6marker3MutNtNtNtCs1edtEUeLQ4Q_12serde_derive9internals4name4NameNtNtB7_7set_val9SetValZSTNtB19_14LeafOrInternalE6ascendB1v_, symObjAddr: 0x6F9C, symBinAddr: 0x3C764, symSize: 0x168 }
  - { offset: 0x32B18, size: 0x8, addend: 0x0, symName: __RNvMse_NtNtNtCse1nGBsou5OW_5alloc11collections5btree4nodeINtB5_7NodeRefNtNtB5_6marker5DyingNtNtCs6IAuOt8vWmF_3syn8lifetime8LifetimeNtNtB7_7set_val9SetValZSTNtB19_14LeafOrInternalE6ascendCs1edtEUeLQ4Q_12serde_derive, symObjAddr: 0x7104, symBinAddr: 0x3C8CC, symSize: 0x168 }
  - { offset: 0x32D5C, size: 0x8, addend: 0x0, symName: __RNvMse_NtNtNtCse1nGBsou5OW_5alloc11collections5btree4nodeINtB5_7NodeRefNtNtB5_6marker5DyingNtNtNtCs1edtEUeLQ4Q_12serde_derive9internals4name4NameNtNtB7_7set_val9SetValZSTNtB19_14LeafOrInternalE6ascendB1x_, symObjAddr: 0x726C, symBinAddr: 0x3CA34, symSize: 0x168 }
  - { offset: 0x32FA0, size: 0x8, addend: 0x0, symName: __RNvMse_NtNtNtCse1nGBsou5OW_5alloc11collections5btree4nodeINtB5_7NodeRefNtNtB5_6marker5ImmutNtNtCs6IAuOt8vWmF_3syn8lifetime8LifetimeNtNtB7_7set_val9SetValZSTNtB19_14LeafOrInternalE6ascendCs1edtEUeLQ4Q_12serde_derive, symObjAddr: 0x73D4, symBinAddr: 0x3CB9C, symSize: 0x168 }
  - { offset: 0x331E4, size: 0x8, addend: 0x0, symName: __RNvMse_NtNtNtCse1nGBsou5OW_5alloc11collections5btree4nodeINtB5_7NodeRefNtNtB5_6marker5ImmutNtNtNtCs1edtEUeLQ4Q_12serde_derive9internals4name4NameNtNtB7_7set_val9SetValZSTNtB19_14LeafOrInternalE6ascendB1x_, symObjAddr: 0x753C, symBinAddr: 0x3CD04, symSize: 0x168 }
  - { offset: 0x333C4, size: 0x8, addend: 0x0, symName: __RNvMsg_NtNtNtCse1nGBsou5OW_5alloc11collections5btree4nodeINtB5_7NodeRefNtNtB5_6marker5ImmutNtNtCs6IAuOt8vWmF_3syn8lifetime8LifetimeNtNtB7_7set_val9SetValZSTNtB19_14LeafOrInternalE4keysCs1edtEUeLQ4Q_12serde_derive, symObjAddr: 0x76A4, symBinAddr: 0x3CE6C, symSize: 0x9C }
  - { offset: 0x335A1, size: 0x8, addend: 0x0, symName: __RNvMsg_NtNtNtCse1nGBsou5OW_5alloc11collections5btree4nodeINtB5_7NodeRefNtNtB5_6marker5ImmutNtNtNtCs1edtEUeLQ4Q_12serde_derive9internals4name4NameNtNtB7_7set_val9SetValZSTNtB19_14LeafOrInternalE4keysB1x_, symObjAddr: 0x7740, symBinAddr: 0x3CF08, symSize: 0x9C }
  - { offset: 0x33867, size: 0x8, addend: 0x0, symName: __RNvMsh_NtNtNtCse1nGBsou5OW_5alloc11collections5btree8navigateINtNtB7_4node6HandleINtB10_7NodeRefNtNtB10_6marker5ImmutNtNtCs6IAuOt8vWmF_3syn8lifetime8LifetimeNtNtB7_7set_val9SetValZSTNtB1y_4LeafENtB1y_4EdgeE7next_kvCs1edtEUeLQ4Q_12serde_derive, symObjAddr: 0x77DC, symBinAddr: 0x3CFA4, symSize: 0x194 }
  - { offset: 0x33BB4, size: 0x8, addend: 0x0, symName: __RNvMsh_NtNtNtCse1nGBsou5OW_5alloc11collections5btree8navigateINtNtB7_4node6HandleINtB10_7NodeRefNtNtB10_6marker5ImmutNtNtNtCs1edtEUeLQ4Q_12serde_derive9internals4name4NameNtNtB7_7set_val9SetValZSTNtB1y_4LeafENtB1y_4EdgeE7next_kvB1X_, symObjAddr: 0x7970, symBinAddr: 0x3D138, symSize: 0x194 }
  - { offset: 0x33FA4, size: 0x8, addend: 0x0, symName: __RNvMsp_NtNtNtCse1nGBsou5OW_5alloc11collections5btree8navigateINtNtB7_4node6HandleINtB10_7NodeRefNtNtB10_6marker5DyingNtNtCs6IAuOt8vWmF_3syn8lifetime8LifetimeNtNtB7_7set_val9SetValZSTNtB1y_14LeafOrInternalENtB1y_2KVE14next_leaf_edgeCs1edtEUeLQ4Q_12serde_derive, symObjAddr: 0x7B04, symBinAddr: 0x3D2CC, symSize: 0x210 }
  - { offset: 0x34414, size: 0x8, addend: 0x0, symName: __RNvMsp_NtNtNtCse1nGBsou5OW_5alloc11collections5btree8navigateINtNtB7_4node6HandleINtB10_7NodeRefNtNtB10_6marker5DyingNtNtNtCs1edtEUeLQ4Q_12serde_derive9internals4name4NameNtNtB7_7set_val9SetValZSTNtB1y_14LeafOrInternalENtB1y_2KVE14next_leaf_edgeB1X_, symObjAddr: 0x7D14, symBinAddr: 0x3D4DC, symSize: 0x210 }
  - { offset: 0x34884, size: 0x8, addend: 0x0, symName: __RNvMsp_NtNtNtCse1nGBsou5OW_5alloc11collections5btree8navigateINtNtB7_4node6HandleINtB10_7NodeRefNtNtB10_6marker5ImmutNtNtCs6IAuOt8vWmF_3syn8lifetime8LifetimeNtNtB7_7set_val9SetValZSTNtB1y_14LeafOrInternalENtB1y_2KVE14next_leaf_edgeCs1edtEUeLQ4Q_12serde_derive, symObjAddr: 0x7F24, symBinAddr: 0x3D6EC, symSize: 0x210 }
  - { offset: 0x34CF4, size: 0x8, addend: 0x0, symName: __RNvMsp_NtNtNtCse1nGBsou5OW_5alloc11collections5btree8navigateINtNtB7_4node6HandleINtB10_7NodeRefNtNtB10_6marker5ImmutNtNtNtCs1edtEUeLQ4Q_12serde_derive9internals4name4NameNtNtB7_7set_val9SetValZSTNtB1y_14LeafOrInternalENtB1y_2KVE14next_leaf_edgeB1X_, symObjAddr: 0x8134, symBinAddr: 0x3D8FC, symSize: 0x210 }
  - { offset: 0x35112, size: 0x8, addend: 0x0, symName: __RNvMsu_NtNtNtCse1nGBsou5OW_5alloc11collections5btree4nodeINtB5_7NodeRefNtNtB5_6marker3MutNtNtCs6IAuOt8vWmF_3syn8lifetime8LifetimeNtNtB7_7set_val9SetValZSTNtB19_4LeafE16push_with_handleCs1edtEUeLQ4Q_12serde_derive, symObjAddr: 0x8344, symBinAddr: 0x3DB0C, symSize: 0x1CC }
  - { offset: 0x3563B, size: 0x8, addend: 0x0, symName: __RNvMsu_NtNtNtCse1nGBsou5OW_5alloc11collections5btree4nodeINtB5_7NodeRefNtNtB5_6marker3MutNtNtNtCs1edtEUeLQ4Q_12serde_derive9internals4name4NameNtNtB7_7set_val9SetValZSTNtB19_4LeafE16push_with_handleB1v_, symObjAddr: 0x8510, symBinAddr: 0x3DCD8, symSize: 0x1CC }
  - { offset: 0x35C6C, size: 0x8, addend: 0x0, symName: __RNvMsv_NtNtNtCse1nGBsou5OW_5alloc11collections5btree4nodeINtB5_7NodeRefNtNtB5_6marker3MutNtNtCs6IAuOt8vWmF_3syn8lifetime8LifetimeNtNtB7_7set_val9SetValZSTNtB19_8InternalE4pushCs1edtEUeLQ4Q_12serde_derive, symObjAddr: 0x86DC, symBinAddr: 0x3DEA4, symSize: 0x2C4 }
  - { offset: 0x36429, size: 0x8, addend: 0x0, symName: __RNvMsv_NtNtNtCse1nGBsou5OW_5alloc11collections5btree4nodeINtB5_7NodeRefNtNtB5_6marker3MutNtNtNtCs1edtEUeLQ4Q_12serde_derive9internals4name4NameNtNtB7_7set_val9SetValZSTNtB19_8InternalE4pushB1v_, symObjAddr: 0x89A0, symBinAddr: 0x3E168, symSize: 0x2C4 }
  - { offset: 0x36947, size: 0x8, addend: 0x0, symName: __RINvXs2U_NtNtCsfvfooZQ3Axs_4core5slice4iterINtB7_4IterNtNtCs1edtEUeLQ4Q_12serde_derive2de16FieldWithAliasesENtNtNtNtBb_4iter6traits8iterator8Iterator4folduNCINvNtNtB1O_8adapters3map8map_foldRBQ_RNtCs3cP53eQoTwO_11proc_macro25IdentuNCNvBS_32deserialize_generated_identifier0NCINvNvB1I_8for_each4callB36_NCINvMsi_NtCse1nGBsou5OW_5alloc3vecINtB4Z_3VecB36_E14extend_trustedINtB2y_3MapBF_B3H_EE0E0E0EBU_, symObjAddr: 0x0, symBinAddr: 0x3E448, symSize: 0x1B0 }
  - { offset: 0x3E41E, size: 0x8, addend: 0x0, symName: __RINvXs2U_NtNtCsfvfooZQ3Axs_4core5slice4iterINtB7_4IterNtNtCs1edtEUeLQ4Q_12serde_derive2de16FieldWithAliasesENtNtNtNtBb_4iter6traits8iterator8Iterator4folduNCINvNtNtB1O_8adapters3map8map_foldRBQ_RNtCs3cP53eQoTwO_11proc_macro25IdentuNCNvBS_32deserialize_generated_identifier0NCINvNvB1I_8for_each4callB36_NCINvMsi_NtCse1nGBsou5OW_5alloc3vecINtB4Z_3VecB36_E14extend_trustedINtB2y_3MapBF_B3H_EE0E0E0EBU_, symObjAddr: 0x0, symBinAddr: 0x3E448, symSize: 0x1B0 }
  - { offset: 0x3E572, size: 0x8, addend: 0x0, symName: __RINvXs2U_NtNtCsfvfooZQ3Axs_4core5slice4iterINtB7_4IterNtNtNtCs1edtEUeLQ4Q_12serde_derive9internals3ast5FieldENtNtNtNtBb_4iter6traits8iterator8Iterator3allNCNvNtBW_2de15deserialize_maps3_0EBW_, symObjAddr: 0x1B0, symBinAddr: 0x3E5F8, symSize: 0xB0 }
  - { offset: 0x3E5D7, size: 0x8, addend: 0x0, symName: __RINvXs2U_NtNtCsfvfooZQ3Axs_4core5slice4iterINtB7_4IterNtNtNtCs1edtEUeLQ4Q_12serde_derive9internals3ast5FieldENtNtNtNtBb_4iter6traits8iterator8Iterator3anyNCNvNtBW_2de11has_flatten0EBW_, symObjAddr: 0x260, symBinAddr: 0x3E6A8, symSize: 0xB0 }
  - { offset: 0x3E63C, size: 0x8, addend: 0x0, symName: __RINvXs2U_NtNtCsfvfooZQ3Axs_4core5slice4iterINtB7_4IterNtNtNtCs1edtEUeLQ4Q_12serde_derive9internals3ast5FieldENtNtNtNtBb_4iter6traits8iterator8Iterator3anyNCNvNtBW_3ser16serialize_struct0EBW_, symObjAddr: 0x310, symBinAddr: 0x3E758, symSize: 0xB0 }
  - { offset: 0x3E6A1, size: 0x8, addend: 0x0, symName: __RINvXs2U_NtNtCsfvfooZQ3Axs_4core5slice4iterINtB7_4IterNtNtNtCs1edtEUeLQ4Q_12serde_derive9internals3ast5FieldENtNtNtNtBb_4iter6traits8iterator8Iterator3anyNCNvNtBW_3ser24serialize_struct_variant0EBW_, symObjAddr: 0x3C0, symBinAddr: 0x3E808, symSize: 0xB0 }
  - { offset: 0x3E706, size: 0x8, addend: 0x0, symName: __RINvXs2U_NtNtCsfvfooZQ3Axs_4core5slice4iterINtB7_4IterNtNtNtCs1edtEUeLQ4Q_12serde_derive9internals3ast5FieldENtNtNtNtBb_4iter6traits8iterator8Iterator4findNCNvNtBW_2de23deserialize_transparent0EBW_, symObjAddr: 0x470, symBinAddr: 0x3E8B8, symSize: 0xB0 }
  - { offset: 0x3E76B, size: 0x8, addend: 0x0, symName: __RINvXs2U_NtNtCsfvfooZQ3Axs_4core5slice4iterINtB7_4IterNtNtNtCs1edtEUeLQ4Q_12serde_derive9internals3ast5FieldENtNtNtNtBb_4iter6traits8iterator8Iterator4findNCNvNtBW_3ser21serialize_transparent0EBW_, symObjAddr: 0x520, symBinAddr: 0x3E968, symSize: 0xB0 }
  - { offset: 0x3E7D0, size: 0x8, addend: 0x0, symName: __RINvXs2U_NtNtCsfvfooZQ3Axs_4core5slice4iterINtB7_4IterNtNtNtCs1edtEUeLQ4Q_12serde_derive9internals3ast5FieldENtNtNtNtBb_4iter6traits8iterator8Iterator4findQNCNvNtBW_3ser23serialize_struct_as_map0EBW_, symObjAddr: 0x5D0, symBinAddr: 0x3EA18, symSize: 0xB4 }
  - { offset: 0x3E835, size: 0x8, addend: 0x0, symName: __RINvXs2U_NtNtCsfvfooZQ3Axs_4core5slice4iterINtB7_4IterNtNtNtCs1edtEUeLQ4Q_12serde_derive9internals3ast5FieldENtNtNtNtBb_4iter6traits8iterator8Iterator4findQNCNvNtBW_3ser24serialize_struct_variants_0EBW_, symObjAddr: 0x684, symBinAddr: 0x3EACC, symSize: 0xB4 }
  - { offset: 0x3E89A, size: 0x8, addend: 0x0, symName: __RINvXs2U_NtNtCsfvfooZQ3Axs_4core5slice4iterINtB7_4IterNtNtNtCs1edtEUeLQ4Q_12serde_derive9internals3ast5FieldENtNtNtNtBb_4iter6traits8iterator8Iterator4findQNCNvNtBW_3ser24serialize_struct_visitor0EBW_, symObjAddr: 0x738, symBinAddr: 0x3EB80, symSize: 0xB4 }
  - { offset: 0x3E8FF, size: 0x8, addend: 0x0, symName: __RINvXs2U_NtNtCsfvfooZQ3Axs_4core5slice4iterINtB7_4IterNtNtNtCs1edtEUeLQ4Q_12serde_derive9internals3ast5FieldENtNtNtNtBb_4iter6traits8iterator8Iterator4findQNCNvNtBW_3ser26serialize_struct_as_struct0EBW_, symObjAddr: 0x7EC, symBinAddr: 0x3EC34, symSize: 0xB4 }
  - { offset: 0x3E964, size: 0x8, addend: 0x0, symName: __RINvXs2U_NtNtCsfvfooZQ3Axs_4core5slice4iterINtB7_4IterNtNtNtCs1edtEUeLQ4Q_12serde_derive9internals3ast5FieldENtNtNtNtBb_4iter6traits8iterator8Iterator4findQNCNvNtBW_3ser37serialize_struct_variant_with_flatten0EBW_, symObjAddr: 0x8A0, symBinAddr: 0x3ECE8, symSize: 0xB4 }
  - { offset: 0x3E9C9, size: 0x8, addend: 0x0, symName: __RINvXs2U_NtNtCsfvfooZQ3Axs_4core5slice4iterINtB7_4IterNtNtNtCs1edtEUeLQ4Q_12serde_derive9internals3ast5FieldENtNtNtNtBb_4iter6traits8iterator8Iterator4findQNCNvNtBW_5bound10with_bounds0_0EBW_, symObjAddr: 0x954, symBinAddr: 0x3ED9C, symSize: 0xB4 }
  - { offset: 0x3EA2E, size: 0x8, addend: 0x0, symName: __RINvXs2U_NtNtCsfvfooZQ3Axs_4core5slice4iterINtB7_4IterNtNtNtCs1edtEUeLQ4Q_12serde_derive9internals3ast5FieldENtNtNtNtBb_4iter6traits8iterator8Iterator4findQNCNvNtBW_5bound10with_bounds_0EBW_, symObjAddr: 0xA08, symBinAddr: 0x3EE50, symSize: 0xB4 }
  - { offset: 0x3EA93, size: 0x8, addend: 0x0, symName: __RINvXs2U_NtNtCsfvfooZQ3Axs_4core5slice4iterINtB7_4IterNtNtNtCs1edtEUeLQ4Q_12serde_derive9internals3ast5FieldENtNtNtNtBb_4iter6traits8iterator8Iterator4foldNtCs3cP53eQoTwO_11proc_macro211TokenStreamNCINvNtNtB1P_8adapters6filter11filter_foldRBQ_B2t_NCNvNtBW_3ser24serialize_struct_variants_0NCINvNtB3g_3map8map_foldB3P_B2t_B2t_NCB3Z_s0_0NCB3Z_s1_0E0E0EBW_, symObjAddr: 0xABC, symBinAddr: 0x3EF04, symSize: 0x22C }
  - { offset: 0x3EBED, size: 0x8, addend: 0x0, symName: __RINvXs2U_NtNtCsfvfooZQ3Axs_4core5slice4iterINtB7_4IterNtNtNtCs1edtEUeLQ4Q_12serde_derive9internals3ast5FieldENtNtNtNtBb_4iter6traits8iterator8Iterator4foldNtCs3cP53eQoTwO_11proc_macro211TokenStreamNCINvNtNtB1P_8adapters6filter11filter_foldRBQ_B2t_NCNvNtBW_3ser26serialize_struct_as_struct0NCINvNtB3g_3map8map_foldB3P_B2t_B2t_NCB3Z_s_0NCB3Z_s0_0E0E0EBW_, symObjAddr: 0xCE8, symBinAddr: 0x3F130, symSize: 0x23C }
  - { offset: 0x3ED47, size: 0x8, addend: 0x0, symName: __RINvXs2U_NtNtCsfvfooZQ3Axs_4core5slice4iterINtB7_4IterNtNtNtCs1edtEUeLQ4Q_12serde_derive9internals3ast5FieldENtNtNtNtBb_4iter6traits8iterator8Iterator4foldNtCs3cP53eQoTwO_11proc_macro211TokenStreamNCINvNvXs_NtNtB1P_8adapters9enumerateINtB3j_9EnumeratepEB1J_4fold9enumerateRBQ_B2t_NCINvNtB3l_6filter11filter_foldTjB4m_EB2t_NCNvNtBW_3ser22serialize_tuple_struct0NCINvNtB3l_3map8map_foldB4Z_B2t_B2t_NCB5c_s_0NCB5c_s0_0E0E0E0EBW_, symObjAddr: 0xF24, symBinAddr: 0x3F36C, symSize: 0x234 }
  - { offset: 0x3EEA1, size: 0x8, addend: 0x0, symName: __RINvXs2U_NtNtCsfvfooZQ3Axs_4core5slice4iterINtB7_4IterNtNtNtCs1edtEUeLQ4Q_12serde_derive9internals3ast5FieldENtNtNtNtBb_4iter6traits8iterator8Iterator4foldNtCs3cP53eQoTwO_11proc_macro211TokenStreamNCINvNvXs_NtNtB1P_8adapters9enumerateINtB3j_9EnumeratepEB1J_4fold9enumerateRBQ_B2t_NCINvNtB3l_6filter11filter_foldTjB4m_EB2t_NCNvNtBW_3ser23serialize_tuple_variant0NCINvNtB3l_3map8map_foldB4Z_B2t_B2t_NCB5c_s_0NCB5c_s0_0E0E0E0EBW_, symObjAddr: 0x1158, symBinAddr: 0x3F5A0, symSize: 0x23C }
  - { offset: 0x3EFFB, size: 0x8, addend: 0x0, symName: __RINvXs2U_NtNtCsfvfooZQ3Axs_4core5slice4iterINtB7_4IterNtNtNtCs1edtEUeLQ4Q_12serde_derive9internals3ast5FieldENtNtNtNtBb_4iter6traits8iterator8Iterator4foldjNCINvNtNtB1P_8adapters3map8map_foldRBQ_jjNCINvNvXs1_NtB2B_6filterINtB3k_6FilterppEB1J_5count8to_usizeB33_NCNvNtBW_2de15deserialize_seq0E0NCINvXsK_NtB1N_5accumjNtB4Q_3Sum3sumINtB2z_3MapBF_B39_EE0E0EBW_, symObjAddr: 0x1394, symBinAddr: 0x3F7DC, symSize: 0x1BC }
  - { offset: 0x3F153, size: 0x8, addend: 0x0, symName: __RINvXs2U_NtNtCsfvfooZQ3Axs_4core5slice4iterINtB7_4IterNtNtNtCs1edtEUeLQ4Q_12serde_derive9internals3ast5FieldENtNtNtNtBb_4iter6traits8iterator8Iterator4foldjNCINvNtNtB1P_8adapters3map8map_foldRBQ_jjNCINvNvXs1_NtB2B_6filterINtB3k_6FilterppEB1J_5count8to_usizeB33_NCNvNtBW_2de17deserialize_tuple0E0NCINvXsK_NtB1N_5accumjNtB4S_3Sum3sumINtB2z_3MapBF_B39_EE0E0EBW_, symObjAddr: 0x1550, symBinAddr: 0x3F998, symSize: 0x1BC }
  - { offset: 0x3F2AB, size: 0x8, addend: 0x0, symName: __RINvXs2U_NtNtCsfvfooZQ3Axs_4core5slice4iterINtB7_4IterNtNtNtCs1edtEUeLQ4Q_12serde_derive9internals3ast5FieldENtNtNtNtBb_4iter6traits8iterator8Iterator4folduNCINvNtNtB1P_8adapters3map8map_foldRBQ_NtCs3cP53eQoTwO_11proc_macro211TokenStreamuNCNvNtBW_3ser27wrap_serialize_variant_withs_0NCINvNvB1J_8for_each4callB37_NCINvMsi_NtCse1nGBsou5OW_5alloc3vecINtB59_3VecB37_E14extend_trustedINtB2z_3MapBF_B3O_EE0E0E0EBW_, symObjAddr: 0x170C, symBinAddr: 0x3FB54, symSize: 0x1B8 }
  - { offset: 0x3F3FF, size: 0x8, addend: 0x0, symName: __RINvXs2U_NtNtCsfvfooZQ3Axs_4core5slice4iterINtB7_4IterNtNtNtCs1edtEUeLQ4Q_12serde_derive9internals3ast5FieldENtNtNtNtBb_4iter6traits8iterator8Iterator4folduNCINvNtNtB1P_8adapters3map8map_foldRBQ_NtNtCs6IAuOt8vWmF_3syn4expr6MemberuNCNvNtBW_3ser35serialize_adjacently_tagged_variants0_0NCINvNvB1J_8for_each4callB37_NCINvMsi_NtCse1nGBsou5OW_5alloc3vecINtB5a_3VecB37_E14extend_trustedINtB2z_3MapBF_B3G_EE0E0E0EBW_, symObjAddr: 0x18C4, symBinAddr: 0x3FD0C, symSize: 0x1B8 }
  - { offset: 0x3F553, size: 0x8, addend: 0x0, symName: __RINvXs2U_NtNtCsfvfooZQ3Axs_4core5slice4iterINtB7_4IterNtNtNtCs1edtEUeLQ4Q_12serde_derive9internals3ast5FieldENtNtNtNtBb_4iter6traits8iterator8Iterator4folduNCINvNtNtB1P_8adapters3map8map_foldRBQ_RNtNtCs6IAuOt8vWmF_3syn2ty4TypeuNCNvNtBW_3ser27wrap_serialize_variant_with0NCINvNvB1J_8for_each4callB37_NCINvMsi_NtCse1nGBsou5OW_5alloc3vecINtB4W_3VecB37_E14extend_trustedINtB2z_3MapBF_B3D_EE0E0E0EBW_, symObjAddr: 0x1A7C, symBinAddr: 0x3FEC4, symSize: 0x1B8 }
  - { offset: 0x3F6A7, size: 0x8, addend: 0x0, symName: __RINvXs2U_NtNtCsfvfooZQ3Axs_4core5slice4iterINtB7_4IterNtNtNtCs1edtEUeLQ4Q_12serde_derive9internals3ast5FieldENtNtNtNtBb_4iter6traits8iterator8Iterator4folduNCINvNtNtB1P_8adapters3map8map_foldRBQ_RNtNtCs6IAuOt8vWmF_3syn4expr6MemberuNCNvNtBW_3ser37serialize_struct_variant_with_flattens0_0NCINvNvB1J_8for_each4callB37_NCINvMsi_NtCse1nGBsou5OW_5alloc3vecINtB5d_3VecB37_E14extend_trustedINtB2z_3MapBF_B3H_EE0E0E0EBW_, symObjAddr: 0x1C34, symBinAddr: 0x4007C, symSize: 0x1B8 }
  - { offset: 0x3F7FB, size: 0x8, addend: 0x0, symName: __RINvXs2U_NtNtCsfvfooZQ3Axs_4core5slice4iterINtB7_4IterNtNtNtCs1edtEUeLQ4Q_12serde_derive9internals3ast5FieldENtNtNtNtBb_4iter6traits8iterator8Iterator4folduNCINvNtNtB1P_8adapters3map8map_foldRBQ_RNtNtCs6IAuOt8vWmF_3syn4expr6MemberuNCNvNtBW_7pretend33pretend_fields_used_struct_packed0NCINvNvB1J_8for_each4callB37_NCINvMsi_NtCse1nGBsou5OW_5alloc3vecINtB5a_3VecB37_E14extend_trustedINtB2z_3MapBF_B3H_EE0E0E0EBW_, symObjAddr: 0x1DEC, symBinAddr: 0x40234, symSize: 0x1B8 }
  - { offset: 0x3F94F, size: 0x8, addend: 0x0, symName: __RINvXs2U_NtNtCsfvfooZQ3Axs_4core5slice4iterINtB7_4IterNtNtNtCs1edtEUeLQ4Q_12serde_derive9internals3ast5FieldENtNtNtNtBb_4iter6traits8iterator8Iterator4folduNCINvNvXs_NtNtB1P_8adapters9enumerateINtB2E_9EnumeratepEB1J_4fold9enumerateRBQ_uNCINvNtB2G_3map8map_foldTjB3H_ETB3H_NtCs3cP53eQoTwO_11proc_macro25IdentEuNCNvNtBW_2de15deserialize_map0NCINvNvB1J_8for_each4callB4h_NCINvMsi_NtCse1nGBsou5OW_5alloc3vecINtB63_3VecB4h_E14extend_trustedINtB3R_3MapIB36_BF_EB4X_EE0E0E0E0EBW_, symObjAddr: 0x1FA4, symBinAddr: 0x403EC, symSize: 0x1B8 }
  - { offset: 0x3FAA3, size: 0x8, addend: 0x0, symName: __RINvXs2U_NtNtCsfvfooZQ3Axs_4core5slice4iterINtB7_4IterNtNtNtCs1edtEUeLQ4Q_12serde_derive9internals3ast7VariantENtNtNtNtBb_4iter6traits8iterator8Iterator3allNCNvNtBW_2de34deserialize_externally_tagged_enums0_0EBW_, symObjAddr: 0x215C, symBinAddr: 0x405A4, symSize: 0xB0 }
  - { offset: 0x3FB08, size: 0x8, addend: 0x0, symName: __RINvXs2U_NtNtCsfvfooZQ3Axs_4core5slice4iterINtB7_4IterNtNtNtCs1edtEUeLQ4Q_12serde_derive9internals3ast7VariantENtNtNtNtBb_4iter6traits8iterator8Iterator4findQNCNvNtBW_2de31deserialize_untagged_enum_after0EBW_, symObjAddr: 0x220C, symBinAddr: 0x40654, symSize: 0xB4 }
  - { offset: 0x3FB6D, size: 0x8, addend: 0x0, symName: __RINvXs2U_NtNtCsfvfooZQ3Axs_4core5slice4iterINtB7_4IterNtNtNtCs1edtEUeLQ4Q_12serde_derive9internals3ast7VariantENtNtNtNtBb_4iter6traits8iterator8Iterator4folduNCINvNtNtB1R_8adapters3map8map_foldRBQ_NtNtBW_2de16FieldWithAliasesuNCNvB3b_29deserialize_custom_identifiers_0NCINvNvB1L_8for_each4callB39_NCINvMsi_NtCse1nGBsou5OW_5alloc3vecINtB4U_3VecB39_E14extend_trustedINtB2B_3MapBF_B3C_EE0E0E0EBW_, symObjAddr: 0x22C0, symBinAddr: 0x40708, symSize: 0x1B8 }
  - { offset: 0x3FCC1, size: 0x8, addend: 0x0, symName: __RINvXs2U_NtNtCsfvfooZQ3Axs_4core5slice4iterINtB7_4IterNtNtNtCs1edtEUeLQ4Q_12serde_derive9internals3ast7VariantENtNtNtNtBb_4iter6traits8iterator8Iterator4folduNCINvNvXs_NtNtB1R_8adapters9enumerateINtB2G_9EnumeratepEB1L_4fold9enumerateRBQ_uNCINvNtB2I_3map8map_foldTjB3J_ENtCs3cP53eQoTwO_11proc_macro211TokenStreamuNCNvNtBW_3ser14serialize_enum0NCINvNvB1L_8for_each4callB4j_NCINvMsi_NtCse1nGBsou5OW_5alloc3vecINtB66_3VecB4j_E14extend_trustedINtB3T_3MapIB38_BF_EB50_EE0E0E0E0EBW_, symObjAddr: 0x2478, symBinAddr: 0x408C0, symSize: 0x1B8 }
  - { offset: 0x3FE15, size: 0x8, addend: 0x0, symName: __RINvXs2U_NtNtCsfvfooZQ3Axs_4core5slice4iterINtB7_4IterNtNtNtCs1edtEUeLQ4Q_12serde_derive9internals3ast7VariantENtNtNtNtBb_4iter6traits8iterator8Iterator8find_mapNtCs3cP53eQoTwO_11proc_macro211TokenStreamQNCNvNtBW_7pretend24pretend_fields_used_enum0EBW_, symObjAddr: 0x2630, symBinAddr: 0x40A78, symSize: 0xF0 }
  - { offset: 0x3FE99, size: 0x8, addend: 0x0, symName: __RINvXs2U_NtNtCsfvfooZQ3Axs_4core5slice4iterINtB7_4IterNtNtNtCs1edtEUeLQ4Q_12serde_derive9internals3ast7VariantENtNtNtNtBb_4iter6traits8iterator8Iterator8find_mapRSNtNtCs6IAuOt8vWmF_3syn8generics14WherePredicateQNCNvNtBW_5bound35with_where_predicates_from_variants0EBW_, symObjAddr: 0x2720, symBinAddr: 0x40B68, symSize: 0xE8 }
  - { offset: 0x3FF1D, size: 0x8, addend: 0x0, symName: __RINvXs2U_NtNtCsfvfooZQ3Axs_4core5slice4iterINtB7_4IterNtNtNtCs1edtEUeLQ4Q_12serde_derive9internals3ast7VariantENtNtNtNtBb_4iter6traits8iterator8Iterator8positionNCNvNtBW_2de16deserialize_enum0EBW_, symObjAddr: 0x2808, symBinAddr: 0x40C50, symSize: 0x180 }
  - { offset: 0x3FFDB, size: 0x8, addend: 0x0, symName: __RINvXs2U_NtNtCsfvfooZQ3Axs_4core5slice4iterINtB7_4IterNtNtNtCs1edtEUeLQ4Q_12serde_derive9internals3ast7VariantENtNtNtNtBb_4iter6traits8iterator8Iterator9rpositionNCNvBS_13enum_from_asts_0EBW_, symObjAddr: 0x2988, symBinAddr: 0x40DD0, symSize: 0x160 }
  - { offset: 0x400A0, size: 0x8, addend: 0x0, symName: __RINvXs2U_NtNtCsfvfooZQ3Axs_4core5slice4iterINtB7_4IterTRNtNtNtCs1edtEUeLQ4Q_12serde_derive9internals3ast5FieldNtCs3cP53eQoTwO_11proc_macro25IdentEENtNtNtNtBb_4iter6traits8iterator8Iterator4findQNCNvNtBY_2de15deserialize_maps1_0EBY_, symObjAddr: 0x2AE8, symBinAddr: 0x40F30, symSize: 0xB4 }
  - { offset: 0x40105, size: 0x8, addend: 0x0, symName: __RINvXs2U_NtNtCsfvfooZQ3Axs_4core5slice4iterINtB7_4IterTRNtNtNtCs1edtEUeLQ4Q_12serde_derive9internals3ast5FieldNtCs3cP53eQoTwO_11proc_macro25IdentEENtNtNtNtBb_4iter6traits8iterator8Iterator4findQNCNvNtBY_2de15deserialize_maps4_0EBY_, symObjAddr: 0x2B9C, symBinAddr: 0x40FE4, symSize: 0xB4 }
  - { offset: 0x4016A, size: 0x8, addend: 0x0, symName: __RINvXs2U_NtNtCsfvfooZQ3Axs_4core5slice4iterINtB7_4IterTRNtNtNtCs1edtEUeLQ4Q_12serde_derive9internals3ast5FieldNtCs3cP53eQoTwO_11proc_macro25IdentEENtNtNtNtBb_4iter6traits8iterator8Iterator4findQNCNvNtBY_2de15deserialize_maps6_0EBY_, symObjAddr: 0x2C50, symBinAddr: 0x41098, symSize: 0xB4 }
  - { offset: 0x401CF, size: 0x8, addend: 0x0, symName: __RINvXs2U_NtNtCsfvfooZQ3Axs_4core5slice4iterINtB7_4IterTRNtNtNtCs1edtEUeLQ4Q_12serde_derive9internals3ast5FieldNtCs3cP53eQoTwO_11proc_macro25IdentEENtNtNtNtBb_4iter6traits8iterator8Iterator4findQNCNvNtBY_2de15deserialize_maps_0EBY_, symObjAddr: 0x2D04, symBinAddr: 0x4114C, symSize: 0xB4 }
  - { offset: 0x40234, size: 0x8, addend: 0x0, symName: __RINvXs2U_NtNtCsfvfooZQ3Axs_4core5slice4iterINtB7_4IterhENtNtNtNtBb_4iter6traits8iterator8Iterator4folduNCINvNtNtBY_8adapters3map8map_foldRhhuNCNvNtCse1nGBsou5OW_5alloc3str13replace_ascii0NCINvNvBS_8for_each4callhNCINvMsi_NtB2l_3vecINtB3x_3VechE14extend_trustedINtB1I_3MapBF_B2f_EE0E0E0ECs1edtEUeLQ4Q_12serde_derive, symObjAddr: 0x2DB8, symBinAddr: 0x41200, symSize: 0x1B0 }
  - { offset: 0x40388, size: 0x8, addend: 0x0, symName: __RNvXs2U_NtNtCsfvfooZQ3Axs_4core5slice4iterINtB6_4IterNtCs3cP53eQoTwO_11proc_macro211TokenStreamENtNtNtNtBa_4iter6traits8iterator8Iterator4nextCs1edtEUeLQ4Q_12serde_derive, symObjAddr: 0x4DA0, symBinAddr: 0x431E8, symSize: 0xBC }
  - { offset: 0x404D6, size: 0x8, addend: 0x0, symName: __RNvXs2U_NtNtCsfvfooZQ3Axs_4core5slice4iterINtB6_4IterNtCs3cP53eQoTwO_11proc_macro25IdentENtNtNtNtBa_4iter6traits8iterator8Iterator4nextCs1edtEUeLQ4Q_12serde_derive, symObjAddr: 0x4E5C, symBinAddr: 0x432A4, symSize: 0xBC }
  - { offset: 0x40624, size: 0x8, addend: 0x0, symName: __RNvXs2U_NtNtCsfvfooZQ3Axs_4core5slice4iterINtB6_4IterNtNtCs1edtEUeLQ4Q_12serde_derive2de16FieldWithAliasesENtNtNtNtBa_4iter6traits8iterator8Iterator4nextBT_, symObjAddr: 0x4F18, symBinAddr: 0x43360, symSize: 0xBC }
  - { offset: 0x40772, size: 0x8, addend: 0x0, symName: __RNvXs2U_NtNtCsfvfooZQ3Axs_4core5slice4iterINtB6_4IterNtNtCs1edtEUeLQ4Q_12serde_derive2de16FieldWithAliasesENtNtNtNtBa_4iter6traits8iterator8Iterator9size_hintBT_, symObjAddr: 0x4FD4, symBinAddr: 0x4341C, symSize: 0x70 }
  - { offset: 0x407E1, size: 0x8, addend: 0x0, symName: __RNvXs2U_NtNtCsfvfooZQ3Axs_4core5slice4iterINtB6_4IterNtNtCs6IAuOt8vWmF_3syn4expr6MemberENtNtNtNtBa_4iter6traits8iterator8Iterator4nextCs1edtEUeLQ4Q_12serde_derive, symObjAddr: 0x5044, symBinAddr: 0x4348C, symSize: 0xBC }
  - { offset: 0x4092F, size: 0x8, addend: 0x0, symName: __RNvXs2U_NtNtCsfvfooZQ3Axs_4core5slice4iterINtB6_4IterNtNtCs6IAuOt8vWmF_3syn8generics14WherePredicateENtNtNtNtBa_4iter6traits8iterator8Iterator4nextCs1edtEUeLQ4Q_12serde_derive, symObjAddr: 0x5100, symBinAddr: 0x43548, symSize: 0xBC }
  - { offset: 0x40A7D, size: 0x8, addend: 0x0, symName: __RNvXs2U_NtNtCsfvfooZQ3Axs_4core5slice4iterINtB6_4IterNtNtCs6IAuOt8vWmF_3syn8lifetime8LifetimeENtNtNtNtBa_4iter6traits8iterator8Iterator4nextCs1edtEUeLQ4Q_12serde_derive, symObjAddr: 0x51BC, symBinAddr: 0x43604, symSize: 0xBC }
  - { offset: 0x40BCB, size: 0x8, addend: 0x0, symName: __RNvXs2U_NtNtCsfvfooZQ3Axs_4core5slice4iterINtB6_4IterNtNtNtCs1edtEUeLQ4Q_12serde_derive9internals3ast5FieldENtNtNtNtBa_4iter6traits8iterator8Iterator10advance_byBV_, symObjAddr: 0x5278, symBinAddr: 0x436C0, symSize: 0xB8 }
  - { offset: 0x40D00, size: 0x8, addend: 0x0, symName: __RNvXs2U_NtNtCsfvfooZQ3Axs_4core5slice4iterINtB6_4IterNtNtNtCs1edtEUeLQ4Q_12serde_derive9internals3ast5FieldENtNtNtNtBa_4iter6traits8iterator8Iterator24___iterator_get_uncheckedBV_, symObjAddr: 0x5330, symBinAddr: 0x43778, symSize: 0x28 }
  - { offset: 0x40D5B, size: 0x8, addend: 0x0, symName: __RNvXs2U_NtNtCsfvfooZQ3Axs_4core5slice4iterINtB6_4IterNtNtNtCs1edtEUeLQ4Q_12serde_derive9internals3ast5FieldENtNtNtNtBa_4iter6traits8iterator8Iterator3nthBV_, symObjAddr: 0x5358, symBinAddr: 0x437A0, symSize: 0x128 }
  - { offset: 0x40F3B, size: 0x8, addend: 0x0, symName: __RNvXs2U_NtNtCsfvfooZQ3Axs_4core5slice4iterINtB6_4IterNtNtNtCs1edtEUeLQ4Q_12serde_derive9internals3ast5FieldENtNtNtNtBa_4iter6traits8iterator8Iterator4nextBV_, symObjAddr: 0x5480, symBinAddr: 0x438C8, symSize: 0xBC }
  - { offset: 0x41089, size: 0x8, addend: 0x0, symName: __RNvXs2U_NtNtCsfvfooZQ3Axs_4core5slice4iterINtB6_4IterNtNtNtCs1edtEUeLQ4Q_12serde_derive9internals3ast5FieldENtNtNtNtBa_4iter6traits8iterator8Iterator9size_hintBV_, symObjAddr: 0x553C, symBinAddr: 0x43984, symSize: 0x70 }
  - { offset: 0x410F8, size: 0x8, addend: 0x0, symName: __RNvXs2U_NtNtCsfvfooZQ3Axs_4core5slice4iterINtB6_4IterNtNtNtCs1edtEUeLQ4Q_12serde_derive9internals3ast7VariantENtNtNtNtBa_4iter6traits8iterator8Iterator4nextBV_, symObjAddr: 0x55AC, symBinAddr: 0x439F4, symSize: 0xBC }
  - { offset: 0x41246, size: 0x8, addend: 0x0, symName: __RNvXs2U_NtNtCsfvfooZQ3Axs_4core5slice4iterINtB6_4IterNtNtNtCs1edtEUeLQ4Q_12serde_derive9internals3ast7VariantENtNtNtNtBa_4iter6traits8iterator8Iterator9size_hintBV_, symObjAddr: 0x5668, symBinAddr: 0x43AB0, symSize: 0x70 }
  - { offset: 0x412B5, size: 0x8, addend: 0x0, symName: __RNvXs2U_NtNtCsfvfooZQ3Axs_4core5slice4iterINtB6_4IterNtNtNtCs1edtEUeLQ4Q_12serde_derive9internals4name4NameENtNtNtNtBa_4iter6traits8iterator8Iterator4nextBV_, symObjAddr: 0x56D8, symBinAddr: 0x43B20, symSize: 0xBC }
  - { offset: 0x41403, size: 0x8, addend: 0x0, symName: __RNvXs2U_NtNtCsfvfooZQ3Axs_4core5slice4iterINtB6_4IterRNtCs3cP53eQoTwO_11proc_macro25IdentENtNtNtNtBa_4iter6traits8iterator8Iterator4nextCs1edtEUeLQ4Q_12serde_derive, symObjAddr: 0x5794, symBinAddr: 0x43BDC, symSize: 0xBC }
  - { offset: 0x41551, size: 0x8, addend: 0x0, symName: __RNvXs2U_NtNtCsfvfooZQ3Axs_4core5slice4iterINtB6_4IterRNtNtCs6IAuOt8vWmF_3syn2ty4TypeENtNtNtNtBa_4iter6traits8iterator8Iterator4nextCs1edtEUeLQ4Q_12serde_derive, symObjAddr: 0x5850, symBinAddr: 0x43C98, symSize: 0xBC }
  - { offset: 0x4169F, size: 0x8, addend: 0x0, symName: __RNvXs2U_NtNtCsfvfooZQ3Axs_4core5slice4iterINtB6_4IterRNtNtCs6IAuOt8vWmF_3syn4expr6MemberENtNtNtNtBa_4iter6traits8iterator8Iterator4nextCs1edtEUeLQ4Q_12serde_derive, symObjAddr: 0x590C, symBinAddr: 0x43D54, symSize: 0xBC }
  - { offset: 0x417ED, size: 0x8, addend: 0x0, symName: __RNvXs2U_NtNtCsfvfooZQ3Axs_4core5slice4iterINtB6_4IterTRNtNtNtCs1edtEUeLQ4Q_12serde_derive9internals3ast5FieldNtCs3cP53eQoTwO_11proc_macro25IdentEENtNtNtNtBa_4iter6traits8iterator8Iterator4nextBX_, symObjAddr: 0x59C8, symBinAddr: 0x43E10, symSize: 0xBC }
  - { offset: 0x4193B, size: 0x8, addend: 0x0, symName: __RNvXs2U_NtNtCsfvfooZQ3Axs_4core5slice4iterINtB6_4IterTReNtNtNtCs1edtEUeLQ4Q_12serde_derive9internals4case10RenameRuleEENtNtNtNtBa_4iter6traits8iterator8Iterator4nextBY_, symObjAddr: 0x5A84, symBinAddr: 0x43ECC, symSize: 0xBC }
  - { offset: 0x41A89, size: 0x8, addend: 0x0, symName: __RNvXs2U_NtNtCsfvfooZQ3Axs_4core5slice4iterINtB6_4IterhENtNtNtNtBa_4iter6traits8iterator8Iterator9size_hintCs1edtEUeLQ4Q_12serde_derive, symObjAddr: 0x5B40, symBinAddr: 0x43F88, symSize: 0x70 }
  - { offset: 0x428DC, size: 0x8, addend: 0x0, symName: __RNvXs2V_NtNtCsfvfooZQ3Axs_4core5slice4iterINtB6_4IterNtNtNtCs1edtEUeLQ4Q_12serde_derive9internals3ast7VariantENtNtNtNtBa_4iter6traits12double_ended19DoubleEndedIterator9next_backBV_, symObjAddr: 0x5BB0, symBinAddr: 0x43FF8, symSize: 0x100 }
  - { offset: 0x42A38, size: 0x8, addend: 0x0, symName: __RNvXs2V_NtNtCsfvfooZQ3Axs_4core5slice4iterINtB6_4IterTNtNtCs6IAuOt8vWmF_3syn2ty4TypeNtNtBU_5token5CommaEENtNtNtNtBa_4iter6traits12double_ended19DoubleEndedIterator9next_backCs1edtEUeLQ4Q_12serde_derive, symObjAddr: 0x5CB0, symBinAddr: 0x440F8, symSize: 0x100 }
  - { offset: 0x42B94, size: 0x8, addend: 0x0, symName: __RNvXs2V_NtNtCsfvfooZQ3Axs_4core5slice4iterINtB6_4IterTNtNtCs6IAuOt8vWmF_3syn2ty9BareFnArgNtNtBU_5token5CommaEENtNtNtNtBa_4iter6traits12double_ended19DoubleEndedIterator9next_backCs1edtEUeLQ4Q_12serde_derive, symObjAddr: 0x5DB0, symBinAddr: 0x441F8, symSize: 0x100 }
  - { offset: 0x42CF0, size: 0x8, addend: 0x0, symName: __RNvXs2V_NtNtCsfvfooZQ3Axs_4core5slice4iterINtB6_4IterTNtNtCs6IAuOt8vWmF_3syn4data7VariantNtNtBU_5token5CommaEENtNtNtNtBa_4iter6traits12double_ended19DoubleEndedIterator9next_backCs1edtEUeLQ4Q_12serde_derive, symObjAddr: 0x5EB0, symBinAddr: 0x442F8, symSize: 0x100 }
  - { offset: 0x42E4C, size: 0x8, addend: 0x0, symName: __RNvXs2V_NtNtCsfvfooZQ3Axs_4core5slice4iterINtB6_4IterTNtNtCs6IAuOt8vWmF_3syn4path15GenericArgumentNtNtBU_5token5CommaEENtNtNtNtBa_4iter6traits12double_ended19DoubleEndedIterator9next_backCs1edtEUeLQ4Q_12serde_derive, symObjAddr: 0x5FB0, symBinAddr: 0x443F8, symSize: 0x100 }
  - { offset: 0x43348, size: 0x8, addend: 0x0, symName: __RNvXs32_NtNtCsfvfooZQ3Axs_4core5slice4iterINtB6_7IterMutNtNtNtCs1edtEUeLQ4Q_12serde_derive9internals3ast5FieldENtNtNtNtBa_4iter6traits8iterator8Iterator4nextBY_, symObjAddr: 0x60B0, symBinAddr: 0x444F8, symSize: 0xBC }
  - { offset: 0x43481, size: 0x8, addend: 0x0, symName: __RNvXs32_NtNtCsfvfooZQ3Axs_4core5slice4iterINtB6_7IterMutNtNtNtCs1edtEUeLQ4Q_12serde_derive9internals3ast7VariantENtNtNtNtBa_4iter6traits8iterator8Iterator4nextBY_, symObjAddr: 0x616C, symBinAddr: 0x445B4, symSize: 0xBC }
  - { offset: 0x435BA, size: 0x8, addend: 0x0, symName: __RNvXs32_NtNtCsfvfooZQ3Axs_4core5slice4iterINtB6_7IterMutTNtNtCs6IAuOt8vWmF_3syn2ty4TypeNtNtBX_5token5CommaEENtNtNtNtBa_4iter6traits8iterator8Iterator4nextCs1edtEUeLQ4Q_12serde_derive, symObjAddr: 0x6228, symBinAddr: 0x44670, symSize: 0xBC }
  - { offset: 0x436F3, size: 0x8, addend: 0x0, symName: __RNvXs32_NtNtCsfvfooZQ3Axs_4core5slice4iterINtB6_7IterMutTNtNtCs6IAuOt8vWmF_3syn2ty9BareFnArgNtNtBX_5token5CommaEENtNtNtNtBa_4iter6traits8iterator8Iterator4nextCs1edtEUeLQ4Q_12serde_derive, symObjAddr: 0x62E4, symBinAddr: 0x4472C, symSize: 0xBC }
  - { offset: 0x4382C, size: 0x8, addend: 0x0, symName: __RNvXs32_NtNtCsfvfooZQ3Axs_4core5slice4iterINtB6_7IterMutTNtNtCs6IAuOt8vWmF_3syn4data7VariantNtNtBX_5token5CommaEENtNtNtNtBa_4iter6traits8iterator8Iterator4nextCs1edtEUeLQ4Q_12serde_derive, symObjAddr: 0x63A0, symBinAddr: 0x447E8, symSize: 0xBC }
  - { offset: 0x43965, size: 0x8, addend: 0x0, symName: __RNvXs32_NtNtCsfvfooZQ3Axs_4core5slice4iterINtB6_7IterMutTNtNtCs6IAuOt8vWmF_3syn4expr4ExprNtNtBX_5token5CommaEENtNtNtNtBa_4iter6traits8iterator8Iterator4nextCs1edtEUeLQ4Q_12serde_derive, symObjAddr: 0x645C, symBinAddr: 0x448A4, symSize: 0xBC }
  - { offset: 0x43A9E, size: 0x8, addend: 0x0, symName: __RNvXs32_NtNtCsfvfooZQ3Axs_4core5slice4iterINtB6_7IterMutTNtNtCs6IAuOt8vWmF_3syn4path15GenericArgumentNtNtBX_5token5CommaEENtNtNtNtBa_4iter6traits8iterator8Iterator4nextCs1edtEUeLQ4Q_12serde_derive, symObjAddr: 0x6518, symBinAddr: 0x44960, symSize: 0xBC }
  - { offset: 0x43BD7, size: 0x8, addend: 0x0, symName: __RNvXs32_NtNtCsfvfooZQ3Axs_4core5slice4iterINtB6_7IterMutTNtNtCs6IAuOt8vWmF_3syn8generics14TypeParamBoundNtNtBX_5token4PlusEENtNtNtNtBa_4iter6traits8iterator8Iterator4nextCs1edtEUeLQ4Q_12serde_derive, symObjAddr: 0x65D4, symBinAddr: 0x44A1C, symSize: 0xBC }
  - { offset: 0x43D10, size: 0x8, addend: 0x0, symName: __RNvXs32_NtNtCsfvfooZQ3Axs_4core5slice4iterINtB6_7IterMutTNtNtCs6IAuOt8vWmF_3syn8generics14WherePredicateNtNtBX_5token5CommaEENtNtNtNtBa_4iter6traits8iterator8Iterator4nextCs1edtEUeLQ4Q_12serde_derive, symObjAddr: 0x6690, symBinAddr: 0x44AD8, symSize: 0xBC }
  - { offset: 0x43EA8, size: 0x8, addend: 0x0, symName: __RNvXs33_NtNtCsfvfooZQ3Axs_4core5slice4iterINtB6_7IterMutTNtNtCs6IAuOt8vWmF_3syn2ty4TypeNtNtBX_5token5CommaEENtNtNtNtBa_4iter6traits12double_ended19DoubleEndedIterator9next_backCs1edtEUeLQ4Q_12serde_derive, symObjAddr: 0x674C, symBinAddr: 0x44B94, symSize: 0x100 }
  - { offset: 0x44004, size: 0x8, addend: 0x0, symName: __RNvXs33_NtNtCsfvfooZQ3Axs_4core5slice4iterINtB6_7IterMutTNtNtCs6IAuOt8vWmF_3syn2ty9BareFnArgNtNtBX_5token5CommaEENtNtNtNtBa_4iter6traits12double_ended19DoubleEndedIterator9next_backCs1edtEUeLQ4Q_12serde_derive, symObjAddr: 0x684C, symBinAddr: 0x44C94, symSize: 0x100 }
  - { offset: 0x44160, size: 0x8, addend: 0x0, symName: __RNvXs33_NtNtCsfvfooZQ3Axs_4core5slice4iterINtB6_7IterMutTNtNtCs6IAuOt8vWmF_3syn4data7VariantNtNtBX_5token5CommaEENtNtNtNtBa_4iter6traits12double_ended19DoubleEndedIterator9next_backCs1edtEUeLQ4Q_12serde_derive, symObjAddr: 0x694C, symBinAddr: 0x44D94, symSize: 0x100 }
  - { offset: 0x442BC, size: 0x8, addend: 0x0, symName: __RNvXs33_NtNtCsfvfooZQ3Axs_4core5slice4iterINtB6_7IterMutTNtNtCs6IAuOt8vWmF_3syn4expr4ExprNtNtBX_5token5CommaEENtNtNtNtBa_4iter6traits12double_ended19DoubleEndedIterator9next_backCs1edtEUeLQ4Q_12serde_derive, symObjAddr: 0x6A4C, symBinAddr: 0x44E94, symSize: 0x100 }
  - { offset: 0x44418, size: 0x8, addend: 0x0, symName: __RNvXs33_NtNtCsfvfooZQ3Axs_4core5slice4iterINtB6_7IterMutTNtNtCs6IAuOt8vWmF_3syn4path15GenericArgumentNtNtBX_5token5CommaEENtNtNtNtBa_4iter6traits12double_ended19DoubleEndedIterator9next_backCs1edtEUeLQ4Q_12serde_derive, symObjAddr: 0x6B4C, symBinAddr: 0x44F94, symSize: 0x100 }
  - { offset: 0x44574, size: 0x8, addend: 0x0, symName: __RNvXs33_NtNtCsfvfooZQ3Axs_4core5slice4iterINtB6_7IterMutTNtNtCs6IAuOt8vWmF_3syn8generics14TypeParamBoundNtNtBX_5token4PlusEENtNtNtNtBa_4iter6traits12double_ended19DoubleEndedIterator9next_backCs1edtEUeLQ4Q_12serde_derive, symObjAddr: 0x6C4C, symBinAddr: 0x45094, symSize: 0x100 }
  - { offset: 0x446D0, size: 0x8, addend: 0x0, symName: __RNvXs33_NtNtCsfvfooZQ3Axs_4core5slice4iterINtB6_7IterMutTNtNtCs6IAuOt8vWmF_3syn8generics14WherePredicateNtNtBX_5token5CommaEENtNtNtNtBa_4iter6traits12double_ended19DoubleEndedIterator9next_backCs1edtEUeLQ4Q_12serde_derive, symObjAddr: 0x6D4C, symBinAddr: 0x45194, symSize: 0x100 }
  - { offset: 0x44832, size: 0x8, addend: 0x0, symName: __RNvXs5_NtNtCsfvfooZQ3Axs_4core5slice4iterINtB5_4IterNtNtCs1edtEUeLQ4Q_12serde_derive2de16FieldWithAliasesENtNtB9_5clone5Clone5cloneBS_, symObjAddr: 0x6E4C, symBinAddr: 0x45294, symSize: 0x20 }
  - { offset: 0x44867, size: 0x8, addend: 0x0, symName: __RNvXs5_NtNtCsfvfooZQ3Axs_4core5slice4iterINtB5_4IterNtNtNtCs1edtEUeLQ4Q_12serde_derive9internals3ast7VariantENtNtB9_5clone5Clone5cloneBU_, symObjAddr: 0x6E6C, symBinAddr: 0x452B4, symSize: 0x20 }
  - { offset: 0x4489C, size: 0x8, addend: 0x0, symName: __RNvXs5_NtNtCsfvfooZQ3Axs_4core5slice4iterINtB5_4IterTNtNtCs6IAuOt8vWmF_3syn2ty4TypeNtNtBT_5token5CommaEENtNtB9_5clone5Clone5cloneCs1edtEUeLQ4Q_12serde_derive, symObjAddr: 0x6E8C, symBinAddr: 0x452D4, symSize: 0x20 }
  - { offset: 0x448D1, size: 0x8, addend: 0x0, symName: __RNvXs5_NtNtCsfvfooZQ3Axs_4core5slice4iterINtB5_4IterTNtNtCs6IAuOt8vWmF_3syn2ty9BareFnArgNtNtBT_5token5CommaEENtNtB9_5clone5Clone5cloneCs1edtEUeLQ4Q_12serde_derive, symObjAddr: 0x6EAC, symBinAddr: 0x452F4, symSize: 0x20 }
  - { offset: 0x44906, size: 0x8, addend: 0x0, symName: __RNvXs5_NtNtCsfvfooZQ3Axs_4core5slice4iterINtB5_4IterTNtNtCs6IAuOt8vWmF_3syn4data7VariantNtNtBT_5token5CommaEENtNtB9_5clone5Clone5cloneCs1edtEUeLQ4Q_12serde_derive, symObjAddr: 0x6ECC, symBinAddr: 0x45314, symSize: 0x20 }
  - { offset: 0x4493B, size: 0x8, addend: 0x0, symName: __RNvXs5_NtNtCsfvfooZQ3Axs_4core5slice4iterINtB5_4IterTNtNtCs6IAuOt8vWmF_3syn4path15GenericArgumentNtNtBT_5token5CommaEENtNtB9_5clone5Clone5cloneCs1edtEUeLQ4Q_12serde_derive, symObjAddr: 0x6EEC, symBinAddr: 0x45334, symSize: 0x20 }
  - { offset: 0x454A4, size: 0x8, addend: 0x0, symName: __RNvXsA_NtNtNtCsfvfooZQ3Axs_4core4iter8adapters7flattenINtNtNtBb_5slice4iter4IterNtNtNtCs1edtEUeLQ4Q_12serde_derive9internals3ast5FieldENtB5_21ConstSizeIntoIterator4sizeB1m_, symObjAddr: 0x6F0C, symBinAddr: 0x45354, symSize: 0x18 }
  - { offset: 0x45D8E, size: 0x8, addend: 0x0, symName: __RNvYINtNtNtCsfvfooZQ3Axs_4core5slice4iter4IterNtNtNtCs1edtEUeLQ4Q_12serde_derive9internals3ast5FieldENtNtNtNtB9_4iter8adapters3zip27TrustedRandomAccessNoCoerce4sizeBO_, symObjAddr: 0x6F74, symBinAddr: 0x453BC, symSize: 0x2C }
  - { offset: 0x45DFB, size: 0x8, addend: 0x0, symName: __RINvYINtNtNtCsfvfooZQ3Axs_4core5slice4iter4IterNtNtCs1edtEUeLQ4Q_12serde_derive2de16FieldWithAliasesENtNtNtNtBa_4iter6traits8iterator8Iterator3mapNtCs3cP53eQoTwO_11proc_macro211TokenStreamNCNvBL_22deserialize_identifier0EBN_, symObjAddr: 0x2F68, symBinAddr: 0x413B0, symSize: 0x30 }
  - { offset: 0x45E68, size: 0x8, addend: 0x0, symName: __RINvYINtNtNtCsfvfooZQ3Axs_4core5slice4iter4IterNtNtCs1edtEUeLQ4Q_12serde_derive2de16FieldWithAliasesENtNtNtNtBa_4iter6traits8iterator8Iterator3mapNtCs3cP53eQoTwO_11proc_macro211TokenStreamNCNvBL_22deserialize_identifiers_0EBN_, symObjAddr: 0x2F98, symBinAddr: 0x413E0, symSize: 0x30 }
  - { offset: 0x45ED5, size: 0x8, addend: 0x0, symName: __RINvYINtNtNtCsfvfooZQ3Axs_4core5slice4iter4IterNtNtCs1edtEUeLQ4Q_12serde_derive2de16FieldWithAliasesENtNtNtNtBa_4iter6traits8iterator8Iterator3mapRINtNtNtNtCse1nGBsou5OW_5alloc11collections5btree3set8BTreeSetNtNtNtBN_9internals4name4NameENCNvBL_18deserialize_structs0_0EBN_, symObjAddr: 0x2FC8, symBinAddr: 0x41410, symSize: 0x1C }
  - { offset: 0x45F2D, size: 0x8, addend: 0x0, symName: __RINvYINtNtNtCsfvfooZQ3Axs_4core5slice4iter4IterNtNtCs1edtEUeLQ4Q_12serde_derive2de16FieldWithAliasesENtNtNtNtBa_4iter6traits8iterator8Iterator3mapRINtNtNtNtCse1nGBsou5OW_5alloc11collections5btree3set8BTreeSetNtNtNtBN_9internals4name4NameENCNvBL_29deserialize_custom_identifiers0_0EBN_, symObjAddr: 0x2FE4, symBinAddr: 0x4142C, symSize: 0x1C }
  - { offset: 0x45F85, size: 0x8, addend: 0x0, symName: __RINvYINtNtNtCsfvfooZQ3Axs_4core5slice4iter4IterNtNtCs1edtEUeLQ4Q_12serde_derive2de16FieldWithAliasesENtNtNtNtBa_4iter6traits8iterator8Iterator3mapRNtCs3cP53eQoTwO_11proc_macro25IdentNCNvBL_32deserialize_generated_identifier0EBN_, symObjAddr: 0x3000, symBinAddr: 0x41448, symSize: 0x1C }
  - { offset: 0x46004, size: 0x8, addend: 0x0, symName: __RINvYINtNtNtCsfvfooZQ3Axs_4core5slice4iter4IterNtNtCs1edtEUeLQ4Q_12serde_derive2de16FieldWithAliasesENtNtNtNtBa_4iter6traits8iterator8Iterator8flat_mapRINtNtNtNtCse1nGBsou5OW_5alloc11collections5btree3set8BTreeSetNtNtNtBN_9internals4name4NameENCNvBL_18deserialize_structs0_0EBN_, symObjAddr: 0x301C, symBinAddr: 0x41464, symSize: 0xB0 }
  - { offset: 0x460F9, size: 0x8, addend: 0x0, symName: __RINvYINtNtNtCsfvfooZQ3Axs_4core5slice4iter4IterNtNtCs1edtEUeLQ4Q_12serde_derive2de16FieldWithAliasesENtNtNtNtBa_4iter6traits8iterator8Iterator8flat_mapRINtNtNtNtCse1nGBsou5OW_5alloc11collections5btree3set8BTreeSetNtNtNtBN_9internals4name4NameENCNvBL_29deserialize_custom_identifiers0_0EBN_, symObjAddr: 0x30CC, symBinAddr: 0x41514, symSize: 0xB0 }
  - { offset: 0x461C7, size: 0x8, addend: 0x0, symName: __RINvYINtNtNtCsfvfooZQ3Axs_4core5slice4iter4IterNtNtCs6IAuOt8vWmF_3syn8generics14WherePredicateENtNtNtNtBa_4iter6traits8iterator8Iterator6clonedBJ_ECs1edtEUeLQ4Q_12serde_derive, symObjAddr: 0x317C, symBinAddr: 0x415C4, symSize: 0x1C }
  - { offset: 0x46207, size: 0x8, addend: 0x0, symName: __RINvYINtNtNtCsfvfooZQ3Axs_4core5slice4iter4IterNtNtNtCs1edtEUeLQ4Q_12serde_derive9internals3ast5FieldENtNtNtNtBa_4iter6traits8iterator8Iterator3mapNtCs3cP53eQoTwO_11proc_macro211TokenStreamNCNvNtBP_2de23deserialize_transparents_0EBP_, symObjAddr: 0x3198, symBinAddr: 0x415E0, symSize: 0x30 }
  - { offset: 0x46274, size: 0x8, addend: 0x0, symName: __RINvYINtNtNtCsfvfooZQ3Axs_4core5slice4iter4IterNtNtNtCs1edtEUeLQ4Q_12serde_derive9internals3ast5FieldENtNtNtNtBa_4iter6traits8iterator8Iterator3mapNtCs3cP53eQoTwO_11proc_macro211TokenStreamNCNvNtBP_3ser27wrap_serialize_variant_withs_0EBP_, symObjAddr: 0x31C8, symBinAddr: 0x41610, symSize: 0x1C }
  - { offset: 0x462CC, size: 0x8, addend: 0x0, symName: __RINvYINtNtNtCsfvfooZQ3Axs_4core5slice4iter4IterNtNtNtCs1edtEUeLQ4Q_12serde_derive9internals3ast5FieldENtNtNtNtBa_4iter6traits8iterator8Iterator3mapNtNtCs6IAuOt8vWmF_3syn4expr6MemberNCNvNtBP_3ser35serialize_adjacently_tagged_variants0_0EBP_, symObjAddr: 0x31E4, symBinAddr: 0x4162C, symSize: 0x1C }
  - { offset: 0x46324, size: 0x8, addend: 0x0, symName: __RINvYINtNtNtCsfvfooZQ3Axs_4core5slice4iter4IterNtNtNtCs1edtEUeLQ4Q_12serde_derive9internals3ast5FieldENtNtNtNtBa_4iter6traits8iterator8Iterator3mapRNtNtCs6IAuOt8vWmF_3syn2ty4TypeNCNvNtBP_2de25unwrap_to_variant_closure0EBP_, symObjAddr: 0x3200, symBinAddr: 0x41648, symSize: 0x1C }
  - { offset: 0x4637C, size: 0x8, addend: 0x0, symName: __RINvYINtNtNtCsfvfooZQ3Axs_4core5slice4iter4IterNtNtNtCs1edtEUeLQ4Q_12serde_derive9internals3ast5FieldENtNtNtNtBa_4iter6traits8iterator8Iterator3mapRNtNtCs6IAuOt8vWmF_3syn2ty4TypeNCNvNtBP_2de29wrap_deserialize_variant_with0EBP_, symObjAddr: 0x321C, symBinAddr: 0x41664, symSize: 0x1C }
  - { offset: 0x463D4, size: 0x8, addend: 0x0, symName: __RINvYINtNtNtCsfvfooZQ3Axs_4core5slice4iter4IterNtNtNtCs1edtEUeLQ4Q_12serde_derive9internals3ast5FieldENtNtNtNtBa_4iter6traits8iterator8Iterator3mapRNtNtCs6IAuOt8vWmF_3syn2ty4TypeNCNvNtBP_3ser27wrap_serialize_variant_with0EBP_, symObjAddr: 0x3238, symBinAddr: 0x41680, symSize: 0x1C }
  - { offset: 0x4642C, size: 0x8, addend: 0x0, symName: __RINvYINtNtNtCsfvfooZQ3Axs_4core5slice4iter4IterNtNtNtCs1edtEUeLQ4Q_12serde_derive9internals3ast5FieldENtNtNtNtBa_4iter6traits8iterator8Iterator3mapRNtNtCs6IAuOt8vWmF_3syn4expr6MemberNCNCNvNtBP_7pretend21pretend_variants_used0s_0EBP_, symObjAddr: 0x3254, symBinAddr: 0x4169C, symSize: 0x1C }
  - { offset: 0x46484, size: 0x8, addend: 0x0, symName: __RINvYINtNtNtCsfvfooZQ3Axs_4core5slice4iter4IterNtNtNtCs1edtEUeLQ4Q_12serde_derive9internals3ast5FieldENtNtNtNtBa_4iter6traits8iterator8Iterator3mapRNtNtCs6IAuOt8vWmF_3syn4expr6MemberNCNCNvNtBP_7pretend24pretend_fields_used_enum00EBP_, symObjAddr: 0x3270, symBinAddr: 0x416B8, symSize: 0x1C }
  - { offset: 0x464DC, size: 0x8, addend: 0x0, symName: __RINvYINtNtNtCsfvfooZQ3Axs_4core5slice4iter4IterNtNtNtCs1edtEUeLQ4Q_12serde_derive9internals3ast5FieldENtNtNtNtBa_4iter6traits8iterator8Iterator3mapRNtNtCs6IAuOt8vWmF_3syn4expr6MemberNCNvNtBP_2de15deserialize_seqs0_0EBP_, symObjAddr: 0x328C, symBinAddr: 0x416D4, symSize: 0x1C }
  - { offset: 0x46534, size: 0x8, addend: 0x0, symName: __RINvYINtNtNtCsfvfooZQ3Axs_4core5slice4iter4IterNtNtNtCs1edtEUeLQ4Q_12serde_derive9internals3ast5FieldENtNtNtNtBa_4iter6traits8iterator8Iterator3mapRNtNtCs6IAuOt8vWmF_3syn4expr6MemberNCNvNtBP_2de25unwrap_to_variant_closures0_0EBP_, symObjAddr: 0x32A8, symBinAddr: 0x416F0, symSize: 0x1C }
  - { offset: 0x4658C, size: 0x8, addend: 0x0, symName: __RINvYINtNtNtCsfvfooZQ3Axs_4core5slice4iter4IterNtNtNtCs1edtEUeLQ4Q_12serde_derive9internals3ast5FieldENtNtNtNtBa_4iter6traits8iterator8Iterator3mapRNtNtCs6IAuOt8vWmF_3syn4expr6MemberNCNvNtBP_3ser17serialize_variants_0EBP_, symObjAddr: 0x32C4, symBinAddr: 0x4170C, symSize: 0x1C }
  - { offset: 0x465E4, size: 0x8, addend: 0x0, symName: __RINvYINtNtNtCsfvfooZQ3Axs_4core5slice4iter4IterNtNtNtCs1edtEUeLQ4Q_12serde_derive9internals3ast5FieldENtNtNtNtBa_4iter6traits8iterator8Iterator3mapRNtNtCs6IAuOt8vWmF_3syn4expr6MemberNCNvNtBP_3ser37serialize_struct_variant_with_flattens0_0EBP_, symObjAddr: 0x32E0, symBinAddr: 0x41728, symSize: 0x1C }
  - { offset: 0x4663C, size: 0x8, addend: 0x0, symName: __RINvYINtNtNtCsfvfooZQ3Axs_4core5slice4iter4IterNtNtNtCs1edtEUeLQ4Q_12serde_derive9internals3ast5FieldENtNtNtNtBa_4iter6traits8iterator8Iterator3mapRNtNtCs6IAuOt8vWmF_3syn4expr6MemberNCNvNtBP_7pretend26pretend_fields_used_struct0EBP_, symObjAddr: 0x32FC, symBinAddr: 0x41744, symSize: 0x1C }
  - { offset: 0x46694, size: 0x8, addend: 0x0, symName: __RINvYINtNtNtCsfvfooZQ3Axs_4core5slice4iter4IterNtNtNtCs1edtEUeLQ4Q_12serde_derive9internals3ast5FieldENtNtNtNtBa_4iter6traits8iterator8Iterator3mapRNtNtCs6IAuOt8vWmF_3syn4expr6MemberNCNvNtBP_7pretend33pretend_fields_used_struct_packed0EBP_, symObjAddr: 0x3318, symBinAddr: 0x41760, symSize: 0x1C }
  - { offset: 0x466EC, size: 0x8, addend: 0x0, symName: __RINvYINtNtNtCsfvfooZQ3Axs_4core5slice4iter4IterNtNtNtCs1edtEUeLQ4Q_12serde_derive9internals3ast5FieldENtNtNtNtBa_4iter6traits8iterator8Iterator3mapRRNtNtCs6IAuOt8vWmF_3syn2ty4TypeNCNvNtBP_3ser35serialize_adjacently_tagged_variant0EBP_, symObjAddr: 0x3334, symBinAddr: 0x4177C, symSize: 0x1C }
  - { offset: 0x46744, size: 0x8, addend: 0x0, symName: __RINvYINtNtNtCsfvfooZQ3Axs_4core5slice4iter4IterNtNtNtCs1edtEUeLQ4Q_12serde_derive9internals3ast5FieldENtNtNtNtBa_4iter6traits8iterator8Iterator3mapRRNtNtCs6IAuOt8vWmF_3syn2ty4TypeNCNvNtBP_3ser37serialize_struct_variant_with_flattens_0EBP_, symObjAddr: 0x3350, symBinAddr: 0x41798, symSize: 0x1C }
  - { offset: 0x4679C, size: 0x8, addend: 0x0, symName: __RINvYINtNtNtCsfvfooZQ3Axs_4core5slice4iter4IterNtNtNtCs1edtEUeLQ4Q_12serde_derive9internals3ast5FieldENtNtNtNtBa_4iter6traits8iterator8Iterator3mapjNCINvNvXs1_NtNtB1I_8adapters6filterINtB2x_6FilterppEB1C_5count8to_usizeRBJ_NCNvNtBP_2de15deserialize_seq0E0EBP_, symObjAddr: 0x336C, symBinAddr: 0x417B4, symSize: 0x1C }
  - { offset: 0x467F4, size: 0x8, addend: 0x0, symName: __RINvYINtNtNtCsfvfooZQ3Axs_4core5slice4iter4IterNtNtNtCs1edtEUeLQ4Q_12serde_derive9internals3ast5FieldENtNtNtNtBa_4iter6traits8iterator8Iterator3mapjNCINvNvXs1_NtNtB1I_8adapters6filterINtB2x_6FilterppEB1C_5count8to_usizeRBJ_NCNvNtBP_2de17deserialize_tuple0E0EBP_, symObjAddr: 0x3388, symBinAddr: 0x417D0, symSize: 0x1C }
  - { offset: 0x4684C, size: 0x8, addend: 0x0, symName: __RINvYINtNtNtCsfvfooZQ3Axs_4core5slice4iter4IterNtNtNtCs1edtEUeLQ4Q_12serde_derive9internals3ast5FieldENtNtNtNtBa_4iter6traits8iterator8Iterator6filterNCNvNtBP_2de15deserialize_seq0EBP_, symObjAddr: 0x33A4, symBinAddr: 0x417EC, symSize: 0x1C }
  - { offset: 0x4689B, size: 0x8, addend: 0x0, symName: __RINvYINtNtNtCsfvfooZQ3Axs_4core5slice4iter4IterNtNtNtCs1edtEUeLQ4Q_12serde_derive9internals3ast5FieldENtNtNtNtBa_4iter6traits8iterator8Iterator6filterNCNvNtBP_2de17deserialize_tuple0EBP_, symObjAddr: 0x33C0, symBinAddr: 0x41808, symSize: 0x1C }
  - { offset: 0x468EA, size: 0x8, addend: 0x0, symName: __RINvYINtNtNtCsfvfooZQ3Axs_4core5slice4iter4IterNtNtNtCs1edtEUeLQ4Q_12serde_derive9internals3ast5FieldENtNtNtNtBa_4iter6traits8iterator8Iterator6filterNCNvNtBP_3ser23serialize_struct_as_map0EBP_, symObjAddr: 0x33DC, symBinAddr: 0x41824, symSize: 0x1C }
  - { offset: 0x46939, size: 0x8, addend: 0x0, symName: __RINvYINtNtNtCsfvfooZQ3Axs_4core5slice4iter4IterNtNtNtCs1edtEUeLQ4Q_12serde_derive9internals3ast5FieldENtNtNtNtBa_4iter6traits8iterator8Iterator6filterNCNvNtBP_3ser24serialize_struct_variants_0EBP_, symObjAddr: 0x33F8, symBinAddr: 0x41840, symSize: 0x1C }
  - { offset: 0x46988, size: 0x8, addend: 0x0, symName: __RINvYINtNtNtCsfvfooZQ3Axs_4core5slice4iter4IterNtNtNtCs1edtEUeLQ4Q_12serde_derive9internals3ast5FieldENtNtNtNtBa_4iter6traits8iterator8Iterator6filterNCNvNtBP_3ser24serialize_struct_visitor0EBP_, symObjAddr: 0x3414, symBinAddr: 0x4185C, symSize: 0x1C }
  - { offset: 0x469D7, size: 0x8, addend: 0x0, symName: __RINvYINtNtNtCsfvfooZQ3Axs_4core5slice4iter4IterNtNtNtCs1edtEUeLQ4Q_12serde_derive9internals3ast5FieldENtNtNtNtBa_4iter6traits8iterator8Iterator6filterNCNvNtBP_3ser26serialize_struct_as_struct0EBP_, symObjAddr: 0x3430, symBinAddr: 0x41878, symSize: 0x1C }
  - { offset: 0x46A26, size: 0x8, addend: 0x0, symName: __RINvYINtNtNtCsfvfooZQ3Axs_4core5slice4iter4IterNtNtNtCs1edtEUeLQ4Q_12serde_derive9internals3ast5FieldENtNtNtNtBa_4iter6traits8iterator8Iterator6filterNCNvNtBP_3ser37serialize_struct_variant_with_flatten0EBP_, symObjAddr: 0x344C, symBinAddr: 0x41894, symSize: 0x1C }
  - { offset: 0x46A75, size: 0x8, addend: 0x0, symName: __RINvYINtNtNtCsfvfooZQ3Axs_4core5slice4iter4IterNtNtNtCs1edtEUeLQ4Q_12serde_derive9internals3ast5FieldENtNtNtNtBa_4iter6traits8iterator8Iterator6filterNCNvNtBP_5bound10with_bounds0_0EBP_, symObjAddr: 0x3468, symBinAddr: 0x418B0, symSize: 0x30 }
  - { offset: 0x46AD9, size: 0x8, addend: 0x0, symName: __RINvYINtNtNtCsfvfooZQ3Axs_4core5slice4iter4IterNtNtNtCs1edtEUeLQ4Q_12serde_derive9internals3ast5FieldENtNtNtNtBa_4iter6traits8iterator8Iterator6filterNCNvNtBP_5bound10with_bounds_0EBP_, symObjAddr: 0x3498, symBinAddr: 0x418E0, symSize: 0x3C }
  - { offset: 0x46B3D, size: 0x8, addend: 0x0, symName: __RINvYINtNtNtCsfvfooZQ3Axs_4core5slice4iter4IterNtNtNtCs1edtEUeLQ4Q_12serde_derive9internals3ast5FieldENtNtNtNtBa_4iter6traits8iterator8Iterator8try_folduNCINvNvXs_NtNtB1I_8adapters9enumerateINtB2B_9EnumeratepEB1C_8try_fold9enumerateRBJ_uINtNtNtBa_3ops12control_flow11ControlFlowTjB3I_EENCINvNvB1C_4find5checkB4s_QNCNvNtBP_2de18deserialize_struct0E0E0B3N_EBP_, symObjAddr: 0x34D4, symBinAddr: 0x4191C, symSize: 0x180 }
  - { offset: 0x46BF8, size: 0x8, addend: 0x0, symName: __RINvYINtNtNtCsfvfooZQ3Axs_4core5slice4iter4IterNtNtNtCs1edtEUeLQ4Q_12serde_derive9internals3ast5FieldENtNtNtNtBa_4iter6traits8iterator8Iterator8try_folduNCINvNvXs_NtNtB1I_8adapters9enumerateINtB2B_9EnumeratepEB1C_8try_fold9enumerateRBJ_uINtNtNtBa_3ops12control_flow11ControlFlowTjB3I_EENCINvNvB1C_4find5checkB4s_QNCNvNtBP_3ser22serialize_tuple_struct0E0E0B3N_EBP_, symObjAddr: 0x3654, symBinAddr: 0x41A9C, symSize: 0x180 }
  - { offset: 0x46CB3, size: 0x8, addend: 0x0, symName: __RINvYINtNtNtCsfvfooZQ3Axs_4core5slice4iter4IterNtNtNtCs1edtEUeLQ4Q_12serde_derive9internals3ast5FieldENtNtNtNtBa_4iter6traits8iterator8Iterator8try_folduNCINvNvXs_NtNtB1I_8adapters9enumerateINtB2B_9EnumeratepEB1C_8try_fold9enumerateRBJ_uINtNtNtBa_3ops12control_flow11ControlFlowTjB3I_EENCINvNvB1C_4find5checkB4s_QNCNvNtBP_3ser23serialize_tuple_variant0E0E0B3N_EBP_, symObjAddr: 0x37D4, symBinAddr: 0x41C1C, symSize: 0x180 }
  - { offset: 0x46D6E, size: 0x8, addend: 0x0, symName: __RINvYINtNtNtCsfvfooZQ3Axs_4core5slice4iter4IterNtNtNtCs1edtEUeLQ4Q_12serde_derive9internals3ast5FieldENtNtNtNtBa_4iter6traits8iterator8Iterator8try_folduNCINvNvXs_NtNtB1I_8adapters9enumerateINtB2B_9EnumeratepEB1C_8try_fold9enumerateRBJ_uINtNtNtBa_3ops12control_flow11ControlFlowTjB3I_EENCINvNvB1C_4find5checkB4s_QNCNvNtBP_3ser30serialize_tuple_struct_visitor0E0E0B3N_EBP_, symObjAddr: 0x3954, symBinAddr: 0x41D9C, symSize: 0x180 }
  - { offset: 0x46E29, size: 0x8, addend: 0x0, symName: __RINvYINtNtNtCsfvfooZQ3Axs_4core5slice4iter4IterNtNtNtCs1edtEUeLQ4Q_12serde_derive9internals3ast7VariantENtNtNtNtBa_4iter6traits8iterator8Iterator10filter_mapNtCs3cP53eQoTwO_11proc_macro211TokenStreamNCNvNtBP_7pretend24pretend_fields_used_enum0EBP_, symObjAddr: 0x3AD4, symBinAddr: 0x41F1C, symSize: 0x30 }
  - { offset: 0x46E96, size: 0x8, addend: 0x0, symName: __RINvYINtNtNtCsfvfooZQ3Axs_4core5slice4iter4IterNtNtNtCs1edtEUeLQ4Q_12serde_derive9internals3ast7VariantENtNtNtNtBa_4iter6traits8iterator8Iterator10filter_mapRSNtNtCs6IAuOt8vWmF_3syn8generics14WherePredicateNCNvNtBP_5bound35with_where_predicates_from_variants0EBP_, symObjAddr: 0x3B04, symBinAddr: 0x41F4C, symSize: 0x30 }
  - { offset: 0x46F03, size: 0x8, addend: 0x0, symName: __RINvYINtNtNtCsfvfooZQ3Axs_4core5slice4iter4IterNtNtNtCs1edtEUeLQ4Q_12serde_derive9internals3ast7VariantENtNtNtNtBa_4iter6traits8iterator8Iterator3mapIB4_NtBL_5FieldENCNvMs_BL_NtBL_4Data10all_fields0EBP_, symObjAddr: 0x3B34, symBinAddr: 0x41F7C, symSize: 0x1C }
  - { offset: 0x46F5B, size: 0x8, addend: 0x0, symName: __RINvYINtNtNtCsfvfooZQ3Axs_4core5slice4iter4IterNtNtNtCs1edtEUeLQ4Q_12serde_derive9internals3ast7VariantENtNtNtNtBa_4iter6traits8iterator8Iterator3mapNtCs3cP53eQoTwO_11proc_macro211TokenStreamNCNvNtBP_7pretend21pretend_variants_used0EBP_, symObjAddr: 0x3B50, symBinAddr: 0x41F98, symSize: 0x3C }
  - { offset: 0x46FC8, size: 0x8, addend: 0x0, symName: __RINvYINtNtNtCsfvfooZQ3Axs_4core5slice4iter4IterNtNtNtCs1edtEUeLQ4Q_12serde_derive9internals3ast7VariantENtNtNtNtBa_4iter6traits8iterator8Iterator3mapNtNtBP_2de16FieldWithAliasesNCNvB2p_29deserialize_custom_identifiers_0EBP_, symObjAddr: 0x3B8C, symBinAddr: 0x41FD4, symSize: 0x1C }
  - { offset: 0x47020, size: 0x8, addend: 0x0, symName: __RINvYINtNtNtCsfvfooZQ3Axs_4core5slice4iter4IterNtNtNtCs1edtEUeLQ4Q_12serde_derive9internals3ast7VariantENtNtNtNtBa_4iter6traits8iterator8Iterator6filterNCNvNtBP_2de31deserialize_untagged_enum_after0EBP_, symObjAddr: 0x3BA8, symBinAddr: 0x41FF0, symSize: 0x1C }
  - { offset: 0x47096, size: 0x8, addend: 0x0, symName: __RINvYINtNtNtCsfvfooZQ3Axs_4core5slice4iter4IterNtNtNtCs1edtEUeLQ4Q_12serde_derive9internals3ast7VariantENtNtNtNtBa_4iter6traits8iterator8Iterator8flat_mapIB4_NtBL_5FieldENCNvMs_BL_NtBL_4Data10all_fields0EBP_, symObjAddr: 0x3BC4, symBinAddr: 0x4200C, symSize: 0x94 }
  - { offset: 0x47164, size: 0x8, addend: 0x0, symName: __RINvYINtNtNtCsfvfooZQ3Axs_4core5slice4iter4IterNtNtNtCs1edtEUeLQ4Q_12serde_derive9internals3ast7VariantENtNtNtNtBa_4iter6traits8iterator8Iterator8try_foldjNCINvNtNtB1K_8adapters3map12map_try_foldRBJ_IB4_NtBL_5FieldEjINtNtNtBa_3ops12control_flow11ControlFlowujENCNvMs_BL_NtBL_4Data10all_fields0NCINvNvMst_NtB2A_7flattenINtB4S_13FlattenCompatppE13iter_try_fold7flattenB3b_jB3s_INvNvXsv_B4S_B56_B1E_10advance_by7advanceB3b_EE0E0B3s_EBP_, symObjAddr: 0x3C58, symBinAddr: 0x420A0, symSize: 0x180 }
  - { offset: 0x47220, size: 0x8, addend: 0x0, symName: __RINvYINtNtNtCsfvfooZQ3Axs_4core5slice4iter4IterNtNtNtCs1edtEUeLQ4Q_12serde_derive9internals3ast7VariantENtNtNtNtBa_4iter6traits8iterator8Iterator8try_folduNCINvNvXs_NtNtB1K_8adapters9enumerateINtB2D_9EnumeratepEB1E_8try_fold9enumerateRBJ_uINtNtNtBa_3ops12control_flow11ControlFlowNtCs3cP53eQoTwO_11proc_macro211TokenStreamENCINvNtB2F_6filter15filter_try_foldTjB3K_EuB3P_NCNvNtBP_2de34deserialize_adjacently_tagged_enums0_0NCINvNvB1E_8find_map5checkB5K_B4u_QNCB5Y_s1_0E0E0E0B3P_EBP_, symObjAddr: 0x3DD8, symBinAddr: 0x42220, symSize: 0x13C }
  - { offset: 0x472DC, size: 0x8, addend: 0x0, symName: __RINvYINtNtNtCsfvfooZQ3Axs_4core5slice4iter4IterNtNtNtCs1edtEUeLQ4Q_12serde_derive9internals3ast7VariantENtNtNtNtBa_4iter6traits8iterator8Iterator8try_folduNCINvNvXs_NtNtB1K_8adapters9enumerateINtB2D_9EnumeratepEB1E_8try_fold9enumerateRBJ_uINtNtNtBa_3ops12control_flow11ControlFlowTjB3K_EENCINvNtB2F_6filter15filter_try_foldB4u_uB3P_NCNvNtBP_2de25prepare_enum_variant_enum0NCINvNvB1E_4find5checkB4u_NCB5m_s_0E0E0E0B3P_EBP_, symObjAddr: 0x3F14, symBinAddr: 0x4235C, symSize: 0x180 }
  - { offset: 0x47397, size: 0x8, addend: 0x0, symName: __RINvYINtNtNtCsfvfooZQ3Axs_4core5slice4iter4IterNtNtNtCs1edtEUeLQ4Q_12serde_derive9internals3ast7VariantENtNtNtNtBa_4iter6traits8iterator8Iterator8try_folduNCINvNvXs_NtNtB1K_8adapters9enumerateINtB2D_9EnumeratepEB1E_8try_fold9enumerateRBJ_uINtNtNtBa_3ops12control_flow11ControlFlowTjB3K_EENCINvNvB1E_4find5checkB4u_QNCNvNtBP_2de25prepare_enum_variant_enum0E0E0B3P_EBP_, symObjAddr: 0x4094, symBinAddr: 0x424DC, symSize: 0x180 }
  - { offset: 0x47452, size: 0x8, addend: 0x0, symName: __RINvYINtNtNtCsfvfooZQ3Axs_4core5slice4iter4IterNtNtNtCs1edtEUeLQ4Q_12serde_derive9internals3ast7VariantENtNtNtNtBa_4iter6traits8iterator8Iterator8try_folduNCINvNvXs_NtNtB1K_8adapters9enumerateINtB2D_9EnumeratepEB1E_8try_fold9enumerateRBJ_uINtNtNtBa_3ops12control_flow11ControlFlowTjB3K_EENCINvNvB1E_4find5checkB4u_QNCNvNtBP_2de34deserialize_adjacently_tagged_enum0E0E0B3P_EBP_, symObjAddr: 0x4214, symBinAddr: 0x4265C, symSize: 0x180 }
  - { offset: 0x4750D, size: 0x8, addend: 0x0, symName: __RINvYINtNtNtCsfvfooZQ3Axs_4core5slice4iter4IterNtNtNtCs1edtEUeLQ4Q_12serde_derive9internals3ast7VariantENtNtNtNtBa_4iter6traits8iterator8Iterator8try_folduNCINvNvXs_NtNtB1K_8adapters9enumerateINtB2D_9EnumeratepEB1E_8try_fold9enumerateRBJ_uINtNtNtBa_3ops12control_flow11ControlFlowTjB3K_EENCINvNvB1E_4find5checkB4u_QNCNvNtBP_2de34deserialize_externally_tagged_enum0E0E0B3P_EBP_, symObjAddr: 0x4394, symBinAddr: 0x427DC, symSize: 0x180 }
  - { offset: 0x475C8, size: 0x8, addend: 0x0, symName: __RINvYINtNtNtCsfvfooZQ3Axs_4core5slice4iter4IterNtNtNtCs1edtEUeLQ4Q_12serde_derive9internals3ast7VariantENtNtNtNtBa_4iter6traits8iterator8Iterator8try_folduNCINvNvXs_NtNtB1K_8adapters9enumerateINtB2D_9EnumeratepEB1E_8try_fold9enumerateRBJ_uINtNtNtBa_3ops12control_flow11ControlFlowTjB3K_EENCINvNvB1E_4find5checkB4u_QNCNvNtBP_2de34deserialize_internally_tagged_enum0E0E0B3P_EBP_, symObjAddr: 0x4514, symBinAddr: 0x4295C, symSize: 0x180 }
  - { offset: 0x47683, size: 0x8, addend: 0x0, symName: __RINvYINtNtNtCsfvfooZQ3Axs_4core5slice4iter4IterTRNtNtNtCs1edtEUeLQ4Q_12serde_derive9internals3ast5FieldNtCs3cP53eQoTwO_11proc_macro25IdentEENtNtNtNtBa_4iter6traits8iterator8Iterator3mapNtB1F_11TokenStreamNCNvNtBR_2de15deserialize_maps8_0EBR_, symObjAddr: 0x4694, symBinAddr: 0x42ADC, symSize: 0x30 }
  - { offset: 0x476F0, size: 0x8, addend: 0x0, symName: __RINvYINtNtNtCsfvfooZQ3Axs_4core5slice4iter4IterTRNtNtNtCs1edtEUeLQ4Q_12serde_derive9internals3ast5FieldNtCs3cP53eQoTwO_11proc_macro25IdentEENtNtNtNtBa_4iter6traits8iterator8Iterator6filterNCNvNtBR_2de15deserialize_maps1_0EBR_, symObjAddr: 0x46C4, symBinAddr: 0x42B0C, symSize: 0x1C }
  - { offset: 0x4773F, size: 0x8, addend: 0x0, symName: __RINvYINtNtNtCsfvfooZQ3Axs_4core5slice4iter4IterTRNtNtNtCs1edtEUeLQ4Q_12serde_derive9internals3ast5FieldNtCs3cP53eQoTwO_11proc_macro25IdentEENtNtNtNtBa_4iter6traits8iterator8Iterator6filterNCNvNtBR_2de15deserialize_maps4_0EBR_, symObjAddr: 0x46E0, symBinAddr: 0x42B28, symSize: 0x1C }
  - { offset: 0x4778E, size: 0x8, addend: 0x0, symName: __RINvYINtNtNtCsfvfooZQ3Axs_4core5slice4iter4IterTRNtNtNtCs1edtEUeLQ4Q_12serde_derive9internals3ast5FieldNtCs3cP53eQoTwO_11proc_macro25IdentEENtNtNtNtBa_4iter6traits8iterator8Iterator6filterNCNvNtBR_2de15deserialize_maps6_0EBR_, symObjAddr: 0x46FC, symBinAddr: 0x42B44, symSize: 0x1C }
  - { offset: 0x477DD, size: 0x8, addend: 0x0, symName: __RINvYINtNtNtCsfvfooZQ3Axs_4core5slice4iter4IterTRNtNtNtCs1edtEUeLQ4Q_12serde_derive9internals3ast5FieldNtCs3cP53eQoTwO_11proc_macro25IdentEENtNtNtNtBa_4iter6traits8iterator8Iterator6filterNCNvNtBR_2de15deserialize_maps_0EBR_, symObjAddr: 0x4718, symBinAddr: 0x42B60, symSize: 0x1C }
  - { offset: 0x4782C, size: 0x8, addend: 0x0, symName: __RNvYINtNtNtCsfvfooZQ3Axs_4core5slice4iter4IterNtNtCs1edtEUeLQ4Q_12serde_derive2de16FieldWithAliasesENtNtNtNtB9_4iter6traits8iterator8Iterator9enumerateBM_, symObjAddr: 0x6F24, symBinAddr: 0x4536C, symSize: 0x28 }
  - { offset: 0x47878, size: 0x8, addend: 0x0, symName: __RNvYINtNtNtCsfvfooZQ3Axs_4core5slice4iter4IterNtNtNtCs1edtEUeLQ4Q_12serde_derive9internals3ast5FieldENtNtNtNtB9_4iter6traits8iterator8Iterator9enumerateBO_, symObjAddr: 0x6F4C, symBinAddr: 0x45394, symSize: 0x28 }
  - { offset: 0x478C4, size: 0x8, addend: 0x0, symName: __RNvYINtNtNtCsfvfooZQ3Axs_4core5slice4iter4IterNtNtNtCs1edtEUeLQ4Q_12serde_derive9internals3ast7VariantENtNtNtNtB9_4iter6traits8iterator8Iterator9enumerateBO_, symObjAddr: 0x6FA0, symBinAddr: 0x453E8, symSize: 0x28 }
  - { offset: 0x47910, size: 0x8, addend: 0x0, symName: __RNvYINtNtNtCsfvfooZQ3Axs_4core5slice4iter4IterTReNtNtNtCs1edtEUeLQ4Q_12serde_derive9internals4case10RenameRuleEENtNtNtNtB9_4iter6traits8iterator8Iterator9enumerateBR_, symObjAddr: 0x6FC8, symBinAddr: 0x45410, symSize: 0x28 }
  - { offset: 0x47B08, size: 0x8, addend: 0x0, symName: __RNvXNtNtNtCsfvfooZQ3Axs_4core4iter6traits7collectINtNtNtB8_5slice4iter4IterNtNtNtCs1edtEUeLQ4Q_12serde_derive9internals3ast5FieldENtB2_12IntoIterator9into_iterB1h_, symObjAddr: 0x4D84, symBinAddr: 0x431CC, symSize: 0x1C }
  - { offset: 0x4F054, size: 0x8, addend: 0x0, symName: __RNvMs4_NtNtCsfvfooZQ3Axs_4core5slice4iterINtB5_4IterNtCs3cP53eQoTwO_11proc_macro211TokenStreamE3newCs1edtEUeLQ4Q_12serde_derive, symObjAddr: 0x4734, symBinAddr: 0x42B7C, symSize: 0x50 }
  - { offset: 0x4F22F, size: 0x8, addend: 0x0, symName: __RNvMs4_NtNtCsfvfooZQ3Axs_4core5slice4iterINtB5_4IterNtCs3cP53eQoTwO_11proc_macro25IdentE3newCs1edtEUeLQ4Q_12serde_derive, symObjAddr: 0x4784, symBinAddr: 0x42BCC, symSize: 0x58 }
  - { offset: 0x4F3F0, size: 0x8, addend: 0x0, symName: __RNvMs4_NtNtCsfvfooZQ3Axs_4core5slice4iterINtB5_4IterNtNtCs1edtEUeLQ4Q_12serde_derive2de16FieldWithAliasesE3newBS_, symObjAddr: 0x47DC, symBinAddr: 0x42C24, symSize: 0x50 }
  - { offset: 0x4F5D8, size: 0x8, addend: 0x0, symName: __RNvMs4_NtNtCsfvfooZQ3Axs_4core5slice4iterINtB5_4IterNtNtCs6IAuOt8vWmF_3syn4expr6MemberE3newCs1edtEUeLQ4Q_12serde_derive, symObjAddr: 0x482C, symBinAddr: 0x42C74, symSize: 0x58 }
  - { offset: 0x4F799, size: 0x8, addend: 0x0, symName: __RNvMs4_NtNtCsfvfooZQ3Axs_4core5slice4iterINtB5_4IterNtNtCs6IAuOt8vWmF_3syn8generics14WherePredicateE3newCs1edtEUeLQ4Q_12serde_derive, symObjAddr: 0x4884, symBinAddr: 0x42CCC, symSize: 0x58 }
  - { offset: 0x4F95A, size: 0x8, addend: 0x0, symName: __RNvMs4_NtNtCsfvfooZQ3Axs_4core5slice4iterINtB5_4IterNtNtNtCs1edtEUeLQ4Q_12serde_derive9internals3ast5FieldE3newBU_, symObjAddr: 0x48DC, symBinAddr: 0x42D24, symSize: 0x58 }
  - { offset: 0x4FB1B, size: 0x8, addend: 0x0, symName: __RNvMs4_NtNtCsfvfooZQ3Axs_4core5slice4iterINtB5_4IterNtNtNtCs1edtEUeLQ4Q_12serde_derive9internals3ast7VariantE3newBU_, symObjAddr: 0x4934, symBinAddr: 0x42D7C, symSize: 0x58 }
  - { offset: 0x4FCF6, size: 0x8, addend: 0x0, symName: __RNvMs4_NtNtCsfvfooZQ3Axs_4core5slice4iterINtB5_4IterRNtCs3cP53eQoTwO_11proc_macro25IdentE3newCs1edtEUeLQ4Q_12serde_derive, symObjAddr: 0x498C, symBinAddr: 0x42DD4, symSize: 0x50 }
  - { offset: 0x4FEDE, size: 0x8, addend: 0x0, symName: __RNvMs4_NtNtCsfvfooZQ3Axs_4core5slice4iterINtB5_4IterRNtNtCs6IAuOt8vWmF_3syn2ty4TypeE3newCs1edtEUeLQ4Q_12serde_derive, symObjAddr: 0x49DC, symBinAddr: 0x42E24, symSize: 0x50 }
  - { offset: 0x500C6, size: 0x8, addend: 0x0, symName: __RNvMs4_NtNtCsfvfooZQ3Axs_4core5slice4iterINtB5_4IterRNtNtCs6IAuOt8vWmF_3syn4expr6MemberE3newCs1edtEUeLQ4Q_12serde_derive, symObjAddr: 0x4A2C, symBinAddr: 0x42E74, symSize: 0x50 }
  - { offset: 0x50294, size: 0x8, addend: 0x0, symName: __RNvMs4_NtNtCsfvfooZQ3Axs_4core5slice4iterINtB5_4IterTRNtNtNtCs1edtEUeLQ4Q_12serde_derive9internals3ast5FieldNtCs3cP53eQoTwO_11proc_macro25IdentEE3newBW_, symObjAddr: 0x4A7C, symBinAddr: 0x42EC4, symSize: 0x50 }
  - { offset: 0x504B8, size: 0x8, addend: 0x0, symName: __RNvMs4_NtNtCsfvfooZQ3Axs_4core5slice4iterINtB5_4IterTReNtNtNtCs1edtEUeLQ4Q_12serde_derive9internals4case10RenameRuleEE3newBX_, symObjAddr: 0x4ACC, symBinAddr: 0x42F14, symSize: 0x58 }
  - { offset: 0x506A0, size: 0x8, addend: 0x0, symName: __RNvMsa_NtNtCsfvfooZQ3Axs_4core5slice4iterINtB5_7IterMutTNtNtCs6IAuOt8vWmF_3syn2ty4TypeNtNtBW_5token5CommaEE3newCs1edtEUeLQ4Q_12serde_derive, symObjAddr: 0x4B24, symBinAddr: 0x42F6C, symSize: 0x58 }
  - { offset: 0x50888, size: 0x8, addend: 0x0, symName: __RNvMsa_NtNtCsfvfooZQ3Axs_4core5slice4iterINtB5_7IterMutTNtNtCs6IAuOt8vWmF_3syn2ty9BareFnArgNtNtBW_5token5CommaEE3newCs1edtEUeLQ4Q_12serde_derive, symObjAddr: 0x4B7C, symBinAddr: 0x42FC4, symSize: 0x58 }
  - { offset: 0x50A70, size: 0x8, addend: 0x0, symName: __RNvMsa_NtNtCsfvfooZQ3Axs_4core5slice4iterINtB5_7IterMutTNtNtCs6IAuOt8vWmF_3syn4data7VariantNtNtBW_5token5CommaEE3newCs1edtEUeLQ4Q_12serde_derive, symObjAddr: 0x4BD4, symBinAddr: 0x4301C, symSize: 0x58 }
  - { offset: 0x50C58, size: 0x8, addend: 0x0, symName: __RNvMsa_NtNtCsfvfooZQ3Axs_4core5slice4iterINtB5_7IterMutTNtNtCs6IAuOt8vWmF_3syn4expr4ExprNtNtBW_5token5CommaEE3newCs1edtEUeLQ4Q_12serde_derive, symObjAddr: 0x4C2C, symBinAddr: 0x43074, symSize: 0x58 }
  - { offset: 0x50E40, size: 0x8, addend: 0x0, symName: __RNvMsa_NtNtCsfvfooZQ3Axs_4core5slice4iterINtB5_7IterMutTNtNtCs6IAuOt8vWmF_3syn4path15GenericArgumentNtNtBW_5token5CommaEE3newCs1edtEUeLQ4Q_12serde_derive, symObjAddr: 0x4C84, symBinAddr: 0x430CC, symSize: 0x58 }
  - { offset: 0x51028, size: 0x8, addend: 0x0, symName: __RNvMsa_NtNtCsfvfooZQ3Axs_4core5slice4iterINtB5_7IterMutTNtNtCs6IAuOt8vWmF_3syn8generics14TypeParamBoundNtNtBW_5token4PlusEE3newCs1edtEUeLQ4Q_12serde_derive, symObjAddr: 0x4CDC, symBinAddr: 0x43124, symSize: 0x50 }
  - { offset: 0x51210, size: 0x8, addend: 0x0, symName: __RNvMsa_NtNtCsfvfooZQ3Axs_4core5slice4iterINtB5_7IterMutTNtNtCs6IAuOt8vWmF_3syn8generics14WherePredicateNtNtBW_5token5CommaEE3newCs1edtEUeLQ4Q_12serde_derive, symObjAddr: 0x4D2C, symBinAddr: 0x43174, symSize: 0x58 }
  - { offset: 0x5369A, size: 0x8, addend: 0x0, symName: __RNvXs1_NtNtNtCsfvfooZQ3Axs_4core3ops8function5implsQNCNvNtCs1edtEUeLQ4Q_12serde_derive3ser22serialize_tuple_struct0INtB7_5FnMutTRTjRNtNtNtBU_9internals3ast5FieldEEE8call_mutBU_, symObjAddr: 0x0, symBinAddr: 0x45438, symSize: 0x30 }
  - { offset: 0x54079, size: 0x8, addend: 0x0, symName: __RNvNtCs1edtEUeLQ4Q_12serde_derive3ser23expand_derive_serialize, symObjAddr: 0x2BC, symBinAddr: 0x456F4, symSize: 0x10E4 }
  - { offset: 0x542CF, size: 0x8, addend: 0x0, symName: __RNvNtCs1edtEUeLQ4Q_12serde_derive3ser12precondition, symObjAddr: 0x13A0, symBinAddr: 0x467D8, symSize: 0xE4 }
  - { offset: 0x54380, size: 0x8, addend: 0x0, symName: __RNvNtCs1edtEUeLQ4Q_12serde_derive3ser14build_generics, symObjAddr: 0x1714, symBinAddr: 0x46B4C, symSize: 0x260 }
  - { offset: 0x54418, size: 0x8, addend: 0x0, symName: __RNvNtCs1edtEUeLQ4Q_12serde_derive3ser21needs_serialize_bound, symObjAddr: 0x1974, symBinAddr: 0x46DAC, symSize: 0xFC }
  - { offset: 0x54457, size: 0x8, addend: 0x0, symName: __RNCNvNtCs1edtEUeLQ4Q_12serde_derive3ser21needs_serialize_bound0B5_, symObjAddr: 0x1A70, symBinAddr: 0x46EA8, symSize: 0xC4 }
  - { offset: 0x54495, size: 0x8, addend: 0x0, symName: __RNvNtCs1edtEUeLQ4Q_12serde_derive3ser14serialize_body, symObjAddr: 0x1B34, symBinAddr: 0x46F6C, symSize: 0x25C }
  - { offset: 0x54558, size: 0x8, addend: 0x0, symName: __RNvNtCs1edtEUeLQ4Q_12serde_derive3ser21serialize_transparent, symObjAddr: 0x1D90, symBinAddr: 0x471C8, symSize: 0x3D0 }
  - { offset: 0x546C4, size: 0x8, addend: 0x0, symName: __RNCNvNtCs1edtEUeLQ4Q_12serde_derive3ser21serialize_transparent0B5_, symObjAddr: 0x2160, symBinAddr: 0x47598, symSize: 0x3C }
  - { offset: 0x54702, size: 0x8, addend: 0x0, symName: __RNvNtCs1edtEUeLQ4Q_12serde_derive3ser14serialize_into, symObjAddr: 0x219C, symBinAddr: 0x475D4, symSize: 0x3B4 }
  - { offset: 0x547A9, size: 0x8, addend: 0x0, symName: __RNvNtCs1edtEUeLQ4Q_12serde_derive3ser21serialize_unit_struct, symObjAddr: 0x2550, symBinAddr: 0x47988, symSize: 0x190 }
  - { offset: 0x5481D, size: 0x8, addend: 0x0, symName: __RNvNtCs1edtEUeLQ4Q_12serde_derive3ser24serialize_newtype_struct, symObjAddr: 0x26E0, symBinAddr: 0x47B18, symSize: 0x3D0 }
  - { offset: 0x54948, size: 0x8, addend: 0x0, symName: __RNvNtCs1edtEUeLQ4Q_12serde_derive3ser22serialize_tuple_struct, symObjAddr: 0x2AB0, symBinAddr: 0x47EE8, symSize: 0x5CC }
  - { offset: 0x54AE7, size: 0x8, addend: 0x0, symName: __RNCNvNtCs1edtEUeLQ4Q_12serde_derive3ser22serialize_tuple_struct0B5_, symObjAddr: 0x307C, symBinAddr: 0x484B4, symSize: 0x48 }
  - { offset: 0x54B32, size: 0x8, addend: 0x0, symName: __RNCNvNtCs1edtEUeLQ4Q_12serde_derive3ser22serialize_tuple_structs_0B5_, symObjAddr: 0x30C4, symBinAddr: 0x484FC, symSize: 0x370 }
  - { offset: 0x54C53, size: 0x8, addend: 0x0, symName: __RNCNvNtCs1edtEUeLQ4Q_12serde_derive3ser22serialize_tuple_structs0_0B5_, symObjAddr: 0x3434, symBinAddr: 0x4886C, symSize: 0xF8 }
  - { offset: 0x54CC2, size: 0x8, addend: 0x0, symName: __RNvNtCs1edtEUeLQ4Q_12serde_derive3ser16serialize_struct, symObjAddr: 0x352C, symBinAddr: 0x48964, symSize: 0x17C }
  - { offset: 0x54D31, size: 0x8, addend: 0x0, symName: __RNCNvNtCs1edtEUeLQ4Q_12serde_derive3ser16serialize_struct0B5_, symObjAddr: 0x36A8, symBinAddr: 0x48AE0, symSize: 0x8C }
  - { offset: 0x54D72, size: 0x8, addend: 0x0, symName: __RNvNtCs1edtEUeLQ4Q_12serde_derive3ser26serialize_struct_tag_field, symObjAddr: 0x3734, symBinAddr: 0x48B6C, symSize: 0x220 }
  - { offset: 0x54E1E, size: 0x8, addend: 0x0, symName: __RNvNtCs1edtEUeLQ4Q_12serde_derive3ser26serialize_struct_as_struct, symObjAddr: 0x3954, symBinAddr: 0x48D8C, symSize: 0x6A0 }
  - { offset: 0x54FED, size: 0x8, addend: 0x0, symName: __RNCNvNtCs1edtEUeLQ4Q_12serde_derive3ser26serialize_struct_as_struct0B5_, symObjAddr: 0x3FF4, symBinAddr: 0x4942C, symSize: 0x44 }
  - { offset: 0x55038, size: 0x8, addend: 0x0, symName: __RNCNvNtCs1edtEUeLQ4Q_12serde_derive3ser26serialize_struct_as_structs_0B5_, symObjAddr: 0x4038, symBinAddr: 0x49470, symSize: 0x30C }
  - { offset: 0x55118, size: 0x8, addend: 0x0, symName: __RNCNvNtCs1edtEUeLQ4Q_12serde_derive3ser26serialize_struct_as_structs0_0B5_, symObjAddr: 0x4344, symBinAddr: 0x4977C, symSize: 0xF8 }
  - { offset: 0x55187, size: 0x8, addend: 0x0, symName: __RNvNtCs1edtEUeLQ4Q_12serde_derive3ser23serialize_struct_as_map, symObjAddr: 0x443C, symBinAddr: 0x49874, symSize: 0x5D8 }
  - { offset: 0x55310, size: 0x8, addend: 0x0, symName: __RNCNvNtCs1edtEUeLQ4Q_12serde_derive3ser23serialize_struct_as_map0B5_, symObjAddr: 0x4A14, symBinAddr: 0x49E4C, symSize: 0x44 }
  - { offset: 0x55363, size: 0x8, addend: 0x0, symName: __RNvNtCs1edtEUeLQ4Q_12serde_derive3ser14serialize_enum, symObjAddr: 0x4A58, symBinAddr: 0x49E90, symSize: 0x690 }
  - { offset: 0x554EF, size: 0x8, addend: 0x0, symName: __RNCNvNtCs1edtEUeLQ4Q_12serde_derive3ser14serialize_enum0B5_, symObjAddr: 0x50E8, symBinAddr: 0x4A520, symSize: 0x6C }
  - { offset: 0x55566, size: 0x8, addend: 0x0, symName: __RNvNtCs1edtEUeLQ4Q_12serde_derive3ser17serialize_variant, symObjAddr: 0x5154, symBinAddr: 0x4A58C, symSize: 0xF00 }
  - { offset: 0x559D7, size: 0x8, addend: 0x0, symName: __RNCNvNtCs1edtEUeLQ4Q_12serde_derive3ser17serialize_variant0B5_, symObjAddr: 0x6054, symBinAddr: 0x4B48C, symSize: 0xF0 }
  - { offset: 0x55A2F, size: 0x8, addend: 0x0, symName: __RNCNvNtCs1edtEUeLQ4Q_12serde_derive3ser17serialize_variants_0B5_, symObjAddr: 0x6144, symBinAddr: 0x4B57C, symSize: 0x28 }
  - { offset: 0x55A77, size: 0x8, addend: 0x0, symName: __RNvNtCs1edtEUeLQ4Q_12serde_derive3ser35serialize_externally_tagged_variant, symObjAddr: 0x616C, symBinAddr: 0x4B5A4, symSize: 0x99C }
  - { offset: 0x55C79, size: 0x8, addend: 0x0, symName: __RNvNtCs1edtEUeLQ4Q_12serde_derive3ser35serialize_internally_tagged_variant, symObjAddr: 0x6B08, symBinAddr: 0x4BF40, symSize: 0xD5C }
  - { offset: 0x55EDD, size: 0x8, addend: 0x0, symName: __RNvNtCs1edtEUeLQ4Q_12serde_derive3ser35serialize_adjacently_tagged_variant, symObjAddr: 0x7864, symBinAddr: 0x4CC9C, symSize: 0x2BE0 }
  - { offset: 0x5659E, size: 0x8, addend: 0x0, symName: __RNCNvNtCs1edtEUeLQ4Q_12serde_derive3ser35serialize_adjacently_tagged_variant0B5_, symObjAddr: 0xA444, symBinAddr: 0x4F87C, symSize: 0x28 }
  - { offset: 0x565D7, size: 0x8, addend: 0x0, symName: __RNCNvNtCs1edtEUeLQ4Q_12serde_derive3ser35serialize_adjacently_tagged_variants_0B5_, symObjAddr: 0xA46C, symBinAddr: 0x4F8A4, symSize: 0x10C }
  - { offset: 0x5662F, size: 0x8, addend: 0x0, symName: __RNCNvNtCs1edtEUeLQ4Q_12serde_derive3ser35serialize_adjacently_tagged_variants0_0B5_, symObjAddr: 0xA578, symBinAddr: 0x4F9B0, symSize: 0x38 }
  - { offset: 0x5667E, size: 0x8, addend: 0x0, symName: __RNvNtCs1edtEUeLQ4Q_12serde_derive3ser26serialize_untagged_variant, symObjAddr: 0xA5B0, symBinAddr: 0x4F9E8, symSize: 0x7EC }
  - { offset: 0x56861, size: 0x8, addend: 0x0, symName: __RNvNtCs1edtEUeLQ4Q_12serde_derive3ser23serialize_tuple_variant, symObjAddr: 0xAD9C, symBinAddr: 0x501D4, symSize: 0xA10 }
  - { offset: 0x56B00, size: 0x8, addend: 0x0, symName: __RNCNvNtCs1edtEUeLQ4Q_12serde_derive3ser23serialize_tuple_variant0B5_, symObjAddr: 0xB7AC, symBinAddr: 0x50BE4, symSize: 0x48 }
  - { offset: 0x56B4B, size: 0x8, addend: 0x0, symName: __RNCNvNtCs1edtEUeLQ4Q_12serde_derive3ser23serialize_tuple_variants_0B5_, symObjAddr: 0xB7F4, symBinAddr: 0x50C2C, symSize: 0x3AC }
  - { offset: 0x56C6F, size: 0x8, addend: 0x0, symName: __RNCNvNtCs1edtEUeLQ4Q_12serde_derive3ser23serialize_tuple_variants0_0B5_, symObjAddr: 0xBBA0, symBinAddr: 0x50FD8, symSize: 0xF8 }
  - { offset: 0x56CE5, size: 0x8, addend: 0x0, symName: __RNvNtCs1edtEUeLQ4Q_12serde_derive3ser24serialize_struct_variant, symObjAddr: 0xBC98, symBinAddr: 0x510D0, symSize: 0xFC4 }
  - { offset: 0x57086, size: 0x8, addend: 0x0, symName: __RNCNvNtCs1edtEUeLQ4Q_12serde_derive3ser24serialize_struct_variant0B5_, symObjAddr: 0xCC5C, symBinAddr: 0x52094, symSize: 0x40 }
  - { offset: 0x570BF, size: 0x8, addend: 0x0, symName: __RNCNvNtCs1edtEUeLQ4Q_12serde_derive3ser24serialize_struct_variants_0B5_, symObjAddr: 0xCC9C, symBinAddr: 0x520D4, symSize: 0x44 }
  - { offset: 0x5710A, size: 0x8, addend: 0x0, symName: __RNCNvNtCs1edtEUeLQ4Q_12serde_derive3ser24serialize_struct_variants0_0B5_, symObjAddr: 0xCCE0, symBinAddr: 0x52118, symSize: 0x2C4 }
  - { offset: 0x571E1, size: 0x8, addend: 0x0, symName: __RNCNvNtCs1edtEUeLQ4Q_12serde_derive3ser24serialize_struct_variants1_0B5_, symObjAddr: 0xCFA4, symBinAddr: 0x523DC, symSize: 0xF8 }
  - { offset: 0x5725E, size: 0x8, addend: 0x0, symName: __RNvNtCs1edtEUeLQ4Q_12serde_derive3ser37serialize_struct_variant_with_flatten, symObjAddr: 0xD09C, symBinAddr: 0x524D4, symSize: 0x1E98 }
  - { offset: 0x5791C, size: 0x8, addend: 0x0, symName: __RNCNvNtCs1edtEUeLQ4Q_12serde_derive3ser37serialize_struct_variant_with_flatten0B5_, symObjAddr: 0xEF34, symBinAddr: 0x5436C, symSize: 0x44 }
  - { offset: 0x57967, size: 0x8, addend: 0x0, symName: __RNCNvNtCs1edtEUeLQ4Q_12serde_derive3ser37serialize_struct_variant_with_flattens_0B5_, symObjAddr: 0xEF78, symBinAddr: 0x543B0, symSize: 0x28 }
  - { offset: 0x579A0, size: 0x8, addend: 0x0, symName: __RNCNvNtCs1edtEUeLQ4Q_12serde_derive3ser37serialize_struct_variant_with_flattens0_0B5_, symObjAddr: 0xEFA0, symBinAddr: 0x543D8, symSize: 0x28 }
  - { offset: 0x579EF, size: 0x8, addend: 0x0, symName: __RNvNtCs1edtEUeLQ4Q_12serde_derive3ser30serialize_tuple_struct_visitor, symObjAddr: 0xEFC8, symBinAddr: 0x54400, symSize: 0xB4 }
  - { offset: 0x57A52, size: 0x8, addend: 0x0, symName: __RNCNvNtCs1edtEUeLQ4Q_12serde_derive3ser30serialize_tuple_struct_visitor0B5_, symObjAddr: 0xF07C, symBinAddr: 0x544B4, symSize: 0x48 }
  - { offset: 0x57A9D, size: 0x8, addend: 0x0, symName: __RNCNvNtCs1edtEUeLQ4Q_12serde_derive3ser30serialize_tuple_struct_visitors_0B5_, symObjAddr: 0xF0C4, symBinAddr: 0x544FC, symSize: 0x6B8 }
  - { offset: 0x57C89, size: 0x8, addend: 0x0, symName: __RNCNCNvNtCs1edtEUeLQ4Q_12serde_derive3ser30serialize_tuple_struct_visitors_00B7_, symObjAddr: 0xF77C, symBinAddr: 0x54BB4, symSize: 0xF4 }
  - { offset: 0x57D26, size: 0x8, addend: 0x0, symName: __RNvNtCs1edtEUeLQ4Q_12serde_derive3ser24serialize_struct_visitor, symObjAddr: 0xF870, symBinAddr: 0x54CA8, symSize: 0x98 }
  - { offset: 0x57D86, size: 0x8, addend: 0x0, symName: __RNCNvNtCs1edtEUeLQ4Q_12serde_derive3ser24serialize_struct_visitor0B5_, symObjAddr: 0xF908, symBinAddr: 0x54D40, symSize: 0x44 }
  - { offset: 0x57DD1, size: 0x8, addend: 0x0, symName: __RNCNvNtCs1edtEUeLQ4Q_12serde_derive3ser24serialize_struct_visitors_0B5_, symObjAddr: 0xF94C, symBinAddr: 0x54D84, symSize: 0xC90 }
  - { offset: 0x58082, size: 0x8, addend: 0x0, symName: __RNCNCNvNtCs1edtEUeLQ4Q_12serde_derive3ser24serialize_struct_visitors_00B7_, symObjAddr: 0x105DC, symBinAddr: 0x55A14, symSize: 0xF4 }
  - { offset: 0x5811F, size: 0x8, addend: 0x0, symName: __RNvNtCs1edtEUeLQ4Q_12serde_derive3ser25wrap_serialize_field_with, symObjAddr: 0x106D0, symBinAddr: 0x55B08, symSize: 0x104 }
  - { offset: 0x58191, size: 0x8, addend: 0x0, symName: __RNvNtCs1edtEUeLQ4Q_12serde_derive3ser27wrap_serialize_variant_with, symObjAddr: 0x107D4, symBinAddr: 0x55C0C, symSize: 0x15C }
  - { offset: 0x5820F, size: 0x8, addend: 0x0, symName: __RNCNvNtCs1edtEUeLQ4Q_12serde_derive3ser27wrap_serialize_variant_with0B5_, symObjAddr: 0x10930, symBinAddr: 0x55D68, symSize: 0x2C }
  - { offset: 0x58248, size: 0x8, addend: 0x0, symName: __RNCNvNtCs1edtEUeLQ4Q_12serde_derive3ser27wrap_serialize_variant_withs_0B5_, symObjAddr: 0x1095C, symBinAddr: 0x55D94, symSize: 0x1D4 }
  - { offset: 0x58310, size: 0x8, addend: 0x0, symName: __RNvNtCs1edtEUeLQ4Q_12serde_derive3ser19wrap_serialize_with, symObjAddr: 0x10B30, symBinAddr: 0x55F68, symSize: 0x1184 }
  - { offset: 0x587FF, size: 0x8, addend: 0x0, symName: __RNCNvNtCs1edtEUeLQ4Q_12serde_derive3ser19wrap_serialize_with0B5_, symObjAddr: 0x11CB4, symBinAddr: 0x570EC, symSize: 0x58 }
  - { offset: 0x58840, size: 0x8, addend: 0x0, symName: __RNvNtCs1edtEUeLQ4Q_12serde_derive3ser6mut_if, symObjAddr: 0x11D0C, symBinAddr: 0x57144, symSize: 0xD4 }
  - { offset: 0x58884, size: 0x8, addend: 0x0, symName: __RNvNtCs1edtEUeLQ4Q_12serde_derive3ser10get_member, symObjAddr: 0x11DE0, symBinAddr: 0x57218, symSize: 0x798 }
  - { offset: 0x58A41, size: 0x8, addend: 0x0, symName: __RNvNtCs1edtEUeLQ4Q_12serde_derive3ser15effective_style, symObjAddr: 0x12578, symBinAddr: 0x579B0, symSize: 0xB8 }
  - { offset: 0x59219, size: 0x8, addend: 0x0, symName: __RNvXs1_NtNtNtCsfvfooZQ3Axs_4core3ops8function5implsQNCNvNtCs1edtEUeLQ4Q_12serde_derive3ser22serialize_tuple_struct0INtB7_5FnMutTRTjRNtNtNtBU_9internals3ast5FieldEEE8call_mutBU_, symObjAddr: 0x0, symBinAddr: 0x45438, symSize: 0x30 }
  - { offset: 0x59268, size: 0x8, addend: 0x0, symName: __RNvXs1_NtNtNtCsfvfooZQ3Axs_4core3ops8function5implsQNCNvNtCs1edtEUeLQ4Q_12serde_derive3ser23serialize_struct_as_map0INtB7_5FnMutTRRNtNtNtBU_9internals3ast5FieldEE8call_mutBU_, symObjAddr: 0x30, symBinAddr: 0x45468, symSize: 0x30 }
  - { offset: 0x592B7, size: 0x8, addend: 0x0, symName: __RNvXs1_NtNtNtCsfvfooZQ3Axs_4core3ops8function5implsQNCNvNtCs1edtEUeLQ4Q_12serde_derive3ser23serialize_tuple_variant0INtB7_5FnMutTRTjRNtNtNtBU_9internals3ast5FieldEEE8call_mutBU_, symObjAddr: 0x60, symBinAddr: 0x45498, symSize: 0x30 }
  - { offset: 0x59306, size: 0x8, addend: 0x0, symName: __RNvXs1_NtNtNtCsfvfooZQ3Axs_4core3ops8function5implsQNCNvNtCs1edtEUeLQ4Q_12serde_derive3ser24serialize_struct_variants_0INtB7_5FnMutTRRNtNtNtBU_9internals3ast5FieldEE8call_mutBU_, symObjAddr: 0x90, symBinAddr: 0x454C8, symSize: 0x30 }
  - { offset: 0x59355, size: 0x8, addend: 0x0, symName: __RNvXs1_NtNtNtCsfvfooZQ3Axs_4core3ops8function5implsQNCNvNtCs1edtEUeLQ4Q_12serde_derive3ser24serialize_struct_visitor0INtB7_5FnMutTRRNtNtNtBU_9internals3ast5FieldEE8call_mutBU_, symObjAddr: 0xC0, symBinAddr: 0x454F8, symSize: 0x30 }
  - { offset: 0x593A4, size: 0x8, addend: 0x0, symName: __RNvXs1_NtNtNtCsfvfooZQ3Axs_4core3ops8function5implsQNCNvNtCs1edtEUeLQ4Q_12serde_derive3ser26serialize_struct_as_struct0INtB7_5FnMutTRRNtNtNtBU_9internals3ast5FieldEE8call_mutBU_, symObjAddr: 0xF0, symBinAddr: 0x45528, symSize: 0x30 }
  - { offset: 0x593F3, size: 0x8, addend: 0x0, symName: __RNvXs1_NtNtNtCsfvfooZQ3Axs_4core3ops8function5implsQNCNvNtCs1edtEUeLQ4Q_12serde_derive3ser30serialize_tuple_struct_visitor0INtB7_5FnMutTRTjRNtNtNtBU_9internals3ast5FieldEEE8call_mutBU_, symObjAddr: 0x120, symBinAddr: 0x45558, symSize: 0x30 }
  - { offset: 0x59442, size: 0x8, addend: 0x0, symName: __RNvXs1_NtNtNtCsfvfooZQ3Axs_4core3ops8function5implsQNCNvNtCs1edtEUeLQ4Q_12serde_derive3ser37serialize_struct_variant_with_flatten0INtB7_5FnMutTRRNtNtNtBU_9internals3ast5FieldEE8call_mutBU_, symObjAddr: 0x150, symBinAddr: 0x45588, symSize: 0x30 }
  - { offset: 0x59497, size: 0x8, addend: 0x0, symName: __RNvXs2_NtNtNtCsfvfooZQ3Axs_4core3ops8function5implsQNCNvNtCs1edtEUeLQ4Q_12serde_derive3ser17serialize_variant0INtB7_6FnOnceTjEE9call_onceBU_, symObjAddr: 0x180, symBinAddr: 0x455B8, symSize: 0x2C }
  - { offset: 0x594E6, size: 0x8, addend: 0x0, symName: __RNvXs2_NtNtNtCsfvfooZQ3Axs_4core3ops8function5implsQNCNvNtCs1edtEUeLQ4Q_12serde_derive3ser17serialize_variants_0INtB7_6FnOnceTRNtNtNtBU_9internals3ast5FieldEE9call_onceBU_, symObjAddr: 0x1AC, symBinAddr: 0x455E4, symSize: 0x2C }
  - { offset: 0x59535, size: 0x8, addend: 0x0, symName: __RNvXs2_NtNtNtCsfvfooZQ3Axs_4core3ops8function5implsQNCNvNtCs1edtEUeLQ4Q_12serde_derive3ser19wrap_serialize_with0INtB7_6FnOnceTjEE9call_onceBU_, symObjAddr: 0x1D8, symBinAddr: 0x45610, symSize: 0x2C }
  - { offset: 0x59584, size: 0x8, addend: 0x0, symName: __RNvXs2_NtNtNtCsfvfooZQ3Axs_4core3ops8function5implsQNCNvNtCs1edtEUeLQ4Q_12serde_derive3ser24serialize_struct_visitors_0INtB7_6FnOnceTRNtNtNtBU_9internals3ast5FieldEE9call_onceBU_, symObjAddr: 0x204, symBinAddr: 0x4563C, symSize: 0x2C }
  - { offset: 0x595D3, size: 0x8, addend: 0x0, symName: __RNvXs2_NtNtNtCsfvfooZQ3Axs_4core3ops8function5implsQNCNvNtCs1edtEUeLQ4Q_12serde_derive3ser30serialize_tuple_struct_visitors_0INtB7_6FnOnceTTjRNtNtNtBU_9internals3ast5FieldEEE9call_onceBU_, symObjAddr: 0x230, symBinAddr: 0x45668, symSize: 0x34 }
  - { offset: 0x59622, size: 0x8, addend: 0x0, symName: __RNvXs2_NtNtNtCsfvfooZQ3Axs_4core3ops8function5implsQNCNvNtCs1edtEUeLQ4Q_12serde_derive3ser35serialize_adjacently_tagged_variant0INtB7_6FnOnceTRNtNtNtBU_9internals3ast5FieldEE9call_onceBU_, symObjAddr: 0x264, symBinAddr: 0x4569C, symSize: 0x2C }
  - { offset: 0x59671, size: 0x8, addend: 0x0, symName: __RNvXs2_NtNtNtCsfvfooZQ3Axs_4core3ops8function5implsQNCNvNtCs1edtEUeLQ4Q_12serde_derive3ser37serialize_struct_variant_with_flattens_0INtB7_6FnOnceTRNtNtNtBU_9internals3ast5FieldEE9call_onceBU_, symObjAddr: 0x290, symBinAddr: 0x456C8, symSize: 0x2C }
  - { offset: 0x62F70, size: 0x8, addend: 0x0, symName: __RNvMNtCs1edtEUeLQ4Q_12serde_derive3serNtB2_10Parameters3new, symObjAddr: 0x1484, symBinAddr: 0x468BC, symSize: 0x228 }
  - { offset: 0x6309C, size: 0x8, addend: 0x0, symName: __RNvMNtCs1edtEUeLQ4Q_12serde_derive3serNtB2_10Parameters9type_name, symObjAddr: 0x16AC, symBinAddr: 0x46AE4, symSize: 0x68 }
  - { offset: 0x63120, size: 0x8, addend: 0x0, symName: __RNvMs_NtCs1edtEUeLQ4Q_12serde_derive3serNtB4_11StructTrait15serialize_field, symObjAddr: 0x12630, symBinAddr: 0x57A68, symSize: 0x3C4 }
  - { offset: 0x631F0, size: 0x8, addend: 0x0, symName: __RNvMs_NtCs1edtEUeLQ4Q_12serde_derive3serNtB4_11StructTrait10skip_field, symObjAddr: 0x129F4, symBinAddr: 0x57E2C, symSize: 0x2E4 }
  - { offset: 0x63299, size: 0x8, addend: 0x0, symName: __RNvMs0_NtCs1edtEUeLQ4Q_12serde_derive3serNtB5_10TupleTrait17serialize_element, symObjAddr: 0x12CD8, symBinAddr: 0x58110, symSize: 0x3C4 }
  - { offset: 0x63985, size: 0x8, addend: 0x0, symName: __RNvXsh_NtCs6IAuOt8vWmF_3syn5parseNCNvMs3_NtNtCs1edtEUeLQ4Q_12serde_derive9internals4attrNtBD_9Container8from_asts_0NtB5_6Parser14___parse_scopedBH_, symObjAddr: 0x0, symBinAddr: 0x584D4, symSize: 0x358 }
  - { offset: 0x65168, size: 0x8, addend: 0x0, symName: __RNvNtNtCs1edtEUeLQ4Q_12serde_derive9internals4attr5unraw, symObjAddr: 0x43E0, symBinAddr: 0x5C8B4, symSize: 0xE0 }
  - { offset: 0x6552F, size: 0x8, addend: 0x0, symName: __RNCNvMs3_NtNtCs1edtEUeLQ4Q_12serde_derive9internals4attrNtB7_9Container8from_ast0Bb_, symObjAddr: 0x5B40, symBinAddr: 0x5E014, symSize: 0x2E78 }
  - { offset: 0x65E28, size: 0x8, addend: 0x0, symName: __RNCNvMs3_NtNtCs1edtEUeLQ4Q_12serde_derive9internals4attrNtB7_9Container8from_asts_0Bb_, symObjAddr: 0x89B8, symBinAddr: 0x60E8C, symSize: 0x254 }
  - { offset: 0x65EED, size: 0x8, addend: 0x0, symName: __RNCNvMs3_NtNtCs1edtEUeLQ4Q_12serde_derive9internals4attrNtB7_9Container9ser_bound0Bb_, symObjAddr: 0x8D44, symBinAddr: 0x61218, symSize: 0x3C }
  - { offset: 0x65F33, size: 0x8, addend: 0x0, symName: __RNCNvMs3_NtNtCs1edtEUeLQ4Q_12serde_derive9internals4attrNtB7_9Container8de_bound0Bb_, symObjAddr: 0x8DB8, symBinAddr: 0x6128C, symSize: 0x3C }
  - { offset: 0x65F79, size: 0x8, addend: 0x0, symName: __RNCNvMs3_NtNtCs1edtEUeLQ4Q_12serde_derive9internals4attrNtB7_9Container10serde_path0Bb_, symObjAddr: 0x8FB0, symBinAddr: 0x61484, symSize: 0xB8 }
  - { offset: 0x65FC2, size: 0x8, addend: 0x0, symName: __RNvNtNtCs1edtEUeLQ4Q_12serde_derive9internals4attr10decide_tag, symObjAddr: 0x90CC, symBinAddr: 0x615A0, symSize: 0xB9C }
  - { offset: 0x661E4, size: 0x8, addend: 0x0, symName: __RNvNtNtCs1edtEUeLQ4Q_12serde_derive9internals4attr17decide_identifier, symObjAddr: 0x9C68, symBinAddr: 0x6213C, symSize: 0x5F0 }
  - { offset: 0x664F7, size: 0x8, addend: 0x0, symName: __RNCNvMs4_NtNtCs1edtEUeLQ4Q_12serde_derive9internals4attrNtB7_7Variant8from_ast0Bb_, symObjAddr: 0xAEA4, symBinAddr: 0x63378, symSize: 0x1ABC }
  - { offset: 0x66A4E, size: 0x8, addend: 0x0, symName: __RNCNvMs4_NtNtCs1edtEUeLQ4Q_12serde_derive9internals4attrNtB7_7Variant9ser_bound0Bb_, symObjAddr: 0xCBD0, symBinAddr: 0x650A4, symSize: 0x3C }
  - { offset: 0x66A94, size: 0x8, addend: 0x0, symName: __RNCNvMs4_NtNtCs1edtEUeLQ4Q_12serde_derive9internals4attrNtB7_7Variant8de_bound0Bb_, symObjAddr: 0xCC44, symBinAddr: 0x65118, symSize: 0x3C }
  - { offset: 0x66D17, size: 0x8, addend: 0x0, symName: __RNCNvMs6_NtNtCs1edtEUeLQ4Q_12serde_derive9internals4attrNtB7_5Field8from_ast0Bb_, symObjAddr: 0xE654, symBinAddr: 0x66B28, symSize: 0x34 }
  - { offset: 0x66D50, size: 0x8, addend: 0x0, symName: __RNCNvMs6_NtNtCs1edtEUeLQ4Q_12serde_derive9internals4attrNtB7_5Field8from_asts_0Bb_, symObjAddr: 0xE688, symBinAddr: 0x66B5C, symSize: 0x1DB0 }
  - { offset: 0x67319, size: 0x8, addend: 0x0, symName: __RNCNvMs6_NtNtCs1edtEUeLQ4Q_12serde_derive9internals4attrNtB7_5Field9ser_bound0Bb_, symObjAddr: 0x10788, symBinAddr: 0x68C5C, symSize: 0x3C }
  - { offset: 0x6735F, size: 0x8, addend: 0x0, symName: __RNCNvMs6_NtNtCs1edtEUeLQ4Q_12serde_derive9internals4attrNtB7_5Field8de_bound0Bb_, symObjAddr: 0x107FC, symBinAddr: 0x68CD0, symSize: 0x3C }
  - { offset: 0x673A1, size: 0x8, addend: 0x0, symName: __RINvNtNtCs1edtEUeLQ4Q_12serde_derive9internals4attr14get_ser_and_deINtNtCse1nGBsou5OW_5alloc3vec3VecNtNtCs6IAuOt8vWmF_3syn8generics14WherePredicateENvB2_20parse_lit_into_whereB13_EB6_, symObjAddr: 0x10914, symBinAddr: 0x68DE8, symSize: 0x58C }
  - { offset: 0x674AC, size: 0x8, addend: 0x0, symName: __RINvNtNtCs1edtEUeLQ4Q_12serde_derive9internals4attr14get_ser_and_deNtNtCs6IAuOt8vWmF_3syn3lit6LitStrNvB2_12get_lit_str2INtNtCsfvfooZQ3Axs_4core6option6OptionB13_EEB6_, symObjAddr: 0x10EA0, symBinAddr: 0x69374, symSize: 0x554 }
  - { offset: 0x675BC, size: 0x8, addend: 0x0, symName: __RNCINvNtNtCs1edtEUeLQ4Q_12serde_derive9internals4attr14get_ser_and_deINtNtCse1nGBsou5OW_5alloc3vec3VecNtNtCs6IAuOt8vWmF_3syn8generics14WherePredicateENvB4_20parse_lit_into_whereB15_E0B8_, symObjAddr: 0x113F4, symBinAddr: 0x698C8, symSize: 0x5AC }
  - { offset: 0x676D4, size: 0x8, addend: 0x0, symName: __RNCINvNtNtCs1edtEUeLQ4Q_12serde_derive9internals4attr14get_ser_and_deNtNtCs6IAuOt8vWmF_3syn3lit6LitStrNvB4_12get_lit_str2INtNtCsfvfooZQ3Axs_4core6option6OptionB15_EE0B8_, symObjAddr: 0x119A0, symBinAddr: 0x69E74, symSize: 0x56C }
  - { offset: 0x677F0, size: 0x8, addend: 0x0, symName: __RNvNtNtCs1edtEUeLQ4Q_12serde_derive9internals4attr11get_renames, symObjAddr: 0x11F0C, symBinAddr: 0x6A3E0, symSize: 0x214 }
  - { offset: 0x67883, size: 0x8, addend: 0x0, symName: __RNvNtNtCs1edtEUeLQ4Q_12serde_derive9internals4attr20get_multiple_renames, symObjAddr: 0x12120, symBinAddr: 0x6A5F4, symSize: 0x240 }
  - { offset: 0x67907, size: 0x8, addend: 0x0, symName: __RNvNtNtCs1edtEUeLQ4Q_12serde_derive9internals4attr20get_where_predicates, symObjAddr: 0x12360, symBinAddr: 0x6A834, symSize: 0x234 }
  - { offset: 0x6798B, size: 0x8, addend: 0x0, symName: __RNvNtNtCs1edtEUeLQ4Q_12serde_derive9internals4attr11get_lit_str, symObjAddr: 0x12594, symBinAddr: 0x6AA68, symSize: 0x60 }
  - { offset: 0x679D7, size: 0x8, addend: 0x0, symName: __RNvNtNtCs1edtEUeLQ4Q_12serde_derive9internals4attr12get_lit_str2, symObjAddr: 0x125F4, symBinAddr: 0x6AAC8, symSize: 0x4BC }
  - { offset: 0x67B49, size: 0x8, addend: 0x0, symName: __RNvNtNtCs1edtEUeLQ4Q_12serde_derive9internals4attr19parse_lit_into_path, symObjAddr: 0x12AB0, symBinAddr: 0x6AF84, symSize: 0x33C }
  - { offset: 0x67C46, size: 0x8, addend: 0x0, symName: __RNvNtNtCs1edtEUeLQ4Q_12serde_derive9internals4attr24parse_lit_into_expr_path, symObjAddr: 0x12DEC, symBinAddr: 0x6B2C0, symSize: 0x33C }
  - { offset: 0x67D43, size: 0x8, addend: 0x0, symName: __RNvNtNtCs1edtEUeLQ4Q_12serde_derive9internals4attr20parse_lit_into_where, symObjAddr: 0x13128, symBinAddr: 0x6B5FC, symSize: 0x280 }
  - { offset: 0x67E21, size: 0x8, addend: 0x0, symName: __RNvNtNtCs1edtEUeLQ4Q_12serde_derive9internals4attr17parse_lit_into_ty, symObjAddr: 0x133A8, symBinAddr: 0x6B87C, symSize: 0x350 }
  - { offset: 0x67F1E, size: 0x8, addend: 0x0, symName: __RNvNtNtCs1edtEUeLQ4Q_12serde_derive9internals4attr24parse_lit_into_lifetimes, symObjAddr: 0x136F8, symBinAddr: 0x6BBCC, symSize: 0x3C0 }
  - { offset: 0x68008, size: 0x8, addend: 0x0, symName: __RNCNvNtNtCs1edtEUeLQ4Q_12serde_derive9internals4attr24parse_lit_into_lifetimes0B7_, symObjAddr: 0x13AB8, symBinAddr: 0x6BF8C, symSize: 0x39C }
  - { offset: 0x6811D, size: 0x8, addend: 0x0, symName: __RNvNtNtCs1edtEUeLQ4Q_12serde_derive9internals4attr22is_implicitly_borrowed, symObjAddr: 0x13E54, symBinAddr: 0x6C328, symSize: 0x80 }
  - { offset: 0x6814B, size: 0x8, addend: 0x0, symName: __RNvNtNtCs1edtEUeLQ4Q_12serde_derive9internals4attr32is_implicitly_borrowed_reference, symObjAddr: 0x13ED4, symBinAddr: 0x6C3A8, symSize: 0x88 }
  - { offset: 0x68179, size: 0x8, addend: 0x0, symName: __RNvNtNtCs1edtEUeLQ4Q_12serde_derive9internals4attr6is_cow, symObjAddr: 0x13F5C, symBinAddr: 0x6C430, symSize: 0x26C }
  - { offset: 0x68252, size: 0x8, addend: 0x0, symName: __RNvNtNtCs1edtEUeLQ4Q_12serde_derive9internals4attr9is_option, symObjAddr: 0x141C8, symBinAddr: 0x6C69C, symSize: 0x220 }
  - { offset: 0x6832C, size: 0x8, addend: 0x0, symName: __RNvNtNtCs1edtEUeLQ4Q_12serde_derive9internals4attr12is_reference, symObjAddr: 0x143E8, symBinAddr: 0x6C8BC, symSize: 0xF8 }
  - { offset: 0x6837F, size: 0x8, addend: 0x0, symName: __RNvNtNtCs1edtEUeLQ4Q_12serde_derive9internals4attr6is_str, symObjAddr: 0x144E0, symBinAddr: 0x6C9B4, symSize: 0x44 }
  - { offset: 0x683AD, size: 0x8, addend: 0x0, symName: __RNvNtNtCs1edtEUeLQ4Q_12serde_derive9internals4attr11is_slice_u8, symObjAddr: 0x14524, symBinAddr: 0x6C9F8, symSize: 0xC8 }
  - { offset: 0x683F1, size: 0x8, addend: 0x0, symName: __RNvNtNtCs1edtEUeLQ4Q_12serde_derive9internals4attr17is_primitive_type, symObjAddr: 0x145EC, symBinAddr: 0x6CAC0, symSize: 0xE0 }
  - { offset: 0x68444, size: 0x8, addend: 0x0, symName: __RNvNtNtCs1edtEUeLQ4Q_12serde_derive9internals4attr17is_primitive_path, symObjAddr: 0x146CC, symBinAddr: 0x6CBA0, symSize: 0xFC }
  - { offset: 0x68481, size: 0x8, addend: 0x0, symName: __RNvNtNtCs1edtEUeLQ4Q_12serde_derive9internals4attr20borrowable_lifetimes, symObjAddr: 0x147C8, symBinAddr: 0x6CC9C, symSize: 0x18C }
  - { offset: 0x68521, size: 0x8, addend: 0x0, symName: __RNvNtNtCs1edtEUeLQ4Q_12serde_derive9internals4attr17collect_lifetimes, symObjAddr: 0x14954, symBinAddr: 0x6CE28, symSize: 0x694 }
  - { offset: 0x68732, size: 0x8, addend: 0x0, symName: __RNvNtNtCs1edtEUeLQ4Q_12serde_derive9internals4attr29collect_lifetimes_from_tokens, symObjAddr: 0x14FE8, symBinAddr: 0x6D4BC, symSize: 0x3D0 }
  - { offset: 0x688C0, size: 0x8, addend: 0x0, symName: __RNvXsh_NtCs6IAuOt8vWmF_3syn5parseNCNvMs3_NtNtCs1edtEUeLQ4Q_12serde_derive9internals4attrNtBD_9Container8from_asts_0NtB5_6Parser14___parse_scopedBH_, symObjAddr: 0x0, symBinAddr: 0x584D4, symSize: 0x358 }
  - { offset: 0x68A0D, size: 0x8, addend: 0x0, symName: __RNvXsh_NtCs6IAuOt8vWmF_3syn5parseNCNvNtNtCs1edtEUeLQ4Q_12serde_derive9internals4attr24parse_lit_into_lifetimes0NtB5_6Parser14___parse_scopedBD_, symObjAddr: 0x358, symBinAddr: 0x5882C, symSize: 0x3BC }
  - { offset: 0x72FAF, size: 0x8, addend: 0x0, symName: __RNvMNtNtCs1edtEUeLQ4Q_12serde_derive9internals4attrINtB2_4AttrINtNtCse1nGBsou5OW_5alloc3vec3VecNtNtCs6IAuOt8vWmF_3syn8generics14WherePredicateEE4noneB6_, symObjAddr: 0x714, symBinAddr: 0x58BE8, symSize: 0x90 }
  - { offset: 0x73079, size: 0x8, addend: 0x0, symName: __RNvMNtNtCs1edtEUeLQ4Q_12serde_derive9internals4attrINtB2_4AttrINtNtNtNtCse1nGBsou5OW_5alloc11collections5btree3set8BTreeSetNtNtCs6IAuOt8vWmF_3syn8lifetime8LifetimeEE4noneB6_, symObjAddr: 0x7A4, symBinAddr: 0x58C78, symSize: 0x8C }
  - { offset: 0x730B2, size: 0x8, addend: 0x0, symName: __RNvMNtNtCs1edtEUeLQ4Q_12serde_derive9internals4attrINtB2_4AttrNtB2_15BorrowAttributeE4noneB6_, symObjAddr: 0x830, symBinAddr: 0x58D04, symSize: 0x90 }
  - { offset: 0x730EB, size: 0x8, addend: 0x0, symName: __RNvMNtNtCs1edtEUeLQ4Q_12serde_derive9internals4attrINtB2_4AttrNtB2_7DefaultE4noneB6_, symObjAddr: 0x8C0, symBinAddr: 0x58D94, symSize: 0x98 }
  - { offset: 0x73124, size: 0x8, addend: 0x0, symName: __RNvMNtNtCs1edtEUeLQ4Q_12serde_derive9internals4attrINtB2_4AttrNtNtB4_4case10RenameRuleE4noneB6_, symObjAddr: 0x958, symBinAddr: 0x58E2C, symSize: 0x88 }
  - { offset: 0x7315D, size: 0x8, addend: 0x0, symName: __RNvMNtNtCs1edtEUeLQ4Q_12serde_derive9internals4attrINtB2_4AttrNtNtB4_4name4NameE4noneB6_, symObjAddr: 0x9E0, symBinAddr: 0x58EB4, symSize: 0x90 }
  - { offset: 0x73196, size: 0x8, addend: 0x0, symName: __RNvMNtNtCs1edtEUeLQ4Q_12serde_derive9internals4attrINtB2_4AttrNtNtCs6IAuOt8vWmF_3syn2ty4TypeE4noneB6_, symObjAddr: 0xA70, symBinAddr: 0x58F44, symSize: 0x98 }
  - { offset: 0x731CF, size: 0x8, addend: 0x0, symName: __RNvMNtNtCs1edtEUeLQ4Q_12serde_derive9internals4attrINtB2_4AttrNtNtCs6IAuOt8vWmF_3syn4expr8ExprPathE4noneB6_, symObjAddr: 0xB08, symBinAddr: 0x58FDC, symSize: 0x94 }
  - { offset: 0x73208, size: 0x8, addend: 0x0, symName: __RNvMNtNtCs1edtEUeLQ4Q_12serde_derive9internals4attrINtB2_4AttrNtNtCs6IAuOt8vWmF_3syn4path4PathE4noneB6_, symObjAddr: 0xB9C, symBinAddr: 0x59070, symSize: 0x94 }
  - { offset: 0x73241, size: 0x8, addend: 0x0, symName: __RNvMNtNtCs1edtEUeLQ4Q_12serde_derive9internals4attrINtB2_4AttrNtNtCse1nGBsou5OW_5alloc6string6StringE4noneB6_, symObjAddr: 0xC30, symBinAddr: 0x59104, symSize: 0x90 }
  - { offset: 0x7327A, size: 0x8, addend: 0x0, symName: __RNvMNtNtCs1edtEUeLQ4Q_12serde_derive9internals4attrINtB2_4AttruE4noneB6_, symObjAddr: 0xCC0, symBinAddr: 0x59194, symSize: 0x88 }
  - { offset: 0x732CD, size: 0x8, addend: 0x0, symName: __RINvMNtNtCs1edtEUeLQ4Q_12serde_derive9internals4attrINtB3_4AttrINtNtCse1nGBsou5OW_5alloc3vec3VecNtNtCs6IAuOt8vWmF_3syn8generics14WherePredicateEE3setRNtNtB1A_4path4PathEB7_, symObjAddr: 0xD48, symBinAddr: 0x5921C, symSize: 0x274 }
  - { offset: 0x7337C, size: 0x8, addend: 0x0, symName: __RINvMNtNtCs1edtEUeLQ4Q_12serde_derive9internals4attrINtB3_4AttrINtNtNtNtCse1nGBsou5OW_5alloc11collections5btree3set8BTreeSetNtNtCs6IAuOt8vWmF_3syn8lifetime8LifetimeEE3setRNtNtB22_4path4PathEB7_, symObjAddr: 0xFBC, symBinAddr: 0x59490, symSize: 0x27C }
  - { offset: 0x7342B, size: 0x8, addend: 0x0, symName: __RINvMNtNtCs1edtEUeLQ4Q_12serde_derive9internals4attrINtB3_4AttrNtB3_15BorrowAttributeE3setRNtNtCs6IAuOt8vWmF_3syn4path4PathEB7_, symObjAddr: 0x1238, symBinAddr: 0x5970C, symSize: 0x27C }
  - { offset: 0x734DA, size: 0x8, addend: 0x0, symName: __RINvMNtNtCs1edtEUeLQ4Q_12serde_derive9internals4attrINtB3_4AttrNtB3_7DefaultE3setNtNtCs6IAuOt8vWmF_3syn4path4PathEB7_, symObjAddr: 0x14B4, symBinAddr: 0x59988, symSize: 0x280 }
  - { offset: 0x7357D, size: 0x8, addend: 0x0, symName: __RINvMNtNtCs1edtEUeLQ4Q_12serde_derive9internals4attrINtB3_4AttrNtB3_7DefaultE3setRNtNtCs6IAuOt8vWmF_3syn4path4PathEB7_, symObjAddr: 0x1734, symBinAddr: 0x59C08, symSize: 0x288 }
  - { offset: 0x7362C, size: 0x8, addend: 0x0, symName: __RINvMNtNtCs1edtEUeLQ4Q_12serde_derive9internals4attrINtB3_4AttrNtNtB5_4case10RenameRuleE3setRNtNtCs6IAuOt8vWmF_3syn4path4PathEB7_, symObjAddr: 0x19BC, symBinAddr: 0x59E90, symSize: 0x214 }
  - { offset: 0x736DA, size: 0x8, addend: 0x0, symName: __RINvMNtNtCs1edtEUeLQ4Q_12serde_derive9internals4attrINtB3_4AttrNtNtB5_4name4NameE3setRNtNtCs6IAuOt8vWmF_3syn4path4PathEB7_, symObjAddr: 0x1BD0, symBinAddr: 0x5A0A4, symSize: 0x274 }
  - { offset: 0x73789, size: 0x8, addend: 0x0, symName: __RINvMNtNtCs1edtEUeLQ4Q_12serde_derive9internals4attrINtB3_4AttrNtNtCs6IAuOt8vWmF_3syn2ty4TypeE3setRNtNtB13_4path4PathEB7_, symObjAddr: 0x1E44, symBinAddr: 0x5A318, symSize: 0x27C }
  - { offset: 0x73838, size: 0x8, addend: 0x0, symName: __RINvMNtNtCs1edtEUeLQ4Q_12serde_derive9internals4attrINtB3_4AttrNtNtCs6IAuOt8vWmF_3syn4expr8ExprPathE3setRNtNtB13_4path4PathEB7_, symObjAddr: 0x20C0, symBinAddr: 0x5A594, symSize: 0x288 }
  - { offset: 0x738E7, size: 0x8, addend: 0x0, symName: __RINvMNtNtCs1edtEUeLQ4Q_12serde_derive9internals4attrINtB3_4AttrNtNtCs6IAuOt8vWmF_3syn4path4PathE3setRBZ_EB7_, symObjAddr: 0x2348, symBinAddr: 0x5A81C, symSize: 0x288 }
  - { offset: 0x73996, size: 0x8, addend: 0x0, symName: __RINvMNtNtCs1edtEUeLQ4Q_12serde_derive9internals4attrINtB3_4AttrNtNtCse1nGBsou5OW_5alloc6string6StringE3setRNtNtCs6IAuOt8vWmF_3syn4path4PathEB7_, symObjAddr: 0x25D0, symBinAddr: 0x5AAA4, symSize: 0x274 }
  - { offset: 0x73A45, size: 0x8, addend: 0x0, symName: __RINvMNtNtCs1edtEUeLQ4Q_12serde_derive9internals4attrINtB3_4AttruE3setNtNtCs6IAuOt8vWmF_3syn4path4PathEB7_, symObjAddr: 0x2844, symBinAddr: 0x5AD18, symSize: 0x208 }
  - { offset: 0x73AE6, size: 0x8, addend: 0x0, symName: __RINvMNtNtCs1edtEUeLQ4Q_12serde_derive9internals4attrINtB3_4AttruE3setRNtNtCs6IAuOt8vWmF_3syn4path4PathEB7_, symObjAddr: 0x2A4C, symBinAddr: 0x5AF20, symSize: 0x210 }
  - { offset: 0x73B86, size: 0x8, addend: 0x0, symName: __RINvMNtNtCs1edtEUeLQ4Q_12serde_derive9internals4attrINtB3_4AttrINtNtCse1nGBsou5OW_5alloc3vec3VecNtNtCs6IAuOt8vWmF_3syn8generics14WherePredicateEE7set_optRNtNtB1A_4path4PathEB7_, symObjAddr: 0x2C5C, symBinAddr: 0x5B130, symSize: 0x128 }
  - { offset: 0x73BEC, size: 0x8, addend: 0x0, symName: __RINvMNtNtCs1edtEUeLQ4Q_12serde_derive9internals4attrINtB3_4AttrNtNtB5_4name4NameE7set_optRNtNtCs6IAuOt8vWmF_3syn4path4PathEB7_, symObjAddr: 0x2D84, symBinAddr: 0x5B258, symSize: 0x128 }
  - { offset: 0x73C52, size: 0x8, addend: 0x0, symName: __RINvMNtNtCs1edtEUeLQ4Q_12serde_derive9internals4attrINtB3_4AttrNtNtCs6IAuOt8vWmF_3syn2ty4TypeE7set_optRNtNtB13_4path4PathEB7_, symObjAddr: 0x2EAC, symBinAddr: 0x5B380, symSize: 0x12C }
  - { offset: 0x73CB8, size: 0x8, addend: 0x0, symName: __RNvMNtNtCs1edtEUeLQ4Q_12serde_derive9internals4attrINtB2_4AttrNtB2_7DefaultE11set_if_noneB6_, symObjAddr: 0x2FD8, symBinAddr: 0x5B4AC, symSize: 0x150 }
  - { offset: 0x73CF2, size: 0x8, addend: 0x0, symName: __RNvMNtNtCs1edtEUeLQ4Q_12serde_derive9internals4attrINtB2_4AttrNtNtB4_4name4NameE11set_if_noneB6_, symObjAddr: 0x3128, symBinAddr: 0x5B5FC, symSize: 0x13C }
  - { offset: 0x73D2C, size: 0x8, addend: 0x0, symName: __RNvMNtNtCs1edtEUeLQ4Q_12serde_derive9internals4attrINtB2_4AttrNtNtCs6IAuOt8vWmF_3syn4expr8ExprPathE11set_if_noneB6_, symObjAddr: 0x3264, symBinAddr: 0x5B738, symSize: 0x150 }
  - { offset: 0x73D66, size: 0x8, addend: 0x0, symName: __RNvMNtNtCs1edtEUeLQ4Q_12serde_derive9internals4attrINtB2_4AttrINtNtCse1nGBsou5OW_5alloc3vec3VecNtNtCs6IAuOt8vWmF_3syn8generics14WherePredicateEE3getB6_, symObjAddr: 0x33B4, symBinAddr: 0x5B888, symSize: 0x38 }
  - { offset: 0x73D92, size: 0x8, addend: 0x0, symName: __RNvMNtNtCs1edtEUeLQ4Q_12serde_derive9internals4attrINtB2_4AttrINtNtNtNtCse1nGBsou5OW_5alloc11collections5btree3set8BTreeSetNtNtCs6IAuOt8vWmF_3syn8lifetime8LifetimeEE3getB6_, symObjAddr: 0x33EC, symBinAddr: 0x5B8C0, symSize: 0x38 }
  - { offset: 0x73DBE, size: 0x8, addend: 0x0, symName: __RNvMNtNtCs1edtEUeLQ4Q_12serde_derive9internals4attrINtB2_4AttrNtB2_15BorrowAttributeE3getB6_, symObjAddr: 0x3424, symBinAddr: 0x5B8F8, symSize: 0x50 }
  - { offset: 0x73DEA, size: 0x8, addend: 0x0, symName: __RNvMNtNtCs1edtEUeLQ4Q_12serde_derive9internals4attrINtB2_4AttrNtB2_7DefaultE3getB6_, symObjAddr: 0x3474, symBinAddr: 0x5B948, symSize: 0x50 }
  - { offset: 0x73E16, size: 0x8, addend: 0x0, symName: __RNvMNtNtCs1edtEUeLQ4Q_12serde_derive9internals4attrINtB2_4AttrNtNtB4_4case10RenameRuleE3getB6_, symObjAddr: 0x34C4, symBinAddr: 0x5B998, symSize: 0x38 }
  - { offset: 0x73E42, size: 0x8, addend: 0x0, symName: __RNvMNtNtCs1edtEUeLQ4Q_12serde_derive9internals4attrINtB2_4AttrNtNtB4_4name4NameE3getB6_, symObjAddr: 0x34FC, symBinAddr: 0x5B9D0, symSize: 0x34 }
  - { offset: 0x73E6E, size: 0x8, addend: 0x0, symName: __RNvMNtNtCs1edtEUeLQ4Q_12serde_derive9internals4attrINtB2_4AttrNtNtCs6IAuOt8vWmF_3syn2ty4TypeE3getB6_, symObjAddr: 0x3530, symBinAddr: 0x5BA04, symSize: 0x50 }
  - { offset: 0x73E9A, size: 0x8, addend: 0x0, symName: __RNvMNtNtCs1edtEUeLQ4Q_12serde_derive9internals4attrINtB2_4AttrNtNtCs6IAuOt8vWmF_3syn4expr8ExprPathE3getB6_, symObjAddr: 0x3580, symBinAddr: 0x5BA54, symSize: 0x50 }
  - { offset: 0x73EC6, size: 0x8, addend: 0x0, symName: __RNvMNtNtCs1edtEUeLQ4Q_12serde_derive9internals4attrINtB2_4AttrNtNtCs6IAuOt8vWmF_3syn4path4PathE3getB6_, symObjAddr: 0x35D0, symBinAddr: 0x5BAA4, symSize: 0x50 }
  - { offset: 0x73EF2, size: 0x8, addend: 0x0, symName: __RNvMNtNtCs1edtEUeLQ4Q_12serde_derive9internals4attrINtB2_4AttrNtNtCse1nGBsou5OW_5alloc6string6StringE3getB6_, symObjAddr: 0x3620, symBinAddr: 0x5BAF4, symSize: 0x38 }
  - { offset: 0x73F3C, size: 0x8, addend: 0x0, symName: __RNvMNtNtCs1edtEUeLQ4Q_12serde_derive9internals4attrINtB2_4AttrNtNtCse1nGBsou5OW_5alloc6string6StringE15get_with_tokensB6_, symObjAddr: 0x3658, symBinAddr: 0x5BB2C, symSize: 0xF0 }
  - { offset: 0x73FA3, size: 0x8, addend: 0x0, symName: __RNvMNtNtCs1edtEUeLQ4Q_12serde_derive9internals4attrINtB2_4AttruE15get_with_tokensB6_, symObjAddr: 0x3748, symBinAddr: 0x5BC1C, symSize: 0xC4 }
  - { offset: 0x73FEC, size: 0x8, addend: 0x0, symName: __RNvMs_NtNtCs1edtEUeLQ4Q_12serde_derive9internals4attrNtB4_8BoolAttr4none, symObjAddr: 0x380C, symBinAddr: 0x5BCE0, symSize: 0x60 }
  - { offset: 0x74029, size: 0x8, addend: 0x0, symName: __RINvMs_NtNtCs1edtEUeLQ4Q_12serde_derive9internals4attrNtB5_8BoolAttr8set_trueNtNtCs6IAuOt8vWmF_3syn4path4PathEB9_, symObjAddr: 0x386C, symBinAddr: 0x5BD40, symSize: 0x34 }
  - { offset: 0x74063, size: 0x8, addend: 0x0, symName: __RINvMs_NtNtCs1edtEUeLQ4Q_12serde_derive9internals4attrNtB5_8BoolAttr8set_trueRNtNtCs6IAuOt8vWmF_3syn4path4PathEB9_, symObjAddr: 0x38A0, symBinAddr: 0x5BD74, symSize: 0x3C }
  - { offset: 0x740A9, size: 0x8, addend: 0x0, symName: __RNvMs_NtNtCs1edtEUeLQ4Q_12serde_derive9internals4attrNtB4_8BoolAttr3get, symObjAddr: 0x38DC, symBinAddr: 0x5BDB0, symSize: 0x34 }
  - { offset: 0x740CB, size: 0x8, addend: 0x0, symName: __RNvMs0_NtNtCs1edtEUeLQ4Q_12serde_derive9internals4attrINtB5_7VecAttrINtNtCse1nGBsou5OW_5alloc3vec3VecNtNtCs6IAuOt8vWmF_3syn8generics14WherePredicateEE4noneB9_, symObjAddr: 0x3910, symBinAddr: 0x5BDE4, symSize: 0xBC }
  - { offset: 0x74104, size: 0x8, addend: 0x0, symName: __RNvMs0_NtNtCs1edtEUeLQ4Q_12serde_derive9internals4attrINtB5_7VecAttrNtNtB7_4name4NameE4noneB9_, symObjAddr: 0x39CC, symBinAddr: 0x5BEA0, symSize: 0xBC }
  - { offset: 0x7413D, size: 0x8, addend: 0x0, symName: __RNvMs0_NtNtCs1edtEUeLQ4Q_12serde_derive9internals4attrINtB5_7VecAttrNtNtCs6IAuOt8vWmF_3syn3lit6LitStrE4noneB9_, symObjAddr: 0x3A88, symBinAddr: 0x5BF5C, symSize: 0xBC }
  - { offset: 0x74183, size: 0x8, addend: 0x0, symName: __RINvMs0_NtNtCs1edtEUeLQ4Q_12serde_derive9internals4attrINtB6_7VecAttrINtNtCse1nGBsou5OW_5alloc3vec3VecNtNtCs6IAuOt8vWmF_3syn8generics14WherePredicateEE6insertRNtNtB1G_4path4PathEBa_, symObjAddr: 0x3B44, symBinAddr: 0x5C018, symSize: 0x170 }
  - { offset: 0x741E1, size: 0x8, addend: 0x0, symName: __RINvMs0_NtNtCs1edtEUeLQ4Q_12serde_derive9internals4attrINtB6_7VecAttrNtNtB8_4name4NameE6insertRNtNtCs6IAuOt8vWmF_3syn4path4PathEBa_, symObjAddr: 0x3CB4, symBinAddr: 0x5C188, symSize: 0x170 }
  - { offset: 0x7423F, size: 0x8, addend: 0x0, symName: __RINvMs0_NtNtCs1edtEUeLQ4Q_12serde_derive9internals4attrINtB6_7VecAttrNtNtCs6IAuOt8vWmF_3syn3lit6LitStrE6insertRNtNtB19_4path4PathEBa_, symObjAddr: 0x3E24, symBinAddr: 0x5C2F8, symSize: 0x15C }
  - { offset: 0x7428F, size: 0x8, addend: 0x0, symName: __RNvMs0_NtNtCs1edtEUeLQ4Q_12serde_derive9internals4attrINtB5_7VecAttrINtNtCse1nGBsou5OW_5alloc3vec3VecNtNtCs6IAuOt8vWmF_3syn8generics14WherePredicateEE11at_most_oneB9_, symObjAddr: 0x3F80, symBinAddr: 0x5C454, symSize: 0x1EC }
  - { offset: 0x7430C, size: 0x8, addend: 0x0, symName: __RNvMs0_NtNtCs1edtEUeLQ4Q_12serde_derive9internals4attrINtB5_7VecAttrNtNtCs6IAuOt8vWmF_3syn3lit6LitStrE11at_most_oneB9_, symObjAddr: 0x416C, symBinAddr: 0x5C640, symSize: 0x1FC }
  - { offset: 0x74389, size: 0x8, addend: 0x0, symName: __RNvMs0_NtNtCs1edtEUeLQ4Q_12serde_derive9internals4attrINtB5_7VecAttrNtNtB7_4name4NameE3getB9_, symObjAddr: 0x4368, symBinAddr: 0x5C83C, symSize: 0x3C }
  - { offset: 0x743B5, size: 0x8, addend: 0x0, symName: __RNvMs0_NtNtCs1edtEUeLQ4Q_12serde_derive9internals4attrINtB5_7VecAttrNtNtCs6IAuOt8vWmF_3syn3lit6LitStrE3getB9_, symObjAddr: 0x43A4, symBinAddr: 0x5C878, symSize: 0x3C }
  - { offset: 0x743E1, size: 0x8, addend: 0x0, symName: __RNvMs1_NtNtCs1edtEUeLQ4Q_12serde_derive9internals4attrNtB5_14RenameAllRules2or, symObjAddr: 0x44C0, symBinAddr: 0x5C994, symSize: 0x68 }
  - { offset: 0x7447D, size: 0x8, addend: 0x0, symName: __RNvMs3_NtNtCs1edtEUeLQ4Q_12serde_derive9internals4attrNtB5_9Container8from_ast, symObjAddr: 0x4528, symBinAddr: 0x5C9FC, symSize: 0x1618 }
  - { offset: 0x74796, size: 0x8, addend: 0x0, symName: __RNvMs3_NtNtCs1edtEUeLQ4Q_12serde_derive9internals4attrNtB5_9Container4name, symObjAddr: 0x8C0C, symBinAddr: 0x610E0, symSize: 0x24 }
  - { offset: 0x747B9, size: 0x8, addend: 0x0, symName: __RNvMs3_NtNtCs1edtEUeLQ4Q_12serde_derive9internals4attrNtB5_9Container16rename_all_rules, symObjAddr: 0x8C30, symBinAddr: 0x61104, symSize: 0x30 }
  - { offset: 0x747DC, size: 0x8, addend: 0x0, symName: __RNvMs3_NtNtCs1edtEUeLQ4Q_12serde_derive9internals4attrNtB5_9Container23rename_all_fields_rules, symObjAddr: 0x8C60, symBinAddr: 0x61134, symSize: 0x30 }
  - { offset: 0x747FF, size: 0x8, addend: 0x0, symName: __RNvMs3_NtNtCs1edtEUeLQ4Q_12serde_derive9internals4attrNtB5_9Container11transparent, symObjAddr: 0x8C90, symBinAddr: 0x61164, symSize: 0x2C }
  - { offset: 0x74822, size: 0x8, addend: 0x0, symName: __RNvMs3_NtNtCs1edtEUeLQ4Q_12serde_derive9internals4attrNtB5_9Container19deny_unknown_fields, symObjAddr: 0x8CBC, symBinAddr: 0x61190, symSize: 0x2C }
  - { offset: 0x74852, size: 0x8, addend: 0x0, symName: __RNvMs3_NtNtCs1edtEUeLQ4Q_12serde_derive9internals4attrNtB5_9Container7default, symObjAddr: 0x8CE8, symBinAddr: 0x611BC, symSize: 0x24 }
  - { offset: 0x7489C, size: 0x8, addend: 0x0, symName: __RNvMs3_NtNtCs1edtEUeLQ4Q_12serde_derive9internals4attrNtB5_9Container9ser_bound, symObjAddr: 0x8D0C, symBinAddr: 0x611E0, symSize: 0x38 }
  - { offset: 0x748BF, size: 0x8, addend: 0x0, symName: __RNvMs3_NtNtCs1edtEUeLQ4Q_12serde_derive9internals4attrNtB5_9Container8de_bound, symObjAddr: 0x8D80, symBinAddr: 0x61254, symSize: 0x38 }
  - { offset: 0x748EF, size: 0x8, addend: 0x0, symName: __RNvMs3_NtNtCs1edtEUeLQ4Q_12serde_derive9internals4attrNtB5_9Container3tag, symObjAddr: 0x8DF4, symBinAddr: 0x612C8, symSize: 0x24 }
  - { offset: 0x7491F, size: 0x8, addend: 0x0, symName: __RNvMs3_NtNtCs1edtEUeLQ4Q_12serde_derive9internals4attrNtB5_9Container9type_from, symObjAddr: 0x8E18, symBinAddr: 0x612EC, symSize: 0x34 }
  - { offset: 0x74942, size: 0x8, addend: 0x0, symName: __RNvMs3_NtNtCs1edtEUeLQ4Q_12serde_derive9internals4attrNtB5_9Container13type_try_from, symObjAddr: 0x8E4C, symBinAddr: 0x61320, symSize: 0x34 }
  - { offset: 0x74965, size: 0x8, addend: 0x0, symName: __RNvMs3_NtNtCs1edtEUeLQ4Q_12serde_derive9internals4attrNtB5_9Container9type_into, symObjAddr: 0x8E80, symBinAddr: 0x61354, symSize: 0x34 }
  - { offset: 0x74988, size: 0x8, addend: 0x0, symName: __RNvMs3_NtNtCs1edtEUeLQ4Q_12serde_derive9internals4attrNtB5_9Container6remote, symObjAddr: 0x8EB4, symBinAddr: 0x61388, symSize: 0x34 }
  - { offset: 0x749AB, size: 0x8, addend: 0x0, symName: __RNvMs3_NtNtCs1edtEUeLQ4Q_12serde_derive9internals4attrNtB5_9Container9is_packed, symObjAddr: 0x8EE8, symBinAddr: 0x613BC, symSize: 0x2C }
  - { offset: 0x749CE, size: 0x8, addend: 0x0, symName: __RNvMs3_NtNtCs1edtEUeLQ4Q_12serde_derive9internals4attrNtB5_9Container10identifier, symObjAddr: 0x8F14, symBinAddr: 0x613E8, symSize: 0x28 }
  - { offset: 0x749F1, size: 0x8, addend: 0x0, symName: __RNvMs3_NtNtCs1edtEUeLQ4Q_12serde_derive9internals4attrNtB5_9Container17custom_serde_path, symObjAddr: 0x8F3C, symBinAddr: 0x61410, symSize: 0x34 }
  - { offset: 0x74A14, size: 0x8, addend: 0x0, symName: __RNvMs3_NtNtCs1edtEUeLQ4Q_12serde_derive9internals4attrNtB5_9Container10serde_path, symObjAddr: 0x8F70, symBinAddr: 0x61444, symSize: 0x40 }
  - { offset: 0x74A37, size: 0x8, addend: 0x0, symName: __RNvMs3_NtNtCs1edtEUeLQ4Q_12serde_derive9internals4attrNtB5_9Container9expecting, symObjAddr: 0x9068, symBinAddr: 0x6153C, symSize: 0x38 }
  - { offset: 0x74A5A, size: 0x8, addend: 0x0, symName: __RNvMs3_NtNtCs1edtEUeLQ4Q_12serde_derive9internals4attrNtB5_9Container14non_exhaustive, symObjAddr: 0x90A0, symBinAddr: 0x61574, symSize: 0x2C }
  - { offset: 0x74A8A, size: 0x8, addend: 0x0, symName: __RNvMs4_NtNtCs1edtEUeLQ4Q_12serde_derive9internals4attrNtB5_7Variant8from_ast, symObjAddr: 0xA258, symBinAddr: 0x6272C, symSize: 0xC4C }
  - { offset: 0x74C67, size: 0x8, addend: 0x0, symName: __RNvMs4_NtNtCs1edtEUeLQ4Q_12serde_derive9internals4attrNtB5_7Variant4name, symObjAddr: 0xC960, symBinAddr: 0x64E34, symSize: 0x24 }
  - { offset: 0x74C97, size: 0x8, addend: 0x0, symName: __RNvMs4_NtNtCs1edtEUeLQ4Q_12serde_derive9internals4attrNtB5_7Variant7aliases, symObjAddr: 0xC984, symBinAddr: 0x64E58, symSize: 0x34 }
  - { offset: 0x74CC7, size: 0x8, addend: 0x0, symName: __RNvMs4_NtNtCs1edtEUeLQ4Q_12serde_derive9internals4attrNtB5_7Variant15rename_by_rules, symObjAddr: 0xC9B8, symBinAddr: 0x64E8C, symSize: 0x1B0 }
  - { offset: 0x74CF9, size: 0x8, addend: 0x0, symName: __RNvMs4_NtNtCs1edtEUeLQ4Q_12serde_derive9internals4attrNtB5_7Variant16rename_all_rules, symObjAddr: 0xCB68, symBinAddr: 0x6503C, symSize: 0x30 }
  - { offset: 0x74D1C, size: 0x8, addend: 0x0, symName: __RNvMs4_NtNtCs1edtEUeLQ4Q_12serde_derive9internals4attrNtB5_7Variant9ser_bound, symObjAddr: 0xCB98, symBinAddr: 0x6506C, symSize: 0x38 }
  - { offset: 0x74D3F, size: 0x8, addend: 0x0, symName: __RNvMs4_NtNtCs1edtEUeLQ4Q_12serde_derive9internals4attrNtB5_7Variant8de_bound, symObjAddr: 0xCC0C, symBinAddr: 0x650E0, symSize: 0x38 }
  - { offset: 0x74D62, size: 0x8, addend: 0x0, symName: __RNvMs4_NtNtCs1edtEUeLQ4Q_12serde_derive9internals4attrNtB5_7Variant18skip_deserializing, symObjAddr: 0xCC80, symBinAddr: 0x65154, symSize: 0x2C }
  - { offset: 0x74D85, size: 0x8, addend: 0x0, symName: __RNvMs4_NtNtCs1edtEUeLQ4Q_12serde_derive9internals4attrNtB5_7Variant16skip_serializing, symObjAddr: 0xCCAC, symBinAddr: 0x65180, symSize: 0x2C }
  - { offset: 0x74DA8, size: 0x8, addend: 0x0, symName: __RNvMs4_NtNtCs1edtEUeLQ4Q_12serde_derive9internals4attrNtB5_7Variant5other, symObjAddr: 0xCCD8, symBinAddr: 0x651AC, symSize: 0x2C }
  - { offset: 0x74DD8, size: 0x8, addend: 0x0, symName: __RNvMs4_NtNtCs1edtEUeLQ4Q_12serde_derive9internals4attrNtB5_7Variant14serialize_with, symObjAddr: 0xCD04, symBinAddr: 0x651D8, symSize: 0x34 }
  - { offset: 0x74DFB, size: 0x8, addend: 0x0, symName: __RNvMs4_NtNtCs1edtEUeLQ4Q_12serde_derive9internals4attrNtB5_7Variant16deserialize_with, symObjAddr: 0xCD38, symBinAddr: 0x6520C, symSize: 0x34 }
  - { offset: 0x74E1E, size: 0x8, addend: 0x0, symName: __RNvMs4_NtNtCs1edtEUeLQ4Q_12serde_derive9internals4attrNtB5_7Variant8untagged, symObjAddr: 0xCD6C, symBinAddr: 0x65240, symSize: 0x2C }
  - { offset: 0x74E41, size: 0x8, addend: 0x0, symName: __RNvMs5_NtNtCs1edtEUeLQ4Q_12serde_derive9internals4attrNtB5_7Default7is_none, symObjAddr: 0xCD98, symBinAddr: 0x6526C, symSize: 0x78 }
  - { offset: 0x74E71, size: 0x8, addend: 0x0, symName: __RNvMs6_NtNtCs1edtEUeLQ4Q_12serde_derive9internals4attrNtB5_5Field8from_ast, symObjAddr: 0xCE10, symBinAddr: 0x652E4, symSize: 0x1844 }
  - { offset: 0x75219, size: 0x8, addend: 0x0, symName: __RNvMs6_NtNtCs1edtEUeLQ4Q_12serde_derive9internals4attrNtB5_5Field4name, symObjAddr: 0x10438, symBinAddr: 0x6890C, symSize: 0x24 }
  - { offset: 0x7523C, size: 0x8, addend: 0x0, symName: __RNvMs6_NtNtCs1edtEUeLQ4Q_12serde_derive9internals4attrNtB5_5Field7aliases, symObjAddr: 0x1045C, symBinAddr: 0x68930, symSize: 0x34 }
  - { offset: 0x7526C, size: 0x8, addend: 0x0, symName: __RNvMs6_NtNtCs1edtEUeLQ4Q_12serde_derive9internals4attrNtB5_5Field15rename_by_rules, symObjAddr: 0x10490, symBinAddr: 0x68964, symSize: 0x1A8 }
  - { offset: 0x7529E, size: 0x8, addend: 0x0, symName: __RNvMs6_NtNtCs1edtEUeLQ4Q_12serde_derive9internals4attrNtB5_5Field16skip_serializing, symObjAddr: 0x10638, symBinAddr: 0x68B0C, symSize: 0x2C }
  - { offset: 0x752C1, size: 0x8, addend: 0x0, symName: __RNvMs6_NtNtCs1edtEUeLQ4Q_12serde_derive9internals4attrNtB5_5Field18skip_deserializing, symObjAddr: 0x10664, symBinAddr: 0x68B38, symSize: 0x2C }
  - { offset: 0x752E4, size: 0x8, addend: 0x0, symName: __RNvMs6_NtNtCs1edtEUeLQ4Q_12serde_derive9internals4attrNtB5_5Field19skip_serializing_if, symObjAddr: 0x10690, symBinAddr: 0x68B64, symSize: 0x34 }
  - { offset: 0x75307, size: 0x8, addend: 0x0, symName: __RNvMs6_NtNtCs1edtEUeLQ4Q_12serde_derive9internals4attrNtB5_5Field7default, symObjAddr: 0x106C4, symBinAddr: 0x68B98, symSize: 0x24 }
  - { offset: 0x7532A, size: 0x8, addend: 0x0, symName: __RNvMs6_NtNtCs1edtEUeLQ4Q_12serde_derive9internals4attrNtB5_5Field14serialize_with, symObjAddr: 0x106E8, symBinAddr: 0x68BBC, symSize: 0x34 }
  - { offset: 0x7534D, size: 0x8, addend: 0x0, symName: __RNvMs6_NtNtCs1edtEUeLQ4Q_12serde_derive9internals4attrNtB5_5Field16deserialize_with, symObjAddr: 0x1071C, symBinAddr: 0x68BF0, symSize: 0x34 }
  - { offset: 0x75370, size: 0x8, addend: 0x0, symName: __RNvMs6_NtNtCs1edtEUeLQ4Q_12serde_derive9internals4attrNtB5_5Field9ser_bound, symObjAddr: 0x10750, symBinAddr: 0x68C24, symSize: 0x38 }
  - { offset: 0x75393, size: 0x8, addend: 0x0, symName: __RNvMs6_NtNtCs1edtEUeLQ4Q_12serde_derive9internals4attrNtB5_5Field8de_bound, symObjAddr: 0x107C4, symBinAddr: 0x68C98, symSize: 0x38 }
  - { offset: 0x753C3, size: 0x8, addend: 0x0, symName: __RNvMs6_NtNtCs1edtEUeLQ4Q_12serde_derive9internals4attrNtB5_5Field18borrowed_lifetimes, symObjAddr: 0x10838, symBinAddr: 0x68D0C, symSize: 0x24 }
  - { offset: 0x753E6, size: 0x8, addend: 0x0, symName: __RNvMs6_NtNtCs1edtEUeLQ4Q_12serde_derive9internals4attrNtB5_5Field6getter, symObjAddr: 0x1085C, symBinAddr: 0x68D30, symSize: 0x34 }
  - { offset: 0x75409, size: 0x8, addend: 0x0, symName: __RNvMs6_NtNtCs1edtEUeLQ4Q_12serde_derive9internals4attrNtB5_5Field7flatten, symObjAddr: 0x10890, symBinAddr: 0x68D64, symSize: 0x2C }
  - { offset: 0x7542C, size: 0x8, addend: 0x0, symName: __RNvMs6_NtNtCs1edtEUeLQ4Q_12serde_derive9internals4attrNtB5_5Field11transparent, symObjAddr: 0x108BC, symBinAddr: 0x68D90, symSize: 0x2C }
  - { offset: 0x7544F, size: 0x8, addend: 0x0, symName: __RNvMs6_NtNtCs1edtEUeLQ4Q_12serde_derive9internals4attrNtB5_5Field16mark_transparent, symObjAddr: 0x108E8, symBinAddr: 0x68DBC, symSize: 0x2C }
  - { offset: 0x75931, size: 0x8, addend: 0x0, symName: __RINvMsi_NtCse1nGBsou5OW_5alloc3vecINtB6_3VecNtCs3cP53eQoTwO_11proc_macro211TokenStreamE14extend_trustedINtNtNtNtCsfvfooZQ3Axs_4core4iter8adapters3map3MapINtNtB1I_9enumerate9EnumerateINtNtNtB1M_5slice4iter4IterNtNtNtCs1edtEUeLQ4Q_12serde_derive9internals3ast7VariantEENCNvNtB3r_3ser14serialize_enum0EEB3r_, symObjAddr: 0x0, symBinAddr: 0x6D88C, symSize: 0x194 }
  - { offset: 0x7D7E6, size: 0x8, addend: 0x0, symName: __RNvXs1_NtCsfvfooZQ3Axs_4core7convertINtNtCse1nGBsou5OW_5alloc3vec3VecNtNtCs6IAuOt8vWmF_3syn8generics14WherePredicateEINtB5_4IntoINtNtB7_6option6OptionBy_EE4intoCs1edtEUeLQ4Q_12serde_derive, symObjAddr: 0x6734, symBinAddr: 0x73FC0, symSize: 0x14 }
  - { offset: 0x81E3C, size: 0x8, addend: 0x0, symName: __RINvXsd_NtCse1nGBsou5OW_5alloc3vecINtB6_3VecNtCs3cP53eQoTwO_11proc_macro211TokenStreamEINtNtNtNtCsfvfooZQ3Axs_4core4iter6traits7collect12FromIteratorBG_E9from_iterINtNtNtB1u_8adapters10filter_map9FilterMapINtNtB2G_6filter6FilterINtNtB2G_9enumerate9EnumerateINtNtNtB1w_5slice4iter4IterNtNtNtCs1edtEUeLQ4Q_12serde_derive9internals3ast7VariantEENCNvNtB4E_2de34deserialize_adjacently_tagged_enums0_0ENCB5w_s1_0EEB4E_, symObjAddr: 0x2A18, symBinAddr: 0x702A4, symSize: 0x3C }
  - { offset: 0x81E7D, size: 0x8, addend: 0x0, symName: __RINvXsd_NtCse1nGBsou5OW_5alloc3vecINtB6_3VecNtCs3cP53eQoTwO_11proc_macro211TokenStreamEINtNtNtNtCsfvfooZQ3Axs_4core4iter6traits7collect12FromIteratorBG_E9from_iterINtNtNtB1u_8adapters10filter_map9FilterMapINtNtNtB1w_5slice4iter4IterNtNtNtCs1edtEUeLQ4Q_12serde_derive9internals3ast7VariantENCNvNtB3O_7pretend24pretend_fields_used_enum0EEB3O_, symObjAddr: 0x2A54, symBinAddr: 0x702E0, symSize: 0x3C }
  - { offset: 0x81EBE, size: 0x8, addend: 0x0, symName: __RINvXsd_NtCse1nGBsou5OW_5alloc3vecINtB6_3VecNtCs3cP53eQoTwO_11proc_macro211TokenStreamEINtNtNtNtCsfvfooZQ3Axs_4core4iter6traits7collect12FromIteratorBG_E9from_iterINtNtNtB1u_8adapters3map3MapINtNtB2G_6filter6FilterINtNtB2G_9enumerate9EnumerateINtNtNtB1w_5slice4iter4IterNtNtNtCs1edtEUeLQ4Q_12serde_derive9internals3ast5FieldEENCNvNtB4q_3ser30serialize_tuple_struct_visitor0ENCB5g_s_0EEB4q_, symObjAddr: 0x2A90, symBinAddr: 0x7031C, symSize: 0x3C }
  - { offset: 0x81EFF, size: 0x8, addend: 0x0, symName: __RINvXsd_NtCse1nGBsou5OW_5alloc3vecINtB6_3VecNtCs3cP53eQoTwO_11proc_macro211TokenStreamEINtNtNtNtCsfvfooZQ3Axs_4core4iter6traits7collect12FromIteratorBG_E9from_iterINtNtNtB1u_8adapters3map3MapINtNtB2G_6filter6FilterINtNtB2G_9enumerate9EnumerateINtNtNtB1w_5slice4iter4IterNtNtNtCs1edtEUeLQ4Q_12serde_derive9internals3ast7VariantEENCNvNtB4q_2de34deserialize_adjacently_tagged_enum0ENCB5i_s_0EEB4q_, symObjAddr: 0x2ACC, symBinAddr: 0x70358, symSize: 0x3C }
  - { offset: 0x81F40, size: 0x8, addend: 0x0, symName: __RINvXsd_NtCse1nGBsou5OW_5alloc3vecINtB6_3VecNtCs3cP53eQoTwO_11proc_macro211TokenStreamEINtNtNtNtCsfvfooZQ3Axs_4core4iter6traits7collect12FromIteratorBG_E9from_iterINtNtNtB1u_8adapters3map3MapINtNtB2G_6filter6FilterINtNtNtB1w_5slice4iter4IterNtNtNtCs1edtEUeLQ4Q_12serde_derive9internals3ast5FieldENCNvNtB3X_3ser24serialize_struct_visitor0ENCB4M_s_0EEB3X_, symObjAddr: 0x2B08, symBinAddr: 0x70394, symSize: 0x3C }
  - { offset: 0x81F81, size: 0x8, addend: 0x0, symName: __RINvXsd_NtCse1nGBsou5OW_5alloc3vecINtB6_3VecNtCs3cP53eQoTwO_11proc_macro211TokenStreamEINtNtNtNtCsfvfooZQ3Axs_4core4iter6traits7collect12FromIteratorBG_E9from_iterINtNtNtB1u_8adapters3map3MapINtNtB2G_9enumerate9EnumerateINtNtNtB1w_5slice4iter4IterNtNtNtCs1edtEUeLQ4Q_12serde_derive9internals3ast7VariantEENCNvNtB43_3ser14serialize_enum0EEB43_, symObjAddr: 0x2B44, symBinAddr: 0x703D0, symSize: 0x3C }
  - { offset: 0x81FC2, size: 0x8, addend: 0x0, symName: __RINvXsd_NtCse1nGBsou5OW_5alloc3vecINtB6_3VecNtCs3cP53eQoTwO_11proc_macro211TokenStreamEINtNtNtNtCsfvfooZQ3Axs_4core4iter6traits7collect12FromIteratorBG_E9from_iterINtNtNtB1u_8adapters3map3MapINtNtNtB1w_5slice4iter4IterNtNtNtCs1edtEUeLQ4Q_12serde_derive9internals3ast5FieldENCNvNtB3A_3ser27wrap_serialize_variant_withs_0EEB3A_, symObjAddr: 0x2B80, symBinAddr: 0x7040C, symSize: 0x40 }
  - { offset: 0x82002, size: 0x8, addend: 0x0, symName: __RINvXsd_NtCse1nGBsou5OW_5alloc3vecINtB6_3VecNtCs3cP53eQoTwO_11proc_macro25IdentEINtNtNtNtCsfvfooZQ3Axs_4core4iter6traits7collect12FromIteratorBG_E9from_iterINtNtNtB1n_8adapters3map3MapINtNtNtB1p_3ops5range5RangejENCNCNvNtCs1edtEUeLQ4Q_12serde_derive7pretend21pretend_variants_used00EEB3x_, symObjAddr: 0x2BC0, symBinAddr: 0x7044C, symSize: 0x38 }
  - { offset: 0x82042, size: 0x8, addend: 0x0, symName: __RINvXsd_NtCse1nGBsou5OW_5alloc3vecINtB6_3VecNtNtCs1edtEUeLQ4Q_12serde_derive2de16FieldWithAliasesEINtNtNtNtCsfvfooZQ3Axs_4core4iter6traits7collect12FromIteratorBG_E9from_iterINtNtNtB1F_8adapters3map3MapINtNtB2R_6filter6FilterINtNtB2R_9enumerate9EnumerateINtNtNtB1H_5slice4iter4IterNtNtNtBK_9internals3ast5FieldEENCNvBI_18deserialize_struct0ENCB52_s_0EEBK_, symObjAddr: 0x2BF8, symBinAddr: 0x70484, symSize: 0x3C }
  - { offset: 0x82083, size: 0x8, addend: 0x0, symName: __RINvXsd_NtCse1nGBsou5OW_5alloc3vecINtB6_3VecNtNtCs1edtEUeLQ4Q_12serde_derive2de16FieldWithAliasesEINtNtNtNtCsfvfooZQ3Axs_4core4iter6traits7collect12FromIteratorBG_E9from_iterINtNtNtB1F_8adapters3map3MapINtNtB2R_6filter6FilterINtNtB2R_9enumerate9EnumerateINtNtNtB1H_5slice4iter4IterNtNtNtBK_9internals3ast7VariantEENCNvBI_25prepare_enum_variant_enum0ENCB54_s2_0EEBK_, symObjAddr: 0x2C34, symBinAddr: 0x704C0, symSize: 0x3C }
  - { offset: 0x820C4, size: 0x8, addend: 0x0, symName: __RINvXsd_NtCse1nGBsou5OW_5alloc3vecINtB6_3VecNtNtCs1edtEUeLQ4Q_12serde_derive2de16FieldWithAliasesEINtNtNtNtCsfvfooZQ3Axs_4core4iter6traits7collect12FromIteratorBG_E9from_iterINtNtNtB1F_8adapters3map3MapINtNtNtB1H_5slice4iter4IterNtNtNtBK_9internals3ast7VariantENCNvBI_29deserialize_custom_identifiers_0EEBK_, symObjAddr: 0x2C70, symBinAddr: 0x704FC, symSize: 0x40 }
  - { offset: 0x82104, size: 0x8, addend: 0x0, symName: __RINvXsd_NtCse1nGBsou5OW_5alloc3vecINtB6_3VecNtNtCs6IAuOt8vWmF_3syn4expr6MemberEINtNtNtNtCsfvfooZQ3Axs_4core4iter6traits7collect12FromIteratorBG_E9from_iterINtNtNtB1m_8adapters3map3MapINtNtNtB1o_3ops5range5RangejENCNvNtCs1edtEUeLQ4Q_12serde_derive3ser35serialize_adjacently_tagged_variants_0EEB3u_, symObjAddr: 0x2CB0, symBinAddr: 0x7053C, symSize: 0x38 }
  - { offset: 0x82144, size: 0x8, addend: 0x0, symName: __RINvXsd_NtCse1nGBsou5OW_5alloc3vecINtB6_3VecNtNtCs6IAuOt8vWmF_3syn4expr6MemberEINtNtNtNtCsfvfooZQ3Axs_4core4iter6traits7collect12FromIteratorBG_E9from_iterINtNtNtB1m_8adapters3map3MapINtNtNtB1o_5slice4iter4IterNtNtNtCs1edtEUeLQ4Q_12serde_derive9internals3ast5FieldENCNvNtB3s_3ser35serialize_adjacently_tagged_variants0_0EEB3s_, symObjAddr: 0x2CE8, symBinAddr: 0x70574, symSize: 0x40 }
  - { offset: 0x82184, size: 0x8, addend: 0x0, symName: __RINvXsd_NtCse1nGBsou5OW_5alloc3vecINtB6_3VecNtNtCs6IAuOt8vWmF_3syn8generics14WherePredicateEINtNtNtNtCsfvfooZQ3Axs_4core4iter6traits7collect12FromIteratorBG_E9from_iterINtNtBK_10punctuated10PunctuatedBG_NtNtBK_5token5CommaEECs1edtEUeLQ4Q_12serde_derive, symObjAddr: 0x2D28, symBinAddr: 0x705B4, symSize: 0x3C }
  - { offset: 0x821C5, size: 0x8, addend: 0x0, symName: __RINvXsd_NtCse1nGBsou5OW_5alloc3vecINtB6_3VecNtNtNtCs1edtEUeLQ4Q_12serde_derive9internals3ast5FieldEINtNtNtNtCsfvfooZQ3Axs_4core4iter6traits7collect12FromIteratorBG_E9from_iterINtNtNtB1G_8adapters3map3MapINtNtB2S_9enumerate9EnumerateINtNtCs6IAuOt8vWmF_3syn10punctuated4IterNtNtB3N_4data5FieldEENCNvBI_15fields_from_ast0EEBM_, symObjAddr: 0x2D64, symBinAddr: 0x705F0, symSize: 0x3C }
  - { offset: 0x82206, size: 0x8, addend: 0x0, symName: __RINvXsd_NtCse1nGBsou5OW_5alloc3vecINtB6_3VecNtNtNtCs1edtEUeLQ4Q_12serde_derive9internals3ast7VariantEINtNtNtNtCsfvfooZQ3Axs_4core4iter6traits7collect12FromIteratorBG_E9from_iterINtNtNtB1I_8adapters3map3MapINtNtCs6IAuOt8vWmF_3syn10punctuated4IterNtNtB3m_4data7VariantENCNvBI_13enum_from_ast0EEBM_, symObjAddr: 0x2DA0, symBinAddr: 0x7062C, symSize: 0x3C }
  - { offset: 0x82247, size: 0x8, addend: 0x0, symName: __RINvXsd_NtCse1nGBsou5OW_5alloc3vecINtB6_3VecRNtCs3cP53eQoTwO_11proc_macro25IdentEINtNtNtNtCsfvfooZQ3Axs_4core4iter6traits7collect12FromIteratorBG_E9from_iterINtNtNtB1o_8adapters3map3MapINtNtNtB1q_5slice4iter4IterNtNtCs1edtEUeLQ4Q_12serde_derive2de16FieldWithAliasesENCNvB3q_32deserialize_generated_identifier0EEB3s_, symObjAddr: 0x2DDC, symBinAddr: 0x70668, symSize: 0x40 }
  - { offset: 0x82287, size: 0x8, addend: 0x0, symName: __RINvXsd_NtCse1nGBsou5OW_5alloc3vecINtB6_3VecRNtNtCs6IAuOt8vWmF_3syn2ty4TypeEINtNtNtNtCsfvfooZQ3Axs_4core4iter6traits7collect12FromIteratorBG_E9from_iterINtNtNtB1j_8adapters3map3MapINtNtNtB1l_5slice4iter4IterNtNtNtCs1edtEUeLQ4Q_12serde_derive9internals3ast5FieldENCNvNtB3p_3ser27wrap_serialize_variant_with0EEB3p_, symObjAddr: 0x2E1C, symBinAddr: 0x706A8, symSize: 0x40 }
  - { offset: 0x822C7, size: 0x8, addend: 0x0, symName: __RINvXsd_NtCse1nGBsou5OW_5alloc3vecINtB6_3VecRNtNtCs6IAuOt8vWmF_3syn4expr6MemberEINtNtNtNtCsfvfooZQ3Axs_4core4iter6traits7collect12FromIteratorBG_E9from_iterINtNtNtB1n_8adapters3map3MapINtNtNtB1p_5slice4iter4IterNtNtNtCs1edtEUeLQ4Q_12serde_derive9internals3ast5FieldENCNvNtB3t_3ser37serialize_struct_variant_with_flattens0_0EEB3t_, symObjAddr: 0x2E5C, symBinAddr: 0x706E8, symSize: 0x40 }
  - { offset: 0x82307, size: 0x8, addend: 0x0, symName: __RINvXsd_NtCse1nGBsou5OW_5alloc3vecINtB6_3VecRNtNtCs6IAuOt8vWmF_3syn4expr6MemberEINtNtNtNtCsfvfooZQ3Axs_4core4iter6traits7collect12FromIteratorBG_E9from_iterINtNtNtB1n_8adapters3map3MapINtNtNtB1p_5slice4iter4IterNtNtNtCs1edtEUeLQ4Q_12serde_derive9internals3ast5FieldENCNvNtB3t_7pretend33pretend_fields_used_struct_packed0EEB3t_, symObjAddr: 0x2E9C, symBinAddr: 0x70728, symSize: 0x40 }
  - { offset: 0x82347, size: 0x8, addend: 0x0, symName: __RINvXsd_NtCse1nGBsou5OW_5alloc3vecINtB6_3VecTRNtNtNtCs1edtEUeLQ4Q_12serde_derive9internals3ast5FieldNtCs3cP53eQoTwO_11proc_macro25IdentEEINtNtNtNtCsfvfooZQ3Axs_4core4iter6traits7collect12FromIteratorBG_E9from_iterINtNtNtB2i_8adapters3map3MapINtNtB3u_9enumerate9EnumerateINtNtNtB2k_5slice4iter4IterBI_EENCNvNtBO_2de15deserialize_map0EEBO_, symObjAddr: 0x2EDC, symBinAddr: 0x70768, symSize: 0x3C }
  - { offset: 0x8238E, size: 0x8, addend: 0x0, symName: __RINvXsh_NtCse1nGBsou5OW_5alloc3vecINtB6_3VecNtNtCs6IAuOt8vWmF_3syn8generics12GenericParamEINtNtNtNtCsfvfooZQ3Axs_4core4iter6traits7collect6ExtendBG_E6extendINtNtB1z_6option6OptionBG_EECs1edtEUeLQ4Q_12serde_derive, symObjAddr: 0x2F18, symBinAddr: 0x707A4, symSize: 0x50 }
  - { offset: 0x823E3, size: 0x8, addend: 0x0, symName: __RINvXsh_NtCse1nGBsou5OW_5alloc3vecINtB6_3VecNtNtCs6IAuOt8vWmF_3syn8generics12GenericParamEINtNtNtNtCsfvfooZQ3Axs_4core4iter6traits7collect6ExtendBG_E6extendINtNtNtB1x_8adapters3map3MapINtNtB6_9into_iter8IntoIterTBG_NtNtBK_5token5CommaEENCNvXs8_NtBK_10punctuatedINtB3U_10PunctuatedBG_B3r_ENtB1t_12IntoIterator9into_iter0EECs1edtEUeLQ4Q_12serde_derive, symObjAddr: 0x2F68, symBinAddr: 0x707F4, symSize: 0x48 }
  - { offset: 0x82438, size: 0x8, addend: 0x0, symName: __RINvXsh_NtCse1nGBsou5OW_5alloc3vecINtB6_3VecNtNtCs6IAuOt8vWmF_3syn8generics14WherePredicateEINtNtNtNtCsfvfooZQ3Axs_4core4iter6traits7collect6ExtendBG_E6extendINtNtB1B_6option6OptionBG_EECs1edtEUeLQ4Q_12serde_derive, symObjAddr: 0x2FB0, symBinAddr: 0x7083C, symSize: 0x50 }
  - { offset: 0x8248D, size: 0x8, addend: 0x0, symName: __RINvXsh_NtCse1nGBsou5OW_5alloc3vecINtB6_3VecNtNtCs6IAuOt8vWmF_3syn8generics14WherePredicateEINtNtNtNtCsfvfooZQ3Axs_4core4iter6traits7collect6ExtendBG_E6extendINtNtNtB1z_8adapters3map3MapINtNtB6_9into_iter8IntoIterTBG_NtNtBK_5token5CommaEENCNvXs8_NtBK_10punctuatedINtB3W_10PunctuatedBG_B3t_ENtB1v_12IntoIterator9into_iter0EECs1edtEUeLQ4Q_12serde_derive, symObjAddr: 0x3000, symBinAddr: 0x7088C, symSize: 0x48 }
  - { offset: 0x824ED, size: 0x8, addend: 0x0, symName: __RNCINvMsi_NtCse1nGBsou5OW_5alloc3vecINtB8_3VecNtCs3cP53eQoTwO_11proc_macro211TokenStreamE14extend_trustedINtNtNtNtCsfvfooZQ3Axs_4core4iter8adapters3map3MapINtNtB1K_9enumerate9EnumerateINtNtNtB1O_5slice4iter4IterNtNtNtCs1edtEUeLQ4Q_12serde_derive9internals3ast7VariantEENCNvNtB3t_3ser14serialize_enum0EE0B3t_, symObjAddr: 0x3048, symBinAddr: 0x708D4, symSize: 0x3C }
  - { offset: 0x825A2, size: 0x8, addend: 0x0, symName: __RNCINvMsi_NtCse1nGBsou5OW_5alloc3vecINtB8_3VecNtCs3cP53eQoTwO_11proc_macro211TokenStreamE14extend_trustedINtNtNtNtCsfvfooZQ3Axs_4core4iter8adapters3map3MapINtNtNtB1O_5slice4iter4IterNtNtNtCs1edtEUeLQ4Q_12serde_derive9internals3ast5FieldENCNvNtB30_3ser27wrap_serialize_variant_withs_0EE0B30_, symObjAddr: 0x3084, symBinAddr: 0x70910, symSize: 0x3C }
  - { offset: 0x82657, size: 0x8, addend: 0x0, symName: __RNCINvMsi_NtCse1nGBsou5OW_5alloc3vecINtB8_3VecNtCs3cP53eQoTwO_11proc_macro25IdentE14extend_trustedINtNtNtNtCsfvfooZQ3Axs_4core4iter8adapters3map3MapINtNtNtB1H_3ops5range5RangejENCNCNvNtCs1edtEUeLQ4Q_12serde_derive7pretend21pretend_variants_used00EE0B2X_, symObjAddr: 0x30C0, symBinAddr: 0x7094C, symSize: 0x44 }
  - { offset: 0x82704, size: 0x8, addend: 0x0, symName: __RNCINvMsi_NtCse1nGBsou5OW_5alloc3vecINtB8_3VecNtNtCs1edtEUeLQ4Q_12serde_derive2de16FieldWithAliasesE14extend_trustedINtNtNtNtCsfvfooZQ3Axs_4core4iter8adapters3map3MapINtNtNtB1Z_5slice4iter4IterNtNtNtBM_9internals3ast7VariantENCNvBK_29deserialize_custom_identifiers_0EE0BM_, symObjAddr: 0x3104, symBinAddr: 0x70990, symSize: 0x3C }
  - { offset: 0x827B9, size: 0x8, addend: 0x0, symName: __RNCINvMsi_NtCse1nGBsou5OW_5alloc3vecINtB8_3VecNtNtCs6IAuOt8vWmF_3syn4expr6MemberE14extend_trustedINtNtNtNtCsfvfooZQ3Axs_4core4iter8adapters3map3MapINtNtNtB1G_3ops5range5RangejENCNvNtCs1edtEUeLQ4Q_12serde_derive3ser35serialize_adjacently_tagged_variants_0EE0B2U_, symObjAddr: 0x3140, symBinAddr: 0x709CC, symSize: 0x44 }
  - { offset: 0x82866, size: 0x8, addend: 0x0, symName: __RNCINvMsi_NtCse1nGBsou5OW_5alloc3vecINtB8_3VecNtNtCs6IAuOt8vWmF_3syn4expr6MemberE14extend_trustedINtNtNtNtCsfvfooZQ3Axs_4core4iter8adapters3map3MapINtNtNtB1G_5slice4iter4IterNtNtNtCs1edtEUeLQ4Q_12serde_derive9internals3ast5FieldENCNvNtB2S_3ser35serialize_adjacently_tagged_variants0_0EE0B2S_, symObjAddr: 0x3184, symBinAddr: 0x70A10, symSize: 0x44 }
  - { offset: 0x82913, size: 0x8, addend: 0x0, symName: __RNCINvMsi_NtCse1nGBsou5OW_5alloc3vecINtB8_3VecNtNtCs6IAuOt8vWmF_3syn8generics12GenericParamE14extend_trustedINtNtCsfvfooZQ3Axs_4core6option8IntoIterBI_EE0Cs1edtEUeLQ4Q_12serde_derive, symObjAddr: 0x31C8, symBinAddr: 0x70A54, symSize: 0x54 }
  - { offset: 0x829D1, size: 0x8, addend: 0x0, symName: __RNCINvMsi_NtCse1nGBsou5OW_5alloc3vecINtB8_3VecNtNtCs6IAuOt8vWmF_3syn8generics12GenericParamE14extend_trustedINtNtNtNtCsfvfooZQ3Axs_4core4iter8adapters3map3MapINtNtB8_9into_iter8IntoIterTBI_NtNtBM_5token5CommaEENCNvXs8_NtBM_10punctuatedINtB3u_10PunctuatedBI_B31_ENtNtNtB1P_6traits7collect12IntoIterator9into_iter0EE0Cs1edtEUeLQ4Q_12serde_derive, symObjAddr: 0x321C, symBinAddr: 0x70AA8, symSize: 0x54 }
  - { offset: 0x82A8F, size: 0x8, addend: 0x0, symName: __RNCINvMsi_NtCse1nGBsou5OW_5alloc3vecINtB8_3VecNtNtCs6IAuOt8vWmF_3syn8generics14WherePredicateE14extend_trustedINtNtCsfvfooZQ3Axs_4core6option8IntoIterBI_EE0Cs1edtEUeLQ4Q_12serde_derive, symObjAddr: 0x3270, symBinAddr: 0x70AFC, symSize: 0x54 }
  - { offset: 0x82B4D, size: 0x8, addend: 0x0, symName: __RNCINvMsi_NtCse1nGBsou5OW_5alloc3vecINtB8_3VecNtNtCs6IAuOt8vWmF_3syn8generics14WherePredicateE14extend_trustedINtNtNtNtCsfvfooZQ3Axs_4core4iter8adapters3map3MapINtNtB8_9into_iter8IntoIterTBI_NtNtBM_5token5CommaEENCNvXs8_NtBM_10punctuatedINtB3w_10PunctuatedBI_B33_ENtNtNtB1R_6traits7collect12IntoIterator9into_iter0EE0Cs1edtEUeLQ4Q_12serde_derive, symObjAddr: 0x32C4, symBinAddr: 0x70B50, symSize: 0x54 }
  - { offset: 0x82C0B, size: 0x8, addend: 0x0, symName: __RNCINvMsi_NtCse1nGBsou5OW_5alloc3vecINtB8_3VecRNtCs3cP53eQoTwO_11proc_macro25IdentE14extend_trustedINtNtNtNtCsfvfooZQ3Axs_4core4iter8adapters3map3MapINtNtNtB1I_5slice4iter4IterNtNtCs1edtEUeLQ4Q_12serde_derive2de16FieldWithAliasesENCNvB2Q_32deserialize_generated_identifier0EE0B2S_, symObjAddr: 0x3318, symBinAddr: 0x70BA4, symSize: 0x34 }
  - { offset: 0x82CB3, size: 0x8, addend: 0x0, symName: __RNCINvMsi_NtCse1nGBsou5OW_5alloc3vecINtB8_3VecRNtNtCs6IAuOt8vWmF_3syn2ty4TypeE14extend_trustedINtNtNtNtCsfvfooZQ3Axs_4core4iter8adapters3map3MapINtNtNtB1D_5slice4iter4IterNtNtNtCs1edtEUeLQ4Q_12serde_derive9internals3ast5FieldENCNvNtB2P_3ser27wrap_serialize_variant_with0EE0B2P_, symObjAddr: 0x334C, symBinAddr: 0x70BD8, symSize: 0x34 }
  - { offset: 0x82D5B, size: 0x8, addend: 0x0, symName: __RNCINvMsi_NtCse1nGBsou5OW_5alloc3vecINtB8_3VecRNtNtCs6IAuOt8vWmF_3syn4expr6MemberE14extend_trustedINtNtNtNtCsfvfooZQ3Axs_4core4iter8adapters3map3MapINtNtNtB1H_5slice4iter4IterNtNtNtCs1edtEUeLQ4Q_12serde_derive9internals3ast5FieldENCNvNtB2T_3ser37serialize_struct_variant_with_flattens0_0EE0B2T_, symObjAddr: 0x3380, symBinAddr: 0x70C0C, symSize: 0x34 }
  - { offset: 0x82E03, size: 0x8, addend: 0x0, symName: __RNCINvMsi_NtCse1nGBsou5OW_5alloc3vecINtB8_3VecRNtNtCs6IAuOt8vWmF_3syn4expr6MemberE14extend_trustedINtNtNtNtCsfvfooZQ3Axs_4core4iter8adapters3map3MapINtNtNtB1H_5slice4iter4IterNtNtNtCs1edtEUeLQ4Q_12serde_derive9internals3ast5FieldENCNvNtB2T_7pretend33pretend_fields_used_struct_packed0EE0B2T_, symObjAddr: 0x33B4, symBinAddr: 0x70C40, symSize: 0x34 }
  - { offset: 0x82EAB, size: 0x8, addend: 0x0, symName: __RNCINvMsi_NtCse1nGBsou5OW_5alloc3vecINtB8_3VecTRNtNtNtCs1edtEUeLQ4Q_12serde_derive9internals3ast5FieldNtCs3cP53eQoTwO_11proc_macro25IdentEE14extend_trustedINtNtNtNtCsfvfooZQ3Axs_4core4iter8adapters3map3MapINtNtB2y_9enumerate9EnumerateINtNtNtB2C_5slice4iter4IterBK_EENCNvNtBQ_2de15deserialize_map0EE0BQ_, symObjAddr: 0x33E8, symBinAddr: 0x70C74, symSize: 0x3C }
  - { offset: 0x82F60, size: 0x8, addend: 0x0, symName: __RNCINvMsi_NtCse1nGBsou5OW_5alloc3vecINtB8_3VechE14extend_trustedINtNtNtNtCsfvfooZQ3Axs_4core4iter8adapters3map3MapINtNtNtB19_5slice4iter4IterhENCNvNtBa_3str13replace_ascii0EE0Cs1edtEUeLQ4Q_12serde_derive, symObjAddr: 0x3424, symBinAddr: 0x70CB0, symSize: 0x30 }
  - { offset: 0x83430, size: 0x8, addend: 0x0, symName: __RNvXNtNtCse1nGBsou5OW_5alloc3vec11spec_extendINtB4_3VecNtCs3cP53eQoTwO_11proc_macro211TokenStreamEINtB2_10SpecExtendBR_INtNtNtNtCsfvfooZQ3Axs_4core4iter8adapters10filter_map9FilterMapINtNtB1Y_6filter6FilterINtNtB1Y_9enumerate9EnumerateINtNtNtB22_5slice4iter4IterNtNtNtCs1edtEUeLQ4Q_12serde_derive9internals3ast7VariantEENCNvNtB4i_2de34deserialize_adjacently_tagged_enums0_0ENCB5a_s1_0EE11spec_extendB4i_, symObjAddr: 0x4DC8, symBinAddr: 0x72654, symSize: 0x24 }
  - { offset: 0x83482, size: 0x8, addend: 0x0, symName: __RNvXNtNtCse1nGBsou5OW_5alloc3vec11spec_extendINtB4_3VecNtCs3cP53eQoTwO_11proc_macro211TokenStreamEINtB2_10SpecExtendBR_INtNtNtNtCsfvfooZQ3Axs_4core4iter8adapters10filter_map9FilterMapINtNtNtB22_5slice4iter4IterNtNtNtCs1edtEUeLQ4Q_12serde_derive9internals3ast7VariantENCNvNtB3s_7pretend24pretend_fields_used_enum0EE11spec_extendB3s_, symObjAddr: 0x4DEC, symBinAddr: 0x72678, symSize: 0x24 }
  - { offset: 0x834D4, size: 0x8, addend: 0x0, symName: __RNvXNtNtCse1nGBsou5OW_5alloc3vec11spec_extendINtB4_3VecNtCs3cP53eQoTwO_11proc_macro211TokenStreamEINtB2_10SpecExtendBR_INtNtNtNtCsfvfooZQ3Axs_4core4iter8adapters3map3MapINtNtB1Y_6filter6FilterINtNtB1Y_9enumerate9EnumerateINtNtNtB22_5slice4iter4IterNtNtNtCs1edtEUeLQ4Q_12serde_derive9internals3ast5FieldEENCNvNtB44_3ser30serialize_tuple_struct_visitor0ENCB4U_s_0EE11spec_extendB44_, symObjAddr: 0x4E10, symBinAddr: 0x7269C, symSize: 0x24 }
  - { offset: 0x83526, size: 0x8, addend: 0x0, symName: __RNvXNtNtCse1nGBsou5OW_5alloc3vec11spec_extendINtB4_3VecNtCs3cP53eQoTwO_11proc_macro211TokenStreamEINtB2_10SpecExtendBR_INtNtNtNtCsfvfooZQ3Axs_4core4iter8adapters3map3MapINtNtB1Y_6filter6FilterINtNtB1Y_9enumerate9EnumerateINtNtNtB22_5slice4iter4IterNtNtNtCs1edtEUeLQ4Q_12serde_derive9internals3ast7VariantEENCNvNtB44_2de34deserialize_adjacently_tagged_enum0ENCB4W_s_0EE11spec_extendB44_, symObjAddr: 0x4E34, symBinAddr: 0x726C0, symSize: 0x24 }
  - { offset: 0x83578, size: 0x8, addend: 0x0, symName: __RNvXNtNtCse1nGBsou5OW_5alloc3vec11spec_extendINtB4_3VecNtCs3cP53eQoTwO_11proc_macro211TokenStreamEINtB2_10SpecExtendBR_INtNtNtNtCsfvfooZQ3Axs_4core4iter8adapters3map3MapINtNtB1Y_6filter6FilterINtNtNtB22_5slice4iter4IterNtNtNtCs1edtEUeLQ4Q_12serde_derive9internals3ast5FieldENCNvNtB3B_3ser24serialize_struct_visitor0ENCB4q_s_0EE11spec_extendB3B_, symObjAddr: 0x4E58, symBinAddr: 0x726E4, symSize: 0x24 }
  - { offset: 0x835CA, size: 0x8, addend: 0x0, symName: __RNvXNtNtCse1nGBsou5OW_5alloc3vec11spec_extendINtB4_3VecNtNtCs1edtEUeLQ4Q_12serde_derive2de16FieldWithAliasesEINtB2_10SpecExtendBR_INtNtNtNtCsfvfooZQ3Axs_4core4iter8adapters3map3MapINtNtB29_6filter6FilterINtNtB29_9enumerate9EnumerateINtNtNtB2d_5slice4iter4IterNtNtNtBV_9internals3ast5FieldEENCNvBT_18deserialize_struct0ENCB4G_s_0EE11spec_extendBV_, symObjAddr: 0x4E7C, symBinAddr: 0x72708, symSize: 0x24 }
  - { offset: 0x8361C, size: 0x8, addend: 0x0, symName: __RNvXNtNtCse1nGBsou5OW_5alloc3vec11spec_extendINtB4_3VecNtNtCs1edtEUeLQ4Q_12serde_derive2de16FieldWithAliasesEINtB2_10SpecExtendBR_INtNtNtNtCsfvfooZQ3Axs_4core4iter8adapters3map3MapINtNtB29_6filter6FilterINtNtB29_9enumerate9EnumerateINtNtNtB2d_5slice4iter4IterNtNtNtBV_9internals3ast7VariantEENCNvBT_25prepare_enum_variant_enum0ENCB4I_s2_0EE11spec_extendBV_, symObjAddr: 0x4EA0, symBinAddr: 0x7272C, symSize: 0x24 }
  - { offset: 0x8366E, size: 0x8, addend: 0x0, symName: __RNvXNtNtCse1nGBsou5OW_5alloc3vec11spec_extendINtB4_3VecNtNtCs6IAuOt8vWmF_3syn8generics14WherePredicateEINtB2_10SpecExtendBR_INtNtBV_10punctuated8IntoIterBR_EE11spec_extendCs1edtEUeLQ4Q_12serde_derive, symObjAddr: 0x4EC4, symBinAddr: 0x72750, symSize: 0x24 }
  - { offset: 0x836C0, size: 0x8, addend: 0x0, symName: __RNvXNtNtCse1nGBsou5OW_5alloc3vec11spec_extendINtB4_3VecNtNtNtCs1edtEUeLQ4Q_12serde_derive9internals3ast5FieldEINtB2_10SpecExtendBR_INtNtNtNtCsfvfooZQ3Axs_4core4iter8adapters3map3MapINtNtB2a_9enumerate9EnumerateINtNtCs6IAuOt8vWmF_3syn10punctuated4IterNtNtB3r_4data5FieldEENCNvBT_15fields_from_ast0EE11spec_extendBX_, symObjAddr: 0x4EE8, symBinAddr: 0x72774, symSize: 0x24 }
  - { offset: 0x83712, size: 0x8, addend: 0x0, symName: __RNvXNtNtCse1nGBsou5OW_5alloc3vec11spec_extendINtB4_3VecNtNtNtCs1edtEUeLQ4Q_12serde_derive9internals3ast7VariantEINtB2_10SpecExtendBR_INtNtNtNtCsfvfooZQ3Axs_4core4iter8adapters3map3MapINtNtCs6IAuOt8vWmF_3syn10punctuated4IterNtNtB30_4data7VariantENCNvBT_13enum_from_ast0EE11spec_extendBX_, symObjAddr: 0x4F0C, symBinAddr: 0x72798, symSize: 0x24 }
  - { offset: 0x8376A, size: 0x8, addend: 0x0, symName: __RNvXs_NtNtCse1nGBsou5OW_5alloc3vec11spec_extendINtB6_3VecNtCs3cP53eQoTwO_11proc_macro211TokenStreamEINtB4_10SpecExtendBT_INtNtNtNtCsfvfooZQ3Axs_4core4iter8adapters3map3MapINtNtB20_9enumerate9EnumerateINtNtNtB24_5slice4iter4IterNtNtNtCs1edtEUeLQ4Q_12serde_derive9internals3ast7VariantEENCNvNtB3J_3ser14serialize_enum0EE11spec_extendB3J_, symObjAddr: 0x6AF0, symBinAddr: 0x7437C, symSize: 0x24 }
  - { offset: 0x837BC, size: 0x8, addend: 0x0, symName: __RNvXs_NtNtCse1nGBsou5OW_5alloc3vec11spec_extendINtB6_3VecNtCs3cP53eQoTwO_11proc_macro211TokenStreamEINtB4_10SpecExtendBT_INtNtNtNtCsfvfooZQ3Axs_4core4iter8adapters3map3MapINtNtNtB24_5slice4iter4IterNtNtNtCs1edtEUeLQ4Q_12serde_derive9internals3ast5FieldENCNvNtB3g_3ser27wrap_serialize_variant_withs_0EE11spec_extendB3g_, symObjAddr: 0x6B14, symBinAddr: 0x743A0, symSize: 0x34 }
  - { offset: 0x8380D, size: 0x8, addend: 0x0, symName: __RNvXs_NtNtCse1nGBsou5OW_5alloc3vec11spec_extendINtB6_3VecNtCs3cP53eQoTwO_11proc_macro25IdentEINtB4_10SpecExtendBT_INtNtNtNtCsfvfooZQ3Axs_4core4iter8adapters3map3MapINtNtNtB1X_3ops5range5RangejENCNCNvNtCs1edtEUeLQ4Q_12serde_derive7pretend21pretend_variants_used00EE11spec_extendB3d_, symObjAddr: 0x6B48, symBinAddr: 0x743D4, symSize: 0x2C }
  - { offset: 0x8385E, size: 0x8, addend: 0x0, symName: __RNvXs_NtNtCse1nGBsou5OW_5alloc3vec11spec_extendINtB6_3VecNtNtCs1edtEUeLQ4Q_12serde_derive2de16FieldWithAliasesEINtB4_10SpecExtendBT_INtNtNtNtCsfvfooZQ3Axs_4core4iter8adapters3map3MapINtNtNtB2f_5slice4iter4IterNtNtNtBX_9internals3ast7VariantENCNvBV_29deserialize_custom_identifiers_0EE11spec_extendBX_, symObjAddr: 0x6B74, symBinAddr: 0x74400, symSize: 0x34 }
  - { offset: 0x838AF, size: 0x8, addend: 0x0, symName: __RNvXs_NtNtCse1nGBsou5OW_5alloc3vec11spec_extendINtB6_3VecNtNtCs6IAuOt8vWmF_3syn4expr6MemberEINtB4_10SpecExtendBT_INtNtNtNtCsfvfooZQ3Axs_4core4iter8adapters3map3MapINtNtNtB1W_3ops5range5RangejENCNvNtCs1edtEUeLQ4Q_12serde_derive3ser35serialize_adjacently_tagged_variants_0EE11spec_extendB3a_, symObjAddr: 0x6BA8, symBinAddr: 0x74434, symSize: 0x2C }
  - { offset: 0x83900, size: 0x8, addend: 0x0, symName: __RNvXs_NtNtCse1nGBsou5OW_5alloc3vec11spec_extendINtB6_3VecNtNtCs6IAuOt8vWmF_3syn4expr6MemberEINtB4_10SpecExtendBT_INtNtNtNtCsfvfooZQ3Axs_4core4iter8adapters3map3MapINtNtNtB1W_5slice4iter4IterNtNtNtCs1edtEUeLQ4Q_12serde_derive9internals3ast5FieldENCNvNtB38_3ser35serialize_adjacently_tagged_variants0_0EE11spec_extendB38_, symObjAddr: 0x6BD4, symBinAddr: 0x74460, symSize: 0x34 }
  - { offset: 0x83951, size: 0x8, addend: 0x0, symName: __RNvXs_NtNtCse1nGBsou5OW_5alloc3vec11spec_extendINtB6_3VecNtNtCs6IAuOt8vWmF_3syn8generics12GenericParamEINtB4_10SpecExtendBT_INtNtCsfvfooZQ3Axs_4core6option8IntoIterBT_EE11spec_extendCs1edtEUeLQ4Q_12serde_derive, symObjAddr: 0x6C08, symBinAddr: 0x74494, symSize: 0x24 }
  - { offset: 0x839A3, size: 0x8, addend: 0x0, symName: __RNvXs_NtNtCse1nGBsou5OW_5alloc3vec11spec_extendINtB6_3VecNtNtCs6IAuOt8vWmF_3syn8generics12GenericParamEINtB4_10SpecExtendBT_INtNtNtNtCsfvfooZQ3Axs_4core4iter8adapters3map3MapINtNtB6_9into_iter8IntoIterTBT_NtNtBX_5token5CommaEENCNvXs8_NtBX_10punctuatedINtB3K_10PunctuatedBT_B3h_ENtNtNtB25_6traits7collect12IntoIterator9into_iter0EE11spec_extendCs1edtEUeLQ4Q_12serde_derive, symObjAddr: 0x6C2C, symBinAddr: 0x744B8, symSize: 0x24 }
  - { offset: 0x839F5, size: 0x8, addend: 0x0, symName: __RNvXs_NtNtCse1nGBsou5OW_5alloc3vec11spec_extendINtB6_3VecNtNtCs6IAuOt8vWmF_3syn8generics14WherePredicateEINtB4_10SpecExtendBT_INtNtCsfvfooZQ3Axs_4core6option8IntoIterBT_EE11spec_extendCs1edtEUeLQ4Q_12serde_derive, symObjAddr: 0x6C50, symBinAddr: 0x744DC, symSize: 0x24 }
  - { offset: 0x83A47, size: 0x8, addend: 0x0, symName: __RNvXs_NtNtCse1nGBsou5OW_5alloc3vec11spec_extendINtB6_3VecNtNtCs6IAuOt8vWmF_3syn8generics14WherePredicateEINtB4_10SpecExtendBT_INtNtNtNtCsfvfooZQ3Axs_4core4iter8adapters3map3MapINtNtB6_9into_iter8IntoIterTBT_NtNtBX_5token5CommaEENCNvXs8_NtBX_10punctuatedINtB3M_10PunctuatedBT_B3j_ENtNtNtB27_6traits7collect12IntoIterator9into_iter0EE11spec_extendCs1edtEUeLQ4Q_12serde_derive, symObjAddr: 0x6C74, symBinAddr: 0x74500, symSize: 0x24 }
  - { offset: 0x83A99, size: 0x8, addend: 0x0, symName: __RNvXs_NtNtCse1nGBsou5OW_5alloc3vec11spec_extendINtB6_3VecRNtCs3cP53eQoTwO_11proc_macro25IdentEINtB4_10SpecExtendBT_INtNtNtNtCsfvfooZQ3Axs_4core4iter8adapters3map3MapINtNtNtB1Y_5slice4iter4IterNtNtCs1edtEUeLQ4Q_12serde_derive2de16FieldWithAliasesENCNvB36_32deserialize_generated_identifier0EE11spec_extendB38_, symObjAddr: 0x6C98, symBinAddr: 0x74524, symSize: 0x34 }
  - { offset: 0x83AEA, size: 0x8, addend: 0x0, symName: __RNvXs_NtNtCse1nGBsou5OW_5alloc3vec11spec_extendINtB6_3VecRNtNtCs6IAuOt8vWmF_3syn2ty4TypeEINtB4_10SpecExtendBT_INtNtNtNtCsfvfooZQ3Axs_4core4iter8adapters3map3MapINtNtNtB1T_5slice4iter4IterNtNtNtCs1edtEUeLQ4Q_12serde_derive9internals3ast5FieldENCNvNtB35_3ser27wrap_serialize_variant_with0EE11spec_extendB35_, symObjAddr: 0x6CCC, symBinAddr: 0x74558, symSize: 0x34 }
  - { offset: 0x83B3B, size: 0x8, addend: 0x0, symName: __RNvXs_NtNtCse1nGBsou5OW_5alloc3vec11spec_extendINtB6_3VecRNtNtCs6IAuOt8vWmF_3syn4expr6MemberEINtB4_10SpecExtendBT_INtNtNtNtCsfvfooZQ3Axs_4core4iter8adapters3map3MapINtNtNtB1X_5slice4iter4IterNtNtNtCs1edtEUeLQ4Q_12serde_derive9internals3ast5FieldENCNvNtB39_3ser37serialize_struct_variant_with_flattens0_0EE11spec_extendB39_, symObjAddr: 0x6D00, symBinAddr: 0x7458C, symSize: 0x34 }
  - { offset: 0x83B8C, size: 0x8, addend: 0x0, symName: __RNvXs_NtNtCse1nGBsou5OW_5alloc3vec11spec_extendINtB6_3VecRNtNtCs6IAuOt8vWmF_3syn4expr6MemberEINtB4_10SpecExtendBT_INtNtNtNtCsfvfooZQ3Axs_4core4iter8adapters3map3MapINtNtNtB1X_5slice4iter4IterNtNtNtCs1edtEUeLQ4Q_12serde_derive9internals3ast5FieldENCNvNtB39_7pretend33pretend_fields_used_struct_packed0EE11spec_extendB39_, symObjAddr: 0x6D34, symBinAddr: 0x745C0, symSize: 0x34 }
  - { offset: 0x83BDD, size: 0x8, addend: 0x0, symName: __RNvXs_NtNtCse1nGBsou5OW_5alloc3vec11spec_extendINtB6_3VecTRNtNtNtCs1edtEUeLQ4Q_12serde_derive9internals3ast5FieldNtCs3cP53eQoTwO_11proc_macro25IdentEEINtB4_10SpecExtendBT_INtNtNtNtCsfvfooZQ3Axs_4core4iter8adapters3map3MapINtNtB2O_9enumerate9EnumerateINtNtNtB2S_5slice4iter4IterBV_EENCNvNtB11_2de15deserialize_map0EE11spec_extendB11_, symObjAddr: 0x6D68, symBinAddr: 0x745F4, symSize: 0x24 }
  - { offset: 0x83C2F, size: 0x8, addend: 0x0, symName: __RNvXs_NtNtCse1nGBsou5OW_5alloc3vec11spec_extendINtB6_3VechEINtB4_10SpecExtendhINtNtNtNtCsfvfooZQ3Axs_4core4iter8adapters3map3MapINtNtNtB1n_5slice4iter4IterhENCNvNtB8_3str13replace_ascii0EE11spec_extendCs1edtEUeLQ4Q_12serde_derive, symObjAddr: 0x6D8C, symBinAddr: 0x74618, symSize: 0x24 }
  - { offset: 0x83C8D, size: 0x8, addend: 0x0, symName: __RNvXNtNtCse1nGBsou5OW_5alloc3vec14spec_from_iterINtB4_3VecNtCs3cP53eQoTwO_11proc_macro211TokenStreamEINtB2_12SpecFromIterBU_INtNtNtNtCsfvfooZQ3Axs_4core4iter8adapters10filter_map9FilterMapINtNtB23_6filter6FilterINtNtB23_9enumerate9EnumerateINtNtNtB27_5slice4iter4IterNtNtNtCs1edtEUeLQ4Q_12serde_derive9internals3ast7VariantEENCNvNtB4n_2de34deserialize_adjacently_tagged_enums0_0ENCB5f_s1_0EE9from_iterB4n_, symObjAddr: 0x4F30, symBinAddr: 0x727BC, symSize: 0x14 }
  - { offset: 0x83CCC, size: 0x8, addend: 0x0, symName: __RNvXNtNtCse1nGBsou5OW_5alloc3vec14spec_from_iterINtB4_3VecNtCs3cP53eQoTwO_11proc_macro211TokenStreamEINtB2_12SpecFromIterBU_INtNtNtNtCsfvfooZQ3Axs_4core4iter8adapters10filter_map9FilterMapINtNtNtB27_5slice4iter4IterNtNtNtCs1edtEUeLQ4Q_12serde_derive9internals3ast7VariantENCNvNtB3x_7pretend24pretend_fields_used_enum0EE9from_iterB3x_, symObjAddr: 0x4F44, symBinAddr: 0x727D0, symSize: 0x14 }
  - { offset: 0x83D0B, size: 0x8, addend: 0x0, symName: __RNvXNtNtCse1nGBsou5OW_5alloc3vec14spec_from_iterINtB4_3VecNtCs3cP53eQoTwO_11proc_macro211TokenStreamEINtB2_12SpecFromIterBU_INtNtNtNtCsfvfooZQ3Axs_4core4iter8adapters3map3MapINtNtB23_6filter6FilterINtNtB23_9enumerate9EnumerateINtNtNtB27_5slice4iter4IterNtNtNtCs1edtEUeLQ4Q_12serde_derive9internals3ast5FieldEENCNvNtB49_3ser30serialize_tuple_struct_visitor0ENCB4Z_s_0EE9from_iterB49_, symObjAddr: 0x4F58, symBinAddr: 0x727E4, symSize: 0x14 }
  - { offset: 0x83D4A, size: 0x8, addend: 0x0, symName: __RNvXNtNtCse1nGBsou5OW_5alloc3vec14spec_from_iterINtB4_3VecNtCs3cP53eQoTwO_11proc_macro211TokenStreamEINtB2_12SpecFromIterBU_INtNtNtNtCsfvfooZQ3Axs_4core4iter8adapters3map3MapINtNtB23_6filter6FilterINtNtB23_9enumerate9EnumerateINtNtNtB27_5slice4iter4IterNtNtNtCs1edtEUeLQ4Q_12serde_derive9internals3ast7VariantEENCNvNtB49_2de34deserialize_adjacently_tagged_enum0ENCB51_s_0EE9from_iterB49_, symObjAddr: 0x4F6C, symBinAddr: 0x727F8, symSize: 0x14 }
  - { offset: 0x83D89, size: 0x8, addend: 0x0, symName: __RNvXNtNtCse1nGBsou5OW_5alloc3vec14spec_from_iterINtB4_3VecNtCs3cP53eQoTwO_11proc_macro211TokenStreamEINtB2_12SpecFromIterBU_INtNtNtNtCsfvfooZQ3Axs_4core4iter8adapters3map3MapINtNtB23_6filter6FilterINtNtNtB27_5slice4iter4IterNtNtNtCs1edtEUeLQ4Q_12serde_derive9internals3ast5FieldENCNvNtB3G_3ser24serialize_struct_visitor0ENCB4v_s_0EE9from_iterB3G_, symObjAddr: 0x4F80, symBinAddr: 0x7280C, symSize: 0x14 }
  - { offset: 0x83DC8, size: 0x8, addend: 0x0, symName: __RNvXNtNtCse1nGBsou5OW_5alloc3vec14spec_from_iterINtB4_3VecNtCs3cP53eQoTwO_11proc_macro211TokenStreamEINtB2_12SpecFromIterBU_INtNtNtNtCsfvfooZQ3Axs_4core4iter8adapters3map3MapINtNtB23_9enumerate9EnumerateINtNtNtB27_5slice4iter4IterNtNtNtCs1edtEUeLQ4Q_12serde_derive9internals3ast7VariantEENCNvNtB3M_3ser14serialize_enum0EE9from_iterB3M_, symObjAddr: 0x4F94, symBinAddr: 0x72820, symSize: 0x14 }
  - { offset: 0x83E07, size: 0x8, addend: 0x0, symName: __RNvXNtNtCse1nGBsou5OW_5alloc3vec14spec_from_iterINtB4_3VecNtCs3cP53eQoTwO_11proc_macro211TokenStreamEINtB2_12SpecFromIterBU_INtNtNtNtCsfvfooZQ3Axs_4core4iter8adapters3map3MapINtNtNtB27_5slice4iter4IterNtNtNtCs1edtEUeLQ4Q_12serde_derive9internals3ast5FieldENCNvNtB3j_3ser27wrap_serialize_variant_withs_0EE9from_iterB3j_, symObjAddr: 0x4FA8, symBinAddr: 0x72834, symSize: 0x2C }
  - { offset: 0x83E45, size: 0x8, addend: 0x0, symName: __RNvXNtNtCse1nGBsou5OW_5alloc3vec14spec_from_iterINtB4_3VecNtCs3cP53eQoTwO_11proc_macro25IdentEINtB2_12SpecFromIterBU_INtNtNtNtCsfvfooZQ3Axs_4core4iter8adapters3map3MapINtNtNtB20_3ops5range5RangejENCNCNvNtCs1edtEUeLQ4Q_12serde_derive7pretend21pretend_variants_used00EE9from_iterB3g_, symObjAddr: 0x4FD4, symBinAddr: 0x72860, symSize: 0x24 }
  - { offset: 0x83E83, size: 0x8, addend: 0x0, symName: __RNvXNtNtCse1nGBsou5OW_5alloc3vec14spec_from_iterINtB4_3VecNtNtCs1edtEUeLQ4Q_12serde_derive2de16FieldWithAliasesEINtB2_12SpecFromIterBU_INtNtNtNtCsfvfooZQ3Axs_4core4iter8adapters3map3MapINtNtB2e_6filter6FilterINtNtB2e_9enumerate9EnumerateINtNtNtB2i_5slice4iter4IterNtNtNtBY_9internals3ast5FieldEENCNvBW_18deserialize_struct0ENCB4L_s_0EE9from_iterBY_, symObjAddr: 0x4FF8, symBinAddr: 0x72884, symSize: 0x14 }
  - { offset: 0x83EC2, size: 0x8, addend: 0x0, symName: __RNvXNtNtCse1nGBsou5OW_5alloc3vec14spec_from_iterINtB4_3VecNtNtCs1edtEUeLQ4Q_12serde_derive2de16FieldWithAliasesEINtB2_12SpecFromIterBU_INtNtNtNtCsfvfooZQ3Axs_4core4iter8adapters3map3MapINtNtB2e_6filter6FilterINtNtB2e_9enumerate9EnumerateINtNtNtB2i_5slice4iter4IterNtNtNtBY_9internals3ast7VariantEENCNvBW_25prepare_enum_variant_enum0ENCB4N_s2_0EE9from_iterBY_, symObjAddr: 0x500C, symBinAddr: 0x72898, symSize: 0x14 }
  - { offset: 0x83F01, size: 0x8, addend: 0x0, symName: __RNvXNtNtCse1nGBsou5OW_5alloc3vec14spec_from_iterINtB4_3VecNtNtCs1edtEUeLQ4Q_12serde_derive2de16FieldWithAliasesEINtB2_12SpecFromIterBU_INtNtNtNtCsfvfooZQ3Axs_4core4iter8adapters3map3MapINtNtNtB2i_5slice4iter4IterNtNtNtBY_9internals3ast7VariantENCNvBW_29deserialize_custom_identifiers_0EE9from_iterBY_, symObjAddr: 0x5020, symBinAddr: 0x728AC, symSize: 0x2C }
  - { offset: 0x83F3F, size: 0x8, addend: 0x0, symName: __RNvXNtNtCse1nGBsou5OW_5alloc3vec14spec_from_iterINtB4_3VecNtNtCs6IAuOt8vWmF_3syn4expr6MemberEINtB2_12SpecFromIterBU_INtNtNtNtCsfvfooZQ3Axs_4core4iter8adapters3map3MapINtNtNtB1Z_3ops5range5RangejENCNvNtCs1edtEUeLQ4Q_12serde_derive3ser35serialize_adjacently_tagged_variants_0EE9from_iterB3d_, symObjAddr: 0x504C, symBinAddr: 0x728D8, symSize: 0x24 }
  - { offset: 0x83F7D, size: 0x8, addend: 0x0, symName: __RNvXNtNtCse1nGBsou5OW_5alloc3vec14spec_from_iterINtB4_3VecNtNtCs6IAuOt8vWmF_3syn4expr6MemberEINtB2_12SpecFromIterBU_INtNtNtNtCsfvfooZQ3Axs_4core4iter8adapters3map3MapINtNtNtB1Z_5slice4iter4IterNtNtNtCs1edtEUeLQ4Q_12serde_derive9internals3ast5FieldENCNvNtB3b_3ser35serialize_adjacently_tagged_variants0_0EE9from_iterB3b_, symObjAddr: 0x5070, symBinAddr: 0x728FC, symSize: 0x2C }
  - { offset: 0x83FBB, size: 0x8, addend: 0x0, symName: __RNvXNtNtCse1nGBsou5OW_5alloc3vec14spec_from_iterINtB4_3VecNtNtCs6IAuOt8vWmF_3syn8generics14WherePredicateEINtB2_12SpecFromIterBU_INtNtBY_10punctuated8IntoIterBU_EE9from_iterCs1edtEUeLQ4Q_12serde_derive, symObjAddr: 0x509C, symBinAddr: 0x72928, symSize: 0x14 }
  - { offset: 0x83FFA, size: 0x8, addend: 0x0, symName: __RNvXNtNtCse1nGBsou5OW_5alloc3vec14spec_from_iterINtB4_3VecNtNtNtCs1edtEUeLQ4Q_12serde_derive9internals3ast5FieldEINtB2_12SpecFromIterBU_INtNtNtNtCsfvfooZQ3Axs_4core4iter8adapters3map3MapINtNtB2f_9enumerate9EnumerateINtNtCs6IAuOt8vWmF_3syn10punctuated4IterNtNtB3w_4data5FieldEENCNvBW_15fields_from_ast0EE9from_iterB10_, symObjAddr: 0x50B0, symBinAddr: 0x7293C, symSize: 0x14 }
  - { offset: 0x84039, size: 0x8, addend: 0x0, symName: __RNvXNtNtCse1nGBsou5OW_5alloc3vec14spec_from_iterINtB4_3VecNtNtNtCs1edtEUeLQ4Q_12serde_derive9internals3ast7VariantEINtB2_12SpecFromIterBU_INtNtNtNtCsfvfooZQ3Axs_4core4iter8adapters3map3MapINtNtCs6IAuOt8vWmF_3syn10punctuated4IterNtNtB35_4data7VariantENCNvBW_13enum_from_ast0EE9from_iterB10_, symObjAddr: 0x50C4, symBinAddr: 0x72950, symSize: 0x14 }
  - { offset: 0x84078, size: 0x8, addend: 0x0, symName: __RNvXNtNtCse1nGBsou5OW_5alloc3vec14spec_from_iterINtB4_3VecRNtCs3cP53eQoTwO_11proc_macro25IdentEINtB2_12SpecFromIterBU_INtNtNtNtCsfvfooZQ3Axs_4core4iter8adapters3map3MapINtNtNtB21_5slice4iter4IterNtNtCs1edtEUeLQ4Q_12serde_derive2de16FieldWithAliasesENCNvB39_32deserialize_generated_identifier0EE9from_iterB3b_, symObjAddr: 0x50D8, symBinAddr: 0x72964, symSize: 0x2C }
  - { offset: 0x840B6, size: 0x8, addend: 0x0, symName: __RNvXNtNtCse1nGBsou5OW_5alloc3vec14spec_from_iterINtB4_3VecRNtNtCs6IAuOt8vWmF_3syn2ty4TypeEINtB2_12SpecFromIterBU_INtNtNtNtCsfvfooZQ3Axs_4core4iter8adapters3map3MapINtNtNtB1W_5slice4iter4IterNtNtNtCs1edtEUeLQ4Q_12serde_derive9internals3ast5FieldENCNvNtB38_3ser27wrap_serialize_variant_with0EE9from_iterB38_, symObjAddr: 0x5104, symBinAddr: 0x72990, symSize: 0x2C }
  - { offset: 0x840F4, size: 0x8, addend: 0x0, symName: __RNvXNtNtCse1nGBsou5OW_5alloc3vec14spec_from_iterINtB4_3VecRNtNtCs6IAuOt8vWmF_3syn4expr6MemberEINtB2_12SpecFromIterBU_INtNtNtNtCsfvfooZQ3Axs_4core4iter8adapters3map3MapINtNtNtB20_5slice4iter4IterNtNtNtCs1edtEUeLQ4Q_12serde_derive9internals3ast5FieldENCNvNtB3c_3ser37serialize_struct_variant_with_flattens0_0EE9from_iterB3c_, symObjAddr: 0x5130, symBinAddr: 0x729BC, symSize: 0x2C }
  - { offset: 0x84132, size: 0x8, addend: 0x0, symName: __RNvXNtNtCse1nGBsou5OW_5alloc3vec14spec_from_iterINtB4_3VecRNtNtCs6IAuOt8vWmF_3syn4expr6MemberEINtB2_12SpecFromIterBU_INtNtNtNtCsfvfooZQ3Axs_4core4iter8adapters3map3MapINtNtNtB20_5slice4iter4IterNtNtNtCs1edtEUeLQ4Q_12serde_derive9internals3ast5FieldENCNvNtB3c_7pretend33pretend_fields_used_struct_packed0EE9from_iterB3c_, symObjAddr: 0x515C, symBinAddr: 0x729E8, symSize: 0x2C }
  - { offset: 0x84170, size: 0x8, addend: 0x0, symName: __RNvXNtNtCse1nGBsou5OW_5alloc3vec14spec_from_iterINtB4_3VecTRNtNtNtCs1edtEUeLQ4Q_12serde_derive9internals3ast5FieldNtCs3cP53eQoTwO_11proc_macro25IdentEEINtB2_12SpecFromIterBU_INtNtNtNtCsfvfooZQ3Axs_4core4iter8adapters3map3MapINtNtB2R_9enumerate9EnumerateINtNtNtB2V_5slice4iter4IterBW_EENCNvNtB12_2de15deserialize_map0EE9from_iterB12_, symObjAddr: 0x5188, symBinAddr: 0x72A14, symSize: 0x14 }
  - { offset: 0x841BB, size: 0x8, addend: 0x0, symName: __RNvXNtNtCse1nGBsou5OW_5alloc3vec21spec_from_iter_nestedINtB4_3VecNtCs3cP53eQoTwO_11proc_macro211TokenStreamEINtB2_18SpecFromIterNestedB11_INtNtNtNtCsfvfooZQ3Axs_4core4iter8adapters10filter_map9FilterMapINtNtB2h_6filter6FilterINtNtB2h_9enumerate9EnumerateINtNtNtB2l_5slice4iter4IterNtNtNtCs1edtEUeLQ4Q_12serde_derive9internals3ast7VariantEENCNvNtB4B_2de34deserialize_adjacently_tagged_enums0_0ENCB5t_s1_0EE9from_iterB4B_, symObjAddr: 0x519C, symBinAddr: 0x72A28, symSize: 0x224 }
  - { offset: 0x843DA, size: 0x8, addend: 0x0, symName: __RNvXNtNtCse1nGBsou5OW_5alloc3vec21spec_from_iter_nestedINtB4_3VecNtCs3cP53eQoTwO_11proc_macro211TokenStreamEINtB2_18SpecFromIterNestedB11_INtNtNtNtCsfvfooZQ3Axs_4core4iter8adapters10filter_map9FilterMapINtNtNtB2l_5slice4iter4IterNtNtNtCs1edtEUeLQ4Q_12serde_derive9internals3ast7VariantENCNvNtB3L_7pretend24pretend_fields_used_enum0EE9from_iterB3L_, symObjAddr: 0x53C0, symBinAddr: 0x72C4C, symSize: 0x218 }
  - { offset: 0x845F8, size: 0x8, addend: 0x0, symName: __RNvXNtNtCse1nGBsou5OW_5alloc3vec21spec_from_iter_nestedINtB4_3VecNtCs3cP53eQoTwO_11proc_macro211TokenStreamEINtB2_18SpecFromIterNestedB11_INtNtNtNtCsfvfooZQ3Axs_4core4iter8adapters3map3MapINtNtB2h_6filter6FilterINtNtB2h_9enumerate9EnumerateINtNtNtB2l_5slice4iter4IterNtNtNtCs1edtEUeLQ4Q_12serde_derive9internals3ast5FieldEENCNvNtB4n_3ser30serialize_tuple_struct_visitor0ENCB5d_s_0EE9from_iterB4n_, symObjAddr: 0x55D8, symBinAddr: 0x72E64, symSize: 0x224 }
  - { offset: 0x84817, size: 0x8, addend: 0x0, symName: __RNvXNtNtCse1nGBsou5OW_5alloc3vec21spec_from_iter_nestedINtB4_3VecNtCs3cP53eQoTwO_11proc_macro211TokenStreamEINtB2_18SpecFromIterNestedB11_INtNtNtNtCsfvfooZQ3Axs_4core4iter8adapters3map3MapINtNtB2h_6filter6FilterINtNtB2h_9enumerate9EnumerateINtNtNtB2l_5slice4iter4IterNtNtNtCs1edtEUeLQ4Q_12serde_derive9internals3ast7VariantEENCNvNtB4n_2de34deserialize_adjacently_tagged_enum0ENCB5f_s_0EE9from_iterB4n_, symObjAddr: 0x57FC, symBinAddr: 0x73088, symSize: 0x224 }
  - { offset: 0x84A36, size: 0x8, addend: 0x0, symName: __RNvXNtNtCse1nGBsou5OW_5alloc3vec21spec_from_iter_nestedINtB4_3VecNtCs3cP53eQoTwO_11proc_macro211TokenStreamEINtB2_18SpecFromIterNestedB11_INtNtNtNtCsfvfooZQ3Axs_4core4iter8adapters3map3MapINtNtB2h_6filter6FilterINtNtNtB2l_5slice4iter4IterNtNtNtCs1edtEUeLQ4Q_12serde_derive9internals3ast5FieldENCNvNtB3U_3ser24serialize_struct_visitor0ENCB4J_s_0EE9from_iterB3U_, symObjAddr: 0x5A20, symBinAddr: 0x732AC, symSize: 0x224 }
  - { offset: 0x84C55, size: 0x8, addend: 0x0, symName: __RNvXNtNtCse1nGBsou5OW_5alloc3vec21spec_from_iter_nestedINtB4_3VecNtNtCs1edtEUeLQ4Q_12serde_derive2de16FieldWithAliasesEINtB2_18SpecFromIterNestedB11_INtNtNtNtCsfvfooZQ3Axs_4core4iter8adapters3map3MapINtNtB2s_6filter6FilterINtNtB2s_9enumerate9EnumerateINtNtNtB2w_5slice4iter4IterNtNtNtB15_9internals3ast5FieldEENCNvB13_18deserialize_struct0ENCB50_s_0EE9from_iterB15_, symObjAddr: 0x5C44, symBinAddr: 0x734D0, symSize: 0x214 }
  - { offset: 0x84E73, size: 0x8, addend: 0x0, symName: __RNvXNtNtCse1nGBsou5OW_5alloc3vec21spec_from_iter_nestedINtB4_3VecNtNtCs1edtEUeLQ4Q_12serde_derive2de16FieldWithAliasesEINtB2_18SpecFromIterNestedB11_INtNtNtNtCsfvfooZQ3Axs_4core4iter8adapters3map3MapINtNtB2s_6filter6FilterINtNtB2s_9enumerate9EnumerateINtNtNtB2w_5slice4iter4IterNtNtNtB15_9internals3ast7VariantEENCNvB13_25prepare_enum_variant_enum0ENCB52_s2_0EE9from_iterB15_, symObjAddr: 0x5E58, symBinAddr: 0x736E4, symSize: 0x214 }
  - { offset: 0x85091, size: 0x8, addend: 0x0, symName: __RNvXNtNtCse1nGBsou5OW_5alloc3vec21spec_from_iter_nestedINtB4_3VecNtNtCs6IAuOt8vWmF_3syn8generics14WherePredicateEINtB2_18SpecFromIterNestedB11_INtNtB15_10punctuated8IntoIterB11_EE9from_iterCs1edtEUeLQ4Q_12serde_derive, symObjAddr: 0x606C, symBinAddr: 0x738F8, symSize: 0x23C }
  - { offset: 0x852B0, size: 0x8, addend: 0x0, symName: __RNvXNtNtCse1nGBsou5OW_5alloc3vec21spec_from_iter_nestedINtB4_3VecNtNtNtCs1edtEUeLQ4Q_12serde_derive9internals3ast5FieldEINtB2_18SpecFromIterNestedB11_INtNtNtNtCsfvfooZQ3Axs_4core4iter8adapters3map3MapINtNtB2t_9enumerate9EnumerateINtNtCs6IAuOt8vWmF_3syn10punctuated4IterNtNtB3K_4data5FieldEENCNvB13_15fields_from_ast0EE9from_iterB17_, symObjAddr: 0x62A8, symBinAddr: 0x73B34, symSize: 0x250 }
  - { offset: 0x854CF, size: 0x8, addend: 0x0, symName: __RNvXNtNtCse1nGBsou5OW_5alloc3vec21spec_from_iter_nestedINtB4_3VecNtNtNtCs1edtEUeLQ4Q_12serde_derive9internals3ast7VariantEINtB2_18SpecFromIterNestedB11_INtNtNtNtCsfvfooZQ3Axs_4core4iter8adapters3map3MapINtNtCs6IAuOt8vWmF_3syn10punctuated4IterNtNtB3j_4data7VariantENCNvB13_13enum_from_ast0EE9from_iterB17_, symObjAddr: 0x64F8, symBinAddr: 0x73D84, symSize: 0x23C }
  - { offset: 0x856F4, size: 0x8, addend: 0x0, symName: __RNvXs_NtNtCse1nGBsou5OW_5alloc3vec21spec_from_iter_nestedINtB6_3VecNtCs3cP53eQoTwO_11proc_macro211TokenStreamEINtB4_18SpecFromIterNestedB13_INtNtNtNtCsfvfooZQ3Axs_4core4iter8adapters3map3MapINtNtB2j_9enumerate9EnumerateINtNtNtB2n_5slice4iter4IterNtNtNtCs1edtEUeLQ4Q_12serde_derive9internals3ast7VariantEENCNvNtB42_3ser14serialize_enum0EE9from_iterB42_, symObjAddr: 0x6DB0, symBinAddr: 0x7463C, symSize: 0x180 }
  - { offset: 0x857CB, size: 0x8, addend: 0x0, symName: __RNvXs_NtNtCse1nGBsou5OW_5alloc3vec21spec_from_iter_nestedINtB6_3VecNtCs3cP53eQoTwO_11proc_macro211TokenStreamEINtB4_18SpecFromIterNestedB13_INtNtNtNtCsfvfooZQ3Axs_4core4iter8adapters3map3MapINtNtNtB2n_5slice4iter4IterNtNtNtCs1edtEUeLQ4Q_12serde_derive9internals3ast5FieldENCNvNtB3z_3ser27wrap_serialize_variant_withs_0EE9from_iterB3z_, symObjAddr: 0x6F30, symBinAddr: 0x747BC, symSize: 0x168 }
  - { offset: 0x858A1, size: 0x8, addend: 0x0, symName: __RNvXs_NtNtCse1nGBsou5OW_5alloc3vec21spec_from_iter_nestedINtB6_3VecNtCs3cP53eQoTwO_11proc_macro25IdentEINtB4_18SpecFromIterNestedB13_INtNtNtNtCsfvfooZQ3Axs_4core4iter8adapters3map3MapINtNtNtB2g_3ops5range5RangejENCNCNvNtCs1edtEUeLQ4Q_12serde_derive7pretend21pretend_variants_used00EE9from_iterB3w_, symObjAddr: 0x7098, symBinAddr: 0x74924, symSize: 0x168 }
  - { offset: 0x85977, size: 0x8, addend: 0x0, symName: __RNvXs_NtNtCse1nGBsou5OW_5alloc3vec21spec_from_iter_nestedINtB6_3VecNtNtCs1edtEUeLQ4Q_12serde_derive2de16FieldWithAliasesEINtB4_18SpecFromIterNestedB13_INtNtNtNtCsfvfooZQ3Axs_4core4iter8adapters3map3MapINtNtNtB2y_5slice4iter4IterNtNtNtB17_9internals3ast7VariantENCNvB15_29deserialize_custom_identifiers_0EE9from_iterB17_, symObjAddr: 0x7200, symBinAddr: 0x74A8C, symSize: 0x168 }
  - { offset: 0x85A4D, size: 0x8, addend: 0x0, symName: __RNvXs_NtNtCse1nGBsou5OW_5alloc3vec21spec_from_iter_nestedINtB6_3VecNtNtCs6IAuOt8vWmF_3syn4expr6MemberEINtB4_18SpecFromIterNestedB13_INtNtNtNtCsfvfooZQ3Axs_4core4iter8adapters3map3MapINtNtNtB2f_3ops5range5RangejENCNvNtCs1edtEUeLQ4Q_12serde_derive3ser35serialize_adjacently_tagged_variants_0EE9from_iterB3t_, symObjAddr: 0x7368, symBinAddr: 0x74BF4, symSize: 0x168 }
  - { offset: 0x85B23, size: 0x8, addend: 0x0, symName: __RNvXs_NtNtCse1nGBsou5OW_5alloc3vec21spec_from_iter_nestedINtB6_3VecNtNtCs6IAuOt8vWmF_3syn4expr6MemberEINtB4_18SpecFromIterNestedB13_INtNtNtNtCsfvfooZQ3Axs_4core4iter8adapters3map3MapINtNtNtB2f_5slice4iter4IterNtNtNtCs1edtEUeLQ4Q_12serde_derive9internals3ast5FieldENCNvNtB3r_3ser35serialize_adjacently_tagged_variants0_0EE9from_iterB3r_, symObjAddr: 0x74D0, symBinAddr: 0x74D5C, symSize: 0x168 }
  - { offset: 0x85BF9, size: 0x8, addend: 0x0, symName: __RNvXs_NtNtCse1nGBsou5OW_5alloc3vec21spec_from_iter_nestedINtB6_3VecRNtCs3cP53eQoTwO_11proc_macro25IdentEINtB4_18SpecFromIterNestedB13_INtNtNtNtCsfvfooZQ3Axs_4core4iter8adapters3map3MapINtNtNtB2h_5slice4iter4IterNtNtCs1edtEUeLQ4Q_12serde_derive2de16FieldWithAliasesENCNvB3p_32deserialize_generated_identifier0EE9from_iterB3r_, symObjAddr: 0x7638, symBinAddr: 0x74EC4, symSize: 0x164 }
  - { offset: 0x85CCF, size: 0x8, addend: 0x0, symName: __RNvXs_NtNtCse1nGBsou5OW_5alloc3vec21spec_from_iter_nestedINtB6_3VecRNtNtCs6IAuOt8vWmF_3syn2ty4TypeEINtB4_18SpecFromIterNestedB13_INtNtNtNtCsfvfooZQ3Axs_4core4iter8adapters3map3MapINtNtNtB2c_5slice4iter4IterNtNtNtCs1edtEUeLQ4Q_12serde_derive9internals3ast5FieldENCNvNtB3o_3ser27wrap_serialize_variant_with0EE9from_iterB3o_, symObjAddr: 0x779C, symBinAddr: 0x75028, symSize: 0x164 }
  - { offset: 0x85DA5, size: 0x8, addend: 0x0, symName: __RNvXs_NtNtCse1nGBsou5OW_5alloc3vec21spec_from_iter_nestedINtB6_3VecRNtNtCs6IAuOt8vWmF_3syn4expr6MemberEINtB4_18SpecFromIterNestedB13_INtNtNtNtCsfvfooZQ3Axs_4core4iter8adapters3map3MapINtNtNtB2g_5slice4iter4IterNtNtNtCs1edtEUeLQ4Q_12serde_derive9internals3ast5FieldENCNvNtB3s_3ser37serialize_struct_variant_with_flattens0_0EE9from_iterB3s_, symObjAddr: 0x7900, symBinAddr: 0x7518C, symSize: 0x164 }
  - { offset: 0x85E7B, size: 0x8, addend: 0x0, symName: __RNvXs_NtNtCse1nGBsou5OW_5alloc3vec21spec_from_iter_nestedINtB6_3VecRNtNtCs6IAuOt8vWmF_3syn4expr6MemberEINtB4_18SpecFromIterNestedB13_INtNtNtNtCsfvfooZQ3Axs_4core4iter8adapters3map3MapINtNtNtB2g_5slice4iter4IterNtNtNtCs1edtEUeLQ4Q_12serde_derive9internals3ast5FieldENCNvNtB3s_7pretend33pretend_fields_used_struct_packed0EE9from_iterB3s_, symObjAddr: 0x7A64, symBinAddr: 0x752F0, symSize: 0x164 }
  - { offset: 0x85F51, size: 0x8, addend: 0x0, symName: __RNvXs_NtNtCse1nGBsou5OW_5alloc3vec21spec_from_iter_nestedINtB6_3VecTRNtNtNtCs1edtEUeLQ4Q_12serde_derive9internals3ast5FieldNtCs3cP53eQoTwO_11proc_macro25IdentEEINtB4_18SpecFromIterNestedB13_INtNtNtNtCsfvfooZQ3Axs_4core4iter8adapters3map3MapINtNtB37_9enumerate9EnumerateINtNtNtB3b_5slice4iter4IterB15_EENCNvNtB1b_2de15deserialize_map0EE9from_iterB1b_, symObjAddr: 0x7BC8, symBinAddr: 0x75454, symSize: 0x16C }
  - { offset: 0x86028, size: 0x8, addend: 0x0, symName: __RNvXs_NtNtCse1nGBsou5OW_5alloc3vec21spec_from_iter_nestedINtB6_3VechEINtB4_18SpecFromIterNestedhINtNtNtNtCsfvfooZQ3Axs_4core4iter8adapters3map3MapINtNtNtB1F_5slice4iter4IterhENCNvNtB8_3str13replace_ascii0EE9from_iterCs1edtEUeLQ4Q_12serde_derive, symObjAddr: 0x7D34, symBinAddr: 0x755C0, symSize: 0x168 }
  - { offset: 0x86106, size: 0x8, addend: 0x0, symName: __RNvXs6_NtCse1nGBsou5OW_5alloc3vecINtB5_3VecNtCs3cP53eQoTwO_11proc_macro211TokenStreamENtNtNtCsfvfooZQ3Axs_4core3ops5deref5Deref5derefCs1edtEUeLQ4Q_12serde_derive, symObjAddr: 0x6828, symBinAddr: 0x740B4, symSize: 0x24 }
  - { offset: 0x86146, size: 0x8, addend: 0x0, symName: __RNvXs6_NtCse1nGBsou5OW_5alloc3vecINtB5_3VecNtCs3cP53eQoTwO_11proc_macro25IdentENtNtNtCsfvfooZQ3Axs_4core3ops5deref5Deref5derefCs1edtEUeLQ4Q_12serde_derive, symObjAddr: 0x684C, symBinAddr: 0x740D8, symSize: 0x24 }
  - { offset: 0x86186, size: 0x8, addend: 0x0, symName: __RNvXs6_NtCse1nGBsou5OW_5alloc3vecINtB5_3VecNtNtCs1edtEUeLQ4Q_12serde_derive2de16FieldWithAliasesENtNtNtCsfvfooZQ3Axs_4core3ops5deref5Deref5derefBJ_, symObjAddr: 0x6870, symBinAddr: 0x740FC, symSize: 0x24 }
  - { offset: 0x861C6, size: 0x8, addend: 0x0, symName: __RNvXs6_NtCse1nGBsou5OW_5alloc3vecINtB5_3VecNtNtCs6IAuOt8vWmF_3syn4expr6MemberENtNtNtCsfvfooZQ3Axs_4core3ops5deref5Deref5derefCs1edtEUeLQ4Q_12serde_derive, symObjAddr: 0x6894, symBinAddr: 0x74120, symSize: 0x24 }
  - { offset: 0x86206, size: 0x8, addend: 0x0, symName: __RNvXs6_NtCse1nGBsou5OW_5alloc3vecINtB5_3VecNtNtNtCs1edtEUeLQ4Q_12serde_derive9internals3ast5FieldENtNtNtCsfvfooZQ3Axs_4core3ops5deref5Deref5derefBL_, symObjAddr: 0x68B8, symBinAddr: 0x74144, symSize: 0x24 }
  - { offset: 0x86246, size: 0x8, addend: 0x0, symName: __RNvXs6_NtCse1nGBsou5OW_5alloc3vecINtB5_3VecNtNtNtCs1edtEUeLQ4Q_12serde_derive9internals3ast7VariantENtNtNtCsfvfooZQ3Axs_4core3ops5deref5Deref5derefBL_, symObjAddr: 0x68DC, symBinAddr: 0x74168, symSize: 0x24 }
  - { offset: 0x86286, size: 0x8, addend: 0x0, symName: __RNvXs6_NtCse1nGBsou5OW_5alloc3vecINtB5_3VecRNtCs3cP53eQoTwO_11proc_macro25IdentENtNtNtCsfvfooZQ3Axs_4core3ops5deref5Deref5derefCs1edtEUeLQ4Q_12serde_derive, symObjAddr: 0x6900, symBinAddr: 0x7418C, symSize: 0x24 }
  - { offset: 0x862C6, size: 0x8, addend: 0x0, symName: __RNvXs6_NtCse1nGBsou5OW_5alloc3vecINtB5_3VecRNtNtCs6IAuOt8vWmF_3syn4expr6MemberENtNtNtCsfvfooZQ3Axs_4core3ops5deref5Deref5derefCs1edtEUeLQ4Q_12serde_derive, symObjAddr: 0x6924, symBinAddr: 0x741B0, symSize: 0x24 }
  - { offset: 0x86306, size: 0x8, addend: 0x0, symName: __RNvXs6_NtCse1nGBsou5OW_5alloc3vecINtB5_3VecTRNtNtNtCs1edtEUeLQ4Q_12serde_derive9internals3ast5FieldNtCs3cP53eQoTwO_11proc_macro25IdentEENtNtNtCsfvfooZQ3Axs_4core3ops5deref5Deref5derefBN_, symObjAddr: 0x6948, symBinAddr: 0x741D4, symSize: 0x24 }
  - { offset: 0x8649C, size: 0x8, addend: 0x0, symName: __RNvXs7_NtCse1nGBsou5OW_5alloc3vecINtB5_3VecTNtNtCs6IAuOt8vWmF_3syn2ty4TypeNtNtBK_5token5CommaEENtNtNtCsfvfooZQ3Axs_4core3ops5deref8DerefMut9deref_mutCs1edtEUeLQ4Q_12serde_derive, symObjAddr: 0x696C, symBinAddr: 0x741F8, symSize: 0x24 }
  - { offset: 0x864DC, size: 0x8, addend: 0x0, symName: __RNvXs7_NtCse1nGBsou5OW_5alloc3vecINtB5_3VecTNtNtCs6IAuOt8vWmF_3syn2ty9BareFnArgNtNtBK_5token5CommaEENtNtNtCsfvfooZQ3Axs_4core3ops5deref8DerefMut9deref_mutCs1edtEUeLQ4Q_12serde_derive, symObjAddr: 0x6990, symBinAddr: 0x7421C, symSize: 0x24 }
  - { offset: 0x8651C, size: 0x8, addend: 0x0, symName: __RNvXs7_NtCse1nGBsou5OW_5alloc3vecINtB5_3VecTNtNtCs6IAuOt8vWmF_3syn4data7VariantNtNtBK_5token5CommaEENtNtNtCsfvfooZQ3Axs_4core3ops5deref8DerefMut9deref_mutCs1edtEUeLQ4Q_12serde_derive, symObjAddr: 0x69B4, symBinAddr: 0x74240, symSize: 0x24 }
  - { offset: 0x8655C, size: 0x8, addend: 0x0, symName: __RNvXs7_NtCse1nGBsou5OW_5alloc3vecINtB5_3VecTNtNtCs6IAuOt8vWmF_3syn4expr4ExprNtNtBK_5token5CommaEENtNtNtCsfvfooZQ3Axs_4core3ops5deref8DerefMut9deref_mutCs1edtEUeLQ4Q_12serde_derive, symObjAddr: 0x69D8, symBinAddr: 0x74264, symSize: 0x24 }
  - { offset: 0x8659C, size: 0x8, addend: 0x0, symName: __RNvXs7_NtCse1nGBsou5OW_5alloc3vecINtB5_3VecTNtNtCs6IAuOt8vWmF_3syn4path15GenericArgumentNtNtBK_5token5CommaEENtNtNtCsfvfooZQ3Axs_4core3ops5deref8DerefMut9deref_mutCs1edtEUeLQ4Q_12serde_derive, symObjAddr: 0x69FC, symBinAddr: 0x74288, symSize: 0x24 }
  - { offset: 0x865DC, size: 0x8, addend: 0x0, symName: __RNvXs7_NtCse1nGBsou5OW_5alloc3vecINtB5_3VecTNtNtCs6IAuOt8vWmF_3syn8generics14TypeParamBoundNtNtBK_5token4PlusEENtNtNtCsfvfooZQ3Axs_4core3ops5deref8DerefMut9deref_mutCs1edtEUeLQ4Q_12serde_derive, symObjAddr: 0x6A20, symBinAddr: 0x742AC, symSize: 0x24 }
  - { offset: 0x8661C, size: 0x8, addend: 0x0, symName: __RNvXs7_NtCse1nGBsou5OW_5alloc3vecINtB5_3VecTNtNtCs6IAuOt8vWmF_3syn8generics14WherePredicateNtNtBK_5token5CommaEENtNtNtCsfvfooZQ3Axs_4core3ops5deref8DerefMut9deref_mutCs1edtEUeLQ4Q_12serde_derive, symObjAddr: 0x6A44, symBinAddr: 0x742D0, symSize: 0x24 }
  - { offset: 0x866C2, size: 0x8, addend: 0x0, symName: __RNvXs9_NtCse1nGBsou5OW_5alloc3vecINtB5_3VecNtNtCs6IAuOt8vWmF_3syn8generics14WherePredicateENtNtCsfvfooZQ3Axs_4core5clone5Clone5cloneCs1edtEUeLQ4Q_12serde_derive, symObjAddr: 0x6A68, symBinAddr: 0x742F4, symSize: 0x88 }
  - { offset: 0x868BF, size: 0x8, addend: 0x0, symName: __RNvXsb_NtCse1nGBsou5OW_5alloc3vecINtB5_3VecNtNtCs6IAuOt8vWmF_3syn8generics14WherePredicateEINtNtNtCsfvfooZQ3Axs_4core3ops5index5IndexNtNtB1w_5range9RangeFullE5indexCs1edtEUeLQ4Q_12serde_derive, symObjAddr: 0x7E9C, symBinAddr: 0x75728, symSize: 0x78 }
  - { offset: 0x86A41, size: 0x8, addend: 0x0, symName: __RNvXsb_NtCse1nGBsou5OW_5alloc3vecINtB5_3VecNtNtNtCs1edtEUeLQ4Q_12serde_derive9internals3ast5FieldEINtNtNtCsfvfooZQ3Axs_4core3ops5index5IndexjE5indexBL_, symObjAddr: 0x7F14, symBinAddr: 0x757A0, symSize: 0x84 }
  - { offset: 0x86BC3, size: 0x8, addend: 0x0, symName: __RNvXsb_NtCse1nGBsou5OW_5alloc3vecINtB5_3VecNtNtNtCs1edtEUeLQ4Q_12serde_derive9internals3ast7VariantEINtNtNtCsfvfooZQ3Axs_4core3ops5index5IndexINtNtB1F_5range7RangeTojEE5indexBL_, symObjAddr: 0x7F98, symBinAddr: 0x75824, symSize: 0xDC }
  - { offset: 0x86DD4, size: 0x8, addend: 0x0, symName: __RNvXsb_NtCse1nGBsou5OW_5alloc3vecINtB5_3VecTNtNtCs6IAuOt8vWmF_3syn4path15GenericArgumentNtNtBK_5token5CommaEEINtNtNtCsfvfooZQ3Axs_4core3ops5index5IndexjE5indexCs1edtEUeLQ4Q_12serde_derive, symObjAddr: 0x8074, symBinAddr: 0x75900, symSize: 0x84 }
  - { offset: 0x86F5C, size: 0x8, addend: 0x0, symName: __RNvXse_NtCse1nGBsou5OW_5alloc3vecINtB5_3VecNtNtCs6IAuOt8vWmF_3syn3lit6LitStrENtNtNtNtCsfvfooZQ3Axs_4core4iter6traits7collect12IntoIterator9into_iterCs1edtEUeLQ4Q_12serde_derive, symObjAddr: 0x80F8, symBinAddr: 0x75984, symSize: 0xDC }
  - { offset: 0x871EE, size: 0x8, addend: 0x0, symName: __RNvXse_NtCse1nGBsou5OW_5alloc3vecINtB5_3VecNtNtCs6IAuOt8vWmF_3syn4path11PathSegmentENtNtNtNtCsfvfooZQ3Axs_4core4iter6traits7collect12IntoIterator9into_iterCs1edtEUeLQ4Q_12serde_derive, symObjAddr: 0x81D4, symBinAddr: 0x75A60, symSize: 0xE4 }
  - { offset: 0x87480, size: 0x8, addend: 0x0, symName: __RNvXse_NtCse1nGBsou5OW_5alloc3vecINtB5_3VecNtNtCs6IAuOt8vWmF_3syn5error5ErrorENtNtNtNtCsfvfooZQ3Axs_4core4iter6traits7collect12IntoIterator9into_iterCs1edtEUeLQ4Q_12serde_derive, symObjAddr: 0x82B8, symBinAddr: 0x75B44, symSize: 0xE4 }
  - { offset: 0x87712, size: 0x8, addend: 0x0, symName: __RNvXse_NtCse1nGBsou5OW_5alloc3vecINtB5_3VecNtNtCs6IAuOt8vWmF_3syn8generics12GenericParamENtNtNtNtCsfvfooZQ3Axs_4core4iter6traits7collect12IntoIterator9into_iterCs1edtEUeLQ4Q_12serde_derive, symObjAddr: 0x839C, symBinAddr: 0x75C28, symSize: 0xE4 }
  - { offset: 0x879A4, size: 0x8, addend: 0x0, symName: __RNvXse_NtCse1nGBsou5OW_5alloc3vecINtB5_3VecNtNtCs6IAuOt8vWmF_3syn8generics14WherePredicateENtNtNtNtCsfvfooZQ3Axs_4core4iter6traits7collect12IntoIterator9into_iterCs1edtEUeLQ4Q_12serde_derive, symObjAddr: 0x8480, symBinAddr: 0x75D0C, symSize: 0xE4 }
  - { offset: 0x87C36, size: 0x8, addend: 0x0, symName: __RNvXse_NtCse1nGBsou5OW_5alloc3vecINtB5_3VecNtNtNtCs1edtEUeLQ4Q_12serde_derive9internals4name4NameENtNtNtNtCsfvfooZQ3Axs_4core4iter6traits7collect12IntoIterator9into_iterBL_, symObjAddr: 0x8564, symBinAddr: 0x75DF0, symSize: 0xDC }
  - { offset: 0x87EC8, size: 0x8, addend: 0x0, symName: __RNvXse_NtCse1nGBsou5OW_5alloc3vecINtB5_3VecRNtNtCs6IAuOt8vWmF_3syn2ty8TypePathENtNtNtNtCsfvfooZQ3Axs_4core4iter6traits7collect12IntoIterator9into_iterCs1edtEUeLQ4Q_12serde_derive, symObjAddr: 0x8640, symBinAddr: 0x75ECC, symSize: 0xDC }
  - { offset: 0x8815A, size: 0x8, addend: 0x0, symName: __RNvXse_NtCse1nGBsou5OW_5alloc3vecINtB5_3VecTNtNtCs6IAuOt8vWmF_3syn8generics12GenericParamNtNtBK_5token5CommaEENtNtNtNtCsfvfooZQ3Axs_4core4iter6traits7collect12IntoIterator9into_iterCs1edtEUeLQ4Q_12serde_derive, symObjAddr: 0x871C, symBinAddr: 0x75FA8, symSize: 0xE4 }
  - { offset: 0x883EC, size: 0x8, addend: 0x0, symName: __RNvXse_NtCse1nGBsou5OW_5alloc3vecINtB5_3VecTNtNtCs6IAuOt8vWmF_3syn8generics14WherePredicateNtNtBK_5token5CommaEENtNtNtNtCsfvfooZQ3Axs_4core4iter6traits7collect12IntoIterator9into_iterCs1edtEUeLQ4Q_12serde_derive, symObjAddr: 0x8800, symBinAddr: 0x7608C, symSize: 0xE4 }
  - { offset: 0x886DF, size: 0x8, addend: 0x0, symName: __RNvXsf_NtCse1nGBsou5OW_5alloc3vecRINtB5_3VecNtNtNtCs1edtEUeLQ4Q_12serde_derive9internals3ast5FieldENtNtNtNtCsfvfooZQ3Axs_4core4iter6traits7collect12IntoIterator9into_iterBM_, symObjAddr: 0x88E4, symBinAddr: 0x76170, symSize: 0xA4 }
  - { offset: 0x8893B, size: 0x8, addend: 0x0, symName: __RNvXsf_NtCse1nGBsou5OW_5alloc3vecRINtB5_3VecNtNtNtCs1edtEUeLQ4Q_12serde_derive9internals3ast7VariantENtNtNtNtCsfvfooZQ3Axs_4core4iter6traits7collect12IntoIterator9into_iterBM_, symObjAddr: 0x8988, symBinAddr: 0x76214, symSize: 0xA4 }
  - { offset: 0x88B9D, size: 0x8, addend: 0x0, symName: __RNvXsg_NtCse1nGBsou5OW_5alloc3vecQINtB5_3VecNtNtNtCs1edtEUeLQ4Q_12serde_derive9internals3ast5FieldENtNtNtNtCsfvfooZQ3Axs_4core4iter6traits7collect12IntoIterator9into_iterBM_, symObjAddr: 0x8A2C, symBinAddr: 0x762B8, symSize: 0xA4 }
  - { offset: 0x88DCB, size: 0x8, addend: 0x0, symName: __RNvXsg_NtCse1nGBsou5OW_5alloc3vecQINtB5_3VecNtNtNtCs1edtEUeLQ4Q_12serde_derive9internals3ast7VariantENtNtNtNtCsfvfooZQ3Axs_4core4iter6traits7collect12IntoIterator9into_iterBM_, symObjAddr: 0x8AD0, symBinAddr: 0x7635C, symSize: 0xA4 }
  - { offset: 0x88FFF, size: 0x8, addend: 0x0, symName: __RNvXsn_NtCse1nGBsou5OW_5alloc3vecINtB5_3VecIBw_NtNtCs6IAuOt8vWmF_3syn8generics14WherePredicateEENtNtNtCsfvfooZQ3Axs_4core3ops4drop4Drop4dropCs1edtEUeLQ4Q_12serde_derive, symObjAddr: 0x8B74, symBinAddr: 0x76400, symSize: 0x38 }
  - { offset: 0x890AF, size: 0x8, addend: 0x0, symName: __RNvXsn_NtCse1nGBsou5OW_5alloc3vecINtB5_3VecNtCs3cP53eQoTwO_11proc_macro211TokenStreamENtNtNtCsfvfooZQ3Axs_4core3ops4drop4Drop4dropCs1edtEUeLQ4Q_12serde_derive, symObjAddr: 0x8BAC, symBinAddr: 0x76438, symSize: 0x38 }
  - { offset: 0x8915F, size: 0x8, addend: 0x0, symName: __RNvXsn_NtCse1nGBsou5OW_5alloc3vecINtB5_3VecNtCs3cP53eQoTwO_11proc_macro25IdentENtNtNtCsfvfooZQ3Axs_4core3ops4drop4Drop4dropCs1edtEUeLQ4Q_12serde_derive, symObjAddr: 0x8BE4, symBinAddr: 0x76470, symSize: 0x38 }
  - { offset: 0x8920F, size: 0x8, addend: 0x0, symName: __RNvXsn_NtCse1nGBsou5OW_5alloc3vecINtB5_3VecNtNtCs1edtEUeLQ4Q_12serde_derive2de16FieldWithAliasesENtNtNtCsfvfooZQ3Axs_4core3ops4drop4Drop4dropBJ_, symObjAddr: 0x8C1C, symBinAddr: 0x764A8, symSize: 0x38 }
  - { offset: 0x892BF, size: 0x8, addend: 0x0, symName: __RNvXsn_NtCse1nGBsou5OW_5alloc3vecINtB5_3VecNtNtCs6IAuOt8vWmF_3syn3lit6LitStrENtNtNtCsfvfooZQ3Axs_4core3ops4drop4Drop4dropCs1edtEUeLQ4Q_12serde_derive, symObjAddr: 0x8C54, symBinAddr: 0x764E0, symSize: 0x38 }
  - { offset: 0x8936F, size: 0x8, addend: 0x0, symName: __RNvXsn_NtCse1nGBsou5OW_5alloc3vecINtB5_3VecNtNtCs6IAuOt8vWmF_3syn4expr6MemberENtNtNtCsfvfooZQ3Axs_4core3ops4drop4Drop4dropCs1edtEUeLQ4Q_12serde_derive, symObjAddr: 0x8C8C, symBinAddr: 0x76518, symSize: 0x38 }
  - { offset: 0x8941F, size: 0x8, addend: 0x0, symName: __RNvXsn_NtCse1nGBsou5OW_5alloc3vecINtB5_3VecNtNtCs6IAuOt8vWmF_3syn5error5ErrorENtNtNtCsfvfooZQ3Axs_4core3ops4drop4Drop4dropCs1edtEUeLQ4Q_12serde_derive, symObjAddr: 0x8CC4, symBinAddr: 0x76550, symSize: 0x38 }
  - { offset: 0x894CF, size: 0x8, addend: 0x0, symName: __RNvXsn_NtCse1nGBsou5OW_5alloc3vecINtB5_3VecNtNtCs6IAuOt8vWmF_3syn8generics12GenericParamENtNtNtCsfvfooZQ3Axs_4core3ops4drop4Drop4dropCs1edtEUeLQ4Q_12serde_derive, symObjAddr: 0x8CFC, symBinAddr: 0x76588, symSize: 0x38 }
  - { offset: 0x8957F, size: 0x8, addend: 0x0, symName: __RNvXsn_NtCse1nGBsou5OW_5alloc3vecINtB5_3VecNtNtCs6IAuOt8vWmF_3syn8generics14WherePredicateENtNtNtCsfvfooZQ3Axs_4core3ops4drop4Drop4dropCs1edtEUeLQ4Q_12serde_derive, symObjAddr: 0x8D34, symBinAddr: 0x765C0, symSize: 0x38 }
  - { offset: 0x8962F, size: 0x8, addend: 0x0, symName: __RNvXsn_NtCse1nGBsou5OW_5alloc3vecINtB5_3VecNtNtNtCs1edtEUeLQ4Q_12serde_derive9internals3ast5FieldENtNtNtCsfvfooZQ3Axs_4core3ops4drop4Drop4dropBL_, symObjAddr: 0x8D6C, symBinAddr: 0x765F8, symSize: 0x38 }
  - { offset: 0x896DF, size: 0x8, addend: 0x0, symName: __RNvXsn_NtCse1nGBsou5OW_5alloc3vecINtB5_3VecNtNtNtCs1edtEUeLQ4Q_12serde_derive9internals3ast7VariantENtNtNtCsfvfooZQ3Axs_4core3ops4drop4Drop4dropBL_, symObjAddr: 0x8DA4, symBinAddr: 0x76630, symSize: 0x38 }
  - { offset: 0x8978F, size: 0x8, addend: 0x0, symName: __RNvXsn_NtCse1nGBsou5OW_5alloc3vecINtB5_3VecNtNtNtCs1edtEUeLQ4Q_12serde_derive9internals4name4NameENtNtNtCsfvfooZQ3Axs_4core3ops4drop4Drop4dropBL_, symObjAddr: 0x8DDC, symBinAddr: 0x76668, symSize: 0x38 }
  - { offset: 0x8983F, size: 0x8, addend: 0x0, symName: __RNvXsn_NtCse1nGBsou5OW_5alloc3vecINtB5_3VecRNtCs3cP53eQoTwO_11proc_macro25IdentENtNtNtCsfvfooZQ3Axs_4core3ops4drop4Drop4dropCs1edtEUeLQ4Q_12serde_derive, symObjAddr: 0x8E14, symBinAddr: 0x766A0, symSize: 0x24 }
  - { offset: 0x898EF, size: 0x8, addend: 0x0, symName: __RNvXsn_NtCse1nGBsou5OW_5alloc3vecINtB5_3VecRNtNtCs6IAuOt8vWmF_3syn2ty4TypeENtNtNtCsfvfooZQ3Axs_4core3ops4drop4Drop4dropCs1edtEUeLQ4Q_12serde_derive, symObjAddr: 0x8E38, symBinAddr: 0x766C4, symSize: 0x24 }
  - { offset: 0x8999F, size: 0x8, addend: 0x0, symName: __RNvXsn_NtCse1nGBsou5OW_5alloc3vecINtB5_3VecRNtNtCs6IAuOt8vWmF_3syn2ty8TypePathENtNtNtCsfvfooZQ3Axs_4core3ops4drop4Drop4dropCs1edtEUeLQ4Q_12serde_derive, symObjAddr: 0x8E5C, symBinAddr: 0x766E8, symSize: 0x24 }
  - { offset: 0x89A4F, size: 0x8, addend: 0x0, symName: __RNvXsn_NtCse1nGBsou5OW_5alloc3vecINtB5_3VecRNtNtCs6IAuOt8vWmF_3syn4expr6MemberENtNtNtCsfvfooZQ3Axs_4core3ops4drop4Drop4dropCs1edtEUeLQ4Q_12serde_derive, symObjAddr: 0x8E80, symBinAddr: 0x7670C, symSize: 0x24 }
  - { offset: 0x89AFF, size: 0x8, addend: 0x0, symName: __RNvXsn_NtCse1nGBsou5OW_5alloc3vecINtB5_3VecTRNtNtNtCs1edtEUeLQ4Q_12serde_derive9internals3ast5FieldNtCs3cP53eQoTwO_11proc_macro25IdentEENtNtNtCsfvfooZQ3Axs_4core3ops4drop4Drop4dropBN_, symObjAddr: 0x8EA4, symBinAddr: 0x76730, symSize: 0x38 }
  - { offset: 0x8F53D, size: 0x8, addend: 0x0, symName: __RINvMsi_NtCse1nGBsou5OW_5alloc3vecINtB6_3VecNtCs3cP53eQoTwO_11proc_macro211TokenStreamE14extend_trustedINtNtNtNtCsfvfooZQ3Axs_4core4iter8adapters3map3MapINtNtB1I_9enumerate9EnumerateINtNtNtB1M_5slice4iter4IterNtNtNtCs1edtEUeLQ4Q_12serde_derive9internals3ast7VariantEENCNvNtB3r_3ser14serialize_enum0EEB3r_, symObjAddr: 0x0, symBinAddr: 0x6D88C, symSize: 0x194 }
  - { offset: 0x8F7F6, size: 0x8, addend: 0x0, symName: __RINvMsi_NtCse1nGBsou5OW_5alloc3vecINtB6_3VecNtCs3cP53eQoTwO_11proc_macro211TokenStreamE14extend_trustedINtNtNtNtCsfvfooZQ3Axs_4core4iter8adapters3map3MapINtNtNtB1M_5slice4iter4IterNtNtNtCs1edtEUeLQ4Q_12serde_derive9internals3ast5FieldENCNvNtB2Y_3ser27wrap_serialize_variant_withs_0EEB2Y_, symObjAddr: 0x194, symBinAddr: 0x6DA20, symSize: 0x170 }
  - { offset: 0x8FB75, size: 0x8, addend: 0x0, symName: __RINvMsi_NtCse1nGBsou5OW_5alloc3vecINtB6_3VecNtCs3cP53eQoTwO_11proc_macro211TokenStreamE16extend_desugaredINtNtNtNtCsfvfooZQ3Axs_4core4iter8adapters10filter_map9FilterMapINtNtB1K_6filter6FilterINtNtB1K_9enumerate9EnumerateINtNtNtB1O_5slice4iter4IterNtNtNtCs1edtEUeLQ4Q_12serde_derive9internals3ast7VariantEENCNvNtB44_2de34deserialize_adjacently_tagged_enums0_0ENCB4W_s1_0EEB44_, symObjAddr: 0x304, symBinAddr: 0x6DB90, symSize: 0x1C4 }
  - { offset: 0x8FF25, size: 0x8, addend: 0x0, symName: __RINvMsi_NtCse1nGBsou5OW_5alloc3vecINtB6_3VecNtCs3cP53eQoTwO_11proc_macro211TokenStreamE16extend_desugaredINtNtNtNtCsfvfooZQ3Axs_4core4iter8adapters10filter_map9FilterMapINtNtNtB1O_5slice4iter4IterNtNtNtCs1edtEUeLQ4Q_12serde_derive9internals3ast7VariantENCNvNtB3e_7pretend24pretend_fields_used_enum0EEB3e_, symObjAddr: 0x4C8, symBinAddr: 0x6DD54, symSize: 0x1C4 }
  - { offset: 0x902E2, size: 0x8, addend: 0x0, symName: __RINvMsi_NtCse1nGBsou5OW_5alloc3vecINtB6_3VecNtCs3cP53eQoTwO_11proc_macro211TokenStreamE16extend_desugaredINtNtNtNtCsfvfooZQ3Axs_4core4iter8adapters3map3MapINtNtB1K_6filter6FilterINtNtB1K_9enumerate9EnumerateINtNtNtB1O_5slice4iter4IterNtNtNtCs1edtEUeLQ4Q_12serde_derive9internals3ast5FieldEENCNvNtB3Q_3ser30serialize_tuple_struct_visitor0ENCB4G_s_0EEB3Q_, symObjAddr: 0x68C, symBinAddr: 0x6DF18, symSize: 0x1C4 }
  - { offset: 0x90692, size: 0x8, addend: 0x0, symName: __RINvMsi_NtCse1nGBsou5OW_5alloc3vecINtB6_3VecNtCs3cP53eQoTwO_11proc_macro211TokenStreamE16extend_desugaredINtNtNtNtCsfvfooZQ3Axs_4core4iter8adapters3map3MapINtNtB1K_6filter6FilterINtNtB1K_9enumerate9EnumerateINtNtNtB1O_5slice4iter4IterNtNtNtCs1edtEUeLQ4Q_12serde_derive9internals3ast7VariantEENCNvNtB3Q_2de34deserialize_adjacently_tagged_enum0ENCB4I_s_0EEB3Q_, symObjAddr: 0x850, symBinAddr: 0x6E0DC, symSize: 0x1C4 }
  - { offset: 0x90A42, size: 0x8, addend: 0x0, symName: __RINvMsi_NtCse1nGBsou5OW_5alloc3vecINtB6_3VecNtCs3cP53eQoTwO_11proc_macro211TokenStreamE16extend_desugaredINtNtNtNtCsfvfooZQ3Axs_4core4iter8adapters3map3MapINtNtB1K_6filter6FilterINtNtNtB1O_5slice4iter4IterNtNtNtCs1edtEUeLQ4Q_12serde_derive9internals3ast5FieldENCNvNtB3n_3ser24serialize_struct_visitor0ENCB4c_s_0EEB3n_, symObjAddr: 0xA14, symBinAddr: 0x6E2A0, symSize: 0x1C4 }
  - { offset: 0x90D78, size: 0x8, addend: 0x0, symName: __RINvMsi_NtCse1nGBsou5OW_5alloc3vecINtB6_3VecNtCs3cP53eQoTwO_11proc_macro25IdentE14extend_trustedINtNtNtNtCsfvfooZQ3Axs_4core4iter8adapters3map3MapINtNtNtB1F_3ops5range5RangejENCNCNvNtCs1edtEUeLQ4Q_12serde_derive7pretend21pretend_variants_used00EEB2V_, symObjAddr: 0xBD8, symBinAddr: 0x6E464, symSize: 0x170 }
  - { offset: 0x91056, size: 0x8, addend: 0x0, symName: __RINvMsi_NtCse1nGBsou5OW_5alloc3vecINtB6_3VecNtNtCs1edtEUeLQ4Q_12serde_derive2de16FieldWithAliasesE14extend_trustedINtNtNtNtCsfvfooZQ3Axs_4core4iter8adapters3map3MapINtNtNtB1X_5slice4iter4IterNtNtNtBK_9internals3ast7VariantENCNvBI_29deserialize_custom_identifiers_0EEBK_, symObjAddr: 0xD48, symBinAddr: 0x6E5D4, symSize: 0x170 }
  - { offset: 0x91394, size: 0x8, addend: 0x0, symName: __RINvMsi_NtCse1nGBsou5OW_5alloc3vecINtB6_3VecNtNtCs1edtEUeLQ4Q_12serde_derive2de16FieldWithAliasesE16extend_desugaredINtNtNtNtCsfvfooZQ3Axs_4core4iter8adapters3map3MapINtNtB1V_6filter6FilterINtNtB1V_9enumerate9EnumerateINtNtNtB1Z_5slice4iter4IterNtNtNtBK_9internals3ast5FieldEENCNvBI_18deserialize_struct0ENCB4s_s_0EEBK_, symObjAddr: 0xEB8, symBinAddr: 0x6E744, symSize: 0x1C0 }
  - { offset: 0x9172A, size: 0x8, addend: 0x0, symName: __RINvMsi_NtCse1nGBsou5OW_5alloc3vecINtB6_3VecNtNtCs1edtEUeLQ4Q_12serde_derive2de16FieldWithAliasesE16extend_desugaredINtNtNtNtCsfvfooZQ3Axs_4core4iter8adapters3map3MapINtNtB1V_6filter6FilterINtNtB1V_9enumerate9EnumerateINtNtNtB1Z_5slice4iter4IterNtNtNtBK_9internals3ast7VariantEENCNvBI_25prepare_enum_variant_enum0ENCB4u_s2_0EEBK_, symObjAddr: 0x1078, symBinAddr: 0x6E904, symSize: 0x1C0 }
  - { offset: 0x91A60, size: 0x8, addend: 0x0, symName: __RINvMsi_NtCse1nGBsou5OW_5alloc3vecINtB6_3VecNtNtCs6IAuOt8vWmF_3syn4expr6MemberE14extend_trustedINtNtNtNtCsfvfooZQ3Axs_4core4iter8adapters3map3MapINtNtNtB1E_3ops5range5RangejENCNvNtCs1edtEUeLQ4Q_12serde_derive3ser35serialize_adjacently_tagged_variants_0EEB2S_, symObjAddr: 0x1238, symBinAddr: 0x6EAC4, symSize: 0x170 }
  - { offset: 0x91CFD, size: 0x8, addend: 0x0, symName: __RINvMsi_NtCse1nGBsou5OW_5alloc3vecINtB6_3VecNtNtCs6IAuOt8vWmF_3syn4expr6MemberE14extend_trustedINtNtNtNtCsfvfooZQ3Axs_4core4iter8adapters3map3MapINtNtNtB1E_5slice4iter4IterNtNtNtCs1edtEUeLQ4Q_12serde_derive9internals3ast5FieldENCNvNtB2Q_3ser35serialize_adjacently_tagged_variants0_0EEB2Q_, symObjAddr: 0x13A8, symBinAddr: 0x6EC34, symSize: 0x170 }
  - { offset: 0x91FCE, size: 0x8, addend: 0x0, symName: __RINvMsi_NtCse1nGBsou5OW_5alloc3vecINtB6_3VecNtNtCs6IAuOt8vWmF_3syn8generics12GenericParamE14extend_trustedINtNtCsfvfooZQ3Axs_4core6option8IntoIterBG_EECs1edtEUeLQ4Q_12serde_derive, symObjAddr: 0x1518, symBinAddr: 0x6EDA4, symSize: 0x1A0 }
  - { offset: 0x92279, size: 0x8, addend: 0x0, symName: __RINvMsi_NtCse1nGBsou5OW_5alloc3vecINtB6_3VecNtNtCs6IAuOt8vWmF_3syn8generics12GenericParamE14extend_trustedINtNtNtNtCsfvfooZQ3Axs_4core4iter8adapters3map3MapINtNtB6_9into_iter8IntoIterTBG_NtNtBK_5token5CommaEENCNvXs8_NtBK_10punctuatedINtB3s_10PunctuatedBG_B2Z_ENtNtNtB1N_6traits7collect12IntoIterator9into_iter0EECs1edtEUeLQ4Q_12serde_derive, symObjAddr: 0x16B8, symBinAddr: 0x6EF44, symSize: 0x188 }
  - { offset: 0x9254B, size: 0x8, addend: 0x0, symName: __RINvMsi_NtCse1nGBsou5OW_5alloc3vecINtB6_3VecNtNtCs6IAuOt8vWmF_3syn8generics14WherePredicateE14extend_trustedINtNtCsfvfooZQ3Axs_4core6option8IntoIterBG_EECs1edtEUeLQ4Q_12serde_derive, symObjAddr: 0x1840, symBinAddr: 0x6F0CC, symSize: 0x1A0 }
  - { offset: 0x927F7, size: 0x8, addend: 0x0, symName: __RINvMsi_NtCse1nGBsou5OW_5alloc3vecINtB6_3VecNtNtCs6IAuOt8vWmF_3syn8generics14WherePredicateE14extend_trustedINtNtNtNtCsfvfooZQ3Axs_4core4iter8adapters3map3MapINtNtB6_9into_iter8IntoIterTBG_NtNtBK_5token5CommaEENCNvXs8_NtBK_10punctuatedINtB3u_10PunctuatedBG_B31_ENtNtNtB1P_6traits7collect12IntoIterator9into_iter0EECs1edtEUeLQ4Q_12serde_derive, symObjAddr: 0x19E0, symBinAddr: 0x6F26C, symSize: 0x188 }
  - { offset: 0x92B36, size: 0x8, addend: 0x0, symName: __RINvMsi_NtCse1nGBsou5OW_5alloc3vecINtB6_3VecNtNtCs6IAuOt8vWmF_3syn8generics14WherePredicateE16extend_desugaredINtNtBK_10punctuated8IntoIterBG_EECs1edtEUeLQ4Q_12serde_derive, symObjAddr: 0x1B68, symBinAddr: 0x6F3F4, symSize: 0x1FC }
  - { offset: 0x92FBE, size: 0x8, addend: 0x0, symName: __RINvMsi_NtCse1nGBsou5OW_5alloc3vecINtB6_3VecNtNtNtCs1edtEUeLQ4Q_12serde_derive9internals3ast5FieldE16extend_desugaredINtNtNtNtCsfvfooZQ3Axs_4core4iter8adapters3map3MapINtNtB1W_9enumerate9EnumerateINtNtCs6IAuOt8vWmF_3syn10punctuated4IterNtNtB3d_4data5FieldEENCNvBI_15fields_from_ast0EEBM_, symObjAddr: 0x1D64, symBinAddr: 0x6F5F0, symSize: 0x200 }
  - { offset: 0x933B6, size: 0x8, addend: 0x0, symName: __RINvMsi_NtCse1nGBsou5OW_5alloc3vecINtB6_3VecNtNtNtCs1edtEUeLQ4Q_12serde_derive9internals3ast7VariantE16extend_desugaredINtNtNtNtCsfvfooZQ3Axs_4core4iter8adapters3map3MapINtNtCs6IAuOt8vWmF_3syn10punctuated4IterNtNtB2M_4data7VariantENCNvBI_13enum_from_ast0EEBM_, symObjAddr: 0x1F64, symBinAddr: 0x6F7F0, symSize: 0x1FC }
  - { offset: 0x936F9, size: 0x8, addend: 0x0, symName: __RINvMsi_NtCse1nGBsou5OW_5alloc3vecINtB6_3VecRNtCs3cP53eQoTwO_11proc_macro25IdentE14extend_trustedINtNtNtNtCsfvfooZQ3Axs_4core4iter8adapters3map3MapINtNtNtB1G_5slice4iter4IterNtNtCs1edtEUeLQ4Q_12serde_derive2de16FieldWithAliasesENCNvB2O_32deserialize_generated_identifier0EEB2Q_, symObjAddr: 0x2160, symBinAddr: 0x6F9EC, symSize: 0x170 }
  - { offset: 0x939CA, size: 0x8, addend: 0x0, symName: __RINvMsi_NtCse1nGBsou5OW_5alloc3vecINtB6_3VecRNtNtCs6IAuOt8vWmF_3syn2ty4TypeE14extend_trustedINtNtNtNtCsfvfooZQ3Axs_4core4iter8adapters3map3MapINtNtNtB1B_5slice4iter4IterNtNtNtCs1edtEUeLQ4Q_12serde_derive9internals3ast5FieldENCNvNtB2N_3ser27wrap_serialize_variant_with0EEB2N_, symObjAddr: 0x22D0, symBinAddr: 0x6FB5C, symSize: 0x170 }
  - { offset: 0x93CA8, size: 0x8, addend: 0x0, symName: __RINvMsi_NtCse1nGBsou5OW_5alloc3vecINtB6_3VecRNtNtCs6IAuOt8vWmF_3syn4expr6MemberE14extend_trustedINtNtNtNtCsfvfooZQ3Axs_4core4iter8adapters3map3MapINtNtNtB1F_5slice4iter4IterNtNtNtCs1edtEUeLQ4Q_12serde_derive9internals3ast5FieldENCNvNtB2R_3ser37serialize_struct_variant_with_flattens0_0EEB2R_, symObjAddr: 0x2440, symBinAddr: 0x6FCCC, symSize: 0x170 }
  - { offset: 0x93F45, size: 0x8, addend: 0x0, symName: __RINvMsi_NtCse1nGBsou5OW_5alloc3vecINtB6_3VecRNtNtCs6IAuOt8vWmF_3syn4expr6MemberE14extend_trustedINtNtNtNtCsfvfooZQ3Axs_4core4iter8adapters3map3MapINtNtNtB1F_5slice4iter4IterNtNtNtCs1edtEUeLQ4Q_12serde_derive9internals3ast5FieldENCNvNtB2R_7pretend33pretend_fields_used_struct_packed0EEB2R_, symObjAddr: 0x25B0, symBinAddr: 0x6FE3C, symSize: 0x170 }
  - { offset: 0x94234, size: 0x8, addend: 0x0, symName: __RINvMsi_NtCse1nGBsou5OW_5alloc3vecINtB6_3VecTRNtNtNtCs1edtEUeLQ4Q_12serde_derive9internals3ast5FieldNtCs3cP53eQoTwO_11proc_macro25IdentEE14extend_trustedINtNtNtNtCsfvfooZQ3Axs_4core4iter8adapters3map3MapINtNtB2w_9enumerate9EnumerateINtNtNtB2A_5slice4iter4IterBI_EENCNvNtBO_2de15deserialize_map0EEBO_, symObjAddr: 0x2720, symBinAddr: 0x6FFAC, symSize: 0x17C }
  - { offset: 0x94506, size: 0x8, addend: 0x0, symName: __RINvMsi_NtCse1nGBsou5OW_5alloc3vecINtB6_3VechE14extend_trustedINtNtNtNtCsfvfooZQ3Axs_4core4iter8adapters3map3MapINtNtNtB17_5slice4iter4IterhENCNvNtB8_3str13replace_ascii0EECs1edtEUeLQ4Q_12serde_derive, symObjAddr: 0x289C, symBinAddr: 0x70128, symSize: 0x17C }
  - { offset: 0x947B8, size: 0x8, addend: 0x0, symName: __RNvMNtCse1nGBsou5OW_5alloc3vecINtB2_3VecIBt_NtNtCs6IAuOt8vWmF_3syn8generics14WherePredicateEE3newCs1edtEUeLQ4Q_12serde_derive, symObjAddr: 0x3454, symBinAddr: 0x70CE0, symSize: 0x14 }
  - { offset: 0x947D5, size: 0x8, addend: 0x0, symName: __RNvMNtCse1nGBsou5OW_5alloc3vecINtB2_3VecNtNtCs6IAuOt8vWmF_3syn3lit6LitStrE3newCs1edtEUeLQ4Q_12serde_derive, symObjAddr: 0x3468, symBinAddr: 0x70CF4, symSize: 0x14 }
  - { offset: 0x947F2, size: 0x8, addend: 0x0, symName: __RNvMNtCse1nGBsou5OW_5alloc3vecINtB2_3VecNtNtCs6IAuOt8vWmF_3syn4expr6MemberE3newCs1edtEUeLQ4Q_12serde_derive, symObjAddr: 0x347C, symBinAddr: 0x70D08, symSize: 0x14 }
  - { offset: 0x9480F, size: 0x8, addend: 0x0, symName: __RNvMNtCse1nGBsou5OW_5alloc3vecINtB2_3VecNtNtCs6IAuOt8vWmF_3syn5error5ErrorE3newCs1edtEUeLQ4Q_12serde_derive, symObjAddr: 0x3490, symBinAddr: 0x70D1C, symSize: 0x14 }
  - { offset: 0x9488E, size: 0x8, addend: 0x0, symName: __RNvMNtCse1nGBsou5OW_5alloc3vecINtB2_3VecNtNtCs6IAuOt8vWmF_3syn8generics12GenericParamE13with_capacityCs1edtEUeLQ4Q_12serde_derive, symObjAddr: 0x34A4, symBinAddr: 0x70D30, symSize: 0x48 }
  - { offset: 0x94968, size: 0x8, addend: 0x0, symName: __RNvMNtCse1nGBsou5OW_5alloc3vecINtB2_3VecNtNtCs6IAuOt8vWmF_3syn8generics14WherePredicateE13with_capacityCs1edtEUeLQ4Q_12serde_derive, symObjAddr: 0x34EC, symBinAddr: 0x70D78, symSize: 0x48 }
  - { offset: 0x949E0, size: 0x8, addend: 0x0, symName: __RNvMNtCse1nGBsou5OW_5alloc3vecINtB2_3VecNtNtCs6IAuOt8vWmF_3syn8generics14WherePredicateE3newCs1edtEUeLQ4Q_12serde_derive, symObjAddr: 0x3534, symBinAddr: 0x70DC0, symSize: 0x14 }
  - { offset: 0x949FD, size: 0x8, addend: 0x0, symName: __RNvMNtCse1nGBsou5OW_5alloc3vecINtB2_3VecNtNtNtCs1edtEUeLQ4Q_12serde_derive9internals3ast5FieldE3newBI_, symObjAddr: 0x3548, symBinAddr: 0x70DD4, symSize: 0x14 }
  - { offset: 0x94A1A, size: 0x8, addend: 0x0, symName: __RNvMNtCse1nGBsou5OW_5alloc3vecINtB2_3VecNtNtNtCs1edtEUeLQ4Q_12serde_derive9internals4name4NameE3newBI_, symObjAddr: 0x355C, symBinAddr: 0x70DE8, symSize: 0x14 }
  - { offset: 0x94A44, size: 0x8, addend: 0x0, symName: __RNvMNtCse1nGBsou5OW_5alloc3vecINtB2_3VecRNtNtCs6IAuOt8vWmF_3syn2ty8TypePathE3newCs1edtEUeLQ4Q_12serde_derive, symObjAddr: 0x3570, symBinAddr: 0x70DFC, symSize: 0x14 }
  - { offset: 0x94A6E, size: 0x8, addend: 0x0, symName: __RNvMs_NtCse1nGBsou5OW_5alloc3vecINtB4_3VecIBv_NtNtCs6IAuOt8vWmF_3syn8generics14WherePredicateEE3lenCs1edtEUeLQ4Q_12serde_derive, symObjAddr: 0x3584, symBinAddr: 0x70E10, symSize: 0x18 }
  - { offset: 0x94BF0, size: 0x8, addend: 0x0, symName: __RNvMs_NtCse1nGBsou5OW_5alloc3vecINtB4_3VecIBv_NtNtCs6IAuOt8vWmF_3syn8generics14WherePredicateEE3popCs1edtEUeLQ4Q_12serde_derive, symObjAddr: 0x359C, symBinAddr: 0x70E28, symSize: 0x100 }
  - { offset: 0x94E64, size: 0x8, addend: 0x0, symName: __RNvMs_NtCse1nGBsou5OW_5alloc3vecINtB4_3VecIBv_NtNtCs6IAuOt8vWmF_3syn8generics14WherePredicateEE4pushCs1edtEUeLQ4Q_12serde_derive, symObjAddr: 0x369C, symBinAddr: 0x70F28, symSize: 0x108 }
  - { offset: 0x950F7, size: 0x8, addend: 0x0, symName: __RNvMs_NtCse1nGBsou5OW_5alloc3vecINtB4_3VecNtCs3cP53eQoTwO_11proc_macro211TokenStreamE4pushCs1edtEUeLQ4Q_12serde_derive, symObjAddr: 0x37A4, symBinAddr: 0x71030, symSize: 0x100 }
  - { offset: 0x953DB, size: 0x8, addend: 0x0, symName: __RNvMs_NtCse1nGBsou5OW_5alloc3vecINtB4_3VecNtCs3cP53eQoTwO_11proc_macro211TokenStreamE7reserveCs1edtEUeLQ4Q_12serde_derive, symObjAddr: 0x38A4, symBinAddr: 0x71130, symSize: 0xC8 }
  - { offset: 0x955D9, size: 0x8, addend: 0x0, symName: __RNvMs_NtCse1nGBsou5OW_5alloc3vecINtB4_3VecNtCs3cP53eQoTwO_11proc_macro211TokenStreamE8as_sliceCs1edtEUeLQ4Q_12serde_derive, symObjAddr: 0x396C, symBinAddr: 0x711F8, symSize: 0x64 }
  - { offset: 0x956B8, size: 0x8, addend: 0x0, symName: __RNvMs_NtCse1nGBsou5OW_5alloc3vecINtB4_3VecNtCs3cP53eQoTwO_11proc_macro211TokenStreamE8is_emptyCs1edtEUeLQ4Q_12serde_derive, symObjAddr: 0x39D0, symBinAddr: 0x7125C, symSize: 0x20 }
  - { offset: 0x95821, size: 0x8, addend: 0x0, symName: __RNvMs_NtCse1nGBsou5OW_5alloc3vecINtB4_3VecNtCs3cP53eQoTwO_11proc_macro25IdentE7reserveCs1edtEUeLQ4Q_12serde_derive, symObjAddr: 0x39F0, symBinAddr: 0x7127C, symSize: 0xC8 }
  - { offset: 0x95A2C, size: 0x8, addend: 0x0, symName: __RNvMs_NtCse1nGBsou5OW_5alloc3vecINtB4_3VecNtCs3cP53eQoTwO_11proc_macro25IdentE8as_sliceCs1edtEUeLQ4Q_12serde_derive, symObjAddr: 0x3AB8, symBinAddr: 0x71344, symSize: 0x64 }
  - { offset: 0x95BFC, size: 0x8, addend: 0x0, symName: __RNvMs_NtCse1nGBsou5OW_5alloc3vecINtB4_3VecNtNtCs1edtEUeLQ4Q_12serde_derive2de16FieldWithAliasesE7reserveBI_, symObjAddr: 0x3B1C, symBinAddr: 0x713A8, symSize: 0xC8 }
  - { offset: 0x95DFA, size: 0x8, addend: 0x0, symName: __RNvMs_NtCse1nGBsou5OW_5alloc3vecINtB4_3VecNtNtCs1edtEUeLQ4Q_12serde_derive2de16FieldWithAliasesE8as_sliceBI_, symObjAddr: 0x3BE4, symBinAddr: 0x71470, symSize: 0x64 }
  - { offset: 0x95ED9, size: 0x8, addend: 0x0, symName: __RNvMs_NtCse1nGBsou5OW_5alloc3vecINtB4_3VecNtNtCs1edtEUeLQ4Q_12serde_derive2de16FieldWithAliasesE8is_emptyBI_, symObjAddr: 0x3C48, symBinAddr: 0x714D4, symSize: 0x20 }
  - { offset: 0x95F39, size: 0x8, addend: 0x0, symName: __RNvMs_NtCse1nGBsou5OW_5alloc3vecINtB4_3VecNtNtCs6IAuOt8vWmF_3syn3lit6LitStrE3lenCs1edtEUeLQ4Q_12serde_derive, symObjAddr: 0x3C68, symBinAddr: 0x714F4, symSize: 0x18 }
  - { offset: 0x960BB, size: 0x8, addend: 0x0, symName: __RNvMs_NtCse1nGBsou5OW_5alloc3vecINtB4_3VecNtNtCs6IAuOt8vWmF_3syn3lit6LitStrE3popCs1edtEUeLQ4Q_12serde_derive, symObjAddr: 0x3C80, symBinAddr: 0x7150C, symSize: 0xD8 }
  - { offset: 0x9632B, size: 0x8, addend: 0x0, symName: __RNvMs_NtCse1nGBsou5OW_5alloc3vecINtB4_3VecNtNtCs6IAuOt8vWmF_3syn3lit6LitStrE4pushCs1edtEUeLQ4Q_12serde_derive, symObjAddr: 0x3D58, symBinAddr: 0x715E4, symSize: 0xEC }
  - { offset: 0x965F1, size: 0x8, addend: 0x0, symName: __RNvMs_NtCse1nGBsou5OW_5alloc3vecINtB4_3VecNtNtCs6IAuOt8vWmF_3syn4expr6MemberE7reserveCs1edtEUeLQ4Q_12serde_derive, symObjAddr: 0x3E44, symBinAddr: 0x716D0, symSize: 0xC8 }
  - { offset: 0x967FC, size: 0x8, addend: 0x0, symName: __RNvMs_NtCse1nGBsou5OW_5alloc3vecINtB4_3VecNtNtCs6IAuOt8vWmF_3syn4expr6MemberE8as_sliceCs1edtEUeLQ4Q_12serde_derive, symObjAddr: 0x3F0C, symBinAddr: 0x71798, symSize: 0x64 }
  - { offset: 0x969C9, size: 0x8, addend: 0x0, symName: __RNvMs_NtCse1nGBsou5OW_5alloc3vecINtB4_3VecNtNtCs6IAuOt8vWmF_3syn5error5ErrorE4pushCs1edtEUeLQ4Q_12serde_derive, symObjAddr: 0x3F70, symBinAddr: 0x717FC, symSize: 0x108 }
  - { offset: 0x96C93, size: 0x8, addend: 0x0, symName: __RNvMs_NtCse1nGBsou5OW_5alloc3vecINtB4_3VecNtNtCs6IAuOt8vWmF_3syn8generics12GenericParamE7reserveCs1edtEUeLQ4Q_12serde_derive, symObjAddr: 0x4078, symBinAddr: 0x71904, symSize: 0xC8 }
  - { offset: 0x96F10, size: 0x8, addend: 0x0, symName: __RNvMs_NtCse1nGBsou5OW_5alloc3vecINtB4_3VecNtNtCs6IAuOt8vWmF_3syn8generics14WherePredicateE7reserveCs1edtEUeLQ4Q_12serde_derive, symObjAddr: 0x4140, symBinAddr: 0x719CC, symSize: 0xC8 }
  - { offset: 0x97077, size: 0x8, addend: 0x0, symName: __RNvMs_NtCse1nGBsou5OW_5alloc3vecINtB4_3VecNtNtNtCs1edtEUeLQ4Q_12serde_derive9internals3ast5FieldE3lenBK_, symObjAddr: 0x4208, symBinAddr: 0x71A94, symSize: 0x18 }
  - { offset: 0x971C2, size: 0x8, addend: 0x0, symName: __RNvMs_NtCse1nGBsou5OW_5alloc3vecINtB4_3VecNtNtNtCs1edtEUeLQ4Q_12serde_derive9internals3ast5FieldE7reserveBK_, symObjAddr: 0x4220, symBinAddr: 0x71AAC, symSize: 0xC8 }
  - { offset: 0x973C0, size: 0x8, addend: 0x0, symName: __RNvMs_NtCse1nGBsou5OW_5alloc3vecINtB4_3VecNtNtNtCs1edtEUeLQ4Q_12serde_derive9internals3ast5FieldE8as_sliceBK_, symObjAddr: 0x42E8, symBinAddr: 0x71B74, symSize: 0x64 }
  - { offset: 0x9747A, size: 0x8, addend: 0x0, symName: __RNvMs_NtCse1nGBsou5OW_5alloc3vecINtB4_3VecNtNtNtCs1edtEUeLQ4Q_12serde_derive9internals3ast7VariantE3lenBK_, symObjAddr: 0x434C, symBinAddr: 0x71BD8, symSize: 0x18 }
  - { offset: 0x975C5, size: 0x8, addend: 0x0, symName: __RNvMs_NtCse1nGBsou5OW_5alloc3vecINtB4_3VecNtNtNtCs1edtEUeLQ4Q_12serde_derive9internals3ast7VariantE7reserveBK_, symObjAddr: 0x4364, symBinAddr: 0x71BF0, symSize: 0xC8 }
  - { offset: 0x977C3, size: 0x8, addend: 0x0, symName: __RNvMs_NtCse1nGBsou5OW_5alloc3vecINtB4_3VecNtNtNtCs1edtEUeLQ4Q_12serde_derive9internals3ast7VariantE8as_sliceBK_, symObjAddr: 0x442C, symBinAddr: 0x71CB8, symSize: 0x64 }
  - { offset: 0x9788A, size: 0x8, addend: 0x0, symName: __RNvMs_NtCse1nGBsou5OW_5alloc3vecINtB4_3VecNtNtNtCs1edtEUeLQ4Q_12serde_derive9internals4name4NameE3lenBK_, symObjAddr: 0x4490, symBinAddr: 0x71D1C, symSize: 0x18 }
  - { offset: 0x979D2, size: 0x8, addend: 0x0, symName: __RNvMs_NtCse1nGBsou5OW_5alloc3vecINtB4_3VecNtNtNtCs1edtEUeLQ4Q_12serde_derive9internals4name4NameE4pushBK_, symObjAddr: 0x44A8, symBinAddr: 0x71D34, symSize: 0x100 }
  - { offset: 0x97C9C, size: 0x8, addend: 0x0, symName: __RNvMs_NtCse1nGBsou5OW_5alloc3vecINtB4_3VecRNtCs3cP53eQoTwO_11proc_macro25IdentE7reserveCs1edtEUeLQ4Q_12serde_derive, symObjAddr: 0x45A8, symBinAddr: 0x71E34, symSize: 0xBC }
  - { offset: 0x97EA7, size: 0x8, addend: 0x0, symName: __RNvMs_NtCse1nGBsou5OW_5alloc3vecINtB4_3VecRNtCs3cP53eQoTwO_11proc_macro25IdentE8as_sliceCs1edtEUeLQ4Q_12serde_derive, symObjAddr: 0x4664, symBinAddr: 0x71EF0, symSize: 0x60 }
  - { offset: 0x98077, size: 0x8, addend: 0x0, symName: __RNvMs_NtCse1nGBsou5OW_5alloc3vecINtB4_3VecRNtNtCs6IAuOt8vWmF_3syn2ty4TypeE7reserveCs1edtEUeLQ4Q_12serde_derive, symObjAddr: 0x46C4, symBinAddr: 0x71F50, symSize: 0xBC }
  - { offset: 0x98282, size: 0x8, addend: 0x0, symName: __RNvMs_NtCse1nGBsou5OW_5alloc3vecINtB4_3VecRNtNtCs6IAuOt8vWmF_3syn2ty4TypeE8as_sliceCs1edtEUeLQ4Q_12serde_derive, symObjAddr: 0x4780, symBinAddr: 0x7200C, symSize: 0x60 }
  - { offset: 0x9844F, size: 0x8, addend: 0x0, symName: __RNvMs_NtCse1nGBsou5OW_5alloc3vecINtB4_3VecRNtNtCs6IAuOt8vWmF_3syn2ty8TypePathE4pushCs1edtEUeLQ4Q_12serde_derive, symObjAddr: 0x47E0, symBinAddr: 0x7206C, symSize: 0xE4 }
  - { offset: 0x98717, size: 0x8, addend: 0x0, symName: __RNvMs_NtCse1nGBsou5OW_5alloc3vecINtB4_3VecRNtNtCs6IAuOt8vWmF_3syn4expr6MemberE7reserveCs1edtEUeLQ4Q_12serde_derive, symObjAddr: 0x48C4, symBinAddr: 0x72150, symSize: 0xBC }
  - { offset: 0x98922, size: 0x8, addend: 0x0, symName: __RNvMs_NtCse1nGBsou5OW_5alloc3vecINtB4_3VecRNtNtCs6IAuOt8vWmF_3syn4expr6MemberE8as_sliceCs1edtEUeLQ4Q_12serde_derive, symObjAddr: 0x4980, symBinAddr: 0x7220C, symSize: 0x60 }
  - { offset: 0x98AB7, size: 0x8, addend: 0x0, symName: __RNvMs_NtCse1nGBsou5OW_5alloc3vecINtB4_3VecTNtNtCs6IAuOt8vWmF_3syn2ty4TypeNtNtBJ_5token5CommaEE12as_mut_sliceCs1edtEUeLQ4Q_12serde_derive, symObjAddr: 0x49E0, symBinAddr: 0x7226C, symSize: 0x64 }
  - { offset: 0x98C61, size: 0x8, addend: 0x0, symName: __RNvMs_NtCse1nGBsou5OW_5alloc3vecINtB4_3VecTNtNtCs6IAuOt8vWmF_3syn2ty9BareFnArgNtNtBJ_5token5CommaEE12as_mut_sliceCs1edtEUeLQ4Q_12serde_derive, symObjAddr: 0x4A44, symBinAddr: 0x722D0, symSize: 0x64 }
  - { offset: 0x98E0B, size: 0x8, addend: 0x0, symName: __RNvMs_NtCse1nGBsou5OW_5alloc3vecINtB4_3VecTNtNtCs6IAuOt8vWmF_3syn4data7VariantNtNtBJ_5token5CommaEE12as_mut_sliceCs1edtEUeLQ4Q_12serde_derive, symObjAddr: 0x4AA8, symBinAddr: 0x72334, symSize: 0x64 }
  - { offset: 0x98FB5, size: 0x8, addend: 0x0, symName: __RNvMs_NtCse1nGBsou5OW_5alloc3vecINtB4_3VecTNtNtCs6IAuOt8vWmF_3syn4expr4ExprNtNtBJ_5token5CommaEE12as_mut_sliceCs1edtEUeLQ4Q_12serde_derive, symObjAddr: 0x4B0C, symBinAddr: 0x72398, symSize: 0x64 }
  - { offset: 0x9915F, size: 0x8, addend: 0x0, symName: __RNvMs_NtCse1nGBsou5OW_5alloc3vecINtB4_3VecTNtNtCs6IAuOt8vWmF_3syn4path15GenericArgumentNtNtBJ_5token5CommaEE12as_mut_sliceCs1edtEUeLQ4Q_12serde_derive, symObjAddr: 0x4B70, symBinAddr: 0x723FC, symSize: 0x64 }
  - { offset: 0x99309, size: 0x8, addend: 0x0, symName: __RNvMs_NtCse1nGBsou5OW_5alloc3vecINtB4_3VecTNtNtCs6IAuOt8vWmF_3syn8generics14TypeParamBoundNtNtBJ_5token4PlusEE12as_mut_sliceCs1edtEUeLQ4Q_12serde_derive, symObjAddr: 0x4BD4, symBinAddr: 0x72460, symSize: 0x64 }
  - { offset: 0x994A6, size: 0x8, addend: 0x0, symName: __RNvMs_NtCse1nGBsou5OW_5alloc3vecINtB4_3VecTNtNtCs6IAuOt8vWmF_3syn8generics14WherePredicateNtNtBJ_5token5CommaEE12as_mut_sliceCs1edtEUeLQ4Q_12serde_derive, symObjAddr: 0x4C38, symBinAddr: 0x724C4, symSize: 0x64 }
  - { offset: 0x9968B, size: 0x8, addend: 0x0, symName: __RNvMs_NtCse1nGBsou5OW_5alloc3vecINtB4_3VecTRNtNtNtCs1edtEUeLQ4Q_12serde_derive9internals3ast5FieldNtCs3cP53eQoTwO_11proc_macro25IdentEE7reserveBM_, symObjAddr: 0x4C9C, symBinAddr: 0x72528, symSize: 0xC8 }
  - { offset: 0x99896, size: 0x8, addend: 0x0, symName: __RNvMs_NtCse1nGBsou5OW_5alloc3vecINtB4_3VecTRNtNtNtCs1edtEUeLQ4Q_12serde_derive9internals3ast5FieldNtCs3cP53eQoTwO_11proc_macro25IdentEE8as_sliceBM_, symObjAddr: 0x4D64, symBinAddr: 0x725F0, symSize: 0x64 }
  - { offset: 0x9A5E4, size: 0x8, addend: 0x0, symName: __RNvXs4_NtNtCs2cqEZUIJimJ_5quote9___private3extINtNtCse1nGBsou5OW_5alloc3vec3VecNtCs3cP53eQoTwO_11proc_macro211TokenStreamENtB5_16RepAsIteratorExt15quote_into_iterCs1edtEUeLQ4Q_12serde_derive, symObjAddr: 0x6748, symBinAddr: 0x73FD4, symSize: 0x38 }
  - { offset: 0x9A619, size: 0x8, addend: 0x0, symName: __RNvXs4_NtNtCs2cqEZUIJimJ_5quote9___private3extINtNtCse1nGBsou5OW_5alloc3vec3VecNtCs3cP53eQoTwO_11proc_macro25IdentENtB5_16RepAsIteratorExt15quote_into_iterCs1edtEUeLQ4Q_12serde_derive, symObjAddr: 0x6780, symBinAddr: 0x7400C, symSize: 0x38 }
  - { offset: 0x9A64E, size: 0x8, addend: 0x0, symName: __RNvXs4_NtNtCs2cqEZUIJimJ_5quote9___private3extINtNtCse1nGBsou5OW_5alloc3vec3VecRNtCs3cP53eQoTwO_11proc_macro25IdentENtB5_16RepAsIteratorExt15quote_into_iterCs1edtEUeLQ4Q_12serde_derive, symObjAddr: 0x67B8, symBinAddr: 0x74044, symSize: 0x38 }
  - { offset: 0x9A683, size: 0x8, addend: 0x0, symName: __RNvXs4_NtNtCs2cqEZUIJimJ_5quote9___private3extINtNtCse1nGBsou5OW_5alloc3vec3VecRNtNtCs6IAuOt8vWmF_3syn4expr6MemberENtB5_16RepAsIteratorExt15quote_into_iterCs1edtEUeLQ4Q_12serde_derive, symObjAddr: 0x67F0, symBinAddr: 0x7407C, symSize: 0x38 }
  - { offset: 0x9CBA0, size: 0x8, addend: 0x0, symName: __RINvMNtCse1nGBsou5OW_5alloc5sliceSNtNtCs6IAuOt8vWmF_3syn4path11PathSegment8into_vecNtNtB5_5alloc6GlobalECs1edtEUeLQ4Q_12serde_derive, symObjAddr: 0x0, symBinAddr: 0x76768, symSize: 0x28 }
  - { offset: 0x9CF78, size: 0x8, addend: 0x0, symName: __RINvXs5_NtNtNtCscOYdFFY2T5N_3std11collections4hash3setINtB6_7HashSetNtCs3cP53eQoTwO_11proc_macro25IdentEINtNtNtNtCsfvfooZQ3Axs_4core4iter6traits7collect12FromIteratorB14_E9from_iterINtNtNtB1L_8adapters3map3MapNtNtCs6IAuOt8vWmF_3syn8generics10TypeParamsNCNvNtCs1edtEUeLQ4Q_12serde_derive5bound10with_bound0EEB48_, symObjAddr: 0xDF8, symBinAddr: 0x77560, symSize: 0x14C }
  - { offset: 0x9D876, size: 0x8, addend: 0x0, symName: __RNvNvMNtNtCsfvfooZQ3Axs_4core3ptr9const_ptrPp7sub_ptr18precondition_checkCs1edtEUeLQ4Q_12serde_derive, symObjAddr: 0x3368, symBinAddr: 0x79AD0, symSize: 0x40 }
  - { offset: 0xA35DC, size: 0x8, addend: 0x0, symName: __RINvXs0_NtNtNtCsfvfooZQ3Axs_4core4iter8adapters3mapINtB6_3MapIBO_NtNtCs3cP53eQoTwO_11proc_macro212token_stream8IntoIterNCNvNtNtCs1edtEUeLQ4Q_12serde_derive9internals6respan6respan0ENvNtB15_3imp19into_compiler_tokenENtNtNtBa_6traits8iterator8Iterator4folduNCINvNvB3r_8for_each4callNtCs9i5KxIbZ5ph_10proc_macro9TokenTreeNCINvXsg_B4w_NtB4w_11TokenStreamINtNtB3v_7collect12FromIteratorB4u_E9from_iterBN_E0E0EB21_, symObjAddr: 0x6F4, symBinAddr: 0x76E5C, symSize: 0x4C }
  - { offset: 0xA364E, size: 0x8, addend: 0x0, symName: __RINvXs0_NtNtNtCsfvfooZQ3Axs_4core4iter8adapters3mapINtB6_3MapIBO_NtNtCs6IAuOt8vWmF_3syn8generics10TypeParamsNCNvNtCs1edtEUeLQ4Q_12serde_derive5bound10with_bound0ENCINvXs8_NtCsloNvcHxBCre_9hashbrown3setINtB2J_7HashSetNtCs3cP53eQoTwO_11proc_macro25IdentNtNtNtCscOYdFFY2T5N_3std4hash6random11RandomStateEINtNtNtBa_6traits7collect6ExtendB3s_E6extendBX_E0ENtNtB4U_8iterator8Iterator4folduNCINvNvB5D_8for_each4callTB3s_uENCINvXs1i_NtB2L_3mapINtB6P_7HashMapB3s_uB41_EIB4Q_B6y_E6extendBN_E0E0EB1O_, symObjAddr: 0x740, symBinAddr: 0x76EA8, symSize: 0x34 }
  - { offset: 0xA36BF, size: 0x8, addend: 0x0, symName: __RINvXs0_NtNtNtCsfvfooZQ3Axs_4core4iter8adapters3mapINtB6_3MapINtNtB8_8peekable8PeekableINtNtB8_6filter6FilterINtNtB8_9enumerate9EnumerateINtNtNtBc_5slice4iter4IterNtNtNtCs1edtEUeLQ4Q_12serde_derive9internals3ast5FieldEENCNvNtB2H_3ser22serialize_tuple_struct0EENCB3x_s_0ENtNtNtBa_6traits8iterator8Iterator4foldNtCs3cP53eQoTwO_11proc_macro211TokenStreamNCB3x_s0_0EB2H_, symObjAddr: 0x774, symBinAddr: 0x76EDC, symSize: 0x5C }
  - { offset: 0xA3736, size: 0x8, addend: 0x0, symName: __RINvXs0_NtNtNtCsfvfooZQ3Axs_4core4iter8adapters3mapINtB6_3MapINtNtB8_8peekable8PeekableINtNtB8_6filter6FilterINtNtB8_9enumerate9EnumerateINtNtNtBc_5slice4iter4IterNtNtNtCs1edtEUeLQ4Q_12serde_derive9internals3ast5FieldEENCNvNtB2H_3ser23serialize_tuple_variant0EENCB3x_s_0ENtNtNtBa_6traits8iterator8Iterator4foldNtCs3cP53eQoTwO_11proc_macro211TokenStreamNCB3x_s0_0EB2H_, symObjAddr: 0x7D0, symBinAddr: 0x76F38, symSize: 0x50 }
  - { offset: 0xA37AD, size: 0x8, addend: 0x0, symName: __RINvXs0_NtNtNtCsfvfooZQ3Axs_4core4iter8adapters3mapINtB6_3MapINtNtB8_8peekable8PeekableINtNtB8_6filter6FilterINtNtNtBc_5slice4iter4IterNtNtNtCs1edtEUeLQ4Q_12serde_derive9internals3ast5FieldENCNvNtB2f_3ser24serialize_struct_variants_0EENCB34_s0_0ENtNtNtBa_6traits8iterator8Iterator4foldNtCs3cP53eQoTwO_11proc_macro211TokenStreamNCB34_s1_0EB2f_, symObjAddr: 0x820, symBinAddr: 0x76F88, symSize: 0x34 }
  - { offset: 0xA3824, size: 0x8, addend: 0x0, symName: __RINvXs0_NtNtNtCsfvfooZQ3Axs_4core4iter8adapters3mapINtB6_3MapINtNtB8_8peekable8PeekableINtNtB8_6filter6FilterINtNtNtBc_5slice4iter4IterNtNtNtCs1edtEUeLQ4Q_12serde_derive9internals3ast5FieldENCNvNtB2f_3ser26serialize_struct_as_struct0EENCB34_s_0ENtNtNtBa_6traits8iterator8Iterator4foldNtCs3cP53eQoTwO_11proc_macro211TokenStreamNCB34_s0_0EB2f_, symObjAddr: 0x854, symBinAddr: 0x76FBC, symSize: 0x3C }
  - { offset: 0xA389B, size: 0x8, addend: 0x0, symName: __RINvXs0_NtNtNtCsfvfooZQ3Axs_4core4iter8adapters3mapINtB6_3MapINtNtB8_9enumerate9EnumerateINtNtNtBc_5slice4iter4IterNtNtNtCs1edtEUeLQ4Q_12serde_derive9internals3ast5FieldEENCNvNtB1V_2de15deserialize_map0ENtNtNtBa_6traits8iterator8Iterator4folduNCINvNvB3f_8for_each4callTRB1P_NtCs3cP53eQoTwO_11proc_macro25IdentENCINvMsi_NtCse1nGBsou5OW_5alloc3vecINtB57_3VecB4i_E14extend_trustedBN_E0E0EB1V_, symObjAddr: 0x890, symBinAddr: 0x76FF8, symSize: 0x4C }
  - { offset: 0xA3934, size: 0x8, addend: 0x0, symName: __RINvXs0_NtNtNtCsfvfooZQ3Axs_4core4iter8adapters3mapINtB6_3MapINtNtB8_9enumerate9EnumerateINtNtNtBc_5slice4iter4IterNtNtNtCs1edtEUeLQ4Q_12serde_derive9internals3ast7VariantEENCNvNtB1V_3ser14serialize_enum0ENtNtNtBa_6traits8iterator8Iterator4folduNCINvNvB3h_8for_each4callNtCs3cP53eQoTwO_11proc_macro211TokenStreamNCINvMsi_NtCse1nGBsou5OW_5alloc3vecINtB59_3VecB4k_E14extend_trustedBN_E0E0EB1V_, symObjAddr: 0x8DC, symBinAddr: 0x77044, symSize: 0x64 }
  - { offset: 0xA39CD, size: 0x8, addend: 0x0, symName: __RINvXs0_NtNtNtCsfvfooZQ3Axs_4core4iter8adapters3mapINtB6_3MapINtNtNtBc_3ops5range5RangejENCNCNvNtCs1edtEUeLQ4Q_12serde_derive7pretend21pretend_variants_used00ENtNtNtBa_6traits8iterator8Iterator4folduNCINvNvB2x_8for_each4callNtCs3cP53eQoTwO_11proc_macro25IdentNCINvMsi_NtCse1nGBsou5OW_5alloc3vecINtB4i_3VecB3A_E14extend_trustedBN_E0E0EB1x_, symObjAddr: 0x940, symBinAddr: 0x770A8, symSize: 0x3C }
  - { offset: 0xA3A65, size: 0x8, addend: 0x0, symName: __RINvXs0_NtNtNtCsfvfooZQ3Axs_4core4iter8adapters3mapINtB6_3MapINtNtNtBc_3ops5range5RangejENCNvNtCs1edtEUeLQ4Q_12serde_derive3ser35serialize_adjacently_tagged_variants_0ENtNtNtBa_6traits8iterator8Iterator4folduNCINvNvB2G_8for_each4callNtNtCs6IAuOt8vWmF_3syn4expr6MemberNCINvMsi_NtCse1nGBsou5OW_5alloc3vecINtB4q_3VecB3J_E14extend_trustedBN_E0E0EB1v_, symObjAddr: 0x97C, symBinAddr: 0x770E4, symSize: 0x3C }
  - { offset: 0xA3AFD, size: 0x8, addend: 0x0, symName: __RINvXs0_NtNtNtCsfvfooZQ3Axs_4core4iter8adapters3mapINtB6_3MapINtNtNtBc_5slice4iter4IterNtNtCs1edtEUeLQ4Q_12serde_derive2de16FieldWithAliasesENCNvB1p_32deserialize_generated_identifier0ENtNtNtBa_6traits8iterator8Iterator4folduNCINvNvB2X_8for_each4callRNtCs3cP53eQoTwO_11proc_macro25IdentNCINvMsi_NtCse1nGBsou5OW_5alloc3vecINtB4J_3VecB40_E14extend_trustedBN_E0E0EB1r_, symObjAddr: 0x9B8, symBinAddr: 0x77120, symSize: 0x44 }
  - { offset: 0xA3B95, size: 0x8, addend: 0x0, symName: __RINvXs0_NtNtNtCsfvfooZQ3Axs_4core4iter8adapters3mapINtB6_3MapINtNtNtBc_5slice4iter4IterNtNtNtCs1edtEUeLQ4Q_12serde_derive9internals3ast5FieldENCNvNtB1t_3ser27wrap_serialize_variant_with0ENtNtNtBa_6traits8iterator8Iterator4folduNCINvNvB2Z_8for_each4callRNtNtCs6IAuOt8vWmF_3syn2ty4TypeNCINvMsi_NtCse1nGBsou5OW_5alloc3vecINtB4G_3VecB42_E14extend_trustedBN_E0E0EB1t_, symObjAddr: 0x9FC, symBinAddr: 0x77164, symSize: 0x44 }
  - { offset: 0xA3C2D, size: 0x8, addend: 0x0, symName: __RINvXs0_NtNtNtCsfvfooZQ3Axs_4core4iter8adapters3mapINtB6_3MapINtNtNtBc_5slice4iter4IterNtNtNtCs1edtEUeLQ4Q_12serde_derive9internals3ast5FieldENCNvNtB1t_3ser27wrap_serialize_variant_withs_0ENtNtNtBa_6traits8iterator8Iterator4folduNCINvNvB31_8for_each4callNtCs3cP53eQoTwO_11proc_macro211TokenStreamNCINvMsi_NtCse1nGBsou5OW_5alloc3vecINtB4T_3VecB44_E14extend_trustedBN_E0E0EB1t_, symObjAddr: 0xA40, symBinAddr: 0x771A8, symSize: 0x44 }
  - { offset: 0xA3CC5, size: 0x8, addend: 0x0, symName: __RINvXs0_NtNtNtCsfvfooZQ3Axs_4core4iter8adapters3mapINtB6_3MapINtNtNtBc_5slice4iter4IterNtNtNtCs1edtEUeLQ4Q_12serde_derive9internals3ast5FieldENCNvNtB1t_3ser35serialize_adjacently_tagged_variants0_0ENtNtNtBa_6traits8iterator8Iterator4folduNCINvNvB3a_8for_each4callNtNtCs6IAuOt8vWmF_3syn4expr6MemberNCINvMsi_NtCse1nGBsou5OW_5alloc3vecINtB4U_3VecB4d_E14extend_trustedBN_E0E0EB1t_, symObjAddr: 0xA84, symBinAddr: 0x771EC, symSize: 0x44 }
  - { offset: 0xA3D5D, size: 0x8, addend: 0x0, symName: __RINvXs0_NtNtNtCsfvfooZQ3Axs_4core4iter8adapters3mapINtB6_3MapINtNtNtBc_5slice4iter4IterNtNtNtCs1edtEUeLQ4Q_12serde_derive9internals3ast5FieldENCNvNtB1t_3ser37serialize_struct_variant_with_flattens0_0ENtNtNtBa_6traits8iterator8Iterator4folduNCINvNvB3c_8for_each4callRNtNtCs6IAuOt8vWmF_3syn4expr6MemberNCINvMsi_NtCse1nGBsou5OW_5alloc3vecINtB4X_3VecB4f_E14extend_trustedBN_E0E0EB1t_, symObjAddr: 0xAC8, symBinAddr: 0x77230, symSize: 0x44 }
  - { offset: 0xA3DF5, size: 0x8, addend: 0x0, symName: __RINvXs0_NtNtNtCsfvfooZQ3Axs_4core4iter8adapters3mapINtB6_3MapINtNtNtBc_5slice4iter4IterNtNtNtCs1edtEUeLQ4Q_12serde_derive9internals3ast5FieldENCNvNtB1t_7pretend33pretend_fields_used_struct_packed0ENtNtNtBa_6traits8iterator8Iterator4folduNCINvNvB39_8for_each4callRNtNtCs6IAuOt8vWmF_3syn4expr6MemberNCINvMsi_NtCse1nGBsou5OW_5alloc3vecINtB4U_3VecB4c_E14extend_trustedBN_E0E0EB1t_, symObjAddr: 0xB0C, symBinAddr: 0x77274, symSize: 0x44 }
  - { offset: 0xA3E8D, size: 0x8, addend: 0x0, symName: __RINvXs0_NtNtNtCsfvfooZQ3Axs_4core4iter8adapters3mapINtB6_3MapINtNtNtBc_5slice4iter4IterNtNtNtCs1edtEUeLQ4Q_12serde_derive9internals3ast7VariantENCNvMs_B1p_NtB1p_4Data10all_fields0ENtNtNtBa_6traits8iterator8Iterator8try_foldjNCINvNvMst_NtB8_7flattenINtB3L_13FlattenCompatppE13iter_try_fold7flattenIBY_NtB1p_5FieldEjINtNtNtBc_3ops12control_flow11ControlFlowujEINvNvXsv_B3L_B3Y_B2S_10advance_by7advanceB4K_EE0B52_EB1t_, symObjAddr: 0xB50, symBinAddr: 0x772B8, symSize: 0x58 }
  - { offset: 0xA3F30, size: 0x8, addend: 0x0, symName: __RINvXs0_NtNtNtCsfvfooZQ3Axs_4core4iter8adapters3mapINtB6_3MapINtNtNtBc_5slice4iter4IterNtNtNtCs1edtEUeLQ4Q_12serde_derive9internals3ast7VariantENCNvNtB1t_2de29deserialize_custom_identifiers_0ENtNtNtBa_6traits8iterator8Iterator4folduNCINvNvB34_8for_each4callNtB2m_16FieldWithAliasesNCINvMsi_NtCse1nGBsou5OW_5alloc3vecINtB4E_3VecB47_E14extend_trustedBN_E0E0EB1t_, symObjAddr: 0xBA8, symBinAddr: 0x77310, symSize: 0x44 }
  - { offset: 0xA3FC8, size: 0x8, addend: 0x0, symName: __RINvXs0_NtNtNtCsfvfooZQ3Axs_4core4iter8adapters3mapINtB6_3MapINtNtNtBc_5slice4iter4IterhENCNvNtCse1nGBsou5OW_5alloc3str13replace_ascii0ENtNtNtBa_6traits8iterator8Iterator4folduNCINvNvB2a_8for_each4callhNCINvMsi_NtB1v_3vecINtB3n_3VechE14extend_trustedBN_E0E0ECs1edtEUeLQ4Q_12serde_derive, symObjAddr: 0xBEC, symBinAddr: 0x77354, symSize: 0x58 }
  - { offset: 0xA4061, size: 0x8, addend: 0x0, symName: __RINvXs0_NtNtNtCsfvfooZQ3Axs_4core4iter8adapters3mapINtB6_3MapINtNtNtCse1nGBsou5OW_5alloc3vec9into_iter8IntoIterTNtNtCs6IAuOt8vWmF_3syn8generics12GenericParamNtNtB1Q_5token5CommaEENCNvXs8_NtB1Q_10punctuatedINtB2Z_10PunctuatedB1M_B2v_ENtNtNtBa_6traits7collect12IntoIterator9into_iter0ENtNtB3N_8iterator8Iterator4folduNCINvNvB4x_8for_each4callB1M_NCINvMsi_B12_INtB12_3VecB1M_E14extend_trustedBN_E0E0ECs1edtEUeLQ4Q_12serde_derive, symObjAddr: 0xC44, symBinAddr: 0x773AC, symSize: 0x4C }
  - { offset: 0xA40FA, size: 0x8, addend: 0x0, symName: __RINvXs0_NtNtNtCsfvfooZQ3Axs_4core4iter8adapters3mapINtB6_3MapINtNtNtCse1nGBsou5OW_5alloc3vec9into_iter8IntoIterTNtNtCs6IAuOt8vWmF_3syn8generics14WherePredicateNtNtB1Q_5token5CommaEENCNvXs8_NtB1Q_10punctuatedINtB31_10PunctuatedB1M_B2x_ENtNtNtBa_6traits7collect12IntoIterator9into_iter0ENtNtB3P_8iterator8Iterator4folduNCINvNvB4z_8for_each4callB1M_NCINvMsi_B12_INtB12_3VecB1M_E14extend_trustedBN_E0E0ECs1edtEUeLQ4Q_12serde_derive, symObjAddr: 0xC90, symBinAddr: 0x773F8, symSize: 0x4C }
  - { offset: 0xA4193, size: 0x8, addend: 0x0, symName: __RINvXs0_NtNtNtCsfvfooZQ3Axs_4core4iter8adapters3mapINtB6_3MapNtNtCs3cP53eQoTwO_11proc_macro212token_stream8IntoIterNCNvNtNtCs1edtEUeLQ4Q_12serde_derive9internals6respan6respan0ENtNtNtBa_6traits8iterator8Iterator4folduNCINvB6_8map_foldNtB11_9TokenTreeNtCs9i5KxIbZ5ph_10proc_macro9TokenTreeuNvNtB11_3imp19into_compiler_tokenNCINvNvB2P_8for_each4callB40_NCINvXsg_B42_NtB42_11TokenStreamINtNtB2T_7collect12FromIteratorB40_E9from_iterIBO_BN_B4D_EE0E0E0EB1X_, symObjAddr: 0xCDC, symBinAddr: 0x77444, symSize: 0x58 }
  - { offset: 0xA4205, size: 0x8, addend: 0x0, symName: __RINvXs0_NtNtNtCsfvfooZQ3Axs_4core4iter8adapters3mapINtB6_3MapNtNtCs3cP53eQoTwO_11proc_macro212token_stream8IntoIterNCNvNtNtCs1edtEUeLQ4Q_12serde_derive9internals6respan6respan0ENtNtNtBa_6traits8iterator8Iterator4folduNCINvNvB2P_8for_each4callNtB11_9TokenTreeNCINvXsa_NtB11_8fallbackNtB4h_11TokenStreamINtNtB2T_7collect6ExtendB3S_E6extendBN_E0E0EB1X_, symObjAddr: 0xD34, symBinAddr: 0x7749C, symSize: 0x58 }
  - { offset: 0xA4277, size: 0x8, addend: 0x0, symName: __RINvXs0_NtNtNtCsfvfooZQ3Axs_4core4iter8adapters3mapINtB6_3MapNtNtCs6IAuOt8vWmF_3syn8generics10TypeParamsNCNvNtCs1edtEUeLQ4Q_12serde_derive5bound10with_bound0ENtNtNtBa_6traits8iterator8Iterator4folduNCINvB6_8map_foldNtCs3cP53eQoTwO_11proc_macro25IdentTB3r_uEuNCINvXs8_NtCsloNvcHxBCre_9hashbrown3setINtB4h_7HashSetB3r_NtNtNtCscOYdFFY2T5N_3std4hash6random11RandomStateEINtNtB2A_7collect6ExtendB3r_E6extendBN_E0NCINvNvB2w_8for_each4callB40_NCINvXs1i_NtB4j_3mapINtB7a_7HashMapB3r_uB54_EIB5T_B40_E6extendIBO_BN_B48_EE0E0E0EB1K_, symObjAddr: 0xD8C, symBinAddr: 0x774F4, symSize: 0x34 }
  - { offset: 0xA42E8, size: 0x8, addend: 0x0, symName: __RINvXs0_NtNtNtCsfvfooZQ3Axs_4core4iter8adapters3mapINtB6_3MapNtNtCs6IAuOt8vWmF_3syn8generics10TypeParamsNCNvNtCs1edtEUeLQ4Q_12serde_derive5bound10with_bounds1_0ENtNtNtBa_6traits8iterator8Iterator8try_folduNCINvNvB2z_4find5checkNtCs3cP53eQoTwO_11proc_macro25IdentQNCB1G_s2_0E0INtNtNtBc_3ops12control_flow11ControlFlowB3D_EEB1K_, symObjAddr: 0xDC0, symBinAddr: 0x77528, symSize: 0x38 }
  - { offset: 0xA4366, size: 0x8, addend: 0x0, symName: __RNvXs0_NtNtNtCsfvfooZQ3Axs_4core4iter8adapters3mapINtB5_3MapIBN_NtNtCs3cP53eQoTwO_11proc_macro212token_stream8IntoIterNCNvNtNtCs1edtEUeLQ4Q_12serde_derive9internals6respan6respan0ENvNtB14_3imp19into_compiler_tokenENtNtNtB9_6traits8iterator8Iterator9size_hintB20_, symObjAddr: 0x3B10, symBinAddr: 0x7A278, symSize: 0x24 }
  - { offset: 0xA43AD, size: 0x8, addend: 0x0, symName: __RNvXs0_NtNtNtCsfvfooZQ3Axs_4core4iter8adapters3mapINtB5_3MapIBN_NtNtCs6IAuOt8vWmF_3syn8generics10TypeParamsNCNvNtCs1edtEUeLQ4Q_12serde_derive5bound10with_bound0ENCINvXs8_NtCsloNvcHxBCre_9hashbrown3setINtB2I_7HashSetNtCs3cP53eQoTwO_11proc_macro25IdentNtNtNtCscOYdFFY2T5N_3std4hash6random11RandomStateEINtNtNtB9_6traits7collect6ExtendB3r_E6extendBW_E0ENtNtB4T_8iterator8Iterator9size_hintB1N_, symObjAddr: 0x3B34, symBinAddr: 0x7A29C, symSize: 0x24 }
  - { offset: 0xA43F4, size: 0x8, addend: 0x0, symName: __RNvXs0_NtNtNtCsfvfooZQ3Axs_4core4iter8adapters3mapINtB5_3MapINtNtB7_10filter_map9FilterMapINtNtCse1nGBsou5OW_5alloc5boxed3BoxDNtNtNtB9_6traits8iterator8Iteratorp4ItemRNtNtNtCs1edtEUeLQ4Q_12serde_derive9internals3ast5FieldEL_ENCNvNtB2L_5bound33with_where_predicates_from_fields0ENvMNtB1v_5sliceSNtNtCs6IAuOt8vWmF_3syn8generics14WherePredicate6to_vecEB20_4nextB2L_, symObjAddr: 0x3B58, symBinAddr: 0x7A2C0, symSize: 0x9C }
  - { offset: 0xA446E, size: 0x8, addend: 0x0, symName: __RNvXs0_NtNtNtCsfvfooZQ3Axs_4core4iter8adapters3mapINtB5_3MapINtNtB7_10filter_map9FilterMapINtNtNtBb_5slice4iter4IterNtNtNtCs1edtEUeLQ4Q_12serde_derive9internals3ast7VariantENCNvNtB1W_5bound35with_where_predicates_from_variants0ENvMNtCse1nGBsou5OW_5alloc5sliceSNtNtCs6IAuOt8vWmF_3syn8generics14WherePredicate6to_vecENtNtNtB9_6traits8iterator8Iterator4nextB1W_, symObjAddr: 0x3BF4, symBinAddr: 0x7A35C, symSize: 0x9C }
  - { offset: 0xA44E8, size: 0x8, addend: 0x0, symName: __RNvXs0_NtNtNtCsfvfooZQ3Axs_4core4iter8adapters3mapINtB5_3MapINtNtB7_3zip3ZipIBN_INtNtNtBb_3ops5range5RangejEFjENtCs3cP53eQoTwO_11proc_macro25IdentEINtNtNtBb_5slice4iter4IterNtNtNtCs1edtEUeLQ4Q_12serde_derive9internals3ast5FieldEENCNvNtB2R_2de15deserialize_seqs_0ENtNtNtB9_6traits8iterator8Iterator4nextB2R_, symObjAddr: 0x3C90, symBinAddr: 0x7A3F8, symSize: 0xA8 }
  - { offset: 0xA455A, size: 0x8, addend: 0x0, symName: __RNvXs0_NtNtNtCsfvfooZQ3Axs_4core4iter8adapters3mapINtB5_3MapINtNtB7_5chain5ChainIBN_INtNtB7_6filter6FilterIBN_NtNtCs6IAuOt8vWmF_3syn8generics10TypeParamsNCNvNtCs1edtEUeLQ4Q_12serde_derive5bound10with_bounds1_0ENCB2t_s2_0ENCB2t_s3_0EINtNtB7_6cloned6ClonedINtNtNtCse1nGBsou5OW_5alloc3vec9into_iter8IntoIterRNtNtB1O_2ty8TypePathEEENCB2t_s4_0ENtNtNtB9_6traits8iterator8Iterator4nextB2x_, symObjAddr: 0x3D38, symBinAddr: 0x7A4A0, symSize: 0xC4 }
  - { offset: 0xA45DD, size: 0x8, addend: 0x0, symName: __RNvXs0_NtNtNtCsfvfooZQ3Axs_4core4iter8adapters3mapINtB5_3MapINtNtB7_6cloned6ClonedINtNtCs6IAuOt8vWmF_3syn10punctuated4IterNtNtB1n_8generics12GenericParamEENCNvNtCs1edtEUeLQ4Q_12serde_derive5bound19with_lifetime_bound0ENtNtNtB9_6traits8iterator8Iterator4nextB2z_, symObjAddr: 0x3DFC, symBinAddr: 0x7A564, symSize: 0xC4 }
  - { offset: 0xA4650, size: 0x8, addend: 0x0, symName: __RNvXs0_NtNtNtCsfvfooZQ3Axs_4core4iter8adapters3mapINtB5_3MapINtNtB7_6filter6FilterIBN_NtNtCs6IAuOt8vWmF_3syn8generics10TypeParamsNCNvNtCs1edtEUeLQ4Q_12serde_derive5bound10with_bounds1_0ENCB25_s2_0ENCB25_s3_0ENtNtNtB9_6traits8iterator8Iterator4nextB29_, symObjAddr: 0x3EC0, symBinAddr: 0x7A628, symSize: 0xAC }
  - { offset: 0xA46C2, size: 0x8, addend: 0x0, symName: __RNvXs0_NtNtNtCsfvfooZQ3Axs_4core4iter8adapters3mapINtB5_3MapINtNtB7_6filter6FilterINtNtB7_9enumerate9EnumerateINtNtNtBb_5slice4iter4IterNtNtNtCs1edtEUeLQ4Q_12serde_derive9internals3ast5FieldEENCNvNtB2g_2de18deserialize_struct0ENCB36_s_0ENtNtNtB9_6traits8iterator8Iterator4nextB2g_, symObjAddr: 0x3F6C, symBinAddr: 0x7A6D4, symSize: 0x9C }
  - { offset: 0xA473C, size: 0x8, addend: 0x0, symName: __RNvXs0_NtNtNtCsfvfooZQ3Axs_4core4iter8adapters3mapINtB5_3MapINtNtB7_6filter6FilterINtNtB7_9enumerate9EnumerateINtNtNtBb_5slice4iter4IterNtNtNtCs1edtEUeLQ4Q_12serde_derive9internals3ast5FieldEENCNvNtB2g_2de18deserialize_struct0ENCB36_s_0ENtNtNtB9_6traits8iterator8Iterator9size_hintB2g_, symObjAddr: 0x4008, symBinAddr: 0x7A770, symSize: 0x24 }
  - { offset: 0xA4783, size: 0x8, addend: 0x0, symName: __RNvXs0_NtNtNtCsfvfooZQ3Axs_4core4iter8adapters3mapINtB5_3MapINtNtB7_6filter6FilterINtNtB7_9enumerate9EnumerateINtNtNtBb_5slice4iter4IterNtNtNtCs1edtEUeLQ4Q_12serde_derive9internals3ast5FieldEENCNvNtB2g_3ser30serialize_tuple_struct_visitor0ENCB36_s_0ENtNtNtB9_6traits8iterator8Iterator4nextB2g_, symObjAddr: 0x402C, symBinAddr: 0x7A794, symSize: 0x9C }
  - { offset: 0xA47FD, size: 0x8, addend: 0x0, symName: __RNvXs0_NtNtNtCsfvfooZQ3Axs_4core4iter8adapters3mapINtB5_3MapINtNtB7_6filter6FilterINtNtB7_9enumerate9EnumerateINtNtNtBb_5slice4iter4IterNtNtNtCs1edtEUeLQ4Q_12serde_derive9internals3ast5FieldEENCNvNtB2g_3ser30serialize_tuple_struct_visitor0ENCB36_s_0ENtNtNtB9_6traits8iterator8Iterator9size_hintB2g_, symObjAddr: 0x40C8, symBinAddr: 0x7A830, symSize: 0x24 }
  - { offset: 0xA4844, size: 0x8, addend: 0x0, symName: __RNvXs0_NtNtNtCsfvfooZQ3Axs_4core4iter8adapters3mapINtB5_3MapINtNtB7_6filter6FilterINtNtB7_9enumerate9EnumerateINtNtNtBb_5slice4iter4IterNtNtNtCs1edtEUeLQ4Q_12serde_derive9internals3ast7VariantEENCNvNtB2g_2de25prepare_enum_variant_enum0ENCB38_s1_0ENtNtNtB9_6traits8iterator8Iterator4nextB2g_, symObjAddr: 0x40EC, symBinAddr: 0x7A854, symSize: 0x80 }
  - { offset: 0xA48BE, size: 0x8, addend: 0x0, symName: __RNvXs0_NtNtNtCsfvfooZQ3Axs_4core4iter8adapters3mapINtB5_3MapINtNtB7_6filter6FilterINtNtB7_9enumerate9EnumerateINtNtNtBb_5slice4iter4IterNtNtNtCs1edtEUeLQ4Q_12serde_derive9internals3ast7VariantEENCNvNtB2g_2de25prepare_enum_variant_enum0ENCB38_s2_0ENtNtNtB9_6traits8iterator8Iterator4nextB2g_, symObjAddr: 0x416C, symBinAddr: 0x7A8D4, symSize: 0x9C }
  - { offset: 0xA4938, size: 0x8, addend: 0x0, symName: __RNvXs0_NtNtNtCsfvfooZQ3Axs_4core4iter8adapters3mapINtB5_3MapINtNtB7_6filter6FilterINtNtB7_9enumerate9EnumerateINtNtNtBb_5slice4iter4IterNtNtNtCs1edtEUeLQ4Q_12serde_derive9internals3ast7VariantEENCNvNtB2g_2de25prepare_enum_variant_enum0ENCB38_s2_0ENtNtNtB9_6traits8iterator8Iterator9size_hintB2g_, symObjAddr: 0x4208, symBinAddr: 0x7A970, symSize: 0x24 }
  - { offset: 0xA497F, size: 0x8, addend: 0x0, symName: __RNvXs0_NtNtNtCsfvfooZQ3Axs_4core4iter8adapters3mapINtB5_3MapINtNtB7_6filter6FilterINtNtB7_9enumerate9EnumerateINtNtNtBb_5slice4iter4IterNtNtNtCs1edtEUeLQ4Q_12serde_derive9internals3ast7VariantEENCNvNtB2g_2de34deserialize_adjacently_tagged_enum0ENCB38_s_0ENtNtNtB9_6traits8iterator8Iterator4nextB2g_, symObjAddr: 0x422C, symBinAddr: 0x7A994, symSize: 0x9C }
  - { offset: 0xA49F9, size: 0x8, addend: 0x0, symName: __RNvXs0_NtNtNtCsfvfooZQ3Axs_4core4iter8adapters3mapINtB5_3MapINtNtB7_6filter6FilterINtNtB7_9enumerate9EnumerateINtNtNtBb_5slice4iter4IterNtNtNtCs1edtEUeLQ4Q_12serde_derive9internals3ast7VariantEENCNvNtB2g_2de34deserialize_adjacently_tagged_enum0ENCB38_s_0ENtNtNtB9_6traits8iterator8Iterator9size_hintB2g_, symObjAddr: 0x42C8, symBinAddr: 0x7AA30, symSize: 0x24 }
  - { offset: 0xA4A40, size: 0x8, addend: 0x0, symName: __RNvXs0_NtNtNtCsfvfooZQ3Axs_4core4iter8adapters3mapINtB5_3MapINtNtB7_6filter6FilterINtNtB7_9enumerate9EnumerateINtNtNtBb_5slice4iter4IterNtNtNtCs1edtEUeLQ4Q_12serde_derive9internals3ast7VariantEENCNvNtB2g_2de34deserialize_externally_tagged_enum0ENCB38_s_0ENtNtNtB9_6traits8iterator8Iterator4nextB2g_, symObjAddr: 0x42EC, symBinAddr: 0x7AA54, symSize: 0x9C }
  - { offset: 0xA4ABA, size: 0x8, addend: 0x0, symName: __RNvXs0_NtNtNtCsfvfooZQ3Axs_4core4iter8adapters3mapINtB5_3MapINtNtB7_6filter6FilterINtNtB7_9enumerate9EnumerateINtNtNtBb_5slice4iter4IterNtNtNtCs1edtEUeLQ4Q_12serde_derive9internals3ast7VariantEENCNvNtB2g_2de34deserialize_internally_tagged_enum0ENCB38_s_0ENtNtNtB9_6traits8iterator8Iterator4nextB2g_, symObjAddr: 0x4388, symBinAddr: 0x7AAF0, symSize: 0x9C }
  - { offset: 0xA4B34, size: 0x8, addend: 0x0, symName: __RNvXs0_NtNtNtCsfvfooZQ3Axs_4core4iter8adapters3mapINtB5_3MapINtNtB7_6filter6FilterINtNtNtBb_5slice4iter4IterNtNtNtCs1edtEUeLQ4Q_12serde_derive9internals3ast5FieldENCNvNtB1O_3ser24serialize_struct_visitor0ENCB2D_s_0ENtNtNtB9_6traits8iterator8Iterator4nextB1O_, symObjAddr: 0x4424, symBinAddr: 0x7AB8C, symSize: 0x90 }
  - { offset: 0xA4BAE, size: 0x8, addend: 0x0, symName: __RNvXs0_NtNtNtCsfvfooZQ3Axs_4core4iter8adapters3mapINtB5_3MapINtNtB7_6filter6FilterINtNtNtBb_5slice4iter4IterNtNtNtCs1edtEUeLQ4Q_12serde_derive9internals3ast5FieldENCNvNtB1O_3ser24serialize_struct_visitor0ENCB2D_s_0ENtNtNtB9_6traits8iterator8Iterator9size_hintB1O_, symObjAddr: 0x44B4, symBinAddr: 0x7AC1C, symSize: 0x24 }
  - { offset: 0xA4BF5, size: 0x8, addend: 0x0, symName: __RNvXs0_NtNtNtCsfvfooZQ3Axs_4core4iter8adapters3mapINtB5_3MapINtNtB7_6filter6FilterINtNtNtBb_5slice4iter4IterNtNtNtCs1edtEUeLQ4Q_12serde_derive9internals3ast7VariantENCNvNtB1O_2de31deserialize_untagged_enum_after0ENCB2F_s_0ENtNtNtB9_6traits8iterator8Iterator4nextB1O_, symObjAddr: 0x44D8, symBinAddr: 0x7AC40, symSize: 0x94 }
  - { offset: 0xA4C6F, size: 0x8, addend: 0x0, symName: __RNvXs0_NtNtNtCsfvfooZQ3Axs_4core4iter8adapters3mapINtB5_3MapINtNtB7_6filter6FilterINtNtNtBb_5slice4iter4IterTRNtNtNtCs1edtEUeLQ4Q_12serde_derive9internals3ast5FieldNtCs3cP53eQoTwO_11proc_macro25IdentEENCNvNtB1Q_2de15deserialize_maps1_0ENCB3f_s2_0ENtNtNtB9_6traits8iterator8Iterator4nextB1Q_, symObjAddr: 0x456C, symBinAddr: 0x7ACD4, symSize: 0x90 }
  - { offset: 0xA4CE9, size: 0x8, addend: 0x0, symName: __RNvXs0_NtNtNtCsfvfooZQ3Axs_4core4iter8adapters3mapINtB5_3MapINtNtB7_6filter6FilterINtNtNtBb_5slice4iter4IterTRNtNtNtCs1edtEUeLQ4Q_12serde_derive9internals3ast5FieldNtCs3cP53eQoTwO_11proc_macro25IdentEENCNvNtB1Q_2de15deserialize_maps4_0ENCB3f_s5_0ENtNtNtB9_6traits8iterator8Iterator4nextB1Q_, symObjAddr: 0x45FC, symBinAddr: 0x7AD64, symSize: 0x90 }
  - { offset: 0xA4D63, size: 0x8, addend: 0x0, symName: __RNvXs0_NtNtNtCsfvfooZQ3Axs_4core4iter8adapters3mapINtB5_3MapINtNtB7_6filter6FilterINtNtNtBb_5slice4iter4IterTRNtNtNtCs1edtEUeLQ4Q_12serde_derive9internals3ast5FieldNtCs3cP53eQoTwO_11proc_macro25IdentEENCNvNtB1Q_2de15deserialize_maps6_0ENCB3f_s7_0ENtNtNtB9_6traits8iterator8Iterator4nextB1Q_, symObjAddr: 0x468C, symBinAddr: 0x7ADF4, symSize: 0x90 }
  - { offset: 0xA4DDD, size: 0x8, addend: 0x0, symName: __RNvXs0_NtNtNtCsfvfooZQ3Axs_4core4iter8adapters3mapINtB5_3MapINtNtB7_6filter6FilterINtNtNtBb_5slice4iter4IterTRNtNtNtCs1edtEUeLQ4Q_12serde_derive9internals3ast5FieldNtCs3cP53eQoTwO_11proc_macro25IdentEENCNvNtB1Q_2de15deserialize_maps_0ENCB3f_s0_0ENtNtNtB9_6traits8iterator8Iterator4nextB1Q_, symObjAddr: 0x471C, symBinAddr: 0x7AE84, symSize: 0x90 }
  - { offset: 0xA4E57, size: 0x8, addend: 0x0, symName: __RNvXs0_NtNtNtCsfvfooZQ3Axs_4core4iter8adapters3mapINtB5_3MapINtNtB7_9enumerate9EnumerateINtNtCs6IAuOt8vWmF_3syn10punctuated4IterNtNtB1t_4data5FieldEENCNvNtNtCs1edtEUeLQ4Q_12serde_derive9internals3ast15fields_from_ast0ENtNtNtB9_6traits8iterator8Iterator4nextB2v_, symObjAddr: 0x47AC, symBinAddr: 0x7AF14, symSize: 0xA8 }
  - { offset: 0xA4ED1, size: 0x8, addend: 0x0, symName: __RNvXs0_NtNtNtCsfvfooZQ3Axs_4core4iter8adapters3mapINtB5_3MapINtNtB7_9enumerate9EnumerateINtNtCs6IAuOt8vWmF_3syn10punctuated4IterNtNtB1t_4data5FieldEENCNvNtNtCs1edtEUeLQ4Q_12serde_derive9internals3ast15fields_from_ast0ENtNtNtB9_6traits8iterator8Iterator9size_hintB2v_, symObjAddr: 0x4854, symBinAddr: 0x7AFBC, symSize: 0x24 }
  - { offset: 0xA4F18, size: 0x8, addend: 0x0, symName: __RNvXs0_NtNtNtCsfvfooZQ3Axs_4core4iter8adapters3mapINtB5_3MapINtNtB7_9enumerate9EnumerateINtNtNtBb_5slice4iter4IterNtNtCs1edtEUeLQ4Q_12serde_derive2de16FieldWithAliasesEENCNvB1Q_22deserialize_identifiers0_0ENtNtNtB9_6traits8iterator8Iterator4nextB1S_, symObjAddr: 0x4878, symBinAddr: 0x7AFE0, symSize: 0x9C }
  - { offset: 0xA4F92, size: 0x8, addend: 0x0, symName: __RNvXs0_NtNtNtCsfvfooZQ3Axs_4core4iter8adapters3mapINtB5_3MapINtNtB7_9enumerate9EnumerateINtNtNtBb_5slice4iter4IterNtNtNtCs1edtEUeLQ4Q_12serde_derive9internals3ast5FieldEENCNvNtB1U_2de15deserialize_map0ENtNtNtB9_6traits8iterator8Iterator9size_hintB1U_, symObjAddr: 0x4914, symBinAddr: 0x7B07C, symSize: 0x24 }
  - { offset: 0xA4FD9, size: 0x8, addend: 0x0, symName: __RNvXs0_NtNtNtCsfvfooZQ3Axs_4core4iter8adapters3mapINtB5_3MapINtNtB7_9enumerate9EnumerateINtNtNtBb_5slice4iter4IterNtNtNtCs1edtEUeLQ4Q_12serde_derive9internals3ast7VariantEENCNvNtB1U_3ser14serialize_enum0ENtNtNtB9_6traits8iterator8Iterator9size_hintB1U_, symObjAddr: 0x4938, symBinAddr: 0x7B0A0, symSize: 0x24 }
  - { offset: 0xA5020, size: 0x8, addend: 0x0, symName: __RNvXs0_NtNtNtCsfvfooZQ3Axs_4core4iter8adapters3mapINtB5_3MapINtNtCs6IAuOt8vWmF_3syn10punctuated4IterNtNtB11_4data7VariantENCNvNtNtCs1edtEUeLQ4Q_12serde_derive9internals3ast13enum_from_ast0ENtNtNtB9_6traits8iterator8Iterator4nextB24_, symObjAddr: 0x495C, symBinAddr: 0x7B0C4, symSize: 0x9C }
  - { offset: 0xA509A, size: 0x8, addend: 0x0, symName: __RNvXs0_NtNtNtCsfvfooZQ3Axs_4core4iter8adapters3mapINtB5_3MapINtNtCs6IAuOt8vWmF_3syn10punctuated4IterNtNtB11_4data7VariantENCNvNtNtCs1edtEUeLQ4Q_12serde_derive9internals3ast13enum_from_ast0ENtNtNtB9_6traits8iterator8Iterator9size_hintB24_, symObjAddr: 0x49F8, symBinAddr: 0x7B160, symSize: 0x24 }
  - { offset: 0xA50E1, size: 0x8, addend: 0x0, symName: __RNvXs0_NtNtNtCsfvfooZQ3Axs_4core4iter8adapters3mapINtB5_3MapINtNtCs6IAuOt8vWmF_3syn10punctuated4IterNtNtB11_8generics12GenericParamENCNvNtCs1edtEUeLQ4Q_12serde_derive5bound12type_of_item0ENtNtNtB9_6traits8iterator8Iterator4nextB2c_, symObjAddr: 0x4A1C, symBinAddr: 0x7B184, symSize: 0x9C }
  - { offset: 0xA515B, size: 0x8, addend: 0x0, symName: __RNvXs0_NtNtNtCsfvfooZQ3Axs_4core4iter8adapters3mapINtB5_3MapINtNtCs6IAuOt8vWmF_3syn10punctuated4IterNtNtB11_8generics12GenericParamENCNvNtCs1edtEUeLQ4Q_12serde_derive5bound16without_defaults0ENtNtNtB9_6traits8iterator8Iterator4nextB2c_, symObjAddr: 0x4AB8, symBinAddr: 0x7B220, symSize: 0x9C }
  - { offset: 0xA51D5, size: 0x8, addend: 0x0, symName: __RNvXs0_NtNtNtCsfvfooZQ3Axs_4core4iter8adapters3mapINtB5_3MapINtNtNtBb_3ops5range5RangejEFjENtCs3cP53eQoTwO_11proc_macro25IdentENtNtNtB9_6traits8iterator8Iterator24___iterator_get_uncheckedCs1edtEUeLQ4Q_12serde_derive, symObjAddr: 0x4B54, symBinAddr: 0x7B2BC, symSize: 0x48 }
  - { offset: 0xA524F, size: 0x8, addend: 0x0, symName: __RNvXs0_NtNtNtCsfvfooZQ3Axs_4core4iter8adapters3mapINtB5_3MapINtNtNtBb_3ops5range5RangejEFjENtCs3cP53eQoTwO_11proc_macro25IdentENtNtNtB9_6traits8iterator8Iterator4nextCs1edtEUeLQ4Q_12serde_derive, symObjAddr: 0x4B9C, symBinAddr: 0x7B304, symSize: 0x88 }
  - { offset: 0xA52D1, size: 0x8, addend: 0x0, symName: __RNvXs0_NtNtNtCsfvfooZQ3Axs_4core4iter8adapters3mapINtB5_3MapINtNtNtBb_3ops5range5RangejEFjENtCs3cP53eQoTwO_11proc_macro25IdentENtNtNtB9_6traits8iterator8Iterator9size_hintCs1edtEUeLQ4Q_12serde_derive, symObjAddr: 0x4C24, symBinAddr: 0x7B38C, symSize: 0x24 }
  - { offset: 0xA5318, size: 0x8, addend: 0x0, symName: __RNvXs0_NtNtNtCsfvfooZQ3Axs_4core4iter8adapters3mapINtB5_3MapINtNtNtBb_3ops5range5RangejENCNCNvNtCs1edtEUeLQ4Q_12serde_derive7pretend21pretend_variants_used00ENtNtNtB9_6traits8iterator8Iterator9size_hintB1w_, symObjAddr: 0x4C48, symBinAddr: 0x7B3B0, symSize: 0x24 }
  - { offset: 0xA535F, size: 0x8, addend: 0x0, symName: __RNvXs0_NtNtNtCsfvfooZQ3Axs_4core4iter8adapters3mapINtB5_3MapINtNtNtBb_3ops5range5RangejENCNvNtCs1edtEUeLQ4Q_12serde_derive2de25unwrap_to_variant_closures_0ENtNtNtB9_6traits8iterator8Iterator4nextB1u_, symObjAddr: 0x4C6C, symBinAddr: 0x7B3D4, symSize: 0x8C }
  - { offset: 0xA53D9, size: 0x8, addend: 0x0, symName: __RNvXs0_NtNtNtCsfvfooZQ3Axs_4core4iter8adapters3mapINtB5_3MapINtNtNtBb_3ops5range5RangejENCNvNtCs1edtEUeLQ4Q_12serde_derive3ser17serialize_variant0ENtNtNtB9_6traits8iterator8Iterator4nextB1u_, symObjAddr: 0x4CF8, symBinAddr: 0x7B460, symSize: 0x8C }
  - { offset: 0xA5453, size: 0x8, addend: 0x0, symName: __RNvXs0_NtNtNtCsfvfooZQ3Axs_4core4iter8adapters3mapINtB5_3MapINtNtNtBb_3ops5range5RangejENCNvNtCs1edtEUeLQ4Q_12serde_derive3ser19wrap_serialize_with0ENtNtNtB9_6traits8iterator8Iterator4nextB1u_, symObjAddr: 0x4D84, symBinAddr: 0x7B4EC, symSize: 0x8C }
  - { offset: 0xA54CD, size: 0x8, addend: 0x0, symName: __RNvXs0_NtNtNtCsfvfooZQ3Axs_4core4iter8adapters3mapINtB5_3MapINtNtNtBb_3ops5range5RangejENCNvNtCs1edtEUeLQ4Q_12serde_derive3ser35serialize_adjacently_tagged_variants_0ENtNtNtB9_6traits8iterator8Iterator9size_hintB1u_, symObjAddr: 0x4E10, symBinAddr: 0x7B578, symSize: 0x24 }
  - { offset: 0xA5514, size: 0x8, addend: 0x0, symName: __RNvXs0_NtNtNtCsfvfooZQ3Axs_4core4iter8adapters3mapINtB5_3MapINtNtNtBb_3ops5range9RangeFromjENCNCNvNtCs1edtEUeLQ4Q_12serde_derive7pretend24pretend_fields_used_enum0s_0ENtNtNtB9_6traits8iterator8Iterator4nextB1A_, symObjAddr: 0x4E34, symBinAddr: 0x7B59C, symSize: 0x8C }
  - { offset: 0xA558E, size: 0x8, addend: 0x0, symName: __RNvXs0_NtNtNtCsfvfooZQ3Axs_4core4iter8adapters3mapINtB5_3MapINtNtNtBb_3ops5range9RangeFromjENCNvNtCs1edtEUeLQ4Q_12serde_derive7pretend26pretend_fields_used_structs_0ENtNtNtB9_6traits8iterator8Iterator4nextB1y_, symObjAddr: 0x4EC0, symBinAddr: 0x7B628, symSize: 0x8C }
  - { offset: 0xA5608, size: 0x8, addend: 0x0, symName: __RNvXs0_NtNtNtCsfvfooZQ3Axs_4core4iter8adapters3mapINtB5_3MapINtNtNtBb_5slice4iter4IterNtNtCs1edtEUeLQ4Q_12serde_derive2de16FieldWithAliasesENCNvB1o_18deserialize_structs0_0ENtNtNtB9_6traits8iterator8Iterator4nextB1q_, symObjAddr: 0x4F4C, symBinAddr: 0x7B6B4, symSize: 0x74 }
  - { offset: 0xA5682, size: 0x8, addend: 0x0, symName: __RNvXs0_NtNtNtCsfvfooZQ3Axs_4core4iter8adapters3mapINtB5_3MapINtNtNtBb_5slice4iter4IterNtNtCs1edtEUeLQ4Q_12serde_derive2de16FieldWithAliasesENCNvB1o_22deserialize_identifier0ENtNtNtB9_6traits8iterator8Iterator4nextB1q_, symObjAddr: 0x4FC0, symBinAddr: 0x7B728, symSize: 0x90 }
  - { offset: 0xA56FC, size: 0x8, addend: 0x0, symName: __RNvXs0_NtNtNtCsfvfooZQ3Axs_4core4iter8adapters3mapINtB5_3MapINtNtNtBb_5slice4iter4IterNtNtCs1edtEUeLQ4Q_12serde_derive2de16FieldWithAliasesENCNvB1o_22deserialize_identifiers_0ENtNtNtB9_6traits8iterator8Iterator4nextB1q_, symObjAddr: 0x5050, symBinAddr: 0x7B7B8, symSize: 0x90 }
  - { offset: 0xA5776, size: 0x8, addend: 0x0, symName: __RNvXs0_NtNtNtCsfvfooZQ3Axs_4core4iter8adapters3mapINtB5_3MapINtNtNtBb_5slice4iter4IterNtNtCs1edtEUeLQ4Q_12serde_derive2de16FieldWithAliasesENCNvB1o_29deserialize_custom_identifiers0_0ENtNtNtB9_6traits8iterator8Iterator4nextB1q_, symObjAddr: 0x50E0, symBinAddr: 0x7B848, symSize: 0x74 }
  - { offset: 0xA57F0, size: 0x8, addend: 0x0, symName: __RNvXs0_NtNtNtCsfvfooZQ3Axs_4core4iter8adapters3mapINtB5_3MapINtNtNtBb_5slice4iter4IterNtNtCs1edtEUeLQ4Q_12serde_derive2de16FieldWithAliasesENCNvB1o_32deserialize_generated_identifier0ENtNtNtB9_6traits8iterator8Iterator9size_hintB1q_, symObjAddr: 0x5154, symBinAddr: 0x7B8BC, symSize: 0x24 }
  - { offset: 0xA5837, size: 0x8, addend: 0x0, symName: __RNvXs0_NtNtNtCsfvfooZQ3Axs_4core4iter8adapters3mapINtB5_3MapINtNtNtBb_5slice4iter4IterNtNtNtCs1edtEUeLQ4Q_12serde_derive9internals3ast5FieldENCNCNvNtB1s_7pretend21pretend_variants_used0s_0ENtNtNtB9_6traits8iterator8Iterator4nextB1s_, symObjAddr: 0x5178, symBinAddr: 0x7B8E0, symSize: 0x74 }
  - { offset: 0xA58B1, size: 0x8, addend: 0x0, symName: __RNvXs0_NtNtNtCsfvfooZQ3Axs_4core4iter8adapters3mapINtB5_3MapINtNtNtBb_5slice4iter4IterNtNtNtCs1edtEUeLQ4Q_12serde_derive9internals3ast5FieldENCNCNvNtB1s_7pretend24pretend_fields_used_enum00ENtNtNtB9_6traits8iterator8Iterator4nextB1s_, symObjAddr: 0x51EC, symBinAddr: 0x7B954, symSize: 0x74 }
  - { offset: 0xA592B, size: 0x8, addend: 0x0, symName: __RNvXs0_NtNtNtCsfvfooZQ3Axs_4core4iter8adapters3mapINtB5_3MapINtNtNtBb_5slice4iter4IterNtNtNtCs1edtEUeLQ4Q_12serde_derive9internals3ast5FieldENCNvNtB1s_2de15deserialize_seqs0_0ENtNtNtB9_6traits8iterator8Iterator4nextB1s_, symObjAddr: 0x5260, symBinAddr: 0x7B9C8, symSize: 0x74 }
  - { offset: 0xA59A5, size: 0x8, addend: 0x0, symName: __RNvXs0_NtNtNtCsfvfooZQ3Axs_4core4iter8adapters3mapINtB5_3MapINtNtNtBb_5slice4iter4IterNtNtNtCs1edtEUeLQ4Q_12serde_derive9internals3ast5FieldENCNvNtB1s_2de23deserialize_transparents_0ENtNtNtB9_6traits8iterator8Iterator4nextB1s_, symObjAddr: 0x52D4, symBinAddr: 0x7BA3C, symSize: 0x90 }
  - { offset: 0xA5A1F, size: 0x8, addend: 0x0, symName: __RNvXs0_NtNtNtCsfvfooZQ3Axs_4core4iter8adapters3mapINtB5_3MapINtNtNtBb_5slice4iter4IterNtNtNtCs1edtEUeLQ4Q_12serde_derive9internals3ast5FieldENCNvNtB1s_2de25unwrap_to_variant_closure0ENtNtNtB9_6traits8iterator8Iterator4nextB1s_, symObjAddr: 0x5364, symBinAddr: 0x7BACC, symSize: 0x74 }
  - { offset: 0xA5A99, size: 0x8, addend: 0x0, symName: __RNvXs0_NtNtNtCsfvfooZQ3Axs_4core4iter8adapters3mapINtB5_3MapINtNtNtBb_5slice4iter4IterNtNtNtCs1edtEUeLQ4Q_12serde_derive9internals3ast5FieldENCNvNtB1s_2de25unwrap_to_variant_closures0_0ENtNtNtB9_6traits8iterator8Iterator4nextB1s_, symObjAddr: 0x53D8, symBinAddr: 0x7BB40, symSize: 0x74 }
  - { offset: 0xA5B13, size: 0x8, addend: 0x0, symName: __RNvXs0_NtNtNtCsfvfooZQ3Axs_4core4iter8adapters3mapINtB5_3MapINtNtNtBb_5slice4iter4IterNtNtNtCs1edtEUeLQ4Q_12serde_derive9internals3ast5FieldENCNvNtB1s_2de29wrap_deserialize_variant_with0ENtNtNtB9_6traits8iterator8Iterator4nextB1s_, symObjAddr: 0x544C, symBinAddr: 0x7BBB4, symSize: 0x74 }
  - { offset: 0xA5B8D, size: 0x8, addend: 0x0, symName: __RNvXs0_NtNtNtCsfvfooZQ3Axs_4core4iter8adapters3mapINtB5_3MapINtNtNtBb_5slice4iter4IterNtNtNtCs1edtEUeLQ4Q_12serde_derive9internals3ast5FieldENCNvNtB1s_3ser17serialize_variants_0ENtNtNtB9_6traits8iterator8Iterator4nextB1s_, symObjAddr: 0x54C0, symBinAddr: 0x7BC28, symSize: 0x74 }
  - { offset: 0xA5C07, size: 0x8, addend: 0x0, symName: __RNvXs0_NtNtNtCsfvfooZQ3Axs_4core4iter8adapters3mapINtB5_3MapINtNtNtBb_5slice4iter4IterNtNtNtCs1edtEUeLQ4Q_12serde_derive9internals3ast5FieldENCNvNtB1s_3ser27wrap_serialize_variant_with0ENtNtNtB9_6traits8iterator8Iterator9size_hintB1s_, symObjAddr: 0x5534, symBinAddr: 0x7BC9C, symSize: 0x24 }
  - { offset: 0xA5C4E, size: 0x8, addend: 0x0, symName: __RNvXs0_NtNtNtCsfvfooZQ3Axs_4core4iter8adapters3mapINtB5_3MapINtNtNtBb_5slice4iter4IterNtNtNtCs1edtEUeLQ4Q_12serde_derive9internals3ast5FieldENCNvNtB1s_3ser27wrap_serialize_variant_withs_0ENtNtNtB9_6traits8iterator8Iterator9size_hintB1s_, symObjAddr: 0x5558, symBinAddr: 0x7BCC0, symSize: 0x24 }
  - { offset: 0xA5C95, size: 0x8, addend: 0x0, symName: __RNvXs0_NtNtNtCsfvfooZQ3Axs_4core4iter8adapters3mapINtB5_3MapINtNtNtBb_5slice4iter4IterNtNtNtCs1edtEUeLQ4Q_12serde_derive9internals3ast5FieldENCNvNtB1s_3ser35serialize_adjacently_tagged_variant0ENtNtNtB9_6traits8iterator8Iterator4nextB1s_, symObjAddr: 0x557C, symBinAddr: 0x7BCE4, symSize: 0x74 }
  - { offset: 0xA5D0F, size: 0x8, addend: 0x0, symName: __RNvXs0_NtNtNtCsfvfooZQ3Axs_4core4iter8adapters3mapINtB5_3MapINtNtNtBb_5slice4iter4IterNtNtNtCs1edtEUeLQ4Q_12serde_derive9internals3ast5FieldENCNvNtB1s_3ser35serialize_adjacently_tagged_variants0_0ENtNtNtB9_6traits8iterator8Iterator9size_hintB1s_, symObjAddr: 0x55F0, symBinAddr: 0x7BD58, symSize: 0x24 }
  - { offset: 0xA5D56, size: 0x8, addend: 0x0, symName: __RNvXs0_NtNtNtCsfvfooZQ3Axs_4core4iter8adapters3mapINtB5_3MapINtNtNtBb_5slice4iter4IterNtNtNtCs1edtEUeLQ4Q_12serde_derive9internals3ast5FieldENCNvNtB1s_3ser37serialize_struct_variant_with_flattens0_0ENtNtNtB9_6traits8iterator8Iterator9size_hintB1s_, symObjAddr: 0x5614, symBinAddr: 0x7BD7C, symSize: 0x24 }
  - { offset: 0xA5D9D, size: 0x8, addend: 0x0, symName: __RNvXs0_NtNtNtCsfvfooZQ3Axs_4core4iter8adapters3mapINtB5_3MapINtNtNtBb_5slice4iter4IterNtNtNtCs1edtEUeLQ4Q_12serde_derive9internals3ast5FieldENCNvNtB1s_3ser37serialize_struct_variant_with_flattens_0ENtNtNtB9_6traits8iterator8Iterator4nextB1s_, symObjAddr: 0x5638, symBinAddr: 0x7BDA0, symSize: 0x74 }
  - { offset: 0xA5E17, size: 0x8, addend: 0x0, symName: __RNvXs0_NtNtNtCsfvfooZQ3Axs_4core4iter8adapters3mapINtB5_3MapINtNtNtBb_5slice4iter4IterNtNtNtCs1edtEUeLQ4Q_12serde_derive9internals3ast5FieldENCNvNtB1s_7pretend26pretend_fields_used_struct0ENtNtNtB9_6traits8iterator8Iterator4nextB1s_, symObjAddr: 0x56AC, symBinAddr: 0x7BE14, symSize: 0x74 }
  - { offset: 0xA5E91, size: 0x8, addend: 0x0, symName: __RNvXs0_NtNtNtCsfvfooZQ3Axs_4core4iter8adapters3mapINtB5_3MapINtNtNtBb_5slice4iter4IterNtNtNtCs1edtEUeLQ4Q_12serde_derive9internals3ast5FieldENCNvNtB1s_7pretend33pretend_fields_used_struct_packed0ENtNtNtB9_6traits8iterator8Iterator9size_hintB1s_, symObjAddr: 0x5720, symBinAddr: 0x7BE88, symSize: 0x24 }
  - { offset: 0xA5ED8, size: 0x8, addend: 0x0, symName: __RNvXs0_NtNtNtCsfvfooZQ3Axs_4core4iter8adapters3mapINtB5_3MapINtNtNtBb_5slice4iter4IterNtNtNtCs1edtEUeLQ4Q_12serde_derive9internals3ast7VariantENCNvMs_B1o_NtB1o_4Data10all_fields0ENtNtNtB9_6traits8iterator8Iterator4nextB1s_, symObjAddr: 0x5744, symBinAddr: 0x7BEAC, symSize: 0x7C }
  - { offset: 0xA5F52, size: 0x8, addend: 0x0, symName: __RNvXs0_NtNtNtCsfvfooZQ3Axs_4core4iter8adapters3mapINtB5_3MapINtNtNtBb_5slice4iter4IterNtNtNtCs1edtEUeLQ4Q_12serde_derive9internals3ast7VariantENCNvMs_B1o_NtB1o_4Data10all_fields0ENtNtNtB9_6traits8iterator8Iterator9size_hintB1s_, symObjAddr: 0x57C0, symBinAddr: 0x7BF28, symSize: 0x24 }
  - { offset: 0xA5F99, size: 0x8, addend: 0x0, symName: __RNvXs0_NtNtNtCsfvfooZQ3Axs_4core4iter8adapters3mapINtB5_3MapINtNtNtBb_5slice4iter4IterNtNtNtCs1edtEUeLQ4Q_12serde_derive9internals3ast7VariantENCNvNtB1s_2de29deserialize_custom_identifiers_0ENtNtNtB9_6traits8iterator8Iterator9size_hintB1s_, symObjAddr: 0x57E4, symBinAddr: 0x7BF4C, symSize: 0x24 }
  - { offset: 0xA5FE0, size: 0x8, addend: 0x0, symName: __RNvXs0_NtNtNtCsfvfooZQ3Axs_4core4iter8adapters3mapINtB5_3MapINtNtNtBb_5slice4iter4IterNtNtNtCs1edtEUeLQ4Q_12serde_derive9internals3ast7VariantENCNvNtB1s_7pretend21pretend_variants_used0ENtNtNtB9_6traits8iterator8Iterator4nextB1s_, symObjAddr: 0x5808, symBinAddr: 0x7BF70, symSize: 0x90 }
  - { offset: 0xA605A, size: 0x8, addend: 0x0, symName: __RNvXs0_NtNtNtCsfvfooZQ3Axs_4core4iter8adapters3mapINtB5_3MapINtNtNtBb_5slice4iter4IterTRNtNtNtCs1edtEUeLQ4Q_12serde_derive9internals3ast5FieldNtCs3cP53eQoTwO_11proc_macro25IdentEENCNvNtB1u_2de15deserialize_maps8_0ENtNtNtB9_6traits8iterator8Iterator4nextB1u_, symObjAddr: 0x5898, symBinAddr: 0x7C000, symSize: 0x90 }
  - { offset: 0xA60D4, size: 0x8, addend: 0x0, symName: __RNvXs0_NtNtNtCsfvfooZQ3Axs_4core4iter8adapters3mapINtB5_3MapINtNtNtBb_5slice4iter4IterhENCNvNtCse1nGBsou5OW_5alloc3str13replace_ascii0ENtNtNtB9_6traits8iterator8Iterator9size_hintCs1edtEUeLQ4Q_12serde_derive, symObjAddr: 0x5928, symBinAddr: 0x7C090, symSize: 0x24 }
  - { offset: 0xA611B, size: 0x8, addend: 0x0, symName: __RNvXs0_NtNtNtCsfvfooZQ3Axs_4core4iter8adapters3mapINtB5_3MapINtNtNtCse1nGBsou5OW_5alloc3vec9into_iter8IntoIterTNtNtCs6IAuOt8vWmF_3syn8generics12GenericParamNtNtB1P_5token5CommaEENCNvXs8_NtB1P_10punctuatedINtB2Y_10PunctuatedB1L_B2u_ENtNtNtB9_6traits7collect12IntoIterator9into_iter0ENtNtB3M_8iterator8Iterator9size_hintCs1edtEUeLQ4Q_12serde_derive, symObjAddr: 0x594C, symBinAddr: 0x7C0B4, symSize: 0x24 }
  - { offset: 0xA6162, size: 0x8, addend: 0x0, symName: __RNvXs0_NtNtNtCsfvfooZQ3Axs_4core4iter8adapters3mapINtB5_3MapINtNtNtCse1nGBsou5OW_5alloc3vec9into_iter8IntoIterTNtNtCs6IAuOt8vWmF_3syn8generics14WherePredicateNtNtB1P_5token5CommaEENCNvXs8_NtB1P_10punctuatedINtB30_10PunctuatedB1L_B2w_ENtNtNtB9_6traits7collect12IntoIterator9into_iter0ENtNtB3O_8iterator8Iterator9size_hintCs1edtEUeLQ4Q_12serde_derive, symObjAddr: 0x5970, symBinAddr: 0x7C0D8, symSize: 0x24 }
  - { offset: 0xA61A9, size: 0x8, addend: 0x0, symName: __RNvXs0_NtNtNtCsfvfooZQ3Axs_4core4iter8adapters3mapINtB5_3MapINtNtNtNtCse1nGBsou5OW_5alloc11collections5btree3set4IterNtNtNtCs1edtEUeLQ4Q_12serde_derive9internals4name4NameENCNCNvNtB1X_2de22deserialize_identifiers_00ENtNtNtB9_6traits8iterator8Iterator4nextB1X_, symObjAddr: 0x5994, symBinAddr: 0x7C0FC, symSize: 0x90 }
  - { offset: 0xA6223, size: 0x8, addend: 0x0, symName: __RNvXs0_NtNtNtCsfvfooZQ3Axs_4core4iter8adapters3mapINtB5_3MapNtNtCs3cP53eQoTwO_11proc_macro212token_stream8IntoIterNCNvNtNtCs1edtEUeLQ4Q_12serde_derive9internals6respan6respan0ENtNtNtB9_6traits8iterator8Iterator9size_hintB1W_, symObjAddr: 0x5A24, symBinAddr: 0x7C18C, symSize: 0x24 }
  - { offset: 0xA626A, size: 0x8, addend: 0x0, symName: __RNvXs0_NtNtNtCsfvfooZQ3Axs_4core4iter8adapters3mapINtB5_3MapNtNtCs6IAuOt8vWmF_3syn8generics10TypeParamsNCNvNtCs1edtEUeLQ4Q_12serde_derive5bound10with_bound0ENtNtNtB9_6traits8iterator8Iterator9size_hintB1J_, symObjAddr: 0x5A48, symBinAddr: 0x7C1B0, symSize: 0x24 }
  - { offset: 0xA64AF, size: 0x8, addend: 0x0, symName: __RNCINvNtNtNtCsfvfooZQ3Axs_4core4iter8adapters3map8map_foldNtCs3cP53eQoTwO_11proc_macro25IdentTBU_uEuNCINvXs8_NtCsloNvcHxBCre_9hashbrown3setINtB1J_7HashSetBU_NtNtNtCscOYdFFY2T5N_3std4hash6random11RandomStateEINtNtNtB8_6traits7collect6ExtendBU_E6extendINtB4_3MapNtNtCs6IAuOt8vWmF_3syn8generics10TypeParamsNCNvNtCs1edtEUeLQ4Q_12serde_derive5bound10with_bound0EE0NCINvNvNtNtB3o_8iterator8Iterator8for_each4callB1t_NCINvXs1i_NtB1L_3mapINtB6K_7HashMapBU_uB2v_EIB3k_B1t_E6extendIB41_B40_B1A_EE0E0E0B4X_, symObjAddr: 0x1B30, symBinAddr: 0x78298, symSize: 0x9C }
  - { offset: 0xA6535, size: 0x8, addend: 0x0, symName: __RNCINvNtNtNtCsfvfooZQ3Axs_4core4iter8adapters3map8map_foldNtCs3cP53eQoTwO_11proc_macro29TokenTreeBU_uNCNvNtNtCs1edtEUeLQ4Q_12serde_derive9internals6respan6respan0NCIB2_BU_NtCs9i5KxIbZ5ph_10proc_macro9TokenTreeuNvNtBW_3imp19into_compiler_tokenNCINvNvNtNtNtB8_6traits8iterator8Iterator8for_each4callB2J_NCINvXsg_B2L_NtB2L_11TokenStreamINtNtB43_7collect12FromIteratorB2J_E9from_iterINtB4_3MapIB66_NtNtBW_12token_stream8IntoIterB1B_EB3m_EE0E0E0E0B1J_, symObjAddr: 0x1BCC, symBinAddr: 0x78334, symSize: 0x9C }
  - { offset: 0xA65BB, size: 0x8, addend: 0x0, symName: __RNCINvNtNtNtCsfvfooZQ3Axs_4core4iter8adapters3map8map_foldNtCs3cP53eQoTwO_11proc_macro29TokenTreeBU_uNCNvNtNtCs1edtEUeLQ4Q_12serde_derive9internals6respan6respan0NCINvNvNtNtNtB8_6traits8iterator8Iterator8for_each4callBU_NCINvXsa_NtBW_8fallbackNtB3F_11TokenStreamINtNtB2L_7collect6ExtendBU_E6extendINtB4_3MapNtNtBW_12token_stream8IntoIterB1B_EE0E0E0B1J_, symObjAddr: 0x1C68, symBinAddr: 0x783D0, symSize: 0x9C }
  - { offset: 0xA6641, size: 0x8, addend: 0x0, symName: __RNCINvNtNtNtCsfvfooZQ3Axs_4core4iter8adapters3map8map_foldNtCs3cP53eQoTwO_11proc_macro29TokenTreeNtCs9i5KxIbZ5ph_10proc_macro9TokenTreeuNvNtBW_3imp19into_compiler_tokenNCINvNvNtNtNtB8_6traits8iterator8Iterator8for_each4callB1x_NCINvXsg_B1z_NtB1z_11TokenStreamINtNtB2R_7collect12FromIteratorB1x_E9from_iterINtB4_3MapIB4U_NtNtBW_12token_stream8IntoIterNCNvNtNtCs1edtEUeLQ4Q_12serde_derive9internals6respan6respan0EB2a_EE0E0E0B5K_, symObjAddr: 0x1D04, symBinAddr: 0x7846C, symSize: 0x9C }
  - { offset: 0xA66C7, size: 0x8, addend: 0x0, symName: __RNCINvNtNtNtCsfvfooZQ3Axs_4core4iter8adapters3map8map_foldRNtNtCs1edtEUeLQ4Q_12serde_derive2de16FieldWithAliasesRNtCs3cP53eQoTwO_11proc_macro25IdentuNCNvBX_32deserialize_generated_identifier0NCINvNvNtNtNtB8_6traits8iterator8Iterator8for_each4callB1M_NCINvMsi_NtCse1nGBsou5OW_5alloc3vecINtB49_3VecB1M_E14extend_trustedINtB4_3MapINtNtNtBa_5slice4iter4IterBV_EB2n_EE0E0E0BZ_, symObjAddr: 0x1DA0, symBinAddr: 0x78508, symSize: 0x7C }
  - { offset: 0xA674C, size: 0x8, addend: 0x0, symName: __RNCINvNtNtNtCsfvfooZQ3Axs_4core4iter8adapters3map8map_foldRNtNtCs6IAuOt8vWmF_3syn8generics9TypeParamNtCs3cP53eQoTwO_11proc_macro25IdentuNCNvNtCs1edtEUeLQ4Q_12serde_derive5bound10with_bound0NCIB2_B1A_TB1A_uEuNCINvXs8_NtCsloNvcHxBCre_9hashbrown3setINtB3s_7HashSetB1A_NtNtNtCscOYdFFY2T5N_3std4hash6random11RandomStateEINtNtNtB8_6traits7collect6ExtendB1A_E6extendINtB4_3MapNtBX_10TypeParamsB2a_EE0NCINvNvNtNtB58_8iterator8Iterator8for_each4callB3b_NCINvXs1i_NtB3u_3mapINtB7i_7HashMapB1A_uB4f_EIB54_B3b_E6extendIB5M_B5L_B3j_EE0E0E0E0B2g_, symObjAddr: 0x1E1C, symBinAddr: 0x78584, symSize: 0x8C }
  - { offset: 0xA67D1, size: 0x8, addend: 0x0, symName: __RNCINvNtNtNtCsfvfooZQ3Axs_4core4iter8adapters3map8map_foldRNtNtCs6IAuOt8vWmF_3syn8lifetime8LifetimeBV_uNvYBV_NtNtBa_5clone5Clone5cloneNCINvNvNtNtNtB8_6traits8iterator8Iterator8for_each4callBV_NCINvXsl_NtNtNtCse1nGBsou5OW_5alloc11collections5btree3setINtB3d_8BTreeSetBV_EINtNtB2j_7collect6ExtendBV_E6extendINtNtB6_6cloned6ClonedINtB3d_4IterBV_EEE0E0E0Cs1edtEUeLQ4Q_12serde_derive, symObjAddr: 0x1EA8, symBinAddr: 0x78610, symSize: 0x8C }
  - { offset: 0xA6856, size: 0x8, addend: 0x0, symName: __RNCINvNtNtNtCsfvfooZQ3Axs_4core4iter8adapters3map8map_foldRNtNtCs6IAuOt8vWmF_3syn8lifetime8LifetimeBV_uNvYBV_NtNtBa_5clone5Clone5cloneNCINvNvNtNtNtB8_6traits8iterator8Iterator8for_each4callBV_NCINvXsl_NtNtNtCse1nGBsou5OW_5alloc11collections5btree3setINtB3d_8BTreeSetBV_EINtNtB2j_7collect6ExtendBV_E6extendINtNtB6_6cloned6ClonedINtNtBa_6option4IterBV_EEE0E0E0Cs1edtEUeLQ4Q_12serde_derive, symObjAddr: 0x1F34, symBinAddr: 0x7869C, symSize: 0x8C }
  - { offset: 0xA68DB, size: 0x8, addend: 0x0, symName: __RNCINvNtNtNtCsfvfooZQ3Axs_4core4iter8adapters3map8map_foldRNtNtNtCs1edtEUeLQ4Q_12serde_derive9internals3ast5FieldNtCs3cP53eQoTwO_11proc_macro211TokenStreamB1N_NCNvNtB11_3ser24serialize_struct_variants0_0NCB2z_s1_0E0B11_, symObjAddr: 0x1FC0, symBinAddr: 0x78728, symSize: 0xCC }
  - { offset: 0xA6963, size: 0x8, addend: 0x0, symName: __RNCINvNtNtNtCsfvfooZQ3Axs_4core4iter8adapters3map8map_foldRNtNtNtCs1edtEUeLQ4Q_12serde_derive9internals3ast5FieldNtCs3cP53eQoTwO_11proc_macro211TokenStreamB1N_NCNvNtB11_3ser26serialize_struct_as_structs_0NCB2z_s0_0E0B11_, symObjAddr: 0x208C, symBinAddr: 0x787F4, symSize: 0xCC }
  - { offset: 0xA69ED, size: 0x8, addend: 0x0, symName: __RNCINvNtNtNtCsfvfooZQ3Axs_4core4iter8adapters3map8map_foldRNtNtNtCs1edtEUeLQ4Q_12serde_derive9internals3ast5FieldNtCs3cP53eQoTwO_11proc_macro211TokenStreamuNCNvNtB11_3ser27wrap_serialize_variant_withs_0NCINvNvNtNtNtB8_6traits8iterator8Iterator8for_each4callB1N_NCINvMsi_NtCse1nGBsou5OW_5alloc3vecINtB4k_3VecB1N_E14extend_trustedINtB4_3MapINtNtNtBa_5slice4iter4IterBV_EB2u_EE0E0E0B11_, symObjAddr: 0x2158, symBinAddr: 0x788C0, symSize: 0x8C }
  - { offset: 0xA6A72, size: 0x8, addend: 0x0, symName: __RNCINvNtNtNtCsfvfooZQ3Axs_4core4iter8adapters3map8map_foldRNtNtNtCs1edtEUeLQ4Q_12serde_derive9internals3ast5FieldNtNtCs6IAuOt8vWmF_3syn4expr6MemberuNCNvNtB11_3ser35serialize_adjacently_tagged_variants0_0NCINvNvNtNtNtB8_6traits8iterator8Iterator8for_each4callB1N_NCINvMsi_NtCse1nGBsou5OW_5alloc3vecINtB4l_3VecB1N_E14extend_trustedINtB4_3MapINtNtNtBa_5slice4iter4IterBV_EB2m_EE0E0E0B11_, symObjAddr: 0x21E4, symBinAddr: 0x7894C, symSize: 0x8C }
  - { offset: 0xA6AF7, size: 0x8, addend: 0x0, symName: __RNCINvNtNtNtCsfvfooZQ3Axs_4core4iter8adapters3map8map_foldRNtNtNtCs1edtEUeLQ4Q_12serde_derive9internals3ast5FieldRNtNtCs6IAuOt8vWmF_3syn2ty4TypeuNCNvNtB11_3ser27wrap_serialize_variant_with0NCINvNvNtNtNtB8_6traits8iterator8Iterator8for_each4callB1N_NCINvMsi_NtCse1nGBsou5OW_5alloc3vecINtB47_3VecB1N_E14extend_trustedINtB4_3MapINtNtNtBa_5slice4iter4IterBV_EB2j_EE0E0E0B11_, symObjAddr: 0x2270, symBinAddr: 0x789D8, symSize: 0x7C }
  - { offset: 0xA6B7C, size: 0x8, addend: 0x0, symName: __RNCINvNtNtNtCsfvfooZQ3Axs_4core4iter8adapters3map8map_foldRNtNtNtCs1edtEUeLQ4Q_12serde_derive9internals3ast5FieldRNtNtCs6IAuOt8vWmF_3syn4expr6MemberuNCNvNtB11_3ser37serialize_struct_variant_with_flattens0_0NCINvNvNtNtNtB8_6traits8iterator8Iterator8for_each4callB1N_NCINvMsi_NtCse1nGBsou5OW_5alloc3vecINtB4o_3VecB1N_E14extend_trustedINtB4_3MapINtNtNtBa_5slice4iter4IterBV_EB2n_EE0E0E0B11_, symObjAddr: 0x22EC, symBinAddr: 0x78A54, symSize: 0x7C }
  - { offset: 0xA6C01, size: 0x8, addend: 0x0, symName: __RNCINvNtNtNtCsfvfooZQ3Axs_4core4iter8adapters3map8map_foldRNtNtNtCs1edtEUeLQ4Q_12serde_derive9internals3ast5FieldRNtNtCs6IAuOt8vWmF_3syn4expr6MemberuNCNvNtB11_7pretend33pretend_fields_used_struct_packed0NCINvNvNtNtNtB8_6traits8iterator8Iterator8for_each4callB1N_NCINvMsi_NtCse1nGBsou5OW_5alloc3vecINtB4l_3VecB1N_E14extend_trustedINtB4_3MapINtNtNtBa_5slice4iter4IterBV_EB2n_EE0E0E0B11_, symObjAddr: 0x2368, symBinAddr: 0x78AD0, symSize: 0x7C }
  - { offset: 0xA6C86, size: 0x8, addend: 0x0, symName: __RNCINvNtNtNtCsfvfooZQ3Axs_4core4iter8adapters3map8map_foldRNtNtNtCs1edtEUeLQ4Q_12serde_derive9internals3ast5FieldjjNCINvNvXs1_NtB6_6filterINtB20_6FilterppENtNtNtB8_6traits8iterator8Iterator5count8to_usizeBU_NCNvNtB11_2de15deserialize_seq0E0NCINvXsK_NtB2x_5accumjNtB3Z_3Sum3sumINtB4_3MapINtNtNtBa_5slice4iter4IterBV_EB1P_EE0E0B11_, symObjAddr: 0x23E4, symBinAddr: 0x78B4C, symSize: 0x98 }
  - { offset: 0xA6D0D, size: 0x8, addend: 0x0, symName: __RNCINvNtNtNtCsfvfooZQ3Axs_4core4iter8adapters3map8map_foldRNtNtNtCs1edtEUeLQ4Q_12serde_derive9internals3ast5FieldjjNCINvNvXs1_NtB6_6filterINtB20_6FilterppENtNtNtB8_6traits8iterator8Iterator5count8to_usizeBU_NCNvNtB11_2de17deserialize_tuple0E0NCINvXsK_NtB2x_5accumjNtB41_3Sum3sumINtB4_3MapINtNtNtBa_5slice4iter4IterBV_EB1P_EE0E0B11_, symObjAddr: 0x247C, symBinAddr: 0x78BE4, symSize: 0x98 }
  - { offset: 0xA6D94, size: 0x8, addend: 0x0, symName: __RNCINvNtNtNtCsfvfooZQ3Axs_4core4iter8adapters3map8map_foldRNtNtNtCs1edtEUeLQ4Q_12serde_derive9internals3ast7VariantNtNtB11_2de16FieldWithAliasesuNCNvB1R_29deserialize_custom_identifiers_0NCINvNvNtNtNtB8_6traits8iterator8Iterator8for_each4callB1P_NCINvMsi_NtCse1nGBsou5OW_5alloc3vecINtB45_3VecB1P_E14extend_trustedINtB4_3MapINtNtNtBa_5slice4iter4IterBV_EB2j_EE0E0E0B11_, symObjAddr: 0x2514, symBinAddr: 0x78C7C, symSize: 0x8C }
  - { offset: 0xA6E19, size: 0x8, addend: 0x0, symName: __RNCINvNtNtNtCsfvfooZQ3Axs_4core4iter8adapters3map8map_foldRhhuNCNvNtCse1nGBsou5OW_5alloc3str13replace_ascii0NCINvNvNtNtNtB8_6traits8iterator8Iterator8for_each4callhNCINvMsi_NtB14_3vecINtB2L_3VechE14extend_trustedINtB4_3MapINtNtNtBa_5slice4iter4IterhEBY_EE0E0E0Cs1edtEUeLQ4Q_12serde_derive, symObjAddr: 0x25A0, symBinAddr: 0x78D08, symSize: 0x7C }
  - { offset: 0xA6E9E, size: 0x8, addend: 0x0, symName: __RNCINvNtNtNtCsfvfooZQ3Axs_4core4iter8adapters3map8map_foldTNtNtCs6IAuOt8vWmF_3syn8generics12GenericParamNtNtBZ_5token5CommaEBV_uNCNvXs8_NtBZ_10punctuatedINtB2a_10PunctuatedBV_B1E_ENtNtNtB8_6traits7collect12IntoIterator9into_iter0NCINvNvNtNtB2W_8iterator8Iterator8for_each4callBV_NCINvMsi_NtCse1nGBsou5OW_5alloc3vecINtB4C_3VecBV_E14extend_trustedINtB4_3MapINtNtB4C_9into_iter8IntoIterBU_EB22_EE0E0E0Cs1edtEUeLQ4Q_12serde_derive, symObjAddr: 0x261C, symBinAddr: 0x78D84, symSize: 0xB4 }
  - { offset: 0xA6F24, size: 0x8, addend: 0x0, symName: __RNCINvNtNtNtCsfvfooZQ3Axs_4core4iter8adapters3map8map_foldTNtNtCs6IAuOt8vWmF_3syn8generics14WherePredicateNtNtBZ_5token5CommaEBV_uNCNvXs8_NtBZ_10punctuatedINtB2c_10PunctuatedBV_B1G_ENtNtNtB8_6traits7collect12IntoIterator9into_iter0NCINvNvNtNtB2Y_8iterator8Iterator8for_each4callBV_NCINvMsi_NtCse1nGBsou5OW_5alloc3vecINtB4E_3VecBV_E14extend_trustedINtB4_3MapINtNtB4E_9into_iter8IntoIterBU_EB24_EE0E0E0Cs1edtEUeLQ4Q_12serde_derive, symObjAddr: 0x26D0, symBinAddr: 0x78E38, symSize: 0xB0 }
  - { offset: 0xA6FAA, size: 0x8, addend: 0x0, symName: __RNCINvNtNtNtCsfvfooZQ3Axs_4core4iter8adapters3map8map_foldTjRNtNtNtCs1edtEUeLQ4Q_12serde_derive9internals3ast5FieldENtCs3cP53eQoTwO_11proc_macro211TokenStreamB1Q_NCNvNtB13_3ser22serialize_tuple_structs_0NCB2C_s0_0E0B13_, symObjAddr: 0x2780, symBinAddr: 0x78EE8, symSize: 0xD4 }
  - { offset: 0xA7034, size: 0x8, addend: 0x0, symName: __RNCINvNtNtNtCsfvfooZQ3Axs_4core4iter8adapters3map8map_foldTjRNtNtNtCs1edtEUeLQ4Q_12serde_derive9internals3ast5FieldENtCs3cP53eQoTwO_11proc_macro211TokenStreamB1Q_NCNvNtB13_3ser23serialize_tuple_variants_0NCB2C_s0_0E0B13_, symObjAddr: 0x2854, symBinAddr: 0x78FBC, symSize: 0xD4 }
  - { offset: 0xA70BC, size: 0x8, addend: 0x0, symName: __RNCINvNtNtNtCsfvfooZQ3Axs_4core4iter8adapters3map8map_foldTjRNtNtNtCs1edtEUeLQ4Q_12serde_derive9internals3ast5FieldETBW_NtCs3cP53eQoTwO_11proc_macro25IdentEuNCNvNtB13_2de15deserialize_map0NCINvNvNtNtNtB8_6traits8iterator8Iterator8for_each4callB1Q_NCINvMsi_NtCse1nGBsou5OW_5alloc3vecINtB46_3VecB1Q_E14extend_trustedINtB4_3MapINtNtB6_9enumerate9EnumerateINtNtNtBa_5slice4iter4IterBX_EEB2v_EE0E0E0B13_, symObjAddr: 0x2928, symBinAddr: 0x79090, symSize: 0x90 }
  - { offset: 0xA7141, size: 0x8, addend: 0x0, symName: __RNCINvNtNtNtCsfvfooZQ3Axs_4core4iter8adapters3map8map_foldTjRNtNtNtCs1edtEUeLQ4Q_12serde_derive9internals3ast7VariantENtCs3cP53eQoTwO_11proc_macro211TokenStreamuNCNvNtB13_3ser14serialize_enum0NCINvNvNtNtNtB8_6traits8iterator8Iterator8for_each4callB1S_NCINvMsi_NtCse1nGBsou5OW_5alloc3vecINtB4a_3VecB1S_E14extend_trustedINtB4_3MapINtNtB6_9enumerate9EnumerateINtNtNtBa_5slice4iter4IterBX_EEB2z_EE0E0E0B13_, symObjAddr: 0x29B8, symBinAddr: 0x79120, symSize: 0x90 }
  - { offset: 0xA71C6, size: 0x8, addend: 0x0, symName: __RNCINvNtNtNtCsfvfooZQ3Axs_4core4iter8adapters3map8map_foldjNtCs3cP53eQoTwO_11proc_macro25IdentuNCNCNvNtCs1edtEUeLQ4Q_12serde_derive7pretend21pretend_variants_used00NCINvNvNtNtNtB8_6traits8iterator8Iterator8for_each4callBV_NCINvMsi_NtCse1nGBsou5OW_5alloc3vecINtB3H_3VecBV_E14extend_trustedINtB4_3MapINtNtNtBa_3ops5range5RangejEB1v_EE0E0E0B1D_, symObjAddr: 0x2A48, symBinAddr: 0x791B0, symSize: 0x88 }
  - { offset: 0xA724B, size: 0x8, addend: 0x0, symName: __RNCINvNtNtNtCsfvfooZQ3Axs_4core4iter8adapters3map8map_foldjNtNtCs6IAuOt8vWmF_3syn4expr6MemberuNCNvNtCs1edtEUeLQ4Q_12serde_derive3ser35serialize_adjacently_tagged_variants_0NCINvNvNtNtNtB8_6traits8iterator8Iterator8for_each4callBV_NCINvMsi_NtCse1nGBsou5OW_5alloc3vecINtB3P_3VecBV_E14extend_trustedINtB4_3MapINtNtNtBa_3ops5range5RangejEB1u_EE0E0E0B1A_, symObjAddr: 0x2AD0, symBinAddr: 0x79238, symSize: 0x88 }
  - { offset: 0xA7681, size: 0x8, addend: 0x0, symName: __RNCINvNtNtNtCsfvfooZQ3Axs_4core4iter8adapters3map12map_try_foldRNtNtCs6IAuOt8vWmF_3syn8generics9TypeParamNtCs3cP53eQoTwO_11proc_macro25IdentuINtNtNtBa_3ops12control_flow11ControlFlowB1F_ENCNvNtCs1edtEUeLQ4Q_12serde_derive5bound10with_bounds1_0NCINvNvNtNtNtB8_6traits8iterator8Iterator4find5checkB1F_QNCB31_s2_0E0E0B35_, symObjAddr: 0x19D4, symBinAddr: 0x7813C, symSize: 0x98 }
  - { offset: 0xA7713, size: 0x8, addend: 0x0, symName: __RNCINvNtNtNtCsfvfooZQ3Axs_4core4iter8adapters3map12map_try_foldRNtNtNtCs1edtEUeLQ4Q_12serde_derive9internals3ast7VariantINtNtNtBa_5slice4iter4IterNtB12_5FieldEjINtNtNtBa_3ops12control_flow11ControlFlowujENCNvMs_B12_NtB12_4Data10all_fields0NCINvNvMst_NtB6_7flattenINtB40_13FlattenCompatppE13iter_try_fold7flattenB1U_jB2y_INvNvXsv_B40_B4d_NtNtNtB8_6traits8iterator8Iterator10advance_by7advanceB1U_EE0E0B16_, symObjAddr: 0x1A6C, symBinAddr: 0x781D4, symSize: 0xC4 }
  - { offset: 0xA7A59, size: 0x8, addend: 0x0, symName: __RNvXsb_NtNtNtCsfvfooZQ3Axs_4core4iter8adapters3mapINtB5_3MapINtNtNtBb_3ops5range5RangejEFjENtCs3cP53eQoTwO_11proc_macro25IdentENtNtBb_5clone5Clone5cloneCs1edtEUeLQ4Q_12serde_derive, symObjAddr: 0x6464, symBinAddr: 0x7CBCC, symSize: 0x7C }
  - { offset: 0xA7A97, size: 0x8, addend: 0x0, symName: __RNvXsb_NtNtNtCsfvfooZQ3Axs_4core4iter8adapters3mapINtB5_3MapINtNtNtBb_5slice4iter4IterNtNtCs1edtEUeLQ4Q_12serde_derive2de16FieldWithAliasesENCNvB1o_22deserialize_identifier0ENtNtBb_5clone5Clone5cloneB1q_, symObjAddr: 0x64E0, symBinAddr: 0x7CC48, symSize: 0x7C }
  - { offset: 0xA7AD5, size: 0x8, addend: 0x0, symName: __RNvXsb_NtNtNtCsfvfooZQ3Axs_4core4iter8adapters3mapINtB5_3MapINtNtNtBb_5slice4iter4IterNtNtCs1edtEUeLQ4Q_12serde_derive2de16FieldWithAliasesENCNvB1o_22deserialize_identifiers_0ENtNtBb_5clone5Clone5cloneB1q_, symObjAddr: 0x655C, symBinAddr: 0x7CCC4, symSize: 0x7C }
  - { offset: 0xA8DA5, size: 0x8, addend: 0x0, symName: __RNvYINtNtNtNtCsfvfooZQ3Axs_4core4iter8adapters3map3MapINtNtNtBb_3ops5range5RangejEFjENtCs3cP53eQoTwO_11proc_macro25IdentENtNtB7_3zip27TrustedRandomAccessNoCoerce4sizeCs1edtEUeLQ4Q_12serde_derive, symObjAddr: 0x8084, symBinAddr: 0x7E7EC, symSize: 0x2C }
  - { offset: 0xA93CB, size: 0x8, addend: 0x0, symName: __RINvYINtNtNtNtCsfvfooZQ3Axs_4core4iter8adapters3map3MapIB4_NtNtCs3cP53eQoTwO_11proc_macro212token_stream8IntoIterNCNvNtNtCs1edtEUeLQ4Q_12serde_derive9internals6respan6respan0ENvNtBZ_3imp19into_compiler_tokenENtNtNtBa_6traits8iterator8Iterator7collectNtCs9i5KxIbZ5ph_10proc_macro11TokenStreamEB1V_, symObjAddr: 0xFA0, symBinAddr: 0x77708, symSize: 0x14 }
  - { offset: 0xA940C, size: 0x8, addend: 0x0, symName: __RINvYINtNtNtNtCsfvfooZQ3Axs_4core4iter8adapters3map3MapIB4_NtNtCs3cP53eQoTwO_11proc_macro212token_stream8IntoIterNCNvNtNtCs1edtEUeLQ4Q_12serde_derive9internals6respan6respan0ENvNtBZ_3imp19into_compiler_tokenENtNtNtBa_6traits8iterator8Iterator8for_eachNCINvXsg_Cs9i5KxIbZ5ph_10proc_macroNtB4a_11TokenStreamINtNtB3o_7collect12FromIteratorNtB4a_9TokenTreeE9from_iterB3_E0EB1V_, symObjAddr: 0xFB4, symBinAddr: 0x7771C, symSize: 0x24 }
  - { offset: 0xA9458, size: 0x8, addend: 0x0, symName: __RINvYINtNtNtNtCsfvfooZQ3Axs_4core4iter8adapters3map3MapIB4_NtNtCs6IAuOt8vWmF_3syn8generics10TypeParamsNCNvNtCs1edtEUeLQ4Q_12serde_derive5bound10with_bound0ENCINvXs8_NtCsloNvcHxBCre_9hashbrown3setINtB2D_7HashSetNtCs3cP53eQoTwO_11proc_macro25IdentNtNtNtCscOYdFFY2T5N_3std4hash6random11RandomStateEINtNtNtBa_6traits7collect6ExtendB3m_E6extendBR_E0ENtNtB4O_8iterator8Iterator8for_eachNCINvXs1i_NtB2F_3mapINtB6g_7HashMapB3m_uB3V_EIB4K_TB3m_uEE6extendB3_E0EB1I_, symObjAddr: 0xFD8, symBinAddr: 0x77740, symSize: 0x34 }
  - { offset: 0xA94A3, size: 0x8, addend: 0x0, symName: __RINvYINtNtNtNtCsfvfooZQ3Axs_4core4iter8adapters3map3MapINtNtB8_6filter6FilterIB4_NtNtCs6IAuOt8vWmF_3syn8generics10TypeParamsNCNvNtCs1edtEUeLQ4Q_12serde_derive5bound10with_bounds1_0ENCB20_s2_0ENCB20_s3_0ENtNtNtBa_6traits8iterator8Iterator5chainINtNtB8_6cloned6ClonedINtNtNtCse1nGBsou5OW_5alloc3vec9into_iter8IntoIterRNtNtB1l_2ty8TypePathEEEB24_, symObjAddr: 0x100C, symBinAddr: 0x77774, symSize: 0xAC }
  - { offset: 0xA951A, size: 0x8, addend: 0x0, symName: __RINvYINtNtNtNtCsfvfooZQ3Axs_4core4iter8adapters3map3MapINtNtB8_6filter6FilterINtNtB8_9enumerate9EnumerateINtNtNtBc_5slice4iter4IterNtNtNtCs1edtEUeLQ4Q_12serde_derive9internals3ast5FieldEENCNvNtB2b_2de18deserialize_struct0ENCB31_s_0ENtNtNtBa_6traits8iterator8Iterator7collectINtNtCse1nGBsou5OW_5alloc3vec3VecNtB33_16FieldWithAliasesEEB2b_, symObjAddr: 0x10B8, symBinAddr: 0x77820, symSize: 0x1C }
  - { offset: 0xA955B, size: 0x8, addend: 0x0, symName: __RINvYINtNtNtNtCsfvfooZQ3Axs_4core4iter8adapters3map3MapINtNtB8_6filter6FilterINtNtB8_9enumerate9EnumerateINtNtNtBc_5slice4iter4IterNtNtNtCs1edtEUeLQ4Q_12serde_derive9internals3ast5FieldEENCNvNtB2b_3ser30serialize_tuple_struct_visitor0ENCB31_s_0ENtNtNtBa_6traits8iterator8Iterator7collectINtNtCse1nGBsou5OW_5alloc3vec3VecNtCs3cP53eQoTwO_11proc_macro211TokenStreamEEB2b_, symObjAddr: 0x10D4, symBinAddr: 0x7783C, symSize: 0x1C }
  - { offset: 0xA959C, size: 0x8, addend: 0x0, symName: __RINvYINtNtNtNtCsfvfooZQ3Axs_4core4iter8adapters3map3MapINtNtB8_6filter6FilterINtNtB8_9enumerate9EnumerateINtNtNtBc_5slice4iter4IterNtNtNtCs1edtEUeLQ4Q_12serde_derive9internals3ast7VariantEENCNvNtB2b_2de25prepare_enum_variant_enum0ENCB33_s2_0ENtNtNtBa_6traits8iterator8Iterator7collectINtNtCse1nGBsou5OW_5alloc3vec3VecNtB35_16FieldWithAliasesEEB2b_, symObjAddr: 0x10F0, symBinAddr: 0x77858, symSize: 0x1C }
  - { offset: 0xA95DD, size: 0x8, addend: 0x0, symName: __RINvYINtNtNtNtCsfvfooZQ3Axs_4core4iter8adapters3map3MapINtNtB8_6filter6FilterINtNtB8_9enumerate9EnumerateINtNtNtBc_5slice4iter4IterNtNtNtCs1edtEUeLQ4Q_12serde_derive9internals3ast7VariantEENCNvNtB2b_2de34deserialize_adjacently_tagged_enum0ENCB33_s_0ENtNtNtBa_6traits8iterator8Iterator7collectINtNtCse1nGBsou5OW_5alloc3vec3VecNtCs3cP53eQoTwO_11proc_macro211TokenStreamEEB2b_, symObjAddr: 0x110C, symBinAddr: 0x77874, symSize: 0x1C }
  - { offset: 0xA961E, size: 0x8, addend: 0x0, symName: __RINvYINtNtNtNtCsfvfooZQ3Axs_4core4iter8adapters3map3MapINtNtB8_6filter6FilterINtNtNtBc_5slice4iter4IterNtNtNtCs1edtEUeLQ4Q_12serde_derive9internals3ast5FieldENCNvNtB1J_3ser24serialize_struct_visitor0ENCB2y_s_0ENtNtNtBa_6traits8iterator8Iterator7collectINtNtCse1nGBsou5OW_5alloc3vec3VecNtCs3cP53eQoTwO_11proc_macro211TokenStreamEEB1J_, symObjAddr: 0x1128, symBinAddr: 0x77890, symSize: 0x1C }
  - { offset: 0xA965F, size: 0x8, addend: 0x0, symName: __RINvYINtNtNtNtCsfvfooZQ3Axs_4core4iter8adapters3map3MapINtNtB8_9enumerate9EnumerateINtNtCs6IAuOt8vWmF_3syn10punctuated4IterNtNtB1o_4data5FieldEENCNvNtNtCs1edtEUeLQ4Q_12serde_derive9internals3ast15fields_from_ast0ENtNtNtBa_6traits8iterator8Iterator7collectINtNtCse1nGBsou5OW_5alloc3vec3VecNtB2m_5FieldEEB2q_, symObjAddr: 0x1144, symBinAddr: 0x778AC, symSize: 0x1C }
  - { offset: 0xA96A0, size: 0x8, addend: 0x0, symName: __RINvYINtNtNtNtCsfvfooZQ3Axs_4core4iter8adapters3map3MapINtNtB8_9enumerate9EnumerateINtNtNtBc_5slice4iter4IterNtNtNtCs1edtEUeLQ4Q_12serde_derive9internals3ast5FieldEENCNvNtB1P_2de15deserialize_map0ENtNtNtBa_6traits8iterator8Iterator7collectINtNtCse1nGBsou5OW_5alloc3vec3VecTRB1J_NtCs3cP53eQoTwO_11proc_macro25IdentEEEB1P_, symObjAddr: 0x1160, symBinAddr: 0x778C8, symSize: 0x1C }
  - { offset: 0xA96E1, size: 0x8, addend: 0x0, symName: __RINvYINtNtNtNtCsfvfooZQ3Axs_4core4iter8adapters3map3MapINtNtB8_9enumerate9EnumerateINtNtNtBc_5slice4iter4IterNtNtNtCs1edtEUeLQ4Q_12serde_derive9internals3ast5FieldEENCNvNtB1P_2de15deserialize_map0ENtNtNtBa_6traits8iterator8Iterator8for_eachNCINvMsi_NtCse1nGBsou5OW_5alloc3vecINtB3Z_3VecTRB1J_NtCs3cP53eQoTwO_11proc_macro25IdentEE14extend_trustedB3_E0EB1P_, symObjAddr: 0x117C, symBinAddr: 0x778E4, symSize: 0x34 }
  - { offset: 0xA974D, size: 0x8, addend: 0x0, symName: __RINvYINtNtNtNtCsfvfooZQ3Axs_4core4iter8adapters3map3MapINtNtB8_9enumerate9EnumerateINtNtNtBc_5slice4iter4IterNtNtNtCs1edtEUeLQ4Q_12serde_derive9internals3ast7VariantEENCNvNtB1P_3ser14serialize_enum0ENtNtNtBa_6traits8iterator8Iterator7collectINtNtCse1nGBsou5OW_5alloc3vec3VecNtCs3cP53eQoTwO_11proc_macro211TokenStreamEEB1P_, symObjAddr: 0x11B0, symBinAddr: 0x77918, symSize: 0x1C }
  - { offset: 0xA978E, size: 0x8, addend: 0x0, symName: __RINvYINtNtNtNtCsfvfooZQ3Axs_4core4iter8adapters3map3MapINtNtB8_9enumerate9EnumerateINtNtNtBc_5slice4iter4IterNtNtNtCs1edtEUeLQ4Q_12serde_derive9internals3ast7VariantEENCNvNtB1P_3ser14serialize_enum0ENtNtNtBa_6traits8iterator8Iterator8for_eachNCINvMsi_NtCse1nGBsou5OW_5alloc3vecINtB41_3VecNtCs3cP53eQoTwO_11proc_macro211TokenStreamE14extend_trustedB3_E0EB1P_, symObjAddr: 0x11CC, symBinAddr: 0x77934, symSize: 0x34 }
  - { offset: 0xA97FA, size: 0x8, addend: 0x0, symName: __RINvYINtNtNtNtCsfvfooZQ3Axs_4core4iter8adapters3map3MapINtNtCs6IAuOt8vWmF_3syn10punctuated4IterNtNtBW_4data7VariantENCNvNtNtCs1edtEUeLQ4Q_12serde_derive9internals3ast13enum_from_ast0ENtNtNtBa_6traits8iterator8Iterator7collectINtNtCse1nGBsou5OW_5alloc3vec3VecNtB1U_7VariantEEB1Y_, symObjAddr: 0x1200, symBinAddr: 0x77968, symSize: 0x1C }
  - { offset: 0xA983B, size: 0x8, addend: 0x0, symName: __RINvYINtNtNtNtCsfvfooZQ3Axs_4core4iter8adapters3map3MapINtNtCs6IAuOt8vWmF_3syn10punctuated4IterNtNtBW_8generics12GenericParamENCNvNtCs1edtEUeLQ4Q_12serde_derive5bound12type_of_item0ENtNtNtBa_6traits8iterator8Iterator7collectINtBU_10PunctuatedNtNtBW_4path15GenericArgumentNtNtBW_5token5CommaEEB26_, symObjAddr: 0x121C, symBinAddr: 0x77984, symSize: 0x2C }
  - { offset: 0xA987B, size: 0x8, addend: 0x0, symName: __RINvYINtNtNtNtCsfvfooZQ3Axs_4core4iter8adapters3map3MapINtNtCs6IAuOt8vWmF_3syn10punctuated4IterNtNtBW_8generics12GenericParamENCNvNtCs1edtEUeLQ4Q_12serde_derive5bound16without_defaults0ENtNtNtBa_6traits8iterator8Iterator7collectINtBU_10PunctuatedB1v_NtNtBW_5token5CommaEEB26_, symObjAddr: 0x1248, symBinAddr: 0x779B0, symSize: 0x2C }
  - { offset: 0xA98BB, size: 0x8, addend: 0x0, symName: __RINvYINtNtNtNtCsfvfooZQ3Axs_4core4iter8adapters3map3MapINtNtNtBc_3ops5range5RangejEFjENtCs3cP53eQoTwO_11proc_macro25IdentENtNtNtBa_6traits8iterator8Iterator3zipRSNtNtNtCs1edtEUeLQ4Q_12serde_derive9internals3ast5FieldEB2G_, symObjAddr: 0x1274, symBinAddr: 0x779DC, symSize: 0xB0 }
  - { offset: 0xA9931, size: 0x8, addend: 0x0, symName: __RINvYINtNtNtNtCsfvfooZQ3Axs_4core4iter8adapters3map3MapINtNtNtBc_3ops5range5RangejENCNCNvNtCs1edtEUeLQ4Q_12serde_derive7pretend21pretend_variants_used00ENtNtNtBa_6traits8iterator8Iterator7collectINtNtCse1nGBsou5OW_5alloc3vec3VecNtCs3cP53eQoTwO_11proc_macro25IdentEEB1r_, symObjAddr: 0x1324, symBinAddr: 0x77A8C, symSize: 0x2C }
  - { offset: 0xA9971, size: 0x8, addend: 0x0, symName: __RINvYINtNtNtNtCsfvfooZQ3Axs_4core4iter8adapters3map3MapINtNtNtBc_3ops5range5RangejENCNCNvNtCs1edtEUeLQ4Q_12serde_derive7pretend21pretend_variants_used00ENtNtNtBa_6traits8iterator8Iterator8for_eachNCINvMsi_NtCse1nGBsou5OW_5alloc3vecINtB3h_3VecNtCs3cP53eQoTwO_11proc_macro25IdentE14extend_trustedB3_E0EB1r_, symObjAddr: 0x1350, symBinAddr: 0x77AB8, symSize: 0x3C }
  - { offset: 0xA99DC, size: 0x8, addend: 0x0, symName: __RINvYINtNtNtNtCsfvfooZQ3Axs_4core4iter8adapters3map3MapINtNtNtBc_3ops5range5RangejENCNvNtCs1edtEUeLQ4Q_12serde_derive3ser35serialize_adjacently_tagged_variants_0ENtNtNtBa_6traits8iterator8Iterator7collectINtNtCse1nGBsou5OW_5alloc3vec3VecNtNtCs6IAuOt8vWmF_3syn4expr6MemberEEB1p_, symObjAddr: 0x138C, symBinAddr: 0x77AF4, symSize: 0x2C }
  - { offset: 0xA9A1C, size: 0x8, addend: 0x0, symName: __RINvYINtNtNtNtCsfvfooZQ3Axs_4core4iter8adapters3map3MapINtNtNtBc_3ops5range5RangejENCNvNtCs1edtEUeLQ4Q_12serde_derive3ser35serialize_adjacently_tagged_variants_0ENtNtNtBa_6traits8iterator8Iterator8for_eachNCINvMsi_NtCse1nGBsou5OW_5alloc3vecINtB3q_3VecNtNtCs6IAuOt8vWmF_3syn4expr6MemberE14extend_trustedB3_E0EB1p_, symObjAddr: 0x13B8, symBinAddr: 0x77B20, symSize: 0x3C }
  - { offset: 0xA9A87, size: 0x8, addend: 0x0, symName: __RINvYINtNtNtNtCsfvfooZQ3Axs_4core4iter8adapters3map3MapINtNtNtBc_5slice4iter4IterNtNtCs1edtEUeLQ4Q_12serde_derive2de16FieldWithAliasesENCNvB1j_32deserialize_generated_identifier0ENtNtNtBa_6traits8iterator8Iterator7collectINtNtCse1nGBsou5OW_5alloc3vec3VecRNtCs3cP53eQoTwO_11proc_macro25IdentEEB1l_, symObjAddr: 0x13F4, symBinAddr: 0x77B5C, symSize: 0x34 }
  - { offset: 0xA9AC7, size: 0x8, addend: 0x0, symName: __RINvYINtNtNtNtCsfvfooZQ3Axs_4core4iter8adapters3map3MapINtNtNtBc_5slice4iter4IterNtNtCs1edtEUeLQ4Q_12serde_derive2de16FieldWithAliasesENCNvB1j_32deserialize_generated_identifier0ENtNtNtBa_6traits8iterator8Iterator8for_eachNCINvMsi_NtCse1nGBsou5OW_5alloc3vecINtB3H_3VecRNtCs3cP53eQoTwO_11proc_macro25IdentE14extend_trustedB3_E0EB1l_, symObjAddr: 0x1428, symBinAddr: 0x77B90, symSize: 0x44 }
  - { offset: 0xA9B32, size: 0x8, addend: 0x0, symName: __RINvYINtNtNtNtCsfvfooZQ3Axs_4core4iter8adapters3map3MapINtNtNtBc_5slice4iter4IterNtNtNtCs1edtEUeLQ4Q_12serde_derive9internals3ast5FieldENCNvNtB1n_3ser27wrap_serialize_variant_with0ENtNtNtBa_6traits8iterator8Iterator7collectINtNtCse1nGBsou5OW_5alloc3vec3VecRNtNtCs6IAuOt8vWmF_3syn2ty4TypeEEB1n_, symObjAddr: 0x146C, symBinAddr: 0x77BD4, symSize: 0x34 }
  - { offset: 0xA9B72, size: 0x8, addend: 0x0, symName: __RINvYINtNtNtNtCsfvfooZQ3Axs_4core4iter8adapters3map3MapINtNtNtBc_5slice4iter4IterNtNtNtCs1edtEUeLQ4Q_12serde_derive9internals3ast5FieldENCNvNtB1n_3ser27wrap_serialize_variant_with0ENtNtNtBa_6traits8iterator8Iterator8for_eachNCINvMsi_NtCse1nGBsou5OW_5alloc3vecINtB3J_3VecRNtNtCs6IAuOt8vWmF_3syn2ty4TypeE14extend_trustedB3_E0EB1n_, symObjAddr: 0x14A0, symBinAddr: 0x77C08, symSize: 0x44 }
  - { offset: 0xA9BDD, size: 0x8, addend: 0x0, symName: __RINvYINtNtNtNtCsfvfooZQ3Axs_4core4iter8adapters3map3MapINtNtNtBc_5slice4iter4IterNtNtNtCs1edtEUeLQ4Q_12serde_derive9internals3ast5FieldENCNvNtB1n_3ser27wrap_serialize_variant_withs_0ENtNtNtBa_6traits8iterator8Iterator7collectINtNtCse1nGBsou5OW_5alloc3vec3VecNtCs3cP53eQoTwO_11proc_macro211TokenStreamEEB1n_, symObjAddr: 0x14E4, symBinAddr: 0x77C4C, symSize: 0x34 }
  - { offset: 0xA9C1D, size: 0x8, addend: 0x0, symName: __RINvYINtNtNtNtCsfvfooZQ3Axs_4core4iter8adapters3map3MapINtNtNtBc_5slice4iter4IterNtNtNtCs1edtEUeLQ4Q_12serde_derive9internals3ast5FieldENCNvNtB1n_3ser27wrap_serialize_variant_withs_0ENtNtNtBa_6traits8iterator8Iterator8for_eachNCINvMsi_NtCse1nGBsou5OW_5alloc3vecINtB3L_3VecNtCs3cP53eQoTwO_11proc_macro211TokenStreamE14extend_trustedB3_E0EB1n_, symObjAddr: 0x1518, symBinAddr: 0x77C80, symSize: 0x44 }
  - { offset: 0xA9C88, size: 0x8, addend: 0x0, symName: __RINvYINtNtNtNtCsfvfooZQ3Axs_4core4iter8adapters3map3MapINtNtNtBc_5slice4iter4IterNtNtNtCs1edtEUeLQ4Q_12serde_derive9internals3ast5FieldENCNvNtB1n_3ser35serialize_adjacently_tagged_variants0_0ENtNtNtBa_6traits8iterator8Iterator7collectINtNtCse1nGBsou5OW_5alloc3vec3VecNtNtCs6IAuOt8vWmF_3syn4expr6MemberEEB1n_, symObjAddr: 0x155C, symBinAddr: 0x77CC4, symSize: 0x34 }
  - { offset: 0xA9CC8, size: 0x8, addend: 0x0, symName: __RINvYINtNtNtNtCsfvfooZQ3Axs_4core4iter8adapters3map3MapINtNtNtBc_5slice4iter4IterNtNtNtCs1edtEUeLQ4Q_12serde_derive9internals3ast5FieldENCNvNtB1n_3ser35serialize_adjacently_tagged_variants0_0ENtNtNtBa_6traits8iterator8Iterator8for_eachNCINvMsi_NtCse1nGBsou5OW_5alloc3vecINtB3U_3VecNtNtCs6IAuOt8vWmF_3syn4expr6MemberE14extend_trustedB3_E0EB1n_, symObjAddr: 0x1590, symBinAddr: 0x77CF8, symSize: 0x44 }
  - { offset: 0xA9D33, size: 0x8, addend: 0x0, symName: __RINvYINtNtNtNtCsfvfooZQ3Axs_4core4iter8adapters3map3MapINtNtNtBc_5slice4iter4IterNtNtNtCs1edtEUeLQ4Q_12serde_derive9internals3ast5FieldENCNvNtB1n_3ser37serialize_struct_variant_with_flattens0_0ENtNtNtBa_6traits8iterator8Iterator7collectINtNtCse1nGBsou5OW_5alloc3vec3VecRNtNtCs6IAuOt8vWmF_3syn4expr6MemberEEB1n_, symObjAddr: 0x15D4, symBinAddr: 0x77D3C, symSize: 0x34 }
  - { offset: 0xA9D73, size: 0x8, addend: 0x0, symName: __RINvYINtNtNtNtCsfvfooZQ3Axs_4core4iter8adapters3map3MapINtNtNtBc_5slice4iter4IterNtNtNtCs1edtEUeLQ4Q_12serde_derive9internals3ast5FieldENCNvNtB1n_3ser37serialize_struct_variant_with_flattens0_0ENtNtNtBa_6traits8iterator8Iterator8for_eachNCINvMsi_NtCse1nGBsou5OW_5alloc3vecINtB3W_3VecRNtNtCs6IAuOt8vWmF_3syn4expr6MemberE14extend_trustedB3_E0EB1n_, symObjAddr: 0x1608, symBinAddr: 0x77D70, symSize: 0x44 }
  - { offset: 0xA9DDE, size: 0x8, addend: 0x0, symName: __RINvYINtNtNtNtCsfvfooZQ3Axs_4core4iter8adapters3map3MapINtNtNtBc_5slice4iter4IterNtNtNtCs1edtEUeLQ4Q_12serde_derive9internals3ast5FieldENCNvNtB1n_7pretend33pretend_fields_used_struct_packed0ENtNtNtBa_6traits8iterator8Iterator7collectINtNtCse1nGBsou5OW_5alloc3vec3VecRNtNtCs6IAuOt8vWmF_3syn4expr6MemberEEB1n_, symObjAddr: 0x164C, symBinAddr: 0x77DB4, symSize: 0x34 }
  - { offset: 0xA9E1E, size: 0x8, addend: 0x0, symName: __RINvYINtNtNtNtCsfvfooZQ3Axs_4core4iter8adapters3map3MapINtNtNtBc_5slice4iter4IterNtNtNtCs1edtEUeLQ4Q_12serde_derive9internals3ast5FieldENCNvNtB1n_7pretend33pretend_fields_used_struct_packed0ENtNtNtBa_6traits8iterator8Iterator8for_eachNCINvMsi_NtCse1nGBsou5OW_5alloc3vecINtB3T_3VecRNtNtCs6IAuOt8vWmF_3syn4expr6MemberE14extend_trustedB3_E0EB1n_, symObjAddr: 0x1680, symBinAddr: 0x77DE8, symSize: 0x44 }
  - { offset: 0xA9E89, size: 0x8, addend: 0x0, symName: __RINvYINtNtNtNtCsfvfooZQ3Axs_4core4iter8adapters3map3MapINtNtNtBc_5slice4iter4IterNtNtNtCs1edtEUeLQ4Q_12serde_derive9internals3ast7VariantENCNvNtB1n_2de29deserialize_custom_identifiers_0ENtNtNtBa_6traits8iterator8Iterator7collectINtNtCse1nGBsou5OW_5alloc3vec3VecNtB2g_16FieldWithAliasesEEB1n_, symObjAddr: 0x16C4, symBinAddr: 0x77E2C, symSize: 0x34 }
  - { offset: 0xA9EC9, size: 0x8, addend: 0x0, symName: __RINvYINtNtNtNtCsfvfooZQ3Axs_4core4iter8adapters3map3MapINtNtNtBc_5slice4iter4IterNtNtNtCs1edtEUeLQ4Q_12serde_derive9internals3ast7VariantENCNvNtB1n_2de29deserialize_custom_identifiers_0ENtNtNtBa_6traits8iterator8Iterator8for_eachNCINvMsi_NtCse1nGBsou5OW_5alloc3vecINtB3O_3VecNtB2g_16FieldWithAliasesE14extend_trustedB3_E0EB1n_, symObjAddr: 0x16F8, symBinAddr: 0x77E60, symSize: 0x44 }
  - { offset: 0xA9F34, size: 0x8, addend: 0x0, symName: __RINvYINtNtNtNtCsfvfooZQ3Axs_4core4iter8adapters3map3MapINtNtNtBc_5slice4iter4IterhENCNvNtCse1nGBsou5OW_5alloc3str13replace_ascii0ENtNtNtBa_6traits8iterator8Iterator8for_eachNCINvMsi_NtB1p_3vecINtB2U_3VechE14extend_trustedB3_E0ECs1edtEUeLQ4Q_12serde_derive, symObjAddr: 0x173C, symBinAddr: 0x77EA4, symSize: 0x34 }
  - { offset: 0xA9FA0, size: 0x8, addend: 0x0, symName: __RINvYINtNtNtNtCsfvfooZQ3Axs_4core4iter8adapters3map3MapINtNtNtCse1nGBsou5OW_5alloc3vec9into_iter8IntoIterTNtNtCs6IAuOt8vWmF_3syn8generics12GenericParamNtNtB1K_5token5CommaEENCNvXs8_NtB1K_10punctuatedINtB2T_10PunctuatedB1G_B2p_ENtNtNtBa_6traits7collect12IntoIterator9into_iter0ENtNtB3H_8iterator8Iterator8for_eachNCINvMsi_BW_INtBW_3VecB1G_E14extend_trustedB3_E0ECs1edtEUeLQ4Q_12serde_derive, symObjAddr: 0x1770, symBinAddr: 0x77ED8, symSize: 0x34 }
  - { offset: 0xAA00C, size: 0x8, addend: 0x0, symName: __RINvYINtNtNtNtCsfvfooZQ3Axs_4core4iter8adapters3map3MapINtNtNtCse1nGBsou5OW_5alloc3vec9into_iter8IntoIterTNtNtCs6IAuOt8vWmF_3syn8generics14WherePredicateNtNtB1K_5token5CommaEENCNvXs8_NtB1K_10punctuatedINtB2V_10PunctuatedB1G_B2r_ENtNtNtBa_6traits7collect12IntoIterator9into_iter0ENtNtB3J_8iterator8Iterator8for_eachNCINvMsi_BW_INtBW_3VecB1G_E14extend_trustedB3_E0ECs1edtEUeLQ4Q_12serde_derive, symObjAddr: 0x17A4, symBinAddr: 0x77F0C, symSize: 0x34 }
  - { offset: 0xAA078, size: 0x8, addend: 0x0, symName: __RINvYINtNtNtNtCsfvfooZQ3Axs_4core4iter8adapters3map3MapNtNtCs3cP53eQoTwO_11proc_macro212token_stream8IntoIterNCNvNtNtCs1edtEUeLQ4Q_12serde_derive9internals6respan6respan0ENtNtNtBa_6traits8iterator8Iterator3mapNtCs9i5KxIbZ5ph_10proc_macro9TokenTreeNvNtBV_3imp19into_compiler_tokenEB1R_, symObjAddr: 0x17D8, symBinAddr: 0x77F40, symSize: 0x30 }
  - { offset: 0xAA0E6, size: 0x8, addend: 0x0, symName: __RINvYINtNtNtNtCsfvfooZQ3Axs_4core4iter8adapters3map3MapNtNtCs3cP53eQoTwO_11proc_macro212token_stream8IntoIterNCNvNtNtCs1edtEUeLQ4Q_12serde_derive9internals6respan6respan0ENtNtNtBa_6traits8iterator8Iterator7collectNtBV_11TokenStreamEB1R_, symObjAddr: 0x1808, symBinAddr: 0x77F70, symSize: 0x14 }
  - { offset: 0xAA127, size: 0x8, addend: 0x0, symName: __RINvYINtNtNtNtCsfvfooZQ3Axs_4core4iter8adapters3map3MapNtNtCs3cP53eQoTwO_11proc_macro212token_stream8IntoIterNCNvNtNtCs1edtEUeLQ4Q_12serde_derive9internals6respan6respan0ENtNtNtBa_6traits8iterator8Iterator7collectNtNtBV_3imp11TokenStreamEB1R_, symObjAddr: 0x181C, symBinAddr: 0x77F84, symSize: 0x14 }
  - { offset: 0xAA168, size: 0x8, addend: 0x0, symName: __RINvYINtNtNtNtCsfvfooZQ3Axs_4core4iter8adapters3map3MapNtNtCs3cP53eQoTwO_11proc_macro212token_stream8IntoIterNCNvNtNtCs1edtEUeLQ4Q_12serde_derive9internals6respan6respan0ENtNtNtBa_6traits8iterator8Iterator7collectNtNtBV_8fallback11TokenStreamEB1R_, symObjAddr: 0x1830, symBinAddr: 0x77F98, symSize: 0x14 }
  - { offset: 0xAA1A9, size: 0x8, addend: 0x0, symName: __RINvYINtNtNtNtCsfvfooZQ3Axs_4core4iter8adapters3map3MapNtNtCs3cP53eQoTwO_11proc_macro212token_stream8IntoIterNCNvNtNtCs1edtEUeLQ4Q_12serde_derive9internals6respan6respan0ENtNtNtBa_6traits8iterator8Iterator8for_eachNCINvXsa_NtBV_8fallbackNtB3z_11TokenStreamINtNtB2N_7collect6ExtendNtBV_9TokenTreeE6extendB3_E0EB1R_, symObjAddr: 0x1844, symBinAddr: 0x77FAC, symSize: 0x24 }
  - { offset: 0xAA1F5, size: 0x8, addend: 0x0, symName: __RINvYINtNtNtNtCsfvfooZQ3Axs_4core4iter8adapters3map3MapNtNtCs6IAuOt8vWmF_3syn8generics10TypeParamsNCNvNtCs1edtEUeLQ4Q_12serde_derive5bound10with_bound0ENtNtNtBa_6traits8iterator8Iterator3mapTNtCs3cP53eQoTwO_11proc_macro25IdentuENCINvXs8_NtCsloNvcHxBCre_9hashbrown3setINtB3N_7HashSetB33_NtNtNtCscOYdFFY2T5N_3std4hash6random11RandomStateEINtNtB2u_7collect6ExtendB33_E6extendB3_E0EB1E_, symObjAddr: 0x1868, symBinAddr: 0x77FD0, symSize: 0x1C }
  - { offset: 0xAA24D, size: 0x8, addend: 0x0, symName: __RINvYINtNtNtNtCsfvfooZQ3Axs_4core4iter8adapters3map3MapNtNtCs6IAuOt8vWmF_3syn8generics10TypeParamsNCNvNtCs1edtEUeLQ4Q_12serde_derive5bound10with_bound0ENtNtNtBa_6traits8iterator8Iterator7collectINtNtNtNtCscOYdFFY2T5N_3std11collections4hash3set7HashSetNtCs3cP53eQoTwO_11proc_macro25IdentEEB1E_, symObjAddr: 0x1884, symBinAddr: 0x77FEC, symSize: 0x2C }
  - { offset: 0xAA28D, size: 0x8, addend: 0x0, symName: __RINvYINtNtNtNtCsfvfooZQ3Axs_4core4iter8adapters3map3MapNtNtCs6IAuOt8vWmF_3syn8generics10TypeParamsNCNvNtCs1edtEUeLQ4Q_12serde_derive5bound10with_bounds1_0ENtNtNtBa_6traits8iterator8Iterator4findQNCB1A_s2_0EB1E_, symObjAddr: 0x18B0, symBinAddr: 0x78018, symSize: 0xA4 }
  - { offset: 0xAA308, size: 0x8, addend: 0x0, symName: __RINvYINtNtNtNtCsfvfooZQ3Axs_4core4iter8adapters3map3MapNtNtCs6IAuOt8vWmF_3syn8generics10TypeParamsNCNvNtCs1edtEUeLQ4Q_12serde_derive5bound10with_bounds1_0ENtNtNtBa_6traits8iterator8Iterator6filterNCB1A_s2_0EB1E_, symObjAddr: 0x1954, symBinAddr: 0x780BC, symSize: 0x30 }
  - { offset: 0xAA397, size: 0x8, addend: 0x0, symName: __RNvXNtNtNtCsfvfooZQ3Axs_4core4iter6traits7collectINtNtNtB6_8adapters3map3MapIBM_NtNtCs3cP53eQoTwO_11proc_macro212token_stream8IntoIterNCNvNtNtCs1edtEUeLQ4Q_12serde_derive9internals6respan6respan0ENvNtB1k_3imp19into_compiler_tokenENtB2_12IntoIterator9into_iterB2g_, symObjAddr: 0x3484, symBinAddr: 0x79BEC, symSize: 0x30 }
  - { offset: 0xAA3CF, size: 0x8, addend: 0x0, symName: __RNvXNtNtNtCsfvfooZQ3Axs_4core4iter6traits7collectINtNtNtB6_8adapters3map3MapIBM_NtNtCs6IAuOt8vWmF_3syn8generics10TypeParamsNCNvNtCs1edtEUeLQ4Q_12serde_derive5bound10with_bound0ENCINvXs8_NtCsloNvcHxBCre_9hashbrown3setINtB2Y_7HashSetNtCs3cP53eQoTwO_11proc_macro25IdentNtNtNtCscOYdFFY2T5N_3std4hash6random11RandomStateEINtB2_6ExtendB3H_E6extendB1c_E0ENtB2_12IntoIterator9into_iterB23_, symObjAddr: 0x34B4, symBinAddr: 0x79C1C, symSize: 0x1C }
  - { offset: 0xAA406, size: 0x8, addend: 0x0, symName: __RNvXNtNtNtCsfvfooZQ3Axs_4core4iter6traits7collectINtNtNtB6_8adapters3map3MapINtNtBQ_5chain5ChainIBM_INtNtBQ_6filter6FilterIBM_NtNtCs6IAuOt8vWmF_3syn8generics10TypeParamsNCNvNtCs1edtEUeLQ4Q_12serde_derive5bound10with_bounds1_0ENCB2J_s2_0ENCB2J_s3_0EINtNtBQ_6cloned6ClonedINtNtNtCse1nGBsou5OW_5alloc3vec9into_iter8IntoIterRNtNtB24_2ty8TypePathEEENCB2J_s4_0ENtB2_12IntoIterator9into_iterB2N_, symObjAddr: 0x34D0, symBinAddr: 0x79C38, symSize: 0x30 }
  - { offset: 0xAA43E, size: 0x8, addend: 0x0, symName: __RNvXNtNtNtCsfvfooZQ3Axs_4core4iter6traits7collectINtNtNtB6_8adapters3map3MapINtNtBQ_6cloned6ClonedINtNtCs6IAuOt8vWmF_3syn10punctuated4IterNtNtB1D_8generics12GenericParamEENCNvNtCs1edtEUeLQ4Q_12serde_derive5bound19with_lifetime_bound0ENtB2_12IntoIterator9into_iterB2P_, symObjAddr: 0x3500, symBinAddr: 0x79C68, symSize: 0x18 }
  - { offset: 0xAA475, size: 0x8, addend: 0x0, symName: __RNvXNtNtNtCsfvfooZQ3Axs_4core4iter6traits7collectINtNtNtB6_8adapters3map3MapINtNtBQ_6filter6FilterINtNtBQ_9enumerate9EnumerateINtNtNtB8_5slice4iter4IterNtNtNtCs1edtEUeLQ4Q_12serde_derive9internals3ast5FieldEENCNvNtB2w_2de18deserialize_struct0ENCB3m_s_0ENtB2_12IntoIterator9into_iterB2w_, symObjAddr: 0x3518, symBinAddr: 0x79C80, symSize: 0x18 }
  - { offset: 0xAA4AC, size: 0x8, addend: 0x0, symName: __RNvXNtNtNtCsfvfooZQ3Axs_4core4iter6traits7collectINtNtNtB6_8adapters3map3MapINtNtBQ_6filter6FilterINtNtBQ_9enumerate9EnumerateINtNtNtB8_5slice4iter4IterNtNtNtCs1edtEUeLQ4Q_12serde_derive9internals3ast5FieldEENCNvNtB2w_3ser30serialize_tuple_struct_visitor0ENCB3m_s_0ENtB2_12IntoIterator9into_iterB2w_, symObjAddr: 0x3530, symBinAddr: 0x79C98, symSize: 0x30 }
  - { offset: 0xAA4E4, size: 0x8, addend: 0x0, symName: __RNvXNtNtNtCsfvfooZQ3Axs_4core4iter6traits7collectINtNtNtB6_8adapters3map3MapINtNtBQ_6filter6FilterINtNtBQ_9enumerate9EnumerateINtNtNtB8_5slice4iter4IterNtNtNtCs1edtEUeLQ4Q_12serde_derive9internals3ast7VariantEENCNvNtB2w_2de25prepare_enum_variant_enum0ENCB3o_s2_0ENtB2_12IntoIterator9into_iterB2w_, symObjAddr: 0x3560, symBinAddr: 0x79CC8, symSize: 0x18 }
  - { offset: 0xAA51B, size: 0x8, addend: 0x0, symName: __RNvXNtNtNtCsfvfooZQ3Axs_4core4iter6traits7collectINtNtNtB6_8adapters3map3MapINtNtBQ_6filter6FilterINtNtBQ_9enumerate9EnumerateINtNtNtB8_5slice4iter4IterNtNtNtCs1edtEUeLQ4Q_12serde_derive9internals3ast7VariantEENCNvNtB2w_2de34deserialize_adjacently_tagged_enum0ENCB3o_s_0ENtB2_12IntoIterator9into_iterB2w_, symObjAddr: 0x3578, symBinAddr: 0x79CE0, symSize: 0x30 }
  - { offset: 0xAA553, size: 0x8, addend: 0x0, symName: __RNvXNtNtNtCsfvfooZQ3Axs_4core4iter6traits7collectINtNtNtB6_8adapters3map3MapINtNtBQ_6filter6FilterINtNtNtB8_5slice4iter4IterNtNtNtCs1edtEUeLQ4Q_12serde_derive9internals3ast5FieldENCNvNtB24_3ser24serialize_struct_visitor0ENCB2T_s_0ENtB2_12IntoIterator9into_iterB24_, symObjAddr: 0x35A8, symBinAddr: 0x79D10, symSize: 0x30 }
  - { offset: 0xAA58B, size: 0x8, addend: 0x0, symName: __RNvXNtNtNtCsfvfooZQ3Axs_4core4iter6traits7collectINtNtNtB6_8adapters3map3MapINtNtBQ_9enumerate9EnumerateINtNtCs6IAuOt8vWmF_3syn10punctuated4IterNtNtB1J_4data5FieldEENCNvNtNtCs1edtEUeLQ4Q_12serde_derive9internals3ast15fields_from_ast0ENtB2_12IntoIterator9into_iterB2L_, symObjAddr: 0x35D8, symBinAddr: 0x79D40, symSize: 0x30 }
  - { offset: 0xAA5C3, size: 0x8, addend: 0x0, symName: __RNvXNtNtNtCsfvfooZQ3Axs_4core4iter6traits7collectINtNtNtB6_8adapters3map3MapINtNtBQ_9enumerate9EnumerateINtNtNtB8_5slice4iter4IterNtNtNtCs1edtEUeLQ4Q_12serde_derive9internals3ast5FieldEENCNvNtB2a_2de15deserialize_map0ENtB2_12IntoIterator9into_iterB2a_, symObjAddr: 0x3608, symBinAddr: 0x79D70, symSize: 0x18 }
  - { offset: 0xAA5FA, size: 0x8, addend: 0x0, symName: __RNvXNtNtNtCsfvfooZQ3Axs_4core4iter6traits7collectINtNtNtB6_8adapters3map3MapINtNtBQ_9enumerate9EnumerateINtNtNtB8_5slice4iter4IterNtNtNtCs1edtEUeLQ4Q_12serde_derive9internals3ast7VariantEENCNvNtB2a_3ser14serialize_enum0ENtB2_12IntoIterator9into_iterB2a_, symObjAddr: 0x3620, symBinAddr: 0x79D88, symSize: 0x30 }
  - { offset: 0xAA632, size: 0x8, addend: 0x0, symName: __RNvXNtNtNtCsfvfooZQ3Axs_4core4iter6traits7collectINtNtNtB6_8adapters3map3MapINtNtCs6IAuOt8vWmF_3syn10punctuated4IterNtNtB1h_4data7VariantENCNvNtNtCs1edtEUeLQ4Q_12serde_derive9internals3ast13enum_from_ast0ENtB2_12IntoIterator9into_iterB2k_, symObjAddr: 0x3650, symBinAddr: 0x79DB8, symSize: 0x14 }
  - { offset: 0xAA669, size: 0x8, addend: 0x0, symName: __RNvXNtNtNtCsfvfooZQ3Axs_4core4iter6traits7collectINtNtNtB6_8adapters3map3MapINtNtCs6IAuOt8vWmF_3syn10punctuated4IterNtNtB1h_8generics12GenericParamENCNvNtCs1edtEUeLQ4Q_12serde_derive5bound12type_of_item0ENtB2_12IntoIterator9into_iterB2s_, symObjAddr: 0x3664, symBinAddr: 0x79DCC, symSize: 0x1C }
  - { offset: 0xAA6A0, size: 0x8, addend: 0x0, symName: __RNvXNtNtNtCsfvfooZQ3Axs_4core4iter6traits7collectINtNtNtB6_8adapters3map3MapINtNtCs6IAuOt8vWmF_3syn10punctuated4IterNtNtB1h_8generics12GenericParamENCNvNtCs1edtEUeLQ4Q_12serde_derive5bound16without_defaults0ENtB2_12IntoIterator9into_iterB2s_, symObjAddr: 0x3680, symBinAddr: 0x79DE8, symSize: 0x1C }
  - { offset: 0xAA6D7, size: 0x8, addend: 0x0, symName: __RNvXNtNtNtCsfvfooZQ3Axs_4core4iter6traits7collectINtNtNtB6_8adapters3map3MapINtNtNtB8_3ops5range5RangejENCNCNvNtCs1edtEUeLQ4Q_12serde_derive7pretend21pretend_variants_used00ENtB2_12IntoIterator9into_iterB1M_, symObjAddr: 0x369C, symBinAddr: 0x79E04, symSize: 0x14 }
  - { offset: 0xAA70E, size: 0x8, addend: 0x0, symName: __RNvXNtNtNtCsfvfooZQ3Axs_4core4iter6traits7collectINtNtNtB6_8adapters3map3MapINtNtNtB8_3ops5range5RangejENCNvNtCs1edtEUeLQ4Q_12serde_derive3ser35serialize_adjacently_tagged_variants_0ENtB2_12IntoIterator9into_iterB1K_, symObjAddr: 0x36B0, symBinAddr: 0x79E18, symSize: 0x14 }
  - { offset: 0xAA745, size: 0x8, addend: 0x0, symName: __RNvXNtNtNtCsfvfooZQ3Axs_4core4iter6traits7collectINtNtNtB6_8adapters3map3MapINtNtNtB8_5slice4iter4IterNtNtCs1edtEUeLQ4Q_12serde_derive2de16FieldWithAliasesENCNvB1E_32deserialize_generated_identifier0ENtB2_12IntoIterator9into_iterB1G_, symObjAddr: 0x36C4, symBinAddr: 0x79E2C, symSize: 0x1C }
  - { offset: 0xAA77C, size: 0x8, addend: 0x0, symName: __RNvXNtNtNtCsfvfooZQ3Axs_4core4iter6traits7collectINtNtNtB6_8adapters3map3MapINtNtNtB8_5slice4iter4IterNtNtNtCs1edtEUeLQ4Q_12serde_derive9internals3ast5FieldENCNvNtB1I_3ser27wrap_serialize_variant_with0ENtB2_12IntoIterator9into_iterB1I_, symObjAddr: 0x36E0, symBinAddr: 0x79E48, symSize: 0x1C }
  - { offset: 0xAA7B3, size: 0x8, addend: 0x0, symName: __RNvXNtNtNtCsfvfooZQ3Axs_4core4iter6traits7collectINtNtNtB6_8adapters3map3MapINtNtNtB8_5slice4iter4IterNtNtNtCs1edtEUeLQ4Q_12serde_derive9internals3ast5FieldENCNvNtB1I_3ser27wrap_serialize_variant_withs_0ENtB2_12IntoIterator9into_iterB1I_, symObjAddr: 0x36FC, symBinAddr: 0x79E64, symSize: 0x1C }
  - { offset: 0xAA7EA, size: 0x8, addend: 0x0, symName: __RNvXNtNtNtCsfvfooZQ3Axs_4core4iter6traits7collectINtNtNtB6_8adapters3map3MapINtNtNtB8_5slice4iter4IterNtNtNtCs1edtEUeLQ4Q_12serde_derive9internals3ast5FieldENCNvNtB1I_3ser35serialize_adjacently_tagged_variants0_0ENtB2_12IntoIterator9into_iterB1I_, symObjAddr: 0x3718, symBinAddr: 0x79E80, symSize: 0x1C }
  - { offset: 0xAA821, size: 0x8, addend: 0x0, symName: __RNvXNtNtNtCsfvfooZQ3Axs_4core4iter6traits7collectINtNtNtB6_8adapters3map3MapINtNtNtB8_5slice4iter4IterNtNtNtCs1edtEUeLQ4Q_12serde_derive9internals3ast5FieldENCNvNtB1I_3ser37serialize_struct_variant_with_flattens0_0ENtB2_12IntoIterator9into_iterB1I_, symObjAddr: 0x3734, symBinAddr: 0x79E9C, symSize: 0x1C }
  - { offset: 0xAA858, size: 0x8, addend: 0x0, symName: __RNvXNtNtNtCsfvfooZQ3Axs_4core4iter6traits7collectINtNtNtB6_8adapters3map3MapINtNtNtB8_5slice4iter4IterNtNtNtCs1edtEUeLQ4Q_12serde_derive9internals3ast5FieldENCNvNtB1I_7pretend33pretend_fields_used_struct_packed0ENtB2_12IntoIterator9into_iterB1I_, symObjAddr: 0x3750, symBinAddr: 0x79EB8, symSize: 0x1C }
  - { offset: 0xAA88F, size: 0x8, addend: 0x0, symName: __RNvXNtNtNtCsfvfooZQ3Axs_4core4iter6traits7collectINtNtNtB6_8adapters3map3MapINtNtNtB8_5slice4iter4IterNtNtNtCs1edtEUeLQ4Q_12serde_derive9internals3ast7VariantENCNvNtB1I_2de29deserialize_custom_identifiers_0ENtB2_12IntoIterator9into_iterB1I_, symObjAddr: 0x376C, symBinAddr: 0x79ED4, symSize: 0x1C }
  - { offset: 0xAA8C6, size: 0x8, addend: 0x0, symName: __RNvXNtNtNtCsfvfooZQ3Axs_4core4iter6traits7collectINtNtNtB6_8adapters3map3MapINtNtNtCse1nGBsou5OW_5alloc3vec9into_iter8IntoIterTNtNtCs6IAuOt8vWmF_3syn8generics12GenericParamNtNtB25_5token5CommaEENCNvXs8_NtB25_10punctuatedINtB3e_10PunctuatedB21_B2K_ENtB2_12IntoIterator9into_iter0EB3Y_9into_iterCs1edtEUeLQ4Q_12serde_derive, symObjAddr: 0x3788, symBinAddr: 0x79EF0, symSize: 0x14 }
  - { offset: 0xAA8FD, size: 0x8, addend: 0x0, symName: __RNvXNtNtNtCsfvfooZQ3Axs_4core4iter6traits7collectINtNtNtB6_8adapters3map3MapINtNtNtCse1nGBsou5OW_5alloc3vec9into_iter8IntoIterTNtNtCs6IAuOt8vWmF_3syn8generics14WherePredicateNtNtB25_5token5CommaEENCNvXs8_NtB25_10punctuatedINtB3g_10PunctuatedB21_B2M_ENtB2_12IntoIterator9into_iter0EB40_9into_iterCs1edtEUeLQ4Q_12serde_derive, symObjAddr: 0x379C, symBinAddr: 0x79F04, symSize: 0x14 }
  - { offset: 0xAA934, size: 0x8, addend: 0x0, symName: __RNvXNtNtNtCsfvfooZQ3Axs_4core4iter6traits7collectINtNtNtB6_8adapters3map3MapNtNtCs3cP53eQoTwO_11proc_macro212token_stream8IntoIterNCNvNtNtCs1edtEUeLQ4Q_12serde_derive9internals6respan6respan0ENtB2_12IntoIterator9into_iterB2c_, symObjAddr: 0x37B0, symBinAddr: 0x79F18, symSize: 0x30 }
  - { offset: 0xAA96C, size: 0x8, addend: 0x0, symName: __RNvXNtNtNtCsfvfooZQ3Axs_4core4iter6traits7collectINtNtNtB6_8adapters3map3MapNtNtCs6IAuOt8vWmF_3syn8generics10TypeParamsNCNvNtCs1edtEUeLQ4Q_12serde_derive5bound10with_bound0ENtB2_12IntoIterator9into_iterB1Z_, symObjAddr: 0x37E0, symBinAddr: 0x79F48, symSize: 0x1C }
  - { offset: 0xAAD55, size: 0x8, addend: 0x0, symName: __RNvMNtCsfvfooZQ3Axs_4core5sliceSTNtNtCs6IAuOt8vWmF_3syn4path15GenericArgumentNtNtBz_5token5CommaE8iter_mutCs1edtEUeLQ4Q_12serde_derive, symObjAddr: 0x2E60, symBinAddr: 0x795C8, symSize: 0x28 }
  - { offset: 0xAB347, size: 0x8, addend: 0x0, symName: __RNvXNtCsfvfooZQ3Axs_4core6borrowNtNtCs6IAuOt8vWmF_3syn4path4PathINtB2_6BorrowBu_E6borrowCs1edtEUeLQ4Q_12serde_derive, symObjAddr: 0x345C, symBinAddr: 0x79BC4, symSize: 0x14 }
  - { offset: 0xAB509, size: 0x8, addend: 0x0, symName: __RNvXs2_NtNtCsfvfooZQ3Axs_4core3str7patterncNtB5_7Pattern13into_searcherCs1edtEUeLQ4Q_12serde_derive, symObjAddr: 0x5E6C, symBinAddr: 0x7C5D4, symSize: 0x114 }
  - { offset: 0xAB621, size: 0x8, addend: 0x0, symName: __RNvXs2_NtNtCsfvfooZQ3Axs_4core3str7patterncNtB5_7Pattern15as_utf8_patternCs1edtEUeLQ4Q_12serde_derive, symObjAddr: 0x5F80, symBinAddr: 0x7C6E8, symSize: 0x34 }
  - { offset: 0xAB6BC, size: 0x8, addend: 0x0, symName: __RNvXs_NtNtCsfvfooZQ3Axs_4core3str7patternNtB4_12CharSearcherNtB4_8Searcher10next_matchCs1edtEUeLQ4Q_12serde_derive, symObjAddr: 0x5FF0, symBinAddr: 0x7C758, symSize: 0x384 }
  - { offset: 0xABB5D, size: 0x8, addend: 0x0, symName: __RNvXs_NtNtCsfvfooZQ3Axs_4core3str7patternNtB4_12CharSearcherNtB4_8Searcher8haystackCs1edtEUeLQ4Q_12serde_derive, symObjAddr: 0x6374, symBinAddr: 0x7CADC, symSize: 0x20 }
  - { offset: 0xABB91, size: 0x8, addend: 0x0, symName: __RNvXst_NtNtCsfvfooZQ3Axs_4core3str7patternReNtB5_7Pattern13into_searcherCs1edtEUeLQ4Q_12serde_derive, symObjAddr: 0x7A44, symBinAddr: 0x7E1AC, symSize: 0x4C }
  - { offset: 0xABBD4, size: 0x8, addend: 0x0, symName: __RNvXsv_NtNtCsfvfooZQ3Axs_4core3str7patternNtB5_11StrSearcherNtB5_8Searcher4nextCs1edtEUeLQ4Q_12serde_derive, symObjAddr: 0x7A90, symBinAddr: 0x7E1F8, symSize: 0x444 }
  - { offset: 0xABEDF, size: 0x8, addend: 0x0, symName: __RNvYNtNtNtCsfvfooZQ3Axs_4core3str7pattern11StrSearcherNtB4_8Searcher11next_rejectCs1edtEUeLQ4Q_12serde_derive, symObjAddr: 0x8530, symBinAddr: 0x7EC98, symSize: 0x90 }
  - { offset: 0xAC3A1, size: 0x8, addend: 0x0, symName: __RNvYRNtNtCs6IAuOt8vWmF_3syn4path4PathINtNtCsfvfooZQ3Axs_4core3cmp9PartialEqNtNtNtCs1edtEUeLQ4Q_12serde_derive9internals6symbol6SymbolE2neB1h_, symObjAddr: 0x8648, symBinAddr: 0x7EDB0, symSize: 0x30 }
  - { offset: 0xAC8B2, size: 0x8, addend: 0x0, symName: __RNvXNtNtCs9i5KxIbZ5ph_10proc_macro6bridge3rpcuINtB2_6EncodeuE6encodeCs1edtEUeLQ4Q_12serde_derive, symObjAddr: 0x3470, symBinAddr: 0x79BD8, symSize: 0x14 }
  - { offset: 0xAC92B, size: 0x8, addend: 0x0, symName: __RNvXsa_NtNtCs9i5KxIbZ5ph_10proc_macro6bridge3rpcRShINtB5_6EncodeuE6encodeCs1edtEUeLQ4Q_12serde_derive, symObjAddr: 0x6394, symBinAddr: 0x7CAFC, symSize: 0xD0 }
  - { offset: 0xACA2D, size: 0x8, addend: 0x0, symName: __RNvXsc_NtNtCs9i5KxIbZ5ph_10proc_macro6bridge3rpcReINtB5_6EncodeuE6encodeCs1edtEUeLQ4Q_12serde_derive, symObjAddr: 0x65D8, symBinAddr: 0x7CD40, symSize: 0x38 }
  - { offset: 0xACB15, size: 0x8, addend: 0x0, symName: __RNvXsl_NtNtCs9i5KxIbZ5ph_10proc_macro6bridge3rpcNtB5_12PanicMessageINtB5_6EncodeuE6encodeCs1edtEUeLQ4Q_12serde_derive, symObjAddr: 0x7814, symBinAddr: 0x7DF7C, symSize: 0x128 }
  - { offset: 0xACCDB, size: 0x8, addend: 0x0, symName: __RNvXso_NtNtCs9i5KxIbZ5ph_10proc_macro6bridge3rpcmINtB5_9DecodeMutuE6decodeCs1edtEUeLQ4Q_12serde_derive, symObjAddr: 0x793C, symBinAddr: 0x7E0A4, symSize: 0x108 }
  - { offset: 0xAE1D8, size: 0x8, addend: 0x0, symName: __RNvXs0_NtNtCs1edtEUeLQ4Q_12serde_derive9internals6symbolNtNtCs6IAuOt8vWmF_3syn4path4PathINtNtCsfvfooZQ3Axs_4core3cmp9PartialEqNtB5_6SymbolE2eq, symObjAddr: 0x8758, symBinAddr: 0x7EEC0, symSize: 0x48 }
  - { offset: 0xAE218, size: 0x8, addend: 0x0, symName: __RNvXs1_NtNtCs1edtEUeLQ4Q_12serde_derive9internals6symbolRNtNtCs6IAuOt8vWmF_3syn4path4PathINtNtCsfvfooZQ3Axs_4core3cmp9PartialEqNtB5_6SymbolE2eq, symObjAddr: 0x87A0, symBinAddr: 0x7EF08, symSize: 0x4C }
  - { offset: 0xAE950, size: 0x8, addend: 0x0, symName: __RINvMNtCse1nGBsou5OW_5alloc5sliceSNtNtCs6IAuOt8vWmF_3syn4path11PathSegment8into_vecNtNtB5_5alloc6GlobalECs1edtEUeLQ4Q_12serde_derive, symObjAddr: 0x0, symBinAddr: 0x76768, symSize: 0x28 }
  - { offset: 0xB0172, size: 0x8, addend: 0x0, symName: __RNvXs1_NtCse1nGBsou5OW_5alloc7raw_vecINtB5_6RawVecINtNtB7_3vec3VecNtNtCs6IAuOt8vWmF_3syn8generics14WherePredicateEENtNtNtCsfvfooZQ3Axs_4core3ops4drop4Drop4dropCs1edtEUeLQ4Q_12serde_derive, symObjAddr: 0x5A6C, symBinAddr: 0x7C1D4, symSize: 0x34 }
  - { offset: 0xB01AE, size: 0x8, addend: 0x0, symName: __RNvXs1_NtCse1nGBsou5OW_5alloc7raw_vecINtB5_6RawVecNtCs3cP53eQoTwO_11proc_macro211TokenStreamENtNtNtCsfvfooZQ3Axs_4core3ops4drop4Drop4dropCs1edtEUeLQ4Q_12serde_derive, symObjAddr: 0x5AA0, symBinAddr: 0x7C208, symSize: 0x34 }
  - { offset: 0xB01EA, size: 0x8, addend: 0x0, symName: __RNvXs1_NtCse1nGBsou5OW_5alloc7raw_vecINtB5_6RawVecNtCs3cP53eQoTwO_11proc_macro25IdentENtNtNtCsfvfooZQ3Axs_4core3ops4drop4Drop4dropCs1edtEUeLQ4Q_12serde_derive, symObjAddr: 0x5AD4, symBinAddr: 0x7C23C, symSize: 0x34 }
  - { offset: 0xB0226, size: 0x8, addend: 0x0, symName: __RNvXs1_NtCse1nGBsou5OW_5alloc7raw_vecINtB5_6RawVecNtNtCs1edtEUeLQ4Q_12serde_derive2de16FieldWithAliasesENtNtNtCsfvfooZQ3Axs_4core3ops4drop4Drop4dropBQ_, symObjAddr: 0x5B08, symBinAddr: 0x7C270, symSize: 0x34 }
  - { offset: 0xB0262, size: 0x8, addend: 0x0, symName: __RNvXs1_NtCse1nGBsou5OW_5alloc7raw_vecINtB5_6RawVecNtNtCs6IAuOt8vWmF_3syn3lit6LitStrENtNtNtCsfvfooZQ3Axs_4core3ops4drop4Drop4dropCs1edtEUeLQ4Q_12serde_derive, symObjAddr: 0x5B3C, symBinAddr: 0x7C2A4, symSize: 0x30 }
  - { offset: 0xB029E, size: 0x8, addend: 0x0, symName: __RNvXs1_NtCse1nGBsou5OW_5alloc7raw_vecINtB5_6RawVecNtNtCs6IAuOt8vWmF_3syn4expr6MemberENtNtNtCsfvfooZQ3Axs_4core3ops4drop4Drop4dropCs1edtEUeLQ4Q_12serde_derive, symObjAddr: 0x5B6C, symBinAddr: 0x7C2D4, symSize: 0x34 }
  - { offset: 0xB02DA, size: 0x8, addend: 0x0, symName: __RNvXs1_NtCse1nGBsou5OW_5alloc7raw_vecINtB5_6RawVecNtNtCs6IAuOt8vWmF_3syn4path11PathSegmentENtNtNtCsfvfooZQ3Axs_4core3ops4drop4Drop4dropCs1edtEUeLQ4Q_12serde_derive, symObjAddr: 0x5BA0, symBinAddr: 0x7C308, symSize: 0x34 }
  - { offset: 0xB0316, size: 0x8, addend: 0x0, symName: __RNvXs1_NtCse1nGBsou5OW_5alloc7raw_vecINtB5_6RawVecNtNtCs6IAuOt8vWmF_3syn5error5ErrorENtNtNtCsfvfooZQ3Axs_4core3ops4drop4Drop4dropCs1edtEUeLQ4Q_12serde_derive, symObjAddr: 0x5BD4, symBinAddr: 0x7C33C, symSize: 0x34 }
  - { offset: 0xB0352, size: 0x8, addend: 0x0, symName: __RNvXs1_NtCse1nGBsou5OW_5alloc7raw_vecINtB5_6RawVecNtNtCs6IAuOt8vWmF_3syn8generics12GenericParamENtNtNtCsfvfooZQ3Axs_4core3ops4drop4Drop4dropCs1edtEUeLQ4Q_12serde_derive, symObjAddr: 0x5C08, symBinAddr: 0x7C370, symSize: 0x34 }
  - { offset: 0xB038E, size: 0x8, addend: 0x0, symName: __RNvXs1_NtCse1nGBsou5OW_5alloc7raw_vecINtB5_6RawVecNtNtCs6IAuOt8vWmF_3syn8generics14WherePredicateENtNtNtCsfvfooZQ3Axs_4core3ops4drop4Drop4dropCs1edtEUeLQ4Q_12serde_derive, symObjAddr: 0x5C3C, symBinAddr: 0x7C3A4, symSize: 0x34 }
  - { offset: 0xB03CA, size: 0x8, addend: 0x0, symName: __RNvXs1_NtCse1nGBsou5OW_5alloc7raw_vecINtB5_6RawVecNtNtNtCs1edtEUeLQ4Q_12serde_derive9internals3ast5FieldENtNtNtCsfvfooZQ3Axs_4core3ops4drop4Drop4dropBS_, symObjAddr: 0x5C70, symBinAddr: 0x7C3D8, symSize: 0x34 }
  - { offset: 0xB0406, size: 0x8, addend: 0x0, symName: __RNvXs1_NtCse1nGBsou5OW_5alloc7raw_vecINtB5_6RawVecNtNtNtCs1edtEUeLQ4Q_12serde_derive9internals3ast7VariantENtNtNtCsfvfooZQ3Axs_4core3ops4drop4Drop4dropBS_, symObjAddr: 0x5CA4, symBinAddr: 0x7C40C, symSize: 0x34 }
  - { offset: 0xB0442, size: 0x8, addend: 0x0, symName: __RNvXs1_NtCse1nGBsou5OW_5alloc7raw_vecINtB5_6RawVecNtNtNtCs1edtEUeLQ4Q_12serde_derive9internals4name4NameENtNtNtCsfvfooZQ3Axs_4core3ops4drop4Drop4dropBS_, symObjAddr: 0x5CD8, symBinAddr: 0x7C440, symSize: 0x34 }
  - { offset: 0xB047E, size: 0x8, addend: 0x0, symName: __RNvXs1_NtCse1nGBsou5OW_5alloc7raw_vecINtB5_6RawVecRNtCs3cP53eQoTwO_11proc_macro25IdentENtNtNtCsfvfooZQ3Axs_4core3ops4drop4Drop4dropCs1edtEUeLQ4Q_12serde_derive, symObjAddr: 0x5D0C, symBinAddr: 0x7C474, symSize: 0x30 }
  - { offset: 0xB04BA, size: 0x8, addend: 0x0, symName: __RNvXs1_NtCse1nGBsou5OW_5alloc7raw_vecINtB5_6RawVecRNtNtCs6IAuOt8vWmF_3syn2ty4TypeENtNtNtCsfvfooZQ3Axs_4core3ops4drop4Drop4dropCs1edtEUeLQ4Q_12serde_derive, symObjAddr: 0x5D3C, symBinAddr: 0x7C4A4, symSize: 0x30 }
  - { offset: 0xB04F6, size: 0x8, addend: 0x0, symName: __RNvXs1_NtCse1nGBsou5OW_5alloc7raw_vecINtB5_6RawVecRNtNtCs6IAuOt8vWmF_3syn2ty8TypePathENtNtNtCsfvfooZQ3Axs_4core3ops4drop4Drop4dropCs1edtEUeLQ4Q_12serde_derive, symObjAddr: 0x5D6C, symBinAddr: 0x7C4D4, symSize: 0x30 }
  - { offset: 0xB0532, size: 0x8, addend: 0x0, symName: __RNvXs1_NtCse1nGBsou5OW_5alloc7raw_vecINtB5_6RawVecRNtNtCs6IAuOt8vWmF_3syn4expr6MemberENtNtNtCsfvfooZQ3Axs_4core3ops4drop4Drop4dropCs1edtEUeLQ4Q_12serde_derive, symObjAddr: 0x5D9C, symBinAddr: 0x7C504, symSize: 0x30 }
  - { offset: 0xB056E, size: 0x8, addend: 0x0, symName: __RNvXs1_NtCse1nGBsou5OW_5alloc7raw_vecINtB5_6RawVecTRNtNtNtCs1edtEUeLQ4Q_12serde_derive9internals3ast5FieldNtCs3cP53eQoTwO_11proc_macro25IdentEENtNtNtCsfvfooZQ3Axs_4core3ops4drop4Drop4dropBU_, symObjAddr: 0x5DCC, symBinAddr: 0x7C534, symSize: 0x34 }
  - { offset: 0xB0DFE, size: 0x8, addend: 0x0, symName: __RINvNtNtNtCse1nGBsou5OW_5alloc11collections5btree3mem7replaceINtNtB4_4node6HandleINtB10_7NodeRefNtNtB10_6marker5DyingNtNtCs6IAuOt8vWmF_3syn8lifetime8LifetimeNtNtB4_7set_val9SetValZSTNtB1y_4LeafENtB1y_4EdgeEIBY_IB1i_B1w_B1R_B2v_NtB1y_14LeafOrInternalENtB1y_2KVENCINvMsm_NtB4_8navigateBX_27deallocating_next_uncheckedNtNtB8_5alloc6GlobalE0ECs1edtEUeLQ4Q_12serde_derive, symObjAddr: 0x2B4, symBinAddr: 0x76A1C, symSize: 0xCC }
  - { offset: 0xB0EEE, size: 0x8, addend: 0x0, symName: __RINvNtNtNtCse1nGBsou5OW_5alloc11collections5btree3mem7replaceINtNtB4_4node6HandleINtB10_7NodeRefNtNtB10_6marker5DyingNtNtNtCs1edtEUeLQ4Q_12serde_derive9internals4name4NameNtNtB4_7set_val9SetValZSTNtB1y_4LeafENtB1y_4EdgeEIBY_IB1i_B1w_B1R_B2J_NtB1y_14LeafOrInternalENtB1y_2KVENCINvMsm_NtB4_8navigateBX_27deallocating_next_uncheckedNtNtB8_5alloc6GlobalE0EB1X_, symObjAddr: 0x380, symBinAddr: 0x76AE8, symSize: 0xCC }
  - { offset: 0xB0FDE, size: 0x8, addend: 0x0, symName: __RINvNtNtNtCse1nGBsou5OW_5alloc11collections5btree3mem7replaceINtNtB4_4node6HandleINtB10_7NodeRefNtNtB10_6marker5ImmutNtNtCs6IAuOt8vWmF_3syn8lifetime8LifetimeNtNtB4_7set_val9SetValZSTNtB1y_4LeafENtB1y_4EdgeETRB1R_RB2v_ENCNvMsk_NtB4_8navigateBX_14next_unchecked0ECs1edtEUeLQ4Q_12serde_derive, symObjAddr: 0x44C, symBinAddr: 0x76BB4, symSize: 0xC4 }
  - { offset: 0xB10CD, size: 0x8, addend: 0x0, symName: __RINvNtNtNtCse1nGBsou5OW_5alloc11collections5btree3mem7replaceINtNtB4_4node6HandleINtB10_7NodeRefNtNtB10_6marker5ImmutNtNtNtCs1edtEUeLQ4Q_12serde_derive9internals4name4NameNtNtB4_7set_val9SetValZSTNtB1y_4LeafENtB1y_4EdgeETRB1R_RB2J_ENCNvMsk_NtB4_8navigateBX_14next_unchecked0EB1X_, symObjAddr: 0x510, symBinAddr: 0x76C78, symSize: 0xC4 }
  - { offset: 0xB11BC, size: 0x8, addend: 0x0, symName: __RINvNtNtNtCse1nGBsou5OW_5alloc11collections5btree3mem7replaceINtNtB4_4node7NodeRefNtNtB10_6marker5OwnedNtNtCs6IAuOt8vWmF_3syn8lifetime8LifetimeNtNtB4_7set_val9SetValZSTNtB1k_14LeafOrInternalEuNCINvB2_8take_mutBX_NCINvMss_B10_BX_19push_internal_levelNtNtB8_5alloc6GlobalE0E0ECs1edtEUeLQ4Q_12serde_derive, symObjAddr: 0x5D4, symBinAddr: 0x76D3C, symSize: 0x90 }
  - { offset: 0xB12A5, size: 0x8, addend: 0x0, symName: __RINvNtNtNtCse1nGBsou5OW_5alloc11collections5btree3mem7replaceINtNtB4_4node7NodeRefNtNtB10_6marker5OwnedNtNtNtCs1edtEUeLQ4Q_12serde_derive9internals4name4NameNtNtB4_7set_val9SetValZSTNtB1k_14LeafOrInternalEuNCINvB2_8take_mutBX_NCINvMss_B10_BX_19push_internal_levelNtNtB8_5alloc6GlobalE0E0EB1J_, symObjAddr: 0x664, symBinAddr: 0x76DCC, symSize: 0x90 }
  - { offset: 0xB1393, size: 0x8, addend: 0x0, symName: __RNCINvNtNtNtCse1nGBsou5OW_5alloc11collections5btree3mem8take_mutINtNtB6_4node7NodeRefNtNtB13_6marker5OwnedNtNtCs6IAuOt8vWmF_3syn8lifetime8LifetimeNtNtB6_7set_val9SetValZSTNtB1n_14LeafOrInternalENCINvMss_B13_B10_19push_internal_levelNtNtBa_5alloc6GlobalE0E0Cs1edtEUeLQ4Q_12serde_derive, symObjAddr: 0x1984, symBinAddr: 0x780EC, symSize: 0x28 }
  - { offset: 0xB13E0, size: 0x8, addend: 0x0, symName: __RNCINvNtNtNtCse1nGBsou5OW_5alloc11collections5btree3mem8take_mutINtNtB6_4node7NodeRefNtNtB13_6marker5OwnedNtNtNtCs1edtEUeLQ4Q_12serde_derive9internals4name4NameNtNtB6_7set_val9SetValZSTNtB1n_14LeafOrInternalENCINvMss_B13_B10_19push_internal_levelNtNtBa_5alloc6GlobalE0E0B1M_, symObjAddr: 0x19AC, symBinAddr: 0x78114, symSize: 0x28 }
  - { offset: 0xB17D8, size: 0x8, addend: 0x0, symName: __RNcNtINtNtCse1nGBsou5OW_5alloc6borrow3CowNtNtCs6IAuOt8vWmF_3syn4path4PathE8Borrowed0Cs1edtEUeLQ4Q_12serde_derive, symObjAddr: 0x2B7C, symBinAddr: 0x792E4, symSize: 0x24 }
  - { offset: 0xB1810, size: 0x8, addend: 0x0, symName: __RNvXs2_NtCse1nGBsou5OW_5alloc6borrowINtB5_3CowNtNtCs6IAuOt8vWmF_3syn4path4PathENtNtNtCsfvfooZQ3Axs_4core3ops5deref5Deref5derefCs1edtEUeLQ4Q_12serde_derive, symObjAddr: 0x5E00, symBinAddr: 0x7C568, symSize: 0x6C }
  - { offset: 0xB18FE, size: 0x8, addend: 0x0, symName: __RNvNtCse1nGBsou5OW_5alloc3fmt6formatCs1edtEUeLQ4Q_12serde_derive, symObjAddr: 0x3294, symBinAddr: 0x799FC, symSize: 0xD4 }
  - { offset: 0xB1A37, size: 0x8, addend: 0x0, symName: __RINvXs8_NtCsloNvcHxBCre_9hashbrown3setINtB6_7HashSetNtCs3cP53eQoTwO_11proc_macro25IdentNtNtNtCscOYdFFY2T5N_3std4hash6random11RandomStateEINtNtNtNtCsfvfooZQ3Axs_4core4iter6traits7collect6ExtendBO_E6extendINtNtNtB2i_8adapters3map3MapNtNtCs6IAuOt8vWmF_3syn8generics10TypeParamsNCNvNtCs1edtEUeLQ4Q_12serde_derive5bound10with_bound0EEB4u_, symObjAddr: 0xF44, symBinAddr: 0x776AC, symSize: 0x5C }
  - { offset: 0xB1A99, size: 0x8, addend: 0x0, symName: __RNCINvXs8_NtCsloNvcHxBCre_9hashbrown3setINtB8_7HashSetNtCs3cP53eQoTwO_11proc_macro25IdentNtNtNtCscOYdFFY2T5N_3std4hash6random11RandomStateEINtNtNtNtCsfvfooZQ3Axs_4core4iter6traits7collect6ExtendBQ_E6extendINtNtNtB2k_8adapters3map3MapNtNtCs6IAuOt8vWmF_3syn8generics10TypeParamsNCNvNtCs1edtEUeLQ4Q_12serde_derive5bound10with_bound0EE0B4w_, symObjAddr: 0x2B58, symBinAddr: 0x792C0, symSize: 0x24 }
  - { offset: 0xB1E19, size: 0x8, addend: 0x0, symName: __RINvMs0_NtNtNtCscOYdFFY2T5N_3std11collections4hash3setINtB6_7HashSetNtCs3cP53eQoTwO_11proc_macro25IdentE8containsB14_ECs1edtEUeLQ4Q_12serde_derive, symObjAddr: 0x28, symBinAddr: 0x76790, symSize: 0x5C }
  - { offset: 0xB1FCF, size: 0x8, addend: 0x0, symName: __RINvNtCs6IAuOt8vWmF_3syn5parse12parse_scopedNCINvNtB4_4meta6parserNCNvMs3_NtNtCs1edtEUeLQ4Q_12serde_derive9internals4attrNtB1a_9Container8from_ast0E0EB1e_, symObjAddr: 0xEC, symBinAddr: 0x76854, symSize: 0x30 }
  - { offset: 0xB2026, size: 0x8, addend: 0x0, symName: __RINvNtCs6IAuOt8vWmF_3syn5parse12parse_scopedNCINvNtB4_4meta6parserNCNvMs4_NtNtCs1edtEUeLQ4Q_12serde_derive9internals4attrNtB1a_7Variant8from_ast0E0EB1e_, symObjAddr: 0x11C, symBinAddr: 0x76884, symSize: 0x30 }
  - { offset: 0xB207D, size: 0x8, addend: 0x0, symName: __RINvNtCs6IAuOt8vWmF_3syn5parse12parse_scopedNCINvNtB4_4meta6parserNCNvMs6_NtNtCs1edtEUeLQ4Q_12serde_derive9internals4attrNtB1a_5Field8from_asts_0E0EB1e_, symObjAddr: 0x14C, symBinAddr: 0x768B4, symSize: 0x30 }
  - { offset: 0xB20D4, size: 0x8, addend: 0x0, symName: __RINvNtCs6IAuOt8vWmF_3syn5parse12parse_scopedNCNvMs3_NtNtCs1edtEUeLQ4Q_12serde_derive9internals4attrNtBO_9Container8from_asts_0EBS_, symObjAddr: 0x17C, symBinAddr: 0x768E4, symSize: 0x38 }
  - { offset: 0xB212A, size: 0x8, addend: 0x0, symName: __RINvNtCs6IAuOt8vWmF_3syn5parse12parse_scopedNCNvNtNtCs1edtEUeLQ4Q_12serde_derive9internals4attr24parse_lit_into_lifetimes0EBO_, symObjAddr: 0x1B4, symBinAddr: 0x7691C, symSize: 0x40 }
  - { offset: 0xB2180, size: 0x8, addend: 0x0, symName: __RINvNtCs6IAuOt8vWmF_3syn5parse12parse_scopedNvMNtB4_10punctuatedINtBJ_10PunctuatedNtNtB4_8generics14WherePredicateNtNtB4_5token5CommaE16parse_terminatedECs1edtEUeLQ4Q_12serde_derive, symObjAddr: 0x1F4, symBinAddr: 0x7695C, symSize: 0x30 }
  - { offset: 0xB21D6, size: 0x8, addend: 0x0, symName: __RINvNtCs6IAuOt8vWmF_3syn5parse12parse_scopedNvYNtNtB4_2ty4TypeNtB2_5Parse5parseECs1edtEUeLQ4Q_12serde_derive, symObjAddr: 0x224, symBinAddr: 0x7698C, symSize: 0x30 }
  - { offset: 0xB222C, size: 0x8, addend: 0x0, symName: __RINvNtCs6IAuOt8vWmF_3syn5parse12parse_scopedNvYNtNtB4_4expr8ExprPathNtB2_5Parse5parseECs1edtEUeLQ4Q_12serde_derive, symObjAddr: 0x254, symBinAddr: 0x769BC, symSize: 0x30 }
  - { offset: 0xB2282, size: 0x8, addend: 0x0, symName: __RINvNtCs6IAuOt8vWmF_3syn5parse12parse_scopedNvYNtNtB4_4path4PathNtB2_5Parse5parseECs1edtEUeLQ4Q_12serde_derive, symObjAddr: 0x284, symBinAddr: 0x769EC, symSize: 0x30 }
  - { offset: 0xB22DD, size: 0x8, addend: 0x0, symName: __RNvXsh_NtCs6IAuOt8vWmF_3syn5parseNvYNtNtB7_2ty4TypeNtB5_5Parse5parseNtB5_6Parser14___parse_scopedCs1edtEUeLQ4Q_12serde_derive, symObjAddr: 0x6610, symBinAddr: 0x7CD78, symSize: 0x3C4 }
  - { offset: 0xB242A, size: 0x8, addend: 0x0, symName: __RNvXsh_NtCs6IAuOt8vWmF_3syn5parseNvYNtNtB7_2ty8TypePathNtB5_5Parse5parseNtB5_6Parser6parse2Cs1edtEUeLQ4Q_12serde_derive, symObjAddr: 0x69D4, symBinAddr: 0x7D13C, symSize: 0x354 }
  - { offset: 0xB253A, size: 0x8, addend: 0x0, symName: __RNvXsh_NtCs6IAuOt8vWmF_3syn5parseNvYNtNtB7_4expr8ExprPathNtB5_5Parse5parseNtB5_6Parser14___parse_scopedCs1edtEUeLQ4Q_12serde_derive, symObjAddr: 0x6D28, symBinAddr: 0x7D490, symSize: 0x3D4 }
  - { offset: 0xB2687, size: 0x8, addend: 0x0, symName: __RNvXsh_NtCs6IAuOt8vWmF_3syn5parseNvYNtNtB7_4path4PathNtB5_5Parse5parseNtB5_6Parser14___parse_scopedCs1edtEUeLQ4Q_12serde_derive, symObjAddr: 0x70FC, symBinAddr: 0x7D864, symSize: 0x3C0 }
  - { offset: 0xB27D4, size: 0x8, addend: 0x0, symName: __RNvXsh_NtCs6IAuOt8vWmF_3syn5parseNvYNtNtB7_6derive11DeriveInputNtB5_5Parse5parseNtB5_6Parser6parse2Cs1edtEUeLQ4Q_12serde_derive, symObjAddr: 0x74BC, symBinAddr: 0x7DC24, symSize: 0x358 }
  - { offset: 0xB28EA, size: 0x8, addend: 0x0, symName: __RNvYNvYNtNtCs6IAuOt8vWmF_3syn6derive11DeriveInputNtNtB9_5parse5Parse5parseNtBN_6Parser5parseCs1edtEUeLQ4Q_12serde_derive, symObjAddr: 0x85C0, symBinAddr: 0x7ED28, symSize: 0x88 }
  - { offset: 0xB7C87, size: 0x8, addend: 0x0, symName: __RNvXs0_NtCs6IAuOt8vWmF_3syn5dropsINtB5_6NoDropDINtNtB7_10punctuated12IterMutTraitNtNtB7_2ty4TypeEp4ItemQB1h_EL_ENtNtNtCsfvfooZQ3Axs_4core3ops5deref8DerefMut9deref_mutCs1edtEUeLQ4Q_12serde_derive, symObjAddr: 0x3840, symBinAddr: 0x79FA8, symSize: 0x3C }
  - { offset: 0xB7CBC, size: 0x8, addend: 0x0, symName: __RNvXs0_NtCs6IAuOt8vWmF_3syn5dropsINtB5_6NoDropDINtNtB7_10punctuated12IterMutTraitNtNtB7_2ty9BareFnArgEp4ItemQB1h_EL_ENtNtNtCsfvfooZQ3Axs_4core3ops5deref8DerefMut9deref_mutCs1edtEUeLQ4Q_12serde_derive, symObjAddr: 0x387C, symBinAddr: 0x79FE4, symSize: 0x3C }
  - { offset: 0xB7CF1, size: 0x8, addend: 0x0, symName: __RNvXs0_NtCs6IAuOt8vWmF_3syn5dropsINtB5_6NoDropDINtNtB7_10punctuated12IterMutTraitNtNtB7_4data5FieldEp4ItemQB1h_EL_ENtNtNtCsfvfooZQ3Axs_4core3ops5deref8DerefMut9deref_mutCs1edtEUeLQ4Q_12serde_derive, symObjAddr: 0x38B8, symBinAddr: 0x7A020, symSize: 0x3C }
  - { offset: 0xB7D26, size: 0x8, addend: 0x0, symName: __RNvXs0_NtCs6IAuOt8vWmF_3syn5dropsINtB5_6NoDropDINtNtB7_10punctuated12IterMutTraitNtNtB7_4data7VariantEp4ItemQB1h_EL_ENtNtNtCsfvfooZQ3Axs_4core3ops5deref8DerefMut9deref_mutCs1edtEUeLQ4Q_12serde_derive, symObjAddr: 0x38F4, symBinAddr: 0x7A05C, symSize: 0x3C }
  - { offset: 0xB7D5B, size: 0x8, addend: 0x0, symName: __RNvXs0_NtCs6IAuOt8vWmF_3syn5dropsINtB5_6NoDropDINtNtB7_10punctuated12IterMutTraitNtNtB7_4expr4ExprEp4ItemQB1h_EL_ENtNtNtCsfvfooZQ3Axs_4core3ops5deref8DerefMut9deref_mutCs1edtEUeLQ4Q_12serde_derive, symObjAddr: 0x3930, symBinAddr: 0x7A098, symSize: 0x3C }
  - { offset: 0xB7D90, size: 0x8, addend: 0x0, symName: __RNvXs0_NtCs6IAuOt8vWmF_3syn5dropsINtB5_6NoDropDINtNtB7_10punctuated12IterMutTraitNtNtB7_4path15GenericArgumentEp4ItemQB1h_EL_ENtNtNtCsfvfooZQ3Axs_4core3ops5deref8DerefMut9deref_mutCs1edtEUeLQ4Q_12serde_derive, symObjAddr: 0x396C, symBinAddr: 0x7A0D4, symSize: 0x3C }
  - { offset: 0xB7DC5, size: 0x8, addend: 0x0, symName: __RNvXs0_NtCs6IAuOt8vWmF_3syn5dropsINtB5_6NoDropDINtNtB7_10punctuated12IterMutTraitNtNtB7_8generics14TypeParamBoundEp4ItemQB1h_EL_ENtNtNtCsfvfooZQ3Axs_4core3ops5deref8DerefMut9deref_mutCs1edtEUeLQ4Q_12serde_derive, symObjAddr: 0x39A8, symBinAddr: 0x7A110, symSize: 0x3C }
  - { offset: 0xB7DFA, size: 0x8, addend: 0x0, symName: __RNvXs0_NtCs6IAuOt8vWmF_3syn5dropsINtB5_6NoDropDINtNtB7_10punctuated12IterMutTraitNtNtB7_8generics14WherePredicateEp4ItemQB1h_EL_ENtNtNtCsfvfooZQ3Axs_4core3ops5deref8DerefMut9deref_mutCs1edtEUeLQ4Q_12serde_derive, symObjAddr: 0x39E4, symBinAddr: 0x7A14C, symSize: 0x3C }
  - { offset: 0xB7E2F, size: 0x8, addend: 0x0, symName: __RNvXs0_NtCs6IAuOt8vWmF_3syn5dropsINtB5_6NoDropDINtNtB7_10punctuated9IterTraitNtNtB7_2ty4TypeEp4ItemRB1d_EL_ENtNtNtCsfvfooZQ3Axs_4core3ops5deref8DerefMut9deref_mutCs1edtEUeLQ4Q_12serde_derive, symObjAddr: 0x3A20, symBinAddr: 0x7A188, symSize: 0x3C }
  - { offset: 0xB7E64, size: 0x8, addend: 0x0, symName: __RNvXs0_NtCs6IAuOt8vWmF_3syn5dropsINtB5_6NoDropDINtNtB7_10punctuated9IterTraitNtNtB7_2ty9BareFnArgEp4ItemRB1d_EL_ENtNtNtCsfvfooZQ3Axs_4core3ops5deref8DerefMut9deref_mutCs1edtEUeLQ4Q_12serde_derive, symObjAddr: 0x3A5C, symBinAddr: 0x7A1C4, symSize: 0x3C }
  - { offset: 0xB7E99, size: 0x8, addend: 0x0, symName: __RNvXs0_NtCs6IAuOt8vWmF_3syn5dropsINtB5_6NoDropDINtNtB7_10punctuated9IterTraitNtNtB7_4data7VariantEp4ItemRB1d_EL_ENtNtNtCsfvfooZQ3Axs_4core3ops5deref8DerefMut9deref_mutCs1edtEUeLQ4Q_12serde_derive, symObjAddr: 0x3A98, symBinAddr: 0x7A200, symSize: 0x3C }
  - { offset: 0xB7ECE, size: 0x8, addend: 0x0, symName: __RNvXs0_NtCs6IAuOt8vWmF_3syn5dropsINtB5_6NoDropDINtNtB7_10punctuated9IterTraitNtNtB7_4path15GenericArgumentEp4ItemRB1d_EL_ENtNtNtCsfvfooZQ3Axs_4core3ops5deref8DerefMut9deref_mutCs1edtEUeLQ4Q_12serde_derive, symObjAddr: 0x3AD4, symBinAddr: 0x7A23C, symSize: 0x3C }
  - { offset: 0xB7F09, size: 0x8, addend: 0x0, symName: __RNvXs_NtCs6IAuOt8vWmF_3syn5dropsINtB4_6NoDropDINtNtB6_10punctuated9IterTraitNtNtB6_4data7VariantEp4ItemRB1c_EL_ENtNtNtCsfvfooZQ3Axs_4core3ops5deref5Deref5derefCs1edtEUeLQ4Q_12serde_derive, symObjAddr: 0x5FB4, symBinAddr: 0x7C71C, symSize: 0x3C }
  - { offset: 0xB80D0, size: 0x8, addend: 0x0, symName: __RNvXNtCs6IAuOt8vWmF_3syn11parse_quoteNtNtB4_4path4PathNtB2_10ParseQuote5parseCs1edtEUeLQ4Q_12serde_derive, symObjAddr: 0x3428, symBinAddr: 0x79B90, symSize: 0x34 }
  - { offset: 0xB82E0, size: 0x8, addend: 0x0, symName: __RINvMs9_NtCs6IAuOt8vWmF_3syn5parseNtB6_11ParseBuffer5parseINtNtCsfvfooZQ3Axs_4core6option6OptionNtCs3cP53eQoTwO_11proc_macro29TokenTreeEECs1edtEUeLQ4Q_12serde_derive, symObjAddr: 0x84, symBinAddr: 0x767EC, symSize: 0x34 }
  - { offset: 0xB830C, size: 0x8, addend: 0x0, symName: __RINvMs9_NtCs6IAuOt8vWmF_3syn5parseNtB6_11ParseBuffer5parseNtCs3cP53eQoTwO_11proc_macro29TokenTreeECs1edtEUeLQ4Q_12serde_derive, symObjAddr: 0xB8, symBinAddr: 0x76820, symSize: 0x34 }
  - { offset: 0xB8DAB, size: 0x8, addend: 0x0, symName: __RNvMNtCs6IAuOt8vWmF_3syn5dropsINtB2_6NoDropINtNtB4_10punctuated11PrivateIterNtNtB4_2ty4TypeNtNtB4_5token5CommaEE3newCs1edtEUeLQ4Q_12serde_derive, symObjAddr: 0x2BA0, symBinAddr: 0x79308, symSize: 0x40 }
  - { offset: 0xB8E35, size: 0x8, addend: 0x0, symName: __RNvMNtCs6IAuOt8vWmF_3syn5dropsINtB2_6NoDropINtNtB4_10punctuated11PrivateIterNtNtB4_2ty9BareFnArgNtNtB4_5token5CommaEE3newCs1edtEUeLQ4Q_12serde_derive, symObjAddr: 0x2BE0, symBinAddr: 0x79348, symSize: 0x40 }
  - { offset: 0xB8EB2, size: 0x8, addend: 0x0, symName: __RNvMNtCs6IAuOt8vWmF_3syn5dropsINtB2_6NoDropINtNtB4_10punctuated11PrivateIterNtNtB4_4data7VariantNtNtB4_5token5CommaEE3newCs1edtEUeLQ4Q_12serde_derive, symObjAddr: 0x2C20, symBinAddr: 0x79388, symSize: 0x40 }
  - { offset: 0xB8F3C, size: 0x8, addend: 0x0, symName: __RNvMNtCs6IAuOt8vWmF_3syn5dropsINtB2_6NoDropINtNtB4_10punctuated11PrivateIterNtNtB4_4path15GenericArgumentNtNtB4_5token5CommaEE3newCs1edtEUeLQ4Q_12serde_derive, symObjAddr: 0x2C60, symBinAddr: 0x793C8, symSize: 0x40 }
  - { offset: 0xB8FC6, size: 0x8, addend: 0x0, symName: __RNvMNtCs6IAuOt8vWmF_3syn5dropsINtB2_6NoDropINtNtB4_10punctuated14PrivateIterMutNtNtB4_2ty4TypeNtNtB4_5token5CommaEE3newCs1edtEUeLQ4Q_12serde_derive, symObjAddr: 0x2CA0, symBinAddr: 0x79408, symSize: 0x40 }
  - { offset: 0xB9050, size: 0x8, addend: 0x0, symName: __RNvMNtCs6IAuOt8vWmF_3syn5dropsINtB2_6NoDropINtNtB4_10punctuated14PrivateIterMutNtNtB4_2ty9BareFnArgNtNtB4_5token5CommaEE3newCs1edtEUeLQ4Q_12serde_derive, symObjAddr: 0x2CE0, symBinAddr: 0x79448, symSize: 0x40 }
  - { offset: 0xB90DA, size: 0x8, addend: 0x0, symName: __RNvMNtCs6IAuOt8vWmF_3syn5dropsINtB2_6NoDropINtNtB4_10punctuated14PrivateIterMutNtNtB4_4data7VariantNtNtB4_5token5CommaEE3newCs1edtEUeLQ4Q_12serde_derive, symObjAddr: 0x2D20, symBinAddr: 0x79488, symSize: 0x40 }
  - { offset: 0xB9171, size: 0x8, addend: 0x0, symName: __RNvMNtCs6IAuOt8vWmF_3syn5dropsINtB2_6NoDropINtNtB4_10punctuated14PrivateIterMutNtNtB4_4expr4ExprNtNtB4_5token5CommaEE3newCs1edtEUeLQ4Q_12serde_derive, symObjAddr: 0x2D60, symBinAddr: 0x794C8, symSize: 0x40 }
  - { offset: 0xB91FB, size: 0x8, addend: 0x0, symName: __RNvMNtCs6IAuOt8vWmF_3syn5dropsINtB2_6NoDropINtNtB4_10punctuated14PrivateIterMutNtNtB4_4path15GenericArgumentNtNtB4_5token5CommaEE3newCs1edtEUeLQ4Q_12serde_derive, symObjAddr: 0x2DA0, symBinAddr: 0x79508, symSize: 0x40 }
  - { offset: 0xB9292, size: 0x8, addend: 0x0, symName: __RNvMNtCs6IAuOt8vWmF_3syn5dropsINtB2_6NoDropINtNtB4_10punctuated14PrivateIterMutNtNtB4_8generics14TypeParamBoundNtNtB4_5token4PlusEE3newCs1edtEUeLQ4Q_12serde_derive, symObjAddr: 0x2DE0, symBinAddr: 0x79548, symSize: 0x40 }
  - { offset: 0xB9329, size: 0x8, addend: 0x0, symName: __RNvMNtCs6IAuOt8vWmF_3syn5dropsINtB2_6NoDropINtNtB4_10punctuated14PrivateIterMutNtNtB4_8generics14WherePredicateNtNtB4_5token5CommaEE3newCs1edtEUeLQ4Q_12serde_derive, symObjAddr: 0x2E20, symBinAddr: 0x79588, symSize: 0x40 }
  - { offset: 0xB9371, size: 0x8, addend: 0x0, symName: __RNvMNtNtNtCscOYdFFY2T5N_3std11collections4hash3setINtB2_7HashSetNtCs3cP53eQoTwO_11proc_macro25IdentE3newCs1edtEUeLQ4Q_12serde_derive, symObjAddr: 0x2E88, symBinAddr: 0x795F0, symSize: 0x54 }
  - { offset: 0xB9417, size: 0x8, addend: 0x0, symName: __RNvMs0_NtCse1nGBsou5OW_5alloc7raw_vecINtB5_6RawVecINtNtB7_3vec3VecNtNtCs6IAuOt8vWmF_3syn8generics14WherePredicateEE8grow_oneCs1edtEUeLQ4Q_12serde_derive, symObjAddr: 0x2EDC, symBinAddr: 0x79644, symSize: 0x94 }
  - { offset: 0xB94C5, size: 0x8, addend: 0x0, symName: __RNvMs0_NtCse1nGBsou5OW_5alloc7raw_vecINtB5_6RawVecNtCs3cP53eQoTwO_11proc_macro211TokenStreamE8grow_oneCs1edtEUeLQ4Q_12serde_derive, symObjAddr: 0x2F70, symBinAddr: 0x796D8, symSize: 0x94 }
  - { offset: 0xB9573, size: 0x8, addend: 0x0, symName: __RNvMs0_NtCse1nGBsou5OW_5alloc7raw_vecINtB5_6RawVecNtNtCs6IAuOt8vWmF_3syn3lit6LitStrE8grow_oneCs1edtEUeLQ4Q_12serde_derive, symObjAddr: 0x3004, symBinAddr: 0x7976C, symSize: 0x90 }
  - { offset: 0xB9621, size: 0x8, addend: 0x0, symName: __RNvMs0_NtCse1nGBsou5OW_5alloc7raw_vecINtB5_6RawVecNtNtCs6IAuOt8vWmF_3syn5error5ErrorE8grow_oneCs1edtEUeLQ4Q_12serde_derive, symObjAddr: 0x3094, symBinAddr: 0x797FC, symSize: 0x94 }
  - { offset: 0xB96CF, size: 0x8, addend: 0x0, symName: __RNvMs0_NtCse1nGBsou5OW_5alloc7raw_vecINtB5_6RawVecNtNtNtCs1edtEUeLQ4Q_12serde_derive9internals4name4NameE8grow_oneBS_, symObjAddr: 0x3128, symBinAddr: 0x79890, symSize: 0x94 }
  - { offset: 0xB977D, size: 0x8, addend: 0x0, symName: __RNvMs0_NtCse1nGBsou5OW_5alloc7raw_vecINtB5_6RawVecRNtNtCs6IAuOt8vWmF_3syn2ty8TypePathE8grow_oneCs1edtEUeLQ4Q_12serde_derive, symObjAddr: 0x31BC, symBinAddr: 0x79924, symSize: 0x90 }
  - { offset: 0xB9872, size: 0x8, addend: 0x0, symName: __RNvMs0_NtNtNtCscOYdFFY2T5N_3std11collections4hash3setINtB5_7HashSetNtCs3cP53eQoTwO_11proc_macro25IdentE6insertCs1edtEUeLQ4Q_12serde_derive, symObjAddr: 0x324C, symBinAddr: 0x799B4, symSize: 0x48 }
  - { offset: 0xB9A4C, size: 0x8, addend: 0x0, symName: __RNvXNtCs2cqEZUIJimJ_5quote9to_tokensRNtNtCs6IAuOt8vWmF_3syn11restriction10VisibilityNtB2_8ToTokens9to_tokensCs1edtEUeLQ4Q_12serde_derive, symObjAddr: 0x33A8, symBinAddr: 0x79B10, symSize: 0x40 }
  - { offset: 0xB9A8B, size: 0x8, addend: 0x0, symName: __RNvXNtCs2cqEZUIJimJ_5quote9to_tokensRNtNtCs6IAuOt8vWmF_3syn4path4PathNtB2_8ToTokens9to_tokensCs1edtEUeLQ4Q_12serde_derive, symObjAddr: 0x33E8, symBinAddr: 0x79B50, symSize: 0x40 }
  - { offset: 0xB9AD0, size: 0x8, addend: 0x0, symName: __RNvXs0_NtCs2cqEZUIJimJ_5quote9to_tokensINtNtCse1nGBsou5OW_5alloc6borrow3CowNtNtCs6IAuOt8vWmF_3syn4path4PathENtB5_8ToTokens9to_tokensCs1edtEUeLQ4Q_12serde_derive, symObjAddr: 0x37FC, symBinAddr: 0x79F64, symSize: 0x44 }
  - { offset: 0xB9B15, size: 0x8, addend: 0x0, symName: __RNvYNtNtCs6IAuOt8vWmF_3syn4path4PathNtNtCs2cqEZUIJimJ_5quote9to_tokens8ToTokens15to_token_streamCs1edtEUeLQ4Q_12serde_derive, symObjAddr: 0x8440, symBinAddr: 0x7EBA8, symSize: 0x8C }
  - { offset: 0xB9B5F, size: 0x8, addend: 0x0, symName: __RNvYNtNtCs6IAuOt8vWmF_3syn4path4PathNtNtCs2cqEZUIJimJ_5quote9to_tokens8ToTokens17into_token_streamCs1edtEUeLQ4Q_12serde_derive, symObjAddr: 0x84CC, symBinAddr: 0x7EC34, symSize: 0x64 }
  - { offset: 0xB9B95, size: 0x8, addend: 0x0, symName: __RNvYRNtNtCs6IAuOt8vWmF_3syn4path4PathNtNtCs2cqEZUIJimJ_5quote9to_tokens8ToTokens15to_token_streamCs1edtEUeLQ4Q_12serde_derive, symObjAddr: 0x8678, symBinAddr: 0x7EDE0, symSize: 0x8C }
  - { offset: 0xB9BDF, size: 0x8, addend: 0x0, symName: __RNvYRNtNtCs6IAuOt8vWmF_3syn4path4PathNtNtCs2cqEZUIJimJ_5quote9to_tokens8ToTokens17into_token_streamCs1edtEUeLQ4Q_12serde_derive, symObjAddr: 0x8704, symBinAddr: 0x7EE6C, symSize: 0x54 }
  - { offset: 0xB9C25, size: 0x8, addend: 0x0, symName: __RNvYINtNtNtNtCsfvfooZQ3Axs_4core4iter8adapters3map3MapINtNtB7_3zip3ZipIB3_INtNtNtBb_3ops5range5RangejEFjENtCs3cP53eQoTwO_11proc_macro25IdentEINtNtNtBb_5slice4iter4IterNtNtNtCs1edtEUeLQ4Q_12serde_derive9internals3ast5FieldEENCNvNtB2L_2de15deserialize_seqs_0ENtNtNtCs2cqEZUIJimJ_5quote9___private3ext14RepIteratorExt15quote_into_iterB2L_, symObjAddr: 0x7ED4, symBinAddr: 0x7E63C, symSize: 0x40 }
  - { offset: 0xB9C5B, size: 0x8, addend: 0x0, symName: __RNvYINtNtNtNtCsfvfooZQ3Axs_4core4iter8adapters3map3MapINtNtB7_6filter6FilterINtNtB7_9enumerate9EnumerateINtNtNtBb_5slice4iter4IterNtNtNtCs1edtEUeLQ4Q_12serde_derive9internals3ast7VariantEENCNvNtB2a_2de34deserialize_externally_tagged_enum0ENCB32_s_0ENtNtNtCs2cqEZUIJimJ_5quote9___private3ext14RepIteratorExt15quote_into_iterB2a_, symObjAddr: 0x7F14, symBinAddr: 0x7E67C, symSize: 0x40 }
  - { offset: 0xB9C91, size: 0x8, addend: 0x0, symName: __RNvYINtNtNtNtCsfvfooZQ3Axs_4core4iter8adapters3map3MapINtNtB7_6filter6FilterINtNtB7_9enumerate9EnumerateINtNtNtBb_5slice4iter4IterNtNtNtCs1edtEUeLQ4Q_12serde_derive9internals3ast7VariantEENCNvNtB2a_2de34deserialize_internally_tagged_enum0ENCB32_s_0ENtNtNtCs2cqEZUIJimJ_5quote9___private3ext14RepIteratorExt15quote_into_iterB2a_, symObjAddr: 0x7F54, symBinAddr: 0x7E6BC, symSize: 0x40 }
  - { offset: 0xB9CC7, size: 0x8, addend: 0x0, symName: __RNvYINtNtNtNtCsfvfooZQ3Axs_4core4iter8adapters3map3MapINtNtB7_6filter6FilterINtNtNtBb_5slice4iter4IterNtNtNtCs1edtEUeLQ4Q_12serde_derive9internals3ast7VariantENCNvNtB1I_2de31deserialize_untagged_enum_after0ENCB2z_s_0ENtNtNtCs2cqEZUIJimJ_5quote9___private3ext14RepIteratorExt15quote_into_iterB1I_, symObjAddr: 0x7F94, symBinAddr: 0x7E6FC, symSize: 0x24 }
  - { offset: 0xB9CFC, size: 0x8, addend: 0x0, symName: __RNvYINtNtNtNtCsfvfooZQ3Axs_4core4iter8adapters3map3MapINtNtB7_6filter6FilterINtNtNtBb_5slice4iter4IterTRNtNtNtCs1edtEUeLQ4Q_12serde_derive9internals3ast5FieldNtCs3cP53eQoTwO_11proc_macro25IdentEENCNvNtB1K_2de15deserialize_maps1_0ENCB39_s2_0ENtNtNtCs2cqEZUIJimJ_5quote9___private3ext14RepIteratorExt15quote_into_iterB1K_, symObjAddr: 0x7FB8, symBinAddr: 0x7E720, symSize: 0x28 }
  - { offset: 0xB9D31, size: 0x8, addend: 0x0, symName: __RNvYINtNtNtNtCsfvfooZQ3Axs_4core4iter8adapters3map3MapINtNtB7_6filter6FilterINtNtNtBb_5slice4iter4IterTRNtNtNtCs1edtEUeLQ4Q_12serde_derive9internals3ast5FieldNtCs3cP53eQoTwO_11proc_macro25IdentEENCNvNtB1K_2de15deserialize_maps4_0ENCB39_s5_0ENtNtNtCs2cqEZUIJimJ_5quote9___private3ext14RepIteratorExt15quote_into_iterB1K_, symObjAddr: 0x7FE0, symBinAddr: 0x7E748, symSize: 0x28 }
  - { offset: 0xB9D66, size: 0x8, addend: 0x0, symName: __RNvYINtNtNtNtCsfvfooZQ3Axs_4core4iter8adapters3map3MapINtNtB7_6filter6FilterINtNtNtBb_5slice4iter4IterTRNtNtNtCs1edtEUeLQ4Q_12serde_derive9internals3ast5FieldNtCs3cP53eQoTwO_11proc_macro25IdentEENCNvNtB1K_2de15deserialize_maps6_0ENCB39_s7_0ENtNtNtCs2cqEZUIJimJ_5quote9___private3ext14RepIteratorExt15quote_into_iterB1K_, symObjAddr: 0x8008, symBinAddr: 0x7E770, symSize: 0x2C }
  - { offset: 0xB9D9B, size: 0x8, addend: 0x0, symName: __RNvYINtNtNtNtCsfvfooZQ3Axs_4core4iter8adapters3map3MapINtNtB7_6filter6FilterINtNtNtBb_5slice4iter4IterTRNtNtNtCs1edtEUeLQ4Q_12serde_derive9internals3ast5FieldNtCs3cP53eQoTwO_11proc_macro25IdentEENCNvNtB1K_2de15deserialize_maps_0ENCB39_s0_0ENtNtNtCs2cqEZUIJimJ_5quote9___private3ext14RepIteratorExt15quote_into_iterB1K_, symObjAddr: 0x8034, symBinAddr: 0x7E79C, symSize: 0x2C }
  - { offset: 0xB9DD0, size: 0x8, addend: 0x0, symName: __RNvYINtNtNtNtCsfvfooZQ3Axs_4core4iter8adapters3map3MapINtNtB7_9enumerate9EnumerateINtNtNtBb_5slice4iter4IterNtNtCs1edtEUeLQ4Q_12serde_derive2de16FieldWithAliasesEENCNvB1K_22deserialize_identifiers0_0ENtNtNtCs2cqEZUIJimJ_5quote9___private3ext14RepIteratorExt15quote_into_iterB1M_, symObjAddr: 0x8060, symBinAddr: 0x7E7C8, symSize: 0x24 }
  - { offset: 0xB9E05, size: 0x8, addend: 0x0, symName: __RNvYINtNtNtNtCsfvfooZQ3Axs_4core4iter8adapters3map3MapINtNtNtBb_3ops5range5RangejEFjENtCs3cP53eQoTwO_11proc_macro25IdentENtNtNtCs2cqEZUIJimJ_5quote9___private3ext14RepIteratorExt15quote_into_iterCs1edtEUeLQ4Q_12serde_derive, symObjAddr: 0x80B0, symBinAddr: 0x7E818, symSize: 0x28 }
  - { offset: 0xB9E3A, size: 0x8, addend: 0x0, symName: __RNvYINtNtNtNtCsfvfooZQ3Axs_4core4iter8adapters3map3MapINtNtNtBb_3ops5range5RangejENCNvNtCs1edtEUeLQ4Q_12serde_derive2de25unwrap_to_variant_closures_0ENtNtNtCs2cqEZUIJimJ_5quote9___private3ext14RepIteratorExt15quote_into_iterB1o_, symObjAddr: 0x80D8, symBinAddr: 0x7E840, symSize: 0x24 }
  - { offset: 0xB9E6F, size: 0x8, addend: 0x0, symName: __RNvYINtNtNtNtCsfvfooZQ3Axs_4core4iter8adapters3map3MapINtNtNtBb_3ops5range5RangejENCNvNtCs1edtEUeLQ4Q_12serde_derive3ser17serialize_variant0ENtNtNtCs2cqEZUIJimJ_5quote9___private3ext14RepIteratorExt15quote_into_iterB1o_, symObjAddr: 0x80FC, symBinAddr: 0x7E864, symSize: 0x24 }
  - { offset: 0xB9EA4, size: 0x8, addend: 0x0, symName: __RNvYINtNtNtNtCsfvfooZQ3Axs_4core4iter8adapters3map3MapINtNtNtBb_3ops5range5RangejENCNvNtCs1edtEUeLQ4Q_12serde_derive3ser19wrap_serialize_with0ENtNtNtCs2cqEZUIJimJ_5quote9___private3ext14RepIteratorExt15quote_into_iterB1o_, symObjAddr: 0x8120, symBinAddr: 0x7E888, symSize: 0x24 }
  - { offset: 0xB9ED9, size: 0x8, addend: 0x0, symName: __RNvYINtNtNtNtCsfvfooZQ3Axs_4core4iter8adapters3map3MapINtNtNtBb_3ops5range9RangeFromjENCNCNvNtCs1edtEUeLQ4Q_12serde_derive7pretend24pretend_fields_used_enum0s_0ENtNtNtCs2cqEZUIJimJ_5quote9___private3ext14RepIteratorExt15quote_into_iterB1u_, symObjAddr: 0x8144, symBinAddr: 0x7E8AC, symSize: 0x20 }
  - { offset: 0xB9F0E, size: 0x8, addend: 0x0, symName: __RNvYINtNtNtNtCsfvfooZQ3Axs_4core4iter8adapters3map3MapINtNtNtBb_3ops5range9RangeFromjENCNvNtCs1edtEUeLQ4Q_12serde_derive7pretend26pretend_fields_used_structs_0ENtNtNtCs2cqEZUIJimJ_5quote9___private3ext14RepIteratorExt15quote_into_iterB1s_, symObjAddr: 0x8164, symBinAddr: 0x7E8CC, symSize: 0x20 }
  - { offset: 0xB9F43, size: 0x8, addend: 0x0, symName: __RNvYINtNtNtNtCsfvfooZQ3Axs_4core4iter8adapters3map3MapINtNtNtBb_5slice4iter4IterNtNtCs1edtEUeLQ4Q_12serde_derive2de16FieldWithAliasesENCNvB1i_22deserialize_identifier0ENtNtNtCs2cqEZUIJimJ_5quote9___private3ext14RepIteratorExt15quote_into_iterB1k_, symObjAddr: 0x8184, symBinAddr: 0x7E8EC, symSize: 0x28 }
  - { offset: 0xB9F78, size: 0x8, addend: 0x0, symName: __RNvYINtNtNtNtCsfvfooZQ3Axs_4core4iter8adapters3map3MapINtNtNtBb_5slice4iter4IterNtNtCs1edtEUeLQ4Q_12serde_derive2de16FieldWithAliasesENCNvB1i_22deserialize_identifiers_0ENtNtNtCs2cqEZUIJimJ_5quote9___private3ext14RepIteratorExt15quote_into_iterB1k_, symObjAddr: 0x81AC, symBinAddr: 0x7E914, symSize: 0x28 }
  - { offset: 0xB9FAD, size: 0x8, addend: 0x0, symName: __RNvYINtNtNtNtCsfvfooZQ3Axs_4core4iter8adapters3map3MapINtNtNtBb_5slice4iter4IterNtNtNtCs1edtEUeLQ4Q_12serde_derive9internals3ast5FieldENCNCNvNtB1m_7pretend21pretend_variants_used0s_0ENtNtNtCs2cqEZUIJimJ_5quote9___private3ext14RepIteratorExt15quote_into_iterB1m_, symObjAddr: 0x81D4, symBinAddr: 0x7E93C, symSize: 0x2C }
  - { offset: 0xB9FE2, size: 0x8, addend: 0x0, symName: __RNvYINtNtNtNtCsfvfooZQ3Axs_4core4iter8adapters3map3MapINtNtNtBb_5slice4iter4IterNtNtNtCs1edtEUeLQ4Q_12serde_derive9internals3ast5FieldENCNCNvNtB1m_7pretend24pretend_fields_used_enum00ENtNtNtCs2cqEZUIJimJ_5quote9___private3ext14RepIteratorExt15quote_into_iterB1m_, symObjAddr: 0x8200, symBinAddr: 0x7E968, symSize: 0x2C }
  - { offset: 0xBA017, size: 0x8, addend: 0x0, symName: __RNvYINtNtNtNtCsfvfooZQ3Axs_4core4iter8adapters3map3MapINtNtNtBb_5slice4iter4IterNtNtNtCs1edtEUeLQ4Q_12serde_derive9internals3ast5FieldENCNvNtB1m_2de15deserialize_seqs0_0ENtNtNtCs2cqEZUIJimJ_5quote9___private3ext14RepIteratorExt15quote_into_iterB1m_, symObjAddr: 0x822C, symBinAddr: 0x7E994, symSize: 0x2C }
  - { offset: 0xBA04C, size: 0x8, addend: 0x0, symName: __RNvYINtNtNtNtCsfvfooZQ3Axs_4core4iter8adapters3map3MapINtNtNtBb_5slice4iter4IterNtNtNtCs1edtEUeLQ4Q_12serde_derive9internals3ast5FieldENCNvNtB1m_2de23deserialize_transparents_0ENtNtNtCs2cqEZUIJimJ_5quote9___private3ext14RepIteratorExt15quote_into_iterB1m_, symObjAddr: 0x8258, symBinAddr: 0x7E9C0, symSize: 0x28 }
  - { offset: 0xBA081, size: 0x8, addend: 0x0, symName: __RNvYINtNtNtNtCsfvfooZQ3Axs_4core4iter8adapters3map3MapINtNtNtBb_5slice4iter4IterNtNtNtCs1edtEUeLQ4Q_12serde_derive9internals3ast5FieldENCNvNtB1m_2de25unwrap_to_variant_closure0ENtNtNtCs2cqEZUIJimJ_5quote9___private3ext14RepIteratorExt15quote_into_iterB1m_, symObjAddr: 0x8280, symBinAddr: 0x7E9E8, symSize: 0x2C }
  - { offset: 0xBA0B6, size: 0x8, addend: 0x0, symName: __RNvYINtNtNtNtCsfvfooZQ3Axs_4core4iter8adapters3map3MapINtNtNtBb_5slice4iter4IterNtNtNtCs1edtEUeLQ4Q_12serde_derive9internals3ast5FieldENCNvNtB1m_2de25unwrap_to_variant_closures0_0ENtNtNtCs2cqEZUIJimJ_5quote9___private3ext14RepIteratorExt15quote_into_iterB1m_, symObjAddr: 0x82AC, symBinAddr: 0x7EA14, symSize: 0x2C }
  - { offset: 0xBA0EB, size: 0x8, addend: 0x0, symName: __RNvYINtNtNtNtCsfvfooZQ3Axs_4core4iter8adapters3map3MapINtNtNtBb_5slice4iter4IterNtNtNtCs1edtEUeLQ4Q_12serde_derive9internals3ast5FieldENCNvNtB1m_2de29wrap_deserialize_variant_with0ENtNtNtCs2cqEZUIJimJ_5quote9___private3ext14RepIteratorExt15quote_into_iterB1m_, symObjAddr: 0x82D8, symBinAddr: 0x7EA40, symSize: 0x2C }
  - { offset: 0xBA120, size: 0x8, addend: 0x0, symName: __RNvYINtNtNtNtCsfvfooZQ3Axs_4core4iter8adapters3map3MapINtNtNtBb_5slice4iter4IterNtNtNtCs1edtEUeLQ4Q_12serde_derive9internals3ast5FieldENCNvNtB1m_3ser17serialize_variants_0ENtNtNtCs2cqEZUIJimJ_5quote9___private3ext14RepIteratorExt15quote_into_iterB1m_, symObjAddr: 0x8304, symBinAddr: 0x7EA6C, symSize: 0x2C }
  - { offset: 0xBA155, size: 0x8, addend: 0x0, symName: __RNvYINtNtNtNtCsfvfooZQ3Axs_4core4iter8adapters3map3MapINtNtNtBb_5slice4iter4IterNtNtNtCs1edtEUeLQ4Q_12serde_derive9internals3ast5FieldENCNvNtB1m_3ser35serialize_adjacently_tagged_variant0ENtNtNtCs2cqEZUIJimJ_5quote9___private3ext14RepIteratorExt15quote_into_iterB1m_, symObjAddr: 0x8330, symBinAddr: 0x7EA98, symSize: 0x2C }
  - { offset: 0xBA18A, size: 0x8, addend: 0x0, symName: __RNvYINtNtNtNtCsfvfooZQ3Axs_4core4iter8adapters3map3MapINtNtNtBb_5slice4iter4IterNtNtNtCs1edtEUeLQ4Q_12serde_derive9internals3ast5FieldENCNvNtB1m_3ser37serialize_struct_variant_with_flattens_0ENtNtNtCs2cqEZUIJimJ_5quote9___private3ext14RepIteratorExt15quote_into_iterB1m_, symObjAddr: 0x835C, symBinAddr: 0x7EAC4, symSize: 0x2C }
  - { offset: 0xBA1BF, size: 0x8, addend: 0x0, symName: __RNvYINtNtNtNtCsfvfooZQ3Axs_4core4iter8adapters3map3MapINtNtNtBb_5slice4iter4IterNtNtNtCs1edtEUeLQ4Q_12serde_derive9internals3ast5FieldENCNvNtB1m_7pretend26pretend_fields_used_struct0ENtNtNtCs2cqEZUIJimJ_5quote9___private3ext14RepIteratorExt15quote_into_iterB1m_, symObjAddr: 0x8388, symBinAddr: 0x7EAF0, symSize: 0x2C }
  - { offset: 0xBA1F4, size: 0x8, addend: 0x0, symName: __RNvYINtNtNtNtCsfvfooZQ3Axs_4core4iter8adapters3map3MapINtNtNtBb_5slice4iter4IterNtNtNtCs1edtEUeLQ4Q_12serde_derive9internals3ast7VariantENCNvNtB1m_7pretend21pretend_variants_used0ENtNtNtCs2cqEZUIJimJ_5quote9___private3ext14RepIteratorExt15quote_into_iterB1m_, symObjAddr: 0x83B4, symBinAddr: 0x7EB1C, symSize: 0x24 }
  - { offset: 0xBA229, size: 0x8, addend: 0x0, symName: __RNvYINtNtNtNtCsfvfooZQ3Axs_4core4iter8adapters3map3MapINtNtNtBb_5slice4iter4IterTRNtNtNtCs1edtEUeLQ4Q_12serde_derive9internals3ast5FieldNtCs3cP53eQoTwO_11proc_macro25IdentEENCNvNtB1o_2de15deserialize_maps8_0ENtNtNtCs2cqEZUIJimJ_5quote9___private3ext14RepIteratorExt15quote_into_iterB1o_, symObjAddr: 0x83D8, symBinAddr: 0x7EB40, symSize: 0x28 }
  - { offset: 0xBA25E, size: 0x8, addend: 0x0, symName: __RNvYINtNtNtNtCsfvfooZQ3Axs_4core4iter8adapters3map3MapINtNtNtNtCse1nGBsou5OW_5alloc11collections5btree3set4IterNtNtNtCs1edtEUeLQ4Q_12serde_derive9internals4name4NameENCNCNvNtB1R_2de22deserialize_identifiers_00ENtNtNtCs2cqEZUIJimJ_5quote9___private3ext14RepIteratorExt15quote_into_iterB1R_, symObjAddr: 0x8400, symBinAddr: 0x7EB68, symSize: 0x40 }
  - { offset: 0xBC9EC, size: 0x8, addend: 0x0, symName: __RINvMNtCsfvfooZQ3Axs_4core6optionINtB3_6OptionIBw_RNtNtNtCs1edtEUeLQ4Q_12serde_derive9internals3ast5FieldEE18get_or_insert_withNCNvMs3_NtNtNtB5_4iter8adapters8peekableINtB29_8PeekableINtNtB2b_6filter6FilterINtNtNtB5_5slice4iter4IterBN_ENCNvNtBT_3ser23serialize_struct_as_map0EE4peek0EBT_, symObjAddr: 0x0, symBinAddr: 0x7EF54, symSize: 0xFC }
  - { offset: 0xBCA48, size: 0x8, addend: 0x0, symName: __RNvXsw_NtCse1nGBsou5OW_5alloc6stringNtCs3cP53eQoTwO_11proc_macro211TokenStreamNtB5_8ToString9to_stringCs1edtEUeLQ4Q_12serde_derive, symObjAddr: 0x6854, symBinAddr: 0x857A8, symSize: 0x24 }
  - { offset: 0xBCA85, size: 0x8, addend: 0x0, symName: __RNvXsx_NtCse1nGBsou5OW_5alloc6stringNtCs3cP53eQoTwO_11proc_macro211TokenStreamNtB5_12SpecToString14spec_to_stringCs1edtEUeLQ4Q_12serde_derive, symObjAddr: 0x6878, symBinAddr: 0x857CC, symSize: 0x144 }
  - { offset: 0xBD400, size: 0x8, addend: 0x0, symName: __RNvNtCse1nGBsou5OW_5alloc5alloc12alloc_zeroedCs1edtEUeLQ4Q_12serde_derive, symObjAddr: 0x4FD0, symBinAddr: 0x83F24, symSize: 0x84 }
  - { offset: 0xBD4C4, size: 0x8, addend: 0x0, symName: __RNvXs_NtCse1nGBsou5OW_5alloc5allocNtB4_6GlobalNtNtCsfvfooZQ3Axs_4core5alloc9Allocator10deallocateCs1edtEUeLQ4Q_12serde_derive, symObjAddr: 0x5D1C, symBinAddr: 0x84C70, symSize: 0x88 }
  - { offset: 0xBD59F, size: 0x8, addend: 0x0, symName: __RNvXs_NtCse1nGBsou5OW_5alloc5allocNtB4_6GlobalNtNtCsfvfooZQ3Axs_4core5alloc9Allocator8allocateCs1edtEUeLQ4Q_12serde_derive, symObjAddr: 0x5DA4, symBinAddr: 0x84CF8, symSize: 0x34 }
  - { offset: 0xBD5DA, size: 0x8, addend: 0x0, symName: __RNvNtCse1nGBsou5OW_5alloc5alloc15exchange_mallocCs1edtEUeLQ4Q_12serde_derive, symObjAddr: 0x5054, symBinAddr: 0x83FA8, symSize: 0xA4 }
  - { offset: 0xBD671, size: 0x8, addend: 0x0, symName: __RNvNtCse1nGBsou5OW_5alloc5alloc5allocCs1edtEUeLQ4Q_12serde_derive, symObjAddr: 0x50F8, symBinAddr: 0x8404C, symSize: 0x84 }
  - { offset: 0xBD70D, size: 0x8, addend: 0x0, symName: __RNvXs1_NtCse1nGBsou5OW_5alloc5allocNtB5_6GlobalNtNtCsfvfooZQ3Axs_4core5clone5Clone5cloneCs1edtEUeLQ4Q_12serde_derive, symObjAddr: 0x546C, symBinAddr: 0x843C0, symSize: 0x10 }
  - { offset: 0xBD73B, size: 0x8, addend: 0x0, symName: __RNvXs2_NtCse1nGBsou5OW_5alloc5allocNtB5_6GlobalNtNtCsfvfooZQ3Axs_4core7default7Default7defaultCs1edtEUeLQ4Q_12serde_derive, symObjAddr: 0x54C0, symBinAddr: 0x84414, symSize: 0x4 }
  - { offset: 0xBE140, size: 0x8, addend: 0x0, symName: __RINvXsl_NtNtNtCse1nGBsou5OW_5alloc11collections5btree3setINtB6_8BTreeSetNtNtCs6IAuOt8vWmF_3syn8lifetime8LifetimeEINtNtNtNtCsfvfooZQ3Axs_4core4iter6traits7collect6ExtendB18_E6extendINtNtNtB1U_8adapters6cloned6ClonedINtB6_4IterB18_EEECs1edtEUeLQ4Q_12serde_derive, symObjAddr: 0x2F30, symBinAddr: 0x81E84, symSize: 0x40 }
  - { offset: 0xBE195, size: 0x8, addend: 0x0, symName: __RINvXsl_NtNtNtCse1nGBsou5OW_5alloc11collections5btree3setINtB6_8BTreeSetNtNtCs6IAuOt8vWmF_3syn8lifetime8LifetimeEINtNtNtNtCsfvfooZQ3Axs_4core4iter6traits7collect6ExtendB18_E6extendINtNtNtB1U_8adapters6cloned6ClonedINtNtB1W_6option4IterB18_EEECs1edtEUeLQ4Q_12serde_derive, symObjAddr: 0x2F70, symBinAddr: 0x81EC4, symSize: 0x3C }
  - { offset: 0xBE1EE, size: 0x8, addend: 0x0, symName: __RNCINvXsl_NtNtNtCse1nGBsou5OW_5alloc11collections5btree3setINtB8_8BTreeSetNtNtCs6IAuOt8vWmF_3syn8lifetime8LifetimeEINtNtNtNtCsfvfooZQ3Axs_4core4iter6traits7collect6ExtendB1a_E6extendINtNtNtB1W_8adapters6cloned6ClonedINtB8_4IterB1a_EEE0Cs1edtEUeLQ4Q_12serde_derive, symObjAddr: 0x38F8, symBinAddr: 0x8284C, symSize: 0x38 }
  - { offset: 0xBE26C, size: 0x8, addend: 0x0, symName: __RNCINvXsl_NtNtNtCse1nGBsou5OW_5alloc11collections5btree3setINtB8_8BTreeSetNtNtCs6IAuOt8vWmF_3syn8lifetime8LifetimeEINtNtNtNtCsfvfooZQ3Axs_4core4iter6traits7collect6ExtendB1a_E6extendINtNtNtB1W_8adapters6cloned6ClonedINtNtB1Y_6option4IterB1a_EEE0Cs1edtEUeLQ4Q_12serde_derive, symObjAddr: 0x3930, symBinAddr: 0x82884, symSize: 0x38 }
  - { offset: 0xBE353, size: 0x8, addend: 0x0, symName: __RNvXs3_NtNtNtCse1nGBsou5OW_5alloc11collections5btree3setINtB5_8BTreeSetNtNtCs6IAuOt8vWmF_3syn8lifetime8LifetimeENtNtCsfvfooZQ3Axs_4core5clone5Clone5cloneCs1edtEUeLQ4Q_12serde_derive, symObjAddr: 0x568C, symBinAddr: 0x845E0, symSize: 0x40 }
  - { offset: 0xBE397, size: 0x8, addend: 0x0, symName: __RNvXsh_NtNtNtCse1nGBsou5OW_5alloc11collections5btree3setRINtB5_8BTreeSetNtNtCs6IAuOt8vWmF_3syn8lifetime8LifetimeENtNtNtNtCsfvfooZQ3Axs_4core4iter6traits7collect12IntoIterator9into_iterCs1edtEUeLQ4Q_12serde_derive, symObjAddr: 0x5F18, symBinAddr: 0x84E6C, symSize: 0x154 }
  - { offset: 0xBE4C4, size: 0x8, addend: 0x0, symName: __RNvXsh_NtNtNtCse1nGBsou5OW_5alloc11collections5btree3setRINtB5_8BTreeSetNtNtNtCs1edtEUeLQ4Q_12serde_derive9internals4name4NameENtNtNtNtCsfvfooZQ3Axs_4core4iter6traits7collect12IntoIterator9into_iterB1e_, symObjAddr: 0x606C, symBinAddr: 0x84FC0, symSize: 0x154 }
  - { offset: 0xBE5F7, size: 0x8, addend: 0x0, symName: __RNvXsn_NtNtNtCse1nGBsou5OW_5alloc11collections5btree3setINtB5_8BTreeSetNtNtCs6IAuOt8vWmF_3syn8lifetime8LifetimeENtNtCsfvfooZQ3Axs_4core7default7Default7defaultCs1edtEUeLQ4Q_12serde_derive, symObjAddr: 0x61E0, symBinAddr: 0x85134, symSize: 0x40 }
  - { offset: 0xBE650, size: 0x8, addend: 0x0, symName: __RNvXsu_NtNtNtCse1nGBsou5OW_5alloc11collections5btree3setINtB5_4IterNtNtCs6IAuOt8vWmF_3syn8lifetime8LifetimeENtNtNtNtCsfvfooZQ3Axs_4core4iter6traits8iterator8Iterator4nextCs1edtEUeLQ4Q_12serde_derive, symObjAddr: 0x6220, symBinAddr: 0x85174, symSize: 0x6C }
  - { offset: 0xBE6E7, size: 0x8, addend: 0x0, symName: __RNvXsu_NtNtNtCse1nGBsou5OW_5alloc11collections5btree3setINtB5_4IterNtNtNtCs1edtEUeLQ4Q_12serde_derive9internals4name4NameENtNtNtNtCsfvfooZQ3Axs_4core4iter6traits8iterator8Iterator4nextB19_, symObjAddr: 0x628C, symBinAddr: 0x851E0, symSize: 0x6C }
  - { offset: 0xC61A6, size: 0x8, addend: 0x0, symName: __RNvXs5_NtCsfvfooZQ3Axs_4core6optionINtB5_6OptionNtNtCs6IAuOt8vWmF_3syn8generics12GenericParamENtNtNtNtB7_4iter6traits7collect12IntoIterator9into_iterCs1edtEUeLQ4Q_12serde_derive, symObjAddr: 0x56CC, symBinAddr: 0x84620, symSize: 0x50 }
  - { offset: 0xC61DE, size: 0x8, addend: 0x0, symName: __RNvXs5_NtCsfvfooZQ3Axs_4core6optionINtB5_6OptionNtNtCs6IAuOt8vWmF_3syn8generics14WherePredicateENtNtNtNtB7_4iter6traits7collect12IntoIterator9into_iterCs1edtEUeLQ4Q_12serde_derive, symObjAddr: 0x571C, symBinAddr: 0x84670, symSize: 0x50 }
  - { offset: 0xC6216, size: 0x8, addend: 0x0, symName: __RNvXs5_NtCsfvfooZQ3Axs_4core6optionINtB5_6OptionQNtNtCs6IAuOt8vWmF_3syn2ty4TypeENtNtNtNtB7_4iter6traits7collect12IntoIterator9into_iterCs1edtEUeLQ4Q_12serde_derive, symObjAddr: 0x576C, symBinAddr: 0x846C0, symSize: 0x14 }
  - { offset: 0xC624D, size: 0x8, addend: 0x0, symName: __RNvXs5_NtCsfvfooZQ3Axs_4core6optionINtB5_6OptionQNtNtCs6IAuOt8vWmF_3syn2ty9BareFnArgENtNtNtNtB7_4iter6traits7collect12IntoIterator9into_iterCs1edtEUeLQ4Q_12serde_derive, symObjAddr: 0x5780, symBinAddr: 0x846D4, symSize: 0x14 }
  - { offset: 0xC6284, size: 0x8, addend: 0x0, symName: __RNvXs5_NtCsfvfooZQ3Axs_4core6optionINtB5_6OptionQNtNtCs6IAuOt8vWmF_3syn4data7VariantENtNtNtNtB7_4iter6traits7collect12IntoIterator9into_iterCs1edtEUeLQ4Q_12serde_derive, symObjAddr: 0x5794, symBinAddr: 0x846E8, symSize: 0x14 }
  - { offset: 0xC62BB, size: 0x8, addend: 0x0, symName: __RNvXs5_NtCsfvfooZQ3Axs_4core6optionINtB5_6OptionQNtNtCs6IAuOt8vWmF_3syn4expr4ExprENtNtNtNtB7_4iter6traits7collect12IntoIterator9into_iterCs1edtEUeLQ4Q_12serde_derive, symObjAddr: 0x57A8, symBinAddr: 0x846FC, symSize: 0x14 }
  - { offset: 0xC62F2, size: 0x8, addend: 0x0, symName: __RNvXs5_NtCsfvfooZQ3Axs_4core6optionINtB5_6OptionQNtNtCs6IAuOt8vWmF_3syn4path15GenericArgumentENtNtNtNtB7_4iter6traits7collect12IntoIterator9into_iterCs1edtEUeLQ4Q_12serde_derive, symObjAddr: 0x57BC, symBinAddr: 0x84710, symSize: 0x14 }
  - { offset: 0xC6329, size: 0x8, addend: 0x0, symName: __RNvXs5_NtCsfvfooZQ3Axs_4core6optionINtB5_6OptionQNtNtCs6IAuOt8vWmF_3syn8generics14TypeParamBoundENtNtNtNtB7_4iter6traits7collect12IntoIterator9into_iterCs1edtEUeLQ4Q_12serde_derive, symObjAddr: 0x57D0, symBinAddr: 0x84724, symSize: 0x14 }
  - { offset: 0xC6360, size: 0x8, addend: 0x0, symName: __RNvXs5_NtCsfvfooZQ3Axs_4core6optionINtB5_6OptionQNtNtCs6IAuOt8vWmF_3syn8generics14WherePredicateENtNtNtNtB7_4iter6traits7collect12IntoIterator9into_iterCs1edtEUeLQ4Q_12serde_derive, symObjAddr: 0x57E4, symBinAddr: 0x84738, symSize: 0x14 }
  - { offset: 0xC639D, size: 0x8, addend: 0x0, symName: __RNvXs8_NtCsfvfooZQ3Axs_4core6optionINtB5_6OptionINtNtCse1nGBsou5OW_5alloc3vec3VecNtNtCs6IAuOt8vWmF_3syn8generics14WherePredicateEEINtNtB7_7convert4FromBK_E4fromCs1edtEUeLQ4Q_12serde_derive, symObjAddr: 0x584C, symBinAddr: 0x847A0, symSize: 0x18 }
  - { offset: 0xC655A, size: 0x8, addend: 0x0, symName: __RNvXsO_NtCsfvfooZQ3Axs_4core6optionINtB5_8IntoIterRNtNtCs6IAuOt8vWmF_3syn2ty4TypeENtNtB7_5clone5Clone5cloneCs1edtEUeLQ4Q_12serde_derive, symObjAddr: 0x5924, symBinAddr: 0x84878, symSize: 0x68 }
  - { offset: 0xC6601, size: 0x8, addend: 0x0, symName: __RNvXsO_NtCsfvfooZQ3Axs_4core6optionINtB5_8IntoIterRNtNtCs6IAuOt8vWmF_3syn2ty9BareFnArgENtNtB7_5clone5Clone5cloneCs1edtEUeLQ4Q_12serde_derive, symObjAddr: 0x598C, symBinAddr: 0x848E0, symSize: 0x68 }
  - { offset: 0xC66A8, size: 0x8, addend: 0x0, symName: __RNvXsO_NtCsfvfooZQ3Axs_4core6optionINtB5_8IntoIterRNtNtCs6IAuOt8vWmF_3syn4data7VariantENtNtB7_5clone5Clone5cloneCs1edtEUeLQ4Q_12serde_derive, symObjAddr: 0x59F4, symBinAddr: 0x84948, symSize: 0x68 }
  - { offset: 0xC674F, size: 0x8, addend: 0x0, symName: __RNvXsO_NtCsfvfooZQ3Axs_4core6optionINtB5_8IntoIterRNtNtCs6IAuOt8vWmF_3syn4path15GenericArgumentENtNtB7_5clone5Clone5cloneCs1edtEUeLQ4Q_12serde_derive, symObjAddr: 0x5A5C, symBinAddr: 0x849B0, symSize: 0x68 }
  - { offset: 0xC6A6F, size: 0x8, addend: 0x0, symName: __RNvXsk_NtCsfvfooZQ3Axs_4core6optionINtB5_4IterNtNtCs6IAuOt8vWmF_3syn8lifetime8LifetimeENtNtNtNtB7_4iter6traits8iterator8Iterator4nextCs1edtEUeLQ4Q_12serde_derive, symObjAddr: 0x61C0, symBinAddr: 0x85114, symSize: 0x20 }
  - { offset: 0xC6CA7, size: 0x8, addend: 0x0, symName: __RNvXsv_NtCsfvfooZQ3Axs_4core6optionINtB5_8IntoIterNtNtCs6IAuOt8vWmF_3syn8generics12GenericParamENtNtNtNtB7_4iter6traits8iterator8Iterator4nextCs1edtEUeLQ4Q_12serde_derive, symObjAddr: 0x62F8, symBinAddr: 0x8524C, symSize: 0x68 }
  - { offset: 0xC6D4A, size: 0x8, addend: 0x0, symName: __RNvXsv_NtCsfvfooZQ3Axs_4core6optionINtB5_8IntoIterNtNtCs6IAuOt8vWmF_3syn8generics12GenericParamENtNtNtNtB7_4iter6traits8iterator8Iterator9size_hintCs1edtEUeLQ4Q_12serde_derive, symObjAddr: 0x6360, symBinAddr: 0x852B4, symSize: 0x44 }
  - { offset: 0xC6DC2, size: 0x8, addend: 0x0, symName: __RNvXsv_NtCsfvfooZQ3Axs_4core6optionINtB5_8IntoIterNtNtCs6IAuOt8vWmF_3syn8generics14WherePredicateENtNtNtNtB7_4iter6traits8iterator8Iterator4nextCs1edtEUeLQ4Q_12serde_derive, symObjAddr: 0x63A4, symBinAddr: 0x852F8, symSize: 0x68 }
  - { offset: 0xC6E65, size: 0x8, addend: 0x0, symName: __RNvXsv_NtCsfvfooZQ3Axs_4core6optionINtB5_8IntoIterNtNtCs6IAuOt8vWmF_3syn8generics14WherePredicateENtNtNtNtB7_4iter6traits8iterator8Iterator9size_hintCs1edtEUeLQ4Q_12serde_derive, symObjAddr: 0x640C, symBinAddr: 0x85360, symSize: 0x44 }
  - { offset: 0xC6EDD, size: 0x8, addend: 0x0, symName: __RNvXsv_NtCsfvfooZQ3Axs_4core6optionINtB5_8IntoIterQNtNtCs6IAuOt8vWmF_3syn2ty4TypeENtNtNtNtB7_4iter6traits8iterator8Iterator4nextCs1edtEUeLQ4Q_12serde_derive, symObjAddr: 0x6450, symBinAddr: 0x853A4, symSize: 0x28 }
  - { offset: 0xC6F80, size: 0x8, addend: 0x0, symName: __RNvXsv_NtCsfvfooZQ3Axs_4core6optionINtB5_8IntoIterQNtNtCs6IAuOt8vWmF_3syn2ty4TypeENtNtNtNtB7_4iter6traits8iterator8Iterator9size_hintCs1edtEUeLQ4Q_12serde_derive, symObjAddr: 0x6478, symBinAddr: 0x853CC, symSize: 0x44 }
  - { offset: 0xC6FF8, size: 0x8, addend: 0x0, symName: __RNvXsv_NtCsfvfooZQ3Axs_4core6optionINtB5_8IntoIterQNtNtCs6IAuOt8vWmF_3syn2ty9BareFnArgENtNtNtNtB7_4iter6traits8iterator8Iterator4nextCs1edtEUeLQ4Q_12serde_derive, symObjAddr: 0x64BC, symBinAddr: 0x85410, symSize: 0x28 }
  - { offset: 0xC709B, size: 0x8, addend: 0x0, symName: __RNvXsv_NtCsfvfooZQ3Axs_4core6optionINtB5_8IntoIterQNtNtCs6IAuOt8vWmF_3syn2ty9BareFnArgENtNtNtNtB7_4iter6traits8iterator8Iterator9size_hintCs1edtEUeLQ4Q_12serde_derive, symObjAddr: 0x64E4, symBinAddr: 0x85438, symSize: 0x44 }
  - { offset: 0xC7113, size: 0x8, addend: 0x0, symName: __RNvXsv_NtCsfvfooZQ3Axs_4core6optionINtB5_8IntoIterQNtNtCs6IAuOt8vWmF_3syn4data7VariantENtNtNtNtB7_4iter6traits8iterator8Iterator4nextCs1edtEUeLQ4Q_12serde_derive, symObjAddr: 0x6528, symBinAddr: 0x8547C, symSize: 0x28 }
  - { offset: 0xC71B6, size: 0x8, addend: 0x0, symName: __RNvXsv_NtCsfvfooZQ3Axs_4core6optionINtB5_8IntoIterQNtNtCs6IAuOt8vWmF_3syn4data7VariantENtNtNtNtB7_4iter6traits8iterator8Iterator9size_hintCs1edtEUeLQ4Q_12serde_derive, symObjAddr: 0x6550, symBinAddr: 0x854A4, symSize: 0x44 }
  - { offset: 0xC722E, size: 0x8, addend: 0x0, symName: __RNvXsv_NtCsfvfooZQ3Axs_4core6optionINtB5_8IntoIterQNtNtCs6IAuOt8vWmF_3syn4expr4ExprENtNtNtNtB7_4iter6traits8iterator8Iterator4nextCs1edtEUeLQ4Q_12serde_derive, symObjAddr: 0x6594, symBinAddr: 0x854E8, symSize: 0x28 }
  - { offset: 0xC72D1, size: 0x8, addend: 0x0, symName: __RNvXsv_NtCsfvfooZQ3Axs_4core6optionINtB5_8IntoIterQNtNtCs6IAuOt8vWmF_3syn4expr4ExprENtNtNtNtB7_4iter6traits8iterator8Iterator9size_hintCs1edtEUeLQ4Q_12serde_derive, symObjAddr: 0x65BC, symBinAddr: 0x85510, symSize: 0x44 }
  - { offset: 0xC7349, size: 0x8, addend: 0x0, symName: __RNvXsv_NtCsfvfooZQ3Axs_4core6optionINtB5_8IntoIterQNtNtCs6IAuOt8vWmF_3syn4path15GenericArgumentENtNtNtNtB7_4iter6traits8iterator8Iterator4nextCs1edtEUeLQ4Q_12serde_derive, symObjAddr: 0x6600, symBinAddr: 0x85554, symSize: 0x28 }
  - { offset: 0xC73EC, size: 0x8, addend: 0x0, symName: __RNvXsv_NtCsfvfooZQ3Axs_4core6optionINtB5_8IntoIterQNtNtCs6IAuOt8vWmF_3syn4path15GenericArgumentENtNtNtNtB7_4iter6traits8iterator8Iterator9size_hintCs1edtEUeLQ4Q_12serde_derive, symObjAddr: 0x6628, symBinAddr: 0x8557C, symSize: 0x44 }
  - { offset: 0xC7464, size: 0x8, addend: 0x0, symName: __RNvXsv_NtCsfvfooZQ3Axs_4core6optionINtB5_8IntoIterQNtNtCs6IAuOt8vWmF_3syn8generics14TypeParamBoundENtNtNtNtB7_4iter6traits8iterator8Iterator4nextCs1edtEUeLQ4Q_12serde_derive, symObjAddr: 0x666C, symBinAddr: 0x855C0, symSize: 0x28 }
  - { offset: 0xC7507, size: 0x8, addend: 0x0, symName: __RNvXsv_NtCsfvfooZQ3Axs_4core6optionINtB5_8IntoIterQNtNtCs6IAuOt8vWmF_3syn8generics14TypeParamBoundENtNtNtNtB7_4iter6traits8iterator8Iterator9size_hintCs1edtEUeLQ4Q_12serde_derive, symObjAddr: 0x6694, symBinAddr: 0x855E8, symSize: 0x44 }
  - { offset: 0xC757F, size: 0x8, addend: 0x0, symName: __RNvXsv_NtCsfvfooZQ3Axs_4core6optionINtB5_8IntoIterQNtNtCs6IAuOt8vWmF_3syn8generics14WherePredicateENtNtNtNtB7_4iter6traits8iterator8Iterator4nextCs1edtEUeLQ4Q_12serde_derive, symObjAddr: 0x66D8, symBinAddr: 0x8562C, symSize: 0x28 }
  - { offset: 0xC7622, size: 0x8, addend: 0x0, symName: __RNvXsv_NtCsfvfooZQ3Axs_4core6optionINtB5_8IntoIterQNtNtCs6IAuOt8vWmF_3syn8generics14WherePredicateENtNtNtNtB7_4iter6traits8iterator8Iterator9size_hintCs1edtEUeLQ4Q_12serde_derive, symObjAddr: 0x6700, symBinAddr: 0x85654, symSize: 0x44 }
  - { offset: 0xC769A, size: 0x8, addend: 0x0, symName: __RNvXsv_NtCsfvfooZQ3Axs_4core6optionINtB5_8IntoIterRNtNtCs6IAuOt8vWmF_3syn2ty4TypeENtNtNtNtB7_4iter6traits8iterator8Iterator9size_hintCs1edtEUeLQ4Q_12serde_derive, symObjAddr: 0x6744, symBinAddr: 0x85698, symSize: 0x44 }
  - { offset: 0xC7712, size: 0x8, addend: 0x0, symName: __RNvXsv_NtCsfvfooZQ3Axs_4core6optionINtB5_8IntoIterRNtNtCs6IAuOt8vWmF_3syn2ty9BareFnArgENtNtNtNtB7_4iter6traits8iterator8Iterator9size_hintCs1edtEUeLQ4Q_12serde_derive, symObjAddr: 0x6788, symBinAddr: 0x856DC, symSize: 0x44 }
  - { offset: 0xC778A, size: 0x8, addend: 0x0, symName: __RNvXsv_NtCsfvfooZQ3Axs_4core6optionINtB5_8IntoIterRNtNtCs6IAuOt8vWmF_3syn4data7VariantENtNtNtNtB7_4iter6traits8iterator8Iterator9size_hintCs1edtEUeLQ4Q_12serde_derive, symObjAddr: 0x67CC, symBinAddr: 0x85720, symSize: 0x44 }
  - { offset: 0xC7802, size: 0x8, addend: 0x0, symName: __RNvXsv_NtCsfvfooZQ3Axs_4core6optionINtB5_8IntoIterRNtNtCs6IAuOt8vWmF_3syn4path15GenericArgumentENtNtNtNtB7_4iter6traits8iterator8Iterator9size_hintCs1edtEUeLQ4Q_12serde_derive, symObjAddr: 0x6810, symBinAddr: 0x85764, symSize: 0x44 }
  - { offset: 0xC8366, size: 0x8, addend: 0x0, symName: __RNvXsA_NtCsfvfooZQ3Axs_4core4cellINtB5_3RefINtNtB7_6option6OptionINtNtCse1nGBsou5OW_5alloc3vec3VecNtNtCs6IAuOt8vWmF_3syn5error5ErrorEEENtNtNtB7_3ops5deref5Deref5derefCs1edtEUeLQ4Q_12serde_derive, symObjAddr: 0x5864, symBinAddr: 0x847B8, symSize: 0x18 }
  - { offset: 0xC83B8, size: 0x8, addend: 0x0, symName: __RNvXsJ_NtCsfvfooZQ3Axs_4core4cellINtB5_6RefMutINtNtB7_6option6OptionINtNtCse1nGBsou5OW_5alloc3vec3VecNtNtCs6IAuOt8vWmF_3syn5error5ErrorEEENtNtNtB7_3ops5deref8DerefMut9deref_mutCs1edtEUeLQ4Q_12serde_derive, symObjAddr: 0x590C, symBinAddr: 0x84860, symSize: 0x18 }
  - { offset: 0xC840A, size: 0x8, addend: 0x0, symName: __RNvXsy_NtCsfvfooZQ3Axs_4core4cellNtB5_9BorrowRefNtNtNtB7_3ops4drop4Drop4dropCs1edtEUeLQ4Q_12serde_derive, symObjAddr: 0x69BC, symBinAddr: 0x85910, symSize: 0x28 }
  - { offset: 0xC9064, size: 0x8, addend: 0x0, symName: __RINvYINtNtCsfvfooZQ3Axs_4core6option4IterNtNtCs6IAuOt8vWmF_3syn8lifetime8LifetimeENtNtNtNtB8_4iter6traits8iterator8Iterator3mapBD_NvYBD_NtNtB8_5clone5Clone5cloneECs1edtEUeLQ4Q_12serde_derive, symObjAddr: 0x3030, symBinAddr: 0x81F84, symSize: 0x14 }
  - { offset: 0xC90BC, size: 0x8, addend: 0x0, symName: __RINvYINtNtCsfvfooZQ3Axs_4core6option4IterNtNtCs6IAuOt8vWmF_3syn8lifetime8LifetimeENtNtNtNtB8_4iter6traits8iterator8Iterator4folduNCINvNtNtB1o_8adapters3map8map_foldRBD_BD_uNvYBD_NtNtB8_5clone5Clone5cloneNCINvNvB1i_8for_each4callBD_NCINvXsl_NtNtNtCse1nGBsou5OW_5alloc11collections5btree3setINtB3Q_8BTreeSetBD_EINtNtB1m_7collect6ExtendBD_E6extendINtNtB2a_6cloned6ClonedB3_EE0E0E0ECs1edtEUeLQ4Q_12serde_derive, symObjAddr: 0x3044, symBinAddr: 0x81F98, symSize: 0xB4 }
  - { offset: 0xC914B, size: 0x8, addend: 0x0, symName: __RINvYINtNtCsfvfooZQ3Axs_4core6option4IterNtNtCs6IAuOt8vWmF_3syn8lifetime8LifetimeENtNtNtNtB8_4iter6traits8iterator8Iterator6clonedBD_ECs1edtEUeLQ4Q_12serde_derive, symObjAddr: 0x30F8, symBinAddr: 0x8204C, symSize: 0x14 }
  - { offset: 0xC918B, size: 0x8, addend: 0x0, symName: __RINvYINtNtCsfvfooZQ3Axs_4core6option8IntoIterNtNtCs6IAuOt8vWmF_3syn8generics12GenericParamENtNtNtNtB8_4iter6traits8iterator8Iterator4folduNCINvNvB1r_8for_each4callBH_NCINvMsi_NtCse1nGBsou5OW_5alloc3vecINtB2N_3VecBH_E14extend_trustedB3_E0E0ECs1edtEUeLQ4Q_12serde_derive, symObjAddr: 0x310C, symBinAddr: 0x82060, symSize: 0x148 }
  - { offset: 0xC921D, size: 0x8, addend: 0x0, symName: __RINvYINtNtCsfvfooZQ3Axs_4core6option8IntoIterNtNtCs6IAuOt8vWmF_3syn8generics12GenericParamENtNtNtNtB8_4iter6traits8iterator8Iterator5chainINtNtBL_10punctuated10PunctuatedBH_NtNtBL_5token5CommaEECs1edtEUeLQ4Q_12serde_derive, symObjAddr: 0x3254, symBinAddr: 0x821A8, symSize: 0xD0 }
  - { offset: 0xC9295, size: 0x8, addend: 0x0, symName: __RINvYINtNtCsfvfooZQ3Axs_4core6option8IntoIterNtNtCs6IAuOt8vWmF_3syn8generics12GenericParamENtNtNtNtB8_4iter6traits8iterator8Iterator5chainINtNtNtB1x_8adapters3map3MapINtNtB2h_6cloned6ClonedINtNtBL_10punctuated4IterBH_EENCNvNtCs1edtEUeLQ4Q_12serde_derive5bound19with_lifetime_bound0EEB3B_, symObjAddr: 0x3324, symBinAddr: 0x82278, symSize: 0xE4 }
  - { offset: 0xC93C5, size: 0x8, addend: 0x0, symName: __RINvYINtNtCsfvfooZQ3Axs_4core6option8IntoIterNtNtCs6IAuOt8vWmF_3syn8generics12GenericParamENtNtNtNtB8_4iter6traits8iterator8Iterator8for_eachNCINvMsi_NtCse1nGBsou5OW_5alloc3vecINtB2o_3VecBH_E14extend_trustedB3_E0ECs1edtEUeLQ4Q_12serde_derive, symObjAddr: 0x3408, symBinAddr: 0x8235C, symSize: 0x34 }
  - { offset: 0xC9431, size: 0x8, addend: 0x0, symName: __RINvYINtNtCsfvfooZQ3Axs_4core6option8IntoIterNtNtCs6IAuOt8vWmF_3syn8generics14WherePredicateENtNtNtNtB8_4iter6traits8iterator8Iterator4folduNCINvNvB1t_8for_each4callBH_NCINvMsi_NtCse1nGBsou5OW_5alloc3vecINtB2P_3VecBH_E14extend_trustedB3_E0E0ECs1edtEUeLQ4Q_12serde_derive, symObjAddr: 0x343C, symBinAddr: 0x82390, symSize: 0x144 }
  - { offset: 0xC94C3, size: 0x8, addend: 0x0, symName: __RINvYINtNtCsfvfooZQ3Axs_4core6option8IntoIterNtNtCs6IAuOt8vWmF_3syn8generics14WherePredicateENtNtNtNtB8_4iter6traits8iterator8Iterator8for_eachNCINvMsi_NtCse1nGBsou5OW_5alloc3vecINtB2q_3VecBH_E14extend_trustedB3_E0ECs1edtEUeLQ4Q_12serde_derive, symObjAddr: 0x3580, symBinAddr: 0x824D4, symSize: 0x34 }
  - { offset: 0xC952F, size: 0x8, addend: 0x0, symName: __RINvYINtNtNtNtCse1nGBsou5OW_5alloc11collections5btree3set4IterNtNtCs6IAuOt8vWmF_3syn8lifetime8LifetimeENtNtNtNtCsfvfooZQ3Axs_4core4iter6traits8iterator8Iterator3anyNCNvNtCs1edtEUeLQ4Q_12serde_derive2de18borrowed_lifetimes0EB2I_, symObjAddr: 0x35B4, symBinAddr: 0x82508, symSize: 0x3C }
  - { offset: 0xC957E, size: 0x8, addend: 0x0, symName: __RINvYINtNtNtNtCse1nGBsou5OW_5alloc11collections5btree3set4IterNtNtCs6IAuOt8vWmF_3syn8lifetime8LifetimeENtNtNtNtCsfvfooZQ3Axs_4core4iter6traits8iterator8Iterator3mapBY_NvYBY_NtNtB1L_5clone5Clone5cloneECs1edtEUeLQ4Q_12serde_derive, symObjAddr: 0x35F0, symBinAddr: 0x82544, symSize: 0x30 }
  - { offset: 0xC95EC, size: 0x8, addend: 0x0, symName: __RINvYINtNtNtNtCse1nGBsou5OW_5alloc11collections5btree3set4IterNtNtCs6IAuOt8vWmF_3syn8lifetime8LifetimeENtNtNtNtCsfvfooZQ3Axs_4core4iter6traits8iterator8Iterator4folduNCINvNtNtB1J_8adapters3map8map_foldRBY_BY_uNvYBY_NtNtB1L_5clone5Clone5cloneNCINvNvB1D_8for_each4callBY_NCINvXsl_B6_INtB6_8BTreeSetBY_EINtNtB1H_7collect6ExtendBY_E6extendINtNtB2L_6cloned6ClonedB3_EE0E0E0ECs1edtEUeLQ4Q_12serde_derive, symObjAddr: 0x3620, symBinAddr: 0x82574, symSize: 0xB4 }
  - { offset: 0xC967C, size: 0x8, addend: 0x0, symName: __RINvYINtNtNtNtCse1nGBsou5OW_5alloc11collections5btree3set4IterNtNtCs6IAuOt8vWmF_3syn8lifetime8LifetimeENtNtNtNtCsfvfooZQ3Axs_4core4iter6traits8iterator8Iterator6clonedBY_ECs1edtEUeLQ4Q_12serde_derive, symObjAddr: 0x36D4, symBinAddr: 0x82628, symSize: 0x30 }
  - { offset: 0xC96D2, size: 0x8, addend: 0x0, symName: __RINvYINtNtNtNtCse1nGBsou5OW_5alloc11collections5btree3set4IterNtNtCs6IAuOt8vWmF_3syn8lifetime8LifetimeENtNtNtNtCsfvfooZQ3Axs_4core4iter6traits8iterator8Iterator8try_folduNCINvNvB1D_3any5checkRBY_NCNvNtCs1edtEUeLQ4Q_12serde_derive2de18borrowed_lifetimes0E0INtNtNtB1L_3ops12control_flow11ControlFlowuEEB3d_, symObjAddr: 0x3704, symBinAddr: 0x82658, symSize: 0x134 }
  - { offset: 0xC978C, size: 0x8, addend: 0x0, symName: __RINvYINtNtNtNtCse1nGBsou5OW_5alloc11collections5btree3set4IterNtNtNtCs1edtEUeLQ4Q_12serde_derive9internals4name4NameENtNtNtNtCsfvfooZQ3Axs_4core4iter6traits8iterator8Iterator3mapNtCs3cP53eQoTwO_11proc_macro27LiteralNCNCNvNtB14_2de22deserialize_identifiers_00EB14_, symObjAddr: 0x3838, symBinAddr: 0x8278C, symSize: 0x30 }
  - { offset: 0xC982A, size: 0x8, addend: 0x0, symName: __RNCINvXsK_NtNtNtCsfvfooZQ3Axs_4core4iter6traits5accumjNtB8_3Sum3sumINtNtNtBc_8adapters3map3MapINtNtNtBe_5slice4iter4IterNtNtNtCs1edtEUeLQ4Q_12serde_derive9internals3ast5FieldENCINvNvXs1_NtB18_6filterINtB2Y_6FilterppENtNtBa_8iterator8Iterator5count8to_usizeRB1U_NCNvNtB20_2de15deserialize_seq0E0EE0B20_, symObjAddr: 0x3868, symBinAddr: 0x827BC, symSize: 0x48 }
  - { offset: 0xC9877, size: 0x8, addend: 0x0, symName: __RNCINvXsK_NtNtNtCsfvfooZQ3Axs_4core4iter6traits5accumjNtB8_3Sum3sumINtNtNtBc_8adapters3map3MapINtNtNtBe_5slice4iter4IterNtNtNtCs1edtEUeLQ4Q_12serde_derive9internals3ast5FieldENCINvNvXs1_NtB18_6filterINtB2Y_6FilterppENtNtBa_8iterator8Iterator5count8to_usizeRB1U_NCNvNtB20_2de17deserialize_tuple0E0EE0B20_, symObjAddr: 0x38B0, symBinAddr: 0x82804, symSize: 0x48 }
  - { offset: 0xC98DF, size: 0x8, addend: 0x0, symName: __RNvYINtNtCsfvfooZQ3Axs_4core6option8IntoIterQNtNtCs6IAuOt8vWmF_3syn2ty4TypeENtNtNtNtB7_4iter6traits10exact_size17ExactSizeIterator3lenCs1edtEUeLQ4Q_12serde_derive, symObjAddr: 0x69E4, symBinAddr: 0x85938, symSize: 0xF4 }
  - { offset: 0xC99D2, size: 0x8, addend: 0x0, symName: __RNvYINtNtCsfvfooZQ3Axs_4core6option8IntoIterQNtNtCs6IAuOt8vWmF_3syn2ty9BareFnArgENtNtNtNtB7_4iter6traits10exact_size17ExactSizeIterator3lenCs1edtEUeLQ4Q_12serde_derive, symObjAddr: 0x6AD8, symBinAddr: 0x85A2C, symSize: 0xF4 }
  - { offset: 0xC9AC5, size: 0x8, addend: 0x0, symName: __RNvYINtNtCsfvfooZQ3Axs_4core6option8IntoIterQNtNtCs6IAuOt8vWmF_3syn4data7VariantENtNtNtNtB7_4iter6traits10exact_size17ExactSizeIterator3lenCs1edtEUeLQ4Q_12serde_derive, symObjAddr: 0x6BCC, symBinAddr: 0x85B20, symSize: 0xF4 }
  - { offset: 0xC9BB8, size: 0x8, addend: 0x0, symName: __RNvYINtNtCsfvfooZQ3Axs_4core6option8IntoIterQNtNtCs6IAuOt8vWmF_3syn4expr4ExprENtNtNtNtB7_4iter6traits10exact_size17ExactSizeIterator3lenCs1edtEUeLQ4Q_12serde_derive, symObjAddr: 0x6CC0, symBinAddr: 0x85C14, symSize: 0xF4 }
  - { offset: 0xC9CAB, size: 0x8, addend: 0x0, symName: __RNvYINtNtCsfvfooZQ3Axs_4core6option8IntoIterQNtNtCs6IAuOt8vWmF_3syn4path15GenericArgumentENtNtNtNtB7_4iter6traits10exact_size17ExactSizeIterator3lenCs1edtEUeLQ4Q_12serde_derive, symObjAddr: 0x6DB4, symBinAddr: 0x85D08, symSize: 0xF4 }
  - { offset: 0xC9D9E, size: 0x8, addend: 0x0, symName: __RNvYINtNtCsfvfooZQ3Axs_4core6option8IntoIterQNtNtCs6IAuOt8vWmF_3syn8generics14TypeParamBoundENtNtNtNtB7_4iter6traits10exact_size17ExactSizeIterator3lenCs1edtEUeLQ4Q_12serde_derive, symObjAddr: 0x6EA8, symBinAddr: 0x85DFC, symSize: 0xF4 }
  - { offset: 0xC9E91, size: 0x8, addend: 0x0, symName: __RNvYINtNtCsfvfooZQ3Axs_4core6option8IntoIterQNtNtCs6IAuOt8vWmF_3syn8generics14WherePredicateENtNtNtNtB7_4iter6traits10exact_size17ExactSizeIterator3lenCs1edtEUeLQ4Q_12serde_derive, symObjAddr: 0x6F9C, symBinAddr: 0x85EF0, symSize: 0xF4 }
  - { offset: 0xC9F84, size: 0x8, addend: 0x0, symName: __RNvYINtNtCsfvfooZQ3Axs_4core6option8IntoIterRNtNtCs6IAuOt8vWmF_3syn2ty4TypeENtNtNtNtB7_4iter6traits10exact_size17ExactSizeIterator3lenCs1edtEUeLQ4Q_12serde_derive, symObjAddr: 0x7090, symBinAddr: 0x85FE4, symSize: 0xF4 }
  - { offset: 0xCA077, size: 0x8, addend: 0x0, symName: __RNvYINtNtCsfvfooZQ3Axs_4core6option8IntoIterRNtNtCs6IAuOt8vWmF_3syn2ty9BareFnArgENtNtNtNtB7_4iter6traits10exact_size17ExactSizeIterator3lenCs1edtEUeLQ4Q_12serde_derive, symObjAddr: 0x7184, symBinAddr: 0x860D8, symSize: 0xF4 }
  - { offset: 0xCA16A, size: 0x8, addend: 0x0, symName: __RNvYINtNtCsfvfooZQ3Axs_4core6option8IntoIterRNtNtCs6IAuOt8vWmF_3syn4data7VariantENtNtNtNtB7_4iter6traits10exact_size17ExactSizeIterator3lenCs1edtEUeLQ4Q_12serde_derive, symObjAddr: 0x7278, symBinAddr: 0x861CC, symSize: 0xF4 }
  - { offset: 0xCA25D, size: 0x8, addend: 0x0, symName: __RNvYINtNtCsfvfooZQ3Axs_4core6option8IntoIterRNtNtCs6IAuOt8vWmF_3syn4path15GenericArgumentENtNtNtNtB7_4iter6traits10exact_size17ExactSizeIterator3lenCs1edtEUeLQ4Q_12serde_derive, symObjAddr: 0x736C, symBinAddr: 0x862C0, symSize: 0xF4 }
  - { offset: 0xCA68E, size: 0x8, addend: 0x0, symName: __RNvMNtCsfvfooZQ3Axs_4core5sliceSNtCs3cP53eQoTwO_11proc_macro211TokenStream4iterCs1edtEUeLQ4Q_12serde_derive, symObjAddr: 0x3B30, symBinAddr: 0x82A84, symSize: 0x28 }
  - { offset: 0xCA6C5, size: 0x8, addend: 0x0, symName: __RNvMNtCsfvfooZQ3Axs_4core5sliceSNtCs3cP53eQoTwO_11proc_macro211TokenStream8is_emptyCs1edtEUeLQ4Q_12serde_derive, symObjAddr: 0x3B58, symBinAddr: 0x82AAC, symSize: 0x1C }
  - { offset: 0xCA6FA, size: 0x8, addend: 0x0, symName: __RNvMNtCsfvfooZQ3Axs_4core5sliceSNtCs3cP53eQoTwO_11proc_macro25Ident4iterCs1edtEUeLQ4Q_12serde_derive, symObjAddr: 0x3B74, symBinAddr: 0x82AC8, symSize: 0x28 }
  - { offset: 0xCA731, size: 0x8, addend: 0x0, symName: __RNvMNtCsfvfooZQ3Axs_4core5sliceSRNtCs3cP53eQoTwO_11proc_macro25Ident4iterCs1edtEUeLQ4Q_12serde_derive, symObjAddr: 0x3B9C, symBinAddr: 0x82AF0, symSize: 0x28 }
  - { offset: 0xCA768, size: 0x8, addend: 0x0, symName: __RNvMNtCsfvfooZQ3Axs_4core5sliceSTNtNtCs6IAuOt8vWmF_3syn4data7VariantNtNtBz_5token5CommaE8iter_mutCs1edtEUeLQ4Q_12serde_derive, symObjAddr: 0x3BC4, symBinAddr: 0x82B18, symSize: 0x28 }
  - { offset: 0xCAC39, size: 0x8, addend: 0x0, symName: __RINvNtNtNtCsfvfooZQ3Axs_4core9core_arch10arm_shared4neon13vget_lane_u64Kl0_ECs1edtEUeLQ4Q_12serde_derive, symObjAddr: 0x2D14, symBinAddr: 0x81C68, symSize: 0x18 }
  - { offset: 0xCACB3, size: 0x8, addend: 0x0, symName: __RNvNtNtNtCsfvfooZQ3Axs_4core9core_arch10arm_shared4neon9vdup_n_u8Cs1edtEUeLQ4Q_12serde_derive, symObjAddr: 0x51E4, symBinAddr: 0x84138, symSize: 0x34 }
  - { offset: 0xCAD3C, size: 0x8, addend: 0x0, symName: __RINvXs3_NtNtCsfvfooZQ3Axs_4core4hash5implsRNtCs3cP53eQoTwO_11proc_macro25IdentNtB8_4Hash4hashNtNtNtCscOYdFFY2T5N_3std4hash6random13DefaultHasherECs1edtEUeLQ4Q_12serde_derive, symObjAddr: 0x2EAC, symBinAddr: 0x81E00, symSize: 0x30 }
  - { offset: 0xCAEEE, size: 0x8, addend: 0x0, symName: __RNvXs1_NtCsfvfooZQ3Axs_4core7convertINtNtB7_6option6OptionNtNtCs6IAuOt8vWmF_3syn3lit6LitStrEINtB5_4IntoBy_E4intoCs1edtEUeLQ4Q_12serde_derive, symObjAddr: 0x547C, symBinAddr: 0x843D0, symSize: 0x1C }
  - { offset: 0xCAF2E, size: 0x8, addend: 0x0, symName: __RNvXs1_NtCsfvfooZQ3Axs_4core7convertNtCs3cP53eQoTwO_11proc_macro211TokenStreamINtB5_4IntoNtCs9i5KxIbZ5ph_10proc_macro11TokenStreamE4intoCs1edtEUeLQ4Q_12serde_derive, symObjAddr: 0x5498, symBinAddr: 0x843EC, symSize: 0x14 }
  - { offset: 0xCAF6F, size: 0x8, addend: 0x0, symName: __RNvXs1_NtCsfvfooZQ3Axs_4core7convertNtCs3cP53eQoTwO_11proc_macro25IdentINtB5_4IntoNtNtCs6IAuOt8vWmF_3syn4path4PathE4intoCs1edtEUeLQ4Q_12serde_derive, symObjAddr: 0x54AC, symBinAddr: 0x84400, symSize: 0x14 }
  - { offset: 0xCB356, size: 0x8, addend: 0x0, symName: __RNvYNtCs3cP53eQoTwO_11proc_macro25IdentINtNtCsfvfooZQ3Axs_4core3cmp9PartialEqReE2neCs1edtEUeLQ4Q_12serde_derive, symObjAddr: 0x74B0, symBinAddr: 0x86404, symSize: 0x30 }
  - { offset: 0xCB3B1, size: 0x8, addend: 0x0, symName: __RNvXNtCsfvfooZQ3Axs_4core6borrowNtCs3cP53eQoTwO_11proc_macro25IdentINtB2_6BorrowBu_E6borrowCs1edtEUeLQ4Q_12serde_derive, symObjAddr: 0x53D0, symBinAddr: 0x84324, symSize: 0x14 }
  - { offset: 0xCB59F, size: 0x8, addend: 0x0, symName: __RINvNtNtNtCs9i5KxIbZ5ph_10proc_macro6bridge6client5state3setINtNtCsfvfooZQ3Axs_4core6option6OptionNtB4_11TokenStreamENCNCINvB4_10run_clientB1y_BW_NCNCINvMs7_B4_INtB4_6ClientNtB8_11TokenStreamB2L_E7expand1NvCs1edtEUeLQ4Q_12serde_derive16derive_serializeE00E00EB3i_, symObjAddr: 0x2B44, symBinAddr: 0x81A98, symSize: 0xE8 }
  - { offset: 0xCB674, size: 0x8, addend: 0x0, symName: __RINvNtNtNtCs9i5KxIbZ5ph_10proc_macro6bridge6client5state3setINtNtCsfvfooZQ3Axs_4core6option6OptionNtB4_11TokenStreamENCNCINvB4_10run_clientB1y_BW_NCNCINvMs7_B4_INtB4_6ClientNtB8_11TokenStreamB2L_E7expand1NvCs1edtEUeLQ4Q_12serde_derive18derive_deserializeE00E00EB3i_, symObjAddr: 0x2C2C, symBinAddr: 0x81B80, symSize: 0xE8 }
  - { offset: 0xCB753, size: 0x8, addend: 0x0, symName: __RNCNkNvNtNtNtCs9i5KxIbZ5ph_10proc_macro6bridge6client5state12BRIDGE_STATE0s_0Cs1edtEUeLQ4Q_12serde_derive, symObjAddr: 0x3968, symBinAddr: 0x828BC, symSize: 0x34 }
  - { offset: 0xCBC0C, size: 0x8, addend: 0x0, symName: __RNvXsR_NtCs9i5KxIbZ5ph_10proc_macro6bridgeINtNtCsfvfooZQ3Axs_4core6option6OptionNtNtB5_6client11TokenStreamEINtNtB5_3rpc6EncodeuE6encodeCs1edtEUeLQ4Q_12serde_derive, symObjAddr: 0x5AC4, symBinAddr: 0x84A18, symSize: 0xCC }
  - { offset: 0xCBCB2, size: 0x8, addend: 0x0, symName: __RNvXsR_NtCs9i5KxIbZ5ph_10proc_macro6bridgeINtNtCsfvfooZQ3Axs_4core6option6OptionReEINtNtB5_3rpc6EncodeuE6encodeCs1edtEUeLQ4Q_12serde_derive, symObjAddr: 0x5B90, symBinAddr: 0x84AE4, symSize: 0xD8 }
  - { offset: 0xCC529, size: 0x8, addend: 0x0, symName: __RINvXs6_Cs3cP53eQoTwO_11proc_macro2NtB6_11TokenStreamINtNtNtNtCsfvfooZQ3Axs_4core4iter6traits7collect12FromIteratorNtB6_9TokenTreeE9from_iterINtNtNtBW_8adapters3map3MapNtNtB6_12token_stream8IntoIterNCNvNtNtCs1edtEUeLQ4Q_12serde_derive9internals6respan6respan0EEB3i_, symObjAddr: 0x2EDC, symBinAddr: 0x81E30, symSize: 0x54 }
  - { offset: 0xCC567, size: 0x8, addend: 0x0, symName: __RINvXsz_Cs3cP53eQoTwO_11proc_macro2NtB6_5IdentNtNtCsfvfooZQ3Axs_4core4hash4Hash4hashNtNtNtCscOYdFFY2T5N_3std4hash6random13DefaultHasherECs1edtEUeLQ4Q_12serde_derive, symObjAddr: 0x2FAC, symBinAddr: 0x81F00, symSize: 0x84 }
  - { offset: 0xCC5AF, size: 0x8, addend: 0x0, symName: __RNvXsG_Cs3cP53eQoTwO_11proc_macro2NtB5_11TokenStreamNtNtCsfvfooZQ3Axs_4core5clone5Clone5cloneCs1edtEUeLQ4Q_12serde_derive, symObjAddr: 0x587C, symBinAddr: 0x847D0, symSize: 0x78 }
  - { offset: 0xCC5E1, size: 0x8, addend: 0x0, symName: __RNvXsI_Cs3cP53eQoTwO_11proc_macro2NtB5_4SpanNtNtCsfvfooZQ3Axs_4core5clone5Clone5cloneCs1edtEUeLQ4Q_12serde_derive, symObjAddr: 0x58F4, symBinAddr: 0x84848, symSize: 0x18 }
  - { offset: 0xCC615, size: 0x8, addend: 0x0, symName: __RNvXsX_Cs3cP53eQoTwO_11proc_macro2NtB5_7SpacingNtNtCsfvfooZQ3Axs_4core3cmp9PartialEq2eqCs1edtEUeLQ4Q_12serde_derive, symObjAddr: 0x5C68, symBinAddr: 0x84BBC, symSize: 0x3C }
  - { offset: 0xCC694, size: 0x8, addend: 0x0, symName: __RNvXsY_Cs3cP53eQoTwO_11proc_macro2NtB5_5IdentNtNtCsfvfooZQ3Axs_4core5clone5Clone5cloneCs1edtEUeLQ4Q_12serde_derive, symObjAddr: 0x5CA4, symBinAddr: 0x84BF8, symSize: 0x78 }
  - { offset: 0xD1E68, size: 0x8, addend: 0x0, symName: __RNvXNtCs6IAuOt8vWmF_3syn7spannedNtNtB4_4data5FieldNtB2_7Spanned4spanCs1edtEUeLQ4Q_12serde_derive, symObjAddr: 0x5368, symBinAddr: 0x842BC, symSize: 0x34 }
  - { offset: 0xD1E9D, size: 0x8, addend: 0x0, symName: __RNvXNtCs6IAuOt8vWmF_3syn7spannedNtNtB4_4data7VariantNtB2_7Spanned4spanCs1edtEUeLQ4Q_12serde_derive, symObjAddr: 0x539C, symBinAddr: 0x842F0, symSize: 0x34 }
  - { offset: 0xD1EDE, size: 0x8, addend: 0x0, symName: __RNvXsb_NtCs6IAuOt8vWmF_3syn5parseINtNtCsfvfooZQ3Axs_4core6option6OptionNtCs3cP53eQoTwO_11proc_macro29TokenTreeENtB5_5Parse5parseCs1edtEUeLQ4Q_12serde_derive, symObjAddr: 0x5DD8, symBinAddr: 0x84D2C, symSize: 0x140 }
  - { offset: 0xD27E8, size: 0x8, addend: 0x0, symName: __RINvMNtCsfvfooZQ3Axs_4core6optionINtB3_6OptionIBw_RNtNtNtCs1edtEUeLQ4Q_12serde_derive9internals3ast5FieldEE18get_or_insert_withNCNvMs3_NtNtNtB5_4iter8adapters8peekableINtB29_8PeekableINtNtB2b_6filter6FilterINtNtNtB5_5slice4iter4IterBN_ENCNvNtBT_3ser23serialize_struct_as_map0EE4peek0EBT_, symObjAddr: 0x0, symBinAddr: 0x7EF54, symSize: 0xFC }
  - { offset: 0xD28E6, size: 0x8, addend: 0x0, symName: __RINvMNtCsfvfooZQ3Axs_4core6optionINtB3_6OptionIBw_RNtNtNtCs1edtEUeLQ4Q_12serde_derive9internals3ast5FieldEE18get_or_insert_withNCNvMs3_NtNtNtB5_4iter8adapters8peekableINtB29_8PeekableINtNtB2b_6filter6FilterINtNtNtB5_5slice4iter4IterBN_ENCNvNtBT_3ser24serialize_struct_variants_0EE4peek0EBT_, symObjAddr: 0xFC, symBinAddr: 0x7F050, symSize: 0xFC }
  - { offset: 0xD29E4, size: 0x8, addend: 0x0, symName: __RINvMNtCsfvfooZQ3Axs_4core6optionINtB3_6OptionIBw_RNtNtNtCs1edtEUeLQ4Q_12serde_derive9internals3ast5FieldEE18get_or_insert_withNCNvMs3_NtNtNtB5_4iter8adapters8peekableINtB29_8PeekableINtNtB2b_6filter6FilterINtNtNtB5_5slice4iter4IterBN_ENCNvNtBT_3ser26serialize_struct_as_struct0EE4peek0EBT_, symObjAddr: 0x1F8, symBinAddr: 0x7F14C, symSize: 0xFC }
  - { offset: 0xD2AE2, size: 0x8, addend: 0x0, symName: __RINvMNtCsfvfooZQ3Axs_4core6optionINtB3_6OptionIBw_RNtNtNtCs1edtEUeLQ4Q_12serde_derive9internals3ast5FieldEE18get_or_insert_withNCNvMs3_NtNtNtB5_4iter8adapters8peekableINtB29_8PeekableINtNtB2b_6filter6FilterINtNtNtB5_5slice4iter4IterBN_ENCNvNtBT_3ser37serialize_struct_variant_with_flatten0EE4peek0EBT_, symObjAddr: 0x2F4, symBinAddr: 0x7F248, symSize: 0xFC }
  - { offset: 0xD2C18, size: 0x8, addend: 0x0, symName: __RINvMNtCsfvfooZQ3Axs_4core6optionINtB3_6OptionIBw_TjRNtNtNtCs1edtEUeLQ4Q_12serde_derive9internals3ast5FieldEEE18get_or_insert_withNCNvMs3_NtNtNtB5_4iter8adapters8peekableINtB2c_8PeekableINtNtB2e_6filter6FilterINtNtB2e_9enumerate9EnumerateINtNtNtB5_5slice4iter4IterBP_EENCNvNtBV_3ser22serialize_tuple_struct0EE4peek0EBV_, symObjAddr: 0x3F0, symBinAddr: 0x7F344, symSize: 0x108 }
  - { offset: 0xD2D17, size: 0x8, addend: 0x0, symName: __RINvMNtCsfvfooZQ3Axs_4core6optionINtB3_6OptionIBw_TjRNtNtNtCs1edtEUeLQ4Q_12serde_derive9internals3ast5FieldEEE18get_or_insert_withNCNvMs3_NtNtNtB5_4iter8adapters8peekableINtB2c_8PeekableINtNtB2e_6filter6FilterINtNtB2e_9enumerate9EnumerateINtNtNtB5_5slice4iter4IterBP_EENCNvNtBV_3ser23serialize_tuple_variant0EE4peek0EBV_, symObjAddr: 0x4F8, symBinAddr: 0x7F44C, symSize: 0x108 }
  - { offset: 0xD2DB3, size: 0x8, addend: 0x0, symName: __RINvMNtCsfvfooZQ3Axs_4core6optionINtB3_6OptionINtNtCse1nGBsou5OW_5alloc5boxed3BoxNtNtCs6IAuOt8vWmF_3syn8generics12GenericParamEE3mapB1h_NCNvXs8_NtB1l_10punctuatedINtB2i_10PunctuatedB1h_NtNtB1l_5token5CommaENtNtNtNtB5_4iter6traits7collect12IntoIterator9into_iters_0ECs1edtEUeLQ4Q_12serde_derive, symObjAddr: 0x600, symBinAddr: 0x7F554, symSize: 0x78 }
  - { offset: 0xD2E1E, size: 0x8, addend: 0x0, symName: __RINvMNtCsfvfooZQ3Axs_4core6optionINtB3_6OptionINtNtCse1nGBsou5OW_5alloc5boxed3BoxNtNtCs6IAuOt8vWmF_3syn8generics14WherePredicateEE3mapB1h_NCNvXs8_NtB1l_10punctuatedINtB2k_10PunctuatedB1h_NtNtB1l_5token5CommaENtNtNtNtB5_4iter6traits7collect12IntoIterator9into_iters_0ECs1edtEUeLQ4Q_12serde_derive, symObjAddr: 0x678, symBinAddr: 0x7F5CC, symSize: 0x78 }
  - { offset: 0xD2EA1, size: 0x8, addend: 0x0, symName: __RINvMNtCsfvfooZQ3Axs_4core6optionINtB3_6OptionINtNtNtB5_3num7nonzero7NonZerojEE6map_orINtNtB5_6result6ResultuBI_ENcNtB1m_3Err0ECs1edtEUeLQ4Q_12serde_derive, symObjAddr: 0x6F0, symBinAddr: 0x7F644, symSize: 0xA8 }
  - { offset: 0xD2F13, size: 0x8, addend: 0x0, symName: __RINvMNtCsfvfooZQ3Axs_4core6optionINtB3_6OptionNtNtCs1edtEUeLQ4Q_12serde_derive8fragment4ExprE3mapNtCs3cP53eQoTwO_11proc_macro211TokenStreamNCNvNtBM_2de31deserialize_untagged_enum_afters0_0EBM_, symObjAddr: 0x798, symBinAddr: 0x7F6EC, symSize: 0x98 }
  - { offset: 0xD2FA6, size: 0x8, addend: 0x0, symName: __RINvMNtCsfvfooZQ3Axs_4core6optionINtB3_6OptionNtNtCs6IAuOt8vWmF_3syn2ty8TypePathE7or_elseNCNvXs_NtNtNtB5_4iter8adapters5chainINtB1w_5ChainINtNtB1y_3map3MapINtNtB1y_6filter6FilterIB2d_NtNtBM_8generics10TypeParamsNCNvNtCs1edtEUeLQ4Q_12serde_derive5bound10with_bounds1_0ENCB3p_s2_0ENCB3p_s3_0EINtNtB1y_6cloned6ClonedINtNtNtCse1nGBsou5OW_5alloc3vec9into_iter8IntoIterRBI_EEENtNtNtB1A_6traits8iterator8Iterator4next0EB3t_, symObjAddr: 0x830, symBinAddr: 0x7F784, symSize: 0xD8 }
  - { offset: 0xD306B, size: 0x8, addend: 0x0, symName: __RINvMNtCsfvfooZQ3Axs_4core6optionINtB3_6OptionNtNtCs6IAuOt8vWmF_3syn8generics12GenericParamE7or_elseNCNvXs_NtNtNtB5_4iter8adapters5chainINtB1H_5ChainINtB3_8IntoIterBI_EINtNtB1J_3map3MapINtNtB1J_6cloned6ClonedINtNtBM_10punctuated4IterBI_EENCNvNtCs1edtEUeLQ4Q_12serde_derive5bound19with_lifetime_bound0EENtNtNtB1L_6traits8iterator8Iterator4next0EB3U_, symObjAddr: 0x908, symBinAddr: 0x7F85C, symSize: 0xDC }
  - { offset: 0xD30E8, size: 0x8, addend: 0x0, symName: __RINvMNtCsfvfooZQ3Axs_4core6optionINtB3_6OptionNtNtCs6IAuOt8vWmF_3syn8generics12GenericParamE7or_elseNCNvXs_NtNtNtB5_4iter8adapters5chainINtB1H_5ChainINtB3_8IntoIterBI_EINtNtBM_10punctuated8IntoIterBI_EENtNtNtB1L_6traits8iterator8Iterator4next0ECs1edtEUeLQ4Q_12serde_derive, symObjAddr: 0x9E4, symBinAddr: 0x7F938, symSize: 0xDC }
  - { offset: 0xD3158, size: 0x8, addend: 0x0, symName: __RINvMNtCsfvfooZQ3Axs_4core6optionINtB3_6OptionNtNtNtCs1edtEUeLQ4Q_12serde_derive9internals4name4NameE14unwrap_or_elseNCNvMBK_NtBK_9MultiName10from_attrs0EBO_, symObjAddr: 0xAC0, symBinAddr: 0x7FA14, symSize: 0x7C }
  - { offset: 0xD31ED, size: 0x8, addend: 0x0, symName: __RINvMNtCsfvfooZQ3Axs_4core6optionINtB3_6OptionQINtNtCse1nGBsou5OW_5alloc5boxed3BoxNtNtCs6IAuOt8vWmF_3syn2ty4TypeEE3mapQB1i_NvYBJ_INtNtB5_7convert5AsMutB1i_E6as_mutECs1edtEUeLQ4Q_12serde_derive, symObjAddr: 0xB3C, symBinAddr: 0x7FA90, symSize: 0x50 }
  - { offset: 0xD328A, size: 0x8, addend: 0x0, symName: __RINvMNtCsfvfooZQ3Axs_4core6optionINtB3_6OptionQINtNtCse1nGBsou5OW_5alloc5boxed3BoxNtNtCs6IAuOt8vWmF_3syn2ty9BareFnArgEE3mapQB1i_NvYBJ_INtNtB5_7convert5AsMutB1i_E6as_mutECs1edtEUeLQ4Q_12serde_derive, symObjAddr: 0xB8C, symBinAddr: 0x7FAE0, symSize: 0x50 }
  - { offset: 0xD3327, size: 0x8, addend: 0x0, symName: __RINvMNtCsfvfooZQ3Axs_4core6optionINtB3_6OptionQINtNtCse1nGBsou5OW_5alloc5boxed3BoxNtNtCs6IAuOt8vWmF_3syn4data7VariantEE3mapQB1i_NvYBJ_INtNtB5_7convert5AsMutB1i_E6as_mutECs1edtEUeLQ4Q_12serde_derive, symObjAddr: 0xBDC, symBinAddr: 0x7FB30, symSize: 0x50 }
  - { offset: 0xD33C4, size: 0x8, addend: 0x0, symName: __RINvMNtCsfvfooZQ3Axs_4core6optionINtB3_6OptionQINtNtCse1nGBsou5OW_5alloc5boxed3BoxNtNtCs6IAuOt8vWmF_3syn4expr4ExprEE3mapQB1i_NvYBJ_INtNtB5_7convert5AsMutB1i_E6as_mutECs1edtEUeLQ4Q_12serde_derive, symObjAddr: 0xC2C, symBinAddr: 0x7FB80, symSize: 0x50 }
  - { offset: 0xD3461, size: 0x8, addend: 0x0, symName: __RINvMNtCsfvfooZQ3Axs_4core6optionINtB3_6OptionQINtNtCse1nGBsou5OW_5alloc5boxed3BoxNtNtCs6IAuOt8vWmF_3syn4path15GenericArgumentEE3mapQB1i_NvYBJ_INtNtB5_7convert5AsMutB1i_E6as_mutECs1edtEUeLQ4Q_12serde_derive, symObjAddr: 0xC7C, symBinAddr: 0x7FBD0, symSize: 0x50 }
  - { offset: 0xD34FE, size: 0x8, addend: 0x0, symName: __RINvMNtCsfvfooZQ3Axs_4core6optionINtB3_6OptionQINtNtCse1nGBsou5OW_5alloc5boxed3BoxNtNtCs6IAuOt8vWmF_3syn8generics14TypeParamBoundEE3mapQB1i_NvYBJ_INtNtB5_7convert5AsMutB1i_E6as_mutECs1edtEUeLQ4Q_12serde_derive, symObjAddr: 0xCCC, symBinAddr: 0x7FC20, symSize: 0x50 }
  - { offset: 0xD359B, size: 0x8, addend: 0x0, symName: __RINvMNtCsfvfooZQ3Axs_4core6optionINtB3_6OptionQINtNtCse1nGBsou5OW_5alloc5boxed3BoxNtNtCs6IAuOt8vWmF_3syn8generics14WherePredicateEE3mapQB1i_NvYBJ_INtNtB5_7convert5AsMutB1i_E6as_mutECs1edtEUeLQ4Q_12serde_derive, symObjAddr: 0xD1C, symBinAddr: 0x7FC70, symSize: 0x50 }
  - { offset: 0xD3613, size: 0x8, addend: 0x0, symName: __RINvMNtCsfvfooZQ3Axs_4core6optionINtB3_6OptionQNtNtCs6IAuOt8vWmF_3syn2ty4TypeE7or_elseNCNvXsF_NtBN_10punctuatedINtB1u_14PrivateIterMutBJ_NtNtBN_5token5CommaENtNtNtNtB5_4iter6traits8iterator8Iterator4nexts_0ECs1edtEUeLQ4Q_12serde_derive, symObjAddr: 0xD6C, symBinAddr: 0x7FCC0, symSize: 0xA8 }
  - { offset: 0xD36A9, size: 0x8, addend: 0x0, symName: __RINvMNtCsfvfooZQ3Axs_4core6optionINtB3_6OptionQNtNtCs6IAuOt8vWmF_3syn2ty4TypeE7or_elseNCNvXsG_NtBN_10punctuatedINtB1u_14PrivateIterMutBJ_NtNtBN_5token5CommaENtNtNtNtB5_4iter6traits12double_ended19DoubleEndedIterator9next_back0ECs1edtEUeLQ4Q_12serde_derive, symObjAddr: 0xE14, symBinAddr: 0x7FD68, symSize: 0xA8 }
  - { offset: 0xD3718, size: 0x8, addend: 0x0, symName: __RINvMNtCsfvfooZQ3Axs_4core6optionINtB3_6OptionQNtNtCs6IAuOt8vWmF_3syn2ty9BareFnArgE7or_elseNCNvXsF_NtBN_10punctuatedINtB1z_14PrivateIterMutBJ_NtNtBN_5token5CommaENtNtNtNtB5_4iter6traits8iterator8Iterator4nexts_0ECs1edtEUeLQ4Q_12serde_derive, symObjAddr: 0xEBC, symBinAddr: 0x7FE10, symSize: 0xA8 }
  - { offset: 0xD37AE, size: 0x8, addend: 0x0, symName: __RINvMNtCsfvfooZQ3Axs_4core6optionINtB3_6OptionQNtNtCs6IAuOt8vWmF_3syn2ty9BareFnArgE7or_elseNCNvXsG_NtBN_10punctuatedINtB1z_14PrivateIterMutBJ_NtNtBN_5token5CommaENtNtNtNtB5_4iter6traits12double_ended19DoubleEndedIterator9next_back0ECs1edtEUeLQ4Q_12serde_derive, symObjAddr: 0xF64, symBinAddr: 0x7FEB8, symSize: 0xA8 }
  - { offset: 0xD381D, size: 0x8, addend: 0x0, symName: __RINvMNtCsfvfooZQ3Axs_4core6optionINtB3_6OptionQNtNtCs6IAuOt8vWmF_3syn4data7VariantE7or_elseNCNvXsF_NtBN_10punctuatedINtB1z_14PrivateIterMutBJ_NtNtBN_5token5CommaENtNtNtNtB5_4iter6traits8iterator8Iterator4nexts_0ECs1edtEUeLQ4Q_12serde_derive, symObjAddr: 0x100C, symBinAddr: 0x7FF60, symSize: 0xA8 }
  - { offset: 0xD38B3, size: 0x8, addend: 0x0, symName: __RINvMNtCsfvfooZQ3Axs_4core6optionINtB3_6OptionQNtNtCs6IAuOt8vWmF_3syn4data7VariantE7or_elseNCNvXsG_NtBN_10punctuatedINtB1z_14PrivateIterMutBJ_NtNtBN_5token5CommaENtNtNtNtB5_4iter6traits12double_ended19DoubleEndedIterator9next_back0ECs1edtEUeLQ4Q_12serde_derive, symObjAddr: 0x10B4, symBinAddr: 0x80008, symSize: 0xA8 }
  - { offset: 0xD3922, size: 0x8, addend: 0x0, symName: __RINvMNtCsfvfooZQ3Axs_4core6optionINtB3_6OptionQNtNtCs6IAuOt8vWmF_3syn4expr4ExprE7or_elseNCNvXsF_NtBN_10punctuatedINtB1w_14PrivateIterMutBJ_NtNtBN_5token5CommaENtNtNtNtB5_4iter6traits8iterator8Iterator4nexts_0ECs1edtEUeLQ4Q_12serde_derive, symObjAddr: 0x115C, symBinAddr: 0x800B0, symSize: 0xA8 }
  - { offset: 0xD39B8, size: 0x8, addend: 0x0, symName: __RINvMNtCsfvfooZQ3Axs_4core6optionINtB3_6OptionQNtNtCs6IAuOt8vWmF_3syn4expr4ExprE7or_elseNCNvXsG_NtBN_10punctuatedINtB1w_14PrivateIterMutBJ_NtNtBN_5token5CommaENtNtNtNtB5_4iter6traits12double_ended19DoubleEndedIterator9next_back0ECs1edtEUeLQ4Q_12serde_derive, symObjAddr: 0x1204, symBinAddr: 0x80158, symSize: 0xA8 }
  - { offset: 0xD3A27, size: 0x8, addend: 0x0, symName: __RINvMNtCsfvfooZQ3Axs_4core6optionINtB3_6OptionQNtNtCs6IAuOt8vWmF_3syn4path15GenericArgumentE7or_elseNCNvXsF_NtBN_10punctuatedINtB1I_14PrivateIterMutBJ_NtNtBN_5token5CommaENtNtNtNtB5_4iter6traits8iterator8Iterator4nexts_0ECs1edtEUeLQ4Q_12serde_derive, symObjAddr: 0x12AC, symBinAddr: 0x80200, symSize: 0xA8 }
  - { offset: 0xD3ABD, size: 0x8, addend: 0x0, symName: __RINvMNtCsfvfooZQ3Axs_4core6optionINtB3_6OptionQNtNtCs6IAuOt8vWmF_3syn4path15GenericArgumentE7or_elseNCNvXsG_NtBN_10punctuatedINtB1I_14PrivateIterMutBJ_NtNtBN_5token5CommaENtNtNtNtB5_4iter6traits12double_ended19DoubleEndedIterator9next_back0ECs1edtEUeLQ4Q_12serde_derive, symObjAddr: 0x1354, symBinAddr: 0x802A8, symSize: 0xA8 }
  - { offset: 0xD3B2C, size: 0x8, addend: 0x0, symName: __RINvMNtCsfvfooZQ3Axs_4core6optionINtB3_6OptionQNtNtCs6IAuOt8vWmF_3syn8generics14TypeParamBoundE7or_elseNCNvXsF_NtBN_10punctuatedINtB1L_14PrivateIterMutBJ_NtNtBN_5token4PlusENtNtNtNtB5_4iter6traits8iterator8Iterator4nexts_0ECs1edtEUeLQ4Q_12serde_derive, symObjAddr: 0x13FC, symBinAddr: 0x80350, symSize: 0xA8 }
  - { offset: 0xD3BC2, size: 0x8, addend: 0x0, symName: __RINvMNtCsfvfooZQ3Axs_4core6optionINtB3_6OptionQNtNtCs6IAuOt8vWmF_3syn8generics14TypeParamBoundE7or_elseNCNvXsG_NtBN_10punctuatedINtB1L_14PrivateIterMutBJ_NtNtBN_5token4PlusENtNtNtNtB5_4iter6traits12double_ended19DoubleEndedIterator9next_back0ECs1edtEUeLQ4Q_12serde_derive, symObjAddr: 0x14A4, symBinAddr: 0x803F8, symSize: 0xA8 }
  - { offset: 0xD3C31, size: 0x8, addend: 0x0, symName: __RINvMNtCsfvfooZQ3Axs_4core6optionINtB3_6OptionQNtNtCs6IAuOt8vWmF_3syn8generics14WherePredicateE7or_elseNCNvXsF_NtBN_10punctuatedINtB1L_14PrivateIterMutBJ_NtNtBN_5token5CommaENtNtNtNtB5_4iter6traits8iterator8Iterator4nexts_0ECs1edtEUeLQ4Q_12serde_derive, symObjAddr: 0x154C, symBinAddr: 0x804A0, symSize: 0xA8 }
  - { offset: 0xD3CC7, size: 0x8, addend: 0x0, symName: __RINvMNtCsfvfooZQ3Axs_4core6optionINtB3_6OptionQNtNtCs6IAuOt8vWmF_3syn8generics14WherePredicateE7or_elseNCNvXsG_NtBN_10punctuatedINtB1L_14PrivateIterMutBJ_NtNtBN_5token5CommaENtNtNtNtB5_4iter6traits12double_ended19DoubleEndedIterator9next_back0ECs1edtEUeLQ4Q_12serde_derive, symObjAddr: 0x15F4, symBinAddr: 0x80548, symSize: 0xA8 }
  - { offset: 0xD3D29, size: 0x8, addend: 0x0, symName: __RINvMNtCsfvfooZQ3Axs_4core6optionINtB3_6OptionQTNtNtCs6IAuOt8vWmF_3syn2ty4TypeNtNtBO_5token5CommaEE3mapQBK_NCNCNvXsG_NtBO_10punctuatedINtB1R_14PrivateIterMutBK_B1e_ENtNtNtNtB5_4iter6traits12double_ended19DoubleEndedIterator9next_back00ECs1edtEUeLQ4Q_12serde_derive, symObjAddr: 0x169C, symBinAddr: 0x805F0, symSize: 0x50 }
  - { offset: 0xD3D94, size: 0x8, addend: 0x0, symName: __RINvMNtCsfvfooZQ3Axs_4core6optionINtB3_6OptionQTNtNtCs6IAuOt8vWmF_3syn2ty4TypeNtNtBO_5token5CommaEE3mapQBK_NCNvXsF_NtBO_10punctuatedINtB1P_14PrivateIterMutBK_B1e_ENtNtNtNtB5_4iter6traits8iterator8Iterator4next0ECs1edtEUeLQ4Q_12serde_derive, symObjAddr: 0x16EC, symBinAddr: 0x80640, symSize: 0x50 }
  - { offset: 0xD3DFF, size: 0x8, addend: 0x0, symName: __RINvMNtCsfvfooZQ3Axs_4core6optionINtB3_6OptionQTNtNtCs6IAuOt8vWmF_3syn2ty9BareFnArgNtNtBO_5token5CommaEE3mapQBK_NCNCNvXsG_NtBO_10punctuatedINtB1W_14PrivateIterMutBK_B1j_ENtNtNtNtB5_4iter6traits12double_ended19DoubleEndedIterator9next_back00ECs1edtEUeLQ4Q_12serde_derive, symObjAddr: 0x173C, symBinAddr: 0x80690, symSize: 0x50 }
  - { offset: 0xD3E6A, size: 0x8, addend: 0x0, symName: __RINvMNtCsfvfooZQ3Axs_4core6optionINtB3_6OptionQTNtNtCs6IAuOt8vWmF_3syn2ty9BareFnArgNtNtBO_5token5CommaEE3mapQBK_NCNvXsF_NtBO_10punctuatedINtB1U_14PrivateIterMutBK_B1j_ENtNtNtNtB5_4iter6traits8iterator8Iterator4next0ECs1edtEUeLQ4Q_12serde_derive, symObjAddr: 0x178C, symBinAddr: 0x806E0, symSize: 0x50 }
  - { offset: 0xD3ED5, size: 0x8, addend: 0x0, symName: __RINvMNtCsfvfooZQ3Axs_4core6optionINtB3_6OptionQTNtNtCs6IAuOt8vWmF_3syn4data7VariantNtNtBO_5token5CommaEE3mapQBK_NCNCNvXsG_NtBO_10punctuatedINtB1W_14PrivateIterMutBK_B1j_ENtNtNtNtB5_4iter6traits12double_ended19DoubleEndedIterator9next_back00ECs1edtEUeLQ4Q_12serde_derive, symObjAddr: 0x17DC, symBinAddr: 0x80730, symSize: 0x50 }
  - { offset: 0xD3F40, size: 0x8, addend: 0x0, symName: __RINvMNtCsfvfooZQ3Axs_4core6optionINtB3_6OptionQTNtNtCs6IAuOt8vWmF_3syn4data7VariantNtNtBO_5token5CommaEE3mapQBK_NCNvXsF_NtBO_10punctuatedINtB1U_14PrivateIterMutBK_B1j_ENtNtNtNtB5_4iter6traits8iterator8Iterator4next0ECs1edtEUeLQ4Q_12serde_derive, symObjAddr: 0x182C, symBinAddr: 0x80780, symSize: 0x50 }
  - { offset: 0xD3FAB, size: 0x8, addend: 0x0, symName: __RINvMNtCsfvfooZQ3Axs_4core6optionINtB3_6OptionQTNtNtCs6IAuOt8vWmF_3syn4expr4ExprNtNtBO_5token5CommaEE3mapQBK_NCNCNvXsG_NtBO_10punctuatedINtB1T_14PrivateIterMutBK_B1g_ENtNtNtNtB5_4iter6traits12double_ended19DoubleEndedIterator9next_back00ECs1edtEUeLQ4Q_12serde_derive, symObjAddr: 0x187C, symBinAddr: 0x807D0, symSize: 0x50 }
  - { offset: 0xD4016, size: 0x8, addend: 0x0, symName: __RINvMNtCsfvfooZQ3Axs_4core6optionINtB3_6OptionQTNtNtCs6IAuOt8vWmF_3syn4expr4ExprNtNtBO_5token5CommaEE3mapQBK_NCNvXsF_NtBO_10punctuatedINtB1R_14PrivateIterMutBK_B1g_ENtNtNtNtB5_4iter6traits8iterator8Iterator4next0ECs1edtEUeLQ4Q_12serde_derive, symObjAddr: 0x18CC, symBinAddr: 0x80820, symSize: 0x50 }
  - { offset: 0xD4081, size: 0x8, addend: 0x0, symName: __RINvMNtCsfvfooZQ3Axs_4core6optionINtB3_6OptionQTNtNtCs6IAuOt8vWmF_3syn4path15GenericArgumentNtNtBO_5token5CommaEE3mapQBK_NCNCNvXsG_NtBO_10punctuatedINtB25_14PrivateIterMutBK_B1s_ENtNtNtNtB5_4iter6traits12double_ended19DoubleEndedIterator9next_back00ECs1edtEUeLQ4Q_12serde_derive, symObjAddr: 0x191C, symBinAddr: 0x80870, symSize: 0x50 }
  - { offset: 0xD40EC, size: 0x8, addend: 0x0, symName: __RINvMNtCsfvfooZQ3Axs_4core6optionINtB3_6OptionQTNtNtCs6IAuOt8vWmF_3syn4path15GenericArgumentNtNtBO_5token5CommaEE3mapQBK_NCNvXsF_NtBO_10punctuatedINtB23_14PrivateIterMutBK_B1s_ENtNtNtNtB5_4iter6traits8iterator8Iterator4next0ECs1edtEUeLQ4Q_12serde_derive, symObjAddr: 0x196C, symBinAddr: 0x808C0, symSize: 0x50 }
  - { offset: 0xD4157, size: 0x8, addend: 0x0, symName: __RINvMNtCsfvfooZQ3Axs_4core6optionINtB3_6OptionQTNtNtCs6IAuOt8vWmF_3syn8generics14TypeParamBoundNtNtBO_5token4PlusEE3mapQBK_NCNCNvXsG_NtBO_10punctuatedINtB27_14PrivateIterMutBK_B1v_ENtNtNtNtB5_4iter6traits12double_ended19DoubleEndedIterator9next_back00ECs1edtEUeLQ4Q_12serde_derive, symObjAddr: 0x19BC, symBinAddr: 0x80910, symSize: 0x50 }
  - { offset: 0xD41C2, size: 0x8, addend: 0x0, symName: __RINvMNtCsfvfooZQ3Axs_4core6optionINtB3_6OptionQTNtNtCs6IAuOt8vWmF_3syn8generics14TypeParamBoundNtNtBO_5token4PlusEE3mapQBK_NCNvXsF_NtBO_10punctuatedINtB25_14PrivateIterMutBK_B1v_ENtNtNtNtB5_4iter6traits8iterator8Iterator4next0ECs1edtEUeLQ4Q_12serde_derive, symObjAddr: 0x1A0C, symBinAddr: 0x80960, symSize: 0x50 }
  - { offset: 0xD422D, size: 0x8, addend: 0x0, symName: __RINvMNtCsfvfooZQ3Axs_4core6optionINtB3_6OptionQTNtNtCs6IAuOt8vWmF_3syn8generics14WherePredicateNtNtBO_5token5CommaEE3mapQBK_NCNCNvXsG_NtBO_10punctuatedINtB28_14PrivateIterMutBK_B1v_ENtNtNtNtB5_4iter6traits12double_ended19DoubleEndedIterator9next_back00ECs1edtEUeLQ4Q_12serde_derive, symObjAddr: 0x1A5C, symBinAddr: 0x809B0, symSize: 0x50 }
  - { offset: 0xD4298, size: 0x8, addend: 0x0, symName: __RINvMNtCsfvfooZQ3Axs_4core6optionINtB3_6OptionQTNtNtCs6IAuOt8vWmF_3syn8generics14WherePredicateNtNtBO_5token5CommaEE3mapQBK_NCNvXsF_NtBO_10punctuatedINtB26_14PrivateIterMutBK_B1v_ENtNtNtNtB5_4iter6traits8iterator8Iterator4next0ECs1edtEUeLQ4Q_12serde_derive, symObjAddr: 0x1AAC, symBinAddr: 0x80A00, symSize: 0x50 }
  - { offset: 0xD4337, size: 0x8, addend: 0x0, symName: __RINvMNtCsfvfooZQ3Axs_4core6optionINtB3_6OptionRINtNtCse1nGBsou5OW_5alloc3vec3VecNtNtCs6IAuOt8vWmF_3syn8generics14WherePredicateEE3mapRSB1g_NCNvMs3_NtNtCs1edtEUeLQ4Q_12serde_derive9internals4attrNtB2l_9Container8de_bound0EB2p_, symObjAddr: 0x1AFC, symBinAddr: 0x80A50, symSize: 0x58 }
  - { offset: 0xD43A2, size: 0x8, addend: 0x0, symName: __RINvMNtCsfvfooZQ3Axs_4core6optionINtB3_6OptionRINtNtCse1nGBsou5OW_5alloc3vec3VecNtNtCs6IAuOt8vWmF_3syn8generics14WherePredicateEE3mapRSB1g_NCNvMs3_NtNtCs1edtEUeLQ4Q_12serde_derive9internals4attrNtB2l_9Container9ser_bound0EB2p_, symObjAddr: 0x1B54, symBinAddr: 0x80AA8, symSize: 0x58 }
  - { offset: 0xD440D, size: 0x8, addend: 0x0, symName: __RINvMNtCsfvfooZQ3Axs_4core6optionINtB3_6OptionRINtNtCse1nGBsou5OW_5alloc3vec3VecNtNtCs6IAuOt8vWmF_3syn8generics14WherePredicateEE3mapRSB1g_NCNvMs4_NtNtCs1edtEUeLQ4Q_12serde_derive9internals4attrNtB2l_7Variant8de_bound0EB2p_, symObjAddr: 0x1BAC, symBinAddr: 0x80B00, symSize: 0x58 }
  - { offset: 0xD4478, size: 0x8, addend: 0x0, symName: __RINvMNtCsfvfooZQ3Axs_4core6optionINtB3_6OptionRINtNtCse1nGBsou5OW_5alloc3vec3VecNtNtCs6IAuOt8vWmF_3syn8generics14WherePredicateEE3mapRSB1g_NCNvMs4_NtNtCs1edtEUeLQ4Q_12serde_derive9internals4attrNtB2l_7Variant9ser_bound0EB2p_, symObjAddr: 0x1C04, symBinAddr: 0x80B58, symSize: 0x58 }
  - { offset: 0xD44E3, size: 0x8, addend: 0x0, symName: __RINvMNtCsfvfooZQ3Axs_4core6optionINtB3_6OptionRINtNtCse1nGBsou5OW_5alloc3vec3VecNtNtCs6IAuOt8vWmF_3syn8generics14WherePredicateEE3mapRSB1g_NCNvMs6_NtNtCs1edtEUeLQ4Q_12serde_derive9internals4attrNtB2l_5Field8de_bound0EB2p_, symObjAddr: 0x1C5C, symBinAddr: 0x80BB0, symSize: 0x58 }
  - { offset: 0xD454E, size: 0x8, addend: 0x0, symName: __RINvMNtCsfvfooZQ3Axs_4core6optionINtB3_6OptionRINtNtCse1nGBsou5OW_5alloc3vec3VecNtNtCs6IAuOt8vWmF_3syn8generics14WherePredicateEE3mapRSB1g_NCNvMs6_NtNtCs1edtEUeLQ4Q_12serde_derive9internals4attrNtB2l_5Field9ser_bound0EB2p_, symObjAddr: 0x1CB4, symBinAddr: 0x80C08, symSize: 0x58 }
  - { offset: 0xD45FC, size: 0x8, addend: 0x0, symName: __RINvMNtCsfvfooZQ3Axs_4core6optionINtB3_6OptionRINtNtNtB5_5slice4iter4IterNtNtNtCs1edtEUeLQ4Q_12serde_derive9internals3ast5FieldEE6map_orTjIBw_jEENvYBJ_NtNtNtNtB5_4iter6traits8iterator8Iterator9size_hintEB1f_, symObjAddr: 0x1D0C, symBinAddr: 0x80C60, symSize: 0xAC }
  - { offset: 0xD4684, size: 0x8, addend: 0x0, symName: __RINvMNtCsfvfooZQ3Axs_4core6optionINtB3_6OptionRNtNtCs6IAuOt8vWmF_3syn2ty4TypeE7or_elseNCNvXsw_NtBN_10punctuatedINtB1u_11PrivateIterBJ_NtNtBN_5token5CommaENtNtNtNtB5_4iter6traits8iterator8Iterator4nexts_0ECs1edtEUeLQ4Q_12serde_derive, symObjAddr: 0x1DB8, symBinAddr: 0x80D0C, symSize: 0xA8 }
  - { offset: 0xD4700, size: 0x8, addend: 0x0, symName: __RINvMNtCsfvfooZQ3Axs_4core6optionINtB3_6OptionRNtNtCs6IAuOt8vWmF_3syn2ty4TypeE7or_elseNCNvXsx_NtBN_10punctuatedINtB1u_11PrivateIterBJ_NtNtBN_5token5CommaENtNtNtNtB5_4iter6traits12double_ended19DoubleEndedIterator9next_back0ECs1edtEUeLQ4Q_12serde_derive, symObjAddr: 0x1E60, symBinAddr: 0x80DB4, symSize: 0xA8 }
  - { offset: 0xD477C, size: 0x8, addend: 0x0, symName: __RINvMNtCsfvfooZQ3Axs_4core6optionINtB3_6OptionRNtNtCs6IAuOt8vWmF_3syn2ty9BareFnArgE7or_elseNCNvXsw_NtBN_10punctuatedINtB1z_11PrivateIterBJ_NtNtBN_5token5CommaENtNtNtNtB5_4iter6traits8iterator8Iterator4nexts_0ECs1edtEUeLQ4Q_12serde_derive, symObjAddr: 0x1F08, symBinAddr: 0x80E5C, symSize: 0xA8 }
  - { offset: 0xD47F8, size: 0x8, addend: 0x0, symName: __RINvMNtCsfvfooZQ3Axs_4core6optionINtB3_6OptionRNtNtCs6IAuOt8vWmF_3syn2ty9BareFnArgE7or_elseNCNvXsx_NtBN_10punctuatedINtB1z_11PrivateIterBJ_NtNtBN_5token5CommaENtNtNtNtB5_4iter6traits12double_ended19DoubleEndedIterator9next_back0ECs1edtEUeLQ4Q_12serde_derive, symObjAddr: 0x1FB0, symBinAddr: 0x80F04, symSize: 0xA8 }
  - { offset: 0xD487F, size: 0x8, addend: 0x0, symName: __RINvMNtCsfvfooZQ3Axs_4core6optionINtB3_6OptionRNtNtCs6IAuOt8vWmF_3syn3lit6LitStrE3mapNtNtNtCs1edtEUeLQ4Q_12serde_derive9internals4name4NameNvYB1l_INtNtB5_7convert4FromBI_E4fromEB1r_, symObjAddr: 0x2058, symBinAddr: 0x80FAC, symSize: 0x6C }
  - { offset: 0xD4904, size: 0x8, addend: 0x0, symName: __RINvMNtCsfvfooZQ3Axs_4core6optionINtB3_6OptionRNtNtCs6IAuOt8vWmF_3syn4data7VariantE7or_elseNCNvXsw_NtBN_10punctuatedINtB1z_11PrivateIterBJ_NtNtBN_5token5CommaENtNtNtNtB5_4iter6traits8iterator8Iterator4nexts_0ECs1edtEUeLQ4Q_12serde_derive, symObjAddr: 0x20C4, symBinAddr: 0x81018, symSize: 0xA8 }
  - { offset: 0xD4980, size: 0x8, addend: 0x0, symName: __RINvMNtCsfvfooZQ3Axs_4core6optionINtB3_6OptionRNtNtCs6IAuOt8vWmF_3syn4data7VariantE7or_elseNCNvXsx_NtBN_10punctuatedINtB1z_11PrivateIterBJ_NtNtBN_5token5CommaENtNtNtNtB5_4iter6traits12double_ended19DoubleEndedIterator9next_back0ECs1edtEUeLQ4Q_12serde_derive, symObjAddr: 0x216C, symBinAddr: 0x810C0, symSize: 0xA8 }
  - { offset: 0xD49FC, size: 0x8, addend: 0x0, symName: __RINvMNtCsfvfooZQ3Axs_4core6optionINtB3_6OptionRNtNtCs6IAuOt8vWmF_3syn4expr8ExprPathE3mapNtCs3cP53eQoTwO_11proc_macro211TokenStreamNCNCNvNtCs1edtEUeLQ4Q_12serde_derive3ser24serialize_struct_visitors_00EB2c_, symObjAddr: 0x2214, symBinAddr: 0x81168, symSize: 0x78 }
  - { offset: 0xD4A67, size: 0x8, addend: 0x0, symName: __RINvMNtCsfvfooZQ3Axs_4core6optionINtB3_6OptionRNtNtCs6IAuOt8vWmF_3syn4expr8ExprPathE3mapNtCs3cP53eQoTwO_11proc_macro211TokenStreamNCNCNvNtCs1edtEUeLQ4Q_12serde_derive3ser30serialize_tuple_struct_visitors_00EB2c_, symObjAddr: 0x228C, symBinAddr: 0x811E0, symSize: 0x78 }
  - { offset: 0xD4AEC, size: 0x8, addend: 0x0, symName: __RINvMNtCsfvfooZQ3Axs_4core6optionINtB3_6OptionRNtNtCs6IAuOt8vWmF_3syn4path15GenericArgumentE7or_elseNCNvXsw_NtBN_10punctuatedINtB1I_11PrivateIterBJ_NtNtBN_5token5CommaENtNtNtNtB5_4iter6traits8iterator8Iterator4nexts_0ECs1edtEUeLQ4Q_12serde_derive, symObjAddr: 0x2304, symBinAddr: 0x81258, symSize: 0xA8 }
  - { offset: 0xD4B68, size: 0x8, addend: 0x0, symName: __RINvMNtCsfvfooZQ3Axs_4core6optionINtB3_6OptionRNtNtCs6IAuOt8vWmF_3syn4path15GenericArgumentE7or_elseNCNvXsx_NtBN_10punctuatedINtB1I_11PrivateIterBJ_NtNtBN_5token5CommaENtNtNtNtB5_4iter6traits12double_ended19DoubleEndedIterator9next_back0ECs1edtEUeLQ4Q_12serde_derive, symObjAddr: 0x23AC, symBinAddr: 0x81300, symSize: 0xA8 }
  - { offset: 0xD4BEF, size: 0x8, addend: 0x0, symName: __RINvMNtCsfvfooZQ3Axs_4core6optionINtB3_6OptionRNtNtCs6IAuOt8vWmF_3syn4path4PathE11map_or_elseINtNtCse1nGBsou5OW_5alloc6borrow3CowBJ_ENCNvMs3_NtNtCs1edtEUeLQ4Q_12serde_derive9internals4attrNtB2f_9Container10serde_path0NcNtB1t_8Borrowed0EB2j_, symObjAddr: 0x2454, symBinAddr: 0x813A8, symSize: 0xB4 }
  - { offset: 0xD4C97, size: 0x8, addend: 0x0, symName: __RINvMNtCsfvfooZQ3Axs_4core6optionINtB3_6OptionRNtNtCse1nGBsou5OW_5alloc6string6StringE3mapReNvYBJ_INtNtB5_7convert5AsRefeE6as_refECs1edtEUeLQ4Q_12serde_derive, symObjAddr: 0x2508, symBinAddr: 0x8145C, symSize: 0x58 }
  - { offset: 0xD4D1C, size: 0x8, addend: 0x0, symName: __RINvMNtCsfvfooZQ3Axs_4core6optionINtB3_6OptionRNtNtNtCs1edtEUeLQ4Q_12serde_derive9internals3ast5FieldE3mapNtCs3cP53eQoTwO_11proc_macro211TokenStreamNCNvNtBP_2de28deserialize_untagged_variant0EBP_, symObjAddr: 0x2560, symBinAddr: 0x814B4, symSize: 0x78 }
  - { offset: 0xD4D87, size: 0x8, addend: 0x0, symName: __RINvMNtCsfvfooZQ3Axs_4core6optionINtB3_6OptionRNtNtNtCs1edtEUeLQ4Q_12serde_derive9internals3ast5FieldE3mapNtCs3cP53eQoTwO_11proc_macro211TokenStreamNCNvNtBP_2de37deserialize_internally_tagged_variant0EBP_, symObjAddr: 0x25D8, symBinAddr: 0x8152C, symSize: 0x78 }
  - { offset: 0xD4DFF, size: 0x8, addend: 0x0, symName: __RINvMNtCsfvfooZQ3Axs_4core6optionINtB3_6OptionRNtNtNtCs1edtEUeLQ4Q_12serde_derive9internals4attr7VariantE6map_orbNCNvNtBP_2de23needs_deserialize_bound0EBP_, symObjAddr: 0x2650, symBinAddr: 0x815A4, symSize: 0xAC }
  - { offset: 0xD4E71, size: 0x8, addend: 0x0, symName: __RINvMNtCsfvfooZQ3Axs_4core6optionINtB3_6OptionRNtNtNtCs1edtEUeLQ4Q_12serde_derive9internals4attr7VariantE6map_orbNCNvNtBP_3ser21needs_serialize_bound0EBP_, symObjAddr: 0x26FC, symBinAddr: 0x81650, symSize: 0xAC }
  - { offset: 0xD4EF0, size: 0x8, addend: 0x0, symName: __RINvMNtCsfvfooZQ3Axs_4core6optionINtB3_6OptionRNtNtNtCs1edtEUeLQ4Q_12serde_derive9internals4attr7VariantE8and_thenRNtBL_15BorrowAttributeNCNvMs6_BL_NtBL_5Field8from_ast0EBP_, symObjAddr: 0x27A8, symBinAddr: 0x816FC, symSize: 0x50 }
  - { offset: 0xD4F5B, size: 0x8, addend: 0x0, symName: __RINvMNtCsfvfooZQ3Axs_4core6optionINtB3_6OptionRTNtNtCs6IAuOt8vWmF_3syn2ty4TypeNtNtBO_5token5CommaEE3mapRBK_NCNCNvXsx_NtBO_10punctuatedINtB1R_11PrivateIterBK_B1e_ENtNtNtNtB5_4iter6traits12double_ended19DoubleEndedIterator9next_back00ECs1edtEUeLQ4Q_12serde_derive, symObjAddr: 0x27F8, symBinAddr: 0x8174C, symSize: 0x50 }
  - { offset: 0xD4FC6, size: 0x8, addend: 0x0, symName: __RINvMNtCsfvfooZQ3Axs_4core6optionINtB3_6OptionRTNtNtCs6IAuOt8vWmF_3syn2ty4TypeNtNtBO_5token5CommaEE3mapRBK_NCNvXsw_NtBO_10punctuatedINtB1P_11PrivateIterBK_B1e_ENtNtNtNtB5_4iter6traits8iterator8Iterator4next0ECs1edtEUeLQ4Q_12serde_derive, symObjAddr: 0x2848, symBinAddr: 0x8179C, symSize: 0x50 }
  - { offset: 0xD5031, size: 0x8, addend: 0x0, symName: __RINvMNtCsfvfooZQ3Axs_4core6optionINtB3_6OptionRTNtNtCs6IAuOt8vWmF_3syn2ty9BareFnArgNtNtBO_5token5CommaEE3mapRBK_NCNCNvXsx_NtBO_10punctuatedINtB1W_11PrivateIterBK_B1j_ENtNtNtNtB5_4iter6traits12double_ended19DoubleEndedIterator9next_back00ECs1edtEUeLQ4Q_12serde_derive, symObjAddr: 0x2898, symBinAddr: 0x817EC, symSize: 0x50 }
  - { offset: 0xD509C, size: 0x8, addend: 0x0, symName: __RINvMNtCsfvfooZQ3Axs_4core6optionINtB3_6OptionRTNtNtCs6IAuOt8vWmF_3syn2ty9BareFnArgNtNtBO_5token5CommaEE3mapRBK_NCNvXsw_NtBO_10punctuatedINtB1U_11PrivateIterBK_B1j_ENtNtNtNtB5_4iter6traits8iterator8Iterator4next0ECs1edtEUeLQ4Q_12serde_derive, symObjAddr: 0x28E8, symBinAddr: 0x8183C, symSize: 0x50 }
  - { offset: 0xD5107, size: 0x8, addend: 0x0, symName: __RINvMNtCsfvfooZQ3Axs_4core6optionINtB3_6OptionRTNtNtCs6IAuOt8vWmF_3syn4data7VariantNtNtBO_5token5CommaEE3mapRBK_NCNCNvXsx_NtBO_10punctuatedINtB1W_11PrivateIterBK_B1j_ENtNtNtNtB5_4iter6traits12double_ended19DoubleEndedIterator9next_back00ECs1edtEUeLQ4Q_12serde_derive, symObjAddr: 0x2938, symBinAddr: 0x8188C, symSize: 0x50 }
  - { offset: 0xD5172, size: 0x8, addend: 0x0, symName: __RINvMNtCsfvfooZQ3Axs_4core6optionINtB3_6OptionRTNtNtCs6IAuOt8vWmF_3syn4data7VariantNtNtBO_5token5CommaEE3mapRBK_NCNvXsw_NtBO_10punctuatedINtB1U_11PrivateIterBK_B1j_ENtNtNtNtB5_4iter6traits8iterator8Iterator4next0ECs1edtEUeLQ4Q_12serde_derive, symObjAddr: 0x2988, symBinAddr: 0x818DC, symSize: 0x50 }
  - { offset: 0xD51DD, size: 0x8, addend: 0x0, symName: __RINvMNtCsfvfooZQ3Axs_4core6optionINtB3_6OptionRTNtNtCs6IAuOt8vWmF_3syn4path15GenericArgumentNtNtBO_5token5CommaEE3mapRBK_NCNCNvXsx_NtBO_10punctuatedINtB25_11PrivateIterBK_B1s_ENtNtNtNtB5_4iter6traits12double_ended19DoubleEndedIterator9next_back00ECs1edtEUeLQ4Q_12serde_derive, symObjAddr: 0x29D8, symBinAddr: 0x8192C, symSize: 0x50 }
  - { offset: 0xD5248, size: 0x8, addend: 0x0, symName: __RINvMNtCsfvfooZQ3Axs_4core6optionINtB3_6OptionRTNtNtCs6IAuOt8vWmF_3syn4path15GenericArgumentNtNtBO_5token5CommaEE3mapRBK_NCNvXsw_NtBO_10punctuatedINtB23_11PrivateIterBK_B1s_ENtNtNtNtB5_4iter6traits8iterator8Iterator4next0ECs1edtEUeLQ4Q_12serde_derive, symObjAddr: 0x2A28, symBinAddr: 0x8197C, symSize: 0x50 }
  - { offset: 0xD52DE, size: 0x8, addend: 0x0, symName: __RINvMNtCsfvfooZQ3Axs_4core6optionINtB3_6OptionTjRNtNtNtCs1edtEUeLQ4Q_12serde_derive9internals3ast7VariantEE3mapNtCs3cP53eQoTwO_11proc_macro211TokenStreamNCNvNtBR_2de25prepare_enum_variant_enums0_0EBR_, symObjAddr: 0x2A78, symBinAddr: 0x819CC, symSize: 0x78 }
  - { offset: 0xD53DC, size: 0x8, addend: 0x0, symName: __RINvMsc_NtNtNtCse1nGBsou5OW_5alloc11collections5btree3setINtB6_8BTreeSetNtNtCs6IAuOt8vWmF_3syn8lifetime8LifetimeE8containsB18_ECs1edtEUeLQ4Q_12serde_derive, symObjAddr: 0x2AF0, symBinAddr: 0x81A44, symSize: 0x54 }
  - { offset: 0xD54DF, size: 0x8, addend: 0x0, symName: __RINvNvNtCscOYdFFY2T5N_3std9panicking3try7do_callINtNtNtCsfvfooZQ3Axs_4core5panic11unwind_safe16AssertUnwindSafeNCINvNtNtCs9i5KxIbZ5ph_10proc_macro6bridge6client10run_clientNtB1Q_11TokenStreamINtNtBR_6option6OptionB2K_ENCNCINvMs7_B1Q_INtB1Q_6ClientNtB1U_11TokenStreamB3X_E7expand1NvCs1edtEUeLQ4Q_12serde_derive16derive_serializeE00E0EuEB4v_, symObjAddr: 0x2D2C, symBinAddr: 0x81C80, symSize: 0x50 }
  - { offset: 0xD55A7, size: 0x8, addend: 0x0, symName: __RINvNvNtCscOYdFFY2T5N_3std9panicking3try7do_callINtNtNtCsfvfooZQ3Axs_4core5panic11unwind_safe16AssertUnwindSafeNCINvNtNtCs9i5KxIbZ5ph_10proc_macro6bridge6client10run_clientNtB1Q_11TokenStreamINtNtBR_6option6OptionB2K_ENCNCINvMs7_B1Q_INtB1Q_6ClientNtB1U_11TokenStreamB3X_E7expand1NvCs1edtEUeLQ4Q_12serde_derive18derive_deserializeE00E0EuEB4v_, symObjAddr: 0x2D7C, symBinAddr: 0x81CD0, symSize: 0x50 }
  - { offset: 0xD566F, size: 0x8, addend: 0x0, symName: __RINvNvNtCscOYdFFY2T5N_3std9panicking3try8do_catchINtNtNtCsfvfooZQ3Axs_4core5panic11unwind_safe16AssertUnwindSafeNCINvNtNtCs9i5KxIbZ5ph_10proc_macro6bridge6client10run_clientNtB1R_11TokenStreamINtNtBS_6option6OptionB2L_ENCNCINvMs7_B1R_INtB1R_6ClientNtB1V_11TokenStreamB3Y_E7expand1NvCs1edtEUeLQ4Q_12serde_derive16derive_serializeE00E0EuEB4w_, symObjAddr: 0x2DCC, symBinAddr: 0x81D20, symSize: 0x70 }
  - { offset: 0xD5704, size: 0x8, addend: 0x0, symName: __RINvNvNtCscOYdFFY2T5N_3std9panicking3try8do_catchINtNtNtCsfvfooZQ3Axs_4core5panic11unwind_safe16AssertUnwindSafeNCINvNtNtCs9i5KxIbZ5ph_10proc_macro6bridge6client10run_clientNtB1R_11TokenStreamINtNtBS_6option6OptionB2L_ENCNCINvMs7_B1R_INtB1R_6ClientNtB1V_11TokenStreamB3Y_E7expand1NvCs1edtEUeLQ4Q_12serde_derive18derive_deserializeE00E0EuEB4w_, symObjAddr: 0x2E3C, symBinAddr: 0x81D90, symSize: 0x70 }
  - { offset: 0xD5815, size: 0x8, addend: 0x0, symName: __RNvNtNtCscOYdFFY2T5N_3std9panicking11panic_count13count_is_zeroCs1edtEUeLQ4Q_12serde_derive, symObjAddr: 0x517C, symBinAddr: 0x840D0, symSize: 0x68 }
  - { offset: 0xD5D31, size: 0x8, addend: 0x0, symName: __RNvMNtCse1nGBsou5OW_5alloc5allocNtB2_6Global10alloc_implCs1edtEUeLQ4Q_12serde_derive, symObjAddr: 0x399C, symBinAddr: 0x828F0, symSize: 0x194 }
  - { offset: 0xD6069, size: 0x8, addend: 0x0, symName: __RNvMNtCsfvfooZQ3Axs_4core6optionINtB2_6OptionINtNtB4_4cell4CellTyyEEE4takeCs1edtEUeLQ4Q_12serde_derive, symObjAddr: 0x3BEC, symBinAddr: 0x82B40, symSize: 0x3C }
  - { offset: 0xD60FC, size: 0x8, addend: 0x0, symName: __RNvMNtCsfvfooZQ3Axs_4core6optionINtB2_6OptionINtNtCse1nGBsou5OW_5alloc3vec3VecNtNtCs6IAuOt8vWmF_3syn5error5ErrorEE4takeCs1edtEUeLQ4Q_12serde_derive, symObjAddr: 0x3C28, symBinAddr: 0x82B7C, symSize: 0x40 }
  - { offset: 0xD618F, size: 0x8, addend: 0x0, symName: __RNvMNtCsfvfooZQ3Axs_4core6optionINtB2_6OptionINtNtCse1nGBsou5OW_5alloc3vec3VecNtNtCs6IAuOt8vWmF_3syn5error5ErrorEE6as_mutCs1edtEUeLQ4Q_12serde_derive, symObjAddr: 0x3C68, symBinAddr: 0x82BBC, symSize: 0x50 }
  - { offset: 0xD61E6, size: 0x8, addend: 0x0, symName: __RNvMNtCsfvfooZQ3Axs_4core6optionINtB2_6OptionINtNtCse1nGBsou5OW_5alloc3vec3VecNtNtCs6IAuOt8vWmF_3syn5error5ErrorEE7is_someCs1edtEUeLQ4Q_12serde_derive, symObjAddr: 0x3CB8, symBinAddr: 0x82C0C, symSize: 0x2C }
  - { offset: 0xD621F, size: 0x8, addend: 0x0, symName: __RNvMNtCsfvfooZQ3Axs_4core6optionINtB2_6OptionINtNtCse1nGBsou5OW_5alloc3vec3VecNtNtCs6IAuOt8vWmF_3syn8generics14WherePredicateEE6as_refCs1edtEUeLQ4Q_12serde_derive, symObjAddr: 0x3CE4, symBinAddr: 0x82C38, symSize: 0x50 }
  - { offset: 0xD6269, size: 0x8, addend: 0x0, symName: __RNvMNtCsfvfooZQ3Axs_4core6optionINtB2_6OptionINtNtCse1nGBsou5OW_5alloc3vec3VecNtNtCs6IAuOt8vWmF_3syn8generics14WherePredicateEE7is_someCs1edtEUeLQ4Q_12serde_derive, symObjAddr: 0x3D34, symBinAddr: 0x82C88, symSize: 0x2C }
  - { offset: 0xD62A2, size: 0x8, addend: 0x0, symName: __RNvMNtCsfvfooZQ3Axs_4core6optionINtB2_6OptionINtNtCse1nGBsou5OW_5alloc5boxed3BoxNtNtCs6IAuOt8vWmF_3syn2ty4TypeEE6as_mutCs1edtEUeLQ4Q_12serde_derive, symObjAddr: 0x3D60, symBinAddr: 0x82CB4, symSize: 0x4C }
  - { offset: 0xD62F9, size: 0x8, addend: 0x0, symName: __RNvMNtCsfvfooZQ3Axs_4core6optionINtB2_6OptionINtNtCse1nGBsou5OW_5alloc5boxed3BoxNtNtCs6IAuOt8vWmF_3syn2ty9BareFnArgEE6as_mutCs1edtEUeLQ4Q_12serde_derive, symObjAddr: 0x3DAC, symBinAddr: 0x82D00, symSize: 0x4C }
  - { offset: 0xD6350, size: 0x8, addend: 0x0, symName: __RNvMNtCsfvfooZQ3Axs_4core6optionINtB2_6OptionINtNtCse1nGBsou5OW_5alloc5boxed3BoxNtNtCs6IAuOt8vWmF_3syn4data7VariantEE6as_mutCs1edtEUeLQ4Q_12serde_derive, symObjAddr: 0x3DF8, symBinAddr: 0x82D4C, symSize: 0x4C }
  - { offset: 0xD63A7, size: 0x8, addend: 0x0, symName: __RNvMNtCsfvfooZQ3Axs_4core6optionINtB2_6OptionINtNtCse1nGBsou5OW_5alloc5boxed3BoxNtNtCs6IAuOt8vWmF_3syn4expr4ExprEE6as_mutCs1edtEUeLQ4Q_12serde_derive, symObjAddr: 0x3E44, symBinAddr: 0x82D98, symSize: 0x4C }
  - { offset: 0xD63FE, size: 0x8, addend: 0x0, symName: __RNvMNtCsfvfooZQ3Axs_4core6optionINtB2_6OptionINtNtCse1nGBsou5OW_5alloc5boxed3BoxNtNtCs6IAuOt8vWmF_3syn4path15GenericArgumentEE6as_mutCs1edtEUeLQ4Q_12serde_derive, symObjAddr: 0x3E90, symBinAddr: 0x82DE4, symSize: 0x4C }
  - { offset: 0xD6455, size: 0x8, addend: 0x0, symName: __RNvMNtCsfvfooZQ3Axs_4core6optionINtB2_6OptionINtNtCse1nGBsou5OW_5alloc5boxed3BoxNtNtCs6IAuOt8vWmF_3syn8generics14TypeParamBoundEE6as_mutCs1edtEUeLQ4Q_12serde_derive, symObjAddr: 0x3EDC, symBinAddr: 0x82E30, symSize: 0x4C }
  - { offset: 0xD64AC, size: 0x8, addend: 0x0, symName: __RNvMNtCsfvfooZQ3Axs_4core6optionINtB2_6OptionINtNtCse1nGBsou5OW_5alloc5boxed3BoxNtNtCs6IAuOt8vWmF_3syn8generics14WherePredicateEE6as_mutCs1edtEUeLQ4Q_12serde_derive, symObjAddr: 0x3F28, symBinAddr: 0x82E7C, symSize: 0x4C }
  - { offset: 0xD6566, size: 0x8, addend: 0x0, symName: __RNvMNtCsfvfooZQ3Axs_4core6optionINtB2_6OptionINtNtNtB4_5slice4iter4IterNtNtNtCs1edtEUeLQ4Q_12serde_derive9internals3ast5FieldEE6insertB1d_, symObjAddr: 0x3F74, symBinAddr: 0x82EC8, symSize: 0x8C }
  - { offset: 0xD65F8, size: 0x8, addend: 0x0, symName: __RNvMNtCsfvfooZQ3Axs_4core6optionINtB2_6OptionINtNtNtNtCse1nGBsou5OW_5alloc11collections5btree3set8BTreeSetNtNtCs6IAuOt8vWmF_3syn8lifetime8LifetimeEE17unwrap_or_defaultCs1edtEUeLQ4Q_12serde_derive, symObjAddr: 0x4000, symBinAddr: 0x82F54, symSize: 0x64 }
  - { offset: 0xD6650, size: 0x8, addend: 0x0, symName: __RNvMNtCsfvfooZQ3Axs_4core6optionINtB2_6OptionINtNtNtNtCse1nGBsou5OW_5alloc11collections5btree3set8BTreeSetNtNtCs6IAuOt8vWmF_3syn8lifetime8LifetimeEE7is_someCs1edtEUeLQ4Q_12serde_derive, symObjAddr: 0x4064, symBinAddr: 0x82FB8, symSize: 0x20 }
  - { offset: 0xD6689, size: 0x8, addend: 0x0, symName: __RNvMNtCsfvfooZQ3Axs_4core6optionINtB2_6OptionNtCs3cP53eQoTwO_11proc_macro211TokenStreamE6as_refCs1edtEUeLQ4Q_12serde_derive, symObjAddr: 0x4084, symBinAddr: 0x82FD8, symSize: 0x50 }
  - { offset: 0xD66D3, size: 0x8, addend: 0x0, symName: __RNvMNtCsfvfooZQ3Axs_4core6optionINtB2_6OptionNtCs3cP53eQoTwO_11proc_macro211TokenStreamE7is_someCs1edtEUeLQ4Q_12serde_derive, symObjAddr: 0x40D4, symBinAddr: 0x83028, symSize: 0x2C }
  - { offset: 0xD66FF, size: 0x8, addend: 0x0, symName: __RNvMNtCsfvfooZQ3Axs_4core6optionINtB2_6OptionNtCs3cP53eQoTwO_11proc_macro24SpanE2orCs1edtEUeLQ4Q_12serde_derive, symObjAddr: 0x4100, symBinAddr: 0x83054, symSize: 0x80 }
  - { offset: 0xD6765, size: 0x8, addend: 0x0, symName: __RNvMNtCsfvfooZQ3Axs_4core6optionINtB2_6OptionNtNtCs6IAuOt8vWmF_3syn2ty4TypeE6as_refCs1edtEUeLQ4Q_12serde_derive, symObjAddr: 0x4180, symBinAddr: 0x830D4, symSize: 0x4C }
  - { offset: 0xD67AF, size: 0x8, addend: 0x0, symName: __RNvMNtCsfvfooZQ3Axs_4core6optionINtB2_6OptionNtNtCs6IAuOt8vWmF_3syn2ty4TypeE7is_someCs1edtEUeLQ4Q_12serde_derive, symObjAddr: 0x41CC, symBinAddr: 0x83120, symSize: 0x28 }
  - { offset: 0xD67E8, size: 0x8, addend: 0x0, symName: __RNvMNtCsfvfooZQ3Axs_4core6optionINtB2_6OptionNtNtCs6IAuOt8vWmF_3syn3lit6LitStrE6as_refCs1edtEUeLQ4Q_12serde_derive, symObjAddr: 0x41F4, symBinAddr: 0x83148, symSize: 0x4C }
  - { offset: 0xD683F, size: 0x8, addend: 0x0, symName: __RNvMNtCsfvfooZQ3Axs_4core6optionINtB2_6OptionNtNtCs6IAuOt8vWmF_3syn4expr8ExprPathE6as_refCs1edtEUeLQ4Q_12serde_derive, symObjAddr: 0x4240, symBinAddr: 0x83194, symSize: 0x50 }
  - { offset: 0xD68A5, size: 0x8, addend: 0x0, symName: __RNvMNtCsfvfooZQ3Axs_4core6optionINtB2_6OptionNtNtCs6IAuOt8vWmF_3syn4expr8ExprPathE7is_noneCs1edtEUeLQ4Q_12serde_derive, symObjAddr: 0x4290, symBinAddr: 0x831E4, symSize: 0x2C }
  - { offset: 0xD68EF, size: 0x8, addend: 0x0, symName: __RNvMNtCsfvfooZQ3Axs_4core6optionINtB2_6OptionNtNtCs6IAuOt8vWmF_3syn4expr8ExprPathE7is_someCs1edtEUeLQ4Q_12serde_derive, symObjAddr: 0x42BC, symBinAddr: 0x83210, symSize: 0x2C }
  - { offset: 0xD6928, size: 0x8, addend: 0x0, symName: __RNvMNtCsfvfooZQ3Axs_4core6optionINtB2_6OptionNtNtCs6IAuOt8vWmF_3syn4path4PathE6as_refCs1edtEUeLQ4Q_12serde_derive, symObjAddr: 0x42E8, symBinAddr: 0x8323C, symSize: 0x50 }
  - { offset: 0xD6972, size: 0x8, addend: 0x0, symName: __RNvMNtCsfvfooZQ3Axs_4core6optionINtB2_6OptionNtNtCs6IAuOt8vWmF_3syn4path4PathE7is_someCs1edtEUeLQ4Q_12serde_derive, symObjAddr: 0x4338, symBinAddr: 0x8328C, symSize: 0x2C }
  - { offset: 0xD69AB, size: 0x8, addend: 0x0, symName: __RNvMNtCsfvfooZQ3Axs_4core6optionINtB2_6OptionNtNtCs6IAuOt8vWmF_3syn8generics13LifetimeParamE7is_someCs1edtEUeLQ4Q_12serde_derive, symObjAddr: 0x4364, symBinAddr: 0x832B8, symSize: 0x2C }
  - { offset: 0xD6A0F, size: 0x8, addend: 0x0, symName: __RNvMNtCsfvfooZQ3Axs_4core6optionINtB2_6OptionNtNtCs6IAuOt8vWmF_3syn8lifetime8LifetimeE4iterCs1edtEUeLQ4Q_12serde_derive, symObjAddr: 0x4390, symBinAddr: 0x832E4, symSize: 0x4C }
  - { offset: 0xD6A7C, size: 0x8, addend: 0x0, symName: __RNvMNtCsfvfooZQ3Axs_4core6optionINtB2_6OptionNtNtCse1nGBsou5OW_5alloc6string6StringE6as_refCs1edtEUeLQ4Q_12serde_derive, symObjAddr: 0x43DC, symBinAddr: 0x83330, symSize: 0x50 }
  - { offset: 0xD6AC6, size: 0x8, addend: 0x0, symName: __RNvMNtCsfvfooZQ3Axs_4core6optionINtB2_6OptionNtNtCse1nGBsou5OW_5alloc6string6StringE7is_someCs1edtEUeLQ4Q_12serde_derive, symObjAddr: 0x442C, symBinAddr: 0x83380, symSize: 0x2C }
  - { offset: 0xD6AFF, size: 0x8, addend: 0x0, symName: __RNvMNtCsfvfooZQ3Axs_4core6optionINtB2_6OptionNtNtNtCs1edtEUeLQ4Q_12serde_derive9internals4attr15BorrowAttributeE6as_refBN_, symObjAddr: 0x4458, symBinAddr: 0x833AC, symSize: 0x4C }
  - { offset: 0xD6B49, size: 0x8, addend: 0x0, symName: __RNvMNtCsfvfooZQ3Axs_4core6optionINtB2_6OptionNtNtNtCs1edtEUeLQ4Q_12serde_derive9internals4attr15BorrowAttributeE7is_someBN_, symObjAddr: 0x44A4, symBinAddr: 0x833F8, symSize: 0x28 }
  - { offset: 0xD6B9E, size: 0x8, addend: 0x0, symName: __RNvMNtCsfvfooZQ3Axs_4core6optionINtB2_6OptionNtNtNtCs1edtEUeLQ4Q_12serde_derive9internals4attr7DefaultE7is_noneBN_, symObjAddr: 0x44CC, symBinAddr: 0x83420, symSize: 0x30 }
  - { offset: 0xD6BE8, size: 0x8, addend: 0x0, symName: __RNvMNtCsfvfooZQ3Axs_4core6optionINtB2_6OptionNtNtNtCs1edtEUeLQ4Q_12serde_derive9internals4attr7DefaultE7is_someBN_, symObjAddr: 0x44FC, symBinAddr: 0x83450, symSize: 0x30 }
  - { offset: 0xD6C14, size: 0x8, addend: 0x0, symName: __RNvMNtCsfvfooZQ3Axs_4core6optionINtB2_6OptionNtNtNtCs1edtEUeLQ4Q_12serde_derive9internals4attr7DefaultE9unwrap_orBN_, symObjAddr: 0x452C, symBinAddr: 0x83480, symSize: 0x90 }
  - { offset: 0xD6C7C, size: 0x8, addend: 0x0, symName: __RNvMNtCsfvfooZQ3Axs_4core6optionINtB2_6OptionNtNtNtCs1edtEUeLQ4Q_12serde_derive9internals4case10RenameRuleE7is_someBN_, symObjAddr: 0x45BC, symBinAddr: 0x83510, symSize: 0x28 }
  - { offset: 0xD6CA8, size: 0x8, addend: 0x0, symName: __RNvMNtCsfvfooZQ3Axs_4core6optionINtB2_6OptionNtNtNtCs1edtEUeLQ4Q_12serde_derive9internals4case10RenameRuleE9unwrap_orBN_, symObjAddr: 0x45E4, symBinAddr: 0x83538, symSize: 0x4C }
  - { offset: 0xD6D2A, size: 0x8, addend: 0x0, symName: __RNvMNtCsfvfooZQ3Axs_4core6optionINtB2_6OptionNtNtNtCs1edtEUeLQ4Q_12serde_derive9internals4name4NameE7is_noneBN_, symObjAddr: 0x4630, symBinAddr: 0x83584, symSize: 0x2C }
  - { offset: 0xD6D74, size: 0x8, addend: 0x0, symName: __RNvMNtCsfvfooZQ3Axs_4core6optionINtB2_6OptionNtNtNtCs1edtEUeLQ4Q_12serde_derive9internals4name4NameE7is_someBN_, symObjAddr: 0x465C, symBinAddr: 0x835B0, symSize: 0x2C }
  - { offset: 0xD6DA0, size: 0x8, addend: 0x0, symName: __RNvMNtCsfvfooZQ3Axs_4core6optionINtB2_6OptionNtNtNtCs1edtEUeLQ4Q_12serde_derive9internals4name4NameE9unwrap_orBN_, symObjAddr: 0x4688, symBinAddr: 0x835DC, symSize: 0x8C }
  - { offset: 0xD6E15, size: 0x8, addend: 0x0, symName: __RNvMNtCsfvfooZQ3Axs_4core6optionINtB2_6OptionQNtNtNtCs1edtEUeLQ4Q_12serde_derive9internals3ast5FieldE7is_someBO_, symObjAddr: 0x4714, symBinAddr: 0x83668, symSize: 0x28 }
  - { offset: 0xD6E41, size: 0x8, addend: 0x0, symName: __RNvMNtCsfvfooZQ3Axs_4core6optionINtB2_6OptionRNtCs3cP53eQoTwO_11proc_macro211TokenStreamE9unwrap_orCs1edtEUeLQ4Q_12serde_derive, symObjAddr: 0x473C, symBinAddr: 0x83690, symSize: 0x4C }
  - { offset: 0xD6EA7, size: 0x8, addend: 0x0, symName: __RNvMNtCsfvfooZQ3Axs_4core6optionINtB2_6OptionRNtNtCs6IAuOt8vWmF_3syn2ty4TypeE7is_someCs1edtEUeLQ4Q_12serde_derive, symObjAddr: 0x4788, symBinAddr: 0x836DC, symSize: 0x28 }
  - { offset: 0xD6EFC, size: 0x8, addend: 0x0, symName: __RNvMNtCsfvfooZQ3Axs_4core6optionINtB2_6OptionRNtNtCs6IAuOt8vWmF_3syn4expr8ExprPathE7is_noneCs1edtEUeLQ4Q_12serde_derive, symObjAddr: 0x47B0, symBinAddr: 0x83704, symSize: 0x28 }
  - { offset: 0xD6F46, size: 0x8, addend: 0x0, symName: __RNvMNtCsfvfooZQ3Axs_4core6optionINtB2_6OptionRNtNtCs6IAuOt8vWmF_3syn4expr8ExprPathE7is_someCs1edtEUeLQ4Q_12serde_derive, symObjAddr: 0x47D8, symBinAddr: 0x8372C, symSize: 0x28 }
  - { offset: 0xD6F9B, size: 0x8, addend: 0x0, symName: __RNvMNtCsfvfooZQ3Axs_4core6optionINtB2_6OptionRNtNtCs6IAuOt8vWmF_3syn4path4PathE7is_noneCs1edtEUeLQ4Q_12serde_derive, symObjAddr: 0x4800, symBinAddr: 0x83754, symSize: 0x28 }
  - { offset: 0xD6FE5, size: 0x8, addend: 0x0, symName: __RNvMNtCsfvfooZQ3Axs_4core6optionINtB2_6OptionRNtNtCs6IAuOt8vWmF_3syn4path4PathE7is_someCs1edtEUeLQ4Q_12serde_derive, symObjAddr: 0x4828, symBinAddr: 0x8377C, symSize: 0x28 }
  - { offset: 0xD702B, size: 0x8, addend: 0x0, symName: __RNvMNtCsfvfooZQ3Axs_4core6optionINtB2_6OptionRRNtNtNtCs1edtEUeLQ4Q_12serde_derive9internals3ast5FieldE7is_someBP_, symObjAddr: 0x4850, symBinAddr: 0x837A4, symSize: 0x28 }
  - { offset: 0xD7080, size: 0x8, addend: 0x0, symName: __RNvMNtCsfvfooZQ3Axs_4core6optionINtB2_6OptionRSNtNtCs6IAuOt8vWmF_3syn8generics14WherePredicateE7is_noneCs1edtEUeLQ4Q_12serde_derive, symObjAddr: 0x4878, symBinAddr: 0x837CC, symSize: 0x28 }
  - { offset: 0xD70E4, size: 0x8, addend: 0x0, symName: __RNvMNtCsfvfooZQ3Axs_4core6optionINtB2_6OptionRTjRNtNtNtCs1edtEUeLQ4Q_12serde_derive9internals3ast5FieldEE7is_someBR_, symObjAddr: 0x48A0, symBinAddr: 0x837F4, symSize: 0x28 }
  - { offset: 0xD7110, size: 0x8, addend: 0x0, symName: __RNvMNtCsfvfooZQ3Axs_4core6optionINtB2_6OptionReE9unwrap_orCs1edtEUeLQ4Q_12serde_derive, symObjAddr: 0x48C8, symBinAddr: 0x8381C, symSize: 0x70 }
  - { offset: 0xD7193, size: 0x8, addend: 0x0, symName: __RNvMNtCsfvfooZQ3Axs_4core6optionINtB2_6OptionjE7is_noneCs1edtEUeLQ4Q_12serde_derive, symObjAddr: 0x4938, symBinAddr: 0x8388C, symSize: 0x20 }
  - { offset: 0xD71EA, size: 0x8, addend: 0x0, symName: __RNvMNtCsfvfooZQ3Axs_4core6optionINtB2_6OptionuE7is_someCs1edtEUeLQ4Q_12serde_derive, symObjAddr: 0x4958, symBinAddr: 0x838AC, symSize: 0x24 }
  - { offset: 0xD729F, size: 0x8, addend: 0x0, symName: __RNvXs2_NtNtCs2cqEZUIJimJ_5quote9___private3extSNtCs3cP53eQoTwO_11proc_macro211TokenStreamNtB5_16RepAsIteratorExt15quote_into_iterCs1edtEUeLQ4Q_12serde_derive, symObjAddr: 0x54C4, symBinAddr: 0x84418, symSize: 0x38 }
  - { offset: 0xD72DA, size: 0x8, addend: 0x0, symName: __RNvXs5_NtNtCs2cqEZUIJimJ_5quote9___private3extINtNtNtNtCse1nGBsou5OW_5alloc11collections5btree3set8BTreeSetNtNtNtCs1edtEUeLQ4Q_12serde_derive9internals4name4NameENtB5_16RepAsIteratorExt15quote_into_iterB1N_, symObjAddr: 0x57F8, symBinAddr: 0x8474C, symSize: 0x54 }
  - { offset: 0xD7315, size: 0x8, addend: 0x0, symName: __RNvYNtCs3cP53eQoTwO_11proc_macro211TokenStreamNtNtNtCs2cqEZUIJimJ_5quote9___private3ext14RepToTokensExt15quote_into_iterCs1edtEUeLQ4Q_12serde_derive, symObjAddr: 0x7460, symBinAddr: 0x863B4, symSize: 0x24 }
  - { offset: 0xD734A, size: 0x8, addend: 0x0, symName: __RNvYNtCs3cP53eQoTwO_11proc_macro211TokenStreamNtNtNtCs2cqEZUIJimJ_5quote9___private3ext14RepToTokensExt4nextCs1edtEUeLQ4Q_12serde_derive, symObjAddr: 0x7484, symBinAddr: 0x863D8, symSize: 0x2C }
  - { offset: 0xD737F, size: 0x8, addend: 0x0, symName: __RNvYNtCs3cP53eQoTwO_11proc_macro25IdentNtNtNtCs2cqEZUIJimJ_5quote9___private3ext14RepToTokensExt15quote_into_iterCs1edtEUeLQ4Q_12serde_derive, symObjAddr: 0x74E0, symBinAddr: 0x86434, symSize: 0x24 }
  - { offset: 0xD73B4, size: 0x8, addend: 0x0, symName: __RNvYNtCs3cP53eQoTwO_11proc_macro25IdentNtNtNtCs2cqEZUIJimJ_5quote9___private3ext14RepToTokensExt4nextCs1edtEUeLQ4Q_12serde_derive, symObjAddr: 0x7504, symBinAddr: 0x86458, symSize: 0x2C }
  - { offset: 0xD7406, size: 0x8, addend: 0x0, symName: __RNvXNtCs2cqEZUIJimJ_5quote9to_tokensRNtCs3cP53eQoTwO_11proc_macro211TokenStreamNtB2_8ToTokens9to_tokensCs1edtEUeLQ4Q_12serde_derive, symObjAddr: 0x5268, symBinAddr: 0x841BC, symSize: 0x40 }
  - { offset: 0xD7445, size: 0x8, addend: 0x0, symName: __RNvXNtCs2cqEZUIJimJ_5quote9to_tokensRNtCs3cP53eQoTwO_11proc_macro25IdentNtB2_8ToTokens9to_tokensCs1edtEUeLQ4Q_12serde_derive, symObjAddr: 0x52A8, symBinAddr: 0x841FC, symSize: 0x40 }
  - { offset: 0xD7484, size: 0x8, addend: 0x0, symName: __RNvXNtCs2cqEZUIJimJ_5quote9to_tokensRNtNtCs6IAuOt8vWmF_3syn4data6FieldsNtB2_8ToTokens9to_tokensCs1edtEUeLQ4Q_12serde_derive, symObjAddr: 0x52E8, symBinAddr: 0x8423C, symSize: 0x40 }
  - { offset: 0xD74C3, size: 0x8, addend: 0x0, symName: __RNvXNtCs2cqEZUIJimJ_5quote9to_tokensRRNtCs3cP53eQoTwO_11proc_macro25IdentNtB2_8ToTokens9to_tokensCs1edtEUeLQ4Q_12serde_derive, symObjAddr: 0x5328, symBinAddr: 0x8427C, symSize: 0x40 }
  - { offset: 0xD7508, size: 0x8, addend: 0x0, symName: __RNvXs3_NtCs2cqEZUIJimJ_5quote9to_tokensINtNtCsfvfooZQ3Axs_4core6option6OptionNtCs3cP53eQoTwO_11proc_macro211TokenStreamENtB5_8ToTokens9to_tokensCs1edtEUeLQ4Q_12serde_derive, symObjAddr: 0x54FC, symBinAddr: 0x84450, symSize: 0x88 }
  - { offset: 0xD7564, size: 0x8, addend: 0x0, symName: __RNvXs3_NtCs2cqEZUIJimJ_5quote9to_tokensINtNtCsfvfooZQ3Axs_4core6option6OptionNtNtCs1edtEUeLQ4Q_12serde_derive8fragment5StmtsENtB5_8ToTokens9to_tokensB1h_, symObjAddr: 0x5584, symBinAddr: 0x844D8, symSize: 0x84 }
  - { offset: 0xD75C0, size: 0x8, addend: 0x0, symName: __RNvXs3_NtCs2cqEZUIJimJ_5quote9to_tokensINtNtCsfvfooZQ3Axs_4core6option6OptionRNtNtCs6IAuOt8vWmF_3syn8generics11WhereClauseENtB5_8ToTokens9to_tokensCs1edtEUeLQ4Q_12serde_derive, symObjAddr: 0x5608, symBinAddr: 0x8455C, symSize: 0x84 }
  - { offset: 0xD7622, size: 0x8, addend: 0x0, symName: __RNvYRNtCs3cP53eQoTwO_11proc_macro25IdentNtNtCs2cqEZUIJimJ_5quote9to_tokens8ToTokens15to_token_streamCs1edtEUeLQ4Q_12serde_derive, symObjAddr: 0x7530, symBinAddr: 0x86484, symSize: 0x8C }
  - { offset: 0xD766C, size: 0x8, addend: 0x0, symName: __RNvYRNtCs3cP53eQoTwO_11proc_macro25IdentNtNtCs2cqEZUIJimJ_5quote9to_tokens8ToTokens17into_token_streamCs1edtEUeLQ4Q_12serde_derive, symObjAddr: 0x75BC, symBinAddr: 0x86510, symSize: 0x54 }
  - { offset: 0xD76A1, size: 0x8, addend: 0x0, symName: __RNvYRNtNtCs6IAuOt8vWmF_3syn4data5FieldNtNtCs2cqEZUIJimJ_5quote9to_tokens8ToTokens15to_token_streamCs1edtEUeLQ4Q_12serde_derive, symObjAddr: 0x7610, symBinAddr: 0x86564, symSize: 0x8C }
  - { offset: 0xD76EB, size: 0x8, addend: 0x0, symName: __RNvYRNtNtCs6IAuOt8vWmF_3syn4data5FieldNtNtCs2cqEZUIJimJ_5quote9to_tokens8ToTokens17into_token_streamCs1edtEUeLQ4Q_12serde_derive, symObjAddr: 0x769C, symBinAddr: 0x865F0, symSize: 0x54 }
  - { offset: 0xD7720, size: 0x8, addend: 0x0, symName: __RNvYRNtNtCs6IAuOt8vWmF_3syn4data6FieldsNtNtCs2cqEZUIJimJ_5quote9to_tokens8ToTokens15to_token_streamCs1edtEUeLQ4Q_12serde_derive, symObjAddr: 0x76F0, symBinAddr: 0x86644, symSize: 0x8C }
  - { offset: 0xD776A, size: 0x8, addend: 0x0, symName: __RNvYRNtNtCs6IAuOt8vWmF_3syn4data6FieldsNtNtCs2cqEZUIJimJ_5quote9to_tokens8ToTokens17into_token_streamCs1edtEUeLQ4Q_12serde_derive, symObjAddr: 0x777C, symBinAddr: 0x866D0, symSize: 0x54 }
  - { offset: 0xD779F, size: 0x8, addend: 0x0, symName: __RNvYRNtNtCs6IAuOt8vWmF_3syn4data7VariantNtNtCs2cqEZUIJimJ_5quote9to_tokens8ToTokens15to_token_streamCs1edtEUeLQ4Q_12serde_derive, symObjAddr: 0x77D0, symBinAddr: 0x86724, symSize: 0x8C }
  - { offset: 0xD77E9, size: 0x8, addend: 0x0, symName: __RNvYRNtNtCs6IAuOt8vWmF_3syn4data7VariantNtNtCs2cqEZUIJimJ_5quote9to_tokens8ToTokens17into_token_streamCs1edtEUeLQ4Q_12serde_derive, symObjAddr: 0x785C, symBinAddr: 0x867B0, symSize: 0x54 }
  - { offset: 0xD782A, size: 0x8, addend: 0x0, symName: __RNvXs0_NtCs2cqEZUIJimJ_5quote7spannedNtNtCs6IAuOt8vWmF_3syn4data5FieldNtB5_7Spanned6___spanCs1edtEUeLQ4Q_12serde_derive, symObjAddr: 0x53E4, symBinAddr: 0x84338, symSize: 0x44 }
  - { offset: 0xD785F, size: 0x8, addend: 0x0, symName: __RNvXs0_NtCs2cqEZUIJimJ_5quote7spannedNtNtCs6IAuOt8vWmF_3syn4data7VariantNtB5_7Spanned6___spanCs1edtEUeLQ4Q_12serde_derive, symObjAddr: 0x5428, symBinAddr: 0x8437C, symSize: 0x44 }
  - { offset: 0xD7897, size: 0x8, addend: 0x0, symName: __RNvMNtNtCs2cqEZUIJimJ_5quote9___private8get_spanINtB2_7GetSpanNtCs3cP53eQoTwO_11proc_macro24SpanE11___into_spanCs1edtEUeLQ4Q_12serde_derive, symObjAddr: 0x497C, symBinAddr: 0x838D0, symSize: 0x20 }
  - { offset: 0xD78D2, size: 0x8, addend: 0x0, symName: __RNvMsb_NtNtNtCse1nGBsou5OW_5alloc11collections5btree3setINtB5_8BTreeSetNtNtCs6IAuOt8vWmF_3syn8lifetime8LifetimeE3newCs1edtEUeLQ4Q_12serde_derive, symObjAddr: 0x499C, symBinAddr: 0x838F0, symSize: 0x40 }
  - { offset: 0xD791D, size: 0x8, addend: 0x0, symName: __RNvMsb_NtNtNtCse1nGBsou5OW_5alloc11collections5btree3setINtB5_8BTreeSetNtNtNtCs1edtEUeLQ4Q_12serde_derive9internals4name4NameE3newB1d_, symObjAddr: 0x49DC, symBinAddr: 0x83930, symSize: 0x40 }
  - { offset: 0xD7A54, size: 0x8, addend: 0x0, symName: __RNvMsc_NtNtNtCse1nGBsou5OW_5alloc11collections5btree3setINtB5_8BTreeSetNtNtCs6IAuOt8vWmF_3syn8lifetime8LifetimeE4iterCs1edtEUeLQ4Q_12serde_derive, symObjAddr: 0x4A1C, symBinAddr: 0x83970, symSize: 0x154 }
  - { offset: 0xD7B9D, size: 0x8, addend: 0x0, symName: __RNvMsc_NtNtNtCse1nGBsou5OW_5alloc11collections5btree3setINtB5_8BTreeSetNtNtCs6IAuOt8vWmF_3syn8lifetime8LifetimeE6insertCs1edtEUeLQ4Q_12serde_derive, symObjAddr: 0x4B70, symBinAddr: 0x83AC4, symSize: 0x40 }
  - { offset: 0xD7C65, size: 0x8, addend: 0x0, symName: __RNvMsc_NtNtNtCse1nGBsou5OW_5alloc11collections5btree3setINtB5_8BTreeSetNtNtCs6IAuOt8vWmF_3syn8lifetime8LifetimeE8is_emptyCs1edtEUeLQ4Q_12serde_derive, symObjAddr: 0x4BB0, symBinAddr: 0x83B04, symSize: 0x20 }
  - { offset: 0xD7DEC, size: 0x8, addend: 0x0, symName: __RNvMsc_NtNtNtCse1nGBsou5OW_5alloc11collections5btree3setINtB5_8BTreeSetNtNtNtCs1edtEUeLQ4Q_12serde_derive9internals4name4NameE4iterB1d_, symObjAddr: 0x4BD0, symBinAddr: 0x83B24, symSize: 0x154 }
  - { offset: 0xD7F35, size: 0x8, addend: 0x0, symName: __RNvMsc_NtNtNtCse1nGBsou5OW_5alloc11collections5btree3setINtB5_8BTreeSetNtNtNtCs1edtEUeLQ4Q_12serde_derive9internals4name4NameE6insertB1d_, symObjAddr: 0x4D24, symBinAddr: 0x83C78, symSize: 0x40 }
  - { offset: 0xD7FC6, size: 0x8, addend: 0x0, symName: __RNvMsk_NtCsfvfooZQ3Axs_4core4cellINtB5_7RefCellINtNtB7_6option6OptionINtNtCse1nGBsou5OW_5alloc3vec3VecNtNtCs6IAuOt8vWmF_3syn5error5ErrorEEE3newCs1edtEUeLQ4Q_12serde_derive, symObjAddr: 0x4D64, symBinAddr: 0x83CB8, symSize: 0x34 }
  - { offset: 0xD802E, size: 0x8, addend: 0x0, symName: __RNvMsl_NtCsfvfooZQ3Axs_4core4cellINtB5_7RefCellINtNtB7_6option6OptionINtNtCse1nGBsou5OW_5alloc3vec3VecNtNtCs6IAuOt8vWmF_3syn5error5ErrorEEE10borrow_mutCs1edtEUeLQ4Q_12serde_derive, symObjAddr: 0x4D98, symBinAddr: 0x83CEC, symSize: 0x60 }
  - { offset: 0xD8157, size: 0x8, addend: 0x0, symName: __RNvMsl_NtCsfvfooZQ3Axs_4core4cellINtB5_7RefCellINtNtB7_6option6OptionINtNtCse1nGBsou5OW_5alloc3vec3VecNtNtCs6IAuOt8vWmF_3syn5error5ErrorEEE10try_borrowCs1edtEUeLQ4Q_12serde_derive, symObjAddr: 0x4DF8, symBinAddr: 0x83D4C, symSize: 0xC4 }
  - { offset: 0xD837B, size: 0x8, addend: 0x0, symName: __RNvMsl_NtCsfvfooZQ3Axs_4core4cellINtB5_7RefCellINtNtB7_6option6OptionINtNtCse1nGBsou5OW_5alloc3vec3VecNtNtCs6IAuOt8vWmF_3syn5error5ErrorEEE14try_borrow_mutCs1edtEUeLQ4Q_12serde_derive, symObjAddr: 0x4EBC, symBinAddr: 0x83E10, symSize: 0xB4 }
  - { offset: 0xD84AA, size: 0x8, addend: 0x0, symName: __RNvMsl_NtCsfvfooZQ3Axs_4core4cellINtB5_7RefCellINtNtB7_6option6OptionINtNtCse1nGBsou5OW_5alloc3vec3VecNtNtCs6IAuOt8vWmF_3syn5error5ErrorEEE6borrowCs1edtEUeLQ4Q_12serde_derive, symObjAddr: 0x4F70, symBinAddr: 0x83EC4, symSize: 0x60 }
  - { offset: 0xD85F0, size: 0x8, addend: 0x0, symName: __RNvXCsloNvcHxBCre_9hashbrownNtCs3cP53eQoTwO_11proc_macro25IdentINtB2_10EquivalentBq_E10equivalentCs1edtEUeLQ4Q_12serde_derive, symObjAddr: 0x5218, symBinAddr: 0x8416C, symSize: 0x50 }
  - { offset: 0xD91F7, size: 0x8, addend: 0x0, symName: __RINvMNtCs6IAuOt8vWmF_3syn4attrNtB3_9Attribute15parse_args_withNCINvNtB5_4meta6parserNCNvMs3_NtNtCs1edtEUeLQ4Q_12serde_derive9internals4attrNtB1s_9Container8from_ast0E0EB1w_, symObjAddr: 0x0, symBinAddr: 0x86804, symSize: 0x370 }
  - { offset: 0xD985E, size: 0x8, addend: 0x0, symName: __RINvNtNtNtCsfvfooZQ3Axs_4core4iter8adapters4fuse17and_then_or_clearINtNtB4_3map3MapINtNtB4_10filter_map9FilterMapINtNtCse1nGBsou5OW_5alloc5boxed3BoxDNtNtNtB6_6traits8iterator8Iteratorp4ItemRNtNtNtCs1edtEUeLQ4Q_12serde_derive9internals3ast5FieldEL_ENCNvNtB38_5bound33with_where_predicates_from_fields0ENvMNtB1S_5sliceSNtNtCs6IAuOt8vWmF_3syn8generics14WherePredicate6to_vecEINtNtB1S_3vec3VecB55_ENvYB13_B2n_4nextEB38_, symObjAddr: 0x1820, symBinAddr: 0x87FBC, symSize: 0x124 }
  - { offset: 0xD99A2, size: 0x8, addend: 0x0, symName: __RINvXs9_NtNtNtCsfvfooZQ3Axs_4core4iter8adapters4fuseINtB6_4FuseINtNtB8_3map3MapINtNtNtBc_5slice4iter4IterNtNtNtCs1edtEUeLQ4Q_12serde_derive9internals3ast7VariantENCNvMs_B1H_NtB1H_4Data10all_fields0EEINtB6_8FuseImplBZ_E8try_foldjNCINvNvMst_NtB8_7flattenINtB3P_13FlattenCompatppE13iter_try_fold7flattenIB1g_NtB1H_5FieldEjINtNtNtBc_3ops12control_flow11ControlFlowujEINvNvXsv_B3P_B42_NtNtNtBa_6traits8iterator8Iterator10advance_by7advanceB4O_EE0B57_EB1L_, symObjAddr: 0x2530, symBinAddr: 0x88BB0, symSize: 0x184 }
  - { offset: 0xD9A3F, size: 0x8, addend: 0x0, symName: __RNvXs9_NtNtNtCsfvfooZQ3Axs_4core4iter8adapters4fuseINtB5_4FuseINtNtB7_3map3MapINtNtB7_10filter_map9FilterMapINtNtNtBb_5slice4iter4IterNtNtNtCs1edtEUeLQ4Q_12serde_derive9internals3ast7VariantENCNvNtB2e_5bound35with_where_predicates_from_variants0ENvMNtCse1nGBsou5OW_5alloc5sliceSNtNtCs6IAuOt8vWmF_3syn8generics14WherePredicate6to_vecEEINtB5_8FuseImplBY_E4nextB2e_, symObjAddr: 0x49F4, symBinAddr: 0x8AD74, symSize: 0x88 }
  - { offset: 0xD9B0A, size: 0x8, addend: 0x0, symName: __RNvXs9_NtNtNtCsfvfooZQ3Axs_4core4iter8adapters4fuseINtB5_4FuseINtNtB7_3map3MapINtNtB7_6filter6FilterINtNtB7_9enumerate9EnumerateINtNtNtBb_5slice4iter4IterNtNtNtCs1edtEUeLQ4Q_12serde_derive9internals3ast7VariantEENCNvNtB2y_2de25prepare_enum_variant_enum0ENCB3q_s1_0EEINtB5_8FuseImplBY_E4nextB2y_, symObjAddr: 0x4A7C, symBinAddr: 0x8ADFC, symSize: 0x80 }
  - { offset: 0xD9BD5, size: 0x8, addend: 0x0, symName: __RNvXs9_NtNtNtCsfvfooZQ3Axs_4core4iter8adapters4fuseINtB5_4FuseINtNtB7_3map3MapINtNtNtBb_5slice4iter4IterNtNtCs1edtEUeLQ4Q_12serde_derive2de16FieldWithAliasesENCNvB1G_18deserialize_structs0_0EEINtB5_8FuseImplBY_E4nextB1I_, symObjAddr: 0x4AFC, symBinAddr: 0x8AE7C, symSize: 0x80 }
  - { offset: 0xD9CA0, size: 0x8, addend: 0x0, symName: __RNvXs9_NtNtNtCsfvfooZQ3Axs_4core4iter8adapters4fuseINtB5_4FuseINtNtB7_3map3MapINtNtNtBb_5slice4iter4IterNtNtCs1edtEUeLQ4Q_12serde_derive2de16FieldWithAliasesENCNvB1G_29deserialize_custom_identifiers0_0EEINtB5_8FuseImplBY_E4nextB1I_, symObjAddr: 0x4B7C, symBinAddr: 0x8AEFC, symSize: 0x80 }
  - { offset: 0xD9D6B, size: 0x8, addend: 0x0, symName: __RNvXs9_NtNtNtCsfvfooZQ3Axs_4core4iter8adapters4fuseINtB5_4FuseINtNtB7_3map3MapINtNtNtBb_5slice4iter4IterNtNtNtCs1edtEUeLQ4Q_12serde_derive9internals3ast7VariantENCNvMs_B1G_NtB1G_4Data10all_fields0EEINtB5_8FuseImplBY_E4nextB1K_, symObjAddr: 0x4BFC, symBinAddr: 0x8AF7C, symSize: 0x88 }
  - { offset: 0xD9EB4, size: 0x8, addend: 0x0, symName: __RNvXs8_NtNtNtCsfvfooZQ3Axs_4core4iter8adapters4fuseINtB5_4FuseINtNtB7_3map3MapINtNtB7_10filter_map9FilterMapINtNtCse1nGBsou5OW_5alloc5boxed3BoxDNtNtNtB9_6traits8iterator8Iteratorp4ItemRNtNtNtCs1edtEUeLQ4Q_12serde_derive9internals3ast5FieldEL_ENCNvNtB33_5bound33with_where_predicates_from_fields0ENvMNtB1N_5sliceSNtNtCs6IAuOt8vWmF_3syn8generics14WherePredicate6to_vecEEINtB5_8FuseImplBY_E4nextB33_, symObjAddr: 0x49D0, symBinAddr: 0x8AD50, symSize: 0x24 }
  - { offset: 0xD9FB7, size: 0x8, addend: 0x0, symName: __RNvXs0_NtNtNtCsfvfooZQ3Axs_4core4iter8adapters10filter_mapINtB5_9FilterMapINtNtB7_6filter6FilterINtNtB7_9enumerate9EnumerateINtNtNtBb_5slice4iter4IterNtNtNtCs1edtEUeLQ4Q_12serde_derive9internals3ast7VariantEENCNvNtB2u_2de34deserialize_adjacently_tagged_enums0_0ENCB3m_s1_0ENtNtNtB9_6traits8iterator8Iterator4nextB2u_, symObjAddr: 0x46C0, symBinAddr: 0x8AA40, symSize: 0x2C }
  - { offset: 0xD9FFE, size: 0x8, addend: 0x0, symName: __RNvXs0_NtNtNtCsfvfooZQ3Axs_4core4iter8adapters10filter_mapINtB5_9FilterMapINtNtB7_6filter6FilterINtNtB7_9enumerate9EnumerateINtNtNtBb_5slice4iter4IterNtNtNtCs1edtEUeLQ4Q_12serde_derive9internals3ast7VariantEENCNvNtB2u_2de34deserialize_adjacently_tagged_enums0_0ENCB3m_s1_0ENtNtNtB9_6traits8iterator8Iterator9size_hintB2u_, symObjAddr: 0x46EC, symBinAddr: 0x8AA6C, symSize: 0x4C }
  - { offset: 0xDA062, size: 0x8, addend: 0x0, symName: __RNvXs0_NtNtNtCsfvfooZQ3Axs_4core4iter8adapters10filter_mapINtB5_9FilterMapINtNtCse1nGBsou5OW_5alloc5boxed3BoxDNtNtNtB9_6traits8iterator8Iteratorp4ItemRNtNtNtCs1edtEUeLQ4Q_12serde_derive9internals3ast5FieldEL_ENCNvNtB2v_5bound33with_where_predicates_from_fields0EB1K_4nextB2v_, symObjAddr: 0x4738, symBinAddr: 0x8AAB8, symSize: 0x2C }
  - { offset: 0xDA0A9, size: 0x8, addend: 0x0, symName: __RNvXs0_NtNtNtCsfvfooZQ3Axs_4core4iter8adapters10filter_mapINtB5_9FilterMapINtNtNtBb_5slice4iter4IterNtNtNtCs1edtEUeLQ4Q_12serde_derive9internals3ast7VariantENCNvNtB1G_5bound35with_where_predicates_from_variants0ENtNtNtB9_6traits8iterator8Iterator4nextB1G_, symObjAddr: 0x4764, symBinAddr: 0x8AAE4, symSize: 0x2C }
  - { offset: 0xDA0F0, size: 0x8, addend: 0x0, symName: __RNvXs0_NtNtNtCsfvfooZQ3Axs_4core4iter8adapters10filter_mapINtB5_9FilterMapINtNtNtBb_5slice4iter4IterNtNtNtCs1edtEUeLQ4Q_12serde_derive9internals3ast7VariantENCNvNtB1G_7pretend24pretend_fields_used_enum0ENtNtNtB9_6traits8iterator8Iterator4nextB1G_, symObjAddr: 0x4790, symBinAddr: 0x8AB10, symSize: 0x2C }
  - { offset: 0xDA137, size: 0x8, addend: 0x0, symName: __RNvXs0_NtNtNtCsfvfooZQ3Axs_4core4iter8adapters10filter_mapINtB5_9FilterMapINtNtNtBb_5slice4iter4IterNtNtNtCs1edtEUeLQ4Q_12serde_derive9internals3ast7VariantENCNvNtB1G_7pretend24pretend_fields_used_enum0ENtNtNtB9_6traits8iterator8Iterator9size_hintB1G_, symObjAddr: 0x47BC, symBinAddr: 0x8AB3C, symSize: 0x4C }
  - { offset: 0xDA20D, size: 0x8, addend: 0x0, symName: __RINvXs_NtNtNtCsfvfooZQ3Axs_4core4iter8adapters6clonedINtB5_6ClonedINtNtBb_6option4IterNtNtCs6IAuOt8vWmF_3syn8lifetime8LifetimeEENtNtNtB9_6traits8iterator8Iterator4folduNCINvNvB22_8for_each4callB1m_NCINvXsl_NtNtNtCse1nGBsou5OW_5alloc11collections5btree3setINtB3i_8BTreeSetB1m_EINtNtB26_7collect6ExtendB1m_E6extendBP_E0E0ECs1edtEUeLQ4Q_12serde_derive, symObjAddr: 0x26B4, symBinAddr: 0x88D34, symSize: 0xA0 }
  - { offset: 0xDA2A2, size: 0x8, addend: 0x0, symName: __RINvXs_NtNtNtCsfvfooZQ3Axs_4core4iter8adapters6clonedINtB5_6ClonedINtNtNtNtCse1nGBsou5OW_5alloc11collections5btree3set4IterNtNtCs6IAuOt8vWmF_3syn8lifetime8LifetimeEENtNtNtB9_6traits8iterator8Iterator4folduNCINvNvB2D_8for_each4callB1X_NCINvXsl_B15_INtB15_8BTreeSetB1X_EINtNtB2H_7collect6ExtendB1X_E6extendBP_E0E0ECs1edtEUeLQ4Q_12serde_derive, symObjAddr: 0x2754, symBinAddr: 0x88DD4, symSize: 0xD4 }
  - { offset: 0xDA338, size: 0x8, addend: 0x0, symName: __RNvXs_NtNtNtCsfvfooZQ3Axs_4core4iter8adapters6clonedINtB4_6ClonedINtNtCs6IAuOt8vWmF_3syn10punctuated4IterNtNtB16_8generics12GenericParamEENtNtNtB8_6traits8iterator8Iterator4nextCs1edtEUeLQ4Q_12serde_derive, symObjAddr: 0x4D34, symBinAddr: 0x8B0B4, symSize: 0x84 }
  - { offset: 0xDA3A9, size: 0x8, addend: 0x0, symName: __RNvXs_NtNtNtCsfvfooZQ3Axs_4core4iter8adapters6clonedINtB4_6ClonedINtNtNtBa_5slice4iter4IterNtNtCs6IAuOt8vWmF_3syn8generics14WherePredicateEENtNtNtB8_6traits8iterator8Iterator4nextCs1edtEUeLQ4Q_12serde_derive, symObjAddr: 0x4DB8, symBinAddr: 0x8B138, symSize: 0x84 }
  - { offset: 0xDA41A, size: 0x8, addend: 0x0, symName: __RNvXs_NtNtNtCsfvfooZQ3Axs_4core4iter8adapters6clonedINtB4_6ClonedINtNtNtCse1nGBsou5OW_5alloc3vec9into_iter8IntoIterRNtNtCs6IAuOt8vWmF_3syn2ty8TypePathEENtNtNtB8_6traits8iterator8Iterator4nextCs1edtEUeLQ4Q_12serde_derive, symObjAddr: 0x4E3C, symBinAddr: 0x8B1BC, symSize: 0x7C }
  - { offset: 0xDA48B, size: 0x8, addend: 0x0, symName: __RNvXs_NtNtNtCsfvfooZQ3Axs_4core4iter8adapters6clonedINtB4_6ClonedINtNtNtNtCse1nGBsou5OW_5alloc11collections5btree3set4IterNtNtCs6IAuOt8vWmF_3syn8lifetime8LifetimeEENtNtNtB8_6traits8iterator8Iterator4nextCs1edtEUeLQ4Q_12serde_derive, symObjAddr: 0x4EB8, symBinAddr: 0x8B238, symSize: 0x78 }
  - { offset: 0xDA6C2, size: 0x8, addend: 0x0, symName: __RINvYINtNtNtNtCsfvfooZQ3Axs_4core4iter8adapters10filter_map9FilterMapINtNtB8_6filter6FilterINtNtB8_9enumerate9EnumerateINtNtNtBc_5slice4iter4IterNtNtNtCs1edtEUeLQ4Q_12serde_derive9internals3ast7VariantEENCNvNtB2p_2de34deserialize_adjacently_tagged_enums0_0ENCB3h_s1_0ENtNtNtBa_6traits8iterator8Iterator7collectINtNtCse1nGBsou5OW_5alloc3vec3VecNtCs3cP53eQoTwO_11proc_macro211TokenStreamEEB2p_, symObjAddr: 0x2828, symBinAddr: 0x88EA8, symSize: 0x1C }
  - { offset: 0xDA703, size: 0x8, addend: 0x0, symName: __RINvYINtNtNtNtCsfvfooZQ3Axs_4core4iter8adapters10filter_map9FilterMapINtNtCse1nGBsou5OW_5alloc5boxed3BoxDNtNtNtBa_6traits8iterator8Iteratorp4ItemRNtNtNtCs1edtEUeLQ4Q_12serde_derive9internals3ast5FieldEL_ENCNvNtB2q_5bound33with_where_predicates_from_fields0EB1F_3mapINtNtB1a_3vec3VecNtNtCs6IAuOt8vWmF_3syn8generics14WherePredicateENvMNtB1a_5sliceSB4w_6to_vecEB2q_, symObjAddr: 0x2844, symBinAddr: 0x88EC4, symSize: 0x20 }
  - { offset: 0xDA797, size: 0x8, addend: 0x0, symName: __RINvYINtNtNtNtCsfvfooZQ3Axs_4core4iter8adapters10filter_map9FilterMapINtNtCse1nGBsou5OW_5alloc5boxed3BoxDNtNtNtBa_6traits8iterator8Iteratorp4ItemRNtNtNtCs1edtEUeLQ4Q_12serde_derive9internals3ast5FieldEL_ENCNvNtB2q_5bound33with_where_predicates_from_fields0EB1F_8flat_mapINtNtB1a_3vec3VecNtNtCs6IAuOt8vWmF_3syn8generics14WherePredicateENvMNtB1a_5sliceSB4B_6to_vecEB2q_, symObjAddr: 0x2864, symBinAddr: 0x88EE4, symSize: 0x8C }
  - { offset: 0xDA869, size: 0x8, addend: 0x0, symName: __RINvYINtNtNtNtCsfvfooZQ3Axs_4core4iter8adapters10filter_map9FilterMapINtNtNtBc_5slice4iter4IterNtNtNtCs1edtEUeLQ4Q_12serde_derive9internals3ast7VariantENCNvNtB1B_5bound35with_where_predicates_from_variants0ENtNtNtBa_6traits8iterator8Iterator3mapINtNtCse1nGBsou5OW_5alloc3vec3VecNtNtCs6IAuOt8vWmF_3syn8generics14WherePredicateENvMNtB40_5sliceSB4s_6to_vecEB1B_, symObjAddr: 0x28F0, symBinAddr: 0x88F70, symSize: 0x20 }
  - { offset: 0xDA8FD, size: 0x8, addend: 0x0, symName: __RINvYINtNtNtNtCsfvfooZQ3Axs_4core4iter8adapters10filter_map9FilterMapINtNtNtBc_5slice4iter4IterNtNtNtCs1edtEUeLQ4Q_12serde_derive9internals3ast7VariantENCNvNtB1B_5bound35with_where_predicates_from_variants0ENtNtNtBa_6traits8iterator8Iterator8flat_mapINtNtCse1nGBsou5OW_5alloc3vec3VecNtNtCs6IAuOt8vWmF_3syn8generics14WherePredicateENvMNtB45_5sliceSB4x_6to_vecEB1B_, symObjAddr: 0x2910, symBinAddr: 0x88F90, symSize: 0x8C }
  - { offset: 0xDA9CF, size: 0x8, addend: 0x0, symName: __RINvYINtNtNtNtCsfvfooZQ3Axs_4core4iter8adapters10filter_map9FilterMapINtNtNtBc_5slice4iter4IterNtNtNtCs1edtEUeLQ4Q_12serde_derive9internals3ast7VariantENCNvNtB1B_7pretend24pretend_fields_used_enum0ENtNtNtBa_6traits8iterator8Iterator7collectINtNtCse1nGBsou5OW_5alloc3vec3VecNtCs3cP53eQoTwO_11proc_macro211TokenStreamEEB1B_, symObjAddr: 0x299C, symBinAddr: 0x8901C, symSize: 0x1C }
  - { offset: 0xDAA10, size: 0x8, addend: 0x0, symName: __RINvYINtNtNtNtCsfvfooZQ3Axs_4core4iter8adapters6cloned6ClonedINtNtBc_6option4IterNtNtCs6IAuOt8vWmF_3syn8lifetime8LifetimeEENtNtNtBa_6traits8iterator8Iterator8for_eachNCINvXsl_NtNtNtCse1nGBsou5OW_5alloc11collections5btree3setINtB2N_8BTreeSetB1h_EINtNtB21_7collect6ExtendB1h_E6extendB3_E0ECs1edtEUeLQ4Q_12serde_derive, symObjAddr: 0x29B8, symBinAddr: 0x89038, symSize: 0x2C }
  - { offset: 0xDAA5B, size: 0x8, addend: 0x0, symName: __RINvYINtNtNtNtCsfvfooZQ3Axs_4core4iter8adapters6cloned6ClonedINtNtCs6IAuOt8vWmF_3syn10punctuated4IterNtNtB12_8generics12GenericParamEENtNtNtBa_6traits8iterator8Iterator3mapB1B_NCNvNtCs1edtEUeLQ4Q_12serde_derive5bound19with_lifetime_bound0EB2U_, symObjAddr: 0x29E4, symBinAddr: 0x89064, symSize: 0x30 }
  - { offset: 0xDAAC8, size: 0x8, addend: 0x0, symName: __RINvYINtNtNtNtCsfvfooZQ3Axs_4core4iter8adapters6cloned6ClonedINtNtNtNtCse1nGBsou5OW_5alloc11collections5btree3set4IterNtNtCs6IAuOt8vWmF_3syn8lifetime8LifetimeEENtNtNtBa_6traits8iterator8Iterator7collectINtNtB1W_10punctuated10PunctuatedB1S_NtNtB1W_5token4PlusEECs1edtEUeLQ4Q_12serde_derive, symObjAddr: 0x2A14, symBinAddr: 0x89094, symSize: 0x14 }
  - { offset: 0xDAB09, size: 0x8, addend: 0x0, symName: __RINvYINtNtNtNtCsfvfooZQ3Axs_4core4iter8adapters6cloned6ClonedINtNtNtNtCse1nGBsou5OW_5alloc11collections5btree3set4IterNtNtCs6IAuOt8vWmF_3syn8lifetime8LifetimeEENtNtNtBa_6traits8iterator8Iterator8for_eachNCINvXsl_B10_INtB10_8BTreeSetB1S_EINtNtB2C_7collect6ExtendB1S_E6extendB3_E0ECs1edtEUeLQ4Q_12serde_derive, symObjAddr: 0x2A28, symBinAddr: 0x890A8, symSize: 0x24 }
  - { offset: 0xDAB55, size: 0x8, addend: 0x0, symName: __RINvYNtNtCs3cP53eQoTwO_11proc_macro212token_stream8IntoIterNtNtNtNtCsfvfooZQ3Axs_4core4iter6traits8iterator8Iterator3mapNtB7_9TokenTreeNCNvNtNtCs1edtEUeLQ4Q_12serde_derive9internals6respan6respan0EB2h_, symObjAddr: 0x2A4C, symBinAddr: 0x890CC, symSize: 0x50 }
  - { offset: 0xDABC3, size: 0x8, addend: 0x0, symName: __RINvYNtNtCs3cP53eQoTwO_11proc_macro212token_stream8IntoIterNtNtNtNtCsfvfooZQ3Axs_4core4iter6traits8iterator8Iterator4folduNCINvNtNtB11_8adapters3map8map_foldNtB7_9TokenTreeB2v_uNCNvNtNtCs1edtEUeLQ4Q_12serde_derive9internals6respan6respan0NCIB1Z_B2v_NtCs9i5KxIbZ5ph_10proc_macro9TokenTreeuNvNtB7_3imp19into_compiler_tokenNCINvNvBV_8for_each4callB3Z_NCINvXsg_B41_NtB41_11TokenStreamINtNtBZ_7collect12FromIteratorB3Z_E9from_iterINtB21_3MapIB6Q_B3_B2P_EB4C_EE0E0E0E0EB2X_, symObjAddr: 0x2A9C, symBinAddr: 0x8911C, symSize: 0x110 }
  - { offset: 0xDAC54, size: 0x8, addend: 0x0, symName: __RINvYNtNtCs3cP53eQoTwO_11proc_macro212token_stream8IntoIterNtNtNtNtCsfvfooZQ3Axs_4core4iter6traits8iterator8Iterator4folduNCINvNtNtB11_8adapters3map8map_foldNtB7_9TokenTreeB2v_uNCNvNtNtCs1edtEUeLQ4Q_12serde_derive9internals6respan6respan0NCINvNvBV_8for_each4callB2v_NCINvXsa_NtB7_8fallbackNtB4p_11TokenStreamINtNtBZ_7collect6ExtendB2v_E6extendINtB21_3MapB3_B2P_EE0E0E0EB2X_, symObjAddr: 0x2BAC, symBinAddr: 0x8922C, symSize: 0x110 }
  - { offset: 0xDACF1, size: 0x8, addend: 0x0, symName: __RNvXNtNtNtCsfvfooZQ3Axs_4core4iter6traits7collectINtNtNtB6_8adapters10filter_map9FilterMapINtNtBQ_6filter6FilterINtNtBQ_9enumerate9EnumerateINtNtNtB8_5slice4iter4IterNtNtNtCs1edtEUeLQ4Q_12serde_derive9internals3ast7VariantEENCNvNtB2K_2de34deserialize_adjacently_tagged_enums0_0ENCB3C_s1_0ENtB2_12IntoIterator9into_iterB2K_, symObjAddr: 0x4334, symBinAddr: 0x8A6B4, symSize: 0x30 }
  - { offset: 0xDAD29, size: 0x8, addend: 0x0, symName: __RNvXNtNtNtCsfvfooZQ3Axs_4core4iter6traits7collectINtNtNtB6_8adapters10filter_map9FilterMapINtNtNtB8_5slice4iter4IterNtNtNtCs1edtEUeLQ4Q_12serde_derive9internals3ast7VariantENCNvNtB1W_7pretend24pretend_fields_used_enum0ENtB2_12IntoIterator9into_iterB1W_, symObjAddr: 0x4364, symBinAddr: 0x8A6E4, symSize: 0x18 }
  - { offset: 0xDAD60, size: 0x8, addend: 0x0, symName: __RNvXNtNtNtCsfvfooZQ3Axs_4core4iter6traits7collectINtNtNtB6_8adapters6cloned6ClonedINtNtB8_6option4IterNtNtCs6IAuOt8vWmF_3syn8lifetime8LifetimeEENtB2_12IntoIterator9into_iterCs1edtEUeLQ4Q_12serde_derive, symObjAddr: 0x437C, symBinAddr: 0x8A6FC, symSize: 0x14 }
  - { offset: 0xDAD97, size: 0x8, addend: 0x0, symName: __RNvXNtNtNtCsfvfooZQ3Axs_4core4iter6traits7collectINtNtNtB6_8adapters6cloned6ClonedINtNtNtB8_5slice4iter4IterNtNtCs6IAuOt8vWmF_3syn8generics14WherePredicateEENtB2_12IntoIterator9into_iterCs1edtEUeLQ4Q_12serde_derive, symObjAddr: 0x4390, symBinAddr: 0x8A710, symSize: 0x1C }
  - { offset: 0xDADCE, size: 0x8, addend: 0x0, symName: __RNvXNtNtNtCsfvfooZQ3Axs_4core4iter6traits7collectINtNtNtB6_8adapters6cloned6ClonedINtNtNtCse1nGBsou5OW_5alloc3vec9into_iter8IntoIterRNtNtCs6IAuOt8vWmF_3syn2ty8TypePathEENtB2_12IntoIterator9into_iterCs1edtEUeLQ4Q_12serde_derive, symObjAddr: 0x43AC, symBinAddr: 0x8A72C, symSize: 0x14 }
  - { offset: 0xDAE05, size: 0x8, addend: 0x0, symName: __RNvXNtNtNtCsfvfooZQ3Axs_4core4iter6traits7collectINtNtNtB6_8adapters6cloned6ClonedINtNtNtNtCse1nGBsou5OW_5alloc11collections5btree3set4IterNtNtCs6IAuOt8vWmF_3syn8lifetime8LifetimeEENtB2_12IntoIterator9into_iterCs1edtEUeLQ4Q_12serde_derive, symObjAddr: 0x43C0, symBinAddr: 0x8A740, symSize: 0x30 }
  - { offset: 0xDAF2E, size: 0x8, addend: 0x0, symName: __RNvXs_NtNtCsfvfooZQ3Axs_4core5slice4iterRSNtNtNtCs1edtEUeLQ4Q_12serde_derive9internals3ast5FieldNtNtNtNtB8_4iter6traits7collect12IntoIterator9into_iterBK_, symObjAddr: 0x4C84, symBinAddr: 0x8B004, symSize: 0x58 }
  - { offset: 0xDB07D, size: 0x8, addend: 0x0, symName: __RNvXs_NtNtCsfvfooZQ3Axs_4core5slice4iterRSNtNtNtCs1edtEUeLQ4Q_12serde_derive9internals3ast7VariantNtNtNtNtB8_4iter6traits7collect12IntoIterator9into_iterBK_, symObjAddr: 0x4CDC, symBinAddr: 0x8B05C, symSize: 0x58 }
  - { offset: 0xDB39B, size: 0x8, addend: 0x0, symName: __RNvMNtCsfvfooZQ3Axs_4core5sliceSNtNtCs6IAuOt8vWmF_3syn4expr6Member4iterCs1edtEUeLQ4Q_12serde_derive, symObjAddr: 0x2CBC, symBinAddr: 0x8933C, symSize: 0x28 }
  - { offset: 0xDB3D2, size: 0x8, addend: 0x0, symName: __RNvMNtCsfvfooZQ3Axs_4core5sliceSNtNtCs6IAuOt8vWmF_3syn4expr6Member8is_emptyCs1edtEUeLQ4Q_12serde_derive, symObjAddr: 0x2CE4, symBinAddr: 0x89364, symSize: 0x1C }
  - { offset: 0xDB407, size: 0x8, addend: 0x0, symName: __RNvMNtCsfvfooZQ3Axs_4core5sliceSNtNtNtCs1edtEUeLQ4Q_12serde_derive9internals3ast5Field4iterBA_, symObjAddr: 0x2D00, symBinAddr: 0x89380, symSize: 0x28 }
  - { offset: 0xDB43E, size: 0x8, addend: 0x0, symName: __RNvMNtCsfvfooZQ3Axs_4core5sliceSNtNtNtCs1edtEUeLQ4Q_12serde_derive9internals3ast5Field4lastBA_, symObjAddr: 0x2D28, symBinAddr: 0x893A8, symSize: 0x58 }
  - { offset: 0xDB48B, size: 0x8, addend: 0x0, symName: __RNvMNtCsfvfooZQ3Axs_4core5sliceSNtNtNtCs1edtEUeLQ4Q_12serde_derive9internals3ast5Field5firstBA_, symObjAddr: 0x2D80, symBinAddr: 0x89400, symSize: 0x44 }
  - { offset: 0xDB4FC, size: 0x8, addend: 0x0, symName: __RNvMNtCsfvfooZQ3Axs_4core5sliceSNtNtNtCs1edtEUeLQ4Q_12serde_derive9internals3ast7Variant18split_at_uncheckedBA_, symObjAddr: 0x2DC4, symBinAddr: 0x89444, symSize: 0xEC }
  - { offset: 0xDB655, size: 0x8, addend: 0x0, symName: __RNvMNtCsfvfooZQ3Axs_4core5sliceSNtNtNtCs1edtEUeLQ4Q_12serde_derive9internals3ast7Variant4iterBA_, symObjAddr: 0x2EB0, symBinAddr: 0x89530, symSize: 0x28 }
  - { offset: 0xDB68C, size: 0x8, addend: 0x0, symName: __RNvMNtCsfvfooZQ3Axs_4core5sliceSNtNtNtCs1edtEUeLQ4Q_12serde_derive9internals3ast7Variant4lastBA_, symObjAddr: 0x2ED8, symBinAddr: 0x89558, symSize: 0x58 }
  - { offset: 0xDB70C, size: 0x8, addend: 0x0, symName: __RNvMNtCsfvfooZQ3Axs_4core5sliceSNtNtNtCs1edtEUeLQ4Q_12serde_derive9internals3ast7Variant8split_atBA_, symObjAddr: 0x2F30, symBinAddr: 0x895B0, symSize: 0xD0 }
  - { offset: 0xDB786, size: 0x8, addend: 0x0, symName: __RNvMNtCsfvfooZQ3Axs_4core5sliceSRNtNtCs6IAuOt8vWmF_3syn4expr6Member4iterCs1edtEUeLQ4Q_12serde_derive, symObjAddr: 0x3000, symBinAddr: 0x89680, symSize: 0x28 }
  - { offset: 0xDB7BD, size: 0x8, addend: 0x0, symName: __RNvMNtCsfvfooZQ3Axs_4core5sliceSTNtNtCs6IAuOt8vWmF_3syn4expr4ExprNtNtBz_5token5CommaE8iter_mutCs1edtEUeLQ4Q_12serde_derive, symObjAddr: 0x3028, symBinAddr: 0x896A8, symSize: 0x28 }
  - { offset: 0xDB7F4, size: 0x8, addend: 0x0, symName: __RNvMNtCsfvfooZQ3Axs_4core5sliceSTRNtNtNtCs1edtEUeLQ4Q_12serde_derive9internals3ast5FieldNtCs3cP53eQoTwO_11proc_macro25IdentE4iterBC_, symObjAddr: 0x3050, symBinAddr: 0x896D0, symSize: 0x28 }
  - { offset: 0xDB8E6, size: 0x8, addend: 0x0, symName: __RNvNvXs0_NtNtCsfvfooZQ3Axs_4core5slice5indexjINtB7_10SliceIndexSpE13get_unchecked18precondition_checkCs1edtEUeLQ4Q_12serde_derive, symObjAddr: 0x4068, symBinAddr: 0x8A3E8, symSize: 0x40 }
  - { offset: 0xDB922, size: 0x8, addend: 0x0, symName: __RNvNvXs0_NtNtCsfvfooZQ3Axs_4core5slice5indexjINtB7_10SliceIndexSpE17get_unchecked_mut18precondition_checkCs1edtEUeLQ4Q_12serde_derive, symObjAddr: 0x40A8, symBinAddr: 0x8A428, symSize: 0x40 }
  - { offset: 0xDB959, size: 0x8, addend: 0x0, symName: __RNvXs0_NtNtCsfvfooZQ3Axs_4core5slice5indexjINtB5_10SliceIndexSNtNtNtCs1edtEUeLQ4Q_12serde_derive9internals3ast5FieldE5indexB14_, symObjAddr: 0x4504, symBinAddr: 0x8A884, symSize: 0x64 }
